; Listing generated by Microsoft (R) Optimizing Compiler Version 16.00.40219.01 

	TITLE	D:\Projects\ExTeam6.3\Source\GameServer\GameServer\AcceptIp.cpp
	.686P
	.XMM
	include listing.inc
	.model	flat

INCLUDELIB LIBCMT
INCLUDELIB OLDNAMES

_DATA	SEGMENT
_g_iNpcUpDfLevel_CGATE DD 01H
	DD	02H
	DD	02dc6c0H
	DD	02H
	DD	03H
	DD	02dc6c0H
	DD	03H
	DD	04H
	DD	02dc6c0H
_g_iNpcUpDfLevel_CSTATUE DD 01H
	DD	03H
	DD	02dc6c0H
	DD	02H
	DD	05H
	DD	02dc6c0H
	DD	03H
	DD	07H
	DD	02dc6c0H
_g_iNpcUpMaxHP_CGATE DD 02625a0H
	DD	02H
	DD	0f4240H
	DD	03567e0H
	DD	03H
	DD	0f4240H
	DD	04f5880H
	DD	04H
	DD	0f4240H
_g_iNpcUpMaxHP_CSTATUE DD 02191c0H
	DD	03H
	DD	0f4240H
	DD	033e140H
	DD	05H
	DD	0f4240H
	DD	04c4b40H
	DD	07H
	DD	0f4240H
_g_iNpcUpRgLevel_CSTATUE DD 01H
	DD	03H
	DD	04c4b40H
	DD	02H
	DD	05H
	DD	04c4b40H
	DD	03H
	DD	07H
	DD	04c4b40H
_g_iCsUserReSpawnArea DD 023H
	DD	011H
	DD	090H
	DD	030H
	DD	04aH
	DD	090H
	DD	073H
	DD	09aH
	DD	023H
	DD	011H
	DD	090H
	DD	030H
_g_iNpcDefense_CGATE DD 064H
	DD	0b4H
	DD	012cH
	DD	0208H
_g_iNpcDefense_CSTATUE DD 050H
	DD	0b4H
	DD	0154H
	DD	0226H
_g_iCastleWallStepAxisY DD 071H
	DD	0a0H
	DD	0cbH
_DATA	ENDS
PUBLIC	??_H@YGXPAXIHP6EPAX0@Z@Z			; `vector constructor iterator'
; Function compile flags: /Odtp /ZI
;	COMDAT ??_H@YGXPAXIHP6EPAX0@Z@Z
_TEXT	SEGMENT
___t$ = 8						; size = 4
___s$ = 12						; size = 4
___n$ = 16						; size = 4
___f$ = 20						; size = 4
??_H@YGXPAXIHP6EPAX0@Z@Z PROC				; `vector constructor iterator', COMDAT
  00000	55		 push	 ebp
  00001	8b ec		 mov	 ebp, esp
  00003	83 ec 40	 sub	 esp, 64			; 00000040H
  00006	53		 push	 ebx
  00007	56		 push	 esi
  00008	57		 push	 edi
$LN2@vector:
  00009	8b 45 10	 mov	 eax, DWORD PTR ___n$[ebp]
  0000c	83 e8 01	 sub	 eax, 1
  0000f	89 45 10	 mov	 DWORD PTR ___n$[ebp], eax
  00012	78 11		 js	 SHORT $LN3@vector
  00014	8b 4d 08	 mov	 ecx, DWORD PTR ___t$[ebp]
  00017	ff 55 14	 call	 DWORD PTR ___f$[ebp]
  0001a	8b 45 08	 mov	 eax, DWORD PTR ___t$[ebp]
  0001d	03 45 0c	 add	 eax, DWORD PTR ___s$[ebp]
  00020	89 45 08	 mov	 DWORD PTR ___t$[ebp], eax
  00023	eb e4		 jmp	 SHORT $LN2@vector
$LN3@vector:
  00025	5f		 pop	 edi
  00026	5e		 pop	 esi
  00027	5b		 pop	 ebx
  00028	8b e5		 mov	 esp, ebp
  0002a	5d		 pop	 ebp
  0002b	c2 10 00	 ret	 16			; 00000010H
??_H@YGXPAXIHP6EPAX0@Z@Z ENDP				; `vector constructor iterator'
_TEXT	ENDS
PUBLIC	?Init@CAcceptIp@@QAEXXZ				; CAcceptIp::Init
PUBLIC	??_7CAcceptIp@@6B@				; CAcceptIp::`vftable'
PUBLIC	??0CAcceptIp@@QAE@XZ				; CAcceptIp::CAcceptIp
PUBLIC	??_R4CAcceptIp@@6B@				; CAcceptIp::`RTTI Complete Object Locator'
PUBLIC	??_R0?AVCAcceptIp@@@8				; CAcceptIp `RTTI Type Descriptor'
PUBLIC	??_R3CAcceptIp@@8				; CAcceptIp::`RTTI Class Hierarchy Descriptor'
PUBLIC	??_R2CAcceptIp@@8				; CAcceptIp::`RTTI Base Class Array'
PUBLIC	??_R1A@?0A@EA@CAcceptIp@@8			; CAcceptIp::`RTTI Base Class Descriptor at (0,-1,0,64)'
EXTRN	??_7type_info@@6B@:QWORD			; type_info::`vftable'
EXTRN	??_ECAcceptIp@@UAEPAXI@Z:PROC			; CAcceptIp::`vector deleting destructor'
;	COMDAT ??_R1A@?0A@EA@CAcceptIp@@8
; File d:\projects\exteam6.3\source\gameserver\gameserver\acceptip.cpp
rdata$r	SEGMENT
??_R1A@?0A@EA@CAcceptIp@@8 DD FLAT:??_R0?AVCAcceptIp@@@8 ; CAcceptIp::`RTTI Base Class Descriptor at (0,-1,0,64)'
	DD	00H
	DD	00H
	DD	0ffffffffH
	DD	00H
	DD	040H
	DD	FLAT:??_R3CAcceptIp@@8
rdata$r	ENDS
;	COMDAT ??_R2CAcceptIp@@8
rdata$r	SEGMENT
??_R2CAcceptIp@@8 DD FLAT:??_R1A@?0A@EA@CAcceptIp@@8	; CAcceptIp::`RTTI Base Class Array'
rdata$r	ENDS
;	COMDAT ??_R3CAcceptIp@@8
rdata$r	SEGMENT
??_R3CAcceptIp@@8 DD 00H				; CAcceptIp::`RTTI Class Hierarchy Descriptor'
	DD	00H
	DD	01H
	DD	FLAT:??_R2CAcceptIp@@8
rdata$r	ENDS
;	COMDAT ??_R0?AVCAcceptIp@@@8
_DATA	SEGMENT
??_R0?AVCAcceptIp@@@8 DD FLAT:??_7type_info@@6B@	; CAcceptIp `RTTI Type Descriptor'
	DD	00H
	DB	'.?AVCAcceptIp@@', 00H
_DATA	ENDS
;	COMDAT ??_R4CAcceptIp@@6B@
rdata$r	SEGMENT
??_R4CAcceptIp@@6B@ DD 00H				; CAcceptIp::`RTTI Complete Object Locator'
	DD	00H
	DD	00H
	DD	FLAT:??_R0?AVCAcceptIp@@@8
	DD	FLAT:??_R3CAcceptIp@@8
rdata$r	ENDS
;	COMDAT ??_7CAcceptIp@@6B@
CONST	SEGMENT
??_7CAcceptIp@@6B@ DD FLAT:??_R4CAcceptIp@@6B@		; CAcceptIp::`vftable'
	DD	FLAT:??_ECAcceptIp@@UAEPAXI@Z
; Function compile flags: /Odtp /ZI
CONST	ENDS
_TEXT	SEGMENT
_this$ = -4						; size = 4
??0CAcceptIp@@QAE@XZ PROC				; CAcceptIp::CAcceptIp
; _this$ = ecx

; 18   : {

  00000	55		 push	 ebp
  00001	8b ec		 mov	 ebp, esp
  00003	83 ec 44	 sub	 esp, 68			; 00000044H
  00006	53		 push	 ebx
  00007	56		 push	 esi
  00008	57		 push	 edi
  00009	89 4d fc	 mov	 DWORD PTR _this$[ebp], ecx
  0000c	8b 45 fc	 mov	 eax, DWORD PTR _this$[ebp]
  0000f	c7 00 00 00 00
	00		 mov	 DWORD PTR [eax], OFFSET ??_7CAcceptIp@@6B@

; 19   : 	Init();

  00015	8b 4d fc	 mov	 ecx, DWORD PTR _this$[ebp]
  00018	e8 00 00 00 00	 call	 ?Init@CAcceptIp@@QAEXXZ	; CAcceptIp::Init

; 20   : }

  0001d	8b 45 fc	 mov	 eax, DWORD PTR _this$[ebp]
  00020	5f		 pop	 edi
  00021	5e		 pop	 esi
  00022	5b		 pop	 ebx
  00023	8b e5		 mov	 esp, ebp
  00025	5d		 pop	 ebp
  00026	c3		 ret	 0
??0CAcceptIp@@QAE@XZ ENDP				; CAcceptIp::CAcceptIp
_TEXT	ENDS
PUBLIC	??1CAcceptIp@@UAE@XZ				; CAcceptIp::~CAcceptIp
EXTRN	??3@YAXPAX@Z:PROC				; operator delete
; Function compile flags: /Odtp /ZI
;	COMDAT ??_GCAcceptIp@@UAEPAXI@Z
_TEXT	SEGMENT
_this$ = -4						; size = 4
___flags$ = 8						; size = 4
??_GCAcceptIp@@UAEPAXI@Z PROC				; CAcceptIp::`scalar deleting destructor', COMDAT
; _this$ = ecx
  00000	55		 push	 ebp
  00001	8b ec		 mov	 ebp, esp
  00003	83 ec 44	 sub	 esp, 68			; 00000044H
  00006	53		 push	 ebx
  00007	56		 push	 esi
  00008	57		 push	 edi
  00009	89 4d fc	 mov	 DWORD PTR _this$[ebp], ecx
  0000c	8b 4d fc	 mov	 ecx, DWORD PTR _this$[ebp]
  0000f	e8 00 00 00 00	 call	 ??1CAcceptIp@@UAE@XZ	; CAcceptIp::~CAcceptIp
  00014	8b 45 08	 mov	 eax, DWORD PTR ___flags$[ebp]
  00017	83 e0 01	 and	 eax, 1
  0001a	74 0c		 je	 SHORT $LN1@scalar
  0001c	8b 45 fc	 mov	 eax, DWORD PTR _this$[ebp]
  0001f	50		 push	 eax
  00020	e8 00 00 00 00	 call	 ??3@YAXPAX@Z		; operator delete
  00025	83 c4 04	 add	 esp, 4
$LN1@scalar:
  00028	8b 45 fc	 mov	 eax, DWORD PTR _this$[ebp]
  0002b	5f		 pop	 edi
  0002c	5e		 pop	 esi
  0002d	5b		 pop	 ebx
  0002e	8b e5		 mov	 esp, ebp
  00030	5d		 pop	 ebp
  00031	c2 04 00	 ret	 4
??_GCAcceptIp@@UAEPAXI@Z ENDP				; CAcceptIp::`scalar deleting destructor'
; Function compile flags: /Odtp /ZI
_TEXT	ENDS
_TEXT	SEGMENT
_this$ = -4						; size = 4
??1CAcceptIp@@UAE@XZ PROC				; CAcceptIp::~CAcceptIp
; _this$ = ecx

; 23   : {

  00030	55		 push	 ebp
  00031	8b ec		 mov	 ebp, esp
  00033	83 ec 44	 sub	 esp, 68			; 00000044H
  00036	53		 push	 ebx
  00037	56		 push	 esi
  00038	57		 push	 edi
  00039	89 4d fc	 mov	 DWORD PTR _this$[ebp], ecx
  0003c	8b 45 fc	 mov	 eax, DWORD PTR _this$[ebp]
  0003f	c7 00 00 00 00
	00		 mov	 DWORD PTR [eax], OFFSET ??_7CAcceptIp@@6B@

; 24   : 
; 25   : }

  00045	5f		 pop	 edi
  00046	5e		 pop	 esi
  00047	5b		 pop	 ebx
  00048	8b e5		 mov	 esp, ebp
  0004a	5d		 pop	 ebp
  0004b	c3		 ret	 0
??1CAcceptIp@@UAE@XZ ENDP				; CAcceptIp::~CAcceptIp
_TEXT	ENDS
EXTRN	_memset:PROC
; Function compile flags: /Odtp /ZI
_TEXT	SEGMENT
_n$227095 = -8						; size = 4
_this$ = -4						; size = 4
?Init@CAcceptIp@@QAEXXZ PROC				; CAcceptIp::Init
; _this$ = ecx

; 28   : {

  00050	55		 push	 ebp
  00051	8b ec		 mov	 ebp, esp
  00053	83 ec 48	 sub	 esp, 72			; 00000048H
  00056	53		 push	 ebx
  00057	56		 push	 esi
  00058	57		 push	 edi
  00059	89 4d fc	 mov	 DWORD PTR _this$[ebp], ecx

; 29   : 	for( int n=0; n<MAXACCEPTIP; n++)

  0005c	c7 45 f8 00 00
	00 00		 mov	 DWORD PTR _n$227095[ebp], 0
  00063	eb 09		 jmp	 SHORT $LN3@Init
$LN2@Init:
  00065	8b 45 f8	 mov	 eax, DWORD PTR _n$227095[ebp]
  00068	83 c0 01	 add	 eax, 1
  0006b	89 45 f8	 mov	 DWORD PTR _n$227095[ebp], eax
$LN3@Init:
  0006e	83 7d f8 64	 cmp	 DWORD PTR _n$227095[ebp], 100 ; 00000064H
  00072	7d 26		 jge	 SHORT $LN4@Init

; 30   : 	{
; 31   : 		memset( &szIp[n], 0, 16);

  00074	6a 10		 push	 16			; 00000010H
  00076	6a 00		 push	 0
  00078	8b 45 f8	 mov	 eax, DWORD PTR _n$227095[ebp]
  0007b	c1 e0 04	 shl	 eax, 4
  0007e	8b 4d fc	 mov	 ecx, DWORD PTR _this$[ebp]
  00081	8d 54 01 68	 lea	 edx, DWORD PTR [ecx+eax+104]
  00085	52		 push	 edx
  00086	e8 00 00 00 00	 call	 _memset
  0008b	83 c4 0c	 add	 esp, 12			; 0000000cH

; 32   : 		UseIp[n] = 0;

  0008e	8b 45 fc	 mov	 eax, DWORD PTR _this$[ebp]
  00091	03 45 f8	 add	 eax, DWORD PTR _n$227095[ebp]
  00094	c6 40 04 00	 mov	 BYTE PTR [eax+4], 0

; 33   : 	}

  00098	eb cb		 jmp	 SHORT $LN2@Init
$LN4@Init:

; 34   : }

  0009a	5f		 pop	 edi
  0009b	5e		 pop	 esi
  0009c	5b		 pop	 ebx
  0009d	8b e5		 mov	 esp, ebp
  0009f	5d		 pop	 ebp
  000a0	c3		 ret	 0
?Init@CAcceptIp@@QAEXXZ ENDP				; CAcceptIp::Init
_TEXT	ENDS
PUBLIC	?IsIp@CAcceptIp@@QAEHPAD@Z			; CAcceptIp::IsIp
EXTRN	_strcmp:PROC
; Function compile flags: /Odtp /ZI
_TEXT	SEGMENT
_n$227103 = -8						; size = 4
_this$ = -4						; size = 4
_ip$ = 8						; size = 4
?IsIp@CAcceptIp@@QAEHPAD@Z PROC				; CAcceptIp::IsIp
; _this$ = ecx

; 37   : {

  000b0	55		 push	 ebp
  000b1	8b ec		 mov	 ebp, esp
  000b3	83 ec 48	 sub	 esp, 72			; 00000048H
  000b6	53		 push	 ebx
  000b7	56		 push	 esi
  000b8	57		 push	 edi
  000b9	89 4d fc	 mov	 DWORD PTR _this$[ebp], ecx

; 38   : 	for( int n=0; n<MAXACCEPTIP; n++)

  000bc	c7 45 f8 00 00
	00 00		 mov	 DWORD PTR _n$227103[ebp], 0
  000c3	eb 09		 jmp	 SHORT $LN5@IsIp
$LN4@IsIp:
  000c5	8b 45 f8	 mov	 eax, DWORD PTR _n$227103[ebp]
  000c8	83 c0 01	 add	 eax, 1
  000cb	89 45 f8	 mov	 DWORD PTR _n$227103[ebp], eax
$LN5@IsIp:
  000ce	83 7d f8 64	 cmp	 DWORD PTR _n$227103[ebp], 100 ; 00000064H
  000d2	7d 35		 jge	 SHORT $LN3@IsIp

; 39   : 	{
; 40   : 		if( UseIp[n] )

  000d4	8b 45 fc	 mov	 eax, DWORD PTR _this$[ebp]
  000d7	03 45 f8	 add	 eax, DWORD PTR _n$227103[ebp]
  000da	0f b6 48 04	 movzx	 ecx, BYTE PTR [eax+4]
  000de	85 c9		 test	 ecx, ecx
  000e0	74 25		 je	 SHORT $LN2@IsIp

; 41   : 		{
; 42   : 			if( strcmp(szIp[n], ip) == 0 )

  000e2	8b 45 08	 mov	 eax, DWORD PTR _ip$[ebp]
  000e5	50		 push	 eax
  000e6	8b 4d f8	 mov	 ecx, DWORD PTR _n$227103[ebp]
  000e9	c1 e1 04	 shl	 ecx, 4
  000ec	8b 55 fc	 mov	 edx, DWORD PTR _this$[ebp]
  000ef	8d 44 0a 68	 lea	 eax, DWORD PTR [edx+ecx+104]
  000f3	50		 push	 eax
  000f4	e8 00 00 00 00	 call	 _strcmp
  000f9	83 c4 08	 add	 esp, 8
  000fc	85 c0		 test	 eax, eax
  000fe	75 07		 jne	 SHORT $LN2@IsIp

; 43   : 			{
; 44   : 				return TRUE;	// 존재하면 

  00100	b8 01 00 00 00	 mov	 eax, 1
  00105	eb 04		 jmp	 SHORT $LN6@IsIp
$LN2@IsIp:

; 45   : 			}
; 46   : 		}
; 47   : 	}

  00107	eb bc		 jmp	 SHORT $LN4@IsIp
$LN3@IsIp:

; 48   : 	return FALSE;

  00109	33 c0		 xor	 eax, eax
$LN6@IsIp:

; 49   : }

  0010b	5f		 pop	 edi
  0010c	5e		 pop	 esi
  0010d	5b		 pop	 ebx
  0010e	8b e5		 mov	 esp, ebp
  00110	5d		 pop	 ebp
  00111	c2 04 00	 ret	 4
?IsIp@CAcceptIp@@QAEHPAD@Z ENDP				; CAcceptIp::IsIp
_TEXT	ENDS
PUBLIC	??_C@_01KDCPPGHE@r?$AA@				; `string'
PUBLIC	?Load@CAcceptIp@@QAEXPAD@Z			; CAcceptIp::Load
EXTRN	?LogAdd@@3P6AXPADZZA:DWORD			; LogAdd
EXTRN	_fclose:PROC
EXTRN	_strcpy:PROC
EXTRN	?MsgBox@@YAXPADZZ:PROC				; MsgBox
EXTRN	?Get@CMsg@@QAEPADH@Z:PROC			; CMsg::Get
EXTRN	?lMsg@@3VCMsg@@A:BYTE				; lMsg
EXTRN	_fopen:PROC
_BSS	SEGMENT
_TokenString DB	064H DUP (?)
_SMDFile DD	01H DUP (?)
_BSS	ENDS
;	COMDAT ??_C@_01KDCPPGHE@r?$AA@
CONST	SEGMENT
??_C@_01KDCPPGHE@r?$AA@ DB 'r', 00H			; `string'
; Function compile flags: /Odtp /ZI
CONST	ENDS
_TEXT	SEGMENT
_n$ = -16						; size = 4
_Token$ = -12						; size = 4
_count$ = -8						; size = 4
_this$ = -4						; size = 4
_filename$ = 8						; size = 4
?Load@CAcceptIp@@QAEXPAD@Z PROC				; CAcceptIp::Load
; _this$ = ecx

; 52   : {

  00120	55		 push	 ebp
  00121	8b ec		 mov	 ebp, esp
  00123	83 ec 50	 sub	 esp, 80			; 00000050H
  00126	53		 push	 ebx
  00127	56		 push	 esi
  00128	57		 push	 edi
  00129	89 4d fc	 mov	 DWORD PTR _this$[ebp], ecx

; 53   : 	int count=0;

  0012c	c7 45 f8 00 00
	00 00		 mov	 DWORD PTR _count$[ebp], 0

; 54   : 
; 55   : 	if((SMDFile=fopen(filename,"r")) == NULL)	

  00133	68 00 00 00 00	 push	 OFFSET ??_C@_01KDCPPGHE@r?$AA@
  00138	8b 45 08	 mov	 eax, DWORD PTR _filename$[ebp]
  0013b	50		 push	 eax
  0013c	e8 00 00 00 00	 call	 _fopen
  00141	83 c4 08	 add	 esp, 8
  00144	a3 00 00 00 00	 mov	 DWORD PTR _SMDFile, eax
  00149	83 3d 00 00 00
	00 00		 cmp	 DWORD PTR _SMDFile, 0
  00150	75 1e		 jne	 SHORT $LN5@Load

; 56   : 	{
; 57   : 		MsgBox(lMsg.Get(112), filename);

  00152	8b 45 08	 mov	 eax, DWORD PTR _filename$[ebp]
  00155	50		 push	 eax
  00156	6a 70		 push	 112			; 00000070H
  00158	b9 00 00 00 00	 mov	 ecx, OFFSET ?lMsg@@3VCMsg@@A ; lMsg
  0015d	e8 00 00 00 00	 call	 ?Get@CMsg@@QAEPADH@Z	; CMsg::Get
  00162	50		 push	 eax
  00163	e8 00 00 00 00	 call	 ?MsgBox@@YAXPADZZ	; MsgBox
  00168	83 c4 08	 add	 esp, 8

; 58   : 		return ;

  0016b	e9 81 00 00 00	 jmp	 $LN6@Load
$LN5@Load:

; 59   : 	}
; 60   : 	SMDToken Token;
; 61   : 	
; 62   : 	int n=0;

  00170	c7 45 f0 00 00
	00 00		 mov	 DWORD PTR _n$[ebp], 0
$LN4@Load:

; 63   : 
; 64   : 	while( true )

  00177	b8 01 00 00 00	 mov	 eax, 1
  0017c	85 c0		 test	 eax, eax
  0017e	74 46		 je	 SHORT $LN3@Load

; 65   : 	{
; 66   : 		Token = (*GetToken)();

  00180	e8 00 00 00 00	 call	 ?GetToken@@YA?AW4SMDToken@@XZ ; GetToken
  00185	89 45 f4	 mov	 DWORD PTR _Token$[ebp], eax

; 67   : 		if(Token == END) break;

  00188	83 7d f4 02	 cmp	 DWORD PTR _Token$[ebp], 2
  0018c	75 02		 jne	 SHORT $LN2@Load
  0018e	eb 36		 jmp	 SHORT $LN3@Load
$LN2@Load:

; 68   : 		if(Token == NAME )

  00190	83 7d f4 00	 cmp	 DWORD PTR _Token$[ebp], 0
  00194	75 2e		 jne	 SHORT $LN1@Load

; 69   : 		{
; 70   : 			strcpy(szIp[count], TokenString);			

  00196	68 00 00 00 00	 push	 OFFSET _TokenString
  0019b	8b 45 f8	 mov	 eax, DWORD PTR _count$[ebp]
  0019e	c1 e0 04	 shl	 eax, 4
  001a1	8b 4d fc	 mov	 ecx, DWORD PTR _this$[ebp]
  001a4	8d 54 01 68	 lea	 edx, DWORD PTR [ecx+eax+104]
  001a8	52		 push	 edx
  001a9	e8 00 00 00 00	 call	 _strcpy
  001ae	83 c4 08	 add	 esp, 8

; 71   : 			UseIp[count] = 1;

  001b1	8b 45 fc	 mov	 eax, DWORD PTR _this$[ebp]
  001b4	03 45 f8	 add	 eax, DWORD PTR _count$[ebp]
  001b7	c6 40 04 01	 mov	 BYTE PTR [eax+4], 1

; 72   : 			count++;

  001bb	8b 45 f8	 mov	 eax, DWORD PTR _count$[ebp]
  001be	83 c0 01	 add	 eax, 1
  001c1	89 45 f8	 mov	 DWORD PTR _count$[ebp], eax
$LN1@Load:

; 73   : 		}
; 74   : 	}

  001c4	eb b1		 jmp	 SHORT $LN4@Load
$LN3@Load:

; 75   : 	fclose(SMDFile);

  001c6	a1 00 00 00 00	 mov	 eax, DWORD PTR _SMDFile
  001cb	50		 push	 eax
  001cc	e8 00 00 00 00	 call	 _fclose
  001d1	83 c4 04	 add	 esp, 4

; 76   : 	LogAdd(lMsg.Get(420), count);

  001d4	8b 45 f8	 mov	 eax, DWORD PTR _count$[ebp]
  001d7	50		 push	 eax
  001d8	68 a4 01 00 00	 push	 420			; 000001a4H
  001dd	b9 00 00 00 00	 mov	 ecx, OFFSET ?lMsg@@3VCMsg@@A ; lMsg
  001e2	e8 00 00 00 00	 call	 ?Get@CMsg@@QAEPADH@Z	; CMsg::Get
  001e7	50		 push	 eax
  001e8	ff 15 00 00 00
	00		 call	 DWORD PTR ?LogAdd@@3P6AXPADZZA ; LogAdd
  001ee	83 c4 08	 add	 esp, 8
$LN6@Load:

; 77   : }

  001f1	5f		 pop	 edi
  001f2	5e		 pop	 esi
  001f3	5b		 pop	 ebx
  001f4	8b e5		 mov	 esp, ebp
  001f6	5d		 pop	 ebp
  001f7	c2 04 00	 ret	 4
?Load@CAcceptIp@@QAEXPAD@Z ENDP				; CAcceptIp::Load
_TEXT	ENDS
PUBLIC	__$ArrayPad$
EXTRN	_isalnum:PROC
EXTRN	_isalpha:PROC
EXTRN	_atof:PROC
EXTRN	_isdigit:PROC
EXTRN	_getc:PROC
EXTRN	_ungetc:PROC
EXTRN	_isspace:PROC
EXTRN	_fgetc:PROC
EXTRN	___security_cookie:DWORD
EXTRN	__fltused:DWORD
EXTRN	@__security_check_cookie@4:PROC
_BSS	SEGMENT
_TokenNumber DD	01H DUP (?)
_CurrentToken DD 01H DUP (?)
; Function compile flags: /Odtp /ZI
; File d:\projects\exteam6.3\source\gameserver\include\readscript.h
_BSS	ENDS
_TEXT	SEGMENT
tv90 = -180						; size = 4
_TempString$ = -112					; size = 100
_p$ = -12						; size = 4
_ch$ = -5						; size = 1
__$ArrayPad$ = -4					; size = 4
?GetToken@@YA?AW4SMDToken@@XZ PROC			; GetToken

; 24   : {

  00200	55		 push	 ebp
  00201	8b ec		 mov	 ebp, esp
  00203	81 ec b4 00 00
	00		 sub	 esp, 180		; 000000b4H
  00209	a1 00 00 00 00	 mov	 eax, DWORD PTR ___security_cookie
  0020e	33 c5		 xor	 eax, ebp
  00210	89 45 fc	 mov	 DWORD PTR __$ArrayPad$[ebp], eax
  00213	53		 push	 ebx
  00214	56		 push	 esi
  00215	57		 push	 edi

; 25   : 	char ch;
; 26   : 	char* p;
; 27   : 	char TempString[100];
; 28   : 
; 29   : 	TokenString[0]=0;

  00216	c6 05 00 00 00
	00 00		 mov	 BYTE PTR _TokenString, 0
$LN31@GetToken:

; 30   : 
; 31   : 	do
; 32   : 	{
; 33   : 		if ((ch=fgetc(SMDFile)) == -1)

  0021d	a1 00 00 00 00	 mov	 eax, DWORD PTR _SMDFile
  00222	50		 push	 eax
  00223	e8 00 00 00 00	 call	 _fgetc
  00228	83 c4 04	 add	 esp, 4
  0022b	88 45 fb	 mov	 BYTE PTR _ch$[ebp], al
  0022e	0f be 4d fb	 movsx	 ecx, BYTE PTR _ch$[ebp]
  00232	83 f9 ff	 cmp	 ecx, -1
  00235	75 0c		 jne	 SHORT $LN28@GetToken

; 34   : 		{
; 35   : 			return END;	// End of FILE (EOF)

  00237	b8 02 00 00 00	 mov	 eax, 2
  0023c	e9 f7 02 00 00	 jmp	 $LN32@GetToken

; 36   : 		}
; 37   : 		else

  00241	eb 5b		 jmp	 SHORT $LN22@GetToken
$LN28@GetToken:

; 38   : 		{	
; 39   : 			if (ch=='/')		// this is /

  00243	0f be 45 fb	 movsx	 eax, BYTE PTR _ch$[ebp]
  00247	83 f8 2f	 cmp	 eax, 47			; 0000002fH
  0024a	75 52		 jne	 SHORT $LN22@GetToken

; 40   : 			{
; 41   : 				if((ch=fgetc(SMDFile)) == '/')

  0024c	a1 00 00 00 00	 mov	 eax, DWORD PTR _SMDFile
  00251	50		 push	 eax
  00252	e8 00 00 00 00	 call	 _fgetc
  00257	83 c4 04	 add	 esp, 4
  0025a	88 45 fb	 mov	 BYTE PTR _ch$[ebp], al
  0025d	0f be 4d fb	 movsx	 ecx, BYTE PTR _ch$[ebp]
  00261	83 f9 2f	 cmp	 ecx, 47			; 0000002fH
  00264	75 38		 jne	 SHORT $LN22@GetToken
$LN24@GetToken:

; 42   : 				{
; 43   : 					while ((ch != '\n') && (ch != -1))	// End of Line (EOL)

  00266	0f be 45 fb	 movsx	 eax, BYTE PTR _ch$[ebp]
  0026a	83 f8 0a	 cmp	 eax, 10			; 0000000aH
  0026d	74 1c		 je	 SHORT $LN23@GetToken
  0026f	0f be 45 fb	 movsx	 eax, BYTE PTR _ch$[ebp]
  00273	83 f8 ff	 cmp	 eax, -1
  00276	74 13		 je	 SHORT $LN23@GetToken

; 44   : 					{
; 45   : 						ch=fgetc(SMDFile);

  00278	a1 00 00 00 00	 mov	 eax, DWORD PTR _SMDFile
  0027d	50		 push	 eax
  0027e	e8 00 00 00 00	 call	 _fgetc
  00283	83 c4 04	 add	 esp, 4
  00286	88 45 fb	 mov	 BYTE PTR _ch$[ebp], al

; 46   : 					}

  00289	eb db		 jmp	 SHORT $LN24@GetToken
$LN23@GetToken:

; 47   : 	
; 48   : 					if (ch == -1)

  0028b	0f be 45 fb	 movsx	 eax, BYTE PTR _ch$[ebp]
  0028f	83 f8 ff	 cmp	 eax, -1
  00292	75 0a		 jne	 SHORT $LN22@GetToken

; 49   : 					{
; 50   : 						return END;	// End of FILE

  00294	b8 02 00 00 00	 mov	 eax, 2
  00299	e9 9a 02 00 00	 jmp	 $LN32@GetToken
$LN22@GetToken:

; 51   : 					}
; 52   : 				}
; 53   : 			}
; 54   : 		}
; 55   : 	}
; 56   : 	while (isspace(ch) != 0);

  0029e	0f be 45 fb	 movsx	 eax, BYTE PTR _ch$[ebp]
  002a2	50		 push	 eax
  002a3	e8 00 00 00 00	 call	 _isspace
  002a8	83 c4 04	 add	 esp, 4
  002ab	85 c0		 test	 eax, eax
  002ad	0f 85 6a ff ff
	ff		 jne	 $LN31@GetToken

; 57   : 
; 58   : 	
; 59   : 	switch(ch)

  002b3	0f be 45 fb	 movsx	 eax, BYTE PTR _ch$[ebp]
  002b7	89 85 4c ff ff
	ff		 mov	 DWORD PTR tv90[ebp], eax
  002bd	8b 8d 4c ff ff
	ff		 mov	 ecx, DWORD PTR tv90[ebp]
  002c3	83 e9 22	 sub	 ecx, 34			; 00000022H
  002c6	89 8d 4c ff ff
	ff		 mov	 DWORD PTR tv90[ebp], ecx
  002cc	83 bd 4c ff ff
	ff 5b		 cmp	 DWORD PTR tv90[ebp], 91	; 0000005bH
  002d3	0f 87 a3 01 00
	00		 ja	 $LN6@GetToken
  002d9	8b 95 4c ff ff
	ff		 mov	 edx, DWORD PTR tv90[ebp]
  002df	0f b6 82 00 00
	00 00		 movzx	 eax, BYTE PTR $LN34@GetToken[edx]
  002e6	ff 24 85 00 00
	00 00		 jmp	 DWORD PTR $LN35@GetToken[eax*4]
$LN19@GetToken:

; 60   : 	{
; 61   : 
; 62   : 	case 0x23:	// #
; 63   : 		return CurrentToken=COMMAND;

  002ed	c7 05 00 00 00
	00 23 00 00 00	 mov	 DWORD PTR _CurrentToken, 35 ; 00000023H
  002f7	a1 00 00 00 00	 mov	 eax, DWORD PTR _CurrentToken
  002fc	e9 37 02 00 00	 jmp	 $LN32@GetToken

; 64   : 		break;

  00301	e9 30 02 00 00	 jmp	 $LN20@GetToken
$LN18@GetToken:

; 65   : 	
; 66   : 	case 0x3B:	// ;
; 67   : 		return CurrentToken=SEMICOLON;

  00306	c7 05 00 00 00
	00 3b 00 00 00	 mov	 DWORD PTR _CurrentToken, 59 ; 0000003bH
  00310	a1 00 00 00 00	 mov	 eax, DWORD PTR _CurrentToken
  00315	e9 1e 02 00 00	 jmp	 $LN32@GetToken

; 68   : 		break;

  0031a	e9 17 02 00 00	 jmp	 $LN20@GetToken
$LN17@GetToken:

; 69   : 	
; 70   : 	case 0x2C:	// ,
; 71   : 
; 72   : 		return CurrentToken=COMMA;

  0031f	c7 05 00 00 00
	00 2c 00 00 00	 mov	 DWORD PTR _CurrentToken, 44 ; 0000002cH
  00329	a1 00 00 00 00	 mov	 eax, DWORD PTR _CurrentToken
  0032e	e9 05 02 00 00	 jmp	 $LN32@GetToken

; 73   : 		break;

  00333	e9 fe 01 00 00	 jmp	 $LN20@GetToken
$LN16@GetToken:

; 74   : 	
; 75   : 	case 0x7B:	// {
; 76   : 		return CurrentToken = LP;

  00338	c7 05 00 00 00
	00 7b 00 00 00	 mov	 DWORD PTR _CurrentToken, 123 ; 0000007bH
  00342	a1 00 00 00 00	 mov	 eax, DWORD PTR _CurrentToken
  00347	e9 ec 01 00 00	 jmp	 $LN32@GetToken

; 77   : 		break;

  0034c	e9 e5 01 00 00	 jmp	 $LN20@GetToken
$LN15@GetToken:

; 78   : 
; 79   : 	case 0x7D:	// }
; 80   : 		return CurrentToken = RP;

  00351	c7 05 00 00 00
	00 7d 00 00 00	 mov	 DWORD PTR _CurrentToken, 125 ; 0000007dH
  0035b	a1 00 00 00 00	 mov	 eax, DWORD PTR _CurrentToken
  00360	e9 d3 01 00 00	 jmp	 $LN32@GetToken

; 81   : 		break;

  00365	e9 cc 01 00 00	 jmp	 $LN20@GetToken
$LN14@GetToken:

; 82   : 	// Nice Index Table :)	by Deathway
; 83   : 	// Numbers Case
; 84   : 	case 0x2D:	//-
; 85   : 	case 0x2E:	//.
; 86   : 	case '0':	//0
; 87   : 	case '1':	//1
; 88   : 	case '2':	//2
; 89   : 	case '3':	//3
; 90   : 	case '4':	//4		
; 91   : 	case '5':	//5
; 92   : 	case '6':	//6
; 93   : 	case '7':	//7
; 94   : 	case '8':	//8
; 95   : 	case '9':	//9
; 96   : 		ungetc(ch, SMDFile);

  0036a	a1 00 00 00 00	 mov	 eax, DWORD PTR _SMDFile
  0036f	50		 push	 eax
  00370	0f be 4d fb	 movsx	 ecx, BYTE PTR _ch$[ebp]
  00374	51		 push	 ecx
  00375	e8 00 00 00 00	 call	 _ungetc
  0037a	83 c4 08	 add	 esp, 8

; 97   : 		p = TempString;

  0037d	8d 45 90	 lea	 eax, DWORD PTR _TempString$[ebp]
  00380	89 45 f4	 mov	 DWORD PTR _p$[ebp], eax
$LN13@GetToken:

; 98   : 		
; 99   : 		while (((ch=getc(SMDFile)) != -1) && ((ch == 0x2E) || (isdigit(ch) != 0) || (ch == 0x2D)))  // 2e '.'  2D '-'

  00383	a1 00 00 00 00	 mov	 eax, DWORD PTR _SMDFile
  00388	50		 push	 eax
  00389	e8 00 00 00 00	 call	 _getc
  0038e	83 c4 04	 add	 esp, 4
  00391	88 45 fb	 mov	 BYTE PTR _ch$[ebp], al
  00394	0f be 4d fb	 movsx	 ecx, BYTE PTR _ch$[ebp]
  00398	83 f9 ff	 cmp	 ecx, -1
  0039b	74 36		 je	 SHORT $LN12@GetToken
  0039d	0f be 45 fb	 movsx	 eax, BYTE PTR _ch$[ebp]
  003a1	83 f8 2e	 cmp	 eax, 46			; 0000002eH
  003a4	74 1a		 je	 SHORT $LN11@GetToken
  003a6	0f be 45 fb	 movsx	 eax, BYTE PTR _ch$[ebp]
  003aa	50		 push	 eax
  003ab	e8 00 00 00 00	 call	 _isdigit
  003b0	83 c4 04	 add	 esp, 4
  003b3	85 c0		 test	 eax, eax
  003b5	75 09		 jne	 SHORT $LN11@GetToken
  003b7	0f be 45 fb	 movsx	 eax, BYTE PTR _ch$[ebp]
  003bb	83 f8 2d	 cmp	 eax, 45			; 0000002dH
  003be	75 13		 jne	 SHORT $LN12@GetToken
$LN11@GetToken:

; 100  : 		{
; 101  : 			*p = ch;	// Construct a String

  003c0	8b 45 f4	 mov	 eax, DWORD PTR _p$[ebp]
  003c3	8a 4d fb	 mov	 cl, BYTE PTR _ch$[ebp]
  003c6	88 08		 mov	 BYTE PTR [eax], cl

; 102  : 			p++;

  003c8	8b 45 f4	 mov	 eax, DWORD PTR _p$[ebp]
  003cb	83 c0 01	 add	 eax, 1
  003ce	89 45 f4	 mov	 DWORD PTR _p$[ebp], eax

; 103  : 		}		

  003d1	eb b0		 jmp	 SHORT $LN13@GetToken
$LN12@GetToken:

; 104  : 		*p = 0;

  003d3	8b 45 f4	 mov	 eax, DWORD PTR _p$[ebp]
  003d6	c6 00 00	 mov	 BYTE PTR [eax], 0

; 105  : 		TokenNumber = atof( TempString);	// Select the first Byte as Main ID

  003d9	8d 45 90	 lea	 eax, DWORD PTR _TempString$[ebp]
  003dc	50		 push	 eax
  003dd	e8 00 00 00 00	 call	 _atof
  003e2	83 c4 04	 add	 esp, 4
  003e5	d9 1d 00 00 00
	00		 fstp	 DWORD PTR _TokenNumber

; 106  : 		return CurrentToken  = NUMBER ;

  003eb	c7 05 00 00 00
	00 01 00 00 00	 mov	 DWORD PTR _CurrentToken, 1
  003f5	a1 00 00 00 00	 mov	 eax, DWORD PTR _CurrentToken
  003fa	e9 39 01 00 00	 jmp	 $LN32@GetToken

; 107  : 		break;

  003ff	e9 32 01 00 00	 jmp	 $LN20@GetToken
$LN10@GetToken:

; 108  : 
; 109  : 	case '\"':	// "	String Case
; 110  : 		p=&TokenString[0];

  00404	c7 45 f4 00 00
	00 00		 mov	 DWORD PTR _p$[ebp], OFFSET _TokenString
$LN9@GetToken:

; 111  : 		
; 112  : 		while (((ch=getc(SMDFile)) != -1 ) && (ch != 0x22))	// nice

  0040b	a1 00 00 00 00	 mov	 eax, DWORD PTR _SMDFile
  00410	50		 push	 eax
  00411	e8 00 00 00 00	 call	 _getc
  00416	83 c4 04	 add	 esp, 4
  00419	88 45 fb	 mov	 BYTE PTR _ch$[ebp], al
  0041c	0f be 4d fb	 movsx	 ecx, BYTE PTR _ch$[ebp]
  00420	83 f9 ff	 cmp	 ecx, -1
  00423	74 1c		 je	 SHORT $LN8@GetToken
  00425	0f be 45 fb	 movsx	 eax, BYTE PTR _ch$[ebp]
  00429	83 f8 22	 cmp	 eax, 34			; 00000022H
  0042c	74 13		 je	 SHORT $LN8@GetToken

; 113  : 		{
; 114  : 			*p = ch;

  0042e	8b 45 f4	 mov	 eax, DWORD PTR _p$[ebp]
  00431	8a 4d fb	 mov	 cl, BYTE PTR _ch$[ebp]
  00434	88 08		 mov	 BYTE PTR [eax], cl

; 115  : 			p++;

  00436	8b 45 f4	 mov	 eax, DWORD PTR _p$[ebp]
  00439	83 c0 01	 add	 eax, 1
  0043c	89 45 f4	 mov	 DWORD PTR _p$[ebp], eax

; 116  : 		}

  0043f	eb ca		 jmp	 SHORT $LN9@GetToken
$LN8@GetToken:

; 117  : 		if (ch != 0x22 )

  00441	0f be 45 fb	 movsx	 eax, BYTE PTR _ch$[ebp]
  00445	83 f8 22	 cmp	 eax, 34			; 00000022H
  00448	74 13		 je	 SHORT $LN7@GetToken

; 118  : 		{
; 119  : 			ungetc(ch, SMDFile);

  0044a	a1 00 00 00 00	 mov	 eax, DWORD PTR _SMDFile
  0044f	50		 push	 eax
  00450	0f be 4d fb	 movsx	 ecx, BYTE PTR _ch$[ebp]
  00454	51		 push	 ecx
  00455	e8 00 00 00 00	 call	 _ungetc
  0045a	83 c4 08	 add	 esp, 8
$LN7@GetToken:

; 120  : 		}
; 121  : 		*p = 0;

  0045d	8b 45 f4	 mov	 eax, DWORD PTR _p$[ebp]
  00460	c6 00 00	 mov	 BYTE PTR [eax], 0

; 122  : 		return CurrentToken = NAME;

  00463	c7 05 00 00 00
	00 00 00 00 00	 mov	 DWORD PTR _CurrentToken, 0
  0046d	a1 00 00 00 00	 mov	 eax, DWORD PTR _CurrentToken
  00472	e9 c1 00 00 00	 jmp	 $LN32@GetToken

; 123  : 		break;

  00477	e9 ba 00 00 00	 jmp	 $LN20@GetToken
$LN6@GetToken:

; 124  : 
; 125  : 	default:	// Others
; 126  : 		if (isalpha(ch))

  0047c	0f be 45 fb	 movsx	 eax, BYTE PTR _ch$[ebp]
  00480	50		 push	 eax
  00481	e8 00 00 00 00	 call	 _isalpha
  00486	83 c4 04	 add	 esp, 4
  00489	85 c0		 test	 eax, eax
  0048b	0f 84 94 00 00
	00		 je	 $LN5@GetToken

; 127  : 		{
; 128  : 			p=&TokenString[0];

  00491	c7 45 f4 00 00
	00 00		 mov	 DWORD PTR _p$[ebp], OFFSET _TokenString

; 129  : 			*p=ch;

  00498	8b 45 f4	 mov	 eax, DWORD PTR _p$[ebp]
  0049b	8a 4d fb	 mov	 cl, BYTE PTR _ch$[ebp]
  0049e	88 08		 mov	 BYTE PTR [eax], cl

; 130  : 			p++;

  004a0	8b 45 f4	 mov	 eax, DWORD PTR _p$[ebp]
  004a3	83 c0 01	 add	 eax, 1
  004a6	89 45 f4	 mov	 DWORD PTR _p$[ebp], eax
$LN4@GetToken:

; 131  : 
; 132  : 			while ( ((ch=getc(SMDFile)) != -1) && ( (ch == 0x2E) || (ch == 0x5F) || (isalnum(ch) != 0) ) )

  004a9	a1 00 00 00 00	 mov	 eax, DWORD PTR _SMDFile
  004ae	50		 push	 eax
  004af	e8 00 00 00 00	 call	 _getc
  004b4	83 c4 04	 add	 esp, 4
  004b7	88 45 fb	 mov	 BYTE PTR _ch$[ebp], al
  004ba	0f be 4d fb	 movsx	 ecx, BYTE PTR _ch$[ebp]
  004be	83 f9 ff	 cmp	 ecx, -1
  004c1	74 36		 je	 SHORT $LN3@GetToken
  004c3	0f be 45 fb	 movsx	 eax, BYTE PTR _ch$[ebp]
  004c7	83 f8 2e	 cmp	 eax, 46			; 0000002eH
  004ca	74 1a		 je	 SHORT $LN2@GetToken
  004cc	0f be 45 fb	 movsx	 eax, BYTE PTR _ch$[ebp]
  004d0	83 f8 5f	 cmp	 eax, 95			; 0000005fH
  004d3	74 11		 je	 SHORT $LN2@GetToken
  004d5	0f be 45 fb	 movsx	 eax, BYTE PTR _ch$[ebp]
  004d9	50		 push	 eax
  004da	e8 00 00 00 00	 call	 _isalnum
  004df	83 c4 04	 add	 esp, 4
  004e2	85 c0		 test	 eax, eax
  004e4	74 13		 je	 SHORT $LN3@GetToken
$LN2@GetToken:

; 133  : 			{
; 134  : 				*p=ch;

  004e6	8b 45 f4	 mov	 eax, DWORD PTR _p$[ebp]
  004e9	8a 4d fb	 mov	 cl, BYTE PTR _ch$[ebp]
  004ec	88 08		 mov	 BYTE PTR [eax], cl

; 135  : 				p++;

  004ee	8b 45 f4	 mov	 eax, DWORD PTR _p$[ebp]
  004f1	83 c0 01	 add	 eax, 1
  004f4	89 45 f4	 mov	 DWORD PTR _p$[ebp], eax

; 136  : 				
; 137  : 			}

  004f7	eb b0		 jmp	 SHORT $LN4@GetToken
$LN3@GetToken:

; 138  : 
; 139  : 			ungetc(ch, SMDFile);

  004f9	a1 00 00 00 00	 mov	 eax, DWORD PTR _SMDFile
  004fe	50		 push	 eax
  004ff	0f be 4d fb	 movsx	 ecx, BYTE PTR _ch$[ebp]
  00503	51		 push	 ecx
  00504	e8 00 00 00 00	 call	 _ungetc
  00509	83 c4 08	 add	 esp, 8

; 140  : 			*p=0;

  0050c	8b 45 f4	 mov	 eax, DWORD PTR _p$[ebp]
  0050f	c6 00 00	 mov	 BYTE PTR [eax], 0

; 141  : 			CurrentToken=NAME;

  00512	c7 05 00 00 00
	00 00 00 00 00	 mov	 DWORD PTR _CurrentToken, 0

; 142  : 			return CurrentToken;

  0051c	a1 00 00 00 00	 mov	 eax, DWORD PTR _CurrentToken
  00521	eb 15		 jmp	 SHORT $LN32@GetToken

; 143  : 		}
; 144  : 		else

  00523	eb 11		 jmp	 SHORT $LN1@GetToken
$LN5@GetToken:

; 145  : 		{
; 146  : 			return CurrentToken = SMD_ERROR; // '<'

  00525	c7 05 00 00 00
	00 3c 00 00 00	 mov	 DWORD PTR _CurrentToken, 60 ; 0000003cH
  0052f	a1 00 00 00 00	 mov	 eax, DWORD PTR _CurrentToken
  00534	eb 02		 jmp	 SHORT $LN32@GetToken
$LN1@GetToken:
$LN20@GetToken:

; 147  : 		}
; 148  : 		break;
; 149  : 
; 150  : 	}
; 151  : 
; 152  : 	return NAME;

  00536	33 c0		 xor	 eax, eax
$LN32@GetToken:

; 153  : }

  00538	5f		 pop	 edi
  00539	5e		 pop	 esi
  0053a	5b		 pop	 ebx
  0053b	8b 4d fc	 mov	 ecx, DWORD PTR __$ArrayPad$[ebp]
  0053e	33 cd		 xor	 ecx, ebp
  00540	e8 00 00 00 00	 call	 @__security_check_cookie@4
  00545	8b e5		 mov	 esp, ebp
  00547	5d		 pop	 ebp
  00548	c3		 ret	 0
  00549	8d 49 00	 npad	 3
$LN35@GetToken:
  0054c	00 00 00 00	 DD	 $LN10@GetToken
  00550	00 00 00 00	 DD	 $LN19@GetToken
  00554	00 00 00 00	 DD	 $LN17@GetToken
  00558	00 00 00 00	 DD	 $LN14@GetToken
  0055c	00 00 00 00	 DD	 $LN18@GetToken
  00560	00 00 00 00	 DD	 $LN16@GetToken
  00564	00 00 00 00	 DD	 $LN15@GetToken
  00568	00 00 00 00	 DD	 $LN6@GetToken
$LN34@GetToken:
  0056c	00		 DB	 0
  0056d	01		 DB	 1
  0056e	07		 DB	 7
  0056f	07		 DB	 7
  00570	07		 DB	 7
  00571	07		 DB	 7
  00572	07		 DB	 7
  00573	07		 DB	 7
  00574	07		 DB	 7
  00575	07		 DB	 7
  00576	02		 DB	 2
  00577	03		 DB	 3
  00578	03		 DB	 3
  00579	07		 DB	 7
  0057a	03		 DB	 3
  0057b	03		 DB	 3
  0057c	03		 DB	 3
  0057d	03		 DB	 3
  0057e	03		 DB	 3
  0057f	03		 DB	 3
  00580	03		 DB	 3
  00581	03		 DB	 3
  00582	03		 DB	 3
  00583	03		 DB	 3
  00584	07		 DB	 7
  00585	04		 DB	 4
  00586	07		 DB	 7
  00587	07		 DB	 7
  00588	07		 DB	 7
  00589	07		 DB	 7
  0058a	07		 DB	 7
  0058b	07		 DB	 7
  0058c	07		 DB	 7
  0058d	07		 DB	 7
  0058e	07		 DB	 7
  0058f	07		 DB	 7
  00590	07		 DB	 7
  00591	07		 DB	 7
  00592	07		 DB	 7
  00593	07		 DB	 7
  00594	07		 DB	 7
  00595	07		 DB	 7
  00596	07		 DB	 7
  00597	07		 DB	 7
  00598	07		 DB	 7
  00599	07		 DB	 7
  0059a	07		 DB	 7
  0059b	07		 DB	 7
  0059c	07		 DB	 7
  0059d	07		 DB	 7
  0059e	07		 DB	 7
  0059f	07		 DB	 7
  005a0	07		 DB	 7
  005a1	07		 DB	 7
  005a2	07		 DB	 7
  005a3	07		 DB	 7
  005a4	07		 DB	 7
  005a5	07		 DB	 7
  005a6	07		 DB	 7
  005a7	07		 DB	 7
  005a8	07		 DB	 7
  005a9	07		 DB	 7
  005aa	07		 DB	 7
  005ab	07		 DB	 7
  005ac	07		 DB	 7
  005ad	07		 DB	 7
  005ae	07		 DB	 7
  005af	07		 DB	 7
  005b0	07		 DB	 7
  005b1	07		 DB	 7
  005b2	07		 DB	 7
  005b3	07		 DB	 7
  005b4	07		 DB	 7
  005b5	07		 DB	 7
  005b6	07		 DB	 7
  005b7	07		 DB	 7
  005b8	07		 DB	 7
  005b9	07		 DB	 7
  005ba	07		 DB	 7
  005bb	07		 DB	 7
  005bc	07		 DB	 7
  005bd	07		 DB	 7
  005be	07		 DB	 7
  005bf	07		 DB	 7
  005c0	07		 DB	 7
  005c1	07		 DB	 7
  005c2	07		 DB	 7
  005c3	07		 DB	 7
  005c4	07		 DB	 7
  005c5	05		 DB	 5
  005c6	07		 DB	 7
  005c7	06		 DB	 6
?GetToken@@YA?AW4SMDToken@@XZ ENDP			; GetToken
_TEXT	ENDS
EXTRN	_atexit:PROC
; Function compile flags: /Odtp /ZI
; File d:\projects\exteam6.3\source\gameserver\gameserver\acceptip.cpp
;	COMDAT ??__EacceptIP@@YAXXZ
text$yc	SEGMENT
??__EacceptIP@@YAXXZ PROC				; `dynamic initializer for 'acceptIP'', COMDAT

; 11   : CAcceptIp	acceptIP;

  00000	55		 push	 ebp
  00001	8b ec		 mov	 ebp, esp
  00003	83 ec 40	 sub	 esp, 64			; 00000040H
  00006	53		 push	 ebx
  00007	56		 push	 esi
  00008	57		 push	 edi
  00009	b9 00 00 00 00	 mov	 ecx, OFFSET ?acceptIP@@3VCAcceptIp@@A ; acceptIP
  0000e	e8 00 00 00 00	 call	 ??0CAcceptIp@@QAE@XZ	; CAcceptIp::CAcceptIp
  00013	68 00 00 00 00	 push	 OFFSET ??__FacceptIP@@YAXXZ ; `dynamic atexit destructor for 'acceptIP''
  00018	e8 00 00 00 00	 call	 _atexit
  0001d	83 c4 04	 add	 esp, 4
  00020	5f		 pop	 edi
  00021	5e		 pop	 esi
  00022	5b		 pop	 ebx
  00023	8b e5		 mov	 esp, ebp
  00025	5d		 pop	 ebp
  00026	c3		 ret	 0
??__EacceptIP@@YAXXZ ENDP				; `dynamic initializer for 'acceptIP''
; Function compile flags: /Odtp /ZI
text$yc	ENDS
;	COMDAT ??__FacceptIP@@YAXXZ
text$yd	SEGMENT
??__FacceptIP@@YAXXZ PROC				; `dynamic atexit destructor for 'acceptIP'', COMDAT
  00000	55		 push	 ebp
  00001	8b ec		 mov	 ebp, esp
  00003	83 ec 40	 sub	 esp, 64			; 00000040H
  00006	53		 push	 ebx
  00007	56		 push	 esi
  00008	57		 push	 edi
  00009	b9 00 00 00 00	 mov	 ecx, OFFSET ?acceptIP@@3VCAcceptIp@@A ; acceptIP
  0000e	e8 00 00 00 00	 call	 ??1CAcceptIp@@UAE@XZ	; CAcceptIp::~CAcceptIp
  00013	5f		 pop	 edi
  00014	5e		 pop	 esi
  00015	5b		 pop	 ebx
  00016	8b e5		 mov	 esp, ebp
  00018	5d		 pop	 ebp
  00019	c3		 ret	 0
??__FacceptIP@@YAXXZ ENDP				; `dynamic atexit destructor for 'acceptIP''
text$yd	ENDS
PUBLIC	?acceptIP@@3VCAcceptIp@@A			; acceptIP
_BSS	SEGMENT
?acceptIP@@3VCAcceptIp@@A DB 06a8H DUP (?)		; acceptIP
_BSS	ENDS
CRT$XCU	SEGMENT
_acceptIP$initializer$ DD FLAT:??__EacceptIP@@YAXXZ
CRT$XCU	ENDS
END
