; Listing generated by Microsoft (R) Optimizing Compiler Version 16.00.40219.01 

	TITLE	D:\Projects\ExTeam6.3\Source\GameServer\GameServer\Achievements.cpp
	.686P
	.XMM
	include listing.inc
	.model	flat

INCLUDELIB LIBCMT
INCLUDELIB OLDNAMES

_DATA	SEGMENT
_g_iNpcUpDfLevel_CGATE DD 01H
	DD	02H
	DD	02dc6c0H
	DD	02H
	DD	03H
	DD	02dc6c0H
	DD	03H
	DD	04H
	DD	02dc6c0H
_g_iNpcUpDfLevel_CSTATUE DD 01H
	DD	03H
	DD	02dc6c0H
	DD	02H
	DD	05H
	DD	02dc6c0H
	DD	03H
	DD	07H
	DD	02dc6c0H
_g_iNpcUpMaxHP_CGATE DD 02625a0H
	DD	02H
	DD	0f4240H
	DD	03567e0H
	DD	03H
	DD	0f4240H
	DD	04f5880H
	DD	04H
	DD	0f4240H
_g_iNpcUpMaxHP_CSTATUE DD 02191c0H
	DD	03H
	DD	0f4240H
	DD	033e140H
	DD	05H
	DD	0f4240H
	DD	04c4b40H
	DD	07H
	DD	0f4240H
_g_iNpcUpRgLevel_CSTATUE DD 01H
	DD	03H
	DD	04c4b40H
	DD	02H
	DD	05H
	DD	04c4b40H
	DD	03H
	DD	07H
	DD	04c4b40H
_g_iCsUserReSpawnArea DD 023H
	DD	011H
	DD	090H
	DD	030H
	DD	04aH
	DD	090H
	DD	073H
	DD	09aH
	DD	023H
	DD	011H
	DD	090H
	DD	030H
_g_iNpcDefense_CGATE DD 064H
	DD	0b4H
	DD	012cH
	DD	0208H
_g_iNpcDefense_CSTATUE DD 050H
	DD	0b4H
	DD	0154H
	DD	0226H
_g_iCastleWallStepAxisY DD 071H
	DD	0a0H
	DD	0cbH
_g_sttKALIMAGATE_LEVEL DD 028H
	DD	082H
	DD	014H
	DD	06eH
	DD	083H
	DD	0b4H
	DD	06fH
	DD	0a0H
	DD	0b5H
	DD	0e6H
	DD	0a1H
	DD	0d2H
	DD	0e7H
	DD	0118H
	DD	0d3H
	DD	0104H
	DD	0119H
	DD	014aH
	DD	0105H
	DD	0136H
	DD	014bH
	DD	015dH
	DD	0137H
	DD	015dH
	DD	015eH
	DD	0190H
	DD	015eH
	DD	0190H
_g_iKalimaGateGateIndex DD 058H
	DD	059H
	DD	05aH
	DD	05bH
	DD	05cH
	DD	05dH
	DD	074H
_DATA	ENDS
PUBLIC	??_H@YGXPAXIHP6EPAX0@Z@Z			; `vector constructor iterator'
; Function compile flags: /Odtp /ZI
;	COMDAT ??_H@YGXPAXIHP6EPAX0@Z@Z
_TEXT	SEGMENT
___t$ = 8						; size = 4
___s$ = 12						; size = 4
___n$ = 16						; size = 4
___f$ = 20						; size = 4
??_H@YGXPAXIHP6EPAX0@Z@Z PROC				; `vector constructor iterator', COMDAT
  00000	55		 push	 ebp
  00001	8b ec		 mov	 ebp, esp
  00003	83 ec 40	 sub	 esp, 64			; 00000040H
  00006	53		 push	 ebx
  00007	56		 push	 esi
  00008	57		 push	 edi
$LN2@vector:
  00009	8b 45 10	 mov	 eax, DWORD PTR ___n$[ebp]
  0000c	83 e8 01	 sub	 eax, 1
  0000f	89 45 10	 mov	 DWORD PTR ___n$[ebp], eax
  00012	78 11		 js	 SHORT $LN3@vector
  00014	8b 4d 08	 mov	 ecx, DWORD PTR ___t$[ebp]
  00017	ff 55 14	 call	 DWORD PTR ___f$[ebp]
  0001a	8b 45 08	 mov	 eax, DWORD PTR ___t$[ebp]
  0001d	03 45 0c	 add	 eax, DWORD PTR ___s$[ebp]
  00020	89 45 08	 mov	 DWORD PTR ___t$[ebp], eax
  00023	eb e4		 jmp	 SHORT $LN2@vector
$LN3@vector:
  00025	5f		 pop	 edi
  00026	5e		 pop	 esi
  00027	5b		 pop	 ebx
  00028	8b e5		 mov	 esp, ebp
  0002a	5d		 pop	 ebp
  0002b	c2 10 00	 ret	 16			; 00000010H
??_H@YGXPAXIHP6EPAX0@Z@Z ENDP				; `vector constructor iterator'
_TEXT	ENDS
PUBLIC	?Init@CAchievements@@QAEXXZ			; CAchievements::Init
PUBLIC	??0CAchievements@@QAE@XZ			; CAchievements::CAchievements
; Function compile flags: /Odtp /ZI
; File d:\projects\exteam6.3\source\gameserver\gameserver\achievements.cpp
_TEXT	SEGMENT
_this$ = -4						; size = 4
??0CAchievements@@QAE@XZ PROC				; CAchievements::CAchievements
; _this$ = ecx

; 18   : {

  00000	55		 push	 ebp
  00001	8b ec		 mov	 ebp, esp
  00003	83 ec 44	 sub	 esp, 68			; 00000044H
  00006	53		 push	 ebx
  00007	56		 push	 esi
  00008	57		 push	 edi
  00009	89 4d fc	 mov	 DWORD PTR _this$[ebp], ecx

; 19   : 	this->Init();

  0000c	8b 4d fc	 mov	 ecx, DWORD PTR _this$[ebp]
  0000f	e8 00 00 00 00	 call	 ?Init@CAchievements@@QAEXXZ ; CAchievements::Init

; 20   : }

  00014	8b 45 fc	 mov	 eax, DWORD PTR _this$[ebp]
  00017	5f		 pop	 edi
  00018	5e		 pop	 esi
  00019	5b		 pop	 ebx
  0001a	8b e5		 mov	 esp, ebp
  0001c	5d		 pop	 ebp
  0001d	c3		 ret	 0
??0CAchievements@@QAE@XZ ENDP				; CAchievements::CAchievements
_TEXT	ENDS
PUBLIC	??1CAchievements@@QAE@XZ			; CAchievements::~CAchievements
; Function compile flags: /Odtp /ZI
_TEXT	SEGMENT
_this$ = -4						; size = 4
??1CAchievements@@QAE@XZ PROC				; CAchievements::~CAchievements
; _this$ = ecx

; 23   : {

  00020	55		 push	 ebp
  00021	8b ec		 mov	 ebp, esp
  00023	83 ec 44	 sub	 esp, 68			; 00000044H
  00026	53		 push	 ebx
  00027	56		 push	 esi
  00028	57		 push	 edi
  00029	89 4d fc	 mov	 DWORD PTR _this$[ebp], ecx

; 24   : }

  0002c	5f		 pop	 edi
  0002d	5e		 pop	 esi
  0002e	5b		 pop	 ebx
  0002f	8b e5		 mov	 esp, ebp
  00031	5d		 pop	 ebp
  00032	c3		 ret	 0
??1CAchievements@@QAE@XZ ENDP				; CAchievements::~CAchievements
_TEXT	ENDS
EXTRN	_memset:PROC
; Function compile flags: /Odtp /ZI
_TEXT	SEGMENT
_this$ = -4						; size = 4
?Init@CAchievements@@QAEXXZ PROC			; CAchievements::Init
; _this$ = ecx

; 27   : {

  00040	55		 push	 ebp
  00041	8b ec		 mov	 ebp, esp
  00043	83 ec 44	 sub	 esp, 68			; 00000044H
  00046	53		 push	 ebx
  00047	56		 push	 esi
  00048	57		 push	 edi
  00049	89 4d fc	 mov	 DWORD PTR _this$[ebp], ecx

; 28   : 	this->bEnable = false;

  0004c	8b 45 fc	 mov	 eax, DWORD PTR _this$[ebp]
  0004f	c6 40 14 00	 mov	 BYTE PTR [eax+20], 0

; 29   : 	memset(&this->m_config, 0, sizeof(this->m_config));

  00053	68 c8 00 00 00	 push	 200			; 000000c8H
  00058	6a 00		 push	 0
  0005a	8b 45 fc	 mov	 eax, DWORD PTR _this$[ebp]
  0005d	83 c0 18	 add	 eax, 24			; 00000018H
  00060	50		 push	 eax
  00061	e8 00 00 00 00	 call	 _memset
  00066	83 c4 0c	 add	 esp, 12			; 0000000cH

; 30   : 	memset(&this->m_reward, 0, sizeof(this->m_reward));

  00069	68 c8 00 00 00	 push	 200			; 000000c8H
  0006e	6a 00		 push	 0
  00070	8b 45 fc	 mov	 eax, DWORD PTR _this$[ebp]
  00073	05 e0 00 00 00	 add	 eax, 224		; 000000e0H
  00078	50		 push	 eax
  00079	e8 00 00 00 00	 call	 _memset
  0007e	83 c4 0c	 add	 esp, 12			; 0000000cH

; 31   : }

  00081	5f		 pop	 edi
  00082	5e		 pop	 esi
  00083	5b		 pop	 ebx
  00084	8b e5		 mov	 esp, ebp
  00086	5d		 pop	 ebp
  00087	c3		 ret	 0
?Init@CAchievements@@QAEXXZ ENDP			; CAchievements::Init
_TEXT	ENDS
PUBLIC	?GCSettingsData@CAchievements@@QAEXH@Z		; CAchievements::GCSettingsData
PUBLIC	?Read@CAchievements@@QAEXPAD@Z			; CAchievements::Read
PUBLIC	??_C@_0BI@HLGGDEOG@ExData?2Achievements?4ini?$AA@ ; `string'
PUBLIC	?Load@CAchievements@@QAEXXZ			; CAchievements::Load
EXTRN	?gObj@@3PAUOBJECTSTRUCT@@A:DWORD		; gObj
EXTRN	?GetNewPath@CDirPath@@QAEPADPAD@Z:PROC		; CDirPath::GetNewPath
EXTRN	?gDirPath@@3VCDirPath@@A:BYTE			; gDirPath
EXTRN	?g_ExLicense@@3VCExLicense@@A:BYTE		; g_ExLicense
;	COMDAT ??_C@_0BI@HLGGDEOG@ExData?2Achievements?4ini?$AA@
CONST	SEGMENT
??_C@_0BI@HLGGDEOG@ExData?2Achievements?4ini?$AA@ DB 'ExData\Achievements'
	DB	'.ini', 00H					; `string'
; Function compile flags: /Odtp /ZI
CONST	ENDS
_TEXT	SEGMENT
_lpUser$229059 = -12					; size = 4
_aIndex$229055 = -8					; size = 4
_this$ = -4						; size = 4
?Load@CAchievements@@QAEXXZ PROC			; CAchievements::Load
; _this$ = ecx

; 34   : {

  00090	55		 push	 ebp
  00091	8b ec		 mov	 ebp, esp
  00093	83 ec 4c	 sub	 esp, 76			; 0000004cH
  00096	53		 push	 ebx
  00097	56		 push	 esi
  00098	57		 push	 edi
  00099	89 4d fc	 mov	 DWORD PTR _this$[ebp], ecx

; 35   : 	if(!g_ExLicense.user.bAchievements)

  0009c	0f b6 05 e9 00
	00 00		 movzx	 eax, BYTE PTR ?g_ExLicense@@3VCExLicense@@A+233
  000a3	85 c0		 test	 eax, eax
  000a5	75 02		 jne	 SHORT $LN5@Load

; 36   : 	{
; 37   : 		return;

  000a7	eb 70		 jmp	 SHORT $LN6@Load
$LN5@Load:

; 38   : 	}
; 39   : 
; 40   : 	this->Init();

  000a9	8b 4d fc	 mov	 ecx, DWORD PTR _this$[ebp]
  000ac	e8 00 00 00 00	 call	 ?Init@CAchievements@@QAEXXZ ; CAchievements::Init

; 41   : 	this->Read(gDirPath.GetNewPath("ExData\\Achievements.ini"));

  000b1	68 00 00 00 00	 push	 OFFSET ??_C@_0BI@HLGGDEOG@ExData?2Achievements?4ini?$AA@
  000b6	b9 00 00 00 00	 mov	 ecx, OFFSET ?gDirPath@@3VCDirPath@@A ; gDirPath
  000bb	e8 00 00 00 00	 call	 ?GetNewPath@CDirPath@@QAEPADPAD@Z ; CDirPath::GetNewPath
  000c0	50		 push	 eax
  000c1	8b 4d fc	 mov	 ecx, DWORD PTR _this$[ebp]
  000c4	e8 00 00 00 00	 call	 ?Read@CAchievements@@QAEXPAD@Z ; CAchievements::Read

; 42   : 
; 43   : 	for(int aIndex = OBJ_STARTUSERINDEX; aIndex < OBJMAX; aIndex++)

  000c9	c7 45 f8 b0 36
	00 00		 mov	 DWORD PTR _aIndex$229055[ebp], 14000 ; 000036b0H
  000d0	eb 09		 jmp	 SHORT $LN4@Load
$LN3@Load:
  000d2	8b 45 f8	 mov	 eax, DWORD PTR _aIndex$229055[ebp]
  000d5	83 c0 01	 add	 eax, 1
  000d8	89 45 f8	 mov	 DWORD PTR _aIndex$229055[ebp], eax
$LN4@Load:
  000db	81 7d f8 98 3a
	00 00		 cmp	 DWORD PTR _aIndex$229055[ebp], 15000 ; 00003a98H
  000e2	7d 35		 jge	 SHORT $LN6@Load

; 44   : 	{
; 45   : 		LPOBJ lpUser = &gObj[aIndex];

  000e4	8b 45 f8	 mov	 eax, DWORD PTR _aIndex$229055[ebp]
  000e7	69 c0 38 2b 00
	00		 imul	 eax, 11064		; 00002b38H
  000ed	03 05 00 00 00
	00		 add	 eax, DWORD PTR ?gObj@@3PAUOBJECTSTRUCT@@A ; gObj
  000f3	89 45 f4	 mov	 DWORD PTR _lpUser$229059[ebp], eax

; 46   : 		if(lpUser->Connected == PLAYER_PLAYING && lpUser->Type == OBJ_USER)

  000f6	8b 45 f4	 mov	 eax, DWORD PTR _lpUser$229059[ebp]
  000f9	83 78 04 03	 cmp	 DWORD PTR [eax+4], 3
  000fd	75 18		 jne	 SHORT $LN1@Load
  000ff	8b 45 f4	 mov	 eax, DWORD PTR _lpUser$229059[ebp]
  00102	0f b7 48 68	 movzx	 ecx, WORD PTR [eax+104]
  00106	83 f9 01	 cmp	 ecx, 1
  00109	75 0c		 jne	 SHORT $LN1@Load

; 47   : 		{
; 48   : 			this->GCSettingsData(aIndex);

  0010b	8b 45 f8	 mov	 eax, DWORD PTR _aIndex$229055[ebp]
  0010e	50		 push	 eax
  0010f	8b 4d fc	 mov	 ecx, DWORD PTR _this$[ebp]
  00112	e8 00 00 00 00	 call	 ?GCSettingsData@CAchievements@@QAEXH@Z ; CAchievements::GCSettingsData
$LN1@Load:

; 49   : 		}
; 50   : 	}

  00117	eb b9		 jmp	 SHORT $LN3@Load
$LN6@Load:

; 51   : }

  00119	5f		 pop	 edi
  0011a	5e		 pop	 esi
  0011b	5b		 pop	 ebx
  0011c	8b e5		 mov	 esp, ebp
  0011e	5d		 pop	 ebp
  0011f	c3		 ret	 0
?Load@CAchievements@@QAEXXZ ENDP			; CAchievements::Load
_TEXT	ENDS
PUBLIC	??_C@_0BD@EFPIOGLG@DivCriticalPercent?$AA@	; `string'
PUBLIC	??_C@_0BD@CDJCBAGJ@DivExellentPercent?$AA@	; `string'
PUBLIC	??_C@_07HLKCCONK@DivLife?$AA@			; `string'
PUBLIC	??_C@_0L@COGGGABP@DivDefence?$AA@		; `string'
PUBLIC	??_C@_09NFBNHDPD@DivDamage?$AA@			; `string'
PUBLIC	??_C@_0BC@FBDOMICD@CriticalDamageMax?$AA@	; `string'
PUBLIC	??_C@_0BC@DEACALA@ExellentDamageMax?$AA@	; `string'
PUBLIC	??_C@_07LCDDDIHB@LifeMax?$AA@			; `string'
PUBLIC	??_C@_0L@LBODNNMD@DefenceMax?$AA@		; `string'
PUBLIC	??_C@_05PMCMDMKN@Power?$AA@			; `string'
PUBLIC	??_C@_09CFLNECFJ@DamageMax?$AA@			; `string'
PUBLIC	??_C@_0L@CDBAFBIG@PickUpRena?$AA@		; `string'
PUBLIC	??_C@_06BAGMPINC@Reward?$AA@			; `string'
PUBLIC	??_C@_0BC@FJIMNPIE@OfflineAttackTime?$AA@	; `string'
PUBLIC	??_C@_0BB@PHACFCBC@PickUpLuckyCoins?$AA@	; `string'
PUBLIC	??_C@_0L@CPMGAAI@PickUpSing?$AA@		; `string'
PUBLIC	??_C@_0BB@NMPMEAAK@PartyNoobLevelUp?$AA@	; `string'
PUBLIC	??_C@_0M@MAMKFDOB@GuildWarWin?$AA@		; `string'
PUBLIC	??_C@_0BC@FPGPMG@BuyDonateShopItem?$AA@		; `string'
PUBLIC	??_C@_0L@FDIMBEGH@KillErohim?$AA@		; `string'
PUBLIC	??_C@_0BG@ILFJNFJC@KillPlayerCastleSiege?$AA@	; `string'
PUBLIC	??_C@_0BD@PHINJBKO@KillCastleSiegeNPC?$AA@	; `string'
PUBLIC	??_C@_08FMDKGBNF@WinSiege?$AA@			; `string'
PUBLIC	??_C@_0BE@IDFBIGEM@MovePlayerFromCrown?$AA@	; `string'
PUBLIC	??_C@_0BF@HBGCIILA@WithstandSwitch10min?$AA@	; `string'
PUBLIC	??_C@_0BF@HAPDHJPC@MovePlayerFromSwitch?$AA@	; `string'
PUBLIC	??_C@_0BD@FHBADLJE@KanturuMonsterKill?$AA@	; `string'
PUBLIC	??_C@_0M@DLOEGGIN@PheonixKill?$AA@		; `string'
PUBLIC	??_C@_0BD@DIKHGCEL@HappyPouchesKiller?$AA@	; `string'
PUBLIC	??_C@_0BB@NECNGOHI@BlueRabbitKiller?$AA@	; `string'
PUBLIC	??_C@_0N@BEADCOLL@GrandResetUp?$AA@		; `string'
PUBLIC	??_C@_0L@EGINCFEN@CompleteBC?$AA@		; `string'
PUBLIC	??_C@_0N@MFBGOGFE@KillStatueBC?$AA@		; `string'
PUBLIC	??_C@_0L@NMFHDMIL@KundunKill?$AA@		; `string'
PUBLIC	??_C@_0M@MNEEJGKH@SelupanKill?$AA@		; `string'
PUBLIC	??_C@_0BD@BPBOIKLO@KillInSelf_Defense?$AA@	; `string'
PUBLIC	??_C@_0N@MICFOEPF@HellMainKill?$AA@		; `string'
PUBLIC	??_C@_0BE@CFAFEAJG@CryWolfEventMonster?$AA@	; `string'
PUBLIC	??_C@_0N@ONNONHJN@PhonomanKill?$AA@		; `string'
PUBLIC	??_C@_0L@OLDACHIE@MootopVote?$AA@		; `string'
PUBLIC	??_C@_0BC@ICDLIGPJ@Monster100LvlKill?$AA@	; `string'
PUBLIC	??_C@_0BA@ODPJIDCG@KanturuBossKill?$AA@		; `string'
PUBLIC	??_C@_07CJCBJCFL@ResetUp?$AA@			; `string'
PUBLIC	??_C@_07IFHAFPIB@LevelUp?$AA@			; `string'
PUBLIC	??_C@_07GHADJGDF@DuelWin?$AA@			; `string'
PUBLIC	??_C@_0N@DDKMACBB@PickUpAncent?$AA@		; `string'
PUBLIC	??_C@_0P@IFEPEFIA@PickUpExellent?$AA@		; `string'
PUBLIC	??_C@_09DGDHEANG@PickUpZen?$AA@			; `string'
PUBLIC	??_C@_0P@MLNADFDL@FailedChaosMix?$AA@		; `string'
PUBLIC	??_C@_0BA@JFKMGLE@SuccessChaosMix?$AA@		; `string'
PUBLIC	??_C@_0L@HICNPMAF@UsedJewels?$AA@		; `string'
PUBLIC	??_C@_0N@ICMJNFMD@PickUpJewels?$AA@		; `string'
PUBLIC	??_C@_0L@DLJNOBJL@OnlineTime?$AA@		; `string'
PUBLIC	??_C@_0N@BMJIPOCO@WinningTheCC?$AA@		; `string'
PUBLIC	??_C@_0N@GMLBOAGE@TakePartInCC?$AA@		; `string'
PUBLIC	??_C@_0L@JLBEKLBI@KillGateBC?$AA@		; `string'
PUBLIC	??_C@_07HOHPILBP@OrcKill?$AA@			; `string'
PUBLIC	??_C@_0O@HLDKCBKH@RedDragonKill?$AA@		; `string'
PUBLIC	??_C@_0L@KBPGGACD@PlayerKill?$AA@		; `string'
PUBLIC	??_C@_0BA@EPMFDFLP@WhiteWizardKill?$AA@		; `string'
PUBLIC	??_C@_0BB@GDDPKKHF@KalimaMonserKill?$AA@	; `string'
PUBLIC	??_C@_0L@KPOJALCF@GoldenKill?$AA@		; `string'
PUBLIC	??_C@_07PLHEGJFB@Mission?$AA@			; `string'
PUBLIC	??_C@_0M@LJDMLBHP@MonsterKill?$AA@		; `string'
PUBLIC	??_C@_06POMJKEPM@Common?$AA@			; `string'
PUBLIC	??_C@_06CKGENIKG@Enable?$AA@			; `string'
EXTRN	__imp__GetPrivateProfileIntA@16:PROC
;	COMDAT ??_C@_0BD@EFPIOGLG@DivCriticalPercent?$AA@
CONST	SEGMENT
??_C@_0BD@EFPIOGLG@DivCriticalPercent?$AA@ DB 'DivCriticalPercent', 00H ; `string'
CONST	ENDS
;	COMDAT ??_C@_0BD@CDJCBAGJ@DivExellentPercent?$AA@
CONST	SEGMENT
??_C@_0BD@CDJCBAGJ@DivExellentPercent?$AA@ DB 'DivExellentPercent', 00H ; `string'
CONST	ENDS
;	COMDAT ??_C@_07HLKCCONK@DivLife?$AA@
CONST	SEGMENT
??_C@_07HLKCCONK@DivLife?$AA@ DB 'DivLife', 00H		; `string'
CONST	ENDS
;	COMDAT ??_C@_0L@COGGGABP@DivDefence?$AA@
CONST	SEGMENT
??_C@_0L@COGGGABP@DivDefence?$AA@ DB 'DivDefence', 00H	; `string'
CONST	ENDS
;	COMDAT ??_C@_09NFBNHDPD@DivDamage?$AA@
CONST	SEGMENT
??_C@_09NFBNHDPD@DivDamage?$AA@ DB 'DivDamage', 00H	; `string'
CONST	ENDS
;	COMDAT ??_C@_0BC@FBDOMICD@CriticalDamageMax?$AA@
CONST	SEGMENT
??_C@_0BC@FBDOMICD@CriticalDamageMax?$AA@ DB 'CriticalDamageMax', 00H ; `string'
CONST	ENDS
;	COMDAT ??_C@_0BC@DEACALA@ExellentDamageMax?$AA@
CONST	SEGMENT
??_C@_0BC@DEACALA@ExellentDamageMax?$AA@ DB 'ExellentDamageMax', 00H ; `string'
CONST	ENDS
;	COMDAT ??_C@_07LCDDDIHB@LifeMax?$AA@
CONST	SEGMENT
??_C@_07LCDDDIHB@LifeMax?$AA@ DB 'LifeMax', 00H		; `string'
CONST	ENDS
;	COMDAT ??_C@_0L@LBODNNMD@DefenceMax?$AA@
CONST	SEGMENT
??_C@_0L@LBODNNMD@DefenceMax?$AA@ DB 'DefenceMax', 00H	; `string'
CONST	ENDS
;	COMDAT ??_C@_05PMCMDMKN@Power?$AA@
CONST	SEGMENT
??_C@_05PMCMDMKN@Power?$AA@ DB 'Power', 00H		; `string'
CONST	ENDS
;	COMDAT ??_C@_09CFLNECFJ@DamageMax?$AA@
CONST	SEGMENT
??_C@_09CFLNECFJ@DamageMax?$AA@ DB 'DamageMax', 00H	; `string'
CONST	ENDS
;	COMDAT ??_C@_0L@CDBAFBIG@PickUpRena?$AA@
CONST	SEGMENT
??_C@_0L@CDBAFBIG@PickUpRena?$AA@ DB 'PickUpRena', 00H	; `string'
CONST	ENDS
;	COMDAT ??_C@_06BAGMPINC@Reward?$AA@
CONST	SEGMENT
??_C@_06BAGMPINC@Reward?$AA@ DB 'Reward', 00H		; `string'
CONST	ENDS
;	COMDAT ??_C@_0BC@FJIMNPIE@OfflineAttackTime?$AA@
CONST	SEGMENT
??_C@_0BC@FJIMNPIE@OfflineAttackTime?$AA@ DB 'OfflineAttackTime', 00H ; `string'
CONST	ENDS
;	COMDAT ??_C@_0BB@PHACFCBC@PickUpLuckyCoins?$AA@
CONST	SEGMENT
??_C@_0BB@PHACFCBC@PickUpLuckyCoins?$AA@ DB 'PickUpLuckyCoins', 00H ; `string'
CONST	ENDS
;	COMDAT ??_C@_0L@CPMGAAI@PickUpSing?$AA@
CONST	SEGMENT
??_C@_0L@CPMGAAI@PickUpSing?$AA@ DB 'PickUpSing', 00H	; `string'
CONST	ENDS
;	COMDAT ??_C@_0BB@NMPMEAAK@PartyNoobLevelUp?$AA@
CONST	SEGMENT
??_C@_0BB@NMPMEAAK@PartyNoobLevelUp?$AA@ DB 'PartyNoobLevelUp', 00H ; `string'
CONST	ENDS
;	COMDAT ??_C@_0M@MAMKFDOB@GuildWarWin?$AA@
CONST	SEGMENT
??_C@_0M@MAMKFDOB@GuildWarWin?$AA@ DB 'GuildWarWin', 00H ; `string'
CONST	ENDS
;	COMDAT ??_C@_0BC@FPGPMG@BuyDonateShopItem?$AA@
CONST	SEGMENT
??_C@_0BC@FPGPMG@BuyDonateShopItem?$AA@ DB 'BuyDonateShopItem', 00H ; `string'
CONST	ENDS
;	COMDAT ??_C@_0L@FDIMBEGH@KillErohim?$AA@
CONST	SEGMENT
??_C@_0L@FDIMBEGH@KillErohim?$AA@ DB 'KillErohim', 00H	; `string'
CONST	ENDS
;	COMDAT ??_C@_0BG@ILFJNFJC@KillPlayerCastleSiege?$AA@
CONST	SEGMENT
??_C@_0BG@ILFJNFJC@KillPlayerCastleSiege?$AA@ DB 'KillPlayerCastleSiege', 00H ; `string'
CONST	ENDS
;	COMDAT ??_C@_0BD@PHINJBKO@KillCastleSiegeNPC?$AA@
CONST	SEGMENT
??_C@_0BD@PHINJBKO@KillCastleSiegeNPC?$AA@ DB 'KillCastleSiegeNPC', 00H ; `string'
CONST	ENDS
;	COMDAT ??_C@_08FMDKGBNF@WinSiege?$AA@
CONST	SEGMENT
??_C@_08FMDKGBNF@WinSiege?$AA@ DB 'WinSiege', 00H	; `string'
CONST	ENDS
;	COMDAT ??_C@_0BE@IDFBIGEM@MovePlayerFromCrown?$AA@
CONST	SEGMENT
??_C@_0BE@IDFBIGEM@MovePlayerFromCrown?$AA@ DB 'MovePlayerFromCrown', 00H ; `string'
CONST	ENDS
;	COMDAT ??_C@_0BF@HBGCIILA@WithstandSwitch10min?$AA@
CONST	SEGMENT
??_C@_0BF@HBGCIILA@WithstandSwitch10min?$AA@ DB 'WithstandSwitch10min', 00H ; `string'
CONST	ENDS
;	COMDAT ??_C@_0BF@HAPDHJPC@MovePlayerFromSwitch?$AA@
CONST	SEGMENT
??_C@_0BF@HAPDHJPC@MovePlayerFromSwitch?$AA@ DB 'MovePlayerFromSwitch', 00H ; `string'
CONST	ENDS
;	COMDAT ??_C@_0BD@FHBADLJE@KanturuMonsterKill?$AA@
CONST	SEGMENT
??_C@_0BD@FHBADLJE@KanturuMonsterKill?$AA@ DB 'KanturuMonsterKill', 00H ; `string'
CONST	ENDS
;	COMDAT ??_C@_0M@DLOEGGIN@PheonixKill?$AA@
CONST	SEGMENT
??_C@_0M@DLOEGGIN@PheonixKill?$AA@ DB 'PheonixKill', 00H ; `string'
CONST	ENDS
;	COMDAT ??_C@_0BD@DIKHGCEL@HappyPouchesKiller?$AA@
CONST	SEGMENT
??_C@_0BD@DIKHGCEL@HappyPouchesKiller?$AA@ DB 'HappyPouchesKiller', 00H ; `string'
CONST	ENDS
;	COMDAT ??_C@_0BB@NECNGOHI@BlueRabbitKiller?$AA@
CONST	SEGMENT
??_C@_0BB@NECNGOHI@BlueRabbitKiller?$AA@ DB 'BlueRabbitKiller', 00H ; `string'
CONST	ENDS
;	COMDAT ??_C@_0N@BEADCOLL@GrandResetUp?$AA@
CONST	SEGMENT
??_C@_0N@BEADCOLL@GrandResetUp?$AA@ DB 'GrandResetUp', 00H ; `string'
CONST	ENDS
;	COMDAT ??_C@_0L@EGINCFEN@CompleteBC?$AA@
CONST	SEGMENT
??_C@_0L@EGINCFEN@CompleteBC?$AA@ DB 'CompleteBC', 00H	; `string'
CONST	ENDS
;	COMDAT ??_C@_0N@MFBGOGFE@KillStatueBC?$AA@
CONST	SEGMENT
??_C@_0N@MFBGOGFE@KillStatueBC?$AA@ DB 'KillStatueBC', 00H ; `string'
CONST	ENDS
;	COMDAT ??_C@_0L@NMFHDMIL@KundunKill?$AA@
CONST	SEGMENT
??_C@_0L@NMFHDMIL@KundunKill?$AA@ DB 'KundunKill', 00H	; `string'
CONST	ENDS
;	COMDAT ??_C@_0M@MNEEJGKH@SelupanKill?$AA@
CONST	SEGMENT
??_C@_0M@MNEEJGKH@SelupanKill?$AA@ DB 'SelupanKill', 00H ; `string'
CONST	ENDS
;	COMDAT ??_C@_0BD@BPBOIKLO@KillInSelf_Defense?$AA@
CONST	SEGMENT
??_C@_0BD@BPBOIKLO@KillInSelf_Defense?$AA@ DB 'KillInSelf_Defense', 00H ; `string'
CONST	ENDS
;	COMDAT ??_C@_0N@MICFOEPF@HellMainKill?$AA@
CONST	SEGMENT
??_C@_0N@MICFOEPF@HellMainKill?$AA@ DB 'HellMainKill', 00H ; `string'
CONST	ENDS
;	COMDAT ??_C@_0BE@CFAFEAJG@CryWolfEventMonster?$AA@
CONST	SEGMENT
??_C@_0BE@CFAFEAJG@CryWolfEventMonster?$AA@ DB 'CryWolfEventMonster', 00H ; `string'
CONST	ENDS
;	COMDAT ??_C@_0N@ONNONHJN@PhonomanKill?$AA@
CONST	SEGMENT
??_C@_0N@ONNONHJN@PhonomanKill?$AA@ DB 'PhonomanKill', 00H ; `string'
CONST	ENDS
;	COMDAT ??_C@_0L@OLDACHIE@MootopVote?$AA@
CONST	SEGMENT
??_C@_0L@OLDACHIE@MootopVote?$AA@ DB 'MootopVote', 00H	; `string'
CONST	ENDS
;	COMDAT ??_C@_0BC@ICDLIGPJ@Monster100LvlKill?$AA@
CONST	SEGMENT
??_C@_0BC@ICDLIGPJ@Monster100LvlKill?$AA@ DB 'Monster100LvlKill', 00H ; `string'
CONST	ENDS
;	COMDAT ??_C@_0BA@ODPJIDCG@KanturuBossKill?$AA@
CONST	SEGMENT
??_C@_0BA@ODPJIDCG@KanturuBossKill?$AA@ DB 'KanturuBossKill', 00H ; `string'
CONST	ENDS
;	COMDAT ??_C@_07CJCBJCFL@ResetUp?$AA@
CONST	SEGMENT
??_C@_07CJCBJCFL@ResetUp?$AA@ DB 'ResetUp', 00H		; `string'
CONST	ENDS
;	COMDAT ??_C@_07IFHAFPIB@LevelUp?$AA@
CONST	SEGMENT
??_C@_07IFHAFPIB@LevelUp?$AA@ DB 'LevelUp', 00H		; `string'
CONST	ENDS
;	COMDAT ??_C@_07GHADJGDF@DuelWin?$AA@
CONST	SEGMENT
??_C@_07GHADJGDF@DuelWin?$AA@ DB 'DuelWin', 00H		; `string'
CONST	ENDS
;	COMDAT ??_C@_0N@DDKMACBB@PickUpAncent?$AA@
CONST	SEGMENT
??_C@_0N@DDKMACBB@PickUpAncent?$AA@ DB 'PickUpAncent', 00H ; `string'
CONST	ENDS
;	COMDAT ??_C@_0P@IFEPEFIA@PickUpExellent?$AA@
CONST	SEGMENT
??_C@_0P@IFEPEFIA@PickUpExellent?$AA@ DB 'PickUpExellent', 00H ; `string'
CONST	ENDS
;	COMDAT ??_C@_09DGDHEANG@PickUpZen?$AA@
CONST	SEGMENT
??_C@_09DGDHEANG@PickUpZen?$AA@ DB 'PickUpZen', 00H	; `string'
CONST	ENDS
;	COMDAT ??_C@_0P@MLNADFDL@FailedChaosMix?$AA@
CONST	SEGMENT
??_C@_0P@MLNADFDL@FailedChaosMix?$AA@ DB 'FailedChaosMix', 00H ; `string'
CONST	ENDS
;	COMDAT ??_C@_0BA@JFKMGLE@SuccessChaosMix?$AA@
CONST	SEGMENT
??_C@_0BA@JFKMGLE@SuccessChaosMix?$AA@ DB 'SuccessChaosMix', 00H ; `string'
CONST	ENDS
;	COMDAT ??_C@_0L@HICNPMAF@UsedJewels?$AA@
CONST	SEGMENT
??_C@_0L@HICNPMAF@UsedJewels?$AA@ DB 'UsedJewels', 00H	; `string'
CONST	ENDS
;	COMDAT ??_C@_0N@ICMJNFMD@PickUpJewels?$AA@
CONST	SEGMENT
??_C@_0N@ICMJNFMD@PickUpJewels?$AA@ DB 'PickUpJewels', 00H ; `string'
CONST	ENDS
;	COMDAT ??_C@_0L@DLJNOBJL@OnlineTime?$AA@
CONST	SEGMENT
??_C@_0L@DLJNOBJL@OnlineTime?$AA@ DB 'OnlineTime', 00H	; `string'
CONST	ENDS
;	COMDAT ??_C@_0N@BMJIPOCO@WinningTheCC?$AA@
CONST	SEGMENT
??_C@_0N@BMJIPOCO@WinningTheCC?$AA@ DB 'WinningTheCC', 00H ; `string'
CONST	ENDS
;	COMDAT ??_C@_0N@GMLBOAGE@TakePartInCC?$AA@
CONST	SEGMENT
??_C@_0N@GMLBOAGE@TakePartInCC?$AA@ DB 'TakePartInCC', 00H ; `string'
CONST	ENDS
;	COMDAT ??_C@_0L@JLBEKLBI@KillGateBC?$AA@
CONST	SEGMENT
??_C@_0L@JLBEKLBI@KillGateBC?$AA@ DB 'KillGateBC', 00H	; `string'
CONST	ENDS
;	COMDAT ??_C@_07HOHPILBP@OrcKill?$AA@
CONST	SEGMENT
??_C@_07HOHPILBP@OrcKill?$AA@ DB 'OrcKill', 00H		; `string'
CONST	ENDS
;	COMDAT ??_C@_0O@HLDKCBKH@RedDragonKill?$AA@
CONST	SEGMENT
??_C@_0O@HLDKCBKH@RedDragonKill?$AA@ DB 'RedDragonKill', 00H ; `string'
CONST	ENDS
;	COMDAT ??_C@_0L@KBPGGACD@PlayerKill?$AA@
CONST	SEGMENT
??_C@_0L@KBPGGACD@PlayerKill?$AA@ DB 'PlayerKill', 00H	; `string'
CONST	ENDS
;	COMDAT ??_C@_0BA@EPMFDFLP@WhiteWizardKill?$AA@
CONST	SEGMENT
??_C@_0BA@EPMFDFLP@WhiteWizardKill?$AA@ DB 'WhiteWizardKill', 00H ; `string'
CONST	ENDS
;	COMDAT ??_C@_0BB@GDDPKKHF@KalimaMonserKill?$AA@
CONST	SEGMENT
??_C@_0BB@GDDPKKHF@KalimaMonserKill?$AA@ DB 'KalimaMonserKill', 00H ; `string'
CONST	ENDS
;	COMDAT ??_C@_0L@KPOJALCF@GoldenKill?$AA@
CONST	SEGMENT
??_C@_0L@KPOJALCF@GoldenKill?$AA@ DB 'GoldenKill', 00H	; `string'
CONST	ENDS
;	COMDAT ??_C@_07PLHEGJFB@Mission?$AA@
CONST	SEGMENT
??_C@_07PLHEGJFB@Mission?$AA@ DB 'Mission', 00H		; `string'
CONST	ENDS
;	COMDAT ??_C@_0M@LJDMLBHP@MonsterKill?$AA@
CONST	SEGMENT
??_C@_0M@LJDMLBHP@MonsterKill?$AA@ DB 'MonsterKill', 00H ; `string'
CONST	ENDS
;	COMDAT ??_C@_06POMJKEPM@Common?$AA@
CONST	SEGMENT
??_C@_06POMJKEPM@Common?$AA@ DB 'Common', 00H		; `string'
CONST	ENDS
;	COMDAT ??_C@_06CKGENIKG@Enable?$AA@
CONST	SEGMENT
??_C@_06CKGENIKG@Enable?$AA@ DB 'Enable', 00H		; `string'
; Function compile flags: /Odtp /ZI
CONST	ENDS
_TEXT	SEGMENT
_this$ = -4						; size = 4
_filename$ = 8						; size = 4
?Read@CAchievements@@QAEXPAD@Z PROC			; CAchievements::Read
; _this$ = ecx

; 54   : {

  00120	55		 push	 ebp
  00121	8b ec		 mov	 ebp, esp
  00123	83 ec 44	 sub	 esp, 68			; 00000044H
  00126	53		 push	 ebx
  00127	56		 push	 esi
  00128	57		 push	 edi
  00129	89 4d fc	 mov	 DWORD PTR _this$[ebp], ecx

; 55   : 	this->bEnable = GetPrivateProfileInt("Common", "Enable", 0, filename);

  0012c	8b 45 08	 mov	 eax, DWORD PTR _filename$[ebp]
  0012f	50		 push	 eax
  00130	6a 00		 push	 0
  00132	68 00 00 00 00	 push	 OFFSET ??_C@_06CKGENIKG@Enable?$AA@
  00137	68 00 00 00 00	 push	 OFFSET ??_C@_06POMJKEPM@Common?$AA@
  0013c	ff 15 00 00 00
	00		 call	 DWORD PTR __imp__GetPrivateProfileIntA@16
  00142	85 c0		 test	 eax, eax
  00144	0f 95 c1	 setne	 cl
  00147	8b 55 fc	 mov	 edx, DWORD PTR _this$[ebp]
  0014a	88 4a 14	 mov	 BYTE PTR [edx+20], cl

; 56   : 	//-> mission config read
; 57   : 	this->m_config.i1_MonsterKill = GetPrivateProfileInt("Mission", "MonsterKill", 100, filename);

  0014d	8b 45 08	 mov	 eax, DWORD PTR _filename$[ebp]
  00150	50		 push	 eax
  00151	6a 64		 push	 100			; 00000064H
  00153	68 00 00 00 00	 push	 OFFSET ??_C@_0M@LJDMLBHP@MonsterKill?$AA@
  00158	68 00 00 00 00	 push	 OFFSET ??_C@_07PLHEGJFB@Mission?$AA@
  0015d	ff 15 00 00 00
	00		 call	 DWORD PTR __imp__GetPrivateProfileIntA@16
  00163	8b 4d fc	 mov	 ecx, DWORD PTR _this$[ebp]
  00166	89 41 18	 mov	 DWORD PTR [ecx+24], eax

; 58   : 	this->m_config.i2_GoldenKill = GetPrivateProfileInt("Mission", "GoldenKill", 100, filename);

  00169	8b 45 08	 mov	 eax, DWORD PTR _filename$[ebp]
  0016c	50		 push	 eax
  0016d	6a 64		 push	 100			; 00000064H
  0016f	68 00 00 00 00	 push	 OFFSET ??_C@_0L@KPOJALCF@GoldenKill?$AA@
  00174	68 00 00 00 00	 push	 OFFSET ??_C@_07PLHEGJFB@Mission?$AA@
  00179	ff 15 00 00 00
	00		 call	 DWORD PTR __imp__GetPrivateProfileIntA@16
  0017f	8b 4d fc	 mov	 ecx, DWORD PTR _this$[ebp]
  00182	89 41 1c	 mov	 DWORD PTR [ecx+28], eax

; 59   : 	this->m_config.i3_KalimaMonserKill = GetPrivateProfileInt("Mission", "KalimaMonserKill", 100, filename);

  00185	8b 45 08	 mov	 eax, DWORD PTR _filename$[ebp]
  00188	50		 push	 eax
  00189	6a 64		 push	 100			; 00000064H
  0018b	68 00 00 00 00	 push	 OFFSET ??_C@_0BB@GDDPKKHF@KalimaMonserKill?$AA@
  00190	68 00 00 00 00	 push	 OFFSET ??_C@_07PLHEGJFB@Mission?$AA@
  00195	ff 15 00 00 00
	00		 call	 DWORD PTR __imp__GetPrivateProfileIntA@16
  0019b	8b 4d fc	 mov	 ecx, DWORD PTR _this$[ebp]
  0019e	89 41 20	 mov	 DWORD PTR [ecx+32], eax

; 60   : 	this->m_config.i4_WhiteWizardKill = GetPrivateProfileInt("Mission", "WhiteWizardKill", 100, filename);

  001a1	8b 45 08	 mov	 eax, DWORD PTR _filename$[ebp]
  001a4	50		 push	 eax
  001a5	6a 64		 push	 100			; 00000064H
  001a7	68 00 00 00 00	 push	 OFFSET ??_C@_0BA@EPMFDFLP@WhiteWizardKill?$AA@
  001ac	68 00 00 00 00	 push	 OFFSET ??_C@_07PLHEGJFB@Mission?$AA@
  001b1	ff 15 00 00 00
	00		 call	 DWORD PTR __imp__GetPrivateProfileIntA@16
  001b7	8b 4d fc	 mov	 ecx, DWORD PTR _this$[ebp]
  001ba	89 41 24	 mov	 DWORD PTR [ecx+36], eax

; 61   : 	this->m_config.i5_PlayerKill = GetPrivateProfileInt("Mission", "PlayerKill", 100, filename);

  001bd	8b 45 08	 mov	 eax, DWORD PTR _filename$[ebp]
  001c0	50		 push	 eax
  001c1	6a 64		 push	 100			; 00000064H
  001c3	68 00 00 00 00	 push	 OFFSET ??_C@_0L@KBPGGACD@PlayerKill?$AA@
  001c8	68 00 00 00 00	 push	 OFFSET ??_C@_07PLHEGJFB@Mission?$AA@
  001cd	ff 15 00 00 00
	00		 call	 DWORD PTR __imp__GetPrivateProfileIntA@16
  001d3	8b 4d fc	 mov	 ecx, DWORD PTR _this$[ebp]
  001d6	89 41 28	 mov	 DWORD PTR [ecx+40], eax

; 62   : 	this->m_config.i6_RedDragonKill = GetPrivateProfileInt("Mission", "RedDragonKill", 100, filename);

  001d9	8b 45 08	 mov	 eax, DWORD PTR _filename$[ebp]
  001dc	50		 push	 eax
  001dd	6a 64		 push	 100			; 00000064H
  001df	68 00 00 00 00	 push	 OFFSET ??_C@_0O@HLDKCBKH@RedDragonKill?$AA@
  001e4	68 00 00 00 00	 push	 OFFSET ??_C@_07PLHEGJFB@Mission?$AA@
  001e9	ff 15 00 00 00
	00		 call	 DWORD PTR __imp__GetPrivateProfileIntA@16
  001ef	8b 4d fc	 mov	 ecx, DWORD PTR _this$[ebp]
  001f2	89 41 2c	 mov	 DWORD PTR [ecx+44], eax

; 63   : 	this->m_config.i7_OrcKill = GetPrivateProfileInt("Mission", "OrcKill", 100, filename);

  001f5	8b 45 08	 mov	 eax, DWORD PTR _filename$[ebp]
  001f8	50		 push	 eax
  001f9	6a 64		 push	 100			; 00000064H
  001fb	68 00 00 00 00	 push	 OFFSET ??_C@_07HOHPILBP@OrcKill?$AA@
  00200	68 00 00 00 00	 push	 OFFSET ??_C@_07PLHEGJFB@Mission?$AA@
  00205	ff 15 00 00 00
	00		 call	 DWORD PTR __imp__GetPrivateProfileIntA@16
  0020b	8b 4d fc	 mov	 ecx, DWORD PTR _this$[ebp]
  0020e	89 41 30	 mov	 DWORD PTR [ecx+48], eax

; 64   : 	this->m_config.i8_KillGateBC = GetPrivateProfileInt("Mission", "KillGateBC", 100, filename);

  00211	8b 45 08	 mov	 eax, DWORD PTR _filename$[ebp]
  00214	50		 push	 eax
  00215	6a 64		 push	 100			; 00000064H
  00217	68 00 00 00 00	 push	 OFFSET ??_C@_0L@JLBEKLBI@KillGateBC?$AA@
  0021c	68 00 00 00 00	 push	 OFFSET ??_C@_07PLHEGJFB@Mission?$AA@
  00221	ff 15 00 00 00
	00		 call	 DWORD PTR __imp__GetPrivateProfileIntA@16
  00227	8b 4d fc	 mov	 ecx, DWORD PTR _this$[ebp]
  0022a	89 41 34	 mov	 DWORD PTR [ecx+52], eax

; 65   : 	this->m_config.i9_TakePartInCC = GetPrivateProfileInt("Mission", "TakePartInCC", 100, filename);

  0022d	8b 45 08	 mov	 eax, DWORD PTR _filename$[ebp]
  00230	50		 push	 eax
  00231	6a 64		 push	 100			; 00000064H
  00233	68 00 00 00 00	 push	 OFFSET ??_C@_0N@GMLBOAGE@TakePartInCC?$AA@
  00238	68 00 00 00 00	 push	 OFFSET ??_C@_07PLHEGJFB@Mission?$AA@
  0023d	ff 15 00 00 00
	00		 call	 DWORD PTR __imp__GetPrivateProfileIntA@16
  00243	8b 4d fc	 mov	 ecx, DWORD PTR _this$[ebp]
  00246	89 41 38	 mov	 DWORD PTR [ecx+56], eax

; 66   : 	this->m_config.i10_WinningTheCC = GetPrivateProfileInt("Mission", "WinningTheCC", 100, filename);

  00249	8b 45 08	 mov	 eax, DWORD PTR _filename$[ebp]
  0024c	50		 push	 eax
  0024d	6a 64		 push	 100			; 00000064H
  0024f	68 00 00 00 00	 push	 OFFSET ??_C@_0N@BMJIPOCO@WinningTheCC?$AA@
  00254	68 00 00 00 00	 push	 OFFSET ??_C@_07PLHEGJFB@Mission?$AA@
  00259	ff 15 00 00 00
	00		 call	 DWORD PTR __imp__GetPrivateProfileIntA@16
  0025f	8b 4d fc	 mov	 ecx, DWORD PTR _this$[ebp]
  00262	89 41 3c	 mov	 DWORD PTR [ecx+60], eax

; 67   : 	this->m_config.i11_OnlineTime = GetPrivateProfileInt("Mission", "OnlineTime", 100, filename);

  00265	8b 45 08	 mov	 eax, DWORD PTR _filename$[ebp]
  00268	50		 push	 eax
  00269	6a 64		 push	 100			; 00000064H
  0026b	68 00 00 00 00	 push	 OFFSET ??_C@_0L@DLJNOBJL@OnlineTime?$AA@
  00270	68 00 00 00 00	 push	 OFFSET ??_C@_07PLHEGJFB@Mission?$AA@
  00275	ff 15 00 00 00
	00		 call	 DWORD PTR __imp__GetPrivateProfileIntA@16
  0027b	8b 4d fc	 mov	 ecx, DWORD PTR _this$[ebp]
  0027e	89 41 40	 mov	 DWORD PTR [ecx+64], eax

; 68   : 	this->m_config.i12_PickUpJewels = GetPrivateProfileInt("Mission", "PickUpJewels", 100, filename);

  00281	8b 45 08	 mov	 eax, DWORD PTR _filename$[ebp]
  00284	50		 push	 eax
  00285	6a 64		 push	 100			; 00000064H
  00287	68 00 00 00 00	 push	 OFFSET ??_C@_0N@ICMJNFMD@PickUpJewels?$AA@
  0028c	68 00 00 00 00	 push	 OFFSET ??_C@_07PLHEGJFB@Mission?$AA@
  00291	ff 15 00 00 00
	00		 call	 DWORD PTR __imp__GetPrivateProfileIntA@16
  00297	8b 4d fc	 mov	 ecx, DWORD PTR _this$[ebp]
  0029a	89 41 44	 mov	 DWORD PTR [ecx+68], eax

; 69   : 	this->m_config.i13_UsedJewels = GetPrivateProfileInt("Mission", "UsedJewels", 100, filename);

  0029d	8b 45 08	 mov	 eax, DWORD PTR _filename$[ebp]
  002a0	50		 push	 eax
  002a1	6a 64		 push	 100			; 00000064H
  002a3	68 00 00 00 00	 push	 OFFSET ??_C@_0L@HICNPMAF@UsedJewels?$AA@
  002a8	68 00 00 00 00	 push	 OFFSET ??_C@_07PLHEGJFB@Mission?$AA@
  002ad	ff 15 00 00 00
	00		 call	 DWORD PTR __imp__GetPrivateProfileIntA@16
  002b3	8b 4d fc	 mov	 ecx, DWORD PTR _this$[ebp]
  002b6	89 41 48	 mov	 DWORD PTR [ecx+72], eax

; 70   : 	this->m_config.i14_SuccessChaosMix = GetPrivateProfileInt("Mission", "SuccessChaosMix", 100, filename);

  002b9	8b 45 08	 mov	 eax, DWORD PTR _filename$[ebp]
  002bc	50		 push	 eax
  002bd	6a 64		 push	 100			; 00000064H
  002bf	68 00 00 00 00	 push	 OFFSET ??_C@_0BA@JFKMGLE@SuccessChaosMix?$AA@
  002c4	68 00 00 00 00	 push	 OFFSET ??_C@_07PLHEGJFB@Mission?$AA@
  002c9	ff 15 00 00 00
	00		 call	 DWORD PTR __imp__GetPrivateProfileIntA@16
  002cf	8b 4d fc	 mov	 ecx, DWORD PTR _this$[ebp]
  002d2	89 41 4c	 mov	 DWORD PTR [ecx+76], eax

; 71   : 	this->m_config.i15_FailedChaosMix = GetPrivateProfileInt("Mission", "FailedChaosMix", 100, filename);

  002d5	8b 45 08	 mov	 eax, DWORD PTR _filename$[ebp]
  002d8	50		 push	 eax
  002d9	6a 64		 push	 100			; 00000064H
  002db	68 00 00 00 00	 push	 OFFSET ??_C@_0P@MLNADFDL@FailedChaosMix?$AA@
  002e0	68 00 00 00 00	 push	 OFFSET ??_C@_07PLHEGJFB@Mission?$AA@
  002e5	ff 15 00 00 00
	00		 call	 DWORD PTR __imp__GetPrivateProfileIntA@16
  002eb	8b 4d fc	 mov	 ecx, DWORD PTR _this$[ebp]
  002ee	89 41 50	 mov	 DWORD PTR [ecx+80], eax

; 72   : 	this->m_config.i16_PickUpZen = GetPrivateProfileInt("Mission", "PickUpZen", 100, filename);

  002f1	8b 45 08	 mov	 eax, DWORD PTR _filename$[ebp]
  002f4	50		 push	 eax
  002f5	6a 64		 push	 100			; 00000064H
  002f7	68 00 00 00 00	 push	 OFFSET ??_C@_09DGDHEANG@PickUpZen?$AA@
  002fc	68 00 00 00 00	 push	 OFFSET ??_C@_07PLHEGJFB@Mission?$AA@
  00301	ff 15 00 00 00
	00		 call	 DWORD PTR __imp__GetPrivateProfileIntA@16
  00307	8b 4d fc	 mov	 ecx, DWORD PTR _this$[ebp]
  0030a	89 41 54	 mov	 DWORD PTR [ecx+84], eax

; 73   : 	this->m_config.i17_PickUpExellent = GetPrivateProfileInt("Mission", "PickUpExellent", 100, filename);

  0030d	8b 45 08	 mov	 eax, DWORD PTR _filename$[ebp]
  00310	50		 push	 eax
  00311	6a 64		 push	 100			; 00000064H
  00313	68 00 00 00 00	 push	 OFFSET ??_C@_0P@IFEPEFIA@PickUpExellent?$AA@
  00318	68 00 00 00 00	 push	 OFFSET ??_C@_07PLHEGJFB@Mission?$AA@
  0031d	ff 15 00 00 00
	00		 call	 DWORD PTR __imp__GetPrivateProfileIntA@16
  00323	8b 4d fc	 mov	 ecx, DWORD PTR _this$[ebp]
  00326	89 41 58	 mov	 DWORD PTR [ecx+88], eax

; 74   : 	this->m_config.i18_PickUpAncent = GetPrivateProfileInt("Mission", "PickUpAncent", 100, filename);

  00329	8b 45 08	 mov	 eax, DWORD PTR _filename$[ebp]
  0032c	50		 push	 eax
  0032d	6a 64		 push	 100			; 00000064H
  0032f	68 00 00 00 00	 push	 OFFSET ??_C@_0N@DDKMACBB@PickUpAncent?$AA@
  00334	68 00 00 00 00	 push	 OFFSET ??_C@_07PLHEGJFB@Mission?$AA@
  00339	ff 15 00 00 00
	00		 call	 DWORD PTR __imp__GetPrivateProfileIntA@16
  0033f	8b 4d fc	 mov	 ecx, DWORD PTR _this$[ebp]
  00342	89 41 5c	 mov	 DWORD PTR [ecx+92], eax

; 75   : 	this->m_config.i19_DuelWin = GetPrivateProfileInt("Mission", "DuelWin", 100, filename);

  00345	8b 45 08	 mov	 eax, DWORD PTR _filename$[ebp]
  00348	50		 push	 eax
  00349	6a 64		 push	 100			; 00000064H
  0034b	68 00 00 00 00	 push	 OFFSET ??_C@_07GHADJGDF@DuelWin?$AA@
  00350	68 00 00 00 00	 push	 OFFSET ??_C@_07PLHEGJFB@Mission?$AA@
  00355	ff 15 00 00 00
	00		 call	 DWORD PTR __imp__GetPrivateProfileIntA@16
  0035b	8b 4d fc	 mov	 ecx, DWORD PTR _this$[ebp]
  0035e	89 41 60	 mov	 DWORD PTR [ecx+96], eax

; 76   : 	this->m_config.i20_LevelUp = GetPrivateProfileInt("Mission", "LevelUp", 100, filename);

  00361	8b 45 08	 mov	 eax, DWORD PTR _filename$[ebp]
  00364	50		 push	 eax
  00365	6a 64		 push	 100			; 00000064H
  00367	68 00 00 00 00	 push	 OFFSET ??_C@_07IFHAFPIB@LevelUp?$AA@
  0036c	68 00 00 00 00	 push	 OFFSET ??_C@_07PLHEGJFB@Mission?$AA@
  00371	ff 15 00 00 00
	00		 call	 DWORD PTR __imp__GetPrivateProfileIntA@16
  00377	8b 4d fc	 mov	 ecx, DWORD PTR _this$[ebp]
  0037a	89 41 64	 mov	 DWORD PTR [ecx+100], eax

; 77   : 	this->m_config.i21_ResetUp = GetPrivateProfileInt("Mission", "ResetUp", 100, filename);

  0037d	8b 45 08	 mov	 eax, DWORD PTR _filename$[ebp]
  00380	50		 push	 eax
  00381	6a 64		 push	 100			; 00000064H
  00383	68 00 00 00 00	 push	 OFFSET ??_C@_07CJCBJCFL@ResetUp?$AA@
  00388	68 00 00 00 00	 push	 OFFSET ??_C@_07PLHEGJFB@Mission?$AA@
  0038d	ff 15 00 00 00
	00		 call	 DWORD PTR __imp__GetPrivateProfileIntA@16
  00393	8b 4d fc	 mov	 ecx, DWORD PTR _this$[ebp]
  00396	89 41 68	 mov	 DWORD PTR [ecx+104], eax

; 78   : 	this->m_config.i22_KanturuBossKill = GetPrivateProfileInt("Mission", "KanturuBossKill", 100, filename);

  00399	8b 45 08	 mov	 eax, DWORD PTR _filename$[ebp]
  0039c	50		 push	 eax
  0039d	6a 64		 push	 100			; 00000064H
  0039f	68 00 00 00 00	 push	 OFFSET ??_C@_0BA@ODPJIDCG@KanturuBossKill?$AA@
  003a4	68 00 00 00 00	 push	 OFFSET ??_C@_07PLHEGJFB@Mission?$AA@
  003a9	ff 15 00 00 00
	00		 call	 DWORD PTR __imp__GetPrivateProfileIntA@16
  003af	8b 4d fc	 mov	 ecx, DWORD PTR _this$[ebp]
  003b2	89 41 6c	 mov	 DWORD PTR [ecx+108], eax

; 79   : 	this->m_config.i23_Monster100LvlKill = GetPrivateProfileInt("Mission", "Monster100LvlKill", 100, filename);

  003b5	8b 45 08	 mov	 eax, DWORD PTR _filename$[ebp]
  003b8	50		 push	 eax
  003b9	6a 64		 push	 100			; 00000064H
  003bb	68 00 00 00 00	 push	 OFFSET ??_C@_0BC@ICDLIGPJ@Monster100LvlKill?$AA@
  003c0	68 00 00 00 00	 push	 OFFSET ??_C@_07PLHEGJFB@Mission?$AA@
  003c5	ff 15 00 00 00
	00		 call	 DWORD PTR __imp__GetPrivateProfileIntA@16
  003cb	8b 4d fc	 mov	 ecx, DWORD PTR _this$[ebp]
  003ce	89 41 70	 mov	 DWORD PTR [ecx+112], eax

; 80   : 	this->m_config.i24_MootopVote = GetPrivateProfileInt("Mission", "MootopVote", 100, filename);

  003d1	8b 45 08	 mov	 eax, DWORD PTR _filename$[ebp]
  003d4	50		 push	 eax
  003d5	6a 64		 push	 100			; 00000064H
  003d7	68 00 00 00 00	 push	 OFFSET ??_C@_0L@OLDACHIE@MootopVote?$AA@
  003dc	68 00 00 00 00	 push	 OFFSET ??_C@_07PLHEGJFB@Mission?$AA@
  003e1	ff 15 00 00 00
	00		 call	 DWORD PTR __imp__GetPrivateProfileIntA@16
  003e7	8b 4d fc	 mov	 ecx, DWORD PTR _this$[ebp]
  003ea	89 41 74	 mov	 DWORD PTR [ecx+116], eax

; 81   : 	this->m_config.i25_PhonomanKill = GetPrivateProfileInt("Mission", "PhonomanKill", 100, filename);

  003ed	8b 45 08	 mov	 eax, DWORD PTR _filename$[ebp]
  003f0	50		 push	 eax
  003f1	6a 64		 push	 100			; 00000064H
  003f3	68 00 00 00 00	 push	 OFFSET ??_C@_0N@ONNONHJN@PhonomanKill?$AA@
  003f8	68 00 00 00 00	 push	 OFFSET ??_C@_07PLHEGJFB@Mission?$AA@
  003fd	ff 15 00 00 00
	00		 call	 DWORD PTR __imp__GetPrivateProfileIntA@16
  00403	8b 4d fc	 mov	 ecx, DWORD PTR _this$[ebp]
  00406	89 41 78	 mov	 DWORD PTR [ecx+120], eax

; 82   : 	this->m_config.i26_CryWolfEventMonster = GetPrivateProfileInt("Mission", "CryWolfEventMonster", 100, filename);

  00409	8b 45 08	 mov	 eax, DWORD PTR _filename$[ebp]
  0040c	50		 push	 eax
  0040d	6a 64		 push	 100			; 00000064H
  0040f	68 00 00 00 00	 push	 OFFSET ??_C@_0BE@CFAFEAJG@CryWolfEventMonster?$AA@
  00414	68 00 00 00 00	 push	 OFFSET ??_C@_07PLHEGJFB@Mission?$AA@
  00419	ff 15 00 00 00
	00		 call	 DWORD PTR __imp__GetPrivateProfileIntA@16
  0041f	8b 4d fc	 mov	 ecx, DWORD PTR _this$[ebp]
  00422	89 41 7c	 mov	 DWORD PTR [ecx+124], eax

; 83   : 	this->m_config.i27_HellMainKill = GetPrivateProfileInt("Mission", "HellMainKill", 100, filename);

  00425	8b 45 08	 mov	 eax, DWORD PTR _filename$[ebp]
  00428	50		 push	 eax
  00429	6a 64		 push	 100			; 00000064H
  0042b	68 00 00 00 00	 push	 OFFSET ??_C@_0N@MICFOEPF@HellMainKill?$AA@
  00430	68 00 00 00 00	 push	 OFFSET ??_C@_07PLHEGJFB@Mission?$AA@
  00435	ff 15 00 00 00
	00		 call	 DWORD PTR __imp__GetPrivateProfileIntA@16
  0043b	8b 4d fc	 mov	 ecx, DWORD PTR _this$[ebp]
  0043e	89 81 80 00 00
	00		 mov	 DWORD PTR [ecx+128], eax

; 84   : 	this->m_config.i28_KillInSelf_Defense = GetPrivateProfileInt("Mission", "KillInSelf_Defense", 100, filename);

  00444	8b 45 08	 mov	 eax, DWORD PTR _filename$[ebp]
  00447	50		 push	 eax
  00448	6a 64		 push	 100			; 00000064H
  0044a	68 00 00 00 00	 push	 OFFSET ??_C@_0BD@BPBOIKLO@KillInSelf_Defense?$AA@
  0044f	68 00 00 00 00	 push	 OFFSET ??_C@_07PLHEGJFB@Mission?$AA@
  00454	ff 15 00 00 00
	00		 call	 DWORD PTR __imp__GetPrivateProfileIntA@16
  0045a	8b 4d fc	 mov	 ecx, DWORD PTR _this$[ebp]
  0045d	89 81 84 00 00
	00		 mov	 DWORD PTR [ecx+132], eax

; 85   : 	this->m_config.i29_SelupanKill = GetPrivateProfileInt("Mission", "SelupanKill", 100, filename);

  00463	8b 45 08	 mov	 eax, DWORD PTR _filename$[ebp]
  00466	50		 push	 eax
  00467	6a 64		 push	 100			; 00000064H
  00469	68 00 00 00 00	 push	 OFFSET ??_C@_0M@MNEEJGKH@SelupanKill?$AA@
  0046e	68 00 00 00 00	 push	 OFFSET ??_C@_07PLHEGJFB@Mission?$AA@
  00473	ff 15 00 00 00
	00		 call	 DWORD PTR __imp__GetPrivateProfileIntA@16
  00479	8b 4d fc	 mov	 ecx, DWORD PTR _this$[ebp]
  0047c	89 81 88 00 00
	00		 mov	 DWORD PTR [ecx+136], eax

; 86   : 	this->m_config.i30_KundunKill = GetPrivateProfileInt("Mission", "KundunKill", 100, filename);

  00482	8b 45 08	 mov	 eax, DWORD PTR _filename$[ebp]
  00485	50		 push	 eax
  00486	6a 64		 push	 100			; 00000064H
  00488	68 00 00 00 00	 push	 OFFSET ??_C@_0L@NMFHDMIL@KundunKill?$AA@
  0048d	68 00 00 00 00	 push	 OFFSET ??_C@_07PLHEGJFB@Mission?$AA@
  00492	ff 15 00 00 00
	00		 call	 DWORD PTR __imp__GetPrivateProfileIntA@16
  00498	8b 4d fc	 mov	 ecx, DWORD PTR _this$[ebp]
  0049b	89 81 8c 00 00
	00		 mov	 DWORD PTR [ecx+140], eax

; 87   : 	this->m_config.i31_KillStatueBC = GetPrivateProfileInt("Mission", "KillStatueBC", 100, filename);

  004a1	8b 45 08	 mov	 eax, DWORD PTR _filename$[ebp]
  004a4	50		 push	 eax
  004a5	6a 64		 push	 100			; 00000064H
  004a7	68 00 00 00 00	 push	 OFFSET ??_C@_0N@MFBGOGFE@KillStatueBC?$AA@
  004ac	68 00 00 00 00	 push	 OFFSET ??_C@_07PLHEGJFB@Mission?$AA@
  004b1	ff 15 00 00 00
	00		 call	 DWORD PTR __imp__GetPrivateProfileIntA@16
  004b7	8b 4d fc	 mov	 ecx, DWORD PTR _this$[ebp]
  004ba	89 81 90 00 00
	00		 mov	 DWORD PTR [ecx+144], eax

; 88   : 	this->m_config.i32_CompleteBC = GetPrivateProfileInt("Mission", "CompleteBC", 100, filename);

  004c0	8b 45 08	 mov	 eax, DWORD PTR _filename$[ebp]
  004c3	50		 push	 eax
  004c4	6a 64		 push	 100			; 00000064H
  004c6	68 00 00 00 00	 push	 OFFSET ??_C@_0L@EGINCFEN@CompleteBC?$AA@
  004cb	68 00 00 00 00	 push	 OFFSET ??_C@_07PLHEGJFB@Mission?$AA@
  004d0	ff 15 00 00 00
	00		 call	 DWORD PTR __imp__GetPrivateProfileIntA@16
  004d6	8b 4d fc	 mov	 ecx, DWORD PTR _this$[ebp]
  004d9	89 81 94 00 00
	00		 mov	 DWORD PTR [ecx+148], eax

; 89   : 	this->m_config.i33_GrandResetUp = GetPrivateProfileInt("Mission", "GrandResetUp", 100, filename);

  004df	8b 45 08	 mov	 eax, DWORD PTR _filename$[ebp]
  004e2	50		 push	 eax
  004e3	6a 64		 push	 100			; 00000064H
  004e5	68 00 00 00 00	 push	 OFFSET ??_C@_0N@BEADCOLL@GrandResetUp?$AA@
  004ea	68 00 00 00 00	 push	 OFFSET ??_C@_07PLHEGJFB@Mission?$AA@
  004ef	ff 15 00 00 00
	00		 call	 DWORD PTR __imp__GetPrivateProfileIntA@16
  004f5	8b 4d fc	 mov	 ecx, DWORD PTR _this$[ebp]
  004f8	89 81 98 00 00
	00		 mov	 DWORD PTR [ecx+152], eax

; 90   : 	this->m_config.i34_BlueRabbitKiller = GetPrivateProfileInt("Mission", "BlueRabbitKiller", 100, filename);

  004fe	8b 45 08	 mov	 eax, DWORD PTR _filename$[ebp]
  00501	50		 push	 eax
  00502	6a 64		 push	 100			; 00000064H
  00504	68 00 00 00 00	 push	 OFFSET ??_C@_0BB@NECNGOHI@BlueRabbitKiller?$AA@
  00509	68 00 00 00 00	 push	 OFFSET ??_C@_07PLHEGJFB@Mission?$AA@
  0050e	ff 15 00 00 00
	00		 call	 DWORD PTR __imp__GetPrivateProfileIntA@16
  00514	8b 4d fc	 mov	 ecx, DWORD PTR _this$[ebp]
  00517	89 81 9c 00 00
	00		 mov	 DWORD PTR [ecx+156], eax

; 91   : 	this->m_config.i35_HappyPouchesKiller = GetPrivateProfileInt("Mission", "HappyPouchesKiller", 100, filename);

  0051d	8b 45 08	 mov	 eax, DWORD PTR _filename$[ebp]
  00520	50		 push	 eax
  00521	6a 64		 push	 100			; 00000064H
  00523	68 00 00 00 00	 push	 OFFSET ??_C@_0BD@DIKHGCEL@HappyPouchesKiller?$AA@
  00528	68 00 00 00 00	 push	 OFFSET ??_C@_07PLHEGJFB@Mission?$AA@
  0052d	ff 15 00 00 00
	00		 call	 DWORD PTR __imp__GetPrivateProfileIntA@16
  00533	8b 4d fc	 mov	 ecx, DWORD PTR _this$[ebp]
  00536	89 81 a0 00 00
	00		 mov	 DWORD PTR [ecx+160], eax

; 92   : 	this->m_config.i36_PheonixKill = GetPrivateProfileInt("Mission", "PheonixKill", 100, filename);

  0053c	8b 45 08	 mov	 eax, DWORD PTR _filename$[ebp]
  0053f	50		 push	 eax
  00540	6a 64		 push	 100			; 00000064H
  00542	68 00 00 00 00	 push	 OFFSET ??_C@_0M@DLOEGGIN@PheonixKill?$AA@
  00547	68 00 00 00 00	 push	 OFFSET ??_C@_07PLHEGJFB@Mission?$AA@
  0054c	ff 15 00 00 00
	00		 call	 DWORD PTR __imp__GetPrivateProfileIntA@16
  00552	8b 4d fc	 mov	 ecx, DWORD PTR _this$[ebp]
  00555	89 81 a4 00 00
	00		 mov	 DWORD PTR [ecx+164], eax

; 93   : 	this->m_config.i37_KanturuMonsterKill = GetPrivateProfileInt("Mission", "KanturuMonsterKill", 100, filename);

  0055b	8b 45 08	 mov	 eax, DWORD PTR _filename$[ebp]
  0055e	50		 push	 eax
  0055f	6a 64		 push	 100			; 00000064H
  00561	68 00 00 00 00	 push	 OFFSET ??_C@_0BD@FHBADLJE@KanturuMonsterKill?$AA@
  00566	68 00 00 00 00	 push	 OFFSET ??_C@_07PLHEGJFB@Mission?$AA@
  0056b	ff 15 00 00 00
	00		 call	 DWORD PTR __imp__GetPrivateProfileIntA@16
  00571	8b 4d fc	 mov	 ecx, DWORD PTR _this$[ebp]
  00574	89 81 a8 00 00
	00		 mov	 DWORD PTR [ecx+168], eax

; 94   : 	this->m_config.i38_MovePlayerFromSwitch = GetPrivateProfileInt("Mission", "MovePlayerFromSwitch", 100, filename);

  0057a	8b 45 08	 mov	 eax, DWORD PTR _filename$[ebp]
  0057d	50		 push	 eax
  0057e	6a 64		 push	 100			; 00000064H
  00580	68 00 00 00 00	 push	 OFFSET ??_C@_0BF@HAPDHJPC@MovePlayerFromSwitch?$AA@
  00585	68 00 00 00 00	 push	 OFFSET ??_C@_07PLHEGJFB@Mission?$AA@
  0058a	ff 15 00 00 00
	00		 call	 DWORD PTR __imp__GetPrivateProfileIntA@16
  00590	8b 4d fc	 mov	 ecx, DWORD PTR _this$[ebp]
  00593	89 81 ac 00 00
	00		 mov	 DWORD PTR [ecx+172], eax

; 95   : 	this->m_config.i39_WithstandSwitch10min = GetPrivateProfileInt("Mission", "WithstandSwitch10min", 100, filename);

  00599	8b 45 08	 mov	 eax, DWORD PTR _filename$[ebp]
  0059c	50		 push	 eax
  0059d	6a 64		 push	 100			; 00000064H
  0059f	68 00 00 00 00	 push	 OFFSET ??_C@_0BF@HBGCIILA@WithstandSwitch10min?$AA@
  005a4	68 00 00 00 00	 push	 OFFSET ??_C@_07PLHEGJFB@Mission?$AA@
  005a9	ff 15 00 00 00
	00		 call	 DWORD PTR __imp__GetPrivateProfileIntA@16
  005af	8b 4d fc	 mov	 ecx, DWORD PTR _this$[ebp]
  005b2	89 81 b0 00 00
	00		 mov	 DWORD PTR [ecx+176], eax

; 96   : 	this->m_config.i40_MovePlayerFromCrown = GetPrivateProfileInt("Mission", "MovePlayerFromCrown", 100, filename);

  005b8	8b 45 08	 mov	 eax, DWORD PTR _filename$[ebp]
  005bb	50		 push	 eax
  005bc	6a 64		 push	 100			; 00000064H
  005be	68 00 00 00 00	 push	 OFFSET ??_C@_0BE@IDFBIGEM@MovePlayerFromCrown?$AA@
  005c3	68 00 00 00 00	 push	 OFFSET ??_C@_07PLHEGJFB@Mission?$AA@
  005c8	ff 15 00 00 00
	00		 call	 DWORD PTR __imp__GetPrivateProfileIntA@16
  005ce	8b 4d fc	 mov	 ecx, DWORD PTR _this$[ebp]
  005d1	89 81 b4 00 00
	00		 mov	 DWORD PTR [ecx+180], eax

; 97   : 	this->m_config.i41_WinSiege = GetPrivateProfileInt("Mission", "WinSiege", 100, filename);

  005d7	8b 45 08	 mov	 eax, DWORD PTR _filename$[ebp]
  005da	50		 push	 eax
  005db	6a 64		 push	 100			; 00000064H
  005dd	68 00 00 00 00	 push	 OFFSET ??_C@_08FMDKGBNF@WinSiege?$AA@
  005e2	68 00 00 00 00	 push	 OFFSET ??_C@_07PLHEGJFB@Mission?$AA@
  005e7	ff 15 00 00 00
	00		 call	 DWORD PTR __imp__GetPrivateProfileIntA@16
  005ed	8b 4d fc	 mov	 ecx, DWORD PTR _this$[ebp]
  005f0	89 81 b8 00 00
	00		 mov	 DWORD PTR [ecx+184], eax

; 98   : 	this->m_config.i42_KillCastleSiegeNPC = GetPrivateProfileInt("Mission", "KillCastleSiegeNPC", 100, filename);

  005f6	8b 45 08	 mov	 eax, DWORD PTR _filename$[ebp]
  005f9	50		 push	 eax
  005fa	6a 64		 push	 100			; 00000064H
  005fc	68 00 00 00 00	 push	 OFFSET ??_C@_0BD@PHINJBKO@KillCastleSiegeNPC?$AA@
  00601	68 00 00 00 00	 push	 OFFSET ??_C@_07PLHEGJFB@Mission?$AA@
  00606	ff 15 00 00 00
	00		 call	 DWORD PTR __imp__GetPrivateProfileIntA@16
  0060c	8b 4d fc	 mov	 ecx, DWORD PTR _this$[ebp]
  0060f	89 81 bc 00 00
	00		 mov	 DWORD PTR [ecx+188], eax

; 99   : 	this->m_config.i43_KillPlayerCastleSiege = GetPrivateProfileInt("Mission", "KillPlayerCastleSiege", 100, filename);

  00615	8b 45 08	 mov	 eax, DWORD PTR _filename$[ebp]
  00618	50		 push	 eax
  00619	6a 64		 push	 100			; 00000064H
  0061b	68 00 00 00 00	 push	 OFFSET ??_C@_0BG@ILFJNFJC@KillPlayerCastleSiege?$AA@
  00620	68 00 00 00 00	 push	 OFFSET ??_C@_07PLHEGJFB@Mission?$AA@
  00625	ff 15 00 00 00
	00		 call	 DWORD PTR __imp__GetPrivateProfileIntA@16
  0062b	8b 4d fc	 mov	 ecx, DWORD PTR _this$[ebp]
  0062e	89 81 c0 00 00
	00		 mov	 DWORD PTR [ecx+192], eax

; 100  : 	this->m_config.i44_KillErohim = GetPrivateProfileInt("Mission", "KillErohim", 100, filename);

  00634	8b 45 08	 mov	 eax, DWORD PTR _filename$[ebp]
  00637	50		 push	 eax
  00638	6a 64		 push	 100			; 00000064H
  0063a	68 00 00 00 00	 push	 OFFSET ??_C@_0L@FDIMBEGH@KillErohim?$AA@
  0063f	68 00 00 00 00	 push	 OFFSET ??_C@_07PLHEGJFB@Mission?$AA@
  00644	ff 15 00 00 00
	00		 call	 DWORD PTR __imp__GetPrivateProfileIntA@16
  0064a	8b 4d fc	 mov	 ecx, DWORD PTR _this$[ebp]
  0064d	89 81 c4 00 00
	00		 mov	 DWORD PTR [ecx+196], eax

; 101  : 	this->m_config.i45_BuyDonateShopItem = GetPrivateProfileInt("Mission", "BuyDonateShopItem", 100, filename);

  00653	8b 45 08	 mov	 eax, DWORD PTR _filename$[ebp]
  00656	50		 push	 eax
  00657	6a 64		 push	 100			; 00000064H
  00659	68 00 00 00 00	 push	 OFFSET ??_C@_0BC@FPGPMG@BuyDonateShopItem?$AA@
  0065e	68 00 00 00 00	 push	 OFFSET ??_C@_07PLHEGJFB@Mission?$AA@
  00663	ff 15 00 00 00
	00		 call	 DWORD PTR __imp__GetPrivateProfileIntA@16
  00669	8b 4d fc	 mov	 ecx, DWORD PTR _this$[ebp]
  0066c	89 81 c8 00 00
	00		 mov	 DWORD PTR [ecx+200], eax

; 102  : 	this->m_config.i46_GuildWarWin = GetPrivateProfileInt("Mission", "GuildWarWin", 100, filename);

  00672	8b 45 08	 mov	 eax, DWORD PTR _filename$[ebp]
  00675	50		 push	 eax
  00676	6a 64		 push	 100			; 00000064H
  00678	68 00 00 00 00	 push	 OFFSET ??_C@_0M@MAMKFDOB@GuildWarWin?$AA@
  0067d	68 00 00 00 00	 push	 OFFSET ??_C@_07PLHEGJFB@Mission?$AA@
  00682	ff 15 00 00 00
	00		 call	 DWORD PTR __imp__GetPrivateProfileIntA@16
  00688	8b 4d fc	 mov	 ecx, DWORD PTR _this$[ebp]
  0068b	89 81 cc 00 00
	00		 mov	 DWORD PTR [ecx+204], eax

; 103  : 	this->m_config.i47_PartyNoobLevelUp = GetPrivateProfileInt("Mission", "PartyNoobLevelUp", 100, filename);

  00691	8b 45 08	 mov	 eax, DWORD PTR _filename$[ebp]
  00694	50		 push	 eax
  00695	6a 64		 push	 100			; 00000064H
  00697	68 00 00 00 00	 push	 OFFSET ??_C@_0BB@NMPMEAAK@PartyNoobLevelUp?$AA@
  0069c	68 00 00 00 00	 push	 OFFSET ??_C@_07PLHEGJFB@Mission?$AA@
  006a1	ff 15 00 00 00
	00		 call	 DWORD PTR __imp__GetPrivateProfileIntA@16
  006a7	8b 4d fc	 mov	 ecx, DWORD PTR _this$[ebp]
  006aa	89 81 d0 00 00
	00		 mov	 DWORD PTR [ecx+208], eax

; 104  : 	this->m_config.i48_PickUpRena = GetPrivateProfileInt("Mission", "PickUpSing", 100, filename);

  006b0	8b 45 08	 mov	 eax, DWORD PTR _filename$[ebp]
  006b3	50		 push	 eax
  006b4	6a 64		 push	 100			; 00000064H
  006b6	68 00 00 00 00	 push	 OFFSET ??_C@_0L@CPMGAAI@PickUpSing?$AA@
  006bb	68 00 00 00 00	 push	 OFFSET ??_C@_07PLHEGJFB@Mission?$AA@
  006c0	ff 15 00 00 00
	00		 call	 DWORD PTR __imp__GetPrivateProfileIntA@16
  006c6	8b 4d fc	 mov	 ecx, DWORD PTR _this$[ebp]
  006c9	89 81 d4 00 00
	00		 mov	 DWORD PTR [ecx+212], eax

; 105  : 	this->m_config.i49_PickUpLuckyCoins = GetPrivateProfileInt("Mission", "PickUpLuckyCoins", 100, filename);

  006cf	8b 45 08	 mov	 eax, DWORD PTR _filename$[ebp]
  006d2	50		 push	 eax
  006d3	6a 64		 push	 100			; 00000064H
  006d5	68 00 00 00 00	 push	 OFFSET ??_C@_0BB@PHACFCBC@PickUpLuckyCoins?$AA@
  006da	68 00 00 00 00	 push	 OFFSET ??_C@_07PLHEGJFB@Mission?$AA@
  006df	ff 15 00 00 00
	00		 call	 DWORD PTR __imp__GetPrivateProfileIntA@16
  006e5	8b 4d fc	 mov	 ecx, DWORD PTR _this$[ebp]
  006e8	89 81 d8 00 00
	00		 mov	 DWORD PTR [ecx+216], eax

; 106  : 	this->m_config.i50_OfflineAttackTime = GetPrivateProfileInt("Mission", "OfflineAttackTime", 100, filename);

  006ee	8b 45 08	 mov	 eax, DWORD PTR _filename$[ebp]
  006f1	50		 push	 eax
  006f2	6a 64		 push	 100			; 00000064H
  006f4	68 00 00 00 00	 push	 OFFSET ??_C@_0BC@FJIMNPIE@OfflineAttackTime?$AA@
  006f9	68 00 00 00 00	 push	 OFFSET ??_C@_07PLHEGJFB@Mission?$AA@
  006fe	ff 15 00 00 00
	00		 call	 DWORD PTR __imp__GetPrivateProfileIntA@16
  00704	8b 4d fc	 mov	 ecx, DWORD PTR _this$[ebp]
  00707	89 81 dc 00 00
	00		 mov	 DWORD PTR [ecx+220], eax

; 107  : 	//-> reward confg read
; 108  : 	this->m_reward.i1_MonsterKill = GetPrivateProfileInt("Reward", "MonsterKill", 100, filename);

  0070d	8b 45 08	 mov	 eax, DWORD PTR _filename$[ebp]
  00710	50		 push	 eax
  00711	6a 64		 push	 100			; 00000064H
  00713	68 00 00 00 00	 push	 OFFSET ??_C@_0M@LJDMLBHP@MonsterKill?$AA@
  00718	68 00 00 00 00	 push	 OFFSET ??_C@_06BAGMPINC@Reward?$AA@
  0071d	ff 15 00 00 00
	00		 call	 DWORD PTR __imp__GetPrivateProfileIntA@16
  00723	8b 4d fc	 mov	 ecx, DWORD PTR _this$[ebp]
  00726	89 81 e0 00 00
	00		 mov	 DWORD PTR [ecx+224], eax

; 109  : 	this->m_reward.i2_GoldenKill = GetPrivateProfileInt("Reward", "GoldenKill", 100, filename);

  0072c	8b 45 08	 mov	 eax, DWORD PTR _filename$[ebp]
  0072f	50		 push	 eax
  00730	6a 64		 push	 100			; 00000064H
  00732	68 00 00 00 00	 push	 OFFSET ??_C@_0L@KPOJALCF@GoldenKill?$AA@
  00737	68 00 00 00 00	 push	 OFFSET ??_C@_06BAGMPINC@Reward?$AA@
  0073c	ff 15 00 00 00
	00		 call	 DWORD PTR __imp__GetPrivateProfileIntA@16
  00742	8b 4d fc	 mov	 ecx, DWORD PTR _this$[ebp]
  00745	89 81 e4 00 00
	00		 mov	 DWORD PTR [ecx+228], eax

; 110  : 	this->m_reward.i3_KalimaMonserKill = GetPrivateProfileInt("Reward", "KalimaMonserKill", 100, filename);

  0074b	8b 45 08	 mov	 eax, DWORD PTR _filename$[ebp]
  0074e	50		 push	 eax
  0074f	6a 64		 push	 100			; 00000064H
  00751	68 00 00 00 00	 push	 OFFSET ??_C@_0BB@GDDPKKHF@KalimaMonserKill?$AA@
  00756	68 00 00 00 00	 push	 OFFSET ??_C@_06BAGMPINC@Reward?$AA@
  0075b	ff 15 00 00 00
	00		 call	 DWORD PTR __imp__GetPrivateProfileIntA@16
  00761	8b 4d fc	 mov	 ecx, DWORD PTR _this$[ebp]
  00764	89 81 e8 00 00
	00		 mov	 DWORD PTR [ecx+232], eax

; 111  : 	this->m_reward.i4_WhiteWizardKill = GetPrivateProfileInt("Reward", "WhiteWizardKill", 100, filename);

  0076a	8b 45 08	 mov	 eax, DWORD PTR _filename$[ebp]
  0076d	50		 push	 eax
  0076e	6a 64		 push	 100			; 00000064H
  00770	68 00 00 00 00	 push	 OFFSET ??_C@_0BA@EPMFDFLP@WhiteWizardKill?$AA@
  00775	68 00 00 00 00	 push	 OFFSET ??_C@_06BAGMPINC@Reward?$AA@
  0077a	ff 15 00 00 00
	00		 call	 DWORD PTR __imp__GetPrivateProfileIntA@16
  00780	8b 4d fc	 mov	 ecx, DWORD PTR _this$[ebp]
  00783	89 81 ec 00 00
	00		 mov	 DWORD PTR [ecx+236], eax

; 112  : 	this->m_reward.i5_PlayerKill = GetPrivateProfileInt("Reward", "PlayerKill", 100, filename);

  00789	8b 45 08	 mov	 eax, DWORD PTR _filename$[ebp]
  0078c	50		 push	 eax
  0078d	6a 64		 push	 100			; 00000064H
  0078f	68 00 00 00 00	 push	 OFFSET ??_C@_0L@KBPGGACD@PlayerKill?$AA@
  00794	68 00 00 00 00	 push	 OFFSET ??_C@_06BAGMPINC@Reward?$AA@
  00799	ff 15 00 00 00
	00		 call	 DWORD PTR __imp__GetPrivateProfileIntA@16
  0079f	8b 4d fc	 mov	 ecx, DWORD PTR _this$[ebp]
  007a2	89 81 f0 00 00
	00		 mov	 DWORD PTR [ecx+240], eax

; 113  : 	this->m_reward.i6_RedDragonKill = GetPrivateProfileInt("Reward", "RedDragonKill", 100, filename);

  007a8	8b 45 08	 mov	 eax, DWORD PTR _filename$[ebp]
  007ab	50		 push	 eax
  007ac	6a 64		 push	 100			; 00000064H
  007ae	68 00 00 00 00	 push	 OFFSET ??_C@_0O@HLDKCBKH@RedDragonKill?$AA@
  007b3	68 00 00 00 00	 push	 OFFSET ??_C@_06BAGMPINC@Reward?$AA@
  007b8	ff 15 00 00 00
	00		 call	 DWORD PTR __imp__GetPrivateProfileIntA@16
  007be	8b 4d fc	 mov	 ecx, DWORD PTR _this$[ebp]
  007c1	89 81 f4 00 00
	00		 mov	 DWORD PTR [ecx+244], eax

; 114  : 	this->m_reward.i7_OrcKill = GetPrivateProfileInt("Reward", "OrcKill", 100, filename);

  007c7	8b 45 08	 mov	 eax, DWORD PTR _filename$[ebp]
  007ca	50		 push	 eax
  007cb	6a 64		 push	 100			; 00000064H
  007cd	68 00 00 00 00	 push	 OFFSET ??_C@_07HOHPILBP@OrcKill?$AA@
  007d2	68 00 00 00 00	 push	 OFFSET ??_C@_06BAGMPINC@Reward?$AA@
  007d7	ff 15 00 00 00
	00		 call	 DWORD PTR __imp__GetPrivateProfileIntA@16
  007dd	8b 4d fc	 mov	 ecx, DWORD PTR _this$[ebp]
  007e0	89 81 f8 00 00
	00		 mov	 DWORD PTR [ecx+248], eax

; 115  : 	this->m_reward.i8_KillGateBC = GetPrivateProfileInt("Reward", "KillGateBC", 100, filename);

  007e6	8b 45 08	 mov	 eax, DWORD PTR _filename$[ebp]
  007e9	50		 push	 eax
  007ea	6a 64		 push	 100			; 00000064H
  007ec	68 00 00 00 00	 push	 OFFSET ??_C@_0L@JLBEKLBI@KillGateBC?$AA@
  007f1	68 00 00 00 00	 push	 OFFSET ??_C@_06BAGMPINC@Reward?$AA@
  007f6	ff 15 00 00 00
	00		 call	 DWORD PTR __imp__GetPrivateProfileIntA@16
  007fc	8b 4d fc	 mov	 ecx, DWORD PTR _this$[ebp]
  007ff	89 81 fc 00 00
	00		 mov	 DWORD PTR [ecx+252], eax

; 116  : 	this->m_reward.i9_TakePartInCC = GetPrivateProfileInt("Reward", "TakePartInCC", 100, filename);

  00805	8b 45 08	 mov	 eax, DWORD PTR _filename$[ebp]
  00808	50		 push	 eax
  00809	6a 64		 push	 100			; 00000064H
  0080b	68 00 00 00 00	 push	 OFFSET ??_C@_0N@GMLBOAGE@TakePartInCC?$AA@
  00810	68 00 00 00 00	 push	 OFFSET ??_C@_06BAGMPINC@Reward?$AA@
  00815	ff 15 00 00 00
	00		 call	 DWORD PTR __imp__GetPrivateProfileIntA@16
  0081b	8b 4d fc	 mov	 ecx, DWORD PTR _this$[ebp]
  0081e	89 81 00 01 00
	00		 mov	 DWORD PTR [ecx+256], eax

; 117  : 	this->m_reward.i10_WinningTheCC = GetPrivateProfileInt("Reward", "WinningTheCC", 100, filename);

  00824	8b 45 08	 mov	 eax, DWORD PTR _filename$[ebp]
  00827	50		 push	 eax
  00828	6a 64		 push	 100			; 00000064H
  0082a	68 00 00 00 00	 push	 OFFSET ??_C@_0N@BMJIPOCO@WinningTheCC?$AA@
  0082f	68 00 00 00 00	 push	 OFFSET ??_C@_06BAGMPINC@Reward?$AA@
  00834	ff 15 00 00 00
	00		 call	 DWORD PTR __imp__GetPrivateProfileIntA@16
  0083a	8b 4d fc	 mov	 ecx, DWORD PTR _this$[ebp]
  0083d	89 81 04 01 00
	00		 mov	 DWORD PTR [ecx+260], eax

; 118  : 	this->m_reward.i11_OnlineTime = GetPrivateProfileInt("Reward", "OnlineTime", 100, filename);

  00843	8b 45 08	 mov	 eax, DWORD PTR _filename$[ebp]
  00846	50		 push	 eax
  00847	6a 64		 push	 100			; 00000064H
  00849	68 00 00 00 00	 push	 OFFSET ??_C@_0L@DLJNOBJL@OnlineTime?$AA@
  0084e	68 00 00 00 00	 push	 OFFSET ??_C@_06BAGMPINC@Reward?$AA@
  00853	ff 15 00 00 00
	00		 call	 DWORD PTR __imp__GetPrivateProfileIntA@16
  00859	8b 4d fc	 mov	 ecx, DWORD PTR _this$[ebp]
  0085c	89 81 08 01 00
	00		 mov	 DWORD PTR [ecx+264], eax

; 119  : 	this->m_reward.i12_PickUpJewels = GetPrivateProfileInt("Reward", "PickUpJewels", 100, filename);

  00862	8b 45 08	 mov	 eax, DWORD PTR _filename$[ebp]
  00865	50		 push	 eax
  00866	6a 64		 push	 100			; 00000064H
  00868	68 00 00 00 00	 push	 OFFSET ??_C@_0N@ICMJNFMD@PickUpJewels?$AA@
  0086d	68 00 00 00 00	 push	 OFFSET ??_C@_06BAGMPINC@Reward?$AA@
  00872	ff 15 00 00 00
	00		 call	 DWORD PTR __imp__GetPrivateProfileIntA@16
  00878	8b 4d fc	 mov	 ecx, DWORD PTR _this$[ebp]
  0087b	89 81 0c 01 00
	00		 mov	 DWORD PTR [ecx+268], eax

; 120  : 	this->m_reward.i13_UsedJewels = GetPrivateProfileInt("Reward", "UsedJewels", 100, filename);

  00881	8b 45 08	 mov	 eax, DWORD PTR _filename$[ebp]
  00884	50		 push	 eax
  00885	6a 64		 push	 100			; 00000064H
  00887	68 00 00 00 00	 push	 OFFSET ??_C@_0L@HICNPMAF@UsedJewels?$AA@
  0088c	68 00 00 00 00	 push	 OFFSET ??_C@_06BAGMPINC@Reward?$AA@
  00891	ff 15 00 00 00
	00		 call	 DWORD PTR __imp__GetPrivateProfileIntA@16
  00897	8b 4d fc	 mov	 ecx, DWORD PTR _this$[ebp]
  0089a	89 81 10 01 00
	00		 mov	 DWORD PTR [ecx+272], eax

; 121  : 	this->m_reward.i14_SuccessChaosMix = GetPrivateProfileInt("Reward", "SuccessChaosMix", 100, filename);

  008a0	8b 45 08	 mov	 eax, DWORD PTR _filename$[ebp]
  008a3	50		 push	 eax
  008a4	6a 64		 push	 100			; 00000064H
  008a6	68 00 00 00 00	 push	 OFFSET ??_C@_0BA@JFKMGLE@SuccessChaosMix?$AA@
  008ab	68 00 00 00 00	 push	 OFFSET ??_C@_06BAGMPINC@Reward?$AA@
  008b0	ff 15 00 00 00
	00		 call	 DWORD PTR __imp__GetPrivateProfileIntA@16
  008b6	8b 4d fc	 mov	 ecx, DWORD PTR _this$[ebp]
  008b9	89 81 14 01 00
	00		 mov	 DWORD PTR [ecx+276], eax

; 122  : 	this->m_reward.i15_FailedChaosMix = GetPrivateProfileInt("Reward", "FailedChaosMix", 100, filename);

  008bf	8b 45 08	 mov	 eax, DWORD PTR _filename$[ebp]
  008c2	50		 push	 eax
  008c3	6a 64		 push	 100			; 00000064H
  008c5	68 00 00 00 00	 push	 OFFSET ??_C@_0P@MLNADFDL@FailedChaosMix?$AA@
  008ca	68 00 00 00 00	 push	 OFFSET ??_C@_06BAGMPINC@Reward?$AA@
  008cf	ff 15 00 00 00
	00		 call	 DWORD PTR __imp__GetPrivateProfileIntA@16
  008d5	8b 4d fc	 mov	 ecx, DWORD PTR _this$[ebp]
  008d8	89 81 18 01 00
	00		 mov	 DWORD PTR [ecx+280], eax

; 123  : 	this->m_reward.i16_PickUpZen = GetPrivateProfileInt("Reward", "PickUpZen", 100, filename);

  008de	8b 45 08	 mov	 eax, DWORD PTR _filename$[ebp]
  008e1	50		 push	 eax
  008e2	6a 64		 push	 100			; 00000064H
  008e4	68 00 00 00 00	 push	 OFFSET ??_C@_09DGDHEANG@PickUpZen?$AA@
  008e9	68 00 00 00 00	 push	 OFFSET ??_C@_06BAGMPINC@Reward?$AA@
  008ee	ff 15 00 00 00
	00		 call	 DWORD PTR __imp__GetPrivateProfileIntA@16
  008f4	8b 4d fc	 mov	 ecx, DWORD PTR _this$[ebp]
  008f7	89 81 1c 01 00
	00		 mov	 DWORD PTR [ecx+284], eax

; 124  : 	this->m_reward.i17_PickUpExellent = GetPrivateProfileInt("Reward", "PickUpExellent", 100, filename);

  008fd	8b 45 08	 mov	 eax, DWORD PTR _filename$[ebp]
  00900	50		 push	 eax
  00901	6a 64		 push	 100			; 00000064H
  00903	68 00 00 00 00	 push	 OFFSET ??_C@_0P@IFEPEFIA@PickUpExellent?$AA@
  00908	68 00 00 00 00	 push	 OFFSET ??_C@_06BAGMPINC@Reward?$AA@
  0090d	ff 15 00 00 00
	00		 call	 DWORD PTR __imp__GetPrivateProfileIntA@16
  00913	8b 4d fc	 mov	 ecx, DWORD PTR _this$[ebp]
  00916	89 81 20 01 00
	00		 mov	 DWORD PTR [ecx+288], eax

; 125  : 	this->m_reward.i18_PickUpAncent = GetPrivateProfileInt("Reward", "PickUpAncent", 100, filename);

  0091c	8b 45 08	 mov	 eax, DWORD PTR _filename$[ebp]
  0091f	50		 push	 eax
  00920	6a 64		 push	 100			; 00000064H
  00922	68 00 00 00 00	 push	 OFFSET ??_C@_0N@DDKMACBB@PickUpAncent?$AA@
  00927	68 00 00 00 00	 push	 OFFSET ??_C@_06BAGMPINC@Reward?$AA@
  0092c	ff 15 00 00 00
	00		 call	 DWORD PTR __imp__GetPrivateProfileIntA@16
  00932	8b 4d fc	 mov	 ecx, DWORD PTR _this$[ebp]
  00935	89 81 24 01 00
	00		 mov	 DWORD PTR [ecx+292], eax

; 126  : 	this->m_reward.i19_DuelWin = GetPrivateProfileInt("Reward", "DuelWin", 100, filename);

  0093b	8b 45 08	 mov	 eax, DWORD PTR _filename$[ebp]
  0093e	50		 push	 eax
  0093f	6a 64		 push	 100			; 00000064H
  00941	68 00 00 00 00	 push	 OFFSET ??_C@_07GHADJGDF@DuelWin?$AA@
  00946	68 00 00 00 00	 push	 OFFSET ??_C@_06BAGMPINC@Reward?$AA@
  0094b	ff 15 00 00 00
	00		 call	 DWORD PTR __imp__GetPrivateProfileIntA@16
  00951	8b 4d fc	 mov	 ecx, DWORD PTR _this$[ebp]
  00954	89 81 28 01 00
	00		 mov	 DWORD PTR [ecx+296], eax

; 127  : 	this->m_reward.i20_LevelUp = GetPrivateProfileInt("Reward", "LevelUp", 100, filename);

  0095a	8b 45 08	 mov	 eax, DWORD PTR _filename$[ebp]
  0095d	50		 push	 eax
  0095e	6a 64		 push	 100			; 00000064H
  00960	68 00 00 00 00	 push	 OFFSET ??_C@_07IFHAFPIB@LevelUp?$AA@
  00965	68 00 00 00 00	 push	 OFFSET ??_C@_06BAGMPINC@Reward?$AA@
  0096a	ff 15 00 00 00
	00		 call	 DWORD PTR __imp__GetPrivateProfileIntA@16
  00970	8b 4d fc	 mov	 ecx, DWORD PTR _this$[ebp]
  00973	89 81 2c 01 00
	00		 mov	 DWORD PTR [ecx+300], eax

; 128  : 	this->m_reward.i21_ResetUp = GetPrivateProfileInt("Reward", "ResetUp", 100, filename);

  00979	8b 45 08	 mov	 eax, DWORD PTR _filename$[ebp]
  0097c	50		 push	 eax
  0097d	6a 64		 push	 100			; 00000064H
  0097f	68 00 00 00 00	 push	 OFFSET ??_C@_07CJCBJCFL@ResetUp?$AA@
  00984	68 00 00 00 00	 push	 OFFSET ??_C@_06BAGMPINC@Reward?$AA@
  00989	ff 15 00 00 00
	00		 call	 DWORD PTR __imp__GetPrivateProfileIntA@16
  0098f	8b 4d fc	 mov	 ecx, DWORD PTR _this$[ebp]
  00992	89 81 30 01 00
	00		 mov	 DWORD PTR [ecx+304], eax

; 129  : 	this->m_reward.i22_KanturuBossKill = GetPrivateProfileInt("Reward", "KanturuBossKill", 100, filename);

  00998	8b 45 08	 mov	 eax, DWORD PTR _filename$[ebp]
  0099b	50		 push	 eax
  0099c	6a 64		 push	 100			; 00000064H
  0099e	68 00 00 00 00	 push	 OFFSET ??_C@_0BA@ODPJIDCG@KanturuBossKill?$AA@
  009a3	68 00 00 00 00	 push	 OFFSET ??_C@_06BAGMPINC@Reward?$AA@
  009a8	ff 15 00 00 00
	00		 call	 DWORD PTR __imp__GetPrivateProfileIntA@16
  009ae	8b 4d fc	 mov	 ecx, DWORD PTR _this$[ebp]
  009b1	89 81 34 01 00
	00		 mov	 DWORD PTR [ecx+308], eax

; 130  : 	this->m_reward.i23_Monster100LvlKill = GetPrivateProfileInt("Reward", "Monster100LvlKill", 100, filename);

  009b7	8b 45 08	 mov	 eax, DWORD PTR _filename$[ebp]
  009ba	50		 push	 eax
  009bb	6a 64		 push	 100			; 00000064H
  009bd	68 00 00 00 00	 push	 OFFSET ??_C@_0BC@ICDLIGPJ@Monster100LvlKill?$AA@
  009c2	68 00 00 00 00	 push	 OFFSET ??_C@_06BAGMPINC@Reward?$AA@
  009c7	ff 15 00 00 00
	00		 call	 DWORD PTR __imp__GetPrivateProfileIntA@16
  009cd	8b 4d fc	 mov	 ecx, DWORD PTR _this$[ebp]
  009d0	89 81 38 01 00
	00		 mov	 DWORD PTR [ecx+312], eax

; 131  : 	this->m_reward.i24_MootopVote = GetPrivateProfileInt("Reward", "MootopVote", 100, filename);

  009d6	8b 45 08	 mov	 eax, DWORD PTR _filename$[ebp]
  009d9	50		 push	 eax
  009da	6a 64		 push	 100			; 00000064H
  009dc	68 00 00 00 00	 push	 OFFSET ??_C@_0L@OLDACHIE@MootopVote?$AA@
  009e1	68 00 00 00 00	 push	 OFFSET ??_C@_06BAGMPINC@Reward?$AA@
  009e6	ff 15 00 00 00
	00		 call	 DWORD PTR __imp__GetPrivateProfileIntA@16
  009ec	8b 4d fc	 mov	 ecx, DWORD PTR _this$[ebp]
  009ef	89 81 3c 01 00
	00		 mov	 DWORD PTR [ecx+316], eax

; 132  : 	this->m_reward.i25_PhonomanKill = GetPrivateProfileInt("Reward", "PhonomanKill", 100, filename);

  009f5	8b 45 08	 mov	 eax, DWORD PTR _filename$[ebp]
  009f8	50		 push	 eax
  009f9	6a 64		 push	 100			; 00000064H
  009fb	68 00 00 00 00	 push	 OFFSET ??_C@_0N@ONNONHJN@PhonomanKill?$AA@
  00a00	68 00 00 00 00	 push	 OFFSET ??_C@_06BAGMPINC@Reward?$AA@
  00a05	ff 15 00 00 00
	00		 call	 DWORD PTR __imp__GetPrivateProfileIntA@16
  00a0b	8b 4d fc	 mov	 ecx, DWORD PTR _this$[ebp]
  00a0e	89 81 40 01 00
	00		 mov	 DWORD PTR [ecx+320], eax

; 133  : 	this->m_reward.i26_CryWolfEventMonster = GetPrivateProfileInt("Reward", "CryWolfEventMonster", 100, filename);

  00a14	8b 45 08	 mov	 eax, DWORD PTR _filename$[ebp]
  00a17	50		 push	 eax
  00a18	6a 64		 push	 100			; 00000064H
  00a1a	68 00 00 00 00	 push	 OFFSET ??_C@_0BE@CFAFEAJG@CryWolfEventMonster?$AA@
  00a1f	68 00 00 00 00	 push	 OFFSET ??_C@_06BAGMPINC@Reward?$AA@
  00a24	ff 15 00 00 00
	00		 call	 DWORD PTR __imp__GetPrivateProfileIntA@16
  00a2a	8b 4d fc	 mov	 ecx, DWORD PTR _this$[ebp]
  00a2d	89 81 44 01 00
	00		 mov	 DWORD PTR [ecx+324], eax

; 134  : 	this->m_reward.i27_HellMainKill = GetPrivateProfileInt("Reward", "HellMainKill", 100, filename);

  00a33	8b 45 08	 mov	 eax, DWORD PTR _filename$[ebp]
  00a36	50		 push	 eax
  00a37	6a 64		 push	 100			; 00000064H
  00a39	68 00 00 00 00	 push	 OFFSET ??_C@_0N@MICFOEPF@HellMainKill?$AA@
  00a3e	68 00 00 00 00	 push	 OFFSET ??_C@_06BAGMPINC@Reward?$AA@
  00a43	ff 15 00 00 00
	00		 call	 DWORD PTR __imp__GetPrivateProfileIntA@16
  00a49	8b 4d fc	 mov	 ecx, DWORD PTR _this$[ebp]
  00a4c	89 81 48 01 00
	00		 mov	 DWORD PTR [ecx+328], eax

; 135  : 	this->m_reward.i28_KillInSelf_Defense = GetPrivateProfileInt("Reward", "KillInSelf_Defense", 100, filename);

  00a52	8b 45 08	 mov	 eax, DWORD PTR _filename$[ebp]
  00a55	50		 push	 eax
  00a56	6a 64		 push	 100			; 00000064H
  00a58	68 00 00 00 00	 push	 OFFSET ??_C@_0BD@BPBOIKLO@KillInSelf_Defense?$AA@
  00a5d	68 00 00 00 00	 push	 OFFSET ??_C@_06BAGMPINC@Reward?$AA@
  00a62	ff 15 00 00 00
	00		 call	 DWORD PTR __imp__GetPrivateProfileIntA@16
  00a68	8b 4d fc	 mov	 ecx, DWORD PTR _this$[ebp]
  00a6b	89 81 4c 01 00
	00		 mov	 DWORD PTR [ecx+332], eax

; 136  : 	this->m_reward.i29_SelupanKill = GetPrivateProfileInt("Reward", "SelupanKill", 100, filename);

  00a71	8b 45 08	 mov	 eax, DWORD PTR _filename$[ebp]
  00a74	50		 push	 eax
  00a75	6a 64		 push	 100			; 00000064H
  00a77	68 00 00 00 00	 push	 OFFSET ??_C@_0M@MNEEJGKH@SelupanKill?$AA@
  00a7c	68 00 00 00 00	 push	 OFFSET ??_C@_06BAGMPINC@Reward?$AA@
  00a81	ff 15 00 00 00
	00		 call	 DWORD PTR __imp__GetPrivateProfileIntA@16
  00a87	8b 4d fc	 mov	 ecx, DWORD PTR _this$[ebp]
  00a8a	89 81 50 01 00
	00		 mov	 DWORD PTR [ecx+336], eax

; 137  : 	this->m_reward.i30_KundunKill = GetPrivateProfileInt("Reward", "KundunKill", 100, filename);

  00a90	8b 45 08	 mov	 eax, DWORD PTR _filename$[ebp]
  00a93	50		 push	 eax
  00a94	6a 64		 push	 100			; 00000064H
  00a96	68 00 00 00 00	 push	 OFFSET ??_C@_0L@NMFHDMIL@KundunKill?$AA@
  00a9b	68 00 00 00 00	 push	 OFFSET ??_C@_06BAGMPINC@Reward?$AA@
  00aa0	ff 15 00 00 00
	00		 call	 DWORD PTR __imp__GetPrivateProfileIntA@16
  00aa6	8b 4d fc	 mov	 ecx, DWORD PTR _this$[ebp]
  00aa9	89 81 54 01 00
	00		 mov	 DWORD PTR [ecx+340], eax

; 138  : 	this->m_reward.i31_KillStatueBC = GetPrivateProfileInt("Reward", "KillStatueBC", 100, filename);

  00aaf	8b 45 08	 mov	 eax, DWORD PTR _filename$[ebp]
  00ab2	50		 push	 eax
  00ab3	6a 64		 push	 100			; 00000064H
  00ab5	68 00 00 00 00	 push	 OFFSET ??_C@_0N@MFBGOGFE@KillStatueBC?$AA@
  00aba	68 00 00 00 00	 push	 OFFSET ??_C@_06BAGMPINC@Reward?$AA@
  00abf	ff 15 00 00 00
	00		 call	 DWORD PTR __imp__GetPrivateProfileIntA@16
  00ac5	8b 4d fc	 mov	 ecx, DWORD PTR _this$[ebp]
  00ac8	89 81 58 01 00
	00		 mov	 DWORD PTR [ecx+344], eax

; 139  : 	this->m_reward.i32_CompleteBC = GetPrivateProfileInt("Reward", "CompleteBC", 100, filename);

  00ace	8b 45 08	 mov	 eax, DWORD PTR _filename$[ebp]
  00ad1	50		 push	 eax
  00ad2	6a 64		 push	 100			; 00000064H
  00ad4	68 00 00 00 00	 push	 OFFSET ??_C@_0L@EGINCFEN@CompleteBC?$AA@
  00ad9	68 00 00 00 00	 push	 OFFSET ??_C@_06BAGMPINC@Reward?$AA@
  00ade	ff 15 00 00 00
	00		 call	 DWORD PTR __imp__GetPrivateProfileIntA@16
  00ae4	8b 4d fc	 mov	 ecx, DWORD PTR _this$[ebp]
  00ae7	89 81 5c 01 00
	00		 mov	 DWORD PTR [ecx+348], eax

; 140  : 	this->m_reward.i33_GrandResetUp = GetPrivateProfileInt("Reward", "GrandResetUp", 100, filename);

  00aed	8b 45 08	 mov	 eax, DWORD PTR _filename$[ebp]
  00af0	50		 push	 eax
  00af1	6a 64		 push	 100			; 00000064H
  00af3	68 00 00 00 00	 push	 OFFSET ??_C@_0N@BEADCOLL@GrandResetUp?$AA@
  00af8	68 00 00 00 00	 push	 OFFSET ??_C@_06BAGMPINC@Reward?$AA@
  00afd	ff 15 00 00 00
	00		 call	 DWORD PTR __imp__GetPrivateProfileIntA@16
  00b03	8b 4d fc	 mov	 ecx, DWORD PTR _this$[ebp]
  00b06	89 81 60 01 00
	00		 mov	 DWORD PTR [ecx+352], eax

; 141  : 	this->m_reward.i34_BlueRabbitKiller = GetPrivateProfileInt("Reward", "BlueRabbitKiller", 100, filename);

  00b0c	8b 45 08	 mov	 eax, DWORD PTR _filename$[ebp]
  00b0f	50		 push	 eax
  00b10	6a 64		 push	 100			; 00000064H
  00b12	68 00 00 00 00	 push	 OFFSET ??_C@_0BB@NECNGOHI@BlueRabbitKiller?$AA@
  00b17	68 00 00 00 00	 push	 OFFSET ??_C@_06BAGMPINC@Reward?$AA@
  00b1c	ff 15 00 00 00
	00		 call	 DWORD PTR __imp__GetPrivateProfileIntA@16
  00b22	8b 4d fc	 mov	 ecx, DWORD PTR _this$[ebp]
  00b25	89 81 64 01 00
	00		 mov	 DWORD PTR [ecx+356], eax

; 142  : 	this->m_reward.i35_HappyPouchesKiller = GetPrivateProfileInt("Reward", "HappyPouchesKiller", 100, filename);

  00b2b	8b 45 08	 mov	 eax, DWORD PTR _filename$[ebp]
  00b2e	50		 push	 eax
  00b2f	6a 64		 push	 100			; 00000064H
  00b31	68 00 00 00 00	 push	 OFFSET ??_C@_0BD@DIKHGCEL@HappyPouchesKiller?$AA@
  00b36	68 00 00 00 00	 push	 OFFSET ??_C@_06BAGMPINC@Reward?$AA@
  00b3b	ff 15 00 00 00
	00		 call	 DWORD PTR __imp__GetPrivateProfileIntA@16
  00b41	8b 4d fc	 mov	 ecx, DWORD PTR _this$[ebp]
  00b44	89 81 68 01 00
	00		 mov	 DWORD PTR [ecx+360], eax

; 143  : 	this->m_reward.i36_PheonixKill = GetPrivateProfileInt("Reward", "PheonixKill", 100, filename);

  00b4a	8b 45 08	 mov	 eax, DWORD PTR _filename$[ebp]
  00b4d	50		 push	 eax
  00b4e	6a 64		 push	 100			; 00000064H
  00b50	68 00 00 00 00	 push	 OFFSET ??_C@_0M@DLOEGGIN@PheonixKill?$AA@
  00b55	68 00 00 00 00	 push	 OFFSET ??_C@_06BAGMPINC@Reward?$AA@
  00b5a	ff 15 00 00 00
	00		 call	 DWORD PTR __imp__GetPrivateProfileIntA@16
  00b60	8b 4d fc	 mov	 ecx, DWORD PTR _this$[ebp]
  00b63	89 81 6c 01 00
	00		 mov	 DWORD PTR [ecx+364], eax

; 144  : 	this->m_reward.i37_KanturuMonsterKill = GetPrivateProfileInt("Reward", "KanturuMonsterKill", 100, filename);

  00b69	8b 45 08	 mov	 eax, DWORD PTR _filename$[ebp]
  00b6c	50		 push	 eax
  00b6d	6a 64		 push	 100			; 00000064H
  00b6f	68 00 00 00 00	 push	 OFFSET ??_C@_0BD@FHBADLJE@KanturuMonsterKill?$AA@
  00b74	68 00 00 00 00	 push	 OFFSET ??_C@_06BAGMPINC@Reward?$AA@
  00b79	ff 15 00 00 00
	00		 call	 DWORD PTR __imp__GetPrivateProfileIntA@16
  00b7f	8b 4d fc	 mov	 ecx, DWORD PTR _this$[ebp]
  00b82	89 81 70 01 00
	00		 mov	 DWORD PTR [ecx+368], eax

; 145  : 	this->m_reward.i38_MovePlayerFromSwitch = GetPrivateProfileInt("Reward", "MovePlayerFromSwitch", 100, filename);

  00b88	8b 45 08	 mov	 eax, DWORD PTR _filename$[ebp]
  00b8b	50		 push	 eax
  00b8c	6a 64		 push	 100			; 00000064H
  00b8e	68 00 00 00 00	 push	 OFFSET ??_C@_0BF@HAPDHJPC@MovePlayerFromSwitch?$AA@
  00b93	68 00 00 00 00	 push	 OFFSET ??_C@_06BAGMPINC@Reward?$AA@
  00b98	ff 15 00 00 00
	00		 call	 DWORD PTR __imp__GetPrivateProfileIntA@16
  00b9e	8b 4d fc	 mov	 ecx, DWORD PTR _this$[ebp]
  00ba1	89 81 74 01 00
	00		 mov	 DWORD PTR [ecx+372], eax

; 146  : 	this->m_reward.i39_WithstandSwitch10min = GetPrivateProfileInt("Reward", "WithstandSwitch10min", 100, filename);

  00ba7	8b 45 08	 mov	 eax, DWORD PTR _filename$[ebp]
  00baa	50		 push	 eax
  00bab	6a 64		 push	 100			; 00000064H
  00bad	68 00 00 00 00	 push	 OFFSET ??_C@_0BF@HBGCIILA@WithstandSwitch10min?$AA@
  00bb2	68 00 00 00 00	 push	 OFFSET ??_C@_06BAGMPINC@Reward?$AA@
  00bb7	ff 15 00 00 00
	00		 call	 DWORD PTR __imp__GetPrivateProfileIntA@16
  00bbd	8b 4d fc	 mov	 ecx, DWORD PTR _this$[ebp]
  00bc0	89 81 78 01 00
	00		 mov	 DWORD PTR [ecx+376], eax

; 147  : 	this->m_reward.i40_MovePlayerFromCrown = GetPrivateProfileInt("Reward", "MovePlayerFromCrown", 100, filename);

  00bc6	8b 45 08	 mov	 eax, DWORD PTR _filename$[ebp]
  00bc9	50		 push	 eax
  00bca	6a 64		 push	 100			; 00000064H
  00bcc	68 00 00 00 00	 push	 OFFSET ??_C@_0BE@IDFBIGEM@MovePlayerFromCrown?$AA@
  00bd1	68 00 00 00 00	 push	 OFFSET ??_C@_06BAGMPINC@Reward?$AA@
  00bd6	ff 15 00 00 00
	00		 call	 DWORD PTR __imp__GetPrivateProfileIntA@16
  00bdc	8b 4d fc	 mov	 ecx, DWORD PTR _this$[ebp]
  00bdf	89 81 7c 01 00
	00		 mov	 DWORD PTR [ecx+380], eax

; 148  : 	this->m_reward.i41_WinSiege = GetPrivateProfileInt("Reward", "WinSiege", 100, filename);

  00be5	8b 45 08	 mov	 eax, DWORD PTR _filename$[ebp]
  00be8	50		 push	 eax
  00be9	6a 64		 push	 100			; 00000064H
  00beb	68 00 00 00 00	 push	 OFFSET ??_C@_08FMDKGBNF@WinSiege?$AA@
  00bf0	68 00 00 00 00	 push	 OFFSET ??_C@_06BAGMPINC@Reward?$AA@
  00bf5	ff 15 00 00 00
	00		 call	 DWORD PTR __imp__GetPrivateProfileIntA@16
  00bfb	8b 4d fc	 mov	 ecx, DWORD PTR _this$[ebp]
  00bfe	89 81 80 01 00
	00		 mov	 DWORD PTR [ecx+384], eax

; 149  : 	this->m_reward.i42_KillCastleSiegeNPC = GetPrivateProfileInt("Reward", "KillCastleSiegeNPC", 100, filename);

  00c04	8b 45 08	 mov	 eax, DWORD PTR _filename$[ebp]
  00c07	50		 push	 eax
  00c08	6a 64		 push	 100			; 00000064H
  00c0a	68 00 00 00 00	 push	 OFFSET ??_C@_0BD@PHINJBKO@KillCastleSiegeNPC?$AA@
  00c0f	68 00 00 00 00	 push	 OFFSET ??_C@_06BAGMPINC@Reward?$AA@
  00c14	ff 15 00 00 00
	00		 call	 DWORD PTR __imp__GetPrivateProfileIntA@16
  00c1a	8b 4d fc	 mov	 ecx, DWORD PTR _this$[ebp]
  00c1d	89 81 84 01 00
	00		 mov	 DWORD PTR [ecx+388], eax

; 150  : 	this->m_reward.i43_KillPlayerCastleSiege = GetPrivateProfileInt("Reward", "KillPlayerCastleSiege", 100, filename);

  00c23	8b 45 08	 mov	 eax, DWORD PTR _filename$[ebp]
  00c26	50		 push	 eax
  00c27	6a 64		 push	 100			; 00000064H
  00c29	68 00 00 00 00	 push	 OFFSET ??_C@_0BG@ILFJNFJC@KillPlayerCastleSiege?$AA@
  00c2e	68 00 00 00 00	 push	 OFFSET ??_C@_06BAGMPINC@Reward?$AA@
  00c33	ff 15 00 00 00
	00		 call	 DWORD PTR __imp__GetPrivateProfileIntA@16
  00c39	8b 4d fc	 mov	 ecx, DWORD PTR _this$[ebp]
  00c3c	89 81 88 01 00
	00		 mov	 DWORD PTR [ecx+392], eax

; 151  : 	this->m_reward.i44_KillErohim = GetPrivateProfileInt("Reward", "KillErohim", 100, filename);

  00c42	8b 45 08	 mov	 eax, DWORD PTR _filename$[ebp]
  00c45	50		 push	 eax
  00c46	6a 64		 push	 100			; 00000064H
  00c48	68 00 00 00 00	 push	 OFFSET ??_C@_0L@FDIMBEGH@KillErohim?$AA@
  00c4d	68 00 00 00 00	 push	 OFFSET ??_C@_06BAGMPINC@Reward?$AA@
  00c52	ff 15 00 00 00
	00		 call	 DWORD PTR __imp__GetPrivateProfileIntA@16
  00c58	8b 4d fc	 mov	 ecx, DWORD PTR _this$[ebp]
  00c5b	89 81 8c 01 00
	00		 mov	 DWORD PTR [ecx+396], eax

; 152  : 	this->m_reward.i45_BuyDonateShopItem = GetPrivateProfileInt("Reward", "BuyDonateShopItem", 100, filename);

  00c61	8b 45 08	 mov	 eax, DWORD PTR _filename$[ebp]
  00c64	50		 push	 eax
  00c65	6a 64		 push	 100			; 00000064H
  00c67	68 00 00 00 00	 push	 OFFSET ??_C@_0BC@FPGPMG@BuyDonateShopItem?$AA@
  00c6c	68 00 00 00 00	 push	 OFFSET ??_C@_06BAGMPINC@Reward?$AA@
  00c71	ff 15 00 00 00
	00		 call	 DWORD PTR __imp__GetPrivateProfileIntA@16
  00c77	8b 4d fc	 mov	 ecx, DWORD PTR _this$[ebp]
  00c7a	89 81 90 01 00
	00		 mov	 DWORD PTR [ecx+400], eax

; 153  : 	this->m_reward.i46_GuildWarWin = GetPrivateProfileInt("Reward", "GuildWarWin", 100, filename);

  00c80	8b 45 08	 mov	 eax, DWORD PTR _filename$[ebp]
  00c83	50		 push	 eax
  00c84	6a 64		 push	 100			; 00000064H
  00c86	68 00 00 00 00	 push	 OFFSET ??_C@_0M@MAMKFDOB@GuildWarWin?$AA@
  00c8b	68 00 00 00 00	 push	 OFFSET ??_C@_06BAGMPINC@Reward?$AA@
  00c90	ff 15 00 00 00
	00		 call	 DWORD PTR __imp__GetPrivateProfileIntA@16
  00c96	8b 4d fc	 mov	 ecx, DWORD PTR _this$[ebp]
  00c99	89 81 94 01 00
	00		 mov	 DWORD PTR [ecx+404], eax

; 154  : 	this->m_reward.i47_PartyNoobLevelUp = GetPrivateProfileInt("Reward", "PartyNoobLevelUp", 100, filename);

  00c9f	8b 45 08	 mov	 eax, DWORD PTR _filename$[ebp]
  00ca2	50		 push	 eax
  00ca3	6a 64		 push	 100			; 00000064H
  00ca5	68 00 00 00 00	 push	 OFFSET ??_C@_0BB@NMPMEAAK@PartyNoobLevelUp?$AA@
  00caa	68 00 00 00 00	 push	 OFFSET ??_C@_06BAGMPINC@Reward?$AA@
  00caf	ff 15 00 00 00
	00		 call	 DWORD PTR __imp__GetPrivateProfileIntA@16
  00cb5	8b 4d fc	 mov	 ecx, DWORD PTR _this$[ebp]
  00cb8	89 81 98 01 00
	00		 mov	 DWORD PTR [ecx+408], eax

; 155  : 	this->m_reward.i48_PickUpRena = GetPrivateProfileInt("Reward", "PickUpRena", 100, filename);

  00cbe	8b 45 08	 mov	 eax, DWORD PTR _filename$[ebp]
  00cc1	50		 push	 eax
  00cc2	6a 64		 push	 100			; 00000064H
  00cc4	68 00 00 00 00	 push	 OFFSET ??_C@_0L@CDBAFBIG@PickUpRena?$AA@
  00cc9	68 00 00 00 00	 push	 OFFSET ??_C@_06BAGMPINC@Reward?$AA@
  00cce	ff 15 00 00 00
	00		 call	 DWORD PTR __imp__GetPrivateProfileIntA@16
  00cd4	8b 4d fc	 mov	 ecx, DWORD PTR _this$[ebp]
  00cd7	89 81 9c 01 00
	00		 mov	 DWORD PTR [ecx+412], eax

; 156  : 	this->m_reward.i49_PickUpLuckyCoins = GetPrivateProfileInt("Reward", "PickUpLuckyCoins", 100, filename);

  00cdd	8b 45 08	 mov	 eax, DWORD PTR _filename$[ebp]
  00ce0	50		 push	 eax
  00ce1	6a 64		 push	 100			; 00000064H
  00ce3	68 00 00 00 00	 push	 OFFSET ??_C@_0BB@PHACFCBC@PickUpLuckyCoins?$AA@
  00ce8	68 00 00 00 00	 push	 OFFSET ??_C@_06BAGMPINC@Reward?$AA@
  00ced	ff 15 00 00 00
	00		 call	 DWORD PTR __imp__GetPrivateProfileIntA@16
  00cf3	8b 4d fc	 mov	 ecx, DWORD PTR _this$[ebp]
  00cf6	89 81 a0 01 00
	00		 mov	 DWORD PTR [ecx+416], eax

; 157  : 	this->m_reward.i50_OfflineAttackTime = GetPrivateProfileInt("Reward", "OfflineAttackTime", 100, filename);

  00cfc	8b 45 08	 mov	 eax, DWORD PTR _filename$[ebp]
  00cff	50		 push	 eax
  00d00	6a 64		 push	 100			; 00000064H
  00d02	68 00 00 00 00	 push	 OFFSET ??_C@_0BC@FJIMNPIE@OfflineAttackTime?$AA@
  00d07	68 00 00 00 00	 push	 OFFSET ??_C@_06BAGMPINC@Reward?$AA@
  00d0c	ff 15 00 00 00
	00		 call	 DWORD PTR __imp__GetPrivateProfileIntA@16
  00d12	8b 4d fc	 mov	 ecx, DWORD PTR _this$[ebp]
  00d15	89 81 a4 01 00
	00		 mov	 DWORD PTR [ecx+420], eax

; 158  : 	//power cfg
; 159  : 	this->iDamageMax = GetPrivateProfileInt("Power", "DamageMax", 100, filename);

  00d1b	8b 45 08	 mov	 eax, DWORD PTR _filename$[ebp]
  00d1e	50		 push	 eax
  00d1f	6a 64		 push	 100			; 00000064H
  00d21	68 00 00 00 00	 push	 OFFSET ??_C@_09CFLNECFJ@DamageMax?$AA@
  00d26	68 00 00 00 00	 push	 OFFSET ??_C@_05PMCMDMKN@Power?$AA@
  00d2b	ff 15 00 00 00
	00		 call	 DWORD PTR __imp__GetPrivateProfileIntA@16
  00d31	8b 4d fc	 mov	 ecx, DWORD PTR _this$[ebp]
  00d34	89 81 a8 01 00
	00		 mov	 DWORD PTR [ecx+424], eax

; 160  : 	this->iDefenceMax = GetPrivateProfileInt("Power", "DefenceMax", 100, filename);

  00d3a	8b 45 08	 mov	 eax, DWORD PTR _filename$[ebp]
  00d3d	50		 push	 eax
  00d3e	6a 64		 push	 100			; 00000064H
  00d40	68 00 00 00 00	 push	 OFFSET ??_C@_0L@LBODNNMD@DefenceMax?$AA@
  00d45	68 00 00 00 00	 push	 OFFSET ??_C@_05PMCMDMKN@Power?$AA@
  00d4a	ff 15 00 00 00
	00		 call	 DWORD PTR __imp__GetPrivateProfileIntA@16
  00d50	8b 4d fc	 mov	 ecx, DWORD PTR _this$[ebp]
  00d53	89 81 ac 01 00
	00		 mov	 DWORD PTR [ecx+428], eax

; 161  : 	this->iLifeMax = GetPrivateProfileInt("Power", "LifeMax", 100, filename);

  00d59	8b 45 08	 mov	 eax, DWORD PTR _filename$[ebp]
  00d5c	50		 push	 eax
  00d5d	6a 64		 push	 100			; 00000064H
  00d5f	68 00 00 00 00	 push	 OFFSET ??_C@_07LCDDDIHB@LifeMax?$AA@
  00d64	68 00 00 00 00	 push	 OFFSET ??_C@_05PMCMDMKN@Power?$AA@
  00d69	ff 15 00 00 00
	00		 call	 DWORD PTR __imp__GetPrivateProfileIntA@16
  00d6f	8b 4d fc	 mov	 ecx, DWORD PTR _this$[ebp]
  00d72	89 81 b0 01 00
	00		 mov	 DWORD PTR [ecx+432], eax

; 162  : 	this->iExellentDamageMax = GetPrivateProfileInt("Power", "ExellentDamageMax", 100, filename);

  00d78	8b 45 08	 mov	 eax, DWORD PTR _filename$[ebp]
  00d7b	50		 push	 eax
  00d7c	6a 64		 push	 100			; 00000064H
  00d7e	68 00 00 00 00	 push	 OFFSET ??_C@_0BC@DEACALA@ExellentDamageMax?$AA@
  00d83	68 00 00 00 00	 push	 OFFSET ??_C@_05PMCMDMKN@Power?$AA@
  00d88	ff 15 00 00 00
	00		 call	 DWORD PTR __imp__GetPrivateProfileIntA@16
  00d8e	8b 4d fc	 mov	 ecx, DWORD PTR _this$[ebp]
  00d91	89 81 b4 01 00
	00		 mov	 DWORD PTR [ecx+436], eax

; 163  : 	this->iCriticalDamageMax = GetPrivateProfileInt("Power", "CriticalDamageMax", 100, filename);

  00d97	8b 45 08	 mov	 eax, DWORD PTR _filename$[ebp]
  00d9a	50		 push	 eax
  00d9b	6a 64		 push	 100			; 00000064H
  00d9d	68 00 00 00 00	 push	 OFFSET ??_C@_0BC@FBDOMICD@CriticalDamageMax?$AA@
  00da2	68 00 00 00 00	 push	 OFFSET ??_C@_05PMCMDMKN@Power?$AA@
  00da7	ff 15 00 00 00
	00		 call	 DWORD PTR __imp__GetPrivateProfileIntA@16
  00dad	8b 4d fc	 mov	 ecx, DWORD PTR _this$[ebp]
  00db0	89 81 b8 01 00
	00		 mov	 DWORD PTR [ecx+440], eax

; 164  : 	//power div
; 165  : 	this->m_DivDamage = GetPrivateProfileInt("Power", "DivDamage", 60, filename);

  00db6	8b 45 08	 mov	 eax, DWORD PTR _filename$[ebp]
  00db9	50		 push	 eax
  00dba	6a 3c		 push	 60			; 0000003cH
  00dbc	68 00 00 00 00	 push	 OFFSET ??_C@_09NFBNHDPD@DivDamage?$AA@
  00dc1	68 00 00 00 00	 push	 OFFSET ??_C@_05PMCMDMKN@Power?$AA@
  00dc6	ff 15 00 00 00
	00		 call	 DWORD PTR __imp__GetPrivateProfileIntA@16
  00dcc	8b 4d fc	 mov	 ecx, DWORD PTR _this$[ebp]
  00dcf	89 01		 mov	 DWORD PTR [ecx], eax

; 166  : 	this->m_DivDefence = GetPrivateProfileInt("Power", "DivDefence", 40, filename);

  00dd1	8b 45 08	 mov	 eax, DWORD PTR _filename$[ebp]
  00dd4	50		 push	 eax
  00dd5	6a 28		 push	 40			; 00000028H
  00dd7	68 00 00 00 00	 push	 OFFSET ??_C@_0L@COGGGABP@DivDefence?$AA@
  00ddc	68 00 00 00 00	 push	 OFFSET ??_C@_05PMCMDMKN@Power?$AA@
  00de1	ff 15 00 00 00
	00		 call	 DWORD PTR __imp__GetPrivateProfileIntA@16
  00de7	8b 4d fc	 mov	 ecx, DWORD PTR _this$[ebp]
  00dea	89 41 04	 mov	 DWORD PTR [ecx+4], eax

; 167  : 	this->m_DivLife = GetPrivateProfileInt("Power", "DivLife", 200, filename);

  00ded	8b 45 08	 mov	 eax, DWORD PTR _filename$[ebp]
  00df0	50		 push	 eax
  00df1	68 c8 00 00 00	 push	 200			; 000000c8H
  00df6	68 00 00 00 00	 push	 OFFSET ??_C@_07HLKCCONK@DivLife?$AA@
  00dfb	68 00 00 00 00	 push	 OFFSET ??_C@_05PMCMDMKN@Power?$AA@
  00e00	ff 15 00 00 00
	00		 call	 DWORD PTR __imp__GetPrivateProfileIntA@16
  00e06	8b 4d fc	 mov	 ecx, DWORD PTR _this$[ebp]
  00e09	89 41 08	 mov	 DWORD PTR [ecx+8], eax

; 168  : 	this->m_DivExellentPercent = GetPrivateProfileInt("Power", "DivExellentPercent", 20, filename);

  00e0c	8b 45 08	 mov	 eax, DWORD PTR _filename$[ebp]
  00e0f	50		 push	 eax
  00e10	6a 14		 push	 20			; 00000014H
  00e12	68 00 00 00 00	 push	 OFFSET ??_C@_0BD@CDJCBAGJ@DivExellentPercent?$AA@
  00e17	68 00 00 00 00	 push	 OFFSET ??_C@_05PMCMDMKN@Power?$AA@
  00e1c	ff 15 00 00 00
	00		 call	 DWORD PTR __imp__GetPrivateProfileIntA@16
  00e22	8b 4d fc	 mov	 ecx, DWORD PTR _this$[ebp]
  00e25	89 41 0c	 mov	 DWORD PTR [ecx+12], eax

; 169  : 	this->m_DivCriticalPercent = GetPrivateProfileInt("Power", "DivCriticalPercent", 20, filename);

  00e28	8b 45 08	 mov	 eax, DWORD PTR _filename$[ebp]
  00e2b	50		 push	 eax
  00e2c	6a 14		 push	 20			; 00000014H
  00e2e	68 00 00 00 00	 push	 OFFSET ??_C@_0BD@EFPIOGLG@DivCriticalPercent?$AA@
  00e33	68 00 00 00 00	 push	 OFFSET ??_C@_05PMCMDMKN@Power?$AA@
  00e38	ff 15 00 00 00
	00		 call	 DWORD PTR __imp__GetPrivateProfileIntA@16
  00e3e	8b 4d fc	 mov	 ecx, DWORD PTR _this$[ebp]
  00e41	89 41 10	 mov	 DWORD PTR [ecx+16], eax

; 170  : }

  00e44	5f		 pop	 edi
  00e45	5e		 pop	 esi
  00e46	5b		 pop	 ebx
  00e47	8b e5		 mov	 esp, ebp
  00e49	5d		 pop	 ebp
  00e4a	c2 04 00	 ret	 4
?Read@CAchievements@@QAEXPAD@Z ENDP			; CAchievements::Read
_TEXT	ENDS
PUBLIC	?set@PBMSG_HEAD2@@QAEXPAEEEE@Z			; PBMSG_HEAD2::set
PUBLIC	__$ArrayPad$
PUBLIC	?GDPlayerLoad@CAchievements@@QAEXH@Z		; CAchievements::GDPlayerLoad
EXTRN	?Send@DBSockMng@@QAEHPADH@Z:PROC		; DBSockMng::Send
EXTRN	?cDBSMng@@3VDBSockMng@@A:BYTE			; cDBSMng
EXTRN	_memcpy:PROC
EXTRN	___security_cookie:DWORD
EXTRN	@__security_check_cookie@4:PROC
; Function compile flags: /Odtp /ZI
_TEXT	SEGMENT
tv70 = -100						; size = 4
_pMsg$ = -32						; size = 20
_lpUser$ = -12						; size = 4
_this$ = -8						; size = 4
__$ArrayPad$ = -4					; size = 4
_aIndex$ = 8						; size = 4
?GDPlayerLoad@CAchievements@@QAEXH@Z PROC		; CAchievements::GDPlayerLoad
; _this$ = ecx

; 173  : {

  00e50	55		 push	 ebp
  00e51	8b ec		 mov	 ebp, esp
  00e53	83 ec 64	 sub	 esp, 100		; 00000064H
  00e56	a1 00 00 00 00	 mov	 eax, DWORD PTR ___security_cookie
  00e5b	33 c5		 xor	 eax, ebp
  00e5d	89 45 fc	 mov	 DWORD PTR __$ArrayPad$[ebp], eax
  00e60	53		 push	 ebx
  00e61	56		 push	 esi
  00e62	57		 push	 edi
  00e63	89 4d f8	 mov	 DWORD PTR _this$[ebp], ecx

; 174  : 	if(!this->bEnable)

  00e66	8b 45 f8	 mov	 eax, DWORD PTR _this$[ebp]
  00e69	0f b6 48 14	 movzx	 ecx, BYTE PTR [eax+20]
  00e6d	85 c9		 test	 ecx, ecx
  00e6f	75 02		 jne	 SHORT $LN2@GDPlayerLo

; 175  : 	{
; 176  : 		return;

  00e71	eb 7c		 jmp	 SHORT $LN3@GDPlayerLo
$LN2@GDPlayerLo:

; 177  : 	}
; 178  : 
; 179  : 	if(!OBJMAX_RANGE(aIndex))

  00e73	83 7d 08 00	 cmp	 DWORD PTR _aIndex$[ebp], 0
  00e77	7d 09		 jge	 SHORT $LN5@GDPlayerLo
  00e79	c7 45 9c 00 00
	00 00		 mov	 DWORD PTR tv70[ebp], 0
  00e80	eb 0f		 jmp	 SHORT $LN6@GDPlayerLo
$LN5@GDPlayerLo:
  00e82	33 c0		 xor	 eax, eax
  00e84	81 7d 08 97 3a
	00 00		 cmp	 DWORD PTR _aIndex$[ebp], 14999 ; 00003a97H
  00e8b	0f 9e c0	 setle	 al
  00e8e	89 45 9c	 mov	 DWORD PTR tv70[ebp], eax
$LN6@GDPlayerLo:
  00e91	83 7d 9c 00	 cmp	 DWORD PTR tv70[ebp], 0
  00e95	75 02		 jne	 SHORT $LN1@GDPlayerLo

; 180  : 	{
; 181  : 		return;

  00e97	eb 56		 jmp	 SHORT $LN3@GDPlayerLo
$LN1@GDPlayerLo:

; 182  : 	}
; 183  : 
; 184  : 	LPOBJ lpUser = &gObj[aIndex];

  00e99	8b 45 08	 mov	 eax, DWORD PTR _aIndex$[ebp]
  00e9c	69 c0 38 2b 00
	00		 imul	 eax, 11064		; 00002b38H
  00ea2	03 05 00 00 00
	00		 add	 eax, DWORD PTR ?gObj@@3PAUOBJECTSTRUCT@@A ; gObj
  00ea8	89 45 f4	 mov	 DWORD PTR _lpUser$[ebp], eax

; 185  : 	PMSG_GDREQ_ACH_LOAD pMsg;
; 186  : 	pMsg.h.set((LPBYTE)&pMsg, 0xEA, 0x0D, sizeof(pMsg));

  00eab	6a 14		 push	 20			; 00000014H
  00ead	6a 0d		 push	 13			; 0000000dH
  00eaf	68 ea 00 00 00	 push	 234			; 000000eaH
  00eb4	8d 45 e0	 lea	 eax, DWORD PTR _pMsg$[ebp]
  00eb7	50		 push	 eax
  00eb8	8d 4d e0	 lea	 ecx, DWORD PTR _pMsg$[ebp]
  00ebb	e8 00 00 00 00	 call	 ?set@PBMSG_HEAD2@@QAEXPAEEEE@Z ; PBMSG_HEAD2::set

; 187  : 	pMsg.aIndex = aIndex;

  00ec0	8b 45 08	 mov	 eax, DWORD PTR _aIndex$[ebp]
  00ec3	89 45 e4	 mov	 DWORD PTR _pMsg$[ebp+4], eax

; 188  : 	pMsg.szName[10] = 0;

  00ec6	c6 45 f2 00	 mov	 BYTE PTR _pMsg$[ebp+18], 0

; 189  : 	memcpy(pMsg.szName, lpUser->Name, sizeof(pMsg.szName)-1);

  00eca	6a 0a		 push	 10			; 0000000aH
  00ecc	8b 45 f4	 mov	 eax, DWORD PTR _lpUser$[ebp]
  00ecf	83 c0 77	 add	 eax, 119		; 00000077H
  00ed2	50		 push	 eax
  00ed3	8d 4d e8	 lea	 ecx, DWORD PTR _pMsg$[ebp+8]
  00ed6	51		 push	 ecx
  00ed7	e8 00 00 00 00	 call	 _memcpy
  00edc	83 c4 0c	 add	 esp, 12			; 0000000cH

; 190  : 	cDBSMng.Send((char*)&pMsg, sizeof(pMsg));

  00edf	6a 14		 push	 20			; 00000014H
  00ee1	8d 45 e0	 lea	 eax, DWORD PTR _pMsg$[ebp]
  00ee4	50		 push	 eax
  00ee5	b9 00 00 00 00	 mov	 ecx, OFFSET ?cDBSMng@@3VDBSockMng@@A ; cDBSMng
  00eea	e8 00 00 00 00	 call	 ?Send@DBSockMng@@QAEHPADH@Z ; DBSockMng::Send
$LN3@GDPlayerLo:

; 191  : }

  00eef	5f		 pop	 edi
  00ef0	5e		 pop	 esi
  00ef1	5b		 pop	 ebx
  00ef2	8b 4d fc	 mov	 ecx, DWORD PTR __$ArrayPad$[ebp]
  00ef5	33 cd		 xor	 ecx, ebp
  00ef7	e8 00 00 00 00	 call	 @__security_check_cookie@4
  00efc	8b e5		 mov	 esp, ebp
  00efe	5d		 pop	 ebp
  00eff	c2 04 00	 ret	 4
?GDPlayerLoad@CAchievements@@QAEXH@Z ENDP		; CAchievements::GDPlayerLoad
; Function compile flags: /Odtp /ZI
; File d:\projects\exteam6.3\source\gameserver\include\prodef.h
_TEXT	ENDS
;	COMDAT ?set@PBMSG_HEAD2@@QAEXPAEEEE@Z
_TEXT	SEGMENT
_this$ = -4						; size = 4
_lpBuf$ = 8						; size = 4
_head$ = 12						; size = 1
_sub$ = 16						; size = 1
_size$ = 20						; size = 1
?set@PBMSG_HEAD2@@QAEXPAEEEE@Z PROC			; PBMSG_HEAD2::set, COMDAT
; _this$ = ecx

; 104  : 	{

  00000	55		 push	 ebp
  00001	8b ec		 mov	 ebp, esp
  00003	83 ec 44	 sub	 esp, 68			; 00000044H
  00006	53		 push	 ebx
  00007	56		 push	 esi
  00008	57		 push	 edi
  00009	89 4d fc	 mov	 DWORD PTR _this$[ebp], ecx

; 105  : 		lpBuf[0] = 0xC1;

  0000c	8b 45 08	 mov	 eax, DWORD PTR _lpBuf$[ebp]
  0000f	c6 00 c1	 mov	 BYTE PTR [eax], 193	; 000000c1H

; 106  : 		lpBuf[1] = size;

  00012	8b 45 08	 mov	 eax, DWORD PTR _lpBuf$[ebp]
  00015	8a 4d 14	 mov	 cl, BYTE PTR _size$[ebp]
  00018	88 48 01	 mov	 BYTE PTR [eax+1], cl

; 107  : 		lpBuf[2] = head;

  0001b	8b 45 08	 mov	 eax, DWORD PTR _lpBuf$[ebp]
  0001e	8a 4d 0c	 mov	 cl, BYTE PTR _head$[ebp]
  00021	88 48 02	 mov	 BYTE PTR [eax+2], cl

; 108  : 		lpBuf[3] = sub;

  00024	8b 45 08	 mov	 eax, DWORD PTR _lpBuf$[ebp]
  00027	8a 4d 10	 mov	 cl, BYTE PTR _sub$[ebp]
  0002a	88 48 03	 mov	 BYTE PTR [eax+3], cl

; 109  : 	};

  0002d	5f		 pop	 edi
  0002e	5e		 pop	 esi
  0002f	5b		 pop	 ebx
  00030	8b e5		 mov	 esp, ebp
  00032	5d		 pop	 ebp
  00033	c2 10 00	 ret	 16			; 00000010H
?set@PBMSG_HEAD2@@QAEXPAEEEE@Z ENDP			; PBMSG_HEAD2::set
_TEXT	ENDS
PUBLIC	?GCPlayerData@CAchievements@@QAEXH_N@Z		; CAchievements::GCPlayerData
PUBLIC	?DGPlayerLoad@CAchievements@@QAEXPAUPMSG_DGANS_ACH_LOAD@@@Z ; CAchievements::DGPlayerLoad
EXTRN	?gObjCalCharacter@@YAXH@Z:PROC			; gObjCalCharacter
; Function compile flags: /Odtp /ZI
; File d:\projects\exteam6.3\source\gameserver\gameserver\achievements.cpp
_TEXT	SEGMENT
tv68 = -80						; size = 4
_lpUser$ = -12						; size = 4
_aIndex$ = -8						; size = 4
_this$ = -4						; size = 4
_aRecv$ = 8						; size = 4
?DGPlayerLoad@CAchievements@@QAEXPAUPMSG_DGANS_ACH_LOAD@@@Z PROC ; CAchievements::DGPlayerLoad
; _this$ = ecx

; 194  : {

  00f10	55		 push	 ebp
  00f11	8b ec		 mov	 ebp, esp
  00f13	83 ec 50	 sub	 esp, 80			; 00000050H
  00f16	53		 push	 ebx
  00f17	56		 push	 esi
  00f18	57		 push	 edi
  00f19	89 4d fc	 mov	 DWORD PTR _this$[ebp], ecx

; 195  : 	int aIndex = aRecv->aIndex;

  00f1c	8b 45 08	 mov	 eax, DWORD PTR _aRecv$[ebp]
  00f1f	8b 48 04	 mov	 ecx, DWORD PTR [eax+4]
  00f22	89 4d f8	 mov	 DWORD PTR _aIndex$[ebp], ecx

; 196  : 
; 197  : 	if(!OBJMAX_RANGE(aIndex))

  00f25	83 7d f8 00	 cmp	 DWORD PTR _aIndex$[ebp], 0
  00f29	7d 09		 jge	 SHORT $LN4@DGPlayerLo
  00f2b	c7 45 b0 00 00
	00 00		 mov	 DWORD PTR tv68[ebp], 0
  00f32	eb 0f		 jmp	 SHORT $LN5@DGPlayerLo
$LN4@DGPlayerLo:
  00f34	33 c0		 xor	 eax, eax
  00f36	81 7d f8 97 3a
	00 00		 cmp	 DWORD PTR _aIndex$[ebp], 14999 ; 00003a97H
  00f3d	0f 9e c0	 setle	 al
  00f40	89 45 b0	 mov	 DWORD PTR tv68[ebp], eax
$LN5@DGPlayerLo:
  00f43	83 7d b0 00	 cmp	 DWORD PTR tv68[ebp], 0
  00f47	75 02		 jne	 SHORT $LN1@DGPlayerLo

; 198  : 	{
; 199  : 		return;

  00f49	eb 54		 jmp	 SHORT $LN2@DGPlayerLo
$LN1@DGPlayerLo:

; 200  : 	}
; 201  : 
; 202  : 	LPOBJ lpUser = &gObj[aIndex];

  00f4b	8b 45 f8	 mov	 eax, DWORD PTR _aIndex$[ebp]
  00f4e	69 c0 38 2b 00
	00		 imul	 eax, 11064		; 00002b38H
  00f54	03 05 00 00 00
	00		 add	 eax, DWORD PTR ?gObj@@3PAUOBJECTSTRUCT@@A ; gObj
  00f5a	89 45 f4	 mov	 DWORD PTR _lpUser$[ebp], eax

; 203  : 
; 204  : 	memcpy(&lpUser->ach.mission, &aRecv->usr, sizeof(aRecv->usr));

  00f5d	68 c8 00 00 00	 push	 200			; 000000c8H
  00f62	8b 45 08	 mov	 eax, DWORD PTR _aRecv$[ebp]
  00f65	83 c0 0c	 add	 eax, 12			; 0000000cH
  00f68	50		 push	 eax
  00f69	8b 4d f4	 mov	 ecx, DWORD PTR _lpUser$[ebp]
  00f6c	81 c1 30 29 00
	00		 add	 ecx, 10544		; 00002930H
  00f72	51		 push	 ecx
  00f73	e8 00 00 00 00	 call	 _memcpy
  00f78	83 c4 0c	 add	 esp, 12			; 0000000cH

; 205  : 
; 206  : 	lpUser->ach.bLoaded = true;

  00f7b	8b 45 f4	 mov	 eax, DWORD PTR _lpUser$[ebp]
  00f7e	c6 80 20 29 00
	00 01		 mov	 BYTE PTR [eax+10528], 1

; 207  : 
; 208  : 	this->GCPlayerData(aIndex, false);

  00f85	6a 00		 push	 0
  00f87	8b 45 f8	 mov	 eax, DWORD PTR _aIndex$[ebp]
  00f8a	50		 push	 eax
  00f8b	8b 4d fc	 mov	 ecx, DWORD PTR _this$[ebp]
  00f8e	e8 00 00 00 00	 call	 ?GCPlayerData@CAchievements@@QAEXH_N@Z ; CAchievements::GCPlayerData

; 209  : 
; 210  : 	gObjCalCharacter(aIndex);

  00f93	8b 45 f8	 mov	 eax, DWORD PTR _aIndex$[ebp]
  00f96	50		 push	 eax
  00f97	e8 00 00 00 00	 call	 ?gObjCalCharacter@@YAXH@Z ; gObjCalCharacter
  00f9c	83 c4 04	 add	 esp, 4
$LN2@DGPlayerLo:

; 211  : }

  00f9f	5f		 pop	 edi
  00fa0	5e		 pop	 esi
  00fa1	5b		 pop	 ebx
  00fa2	8b e5		 mov	 esp, ebp
  00fa4	5d		 pop	 ebp
  00fa5	c2 04 00	 ret	 4
?DGPlayerLoad@CAchievements@@QAEXPAUPMSG_DGANS_ACH_LOAD@@@Z ENDP ; CAchievements::DGPlayerLoad
_TEXT	ENDS
PUBLIC	__$ArrayPad$
PUBLIC	?GDPlayerSave@CAchievements@@QAEXH@Z		; CAchievements::GDPlayerSave
; Function compile flags: /Odtp /ZI
_TEXT	SEGMENT
tv70 = -296						; size = 4
_pMsg$ = -228						; size = 216
_lpUser$ = -12						; size = 4
_this$ = -8						; size = 4
__$ArrayPad$ = -4					; size = 4
_aIndex$ = 8						; size = 4
?GDPlayerSave@CAchievements@@QAEXH@Z PROC		; CAchievements::GDPlayerSave
; _this$ = ecx

; 214  : {

  00fb0	55		 push	 ebp
  00fb1	8b ec		 mov	 ebp, esp
  00fb3	81 ec 28 01 00
	00		 sub	 esp, 296		; 00000128H
  00fb9	a1 00 00 00 00	 mov	 eax, DWORD PTR ___security_cookie
  00fbe	33 c5		 xor	 eax, ebp
  00fc0	89 45 fc	 mov	 DWORD PTR __$ArrayPad$[ebp], eax
  00fc3	53		 push	 ebx
  00fc4	56		 push	 esi
  00fc5	57		 push	 edi
  00fc6	89 4d f8	 mov	 DWORD PTR _this$[ebp], ecx

; 215  : 	if(!this->bEnable)

  00fc9	8b 45 f8	 mov	 eax, DWORD PTR _this$[ebp]
  00fcc	0f b6 48 14	 movzx	 ecx, BYTE PTR [eax+20]
  00fd0	85 c9		 test	 ecx, ecx
  00fd2	75 05		 jne	 SHORT $LN3@GDPlayerSa

; 216  : 	{
; 217  : 		return;

  00fd4	e9 c4 00 00 00	 jmp	 $LN4@GDPlayerSa
$LN3@GDPlayerSa:

; 218  : 	}
; 219  : 
; 220  : 	if(!OBJMAX_RANGE(aIndex))

  00fd9	83 7d 08 00	 cmp	 DWORD PTR _aIndex$[ebp], 0
  00fdd	7d 0c		 jge	 SHORT $LN6@GDPlayerSa
  00fdf	c7 85 d8 fe ff
	ff 00 00 00 00	 mov	 DWORD PTR tv70[ebp], 0
  00fe9	eb 12		 jmp	 SHORT $LN7@GDPlayerSa
$LN6@GDPlayerSa:
  00feb	33 c0		 xor	 eax, eax
  00fed	81 7d 08 97 3a
	00 00		 cmp	 DWORD PTR _aIndex$[ebp], 14999 ; 00003a97H
  00ff4	0f 9e c0	 setle	 al
  00ff7	89 85 d8 fe ff
	ff		 mov	 DWORD PTR tv70[ebp], eax
$LN7@GDPlayerSa:
  00ffd	83 bd d8 fe ff
	ff 00		 cmp	 DWORD PTR tv70[ebp], 0
  01004	75 05		 jne	 SHORT $LN2@GDPlayerSa

; 221  : 	{
; 222  : 		return;

  01006	e9 92 00 00 00	 jmp	 $LN4@GDPlayerSa
$LN2@GDPlayerSa:

; 223  : 	}
; 224  : 
; 225  : 
; 226  : 	LPOBJ lpUser = &gObj[aIndex];

  0100b	8b 45 08	 mov	 eax, DWORD PTR _aIndex$[ebp]
  0100e	69 c0 38 2b 00
	00		 imul	 eax, 11064		; 00002b38H
  01014	03 05 00 00 00
	00		 add	 eax, DWORD PTR ?gObj@@3PAUOBJECTSTRUCT@@A ; gObj
  0101a	89 45 f4	 mov	 DWORD PTR _lpUser$[ebp], eax

; 227  : 
; 228  : 	if(!lpUser->ach.bLoaded)

  0101d	8b 45 f4	 mov	 eax, DWORD PTR _lpUser$[ebp]
  01020	0f b6 88 20 29
	00 00		 movzx	 ecx, BYTE PTR [eax+10528]
  01027	85 c9		 test	 ecx, ecx
  01029	75 02		 jne	 SHORT $LN1@GDPlayerSa

; 229  : 	{
; 230  : 		return;

  0102b	eb 70		 jmp	 SHORT $LN4@GDPlayerSa
$LN1@GDPlayerSa:

; 231  : 	}
; 232  : 
; 233  : 	PMSG_GDREQ_ACH_SAVE pMsg;
; 234  : 	pMsg.h.set((LPBYTE)&pMsg, 0xEA, 0x0E, sizeof(pMsg));

  0102d	68 d8 00 00 00	 push	 216			; 000000d8H
  01032	6a 0e		 push	 14			; 0000000eH
  01034	68 ea 00 00 00	 push	 234			; 000000eaH
  01039	8d 85 1c ff ff
	ff		 lea	 eax, DWORD PTR _pMsg$[ebp]
  0103f	50		 push	 eax
  01040	8d 8d 1c ff ff
	ff		 lea	 ecx, DWORD PTR _pMsg$[ebp]
  01046	e8 00 00 00 00	 call	 ?set@PBMSG_HEAD2@@QAEXPAEEEE@Z ; PBMSG_HEAD2::set

; 235  : 	pMsg.szName[10] = 0;

  0104b	c6 85 2a ff ff
	ff 00		 mov	 BYTE PTR _pMsg$[ebp+14], 0

; 236  : 	memcpy(pMsg.szName, lpUser->Name, sizeof(pMsg.szName)-1);

  01052	6a 0a		 push	 10			; 0000000aH
  01054	8b 45 f4	 mov	 eax, DWORD PTR _lpUser$[ebp]
  01057	83 c0 77	 add	 eax, 119		; 00000077H
  0105a	50		 push	 eax
  0105b	8d 8d 20 ff ff
	ff		 lea	 ecx, DWORD PTR _pMsg$[ebp+4]
  01061	51		 push	 ecx
  01062	e8 00 00 00 00	 call	 _memcpy
  01067	83 c4 0c	 add	 esp, 12			; 0000000cH

; 237  : 	memcpy(&pMsg.usr, &lpUser->ach.mission, sizeof(pMsg.usr));

  0106a	68 c8 00 00 00	 push	 200			; 000000c8H
  0106f	8b 45 f4	 mov	 eax, DWORD PTR _lpUser$[ebp]
  01072	05 30 29 00 00	 add	 eax, 10544		; 00002930H
  01077	50		 push	 eax
  01078	8d 8d 2c ff ff
	ff		 lea	 ecx, DWORD PTR _pMsg$[ebp+16]
  0107e	51		 push	 ecx
  0107f	e8 00 00 00 00	 call	 _memcpy
  01084	83 c4 0c	 add	 esp, 12			; 0000000cH

; 238  : 	cDBSMng.Send((char*)&pMsg, sizeof(pMsg));

  01087	68 d8 00 00 00	 push	 216			; 000000d8H
  0108c	8d 85 1c ff ff
	ff		 lea	 eax, DWORD PTR _pMsg$[ebp]
  01092	50		 push	 eax
  01093	b9 00 00 00 00	 mov	 ecx, OFFSET ?cDBSMng@@3VDBSockMng@@A ; cDBSMng
  01098	e8 00 00 00 00	 call	 ?Send@DBSockMng@@QAEHPADH@Z ; DBSockMng::Send
$LN4@GDPlayerSa:

; 239  : }

  0109d	5f		 pop	 edi
  0109e	5e		 pop	 esi
  0109f	5b		 pop	 ebx
  010a0	8b 4d fc	 mov	 ecx, DWORD PTR __$ArrayPad$[ebp]
  010a3	33 cd		 xor	 ecx, ebp
  010a5	e8 00 00 00 00	 call	 @__security_check_cookie@4
  010aa	8b e5		 mov	 esp, ebp
  010ac	5d		 pop	 ebp
  010ad	c2 04 00	 ret	 4
?GDPlayerSave@CAchievements@@QAEXH@Z ENDP		; CAchievements::GDPlayerSave
_TEXT	ENDS
PUBLIC	__$ArrayPad$
EXTRN	?DataSend@@YAHHPAEK@Z:PROC			; DataSend
; Function compile flags: /Odtp /ZI
_TEXT	SEGMENT
tv70 = -280						; size = 4
_pMsg$ = -212						; size = 204
_this$ = -8						; size = 4
__$ArrayPad$ = -4					; size = 4
_aIndex$ = 8						; size = 4
?GCSettingsData@CAchievements@@QAEXH@Z PROC		; CAchievements::GCSettingsData
; _this$ = ecx

; 242  : {

  010b0	55		 push	 ebp
  010b1	8b ec		 mov	 ebp, esp
  010b3	81 ec 18 01 00
	00		 sub	 esp, 280		; 00000118H
  010b9	a1 00 00 00 00	 mov	 eax, DWORD PTR ___security_cookie
  010be	33 c5		 xor	 eax, ebp
  010c0	89 45 fc	 mov	 DWORD PTR __$ArrayPad$[ebp], eax
  010c3	53		 push	 ebx
  010c4	56		 push	 esi
  010c5	57		 push	 edi
  010c6	89 4d f8	 mov	 DWORD PTR _this$[ebp], ecx

; 243  : 	if(!this->bEnable)

  010c9	8b 45 f8	 mov	 eax, DWORD PTR _this$[ebp]
  010cc	0f b6 48 14	 movzx	 ecx, BYTE PTR [eax+20]
  010d0	85 c9		 test	 ecx, ecx
  010d2	75 05		 jne	 SHORT $LN2@GCSettings

; 244  : 	{
; 245  : 		return;

  010d4	e9 83 00 00 00	 jmp	 $LN3@GCSettings
$LN2@GCSettings:

; 246  : 	}
; 247  : 
; 248  : 	if(!OBJMAX_RANGE(aIndex))

  010d9	83 7d 08 00	 cmp	 DWORD PTR _aIndex$[ebp], 0
  010dd	7d 0c		 jge	 SHORT $LN5@GCSettings
  010df	c7 85 e8 fe ff
	ff 00 00 00 00	 mov	 DWORD PTR tv70[ebp], 0
  010e9	eb 12		 jmp	 SHORT $LN6@GCSettings
$LN5@GCSettings:
  010eb	33 c0		 xor	 eax, eax
  010ed	81 7d 08 97 3a
	00 00		 cmp	 DWORD PTR _aIndex$[ebp], 14999 ; 00003a97H
  010f4	0f 9e c0	 setle	 al
  010f7	89 85 e8 fe ff
	ff		 mov	 DWORD PTR tv70[ebp], eax
$LN6@GCSettings:
  010fd	83 bd e8 fe ff
	ff 00		 cmp	 DWORD PTR tv70[ebp], 0
  01104	75 02		 jne	 SHORT $LN1@GCSettings

; 249  : 	{
; 250  : 		return;

  01106	eb 54		 jmp	 SHORT $LN3@GCSettings
$LN1@GCSettings:

; 251  : 	}
; 252  : 
; 253  : 	PMSG_GC_ACH_SETTINGS_DATA pMsg;
; 254  : 	pMsg.h.set((LPBYTE)&pMsg, 0xFB, 0x90, sizeof(pMsg));

  01108	68 cc 00 00 00	 push	 204			; 000000ccH
  0110d	68 90 00 00 00	 push	 144			; 00000090H
  01112	68 fb 00 00 00	 push	 251			; 000000fbH
  01117	8d 85 2c ff ff
	ff		 lea	 eax, DWORD PTR _pMsg$[ebp]
  0111d	50		 push	 eax
  0111e	8d 8d 2c ff ff
	ff		 lea	 ecx, DWORD PTR _pMsg$[ebp]
  01124	e8 00 00 00 00	 call	 ?set@PBMSG_HEAD2@@QAEXPAEEEE@Z ; PBMSG_HEAD2::set

; 255  : 	memcpy(&pMsg.cfg, &this->m_config, sizeof(this->m_config));

  01129	68 c8 00 00 00	 push	 200			; 000000c8H
  0112e	8b 45 f8	 mov	 eax, DWORD PTR _this$[ebp]
  01131	83 c0 18	 add	 eax, 24			; 00000018H
  01134	50		 push	 eax
  01135	8d 8d 30 ff ff
	ff		 lea	 ecx, DWORD PTR _pMsg$[ebp+4]
  0113b	51		 push	 ecx
  0113c	e8 00 00 00 00	 call	 _memcpy
  01141	83 c4 0c	 add	 esp, 12			; 0000000cH

; 256  : 
; 257  : 	DataSend(aIndex, (LPBYTE)&pMsg, sizeof(pMsg));

  01144	68 cc 00 00 00	 push	 204			; 000000ccH
  01149	8d 85 2c ff ff
	ff		 lea	 eax, DWORD PTR _pMsg$[ebp]
  0114f	50		 push	 eax
  01150	8b 4d 08	 mov	 ecx, DWORD PTR _aIndex$[ebp]
  01153	51		 push	 ecx
  01154	e8 00 00 00 00	 call	 ?DataSend@@YAHHPAEK@Z	; DataSend
  01159	83 c4 0c	 add	 esp, 12			; 0000000cH
$LN3@GCSettings:

; 258  : }

  0115c	5f		 pop	 edi
  0115d	5e		 pop	 esi
  0115e	5b		 pop	 ebx
  0115f	8b 4d fc	 mov	 ecx, DWORD PTR __$ArrayPad$[ebp]
  01162	33 cd		 xor	 ecx, ebp
  01164	e8 00 00 00 00	 call	 @__security_check_cookie@4
  01169	8b e5		 mov	 esp, ebp
  0116b	5d		 pop	 ebp
  0116c	c2 04 00	 ret	 4
?GCSettingsData@CAchievements@@QAEXH@Z ENDP		; CAchievements::GCSettingsData
_TEXT	ENDS
PUBLIC	__$ArrayPad$
; Function compile flags: /Odtp /ZI
_TEXT	SEGMENT
tv67 = -288						; size = 4
_pMsg$ = -220						; size = 208
_lpUser$ = -12						; size = 4
_this$ = -8						; size = 4
__$ArrayPad$ = -4					; size = 4
_aIndex$ = 8						; size = 4
_bWin$ = 12						; size = 1
?GCPlayerData@CAchievements@@QAEXH_N@Z PROC		; CAchievements::GCPlayerData
; _this$ = ecx

; 261  : {

  01170	55		 push	 ebp
  01171	8b ec		 mov	 ebp, esp
  01173	81 ec 20 01 00
	00		 sub	 esp, 288		; 00000120H
  01179	a1 00 00 00 00	 mov	 eax, DWORD PTR ___security_cookie
  0117e	33 c5		 xor	 eax, ebp
  01180	89 45 fc	 mov	 DWORD PTR __$ArrayPad$[ebp], eax
  01183	53		 push	 ebx
  01184	56		 push	 esi
  01185	57		 push	 edi
  01186	89 4d f8	 mov	 DWORD PTR _this$[ebp], ecx

; 262  : 	if(!OBJMAX_RANGE(aIndex))

  01189	83 7d 08 00	 cmp	 DWORD PTR _aIndex$[ebp], 0
  0118d	7d 0c		 jge	 SHORT $LN4@GCPlayerDa
  0118f	c7 85 e0 fe ff
	ff 00 00 00 00	 mov	 DWORD PTR tv67[ebp], 0
  01199	eb 12		 jmp	 SHORT $LN5@GCPlayerDa
$LN4@GCPlayerDa:
  0119b	33 c0		 xor	 eax, eax
  0119d	81 7d 08 97 3a
	00 00		 cmp	 DWORD PTR _aIndex$[ebp], 14999 ; 00003a97H
  011a4	0f 9e c0	 setle	 al
  011a7	89 85 e0 fe ff
	ff		 mov	 DWORD PTR tv67[ebp], eax
$LN5@GCPlayerDa:
  011ad	83 bd e0 fe ff
	ff 00		 cmp	 DWORD PTR tv67[ebp], 0
  011b4	75 02		 jne	 SHORT $LN1@GCPlayerDa

; 263  : 	{
; 264  : 		return;

  011b6	eb 71		 jmp	 SHORT $LN2@GCPlayerDa
$LN1@GCPlayerDa:

; 265  : 	}
; 266  : 
; 267  : 	LPOBJ lpUser = &gObj[aIndex];

  011b8	8b 45 08	 mov	 eax, DWORD PTR _aIndex$[ebp]
  011bb	69 c0 38 2b 00
	00		 imul	 eax, 11064		; 00002b38H
  011c1	03 05 00 00 00
	00		 add	 eax, DWORD PTR ?gObj@@3PAUOBJECTSTRUCT@@A ; gObj
  011c7	89 45 f4	 mov	 DWORD PTR _lpUser$[ebp], eax

; 268  : 
; 269  : 	PMSG_GC_ACH_PLAYER_DATA pMsg;
; 270  : 	pMsg.h.set((LPBYTE)&pMsg, 0xFB, 0x91, sizeof(pMsg));

  011ca	68 d0 00 00 00	 push	 208			; 000000d0H
  011cf	68 91 00 00 00	 push	 145			; 00000091H
  011d4	68 fb 00 00 00	 push	 251			; 000000fbH
  011d9	8d 85 24 ff ff
	ff		 lea	 eax, DWORD PTR _pMsg$[ebp]
  011df	50		 push	 eax
  011e0	8d 8d 24 ff ff
	ff		 lea	 ecx, DWORD PTR _pMsg$[ebp]
  011e6	e8 00 00 00 00	 call	 ?set@PBMSG_HEAD2@@QAEXPAEEEE@Z ; PBMSG_HEAD2::set

; 271  : 	pMsg.bWinOpen = bWin;

  011eb	8a 45 0c	 mov	 al, BYTE PTR _bWin$[ebp]
  011ee	88 85 28 ff ff
	ff		 mov	 BYTE PTR _pMsg$[ebp+4], al

; 272  : 	memcpy(&pMsg.usr, &lpUser->ach.mission, sizeof(pMsg.usr));

  011f4	68 c8 00 00 00	 push	 200			; 000000c8H
  011f9	8b 45 f4	 mov	 eax, DWORD PTR _lpUser$[ebp]
  011fc	05 30 29 00 00	 add	 eax, 10544		; 00002930H
  01201	50		 push	 eax
  01202	8d 8d 2c ff ff
	ff		 lea	 ecx, DWORD PTR _pMsg$[ebp+8]
  01208	51		 push	 ecx
  01209	e8 00 00 00 00	 call	 _memcpy
  0120e	83 c4 0c	 add	 esp, 12			; 0000000cH

; 273  : 	DataSend(aIndex, (LPBYTE)&pMsg, sizeof(pMsg));

  01211	68 d0 00 00 00	 push	 208			; 000000d0H
  01216	8d 85 24 ff ff
	ff		 lea	 eax, DWORD PTR _pMsg$[ebp]
  0121c	50		 push	 eax
  0121d	8b 4d 08	 mov	 ecx, DWORD PTR _aIndex$[ebp]
  01220	51		 push	 ecx
  01221	e8 00 00 00 00	 call	 ?DataSend@@YAHHPAEK@Z	; DataSend
  01226	83 c4 0c	 add	 esp, 12			; 0000000cH
$LN2@GCPlayerDa:

; 274  : }

  01229	5f		 pop	 edi
  0122a	5e		 pop	 esi
  0122b	5b		 pop	 ebx
  0122c	8b 4d fc	 mov	 ecx, DWORD PTR __$ArrayPad$[ebp]
  0122f	33 cd		 xor	 ecx, ebp
  01231	e8 00 00 00 00	 call	 @__security_check_cookie@4
  01236	8b e5		 mov	 esp, ebp
  01238	5d		 pop	 ebp
  01239	c2 08 00	 ret	 8
?GCPlayerData@CAchievements@@QAEXH_N@Z ENDP		; CAchievements::GCPlayerData
_TEXT	ENDS
PUBLIC	?CGWindowOpen@CAchievements@@QAEXPAUPMSG_CG_ACH_WINOPEN@@H@Z ; CAchievements::CGWindowOpen
; Function compile flags: /Odtp /ZI
_TEXT	SEGMENT
_this$ = -4						; size = 4
_aRecv$ = 8						; size = 4
_aIndex$ = 12						; size = 4
?CGWindowOpen@CAchievements@@QAEXPAUPMSG_CG_ACH_WINOPEN@@H@Z PROC ; CAchievements::CGWindowOpen
; _this$ = ecx

; 277  : {

  01240	55		 push	 ebp
  01241	8b ec		 mov	 ebp, esp
  01243	83 ec 44	 sub	 esp, 68			; 00000044H
  01246	53		 push	 ebx
  01247	56		 push	 esi
  01248	57		 push	 edi
  01249	89 4d fc	 mov	 DWORD PTR _this$[ebp], ecx

; 278  : 	if(!this->bEnable)

  0124c	8b 45 fc	 mov	 eax, DWORD PTR _this$[ebp]
  0124f	0f b6 48 14	 movzx	 ecx, BYTE PTR [eax+20]
  01253	85 c9		 test	 ecx, ecx
  01255	75 02		 jne	 SHORT $LN1@CGWindowOp

; 279  : 	{
; 280  : 		return;

  01257	eb 0e		 jmp	 SHORT $LN2@CGWindowOp
$LN1@CGWindowOp:

; 281  : 	}
; 282  : 
; 283  : 	this->GCPlayerData(aIndex, true);

  01259	6a 01		 push	 1
  0125b	8b 45 0c	 mov	 eax, DWORD PTR _aIndex$[ebp]
  0125e	50		 push	 eax
  0125f	8b 4d fc	 mov	 ecx, DWORD PTR _this$[ebp]
  01262	e8 00 00 00 00	 call	 ?GCPlayerData@CAchievements@@QAEXH_N@Z ; CAchievements::GCPlayerData
$LN2@CGWindowOp:

; 284  : }

  01267	5f		 pop	 edi
  01268	5e		 pop	 esi
  01269	5b		 pop	 ebx
  0126a	8b e5		 mov	 esp, ebp
  0126c	5d		 pop	 ebp
  0126d	c2 08 00	 ret	 8
?CGWindowOpen@CAchievements@@QAEXPAUPMSG_CG_ACH_WINOPEN@@H@Z ENDP ; CAchievements::CGWindowOpen
_TEXT	ENDS
PUBLIC	??_C@_0BM@GCMOIFFL@?$FLAchievements?$FN?3?5?$CL?$CFd?5Credits?$AA@ ; `string'
PUBLIC	??_C@_0BL@FGCKJPKI@?$FLAchievements?$FN?3?5?$CL?$CFd?5Goblin?$AA@ ; `string'
PUBLIC	??_C@_00CNPNBAHC@?$AA@				; `string'
PUBLIC	??_C@_0BK@IPFGILAF@?$FLAchievements?$FN?3?5?$CL?$CFd?5WCoin?$AA@ ; `string'
PUBLIC	__$ArrayPad$
PUBLIC	?PlayerReward@CAchievements@@QAEXHHHH@Z		; CAchievements::PlayerReward
EXTRN	?ExUserDataSend@@YAXH@Z:PROC			; ExUserDataSend
EXTRN	?MessageSendEx@@YAXHHPAD0ZZ:PROC		; MessageSendEx
EXTRN	_sprintf:PROC
EXTRN	?GDSaveUserInfo@GameShop@@QAEXH@Z:PROC		; GameShop::GDSaveUserInfo
EXTRN	?gGameShop@@3VGameShop@@A:BYTE			; gGameShop
EXTRN	?CheckUser@CExLicense@@QAE_NH@Z:PROC		; CExLicense::CheckUser
EXTRN	__fltused:DWORD
;	COMDAT ??_C@_0BM@GCMOIFFL@?$FLAchievements?$FN?3?5?$CL?$CFd?5Credits?$AA@
CONST	SEGMENT
??_C@_0BM@GCMOIFFL@?$FLAchievements?$FN?3?5?$CL?$CFd?5Credits?$AA@ DB '[A'
	DB	'chievements]: +%d Credits', 00H		; `string'
CONST	ENDS
;	COMDAT ??_C@_0BL@FGCKJPKI@?$FLAchievements?$FN?3?5?$CL?$CFd?5Goblin?$AA@
CONST	SEGMENT
??_C@_0BL@FGCKJPKI@?$FLAchievements?$FN?3?5?$CL?$CFd?5Goblin?$AA@ DB '[Ac'
	DB	'hievements]: +%d Goblin', 00H		; `string'
CONST	ENDS
;	COMDAT ??_C@_00CNPNBAHC@?$AA@
CONST	SEGMENT
??_C@_00CNPNBAHC@?$AA@ DB 00H				; `string'
CONST	ENDS
;	COMDAT ??_C@_0BK@IPFGILAF@?$FLAchievements?$FN?3?5?$CL?$CFd?5WCoin?$AA@
CONST	SEGMENT
??_C@_0BK@IPFGILAF@?$FLAchievements?$FN?3?5?$CL?$CFd?5WCoin?$AA@ DB '[Ach'
	DB	'ievements]: +%d WCoin', 00H			; `string'
; Function compile flags: /Odtp /ZI
CONST	ENDS
_TEXT	SEGMENT
tv67 = -144						; size = 4
_szReward$229194 = -76					; size = 64
_lpUser$ = -12						; size = 4
_this$ = -8						; size = 4
__$ArrayPad$ = -4					; size = 4
_aIndex$ = 8						; size = 4
_mission_need$ = 12					; size = 4
_mission$ = 16						; size = 4
_ireward$ = 20						; size = 4
?PlayerReward@CAchievements@@QAEXHHHH@Z PROC		; CAchievements::PlayerReward
; _this$ = ecx

; 287  : {

  01270	55		 push	 ebp
  01271	8b ec		 mov	 ebp, esp
  01273	81 ec 90 00 00
	00		 sub	 esp, 144		; 00000090H
  01279	a1 00 00 00 00	 mov	 eax, DWORD PTR ___security_cookie
  0127e	33 c5		 xor	 eax, ebp
  01280	89 45 fc	 mov	 DWORD PTR __$ArrayPad$[ebp], eax
  01283	53		 push	 ebx
  01284	56		 push	 esi
  01285	57		 push	 edi
  01286	89 4d f8	 mov	 DWORD PTR _this$[ebp], ecx

; 288  : 	if(!OBJMAX_RANGE(aIndex))

  01289	83 7d 08 00	 cmp	 DWORD PTR _aIndex$[ebp], 0
  0128d	7d 0c		 jge	 SHORT $LN11@PlayerRewa
  0128f	c7 85 70 ff ff
	ff 00 00 00 00	 mov	 DWORD PTR tv67[ebp], 0
  01299	eb 12		 jmp	 SHORT $LN12@PlayerRewa
$LN11@PlayerRewa:
  0129b	33 c0		 xor	 eax, eax
  0129d	81 7d 08 97 3a
	00 00		 cmp	 DWORD PTR _aIndex$[ebp], 14999 ; 00003a97H
  012a4	0f 9e c0	 setle	 al
  012a7	89 85 70 ff ff
	ff		 mov	 DWORD PTR tv67[ebp], eax
$LN12@PlayerRewa:
  012ad	83 bd 70 ff ff
	ff 00		 cmp	 DWORD PTR tv67[ebp], 0
  012b4	75 05		 jne	 SHORT $LN8@PlayerRewa

; 289  : 	{
; 290  : 		return;

  012b6	e9 25 02 00 00	 jmp	 $LN9@PlayerRewa
$LN8@PlayerRewa:

; 291  : 	}
; 292  : 
; 293  : 	LPOBJ lpUser = &gObj[aIndex];

  012bb	8b 45 08	 mov	 eax, DWORD PTR _aIndex$[ebp]
  012be	69 c0 38 2b 00
	00		 imul	 eax, 11064		; 00002b38H
  012c4	03 05 00 00 00
	00		 add	 eax, DWORD PTR ?gObj@@3PAUOBJECTSTRUCT@@A ; gObj
  012ca	89 45 f4	 mov	 DWORD PTR _lpUser$[ebp], eax

; 294  : 
; 295  : 	if(mission >= mission_need)

  012cd	8b 45 10	 mov	 eax, DWORD PTR _mission$[ebp]
  012d0	3b 45 0c	 cmp	 eax, DWORD PTR _mission_need$[ebp]
  012d3	0f 8c 07 02 00
	00		 jl	 $LN6@PlayerRewa

; 296  : 	{
; 297  : 		char szReward[64];
; 298  : #if(GAMESERVER_ACHIVEMENTS==EXGAME_SERVER)
; 299  : 		if(ireward > 0)
; 300  : 		{
; 301  : 			lpUser->Bonus += ireward;
; 302  : 			g_ExUser.UpdateCharEx(aIndex);
; 303  : 			sprintf(szReward, "[Achievements]: +%d Bonus", ireward);
; 304  : 			MessageSendUser(aIndex, 6, "", szReward);
; 305  : 		}
; 306  : #endif
; 307  : #if(GAMESERVER_ACHIVEMENTS==EXTEAM_SERVER)
; 308  : 		if(ireward > 0)

  012d9	83 7d 14 00	 cmp	 DWORD PTR _ireward$[ebp], 0
  012dd	0f 8e fd 01 00
	00		 jle	 $LN6@PlayerRewa

; 309  : 		{
; 310  : 			if(g_ExLicense.CheckUser(eExUB::Gredy) || g_ExLicense.CheckUser(eExUB::Gredy2) || g_ExLicense.CheckUser(eExUB::GredyLocal) || 
; 311  : 				g_ExLicense.CheckUser(eExUB::AlterMU) || g_ExLicense.CheckUser(eExUB::Artem) || g_ExLicense.CheckUser(eExUB::Artem2) ||
; 312  : 				g_ExLicense.CheckUser(eExUB::RevoMU) || g_ExLicense.CheckUser(eExUB::GloryMU) || g_ExLicense.CheckUser(eExUB::mu4you) || g_ExLicense.CheckUser(eExUB::Escalate) ||
; 313  : 				g_ExLicense.CheckUser(eExUB::eternalmu) || g_ExLicense.CheckUser(eExUB::NSGames))

  012e3	6a 20		 push	 32			; 00000020H
  012e5	b9 00 00 00 00	 mov	 ecx, OFFSET ?g_ExLicense@@3VCExLicense@@A ; g_ExLicense
  012ea	e8 00 00 00 00	 call	 ?CheckUser@CExLicense@@QAE_NH@Z ; CExLicense::CheckUser
  012ef	0f b6 c0	 movzx	 eax, al
  012f2	85 c0		 test	 eax, eax
  012f4	0f 85 e1 00 00
	00		 jne	 $LN4@PlayerRewa
  012fa	6a 22		 push	 34			; 00000022H
  012fc	b9 00 00 00 00	 mov	 ecx, OFFSET ?g_ExLicense@@3VCExLicense@@A ; g_ExLicense
  01301	e8 00 00 00 00	 call	 ?CheckUser@CExLicense@@QAE_NH@Z ; CExLicense::CheckUser
  01306	0f b6 c0	 movzx	 eax, al
  01309	85 c0		 test	 eax, eax
  0130b	0f 85 ca 00 00
	00		 jne	 $LN4@PlayerRewa
  01311	6a 21		 push	 33			; 00000021H
  01313	b9 00 00 00 00	 mov	 ecx, OFFSET ?g_ExLicense@@3VCExLicense@@A ; g_ExLicense
  01318	e8 00 00 00 00	 call	 ?CheckUser@CExLicense@@QAE_NH@Z ; CExLicense::CheckUser
  0131d	0f b6 c0	 movzx	 eax, al
  01320	85 c0		 test	 eax, eax
  01322	0f 85 b3 00 00
	00		 jne	 $LN4@PlayerRewa
  01328	6a 3e		 push	 62			; 0000003eH
  0132a	b9 00 00 00 00	 mov	 ecx, OFFSET ?g_ExLicense@@3VCExLicense@@A ; g_ExLicense
  0132f	e8 00 00 00 00	 call	 ?CheckUser@CExLicense@@QAE_NH@Z ; CExLicense::CheckUser
  01334	0f b6 c0	 movzx	 eax, al
  01337	85 c0		 test	 eax, eax
  01339	0f 85 9c 00 00
	00		 jne	 $LN4@PlayerRewa
  0133f	6a 30		 push	 48			; 00000030H
  01341	b9 00 00 00 00	 mov	 ecx, OFFSET ?g_ExLicense@@3VCExLicense@@A ; g_ExLicense
  01346	e8 00 00 00 00	 call	 ?CheckUser@CExLicense@@QAE_NH@Z ; CExLicense::CheckUser
  0134b	0f b6 c0	 movzx	 eax, al
  0134e	85 c0		 test	 eax, eax
  01350	0f 85 85 00 00
	00		 jne	 $LN4@PlayerRewa
  01356	6a 31		 push	 49			; 00000031H
  01358	b9 00 00 00 00	 mov	 ecx, OFFSET ?g_ExLicense@@3VCExLicense@@A ; g_ExLicense
  0135d	e8 00 00 00 00	 call	 ?CheckUser@CExLicense@@QAE_NH@Z ; CExLicense::CheckUser
  01362	0f b6 c0	 movzx	 eax, al
  01365	85 c0		 test	 eax, eax
  01367	75 72		 jne	 SHORT $LN4@PlayerRewa
  01369	6a 43		 push	 67			; 00000043H
  0136b	b9 00 00 00 00	 mov	 ecx, OFFSET ?g_ExLicense@@3VCExLicense@@A ; g_ExLicense
  01370	e8 00 00 00 00	 call	 ?CheckUser@CExLicense@@QAE_NH@Z ; CExLicense::CheckUser
  01375	0f b6 c0	 movzx	 eax, al
  01378	85 c0		 test	 eax, eax
  0137a	75 5f		 jne	 SHORT $LN4@PlayerRewa
  0137c	6a 46		 push	 70			; 00000046H
  0137e	b9 00 00 00 00	 mov	 ecx, OFFSET ?g_ExLicense@@3VCExLicense@@A ; g_ExLicense
  01383	e8 00 00 00 00	 call	 ?CheckUser@CExLicense@@QAE_NH@Z ; CExLicense::CheckUser
  01388	0f b6 c0	 movzx	 eax, al
  0138b	85 c0		 test	 eax, eax
  0138d	75 4c		 jne	 SHORT $LN4@PlayerRewa
  0138f	6a 4e		 push	 78			; 0000004eH
  01391	b9 00 00 00 00	 mov	 ecx, OFFSET ?g_ExLicense@@3VCExLicense@@A ; g_ExLicense
  01396	e8 00 00 00 00	 call	 ?CheckUser@CExLicense@@QAE_NH@Z ; CExLicense::CheckUser
  0139b	0f b6 c0	 movzx	 eax, al
  0139e	85 c0		 test	 eax, eax
  013a0	75 39		 jne	 SHORT $LN4@PlayerRewa
  013a2	6a 40		 push	 64			; 00000040H
  013a4	b9 00 00 00 00	 mov	 ecx, OFFSET ?g_ExLicense@@3VCExLicense@@A ; g_ExLicense
  013a9	e8 00 00 00 00	 call	 ?CheckUser@CExLicense@@QAE_NH@Z ; CExLicense::CheckUser
  013ae	0f b6 c0	 movzx	 eax, al
  013b1	85 c0		 test	 eax, eax
  013b3	75 26		 jne	 SHORT $LN4@PlayerRewa
  013b5	6a 4f		 push	 79			; 0000004fH
  013b7	b9 00 00 00 00	 mov	 ecx, OFFSET ?g_ExLicense@@3VCExLicense@@A ; g_ExLicense
  013bc	e8 00 00 00 00	 call	 ?CheckUser@CExLicense@@QAE_NH@Z ; CExLicense::CheckUser
  013c1	0f b6 c0	 movzx	 eax, al
  013c4	85 c0		 test	 eax, eax
  013c6	75 13		 jne	 SHORT $LN4@PlayerRewa
  013c8	6a 51		 push	 81			; 00000051H
  013ca	b9 00 00 00 00	 mov	 ecx, OFFSET ?g_ExLicense@@3VCExLicense@@A ; g_ExLicense
  013cf	e8 00 00 00 00	 call	 ?CheckUser@CExLicense@@QAE_NH@Z ; CExLicense::CheckUser
  013d4	0f b6 c0	 movzx	 eax, al
  013d7	85 c0		 test	 eax, eax
  013d9	74 54		 je	 SHORT $LN5@PlayerRewa
$LN4@PlayerRewa:

; 314  : 			{
; 315  : 				lpUser->GameShop.WCoinC += ireward;

  013db	db 45 14	 fild	 DWORD PTR _ireward$[ebp]
  013de	8b 45 f4	 mov	 eax, DWORD PTR _lpUser$[ebp]
  013e1	dc 80 00 23 00
	00		 fadd	 QWORD PTR [eax+8960]
  013e7	8b 4d f4	 mov	 ecx, DWORD PTR _lpUser$[ebp]
  013ea	dd 99 00 23 00
	00		 fstp	 QWORD PTR [ecx+8960]

; 316  : 				gGameShop.GDSaveUserInfo(aIndex);

  013f0	8b 45 08	 mov	 eax, DWORD PTR _aIndex$[ebp]
  013f3	50		 push	 eax
  013f4	b9 00 00 00 00	 mov	 ecx, OFFSET ?gGameShop@@3VGameShop@@A ; gGameShop
  013f9	e8 00 00 00 00	 call	 ?GDSaveUserInfo@GameShop@@QAEXH@Z ; GameShop::GDSaveUserInfo

; 317  : 				sprintf(szReward, "[Achievements]: +%d WCoin", ireward);

  013fe	8b 45 14	 mov	 eax, DWORD PTR _ireward$[ebp]
  01401	50		 push	 eax
  01402	68 00 00 00 00	 push	 OFFSET ??_C@_0BK@IPFGILAF@?$FLAchievements?$FN?3?5?$CL?$CFd?5WCoin?$AA@
  01407	8d 4d b4	 lea	 ecx, DWORD PTR _szReward$229194[ebp]
  0140a	51		 push	 ecx
  0140b	e8 00 00 00 00	 call	 _sprintf
  01410	83 c4 0c	 add	 esp, 12			; 0000000cH

; 318  : 				MessageSendEx(aIndex, 6, "", szReward);

  01413	8d 45 b4	 lea	 eax, DWORD PTR _szReward$229194[ebp]
  01416	50		 push	 eax
  01417	68 00 00 00 00	 push	 OFFSET ??_C@_00CNPNBAHC@?$AA@
  0141c	6a 06		 push	 6
  0141e	8b 4d 08	 mov	 ecx, DWORD PTR _aIndex$[ebp]
  01421	51		 push	 ecx
  01422	e8 00 00 00 00	 call	 ?MessageSendEx@@YAXHHPAD0ZZ ; MessageSendEx
  01427	83 c4 10	 add	 esp, 16			; 00000010H
  0142a	e9 a5 00 00 00	 jmp	 $LN1@PlayerRewa
$LN5@PlayerRewa:

; 319  : 			}
; 320  : 			else if(g_ExLicense.CheckUser(eExUB::EpicMU))

  0142f	6a 3b		 push	 59			; 0000003bH
  01431	b9 00 00 00 00	 mov	 ecx, OFFSET ?g_ExLicense@@3VCExLicense@@A ; g_ExLicense
  01436	e8 00 00 00 00	 call	 ?CheckUser@CExLicense@@QAE_NH@Z ; CExLicense::CheckUser
  0143b	0f b6 c0	 movzx	 eax, al
  0143e	85 c0		 test	 eax, eax
  01440	74 51		 je	 SHORT $LN2@PlayerRewa

; 321  : 			{
; 322  : 				lpUser->GameShop.GoblinPoint += ireward;

  01442	db 45 14	 fild	 DWORD PTR _ireward$[ebp]
  01445	8b 45 f4	 mov	 eax, DWORD PTR _lpUser$[ebp]
  01448	dc 80 08 23 00
	00		 fadd	 QWORD PTR [eax+8968]
  0144e	8b 4d f4	 mov	 ecx, DWORD PTR _lpUser$[ebp]
  01451	dd 99 08 23 00
	00		 fstp	 QWORD PTR [ecx+8968]

; 323  : 				gGameShop.GDSaveUserInfo(aIndex);

  01457	8b 45 08	 mov	 eax, DWORD PTR _aIndex$[ebp]
  0145a	50		 push	 eax
  0145b	b9 00 00 00 00	 mov	 ecx, OFFSET ?gGameShop@@3VGameShop@@A ; gGameShop
  01460	e8 00 00 00 00	 call	 ?GDSaveUserInfo@GameShop@@QAEXH@Z ; GameShop::GDSaveUserInfo

; 324  : 				sprintf(szReward, "[Achievements]: +%d Goblin", ireward);

  01465	8b 45 14	 mov	 eax, DWORD PTR _ireward$[ebp]
  01468	50		 push	 eax
  01469	68 00 00 00 00	 push	 OFFSET ??_C@_0BL@FGCKJPKI@?$FLAchievements?$FN?3?5?$CL?$CFd?5Goblin?$AA@
  0146e	8d 4d b4	 lea	 ecx, DWORD PTR _szReward$229194[ebp]
  01471	51		 push	 ecx
  01472	e8 00 00 00 00	 call	 _sprintf
  01477	83 c4 0c	 add	 esp, 12			; 0000000cH

; 325  : 				MessageSendEx(aIndex, 6, "", szReward);

  0147a	8d 45 b4	 lea	 eax, DWORD PTR _szReward$229194[ebp]
  0147d	50		 push	 eax
  0147e	68 00 00 00 00	 push	 OFFSET ??_C@_00CNPNBAHC@?$AA@
  01483	6a 06		 push	 6
  01485	8b 4d 08	 mov	 ecx, DWORD PTR _aIndex$[ebp]
  01488	51		 push	 ecx
  01489	e8 00 00 00 00	 call	 ?MessageSendEx@@YAXHHPAD0ZZ ; MessageSendEx
  0148e	83 c4 10	 add	 esp, 16			; 00000010H

; 326  : 			}
; 327  : 			else

  01491	eb 41		 jmp	 SHORT $LN1@PlayerRewa
$LN2@PlayerRewa:

; 328  : 			{
; 329  : 				lpUser->ExCred += ireward;

  01493	db 45 14	 fild	 DWORD PTR _ireward$[ebp]
  01496	8b 45 f4	 mov	 eax, DWORD PTR _lpUser$[ebp]
  01499	d8 80 a8 22 00
	00		 fadd	 DWORD PTR [eax+8872]
  0149f	8b 4d f4	 mov	 ecx, DWORD PTR _lpUser$[ebp]
  014a2	d9 99 a8 22 00
	00		 fstp	 DWORD PTR [ecx+8872]

; 330  : 				sprintf(szReward, "[Achievements]: +%d Credits", ireward);

  014a8	8b 45 14	 mov	 eax, DWORD PTR _ireward$[ebp]
  014ab	50		 push	 eax
  014ac	68 00 00 00 00	 push	 OFFSET ??_C@_0BM@GCMOIFFL@?$FLAchievements?$FN?3?5?$CL?$CFd?5Credits?$AA@
  014b1	8d 4d b4	 lea	 ecx, DWORD PTR _szReward$229194[ebp]
  014b4	51		 push	 ecx
  014b5	e8 00 00 00 00	 call	 _sprintf
  014ba	83 c4 0c	 add	 esp, 12			; 0000000cH

; 331  : 				MessageSendEx(aIndex, 6, "", szReward);

  014bd	8d 45 b4	 lea	 eax, DWORD PTR _szReward$229194[ebp]
  014c0	50		 push	 eax
  014c1	68 00 00 00 00	 push	 OFFSET ??_C@_00CNPNBAHC@?$AA@
  014c6	6a 06		 push	 6
  014c8	8b 4d 08	 mov	 ecx, DWORD PTR _aIndex$[ebp]
  014cb	51		 push	 ecx
  014cc	e8 00 00 00 00	 call	 ?MessageSendEx@@YAXHHPAD0ZZ ; MessageSendEx
  014d1	83 c4 10	 add	 esp, 16			; 00000010H
$LN1@PlayerRewa:

; 332  : 			}
; 333  : 
; 334  : 			ExUserDataSend(aIndex);

  014d4	8b 45 08	 mov	 eax, DWORD PTR _aIndex$[ebp]
  014d7	50		 push	 eax
  014d8	e8 00 00 00 00	 call	 ?ExUserDataSend@@YAXH@Z	; ExUserDataSend
  014dd	83 c4 04	 add	 esp, 4
$LN6@PlayerRewa:
$LN9@PlayerRewa:

; 335  : 		}
; 336  : #endif
; 337  : 	}
; 338  : }

  014e0	5f		 pop	 edi
  014e1	5e		 pop	 esi
  014e2	5b		 pop	 ebx
  014e3	8b 4d fc	 mov	 ecx, DWORD PTR __$ArrayPad$[ebp]
  014e6	33 cd		 xor	 ecx, ebp
  014e8	e8 00 00 00 00	 call	 @__security_check_cookie@4
  014ed	8b e5		 mov	 esp, ebp
  014ef	5d		 pop	 ebp
  014f0	c2 10 00	 ret	 16			; 00000010H
?PlayerReward@CAchievements@@QAEXHHHH@Z ENDP		; CAchievements::PlayerReward
_TEXT	ENDS
PUBLIC	?MonsterKill@CAchievements@@QAEXHH@Z		; CAchievements::MonsterKill
EXTRN	?gObjIsConnected@@YAHH@Z:PROC			; gObjIsConnected
; Function compile flags: /Odtp /ZI
_TEXT	SEGMENT
tv237 = -84						; size = 4
tv238 = -80						; size = 4
_lpMonster$ = -12					; size = 4
_lpUser$ = -8						; size = 4
_this$ = -4						; size = 4
_aIndex$ = 8						; size = 4
_aMonsterIndex$ = 12					; size = 4
?MonsterKill@CAchievements@@QAEXHH@Z PROC		; CAchievements::MonsterKill
; _this$ = ecx

; 341  : {

  01500	55		 push	 ebp
  01501	8b ec		 mov	 ebp, esp
  01503	83 ec 54	 sub	 esp, 84			; 00000054H
  01506	53		 push	 ebx
  01507	56		 push	 esi
  01508	57		 push	 edi
  01509	89 4d fc	 mov	 DWORD PTR _this$[ebp], ecx

; 342  : 	if(!this->bEnable)

  0150c	8b 45 fc	 mov	 eax, DWORD PTR _this$[ebp]
  0150f	0f b6 48 14	 movzx	 ecx, BYTE PTR [eax+20]
  01513	85 c9		 test	 ecx, ecx
  01515	75 05		 jne	 SHORT $LN48@MonsterKil

; 343  : 	{
; 344  : 		return;

  01517	e9 29 0a 00 00	 jmp	 $LN49@MonsterKil
$LN48@MonsterKil:

; 345  : 	}
; 346  : 
; 347  : 	if(!gObjIsConnected(aIndex) || !gObjIsConnected(aMonsterIndex))

  0151c	8b 45 08	 mov	 eax, DWORD PTR _aIndex$[ebp]
  0151f	50		 push	 eax
  01520	e8 00 00 00 00	 call	 ?gObjIsConnected@@YAHH@Z ; gObjIsConnected
  01525	83 c4 04	 add	 esp, 4
  01528	85 c0		 test	 eax, eax
  0152a	74 10		 je	 SHORT $LN46@MonsterKil
  0152c	8b 45 0c	 mov	 eax, DWORD PTR _aMonsterIndex$[ebp]
  0152f	50		 push	 eax
  01530	e8 00 00 00 00	 call	 ?gObjIsConnected@@YAHH@Z ; gObjIsConnected
  01535	83 c4 04	 add	 esp, 4
  01538	85 c0		 test	 eax, eax
  0153a	75 05		 jne	 SHORT $LN47@MonsterKil
$LN46@MonsterKil:

; 348  : 	{
; 349  : 		return;

  0153c	e9 04 0a 00 00	 jmp	 $LN49@MonsterKil
$LN47@MonsterKil:

; 350  : 	}
; 351  : 
; 352  : 	LPOBJ lpUser = &gObj[aIndex];

  01541	8b 45 08	 mov	 eax, DWORD PTR _aIndex$[ebp]
  01544	69 c0 38 2b 00
	00		 imul	 eax, 11064		; 00002b38H
  0154a	03 05 00 00 00
	00		 add	 eax, DWORD PTR ?gObj@@3PAUOBJECTSTRUCT@@A ; gObj
  01550	89 45 f8	 mov	 DWORD PTR _lpUser$[ebp], eax

; 353  : 	LPOBJ lpMonster = &gObj[aMonsterIndex];

  01553	8b 45 0c	 mov	 eax, DWORD PTR _aMonsterIndex$[ebp]
  01556	69 c0 38 2b 00
	00		 imul	 eax, 11064		; 00002b38H
  0155c	03 05 00 00 00
	00		 add	 eax, DWORD PTR ?gObj@@3PAUOBJECTSTRUCT@@A ; gObj
  01562	89 45 f4	 mov	 DWORD PTR _lpMonster$[ebp], eax

; 354  : 
; 355  : 	if(!lpUser->ach.bLoaded)

  01565	8b 45 f8	 mov	 eax, DWORD PTR _lpUser$[ebp]
  01568	0f b6 88 20 29
	00 00		 movzx	 ecx, BYTE PTR [eax+10528]
  0156f	85 c9		 test	 ecx, ecx
  01571	75 05		 jne	 SHORT $LN45@MonsterKil

; 356  : 	{
; 357  : 		return;

  01573	e9 cd 09 00 00	 jmp	 $LN49@MonsterKil
$LN45@MonsterKil:

; 358  : 	}
; 359  : 
; 360  : 	//i1_MonsterKill
; 361  : 	if(this->m_config.i1_MonsterKill > lpUser->ach.mission.i1_MonsterKill)

  01578	8b 45 fc	 mov	 eax, DWORD PTR _this$[ebp]
  0157b	8b 4d f8	 mov	 ecx, DWORD PTR _lpUser$[ebp]
  0157e	8b 50 18	 mov	 edx, DWORD PTR [eax+24]
  01581	3b 91 30 29 00
	00		 cmp	 edx, DWORD PTR [ecx+10544]
  01587	76 3c		 jbe	 SHORT $LN44@MonsterKil

; 362  : 	{
; 363  : 		lpUser->ach.mission.i1_MonsterKill++;

  01589	8b 45 f8	 mov	 eax, DWORD PTR _lpUser$[ebp]
  0158c	8b 88 30 29 00
	00		 mov	 ecx, DWORD PTR [eax+10544]
  01592	83 c1 01	 add	 ecx, 1
  01595	8b 55 f8	 mov	 edx, DWORD PTR _lpUser$[ebp]
  01598	89 8a 30 29 00
	00		 mov	 DWORD PTR [edx+10544], ecx

; 364  : 		this->PlayerReward(aIndex, this->m_config.i1_MonsterKill, lpUser->ach.mission.i1_MonsterKill, this->m_reward.i1_MonsterKill);

  0159e	8b 45 fc	 mov	 eax, DWORD PTR _this$[ebp]
  015a1	8b 88 e0 00 00
	00		 mov	 ecx, DWORD PTR [eax+224]
  015a7	51		 push	 ecx
  015a8	8b 55 f8	 mov	 edx, DWORD PTR _lpUser$[ebp]
  015ab	8b 82 30 29 00
	00		 mov	 eax, DWORD PTR [edx+10544]
  015b1	50		 push	 eax
  015b2	8b 4d fc	 mov	 ecx, DWORD PTR _this$[ebp]
  015b5	8b 51 18	 mov	 edx, DWORD PTR [ecx+24]
  015b8	52		 push	 edx
  015b9	8b 45 08	 mov	 eax, DWORD PTR _aIndex$[ebp]
  015bc	50		 push	 eax
  015bd	8b 4d fc	 mov	 ecx, DWORD PTR _this$[ebp]
  015c0	e8 00 00 00 00	 call	 ?PlayerReward@CAchievements@@QAEXHHHH@Z ; CAchievements::PlayerReward
$LN44@MonsterKil:

; 365  : 
; 366  : 	}
; 367  : 	//i2_GoldenKill
; 368  : 	if(this->m_config.i2_GoldenKill > lpUser->ach.mission.i2_GoldenKill)

  015c5	8b 45 fc	 mov	 eax, DWORD PTR _this$[ebp]
  015c8	8b 4d f8	 mov	 ecx, DWORD PTR _lpUser$[ebp]
  015cb	8b 50 1c	 mov	 edx, DWORD PTR [eax+28]
  015ce	3b 91 34 29 00
	00		 cmp	 edx, DWORD PTR [ecx+10548]
  015d4	0f 86 b6 01 00
	00		 jbe	 $LN43@MonsterKil

; 369  : 	{
; 370  : 		if( lpMonster->Class == 78  || lpMonster->Class == 53  || lpMonster->Class == 79  || lpMonster->Class == 80  || lpMonster->Class == 82  || 
; 371  : 			lpMonster->Class == 502 || lpMonster->Class == 493 || lpMonster->Class == 494 || lpMonster->Class == 495 || lpMonster->Class == 496 || 
; 372  : 			lpMonster->Class == 497 || lpMonster->Class == 498 || lpMonster->Class == 499 || lpMonster->Class == 500 || lpMonster->Class == 501 ||
; 373  : 			lpMonster->Class == 42  ||	//??
; 374  : 			lpMonster->Class == 43	||	//GoldenBudgeDragon
; 375  : 			lpMonster->Class == 44	||	//Dragon
; 376  : 			lpMonster->Class == 54	||	//GoldenBudgeDragon
; 377  : 			lpMonster->Class == 81		//GoldenVepar
; 378  : 			)	

  015da	8b 45 f4	 mov	 eax, DWORD PTR _lpMonster$[ebp]
  015dd	0f b7 88 b8 00
	00 00		 movzx	 ecx, WORD PTR [eax+184]
  015e4	83 f9 4e	 cmp	 ecx, 78			; 0000004eH
  015e7	0f 84 67 01 00
	00		 je	 $LN41@MonsterKil
  015ed	8b 45 f4	 mov	 eax, DWORD PTR _lpMonster$[ebp]
  015f0	0f b7 88 b8 00
	00 00		 movzx	 ecx, WORD PTR [eax+184]
  015f7	83 f9 35	 cmp	 ecx, 53			; 00000035H
  015fa	0f 84 54 01 00
	00		 je	 $LN41@MonsterKil
  01600	8b 45 f4	 mov	 eax, DWORD PTR _lpMonster$[ebp]
  01603	0f b7 88 b8 00
	00 00		 movzx	 ecx, WORD PTR [eax+184]
  0160a	83 f9 4f	 cmp	 ecx, 79			; 0000004fH
  0160d	0f 84 41 01 00
	00		 je	 $LN41@MonsterKil
  01613	8b 45 f4	 mov	 eax, DWORD PTR _lpMonster$[ebp]
  01616	0f b7 88 b8 00
	00 00		 movzx	 ecx, WORD PTR [eax+184]
  0161d	83 f9 50	 cmp	 ecx, 80			; 00000050H
  01620	0f 84 2e 01 00
	00		 je	 $LN41@MonsterKil
  01626	8b 45 f4	 mov	 eax, DWORD PTR _lpMonster$[ebp]
  01629	0f b7 88 b8 00
	00 00		 movzx	 ecx, WORD PTR [eax+184]
  01630	83 f9 52	 cmp	 ecx, 82			; 00000052H
  01633	0f 84 1b 01 00
	00		 je	 $LN41@MonsterKil
  01639	8b 45 f4	 mov	 eax, DWORD PTR _lpMonster$[ebp]
  0163c	0f b7 88 b8 00
	00 00		 movzx	 ecx, WORD PTR [eax+184]
  01643	81 f9 f6 01 00
	00		 cmp	 ecx, 502		; 000001f6H
  01649	0f 84 05 01 00
	00		 je	 $LN41@MonsterKil
  0164f	8b 45 f4	 mov	 eax, DWORD PTR _lpMonster$[ebp]
  01652	0f b7 88 b8 00
	00 00		 movzx	 ecx, WORD PTR [eax+184]
  01659	81 f9 ed 01 00
	00		 cmp	 ecx, 493		; 000001edH
  0165f	0f 84 ef 00 00
	00		 je	 $LN41@MonsterKil
  01665	8b 45 f4	 mov	 eax, DWORD PTR _lpMonster$[ebp]
  01668	0f b7 88 b8 00
	00 00		 movzx	 ecx, WORD PTR [eax+184]
  0166f	81 f9 ee 01 00
	00		 cmp	 ecx, 494		; 000001eeH
  01675	0f 84 d9 00 00
	00		 je	 $LN41@MonsterKil
  0167b	8b 45 f4	 mov	 eax, DWORD PTR _lpMonster$[ebp]
  0167e	0f b7 88 b8 00
	00 00		 movzx	 ecx, WORD PTR [eax+184]
  01685	81 f9 ef 01 00
	00		 cmp	 ecx, 495		; 000001efH
  0168b	0f 84 c3 00 00
	00		 je	 $LN41@MonsterKil
  01691	8b 45 f4	 mov	 eax, DWORD PTR _lpMonster$[ebp]
  01694	0f b7 88 b8 00
	00 00		 movzx	 ecx, WORD PTR [eax+184]
  0169b	81 f9 f0 01 00
	00		 cmp	 ecx, 496		; 000001f0H
  016a1	0f 84 ad 00 00
	00		 je	 $LN41@MonsterKil
  016a7	8b 45 f4	 mov	 eax, DWORD PTR _lpMonster$[ebp]
  016aa	0f b7 88 b8 00
	00 00		 movzx	 ecx, WORD PTR [eax+184]
  016b1	81 f9 f1 01 00
	00		 cmp	 ecx, 497		; 000001f1H
  016b7	0f 84 97 00 00
	00		 je	 $LN41@MonsterKil
  016bd	8b 45 f4	 mov	 eax, DWORD PTR _lpMonster$[ebp]
  016c0	0f b7 88 b8 00
	00 00		 movzx	 ecx, WORD PTR [eax+184]
  016c7	81 f9 f2 01 00
	00		 cmp	 ecx, 498		; 000001f2H
  016cd	0f 84 81 00 00
	00		 je	 $LN41@MonsterKil
  016d3	8b 45 f4	 mov	 eax, DWORD PTR _lpMonster$[ebp]
  016d6	0f b7 88 b8 00
	00 00		 movzx	 ecx, WORD PTR [eax+184]
  016dd	81 f9 f3 01 00
	00		 cmp	 ecx, 499		; 000001f3H
  016e3	74 6f		 je	 SHORT $LN41@MonsterKil
  016e5	8b 45 f4	 mov	 eax, DWORD PTR _lpMonster$[ebp]
  016e8	0f b7 88 b8 00
	00 00		 movzx	 ecx, WORD PTR [eax+184]
  016ef	81 f9 f4 01 00
	00		 cmp	 ecx, 500		; 000001f4H
  016f5	74 5d		 je	 SHORT $LN41@MonsterKil
  016f7	8b 45 f4	 mov	 eax, DWORD PTR _lpMonster$[ebp]
  016fa	0f b7 88 b8 00
	00 00		 movzx	 ecx, WORD PTR [eax+184]
  01701	81 f9 f5 01 00
	00		 cmp	 ecx, 501		; 000001f5H
  01707	74 4b		 je	 SHORT $LN41@MonsterKil
  01709	8b 45 f4	 mov	 eax, DWORD PTR _lpMonster$[ebp]
  0170c	0f b7 88 b8 00
	00 00		 movzx	 ecx, WORD PTR [eax+184]
  01713	83 f9 2a	 cmp	 ecx, 42			; 0000002aH
  01716	74 3c		 je	 SHORT $LN41@MonsterKil
  01718	8b 45 f4	 mov	 eax, DWORD PTR _lpMonster$[ebp]
  0171b	0f b7 88 b8 00
	00 00		 movzx	 ecx, WORD PTR [eax+184]
  01722	83 f9 2b	 cmp	 ecx, 43			; 0000002bH
  01725	74 2d		 je	 SHORT $LN41@MonsterKil
  01727	8b 45 f4	 mov	 eax, DWORD PTR _lpMonster$[ebp]
  0172a	0f b7 88 b8 00
	00 00		 movzx	 ecx, WORD PTR [eax+184]
  01731	83 f9 2c	 cmp	 ecx, 44			; 0000002cH
  01734	74 1e		 je	 SHORT $LN41@MonsterKil
  01736	8b 45 f4	 mov	 eax, DWORD PTR _lpMonster$[ebp]
  01739	0f b7 88 b8 00
	00 00		 movzx	 ecx, WORD PTR [eax+184]
  01740	83 f9 36	 cmp	 ecx, 54			; 00000036H
  01743	74 0f		 je	 SHORT $LN41@MonsterKil
  01745	8b 45 f4	 mov	 eax, DWORD PTR _lpMonster$[ebp]
  01748	0f b7 88 b8 00
	00 00		 movzx	 ecx, WORD PTR [eax+184]
  0174f	83 f9 51	 cmp	 ecx, 81			; 00000051H
  01752	75 3c		 jne	 SHORT $LN43@MonsterKil
$LN41@MonsterKil:

; 379  : 		{
; 380  : 			lpUser->ach.mission.i2_GoldenKill++;

  01754	8b 45 f8	 mov	 eax, DWORD PTR _lpUser$[ebp]
  01757	8b 88 34 29 00
	00		 mov	 ecx, DWORD PTR [eax+10548]
  0175d	83 c1 01	 add	 ecx, 1
  01760	8b 55 f8	 mov	 edx, DWORD PTR _lpUser$[ebp]
  01763	89 8a 34 29 00
	00		 mov	 DWORD PTR [edx+10548], ecx

; 381  : 			this->PlayerReward(aIndex, this->m_config.i2_GoldenKill, lpUser->ach.mission.i2_GoldenKill, this->m_reward.i2_GoldenKill);

  01769	8b 45 fc	 mov	 eax, DWORD PTR _this$[ebp]
  0176c	8b 88 e4 00 00
	00		 mov	 ecx, DWORD PTR [eax+228]
  01772	51		 push	 ecx
  01773	8b 55 f8	 mov	 edx, DWORD PTR _lpUser$[ebp]
  01776	8b 82 34 29 00
	00		 mov	 eax, DWORD PTR [edx+10548]
  0177c	50		 push	 eax
  0177d	8b 4d fc	 mov	 ecx, DWORD PTR _this$[ebp]
  01780	8b 51 1c	 mov	 edx, DWORD PTR [ecx+28]
  01783	52		 push	 edx
  01784	8b 45 08	 mov	 eax, DWORD PTR _aIndex$[ebp]
  01787	50		 push	 eax
  01788	8b 4d fc	 mov	 ecx, DWORD PTR _this$[ebp]
  0178b	e8 00 00 00 00	 call	 ?PlayerReward@CAchievements@@QAEXHHHH@Z ; CAchievements::PlayerReward
$LN43@MonsterKil:

; 382  : 		}
; 383  : 	}
; 384  : 	//i3_KalimaMonserKill
; 385  : 	if(this->m_config.i3_KalimaMonserKill > lpUser->ach.mission.i3_KalimaMonserKill)

  01790	8b 45 fc	 mov	 eax, DWORD PTR _this$[ebp]
  01793	8b 4d f8	 mov	 ecx, DWORD PTR _lpUser$[ebp]
  01796	8b 50 20	 mov	 edx, DWORD PTR [eax+32]
  01799	3b 91 38 29 00
	00		 cmp	 edx, DWORD PTR [ecx+10552]
  0179f	0f 86 8d 00 00
	00		 jbe	 $LN40@MonsterKil

; 386  : 	{
; 387  : 		if(KALIMA_MAP_RANGE(lpUser->MapNumber))

  017a5	8b 45 f8	 mov	 eax, DWORD PTR _lpUser$[ebp]
  017a8	0f b6 88 49 01
	00 00		 movzx	 ecx, BYTE PTR [eax+329]
  017af	83 f9 18	 cmp	 ecx, 24			; 00000018H
  017b2	7d 09		 jge	 SHORT $LN53@MonsterKil
  017b4	c7 45 b0 00 00
	00 00		 mov	 DWORD PTR tv238[ebp], 0
  017bb	eb 33		 jmp	 SHORT $LN54@MonsterKil
$LN53@MonsterKil:
  017bd	8b 55 f8	 mov	 edx, DWORD PTR _lpUser$[ebp]
  017c0	0f b6 82 49 01
	00 00		 movzx	 eax, BYTE PTR [edx+329]
  017c7	83 f8 1d	 cmp	 eax, 29			; 0000001dH
  017ca	7e 17		 jle	 SHORT $LN51@MonsterKil
  017cc	8b 4d f8	 mov	 ecx, DWORD PTR _lpUser$[ebp]
  017cf	0f b6 91 49 01
	00 00		 movzx	 edx, BYTE PTR [ecx+329]
  017d6	33 c0		 xor	 eax, eax
  017d8	83 fa 24	 cmp	 edx, 36			; 00000024H
  017db	0f 94 c0	 sete	 al
  017de	89 45 ac	 mov	 DWORD PTR tv237[ebp], eax
  017e1	eb 07		 jmp	 SHORT $LN52@MonsterKil
$LN51@MonsterKil:
  017e3	c7 45 ac 01 00
	00 00		 mov	 DWORD PTR tv237[ebp], 1
$LN52@MonsterKil:
  017ea	8b 4d ac	 mov	 ecx, DWORD PTR tv237[ebp]
  017ed	89 4d b0	 mov	 DWORD PTR tv238[ebp], ecx
$LN54@MonsterKil:
  017f0	83 7d b0 00	 cmp	 DWORD PTR tv238[ebp], 0
  017f4	74 3c		 je	 SHORT $LN40@MonsterKil

; 388  : 		{
; 389  : 			lpUser->ach.mission.i3_KalimaMonserKill++;

  017f6	8b 45 f8	 mov	 eax, DWORD PTR _lpUser$[ebp]
  017f9	8b 88 38 29 00
	00		 mov	 ecx, DWORD PTR [eax+10552]
  017ff	83 c1 01	 add	 ecx, 1
  01802	8b 55 f8	 mov	 edx, DWORD PTR _lpUser$[ebp]
  01805	89 8a 38 29 00
	00		 mov	 DWORD PTR [edx+10552], ecx

; 390  : 			this->PlayerReward(aIndex, this->m_config.i3_KalimaMonserKill, lpUser->ach.mission.i3_KalimaMonserKill, this->m_reward.i3_KalimaMonserKill);

  0180b	8b 45 fc	 mov	 eax, DWORD PTR _this$[ebp]
  0180e	8b 88 e8 00 00
	00		 mov	 ecx, DWORD PTR [eax+232]
  01814	51		 push	 ecx
  01815	8b 55 f8	 mov	 edx, DWORD PTR _lpUser$[ebp]
  01818	8b 82 38 29 00
	00		 mov	 eax, DWORD PTR [edx+10552]
  0181e	50		 push	 eax
  0181f	8b 4d fc	 mov	 ecx, DWORD PTR _this$[ebp]
  01822	8b 51 20	 mov	 edx, DWORD PTR [ecx+32]
  01825	52		 push	 edx
  01826	8b 45 08	 mov	 eax, DWORD PTR _aIndex$[ebp]
  01829	50		 push	 eax
  0182a	8b 4d fc	 mov	 ecx, DWORD PTR _this$[ebp]
  0182d	e8 00 00 00 00	 call	 ?PlayerReward@CAchievements@@QAEXHHHH@Z ; CAchievements::PlayerReward
$LN40@MonsterKil:

; 391  : 		}
; 392  : 	}
; 393  : 	//i4_WhiteWizardKill
; 394  : 	if(this->m_config.i4_WhiteWizardKill > lpUser->ach.mission.i4_WhiteWizardKill)

  01832	8b 45 fc	 mov	 eax, DWORD PTR _this$[ebp]
  01835	8b 4d f8	 mov	 ecx, DWORD PTR _lpUser$[ebp]
  01838	8b 50 24	 mov	 edx, DWORD PTR [eax+36]
  0183b	3b 91 3c 29 00
	00		 cmp	 edx, DWORD PTR [ecx+10556]
  01841	76 4e		 jbe	 SHORT $LN38@MonsterKil

; 395  : 	{
; 396  : 		if(lpMonster->Class == 135)

  01843	8b 45 f4	 mov	 eax, DWORD PTR _lpMonster$[ebp]
  01846	0f b7 88 b8 00
	00 00		 movzx	 ecx, WORD PTR [eax+184]
  0184d	81 f9 87 00 00
	00		 cmp	 ecx, 135		; 00000087H
  01853	75 3c		 jne	 SHORT $LN38@MonsterKil

; 397  : 		{
; 398  : 			lpUser->ach.mission.i4_WhiteWizardKill++;

  01855	8b 45 f8	 mov	 eax, DWORD PTR _lpUser$[ebp]
  01858	8b 88 3c 29 00
	00		 mov	 ecx, DWORD PTR [eax+10556]
  0185e	83 c1 01	 add	 ecx, 1
  01861	8b 55 f8	 mov	 edx, DWORD PTR _lpUser$[ebp]
  01864	89 8a 3c 29 00
	00		 mov	 DWORD PTR [edx+10556], ecx

; 399  : 			this->PlayerReward(aIndex, this->m_config.i4_WhiteWizardKill, lpUser->ach.mission.i4_WhiteWizardKill, this->m_reward.i4_WhiteWizardKill);

  0186a	8b 45 fc	 mov	 eax, DWORD PTR _this$[ebp]
  0186d	8b 88 ec 00 00
	00		 mov	 ecx, DWORD PTR [eax+236]
  01873	51		 push	 ecx
  01874	8b 55 f8	 mov	 edx, DWORD PTR _lpUser$[ebp]
  01877	8b 82 3c 29 00
	00		 mov	 eax, DWORD PTR [edx+10556]
  0187d	50		 push	 eax
  0187e	8b 4d fc	 mov	 ecx, DWORD PTR _this$[ebp]
  01881	8b 51 24	 mov	 edx, DWORD PTR [ecx+36]
  01884	52		 push	 edx
  01885	8b 45 08	 mov	 eax, DWORD PTR _aIndex$[ebp]
  01888	50		 push	 eax
  01889	8b 4d fc	 mov	 ecx, DWORD PTR _this$[ebp]
  0188c	e8 00 00 00 00	 call	 ?PlayerReward@CAchievements@@QAEXHHHH@Z ; CAchievements::PlayerReward
$LN38@MonsterKil:

; 400  : 		}
; 401  : 	}
; 402  : 	//i6_RedDragonKill
; 403  : 	if(this->m_config.i6_RedDragonKill > lpUser->ach.mission.i6_RedDragonKill)

  01891	8b 45 fc	 mov	 eax, DWORD PTR _this$[ebp]
  01894	8b 4d f8	 mov	 ecx, DWORD PTR _lpUser$[ebp]
  01897	8b 50 2c	 mov	 edx, DWORD PTR [eax+44]
  0189a	3b 91 44 29 00
	00		 cmp	 edx, DWORD PTR [ecx+10564]
  018a0	76 4b		 jbe	 SHORT $LN36@MonsterKil

; 404  : 	{
; 405  : 		if(lpMonster->Class == 42)

  018a2	8b 45 f4	 mov	 eax, DWORD PTR _lpMonster$[ebp]
  018a5	0f b7 88 b8 00
	00 00		 movzx	 ecx, WORD PTR [eax+184]
  018ac	83 f9 2a	 cmp	 ecx, 42			; 0000002aH
  018af	75 3c		 jne	 SHORT $LN36@MonsterKil

; 406  : 		{
; 407  : 			lpUser->ach.mission.i6_RedDragonKill++;

  018b1	8b 45 f8	 mov	 eax, DWORD PTR _lpUser$[ebp]
  018b4	8b 88 44 29 00
	00		 mov	 ecx, DWORD PTR [eax+10564]
  018ba	83 c1 01	 add	 ecx, 1
  018bd	8b 55 f8	 mov	 edx, DWORD PTR _lpUser$[ebp]
  018c0	89 8a 44 29 00
	00		 mov	 DWORD PTR [edx+10564], ecx

; 408  : 			this->PlayerReward(aIndex, this->m_config.i6_RedDragonKill, lpUser->ach.mission.i6_RedDragonKill, this->m_reward.i6_RedDragonKill);

  018c6	8b 45 fc	 mov	 eax, DWORD PTR _this$[ebp]
  018c9	8b 88 f4 00 00
	00		 mov	 ecx, DWORD PTR [eax+244]
  018cf	51		 push	 ecx
  018d0	8b 55 f8	 mov	 edx, DWORD PTR _lpUser$[ebp]
  018d3	8b 82 44 29 00
	00		 mov	 eax, DWORD PTR [edx+10564]
  018d9	50		 push	 eax
  018da	8b 4d fc	 mov	 ecx, DWORD PTR _this$[ebp]
  018dd	8b 51 2c	 mov	 edx, DWORD PTR [ecx+44]
  018e0	52		 push	 edx
  018e1	8b 45 08	 mov	 eax, DWORD PTR _aIndex$[ebp]
  018e4	50		 push	 eax
  018e5	8b 4d fc	 mov	 ecx, DWORD PTR _this$[ebp]
  018e8	e8 00 00 00 00	 call	 ?PlayerReward@CAchievements@@QAEXHHHH@Z ; CAchievements::PlayerReward
$LN36@MonsterKil:

; 409  : 		}
; 410  : 	}
; 411  : 	//i7_OrcKill
; 412  : 	if(this->m_config.i7_OrcKill > lpUser->ach.mission.i7_OrcKill)

  018ed	8b 45 fc	 mov	 eax, DWORD PTR _this$[ebp]
  018f0	8b 4d f8	 mov	 ecx, DWORD PTR _lpUser$[ebp]
  018f3	8b 50 30	 mov	 edx, DWORD PTR [eax+48]
  018f6	3b 91 48 29 00
	00		 cmp	 edx, DWORD PTR [ecx+10568]
  018fc	76 60		 jbe	 SHORT $LN34@MonsterKil

; 413  : 	{
; 414  : 		if(lpMonster->Class == 136 || lpMonster->Class == 137)

  018fe	8b 45 f4	 mov	 eax, DWORD PTR _lpMonster$[ebp]
  01901	0f b7 88 b8 00
	00 00		 movzx	 ecx, WORD PTR [eax+184]
  01908	81 f9 88 00 00
	00		 cmp	 ecx, 136		; 00000088H
  0190e	74 12		 je	 SHORT $LN32@MonsterKil
  01910	8b 45 f4	 mov	 eax, DWORD PTR _lpMonster$[ebp]
  01913	0f b7 88 b8 00
	00 00		 movzx	 ecx, WORD PTR [eax+184]
  0191a	81 f9 89 00 00
	00		 cmp	 ecx, 137		; 00000089H
  01920	75 3c		 jne	 SHORT $LN34@MonsterKil
$LN32@MonsterKil:

; 415  : 		{
; 416  : 			lpUser->ach.mission.i7_OrcKill++;

  01922	8b 45 f8	 mov	 eax, DWORD PTR _lpUser$[ebp]
  01925	8b 88 48 29 00
	00		 mov	 ecx, DWORD PTR [eax+10568]
  0192b	83 c1 01	 add	 ecx, 1
  0192e	8b 55 f8	 mov	 edx, DWORD PTR _lpUser$[ebp]
  01931	89 8a 48 29 00
	00		 mov	 DWORD PTR [edx+10568], ecx

; 417  : 			this->PlayerReward(aIndex, this->m_config.i7_OrcKill, lpUser->ach.mission.i7_OrcKill, this->m_reward.i7_OrcKill);

  01937	8b 45 fc	 mov	 eax, DWORD PTR _this$[ebp]
  0193a	8b 88 f8 00 00
	00		 mov	 ecx, DWORD PTR [eax+248]
  01940	51		 push	 ecx
  01941	8b 55 f8	 mov	 edx, DWORD PTR _lpUser$[ebp]
  01944	8b 82 48 29 00
	00		 mov	 eax, DWORD PTR [edx+10568]
  0194a	50		 push	 eax
  0194b	8b 4d fc	 mov	 ecx, DWORD PTR _this$[ebp]
  0194e	8b 51 30	 mov	 edx, DWORD PTR [ecx+48]
  01951	52		 push	 edx
  01952	8b 45 08	 mov	 eax, DWORD PTR _aIndex$[ebp]
  01955	50		 push	 eax
  01956	8b 4d fc	 mov	 ecx, DWORD PTR _this$[ebp]
  01959	e8 00 00 00 00	 call	 ?PlayerReward@CAchievements@@QAEXHHHH@Z ; CAchievements::PlayerReward
$LN34@MonsterKil:

; 418  : 		}
; 419  : 	}
; 420  : 	//i8_KillGateBC
; 421  : 	if(this->m_config.i8_KillGateBC > lpUser->ach.mission.i8_KillGateBC)

  0195e	8b 45 fc	 mov	 eax, DWORD PTR _this$[ebp]
  01961	8b 4d f8	 mov	 ecx, DWORD PTR _lpUser$[ebp]
  01964	8b 50 34	 mov	 edx, DWORD PTR [eax+52]
  01967	3b 91 4c 29 00
	00		 cmp	 edx, DWORD PTR [ecx+10572]
  0196d	76 4e		 jbe	 SHORT $LN31@MonsterKil

; 422  : 	{
; 423  : 		if(lpMonster->Class == 131)

  0196f	8b 45 f4	 mov	 eax, DWORD PTR _lpMonster$[ebp]
  01972	0f b7 88 b8 00
	00 00		 movzx	 ecx, WORD PTR [eax+184]
  01979	81 f9 83 00 00
	00		 cmp	 ecx, 131		; 00000083H
  0197f	75 3c		 jne	 SHORT $LN31@MonsterKil

; 424  : 		{
; 425  : 			lpUser->ach.mission.i8_KillGateBC++;

  01981	8b 45 f8	 mov	 eax, DWORD PTR _lpUser$[ebp]
  01984	8b 88 4c 29 00
	00		 mov	 ecx, DWORD PTR [eax+10572]
  0198a	83 c1 01	 add	 ecx, 1
  0198d	8b 55 f8	 mov	 edx, DWORD PTR _lpUser$[ebp]
  01990	89 8a 4c 29 00
	00		 mov	 DWORD PTR [edx+10572], ecx

; 426  : 			this->PlayerReward(aIndex, this->m_config.i8_KillGateBC, lpUser->ach.mission.i8_KillGateBC, this->m_reward.i8_KillGateBC);

  01996	8b 45 fc	 mov	 eax, DWORD PTR _this$[ebp]
  01999	8b 88 fc 00 00
	00		 mov	 ecx, DWORD PTR [eax+252]
  0199f	51		 push	 ecx
  019a0	8b 55 f8	 mov	 edx, DWORD PTR _lpUser$[ebp]
  019a3	8b 82 4c 29 00
	00		 mov	 eax, DWORD PTR [edx+10572]
  019a9	50		 push	 eax
  019aa	8b 4d fc	 mov	 ecx, DWORD PTR _this$[ebp]
  019ad	8b 51 34	 mov	 edx, DWORD PTR [ecx+52]
  019b0	52		 push	 edx
  019b1	8b 45 08	 mov	 eax, DWORD PTR _aIndex$[ebp]
  019b4	50		 push	 eax
  019b5	8b 4d fc	 mov	 ecx, DWORD PTR _this$[ebp]
  019b8	e8 00 00 00 00	 call	 ?PlayerReward@CAchievements@@QAEXHHHH@Z ; CAchievements::PlayerReward
$LN31@MonsterKil:

; 427  : 		}
; 428  : 	}
; 429  : 	//i22_KanturuBossKill
; 430  : 	if(this->m_config.i22_KanturuBossKill > lpUser->ach.mission.i22_KanturuBossKill)

  019bd	8b 45 fc	 mov	 eax, DWORD PTR _this$[ebp]
  019c0	8b 4d f8	 mov	 ecx, DWORD PTR _lpUser$[ebp]
  019c3	8b 50 6c	 mov	 edx, DWORD PTR [eax+108]
  019c6	3b 91 84 29 00
	00		 cmp	 edx, DWORD PTR [ecx+10628]
  019cc	76 72		 jbe	 SHORT $LN29@MonsterKil

; 431  : 	{
; 432  : 		if(lpMonster->Class == 361 || lpMonster->Class == 362 || lpMonster->Class == 363)

  019ce	8b 45 f4	 mov	 eax, DWORD PTR _lpMonster$[ebp]
  019d1	0f b7 88 b8 00
	00 00		 movzx	 ecx, WORD PTR [eax+184]
  019d8	81 f9 69 01 00
	00		 cmp	 ecx, 361		; 00000169H
  019de	74 24		 je	 SHORT $LN27@MonsterKil
  019e0	8b 45 f4	 mov	 eax, DWORD PTR _lpMonster$[ebp]
  019e3	0f b7 88 b8 00
	00 00		 movzx	 ecx, WORD PTR [eax+184]
  019ea	81 f9 6a 01 00
	00		 cmp	 ecx, 362		; 0000016aH
  019f0	74 12		 je	 SHORT $LN27@MonsterKil
  019f2	8b 45 f4	 mov	 eax, DWORD PTR _lpMonster$[ebp]
  019f5	0f b7 88 b8 00
	00 00		 movzx	 ecx, WORD PTR [eax+184]
  019fc	81 f9 6b 01 00
	00		 cmp	 ecx, 363		; 0000016bH
  01a02	75 3c		 jne	 SHORT $LN29@MonsterKil
$LN27@MonsterKil:

; 433  : 		{
; 434  : 			lpUser->ach.mission.i22_KanturuBossKill++;

  01a04	8b 45 f8	 mov	 eax, DWORD PTR _lpUser$[ebp]
  01a07	8b 88 84 29 00
	00		 mov	 ecx, DWORD PTR [eax+10628]
  01a0d	83 c1 01	 add	 ecx, 1
  01a10	8b 55 f8	 mov	 edx, DWORD PTR _lpUser$[ebp]
  01a13	89 8a 84 29 00
	00		 mov	 DWORD PTR [edx+10628], ecx

; 435  : 			this->PlayerReward(aIndex, this->m_config.i22_KanturuBossKill, lpUser->ach.mission.i22_KanturuBossKill, this->m_reward.i22_KanturuBossKill);

  01a19	8b 45 fc	 mov	 eax, DWORD PTR _this$[ebp]
  01a1c	8b 88 34 01 00
	00		 mov	 ecx, DWORD PTR [eax+308]
  01a22	51		 push	 ecx
  01a23	8b 55 f8	 mov	 edx, DWORD PTR _lpUser$[ebp]
  01a26	8b 82 84 29 00
	00		 mov	 eax, DWORD PTR [edx+10628]
  01a2c	50		 push	 eax
  01a2d	8b 4d fc	 mov	 ecx, DWORD PTR _this$[ebp]
  01a30	8b 51 6c	 mov	 edx, DWORD PTR [ecx+108]
  01a33	52		 push	 edx
  01a34	8b 45 08	 mov	 eax, DWORD PTR _aIndex$[ebp]
  01a37	50		 push	 eax
  01a38	8b 4d fc	 mov	 ecx, DWORD PTR _this$[ebp]
  01a3b	e8 00 00 00 00	 call	 ?PlayerReward@CAchievements@@QAEXHHHH@Z ; CAchievements::PlayerReward
$LN29@MonsterKil:

; 436  : 		}
; 437  : 	}
; 438  : 	//i23_Monster100LvlKill
; 439  : 	if(this->m_config.i23_Monster100LvlKill > lpUser->ach.mission.i23_Monster100LvlKill)

  01a40	8b 45 fc	 mov	 eax, DWORD PTR _this$[ebp]
  01a43	8b 4d f8	 mov	 ecx, DWORD PTR _lpUser$[ebp]
  01a46	8b 50 70	 mov	 edx, DWORD PTR [eax+112]
  01a49	3b 91 88 29 00
	00		 cmp	 edx, DWORD PTR [ecx+10632]
  01a4f	76 4b		 jbe	 SHORT $LN26@MonsterKil

; 440  : 	{
; 441  : 		if(lpMonster->Level >= 100)

  01a51	8b 45 f4	 mov	 eax, DWORD PTR _lpMonster$[ebp]
  01a54	0f bf 88 be 00
	00 00		 movsx	 ecx, WORD PTR [eax+190]
  01a5b	83 f9 64	 cmp	 ecx, 100		; 00000064H
  01a5e	7c 3c		 jl	 SHORT $LN26@MonsterKil

; 442  : 		{
; 443  : 			lpUser->ach.mission.i23_Monster100LvlKill++;

  01a60	8b 45 f8	 mov	 eax, DWORD PTR _lpUser$[ebp]
  01a63	8b 88 88 29 00
	00		 mov	 ecx, DWORD PTR [eax+10632]
  01a69	83 c1 01	 add	 ecx, 1
  01a6c	8b 55 f8	 mov	 edx, DWORD PTR _lpUser$[ebp]
  01a6f	89 8a 88 29 00
	00		 mov	 DWORD PTR [edx+10632], ecx

; 444  : 			this->PlayerReward(aIndex, this->m_config.i23_Monster100LvlKill, lpUser->ach.mission.i23_Monster100LvlKill, this->m_reward.i23_Monster100LvlKill);

  01a75	8b 45 fc	 mov	 eax, DWORD PTR _this$[ebp]
  01a78	8b 88 38 01 00
	00		 mov	 ecx, DWORD PTR [eax+312]
  01a7e	51		 push	 ecx
  01a7f	8b 55 f8	 mov	 edx, DWORD PTR _lpUser$[ebp]
  01a82	8b 82 88 29 00
	00		 mov	 eax, DWORD PTR [edx+10632]
  01a88	50		 push	 eax
  01a89	8b 4d fc	 mov	 ecx, DWORD PTR _this$[ebp]
  01a8c	8b 51 70	 mov	 edx, DWORD PTR [ecx+112]
  01a8f	52		 push	 edx
  01a90	8b 45 08	 mov	 eax, DWORD PTR _aIndex$[ebp]
  01a93	50		 push	 eax
  01a94	8b 4d fc	 mov	 ecx, DWORD PTR _this$[ebp]
  01a97	e8 00 00 00 00	 call	 ?PlayerReward@CAchievements@@QAEXHHHH@Z ; CAchievements::PlayerReward
$LN26@MonsterKil:

; 445  : 		}
; 446  : 	}
; 447  : 	//i26_CryWolfEventMonster
; 448  : 	if(this->m_config.i26_CryWolfEventMonster > lpUser->ach.mission.i26_CryWolfEventMonster)

  01a9c	8b 45 fc	 mov	 eax, DWORD PTR _this$[ebp]
  01a9f	8b 4d f8	 mov	 ecx, DWORD PTR _lpUser$[ebp]
  01aa2	8b 50 7c	 mov	 edx, DWORD PTR [eax+124]
  01aa5	3b 91 94 29 00
	00		 cmp	 edx, DWORD PTR [ecx+10644]
  01aab	76 60		 jbe	 SHORT $LN24@MonsterKil

; 449  : 	{
; 450  : 		if(lpMonster->Class == 349 || lpMonster->Class == 340)

  01aad	8b 45 f4	 mov	 eax, DWORD PTR _lpMonster$[ebp]
  01ab0	0f b7 88 b8 00
	00 00		 movzx	 ecx, WORD PTR [eax+184]
  01ab7	81 f9 5d 01 00
	00		 cmp	 ecx, 349		; 0000015dH
  01abd	74 12		 je	 SHORT $LN22@MonsterKil
  01abf	8b 45 f4	 mov	 eax, DWORD PTR _lpMonster$[ebp]
  01ac2	0f b7 88 b8 00
	00 00		 movzx	 ecx, WORD PTR [eax+184]
  01ac9	81 f9 54 01 00
	00		 cmp	 ecx, 340		; 00000154H
  01acf	75 3c		 jne	 SHORT $LN24@MonsterKil
$LN22@MonsterKil:

; 451  : 		{
; 452  : 			lpUser->ach.mission.i26_CryWolfEventMonster++;

  01ad1	8b 45 f8	 mov	 eax, DWORD PTR _lpUser$[ebp]
  01ad4	8b 88 94 29 00
	00		 mov	 ecx, DWORD PTR [eax+10644]
  01ada	83 c1 01	 add	 ecx, 1
  01add	8b 55 f8	 mov	 edx, DWORD PTR _lpUser$[ebp]
  01ae0	89 8a 94 29 00
	00		 mov	 DWORD PTR [edx+10644], ecx

; 453  : 			this->PlayerReward(aIndex, this->m_config.i26_CryWolfEventMonster, lpUser->ach.mission.i26_CryWolfEventMonster, this->m_reward.i26_CryWolfEventMonster);

  01ae6	8b 45 fc	 mov	 eax, DWORD PTR _this$[ebp]
  01ae9	8b 88 44 01 00
	00		 mov	 ecx, DWORD PTR [eax+324]
  01aef	51		 push	 ecx
  01af0	8b 55 f8	 mov	 edx, DWORD PTR _lpUser$[ebp]
  01af3	8b 82 94 29 00
	00		 mov	 eax, DWORD PTR [edx+10644]
  01af9	50		 push	 eax
  01afa	8b 4d fc	 mov	 ecx, DWORD PTR _this$[ebp]
  01afd	8b 51 7c	 mov	 edx, DWORD PTR [ecx+124]
  01b00	52		 push	 edx
  01b01	8b 45 08	 mov	 eax, DWORD PTR _aIndex$[ebp]
  01b04	50		 push	 eax
  01b05	8b 4d fc	 mov	 ecx, DWORD PTR _this$[ebp]
  01b08	e8 00 00 00 00	 call	 ?PlayerReward@CAchievements@@QAEXHHHH@Z ; CAchievements::PlayerReward
$LN24@MonsterKil:

; 454  : 		}
; 455  : 	}
; 456  : 	//i27_HellMainKill
; 457  : 	if(this->m_config.i27_HellMainKill > lpUser->ach.mission.i27_HellMainKill)

  01b0d	8b 45 fc	 mov	 eax, DWORD PTR _this$[ebp]
  01b10	8b 4d f8	 mov	 ecx, DWORD PTR _lpUser$[ebp]
  01b13	8b 90 80 00 00
	00		 mov	 edx, DWORD PTR [eax+128]
  01b19	3b 91 98 29 00
	00		 cmp	 edx, DWORD PTR [ecx+10648]
  01b1f	76 51		 jbe	 SHORT $LN21@MonsterKil

; 458  : 	{
; 459  : 		if(lpMonster->Class == 309)

  01b21	8b 45 f4	 mov	 eax, DWORD PTR _lpMonster$[ebp]
  01b24	0f b7 88 b8 00
	00 00		 movzx	 ecx, WORD PTR [eax+184]
  01b2b	81 f9 35 01 00
	00		 cmp	 ecx, 309		; 00000135H
  01b31	75 3f		 jne	 SHORT $LN21@MonsterKil

; 460  : 		{
; 461  : 			lpUser->ach.mission.i27_HellMainKill++;

  01b33	8b 45 f8	 mov	 eax, DWORD PTR _lpUser$[ebp]
  01b36	8b 88 98 29 00
	00		 mov	 ecx, DWORD PTR [eax+10648]
  01b3c	83 c1 01	 add	 ecx, 1
  01b3f	8b 55 f8	 mov	 edx, DWORD PTR _lpUser$[ebp]
  01b42	89 8a 98 29 00
	00		 mov	 DWORD PTR [edx+10648], ecx

; 462  : 			this->PlayerReward(aIndex, this->m_config.i27_HellMainKill, lpUser->ach.mission.i27_HellMainKill, this->m_reward.i27_HellMainKill);

  01b48	8b 45 fc	 mov	 eax, DWORD PTR _this$[ebp]
  01b4b	8b 88 48 01 00
	00		 mov	 ecx, DWORD PTR [eax+328]
  01b51	51		 push	 ecx
  01b52	8b 55 f8	 mov	 edx, DWORD PTR _lpUser$[ebp]
  01b55	8b 82 98 29 00
	00		 mov	 eax, DWORD PTR [edx+10648]
  01b5b	50		 push	 eax
  01b5c	8b 4d fc	 mov	 ecx, DWORD PTR _this$[ebp]
  01b5f	8b 91 80 00 00
	00		 mov	 edx, DWORD PTR [ecx+128]
  01b65	52		 push	 edx
  01b66	8b 45 08	 mov	 eax, DWORD PTR _aIndex$[ebp]
  01b69	50		 push	 eax
  01b6a	8b 4d fc	 mov	 ecx, DWORD PTR _this$[ebp]
  01b6d	e8 00 00 00 00	 call	 ?PlayerReward@CAchievements@@QAEXHHHH@Z ; CAchievements::PlayerReward
$LN21@MonsterKil:

; 463  : 		}
; 464  : 	}
; 465  : 	//i29_SelupanKill
; 466  : 	if(this->m_config.i29_SelupanKill > lpUser->ach.mission.i29_SelupanKill)

  01b72	8b 45 fc	 mov	 eax, DWORD PTR _this$[ebp]
  01b75	8b 4d f8	 mov	 ecx, DWORD PTR _lpUser$[ebp]
  01b78	8b 90 88 00 00
	00		 mov	 edx, DWORD PTR [eax+136]
  01b7e	3b 91 a0 29 00
	00		 cmp	 edx, DWORD PTR [ecx+10656]
  01b84	76 51		 jbe	 SHORT $LN19@MonsterKil

; 467  : 	{
; 468  : 		if(lpMonster->Class == 459)

  01b86	8b 45 f4	 mov	 eax, DWORD PTR _lpMonster$[ebp]
  01b89	0f b7 88 b8 00
	00 00		 movzx	 ecx, WORD PTR [eax+184]
  01b90	81 f9 cb 01 00
	00		 cmp	 ecx, 459		; 000001cbH
  01b96	75 3f		 jne	 SHORT $LN19@MonsterKil

; 469  : 		{
; 470  : 			lpUser->ach.mission.i29_SelupanKill++;

  01b98	8b 45 f8	 mov	 eax, DWORD PTR _lpUser$[ebp]
  01b9b	8b 88 a0 29 00
	00		 mov	 ecx, DWORD PTR [eax+10656]
  01ba1	83 c1 01	 add	 ecx, 1
  01ba4	8b 55 f8	 mov	 edx, DWORD PTR _lpUser$[ebp]
  01ba7	89 8a a0 29 00
	00		 mov	 DWORD PTR [edx+10656], ecx

; 471  : 			this->PlayerReward(aIndex, this->m_config.i29_SelupanKill, lpUser->ach.mission.i29_SelupanKill, this->m_reward.i29_SelupanKill);

  01bad	8b 45 fc	 mov	 eax, DWORD PTR _this$[ebp]
  01bb0	8b 88 50 01 00
	00		 mov	 ecx, DWORD PTR [eax+336]
  01bb6	51		 push	 ecx
  01bb7	8b 55 f8	 mov	 edx, DWORD PTR _lpUser$[ebp]
  01bba	8b 82 a0 29 00
	00		 mov	 eax, DWORD PTR [edx+10656]
  01bc0	50		 push	 eax
  01bc1	8b 4d fc	 mov	 ecx, DWORD PTR _this$[ebp]
  01bc4	8b 91 88 00 00
	00		 mov	 edx, DWORD PTR [ecx+136]
  01bca	52		 push	 edx
  01bcb	8b 45 08	 mov	 eax, DWORD PTR _aIndex$[ebp]
  01bce	50		 push	 eax
  01bcf	8b 4d fc	 mov	 ecx, DWORD PTR _this$[ebp]
  01bd2	e8 00 00 00 00	 call	 ?PlayerReward@CAchievements@@QAEXHHHH@Z ; CAchievements::PlayerReward
$LN19@MonsterKil:

; 472  : 		}
; 473  : 	}
; 474  : 	//i30_KundunKill
; 475  : 	if(this->m_config.i30_KundunKill > lpUser->ach.mission.i30_KundunKill)

  01bd7	8b 45 fc	 mov	 eax, DWORD PTR _this$[ebp]
  01bda	8b 4d f8	 mov	 ecx, DWORD PTR _lpUser$[ebp]
  01bdd	8b 90 8c 00 00
	00		 mov	 edx, DWORD PTR [eax+140]
  01be3	3b 91 a4 29 00
	00		 cmp	 edx, DWORD PTR [ecx+10660]
  01be9	76 51		 jbe	 SHORT $LN17@MonsterKil

; 476  : 	{
; 477  : 		if(lpMonster->Class == 275)

  01beb	8b 45 f4	 mov	 eax, DWORD PTR _lpMonster$[ebp]
  01bee	0f b7 88 b8 00
	00 00		 movzx	 ecx, WORD PTR [eax+184]
  01bf5	81 f9 13 01 00
	00		 cmp	 ecx, 275		; 00000113H
  01bfb	75 3f		 jne	 SHORT $LN17@MonsterKil

; 478  : 		{
; 479  : 			lpUser->ach.mission.i30_KundunKill++;

  01bfd	8b 45 f8	 mov	 eax, DWORD PTR _lpUser$[ebp]
  01c00	8b 88 a4 29 00
	00		 mov	 ecx, DWORD PTR [eax+10660]
  01c06	83 c1 01	 add	 ecx, 1
  01c09	8b 55 f8	 mov	 edx, DWORD PTR _lpUser$[ebp]
  01c0c	89 8a a4 29 00
	00		 mov	 DWORD PTR [edx+10660], ecx

; 480  : 			this->PlayerReward(aIndex, this->m_config.i30_KundunKill, lpUser->ach.mission.i30_KundunKill, this->m_reward.i30_KundunKill);

  01c12	8b 45 fc	 mov	 eax, DWORD PTR _this$[ebp]
  01c15	8b 88 54 01 00
	00		 mov	 ecx, DWORD PTR [eax+340]
  01c1b	51		 push	 ecx
  01c1c	8b 55 f8	 mov	 edx, DWORD PTR _lpUser$[ebp]
  01c1f	8b 82 a4 29 00
	00		 mov	 eax, DWORD PTR [edx+10660]
  01c25	50		 push	 eax
  01c26	8b 4d fc	 mov	 ecx, DWORD PTR _this$[ebp]
  01c29	8b 91 8c 00 00
	00		 mov	 edx, DWORD PTR [ecx+140]
  01c2f	52		 push	 edx
  01c30	8b 45 08	 mov	 eax, DWORD PTR _aIndex$[ebp]
  01c33	50		 push	 eax
  01c34	8b 4d fc	 mov	 ecx, DWORD PTR _this$[ebp]
  01c37	e8 00 00 00 00	 call	 ?PlayerReward@CAchievements@@QAEXHHHH@Z ; CAchievements::PlayerReward
$LN17@MonsterKil:

; 481  : 		}
; 482  : 	}
; 483  : 	//i31_KillStatueBC
; 484  : 	if(this->m_config.i31_KillStatueBC > lpUser->ach.mission.i31_KillStatueBC)

  01c3c	8b 45 fc	 mov	 eax, DWORD PTR _this$[ebp]
  01c3f	8b 4d f8	 mov	 ecx, DWORD PTR _lpUser$[ebp]
  01c42	8b 90 90 00 00
	00		 mov	 edx, DWORD PTR [eax+144]
  01c48	3b 91 a8 29 00
	00		 cmp	 edx, DWORD PTR [ecx+10664]
  01c4e	76 51		 jbe	 SHORT $LN15@MonsterKil

; 485  : 	{
; 486  : 		if(lpMonster->Class == 131)

  01c50	8b 45 f4	 mov	 eax, DWORD PTR _lpMonster$[ebp]
  01c53	0f b7 88 b8 00
	00 00		 movzx	 ecx, WORD PTR [eax+184]
  01c5a	81 f9 83 00 00
	00		 cmp	 ecx, 131		; 00000083H
  01c60	75 3f		 jne	 SHORT $LN15@MonsterKil

; 487  : 		{
; 488  : 			lpUser->ach.mission.i31_KillStatueBC++;

  01c62	8b 45 f8	 mov	 eax, DWORD PTR _lpUser$[ebp]
  01c65	8b 88 a8 29 00
	00		 mov	 ecx, DWORD PTR [eax+10664]
  01c6b	83 c1 01	 add	 ecx, 1
  01c6e	8b 55 f8	 mov	 edx, DWORD PTR _lpUser$[ebp]
  01c71	89 8a a8 29 00
	00		 mov	 DWORD PTR [edx+10664], ecx

; 489  : 			this->PlayerReward(aIndex, this->m_config.i31_KillStatueBC, lpUser->ach.mission.i31_KillStatueBC, this->m_reward.i31_KillStatueBC);

  01c77	8b 45 fc	 mov	 eax, DWORD PTR _this$[ebp]
  01c7a	8b 88 58 01 00
	00		 mov	 ecx, DWORD PTR [eax+344]
  01c80	51		 push	 ecx
  01c81	8b 55 f8	 mov	 edx, DWORD PTR _lpUser$[ebp]
  01c84	8b 82 a8 29 00
	00		 mov	 eax, DWORD PTR [edx+10664]
  01c8a	50		 push	 eax
  01c8b	8b 4d fc	 mov	 ecx, DWORD PTR _this$[ebp]
  01c8e	8b 91 90 00 00
	00		 mov	 edx, DWORD PTR [ecx+144]
  01c94	52		 push	 edx
  01c95	8b 45 08	 mov	 eax, DWORD PTR _aIndex$[ebp]
  01c98	50		 push	 eax
  01c99	8b 4d fc	 mov	 ecx, DWORD PTR _this$[ebp]
  01c9c	e8 00 00 00 00	 call	 ?PlayerReward@CAchievements@@QAEXHHHH@Z ; CAchievements::PlayerReward
$LN15@MonsterKil:

; 490  : 		}
; 491  : 	}
; 492  : 	//i34_BlueRabbitKiller
; 493  : 	if(this->m_config.i34_BlueRabbitKiller > lpUser->ach.mission.i34_BlueRabbitKiller)

  01ca1	8b 45 fc	 mov	 eax, DWORD PTR _this$[ebp]
  01ca4	8b 4d f8	 mov	 ecx, DWORD PTR _lpUser$[ebp]
  01ca7	8b 90 9c 00 00
	00		 mov	 edx, DWORD PTR [eax+156]
  01cad	3b 91 b4 29 00
	00		 cmp	 edx, DWORD PTR [ecx+10676]
  01cb3	76 51		 jbe	 SHORT $LN13@MonsterKil

; 494  : 	{
; 495  : 		if(lpMonster->Class == 413)

  01cb5	8b 45 f4	 mov	 eax, DWORD PTR _lpMonster$[ebp]
  01cb8	0f b7 88 b8 00
	00 00		 movzx	 ecx, WORD PTR [eax+184]
  01cbf	81 f9 9d 01 00
	00		 cmp	 ecx, 413		; 0000019dH
  01cc5	75 3f		 jne	 SHORT $LN13@MonsterKil

; 496  : 		{
; 497  : 			lpUser->ach.mission.i34_BlueRabbitKiller++;

  01cc7	8b 45 f8	 mov	 eax, DWORD PTR _lpUser$[ebp]
  01cca	8b 88 b4 29 00
	00		 mov	 ecx, DWORD PTR [eax+10676]
  01cd0	83 c1 01	 add	 ecx, 1
  01cd3	8b 55 f8	 mov	 edx, DWORD PTR _lpUser$[ebp]
  01cd6	89 8a b4 29 00
	00		 mov	 DWORD PTR [edx+10676], ecx

; 498  : 			this->PlayerReward(aIndex, this->m_config.i34_BlueRabbitKiller, lpUser->ach.mission.i34_BlueRabbitKiller, this->m_reward.i34_BlueRabbitKiller);

  01cdc	8b 45 fc	 mov	 eax, DWORD PTR _this$[ebp]
  01cdf	8b 88 64 01 00
	00		 mov	 ecx, DWORD PTR [eax+356]
  01ce5	51		 push	 ecx
  01ce6	8b 55 f8	 mov	 edx, DWORD PTR _lpUser$[ebp]
  01ce9	8b 82 b4 29 00
	00		 mov	 eax, DWORD PTR [edx+10676]
  01cef	50		 push	 eax
  01cf0	8b 4d fc	 mov	 ecx, DWORD PTR _this$[ebp]
  01cf3	8b 91 9c 00 00
	00		 mov	 edx, DWORD PTR [ecx+156]
  01cf9	52		 push	 edx
  01cfa	8b 45 08	 mov	 eax, DWORD PTR _aIndex$[ebp]
  01cfd	50		 push	 eax
  01cfe	8b 4d fc	 mov	 ecx, DWORD PTR _this$[ebp]
  01d01	e8 00 00 00 00	 call	 ?PlayerReward@CAchievements@@QAEXHHHH@Z ; CAchievements::PlayerReward
$LN13@MonsterKil:

; 499  : 		}
; 500  : 	}
; 501  : 	//i35_HappyPouchesKiller
; 502  : 	if(this->m_config.i35_HappyPouchesKiller > lpUser->ach.mission.i35_HappyPouchesKiller)

  01d06	8b 45 fc	 mov	 eax, DWORD PTR _this$[ebp]
  01d09	8b 4d f8	 mov	 ecx, DWORD PTR _lpUser$[ebp]
  01d0c	8b 90 a0 00 00
	00		 mov	 edx, DWORD PTR [eax+160]
  01d12	3b 91 b8 29 00
	00		 cmp	 edx, DWORD PTR [ecx+10680]
  01d18	76 51		 jbe	 SHORT $LN11@MonsterKil

; 503  : 	{
; 504  : 		if(lpMonster->Class == 463)

  01d1a	8b 45 f4	 mov	 eax, DWORD PTR _lpMonster$[ebp]
  01d1d	0f b7 88 b8 00
	00 00		 movzx	 ecx, WORD PTR [eax+184]
  01d24	81 f9 cf 01 00
	00		 cmp	 ecx, 463		; 000001cfH
  01d2a	75 3f		 jne	 SHORT $LN11@MonsterKil

; 505  : 		{
; 506  : 			lpUser->ach.mission.i35_HappyPouchesKiller++;

  01d2c	8b 45 f8	 mov	 eax, DWORD PTR _lpUser$[ebp]
  01d2f	8b 88 b8 29 00
	00		 mov	 ecx, DWORD PTR [eax+10680]
  01d35	83 c1 01	 add	 ecx, 1
  01d38	8b 55 f8	 mov	 edx, DWORD PTR _lpUser$[ebp]
  01d3b	89 8a b8 29 00
	00		 mov	 DWORD PTR [edx+10680], ecx

; 507  : 			this->PlayerReward(aIndex, this->m_config.i35_HappyPouchesKiller, lpUser->ach.mission.i35_HappyPouchesKiller, this->m_reward.i35_HappyPouchesKiller);

  01d41	8b 45 fc	 mov	 eax, DWORD PTR _this$[ebp]
  01d44	8b 88 68 01 00
	00		 mov	 ecx, DWORD PTR [eax+360]
  01d4a	51		 push	 ecx
  01d4b	8b 55 f8	 mov	 edx, DWORD PTR _lpUser$[ebp]
  01d4e	8b 82 b8 29 00
	00		 mov	 eax, DWORD PTR [edx+10680]
  01d54	50		 push	 eax
  01d55	8b 4d fc	 mov	 ecx, DWORD PTR _this$[ebp]
  01d58	8b 91 a0 00 00
	00		 mov	 edx, DWORD PTR [ecx+160]
  01d5e	52		 push	 edx
  01d5f	8b 45 08	 mov	 eax, DWORD PTR _aIndex$[ebp]
  01d62	50		 push	 eax
  01d63	8b 4d fc	 mov	 ecx, DWORD PTR _this$[ebp]
  01d66	e8 00 00 00 00	 call	 ?PlayerReward@CAchievements@@QAEXHHHH@Z ; CAchievements::PlayerReward
$LN11@MonsterKil:

; 508  : 		}
; 509  : 	}
; 510  : 	//i36_PheonixKill
; 511  : 	if(this->m_config.i36_PheonixKill > lpUser->ach.mission.i36_PheonixKill)

  01d6b	8b 45 fc	 mov	 eax, DWORD PTR _this$[ebp]
  01d6e	8b 4d f8	 mov	 ecx, DWORD PTR _lpUser$[ebp]
  01d71	8b 90 a4 00 00
	00		 mov	 edx, DWORD PTR [eax+164]
  01d77	3b 91 bc 29 00
	00		 cmp	 edx, DWORD PTR [ecx+10684]
  01d7d	76 4e		 jbe	 SHORT $LN9@MonsterKil

; 512  : 	{
; 513  : 		if(lpMonster->Class == 77)

  01d7f	8b 45 f4	 mov	 eax, DWORD PTR _lpMonster$[ebp]
  01d82	0f b7 88 b8 00
	00 00		 movzx	 ecx, WORD PTR [eax+184]
  01d89	83 f9 4d	 cmp	 ecx, 77			; 0000004dH
  01d8c	75 3f		 jne	 SHORT $LN9@MonsterKil

; 514  : 		{
; 515  : 			lpUser->ach.mission.i36_PheonixKill++;

  01d8e	8b 45 f8	 mov	 eax, DWORD PTR _lpUser$[ebp]
  01d91	8b 88 bc 29 00
	00		 mov	 ecx, DWORD PTR [eax+10684]
  01d97	83 c1 01	 add	 ecx, 1
  01d9a	8b 55 f8	 mov	 edx, DWORD PTR _lpUser$[ebp]
  01d9d	89 8a bc 29 00
	00		 mov	 DWORD PTR [edx+10684], ecx

; 516  : 			this->PlayerReward(aIndex, this->m_config.i36_PheonixKill, lpUser->ach.mission.i36_PheonixKill, this->m_reward.i36_PheonixKill);

  01da3	8b 45 fc	 mov	 eax, DWORD PTR _this$[ebp]
  01da6	8b 88 6c 01 00
	00		 mov	 ecx, DWORD PTR [eax+364]
  01dac	51		 push	 ecx
  01dad	8b 55 f8	 mov	 edx, DWORD PTR _lpUser$[ebp]
  01db0	8b 82 bc 29 00
	00		 mov	 eax, DWORD PTR [edx+10684]
  01db6	50		 push	 eax
  01db7	8b 4d fc	 mov	 ecx, DWORD PTR _this$[ebp]
  01dba	8b 91 a4 00 00
	00		 mov	 edx, DWORD PTR [ecx+164]
  01dc0	52		 push	 edx
  01dc1	8b 45 08	 mov	 eax, DWORD PTR _aIndex$[ebp]
  01dc4	50		 push	 eax
  01dc5	8b 4d fc	 mov	 ecx, DWORD PTR _this$[ebp]
  01dc8	e8 00 00 00 00	 call	 ?PlayerReward@CAchievements@@QAEXHHHH@Z ; CAchievements::PlayerReward
$LN9@MonsterKil:

; 517  : 		}
; 518  : 	}
; 519  : 	//i37_KanturuMonsterKill
; 520  : 	if(this->m_config.i37_KanturuMonsterKill > lpUser->ach.mission.i37_KanturuMonsterKill)

  01dcd	8b 45 fc	 mov	 eax, DWORD PTR _this$[ebp]
  01dd0	8b 4d f8	 mov	 ecx, DWORD PTR _lpUser$[ebp]
  01dd3	8b 90 a8 00 00
	00		 mov	 edx, DWORD PTR [eax+168]
  01dd9	3b 91 c0 29 00
	00		 cmp	 edx, DWORD PTR [ecx+10688]
  01ddf	76 4e		 jbe	 SHORT $LN7@MonsterKil

; 521  : 	{
; 522  : 		if(lpMonster->MapNumber == MAP_INDEX_KANTURU_BOSS)

  01de1	8b 45 f4	 mov	 eax, DWORD PTR _lpMonster$[ebp]
  01de4	0f b6 88 49 01
	00 00		 movzx	 ecx, BYTE PTR [eax+329]
  01deb	83 f9 27	 cmp	 ecx, 39			; 00000027H
  01dee	75 3f		 jne	 SHORT $LN7@MonsterKil

; 523  : 		{
; 524  : 			lpUser->ach.mission.i37_KanturuMonsterKill++;

  01df0	8b 45 f8	 mov	 eax, DWORD PTR _lpUser$[ebp]
  01df3	8b 88 c0 29 00
	00		 mov	 ecx, DWORD PTR [eax+10688]
  01df9	83 c1 01	 add	 ecx, 1
  01dfc	8b 55 f8	 mov	 edx, DWORD PTR _lpUser$[ebp]
  01dff	89 8a c0 29 00
	00		 mov	 DWORD PTR [edx+10688], ecx

; 525  : 			this->PlayerReward(aIndex, this->m_config.i37_KanturuMonsterKill, lpUser->ach.mission.i37_KanturuMonsterKill, this->m_reward.i37_KanturuMonsterKill);

  01e05	8b 45 fc	 mov	 eax, DWORD PTR _this$[ebp]
  01e08	8b 88 70 01 00
	00		 mov	 ecx, DWORD PTR [eax+368]
  01e0e	51		 push	 ecx
  01e0f	8b 55 f8	 mov	 edx, DWORD PTR _lpUser$[ebp]
  01e12	8b 82 c0 29 00
	00		 mov	 eax, DWORD PTR [edx+10688]
  01e18	50		 push	 eax
  01e19	8b 4d fc	 mov	 ecx, DWORD PTR _this$[ebp]
  01e1c	8b 91 a8 00 00
	00		 mov	 edx, DWORD PTR [ecx+168]
  01e22	52		 push	 edx
  01e23	8b 45 08	 mov	 eax, DWORD PTR _aIndex$[ebp]
  01e26	50		 push	 eax
  01e27	8b 4d fc	 mov	 ecx, DWORD PTR _this$[ebp]
  01e2a	e8 00 00 00 00	 call	 ?PlayerReward@CAchievements@@QAEXHHHH@Z ; CAchievements::PlayerReward
$LN7@MonsterKil:

; 526  : 		}
; 527  : 	}
; 528  : 	//i42_KillCastleSiegeNPC
; 529  : 	if(this->m_config.i42_KillCastleSiegeNPC > lpUser->ach.mission.i42_KillCastleSiegeNPC)

  01e2f	8b 45 fc	 mov	 eax, DWORD PTR _this$[ebp]
  01e32	8b 4d f8	 mov	 ecx, DWORD PTR _lpUser$[ebp]
  01e35	8b 90 bc 00 00
	00		 mov	 edx, DWORD PTR [eax+188]
  01e3b	3b 91 d4 29 00
	00		 cmp	 edx, DWORD PTR [ecx+10708]
  01e41	0f 86 99 00 00
	00		 jbe	 $LN5@MonsterKil

; 530  : 	{
; 531  : 		if(lpMonster->Class == 283 || lpMonster->Class == 277 || lpMonster->Class == 288 || lpMonster->Class == 222 || lpMonster->Class == 221)

  01e47	8b 45 f4	 mov	 eax, DWORD PTR _lpMonster$[ebp]
  01e4a	0f b7 88 b8 00
	00 00		 movzx	 ecx, WORD PTR [eax+184]
  01e51	81 f9 1b 01 00
	00		 cmp	 ecx, 283		; 0000011bH
  01e57	74 48		 je	 SHORT $LN3@MonsterKil
  01e59	8b 45 f4	 mov	 eax, DWORD PTR _lpMonster$[ebp]
  01e5c	0f b7 88 b8 00
	00 00		 movzx	 ecx, WORD PTR [eax+184]
  01e63	81 f9 15 01 00
	00		 cmp	 ecx, 277		; 00000115H
  01e69	74 36		 je	 SHORT $LN3@MonsterKil
  01e6b	8b 45 f4	 mov	 eax, DWORD PTR _lpMonster$[ebp]
  01e6e	0f b7 88 b8 00
	00 00		 movzx	 ecx, WORD PTR [eax+184]
  01e75	81 f9 20 01 00
	00		 cmp	 ecx, 288		; 00000120H
  01e7b	74 24		 je	 SHORT $LN3@MonsterKil
  01e7d	8b 45 f4	 mov	 eax, DWORD PTR _lpMonster$[ebp]
  01e80	0f b7 88 b8 00
	00 00		 movzx	 ecx, WORD PTR [eax+184]
  01e87	81 f9 de 00 00
	00		 cmp	 ecx, 222		; 000000deH
  01e8d	74 12		 je	 SHORT $LN3@MonsterKil
  01e8f	8b 45 f4	 mov	 eax, DWORD PTR _lpMonster$[ebp]
  01e92	0f b7 88 b8 00
	00 00		 movzx	 ecx, WORD PTR [eax+184]
  01e99	81 f9 dd 00 00
	00		 cmp	 ecx, 221		; 000000ddH
  01e9f	75 3f		 jne	 SHORT $LN5@MonsterKil
$LN3@MonsterKil:

; 532  : 		{
; 533  : 			lpUser->ach.mission.i42_KillCastleSiegeNPC++;

  01ea1	8b 45 f8	 mov	 eax, DWORD PTR _lpUser$[ebp]
  01ea4	8b 88 d4 29 00
	00		 mov	 ecx, DWORD PTR [eax+10708]
  01eaa	83 c1 01	 add	 ecx, 1
  01ead	8b 55 f8	 mov	 edx, DWORD PTR _lpUser$[ebp]
  01eb0	89 8a d4 29 00
	00		 mov	 DWORD PTR [edx+10708], ecx

; 534  : 			this->PlayerReward(aIndex, this->m_config.i42_KillCastleSiegeNPC, lpUser->ach.mission.i42_KillCastleSiegeNPC, this->m_reward.i42_KillCastleSiegeNPC);

  01eb6	8b 45 fc	 mov	 eax, DWORD PTR _this$[ebp]
  01eb9	8b 88 84 01 00
	00		 mov	 ecx, DWORD PTR [eax+388]
  01ebf	51		 push	 ecx
  01ec0	8b 55 f8	 mov	 edx, DWORD PTR _lpUser$[ebp]
  01ec3	8b 82 d4 29 00
	00		 mov	 eax, DWORD PTR [edx+10708]
  01ec9	50		 push	 eax
  01eca	8b 4d fc	 mov	 ecx, DWORD PTR _this$[ebp]
  01ecd	8b 91 bc 00 00
	00		 mov	 edx, DWORD PTR [ecx+188]
  01ed3	52		 push	 edx
  01ed4	8b 45 08	 mov	 eax, DWORD PTR _aIndex$[ebp]
  01ed7	50		 push	 eax
  01ed8	8b 4d fc	 mov	 ecx, DWORD PTR _this$[ebp]
  01edb	e8 00 00 00 00	 call	 ?PlayerReward@CAchievements@@QAEXHHHH@Z ; CAchievements::PlayerReward
$LN5@MonsterKil:

; 535  : 		}
; 536  : 	}
; 537  : 	//i44_KillErohim
; 538  : 	if(this->m_config.i44_KillErohim > lpUser->ach.mission.i44_KillErohim)

  01ee0	8b 45 fc	 mov	 eax, DWORD PTR _this$[ebp]
  01ee3	8b 4d f8	 mov	 ecx, DWORD PTR _lpUser$[ebp]
  01ee6	8b 90 c4 00 00
	00		 mov	 edx, DWORD PTR [eax+196]
  01eec	3b 91 dc 29 00
	00		 cmp	 edx, DWORD PTR [ecx+10716]
  01ef2	76 51		 jbe	 SHORT $LN49@MonsterKil

; 539  : 	{
; 540  : 		if(lpMonster->Class == 295)

  01ef4	8b 45 f4	 mov	 eax, DWORD PTR _lpMonster$[ebp]
  01ef7	0f b7 88 b8 00
	00 00		 movzx	 ecx, WORD PTR [eax+184]
  01efe	81 f9 27 01 00
	00		 cmp	 ecx, 295		; 00000127H
  01f04	75 3f		 jne	 SHORT $LN49@MonsterKil

; 541  : 		{
; 542  : 			lpUser->ach.mission.i44_KillErohim++;

  01f06	8b 45 f8	 mov	 eax, DWORD PTR _lpUser$[ebp]
  01f09	8b 88 dc 29 00
	00		 mov	 ecx, DWORD PTR [eax+10716]
  01f0f	83 c1 01	 add	 ecx, 1
  01f12	8b 55 f8	 mov	 edx, DWORD PTR _lpUser$[ebp]
  01f15	89 8a dc 29 00
	00		 mov	 DWORD PTR [edx+10716], ecx

; 543  : 			this->PlayerReward(aIndex, this->m_config.i44_KillErohim, lpUser->ach.mission.i44_KillErohim, this->m_reward.i44_KillErohim);

  01f1b	8b 45 fc	 mov	 eax, DWORD PTR _this$[ebp]
  01f1e	8b 88 8c 01 00
	00		 mov	 ecx, DWORD PTR [eax+396]
  01f24	51		 push	 ecx
  01f25	8b 55 f8	 mov	 edx, DWORD PTR _lpUser$[ebp]
  01f28	8b 82 dc 29 00
	00		 mov	 eax, DWORD PTR [edx+10716]
  01f2e	50		 push	 eax
  01f2f	8b 4d fc	 mov	 ecx, DWORD PTR _this$[ebp]
  01f32	8b 91 c4 00 00
	00		 mov	 edx, DWORD PTR [ecx+196]
  01f38	52		 push	 edx
  01f39	8b 45 08	 mov	 eax, DWORD PTR _aIndex$[ebp]
  01f3c	50		 push	 eax
  01f3d	8b 4d fc	 mov	 ecx, DWORD PTR _this$[ebp]
  01f40	e8 00 00 00 00	 call	 ?PlayerReward@CAchievements@@QAEXHHHH@Z ; CAchievements::PlayerReward
$LN49@MonsterKil:

; 544  : 		}
; 545  : 	}
; 546  : }

  01f45	5f		 pop	 edi
  01f46	5e		 pop	 esi
  01f47	5b		 pop	 ebx
  01f48	8b e5		 mov	 esp, ebp
  01f4a	5d		 pop	 ebp
  01f4b	c2 08 00	 ret	 8
?MonsterKill@CAchievements@@QAEXHH@Z ENDP		; CAchievements::MonsterKill
_TEXT	ENDS
PUBLIC	?GetCastleState@CCastleSiege@@QAEHXZ		; CCastleSiege::GetCastleState
PUBLIC	?GetCrownUserIndex@CCastleSiege@@QAEHXZ		; CCastleSiege::GetCrownUserIndex
PUBLIC	?PlayerKill@CAchievements@@QAEXHH@Z		; CAchievements::PlayerKill
EXTRN	?GetCrownSwitchUserIndex@CCastleSiege@@QAEHH@Z:PROC ; CCastleSiege::GetCrownSwitchUserIndex
EXTRN	?g_CastleSiege@@3VCCastleSiege@@A:BYTE		; g_CastleSiege
; Function compile flags: /Odtp /ZI
_TEXT	SEGMENT
_iCrownIndex$229305 = -28				; size = 4
_iCrownIndex2$229298 = -24				; size = 4
_iCrownIndex1$229297 = -20				; size = 4
_n$229290 = -16						; size = 4
_lpTarget$ = -12					; size = 4
_lpUser$ = -8						; size = 4
_this$ = -4						; size = 4
_aIndex$ = 8						; size = 4
_aTargetIndex$ = 12					; size = 4
?PlayerKill@CAchievements@@QAEXHH@Z PROC		; CAchievements::PlayerKill
; _this$ = ecx

; 549  : {

  01f50	55		 push	 ebp
  01f51	8b ec		 mov	 ebp, esp
  01f53	83 ec 5c	 sub	 esp, 92			; 0000005cH
  01f56	53		 push	 ebx
  01f57	56		 push	 esi
  01f58	57		 push	 edi
  01f59	89 4d fc	 mov	 DWORD PTR _this$[ebp], ecx

; 550  : 	if(!this->bEnable)

  01f5c	8b 45 fc	 mov	 eax, DWORD PTR _this$[ebp]
  01f5f	0f b6 48 14	 movzx	 ecx, BYTE PTR [eax+20]
  01f63	85 c9		 test	 ecx, ecx
  01f65	75 05		 jne	 SHORT $LN25@PlayerKill

; 551  : 	{
; 552  : 		return;

  01f67	e9 69 03 00 00	 jmp	 $LN26@PlayerKill
$LN25@PlayerKill:

; 553  : 	}
; 554  : 
; 555  : 	if(!gObjIsConnected(aIndex) || !gObjIsConnected(aTargetIndex))

  01f6c	8b 45 08	 mov	 eax, DWORD PTR _aIndex$[ebp]
  01f6f	50		 push	 eax
  01f70	e8 00 00 00 00	 call	 ?gObjIsConnected@@YAHH@Z ; gObjIsConnected
  01f75	83 c4 04	 add	 esp, 4
  01f78	85 c0		 test	 eax, eax
  01f7a	74 10		 je	 SHORT $LN23@PlayerKill
  01f7c	8b 45 0c	 mov	 eax, DWORD PTR _aTargetIndex$[ebp]
  01f7f	50		 push	 eax
  01f80	e8 00 00 00 00	 call	 ?gObjIsConnected@@YAHH@Z ; gObjIsConnected
  01f85	83 c4 04	 add	 esp, 4
  01f88	85 c0		 test	 eax, eax
  01f8a	75 05		 jne	 SHORT $LN24@PlayerKill
$LN23@PlayerKill:

; 556  : 	{
; 557  : 		return;

  01f8c	e9 44 03 00 00	 jmp	 $LN26@PlayerKill
$LN24@PlayerKill:

; 558  : 	}
; 559  : 
; 560  : 	LPOBJ lpUser = &gObj[aIndex];

  01f91	8b 45 08	 mov	 eax, DWORD PTR _aIndex$[ebp]
  01f94	69 c0 38 2b 00
	00		 imul	 eax, 11064		; 00002b38H
  01f9a	03 05 00 00 00
	00		 add	 eax, DWORD PTR ?gObj@@3PAUOBJECTSTRUCT@@A ; gObj
  01fa0	89 45 f8	 mov	 DWORD PTR _lpUser$[ebp], eax

; 561  : 	LPOBJ lpTarget = &gObj[aTargetIndex];

  01fa3	8b 45 0c	 mov	 eax, DWORD PTR _aTargetIndex$[ebp]
  01fa6	69 c0 38 2b 00
	00		 imul	 eax, 11064		; 00002b38H
  01fac	03 05 00 00 00
	00		 add	 eax, DWORD PTR ?gObj@@3PAUOBJECTSTRUCT@@A ; gObj
  01fb2	89 45 f4	 mov	 DWORD PTR _lpTarget$[ebp], eax

; 562  : 
; 563  : 	if(!lpUser->ach.bLoaded)

  01fb5	8b 45 f8	 mov	 eax, DWORD PTR _lpUser$[ebp]
  01fb8	0f b6 88 20 29
	00 00		 movzx	 ecx, BYTE PTR [eax+10528]
  01fbf	85 c9		 test	 ecx, ecx
  01fc1	75 05		 jne	 SHORT $LN22@PlayerKill

; 564  : 	{
; 565  : 		return;

  01fc3	e9 0d 03 00 00	 jmp	 $LN26@PlayerKill
$LN22@PlayerKill:

; 566  : 	}
; 567  : 
; 568  : 	//i5_PlayerKill
; 569  : 	if(this->m_config.i5_PlayerKill > lpUser->ach.mission.i5_PlayerKill)

  01fc8	8b 45 fc	 mov	 eax, DWORD PTR _this$[ebp]
  01fcb	8b 4d f8	 mov	 ecx, DWORD PTR _lpUser$[ebp]
  01fce	8b 50 28	 mov	 edx, DWORD PTR [eax+40]
  01fd1	3b 91 40 29 00
	00		 cmp	 edx, DWORD PTR [ecx+10560]
  01fd7	76 3c		 jbe	 SHORT $LN21@PlayerKill

; 570  : 	{
; 571  : 		lpUser->ach.mission.i5_PlayerKill++;

  01fd9	8b 45 f8	 mov	 eax, DWORD PTR _lpUser$[ebp]
  01fdc	8b 88 40 29 00
	00		 mov	 ecx, DWORD PTR [eax+10560]
  01fe2	83 c1 01	 add	 ecx, 1
  01fe5	8b 55 f8	 mov	 edx, DWORD PTR _lpUser$[ebp]
  01fe8	89 8a 40 29 00
	00		 mov	 DWORD PTR [edx+10560], ecx

; 572  : 		this->PlayerReward(aIndex, this->m_config.i5_PlayerKill, lpUser->ach.mission.i5_PlayerKill, this->m_reward.i5_PlayerKill);

  01fee	8b 45 fc	 mov	 eax, DWORD PTR _this$[ebp]
  01ff1	8b 88 f0 00 00
	00		 mov	 ecx, DWORD PTR [eax+240]
  01ff7	51		 push	 ecx
  01ff8	8b 55 f8	 mov	 edx, DWORD PTR _lpUser$[ebp]
  01ffb	8b 82 40 29 00
	00		 mov	 eax, DWORD PTR [edx+10560]
  02001	50		 push	 eax
  02002	8b 4d fc	 mov	 ecx, DWORD PTR _this$[ebp]
  02005	8b 51 28	 mov	 edx, DWORD PTR [ecx+40]
  02008	52		 push	 edx
  02009	8b 45 08	 mov	 eax, DWORD PTR _aIndex$[ebp]
  0200c	50		 push	 eax
  0200d	8b 4d fc	 mov	 ecx, DWORD PTR _this$[ebp]
  02010	e8 00 00 00 00	 call	 ?PlayerReward@CAchievements@@QAEXHHHH@Z ; CAchievements::PlayerReward
$LN21@PlayerKill:

; 573  : 	}
; 574  : 	//i25_PhonomanKill
; 575  : 	if(this->m_config.i25_PhonomanKill > lpUser->ach.mission.i25_PhonomanKill)

  02015	8b 45 fc	 mov	 eax, DWORD PTR _this$[ebp]
  02018	8b 4d f8	 mov	 ecx, DWORD PTR _lpUser$[ebp]
  0201b	8b 50 78	 mov	 edx, DWORD PTR [eax+120]
  0201e	3b 91 90 29 00
	00		 cmp	 edx, DWORD PTR [ecx+10640]
  02024	76 4b		 jbe	 SHORT $LN20@PlayerKill

; 576  : 	{
; 577  : 		if(lpTarget->m_PK_Level >= 6)

  02026	8b 45 f4	 mov	 eax, DWORD PTR _lpTarget$[ebp]
  02029	0f be 88 3d 01
	00 00		 movsx	 ecx, BYTE PTR [eax+317]
  02030	83 f9 06	 cmp	 ecx, 6
  02033	7c 3c		 jl	 SHORT $LN20@PlayerKill

; 578  : 		{
; 579  : 			lpUser->ach.mission.i25_PhonomanKill++;

  02035	8b 45 f8	 mov	 eax, DWORD PTR _lpUser$[ebp]
  02038	8b 88 90 29 00
	00		 mov	 ecx, DWORD PTR [eax+10640]
  0203e	83 c1 01	 add	 ecx, 1
  02041	8b 55 f8	 mov	 edx, DWORD PTR _lpUser$[ebp]
  02044	89 8a 90 29 00
	00		 mov	 DWORD PTR [edx+10640], ecx

; 580  : 			this->PlayerReward(aIndex, this->m_config.i25_PhonomanKill, lpUser->ach.mission.i25_PhonomanKill, this->m_reward.i25_PhonomanKill);

  0204a	8b 45 fc	 mov	 eax, DWORD PTR _this$[ebp]
  0204d	8b 88 40 01 00
	00		 mov	 ecx, DWORD PTR [eax+320]
  02053	51		 push	 ecx
  02054	8b 55 f8	 mov	 edx, DWORD PTR _lpUser$[ebp]
  02057	8b 82 90 29 00
	00		 mov	 eax, DWORD PTR [edx+10640]
  0205d	50		 push	 eax
  0205e	8b 4d fc	 mov	 ecx, DWORD PTR _this$[ebp]
  02061	8b 51 78	 mov	 edx, DWORD PTR [ecx+120]
  02064	52		 push	 edx
  02065	8b 45 08	 mov	 eax, DWORD PTR _aIndex$[ebp]
  02068	50		 push	 eax
  02069	8b 4d fc	 mov	 ecx, DWORD PTR _this$[ebp]
  0206c	e8 00 00 00 00	 call	 ?PlayerReward@CAchievements@@QAEXHHHH@Z ; CAchievements::PlayerReward
$LN20@PlayerKill:

; 581  : 		}
; 582  : 	}
; 583  : 	//i28_KillInSelf_Defense
; 584  : 	if(this->m_config.i28_KillInSelf_Defense > lpUser->ach.mission.i28_KillInSelf_Defense)

  02071	8b 45 fc	 mov	 eax, DWORD PTR _this$[ebp]
  02074	8b 4d f8	 mov	 ecx, DWORD PTR _lpUser$[ebp]
  02077	8b 90 84 00 00
	00		 mov	 edx, DWORD PTR [eax+132]
  0207d	3b 91 9c 29 00
	00		 cmp	 edx, DWORD PTR [ecx+10652]
  02083	76 7b		 jbe	 SHORT $LN18@PlayerKill

; 585  : 	{
; 586  : 		for(int n = 0; n < MAX_SELF_DEFENSE;n++)

  02085	c7 45 f0 00 00
	00 00		 mov	 DWORD PTR _n$229290[ebp], 0
  0208c	eb 09		 jmp	 SHORT $LN17@PlayerKill
$LN16@PlayerKill:
  0208e	8b 45 f0	 mov	 eax, DWORD PTR _n$229290[ebp]
  02091	83 c0 01	 add	 eax, 1
  02094	89 45 f0	 mov	 DWORD PTR _n$229290[ebp], eax
$LN17@PlayerKill:
  02097	83 7d f0 07	 cmp	 DWORD PTR _n$229290[ebp], 7
  0209b	7d 63		 jge	 SHORT $LN18@PlayerKill

; 587  : 		{
; 588  : 			if(lpUser->SelfDefense[n] >= 0)

  0209d	8b 45 f0	 mov	 eax, DWORD PTR _n$229290[ebp]
  020a0	8b 4d f8	 mov	 ecx, DWORD PTR _lpUser$[ebp]
  020a3	83 bc 81 e4 03
	00 00 00	 cmp	 DWORD PTR [ecx+eax*4+996], 0
  020ab	7c 51		 jl	 SHORT $LN14@PlayerKill

; 589  : 			{
; 590  : 				if(lpUser->SelfDefense[n] == aTargetIndex)

  020ad	8b 45 f0	 mov	 eax, DWORD PTR _n$229290[ebp]
  020b0	8b 4d f8	 mov	 ecx, DWORD PTR _lpUser$[ebp]
  020b3	8b 94 81 e4 03
	00 00		 mov	 edx, DWORD PTR [ecx+eax*4+996]
  020ba	3b 55 0c	 cmp	 edx, DWORD PTR _aTargetIndex$[ebp]
  020bd	75 3f		 jne	 SHORT $LN14@PlayerKill

; 591  : 				{
; 592  : 					lpUser->ach.mission.i28_KillInSelf_Defense++;

  020bf	8b 45 f8	 mov	 eax, DWORD PTR _lpUser$[ebp]
  020c2	8b 88 9c 29 00
	00		 mov	 ecx, DWORD PTR [eax+10652]
  020c8	83 c1 01	 add	 ecx, 1
  020cb	8b 55 f8	 mov	 edx, DWORD PTR _lpUser$[ebp]
  020ce	89 8a 9c 29 00
	00		 mov	 DWORD PTR [edx+10652], ecx

; 593  : 					this->PlayerReward(aIndex, this->m_config.i28_KillInSelf_Defense, lpUser->ach.mission.i28_KillInSelf_Defense, this->m_reward.i28_KillInSelf_Defense);

  020d4	8b 45 fc	 mov	 eax, DWORD PTR _this$[ebp]
  020d7	8b 88 4c 01 00
	00		 mov	 ecx, DWORD PTR [eax+332]
  020dd	51		 push	 ecx
  020de	8b 55 f8	 mov	 edx, DWORD PTR _lpUser$[ebp]
  020e1	8b 82 9c 29 00
	00		 mov	 eax, DWORD PTR [edx+10652]
  020e7	50		 push	 eax
  020e8	8b 4d fc	 mov	 ecx, DWORD PTR _this$[ebp]
  020eb	8b 91 84 00 00
	00		 mov	 edx, DWORD PTR [ecx+132]
  020f1	52		 push	 edx
  020f2	8b 45 08	 mov	 eax, DWORD PTR _aIndex$[ebp]
  020f5	50		 push	 eax
  020f6	8b 4d fc	 mov	 ecx, DWORD PTR _this$[ebp]
  020f9	e8 00 00 00 00	 call	 ?PlayerReward@CAchievements@@QAEXHHHH@Z ; CAchievements::PlayerReward
$LN14@PlayerKill:

; 594  : 				}
; 595  : 			}
; 596  : 		}

  020fe	eb 8e		 jmp	 SHORT $LN16@PlayerKill
$LN18@PlayerKill:

; 597  : 	}
; 598  : 	//i38_MovePlayerFromSwitch
; 599  : 	if(this->m_config.i38_MovePlayerFromSwitch > lpUser->ach.mission.i38_MovePlayerFromSwitch)

  02100	8b 45 fc	 mov	 eax, DWORD PTR _this$[ebp]
  02103	8b 4d f8	 mov	 ecx, DWORD PTR _lpUser$[ebp]
  02106	8b 90 ac 00 00
	00		 mov	 edx, DWORD PTR [eax+172]
  0210c	3b 91 c4 29 00
	00		 cmp	 edx, DWORD PTR [ecx+10692]
  02112	0f 86 d4 00 00
	00		 jbe	 $LN12@PlayerKill

; 600  : 	{
; 601  : 		int iCrownIndex1 = g_CastleSiege.GetCrownSwitchUserIndex(217);

  02118	68 d9 00 00 00	 push	 217			; 000000d9H
  0211d	b9 00 00 00 00	 mov	 ecx, OFFSET ?g_CastleSiege@@3VCCastleSiege@@A ; g_CastleSiege
  02122	e8 00 00 00 00	 call	 ?GetCrownSwitchUserIndex@CCastleSiege@@QAEHH@Z ; CCastleSiege::GetCrownSwitchUserIndex
  02127	89 45 ec	 mov	 DWORD PTR _iCrownIndex1$229297[ebp], eax

; 602  : 		int iCrownIndex2 = g_CastleSiege.GetCrownSwitchUserIndex(218);

  0212a	68 da 00 00 00	 push	 218			; 000000daH
  0212f	b9 00 00 00 00	 mov	 ecx, OFFSET ?g_CastleSiege@@3VCCastleSiege@@A ; g_CastleSiege
  02134	e8 00 00 00 00	 call	 ?GetCrownSwitchUserIndex@CCastleSiege@@QAEHH@Z ; CCastleSiege::GetCrownSwitchUserIndex
  02139	89 45 e8	 mov	 DWORD PTR _iCrownIndex2$229298[ebp], eax

; 603  : 
; 604  : 		if(gObjIsConnected(iCrownIndex1))

  0213c	8b 45 ec	 mov	 eax, DWORD PTR _iCrownIndex1$229297[ebp]
  0213f	50		 push	 eax
  02140	e8 00 00 00 00	 call	 ?gObjIsConnected@@YAHH@Z ; gObjIsConnected
  02145	83 c4 04	 add	 esp, 4
  02148	85 c0		 test	 eax, eax
  0214a	74 49		 je	 SHORT $LN11@PlayerKill

; 605  : 		{
; 606  : 			if(aTargetIndex == iCrownIndex1)

  0214c	8b 45 0c	 mov	 eax, DWORD PTR _aTargetIndex$[ebp]
  0214f	3b 45 ec	 cmp	 eax, DWORD PTR _iCrownIndex1$229297[ebp]
  02152	75 3f		 jne	 SHORT $LN10@PlayerKill

; 607  : 			{
; 608  : 				lpUser->ach.mission.i38_MovePlayerFromSwitch++;

  02154	8b 45 f8	 mov	 eax, DWORD PTR _lpUser$[ebp]
  02157	8b 88 c4 29 00
	00		 mov	 ecx, DWORD PTR [eax+10692]
  0215d	83 c1 01	 add	 ecx, 1
  02160	8b 55 f8	 mov	 edx, DWORD PTR _lpUser$[ebp]
  02163	89 8a c4 29 00
	00		 mov	 DWORD PTR [edx+10692], ecx

; 609  : 				this->PlayerReward(aIndex, this->m_config.i38_MovePlayerFromSwitch, lpUser->ach.mission.i38_MovePlayerFromSwitch, this->m_reward.i38_MovePlayerFromSwitch);

  02169	8b 45 fc	 mov	 eax, DWORD PTR _this$[ebp]
  0216c	8b 88 74 01 00
	00		 mov	 ecx, DWORD PTR [eax+372]
  02172	51		 push	 ecx
  02173	8b 55 f8	 mov	 edx, DWORD PTR _lpUser$[ebp]
  02176	8b 82 c4 29 00
	00		 mov	 eax, DWORD PTR [edx+10692]
  0217c	50		 push	 eax
  0217d	8b 4d fc	 mov	 ecx, DWORD PTR _this$[ebp]
  02180	8b 91 ac 00 00
	00		 mov	 edx, DWORD PTR [ecx+172]
  02186	52		 push	 edx
  02187	8b 45 08	 mov	 eax, DWORD PTR _aIndex$[ebp]
  0218a	50		 push	 eax
  0218b	8b 4d fc	 mov	 ecx, DWORD PTR _this$[ebp]
  0218e	e8 00 00 00 00	 call	 ?PlayerReward@CAchievements@@QAEXHHHH@Z ; CAchievements::PlayerReward
$LN10@PlayerKill:

; 610  : 			}
; 611  : 		}

  02193	eb 57		 jmp	 SHORT $LN12@PlayerKill
$LN11@PlayerKill:

; 612  : 		else if(gObjIsConnected(iCrownIndex2))

  02195	8b 45 e8	 mov	 eax, DWORD PTR _iCrownIndex2$229298[ebp]
  02198	50		 push	 eax
  02199	e8 00 00 00 00	 call	 ?gObjIsConnected@@YAHH@Z ; gObjIsConnected
  0219e	83 c4 04	 add	 esp, 4
  021a1	85 c0		 test	 eax, eax
  021a3	74 47		 je	 SHORT $LN12@PlayerKill

; 613  : 		{
; 614  : 			if(aTargetIndex == iCrownIndex2)

  021a5	8b 45 0c	 mov	 eax, DWORD PTR _aTargetIndex$[ebp]
  021a8	3b 45 e8	 cmp	 eax, DWORD PTR _iCrownIndex2$229298[ebp]
  021ab	75 3f		 jne	 SHORT $LN12@PlayerKill

; 615  : 			{
; 616  : 				lpUser->ach.mission.i38_MovePlayerFromSwitch++;

  021ad	8b 45 f8	 mov	 eax, DWORD PTR _lpUser$[ebp]
  021b0	8b 88 c4 29 00
	00		 mov	 ecx, DWORD PTR [eax+10692]
  021b6	83 c1 01	 add	 ecx, 1
  021b9	8b 55 f8	 mov	 edx, DWORD PTR _lpUser$[ebp]
  021bc	89 8a c4 29 00
	00		 mov	 DWORD PTR [edx+10692], ecx

; 617  : 				this->PlayerReward(aIndex, this->m_config.i38_MovePlayerFromSwitch, lpUser->ach.mission.i38_MovePlayerFromSwitch, this->m_reward.i38_MovePlayerFromSwitch);

  021c2	8b 45 fc	 mov	 eax, DWORD PTR _this$[ebp]
  021c5	8b 88 74 01 00
	00		 mov	 ecx, DWORD PTR [eax+372]
  021cb	51		 push	 ecx
  021cc	8b 55 f8	 mov	 edx, DWORD PTR _lpUser$[ebp]
  021cf	8b 82 c4 29 00
	00		 mov	 eax, DWORD PTR [edx+10692]
  021d5	50		 push	 eax
  021d6	8b 4d fc	 mov	 ecx, DWORD PTR _this$[ebp]
  021d9	8b 91 ac 00 00
	00		 mov	 edx, DWORD PTR [ecx+172]
  021df	52		 push	 edx
  021e0	8b 45 08	 mov	 eax, DWORD PTR _aIndex$[ebp]
  021e3	50		 push	 eax
  021e4	8b 4d fc	 mov	 ecx, DWORD PTR _this$[ebp]
  021e7	e8 00 00 00 00	 call	 ?PlayerReward@CAchievements@@QAEXHHHH@Z ; CAchievements::PlayerReward
$LN12@PlayerKill:

; 618  : 			}
; 619  : 		}
; 620  : 	}	
; 621  : 	//i40_MovePlayerFromCrownkill
; 622  : 	if(this->m_config.i40_MovePlayerFromCrown > lpUser->ach.mission.i40_MovePlayerFromCrown)

  021ec	8b 45 fc	 mov	 eax, DWORD PTR _this$[ebp]
  021ef	8b 4d f8	 mov	 ecx, DWORD PTR _lpUser$[ebp]
  021f2	8b 90 b4 00 00
	00		 mov	 edx, DWORD PTR [eax+180]
  021f8	3b 91 cc 29 00
	00		 cmp	 edx, DWORD PTR [ecx+10700]
  021fe	76 64		 jbe	 SHORT $LN6@PlayerKill

; 623  : 	{
; 624  : 		int iCrownIndex = g_CastleSiege.GetCrownUserIndex();

  02200	b9 00 00 00 00	 mov	 ecx, OFFSET ?g_CastleSiege@@3VCCastleSiege@@A ; g_CastleSiege
  02205	e8 00 00 00 00	 call	 ?GetCrownUserIndex@CCastleSiege@@QAEHXZ ; CCastleSiege::GetCrownUserIndex
  0220a	89 45 e4	 mov	 DWORD PTR _iCrownIndex$229305[ebp], eax

; 625  : 		if(gObjIsConnected(iCrownIndex))

  0220d	8b 45 e4	 mov	 eax, DWORD PTR _iCrownIndex$229305[ebp]
  02210	50		 push	 eax
  02211	e8 00 00 00 00	 call	 ?gObjIsConnected@@YAHH@Z ; gObjIsConnected
  02216	83 c4 04	 add	 esp, 4
  02219	85 c0		 test	 eax, eax
  0221b	74 47		 je	 SHORT $LN6@PlayerKill

; 626  : 		{
; 627  : 			if(iCrownIndex == aTargetIndex)

  0221d	8b 45 e4	 mov	 eax, DWORD PTR _iCrownIndex$229305[ebp]
  02220	3b 45 0c	 cmp	 eax, DWORD PTR _aTargetIndex$[ebp]
  02223	75 3f		 jne	 SHORT $LN6@PlayerKill

; 628  : 			{
; 629  : 				lpUser->ach.mission.i40_MovePlayerFromCrown++;

  02225	8b 45 f8	 mov	 eax, DWORD PTR _lpUser$[ebp]
  02228	8b 88 cc 29 00
	00		 mov	 ecx, DWORD PTR [eax+10700]
  0222e	83 c1 01	 add	 ecx, 1
  02231	8b 55 f8	 mov	 edx, DWORD PTR _lpUser$[ebp]
  02234	89 8a cc 29 00
	00		 mov	 DWORD PTR [edx+10700], ecx

; 630  : 				this->PlayerReward(aIndex, this->m_config.i40_MovePlayerFromCrown, lpUser->ach.mission.i40_MovePlayerFromCrown, this->m_reward.i40_MovePlayerFromCrown);

  0223a	8b 45 fc	 mov	 eax, DWORD PTR _this$[ebp]
  0223d	8b 88 7c 01 00
	00		 mov	 ecx, DWORD PTR [eax+380]
  02243	51		 push	 ecx
  02244	8b 55 f8	 mov	 edx, DWORD PTR _lpUser$[ebp]
  02247	8b 82 cc 29 00
	00		 mov	 eax, DWORD PTR [edx+10700]
  0224d	50		 push	 eax
  0224e	8b 4d fc	 mov	 ecx, DWORD PTR _this$[ebp]
  02251	8b 91 b4 00 00
	00		 mov	 edx, DWORD PTR [ecx+180]
  02257	52		 push	 edx
  02258	8b 45 08	 mov	 eax, DWORD PTR _aIndex$[ebp]
  0225b	50		 push	 eax
  0225c	8b 4d fc	 mov	 ecx, DWORD PTR _this$[ebp]
  0225f	e8 00 00 00 00	 call	 ?PlayerReward@CAchievements@@QAEXHHHH@Z ; CAchievements::PlayerReward
$LN6@PlayerKill:

; 631  : 			}
; 632  : 		}
; 633  : 	}
; 634  : 	//i43_KillPlayerCastleSiege
; 635  : 	if(this->m_config.i43_KillPlayerCastleSiege > lpUser->ach.mission.i43_KillPlayerCastleSiege)

  02264	8b 45 fc	 mov	 eax, DWORD PTR _this$[ebp]
  02267	8b 4d f8	 mov	 ecx, DWORD PTR _lpUser$[ebp]
  0226a	8b 90 c0 00 00
	00		 mov	 edx, DWORD PTR [eax+192]
  02270	3b 91 d8 29 00
	00		 cmp	 edx, DWORD PTR [ecx+10712]
  02276	76 5d		 jbe	 SHORT $LN26@PlayerKill

; 636  : 	{
; 637  : #if(GAMESERVER_ACHIVEMENTS==EXTEAM_SERVER || GAMESERVER_ACHIVEMENTS==ZTEAM_SERVER)
; 638  : 		if(lpUser->MapNumber == MAP_INDEX_CASTLESIEGE)

  02278	8b 45 f8	 mov	 eax, DWORD PTR _lpUser$[ebp]
  0227b	0f b6 88 49 01
	00 00		 movzx	 ecx, BYTE PTR [eax+329]
  02282	83 f9 1e	 cmp	 ecx, 30			; 0000001eH
  02285	75 4e		 jne	 SHORT $LN26@PlayerKill

; 639  : 		{
; 640  : 			if(g_CastleSiege.GetCastleState() == CASTLESIEGE_STATE_STARTSIEGE)

  02287	b9 00 00 00 00	 mov	 ecx, OFFSET ?g_CastleSiege@@3VCCastleSiege@@A ; g_CastleSiege
  0228c	e8 00 00 00 00	 call	 ?GetCastleState@CCastleSiege@@QAEHXZ ; CCastleSiege::GetCastleState
  02291	83 f8 07	 cmp	 eax, 7
  02294	75 3f		 jne	 SHORT $LN26@PlayerKill

; 641  : 			{
; 642  : 				lpUser->ach.mission.i43_KillPlayerCastleSiege++;

  02296	8b 45 f8	 mov	 eax, DWORD PTR _lpUser$[ebp]
  02299	8b 88 d8 29 00
	00		 mov	 ecx, DWORD PTR [eax+10712]
  0229f	83 c1 01	 add	 ecx, 1
  022a2	8b 55 f8	 mov	 edx, DWORD PTR _lpUser$[ebp]
  022a5	89 8a d8 29 00
	00		 mov	 DWORD PTR [edx+10712], ecx

; 643  : 				this->PlayerReward(aIndex, this->m_config.i43_KillPlayerCastleSiege, lpUser->ach.mission.i43_KillPlayerCastleSiege, this->m_reward.i43_KillPlayerCastleSiege);

  022ab	8b 45 fc	 mov	 eax, DWORD PTR _this$[ebp]
  022ae	8b 88 88 01 00
	00		 mov	 ecx, DWORD PTR [eax+392]
  022b4	51		 push	 ecx
  022b5	8b 55 f8	 mov	 edx, DWORD PTR _lpUser$[ebp]
  022b8	8b 82 d8 29 00
	00		 mov	 eax, DWORD PTR [edx+10712]
  022be	50		 push	 eax
  022bf	8b 4d fc	 mov	 ecx, DWORD PTR _this$[ebp]
  022c2	8b 91 c0 00 00
	00		 mov	 edx, DWORD PTR [ecx+192]
  022c8	52		 push	 edx
  022c9	8b 45 08	 mov	 eax, DWORD PTR _aIndex$[ebp]
  022cc	50		 push	 eax
  022cd	8b 4d fc	 mov	 ecx, DWORD PTR _this$[ebp]
  022d0	e8 00 00 00 00	 call	 ?PlayerReward@CAchievements@@QAEXHHHH@Z ; CAchievements::PlayerReward
$LN26@PlayerKill:

; 644  : 			}
; 645  : 		}
; 646  : #else
; 647  : #if(GS_CASTLE==1)
; 648  : 		if(lpUser->MapNumber == MAP_INDEX_CASTLESIEGE)
; 649  : 		{
; 650  : 			if(g_CastleSiege.GetCastleState() == CASTLESIEGE_STATE_STARTSIEGE)
; 651  : 			{
; 652  : 				lpUser->ach.mission.i43_KillPlayerCastleSiege++;
; 653  : 				this->PlayerReward(aIndex, this->m_config.i43_KillPlayerCastleSiege, lpUser->ach.mission.i43_KillPlayerCastleSiege, this->m_reward.i43_KillPlayerCastleSiege);
; 654  : 			}
; 655  : 		}
; 656  : #endif
; 657  : #endif
; 658  : 	}
; 659  : }

  022d5	5f		 pop	 edi
  022d6	5e		 pop	 esi
  022d7	5b		 pop	 ebx
  022d8	8b e5		 mov	 esp, ebp
  022da	5d		 pop	 ebp
  022db	c2 08 00	 ret	 8
?PlayerKill@CAchievements@@QAEXHH@Z ENDP		; CAchievements::PlayerKill
; Function compile flags: /Odtp /ZI
; File d:\projects\exteam6.3\source\gameserver\gameserver\castlesiege.h
_TEXT	ENDS
;	COMDAT ?GetCastleState@CCastleSiege@@QAEHXZ
_TEXT	SEGMENT
_this$ = -4						; size = 4
?GetCastleState@CCastleSiege@@QAEHXZ PROC		; CCastleSiege::GetCastleState, COMDAT
; _this$ = ecx

; 314  : 	int GetCastleState(){return m_iCastleSiegeState;}

  00000	55		 push	 ebp
  00001	8b ec		 mov	 ebp, esp
  00003	83 ec 44	 sub	 esp, 68			; 00000044H
  00006	53		 push	 ebx
  00007	56		 push	 esi
  00008	57		 push	 edi
  00009	89 4d fc	 mov	 DWORD PTR _this$[ebp], ecx
  0000c	8b 45 fc	 mov	 eax, DWORD PTR _this$[ebp]
  0000f	8b 40 28	 mov	 eax, DWORD PTR [eax+40]
  00012	5f		 pop	 edi
  00013	5e		 pop	 esi
  00014	5b		 pop	 ebx
  00015	8b e5		 mov	 esp, ebp
  00017	5d		 pop	 ebp
  00018	c3		 ret	 0
?GetCastleState@CCastleSiege@@QAEHXZ ENDP		; CCastleSiege::GetCastleState
; Function compile flags: /Odtp /ZI
_TEXT	ENDS
;	COMDAT ?GetCrownUserIndex@CCastleSiege@@QAEHXZ
_TEXT	SEGMENT
_this$ = -4						; size = 4
?GetCrownUserIndex@CCastleSiege@@QAEHXZ PROC		; CCastleSiege::GetCrownUserIndex, COMDAT
; _this$ = ecx

; 390  : 	int GetCrownUserIndex(){return m_iCastleCrownAccessUser;}

  00000	55		 push	 ebp
  00001	8b ec		 mov	 ebp, esp
  00003	83 ec 44	 sub	 esp, 68			; 00000044H
  00006	53		 push	 ebx
  00007	56		 push	 esi
  00008	57		 push	 edi
  00009	89 4d fc	 mov	 DWORD PTR _this$[ebp], ecx
  0000c	8b 45 fc	 mov	 eax, DWORD PTR _this$[ebp]
  0000f	8b 80 f0 01 00
	00		 mov	 eax, DWORD PTR [eax+496]
  00015	5f		 pop	 edi
  00016	5e		 pop	 esi
  00017	5b		 pop	 ebx
  00018	8b e5		 mov	 esp, ebp
  0001a	5d		 pop	 ebp
  0001b	c3		 ret	 0
?GetCrownUserIndex@CCastleSiege@@QAEHXZ ENDP		; CCastleSiege::GetCrownUserIndex
_TEXT	ENDS
PUBLIC	?PickUp@CAchievements@@QAEXHHHHHH@Z		; CAchievements::PickUp
; Function compile flags: /Odtp /ZI
; File d:\projects\exteam6.3\source\gameserver\gameserver\achievements.cpp
_TEXT	SEGMENT
_lpUser$ = -8						; size = 4
_this$ = -4						; size = 4
_aIndex$ = 8						; size = 4
_iItemNum$ = 12						; size = 4
_iLevel$ = 16						; size = 4
_iExl$ = 20						; size = 4
_iAnc$ = 24						; size = 4
_iDur$ = 28						; size = 4
?PickUp@CAchievements@@QAEXHHHHHH@Z PROC		; CAchievements::PickUp
; _this$ = ecx

; 662  : {

  022e0	55		 push	 ebp
  022e1	8b ec		 mov	 ebp, esp
  022e3	83 ec 48	 sub	 esp, 72			; 00000048H
  022e6	53		 push	 ebx
  022e7	56		 push	 esi
  022e8	57		 push	 edi
  022e9	89 4d fc	 mov	 DWORD PTR _this$[ebp], ecx

; 663  : 	if(!this->bEnable)

  022ec	8b 45 fc	 mov	 eax, DWORD PTR _this$[ebp]
  022ef	0f b6 48 14	 movzx	 ecx, BYTE PTR [eax+20]
  022f3	85 c9		 test	 ecx, ecx
  022f5	75 05		 jne	 SHORT $LN17@PickUp

; 664  : 	{
; 665  : 		return;

  022f7	e9 ac 02 00 00	 jmp	 $LN18@PickUp
$LN17@PickUp:

; 666  : 	}
; 667  : 
; 668  : 	if(!gObjIsConnected(aIndex))

  022fc	8b 45 08	 mov	 eax, DWORD PTR _aIndex$[ebp]
  022ff	50		 push	 eax
  02300	e8 00 00 00 00	 call	 ?gObjIsConnected@@YAHH@Z ; gObjIsConnected
  02305	83 c4 04	 add	 esp, 4
  02308	85 c0		 test	 eax, eax
  0230a	75 05		 jne	 SHORT $LN16@PickUp

; 669  : 	{
; 670  : 		return;

  0230c	e9 97 02 00 00	 jmp	 $LN18@PickUp
$LN16@PickUp:

; 671  : 	}
; 672  : 
; 673  : 	LPOBJ lpUser = &gObj[aIndex];

  02311	8b 45 08	 mov	 eax, DWORD PTR _aIndex$[ebp]
  02314	69 c0 38 2b 00
	00		 imul	 eax, 11064		; 00002b38H
  0231a	03 05 00 00 00
	00		 add	 eax, DWORD PTR ?gObj@@3PAUOBJECTSTRUCT@@A ; gObj
  02320	89 45 f8	 mov	 DWORD PTR _lpUser$[ebp], eax

; 674  : 
; 675  : 	if(!lpUser->ach.bLoaded)

  02323	8b 45 f8	 mov	 eax, DWORD PTR _lpUser$[ebp]
  02326	0f b6 88 20 29
	00 00		 movzx	 ecx, BYTE PTR [eax+10528]
  0232d	85 c9		 test	 ecx, ecx
  0232f	75 05		 jne	 SHORT $LN15@PickUp

; 676  : 	{
; 677  : 		return;

  02331	e9 72 02 00 00	 jmp	 $LN18@PickUp
$LN15@PickUp:

; 678  : 	}
; 679  : 
; 680  : 	//i12_PickUpJewels
; 681  : 	if(this->m_config.i12_PickUpJewels > lpUser->ach.mission.i12_PickUpJewels)

  02336	8b 45 fc	 mov	 eax, DWORD PTR _this$[ebp]
  02339	8b 4d f8	 mov	 ecx, DWORD PTR _lpUser$[ebp]
  0233c	8b 50 44	 mov	 edx, DWORD PTR [eax+68]
  0233f	3b 91 5c 29 00
	00		 cmp	 edx, DWORD PTR [ecx+10588]
  02345	76 7b		 jbe	 SHORT $LN14@PickUp

; 682  : 	{
; 683  : 		if( iItemNum == ITEMGET(12, 15) ||
; 684  : 			iItemNum == ITEMGET(14, 13) ||
; 685  : 			iItemNum == ITEMGET(14, 14) ||
; 686  : 			iItemNum == ITEMGET(14, 16) ||
; 687  : 			iItemNum == ITEMGET(14, 22) ||
; 688  : 			iItemNum == ITEMGET(14, 31) ||
; 689  : 			iItemNum == ITEMGET(14, 42))

  02347	81 7d 0c 0f 18
	00 00		 cmp	 DWORD PTR _iItemNum$[ebp], 6159 ; 0000180fH
  0234e	74 36		 je	 SHORT $LN12@PickUp
  02350	81 7d 0c 0d 1c
	00 00		 cmp	 DWORD PTR _iItemNum$[ebp], 7181 ; 00001c0dH
  02357	74 2d		 je	 SHORT $LN12@PickUp
  02359	81 7d 0c 0e 1c
	00 00		 cmp	 DWORD PTR _iItemNum$[ebp], 7182 ; 00001c0eH
  02360	74 24		 je	 SHORT $LN12@PickUp
  02362	81 7d 0c 10 1c
	00 00		 cmp	 DWORD PTR _iItemNum$[ebp], 7184 ; 00001c10H
  02369	74 1b		 je	 SHORT $LN12@PickUp
  0236b	81 7d 0c 16 1c
	00 00		 cmp	 DWORD PTR _iItemNum$[ebp], 7190 ; 00001c16H
  02372	74 12		 je	 SHORT $LN12@PickUp
  02374	81 7d 0c 1f 1c
	00 00		 cmp	 DWORD PTR _iItemNum$[ebp], 7199 ; 00001c1fH
  0237b	74 09		 je	 SHORT $LN12@PickUp
  0237d	81 7d 0c 2a 1c
	00 00		 cmp	 DWORD PTR _iItemNum$[ebp], 7210 ; 00001c2aH
  02384	75 3c		 jne	 SHORT $LN14@PickUp
$LN12@PickUp:

; 690  : 		{
; 691  : 			lpUser->ach.mission.i12_PickUpJewels++;

  02386	8b 45 f8	 mov	 eax, DWORD PTR _lpUser$[ebp]
  02389	8b 88 5c 29 00
	00		 mov	 ecx, DWORD PTR [eax+10588]
  0238f	83 c1 01	 add	 ecx, 1
  02392	8b 55 f8	 mov	 edx, DWORD PTR _lpUser$[ebp]
  02395	89 8a 5c 29 00
	00		 mov	 DWORD PTR [edx+10588], ecx

; 692  : 			this->PlayerReward(aIndex, this->m_config.i12_PickUpJewels, lpUser->ach.mission.i12_PickUpJewels, this->m_reward.i12_PickUpJewels);

  0239b	8b 45 fc	 mov	 eax, DWORD PTR _this$[ebp]
  0239e	8b 88 0c 01 00
	00		 mov	 ecx, DWORD PTR [eax+268]
  023a4	51		 push	 ecx
  023a5	8b 55 f8	 mov	 edx, DWORD PTR _lpUser$[ebp]
  023a8	8b 82 5c 29 00
	00		 mov	 eax, DWORD PTR [edx+10588]
  023ae	50		 push	 eax
  023af	8b 4d fc	 mov	 ecx, DWORD PTR _this$[ebp]
  023b2	8b 51 44	 mov	 edx, DWORD PTR [ecx+68]
  023b5	52		 push	 edx
  023b6	8b 45 08	 mov	 eax, DWORD PTR _aIndex$[ebp]
  023b9	50		 push	 eax
  023ba	8b 4d fc	 mov	 ecx, DWORD PTR _this$[ebp]
  023bd	e8 00 00 00 00	 call	 ?PlayerReward@CAchievements@@QAEXHHHH@Z ; CAchievements::PlayerReward
$LN14@PickUp:

; 693  : 		}
; 694  : 	}
; 695  : 	//i16_PickUpZen
; 696  : 	if(this->m_config.i16_PickUpZen > lpUser->ach.mission.i16_PickUpZen)

  023c2	8b 45 fc	 mov	 eax, DWORD PTR _this$[ebp]
  023c5	8b 4d f8	 mov	 ecx, DWORD PTR _lpUser$[ebp]
  023c8	8b 50 54	 mov	 edx, DWORD PTR [eax+84]
  023cb	3b 91 6c 29 00
	00		 cmp	 edx, DWORD PTR [ecx+10604]
  023d1	76 45		 jbe	 SHORT $LN11@PickUp

; 697  : 	{
; 698  : 		if(iItemNum == ITEMGET(14,15))

  023d3	81 7d 0c 0f 1c
	00 00		 cmp	 DWORD PTR _iItemNum$[ebp], 7183 ; 00001c0fH
  023da	75 3c		 jne	 SHORT $LN11@PickUp

; 699  : 		{
; 700  : 			lpUser->ach.mission.i16_PickUpZen++;

  023dc	8b 45 f8	 mov	 eax, DWORD PTR _lpUser$[ebp]
  023df	8b 88 6c 29 00
	00		 mov	 ecx, DWORD PTR [eax+10604]
  023e5	83 c1 01	 add	 ecx, 1
  023e8	8b 55 f8	 mov	 edx, DWORD PTR _lpUser$[ebp]
  023eb	89 8a 6c 29 00
	00		 mov	 DWORD PTR [edx+10604], ecx

; 701  : 			this->PlayerReward(aIndex, this->m_config.i16_PickUpZen, lpUser->ach.mission.i16_PickUpZen, this->m_reward.i16_PickUpZen);

  023f1	8b 45 fc	 mov	 eax, DWORD PTR _this$[ebp]
  023f4	8b 88 1c 01 00
	00		 mov	 ecx, DWORD PTR [eax+284]
  023fa	51		 push	 ecx
  023fb	8b 55 f8	 mov	 edx, DWORD PTR _lpUser$[ebp]
  023fe	8b 82 6c 29 00
	00		 mov	 eax, DWORD PTR [edx+10604]
  02404	50		 push	 eax
  02405	8b 4d fc	 mov	 ecx, DWORD PTR _this$[ebp]
  02408	8b 51 54	 mov	 edx, DWORD PTR [ecx+84]
  0240b	52		 push	 edx
  0240c	8b 45 08	 mov	 eax, DWORD PTR _aIndex$[ebp]
  0240f	50		 push	 eax
  02410	8b 4d fc	 mov	 ecx, DWORD PTR _this$[ebp]
  02413	e8 00 00 00 00	 call	 ?PlayerReward@CAchievements@@QAEXHHHH@Z ; CAchievements::PlayerReward
$LN11@PickUp:

; 702  : 		}
; 703  : 	}
; 704  : 	//i17_PickUpExellent
; 705  : 	if(this->m_config.i17_PickUpExellent > lpUser->ach.mission.i17_PickUpExellent)

  02418	8b 45 fc	 mov	 eax, DWORD PTR _this$[ebp]
  0241b	8b 4d f8	 mov	 ecx, DWORD PTR _lpUser$[ebp]
  0241e	8b 50 58	 mov	 edx, DWORD PTR [eax+88]
  02421	3b 91 70 29 00
	00		 cmp	 edx, DWORD PTR [ecx+10608]
  02427	76 42		 jbe	 SHORT $LN9@PickUp

; 706  : 	{
; 707  : 		if(iExl > 0)

  02429	83 7d 14 00	 cmp	 DWORD PTR _iExl$[ebp], 0
  0242d	7e 3c		 jle	 SHORT $LN9@PickUp

; 708  : 		{
; 709  : 			lpUser->ach.mission.i17_PickUpExellent++;

  0242f	8b 45 f8	 mov	 eax, DWORD PTR _lpUser$[ebp]
  02432	8b 88 70 29 00
	00		 mov	 ecx, DWORD PTR [eax+10608]
  02438	83 c1 01	 add	 ecx, 1
  0243b	8b 55 f8	 mov	 edx, DWORD PTR _lpUser$[ebp]
  0243e	89 8a 70 29 00
	00		 mov	 DWORD PTR [edx+10608], ecx

; 710  : 			this->PlayerReward(aIndex, this->m_config.i17_PickUpExellent, lpUser->ach.mission.i17_PickUpExellent, this->m_reward.i17_PickUpExellent);

  02444	8b 45 fc	 mov	 eax, DWORD PTR _this$[ebp]
  02447	8b 88 20 01 00
	00		 mov	 ecx, DWORD PTR [eax+288]
  0244d	51		 push	 ecx
  0244e	8b 55 f8	 mov	 edx, DWORD PTR _lpUser$[ebp]
  02451	8b 82 70 29 00
	00		 mov	 eax, DWORD PTR [edx+10608]
  02457	50		 push	 eax
  02458	8b 4d fc	 mov	 ecx, DWORD PTR _this$[ebp]
  0245b	8b 51 58	 mov	 edx, DWORD PTR [ecx+88]
  0245e	52		 push	 edx
  0245f	8b 45 08	 mov	 eax, DWORD PTR _aIndex$[ebp]
  02462	50		 push	 eax
  02463	8b 4d fc	 mov	 ecx, DWORD PTR _this$[ebp]
  02466	e8 00 00 00 00	 call	 ?PlayerReward@CAchievements@@QAEXHHHH@Z ; CAchievements::PlayerReward
$LN9@PickUp:

; 711  : 		}
; 712  : 	}
; 713  : 	//i18_PickUpAncent
; 714  : 	if(this->m_config.i18_PickUpAncent > lpUser->ach.mission.i18_PickUpAncent)

  0246b	8b 45 fc	 mov	 eax, DWORD PTR _this$[ebp]
  0246e	8b 4d f8	 mov	 ecx, DWORD PTR _lpUser$[ebp]
  02471	8b 50 5c	 mov	 edx, DWORD PTR [eax+92]
  02474	3b 91 74 29 00
	00		 cmp	 edx, DWORD PTR [ecx+10612]
  0247a	76 42		 jbe	 SHORT $LN7@PickUp

; 715  : 	{
; 716  : 		if(iAnc > 0)

  0247c	83 7d 18 00	 cmp	 DWORD PTR _iAnc$[ebp], 0
  02480	7e 3c		 jle	 SHORT $LN7@PickUp

; 717  : 		{
; 718  : 			lpUser->ach.mission.i18_PickUpAncent++;

  02482	8b 45 f8	 mov	 eax, DWORD PTR _lpUser$[ebp]
  02485	8b 88 74 29 00
	00		 mov	 ecx, DWORD PTR [eax+10612]
  0248b	83 c1 01	 add	 ecx, 1
  0248e	8b 55 f8	 mov	 edx, DWORD PTR _lpUser$[ebp]
  02491	89 8a 74 29 00
	00		 mov	 DWORD PTR [edx+10612], ecx

; 719  : 			this->PlayerReward(aIndex, this->m_config.i18_PickUpAncent, lpUser->ach.mission.i18_PickUpAncent, this->m_reward.i18_PickUpAncent);

  02497	8b 45 fc	 mov	 eax, DWORD PTR _this$[ebp]
  0249a	8b 88 24 01 00
	00		 mov	 ecx, DWORD PTR [eax+292]
  024a0	51		 push	 ecx
  024a1	8b 55 f8	 mov	 edx, DWORD PTR _lpUser$[ebp]
  024a4	8b 82 74 29 00
	00		 mov	 eax, DWORD PTR [edx+10612]
  024aa	50		 push	 eax
  024ab	8b 4d fc	 mov	 ecx, DWORD PTR _this$[ebp]
  024ae	8b 51 5c	 mov	 edx, DWORD PTR [ecx+92]
  024b1	52		 push	 edx
  024b2	8b 45 08	 mov	 eax, DWORD PTR _aIndex$[ebp]
  024b5	50		 push	 eax
  024b6	8b 4d fc	 mov	 ecx, DWORD PTR _this$[ebp]
  024b9	e8 00 00 00 00	 call	 ?PlayerReward@CAchievements@@QAEXHHHH@Z ; CAchievements::PlayerReward
$LN7@PickUp:

; 720  : 		}
; 721  : 	}
; 722  : 	//i48_PickUpSing
; 723  : 	if(this->m_config.i48_PickUpRena > lpUser->ach.mission.i48_PickUpRena)

  024be	8b 45 fc	 mov	 eax, DWORD PTR _this$[ebp]
  024c1	8b 4d f8	 mov	 ecx, DWORD PTR _lpUser$[ebp]
  024c4	8b 90 d4 00 00
	00		 mov	 edx, DWORD PTR [eax+212]
  024ca	3b 91 ec 29 00
	00		 cmp	 edx, DWORD PTR [ecx+10732]
  024d0	76 4e		 jbe	 SHORT $LN5@PickUp

; 724  : 	{
; 725  : 		if(iItemNum == ITEMGET(14,21) && iLevel == 0)

  024d2	81 7d 0c 15 1c
	00 00		 cmp	 DWORD PTR _iItemNum$[ebp], 7189 ; 00001c15H
  024d9	75 45		 jne	 SHORT $LN5@PickUp
  024db	83 7d 10 00	 cmp	 DWORD PTR _iLevel$[ebp], 0
  024df	75 3f		 jne	 SHORT $LN5@PickUp

; 726  : 		{
; 727  : 			lpUser->ach.mission.i48_PickUpRena++;

  024e1	8b 45 f8	 mov	 eax, DWORD PTR _lpUser$[ebp]
  024e4	8b 88 ec 29 00
	00		 mov	 ecx, DWORD PTR [eax+10732]
  024ea	83 c1 01	 add	 ecx, 1
  024ed	8b 55 f8	 mov	 edx, DWORD PTR _lpUser$[ebp]
  024f0	89 8a ec 29 00
	00		 mov	 DWORD PTR [edx+10732], ecx

; 728  : 			this->PlayerReward(aIndex, this->m_config.i48_PickUpRena, lpUser->ach.mission.i48_PickUpRena, this->m_reward.i48_PickUpRena);

  024f6	8b 45 fc	 mov	 eax, DWORD PTR _this$[ebp]
  024f9	8b 88 9c 01 00
	00		 mov	 ecx, DWORD PTR [eax+412]
  024ff	51		 push	 ecx
  02500	8b 55 f8	 mov	 edx, DWORD PTR _lpUser$[ebp]
  02503	8b 82 ec 29 00
	00		 mov	 eax, DWORD PTR [edx+10732]
  02509	50		 push	 eax
  0250a	8b 4d fc	 mov	 ecx, DWORD PTR _this$[ebp]
  0250d	8b 91 d4 00 00
	00		 mov	 edx, DWORD PTR [ecx+212]
  02513	52		 push	 edx
  02514	8b 45 08	 mov	 eax, DWORD PTR _aIndex$[ebp]
  02517	50		 push	 eax
  02518	8b 4d fc	 mov	 ecx, DWORD PTR _this$[ebp]
  0251b	e8 00 00 00 00	 call	 ?PlayerReward@CAchievements@@QAEXHHHH@Z ; CAchievements::PlayerReward
$LN5@PickUp:

; 729  : 		}
; 730  : 	}
; 731  : 	//i49_PickUpLuckyCoins Sing of lord
; 732  : 	if(this->m_config.i49_PickUpLuckyCoins > lpUser->ach.mission.i49_PickUpLuckyCoins)

  02520	8b 45 fc	 mov	 eax, DWORD PTR _this$[ebp]
  02523	8b 4d f8	 mov	 ecx, DWORD PTR _lpUser$[ebp]
  02526	8b 90 d8 00 00
	00		 mov	 edx, DWORD PTR [eax+216]
  0252c	3b 91 f0 29 00
	00		 cmp	 edx, DWORD PTR [ecx+10736]
  02532	76 74		 jbe	 SHORT $LN18@PickUp

; 733  : 	{
; 734  : 		//if(iItemNum == ITEMGET(14,100))
; 735  : 		if(iItemNum == ITEMGET(14,21) && iLevel == 3)

  02534	81 7d 0c 15 1c
	00 00		 cmp	 DWORD PTR _iItemNum$[ebp], 7189 ; 00001c15H
  0253b	75 6b		 jne	 SHORT $LN18@PickUp
  0253d	83 7d 10 03	 cmp	 DWORD PTR _iLevel$[ebp], 3
  02541	75 65		 jne	 SHORT $LN18@PickUp

; 736  : 		{
; 737  : 			//lpUser->ach.mission.i49_PickUpLuckyCoins++;
; 738  : 			lpUser->ach.mission.i49_PickUpLuckyCoins += iDur;

  02543	8b 45 f8	 mov	 eax, DWORD PTR _lpUser$[ebp]
  02546	8b 88 f0 29 00
	00		 mov	 ecx, DWORD PTR [eax+10736]
  0254c	03 4d 1c	 add	 ecx, DWORD PTR _iDur$[ebp]
  0254f	8b 55 f8	 mov	 edx, DWORD PTR _lpUser$[ebp]
  02552	89 8a f0 29 00
	00		 mov	 DWORD PTR [edx+10736], ecx

; 739  : 
; 740  : 			if(lpUser->ach.mission.i49_PickUpLuckyCoins > this->m_config.i49_PickUpLuckyCoins)

  02558	8b 45 f8	 mov	 eax, DWORD PTR _lpUser$[ebp]
  0255b	8b 4d fc	 mov	 ecx, DWORD PTR _this$[ebp]
  0255e	8b 90 f0 29 00
	00		 mov	 edx, DWORD PTR [eax+10736]
  02564	3b 91 d8 00 00
	00		 cmp	 edx, DWORD PTR [ecx+216]
  0256a	76 12		 jbe	 SHORT $LN1@PickUp

; 741  : 			{
; 742  : 				lpUser->ach.mission.i49_PickUpLuckyCoins = this->m_config.i49_PickUpLuckyCoins;

  0256c	8b 45 f8	 mov	 eax, DWORD PTR _lpUser$[ebp]
  0256f	8b 4d fc	 mov	 ecx, DWORD PTR _this$[ebp]
  02572	8b 91 d8 00 00
	00		 mov	 edx, DWORD PTR [ecx+216]
  02578	89 90 f0 29 00
	00		 mov	 DWORD PTR [eax+10736], edx
$LN1@PickUp:

; 743  : 			}
; 744  : 
; 745  : 			this->PlayerReward(aIndex, this->m_config.i49_PickUpLuckyCoins, lpUser->ach.mission.i49_PickUpLuckyCoins, this->m_reward.i49_PickUpLuckyCoins);

  0257e	8b 45 fc	 mov	 eax, DWORD PTR _this$[ebp]
  02581	8b 88 a0 01 00
	00		 mov	 ecx, DWORD PTR [eax+416]
  02587	51		 push	 ecx
  02588	8b 55 f8	 mov	 edx, DWORD PTR _lpUser$[ebp]
  0258b	8b 82 f0 29 00
	00		 mov	 eax, DWORD PTR [edx+10736]
  02591	50		 push	 eax
  02592	8b 4d fc	 mov	 ecx, DWORD PTR _this$[ebp]
  02595	8b 91 d8 00 00
	00		 mov	 edx, DWORD PTR [ecx+216]
  0259b	52		 push	 edx
  0259c	8b 45 08	 mov	 eax, DWORD PTR _aIndex$[ebp]
  0259f	50		 push	 eax
  025a0	8b 4d fc	 mov	 ecx, DWORD PTR _this$[ebp]
  025a3	e8 00 00 00 00	 call	 ?PlayerReward@CAchievements@@QAEXHHHH@Z ; CAchievements::PlayerReward
$LN18@PickUp:

; 746  : 		}
; 747  : 	}
; 748  : }

  025a8	5f		 pop	 edi
  025a9	5e		 pop	 esi
  025aa	5b		 pop	 ebx
  025ab	8b e5		 mov	 esp, ebp
  025ad	5d		 pop	 ebp
  025ae	c2 18 00	 ret	 24			; 00000018H
?PickUp@CAchievements@@QAEXHHHHHH@Z ENDP		; CAchievements::PickUp
_TEXT	ENDS
PUBLIC	?UsedJewel@CAchievements@@QAEXH@Z		; CAchievements::UsedJewel
; Function compile flags: /Odtp /ZI
_TEXT	SEGMENT
_lpUser$ = -8						; size = 4
_this$ = -4						; size = 4
_aIndex$ = 8						; size = 4
?UsedJewel@CAchievements@@QAEXH@Z PROC			; CAchievements::UsedJewel
; _this$ = ecx

; 751  : {

  025c0	55		 push	 ebp
  025c1	8b ec		 mov	 ebp, esp
  025c3	83 ec 48	 sub	 esp, 72			; 00000048H
  025c6	53		 push	 ebx
  025c7	56		 push	 esi
  025c8	57		 push	 edi
  025c9	89 4d fc	 mov	 DWORD PTR _this$[ebp], ecx

; 752  : 	if(!this->bEnable)

  025cc	8b 45 fc	 mov	 eax, DWORD PTR _this$[ebp]
  025cf	0f b6 48 14	 movzx	 ecx, BYTE PTR [eax+20]
  025d3	85 c9		 test	 ecx, ecx
  025d5	75 05		 jne	 SHORT $LN4@UsedJewel

; 753  : 	{
; 754  : 		return;

  025d7	e9 81 00 00 00	 jmp	 $LN5@UsedJewel
$LN4@UsedJewel:

; 755  : 	}
; 756  : 
; 757  : 	if(!gObjIsConnected(aIndex))

  025dc	8b 45 08	 mov	 eax, DWORD PTR _aIndex$[ebp]
  025df	50		 push	 eax
  025e0	e8 00 00 00 00	 call	 ?gObjIsConnected@@YAHH@Z ; gObjIsConnected
  025e5	83 c4 04	 add	 esp, 4
  025e8	85 c0		 test	 eax, eax
  025ea	75 02		 jne	 SHORT $LN3@UsedJewel

; 758  : 	{
; 759  : 		return;

  025ec	eb 6f		 jmp	 SHORT $LN5@UsedJewel
$LN3@UsedJewel:

; 760  : 	}
; 761  : 
; 762  : 	LPOBJ lpUser = &gObj[aIndex];

  025ee	8b 45 08	 mov	 eax, DWORD PTR _aIndex$[ebp]
  025f1	69 c0 38 2b 00
	00		 imul	 eax, 11064		; 00002b38H
  025f7	03 05 00 00 00
	00		 add	 eax, DWORD PTR ?gObj@@3PAUOBJECTSTRUCT@@A ; gObj
  025fd	89 45 f8	 mov	 DWORD PTR _lpUser$[ebp], eax

; 763  : 
; 764  : 	if(!lpUser->ach.bLoaded)

  02600	8b 45 f8	 mov	 eax, DWORD PTR _lpUser$[ebp]
  02603	0f b6 88 20 29
	00 00		 movzx	 ecx, BYTE PTR [eax+10528]
  0260a	85 c9		 test	 ecx, ecx
  0260c	75 02		 jne	 SHORT $LN2@UsedJewel

; 765  : 	{
; 766  : 		return;

  0260e	eb 4d		 jmp	 SHORT $LN5@UsedJewel
$LN2@UsedJewel:

; 767  : 	}
; 768  : 
; 769  : 	//i13_UsedJewels
; 770  : 	if(this->m_config.i13_UsedJewels > lpUser->ach.mission.i13_UsedJewels)

  02610	8b 45 fc	 mov	 eax, DWORD PTR _this$[ebp]
  02613	8b 4d f8	 mov	 ecx, DWORD PTR _lpUser$[ebp]
  02616	8b 50 48	 mov	 edx, DWORD PTR [eax+72]
  02619	3b 91 60 29 00
	00		 cmp	 edx, DWORD PTR [ecx+10592]
  0261f	76 3c		 jbe	 SHORT $LN5@UsedJewel

; 771  : 	{
; 772  : 		lpUser->ach.mission.i13_UsedJewels++;

  02621	8b 45 f8	 mov	 eax, DWORD PTR _lpUser$[ebp]
  02624	8b 88 60 29 00
	00		 mov	 ecx, DWORD PTR [eax+10592]
  0262a	83 c1 01	 add	 ecx, 1
  0262d	8b 55 f8	 mov	 edx, DWORD PTR _lpUser$[ebp]
  02630	89 8a 60 29 00
	00		 mov	 DWORD PTR [edx+10592], ecx

; 773  : 		this->PlayerReward(aIndex, this->m_config.i13_UsedJewels, lpUser->ach.mission.i13_UsedJewels, this->m_reward.i13_UsedJewels);

  02636	8b 45 fc	 mov	 eax, DWORD PTR _this$[ebp]
  02639	8b 88 10 01 00
	00		 mov	 ecx, DWORD PTR [eax+272]
  0263f	51		 push	 ecx
  02640	8b 55 f8	 mov	 edx, DWORD PTR _lpUser$[ebp]
  02643	8b 82 60 29 00
	00		 mov	 eax, DWORD PTR [edx+10592]
  02649	50		 push	 eax
  0264a	8b 4d fc	 mov	 ecx, DWORD PTR _this$[ebp]
  0264d	8b 51 48	 mov	 edx, DWORD PTR [ecx+72]
  02650	52		 push	 edx
  02651	8b 45 08	 mov	 eax, DWORD PTR _aIndex$[ebp]
  02654	50		 push	 eax
  02655	8b 4d fc	 mov	 ecx, DWORD PTR _this$[ebp]
  02658	e8 00 00 00 00	 call	 ?PlayerReward@CAchievements@@QAEXHHHH@Z ; CAchievements::PlayerReward
$LN5@UsedJewel:

; 774  : 	}
; 775  : }

  0265d	5f		 pop	 edi
  0265e	5e		 pop	 esi
  0265f	5b		 pop	 ebx
  02660	8b e5		 mov	 esp, ebp
  02662	5d		 pop	 ebp
  02663	c2 04 00	 ret	 4
?UsedJewel@CAchievements@@QAEXH@Z ENDP			; CAchievements::UsedJewel
_TEXT	ENDS
PUBLIC	?TimeInGame@CAchievements@@QAEXH@Z		; CAchievements::TimeInGame
; Function compile flags: /Odtp /ZI
_TEXT	SEGMENT
_iCrownIndex2$229359 = -16				; size = 4
_iCrownIndex1$229358 = -12				; size = 4
_lpUser$ = -8						; size = 4
_this$ = -4						; size = 4
_aIndex$ = 8						; size = 4
?TimeInGame@CAchievements@@QAEXH@Z PROC			; CAchievements::TimeInGame
; _this$ = ecx

; 778  : {

  02670	55		 push	 ebp
  02671	8b ec		 mov	 ebp, esp
  02673	83 ec 50	 sub	 esp, 80			; 00000050H
  02676	53		 push	 ebx
  02677	56		 push	 esi
  02678	57		 push	 edi
  02679	89 4d fc	 mov	 DWORD PTR _this$[ebp], ecx

; 779  : 	if(!this->bEnable)

  0267c	8b 45 fc	 mov	 eax, DWORD PTR _this$[ebp]
  0267f	0f b6 48 14	 movzx	 ecx, BYTE PTR [eax+20]
  02683	85 c9		 test	 ecx, ecx
  02685	75 05		 jne	 SHORT $LN15@TimeInGame

; 780  : 	{
; 781  : 		return;

  02687	e9 33 02 00 00	 jmp	 $LN16@TimeInGame
$LN15@TimeInGame:

; 782  : 	}
; 783  : 
; 784  : 	if(!gObjIsConnected(aIndex))

  0268c	8b 45 08	 mov	 eax, DWORD PTR _aIndex$[ebp]
  0268f	50		 push	 eax
  02690	e8 00 00 00 00	 call	 ?gObjIsConnected@@YAHH@Z ; gObjIsConnected
  02695	83 c4 04	 add	 esp, 4
  02698	85 c0		 test	 eax, eax
  0269a	75 05		 jne	 SHORT $LN14@TimeInGame

; 785  : 	{
; 786  : 		return;

  0269c	e9 1e 02 00 00	 jmp	 $LN16@TimeInGame
$LN14@TimeInGame:

; 787  : 	}
; 788  : 
; 789  : 	LPOBJ lpUser = &gObj[aIndex];

  026a1	8b 45 08	 mov	 eax, DWORD PTR _aIndex$[ebp]
  026a4	69 c0 38 2b 00
	00		 imul	 eax, 11064		; 00002b38H
  026aa	03 05 00 00 00
	00		 add	 eax, DWORD PTR ?gObj@@3PAUOBJECTSTRUCT@@A ; gObj
  026b0	89 45 f8	 mov	 DWORD PTR _lpUser$[ebp], eax

; 790  : 
; 791  : 	if(!lpUser->ach.bLoaded)

  026b3	8b 45 f8	 mov	 eax, DWORD PTR _lpUser$[ebp]
  026b6	0f b6 88 20 29
	00 00		 movzx	 ecx, BYTE PTR [eax+10528]
  026bd	85 c9		 test	 ecx, ecx
  026bf	75 05		 jne	 SHORT $LN13@TimeInGame

; 792  : 	{
; 793  : 		return;

  026c1	e9 f9 01 00 00	 jmp	 $LN16@TimeInGame
$LN13@TimeInGame:

; 794  : 	}
; 795  : 
; 796  : 	//i11_OnlineTime
; 797  : 	if(this->m_config.i11_OnlineTime > lpUser->ach.mission.i11_OnlineTime)

  026c6	8b 45 fc	 mov	 eax, DWORD PTR _this$[ebp]
  026c9	8b 4d f8	 mov	 ecx, DWORD PTR _lpUser$[ebp]
  026cc	8b 50 40	 mov	 edx, DWORD PTR [eax+64]
  026cf	3b 91 58 29 00
	00		 cmp	 edx, DWORD PTR [ecx+10584]
  026d5	76 6d		 jbe	 SHORT $LN12@TimeInGame

; 798  : 	{
; 799  : 		lpUser->ach.InGameTime++;

  026d7	8b 45 f8	 mov	 eax, DWORD PTR _lpUser$[ebp]
  026da	8b 88 24 29 00
	00		 mov	 ecx, DWORD PTR [eax+10532]
  026e0	83 c1 01	 add	 ecx, 1
  026e3	8b 55 f8	 mov	 edx, DWORD PTR _lpUser$[ebp]
  026e6	89 8a 24 29 00
	00		 mov	 DWORD PTR [edx+10532], ecx

; 800  : 		if(lpUser->ach.InGameTime >= 3600)

  026ec	8b 45 f8	 mov	 eax, DWORD PTR _lpUser$[ebp]
  026ef	81 b8 24 29 00
	00 10 0e 00 00	 cmp	 DWORD PTR [eax+10532], 3600 ; 00000e10H
  026f9	7c 49		 jl	 SHORT $LN12@TimeInGame

; 801  : 		{
; 802  : 			lpUser->ach.mission.i11_OnlineTime++;

  026fb	8b 45 f8	 mov	 eax, DWORD PTR _lpUser$[ebp]
  026fe	8b 88 58 29 00
	00		 mov	 ecx, DWORD PTR [eax+10584]
  02704	83 c1 01	 add	 ecx, 1
  02707	8b 55 f8	 mov	 edx, DWORD PTR _lpUser$[ebp]
  0270a	89 8a 58 29 00
	00		 mov	 DWORD PTR [edx+10584], ecx

; 803  : 			this->PlayerReward(aIndex, this->m_config.i11_OnlineTime, lpUser->ach.mission.i11_OnlineTime, this->m_reward.i11_OnlineTime);

  02710	8b 45 fc	 mov	 eax, DWORD PTR _this$[ebp]
  02713	8b 88 08 01 00
	00		 mov	 ecx, DWORD PTR [eax+264]
  02719	51		 push	 ecx
  0271a	8b 55 f8	 mov	 edx, DWORD PTR _lpUser$[ebp]
  0271d	8b 82 58 29 00
	00		 mov	 eax, DWORD PTR [edx+10584]
  02723	50		 push	 eax
  02724	8b 4d fc	 mov	 ecx, DWORD PTR _this$[ebp]
  02727	8b 51 40	 mov	 edx, DWORD PTR [ecx+64]
  0272a	52		 push	 edx
  0272b	8b 45 08	 mov	 eax, DWORD PTR _aIndex$[ebp]
  0272e	50		 push	 eax
  0272f	8b 4d fc	 mov	 ecx, DWORD PTR _this$[ebp]
  02732	e8 00 00 00 00	 call	 ?PlayerReward@CAchievements@@QAEXHHHH@Z ; CAchievements::PlayerReward

; 804  : 			lpUser->ach.InGameTime = 0;

  02737	8b 45 f8	 mov	 eax, DWORD PTR _lpUser$[ebp]
  0273a	c7 80 24 29 00
	00 00 00 00 00	 mov	 DWORD PTR [eax+10532], 0
$LN12@TimeInGame:

; 805  : 		}
; 806  : 	}
; 807  : 	//i39_WithstandSwitch10min
; 808  : 	if(this->m_config.i39_WithstandSwitch10min > lpUser->ach.mission.i39_WithstandSwitch10min)

  02744	8b 45 fc	 mov	 eax, DWORD PTR _this$[ebp]
  02747	8b 4d f8	 mov	 ecx, DWORD PTR _lpUser$[ebp]
  0274a	8b 90 b0 00 00
	00		 mov	 edx, DWORD PTR [eax+176]
  02750	3b 91 c8 29 00
	00		 cmp	 edx, DWORD PTR [ecx+10696]
  02756	0f 86 c1 00 00
	00		 jbe	 $LN10@TimeInGame

; 809  : 	{
; 810  : 		int iCrownIndex1 = g_CastleSiege.GetCrownSwitchUserIndex(217);

  0275c	68 d9 00 00 00	 push	 217			; 000000d9H
  02761	b9 00 00 00 00	 mov	 ecx, OFFSET ?g_CastleSiege@@3VCCastleSiege@@A ; g_CastleSiege
  02766	e8 00 00 00 00	 call	 ?GetCrownSwitchUserIndex@CCastleSiege@@QAEHH@Z ; CCastleSiege::GetCrownSwitchUserIndex
  0276b	89 45 f4	 mov	 DWORD PTR _iCrownIndex1$229358[ebp], eax

; 811  : 		int iCrownIndex2 = g_CastleSiege.GetCrownSwitchUserIndex(218);

  0276e	68 da 00 00 00	 push	 218			; 000000daH
  02773	b9 00 00 00 00	 mov	 ecx, OFFSET ?g_CastleSiege@@3VCCastleSiege@@A ; g_CastleSiege
  02778	e8 00 00 00 00	 call	 ?GetCrownSwitchUserIndex@CCastleSiege@@QAEHH@Z ; CCastleSiege::GetCrownSwitchUserIndex
  0277d	89 45 f0	 mov	 DWORD PTR _iCrownIndex2$229359[ebp], eax

; 812  : 
; 813  : 		if(gObjIsConnected(iCrownIndex1) || gObjIsConnected(iCrownIndex2))

  02780	8b 45 f4	 mov	 eax, DWORD PTR _iCrownIndex1$229358[ebp]
  02783	50		 push	 eax
  02784	e8 00 00 00 00	 call	 ?gObjIsConnected@@YAHH@Z ; gObjIsConnected
  02789	83 c4 04	 add	 esp, 4
  0278c	85 c0		 test	 eax, eax
  0278e	75 10		 jne	 SHORT $LN8@TimeInGame
  02790	8b 45 f0	 mov	 eax, DWORD PTR _iCrownIndex2$229359[ebp]
  02793	50		 push	 eax
  02794	e8 00 00 00 00	 call	 ?gObjIsConnected@@YAHH@Z ; gObjIsConnected
  02799	83 c4 04	 add	 esp, 4
  0279c	85 c0		 test	 eax, eax
  0279e	74 7d		 je	 SHORT $LN10@TimeInGame
$LN8@TimeInGame:

; 814  : 		{
; 815  : 			if(aIndex == iCrownIndex1 || aIndex == iCrownIndex2)

  027a0	8b 45 08	 mov	 eax, DWORD PTR _aIndex$[ebp]
  027a3	3b 45 f4	 cmp	 eax, DWORD PTR _iCrownIndex1$229358[ebp]
  027a6	74 08		 je	 SHORT $LN6@TimeInGame
  027a8	8b 45 08	 mov	 eax, DWORD PTR _aIndex$[ebp]
  027ab	3b 45 f0	 cmp	 eax, DWORD PTR _iCrownIndex2$229359[ebp]
  027ae	75 6d		 jne	 SHORT $LN10@TimeInGame
$LN6@TimeInGame:

; 816  : 			{
; 817  : 				lpUser->ach.CSSwitchTime++;

  027b0	8b 45 f8	 mov	 eax, DWORD PTR _lpUser$[ebp]
  027b3	8b 88 2c 29 00
	00		 mov	 ecx, DWORD PTR [eax+10540]
  027b9	83 c1 01	 add	 ecx, 1
  027bc	8b 55 f8	 mov	 edx, DWORD PTR _lpUser$[ebp]
  027bf	89 8a 2c 29 00
	00		 mov	 DWORD PTR [edx+10540], ecx

; 818  : 				if(lpUser->ach.CSSwitchTime >= 60)

  027c5	8b 45 f8	 mov	 eax, DWORD PTR _lpUser$[ebp]
  027c8	83 b8 2c 29 00
	00 3c		 cmp	 DWORD PTR [eax+10540], 60 ; 0000003cH
  027cf	7c 4c		 jl	 SHORT $LN10@TimeInGame

; 819  : 				{
; 820  : 					lpUser->ach.mission.i39_WithstandSwitch10min++;

  027d1	8b 45 f8	 mov	 eax, DWORD PTR _lpUser$[ebp]
  027d4	8b 88 c8 29 00
	00		 mov	 ecx, DWORD PTR [eax+10696]
  027da	83 c1 01	 add	 ecx, 1
  027dd	8b 55 f8	 mov	 edx, DWORD PTR _lpUser$[ebp]
  027e0	89 8a c8 29 00
	00		 mov	 DWORD PTR [edx+10696], ecx

; 821  : 					this->PlayerReward(aIndex, this->m_config.i39_WithstandSwitch10min, lpUser->ach.mission.i39_WithstandSwitch10min, this->m_reward.i39_WithstandSwitch10min);

  027e6	8b 45 fc	 mov	 eax, DWORD PTR _this$[ebp]
  027e9	8b 88 78 01 00
	00		 mov	 ecx, DWORD PTR [eax+376]
  027ef	51		 push	 ecx
  027f0	8b 55 f8	 mov	 edx, DWORD PTR _lpUser$[ebp]
  027f3	8b 82 c8 29 00
	00		 mov	 eax, DWORD PTR [edx+10696]
  027f9	50		 push	 eax
  027fa	8b 4d fc	 mov	 ecx, DWORD PTR _this$[ebp]
  027fd	8b 91 b0 00 00
	00		 mov	 edx, DWORD PTR [ecx+176]
  02803	52		 push	 edx
  02804	8b 45 08	 mov	 eax, DWORD PTR _aIndex$[ebp]
  02807	50		 push	 eax
  02808	8b 4d fc	 mov	 ecx, DWORD PTR _this$[ebp]
  0280b	e8 00 00 00 00	 call	 ?PlayerReward@CAchievements@@QAEXHHHH@Z ; CAchievements::PlayerReward

; 822  : 					lpUser->ach.CSSwitchTime = 0;

  02810	8b 45 f8	 mov	 eax, DWORD PTR _lpUser$[ebp]
  02813	c7 80 2c 29 00
	00 00 00 00 00	 mov	 DWORD PTR [eax+10540], 0
$LN10@TimeInGame:

; 823  : 				}
; 824  : 			}
; 825  : 		}
; 826  : 	}
; 827  : 	//i50_OfflineAttackTime
; 828  : 	if(this->m_config.i50_OfflineAttackTime > lpUser->ach.mission.i50_OfflineAttackTime)

  0281d	8b 45 fc	 mov	 eax, DWORD PTR _this$[ebp]
  02820	8b 4d f8	 mov	 ecx, DWORD PTR _lpUser$[ebp]
  02823	8b 90 dc 00 00
	00		 mov	 edx, DWORD PTR [eax+220]
  02829	3b 91 f4 29 00
	00		 cmp	 edx, DWORD PTR [ecx+10740]
  0282f	0f 86 8a 00 00
	00		 jbe	 $LN16@TimeInGame

; 829  : 	{
; 830  : #if(GAMESERVER_ACHIVEMENTS==EXTEAM_SERVER)
; 831  : 		if(lpUser->m_OfflineMode || lpUser->OffExp)

  02835	8b 45 f8	 mov	 eax, DWORD PTR _lpUser$[ebp]
  02838	0f b6 88 d4 28
	00 00		 movzx	 ecx, BYTE PTR [eax+10452]
  0283f	85 c9		 test	 ecx, ecx
  02841	75 0c		 jne	 SHORT $LN2@TimeInGame
  02843	8b 45 f8	 mov	 eax, DWORD PTR _lpUser$[ebp]
  02846	83 b8 98 22 00
	00 00		 cmp	 DWORD PTR [eax+8856], 0
  0284d	74 70		 je	 SHORT $LN16@TimeInGame
$LN2@TimeInGame:

; 832  : #endif
; 833  : #if(GAMESERVER_ACHIVEMENTS==EXGAME_SERVER)
; 834  : 		if(lpUser->m_OfflineMode)
; 835  : #endif
; 836  : #if(GAMESERVER_ACHIVEMENTS==ZTEAM_SERVER)
; 837  : 		if(lpUser->OffExp)
; 838  : #endif
; 839  : 		{
; 840  : 			lpUser->ach.InOfflineAttackTime++;

  0284f	8b 45 f8	 mov	 eax, DWORD PTR _lpUser$[ebp]
  02852	8b 88 28 29 00
	00		 mov	 ecx, DWORD PTR [eax+10536]
  02858	83 c1 01	 add	 ecx, 1
  0285b	8b 55 f8	 mov	 edx, DWORD PTR _lpUser$[ebp]
  0285e	89 8a 28 29 00
	00		 mov	 DWORD PTR [edx+10536], ecx

; 841  : 			if(lpUser->ach.InOfflineAttackTime >= 3600)

  02864	8b 45 f8	 mov	 eax, DWORD PTR _lpUser$[ebp]
  02867	81 b8 28 29 00
	00 10 0e 00 00	 cmp	 DWORD PTR [eax+10536], 3600 ; 00000e10H
  02871	7c 4c		 jl	 SHORT $LN16@TimeInGame

; 842  : 			{
; 843  : 				lpUser->ach.mission.i50_OfflineAttackTime++;

  02873	8b 45 f8	 mov	 eax, DWORD PTR _lpUser$[ebp]
  02876	8b 88 f4 29 00
	00		 mov	 ecx, DWORD PTR [eax+10740]
  0287c	83 c1 01	 add	 ecx, 1
  0287f	8b 55 f8	 mov	 edx, DWORD PTR _lpUser$[ebp]
  02882	89 8a f4 29 00
	00		 mov	 DWORD PTR [edx+10740], ecx

; 844  : 				this->PlayerReward(aIndex, this->m_config.i50_OfflineAttackTime, lpUser->ach.mission.i50_OfflineAttackTime, this->m_reward.i50_OfflineAttackTime);

  02888	8b 45 fc	 mov	 eax, DWORD PTR _this$[ebp]
  0288b	8b 88 a4 01 00
	00		 mov	 ecx, DWORD PTR [eax+420]
  02891	51		 push	 ecx
  02892	8b 55 f8	 mov	 edx, DWORD PTR _lpUser$[ebp]
  02895	8b 82 f4 29 00
	00		 mov	 eax, DWORD PTR [edx+10740]
  0289b	50		 push	 eax
  0289c	8b 4d fc	 mov	 ecx, DWORD PTR _this$[ebp]
  0289f	8b 91 dc 00 00
	00		 mov	 edx, DWORD PTR [ecx+220]
  028a5	52		 push	 edx
  028a6	8b 45 08	 mov	 eax, DWORD PTR _aIndex$[ebp]
  028a9	50		 push	 eax
  028aa	8b 4d fc	 mov	 ecx, DWORD PTR _this$[ebp]
  028ad	e8 00 00 00 00	 call	 ?PlayerReward@CAchievements@@QAEXHHHH@Z ; CAchievements::PlayerReward

; 845  : 				lpUser->ach.InOfflineAttackTime = 0;

  028b2	8b 45 f8	 mov	 eax, DWORD PTR _lpUser$[ebp]
  028b5	c7 80 28 29 00
	00 00 00 00 00	 mov	 DWORD PTR [eax+10536], 0
$LN16@TimeInGame:

; 846  : 			}
; 847  : 		}
; 848  : 	}
; 849  : }

  028bf	5f		 pop	 edi
  028c0	5e		 pop	 esi
  028c1	5b		 pop	 ebx
  028c2	8b e5		 mov	 esp, ebp
  028c4	5d		 pop	 ebp
  028c5	c2 04 00	 ret	 4
?TimeInGame@CAchievements@@QAEXH@Z ENDP			; CAchievements::TimeInGame
_TEXT	ENDS
PUBLIC	?SuccessChaosMix@CAchievements@@QAEXH@Z		; CAchievements::SuccessChaosMix
; Function compile flags: /Odtp /ZI
_TEXT	SEGMENT
_lpUser$ = -8						; size = 4
_this$ = -4						; size = 4
_aIndex$ = 8						; size = 4
?SuccessChaosMix@CAchievements@@QAEXH@Z PROC		; CAchievements::SuccessChaosMix
; _this$ = ecx

; 852  : {

  028d0	55		 push	 ebp
  028d1	8b ec		 mov	 ebp, esp
  028d3	83 ec 48	 sub	 esp, 72			; 00000048H
  028d6	53		 push	 ebx
  028d7	56		 push	 esi
  028d8	57		 push	 edi
  028d9	89 4d fc	 mov	 DWORD PTR _this$[ebp], ecx

; 853  : 	if(!this->bEnable)

  028dc	8b 45 fc	 mov	 eax, DWORD PTR _this$[ebp]
  028df	0f b6 48 14	 movzx	 ecx, BYTE PTR [eax+20]
  028e3	85 c9		 test	 ecx, ecx
  028e5	75 05		 jne	 SHORT $LN4@SuccessCha

; 854  : 	{
; 855  : 		return;

  028e7	e9 81 00 00 00	 jmp	 $LN5@SuccessCha
$LN4@SuccessCha:

; 856  : 	}
; 857  : 
; 858  : 	if(!gObjIsConnected(aIndex))

  028ec	8b 45 08	 mov	 eax, DWORD PTR _aIndex$[ebp]
  028ef	50		 push	 eax
  028f0	e8 00 00 00 00	 call	 ?gObjIsConnected@@YAHH@Z ; gObjIsConnected
  028f5	83 c4 04	 add	 esp, 4
  028f8	85 c0		 test	 eax, eax
  028fa	75 02		 jne	 SHORT $LN3@SuccessCha

; 859  : 	{
; 860  : 		return;

  028fc	eb 6f		 jmp	 SHORT $LN5@SuccessCha
$LN3@SuccessCha:

; 861  : 	}
; 862  : 
; 863  : 	LPOBJ lpUser = &gObj[aIndex];

  028fe	8b 45 08	 mov	 eax, DWORD PTR _aIndex$[ebp]
  02901	69 c0 38 2b 00
	00		 imul	 eax, 11064		; 00002b38H
  02907	03 05 00 00 00
	00		 add	 eax, DWORD PTR ?gObj@@3PAUOBJECTSTRUCT@@A ; gObj
  0290d	89 45 f8	 mov	 DWORD PTR _lpUser$[ebp], eax

; 864  : 
; 865  : 	if(!lpUser->ach.bLoaded)

  02910	8b 45 f8	 mov	 eax, DWORD PTR _lpUser$[ebp]
  02913	0f b6 88 20 29
	00 00		 movzx	 ecx, BYTE PTR [eax+10528]
  0291a	85 c9		 test	 ecx, ecx
  0291c	75 02		 jne	 SHORT $LN2@SuccessCha

; 866  : 	{
; 867  : 		return;

  0291e	eb 4d		 jmp	 SHORT $LN5@SuccessCha
$LN2@SuccessCha:

; 868  : 	}
; 869  : 
; 870  : 	//i14_SuccessChaosMix
; 871  : 	if(this->m_config.i14_SuccessChaosMix > lpUser->ach.mission.i14_SuccessChaosMix)

  02920	8b 45 fc	 mov	 eax, DWORD PTR _this$[ebp]
  02923	8b 4d f8	 mov	 ecx, DWORD PTR _lpUser$[ebp]
  02926	8b 50 4c	 mov	 edx, DWORD PTR [eax+76]
  02929	3b 91 64 29 00
	00		 cmp	 edx, DWORD PTR [ecx+10596]
  0292f	76 3c		 jbe	 SHORT $LN5@SuccessCha

; 872  : 	{
; 873  : 		lpUser->ach.mission.i14_SuccessChaosMix++;

  02931	8b 45 f8	 mov	 eax, DWORD PTR _lpUser$[ebp]
  02934	8b 88 64 29 00
	00		 mov	 ecx, DWORD PTR [eax+10596]
  0293a	83 c1 01	 add	 ecx, 1
  0293d	8b 55 f8	 mov	 edx, DWORD PTR _lpUser$[ebp]
  02940	89 8a 64 29 00
	00		 mov	 DWORD PTR [edx+10596], ecx

; 874  : 		this->PlayerReward(aIndex, this->m_config.i14_SuccessChaosMix, lpUser->ach.mission.i14_SuccessChaosMix, this->m_reward.i14_SuccessChaosMix);

  02946	8b 45 fc	 mov	 eax, DWORD PTR _this$[ebp]
  02949	8b 88 14 01 00
	00		 mov	 ecx, DWORD PTR [eax+276]
  0294f	51		 push	 ecx
  02950	8b 55 f8	 mov	 edx, DWORD PTR _lpUser$[ebp]
  02953	8b 82 64 29 00
	00		 mov	 eax, DWORD PTR [edx+10596]
  02959	50		 push	 eax
  0295a	8b 4d fc	 mov	 ecx, DWORD PTR _this$[ebp]
  0295d	8b 51 4c	 mov	 edx, DWORD PTR [ecx+76]
  02960	52		 push	 edx
  02961	8b 45 08	 mov	 eax, DWORD PTR _aIndex$[ebp]
  02964	50		 push	 eax
  02965	8b 4d fc	 mov	 ecx, DWORD PTR _this$[ebp]
  02968	e8 00 00 00 00	 call	 ?PlayerReward@CAchievements@@QAEXHHHH@Z ; CAchievements::PlayerReward
$LN5@SuccessCha:

; 875  : 	}
; 876  : }

  0296d	5f		 pop	 edi
  0296e	5e		 pop	 esi
  0296f	5b		 pop	 ebx
  02970	8b e5		 mov	 esp, ebp
  02972	5d		 pop	 ebp
  02973	c2 04 00	 ret	 4
?SuccessChaosMix@CAchievements@@QAEXH@Z ENDP		; CAchievements::SuccessChaosMix
_TEXT	ENDS
PUBLIC	?FailedChaosMix@CAchievements@@QAEXH@Z		; CAchievements::FailedChaosMix
; Function compile flags: /Odtp /ZI
_TEXT	SEGMENT
_lpUser$ = -8						; size = 4
_this$ = -4						; size = 4
_aIndex$ = 8						; size = 4
?FailedChaosMix@CAchievements@@QAEXH@Z PROC		; CAchievements::FailedChaosMix
; _this$ = ecx

; 879  : {

  02980	55		 push	 ebp
  02981	8b ec		 mov	 ebp, esp
  02983	83 ec 48	 sub	 esp, 72			; 00000048H
  02986	53		 push	 ebx
  02987	56		 push	 esi
  02988	57		 push	 edi
  02989	89 4d fc	 mov	 DWORD PTR _this$[ebp], ecx

; 880  : 	if(!this->bEnable)

  0298c	8b 45 fc	 mov	 eax, DWORD PTR _this$[ebp]
  0298f	0f b6 48 14	 movzx	 ecx, BYTE PTR [eax+20]
  02993	85 c9		 test	 ecx, ecx
  02995	75 05		 jne	 SHORT $LN4@FailedChao

; 881  : 	{
; 882  : 		return;

  02997	e9 81 00 00 00	 jmp	 $LN5@FailedChao
$LN4@FailedChao:

; 883  : 	}
; 884  : 
; 885  : 	if(!gObjIsConnected(aIndex))

  0299c	8b 45 08	 mov	 eax, DWORD PTR _aIndex$[ebp]
  0299f	50		 push	 eax
  029a0	e8 00 00 00 00	 call	 ?gObjIsConnected@@YAHH@Z ; gObjIsConnected
  029a5	83 c4 04	 add	 esp, 4
  029a8	85 c0		 test	 eax, eax
  029aa	75 02		 jne	 SHORT $LN3@FailedChao

; 886  : 	{
; 887  : 		return;

  029ac	eb 6f		 jmp	 SHORT $LN5@FailedChao
$LN3@FailedChao:

; 888  : 	}
; 889  : 
; 890  : 	LPOBJ lpUser = &gObj[aIndex];

  029ae	8b 45 08	 mov	 eax, DWORD PTR _aIndex$[ebp]
  029b1	69 c0 38 2b 00
	00		 imul	 eax, 11064		; 00002b38H
  029b7	03 05 00 00 00
	00		 add	 eax, DWORD PTR ?gObj@@3PAUOBJECTSTRUCT@@A ; gObj
  029bd	89 45 f8	 mov	 DWORD PTR _lpUser$[ebp], eax

; 891  : 
; 892  : 	if(!lpUser->ach.bLoaded)

  029c0	8b 45 f8	 mov	 eax, DWORD PTR _lpUser$[ebp]
  029c3	0f b6 88 20 29
	00 00		 movzx	 ecx, BYTE PTR [eax+10528]
  029ca	85 c9		 test	 ecx, ecx
  029cc	75 02		 jne	 SHORT $LN2@FailedChao

; 893  : 	{
; 894  : 		return;

  029ce	eb 4d		 jmp	 SHORT $LN5@FailedChao
$LN2@FailedChao:

; 895  : 	}
; 896  : 
; 897  : 	//i15_FailedChaosMix
; 898  : 	if(this->m_config.i15_FailedChaosMix > lpUser->ach.mission.i15_FailedChaosMix)

  029d0	8b 45 fc	 mov	 eax, DWORD PTR _this$[ebp]
  029d3	8b 4d f8	 mov	 ecx, DWORD PTR _lpUser$[ebp]
  029d6	8b 50 50	 mov	 edx, DWORD PTR [eax+80]
  029d9	3b 91 68 29 00
	00		 cmp	 edx, DWORD PTR [ecx+10600]
  029df	76 3c		 jbe	 SHORT $LN5@FailedChao

; 899  : 	{
; 900  : 		lpUser->ach.mission.i15_FailedChaosMix++;

  029e1	8b 45 f8	 mov	 eax, DWORD PTR _lpUser$[ebp]
  029e4	8b 88 68 29 00
	00		 mov	 ecx, DWORD PTR [eax+10600]
  029ea	83 c1 01	 add	 ecx, 1
  029ed	8b 55 f8	 mov	 edx, DWORD PTR _lpUser$[ebp]
  029f0	89 8a 68 29 00
	00		 mov	 DWORD PTR [edx+10600], ecx

; 901  : 		this->PlayerReward(aIndex, this->m_config.i15_FailedChaosMix, lpUser->ach.mission.i15_FailedChaosMix, this->m_reward.i15_FailedChaosMix);

  029f6	8b 45 fc	 mov	 eax, DWORD PTR _this$[ebp]
  029f9	8b 88 18 01 00
	00		 mov	 ecx, DWORD PTR [eax+280]
  029ff	51		 push	 ecx
  02a00	8b 55 f8	 mov	 edx, DWORD PTR _lpUser$[ebp]
  02a03	8b 82 68 29 00
	00		 mov	 eax, DWORD PTR [edx+10600]
  02a09	50		 push	 eax
  02a0a	8b 4d fc	 mov	 ecx, DWORD PTR _this$[ebp]
  02a0d	8b 51 50	 mov	 edx, DWORD PTR [ecx+80]
  02a10	52		 push	 edx
  02a11	8b 45 08	 mov	 eax, DWORD PTR _aIndex$[ebp]
  02a14	50		 push	 eax
  02a15	8b 4d fc	 mov	 ecx, DWORD PTR _this$[ebp]
  02a18	e8 00 00 00 00	 call	 ?PlayerReward@CAchievements@@QAEXHHHH@Z ; CAchievements::PlayerReward
$LN5@FailedChao:

; 902  : 	}
; 903  : }

  02a1d	5f		 pop	 edi
  02a1e	5e		 pop	 esi
  02a1f	5b		 pop	 ebx
  02a20	8b e5		 mov	 esp, ebp
  02a22	5d		 pop	 ebp
  02a23	c2 04 00	 ret	 4
?FailedChaosMix@CAchievements@@QAEXH@Z ENDP		; CAchievements::FailedChaosMix
_TEXT	ENDS
PUBLIC	?LevelUp@CAchievements@@QAEXH@Z			; CAchievements::LevelUp
EXTRN	?gParty@@3VPartyClass@@A:BYTE			; gParty
; Function compile flags: /Odtp /ZI
_TEXT	SEGMENT
_PartyUser$229405 = -24					; size = 4
_aUserIndex$229403 = -20				; size = 4
_i$229399 = -16						; size = 4
_iPartyNumber$229398 = -12				; size = 4
_lpUser$ = -8						; size = 4
_this$ = -4						; size = 4
_aIndex$ = 8						; size = 4
?LevelUp@CAchievements@@QAEXH@Z PROC			; CAchievements::LevelUp
; _this$ = ecx

; 906  : {

  02a30	55		 push	 ebp
  02a31	8b ec		 mov	 ebp, esp
  02a33	83 ec 58	 sub	 esp, 88			; 00000058H
  02a36	53		 push	 ebx
  02a37	56		 push	 esi
  02a38	57		 push	 edi
  02a39	89 4d fc	 mov	 DWORD PTR _this$[ebp], ecx

; 907  : 	if(!this->bEnable)

  02a3c	8b 45 fc	 mov	 eax, DWORD PTR _this$[ebp]
  02a3f	0f b6 48 14	 movzx	 ecx, BYTE PTR [eax+20]
  02a43	85 c9		 test	 ecx, ecx
  02a45	75 05		 jne	 SHORT $LN11@LevelUp

; 908  : 	{
; 909  : 		return;

  02a47	e9 6d 01 00 00	 jmp	 $LN12@LevelUp
$LN11@LevelUp:

; 910  : 	}
; 911  : 
; 912  : 	if(!gObjIsConnected(aIndex))

  02a4c	8b 45 08	 mov	 eax, DWORD PTR _aIndex$[ebp]
  02a4f	50		 push	 eax
  02a50	e8 00 00 00 00	 call	 ?gObjIsConnected@@YAHH@Z ; gObjIsConnected
  02a55	83 c4 04	 add	 esp, 4
  02a58	85 c0		 test	 eax, eax
  02a5a	75 05		 jne	 SHORT $LN10@LevelUp

; 913  : 	{
; 914  : 		return;

  02a5c	e9 58 01 00 00	 jmp	 $LN12@LevelUp
$LN10@LevelUp:

; 915  : 	}
; 916  : 
; 917  : 	LPOBJ lpUser = &gObj[aIndex];

  02a61	8b 45 08	 mov	 eax, DWORD PTR _aIndex$[ebp]
  02a64	69 c0 38 2b 00
	00		 imul	 eax, 11064		; 00002b38H
  02a6a	03 05 00 00 00
	00		 add	 eax, DWORD PTR ?gObj@@3PAUOBJECTSTRUCT@@A ; gObj
  02a70	89 45 f8	 mov	 DWORD PTR _lpUser$[ebp], eax

; 918  : 
; 919  : 	if(!lpUser->ach.bLoaded)

  02a73	8b 45 f8	 mov	 eax, DWORD PTR _lpUser$[ebp]
  02a76	0f b6 88 20 29
	00 00		 movzx	 ecx, BYTE PTR [eax+10528]
  02a7d	85 c9		 test	 ecx, ecx
  02a7f	75 05		 jne	 SHORT $LN9@LevelUp

; 920  : 	{
; 921  : 		return;

  02a81	e9 33 01 00 00	 jmp	 $LN12@LevelUp
$LN9@LevelUp:

; 922  : 	}
; 923  : 
; 924  : 	//i20_LevelUp
; 925  : 	if(this->m_config.i20_LevelUp > lpUser->ach.mission.i20_LevelUp)

  02a86	8b 45 fc	 mov	 eax, DWORD PTR _this$[ebp]
  02a89	8b 4d f8	 mov	 ecx, DWORD PTR _lpUser$[ebp]
  02a8c	8b 50 64	 mov	 edx, DWORD PTR [eax+100]
  02a8f	3b 91 7c 29 00
	00		 cmp	 edx, DWORD PTR [ecx+10620]
  02a95	76 3c		 jbe	 SHORT $LN8@LevelUp

; 926  : 	{
; 927  : 		lpUser->ach.mission.i20_LevelUp++;

  02a97	8b 45 f8	 mov	 eax, DWORD PTR _lpUser$[ebp]
  02a9a	8b 88 7c 29 00
	00		 mov	 ecx, DWORD PTR [eax+10620]
  02aa0	83 c1 01	 add	 ecx, 1
  02aa3	8b 55 f8	 mov	 edx, DWORD PTR _lpUser$[ebp]
  02aa6	89 8a 7c 29 00
	00		 mov	 DWORD PTR [edx+10620], ecx

; 928  : 		this->PlayerReward(aIndex, this->m_config.i20_LevelUp, lpUser->ach.mission.i20_LevelUp, this->m_reward.i20_LevelUp);

  02aac	8b 45 fc	 mov	 eax, DWORD PTR _this$[ebp]
  02aaf	8b 88 2c 01 00
	00		 mov	 ecx, DWORD PTR [eax+300]
  02ab5	51		 push	 ecx
  02ab6	8b 55 f8	 mov	 edx, DWORD PTR _lpUser$[ebp]
  02ab9	8b 82 7c 29 00
	00		 mov	 eax, DWORD PTR [edx+10620]
  02abf	50		 push	 eax
  02ac0	8b 4d fc	 mov	 ecx, DWORD PTR _this$[ebp]
  02ac3	8b 51 64	 mov	 edx, DWORD PTR [ecx+100]
  02ac6	52		 push	 edx
  02ac7	8b 45 08	 mov	 eax, DWORD PTR _aIndex$[ebp]
  02aca	50		 push	 eax
  02acb	8b 4d fc	 mov	 ecx, DWORD PTR _this$[ebp]
  02ace	e8 00 00 00 00	 call	 ?PlayerReward@CAchievements@@QAEXHHHH@Z ; CAchievements::PlayerReward
$LN8@LevelUp:

; 929  : 	}
; 930  : 	//i47_PartyNoobLevelUp
; 931  : 	if(this->m_config.i47_PartyNoobLevelUp > lpUser->ach.mission.i47_PartyNoobLevelUp)

  02ad3	8b 45 fc	 mov	 eax, DWORD PTR _this$[ebp]
  02ad6	8b 4d f8	 mov	 ecx, DWORD PTR _lpUser$[ebp]
  02ad9	8b 90 d0 00 00
	00		 mov	 edx, DWORD PTR [eax+208]
  02adf	3b 91 e8 29 00
	00		 cmp	 edx, DWORD PTR [ecx+10728]
  02ae5	0f 86 ce 00 00
	00		 jbe	 $LN12@LevelUp

; 932  : 	{
; 933  : 		if(lpUser->PartyNumber >= 0)

  02aeb	8b 45 f8	 mov	 eax, DWORD PTR _lpUser$[ebp]
  02aee	83 b8 2c 04 00
	00 00		 cmp	 DWORD PTR [eax+1068], 0
  02af5	0f 8c be 00 00
	00		 jl	 $LN12@LevelUp

; 934  : 		{
; 935  : 			int iPartyNumber = lpUser->PartyNumber;

  02afb	8b 45 f8	 mov	 eax, DWORD PTR _lpUser$[ebp]
  02afe	8b 88 2c 04 00
	00		 mov	 ecx, DWORD PTR [eax+1068]
  02b04	89 4d f4	 mov	 DWORD PTR _iPartyNumber$229398[ebp], ecx

; 936  : 			for(int i = 0; i < MAX_USER_IN_PARTY; i++ )

  02b07	c7 45 f0 00 00
	00 00		 mov	 DWORD PTR _i$229399[ebp], 0
  02b0e	eb 09		 jmp	 SHORT $LN5@LevelUp
$LN4@LevelUp:
  02b10	8b 45 f0	 mov	 eax, DWORD PTR _i$229399[ebp]
  02b13	83 c0 01	 add	 eax, 1
  02b16	89 45 f0	 mov	 DWORD PTR _i$229399[ebp], eax
$LN5@LevelUp:
  02b19	83 7d f0 0a	 cmp	 DWORD PTR _i$229399[ebp], 10 ; 0000000aH
  02b1d	0f 8d 96 00 00
	00		 jge	 $LN12@LevelUp

; 937  : 			{
; 938  : 				int aUserIndex = gParty.m_PartyS[iPartyNumber].Number[i];

  02b23	8b 45 f4	 mov	 eax, DWORD PTR _iPartyNumber$229398[ebp]
  02b26	6b c0 6c	 imul	 eax, 108		; 0000006cH
  02b29	8b 4d f0	 mov	 ecx, DWORD PTR _i$229399[ebp]
  02b2c	8b 94 88 0c 00
	00 00		 mov	 edx, DWORD PTR ?gParty@@3VPartyClass@@A[eax+ecx*4+12]
  02b33	89 55 ec	 mov	 DWORD PTR _aUserIndex$229403[ebp], edx

; 939  : 				if (gObjIsConnected(aUserIndex))

  02b36	8b 45 ec	 mov	 eax, DWORD PTR _aUserIndex$229403[ebp]
  02b39	50		 push	 eax
  02b3a	e8 00 00 00 00	 call	 ?gObjIsConnected@@YAHH@Z ; gObjIsConnected
  02b3f	83 c4 04	 add	 esp, 4
  02b42	85 c0		 test	 eax, eax
  02b44	74 6e		 je	 SHORT $LN2@LevelUp

; 940  : 				{
; 941  : 					LPOBJ PartyUser = &gObj[aUserIndex];

  02b46	8b 45 ec	 mov	 eax, DWORD PTR _aUserIndex$229403[ebp]
  02b49	69 c0 38 2b 00
	00		 imul	 eax, 11064		; 00002b38H
  02b4f	03 05 00 00 00
	00		 add	 eax, DWORD PTR ?gObj@@3PAUOBJECTSTRUCT@@A ; gObj
  02b55	89 45 e8	 mov	 DWORD PTR _PartyUser$229405[ebp], eax

; 942  : 					if(lpUser->Level > (PartyUser->Level+100))

  02b58	8b 45 f8	 mov	 eax, DWORD PTR _lpUser$[ebp]
  02b5b	0f bf 88 be 00
	00 00		 movsx	 ecx, WORD PTR [eax+190]
  02b62	8b 55 e8	 mov	 edx, DWORD PTR _PartyUser$229405[ebp]
  02b65	0f bf 82 be 00
	00 00		 movsx	 eax, WORD PTR [edx+190]
  02b6c	83 c0 64	 add	 eax, 100		; 00000064H
  02b6f	3b c8		 cmp	 ecx, eax
  02b71	7e 41		 jle	 SHORT $LN2@LevelUp

; 943  : 					{
; 944  : 						lpUser->ach.mission.i47_PartyNoobLevelUp++;

  02b73	8b 45 f8	 mov	 eax, DWORD PTR _lpUser$[ebp]
  02b76	8b 88 e8 29 00
	00		 mov	 ecx, DWORD PTR [eax+10728]
  02b7c	83 c1 01	 add	 ecx, 1
  02b7f	8b 55 f8	 mov	 edx, DWORD PTR _lpUser$[ebp]
  02b82	89 8a e8 29 00
	00		 mov	 DWORD PTR [edx+10728], ecx

; 945  : 						this->PlayerReward(aIndex, this->m_config.i47_PartyNoobLevelUp, lpUser->ach.mission.i47_PartyNoobLevelUp, this->m_reward.i47_PartyNoobLevelUp);

  02b88	8b 45 fc	 mov	 eax, DWORD PTR _this$[ebp]
  02b8b	8b 88 98 01 00
	00		 mov	 ecx, DWORD PTR [eax+408]
  02b91	51		 push	 ecx
  02b92	8b 55 f8	 mov	 edx, DWORD PTR _lpUser$[ebp]
  02b95	8b 82 e8 29 00
	00		 mov	 eax, DWORD PTR [edx+10728]
  02b9b	50		 push	 eax
  02b9c	8b 4d fc	 mov	 ecx, DWORD PTR _this$[ebp]
  02b9f	8b 91 d0 00 00
	00		 mov	 edx, DWORD PTR [ecx+208]
  02ba5	52		 push	 edx
  02ba6	8b 45 08	 mov	 eax, DWORD PTR _aIndex$[ebp]
  02ba9	50		 push	 eax
  02baa	8b 4d fc	 mov	 ecx, DWORD PTR _this$[ebp]
  02bad	e8 00 00 00 00	 call	 ?PlayerReward@CAchievements@@QAEXHHHH@Z ; CAchievements::PlayerReward

; 946  : 						break;

  02bb2	eb 05		 jmp	 SHORT $LN12@LevelUp
$LN2@LevelUp:

; 947  : 					}		
; 948  : 				}
; 949  : 			}

  02bb4	e9 57 ff ff ff	 jmp	 $LN4@LevelUp
$LN12@LevelUp:

; 950  : 		}
; 951  : 	}
; 952  : }

  02bb9	5f		 pop	 edi
  02bba	5e		 pop	 esi
  02bbb	5b		 pop	 ebx
  02bbc	8b e5		 mov	 esp, ebp
  02bbe	5d		 pop	 ebp
  02bbf	c2 04 00	 ret	 4
?LevelUp@CAchievements@@QAEXH@Z ENDP			; CAchievements::LevelUp
_TEXT	ENDS
PUBLIC	?ResetUp@CAchievements@@QAEXH@Z			; CAchievements::ResetUp
; Function compile flags: /Odtp /ZI
_TEXT	SEGMENT
_lpUser$ = -8						; size = 4
_this$ = -4						; size = 4
_aIndex$ = 8						; size = 4
?ResetUp@CAchievements@@QAEXH@Z PROC			; CAchievements::ResetUp
; _this$ = ecx

; 955  : {

  02bd0	55		 push	 ebp
  02bd1	8b ec		 mov	 ebp, esp
  02bd3	83 ec 48	 sub	 esp, 72			; 00000048H
  02bd6	53		 push	 ebx
  02bd7	56		 push	 esi
  02bd8	57		 push	 edi
  02bd9	89 4d fc	 mov	 DWORD PTR _this$[ebp], ecx

; 956  : 	if(!this->bEnable)

  02bdc	8b 45 fc	 mov	 eax, DWORD PTR _this$[ebp]
  02bdf	0f b6 48 14	 movzx	 ecx, BYTE PTR [eax+20]
  02be3	85 c9		 test	 ecx, ecx
  02be5	75 05		 jne	 SHORT $LN4@ResetUp

; 957  : 	{
; 958  : 		return;

  02be7	e9 81 00 00 00	 jmp	 $LN5@ResetUp
$LN4@ResetUp:

; 959  : 	}
; 960  : 
; 961  : 	if(!gObjIsConnected(aIndex))

  02bec	8b 45 08	 mov	 eax, DWORD PTR _aIndex$[ebp]
  02bef	50		 push	 eax
  02bf0	e8 00 00 00 00	 call	 ?gObjIsConnected@@YAHH@Z ; gObjIsConnected
  02bf5	83 c4 04	 add	 esp, 4
  02bf8	85 c0		 test	 eax, eax
  02bfa	75 02		 jne	 SHORT $LN3@ResetUp

; 962  : 	{
; 963  : 		return;

  02bfc	eb 6f		 jmp	 SHORT $LN5@ResetUp
$LN3@ResetUp:

; 964  : 	}
; 965  : 
; 966  : 	LPOBJ lpUser = &gObj[aIndex];

  02bfe	8b 45 08	 mov	 eax, DWORD PTR _aIndex$[ebp]
  02c01	69 c0 38 2b 00
	00		 imul	 eax, 11064		; 00002b38H
  02c07	03 05 00 00 00
	00		 add	 eax, DWORD PTR ?gObj@@3PAUOBJECTSTRUCT@@A ; gObj
  02c0d	89 45 f8	 mov	 DWORD PTR _lpUser$[ebp], eax

; 967  : 
; 968  : 	if(!lpUser->ach.bLoaded)

  02c10	8b 45 f8	 mov	 eax, DWORD PTR _lpUser$[ebp]
  02c13	0f b6 88 20 29
	00 00		 movzx	 ecx, BYTE PTR [eax+10528]
  02c1a	85 c9		 test	 ecx, ecx
  02c1c	75 02		 jne	 SHORT $LN2@ResetUp

; 969  : 	{
; 970  : 		return;

  02c1e	eb 4d		 jmp	 SHORT $LN5@ResetUp
$LN2@ResetUp:

; 971  : 	}
; 972  : 
; 973  : 	//i21_ResetUp
; 974  : 	if(this->m_config.i21_ResetUp > lpUser->ach.mission.i21_ResetUp)

  02c20	8b 45 fc	 mov	 eax, DWORD PTR _this$[ebp]
  02c23	8b 4d f8	 mov	 ecx, DWORD PTR _lpUser$[ebp]
  02c26	8b 50 68	 mov	 edx, DWORD PTR [eax+104]
  02c29	3b 91 80 29 00
	00		 cmp	 edx, DWORD PTR [ecx+10624]
  02c2f	76 3c		 jbe	 SHORT $LN5@ResetUp

; 975  : 	{
; 976  : 		lpUser->ach.mission.i21_ResetUp++;

  02c31	8b 45 f8	 mov	 eax, DWORD PTR _lpUser$[ebp]
  02c34	8b 88 80 29 00
	00		 mov	 ecx, DWORD PTR [eax+10624]
  02c3a	83 c1 01	 add	 ecx, 1
  02c3d	8b 55 f8	 mov	 edx, DWORD PTR _lpUser$[ebp]
  02c40	89 8a 80 29 00
	00		 mov	 DWORD PTR [edx+10624], ecx

; 977  : 		this->PlayerReward(aIndex, this->m_config.i21_ResetUp, lpUser->ach.mission.i21_ResetUp, this->m_reward.i21_ResetUp);

  02c46	8b 45 fc	 mov	 eax, DWORD PTR _this$[ebp]
  02c49	8b 88 30 01 00
	00		 mov	 ecx, DWORD PTR [eax+304]
  02c4f	51		 push	 ecx
  02c50	8b 55 f8	 mov	 edx, DWORD PTR _lpUser$[ebp]
  02c53	8b 82 80 29 00
	00		 mov	 eax, DWORD PTR [edx+10624]
  02c59	50		 push	 eax
  02c5a	8b 4d fc	 mov	 ecx, DWORD PTR _this$[ebp]
  02c5d	8b 51 68	 mov	 edx, DWORD PTR [ecx+104]
  02c60	52		 push	 edx
  02c61	8b 45 08	 mov	 eax, DWORD PTR _aIndex$[ebp]
  02c64	50		 push	 eax
  02c65	8b 4d fc	 mov	 ecx, DWORD PTR _this$[ebp]
  02c68	e8 00 00 00 00	 call	 ?PlayerReward@CAchievements@@QAEXHHHH@Z ; CAchievements::PlayerReward
$LN5@ResetUp:

; 978  : 	}
; 979  : }

  02c6d	5f		 pop	 edi
  02c6e	5e		 pop	 esi
  02c6f	5b		 pop	 ebx
  02c70	8b e5		 mov	 esp, ebp
  02c72	5d		 pop	 ebp
  02c73	c2 04 00	 ret	 4
?ResetUp@CAchievements@@QAEXH@Z ENDP			; CAchievements::ResetUp
_TEXT	ENDS
PUBLIC	?GrandResetUp@CAchievements@@QAEXH@Z		; CAchievements::GrandResetUp
; Function compile flags: /Odtp /ZI
_TEXT	SEGMENT
_lpUser$ = -8						; size = 4
_this$ = -4						; size = 4
_aIndex$ = 8						; size = 4
?GrandResetUp@CAchievements@@QAEXH@Z PROC		; CAchievements::GrandResetUp
; _this$ = ecx

; 982  : {

  02c80	55		 push	 ebp
  02c81	8b ec		 mov	 ebp, esp
  02c83	83 ec 48	 sub	 esp, 72			; 00000048H
  02c86	53		 push	 ebx
  02c87	56		 push	 esi
  02c88	57		 push	 edi
  02c89	89 4d fc	 mov	 DWORD PTR _this$[ebp], ecx

; 983  : 	if(!this->bEnable)

  02c8c	8b 45 fc	 mov	 eax, DWORD PTR _this$[ebp]
  02c8f	0f b6 48 14	 movzx	 ecx, BYTE PTR [eax+20]
  02c93	85 c9		 test	 ecx, ecx
  02c95	75 05		 jne	 SHORT $LN4@GrandReset

; 984  : 	{
; 985  : 		return;

  02c97	e9 87 00 00 00	 jmp	 $LN5@GrandReset
$LN4@GrandReset:

; 986  : 	}
; 987  : 
; 988  : 	if(!gObjIsConnected(aIndex))

  02c9c	8b 45 08	 mov	 eax, DWORD PTR _aIndex$[ebp]
  02c9f	50		 push	 eax
  02ca0	e8 00 00 00 00	 call	 ?gObjIsConnected@@YAHH@Z ; gObjIsConnected
  02ca5	83 c4 04	 add	 esp, 4
  02ca8	85 c0		 test	 eax, eax
  02caa	75 02		 jne	 SHORT $LN3@GrandReset

; 989  : 	{
; 990  : 		return;

  02cac	eb 75		 jmp	 SHORT $LN5@GrandReset
$LN3@GrandReset:

; 991  : 	}
; 992  : 
; 993  : 	LPOBJ lpUser = &gObj[aIndex];

  02cae	8b 45 08	 mov	 eax, DWORD PTR _aIndex$[ebp]
  02cb1	69 c0 38 2b 00
	00		 imul	 eax, 11064		; 00002b38H
  02cb7	03 05 00 00 00
	00		 add	 eax, DWORD PTR ?gObj@@3PAUOBJECTSTRUCT@@A ; gObj
  02cbd	89 45 f8	 mov	 DWORD PTR _lpUser$[ebp], eax

; 994  : 
; 995  : 	if(!lpUser->ach.bLoaded)

  02cc0	8b 45 f8	 mov	 eax, DWORD PTR _lpUser$[ebp]
  02cc3	0f b6 88 20 29
	00 00		 movzx	 ecx, BYTE PTR [eax+10528]
  02cca	85 c9		 test	 ecx, ecx
  02ccc	75 02		 jne	 SHORT $LN2@GrandReset

; 996  : 	{
; 997  : 		return;

  02cce	eb 53		 jmp	 SHORT $LN5@GrandReset
$LN2@GrandReset:

; 998  : 	}
; 999  : 
; 1000 : 	//i33_GrandResetUp
; 1001 : 	if(this->m_config.i33_GrandResetUp > lpUser->ach.mission.i33_GrandResetUp)

  02cd0	8b 45 fc	 mov	 eax, DWORD PTR _this$[ebp]
  02cd3	8b 4d f8	 mov	 ecx, DWORD PTR _lpUser$[ebp]
  02cd6	8b 90 98 00 00
	00		 mov	 edx, DWORD PTR [eax+152]
  02cdc	3b 91 b0 29 00
	00		 cmp	 edx, DWORD PTR [ecx+10672]
  02ce2	76 3f		 jbe	 SHORT $LN5@GrandReset

; 1002 : 	{
; 1003 : 		lpUser->ach.mission.i33_GrandResetUp++;

  02ce4	8b 45 f8	 mov	 eax, DWORD PTR _lpUser$[ebp]
  02ce7	8b 88 b0 29 00
	00		 mov	 ecx, DWORD PTR [eax+10672]
  02ced	83 c1 01	 add	 ecx, 1
  02cf0	8b 55 f8	 mov	 edx, DWORD PTR _lpUser$[ebp]
  02cf3	89 8a b0 29 00
	00		 mov	 DWORD PTR [edx+10672], ecx

; 1004 : 		this->PlayerReward(aIndex, this->m_config.i33_GrandResetUp, lpUser->ach.mission.i33_GrandResetUp, this->m_reward.i33_GrandResetUp);

  02cf9	8b 45 fc	 mov	 eax, DWORD PTR _this$[ebp]
  02cfc	8b 88 60 01 00
	00		 mov	 ecx, DWORD PTR [eax+352]
  02d02	51		 push	 ecx
  02d03	8b 55 f8	 mov	 edx, DWORD PTR _lpUser$[ebp]
  02d06	8b 82 b0 29 00
	00		 mov	 eax, DWORD PTR [edx+10672]
  02d0c	50		 push	 eax
  02d0d	8b 4d fc	 mov	 ecx, DWORD PTR _this$[ebp]
  02d10	8b 91 98 00 00
	00		 mov	 edx, DWORD PTR [ecx+152]
  02d16	52		 push	 edx
  02d17	8b 45 08	 mov	 eax, DWORD PTR _aIndex$[ebp]
  02d1a	50		 push	 eax
  02d1b	8b 4d fc	 mov	 ecx, DWORD PTR _this$[ebp]
  02d1e	e8 00 00 00 00	 call	 ?PlayerReward@CAchievements@@QAEXHHHH@Z ; CAchievements::PlayerReward
$LN5@GrandReset:

; 1005 : 	}
; 1006 : }

  02d23	5f		 pop	 edi
  02d24	5e		 pop	 esi
  02d25	5b		 pop	 ebx
  02d26	8b e5		 mov	 esp, ebp
  02d28	5d		 pop	 ebp
  02d29	c2 04 00	 ret	 4
?GrandResetUp@CAchievements@@QAEXH@Z ENDP		; CAchievements::GrandResetUp
_TEXT	ENDS
PUBLIC	?MootopVoteUp@CAchievements@@QAEXH@Z		; CAchievements::MootopVoteUp
; Function compile flags: /Odtp /ZI
_TEXT	SEGMENT
_lpUser$ = -8						; size = 4
_this$ = -4						; size = 4
_aIndex$ = 8						; size = 4
?MootopVoteUp@CAchievements@@QAEXH@Z PROC		; CAchievements::MootopVoteUp
; _this$ = ecx

; 1009 : {

  02d30	55		 push	 ebp
  02d31	8b ec		 mov	 ebp, esp
  02d33	83 ec 48	 sub	 esp, 72			; 00000048H
  02d36	53		 push	 ebx
  02d37	56		 push	 esi
  02d38	57		 push	 edi
  02d39	89 4d fc	 mov	 DWORD PTR _this$[ebp], ecx

; 1010 : 	if(!this->bEnable)

  02d3c	8b 45 fc	 mov	 eax, DWORD PTR _this$[ebp]
  02d3f	0f b6 48 14	 movzx	 ecx, BYTE PTR [eax+20]
  02d43	85 c9		 test	 ecx, ecx
  02d45	75 05		 jne	 SHORT $LN4@MootopVote

; 1011 : 	{
; 1012 : 		return;

  02d47	e9 81 00 00 00	 jmp	 $LN5@MootopVote
$LN4@MootopVote:

; 1013 : 	}
; 1014 : 
; 1015 : 	if(!gObjIsConnected(aIndex))

  02d4c	8b 45 08	 mov	 eax, DWORD PTR _aIndex$[ebp]
  02d4f	50		 push	 eax
  02d50	e8 00 00 00 00	 call	 ?gObjIsConnected@@YAHH@Z ; gObjIsConnected
  02d55	83 c4 04	 add	 esp, 4
  02d58	85 c0		 test	 eax, eax
  02d5a	75 02		 jne	 SHORT $LN3@MootopVote

; 1016 : 	{
; 1017 : 		return;

  02d5c	eb 6f		 jmp	 SHORT $LN5@MootopVote
$LN3@MootopVote:

; 1018 : 	}
; 1019 : 
; 1020 : 	LPOBJ lpUser = &gObj[aIndex];

  02d5e	8b 45 08	 mov	 eax, DWORD PTR _aIndex$[ebp]
  02d61	69 c0 38 2b 00
	00		 imul	 eax, 11064		; 00002b38H
  02d67	03 05 00 00 00
	00		 add	 eax, DWORD PTR ?gObj@@3PAUOBJECTSTRUCT@@A ; gObj
  02d6d	89 45 f8	 mov	 DWORD PTR _lpUser$[ebp], eax

; 1021 : 
; 1022 : 	if(!lpUser->ach.bLoaded)

  02d70	8b 45 f8	 mov	 eax, DWORD PTR _lpUser$[ebp]
  02d73	0f b6 88 20 29
	00 00		 movzx	 ecx, BYTE PTR [eax+10528]
  02d7a	85 c9		 test	 ecx, ecx
  02d7c	75 02		 jne	 SHORT $LN2@MootopVote

; 1023 : 	{
; 1024 : 		return;

  02d7e	eb 4d		 jmp	 SHORT $LN5@MootopVote
$LN2@MootopVote:

; 1025 : 	}
; 1026 : 
; 1027 : 	//i24_MootopVote
; 1028 : 	if(this->m_config.i24_MootopVote > lpUser->ach.mission.i24_MootopVote)

  02d80	8b 45 fc	 mov	 eax, DWORD PTR _this$[ebp]
  02d83	8b 4d f8	 mov	 ecx, DWORD PTR _lpUser$[ebp]
  02d86	8b 50 74	 mov	 edx, DWORD PTR [eax+116]
  02d89	3b 91 8c 29 00
	00		 cmp	 edx, DWORD PTR [ecx+10636]
  02d8f	76 3c		 jbe	 SHORT $LN5@MootopVote

; 1029 : 	{
; 1030 : 		lpUser->ach.mission.i24_MootopVote++;

  02d91	8b 45 f8	 mov	 eax, DWORD PTR _lpUser$[ebp]
  02d94	8b 88 8c 29 00
	00		 mov	 ecx, DWORD PTR [eax+10636]
  02d9a	83 c1 01	 add	 ecx, 1
  02d9d	8b 55 f8	 mov	 edx, DWORD PTR _lpUser$[ebp]
  02da0	89 8a 8c 29 00
	00		 mov	 DWORD PTR [edx+10636], ecx

; 1031 : 		this->PlayerReward(aIndex, this->m_config.i24_MootopVote, lpUser->ach.mission.i24_MootopVote, this->m_reward.i24_MootopVote);

  02da6	8b 45 fc	 mov	 eax, DWORD PTR _this$[ebp]
  02da9	8b 88 3c 01 00
	00		 mov	 ecx, DWORD PTR [eax+316]
  02daf	51		 push	 ecx
  02db0	8b 55 f8	 mov	 edx, DWORD PTR _lpUser$[ebp]
  02db3	8b 82 8c 29 00
	00		 mov	 eax, DWORD PTR [edx+10636]
  02db9	50		 push	 eax
  02dba	8b 4d fc	 mov	 ecx, DWORD PTR _this$[ebp]
  02dbd	8b 51 74	 mov	 edx, DWORD PTR [ecx+116]
  02dc0	52		 push	 edx
  02dc1	8b 45 08	 mov	 eax, DWORD PTR _aIndex$[ebp]
  02dc4	50		 push	 eax
  02dc5	8b 4d fc	 mov	 ecx, DWORD PTR _this$[ebp]
  02dc8	e8 00 00 00 00	 call	 ?PlayerReward@CAchievements@@QAEXHHHH@Z ; CAchievements::PlayerReward
$LN5@MootopVote:

; 1032 : 	}
; 1033 : }

  02dcd	5f		 pop	 edi
  02dce	5e		 pop	 esi
  02dcf	5b		 pop	 ebx
  02dd0	8b e5		 mov	 esp, ebp
  02dd2	5d		 pop	 ebp
  02dd3	c2 04 00	 ret	 4
?MootopVoteUp@CAchievements@@QAEXH@Z ENDP		; CAchievements::MootopVoteUp
_TEXT	ENDS
PUBLIC	?TeleportInCC@CAchievements@@QAEXH@Z		; CAchievements::TeleportInCC
; Function compile flags: /Odtp /ZI
_TEXT	SEGMENT
_lpUser$ = -8						; size = 4
_this$ = -4						; size = 4
_aIndex$ = 8						; size = 4
?TeleportInCC@CAchievements@@QAEXH@Z PROC		; CAchievements::TeleportInCC
; _this$ = ecx

; 1036 : {

  02de0	55		 push	 ebp
  02de1	8b ec		 mov	 ebp, esp
  02de3	83 ec 48	 sub	 esp, 72			; 00000048H
  02de6	53		 push	 ebx
  02de7	56		 push	 esi
  02de8	57		 push	 edi
  02de9	89 4d fc	 mov	 DWORD PTR _this$[ebp], ecx

; 1037 : 	if(!this->bEnable)

  02dec	8b 45 fc	 mov	 eax, DWORD PTR _this$[ebp]
  02def	0f b6 48 14	 movzx	 ecx, BYTE PTR [eax+20]
  02df3	85 c9		 test	 ecx, ecx
  02df5	75 05		 jne	 SHORT $LN4@TeleportIn

; 1038 : 	{
; 1039 : 		return;

  02df7	e9 81 00 00 00	 jmp	 $LN5@TeleportIn
$LN4@TeleportIn:

; 1040 : 	}
; 1041 : 
; 1042 : 	if(!gObjIsConnected(aIndex))

  02dfc	8b 45 08	 mov	 eax, DWORD PTR _aIndex$[ebp]
  02dff	50		 push	 eax
  02e00	e8 00 00 00 00	 call	 ?gObjIsConnected@@YAHH@Z ; gObjIsConnected
  02e05	83 c4 04	 add	 esp, 4
  02e08	85 c0		 test	 eax, eax
  02e0a	75 02		 jne	 SHORT $LN3@TeleportIn

; 1043 : 	{
; 1044 : 		return;

  02e0c	eb 6f		 jmp	 SHORT $LN5@TeleportIn
$LN3@TeleportIn:

; 1045 : 	}
; 1046 : 
; 1047 : 	LPOBJ lpUser = &gObj[aIndex];

  02e0e	8b 45 08	 mov	 eax, DWORD PTR _aIndex$[ebp]
  02e11	69 c0 38 2b 00
	00		 imul	 eax, 11064		; 00002b38H
  02e17	03 05 00 00 00
	00		 add	 eax, DWORD PTR ?gObj@@3PAUOBJECTSTRUCT@@A ; gObj
  02e1d	89 45 f8	 mov	 DWORD PTR _lpUser$[ebp], eax

; 1048 : 
; 1049 : 	if(!lpUser->ach.bLoaded)

  02e20	8b 45 f8	 mov	 eax, DWORD PTR _lpUser$[ebp]
  02e23	0f b6 88 20 29
	00 00		 movzx	 ecx, BYTE PTR [eax+10528]
  02e2a	85 c9		 test	 ecx, ecx
  02e2c	75 02		 jne	 SHORT $LN2@TeleportIn

; 1050 : 	{
; 1051 : 		return;

  02e2e	eb 4d		 jmp	 SHORT $LN5@TeleportIn
$LN2@TeleportIn:

; 1052 : 	}
; 1053 : 
; 1054 : 	//i9_TakePartInCC
; 1055 : 	if(this->m_config.i9_TakePartInCC > lpUser->ach.mission.i9_TakePartInCC)

  02e30	8b 45 fc	 mov	 eax, DWORD PTR _this$[ebp]
  02e33	8b 4d f8	 mov	 ecx, DWORD PTR _lpUser$[ebp]
  02e36	8b 50 38	 mov	 edx, DWORD PTR [eax+56]
  02e39	3b 91 50 29 00
	00		 cmp	 edx, DWORD PTR [ecx+10576]
  02e3f	76 3c		 jbe	 SHORT $LN5@TeleportIn

; 1056 : 	{
; 1057 : 		lpUser->ach.mission.i9_TakePartInCC++;

  02e41	8b 45 f8	 mov	 eax, DWORD PTR _lpUser$[ebp]
  02e44	8b 88 50 29 00
	00		 mov	 ecx, DWORD PTR [eax+10576]
  02e4a	83 c1 01	 add	 ecx, 1
  02e4d	8b 55 f8	 mov	 edx, DWORD PTR _lpUser$[ebp]
  02e50	89 8a 50 29 00
	00		 mov	 DWORD PTR [edx+10576], ecx

; 1058 : 		this->PlayerReward(aIndex, this->m_config.i9_TakePartInCC, lpUser->ach.mission.i9_TakePartInCC, this->m_reward.i9_TakePartInCC);

  02e56	8b 45 fc	 mov	 eax, DWORD PTR _this$[ebp]
  02e59	8b 88 00 01 00
	00		 mov	 ecx, DWORD PTR [eax+256]
  02e5f	51		 push	 ecx
  02e60	8b 55 f8	 mov	 edx, DWORD PTR _lpUser$[ebp]
  02e63	8b 82 50 29 00
	00		 mov	 eax, DWORD PTR [edx+10576]
  02e69	50		 push	 eax
  02e6a	8b 4d fc	 mov	 ecx, DWORD PTR _this$[ebp]
  02e6d	8b 51 38	 mov	 edx, DWORD PTR [ecx+56]
  02e70	52		 push	 edx
  02e71	8b 45 08	 mov	 eax, DWORD PTR _aIndex$[ebp]
  02e74	50		 push	 eax
  02e75	8b 4d fc	 mov	 ecx, DWORD PTR _this$[ebp]
  02e78	e8 00 00 00 00	 call	 ?PlayerReward@CAchievements@@QAEXHHHH@Z ; CAchievements::PlayerReward
$LN5@TeleportIn:

; 1059 : 	}
; 1060 : }

  02e7d	5f		 pop	 edi
  02e7e	5e		 pop	 esi
  02e7f	5b		 pop	 ebx
  02e80	8b e5		 mov	 esp, ebp
  02e82	5d		 pop	 ebp
  02e83	c2 04 00	 ret	 4
?TeleportInCC@CAchievements@@QAEXH@Z ENDP		; CAchievements::TeleportInCC
_TEXT	ENDS
PUBLIC	?WinCastleSiege@CAchievements@@QAEXPAD@Z	; CAchievements::WinCastleSiege
EXTRN	?SearchUnion@TUnion@@QAEPAVTUnionInfo@@H@Z:PROC	; TUnion::SearchUnion
EXTRN	?UnionManager@@3VTUnion@@A:BYTE			; UnionManager
EXTRN	_strcmp:PROC
EXTRN	_strlen:PROC
; Function compile flags: /Odtp /ZI
_TEXT	SEGMENT
_pUnionUser$229460 = -20				; size = 4
_lpGuildUser$229456 = -16				; size = 4
_lpUser$229453 = -12					; size = 4
_aIndex$229449 = -8					; size = 4
_this$ = -4						; size = 4
_szGuildName$ = 8					; size = 4
?WinCastleSiege@CAchievements@@QAEXPAD@Z PROC		; CAchievements::WinCastleSiege
; _this$ = ecx

; 1063 : {

  02e90	55		 push	 ebp
  02e91	8b ec		 mov	 ebp, esp
  02e93	83 ec 54	 sub	 esp, 84			; 00000054H
  02e96	53		 push	 ebx
  02e97	56		 push	 esi
  02e98	57		 push	 edi
  02e99	89 4d fc	 mov	 DWORD PTR _this$[ebp], ecx

; 1064 : 	if(!this->bEnable)

  02e9c	8b 45 fc	 mov	 eax, DWORD PTR _this$[ebp]
  02e9f	0f b6 48 14	 movzx	 ecx, BYTE PTR [eax+20]
  02ea3	85 c9		 test	 ecx, ecx
  02ea5	75 05		 jne	 SHORT $LN13@WinCastleS

; 1065 : 	{
; 1066 : 		return;

  02ea7	e9 88 01 00 00	 jmp	 $LN14@WinCastleS
$LN13@WinCastleS:

; 1067 : 	}
; 1068 : 
; 1069 : 	if(strlen(szGuildName) < 1)

  02eac	8b 45 08	 mov	 eax, DWORD PTR _szGuildName$[ebp]
  02eaf	50		 push	 eax
  02eb0	e8 00 00 00 00	 call	 _strlen
  02eb5	83 c4 04	 add	 esp, 4
  02eb8	83 f8 01	 cmp	 eax, 1
  02ebb	73 05		 jae	 SHORT $LN12@WinCastleS

; 1070 : 	{
; 1071 : 		return;

  02ebd	e9 72 01 00 00	 jmp	 $LN14@WinCastleS
$LN12@WinCastleS:

; 1072 : 	}
; 1073 : 
; 1074 : 	for(int aIndex = OBJ_STARTUSERINDEX; aIndex < OBJMAX; aIndex++)

  02ec2	c7 45 f8 b0 36
	00 00		 mov	 DWORD PTR _aIndex$229449[ebp], 14000 ; 000036b0H
  02ec9	eb 09		 jmp	 SHORT $LN11@WinCastleS
$LN10@WinCastleS:
  02ecb	8b 45 f8	 mov	 eax, DWORD PTR _aIndex$229449[ebp]
  02ece	83 c0 01	 add	 eax, 1
  02ed1	89 45 f8	 mov	 DWORD PTR _aIndex$229449[ebp], eax
$LN11@WinCastleS:
  02ed4	81 7d f8 98 3a
	00 00		 cmp	 DWORD PTR _aIndex$229449[ebp], 15000 ; 00003a98H
  02edb	0f 8d 53 01 00
	00		 jge	 $LN14@WinCastleS

; 1075 : 	{
; 1076 : 		LPOBJ lpUser = &gObj[aIndex];

  02ee1	8b 45 f8	 mov	 eax, DWORD PTR _aIndex$229449[ebp]
  02ee4	69 c0 38 2b 00
	00		 imul	 eax, 11064		; 00002b38H
  02eea	03 05 00 00 00
	00		 add	 eax, DWORD PTR ?gObj@@3PAUOBJECTSTRUCT@@A ; gObj
  02ef0	89 45 f4	 mov	 DWORD PTR _lpUser$229453[ebp], eax

; 1077 : 
; 1078 : 		if(lpUser->Connected == PLAYER_PLAYING && lpUser->Type == OBJ_USER)

  02ef3	8b 45 f4	 mov	 eax, DWORD PTR _lpUser$229453[ebp]
  02ef6	83 78 04 03	 cmp	 DWORD PTR [eax+4], 3
  02efa	0f 85 2f 01 00
	00		 jne	 $LN8@WinCastleS
  02f00	8b 45 f4	 mov	 eax, DWORD PTR _lpUser$229453[ebp]
  02f03	0f b7 48 68	 movzx	 ecx, WORD PTR [eax+104]
  02f07	83 f9 01	 cmp	 ecx, 1
  02f0a	0f 85 1f 01 00
	00		 jne	 $LN8@WinCastleS

; 1079 : 		{
; 1080 : 			if(!lpUser->ach.bLoaded)

  02f10	8b 45 f4	 mov	 eax, DWORD PTR _lpUser$229453[ebp]
  02f13	0f b6 88 20 29
	00 00		 movzx	 ecx, BYTE PTR [eax+10528]
  02f1a	85 c9		 test	 ecx, ecx
  02f1c	75 02		 jne	 SHORT $LN7@WinCastleS

; 1081 : 			{
; 1082 : 				continue;

  02f1e	eb ab		 jmp	 SHORT $LN10@WinCastleS
$LN7@WinCastleS:

; 1083 : 			}
; 1084 : 
; 1085 : 			_GUILD_INFO_STRUCT * lpGuildUser = lpUser->lpGuild;

  02f20	8b 45 f4	 mov	 eax, DWORD PTR _lpUser$229453[ebp]
  02f23	8b 88 38 04 00
