; Listing generated by Microsoft (R) Optimizing Compiler Version 16.00.40219.01 

	TITLE	D:\Projects\ExTeam6.3\Source\GameServer\GameServer\AlertSystem.cpp
	.686P
	.XMM
	include listing.inc
	.model	flat

INCLUDELIB LIBCMT
INCLUDELIB OLDNAMES

PUBLIC	?AlertSystem@@3VcAlertSystem@@A			; AlertSystem
_BSS	SEGMENT
?AlertSystem@@3VcAlertSystem@@A DB 0132cH DUP (?)	; AlertSystem
_BSS	ENDS
PUBLIC	??_C@_0L@DHBPCNNH@?$CFd?5?$CC?$CF?$FL?$FO?$CC?$FN?$CC?$AA@ ; `string'
PUBLIC	??_C@_0O@BCJPJIHJ@?$CFd?5?$CFd?5?$CC?$CF?$FL?$FO?$CC?$FN?$CC?$AA@ ; `string'
PUBLIC	??_C@_0BE@JNJNPECB@?$CFd?5?$CFd?5?$CFd?5?$CFd?5?$CC?$CF?$FL?$FO?$CC?$FN?$CC?$AA@ ; `string'
PUBLIC	??_C@_0BA@PIOFNAIM@LOAD?5FILE?5ERROR?$AA@	; `string'
PUBLIC	??_C@_01KDCPPGHE@r?$AA@				; `string'
PUBLIC	??_C@_06POMJKEPM@Common?$AA@			; `string'
PUBLIC	??_C@_06CKGENIKG@Enable?$AA@			; `string'
PUBLIC	??_C@_0BP@PIFECJHJ@?4?4?2Data?2ExData?2AlertSystem?4ini?$AA@ ; `string'
PUBLIC	__$ArrayPad$
PUBLIC	?Load@cAlertSystem@@QAEXXZ			; cAlertSystem::Load
EXTRN	_fclose:PROC
EXTRN	_strcpy:PROC
EXTRN	_sscanf:PROC
EXTRN	?Ex_IsBadFileLine@@YA_NPADAAH@Z:PROC		; Ex_IsBadFileLine
EXTRN	_fgets:PROC
EXTRN	_feof:PROC
EXTRN	_memset:PROC
EXTRN	_strlen:PROC
EXTRN	__imp__MessageBoxA@16:PROC
EXTRN	_fopen:PROC
EXTRN	__imp__GetPrivateProfileIntA@16:PROC
EXTRN	___security_cookie:DWORD
EXTRN	@__security_check_cookie@4:PROC
;	COMDAT ??_C@_0L@DHBPCNNH@?$CFd?5?$CC?$CF?$FL?$FO?$CC?$FN?$CC?$AA@
; File d:\projects\exteam6.3\source\gameserver\gameserver\alertsystem.cpp
CONST	SEGMENT
??_C@_0L@DHBPCNNH@?$CFd?5?$CC?$CF?$FL?$FO?$CC?$FN?$CC?$AA@ DB '%d "%[^"]"'
	DB	00H						; `string'
CONST	ENDS
;	COMDAT ??_C@_0O@BCJPJIHJ@?$CFd?5?$CFd?5?$CC?$CF?$FL?$FO?$CC?$FN?$CC?$AA@
CONST	SEGMENT
??_C@_0O@BCJPJIHJ@?$CFd?5?$CFd?5?$CC?$CF?$FL?$FO?$CC?$FN?$CC?$AA@ DB '%d '
	DB	'%d "%[^"]"', 00H				; `string'
CONST	ENDS
;	COMDAT ??_C@_0BE@JNJNPECB@?$CFd?5?$CFd?5?$CFd?5?$CFd?5?$CC?$CF?$FL?$FO?$CC?$FN?$CC?$AA@
CONST	SEGMENT
??_C@_0BE@JNJNPECB@?$CFd?5?$CFd?5?$CFd?5?$CFd?5?$CC?$CF?$FL?$FO?$CC?$FN?$CC?$AA@ DB '%'
	DB	'd %d %d %d "%[^"]"', 00H			; `string'
CONST	ENDS
;	COMDAT ??_C@_0BA@PIOFNAIM@LOAD?5FILE?5ERROR?$AA@
CONST	SEGMENT
??_C@_0BA@PIOFNAIM@LOAD?5FILE?5ERROR?$AA@ DB 'LOAD FILE ERROR', 00H ; `string'
CONST	ENDS
;	COMDAT ??_C@_01KDCPPGHE@r?$AA@
CONST	SEGMENT
??_C@_01KDCPPGHE@r?$AA@ DB 'r', 00H			; `string'
CONST	ENDS
;	COMDAT ??_C@_06POMJKEPM@Common?$AA@
CONST	SEGMENT
??_C@_06POMJKEPM@Common?$AA@ DB 'Common', 00H		; `string'
CONST	ENDS
;	COMDAT ??_C@_06CKGENIKG@Enable?$AA@
CONST	SEGMENT
??_C@_06CKGENIKG@Enable?$AA@ DB 'Enable', 00H		; `string'
CONST	ENDS
;	COMDAT ??_C@_0BP@PIFECJHJ@?4?4?2Data?2ExData?2AlertSystem?4ini?$AA@
CONST	SEGMENT
??_C@_0BP@PIFECJHJ@?4?4?2Data?2ExData?2AlertSystem?4ini?$AA@ DB '..\Data\'
	DB	'ExData\AlertSystem.ini', 00H		; `string'
; Function compile flags: /Odtp /ZI
CONST	ENDS
_TEXT	SEGMENT
_str$204615 = -724					; size = 100
_n$204614 = -624					; size = 4
_str$204610 = -620					; size = 100
_n$204609 = -520					; size = 4
_str$204605 = -516					; size = 100
_n$204604 = -416					; size = 8
_str$204600 = -408					; size = 100
_n$204599 = -308					; size = 16
_i$204589 = -292					; size = 4
_i$204585 = -288					; size = 4
_i$204581 = -284					; size = 4
_i$204577 = -280					; size = 4
_i$204573 = -276					; size = 4
_Flag$ = -272						; size = 4
_Buff$ = -268						; size = 256
_file$ = -12						; size = 4
_this$ = -8						; size = 4
__$ArrayPad$ = -4					; size = 4
?Load@cAlertSystem@@QAEXXZ PROC				; cAlertSystem::Load
; _this$ = ecx

; 10   : {

  00000	55		 push	 ebp
  00001	8b ec		 mov	 ebp, esp
  00003	81 ec 14 03 00
	00		 sub	 esp, 788		; 00000314H
  00009	a1 00 00 00 00	 mov	 eax, DWORD PTR ___security_cookie
  0000e	33 c5		 xor	 eax, ebp
  00010	89 45 fc	 mov	 DWORD PTR __$ArrayPad$[ebp], eax
  00013	53		 push	 ebx
  00014	56		 push	 esi
  00015	57		 push	 edi
  00016	89 4d f8	 mov	 DWORD PTR _this$[ebp], ecx

; 11   : 	this->Enable = GetPrivateProfileInt("Common","Enable",0,ALERT_SYSTEM_DIR);

  00019	68 00 00 00 00	 push	 OFFSET ??_C@_0BP@PIFECJHJ@?4?4?2Data?2ExData?2AlertSystem?4ini?$AA@
  0001e	6a 00		 push	 0
  00020	68 00 00 00 00	 push	 OFFSET ??_C@_06CKGENIKG@Enable?$AA@
  00025	68 00 00 00 00	 push	 OFFSET ??_C@_06POMJKEPM@Common?$AA@
  0002a	ff 15 00 00 00
	00		 call	 DWORD PTR __imp__GetPrivateProfileIntA@16
  00030	8b 4d f8	 mov	 ecx, DWORD PTR _this$[ebp]
  00033	89 01		 mov	 DWORD PTR [ecx], eax

; 12   : 	
; 13   : 
; 14   : 	FILE * file = fopen(ALERT_SYSTEM_DIR,"r");

  00035	68 00 00 00 00	 push	 OFFSET ??_C@_01KDCPPGHE@r?$AA@
  0003a	68 00 00 00 00	 push	 OFFSET ??_C@_0BP@PIFECJHJ@?4?4?2Data?2ExData?2AlertSystem?4ini?$AA@
  0003f	e8 00 00 00 00	 call	 _fopen
  00044	83 c4 08	 add	 esp, 8
  00047	89 45 f4	 mov	 DWORD PTR _file$[ebp], eax

; 15   : 	if(file == NULL)

  0004a	83 7d f4 00	 cmp	 DWORD PTR _file$[ebp], 0
  0004e	75 1d		 jne	 SHORT $LN27@Load

; 16   : 	{
; 17   : 		MessageBoxA(0,ALERT_SYSTEM_DIR,"LOAD FILE ERROR",0);

  00050	6a 00		 push	 0
  00052	68 00 00 00 00	 push	 OFFSET ??_C@_0BA@PIOFNAIM@LOAD?5FILE?5ERROR?$AA@
  00057	68 00 00 00 00	 push	 OFFSET ??_C@_0BP@PIFECJHJ@?4?4?2Data?2ExData?2AlertSystem?4ini?$AA@
  0005c	6a 00		 push	 0
  0005e	ff 15 00 00 00
	00		 call	 DWORD PTR __imp__MessageBoxA@16

; 18   : 		this->Enable = false;

  00064	8b 45 f8	 mov	 eax, DWORD PTR _this$[ebp]
  00067	c7 00 00 00 00
	00		 mov	 DWORD PTR [eax], 0
$LN27@Load:

; 19   : 	}
; 20   : 
; 21   : 	char Buff[256];
; 22   : 	int Flag = 0;

  0006d	c7 85 f0 fe ff
	ff 00 00 00 00	 mov	 DWORD PTR _Flag$[ebp], 0

; 23   : 	this->CountDateMessage = 0;

  00077	8b 45 f8	 mov	 eax, DWORD PTR _this$[ebp]
  0007a	c7 40 04 00 00
	00 00		 mov	 DWORD PTR [eax+4], 0

; 24   : 	this->CountEveryDayMessage = 0;

  00081	8b 45 f8	 mov	 eax, DWORD PTR _this$[ebp]
  00084	c7 40 08 00 00
	00 00		 mov	 DWORD PTR [eax+8], 0

; 25   : 	this->CountIntervalMessage = 0;

  0008b	8b 45 f8	 mov	 eax, DWORD PTR _this$[ebp]
  0008e	c7 40 0c 00 00
	00 00		 mov	 DWORD PTR [eax+12], 0

; 26   : 
; 27   : 	this->m_iNoticeID = 0;

  00095	8b 45 f8	 mov	 eax, DWORD PTR _this$[ebp]
  00098	c7 80 28 13 00
	00 00 00 00 00	 mov	 DWORD PTR [eax+4904], 0

; 28   : 	this->m_iNoticeCount = 0;

  000a2	8b 45 f8	 mov	 eax, DWORD PTR _this$[ebp]
  000a5	c7 80 20 13 00
	00 00 00 00 00	 mov	 DWORD PTR [eax+4896], 0

; 29   : 	this->m_iNotickeTick = 0;

  000af	8b 45 f8	 mov	 eax, DWORD PTR _this$[ebp]
  000b2	c7 80 24 13 00
	00 00 00 00 00	 mov	 DWORD PTR [eax+4900], 0

; 30   : 
; 31   : 	for (int i = 0; i < MAX_ALERT_SYSTEM_INTERVAL; i++){this->Interval[i] = 0;}

  000bc	c7 85 ec fe ff
	ff 00 00 00 00	 mov	 DWORD PTR _i$204573[ebp], 0
  000c6	eb 0f		 jmp	 SHORT $LN26@Load
$LN25@Load:
  000c8	8b 85 ec fe ff
	ff		 mov	 eax, DWORD PTR _i$204573[ebp]
  000ce	83 c0 01	 add	 eax, 1
  000d1	89 85 ec fe ff
	ff		 mov	 DWORD PTR _i$204573[ebp], eax
$LN26@Load:
  000d7	83 bd ec fe ff
	ff 14		 cmp	 DWORD PTR _i$204573[ebp], 20 ; 00000014H
  000de	7d 13		 jge	 SHORT $LN24@Load
  000e0	8b 85 ec fe ff
	ff		 mov	 eax, DWORD PTR _i$204573[ebp]
  000e6	8b 4d f8	 mov	 ecx, DWORD PTR _this$[ebp]
  000e9	c7 44 81 10 00
	00 00 00	 mov	 DWORD PTR [ecx+eax*4+16], 0
  000f1	eb d5		 jmp	 SHORT $LN25@Load
$LN24@Load:

; 32   : 
; 33   : 	for (int i = 0; i < MAX_ALERT_SYSTEM_DATE; i++)

  000f3	c7 85 e8 fe ff
	ff 00 00 00 00	 mov	 DWORD PTR _i$204577[ebp], 0
  000fd	eb 0f		 jmp	 SHORT $LN23@Load
$LN22@Load:
  000ff	8b 85 e8 fe ff
	ff		 mov	 eax, DWORD PTR _i$204577[ebp]
  00105	83 c0 01	 add	 eax, 1
  00108	89 85 e8 fe ff
	ff		 mov	 DWORD PTR _i$204577[ebp], eax
$LN23@Load:
  0010e	83 bd e8 fe ff
	ff 14		 cmp	 DWORD PTR _i$204577[ebp], 20 ; 00000014H
  00115	0f 8d 96 00 00
	00		 jge	 $LN21@Load

; 34   : 	{
; 35   : 		this->DateMessage[i].Day = 0;

  0011b	8b 85 e8 fe ff
	ff		 mov	 eax, DWORD PTR _i$204577[ebp]
  00121	6b c0 44	 imul	 eax, 68			; 00000044H
  00124	8b 4d f8	 mov	 ecx, DWORD PTR _this$[ebp]
  00127	c7 84 01 98 00
	00 00 00 00 00
	00		 mov	 DWORD PTR [ecx+eax+152], 0

; 36   : 		this->DateMessage[i].Hour = 0;

  00132	8b 85 e8 fe ff
	ff		 mov	 eax, DWORD PTR _i$204577[ebp]
  00138	6b c0 44	 imul	 eax, 68			; 00000044H
  0013b	8b 4d f8	 mov	 ecx, DWORD PTR _this$[ebp]
  0013e	c7 84 01 9c 00
	00 00 00 00 00
	00		 mov	 DWORD PTR [ecx+eax+156], 0

; 37   : 		ZeroMemory(this->DateMessage[i].Message, strlen(this->DateMessage[i].Message));

  00149	8b 85 e8 fe ff
	ff		 mov	 eax, DWORD PTR _i$204577[ebp]
  0014f	6b c0 44	 imul	 eax, 68			; 00000044H
  00152	8b 4d f8	 mov	 ecx, DWORD PTR _this$[ebp]
  00155	8d 54 01 60	 lea	 edx, DWORD PTR [ecx+eax+96]
  00159	52		 push	 edx
  0015a	e8 00 00 00 00	 call	 _strlen
  0015f	83 c4 04	 add	 esp, 4
  00162	50		 push	 eax
  00163	6a 00		 push	 0
  00165	8b 85 e8 fe ff
	ff		 mov	 eax, DWORD PTR _i$204577[ebp]
  0016b	6b c0 44	 imul	 eax, 68			; 00000044H
  0016e	8b 4d f8	 mov	 ecx, DWORD PTR _this$[ebp]
  00171	8d 54 01 60	 lea	 edx, DWORD PTR [ecx+eax+96]
  00175	52		 push	 edx
  00176	e8 00 00 00 00	 call	 _memset
  0017b	83 c4 0c	 add	 esp, 12			; 0000000cH

; 38   : 		this->DateMessage[i].Minutes = 0;

  0017e	8b 85 e8 fe ff
	ff		 mov	 eax, DWORD PTR _i$204577[ebp]
  00184	6b c0 44	 imul	 eax, 68			; 00000044H
  00187	8b 4d f8	 mov	 ecx, DWORD PTR _this$[ebp]
  0018a	c7 84 01 a0 00
	00 00 00 00 00
	00		 mov	 DWORD PTR [ecx+eax+160], 0

; 39   : 		this->DateMessage[i].Month = 0;		

  00195	8b 85 e8 fe ff
	ff		 mov	 eax, DWORD PTR _i$204577[ebp]
  0019b	6b c0 44	 imul	 eax, 68			; 00000044H
  0019e	8b 4d f8	 mov	 ecx, DWORD PTR _this$[ebp]
  001a1	c7 84 01 94 00
	00 00 00 00 00
	00		 mov	 DWORD PTR [ecx+eax+148], 0

; 40   : 	}

  001ac	e9 4e ff ff ff	 jmp	 $LN22@Load
$LN21@Load:

; 41   : 	for (int i = 0; i < MAX_ALERT_SYSTEM_DAY; i++)

  001b1	c7 85 e4 fe ff
	ff 00 00 00 00	 mov	 DWORD PTR _i$204581[ebp], 0
  001bb	eb 0f		 jmp	 SHORT $LN20@Load
$LN19@Load:
  001bd	8b 85 e4 fe ff
	ff		 mov	 eax, DWORD PTR _i$204581[ebp]
  001c3	83 c0 01	 add	 eax, 1
  001c6	89 85 e4 fe ff
	ff		 mov	 DWORD PTR _i$204581[ebp], eax
$LN20@Load:
  001cc	83 bd e4 fe ff
	ff 14		 cmp	 DWORD PTR _i$204581[ebp], 20 ; 00000014H
  001d3	7d 6e		 jge	 SHORT $LN18@Load

; 42   : 	{
; 43   : 		this->EveryDayMessage[i].Hour = 0;

  001d5	8b 85 e4 fe ff
	ff		 mov	 eax, DWORD PTR _i$204581[ebp]
  001db	6b c0 3c	 imul	 eax, 60			; 0000003cH
  001de	8b 4d f8	 mov	 ecx, DWORD PTR _this$[ebp]
  001e1	c7 84 01 e4 05
	00 00 00 00 00
	00		 mov	 DWORD PTR [ecx+eax+1508], 0

; 44   : 		this->EveryDayMessage[i].Minutes = 0;

  001ec	8b 85 e4 fe ff
	ff		 mov	 eax, DWORD PTR _i$204581[ebp]
  001f2	6b c0 3c	 imul	 eax, 60			; 0000003cH
  001f5	8b 4d f8	 mov	 ecx, DWORD PTR _this$[ebp]
  001f8	c7 84 01 e8 05
	00 00 00 00 00
	00		 mov	 DWORD PTR [ecx+eax+1512], 0

; 45   : 		ZeroMemory(this->EveryDayMessage[i].Message, strlen(this->EveryDayMessage[i].Message));

  00203	8b 85 e4 fe ff
	ff		 mov	 eax, DWORD PTR _i$204581[ebp]
  00209	6b c0 3c	 imul	 eax, 60			; 0000003cH
  0020c	8b 4d f8	 mov	 ecx, DWORD PTR _this$[ebp]
  0020f	8d 94 01 b0 05
	00 00		 lea	 edx, DWORD PTR [ecx+eax+1456]
  00216	52		 push	 edx
  00217	e8 00 00 00 00	 call	 _strlen
  0021c	83 c4 04	 add	 esp, 4
  0021f	50		 push	 eax
  00220	6a 00		 push	 0
  00222	8b 85 e4 fe ff
	ff		 mov	 eax, DWORD PTR _i$204581[ebp]
  00228	6b c0 3c	 imul	 eax, 60			; 0000003cH
  0022b	8b 4d f8	 mov	 ecx, DWORD PTR _this$[ebp]
  0022e	8d 94 01 b0 05
	00 00		 lea	 edx, DWORD PTR [ecx+eax+1456]
  00235	52		 push	 edx
  00236	e8 00 00 00 00	 call	 _memset
  0023b	83 c4 0c	 add	 esp, 12			; 0000000cH

; 46   : 	}

  0023e	e9 7a ff ff ff	 jmp	 $LN19@Load
$LN18@Load:

; 47   : 	for (int i = 0; i < MAX_ALERT_SYSTEM_INTERVAL; i++)

  00243	c7 85 e0 fe ff
	ff 00 00 00 00	 mov	 DWORD PTR _i$204585[ebp], 0
  0024d	eb 0f		 jmp	 SHORT $LN17@Load
$LN16@Load:
  0024f	8b 85 e0 fe ff
	ff		 mov	 eax, DWORD PTR _i$204585[ebp]
  00255	83 c0 01	 add	 eax, 1
  00258	89 85 e0 fe ff
	ff		 mov	 DWORD PTR _i$204585[ebp], eax
$LN17@Load:
  0025e	83 bd e0 fe ff
	ff 14		 cmp	 DWORD PTR _i$204585[ebp], 20 ; 00000014H
  00265	7d 54		 jge	 SHORT $LN15@Load

; 48   : 	{
; 49   : 		this->IntervalMessage[i].Interval = 0;

  00267	8b 85 e0 fe ff
	ff		 mov	 eax, DWORD PTR _i$204585[ebp]
  0026d	6b c0 38	 imul	 eax, 56			; 00000038H
  00270	8b 4d f8	 mov	 ecx, DWORD PTR _this$[ebp]
  00273	c7 84 01 94 0a
	00 00 00 00 00
	00		 mov	 DWORD PTR [ecx+eax+2708], 0

; 50   : 		ZeroMemory(this->IntervalMessage[i].Message, strlen(this->IntervalMessage[i].Message));

  0027e	8b 85 e0 fe ff
	ff		 mov	 eax, DWORD PTR _i$204585[ebp]
  00284	6b c0 38	 imul	 eax, 56			; 00000038H
  00287	8b 4d f8	 mov	 ecx, DWORD PTR _this$[ebp]
  0028a	8d 94 01 60 0a
	00 00		 lea	 edx, DWORD PTR [ecx+eax+2656]
  00291	52		 push	 edx
  00292	e8 00 00 00 00	 call	 _strlen
  00297	83 c4 04	 add	 esp, 4
  0029a	50		 push	 eax
  0029b	6a 00		 push	 0
  0029d	8b 85 e0 fe ff
	ff		 mov	 eax, DWORD PTR _i$204585[ebp]
  002a3	6b c0 38	 imul	 eax, 56			; 00000038H
  002a6	8b 4d f8	 mov	 ecx, DWORD PTR _this$[ebp]
  002a9	8d 94 01 60 0a
	00 00		 lea	 edx, DWORD PTR [ecx+eax+2656]
  002b0	52		 push	 edx
  002b1	e8 00 00 00 00	 call	 _memset
  002b6	83 c4 0c	 add	 esp, 12			; 0000000cH

; 51   : 	}

  002b9	eb 94		 jmp	 SHORT $LN16@Load
$LN15@Load:

; 52   : 	for (int i = 0; i < MAX_ALERT_SYSTEM_INTERVAL; i++)

  002bb	c7 85 dc fe ff
	ff 00 00 00 00	 mov	 DWORD PTR _i$204589[ebp], 0
  002c5	eb 0f		 jmp	 SHORT $LN14@Load
$LN13@Load:
  002c7	8b 85 dc fe ff
	ff		 mov	 eax, DWORD PTR _i$204589[ebp]
  002cd	83 c0 01	 add	 eax, 1
  002d0	89 85 dc fe ff
	ff		 mov	 DWORD PTR _i$204589[ebp], eax
$LN14@Load:
  002d6	83 bd dc fe ff
	ff 14		 cmp	 DWORD PTR _i$204589[ebp], 20 ; 00000014H
  002dd	7d 54		 jge	 SHORT $LN11@Load

; 53   : 	{
; 54   : 		this->NoticeMessage[i].Interval = 0;

  002df	8b 85 dc fe ff
	ff		 mov	 eax, DWORD PTR _i$204589[ebp]
  002e5	6b c0 38	 imul	 eax, 56			; 00000038H
  002e8	8b 4d f8	 mov	 ecx, DWORD PTR _this$[ebp]
  002eb	c7 84 01 f4 0e
	00 00 00 00 00
	00		 mov	 DWORD PTR [ecx+eax+3828], 0

; 55   : 		ZeroMemory(this->NoticeMessage[i].Message, strlen(this->NoticeMessage[i].Message));

  002f6	8b 85 dc fe ff
	ff		 mov	 eax, DWORD PTR _i$204589[ebp]
  002fc	6b c0 38	 imul	 eax, 56			; 00000038H
  002ff	8b 4d f8	 mov	 ecx, DWORD PTR _this$[ebp]
  00302	8d 94 01 c0 0e
	00 00		 lea	 edx, DWORD PTR [ecx+eax+3776]
  00309	52		 push	 edx
  0030a	e8 00 00 00 00	 call	 _strlen
  0030f	83 c4 04	 add	 esp, 4
  00312	50		 push	 eax
  00313	6a 00		 push	 0
  00315	8b 85 dc fe ff
	ff		 mov	 eax, DWORD PTR _i$204589[ebp]
  0031b	6b c0 38	 imul	 eax, 56			; 00000038H
  0031e	8b 4d f8	 mov	 ecx, DWORD PTR _this$[ebp]
  00321	8d 94 01 c0 0e
	00 00		 lea	 edx, DWORD PTR [ecx+eax+3776]
  00328	52		 push	 edx
  00329	e8 00 00 00 00	 call	 _memset
  0032e	83 c4 0c	 add	 esp, 12			; 0000000cH

; 56   : 	}

  00331	eb 94		 jmp	 SHORT $LN13@Load
$LN11@Load:

; 57   : 
; 58   : 	while(!feof(file))

  00333	8b 45 f4	 mov	 eax, DWORD PTR _file$[ebp]
  00336	50		 push	 eax
  00337	e8 00 00 00 00	 call	 _feof
  0033c	83 c4 04	 add	 esp, 4
  0033f	85 c0		 test	 eax, eax
  00341	0f 85 ea 02 00
	00		 jne	 $LN10@Load

; 59   : 	{
; 60   : 		fgets(Buff,256,file);

  00347	8b 45 f4	 mov	 eax, DWORD PTR _file$[ebp]
  0034a	50		 push	 eax
  0034b	68 00 01 00 00	 push	 256			; 00000100H
  00350	8d 8d f4 fe ff
	ff		 lea	 ecx, DWORD PTR _Buff$[ebp]
  00356	51		 push	 ecx
  00357	e8 00 00 00 00	 call	 _fgets
  0035c	83 c4 0c	 add	 esp, 12			; 0000000cH

; 61   : 		if(Ex_IsBadFileLine(Buff, Flag))

  0035f	8d 85 f0 fe ff
	ff		 lea	 eax, DWORD PTR _Flag$[ebp]
  00365	50		 push	 eax
  00366	8d 8d f4 fe ff
	ff		 lea	 ecx, DWORD PTR _Buff$[ebp]
  0036c	51		 push	 ecx
  0036d	e8 00 00 00 00	 call	 ?Ex_IsBadFileLine@@YA_NPADAAH@Z ; Ex_IsBadFileLine
  00372	83 c4 08	 add	 esp, 8
  00375	0f b6 d0	 movzx	 edx, al
  00378	85 d2		 test	 edx, edx
  0037a	74 02		 je	 SHORT $LN9@Load

; 62   : 			continue;

  0037c	eb b5		 jmp	 SHORT $LN11@Load
$LN9@Load:

; 63   : 		if(Flag == 1)

  0037e	83 bd f0 fe ff
	ff 01		 cmp	 DWORD PTR _Flag$[ebp], 1
  00385	0f 85 d8 00 00
	00		 jne	 $LN8@Load

; 64   : 		{
; 65   : 			if(this->CountDateMessage == MAX_ALERT_SYSTEM_DATE) break;

  0038b	8b 45 f8	 mov	 eax, DWORD PTR _this$[ebp]
  0038e	83 78 04 14	 cmp	 DWORD PTR [eax+4], 20	; 00000014H
  00392	75 05		 jne	 SHORT $LN7@Load
  00394	e9 98 02 00 00	 jmp	 $LN10@Load
$LN7@Load:

; 66   : 			int n[4];
; 67   : 			char str[100];
; 68   : 			sscanf(Buff, "%d %d %d %d \"%[^\"]\"", &n[0], &n[1], &n[2], &n[3], &str);

  00399	8d 85 68 fe ff
	ff		 lea	 eax, DWORD PTR _str$204600[ebp]
  0039f	50		 push	 eax
  003a0	8d 8d d8 fe ff
	ff		 lea	 ecx, DWORD PTR _n$204599[ebp+12]
  003a6	51		 push	 ecx
  003a7	8d 95 d4 fe ff
	ff		 lea	 edx, DWORD PTR _n$204599[ebp+8]
  003ad	52		 push	 edx
  003ae	8d 85 d0 fe ff
	ff		 lea	 eax, DWORD PTR _n$204599[ebp+4]
  003b4	50		 push	 eax
  003b5	8d 8d cc fe ff
	ff		 lea	 ecx, DWORD PTR _n$204599[ebp]
  003bb	51		 push	 ecx
  003bc	68 00 00 00 00	 push	 OFFSET ??_C@_0BE@JNJNPECB@?$CFd?5?$CFd?5?$CFd?5?$CFd?5?$CC?$CF?$FL?$FO?$CC?$FN?$CC?$AA@
  003c1	8d 95 f4 fe ff
	ff		 lea	 edx, DWORD PTR _Buff$[ebp]
  003c7	52		 push	 edx
  003c8	e8 00 00 00 00	 call	 _sscanf
  003cd	83 c4 1c	 add	 esp, 28			; 0000001cH

; 69   : 			this->DateMessage[this->CountDateMessage].Month = n[0];

  003d0	8b 45 f8	 mov	 eax, DWORD PTR _this$[ebp]
  003d3	8b 48 04	 mov	 ecx, DWORD PTR [eax+4]
  003d6	6b c9 44	 imul	 ecx, 68			; 00000044H
  003d9	8b 55 f8	 mov	 edx, DWORD PTR _this$[ebp]
  003dc	8b 85 cc fe ff
	ff		 mov	 eax, DWORD PTR _n$204599[ebp]
  003e2	89 84 0a 94 00
	00 00		 mov	 DWORD PTR [edx+ecx+148], eax

; 70   : 			this->DateMessage[this->CountDateMessage].Day = n[1];

  003e9	8b 45 f8	 mov	 eax, DWORD PTR _this$[ebp]
  003ec	8b 48 04	 mov	 ecx, DWORD PTR [eax+4]
  003ef	6b c9 44	 imul	 ecx, 68			; 00000044H
  003f2	8b 55 f8	 mov	 edx, DWORD PTR _this$[ebp]
  003f5	8b 85 d0 fe ff
	ff		 mov	 eax, DWORD PTR _n$204599[ebp+4]
  003fb	89 84 0a 98 00
	00 00		 mov	 DWORD PTR [edx+ecx+152], eax

; 71   : 			this->DateMessage[this->CountDateMessage].Hour = n[2];

  00402	8b 45 f8	 mov	 eax, DWORD PTR _this$[ebp]
  00405	8b 48 04	 mov	 ecx, DWORD PTR [eax+4]
  00408	6b c9 44	 imul	 ecx, 68			; 00000044H
  0040b	8b 55 f8	 mov	 edx, DWORD PTR _this$[ebp]
  0040e	8b 85 d4 fe ff
	ff		 mov	 eax, DWORD PTR _n$204599[ebp+8]
  00414	89 84 0a 9c 00
	00 00		 mov	 DWORD PTR [edx+ecx+156], eax

; 72   : 			this->DateMessage[this->CountDateMessage].Minutes = n[3];

  0041b	8b 45 f8	 mov	 eax, DWORD PTR _this$[ebp]
  0041e	8b 48 04	 mov	 ecx, DWORD PTR [eax+4]
  00421	6b c9 44	 imul	 ecx, 68			; 00000044H
  00424	8b 55 f8	 mov	 edx, DWORD PTR _this$[ebp]
  00427	8b 85 d8 fe ff
	ff		 mov	 eax, DWORD PTR _n$204599[ebp+12]
  0042d	89 84 0a a0 00
	00 00		 mov	 DWORD PTR [edx+ecx+160], eax

; 73   : 			strcpy(DateMessage[this->CountDateMessage].Message,str);

  00434	8d 85 68 fe ff
	ff		 lea	 eax, DWORD PTR _str$204600[ebp]
  0043a	50		 push	 eax
  0043b	8b 4d f8	 mov	 ecx, DWORD PTR _this$[ebp]
  0043e	8b 51 04	 mov	 edx, DWORD PTR [ecx+4]
  00441	6b d2 44	 imul	 edx, 68			; 00000044H
  00444	8b 45 f8	 mov	 eax, DWORD PTR _this$[ebp]
  00447	8d 4c 10 60	 lea	 ecx, DWORD PTR [eax+edx+96]
  0044b	51		 push	 ecx
  0044c	e8 00 00 00 00	 call	 _strcpy
  00451	83 c4 08	 add	 esp, 8

; 74   : 			this->CountDateMessage++;

  00454	8b 45 f8	 mov	 eax, DWORD PTR _this$[ebp]
  00457	8b 48 04	 mov	 ecx, DWORD PTR [eax+4]
  0045a	83 c1 01	 add	 ecx, 1
  0045d	8b 55 f8	 mov	 edx, DWORD PTR _this$[ebp]
  00460	89 4a 04	 mov	 DWORD PTR [edx+4], ecx
$LN8@Load:

; 75   : 		}
; 76   : 		if(Flag == 2)

  00463	83 bd f0 fe ff
	ff 02		 cmp	 DWORD PTR _Flag$[ebp], 2
  0046a	0f 85 9b 00 00
	00		 jne	 $LN6@Load

; 77   : 		{
; 78   : 			if(this->CountDateMessage == MAX_ALERT_SYSTEM_DAY) break;

  00470	8b 45 f8	 mov	 eax, DWORD PTR _this$[ebp]
  00473	83 78 04 14	 cmp	 DWORD PTR [eax+4], 20	; 00000014H
  00477	75 05		 jne	 SHORT $LN5@Load
  00479	e9 b3 01 00 00	 jmp	 $LN10@Load
$LN5@Load:

; 79   : 			int n[2];
; 80   : 			char str[100];
; 81   : 			sscanf(Buff, "%d %d \"%[^\"]\"", &n[0], &n[1], &str);

  0047e	8d 85 fc fd ff
	ff		 lea	 eax, DWORD PTR _str$204605[ebp]
  00484	50		 push	 eax
  00485	8d 8d 64 fe ff
	ff		 lea	 ecx, DWORD PTR _n$204604[ebp+4]
  0048b	51		 push	 ecx
  0048c	8d 95 60 fe ff
	ff		 lea	 edx, DWORD PTR _n$204604[ebp]
  00492	52		 push	 edx
  00493	68 00 00 00 00	 push	 OFFSET ??_C@_0O@BCJPJIHJ@?$CFd?5?$CFd?5?$CC?$CF?$FL?$FO?$CC?$FN?$CC?$AA@
  00498	8d 85 f4 fe ff
	ff		 lea	 eax, DWORD PTR _Buff$[ebp]
  0049e	50		 push	 eax
  0049f	e8 00 00 00 00	 call	 _sscanf
  004a4	83 c4 14	 add	 esp, 20			; 00000014H

; 82   : 			this->EveryDayMessage[this->CountEveryDayMessage].Hour = n[0];

  004a7	8b 45 f8	 mov	 eax, DWORD PTR _this$[ebp]
  004aa	8b 48 08	 mov	 ecx, DWORD PTR [eax+8]
  004ad	6b c9 3c	 imul	 ecx, 60			; 0000003cH
  004b0	8b 55 f8	 mov	 edx, DWORD PTR _this$[ebp]
  004b3	8b 85 60 fe ff
	ff		 mov	 eax, DWORD PTR _n$204604[ebp]
  004b9	89 84 0a e4 05
	00 00		 mov	 DWORD PTR [edx+ecx+1508], eax

; 83   : 			this->EveryDayMessage[this->CountEveryDayMessage].Minutes = n[1];

  004c0	8b 45 f8	 mov	 eax, DWORD PTR _this$[ebp]
  004c3	8b 48 08	 mov	 ecx, DWORD PTR [eax+8]
  004c6	6b c9 3c	 imul	 ecx, 60			; 0000003cH
  004c9	8b 55 f8	 mov	 edx, DWORD PTR _this$[ebp]
  004cc	8b 85 64 fe ff
	ff		 mov	 eax, DWORD PTR _n$204604[ebp+4]
  004d2	89 84 0a e8 05
	00 00		 mov	 DWORD PTR [edx+ecx+1512], eax

; 84   : 			strcpy(EveryDayMessage[this->CountEveryDayMessage].Message,str);

  004d9	8d 85 fc fd ff
	ff		 lea	 eax, DWORD PTR _str$204605[ebp]
  004df	50		 push	 eax
  004e0	8b 4d f8	 mov	 ecx, DWORD PTR _this$[ebp]
  004e3	8b 51 08	 mov	 edx, DWORD PTR [ecx+8]
  004e6	6b d2 3c	 imul	 edx, 60			; 0000003cH
  004e9	8b 45 f8	 mov	 eax, DWORD PTR _this$[ebp]
  004ec	8d 8c 10 b0 05
	00 00		 lea	 ecx, DWORD PTR [eax+edx+1456]
  004f3	51		 push	 ecx
  004f4	e8 00 00 00 00	 call	 _strcpy
  004f9	83 c4 08	 add	 esp, 8

; 85   : 			this->CountEveryDayMessage++;

  004fc	8b 45 f8	 mov	 eax, DWORD PTR _this$[ebp]
  004ff	8b 48 08	 mov	 ecx, DWORD PTR [eax+8]
  00502	83 c1 01	 add	 ecx, 1
  00505	8b 55 f8	 mov	 edx, DWORD PTR _this$[ebp]
  00508	89 4a 08	 mov	 DWORD PTR [edx+8], ecx
$LN6@Load:

; 86   : 		}
; 87   : 		if(Flag == 3)

  0050b	83 bd f0 fe ff
	ff 03		 cmp	 DWORD PTR _Flag$[ebp], 3
  00512	75 7e		 jne	 SHORT $LN4@Load

; 88   : 		{
; 89   : 			if(this->CountDateMessage == MAX_ALERT_SYSTEM_INTERVAL) break;

  00514	8b 45 f8	 mov	 eax, DWORD PTR _this$[ebp]
  00517	83 78 04 14	 cmp	 DWORD PTR [eax+4], 20	; 00000014H
  0051b	75 05		 jne	 SHORT $LN3@Load
  0051d	e9 0f 01 00 00	 jmp	 $LN10@Load
$LN3@Load:

; 90   : 			int n;
; 91   : 			char str[100];
; 92   : 			sscanf(Buff, "%d \"%[^\"]\"", &n, &str);

  00522	8d 85 94 fd ff
	ff		 lea	 eax, DWORD PTR _str$204610[ebp]
  00528	50		 push	 eax
  00529	8d 8d f8 fd ff
	ff		 lea	 ecx, DWORD PTR _n$204609[ebp]
  0052f	51		 push	 ecx
  00530	68 00 00 00 00	 push	 OFFSET ??_C@_0L@DHBPCNNH@?$CFd?5?$CC?$CF?$FL?$FO?$CC?$FN?$CC?$AA@
  00535	8d 95 f4 fe ff
	ff		 lea	 edx, DWORD PTR _Buff$[ebp]
  0053b	52		 push	 edx
  0053c	e8 00 00 00 00	 call	 _sscanf
  00541	83 c4 10	 add	 esp, 16			; 00000010H

; 93   : 			this->IntervalMessage[this->CountIntervalMessage].Interval = n * 60;

  00544	8b 85 f8 fd ff
	ff		 mov	 eax, DWORD PTR _n$204609[ebp]
  0054a	6b c0 3c	 imul	 eax, 60			; 0000003cH
  0054d	8b 4d f8	 mov	 ecx, DWORD PTR _this$[ebp]
  00550	8b 51 0c	 mov	 edx, DWORD PTR [ecx+12]
  00553	6b d2 38	 imul	 edx, 56			; 00000038H
  00556	8b 4d f8	 mov	 ecx, DWORD PTR _this$[ebp]
  00559	89 84 11 94 0a
	00 00		 mov	 DWORD PTR [ecx+edx+2708], eax

; 94   : 			strcpy(IntervalMessage[this->CountIntervalMessage].Message,str);

  00560	8d 85 94 fd ff
	ff		 lea	 eax, DWORD PTR _str$204610[ebp]
  00566	50		 push	 eax
  00567	8b 4d f8	 mov	 ecx, DWORD PTR _this$[ebp]
  0056a	8b 51 0c	 mov	 edx, DWORD PTR [ecx+12]
  0056d	6b d2 38	 imul	 edx, 56			; 00000038H
  00570	8b 45 f8	 mov	 eax, DWORD PTR _this$[ebp]
  00573	8d 8c 10 60 0a
	00 00		 lea	 ecx, DWORD PTR [eax+edx+2656]
  0057a	51		 push	 ecx
  0057b	e8 00 00 00 00	 call	 _strcpy
  00580	83 c4 08	 add	 esp, 8

; 95   : 			this->CountIntervalMessage++;

  00583	8b 45 f8	 mov	 eax, DWORD PTR _this$[ebp]
  00586	8b 48 0c	 mov	 ecx, DWORD PTR [eax+12]
  00589	83 c1 01	 add	 ecx, 1
  0058c	8b 55 f8	 mov	 edx, DWORD PTR _this$[ebp]
  0058f	89 4a 0c	 mov	 DWORD PTR [edx+12], ecx
$LN4@Load:

; 96   : 		}
; 97   : 
; 98   : 		//this->m_iNextNoticeTime = 0;
; 99   : 
; 100  : 		if(Flag == 4)

  00592	83 bd f0 fe ff
	ff 04		 cmp	 DWORD PTR _Flag$[ebp], 4
  00599	0f 85 8d 00 00
	00		 jne	 $LN2@Load

; 101  : 		{
; 102  : 			if(this->m_iNoticeCount == MAX_ALERT_SYSTEM_INTERVAL) break;

  0059f	8b 45 f8	 mov	 eax, DWORD PTR _this$[ebp]
  005a2	83 b8 20 13 00
	00 14		 cmp	 DWORD PTR [eax+4896], 20 ; 00000014H
  005a9	75 05		 jne	 SHORT $LN1@Load
  005ab	e9 81 00 00 00	 jmp	 $LN10@Load
$LN1@Load:

; 103  : 			int n;
; 104  : 			char str[100];
; 105  : 			sscanf(Buff, "%d \"%[^\"]\"", &n, &str);

  005b0	8d 85 2c fd ff
	ff		 lea	 eax, DWORD PTR _str$204615[ebp]
  005b6	50		 push	 eax
  005b7	8d 8d 90 fd ff
	ff		 lea	 ecx, DWORD PTR _n$204614[ebp]
  005bd	51		 push	 ecx
  005be	68 00 00 00 00	 push	 OFFSET ??_C@_0L@DHBPCNNH@?$CFd?5?$CC?$CF?$FL?$FO?$CC?$FN?$CC?$AA@
  005c3	8d 95 f4 fe ff
	ff		 lea	 edx, DWORD PTR _Buff$[ebp]
  005c9	52		 push	 edx
  005ca	e8 00 00 00 00	 call	 _sscanf
  005cf	83 c4 10	 add	 esp, 16			; 00000010H

; 106  : 			this->NoticeMessage[this->m_iNoticeCount].Interval = n * 60;

  005d2	8b 85 90 fd ff
	ff		 mov	 eax, DWORD PTR _n$204614[ebp]
  005d8	6b c0 3c	 imul	 eax, 60			; 0000003cH
  005db	8b 4d f8	 mov	 ecx, DWORD PTR _this$[ebp]
  005de	8b 91 20 13 00
	00		 mov	 edx, DWORD PTR [ecx+4896]
  005e4	6b d2 38	 imul	 edx, 56			; 00000038H
  005e7	8b 4d f8	 mov	 ecx, DWORD PTR _this$[ebp]
  005ea	89 84 11 f4 0e
	00 00		 mov	 DWORD PTR [ecx+edx+3828], eax

; 107  : 			strcpy(NoticeMessage[this->m_iNoticeCount].Message,str);

  005f1	8d 85 2c fd ff
	ff		 lea	 eax, DWORD PTR _str$204615[ebp]
  005f7	50		 push	 eax
  005f8	8b 4d f8	 mov	 ecx, DWORD PTR _this$[ebp]
  005fb	8b 91 20 13 00
	00		 mov	 edx, DWORD PTR [ecx+4896]
  00601	6b d2 38	 imul	 edx, 56			; 00000038H
  00604	8b 45 f8	 mov	 eax, DWORD PTR _this$[ebp]
  00607	8d 8c 10 c0 0e
	00 00		 lea	 ecx, DWORD PTR [eax+edx+3776]
  0060e	51		 push	 ecx
  0060f	e8 00 00 00 00	 call	 _strcpy
  00614	83 c4 08	 add	 esp, 8

; 108  : 			this->m_iNoticeCount++;

  00617	8b 45 f8	 mov	 eax, DWORD PTR _this$[ebp]
  0061a	8b 88 20 13 00
	00		 mov	 ecx, DWORD PTR [eax+4896]
  00620	83 c1 01	 add	 ecx, 1
  00623	8b 55 f8	 mov	 edx, DWORD PTR _this$[ebp]
  00626	89 8a 20 13 00
	00		 mov	 DWORD PTR [edx+4896], ecx
$LN2@Load:

; 109  : 		}
; 110  : 
; 111  : 	}

  0062c	e9 02 fd ff ff	 jmp	 $LN11@Load
$LN10@Load:

; 112  : 	fclose(file);

  00631	8b 45 f4	 mov	 eax, DWORD PTR _file$[ebp]
  00634	50		 push	 eax
  00635	e8 00 00 00 00	 call	 _fclose
  0063a	83 c4 04	 add	 esp, 4

; 113  : }

  0063d	5f		 pop	 edi
  0063e	5e		 pop	 esi
  0063f	5b		 pop	 ebx
  00640	8b 4d fc	 mov	 ecx, DWORD PTR __$ArrayPad$[ebp]
  00643	33 cd		 xor	 ecx, ebp
  00645	e8 00 00 00 00	 call	 @__security_check_cookie@4
  0064a	8b e5		 mov	 esp, ebp
  0064c	5d		 pop	 ebp
  0064d	c3		 ret	 0
?Load@cAlertSystem@@QAEXXZ ENDP				; cAlertSystem::Load
_TEXT	ENDS
PUBLIC	?PlayMessage@cAlertSystem@@QAEXHH@Z		; cAlertSystem::PlayMessage
EXTRN	?MessaageAllGlobal@@YAXPADZZ:PROC		; MessaageAllGlobal
; Function compile flags: /Odtp /ZI
_TEXT	SEGMENT
tv64 = -72						; size = 4
_this$ = -4						; size = 4
_id$ = 8						; size = 4
_type$ = 12						; size = 4
?PlayMessage@cAlertSystem@@QAEXHH@Z PROC		; cAlertSystem::PlayMessage
; _this$ = ecx

; 115  : {

  00650	55		 push	 ebp
  00651	8b ec		 mov	 ebp, esp
  00653	83 ec 48	 sub	 esp, 72			; 00000048H
  00656	53		 push	 ebx
  00657	56		 push	 esi
  00658	57		 push	 edi
  00659	89 4d fc	 mov	 DWORD PTR _this$[ebp], ecx

; 116  : 	switch (type)

  0065c	8b 45 0c	 mov	 eax, DWORD PTR _type$[ebp]
  0065f	89 45 b8	 mov	 DWORD PTR tv64[ebp], eax
  00662	83 7d b8 03	 cmp	 DWORD PTR tv64[ebp], 3
  00666	77 71		 ja	 SHORT $LN7@PlayMessag
  00668	8b 4d b8	 mov	 ecx, DWORD PTR tv64[ebp]
  0066b	ff 24 8d 00 00
	00 00		 jmp	 DWORD PTR $LN9@PlayMessag[ecx*4]
$LN4@PlayMessag:

; 117  : 	{
; 118  : 	case DateAlert:
; 119  : 		MessaageAllGlobal(this->DateMessage[id].Message);

  00672	8b 45 08	 mov	 eax, DWORD PTR _id$[ebp]
  00675	6b c0 44	 imul	 eax, 68			; 00000044H
  00678	8b 4d fc	 mov	 ecx, DWORD PTR _this$[ebp]
  0067b	8d 54 01 60	 lea	 edx, DWORD PTR [ecx+eax+96]
  0067f	52		 push	 edx
  00680	e8 00 00 00 00	 call	 ?MessaageAllGlobal@@YAXPADZZ ; MessaageAllGlobal
  00685	83 c4 04	 add	 esp, 4

; 120  : 		break;

  00688	eb 4f		 jmp	 SHORT $LN7@PlayMessag
$LN3@PlayMessag:

; 121  : 	case EveryDayAlert:
; 122  : 		MessaageAllGlobal(this->EveryDayMessage[id].Message);

  0068a	8b 45 08	 mov	 eax, DWORD PTR _id$[ebp]
  0068d	6b c0 3c	 imul	 eax, 60			; 0000003cH
  00690	8b 4d fc	 mov	 ecx, DWORD PTR _this$[ebp]
  00693	8d 94 01 b0 05
	00 00		 lea	 edx, DWORD PTR [ecx+eax+1456]
  0069a	52		 push	 edx
  0069b	e8 00 00 00 00	 call	 ?MessaageAllGlobal@@YAXPADZZ ; MessaageAllGlobal
  006a0	83 c4 04	 add	 esp, 4

; 123  : 		break;

  006a3	eb 34		 jmp	 SHORT $LN7@PlayMessag
$LN2@PlayMessag:

; 124  : 	case IntervalAlert:
; 125  : 		MessaageAllGlobal(this->IntervalMessage[id].Message);

  006a5	8b 45 08	 mov	 eax, DWORD PTR _id$[ebp]
  006a8	6b c0 38	 imul	 eax, 56			; 00000038H
  006ab	8b 4d fc	 mov	 ecx, DWORD PTR _this$[ebp]
  006ae	8d 94 01 60 0a
	00 00		 lea	 edx, DWORD PTR [ecx+eax+2656]
  006b5	52		 push	 edx
  006b6	e8 00 00 00 00	 call	 ?MessaageAllGlobal@@YAXPADZZ ; MessaageAllGlobal
  006bb	83 c4 04	 add	 esp, 4

; 126  : 		break;

  006be	eb 19		 jmp	 SHORT $LN7@PlayMessag
$LN1@PlayMessag:

; 127  : 	case NoticeAlert:
; 128  : 		MessaageAllGlobal(this->NoticeMessage[id].Message);

  006c0	8b 45 08	 mov	 eax, DWORD PTR _id$[ebp]
  006c3	6b c0 38	 imul	 eax, 56			; 00000038H
  006c6	8b 4d fc	 mov	 ecx, DWORD PTR _this$[ebp]
  006c9	8d 94 01 c0 0e
	00 00		 lea	 edx, DWORD PTR [ecx+eax+3776]
  006d0	52		 push	 edx
  006d1	e8 00 00 00 00	 call	 ?MessaageAllGlobal@@YAXPADZZ ; MessaageAllGlobal
  006d6	83 c4 04	 add	 esp, 4
$LN7@PlayMessag:

; 129  : 		break;
; 130  : 	}
; 131  : }

  006d9	5f		 pop	 edi
  006da	5e		 pop	 esi
  006db	5b		 pop	 ebx
  006dc	8b e5		 mov	 esp, ebp
  006de	5d		 pop	 ebp
  006df	c2 08 00	 ret	 8
  006e2	8b ff		 npad	 2
$LN9@PlayMessag:
  006e4	00 00 00 00	 DD	 $LN4@PlayMessag
  006e8	00 00 00 00	 DD	 $LN3@PlayMessag
  006ec	00 00 00 00	 DD	 $LN2@PlayMessag
  006f0	00 00 00 00	 DD	 $LN1@PlayMessag
?PlayMessage@cAlertSystem@@QAEXHH@Z ENDP		; cAlertSystem::PlayMessage
_TEXT	ENDS
PUBLIC	__$ArrayPad$
PUBLIC	?TickTime@cAlertSystem@@QAEXXZ			; cAlertSystem::TickTime
EXTRN	?GetSecond@CTimerEx@@QAEHXZ:PROC		; CTimerEx::GetSecond
EXTRN	?g_TimerEx@@3VCTimerEx@@A:DWORD			; g_TimerEx
EXTRN	__imp__GetLocalTime@4:PROC
; Function compile flags: /Odtp /ZI
_TEXT	SEGMENT
_i$ = -28						; size = 4
_t$ = -24						; size = 16
_this$ = -8						; size = 4
__$ArrayPad$ = -4					; size = 4
?TickTime@cAlertSystem@@QAEXXZ PROC			; cAlertSystem::TickTime
; _this$ = ecx

; 133  : {

  00700	55		 push	 ebp
  00701	8b ec		 mov	 ebp, esp
  00703	83 ec 5c	 sub	 esp, 92			; 0000005cH
  00706	a1 00 00 00 00	 mov	 eax, DWORD PTR ___security_cookie
  0070b	33 c5		 xor	 eax, ebp
  0070d	89 45 fc	 mov	 DWORD PTR __$ArrayPad$[ebp], eax
  00710	53		 push	 ebx
  00711	56		 push	 esi
  00712	57		 push	 edi
  00713	89 4d f8	 mov	 DWORD PTR _this$[ebp], ecx

; 134  : 	if (!this->Enable) return;

  00716	8b 45 f8	 mov	 eax, DWORD PTR _this$[ebp]
  00719	83 38 00	 cmp	 DWORD PTR [eax], 0
  0071c	75 05		 jne	 SHORT $LN17@TickTime
  0071e	e9 14 02 00 00	 jmp	 $LN18@TickTime
$LN17@TickTime:

; 135  : 	SYSTEMTIME t;
; 136  : 	GetLocalTime(&t);

  00723	8d 45 e8	 lea	 eax, DWORD PTR _t$[ebp]
  00726	50		 push	 eax
  00727	ff 15 00 00 00
	00		 call	 DWORD PTR __imp__GetLocalTime@4

; 137  : 	int i;
; 138  : 	for (i = 0; i < this->CountDateMessage; i++)

  0072d	c7 45 e4 00 00
	00 00		 mov	 DWORD PTR _i$[ebp], 0
  00734	eb 09		 jmp	 SHORT $LN16@TickTime
$LN15@TickTime:
  00736	8b 45 e4	 mov	 eax, DWORD PTR _i$[ebp]
  00739	83 c0 01	 add	 eax, 1
  0073c	89 45 e4	 mov	 DWORD PTR _i$[ebp], eax
$LN16@TickTime:
  0073f	8b 45 f8	 mov	 eax, DWORD PTR _this$[ebp]
  00742	8b 4d e4	 mov	 ecx, DWORD PTR _i$[ebp]
  00745	3b 48 04	 cmp	 ecx, DWORD PTR [eax+4]
  00748	7d 79		 jge	 SHORT $LN14@TickTime

; 139  : 	{
; 140  : 		if(t.wDay == this->DateMessage[i].Day && t.wMonth == this->DateMessage[i].Month && t.wHour == this->DateMessage[i].Hour && t.wMinute == this->DateMessage[i].Minutes && 		
; 141  : #if(NEWTIMEREX)
; 142  : 			g_TimerEx.GetSecond() == 00)

  0074a	0f b7 45 ee	 movzx	 eax, WORD PTR _t$[ebp+6]
  0074e	8b 4d e4	 mov	 ecx, DWORD PTR _i$[ebp]
  00751	6b c9 44	 imul	 ecx, 68			; 00000044H
  00754	8b 55 f8	 mov	 edx, DWORD PTR _this$[ebp]
  00757	3b 84 0a 98 00
	00 00		 cmp	 eax, DWORD PTR [edx+ecx+152]
  0075e	75 5e		 jne	 SHORT $LN13@TickTime
  00760	0f b7 45 ea	 movzx	 eax, WORD PTR _t$[ebp+2]
  00764	8b 4d e4	 mov	 ecx, DWORD PTR _i$[ebp]
  00767	6b c9 44	 imul	 ecx, 68			; 00000044H
  0076a	8b 55 f8	 mov	 edx, DWORD PTR _this$[ebp]
  0076d	3b 84 0a 94 00
	00 00		 cmp	 eax, DWORD PTR [edx+ecx+148]
  00774	75 48		 jne	 SHORT $LN13@TickTime
  00776	0f b7 45 f0	 movzx	 eax, WORD PTR _t$[ebp+8]
  0077a	8b 4d e4	 mov	 ecx, DWORD PTR _i$[ebp]
  0077d	6b c9 44	 imul	 ecx, 68			; 00000044H
  00780	8b 55 f8	 mov	 edx, DWORD PTR _this$[ebp]
  00783	3b 84 0a 9c 00
	00 00		 cmp	 eax, DWORD PTR [edx+ecx+156]
  0078a	75 32		 jne	 SHORT $LN13@TickTime
  0078c	0f b7 45 f2	 movzx	 eax, WORD PTR _t$[ebp+10]
  00790	8b 4d e4	 mov	 ecx, DWORD PTR _i$[ebp]
  00793	6b c9 44	 imul	 ecx, 68			; 00000044H
  00796	8b 55 f8	 mov	 edx, DWORD PTR _this$[ebp]
  00799	3b 84 0a a0 00
	00 00		 cmp	 eax, DWORD PTR [edx+ecx+160]
  007a0	75 1c		 jne	 SHORT $LN13@TickTime
  007a2	b9 00 00 00 00	 mov	 ecx, OFFSET ?g_TimerEx@@3VCTimerEx@@A ; g_TimerEx
  007a7	e8 00 00 00 00	 call	 ?GetSecond@CTimerEx@@QAEHXZ ; CTimerEx::GetSecond
  007ac	85 c0		 test	 eax, eax
  007ae	75 0e		 jne	 SHORT $LN13@TickTime

; 143  : #else		
; 144  : 			t.wSecond == 00)
; 145  : #endif
; 146  : 		{
; 147  : 				this->PlayMessage(i,DateAlert);

  007b0	6a 00		 push	 0
  007b2	8b 45 e4	 mov	 eax, DWORD PTR _i$[ebp]
  007b5	50		 push	 eax
  007b6	8b 4d f8	 mov	 ecx, DWORD PTR _this$[ebp]
  007b9	e8 00 00 00 00	 call	 ?PlayMessage@cAlertSystem@@QAEXHH@Z ; cAlertSystem::PlayMessage
$LN13@TickTime:

; 148  : 		}
; 149  : 	}

  007be	e9 73 ff ff ff	 jmp	 $LN15@TickTime
$LN14@TickTime:

; 150  : 	for (i = 0; i < this->CountEveryDayMessage; i++)

  007c3	c7 45 e4 00 00
	00 00		 mov	 DWORD PTR _i$[ebp], 0
  007ca	eb 09		 jmp	 SHORT $LN12@TickTime
$LN11@TickTime:
  007cc	8b 45 e4	 mov	 eax, DWORD PTR _i$[ebp]
  007cf	83 c0 01	 add	 eax, 1
  007d2	89 45 e4	 mov	 DWORD PTR _i$[ebp], eax
$LN12@TickTime:
  007d5	8b 45 f8	 mov	 eax, DWORD PTR _this$[ebp]
  007d8	8b 4d e4	 mov	 ecx, DWORD PTR _i$[ebp]
  007db	3b 48 08	 cmp	 ecx, DWORD PTR [eax+8]
  007de	7d 4a		 jge	 SHORT $LN10@TickTime

; 151  : 	{
; 152  : 		if( t.wHour == this->EveryDayMessage[i].Hour && t.wMinute == this->EveryDayMessage[i].Minutes &&
; 153  : #if(NEWTIMEREX)
; 154  : 			g_TimerEx.GetSecond() == 00)

  007e0	0f b7 45 f0	 movzx	 eax, WORD PTR _t$[ebp+8]
  007e4	8b 4d e4	 mov	 ecx, DWORD PTR _i$[ebp]
  007e7	6b c9 3c	 imul	 ecx, 60			; 0000003cH
  007ea	8b 55 f8	 mov	 edx, DWORD PTR _this$[ebp]
  007ed	3b 84 0a e4 05
	00 00		 cmp	 eax, DWORD PTR [edx+ecx+1508]
  007f4	75 32		 jne	 SHORT $LN9@TickTime
  007f6	0f b7 45 f2	 movzx	 eax, WORD PTR _t$[ebp+10]
  007fa	8b 4d e4	 mov	 ecx, DWORD PTR _i$[ebp]
  007fd	6b c9 3c	 imul	 ecx, 60			; 0000003cH
  00800	8b 55 f8	 mov	 edx, DWORD PTR _this$[ebp]
  00803	3b 84 0a e8 05
	00 00		 cmp	 eax, DWORD PTR [edx+ecx+1512]
  0080a	75 1c		 jne	 SHORT $LN9@TickTime
  0080c	b9 00 00 00 00	 mov	 ecx, OFFSET ?g_TimerEx@@3VCTimerEx@@A ; g_TimerEx
  00811	e8 00 00 00 00	 call	 ?GetSecond@CTimerEx@@QAEHXZ ; CTimerEx::GetSecond
  00816	85 c0		 test	 eax, eax
  00818	75 0e		 jne	 SHORT $LN9@TickTime

; 155  : #else		
; 156  : 			t.wSecond == 00)
; 157  : #endif
; 158  : 		{
; 159  : 				this->PlayMessage(i,EveryDayAlert);

  0081a	6a 01		 push	 1
  0081c	8b 45 e4	 mov	 eax, DWORD PTR _i$[ebp]
  0081f	50		 push	 eax
  00820	8b 4d f8	 mov	 ecx, DWORD PTR _this$[ebp]
  00823	e8 00 00 00 00	 call	 ?PlayMessage@cAlertSystem@@QAEXHH@Z ; cAlertSystem::PlayMessage
$LN9@TickTime:

; 160  : 		}
; 161  : 	}

  00828	eb a2		 jmp	 SHORT $LN11@TickTime
$LN10@TickTime:

; 162  : 	for (i = 0; i < this->CountIntervalMessage; i++)

  0082a	c7 45 e4 00 00
	00 00		 mov	 DWORD PTR _i$[ebp], 0
  00831	eb 09		 jmp	 SHORT $LN8@TickTime
$LN7@TickTime:
  00833	8b 45 e4	 mov	 eax, DWORD PTR _i$[ebp]
  00836	83 c0 01	 add	 eax, 1
  00839	89 45 e4	 mov	 DWORD PTR _i$[ebp], eax
$LN8@TickTime:
  0083c	8b 45 f8	 mov	 eax, DWORD PTR _this$[ebp]
  0083f	8b 4d e4	 mov	 ecx, DWORD PTR _i$[ebp]
  00842	3b 48 0c	 cmp	 ecx, DWORD PTR [eax+12]
  00845	7d 53		 jge	 SHORT $LN6@TickTime

; 163  : 	{
; 164  : 		if(this->IntervalMessage[i].Interval <= this->Interval[i])

  00847	8b 45 e4	 mov	 eax, DWORD PTR _i$[ebp]
  0084a	6b c0 38	 imul	 eax, 56			; 00000038H
  0084d	8b 4d f8	 mov	 ecx, DWORD PTR _this$[ebp]
  00850	8b 55 e4	 mov	 edx, DWORD PTR _i$[ebp]
  00853	8b 75 f8	 mov	 esi, DWORD PTR _this$[ebp]
  00856	8b 84 01 94 0a
	00 00		 mov	 eax, DWORD PTR [ecx+eax+2708]
  0085d	3b 44 96 10	 cmp	 eax, DWORD PTR [esi+edx*4+16]
  00861	7f 1e		 jg	 SHORT $LN5@TickTime

; 165  : 		{
; 166  : 				this->PlayMessage(i,IntervalAlert);

  00863	6a 02		 push	 2
  00865	8b 45 e4	 mov	 eax, DWORD PTR _i$[ebp]
  00868	50		 push	 eax
  00869	8b 4d f8	 mov	 ecx, DWORD PTR _this$[ebp]
  0086c	e8 00 00 00 00	 call	 ?PlayMessage@cAlertSystem@@QAEXHH@Z ; cAlertSystem::PlayMessage

; 167  : 				this->Interval[i] = 0;

  00871	8b 45 e4	 mov	 eax, DWORD PTR _i$[ebp]
  00874	8b 4d f8	 mov	 ecx, DWORD PTR _this$[ebp]
  00877	c7 44 81 10 00
	00 00 00	 mov	 DWORD PTR [ecx+eax*4+16], 0

; 168  : 		}
; 169  : 		else

  0087f	eb 17		 jmp	 SHORT $LN4@TickTime
$LN5@TickTime:

; 170  : 		{
; 171  : 			this->Interval[i]++;

  00881	8b 45 e4	 mov	 eax, DWORD PTR _i$[ebp]
  00884	8b 4d f8	 mov	 ecx, DWORD PTR _this$[ebp]
  00887	8b 54 81 10	 mov	 edx, DWORD PTR [ecx+eax*4+16]
  0088b	83 c2 01	 add	 edx, 1
  0088e	8b 45 e4	 mov	 eax, DWORD PTR _i$[ebp]
  00891	8b 4d f8	 mov	 ecx, DWORD PTR _this$[ebp]
  00894	89 54 81 10	 mov	 DWORD PTR [ecx+eax*4+16], edx
$LN4@TickTime:

; 172  : 		}
; 173  : 	}

  00898	eb 99		 jmp	 SHORT $LN7@TickTime
$LN6@TickTime:

; 174  : 
; 175  : 	if(this->m_iNoticeCount > 0)

  0089a	8b 45 f8	 mov	 eax, DWORD PTR _this$[ebp]
  0089d	83 b8 20 13 00
	00 00		 cmp	 DWORD PTR [eax+4896], 0
  008a4	0f 8e 8d 00 00
	00		 jle	 $LN18@TickTime

; 176  : 	{
; 177  : 		this->m_iNotickeTick++;

  008aa	8b 45 f8	 mov	 eax, DWORD PTR _this$[ebp]
  008ad	8b 88 24 13 00
	00		 mov	 ecx, DWORD PTR [eax+4900]
  008b3	83 c1 01	 add	 ecx, 1
  008b6	8b 55 f8	 mov	 edx, DWORD PTR _this$[ebp]
  008b9	89 8a 24 13 00
	00		 mov	 DWORD PTR [edx+4900], ecx

; 178  : 		if(this->m_iNotickeTick > this->NoticeMessage[this->m_iNoticeID].Interval)

  008bf	8b 45 f8	 mov	 eax, DWORD PTR _this$[ebp]
  008c2	8b 88 28 13 00
	00		 mov	 ecx, DWORD PTR [eax+4904]
  008c8	6b c9 38	 imul	 ecx, 56			; 00000038H
  008cb	8b 55 f8	 mov	 edx, DWORD PTR _this$[ebp]
  008ce	8b 45 f8	 mov	 eax, DWORD PTR _this$[ebp]
  008d1	8b 92 24 13 00
	00		 mov	 edx, DWORD PTR [edx+4900]
  008d7	3b 94 08 f4 0e
	00 00		 cmp	 edx, DWORD PTR [eax+ecx+3828]
  008de	7e 57		 jle	 SHORT $LN18@TickTime

; 179  : 		{
; 180  : 			this->PlayMessage(this->m_iNoticeID, NoticeAlert);

  008e0	6a 03		 push	 3
  008e2	8b 45 f8	 mov	 eax, DWORD PTR _this$[ebp]
  008e5	8b 88 28 13 00
	00		 mov	 ecx, DWORD PTR [eax+4904]
  008eb	51		 push	 ecx
  008ec	8b 4d f8	 mov	 ecx, DWORD PTR _this$[ebp]
  008ef	e8 00 00 00 00	 call	 ?PlayMessage@cAlertSystem@@QAEXHH@Z ; cAlertSystem::PlayMessage

; 181  : 
; 182  : 			this->m_iNoticeID++;

  008f4	8b 45 f8	 mov	 eax, DWORD PTR _this$[ebp]
  008f7	8b 88 28 13 00
	00		 mov	 ecx, DWORD PTR [eax+4904]
  008fd	83 c1 01	 add	 ecx, 1
  00900	8b 55 f8	 mov	 edx, DWORD PTR _this$[ebp]
  00903	89 8a 28 13 00
	00		 mov	 DWORD PTR [edx+4904], ecx

; 183  : 			if(this->m_iNoticeID >= this->m_iNoticeCount)

  00909	8b 45 f8	 mov	 eax, DWORD PTR _this$[ebp]
  0090c	8b 4d f8	 mov	 ecx, DWORD PTR _this$[ebp]
  0090f	8b 90 28 13 00
	00		 mov	 edx, DWORD PTR [eax+4904]
  00915	3b 91 20 13 00
	00		 cmp	 edx, DWORD PTR [ecx+4896]
  0091b	7c 0d		 jl	 SHORT $LN1@TickTime

; 184  : 			{
; 185  : 				this->m_iNoticeID = 0;

  0091d	8b 45 f8	 mov	 eax, DWORD PTR _this$[ebp]
  00920	c7 80 28 13 00
	00 00 00 00 00	 mov	 DWORD PTR [eax+4904], 0
$LN1@TickTime:

; 186  : 			}
; 187  : 
; 188  : 			this->m_iNotickeTick = 0;

  0092a	8b 45 f8	 mov	 eax, DWORD PTR _this$[ebp]
  0092d	c7 80 24 13 00
	00 00 00 00 00	 mov	 DWORD PTR [eax+4900], 0
$LN18@TickTime:

; 189  : 		}
; 190  : 	}
; 191  : }

  00937	5f		 pop	 edi
  00938	5e		 pop	 esi
  00939	5b		 pop	 ebx
  0093a	8b 4d fc	 mov	 ecx, DWORD PTR __$ArrayPad$[ebp]
  0093d	33 cd		 xor	 ecx, ebp
  0093f	e8 00 00 00 00	 call	 @__security_check_cookie@4
  00944	8b e5		 mov	 esp, ebp
  00946	5d		 pop	 ebp
  00947	c3		 ret	 0
?TickTime@cAlertSystem@@QAEXXZ ENDP			; cAlertSystem::TickTime
_TEXT	ENDS
END
