; Listing generated by Microsoft (R) Optimizing Compiler Version 16.00.40219.01 

	TITLE	D:\Projects\ExTeam6.3\Source\GameServer\GameServer\AttackEvent.cpp
	.686P
	.XMM
	include listing.inc
	.model	flat

INCLUDELIB LIBCMT
INCLUDELIB OLDNAMES

_DATA	SEGMENT
_g_iNpcUpDfLevel_CGATE DD 01H
	DD	02H
	DD	02dc6c0H
	DD	02H
	DD	03H
	DD	02dc6c0H
	DD	03H
	DD	04H
	DD	02dc6c0H
_g_iNpcUpDfLevel_CSTATUE DD 01H
	DD	03H
	DD	02dc6c0H
	DD	02H
	DD	05H
	DD	02dc6c0H
	DD	03H
	DD	07H
	DD	02dc6c0H
_g_iNpcUpMaxHP_CGATE DD 02625a0H
	DD	02H
	DD	0f4240H
	DD	03567e0H
	DD	03H
	DD	0f4240H
	DD	04f5880H
	DD	04H
	DD	0f4240H
_g_iNpcUpMaxHP_CSTATUE DD 02191c0H
	DD	03H
	DD	0f4240H
	DD	033e140H
	DD	05H
	DD	0f4240H
	DD	04c4b40H
	DD	07H
	DD	0f4240H
_g_iNpcUpRgLevel_CSTATUE DD 01H
	DD	03H
	DD	04c4b40H
	DD	02H
	DD	05H
	DD	04c4b40H
	DD	03H
	DD	07H
	DD	04c4b40H
_g_iCsUserReSpawnArea DD 023H
	DD	011H
	DD	090H
	DD	030H
	DD	04aH
	DD	090H
	DD	073H
	DD	09aH
	DD	023H
	DD	011H
	DD	090H
	DD	030H
_g_iNpcDefense_CGATE DD 064H
	DD	0b4H
	DD	012cH
	DD	0208H
_g_iNpcDefense_CSTATUE DD 050H
	DD	0b4H
	DD	0154H
	DD	0226H
_g_iCastleWallStepAxisY DD 071H
	DD	0a0H
	DD	0cbH
_DATA	ENDS
PUBLIC	??_H@YGXPAXIHP6EPAX0@Z@Z			; `vector constructor iterator'
; Function compile flags: /Odtp /ZI
;	COMDAT ??_H@YGXPAXIHP6EPAX0@Z@Z
_TEXT	SEGMENT
___t$ = 8						; size = 4
___s$ = 12						; size = 4
___n$ = 16						; size = 4
___f$ = 20						; size = 4
??_H@YGXPAXIHP6EPAX0@Z@Z PROC				; `vector constructor iterator', COMDAT
  00000	55		 push	 ebp
  00001	8b ec		 mov	 ebp, esp
  00003	83 ec 40	 sub	 esp, 64			; 00000040H
  00006	53		 push	 ebx
  00007	56		 push	 esi
  00008	57		 push	 edi
$LN2@vector:
  00009	8b 45 10	 mov	 eax, DWORD PTR ___n$[ebp]
  0000c	83 e8 01	 sub	 eax, 1
  0000f	89 45 10	 mov	 DWORD PTR ___n$[ebp], eax
  00012	78 11		 js	 SHORT $LN3@vector
  00014	8b 4d 08	 mov	 ecx, DWORD PTR ___t$[ebp]
  00017	ff 55 14	 call	 DWORD PTR ___f$[ebp]
  0001a	8b 45 08	 mov	 eax, DWORD PTR ___t$[ebp]
  0001d	03 45 0c	 add	 eax, DWORD PTR ___s$[ebp]
  00020	89 45 08	 mov	 DWORD PTR ___t$[ebp], eax
  00023	eb e4		 jmp	 SHORT $LN2@vector
$LN3@vector:
  00025	5f		 pop	 edi
  00026	5e		 pop	 esi
  00027	5b		 pop	 ebx
  00028	8b e5		 mov	 esp, ebp
  0002a	5d		 pop	 ebp
  0002b	c2 10 00	 ret	 16			; 00000010H
??_H@YGXPAXIHP6EPAX0@Z@Z ENDP				; `vector constructor iterator'
_TEXT	ENDS
PUBLIC	?Init@CAttackEvent@@QAEXXZ			; CAttackEvent::Init
PUBLIC	??_7CAttackEvent@@6B@				; CAttackEvent::`vftable'
PUBLIC	??0CAttackEvent@@QAE@XZ				; CAttackEvent::CAttackEvent
PUBLIC	??_R4CAttackEvent@@6B@				; CAttackEvent::`RTTI Complete Object Locator'
PUBLIC	??_R0?AVCAttackEvent@@@8			; CAttackEvent `RTTI Type Descriptor'
PUBLIC	??_R3CAttackEvent@@8				; CAttackEvent::`RTTI Class Hierarchy Descriptor'
PUBLIC	??_R2CAttackEvent@@8				; CAttackEvent::`RTTI Base Class Array'
PUBLIC	??_R1A@?0A@EA@CAttackEvent@@8			; CAttackEvent::`RTTI Base Class Descriptor at (0,-1,0,64)'
EXTRN	??_7type_info@@6B@:QWORD			; type_info::`vftable'
EXTRN	??_ECAttackEvent@@UAEPAXI@Z:PROC		; CAttackEvent::`vector deleting destructor'
;	COMDAT ??_R1A@?0A@EA@CAttackEvent@@8
; File d:\projects\exteam6.3\source\gameserver\gameserver\attackevent.cpp
rdata$r	SEGMENT
??_R1A@?0A@EA@CAttackEvent@@8 DD FLAT:??_R0?AVCAttackEvent@@@8 ; CAttackEvent::`RTTI Base Class Descriptor at (0,-1,0,64)'
	DD	00H
	DD	00H
	DD	0ffffffffH
	DD	00H
	DD	040H
	DD	FLAT:??_R3CAttackEvent@@8
rdata$r	ENDS
;	COMDAT ??_R2CAttackEvent@@8
rdata$r	SEGMENT
??_R2CAttackEvent@@8 DD FLAT:??_R1A@?0A@EA@CAttackEvent@@8 ; CAttackEvent::`RTTI Base Class Array'
rdata$r	ENDS
;	COMDAT ??_R3CAttackEvent@@8
rdata$r	SEGMENT
??_R3CAttackEvent@@8 DD 00H				; CAttackEvent::`RTTI Class Hierarchy Descriptor'
	DD	00H
	DD	01H
	DD	FLAT:??_R2CAttackEvent@@8
rdata$r	ENDS
;	COMDAT ??_R0?AVCAttackEvent@@@8
_DATA	SEGMENT
??_R0?AVCAttackEvent@@@8 DD FLAT:??_7type_info@@6B@	; CAttackEvent `RTTI Type Descriptor'
	DD	00H
	DB	'.?AVCAttackEvent@@', 00H
_DATA	ENDS
;	COMDAT ??_R4CAttackEvent@@6B@
rdata$r	SEGMENT
??_R4CAttackEvent@@6B@ DD 00H				; CAttackEvent::`RTTI Complete Object Locator'
	DD	00H
	DD	00H
	DD	FLAT:??_R0?AVCAttackEvent@@@8
	DD	FLAT:??_R3CAttackEvent@@8
rdata$r	ENDS
;	COMDAT ??_7CAttackEvent@@6B@
CONST	SEGMENT
??_7CAttackEvent@@6B@ DD FLAT:??_R4CAttackEvent@@6B@	; CAttackEvent::`vftable'
	DD	FLAT:??_ECAttackEvent@@UAEPAXI@Z
; Function compile flags: /Odtp /ZI
CONST	ENDS
_TEXT	SEGMENT
_this$ = -4						; size = 4
??0CAttackEvent@@QAE@XZ PROC				; CAttackEvent::CAttackEvent
; _this$ = ecx

; 8    : {

  00000	55		 push	 ebp
  00001	8b ec		 mov	 ebp, esp
  00003	83 ec 44	 sub	 esp, 68			; 00000044H
  00006	53		 push	 ebx
  00007	56		 push	 esi
  00008	57		 push	 edi
  00009	89 4d fc	 mov	 DWORD PTR _this$[ebp], ecx
  0000c	8b 45 fc	 mov	 eax, DWORD PTR _this$[ebp]
  0000f	c7 00 00 00 00
	00		 mov	 DWORD PTR [eax], OFFSET ??_7CAttackEvent@@6B@

; 9    : 	this->Init();

  00015	8b 4d fc	 mov	 ecx, DWORD PTR _this$[ebp]
  00018	e8 00 00 00 00	 call	 ?Init@CAttackEvent@@QAEXXZ ; CAttackEvent::Init

; 10   : }

  0001d	8b 45 fc	 mov	 eax, DWORD PTR _this$[ebp]
  00020	5f		 pop	 edi
  00021	5e		 pop	 esi
  00022	5b		 pop	 ebx
  00023	8b e5		 mov	 esp, ebp
  00025	5d		 pop	 ebp
  00026	c3		 ret	 0
??0CAttackEvent@@QAE@XZ ENDP				; CAttackEvent::CAttackEvent
_TEXT	ENDS
PUBLIC	??1CAttackEvent@@UAE@XZ				; CAttackEvent::~CAttackEvent
EXTRN	??3@YAXPAX@Z:PROC				; operator delete
; Function compile flags: /Odtp /ZI
;	COMDAT ??_GCAttackEvent@@UAEPAXI@Z
_TEXT	SEGMENT
_this$ = -4						; size = 4
___flags$ = 8						; size = 4
??_GCAttackEvent@@UAEPAXI@Z PROC			; CAttackEvent::`scalar deleting destructor', COMDAT
; _this$ = ecx
  00000	55		 push	 ebp
  00001	8b ec		 mov	 ebp, esp
  00003	83 ec 44	 sub	 esp, 68			; 00000044H
  00006	53		 push	 ebx
  00007	56		 push	 esi
  00008	57		 push	 edi
  00009	89 4d fc	 mov	 DWORD PTR _this$[ebp], ecx
  0000c	8b 4d fc	 mov	 ecx, DWORD PTR _this$[ebp]
  0000f	e8 00 00 00 00	 call	 ??1CAttackEvent@@UAE@XZ	; CAttackEvent::~CAttackEvent
  00014	8b 45 08	 mov	 eax, DWORD PTR ___flags$[ebp]
  00017	83 e0 01	 and	 eax, 1
  0001a	74 0c		 je	 SHORT $LN1@scalar
  0001c	8b 45 fc	 mov	 eax, DWORD PTR _this$[ebp]
  0001f	50		 push	 eax
  00020	e8 00 00 00 00	 call	 ??3@YAXPAX@Z		; operator delete
  00025	83 c4 04	 add	 esp, 4
$LN1@scalar:
  00028	8b 45 fc	 mov	 eax, DWORD PTR _this$[ebp]
  0002b	5f		 pop	 edi
  0002c	5e		 pop	 esi
  0002d	5b		 pop	 ebx
  0002e	8b e5		 mov	 esp, ebp
  00030	5d		 pop	 ebp
  00031	c2 04 00	 ret	 4
??_GCAttackEvent@@UAEPAXI@Z ENDP			; CAttackEvent::`scalar deleting destructor'
; Function compile flags: /Odtp /ZI
_TEXT	ENDS
_TEXT	SEGMENT
_this$ = -4						; size = 4
??1CAttackEvent@@UAE@XZ PROC				; CAttackEvent::~CAttackEvent
; _this$ = ecx

; 13   : {

  00030	55		 push	 ebp
  00031	8b ec		 mov	 ebp, esp
  00033	83 ec 44	 sub	 esp, 68			; 00000044H
  00036	53		 push	 ebx
  00037	56		 push	 esi
  00038	57		 push	 edi
  00039	89 4d fc	 mov	 DWORD PTR _this$[ebp], ecx
  0003c	8b 45 fc	 mov	 eax, DWORD PTR _this$[ebp]
  0003f	c7 00 00 00 00
	00		 mov	 DWORD PTR [eax], OFFSET ??_7CAttackEvent@@6B@

; 14   : 	return;
; 15   : }

  00045	5f		 pop	 edi
  00046	5e		 pop	 esi
  00047	5b		 pop	 ebx
  00048	8b e5		 mov	 esp, ebp
  0004a	5d		 pop	 ebp
  0004b	c3		 ret	 0
??1CAttackEvent@@UAE@XZ ENDP				; CAttackEvent::~CAttackEvent
_TEXT	ENDS
EXTRN	__imp__GetTickCount@0:PROC
; Function compile flags: /Odtp /ZI
_TEXT	SEGMENT
_this$ = -4						; size = 4
?Init@CAttackEvent@@QAEXXZ PROC				; CAttackEvent::Init
; _this$ = ecx

; 18   : {

  00050	55		 push	 ebp
  00051	8b ec		 mov	 ebp, esp
  00053	83 ec 44	 sub	 esp, 68			; 00000044H
  00056	53		 push	 ebx
  00057	56		 push	 esi
  00058	57		 push	 edi
  00059	89 4d fc	 mov	 DWORD PTR _this$[ebp], ecx

; 19   : 	this->EventState = false;

  0005c	8b 45 fc	 mov	 eax, DWORD PTR _this$[ebp]
  0005f	c6 40 04 00	 mov	 BYTE PTR [eax+4], 0

; 20   : 	this->EventStartTime = GetTickCount();

  00063	ff 15 00 00 00
	00		 call	 DWORD PTR __imp__GetTickCount@0
  00069	8b 4d fc	 mov	 ecx, DWORD PTR _this$[ebp]
  0006c	89 41 08	 mov	 DWORD PTR [ecx+8], eax

; 21   : 	this->m_MapNumber = MAP_INDEX_RORENCIA;

  0006f	8b 45 fc	 mov	 eax, DWORD PTR _this$[ebp]
  00072	c6 40 0c 00	 mov	 BYTE PTR [eax+12], 0

; 22   : }

  00076	5f		 pop	 edi
  00077	5e		 pop	 esi
  00078	5b		 pop	 ebx
  00079	8b e5		 mov	 esp, ebp
  0007b	5d		 pop	 ebp
  0007c	c3		 ret	 0
?Init@CAttackEvent@@QAEXXZ ENDP				; CAttackEvent::Init
_TEXT	ENDS
PUBLIC	?Start@CAttackEvent@@QAEXXZ			; CAttackEvent::Start
; Function compile flags: /Odtp /ZI
_TEXT	SEGMENT
_this$ = -4						; size = 4
?Start@CAttackEvent@@QAEXXZ PROC			; CAttackEvent::Start
; _this$ = ecx

; 25   : {

  00080	55		 push	 ebp
  00081	8b ec		 mov	 ebp, esp
  00083	83 ec 44	 sub	 esp, 68			; 00000044H
  00086	53		 push	 ebx
  00087	56		 push	 esi
  00088	57		 push	 edi
  00089	89 4d fc	 mov	 DWORD PTR _this$[ebp], ecx

; 26   : 	this->EventState = true;

  0008c	8b 45 fc	 mov	 eax, DWORD PTR _this$[ebp]
  0008f	c6 40 04 01	 mov	 BYTE PTR [eax+4], 1

; 27   : 	this->EventStartTime = GetTickCount();

  00093	ff 15 00 00 00
	00		 call	 DWORD PTR __imp__GetTickCount@0
  00099	8b 4d fc	 mov	 ecx, DWORD PTR _this$[ebp]
  0009c	89 41 08	 mov	 DWORD PTR [ecx+8], eax

; 28   : }

  0009f	5f		 pop	 edi
  000a0	5e		 pop	 esi
  000a1	5b		 pop	 ebx
  000a2	8b e5		 mov	 esp, ebp
  000a4	5d		 pop	 ebp
  000a5	c3		 ret	 0
?Start@CAttackEvent@@QAEXXZ ENDP			; CAttackEvent::Start
_TEXT	ENDS
PUBLIC	?End@CAttackEvent@@QAEXXZ			; CAttackEvent::End
; Function compile flags: /Odtp /ZI
_TEXT	SEGMENT
_this$ = -4						; size = 4
?End@CAttackEvent@@QAEXXZ PROC				; CAttackEvent::End
; _this$ = ecx

; 31   : {

  000b0	55		 push	 ebp
  000b1	8b ec		 mov	 ebp, esp
  000b3	83 ec 44	 sub	 esp, 68			; 00000044H
  000b6	53		 push	 ebx
  000b7	56		 push	 esi
  000b8	57		 push	 edi
  000b9	89 4d fc	 mov	 DWORD PTR _this$[ebp], ecx

; 32   : 	return;
; 33   : }

  000bc	5f		 pop	 edi
  000bd	5e		 pop	 esi
  000be	5b		 pop	 ebx
  000bf	8b e5		 mov	 esp, ebp
  000c1	5d		 pop	 ebp
  000c2	c3		 ret	 0
?End@CAttackEvent@@QAEXXZ ENDP				; CAttackEvent::End
_TEXT	ENDS
PUBLIC	?Run@CAttackEvent@@QAEXXZ			; CAttackEvent::Run
; Function compile flags: /Odtp /ZI
_TEXT	SEGMENT
_this$ = -4						; size = 4
?Run@CAttackEvent@@QAEXXZ PROC				; CAttackEvent::Run
; _this$ = ecx

; 36   : {

  000d0	55		 push	 ebp
  000d1	8b ec		 mov	 ebp, esp
  000d3	83 ec 44	 sub	 esp, 68			; 00000044H
  000d6	53		 push	 ebx
  000d7	56		 push	 esi
  000d8	57		 push	 edi
  000d9	89 4d fc	 mov	 DWORD PTR _this$[ebp], ecx

; 37   : 	return;
; 38   : }

  000dc	5f		 pop	 edi
  000dd	5e		 pop	 esi
  000de	5b		 pop	 ebx
  000df	8b e5		 mov	 esp, ebp
  000e1	5d		 pop	 ebp
  000e2	c3		 ret	 0
?Run@CAttackEvent@@QAEXXZ ENDP				; CAttackEvent::Run
_TEXT	ENDS
PUBLIC	??_C@_0BH@PHJBIBLO@event?5?$CFd?5?$CFd?5?$CFd?5create?5?$AA@ ; `string'
PUBLIC	?Active@CAttackEvent@@QAEXXZ			; CAttackEvent::Active
EXTRN	_rand:PROC
EXTRN	?LogAdd@@3P6AXPADZZA:DWORD			; LogAdd
EXTRN	?GetBoxPosition@CMonsterSetBase@@QAEHHHHHHAAF0@Z:PROC ; CMonsterSetBase::GetBoxPosition
EXTRN	?gMSetBase@@3VCMonsterSetBase@@A:BYTE		; gMSetBase
EXTRN	?gObj@@3PAUOBJECTSTRUCT@@A:DWORD		; gObj
;	COMDAT ??_C@_0BH@PHJBIBLO@event?5?$CFd?5?$CFd?5?$CFd?5create?5?$AA@
CONST	SEGMENT
??_C@_0BH@PHJBIBLO@event?5?$CFd?5?$CFd?5?$CFd?5create?5?$AA@ DB 'event %d'
	DB	' %d %d create ', 00H			; `string'
; Function compile flags: /Odtp /ZI
CONST	ENDS
_TEXT	SEGMENT
_n$227017 = -8						; size = 4
_this$ = -4						; size = 4
?Active@CAttackEvent@@QAEXXZ PROC			; CAttackEvent::Active
; _this$ = ecx

; 41   : {

  000f0	55		 push	 ebp
  000f1	8b ec		 mov	 ebp, esp
  000f3	83 ec 48	 sub	 esp, 72			; 00000048H
  000f6	53		 push	 ebx
  000f7	56		 push	 esi
  000f8	57		 push	 edi
  000f9	89 4d fc	 mov	 DWORD PTR _this$[ebp], ecx

; 42   : 	for ( int n = 0; n < OBJ_MAXMONSTER ; n++ )

  000fc	c7 45 f8 00 00
	00 00		 mov	 DWORD PTR _n$227017[ebp], 0
  00103	eb 09		 jmp	 SHORT $LN22@Active
$LN21@Active:
  00105	8b 45 f8	 mov	 eax, DWORD PTR _n$227017[ebp]
  00108	83 c0 01	 add	 eax, 1
  0010b	89 45 f8	 mov	 DWORD PTR _n$227017[ebp], eax
$LN22@Active:
  0010e	81 7d f8 c8 32
	00 00		 cmp	 DWORD PTR _n$227017[ebp], 13000 ; 000032c8H
  00115	0f 8d 74 06 00
	00		 jge	 $LN23@Active

; 43   : 	{
; 44   : 		if ( gObj[n].Class == 53 || gObj[n].Class == 54 )

  0011b	8b 45 f8	 mov	 eax, DWORD PTR _n$227017[ebp]
  0011e	69 c0 38 2b 00
	00		 imul	 eax, 11064		; 00002b38H
  00124	8b 0d 00 00 00
	00		 mov	 ecx, DWORD PTR ?gObj@@3PAUOBJECTSTRUCT@@A ; gObj
  0012a	0f b7 94 01 b8
	00 00 00	 movzx	 edx, WORD PTR [ecx+eax+184]
  00132	83 fa 35	 cmp	 edx, 53			; 00000035H
  00135	74 20		 je	 SHORT $LN18@Active
  00137	8b 45 f8	 mov	 eax, DWORD PTR _n$227017[ebp]
  0013a	69 c0 38 2b 00
	00		 imul	 eax, 11064		; 00002b38H
  00140	8b 0d 00 00 00
	00		 mov	 ecx, DWORD PTR ?gObj@@3PAUOBJECTSTRUCT@@A ; gObj
  00146	0f b7 94 01 b8
	00 00 00	 movzx	 edx, WORD PTR [ecx+eax+184]
  0014e	83 fa 36	 cmp	 edx, 54			; 00000036H
  00151	0f 85 ef 02 00
	00		 jne	 $LN19@Active
$LN18@Active:

; 45   : 		{
; 46   : 			gObj[n].Live = true;

  00157	8b 45 f8	 mov	 eax, DWORD PTR _n$227017[ebp]
  0015a	69 c0 38 2b 00
	00		 imul	 eax, 11064		; 00002b38H
  00160	8b 0d 00 00 00
	00		 mov	 ecx, DWORD PTR ?gObj@@3PAUOBJECTSTRUCT@@A ; gObj
  00166	c6 44 01 6a 01	 mov	 BYTE PTR [ecx+eax+106], 1

; 47   : 
; 48   : 			if ( gObj[n].Class == 53 )

  0016b	8b 45 f8	 mov	 eax, DWORD PTR _n$227017[ebp]
  0016e	69 c0 38 2b 00
	00		 imul	 eax, 11064		; 00002b38H
  00174	8b 0d 00 00 00
	00		 mov	 ecx, DWORD PTR ?gObj@@3PAUOBJECTSTRUCT@@A ; gObj
  0017a	0f b7 94 01 b8
	00 00 00	 movzx	 edx, WORD PTR [ecx+eax+184]
  00182	83 fa 35	 cmp	 edx, 53			; 00000035H
  00185	0f 85 f6 00 00
	00		 jne	 $LN17@Active

; 49   : 			{
; 50   : 				this->m_MapNumber = MAP_INDEX_DEVIAS;

  0018b	8b 45 fc	 mov	 eax, DWORD PTR _this$[ebp]
  0018e	c6 40 0c 02	 mov	 BYTE PTR [eax+12], 2

; 51   : 				gObj[n].MapNumber = this->m_MapNumber;

  00192	8b 45 f8	 mov	 eax, DWORD PTR _n$227017[ebp]
  00195	69 c0 38 2b 00
	00		 imul	 eax, 11064		; 00002b38H
  0019b	8b 0d 00 00 00
	00		 mov	 ecx, DWORD PTR ?gObj@@3PAUOBJECTSTRUCT@@A ; gObj
  001a1	8b 55 fc	 mov	 edx, DWORD PTR _this$[ebp]
  001a4	8a 52 0c	 mov	 dl, BYTE PTR [edx+12]
  001a7	88 94 01 49 01
	00 00		 mov	 BYTE PTR [ecx+eax+329], dl
$LN16@Active:

; 52   : 
; 53   : 				while (	gMSetBase.GetBoxPosition(this->m_MapNumber, 10, 10, 240, 240, gObj[n].X, gObj[n].Y) == 0 )

  001ae	8b 45 f8	 mov	 eax, DWORD PTR _n$227017[ebp]
  001b1	69 c0 38 2b 00
	00		 imul	 eax, 11064		; 00002b38H
  001b7	8b 0d 00 00 00
	00		 mov	 ecx, DWORD PTR ?gObj@@3PAUOBJECTSTRUCT@@A ; gObj
  001bd	8d 94 01 46 01
	00 00		 lea	 edx, DWORD PTR [ecx+eax+326]
  001c4	52		 push	 edx
  001c5	8b 45 f8	 mov	 eax, DWORD PTR _n$227017[ebp]
  001c8	69 c0 38 2b 00
	00		 imul	 eax, 11064		; 00002b38H
  001ce	8b 0d 00 00 00
	00		 mov	 ecx, DWORD PTR ?gObj@@3PAUOBJECTSTRUCT@@A ; gObj
  001d4	8d 94 01 44 01
	00 00		 lea	 edx, DWORD PTR [ecx+eax+324]
  001db	52		 push	 edx
  001dc	68 f0 00 00 00	 push	 240			; 000000f0H
  001e1	68 f0 00 00 00	 push	 240			; 000000f0H
  001e6	6a 0a		 push	 10			; 0000000aH
  001e8	6a 0a		 push	 10			; 0000000aH
  001ea	8b 45 fc	 mov	 eax, DWORD PTR _this$[ebp]
  001ed	0f b6 48 0c	 movzx	 ecx, BYTE PTR [eax+12]
  001f1	51		 push	 ecx
  001f2	b9 00 00 00 00	 mov	 ecx, OFFSET ?gMSetBase@@3VCMonsterSetBase@@A ; gMSetBase
  001f7	e8 00 00 00 00	 call	 ?GetBoxPosition@CMonsterSetBase@@QAEHHHHHHAAF0@Z ; CMonsterSetBase::GetBoxPosition
  001fc	85 c0		 test	 eax, eax
  001fe	75 02		 jne	 SHORT $LN15@Active

; 54   : 				{
; 55   : 
; 56   : 				}

  00200	eb ac		 jmp	 SHORT $LN16@Active
$LN15@Active:

; 57   : 
; 58   : 				this->m_BossMap53 = gObj[n].MapNumber;

  00202	8b 45 f8	 mov	 eax, DWORD PTR _n$227017[ebp]
  00205	69 c0 38 2b 00
	00		 imul	 eax, 11064		; 00002b38H
  0020b	8b 0d 00 00 00
	00		 mov	 ecx, DWORD PTR ?gObj@@3PAUOBJECTSTRUCT@@A ; gObj
  00211	0f b6 94 01 49
	01 00 00	 movzx	 edx, BYTE PTR [ecx+eax+329]
  00219	8b 45 fc	 mov	 eax, DWORD PTR _this$[ebp]
  0021c	89 50 1c	 mov	 DWORD PTR [eax+28], edx

; 59   : 				this->m_BossMapX53 = gObj[n].X;

  0021f	8b 45 f8	 mov	 eax, DWORD PTR _n$227017[ebp]
  00222	69 c0 38 2b 00
	00		 imul	 eax, 11064		; 00002b38H
  00228	8b 0d 00 00 00
	00		 mov	 ecx, DWORD PTR ?gObj@@3PAUOBJECTSTRUCT@@A ; gObj
  0022e	0f bf 94 01 44
	01 00 00	 movsx	 edx, WORD PTR [ecx+eax+324]
  00236	8b 45 fc	 mov	 eax, DWORD PTR _this$[ebp]
  00239	89 50 20	 mov	 DWORD PTR [eax+32], edx

; 60   : 				this->m_BossMapY53 = gObj[n].Y;

  0023c	8b 45 f8	 mov	 eax, DWORD PTR _n$227017[ebp]
  0023f	69 c0 38 2b 00
	00		 imul	 eax, 11064		; 00002b38H
  00245	8b 0d 00 00 00
	00		 mov	 ecx, DWORD PTR ?gObj@@3PAUOBJECTSTRUCT@@A ; gObj
  0024b	0f bf 94 01 46
	01 00 00	 movsx	 edx, WORD PTR [ecx+eax+326]
  00253	8b 45 fc	 mov	 eax, DWORD PTR _this$[ebp]
  00256	89 50 24	 mov	 DWORD PTR [eax+36], edx

; 61   : 
; 62   : 				LogAdd("event %d %d %d create ", this->m_BossMap53, this->m_BossMapX53, this->m_BossMapY53);

  00259	8b 45 fc	 mov	 eax, DWORD PTR _this$[ebp]
  0025c	8b 48 24	 mov	 ecx, DWORD PTR [eax+36]
  0025f	51		 push	 ecx
  00260	8b 55 fc	 mov	 edx, DWORD PTR _this$[ebp]
  00263	8b 42 20	 mov	 eax, DWORD PTR [edx+32]
  00266	50		 push	 eax
  00267	8b 4d fc	 mov	 ecx, DWORD PTR _this$[ebp]
  0026a	8b 51 1c	 mov	 edx, DWORD PTR [ecx+28]
  0026d	52		 push	 edx
  0026e	68 00 00 00 00	 push	 OFFSET ??_C@_0BH@PHJBIBLO@event?5?$CFd?5?$CFd?5?$CFd?5create?5?$AA@
  00273	ff 15 00 00 00
	00		 call	 DWORD PTR ?LogAdd@@3P6AXPADZZA ; LogAdd
  00279	83 c4 10	 add	 esp, 16			; 00000010H

; 63   : 
; 64   : 			}
; 65   : 			else

  0027c	e9 96 00 00 00	 jmp	 $LN14@Active
$LN17@Active:

; 66   : 			{
; 67   : 				this->m_MapNumber = this->m_BossMap53;

  00281	8b 45 fc	 mov	 eax, DWORD PTR _this$[ebp]
  00284	8b 4d fc	 mov	 ecx, DWORD PTR _this$[ebp]
  00287	8a 51 1c	 mov	 dl, BYTE PTR [ecx+28]
  0028a	88 50 0c	 mov	 BYTE PTR [eax+12], dl

; 68   : 				gObj[n].MapNumber = this->m_MapNumber;

  0028d	8b 45 f8	 mov	 eax, DWORD PTR _n$227017[ebp]
  00290	69 c0 38 2b 00
	00		 imul	 eax, 11064		; 00002b38H
  00296	8b 0d 00 00 00
	00		 mov	 ecx, DWORD PTR ?gObj@@3PAUOBJECTSTRUCT@@A ; gObj
  0029c	8b 55 fc	 mov	 edx, DWORD PTR _this$[ebp]
  0029f	8a 52 0c	 mov	 dl, BYTE PTR [edx+12]
  002a2	88 94 01 49 01
	00 00		 mov	 BYTE PTR [ecx+eax+329], dl
$LN13@Active:

; 69   : 
; 70   : 				while (	gMSetBase.GetBoxPosition(this->m_MapNumber, this->m_BossMapX53 -4, this->m_BossMapY53-4, this->m_BossMapX53+4, this->m_BossMapY53+4, gObj[n].X, gObj[n].Y) == 0 )

  002a9	8b 45 f8	 mov	 eax, DWORD PTR _n$227017[ebp]
  002ac	69 c0 38 2b 00
	00		 imul	 eax, 11064		; 00002b38H
  002b2	8b 0d 00 00 00
	00		 mov	 ecx, DWORD PTR ?gObj@@3PAUOBJECTSTRUCT@@A ; gObj
  002b8	8d 94 01 46 01
	00 00		 lea	 edx, DWORD PTR [ecx+eax+326]
  002bf	52		 push	 edx
  002c0	8b 45 f8	 mov	 eax, DWORD PTR _n$227017[ebp]
  002c3	69 c0 38 2b 00
	00		 imul	 eax, 11064		; 00002b38H
  002c9	8b 0d 00 00 00
	00		 mov	 ecx, DWORD PTR ?gObj@@3PAUOBJECTSTRUCT@@A ; gObj
  002cf	8d 94 01 44 01
	00 00		 lea	 edx, DWORD PTR [ecx+eax+324]
  002d6	52		 push	 edx
  002d7	8b 45 fc	 mov	 eax, DWORD PTR _this$[ebp]
  002da	8b 48 24	 mov	 ecx, DWORD PTR [eax+36]
  002dd	83 c1 04	 add	 ecx, 4
  002e0	51		 push	 ecx
  002e1	8b 55 fc	 mov	 edx, DWORD PTR _this$[ebp]
  002e4	8b 42 20	 mov	 eax, DWORD PTR [edx+32]
  002e7	83 c0 04	 add	 eax, 4
  002ea	50		 push	 eax
  002eb	8b 4d fc	 mov	 ecx, DWORD PTR _this$[ebp]
  002ee	8b 51 24	 mov	 edx, DWORD PTR [ecx+36]
  002f1	83 ea 04	 sub	 edx, 4
  002f4	52		 push	 edx
  002f5	8b 45 fc	 mov	 eax, DWORD PTR _this$[ebp]
  002f8	8b 48 20	 mov	 ecx, DWORD PTR [eax+32]
  002fb	83 e9 04	 sub	 ecx, 4
  002fe	51		 push	 ecx
  002ff	8b 55 fc	 mov	 edx, DWORD PTR _this$[ebp]
  00302	0f b6 42 0c	 movzx	 eax, BYTE PTR [edx+12]
  00306	50		 push	 eax
  00307	b9 00 00 00 00	 mov	 ecx, OFFSET ?gMSetBase@@3VCMonsterSetBase@@A ; gMSetBase
  0030c	e8 00 00 00 00	 call	 ?GetBoxPosition@CMonsterSetBase@@QAEHHHHHHAAF0@Z ; CMonsterSetBase::GetBoxPosition
  00311	85 c0		 test	 eax, eax
  00313	75 02		 jne	 SHORT $LN14@Active

; 71   : 				{
; 72   : 
; 73   : 				}

  00315	eb 92		 jmp	 SHORT $LN13@Active
$LN14@Active:

; 74   : 			}
; 75   : 				
; 76   : 			gObj[n].TX = gObj[n].X;

  00317	8b 45 f8	 mov	 eax, DWORD PTR _n$227017[ebp]
  0031a	69 c0 38 2b 00
	00		 imul	 eax, 11064		; 00002b38H
  00320	8b 4d f8	 mov	 ecx, DWORD PTR _n$227017[ebp]
  00323	69 c9 38 2b 00
	00		 imul	 ecx, 11064		; 00002b38H
  00329	8b 15 00 00 00
	00		 mov	 edx, DWORD PTR ?gObj@@3PAUOBJECTSTRUCT@@A ; gObj
  0032f	8b 35 00 00 00
	00		 mov	 esi, DWORD PTR ?gObj@@3PAUOBJECTSTRUCT@@A ; gObj
  00335	66 8b 84 06 44
	01 00 00	 mov	 ax, WORD PTR [esi+eax+324]
  0033d	66 89 84 0a 7c
	01 00 00	 mov	 WORD PTR [edx+ecx+380], ax

; 77   : 			gObj[n].TY = gObj[n].Y;

  00345	8b 45 f8	 mov	 eax, DWORD PTR _n$227017[ebp]
  00348	69 c0 38 2b 00
	00		 imul	 eax, 11064		; 00002b38H
  0034e	8b 4d f8	 mov	 ecx, DWORD PTR _n$227017[ebp]
  00351	69 c9 38 2b 00
	00		 imul	 ecx, 11064		; 00002b38H
  00357	8b 15 00 00 00
	00		 mov	 edx, DWORD PTR ?gObj@@3PAUOBJECTSTRUCT@@A ; gObj
  0035d	8b 35 00 00 00
	00		 mov	 esi, DWORD PTR ?gObj@@3PAUOBJECTSTRUCT@@A ; gObj
  00363	66 8b 84 06 46
	01 00 00	 mov	 ax, WORD PTR [esi+eax+326]
  0036b	66 89 84 0a 7e
	01 00 00	 mov	 WORD PTR [edx+ecx+382], ax

; 78   : 			gObj[n].MTX = gObj[n].X;

  00373	8b 45 f8	 mov	 eax, DWORD PTR _n$227017[ebp]
  00376	69 c0 38 2b 00
	00		 imul	 eax, 11064		; 00002b38H
  0037c	8b 4d f8	 mov	 ecx, DWORD PTR _n$227017[ebp]
  0037f	69 c9 38 2b 00
	00		 imul	 ecx, 11064		; 00002b38H
  00385	8b 15 00 00 00
	00		 mov	 edx, DWORD PTR ?gObj@@3PAUOBJECTSTRUCT@@A ; gObj
  0038b	8b 35 00 00 00
	00		 mov	 esi, DWORD PTR ?gObj@@3PAUOBJECTSTRUCT@@A ; gObj
  00391	66 8b 84 06 44
	01 00 00	 mov	 ax, WORD PTR [esi+eax+324]
  00399	66 89 84 0a 80
	01 00 00	 mov	 WORD PTR [edx+ecx+384], ax

; 79   : 			gObj[n].MTY = gObj[n].Y;

  003a1	8b 45 f8	 mov	 eax, DWORD PTR _n$227017[ebp]
  003a4	69 c0 38 2b 00
	00		 imul	 eax, 11064		; 00002b38H
  003aa	8b 4d f8	 mov	 ecx, DWORD PTR _n$227017[ebp]
  003ad	69 c9 38 2b 00
	00		 imul	 ecx, 11064		; 00002b38H
  003b3	8b 15 00 00 00
	00		 mov	 edx, DWORD PTR ?gObj@@3PAUOBJECTSTRUCT@@A ; gObj
  003b9	8b 35 00 00 00
	00		 mov	 esi, DWORD PTR ?gObj@@3PAUOBJECTSTRUCT@@A ; gObj
  003bf	66 8b 84 06 46
	01 00 00	 mov	 ax, WORD PTR [esi+eax+326]
  003c7	66 89 84 0a 82
	01 00 00	 mov	 WORD PTR [edx+ecx+386], ax

; 80   : 			gObj[n].StartX = gObj[n].X;

  003cf	8b 45 f8	 mov	 eax, DWORD PTR _n$227017[ebp]
  003d2	69 c0 38 2b 00
	00		 imul	 eax, 11064		; 00002b38H
  003d8	8b 4d f8	 mov	 ecx, DWORD PTR _n$227017[ebp]
  003db	69 c9 38 2b 00
	00		 imul	 ecx, 11064		; 00002b38H
  003e1	8b 15 00 00 00
	00		 mov	 edx, DWORD PTR ?gObj@@3PAUOBJECTSTRUCT@@A ; gObj
  003e7	8b 35 00 00 00
	00		 mov	 esi, DWORD PTR ?gObj@@3PAUOBJECTSTRUCT@@A ; gObj
  003ed	8a 84 06 44 01
	00 00		 mov	 al, BYTE PTR [esi+eax+324]
  003f4	88 84 0a 76 01
	00 00		 mov	 BYTE PTR [edx+ecx+374], al

; 81   : 			gObj[n].StartY = gObj[n].Y;

  003fb	8b 45 f8	 mov	 eax, DWORD PTR _n$227017[ebp]
  003fe	69 c0 38 2b 00
	00		 imul	 eax, 11064		; 00002b38H
  00404	8b 4d f8	 mov	 ecx, DWORD PTR _n$227017[ebp]
  00407	69 c9 38 2b 00
	00		 imul	 ecx, 11064		; 00002b38H
  0040d	8b 15 00 00 00
	00		 mov	 edx, DWORD PTR ?gObj@@3PAUOBJECTSTRUCT@@A ; gObj
  00413	8b 35 00 00 00
	00		 mov	 esi, DWORD PTR ?gObj@@3PAUOBJECTSTRUCT@@A ; gObj
  00419	8a 84 06 46 01
	00 00		 mov	 al, BYTE PTR [esi+eax+326]
  00420	88 84 0a 77 01
	00 00		 mov	 BYTE PTR [edx+ecx+375], al

; 82   : 			gObj[n].m_State = 1;

  00427	8b 45 f8	 mov	 eax, DWORD PTR _n$227017[ebp]
  0042a	69 c0 38 2b 00
	00		 imul	 eax, 11064		; 00002b38H
  00430	8b 0d 00 00 00
	00		 mov	 ecx, DWORD PTR ?gObj@@3PAUOBJECTSTRUCT@@A ; gObj
  00436	c7 84 01 20 02
	00 00 01 00 00
	00		 mov	 DWORD PTR [ecx+eax+544], 1
  00441	e9 44 03 00 00	 jmp	 $LN11@Active
$LN19@Active:

; 83   : 			
; 84   : 		}
; 85   : 		else if ( gObj[n].Class == 55 || gObj[n].Class == 56 )

  00446	8b 45 f8	 mov	 eax, DWORD PTR _n$227017[ebp]
  00449	69 c0 38 2b 00
	00		 imul	 eax, 11064		; 00002b38H
  0044f	8b 0d 00 00 00
	00		 mov	 ecx, DWORD PTR ?gObj@@3PAUOBJECTSTRUCT@@A ; gObj
  00455	0f b7 94 01 b8
	00 00 00	 movzx	 edx, WORD PTR [ecx+eax+184]
  0045d	83 fa 37	 cmp	 edx, 55			; 00000037H
  00460	74 20		 je	 SHORT $LN9@Active
  00462	8b 45 f8	 mov	 eax, DWORD PTR _n$227017[ebp]
  00465	69 c0 38 2b 00
	00		 imul	 eax, 11064		; 00002b38H
  0046b	8b 0d 00 00 00
	00		 mov	 ecx, DWORD PTR ?gObj@@3PAUOBJECTSTRUCT@@A ; gObj
  00471	0f b7 94 01 b8
	00 00 00	 movzx	 edx, WORD PTR [ecx+eax+184]
  00479	83 fa 38	 cmp	 edx, 56			; 00000038H
  0047c	0f 85 08 03 00
	00		 jne	 $LN11@Active
$LN9@Active:

; 86   : 		{
; 87   : 			gObj[n].Live = TRUE;

  00482	8b 45 f8	 mov	 eax, DWORD PTR _n$227017[ebp]
  00485	69 c0 38 2b 00
	00		 imul	 eax, 11064		; 00002b38H
  0048b	8b 0d 00 00 00
	00		 mov	 ecx, DWORD PTR ?gObj@@3PAUOBJECTSTRUCT@@A ; gObj
  00491	c6 44 01 6a 01	 mov	 BYTE PTR [ecx+eax+106], 1

; 88   : 
; 89   : 			if ( gObj[n].Class == 55 )

  00496	8b 45 f8	 mov	 eax, DWORD PTR _n$227017[ebp]
  00499	69 c0 38 2b 00
	00		 imul	 eax, 11064		; 00002b38H
  0049f	8b 0d 00 00 00
	00		 mov	 ecx, DWORD PTR ?gObj@@3PAUOBJECTSTRUCT@@A ; gObj
  004a5	0f b7 94 01 b8
	00 00 00	 movzx	 edx, WORD PTR [ecx+eax+184]
  004ad	83 fa 37	 cmp	 edx, 55			; 00000037H
  004b0	0f 85 14 01 00
	00		 jne	 $LN8@Active

; 90   : 			{
; 91   : 				if ( (rand() % 2 ) == 0 )

  004b6	e8 00 00 00 00	 call	 _rand
  004bb	25 01 00 00 80	 and	 eax, -2147483647	; 80000001H
  004c0	79 05		 jns	 SHORT $LN25@Active
  004c2	48		 dec	 eax
  004c3	83 c8 fe	 or	 eax, -2			; fffffffeH
  004c6	40		 inc	 eax
$LN25@Active:
  004c7	85 c0		 test	 eax, eax
  004c9	75 09		 jne	 SHORT $LN7@Active

; 92   : 				{
; 93   : 					this->m_MapNumber = MAP_INDEX_RORENCIA;

  004cb	8b 45 fc	 mov	 eax, DWORD PTR _this$[ebp]
  004ce	c6 40 0c 00	 mov	 BYTE PTR [eax+12], 0

; 94   : 				}
; 95   : 				else

  004d2	eb 07		 jmp	 SHORT $LN6@Active
$LN7@Active:

; 96   : 				{
; 97   : 					this->m_MapNumber = MAP_INDEX_NORIA;

  004d4	8b 45 fc	 mov	 eax, DWORD PTR _this$[ebp]
  004d7	c6 40 0c 03	 mov	 BYTE PTR [eax+12], 3
$LN6@Active:

; 98   : 				}
; 99   : 
; 100  : 				gObj[n].MapNumber = this->m_MapNumber;

  004db	8b 45 f8	 mov	 eax, DWORD PTR _n$227017[ebp]
  004de	69 c0 38 2b 00
	00		 imul	 eax, 11064		; 00002b38H
  004e4	8b 0d 00 00 00
	00		 mov	 ecx, DWORD PTR ?gObj@@3PAUOBJECTSTRUCT@@A ; gObj
  004ea	8b 55 fc	 mov	 edx, DWORD PTR _this$[ebp]
  004ed	8a 52 0c	 mov	 dl, BYTE PTR [edx+12]
  004f0	88 94 01 49 01
	00 00		 mov	 BYTE PTR [ecx+eax+329], dl
$LN5@Active:

; 101  : 
; 102  : 
; 103  : 				while ( gMSetBase.GetBoxPosition(this->m_MapNumber, 10, 10, 240, 240, gObj[n].X, gObj[n].Y) == 0 )

  004f7	8b 45 f8	 mov	 eax, DWORD PTR _n$227017[ebp]
  004fa	69 c0 38 2b 00
	00		 imul	 eax, 11064		; 00002b38H
  00500	8b 0d 00 00 00
	00		 mov	 ecx, DWORD PTR ?gObj@@3PAUOBJECTSTRUCT@@A ; gObj
  00506	8d 94 01 46 01
	00 00		 lea	 edx, DWORD PTR [ecx+eax+326]
  0050d	52		 push	 edx
  0050e	8b 45 f8	 mov	 eax, DWORD PTR _n$227017[ebp]
  00511	69 c0 38 2b 00
	00		 imul	 eax, 11064		; 00002b38H
  00517	8b 0d 00 00 00
	00		 mov	 ecx, DWORD PTR ?gObj@@3PAUOBJECTSTRUCT@@A ; gObj
  0051d	8d 94 01 44 01
	00 00		 lea	 edx, DWORD PTR [ecx+eax+324]
  00524	52		 push	 edx
  00525	68 f0 00 00 00	 push	 240			; 000000f0H
  0052a	68 f0 00 00 00	 push	 240			; 000000f0H
  0052f	6a 0a		 push	 10			; 0000000aH
  00531	6a 0a		 push	 10			; 0000000aH
  00533	8b 45 fc	 mov	 eax, DWORD PTR _this$[ebp]
  00536	0f b6 48 0c	 movzx	 ecx, BYTE PTR [eax+12]
  0053a	51		 push	 ecx
  0053b	b9 00 00 00 00	 mov	 ecx, OFFSET ?gMSetBase@@3VCMonsterSetBase@@A ; gMSetBase
  00540	e8 00 00 00 00	 call	 ?GetBoxPosition@CMonsterSetBase@@QAEHHHHHHAAF0@Z ; CMonsterSetBase::GetBoxPosition
  00545	85 c0		 test	 eax, eax
  00547	75 02		 jne	 SHORT $LN4@Active

; 104  : 				{
; 105  : 
; 106  : 				}

  00549	eb ac		 jmp	 SHORT $LN5@Active
$LN4@Active:

; 107  : 
; 108  : 				this->m_BossMap55 = gObj[n].MapNumber;

  0054b	8b 45 f8	 mov	 eax, DWORD PTR _n$227017[ebp]
  0054e	69 c0 38 2b 00
	00		 imul	 eax, 11064		; 00002b38H
  00554	8b 0d 00 00 00
	00		 mov	 ecx, DWORD PTR ?gObj@@3PAUOBJECTSTRUCT@@A ; gObj
  0055a	0f b6 94 01 49
	01 00 00	 movzx	 edx, BYTE PTR [ecx+eax+329]
  00562	8b 45 fc	 mov	 eax, DWORD PTR _this$[ebp]
  00565	89 50 10	 mov	 DWORD PTR [eax+16], edx

; 109  : 				this->m_BossMapX55 = gObj[n].X;

  00568	8b 45 f8	 mov	 eax, DWORD PTR _n$227017[ebp]
  0056b	69 c0 38 2b 00
	00		 imul	 eax, 11064		; 00002b38H
  00571	8b 0d 00 00 00
	00		 mov	 ecx, DWORD PTR ?gObj@@3PAUOBJECTSTRUCT@@A ; gObj
  00577	0f bf 94 01 44
	01 00 00	 movsx	 edx, WORD PTR [ecx+eax+324]
  0057f	8b 45 fc	 mov	 eax, DWORD PTR _this$[ebp]
  00582	89 50 14	 mov	 DWORD PTR [eax+20], edx

; 110  : 				this->m_BossMapY55 = gObj[n].Y;

  00585	8b 45 f8	 mov	 eax, DWORD PTR _n$227017[ebp]
  00588	69 c0 38 2b 00
	00		 imul	 eax, 11064		; 00002b38H
  0058e	8b 0d 00 00 00
	00		 mov	 ecx, DWORD PTR ?gObj@@3PAUOBJECTSTRUCT@@A ; gObj
  00594	0f bf 94 01 46
	01 00 00	 movsx	 edx, WORD PTR [ecx+eax+326]
  0059c	8b 45 fc	 mov	 eax, DWORD PTR _this$[ebp]
  0059f	89 50 18	 mov	 DWORD PTR [eax+24], edx

; 111  : 				LogAdd("event %d %d %d create ", this->m_BossMap55, this->m_BossMapX55, this->m_BossMapY55 );

  005a2	8b 45 fc	 mov	 eax, DWORD PTR _this$[ebp]
  005a5	8b 48 18	 mov	 ecx, DWORD PTR [eax+24]
  005a8	51		 push	 ecx
  005a9	8b 55 fc	 mov	 edx, DWORD PTR _this$[ebp]
  005ac	8b 42 14	 mov	 eax, DWORD PTR [edx+20]
  005af	50		 push	 eax
  005b0	8b 4d fc	 mov	 ecx, DWORD PTR _this$[ebp]
  005b3	8b 51 10	 mov	 edx, DWORD PTR [ecx+16]
  005b6	52		 push	 edx
  005b7	68 00 00 00 00	 push	 OFFSET ??_C@_0BH@PHJBIBLO@event?5?$CFd?5?$CFd?5?$CFd?5create?5?$AA@
  005bc	ff 15 00 00 00
	00		 call	 DWORD PTR ?LogAdd@@3P6AXPADZZA ; LogAdd
  005c2	83 c4 10	 add	 esp, 16			; 00000010H

; 112  : 			}
; 113  : 			else

  005c5	e9 96 00 00 00	 jmp	 $LN3@Active
$LN8@Active:

; 114  : 			{
; 115  : 				this->m_MapNumber = this->m_BossMap55;

  005ca	8b 45 fc	 mov	 eax, DWORD PTR _this$[ebp]
  005cd	8b 4d fc	 mov	 ecx, DWORD PTR _this$[ebp]
  005d0	8a 51 10	 mov	 dl, BYTE PTR [ecx+16]
  005d3	88 50 0c	 mov	 BYTE PTR [eax+12], dl

; 116  : 				gObj[n].MapNumber = this->m_MapNumber;

  005d6	8b 45 f8	 mov	 eax, DWORD PTR _n$227017[ebp]
  005d9	69 c0 38 2b 00
	00		 imul	 eax, 11064		; 00002b38H
  005df	8b 0d 00 00 00
	00		 mov	 ecx, DWORD PTR ?gObj@@3PAUOBJECTSTRUCT@@A ; gObj
  005e5	8b 55 fc	 mov	 edx, DWORD PTR _this$[ebp]
  005e8	8a 52 0c	 mov	 dl, BYTE PTR [edx+12]
  005eb	88 94 01 49 01
	00 00		 mov	 BYTE PTR [ecx+eax+329], dl
$LN2@Active:

; 117  : 
; 118  : 
; 119  : 				while (	gMSetBase.GetBoxPosition(this->m_MapNumber, this->m_BossMapX55 -4, this->m_BossMapY55-4, this->m_BossMapX55+4, this->m_BossMapY55+4, gObj[n].X, gObj[n].Y) == 0 )

  005f2	8b 45 f8	 mov	 eax, DWORD PTR _n$227017[ebp]
  005f5	69 c0 38 2b 00
	00		 imul	 eax, 11064		; 00002b38H
  005fb	8b 0d 00 00 00
	00		 mov	 ecx, DWORD PTR ?gObj@@3PAUOBJECTSTRUCT@@A ; gObj
  00601	8d 94 01 46 01
	00 00		 lea	 edx, DWORD PTR [ecx+eax+326]
  00608	52		 push	 edx
  00609	8b 45 f8	 mov	 eax, DWORD PTR _n$227017[ebp]
  0060c	69 c0 38 2b 00
	00		 imul	 eax, 11064		; 00002b38H
  00612	8b 0d 00 00 00
	00		 mov	 ecx, DWORD PTR ?gObj@@3PAUOBJECTSTRUCT@@A ; gObj
  00618	8d 94 01 44 01
	00 00		 lea	 edx, DWORD PTR [ecx+eax+324]
  0061f	52		 push	 edx
  00620	8b 45 fc	 mov	 eax, DWORD PTR _this$[ebp]
  00623	8b 48 18	 mov	 ecx, DWORD PTR [eax+24]
  00626	83 c1 04	 add	 ecx, 4
  00629	51		 push	 ecx
  0062a	8b 55 fc	 mov	 edx, DWORD PTR _this$[ebp]
  0062d	8b 42 14	 mov	 eax, DWORD PTR [edx+20]
  00630	83 c0 04	 add	 eax, 4
  00633	50		 push	 eax
  00634	8b 4d fc	 mov	 ecx, DWORD PTR _this$[ebp]
  00637	8b 51 18	 mov	 edx, DWORD PTR [ecx+24]
  0063a	83 ea 04	 sub	 edx, 4
  0063d	52		 push	 edx
  0063e	8b 45 fc	 mov	 eax, DWORD PTR _this$[ebp]
  00641	8b 48 14	 mov	 ecx, DWORD PTR [eax+20]
  00644	83 e9 04	 sub	 ecx, 4
  00647	51		 push	 ecx
  00648	8b 55 fc	 mov	 edx, DWORD PTR _this$[ebp]
  0064b	0f b6 42 0c	 movzx	 eax, BYTE PTR [edx+12]
  0064f	50		 push	 eax
  00650	b9 00 00 00 00	 mov	 ecx, OFFSET ?gMSetBase@@3VCMonsterSetBase@@A ; gMSetBase
  00655	e8 00 00 00 00	 call	 ?GetBoxPosition@CMonsterSetBase@@QAEHHHHHHAAF0@Z ; CMonsterSetBase::GetBoxPosition
  0065a	85 c0		 test	 eax, eax
  0065c	75 02		 jne	 SHORT $LN3@Active

; 120  : 				{
; 121  : 
; 122  : 				}

  0065e	eb 92		 jmp	 SHORT $LN2@Active
$LN3@Active:

; 123  : 			}
; 124  : 
; 125  : 			gObj[n].TX = gObj[n].X;

  00660	8b 45 f8	 mov	 eax, DWORD PTR _n$227017[ebp]
  00663	69 c0 38 2b 00
	00		 imul	 eax, 11064		; 00002b38H
  00669	8b 4d f8	 mov	 ecx, DWORD PTR _n$227017[ebp]
  0066c	69 c9 38 2b 00
	00		 imul	 ecx, 11064		; 00002b38H
  00672	8b 15 00 00 00
	00		 mov	 edx, DWORD PTR ?gObj@@3PAUOBJECTSTRUCT@@A ; gObj
  00678	8b 35 00 00 00
	00		 mov	 esi, DWORD PTR ?gObj@@3PAUOBJECTSTRUCT@@A ; gObj
  0067e	66 8b 84 06 44
	01 00 00	 mov	 ax, WORD PTR [esi+eax+324]
  00686	66 89 84 0a 7c
	01 00 00	 mov	 WORD PTR [edx+ecx+380], ax

; 126  : 			gObj[n].TY = gObj[n].Y;

  0068e	8b 45 f8	 mov	 eax, DWORD PTR _n$227017[ebp]
  00691	69 c0 38 2b 00
	00		 imul	 eax, 11064		; 00002b38H
  00697	8b 4d f8	 mov	 ecx, DWORD PTR _n$227017[ebp]
  0069a	69 c9 38 2b 00
	00		 imul	 ecx, 11064		; 00002b38H
  006a0	8b 15 00 00 00
	00		 mov	 edx, DWORD PTR ?gObj@@3PAUOBJECTSTRUCT@@A ; gObj
  006a6	8b 35 00 00 00
	00		 mov	 esi, DWORD PTR ?gObj@@3PAUOBJECTSTRUCT@@A ; gObj
  006ac	66 8b 84 06 46
	01 00 00	 mov	 ax, WORD PTR [esi+eax+326]
  006b4	66 89 84 0a 7e
	01 00 00	 mov	 WORD PTR [edx+ecx+382], ax

; 127  : 			gObj[n].MTX = gObj[n].X;

  006bc	8b 45 f8	 mov	 eax, DWORD PTR _n$227017[ebp]
  006bf	69 c0 38 2b 00
	00		 imul	 eax, 11064		; 00002b38H
  006c5	8b 4d f8	 mov	 ecx, DWORD PTR _n$227017[ebp]
  006c8	69 c9 38 2b 00
	00		 imul	 ecx, 11064		; 00002b38H
  006ce	8b 15 00 00 00
	00		 mov	 edx, DWORD PTR ?gObj@@3PAUOBJECTSTRUCT@@A ; gObj
  006d4	8b 35 00 00 00
	00		 mov	 esi, DWORD PTR ?gObj@@3PAUOBJECTSTRUCT@@A ; gObj
  006da	66 8b 84 06 44
	01 00 00	 mov	 ax, WORD PTR [esi+eax+324]
  006e2	66 89 84 0a 80
	01 00 00	 mov	 WORD PTR [edx+ecx+384], ax

; 128  : 			gObj[n].MTY = gObj[n].Y;

  006ea	8b 45 f8	 mov	 eax, DWORD PTR _n$227017[ebp]
  006ed	69 c0 38 2b 00
	00		 imul	 eax, 11064		; 00002b38H
  006f3	8b 4d f8	 mov	 ecx, DWORD PTR _n$227017[ebp]
  006f6	69 c9 38 2b 00
	00		 imul	 ecx, 11064		; 00002b38H
  006fc	8b 15 00 00 00
	00		 mov	 edx, DWORD PTR ?gObj@@3PAUOBJECTSTRUCT@@A ; gObj
  00702	8b 35 00 00 00
	00		 mov	 esi, DWORD PTR ?gObj@@3PAUOBJECTSTRUCT@@A ; gObj
  00708	66 8b 84 06 46
	01 00 00	 mov	 ax, WORD PTR [esi+eax+326]
  00710	66 89 84 0a 82
	01 00 00	 mov	 WORD PTR [edx+ecx+386], ax

; 129  : 			gObj[n].StartX = gObj[n].X;

  00718	8b 45 f8	 mov	 eax, DWORD PTR _n$227017[ebp]
  0071b	69 c0 38 2b 00
	00		 imul	 eax, 11064		; 00002b38H
  00721	8b 4d f8	 mov	 ecx, DWORD PTR _n$227017[ebp]
  00724	69 c9 38 2b 00
	00		 imul	 ecx, 11064		; 00002b38H
  0072a	8b 15 00 00 00
	00		 mov	 edx, DWORD PTR ?gObj@@3PAUOBJECTSTRUCT@@A ; gObj
  00730	8b 35 00 00 00
	00		 mov	 esi, DWORD PTR ?gObj@@3PAUOBJECTSTRUCT@@A ; gObj
  00736	8a 84 06 44 01
	00 00		 mov	 al, BYTE PTR [esi+eax+324]
  0073d	88 84 0a 76 01
	00 00		 mov	 BYTE PTR [edx+ecx+374], al

; 130  : 			gObj[n].StartY = gObj[n].Y;

  00744	8b 45 f8	 mov	 eax, DWORD PTR _n$227017[ebp]
  00747	69 c0 38 2b 00
	00		 imul	 eax, 11064		; 00002b38H
  0074d	8b 4d f8	 mov	 ecx, DWORD PTR _n$227017[ebp]
  00750	69 c9 38 2b 00
	00		 imul	 ecx, 11064		; 00002b38H
  00756	8b 15 00 00 00
	00		 mov	 edx, DWORD PTR ?gObj@@3PAUOBJECTSTRUCT@@A ; gObj
  0075c	8b 35 00 00 00
	00		 mov	 esi, DWORD PTR ?gObj@@3PAUOBJECTSTRUCT@@A ; gObj
  00762	8a 84 06 46 01
	00 00		 mov	 al, BYTE PTR [esi+eax+326]
  00769	88 84 0a 77 01
	00 00		 mov	 BYTE PTR [edx+ecx+375], al

; 131  : 			gObj[n].m_State = 1;

  00770	8b 45 f8	 mov	 eax, DWORD PTR _n$227017[ebp]
  00773	69 c0 38 2b 00
	00		 imul	 eax, 11064		; 00002b38H
  00779	8b 0d 00 00 00
	00		 mov	 ecx, DWORD PTR ?gObj@@3PAUOBJECTSTRUCT@@A ; gObj
  0077f	c7 84 01 20 02
	00 00 01 00 00
	00		 mov	 DWORD PTR [ecx+eax+544], 1
$LN11@Active:

; 132  : 			
; 133  : 		}
; 134  : 	}

  0078a	e9 76 f9 ff ff	 jmp	 $LN21@Active
$LN23@Active:

; 135  : }

  0078f	5f		 pop	 edi
  00790	5e		 pop	 esi
  00791	5b		 pop	 ebx
  00792	8b e5		 mov	 esp, ebp
  00794	5d		 pop	 ebp
  00795	c3		 ret	 0
?Active@CAttackEvent@@QAEXXZ ENDP			; CAttackEvent::Active
_TEXT	ENDS
PUBLIC	??_C@_0CN@HDIFLHJI@?$KB?$NL?$KB?$NM?$FLEvent?5Management?$FN?5?$FLStart?$FN?5A@ ; `string'
PUBLIC	?SetMenualStart@CAttackEvent@@QAEXH@Z		; CAttackEvent::SetMenualStart
PUBLIC	?Start_Menual@CAttackEvent@@QAEXXZ		; CAttackEvent::Start_Menual
EXTRN	?LogAddTD@@3P6AXPADZZA:DWORD			; LogAddTD
;	COMDAT ??_C@_0CN@HDIFLHJI@?$KB?$NL?$KB?$NM?$FLEvent?5Management?$FN?5?$FLStart?$FN?5A@
CONST	SEGMENT
??_C@_0CN@HDIFLHJI@?$KB?$NL?$KB?$NM?$FLEvent?5Management?$FN?5?$FLStart?$FN?5A@ DB 0a1H
	DB	0dbH, 0a1H, 0dcH, '[Event Management] [Start] Attack Event!', 00H ; `string'
; Function compile flags: /Odtp /ZI
CONST	ENDS
_TEXT	SEGMENT
_this$ = -4						; size = 4
?Start_Menual@CAttackEvent@@QAEXXZ PROC			; CAttackEvent::Start_Menual
; _this$ = ecx

; 138  : {

  007a0	55		 push	 ebp
  007a1	8b ec		 mov	 ebp, esp
  007a3	83 ec 44	 sub	 esp, 68			; 00000044H
  007a6	53		 push	 ebx
  007a7	56		 push	 esi
  007a8	57		 push	 edi
  007a9	89 4d fc	 mov	 DWORD PTR _this$[ebp], ecx

; 139  : 	this->SetMenualStart(TRUE);

  007ac	6a 01		 push	 1
  007ae	8b 4d fc	 mov	 ecx, DWORD PTR _this$[ebp]
  007b1	e8 00 00 00 00	 call	 ?SetMenualStart@CAttackEvent@@QAEXH@Z ; CAttackEvent::SetMenualStart

; 140  : 
; 141  : 	LogAddTD("¡Û¡Ü[Event Management] [Start] Attack Event!");

  007b6	68 00 00 00 00	 push	 OFFSET ??_C@_0CN@HDIFLHJI@?$KB?$NL?$KB?$NM?$FLEvent?5Management?$FN?5?$FLStart?$FN?5A@
  007bb	ff 15 00 00 00
	00		 call	 DWORD PTR ?LogAddTD@@3P6AXPADZZA ; LogAddTD
  007c1	83 c4 04	 add	 esp, 4

; 142  : 	this->EventState= false;

  007c4	8b 45 fc	 mov	 eax, DWORD PTR _this$[ebp]
  007c7	c6 40 04 00	 mov	 BYTE PTR [eax+4], 0

; 143  : 	this->Start();

  007cb	8b 4d fc	 mov	 ecx, DWORD PTR _this$[ebp]
  007ce	e8 00 00 00 00	 call	 ?Start@CAttackEvent@@QAEXXZ ; CAttackEvent::Start

; 144  : 	this->Active();

  007d3	8b 4d fc	 mov	 ecx, DWORD PTR _this$[ebp]
  007d6	e8 00 00 00 00	 call	 ?Active@CAttackEvent@@QAEXXZ ; CAttackEvent::Active

; 145  : }

  007db	5f		 pop	 edi
  007dc	5e		 pop	 esi
  007dd	5b		 pop	 ebx
  007de	8b e5		 mov	 esp, ebp
  007e0	5d		 pop	 ebp
  007e1	c3		 ret	 0
?Start_Menual@CAttackEvent@@QAEXXZ ENDP			; CAttackEvent::Start_Menual
; Function compile flags: /Odtp /ZI
; File d:\projects\exteam6.3\source\gameserver\gameserver\attackevent.h
_TEXT	ENDS
;	COMDAT ?SetMenualStart@CAttackEvent@@QAEXH@Z
_TEXT	SEGMENT
_this$ = -4						; size = 4
_bMenualStart$ = 8					; size = 4
?SetMenualStart@CAttackEvent@@QAEXH@Z PROC		; CAttackEvent::SetMenualStart, COMDAT
; _this$ = ecx

; 22   : 	void SetMenualStart(BOOL bMenualStart){this->m_bMenualStart = bMenualStart;};

  00000	55		 push	 ebp
  00001	8b ec		 mov	 ebp, esp
  00003	83 ec 44	 sub	 esp, 68			; 00000044H
  00006	53		 push	 ebx
  00007	56		 push	 esi
  00008	57		 push	 edi
  00009	89 4d fc	 mov	 DWORD PTR _this$[ebp], ecx
  0000c	8b 45 fc	 mov	 eax, DWORD PTR _this$[ebp]
  0000f	8b 4d 08	 mov	 ecx, DWORD PTR _bMenualStart$[ebp]
  00012	89 48 28	 mov	 DWORD PTR [eax+40], ecx
  00015	5f		 pop	 edi
  00016	5e		 pop	 esi
  00017	5b		 pop	 ebx
  00018	8b e5		 mov	 esp, ebp
  0001a	5d		 pop	 ebp
  0001b	c2 04 00	 ret	 4
?SetMenualStart@CAttackEvent@@QAEXH@Z ENDP		; CAttackEvent::SetMenualStart
_TEXT	ENDS
PUBLIC	?End_Menual@CAttackEvent@@QAEXXZ		; CAttackEvent::End_Menual
; Function compile flags: /Odtp /ZI
; File d:\projects\exteam6.3\source\gameserver\gameserver\attackevent.cpp
_TEXT	SEGMENT
_this$ = -4						; size = 4
?End_Menual@CAttackEvent@@QAEXXZ PROC			; CAttackEvent::End_Menual
; _this$ = ecx

; 148  : {

  007f0	55		 push	 ebp
  007f1	8b ec		 mov	 ebp, esp
  007f3	83 ec 44	 sub	 esp, 68			; 00000044H
  007f6	53		 push	 ebx
  007f7	56		 push	 esi
  007f8	57		 push	 edi
  007f9	89 4d fc	 mov	 DWORD PTR _this$[ebp], ecx

; 149  : 	this->SetMenualStart(FALSE);

  007fc	6a 00		 push	 0
  007fe	8b 4d fc	 mov	 ecx, DWORD PTR _this$[ebp]
  00801	e8 00 00 00 00	 call	 ?SetMenualStart@CAttackEvent@@QAEXH@Z ; CAttackEvent::SetMenualStart

; 150  : 	this->End();

  00806	8b 4d fc	 mov	 ecx, DWORD PTR _this$[ebp]
  00809	e8 00 00 00 00	 call	 ?End@CAttackEvent@@QAEXXZ ; CAttackEvent::End

; 151  : }

  0080e	5f		 pop	 edi
  0080f	5e		 pop	 esi
  00810	5b		 pop	 ebx
  00811	8b e5		 mov	 esp, ebp
  00813	5d		 pop	 ebp
  00814	c3		 ret	 0
?End_Menual@CAttackEvent@@QAEXXZ ENDP			; CAttackEvent::End_Menual
_TEXT	ENDS
END
