; Listing generated by Microsoft (R) Optimizing Compiler Version 16.00.40219.01 

	TITLE	D:\Projects\ExTeam6.3\Source\GameServer\GameServer\BattleSoccer.cpp
	.686P
	.XMM
	include listing.inc
	.model	flat

INCLUDELIB LIBCMT
INCLUDELIB OLDNAMES

PUBLIC	?gBSGround@@3PAPAVCBattleSoccer@@A		; gBSGround
_BSS	SEGMENT
?gBSGround@@3PAPAVCBattleSoccer@@A DD 01H DUP (?)	; gBSGround
_BSS	ENDS
PUBLIC	??_7CBattleSoccer@@6B@				; CBattleSoccer::`vftable'
PUBLIC	??0CBattleSoccer@@QAE@XZ			; CBattleSoccer::CBattleSoccer
PUBLIC	??_R4CBattleSoccer@@6B@				; CBattleSoccer::`RTTI Complete Object Locator'
PUBLIC	??_R0?AVCBattleSoccer@@@8			; CBattleSoccer `RTTI Type Descriptor'
PUBLIC	??_R3CBattleSoccer@@8				; CBattleSoccer::`RTTI Class Hierarchy Descriptor'
PUBLIC	??_R2CBattleSoccer@@8				; CBattleSoccer::`RTTI Base Class Array'
PUBLIC	??_R1A@?0A@EA@CBattleSoccer@@8			; CBattleSoccer::`RTTI Base Class Descriptor at (0,-1,0,64)'
PUBLIC	??_R1A@?0A@EA@CBattleGround@@8			; CBattleGround::`RTTI Base Class Descriptor at (0,-1,0,64)'
PUBLIC	??_R0?AVCBattleGround@@@8			; CBattleGround `RTTI Type Descriptor'
PUBLIC	??_R3CBattleGround@@8				; CBattleGround::`RTTI Class Hierarchy Descriptor'
PUBLIC	??_R2CBattleGround@@8				; CBattleGround::`RTTI Base Class Array'
EXTRN	??0CBattleGround@@QAE@XZ:PROC			; CBattleGround::CBattleGround
EXTRN	??_7type_info@@6B@:QWORD			; type_info::`vftable'
EXTRN	??_ECBattleSoccer@@UAEPAXI@Z:PROC		; CBattleSoccer::`vector deleting destructor'
;	COMDAT ??_R2CBattleGround@@8
; File d:\projects\exteam6.3\source\gameserver\gameserver\battlesoccer.cpp
rdata$r	SEGMENT
??_R2CBattleGround@@8 DD FLAT:??_R1A@?0A@EA@CBattleGround@@8 ; CBattleGround::`RTTI Base Class Array'
rdata$r	ENDS
;	COMDAT ??_R3CBattleGround@@8
rdata$r	SEGMENT
??_R3CBattleGround@@8 DD 00H				; CBattleGround::`RTTI Class Hierarchy Descriptor'
	DD	00H
	DD	01H
	DD	FLAT:??_R2CBattleGround@@8
rdata$r	ENDS
;	COMDAT ??_R0?AVCBattleGround@@@8
_DATA	SEGMENT
??_R0?AVCBattleGround@@@8 DD FLAT:??_7type_info@@6B@	; CBattleGround `RTTI Type Descriptor'
	DD	00H
	DB	'.?AVCBattleGround@@', 00H
_DATA	ENDS
;	COMDAT ??_R1A@?0A@EA@CBattleGround@@8
rdata$r	SEGMENT
??_R1A@?0A@EA@CBattleGround@@8 DD FLAT:??_R0?AVCBattleGround@@@8 ; CBattleGround::`RTTI Base Class Descriptor at (0,-1,0,64)'
	DD	00H
	DD	00H
	DD	0ffffffffH
	DD	00H
	DD	040H
	DD	FLAT:??_R3CBattleGround@@8
rdata$r	ENDS
;	COMDAT ??_R1A@?0A@EA@CBattleSoccer@@8
rdata$r	SEGMENT
??_R1A@?0A@EA@CBattleSoccer@@8 DD FLAT:??_R0?AVCBattleSoccer@@@8 ; CBattleSoccer::`RTTI Base Class Descriptor at (0,-1,0,64)'
	DD	01H
	DD	00H
	DD	0ffffffffH
	DD	00H
	DD	040H
	DD	FLAT:??_R3CBattleSoccer@@8
rdata$r	ENDS
;	COMDAT ??_R2CBattleSoccer@@8
rdata$r	SEGMENT
??_R2CBattleSoccer@@8 DD FLAT:??_R1A@?0A@EA@CBattleSoccer@@8 ; CBattleSoccer::`RTTI Base Class Array'
	DD	FLAT:??_R1A@?0A@EA@CBattleGround@@8
rdata$r	ENDS
;	COMDAT ??_R3CBattleSoccer@@8
rdata$r	SEGMENT
??_R3CBattleSoccer@@8 DD 00H				; CBattleSoccer::`RTTI Class Hierarchy Descriptor'
	DD	00H
	DD	02H
	DD	FLAT:??_R2CBattleSoccer@@8
rdata$r	ENDS
;	COMDAT ??_R0?AVCBattleSoccer@@@8
_DATA	SEGMENT
??_R0?AVCBattleSoccer@@@8 DD FLAT:??_7type_info@@6B@	; CBattleSoccer `RTTI Type Descriptor'
	DD	00H
	DB	'.?AVCBattleSoccer@@', 00H
_DATA	ENDS
;	COMDAT ??_R4CBattleSoccer@@6B@
rdata$r	SEGMENT
??_R4CBattleSoccer@@6B@ DD 00H				; CBattleSoccer::`RTTI Complete Object Locator'
	DD	00H
	DD	00H
	DD	FLAT:??_R0?AVCBattleSoccer@@@8
	DD	FLAT:??_R3CBattleSoccer@@8
rdata$r	ENDS
;	COMDAT ??_7CBattleSoccer@@6B@
CONST	SEGMENT
??_7CBattleSoccer@@6B@ DD FLAT:??_R4CBattleSoccer@@6B@	; CBattleSoccer::`vftable'
	DD	FLAT:??_ECBattleSoccer@@UAEPAXI@Z
; Function compile flags: /Odtp /ZI
CONST	ENDS
_TEXT	SEGMENT
_this$ = -4						; size = 4
??0CBattleSoccer@@QAE@XZ PROC				; CBattleSoccer::CBattleSoccer
; _this$ = ecx

; 8    : {

  00000	55		 push	 ebp
  00001	8b ec		 mov	 ebp, esp
  00003	83 ec 44	 sub	 esp, 68			; 00000044H
  00006	53		 push	 ebx
  00007	56		 push	 esi
  00008	57		 push	 edi
  00009	89 4d fc	 mov	 DWORD PTR _this$[ebp], ecx
  0000c	8b 4d fc	 mov	 ecx, DWORD PTR _this$[ebp]
  0000f	e8 00 00 00 00	 call	 ??0CBattleGround@@QAE@XZ ; CBattleGround::CBattleGround
  00014	8b 45 fc	 mov	 eax, DWORD PTR _this$[ebp]
  00017	c7 00 00 00 00
	00		 mov	 DWORD PTR [eax], OFFSET ??_7CBattleSoccer@@6B@

; 9    : 	this->m_goalmove = 0;

  0001d	8b 45 fc	 mov	 eax, DWORD PTR _this$[ebp]
  00020	c7 40 60 00 00
	00 00		 mov	 DWORD PTR [eax+96], 0

; 10   : 	this->m_BallIndex = 0;

  00027	8b 45 fc	 mov	 eax, DWORD PTR _this$[ebp]
  0002a	c7 40 64 00 00
	00 00		 mov	 DWORD PTR [eax+100], 0

; 11   : }

  00031	8b 45 fc	 mov	 eax, DWORD PTR _this$[ebp]
  00034	5f		 pop	 edi
  00035	5e		 pop	 esi
  00036	5b		 pop	 ebx
  00037	8b e5		 mov	 esp, ebp
  00039	5d		 pop	 ebp
  0003a	c3		 ret	 0
??0CBattleSoccer@@QAE@XZ ENDP				; CBattleSoccer::CBattleSoccer
_TEXT	ENDS
PUBLIC	??1CBattleSoccer@@UAE@XZ			; CBattleSoccer::~CBattleSoccer
EXTRN	??3@YAXPAX@Z:PROC				; operator delete
; Function compile flags: /Odtp /ZI
;	COMDAT ??_GCBattleSoccer@@UAEPAXI@Z
_TEXT	SEGMENT
_this$ = -4						; size = 4
___flags$ = 8						; size = 4
??_GCBattleSoccer@@UAEPAXI@Z PROC			; CBattleSoccer::`scalar deleting destructor', COMDAT
; _this$ = ecx
  00000	55		 push	 ebp
  00001	8b ec		 mov	 ebp, esp
  00003	83 ec 44	 sub	 esp, 68			; 00000044H
  00006	53		 push	 ebx
  00007	56		 push	 esi
  00008	57		 push	 edi
  00009	89 4d fc	 mov	 DWORD PTR _this$[ebp], ecx
  0000c	8b 4d fc	 mov	 ecx, DWORD PTR _this$[ebp]
  0000f	e8 00 00 00 00	 call	 ??1CBattleSoccer@@UAE@XZ ; CBattleSoccer::~CBattleSoccer
  00014	8b 45 08	 mov	 eax, DWORD PTR ___flags$[ebp]
  00017	83 e0 01	 and	 eax, 1
  0001a	74 0c		 je	 SHORT $LN1@scalar
  0001c	8b 45 fc	 mov	 eax, DWORD PTR _this$[ebp]
  0001f	50		 push	 eax
  00020	e8 00 00 00 00	 call	 ??3@YAXPAX@Z		; operator delete
  00025	83 c4 04	 add	 esp, 4
$LN1@scalar:
  00028	8b 45 fc	 mov	 eax, DWORD PTR _this$[ebp]
  0002b	5f		 pop	 edi
  0002c	5e		 pop	 esi
  0002d	5b		 pop	 ebx
  0002e	8b e5		 mov	 esp, ebp
  00030	5d		 pop	 ebp
  00031	c2 04 00	 ret	 4
??_GCBattleSoccer@@UAEPAXI@Z ENDP			; CBattleSoccer::`scalar deleting destructor'
_TEXT	ENDS
EXTRN	??1CBattleGround@@UAE@XZ:PROC			; CBattleGround::~CBattleGround
; Function compile flags: /Odtp /ZI
_TEXT	SEGMENT
_this$ = -4						; size = 4
??1CBattleSoccer@@UAE@XZ PROC				; CBattleSoccer::~CBattleSoccer
; _this$ = ecx

; 14   : {

  00040	55		 push	 ebp
  00041	8b ec		 mov	 ebp, esp
  00043	83 ec 44	 sub	 esp, 68			; 00000044H
  00046	53		 push	 ebx
  00047	56		 push	 esi
  00048	57		 push	 edi
  00049	89 4d fc	 mov	 DWORD PTR _this$[ebp], ecx
  0004c	8b 45 fc	 mov	 eax, DWORD PTR _this$[ebp]
  0004f	c7 00 00 00 00
	00		 mov	 DWORD PTR [eax], OFFSET ??_7CBattleSoccer@@6B@

; 15   : 	return;
; 16   : }

  00055	8b 4d fc	 mov	 ecx, DWORD PTR _this$[ebp]
  00058	e8 00 00 00 00	 call	 ??1CBattleGround@@UAE@XZ ; CBattleGround::~CBattleGround
  0005d	5f		 pop	 edi
  0005e	5e		 pop	 esi
  0005f	5b		 pop	 ebx
  00060	8b e5		 mov	 esp, ebp
  00062	5d		 pop	 ebp
  00063	c3		 ret	 0
??1CBattleSoccer@@UAE@XZ ENDP				; CBattleSoccer::~CBattleSoccer
_TEXT	ENDS
PUBLIC	?SetGoalMove@CBattleSoccer@@QAEXH@Z		; CBattleSoccer::SetGoalMove
; Function compile flags: /Odtp /ZI
_TEXT	SEGMENT
_this$ = -4						; size = 4
_set_code$ = 8						; size = 4
?SetGoalMove@CBattleSoccer@@QAEXH@Z PROC		; CBattleSoccer::SetGoalMove
; _this$ = ecx

; 19   : {

  00070	55		 push	 ebp
  00071	8b ec		 mov	 ebp, esp
  00073	83 ec 44	 sub	 esp, 68			; 00000044H
  00076	53		 push	 ebx
  00077	56		 push	 esi
  00078	57		 push	 edi
  00079	89 4d fc	 mov	 DWORD PTR _this$[ebp], ecx

; 20   : 	this->m_goalmove = set_code;

  0007c	8b 45 fc	 mov	 eax, DWORD PTR _this$[ebp]
  0007f	8b 4d 08	 mov	 ecx, DWORD PTR _set_code$[ebp]
  00082	89 48 60	 mov	 DWORD PTR [eax+96], ecx

; 21   : }

  00085	5f		 pop	 edi
  00086	5e		 pop	 esi
  00087	5b		 pop	 ebx
  00088	8b e5		 mov	 esp, ebp
  0008a	5d		 pop	 ebp
  0008b	c2 04 00	 ret	 4
?SetGoalMove@CBattleSoccer@@QAEXH@Z ENDP		; CBattleSoccer::SetGoalMove
_TEXT	ENDS
PUBLIC	?GetGoalMove@CBattleSoccer@@QAEHXZ		; CBattleSoccer::GetGoalMove
; Function compile flags: /Odtp /ZI
_TEXT	SEGMENT
_this$ = -4						; size = 4
?GetGoalMove@CBattleSoccer@@QAEHXZ PROC			; CBattleSoccer::GetGoalMove
; _this$ = ecx

; 24   : {

  00090	55		 push	 ebp
  00091	8b ec		 mov	 ebp, esp
  00093	83 ec 44	 sub	 esp, 68			; 00000044H
  00096	53		 push	 ebx
  00097	56		 push	 esi
  00098	57		 push	 edi
  00099	89 4d fc	 mov	 DWORD PTR _this$[ebp], ecx

; 25   : 	return this->m_goalmove;

  0009c	8b 45 fc	 mov	 eax, DWORD PTR _this$[ebp]
  0009f	8b 40 60	 mov	 eax, DWORD PTR [eax+96]

; 26   : }

  000a2	5f		 pop	 edi
  000a3	5e		 pop	 esi
  000a4	5b		 pop	 ebx
  000a5	8b e5		 mov	 esp, ebp
  000a7	5d		 pop	 ebp
  000a8	c3		 ret	 0
?GetGoalMove@CBattleSoccer@@QAEHXZ ENDP			; CBattleSoccer::GetGoalMove
_TEXT	ENDS
PUBLIC	?SetGoalLeftRect@CBattleSoccer@@QAEXHHHH@Z	; CBattleSoccer::SetGoalLeftRect
; Function compile flags: /Odtp /ZI
_TEXT	SEGMENT
_this$ = -4						; size = 4
_x$ = 8							; size = 4
_y$ = 12						; size = 4
_xl$ = 16						; size = 4
_yl$ = 20						; size = 4
?SetGoalLeftRect@CBattleSoccer@@QAEXHHHH@Z PROC		; CBattleSoccer::SetGoalLeftRect
; _this$ = ecx

; 29   : {

  000b0	55		 push	 ebp
  000b1	8b ec		 mov	 ebp, esp
  000b3	83 ec 44	 sub	 esp, 68			; 00000044H
  000b6	53		 push	 ebx
  000b7	56		 push	 esi
  000b8	57		 push	 edi
  000b9	89 4d fc	 mov	 DWORD PTR _this$[ebp], ecx

; 30   : 	this->m_GoalLeft.left = x;

  000bc	8b 45 fc	 mov	 eax, DWORD PTR _this$[ebp]
  000bf	8b 4d 08	 mov	 ecx, DWORD PTR _x$[ebp]
  000c2	89 48 68	 mov	 DWORD PTR [eax+104], ecx

; 31   : 	this->m_GoalLeft.top = y;

  000c5	8b 45 fc	 mov	 eax, DWORD PTR _this$[ebp]
  000c8	8b 4d 0c	 mov	 ecx, DWORD PTR _y$[ebp]
  000cb	89 48 6c	 mov	 DWORD PTR [eax+108], ecx

; 32   : 	this->m_GoalLeft.right = xl;

  000ce	8b 45 fc	 mov	 eax, DWORD PTR _this$[ebp]
  000d1	8b 4d 10	 mov	 ecx, DWORD PTR _xl$[ebp]
  000d4	89 48 70	 mov	 DWORD PTR [eax+112], ecx

; 33   : 	this->m_GoalLeft.bottom = yl;

  000d7	8b 45 fc	 mov	 eax, DWORD PTR _this$[ebp]
  000da	8b 4d 14	 mov	 ecx, DWORD PTR _yl$[ebp]
  000dd	89 48 74	 mov	 DWORD PTR [eax+116], ecx

; 34   : }

  000e0	5f		 pop	 edi
  000e1	5e		 pop	 esi
  000e2	5b		 pop	 ebx
  000e3	8b e5		 mov	 esp, ebp
  000e5	5d		 pop	 ebp
  000e6	c2 10 00	 ret	 16			; 00000010H
?SetGoalLeftRect@CBattleSoccer@@QAEXHHHH@Z ENDP		; CBattleSoccer::SetGoalLeftRect
_TEXT	ENDS
PUBLIC	?SetGoalRightRect@CBattleSoccer@@QAEXHHHH@Z	; CBattleSoccer::SetGoalRightRect
; Function compile flags: /Odtp /ZI
_TEXT	SEGMENT
_this$ = -4						; size = 4
_x$ = 8							; size = 4
_y$ = 12						; size = 4
_xl$ = 16						; size = 4
_yl$ = 20						; size = 4
?SetGoalRightRect@CBattleSoccer@@QAEXHHHH@Z PROC	; CBattleSoccer::SetGoalRightRect
; _this$ = ecx

; 37   : {

  000f0	55		 push	 ebp
  000f1	8b ec		 mov	 ebp, esp
  000f3	83 ec 44	 sub	 esp, 68			; 00000044H
  000f6	53		 push	 ebx
  000f7	56		 push	 esi
  000f8	57		 push	 edi
  000f9	89 4d fc	 mov	 DWORD PTR _this$[ebp], ecx

; 38   : 	this->m_GoalRight.left = x;

  000fc	8b 45 fc	 mov	 eax, DWORD PTR _this$[ebp]
  000ff	8b 4d 08	 mov	 ecx, DWORD PTR _x$[ebp]
  00102	89 48 78	 mov	 DWORD PTR [eax+120], ecx

; 39   : 	this->m_GoalRight.top = y;

  00105	8b 45 fc	 mov	 eax, DWORD PTR _this$[ebp]
  00108	8b 4d 0c	 mov	 ecx, DWORD PTR _y$[ebp]
  0010b	89 48 7c	 mov	 DWORD PTR [eax+124], ecx

; 40   : 	this->m_GoalRight.right = xl;

  0010e	8b 45 fc	 mov	 eax, DWORD PTR _this$[ebp]
  00111	8b 4d 10	 mov	 ecx, DWORD PTR _xl$[ebp]
  00114	89 88 80 00 00
	00		 mov	 DWORD PTR [eax+128], ecx

; 41   : 	this->m_GoalRight.bottom = yl;

  0011a	8b 45 fc	 mov	 eax, DWORD PTR _this$[ebp]
  0011d	8b 4d 14	 mov	 ecx, DWORD PTR _yl$[ebp]
  00120	89 88 84 00 00
	00		 mov	 DWORD PTR [eax+132], ecx

; 42   : }

  00126	5f		 pop	 edi
  00127	5e		 pop	 esi
  00128	5b		 pop	 ebx
  00129	8b e5		 mov	 esp, ebp
  0012b	5d		 pop	 ebp
  0012c	c2 10 00	 ret	 16			; 00000010H
?SetGoalRightRect@CBattleSoccer@@QAEXHHHH@Z ENDP	; CBattleSoccer::SetGoalRightRect
_TEXT	ENDS
END
