; Listing generated by Microsoft (R) Optimizing Compiler Version 16.00.40219.01 

	TITLE	D:\Projects\ExTeam6.3\Source\GameServer\GameServer\BloodHound.cpp
	.686P
	.XMM
	include listing.inc
	.model	flat

INCLUDELIB LIBCMT
INCLUDELIB OLDNAMES

PUBLIC	?BloodHound@@3VcBloodHound@@A			; BloodHound
_BSS	SEGMENT
?BloodHound@@3VcBloodHound@@A DB 0fbabcH DUP (?)	; BloodHound
_BSS	ENDS
PUBLIC	??_H@YGXPAXIHP6EPAX0@Z@Z			; `vector constructor iterator'
; Function compile flags: /Odtp /ZI
;	COMDAT ??_H@YGXPAXIHP6EPAX0@Z@Z
_TEXT	SEGMENT
___t$ = 8						; size = 4
___s$ = 12						; size = 4
___n$ = 16						; size = 4
___f$ = 20						; size = 4
??_H@YGXPAXIHP6EPAX0@Z@Z PROC				; `vector constructor iterator', COMDAT
  00000	55		 push	 ebp
  00001	8b ec		 mov	 ebp, esp
  00003	83 ec 40	 sub	 esp, 64			; 00000040H
  00006	53		 push	 ebx
  00007	56		 push	 esi
  00008	57		 push	 edi
$LN2@vector:
  00009	8b 45 10	 mov	 eax, DWORD PTR ___n$[ebp]
  0000c	83 e8 01	 sub	 eax, 1
  0000f	89 45 10	 mov	 DWORD PTR ___n$[ebp], eax
  00012	78 11		 js	 SHORT $LN3@vector
  00014	8b 4d 08	 mov	 ecx, DWORD PTR ___t$[ebp]
  00017	ff 55 14	 call	 DWORD PTR ___f$[ebp]
  0001a	8b 45 08	 mov	 eax, DWORD PTR ___t$[ebp]
  0001d	03 45 0c	 add	 eax, DWORD PTR ___s$[ebp]
  00020	89 45 08	 mov	 DWORD PTR ___t$[ebp], eax
  00023	eb e4		 jmp	 SHORT $LN2@vector
$LN3@vector:
  00025	5f		 pop	 edi
  00026	5e		 pop	 esi
  00027	5b		 pop	 ebx
  00028	8b e5		 mov	 esp, ebp
  0002a	5d		 pop	 ebp
  0002b	c2 10 00	 ret	 16			; 00000010H
??_H@YGXPAXIHP6EPAX0@Z@Z ENDP				; `vector constructor iterator'
_TEXT	ENDS
PUBLIC	??_C@_0BI@HDMMBKBM@?$CFd?5?$CFd?5?$CFd?5?$CFd?5?$CFd?5?$CFd?5?$CFd?5?$CFd?$AA@ ; `string'
PUBLIC	??_C@_02DKCKIIND@?$CFs?$AA@			; `string'
PUBLIC	??_C@_0BE@JNJNPECB@?$CFd?5?$CFd?5?$CFd?5?$CFd?5?$CC?$CF?$FL?$FO?$CC?$FN?$CC?$AA@ ; `string'
PUBLIC	??_C@_05OKMLJOMC@?$CFd?5?$CFd?$AA@		; `string'
PUBLIC	??_C@_0BA@PIOFNAIM@LOAD?5FILE?5ERROR?$AA@	; `string'
PUBLIC	??_C@_01KDCPPGHE@r?$AA@				; `string'
PUBLIC	??_C@_09OHFGCBJB@EventTime?$AA@			; `string'
PUBLIC	??_C@_05MGEEICMI@NPC_Y?$AA@			; `string'
PUBLIC	??_C@_05NPFPLDIJ@NPC_X?$AA@			; `string'
PUBLIC	??_C@_07LJMEGBCH@NPC_Map?$AA@			; `string'
PUBLIC	??_C@_03BCJIDNJL@NPC?$AA@			; `string'
PUBLIC	??_C@_06POMJKEPM@Common?$AA@			; `string'
PUBLIC	??_C@_06CKGENIKG@Enable?$AA@			; `string'
PUBLIC	??_C@_0CK@DEOJOBDC@?4?4?2Data?2ExData?2Events?2BloodHound@ ; `string'
PUBLIC	__$ArrayPad$
PUBLIC	?ReedConfig@cBloodHound@@QAEXXZ			; cBloodHound::ReedConfig
EXTRN	_fclose:PROC
EXTRN	_sprintf:PROC
EXTRN	_sscanf:PROC
EXTRN	?Ex_IsBadFileLine@@YA_NPADAAH@Z:PROC		; Ex_IsBadFileLine
EXTRN	_fgets:PROC
EXTRN	_feof:PROC
EXTRN	__imp__MessageBoxA@16:PROC
EXTRN	_fopen:PROC
EXTRN	__imp__GetPrivateProfileIntA@16:PROC
EXTRN	?g_ExLicense@@3VCExLicense@@A:BYTE		; g_ExLicense
EXTRN	___security_cookie:DWORD
EXTRN	@__security_check_cookie@4:PROC
;	COMDAT ??_C@_0BI@HDMMBKBM@?$CFd?5?$CFd?5?$CFd?5?$CFd?5?$CFd?5?$CFd?5?$CFd?5?$CFd?$AA@
; File d:\projects\exteam6.3\source\gameserver\gameserver\bloodhound.cpp
CONST	SEGMENT
??_C@_0BI@HDMMBKBM@?$CFd?5?$CFd?5?$CFd?5?$CFd?5?$CFd?5?$CFd?5?$CFd?5?$CFd?$AA@ DB '%'
	DB	'd %d %d %d %d %d %d %d', 00H		; `string'
CONST	ENDS
;	COMDAT ??_C@_02DKCKIIND@?$CFs?$AA@
CONST	SEGMENT
??_C@_02DKCKIIND@?$CFs?$AA@ DB '%s', 00H		; `string'
CONST	ENDS
;	COMDAT ??_C@_0BE@JNJNPECB@?$CFd?5?$CFd?5?$CFd?5?$CFd?5?$CC?$CF?$FL?$FO?$CC?$FN?$CC?$AA@
CONST	SEGMENT
??_C@_0BE@JNJNPECB@?$CFd?5?$CFd?5?$CFd?5?$CFd?5?$CC?$CF?$FL?$FO?$CC?$FN?$CC?$AA@ DB '%'
	DB	'd %d %d %d "%[^"]"', 00H			; `string'
CONST	ENDS
;	COMDAT ??_C@_05OKMLJOMC@?$CFd?5?$CFd?$AA@
CONST	SEGMENT
??_C@_05OKMLJOMC@?$CFd?5?$CFd?$AA@ DB '%d %d', 00H	; `string'
CONST	ENDS
;	COMDAT ??_C@_0BA@PIOFNAIM@LOAD?5FILE?5ERROR?$AA@
CONST	SEGMENT
??_C@_0BA@PIOFNAIM@LOAD?5FILE?5ERROR?$AA@ DB 'LOAD FILE ERROR', 00H ; `string'
CONST	ENDS
;	COMDAT ??_C@_01KDCPPGHE@r?$AA@
CONST	SEGMENT
??_C@_01KDCPPGHE@r?$AA@ DB 'r', 00H			; `string'
CONST	ENDS
;	COMDAT ??_C@_09OHFGCBJB@EventTime?$AA@
CONST	SEGMENT
??_C@_09OHFGCBJB@EventTime?$AA@ DB 'EventTime', 00H	; `string'
CONST	ENDS
;	COMDAT ??_C@_05MGEEICMI@NPC_Y?$AA@
CONST	SEGMENT
??_C@_05MGEEICMI@NPC_Y?$AA@ DB 'NPC_Y', 00H		; `string'
CONST	ENDS
;	COMDAT ??_C@_05NPFPLDIJ@NPC_X?$AA@
CONST	SEGMENT
??_C@_05NPFPLDIJ@NPC_X?$AA@ DB 'NPC_X', 00H		; `string'
CONST	ENDS
;	COMDAT ??_C@_07LJMEGBCH@NPC_Map?$AA@
CONST	SEGMENT
??_C@_07LJMEGBCH@NPC_Map?$AA@ DB 'NPC_Map', 00H		; `string'
CONST	ENDS
;	COMDAT ??_C@_03BCJIDNJL@NPC?$AA@
CONST	SEGMENT
??_C@_03BCJIDNJL@NPC?$AA@ DB 'NPC', 00H			; `string'
CONST	ENDS
;	COMDAT ??_C@_06POMJKEPM@Common?$AA@
CONST	SEGMENT
??_C@_06POMJKEPM@Common?$AA@ DB 'Common', 00H		; `string'
CONST	ENDS
;	COMDAT ??_C@_06CKGENIKG@Enable?$AA@
CONST	SEGMENT
??_C@_06CKGENIKG@Enable?$AA@ DB 'Enable', 00H		; `string'
CONST	ENDS
;	COMDAT ??_C@_0CK@DEOJOBDC@?4?4?2Data?2ExData?2Events?2BloodHound@
CONST	SEGMENT
??_C@_0CK@DEOJOBDC@?4?4?2Data?2ExData?2Events?2BloodHound@ DB '..\Data\Ex'
	DB	'Data\Events\BloodHoundEvent.ini', 00H	; `string'
; Function compile flags: /Odtp /ZI
CONST	ENDS
_TEXT	SEGMENT
_n$220085 = -392					; size = 32
_ItemName$220081 = -360					; size = 50
_n$220080 = -308					; size = 20
_n$220077 = -288					; size = 12
_Flag$ = -276						; size = 4
_Buff$ = -272						; size = 256
_file$ = -16						; size = 4
_i$220053 = -12						; size = 4
_this$ = -8						; size = 4
__$ArrayPad$ = -4					; size = 4
?ReedConfig@cBloodHound@@QAEXXZ PROC			; cBloodHound::ReedConfig
; _this$ = ecx

; 21   : {

  00000	55		 push	 ebp
  00001	8b ec		 mov	 ebp, esp
  00003	81 ec c8 01 00
	00		 sub	 esp, 456		; 000001c8H
  00009	a1 00 00 00 00	 mov	 eax, DWORD PTR ___security_cookie
  0000e	33 c5		 xor	 eax, ebp
  00010	89 45 fc	 mov	 DWORD PTR __$ArrayPad$[ebp], eax
  00013	53		 push	 ebx
  00014	56		 push	 esi
  00015	57		 push	 edi
  00016	89 4d f8	 mov	 DWORD PTR _this$[ebp], ecx

; 22   : 	for (int i=0;i<MAX_ITEMS_BH;i++)

  00019	c7 45 f4 00 00
	00 00		 mov	 DWORD PTR _i$220053[ebp], 0
  00020	eb 09		 jmp	 SHORT $LN11@ReedConfig
$LN10@ReedConfig:
  00022	8b 45 f4	 mov	 eax, DWORD PTR _i$220053[ebp]
  00025	83 c0 01	 add	 eax, 1
  00028	89 45 f4	 mov	 DWORD PTR _i$220053[ebp], eax
$LN11@ReedConfig:
  0002b	83 7d f4 64	 cmp	 DWORD PTR _i$220053[ebp], 100 ; 00000064H
  0002f	0f 8d 17 01 00
	00		 jge	 $LN9@ReedConfig

; 23   : 	{
; 24   : 		sTime[i].Hour = 0;

  00035	8b 45 f4	 mov	 eax, DWORD PTR _i$220053[ebp]
  00038	8b 4d f8	 mov	 ecx, DWORD PTR _this$[ebp]
  0003b	c7 84 c1 80 90
	0f 00 00 00 00
	00		 mov	 DWORD PTR [ecx+eax*8+1020032], 0

; 25   : 		sTime[i].Minute = 0;

  00046	8b 45 f4	 mov	 eax, DWORD PTR _i$220053[ebp]
  00049	8b 4d f8	 mov	 ecx, DWORD PTR _this$[ebp]
  0004c	c7 84 c1 84 90
	0f 00 00 00 00
	00		 mov	 DWORD PTR [ecx+eax*8+1020036], 0

; 26   : 
; 27   : 		sItem[i].Type = 0;

  00057	8b 45 f4	 mov	 eax, DWORD PTR _i$220053[ebp]
  0005a	6b c0 44	 imul	 eax, 68			; 00000044H
  0005d	8b 4d f8	 mov	 ecx, DWORD PTR _this$[ebp]
  00060	c7 84 01 a4 93
	0f 00 00 00 00
	00		 mov	 DWORD PTR [ecx+eax+1020836], 0

; 28   : 		sItem[i].Index = 0;

  0006b	8b 45 f4	 mov	 eax, DWORD PTR _i$220053[ebp]
  0006e	6b c0 44	 imul	 eax, 68			; 00000044H
  00071	8b 4d f8	 mov	 ecx, DWORD PTR _this$[ebp]
  00074	c7 84 01 a8 93
	0f 00 00 00 00
	00		 mov	 DWORD PTR [ecx+eax+1020840], 0

; 29   : 		sItem[i].Level = 0;

  0007f	8b 45 f4	 mov	 eax, DWORD PTR _i$220053[ebp]
  00082	6b c0 44	 imul	 eax, 68			; 00000044H
  00085	8b 4d f8	 mov	 ecx, DWORD PTR _this$[ebp]
  00088	c7 84 01 ac 93
	0f 00 00 00 00
	00		 mov	 DWORD PTR [ecx+eax+1020844], 0

; 30   : 		sItem[i].Count = 0;

  00093	8b 45 f4	 mov	 eax, DWORD PTR _i$220053[ebp]
  00096	6b c0 44	 imul	 eax, 68			; 00000044H
  00099	8b 4d f8	 mov	 ecx, DWORD PTR _this$[ebp]
  0009c	c7 84 01 b0 93
	0f 00 00 00 00
	00		 mov	 DWORD PTR [ecx+eax+1020848], 0

; 31   : 
; 32   : 		iReward[i].Type = 0;

  000a7	8b 45 f4	 mov	 eax, DWORD PTR _i$220053[ebp]
  000aa	c1 e0 05	 shl	 eax, 5
  000ad	8b 4d f8	 mov	 ecx, DWORD PTR _this$[ebp]
  000b0	c7 84 01 38 ae
	0f 00 00 00 00
	00		 mov	 DWORD PTR [ecx+eax+1027640], 0

; 33   : 		iReward[i].Index = 0;

  000bb	8b 45 f4	 mov	 eax, DWORD PTR _i$220053[ebp]
  000be	c1 e0 05	 shl	 eax, 5
  000c1	8b 4d f8	 mov	 ecx, DWORD PTR _this$[ebp]
  000c4	c7 84 01 3c ae
	0f 00 00 00 00
	00		 mov	 DWORD PTR [ecx+eax+1027644], 0

; 34   : 		iReward[i].Level = 0;

  000cf	8b 45 f4	 mov	 eax, DWORD PTR _i$220053[ebp]
  000d2	c1 e0 05	 shl	 eax, 5
  000d5	8b 4d f8	 mov	 ecx, DWORD PTR _this$[ebp]
  000d8	c7 84 01 40 ae
	0f 00 00 00 00
	00		 mov	 DWORD PTR [ecx+eax+1027648], 0

; 35   : 		iReward[i].Skill = 0;

  000e3	8b 45 f4	 mov	 eax, DWORD PTR _i$220053[ebp]
  000e6	c1 e0 05	 shl	 eax, 5
  000e9	8b 4d f8	 mov	 ecx, DWORD PTR _this$[ebp]
  000ec	c7 84 01 44 ae
	0f 00 00 00 00
	00		 mov	 DWORD PTR [ecx+eax+1027652], 0

; 36   : 		iReward[i].Luck = 0;

  000f7	8b 45 f4	 mov	 eax, DWORD PTR _i$220053[ebp]
  000fa	c1 e0 05	 shl	 eax, 5
  000fd	8b 4d f8	 mov	 ecx, DWORD PTR _this$[ebp]
  00100	c7 84 01 48 ae
	0f 00 00 00 00
	00		 mov	 DWORD PTR [ecx+eax+1027656], 0

; 37   : 		iReward[i].Opt = 0;

  0010b	8b 45 f4	 mov	 eax, DWORD PTR _i$220053[ebp]
  0010e	c1 e0 05	 shl	 eax, 5
  00111	8b 4d f8	 mov	 ecx, DWORD PTR _this$[ebp]
  00114	c7 84 01 4c ae
	0f 00 00 00 00
	00		 mov	 DWORD PTR [ecx+eax+1027660], 0

; 38   : 		iReward[i].Exl = 0;

  0011f	8b 45 f4	 mov	 eax, DWORD PTR _i$220053[ebp]
  00122	c1 e0 05	 shl	 eax, 5
  00125	8b 4d f8	 mov	 ecx, DWORD PTR _this$[ebp]
  00128	c7 84 01 50 ae
	0f 00 00 00 00
	00		 mov	 DWORD PTR [ecx+eax+1027664], 0

; 39   : 		iReward[i].Anc = 0;

  00133	8b 45 f4	 mov	 eax, DWORD PTR _i$220053[ebp]
  00136	c1 e0 05	 shl	 eax, 5
  00139	8b 4d f8	 mov	 ecx, DWORD PTR _this$[ebp]
  0013c	c7 84 01 54 ae
	0f 00 00 00 00
	00		 mov	 DWORD PTR [ecx+eax+1027668], 0

; 40   : 	}

  00147	e9 d6 fe ff ff	 jmp	 $LN10@ReedConfig
$LN9@ReedConfig:

; 41   : 
; 42   : 	this->Enable = 0;

  0014c	8b 45 f8	 mov	 eax, DWORD PTR _this$[ebp]
  0014f	c7 00 00 00 00
	00		 mov	 DWORD PTR [eax], 0

; 43   : 
; 44   : 	if(!g_ExLicense.user.BloodHound)

  00155	0f b6 05 cb 00
	00 00		 movzx	 eax, BYTE PTR ?g_ExLicense@@3VCExLicense@@A+203
  0015c	85 c0		 test	 eax, eax
  0015e	75 05		 jne	 SHORT $LN8@ReedConfig

; 45   : 	{
; 46   : 		return;

  00160	e9 29 04 00 00	 jmp	 $LN12@ReedConfig
$LN8@ReedConfig:

; 47   : 	}
; 48   : 
; 49   : 	this->Enable = GetPrivateProfileInt("Common","Enable",0,BLOODHOND_DIR);

  00165	68 00 00 00 00	 push	 OFFSET ??_C@_0CK@DEOJOBDC@?4?4?2Data?2ExData?2Events?2BloodHound@
  0016a	6a 00		 push	 0
  0016c	68 00 00 00 00	 push	 OFFSET ??_C@_06CKGENIKG@Enable?$AA@
  00171	68 00 00 00 00	 push	 OFFSET ??_C@_06POMJKEPM@Common?$AA@
  00176	ff 15 00 00 00
	00		 call	 DWORD PTR __imp__GetPrivateProfileIntA@16
  0017c	8b 4d f8	 mov	 ecx, DWORD PTR _this$[ebp]
  0017f	89 01		 mov	 DWORD PTR [ecx], eax

; 50   : 	this->NPC = GetPrivateProfileInt("Common","NPC",0,BLOODHOND_DIR);

  00181	68 00 00 00 00	 push	 OFFSET ??_C@_0CK@DEOJOBDC@?4?4?2Data?2ExData?2Events?2BloodHound@
  00186	6a 00		 push	 0
  00188	68 00 00 00 00	 push	 OFFSET ??_C@_03BCJIDNJL@NPC?$AA@
  0018d	68 00 00 00 00	 push	 OFFSET ??_C@_06POMJKEPM@Common?$AA@
  00192	ff 15 00 00 00
	00		 call	 DWORD PTR __imp__GetPrivateProfileIntA@16
  00198	8b 4d f8	 mov	 ecx, DWORD PTR _this$[ebp]
  0019b	89 41 04	 mov	 DWORD PTR [ecx+4], eax

; 51   : 	this->NPC_Map = GetPrivateProfileInt("Common","NPC_Map",0,BLOODHOND_DIR);

  0019e	68 00 00 00 00	 push	 OFFSET ??_C@_0CK@DEOJOBDC@?4?4?2Data?2ExData?2Events?2BloodHound@
  001a3	6a 00		 push	 0
  001a5	68 00 00 00 00	 push	 OFFSET ??_C@_07LJMEGBCH@NPC_Map?$AA@
  001aa	68 00 00 00 00	 push	 OFFSET ??_C@_06POMJKEPM@Common?$AA@
  001af	ff 15 00 00 00
	00		 call	 DWORD PTR __imp__GetPrivateProfileIntA@16
  001b5	8b 4d f8	 mov	 ecx, DWORD PTR _this$[ebp]
  001b8	89 41 10	 mov	 DWORD PTR [ecx+16], eax

; 52   : 	this->NPC_X = GetPrivateProfileInt("Common","NPC_X",0,BLOODHOND_DIR);

  001bb	68 00 00 00 00	 push	 OFFSET ??_C@_0CK@DEOJOBDC@?4?4?2Data?2ExData?2Events?2BloodHound@
  001c0	6a 00		 push	 0
  001c2	68 00 00 00 00	 push	 OFFSET ??_C@_05NPFPLDIJ@NPC_X?$AA@
  001c7	68 00 00 00 00	 push	 OFFSET ??_C@_06POMJKEPM@Common?$AA@
  001cc	ff 15 00 00 00
	00		 call	 DWORD PTR __imp__GetPrivateProfileIntA@16
  001d2	8b 4d f8	 mov	 ecx, DWORD PTR _this$[ebp]
  001d5	89 41 08	 mov	 DWORD PTR [ecx+8], eax

; 53   : 	this->NPC_Y = GetPrivateProfileInt("Common","NPC_Y",0,BLOODHOND_DIR);

  001d8	68 00 00 00 00	 push	 OFFSET ??_C@_0CK@DEOJOBDC@?4?4?2Data?2ExData?2Events?2BloodHound@
  001dd	6a 00		 push	 0
  001df	68 00 00 00 00	 push	 OFFSET ??_C@_05MGEEICMI@NPC_Y?$AA@
  001e4	68 00 00 00 00	 push	 OFFSET ??_C@_06POMJKEPM@Common?$AA@
  001e9	ff 15 00 00 00
	00		 call	 DWORD PTR __imp__GetPrivateProfileIntA@16
  001ef	8b 4d f8	 mov	 ecx, DWORD PTR _this$[ebp]
  001f2	89 41 0c	 mov	 DWORD PTR [ecx+12], eax

; 54   : 
; 55   : 	this->EventTime = GetPrivateProfileInt("Common","EventTime",0,BLOODHOND_DIR);

  001f5	68 00 00 00 00	 push	 OFFSET ??_C@_0CK@DEOJOBDC@?4?4?2Data?2ExData?2Events?2BloodHound@
  001fa	6a 00		 push	 0
  001fc	68 00 00 00 00	 push	 OFFSET ??_C@_09OHFGCBJB@EventTime?$AA@
  00201	68 00 00 00 00	 push	 OFFSET ??_C@_06POMJKEPM@Common?$AA@
  00206	ff 15 00 00 00
	00		 call	 DWORD PTR __imp__GetPrivateProfileIntA@16
  0020c	8b 4d f8	 mov	 ecx, DWORD PTR _this$[ebp]
  0020f	89 41 14	 mov	 DWORD PTR [ecx+20], eax

; 56   : 
; 57   : 	this->StartEvent = false;

  00212	8b 45 f8	 mov	 eax, DWORD PTR _this$[ebp]
  00215	c6 40 18 00	 mov	 BYTE PTR [eax+24], 0

; 58   : 
; 59   : 	FILE *file;
; 60   : 	file = fopen(BLOODHOND_DIR,"r");

  00219	68 00 00 00 00	 push	 OFFSET ??_C@_01KDCPPGHE@r?$AA@
  0021e	68 00 00 00 00	 push	 OFFSET ??_C@_0CK@DEOJOBDC@?4?4?2Data?2ExData?2Events?2BloodHound@
  00223	e8 00 00 00 00	 call	 _fopen
  00228	83 c4 08	 add	 esp, 8
  0022b	89 45 f0	 mov	 DWORD PTR _file$[ebp], eax

; 61   : 	if(file == NULL)

  0022e	83 7d f0 00	 cmp	 DWORD PTR _file$[ebp], 0
  00232	75 19		 jne	 SHORT $LN7@ReedConfig

; 62   : 	{
; 63   : 		MessageBoxA(0,BLOODHOND_DIR,"LOAD FILE ERROR",0);

  00234	6a 00		 push	 0
  00236	68 00 00 00 00	 push	 OFFSET ??_C@_0BA@PIOFNAIM@LOAD?5FILE?5ERROR?$AA@
  0023b	68 00 00 00 00	 push	 OFFSET ??_C@_0CK@DEOJOBDC@?4?4?2Data?2ExData?2Events?2BloodHound@
  00240	6a 00		 push	 0
  00242	ff 15 00 00 00
	00		 call	 DWORD PTR __imp__MessageBoxA@16

; 64   : 		//ExitProcess(1);
; 65   : 		return;

  00248	e9 41 03 00 00	 jmp	 $LN12@ReedConfig
$LN7@ReedConfig:

; 66   : 	}
; 67   : 	char Buff[256];
; 68   : 	int Flag = 0;

  0024d	c7 85 ec fe ff
	ff 00 00 00 00	 mov	 DWORD PTR _Flag$[ebp], 0

; 69   : 
; 70   : 	this->tCount = 0;

  00257	8b 45 f8	 mov	 eax, DWORD PTR _this$[ebp]
  0025a	c7 80 a0 93 0f
	00 00 00 00 00	 mov	 DWORD PTR [eax+1020832], 0

; 71   : 	this->sCount = 0;

  00264	8b 45 f8	 mov	 eax, DWORD PTR _this$[ebp]
  00267	c7 80 34 ae 0f
	00 00 00 00 00	 mov	 DWORD PTR [eax+1027636], 0

; 72   : 	this->rCount = 0;

  00271	8b 45 f8	 mov	 eax, DWORD PTR _this$[ebp]
  00274	c7 80 b8 ba 0f
	00 00 00 00 00	 mov	 DWORD PTR [eax+1030840], 0
$LN6@ReedConfig:

; 73   : 
; 74   : 	while(!feof(file)) // Проверяем есть ли строка в документе

  0027e	8b 45 f0	 mov	 eax, DWORD PTR _file$[ebp]
  00281	50		 push	 eax
  00282	e8 00 00 00 00	 call	 _feof
  00287	83 c4 04	 add	 esp, 4
  0028a	85 c0		 test	 eax, eax
  0028c	0f 85 f0 02 00
	00		 jne	 $LN5@ReedConfig

; 75   : 	{
; 76   : 		fgets(Buff,256,file);//Функция читает текущую строку

  00292	8b 45 f0	 mov	 eax, DWORD PTR _file$[ebp]
  00295	50		 push	 eax
  00296	68 00 01 00 00	 push	 256			; 00000100H
  0029b	8d 8d f0 fe ff
	ff		 lea	 ecx, DWORD PTR _Buff$[ebp]
  002a1	51		 push	 ecx
  002a2	e8 00 00 00 00	 call	 _fgets
  002a7	83 c4 0c	 add	 esp, 12			; 0000000cH

; 77   : 		if(Ex_IsBadFileLine(Buff, Flag)) //Вспомогательная функция

  002aa	8d 85 ec fe ff
	ff		 lea	 eax, DWORD PTR _Flag$[ebp]
  002b0	50		 push	 eax
  002b1	8d 8d f0 fe ff
	ff		 lea	 ecx, DWORD PTR _Buff$[ebp]
  002b7	51		 push	 ecx
  002b8	e8 00 00 00 00	 call	 ?Ex_IsBadFileLine@@YA_NPADAAH@Z ; Ex_IsBadFileLine
  002bd	83 c4 08	 add	 esp, 8
  002c0	0f b6 d0	 movzx	 edx, al
  002c3	85 d2		 test	 edx, edx
  002c5	74 02		 je	 SHORT $LN4@ReedConfig

; 78   : 			continue;

  002c7	eb b5		 jmp	 SHORT $LN6@ReedConfig
$LN4@ReedConfig:

; 79   : 		if(Flag == 1)

  002c9	83 bd ec fe ff
	ff 01		 cmp	 DWORD PTR _Flag$[ebp], 1
  002d0	75 69		 jne	 SHORT $LN3@ReedConfig

; 80   : 		{
; 81   : 			int n[3];
; 82   : 			sscanf(Buff,"%d %d",&n[0],&n[1]);

  002d2	8d 85 e4 fe ff
	ff		 lea	 eax, DWORD PTR _n$220077[ebp+4]
  002d8	50		 push	 eax
  002d9	8d 8d e0 fe ff
	ff		 lea	 ecx, DWORD PTR _n$220077[ebp]
  002df	51		 push	 ecx
  002e0	68 00 00 00 00	 push	 OFFSET ??_C@_05OKMLJOMC@?$CFd?5?$CFd?$AA@
  002e5	8d 95 f0 fe ff
	ff		 lea	 edx, DWORD PTR _Buff$[ebp]
  002eb	52		 push	 edx
  002ec	e8 00 00 00 00	 call	 _sscanf
  002f1	83 c4 10	 add	 esp, 16			; 00000010H

; 83   : 			this->sTime[this->tCount].Hour = n[0];

  002f4	8b 45 f8	 mov	 eax, DWORD PTR _this$[ebp]
  002f7	8b 88 a0 93 0f
	00		 mov	 ecx, DWORD PTR [eax+1020832]
  002fd	8b 55 f8	 mov	 edx, DWORD PTR _this$[ebp]
  00300	8b 85 e0 fe ff
	ff		 mov	 eax, DWORD PTR _n$220077[ebp]
  00306	89 84 ca 80 90
	0f 00		 mov	 DWORD PTR [edx+ecx*8+1020032], eax

; 84   : 			this->sTime[this->tCount].Minute = n[1];

  0030d	8b 45 f8	 mov	 eax, DWORD PTR _this$[ebp]
  00310	8b 88 a0 93 0f
	00		 mov	 ecx, DWORD PTR [eax+1020832]
  00316	8b 55 f8	 mov	 edx, DWORD PTR _this$[ebp]
  00319	8b 85 e4 fe ff
	ff		 mov	 eax, DWORD PTR _n$220077[ebp+4]
  0031f	89 84 ca 84 90
	0f 00		 mov	 DWORD PTR [edx+ecx*8+1020036], eax

; 85   : 			this->tCount++;

  00326	8b 45 f8	 mov	 eax, DWORD PTR _this$[ebp]
  00329	8b 88 a0 93 0f
	00		 mov	 ecx, DWORD PTR [eax+1020832]
  0032f	83 c1 01	 add	 ecx, 1
  00332	8b 55 f8	 mov	 edx, DWORD PTR _this$[ebp]
  00335	89 8a a0 93 0f
	00		 mov	 DWORD PTR [edx+1020832], ecx
$LN3@ReedConfig:

; 86   : 		}
; 87   : 		if(Flag == 2)

  0033b	83 bd ec fe ff
	ff 02		 cmp	 DWORD PTR _Flag$[ebp], 2
  00342	0f 85 e7 00 00
	00		 jne	 $LN2@ReedConfig

; 88   : 		{
; 89   : 			int n[5];
; 90   : 			char ItemName[50];
; 91   : 			sscanf(Buff,"%d %d %d %d \"%[^\"]\"",&n[0],&n[1],&n[2],&n[3],&ItemName);

  00348	8d 85 98 fe ff
	ff		 lea	 eax, DWORD PTR _ItemName$220081[ebp]
  0034e	50		 push	 eax
  0034f	8d 8d d8 fe ff
	ff		 lea	 ecx, DWORD PTR _n$220080[ebp+12]
  00355	51		 push	 ecx
  00356	8d 95 d4 fe ff
	ff		 lea	 edx, DWORD PTR _n$220080[ebp+8]
  0035c	52		 push	 edx
  0035d	8d 85 d0 fe ff
	ff		 lea	 eax, DWORD PTR _n$220080[ebp+4]
  00363	50		 push	 eax
  00364	8d 8d cc fe ff
	ff		 lea	 ecx, DWORD PTR _n$220080[ebp]
  0036a	51		 push	 ecx
  0036b	68 00 00 00 00	 push	 OFFSET ??_C@_0BE@JNJNPECB@?$CFd?5?$CFd?5?$CFd?5?$CFd?5?$CC?$CF?$FL?$FO?$CC?$FN?$CC?$AA@
  00370	8d 95 f0 fe ff
	ff		 lea	 edx, DWORD PTR _Buff$[ebp]
  00376	52		 push	 edx
  00377	e8 00 00 00 00	 call	 _sscanf
  0037c	83 c4 1c	 add	 esp, 28			; 0000001cH

; 92   : 			this->sItem[this->sCount].Type  = n[0];

  0037f	8b 45 f8	 mov	 eax, DWORD PTR _this$[ebp]
  00382	8b 88 34 ae 0f
	00		 mov	 ecx, DWORD PTR [eax+1027636]
  00388	6b c9 44	 imul	 ecx, 68			; 00000044H
  0038b	8b 55 f8	 mov	 edx, DWORD PTR _this$[ebp]
  0038e	8b 85 cc fe ff
	ff		 mov	 eax, DWORD PTR _n$220080[ebp]
  00394	89 84 0a a4 93
	0f 00		 mov	 DWORD PTR [edx+ecx+1020836], eax

; 93   : 			this->sItem[this->sCount].Index = n[1];

  0039b	8b 45 f8	 mov	 eax, DWORD PTR _this$[ebp]
  0039e	8b 88 34 ae 0f
	00		 mov	 ecx, DWORD PTR [eax+1027636]
  003a4	6b c9 44	 imul	 ecx, 68			; 00000044H
  003a7	8b 55 f8	 mov	 edx, DWORD PTR _this$[ebp]
  003aa	8b 85 d0 fe ff
	ff		 mov	 eax, DWORD PTR _n$220080[ebp+4]
  003b0	89 84 0a a8 93
	0f 00		 mov	 DWORD PTR [edx+ecx+1020840], eax

; 94   : 			this->sItem[this->sCount].Level = n[2];

  003b7	8b 45 f8	 mov	 eax, DWORD PTR _this$[ebp]
  003ba	8b 88 34 ae 0f
	00		 mov	 ecx, DWORD PTR [eax+1027636]
  003c0	6b c9 44	 imul	 ecx, 68			; 00000044H
  003c3	8b 55 f8	 mov	 edx, DWORD PTR _this$[ebp]
  003c6	8b 85 d4 fe ff
	ff		 mov	 eax, DWORD PTR _n$220080[ebp+8]
  003cc	89 84 0a ac 93
	0f 00		 mov	 DWORD PTR [edx+ecx+1020844], eax

; 95   : 			this->sItem[this->sCount].Count  = n[3];

  003d3	8b 45 f8	 mov	 eax, DWORD PTR _this$[ebp]
  003d6	8b 88 34 ae 0f
	00		 mov	 ecx, DWORD PTR [eax+1027636]
  003dc	6b c9 44	 imul	 ecx, 68			; 00000044H
  003df	8b 55 f8	 mov	 edx, DWORD PTR _this$[ebp]
  003e2	8b 85 d8 fe ff
	ff		 mov	 eax, DWORD PTR _n$220080[ebp+12]
  003e8	89 84 0a b0 93
	0f 00		 mov	 DWORD PTR [edx+ecx+1020848], eax

; 96   : 			sprintf(this->sItem[this->sCount].Name,"%s",ItemName);

  003ef	8d 85 98 fe ff
	ff		 lea	 eax, DWORD PTR _ItemName$220081[ebp]
  003f5	50		 push	 eax
  003f6	68 00 00 00 00	 push	 OFFSET ??_C@_02DKCKIIND@?$CFs?$AA@
  003fb	8b 4d f8	 mov	 ecx, DWORD PTR _this$[ebp]
  003fe	8b 91 34 ae 0f
	00		 mov	 edx, DWORD PTR [ecx+1027636]
  00404	6b d2 44	 imul	 edx, 68			; 00000044H
  00407	8b 45 f8	 mov	 eax, DWORD PTR _this$[ebp]
  0040a	8d 8c 10 b4 93
	0f 00		 lea	 ecx, DWORD PTR [eax+edx+1020852]
  00411	51		 push	 ecx
  00412	e8 00 00 00 00	 call	 _sprintf
  00417	83 c4 0c	 add	 esp, 12			; 0000000cH

; 97   : 			this->sCount++;

  0041a	8b 45 f8	 mov	 eax, DWORD PTR _this$[ebp]
  0041d	8b 88 34 ae 0f
	00		 mov	 ecx, DWORD PTR [eax+1027636]
  00423	83 c1 01	 add	 ecx, 1
  00426	8b 55 f8	 mov	 edx, DWORD PTR _this$[ebp]
  00429	89 8a 34 ae 0f
	00		 mov	 DWORD PTR [edx+1027636], ecx
$LN2@ReedConfig:

; 98   : 		}
; 99   : 		if(Flag == 3)

  0042f	83 bd ec fe ff
	ff 03		 cmp	 DWORD PTR _Flag$[ebp], 3
  00436	0f 85 41 01 00
	00		 jne	 $LN1@ReedConfig

; 100  : 		{
; 101  : 			int n[8];
; 102  : 			sscanf(Buff,"%d %d %d %d %d %d %d %d",&n[0],&n[1],&n[2],&n[3],&n[4],&n[5],&n[6],&n[7]);

  0043c	8d 85 94 fe ff
	ff		 lea	 eax, DWORD PTR _n$220085[ebp+28]
  00442	50		 push	 eax
  00443	8d 8d 90 fe ff
	ff		 lea	 ecx, DWORD PTR _n$220085[ebp+24]
  00449	51		 push	 ecx
  0044a	8d 95 8c fe ff
	ff		 lea	 edx, DWORD PTR _n$220085[ebp+20]
  00450	52		 push	 edx
  00451	8d 85 88 fe ff
	ff		 lea	 eax, DWORD PTR _n$220085[ebp+16]
  00457	50		 push	 eax
  00458	8d 8d 84 fe ff
	ff		 lea	 ecx, DWORD PTR _n$220085[ebp+12]
  0045e	51		 push	 ecx
  0045f	8d 95 80 fe ff
	ff		 lea	 edx, DWORD PTR _n$220085[ebp+8]
  00465	52		 push	 edx
  00466	8d 85 7c fe ff
	ff		 lea	 eax, DWORD PTR _n$220085[ebp+4]
  0046c	50		 push	 eax
  0046d	8d 8d 78 fe ff
	ff		 lea	 ecx, DWORD PTR _n$220085[ebp]
  00473	51		 push	 ecx
  00474	68 00 00 00 00	 push	 OFFSET ??_C@_0BI@HDMMBKBM@?$CFd?5?$CFd?5?$CFd?5?$CFd?5?$CFd?5?$CFd?5?$CFd?5?$CFd?$AA@
  00479	8d 95 f0 fe ff
	ff		 lea	 edx, DWORD PTR _Buff$[ebp]
  0047f	52		 push	 edx
  00480	e8 00 00 00 00	 call	 _sscanf
  00485	83 c4 28	 add	 esp, 40			; 00000028H

; 103  : 			this->iReward[this->rCount].Type= n[0];

  00488	8b 45 f8	 mov	 eax, DWORD PTR _this$[ebp]
  0048b	8b 88 b8 ba 0f
	00		 mov	 ecx, DWORD PTR [eax+1030840]
  00491	c1 e1 05	 shl	 ecx, 5
  00494	8b 55 f8	 mov	 edx, DWORD PTR _this$[ebp]
  00497	8b 85 78 fe ff
	ff		 mov	 eax, DWORD PTR _n$220085[ebp]
  0049d	89 84 0a 38 ae
	0f 00		 mov	 DWORD PTR [edx+ecx+1027640], eax

; 104  : 			this->iReward[this->rCount].Index = n[1];

  004a4	8b 45 f8	 mov	 eax, DWORD PTR _this$[ebp]
  004a7	8b 88 b8 ba 0f
	00		 mov	 ecx, DWORD PTR [eax+1030840]
  004ad	c1 e1 05	 shl	 ecx, 5
  004b0	8b 55 f8	 mov	 edx, DWORD PTR _this$[ebp]
  004b3	8b 85 7c fe ff
	ff		 mov	 eax, DWORD PTR _n$220085[ebp+4]
  004b9	89 84 0a 3c ae
	0f 00		 mov	 DWORD PTR [edx+ecx+1027644], eax

; 105  : 			this->iReward[this->rCount].Level = n[2];

  004c0	8b 45 f8	 mov	 eax, DWORD PTR _this$[ebp]
  004c3	8b 88 b8 ba 0f
	00		 mov	 ecx, DWORD PTR [eax+1030840]
  004c9	c1 e1 05	 shl	 ecx, 5
  004cc	8b 55 f8	 mov	 edx, DWORD PTR _this$[ebp]
  004cf	8b 85 80 fe ff
	ff		 mov	 eax, DWORD PTR _n$220085[ebp+8]
  004d5	89 84 0a 40 ae
	0f 00		 mov	 DWORD PTR [edx+ecx+1027648], eax

; 106  : 			this->iReward[this->rCount].Skill = n[3];

  004dc	8b 45 f8	 mov	 eax, DWORD PTR _this$[ebp]
  004df	8b 88 b8 ba 0f
	00		 mov	 ecx, DWORD PTR [eax+1030840]
  004e5	c1 e1 05	 shl	 ecx, 5
  004e8	8b 55 f8	 mov	 edx, DWORD PTR _this$[ebp]
  004eb	8b 85 84 fe ff
	ff		 mov	 eax, DWORD PTR _n$220085[ebp+12]
  004f1	89 84 0a 44 ae
	0f 00		 mov	 DWORD PTR [edx+ecx+1027652], eax

; 107  : 			this->iReward[this->rCount].Luck = n[4];

  004f8	8b 45 f8	 mov	 eax, DWORD PTR _this$[ebp]
  004fb	8b 88 b8 ba 0f
	00		 mov	 ecx, DWORD PTR [eax+1030840]
  00501	c1 e1 05	 shl	 ecx, 5
  00504	8b 55 f8	 mov	 edx, DWORD PTR _this$[ebp]
  00507	8b 85 88 fe ff
	ff		 mov	 eax, DWORD PTR _n$220085[ebp+16]
  0050d	89 84 0a 48 ae
	0f 00		 mov	 DWORD PTR [edx+ecx+1027656], eax

; 108  : 			this->iReward[this->rCount].Opt = n[5];

  00514	8b 45 f8	 mov	 eax, DWORD PTR _this$[ebp]
  00517	8b 88 b8 ba 0f
	00		 mov	 ecx, DWORD PTR [eax+1030840]
  0051d	c1 e1 05	 shl	 ecx, 5
  00520	8b 55 f8	 mov	 edx, DWORD PTR _this$[ebp]
  00523	8b 85 8c fe ff
	ff		 mov	 eax, DWORD PTR _n$220085[ebp+20]
  00529	89 84 0a 4c ae
	0f 00		 mov	 DWORD PTR [edx+ecx+1027660], eax

; 109  : 			this->iReward[this->rCount].Exl = n[6];

  00530	8b 45 f8	 mov	 eax, DWORD PTR _this$[ebp]
  00533	8b 88 b8 ba 0f
	00		 mov	 ecx, DWORD PTR [eax+1030840]
  00539	c1 e1 05	 shl	 ecx, 5
  0053c	8b 55 f8	 mov	 edx, DWORD PTR _this$[ebp]
  0053f	8b 85 90 fe ff
	ff		 mov	 eax, DWORD PTR _n$220085[ebp+24]
  00545	89 84 0a 50 ae
	0f 00		 mov	 DWORD PTR [edx+ecx+1027664], eax

; 110  : 			this->iReward[this->rCount].Anc = n[7];

  0054c	8b 45 f8	 mov	 eax, DWORD PTR _this$[ebp]
  0054f	8b 88 b8 ba 0f
	00		 mov	 ecx, DWORD PTR [eax+1030840]
  00555	c1 e1 05	 shl	 ecx, 5
  00558	8b 55 f8	 mov	 edx, DWORD PTR _this$[ebp]
  0055b	8b 85 94 fe ff
	ff		 mov	 eax, DWORD PTR _n$220085[ebp+28]
  00561	89 84 0a 54 ae
	0f 00		 mov	 DWORD PTR [edx+ecx+1027668], eax

; 111  : 			this->rCount++;

  00568	8b 45 f8	 mov	 eax, DWORD PTR _this$[ebp]
  0056b	8b 88 b8 ba 0f
	00		 mov	 ecx, DWORD PTR [eax+1030840]
  00571	83 c1 01	 add	 ecx, 1
  00574	8b 55 f8	 mov	 edx, DWORD PTR _this$[ebp]
  00577	89 8a b8 ba 0f
	00		 mov	 DWORD PTR [edx+1030840], ecx
$LN1@ReedConfig:

; 112  : 		}
; 113  : 	}

  0057d	e9 fc fc ff ff	 jmp	 $LN6@ReedConfig
$LN5@ReedConfig:

; 114  : 	fclose(file);

  00582	8b 45 f0	 mov	 eax, DWORD PTR _file$[ebp]
  00585	50		 push	 eax
  00586	e8 00 00 00 00	 call	 _fclose
  0058b	83 c4 04	 add	 esp, 4
$LN12@ReedConfig:

; 115  : }

  0058e	5f		 pop	 edi
  0058f	5e		 pop	 esi
  00590	5b		 pop	 ebx
  00591	8b 4d fc	 mov	 ecx, DWORD PTR __$ArrayPad$[ebp]
  00594	33 cd		 xor	 ecx, ebp
  00596	e8 00 00 00 00	 call	 @__security_check_cookie@4
  0059b	8b e5		 mov	 esp, ebp
  0059d	5d		 pop	 ebp
  0059e	c3		 ret	 0
?ReedConfig@cBloodHound@@QAEXXZ ENDP			; cBloodHound::ReedConfig
_TEXT	ENDS
PUBLIC	?UserStart@cBloodHound@@QAEXH@Z			; cBloodHound::UserStart
; Function compile flags: /Odtp /ZI
_TEXT	SEGMENT
_this$ = -4						; size = 4
_aIndex$ = 8						; size = 4
?UserStart@cBloodHound@@QAEXH@Z PROC			; cBloodHound::UserStart
; _this$ = ecx

; 118  : {

  005a0	55		 push	 ebp
  005a1	8b ec		 mov	 ebp, esp
  005a3	83 ec 44	 sub	 esp, 68			; 00000044H
  005a6	53		 push	 ebx
  005a7	56		 push	 esi
  005a8	57		 push	 edi
  005a9	89 4d fc	 mov	 DWORD PTR _this$[ebp], ecx

; 119  : 	this->UserCheck[aIndex] = false;

  005ac	8b 45 fc	 mov	 eax, DWORD PTR _this$[ebp]
  005af	03 45 08	 add	 eax, DWORD PTR _aIndex$[ebp]
  005b2	c6 40 20 00	 mov	 BYTE PTR [eax+32], 0

; 120  : 	this->UserEvent[aIndex] = false;

  005b6	8b 45 fc	 mov	 eax, DWORD PTR _this$[ebp]
  005b9	03 45 08	 add	 eax, DWORD PTR _aIndex$[ebp]
  005bc	c6 80 b8 3a 00
	00 00		 mov	 BYTE PTR [eax+15032], 0

; 121  : 	this->iUserType[aIndex] = -1;

  005c3	8b 45 08	 mov	 eax, DWORD PTR _aIndex$[ebp]
  005c6	8b 4d fc	 mov	 ecx, DWORD PTR _this$[ebp]
  005c9	c7 84 81 50 75
	00 00 ff ff ff
	ff		 mov	 DWORD PTR [ecx+eax*4+30032], -1

; 122  : 	this->iUserIndex[aIndex] = -1;

  005d4	8b 45 08	 mov	 eax, DWORD PTR _aIndex$[ebp]
  005d7	8b 4d fc	 mov	 ecx, DWORD PTR _this$[ebp]
  005da	c7 84 81 b0 5f
	01 00 ff ff ff
	ff		 mov	 DWORD PTR [ecx+eax*4+90032], -1

; 123  : 	this->iUserLevel[aIndex] = -1;

  005e5	8b 45 08	 mov	 eax, DWORD PTR _aIndex$[ebp]
  005e8	8b 4d fc	 mov	 ecx, DWORD PTR _this$[ebp]
  005eb	c7 84 81 10 4a
	02 00 ff ff ff
	ff		 mov	 DWORD PTR [ecx+eax*4+150032], -1

; 124  : 	this->iUserCount[aIndex] = -1;

  005f6	8b 45 08	 mov	 eax, DWORD PTR _aIndex$[ebp]
  005f9	8b 4d fc	 mov	 ecx, DWORD PTR _this$[ebp]
  005fc	c7 84 81 70 34
	03 00 ff ff ff
	ff		 mov	 DWORD PTR [ecx+eax*4+210032], -1

; 125  : 	this->iUserName[aIndex][0] = NULL;

  00607	8b 45 08	 mov	 eax, DWORD PTR _aIndex$[ebp]
  0060a	6b c0 32	 imul	 eax, 50			; 00000032H
  0060d	8b 4d fc	 mov	 ecx, DWORD PTR _this$[ebp]
  00610	c6 84 01 d0 1e
	04 00 00	 mov	 BYTE PTR [ecx+eax+270032], 0

; 126  : }

  00618	5f		 pop	 edi
  00619	5e		 pop	 esi
  0061a	5b		 pop	 ebx
  0061b	8b e5		 mov	 esp, ebp
  0061d	5d		 pop	 ebp
  0061e	c2 04 00	 ret	 4
?UserStart@cBloodHound@@QAEXH@Z ENDP			; cBloodHound::UserStart
_TEXT	ENDS
PUBLIC	?RunJob@cBloodHound@@QAEXH@Z			; cBloodHound::RunJob
PUBLIC	?TakeJob@cBloodHound@@QAEXH@Z			; cBloodHound::TakeJob
PUBLIC	?NPCClick@cBloodHound@@QAEXHH@Z			; cBloodHound::NPCClick
EXTRN	?gObj@@3PAUOBJECTSTRUCT@@A:DWORD		; gObj
; Function compile flags: /Odtp /ZI
_TEXT	SEGMENT
_lpNpc$ = -12						; size = 4
_lpUser$ = -8						; size = 4
_this$ = -4						; size = 4
_aIndex$ = 8						; size = 4
_aNPC$ = 12						; size = 4
?NPCClick@cBloodHound@@QAEXHH@Z PROC			; cBloodHound::NPCClick
; _this$ = ecx

; 129  : {

  00630	55		 push	 ebp
  00631	8b ec		 mov	 ebp, esp
  00633	83 ec 4c	 sub	 esp, 76			; 0000004cH
  00636	53		 push	 ebx
  00637	56		 push	 esi
  00638	57		 push	 edi
  00639	89 4d fc	 mov	 DWORD PTR _this$[ebp], ecx

; 130  : 	if(!this->Enable)	return;

  0063c	8b 45 fc	 mov	 eax, DWORD PTR _this$[ebp]
  0063f	83 38 00	 cmp	 DWORD PTR [eax], 0
  00642	75 05		 jne	 SHORT $LN6@NPCClick
  00644	e9 ba 00 00 00	 jmp	 $LN7@NPCClick
$LN6@NPCClick:

; 131  : 	if(!this->StartEvent)	return;

  00649	8b 45 fc	 mov	 eax, DWORD PTR _this$[ebp]
  0064c	0f b6 48 18	 movzx	 ecx, BYTE PTR [eax+24]
  00650	85 c9		 test	 ecx, ecx
  00652	75 05		 jne	 SHORT $LN5@NPCClick
  00654	e9 aa 00 00 00	 jmp	 $LN7@NPCClick
$LN5@NPCClick:

; 132  : 	if(!this->UserCheck[aIndex]) return;

  00659	8b 45 fc	 mov	 eax, DWORD PTR _this$[ebp]
  0065c	03 45 08	 add	 eax, DWORD PTR _aIndex$[ebp]
  0065f	0f b6 48 20	 movzx	 ecx, BYTE PTR [eax+32]
  00663	85 c9		 test	 ecx, ecx
  00665	75 05		 jne	 SHORT $LN4@NPCClick
  00667	e9 97 00 00 00	 jmp	 $LN7@NPCClick
$LN4@NPCClick:

; 133  : 
; 134  : 	LPOBJ lpUser = &gObj[aIndex];

  0066c	8b 45 08	 mov	 eax, DWORD PTR _aIndex$[ebp]
  0066f	69 c0 38 2b 00
	00		 imul	 eax, 11064		; 00002b38H
  00675	03 05 00 00 00
	00		 add	 eax, DWORD PTR ?gObj@@3PAUOBJECTSTRUCT@@A ; gObj
  0067b	89 45 f8	 mov	 DWORD PTR _lpUser$[ebp], eax

; 135  : 	LPOBJ lpNpc = &gObj[aNPC];

  0067e	8b 45 0c	 mov	 eax, DWORD PTR _aNPC$[ebp]
  00681	69 c0 38 2b 00
	00		 imul	 eax, 11064		; 00002b38H
  00687	03 05 00 00 00
	00		 add	 eax, DWORD PTR ?gObj@@3PAUOBJECTSTRUCT@@A ; gObj
  0068d	89 45 f4	 mov	 DWORD PTR _lpNpc$[ebp], eax

; 136  : 	if ((lpNpc->Class == this->NPC) && (lpNpc->MapNumber == this->NPC_Map) && (lpNpc->X == this->NPC_X) && (lpNpc->Y == this->NPC_Y))

  00690	8b 45 f4	 mov	 eax, DWORD PTR _lpNpc$[ebp]
  00693	0f b7 88 b8 00
	00 00		 movzx	 ecx, WORD PTR [eax+184]
  0069a	8b 55 fc	 mov	 edx, DWORD PTR _this$[ebp]
  0069d	3b 4a 04	 cmp	 ecx, DWORD PTR [edx+4]
  006a0	75 61		 jne	 SHORT $LN7@NPCClick
  006a2	8b 45 f4	 mov	 eax, DWORD PTR _lpNpc$[ebp]
  006a5	0f b6 88 49 01
	00 00		 movzx	 ecx, BYTE PTR [eax+329]
  006ac	8b 55 fc	 mov	 edx, DWORD PTR _this$[ebp]
  006af	3b 4a 10	 cmp	 ecx, DWORD PTR [edx+16]
  006b2	75 4f		 jne	 SHORT $LN7@NPCClick
  006b4	8b 45 f4	 mov	 eax, DWORD PTR _lpNpc$[ebp]
  006b7	0f bf 88 44 01
	00 00		 movsx	 ecx, WORD PTR [eax+324]
  006be	8b 55 fc	 mov	 edx, DWORD PTR _this$[ebp]
  006c1	3b 4a 08	 cmp	 ecx, DWORD PTR [edx+8]
  006c4	75 3d		 jne	 SHORT $LN7@NPCClick
  006c6	8b 45 f4	 mov	 eax, DWORD PTR _lpNpc$[ebp]
  006c9	0f bf 88 46 01
	00 00		 movsx	 ecx, WORD PTR [eax+326]
  006d0	8b 55 fc	 mov	 edx, DWORD PTR _this$[ebp]
  006d3	3b 4a 0c	 cmp	 ecx, DWORD PTR [edx+12]
  006d6	75 2b		 jne	 SHORT $LN7@NPCClick

; 137  : 	{
; 138  : 		if(this->UserEvent[aIndex] == false)

  006d8	8b 45 fc	 mov	 eax, DWORD PTR _this$[ebp]
  006db	03 45 08	 add	 eax, DWORD PTR _aIndex$[ebp]
  006de	0f b6 88 b8 3a
	00 00		 movzx	 ecx, BYTE PTR [eax+15032]
  006e5	85 c9		 test	 ecx, ecx
  006e7	75 0e		 jne	 SHORT $LN2@NPCClick

; 139  : 		{
; 140  : 			this->TakeJob(aIndex);

  006e9	8b 45 08	 mov	 eax, DWORD PTR _aIndex$[ebp]
  006ec	50		 push	 eax
  006ed	8b 4d fc	 mov	 ecx, DWORD PTR _this$[ebp]
  006f0	e8 00 00 00 00	 call	 ?TakeJob@cBloodHound@@QAEXH@Z ; cBloodHound::TakeJob

; 141  : 		}
; 142  : 		else

  006f5	eb 0c		 jmp	 SHORT $LN7@NPCClick
$LN2@NPCClick:

; 143  : 		{
; 144  : 			this->RunJob(aIndex);

  006f7	8b 45 08	 mov	 eax, DWORD PTR _aIndex$[ebp]
  006fa	50		 push	 eax
  006fb	8b 4d fc	 mov	 ecx, DWORD PTR _this$[ebp]
  006fe	e8 00 00 00 00	 call	 ?RunJob@cBloodHound@@QAEXH@Z ; cBloodHound::RunJob
$LN7@NPCClick:

; 145  : 		}
; 146  : 	}
; 147  : }

  00703	5f		 pop	 edi
  00704	5e		 pop	 esi
  00705	5b		 pop	 ebx
  00706	8b e5		 mov	 esp, ebp
  00708	5d		 pop	 ebp
  00709	c2 08 00	 ret	 8
?NPCClick@cBloodHound@@QAEXHH@Z ENDP			; cBloodHound::NPCClick
_TEXT	ENDS
PUBLIC	??_C@_0CD@DIPFOAC@?$FLBloodHound?$FN?5Need?3?5?$CFs?$CL?$CFd?5Count?3?5@ ; `string'
EXTRN	?MessageChat@@YAXHPADZZ:PROC			; MessageChat
EXTRN	_strcpy:PROC
EXTRN	_rand:PROC
EXTRN	_srand:PROC
;	COMDAT ??_C@_0CD@DIPFOAC@?$FLBloodHound?$FN?5Need?3?5?$CFs?$CL?$CFd?5Count?3?5@
CONST	SEGMENT
??_C@_0CD@DIPFOAC@?$FLBloodHound?$FN?5Need?3?5?$CFs?$CL?$CFd?5Count?3?5@ DB '['
	DB	'BloodHound] Need: %s+%d Count: %d', 00H	; `string'
; Function compile flags: /Odtp /ZI
CONST	ENDS
_TEXT	SEGMENT
_n$ = -8						; size = 4
_this$ = -4						; size = 4
_aIndex$ = 8						; size = 4
?TakeJob@cBloodHound@@QAEXH@Z PROC			; cBloodHound::TakeJob
; _this$ = ecx

; 150  : {

  00710	55		 push	 ebp
  00711	8b ec		 mov	 ebp, esp
  00713	83 ec 48	 sub	 esp, 72			; 00000048H
  00716	53		 push	 ebx
  00717	56		 push	 esi
  00718	57		 push	 edi
  00719	89 4d fc	 mov	 DWORD PTR _this$[ebp], ecx

; 151  : 	//OBJECTSTRUCT * gObj = (OBJECTSTRUCT*)OBJECT_POINTER(aIndex);
; 152  : 	srand(time(NULL));

  0071c	6a 00		 push	 0
  0071e	e8 00 00 00 00	 call	 _time
  00723	83 c4 04	 add	 esp, 4
  00726	50		 push	 eax
  00727	e8 00 00 00 00	 call	 _srand
  0072c	83 c4 04	 add	 esp, 4

; 153  : 	int n = rand()%this->sCount;

  0072f	e8 00 00 00 00	 call	 _rand
  00734	8b 4d fc	 mov	 ecx, DWORD PTR _this$[ebp]
  00737	99		 cdq
  00738	f7 b9 34 ae 0f
	00		 idiv	 DWORD PTR [ecx+1027636]
  0073e	89 55 f8	 mov	 DWORD PTR _n$[ebp], edx

; 154  : 	
; 155  : 	this->UserEvent[aIndex] = true;

  00741	8b 45 fc	 mov	 eax, DWORD PTR _this$[ebp]
  00744	03 45 08	 add	 eax, DWORD PTR _aIndex$[ebp]
  00747	c6 80 b8 3a 00
	00 01		 mov	 BYTE PTR [eax+15032], 1

; 156  : 	this->iUserType[aIndex] = this->sItem[n].Type;

  0074e	8b 45 f8	 mov	 eax, DWORD PTR _n$[ebp]
  00751	6b c0 44	 imul	 eax, 68			; 00000044H
  00754	8b 4d 08	 mov	 ecx, DWORD PTR _aIndex$[ebp]
  00757	8b 55 fc	 mov	 edx, DWORD PTR _this$[ebp]
  0075a	8b 75 fc	 mov	 esi, DWORD PTR _this$[ebp]
  0075d	8b 84 06 a4 93
	0f 00		 mov	 eax, DWORD PTR [esi+eax+1020836]
  00764	89 84 8a 50 75
	00 00		 mov	 DWORD PTR [edx+ecx*4+30032], eax

; 157  : 	this->iUserIndex[aIndex] = this->sItem[n].Index;

  0076b	8b 45 f8	 mov	 eax, DWORD PTR _n$[ebp]
  0076e	6b c0 44	 imul	 eax, 68			; 00000044H
  00771	8b 4d 08	 mov	 ecx, DWORD PTR _aIndex$[ebp]
  00774	8b 55 fc	 mov	 edx, DWORD PTR _this$[ebp]
  00777	8b 75 fc	 mov	 esi, DWORD PTR _this$[ebp]
  0077a	8b 84 06 a8 93
	0f 00		 mov	 eax, DWORD PTR [esi+eax+1020840]
  00781	89 84 8a b0 5f
	01 00		 mov	 DWORD PTR [edx+ecx*4+90032], eax

; 158  : 	this->iUserLevel[aIndex] = this->sItem[n].Level;

  00788	8b 45 f8	 mov	 eax, DWORD PTR _n$[ebp]
  0078b	6b c0 44	 imul	 eax, 68			; 00000044H
  0078e	8b 4d 08	 mov	 ecx, DWORD PTR _aIndex$[ebp]
  00791	8b 55 fc	 mov	 edx, DWORD PTR _this$[ebp]
  00794	8b 75 fc	 mov	 esi, DWORD PTR _this$[ebp]
  00797	8b 84 06 ac 93
	0f 00		 mov	 eax, DWORD PTR [esi+eax+1020844]
  0079e	89 84 8a 10 4a
	02 00		 mov	 DWORD PTR [edx+ecx*4+150032], eax

; 159  : 	this->iUserCount[aIndex] = this->sItem[n].Count;

  007a5	8b 45 f8	 mov	 eax, DWORD PTR _n$[ebp]
  007a8	6b c0 44	 imul	 eax, 68			; 00000044H
  007ab	8b 4d 08	 mov	 ecx, DWORD PTR _aIndex$[ebp]
  007ae	8b 55 fc	 mov	 edx, DWORD PTR _this$[ebp]
  007b1	8b 75 fc	 mov	 esi, DWORD PTR _this$[ebp]
  007b4	8b 84 06 b0 93
	0f 00		 mov	 eax, DWORD PTR [esi+eax+1020848]
  007bb	89 84 8a 70 34
	03 00		 mov	 DWORD PTR [edx+ecx*4+210032], eax

; 160  : 	strcpy(this->iUserName[aIndex],this->sItem[n].Name);

  007c2	8b 45 f8	 mov	 eax, DWORD PTR _n$[ebp]
  007c5	6b c0 44	 imul	 eax, 68			; 00000044H
  007c8	8b 4d fc	 mov	 ecx, DWORD PTR _this$[ebp]
  007cb	8d 94 01 b4 93
	0f 00		 lea	 edx, DWORD PTR [ecx+eax+1020852]
  007d2	52		 push	 edx
  007d3	8b 45 08	 mov	 eax, DWORD PTR _aIndex$[ebp]
  007d6	6b c0 32	 imul	 eax, 50			; 00000032H
  007d9	8b 4d fc	 mov	 ecx, DWORD PTR _this$[ebp]
  007dc	8d 94 01 d0 1e
	04 00		 lea	 edx, DWORD PTR [ecx+eax+270032]
  007e3	52		 push	 edx
  007e4	e8 00 00 00 00	 call	 _strcpy
  007e9	83 c4 08	 add	 esp, 8

; 161  : 
; 162  : 	MessageChat(aIndex,"[BloodHound] Need: %s+%d Count: %d",this->sItem[n].Name,this->sItem[n].Level,this->sItem[n].Count);

  007ec	8b 45 f8	 mov	 eax, DWORD PTR _n$[ebp]
  007ef	6b c0 44	 imul	 eax, 68			; 00000044H
  007f2	8b 4d fc	 mov	 ecx, DWORD PTR _this$[ebp]
  007f5	8b 94 01 b0 93
	0f 00		 mov	 edx, DWORD PTR [ecx+eax+1020848]
  007fc	52		 push	 edx
  007fd	8b 45 f8	 mov	 eax, DWORD PTR _n$[ebp]
  00800	6b c0 44	 imul	 eax, 68			; 00000044H
  00803	8b 4d fc	 mov	 ecx, DWORD PTR _this$[ebp]
  00806	8b 94 01 ac 93
	0f 00		 mov	 edx, DWORD PTR [ecx+eax+1020844]
  0080d	52		 push	 edx
  0080e	8b 45 f8	 mov	 eax, DWORD PTR _n$[ebp]
  00811	6b c0 44	 imul	 eax, 68			; 00000044H
  00814	8b 4d fc	 mov	 ecx, DWORD PTR _this$[ebp]
  00817	8d 94 01 b4 93
	0f 00		 lea	 edx, DWORD PTR [ecx+eax+1020852]
  0081e	52		 push	 edx
  0081f	68 00 00 00 00	 push	 OFFSET ??_C@_0CD@DIPFOAC@?$FLBloodHound?$FN?5Need?3?5?$CFs?$CL?$CFd?5Count?3?5@
  00824	8b 45 08	 mov	 eax, DWORD PTR _aIndex$[ebp]
  00827	50		 push	 eax
  00828	e8 00 00 00 00	 call	 ?MessageChat@@YAXHPADZZ	; MessageChat
  0082d	83 c4 14	 add	 esp, 20			; 00000014H

; 163  : }

  00830	5f		 pop	 edi
  00831	5e		 pop	 esi
  00832	5b		 pop	 ebx
  00833	8b e5		 mov	 esp, ebp
  00835	5d		 pop	 ebp
  00836	c2 04 00	 ret	 4
?TakeJob@cBloodHound@@QAEXH@Z ENDP			; cBloodHound::TakeJob
_TEXT	ENDS
EXTRN	__time64:PROC
; Function compile flags: /Odtp /ZI
; File d:\microsoft visual studio 10.0\vc\include\time.inl
_TEXT	SEGMENT
__Time$ = 8						; size = 4
_time	PROC

; 132  : {

  00840	55		 push	 ebp
  00841	8b ec		 mov	 ebp, esp
  00843	83 ec 40	 sub	 esp, 64			; 00000040H
  00846	53		 push	 ebx
  00847	56		 push	 esi
  00848	57		 push	 edi

; 133  :     return _time64(_Time);

  00849	8b 45 08	 mov	 eax, DWORD PTR __Time$[ebp]
  0084c	50		 push	 eax
  0084d	e8 00 00 00 00	 call	 __time64
  00852	83 c4 04	 add	 esp, 4

; 134  : }

  00855	5f		 pop	 edi
  00856	5e		 pop	 esi
  00857	5b		 pop	 ebx
  00858	8b e5		 mov	 esp, ebp
  0085a	5d		 pop	 ebp
  0085b	c3		 ret	 0
_time	ENDP
_TEXT	ENDS
PUBLIC	??_C@_0CA@BJFBFPBN@?$FLBloodHound?$FN?5Need?3?5?$CFs?5Count?3?5?$CFd?$AA@ ; `string'
EXTRN	?ItemSerialCreateSend@@YAXHEEEHEEEEEHEE@Z:PROC	; ItemSerialCreateSend
EXTRN	?GenExcOpt@@YAHH@Z:PROC				; GenExcOpt
EXTRN	?gObjDeleteItemsCount@@YAHHFFH@Z:PROC		; gObjDeleteItemsCount
EXTRN	?gObjGetItemCountInInventory@@YAHHHH@Z:PROC	; gObjGetItemCountInInventory
;	COMDAT ??_C@_0CA@BJFBFPBN@?$FLBloodHound?$FN?5Need?3?5?$CFs?5Count?3?5?$CFd?$AA@
; File d:\projects\exteam6.3\source\gameserver\gameserver\bloodhound.cpp
CONST	SEGMENT
??_C@_0CA@BJFBFPBN@?$FLBloodHound?$FN?5Need?3?5?$CFs?5Count?3?5?$CFd?$AA@ DB '['
	DB	'BloodHound] Need: %s Count: %d', 00H	; `string'
; Function compile flags: /Odtp /ZI
CONST	ENDS
_TEXT	SEGMENT
_iAnc$ = -56						; size = 4
_iExe$ = -52						; size = 4
_iOpt$ = -48						; size = 4
_iLuck$ = -44						; size = 4
_iSkill$ = -40						; size = 4
_iLevel$ = -36						; size = 4
_Type$ = -32						; size = 4
_n$ = -28						; size = 4
_NeedCount$ = -24					; size = 4
_NeedLevel$ = -20					; size = 4
_NeedIndex$ = -16					; size = 4
_NeedType$ = -12					; size = 4
_lpUser$ = -8						; size = 4
_this$ = -4						; size = 4
_aIndex$ = 8						; size = 4
?RunJob@cBloodHound@@QAEXH@Z PROC			; cBloodHound::RunJob
; _this$ = ecx

; 165  : {

  00860	55		 push	 ebp
  00861	8b ec		 mov	 ebp, esp
  00863	83 ec 78	 sub	 esp, 120		; 00000078H
  00866	53		 push	 ebx
  00867	56		 push	 esi
  00868	57		 push	 edi
  00869	89 4d fc	 mov	 DWORD PTR _this$[ebp], ecx

; 166  : 	LPOBJ lpUser = &gObj[aIndex];

  0086c	8b 45 08	 mov	 eax, DWORD PTR _aIndex$[ebp]
  0086f	69 c0 38 2b 00
	00		 imul	 eax, 11064		; 00002b38H
  00875	03 05 00 00 00
	00		 add	 eax, DWORD PTR ?gObj@@3PAUOBJECTSTRUCT@@A ; gObj
  0087b	89 45 f8	 mov	 DWORD PTR _lpUser$[ebp], eax

; 167  : 
; 168  : 	int NeedType = this->iUserType[aIndex];

  0087e	8b 45 08	 mov	 eax, DWORD PTR _aIndex$[ebp]
  00881	8b 4d fc	 mov	 ecx, DWORD PTR _this$[ebp]
  00884	8b 94 81 50 75
	00 00		 mov	 edx, DWORD PTR [ecx+eax*4+30032]
  0088b	89 55 f4	 mov	 DWORD PTR _NeedType$[ebp], edx

; 169  : 	int NeedIndex = this->iUserIndex[aIndex];

  0088e	8b 45 08	 mov	 eax, DWORD PTR _aIndex$[ebp]
  00891	8b 4d fc	 mov	 ecx, DWORD PTR _this$[ebp]
  00894	8b 94 81 b0 5f
	01 00		 mov	 edx, DWORD PTR [ecx+eax*4+90032]
  0089b	89 55 f0	 mov	 DWORD PTR _NeedIndex$[ebp], edx

; 170  : 	int NeedLevel = this->iUserLevel[aIndex];

  0089e	8b 45 08	 mov	 eax, DWORD PTR _aIndex$[ebp]
  008a1	8b 4d fc	 mov	 ecx, DWORD PTR _this$[ebp]
  008a4	8b 94 81 10 4a
	02 00		 mov	 edx, DWORD PTR [ecx+eax*4+150032]
  008ab	89 55 ec	 mov	 DWORD PTR _NeedLevel$[ebp], edx

; 171  : 	int NeedCount = this->iUserCount[aIndex];

  008ae	8b 45 08	 mov	 eax, DWORD PTR _aIndex$[ebp]
  008b1	8b 4d fc	 mov	 ecx, DWORD PTR _this$[ebp]
  008b4	8b 94 81 70 34
	03 00		 mov	 edx, DWORD PTR [ecx+eax*4+210032]
  008bb	89 55 e8	 mov	 DWORD PTR _NeedCount$[ebp], edx

; 172  : 
; 173  : 	if(gObjGetItemCountInInventory(aIndex,ITEMGET(NeedType,NeedIndex),NeedLevel) < NeedCount)

  008be	8b 45 ec	 mov	 eax, DWORD PTR _NeedLevel$[ebp]
  008c1	50		 push	 eax
  008c2	8b 4d f4	 mov	 ecx, DWORD PTR _NeedType$[ebp]
  008c5	c1 e1 09	 shl	 ecx, 9
  008c8	03 4d f0	 add	 ecx, DWORD PTR _NeedIndex$[ebp]
  008cb	51		 push	 ecx
  008cc	8b 55 08	 mov	 edx, DWORD PTR _aIndex$[ebp]
  008cf	52		 push	 edx
  008d0	e8 00 00 00 00	 call	 ?gObjGetItemCountInInventory@@YAHHHH@Z ; gObjGetItemCountInInventory
  008d5	83 c4 0c	 add	 esp, 12			; 0000000cH
  008d8	3b 45 e8	 cmp	 eax, DWORD PTR _NeedCount$[ebp]
  008db	0f 8d 85 00 00
	00		 jge	 $LN5@RunJob

; 174  : 	{
; 175  : 		if(this->iUserLevel[aIndex] == 0)

  008e1	8b 45 08	 mov	 eax, DWORD PTR _aIndex$[ebp]
  008e4	8b 4d fc	 mov	 ecx, DWORD PTR _this$[ebp]
  008e7	83 bc 81 10 4a
	02 00 00	 cmp	 DWORD PTR [ecx+eax*4+150032], 0
  008ef	75 32		 jne	 SHORT $LN4@RunJob

; 176  : 			MessageChat(aIndex,"[BloodHound] Need: %s Count: %d",this->iUserName[aIndex],this->iUserCount[aIndex]);

  008f1	8b 45 08	 mov	 eax, DWORD PTR _aIndex$[ebp]
  008f4	8b 4d fc	 mov	 ecx, DWORD PTR _this$[ebp]
  008f7	8b 94 81 70 34
	03 00		 mov	 edx, DWORD PTR [ecx+eax*4+210032]
  008fe	52		 push	 edx
  008ff	8b 45 08	 mov	 eax, DWORD PTR _aIndex$[ebp]
  00902	6b c0 32	 imul	 eax, 50			; 00000032H
  00905	8b 4d fc	 mov	 ecx, DWORD PTR _this$[ebp]
  00908	8d 94 01 d0 1e
	04 00		 lea	 edx, DWORD PTR [ecx+eax+270032]
  0090f	52		 push	 edx
  00910	68 00 00 00 00	 push	 OFFSET ??_C@_0CA@BJFBFPBN@?$FLBloodHound?$FN?5Need?3?5?$CFs?5Count?3?5?$CFd?$AA@
  00915	8b 45 08	 mov	 eax, DWORD PTR _aIndex$[ebp]
  00918	50		 push	 eax
  00919	e8 00 00 00 00	 call	 ?MessageChat@@YAXHPADZZ	; MessageChat
  0091e	83 c4 10	 add	 esp, 16			; 00000010H

; 177  : 		else

  00921	eb 3e		 jmp	 SHORT $LN3@RunJob
$LN4@RunJob:

; 178  : 			MessageChat(aIndex,"[BloodHound] Need: %s+%d Count: %d",this->iUserName[aIndex],this->iUserLevel[aIndex],this->iUserCount[aIndex]);

  00923	8b 45 08	 mov	 eax, DWORD PTR _aIndex$[ebp]
  00926	8b 4d fc	 mov	 ecx, DWORD PTR _this$[ebp]
  00929	8b 94 81 70 34
	03 00		 mov	 edx, DWORD PTR [ecx+eax*4+210032]
  00930	52		 push	 edx
  00931	8b 45 08	 mov	 eax, DWORD PTR _aIndex$[ebp]
  00934	8b 4d fc	 mov	 ecx, DWORD PTR _this$[ebp]
  00937	8b 94 81 10 4a
	02 00		 mov	 edx, DWORD PTR [ecx+eax*4+150032]
  0093e	52		 push	 edx
  0093f	8b 45 08	 mov	 eax, DWORD PTR _aIndex$[ebp]
  00942	6b c0 32	 imul	 eax, 50			; 00000032H
  00945	8b 4d fc	 mov	 ecx, DWORD PTR _this$[ebp]
  00948	8d 94 01 d0 1e
	04 00		 lea	 edx, DWORD PTR [ecx+eax+270032]
  0094f	52		 push	 edx
  00950	68 00 00 00 00	 push	 OFFSET ??_C@_0CD@DIPFOAC@?$FLBloodHound?$FN?5Need?3?5?$CFs?$CL?$CFd?5Count?3?5@
  00955	8b 45 08	 mov	 eax, DWORD PTR _aIndex$[ebp]
  00958	50		 push	 eax
  00959	e8 00 00 00 00	 call	 ?MessageChat@@YAXHPADZZ	; MessageChat
  0095e	83 c4 14	 add	 esp, 20			; 00000014H
$LN3@RunJob:

; 179  : 		return;

  00961	e9 c9 01 00 00	 jmp	 $LN6@RunJob
$LN5@RunJob:

; 180  : 	}
; 181  : 
; 182  : 	gObjDeleteItemsCount(aIndex,ITEMGET(NeedType,NeedIndex),NeedLevel,NeedCount);

  00966	8b 45 e8	 mov	 eax, DWORD PTR _NeedCount$[ebp]
  00969	50		 push	 eax
  0096a	0f b7 4d ec	 movzx	 ecx, WORD PTR _NeedLevel$[ebp]
  0096e	51		 push	 ecx
  0096f	8b 55 f4	 mov	 edx, DWORD PTR _NeedType$[ebp]
  00972	c1 e2 09	 shl	 edx, 9
  00975	03 55 f0	 add	 edx, DWORD PTR _NeedIndex$[ebp]
  00978	52		 push	 edx
  00979	8b 45 08	 mov	 eax, DWORD PTR _aIndex$[ebp]
  0097c	50		 push	 eax
  0097d	e8 00 00 00 00	 call	 ?gObjDeleteItemsCount@@YAHHFFH@Z ; gObjDeleteItemsCount
  00982	83 c4 10	 add	 esp, 16			; 00000010H

; 183  : 
; 184  : 	srand(time(NULL));

  00985	6a 00		 push	 0
  00987	e8 00 00 00 00	 call	 _time
  0098c	83 c4 04	 add	 esp, 4
  0098f	50		 push	 eax
  00990	e8 00 00 00 00	 call	 _srand
  00995	83 c4 04	 add	 esp, 4

; 185  : 	int n = rand()%this->rCount;

  00998	e8 00 00 00 00	 call	 _rand
  0099d	8b 4d fc	 mov	 ecx, DWORD PTR _this$[ebp]
  009a0	99		 cdq
  009a1	f7 b9 b8 ba 0f
	00		 idiv	 DWORD PTR [ecx+1030840]
  009a7	89 55 e4	 mov	 DWORD PTR _n$[ebp], edx

; 186  : 
; 187  : 	int Type = ITEMGET(iReward[n].Type,iReward[n].Index);

  009aa	8b 45 e4	 mov	 eax, DWORD PTR _n$[ebp]
  009ad	c1 e0 05	 shl	 eax, 5
  009b0	8b 4d fc	 mov	 ecx, DWORD PTR _this$[ebp]
  009b3	8b 94 01 38 ae
	0f 00		 mov	 edx, DWORD PTR [ecx+eax+1027640]
  009ba	c1 e2 09	 shl	 edx, 9
  009bd	8b 45 e4	 mov	 eax, DWORD PTR _n$[ebp]
  009c0	c1 e0 05	 shl	 eax, 5
  009c3	8b 4d fc	 mov	 ecx, DWORD PTR _this$[ebp]
  009c6	03 94 01 3c ae
	0f 00		 add	 edx, DWORD PTR [ecx+eax+1027644]
  009cd	89 55 e0	 mov	 DWORD PTR _Type$[ebp], edx

; 188  : 	int iLevel = iReward[n].Level;

  009d0	8b 45 e4	 mov	 eax, DWORD PTR _n$[ebp]
  009d3	c1 e0 05	 shl	 eax, 5
  009d6	8b 4d fc	 mov	 ecx, DWORD PTR _this$[ebp]
  009d9	8b 94 01 40 ae
	0f 00		 mov	 edx, DWORD PTR [ecx+eax+1027648]
  009e0	89 55 dc	 mov	 DWORD PTR _iLevel$[ebp], edx

; 189  : 	int iSkill	= iReward[n].Skill;

  009e3	8b 45 e4	 mov	 eax, DWORD PTR _n$[ebp]
  009e6	c1 e0 05	 shl	 eax, 5
  009e9	8b 4d fc	 mov	 ecx, DWORD PTR _this$[ebp]
  009ec	8b 94 01 44 ae
	0f 00		 mov	 edx, DWORD PTR [ecx+eax+1027652]
  009f3	89 55 d8	 mov	 DWORD PTR _iSkill$[ebp], edx

; 190  : 	int iLuck	= iReward[n].Luck;

  009f6	8b 45 e4	 mov	 eax, DWORD PTR _n$[ebp]
  009f9	c1 e0 05	 shl	 eax, 5
  009fc	8b 4d fc	 mov	 ecx, DWORD PTR _this$[ebp]
  009ff	8b 94 01 48 ae
	0f 00		 mov	 edx, DWORD PTR [ecx+eax+1027656]
  00a06	89 55 d4	 mov	 DWORD PTR _iLuck$[ebp], edx

; 191  : 	int iOpt = iReward[n].Opt;

  00a09	8b 45 e4	 mov	 eax, DWORD PTR _n$[ebp]
  00a0c	c1 e0 05	 shl	 eax, 5
  00a0f	8b 4d fc	 mov	 ecx, DWORD PTR _this$[ebp]
  00a12	8b 94 01 4c ae
	0f 00		 mov	 edx, DWORD PTR [ecx+eax+1027660]
  00a19	89 55 d0	 mov	 DWORD PTR _iOpt$[ebp], edx

; 192  : 	int iExe	= GenExcOpt(iReward[n].Exl);

  00a1c	8b 45 e4	 mov	 eax, DWORD PTR _n$[ebp]
  00a1f	c1 e0 05	 shl	 eax, 5
  00a22	8b 4d fc	 mov	 ecx, DWORD PTR _this$[ebp]
  00a25	8b 94 01 50 ae
	0f 00		 mov	 edx, DWORD PTR [ecx+eax+1027664]
  00a2c	52		 push	 edx
  00a2d	e8 00 00 00 00	 call	 ?GenExcOpt@@YAHH@Z	; GenExcOpt
  00a32	83 c4 04	 add	 esp, 4
  00a35	89 45 cc	 mov	 DWORD PTR _iExe$[ebp], eax

; 193  : 	int iAnc	= 0;

  00a38	c7 45 c8 00 00
	00 00		 mov	 DWORD PTR _iAnc$[ebp], 0

; 194  : 
; 195  : 	if(iReward[n].Anc == 5 || iReward[n].Anc == 10)

  00a3f	8b 45 e4	 mov	 eax, DWORD PTR _n$[ebp]
  00a42	c1 e0 05	 shl	 eax, 5
  00a45	8b 4d fc	 mov	 ecx, DWORD PTR _this$[ebp]
  00a48	83 bc 01 54 ae
	0f 00 05	 cmp	 DWORD PTR [ecx+eax+1027668], 5
  00a50	74 13		 je	 SHORT $LN1@RunJob
  00a52	8b 45 e4	 mov	 eax, DWORD PTR _n$[ebp]
  00a55	c1 e0 05	 shl	 eax, 5
  00a58	8b 4d fc	 mov	 ecx, DWORD PTR _this$[ebp]
  00a5b	83 bc 01 54 ae
	0f 00 0a	 cmp	 DWORD PTR [ecx+eax+1027668], 10 ; 0000000aH
  00a63	75 13		 jne	 SHORT $LN2@RunJob
$LN1@RunJob:

; 196  : 	{
; 197  : 		iAnc = iReward[n].Anc;

  00a65	8b 45 e4	 mov	 eax, DWORD PTR _n$[ebp]
  00a68	c1 e0 05	 shl	 eax, 5
  00a6b	8b 4d fc	 mov	 ecx, DWORD PTR _this$[ebp]
  00a6e	8b 94 01 54 ae
	0f 00		 mov	 edx, DWORD PTR [ecx+eax+1027668]
  00a75	89 55 c8	 mov	 DWORD PTR _iAnc$[ebp], edx
$LN2@RunJob:

; 198  : 	}
; 199  : 
; 200  : 	ItemSerialCreateSend(aIndex,lpUser->MapNumber,lpUser->X,lpUser->Y,Type,iLevel,0,iSkill,iLuck,iOpt,aIndex,iExe,iAnc);

  00a78	0f b6 45 c8	 movzx	 eax, BYTE PTR _iAnc$[ebp]
  00a7c	50		 push	 eax
  00a7d	0f b6 4d cc	 movzx	 ecx, BYTE PTR _iExe$[ebp]
  00a81	51		 push	 ecx
  00a82	8b 55 08	 mov	 edx, DWORD PTR _aIndex$[ebp]
  00a85	52		 push	 edx
  00a86	0f b6 45 d0	 movzx	 eax, BYTE PTR _iOpt$[ebp]
  00a8a	50		 push	 eax
  00a8b	0f b6 4d d4	 movzx	 ecx, BYTE PTR _iLuck$[ebp]
  00a8f	51		 push	 ecx
  00a90	0f b6 55 d8	 movzx	 edx, BYTE PTR _iSkill$[ebp]
  00a94	52		 push	 edx
  00a95	6a 00		 push	 0
  00a97	0f b6 45 dc	 movzx	 eax, BYTE PTR _iLevel$[ebp]
  00a9b	50		 push	 eax
  00a9c	8b 4d e0	 mov	 ecx, DWORD PTR _Type$[ebp]
  00a9f	51		 push	 ecx
  00aa0	8b 55 f8	 mov	 edx, DWORD PTR _lpUser$[ebp]
  00aa3	0f b6 82 46 01
	00 00		 movzx	 eax, BYTE PTR [edx+326]
  00aaa	50		 push	 eax
  00aab	8b 4d f8	 mov	 ecx, DWORD PTR _lpUser$[ebp]
  00aae	0f b6 91 44 01
	00 00		 movzx	 edx, BYTE PTR [ecx+324]
  00ab5	52		 push	 edx
  00ab6	8b 45 f8	 mov	 eax, DWORD PTR _lpUser$[ebp]
  00ab9	0f b6 88 49 01
	00 00		 movzx	 ecx, BYTE PTR [eax+329]
  00ac0	51		 push	 ecx
  00ac1	8b 55 08	 mov	 edx, DWORD PTR _aIndex$[ebp]
  00ac4	52		 push	 edx
  00ac5	e8 00 00 00 00	 call	 ?ItemSerialCreateSend@@YAXHEEEHEEEEEHEE@Z ; ItemSerialCreateSend
  00aca	83 c4 34	 add	 esp, 52			; 00000034H

; 201  : 
; 202  : 	this->UserEvent[aIndex] = false;

  00acd	8b 45 fc	 mov	 eax, DWORD PTR _this$[ebp]
  00ad0	03 45 08	 add	 eax, DWORD PTR _aIndex$[ebp]
  00ad3	c6 80 b8 3a 00
	00 00		 mov	 BYTE PTR [eax+15032], 0

; 203  : 	this->iUserType[aIndex] = -1;

  00ada	8b 45 08	 mov	 eax, DWORD PTR _aIndex$[ebp]
  00add	8b 4d fc	 mov	 ecx, DWORD PTR _this$[ebp]
  00ae0	c7 84 81 50 75
	00 00 ff ff ff
	ff		 mov	 DWORD PTR [ecx+eax*4+30032], -1

; 204  : 	this->iUserIndex[aIndex] = -1;

  00aeb	8b 45 08	 mov	 eax, DWORD PTR _aIndex$[ebp]
  00aee	8b 4d fc	 mov	 ecx, DWORD PTR _this$[ebp]
  00af1	c7 84 81 b0 5f
	01 00 ff ff ff
	ff		 mov	 DWORD PTR [ecx+eax*4+90032], -1

; 205  : 	this->iUserLevel[aIndex] = -1;

  00afc	8b 45 08	 mov	 eax, DWORD PTR _aIndex$[ebp]
  00aff	8b 4d fc	 mov	 ecx, DWORD PTR _this$[ebp]
  00b02	c7 84 81 10 4a
	02 00 ff ff ff
	ff		 mov	 DWORD PTR [ecx+eax*4+150032], -1

; 206  : 	this->iUserCount[aIndex] = -1;

  00b0d	8b 45 08	 mov	 eax, DWORD PTR _aIndex$[ebp]
  00b10	8b 4d fc	 mov	 ecx, DWORD PTR _this$[ebp]
  00b13	c7 84 81 70 34
	03 00 ff ff ff
	ff		 mov	 DWORD PTR [ecx+eax*4+210032], -1

; 207  : 	this->iUserName[aIndex][0] = NULL;

  00b1e	8b 45 08	 mov	 eax, DWORD PTR _aIndex$[ebp]
  00b21	6b c0 32	 imul	 eax, 50			; 00000032H
  00b24	8b 4d fc	 mov	 ecx, DWORD PTR _this$[ebp]
  00b27	c6 84 01 d0 1e
	04 00 00	 mov	 BYTE PTR [ecx+eax+270032], 0
$LN6@RunJob:

; 208  : }

  00b2f	5f		 pop	 edi
  00b30	5e		 pop	 esi
  00b31	5b		 pop	 ebx
  00b32	8b e5		 mov	 esp, ebp
  00b34	5d		 pop	 ebp
  00b35	c2 04 00	 ret	 4
?RunJob@cBloodHound@@QAEXH@Z ENDP			; cBloodHound::RunJob
_TEXT	ENDS
PUBLIC	??_C@_0BE@GAKEJDCP@?$FLBloodHound?$FN?5Start?$CB?$AA@ ; `string'
PUBLIC	??_C@_0BC@MJHHMLN@?$FLBloodHound?$FN?5End?$CB?$AA@ ; `string'
PUBLIC	__$ArrayPad$
PUBLIC	?Times@cBloodHound@@QAEXXZ			; cBloodHound::Times
EXTRN	?GetSecond@CTimerEx@@QAEHXZ:PROC		; CTimerEx::GetSecond
EXTRN	?g_TimerEx@@3VCTimerEx@@A:DWORD			; g_TimerEx
EXTRN	__imp__GetLocalTime@4:PROC
EXTRN	?MessaageAllGlobal@@YAXPADZZ:PROC		; MessaageAllGlobal
;	COMDAT ??_C@_0BE@GAKEJDCP@?$FLBloodHound?$FN?5Start?$CB?$AA@
CONST	SEGMENT
??_C@_0BE@GAKEJDCP@?$FLBloodHound?$FN?5Start?$CB?$AA@ DB '[BloodHound] St'
	DB	'art!', 00H					; `string'
CONST	ENDS
;	COMDAT ??_C@_0BC@MJHHMLN@?$FLBloodHound?$FN?5End?$CB?$AA@
CONST	SEGMENT
??_C@_0BC@MJHHMLN@?$FLBloodHound?$FN?5End?$CB?$AA@ DB '[BloodHound] End!', 00H ; `string'
; Function compile flags: /Odtp /ZI
CONST	ENDS
_TEXT	SEGMENT
_lpUser$220155 = -40					; size = 4
_i$220151 = -36						; size = 4
_i$220146 = -32						; size = 4
_t$ = -28						; size = 16
_i$220139 = -12						; size = 4
_this$ = -8						; size = 4
__$ArrayPad$ = -4					; size = 4
?Times@cBloodHound@@QAEXXZ PROC				; cBloodHound::Times
; _this$ = ecx

; 211  : {

  00b40	55		 push	 ebp
  00b41	8b ec		 mov	 ebp, esp
  00b43	83 ec 68	 sub	 esp, 104		; 00000068H
  00b46	a1 00 00 00 00	 mov	 eax, DWORD PTR ___security_cookie
  00b4b	33 c5		 xor	 eax, ebp
  00b4d	89 45 fc	 mov	 DWORD PTR __$ArrayPad$[ebp], eax
  00b50	53		 push	 ebx
  00b51	56		 push	 esi
  00b52	57		 push	 edi
  00b53	89 4d f8	 mov	 DWORD PTR _this$[ebp], ecx

; 212  : 	if(!this->Enable)

  00b56	8b 45 f8	 mov	 eax, DWORD PTR _this$[ebp]
  00b59	83 38 00	 cmp	 DWORD PTR [eax], 0
  00b5c	75 05		 jne	 SHORT $LN15@Times

; 213  : 		return;

  00b5e	e9 a4 01 00 00	 jmp	 $LN16@Times
$LN15@Times:

; 214  : 
; 215  : 	if(this->StartEvent == true)

  00b63	8b 45 f8	 mov	 eax, DWORD PTR _this$[ebp]
  00b66	0f b6 48 18	 movzx	 ecx, BYTE PTR [eax+24]
  00b6a	83 f9 01	 cmp	 ecx, 1
  00b6d	0f 85 cd 00 00
	00		 jne	 $LN14@Times

; 216  : 	{
; 217  : 		this->TickEvent++;

  00b73	8b 45 f8	 mov	 eax, DWORD PTR _this$[ebp]
  00b76	8b 48 1c	 mov	 ecx, DWORD PTR [eax+28]
  00b79	83 c1 01	 add	 ecx, 1
  00b7c	8b 55 f8	 mov	 edx, DWORD PTR _this$[ebp]
  00b7f	89 4a 1c	 mov	 DWORD PTR [edx+28], ecx

; 218  : 		if(this->TickEvent >= this->EventTime)

  00b82	8b 45 f8	 mov	 eax, DWORD PTR _this$[ebp]
  00b85	8b 4d f8	 mov	 ecx, DWORD PTR _this$[ebp]
  00b88	8b 50 1c	 mov	 edx, DWORD PTR [eax+28]
  00b8b	3b 51 14	 cmp	 edx, DWORD PTR [ecx+20]
  00b8e	0f 8c a7 00 00
	00		 jl	 $LN13@Times

; 219  : 		{
; 220  : 			this->StartEvent = false;

  00b94	8b 45 f8	 mov	 eax, DWORD PTR _this$[ebp]
  00b97	c6 40 18 00	 mov	 BYTE PTR [eax+24], 0

; 221  : 			this->TickEvent = 0;

  00b9b	8b 45 f8	 mov	 eax, DWORD PTR _this$[ebp]
  00b9e	c7 40 1c 00 00
	00 00		 mov	 DWORD PTR [eax+28], 0

; 222  : 			for(int i=OBJ_MAXMONSTER; i<OBJMAX; i++)

  00ba5	c7 45 f4 c8 32
	00 00		 mov	 DWORD PTR _i$220139[ebp], 13000 ; 000032c8H
  00bac	eb 09		 jmp	 SHORT $LN12@Times
$LN11@Times:
  00bae	8b 45 f4	 mov	 eax, DWORD PTR _i$220139[ebp]
  00bb1	83 c0 01	 add	 eax, 1
  00bb4	89 45 f4	 mov	 DWORD PTR _i$220139[ebp], eax
$LN12@Times:
  00bb7	81 7d f4 98 3a
	00 00		 cmp	 DWORD PTR _i$220139[ebp], 15000 ; 00003a98H
  00bbe	7d 6e		 jge	 SHORT $LN10@Times

; 223  : 			{
; 224  : 				this->UserCheck[i] = false;

  00bc0	8b 45 f8	 mov	 eax, DWORD PTR _this$[ebp]
  00bc3	03 45 f4	 add	 eax, DWORD PTR _i$220139[ebp]
  00bc6	c6 40 20 00	 mov	 BYTE PTR [eax+32], 0

; 225  : 				this->UserEvent[i] = false;

  00bca	8b 45 f8	 mov	 eax, DWORD PTR _this$[ebp]
  00bcd	03 45 f4	 add	 eax, DWORD PTR _i$220139[ebp]
  00bd0	c6 80 b8 3a 00
	00 00		 mov	 BYTE PTR [eax+15032], 0

; 226  : 				this->iUserType[i] = -1;

  00bd7	8b 45 f4	 mov	 eax, DWORD PTR _i$220139[ebp]
  00bda	8b 4d f8	 mov	 ecx, DWORD PTR _this$[ebp]
  00bdd	c7 84 81 50 75
	00 00 ff ff ff
	ff		 mov	 DWORD PTR [ecx+eax*4+30032], -1

; 227  : 				this->iUserIndex[i] = -1;

  00be8	8b 45 f4	 mov	 eax, DWORD PTR _i$220139[ebp]
  00beb	8b 4d f8	 mov	 ecx, DWORD PTR _this$[ebp]
  00bee	c7 84 81 b0 5f
	01 00 ff ff ff
	ff		 mov	 DWORD PTR [ecx+eax*4+90032], -1

; 228  : 				this->iUserLevel[i] = -1;

  00bf9	8b 45 f4	 mov	 eax, DWORD PTR _i$220139[ebp]
  00bfc	8b 4d f8	 mov	 ecx, DWORD PTR _this$[ebp]
  00bff	c7 84 81 10 4a
	02 00 ff ff ff
	ff		 mov	 DWORD PTR [ecx+eax*4+150032], -1

; 229  : 				this->iUserCount[i] = -1;

  00c0a	8b 45 f4	 mov	 eax, DWORD PTR _i$220139[ebp]
  00c0d	8b 4d f8	 mov	 ecx, DWORD PTR _this$[ebp]
  00c10	c7 84 81 70 34
	03 00 ff ff ff
	ff		 mov	 DWORD PTR [ecx+eax*4+210032], -1

; 230  : 				this->iUserName[i][0] = NULL;

  00c1b	8b 45 f4	 mov	 eax, DWORD PTR _i$220139[ebp]
  00c1e	6b c0 32	 imul	 eax, 50			; 00000032H
  00c21	8b 4d f8	 mov	 ecx, DWORD PTR _this$[ebp]
  00c24	c6 84 01 d0 1e
	04 00 00	 mov	 BYTE PTR [ecx+eax+270032], 0

; 231  : 			}

  00c2c	eb 80		 jmp	 SHORT $LN11@Times
$LN10@Times:

; 232  : 			
; 233  : 			MessaageAllGlobal("[BloodHound] End!");

  00c2e	68 00 00 00 00	 push	 OFFSET ??_C@_0BC@MJHHMLN@?$FLBloodHound?$FN?5End?$CB?$AA@
  00c33	e8 00 00 00 00	 call	 ?MessaageAllGlobal@@YAXPADZZ ; MessaageAllGlobal
  00c38	83 c4 04	 add	 esp, 4
$LN13@Times:

; 234  : 		}
; 235  : 		return;

  00c3b	e9 c7 00 00 00	 jmp	 $LN16@Times
$LN14@Times:

; 236  : 	}
; 237  : 
; 238  : 	SYSTEMTIME t;
; 239  : 	GetLocalTime(&t);

  00c40	8d 45 e4	 lea	 eax, DWORD PTR _t$[ebp]
  00c43	50		 push	 eax
  00c44	ff 15 00 00 00
	00		 call	 DWORD PTR __imp__GetLocalTime@4

; 240  : 
; 241  : #if(NEWTIMEREX)
; 242  : 	if(g_TimerEx.GetSecond() == 00)

  00c4a	b9 00 00 00 00	 mov	 ecx, OFFSET ?g_TimerEx@@3VCTimerEx@@A ; g_TimerEx
  00c4f	e8 00 00 00 00	 call	 ?GetSecond@CTimerEx@@QAEHXZ ; CTimerEx::GetSecond
  00c54	85 c0		 test	 eax, eax
  00c56	0f 85 ab 00 00
	00		 jne	 $LN16@Times

; 243  : #else
; 244  : 	if(t.wSecond == 00)
; 245  : #endif
; 246  : 	{
; 247  : 		for(int i = 0; i < this->tCount; i++)

  00c5c	c7 45 e0 00 00
	00 00		 mov	 DWORD PTR _i$220146[ebp], 0
  00c63	eb 09		 jmp	 SHORT $LN8@Times
$LN7@Times:
  00c65	8b 45 e0	 mov	 eax, DWORD PTR _i$220146[ebp]
  00c68	83 c0 01	 add	 eax, 1
  00c6b	89 45 e0	 mov	 DWORD PTR _i$220146[ebp], eax
$LN8@Times:
  00c6e	8b 45 f8	 mov	 eax, DWORD PTR _this$[ebp]
  00c71	8b 4d e0	 mov	 ecx, DWORD PTR _i$220146[ebp]
  00c74	3b 88 a0 93 0f
	00		 cmp	 ecx, DWORD PTR [eax+1020832]
  00c7a	0f 8d 87 00 00
	00		 jge	 $LN16@Times

; 248  : 		{
; 249  : 			if(this->sTime[i].Hour == t.wHour && this->sTime[i].Minute == t.wMinute)

  00c80	0f b7 45 ec	 movzx	 eax, WORD PTR _t$[ebp+8]
  00c84	8b 4d e0	 mov	 ecx, DWORD PTR _i$220146[ebp]
  00c87	8b 55 f8	 mov	 edx, DWORD PTR _this$[ebp]
  00c8a	39 84 ca 80 90
	0f 00		 cmp	 DWORD PTR [edx+ecx*8+1020032], eax
  00c91	75 6f		 jne	 SHORT $LN5@Times
  00c93	0f b7 45 ee	 movzx	 eax, WORD PTR _t$[ebp+10]
  00c97	8b 4d e0	 mov	 ecx, DWORD PTR _i$220146[ebp]
  00c9a	8b 55 f8	 mov	 edx, DWORD PTR _this$[ebp]
  00c9d	39 84 ca 84 90
	0f 00		 cmp	 DWORD PTR [edx+ecx*8+1020036], eax
  00ca4	75 5c		 jne	 SHORT $LN5@Times

; 250  : 			{
; 251  : 				this->StartEvent = true;

  00ca6	8b 45 f8	 mov	 eax, DWORD PTR _this$[ebp]
  00ca9	c6 40 18 01	 mov	 BYTE PTR [eax+24], 1

; 252  : 				for(int i=OBJ_MAXMONSTER; i<OBJMAX; i++)

  00cad	c7 45 dc c8 32
	00 00		 mov	 DWORD PTR _i$220151[ebp], 13000 ; 000032c8H
  00cb4	eb 09		 jmp	 SHORT $LN4@Times
$LN3@Times:
  00cb6	8b 45 dc	 mov	 eax, DWORD PTR _i$220151[ebp]
  00cb9	83 c0 01	 add	 eax, 1
  00cbc	89 45 dc	 mov	 DWORD PTR _i$220151[ebp], eax
$LN4@Times:
  00cbf	81 7d dc 98 3a
	00 00		 cmp	 DWORD PTR _i$220151[ebp], 15000 ; 00003a98H
  00cc6	7d 2b		 jge	 SHORT $LN2@Times

; 253  : 				{
; 254  : 					LPOBJ lpUser = &gObj[i];

  00cc8	8b 45 dc	 mov	 eax, DWORD PTR _i$220151[ebp]
  00ccb	69 c0 38 2b 00
	00		 imul	 eax, 11064		; 00002b38H
  00cd1	03 05 00 00 00
	00		 add	 eax, DWORD PTR ?gObj@@3PAUOBJECTSTRUCT@@A ; gObj
  00cd7	89 45 d8	 mov	 DWORD PTR _lpUser$220155[ebp], eax

; 255  : 					if(gObj->Connected != PLAYER_PLAYING)

  00cda	a1 00 00 00 00	 mov	 eax, DWORD PTR ?gObj@@3PAUOBJECTSTRUCT@@A ; gObj
  00cdf	83 78 04 03	 cmp	 DWORD PTR [eax+4], 3
  00ce3	74 02		 je	 SHORT $LN1@Times

; 256  : 						continue;

  00ce5	eb cf		 jmp	 SHORT $LN3@Times
$LN1@Times:

; 257  : 					this->UserCheck[i] = true;

  00ce7	8b 45 f8	 mov	 eax, DWORD PTR _this$[ebp]
  00cea	03 45 dc	 add	 eax, DWORD PTR _i$220151[ebp]
  00ced	c6 40 20 01	 mov	 BYTE PTR [eax+32], 1

; 258  : 				}

  00cf1	eb c3		 jmp	 SHORT $LN3@Times
$LN2@Times:

; 259  : 				MessaageAllGlobal("[BloodHound] Start!");

  00cf3	68 00 00 00 00	 push	 OFFSET ??_C@_0BE@GAKEJDCP@?$FLBloodHound?$FN?5Start?$CB?$AA@
  00cf8	e8 00 00 00 00	 call	 ?MessaageAllGlobal@@YAXPADZZ ; MessaageAllGlobal
  00cfd	83 c4 04	 add	 esp, 4

; 260  : 
; 261  : 				return;

  00d00	eb 05		 jmp	 SHORT $LN16@Times
$LN5@Times:

; 262  : 			}
; 263  : 		}

  00d02	e9 5e ff ff ff	 jmp	 $LN7@Times
$LN16@Times:

; 264  : 	}
; 265  : }

  00d07	5f		 pop	 edi
  00d08	5e		 pop	 esi
  00d09	5b		 pop	 ebx
  00d0a	8b 4d fc	 mov	 ecx, DWORD PTR __$ArrayPad$[ebp]
  00d0d	33 cd		 xor	 ecx, ebp
  00d0f	e8 00 00 00 00	 call	 @__security_check_cookie@4
  00d14	8b e5		 mov	 esp, ebp
  00d16	5d		 pop	 ebp
  00d17	c3		 ret	 0
?Times@cBloodHound@@QAEXXZ ENDP				; cBloodHound::Times
_TEXT	ENDS
END
