; Listing generated by Microsoft (R) Optimizing Compiler Version 16.00.40219.01 

	TITLE	D:\Projects\ExTeam6.3\Source\GameServer\GameServer\BMQuest.cpp
	.686P
	.XMM
	include listing.inc
	.model	flat

INCLUDELIB LIBCMT
INCLUDELIB OLDNAMES

PUBLIC	??_H@YGXPAXIHP6EPAX0@Z@Z			; `vector constructor iterator'
; Function compile flags: /Odtp /ZI
;	COMDAT ??_H@YGXPAXIHP6EPAX0@Z@Z
_TEXT	SEGMENT
___t$ = 8						; size = 4
___s$ = 12						; size = 4
___n$ = 16						; size = 4
___f$ = 20						; size = 4
??_H@YGXPAXIHP6EPAX0@Z@Z PROC				; `vector constructor iterator', COMDAT
  00000	55		 push	 ebp
  00001	8b ec		 mov	 ebp, esp
  00003	83 ec 40	 sub	 esp, 64			; 00000040H
  00006	53		 push	 ebx
  00007	56		 push	 esi
  00008	57		 push	 edi
$LN2@vector:
  00009	8b 45 10	 mov	 eax, DWORD PTR ___n$[ebp]
  0000c	83 e8 01	 sub	 eax, 1
  0000f	89 45 10	 mov	 DWORD PTR ___n$[ebp], eax
  00012	78 11		 js	 SHORT $LN3@vector
  00014	8b 4d 08	 mov	 ecx, DWORD PTR ___t$[ebp]
  00017	ff 55 14	 call	 DWORD PTR ___f$[ebp]
  0001a	8b 45 08	 mov	 eax, DWORD PTR ___t$[ebp]
  0001d	03 45 0c	 add	 eax, DWORD PTR ___s$[ebp]
  00020	89 45 08	 mov	 DWORD PTR ___t$[ebp], eax
  00023	eb e4		 jmp	 SHORT $LN2@vector
$LN3@vector:
  00025	5f		 pop	 edi
  00026	5e		 pop	 esi
  00027	5b		 pop	 ebx
  00028	8b e5		 mov	 esp, ebp
  0002a	5d		 pop	 ebp
  0002b	c2 10 00	 ret	 16			; 00000010H
??_H@YGXPAXIHP6EPAX0@Z@Z ENDP				; `vector constructor iterator'
_TEXT	ENDS
PUBLIC	??_C@_0N@MNCBHHPO@RandOptNPC_Y?$AA@		; `string'
PUBLIC	??_C@_0N@NEDKEGLP@RandOptNPC_X?$AA@		; `string'
PUBLIC	??_C@_0P@PNAPPNKE@RandOptNPC_Map?$AA@		; `string'
PUBLIC	??_C@_0BB@HBPNGDEE@RandOptNPC_Class?$AA@	; `string'
PUBLIC	??_C@_05CCGMLFNG@Reset?$AA@			; `string'
PUBLIC	??_C@_05MGEEICMI@NPC_Y?$AA@			; `string'
PUBLIC	??_C@_05NPFPLDIJ@NPC_X?$AA@			; `string'
PUBLIC	??_C@_07LJMEGBCH@NPC_Map?$AA@			; `string'
PUBLIC	??_C@_03BCJIDNJL@NPC?$AA@			; `string'
PUBLIC	??_C@_06POMJKEPM@Common?$AA@			; `string'
PUBLIC	??_C@_06CKGENIKG@Enable?$AA@			; `string'
PUBLIC	??_C@_0BL@EEAKADGM@?4?4?2Data?2ExData?2BMQuest?4ini?$AA@ ; `string'
PUBLIC	?StartConfig@cBMQuest@@QAEXXZ			; cBMQuest::StartConfig
EXTRN	__imp__GetPrivateProfileIntA@16:PROC
;	COMDAT ??_C@_0N@MNCBHHPO@RandOptNPC_Y?$AA@
; File d:\projects\exteam6.3\source\gameserver\gameserver\bmquest.cpp
CONST	SEGMENT
??_C@_0N@MNCBHHPO@RandOptNPC_Y?$AA@ DB 'RandOptNPC_Y', 00H ; `string'
CONST	ENDS
;	COMDAT ??_C@_0N@NEDKEGLP@RandOptNPC_X?$AA@
CONST	SEGMENT
??_C@_0N@NEDKEGLP@RandOptNPC_X?$AA@ DB 'RandOptNPC_X', 00H ; `string'
CONST	ENDS
;	COMDAT ??_C@_0P@PNAPPNKE@RandOptNPC_Map?$AA@
CONST	SEGMENT
??_C@_0P@PNAPPNKE@RandOptNPC_Map?$AA@ DB 'RandOptNPC_Map', 00H ; `string'
CONST	ENDS
;	COMDAT ??_C@_0BB@HBPNGDEE@RandOptNPC_Class?$AA@
CONST	SEGMENT
??_C@_0BB@HBPNGDEE@RandOptNPC_Class?$AA@ DB 'RandOptNPC_Class', 00H ; `string'
CONST	ENDS
;	COMDAT ??_C@_05CCGMLFNG@Reset?$AA@
CONST	SEGMENT
??_C@_05CCGMLFNG@Reset?$AA@ DB 'Reset', 00H		; `string'
CONST	ENDS
;	COMDAT ??_C@_05MGEEICMI@NPC_Y?$AA@
CONST	SEGMENT
??_C@_05MGEEICMI@NPC_Y?$AA@ DB 'NPC_Y', 00H		; `string'
CONST	ENDS
;	COMDAT ??_C@_05NPFPLDIJ@NPC_X?$AA@
CONST	SEGMENT
??_C@_05NPFPLDIJ@NPC_X?$AA@ DB 'NPC_X', 00H		; `string'
CONST	ENDS
;	COMDAT ??_C@_07LJMEGBCH@NPC_Map?$AA@
CONST	SEGMENT
??_C@_07LJMEGBCH@NPC_Map?$AA@ DB 'NPC_Map', 00H		; `string'
CONST	ENDS
;	COMDAT ??_C@_03BCJIDNJL@NPC?$AA@
CONST	SEGMENT
??_C@_03BCJIDNJL@NPC?$AA@ DB 'NPC', 00H			; `string'
CONST	ENDS
;	COMDAT ??_C@_06POMJKEPM@Common?$AA@
CONST	SEGMENT
??_C@_06POMJKEPM@Common?$AA@ DB 'Common', 00H		; `string'
CONST	ENDS
;	COMDAT ??_C@_06CKGENIKG@Enable?$AA@
CONST	SEGMENT
??_C@_06CKGENIKG@Enable?$AA@ DB 'Enable', 00H		; `string'
CONST	ENDS
;	COMDAT ??_C@_0BL@EEAKADGM@?4?4?2Data?2ExData?2BMQuest?4ini?$AA@
CONST	SEGMENT
??_C@_0BL@EEAKADGM@?4?4?2Data?2ExData?2BMQuest?4ini?$AA@ DB '..\Data\ExDa'
	DB	'ta\BMQuest.ini', 00H			; `string'
; Function compile flags: /Odtp /ZI
CONST	ENDS
_TEXT	SEGMENT
_j$220046 = -12						; size = 4
_i$220042 = -8						; size = 4
_this$ = -4						; size = 4
?StartConfig@cBMQuest@@QAEXXZ PROC			; cBMQuest::StartConfig
; _this$ = ecx

; 14   : {

  00000	55		 push	 ebp
  00001	8b ec		 mov	 ebp, esp
  00003	83 ec 4c	 sub	 esp, 76			; 0000004cH
  00006	53		 push	 ebx
  00007	56		 push	 esi
  00008	57		 push	 edi
  00009	89 4d fc	 mov	 DWORD PTR _this$[ebp], ecx

; 15   : 	Enable = GetPrivateProfileInt("Common","Enable",0,_DIR_BMQUEST);

  0000c	68 00 00 00 00	 push	 OFFSET ??_C@_0BL@EEAKADGM@?4?4?2Data?2ExData?2BMQuest?4ini?$AA@
  00011	6a 00		 push	 0
  00013	68 00 00 00 00	 push	 OFFSET ??_C@_06CKGENIKG@Enable?$AA@
  00018	68 00 00 00 00	 push	 OFFSET ??_C@_06POMJKEPM@Common?$AA@
  0001d	ff 15 00 00 00
	00		 call	 DWORD PTR __imp__GetPrivateProfileIntA@16
  00023	8b 4d fc	 mov	 ecx, DWORD PTR _this$[ebp]
  00026	89 81 00 db 1a
	00		 mov	 DWORD PTR [ecx+1760000], eax

; 16   : 	NPC = GetPrivateProfileInt("Common","NPC",0,_DIR_BMQUEST);

  0002c	68 00 00 00 00	 push	 OFFSET ??_C@_0BL@EEAKADGM@?4?4?2Data?2ExData?2BMQuest?4ini?$AA@
  00031	6a 00		 push	 0
  00033	68 00 00 00 00	 push	 OFFSET ??_C@_03BCJIDNJL@NPC?$AA@
  00038	68 00 00 00 00	 push	 OFFSET ??_C@_06POMJKEPM@Common?$AA@
  0003d	ff 15 00 00 00
	00		 call	 DWORD PTR __imp__GetPrivateProfileIntA@16
  00043	8b 4d fc	 mov	 ecx, DWORD PTR _this$[ebp]
  00046	89 81 04 db 1a
	00		 mov	 DWORD PTR [ecx+1760004], eax

; 17   : 	NPC_Map = GetPrivateProfileInt("Common","NPC_Map",0,_DIR_BMQUEST);

  0004c	68 00 00 00 00	 push	 OFFSET ??_C@_0BL@EEAKADGM@?4?4?2Data?2ExData?2BMQuest?4ini?$AA@
  00051	6a 00		 push	 0
  00053	68 00 00 00 00	 push	 OFFSET ??_C@_07LJMEGBCH@NPC_Map?$AA@
  00058	68 00 00 00 00	 push	 OFFSET ??_C@_06POMJKEPM@Common?$AA@
  0005d	ff 15 00 00 00
	00		 call	 DWORD PTR __imp__GetPrivateProfileIntA@16
  00063	8b 4d fc	 mov	 ecx, DWORD PTR _this$[ebp]
  00066	89 81 08 db 1a
	00		 mov	 DWORD PTR [ecx+1760008], eax

; 18   : 	NPC_X = GetPrivateProfileInt("Common","NPC_X",0,_DIR_BMQUEST);

  0006c	68 00 00 00 00	 push	 OFFSET ??_C@_0BL@EEAKADGM@?4?4?2Data?2ExData?2BMQuest?4ini?$AA@
  00071	6a 00		 push	 0
  00073	68 00 00 00 00	 push	 OFFSET ??_C@_05NPFPLDIJ@NPC_X?$AA@
  00078	68 00 00 00 00	 push	 OFFSET ??_C@_06POMJKEPM@Common?$AA@
  0007d	ff 15 00 00 00
	00		 call	 DWORD PTR __imp__GetPrivateProfileIntA@16
  00083	8b 4d fc	 mov	 ecx, DWORD PTR _this$[ebp]
  00086	89 81 0c db 1a
	00		 mov	 DWORD PTR [ecx+1760012], eax

; 19   : 	NPC_Y = GetPrivateProfileInt("Common","NPC_Y",0,_DIR_BMQUEST);

  0008c	68 00 00 00 00	 push	 OFFSET ??_C@_0BL@EEAKADGM@?4?4?2Data?2ExData?2BMQuest?4ini?$AA@
  00091	6a 00		 push	 0
  00093	68 00 00 00 00	 push	 OFFSET ??_C@_05MGEEICMI@NPC_Y?$AA@
  00098	68 00 00 00 00	 push	 OFFSET ??_C@_06POMJKEPM@Common?$AA@
  0009d	ff 15 00 00 00
	00		 call	 DWORD PTR __imp__GetPrivateProfileIntA@16
  000a3	8b 4d fc	 mov	 ecx, DWORD PTR _this$[ebp]
  000a6	89 81 10 db 1a
	00		 mov	 DWORD PTR [ecx+1760016], eax

; 20   : 	Reset = GetPrivateProfileInt("Common","Reset",0,_DIR_BMQUEST);

  000ac	68 00 00 00 00	 push	 OFFSET ??_C@_0BL@EEAKADGM@?4?4?2Data?2ExData?2BMQuest?4ini?$AA@
  000b1	6a 00		 push	 0
  000b3	68 00 00 00 00	 push	 OFFSET ??_C@_05CCGMLFNG@Reset?$AA@
  000b8	68 00 00 00 00	 push	 OFFSET ??_C@_06POMJKEPM@Common?$AA@
  000bd	ff 15 00 00 00
	00		 call	 DWORD PTR __imp__GetPrivateProfileIntA@16
  000c3	8b 4d fc	 mov	 ecx, DWORD PTR _this$[ebp]
  000c6	89 81 14 db 1a
	00		 mov	 DWORD PTR [ecx+1760020], eax

; 21   : 
; 22   : 	this->m_sRandOptNPC_Class = GetPrivateProfileInt("Common","RandOptNPC_Class",0,_DIR_BMQUEST);

  000cc	68 00 00 00 00	 push	 OFFSET ??_C@_0BL@EEAKADGM@?4?4?2Data?2ExData?2BMQuest?4ini?$AA@
  000d1	6a 00		 push	 0
  000d3	68 00 00 00 00	 push	 OFFSET ??_C@_0BB@HBPNGDEE@RandOptNPC_Class?$AA@
  000d8	68 00 00 00 00	 push	 OFFSET ??_C@_06POMJKEPM@Common?$AA@
  000dd	ff 15 00 00 00
	00		 call	 DWORD PTR __imp__GetPrivateProfileIntA@16
  000e3	8b 4d fc	 mov	 ecx, DWORD PTR _this$[ebp]
  000e6	66 89 81 38 db
	1a 00		 mov	 WORD PTR [ecx+1760056], ax

; 23   : 	this->m_btRandOptNPC_Map = GetPrivateProfileInt("Common","RandOptNPC_Map",0,_DIR_BMQUEST);

  000ed	68 00 00 00 00	 push	 OFFSET ??_C@_0BL@EEAKADGM@?4?4?2Data?2ExData?2BMQuest?4ini?$AA@
  000f2	6a 00		 push	 0
  000f4	68 00 00 00 00	 push	 OFFSET ??_C@_0P@PNAPPNKE@RandOptNPC_Map?$AA@
  000f9	68 00 00 00 00	 push	 OFFSET ??_C@_06POMJKEPM@Common?$AA@
  000fe	ff 15 00 00 00
	00		 call	 DWORD PTR __imp__GetPrivateProfileIntA@16
  00104	8b 4d fc	 mov	 ecx, DWORD PTR _this$[ebp]
  00107	88 81 3a db 1a
	00		 mov	 BYTE PTR [ecx+1760058], al

; 24   : 	this->m_btRandOptNPC_X = GetPrivateProfileInt("Common","RandOptNPC_X",0,_DIR_BMQUEST);

  0010d	68 00 00 00 00	 push	 OFFSET ??_C@_0BL@EEAKADGM@?4?4?2Data?2ExData?2BMQuest?4ini?$AA@
  00112	6a 00		 push	 0
  00114	68 00 00 00 00	 push	 OFFSET ??_C@_0N@NEDKEGLP@RandOptNPC_X?$AA@
  00119	68 00 00 00 00	 push	 OFFSET ??_C@_06POMJKEPM@Common?$AA@
  0011e	ff 15 00 00 00
	00		 call	 DWORD PTR __imp__GetPrivateProfileIntA@16
  00124	8b 4d fc	 mov	 ecx, DWORD PTR _this$[ebp]
  00127	88 81 3b db 1a
	00		 mov	 BYTE PTR [ecx+1760059], al

; 25   : 	this->m_btRandOptNPC_Y = GetPrivateProfileInt("Common","RandOptNPC_Y",0,_DIR_BMQUEST);

  0012d	68 00 00 00 00	 push	 OFFSET ??_C@_0BL@EEAKADGM@?4?4?2Data?2ExData?2BMQuest?4ini?$AA@
  00132	6a 00		 push	 0
  00134	68 00 00 00 00	 push	 OFFSET ??_C@_0N@MNCBHHPO@RandOptNPC_Y?$AA@
  00139	68 00 00 00 00	 push	 OFFSET ??_C@_06POMJKEPM@Common?$AA@
  0013e	ff 15 00 00 00
	00		 call	 DWORD PTR __imp__GetPrivateProfileIntA@16
  00144	8b 4d fc	 mov	 ecx, DWORD PTR _this$[ebp]
  00147	88 81 3c db 1a
	00		 mov	 BYTE PTR [ecx+1760060], al

; 26   : 
; 27   : 	for (int i(0);i<_MAX_CLASS_BMQUEST;i++)

  0014d	c7 45 f8 00 00
	00 00		 mov	 DWORD PTR _i$220042[ebp], 0
  00154	eb 09		 jmp	 SHORT $LN6@StartConfi
$LN5@StartConfi:
  00156	8b 45 f8	 mov	 eax, DWORD PTR _i$220042[ebp]
  00159	83 c0 01	 add	 eax, 1
  0015c	89 45 f8	 mov	 DWORD PTR _i$220042[ebp], eax
$LN6@StartConfi:
  0015f	83 7d f8 08	 cmp	 DWORD PTR _i$220042[ebp], 8
  00163	0f 8d ed 00 00
	00		 jge	 $LN7@StartConfi

; 28   : 	{
; 29   : 		for(int j(0);j<_MAX_BMQUEST;j++)

  00169	c7 45 f4 00 00
	00 00		 mov	 DWORD PTR _j$220046[ebp], 0
  00170	eb 09		 jmp	 SHORT $LN3@StartConfi
$LN2@StartConfi:
  00172	8b 45 f4	 mov	 eax, DWORD PTR _j$220046[ebp]
  00175	83 c0 01	 add	 eax, 1
  00178	89 45 f4	 mov	 DWORD PTR _j$220046[ebp], eax
$LN3@StartConfi:
  0017b	81 7d f4 e8 03
	00 00		 cmp	 DWORD PTR _j$220046[ebp], 1000 ; 000003e8H
  00182	0f 8d c9 00 00
	00		 jge	 $LN1@StartConfi

; 30   : 		{
; 31   : 			Quest[i][j].Mob = 0;

  00188	8b 45 f8	 mov	 eax, DWORD PTR _i$220042[ebp]
  0018b	69 c0 60 5b 03
	00		 imul	 eax, 220000		; 00035b60H
  00191	03 45 fc	 add	 eax, DWORD PTR _this$[ebp]
  00194	8b 4d f4	 mov	 ecx, DWORD PTR _j$220046[ebp]
  00197	69 c9 dc 00 00
	00		 imul	 ecx, 220		; 000000dcH
  0019d	c7 04 08 00 00
	00 00		 mov	 DWORD PTR [eax+ecx], 0

; 32   : 			Quest[i][j].Coun = 0;

  001a4	8b 45 f8	 mov	 eax, DWORD PTR _i$220042[ebp]
  001a7	69 c0 60 5b 03
	00		 imul	 eax, 220000		; 00035b60H
  001ad	03 45 fc	 add	 eax, DWORD PTR _this$[ebp]
  001b0	8b 4d f4	 mov	 ecx, DWORD PTR _j$220046[ebp]
  001b3	69 c9 dc 00 00
	00		 imul	 ecx, 220		; 000000dcH
  001b9	c7 44 08 04 00
	00 00 00	 mov	 DWORD PTR [eax+ecx+4], 0

; 33   : 			Quest[i][j].proc = 0;

  001c1	8b 45 f8	 mov	 eax, DWORD PTR _i$220042[ebp]
  001c4	69 c0 60 5b 03
	00		 imul	 eax, 220000		; 00035b60H
  001ca	03 45 fc	 add	 eax, DWORD PTR _this$[ebp]
  001cd	8b 4d f4	 mov	 ecx, DWORD PTR _j$220046[ebp]
  001d0	69 c9 dc 00 00
	00		 imul	 ecx, 220		; 000000dcH
  001d6	c7 44 08 08 00
	00 00 00	 mov	 DWORD PTR [eax+ecx+8], 0

; 34   : 			Quest[i][j].rew = 0;

  001de	8b 45 f8	 mov	 eax, DWORD PTR _i$220042[ebp]
  001e1	69 c0 60 5b 03
	00		 imul	 eax, 220000		; 00035b60H
  001e7	03 45 fc	 add	 eax, DWORD PTR _this$[ebp]
  001ea	8b 4d f4	 mov	 ecx, DWORD PTR _j$220046[ebp]
  001ed	69 c9 dc 00 00
	00		 imul	 ecx, 220		; 000000dcH
  001f3	c7 44 08 0c 00
	00 00 00	 mov	 DWORD PTR [eax+ecx+12], 0

; 35   : 			Quest[i][j].gift = 0;

  001fb	8b 45 f8	 mov	 eax, DWORD PTR _i$220042[ebp]
  001fe	69 c0 60 5b 03
	00		 imul	 eax, 220000		; 00035b60H
  00204	03 45 fc	 add	 eax, DWORD PTR _this$[ebp]
  00207	8b 4d f4	 mov	 ecx, DWORD PTR _j$220046[ebp]
  0020a	69 c9 dc 00 00
	00		 imul	 ecx, 220		; 000000dcH
  00210	c7 44 08 10 00
	00 00 00	 mov	 DWORD PTR [eax+ecx+16], 0

; 36   : 			Quest[i][j].msg[0] = NULL;

  00218	8b 45 f8	 mov	 eax, DWORD PTR _i$220042[ebp]
  0021b	69 c0 60 5b 03
	00		 imul	 eax, 220000		; 00035b60H
  00221	03 45 fc	 add	 eax, DWORD PTR _this$[ebp]
  00224	8b 4d f4	 mov	 ecx, DWORD PTR _j$220046[ebp]
  00227	69 c9 dc 00 00
	00		 imul	 ecx, 220		; 000000dcH
  0022d	c6 44 08 14 00	 mov	 BYTE PTR [eax+ecx+20], 0

; 37   : 			Quest[i][j].msg2[0] = NULL;

  00232	8b 45 f8	 mov	 eax, DWORD PTR _i$220042[ebp]
  00235	69 c0 60 5b 03
	00		 imul	 eax, 220000		; 00035b60H
  0023b	03 45 fc	 add	 eax, DWORD PTR _this$[ebp]
  0023e	8b 4d f4	 mov	 ecx, DWORD PTR _j$220046[ebp]
  00241	69 c9 dc 00 00
	00		 imul	 ecx, 220		; 000000dcH
  00247	c6 44 08 78 00	 mov	 BYTE PTR [eax+ecx+120], 0

; 38   : 		}

  0024c	e9 21 ff ff ff	 jmp	 $LN2@StartConfi
$LN1@StartConfi:

; 39   : 	}

  00251	e9 00 ff ff ff	 jmp	 $LN5@StartConfi
$LN7@StartConfi:

; 40   : }

  00256	5f		 pop	 edi
  00257	5e		 pop	 esi
  00258	5b		 pop	 ebx
  00259	8b e5		 mov	 esp, ebp
  0025b	5d		 pop	 ebp
  0025c	c3		 ret	 0
?StartConfig@cBMQuest@@QAEXXZ ENDP			; cBMQuest::StartConfig
_TEXT	ENDS
PUBLIC	?push_back@?$vector@UBMQuestRandOpt_DATA@@V?$allocator@UBMQuestRandOpt_DATA@@@std@@@std@@QAEXABUBMQuestRandOpt_DATA@@@Z ; std::vector<BMQuestRandOpt_DATA,std::allocator<BMQuestRandOpt_DATA> >::push_back
PUBLIC	??_C@_0BI@HDMMBKBM@?$CFd?5?$CFd?5?$CFd?5?$CFd?5?$CFd?5?$CFd?5?$CFd?5?$CFd?$AA@ ; `string'
PUBLIC	??_C@_02DKCKIIND@?$CFs?$AA@			; `string'
PUBLIC	??_C@_0BP@KENEOMOO@?$CFd?5?$CFd?5?$CFd?5?$CFd?5?$CFd?5?$CC?$CF?$FL?$FO?$CC?$FN?$CC?5?$CC?$CF?$FL?$FO?$CC?$FN?$CC?$AA@ ; `string'
PUBLIC	??_C@_0CD@MFFGJBPI@Data?2ExData?2BMQuest?4ini?5Load?5Err@ ; `string'
PUBLIC	??_C@_0P@BPENEPNJ@CRITICAL?5ERROR?$AA@		; `string'
PUBLIC	??_C@_01KDCPPGHE@r?$AA@				; `string'
PUBLIC	?clear@?$vector@UBMQuestRandOpt_DATA@@V?$allocator@UBMQuestRandOpt_DATA@@@std@@@std@@QAEXXZ ; std::vector<BMQuestRandOpt_DATA,std::allocator<BMQuestRandOpt_DATA> >::clear
PUBLIC	__$ArrayPad$
PUBLIC	?StartUP@cBMQuest@@QAEXXZ			; cBMQuest::StartUP
EXTRN	_fclose:PROC
EXTRN	_sprintf:PROC
EXTRN	_sscanf:PROC
EXTRN	?Ex_IsBadFileLine@@YA_NPADAAH@Z:PROC		; Ex_IsBadFileLine
EXTRN	_fgets:PROC
EXTRN	_feof:PROC
EXTRN	__imp__MessageBoxA@16:PROC
EXTRN	_fopen:PROC
EXTRN	?g_ExLicense@@3VCExLicense@@A:BYTE		; g_ExLicense
EXTRN	___security_cookie:DWORD
EXTRN	@__security_check_cookie@4:PROC
;	COMDAT ??_C@_0BI@HDMMBKBM@?$CFd?5?$CFd?5?$CFd?5?$CFd?5?$CFd?5?$CFd?5?$CFd?5?$CFd?$AA@
CONST	SEGMENT
??_C@_0BI@HDMMBKBM@?$CFd?5?$CFd?5?$CFd?5?$CFd?5?$CFd?5?$CFd?5?$CFd?5?$CFd?$AA@ DB '%'
	DB	'd %d %d %d %d %d %d %d', 00H		; `string'
CONST	ENDS
;	COMDAT ??_C@_02DKCKIIND@?$CFs?$AA@
CONST	SEGMENT
??_C@_02DKCKIIND@?$CFs?$AA@ DB '%s', 00H		; `string'
CONST	ENDS
;	COMDAT ??_C@_0BP@KENEOMOO@?$CFd?5?$CFd?5?$CFd?5?$CFd?5?$CFd?5?$CC?$CF?$FL?$FO?$CC?$FN?$CC?5?$CC?$CF?$FL?$FO?$CC?$FN?$CC?$AA@
CONST	SEGMENT
??_C@_0BP@KENEOMOO@?$CFd?5?$CFd?5?$CFd?5?$CFd?5?$CFd?5?$CC?$CF?$FL?$FO?$CC?$FN?$CC?5?$CC?$CF?$FL?$FO?$CC?$FN?$CC?$AA@ DB '%'
	DB	'd %d %d %d %d "%[^"]" "%[^"]"', 00H		; `string'
CONST	ENDS
;	COMDAT ??_C@_0CD@MFFGJBPI@Data?2ExData?2BMQuest?4ini?5Load?5Err@
CONST	SEGMENT
??_C@_0CD@MFFGJBPI@Data?2ExData?2BMQuest?4ini?5Load?5Err@ DB 'Data\ExData'
	DB	'\BMQuest.ini Load Error', 00H		; `string'
CONST	ENDS
;	COMDAT ??_C@_0P@BPENEPNJ@CRITICAL?5ERROR?$AA@
CONST	SEGMENT
??_C@_0P@BPENEPNJ@CRITICAL?5ERROR?$AA@ DB 'CRITICAL ERROR', 00H ; `string'
CONST	ENDS
;	COMDAT ??_C@_01KDCPPGHE@r?$AA@
CONST	SEGMENT
??_C@_01KDCPPGHE@r?$AA@ DB 'r', 00H			; `string'
; Function compile flags: /Odtp /ZI
CONST	ENDS
_TEXT	SEGMENT
_list$220097 = -1984					; size = 32
_mes2$220095 = -1952					; size = 100
_mes$220094 = -1852					; size = 100
_n$220093 = -1752					; size = 40
_mes2$220091 = -1712					; size = 100
_mes$220090 = -1612					; size = 100
_n$220089 = -1512					; size = 40
_mes2$220087 = -1472					; size = 100
_mes$220086 = -1372					; size = 100
_n$220085 = -1272					; size = 40
_mes2$220083 = -1232					; size = 100
_mes$220082 = -1132					; size = 100
_n$220081 = -1032					; size = 40
_mes2$220079 = -992					; size = 100
_mes$220078 = -892					; size = 100
_n$220077 = -792					; size = 40
_mes2$220075 = -752					; size = 100
_mes$220074 = -652					; size = 100
_n$220073 = -552					; size = 40
_mes2$220069 = -512					; size = 100
_mes$220068 = -412					; size = 100
_n$220067 = -312					; size = 40
_Flag$ = -272						; size = 4
_Buff$ = -268						; size = 256
_file$ = -12						; size = 4
_this$ = -8						; size = 4
__$ArrayPad$ = -4					; size = 4
?StartUP@cBMQuest@@QAEXXZ PROC				; cBMQuest::StartUP
; _this$ = ecx

; 43   : {

  00260	55		 push	 ebp
  00261	8b ec		 mov	 ebp, esp
  00263	81 ec 00 08 00
	00		 sub	 esp, 2048		; 00000800H
  00269	a1 00 00 00 00	 mov	 eax, DWORD PTR ___security_cookie
  0026e	33 c5		 xor	 eax, ebp
  00270	89 45 fc	 mov	 DWORD PTR __$ArrayPad$[ebp], eax
  00273	53		 push	 ebx
  00274	56		 push	 esi
  00275	57		 push	 edi
  00276	89 4d f8	 mov	 DWORD PTR _this$[ebp], ecx

; 44   : 	if(!g_ExLicense.user.BMQuest)

  00279	0f b6 05 da 00
	00 00		 movzx	 eax, BYTE PTR ?g_ExLicense@@3VCExLicense@@A+218
  00280	85 c0		 test	 eax, eax
  00282	75 12		 jne	 SHORT $LN14@StartUP

; 45   : 	{
; 46   : 		Enable = false;

  00284	8b 45 f8	 mov	 eax, DWORD PTR _this$[ebp]
  00287	c7 80 00 db 1a
	00 00 00 00 00	 mov	 DWORD PTR [eax+1760000], 0

; 47   : 		return;

  00291	e9 0b 0b 00 00	 jmp	 $LN15@StartUP
$LN14@StartUP:

; 48   : 	}
; 49   : 
; 50   : 	StartConfig();

  00296	8b 4d f8	 mov	 ecx, DWORD PTR _this$[ebp]
  00299	e8 00 00 00 00	 call	 ?StartConfig@cBMQuest@@QAEXXZ ; cBMQuest::StartConfig

; 51   : 
; 52   : 	if(!Enable)

  0029e	8b 45 f8	 mov	 eax, DWORD PTR _this$[ebp]
  002a1	83 b8 00 db 1a
	00 00		 cmp	 DWORD PTR [eax+1760000], 0
  002a8	75 05		 jne	 SHORT $LN13@StartUP

; 53   : 	{
; 54   : 		return;

  002aa	e9 f2 0a 00 00	 jmp	 $LN15@StartUP
$LN13@StartUP:

; 55   : 	}
; 56   : 
; 57   : 	this->m_RandOpt.clear();

  002af	8b 4d f8	 mov	 ecx, DWORD PTR _this$[ebp]
  002b2	81 c1 40 db 1a
	00		 add	 ecx, 1760064		; 001adb40H
  002b8	e8 00 00 00 00	 call	 ?clear@?$vector@UBMQuestRandOpt_DATA@@V?$allocator@UBMQuestRandOpt_DATA@@@std@@@std@@QAEXXZ ; std::vector<BMQuestRandOpt_DATA,std::allocator<BMQuestRandOpt_DATA> >::clear

; 58   : 
; 59   : 	FILE *file;
; 60   : 	file = fopen(_DIR_BMQUEST,"r");

  002bd	68 00 00 00 00	 push	 OFFSET ??_C@_01KDCPPGHE@r?$AA@
  002c2	68 00 00 00 00	 push	 OFFSET ??_C@_0BL@EEAKADGM@?4?4?2Data?2ExData?2BMQuest?4ini?$AA@
  002c7	e8 00 00 00 00	 call	 _fopen
  002cc	83 c4 08	 add	 esp, 8
  002cf	89 45 f4	 mov	 DWORD PTR _file$[ebp], eax

; 61   : 	if(file == NULL)

  002d2	83 7d f4 00	 cmp	 DWORD PTR _file$[ebp], 0
  002d6	75 19		 jne	 SHORT $LN12@StartUP

; 62   : 	{
; 63   : 		MessageBoxA(0,"Data\\ExData\\BMQuest.ini Load Error","CRITICAL ERROR",0);

  002d8	6a 00		 push	 0
  002da	68 00 00 00 00	 push	 OFFSET ??_C@_0P@BPENEPNJ@CRITICAL?5ERROR?$AA@
  002df	68 00 00 00 00	 push	 OFFSET ??_C@_0CD@MFFGJBPI@Data?2ExData?2BMQuest?4ini?5Load?5Err@
  002e4	6a 00		 push	 0
  002e6	ff 15 00 00 00
	00		 call	 DWORD PTR __imp__MessageBoxA@16

; 64   : 		return;

  002ec	e9 b0 0a 00 00	 jmp	 $LN15@StartUP
$LN12@StartUP:

; 65   : 	}
; 66   : 	char Buff[256];
; 67   : 	int Flag = 0;

  002f1	c7 85 f0 fe ff
	ff 00 00 00 00	 mov	 DWORD PTR _Flag$[ebp], 0

; 68   : 	Count[1] = 0;

  002fb	8b 45 f8	 mov	 eax, DWORD PTR _this$[ebp]
  002fe	c7 80 1c db 1a
	00 00 00 00 00	 mov	 DWORD PTR [eax+1760028], 0

; 69   : 	Count[2] = 0;

  00308	8b 45 f8	 mov	 eax, DWORD PTR _this$[ebp]
  0030b	c7 80 20 db 1a
	00 00 00 00 00	 mov	 DWORD PTR [eax+1760032], 0

; 70   : 	Count[3] = 0;

  00315	8b 45 f8	 mov	 eax, DWORD PTR _this$[ebp]
  00318	c7 80 24 db 1a
	00 00 00 00 00	 mov	 DWORD PTR [eax+1760036], 0

; 71   : 	Count[4] = 0;

  00322	8b 45 f8	 mov	 eax, DWORD PTR _this$[ebp]
  00325	c7 80 28 db 1a
	00 00 00 00 00	 mov	 DWORD PTR [eax+1760040], 0

; 72   : 	Count[5] = 0;

  0032f	8b 45 f8	 mov	 eax, DWORD PTR _this$[ebp]
  00332	c7 80 2c db 1a
	00 00 00 00 00	 mov	 DWORD PTR [eax+1760044], 0

; 73   : 	Count[6] = 0;

  0033c	8b 45 f8	 mov	 eax, DWORD PTR _this$[ebp]
  0033f	c7 80 30 db 1a
	00 00 00 00 00	 mov	 DWORD PTR [eax+1760048], 0
$LN11@StartUP:

; 74   : 
; 75   : 	while(!feof(file)) // Проверяем есть ли строка в документе

  00349	8b 45 f4	 mov	 eax, DWORD PTR _file$[ebp]
  0034c	50		 push	 eax
  0034d	e8 00 00 00 00	 call	 _feof
  00352	83 c4 04	 add	 esp, 4
  00355	85 c0		 test	 eax, eax
  00357	0f 85 38 0a 00
	00		 jne	 $LN10@StartUP

; 76   : 	{
; 77   : 		fgets(Buff,256,file);//Функция читает текущую строку

  0035d	8b 45 f4	 mov	 eax, DWORD PTR _file$[ebp]
  00360	50		 push	 eax
  00361	68 00 01 00 00	 push	 256			; 00000100H
  00366	8d 8d f4 fe ff
	ff		 lea	 ecx, DWORD PTR _Buff$[ebp]
  0036c	51		 push	 ecx
  0036d	e8 00 00 00 00	 call	 _fgets
  00372	83 c4 0c	 add	 esp, 12			; 0000000cH

; 78   : 		if(Ex_IsBadFileLine(Buff, Flag)) //Вспомогательная функция

  00375	8d 85 f0 fe ff
	ff		 lea	 eax, DWORD PTR _Flag$[ebp]
  0037b	50		 push	 eax
  0037c	8d 8d f4 fe ff
	ff		 lea	 ecx, DWORD PTR _Buff$[ebp]
  00382	51		 push	 ecx
  00383	e8 00 00 00 00	 call	 ?Ex_IsBadFileLine@@YA_NPADAAH@Z ; Ex_IsBadFileLine
  00388	83 c4 08	 add	 esp, 8
  0038b	0f b6 d0	 movzx	 edx, al
  0038e	85 d2		 test	 edx, edx
  00390	74 02		 je	 SHORT $LN9@StartUP

; 79   : 			continue;

  00392	eb b5		 jmp	 SHORT $LN11@StartUP
$LN9@StartUP:

; 80   : 		if(Flag == 1)

  00394	83 bd f0 fe ff
	ff 01		 cmp	 DWORD PTR _Flag$[ebp], 1
  0039b	0f 85 51 01 00
	00		 jne	 $LN8@StartUP

; 81   : 		{
; 82   : 			int n[10];
; 83   : 			char mes[100];
; 84   : 			char mes2[100];
; 85   : 			//gets(mes);
; 86   : 			sscanf(Buff,"%d %d %d %d %d \"%[^\"]\" \"%[^\"]\"",&n[0],&n[1],&n[2],&n[3],&n[4],&mes,&mes2);

  003a1	8d 85 00 fe ff
	ff		 lea	 eax, DWORD PTR _mes2$220069[ebp]
  003a7	50		 push	 eax
  003a8	8d 8d 64 fe ff
	ff		 lea	 ecx, DWORD PTR _mes$220068[ebp]
  003ae	51		 push	 ecx
  003af	8d 95 d8 fe ff
	ff		 lea	 edx, DWORD PTR _n$220067[ebp+16]
  003b5	52		 push	 edx
  003b6	8d 85 d4 fe ff
	ff		 lea	 eax, DWORD PTR _n$220067[ebp+12]
  003bc	50		 push	 eax
  003bd	8d 8d d0 fe ff
	ff		 lea	 ecx, DWORD PTR _n$220067[ebp+8]
  003c3	51		 push	 ecx
  003c4	8d 95 cc fe ff
	ff		 lea	 edx, DWORD PTR _n$220067[ebp+4]
  003ca	52		 push	 edx
  003cb	8d 85 c8 fe ff
	ff		 lea	 eax, DWORD PTR _n$220067[ebp]
  003d1	50		 push	 eax
  003d2	68 00 00 00 00	 push	 OFFSET ??_C@_0BP@KENEOMOO@?$CFd?5?$CFd?5?$CFd?5?$CFd?5?$CFd?5?$CC?$CF?$FL?$FO?$CC?$FN?$CC?5?$CC?$CF?$FL?$FO?$CC?$FN?$CC?$AA@
  003d7	8d 8d f4 fe ff
	ff		 lea	 ecx, DWORD PTR _Buff$[ebp]
  003dd	51		 push	 ecx
  003de	e8 00 00 00 00	 call	 _sscanf
  003e3	83 c4 24	 add	 esp, 36			; 00000024H

; 87   : 			Quest[1][Count[1]].Mob  = n[0];

  003e6	8b 45 f8	 mov	 eax, DWORD PTR _this$[ebp]
  003e9	8b 88 1c db 1a
	00		 mov	 ecx, DWORD PTR [eax+1760028]
  003ef	69 c9 dc 00 00
	00		 imul	 ecx, 220		; 000000dcH
  003f5	8b 55 f8	 mov	 edx, DWORD PTR _this$[ebp]
  003f8	8b 85 c8 fe ff
	ff		 mov	 eax, DWORD PTR _n$220067[ebp]
  003fe	89 84 0a 60 5b
	03 00		 mov	 DWORD PTR [edx+ecx+220000], eax

; 88   : 			Quest[1][Count[1]].Coun = n[1];

  00405	8b 45 f8	 mov	 eax, DWORD PTR _this$[ebp]
  00408	8b 88 1c db 1a
	00		 mov	 ecx, DWORD PTR [eax+1760028]
  0040e	69 c9 dc 00 00
	00		 imul	 ecx, 220		; 000000dcH
  00414	8b 55 f8	 mov	 edx, DWORD PTR _this$[ebp]
  00417	8b 85 cc fe ff
	ff		 mov	 eax, DWORD PTR _n$220067[ebp+4]
  0041d	89 84 0a 64 5b
	03 00		 mov	 DWORD PTR [edx+ecx+220004], eax

; 89   : 			Quest[1][Count[1]].proc = n[2];

  00424	8b 45 f8	 mov	 eax, DWORD PTR _this$[ebp]
  00427	8b 88 1c db 1a
	00		 mov	 ecx, DWORD PTR [eax+1760028]
  0042d	69 c9 dc 00 00
	00		 imul	 ecx, 220		; 000000dcH
  00433	8b 55 f8	 mov	 edx, DWORD PTR _this$[ebp]
  00436	8b 85 d0 fe ff
	ff		 mov	 eax, DWORD PTR _n$220067[ebp+8]
  0043c	89 84 0a 68 5b
	03 00		 mov	 DWORD PTR [edx+ecx+220008], eax

; 90   : 			Quest[1][Count[1]].rew  = n[3];

  00443	8b 45 f8	 mov	 eax, DWORD PTR _this$[ebp]
  00446	8b 88 1c db 1a
	00		 mov	 ecx, DWORD PTR [eax+1760028]
  0044c	69 c9 dc 00 00
	00		 imul	 ecx, 220		; 000000dcH
  00452	8b 55 f8	 mov	 edx, DWORD PTR _this$[ebp]
  00455	8b 85 d4 fe ff
	ff		 mov	 eax, DWORD PTR _n$220067[ebp+12]
  0045b	89 84 0a 6c 5b
	03 00		 mov	 DWORD PTR [edx+ecx+220012], eax

; 91   : 			Quest[1][Count[1]].gift = n[4];

  00462	8b 45 f8	 mov	 eax, DWORD PTR _this$[ebp]
  00465	8b 88 1c db 1a
	00		 mov	 ecx, DWORD PTR [eax+1760028]
  0046b	69 c9 dc 00 00
	00		 imul	 ecx, 220		; 000000dcH
  00471	8b 55 f8	 mov	 edx, DWORD PTR _this$[ebp]
  00474	8b 85 d8 fe ff
	ff		 mov	 eax, DWORD PTR _n$220067[ebp+16]
  0047a	89 84 0a 70 5b
	03 00		 mov	 DWORD PTR [edx+ecx+220016], eax

; 92   : 			sprintf(Quest[1][Count[1]].msg,"%s",mes);

  00481	8d 85 64 fe ff
	ff		 lea	 eax, DWORD PTR _mes$220068[ebp]
  00487	50		 push	 eax
  00488	68 00 00 00 00	 push	 OFFSET ??_C@_02DKCKIIND@?$CFs?$AA@
  0048d	8b 4d f8	 mov	 ecx, DWORD PTR _this$[ebp]
  00490	8b 91 1c db 1a
	00		 mov	 edx, DWORD PTR [ecx+1760028]
  00496	69 d2 dc 00 00
	00		 imul	 edx, 220		; 000000dcH
  0049c	8b 45 f8	 mov	 eax, DWORD PTR _this$[ebp]
  0049f	8d 8c 10 74 5b
	03 00		 lea	 ecx, DWORD PTR [eax+edx+220020]
  004a6	51		 push	 ecx
  004a7	e8 00 00 00 00	 call	 _sprintf
  004ac	83 c4 0c	 add	 esp, 12			; 0000000cH

; 93   : 			sprintf(Quest[1][Count[1]].msg2,"%s",mes2);

  004af	8d 85 00 fe ff
	ff		 lea	 eax, DWORD PTR _mes2$220069[ebp]
  004b5	50		 push	 eax
  004b6	68 00 00 00 00	 push	 OFFSET ??_C@_02DKCKIIND@?$CFs?$AA@
  004bb	8b 4d f8	 mov	 ecx, DWORD PTR _this$[ebp]
  004be	8b 91 1c db 1a
	00		 mov	 edx, DWORD PTR [ecx+1760028]
  004c4	69 d2 dc 00 00
	00		 imul	 edx, 220		; 000000dcH
  004ca	8b 45 f8	 mov	 eax, DWORD PTR _this$[ebp]
  004cd	8d 8c 10 d8 5b
	03 00		 lea	 ecx, DWORD PTR [eax+edx+220120]
  004d4	51		 push	 ecx
  004d5	e8 00 00 00 00	 call	 _sprintf
  004da	83 c4 0c	 add	 esp, 12			; 0000000cH

; 94   : 			Count[1]++;

  004dd	8b 45 f8	 mov	 eax, DWORD PTR _this$[ebp]
  004e0	8b 88 1c db 1a
	00		 mov	 ecx, DWORD PTR [eax+1760028]
  004e6	83 c1 01	 add	 ecx, 1
  004e9	8b 55 f8	 mov	 edx, DWORD PTR _this$[ebp]
  004ec	89 8a 1c db 1a
	00		 mov	 DWORD PTR [edx+1760028], ecx
$LN8@StartUP:

; 95   : 		}
; 96   : 		if(Flag == 2)

  004f2	83 bd f0 fe ff
	ff 02		 cmp	 DWORD PTR _Flag$[ebp], 2
  004f9	0f 85 51 01 00
	00		 jne	 $LN7@StartUP

; 97   : 		{
; 98   : 			int n[10];
; 99   : 			char mes[100];
; 100  : 			char mes2[100];
; 101  : 			//gets(mes);
; 102  : 			sscanf(Buff,"%d %d %d %d %d \"%[^\"]\" \"%[^\"]\"",&n[0],&n[1],&n[2],&n[3],&n[4],&mes,&mes2);

  004ff	8d 85 10 fd ff
	ff		 lea	 eax, DWORD PTR _mes2$220075[ebp]
  00505	50		 push	 eax
  00506	8d 8d 74 fd ff
	ff		 lea	 ecx, DWORD PTR _mes$220074[ebp]
  0050c	51		 push	 ecx
  0050d	8d 95 e8 fd ff
	ff		 lea	 edx, DWORD PTR _n$220073[ebp+16]
  00513	52		 push	 edx
  00514	8d 85 e4 fd ff
	ff		 lea	 eax, DWORD PTR _n$220073[ebp+12]
  0051a	50		 push	 eax
  0051b	8d 8d e0 fd ff
	ff		 lea	 ecx, DWORD PTR _n$220073[ebp+8]
  00521	51		 push	 ecx
  00522	8d 95 dc fd ff
	ff		 lea	 edx, DWORD PTR _n$220073[ebp+4]
  00528	52		 push	 edx
  00529	8d 85 d8 fd ff
	ff		 lea	 eax, DWORD PTR _n$220073[ebp]
  0052f	50		 push	 eax
  00530	68 00 00 00 00	 push	 OFFSET ??_C@_0BP@KENEOMOO@?$CFd?5?$CFd?5?$CFd?5?$CFd?5?$CFd?5?$CC?$CF?$FL?$FO?$CC?$FN?$CC?5?$CC?$CF?$FL?$FO?$CC?$FN?$CC?$AA@
  00535	8d 8d f4 fe ff
	ff		 lea	 ecx, DWORD PTR _Buff$[ebp]
  0053b	51		 push	 ecx
  0053c	e8 00 00 00 00	 call	 _sscanf
  00541	83 c4 24	 add	 esp, 36			; 00000024H

; 103  : 			Quest[2][Count[2]].Mob  = n[0];

  00544	8b 45 f8	 mov	 eax, DWORD PTR _this$[ebp]
  00547	8b 88 20 db 1a
	00		 mov	 ecx, DWORD PTR [eax+1760032]
  0054d	69 c9 dc 00 00
	00		 imul	 ecx, 220		; 000000dcH
  00553	8b 55 f8	 mov	 edx, DWORD PTR _this$[ebp]
  00556	8b 85 d8 fd ff
	ff		 mov	 eax, DWORD PTR _n$220073[ebp]
  0055c	89 84 0a c0 b6
	06 00		 mov	 DWORD PTR [edx+ecx+440000], eax

; 104  : 			Quest[2][Count[2]].Coun = n[1];

  00563	8b 45 f8	 mov	 eax, DWORD PTR _this$[ebp]
  00566	8b 88 20 db 1a
	00		 mov	 ecx, DWORD PTR [eax+1760032]
  0056c	69 c9 dc 00 00
	00		 imul	 ecx, 220		; 000000dcH
  00572	8b 55 f8	 mov	 edx, DWORD PTR _this$[ebp]
  00575	8b 85 dc fd ff
	ff		 mov	 eax, DWORD PTR _n$220073[ebp+4]
  0057b	89 84 0a c4 b6
	06 00		 mov	 DWORD PTR [edx+ecx+440004], eax

; 105  : 			Quest[2][Count[2]].proc = n[2];

  00582	8b 45 f8	 mov	 eax, DWORD PTR _this$[ebp]
  00585	8b 88 20 db 1a
	00		 mov	 ecx, DWORD PTR [eax+1760032]
  0058b	69 c9 dc 00 00
	00		 imul	 ecx, 220		; 000000dcH
  00591	8b 55 f8	 mov	 edx, DWORD PTR _this$[ebp]
  00594	8b 85 e0 fd ff
	ff		 mov	 eax, DWORD PTR _n$220073[ebp+8]
  0059a	89 84 0a c8 b6
	06 00		 mov	 DWORD PTR [edx+ecx+440008], eax

; 106  : 			Quest[2][Count[2]].rew  = n[3];

  005a1	8b 45 f8	 mov	 eax, DWORD PTR _this$[ebp]
  005a4	8b 88 20 db 1a
	00		 mov	 ecx, DWORD PTR [eax+1760032]
  005aa	69 c9 dc 00 00
	00		 imul	 ecx, 220		; 000000dcH
  005b0	8b 55 f8	 mov	 edx, DWORD PTR _this$[ebp]
  005b3	8b 85 e4 fd ff
	ff		 mov	 eax, DWORD PTR _n$220073[ebp+12]
  005b9	89 84 0a cc b6
	06 00		 mov	 DWORD PTR [edx+ecx+440012], eax

; 107  : 			Quest[2][Count[2]].gift = n[4];

  005c0	8b 45 f8	 mov	 eax, DWORD PTR _this$[ebp]
  005c3	8b 88 20 db 1a
	00		 mov	 ecx, DWORD PTR [eax+1760032]
  005c9	69 c9 dc 00 00
	00		 imul	 ecx, 220		; 000000dcH
  005cf	8b 55 f8	 mov	 edx, DWORD PTR _this$[ebp]
  005d2	8b 85 e8 fd ff
	ff		 mov	 eax, DWORD PTR _n$220073[ebp+16]
  005d8	89 84 0a d0 b6
	06 00		 mov	 DWORD PTR [edx+ecx+440016], eax

; 108  : 			sprintf(Quest[2][Count[2]].msg,"%s",mes);

  005df	8d 85 74 fd ff
	ff		 lea	 eax, DWORD PTR _mes$220074[ebp]
  005e5	50		 push	 eax
  005e6	68 00 00 00 00	 push	 OFFSET ??_C@_02DKCKIIND@?$CFs?$AA@
  005eb	8b 4d f8	 mov	 ecx, DWORD PTR _this$[ebp]
  005ee	8b 91 20 db 1a
	00		 mov	 edx, DWORD PTR [ecx+1760032]
  005f4	69 d2 dc 00 00
	00		 imul	 edx, 220		; 000000dcH
  005fa	8b 45 f8	 mov	 eax, DWORD PTR _this$[ebp]
  005fd	8d 8c 10 d4 b6
	06 00		 lea	 ecx, DWORD PTR [eax+edx+440020]
  00604	51		 push	 ecx
  00605	e8 00 00 00 00	 call	 _sprintf
  0060a	83 c4 0c	 add	 esp, 12			; 0000000cH

; 109  : 			sprintf(Quest[2][Count[2]].msg2,"%s",mes2);

  0060d	8d 85 10 fd ff
	ff		 lea	 eax, DWORD PTR _mes2$220075[ebp]
  00613	50		 push	 eax
  00614	68 00 00 00 00	 push	 OFFSET ??_C@_02DKCKIIND@?$CFs?$AA@
  00619	8b 4d f8	 mov	 ecx, DWORD PTR _this$[ebp]
  0061c	8b 91 20 db 1a
	00		 mov	 edx, DWORD PTR [ecx+1760032]
  00622	69 d2 dc 00 00
	00		 imul	 edx, 220		; 000000dcH
  00628	8b 45 f8	 mov	 eax, DWORD PTR _this$[ebp]
  0062b	8d 8c 10 38 b7
	06 00		 lea	 ecx, DWORD PTR [eax+edx+440120]
  00632	51		 push	 ecx
  00633	e8 00 00 00 00	 call	 _sprintf
  00638	83 c4 0c	 add	 esp, 12			; 0000000cH

; 110  : 			Count[2]++;

  0063b	8b 45 f8	 mov	 eax, DWORD PTR _this$[ebp]
  0063e	8b 88 20 db 1a
	00		 mov	 ecx, DWORD PTR [eax+1760032]
  00644	83 c1 01	 add	 ecx, 1
  00647	8b 55 f8	 mov	 edx, DWORD PTR _this$[ebp]
  0064a	89 8a 20 db 1a
	00		 mov	 DWORD PTR [edx+1760032], ecx
$LN7@StartUP:

; 111  : 		}
; 112  : 		if(Flag == 3)

  00650	83 bd f0 fe ff
	ff 03		 cmp	 DWORD PTR _Flag$[ebp], 3
  00657	0f 85 51 01 00
	00		 jne	 $LN6@StartUP

; 113  : 		{
; 114  : 			int n[10];
; 115  : 			char mes[100];
; 116  : 			char mes2[100];
; 117  : 			//gets(mes);
; 118  : 			sscanf(Buff,"%d %d %d %d %d \"%[^\"]\" \"%[^\"]\"",&n[0],&n[1],&n[2],&n[3],&n[4],&mes,&mes2);

  0065d	8d 85 20 fc ff
	ff		 lea	 eax, DWORD PTR _mes2$220079[ebp]
  00663	50		 push	 eax
  00664	8d 8d 84 fc ff
	ff		 lea	 ecx, DWORD PTR _mes$220078[ebp]
  0066a	51		 push	 ecx
  0066b	8d 95 f8 fc ff
	ff		 lea	 edx, DWORD PTR _n$220077[ebp+16]
  00671	52		 push	 edx
  00672	8d 85 f4 fc ff
	ff		 lea	 eax, DWORD PTR _n$220077[ebp+12]
  00678	50		 push	 eax
  00679	8d 8d f0 fc ff
	ff		 lea	 ecx, DWORD PTR _n$220077[ebp+8]
  0067f	51		 push	 ecx
  00680	8d 95 ec fc ff
	ff		 lea	 edx, DWORD PTR _n$220077[ebp+4]
  00686	52		 push	 edx
  00687	8d 85 e8 fc ff
	ff		 lea	 eax, DWORD PTR _n$220077[ebp]
  0068d	50		 push	 eax
  0068e	68 00 00 00 00	 push	 OFFSET ??_C@_0BP@KENEOMOO@?$CFd?5?$CFd?5?$CFd?5?$CFd?5?$CFd?5?$CC?$CF?$FL?$FO?$CC?$FN?$CC?5?$CC?$CF?$FL?$FO?$CC?$FN?$CC?$AA@
  00693	8d 8d f4 fe ff
	ff		 lea	 ecx, DWORD PTR _Buff$[ebp]
  00699	51		 push	 ecx
  0069a	e8 00 00 00 00	 call	 _sscanf
  0069f	83 c4 24	 add	 esp, 36			; 00000024H

; 119  : 			Quest[3][Count[3]].Mob  = n[0];

  006a2	8b 45 f8	 mov	 eax, DWORD PTR _this$[ebp]
  006a5	8b 88 24 db 1a
	00		 mov	 ecx, DWORD PTR [eax+1760036]
  006ab	69 c9 dc 00 00
	00		 imul	 ecx, 220		; 000000dcH
  006b1	8b 55 f8	 mov	 edx, DWORD PTR _this$[ebp]
  006b4	8b 85 e8 fc ff
	ff		 mov	 eax, DWORD PTR _n$220077[ebp]
  006ba	89 84 0a 20 12
	0a 00		 mov	 DWORD PTR [edx+ecx+660000], eax

; 120  : 			Quest[3][Count[3]].Coun = n[1];

  006c1	8b 45 f8	 mov	 eax, DWORD PTR _this$[ebp]
  006c4	8b 88 24 db 1a
	00		 mov	 ecx, DWORD PTR [eax+1760036]
  006ca	69 c9 dc 00 00
	00		 imul	 ecx, 220		; 000000dcH
  006d0	8b 55 f8	 mov	 edx, DWORD PTR _this$[ebp]
  006d3	8b 85 ec fc ff
	ff		 mov	 eax, DWORD PTR _n$220077[ebp+4]
  006d9	89 84 0a 24 12
	0a 00		 mov	 DWORD PTR [edx+ecx+660004], eax

; 121  : 			Quest[3][Count[3]].proc = n[2];

  006e0	8b 45 f8	 mov	 eax, DWORD PTR _this$[ebp]
  006e3	8b 88 24 db 1a
	00		 mov	 ecx, DWORD PTR [eax+1760036]
  006e9	69 c9 dc 00 00
	00		 imul	 ecx, 220		; 000000dcH
  006ef	8b 55 f8	 mov	 edx, DWORD PTR _this$[ebp]
  006f2	8b 85 f0 fc ff
	ff		 mov	 eax, DWORD PTR _n$220077[ebp+8]
  006f8	89 84 0a 28 12
	0a 00		 mov	 DWORD PTR [edx+ecx+660008], eax

; 122  : 			Quest[3][Count[3]].rew  = n[3];

  006ff	8b 45 f8	 mov	 eax, DWORD PTR _this$[ebp]
  00702	8b 88 24 db 1a
	00		 mov	 ecx, DWORD PTR [eax+1760036]
  00708	69 c9 dc 00 00
	00		 imul	 ecx, 220		; 000000dcH
  0070e	8b 55 f8	 mov	 edx, DWORD PTR _this$[ebp]
  00711	8b 85 f4 fc ff
	ff		 mov	 eax, DWORD PTR _n$220077[ebp+12]
  00717	89 84 0a 2c 12
	0a 00		 mov	 DWORD PTR [edx+ecx+660012], eax

; 123  : 			Quest[3][Count[3]].gift = n[4];

  0071e	8b 45 f8	 mov	 eax, DWORD PTR _this$[ebp]
  00721	8b 88 24 db 1a
	00		 mov	 ecx, DWORD PTR [eax+1760036]
  00727	69 c9 dc 00 00
	00		 imul	 ecx, 220		; 000000dcH
  0072d	8b 55 f8	 mov	 edx, DWORD PTR _this$[ebp]
  00730	8b 85 f8 fc ff
	ff		 mov	 eax, DWORD PTR _n$220077[ebp+16]
  00736	89 84 0a 30 12
	0a 00		 mov	 DWORD PTR [edx+ecx+660016], eax

; 124  : 			sprintf(Quest[3][Count[3]].msg,"%s",mes);

  0073d	8d 85 84 fc ff
	ff		 lea	 eax, DWORD PTR _mes$220078[ebp]
  00743	50		 push	 eax
  00744	68 00 00 00 00	 push	 OFFSET ??_C@_02DKCKIIND@?$CFs?$AA@
  00749	8b 4d f8	 mov	 ecx, DWORD PTR _this$[ebp]
  0074c	8b 91 24 db 1a
	00		 mov	 edx, DWORD PTR [ecx+1760036]
  00752	69 d2 dc 00 00
	00		 imul	 edx, 220		; 000000dcH
  00758	8b 45 f8	 mov	 eax, DWORD PTR _this$[ebp]
  0075b	8d 8c 10 34 12
	0a 00		 lea	 ecx, DWORD PTR [eax+edx+660020]
  00762	51		 push	 ecx
  00763	e8 00 00 00 00	 call	 _sprintf
  00768	83 c4 0c	 add	 esp, 12			; 0000000cH

; 125  : 			sprintf(Quest[3][Count[3]].msg2,"%s",mes2);

  0076b	8d 85 20 fc ff
	ff		 lea	 eax, DWORD PTR _mes2$220079[ebp]
  00771	50		 push	 eax
  00772	68 00 00 00 00	 push	 OFFSET ??_C@_02DKCKIIND@?$CFs?$AA@
  00777	8b 4d f8	 mov	 ecx, DWORD PTR _this$[ebp]
  0077a	8b 91 24 db 1a
	00		 mov	 edx, DWORD PTR [ecx+1760036]
  00780	69 d2 dc 00 00
	00		 imul	 edx, 220		; 000000dcH
  00786	8b 45 f8	 mov	 eax, DWORD PTR _this$[ebp]
  00789	8d 8c 10 98 12
	0a 00		 lea	 ecx, DWORD PTR [eax+edx+660120]
  00790	51		 push	 ecx
  00791	e8 00 00 00 00	 call	 _sprintf
  00796	83 c4 0c	 add	 esp, 12			; 0000000cH

; 126  : 			Count[3]++;

  00799	8b 45 f8	 mov	 eax, DWORD PTR _this$[ebp]
  0079c	8b 88 24 db 1a
	00		 mov	 ecx, DWORD PTR [eax+1760036]
  007a2	83 c1 01	 add	 ecx, 1
  007a5	8b 55 f8	 mov	 edx, DWORD PTR _this$[ebp]
  007a8	89 8a 24 db 1a
	00		 mov	 DWORD PTR [edx+1760036], ecx
$LN6@StartUP:

; 127  : 		}
; 128  : 		if(Flag == 4)

  007ae	83 bd f0 fe ff
	ff 04		 cmp	 DWORD PTR _Flag$[ebp], 4
  007b5	0f 85 51 01 00
	00		 jne	 $LN5@StartUP

; 129  : 		{
; 130  : 			int n[10];
; 131  : 			char mes[100];
; 132  : 			char mes2[100];
; 133  : 			//gets(mes);
; 134  : 			sscanf(Buff,"%d %d %d %d %d \"%[^\"]\" \"%[^\"]\"",&n[0],&n[1],&n[2],&n[3],&n[4],&mes,&mes2);

  007bb	8d 85 30 fb ff
	ff		 lea	 eax, DWORD PTR _mes2$220083[ebp]
  007c1	50		 push	 eax
  007c2	8d 8d 94 fb ff
	ff		 lea	 ecx, DWORD PTR _mes$220082[ebp]
  007c8	51		 push	 ecx
  007c9	8d 95 08 fc ff
	ff		 lea	 edx, DWORD PTR _n$220081[ebp+16]
  007cf	52		 push	 edx
  007d0	8d 85 04 fc ff
	ff		 lea	 eax, DWORD PTR _n$220081[ebp+12]
  007d6	50		 push	 eax
  007d7	8d 8d 00 fc ff
	ff		 lea	 ecx, DWORD PTR _n$220081[ebp+8]
  007dd	51		 push	 ecx
  007de	8d 95 fc fb ff
	ff		 lea	 edx, DWORD PTR _n$220081[ebp+4]
  007e4	52		 push	 edx
  007e5	8d 85 f8 fb ff
	ff		 lea	 eax, DWORD PTR _n$220081[ebp]
  007eb	50		 push	 eax
  007ec	68 00 00 00 00	 push	 OFFSET ??_C@_0BP@KENEOMOO@?$CFd?5?$CFd?5?$CFd?5?$CFd?5?$CFd?5?$CC?$CF?$FL?$FO?$CC?$FN?$CC?5?$CC?$CF?$FL?$FO?$CC?$FN?$CC?$AA@
  007f1	8d 8d f4 fe ff
	ff		 lea	 ecx, DWORD PTR _Buff$[ebp]
  007f7	51		 push	 ecx
  007f8	e8 00 00 00 00	 call	 _sscanf
  007fd	83 c4 24	 add	 esp, 36			; 00000024H

; 135  : 			Quest[4][Count[4]].Mob  = n[0];

  00800	8b 45 f8	 mov	 eax, DWORD PTR _this$[ebp]
  00803	8b 88 28 db 1a
	00		 mov	 ecx, DWORD PTR [eax+1760040]
  00809	69 c9 dc 00 00
	00		 imul	 ecx, 220		; 000000dcH
  0080f	8b 55 f8	 mov	 edx, DWORD PTR _this$[ebp]
  00812	8b 85 f8 fb ff
	ff		 mov	 eax, DWORD PTR _n$220081[ebp]
  00818	89 84 0a 80 6d
	0d 00		 mov	 DWORD PTR [edx+ecx+880000], eax

; 136  : 			Quest[4][Count[4]].Coun = n[1];

  0081f	8b 45 f8	 mov	 eax, DWORD PTR _this$[ebp]
  00822	8b 88 28 db 1a
	00		 mov	 ecx, DWORD PTR [eax+1760040]
  00828	69 c9 dc 00 00
	00		 imul	 ecx, 220		; 000000dcH
  0082e	8b 55 f8	 mov	 edx, DWORD PTR _this$[ebp]
  00831	8b 85 fc fb ff
	ff		 mov	 eax, DWORD PTR _n$220081[ebp+4]
  00837	89 84 0a 84 6d
	0d 00		 mov	 DWORD PTR [edx+ecx+880004], eax

; 137  : 			Quest[4][Count[4]].proc = n[2];

  0083e	8b 45 f8	 mov	 eax, DWORD PTR _this$[ebp]
  00841	8b 88 28 db 1a
	00		 mov	 ecx, DWORD PTR [eax+1760040]
  00847	69 c9 dc 00 00
	00		 imul	 ecx, 220		; 000000dcH
  0084d	8b 55 f8	 mov	 edx, DWORD PTR _this$[ebp]
  00850	8b 85 00 fc ff
	ff		 mov	 eax, DWORD PTR _n$220081[ebp+8]
  00856	89 84 0a 88 6d
	0d 00		 mov	 DWORD PTR [edx+ecx+880008], eax

; 138  : 			Quest[4][Count[4]].rew  = n[3];

  0085d	8b 45 f8	 mov	 eax, DWORD PTR _this$[ebp]
  00860	8b 88 28 db 1a
	00		 mov	 ecx, DWORD PTR [eax+1760040]
  00866	69 c9 dc 00 00
	00		 imul	 ecx, 220		; 000000dcH
  0086c	8b 55 f8	 mov	 edx, DWORD PTR _this$[ebp]
  0086f	8b 85 04 fc ff
	ff		 mov	 eax, DWORD PTR _n$220081[ebp+12]
  00875	89 84 0a 8c 6d
	0d 00		 mov	 DWORD PTR [edx+ecx+880012], eax

; 139  : 			Quest[4][Count[4]].gift = n[4];

  0087c	8b 45 f8	 mov	 eax, DWORD PTR _this$[ebp]
  0087f	8b 88 28 db 1a
	00		 mov	 ecx, DWORD PTR [eax+1760040]
  00885	69 c9 dc 00 00
	00		 imul	 ecx, 220		; 000000dcH
  0088b	8b 55 f8	 mov	 edx, DWORD PTR _this$[ebp]
  0088e	8b 85 08 fc ff
	ff		 mov	 eax, DWORD PTR _n$220081[ebp+16]
  00894	89 84 0a 90 6d
	0d 00		 mov	 DWORD PTR [edx+ecx+880016], eax

; 140  : 			sprintf(Quest[4][Count[4]].msg,"%s",mes);

  0089b	8d 85 94 fb ff
	ff		 lea	 eax, DWORD PTR _mes$220082[ebp]
  008a1	50		 push	 eax
  008a2	68 00 00 00 00	 push	 OFFSET ??_C@_02DKCKIIND@?$CFs?$AA@
  008a7	8b 4d f8	 mov	 ecx, DWORD PTR _this$[ebp]
  008aa	8b 91 28 db 1a
	00		 mov	 edx, DWORD PTR [ecx+1760040]
  008b0	69 d2 dc 00 00
	00		 imul	 edx, 220		; 000000dcH
  008b6	8b 45 f8	 mov	 eax, DWORD PTR _this$[ebp]
  008b9	8d 8c 10 94 6d
	0d 00		 lea	 ecx, DWORD PTR [eax+edx+880020]
  008c0	51		 push	 ecx
  008c1	e8 00 00 00 00	 call	 _sprintf
  008c6	83 c4 0c	 add	 esp, 12			; 0000000cH

; 141  : 			sprintf(Quest[4][Count[4]].msg2,"%s",mes2);

  008c9	8d 85 30 fb ff
	ff		 lea	 eax, DWORD PTR _mes2$220083[ebp]
  008cf	50		 push	 eax
  008d0	68 00 00 00 00	 push	 OFFSET ??_C@_02DKCKIIND@?$CFs?$AA@
  008d5	8b 4d f8	 mov	 ecx, DWORD PTR _this$[ebp]
  008d8	8b 91 28 db 1a
	00		 mov	 edx, DWORD PTR [ecx+1760040]
  008de	69 d2 dc 00 00
	00		 imul	 edx, 220		; 000000dcH
  008e4	8b 45 f8	 mov	 eax, DWORD PTR _this$[ebp]
  008e7	8d 8c 10 f8 6d
	0d 00		 lea	 ecx, DWORD PTR [eax+edx+880120]
  008ee	51		 push	 ecx
  008ef	e8 00 00 00 00	 call	 _sprintf
  008f4	83 c4 0c	 add	 esp, 12			; 0000000cH

; 142  : 			Count[4]++;

  008f7	8b 45 f8	 mov	 eax, DWORD PTR _this$[ebp]
  008fa	8b 88 28 db 1a
	00		 mov	 ecx, DWORD PTR [eax+1760040]
  00900	83 c1 01	 add	 ecx, 1
  00903	8b 55 f8	 mov	 edx, DWORD PTR _this$[ebp]
  00906	89 8a 28 db 1a
	00		 mov	 DWORD PTR [edx+1760040], ecx
$LN5@StartUP:

; 143  : 		}
; 144  : 		if(Flag == 5)

  0090c	83 bd f0 fe ff
	ff 05		 cmp	 DWORD PTR _Flag$[ebp], 5
  00913	0f 85 51 01 00
	00		 jne	 $LN4@StartUP

; 145  : 		{
; 146  : 			int n[10];
; 147  : 			char mes[100];
; 148  : 			char mes2[100];
; 149  : 			//gets(mes);
; 150  : 			sscanf(Buff,"%d %d %d %d %d \"%[^\"]\" \"%[^\"]\"",&n[0],&n[1],&n[2],&n[3],&n[4],&mes,&mes2);

  00919	8d 85 40 fa ff
	ff		 lea	 eax, DWORD PTR _mes2$220087[ebp]
  0091f	50		 push	 eax
  00920	8d 8d a4 fa ff
	ff		 lea	 ecx, DWORD PTR _mes$220086[ebp]
  00926	51		 push	 ecx
  00927	8d 95 18 fb ff
	ff		 lea	 edx, DWORD PTR _n$220085[ebp+16]
  0092d	52		 push	 edx
  0092e	8d 85 14 fb ff
	ff		 lea	 eax, DWORD PTR _n$220085[ebp+12]
  00934	50		 push	 eax
  00935	8d 8d 10 fb ff
	ff		 lea	 ecx, DWORD PTR _n$220085[ebp+8]
  0093b	51		 push	 ecx
  0093c	8d 95 0c fb ff
	ff		 lea	 edx, DWORD PTR _n$220085[ebp+4]
  00942	52		 push	 edx
  00943	8d 85 08 fb ff
	ff		 lea	 eax, DWORD PTR _n$220085[ebp]
  00949	50		 push	 eax
  0094a	68 00 00 00 00	 push	 OFFSET ??_C@_0BP@KENEOMOO@?$CFd?5?$CFd?5?$CFd?5?$CFd?5?$CFd?5?$CC?$CF?$FL?$FO?$CC?$FN?$CC?5?$CC?$CF?$FL?$FO?$CC?$FN?$CC?$AA@
  0094f	8d 8d f4 fe ff
	ff		 lea	 ecx, DWORD PTR _Buff$[ebp]
  00955	51		 push	 ecx
  00956	e8 00 00 00 00	 call	 _sscanf
  0095b	83 c4 24	 add	 esp, 36			; 00000024H

; 151  : 			Quest[5][Count[5]].Mob  = n[0];

  0095e	8b 45 f8	 mov	 eax, DWORD PTR _this$[ebp]
  00961	8b 88 2c db 1a
	00		 mov	 ecx, DWORD PTR [eax+1760044]
  00967	69 c9 dc 00 00
	00		 imul	 ecx, 220		; 000000dcH
  0096d	8b 55 f8	 mov	 edx, DWORD PTR _this$[ebp]
  00970	8b 85 08 fb ff
	ff		 mov	 eax, DWORD PTR _n$220085[ebp]
  00976	89 84 0a e0 c8
	10 00		 mov	 DWORD PTR [edx+ecx+1100000], eax

; 152  : 			Quest[5][Count[5]].Coun = n[1];

  0097d	8b 45 f8	 mov	 eax, DWORD PTR _this$[ebp]
  00980	8b 88 2c db 1a
	00		 mov	 ecx, DWORD PTR [eax+1760044]
  00986	69 c9 dc 00 00
	00		 imul	 ecx, 220		; 000000dcH
  0098c	8b 55 f8	 mov	 edx, DWORD PTR _this$[ebp]
  0098f	8b 85 0c fb ff
	ff		 mov	 eax, DWORD PTR _n$220085[ebp+4]
  00995	89 84 0a e4 c8
	10 00		 mov	 DWORD PTR [edx+ecx+1100004], eax

; 153  : 			Quest[5][Count[5]].proc = n[2];

  0099c	8b 45 f8	 mov	 eax, DWORD PTR _this$[ebp]
  0099f	8b 88 2c db 1a
	00		 mov	 ecx, DWORD PTR [eax+1760044]
  009a5	69 c9 dc 00 00
	00		 imul	 ecx, 220		; 000000dcH
  009ab	8b 55 f8	 mov	 edx, DWORD PTR _this$[ebp]
  009ae	8b 85 10 fb ff
	ff		 mov	 eax, DWORD PTR _n$220085[ebp+8]
  009b4	89 84 0a e8 c8
	10 00		 mov	 DWORD PTR [edx+ecx+1100008], eax

; 154  : 			Quest[5][Count[5]].rew  = n[3];

  009bb	8b 45 f8	 mov	 eax, DWORD PTR _this$[ebp]
  009be	8b 88 2c db 1a
	00		 mov	 ecx, DWORD PTR [eax+1760044]
  009c4	69 c9 dc 00 00
	00		 imul	 ecx, 220		; 000000dcH
  009ca	8b 55 f8	 mov	 edx, DWORD PTR _this$[ebp]
  009cd	8b 85 14 fb ff
	ff		 mov	 eax, DWORD PTR _n$220085[ebp+12]
  009d3	89 84 0a ec c8
	10 00		 mov	 DWORD PTR [edx+ecx+1100012], eax

; 155  : 			Quest[5][Count[5]].gift = n[4];

  009da	8b 45 f8	 mov	 eax, DWORD PTR _this$[ebp]
  009dd	8b 88 2c db 1a
	00		 mov	 ecx, DWORD PTR [eax+1760044]
  009e3	69 c9 dc 00 00
	00		 imul	 ecx, 220		; 000000dcH
  009e9	8b 55 f8	 mov	 edx, DWORD PTR _this$[ebp]
  009ec	8b 85 18 fb ff
	ff		 mov	 eax, DWORD PTR _n$220085[ebp+16]
  009f2	89 84 0a f0 c8
	10 00		 mov	 DWORD PTR [edx+ecx+1100016], eax

; 156  : 			sprintf(Quest[5][Count[5]].msg,"%s",mes);

  009f9	8d 85 a4 fa ff
	ff		 lea	 eax, DWORD PTR _mes$220086[ebp]
  009ff	50		 push	 eax
  00a00	68 00 00 00 00	 push	 OFFSET ??_C@_02DKCKIIND@?$CFs?$AA@
  00a05	8b 4d f8	 mov	 ecx, DWORD PTR _this$[ebp]
  00a08	8b 91 2c db 1a
	00		 mov	 edx, DWORD PTR [ecx+1760044]
  00a0e	69 d2 dc 00 00
	00		 imul	 edx, 220		; 000000dcH
  00a14	8b 45 f8	 mov	 eax, DWORD PTR _this$[ebp]
  00a17	8d 8c 10 f4 c8
	10 00		 lea	 ecx, DWORD PTR [eax+edx+1100020]
  00a1e	51		 push	 ecx
  00a1f	e8 00 00 00 00	 call	 _sprintf
  00a24	83 c4 0c	 add	 esp, 12			; 0000000cH

; 157  : 			sprintf(Quest[5][Count[5]].msg2,"%s",mes2);

  00a27	8d 85 40 fa ff
	ff		 lea	 eax, DWORD PTR _mes2$220087[ebp]
  00a2d	50		 push	 eax
  00a2e	68 00 00 00 00	 push	 OFFSET ??_C@_02DKCKIIND@?$CFs?$AA@
  00a33	8b 4d f8	 mov	 ecx, DWORD PTR _this$[ebp]
  00a36	8b 91 2c db 1a
	00		 mov	 edx, DWORD PTR [ecx+1760044]
  00a3c	69 d2 dc 00 00
	00		 imul	 edx, 220		; 000000dcH
  00a42	8b 45 f8	 mov	 eax, DWORD PTR _this$[ebp]
  00a45	8d 8c 10 58 c9
	10 00		 lea	 ecx, DWORD PTR [eax+edx+1100120]
  00a4c	51		 push	 ecx
  00a4d	e8 00 00 00 00	 call	 _sprintf
  00a52	83 c4 0c	 add	 esp, 12			; 0000000cH

; 158  : 			Count[5]++;

  00a55	8b 45 f8	 mov	 eax, DWORD PTR _this$[ebp]
  00a58	8b 88 2c db 1a
	00		 mov	 ecx, DWORD PTR [eax+1760044]
  00a5e	83 c1 01	 add	 ecx, 1
  00a61	8b 55 f8	 mov	 edx, DWORD PTR _this$[ebp]
  00a64	89 8a 2c db 1a
	00		 mov	 DWORD PTR [edx+1760044], ecx
$LN4@StartUP:

; 159  : 		}
; 160  : 		if(Flag == 6)

  00a6a	83 bd f0 fe ff
	ff 06		 cmp	 DWORD PTR _Flag$[ebp], 6
  00a71	0f 85 51 01 00
	00		 jne	 $LN3@StartUP

; 161  : 		{
; 162  : 			int n[10];
; 163  : 			char mes[100];
; 164  : 			char mes2[100];
; 165  : 			//gets(mes);
; 166  : 			sscanf(Buff,"%d %d %d %d %d \"%[^\"]\" \"%[^\"]\"",&n[0],&n[1],&n[2],&n[3],&n[4],&mes,&mes2);

  00a77	8d 85 50 f9 ff
	ff		 lea	 eax, DWORD PTR _mes2$220091[ebp]
  00a7d	50		 push	 eax
  00a7e	8d 8d b4 f9 ff
	ff		 lea	 ecx, DWORD PTR _mes$220090[ebp]
  00a84	51		 push	 ecx
  00a85	8d 95 28 fa ff
	ff		 lea	 edx, DWORD PTR _n$220089[ebp+16]
  00a8b	52		 push	 edx
  00a8c	8d 85 24 fa ff
	ff		 lea	 eax, DWORD PTR _n$220089[ebp+12]
  00a92	50		 push	 eax
  00a93	8d 8d 20 fa ff
	ff		 lea	 ecx, DWORD PTR _n$220089[ebp+8]
  00a99	51		 push	 ecx
  00a9a	8d 95 1c fa ff
	ff		 lea	 edx, DWORD PTR _n$220089[ebp+4]
  00aa0	52		 push	 edx
  00aa1	8d 85 18 fa ff
	ff		 lea	 eax, DWORD PTR _n$220089[ebp]
  00aa7	50		 push	 eax
  00aa8	68 00 00 00 00	 push	 OFFSET ??_C@_0BP@KENEOMOO@?$CFd?5?$CFd?5?$CFd?5?$CFd?5?$CFd?5?$CC?$CF?$FL?$FO?$CC?$FN?$CC?5?$CC?$CF?$FL?$FO?$CC?$FN?$CC?$AA@
  00aad	8d 8d f4 fe ff
	ff		 lea	 ecx, DWORD PTR _Buff$[ebp]
  00ab3	51		 push	 ecx
  00ab4	e8 00 00 00 00	 call	 _sscanf
  00ab9	83 c4 24	 add	 esp, 36			; 00000024H

; 167  : 			Quest[6][Count[6]].Mob  = n[0];

  00abc	8b 45 f8	 mov	 eax, DWORD PTR _this$[ebp]
  00abf	8b 88 30 db 1a
	00		 mov	 ecx, DWORD PTR [eax+1760048]
  00ac5	69 c9 dc 00 00
	00		 imul	 ecx, 220		; 000000dcH
  00acb	8b 55 f8	 mov	 edx, DWORD PTR _this$[ebp]
  00ace	8b 85 18 fa ff
	ff		 mov	 eax, DWORD PTR _n$220089[ebp]
  00ad4	89 84 0a 40 24
	14 00		 mov	 DWORD PTR [edx+ecx+1320000], eax

; 168  : 			Quest[6][Count[6]].Coun = n[1];

  00adb	8b 45 f8	 mov	 eax, DWORD PTR _this$[ebp]
  00ade	8b 88 30 db 1a
	00		 mov	 ecx, DWORD PTR [eax+1760048]
  00ae4	69 c9 dc 00 00
	00		 imul	 ecx, 220		; 000000dcH
  00aea	8b 55 f8	 mov	 edx, DWORD PTR _this$[ebp]
  00aed	8b 85 1c fa ff
	ff		 mov	 eax, DWORD PTR _n$220089[ebp+4]
  00af3	89 84 0a 44 24
	14 00		 mov	 DWORD PTR [edx+ecx+1320004], eax

; 169  : 			Quest[6][Count[6]].proc = n[2];

  00afa	8b 45 f8	 mov	 eax, DWORD PTR _this$[ebp]
  00afd	8b 88 30 db 1a
	00		 mov	 ecx, DWORD PTR [eax+1760048]
  00b03	69 c9 dc 00 00
	00		 imul	 ecx, 220		; 000000dcH
  00b09	8b 55 f8	 mov	 edx, DWORD PTR _this$[ebp]
  00b0c	8b 85 20 fa ff
	ff		 mov	 eax, DWORD PTR _n$220089[ebp+8]
  00b12	89 84 0a 48 24
	14 00		 mov	 DWORD PTR [edx+ecx+1320008], eax

; 170  : 			Quest[6][Count[6]].rew  = n[3];

  00b19	8b 45 f8	 mov	 eax, DWORD PTR _this$[ebp]
  00b1c	8b 88 30 db 1a
	00		 mov	 ecx, DWORD PTR [eax+1760048]
  00b22	69 c9 dc 00 00
	00		 imul	 ecx, 220		; 000000dcH
  00b28	8b 55 f8	 mov	 edx, DWORD PTR _this$[ebp]
  00b2b	8b 85 24 fa ff
	ff		 mov	 eax, DWORD PTR _n$220089[ebp+12]
  00b31	89 84 0a 4c 24
	14 00		 mov	 DWORD PTR [edx+ecx+1320012], eax

; 171  : 			Quest[6][Count[6]].gift = n[4];

  00b38	8b 45 f8	 mov	 eax, DWORD PTR _this$[ebp]
  00b3b	8b 88 30 db 1a
	00		 mov	 ecx, DWORD PTR [eax+1760048]
  00b41	69 c9 dc 00 00
	00		 imul	 ecx, 220		; 000000dcH
  00b47	8b 55 f8	 mov	 edx, DWORD PTR _this$[ebp]
  00b4a	8b 85 28 fa ff
	ff		 mov	 eax, DWORD PTR _n$220089[ebp+16]
  00b50	89 84 0a 50 24
	14 00		 mov	 DWORD PTR [edx+ecx+1320016], eax

; 172  : 			sprintf(Quest[6][Count[6]].msg,"%s",mes);

  00b57	8d 85 b4 f9 ff
	ff		 lea	 eax, DWORD PTR _mes$220090[ebp]
  00b5d	50		 push	 eax
  00b5e	68 00 00 00 00	 push	 OFFSET ??_C@_02DKCKIIND@?$CFs?$AA@
  00b63	8b 4d f8	 mov	 ecx, DWORD PTR _this$[ebp]
  00b66	8b 91 30 db 1a
	00		 mov	 edx, DWORD PTR [ecx+1760048]
  00b6c	69 d2 dc 00 00
	00		 imul	 edx, 220		; 000000dcH
  00b72	8b 45 f8	 mov	 eax, DWORD PTR _this$[ebp]
  00b75	8d 8c 10 54 24
	14 00		 lea	 ecx, DWORD PTR [eax+edx+1320020]
  00b7c	51		 push	 ecx
  00b7d	e8 00 00 00 00	 call	 _sprintf
  00b82	83 c4 0c	 add	 esp, 12			; 0000000cH

; 173  : 			sprintf(Quest[6][Count[6]].msg2,"%s",mes2);

  00b85	8d 85 50 f9 ff
	ff		 lea	 eax, DWORD PTR _mes2$220091[ebp]
  00b8b	50		 push	 eax
  00b8c	68 00 00 00 00	 push	 OFFSET ??_C@_02DKCKIIND@?$CFs?$AA@
  00b91	8b 4d f8	 mov	 ecx, DWORD PTR _this$[ebp]
  00b94	8b 91 30 db 1a
	00		 mov	 edx, DWORD PTR [ecx+1760048]
  00b9a	69 d2 dc 00 00
	00		 imul	 edx, 220		; 000000dcH
  00ba0	8b 45 f8	 mov	 eax, DWORD PTR _this$[ebp]
  00ba3	8d 8c 10 b8 24
	14 00		 lea	 ecx, DWORD PTR [eax+edx+1320120]
  00baa	51		 push	 ecx
  00bab	e8 00 00 00 00	 call	 _sprintf
  00bb0	83 c4 0c	 add	 esp, 12			; 0000000cH

; 174  : 			Count[6]++;

  00bb3	8b 45 f8	 mov	 eax, DWORD PTR _this$[ebp]
  00bb6	8b 88 30 db 1a
	00		 mov	 ecx, DWORD PTR [eax+1760048]
  00bbc	83 c1 01	 add	 ecx, 1
  00bbf	8b 55 f8	 mov	 edx, DWORD PTR _this$[ebp]
  00bc2	89 8a 30 db 1a
	00		 mov	 DWORD PTR [edx+1760048], ecx
$LN3@StartUP:

; 175  : 		}
; 176  : 		if(Flag == 7)

  00bc8	83 bd f0 fe ff
	ff 07		 cmp	 DWORD PTR _Flag$[ebp], 7
  00bcf	0f 85 51 01 00
	00		 jne	 $LN2@StartUP

; 177  : 		{
; 178  : 			int n[10];
; 179  : 			char mes[100];
; 180  : 			char mes2[100];
; 181  : 			//gets(mes);
; 182  : 			sscanf(Buff,"%d %d %d %d %d \"%[^\"]\" \"%[^\"]\"",&n[0],&n[1],&n[2],&n[3],&n[4],&mes,&mes2);

  00bd5	8d 85 60 f8 ff
	ff		 lea	 eax, DWORD PTR _mes2$220095[ebp]
  00bdb	50		 push	 eax
  00bdc	8d 8d c4 f8 ff
	ff		 lea	 ecx, DWORD PTR _mes$220094[ebp]
  00be2	51		 push	 ecx
  00be3	8d 95 38 f9 ff
	ff		 lea	 edx, DWORD PTR _n$220093[ebp+16]
  00be9	52		 push	 edx
  00bea	8d 85 34 f9 ff
	ff		 lea	 eax, DWORD PTR _n$220093[ebp+12]
  00bf0	50		 push	 eax
  00bf1	8d 8d 30 f9 ff
	ff		 lea	 ecx, DWORD PTR _n$220093[ebp+8]
  00bf7	51		 push	 ecx
  00bf8	8d 95 2c f9 ff
	ff		 lea	 edx, DWORD PTR _n$220093[ebp+4]
  00bfe	52		 push	 edx
  00bff	8d 85 28 f9 ff
	ff		 lea	 eax, DWORD PTR _n$220093[ebp]
  00c05	50		 push	 eax
  00c06	68 00 00 00 00	 push	 OFFSET ??_C@_0BP@KENEOMOO@?$CFd?5?$CFd?5?$CFd?5?$CFd?5?$CFd?5?$CC?$CF?$FL?$FO?$CC?$FN?$CC?5?$CC?$CF?$FL?$FO?$CC?$FN?$CC?$AA@
  00c0b	8d 8d f4 fe ff
	ff		 lea	 ecx, DWORD PTR _Buff$[ebp]
  00c11	51		 push	 ecx
  00c12	e8 00 00 00 00	 call	 _sscanf
  00c17	83 c4 24	 add	 esp, 36			; 00000024H

; 183  : 			Quest[7][Count[7]].Mob  = n[0];

  00c1a	8b 45 f8	 mov	 eax, DWORD PTR _this$[ebp]
  00c1d	8b 88 34 db 1a
	00		 mov	 ecx, DWORD PTR [eax+1760052]
  00c23	69 c9 dc 00 00
	00		 imul	 ecx, 220		; 000000dcH
  00c29	8b 55 f8	 mov	 edx, DWORD PTR _this$[ebp]
  00c2c	8b 85 28 f9 ff
	ff		 mov	 eax, DWORD PTR _n$220093[ebp]
  00c32	89 84 0a a0 7f
	17 00		 mov	 DWORD PTR [edx+ecx+1540000], eax

; 184  : 			Quest[7][Count[7]].Coun = n[1];

  00c39	8b 45 f8	 mov	 eax, DWORD PTR _this$[ebp]
  00c3c	8b 88 34 db 1a
	00		 mov	 ecx, DWORD PTR [eax+1760052]
  00c42	69 c9 dc 00 00
	00		 imul	 ecx, 220		; 000000dcH
  00c48	8b 55 f8	 mov	 edx, DWORD PTR _this$[ebp]
  00c4b	8b 85 2c f9 ff
	ff		 mov	 eax, DWORD PTR _n$220093[ebp+4]
  00c51	89 84 0a a4 7f
	17 00		 mov	 DWORD PTR [edx+ecx+1540004], eax

; 185  : 			Quest[7][Count[7]].proc = n[2];

  00c58	8b 45 f8	 mov	 eax, DWORD PTR _this$[ebp]
  00c5b	8b 88 34 db 1a
	00		 mov	 ecx, DWORD PTR [eax+1760052]
  00c61	69 c9 dc 00 00
	00		 imul	 ecx, 220		; 000000dcH
  00c67	8b 55 f8	 mov	 edx, DWORD PTR _this$[ebp]
  00c6a	8b 85 30 f9 ff
	ff		 mov	 eax, DWORD PTR _n$220093[ebp+8]
  00c70	89 84 0a a8 7f
	17 00		 mov	 DWORD PTR [edx+ecx+1540008], eax

; 186  : 			Quest[7][Count[7]].rew  = n[3];

  00c77	8b 45 f8	 mov	 eax, DWORD PTR _this$[ebp]
  00c7a	8b 88 34 db 1a
	00		 mov	 ecx, DWORD PTR [eax+1760052]
  00c80	69 c9 dc 00 00
	00		 imul	 ecx, 220		; 000000dcH
  00c86	8b 55 f8	 mov	 edx, DWORD PTR _this$[ebp]
  00c89	8b 85 34 f9 ff
	ff		 mov	 eax, DWORD PTR _n$220093[ebp+12]
  00c8f	89 84 0a ac 7f
	17 00		 mov	 DWORD PTR [edx+ecx+1540012], eax

; 187  : 			Quest[7][Count[7]].gift = n[4];

  00c96	8b 45 f8	 mov	 eax, DWORD PTR _this$[ebp]
  00c99	8b 88 34 db 1a
	00		 mov	 ecx, DWORD PTR [eax+1760052]
  00c9f	69 c9 dc 00 00
	00		 imul	 ecx, 220		; 000000dcH
  00ca5	8b 55 f8	 mov	 edx, DWORD PTR _this$[ebp]
  00ca8	8b 85 38 f9 ff
	ff		 mov	 eax, DWORD PTR _n$220093[ebp+16]
  00cae	89 84 0a b0 7f
	17 00		 mov	 DWORD PTR [edx+ecx+1540016], eax

; 188  : 			sprintf(Quest[7][Count[7]].msg,"%s",mes);

  00cb5	8d 85 c4 f8 ff
	ff		 lea	 eax, DWORD PTR _mes$220094[ebp]
  00cbb	50		 push	 eax
  00cbc	68 00 00 00 00	 push	 OFFSET ??_C@_02DKCKIIND@?$CFs?$AA@
  00cc1	8b 4d f8	 mov	 ecx, DWORD PTR _this$[ebp]
  00cc4	8b 91 34 db 1a
	00		 mov	 edx, DWORD PTR [ecx+1760052]
  00cca	69 d2 dc 00 00
	00		 imul	 edx, 220		; 000000dcH
  00cd0	8b 45 f8	 mov	 eax, DWORD PTR _this$[ebp]
  00cd3	8d 8c 10 b4 7f
	17 00		 lea	 ecx, DWORD PTR [eax+edx+1540020]
  00cda	51		 push	 ecx
  00cdb	e8 00 00 00 00	 call	 _sprintf
  00ce0	83 c4 0c	 add	 esp, 12			; 0000000cH

; 189  : 			sprintf(Quest[7][Count[7]].msg2,"%s",mes2);

  00ce3	8d 85 60 f8 ff
	ff		 lea	 eax, DWORD PTR _mes2$220095[ebp]
  00ce9	50		 push	 eax
  00cea	68 00 00 00 00	 push	 OFFSET ??_C@_02DKCKIIND@?$CFs?$AA@
  00cef	8b 4d f8	 mov	 ecx, DWORD PTR _this$[ebp]
  00cf2	8b 91 34 db 1a
	00		 mov	 edx, DWORD PTR [ecx+1760052]
  00cf8	69 d2 dc 00 00
	00		 imul	 edx, 220		; 000000dcH
  00cfe	8b 45 f8	 mov	 eax, DWORD PTR _this$[ebp]
  00d01	8d 8c 10 18 80
	17 00		 lea	 ecx, DWORD PTR [eax+edx+1540120]
  00d08	51		 push	 ecx
  00d09	e8 00 00 00 00	 call	 _sprintf
  00d0e	83 c4 0c	 add	 esp, 12			; 0000000cH

; 190  : 			Count[7]++;

  00d11	8b 45 f8	 mov	 eax, DWORD PTR _this$[ebp]
  00d14	8b 88 34 db 1a
	00		 mov	 ecx, DWORD PTR [eax+1760052]
  00d1a	83 c1 01	 add	 ecx, 1
  00d1d	8b 55 f8	 mov	 edx, DWORD PTR _this$[ebp]
  00d20	89 8a 34 db 1a
	00		 mov	 DWORD PTR [edx+1760052], ecx
$LN2@StartUP:

; 191  : 		}
; 192  : 		if(Flag == 8)

  00d26	83 bd f0 fe ff
	ff 08		 cmp	 DWORD PTR _Flag$[ebp], 8
  00d2d	75 61		 jne	 SHORT $LN1@StartUP

; 193  : 		{
; 194  : 			BMQuestRandOpt_DATA list;
; 195  : 
; 196  : 			sscanf(Buff,"%d %d %d %d %d %d %d %d",
; 197  : 				&list.NeedLevel,
; 198  : 				&list.NeedRageLevel,
; 199  : 				&list.AddDamageReflect,
; 200  : 				&list.AddDamage,
; 201  : 				&list.AddDefense,
; 202  : 				&list.AddCriticalDamage,
; 203  : 				&list.AddExcelentDamage,
; 204  : 				&list.AddLife);

  00d2f	8d 85 5c f8 ff
	ff		 lea	 eax, DWORD PTR _list$220097[ebp+28]
  00d35	50		 push	 eax
  00d36	8d 8d 58 f8 ff
	ff		 lea	 ecx, DWORD PTR _list$220097[ebp+24]
  00d3c	51		 push	 ecx
  00d3d	8d 95 54 f8 ff
	ff		 lea	 edx, DWORD PTR _list$220097[ebp+20]
  00d43	52		 push	 edx
  00d44	8d 85 50 f8 ff
	ff		 lea	 eax, DWORD PTR _list$220097[ebp+16]
  00d4a	50		 push	 eax
  00d4b	8d 8d 4c f8 ff
	ff		 lea	 ecx, DWORD PTR _list$220097[ebp+12]
  00d51	51		 push	 ecx
  00d52	8d 95 48 f8 ff
	ff		 lea	 edx, DWORD PTR _list$220097[ebp+8]
  00d58	52		 push	 edx
  00d59	8d 85 44 f8 ff
	ff		 lea	 eax, DWORD PTR _list$220097[ebp+4]
  00d5f	50		 push	 eax
  00d60	8d 8d 40 f8 ff
	ff		 lea	 ecx, DWORD PTR _list$220097[ebp]
  00d66	51		 push	 ecx
  00d67	68 00 00 00 00	 push	 OFFSET ??_C@_0BI@HDMMBKBM@?$CFd?5?$CFd?5?$CFd?5?$CFd?5?$CFd?5?$CFd?5?$CFd?5?$CFd?$AA@
  00d6c	8d 95 f4 fe ff
	ff		 lea	 edx, DWORD PTR _Buff$[ebp]
  00d72	52		 push	 edx
  00d73	e8 00 00 00 00	 call	 _sscanf
  00d78	83 c4 28	 add	 esp, 40			; 00000028H

; 205  : 
; 206  : 			this->m_RandOpt.push_back(list);

  00d7b	8d 85 40 f8 ff
	ff		 lea	 eax, DWORD PTR _list$220097[ebp]
  00d81	50		 push	 eax
  00d82	8b 4d f8	 mov	 ecx, DWORD PTR _this$[ebp]
  00d85	81 c1 40 db 1a
	00		 add	 ecx, 1760064		; 001adb40H
  00d8b	e8 00 00 00 00	 call	 ?push_back@?$vector@UBMQuestRandOpt_DATA@@V?$allocator@UBMQuestRandOpt_DATA@@@std@@@std@@QAEXABUBMQuestRandOpt_DATA@@@Z ; std::vector<BMQuestRandOpt_DATA,std::allocator<BMQuestRandOpt_DATA> >::push_back
$LN1@StartUP:

; 207  : 		}
; 208  : 	}

  00d90	e9 b4 f5 ff ff	 jmp	 $LN11@StartUP
$LN10@StartUP:

; 209  : 	fclose(file);

  00d95	8b 45 f4	 mov	 eax, DWORD PTR _file$[ebp]
  00d98	50		 push	 eax
  00d99	e8 00 00 00 00	 call	 _fclose
  00d9e	83 c4 04	 add	 esp, 4
$LN15@StartUP:

; 210  : }

  00da1	5f		 pop	 edi
  00da2	5e		 pop	 esi
  00da3	5b		 pop	 ebx
  00da4	8b 4d fc	 mov	 ecx, DWORD PTR __$ArrayPad$[ebp]
  00da7	33 cd		 xor	 ecx, ebp
  00da9	e8 00 00 00 00	 call	 @__security_check_cookie@4
  00dae	8b e5		 mov	 esp, ebp
  00db0	5d		 pop	 ebp
  00db1	c3		 ret	 0
?StartUP@cBMQuest@@QAEXXZ ENDP				; cBMQuest::StartUP
_TEXT	ENDS
PUBLIC	??_C@_0O@CKAEPJAF@error?5?3?5?$CFs?5?$CFd?$AA@	; `string'
PUBLIC	??_C@_0DP@OJBMEBAN@d?3?2projects?2exteam6?43?2source?2gam@ ; `string'
PUBLIC	?__LINE__Var@?1??AddedCharacter@cBMQuest@@QAEXH@Z@4JA ; `cBMQuest::AddedCharacter'::`2'::__LINE__Var
PUBLIC	?AddedCharacter@cBMQuest@@QAEXH@Z		; cBMQuest::AddedCharacter
EXTRN	?gObj@@3PAUOBJECTSTRUCT@@A:DWORD		; gObj
EXTRN	?LogAdd@@3P6AXPADZZA:DWORD			; LogAdd
;	COMDAT ??_C@_0O@CKAEPJAF@error?5?3?5?$CFs?5?$CFd?$AA@
CONST	SEGMENT
??_C@_0O@CKAEPJAF@error?5?3?5?$CFs?5?$CFd?$AA@ DB 'error : %s %d', 00H ; `string'
CONST	ENDS
;	COMDAT ??_C@_0DP@OJBMEBAN@d?3?2projects?2exteam6?43?2source?2gam@
CONST	SEGMENT
??_C@_0DP@OJBMEBAN@d?3?2projects?2exteam6?43?2source?2gam@ DB 'd:\project'
	DB	's\exteam6.3\source\gameserver\gameserver\bmquest.cpp', 00H ; `string'
CONST	ENDS
;	COMDAT ?__LINE__Var@?1??AddedCharacter@cBMQuest@@QAEXH@Z@4JA
_DATA	SEGMENT
?__LINE__Var@?1??AddedCharacter@cBMQuest@@QAEXH@Z@4JA DD 0d5H ; `cBMQuest::AddedCharacter'::`2'::__LINE__Var
; Function compile flags: /Odtp /ZI
_DATA	ENDS
_TEXT	SEGMENT
tv69 = -76						; size = 4
_lpUser$ = -8						; size = 4
_this$ = -4						; size = 4
_aIndex$ = 8						; size = 4
?AddedCharacter@cBMQuest@@QAEXH@Z PROC			; cBMQuest::AddedCharacter
; _this$ = ecx

; 213  : {

  00dc0	55		 push	 ebp
  00dc1	8b ec		 mov	 ebp, esp
  00dc3	83 ec 4c	 sub	 esp, 76			; 0000004cH
  00dc6	53		 push	 ebx
  00dc7	56		 push	 esi
  00dc8	57		 push	 edi
  00dc9	89 4d fc	 mov	 DWORD PTR _this$[ebp], ecx

; 214  : 	if(!Enable)

  00dcc	8b 45 fc	 mov	 eax, DWORD PTR _this$[ebp]
  00dcf	83 b8 00 db 1a
	00 00		 cmp	 DWORD PTR [eax+1760000], 0
  00dd6	75 05		 jne	 SHORT $LN3@AddedChara

; 215  : 		return;	

  00dd8	e9 8f 01 00 00	 jmp	 $LN4@AddedChara
$LN3@AddedChara:

; 216  : 
; 217  : 	if ( OBJMAX_RANGE(aIndex) == FALSE )

  00ddd	83 7d 08 00	 cmp	 DWORD PTR _aIndex$[ebp], 0
  00de1	7d 09		 jge	 SHORT $LN6@AddedChara
  00de3	c7 45 b4 00 00
	00 00		 mov	 DWORD PTR tv69[ebp], 0
  00dea	eb 0f		 jmp	 SHORT $LN7@AddedChara
$LN6@AddedChara:
  00dec	33 c0		 xor	 eax, eax
  00dee	81 7d 08 97 3a
	00 00		 cmp	 DWORD PTR _aIndex$[ebp], 14999 ; 00003a97H
  00df5	0f 9e c0	 setle	 al
  00df8	89 45 b4	 mov	 DWORD PTR tv69[ebp], eax
$LN7@AddedChara:
  00dfb	83 7d b4 00	 cmp	 DWORD PTR tv69[ebp], 0
  00dff	75 21		 jne	 SHORT $LN2@AddedChara

; 218  : 	{
; 219  : 		LogAdd("error : %s %d", __FILE__, __LINE__ );

  00e01	a1 00 00 00 00	 mov	 eax, DWORD PTR ?__LINE__Var@?1??AddedCharacter@cBMQuest@@QAEXH@Z@4JA
  00e06	83 c0 06	 add	 eax, 6
  00e09	50		 push	 eax
  00e0a	68 00 00 00 00	 push	 OFFSET ??_C@_0DP@OJBMEBAN@d?3?2projects?2exteam6?43?2source?2gam@
  00e0f	68 00 00 00 00	 push	 OFFSET ??_C@_0O@CKAEPJAF@error?5?3?5?$CFs?5?$CFd?$AA@
  00e14	ff 15 00 00 00
	00		 call	 DWORD PTR ?LogAdd@@3P6AXPADZZA ; LogAdd
  00e1a	83 c4 0c	 add	 esp, 12			; 0000000cH

; 220  : 		return;

  00e1d	e9 4a 01 00 00	 jmp	 $LN4@AddedChara
$LN2@AddedChara:

; 221  : 	}
; 222  : 
; 223  : 	LPOBJ lpUser = &gObj[aIndex];

  00e22	8b 45 08	 mov	 eax, DWORD PTR _aIndex$[ebp]
  00e25	69 c0 38 2b 00
	00		 imul	 eax, 11064		; 00002b38H
  00e2b	03 05 00 00 00
	00		 add	 eax, DWORD PTR ?gObj@@3PAUOBJECTSTRUCT@@A ; gObj
  00e31	89 45 f8	 mov	 DWORD PTR _lpUser$[ebp], eax

; 224  : 
; 225  : 	if(lpUser->Connected < PLAYER_PLAYING)

  00e34	8b 45 f8	 mov	 eax, DWORD PTR _lpUser$[ebp]
  00e37	83 78 04 03	 cmp	 DWORD PTR [eax+4], 3
  00e3b	7d 05		 jge	 SHORT $LN1@AddedChara

; 226  : 	{
; 227  : 		return;

  00e3d	e9 2a 01 00 00	 jmp	 $LN4@AddedChara
$LN1@AddedChara:

; 228  : 	}
; 229  : 
; 230  : 	lpUser->DamageReflect += lpUser->BMDamageReflect;

  00e42	8b 45 f8	 mov	 eax, DWORD PTR _lpUser$[ebp]
  00e45	0f b6 88 71 01
	00 00		 movzx	 ecx, BYTE PTR [eax+369]
  00e4c	8b 55 f8	 mov	 edx, DWORD PTR _lpUser$[ebp]
  00e4f	03 8a b4 28 00
	00		 add	 ecx, DWORD PTR [edx+10420]
  00e55	8b 45 f8	 mov	 eax, DWORD PTR _lpUser$[ebp]
  00e58	88 88 71 01 00
	00		 mov	 BYTE PTR [eax+369], cl

; 231  : 	lpUser->m_AttackDamageMaxLeft += lpUser->BMDamage;

  00e5e	8b 45 f8	 mov	 eax, DWORD PTR _lpUser$[ebp]
  00e61	8b 88 78 04 00
	00		 mov	 ecx, DWORD PTR [eax+1144]
  00e67	8b 55 f8	 mov	 edx, DWORD PTR _lpUser$[ebp]
  00e6a	03 8a b8 28 00
	00		 add	 ecx, DWORD PTR [edx+10424]
  00e70	8b 45 f8	 mov	 eax, DWORD PTR _lpUser$[ebp]
  00e73	89 88 78 04 00
	00		 mov	 DWORD PTR [eax+1144], ecx

; 232  : 	lpUser->m_AttackDamageMinLeft += lpUser->BMDamage;

  00e79	8b 45 f8	 mov	 eax, DWORD PTR _lpUser$[ebp]
  00e7c	8b 88 7c 04 00
	00		 mov	 ecx, DWORD PTR [eax+1148]
  00e82	8b 55 f8	 mov	 edx, DWORD PTR _lpUser$[ebp]
  00e85	03 8a b8 28 00
	00		 add	 ecx, DWORD PTR [edx+10424]
  00e8b	8b 45 f8	 mov	 eax, DWORD PTR _lpUser$[ebp]
  00e8e	89 88 7c 04 00
	00		 mov	 DWORD PTR [eax+1148], ecx

; 233  : 	lpUser->m_AttackDamageMaxRight += lpUser->BMDamage;

  00e94	8b 45 f8	 mov	 eax, DWORD PTR _lpUser$[ebp]
  00e97	8b 88 80 04 00
	00		 mov	 ecx, DWORD PTR [eax+1152]
  00e9d	8b 55 f8	 mov	 edx, DWORD PTR _lpUser$[ebp]
  00ea0	03 8a b8 28 00
	00		 add	 ecx, DWORD PTR [edx+10424]
  00ea6	8b 45 f8	 mov	 eax, DWORD PTR _lpUser$[ebp]
  00ea9	89 88 80 04 00
	00		 mov	 DWORD PTR [eax+1152], ecx

; 234  : 	lpUser->m_AttackDamageMinRight += lpUser->BMDamage;

  00eaf	8b 45 f8	 mov	 eax, DWORD PTR _lpUser$[ebp]
  00eb2	8b 88 84 04 00
	00		 mov	 ecx, DWORD PTR [eax+1156]
  00eb8	8b 55 f8	 mov	 edx, DWORD PTR _lpUser$[ebp]
  00ebb	03 8a b8 28 00
	00		 add	 ecx, DWORD PTR [edx+10424]
  00ec1	8b 45 f8	 mov	 eax, DWORD PTR _lpUser$[ebp]
  00ec4	89 88 84 04 00
	00		 mov	 DWORD PTR [eax+1156], ecx

; 235  : 	lpUser->m_MagicDamageMin += lpUser->BMDamage;

  00eca	8b 45 f8	 mov	 eax, DWORD PTR _lpUser$[ebp]
  00ecd	8b 88 68 04 00
	00		 mov	 ecx, DWORD PTR [eax+1128]
  00ed3	8b 55 f8	 mov	 edx, DWORD PTR _lpUser$[ebp]
  00ed6	03 8a b8 28 00
	00		 add	 ecx, DWORD PTR [edx+10424]
  00edc	8b 45 f8	 mov	 eax, DWORD PTR _lpUser$[ebp]
  00edf	89 88 68 04 00
	00		 mov	 DWORD PTR [eax+1128], ecx

; 236  : 	lpUser->m_MagicDamageMax += lpUser->BMDamage;

  00ee5	8b 45 f8	 mov	 eax, DWORD PTR _lpUser$[ebp]
  00ee8	8b 88 6c 04 00
	00		 mov	 ecx, DWORD PTR [eax+1132]
  00eee	8b 55 f8	 mov	 edx, DWORD PTR _lpUser$[ebp]
  00ef1	03 8a b8 28 00
	00		 add	 ecx, DWORD PTR [edx+10424]
  00ef7	8b 45 f8	 mov	 eax, DWORD PTR _lpUser$[ebp]
  00efa	89 88 6c 04 00
	00		 mov	 DWORD PTR [eax+1132], ecx

; 237  : 	lpUser->m_Defense += lpUser->BMDefense;

  00f00	8b 45 f8	 mov	 eax, DWORD PTR _lpUser$[ebp]
  00f03	8b 88 94 04 00
	00		 mov	 ecx, DWORD PTR [eax+1172]
  00f09	8b 55 f8	 mov	 edx, DWORD PTR _lpUser$[ebp]
  00f0c	03 8a bc 28 00
	00		 add	 ecx, DWORD PTR [edx+10428]
  00f12	8b 45 f8	 mov	 eax, DWORD PTR _lpUser$[ebp]
  00f15	89 88 94 04 00
	00		 mov	 DWORD PTR [eax+1172], ecx

; 238  : 	lpUser->m_MagicDefense += lpUser->BMDefense;

  00f1b	8b 45 f8	 mov	 eax, DWORD PTR _lpUser$[ebp]
  00f1e	8b 88 98 04 00
	00		 mov	 ecx, DWORD PTR [eax+1176]
  00f24	8b 55 f8	 mov	 edx, DWORD PTR _lpUser$[ebp]
  00f27	03 8a bc 28 00
	00		 add	 ecx, DWORD PTR [edx+10428]
  00f2d	8b 45 f8	 mov	 eax, DWORD PTR _lpUser$[ebp]
  00f30	89 88 98 04 00
	00		 mov	 DWORD PTR [eax+1176], ecx

; 239  : 	lpUser->m_CriticalDamage += lpUser->BMCriticalDamage;

  00f36	8b 45 f8	 mov	 eax, DWORD PTR _lpUser$[ebp]
  00f39	8b 88 bc 04 00
	00		 mov	 ecx, DWORD PTR [eax+1212]
  00f3f	8b 55 f8	 mov	 edx, DWORD PTR _lpUser$[ebp]
  00f42	03 8a c0 28 00
	00		 add	 ecx, DWORD PTR [edx+10432]
  00f48	8b 45 f8	 mov	 eax, DWORD PTR _lpUser$[ebp]
  00f4b	89 88 bc 04 00
	00		 mov	 DWORD PTR [eax+1212], ecx

; 240  : 	lpUser->m_ExcelentDamage += lpUser->BMExcelentDamage;

  00f51	8b 45 f8	 mov	 eax, DWORD PTR _lpUser$[ebp]
  00f54	8b 88 c0 04 00
	00		 mov	 ecx, DWORD PTR [eax+1216]
  00f5a	8b 55 f8	 mov	 edx, DWORD PTR _lpUser$[ebp]
  00f5d	03 8a c4 28 00
	00		 add	 ecx, DWORD PTR [edx+10436]
  00f63	8b 45 f8	 mov	 eax, DWORD PTR _lpUser$[ebp]
  00f66	89 88 c0 04 00
	00		 mov	 DWORD PTR [eax+1216], ecx
$LN4@AddedChara:

; 241  : }

  00f6c	5f		 pop	 edi
  00f6d	5e		 pop	 esi
  00f6e	5b		 pop	 ebx
  00f6f	8b e5		 mov	 esp, ebp
  00f71	5d		 pop	 ebp
  00f72	c2 04 00	 ret	 4
?AddedCharacter@cBMQuest@@QAEXH@Z ENDP			; cBMQuest::AddedCharacter
_TEXT	ENDS
PUBLIC	??_C@_0BD@BKLKCPLB@?$EA?$FLBMInfo?$FN?5?$CL?$CFd?5Life?$AA@ ; `string'
PUBLIC	??_C@_0BI@LPBEODEH@?$EA?$FLBMInfo?$FN?5?$CL?$CFd?5ExcDamage?$AA@ ; `string'
PUBLIC	??_C@_0BJ@BGKBGMKI@?$EA?$FLBMInfo?$FN?5?$CL?$CFd?5CritDamage?$AA@ ; `string'
PUBLIC	??_C@_0BG@HMLFEONI@?$EA?$FLBMInfo?$FN?5?$CL?$CFd?5Defense?$AA@ ; `string'
PUBLIC	??_C@_0BF@CEBDJABB@?$EA?$FLBMInfo?$FN?5?$CL?$CFd?5Damage?$AA@ ; `string'
PUBLIC	??_C@_0BG@FDIPBDGE@?$EA?$FLBMInfo?$FN?5?$CL?$CFd?5Reflect?$AA@ ; `string'
PUBLIC	?__LINE__Var@?1??CharacterInformation@cBMQuest@@QAEXH@Z@4JA ; `cBMQuest::CharacterInformation'::`2'::__LINE__Var
PUBLIC	?CharacterInformation@cBMQuest@@QAEXH@Z		; cBMQuest::CharacterInformation
EXTRN	?MessageChat@@YAXHPADZZ:PROC			; MessageChat
;	COMDAT ??_C@_0BD@BKLKCPLB@?$EA?$FLBMInfo?$FN?5?$CL?$CFd?5Life?$AA@
CONST	SEGMENT
??_C@_0BD@BKLKCPLB@?$EA?$FLBMInfo?$FN?5?$CL?$CFd?5Life?$AA@ DB '@[BMInfo]'
	DB	' +%d Life', 00H				; `string'
CONST	ENDS
;	COMDAT ??_C@_0BI@LPBEODEH@?$EA?$FLBMInfo?$FN?5?$CL?$CFd?5ExcDamage?$AA@
CONST	SEGMENT
??_C@_0BI@LPBEODEH@?$EA?$FLBMInfo?$FN?5?$CL?$CFd?5ExcDamage?$AA@ DB '@[BM'
	DB	'Info] +%d ExcDamage', 00H			; `string'
CONST	ENDS
;	COMDAT ??_C@_0BJ@BGKBGMKI@?$EA?$FLBMInfo?$FN?5?$CL?$CFd?5CritDamage?$AA@
CONST	SEGMENT
??_C@_0BJ@BGKBGMKI@?$EA?$FLBMInfo?$FN?5?$CL?$CFd?5CritDamage?$AA@ DB '@[B'
	DB	'MInfo] +%d CritDamage', 00H			; `string'
CONST	ENDS
;	COMDAT ??_C@_0BG@HMLFEONI@?$EA?$FLBMInfo?$FN?5?$CL?$CFd?5Defense?$AA@
CONST	SEGMENT
??_C@_0BG@HMLFEONI@?$EA?$FLBMInfo?$FN?5?$CL?$CFd?5Defense?$AA@ DB '@[BMIn'
	DB	'fo] +%d Defense', 00H			; `string'
CONST	ENDS
;	COMDAT ??_C@_0BF@CEBDJABB@?$EA?$FLBMInfo?$FN?5?$CL?$CFd?5Damage?$AA@
CONST	SEGMENT
??_C@_0BF@CEBDJABB@?$EA?$FLBMInfo?$FN?5?$CL?$CFd?5Damage?$AA@ DB '@[BMInf'
	DB	'o] +%d Damage', 00H				; `string'
CONST	ENDS
;	COMDAT ??_C@_0BG@FDIPBDGE@?$EA?$FLBMInfo?$FN?5?$CL?$CFd?5Reflect?$AA@
CONST	SEGMENT
??_C@_0BG@FDIPBDGE@?$EA?$FLBMInfo?$FN?5?$CL?$CFd?5Reflect?$AA@ DB '@[BMIn'
	DB	'fo] +%d Reflect', 00H			; `string'
CONST	ENDS
;	COMDAT ?__LINE__Var@?1??CharacterInformation@cBMQuest@@QAEXH@Z@4JA
_DATA	SEGMENT
?__LINE__Var@?1??CharacterInformation@cBMQuest@@QAEXH@Z@4JA DD 0f4H ; `cBMQuest::CharacterInformation'::`2'::__LINE__Var
; Function compile flags: /Odtp /ZI
_DATA	ENDS
_TEXT	SEGMENT
tv69 = -76						; size = 4
_lpUser$ = -8						; size = 4
_this$ = -4						; size = 4
_aIndex$ = 8						; size = 4
?CharacterInformation@cBMQuest@@QAEXH@Z PROC		; cBMQuest::CharacterInformation
; _this$ = ecx

; 244  : {

  00f80	55		 push	 ebp
  00f81	8b ec		 mov	 ebp, esp
  00f83	83 ec 4c	 sub	 esp, 76			; 0000004cH
  00f86	53		 push	 ebx
  00f87	56		 push	 esi
  00f88	57		 push	 edi
  00f89	89 4d fc	 mov	 DWORD PTR _this$[ebp], ecx

; 245  : 	if(!Enable)

  00f8c	8b 45 fc	 mov	 eax, DWORD PTR _this$[ebp]
  00f8f	83 b8 00 db 1a
	00 00		 cmp	 DWORD PTR [eax+1760000], 0
  00f96	75 05		 jne	 SHORT $LN3@CharacterI

; 246  : 		return;

  00f98	e9 07 01 00 00	 jmp	 $LN4@CharacterI
$LN3@CharacterI:

; 247  : 
; 248  : 	if ( OBJMAX_RANGE(aIndex) == FALSE )

  00f9d	83 7d 08 00	 cmp	 DWORD PTR _aIndex$[ebp], 0
  00fa1	7d 09		 jge	 SHORT $LN6@CharacterI
  00fa3	c7 45 b4 00 00
	00 00		 mov	 DWORD PTR tv69[ebp], 0
  00faa	eb 0f		 jmp	 SHORT $LN7@CharacterI
$LN6@CharacterI:
  00fac	33 c0		 xor	 eax, eax
  00fae	81 7d 08 97 3a
	00 00		 cmp	 DWORD PTR _aIndex$[ebp], 14999 ; 00003a97H
  00fb5	0f 9e c0	 setle	 al
  00fb8	89 45 b4	 mov	 DWORD PTR tv69[ebp], eax
$LN7@CharacterI:
  00fbb	83 7d b4 00	 cmp	 DWORD PTR tv69[ebp], 0
  00fbf	75 21		 jne	 SHORT $LN2@CharacterI

; 249  : 	{
; 250  : 		LogAdd("error : %s %d", __FILE__, __LINE__ );

  00fc1	a1 00 00 00 00	 mov	 eax, DWORD PTR ?__LINE__Var@?1??CharacterInformation@cBMQuest@@QAEXH@Z@4JA
  00fc6	83 c0 06	 add	 eax, 6
  00fc9	50		 push	 eax
  00fca	68 00 00 00 00	 push	 OFFSET ??_C@_0DP@OJBMEBAN@d?3?2projects?2exteam6?43?2source?2gam@
  00fcf	68 00 00 00 00	 push	 OFFSET ??_C@_0O@CKAEPJAF@error?5?3?5?$CFs?5?$CFd?$AA@
  00fd4	ff 15 00 00 00
	00		 call	 DWORD PTR ?LogAdd@@3P6AXPADZZA ; LogAdd
  00fda	83 c4 0c	 add	 esp, 12			; 0000000cH

; 251  : 		return;

  00fdd	e9 c2 00 00 00	 jmp	 $LN4@CharacterI
$LN2@CharacterI:

; 252  : 	}
; 253  : 
; 254  : 	LPOBJ lpUser = &gObj[aIndex];

  00fe2	8b 45 08	 mov	 eax, DWORD PTR _aIndex$[ebp]
  00fe5	69 c0 38 2b 00
	00		 imul	 eax, 11064		; 00002b38H
  00feb	03 05 00 00 00
	00		 add	 eax, DWORD PTR ?gObj@@3PAUOBJECTSTRUCT@@A ; gObj
  00ff1	89 45 f8	 mov	 DWORD PTR _lpUser$[ebp], eax

; 255  : 
; 256  : 	if(lpUser->Connected < PLAYER_PLAYING)

  00ff4	8b 45 f8	 mov	 eax, DWORD PTR _lpUser$[ebp]
  00ff7	83 78 04 03	 cmp	 DWORD PTR [eax+4], 3
  00ffb	7d 05		 jge	 SHORT $LN1@CharacterI

; 257  : 	{
; 258  : 		return;

  00ffd	e9 a2 00 00 00	 jmp	 $LN4@CharacterI
$LN1@CharacterI:

; 259  : 	}
; 260  : 	
; 261  : 	MessageChat(aIndex,"@[BMInfo] +%d Reflect",lpUser->BMDamageReflect);

  01002	8b 45 f8	 mov	 eax, DWORD PTR _lpUser$[ebp]
  01005	8b 88 b4 28 00
	00		 mov	 ecx, DWORD PTR [eax+10420]
  0100b	51		 push	 ecx
  0100c	68 00 00 00 00	 push	 OFFSET ??_C@_0BG@FDIPBDGE@?$EA?$FLBMInfo?$FN?5?$CL?$CFd?5Reflect?$AA@
  01011	8b 55 08	 mov	 edx, DWORD PTR _aIndex$[ebp]
  01014	52		 push	 edx
  01015	e8 00 00 00 00	 call	 ?MessageChat@@YAXHPADZZ	; MessageChat
  0101a	83 c4 0c	 add	 esp, 12			; 0000000cH

; 262  : 	MessageChat(aIndex,"@[BMInfo] +%d Damage",lpUser->BMDamage);

  0101d	8b 45 f8	 mov	 eax, DWORD PTR _lpUser$[ebp]
  01020	8b 88 b8 28 00
	00		 mov	 ecx, DWORD PTR [eax+10424]
  01026	51		 push	 ecx
  01027	68 00 00 00 00	 push	 OFFSET ??_C@_0BF@CEBDJABB@?$EA?$FLBMInfo?$FN?5?$CL?$CFd?5Damage?$AA@
  0102c	8b 55 08	 mov	 edx, DWORD PTR _aIndex$[ebp]
  0102f	52		 push	 edx
  01030	e8 00 00 00 00	 call	 ?MessageChat@@YAXHPADZZ	; MessageChat
  01035	83 c4 0c	 add	 esp, 12			; 0000000cH

; 263  : 	MessageChat(aIndex,"@[BMInfo] +%d Defense",lpUser->BMDefense);

  01038	8b 45 f8	 mov	 eax, DWORD PTR _lpUser$[ebp]
  0103b	8b 88 bc 28 00
	00		 mov	 ecx, DWORD PTR [eax+10428]
  01041	51		 push	 ecx
  01042	68 00 00 00 00	 push	 OFFSET ??_C@_0BG@HMLFEONI@?$EA?$FLBMInfo?$FN?5?$CL?$CFd?5Defense?$AA@
  01047	8b 55 08	 mov	 edx, DWORD PTR _aIndex$[ebp]
  0104a	52		 push	 edx
  0104b	e8 00 00 00 00	 call	 ?MessageChat@@YAXHPADZZ	; MessageChat
  01050	83 c4 0c	 add	 esp, 12			; 0000000cH

; 264  : 	MessageChat(aIndex,"@[BMInfo] +%d CritDamage",lpUser->BMCriticalDamage);

  01053	8b 45 f8	 mov	 eax, DWORD PTR _lpUser$[ebp]
  01056	8b 88 c0 28 00
	00		 mov	 ecx, DWORD PTR [eax+10432]
  0105c	51		 push	 ecx
  0105d	68 00 00 00 00	 push	 OFFSET ??_C@_0BJ@BGKBGMKI@?$EA?$FLBMInfo?$FN?5?$CL?$CFd?5CritDamage?$AA@
  01062	8b 55 08	 mov	 edx, DWORD PTR _aIndex$[ebp]
  01065	52		 push	 edx
  01066	e8 00 00 00 00	 call	 ?MessageChat@@YAXHPADZZ	; MessageChat
  0106b	83 c4 0c	 add	 esp, 12			; 0000000cH

; 265  : 	MessageChat(aIndex,"@[BMInfo] +%d ExcDamage",lpUser->BMExcelentDamage);

  0106e	8b 45 f8	 mov	 eax, DWORD PTR _lpUser$[ebp]
  01071	8b 88 c4 28 00
	00		 mov	 ecx, DWORD PTR [eax+10436]
  01077	51		 push	 ecx
  01078	68 00 00 00 00	 push	 OFFSET ??_C@_0BI@LPBEODEH@?$EA?$FLBMInfo?$FN?5?$CL?$CFd?5ExcDamage?$AA@
  0107d	8b 55 08	 mov	 edx, DWORD PTR _aIndex$[ebp]
  01080	52		 push	 edx
  01081	e8 00 00 00 00	 call	 ?MessageChat@@YAXHPADZZ	; MessageChat
  01086	83 c4 0c	 add	 esp, 12			; 0000000cH

; 266  : 	MessageChat(aIndex,"@[BMInfo] +%d Life",lpUser->BMLife);

  01089	8b 45 f8	 mov	 eax, DWORD PTR _lpUser$[ebp]
  0108c	8b 88 c8 28 00
	00		 mov	 ecx, DWORD PTR [eax+10440]
  01092	51		 push	 ecx
  01093	68 00 00 00 00	 push	 OFFSET ??_C@_0BD@BKLKCPLB@?$EA?$FLBMInfo?$FN?5?$CL?$CFd?5Life?$AA@
  01098	8b 55 08	 mov	 edx, DWORD PTR _aIndex$[ebp]
  0109b	52		 push	 edx
  0109c	e8 00 00 00 00	 call	 ?MessageChat@@YAXHPADZZ	; MessageChat
  010a1	83 c4 0c	 add	 esp, 12			; 0000000cH
$LN4@CharacterI:

; 267  : }

  010a4	5f		 pop	 edi
  010a5	5e		 pop	 esi
  010a6	5b		 pop	 ebx
  010a7	8b e5		 mov	 esp, ebp
  010a9	5d		 pop	 ebp
  010aa	c2 04 00	 ret	 4
?CharacterInformation@cBMQuest@@QAEXH@Z ENDP		; cBMQuest::CharacterInformation
_TEXT	ENDS
PUBLIC	?NPCdialogue@cBMQuest@@QAEXHH@Z			; cBMQuest::NPCdialogue
PUBLIC	?__LINE__Var@?1??NPCClick@cBMQuest@@QAE_NHH@Z@4JA ; `cBMQuest::NPCClick'::`2'::__LINE__Var
PUBLIC	?NPCClick@cBMQuest@@QAE_NHH@Z			; cBMQuest::NPCClick
EXTRN	?gObjIsConnectedEx@@YA_NH@Z:PROC		; gObjIsConnectedEx
;	COMDAT ?__LINE__Var@?1??NPCClick@cBMQuest@@QAE_NHH@Z@4JA
_DATA	SEGMENT
?__LINE__Var@?1??NPCClick@cBMQuest@@QAE_NHH@Z@4JA DD 010eH ; `cBMQuest::NPCClick'::`2'::__LINE__Var
; Function compile flags: /Odtp /ZI
_DATA	ENDS
_TEXT	SEGMENT
tv74 = -80						; size = 4
tv69 = -80						; size = 4
_lpNpc$ = -12						; size = 4
_lpUser$ = -8						; size = 4
_this$ = -4						; size = 4
_aIndex$ = 8						; size = 4
_aNPC$ = 12						; size = 4
?NPCClick@cBMQuest@@QAE_NHH@Z PROC			; cBMQuest::NPCClick
; _this$ = ecx

; 270  : {

  010b0	55		 push	 ebp
  010b1	8b ec		 mov	 ebp, esp
  010b3	83 ec 50	 sub	 esp, 80			; 00000050H
  010b6	53		 push	 ebx
  010b7	56		 push	 esi
  010b8	57		 push	 edi
  010b9	89 4d fc	 mov	 DWORD PTR _this$[ebp], ecx

; 271  : 	if(!this->Enable)

  010bc	8b 45 fc	 mov	 eax, DWORD PTR _this$[ebp]
  010bf	83 b8 00 db 1a
	00 00		 cmp	 DWORD PTR [eax+1760000], 0
  010c6	75 07		 jne	 SHORT $LN5@NPCClick

; 272  : 	{
; 273  :  		return false;

  010c8	32 c0		 xor	 al, al
  010ca	e9 13 01 00 00	 jmp	 $LN6@NPCClick
$LN5@NPCClick:

; 274  : 	}
; 275  : 
; 276  : 	if ( OBJMAX_RANGE(aIndex) == FALSE || OBJMAX_RANGE(aNPC) == FALSE )

  010cf	83 7d 08 00	 cmp	 DWORD PTR _aIndex$[ebp], 0
  010d3	7d 09		 jge	 SHORT $LN8@NPCClick
  010d5	c7 45 b0 00 00
	00 00		 mov	 DWORD PTR tv69[ebp], 0
  010dc	eb 0f		 jmp	 SHORT $LN9@NPCClick
$LN8@NPCClick:
  010de	33 c0		 xor	 eax, eax
  010e0	81 7d 08 97 3a
	00 00		 cmp	 DWORD PTR _aIndex$[ebp], 14999 ; 00003a97H
  010e7	0f 9e c0	 setle	 al
  010ea	89 45 b0	 mov	 DWORD PTR tv69[ebp], eax
$LN9@NPCClick:
  010ed	83 7d b0 00	 cmp	 DWORD PTR tv69[ebp], 0
  010f1	74 24		 je	 SHORT $LN3@NPCClick
  010f3	83 7d 0c 00	 cmp	 DWORD PTR _aNPC$[ebp], 0
  010f7	7d 09		 jge	 SHORT $LN10@NPCClick
  010f9	c7 45 b0 00 00
	00 00		 mov	 DWORD PTR tv74[ebp], 0
  01100	eb 0f		 jmp	 SHORT $LN11@NPCClick
$LN10@NPCClick:
  01102	33 c0		 xor	 eax, eax
  01104	81 7d 0c 97 3a
	00 00		 cmp	 DWORD PTR _aNPC$[ebp], 14999 ; 00003a97H
  0110b	0f 9e c0	 setle	 al
  0110e	89 45 b0	 mov	 DWORD PTR tv74[ebp], eax
$LN11@NPCClick:
  01111	83 7d b0 00	 cmp	 DWORD PTR tv74[ebp], 0
  01115	75 23		 jne	 SHORT $LN4@NPCClick
$LN3@NPCClick:

; 277  : 	{
; 278  : 		LogAdd("error : %s %d", __FILE__, __LINE__ );

  01117	a1 00 00 00 00	 mov	 eax, DWORD PTR ?__LINE__Var@?1??NPCClick@cBMQuest@@QAE_NHH@Z@4JA
  0111c	83 c0 08	 add	 eax, 8
  0111f	50		 push	 eax
  01120	68 00 00 00 00	 push	 OFFSET ??_C@_0DP@OJBMEBAN@d?3?2projects?2exteam6?43?2source?2gam@
  01125	68 00 00 00 00	 push	 OFFSET ??_C@_0O@CKAEPJAF@error?5?3?5?$CFs?5?$CFd?$AA@
  0112a	ff 15 00 00 00
	00		 call	 DWORD PTR ?LogAdd@@3P6AXPADZZA ; LogAdd
  01130	83 c4 0c	 add	 esp, 12			; 0000000cH

; 279  : 		return false;

  01133	32 c0		 xor	 al, al
  01135	e9 a8 00 00 00	 jmp	 $LN6@NPCClick
$LN4@NPCClick:

; 280  : 	}
; 281  : 
; 282  : 	if(!gObjIsConnectedEx(aIndex))

  0113a	8b 45 08	 mov	 eax, DWORD PTR _aIndex$[ebp]
  0113d	50		 push	 eax
  0113e	e8 00 00 00 00	 call	 ?gObjIsConnectedEx@@YA_NH@Z ; gObjIsConnectedEx
  01143	83 c4 04	 add	 esp, 4
  01146	0f b6 c8	 movzx	 ecx, al
  01149	85 c9		 test	 ecx, ecx
  0114b	75 07		 jne	 SHORT $LN2@NPCClick

; 283  : 	{
; 284  : 		return false;

  0114d	32 c0		 xor	 al, al
  0114f	e9 8e 00 00 00	 jmp	 $LN6@NPCClick
$LN2@NPCClick:

; 285  : 	}
; 286  : 
; 287  : 	LPOBJ lpUser = &gObj[aIndex];

  01154	8b 45 08	 mov	 eax, DWORD PTR _aIndex$[ebp]
  01157	69 c0 38 2b 00
	00		 imul	 eax, 11064		; 00002b38H
  0115d	03 05 00 00 00
	00		 add	 eax, DWORD PTR ?gObj@@3PAUOBJECTSTRUCT@@A ; gObj
  01163	89 45 f8	 mov	 DWORD PTR _lpUser$[ebp], eax

; 288  : 	LPOBJ lpNpc = &gObj[aNPC];

  01166	8b 45 0c	 mov	 eax, DWORD PTR _aNPC$[ebp]
  01169	69 c0 38 2b 00
	00		 imul	 eax, 11064		; 00002b38H
  0116f	03 05 00 00 00
	00		 add	 eax, DWORD PTR ?gObj@@3PAUOBJECTSTRUCT@@A ; gObj
  01175	89 45 f4	 mov	 DWORD PTR _lpNpc$[ebp], eax

; 289  : 
; 290  : 	if(		lpNpc->Class		== this->NPC 
; 291  : 		&&	lpNpc->MapNumber	== this->NPC_Map
; 292  : 		&&	lpNpc->X			== this->NPC_X
; 293  : 		&&	lpNpc->Y			== this->NPC_Y )

  01178	8b 45 f4	 mov	 eax, DWORD PTR _lpNpc$[ebp]
  0117b	0f b7 88 b8 00
	00 00		 movzx	 ecx, WORD PTR [eax+184]
  01182	8b 55 fc	 mov	 edx, DWORD PTR _this$[ebp]
  01185	3b 8a 04 db 1a
	00		 cmp	 ecx, DWORD PTR [edx+1760004]
  0118b	75 53		 jne	 SHORT $LN1@NPCClick
  0118d	8b 45 f4	 mov	 eax, DWORD PTR _lpNpc$[ebp]
  01190	0f b6 88 49 01
	00 00		 movzx	 ecx, BYTE PTR [eax+329]
  01197	8b 55 fc	 mov	 edx, DWORD PTR _this$[ebp]
  0119a	3b 8a 08 db 1a
	00		 cmp	 ecx, DWORD PTR [edx+1760008]
  011a0	75 3e		 jne	 SHORT $LN1@NPCClick
  011a2	8b 45 f4	 mov	 eax, DWORD PTR _lpNpc$[ebp]
  011a5	0f bf 88 44 01
	00 00		 movsx	 ecx, WORD PTR [eax+324]
  011ac	8b 55 fc	 mov	 edx, DWORD PTR _this$[ebp]
  011af	3b 8a 0c db 1a
	00		 cmp	 ecx, DWORD PTR [edx+1760012]
  011b5	75 29		 jne	 SHORT $LN1@NPCClick
  011b7	8b 45 f4	 mov	 eax, DWORD PTR _lpNpc$[ebp]
  011ba	0f bf 88 46 01
	00 00		 movsx	 ecx, WORD PTR [eax+326]
  011c1	8b 55 fc	 mov	 edx, DWORD PTR _this$[ebp]
  011c4	3b 8a 10 db 1a
	00		 cmp	 ecx, DWORD PTR [edx+1760016]
  011ca	75 14		 jne	 SHORT $LN1@NPCClick

; 294  : 	{
; 295  : 		NPCdialogue(aIndex,aNPC);

  011cc	8b 45 0c	 mov	 eax, DWORD PTR _aNPC$[ebp]
  011cf	50		 push	 eax
  011d0	8b 4d 08	 mov	 ecx, DWORD PTR _aIndex$[ebp]
  011d3	51		 push	 ecx
  011d4	8b 4d fc	 mov	 ecx, DWORD PTR _this$[ebp]
  011d7	e8 00 00 00 00	 call	 ?NPCdialogue@cBMQuest@@QAEXHH@Z ; cBMQuest::NPCdialogue

; 296  : 		return true;

  011dc	b0 01		 mov	 al, 1
  011de	eb 02		 jmp	 SHORT $LN6@NPCClick
$LN1@NPCClick:

; 297  : 	}
; 298  : 
; 299  : 	return false;

  011e0	32 c0		 xor	 al, al
$LN6@NPCClick:

; 300  : }

  011e2	5f		 pop	 edi
  011e3	5e		 pop	 esi
  011e4	5b		 pop	 ebx
  011e5	8b e5		 mov	 esp, ebp
  011e7	5d		 pop	 ebp
  011e8	c2 08 00	 ret	 8
?NPCClick@cBMQuest@@QAE_NHH@Z ENDP			; cBMQuest::NPCClick
_TEXT	ENDS
PUBLIC	??_C@_0CE@HHODGGLO@You?5have?5completed?5all?5the?5Missi@ ; `string'
PUBLIC	??_C@_0BO@ENMKBBNP@Your?5Mission?5is?5not?5finished?$CB?$AA@ ; `string'
PUBLIC	??_C@_0BC@JOGHABHI@?$EA?$FLBMQuest?$FN?5Finish?$AA@ ; `string'
PUBLIC	??_C@_0BL@IDMCJBFF@You?5completed?5the?5mission?$CB?$AA@ ; `string'
PUBLIC	?Presents@cBMQuest@@QAEXHHH@Z			; cBMQuest::Presents
PUBLIC	??_C@_0BG@BJDBHHCA@?$EA?$FLBMQuest?$FN?5?$CFs?5?$FL?$CFd?1?$CFd?$FN?$AA@ ; `string'
PUBLIC	??_C@_0O@CDMFMOLE@?$EA?$FLBMQuest?$FN?5?$CFs?$AA@ ; `string'
PUBLIC	??_C@_0BH@CHPOIIBF@?$EA?$FLBMQuest?$FN?5Mission?3?5?$CFd?$AA@ ; `string'
PUBLIC	??_C@_0L@PMKLANHL@Good?5luck?$CB?$AA@		; `string'
PUBLIC	??_C@_0CD@IJLLHDOG@Mission?5is?5available?5with?5?$CFd?5res@ ; `string'
PUBLIC	?__LINE__Var@?1??NPCdialogue@cBMQuest@@QAEXHH@Z@4JA ; `cBMQuest::NPCdialogue'::`2'::__LINE__Var
PUBLIC	__$ArrayPad$
EXTRN	?ChatTargetSend@@YAXPAUOBJECTSTRUCT@@PADH@Z:PROC ; ChatTargetSend
;	COMDAT ??_C@_0CE@HHODGGLO@You?5have?5completed?5all?5the?5Missi@
CONST	SEGMENT
??_C@_0CE@HHODGGLO@You?5have?5completed?5all?5the?5Missi@ DB 'You have co'
	DB	'mpleted all the Mission!', 00H		; `string'
CONST	ENDS
;	COMDAT ??_C@_0BO@ENMKBBNP@Your?5Mission?5is?5not?5finished?$CB?$AA@
CONST	SEGMENT
??_C@_0BO@ENMKBBNP@Your?5Mission?5is?5not?5finished?$CB?$AA@ DB 'Your Mis'
	DB	'sion is not finished!', 00H			; `string'
CONST	ENDS
;	COMDAT ??_C@_0BC@JOGHABHI@?$EA?$FLBMQuest?$FN?5Finish?$AA@
CONST	SEGMENT
??_C@_0BC@JOGHABHI@?$EA?$FLBMQuest?$FN?5Finish?$AA@ DB '@[BMQuest] Finish'
	DB	00H						; `string'
CONST	ENDS
;	COMDAT ??_C@_0BL@IDMCJBFF@You?5completed?5the?5mission?$CB?$AA@
CONST	SEGMENT
??_C@_0BL@IDMCJBFF@You?5completed?5the?5mission?$CB?$AA@ DB 'You complete'
	DB	'd the mission!', 00H			; `string'
CONST	ENDS
;	COMDAT ??_C@_0BG@BJDBHHCA@?$EA?$FLBMQuest?$FN?5?$CFs?5?$FL?$CFd?1?$CFd?$FN?$AA@
CONST	SEGMENT
??_C@_0BG@BJDBHHCA@?$EA?$FLBMQuest?$FN?5?$CFs?5?$FL?$CFd?1?$CFd?$FN?$AA@ DB '@'
	DB	'[BMQuest] %s [%d/%d]', 00H			; `string'
CONST	ENDS
;	COMDAT ??_C@_0O@CDMFMOLE@?$EA?$FLBMQuest?$FN?5?$CFs?$AA@
CONST	SEGMENT
??_C@_0O@CDMFMOLE@?$EA?$FLBMQuest?$FN?5?$CFs?$AA@ DB '@[BMQuest] %s', 00H ; `string'
CONST	ENDS
;	COMDAT ??_C@_0BH@CHPOIIBF@?$EA?$FLBMQuest?$FN?5Mission?3?5?$CFd?$AA@
CONST	SEGMENT
??_C@_0BH@CHPOIIBF@?$EA?$FLBMQuest?$FN?5Mission?3?5?$CFd?$AA@ DB '@[BMQue'
	DB	'st] Mission: %d', 00H			; `string'
CONST	ENDS
;	COMDAT ??_C@_0L@PMKLANHL@Good?5luck?$CB?$AA@
CONST	SEGMENT
??_C@_0L@PMKLANHL@Good?5luck?$CB?$AA@ DB 'Good luck!', 00H ; `string'
CONST	ENDS
;	COMDAT ??_C@_0CD@IJLLHDOG@Mission?5is?5available?5with?5?$CFd?5res@
CONST	SEGMENT
??_C@_0CD@IJLLHDOG@Mission?5is?5available?5with?5?$CFd?5res@ DB 'Mission '
	DB	'is available with %d reset', 00H		; `string'
CONST	ENDS
;	COMDAT ?__LINE__Var@?1??NPCdialogue@cBMQuest@@QAEXHH@Z@4JA
_DATA	SEGMENT
?__LINE__Var@?1??NPCdialogue@cBMQuest@@QAEXHH@Z@4JA DD 012fH ; `cBMQuest::NPCdialogue'::`2'::__LINE__Var
; Function compile flags: /Odtp /ZI
_DATA	ENDS
_TEXT	SEGMENT
tv72 = -188						; size = 4
tv67 = -188						; size = 4
_QClass$ = -120						; size = 4
_Buffs$220150 = -116					; size = 100
_lpNpc$ = -16						; size = 4
_lpUser$ = -12						; size = 4
_this$ = -8						; size = 4
__$ArrayPad$ = -4					; size = 4
_aIndex$ = 8						; size = 4
_aNPC$ = 12						; size = 4
?NPCdialogue@cBMQuest@@QAEXHH@Z PROC			; cBMQuest::NPCdialogue
; _this$ = ecx

; 303  : {

  011f0	55		 push	 ebp
  011f1	8b ec		 mov	 ebp, esp
  011f3	81 ec bc 00 00
	00		 sub	 esp, 188		; 000000bcH
  011f9	a1 00 00 00 00	 mov	 eax, DWORD PTR ___security_cookie
  011fe	33 c5		 xor	 eax, ebp
  01200	89 45 fc	 mov	 DWORD PTR __$ArrayPad$[ebp], eax
  01203	53		 push	 ebx
  01204	56		 push	 esi
  01205	57		 push	 edi
  01206	89 4d f8	 mov	 DWORD PTR _this$[ebp], ecx

; 304  : 	if ( OBJMAX_RANGE(aIndex) == FALSE || OBJMAX_RANGE(aNPC) == FALSE )

  01209	83 7d 08 00	 cmp	 DWORD PTR _aIndex$[ebp], 0
  0120d	7d 0c		 jge	 SHORT $LN15@NPCdialogu
  0120f	c7 85 44 ff ff
	ff 00 00 00 00	 mov	 DWORD PTR tv67[ebp], 0
  01219	eb 12		 jmp	 SHORT $LN16@NPCdialogu
$LN15@NPCdialogu:
  0121b	33 c0		 xor	 eax, eax
  0121d	81 7d 08 97 3a
	00 00		 cmp	 DWORD PTR _aIndex$[ebp], 14999 ; 00003a97H
  01224	0f 9e c0	 setle	 al
  01227	89 85 44 ff ff
	ff		 mov	 DWORD PTR tv67[ebp], eax
$LN16@NPCdialogu:
  0122d	83 bd 44 ff ff
	ff 00		 cmp	 DWORD PTR tv67[ebp], 0
  01234	74 2d		 je	 SHORT $LN11@NPCdialogu
  01236	83 7d 0c 00	 cmp	 DWORD PTR _aNPC$[ebp], 0
  0123a	7d 0c		 jge	 SHORT $LN17@NPCdialogu
  0123c	c7 85 44 ff ff
	ff 00 00 00 00	 mov	 DWORD PTR tv72[ebp], 0
  01246	eb 12		 jmp	 SHORT $LN18@NPCdialogu
$LN17@NPCdialogu:
  01248	33 c0		 xor	 eax, eax
  0124a	81 7d 0c 97 3a
	00 00		 cmp	 DWORD PTR _aNPC$[ebp], 14999 ; 00003a97H
  01251	0f 9e c0	 setle	 al
  01254	89 85 44 ff ff
	ff		 mov	 DWORD PTR tv72[ebp], eax
$LN18@NPCdialogu:
  0125a	83 bd 44 ff ff
	ff 00		 cmp	 DWORD PTR tv72[ebp], 0
  01261	75 21		 jne	 SHORT $LN12@NPCdialogu
$LN11@NPCdialogu:

; 305  : 	{
; 306  : 		LogAdd("error : %s %d", __FILE__, __LINE__ );

  01263	a1 00 00 00 00	 mov	 eax, DWORD PTR ?__LINE__Var@?1??NPCdialogue@cBMQuest@@QAEXHH@Z@4JA
  01268	83 c0 03	 add	 eax, 3
  0126b	50		 push	 eax
  0126c	68 00 00 00 00	 push	 OFFSET ??_C@_0DP@OJBMEBAN@d?3?2projects?2exteam6?43?2source?2gam@
  01271	68 00 00 00 00	 push	 OFFSET ??_C@_0O@CKAEPJAF@error?5?3?5?$CFs?5?$CFd?$AA@
  01276	ff 15 00 00 00
	00		 call	 DWORD PTR ?LogAdd@@3P6AXPADZZA ; LogAdd
  0127c	83 c4 0c	 add	 esp, 12			; 0000000cH

; 307  : 		return;

  0127f	e9 6a 03 00 00	 jmp	 $LN13@NPCdialogu
$LN12@NPCdialogu:

; 308  : 	}
; 309  : 
; 310  : 	LPOBJ lpUser = &gObj[aIndex];

  01284	8b 45 08	 mov	 eax, DWORD PTR _aIndex$[ebp]
  01287	69 c0 38 2b 00
	00		 imul	 eax, 11064		; 00002b38H
  0128d	03 05 00 00 00
	00		 add	 eax, DWORD PTR ?gObj@@3PAUOBJECTSTRUCT@@A ; gObj
  01293	89 45 f4	 mov	 DWORD PTR _lpUser$[ebp], eax

; 311  : 	LPOBJ lpNpc = &gObj[aNPC];

  01296	8b 45 0c	 mov	 eax, DWORD PTR _aNPC$[ebp]
  01299	69 c0 38 2b 00
	00		 imul	 eax, 11064		; 00002b38H
  0129f	03 05 00 00 00
	00		 add	 eax, DWORD PTR ?gObj@@3PAUOBJECTSTRUCT@@A ; gObj
  012a5	89 45 f0	 mov	 DWORD PTR _lpNpc$[ebp], eax

; 312  : 
; 313  : 	if(lpUser->Connected < PLAYER_PLAYING)

  012a8	8b 45 f4	 mov	 eax, DWORD PTR _lpUser$[ebp]
  012ab	83 78 04 03	 cmp	 DWORD PTR [eax+4], 3
  012af	7d 05		 jge	 SHORT $LN10@NPCdialogu

; 314  : 	{
; 315  : 		return;

  012b1	e9 38 03 00 00	 jmp	 $LN13@NPCdialogu
$LN10@NPCdialogu:

; 316  : 	}
; 317  : 
; 318  : 	if(lpUser->Reset < Reset)

  012b6	8b 45 f4	 mov	 eax, DWORD PTR _lpUser$[ebp]
  012b9	8b 4d f8	 mov	 ecx, DWORD PTR _this$[ebp]
  012bc	8b 90 90 22 00
	00		 mov	 edx, DWORD PTR [eax+8848]
  012c2	3b 91 14 db 1a
	00		 cmp	 edx, DWORD PTR [ecx+1760020]
  012c8	7d 34		 jge	 SHORT $LN9@NPCdialogu

; 319  : 	{
; 320  : 		char Buffs[100];
; 321  : 		sprintf(Buffs,"Mission is available with %d reset",Reset);

  012ca	8b 45 f8	 mov	 eax, DWORD PTR _this$[ebp]
  012cd	8b 88 14 db 1a
	00		 mov	 ecx, DWORD PTR [eax+1760020]
  012d3	51		 push	 ecx
  012d4	68 00 00 00 00	 push	 OFFSET ??_C@_0CD@IJLLHDOG@Mission?5is?5available?5with?5?$CFd?5res@
  012d9	8d 55 8c	 lea	 edx, DWORD PTR _Buffs$220150[ebp]
  012dc	52		 push	 edx
  012dd	e8 00 00 00 00	 call	 _sprintf
  012e2	83 c4 0c	 add	 esp, 12			; 0000000cH

; 322  : 		ChatTargetSend(lpNpc,Buffs,aIndex);

  012e5	8b 45 08	 mov	 eax, DWORD PTR _aIndex$[ebp]
  012e8	50		 push	 eax
  012e9	8d 4d 8c	 lea	 ecx, DWORD PTR _Buffs$220150[ebp]
  012ec	51		 push	 ecx
  012ed	8b 55 f0	 mov	 edx, DWORD PTR _lpNpc$[ebp]
  012f0	52		 push	 edx
  012f1	e8 00 00 00 00	 call	 ?ChatTargetSend@@YAXPAUOBJECTSTRUCT@@PADH@Z ; ChatTargetSend
  012f6	83 c4 0c	 add	 esp, 12			; 0000000cH

; 323  : 		return;

  012f9	e9 f0 02 00 00	 jmp	 $LN13@NPCdialogu
$LN9@NPCdialogu:

; 324  : 	}
; 325  : 
; 326  : 	int QClass = lpUser->Class+1;

  012fe	8b 45 f4	 mov	 eax, DWORD PTR _lpUser$[ebp]
  01301	0f b7 88 b8 00
	00 00		 movzx	 ecx, WORD PTR [eax+184]
  01308	83 c1 01	 add	 ecx, 1
  0130b	89 4d 88	 mov	 DWORD PTR _QClass$[ebp], ecx

; 327  : 	//Проверяем не закончен ли квест
; 328  : 	if(lpUser->BMQuest_num < Count[QClass])

  0130e	8b 45 f4	 mov	 eax, DWORD PTR _lpUser$[ebp]
  01311	8b 4d 88	 mov	 ecx, DWORD PTR _QClass$[ebp]
  01314	8b 55 f8	 mov	 edx, DWORD PTR _this$[ebp]
  01317	8b 80 a8 28 00
	00		 mov	 eax, DWORD PTR [eax+10408]
  0131d	3b 84 8a 18 db
	1a 00		 cmp	 eax, DWORD PTR [edx+ecx*4+1760024]
  01324	0f 8d 9e 02 00
	00		 jge	 $LN8@NPCdialogu

; 329  : 	{
; 330  : 		//Проверяем начат ли уже квест
; 331  : 		if(lpUser->BMQuest_start == 0)

  0132a	8b 45 f4	 mov	 eax, DWORD PTR _lpUser$[ebp]
  0132d	83 b8 b0 28 00
	00 00		 cmp	 DWORD PTR [eax+10416], 0
  01334	0f 85 d1 00 00
	00		 jne	 $LN7@NPCdialogu

; 332  : 		{
; 333  : 			ChatTargetSend(lpNpc,"Good luck!",aIndex);

  0133a	8b 45 08	 mov	 eax, DWORD PTR _aIndex$[ebp]
  0133d	50		 push	 eax
  0133e	68 00 00 00 00	 push	 OFFSET ??_C@_0L@PMKLANHL@Good?5luck?$CB?$AA@
  01343	8b 4d f0	 mov	 ecx, DWORD PTR _lpNpc$[ebp]
  01346	51		 push	 ecx
  01347	e8 00 00 00 00	 call	 ?ChatTargetSend@@YAXPAUOBJECTSTRUCT@@PADH@Z ; ChatTargetSend
  0134c	83 c4 0c	 add	 esp, 12			; 0000000cH

; 334  : 			lpUser->BMQuest_start = 1;

  0134f	8b 45 f4	 mov	 eax, DWORD PTR _lpUser$[ebp]
  01352	c7 80 b0 28 00
	00 01 00 00 00	 mov	 DWORD PTR [eax+10416], 1

; 335  : 			//exQueryUpdate("UPDATE Character SET BMQuest_start = 1 WHERE Name='%s'", NULL->Name);
; 336  : 			MessageChat(aIndex,"@[BMQuest] Mission: %d",lpUser->BMQuest_num+1);

  0135c	8b 45 f4	 mov	 eax, DWORD PTR _lpUser$[ebp]
  0135f	8b 88 a8 28 00
	00		 mov	 ecx, DWORD PTR [eax+10408]
  01365	83 c1 01	 add	 ecx, 1
  01368	51		 push	 ecx
  01369	68 00 00 00 00	 push	 OFFSET ??_C@_0BH@CHPOIIBF@?$EA?$FLBMQuest?$FN?5Mission?3?5?$CFd?$AA@
  0136e	8b 55 08	 mov	 edx, DWORD PTR _aIndex$[ebp]
  01371	52		 push	 edx
  01372	e8 00 00 00 00	 call	 ?MessageChat@@YAXHPADZZ	; MessageChat
  01377	83 c4 0c	 add	 esp, 12			; 0000000cH

; 337  : 			MessageChat(aIndex,"@[BMQuest] %s",Quest[QClass][lpUser->BMQuest_num].msg);

  0137a	8b 45 88	 mov	 eax, DWORD PTR _QClass$[ebp]
  0137d	69 c0 60 5b 03
	00		 imul	 eax, 220000		; 00035b60H
  01383	03 45 f8	 add	 eax, DWORD PTR _this$[ebp]
  01386	8b 4d f4	 mov	 ecx, DWORD PTR _lpUser$[ebp]
  01389	8b 91 a8 28 00
	00		 mov	 edx, DWORD PTR [ecx+10408]
  0138f	69 d2 dc 00 00
	00		 imul	 edx, 220		; 000000dcH
  01395	8d 44 10 14	 lea	 eax, DWORD PTR [eax+edx+20]
  01399	50		 push	 eax
  0139a	68 00 00 00 00	 push	 OFFSET ??_C@_0O@CDMFMOLE@?$EA?$FLBMQuest?$FN?5?$CFs?$AA@
  0139f	8b 4d 08	 mov	 ecx, DWORD PTR _aIndex$[ebp]
  013a2	51		 push	 ecx
  013a3	e8 00 00 00 00	 call	 ?MessageChat@@YAXHPADZZ	; MessageChat
  013a8	83 c4 0c	 add	 esp, 12			; 0000000cH

; 338  : 			MessageChat(aIndex,"@[BMQuest] %s [%d/%d]",
; 339  : 				Quest[QClass][lpUser->BMQuest_num].msg2,
; 340  : 				lpUser->BMQuest_kill,
; 341  : 				Quest[QClass][lpUser->BMQuest_num].Coun);

  013ab	8b 45 88	 mov	 eax, DWORD PTR _QClass$[ebp]
  013ae	69 c0 60 5b 03
	00		 imul	 eax, 220000		; 00035b60H
  013b4	03 45 f8	 add	 eax, DWORD PTR _this$[ebp]
  013b7	8b 4d f4	 mov	 ecx, DWORD PTR _lpUser$[ebp]
  013ba	8b 91 a8 28 00
	00		 mov	 edx, DWORD PTR [ecx+10408]
  013c0	69 d2 dc 00 00
	00		 imul	 edx, 220		; 000000dcH
  013c6	8b 44 10 04	 mov	 eax, DWORD PTR [eax+edx+4]
  013ca	50		 push	 eax
  013cb	8b 4d f4	 mov	 ecx, DWORD PTR _lpUser$[ebp]
  013ce	8b 91 ac 28 00
	00		 mov	 edx, DWORD PTR [ecx+10412]
  013d4	52		 push	 edx
  013d5	8b 45 88	 mov	 eax, DWORD PTR _QClass$[ebp]
  013d8	69 c0 60 5b 03
	00		 imul	 eax, 220000		; 00035b60H
  013de	03 45 f8	 add	 eax, DWORD PTR _this$[ebp]
  013e1	8b 4d f4	 mov	 ecx, DWORD PTR _lpUser$[ebp]
  013e4	8b 91 a8 28 00
	00		 mov	 edx, DWORD PTR [ecx+10408]
  013ea	69 d2 dc 00 00
	00		 imul	 edx, 220		; 000000dcH
  013f0	8d 44 10 78	 lea	 eax, DWORD PTR [eax+edx+120]
  013f4	50		 push	 eax
  013f5	68 00 00 00 00	 push	 OFFSET ??_C@_0BG@BJDBHHCA@?$EA?$FLBMQuest?$FN?5?$CFs?5?$FL?$CFd?1?$CFd?$FN?$AA@
  013fa	8b 4d 08	 mov	 ecx, DWORD PTR _aIndex$[ebp]
  013fd	51		 push	 ecx
  013fe	e8 00 00 00 00	 call	 ?MessageChat@@YAXHPADZZ	; MessageChat
  01403	83 c4 14	 add	 esp, 20			; 00000014H
  01406	e9 bb 01 00 00	 jmp	 $LN6@NPCdialogu
$LN7@NPCdialogu:

; 342  : 		}
; 343  : 		//Если квест уже взят
; 344  : 		else if(lpUser->BMQuest_start == 1)

  0140b	8b 45 f4	 mov	 eax, DWORD PTR _lpUser$[ebp]
  0140e	83 b8 b0 28 00
	00 01		 cmp	 DWORD PTR [eax+10416], 1
  01415	0f 85 ab 01 00
	00		 jne	 $LN6@NPCdialogu

; 345  : 		{
; 346  : 			//Если квест выполнен
; 347  : 			if(lpUser->BMQuest_kill >= Quest[QClass][lpUser->BMQuest_num].Coun)

  0141b	8b 45 88	 mov	 eax, DWORD PTR _QClass$[ebp]
  0141e	69 c0 60 5b 03
	00		 imul	 eax, 220000		; 00035b60H
  01424	03 45 f8	 add	 eax, DWORD PTR _this$[ebp]
  01427	8b 4d f4	 mov	 ecx, DWORD PTR _lpUser$[ebp]
  0142a	8b 91 a8 28 00
	00		 mov	 edx, DWORD PTR [ecx+10408]
  01430	69 d2 dc 00 00
	00		 imul	 edx, 220		; 000000dcH
  01436	8b 4d f4	 mov	 ecx, DWORD PTR _lpUser$[ebp]
  01439	8b 89 ac 28 00
	00		 mov	 ecx, DWORD PTR [ecx+10412]
  0143f	3b 4c 10 04	 cmp	 ecx, DWORD PTR [eax+edx+4]
  01443	0f 8c be 00 00
	00		 jl	 $LN4@NPCdialogu

; 348  : 			{
; 349  : 				Presents(aIndex,
; 350  : 					Quest[QClass][lpUser->BMQuest_num].rew,
; 351  : 					Quest[QClass][lpUser->BMQuest_num].gift); //Функция вознаграждения

  01449	8b 45 88	 mov	 eax, DWORD PTR _QClass$[ebp]
  0144c	69 c0 60 5b 03
	00		 imul	 eax, 220000		; 00035b60H
  01452	03 45 f8	 add	 eax, DWORD PTR _this$[ebp]
  01455	8b 4d f4	 mov	 ecx, DWORD PTR _lpUser$[ebp]
  01458	8b 91 a8 28 00
	00		 mov	 edx, DWORD PTR [ecx+10408]
  0145e	69 d2 dc 00 00
	00		 imul	 edx, 220		; 000000dcH
  01464	8b 44 10 10	 mov	 eax, DWORD PTR [eax+edx+16]
  01468	50		 push	 eax
  01469	8b 4d 88	 mov	 ecx, DWORD PTR _QClass$[ebp]
  0146c	69 c9 60 5b 03
	00		 imul	 ecx, 220000		; 00035b60H
  01472	03 4d f8	 add	 ecx, DWORD PTR _this$[ebp]
  01475	8b 55 f4	 mov	 edx, DWORD PTR _lpUser$[ebp]
  01478	8b 82 a8 28 00
	00		 mov	 eax, DWORD PTR [edx+10408]
  0147e	69 c0 dc 00 00
	00		 imul	 eax, 220		; 000000dcH
  01484	8b 4c 01 0c	 mov	 ecx, DWORD PTR [ecx+eax+12]
  01488	51		 push	 ecx
  01489	8b 55 08	 mov	 edx, DWORD PTR _aIndex$[ebp]
  0148c	52		 push	 edx
  0148d	8b 4d f8	 mov	 ecx, DWORD PTR _this$[ebp]
  01490	e8 00 00 00 00	 call	 ?Presents@cBMQuest@@QAEXHHH@Z ; cBMQuest::Presents

; 352  : 
; 353  : 				lpUser->BMQuest_start = 0;

  01495	8b 45 f4	 mov	 eax, DWORD PTR _lpUser$[ebp]
  01498	c7 80 b0 28 00
	00 00 00 00 00	 mov	 DWORD PTR [eax+10416], 0

; 354  : 				lpUser->BMQuest_num++;

  014a2	8b 45 f4	 mov	 eax, DWORD PTR _lpUser$[ebp]
  014a5	8b 88 a8 28 00
	00		 mov	 ecx, DWORD PTR [eax+10408]
  014ab	83 c1 01	 add	 ecx, 1
  014ae	8b 55 f4	 mov	 edx, DWORD PTR _lpUser$[ebp]
  014b1	89 8a a8 28 00
	00		 mov	 DWORD PTR [edx+10408], ecx

; 355  : 				lpUser->BMQuest_kill = 0;

  014b7	8b 45 f4	 mov	 eax, DWORD PTR _lpUser$[ebp]
  014ba	c7 80 ac 28 00
	00 00 00 00 00	 mov	 DWORD PTR [eax+10412], 0

; 356  : 				ChatTargetSend(lpNpc,"You completed the mission!",aIndex);

  014c4	8b 45 08	 mov	 eax, DWORD PTR _aIndex$[ebp]
  014c7	50		 push	 eax
  014c8	68 00 00 00 00	 push	 OFFSET ??_C@_0BL@IDMCJBFF@You?5completed?5the?5mission?$CB?$AA@
  014cd	8b 4d f0	 mov	 ecx, DWORD PTR _lpNpc$[ebp]
  014d0	51		 push	 ecx
  014d1	e8 00 00 00 00	 call	 ?ChatTargetSend@@YAXPAUOBJECTSTRUCT@@PADH@Z ; ChatTargetSend
  014d6	83 c4 0c	 add	 esp, 12			; 0000000cH

; 357  : 				//exQueryUpdate("UPDATE Character SET BMQuest_start = 0 WHERE Name='%s'", NULL->Name);
; 358  : 				//exQueryUpdate("UPDATE Character SET BMQuest_num = BMQuest_num + 1 WHERE Name='%s'", NULL->Name);
; 359  : 				//MySQL.Execute("UPDATE Character SET BMQuest_kill = 0 WHERE Name='%s'",NULL->Name);
; 360  : 				if(lpUser->BMQuest_num == Count[QClass])

  014d9	8b 45 f4	 mov	 eax, DWORD PTR _lpUser$[ebp]
  014dc	8b 4d 88	 mov	 ecx, DWORD PTR _QClass$[ebp]
  014df	8b 55 f8	 mov	 edx, DWORD PTR _this$[ebp]
  014e2	8b 80 a8 28 00
	00		 mov	 eax, DWORD PTR [eax+10408]
  014e8	3b 84 8a 18 db
	1a 00		 cmp	 eax, DWORD PTR [edx+ecx*4+1760024]
  014ef	75 11		 jne	 SHORT $LN3@NPCdialogu

; 361  : 				{
; 362  : 					MessageChat(aIndex,"@[BMQuest] Finish");

  014f1	68 00 00 00 00	 push	 OFFSET ??_C@_0BC@JOGHABHI@?$EA?$FLBMQuest?$FN?5Finish?$AA@
  014f6	8b 45 08	 mov	 eax, DWORD PTR _aIndex$[ebp]
  014f9	50		 push	 eax
  014fa	e8 00 00 00 00	 call	 ?MessageChat@@YAXHPADZZ	; MessageChat
  014ff	83 c4 08	 add	 esp, 8
$LN3@NPCdialogu:

; 363  : 				}
; 364  : 			}
; 365  : 			//Если квест не выполнен
; 366  : 			else

  01502	e9 bf 00 00 00	 jmp	 $LN6@NPCdialogu
$LN4@NPCdialogu:

; 367  : 			{
; 368  : 				ChatTargetSend(lpNpc,"Your Mission is not finished!",aIndex);

  01507	8b 45 08	 mov	 eax, DWORD PTR _aIndex$[ebp]
  0150a	50		 push	 eax
  0150b	68 00 00 00 00	 push	 OFFSET ??_C@_0BO@ENMKBBNP@Your?5Mission?5is?5not?5finished?$CB?$AA@
  01510	8b 4d f0	 mov	 ecx, DWORD PTR _lpNpc$[ebp]
  01513	51		 push	 ecx
  01514	e8 00 00 00 00	 call	 ?ChatTargetSend@@YAXPAUOBJECTSTRUCT@@PADH@Z ; ChatTargetSend
  01519	83 c4 0c	 add	 esp, 12			; 0000000cH

; 369  : 				MessageChat(aIndex,"@[BMQuest] Mission: %d",lpUser->BMQuest_num+1);

  0151c	8b 45 f4	 mov	 eax, DWORD PTR _lpUser$[ebp]
  0151f	8b 88 a8 28 00
	00		 mov	 ecx, DWORD PTR [eax+10408]
  01525	83 c1 01	 add	 ecx, 1
  01528	51		 push	 ecx
  01529	68 00 00 00 00	 push	 OFFSET ??_C@_0BH@CHPOIIBF@?$EA?$FLBMQuest?$FN?5Mission?3?5?$CFd?$AA@
  0152e	8b 55 08	 mov	 edx, DWORD PTR _aIndex$[ebp]
  01531	52		 push	 edx
  01532	e8 00 00 00 00	 call	 ?MessageChat@@YAXHPADZZ	; MessageChat
  01537	83 c4 0c	 add	 esp, 12			; 0000000cH

; 370  : 				MessageChat(aIndex,"@[BMQuest] %s",Quest[QClass][lpUser->BMQuest_num].msg);

  0153a	8b 45 88	 mov	 eax, DWORD PTR _QClass$[ebp]
  0153d	69 c0 60 5b 03
	00		 imul	 eax, 220000		; 00035b60H
  01543	03 45 f8	 add	 eax, DWORD PTR _this$[ebp]
  01546	8b 4d f4	 mov	 ecx, DWORD PTR _lpUser$[ebp]
  01549	8b 91 a8 28 00
	00		 mov	 edx, DWORD PTR [ecx+10408]
  0154f	69 d2 dc 00 00
	00		 imul	 edx, 220		; 000000dcH
  01555	8d 44 10 14	 lea	 eax, DWORD PTR [eax+edx+20]
  01559	50		 push	 eax
  0155a	68 00 00 00 00	 push	 OFFSET ??_C@_0O@CDMFMOLE@?$EA?$FLBMQuest?$FN?5?$CFs?$AA@
  0155f	8b 4d 08	 mov	 ecx, DWORD PTR _aIndex$[ebp]
  01562	51		 push	 ecx
  01563	e8 00 00 00 00	 call	 ?MessageChat@@YAXHPADZZ	; MessageChat
  01568	83 c4 0c	 add	 esp, 12			; 0000000cH

; 371  : 				MessageChat(aIndex,"@[BMQuest] %s [%d/%d]",
; 372  : 					Quest[QClass][lpUser->BMQuest_num].msg2,
; 373  : 					lpUser->BMQuest_kill,
; 374  : 					Quest[QClass][lpUser->BMQuest_num].Coun);

  0156b	8b 45 88	 mov	 eax, DWORD PTR _QClass$[ebp]
  0156e	69 c0 60 5b 03
	00		 imul	 eax, 220000		; 00035b60H
  01574	03 45 f8	 add	 eax, DWORD PTR _this$[ebp]
  01577	8b 4d f4	 mov	 ecx, DWORD PTR _lpUser$[ebp]
  0157a	8b 91 a8 28 00
	00		 mov	 edx, DWORD PTR [ecx+10408]
  01580	69 d2 dc 00 00
	00		 imul	 edx, 220		; 000000dcH
  01586	8b 44 10 04	 mov	 eax, DWORD PTR [eax+edx+4]
  0158a	50		 push	 eax
  0158b	8b 4d f4	 mov	 ecx, DWORD PTR _lpUser$[ebp]
  0158e	8b 91 ac 28 00
	00		 mov	 edx, DWORD PTR [ecx+10412]
  01594	52		 push	 edx
  01595	8b 45 88	 mov	 eax, DWORD PTR _QClass$[ebp]
  01598	69 c0 60 5b 03
	00		 imul	 eax, 220000		; 00035b60H
  0159e	03 45 f8	 add	 eax, DWORD PTR _this$[ebp]
  015a1	8b 4d f4	 mov	 ecx, DWORD PTR _lpUser$[ebp]
  015a4	8b 91 a8 28 00
	00		 mov	 edx, DWORD PTR [ecx+10408]
  015aa	69 d2 dc 00 00
	00		 imul	 edx, 220		; 000000dcH
  015b0	8d 44 10 78	 lea	 eax, DWORD PTR [eax+edx+120]
  015b4	50		 push	 eax
  015b5	68 00 00 00 00	 push	 OFFSET ??_C@_0BG@BJDBHHCA@?$EA?$FLBMQuest?$FN?5?$CFs?5?$FL?$CFd?1?$CFd?$FN?$AA@
  015ba	8b 4d 08	 mov	 ecx, DWORD PTR _aIndex$[ebp]
  015bd	51		 push	 ecx
  015be	e8 00 00 00 00	 call	 ?MessageChat@@YAXHPADZZ	; MessageChat
  015c3	83 c4 14	 add	 esp, 20			; 00000014H
$LN6@NPCdialogu:

; 375  : 			}
; 376  : 		}
; 377  : 	}
; 378  : 	else

  015c6	eb 26		 jmp	 SHORT $LN13@NPCdialogu
$LN8@NPCdialogu:

; 379  : 	{
; 380  : 		ChatTargetSend(lpNpc,"You have completed all the Mission!",aIndex);

  015c8	8b 45 08	 mov	 eax, DWORD PTR _aIndex$[ebp]
  015cb	50		 push	 eax
  015cc	68 00 00 00 00	 push	 OFFSET ??_C@_0CE@HHODGGLO@You?5have?5completed?5all?5the?5Missi@
  015d1	8b 4d f0	 mov	 ecx, DWORD PTR _lpNpc$[ebp]
  015d4	51		 push	 ecx
  015d5	e8 00 00 00 00	 call	 ?ChatTargetSend@@YAXPAUOBJECTSTRUCT@@PADH@Z ; ChatTargetSend
  015da	83 c4 0c	 add	 esp, 12			; 0000000cH

; 381  : 		MessageChat(aIndex,"@[BMQuest] Finish");

  015dd	68 00 00 00 00	 push	 OFFSET ??_C@_0BC@JOGHABHI@?$EA?$FLBMQuest?$FN?5Finish?$AA@
  015e2	8b 45 08	 mov	 eax, DWORD PTR _aIndex$[ebp]
  015e5	50		 push	 eax
  015e6	e8 00 00 00 00	 call	 ?MessageChat@@YAXHPADZZ	; MessageChat
  015eb	83 c4 08	 add	 esp, 8
$LN13@NPCdialogu:

; 382  : 	}
; 383  : }

  015ee	5f		 pop	 edi
  015ef	5e		 pop	 esi
  015f0	5b		 pop	 ebx
  015f1	8b 4d fc	 mov	 ecx, DWORD PTR __$ArrayPad$[ebp]
  015f4	33 cd		 xor	 ecx, ebp
  015f6	e8 00 00 00 00	 call	 @__security_check_cookie@4
  015fb	8b e5		 mov	 esp, ebp
  015fd	5d		 pop	 ebp
  015fe	c2 08 00	 ret	 8
?NPCdialogue@cBMQuest@@QAEXHH@Z ENDP			; cBMQuest::NPCdialogue
_TEXT	ENDS
PUBLIC	??_C@_0CB@PGLBKFC@?$EA?$FLBMQuest?$FN?5Mission?5accomplished?$CB@ ; `string'
PUBLIC	?__LINE__Var@?1??MonsterKill@cBMQuest@@QAEXHH@Z@4JA ; `cBMQuest::MonsterKill'::`2'::__LINE__Var
PUBLIC	?MonsterKill@cBMQuest@@QAEXHH@Z			; cBMQuest::MonsterKill
EXTRN	_rand:PROC
;	COMDAT ??_C@_0CB@PGLBKFC@?$EA?$FLBMQuest?$FN?5Mission?5accomplished?$CB@
CONST	SEGMENT
??_C@_0CB@PGLBKFC@?$EA?$FLBMQuest?$FN?5Mission?5accomplished?$CB@ DB '@[B'
	DB	'MQuest] Mission accomplished!', 00H		; `string'
CONST	ENDS
;	COMDAT ?__LINE__Var@?1??MonsterKill@cBMQuest@@QAEXHH@Z@4JA
_DATA	SEGMENT
?__LINE__Var@?1??MonsterKill@cBMQuest@@QAEXHH@Z@4JA DD 0182H ; `cBMQuest::MonsterKill'::`2'::__LINE__Var
; Function compile flags: /Odtp /ZI
_DATA	ENDS
_TEXT	SEGMENT
tv74 = -88						; size = 4
tv69 = -88						; size = 4
_iRate$220183 = -20					; size = 4
_QClass$ = -16						; size = 4
_lpMonster$ = -12					; size = 4
_lpUser$ = -8						; size = 4
_this$ = -4						; size = 4
_aIndex$ = 8						; size = 4
_mIndex$ = 12						; size = 4
?MonsterKill@cBMQuest@@QAEXHH@Z PROC			; cBMQuest::MonsterKill
; _this$ = ecx

; 386  : {

  01610	55		 push	 ebp
  01611	8b ec		 mov	 ebp, esp
  01613	83 ec 58	 sub	 esp, 88			; 00000058H
  01616	53		 push	 ebx
  01617	56		 push	 esi
  01618	57		 push	 edi
  01619	89 4d fc	 mov	 DWORD PTR _this$[ebp], ecx

; 387  : 	if(!Enable)

  0161c	8b 45 fc	 mov	 eax, DWORD PTR _this$[ebp]
  0161f	83 b8 00 db 1a
	00 00		 cmp	 DWORD PTR [eax+1760000], 0
  01626	75 05		 jne	 SHORT $LN8@MonsterKil

; 388  : 		return;

  01628	e9 fd 01 00 00	 jmp	 $LN9@MonsterKil
$LN8@MonsterKil:

; 389  : 	
; 390  : 	if ( OBJMAX_RANGE(aIndex) == FALSE || OBJMAX_RANGE(mIndex) == FALSE )

  0162d	83 7d 08 00	 cmp	 DWORD PTR _aIndex$[ebp], 0
  01631	7d 09		 jge	 SHORT $LN11@MonsterKil
  01633	c7 45 a8 00 00
	00 00		 mov	 DWORD PTR tv69[ebp], 0
  0163a	eb 0f		 jmp	 SHORT $LN12@MonsterKil
$LN11@MonsterKil:
  0163c	33 c0		 xor	 eax, eax
  0163e	81 7d 08 97 3a
	00 00		 cmp	 DWORD PTR _aIndex$[ebp], 14999 ; 00003a97H
  01645	0f 9e c0	 setle	 al
  01648	89 45 a8	 mov	 DWORD PTR tv69[ebp], eax
$LN12@MonsterKil:
  0164b	83 7d a8 00	 cmp	 DWORD PTR tv69[ebp], 0
  0164f	74 24		 je	 SHORT $LN6@MonsterKil
  01651	83 7d 0c 00	 cmp	 DWORD PTR _mIndex$[ebp], 0
  01655	7d 09		 jge	 SHORT $LN13@MonsterKil
  01657	c7 45 a8 00 00
	00 00		 mov	 DWORD PTR tv74[ebp], 0
  0165e	eb 0f		 jmp	 SHORT $LN14@MonsterKil
$LN13@MonsterKil:
  01660	33 c0		 xor	 eax, eax
  01662	81 7d 0c 97 3a
	00 00		 cmp	 DWORD PTR _mIndex$[ebp], 14999 ; 00003a97H
  01669	0f 9e c0	 setle	 al
  0166c	89 45 a8	 mov	 DWORD PTR tv74[ebp], eax
$LN14@MonsterKil:
  0166f	83 7d a8 00	 cmp	 DWORD PTR tv74[ebp], 0
  01673	75 21		 jne	 SHORT $LN7@MonsterKil
$LN6@MonsterKil:

; 391  : 	{
; 392  : 		LogAdd("error : %s %d", __FILE__, __LINE__ );

  01675	a1 00 00 00 00	 mov	 eax, DWORD PTR ?__LINE__Var@?1??MonsterKill@cBMQuest@@QAEXHH@Z@4JA
  0167a	83 c0 06	 add	 eax, 6
  0167d	50		 push	 eax
  0167e	68 00 00 00 00	 push	 OFFSET ??_C@_0DP@OJBMEBAN@d?3?2projects?2exteam6?43?2source?2gam@
  01683	68 00 00 00 00	 push	 OFFSET ??_C@_0O@CKAEPJAF@error?5?3?5?$CFs?5?$CFd?$AA@
  01688	ff 15 00 00 00
	00		 call	 DWORD PTR ?LogAdd@@3P6AXPADZZA ; LogAdd
  0168e	83 c4 0c	 add	 esp, 12			; 0000000cH

; 393  : 		return;

  01691	e9 94 01 00 00	 jmp	 $LN9@MonsterKil
$LN7@MonsterKil:

; 394  : 	}
; 395  : 
; 396  : 	LPOBJ lpUser = &gObj[aIndex];

  01696	8b 45 08	 mov	 eax, DWORD PTR _aIndex$[ebp]
  01699	69 c0 38 2b 00
	00		 imul	 eax, 11064		; 00002b38H
  0169f	03 05 00 00 00
	00		 add	 eax, DWORD PTR ?gObj@@3PAUOBJECTSTRUCT@@A ; gObj
  016a5	89 45 f8	 mov	 DWORD PTR _lpUser$[ebp], eax

; 397  : 	LPOBJ lpMonster = &gObj[mIndex];

  016a8	8b 45 0c	 mov	 eax, DWORD PTR _mIndex$[ebp]
  016ab	69 c0 38 2b 00
	00		 imul	 eax, 11064		; 00002b38H
  016b1	03 05 00 00 00
	00		 add	 eax, DWORD PTR ?gObj@@3PAUOBJECTSTRUCT@@A ; gObj
  016b7	89 45 f4	 mov	 DWORD PTR _lpMonster$[ebp], eax

; 398  : 
; 399  : 	if(lpUser->Connected < PLAYER_PLAYING)

  016ba	8b 45 f8	 mov	 eax, DWORD PTR _lpUser$[ebp]
  016bd	83 78 04 03	 cmp	 DWORD PTR [eax+4], 3
  016c1	7d 05		 jge	 SHORT $LN5@MonsterKil

; 400  : 	{
; 401  : 		return;

  016c3	e9 62 01 00 00	 jmp	 $LN9@MonsterKil
$LN5@MonsterKil:

; 402  : 	}
; 403  : 
; 404  : 	int QClass = lpUser->Class+1;

  016c8	8b 45 f8	 mov	 eax, DWORD PTR _lpUser$[ebp]
  016cb	0f b7 88 b8 00
	00 00		 movzx	 ecx, WORD PTR [eax+184]
  016d2	83 c1 01	 add	 ecx, 1
  016d5	89 4d f0	 mov	 DWORD PTR _QClass$[ebp], ecx

; 405  : 
; 406  : 	if(lpUser->BMQuest_start == 1 && lpMonster->Class == Quest[QClass][lpUser->BMQuest_num].Mob)

  016d8	8b 45 f8	 mov	 eax, DWORD PTR _lpUser$[ebp]
  016db	83 b8 b0 28 00
	00 01		 cmp	 DWORD PTR [eax+10416], 1
  016e2	0f 85 42 01 00
	00		 jne	 $LN9@MonsterKil
  016e8	8b 45 f4	 mov	 eax, DWORD PTR _lpMonster$[ebp]
  016eb	0f b7 88 b8 00
	00 00		 movzx	 ecx, WORD PTR [eax+184]
  016f2	8b 55 f0	 mov	 edx, DWORD PTR _QClass$[ebp]
  016f5	69 d2 60 5b 03
	00		 imul	 edx, 220000		; 00035b60H
  016fb	03 55 fc	 add	 edx, DWORD PTR _this$[ebp]
  016fe	8b 45 f8	 mov	 eax, DWORD PTR _lpUser$[ebp]
  01701	8b 80 a8 28 00
	00		 mov	 eax, DWORD PTR [eax+10408]
  01707	69 c0 dc 00 00
	00		 imul	 eax, 220		; 000000dcH
  0170d	3b 0c 02	 cmp	 ecx, DWORD PTR [edx+eax]
  01710	0f 85 14 01 00
	00		 jne	 $LN9@MonsterKil

; 407  : 	{
; 408  : 		int iRate = rand()%100+1;

  01716	e8 00 00 00 00	 call	 _rand
  0171b	99		 cdq
  0171c	b9 64 00 00 00	 mov	 ecx, 100		; 00000064H
  01721	f7 f9		 idiv	 ecx
  01723	83 c2 01	 add	 edx, 1
  01726	89 55 ec	 mov	 DWORD PTR _iRate$220183[ebp], edx

; 409  : 
; 410  : 		if(Quest[QClass][lpUser->BMQuest_num].proc >= iRate)

  01729	8b 45 f0	 mov	 eax, DWORD PTR _QClass$[ebp]
  0172c	69 c0 60 5b 03
	00		 imul	 eax, 220000		; 00035b60H
  01732	03 45 fc	 add	 eax, DWORD PTR _this$[ebp]
  01735	8b 4d f8	 mov	 ecx, DWORD PTR _lpUser$[ebp]
  01738	8b 91 a8 28 00
	00		 mov	 edx, DWORD PTR [ecx+10408]
  0173e	69 d2 dc 00 00
	00		 imul	 edx, 220		; 000000dcH
  01744	8b 44 10 08	 mov	 eax, DWORD PTR [eax+edx+8]
  01748	3b 45 ec	 cmp	 eax, DWORD PTR _iRate$220183[ebp]
  0174b	0f 8c d9 00 00
	00		 jl	 $LN9@MonsterKil

; 411  : 		{			
; 412  : 			if(lpUser->BMQuest_kill < Quest[QClass][lpUser->BMQuest_num].Coun)

  01751	8b 45 f0	 mov	 eax, DWORD PTR _QClass$[ebp]
  01754	69 c0 60 5b 03
	00		 imul	 eax, 220000		; 00035b60H
  0175a	03 45 fc	 add	 eax, DWORD PTR _this$[ebp]
  0175d	8b 4d f8	 mov	 ecx, DWORD PTR _lpUser$[ebp]
  01760	8b 91 a8 28 00
	00		 mov	 edx, DWORD PTR [ecx+10408]
  01766	69 d2 dc 00 00
	00		 imul	 edx, 220		; 000000dcH
  0176c	8b 4d f8	 mov	 ecx, DWORD PTR _lpUser$[ebp]
  0176f	8b 89 ac 28 00
	00		 mov	 ecx, DWORD PTR [ecx+10412]
  01775	3b 4c 10 04	 cmp	 ecx, DWORD PTR [eax+edx+4]
  01779	0f 8d ab 00 00
	00		 jge	 $LN9@MonsterKil

; 413  : 			{
; 414  : 				lpUser->BMQuest_kill++;

  0177f	8b 45 f8	 mov	 eax, DWORD PTR _lpUser$[ebp]
  01782	8b 88 ac 28 00
	00		 mov	 ecx, DWORD PTR [eax+10412]
  01788	83 c1 01	 add	 ecx, 1
  0178b	8b 55 f8	 mov	 edx, DWORD PTR _lpUser$[ebp]
  0178e	89 8a ac 28 00
	00		 mov	 DWORD PTR [edx+10412], ecx

; 415  : 				//MySQL.Execute("UPDATE Character SET BMQuest_kill = BMQuest_kill + 1 WHERE Name='%s'",NULL->Name);
; 416  : 				MessageChat(aIndex,"@[BMQuest] %s [%d/%d]",
; 417  : 					Quest[QClass][lpUser->BMQuest_num].msg2,
; 418  : 					lpUser->BMQuest_kill,
; 419  : 					Quest[QClass][lpUser->BMQuest_num].Coun);

  01794	8b 45 f0	 mov	 eax, DWORD PTR _QClass$[ebp]
  01797	69 c0 60 5b 03
	00		 imul	 eax, 220000		; 00035b60H
  0179d	03 45 fc	 add	 eax, DWORD PTR _this$[ebp]
  017a0	8b 4d f8	 mov	 ecx, DWORD PTR _lpUser$[ebp]
  017a3	8b 91 a8 28 00
	00		 mov	 edx, DWORD PTR [ecx+10408]
  017a9	69 d2 dc 00 00
	00		 imul	 edx, 220		; 000000dcH
  017af	8b 44 10 04	 mov	 eax, DWORD PTR [eax+edx+4]
  017b3	50		 push	 eax
  017b4	8b 4d f8	 mov	 ecx, DWORD PTR _lpUser$[ebp]
  017b7	8b 91 ac 28 00
	00		 mov	 edx, DWORD PTR [ecx+10412]
  017bd	52		 push	 edx
  017be	8b 45 f0	 mov	 eax, DWORD PTR _QClass$[ebp]
  017c1	69 c0 60 5b 03
	00		 imul	 eax, 220000		; 00035b60H
  017c7	03 45 fc	 add	 eax, DWORD PTR _this$[ebp]
  017ca	8b 4d f8	 mov	 ecx, DWORD PTR _lpUser$[ebp]
  017cd	8b 91 a8 28 00
	00		 mov	 edx, DWORD PTR [ecx+10408]
  017d3	69 d2 dc 00 00
	00		 imul	 edx, 220		; 000000dcH
  017d9	8d 44 10 78	 lea	 eax, DWORD PTR [eax+edx+120]
  017dd	50		 push	 eax
  017de	68 00 00 00 00	 push	 OFFSET ??_C@_0BG@BJDBHHCA@?$EA?$FLBMQuest?$FN?5?$CFs?5?$FL?$CFd?1?$CFd?$FN?$AA@
  017e3	8b 4d 08	 mov	 ecx, DWORD PTR _aIndex$[ebp]
  017e6	51		 push	 ecx
  017e7	e8 00 00 00 00	 call	 ?MessageChat@@YAXHPADZZ	; MessageChat
  017ec	83 c4 14	 add	 esp, 20			; 00000014H

; 420  : 			
; 421  : 				if(lpUser->BMQuest_kill == Quest[QClass][lpUser->BMQuest_num].Coun)

  017ef	8b 45 f0	 mov	 eax, DWORD PTR _QClass$[ebp]
  017f2	69 c0 60 5b 03
	00		 imul	 eax, 220000		; 00035b60H
  017f8	03 45 fc	 add	 eax, DWORD PTR _this$[ebp]
  017fb	8b 4d f8	 mov	 ecx, DWORD PTR _lpUser$[ebp]
  017fe	8b 91 a8 28 00
	00		 mov	 edx, DWORD PTR [ecx+10408]
  01804	69 d2 dc 00 00
	00		 imul	 edx, 220		; 000000dcH
  0180a	8b 4d f8	 mov	 ecx, DWORD PTR _lpUser$[ebp]
  0180d	8b 89 ac 28 00
	00		 mov	 ecx, DWORD PTR [ecx+10412]
  01813	3b 4c 10 04	 cmp	 ecx, DWORD PTR [eax+edx+4]
  01817	75 11		 jne	 SHORT $LN9@MonsterKil

; 422  : 				{
; 423  : 					MessageChat(aIndex,"@[BMQuest] Mission accomplished!");

  01819	68 00 00 00 00	 push	 OFFSET ??_C@_0CB@PGLBKFC@?$EA?$FLBMQuest?$FN?5Mission?5accomplished?$CB@
  0181e	8b 45 08	 mov	 eax, DWORD PTR _aIndex$[ebp]
  01821	50		 push	 eax
  01822	e8 00 00 00 00	 call	 ?MessageChat@@YAXHPADZZ	; MessageChat
  01827	83 c4 08	 add	 esp, 8
$LN9@MonsterKil:

; 424  : 				}
; 425  : 			}
; 426  : 		}
; 427  : 	}
; 428  : }

  0182a	5f		 pop	 edi
  0182b	5e		 pop	 esi
  0182c	5b		 pop	 ebx
  0182d	8b e5		 mov	 esp, ebp
  0182f	5d		 pop	 ebp
  01830	c2 08 00	 ret	 8
?MonsterKill@cBMQuest@@QAEXHH@Z ENDP			; cBMQuest::MonsterKill
_TEXT	ENDS
PUBLIC	??_C@_0BF@JLLIFHHP@?$EA?$FLBMQuest?$FN?5Life?3?5?$CL?$CFd?$AA@ ; `string'
PUBLIC	??_C@_0BP@JLDHHCLO@?$EA?$FLBMQuest?$FN?5ExcelentDamage?3?5?$CL?$CFd?$AA@ ; `string'
PUBLIC	??_C@_0BP@EAKLAL@?$EA?$FLBMQuest?$FN?5CriticalDamage?3?5?$CL?$CFd?$AA@ ; `string'
PUBLIC	??_C@_0BI@MHBAOHBM@?$EA?$FLBMQuest?$FN?5Defense?3?5?$CL?$CFd?$AA@ ; `string'
PUBLIC	??_C@_0BH@GAHBIHNC@?$EA?$FLBMQuest?$FN?5Damage?3?5?$CL?$CFd?$AA@ ; `string'
PUBLIC	??_C@_0BO@DOACPHFK@?$EA?$FLBMQuest?$FN?5DamageReflect?3?5?$CL?$CFd?$AA@ ; `string'
PUBLIC	?__LINE__Var@?1??Presents@cBMQuest@@QAEXHHH@Z@4JA ; `cBMQuest::Presents'::`2'::__LINE__Var
EXTRN	?ExFireCracker@@YAXHEE@Z:PROC			; ExFireCracker
;	COMDAT ??_C@_0BF@JLLIFHHP@?$EA?$FLBMQuest?$FN?5Life?3?5?$CL?$CFd?$AA@
CONST	SEGMENT
??_C@_0BF@JLLIFHHP@?$EA?$FLBMQuest?$FN?5Life?3?5?$CL?$CFd?$AA@ DB '@[BMQu'
	DB	'est] Life: +%d', 00H			; `string'
CONST	ENDS
;	COMDAT ??_C@_0BP@JLDHHCLO@?$EA?$FLBMQuest?$FN?5ExcelentDamage?3?5?$CL?$CFd?$AA@
CONST	SEGMENT
??_C@_0BP@JLDHHCLO@?$EA?$FLBMQuest?$FN?5ExcelentDamage?3?5?$CL?$CFd?$AA@ DB '@'
	DB	'[BMQuest] ExcelentDamage: +%d', 00H		; `string'
CONST	ENDS
;	COMDAT ??_C@_0BP@EAKLAL@?$EA?$FLBMQuest?$FN?5CriticalDamage?3?5?$CL?$CFd?$AA@
CONST	SEGMENT
??_C@_0BP@EAKLAL@?$EA?$FLBMQuest?$FN?5CriticalDamage?3?5?$CL?$CFd?$AA@ DB '@'
	DB	'[BMQuest] CriticalDamage: +%d', 00H		; `string'
CONST	ENDS
;	COMDAT ??_C@_0BI@MHBAOHBM@?$EA?$FLBMQuest?$FN?5Defense?3?5?$CL?$CFd?$AA@
CONST	SEGMENT
??_C@_0BI@MHBAOHBM@?$EA?$FLBMQuest?$FN?5Defense?3?5?$CL?$CFd?$AA@ DB '@[B'
	DB	'MQuest] Defense: +%d', 00H			; `string'
CONST	ENDS
;	COMDAT ??_C@_0BH@GAHBIHNC@?$EA?$FLBMQuest?$FN?5Damage?3?5?$CL?$CFd?$AA@
CONST	SEGMENT
??_C@_0BH@GAHBIHNC@?$EA?$FLBMQuest?$FN?5Damage?3?5?$CL?$CFd?$AA@ DB '@[BM'
	DB	'Quest] Damage: +%d', 00H			; `string'
CONST	ENDS
;	COMDAT ??_C@_0BO@DOACPHFK@?$EA?$FLBMQuest?$FN?5DamageReflect?3?5?$CL?$CFd?$AA@
CONST	SEGMENT
??_C@_0BO@DOACPHFK@?$EA?$FLBMQuest?$FN?5DamageReflect?3?5?$CL?$CFd?$AA@ DB '@'
	DB	'[BMQuest] DamageReflect: +%d', 00H		; `string'
CONST	ENDS
;	COMDAT ?__LINE__Var@?1??Presents@cBMQuest@@QAEXHHH@Z@4JA
_DATA	SEGMENT
?__LINE__Var@?1??Presents@cBMQuest@@QAEXHHH@Z@4JA DD 01afH ; `cBMQuest::Presents'::`2'::__LINE__Var
; Function compile flags: /Odtp /ZI
_DATA	ENDS
_TEXT	SEGMENT
tv67 = -76						; size = 4
_lpUser$ = -8						; size = 4
_this$ = -4						; size = 4
_aIndex$ = 8						; size = 4
_Present$ = 12						; size = 4
_Gifts$ = 16						; size = 4
?Presents@cBMQuest@@QAEXHHH@Z PROC			; cBMQuest::Presents
; _this$ = ecx

; 431  : {

  01840	55		 push	 ebp
  01841	8b ec		 mov	 ebp, esp
  01843	83 ec 4c	 sub	 esp, 76			; 0000004cH
  01846	53		 push	 ebx
  01847	56		 push	 esi
  01848	57		 push	 edi
  01849	89 4d fc	 mov	 DWORD PTR _this$[ebp], ecx

; 432  : 	if ( OBJMAX_RANGE(aIndex) == FALSE )

  0184c	83 7d 08 00	 cmp	 DWORD PTR _aIndex$[ebp], 0
  01850	7d 09		 jge	 SHORT $LN16@Presents
  01852	c7 45 b4 00 00
	00 00		 mov	 DWORD PTR tv67[ebp], 0
  01859	eb 0f		 jmp	 SHORT $LN17@Presents
$LN16@Presents:
  0185b	33 c0		 xor	 eax, eax
  0185d	81 7d 08 97 3a
	00 00		 cmp	 DWORD PTR _aIndex$[ebp], 14999 ; 00003a97H
  01864	0f 9e c0	 setle	 al
  01867	89 45 b4	 mov	 DWORD PTR tv67[ebp], eax
$LN17@Presents:
  0186a	83 7d b4 00	 cmp	 DWORD PTR tv67[ebp], 0
  0186e	75 21		 jne	 SHORT $LN13@Presents

; 433  : 	{
; 434  : 		LogAdd("error : %s %d", __FILE__, __LINE__ );

  01870	a1 00 00 00 00	 mov	 eax, DWORD PTR ?__LINE__Var@?1??Presents@cBMQuest@@QAEXHHH@Z@4JA
  01875	83 c0 03	 add	 eax, 3
  01878	50		 push	 eax
  01879	68 00 00 00 00	 push	 OFFSET ??_C@_0DP@OJBMEBAN@d?3?2projects?2exteam6?43?2source?2gam@
  0187e	68 00 00 00 00	 push	 OFFSET ??_C@_0O@CKAEPJAF@error?5?3?5?$CFs?5?$CFd?$AA@
  01883	ff 15 00 00 00
	00		 call	 DWORD PTR ?LogAdd@@3P6AXPADZZA ; LogAdd
  01889	83 c4 0c	 add	 esp, 12			; 0000000cH

; 435  : 		return;

  0188c	e9 75 01 00 00	 jmp	 $LN14@Presents
$LN13@Presents:

; 436  : 	}
; 437  : 
; 438  : 	LPOBJ lpUser = &gObj[aIndex];

  01891	8b 45 08	 mov	 eax, DWORD PTR _aIndex$[ebp]
  01894	69 c0 38 2b 00
	00		 imul	 eax, 11064		; 00002b38H
  0189a	03 05 00 00 00
	00		 add	 eax, DWORD PTR ?gObj@@3PAUOBJECTSTRUCT@@A ; gObj
  018a0	89 45 f8	 mov	 DWORD PTR _lpUser$[ebp], eax

; 439  : 
; 440  : 	if(lpUser->Connected < PLAYER_PLAYING)

  018a3	8b 45 f8	 mov	 eax, DWORD PTR _lpUser$[ebp]
  018a6	83 78 04 03	 cmp	 DWORD PTR [eax+4], 3
  018aa	7d 05		 jge	 SHORT $LN12@Presents

; 441  : 	{
; 442  : 		return;

  018ac	e9 55 01 00 00	 jmp	 $LN14@Presents
$LN12@Presents:

; 443  : 	}
; 444  : 	
; 445  : 	/*
; 446  : 		1 - BMDamageReflect;
; 447  : 		2 - BMDamage;
; 448  : 		3 - BMDefense;
; 449  : 		4 - BMCriticalDamage;
; 450  : 		5 - BMExcelentDamage;
; 451  : 		6 - BMLife;
; 452  : 	*/
; 453  : 	if(Present == 1)		//BMDamageReflect

  018b1	83 7d 0c 01	 cmp	 DWORD PTR _Present$[ebp], 1
  018b5	75 2f		 jne	 SHORT $LN11@Presents

; 454  : 	{
; 455  : 		lpUser->BMDamageReflect += Gifts;

  018b7	8b 45 f8	 mov	 eax, DWORD PTR _lpUser$[ebp]
  018ba	8b 88 b4 28 00
	00		 mov	 ecx, DWORD PTR [eax+10420]
  018c0	03 4d 10	 add	 ecx, DWORD PTR _Gifts$[ebp]
  018c3	8b 55 f8	 mov	 edx, DWORD PTR _lpUser$[ebp]
  018c6	89 8a b4 28 00
	00		 mov	 DWORD PTR [edx+10420], ecx

; 456  : 		//exQueryUpdate("UPDATE Character SET BMDamageReflect = BMDamageReflect + %d WHERE Name='%s'", Gifts, NULL->Name);
; 457  : 		MessageChat(aIndex,"@[BMQuest] DamageReflect: +%d",Gifts);

  018cc	8b 45 10	 mov	 eax, DWORD PTR _Gifts$[ebp]
  018cf	50		 push	 eax
  018d0	68 00 00 00 00	 push	 OFFSET ??_C@_0BO@DOACPHFK@?$EA?$FLBMQuest?$FN?5DamageReflect?3?5?$CL?$CFd?$AA@
  018d5	8b 4d 08	 mov	 ecx, DWORD PTR _aIndex$[ebp]
  018d8	51		 push	 ecx
  018d9	e8 00 00 00 00	 call	 ?MessageChat@@YAXHPADZZ	; MessageChat
  018de	83 c4 0c	 add	 esp, 12			; 0000000cH
  018e1	e9 fe 00 00 00	 jmp	 $LN10@Presents
$LN11@Presents:

; 458  : 	}
; 459  : 	else if(Present == 2)	//BMDamage

  018e6	83 7d 0c 02	 cmp	 DWORD PTR _Present$[ebp], 2
  018ea	75 2f		 jne	 SHORT $LN9@Presents

; 460  : 	{
; 461  : 		lpUser->BMDamage += Gifts;

  018ec	8b 45 f8	 mov	 eax, DWORD PTR _lpUser$[ebp]
  018ef	8b 88 b8 28 00
	00		 mov	 ecx, DWORD PTR [eax+10424]
  018f5	03 4d 10	 add	 ecx, DWORD PTR _Gifts$[ebp]
  018f8	8b 55 f8	 mov	 edx, DWORD PTR _lpUser$[ebp]
  018fb	89 8a b8 28 00
	00		 mov	 DWORD PTR [edx+10424], ecx

; 462  : 		//exQueryUpdate("UPDATE Character SET BMDamage = BMDamage + %d WHERE Name='%s'", Gifts, NULL->Name);
; 463  : 		MessageChat(aIndex,"@[BMQuest] Damage: +%d",Gifts);

  01901	8b 45 10	 mov	 eax, DWORD PTR _Gifts$[ebp]
  01904	50		 push	 eax
  01905	68 00 00 00 00	 push	 OFFSET ??_C@_0BH@GAHBIHNC@?$EA?$FLBMQuest?$FN?5Damage?3?5?$CL?$CFd?$AA@
  0190a	8b 4d 08	 mov	 ecx, DWORD PTR _aIndex$[ebp]
  0190d	51		 push	 ecx
  0190e	e8 00 00 00 00	 call	 ?MessageChat@@YAXHPADZZ	; MessageChat
  01913	83 c4 0c	 add	 esp, 12			; 0000000cH
  01916	e9 c9 00 00 00	 jmp	 $LN10@Presents
$LN9@Presents:

; 464  : 	}
; 465  : 	else if(Present == 3)	//BMDefense

  0191b	83 7d 0c 03	 cmp	 DWORD PTR _Present$[ebp], 3
  0191f	75 2f		 jne	 SHORT $LN7@Presents

; 466  : 	{
; 467  : 		lpUser->BMDefense += Gifts;

  01921	8b 45 f8	 mov	 eax, DWORD PTR _lpUser$[ebp]
  01924	8b 88 bc 28 00
	00		 mov	 ecx, DWORD PTR [eax+10428]
  0192a	03 4d 10	 add	 ecx, DWORD PTR _Gifts$[ebp]
  0192d	8b 55 f8	 mov	 edx, DWORD PTR _lpUser$[ebp]
  01930	89 8a bc 28 00
	00		 mov	 DWORD PTR [edx+10428], ecx

; 468  : 		//exQueryUpdate("UPDATE Character SET BMDefense = BMDefense + %d WHERE Name='%s'", Gifts, NULL->Name);
; 469  : 		MessageChat(aIndex,"@[BMQuest] Defense: +%d",Gifts);

  01936	8b 45 10	 mov	 eax, DWORD PTR _Gifts$[ebp]
  01939	50		 push	 eax
  0193a	68 00 00 00 00	 push	 OFFSET ??_C@_0BI@MHBAOHBM@?$EA?$FLBMQuest?$FN?5Defense?3?5?$CL?$CFd?$AA@
  0193f	8b 4d 08	 mov	 ecx, DWORD PTR _aIndex$[ebp]
  01942	51		 push	 ecx
  01943	e8 00 00 00 00	 call	 ?MessageChat@@YAXHPADZZ	; MessageChat
  01948	83 c4 0c	 add	 esp, 12			; 0000000cH
  0194b	e9 94 00 00 00	 jmp	 $LN10@Presents
$LN7@Presents:

; 470  : 	}
; 471  : 	else if(Present == 4)	//BMCriticalDamage

  01950	83 7d 0c 04	 cmp	 DWORD PTR _Present$[ebp], 4
  01954	75 2c		 jne	 SHORT $LN5@Presents

; 472  : 	{
; 473  : 		lpUser->BMCriticalDamage += Gifts;

  01956	8b 45 f8	 mov	 eax, DWORD PTR _lpUser$[ebp]
  01959	8b 88 c0 28 00
	00		 mov	 ecx, DWORD PTR [eax+10432]
  0195f	03 4d 10	 add	 ecx, DWORD PTR _Gifts$[ebp]
  01962	8b 55 f8	 mov	 edx, DWORD PTR _lpUser$[ebp]
  01965	89 8a c0 28 00
	00		 mov	 DWORD PTR [edx+10432], ecx

; 474  : 		//exQueryUpdate("UPDATE Character SET BMCriticalDamage = BMCriticalDamage + %d WHERE Name='%s'", Gifts, NULL->Name);
; 475  : 		MessageChat(aIndex,"@[BMQuest] CriticalDamage: +%d",Gifts);

  0196b	8b 45 10	 mov	 eax, DWORD PTR _Gifts$[ebp]
  0196e	50		 push	 eax
  0196f	68 00 00 00 00	 push	 OFFSET ??_C@_0BP@EAKLAL@?$EA?$FLBMQuest?$FN?5CriticalDamage?3?5?$CL?$CFd?$AA@
  01974	8b 4d 08	 mov	 ecx, DWORD PTR _aIndex$[ebp]
  01977	51		 push	 ecx
  01978	e8 00 00 00 00	 call	 ?MessageChat@@YAXHPADZZ	; MessageChat
  0197d	83 c4 0c	 add	 esp, 12			; 0000000cH
  01980	eb 62		 jmp	 SHORT $LN10@Presents
$LN5@Presents:

; 476  : 	}
; 477  : 	else if(Present == 5)	//BMExcelentDamage

  01982	83 7d 0c 05	 cmp	 DWORD PTR _Present$[ebp], 5
  01986	75 2c		 jne	 SHORT $LN3@Presents

; 478  : 	{
; 479  : 		lpUser->BMExcelentDamage += Gifts;

  01988	8b 45 f8	 mov	 eax, DWORD PTR _lpUser$[ebp]
  0198b	8b 88 c4 28 00
	00		 mov	 ecx, DWORD PTR [eax+10436]
  01991	03 4d 10	 add	 ecx, DWORD PTR _Gifts$[ebp]
  01994	8b 55 f8	 mov	 edx, DWORD PTR _lpUser$[ebp]
  01997	89 8a c4 28 00
	00		 mov	 DWORD PTR [edx+10436], ecx

; 480  : 		//exQueryUpdate("UPDATE Character SET BMExcelentDamage = BMExcelentDamage + %d WHERE Name='%s'", Gifts, NULL->Name);
; 481  : 		MessageChat(aIndex,"@[BMQuest] ExcelentDamage: +%d",Gifts);

  0199d	8b 45 10	 mov	 eax, DWORD PTR _Gifts$[ebp]
  019a0	50		 push	 eax
  019a1	68 00 00 00 00	 push	 OFFSET ??_C@_0BP@JLDHHCLO@?$EA?$FLBMQuest?$FN?5ExcelentDamage?3?5?$CL?$CFd?$AA@
  019a6	8b 4d 08	 mov	 ecx, DWORD PTR _aIndex$[ebp]
  019a9	51		 push	 ecx
  019aa	e8 00 00 00 00	 call	 ?MessageChat@@YAXHPADZZ	; MessageChat
  019af	83 c4 0c	 add	 esp, 12			; 0000000cH
  019b2	eb 30		 jmp	 SHORT $LN10@Presents
$LN3@Presents:

; 482  : 	}
; 483  : 	else if(Present == 6)	//BMLife

  019b4	83 7d 0c 06	 cmp	 DWORD PTR _Present$[ebp], 6
  019b8	75 2a		 jne	 SHORT $LN10@Presents

; 484  : 	{
; 485  : 		lpUser->BMLife += Gifts;

  019ba	8b 45 f8	 mov	 eax, DWORD PTR _lpUser$[ebp]
  019bd	8b 88 c8 28 00
	00		 mov	 ecx, DWORD PTR [eax+10440]
  019c3	03 4d 10	 add	 ecx, DWORD PTR _Gifts$[ebp]
  019c6	8b 55 f8	 mov	 edx, DWORD PTR _lpUser$[ebp]
  019c9	89 8a c8 28 00
	00		 mov	 DWORD PTR [edx+10440], ecx

; 486  : 		//exQueryUpdate("UPDATE Character SET BMLife = BMLife + %d WHERE Name='%s'", Gifts, NULL->Name);
; 487  : 		MessageChat(aIndex,"@[BMQuest] Life: +%d",Gifts);

  019cf	8b 45 10	 mov	 eax, DWORD PTR _Gifts$[ebp]
  019d2	50		 push	 eax
  019d3	68 00 00 00 00	 push	 OFFSET ??_C@_0BF@JLLIFHHP@?$EA?$FLBMQuest?$FN?5Life?3?5?$CL?$CFd?$AA@
  019d8	8b 4d 08	 mov	 ecx, DWORD PTR _aIndex$[ebp]
  019db	51		 push	 ecx
  019dc	e8 00 00 00 00	 call	 ?MessageChat@@YAXHPADZZ	; MessageChat
  019e1	83 c4 0c	 add	 esp, 12			; 0000000cH
$LN10@Presents:

; 488  : 	}
; 489  : 	//LevelUpEffect (aIndex,1);
; 490  : 	ExFireCracker(aIndex, lpUser->X, lpUser->Y);

  019e4	8b 45 f8	 mov	 eax, DWORD PTR _lpUser$[ebp]
  019e7	0f b6 88 46 01
	00 00		 movzx	 ecx, BYTE PTR [eax+326]
  019ee	51		 push	 ecx
  019ef	8b 55 f8	 mov	 edx, DWORD PTR _lpUser$[ebp]
  019f2	0f b6 82 44 01
	00 00		 movzx	 eax, BYTE PTR [edx+324]
  019f9	50		 push	 eax
  019fa	8b 4d 08	 mov	 ecx, DWORD PTR _aIndex$[ebp]
  019fd	51		 push	 ecx
  019fe	e8 00 00 00 00	 call	 ?ExFireCracker@@YAXHEE@Z ; ExFireCracker
  01a03	83 c4 0c	 add	 esp, 12			; 0000000cH
$LN14@Presents:

; 491  : }

  01a06	5f		 pop	 edi
  01a07	5e		 pop	 esi
  01a08	5b		 pop	 ebx
  01a09	8b e5		 mov	 esp, ebp
  01a0b	5d		 pop	 ebp
  01a0c	c2 0c 00	 ret	 12			; 0000000cH
?Presents@cBMQuest@@QAEXHHH@Z ENDP			; cBMQuest::Presents
_TEXT	ENDS
PUBLIC	?RandOptNpcDialog@cBMQuest@@QAE_NHH@Z		; cBMQuest::RandOptNpcDialog
; Function compile flags: /Odtp /ZI
_TEXT	SEGMENT
tv75 = -80						; size = 4
tv70 = -80						; size = 4
_lpNpc$ = -12						; size = 4
_lpUser$ = -8						; size = 4
_this$ = -4						; size = 4
_aIndex$ = 8						; size = 4
_aNpcIndex$ = 12					; size = 4
?RandOptNpcDialog@cBMQuest@@QAE_NHH@Z PROC		; cBMQuest::RandOptNpcDialog
; _this$ = ecx

; 494  : {

  01a10	55		 push	 ebp
  01a11	8b ec		 mov	 ebp, esp
  01a13	83 ec 50	 sub	 esp, 80			; 00000050H
  01a16	53		 push	 ebx
  01a17	56		 push	 esi
  01a18	57		 push	 edi
  01a19	89 4d fc	 mov	 DWORD PTR _this$[ebp], ecx

; 495  : 	if(!THINNAKORN_MAC)

  01a1c	b8 01 00 00 00	 mov	 eax, 1
  01a21	85 c0		 test	 eax, eax
  01a23	74 07		 je	 SHORT $LN7@RandOptNpc

; 496  : 	{
; 497  : 		return false;

  01a25	32 c0		 xor	 al, al
  01a27	e9 ec 00 00 00	 jmp	 $LN8@RandOptNpc
$LN7@RandOptNpc:

; 498  : 	}
; 499  : 
; 500  : 	if(!this->Enable)

  01a2c	8b 45 fc	 mov	 eax, DWORD PTR _this$[ebp]
  01a2f	83 b8 00 db 1a
	00 00		 cmp	 DWORD PTR [eax+1760000], 0
  01a36	75 07		 jne	 SHORT $LN6@RandOptNpc

; 501  : 	{
; 502  : 		return false;

  01a38	32 c0		 xor	 al, al
  01a3a	e9 d9 00 00 00	 jmp	 $LN8@RandOptNpc
$LN6@RandOptNpc:

; 503  : 	}
; 504  : 
; 505  : 	if(!OBJMAX_RANGE(aIndex) || !OBJMAX_RANGE(aNpcIndex))

  01a3f	83 7d 08 00	 cmp	 DWORD PTR _aIndex$[ebp], 0
  01a43	7d 09		 jge	 SHORT $LN10@RandOptNpc
  01a45	c7 45 b0 00 00
	00 00		 mov	 DWORD PTR tv70[ebp], 0
  01a4c	eb 0f		 jmp	 SHORT $LN11@RandOptNpc
$LN10@RandOptNpc:
  01a4e	33 c0		 xor	 eax, eax
  01a50	81 7d 08 97 3a
	00 00		 cmp	 DWORD PTR _aIndex$[ebp], 14999 ; 00003a97H
  01a57	0f 9e c0	 setle	 al
  01a5a	89 45 b0	 mov	 DWORD PTR tv70[ebp], eax
$LN11@RandOptNpc:
  01a5d	83 7d b0 00	 cmp	 DWORD PTR tv70[ebp], 0
  01a61	74 24		 je	 SHORT $LN4@RandOptNpc
  01a63	83 7d 0c 00	 cmp	 DWORD PTR _aNpcIndex$[ebp], 0
  01a67	7d 09		 jge	 SHORT $LN12@RandOptNpc
  01a69	c7 45 b0 00 00
	00 00		 mov	 DWORD PTR tv75[ebp], 0
  01a70	eb 0f		 jmp	 SHORT $LN13@RandOptNpc
$LN12@RandOptNpc:
  01a72	33 c0		 xor	 eax, eax
  01a74	81 7d 0c 97 3a
	00 00		 cmp	 DWORD PTR _aNpcIndex$[ebp], 14999 ; 00003a97H
  01a7b	0f 9e c0	 setle	 al
  01a7e	89 45 b0	 mov	 DWORD PTR tv75[ebp], eax
$LN13@RandOptNpc:
  01a81	83 7d b0 00	 cmp	 DWORD PTR tv75[ebp], 0
  01a85	75 07		 jne	 SHORT $LN5@RandOptNpc
$LN4@RandOptNpc:

; 506  : 	{
; 507  : 		return false;

  01a87	32 c0		 xor	 al, al
  01a89	e9 8a 00 00 00	 jmp	 $LN8@RandOptNpc
$LN5@RandOptNpc:

; 508  : 	}
; 509  : 
; 510  : 	LPOBJ lpUser = &gObj[aIndex];

  01a8e	8b 45 08	 mov	 eax, DWORD PTR _aIndex$[ebp]
  01a91	69 c0 38 2b 00
	00		 imul	 eax, 11064		; 00002b38H
  01a97	03 05 00 00 00
	00		 add	 eax, DWORD PTR ?gObj@@3PAUOBJECTSTRUCT@@A ; gObj
  01a9d	89 45 f8	 mov	 DWORD PTR _lpUser$[ebp], eax

; 511  : 	LPOBJ lpNpc = &gObj[aNpcIndex];

  01aa0	8b 45 0c	 mov	 eax, DWORD PTR _aNpcIndex$[ebp]
  01aa3	69 c0 38 2b 00
	00		 imul	 eax, 11064		; 00002b38H
  01aa9	03 05 00 00 00
	00		 add	 eax, DWORD PTR ?gObj@@3PAUOBJECTSTRUCT@@A ; gObj
  01aaf	89 45 f4	 mov	 DWORD PTR _lpNpc$[ebp], eax

; 512  : 
; 513  : 	if(lpNpc->Class == this->m_sRandOptNPC_Class && lpNpc->MapNumber == this->m_btRandOptNPC_Map && lpNpc->X == this->m_btRandOptNPC_X && lpNpc->Y == this->m_btRandOptNPC_Y)

  01ab2	8b 45 f4	 mov	 eax, DWORD PTR _lpNpc$[ebp]
  01ab5	0f b7 88 b8 00
	00 00		 movzx	 ecx, WORD PTR [eax+184]
  01abc	8b 55 fc	 mov	 edx, DWORD PTR _this$[ebp]
  01abf	0f bf 82 38 db
	1a 00		 movsx	 eax, WORD PTR [edx+1760056]
  01ac6	3b c8		 cmp	 ecx, eax
  01ac8	75 4c		 jne	 SHORT $LN3@RandOptNpc
  01aca	8b 45 f4	 mov	 eax, DWORD PTR _lpNpc$[ebp]
  01acd	0f b6 88 49 01
	00 00		 movzx	 ecx, BYTE PTR [eax+329]
  01ad4	8b 55 fc	 mov	 edx, DWORD PTR _this$[ebp]
  01ad7	0f b6 82 3a db
	1a 00		 movzx	 eax, BYTE PTR [edx+1760058]
  01ade	3b c8		 cmp	 ecx, eax
  01ae0	75 34		 jne	 SHORT $LN3@RandOptNpc
  01ae2	8b 45 f4	 mov	 eax, DWORD PTR _lpNpc$[ebp]
  01ae5	0f bf 88 44 01
	00 00		 movsx	 ecx, WORD PTR [eax+324]
  01aec	8b 55 fc	 mov	 edx, DWORD PTR _this$[ebp]
  01aef	0f b6 82 3b db
	1a 00		 movzx	 eax, BYTE PTR [edx+1760059]
  01af6	3b c8		 cmp	 ecx, eax
  01af8	75 1c		 jne	 SHORT $LN3@RandOptNpc
  01afa	8b 45 f4	 mov	 eax, DWORD PTR _lpNpc$[ebp]
  01afd	0f bf 88 46 01
	00 00		 movsx	 ecx, WORD PTR [eax+326]
  01b04	8b 55 fc	 mov	 edx, DWORD PTR _this$[ebp]
  01b07	0f b6 82 3c db
	1a 00		 movzx	 eax, BYTE PTR [edx+1760060]
  01b0e	3b c8		 cmp	 ecx, eax
  01b10	75 04		 jne	 SHORT $LN3@RandOptNpc

; 514  : 	{
; 515  : 		if(lpUser->Level >= 400 || gSystemOfRage.rUser[aIndex].rLevel == 300)
; 516  : 		{
; 517  : 
; 518  : 		}
; 519  : 
; 520  : 		//MessageChat(aIndex,"@[BMInfo] +%d Reflect",lpUser->BMDamageReflect);
; 521  : 		//MessageChat(aIndex,"@[BMInfo] +%d Damage",lpUser->BMDamage);
; 522  : 		//MessageChat(aIndex,"@[BMInfo] +%d Defense",lpUser->BMDefense);
; 523  : 		////MessageChat(aIndex,"@[BMInfo] +%d CritDamage",lpUser->BMCriticalDamage);
; 524  : 		//MessageChat(aIndex,"@[BMInfo] +%d ExcDamage",lpUser->BMExcelentDamage);
; 525  : 		//MessageChat(aIndex,"@[BMInfo] +%d Life",lpUser->BMLife);
; 526  : 
; 527  : 		//MsgOutput(aIndex, "[BMQuest] Random option", iTotalRagePoint);
; 528  : 
; 529  : 		return true;

  01b12	b0 01		 mov	 al, 1
  01b14	eb 02		 jmp	 SHORT $LN8@RandOptNpc
$LN3@RandOptNpc:

; 530  : 	}
; 531  : 
; 532  : 	return false;

  01b16	32 c0		 xor	 al, al
$LN8@RandOptNpc:

; 533  : }

  01b18	5f		 pop	 edi
  01b19	5e		 pop	 esi
  01b1a	5b		 pop	 ebx
  01b1b	8b e5		 mov	 esp, ebp
  01b1d	5d		 pop	 ebp
  01b1e	c2 08 00	 ret	 8
?RandOptNpcDialog@cBMQuest@@QAE_NHH@Z ENDP		; cBMQuest::RandOptNpcDialog
_TEXT	ENDS
PUBLIC	??_C@_0CD@IAOGHOB@?$EA?$FLBMQuest?$FN?5Random?5option?5Life?3?5?$CL@ ; `string'
PUBLIC	??_C@_0CO@MPKJEPCD@?$EA?$FLBMQuest?$FN?5Random?5option?5Exellen@ ; `string'
PUBLIC	??_C@_0CO@BBOGGMAH@?$EA?$FLBMQuest?$FN?5Random?5option?5Critica@ ; `string'
PUBLIC	??_C@_0CG@LBGCGDBE@?$EA?$FLBMQuest?$FN?5Random?5option?5Defence@ ; `string'
PUBLIC	??_C@_0CF@KJGKIDFM@?$EA?$FLBMQuest?$FN?5Random?5option?5Damage?3@ ; `string'
PUBLIC	??_C@_0CG@BKGJDIHO@?$EA?$FLBMQuest?$FN?5Random?5option?5Reflect@ ; `string'
PUBLIC	??A?$vector@UBMQuestRandOpt_DATA@@V?$allocator@UBMQuestRandOpt_DATA@@@std@@@std@@QAEAAUBMQuestRandOpt_DATA@@I@Z ; std::vector<BMQuestRandOpt_DATA,std::allocator<BMQuestRandOpt_DATA> >::operator[]
PUBLIC	?size@?$vector@UBMQuestRandOpt_DATA@@V?$allocator@UBMQuestRandOpt_DATA@@@std@@@std@@QBEIXZ ; std::vector<BMQuestRandOpt_DATA,std::allocator<BMQuestRandOpt_DATA> >::size
PUBLIC	?CheckLevels@cBMQuest@@QAEXH@Z			; cBMQuest::CheckLevels
EXTRN	?gObjCalCharacter@@YAXH@Z:PROC			; gObjCalCharacter
EXTRN	?gSystemOfRage@@3VcSystemOfRage@@A:BYTE		; gSystemOfRage
;	COMDAT ??_C@_0CD@IAOGHOB@?$EA?$FLBMQuest?$FN?5Random?5option?5Life?3?5?$CL@
CONST	SEGMENT
??_C@_0CD@IAOGHOB@?$EA?$FLBMQuest?$FN?5Random?5option?5Life?3?5?$CL@ DB '@'
	DB	'[BMQuest] Random option Life: +%d', 00H	; `string'
CONST	ENDS
;	COMDAT ??_C@_0CO@MPKJEPCD@?$EA?$FLBMQuest?$FN?5Random?5option?5Exellen@
CONST	SEGMENT
??_C@_0CO@MPKJEPCD@?$EA?$FLBMQuest?$FN?5Random?5option?5Exellen@ DB '@[BM'
	DB	'Quest] Random option Exellent Damage: +%d', 00H ; `string'
CONST	ENDS
;	COMDAT ??_C@_0CO@BBOGGMAH@?$EA?$FLBMQuest?$FN?5Random?5option?5Critica@
CONST	SEGMENT
??_C@_0CO@BBOGGMAH@?$EA?$FLBMQuest?$FN?5Random?5option?5Critica@ DB '@[BM'
	DB	'Quest] Random option Critical Damage: +%d', 00H ; `string'
CONST	ENDS
;	COMDAT ??_C@_0CG@LBGCGDBE@?$EA?$FLBMQuest?$FN?5Random?5option?5Defence@
CONST	SEGMENT
??_C@_0CG@LBGCGDBE@?$EA?$FLBMQuest?$FN?5Random?5option?5Defence@ DB '@[BM'
	DB	'Quest] Random option Defence: +%d', 00H	; `string'
CONST	ENDS
;	COMDAT ??_C@_0CF@KJGKIDFM@?$EA?$FLBMQuest?$FN?5Random?5option?5Damage?3@
CONST	SEGMENT
??_C@_0CF@KJGKIDFM@?$EA?$FLBMQuest?$FN?5Random?5option?5Damage?3@ DB '@[B'
	DB	'MQuest] Random option Damage: +%d', 00H	; `string'
CONST	ENDS
;	COMDAT ??_C@_0CG@BKGJDIHO@?$EA?$FLBMQuest?$FN?5Random?5option?5Reflect@
CONST	SEGMENT
??_C@_0CG@BKGJDIHO@?$EA?$FLBMQuest?$FN?5Random?5option?5Reflect@ DB '@[BM'
	DB	'Quest] Random option Reflect: +%d', 00H	; `string'
; Function compile flags: /Odtp /ZI
CONST	ENDS
_TEXT	SEGMENT
tv95 = -84						; size = 4
tv68 = -84						; size = 4
_iRand$220241 = -16					; size = 4
_i$220236 = -12						; size = 4
_lpUser$ = -8						; size = 4
_this$ = -4						; size = 4
_aIndex$ = 8						; size = 4
?CheckLevels@cBMQuest@@QAEXH@Z PROC			; cBMQuest::CheckLevels
; _this$ = ecx

; 536  : {

  01b30	55		 push	 ebp
  01b31	8b ec		 mov	 ebp, esp
  01b33	83 ec 54	 sub	 esp, 84			; 00000054H
  01b36	53		 push	 ebx
  01b37	56		 push	 esi
  01b38	57		 push	 edi
  01b39	89 4d fc	 mov	 DWORD PTR _this$[ebp], ecx

; 537  : 	if(!THINNAKORN_MAC)

  01b3c	b8 01 00 00 00	 mov	 eax, 1
  01b41	85 c0		 test	 eax, eax
  01b43	74 05		 je	 SHORT $LN14@CheckLevel

; 538  : 	{
; 539  : 		return;

  01b45	e9 fb 02 00 00	 jmp	 $LN15@CheckLevel
$LN14@CheckLevel:

; 540  : 	}
; 541  : 
; 542  : 	if(!OBJMAX_RANGE(aIndex))

  01b4a	83 7d 08 00	 cmp	 DWORD PTR _aIndex$[ebp], 0
  01b4e	7d 09		 jge	 SHORT $LN17@CheckLevel
  01b50	c7 45 ac 00 00
	00 00		 mov	 DWORD PTR tv68[ebp], 0
  01b57	eb 0f		 jmp	 SHORT $LN18@CheckLevel
$LN17@CheckLevel:
  01b59	33 c0		 xor	 eax, eax
  01b5b	81 7d 08 97 3a
	00 00		 cmp	 DWORD PTR _aIndex$[ebp], 14999 ; 00003a97H
  01b62	0f 9e c0	 setle	 al
  01b65	89 45 ac	 mov	 DWORD PTR tv68[ebp], eax
$LN18@CheckLevel:
  01b68	83 7d ac 00	 cmp	 DWORD PTR tv68[ebp], 0
  01b6c	75 05		 jne	 SHORT $LN13@CheckLevel

; 543  : 	{
; 544  : 		return;

  01b6e	e9 d2 02 00 00	 jmp	 $LN15@CheckLevel
$LN13@CheckLevel:

; 545  : 	}
; 546  : 
; 547  : 	LPOBJ lpUser = &gObj[aIndex];

  01b73	8b 45 08	 mov	 eax, DWORD PTR _aIndex$[ebp]
  01b76	69 c0 38 2b 00
	00		 imul	 eax, 11064		; 00002b38H
  01b7c	03 05 00 00 00
	00		 add	 eax, DWORD PTR ?gObj@@3PAUOBJECTSTRUCT@@A ; gObj
  01b82	89 45 f8	 mov	 DWORD PTR _lpUser$[ebp], eax

; 548  : 
; 549  : 	for(int i = 0; i < this->m_RandOpt.size(); i++)

  01b85	c7 45 f4 00 00
	00 00		 mov	 DWORD PTR _i$220236[ebp], 0
  01b8c	eb 09		 jmp	 SHORT $LN12@CheckLevel
$LN11@CheckLevel:
  01b8e	8b 45 f4	 mov	 eax, DWORD PTR _i$220236[ebp]
  01b91	83 c0 01	 add	 eax, 1
  01b94	89 45 f4	 mov	 DWORD PTR _i$220236[ebp], eax
$LN12@CheckLevel:
  01b97	8b 4d fc	 mov	 ecx, DWORD PTR _this$[ebp]
  01b9a	81 c1 40 db 1a
	00		 add	 ecx, 1760064		; 001adb40H
  01ba0	e8 00 00 00 00	 call	 ?size@?$vector@UBMQuestRandOpt_DATA@@V?$allocator@UBMQuestRandOpt_DATA@@@std@@@std@@QBEIXZ ; std::vector<BMQuestRandOpt_DATA,std::allocator<BMQuestRandOpt_DATA> >::size
  01ba5	39 45 f4	 cmp	 DWORD PTR _i$220236[ebp], eax
  01ba8	0f 83 97 02 00
	00		 jae	 $LN15@CheckLevel

; 550  : 	{	
; 551  : 		if(lpUser->Level == this->m_RandOpt[i].NeedLevel && gSystemOfRage.rUser[aIndex].rLevel == this->m_RandOpt[i].NeedRageLevel)

  01bae	8b 45 f8	 mov	 eax, DWORD PTR _lpUser$[ebp]
  01bb1	0f bf b0 be 00
	00 00		 movsx	 esi, WORD PTR [eax+190]
  01bb8	8b 4d f4	 mov	 ecx, DWORD PTR _i$220236[ebp]
  01bbb	51		 push	 ecx
  01bbc	8b 4d fc	 mov	 ecx, DWORD PTR _this$[ebp]
  01bbf	81 c1 40 db 1a
	00		 add	 ecx, 1760064		; 001adb40H
  01bc5	e8 00 00 00 00	 call	 ??A?$vector@UBMQuestRandOpt_DATA@@V?$allocator@UBMQuestRandOpt_DATA@@@std@@@std@@QAEAAUBMQuestRandOpt_DATA@@I@Z ; std::vector<BMQuestRandOpt_DATA,std::allocator<BMQuestRandOpt_DATA> >::operator[]
  01bca	3b 30		 cmp	 esi, DWORD PTR [eax]
  01bcc	0f 85 6e 02 00
	00		 jne	 $LN9@CheckLevel
  01bd2	8b 75 08	 mov	 esi, DWORD PTR _aIndex$[ebp]
  01bd5	69 f6 a0 00 00
	00		 imul	 esi, 160		; 000000a0H
  01bdb	8b 45 f4	 mov	 eax, DWORD PTR _i$220236[ebp]
  01bde	50		 push	 eax
  01bdf	8b 4d fc	 mov	 ecx, DWORD PTR _this$[ebp]
  01be2	81 c1 40 db 1a
	00		 add	 ecx, 1760064		; 001adb40H
  01be8	e8 00 00 00 00	 call	 ??A?$vector@UBMQuestRandOpt_DATA@@V?$allocator@UBMQuestRandOpt_DATA@@@std@@@std@@QAEAAUBMQuestRandOpt_DATA@@I@Z ; std::vector<BMQuestRandOpt_DATA,std::allocator<BMQuestRandOpt_DATA> >::operator[]
  01bed	8b 8e 34 00 00
	00		 mov	 ecx, DWORD PTR ?gSystemOfRage@@3VcSystemOfRage@@A[esi+52]
  01bf3	3b 48 04	 cmp	 ecx, DWORD PTR [eax+4]
  01bf6	0f 85 44 02 00
	00		 jne	 $LN9@CheckLevel

; 552  : 		{
; 553  : 			int iRand = rand()%6;

  01bfc	e8 00 00 00 00	 call	 _rand
  01c01	99		 cdq
  01c02	b9 06 00 00 00	 mov	 ecx, 6
  01c07	f7 f9		 idiv	 ecx
  01c09	89 55 f0	 mov	 DWORD PTR _iRand$220241[ebp], edx

; 554  : 
; 555  : 			switch(iRand)

  01c0c	8b 45 f0	 mov	 eax, DWORD PTR _iRand$220241[ebp]
  01c0f	89 45 ac	 mov	 DWORD PTR tv95[ebp], eax
  01c12	83 7d ac 05	 cmp	 DWORD PTR tv95[ebp], 5
  01c16	0f 87 f4 01 00
	00		 ja	 $LN7@CheckLevel
  01c1c	8b 4d ac	 mov	 ecx, DWORD PTR tv95[ebp]
  01c1f	ff 24 8d 00 00
	00 00		 jmp	 DWORD PTR $LN19@CheckLevel[ecx*4]
$LN6@CheckLevel:

; 556  : 			{
; 557  : 			case 0:
; 558  : 				{
; 559  : 					lpUser->BMDamageReflect += this->m_RandOpt[i].AddDamageReflect;

  01c26	8b 45 f4	 mov	 eax, DWORD PTR _i$220236[ebp]
  01c29	50		 push	 eax
  01c2a	8b 4d fc	 mov	 ecx, DWORD PTR _this$[ebp]
  01c2d	81 c1 40 db 1a
	00		 add	 ecx, 1760064		; 001adb40H
  01c33	e8 00 00 00 00	 call	 ??A?$vector@UBMQuestRandOpt_DATA@@V?$allocator@UBMQuestRandOpt_DATA@@@std@@@std@@QAEAAUBMQuestRandOpt_DATA@@I@Z ; std::vector<BMQuestRandOpt_DATA,std::allocator<BMQuestRandOpt_DATA> >::operator[]
  01c38	8b 4d f8	 mov	 ecx, DWORD PTR _lpUser$[ebp]
  01c3b	8b 91 b4 28 00
	00		 mov	 edx, DWORD PTR [ecx+10420]
  01c41	03 50 08	 add	 edx, DWORD PTR [eax+8]
  01c44	8b 45 f8	 mov	 eax, DWORD PTR _lpUser$[ebp]
  01c47	89 90 b4 28 00
	00		 mov	 DWORD PTR [eax+10420], edx

; 560  : 					MessageChat(aIndex, "@[BMQuest] Random option Reflect: +%d", this->m_RandOpt[i].AddDamageReflect);

  01c4d	8b 45 f4	 mov	 eax, DWORD PTR _i$220236[ebp]
  01c50	50		 push	 eax
  01c51	8b 4d fc	 mov	 ecx, DWORD PTR _this$[ebp]
  01c54	81 c1 40 db 1a
	00		 add	 ecx, 1760064		; 001adb40H
  01c5a	e8 00 00 00 00	 call	 ??A?$vector@UBMQuestRandOpt_DATA@@V?$allocator@UBMQuestRandOpt_DATA@@@std@@@std@@QAEAAUBMQuestRandOpt_DATA@@I@Z ; std::vector<BMQuestRandOpt_DATA,std::allocator<BMQuestRandOpt_DATA> >::operator[]
  01c5f	8b 48 08	 mov	 ecx, DWORD PTR [eax+8]
  01c62	51		 push	 ecx
  01c63	68 00 00 00 00	 push	 OFFSET ??_C@_0CG@BKGJDIHO@?$EA?$FLBMQuest?$FN?5Random?5option?5Reflect@
  01c68	8b 55 08	 mov	 edx, DWORD PTR _aIndex$[ebp]
  01c6b	52		 push	 edx
  01c6c	e8 00 00 00 00	 call	 ?MessageChat@@YAXHPADZZ	; MessageChat
  01c71	83 c4 0c	 add	 esp, 12			; 0000000cH

; 561  : 				}
; 562  : 				break;

  01c74	e9 97 01 00 00	 jmp	 $LN7@CheckLevel
$LN5@CheckLevel:

; 563  : 			case 1:
; 564  : 				{
; 565  : 					lpUser->BMDamage += this->m_RandOpt[i].AddDamage;

  01c79	8b 45 f4	 mov	 eax, DWORD PTR _i$220236[ebp]
  01c7c	50		 push	 eax
  01c7d	8b 4d fc	 mov	 ecx, DWORD PTR _this$[ebp]
  01c80	81 c1 40 db 1a
	00		 add	 ecx, 1760064		; 001adb40H
  01c86	e8 00 00 00 00	 call	 ??A?$vector@UBMQuestRandOpt_DATA@@V?$allocator@UBMQuestRandOpt_DATA@@@std@@@std@@QAEAAUBMQuestRandOpt_DATA@@I@Z ; std::vector<BMQuestRandOpt_DATA,std::allocator<BMQuestRandOpt_DATA> >::operator[]
  01c8b	8b 4d f8	 mov	 ecx, DWORD PTR _lpUser$[ebp]
  01c8e	8b 91 b8 28 00
	00		 mov	 edx, DWORD PTR [ecx+10424]
  01c94	03 50 0c	 add	 edx, DWORD PTR [eax+12]
  01c97	8b 45 f8	 mov	 eax, DWORD PTR _lpUser$[ebp]
  01c9a	89 90 b8 28 00
	00		 mov	 DWORD PTR [eax+10424], edx

; 566  : 					MessageChat(aIndex, "@[BMQuest] Random option Damage: +%d", this->m_RandOpt[i].AddDamage);

  01ca0	8b 45 f4	 mov	 eax, DWORD PTR _i$220236[ebp]
  01ca3	50		 push	 eax
  01ca4	8b 4d fc	 mov	 ecx, DWORD PTR _this$[ebp]
  01ca7	81 c1 40 db 1a
	00		 add	 ecx, 1760064		; 001adb40H
  01cad	e8 00 00 00 00	 call	 ??A?$vector@UBMQuestRandOpt_DATA@@V?$allocator@UBMQuestRandOpt_DATA@@@std@@@std@@QAEAAUBMQuestRandOpt_DATA@@I@Z ; std::vector<BMQuestRandOpt_DATA,std::allocator<BMQuestRandOpt_DATA> >::operator[]
  01cb2	8b 48 0c	 mov	 ecx, DWORD PTR [eax+12]
  01cb5	51		 push	 ecx
  01cb6	68 00 00 00 00	 push	 OFFSET ??_C@_0CF@KJGKIDFM@?$EA?$FLBMQuest?$FN?5Random?5option?5Damage?3@
  01cbb	8b 55 08	 mov	 edx, DWORD PTR _aIndex$[ebp]
  01cbe	52		 push	 edx
  01cbf	e8 00 00 00 00	 call	 ?MessageChat@@YAXHPADZZ	; MessageChat
  01cc4	83 c4 0c	 add	 esp, 12			; 0000000cH

; 567  : 				}
; 568  : 				break;

  01cc7	e9 44 01 00 00	 jmp	 $LN7@CheckLevel
$LN4@CheckLevel:

; 569  : 			case 2:
; 570  : 				{
; 571  : 					lpUser->BMDefense += this->m_RandOpt[i].AddDefense;

  01ccc	8b 45 f4	 mov	 eax, DWORD PTR _i$220236[ebp]
  01ccf	50		 push	 eax
  01cd0	8b 4d fc	 mov	 ecx, DWORD PTR _this$[ebp]
  01cd3	81 c1 40 db 1a
	00		 add	 ecx, 1760064		; 001adb40H
  01cd9	e8 00 00 00 00	 call	 ??A?$vector@UBMQuestRandOpt_DATA@@V?$allocator@UBMQuestRandOpt_DATA@@@std@@@std@@QAEAAUBMQuestRandOpt_DATA@@I@Z ; std::vector<BMQuestRandOpt_DATA,std::allocator<BMQuestRandOpt_DATA> >::operator[]
  01cde	8b 4d f8	 mov	 ecx, DWORD PTR _lpUser$[ebp]
  01ce1	8b 91 bc 28 00
	00		 mov	 edx, DWORD PTR [ecx+10428]
  01ce7	03 50 10	 add	 edx, DWORD PTR [eax+16]
  01cea	8b 45 f8	 mov	 eax, DWORD PTR _lpUser$[ebp]
  01ced	89 90 bc 28 00
	00		 mov	 DWORD PTR [eax+10428], edx

; 572  : 					MessageChat(aIndex, "@[BMQuest] Random option Defence: +%d", this->m_RandOpt[i].AddDefense);

  01cf3	8b 45 f4	 mov	 eax, DWORD PTR _i$220236[ebp]
  01cf6	50		 push	 eax
  01cf7	8b 4d fc	 mov	 ecx, DWORD PTR _this$[ebp]
  01cfa	81 c1 40 db 1a
	00		 add	 ecx, 1760064		; 001adb40H
  01d00	e8 00 00 00 00	 call	 ??A?$vector@UBMQuestRandOpt_DATA@@V?$allocator@UBMQuestRandOpt_DATA@@@std@@@std@@QAEAAUBMQuestRandOpt_DATA@@I@Z ; std::vector<BMQuestRandOpt_DATA,std::allocator<BMQuestRandOpt_DATA> >::operator[]
  01d05	8b 48 10	 mov	 ecx, DWORD PTR [eax+16]
  01d08	51		 push	 ecx
  01d09	68 00 00 00 00	 push	 OFFSET ??_C@_0CG@LBGCGDBE@?$EA?$FLBMQuest?$FN?5Random?5option?5Defence@
  01d0e	8b 55 08	 mov	 edx, DWORD PTR _aIndex$[ebp]
  01d11	52		 push	 edx
  01d12	e8 00 00 00 00	 call	 ?MessageChat@@YAXHPADZZ	; MessageChat
  01d17	83 c4 0c	 add	 esp, 12			; 0000000cH

; 573  : 				}
; 574  : 				break;

  01d1a	e9 f1 00 00 00	 jmp	 $LN7@CheckLevel
$LN3@CheckLevel:

; 575  : 			case 3:
; 576  : 				{
; 577  : 					lpUser->BMCriticalDamage += this->m_RandOpt[i].AddCriticalDamage;

  01d1f	8b 45 f4	 mov	 eax, DWORD PTR _i$220236[ebp]
  01d22	50		 push	 eax
  01d23	8b 4d fc	 mov	 ecx, DWORD PTR _this$[ebp]
  01d26	81 c1 40 db 1a
	00		 add	 ecx, 1760064		; 001adb40H
  01d2c	e8 00 00 00 00	 call	 ??A?$vector@UBMQuestRandOpt_DATA@@V?$allocator@UBMQuestRandOpt_DATA@@@std@@@std@@QAEAAUBMQuestRandOpt_DATA@@I@Z ; std::vector<BMQuestRandOpt_DATA,std::allocator<BMQuestRandOpt_DATA> >::operator[]
  01d31	8b 4d f8	 mov	 ecx, DWORD PTR _lpUser$[ebp]
  01d34	8b 91 c0 28 00
	00		 mov	 edx, DWORD PTR [ecx+10432]
  01d3a	03 50 14	 add	 edx, DWORD PTR [eax+20]
  01d3d	8b 45 f8	 mov	 eax, DWORD PTR _lpUser$[ebp]
  01d40	89 90 c0 28 00
	00		 mov	 DWORD PTR [eax+10432], edx

; 578  : 					MessageChat(aIndex, "@[BMQuest] Random option Critical Damage: +%d", this->m_RandOpt[i].AddCriticalDamage);

  01d46	8b 45 f4	 mov	 eax, DWORD PTR _i$220236[ebp]
  01d49	50		 push	 eax
  01d4a	8b 4d fc	 mov	 ecx, DWORD PTR _this$[ebp]
  01d4d	81 c1 40 db 1a
	00		 add	 ecx, 1760064		; 001adb40H
  01d53	e8 00 00 00 00	 call	 ??A?$vector@UBMQuestRandOpt_DATA@@V?$allocator@UBMQuestRandOpt_DATA@@@std@@@std@@QAEAAUBMQuestRandOpt_DATA@@I@Z ; std::vector<BMQuestRandOpt_DATA,std::allocator<BMQuestRandOpt_DATA> >::operator[]
  01d58	8b 48 14	 mov	 ecx, DWORD PTR [eax+20]
  01d5b	51		 push	 ecx
  01d5c	68 00 00 00 00	 push	 OFFSET ??_C@_0CO@BBOGGMAH@?$EA?$FLBMQuest?$FN?5Random?5option?5Critica@
  01d61	8b 55 08	 mov	 edx, DWORD PTR _aIndex$[ebp]
  01d64	52		 push	 edx
  01d65	e8 00 00 00 00	 call	 ?MessageChat@@YAXHPADZZ	; MessageChat
  01d6a	83 c4 0c	 add	 esp, 12			; 0000000cH

; 579  : 				}
; 580  : 				break;

  01d6d	e9 9e 00 00 00	 jmp	 $LN7@CheckLevel
$LN2@CheckLevel:

; 581  : 			case 4:
; 582  : 				{
; 583  : 					lpUser->BMExcelentDamage += this->m_RandOpt[i].AddExcelentDamage;

  01d72	8b 45 f4	 mov	 eax, DWORD PTR _i$220236[ebp]
  01d75	50		 push	 eax
  01d76	8b 4d fc	 mov	 ecx, DWORD PTR _this$[ebp]
  01d79	81 c1 40 db 1a
	00		 add	 ecx, 1760064		; 001adb40H
  01d7f	e8 00 00 00 00	 call	 ??A?$vector@UBMQuestRandOpt_DATA@@V?$allocator@UBMQuestRandOpt_DATA@@@std@@@std@@QAEAAUBMQuestRandOpt_DATA@@I@Z ; std::vector<BMQuestRandOpt_DATA,std::allocator<BMQuestRandOpt_DATA> >::operator[]
  01d84	8b 4d f8	 mov	 ecx, DWORD PTR _lpUser$[ebp]
  01d87	8b 91 c4 28 00
	00		 mov	 edx, DWORD PTR [ecx+10436]
  01d8d	03 50 18	 add	 edx, DWORD PTR [eax+24]
  01d90	8b 45 f8	 mov	 eax, DWORD PTR _lpUser$[ebp]
  01d93	89 90 c4 28 00
	00		 mov	 DWORD PTR [eax+10436], edx

; 584  : 					MessageChat(aIndex, "@[BMQuest] Random option Exellent Damage: +%d", this->m_RandOpt[i].AddExcelentDamage);

  01d99	8b 45 f4	 mov	 eax, DWORD PTR _i$220236[ebp]
  01d9c	50		 push	 eax
  01d9d	8b 4d fc	 mov	 ecx, DWORD PTR _this$[ebp]
  01da0	81 c1 40 db 1a
	00		 add	 ecx, 1760064		; 001adb40H
  01da6	e8 00 00 00 00	 call	 ??A?$vector@UBMQuestRandOpt_DATA@@V?$allocator@UBMQuestRandOpt_DATA@@@std@@@std@@QAEAAUBMQuestRandOpt_DATA@@I@Z ; std::vector<BMQuestRandOpt_DATA,std::allocator<BMQuestRandOpt_DATA> >::operator[]
  01dab	8b 48 18	 mov	 ecx, DWORD PTR [eax+24]
  01dae	51		 push	 ecx
  01daf	68 00 00 00 00	 push	 OFFSET ??_C@_0CO@MPKJEPCD@?$EA?$FLBMQuest?$FN?5Random?5option?5Exellen@
  01db4	8b 55 08	 mov	 edx, DWORD PTR _aIndex$[ebp]
  01db7	52		 push	 edx
  01db8	e8 00 00 00 00	 call	 ?MessageChat@@YAXHPADZZ	; MessageChat
  01dbd	83 c4 0c	 add	 esp, 12			; 0000000cH

; 585  : 				}
; 586  : 				break;

  01dc0	eb 4e		 jmp	 SHORT $LN7@CheckLevel
$LN1@CheckLevel:

; 587  : 			case 5:
; 588  : 				{
; 589  : 					lpUser->BMLife += this->m_RandOpt[i].AddLife;

  01dc2	8b 45 f4	 mov	 eax, DWORD PTR _i$220236[ebp]
  01dc5	50		 push	 eax
  01dc6	8b 4d fc	 mov	 ecx, DWORD PTR _this$[ebp]
  01dc9	81 c1 40 db 1a
	00		 add	 ecx, 1760064		; 001adb40H
  01dcf	e8 00 00 00 00	 call	 ??A?$vector@UBMQuestRandOpt_DATA@@V?$allocator@UBMQuestRandOpt_DATA@@@std@@@std@@QAEAAUBMQuestRandOpt_DATA@@I@Z ; std::vector<BMQuestRandOpt_DATA,std::allocator<BMQuestRandOpt_DATA> >::operator[]
  01dd4	8b 4d f8	 mov	 ecx, DWORD PTR _lpUser$[ebp]
  01dd7	8b 91 c8 28 00
	00		 mov	 edx, DWORD PTR [ecx+10440]
  01ddd	03 50 1c	 add	 edx, DWORD PTR [eax+28]
  01de0	8b 45 f8	 mov	 eax, DWORD PTR _lpUser$[ebp]
  01de3	89 90 c8 28 00
	00		 mov	 DWORD PTR [eax+10440], edx

; 590  : 					MessageChat(aIndex, "@[BMQuest] Random option Life: +%d", this->m_RandOpt[i].AddLife);

  01de9	8b 45 f4	 mov	 eax, DWORD PTR _i$220236[ebp]
  01dec	50		 push	 eax
  01ded	8b 4d fc	 mov	 ecx, DWORD PTR _this$[ebp]
  01df0	81 c1 40 db 1a
	00		 add	 ecx, 1760064		; 001adb40H
  01df6	e8 00 00 00 00	 call	 ??A?$vector@UBMQuestRandOpt_DATA@@V?$allocator@UBMQuestRandOpt_DATA@@@std@@@std@@QAEAAUBMQuestRandOpt_DATA@@I@Z ; std::vector<BMQuestRandOpt_DATA,std::allocator<BMQuestRandOpt_DATA> >::operator[]
  01dfb	8b 48 1c	 mov	 ecx, DWORD PTR [eax+28]
  01dfe	51		 push	 ecx
  01dff	68 00 00 00 00	 push	 OFFSET ??_C@_0CD@IAOGHOB@?$EA?$FLBMQuest?$FN?5Random?5option?5Life?3?5?$CL@
  01e04	8b 55 08	 mov	 edx, DWORD PTR _aIndex$[ebp]
  01e07	52		 push	 edx
  01e08	e8 00 00 00 00	 call	 ?MessageChat@@YAXHPADZZ	; MessageChat
  01e0d	83 c4 0c	 add	 esp, 12			; 0000000cH
$LN7@CheckLevel:

; 591  : 				}
; 592  : 				break;
; 593  : 			}
; 594  : 
; 595  : 			gObjCalCharacter(aIndex);

  01e10	8b 45 08	 mov	 eax, DWORD PTR _aIndex$[ebp]
  01e13	50		 push	 eax
  01e14	e8 00 00 00 00	 call	 ?gObjCalCharacter@@YAXH@Z ; gObjCalCharacter
  01e19	83 c4 04	 add	 esp, 4

; 596  : 			ExFireCracker(aIndex, lpUser->X, lpUser->Y);

  01e1c	8b 45 f8	 mov	 eax, DWORD PTR _lpUser$[ebp]
  01e1f	0f b6 88 46 01
	00 00		 movzx	 ecx, BYTE PTR [eax+326]
  01e26	51		 push	 ecx
  01e27	8b 55 f8	 mov	 edx, DWORD PTR _lpUser$[ebp]
  01e2a	0f b6 82 44 01
	00 00		 movzx	 eax, BYTE PTR [edx+324]
  01e31	50		 push	 eax
  01e32	8b 4d 08	 mov	 ecx, DWORD PTR _aIndex$[ebp]
  01e35	51		 push	 ecx
  01e36	e8 00 00 00 00	 call	 ?ExFireCracker@@YAXHEE@Z ; ExFireCracker
  01e3b	83 c4 0c	 add	 esp, 12			; 0000000cH

; 597  : 			return;

  01e3e	eb 05		 jmp	 SHORT $LN15@CheckLevel
$LN9@CheckLevel:

; 598  : 		}
; 599  : 	}

  01e40	e9 49 fd ff ff	 jmp	 $LN11@CheckLevel
$LN15@CheckLevel:

; 600  : }

  01e45	5f		 pop	 edi
  01e46	5e		 pop	 esi
  01e47	5b		 pop	 ebx
  01e48	8b e5		 mov	 esp, ebp
  01e4a	5d		 pop	 ebp
  01e4b	c2 04 00	 ret	 4
  01e4e	8b ff		 npad	 2
$LN19@CheckLevel:
  01e50	00 00 00 00	 DD	 $LN6@CheckLevel
  01e54	00 00 00 00	 DD	 $LN5@CheckLevel
  01e58	00 00 00 00	 DD	 $LN4@CheckLevel
  01e5c	00 00 00 00	 DD	 $LN3@CheckLevel
  01e60	00 00 00 00	 DD	 $LN2@CheckLevel
  01e64	00 00 00 00	 DD	 $LN1@CheckLevel
?CheckLevels@cBMQuest@@QAEXH@Z ENDP			; cBMQuest::CheckLevels
; Function compile flags: /Odtp /ZI
; File d:\microsoft visual studio 10.0\vc\include\vector
_TEXT	ENDS
;	COMDAT ?size@?$vector@UBMQuestRandOpt_DATA@@V?$allocator@UBMQuestRandOpt_DATA@@@std@@@std@@QBEIXZ
_TEXT	SEGMENT
_this$ = -4						; size = 4
?size@?$vector@UBMQuestRandOpt_DATA@@V?$allocator@UBMQuestRandOpt_DATA@@@std@@@std@@QBEIXZ PROC ; std::vector<BMQuestRandOpt_DATA,std::allocator<BMQuestRandOpt_DATA> >::size, COMDAT
; _this$ = ecx

; 878  : 		{	// return length of sequence

  00000	55		 push	 ebp
  00001	8b ec		 mov	 ebp, esp
  00003	83 ec 44	 sub	 esp, 68			; 00000044H
  00006	53		 push	 ebx
  00007	56		 push	 esi
  00008	57		 push	 edi
  00009	89 4d fc	 mov	 DWORD PTR _this$[ebp], ecx

; 879  : 		return (this->_Mylast - this->_Myfirst);

  0000c	8b 45 fc	 mov	 eax, DWORD PTR _this$[ebp]
  0000f	8b 4d fc	 mov	 ecx, DWORD PTR _this$[ebp]
  00012	8b 40 04	 mov	 eax, DWORD PTR [eax+4]
  00015	2b 01		 sub	 eax, DWORD PTR [ecx]
  00017	c1 f8 05	 sar	 eax, 5

; 880  : 		}

  0001a	5f		 pop	 edi
  0001b	5e		 pop	 esi
  0001c	5b		 pop	 ebx
  0001d	8b e5		 mov	 esp, ebp
  0001f	5d		 pop	 ebp
  00020	c3		 ret	 0
?size@?$vector@UBMQuestRandOpt_DATA@@V?$allocator@UBMQuestRandOpt_DATA@@@std@@@std@@QBEIXZ ENDP ; std::vector<BMQuestRandOpt_DATA,std::allocator<BMQuestRandOpt_DATA> >::size
; Function compile flags: /Odtp /ZI
_TEXT	ENDS
;	COMDAT ??A?$vector@UBMQuestRandOpt_DATA@@V?$allocator@UBMQuestRandOpt_DATA@@@std@@@std@@QAEAAUBMQuestRandOpt_DATA@@I@Z
_TEXT	SEGMENT
_this$ = -4						; size = 4
__Pos$ = 8						; size = 4
??A?$vector@UBMQuestRandOpt_DATA@@V?$allocator@UBMQuestRandOpt_DATA@@@std@@@std@@QAEAAUBMQuestRandOpt_DATA@@I@Z PROC ; std::vector<BMQuestRandOpt_DATA,std::allocator<BMQuestRandOpt_DATA> >::operator[], COMDAT
; _this$ = ecx

; 928  : 		{	// subscript mutable sequence

  00000	55		 push	 ebp
  00001	8b ec		 mov	 ebp, esp
  00003	83 ec 44	 sub	 esp, 68			; 00000044H
  00006	53		 push	 ebx
  00007	56		 push	 esi
  00008	57		 push	 edi
  00009	89 4d fc	 mov	 DWORD PTR _this$[ebp], ecx

; 929  :  #if _ITERATOR_DEBUG_LEVEL == 2
; 930  : 		if (size() <= _Pos)
; 931  : 			{	// report error
; 932  : 			_DEBUG_ERROR("vector subscript out of range");
; 933  : 			_SCL_SECURE_OUT_OF_RANGE;
; 934  : 			}
; 935  : 
; 936  :  #elif _ITERATOR_DEBUG_LEVEL == 1
; 937  : 		_SCL_SECURE_VALIDATE_RANGE(_Pos < size());
; 938  :  #endif /* _ITERATOR_DEBUG_LEVEL */
; 939  : 
; 940  : 		return (*(this->_Myfirst + _Pos));

  0000c	8b 45 08	 mov	 eax, DWORD PTR __Pos$[ebp]
  0000f	c1 e0 05	 shl	 eax, 5
  00012	8b 4d fc	 mov	 ecx, DWORD PTR _this$[ebp]
  00015	03 01		 add	 eax, DWORD PTR [ecx]

; 941  : 		}

  00017	5f		 pop	 edi
  00018	5e		 pop	 esi
  00019	5b		 pop	 ebx
  0001a	8b e5		 mov	 esp, ebp
  0001c	5d		 pop	 ebp
  0001d	c2 04 00	 ret	 4
??A?$vector@UBMQuestRandOpt_DATA@@V?$allocator@UBMQuestRandOpt_DATA@@@std@@@std@@QAEAAUBMQuestRandOpt_DATA@@I@Z ENDP ; std::vector<BMQuestRandOpt_DATA,std::allocator<BMQuestRandOpt_DATA> >::operator[]
_TEXT	ENDS
PUBLIC	??$_Cons_val@V?$allocator@UBMQuestRandOpt_DATA@@@std@@UBMQuestRandOpt_DATA@@ABU3@@std@@YAXAAV?$allocator@UBMQuestRandOpt_DATA@@@0@PAUBMQuestRandOpt_DATA@@ABU2@@Z ; std::_Cons_val<std::allocator<BMQuestRandOpt_DATA>,BMQuestRandOpt_DATA,BMQuestRandOpt_DATA const &>
PUBLIC	??$_Cons_val@V?$allocator@UBMQuestRandOpt_DATA@@@std@@UBMQuestRandOpt_DATA@@AAU3@@std@@YAXAAV?$allocator@UBMQuestRandOpt_DATA@@@0@PAUBMQuestRandOpt_DATA@@AAU2@@Z ; std::_Cons_val<std::allocator<BMQuestRandOpt_DATA>,BMQuestRandOpt_DATA,BMQuestRandOpt_DATA &>
PUBLIC	?_Orphan_range@?$vector@UBMQuestRandOpt_DATA@@V?$allocator@UBMQuestRandOpt_DATA@@@std@@@std@@IBEXPAUBMQuestRandOpt_DATA@@0@Z ; std::vector<BMQuestRandOpt_DATA,std::allocator<BMQuestRandOpt_DATA> >::_Orphan_range
PUBLIC	?_Reserve@?$vector@UBMQuestRandOpt_DATA@@V?$allocator@UBMQuestRandOpt_DATA@@@std@@@std@@IAEXI@Z ; std::vector<BMQuestRandOpt_DATA,std::allocator<BMQuestRandOpt_DATA> >::_Reserve
PUBLIC	?_Inside@?$vector@UBMQuestRandOpt_DATA@@V?$allocator@UBMQuestRandOpt_DATA@@@std@@@std@@IBE_NPBUBMQuestRandOpt_DATA@@@Z ; std::vector<BMQuestRandOpt_DATA,std::allocator<BMQuestRandOpt_DATA> >::_Inside
PUBLIC	??$addressof@$$CBUBMQuestRandOpt_DATA@@@std@@YAPBUBMQuestRandOpt_DATA@@ABU1@@Z ; std::addressof<BMQuestRandOpt_DATA const >
; Function compile flags: /Odtp /ZI
;	COMDAT ?push_back@?$vector@UBMQuestRandOpt_DATA@@V?$allocator@UBMQuestRandOpt_DATA@@@std@@@std@@QAEXABUBMQuestRandOpt_DATA@@@Z
_TEXT	SEGMENT
__Idx$220281 = -8					; size = 4
_this$ = -4						; size = 4
__Val$ = 8						; size = 4
?push_back@?$vector@UBMQuestRandOpt_DATA@@V?$allocator@UBMQuestRandOpt_DATA@@@std@@@std@@QAEXABUBMQuestRandOpt_DATA@@@Z PROC ; std::vector<BMQuestRandOpt_DATA,std::allocator<BMQuestRandOpt_DATA> >::push_back, COMDAT
; _this$ = ecx

; 976  : 		{	// insert element at end

  00000	55		 push	 ebp
  00001	8b ec		 mov	 ebp, esp
  00003	83 ec 48	 sub	 esp, 72			; 00000048H
  00006	53		 push	 ebx
  00007	56		 push	 esi
  00008	57		 push	 edi
  00009	89 4d fc	 mov	 DWORD PTR _this$[ebp], ecx

; 977  : 		if (_Inside(_STD addressof(_Val)))

  0000c	8b 45 08	 mov	 eax, DWORD PTR __Val$[ebp]
  0000f	50		 push	 eax
  00010	e8 00 00 00 00	 call	 ??$addressof@$$CBUBMQuestRandOpt_DATA@@@std@@YAPBUBMQuestRandOpt_DATA@@ABU1@@Z ; std::addressof<BMQuestRandOpt_DATA const >
  00015	83 c4 04	 add	 esp, 4
  00018	50		 push	 eax
  00019	8b 4d fc	 mov	 ecx, DWORD PTR _this$[ebp]
  0001c	e8 00 00 00 00	 call	 ?_Inside@?$vector@UBMQuestRandOpt_DATA@@V?$allocator@UBMQuestRandOpt_DATA@@@std@@@std@@IBE_NPBUBMQuestRandOpt_DATA@@@Z ; std::vector<BMQuestRandOpt_DATA,std::allocator<BMQuestRandOpt_DATA> >::_Inside
  00021	0f b6 c8	 movzx	 ecx, al
  00024	85 c9		 test	 ecx, ecx
  00026	74 78		 je	 SHORT $LN4@push_back

; 978  : 			{	// push back an element
; 979  : 			size_type _Idx = _STD addressof(_Val) - this->_Myfirst;

  00028	8b 45 08	 mov	 eax, DWORD PTR __Val$[ebp]
  0002b	50		 push	 eax
  0002c	e8 00 00 00 00	 call	 ??$addressof@$$CBUBMQuestRandOpt_DATA@@@std@@YAPBUBMQuestRandOpt_DATA@@ABU1@@Z ; std::addressof<BMQuestRandOpt_DATA const >
  00031	83 c4 04	 add	 esp, 4
  00034	8b 4d fc	 mov	 ecx, DWORD PTR _this$[ebp]
  00037	2b 01		 sub	 eax, DWORD PTR [ecx]
  00039	c1 f8 05	 sar	 eax, 5
  0003c	89 45 f8	 mov	 DWORD PTR __Idx$220281[ebp], eax

; 980  : 			if (this->_Mylast == this->_Myend)

  0003f	8b 45 fc	 mov	 eax, DWORD PTR _this$[ebp]
  00042	8b 4d fc	 mov	 ecx, DWORD PTR _this$[ebp]
  00045	8b 50 04	 mov	 edx, DWORD PTR [eax+4]
  00048	3b 51 08	 cmp	 edx, DWORD PTR [ecx+8]
  0004b	75 0a		 jne	 SHORT $LN3@push_back

; 981  : 				_Reserve(1);

  0004d	6a 01		 push	 1
  0004f	8b 4d fc	 mov	 ecx, DWORD PTR _this$[ebp]
  00052	e8 00 00 00 00	 call	 ?_Reserve@?$vector@UBMQuestRandOpt_DATA@@V?$allocator@UBMQuestRandOpt_DATA@@@std@@@std@@IAEXI@Z ; std::vector<BMQuestRandOpt_DATA,std::allocator<BMQuestRandOpt_DATA> >::_Reserve
$LN3@push_back:

; 982  : 			_Orphan_range(this->_Mylast, this->_Mylast);

  00057	8b 45 fc	 mov	 eax, DWORD PTR _this$[ebp]
  0005a	8b 48 04	 mov	 ecx, DWORD PTR [eax+4]
  0005d	51		 push	 ecx
  0005e	8b 55 fc	 mov	 edx, DWORD PTR _this$[ebp]
  00061	8b 42 04	 mov	 eax, DWORD PTR [edx+4]
  00064	50		 push	 eax
  00065	8b 4d fc	 mov	 ecx, DWORD PTR _this$[ebp]
  00068	e8 00 00 00 00	 call	 ?_Orphan_range@?$vector@UBMQuestRandOpt_DATA@@V?$allocator@UBMQuestRandOpt_DATA@@@std@@@std@@IBEXPAUBMQuestRandOpt_DATA@@0@Z ; std::vector<BMQuestRandOpt_DATA,std::allocator<BMQuestRandOpt_DATA> >::_Orphan_range

; 983  : 			_Cons_val(this->_Alval,
; 984  : 				this->_Mylast,
; 985  : 				this->_Myfirst[_Idx]);

  0006d	8b 45 f8	 mov	 eax, DWORD PTR __Idx$220281[ebp]
  00070	c1 e0 05	 shl	 eax, 5
  00073	8b 4d fc	 mov	 ecx, DWORD PTR _this$[ebp]
  00076	03 01		 add	 eax, DWORD PTR [ecx]
  00078	50		 push	 eax
  00079	8b 55 fc	 mov	 edx, DWORD PTR _this$[ebp]
  0007c	8b 42 04	 mov	 eax, DWORD PTR [edx+4]
  0007f	50		 push	 eax
  00080	8b 4d fc	 mov	 ecx, DWORD PTR _this$[ebp]
  00083	83 c1 0c	 add	 ecx, 12			; 0000000cH
  00086	51		 push	 ecx
  00087	e8 00 00 00 00	 call	 ??$_Cons_val@V?$allocator@UBMQuestRandOpt_DATA@@@std@@UBMQuestRandOpt_DATA@@AAU3@@std@@YAXAAV?$allocator@UBMQuestRandOpt_DATA@@@0@PAUBMQuestRandOpt_DATA@@AAU2@@Z ; std::_Cons_val<std::allocator<BMQuestRandOpt_DATA>,BMQuestRandOpt_DATA,BMQuestRandOpt_DATA &>
  0008c	83 c4 0c	 add	 esp, 12			; 0000000cH

; 986  : 			++this->_Mylast;

  0008f	8b 45 fc	 mov	 eax, DWORD PTR _this$[ebp]
  00092	8b 48 04	 mov	 ecx, DWORD PTR [eax+4]
  00095	83 c1 20	 add	 ecx, 32			; 00000020H
  00098	8b 55 fc	 mov	 edx, DWORD PTR _this$[ebp]
  0009b	89 4a 04	 mov	 DWORD PTR [edx+4], ecx

; 987  : 			}
; 988  : 		else

  0009e	eb 57		 jmp	 SHORT $LN5@push_back
$LN4@push_back:

; 989  : 			{	// push back a non-element
; 990  : 			if (this->_Mylast == this->_Myend)

  000a0	8b 45 fc	 mov	 eax, DWORD PTR _this$[ebp]
  000a3	8b 4d fc	 mov	 ecx, DWORD PTR _this$[ebp]
  000a6	8b 50 04	 mov	 edx, DWORD PTR [eax+4]
  000a9	3b 51 08	 cmp	 edx, DWORD PTR [ecx+8]
  000ac	75 0a		 jne	 SHORT $LN1@push_back

; 991  : 				_Reserve(1);

  000ae	6a 01		 push	 1
  000b0	8b 4d fc	 mov	 ecx, DWORD PTR _this$[ebp]
  000b3	e8 00 00 00 00	 call	 ?_Reserve@?$vector@UBMQuestRandOpt_DATA@@V?$allocator@UBMQuestRandOpt_DATA@@@std@@@std@@IAEXI@Z ; std::vector<BMQuestRandOpt_DATA,std::allocator<BMQuestRandOpt_DATA> >::_Reserve
$LN1@push_back:

; 992  : 			_Orphan_range(this->_Mylast, this->_Mylast);

  000b8	8b 45 fc	 mov	 eax, DWORD PTR _this$[ebp]
  000bb	8b 48 04	 mov	 ecx, DWORD PTR [eax+4]
  000be	51		 push	 ecx
  000bf	8b 55 fc	 mov	 edx, DWORD PTR _this$[ebp]
  000c2	8b 42 04	 mov	 eax, DWORD PTR [edx+4]
  000c5	50		 push	 eax
  000c6	8b 4d fc	 mov	 ecx, DWORD PTR _this$[ebp]
  000c9	e8 00 00 00 00	 call	 ?_Orphan_range@?$vector@UBMQuestRandOpt_DATA@@V?$allocator@UBMQuestRandOpt_DATA@@@std@@@std@@IBEXPAUBMQuestRandOpt_DATA@@0@Z ; std::vector<BMQuestRandOpt_DATA,std::allocator<BMQuestRandOpt_DATA> >::_Orphan_range

; 993  : 			_Cons_val(this->_Alval,
; 994  : 				this->_Mylast,
; 995  : 				_Val);

  000ce	8b 45 08	 mov	 eax, DWORD PTR __Val$[ebp]
  000d1	50		 push	 eax
  000d2	8b 4d fc	 mov	 ecx, DWORD PTR _this$[ebp]
  000d5	8b 51 04	 mov	 edx, DWORD PTR [ecx+4]
  000d8	52		 push	 edx
  000d9	8b 45 fc	 mov	 eax, DWORD PTR _this$[ebp]
  000dc	83 c0 0c	 add	 eax, 12			; 0000000cH
  000df	50		 push	 eax
  000e0	e8 00 00 00 00	 call	 ??$_Cons_val@V?$allocator@UBMQuestRandOpt_DATA@@@std@@UBMQuestRandOpt_DATA@@ABU3@@std@@YAXAAV?$allocator@UBMQuestRandOpt_DATA@@@0@PAUBMQuestRandOpt_DATA@@ABU2@@Z ; std::_Cons_val<std::allocator<BMQuestRandOpt_DATA>,BMQuestRandOpt_DATA,BMQuestRandOpt_DATA const &>
  000e5	83 c4 0c	 add	 esp, 12			; 0000000cH

; 996  : 			++this->_Mylast;

  000e8	8b 45 fc	 mov	 eax, DWORD PTR _this$[ebp]
  000eb	8b 48 04	 mov	 ecx, DWORD PTR [eax+4]
  000ee	83 c1 20	 add	 ecx, 32			; 00000020H
  000f1	8b 55 fc	 mov	 edx, DWORD PTR _this$[ebp]
  000f4	89 4a 04	 mov	 DWORD PTR [edx+4], ecx
$LN5@push_back:

; 997  : 			}
; 998  : 		}

  000f7	5f		 pop	 edi
  000f8	5e		 pop	 esi
  000f9	5b		 pop	 ebx
  000fa	8b e5		 mov	 esp, ebp
  000fc	5d		 pop	 ebp
  000fd	c2 04 00	 ret	 4
?push_back@?$vector@UBMQuestRandOpt_DATA@@V?$allocator@UBMQuestRandOpt_DATA@@@std@@@std@@QAEXABUBMQuestRandOpt_DATA@@@Z ENDP ; std::vector<BMQuestRandOpt_DATA,std::allocator<BMQuestRandOpt_DATA> >::push_back
_TEXT	ENDS
PUBLIC	?erase@?$vector@UBMQuestRandOpt_DATA@@V?$allocator@UBMQuestRandOpt_DATA@@@std@@@std@@QAE?AV?$_Vector_iterator@V?$_Vector_val@UBMQuestRandOpt_DATA@@V?$allocator@UBMQuestRandOpt_DATA@@@std@@@std@@@2@V?$_Vector_const_iterator@V?$_Vector_val@UBMQuestRandOpt_DATA@@V?$allocator@UBMQuestRandOpt_DATA@@@std@@@std@@@2@0@Z ; std::vector<BMQuestRandOpt_DATA,std::allocator<BMQuestRandOpt_DATA> >::erase
PUBLIC	?begin@?$vector@UBMQuestRandOpt_DATA@@V?$allocator@UBMQuestRandOpt_DATA@@@std@@@std@@QAE?AV?$_Vector_iterator@V?$_Vector_val@UBMQuestRandOpt_DATA@@V?$allocator@UBMQuestRandOpt_DATA@@@std@@@std@@@2@XZ ; std::vector<BMQuestRandOpt_DATA,std::allocator<BMQuestRandOpt_DATA> >::begin
PUBLIC	?end@?$vector@UBMQuestRandOpt_DATA@@V?$allocator@UBMQuestRandOpt_DATA@@@std@@@std@@QAE?AV?$_Vector_iterator@V?$_Vector_val@UBMQuestRandOpt_DATA@@V?$allocator@UBMQuestRandOpt_DATA@@@std@@@std@@@2@XZ ; std::vector<BMQuestRandOpt_DATA,std::allocator<BMQuestRandOpt_DATA> >::end
; Function compile flags: /Odtp /ZI
;	COMDAT ?clear@?$vector@UBMQuestRandOpt_DATA@@V?$allocator@UBMQuestRandOpt_DATA@@@std@@@std@@QAEXXZ
_TEXT	SEGMENT
$T221277 = -88						; size = 4
$T221278 = -84						; size = 4
$T221279 = -80						; size = 4
$T221280 = -76						; size = 4
$T221281 = -72						; size = 4
_this$ = -4						; size = 4
?clear@?$vector@UBMQuestRandOpt_DATA@@V?$allocator@UBMQuestRandOpt_DATA@@@std@@@std@@QAEXXZ PROC ; std::vector<BMQuestRandOpt_DATA,std::allocator<BMQuestRandOpt_DATA> >::clear, COMDAT
; _this$ = ecx

; 1217 : 		{	// erase all

  00000	55		 push	 ebp
  00001	8b ec		 mov	 ebp, esp
  00003	83 ec 58	 sub	 esp, 88			; 00000058H
  00006	53		 push	 ebx
  00007	56		 push	 esi
  00008	57		 push	 edi
  00009	89 4d fc	 mov	 DWORD PTR _this$[ebp], ecx

; 1218 : 		erase(begin(), end());

  0000c	8d 45 ac	 lea	 eax, DWORD PTR $T221278[ebp]
  0000f	50		 push	 eax
  00010	8b 4d fc	 mov	 ecx, DWORD PTR _this$[ebp]
  00013	e8 00 00 00 00	 call	 ?end@?$vector@UBMQuestRandOpt_DATA@@V?$allocator@UBMQuestRandOpt_DATA@@@std@@@std@@QAE?AV?$_Vector_iterator@V?$_Vector_val@UBMQuestRandOpt_DATA@@V?$allocator@UBMQuestRandOpt_DATA@@@std@@@std@@@2@XZ ; std::vector<BMQuestRandOpt_DATA,std::allocator<BMQuestRandOpt_DATA> >::end
  00018	8b 08		 mov	 ecx, DWORD PTR [eax]
  0001a	89 4d a8	 mov	 DWORD PTR $T221277[ebp], ecx
  0001d	8d 55 b4	 lea	 edx, DWORD PTR $T221280[ebp]
  00020	52		 push	 edx
  00021	8b 4d fc	 mov	 ecx, DWORD PTR _this$[ebp]
  00024	e8 00 00 00 00	 call	 ?begin@?$vector@UBMQuestRandOpt_DATA@@V?$allocator@UBMQuestRandOpt_DATA@@@std@@@std@@QAE?AV?$_Vector_iterator@V?$_Vector_val@UBMQuestRandOpt_DATA@@V?$allocator@UBMQuestRandOpt_DATA@@@std@@@std@@@2@XZ ; std::vector<BMQuestRandOpt_DATA,std::allocator<BMQuestRandOpt_DATA> >::begin
  00029	8b 00		 mov	 eax, DWORD PTR [eax]
  0002b	89 45 b0	 mov	 DWORD PTR $T221279[ebp], eax
  0002e	8b 4d a8	 mov	 ecx, DWORD PTR $T221277[ebp]
  00031	51		 push	 ecx
  00032	8b 55 b0	 mov	 edx, DWORD PTR $T221279[ebp]
  00035	52		 push	 edx
  00036	8d 45 b8	 lea	 eax, DWORD PTR $T221281[ebp]
  00039	50		 push	 eax
  0003a	8b 4d fc	 mov	 ecx, DWORD PTR _this$[ebp]
  0003d	e8 00 00 00 00	 call	 ?erase@?$vector@UBMQuestRandOpt_DATA@@V?$allocator@UBMQuestRandOpt_DATA@@@std@@@std@@QAE?AV?$_Vector_iterator@V?$_Vector_val@UBMQuestRandOpt_DATA@@V?$allocator@UBMQuestRandOpt_DATA@@@std@@@std@@@2@V?$_Vector_const_iterator@V?$_Vector_val@UBMQuestRandOpt_DATA@@V?$allocator@UBMQuestRandOpt_DATA@@@std@@@std@@@2@0@Z ; std::vector<BMQuestRandOpt_DATA,std::allocator<BMQuestRandOpt_DATA> >::erase

; 1219 : 		}

  00042	5f		 pop	 edi
  00043	5e		 pop	 esi
  00044	5b		 pop	 ebx
  00045	8b e5		 mov	 esp, ebp
  00047	5d		 pop	 ebp
  00048	c3		 ret	 0
?clear@?$vector@UBMQuestRandOpt_DATA@@V?$allocator@UBMQuestRandOpt_DATA@@@std@@@std@@QAEXXZ ENDP ; std::vector<BMQuestRandOpt_DATA,std::allocator<BMQuestRandOpt_DATA> >::clear
_TEXT	ENDS
PUBLIC	??0?$_Vector_iterator@V?$_Vector_val@UBMQuestRandOpt_DATA@@V?$allocator@UBMQuestRandOpt_DATA@@@std@@@std@@@std@@QAE@PAUBMQuestRandOpt_DATA@@PBU_Container_base0@1@@Z ; std::_Vector_iterator<std::_Vector_val<BMQuestRandOpt_DATA,std::allocator<BMQuestRandOpt_DATA> > >::_Vector_iterator<std::_Vector_val<BMQuestRandOpt_DATA,std::allocator<BMQuestRandOpt_DATA> > >
; Function compile flags: /Odtp /ZI
;	COMDAT ?begin@?$vector@UBMQuestRandOpt_DATA@@V?$allocator@UBMQuestRandOpt_DATA@@@std@@@std@@QAE?AV?$_Vector_iterator@V?$_Vector_val@UBMQuestRandOpt_DATA@@V?$allocator@UBMQuestRandOpt_DATA@@@std@@@std@@@2@XZ
_TEXT	SEGMENT
_this$ = -4						; size = 4
___$ReturnUdt$ = 8					; size = 4
?begin@?$vector@UBMQuestRandOpt_DATA@@V?$allocator@UBMQuestRandOpt_DATA@@@std@@@std@@QAE?AV?$_Vector_iterator@V?$_Vector_val@UBMQuestRandOpt_DATA@@V?$allocator@UBMQuestRandOpt_DATA@@@std@@@std@@@2@XZ PROC ; std::vector<BMQuestRandOpt_DATA,std::allocator<BMQuestRandOpt_DATA> >::begin, COMDAT
; _this$ = ecx

; 781  : 		{	// return iterator for beginning of mutable sequence

  00000	55		 push	 ebp
  00001	8b ec		 mov	 ebp, esp
  00003	83 ec 44	 sub	 esp, 68			; 00000044H
  00006	53		 push	 ebx
  00007	56		 push	 esi
  00008	57		 push	 edi
  00009	89 4d fc	 mov	 DWORD PTR _this$[ebp], ecx

; 782  : 		return (iterator(this->_Myfirst, this));

  0000c	8b 45 fc	 mov	 eax, DWORD PTR _this$[ebp]
  0000f	50		 push	 eax
  00010	8b 4d fc	 mov	 ecx, DWORD PTR _this$[ebp]
  00013	8b 11		 mov	 edx, DWORD PTR [ecx]
  00015	52		 push	 edx
  00016	8b 4d 08	 mov	 ecx, DWORD PTR ___$ReturnUdt$[ebp]
  00019	e8 00 00 00 00	 call	 ??0?$_Vector_iterator@V?$_Vector_val@UBMQuestRandOpt_DATA@@V?$allocator@UBMQuestRandOpt_DATA@@@std@@@std@@@std@@QAE@PAUBMQuestRandOpt_DATA@@PBU_Container_base0@1@@Z ; std::_Vector_iterator<std::_Vector_val<BMQuestRandOpt_DATA,std::allocator<BMQuestRandOpt_DATA> > >::_Vector_iterator<std::_Vector_val<BMQuestRandOpt_DATA,std::allocator<BMQuestRandOpt_DATA> > >
  0001e	8b 45 08	 mov	 eax, DWORD PTR ___$ReturnUdt$[ebp]

; 783  : 		}

  00021	5f		 pop	 edi
  00022	5e		 pop	 esi
  00023	5b		 pop	 ebx
  00024	8b e5		 mov	 esp, ebp
  00026	5d		 pop	 ebp
  00027	c2 04 00	 ret	 4
?begin@?$vector@UBMQuestRandOpt_DATA@@V?$allocator@UBMQuestRandOpt_DATA@@@std@@@std@@QAE?AV?$_Vector_iterator@V?$_Vector_val@UBMQuestRandOpt_DATA@@V?$allocator@UBMQuestRandOpt_DATA@@@std@@@std@@@2@XZ ENDP ; std::vector<BMQuestRandOpt_DATA,std::allocator<BMQuestRandOpt_DATA> >::begin
; Function compile flags: /Odtp /ZI
_TEXT	ENDS
;	COMDAT ?end@?$vector@UBMQuestRandOpt_DATA@@V?$allocator@UBMQuestRandOpt_DATA@@@std@@@std@@QAE?AV?$_Vector_iterator@V?$_Vector_val@UBMQuestRandOpt_DATA@@V?$allocator@UBMQuestRandOpt_DATA@@@std@@@std@@@2@XZ
_TEXT	SEGMENT
_this$ = -4						; size = 4
___$ReturnUdt$ = 8					; size = 4
?end@?$vector@UBMQuestRandOpt_DATA@@V?$allocator@UBMQuestRandOpt_DATA@@@std@@@std@@QAE?AV?$_Vector_iterator@V?$_Vector_val@UBMQuestRandOpt_DATA@@V?$allocator@UBMQuestRandOpt_DATA@@@std@@@std@@@2@XZ PROC ; std::vector<BMQuestRandOpt_DATA,std::allocator<BMQuestRandOpt_DATA> >::end, COMDAT
; _this$ = ecx

; 791  : 		{	// return iterator for end of mutable sequence

  00000	55		 push	 ebp
  00001	8b ec		 mov	 ebp, esp
  00003	83 ec 44	 sub	 esp, 68			; 00000044H
  00006	53		 push	 ebx
  00007	56		 push	 esi
  00008	57		 push	 edi
  00009	89 4d fc	 mov	 DWORD PTR _this$[ebp], ecx

; 792  : 		return (iterator(this->_Mylast, this));

  0000c	8b 45 fc	 mov	 eax, DWORD PTR _this$[ebp]
  0000f	50		 push	 eax
  00010	8b 4d fc	 mov	 ecx, DWORD PTR _this$[ebp]
  00013	8b 51 04	 mov	 edx, DWORD PTR [ecx+4]
  00016	52		 push	 edx
  00017	8b 4d 08	 mov	 ecx, DWORD PTR ___$ReturnUdt$[ebp]
  0001a	e8 00 00 00 00	 call	 ??0?$_Vector_iterator@V?$_Vector_val@UBMQuestRandOpt_DATA@@V?$allocator@UBMQuestRandOpt_DATA@@@std@@@std@@@std@@QAE@PAUBMQuestRandOpt_DATA@@PBU_Container_base0@1@@Z ; std::_Vector_iterator<std::_Vector_val<BMQuestRandOpt_DATA,std::allocator<BMQuestRandOpt_DATA> > >::_Vector_iterator<std::_Vector_val<BMQuestRandOpt_DATA,std::allocator<BMQuestRandOpt_DATA> > >
  0001f	8b 45 08	 mov	 eax, DWORD PTR ___$ReturnUdt$[ebp]

; 793  : 		}

  00022	5f		 pop	 edi
  00023	5e		 pop	 esi
  00024	5b		 pop	 ebx
  00025	8b e5		 mov	 esp, ebp
  00027	5d		 pop	 ebp
  00028	c2 04 00	 ret	 4
?end@?$vector@UBMQuestRandOpt_DATA@@V?$allocator@UBMQuestRandOpt_DATA@@@std@@@std@@QAE?AV?$_Vector_iterator@V?$_Vector_val@UBMQuestRandOpt_DATA@@V?$allocator@UBMQuestRandOpt_DATA@@@std@@@std@@@2@XZ ENDP ; std::vector<BMQuestRandOpt_DATA,std::allocator<BMQuestRandOpt_DATA> >::end
_TEXT	ENDS
PUBLIC	?_Destroy@?$vector@UBMQuestRandOpt_DATA@@V?$allocator@UBMQuestRandOpt_DATA@@@std@@@std@@IAEXPAUBMQuestRandOpt_DATA@@0@Z ; std::vector<BMQuestRandOpt_DATA,std::allocator<BMQuestRandOpt_DATA> >::_Destroy
PUBLIC	??$_Move@PAUBMQuestRandOpt_DATA@@PAU1@@std@@YAPAUBMQuestRandOpt_DATA@@PAU1@00@Z ; std::_Move<BMQuestRandOpt_DATA *,BMQuestRandOpt_DATA *>
PUBLIC	??9?$_Vector_const_iterator@V?$_Vector_val@UBMQuestRandOpt_DATA@@V?$allocator@UBMQuestRandOpt_DATA@@@std@@@std@@@std@@QBE_NABV01@@Z ; std::_Vector_const_iterator<std::_Vector_val<BMQuestRandOpt_DATA,std::allocator<BMQuestRandOpt_DATA> > >::operator!=
PUBLIC	?_Make_iter@?$vector@UBMQuestRandOpt_DATA@@V?$allocator@UBMQuestRandOpt_DATA@@@std@@@std@@QBE?AV?$_Vector_iterator@V?$_Vector_val@UBMQuestRandOpt_DATA@@V?$allocator@UBMQuestRandOpt_DATA@@@std@@@std@@@2@V?$_Vector_const_iterator@V?$_Vector_val@UBMQuestRandOpt_DATA@@V?$allocator@UBMQuestRandOpt_DATA@@@std@@@std@@@2@@Z ; std::vector<BMQuestRandOpt_DATA,std::allocator<BMQuestRandOpt_DATA> >::_Make_iter
; Function compile flags: /Odtp /ZI
;	COMDAT ?erase@?$vector@UBMQuestRandOpt_DATA@@V?$allocator@UBMQuestRandOpt_DATA@@@std@@@std@@QAE?AV?$_Vector_iterator@V?$_Vector_val@UBMQuestRandOpt_DATA@@V?$allocator@UBMQuestRandOpt_DATA@@@std@@@std@@@2@V?$_Vector_const_iterator@V?$_Vector_val@UBMQuestRandOpt_DATA@@V?$allocator@UBMQuestRandOpt_DATA@@@std@@@std@@@2@0@Z
_TEXT	SEGMENT
$T221288 = -84						; size = 4
__Ptr$220466 = -16					; size = 4
__Last$ = -12						; size = 4
__First$ = -8						; size = 4
_this$ = -4						; size = 4
___$ReturnUdt$ = 8					; size = 4
__First_arg$ = 12					; size = 4
__Last_arg$ = 16					; size = 4
?erase@?$vector@UBMQuestRandOpt_DATA@@V?$allocator@UBMQuestRandOpt_DATA@@@std@@@std@@QAE?AV?$_Vector_iterator@V?$_Vector_val@UBMQuestRandOpt_DATA@@V?$allocator@UBMQuestRandOpt_DATA@@@std@@@std@@@2@V?$_Vector_const_iterator@V?$_Vector_val@UBMQuestRandOpt_DATA@@V?$allocator@UBMQuestRandOpt_DATA@@@std@@@std@@@2@0@Z PROC ; std::vector<BMQuestRandOpt_DATA,std::allocator<BMQuestRandOpt_DATA> >::erase, COMDAT
; _this$ = ecx

; 1190 : 		{	// erase [_First, _Last)

  00000	55		 push	 ebp
  00001	8b ec		 mov	 ebp, esp
  00003	83 ec 54	 sub	 esp, 84			; 00000054H
  00006	53		 push	 ebx
  00007	56		 push	 esi
  00008	57		 push	 edi
  00009	89 4d fc	 mov	 DWORD PTR _this$[ebp], ecx

; 1191 : 		iterator _First = _Make_iter(_First_arg);

  0000c	8b 45 0c	 mov	 eax, DWORD PTR __First_arg$[ebp]
  0000f	50		 push	 eax
  00010	8d 4d f8	 lea	 ecx, DWORD PTR __First$[ebp]
  00013	51		 push	 ecx
  00014	8b 4d fc	 mov	 ecx, DWORD PTR _this$[ebp]
  00017	e8 00 00 00 00	 call	 ?_Make_iter@?$vector@UBMQuestRandOpt_DATA@@V?$allocator@UBMQuestRandOpt_DATA@@@std@@@std@@QBE?AV?$_Vector_iterator@V?$_Vector_val@UBMQuestRandOpt_DATA@@V?$allocator@UBMQuestRandOpt_DATA@@@std@@@std@@@2@V?$_Vector_const_iterator@V?$_Vector_val@UBMQuestRandOpt_DATA@@V?$allocator@UBMQuestRandOpt_DATA@@@std@@@std@@@2@@Z ; std::vector<BMQuestRandOpt_DATA,std::allocator<BMQuestRandOpt_DATA> >::_Make_iter

; 1192 : 		iterator _Last = _Make_iter(_Last_arg);

  0001c	8b 45 10	 mov	 eax, DWORD PTR __Last_arg$[ebp]
  0001f	50		 push	 eax
  00020	8d 4d f4	 lea	 ecx, DWORD PTR __Last$[ebp]
  00023	51		 push	 ecx
  00024	8b 4d fc	 mov	 ecx, DWORD PTR _this$[ebp]
  00027	e8 00 00 00 00	 call	 ?_Make_iter@?$vector@UBMQuestRandOpt_DATA@@V?$allocator@UBMQuestRandOpt_DATA@@@std@@@std@@QBE?AV?$_Vector_iterator@V?$_Vector_val@UBMQuestRandOpt_DATA@@V?$allocator@UBMQuestRandOpt_DATA@@@std@@@std@@@2@V?$_Vector_const_iterator@V?$_Vector_val@UBMQuestRandOpt_DATA@@V?$allocator@UBMQuestRandOpt_DATA@@@std@@@std@@@2@@Z ; std::vector<BMQuestRandOpt_DATA,std::allocator<BMQuestRandOpt_DATA> >::_Make_iter

; 1193 : 
; 1194 : 		if (_First != _Last)

  0002c	8d 45 f4	 lea	 eax, DWORD PTR __Last$[ebp]
  0002f	50		 push	 eax
  00030	8d 4d f8	 lea	 ecx, DWORD PTR __First$[ebp]
  00033	e8 00 00 00 00	 call	 ??9?$_Vector_const_iterator@V?$_Vector_val@UBMQuestRandOpt_DATA@@V?$allocator@UBMQuestRandOpt_DATA@@@std@@@std@@@std@@QBE_NABV01@@Z ; std::_Vector_const_iterator<std::_Vector_val<BMQuestRandOpt_DATA,std::allocator<BMQuestRandOpt_DATA> > >::operator!=
  00038	0f b6 c8	 movzx	 ecx, al
  0003b	85 c9		 test	 ecx, ecx
  0003d	74 36		 je	 SHORT $LN1@erase

; 1195 : 			{	// worth doing, copy down over hole
; 1196 :  #if _ITERATOR_DEBUG_LEVEL == 2
; 1197 : 			if (_Last < _First || _VICONT(_First) != this
; 1198 : 				|| _VIPTR(_First) < this->_Myfirst
; 1199 : 				|| this->_Mylast < _VIPTR(_Last))
; 1200 : 				_DEBUG_ERROR("vector erase iterator outside range");
; 1201 : 			pointer _Ptr = _Move(_VIPTR(_Last), this->_Mylast,
; 1202 : 				_VIPTR(_First));
; 1203 : 			_Orphan_range(_VIPTR(_First), this->_Mylast);
; 1204 : 
; 1205 :  #else /* _ITERATOR_DEBUG_LEVEL == 2 */
; 1206 : 			pointer _Ptr = _Move(_VIPTR(_Last), this->_Mylast,
; 1207 : 				_VIPTR(_First));

  0003f	8b 45 f8	 mov	 eax, DWORD PTR __First$[ebp]
  00042	50		 push	 eax
  00043	8b 4d fc	 mov	 ecx, DWORD PTR _this$[ebp]
  00046	8b 51 04	 mov	 edx, DWORD PTR [ecx+4]
  00049	52		 push	 edx
  0004a	8b 45 f4	 mov	 eax, DWORD PTR __Last$[ebp]
  0004d	50		 push	 eax
  0004e	e8 00 00 00 00	 call	 ??$_Move@PAUBMQuestRandOpt_DATA@@PAU1@@std@@YAPAUBMQuestRandOpt_DATA@@PAU1@00@Z ; std::_Move<BMQuestRandOpt_DATA *,BMQuestRandOpt_DATA *>
  00053	83 c4 0c	 add	 esp, 12			; 0000000cH
  00056	89 45 f0	 mov	 DWORD PTR __Ptr$220466[ebp], eax

; 1208 :  #endif /* _ITERATOR_DEBUG_LEVEL == 2 */
; 1209 : 
; 1210 : 			_Destroy(_Ptr, this->_Mylast);

  00059	8b 45 fc	 mov	 eax, DWORD PTR _this$[ebp]
  0005c	8b 48 04	 mov	 ecx, DWORD PTR [eax+4]
  0005f	51		 push	 ecx
  00060	8b 55 f0	 mov	 edx, DWORD PTR __Ptr$220466[ebp]
  00063	52		 push	 edx
  00064	8b 4d fc	 mov	 ecx, DWORD PTR _this$[ebp]
  00067	e8 00 00 00 00	 call	 ?_Destroy@?$vector@UBMQuestRandOpt_DATA@@V?$allocator@UBMQuestRandOpt_DATA@@@std@@@std@@IAEXPAUBMQuestRandOpt_DATA@@0@Z ; std::vector<BMQuestRandOpt_DATA,std::allocator<BMQuestRandOpt_DATA> >::_Destroy

; 1211 : 			this->_Mylast = _Ptr;

  0006c	8b 45 fc	 mov	 eax, DWORD PTR _this$[ebp]
  0006f	8b 4d f0	 mov	 ecx, DWORD PTR __Ptr$220466[ebp]
  00072	89 48 04	 mov	 DWORD PTR [eax+4], ecx
$LN1@erase:

; 1212 : 			}
; 1213 : 		return (_Make_iter(_First));

  00075	8b 45 f8	 mov	 eax, DWORD PTR __First$[ebp]
  00078	89 45 ac	 mov	 DWORD PTR $T221288[ebp], eax
  0007b	8b 4d ac	 mov	 ecx, DWORD PTR $T221288[ebp]
  0007e	51		 push	 ecx
  0007f	8b 55 08	 mov	 edx, DWORD PTR ___$ReturnUdt$[ebp]
  00082	52		 push	 edx
  00083	8b 4d fc	 mov	 ecx, DWORD PTR _this$[ebp]
  00086	e8 00 00 00 00	 call	 ?_Make_iter@?$vector@UBMQuestRandOpt_DATA@@V?$allocator@UBMQuestRandOpt_DATA@@@std@@@std@@QBE?AV?$_Vector_iterator@V?$_Vector_val@UBMQuestRandOpt_DATA@@V?$allocator@UBMQuestRandOpt_DATA@@@std@@@std@@@2@V?$_Vector_const_iterator@V?$_Vector_val@UBMQuestRandOpt_DATA@@V?$allocator@UBMQuestRandOpt_DATA@@@std@@@std@@@2@@Z ; std::vector<BMQuestRandOpt_DATA,std::allocator<BMQuestRandOpt_DATA> >::_Make_iter
  0008b	8b 45 08	 mov	 eax, DWORD PTR ___$ReturnUdt$[ebp]

; 1214 : 		}

  0008e	5f		 pop	 edi
  0008f	5e		 pop	 esi
  00090	5b		 pop	 ebx
  00091	8b e5		 mov	 esp, ebp
  00093	5d		 pop	 ebp
  00094	c2 0c 00	 ret	 12			; 0000000cH
?erase@?$vector@UBMQuestRandOpt_DATA@@V?$allocator@UBMQuestRandOpt_DATA@@@std@@@std@@QAE?AV?$_Vector_iterator@V?$_Vector_val@UBMQuestRandOpt_DATA@@V?$allocator@UBMQuestRandOpt_DATA@@@std@@@std@@@2@V?$_Vector_const_iterator@V?$_Vector_val@UBMQuestRandOpt_DATA@@V?$allocator@UBMQuestRandOpt_DATA@@@std@@@std@@@2@0@Z ENDP ; std::vector<BMQuestRandOpt_DATA,std::allocator<BMQuestRandOpt_DATA> >::erase
; Function compile flags: /Odtp /ZI
_TEXT	ENDS
;	COMDAT ?_Inside@?$vector@UBMQuestRandOpt_DATA@@V?$allocator@UBMQuestRandOpt_DATA@@@std@@@std@@IBE_NPBUBMQuestRandOpt_DATA@@@Z
_TEXT	SEGMENT
tv76 = -72						; size = 4
_this$ = -4						; size = 4
__Ptr$ = 8						; size = 4
?_Inside@?$vector@UBMQuestRandOpt_DATA@@V?$allocator@UBMQuestRandOpt_DATA@@@std@@@std@@IBE_NPBUBMQuestRandOpt_DATA@@@Z PROC ; std::vector<BMQuestRandOpt_DATA,std::allocator<BMQuestRandOpt_DATA> >::_Inside, COMDAT
; _this$ = ecx

; 1285 : 		{	// test if _Ptr points inside vector

  00000	55		 push	 ebp
  00001	8b ec		 mov	 ebp, esp
  00003	83 ec 48	 sub	 esp, 72			; 00000048H
  00006	53		 push	 ebx
  00007	56		 push	 esi
  00008	57		 push	 edi
  00009	89 4d fc	 mov	 DWORD PTR _this$[ebp], ecx

; 1286 : 		return (_Ptr < this->_Mylast && this->_Myfirst <= _Ptr);

  0000c	8b 45 fc	 mov	 eax, DWORD PTR _this$[ebp]
  0000f	8b 4d 08	 mov	 ecx, DWORD PTR __Ptr$[ebp]
  00012	3b 48 04	 cmp	 ecx, DWORD PTR [eax+4]
  00015	73 13		 jae	 SHORT $LN3@Inside
  00017	8b 55 fc	 mov	 edx, DWORD PTR _this$[ebp]
  0001a	8b 02		 mov	 eax, DWORD PTR [edx]
  0001c	3b 45 08	 cmp	 eax, DWORD PTR __Ptr$[ebp]
  0001f	77 09		 ja	 SHORT $LN3@Inside
  00021	c7 45 b8 01 00
	00 00		 mov	 DWORD PTR tv76[ebp], 1
  00028	eb 07		 jmp	 SHORT $LN4@Inside
$LN3@Inside:
  0002a	c7 45 b8 00 00
	00 00		 mov	 DWORD PTR tv76[ebp], 0
$LN4@Inside:
  00031	8a 45 b8	 mov	 al, BYTE PTR tv76[ebp]

; 1287 : 		}

  00034	5f		 pop	 edi
  00035	5e		 pop	 esi
  00036	5b		 pop	 ebx
  00037	8b e5		 mov	 esp, ebp
  00039	5d		 pop	 ebp
  0003a	c2 04 00	 ret	 4
?_Inside@?$vector@UBMQuestRandOpt_DATA@@V?$allocator@UBMQuestRandOpt_DATA@@@std@@@std@@IBE_NPBUBMQuestRandOpt_DATA@@@Z ENDP ; std::vector<BMQuestRandOpt_DATA,std::allocator<BMQuestRandOpt_DATA> >::_Inside
_TEXT	ENDS
PUBLIC	?reserve@?$vector@UBMQuestRandOpt_DATA@@V?$allocator@UBMQuestRandOpt_DATA@@@std@@@std@@QAEXI@Z ; std::vector<BMQuestRandOpt_DATA,std::allocator<BMQuestRandOpt_DATA> >::reserve
PUBLIC	?_Grow_to@?$vector@UBMQuestRandOpt_DATA@@V?$allocator@UBMQuestRandOpt_DATA@@@std@@@std@@IBEII@Z ; std::vector<BMQuestRandOpt_DATA,std::allocator<BMQuestRandOpt_DATA> >::_Grow_to
PUBLIC	?capacity@?$vector@UBMQuestRandOpt_DATA@@V?$allocator@UBMQuestRandOpt_DATA@@@std@@@std@@QBEIXZ ; std::vector<BMQuestRandOpt_DATA,std::allocator<BMQuestRandOpt_DATA> >::capacity
PUBLIC	?_Xlen@?$vector@UBMQuestRandOpt_DATA@@V?$allocator@UBMQuestRandOpt_DATA@@@std@@@std@@IBEXXZ ; std::vector<BMQuestRandOpt_DATA,std::allocator<BMQuestRandOpt_DATA> >::_Xlen
PUBLIC	?max_size@?$vector@UBMQuestRandOpt_DATA@@V?$allocator@UBMQuestRandOpt_DATA@@@std@@@std@@QBEIXZ ; std::vector<BMQuestRandOpt_DATA,std::allocator<BMQuestRandOpt_DATA> >::max_size
; Function compile flags: /Odtp /ZI
;	COMDAT ?_Reserve@?$vector@UBMQuestRandOpt_DATA@@V?$allocator@UBMQuestRandOpt_DATA@@@std@@@std@@IAEXI@Z
_TEXT	SEGMENT
__Size$ = -8						; size = 4
_this$ = -4						; size = 4
__Count$ = 8						; size = 4
?_Reserve@?$vector@UBMQuestRandOpt_DATA@@V?$allocator@UBMQuestRandOpt_DATA@@@std@@@std@@IAEXI@Z PROC ; std::vector<BMQuestRandOpt_DATA,std::allocator<BMQuestRandOpt_DATA> >::_Reserve, COMDAT
; _this$ = ecx

; 1290 : 		{	// ensure room for _Count new elements, grow exponentially

  00000	55		 push	 ebp
  00001	8b ec		 mov	 ebp, esp
  00003	83 ec 48	 sub	 esp, 72			; 00000048H
  00006	53		 push	 ebx
  00007	56		 push	 esi
  00008	57		 push	 edi
  00009	89 4d fc	 mov	 DWORD PTR _this$[ebp], ecx

; 1291 : 		size_type _Size = size();

  0000c	8b 4d fc	 mov	 ecx, DWORD PTR _this$[ebp]
  0000f	e8 00 00 00 00	 call	 ?size@?$vector@UBMQuestRandOpt_DATA@@V?$allocator@UBMQuestRandOpt_DATA@@@std@@@std@@QBEIXZ ; std::vector<BMQuestRandOpt_DATA,std::allocator<BMQuestRandOpt_DATA> >::size
  00014	89 45 f8	 mov	 DWORD PTR __Size$[ebp], eax

; 1292 : 		if (max_size() - _Count < _Size)

  00017	8b 4d fc	 mov	 ecx, DWORD PTR _this$[ebp]
  0001a	e8 00 00 00 00	 call	 ?max_size@?$vector@UBMQuestRandOpt_DATA@@V?$allocator@UBMQuestRandOpt_DATA@@@std@@@std@@QBEIXZ ; std::vector<BMQuestRandOpt_DATA,std::allocator<BMQuestRandOpt_DATA> >::max_size
  0001f	2b 45 08	 sub	 eax, DWORD PTR __Count$[ebp]
  00022	3b 45 f8	 cmp	 eax, DWORD PTR __Size$[ebp]
  00025	73 0a		 jae	 SHORT $LN4@Reserve

; 1293 : 			_Xlen();

  00027	8b 4d fc	 mov	 ecx, DWORD PTR _this$[ebp]
  0002a	e8 00 00 00 00	 call	 ?_Xlen@?$vector@UBMQuestRandOpt_DATA@@V?$allocator@UBMQuestRandOpt_DATA@@@std@@@std@@IBEXXZ ; std::vector<BMQuestRandOpt_DATA,std::allocator<BMQuestRandOpt_DATA> >::_Xlen
  0002f	eb 2d		 jmp	 SHORT $LN6@Reserve
$LN4@Reserve:

; 1294 : 		else if ((_Size += _Count) <= capacity())

  00031	8b 45 f8	 mov	 eax, DWORD PTR __Size$[ebp]
  00034	03 45 08	 add	 eax, DWORD PTR __Count$[ebp]
  00037	89 45 f8	 mov	 DWORD PTR __Size$[ebp], eax
  0003a	8b 4d fc	 mov	 ecx, DWORD PTR _this$[ebp]
  0003d	e8 00 00 00 00	 call	 ?capacity@?$vector@UBMQuestRandOpt_DATA@@V?$allocator@UBMQuestRandOpt_DATA@@@std@@@std@@QBEIXZ ; std::vector<BMQuestRandOpt_DATA,std::allocator<BMQuestRandOpt_DATA> >::capacity
  00042	39 45 f8	 cmp	 DWORD PTR __Size$[ebp], eax
  00045	77 02		 ja	 SHORT $LN2@Reserve

; 1295 : 			;
; 1296 : 		else

  00047	eb 15		 jmp	 SHORT $LN6@Reserve
$LN2@Reserve:

; 1297 : 			reserve(_Grow_to(_Size));

  00049	8b 45 f8	 mov	 eax, DWORD PTR __Size$[ebp]
  0004c	50		 push	 eax
  0004d	8b 4d fc	 mov	 ecx, DWORD PTR _this$[ebp]
  00050	e8 00 00 00 00	 call	 ?_Grow_to@?$vector@UBMQuestRandOpt_DATA@@V?$allocator@UBMQuestRandOpt_DATA@@@std@@@std@@IBEII@Z ; std::vector<BMQuestRandOpt_DATA,std::allocator<BMQuestRandOpt_DATA> >::_Grow_to
  00055	50		 push	 eax
  00056	8b 4d fc	 mov	 ecx, DWORD PTR _this$[ebp]
  00059	e8 00 00 00 00	 call	 ?reserve@?$vector@UBMQuestRandOpt_DATA@@V?$allocator@UBMQuestRandOpt_DATA@@@std@@@std@@QAEXI@Z ; std::vector<BMQuestRandOpt_DATA,std::allocator<BMQuestRandOpt_DATA> >::reserve
$LN6@Reserve:

; 1298 : 		}

  0005e	5f		 pop	 edi
  0005f	5e		 pop	 esi
  00060	5b		 pop	 ebx
  00061	8b e5		 mov	 esp, ebp
  00063	5d		 pop	 ebp
  00064	c2 04 00	 ret	 4
?_Reserve@?$vector@UBMQuestRandOpt_DATA@@V?$allocator@UBMQuestRandOpt_DATA@@@std@@@std@@IAEXI@Z ENDP ; std::vector<BMQuestRandOpt_DATA,std::allocator<BMQuestRandOpt_DATA> >::_Reserve
; Function compile flags: /Odtp /ZI
_TEXT	ENDS
;	COMDAT ?_Orphan_range@?$vector@UBMQuestRandOpt_DATA@@V?$allocator@UBMQuestRandOpt_DATA@@@std@@@std@@IBEXPAUBMQuestRandOpt_DATA@@0@Z
_TEXT	SEGMENT
_this$ = -4						; size = 4
___formal$ = 8						; size = 4
___formal$ = 12						; size = 4
?_Orphan_range@?$vector@UBMQuestRandOpt_DATA@@V?$allocator@UBMQuestRandOpt_DATA@@@std@@@std@@IBEXPAUBMQuestRandOpt_DATA@@0@Z PROC ; std::vector<BMQuestRandOpt_DATA,std::allocator<BMQuestRandOpt_DATA> >::_Orphan_range, COMDAT
; _this$ = ecx

; 1453 : 		{	// orphan iterators within specified (inclusive) range

  00000	55		 push	 ebp
  00001	8b ec		 mov	 ebp, esp
  00003	83 ec 44	 sub	 esp, 68			; 00000044H
  00006	53		 push	 ebx
  00007	56		 push	 esi
  00008	57		 push	 edi
  00009	89 4d fc	 mov	 DWORD PTR _this$[ebp], ecx

; 1454 : 		}

  0000c	5f		 pop	 edi
  0000d	5e		 pop	 esi
  0000e	5b		 pop	 ebx
  0000f	8b e5		 mov	 esp, ebp
  00011	5d		 pop	 ebp
  00012	c2 08 00	 ret	 8
?_Orphan_range@?$vector@UBMQuestRandOpt_DATA@@V?$allocator@UBMQuestRandOpt_DATA@@@std@@@std@@IBEXPAUBMQuestRandOpt_DATA@@0@Z ENDP ; std::vector<BMQuestRandOpt_DATA,std::allocator<BMQuestRandOpt_DATA> >::_Orphan_range
_TEXT	ENDS
PUBLIC	?_Orphan_all@_Container_base0@std@@QAEXXZ	; std::_Container_base0::_Orphan_all
PUBLIC	?deallocate@?$allocator@UBMQuestRandOpt_DATA@@@std@@QAEXPAUBMQuestRandOpt_DATA@@I@Z ; std::allocator<BMQuestRandOpt_DATA>::deallocate
PUBLIC	??$_Umove@PAUBMQuestRandOpt_DATA@@@?$vector@UBMQuestRandOpt_DATA@@V?$allocator@UBMQuestRandOpt_DATA@@@std@@@std@@IAEPAUBMQuestRandOpt_DATA@@PAU2@00@Z ; std::vector<BMQuestRandOpt_DATA,std::allocator<BMQuestRandOpt_DATA> >::_Umove<BMQuestRandOpt_DATA *>
PUBLIC	?allocate@?$allocator@UBMQuestRandOpt_DATA@@@std@@QAEPAUBMQuestRandOpt_DATA@@I@Z ; std::allocator<BMQuestRandOpt_DATA>::allocate
EXTRN	___CxxFrameHandler3:PROC
EXTRN	__CxxThrowException@8:PROC
;	COMDAT xdata$x
xdata$x	SEGMENT
__catchsym$?reserve@?$vector@UBMQuestRandOpt_DATA@@V?$allocator@UBMQuestRandOpt_DATA@@@std@@@std@@QAEXI@Z$2 DD 040H
	DD	00H
	DD	00H
	DD	FLAT:__catch$?reserve@?$vector@UBMQuestRandOpt_DATA@@V?$allocator@UBMQuestRandOpt_DATA@@@std@@@std@@QAEXI@Z$0
__unwindtable$?reserve@?$vector@UBMQuestRandOpt_DATA@@V?$allocator@UBMQuestRandOpt_DATA@@@std@@@std@@QAEXI@Z DD 0ffffffffH
	DD	00H
	DD	0ffffffffH
	DD	00H
__tryblocktable$?reserve@?$vector@UBMQuestRandOpt_DATA@@V?$allocator@UBMQuestRandOpt_DATA@@@std@@@std@@QAEXI@Z DD 00H
	DD	00H
	DD	01H
	DD	01H
	DD	FLAT:__catchsym$?reserve@?$vector@UBMQuestRandOpt_DATA@@V?$allocator@UBMQuestRandOpt_DATA@@@std@@@std@@QAEXI@Z$2
__ehfuncinfo$?reserve@?$vector@UBMQuestRandOpt_DATA@@V?$allocator@UBMQuestRandOpt_DATA@@@std@@@std@@QAEXI@Z DD 019930522H
	DD	02H
	DD	FLAT:__unwindtable$?reserve@?$vector@UBMQuestRandOpt_DATA@@V?$allocator@UBMQuestRandOpt_DATA@@@std@@@std@@QAEXI@Z
	DD	01H
	DD	FLAT:__tryblocktable$?reserve@?$vector@UBMQuestRandOpt_DATA@@V?$allocator@UBMQuestRandOpt_DATA@@@std@@@std@@QAEXI@Z
	DD	2 DUP(00H)
	DD	00H
	DD	01H
; Function compile flags: /Odtp /ZI
xdata$x	ENDS
;	COMDAT ?reserve@?$vector@UBMQuestRandOpt_DATA@@V?$allocator@UBMQuestRandOpt_DATA@@@std@@@std@@QAEXI@Z
_TEXT	SEGMENT
__Size$220508 = -28					; size = 4
__Ptr$220501 = -24					; size = 4
_this$ = -20						; size = 4
__$EHRec$ = -16						; size = 16
__Count$ = 8						; size = 4
?reserve@?$vector@UBMQuestRandOpt_DATA@@V?$allocator@UBMQuestRandOpt_DATA@@@std@@@std@@QAEXI@Z PROC ; std::vector<BMQuestRandOpt_DATA,std::allocator<BMQuestRandOpt_DATA> >::reserve, COMDAT
; _this$ = ecx

; 746  : 		{	// determine new minimum length of allocated storage

  00000	55		 push	 ebp
  00001	8b ec		 mov	 ebp, esp
  00003	6a ff		 push	 -1
  00005	68 00 00 00 00	 push	 __ehhandler$?reserve@?$vector@UBMQuestRandOpt_DATA@@V?$allocator@UBMQuestRandOpt_DATA@@@std@@@std@@QAEXI@Z
  0000a	64 a1 00 00 00
	00		 mov	 eax, DWORD PTR fs:0
  00010	50		 push	 eax
  00011	51		 push	 ecx
  00012	83 ec 4c	 sub	 esp, 76			; 0000004cH
  00015	53		 push	 ebx
  00016	56		 push	 esi
  00017	57		 push	 edi
  00018	a1 00 00 00 00	 mov	 eax, DWORD PTR ___security_cookie
  0001d	33 c5		 xor	 eax, ebp
  0001f	50		 push	 eax
  00020	8d 45 f4	 lea	 eax, DWORD PTR __$EHRec$[ebp+4]
  00023	64 a3 00 00 00
	00		 mov	 DWORD PTR fs:0, eax
  00029	89 65 f0	 mov	 DWORD PTR __$EHRec$[ebp], esp
  0002c	89 4d ec	 mov	 DWORD PTR _this$[ebp], ecx

; 747  : 		if (max_size() < _Count)

  0002f	8b 4d ec	 mov	 ecx, DWORD PTR _this$[ebp]
  00032	e8 00 00 00 00	 call	 ?max_size@?$vector@UBMQuestRandOpt_DATA@@V?$allocator@UBMQuestRandOpt_DATA@@@std@@@std@@QBEIXZ ; std::vector<BMQuestRandOpt_DATA,std::allocator<BMQuestRandOpt_DATA> >::max_size
  00037	3b 45 08	 cmp	 eax, DWORD PTR __Count$[ebp]
  0003a	73 0d		 jae	 SHORT $LN5@reserve

; 748  : 			_Xlen();	// result too long

  0003c	8b 4d ec	 mov	 ecx, DWORD PTR _this$[ebp]
  0003f	e8 00 00 00 00	 call	 ?_Xlen@?$vector@UBMQuestRandOpt_DATA@@V?$allocator@UBMQuestRandOpt_DATA@@@std@@@std@@IBEXXZ ; std::vector<BMQuestRandOpt_DATA,std::allocator<BMQuestRandOpt_DATA> >::_Xlen
  00044	e9 eb 00 00 00	 jmp	 $LN7@reserve
$LN5@reserve:

; 749  : 		else if (capacity() < _Count)

  00049	8b 4d ec	 mov	 ecx, DWORD PTR _this$[ebp]
  0004c	e8 00 00 00 00	 call	 ?capacity@?$vector@UBMQuestRandOpt_DATA@@V?$allocator@UBMQuestRandOpt_DATA@@@std@@@std@@QBEIXZ ; std::vector<BMQuestRandOpt_DATA,std::allocator<BMQuestRandOpt_DATA> >::capacity
  00051	3b 45 08	 cmp	 eax, DWORD PTR __Count$[ebp]
  00054	0f 83 da 00 00
	00		 jae	 $LN7@reserve

; 750  : 			{	// not enough room, reallocate
; 751  : 			pointer _Ptr = this->_Alval.allocate(_Count);

  0005a	8b 45 08	 mov	 eax, DWORD PTR __Count$[ebp]
  0005d	50		 push	 eax
  0005e	8b 4d ec	 mov	 ecx, DWORD PTR _this$[ebp]
  00061	83 c1 0c	 add	 ecx, 12			; 0000000cH
  00064	e8 00 00 00 00	 call	 ?allocate@?$allocator@UBMQuestRandOpt_DATA@@@std@@QAEPAUBMQuestRandOpt_DATA@@I@Z ; std::allocator<BMQuestRandOpt_DATA>::allocate
  00069	89 45 e8	 mov	 DWORD PTR __Ptr$220501[ebp], eax

; 752  : 
; 753  : 			_TRY_BEGIN

  0006c	c7 45 fc 00 00
	00 00		 mov	 DWORD PTR __$EHRec$[ebp+12], 0

; 754  : 			_Umove(this->_Myfirst, this->_Mylast, _Ptr);

  00073	8b 45 e8	 mov	 eax, DWORD PTR __Ptr$220501[ebp]
  00076	50		 push	 eax
  00077	8b 4d ec	 mov	 ecx, DWORD PTR _this$[ebp]
  0007a	8b 51 04	 mov	 edx, DWORD PTR [ecx+4]
  0007d	52		 push	 edx
  0007e	8b 45 ec	 mov	 eax, DWORD PTR _this$[ebp]
  00081	8b 08		 mov	 ecx, DWORD PTR [eax]
  00083	51		 push	 ecx
  00084	8b 4d ec	 mov	 ecx, DWORD PTR _this$[ebp]
  00087	e8 00 00 00 00	 call	 ??$_Umove@PAUBMQuestRandOpt_DATA@@@?$vector@UBMQuestRandOpt_DATA@@V?$allocator@UBMQuestRandOpt_DATA@@@std@@@std@@IAEPAUBMQuestRandOpt_DATA@@PAU2@00@Z ; std::vector<BMQuestRandOpt_DATA,std::allocator<BMQuestRandOpt_DATA> >::_Umove<BMQuestRandOpt_DATA *>
  0008c	eb 29		 jmp	 SHORT $LN8@reserve
__catch$?reserve@?$vector@UBMQuestRandOpt_DATA@@V?$allocator@UBMQuestRandOpt_DATA@@@std@@@std@@QAEXI@Z$0:

; 755  : 			_CATCH_ALL
; 756  : 			this->_Alval.deallocate(_Ptr, _Count);

  0008e	8b 45 08	 mov	 eax, DWORD PTR __Count$[ebp]
  00091	50		 push	 eax
  00092	8b 4d e8	 mov	 ecx, DWORD PTR __Ptr$220501[ebp]
  00095	51		 push	 ecx
  00096	8b 4d ec	 mov	 ecx, DWORD PTR _this$[ebp]
  00099	83 c1 0c	 add	 ecx, 12			; 0000000cH
  0009c	e8 00 00 00 00	 call	 ?deallocate@?$allocator@UBMQuestRandOpt_DATA@@@std@@QAEXPAUBMQuestRandOpt_DATA@@I@Z ; std::allocator<BMQuestRandOpt_DATA>::deallocate

; 757  : 			_RERAISE;

  000a1	6a 00		 push	 0
  000a3	6a 00		 push	 0
  000a5	e8 00 00 00 00	 call	 __CxxThrowException@8

; 758  : 			_CATCH_END

  000aa	c7 45 fc ff ff
	ff ff		 mov	 DWORD PTR __$EHRec$[ebp+12], -1
  000b1	b8 00 00 00 00	 mov	 eax, __tryend$?reserve@?$vector@UBMQuestRandOpt_DATA@@V?$allocator@UBMQuestRandOpt_DATA@@@std@@@std@@QAEXI@Z$1
  000b6	c3		 ret	 0
$LN8@reserve:
  000b7	c7 45 fc ff ff
	ff ff		 mov	 DWORD PTR __$EHRec$[ebp+12], -1
__tryend$?reserve@?$vector@UBMQuestRandOpt_DATA@@V?$allocator@UBMQuestRandOpt_DATA@@@std@@@std@@QAEXI@Z$1:

; 759  : 
; 760  : 			size_type _Size = size();

  000be	8b 4d ec	 mov	 ecx, DWORD PTR _this$[ebp]
  000c1	e8 00 00 00 00	 call	 ?size@?$vector@UBMQuestRandOpt_DATA@@V?$allocator@UBMQuestRandOpt_DATA@@@std@@@std@@QBEIXZ ; std::vector<BMQuestRandOpt_DATA,std::allocator<BMQuestRandOpt_DATA> >::size
  000c6	89 45 e4	 mov	 DWORD PTR __Size$220508[ebp], eax

; 761  : 			if (this->_Myfirst != 0)

  000c9	8b 45 ec	 mov	 eax, DWORD PTR _this$[ebp]
  000cc	83 38 00	 cmp	 DWORD PTR [eax], 0
  000cf	74 35		 je	 SHORT $LN1@reserve

; 762  : 				{	// destroy and deallocate old array
; 763  : 				_Destroy(this->_Myfirst, this->_Mylast);

  000d1	8b 45 ec	 mov	 eax, DWORD PTR _this$[ebp]
  000d4	8b 48 04	 mov	 ecx, DWORD PTR [eax+4]
  000d7	51		 push	 ecx
  000d8	8b 55 ec	 mov	 edx, DWORD PTR _this$[ebp]
  000db	8b 02		 mov	 eax, DWORD PTR [edx]
  000dd	50		 push	 eax
  000de	8b 4d ec	 mov	 ecx, DWORD PTR _this$[ebp]
  000e1	e8 00 00 00 00	 call	 ?_Destroy@?$vector@UBMQuestRandOpt_DATA@@V?$allocator@UBMQuestRandOpt_DATA@@@std@@@std@@IAEXPAUBMQuestRandOpt_DATA@@0@Z ; std::vector<BMQuestRandOpt_DATA,std::allocator<BMQuestRandOpt_DATA> >::_Destroy

; 764  : 				this->_Alval.deallocate(this->_Myfirst,
; 765  : 					this->_Myend - this->_Myfirst);

  000e6	8b 45 ec	 mov	 eax, DWORD PTR _this$[ebp]
  000e9	8b 4d ec	 mov	 ecx, DWORD PTR _this$[ebp]
  000ec	8b 50 08	 mov	 edx, DWORD PTR [eax+8]
  000ef	2b 11		 sub	 edx, DWORD PTR [ecx]
  000f1	c1 fa 05	 sar	 edx, 5
  000f4	52		 push	 edx
  000f5	8b 45 ec	 mov	 eax, DWORD PTR _this$[ebp]
  000f8	8b 08		 mov	 ecx, DWORD PTR [eax]
  000fa	51		 push	 ecx
  000fb	8b 4d ec	 mov	 ecx, DWORD PTR _this$[ebp]
  000fe	83 c1 0c	 add	 ecx, 12			; 0000000cH
  00101	e8 00 00 00 00	 call	 ?deallocate@?$allocator@UBMQuestRandOpt_DATA@@@std@@QAEXPAUBMQuestRandOpt_DATA@@I@Z ; std::allocator<BMQuestRandOpt_DATA>::deallocate
$LN1@reserve:

; 766  : 				}
; 767  : 
; 768  : 			this->_Orphan_all();

  00106	8b 4d ec	 mov	 ecx, DWORD PTR _this$[ebp]
  00109	e8 00 00 00 00	 call	 ?_Orphan_all@_Container_base0@std@@QAEXXZ ; std::_Container_base0::_Orphan_all

; 769  : 			this->_Myend = _Ptr + _Count;

  0010e	8b 45 08	 mov	 eax, DWORD PTR __Count$[ebp]
  00111	c1 e0 05	 shl	 eax, 5
  00114	03 45 e8	 add	 eax, DWORD PTR __Ptr$220501[ebp]
  00117	8b 4d ec	 mov	 ecx, DWORD PTR _this$[ebp]
  0011a	89 41 08	 mov	 DWORD PTR [ecx+8], eax

; 770  : 			this->_Mylast = _Ptr + _Size;

  0011d	8b 45 e4	 mov	 eax, DWORD PTR __Size$220508[ebp]
  00120	c1 e0 05	 shl	 eax, 5
  00123	03 45 e8	 add	 eax, DWORD PTR __Ptr$220501[ebp]
  00126	8b 4d ec	 mov	 ecx, DWORD PTR _this$[ebp]
  00129	89 41 04	 mov	 DWORD PTR [ecx+4], eax

; 771  : 			this->_Myfirst = _Ptr;

  0012c	8b 45 ec	 mov	 eax, DWORD PTR _this$[ebp]
  0012f	8b 4d e8	 mov	 ecx, DWORD PTR __Ptr$220501[ebp]
  00132	89 08		 mov	 DWORD PTR [eax], ecx
$LN7@reserve:

; 772  : 			}
; 773  : 		}

  00134	8b 4d f4	 mov	 ecx, DWORD PTR __$EHRec$[ebp+4]
  00137	64 89 0d 00 00
	00 00		 mov	 DWORD PTR fs:0, ecx
  0013e	59		 pop	 ecx
  0013f	5f		 pop	 edi
  00140	5e		 pop	 esi
  00141	5b		 pop	 ebx
  00142	8b e5		 mov	 esp, ebp
  00144	5d		 pop	 ebp
  00145	c2 04 00	 ret	 4
_TEXT	ENDS
;	COMDAT text$x
text$x	SEGMENT
__ehhandler$?reserve@?$vector@UBMQuestRandOpt_DATA@@V?$allocator@UBMQuestRandOpt_DATA@@@std@@@std@@QAEXI@Z:
  00000	8b 54 24 08	 mov	 edx, DWORD PTR [esp+8]
  00004	8d 42 0c	 lea	 eax, DWORD PTR [edx+12]
  00007	8b 4a a0	 mov	 ecx, DWORD PTR [edx-96]
  0000a	33 c8		 xor	 ecx, eax
  0000c	e8 00 00 00 00	 call	 @__security_check_cookie@4
  00011	b8 00 00 00 00	 mov	 eax, OFFSET __ehfuncinfo$?reserve@?$vector@UBMQuestRandOpt_DATA@@V?$allocator@UBMQuestRandOpt_DATA@@@std@@@std@@QAEXI@Z
  00016	e9 00 00 00 00	 jmp	 ___CxxFrameHandler3
text$x	ENDS
?reserve@?$vector@UBMQuestRandOpt_DATA@@V?$allocator@UBMQuestRandOpt_DATA@@@std@@@std@@QAEXI@Z ENDP ; std::vector<BMQuestRandOpt_DATA,std::allocator<BMQuestRandOpt_DATA> >::reserve
; Function compile flags: /Odtp /ZI
;	COMDAT ?capacity@?$vector@UBMQuestRandOpt_DATA@@V?$allocator@UBMQuestRandOpt_DATA@@@std@@@std@@QBEIXZ
_TEXT	SEGMENT
_this$ = -4						; size = 4
?capacity@?$vector@UBMQuestRandOpt_DATA@@V?$allocator@UBMQuestRandOpt_DATA@@@std@@@std@@QBEIXZ PROC ; std::vector<BMQuestRandOpt_DATA,std::allocator<BMQuestRandOpt_DATA> >::capacity, COMDAT
; _this$ = ecx

; 776  : 		{	// return current length of allocated storage

  00000	55		 push	 ebp
  00001	8b ec		 mov	 ebp, esp
  00003	83 ec 44	 sub	 esp, 68			; 00000044H
  00006	53		 push	 ebx
  00007	56		 push	 esi
  00008	57		 push	 edi
  00009	89 4d fc	 mov	 DWORD PTR _this$[ebp], ecx

; 777  : 		return (this->_Myend - this->_Myfirst);

  0000c	8b 45 fc	 mov	 eax, DWORD PTR _this$[ebp]
  0000f	8b 4d fc	 mov	 ecx, DWORD PTR _this$[ebp]
  00012	8b 40 08	 mov	 eax, DWORD PTR [eax+8]
  00015	2b 01		 sub	 eax, DWORD PTR [ecx]
  00017	c1 f8 05	 sar	 eax, 5

; 778  : 		}

  0001a	5f		 pop	 edi
  0001b	5e		 pop	 esi
  0001c	5b		 pop	 ebx
  0001d	8b e5		 mov	 esp, ebp
  0001f	5d		 pop	 ebp
  00020	c3		 ret	 0
?capacity@?$vector@UBMQuestRandOpt_DATA@@V?$allocator@UBMQuestRandOpt_DATA@@@std@@@std@@QBEIXZ ENDP ; std::vector<BMQuestRandOpt_DATA,std::allocator<BMQuestRandOpt_DATA> >::capacity
; Function compile flags: /Odtp /ZI
_TEXT	ENDS
;	COMDAT ?_Make_iter@?$vector@UBMQuestRandOpt_DATA@@V?$allocator@UBMQuestRandOpt_DATA@@@std@@@std@@QBE?AV?$_Vector_iterator@V?$_Vector_val@UBMQuestRandOpt_DATA@@V?$allocator@UBMQuestRandOpt_DATA@@@std@@@std@@@2@V?$_Vector_const_iterator@V?$_Vector_val@UBMQuestRandOpt_DATA@@V?$allocator@UBMQuestRandOpt_DATA@@@std@@@std@@@2@@Z
_TEXT	SEGMENT
_this$ = -4						; size = 4
___$ReturnUdt$ = 8					; size = 4
__Where$ = 12						; size = 4
?_Make_iter@?$vector@UBMQuestRandOpt_DATA@@V?$allocator@UBMQuestRandOpt_DATA@@@std@@@std@@QBE?AV?$_Vector_iterator@V?$_Vector_val@UBMQuestRandOpt_DATA@@V?$allocator@UBMQuestRandOpt_DATA@@@std@@@std@@@2@V?$_Vector_const_iterator@V?$_Vector_val@UBMQuestRandOpt_DATA@@V?$allocator@UBMQuestRandOpt_DATA@@@std@@@std@@@2@@Z PROC ; std::vector<BMQuestRandOpt_DATA,std::allocator<BMQuestRandOpt_DATA> >::_Make_iter, COMDAT
; _this$ = ecx

; 801  : 		{	// make iterator from const_iterator

  00000	55		 push	 ebp
  00001	8b ec		 mov	 ebp, esp
  00003	83 ec 44	 sub	 esp, 68			; 00000044H
  00006	53		 push	 ebx
  00007	56		 push	 esi
  00008	57		 push	 edi
  00009	89 4d fc	 mov	 DWORD PTR _this$[ebp], ecx

; 802  : 		return (iterator(_Where._Ptr, this));

  0000c	8b 45 fc	 mov	 eax, DWORD PTR _this$[ebp]
  0000f	50		 push	 eax
  00010	8b 4d 0c	 mov	 ecx, DWORD PTR __Where$[ebp]
  00013	51		 push	 ecx
  00014	8b 4d 08	 mov	 ecx, DWORD PTR ___$ReturnUdt$[ebp]
  00017	e8 00 00 00 00	 call	 ??0?$_Vector_iterator@V?$_Vector_val@UBMQuestRandOpt_DATA@@V?$allocator@UBMQuestRandOpt_DATA@@@std@@@std@@@std@@QAE@PAUBMQuestRandOpt_DATA@@PBU_Container_base0@1@@Z ; std::_Vector_iterator<std::_Vector_val<BMQuestRandOpt_DATA,std::allocator<BMQuestRandOpt_DATA> > >::_Vector_iterator<std::_Vector_val<BMQuestRandOpt_DATA,std::allocator<BMQuestRandOpt_DATA> > >
  0001c	8b 45 08	 mov	 eax, DWORD PTR ___$ReturnUdt$[ebp]

; 803  : 		}

  0001f	5f		 pop	 edi
  00020	5e		 pop	 esi
  00021	5b		 pop	 ebx
  00022	8b e5		 mov	 esp, ebp
  00024	5d		 pop	 ebp
  00025	c2 08 00	 ret	 8
?_Make_iter@?$vector@UBMQuestRandOpt_DATA@@V?$allocator@UBMQuestRandOpt_DATA@@@std@@@std@@QBE?AV?$_Vector_iterator@V?$_Vector_val@UBMQuestRandOpt_DATA@@V?$allocator@UBMQuestRandOpt_DATA@@@std@@@std@@@2@V?$_Vector_const_iterator@V?$_Vector_val@UBMQuestRandOpt_DATA@@V?$allocator@UBMQuestRandOpt_DATA@@@std@@@std@@@2@@Z ENDP ; std::vector<BMQuestRandOpt_DATA,std::allocator<BMQuestRandOpt_DATA> >::_Make_iter
_TEXT	ENDS
PUBLIC	?max_size@?$allocator@UBMQuestRandOpt_DATA@@@std@@QBEIXZ ; std::allocator<BMQuestRandOpt_DATA>::max_size
; Function compile flags: /Odtp /ZI
;	COMDAT ?max_size@?$vector@UBMQuestRandOpt_DATA@@V?$allocator@UBMQuestRandOpt_DATA@@@std@@@std@@QBEIXZ
_TEXT	SEGMENT
_this$ = -4						; size = 4
?max_size@?$vector@UBMQuestRandOpt_DATA@@V?$allocator@UBMQuestRandOpt_DATA@@@std@@@std@@QBEIXZ PROC ; std::vector<BMQuestRandOpt_DATA,std::allocator<BMQuestRandOpt_DATA> >::max_size, COMDAT
; _this$ = ecx

; 883  : 		{	// return maximum possible length of sequence

  00000	55		 push	 ebp
  00001	8b ec		 mov	 ebp, esp
  00003	83 ec 44	 sub	 esp, 68			; 00000044H
  00006	53		 push	 ebx
  00007	56		 push	 esi
  00008	57		 push	 edi
  00009	89 4d fc	 mov	 DWORD PTR _this$[ebp], ecx

; 884  : 		return (this->_Alval.max_size());

  0000c	8b 4d fc	 mov	 ecx, DWORD PTR _this$[ebp]
  0000f	83 c1 0c	 add	 ecx, 12			; 0000000cH
  00012	e8 00 00 00 00	 call	 ?max_size@?$allocator@UBMQuestRandOpt_DATA@@@std@@QBEIXZ ; std::allocator<BMQuestRandOpt_DATA>::max_size

; 885  : 		}

  00017	5f		 pop	 edi
  00018	5e		 pop	 esi
  00019	5b		 pop	 ebx
  0001a	8b e5		 mov	 esp, ebp
  0001c	5d		 pop	 ebp
  0001d	c3		 ret	 0
?max_size@?$vector@UBMQuestRandOpt_DATA@@V?$allocator@UBMQuestRandOpt_DATA@@@std@@@std@@QBEIXZ ENDP ; std::vector<BMQuestRandOpt_DATA,std::allocator<BMQuestRandOpt_DATA> >::max_size
_TEXT	ENDS
PUBLIC	??$_Destroy_range@V?$allocator@UBMQuestRandOpt_DATA@@@std@@@std@@YAXPAUBMQuestRandOpt_DATA@@0AAV?$allocator@UBMQuestRandOpt_DATA@@@0@@Z ; std::_Destroy_range<std::allocator<BMQuestRandOpt_DATA> >
; Function compile flags: /Odtp /ZI
;	COMDAT ?_Destroy@?$vector@UBMQuestRandOpt_DATA@@V?$allocator@UBMQuestRandOpt_DATA@@@std@@@std@@IAEXPAUBMQuestRandOpt_DATA@@0@Z
_TEXT	SEGMENT
_this$ = -4						; size = 4
__First$ = 8						; size = 4
__Last$ = 12						; size = 4
?_Destroy@?$vector@UBMQuestRandOpt_DATA@@V?$allocator@UBMQuestRandOpt_DATA@@@std@@@std@@IAEXPAUBMQuestRandOpt_DATA@@0@Z PROC ; std::vector<BMQuestRandOpt_DATA,std::allocator<BMQuestRandOpt_DATA> >::_Destroy, COMDAT
; _this$ = ecx

; 1269 : 		{	// destroy [_First, _Last) using allocator

  00000	55		 push	 ebp
  00001	8b ec		 mov	 ebp, esp
  00003	83 ec 44	 sub	 esp, 68			; 00000044H
  00006	53		 push	 ebx
  00007	56		 push	 esi
  00008	57		 push	 edi
  00009	89 4d fc	 mov	 DWORD PTR _this$[ebp], ecx

; 1270 : 		_Destroy_range(_First, _Last, this->_Alval);

  0000c	8b 45 fc	 mov	 eax, DWORD PTR _this$[ebp]
  0000f	83 c0 0c	 add	 eax, 12			; 0000000cH
  00012	50		 push	 eax
  00013	8b 4d 0c	 mov	 ecx, DWORD PTR __Last$[ebp]
  00016	51		 push	 ecx
  00017	8b 55 08	 mov	 edx, DWORD PTR __First$[ebp]
  0001a	52		 push	 edx
  0001b	e8 00 00 00 00	 call	 ??$_Destroy_range@V?$allocator@UBMQuestRandOpt_DATA@@@std@@@std@@YAXPAUBMQuestRandOpt_DATA@@0AAV?$allocator@UBMQuestRandOpt_DATA@@@0@@Z ; std::_Destroy_range<std::allocator<BMQuestRandOpt_DATA> >
  00020	83 c4 0c	 add	 esp, 12			; 0000000cH

; 1271 : 		}

  00023	5f		 pop	 edi
  00024	5e		 pop	 esi
  00025	5b		 pop	 ebx
  00026	8b e5		 mov	 esp, ebp
  00028	5d		 pop	 ebp
  00029	c2 08 00	 ret	 8
?_Destroy@?$vector@UBMQuestRandOpt_DATA@@V?$allocator@UBMQuestRandOpt_DATA@@@std@@@std@@IAEXPAUBMQuestRandOpt_DATA@@0@Z ENDP ; std::vector<BMQuestRandOpt_DATA,std::allocator<BMQuestRandOpt_DATA> >::_Destroy
; Function compile flags: /Odtp /ZI
_TEXT	ENDS
;	COMDAT ?_Grow_to@?$vector@UBMQuestRandOpt_DATA@@V?$allocator@UBMQuestRandOpt_DATA@@@std@@@std@@IBEII@Z
_TEXT	SEGMENT
tv73 = -76						; size = 4
__Capacity$ = -8					; size = 4
_this$ = -4						; size = 4
__Count$ = 8						; size = 4
?_Grow_to@?$vector@UBMQuestRandOpt_DATA@@V?$allocator@UBMQuestRandOpt_DATA@@@std@@@std@@IBEII@Z PROC ; std::vector<BMQuestRandOpt_DATA,std::allocator<BMQuestRandOpt_DATA> >::_Grow_to, COMDAT
; _this$ = ecx

; 1274 : 		{	// grow by 50% or at least to _Count

  00000	55		 push	 ebp
  00001	8b ec		 mov	 ebp, esp
  00003	83 ec 4c	 sub	 esp, 76			; 0000004cH
  00006	53		 push	 ebx
  00007	56		 push	 esi
  00008	57		 push	 edi
  00009	89 4d fc	 mov	 DWORD PTR _this$[ebp], ecx

; 1275 : 		size_type _Capacity = capacity();

  0000c	8b 4d fc	 mov	 ecx, DWORD PTR _this$[ebp]
  0000f	e8 00 00 00 00	 call	 ?capacity@?$vector@UBMQuestRandOpt_DATA@@V?$allocator@UBMQuestRandOpt_DATA@@@std@@@std@@QBEIXZ ; std::vector<BMQuestRandOpt_DATA,std::allocator<BMQuestRandOpt_DATA> >::capacity
  00014	89 45 f8	 mov	 DWORD PTR __Capacity$[ebp], eax

; 1276 : 
; 1277 : 		_Capacity = max_size() - _Capacity / 2 < _Capacity
; 1278 : 			? 0 : _Capacity + _Capacity / 2;	// try to grow by 50%

  00017	8b 4d fc	 mov	 ecx, DWORD PTR _this$[ebp]
  0001a	e8 00 00 00 00	 call	 ?max_size@?$vector@UBMQuestRandOpt_DATA@@V?$allocator@UBMQuestRandOpt_DATA@@@std@@@std@@QBEIXZ ; std::vector<BMQuestRandOpt_DATA,std::allocator<BMQuestRandOpt_DATA> >::max_size
  0001f	8b 4d f8	 mov	 ecx, DWORD PTR __Capacity$[ebp]
  00022	d1 e9		 shr	 ecx, 1
  00024	2b c1		 sub	 eax, ecx
  00026	3b 45 f8	 cmp	 eax, DWORD PTR __Capacity$[ebp]
  00029	73 09		 jae	 SHORT $LN4@Grow_to
  0002b	c7 45 b4 00 00
	00 00		 mov	 DWORD PTR tv73[ebp], 0
  00032	eb 0b		 jmp	 SHORT $LN5@Grow_to
$LN4@Grow_to:
  00034	8b 55 f8	 mov	 edx, DWORD PTR __Capacity$[ebp]
  00037	d1 ea		 shr	 edx, 1
  00039	03 55 f8	 add	 edx, DWORD PTR __Capacity$[ebp]
  0003c	89 55 b4	 mov	 DWORD PTR tv73[ebp], edx
$LN5@Grow_to:
  0003f	8b 45 b4	 mov	 eax, DWORD PTR tv73[ebp]
  00042	89 45 f8	 mov	 DWORD PTR __Capacity$[ebp], eax

; 1279 : 		if (_Capacity < _Count)

  00045	8b 45 f8	 mov	 eax, DWORD PTR __Capacity$[ebp]
  00048	3b 45 08	 cmp	 eax, DWORD PTR __Count$[ebp]
  0004b	73 06		 jae	 SHORT $LN1@Grow_to

; 1280 : 			_Capacity = _Count;

  0004d	8b 45 08	 mov	 eax, DWORD PTR __Count$[ebp]
  00050	89 45 f8	 mov	 DWORD PTR __Capacity$[ebp], eax
$LN1@Grow_to:

; 1281 : 		return (_Capacity);

  00053	8b 45 f8	 mov	 eax, DWORD PTR __Capacity$[ebp]

; 1282 : 		}

  00056	5f		 pop	 edi
  00057	5e		 pop	 esi
  00058	5b		 pop	 ebx
  00059	8b e5		 mov	 esp, ebp
  0005b	5d		 pop	 ebp
  0005c	c2 04 00	 ret	 4
?_Grow_to@?$vector@UBMQuestRandOpt_DATA@@V?$allocator@UBMQuestRandOpt_DATA@@@std@@@std@@IBEII@Z ENDP ; std::vector<BMQuestRandOpt_DATA,std::allocator<BMQuestRandOpt_DATA> >::_Grow_to
_TEXT	ENDS
PUBLIC	??_C@_0BD@OLBABOEK@vector?$DMT?$DO?5too?5long?$AA@ ; `string'
EXTRN	?_Xlength_error@std@@YAXPBD@Z:PROC		; std::_Xlength_error
;	COMDAT ??_C@_0BD@OLBABOEK@vector?$DMT?$DO?5too?5long?$AA@
CONST	SEGMENT
??_C@_0BD@OLBABOEK@vector?$DMT?$DO?5too?5long?$AA@ DB 'vector<T> too long'
	DB	00H						; `string'
; Function compile flags: /Odtp /ZI
CONST	ENDS
;	COMDAT ?_Xlen@?$vector@UBMQuestRandOpt_DATA@@V?$allocator@UBMQuestRandOpt_DATA@@@std@@@std@@IBEXXZ
_TEXT	SEGMENT
_this$ = -4						; size = 4
?_Xlen@?$vector@UBMQuestRandOpt_DATA@@V?$allocator@UBMQuestRandOpt_DATA@@@std@@@std@@IBEXXZ PROC ; std::vector<BMQuestRandOpt_DATA,std::allocator<BMQuestRandOpt_DATA> >::_Xlen, COMDAT
; _this$ = ecx

; 1426 : 		{	// report a length_error

  00000	55		 push	 ebp
  00001	8b ec		 mov	 ebp, esp
  00003	83 ec 44	 sub	 esp, 68			; 00000044H
  00006	53		 push	 ebx
  00007	56		 push	 esi
  00008	57		 push	 edi
  00009	89 4d fc	 mov	 DWORD PTR _this$[ebp], ecx

; 1427 : 		_Xlength_error("vector<T> too long");

  0000c	68 00 00 00 00	 push	 OFFSET ??_C@_0BD@OLBABOEK@vector?$DMT?$DO?5too?5long?$AA@
  00011	e8 00 00 00 00	 call	 ?_Xlength_error@std@@YAXPBD@Z ; std::_Xlength_error
$LN2@Xlen:

; 1428 : 		}

  00016	5f		 pop	 edi
  00017	5e		 pop	 esi
  00018	5b		 pop	 ebx
  00019	8b e5		 mov	 esp, ebp
  0001b	5d		 pop	 ebp
  0001c	c3		 ret	 0
?_Xlen@?$vector@UBMQuestRandOpt_DATA@@V?$allocator@UBMQuestRandOpt_DATA@@@std@@@std@@IBEXXZ ENDP ; std::vector<BMQuestRandOpt_DATA,std::allocator<BMQuestRandOpt_DATA> >::_Xlen
_TEXT	ENDS
EXTRN	??3@YAXPAX@Z:PROC				; operator delete
; Function compile flags: /Odtp /ZI
; File d:\microsoft visual studio 10.0\vc\include\xmemory
;	COMDAT ?deallocate@?$allocator@UBMQuestRandOpt_DATA@@@std@@QAEXPAUBMQuestRandOpt_DATA@@I@Z
_TEXT	SEGMENT
_this$ = -4						; size = 4
__Ptr$ = 8						; size = 4
___formal$ = 12						; size = 4
?deallocate@?$allocator@UBMQuestRandOpt_DATA@@@std@@QAEXPAUBMQuestRandOpt_DATA@@I@Z PROC ; std::allocator<BMQuestRandOpt_DATA>::deallocate, COMDAT
; _this$ = ecx

; 181  : 		{	// deallocate object at _Ptr, ignore size

  00000	55		 push	 ebp
  00001	8b ec		 mov	 ebp, esp
  00003	83 ec 44	 sub	 esp, 68			; 00000044H
  00006	53		 push	 ebx
  00007	56		 push	 esi
  00008	57		 push	 edi
  00009	89 4d fc	 mov	 DWORD PTR _this$[ebp], ecx

; 182  : 		::operator delete(_Ptr);

  0000c	8b 45 08	 mov	 eax, DWORD PTR __Ptr$[ebp]
  0000f	50		 push	 eax
  00010	e8 00 00 00 00	 call	 ??3@YAXPAX@Z		; operator delete
  00015	83 c4 04	 add	 esp, 4

; 183  : 		}

  00018	5f		 pop	 edi
  00019	5e		 pop	 esi
  0001a	5b		 pop	 ebx
  0001b	8b e5		 mov	 esp, ebp
  0001d	5d		 pop	 ebp
  0001e	c2 08 00	 ret	 8
?deallocate@?$allocator@UBMQuestRandOpt_DATA@@@std@@QAEXPAUBMQuestRandOpt_DATA@@I@Z ENDP ; std::allocator<BMQuestRandOpt_DATA>::deallocate
_TEXT	ENDS
PUBLIC	??0?$_Vector_const_iterator@V?$_Vector_val@UBMQuestRandOpt_DATA@@V?$allocator@UBMQuestRandOpt_DATA@@@std@@@std@@@std@@QAE@PAUBMQuestRandOpt_DATA@@PBU_Container_base0@1@@Z ; std::_Vector_const_iterator<std::_Vector_val<BMQuestRandOpt_DATA,std::allocator<BMQuestRandOpt_DATA> > >::_Vector_const_iterator<std::_Vector_val<BMQuestRandOpt_DATA,std::allocator<BMQuestRandOpt_DATA> > >
; Function compile flags: /Odtp /ZI
; File d:\microsoft visual studio 10.0\vc\include\vector
;	COMDAT ??0?$_Vector_iterator@V?$_Vector_val@UBMQuestRandOpt_DATA@@V?$allocator@UBMQuestRandOpt_DATA@@@std@@@std@@@std@@QAE@PAUBMQuestRandOpt_DATA@@PBU_Container_base0@1@@Z
_TEXT	SEGMENT
_this$ = -4						; size = 4
__Parg$ = 8						; size = 4
__Pvector$ = 12						; size = 4
??0?$_Vector_iterator@V?$_Vector_val@UBMQuestRandOpt_DATA@@V?$allocator@UBMQuestRandOpt_DATA@@@std@@@std@@@std@@QAE@PAUBMQuestRandOpt_DATA@@PBU_Container_base0@1@@Z PROC ; std::_Vector_iterator<std::_Vector_val<BMQuestRandOpt_DATA,std::allocator<BMQuestRandOpt_DATA> > >::_Vector_iterator<std::_Vector_val<BMQuestRandOpt_DATA,std::allocator<BMQuestRandOpt_DATA> > >, COMDAT
; _this$ = ecx

; 304  : 		{	// construct with pointer _Parg

  00000	55		 push	 ebp
  00001	8b ec		 mov	 ebp, esp
  00003	83 ec 44	 sub	 esp, 68			; 00000044H
  00006	53		 push	 ebx
  00007	56		 push	 esi
  00008	57		 push	 edi
  00009	89 4d fc	 mov	 DWORD PTR _this$[ebp], ecx
  0000c	8b 45 0c	 mov	 eax, DWORD PTR __Pvector$[ebp]
  0000f	50		 push	 eax
  00010	8b 4d 08	 mov	 ecx, DWORD PTR __Parg$[ebp]
  00013	51		 push	 ecx
  00014	8b 4d fc	 mov	 ecx, DWORD PTR _this$[ebp]
  00017	e8 00 00 00 00	 call	 ??0?$_Vector_const_iterator@V?$_Vector_val@UBMQuestRandOpt_DATA@@V?$allocator@UBMQuestRandOpt_DATA@@@std@@@std@@@std@@QAE@PAUBMQuestRandOpt_DATA@@PBU_Container_base0@1@@Z ; std::_Vector_const_iterator<std::_Vector_val<BMQuestRandOpt_DATA,std::allocator<BMQuestRandOpt_DATA> > >::_Vector_const_iterator<std::_Vector_val<BMQuestRandOpt_DATA,std::allocator<BMQuestRandOpt_DATA> > >

; 305  : 		}

  0001c	8b 45 fc	 mov	 eax, DWORD PTR _this$[ebp]
  0001f	5f		 pop	 edi
  00020	5e		 pop	 esi
  00021	5b		 pop	 ebx
  00022	8b e5		 mov	 esp, ebp
  00024	5d		 pop	 ebp
  00025	c2 08 00	 ret	 8
??0?$_Vector_iterator@V?$_Vector_val@UBMQuestRandOpt_DATA@@V?$allocator@UBMQuestRandOpt_DATA@@@std@@@std@@@std@@QAE@PAUBMQuestRandOpt_DATA@@PBU_Container_base0@1@@Z ENDP ; std::_Vector_iterator<std::_Vector_val<BMQuestRandOpt_DATA,std::allocator<BMQuestRandOpt_DATA> > >::_Vector_iterator<std::_Vector_val<BMQuestRandOpt_DATA,std::allocator<BMQuestRandOpt_DATA> > >
_TEXT	ENDS
PUBLIC	??8?$_Vector_const_iterator@V?$_Vector_val@UBMQuestRandOpt_DATA@@V?$allocator@UBMQuestRandOpt_DATA@@@std@@@std@@@std@@QBE_NABV01@@Z ; std::_Vector_const_iterator<std::_Vector_val<BMQuestRandOpt_DATA,std::allocator<BMQuestRandOpt_DATA> > >::operator==
; Function compile flags: /Odtp /ZI
;	COMDAT ??9?$_Vector_const_iterator@V?$_Vector_val@UBMQuestRandOpt_DATA@@V?$allocator@UBMQuestRandOpt_DATA@@@std@@@std@@@std@@QBE_NABV01@@Z
_TEXT	SEGMENT
_this$ = -4						; size = 4
__Right$ = 8						; size = 4
??9?$_Vector_const_iterator@V?$_Vector_val@UBMQuestRandOpt_DATA@@V?$allocator@UBMQuestRandOpt_DATA@@@std@@@std@@@std@@QBE_NABV01@@Z PROC ; std::_Vector_const_iterator<std::_Vector_val<BMQuestRandOpt_DATA,std::allocator<BMQuestRandOpt_DATA> > >::operator!=, COMDAT
; _this$ = ecx

; 207  : 		{	// test for iterator inequality

  00000	55		 push	 ebp
  00001	8b ec		 mov	 ebp, esp
  00003	83 ec 44	 sub	 esp, 68			; 00000044H
  00006	53		 push	 ebx
  00007	56		 push	 esi
  00008	57		 push	 edi
  00009	89 4d fc	 mov	 DWORD PTR _this$[ebp], ecx

; 208  : 		return (!(*this == _Right));

  0000c	8b 45 08	 mov	 eax, DWORD PTR __Right$[ebp]
  0000f	50		 push	 eax
  00010	8b 4d fc	 mov	 ecx, DWORD PTR _this$[ebp]
  00013	e8 00 00 00 00	 call	 ??8?$_Vector_const_iterator@V?$_Vector_val@UBMQuestRandOpt_DATA@@V?$allocator@UBMQuestRandOpt_DATA@@@std@@@std@@@std@@QBE_NABV01@@Z ; std::_Vector_const_iterator<std::_Vector_val<BMQuestRandOpt_DATA,std::allocator<BMQuestRandOpt_DATA> > >::operator==
  00018	0f b6 c0	 movzx	 eax, al
  0001b	f7 d8		 neg	 eax
  0001d	1b c0		 sbb	 eax, eax
  0001f	83 c0 01	 add	 eax, 1

; 209  : 		}

  00022	5f		 pop	 edi
  00023	5e		 pop	 esi
  00024	5b		 pop	 ebx
  00025	8b e5		 mov	 esp, ebp
  00027	5d		 pop	 ebp
  00028	c2 04 00	 ret	 4
??9?$_Vector_const_iterator@V?$_Vector_val@UBMQuestRandOpt_DATA@@V?$allocator@UBMQuestRandOpt_DATA@@@std@@@std@@@std@@QBE_NABV01@@Z ENDP ; std::_Vector_const_iterator<std::_Vector_val<BMQuestRandOpt_DATA,std::allocator<BMQuestRandOpt_DATA> > >::operator!=
_TEXT	ENDS
PUBLIC	??$_Allocate@UBMQuestRandOpt_DATA@@@std@@YAPAUBMQuestRandOpt_DATA@@IPAU1@@Z ; std::_Allocate<BMQuestRandOpt_DATA>
; Function compile flags: /Odtp /ZI
; File d:\microsoft visual studio 10.0\vc\include\xmemory
;	COMDAT ?allocate@?$allocator@UBMQuestRandOpt_DATA@@@std@@QAEPAUBMQuestRandOpt_DATA@@I@Z
_TEXT	SEGMENT
_this$ = -4						; size = 4
__Count$ = 8						; size = 4
?allocate@?$allocator@UBMQuestRandOpt_DATA@@@std@@QAEPAUBMQuestRandOpt_DATA@@I@Z PROC ; std::allocator<BMQuestRandOpt_DATA>::allocate, COMDAT
; _this$ = ecx

; 186  : 		{	// allocate array of _Count elements

  00000	55		 push	 ebp
  00001	8b ec		 mov	 ebp, esp
  00003	83 ec 44	 sub	 esp, 68			; 00000044H
  00006	53		 push	 ebx
  00007	56		 push	 esi
  00008	57		 push	 edi
  00009	89 4d fc	 mov	 DWORD PTR _this$[ebp], ecx

; 187  : 		return (_Allocate(_Count, (pointer)0));

  0000c	6a 00		 push	 0
  0000e	8b 45 08	 mov	 eax, DWORD PTR __Count$[ebp]
  00011	50		 push	 eax
  00012	e8 00 00 00 00	 call	 ??$_Allocate@UBMQuestRandOpt_DATA@@@std@@YAPAUBMQuestRandOpt_DATA@@IPAU1@@Z ; std::_Allocate<BMQuestRandOpt_DATA>
  00017	83 c4 08	 add	 esp, 8

; 188  : 		}

  0001a	5f		 pop	 edi
  0001b	5e		 pop	 esi
  0001c	5b		 pop	 ebx
  0001d	8b e5		 mov	 esp, ebp
  0001f	5d		 pop	 ebp
  00020	c2 04 00	 ret	 4
?allocate@?$allocator@UBMQuestRandOpt_DATA@@@std@@QAEPAUBMQuestRandOpt_DATA@@I@Z ENDP ; std::allocator<BMQuestRandOpt_DATA>::allocate
; Function compile flags: /Odtp /ZI
_TEXT	ENDS
;	COMDAT ?max_size@?$allocator@UBMQuestRandOpt_DATA@@@std@@QBEIXZ
_TEXT	SEGMENT
tv65 = -76						; size = 4
__Count$ = -8						; size = 4
_this$ = -4						; size = 4
?max_size@?$allocator@UBMQuestRandOpt_DATA@@@std@@QBEIXZ PROC ; std::allocator<BMQuestRandOpt_DATA>::max_size, COMDAT
; _this$ = ecx

; 217  : 		{	// estimate maximum array size

  00000	55		 push	 ebp
  00001	8b ec		 mov	 ebp, esp
  00003	83 ec 4c	 sub	 esp, 76			; 0000004cH
  00006	53		 push	 ebx
  00007	56		 push	 esi
  00008	57		 push	 edi
  00009	89 4d fc	 mov	 DWORD PTR _this$[ebp], ecx

; 218  : 		_SIZT _Count = (_SIZT)(-1) / sizeof (_Ty);

  0000c	c7 45 f8 ff ff
	ff 07		 mov	 DWORD PTR __Count$[ebp], 134217727 ; 07ffffffH

; 219  : 		return (0 < _Count ? _Count : 1);

  00013	83 7d f8 00	 cmp	 DWORD PTR __Count$[ebp], 0
  00017	76 08		 jbe	 SHORT $LN3@max_size
  00019	8b 45 f8	 mov	 eax, DWORD PTR __Count$[ebp]
  0001c	89 45 b4	 mov	 DWORD PTR tv65[ebp], eax
  0001f	eb 07		 jmp	 SHORT $LN4@max_size
$LN3@max_size:
  00021	c7 45 b4 01 00
	00 00		 mov	 DWORD PTR tv65[ebp], 1
$LN4@max_size:
  00028	8b 45 b4	 mov	 eax, DWORD PTR tv65[ebp]

; 220  : 		}

  0002b	5f		 pop	 edi
  0002c	5e		 pop	 esi
  0002d	5b		 pop	 ebx
  0002e	8b e5		 mov	 esp, ebp
  00030	5d		 pop	 ebp
  00031	c3		 ret	 0
?max_size@?$allocator@UBMQuestRandOpt_DATA@@@std@@QBEIXZ ENDP ; std::allocator<BMQuestRandOpt_DATA>::max_size
_TEXT	ENDS
PUBLIC	?_Adopt@_Iterator_base0@std@@QAEXPBX@Z		; std::_Iterator_base0::_Adopt
; Function compile flags: /Odtp /ZI
; File d:\microsoft visual studio 10.0\vc\include\vector
;	COMDAT ??0?$_Vector_const_iterator@V?$_Vector_val@UBMQuestRandOpt_DATA@@V?$allocator@UBMQuestRandOpt_DATA@@@std@@@std@@@std@@QAE@PAUBMQuestRandOpt_DATA@@PBU_Container_base0@1@@Z
_TEXT	SEGMENT
_this$ = -4						; size = 4
__Parg$ = 8						; size = 4
__Pvector$ = 12						; size = 4
??0?$_Vector_const_iterator@V?$_Vector_val@UBMQuestRandOpt_DATA@@V?$allocator@UBMQuestRandOpt_DATA@@@std@@@std@@@std@@QAE@PAUBMQuestRandOpt_DATA@@PBU_Container_base0@1@@Z PROC ; std::_Vector_const_iterator<std::_Vector_val<BMQuestRandOpt_DATA,std::allocator<BMQuestRandOpt_DATA> > >::_Vector_const_iterator<std::_Vector_val<BMQuestRandOpt_DATA,std::allocator<BMQuestRandOpt_DATA> > >, COMDAT
; _this$ = ecx

; 45   : 		{	// construct with pointer _Parg

  00000	55		 push	 ebp
  00001	8b ec		 mov	 ebp, esp
  00003	83 ec 44	 sub	 esp, 68			; 00000044H
  00006	53		 push	 ebx
  00007	56		 push	 esi
  00008	57		 push	 edi
  00009	89 4d fc	 mov	 DWORD PTR _this$[ebp], ecx
  0000c	8b 45 fc	 mov	 eax, DWORD PTR _this$[ebp]
  0000f	8b 4d 08	 mov	 ecx, DWORD PTR __Parg$[ebp]
  00012	89 08		 mov	 DWORD PTR [eax], ecx

; 46   : 		this->_Adopt(_Pvector);

  00014	8b 45 0c	 mov	 eax, DWORD PTR __Pvector$[ebp]
  00017	50		 push	 eax
  00018	8b 4d fc	 mov	 ecx, DWORD PTR _this$[ebp]
  0001b	e8 00 00 00 00	 call	 ?_Adopt@_Iterator_base0@std@@QAEXPBX@Z ; std::_Iterator_base0::_Adopt

; 47   : 		}

  00020	8b 45 fc	 mov	 eax, DWORD PTR _this$[ebp]
  00023	5f		 pop	 edi
  00024	5e		 pop	 esi
  00025	5b		 pop	 ebx
  00026	8b e5		 mov	 esp, ebp
  00028	5d		 pop	 ebp
  00029	c2 08 00	 ret	 8
??0?$_Vector_const_iterator@V?$_Vector_val@UBMQuestRandOpt_DATA@@V?$allocator@UBMQuestRandOpt_DATA@@@std@@@std@@@std@@QAE@PAUBMQuestRandOpt_DATA@@PBU_Container_base0@1@@Z ENDP ; std::_Vector_const_iterator<std::_Vector_val<BMQuestRandOpt_DATA,std::allocator<BMQuestRandOpt_DATA> > >::_Vector_const_iterator<std::_Vector_val<BMQuestRandOpt_DATA,std::allocator<BMQuestRandOpt_DATA> > >
_TEXT	ENDS
PUBLIC	?_Compat@?$_Vector_const_iterator@V?$_Vector_val@UBMQuestRandOpt_DATA@@V?$allocator@UBMQuestRandOpt_DATA@@@std@@@std@@@std@@QBEXABV12@@Z ; std::_Vector_const_iterator<std::_Vector_val<BMQuestRandOpt_DATA,std::allocator<BMQuestRandOpt_DATA> > >::_Compat
; Function compile flags: /Odtp /ZI
;	COMDAT ??8?$_Vector_const_iterator@V?$_Vector_val@UBMQuestRandOpt_DATA@@V?$allocator@UBMQuestRandOpt_DATA@@@std@@@std@@@std@@QBE_NABV01@@Z
_TEXT	SEGMENT
_this$ = -4						; size = 4
__Right$ = 8						; size = 4
??8?$_Vector_const_iterator@V?$_Vector_val@UBMQuestRandOpt_DATA@@V?$allocator@UBMQuestRandOpt_DATA@@@std@@@std@@@std@@QBE_NABV01@@Z PROC ; std::_Vector_const_iterator<std::_Vector_val<BMQuestRandOpt_DATA,std::allocator<BMQuestRandOpt_DATA> > >::operator==, COMDAT
; _this$ = ecx

; 201  : 		{	// test for iterator equality

  00000	55		 push	 ebp
  00001	8b ec		 mov	 ebp, esp
  00003	83 ec 44	 sub	 esp, 68			; 00000044H
  00006	53		 push	 ebx
  00007	56		 push	 esi
  00008	57		 push	 edi
  00009	89 4d fc	 mov	 DWORD PTR _this$[ebp], ecx

; 202  : 		_Compat(_Right);

  0000c	8b 45 08	 mov	 eax, DWORD PTR __Right$[ebp]
  0000f	50		 push	 eax
  00010	8b 4d fc	 mov	 ecx, DWORD PTR _this$[ebp]
  00013	e8 00 00 00 00	 call	 ?_Compat@?$_Vector_const_iterator@V?$_Vector_val@UBMQuestRandOpt_DATA@@V?$allocator@UBMQuestRandOpt_DATA@@@std@@@std@@@std@@QBEXABV12@@Z ; std::_Vector_const_iterator<std::_Vector_val<BMQuestRandOpt_DATA,std::allocator<BMQuestRandOpt_DATA> > >::_Compat

; 203  : 		return (this->_Ptr == _Right._Ptr);

  00018	8b 45 fc	 mov	 eax, DWORD PTR _this$[ebp]
  0001b	8b 4d 08	 mov	 ecx, DWORD PTR __Right$[ebp]
  0001e	8b 10		 mov	 edx, DWORD PTR [eax]
  00020	33 c0		 xor	 eax, eax
  00022	3b 11		 cmp	 edx, DWORD PTR [ecx]
  00024	0f 94 c0	 sete	 al

; 204  : 		}

  00027	5f		 pop	 edi
  00028	5e		 pop	 esi
  00029	5b		 pop	 ebx
  0002a	8b e5		 mov	 esp, ebp
  0002c	5d		 pop	 ebp
  0002d	c2 04 00	 ret	 4
??8?$_Vector_const_iterator@V?$_Vector_val@UBMQuestRandOpt_DATA@@V?$allocator@UBMQuestRandOpt_DATA@@@std@@@std@@@std@@QBE_NABV01@@Z ENDP ; std::_Vector_const_iterator<std::_Vector_val<BMQuestRandOpt_DATA,std::allocator<BMQuestRandOpt_DATA> > >::operator==
; Function compile flags: /Odtp /ZI
_TEXT	ENDS
;	COMDAT ?_Compat@?$_Vector_const_iterator@V?$_Vector_val@UBMQuestRandOpt_DATA@@V?$allocator@UBMQuestRandOpt_DATA@@@std@@@std@@@std@@QBEXABV12@@Z
_TEXT	SEGMENT
_this$ = -4						; size = 4
___formal$ = 8						; size = 4
?_Compat@?$_Vector_const_iterator@V?$_Vector_val@UBMQuestRandOpt_DATA@@V?$allocator@UBMQuestRandOpt_DATA@@@std@@@std@@@std@@QBEXABV12@@Z PROC ; std::_Vector_const_iterator<std::_Vector_val<BMQuestRandOpt_DATA,std::allocator<BMQuestRandOpt_DATA> > >::_Compat, COMDAT
; _this$ = ecx

; 252  : 		{	// test for compatible iterator pair

  00000	55		 push	 ebp
  00001	8b ec		 mov	 ebp, esp
  00003	83 ec 44	 sub	 esp, 68			; 00000044H
  00006	53		 push	 ebx
  00007	56		 push	 esi
  00008	57		 push	 edi
  00009	89 4d fc	 mov	 DWORD PTR _this$[ebp], ecx

; 253  : 		}

  0000c	5f		 pop	 edi
  0000d	5e		 pop	 esi
  0000e	5b		 pop	 ebx
  0000f	8b e5		 mov	 esp, ebp
  00011	5d		 pop	 ebp
  00012	c2 04 00	 ret	 4
?_Compat@?$_Vector_const_iterator@V?$_Vector_val@UBMQuestRandOpt_DATA@@V?$allocator@UBMQuestRandOpt_DATA@@@std@@@std@@@std@@QBEXABV12@@Z ENDP ; std::_Vector_const_iterator<std::_Vector_val<BMQuestRandOpt_DATA,std::allocator<BMQuestRandOpt_DATA> > >::_Compat
; Function compile flags: /Odtp /ZI
; File d:\microsoft visual studio 10.0\vc\include\xmemory
_TEXT	ENDS
;	COMDAT ??$addressof@$$CBUBMQuestRandOpt_DATA@@@std@@YAPBUBMQuestRandOpt_DATA@@ABU1@@Z
_TEXT	SEGMENT
__Val$ = 8						; size = 4
??$addressof@$$CBUBMQuestRandOpt_DATA@@@std@@YAPBUBMQuestRandOpt_DATA@@ABU1@@Z PROC ; std::addressof<BMQuestRandOpt_DATA const >, COMDAT

; 110  : 	{	// return address of _Val

  00000	55		 push	 ebp
  00001	8b ec		 mov	 ebp, esp
  00003	83 ec 40	 sub	 esp, 64			; 00000040H
  00006	53		 push	 ebx
  00007	56		 push	 esi
  00008	57		 push	 edi

; 111  : 	return ((_Ty *) &(char&)_Val);

  00009	8b 45 08	 mov	 eax, DWORD PTR __Val$[ebp]

; 112  : 	}

  0000c	5f		 pop	 edi
  0000d	5e		 pop	 esi
  0000e	5b		 pop	 ebx
  0000f	8b e5		 mov	 esp, ebp
  00011	5d		 pop	 ebp
  00012	c3		 ret	 0
??$addressof@$$CBUBMQuestRandOpt_DATA@@@std@@YAPBUBMQuestRandOpt_DATA@@ABU1@@Z ENDP ; std::addressof<BMQuestRandOpt_DATA const >
_TEXT	ENDS
PUBLIC	??$construct@AAUBMQuestRandOpt_DATA@@@?$allocator@UBMQuestRandOpt_DATA@@@std@@QAEXPAUBMQuestRandOpt_DATA@@AAU2@@Z ; std::allocator<BMQuestRandOpt_DATA>::construct<BMQuestRandOpt_DATA &>
PUBLIC	??$forward@AAUBMQuestRandOpt_DATA@@@std@@YAAAUBMQuestRandOpt_DATA@@AAU1@@Z ; std::forward<BMQuestRandOpt_DATA &>
; Function compile flags: /Odtp /ZI
;	COMDAT ??$_Cons_val@V?$allocator@UBMQuestRandOpt_DATA@@@std@@UBMQuestRandOpt_DATA@@AAU3@@std@@YAXAAV?$allocator@UBMQuestRandOpt_DATA@@@0@PAUBMQuestRandOpt_DATA@@AAU2@@Z
_TEXT	SEGMENT
__Alval$ = 8						; size = 4
__Pdest$ = 12						; size = 4
__Src$ = 16						; size = 4
??$_Cons_val@V?$allocator@UBMQuestRandOpt_DATA@@@std@@UBMQuestRandOpt_DATA@@AAU3@@std@@YAXAAV?$allocator@UBMQuestRandOpt_DATA@@@0@PAUBMQuestRandOpt_DATA@@AAU2@@Z PROC ; std::_Cons_val<std::allocator<BMQuestRandOpt_DATA>,BMQuestRandOpt_DATA,BMQuestRandOpt_DATA &>, COMDAT

; 279  : 	{	// construct using allocator

  00000	55		 push	 ebp
  00001	8b ec		 mov	 ebp, esp
  00003	83 ec 40	 sub	 esp, 64			; 00000040H
  00006	53		 push	 ebx
  00007	56		 push	 esi
  00008	57		 push	 edi

; 280  : 	_Alval.construct(_Pdest, _STD forward<_Ty2>(_Src));

  00009	8b 45 10	 mov	 eax, DWORD PTR __Src$[ebp]
  0000c	50		 push	 eax
  0000d	e8 00 00 00 00	 call	 ??$forward@AAUBMQuestRandOpt_DATA@@@std@@YAAAUBMQuestRandOpt_DATA@@AAU1@@Z ; std::forward<BMQuestRandOpt_DATA &>
  00012	83 c4 04	 add	 esp, 4
  00015	50		 push	 eax
  00016	8b 4d 0c	 mov	 ecx, DWORD PTR __Pdest$[ebp]
  00019	51		 push	 ecx
  0001a	8b 4d 08	 mov	 ecx, DWORD PTR __Alval$[ebp]
  0001d	e8 00 00 00 00	 call	 ??$construct@AAUBMQuestRandOpt_DATA@@@?$allocator@UBMQuestRandOpt_DATA@@@std@@QAEXPAUBMQuestRandOpt_DATA@@AAU2@@Z ; std::allocator<BMQuestRandOpt_DATA>::construct<BMQuestRandOpt_DATA &>

; 281  : 	}

  00022	5f		 pop	 edi
  00023	5e		 pop	 esi
  00024	5b		 pop	 ebx
  00025	8b e5		 mov	 esp, ebp
  00027	5d		 pop	 ebp
  00028	c3		 ret	 0
??$_Cons_val@V?$allocator@UBMQuestRandOpt_DATA@@@std@@UBMQuestRandOpt_DATA@@AAU3@@std@@YAXAAV?$allocator@UBMQuestRandOpt_DATA@@@0@PAUBMQuestRandOpt_DATA@@AAU2@@Z ENDP ; std::_Cons_val<std::allocator<BMQuestRandOpt_DATA>,BMQuestRandOpt_DATA,BMQuestRandOpt_DATA &>
_TEXT	ENDS
PUBLIC	?construct@?$allocator@UBMQuestRandOpt_DATA@@@std@@QAEXPAUBMQuestRandOpt_DATA@@ABU3@@Z ; std::allocator<BMQuestRandOpt_DATA>::construct
PUBLIC	??$forward@ABUBMQuestRandOpt_DATA@@@std@@YAABUBMQuestRandOpt_DATA@@ABU1@@Z ; std::forward<BMQuestRandOpt_DATA const &>
; Function compile flags: /Odtp /ZI
;	COMDAT ??$_Cons_val@V?$allocator@UBMQuestRandOpt_DATA@@@std@@UBMQuestRandOpt_DATA@@ABU3@@std@@YAXAAV?$allocator@UBMQuestRandOpt_DATA@@@0@PAUBMQuestRandOpt_DATA@@ABU2@@Z
_TEXT	SEGMENT
__Alval$ = 8						; size = 4
__Pdest$ = 12						; size = 4
__Src$ = 16						; size = 4
??$_Cons_val@V?$allocator@UBMQuestRandOpt_DATA@@@std@@UBMQuestRandOpt_DATA@@ABU3@@std@@YAXAAV?$allocator@UBMQuestRandOpt_DATA@@@0@PAUBMQuestRandOpt_DATA@@ABU2@@Z PROC ; std::_Cons_val<std::allocator<BMQuestRandOpt_DATA>,BMQuestRandOpt_DATA,BMQuestRandOpt_DATA const &>, COMDAT

; 279  : 	{	// construct using allocator

  00000	55		 push	 ebp
  00001	8b ec		 mov	 ebp, esp
  00003	83 ec 40	 sub	 esp, 64			; 00000040H
  00006	53		 push	 ebx
  00007	56		 push	 esi
  00008	57		 push	 edi

; 280  : 	_Alval.construct(_Pdest, _STD forward<_Ty2>(_Src));

  00009	8b 45 10	 mov	 eax, DWORD PTR __Src$[ebp]
  0000c	50		 push	 eax
  0000d	e8 00 00 00 00	 call	 ??$forward@ABUBMQuestRandOpt_DATA@@@std@@YAABUBMQuestRandOpt_DATA@@ABU1@@Z ; std::forward<BMQuestRandOpt_DATA const &>
  00012	83 c4 04	 add	 esp, 4
  00015	50		 push	 eax
  00016	8b 4d 0c	 mov	 ecx, DWORD PTR __Pdest$[ebp]
  00019	51		 push	 ecx
  0001a	8b 4d 08	 mov	 ecx, DWORD PTR __Alval$[ebp]
  0001d	e8 00 00 00 00	 call	 ?construct@?$allocator@UBMQuestRandOpt_DATA@@@std@@QAEXPAUBMQuestRandOpt_DATA@@ABU3@@Z ; std::allocator<BMQuestRandOpt_DATA>::construct

; 281  : 	}

  00022	5f		 pop	 edi
  00023	5e		 pop	 esi
  00024	5b		 pop	 ebx
  00025	8b e5		 mov	 esp, ebp
  00027	5d		 pop	 ebp
  00028	c3		 ret	 0
??$_Cons_val@V?$allocator@UBMQuestRandOpt_DATA@@@std@@UBMQuestRandOpt_DATA@@ABU3@@std@@YAXAAV?$allocator@UBMQuestRandOpt_DATA@@@0@PAUBMQuestRandOpt_DATA@@ABU2@@Z ENDP ; std::_Cons_val<std::allocator<BMQuestRandOpt_DATA>,BMQuestRandOpt_DATA,BMQuestRandOpt_DATA const &>
_TEXT	ENDS
PUBLIC	??$_Move@PAUBMQuestRandOpt_DATA@@PAU1@@std@@YAPAUBMQuestRandOpt_DATA@@PAU1@00U_Nonscalar_ptr_iterator_tag@0@@Z ; std::_Move<BMQuestRandOpt_DATA *,BMQuestRandOpt_DATA *>
PUBLIC	??$_Ptr_cat@UBMQuestRandOpt_DATA@@U1@@std@@YA?AU_Nonscalar_ptr_iterator_tag@0@PAUBMQuestRandOpt_DATA@@0@Z ; std::_Ptr_cat<BMQuestRandOpt_DATA,BMQuestRandOpt_DATA>
; Function compile flags: /Odtp /ZI
; File d:\microsoft visual studio 10.0\vc\include\xutility
;	COMDAT ??$_Move@PAUBMQuestRandOpt_DATA@@PAU1@@std@@YAPAUBMQuestRandOpt_DATA@@PAU1@00@Z
_TEXT	SEGMENT
$T221356 = -65						; size = 1
__First$ = 8						; size = 4
__Last$ = 12						; size = 4
__Dest$ = 16						; size = 4
??$_Move@PAUBMQuestRandOpt_DATA@@PAU1@@std@@YAPAUBMQuestRandOpt_DATA@@PAU1@00@Z PROC ; std::_Move<BMQuestRandOpt_DATA *,BMQuestRandOpt_DATA *>, COMDAT

; 2533 : 	{	// move [_First, _Last) to [_Dest, ...), unchecked

  00000	55		 push	 ebp
  00001	8b ec		 mov	 ebp, esp
  00003	83 ec 44	 sub	 esp, 68			; 00000044H
  00006	53		 push	 ebx
  00007	56		 push	 esi
  00008	57		 push	 edi

; 2534 : 	return (_Move(_First, _Last,
; 2535 : 		_Dest, _Ptr_cat(_First, _Dest)));

  00009	8b 45 10	 mov	 eax, DWORD PTR __Dest$[ebp]
  0000c	50		 push	 eax
  0000d	8b 4d 08	 mov	 ecx, DWORD PTR __First$[ebp]
  00010	51		 push	 ecx
  00011	e8 00 00 00 00	 call	 ??$_Ptr_cat@UBMQuestRandOpt_DATA@@U1@@std@@YA?AU_Nonscalar_ptr_iterator_tag@0@PAUBMQuestRandOpt_DATA@@0@Z ; std::_Ptr_cat<BMQuestRandOpt_DATA,BMQuestRandOpt_DATA>
  00016	83 c4 08	 add	 esp, 8
  00019	88 45 bf	 mov	 BYTE PTR $T221356[ebp], al
  0001c	0f b6 55 bf	 movzx	 edx, BYTE PTR $T221356[ebp]
  00020	52		 push	 edx
  00021	8b 45 10	 mov	 eax, DWORD PTR __Dest$[ebp]
  00024	50		 push	 eax
  00025	8b 4d 0c	 mov	 ecx, DWORD PTR __Last$[ebp]
  00028	51		 push	 ecx
  00029	8b 55 08	 mov	 edx, DWORD PTR __First$[ebp]
  0002c	52		 push	 edx
  0002d	e8 00 00 00 00	 call	 ??$_Move@PAUBMQuestRandOpt_DATA@@PAU1@@std@@YAPAUBMQuestRandOpt_DATA@@PAU1@00U_Nonscalar_ptr_iterator_tag@0@@Z ; std::_Move<BMQuestRandOpt_DATA *,BMQuestRandOpt_DATA *>
  00032	83 c4 10	 add	 esp, 16			; 00000010H

; 2536 : 	}

  00035	5f		 pop	 edi
  00036	5e		 pop	 esi
  00037	5b		 pop	 ebx
  00038	8b e5		 mov	 esp, ebp
  0003a	5d		 pop	 ebp
  0003b	c3		 ret	 0
??$_Move@PAUBMQuestRandOpt_DATA@@PAU1@@std@@YAPAUBMQuestRandOpt_DATA@@PAU1@00@Z ENDP ; std::_Move<BMQuestRandOpt_DATA *,BMQuestRandOpt_DATA *>
_TEXT	ENDS
PUBLIC	??$_Uninitialized_move@PAUBMQuestRandOpt_DATA@@PAU1@V?$allocator@UBMQuestRandOpt_DATA@@@std@@@std@@YAPAUBMQuestRandOpt_DATA@@PAU1@00AAV?$allocator@UBMQuestRandOpt_DATA@@@0@@Z ; std::_Uninitialized_move<BMQuestRandOpt_DATA *,BMQuestRandOpt_DATA *,std::allocator<BMQuestRandOpt_DATA> >
; Function compile flags: /Odtp /ZI
; File d:\microsoft visual studio 10.0\vc\include\vector
;	COMDAT ??$_Umove@PAUBMQuestRandOpt_DATA@@@?$vector@UBMQuestRandOpt_DATA@@V?$allocator@UBMQuestRandOpt_DATA@@@std@@@std@@IAEPAUBMQuestRandOpt_DATA@@PAU2@00@Z
_TEXT	SEGMENT
_this$ = -4						; size = 4
__First$ = 8						; size = 4
__Last$ = 12						; size = 4
__Ptr$ = 16						; size = 4
??$_Umove@PAUBMQuestRandOpt_DATA@@@?$vector@UBMQuestRandOpt_DATA@@V?$allocator@UBMQuestRandOpt_DATA@@@std@@@std@@IAEPAUBMQuestRandOpt_DATA@@PAU2@00@Z PROC ; std::vector<BMQuestRandOpt_DATA,std::allocator<BMQuestRandOpt_DATA> >::_Umove<BMQuestRandOpt_DATA *>, COMDAT
; _this$ = ecx

; 1322 : 		pointer _Umove(_Iter _First, _Iter _Last, pointer _Ptr)

  00000	55		 push	 ebp
  00001	8b ec		 mov	 ebp, esp
  00003	83 ec 44	 sub	 esp, 68			; 00000044H
  00006	53		 push	 ebx
  00007	56		 push	 esi
  00008	57		 push	 edi
  00009	89 4d fc	 mov	 DWORD PTR _this$[ebp], ecx

; 1323 : 		{	// move initializing [_First, _Last), using allocator
; 1324 : 		return (_Uninitialized_move(_First, _Last,
; 1325 : 			_Ptr, this->_Alval));

  0000c	8b 45 fc	 mov	 eax, DWORD PTR _this$[ebp]
  0000f	83 c0 0c	 add	 eax, 12			; 0000000cH
  00012	50		 push	 eax
  00013	8b 4d 10	 mov	 ecx, DWORD PTR __Ptr$[ebp]
  00016	51		 push	 ecx
  00017	8b 55 0c	 mov	 edx, DWORD PTR __Last$[ebp]
  0001a	52		 push	 edx
  0001b	8b 45 08	 mov	 eax, DWORD PTR __First$[ebp]
  0001e	50		 push	 eax
  0001f	e8 00 00 00 00	 call	 ??$_Uninitialized_move@PAUBMQuestRandOpt_DATA@@PAU1@V?$allocator@UBMQuestRandOpt_DATA@@@std@@@std@@YAPAUBMQuestRandOpt_DATA@@PAU1@00AAV?$allocator@UBMQuestRandOpt_DATA@@@0@@Z ; std::_Uninitialized_move<BMQuestRandOpt_DATA *,BMQuestRandOpt_DATA *,std::allocator<BMQuestRandOpt_DATA> >
  00024	83 c4 10	 add	 esp, 16			; 00000010H

; 1326 : 		}

  00027	5f		 pop	 edi
  00028	5e		 pop	 esi
  00029	5b		 pop	 ebx
  0002a	8b e5		 mov	 esp, ebp
  0002c	5d		 pop	 ebp
  0002d	c2 0c 00	 ret	 12			; 0000000cH
??$_Umove@PAUBMQuestRandOpt_DATA@@@?$vector@UBMQuestRandOpt_DATA@@V?$allocator@UBMQuestRandOpt_DATA@@@std@@@std@@IAEPAUBMQuestRandOpt_DATA@@PAU2@00@Z ENDP ; std::vector<BMQuestRandOpt_DATA,std::allocator<BMQuestRandOpt_DATA> >::_Umove<BMQuestRandOpt_DATA *>
_TEXT	ENDS
PUBLIC	??$_Destroy_range@V?$allocator@UBMQuestRandOpt_DATA@@@std@@@std@@YAXPAUBMQuestRandOpt_DATA@@0AAV?$allocator@UBMQuestRandOpt_DATA@@@0@U_Nonscalar_ptr_iterator_tag@0@@Z ; std::_Destroy_range<std::allocator<BMQuestRandOpt_DATA> >
; Function compile flags: /Odtp /ZI
; File d:\microsoft visual studio 10.0\vc\include\xmemory
;	COMDAT ??$_Destroy_range@V?$allocator@UBMQuestRandOpt_DATA@@@std@@@std@@YAXPAUBMQuestRandOpt_DATA@@0AAV?$allocator@UBMQuestRandOpt_DATA@@@0@@Z
_TEXT	SEGMENT
$T221361 = -65						; size = 1
__First$ = 8						; size = 4
__Last$ = 12						; size = 4
__Al$ = 16						; size = 4
??$_Destroy_range@V?$allocator@UBMQuestRandOpt_DATA@@@std@@@std@@YAXPAUBMQuestRandOpt_DATA@@0AAV?$allocator@UBMQuestRandOpt_DATA@@@0@@Z PROC ; std::_Destroy_range<std::allocator<BMQuestRandOpt_DATA> >, COMDAT

; 87   : 	{	// destroy [_First, _Last)

  00000	55		 push	 ebp
  00001	8b ec		 mov	 ebp, esp
  00003	83 ec 44	 sub	 esp, 68			; 00000044H
  00006	53		 push	 ebx
  00007	56		 push	 esi
  00008	57		 push	 edi

; 88   : 	_Destroy_range(_First, _Last, _Al, _Ptr_cat(_First, _Last));

  00009	8b 45 0c	 mov	 eax, DWORD PTR __Last$[ebp]
  0000c	50		 push	 eax
  0000d	8b 4d 08	 mov	 ecx, DWORD PTR __First$[ebp]
  00010	51		 push	 ecx
  00011	e8 00 00 00 00	 call	 ??$_Ptr_cat@UBMQuestRandOpt_DATA@@U1@@std@@YA?AU_Nonscalar_ptr_iterator_tag@0@PAUBMQuestRandOpt_DATA@@0@Z ; std::_Ptr_cat<BMQuestRandOpt_DATA,BMQuestRandOpt_DATA>
  00016	83 c4 08	 add	 esp, 8
  00019	88 45 bf	 mov	 BYTE PTR $T221361[ebp], al
  0001c	0f b6 55 bf	 movzx	 edx, BYTE PTR $T221361[ebp]
  00020	52		 push	 edx
  00021	8b 45 10	 mov	 eax, DWORD PTR __Al$[ebp]
  00024	50		 push	 eax
  00025	8b 4d 0c	 mov	 ecx, DWORD PTR __Last$[ebp]
  00028	51		 push	 ecx
  00029	8b 55 08	 mov	 edx, DWORD PTR __First$[ebp]
  0002c	52		 push	 edx
  0002d	e8 00 00 00 00	 call	 ??$_Destroy_range@V?$allocator@UBMQuestRandOpt_DATA@@@std@@@std@@YAXPAUBMQuestRandOpt_DATA@@0AAV?$allocator@UBMQuestRandOpt_DATA@@@0@U_Nonscalar_ptr_iterator_tag@0@@Z ; std::_Destroy_range<std::allocator<BMQuestRandOpt_DATA> >
  00032	83 c4 10	 add	 esp, 16			; 00000010H

; 89   : 	}

  00035	5f		 pop	 edi
  00036	5e		 pop	 esi
  00037	5b		 pop	 ebx
  00038	8b e5		 mov	 esp, ebp
  0003a	5d		 pop	 ebp
  0003b	c3		 ret	 0
??$_Destroy_range@V?$allocator@UBMQuestRandOpt_DATA@@@std@@@std@@YAXPAUBMQuestRandOpt_DATA@@0AAV?$allocator@UBMQuestRandOpt_DATA@@@0@@Z ENDP ; std::_Destroy_range<std::allocator<BMQuestRandOpt_DATA> >
_TEXT	ENDS
PUBLIC	__TI2?AVbad_alloc@std@@
PUBLIC	??0bad_alloc@std@@QAE@PBD@Z			; std::bad_alloc::bad_alloc
PUBLIC	??1bad_alloc@std@@UAE@XZ			; std::bad_alloc::~bad_alloc
PUBLIC	__CTA2?AVbad_alloc@std@@
PUBLIC	__CT??_R0?AVbad_alloc@std@@@8??0bad_alloc@std@@QAE@ABV01@@Z12
PUBLIC	??_R0?AVbad_alloc@std@@@8			; std::bad_alloc `RTTI Type Descriptor'
PUBLIC	??0bad_alloc@std@@QAE@ABV01@@Z			; std::bad_alloc::bad_alloc
PUBLIC	__CT??_R0?AVexception@std@@@8??0exception@std@@QAE@ABV01@@Z12
PUBLIC	??_R0?AVexception@std@@@8			; std::exception `RTTI Type Descriptor'
EXTRN	??2@YAPAXI@Z:PROC				; operator new
EXTRN	??_7type_info@@6B@:QWORD			; type_info::`vftable'
EXTRN	??0exception@std@@QAE@ABV01@@Z:PROC		; std::exception::exception
;	COMDAT ??_R0?AVexception@std@@@8
_DATA	SEGMENT
??_R0?AVexception@std@@@8 DD FLAT:??_7type_info@@6B@	; std::exception `RTTI Type Descriptor'
	DD	00H
	DB	'.?AVexception@std@@', 00H
_DATA	ENDS
;	COMDAT __CT??_R0?AVexception@std@@@8??0exception@std@@QAE@ABV01@@Z12
xdata$x	SEGMENT
__CT??_R0?AVexception@std@@@8??0exception@std@@QAE@ABV01@@Z12 DD 00H
	DD	FLAT:??_R0?AVexception@std@@@8
	DD	00H
	DD	0ffffffffH
	ORG $+4
	DD	0cH
	DD	FLAT:??0exception@std@@QAE@ABV01@@Z
xdata$x	ENDS
;	COMDAT ??_R0?AVbad_alloc@std@@@8
_DATA	SEGMENT
??_R0?AVbad_alloc@std@@@8 DD FLAT:??_7type_info@@6B@	; std::bad_alloc `RTTI Type Descriptor'
	DD	00H
	DB	'.?AVbad_alloc@std@@', 00H
_DATA	ENDS
;	COMDAT __CT??_R0?AVbad_alloc@std@@@8??0bad_alloc@std@@QAE@ABV01@@Z12
xdata$x	SEGMENT
__CT??_R0?AVbad_alloc@std@@@8??0bad_alloc@std@@QAE@ABV01@@Z12 DD 00H
	DD	FLAT:??_R0?AVbad_alloc@std@@@8
	DD	00H
	DD	0ffffffffH
	ORG $+4
	DD	0cH
	DD	FLAT:??0bad_alloc@std@@QAE@ABV01@@Z
xdata$x	ENDS
;	COMDAT __CTA2?AVbad_alloc@std@@
xdata$x	SEGMENT
__CTA2?AVbad_alloc@std@@ DD 02H
	DD	FLAT:__CT??_R0?AVbad_alloc@std@@@8??0bad_alloc@std@@QAE@ABV01@@Z12
	DD	FLAT:__CT??_R0?AVexception@std@@@8??0exception@std@@QAE@ABV01@@Z12
xdata$x	ENDS
;	COMDAT __TI2?AVbad_alloc@std@@
xdata$x	SEGMENT
__TI2?AVbad_alloc@std@@ DD 00H
	DD	FLAT:??1bad_alloc@std@@UAE@XZ
	DD	00H
	DD	FLAT:__CTA2?AVbad_alloc@std@@
; Function compile flags: /Odtp /ZI
xdata$x	ENDS
;	COMDAT ??$_Allocate@UBMQuestRandOpt_DATA@@@std@@YAPAUBMQuestRandOpt_DATA@@IPAU1@@Z
_TEXT	SEGMENT
$T221364 = -80						; size = 12
__Ptr$ = -4						; size = 4
__Count$ = 8						; size = 4
___formal$ = 12						; size = 4
??$_Allocate@UBMQuestRandOpt_DATA@@@std@@YAPAUBMQuestRandOpt_DATA@@IPAU1@@Z PROC ; std::_Allocate<BMQuestRandOpt_DATA>, COMDAT

; 30   : 	{	// allocate storage for _Count elements of type _Ty

  00000	55		 push	 ebp
  00001	8b ec		 mov	 ebp, esp
  00003	83 ec 50	 sub	 esp, 80			; 00000050H
  00006	53		 push	 ebx
  00007	56		 push	 esi
  00008	57		 push	 edi

; 31   : 	void *_Ptr = 0;

  00009	c7 45 fc 00 00
	00 00		 mov	 DWORD PTR __Ptr$[ebp], 0

; 32   : 
; 33   : 	if (_Count <= 0)

  00010	83 7d 08 00	 cmp	 DWORD PTR __Count$[ebp], 0
  00014	77 09		 ja	 SHORT $LN4@Allocate

; 34   : 		_Count = 0;

  00016	c7 45 08 00 00
	00 00		 mov	 DWORD PTR __Count$[ebp], 0

; 35   : 	else if (((_SIZT)(-1) / sizeof (_Ty) < _Count)

  0001d	eb 39		 jmp	 SHORT $LN3@Allocate
$LN4@Allocate:

; 36   : 		|| (_Ptr = ::operator new(_Count * sizeof (_Ty))) == 0)

  0001f	81 7d 08 ff ff
	ff 07		 cmp	 DWORD PTR __Count$[ebp], 134217727 ; 07ffffffH
  00026	77 18		 ja	 SHORT $LN1@Allocate
  00028	8b 45 08	 mov	 eax, DWORD PTR __Count$[ebp]
  0002b	c1 e0 05	 shl	 eax, 5
  0002e	50		 push	 eax
  0002f	e8 00 00 00 00	 call	 ??2@YAPAXI@Z		; operator new
  00034	83 c4 04	 add	 esp, 4
  00037	89 45 fc	 mov	 DWORD PTR __Ptr$[ebp], eax
  0003a	83 7d fc 00	 cmp	 DWORD PTR __Ptr$[ebp], 0
  0003e	75 18		 jne	 SHORT $LN3@Allocate
$LN1@Allocate:

; 37   : 		_THROW_NCEE(bad_alloc, 0);

  00040	6a 00		 push	 0
  00042	8d 4d b0	 lea	 ecx, DWORD PTR $T221364[ebp]
  00045	e8 00 00 00 00	 call	 ??0bad_alloc@std@@QAE@PBD@Z ; std::bad_alloc::bad_alloc
  0004a	68 00 00 00 00	 push	 OFFSET __TI2?AVbad_alloc@std@@
  0004f	8d 45 b0	 lea	 eax, DWORD PTR $T221364[ebp]
  00052	50		 push	 eax
  00053	e8 00 00 00 00	 call	 __CxxThrowException@8
$LN3@Allocate:

; 38   : 
; 39   : 	return ((_Ty _FARQ *)_Ptr);

  00058	8b 45 fc	 mov	 eax, DWORD PTR __Ptr$[ebp]
$LN6@Allocate:

; 40   : 	}

  0005b	5f		 pop	 edi
  0005c	5e		 pop	 esi
  0005d	5b		 pop	 ebx
  0005e	8b e5		 mov	 esp, ebp
  00060	5d		 pop	 ebp
  00061	c3		 ret	 0
??$_Allocate@UBMQuestRandOpt_DATA@@@std@@YAPAUBMQuestRandOpt_DATA@@IPAU1@@Z ENDP ; std::_Allocate<BMQuestRandOpt_DATA>
_TEXT	ENDS
PUBLIC	??$_Construct@UBMQuestRandOpt_DATA@@ABU1@@std@@YAXPAUBMQuestRandOpt_DATA@@ABU1@@Z ; std::_Construct<BMQuestRandOpt_DATA,BMQuestRandOpt_DATA const &>
; Function compile flags: /Odtp /ZI
;	COMDAT ?construct@?$allocator@UBMQuestRandOpt_DATA@@@std@@QAEXPAUBMQuestRandOpt_DATA@@ABU3@@Z
_TEXT	SEGMENT
_this$ = -4						; size = 4
__Ptr$ = 8						; size = 4
__Val$ = 12						; size = 4
?construct@?$allocator@UBMQuestRandOpt_DATA@@@std@@QAEXPAUBMQuestRandOpt_DATA@@ABU3@@Z PROC ; std::allocator<BMQuestRandOpt_DATA>::construct, COMDAT
; _this$ = ecx

; 196  : 		{	// construct object at _Ptr with value _Val

  00000	55		 push	 ebp
  00001	8b ec		 mov	 ebp, esp
  00003	83 ec 44	 sub	 esp, 68			; 00000044H
  00006	53		 push	 ebx
  00007	56		 push	 esi
  00008	57		 push	 edi
  00009	89 4d fc	 mov	 DWORD PTR _this$[ebp], ecx

; 197  : 		_Construct(_Ptr, _Val);

  0000c	8b 45 0c	 mov	 eax, DWORD PTR __Val$[ebp]
  0000f	50		 push	 eax
  00010	8b 4d 08	 mov	 ecx, DWORD PTR __Ptr$[ebp]
  00013	51		 push	 ecx
  00014	e8 00 00 00 00	 call	 ??$_Construct@UBMQuestRandOpt_DATA@@ABU1@@std@@YAXPAUBMQuestRandOpt_DATA@@ABU1@@Z ; std::_Construct<BMQuestRandOpt_DATA,BMQuestRandOpt_DATA const &>
  00019	83 c4 08	 add	 esp, 8

; 198  : 		}

  0001c	5f		 pop	 edi
  0001d	5e		 pop	 esi
  0001e	5b		 pop	 ebx
  0001f	8b e5		 mov	 esp, ebp
  00021	5d		 pop	 ebp
  00022	c2 08 00	 ret	 8
?construct@?$allocator@UBMQuestRandOpt_DATA@@@std@@QAEXPAUBMQuestRandOpt_DATA@@ABU3@@Z ENDP ; std::allocator<BMQuestRandOpt_DATA>::construct
; Function compile flags: /Odtp /ZI
; File d:\microsoft visual studio 10.0\vc\include\utility
_TEXT	ENDS
;	COMDAT ??$forward@AAUBMQuestRandOpt_DATA@@@std@@YAAAUBMQuestRandOpt_DATA@@AAU1@@Z
_TEXT	SEGMENT
__Arg$ = 8						; size = 4
??$forward@AAUBMQuestRandOpt_DATA@@@std@@YAAAUBMQuestRandOpt_DATA@@AAU1@@Z PROC ; std::forward<BMQuestRandOpt_DATA &>, COMDAT

; 78   : 	{	// forward _Arg, given explicitly specified type parameter

  00000	55		 push	 ebp
  00001	8b ec		 mov	 ebp, esp
  00003	83 ec 40	 sub	 esp, 64			; 00000040H
  00006	53		 push	 ebx
  00007	56		 push	 esi
  00008	57		 push	 edi

; 79   : 	return ((_Ty&&)_Arg);

  00009	8b 45 08	 mov	 eax, DWORD PTR __Arg$[ebp]

; 80   : 	}

  0000c	5f		 pop	 edi
  0000d	5e		 pop	 esi
  0000e	5b		 pop	 ebx
  0000f	8b e5		 mov	 esp, ebp
  00011	5d		 pop	 ebp
  00012	c3		 ret	 0
??$forward@AAUBMQuestRandOpt_DATA@@@std@@YAAAUBMQuestRandOpt_DATA@@AAU1@@Z ENDP ; std::forward<BMQuestRandOpt_DATA &>
_TEXT	ENDS
PUBLIC	??3@YAXPAX0@Z					; operator delete
PUBLIC	??2@YAPAXIPAX@Z					; operator new
;	COMDAT xdata$x
; File d:\microsoft visual studio 10.0\vc\include\xmemory
xdata$x	SEGMENT
__unwindtable$??$construct@AAUBMQuestRandOpt_DATA@@@?$allocator@UBMQuestRandOpt_DATA@@@std@@QAEXPAUBMQuestRandOpt_DATA@@AAU2@@Z DD 0ffffffffH
	DD	FLAT:__unwindfunclet$??$construct@AAUBMQuestRandOpt_DATA@@@?$allocator@UBMQuestRandOpt_DATA@@@std@@QAEXPAUBMQuestRandOpt_DATA@@AAU2@@Z$0
__ehfuncinfo$??$construct@AAUBMQuestRandOpt_DATA@@@?$allocator@UBMQuestRandOpt_DATA@@@std@@QAEXPAUBMQuestRandOpt_DATA@@AAU2@@Z DD 019930522H
	DD	01H
	DD	FLAT:__unwindtable$??$construct@AAUBMQuestRandOpt_DATA@@@?$allocator@UBMQuestRandOpt_DATA@@@std@@QAEXPAUBMQuestRandOpt_DATA@@AAU2@@Z
	DD	2 DUP(00H)
	DD	2 DUP(00H)
	DD	00H
	DD	01H
; Function compile flags: /Odtp /ZI
xdata$x	ENDS
;	COMDAT ??$construct@AAUBMQuestRandOpt_DATA@@@?$allocator@UBMQuestRandOpt_DATA@@@std@@QAEXPAUBMQuestRandOpt_DATA@@AAU2@@Z
_TEXT	SEGMENT
tv74 = -92						; size = 4
$T221371 = -88						; size = 4
$T221372 = -84						; size = 4
_this$ = -16						; size = 4
__$EHRec$ = -12						; size = 12
__Ptr$ = 8						; size = 4
__Val$ = 12						; size = 4
??$construct@AAUBMQuestRandOpt_DATA@@@?$allocator@UBMQuestRandOpt_DATA@@@std@@QAEXPAUBMQuestRandOpt_DATA@@AAU2@@Z PROC ; std::allocator<BMQuestRandOpt_DATA>::construct<BMQuestRandOpt_DATA &>, COMDAT
; _this$ = ecx

; 206  : 		void construct(pointer _Ptr, _Other&& _Val)

  00000	55		 push	 ebp
  00001	8b ec		 mov	 ebp, esp
  00003	6a ff		 push	 -1
  00005	68 00 00 00 00	 push	 __ehhandler$??$construct@AAUBMQuestRandOpt_DATA@@@?$allocator@UBMQuestRandOpt_DATA@@@std@@QAEXPAUBMQuestRandOpt_DATA@@AAU2@@Z
  0000a	64 a1 00 00 00
	00		 mov	 eax, DWORD PTR fs:0
  00010	50		 push	 eax
  00011	83 ec 50	 sub	 esp, 80			; 00000050H
  00014	53		 push	 ebx
  00015	56		 push	 esi
  00016	57		 push	 edi
  00017	a1 00 00 00 00	 mov	 eax, DWORD PTR ___security_cookie
  0001c	33 c5		 xor	 eax, ebp
  0001e	50		 push	 eax
  0001f	8d 45 f4	 lea	 eax, DWORD PTR __$EHRec$[ebp]
  00022	64 a3 00 00 00
	00		 mov	 DWORD PTR fs:0, eax
  00028	89 4d f0	 mov	 DWORD PTR _this$[ebp], ecx

; 207  : 		{	// construct object at _Ptr with value _Val
; 208  : 		::new ((void _FARQ *)_Ptr) _Ty(_STD forward<_Other>(_Val));

  0002b	8b 45 08	 mov	 eax, DWORD PTR __Ptr$[ebp]
  0002e	50		 push	 eax
  0002f	6a 20		 push	 32			; 00000020H
  00031	e8 00 00 00 00	 call	 ??2@YAPAXIPAX@Z		; operator new
  00036	83 c4 08	 add	 esp, 8
  00039	89 45 ac	 mov	 DWORD PTR $T221372[ebp], eax
  0003c	c7 45 fc 00 00
	00 00		 mov	 DWORD PTR __$EHRec$[ebp+8], 0
  00043	83 7d ac 00	 cmp	 DWORD PTR $T221372[ebp], 0
  00047	74 20		 je	 SHORT $LN3@construct
  00049	8b 4d 0c	 mov	 ecx, DWORD PTR __Val$[ebp]
  0004c	51		 push	 ecx
  0004d	e8 00 00 00 00	 call	 ??$forward@AAUBMQuestRandOpt_DATA@@@std@@YAAAUBMQuestRandOpt_DATA@@AAU1@@Z ; std::forward<BMQuestRandOpt_DATA &>
  00052	83 c4 04	 add	 esp, 4
  00055	b9 08 00 00 00	 mov	 ecx, 8
  0005a	8b f0		 mov	 esi, eax
  0005c	8b 7d ac	 mov	 edi, DWORD PTR $T221372[ebp]
  0005f	f3 a5		 rep movsd
  00061	8b 55 ac	 mov	 edx, DWORD PTR $T221372[ebp]
  00064	89 55 a4	 mov	 DWORD PTR tv74[ebp], edx
  00067	eb 07		 jmp	 SHORT $LN4@construct
$LN3@construct:
  00069	c7 45 a4 00 00
	00 00		 mov	 DWORD PTR tv74[ebp], 0
$LN4@construct:
  00070	8b 45 a4	 mov	 eax, DWORD PTR tv74[ebp]
  00073	89 45 a8	 mov	 DWORD PTR $T221371[ebp], eax
  00076	c7 45 fc ff ff
	ff ff		 mov	 DWORD PTR __$EHRec$[ebp+8], -1

; 209  : 		}

  0007d	8b 4d f4	 mov	 ecx, DWORD PTR __$EHRec$[ebp]
  00080	64 89 0d 00 00
	00 00		 mov	 DWORD PTR fs:0, ecx
  00087	59		 pop	 ecx
  00088	5f		 pop	 edi
  00089	5e		 pop	 esi
  0008a	5b		 pop	 ebx
  0008b	8b e5		 mov	 esp, ebp
  0008d	5d		 pop	 ebp
  0008e	c2 08 00	 ret	 8
_TEXT	ENDS
;	COMDAT text$x
text$x	SEGMENT
__unwindfunclet$??$construct@AAUBMQuestRandOpt_DATA@@@?$allocator@UBMQuestRandOpt_DATA@@@std@@QAEXPAUBMQuestRandOpt_DATA@@AAU2@@Z$0:
  00000	8b 45 08	 mov	 eax, DWORD PTR __Ptr$[ebp]
  00003	50		 push	 eax
  00004	8b 4d ac	 mov	 ecx, DWORD PTR $T221372[ebp]
  00007	51		 push	 ecx
  00008	e8 00 00 00 00	 call	 ??3@YAXPAX0@Z		; operator delete
  0000d	83 c4 08	 add	 esp, 8
  00010	c3		 ret	 0
__ehhandler$??$construct@AAUBMQuestRandOpt_DATA@@@?$allocator@UBMQuestRandOpt_DATA@@@std@@QAEXPAUBMQuestRandOpt_DATA@@AAU2@@Z:
  00011	8b 54 24 08	 mov	 edx, DWORD PTR [esp+8]
  00015	8d 42 0c	 lea	 eax, DWORD PTR [edx+12]
  00018	8b 4a a0	 mov	 ecx, DWORD PTR [edx-96]
  0001b	33 c8		 xor	 ecx, eax
  0001d	e8 00 00 00 00	 call	 @__security_check_cookie@4
  00022	b8 00 00 00 00	 mov	 eax, OFFSET __ehfuncinfo$??$construct@AAUBMQuestRandOpt_DATA@@@?$allocator@UBMQuestRandOpt_DATA@@@std@@QAEXPAUBMQuestRandOpt_DATA@@AAU2@@Z
  00027	e9 00 00 00 00	 jmp	 ___CxxFrameHandler3
text$x	ENDS
??$construct@AAUBMQuestRandOpt_DATA@@@?$allocator@UBMQuestRandOpt_DATA@@@std@@QAEXPAUBMQuestRandOpt_DATA@@AAU2@@Z ENDP ; std::allocator<BMQuestRandOpt_DATA>::construct<BMQuestRandOpt_DATA &>
; Function compile flags: /Odtp /ZI
; File d:\microsoft visual studio 10.0\vc\include\new.h
;	COMDAT ??2@YAPAXIPAX@Z
_TEXT	SEGMENT
___formal$ = 8						; size = 4
__Where$ = 12						; size = 4
??2@YAPAXIPAX@Z PROC					; operator new, COMDAT

; 81   :         {return (_Where); }

  00000	55		 push	 ebp
  00001	8b ec		 mov	 ebp, esp
  00003	83 ec 40	 sub	 esp, 64			; 00000040H
  00006	53		 push	 ebx
  00007	56		 push	 esi
  00008	57		 push	 edi
  00009	8b 45 0c	 mov	 eax, DWORD PTR __Where$[ebp]
  0000c	5f		 pop	 edi
  0000d	5e		 pop	 esi
  0000e	5b		 pop	 ebx
  0000f	8b e5		 mov	 esp, ebp
  00011	5d		 pop	 ebp
  00012	c3		 ret	 0
??2@YAPAXIPAX@Z ENDP					; operator new
; Function compile flags: /Odtp /ZI
_TEXT	ENDS
;	COMDAT ??3@YAXPAX0@Z
_TEXT	SEGMENT
___formal$ = 8						; size = 4
___formal$ = 12						; size = 4
??3@YAXPAX0@Z PROC					; operator delete, COMDAT

; 83   :         {return; }

  00000	55		 push	 ebp
  00001	8b ec		 mov	 ebp, esp
  00003	83 ec 40	 sub	 esp, 64			; 00000040H
  00006	53		 push	 ebx
  00007	56		 push	 esi
  00008	57		 push	 edi
  00009	5f		 pop	 edi
  0000a	5e		 pop	 esi
  0000b	5b		 pop	 ebx
  0000c	8b e5		 mov	 esp, ebp
  0000e	5d		 pop	 ebp
  0000f	c3		 ret	 0
??3@YAXPAX0@Z ENDP					; operator delete
; Function compile flags: /Odtp /ZI
; File d:\microsoft visual studio 10.0\vc\include\utility
_TEXT	ENDS
;	COMDAT ??$forward@ABUBMQuestRandOpt_DATA@@@std@@YAABUBMQuestRandOpt_DATA@@ABU1@@Z
_TEXT	SEGMENT
__Arg$ = 8						; size = 4
??$forward@ABUBMQuestRandOpt_DATA@@@std@@YAABUBMQuestRandOpt_DATA@@ABU1@@Z PROC ; std::forward<BMQuestRandOpt_DATA const &>, COMDAT

; 78   : 	{	// forward _Arg, given explicitly specified type parameter

  00000	55		 push	 ebp
  00001	8b ec		 mov	 ebp, esp
  00003	83 ec 40	 sub	 esp, 64			; 00000040H
  00006	53		 push	 ebx
  00007	56		 push	 esi
  00008	57		 push	 edi

; 79   : 	return ((_Ty&&)_Arg);

  00009	8b 45 08	 mov	 eax, DWORD PTR __Arg$[ebp]

; 80   : 	}

  0000c	5f		 pop	 edi
  0000d	5e		 pop	 esi
  0000e	5b		 pop	 ebx
  0000f	8b e5		 mov	 esp, ebp
  00011	5d		 pop	 ebp
  00012	c3		 ret	 0
??$forward@ABUBMQuestRandOpt_DATA@@@std@@YAABUBMQuestRandOpt_DATA@@ABU1@@Z ENDP ; std::forward<BMQuestRandOpt_DATA const &>
; Function compile flags: /Odtp /ZI
; File d:\microsoft visual studio 10.0\vc\include\xutility
_TEXT	ENDS
;	COMDAT ??$_Ptr_cat@UBMQuestRandOpt_DATA@@U1@@std@@YA?AU_Nonscalar_ptr_iterator_tag@0@PAUBMQuestRandOpt_DATA@@0@Z
_TEXT	SEGMENT
__Cat$ = -1						; size = 1
___formal$ = 8						; size = 4
___formal$ = 12						; size = 4
??$_Ptr_cat@UBMQuestRandOpt_DATA@@U1@@std@@YA?AU_Nonscalar_ptr_iterator_tag@0@PAUBMQuestRandOpt_DATA@@0@Z PROC ; std::_Ptr_cat<BMQuestRandOpt_DATA,BMQuestRandOpt_DATA>, COMDAT

; 516  : 	{	// return pointer category from pointers

  00000	55		 push	 ebp
  00001	8b ec		 mov	 ebp, esp
  00003	83 ec 44	 sub	 esp, 68			; 00000044H
  00006	53		 push	 ebx
  00007	56		 push	 esi
  00008	57		 push	 edi

; 517  : 	typename _Ptr_cat_helper<_Elem1, _Elem2>::_Type _Cat;
; 518  : 	return (_Cat);

  00009	8a 45 ff	 mov	 al, BYTE PTR __Cat$[ebp]

; 519  : 	}

  0000c	5f		 pop	 edi
  0000d	5e		 pop	 esi
  0000e	5b		 pop	 ebx
  0000f	8b e5		 mov	 esp, ebp
  00011	5d		 pop	 ebp
  00012	c3		 ret	 0
??$_Ptr_cat@UBMQuestRandOpt_DATA@@U1@@std@@YA?AU_Nonscalar_ptr_iterator_tag@0@PAUBMQuestRandOpt_DATA@@0@Z ENDP ; std::_Ptr_cat<BMQuestRandOpt_DATA,BMQuestRandOpt_DATA>
_TEXT	ENDS
PUBLIC	??$move@AAUBMQuestRandOpt_DATA@@@std@@YA$$QAUBMQuestRandOpt_DATA@@AAU1@@Z ; std::move<BMQuestRandOpt_DATA &>
; Function compile flags: /Odtp /ZI
;	COMDAT ??$_Move@PAUBMQuestRandOpt_DATA@@PAU1@@std@@YAPAUBMQuestRandOpt_DATA@@PAU1@00U_Nonscalar_ptr_iterator_tag@0@@Z
_TEXT	SEGMENT
__First$ = 8						; size = 4
__Last$ = 12						; size = 4
__Dest$ = 16						; size = 4
___formal$ = 20						; size = 1
??$_Move@PAUBMQuestRandOpt_DATA@@PAU1@@std@@YAPAUBMQuestRandOpt_DATA@@PAU1@00U_Nonscalar_ptr_iterator_tag@0@@Z PROC ; std::_Move<BMQuestRandOpt_DATA *,BMQuestRandOpt_DATA *>, COMDAT

; 2512 : 	{	// move [_First, _Last) to [_Dest, ...), arbitrary iterators

  00000	55		 push	 ebp
  00001	8b ec		 mov	 ebp, esp
  00003	83 ec 40	 sub	 esp, 64			; 00000040H
  00006	53		 push	 ebx
  00007	56		 push	 esi
  00008	57		 push	 edi

; 2513 : 	for (; _First != _Last; ++_Dest, ++_First)

  00009	eb 12		 jmp	 SHORT $LN3@Move
$LN2@Move:
  0000b	8b 45 10	 mov	 eax, DWORD PTR __Dest$[ebp]
  0000e	83 c0 20	 add	 eax, 32			; 00000020H
  00011	89 45 10	 mov	 DWORD PTR __Dest$[ebp], eax
  00014	8b 4d 08	 mov	 ecx, DWORD PTR __First$[ebp]
  00017	83 c1 20	 add	 ecx, 32			; 00000020H
  0001a	89 4d 08	 mov	 DWORD PTR __First$[ebp], ecx
$LN3@Move:
  0001d	8b 45 08	 mov	 eax, DWORD PTR __First$[ebp]
  00020	3b 45 0c	 cmp	 eax, DWORD PTR __Last$[ebp]
  00023	74 1a		 je	 SHORT $LN1@Move

; 2514 : 		*_Dest = _STD move(*_First);

  00025	8b 45 08	 mov	 eax, DWORD PTR __First$[ebp]
  00028	50		 push	 eax
  00029	e8 00 00 00 00	 call	 ??$move@AAUBMQuestRandOpt_DATA@@@std@@YA$$QAUBMQuestRandOpt_DATA@@AAU1@@Z ; std::move<BMQuestRandOpt_DATA &>
  0002e	83 c4 04	 add	 esp, 4
  00031	b9 08 00 00 00	 mov	 ecx, 8
  00036	8b f0		 mov	 esi, eax
  00038	8b 7d 10	 mov	 edi, DWORD PTR __Dest$[ebp]
  0003b	f3 a5		 rep movsd
  0003d	eb cc		 jmp	 SHORT $LN2@Move
$LN1@Move:

; 2515 : 	return (_Dest);

  0003f	8b 45 10	 mov	 eax, DWORD PTR __Dest$[ebp]

; 2516 : 	}

  00042	5f		 pop	 edi
  00043	5e		 pop	 esi
  00044	5b		 pop	 ebx
  00045	8b e5		 mov	 esp, ebp
  00047	5d		 pop	 ebp
  00048	c3		 ret	 0
??$_Move@PAUBMQuestRandOpt_DATA@@PAU1@@std@@YAPAUBMQuestRandOpt_DATA@@PAU1@00U_Nonscalar_ptr_iterator_tag@0@@Z ENDP ; std::_Move<BMQuestRandOpt_DATA *,BMQuestRandOpt_DATA *>
_TEXT	ENDS
PUBLIC	??$_Uninit_move@PAUBMQuestRandOpt_DATA@@PAU1@V?$allocator@UBMQuestRandOpt_DATA@@@std@@U1@@std@@YAPAUBMQuestRandOpt_DATA@@PAU1@00AAV?$allocator@UBMQuestRandOpt_DATA@@@0@0U_Nonscalar_ptr_iterator_tag@0@@Z ; std::_Uninit_move<BMQuestRandOpt_DATA *,BMQuestRandOpt_DATA *,std::allocator<BMQuestRandOpt_DATA>,BMQuestRandOpt_DATA>
PUBLIC	??$_Val_type@PAUBMQuestRandOpt_DATA@@@std@@YAPAUBMQuestRandOpt_DATA@@PAU1@@Z ; std::_Val_type<BMQuestRandOpt_DATA *>
; Function compile flags: /Odtp /ZI
; File d:\microsoft visual studio 10.0\vc\include\memory
;	COMDAT ??$_Uninitialized_move@PAUBMQuestRandOpt_DATA@@PAU1@V?$allocator@UBMQuestRandOpt_DATA@@@std@@@std@@YAPAUBMQuestRandOpt_DATA@@PAU1@00AAV?$allocator@UBMQuestRandOpt_DATA@@@0@@Z
_TEXT	SEGMENT
$T221394 = -65						; size = 1
__First$ = 8						; size = 4
__Last$ = 12						; size = 4
__Dest$ = 16						; size = 4
__Al$ = 20						; size = 4
??$_Uninitialized_move@PAUBMQuestRandOpt_DATA@@PAU1@V?$allocator@UBMQuestRandOpt_DATA@@@std@@@std@@YAPAUBMQuestRandOpt_DATA@@PAU1@00AAV?$allocator@UBMQuestRandOpt_DATA@@@0@@Z PROC ; std::_Uninitialized_move<BMQuestRandOpt_DATA *,BMQuestRandOpt_DATA *,std::allocator<BMQuestRandOpt_DATA> >, COMDAT

; 469  : 	{	// move [_First, _Last) to raw _Dest, using _Al

  00000	55		 push	 ebp
  00001	8b ec		 mov	 ebp, esp
  00003	83 ec 44	 sub	 esp, 68			; 00000044H
  00006	53		 push	 ebx
  00007	56		 push	 esi
  00008	57		 push	 edi

; 470  : 	return (_Uninit_move(_First, _Last, _Dest, _Al,
; 471  : 		_Val_type(_First), _Ptr_cat(_First, _Dest)));

  00009	8b 45 10	 mov	 eax, DWORD PTR __Dest$[ebp]
  0000c	50		 push	 eax
  0000d	8b 4d 08	 mov	 ecx, DWORD PTR __First$[ebp]
  00010	51		 push	 ecx
  00011	e8 00 00 00 00	 call	 ??$_Ptr_cat@UBMQuestRandOpt_DATA@@U1@@std@@YA?AU_Nonscalar_ptr_iterator_tag@0@PAUBMQuestRandOpt_DATA@@0@Z ; std::_Ptr_cat<BMQuestRandOpt_DATA,BMQuestRandOpt_DATA>
  00016	83 c4 08	 add	 esp, 8
  00019	88 45 bf	 mov	 BYTE PTR $T221394[ebp], al
  0001c	0f b6 55 bf	 movzx	 edx, BYTE PTR $T221394[ebp]
  00020	52		 push	 edx
  00021	8b 45 08	 mov	 eax, DWORD PTR __First$[ebp]
  00024	50		 push	 eax
  00025	e8 00 00 00 00	 call	 ??$_Val_type@PAUBMQuestRandOpt_DATA@@@std@@YAPAUBMQuestRandOpt_DATA@@PAU1@@Z ; std::_Val_type<BMQuestRandOpt_DATA *>
  0002a	83 c4 04	 add	 esp, 4
  0002d	50		 push	 eax
  0002e	8b 4d 14	 mov	 ecx, DWORD PTR __Al$[ebp]
  00031	51		 push	 ecx
  00032	8b 55 10	 mov	 edx, DWORD PTR __Dest$[ebp]
  00035	52		 push	 edx
  00036	8b 45 0c	 mov	 eax, DWORD PTR __Last$[ebp]
  00039	50		 push	 eax
  0003a	8b 4d 08	 mov	 ecx, DWORD PTR __First$[ebp]
  0003d	51		 push	 ecx
  0003e	e8 00 00 00 00	 call	 ??$_Uninit_move@PAUBMQuestRandOpt_DATA@@PAU1@V?$allocator@UBMQuestRandOpt_DATA@@@std@@U1@@std@@YAPAUBMQuestRandOpt_DATA@@PAU1@00AAV?$allocator@UBMQuestRandOpt_DATA@@@0@0U_Nonscalar_ptr_iterator_tag@0@@Z ; std::_Uninit_move<BMQuestRandOpt_DATA *,BMQuestRandOpt_DATA *,std::allocator<BMQuestRandOpt_DATA>,BMQuestRandOpt_DATA>
  00043	83 c4 18	 add	 esp, 24			; 00000018H

; 472  : 	}

  00046	5f		 pop	 edi
  00047	5e		 pop	 esi
  00048	5b		 pop	 ebx
  00049	8b e5		 mov	 esp, ebp
  0004b	5d		 pop	 ebp
  0004c	c3		 ret	 0
??$_Uninitialized_move@PAUBMQuestRandOpt_DATA@@PAU1@V?$allocator@UBMQuestRandOpt_DATA@@@std@@@std@@YAPAUBMQuestRandOpt_DATA@@PAU1@00AAV?$allocator@UBMQuestRandOpt_DATA@@@0@@Z ENDP ; std::_Uninitialized_move<BMQuestRandOpt_DATA *,BMQuestRandOpt_DATA *,std::allocator<BMQuestRandOpt_DATA> >
_TEXT	ENDS
PUBLIC	??$_Dest_val@V?$allocator@UBMQuestRandOpt_DATA@@@std@@UBMQuestRandOpt_DATA@@@std@@YAXAAV?$allocator@UBMQuestRandOpt_DATA@@@0@PAUBMQuestRandOpt_DATA@@@Z ; std::_Dest_val<std::allocator<BMQuestRandOpt_DATA>,BMQuestRandOpt_DATA>
; Function compile flags: /Odtp /ZI
; File d:\microsoft visual studio 10.0\vc\include\xmemory
;	COMDAT ??$_Destroy_range@V?$allocator@UBMQuestRandOpt_DATA@@@std@@@std@@YAXPAUBMQuestRandOpt_DATA@@0AAV?$allocator@UBMQuestRandOpt_DATA@@@0@U_Nonscalar_ptr_iterator_tag@0@@Z
_TEXT	SEGMENT
__First$ = 8						; size = 4
__Last$ = 12						; size = 4
__Al$ = 16						; size = 4
___formal$ = 20						; size = 1
??$_Destroy_range@V?$allocator@UBMQuestRandOpt_DATA@@@std@@@std@@YAXPAUBMQuestRandOpt_DATA@@0AAV?$allocator@UBMQuestRandOpt_DATA@@@0@U_Nonscalar_ptr_iterator_tag@0@@Z PROC ; std::_Destroy_range<std::allocator<BMQuestRandOpt_DATA> >, COMDAT

; 95   : 	{	// destroy [_First, _Last), arbitrary type

  00000	55		 push	 ebp
  00001	8b ec		 mov	 ebp, esp
  00003	83 ec 40	 sub	 esp, 64			; 00000040H
  00006	53		 push	 ebx
  00007	56		 push	 esi
  00008	57		 push	 edi

; 96   : 	for (; _First != _Last; ++_First)

  00009	eb 09		 jmp	 SHORT $LN3@Destroy_ra
$LN2@Destroy_ra:
  0000b	8b 45 08	 mov	 eax, DWORD PTR __First$[ebp]
  0000e	83 c0 20	 add	 eax, 32			; 00000020H
  00011	89 45 08	 mov	 DWORD PTR __First$[ebp], eax
$LN3@Destroy_ra:
  00014	8b 45 08	 mov	 eax, DWORD PTR __First$[ebp]
  00017	3b 45 0c	 cmp	 eax, DWORD PTR __Last$[ebp]
  0001a	74 12		 je	 SHORT $LN4@Destroy_ra

; 97   : 		_Dest_val(_Al, _First);

  0001c	8b 45 08	 mov	 eax, DWORD PTR __First$[ebp]
  0001f	50		 push	 eax
  00020	8b 4d 10	 mov	 ecx, DWORD PTR __Al$[ebp]
  00023	51		 push	 ecx
  00024	e8 00 00 00 00	 call	 ??$_Dest_val@V?$allocator@UBMQuestRandOpt_DATA@@@std@@UBMQuestRandOpt_DATA@@@std@@YAXAAV?$allocator@UBMQuestRandOpt_DATA@@@0@PAUBMQuestRandOpt_DATA@@@Z ; std::_Dest_val<std::allocator<BMQuestRandOpt_DATA>,BMQuestRandOpt_DATA>
  00029	83 c4 08	 add	 esp, 8
  0002c	eb dd		 jmp	 SHORT $LN2@Destroy_ra
$LN4@Destroy_ra:

; 98   : 	}

  0002e	5f		 pop	 edi
  0002f	5e		 pop	 esi
  00030	5b		 pop	 ebx
  00031	8b e5		 mov	 esp, ebp
  00033	5d		 pop	 ebp
  00034	c3		 ret	 0
??$_Destroy_range@V?$allocator@UBMQuestRandOpt_DATA@@@std@@@std@@YAXPAUBMQuestRandOpt_DATA@@0AAV?$allocator@UBMQuestRandOpt_DATA@@@0@U_Nonscalar_ptr_iterator_tag@0@@Z ENDP ; std::_Destroy_range<std::allocator<BMQuestRandOpt_DATA> >
_TEXT	ENDS
;	COMDAT xdata$x
xdata$x	SEGMENT
__unwindtable$??$_Construct@UBMQuestRandOpt_DATA@@ABU1@@std@@YAXPAUBMQuestRandOpt_DATA@@ABU1@@Z DD 0ffffffffH
	DD	FLAT:__unwindfunclet$??$_Construct@UBMQuestRandOpt_DATA@@ABU1@@std@@YAXPAUBMQuestRandOpt_DATA@@ABU1@@Z$0
__ehfuncinfo$??$_Construct@UBMQuestRandOpt_DATA@@ABU1@@std@@YAXPAUBMQuestRandOpt_DATA@@ABU1@@Z DD 019930522H
	DD	01H
	DD	FLAT:__unwindtable$??$_Construct@UBMQuestRandOpt_DATA@@ABU1@@std@@YAXPAUBMQuestRandOpt_DATA@@ABU1@@Z
	DD	2 DUP(00H)
	DD	2 DUP(00H)
	DD	00H
	DD	01H
; Function compile flags: /Odtp /ZI
xdata$x	ENDS
;	COMDAT ??$_Construct@UBMQuestRandOpt_DATA@@ABU1@@std@@YAXPAUBMQuestRandOpt_DATA@@ABU1@@Z
_TEXT	SEGMENT
tv74 = -92						; size = 4
$T221399 = -88						; size = 4
$T221400 = -84						; size = 4
__Vptr$ = -16						; size = 4
__$EHRec$ = -12						; size = 12
__Ptr$ = 8						; size = 4
__Val$ = 12						; size = 4
??$_Construct@UBMQuestRandOpt_DATA@@ABU1@@std@@YAXPAUBMQuestRandOpt_DATA@@ABU1@@Z PROC ; std::_Construct<BMQuestRandOpt_DATA,BMQuestRandOpt_DATA const &>, COMDAT

; 46   : 	{	// construct object at _Ptr with value _Val

  00000	55		 push	 ebp
  00001	8b ec		 mov	 ebp, esp
  00003	6a ff		 push	 -1
  00005	68 00 00 00 00	 push	 __ehhandler$??$_Construct@UBMQuestRandOpt_DATA@@ABU1@@std@@YAXPAUBMQuestRandOpt_DATA@@ABU1@@Z
  0000a	64 a1 00 00 00
	00		 mov	 eax, DWORD PTR fs:0
  00010	50		 push	 eax
  00011	83 ec 50	 sub	 esp, 80			; 00000050H
  00014	53		 push	 ebx
  00015	56		 push	 esi
  00016	57		 push	 edi
  00017	a1 00 00 00 00	 mov	 eax, DWORD PTR ___security_cookie
  0001c	33 c5		 xor	 eax, ebp
  0001e	50		 push	 eax
  0001f	8d 45 f4	 lea	 eax, DWORD PTR __$EHRec$[ebp]
  00022	64 a3 00 00 00
	00		 mov	 DWORD PTR fs:0, eax

; 47   : 	void _FARQ *_Vptr = _Ptr;

  00028	8b 45 08	 mov	 eax, DWORD PTR __Ptr$[ebp]
  0002b	89 45 f0	 mov	 DWORD PTR __Vptr$[ebp], eax

; 48   : 	::new (_Vptr) _Ty1(_STD forward<_Ty2>(_Val));

  0002e	8b 45 f0	 mov	 eax, DWORD PTR __Vptr$[ebp]
  00031	50		 push	 eax
  00032	6a 20		 push	 32			; 00000020H
  00034	e8 00 00 00 00	 call	 ??2@YAPAXIPAX@Z		; operator new
  00039	83 c4 08	 add	 esp, 8
  0003c	89 45 ac	 mov	 DWORD PTR $T221400[ebp], eax
  0003f	c7 45 fc 00 00
	00 00		 mov	 DWORD PTR __$EHRec$[ebp+8], 0
  00046	83 7d ac 00	 cmp	 DWORD PTR $T221400[ebp], 0
  0004a	74 20		 je	 SHORT $LN3@Construct
  0004c	8b 4d 0c	 mov	 ecx, DWORD PTR __Val$[ebp]
  0004f	51		 push	 ecx
  00050	e8 00 00 00 00	 call	 ??$forward@ABUBMQuestRandOpt_DATA@@@std@@YAABUBMQuestRandOpt_DATA@@ABU1@@Z ; std::forward<BMQuestRandOpt_DATA const &>
  00055	83 c4 04	 add	 esp, 4
  00058	b9 08 00 00 00	 mov	 ecx, 8
  0005d	8b f0		 mov	 esi, eax
  0005f	8b 7d ac	 mov	 edi, DWORD PTR $T221400[ebp]
  00062	f3 a5		 rep movsd
  00064	8b 55 ac	 mov	 edx, DWORD PTR $T221400[ebp]
  00067	89 55 a4	 mov	 DWORD PTR tv74[ebp], edx
  0006a	eb 07		 jmp	 SHORT $LN4@Construct
$LN3@Construct:
  0006c	c7 45 a4 00 00
	00 00		 mov	 DWORD PTR tv74[ebp], 0
$LN4@Construct:
  00073	8b 45 a4	 mov	 eax, DWORD PTR tv74[ebp]
  00076	89 45 a8	 mov	 DWORD PTR $T221399[ebp], eax
  00079	c7 45 fc ff ff
	ff ff		 mov	 DWORD PTR __$EHRec$[ebp+8], -1

; 49   : 	}

  00080	8b 4d f4	 mov	 ecx, DWORD PTR __$EHRec$[ebp]
  00083	64 89 0d 00 00
	00 00		 mov	 DWORD PTR fs:0, ecx
  0008a	59		 pop	 ecx
  0008b	5f		 pop	 edi
  0008c	5e		 pop	 esi
  0008d	5b		 pop	 ebx
  0008e	8b e5		 mov	 esp, ebp
  00090	5d		 pop	 ebp
  00091	c3		 ret	 0
_TEXT	ENDS
;	COMDAT text$x
text$x	SEGMENT
__unwindfunclet$??$_Construct@UBMQuestRandOpt_DATA@@ABU1@@std@@YAXPAUBMQuestRandOpt_DATA@@ABU1@@Z$0:
  00000	8b 45 f0	 mov	 eax, DWORD PTR __Vptr$[ebp]
  00003	50		 push	 eax
  00004	8b 4d ac	 mov	 ecx, DWORD PTR $T221400[ebp]
  00007	51		 push	 ecx
  00008	e8 00 00 00 00	 call	 ??3@YAXPAX0@Z		; operator delete
  0000d	83 c4 08	 add	 esp, 8
  00010	c3		 ret	 0
__ehhandler$??$_Construct@UBMQuestRandOpt_DATA@@ABU1@@std@@YAXPAUBMQuestRandOpt_DATA@@ABU1@@Z:
  00011	8b 54 24 08	 mov	 edx, DWORD PTR [esp+8]
  00015	8d 42 0c	 lea	 eax, DWORD PTR [edx+12]
  00018	8b 4a a0	 mov	 ecx, DWORD PTR [edx-96]
  0001b	33 c8		 xor	 ecx, eax
  0001d	e8 00 00 00 00	 call	 @__security_check_cookie@4
  00022	b8 00 00 00 00	 mov	 eax, OFFSET __ehfuncinfo$??$_Construct@UBMQuestRandOpt_DATA@@ABU1@@std@@YAXPAUBMQuestRandOpt_DATA@@ABU1@@Z
  00027	e9 00 00 00 00	 jmp	 ___CxxFrameHandler3
text$x	ENDS
??$_Construct@UBMQuestRandOpt_DATA@@ABU1@@std@@YAXPAUBMQuestRandOpt_DATA@@ABU1@@Z ENDP ; std::_Construct<BMQuestRandOpt_DATA,BMQuestRandOpt_DATA const &>
; Function compile flags: /Odtp /ZI
; File d:\microsoft visual studio 10.0\vc\include\utility
;	COMDAT ??$move@AAUBMQuestRandOpt_DATA@@@std@@YA$$QAUBMQuestRandOpt_DATA@@AAU1@@Z
_TEXT	SEGMENT
__Arg$ = 8						; size = 4
??$move@AAUBMQuestRandOpt_DATA@@@std@@YA$$QAUBMQuestRandOpt_DATA@@AAU1@@Z PROC ; std::move<BMQuestRandOpt_DATA &>, COMDAT

; 86   : 	{	// forward _Arg as movable

  00000	55		 push	 ebp
  00001	8b ec		 mov	 ebp, esp
  00003	83 ec 40	 sub	 esp, 64			; 00000040H
  00006	53		 push	 ebx
  00007	56		 push	 esi
  00008	57		 push	 edi

; 87   : 	return ((typename tr1::_Remove_reference<_Ty>::_Type&&)_Arg);

  00009	8b 45 08	 mov	 eax, DWORD PTR __Arg$[ebp]

; 88   : 	}

  0000c	5f		 pop	 edi
  0000d	5e		 pop	 esi
  0000e	5b		 pop	 ebx
  0000f	8b e5		 mov	 esp, ebp
  00011	5d		 pop	 ebp
  00012	c3		 ret	 0
??$move@AAUBMQuestRandOpt_DATA@@@std@@YA$$QAUBMQuestRandOpt_DATA@@AAU1@@Z ENDP ; std::move<BMQuestRandOpt_DATA &>
; Function compile flags: /Odtp /ZI
; File d:\microsoft visual studio 10.0\vc\include\xutility
_TEXT	ENDS
;	COMDAT ??$_Val_type@PAUBMQuestRandOpt_DATA@@@std@@YAPAUBMQuestRandOpt_DATA@@PAU1@@Z
_TEXT	SEGMENT
___formal$ = 8						; size = 4
??$_Val_type@PAUBMQuestRandOpt_DATA@@@std@@YAPAUBMQuestRandOpt_DATA@@PAU1@@Z PROC ; std::_Val_type<BMQuestRandOpt_DATA *>, COMDAT

; 789  : 	{	// return value type from arbitrary argument

  00000	55		 push	 ebp
  00001	8b ec		 mov	 ebp, esp
  00003	83 ec 40	 sub	 esp, 64			; 00000040H
  00006	53		 push	 ebx
  00007	56		 push	 esi
  00008	57		 push	 edi

; 790  : 	return (0);

  00009	33 c0		 xor	 eax, eax

; 791  : 	}

  0000b	5f		 pop	 edi
  0000c	5e		 pop	 esi
  0000d	5b		 pop	 ebx
  0000e	8b e5		 mov	 esp, ebp
  00010	5d		 pop	 ebp
  00011	c3		 ret	 0
??$_Val_type@PAUBMQuestRandOpt_DATA@@@std@@YAPAUBMQuestRandOpt_DATA@@PAU1@@Z ENDP ; std::_Val_type<BMQuestRandOpt_DATA *>
_TEXT	ENDS
PUBLIC	??$_Cons_val@V?$allocator@UBMQuestRandOpt_DATA@@@std@@UBMQuestRandOpt_DATA@@U3@@std@@YAXAAV?$allocator@UBMQuestRandOpt_DATA@@@0@PAUBMQuestRandOpt_DATA@@$$QAU2@@Z ; std::_Cons_val<std::allocator<BMQuestRandOpt_DATA>,BMQuestRandOpt_DATA,BMQuestRandOpt_DATA>
;	COMDAT xdata$x
; File d:\microsoft visual studio 10.0\vc\include\memory
xdata$x	SEGMENT
__catchsym$??$_Uninit_move@PAUBMQuestRandOpt_DATA@@PAU1@V?$allocator@UBMQuestRandOpt_DATA@@@std@@U1@@std@@YAPAUBMQuestRandOpt_DATA@@PAU1@00AAV?$allocator@UBMQuestRandOpt_DATA@@@0@0U_Nonscalar_ptr_iterator_tag@0@@Z$2 DD 040H
	DD	00H
	DD	00H
	DD	FLAT:__catch$??$_Uninit_move@PAUBMQuestRandOpt_DATA@@PAU1@V?$allocator@UBMQuestRandOpt_DATA@@@std@@U1@@std@@YAPAUBMQuestRandOpt_DATA@@PAU1@00AAV?$allocator@UBMQuestRandOpt_DATA@@@0@0U_Nonscalar_ptr_iterator_tag@0@@Z$0
__unwindtable$??$_Uninit_move@PAUBMQuestRandOpt_DATA@@PAU1@V?$allocator@UBMQuestRandOpt_DATA@@@std@@U1@@std@@YAPAUBMQuestRandOpt_DATA@@PAU1@00AAV?$allocator@UBMQuestRandOpt_DATA@@@0@0U_Nonscalar_ptr_iterator_tag@0@@Z DD 0ffffffffH
	DD	00H
	DD	0ffffffffH
	DD	00H
__tryblocktable$??$_Uninit_move@PAUBMQuestRandOpt_DATA@@PAU1@V?$allocator@UBMQuestRandOpt_DATA@@@std@@U1@@std@@YAPAUBMQuestRandOpt_DATA@@PAU1@00AAV?$allocator@UBMQuestRandOpt_DATA@@@0@0U_Nonscalar_ptr_iterator_tag@0@@Z DD 00H
	DD	00H
	DD	01H
	DD	01H
	DD	FLAT:__catchsym$??$_Uninit_move@PAUBMQuestRandOpt_DATA@@PAU1@V?$allocator@UBMQuestRandOpt_DATA@@@std@@U1@@std@@YAPAUBMQuestRandOpt_DATA@@PAU1@00AAV?$allocator@UBMQuestRandOpt_DATA@@@0@0U_Nonscalar_ptr_iterator_tag@0@@Z$2
__ehfuncinfo$??$_Uninit_move@PAUBMQuestRandOpt_DATA@@PAU1@V?$allocator@UBMQuestRandOpt_DATA@@@std@@U1@@std@@YAPAUBMQuestRandOpt_DATA@@PAU1@00AAV?$allocator@UBMQuestRandOpt_DATA@@@0@0U_Nonscalar_ptr_iterator_tag@0@@Z DD 019930522H
	DD	02H
	DD	FLAT:__unwindtable$??$_Uninit_move@PAUBMQuestRandOpt_DATA@@PAU1@V?$allocator@UBMQuestRandOpt_DATA@@@std@@U1@@std@@YAPAUBMQuestRandOpt_DATA@@PAU1@00AAV?$allocator@UBMQuestRandOpt_DATA@@@0@0U_Nonscalar_ptr_iterator_tag@0@@Z
	DD	01H
	DD	FLAT:__tryblocktable$??$_Uninit_move@PAUBMQuestRandOpt_DATA@@PAU1@V?$allocator@UBMQuestRandOpt_DATA@@@std@@U1@@std@@YAPAUBMQuestRandOpt_DATA@@PAU1@00AAV?$allocator@UBMQuestRandOpt_DATA@@@0@0U_Nonscalar_ptr_iterator_tag@0@@Z
	DD	2 DUP(00H)
	DD	00H
	DD	01H
; Function compile flags: /Odtp /ZI
xdata$x	ENDS
;	COMDAT ??$_Uninit_move@PAUBMQuestRandOpt_DATA@@PAU1@V?$allocator@UBMQuestRandOpt_DATA@@@std@@U1@@std@@YAPAUBMQuestRandOpt_DATA@@PAU1@00AAV?$allocator@UBMQuestRandOpt_DATA@@@0@0U_Nonscalar_ptr_iterator_tag@0@@Z
_TEXT	SEGMENT
__Next$ = -20						; size = 4
__$EHRec$ = -16						; size = 16
__First$ = 8						; size = 4
__Last$ = 12						; size = 4
__Dest$ = 16						; size = 4
__Al$ = 20						; size = 4
___formal$ = 24						; size = 4
___formal$ = 28						; size = 1
??$_Uninit_move@PAUBMQuestRandOpt_DATA@@PAU1@V?$allocator@UBMQuestRandOpt_DATA@@@std@@U1@@std@@YAPAUBMQuestRandOpt_DATA@@PAU1@00AAV?$allocator@UBMQuestRandOpt_DATA@@@0@0U_Nonscalar_ptr_iterator_tag@0@@Z PROC ; std::_Uninit_move<BMQuestRandOpt_DATA *,BMQuestRandOpt_DATA *,std::allocator<BMQuestRandOpt_DATA>,BMQuestRandOpt_DATA>, COMDAT

; 424  : 	{	// move [_First, _Last) to raw _Dest, using _Al, arbitrary type

  00000	55		 push	 ebp
  00001	8b ec		 mov	 ebp, esp
  00003	6a ff		 push	 -1
  00005	68 00 00 00 00	 push	 __ehhandler$??$_Uninit_move@PAUBMQuestRandOpt_DATA@@PAU1@V?$allocator@UBMQuestRandOpt_DATA@@@std@@U1@@std@@YAPAUBMQuestRandOpt_DATA@@PAU1@00AAV?$allocator@UBMQuestRandOpt_DATA@@@0@0U_Nonscalar_ptr_iterator_tag@0@@Z
  0000a	64 a1 00 00 00
	00		 mov	 eax, DWORD PTR fs:0
  00010	50		 push	 eax
  00011	51		 push	 ecx
  00012	83 ec 44	 sub	 esp, 68			; 00000044H
  00015	53		 push	 ebx
  00016	56		 push	 esi
  00017	57		 push	 edi
  00018	a1 00 00 00 00	 mov	 eax, DWORD PTR ___security_cookie
  0001d	33 c5		 xor	 eax, ebp
  0001f	50		 push	 eax
  00020	8d 45 f4	 lea	 eax, DWORD PTR __$EHRec$[ebp+4]
  00023	64 a3 00 00 00
	00		 mov	 DWORD PTR fs:0, eax
  00029	89 65 f0	 mov	 DWORD PTR __$EHRec$[ebp], esp

; 425  : 	_DEBUG_RANGE(_First, _Last);
; 426  : 	_DEBUG_POINTER(_Dest);
; 427  : 	_FwdIt _Next = _Dest;

  0002c	8b 45 10	 mov	 eax, DWORD PTR __Dest$[ebp]
  0002f	89 45 ec	 mov	 DWORD PTR __Next$[ebp], eax

; 428  : 
; 429  : 	_TRY_BEGIN

  00032	c7 45 fc 00 00
	00 00		 mov	 DWORD PTR __$EHRec$[ebp+12], 0
  00039	eb 12		 jmp	 SHORT $LN6@Uninit_mov
$LN5@Uninit_mov:

; 430  : 	for (; _First != _Last; ++_Dest, ++_First)

  0003b	8b 45 10	 mov	 eax, DWORD PTR __Dest$[ebp]
  0003e	83 c0 20	 add	 eax, 32			; 00000020H
  00041	89 45 10	 mov	 DWORD PTR __Dest$[ebp], eax
  00044	8b 4d 08	 mov	 ecx, DWORD PTR __First$[ebp]
  00047	83 c1 20	 add	 ecx, 32			; 00000020H
  0004a	89 4d 08	 mov	 DWORD PTR __First$[ebp], ecx
$LN6@Uninit_mov:
  0004d	8b 45 08	 mov	 eax, DWORD PTR __First$[ebp]
  00050	3b 45 0c	 cmp	 eax, DWORD PTR __Last$[ebp]
  00053	74 16		 je	 SHORT $LN4@Uninit_mov

; 431  : 		_Cons_val(_Al, _Dest, (_Valty &&)*_First);

  00055	8b 45 08	 mov	 eax, DWORD PTR __First$[ebp]
  00058	50		 push	 eax
  00059	8b 4d 10	 mov	 ecx, DWORD PTR __Dest$[ebp]
  0005c	51		 push	 ecx
  0005d	8b 55 14	 mov	 edx, DWORD PTR __Al$[ebp]
  00060	52		 push	 edx
  00061	e8 00 00 00 00	 call	 ??$_Cons_val@V?$allocator@UBMQuestRandOpt_DATA@@@std@@UBMQuestRandOpt_DATA@@U3@@std@@YAXAAV?$allocator@UBMQuestRandOpt_DATA@@@0@PAUBMQuestRandOpt_DATA@@$$QAU2@@Z ; std::_Cons_val<std::allocator<BMQuestRandOpt_DATA>,BMQuestRandOpt_DATA,BMQuestRandOpt_DATA>
  00066	83 c4 0c	 add	 esp, 12			; 0000000cH
  00069	eb d0		 jmp	 SHORT $LN5@Uninit_mov
$LN4@Uninit_mov:
  0006b	eb 3b		 jmp	 SHORT $LN10@Uninit_mov
__catch$??$_Uninit_move@PAUBMQuestRandOpt_DATA@@PAU1@V?$allocator@UBMQuestRandOpt_DATA@@@std@@U1@@std@@YAPAUBMQuestRandOpt_DATA@@PAU1@00AAV?$allocator@UBMQuestRandOpt_DATA@@@0@0U_Nonscalar_ptr_iterator_tag@0@@Z$0:

; 432  : 	_CATCH_ALL

  0006d	eb 09		 jmp	 SHORT $LN3@Uninit_mov
$LN2@Uninit_mov:

; 433  : 	for (; _Next != _Dest; ++_Next)

  0006f	8b 45 ec	 mov	 eax, DWORD PTR __Next$[ebp]
  00072	83 c0 20	 add	 eax, 32			; 00000020H
  00075	89 45 ec	 mov	 DWORD PTR __Next$[ebp], eax
$LN3@Uninit_mov:
  00078	8b 45 ec	 mov	 eax, DWORD PTR __Next$[ebp]
  0007b	3b 45 10	 cmp	 eax, DWORD PTR __Dest$[ebp]
  0007e	74 12		 je	 SHORT $LN1@Uninit_mov

; 434  : 		_Dest_val(_Al, _Next);

  00080	8b 45 ec	 mov	 eax, DWORD PTR __Next$[ebp]
  00083	50		 push	 eax
  00084	8b 4d 14	 mov	 ecx, DWORD PTR __Al$[ebp]
  00087	51		 push	 ecx
  00088	e8 00 00 00 00	 call	 ??$_Dest_val@V?$allocator@UBMQuestRandOpt_DATA@@@std@@UBMQuestRandOpt_DATA@@@std@@YAXAAV?$allocator@UBMQuestRandOpt_DATA@@@0@PAUBMQuestRandOpt_DATA@@@Z ; std::_Dest_val<std::allocator<BMQuestRandOpt_DATA>,BMQuestRandOpt_DATA>
  0008d	83 c4 08	 add	 esp, 8
  00090	eb dd		 jmp	 SHORT $LN2@Uninit_mov
$LN1@Uninit_mov:

; 435  : 	_RERAISE;

  00092	6a 00		 push	 0
  00094	6a 00		 push	 0
  00096	e8 00 00 00 00	 call	 __CxxThrowException@8

; 436  : 	_CATCH_END

  0009b	c7 45 fc ff ff
	ff ff		 mov	 DWORD PTR __$EHRec$[ebp+12], -1
  000a2	b8 00 00 00 00	 mov	 eax, __tryend$??$_Uninit_move@PAUBMQuestRandOpt_DATA@@PAU1@V?$allocator@UBMQuestRandOpt_DATA@@@std@@U1@@std@@YAPAUBMQuestRandOpt_DATA@@PAU1@00AAV?$allocator@UBMQuestRandOpt_DATA@@@0@0U_Nonscalar_ptr_iterator_tag@0@@Z$1
  000a7	c3		 ret	 0
$LN10@Uninit_mov:
  000a8	c7 45 fc ff ff
	ff ff		 mov	 DWORD PTR __$EHRec$[ebp+12], -1
__tryend$??$_Uninit_move@PAUBMQuestRandOpt_DATA@@PAU1@V?$allocator@UBMQuestRandOpt_DATA@@@std@@U1@@std@@YAPAUBMQuestRandOpt_DATA@@PAU1@00AAV?$allocator@UBMQuestRandOpt_DATA@@@0@0U_Nonscalar_ptr_iterator_tag@0@@Z$1:

; 437  : 	return (_Dest);

  000af	8b 45 10	 mov	 eax, DWORD PTR __Dest$[ebp]
$LN9@Uninit_mov:

; 438  : 	}

  000b2	8b 4d f4	 mov	 ecx, DWORD PTR __$EHRec$[ebp+4]
  000b5	64 89 0d 00 00
	00 00		 mov	 DWORD PTR fs:0, ecx
  000bc	59		 pop	 ecx
  000bd	5f		 pop	 edi
  000be	5e		 pop	 esi
  000bf	5b		 pop	 ebx
  000c0	8b e5		 mov	 esp, ebp
  000c2	5d		 pop	 ebp
  000c3	c3		 ret	 0
_TEXT	ENDS
;	COMDAT text$x
text$x	SEGMENT
__ehhandler$??$_Uninit_move@PAUBMQuestRandOpt_DATA@@PAU1@V?$allocator@UBMQuestRandOpt_DATA@@@std@@U1@@std@@YAPAUBMQuestRandOpt_DATA@@PAU1@00AAV?$allocator@UBMQuestRandOpt_DATA@@@0@0U_Nonscalar_ptr_iterator_tag@0@@Z:
  00000	8b 54 24 08	 mov	 edx, DWORD PTR [esp+8]
  00004	8d 42 0c	 lea	 eax, DWORD PTR [edx+12]
  00007	8b 4a a8	 mov	 ecx, DWORD PTR [edx-88]
  0000a	33 c8		 xor	 ecx, eax
  0000c	e8 00 00 00 00	 call	 @__security_check_cookie@4
  00011	b8 00 00 00 00	 mov	 eax, OFFSET __ehfuncinfo$??$_Uninit_move@PAUBMQuestRandOpt_DATA@@PAU1@V?$allocator@UBMQuestRandOpt_DATA@@@std@@U1@@std@@YAPAUBMQuestRandOpt_DATA@@PAU1@00AAV?$allocator@UBMQuestRandOpt_DATA@@@0@0U_Nonscalar_ptr_iterator_tag@0@@Z
  00016	e9 00 00 00 00	 jmp	 ___CxxFrameHandler3
text$x	ENDS
??$_Uninit_move@PAUBMQuestRandOpt_DATA@@PAU1@V?$allocator@UBMQuestRandOpt_DATA@@@std@@U1@@std@@YAPAUBMQuestRandOpt_DATA@@PAU1@00AAV?$allocator@UBMQuestRandOpt_DATA@@@0@0U_Nonscalar_ptr_iterator_tag@0@@Z ENDP ; std::_Uninit_move<BMQuestRandOpt_DATA *,BMQuestRandOpt_DATA *,std::allocator<BMQuestRandOpt_DATA>,BMQuestRandOpt_DATA>
PUBLIC	?destroy@?$allocator@UBMQuestRandOpt_DATA@@@std@@QAEXPAUBMQuestRandOpt_DATA@@@Z ; std::allocator<BMQuestRandOpt_DATA>::destroy
; Function compile flags: /Odtp /ZI
; File d:\microsoft visual studio 10.0\vc\include\xmemory
;	COMDAT ??$_Dest_val@V?$allocator@UBMQuestRandOpt_DATA@@@std@@UBMQuestRandOpt_DATA@@@std@@YAXAAV?$allocator@UBMQuestRandOpt_DATA@@@0@PAUBMQuestRandOpt_DATA@@@Z
_TEXT	SEGMENT
__Alval$ = 8						; size = 4
__Pdest$ = 12						; size = 4
??$_Dest_val@V?$allocator@UBMQuestRandOpt_DATA@@@std@@UBMQuestRandOpt_DATA@@@std@@YAXAAV?$allocator@UBMQuestRandOpt_DATA@@@0@PAUBMQuestRandOpt_DATA@@@Z PROC ; std::_Dest_val<std::allocator<BMQuestRandOpt_DATA>,BMQuestRandOpt_DATA>, COMDAT

; 286  : 	{	// destroy using allocator

  00000	55		 push	 ebp
  00001	8b ec		 mov	 ebp, esp
  00003	83 ec 40	 sub	 esp, 64			; 00000040H
  00006	53		 push	 ebx
  00007	56		 push	 esi
  00008	57		 push	 edi

; 287  : 	_Alval.destroy(_Pdest);

  00009	8b 45 0c	 mov	 eax, DWORD PTR __Pdest$[ebp]
  0000c	50		 push	 eax
  0000d	8b 4d 08	 mov	 ecx, DWORD PTR __Alval$[ebp]
  00010	e8 00 00 00 00	 call	 ?destroy@?$allocator@UBMQuestRandOpt_DATA@@@std@@QAEXPAUBMQuestRandOpt_DATA@@@Z ; std::allocator<BMQuestRandOpt_DATA>::destroy

; 288  : 	}

  00015	5f		 pop	 edi
  00016	5e		 pop	 esi
  00017	5b		 pop	 ebx
  00018	8b e5		 mov	 esp, ebp
  0001a	5d		 pop	 ebp
  0001b	c3		 ret	 0
??$_Dest_val@V?$allocator@UBMQuestRandOpt_DATA@@@std@@UBMQuestRandOpt_DATA@@@std@@YAXAAV?$allocator@UBMQuestRandOpt_DATA@@@0@PAUBMQuestRandOpt_DATA@@@Z ENDP ; std::_Dest_val<std::allocator<BMQuestRandOpt_DATA>,BMQuestRandOpt_DATA>
_TEXT	ENDS
PUBLIC	??$_Destroy@UBMQuestRandOpt_DATA@@@std@@YAXPAUBMQuestRandOpt_DATA@@@Z ; std::_Destroy<BMQuestRandOpt_DATA>
; Function compile flags: /Odtp /ZI
;	COMDAT ?destroy@?$allocator@UBMQuestRandOpt_DATA@@@std@@QAEXPAUBMQuestRandOpt_DATA@@@Z
_TEXT	SEGMENT
_this$ = -4						; size = 4
__Ptr$ = 8						; size = 4
?destroy@?$allocator@UBMQuestRandOpt_DATA@@@std@@QAEXPAUBMQuestRandOpt_DATA@@@Z PROC ; std::allocator<BMQuestRandOpt_DATA>::destroy, COMDAT
; _this$ = ecx

; 212  : 		{	// destroy object at _Ptr

  00000	55		 push	 ebp
  00001	8b ec		 mov	 ebp, esp
  00003	83 ec 44	 sub	 esp, 68			; 00000044H
  00006	53		 push	 ebx
  00007	56		 push	 esi
  00008	57		 push	 edi
  00009	89 4d fc	 mov	 DWORD PTR _this$[ebp], ecx

; 213  : 		_Destroy(_Ptr);

  0000c	8b 45 08	 mov	 eax, DWORD PTR __Ptr$[ebp]
  0000f	50		 push	 eax
  00010	e8 00 00 00 00	 call	 ??$_Destroy@UBMQuestRandOpt_DATA@@@std@@YAXPAUBMQuestRandOpt_DATA@@@Z ; std::_Destroy<BMQuestRandOpt_DATA>
  00015	83 c4 04	 add	 esp, 4

; 214  : 		}

  00018	5f		 pop	 edi
  00019	5e		 pop	 esi
  0001a	5b		 pop	 ebx
  0001b	8b e5		 mov	 esp, ebp
  0001d	5d		 pop	 ebp
  0001e	c2 04 00	 ret	 4
?destroy@?$allocator@UBMQuestRandOpt_DATA@@@std@@QAEXPAUBMQuestRandOpt_DATA@@@Z ENDP ; std::allocator<BMQuestRandOpt_DATA>::destroy
_TEXT	ENDS
PUBLIC	?construct@?$allocator@UBMQuestRandOpt_DATA@@@std@@QAEXPAUBMQuestRandOpt_DATA@@$$QAU3@@Z ; std::allocator<BMQuestRandOpt_DATA>::construct
PUBLIC	??$forward@UBMQuestRandOpt_DATA@@@std@@YA$$QAUBMQuestRandOpt_DATA@@AAU1@@Z ; std::forward<BMQuestRandOpt_DATA>
; Function compile flags: /Odtp /ZI
;	COMDAT ??$_Cons_val@V?$allocator@UBMQuestRandOpt_DATA@@@std@@UBMQuestRandOpt_DATA@@U3@@std@@YAXAAV?$allocator@UBMQuestRandOpt_DATA@@@0@PAUBMQuestRandOpt_DATA@@$$QAU2@@Z
_TEXT	SEGMENT
__Alval$ = 8						; size = 4
__Pdest$ = 12						; size = 4
__Src$ = 16						; size = 4
??$_Cons_val@V?$allocator@UBMQuestRandOpt_DATA@@@std@@UBMQuestRandOpt_DATA@@U3@@std@@YAXAAV?$allocator@UBMQuestRandOpt_DATA@@@0@PAUBMQuestRandOpt_DATA@@$$QAU2@@Z PROC ; std::_Cons_val<std::allocator<BMQuestRandOpt_DATA>,BMQuestRandOpt_DATA,BMQuestRandOpt_DATA>, COMDAT

; 279  : 	{	// construct using allocator

  00000	55		 push	 ebp
  00001	8b ec		 mov	 ebp, esp
  00003	83 ec 40	 sub	 esp, 64			; 00000040H
  00006	53		 push	 ebx
  00007	56		 push	 esi
  00008	57		 push	 edi

; 280  : 	_Alval.construct(_Pdest, _STD forward<_Ty2>(_Src));

  00009	8b 45 10	 mov	 eax, DWORD PTR __Src$[ebp]
  0000c	50		 push	 eax
  0000d	e8 00 00 00 00	 call	 ??$forward@UBMQuestRandOpt_DATA@@@std@@YA$$QAUBMQuestRandOpt_DATA@@AAU1@@Z ; std::forward<BMQuestRandOpt_DATA>
  00012	83 c4 04	 add	 esp, 4
  00015	50		 push	 eax
  00016	8b 4d 0c	 mov	 ecx, DWORD PTR __Pdest$[ebp]
  00019	51		 push	 ecx
  0001a	8b 4d 08	 mov	 ecx, DWORD PTR __Alval$[ebp]
  0001d	e8 00 00 00 00	 call	 ?construct@?$allocator@UBMQuestRandOpt_DATA@@@std@@QAEXPAUBMQuestRandOpt_DATA@@$$QAU3@@Z ; std::allocator<BMQuestRandOpt_DATA>::construct

; 281  : 	}

  00022	5f		 pop	 edi
  00023	5e		 pop	 esi
  00024	5b		 pop	 ebx
  00025	8b e5		 mov	 esp, ebp
  00027	5d		 pop	 ebp
  00028	c3		 ret	 0
??$_Cons_val@V?$allocator@UBMQuestRandOpt_DATA@@@std@@UBMQuestRandOpt_DATA@@U3@@std@@YAXAAV?$allocator@UBMQuestRandOpt_DATA@@@0@PAUBMQuestRandOpt_DATA@@$$QAU2@@Z ENDP ; std::_Cons_val<std::allocator<BMQuestRandOpt_DATA>,BMQuestRandOpt_DATA,BMQuestRandOpt_DATA>
; Function compile flags: /Odtp /ZI
_TEXT	ENDS
;	COMDAT ??$_Destroy@UBMQuestRandOpt_DATA@@@std@@YAXPAUBMQuestRandOpt_DATA@@@Z
_TEXT	SEGMENT
__Ptr$ = 8						; size = 4
??$_Destroy@UBMQuestRandOpt_DATA@@@std@@YAXPAUBMQuestRandOpt_DATA@@@Z PROC ; std::_Destroy<BMQuestRandOpt_DATA>, COMDAT

; 62   : 	{	// destroy object at _Ptr

  00000	55		 push	 ebp
  00001	8b ec		 mov	 ebp, esp
  00003	83 ec 40	 sub	 esp, 64			; 00000040H
  00006	53		 push	 ebx
  00007	56		 push	 esi
  00008	57		 push	 edi

; 63   : 	_Ptr->~_Ty();
; 64   : 	}

  00009	5f		 pop	 edi
  0000a	5e		 pop	 esi
  0000b	5b		 pop	 ebx
  0000c	8b e5		 mov	 esp, ebp
  0000e	5d		 pop	 ebp
  0000f	c3		 ret	 0
??$_Destroy@UBMQuestRandOpt_DATA@@@std@@YAXPAUBMQuestRandOpt_DATA@@@Z ENDP ; std::_Destroy<BMQuestRandOpt_DATA>
_TEXT	ENDS
;	COMDAT xdata$x
xdata$x	SEGMENT
__unwindtable$?construct@?$allocator@UBMQuestRandOpt_DATA@@@std@@QAEXPAUBMQuestRandOpt_DATA@@$$QAU3@@Z DD 0ffffffffH
	DD	FLAT:__unwindfunclet$?construct@?$allocator@UBMQuestRandOpt_DATA@@@std@@QAEXPAUBMQuestRandOpt_DATA@@$$QAU3@@Z$0
__ehfuncinfo$?construct@?$allocator@UBMQuestRandOpt_DATA@@@std@@QAEXPAUBMQuestRandOpt_DATA@@$$QAU3@@Z DD 019930522H
	DD	01H
	DD	FLAT:__unwindtable$?construct@?$allocator@UBMQuestRandOpt_DATA@@@std@@QAEXPAUBMQuestRandOpt_DATA@@$$QAU3@@Z
	DD	2 DUP(00H)
	DD	2 DUP(00H)
	DD	00H
	DD	01H
; Function compile flags: /Odtp /ZI
xdata$x	ENDS
;	COMDAT ?construct@?$allocator@UBMQuestRandOpt_DATA@@@std@@QAEXPAUBMQuestRandOpt_DATA@@$$QAU3@@Z
_TEXT	SEGMENT
tv74 = -92						; size = 4
$T221439 = -88						; size = 4
$T221440 = -84						; size = 4
_this$ = -16						; size = 4
__$EHRec$ = -12						; size = 12
__Ptr$ = 8						; size = 4
__Val$ = 12						; size = 4
?construct@?$allocator@UBMQuestRandOpt_DATA@@@std@@QAEXPAUBMQuestRandOpt_DATA@@$$QAU3@@Z PROC ; std::allocator<BMQuestRandOpt_DATA>::construct, COMDAT
; _this$ = ecx

; 201  : 		{	// construct object at _Ptr with value _Val

  00000	55		 push	 ebp
  00001	8b ec		 mov	 ebp, esp
  00003	6a ff		 push	 -1
  00005	68 00 00 00 00	 push	 __ehhandler$?construct@?$allocator@UBMQuestRandOpt_DATA@@@std@@QAEXPAUBMQuestRandOpt_DATA@@$$QAU3@@Z
  0000a	64 a1 00 00 00
	00		 mov	 eax, DWORD PTR fs:0
  00010	50		 push	 eax
  00011	83 ec 50	 sub	 esp, 80			; 00000050H
  00014	53		 push	 ebx
  00015	56		 push	 esi
  00016	57		 push	 edi
  00017	a1 00 00 00 00	 mov	 eax, DWORD PTR ___security_cookie
  0001c	33 c5		 xor	 eax, ebp
  0001e	50		 push	 eax
  0001f	8d 45 f4	 lea	 eax, DWORD PTR __$EHRec$[ebp]
  00022	64 a3 00 00 00
	00		 mov	 DWORD PTR fs:0, eax
  00028	89 4d f0	 mov	 DWORD PTR _this$[ebp], ecx

; 202  : 		::new ((void _FARQ *)_Ptr) _Ty(_STD forward<_Ty>(_Val));

  0002b	8b 45 08	 mov	 eax, DWORD PTR __Ptr$[ebp]
  0002e	50		 push	 eax
  0002f	6a 20		 push	 32			; 00000020H
  00031	e8 00 00 00 00	 call	 ??2@YAPAXIPAX@Z		; operator new
  00036	83 c4 08	 add	 esp, 8
  00039	89 45 ac	 mov	 DWORD PTR $T221440[ebp], eax
  0003c	c7 45 fc 00 00
	00 00		 mov	 DWORD PTR __$EHRec$[ebp+8], 0
  00043	83 7d ac 00	 cmp	 DWORD PTR $T221440[ebp], 0
  00047	74 20		 je	 SHORT $LN3@construct@2
  00049	8b 4d 0c	 mov	 ecx, DWORD PTR __Val$[ebp]
  0004c	51		 push	 ecx
  0004d	e8 00 00 00 00	 call	 ??$forward@UBMQuestRandOpt_DATA@@@std@@YA$$QAUBMQuestRandOpt_DATA@@AAU1@@Z ; std::forward<BMQuestRandOpt_DATA>
  00052	83 c4 04	 add	 esp, 4
  00055	b9 08 00 00 00	 mov	 ecx, 8
  0005a	8b f0		 mov	 esi, eax
  0005c	8b 7d ac	 mov	 edi, DWORD PTR $T221440[ebp]
  0005f	f3 a5		 rep movsd
  00061	8b 55 ac	 mov	 edx, DWORD PTR $T221440[ebp]
  00064	89 55 a4	 mov	 DWORD PTR tv74[ebp], edx
  00067	eb 07		 jmp	 SHORT $LN4@construct@2
$LN3@construct@2:
  00069	c7 45 a4 00 00
	00 00		 mov	 DWORD PTR tv74[ebp], 0
$LN4@construct@2:
  00070	8b 45 a4	 mov	 eax, DWORD PTR tv74[ebp]
  00073	89 45 a8	 mov	 DWORD PTR $T221439[ebp], eax
  00076	c7 45 fc ff ff
	ff ff		 mov	 DWORD PTR __$EHRec$[ebp+8], -1

; 203  : 		}

  0007d	8b 4d f4	 mov	 ecx, DWORD PTR __$EHRec$[ebp]
  00080	64 89 0d 00 00
	00 00		 mov	 DWORD PTR fs:0, ecx
  00087	59		 pop	 ecx
  00088	5f		 pop	 edi
  00089	5e		 pop	 esi
  0008a	5b		 pop	 ebx
  0008b	8b e5		 mov	 esp, ebp
  0008d	5d		 pop	 ebp
  0008e	c2 08 00	 ret	 8
_TEXT	ENDS
;	COMDAT text$x
text$x	SEGMENT
__unwindfunclet$?construct@?$allocator@UBMQuestRandOpt_DATA@@@std@@QAEXPAUBMQuestRandOpt_DATA@@$$QAU3@@Z$0:
  00000	8b 45 08	 mov	 eax, DWORD PTR __Ptr$[ebp]
  00003	50		 push	 eax
  00004	8b 4d ac	 mov	 ecx, DWORD PTR $T221440[ebp]
  00007	51		 push	 ecx
  00008	e8 00 00 00 00	 call	 ??3@YAXPAX0@Z		; operator delete
  0000d	83 c4 08	 add	 esp, 8
  00010	c3		 ret	 0
__ehhandler$?construct@?$allocator@UBMQuestRandOpt_DATA@@@std@@QAEXPAUBMQuestRandOpt_DATA@@$$QAU3@@Z:
  00011	8b 54 24 08	 mov	 edx, DWORD PTR [esp+8]
  00015	8d 42 0c	 lea	 eax, DWORD PTR [edx+12]
  00018	8b 4a a0	 mov	 ecx, DWORD PTR [edx-96]
  0001b	33 c8		 xor	 ecx, eax
  0001d	e8 00 00 00 00	 call	 @__security_check_cookie@4
  00022	b8 00 00 00 00	 mov	 eax, OFFSET __ehfuncinfo$?construct@?$allocator@UBMQuestRandOpt_DATA@@@std@@QAEXPAUBMQuestRandOpt_DATA@@$$QAU3@@Z
  00027	e9 00 00 00 00	 jmp	 ___CxxFrameHandler3
text$x	ENDS
?construct@?$allocator@UBMQuestRandOpt_DATA@@@std@@QAEXPAUBMQuestRandOpt_DATA@@$$QAU3@@Z ENDP ; std::allocator<BMQuestRandOpt_DATA>::construct
; Function compile flags: /Odtp /ZI
; File d:\microsoft visual studio 10.0\vc\include\utility
;	COMDAT ??$forward@UBMQuestRandOpt_DATA@@@std@@YA$$QAUBMQuestRandOpt_DATA@@AAU1@@Z
_TEXT	SEGMENT
__Arg$ = 8						; size = 4
??$forward@UBMQuestRandOpt_DATA@@@std@@YA$$QAUBMQuestRandOpt_DATA@@AAU1@@Z PROC ; std::forward<BMQuestRandOpt_DATA>, COMDAT

; 78   : 	{	// forward _Arg, given explicitly specified type parameter

  00000	55		 push	 ebp
  00001	8b ec		 mov	 ebp, esp
  00003	83 ec 40	 sub	 esp, 64			; 00000040H
  00006	53		 push	 ebx
  00007	56		 push	 esi
  00008	57		 push	 edi

; 79   : 	return ((_Ty&&)_Arg);

  00009	8b 45 08	 mov	 eax, DWORD PTR __Arg$[ebp]

; 80   : 	}

  0000c	5f		 pop	 edi
  0000d	5e		 pop	 esi
  0000e	5b		 pop	 ebx
  0000f	8b e5		 mov	 esp, ebp
  00011	5d		 pop	 ebp
  00012	c3		 ret	 0
??$forward@UBMQuestRandOpt_DATA@@@std@@YA$$QAUBMQuestRandOpt_DATA@@AAU1@@Z ENDP ; std::forward<BMQuestRandOpt_DATA>
_TEXT	ENDS
PUBLIC	??_7bad_alloc@std@@6B@				; std::bad_alloc::`vftable'
PUBLIC	??_R4bad_alloc@std@@6B@				; std::bad_alloc::`RTTI Complete Object Locator'
PUBLIC	??_R3bad_alloc@std@@8				; std::bad_alloc::`RTTI Class Hierarchy Descriptor'
PUBLIC	??_R2bad_alloc@std@@8				; std::bad_alloc::`RTTI Base Class Array'
PUBLIC	??_R1A@?0A@EA@bad_alloc@std@@8			; std::bad_alloc::`RTTI Base Class Descriptor at (0,-1,0,64)'
PUBLIC	??_R1A@?0A@EA@exception@std@@8			; std::exception::`RTTI Base Class Descriptor at (0,-1,0,64)'
PUBLIC	??_R3exception@std@@8				; std::exception::`RTTI Class Hierarchy Descriptor'
PUBLIC	??_R2exception@std@@8				; std::exception::`RTTI Base Class Array'
EXTRN	??0exception@std@@QAE@ABQBD@Z:PROC		; std::exception::exception
EXTRN	??_Ebad_alloc@std@@UAEPAXI@Z:PROC		; std::bad_alloc::`vector deleting destructor'
EXTRN	?what@exception@std@@UBEPBDXZ:PROC		; std::exception::what
;	COMDAT ??_R2exception@std@@8
; File d:\microsoft visual studio 10.0\vc\include\exception
rdata$r	SEGMENT
??_R2exception@std@@8 DD FLAT:??_R1A@?0A@EA@exception@std@@8 ; std::exception::`RTTI Base Class Array'
rdata$r	ENDS
;	COMDAT ??_R3exception@std@@8
rdata$r	SEGMENT
??_R3exception@std@@8 DD 00H				; std::exception::`RTTI Class Hierarchy Descriptor'
	DD	00H
	DD	01H
	DD	FLAT:??_R2exception@std@@8
rdata$r	ENDS
;	COMDAT ??_R1A@?0A@EA@exception@std@@8
rdata$r	SEGMENT
??_R1A@?0A@EA@exception@std@@8 DD FLAT:??_R0?AVexception@std@@@8 ; std::exception::`RTTI Base Class Descriptor at (0,-1,0,64)'
	DD	00H
	DD	00H
	DD	0ffffffffH
	DD	00H
	DD	040H
	DD	FLAT:??_R3exception@std@@8
rdata$r	ENDS
;	COMDAT ??_R1A@?0A@EA@bad_alloc@std@@8
rdata$r	SEGMENT
??_R1A@?0A@EA@bad_alloc@std@@8 DD FLAT:??_R0?AVbad_alloc@std@@@8 ; std::bad_alloc::`RTTI Base Class Descriptor at (0,-1,0,64)'
	DD	01H
	DD	00H
	DD	0ffffffffH
	DD	00H
	DD	040H
	DD	FLAT:??_R3bad_alloc@std@@8
rdata$r	ENDS
;	COMDAT ??_R2bad_alloc@std@@8
rdata$r	SEGMENT
??_R2bad_alloc@std@@8 DD FLAT:??_R1A@?0A@EA@bad_alloc@std@@8 ; std::bad_alloc::`RTTI Base Class Array'
	DD	FLAT:??_R1A@?0A@EA@exception@std@@8
rdata$r	ENDS
;	COMDAT ??_R3bad_alloc@std@@8
rdata$r	SEGMENT
??_R3bad_alloc@std@@8 DD 00H				; std::bad_alloc::`RTTI Class Hierarchy Descriptor'
	DD	00H
	DD	02H
	DD	FLAT:??_R2bad_alloc@std@@8
rdata$r	ENDS
;	COMDAT ??_R4bad_alloc@std@@6B@
rdata$r	SEGMENT
??_R4bad_alloc@std@@6B@ DD 00H				; std::bad_alloc::`RTTI Complete Object Locator'
	DD	00H
	DD	00H
	DD	FLAT:??_R0?AVbad_alloc@std@@@8
	DD	FLAT:??_R3bad_alloc@std@@8
rdata$r	ENDS
;	COMDAT ??_7bad_alloc@std@@6B@
CONST	SEGMENT
??_7bad_alloc@std@@6B@ DD FLAT:??_R4bad_alloc@std@@6B@	; std::bad_alloc::`vftable'
	DD	FLAT:??_Ebad_alloc@std@@UAEPAXI@Z
	DD	FLAT:?what@exception@std@@UBEPBDXZ
; Function compile flags: /Odtp /ZI
CONST	ENDS
;	COMDAT ??0bad_alloc@std@@QAE@PBD@Z
_TEXT	SEGMENT
_this$ = -4						; size = 4
__Message$ = 8						; size = 4
??0bad_alloc@std@@QAE@PBD@Z PROC			; std::bad_alloc::bad_alloc, COMDAT
; _this$ = ecx

; 345  : 		{	// construct from message string

  00000	55		 push	 ebp
  00001	8b ec		 mov	 ebp, esp
  00003	83 ec 44	 sub	 esp, 68			; 00000044H
  00006	53		 push	 ebx
  00007	56		 push	 esi
  00008	57		 push	 edi
  00009	89 4d fc	 mov	 DWORD PTR _this$[ebp], ecx
  0000c	8d 45 08	 lea	 eax, DWORD PTR __Message$[ebp]
  0000f	50		 push	 eax
  00010	8b 4d fc	 mov	 ecx, DWORD PTR _this$[ebp]
  00013	e8 00 00 00 00	 call	 ??0exception@std@@QAE@ABQBD@Z ; std::exception::exception
  00018	8b 45 fc	 mov	 eax, DWORD PTR _this$[ebp]
  0001b	c7 00 00 00 00
	00		 mov	 DWORD PTR [eax], OFFSET ??_7bad_alloc@std@@6B@

; 346  : 		}

  00021	8b 45 fc	 mov	 eax, DWORD PTR _this$[ebp]
  00024	5f		 pop	 edi
  00025	5e		 pop	 esi
  00026	5b		 pop	 ebx
  00027	8b e5		 mov	 esp, ebp
  00029	5d		 pop	 ebp
  0002a	c2 04 00	 ret	 4
??0bad_alloc@std@@QAE@PBD@Z ENDP			; std::bad_alloc::bad_alloc
_TEXT	ENDS
EXTRN	??1exception@std@@UAE@XZ:PROC			; std::exception::~exception
; Function compile flags: /Odtp /ZI
;	COMDAT ??1bad_alloc@std@@UAE@XZ
_TEXT	SEGMENT
_this$ = -4						; size = 4
??1bad_alloc@std@@UAE@XZ PROC				; std::bad_alloc::~bad_alloc, COMDAT
; _this$ = ecx

; 354  : 		{	// destroy the object

  00000	55		 push	 ebp
  00001	8b ec		 mov	 ebp, esp
  00003	83 ec 44	 sub	 esp, 68			; 00000044H
  00006	53		 push	 ebx
  00007	56		 push	 esi
  00008	57		 push	 edi
  00009	89 4d fc	 mov	 DWORD PTR _this$[ebp], ecx
  0000c	8b 45 fc	 mov	 eax, DWORD PTR _this$[ebp]
  0000f	c7 00 00 00 00
	00		 mov	 DWORD PTR [eax], OFFSET ??_7bad_alloc@std@@6B@

; 355  : 		}

  00015	8b 4d fc	 mov	 ecx, DWORD PTR _this$[ebp]
  00018	e8 00 00 00 00	 call	 ??1exception@std@@UAE@XZ ; std::exception::~exception
  0001d	5f		 pop	 edi
  0001e	5e		 pop	 esi
  0001f	5b		 pop	 ebx
  00020	8b e5		 mov	 esp, ebp
  00022	5d		 pop	 ebp
  00023	c3		 ret	 0
??1bad_alloc@std@@UAE@XZ ENDP				; std::bad_alloc::~bad_alloc
; Function compile flags: /Odtp /ZI
_TEXT	ENDS
;	COMDAT ??_Gbad_alloc@std@@UAEPAXI@Z
_TEXT	SEGMENT
_this$ = -4						; size = 4
___flags$ = 8						; size = 4
??_Gbad_alloc@std@@UAEPAXI@Z PROC			; std::bad_alloc::`scalar deleting destructor', COMDAT
; _this$ = ecx
  00000	55		 push	 ebp
  00001	8b ec		 mov	 ebp, esp
  00003	83 ec 44	 sub	 esp, 68			; 00000044H
  00006	53		 push	 ebx
  00007	56		 push	 esi
  00008	57		 push	 edi
  00009	89 4d fc	 mov	 DWORD PTR _this$[ebp], ecx
  0000c	8b 4d fc	 mov	 ecx, DWORD PTR _this$[ebp]
  0000f	e8 00 00 00 00	 call	 ??1bad_alloc@std@@UAE@XZ ; std::bad_alloc::~bad_alloc
  00014	8b 45 08	 mov	 eax, DWORD PTR ___flags$[ebp]
  00017	83 e0 01	 and	 eax, 1
  0001a	74 0c		 je	 SHORT $LN1@scalar
  0001c	8b 45 fc	 mov	 eax, DWORD PTR _this$[ebp]
  0001f	50		 push	 eax
  00020	e8 00 00 00 00	 call	 ??3@YAXPAX@Z		; operator delete
  00025	83 c4 04	 add	 esp, 4
$LN1@scalar:
  00028	8b 45 fc	 mov	 eax, DWORD PTR _this$[ebp]
  0002b	5f		 pop	 edi
  0002c	5e		 pop	 esi
  0002d	5b		 pop	 ebx
  0002e	8b e5		 mov	 esp, ebp
  00030	5d		 pop	 ebp
  00031	c2 04 00	 ret	 4
??_Gbad_alloc@std@@UAEPAXI@Z ENDP			; std::bad_alloc::`scalar deleting destructor'
; Function compile flags: /Odtp /ZI
; File d:\microsoft visual studio 10.0\vc\include\xutility
_TEXT	ENDS
;	COMDAT ?_Orphan_all@_Container_base0@std@@QAEXXZ
_TEXT	SEGMENT
_this$ = -4						; size = 4
?_Orphan_all@_Container_base0@std@@QAEXXZ PROC		; std::_Container_base0::_Orphan_all, COMDAT
; _this$ = ecx

; 37   : 		{	// orphan all iterators

  00000	55		 push	 ebp
  00001	8b ec		 mov	 ebp, esp
  00003	83 ec 44	 sub	 esp, 68			; 00000044H
  00006	53		 push	 ebx
  00007	56		 push	 esi
  00008	57		 push	 edi
  00009	89 4d fc	 mov	 DWORD PTR _this$[ebp], ecx

; 38   : 		}

  0000c	5f		 pop	 edi
  0000d	5e		 pop	 esi
  0000e	5b		 pop	 ebx
  0000f	8b e5		 mov	 esp, ebp
  00011	5d		 pop	 ebp
  00012	c3		 ret	 0
?_Orphan_all@_Container_base0@std@@QAEXXZ ENDP		; std::_Container_base0::_Orphan_all
; Function compile flags: /Odtp /ZI
_TEXT	ENDS
;	COMDAT ?_Adopt@_Iterator_base0@std@@QAEXPBX@Z
_TEXT	SEGMENT
_this$ = -4						; size = 4
___formal$ = 8						; size = 4
?_Adopt@_Iterator_base0@std@@QAEXPBX@Z PROC		; std::_Iterator_base0::_Adopt, COMDAT
; _this$ = ecx

; 48   : 		{	// adopt this iterator by parent

  00000	55		 push	 ebp
  00001	8b ec		 mov	 ebp, esp
  00003	83 ec 44	 sub	 esp, 68			; 00000044H
  00006	53		 push	 ebx
  00007	56		 push	 esi
  00008	57		 push	 edi
  00009	89 4d fc	 mov	 DWORD PTR _this$[ebp], ecx

; 49   : 		}

  0000c	5f		 pop	 edi
  0000d	5e		 pop	 esi
  0000e	5b		 pop	 ebx
  0000f	8b e5		 mov	 esp, ebp
  00011	5d		 pop	 ebp
  00012	c2 04 00	 ret	 4
?_Adopt@_Iterator_base0@std@@QAEXPBX@Z ENDP		; std::_Iterator_base0::_Adopt
; Function compile flags: /Odtp /ZI
_TEXT	ENDS
;	COMDAT ??0bad_alloc@std@@QAE@ABV01@@Z
_TEXT	SEGMENT
_this$ = -4						; size = 4
___that$ = 8						; size = 4
??0bad_alloc@std@@QAE@ABV01@@Z PROC			; std::bad_alloc::bad_alloc, COMDAT
; _this$ = ecx
  00000	55		 push	 ebp
  00001	8b ec		 mov	 ebp, esp
  00003	83 ec 44	 sub	 esp, 68			; 00000044H
  00006	53		 push	 ebx
  00007	56		 push	 esi
  00008	57		 push	 edi
  00009	89 4d fc	 mov	 DWORD PTR _this$[ebp], ecx
  0000c	8b 45 08	 mov	 eax, DWORD PTR ___that$[ebp]
  0000f	50		 push	 eax
  00010	8b 4d fc	 mov	 ecx, DWORD PTR _this$[ebp]
  00013	e8 00 00 00 00	 call	 ??0exception@std@@QAE@ABV01@@Z ; std::exception::exception
  00018	8b 45 fc	 mov	 eax, DWORD PTR _this$[ebp]
  0001b	c7 00 00 00 00
	00		 mov	 DWORD PTR [eax], OFFSET ??_7bad_alloc@std@@6B@
  00021	8b 45 fc	 mov	 eax, DWORD PTR _this$[ebp]
  00024	5f		 pop	 edi
  00025	5e		 pop	 esi
  00026	5b		 pop	 ebx
  00027	8b e5		 mov	 esp, ebp
  00029	5d		 pop	 ebp
  0002a	c2 04 00	 ret	 4
??0bad_alloc@std@@QAE@ABV01@@Z ENDP			; std::bad_alloc::bad_alloc
_TEXT	ENDS
PUBLIC	??0cBMQuest@@QAE@XZ				; cBMQuest::cBMQuest
EXTRN	_atexit:PROC
; Function compile flags: /Odtp /ZI
; File d:\projects\exteam6.3\source\gameserver\gameserver\bmquest.cpp
;	COMDAT ??__EBMQuest@@YAXXZ
text$yc	SEGMENT
??__EBMQuest@@YAXXZ PROC				; `dynamic initializer for 'BMQuest'', COMDAT

; 11   : cBMQuest BMQuest;

  00000	55		 push	 ebp
  00001	8b ec		 mov	 ebp, esp
  00003	83 ec 40	 sub	 esp, 64			; 00000040H
  00006	53		 push	 ebx
  00007	56		 push	 esi
  00008	57		 push	 edi
  00009	b9 00 00 00 00	 mov	 ecx, OFFSET ?BMQuest@@3VcBMQuest@@A ; BMQuest
  0000e	e8 00 00 00 00	 call	 ??0cBMQuest@@QAE@XZ
  00013	68 00 00 00 00	 push	 OFFSET ??__FBMQuest@@YAXXZ ; `dynamic atexit destructor for 'BMQuest''
  00018	e8 00 00 00 00	 call	 _atexit
  0001d	83 c4 04	 add	 esp, 4
  00020	5f		 pop	 edi
  00021	5e		 pop	 esi
  00022	5b		 pop	 ebx
  00023	8b e5		 mov	 esp, ebp
  00025	5d		 pop	 ebp
  00026	c3		 ret	 0
??__EBMQuest@@YAXXZ ENDP				; `dynamic initializer for 'BMQuest''
text$yc	ENDS
PUBLIC	??0?$vector@UBMQuestRandOpt_DATA@@V?$allocator@UBMQuestRandOpt_DATA@@@std@@@std@@QAE@XZ ; std::vector<BMQuestRandOpt_DATA,std::allocator<BMQuestRandOpt_DATA> >::vector<BMQuestRandOpt_DATA,std::allocator<BMQuestRandOpt_DATA> >
; Function compile flags: /Odtp /ZI
;	COMDAT ??0cBMQuest@@QAE@XZ
_TEXT	SEGMENT
_this$ = -4						; size = 4
??0cBMQuest@@QAE@XZ PROC				; cBMQuest::cBMQuest, COMDAT
; _this$ = ecx
  00000	55		 push	 ebp
  00001	8b ec		 mov	 ebp, esp
  00003	83 ec 44	 sub	 esp, 68			; 00000044H
  00006	53		 push	 ebx
  00007	56		 push	 esi
  00008	57		 push	 edi
  00009	89 4d fc	 mov	 DWORD PTR _this$[ebp], ecx
  0000c	8b 4d fc	 mov	 ecx, DWORD PTR _this$[ebp]
  0000f	81 c1 40 db 1a
	00		 add	 ecx, 1760064		; 001adb40H
  00015	e8 00 00 00 00	 call	 ??0?$vector@UBMQuestRandOpt_DATA@@V?$allocator@UBMQuestRandOpt_DATA@@@std@@@std@@QAE@XZ ; std::vector<BMQuestRandOpt_DATA,std::allocator<BMQuestRandOpt_DATA> >::vector<BMQuestRandOpt_DATA,std::allocator<BMQuestRandOpt_DATA> >
  0001a	8b 45 fc	 mov	 eax, DWORD PTR _this$[ebp]
  0001d	5f		 pop	 edi
  0001e	5e		 pop	 esi
  0001f	5b		 pop	 ebx
  00020	8b e5		 mov	 esp, ebp
  00022	5d		 pop	 ebp
  00023	c3		 ret	 0
??0cBMQuest@@QAE@XZ ENDP				; cBMQuest::cBMQuest
_TEXT	ENDS
PUBLIC	??0?$_Vector_val@UBMQuestRandOpt_DATA@@V?$allocator@UBMQuestRandOpt_DATA@@@std@@@std@@QAE@V?$allocator@UBMQuestRandOpt_DATA@@@1@@Z ; std::_Vector_val<BMQuestRandOpt_DATA,std::allocator<BMQuestRandOpt_DATA> >::_Vector_val<BMQuestRandOpt_DATA,std::allocator<BMQuestRandOpt_DATA> >
PUBLIC	??0?$allocator@UBMQuestRandOpt_DATA@@@std@@QAE@XZ ; std::allocator<BMQuestRandOpt_DATA>::allocator<BMQuestRandOpt_DATA>
; Function compile flags: /Odtp /ZI
; File d:\microsoft visual studio 10.0\vc\include\vector
;	COMDAT ??0?$vector@UBMQuestRandOpt_DATA@@V?$allocator@UBMQuestRandOpt_DATA@@@std@@@std@@QAE@XZ
_TEXT	SEGMENT
$T221473 = -72						; size = 4
_this$ = -4						; size = 4
??0?$vector@UBMQuestRandOpt_DATA@@V?$allocator@UBMQuestRandOpt_DATA@@@std@@@std@@QAE@XZ PROC ; std::vector<BMQuestRandOpt_DATA,std::allocator<BMQuestRandOpt_DATA> >::vector<BMQuestRandOpt_DATA,std::allocator<BMQuestRandOpt_DATA> >, COMDAT
; _this$ = ecx

; 507  : 		{	// construct empty vector

  00000	55		 push	 ebp
  00001	8b ec		 mov	 ebp, esp
  00003	83 ec 48	 sub	 esp, 72			; 00000048H
  00006	53		 push	 ebx
  00007	56		 push	 esi
  00008	57		 push	 edi
  00009	89 4d fc	 mov	 DWORD PTR _this$[ebp], ecx
  0000c	51		 push	 ecx
  0000d	8b cc		 mov	 ecx, esp
  0000f	89 65 b8	 mov	 DWORD PTR $T221473[ebp], esp
  00012	e8 00 00 00 00	 call	 ??0?$allocator@UBMQuestRandOpt_DATA@@@std@@QAE@XZ ; std::allocator<BMQuestRandOpt_DATA>::allocator<BMQuestRandOpt_DATA>
  00017	8b 4d fc	 mov	 ecx, DWORD PTR _this$[ebp]
  0001a	e8 00 00 00 00	 call	 ??0?$_Vector_val@UBMQuestRandOpt_DATA@@V?$allocator@UBMQuestRandOpt_DATA@@@std@@@std@@QAE@V?$allocator@UBMQuestRandOpt_DATA@@@1@@Z ; std::_Vector_val<BMQuestRandOpt_DATA,std::allocator<BMQuestRandOpt_DATA> >::_Vector_val<BMQuestRandOpt_DATA,std::allocator<BMQuestRandOpt_DATA> >

; 508  : 		}

  0001f	8b 45 fc	 mov	 eax, DWORD PTR _this$[ebp]
  00022	5f		 pop	 edi
  00023	5e		 pop	 esi
  00024	5b		 pop	 ebx
  00025	8b e5		 mov	 esp, ebp
  00027	5d		 pop	 ebp
  00028	c3		 ret	 0
??0?$vector@UBMQuestRandOpt_DATA@@V?$allocator@UBMQuestRandOpt_DATA@@@std@@@std@@QAE@XZ ENDP ; std::vector<BMQuestRandOpt_DATA,std::allocator<BMQuestRandOpt_DATA> >::vector<BMQuestRandOpt_DATA,std::allocator<BMQuestRandOpt_DATA> >
_TEXT	ENDS
PUBLIC	??0?$allocator@UBMQuestRandOpt_DATA@@@std@@QAE@ABV01@@Z ; std::allocator<BMQuestRandOpt_DATA>::allocator<BMQuestRandOpt_DATA>
; Function compile flags: /Odtp /ZI
;	COMDAT ??0?$_Vector_val@UBMQuestRandOpt_DATA@@V?$allocator@UBMQuestRandOpt_DATA@@@std@@@std@@QAE@V?$allocator@UBMQuestRandOpt_DATA@@@1@@Z
_TEXT	SEGMENT
_this$ = -4						; size = 4
__Al$ = 8						; size = 1
??0?$_Vector_val@UBMQuestRandOpt_DATA@@V?$allocator@UBMQuestRandOpt_DATA@@@std@@@std@@QAE@V?$allocator@UBMQuestRandOpt_DATA@@@1@@Z PROC ; std::_Vector_val<BMQuestRandOpt_DATA,std::allocator<BMQuestRandOpt_DATA> >::_Vector_val<BMQuestRandOpt_DATA,std::allocator<BMQuestRandOpt_DATA> >, COMDAT
; _this$ = ecx

; 426  : 		{	// construct allocator from _Al

  00000	55		 push	 ebp
  00001	8b ec		 mov	 ebp, esp
  00003	83 ec 44	 sub	 esp, 68			; 00000044H
  00006	53		 push	 ebx
  00007	56		 push	 esi
  00008	57		 push	 edi
  00009	89 4d fc	 mov	 DWORD PTR _this$[ebp], ecx
  0000c	8d 45 08	 lea	 eax, DWORD PTR __Al$[ebp]
  0000f	50		 push	 eax
  00010	8b 4d fc	 mov	 ecx, DWORD PTR _this$[ebp]
  00013	83 c1 0c	 add	 ecx, 12			; 0000000cH
  00016	e8 00 00 00 00	 call	 ??0?$allocator@UBMQuestRandOpt_DATA@@@std@@QAE@ABV01@@Z ; std::allocator<BMQuestRandOpt_DATA>::allocator<BMQuestRandOpt_DATA>

; 427  : 		_Myfirst = 0;

  0001b	8b 45 fc	 mov	 eax, DWORD PTR _this$[ebp]
  0001e	c7 00 00 00 00
	00		 mov	 DWORD PTR [eax], 0

; 428  : 		_Mylast = 0;

  00024	8b 45 fc	 mov	 eax, DWORD PTR _this$[ebp]
  00027	c7 40 04 00 00
	00 00		 mov	 DWORD PTR [eax+4], 0

; 429  : 		_Myend = 0;

  0002e	8b 45 fc	 mov	 eax, DWORD PTR _this$[ebp]
  00031	c7 40 08 00 00
	00 00		 mov	 DWORD PTR [eax+8], 0

; 430  : 		}

  00038	8b 45 fc	 mov	 eax, DWORD PTR _this$[ebp]
  0003b	5f		 pop	 edi
  0003c	5e		 pop	 esi
  0003d	5b		 pop	 ebx
  0003e	8b e5		 mov	 esp, ebp
  00040	5d		 pop	 ebp
  00041	c2 04 00	 ret	 4
??0?$_Vector_val@UBMQuestRandOpt_DATA@@V?$allocator@UBMQuestRandOpt_DATA@@@std@@@std@@QAE@V?$allocator@UBMQuestRandOpt_DATA@@@1@@Z ENDP ; std::_Vector_val<BMQuestRandOpt_DATA,std::allocator<BMQuestRandOpt_DATA> >::_Vector_val<BMQuestRandOpt_DATA,std::allocator<BMQuestRandOpt_DATA> >
; Function compile flags: /Odtp /ZI
; File d:\microsoft visual studio 10.0\vc\include\xmemory
_TEXT	ENDS
;	COMDAT ??0?$allocator@UBMQuestRandOpt_DATA@@@std@@QAE@XZ
_TEXT	SEGMENT
_this$ = -4						; size = 4
??0?$allocator@UBMQuestRandOpt_DATA@@@std@@QAE@XZ PROC	; std::allocator<BMQuestRandOpt_DATA>::allocator<BMQuestRandOpt_DATA>, COMDAT
; _this$ = ecx

; 161  : 	_ALLOCATOR() _THROW0()

  00000	55		 push	 ebp
  00001	8b ec		 mov	 ebp, esp
  00003	83 ec 44	 sub	 esp, 68			; 00000044H
  00006	53		 push	 ebx
  00007	56		 push	 esi
  00008	57		 push	 edi
  00009	89 4d fc	 mov	 DWORD PTR _this$[ebp], ecx

; 162  : 		{	// construct default allocator (do nothing)
; 163  : 		}

  0000c	8b 45 fc	 mov	 eax, DWORD PTR _this$[ebp]
  0000f	5f		 pop	 edi
  00010	5e		 pop	 esi
  00011	5b		 pop	 ebx
  00012	8b e5		 mov	 esp, ebp
  00014	5d		 pop	 ebp
  00015	c3		 ret	 0
??0?$allocator@UBMQuestRandOpt_DATA@@@std@@QAE@XZ ENDP	; std::allocator<BMQuestRandOpt_DATA>::allocator<BMQuestRandOpt_DATA>
; Function compile flags: /Odtp /ZI
_TEXT	ENDS
;	COMDAT ??0?$allocator@UBMQuestRandOpt_DATA@@@std@@QAE@ABV01@@Z
_TEXT	SEGMENT
_this$ = -4						; size = 4
___formal$ = 8						; size = 4
??0?$allocator@UBMQuestRandOpt_DATA@@@std@@QAE@ABV01@@Z PROC ; std::allocator<BMQuestRandOpt_DATA>::allocator<BMQuestRandOpt_DATA>, COMDAT
; _this$ = ecx

; 165  : 	_ALLOCATOR(const _ALLOCATOR<_Ty>&) _THROW0()

  00000	55		 push	 ebp
  00001	8b ec		 mov	 ebp, esp
  00003	83 ec 44	 sub	 esp, 68			; 00000044H
  00006	53		 push	 ebx
  00007	56		 push	 esi
  00008	57		 push	 edi
  00009	89 4d fc	 mov	 DWORD PTR _this$[ebp], ecx

; 166  : 		{	// construct by copying (do nothing)
; 167  : 		}

  0000c	8b 45 fc	 mov	 eax, DWORD PTR _this$[ebp]
  0000f	5f		 pop	 edi
  00010	5e		 pop	 esi
  00011	5b		 pop	 ebx
  00012	8b e5		 mov	 esp, ebp
  00014	5d		 pop	 ebp
  00015	c2 04 00	 ret	 4
??0?$allocator@UBMQuestRandOpt_DATA@@@std@@QAE@ABV01@@Z ENDP ; std::allocator<BMQuestRandOpt_DATA>::allocator<BMQuestRandOpt_DATA>
_TEXT	ENDS
PUBLIC	??1cBMQuest@@QAE@XZ				; cBMQuest::~cBMQuest
; Function compile flags: /Odtp /ZI
;	COMDAT ??__FBMQuest@@YAXXZ
text$yd	SEGMENT
??__FBMQuest@@YAXXZ PROC				; `dynamic atexit destructor for 'BMQuest'', COMDAT
  00000	55		 push	 ebp
  00001	8b ec		 mov	 ebp, esp
  00003	83 ec 40	 sub	 esp, 64			; 00000040H
  00006	53		 push	 ebx
  00007	56		 push	 esi
  00008	57		 push	 edi
  00009	b9 00 00 00 00	 mov	 ecx, OFFSET ?BMQuest@@3VcBMQuest@@A ; BMQuest
  0000e	e8 00 00 00 00	 call	 ??1cBMQuest@@QAE@XZ
  00013	5f		 pop	 edi
  00014	5e		 pop	 esi
  00015	5b		 pop	 ebx
  00016	8b e5		 mov	 esp, ebp
  00018	5d		 pop	 ebp
  00019	c3		 ret	 0
??__FBMQuest@@YAXXZ ENDP				; `dynamic atexit destructor for 'BMQuest''
text$yd	ENDS
PUBLIC	??1?$vector@UBMQuestRandOpt_DATA@@V?$allocator@UBMQuestRandOpt_DATA@@@std@@@std@@QAE@XZ ; std::vector<BMQuestRandOpt_DATA,std::allocator<BMQuestRandOpt_DATA> >::~vector<BMQuestRandOpt_DATA,std::allocator<BMQuestRandOpt_DATA> >
; Function compile flags: /Odtp /ZI
;	COMDAT ??1cBMQuest@@QAE@XZ
_TEXT	SEGMENT
_this$ = -4						; size = 4
??1cBMQuest@@QAE@XZ PROC				; cBMQuest::~cBMQuest, COMDAT
; _this$ = ecx
  00000	55		 push	 ebp
  00001	8b ec		 mov	 ebp, esp
  00003	83 ec 44	 sub	 esp, 68			; 00000044H
  00006	53		 push	 ebx
  00007	56		 push	 esi
  00008	57		 push	 edi
  00009	89 4d fc	 mov	 DWORD PTR _this$[ebp], ecx
  0000c	8b 4d fc	 mov	 ecx, DWORD PTR _this$[ebp]
  0000f	81 c1 40 db 1a
	00		 add	 ecx, 1760064		; 001adb40H
  00015	e8 00 00 00 00	 call	 ??1?$vector@UBMQuestRandOpt_DATA@@V?$allocator@UBMQuestRandOpt_DATA@@@std@@@std@@QAE@XZ ; std::vector<BMQuestRandOpt_DATA,std::allocator<BMQuestRandOpt_DATA> >::~vector<BMQuestRandOpt_DATA,std::allocator<BMQuestRandOpt_DATA> >
  0001a	5f		 pop	 edi
  0001b	5e		 pop	 esi
  0001c	5b		 pop	 ebx
  0001d	8b e5		 mov	 esp, ebp
  0001f	5d		 pop	 ebp
  00020	c3		 ret	 0
??1cBMQuest@@QAE@XZ ENDP				; cBMQuest::~cBMQuest
_TEXT	ENDS
PUBLIC	??1?$_Vector_val@UBMQuestRandOpt_DATA@@V?$allocator@UBMQuestRandOpt_DATA@@@std@@@std@@QAE@XZ ; std::_Vector_val<BMQuestRandOpt_DATA,std::allocator<BMQuestRandOpt_DATA> >::~_Vector_val<BMQuestRandOpt_DATA,std::allocator<BMQuestRandOpt_DATA> >
PUBLIC	?_Tidy@?$vector@UBMQuestRandOpt_DATA@@V?$allocator@UBMQuestRandOpt_DATA@@@std@@@std@@IAEXXZ ; std::vector<BMQuestRandOpt_DATA,std::allocator<BMQuestRandOpt_DATA> >::_Tidy
;	COMDAT xdata$x
; File d:\microsoft visual studio 10.0\vc\include\vector
xdata$x	SEGMENT
__unwindtable$??1?$vector@UBMQuestRandOpt_DATA@@V?$allocator@UBMQuestRandOpt_DATA@@@std@@@std@@QAE@XZ DD 0ffffffffH
	DD	FLAT:__unwindfunclet$??1?$vector@UBMQuestRandOpt_DATA@@V?$allocator@UBMQuestRandOpt_DATA@@@std@@@std@@QAE@XZ$0
__ehfuncinfo$??1?$vector@UBMQuestRandOpt_DATA@@V?$allocator@UBMQuestRandOpt_DATA@@@std@@@std@@QAE@XZ DD 019930522H
	DD	01H
	DD	FLAT:__unwindtable$??1?$vector@UBMQuestRandOpt_DATA@@V?$allocator@UBMQuestRandOpt_DATA@@@std@@@std@@QAE@XZ
	DD	2 DUP(00H)
	DD	2 DUP(00H)
	DD	00H
	DD	01H
; Function compile flags: /Odtp /ZI
xdata$x	ENDS
;	COMDAT ??1?$vector@UBMQuestRandOpt_DATA@@V?$allocator@UBMQuestRandOpt_DATA@@@std@@@std@@QAE@XZ
_TEXT	SEGMENT
_this$ = -16						; size = 4
__$EHRec$ = -12						; size = 12
??1?$vector@UBMQuestRandOpt_DATA@@V?$allocator@UBMQuestRandOpt_DATA@@@std@@@std@@QAE@XZ PROC ; std::vector<BMQuestRandOpt_DATA,std::allocator<BMQuestRandOpt_DATA> >::~vector<BMQuestRandOpt_DATA,std::allocator<BMQuestRandOpt_DATA> >, COMDAT
; _this$ = ecx

; 704  : 		{	// destroy the object

  00000	55		 push	 ebp
  00001	8b ec		 mov	 ebp, esp
  00003	6a ff		 push	 -1
  00005	68 00 00 00 00	 push	 __ehhandler$??1?$vector@UBMQuestRandOpt_DATA@@V?$allocator@UBMQuestRandOpt_DATA@@@std@@@std@@QAE@XZ
  0000a	64 a1 00 00 00
	00		 mov	 eax, DWORD PTR fs:0
  00010	50		 push	 eax
  00011	83 ec 44	 sub	 esp, 68			; 00000044H
  00014	53		 push	 ebx
  00015	56		 push	 esi
  00016	57		 push	 edi
  00017	a1 00 00 00 00	 mov	 eax, DWORD PTR ___security_cookie
  0001c	33 c5		 xor	 eax, ebp
  0001e	50		 push	 eax
  0001f	8d 45 f4	 lea	 eax, DWORD PTR __$EHRec$[ebp]
  00022	64 a3 00 00 00
	00		 mov	 DWORD PTR fs:0, eax
  00028	89 4d f0	 mov	 DWORD PTR _this$[ebp], ecx
  0002b	c7 45 fc 00 00
	00 00		 mov	 DWORD PTR __$EHRec$[ebp+8], 0

; 705  : 		_Tidy();

  00032	8b 4d f0	 mov	 ecx, DWORD PTR _this$[ebp]
  00035	e8 00 00 00 00	 call	 ?_Tidy@?$vector@UBMQuestRandOpt_DATA@@V?$allocator@UBMQuestRandOpt_DATA@@@std@@@std@@IAEXXZ ; std::vector<BMQuestRandOpt_DATA,std::allocator<BMQuestRandOpt_DATA> >::_Tidy

; 706  : 		}

  0003a	c7 45 fc ff ff
	ff ff		 mov	 DWORD PTR __$EHRec$[ebp+8], -1
  00041	8b 4d f0	 mov	 ecx, DWORD PTR _this$[ebp]
  00044	e8 00 00 00 00	 call	 ??1?$_Vector_val@UBMQuestRandOpt_DATA@@V?$allocator@UBMQuestRandOpt_DATA@@@std@@@std@@QAE@XZ ; std::_Vector_val<BMQuestRandOpt_DATA,std::allocator<BMQuestRandOpt_DATA> >::~_Vector_val<BMQuestRandOpt_DATA,std::allocator<BMQuestRandOpt_DATA> >
  00049	8b 4d f4	 mov	 ecx, DWORD PTR __$EHRec$[ebp]
  0004c	64 89 0d 00 00
	00 00		 mov	 DWORD PTR fs:0, ecx
  00053	59		 pop	 ecx
  00054	5f		 pop	 edi
  00055	5e		 pop	 esi
  00056	5b		 pop	 ebx
  00057	8b e5		 mov	 esp, ebp
  00059	5d		 pop	 ebp
  0005a	c3		 ret	 0
_TEXT	ENDS
;	COMDAT text$x
text$x	SEGMENT
__unwindfunclet$??1?$vector@UBMQuestRandOpt_DATA@@V?$allocator@UBMQuestRandOpt_DATA@@@std@@@std@@QAE@XZ$0:
  00000	8b 4d f0	 mov	 ecx, DWORD PTR _this$[ebp]
  00003	e9 00 00 00 00	 jmp	 ??1?$_Vector_val@UBMQuestRandOpt_DATA@@V?$allocator@UBMQuestRandOpt_DATA@@@std@@@std@@QAE@XZ ; std::_Vector_val<BMQuestRandOpt_DATA,std::allocator<BMQuestRandOpt_DATA> >::~_Vector_val<BMQuestRandOpt_DATA,std::allocator<BMQuestRandOpt_DATA> >
__ehhandler$??1?$vector@UBMQuestRandOpt_DATA@@V?$allocator@UBMQuestRandOpt_DATA@@@std@@@std@@QAE@XZ:
  00008	8b 54 24 08	 mov	 edx, DWORD PTR [esp+8]
  0000c	8d 42 0c	 lea	 eax, DWORD PTR [edx+12]
  0000f	8b 4a ac	 mov	 ecx, DWORD PTR [edx-84]
  00012	33 c8		 xor	 ecx, eax
  00014	e8 00 00 00 00	 call	 @__security_check_cookie@4
  00019	b8 00 00 00 00	 mov	 eax, OFFSET __ehfuncinfo$??1?$vector@UBMQuestRandOpt_DATA@@V?$allocator@UBMQuestRandOpt_DATA@@@std@@@std@@QAE@XZ
  0001e	e9 00 00 00 00	 jmp	 ___CxxFrameHandler3
text$x	ENDS
??1?$vector@UBMQuestRandOpt_DATA@@V?$allocator@UBMQuestRandOpt_DATA@@@std@@@std@@QAE@XZ ENDP ; std::vector<BMQuestRandOpt_DATA,std::allocator<BMQuestRandOpt_DATA> >::~vector<BMQuestRandOpt_DATA,std::allocator<BMQuestRandOpt_DATA> >
; Function compile flags: /Odtp /ZI
;	COMDAT ?_Tidy@?$vector@UBMQuestRandOpt_DATA@@V?$allocator@UBMQuestRandOpt_DATA@@@std@@@std@@IAEXXZ
_TEXT	SEGMENT
_this$ = -4						; size = 4
?_Tidy@?$vector@UBMQuestRandOpt_DATA@@V?$allocator@UBMQuestRandOpt_DATA@@@std@@@std@@IAEXXZ PROC ; std::vector<BMQuestRandOpt_DATA,std::allocator<BMQuestRandOpt_DATA> >::_Tidy, COMDAT
; _this$ = ecx

; 1301 : 		{	// free all storage

  00000	55		 push	 ebp
  00001	8b ec		 mov	 ebp, esp
  00003	83 ec 44	 sub	 esp, 68			; 00000044H
  00006	53		 push	 ebx
  00007	56		 push	 esi
  00008	57		 push	 edi
  00009	89 4d fc	 mov	 DWORD PTR _this$[ebp], ecx

; 1302 : 		if (this->_Myfirst != 0)

  0000c	8b 45 fc	 mov	 eax, DWORD PTR _this$[ebp]
  0000f	83 38 00	 cmp	 DWORD PTR [eax], 0
  00012	74 3d		 je	 SHORT $LN1@Tidy

; 1303 : 			{	// something to free, destroy and deallocate it
; 1304 : 			this->_Orphan_all();

  00014	8b 4d fc	 mov	 ecx, DWORD PTR _this$[ebp]
  00017	e8 00 00 00 00	 call	 ?_Orphan_all@_Container_base0@std@@QAEXXZ ; std::_Container_base0::_Orphan_all

; 1305 : 			_Destroy(this->_Myfirst, this->_Mylast);

  0001c	8b 45 fc	 mov	 eax, DWORD PTR _this$[ebp]
  0001f	8b 48 04	 mov	 ecx, DWORD PTR [eax+4]
  00022	51		 push	 ecx
  00023	8b 55 fc	 mov	 edx, DWORD PTR _this$[ebp]
  00026	8b 02		 mov	 eax, DWORD PTR [edx]
  00028	50		 push	 eax
  00029	8b 4d fc	 mov	 ecx, DWORD PTR _this$[ebp]
  0002c	e8 00 00 00 00	 call	 ?_Destroy@?$vector@UBMQuestRandOpt_DATA@@V?$allocator@UBMQuestRandOpt_DATA@@@std@@@std@@IAEXPAUBMQuestRandOpt_DATA@@0@Z ; std::vector<BMQuestRandOpt_DATA,std::allocator<BMQuestRandOpt_DATA> >::_Destroy

; 1306 : 			this->_Alval.deallocate(this->_Myfirst,
; 1307 : 				this->_Myend - this->_Myfirst);

  00031	8b 45 fc	 mov	 eax, DWORD PTR _this$[ebp]
  00034	8b 4d fc	 mov	 ecx, DWORD PTR _this$[ebp]
  00037	8b 50 08	 mov	 edx, DWORD PTR [eax+8]
  0003a	2b 11		 sub	 edx, DWORD PTR [ecx]
  0003c	c1 fa 05	 sar	 edx, 5
  0003f	52		 push	 edx
  00040	8b 45 fc	 mov	 eax, DWORD PTR _this$[ebp]
  00043	8b 08		 mov	 ecx, DWORD PTR [eax]
  00045	51		 push	 ecx
  00046	8b 4d fc	 mov	 ecx, DWORD PTR _this$[ebp]
  00049	83 c1 0c	 add	 ecx, 12			; 0000000cH
  0004c	e8 00 00 00 00	 call	 ?deallocate@?$allocator@UBMQuestRandOpt_DATA@@@std@@QAEXPAUBMQuestRandOpt_DATA@@I@Z ; std::allocator<BMQuestRandOpt_DATA>::deallocate
$LN1@Tidy:

; 1308 : 			}
; 1309 : 		this->_Myfirst = 0;

  00051	8b 45 fc	 mov	 eax, DWORD PTR _this$[ebp]
  00054	c7 00 00 00 00
	00		 mov	 DWORD PTR [eax], 0

; 1310 : 		this->_Mylast = 0;

  0005a	8b 45 fc	 mov	 eax, DWORD PTR _this$[ebp]
  0005d	c7 40 04 00 00
	00 00		 mov	 DWORD PTR [eax+4], 0

; 1311 : 		this->_Myend = 0;

  00064	8b 45 fc	 mov	 eax, DWORD PTR _this$[ebp]
  00067	c7 40 08 00 00
	00 00		 mov	 DWORD PTR [eax+8], 0

; 1312 : 		}

  0006e	5f		 pop	 edi
  0006f	5e		 pop	 esi
  00070	5b		 pop	 ebx
  00071	8b e5		 mov	 esp, ebp
  00073	5d		 pop	 ebp
  00074	c3		 ret	 0
?_Tidy@?$vector@UBMQuestRandOpt_DATA@@V?$allocator@UBMQuestRandOpt_DATA@@@std@@@std@@IAEXXZ ENDP ; std::vector<BMQuestRandOpt_DATA,std::allocator<BMQuestRandOpt_DATA> >::_Tidy
; Function compile flags: /Odtp /ZI
_TEXT	ENDS
;	COMDAT ??1?$_Vector_val@UBMQuestRandOpt_DATA@@V?$allocator@UBMQuestRandOpt_DATA@@@std@@@std@@QAE@XZ
_TEXT	SEGMENT
_this$ = -4						; size = 4
??1?$_Vector_val@UBMQuestRandOpt_DATA@@V?$allocator@UBMQuestRandOpt_DATA@@@std@@@std@@QAE@XZ PROC ; std::_Vector_val<BMQuestRandOpt_DATA,std::allocator<BMQuestRandOpt_DATA> >::~_Vector_val<BMQuestRandOpt_DATA,std::allocator<BMQuestRandOpt_DATA> >, COMDAT
; _this$ = ecx

; 433  : 		{	// destroy proxy

  00000	55		 push	 ebp
  00001	8b ec		 mov	 ebp, esp
  00003	83 ec 44	 sub	 esp, 68			; 00000044H
  00006	53		 push	 ebx
  00007	56		 push	 esi
  00008	57		 push	 edi
  00009	89 4d fc	 mov	 DWORD PTR _this$[ebp], ecx

; 434  : 		}

  0000c	5f		 pop	 edi
  0000d	5e		 pop	 esi
  0000e	5b		 pop	 ebx
  0000f	8b e5		 mov	 esp, ebp
  00011	5d		 pop	 ebp
  00012	c3		 ret	 0
??1?$_Vector_val@UBMQuestRandOpt_DATA@@V?$allocator@UBMQuestRandOpt_DATA@@@std@@@std@@QAE@XZ ENDP ; std::_Vector_val<BMQuestRandOpt_DATA,std::allocator<BMQuestRandOpt_DATA> >::~_Vector_val<BMQuestRandOpt_DATA,std::allocator<BMQuestRandOpt_DATA> >
_TEXT	ENDS
PUBLIC	?BMQuest@@3VcBMQuest@@A				; BMQuest
_BSS	SEGMENT
?BMQuest@@3VcBMQuest@@A DB 01adb50H DUP (?)		; BMQuest
_BSS	ENDS
CRT$XCU	SEGMENT
_BMQuest$initializer$ DD FLAT:??__EBMQuest@@YAXXZ
CRT$XCU	ENDS
END
