; Listing generated by Microsoft (R) Optimizing Compiler Version 16.00.40219.01 

	TITLE	D:\Projects\ExTeam6.3\Source\GameServer\GameServer\Brotherhood.cpp
	.686P
	.XMM
	include listing.inc
	.model	flat

INCLUDELIB LIBCMT
INCLUDELIB OLDNAMES

PUBLIC	?gBrotherhood@@3VBrotherhood@@A			; gBrotherhood
_BSS	SEGMENT
?gBrotherhood@@3VBrotherhood@@A DB 012914H DUP (?)	; gBrotherhood
_BSS	ENDS
_DATA	SEGMENT
_g_iNpcUpDfLevel_CGATE DD 01H
	DD	02H
	DD	02dc6c0H
	DD	02H
	DD	03H
	DD	02dc6c0H
	DD	03H
	DD	04H
	DD	02dc6c0H
_g_iNpcUpDfLevel_CSTATUE DD 01H
	DD	03H
	DD	02dc6c0H
	DD	02H
	DD	05H
	DD	02dc6c0H
	DD	03H
	DD	07H
	DD	02dc6c0H
_g_iNpcUpMaxHP_CGATE DD 02625a0H
	DD	02H
	DD	0f4240H
	DD	03567e0H
	DD	03H
	DD	0f4240H
	DD	04f5880H
	DD	04H
	DD	0f4240H
_g_iNpcUpMaxHP_CSTATUE DD 02191c0H
	DD	03H
	DD	0f4240H
	DD	033e140H
	DD	05H
	DD	0f4240H
	DD	04c4b40H
	DD	07H
	DD	0f4240H
_g_iNpcUpRgLevel_CSTATUE DD 01H
	DD	03H
	DD	04c4b40H
	DD	02H
	DD	05H
	DD	04c4b40H
	DD	03H
	DD	07H
	DD	04c4b40H
_g_iCsUserReSpawnArea DD 023H
	DD	011H
	DD	090H
	DD	030H
	DD	04aH
	DD	090H
	DD	073H
	DD	09aH
	DD	023H
	DD	011H
	DD	090H
	DD	030H
_g_iNpcDefense_CGATE DD 064H
	DD	0b4H
	DD	012cH
	DD	0208H
_g_iNpcDefense_CSTATUE DD 050H
	DD	0b4H
	DD	0154H
	DD	0226H
_g_iCastleWallStepAxisY DD 071H
	DD	0a0H
	DD	0cbH
_DATA	ENDS
PUBLIC	??_H@YGXPAXIHP6EPAX0@Z@Z			; `vector constructor iterator'
; Function compile flags: /Odtp /ZI
;	COMDAT ??_H@YGXPAXIHP6EPAX0@Z@Z
_TEXT	SEGMENT
___t$ = 8						; size = 4
___s$ = 12						; size = 4
___n$ = 16						; size = 4
___f$ = 20						; size = 4
??_H@YGXPAXIHP6EPAX0@Z@Z PROC				; `vector constructor iterator', COMDAT
  00000	55		 push	 ebp
  00001	8b ec		 mov	 ebp, esp
  00003	83 ec 40	 sub	 esp, 64			; 00000040H
  00006	53		 push	 ebx
  00007	56		 push	 esi
  00008	57		 push	 edi
$LN2@vector:
  00009	8b 45 10	 mov	 eax, DWORD PTR ___n$[ebp]
  0000c	83 e8 01	 sub	 eax, 1
  0000f	89 45 10	 mov	 DWORD PTR ___n$[ebp], eax
  00012	78 11		 js	 SHORT $LN3@vector
  00014	8b 4d 08	 mov	 ecx, DWORD PTR ___t$[ebp]
  00017	ff 55 14	 call	 DWORD PTR ___f$[ebp]
  0001a	8b 45 08	 mov	 eax, DWORD PTR ___t$[ebp]
  0001d	03 45 0c	 add	 eax, DWORD PTR ___s$[ebp]
  00020	89 45 08	 mov	 DWORD PTR ___t$[ebp], eax
  00023	eb e4		 jmp	 SHORT $LN2@vector
$LN3@vector:
  00025	5f		 pop	 edi
  00026	5e		 pop	 esi
  00027	5b		 pop	 ebx
  00028	8b e5		 mov	 esp, ebp
  0002a	5d		 pop	 ebp
  0002b	c2 10 00	 ret	 16			; 00000010H
??_H@YGXPAXIHP6EPAX0@Z@Z ENDP				; `vector constructor iterator'
_TEXT	ENDS
PUBLIC	??_C@_0DJ@GPAKNOIP@?$CFd?5?$CFd?5?$CFd?5?$CFd?5?$CFd?5?$CFd?5?$CFd?5?$CFd?5?$CFd?5?$CFd?5?$CFd@ ; `string'
PUBLIC	??_C@_0P@BPENEPNJ@CRITICAL?5ERROR?$AA@		; `string'
PUBLIC	??_C@_01KDCPPGHE@r?$AA@				; `string'
PUBLIC	??_C@_0O@FNMAFCDN@TeleportWCoin?$AA@		; `string'
PUBLIC	??_C@_0L@GALFOAPI@ExitActive?$AA@		; `string'
PUBLIC	??_C@_0P@EGBIOLDI@TeleportActive?$AA@		; `string'
PUBLIC	??_C@_07COKOJLE@BuyCost?$AA@			; `string'
PUBLIC	??_C@_07PEMHDHCM@BuyType?$AA@			; `string'
PUBLIC	??_C@_0BB@NKLOEMKC@PlusDoubleDamage?$AA@	; `string'
PUBLIC	??_C@_0L@HBCMGFMN@PlusIgnore?$AA@		; `string'
PUBLIC	??_C@_0M@EJBFAHCL@PlusDefence?$AA@		; `string'
PUBLIC	??_C@_0L@HLDAILGI@PlusDamage?$AA@		; `string'
PUBLIC	??_C@_07HHKCFDII@PlusZen?$AA@			; `string'
PUBLIC	??_C@_07LPGHBLLN@PlusExp?$AA@			; `string'
PUBLIC	??_C@_06MLPMCPDE@ExTeam?$AA@			; `string'
PUBLIC	??_C@_06CKGENIKG@Enable?$AA@			; `string'
PUBLIC	??_C@_0BP@PCPNAGOJ@?4?4?2Data?2ExData?2Brotherhood?4txt?$AA@ ; `string'
PUBLIC	__$ArrayPad$
PUBLIC	?Load@Brotherhood@@QAEXXZ			; Brotherhood::Load
EXTRN	_fclose:PROC
EXTRN	_sscanf:PROC
EXTRN	?Ex_IsBadFileLine@@YA_NPADAAH@Z:PROC		; Ex_IsBadFileLine
EXTRN	_fgets:PROC
EXTRN	_feof:PROC
EXTRN	__imp__MessageBoxA@16:PROC
EXTRN	_fopen:PROC
EXTRN	__imp__GetPrivateProfileIntA@16:PROC
EXTRN	?g_ExLicense@@3VCExLicense@@A:BYTE		; g_ExLicense
EXTRN	___security_cookie:DWORD
EXTRN	@__security_check_cookie@4:PROC
;	COMDAT ??_C@_0DJ@GPAKNOIP@?$CFd?5?$CFd?5?$CFd?5?$CFd?5?$CFd?5?$CFd?5?$CFd?5?$CFd?5?$CFd?5?$CFd?5?$CFd@
; File d:\projects\exteam6.3\source\gameserver\gameserver\brotherhood.cpp
CONST	SEGMENT
??_C@_0DJ@GPAKNOIP@?$CFd?5?$CFd?5?$CFd?5?$CFd?5?$CFd?5?$CFd?5?$CFd?5?$CFd?5?$CFd?5?$CFd?5?$CFd@ DB '%'
	DB	'd %d %d %d %d %d %d %d %d %d %d %d %d %d %d %d %d %d %d', 00H ; `string'
CONST	ENDS
;	COMDAT ??_C@_0P@BPENEPNJ@CRITICAL?5ERROR?$AA@
CONST	SEGMENT
??_C@_0P@BPENEPNJ@CRITICAL?5ERROR?$AA@ DB 'CRITICAL ERROR', 00H ; `string'
CONST	ENDS
;	COMDAT ??_C@_01KDCPPGHE@r?$AA@
CONST	SEGMENT
??_C@_01KDCPPGHE@r?$AA@ DB 'r', 00H			; `string'
CONST	ENDS
;	COMDAT ??_C@_0O@FNMAFCDN@TeleportWCoin?$AA@
CONST	SEGMENT
??_C@_0O@FNMAFCDN@TeleportWCoin?$AA@ DB 'TeleportWCoin', 00H ; `string'
CONST	ENDS
;	COMDAT ??_C@_0L@GALFOAPI@ExitActive?$AA@
CONST	SEGMENT
??_C@_0L@GALFOAPI@ExitActive?$AA@ DB 'ExitActive', 00H	; `string'
CONST	ENDS
;	COMDAT ??_C@_0P@EGBIOLDI@TeleportActive?$AA@
CONST	SEGMENT
??_C@_0P@EGBIOLDI@TeleportActive?$AA@ DB 'TeleportActive', 00H ; `string'
CONST	ENDS
;	COMDAT ??_C@_07COKOJLE@BuyCost?$AA@
CONST	SEGMENT
??_C@_07COKOJLE@BuyCost?$AA@ DB 'BuyCost', 00H		; `string'
CONST	ENDS
;	COMDAT ??_C@_07PEMHDHCM@BuyType?$AA@
CONST	SEGMENT
??_C@_07PEMHDHCM@BuyType?$AA@ DB 'BuyType', 00H		; `string'
CONST	ENDS
;	COMDAT ??_C@_0BB@NKLOEMKC@PlusDoubleDamage?$AA@
CONST	SEGMENT
??_C@_0BB@NKLOEMKC@PlusDoubleDamage?$AA@ DB 'PlusDoubleDamage', 00H ; `string'
CONST	ENDS
;	COMDAT ??_C@_0L@HBCMGFMN@PlusIgnore?$AA@
CONST	SEGMENT
??_C@_0L@HBCMGFMN@PlusIgnore?$AA@ DB 'PlusIgnore', 00H	; `string'
CONST	ENDS
;	COMDAT ??_C@_0M@EJBFAHCL@PlusDefence?$AA@
CONST	SEGMENT
??_C@_0M@EJBFAHCL@PlusDefence?$AA@ DB 'PlusDefence', 00H ; `string'
CONST	ENDS
;	COMDAT ??_C@_0L@HLDAILGI@PlusDamage?$AA@
CONST	SEGMENT
??_C@_0L@HLDAILGI@PlusDamage?$AA@ DB 'PlusDamage', 00H	; `string'
CONST	ENDS
;	COMDAT ??_C@_07HHKCFDII@PlusZen?$AA@
CONST	SEGMENT
??_C@_07HHKCFDII@PlusZen?$AA@ DB 'PlusZen', 00H		; `string'
CONST	ENDS
;	COMDAT ??_C@_07LPGHBLLN@PlusExp?$AA@
CONST	SEGMENT
??_C@_07LPGHBLLN@PlusExp?$AA@ DB 'PlusExp', 00H		; `string'
CONST	ENDS
;	COMDAT ??_C@_06MLPMCPDE@ExTeam?$AA@
CONST	SEGMENT
??_C@_06MLPMCPDE@ExTeam?$AA@ DB 'ExTeam', 00H		; `string'
CONST	ENDS
;	COMDAT ??_C@_06CKGENIKG@Enable?$AA@
CONST	SEGMENT
??_C@_06CKGENIKG@Enable?$AA@ DB 'Enable', 00H		; `string'
CONST	ENDS
;	COMDAT ??_C@_0BP@PCPNAGOJ@?4?4?2Data?2ExData?2Brotherhood?4txt?$AA@
CONST	SEGMENT
??_C@_0BP@PCPNAGOJ@?4?4?2Data?2ExData?2Brotherhood?4txt?$AA@ DB '..\Data\'
	DB	'ExData\Brotherhood.txt', 00H		; `string'
; Function compile flags: /Odtp /ZI
CONST	ENDS
_TEXT	SEGMENT
_n$229975 = -348					; size = 76
_Flag$ = -272						; size = 4
_Buff$ = -268						; size = 256
_file$ = -12						; size = 4
_this$ = -8						; size = 4
__$ArrayPad$ = -4					; size = 4
?Load@Brotherhood@@QAEXXZ PROC				; Brotherhood::Load
; _this$ = ecx

; 25   : {

  00000	55		 push	 ebp
  00001	8b ec		 mov	 ebp, esp
  00003	81 ec 9c 01 00
	00		 sub	 esp, 412		; 0000019cH
  00009	a1 00 00 00 00	 mov	 eax, DWORD PTR ___security_cookie
  0000e	33 c5		 xor	 eax, ebp
  00010	89 45 fc	 mov	 DWORD PTR __$ArrayPad$[ebp], eax
  00013	53		 push	 ebx
  00014	56		 push	 esi
  00015	57		 push	 edi
  00016	89 4d f8	 mov	 DWORD PTR _this$[ebp], ecx

; 26   : 	if(g_ExLicense.user.Brotherhood == false)

  00019	0f b6 05 d0 00
	00 00		 movzx	 eax, BYTE PTR ?g_ExLicense@@3VCExLicense@@A+208
  00020	85 c0		 test	 eax, eax
  00022	75 0b		 jne	 SHORT $LN6@Load

; 27   : 	{
; 28   : 		this->Enable = 0;

  00024	8b 45 f8	 mov	 eax, DWORD PTR _this$[ebp]
  00027	c6 00 00	 mov	 BYTE PTR [eax], 0

; 29   : 		return;

  0002a	e9 64 04 00 00	 jmp	 $LN7@Load
$LN6@Load:

; 30   : 	}
; 31   : 
; 32   : 	this->Enable = GetPrivateProfileInt("ExTeam","Enable",0,Brotherhood_DIR);

  0002f	68 00 00 00 00	 push	 OFFSET ??_C@_0BP@PCPNAGOJ@?4?4?2Data?2ExData?2Brotherhood?4txt?$AA@
  00034	6a 00		 push	 0
  00036	68 00 00 00 00	 push	 OFFSET ??_C@_06CKGENIKG@Enable?$AA@
  0003b	68 00 00 00 00	 push	 OFFSET ??_C@_06MLPMCPDE@ExTeam?$AA@
  00040	ff 15 00 00 00
	00		 call	 DWORD PTR __imp__GetPrivateProfileIntA@16
  00046	85 c0		 test	 eax, eax
  00048	0f 95 c0	 setne	 al
  0004b	8b 4d f8	 mov	 ecx, DWORD PTR _this$[ebp]
  0004e	88 01		 mov	 BYTE PTR [ecx], al

; 33   : 	this->PlusExp = GetPrivateProfileInt("ExTeam","PlusExp",0,Brotherhood_DIR);

  00050	68 00 00 00 00	 push	 OFFSET ??_C@_0BP@PCPNAGOJ@?4?4?2Data?2ExData?2Brotherhood?4txt?$AA@
  00055	6a 00		 push	 0
  00057	68 00 00 00 00	 push	 OFFSET ??_C@_07LPGHBLLN@PlusExp?$AA@
  0005c	68 00 00 00 00	 push	 OFFSET ??_C@_06MLPMCPDE@ExTeam?$AA@
  00061	ff 15 00 00 00
	00		 call	 DWORD PTR __imp__GetPrivateProfileIntA@16
  00067	8b 4d f8	 mov	 ecx, DWORD PTR _this$[ebp]
  0006a	89 41 04	 mov	 DWORD PTR [ecx+4], eax

; 34   : 	this->PlusZen = GetPrivateProfileInt("ExTeam","PlusZen",0,Brotherhood_DIR);

  0006d	68 00 00 00 00	 push	 OFFSET ??_C@_0BP@PCPNAGOJ@?4?4?2Data?2ExData?2Brotherhood?4txt?$AA@
  00072	6a 00		 push	 0
  00074	68 00 00 00 00	 push	 OFFSET ??_C@_07HHKCFDII@PlusZen?$AA@
  00079	68 00 00 00 00	 push	 OFFSET ??_C@_06MLPMCPDE@ExTeam?$AA@
  0007e	ff 15 00 00 00
	00		 call	 DWORD PTR __imp__GetPrivateProfileIntA@16
  00084	8b 4d f8	 mov	 ecx, DWORD PTR _this$[ebp]
  00087	89 41 08	 mov	 DWORD PTR [ecx+8], eax

; 35   : 
; 36   : 	this->PlusDamage = GetPrivateProfileInt("ExTeam","PlusDamage",0,Brotherhood_DIR);

  0008a	68 00 00 00 00	 push	 OFFSET ??_C@_0BP@PCPNAGOJ@?4?4?2Data?2ExData?2Brotherhood?4txt?$AA@
  0008f	6a 00		 push	 0
  00091	68 00 00 00 00	 push	 OFFSET ??_C@_0L@HLDAILGI@PlusDamage?$AA@
  00096	68 00 00 00 00	 push	 OFFSET ??_C@_06MLPMCPDE@ExTeam?$AA@
  0009b	ff 15 00 00 00
	00		 call	 DWORD PTR __imp__GetPrivateProfileIntA@16
  000a1	8b 4d f8	 mov	 ecx, DWORD PTR _this$[ebp]
  000a4	89 41 0c	 mov	 DWORD PTR [ecx+12], eax

; 37   : 	this->PlusDefence = GetPrivateProfileInt("ExTeam","PlusDefence",0,Brotherhood_DIR);

  000a7	68 00 00 00 00	 push	 OFFSET ??_C@_0BP@PCPNAGOJ@?4?4?2Data?2ExData?2Brotherhood?4txt?$AA@
  000ac	6a 00		 push	 0
  000ae	68 00 00 00 00	 push	 OFFSET ??_C@_0M@EJBFAHCL@PlusDefence?$AA@
  000b3	68 00 00 00 00	 push	 OFFSET ??_C@_06MLPMCPDE@ExTeam?$AA@
  000b8	ff 15 00 00 00
	00		 call	 DWORD PTR __imp__GetPrivateProfileIntA@16
  000be	8b 4d f8	 mov	 ecx, DWORD PTR _this$[ebp]
  000c1	89 41 10	 mov	 DWORD PTR [ecx+16], eax

; 38   : 	this->PlusIgnore = GetPrivateProfileInt("ExTeam","PlusIgnore",0,Brotherhood_DIR);

  000c4	68 00 00 00 00	 push	 OFFSET ??_C@_0BP@PCPNAGOJ@?4?4?2Data?2ExData?2Brotherhood?4txt?$AA@
  000c9	6a 00		 push	 0
  000cb	68 00 00 00 00	 push	 OFFSET ??_C@_0L@HBCMGFMN@PlusIgnore?$AA@
  000d0	68 00 00 00 00	 push	 OFFSET ??_C@_06MLPMCPDE@ExTeam?$AA@
  000d5	ff 15 00 00 00
	00		 call	 DWORD PTR __imp__GetPrivateProfileIntA@16
  000db	8b 4d f8	 mov	 ecx, DWORD PTR _this$[ebp]
  000de	89 41 14	 mov	 DWORD PTR [ecx+20], eax

; 39   : 	this->PlusDoubleDamage = GetPrivateProfileInt("ExTeam","PlusDoubleDamage",0,Brotherhood_DIR);

  000e1	68 00 00 00 00	 push	 OFFSET ??_C@_0BP@PCPNAGOJ@?4?4?2Data?2ExData?2Brotherhood?4txt?$AA@
  000e6	6a 00		 push	 0
  000e8	68 00 00 00 00	 push	 OFFSET ??_C@_0BB@NKLOEMKC@PlusDoubleDamage?$AA@
  000ed	68 00 00 00 00	 push	 OFFSET ??_C@_06MLPMCPDE@ExTeam?$AA@
  000f2	ff 15 00 00 00
	00		 call	 DWORD PTR __imp__GetPrivateProfileIntA@16
  000f8	8b 4d f8	 mov	 ecx, DWORD PTR _this$[ebp]
  000fb	89 41 18	 mov	 DWORD PTR [ecx+24], eax

; 40   : 
; 41   : 	this->BuyType = GetPrivateProfileInt("ExTeam","BuyType",0,Brotherhood_DIR);

  000fe	68 00 00 00 00	 push	 OFFSET ??_C@_0BP@PCPNAGOJ@?4?4?2Data?2ExData?2Brotherhood?4txt?$AA@
  00103	6a 00		 push	 0
  00105	68 00 00 00 00	 push	 OFFSET ??_C@_07PEMHDHCM@BuyType?$AA@
  0010a	68 00 00 00 00	 push	 OFFSET ??_C@_06MLPMCPDE@ExTeam?$AA@
  0010f	ff 15 00 00 00
	00		 call	 DWORD PTR __imp__GetPrivateProfileIntA@16
  00115	8b 4d f8	 mov	 ecx, DWORD PTR _this$[ebp]
  00118	89 41 1c	 mov	 DWORD PTR [ecx+28], eax

; 42   : 	this->BuyCost = GetPrivateProfileInt("ExTeam","BuyCost",0,Brotherhood_DIR);

  0011b	68 00 00 00 00	 push	 OFFSET ??_C@_0BP@PCPNAGOJ@?4?4?2Data?2ExData?2Brotherhood?4txt?$AA@
  00120	6a 00		 push	 0
  00122	68 00 00 00 00	 push	 OFFSET ??_C@_07COKOJLE@BuyCost?$AA@
  00127	68 00 00 00 00	 push	 OFFSET ??_C@_06MLPMCPDE@ExTeam?$AA@
  0012c	ff 15 00 00 00
	00		 call	 DWORD PTR __imp__GetPrivateProfileIntA@16
  00132	8b 4d f8	 mov	 ecx, DWORD PTR _this$[ebp]
  00135	89 41 20	 mov	 DWORD PTR [ecx+32], eax

; 43   : 
; 44   : 	this->TeleportActive = GetPrivateProfileInt("ExTeam","TeleportActive",1,Brotherhood_DIR);

  00138	68 00 00 00 00	 push	 OFFSET ??_C@_0BP@PCPNAGOJ@?4?4?2Data?2ExData?2Brotherhood?4txt?$AA@
  0013d	6a 01		 push	 1
  0013f	68 00 00 00 00	 push	 OFFSET ??_C@_0P@EGBIOLDI@TeleportActive?$AA@
  00144	68 00 00 00 00	 push	 OFFSET ??_C@_06MLPMCPDE@ExTeam?$AA@
  00149	ff 15 00 00 00
	00		 call	 DWORD PTR __imp__GetPrivateProfileIntA@16
  0014f	8b 4d f8	 mov	 ecx, DWORD PTR _this$[ebp]
  00152	89 41 24	 mov	 DWORD PTR [ecx+36], eax

; 45   : 	this->ExitActive = GetPrivateProfileInt("ExTeam","ExitActive",0,Brotherhood_DIR);

  00155	68 00 00 00 00	 push	 OFFSET ??_C@_0BP@PCPNAGOJ@?4?4?2Data?2ExData?2Brotherhood?4txt?$AA@
  0015a	6a 00		 push	 0
  0015c	68 00 00 00 00	 push	 OFFSET ??_C@_0L@GALFOAPI@ExitActive?$AA@
  00161	68 00 00 00 00	 push	 OFFSET ??_C@_06MLPMCPDE@ExTeam?$AA@
  00166	ff 15 00 00 00
	00		 call	 DWORD PTR __imp__GetPrivateProfileIntA@16
  0016c	8b 4d f8	 mov	 ecx, DWORD PTR _this$[ebp]
  0016f	89 41 28	 mov	 DWORD PTR [ecx+40], eax

; 46   : 
; 47   : 	#if(BROTHER_PAYTELEPORT)
; 48   : 	this->m_TeleportWCoin = GetPrivateProfileInt("ExTeam","TeleportWCoin",0,Brotherhood_DIR);

  00172	68 00 00 00 00	 push	 OFFSET ??_C@_0BP@PCPNAGOJ@?4?4?2Data?2ExData?2Brotherhood?4txt?$AA@
  00177	6a 00		 push	 0
  00179	68 00 00 00 00	 push	 OFFSET ??_C@_0O@FNMAFCDN@TeleportWCoin?$AA@
  0017e	68 00 00 00 00	 push	 OFFSET ??_C@_06MLPMCPDE@ExTeam?$AA@
  00183	ff 15 00 00 00
	00		 call	 DWORD PTR __imp__GetPrivateProfileIntA@16
  00189	8b 4d f8	 mov	 ecx, DWORD PTR _this$[ebp]
  0018c	89 81 10 29 01
	00		 mov	 DWORD PTR [ecx+76048], eax

; 49   : 	#endif
; 50   : 
; 51   : 	FILE *file = fopen(Brotherhood_DIR,"r");

  00192	68 00 00 00 00	 push	 OFFSET ??_C@_01KDCPPGHE@r?$AA@
  00197	68 00 00 00 00	 push	 OFFSET ??_C@_0BP@PCPNAGOJ@?4?4?2Data?2ExData?2Brotherhood?4txt?$AA@
  0019c	e8 00 00 00 00	 call	 _fopen
  001a1	83 c4 08	 add	 esp, 8
  001a4	89 45 f4	 mov	 DWORD PTR _file$[ebp], eax

; 52   : 
; 53   : 	if (file == NULL)

  001a7	83 7d f4 00	 cmp	 DWORD PTR _file$[ebp], 0
  001ab	75 1f		 jne	 SHORT $LN5@Load

; 54   : 	{
; 55   : 		MessageBoxA(0,Brotherhood_DIR,"CRITICAL ERROR",0);

  001ad	6a 00		 push	 0
  001af	68 00 00 00 00	 push	 OFFSET ??_C@_0P@BPENEPNJ@CRITICAL?5ERROR?$AA@
  001b4	68 00 00 00 00	 push	 OFFSET ??_C@_0BP@PCPNAGOJ@?4?4?2Data?2ExData?2Brotherhood?4txt?$AA@
  001b9	6a 00		 push	 0
  001bb	ff 15 00 00 00
	00		 call	 DWORD PTR __imp__MessageBoxA@16

; 56   : 		this->Enable = 0;

  001c1	8b 45 f8	 mov	 eax, DWORD PTR _this$[ebp]
  001c4	c6 00 00	 mov	 BYTE PTR [eax], 0

; 57   : 		return;

  001c7	e9 c7 02 00 00	 jmp	 $LN7@Load
$LN5@Load:

; 58   : 	}
; 59   : 
; 60   : 	this->DropCount = 0;

  001cc	8b 45 f8	 mov	 eax, DWORD PTR _this$[ebp]
  001cf	c7 40 2c 00 00
	00 00		 mov	 DWORD PTR [eax+44], 0

; 61   : 
; 62   : 	char Buff[256];
; 63   : 	int Flag = 0;

  001d6	c7 85 f0 fe ff
	ff 00 00 00 00	 mov	 DWORD PTR _Flag$[ebp], 0
$LN4@Load:

; 64   : 	while (!feof(file))

  001e0	8b 45 f4	 mov	 eax, DWORD PTR _file$[ebp]
  001e3	50		 push	 eax
  001e4	e8 00 00 00 00	 call	 _feof
  001e9	83 c4 04	 add	 esp, 4
  001ec	85 c0		 test	 eax, eax
  001ee	0f 85 93 02 00
	00		 jne	 $LN3@Load

; 65   : 	{
; 66   : 		fgets(Buff,256,file);

  001f4	8b 45 f4	 mov	 eax, DWORD PTR _file$[ebp]
  001f7	50		 push	 eax
  001f8	68 00 01 00 00	 push	 256			; 00000100H
  001fd	8d 8d f4 fe ff
	ff		 lea	 ecx, DWORD PTR _Buff$[ebp]
  00203	51		 push	 ecx
  00204	e8 00 00 00 00	 call	 _fgets
  00209	83 c4 0c	 add	 esp, 12			; 0000000cH

; 67   : 
; 68   : 		if(Ex_IsBadFileLine(Buff, Flag))

  0020c	8d 85 f0 fe ff
	ff		 lea	 eax, DWORD PTR _Flag$[ebp]
  00212	50		 push	 eax
  00213	8d 8d f4 fe ff
	ff		 lea	 ecx, DWORD PTR _Buff$[ebp]
  00219	51		 push	 ecx
  0021a	e8 00 00 00 00	 call	 ?Ex_IsBadFileLine@@YA_NPADAAH@Z ; Ex_IsBadFileLine
  0021f	83 c4 08	 add	 esp, 8
  00222	0f b6 d0	 movzx	 edx, al
  00225	85 d2		 test	 edx, edx
  00227	74 02		 je	 SHORT $LN2@Load

; 69   : 			continue;

  00229	eb b5		 jmp	 SHORT $LN4@Load
$LN2@Load:

; 70   : 
; 71   : 		if (Flag == 1)

  0022b	83 bd f0 fe ff
	ff 01		 cmp	 DWORD PTR _Flag$[ebp], 1
  00232	0f 85 4a 02 00
	00		 jne	 $LN1@Load

; 72   : 		{
; 73   : 			int n[19];
; 74   : 			sscanf(Buff,"%d %d %d %d %d %d %d %d %d %d %d %d %d %d %d %d %d %d %d", &n[0],&n[1],&n[2],&n[3],&n[4],&n[5],&n[6],&n[7],&n[8],&n[9],&n[10],&n[11],&n[12],&n[13],&n[14],&n[15],&n[16],&n[17],&n[18]);

  00238	8d 85 ec fe ff
	ff		 lea	 eax, DWORD PTR _n$229975[ebp+72]
  0023e	50		 push	 eax
  0023f	8d 8d e8 fe ff
	ff		 lea	 ecx, DWORD PTR _n$229975[ebp+68]
  00245	51		 push	 ecx
  00246	8d 95 e4 fe ff
	ff		 lea	 edx, DWORD PTR _n$229975[ebp+64]
  0024c	52		 push	 edx
  0024d	8d 85 e0 fe ff
	ff		 lea	 eax, DWORD PTR _n$229975[ebp+60]
  00253	50		 push	 eax
  00254	8d 8d dc fe ff
	ff		 lea	 ecx, DWORD PTR _n$229975[ebp+56]
  0025a	51		 push	 ecx
  0025b	8d 95 d8 fe ff
	ff		 lea	 edx, DWORD PTR _n$229975[ebp+52]
  00261	52		 push	 edx
  00262	8d 85 d4 fe ff
	ff		 lea	 eax, DWORD PTR _n$229975[ebp+48]
  00268	50		 push	 eax
  00269	8d 8d d0 fe ff
	ff		 lea	 ecx, DWORD PTR _n$229975[ebp+44]
  0026f	51		 push	 ecx
  00270	8d 95 cc fe ff
	ff		 lea	 edx, DWORD PTR _n$229975[ebp+40]
  00276	52		 push	 edx
  00277	8d 85 c8 fe ff
	ff		 lea	 eax, DWORD PTR _n$229975[ebp+36]
  0027d	50		 push	 eax
  0027e	8d 8d c4 fe ff
	ff		 lea	 ecx, DWORD PTR _n$229975[ebp+32]
  00284	51		 push	 ecx
  00285	8d 95 c0 fe ff
	ff		 lea	 edx, DWORD PTR _n$229975[ebp+28]
  0028b	52		 push	 edx
  0028c	8d 85 bc fe ff
	ff		 lea	 eax, DWORD PTR _n$229975[ebp+24]
  00292	50		 push	 eax
  00293	8d 8d b8 fe ff
	ff		 lea	 ecx, DWORD PTR _n$229975[ebp+20]
  00299	51		 push	 ecx
  0029a	8d 95 b4 fe ff
	ff		 lea	 edx, DWORD PTR _n$229975[ebp+16]
  002a0	52		 push	 edx
  002a1	8d 85 b0 fe ff
	ff		 lea	 eax, DWORD PTR _n$229975[ebp+12]
  002a7	50		 push	 eax
  002a8	8d 8d ac fe ff
	ff		 lea	 ecx, DWORD PTR _n$229975[ebp+8]
  002ae	51		 push	 ecx
  002af	8d 95 a8 fe ff
	ff		 lea	 edx, DWORD PTR _n$229975[ebp+4]
  002b5	52		 push	 edx
  002b6	8d 85 a4 fe ff
	ff		 lea	 eax, DWORD PTR _n$229975[ebp]
  002bc	50		 push	 eax
  002bd	68 00 00 00 00	 push	 OFFSET ??_C@_0DJ@GPAKNOIP@?$CFd?5?$CFd?5?$CFd?5?$CFd?5?$CFd?5?$CFd?5?$CFd?5?$CFd?5?$CFd?5?$CFd?5?$CFd@
  002c2	8d 8d f4 fe ff
	ff		 lea	 ecx, DWORD PTR _Buff$[ebp]
  002c8	51		 push	 ecx
  002c9	e8 00 00 00 00	 call	 _sscanf
  002ce	83 c4 54	 add	 esp, 84			; 00000054H

; 75   : 			this->Drop[this->DropCount].Type			= n[0];

  002d1	8b 45 f8	 mov	 eax, DWORD PTR _this$[ebp]
  002d4	8b 48 2c	 mov	 ecx, DWORD PTR [eax+44]
  002d7	6b c9 4c	 imul	 ecx, 76			; 0000004cH
  002da	8b 55 f8	 mov	 edx, DWORD PTR _this$[ebp]
  002dd	8b 85 a4 fe ff
	ff		 mov	 eax, DWORD PTR _n$229975[ebp]
  002e3	89 44 0a 30	 mov	 DWORD PTR [edx+ecx+48], eax

; 76   : 			this->Drop[this->DropCount].Index			= n[1];

  002e7	8b 45 f8	 mov	 eax, DWORD PTR _this$[ebp]
  002ea	8b 48 2c	 mov	 ecx, DWORD PTR [eax+44]
  002ed	6b c9 4c	 imul	 ecx, 76			; 0000004cH
  002f0	8b 55 f8	 mov	 edx, DWORD PTR _this$[ebp]
  002f3	8b 85 a8 fe ff
	ff		 mov	 eax, DWORD PTR _n$229975[ebp+4]
  002f9	89 44 0a 34	 mov	 DWORD PTR [edx+ecx+52], eax

; 77   : 			this->Drop[this->DropCount].MinLevel		= n[2];

  002fd	8b 45 f8	 mov	 eax, DWORD PTR _this$[ebp]
  00300	8b 48 2c	 mov	 ecx, DWORD PTR [eax+44]
  00303	6b c9 4c	 imul	 ecx, 76			; 0000004cH
  00306	8b 55 f8	 mov	 edx, DWORD PTR _this$[ebp]
  00309	8b 85 ac fe ff
	ff		 mov	 eax, DWORD PTR _n$229975[ebp+8]
  0030f	89 44 0a 38	 mov	 DWORD PTR [edx+ecx+56], eax

; 78   : 			this->Drop[this->DropCount].MaxLevel		= n[3];

  00313	8b 45 f8	 mov	 eax, DWORD PTR _this$[ebp]
  00316	8b 48 2c	 mov	 ecx, DWORD PTR [eax+44]
  00319	6b c9 4c	 imul	 ecx, 76			; 0000004cH
  0031c	8b 55 f8	 mov	 edx, DWORD PTR _this$[ebp]
  0031f	8b 85 b0 fe ff
	ff		 mov	 eax, DWORD PTR _n$229975[ebp+12]
  00325	89 44 0a 3c	 mov	 DWORD PTR [edx+ecx+60], eax

; 79   : 			this->Drop[this->DropCount].Dur				= n[4];

  00329	8b 45 f8	 mov	 eax, DWORD PTR _this$[ebp]
  0032c	8b 48 2c	 mov	 ecx, DWORD PTR [eax+44]
  0032f	6b c9 4c	 imul	 ecx, 76			; 0000004cH
  00332	8b 55 f8	 mov	 edx, DWORD PTR _this$[ebp]
  00335	8b 85 b4 fe ff
	ff		 mov	 eax, DWORD PTR _n$229975[ebp+16]
  0033b	89 44 0a 40	 mov	 DWORD PTR [edx+ecx+64], eax

; 80   : 			this->Drop[this->DropCount].OptionRate		= n[5];

  0033f	8b 45 f8	 mov	 eax, DWORD PTR _this$[ebp]
  00342	8b 48 2c	 mov	 ecx, DWORD PTR [eax+44]
  00345	6b c9 4c	 imul	 ecx, 76			; 0000004cH
  00348	8b 55 f8	 mov	 edx, DWORD PTR _this$[ebp]
  0034b	8b 85 b8 fe ff
	ff		 mov	 eax, DWORD PTR _n$229975[ebp+20]
  00351	89 44 0a 44	 mov	 DWORD PTR [edx+ecx+68], eax

; 81   : 			this->Drop[this->DropCount].MaxOption		= n[6];

  00355	8b 45 f8	 mov	 eax, DWORD PTR _this$[ebp]
  00358	8b 48 2c	 mov	 ecx, DWORD PTR [eax+44]
  0035b	6b c9 4c	 imul	 ecx, 76			; 0000004cH
  0035e	8b 55 f8	 mov	 edx, DWORD PTR _this$[ebp]
  00361	8b 85 bc fe ff
	ff		 mov	 eax, DWORD PTR _n$229975[ebp+24]
  00367	89 44 0a 48	 mov	 DWORD PTR [edx+ecx+72], eax

; 82   : 			this->Drop[this->DropCount].LuckRate		= n[7];

  0036b	8b 45 f8	 mov	 eax, DWORD PTR _this$[ebp]
  0036e	8b 48 2c	 mov	 ecx, DWORD PTR [eax+44]
  00371	6b c9 4c	 imul	 ecx, 76			; 0000004cH
  00374	8b 55 f8	 mov	 edx, DWORD PTR _this$[ebp]
  00377	8b 85 c0 fe ff
	ff		 mov	 eax, DWORD PTR _n$229975[ebp+28]
  0037d	89 44 0a 4c	 mov	 DWORD PTR [edx+ecx+76], eax

; 83   : 			this->Drop[this->DropCount].LuckOption		= n[8];

  00381	8b 45 f8	 mov	 eax, DWORD PTR _this$[ebp]
  00384	8b 48 2c	 mov	 ecx, DWORD PTR [eax+44]
  00387	6b c9 4c	 imul	 ecx, 76			; 0000004cH
  0038a	8b 55 f8	 mov	 edx, DWORD PTR _this$[ebp]
  0038d	8b 85 c4 fe ff
	ff		 mov	 eax, DWORD PTR _n$229975[ebp+32]
  00393	89 44 0a 50	 mov	 DWORD PTR [edx+ecx+80], eax

; 84   : 			this->Drop[this->DropCount].SkillRate		= n[9];

  00397	8b 45 f8	 mov	 eax, DWORD PTR _this$[ebp]
  0039a	8b 48 2c	 mov	 ecx, DWORD PTR [eax+44]
  0039d	6b c9 4c	 imul	 ecx, 76			; 0000004cH
  003a0	8b 55 f8	 mov	 edx, DWORD PTR _this$[ebp]
  003a3	8b 85 c8 fe ff
	ff		 mov	 eax, DWORD PTR _n$229975[ebp+36]
  003a9	89 44 0a 54	 mov	 DWORD PTR [edx+ecx+84], eax

; 85   : 			this->Drop[this->DropCount].SkillOption		= n[10];

  003ad	8b 45 f8	 mov	 eax, DWORD PTR _this$[ebp]
  003b0	8b 48 2c	 mov	 ecx, DWORD PTR [eax+44]
  003b3	6b c9 4c	 imul	 ecx, 76			; 0000004cH
  003b6	8b 55 f8	 mov	 edx, DWORD PTR _this$[ebp]
  003b9	8b 85 cc fe ff
	ff		 mov	 eax, DWORD PTR _n$229975[ebp+40]
  003bf	89 44 0a 58	 mov	 DWORD PTR [edx+ecx+88], eax

; 86   : 			this->Drop[this->DropCount].ExlRate			= n[11];

  003c3	8b 45 f8	 mov	 eax, DWORD PTR _this$[ebp]
  003c6	8b 48 2c	 mov	 ecx, DWORD PTR [eax+44]
  003c9	6b c9 4c	 imul	 ecx, 76			; 0000004cH
  003cc	8b 55 f8	 mov	 edx, DWORD PTR _this$[ebp]
  003cf	8b 85 d0 fe ff
	ff		 mov	 eax, DWORD PTR _n$229975[ebp+44]
  003d5	89 44 0a 5c	 mov	 DWORD PTR [edx+ecx+92], eax

; 87   : 			this->Drop[this->DropCount].ExlOption		= n[12];

  003d9	8b 45 f8	 mov	 eax, DWORD PTR _this$[ebp]
  003dc	8b 48 2c	 mov	 ecx, DWORD PTR [eax+44]
  003df	6b c9 4c	 imul	 ecx, 76			; 0000004cH
  003e2	8b 55 f8	 mov	 edx, DWORD PTR _this$[ebp]
  003e5	8b 85 d4 fe ff
	ff		 mov	 eax, DWORD PTR _n$229975[ebp+48]
  003eb	89 44 0a 60	 mov	 DWORD PTR [edx+ecx+96], eax

; 88   : 			this->Drop[this->DropCount].AncRate			= n[13];

  003ef	8b 45 f8	 mov	 eax, DWORD PTR _this$[ebp]
  003f2	8b 48 2c	 mov	 ecx, DWORD PTR [eax+44]
  003f5	6b c9 4c	 imul	 ecx, 76			; 0000004cH
  003f8	8b 55 f8	 mov	 edx, DWORD PTR _this$[ebp]
  003fb	8b 85 d8 fe ff
	ff		 mov	 eax, DWORD PTR _n$229975[ebp+52]
  00401	89 44 0a 64	 mov	 DWORD PTR [edx+ecx+100], eax

; 89   : 			this->Drop[this->DropCount].AncOption		= n[14];

  00405	8b 45 f8	 mov	 eax, DWORD PTR _this$[ebp]
  00408	8b 48 2c	 mov	 ecx, DWORD PTR [eax+44]
  0040b	6b c9 4c	 imul	 ecx, 76			; 0000004cH
  0040e	8b 55 f8	 mov	 edx, DWORD PTR _this$[ebp]
  00411	8b 85 dc fe ff
	ff		 mov	 eax, DWORD PTR _n$229975[ebp+56]
  00417	89 44 0a 68	 mov	 DWORD PTR [edx+ecx+104], eax

; 90   : 			this->Drop[this->DropCount].MonsterMinLevel = n[15];

  0041b	8b 45 f8	 mov	 eax, DWORD PTR _this$[ebp]
  0041e	8b 48 2c	 mov	 ecx, DWORD PTR [eax+44]
  00421	6b c9 4c	 imul	 ecx, 76			; 0000004cH
  00424	8b 55 f8	 mov	 edx, DWORD PTR _this$[ebp]
  00427	8b 85 e0 fe ff
	ff		 mov	 eax, DWORD PTR _n$229975[ebp+60]
  0042d	89 44 0a 6c	 mov	 DWORD PTR [edx+ecx+108], eax

; 91   : 			this->Drop[this->DropCount].MonsterMaxLevel = n[16];

  00431	8b 45 f8	 mov	 eax, DWORD PTR _this$[ebp]
  00434	8b 48 2c	 mov	 ecx, DWORD PTR [eax+44]
  00437	6b c9 4c	 imul	 ecx, 76			; 0000004cH
  0043a	8b 55 f8	 mov	 edx, DWORD PTR _this$[ebp]
  0043d	8b 85 e4 fe ff
	ff		 mov	 eax, DWORD PTR _n$229975[ebp+64]
  00443	89 44 0a 70	 mov	 DWORD PTR [edx+ecx+112], eax

; 92   : 			this->Drop[this->DropCount].MonsterMap		= n[17];

  00447	8b 45 f8	 mov	 eax, DWORD PTR _this$[ebp]
  0044a	8b 48 2c	 mov	 ecx, DWORD PTR [eax+44]
  0044d	6b c9 4c	 imul	 ecx, 76			; 0000004cH
  00450	8b 55 f8	 mov	 edx, DWORD PTR _this$[ebp]
  00453	8b 85 e8 fe ff
	ff		 mov	 eax, DWORD PTR _n$229975[ebp+68]
  00459	89 44 0a 74	 mov	 DWORD PTR [edx+ecx+116], eax

; 93   : 			this->Drop[this->DropCount].ItemDropRate	= n[18];

  0045d	8b 45 f8	 mov	 eax, DWORD PTR _this$[ebp]
  00460	8b 48 2c	 mov	 ecx, DWORD PTR [eax+44]
  00463	6b c9 4c	 imul	 ecx, 76			; 0000004cH
  00466	8b 55 f8	 mov	 edx, DWORD PTR _this$[ebp]
  00469	8b 85 ec fe ff
	ff		 mov	 eax, DWORD PTR _n$229975[ebp+72]
  0046f	89 44 0a 78	 mov	 DWORD PTR [edx+ecx+120], eax

; 94   : 			this->DropCount++;

  00473	8b 45 f8	 mov	 eax, DWORD PTR _this$[ebp]
  00476	8b 48 2c	 mov	 ecx, DWORD PTR [eax+44]
  00479	83 c1 01	 add	 ecx, 1
  0047c	8b 55 f8	 mov	 edx, DWORD PTR _this$[ebp]
  0047f	89 4a 2c	 mov	 DWORD PTR [edx+44], ecx
$LN1@Load:

; 95   : 		}
; 96   : 
; 97   : 	}

  00482	e9 59 fd ff ff	 jmp	 $LN4@Load
$LN3@Load:

; 98   : 	fclose(file);

  00487	8b 45 f4	 mov	 eax, DWORD PTR _file$[ebp]
  0048a	50		 push	 eax
  0048b	e8 00 00 00 00	 call	 _fclose
  00490	83 c4 04	 add	 esp, 4
$LN7@Load:

; 99   : }

  00493	5f		 pop	 edi
  00494	5e		 pop	 esi
  00495	5b		 pop	 ebx
  00496	8b 4d fc	 mov	 ecx, DWORD PTR __$ArrayPad$[ebp]
  00499	33 cd		 xor	 ecx, ebp
  0049b	e8 00 00 00 00	 call	 @__security_check_cookie@4
  004a0	8b e5		 mov	 esp, ebp
  004a2	5d		 pop	 ebp
  004a3	c3		 ret	 0
?Load@Brotherhood@@QAEXXZ ENDP				; Brotherhood::Load
_TEXT	ENDS
PUBLIC	??_C@_03EHAPBBEA@One?$AA@			; `string'
PUBLIC	?ActiveBrother@Brotherhood@@QAE_NPAUOBJECTSTRUCT@@@Z ; Brotherhood::ActiveBrother
EXTRN	?gParty@@3VPartyClass@@A:BYTE			; gParty
EXTRN	?g_MaxPartyMember@@3HA:DWORD			; g_MaxPartyMember
EXTRN	_strncmp:PROC
EXTRN	?gObj@@3PAUOBJECTSTRUCT@@A:DWORD		; gObj
EXTRN	?CheckUser@CExLicense@@QAE_NH@Z:PROC		; CExLicense::CheckUser
EXTRN	_strcmp:PROC
;	COMDAT ??_C@_03EHAPBBEA@One?$AA@
CONST	SEGMENT
??_C@_03EHAPBBEA@One?$AA@ DB 'One', 00H			; `string'
; Function compile flags: /Odtp /ZI
CONST	ENDS
_TEXT	SEGMENT
_LpBrother$230005 = -32					; size = 4
_n$229999 = -28						; size = 4
_number$229998 = -24					; size = 4
_LpBrother$229993 = -20					; size = 4
_n$229988 = -16						; size = 4
_Countbr$229987 = -12					; size = 4
_partynum$ = -8						; size = 4
_this$ = -4						; size = 4
_lpObj$ = 8						; size = 4
?ActiveBrother@Brotherhood@@QAE_NPAUOBJECTSTRUCT@@@Z PROC ; Brotherhood::ActiveBrother
; _this$ = ecx

; 102  : {

  004b0	55		 push	 ebp
  004b1	8b ec		 mov	 ebp, esp
  004b3	83 ec 60	 sub	 esp, 96			; 00000060H
  004b6	53		 push	 ebx
  004b7	56		 push	 esi
  004b8	57		 push	 edi
  004b9	89 4d fc	 mov	 DWORD PTR _this$[ebp], ecx

; 103  : 	if(!this->Enable) return false;

  004bc	8b 45 fc	 mov	 eax, DWORD PTR _this$[ebp]
  004bf	0f b6 08	 movzx	 ecx, BYTE PTR [eax]
  004c2	85 c9		 test	 ecx, ecx
  004c4	75 07		 jne	 SHORT $LN19@ActiveBrot
  004c6	32 c0		 xor	 al, al
  004c8	e9 90 01 00 00	 jmp	 $LN20@ActiveBrot
$LN19@ActiveBrot:

; 104  : 
; 105  : #ifdef BR_DEBUG
; 106  : 	return true;
; 107  : #endif
; 108  : 
; 109  : 	int	partynum = lpObj->PartyNumber;

  004cd	8b 45 08	 mov	 eax, DWORD PTR _lpObj$[ebp]
  004d0	8b 88 2c 04 00
	00		 mov	 ecx, DWORD PTR [eax+1068]
  004d6	89 4d f8	 mov	 DWORD PTR _partynum$[ebp], ecx

; 110  : 
; 111  : 	if(!strcmp(lpObj->Brotherhood,"One"))

  004d9	68 00 00 00 00	 push	 OFFSET ??_C@_03EHAPBBEA@One?$AA@
  004de	8b 45 08	 mov	 eax, DWORD PTR _lpObj$[ebp]
  004e1	05 69 28 00 00	 add	 eax, 10345		; 00002869H
  004e6	50		 push	 eax
  004e7	e8 00 00 00 00	 call	 _strcmp
  004ec	83 c4 08	 add	 esp, 8
  004ef	85 c0		 test	 eax, eax
  004f1	75 07		 jne	 SHORT $LN18@ActiveBrot

; 112  : 	{
; 113  : 		return false;

  004f3	32 c0		 xor	 al, al
  004f5	e9 63 01 00 00	 jmp	 $LN20@ActiveBrot
$LN18@ActiveBrot:

; 114  : 	}
; 115  : 
; 116  : 	if(g_ExLicense.CheckUser(Local) || g_ExLicense.CheckUser(SILVER1) || g_ExLicense.CheckUser(SILVER2))

  004fa	6a 00		 push	 0
  004fc	b9 00 00 00 00	 mov	 ecx, OFFSET ?g_ExLicense@@3VCExLicense@@A ; g_ExLicense
  00501	e8 00 00 00 00	 call	 ?CheckUser@CExLicense@@QAE_NH@Z ; CExLicense::CheckUser
  00506	0f b6 c0	 movzx	 eax, al
  00509	85 c0		 test	 eax, eax
  0050b	75 2a		 jne	 SHORT $LN16@ActiveBrot
  0050d	6a 07		 push	 7
  0050f	b9 00 00 00 00	 mov	 ecx, OFFSET ?g_ExLicense@@3VCExLicense@@A ; g_ExLicense
  00514	e8 00 00 00 00	 call	 ?CheckUser@CExLicense@@QAE_NH@Z ; CExLicense::CheckUser
  00519	0f b6 c0	 movzx	 eax, al
  0051c	85 c0		 test	 eax, eax
  0051e	75 17		 jne	 SHORT $LN16@ActiveBrot
  00520	6a 08		 push	 8
  00522	b9 00 00 00 00	 mov	 ecx, OFFSET ?g_ExLicense@@3VCExLicense@@A ; g_ExLicense
  00527	e8 00 00 00 00	 call	 ?CheckUser@CExLicense@@QAE_NH@Z ; CExLicense::CheckUser
  0052c	0f b6 c0	 movzx	 eax, al
  0052f	85 c0		 test	 eax, eax
  00531	0f 84 8f 00 00
	00		 je	 $LN17@ActiveBrot
$LN16@ActiveBrot:

; 117  : 	{
; 118  : 		int Countbr = 0;

  00537	c7 45 f4 00 00
	00 00		 mov	 DWORD PTR _Countbr$229987[ebp], 0

; 119  : 		for (int n=OBJ_STARTUSERINDEX;n<OBJMAX;n++)

  0053e	c7 45 f0 b0 36
	00 00		 mov	 DWORD PTR _n$229988[ebp], 14000 ; 000036b0H
  00545	eb 09		 jmp	 SHORT $LN15@ActiveBrot
$LN14@ActiveBrot:
  00547	8b 45 f0	 mov	 eax, DWORD PTR _n$229988[ebp]
  0054a	83 c0 01	 add	 eax, 1
  0054d	89 45 f0	 mov	 DWORD PTR _n$229988[ebp], eax
$LN15@ActiveBrot:
  00550	81 7d f0 98 3a
	00 00		 cmp	 DWORD PTR _n$229988[ebp], 15000 ; 00003a98H
  00557	7d 54		 jge	 SHORT $LN13@ActiveBrot

; 120  : 		{
; 121  : 			if ( gObj[n].Connected == PLAYER_PLAYING )

  00559	8b 45 f0	 mov	 eax, DWORD PTR _n$229988[ebp]
  0055c	69 c0 38 2b 00
	00		 imul	 eax, 11064		; 00002b38H
  00562	8b 0d 00 00 00
	00		 mov	 ecx, DWORD PTR ?gObj@@3PAUOBJECTSTRUCT@@A ; gObj
  00568	83 7c 01 04 03	 cmp	 DWORD PTR [ecx+eax+4], 3
  0056d	75 3c		 jne	 SHORT $LN12@ActiveBrot

; 122  : 			{
; 123  : 				LPOBJ LpBrother = &gObj[n];

  0056f	8b 45 f0	 mov	 eax, DWORD PTR _n$229988[ebp]
  00572	69 c0 38 2b 00
	00		 imul	 eax, 11064		; 00002b38H
  00578	03 05 00 00 00
	00		 add	 eax, DWORD PTR ?gObj@@3PAUOBJECTSTRUCT@@A ; gObj
  0057e	89 45 ec	 mov	 DWORD PTR _LpBrother$229993[ebp], eax

; 124  : 				if(!strncmp(lpObj->Brotherhood,LpBrother->Brotherhood,10))

  00581	6a 0a		 push	 10			; 0000000aH
  00583	8b 45 ec	 mov	 eax, DWORD PTR _LpBrother$229993[ebp]
  00586	05 69 28 00 00	 add	 eax, 10345		; 00002869H
  0058b	50		 push	 eax
  0058c	8b 4d 08	 mov	 ecx, DWORD PTR _lpObj$[ebp]
  0058f	81 c1 69 28 00
	00		 add	 ecx, 10345		; 00002869H
  00595	51		 push	 ecx
  00596	e8 00 00 00 00	 call	 _strncmp
  0059b	83 c4 0c	 add	 esp, 12			; 0000000cH
  0059e	85 c0		 test	 eax, eax
  005a0	75 09		 jne	 SHORT $LN12@ActiveBrot

; 125  : 				{
; 126  : 					Countbr++;

  005a2	8b 45 f4	 mov	 eax, DWORD PTR _Countbr$229987[ebp]
  005a5	83 c0 01	 add	 eax, 1
  005a8	89 45 f4	 mov	 DWORD PTR _Countbr$229987[ebp], eax
$LN12@ActiveBrot:

; 127  : 				}
; 128  : 			}
; 129  : 		}

  005ab	eb 9a		 jmp	 SHORT $LN14@ActiveBrot
$LN13@ActiveBrot:

; 130  : 
; 131  : 		if(Countbr >= 5)

  005ad	83 7d f4 05	 cmp	 DWORD PTR _Countbr$229987[ebp], 5
  005b1	7c 07		 jl	 SHORT $LN10@ActiveBrot

; 132  : 		{
; 133  : 			return true;

  005b3	b0 01		 mov	 al, 1
  005b5	e9 a3 00 00 00	 jmp	 $LN20@ActiveBrot
$LN10@ActiveBrot:

; 134  : 		}
; 135  : 
; 136  : 		return false;

  005ba	32 c0		 xor	 al, al
  005bc	e9 9c 00 00 00	 jmp	 $LN20@ActiveBrot

; 137  : 	}
; 138  : 	else

  005c1	e9 95 00 00 00	 jmp	 $LN9@ActiveBrot
$LN17@ActiveBrot:

; 139  : 	{
; 140  : 
; 141  : 		if(partynum == -1) return false;

  005c6	83 7d f8 ff	 cmp	 DWORD PTR _partynum$[ebp], -1
  005ca	75 07		 jne	 SHORT $LN8@ActiveBrot
  005cc	32 c0		 xor	 al, al
  005ce	e9 8a 00 00 00	 jmp	 $LN20@ActiveBrot
$LN8@ActiveBrot:

; 142  : 
; 143  : 		int number = 0;

  005d3	c7 45 e8 00 00
	00 00		 mov	 DWORD PTR _number$229998[ebp], 0

; 144  : 
; 145  : 		for(int n = 0; n < MAX_USER_IN_PARTY; n++)

  005da	c7 45 e4 00 00
	00 00		 mov	 DWORD PTR _n$229999[ebp], 0
  005e1	eb 09		 jmp	 SHORT $LN7@ActiveBrot
$LN6@ActiveBrot:
  005e3	8b 45 e4	 mov	 eax, DWORD PTR _n$229999[ebp]
  005e6	83 c0 01	 add	 eax, 1
  005e9	89 45 e4	 mov	 DWORD PTR _n$229999[ebp], eax
$LN7@ActiveBrot:
  005ec	83 7d e4 0a	 cmp	 DWORD PTR _n$229999[ebp], 10 ; 0000000aH
  005f0	7d 65		 jge	 SHORT $LN5@ActiveBrot

; 146  : 		{
; 147  : #if _NEW_PARTY_SYSTEM_ == TRUE
; 148  : 			if( n >= g_MaxPartyMember)

  005f2	8b 45 e4	 mov	 eax, DWORD PTR _n$229999[ebp]
  005f5	3b 05 00 00 00
	00		 cmp	 eax, DWORD PTR ?g_MaxPartyMember@@3HA ; g_MaxPartyMember
  005fb	7c 02		 jl	 SHORT $LN4@ActiveBrot

; 149  : 			{
; 150  : 				break;

  005fd	eb 58		 jmp	 SHORT $LN5@ActiveBrot
$LN4@ActiveBrot:

; 151  : 			}
; 152  : #endif
; 153  : 			number = gParty.m_PartyS[partynum].Number[n];

  005ff	8b 45 f8	 mov	 eax, DWORD PTR _partynum$[ebp]
  00602	6b c0 6c	 imul	 eax, 108		; 0000006cH
  00605	8b 4d e4	 mov	 ecx, DWORD PTR _n$229999[ebp]
  00608	8b 94 88 0c 00
	00 00		 mov	 edx, DWORD PTR ?gParty@@3VPartyClass@@A[eax+ecx*4+12]
  0060f	89 55 e8	 mov	 DWORD PTR _number$229998[ebp], edx

; 154  : 
; 155  : 			if(number >= 0)

  00612	83 7d e8 00	 cmp	 DWORD PTR _number$229998[ebp], 0
  00616	7c 39		 jl	 SHORT $LN3@ActiveBrot

; 156  : 			{
; 157  : 				LPOBJ LpBrother = &gObj[number];

  00618	8b 45 e8	 mov	 eax, DWORD PTR _number$229998[ebp]
  0061b	69 c0 38 2b 00
	00		 imul	 eax, 11064		; 00002b38H
  00621	03 05 00 00 00
	00		 add	 eax, DWORD PTR ?gObj@@3PAUOBJECTSTRUCT@@A ; gObj
  00627	89 45 e0	 mov	 DWORD PTR _LpBrother$230005[ebp], eax

; 158  : 
; 159  : 				/*if(g_ExLicense.CheckUser(Local) || g_ExLicense.CheckUser(ulasevich) || g_ExLicense.CheckUser(ulasevich2))
; 160  : 				{
; 161  : 					if(!strncmp(lpObj->Brotherhood,LpBrother->Brotherhood,10))
; 162  : 					{
; 163  : 						return true;
; 164  : 					}
; 165  : 				}
; 166  : 				else*/
; 167  : 				{
; 168  : 					if(strncmp(lpObj->Brotherhood,LpBrother->Brotherhood,10))

  0062a	6a 0a		 push	 10			; 0000000aH
  0062c	8b 45 e0	 mov	 eax, DWORD PTR _LpBrother$230005[ebp]
  0062f	05 69 28 00 00	 add	 eax, 10345		; 00002869H
  00634	50		 push	 eax
  00635	8b 4d 08	 mov	 ecx, DWORD PTR _lpObj$[ebp]
  00638	81 c1 69 28 00
	00		 add	 ecx, 10345		; 00002869H
  0063e	51		 push	 ecx
  0063f	e8 00 00 00 00	 call	 _strncmp
  00644	83 c4 0c	 add	 esp, 12			; 0000000cH
  00647	85 c0		 test	 eax, eax
  00649	74 04		 je	 SHORT $LN2@ActiveBrot

; 169  : 					{
; 170  : 						return false;

  0064b	32 c0		 xor	 al, al
  0064d	eb 0e		 jmp	 SHORT $LN20@ActiveBrot
$LN2@ActiveBrot:

; 171  : 					}
; 172  : 				}
; 173  : 			}
; 174  : 			else

  0064f	eb 04		 jmp	 SHORT $LN1@ActiveBrot
$LN3@ActiveBrot:

; 175  : 			{
; 176  : 				return false;

  00651	32 c0		 xor	 al, al
  00653	eb 08		 jmp	 SHORT $LN20@ActiveBrot
$LN1@ActiveBrot:

; 177  : 			}
; 178  : 		}

  00655	eb 8c		 jmp	 SHORT $LN6@ActiveBrot
$LN5@ActiveBrot:

; 179  : 		return true;

  00657	b0 01		 mov	 al, 1
  00659	eb 02		 jmp	 SHORT $LN20@ActiveBrot
$LN9@ActiveBrot:

; 180  : 	}
; 181  : 	return false;

  0065b	32 c0		 xor	 al, al
$LN20@ActiveBrot:

; 182  : }

  0065d	5f		 pop	 edi
  0065e	5e		 pop	 esi
  0065f	5b		 pop	 ebx
  00660	8b e5		 mov	 esp, ebp
  00662	5d		 pop	 ebp
  00663	c2 04 00	 ret	 4
?ActiveBrother@Brotherhood@@QAE_NPAUOBJECTSTRUCT@@@Z ENDP ; Brotherhood::ActiveBrother
_TEXT	ENDS
PUBLIC	?UserExp@Brotherhood@@QAEXPAUOBJECTSTRUCT@@AA_J@Z ; Brotherhood::UserExp
EXTRN	__alldiv:PROC
EXTRN	__allmul:PROC
; Function compile flags: /Odtp /ZI
_TEXT	SEGMENT
_this$ = -4						; size = 4
_lpObj$ = 8						; size = 4
_Exp$ = 12						; size = 4
?UserExp@Brotherhood@@QAEXPAUOBJECTSTRUCT@@AA_J@Z PROC	; Brotherhood::UserExp
; _this$ = ecx

; 185  : {

  00670	55		 push	 ebp
  00671	8b ec		 mov	 ebp, esp
  00673	83 ec 44	 sub	 esp, 68			; 00000044H
  00676	53		 push	 ebx
  00677	56		 push	 esi
  00678	57		 push	 edi
  00679	89 4d fc	 mov	 DWORD PTR _this$[ebp], ecx

; 186  : 	if(!this->Enable) return;

  0067c	8b 45 fc	 mov	 eax, DWORD PTR _this$[ebp]
  0067f	0f b6 08	 movzx	 ecx, BYTE PTR [eax]
  00682	85 c9		 test	 ecx, ecx
  00684	75 02		 jne	 SHORT $LN2@UserExp
  00686	eb 48		 jmp	 SHORT $LN3@UserExp
$LN2@UserExp:

; 187  : 
; 188  : 	if(!this->ActiveBrother(lpObj)) return;

  00688	8b 45 08	 mov	 eax, DWORD PTR _lpObj$[ebp]
  0068b	50		 push	 eax
  0068c	8b 4d fc	 mov	 ecx, DWORD PTR _this$[ebp]
  0068f	e8 00 00 00 00	 call	 ?ActiveBrother@Brotherhood@@QAE_NPAUOBJECTSTRUCT@@@Z ; Brotherhood::ActiveBrother
  00694	0f b6 c8	 movzx	 ecx, al
  00697	85 c9		 test	 ecx, ecx
  00699	75 02		 jne	 SHORT $LN1@UserExp
  0069b	eb 33		 jmp	 SHORT $LN3@UserExp
$LN1@UserExp:

; 189  : 
; 190  : 	Exp += ( Exp * this->PlusExp ) / 100;

  0069d	8b 45 fc	 mov	 eax, DWORD PTR _this$[ebp]
  006a0	8b 40 04	 mov	 eax, DWORD PTR [eax+4]
  006a3	99		 cdq
  006a4	8b 4d 0c	 mov	 ecx, DWORD PTR _Exp$[ebp]
  006a7	52		 push	 edx
  006a8	50		 push	 eax
  006a9	8b 51 04	 mov	 edx, DWORD PTR [ecx+4]
  006ac	52		 push	 edx
  006ad	8b 01		 mov	 eax, DWORD PTR [ecx]
  006af	50		 push	 eax
  006b0	e8 00 00 00 00	 call	 __allmul
  006b5	6a 00		 push	 0
  006b7	6a 64		 push	 100			; 00000064H
  006b9	52		 push	 edx
  006ba	50		 push	 eax
  006bb	e8 00 00 00 00	 call	 __alldiv
  006c0	8b 4d 0c	 mov	 ecx, DWORD PTR _Exp$[ebp]
  006c3	03 01		 add	 eax, DWORD PTR [ecx]
  006c5	13 51 04	 adc	 edx, DWORD PTR [ecx+4]
  006c8	8b 4d 0c	 mov	 ecx, DWORD PTR _Exp$[ebp]
  006cb	89 01		 mov	 DWORD PTR [ecx], eax
  006cd	89 51 04	 mov	 DWORD PTR [ecx+4], edx
$LN3@UserExp:

; 191  : }

  006d0	5f		 pop	 edi
  006d1	5e		 pop	 esi
  006d2	5b		 pop	 ebx
  006d3	8b e5		 mov	 esp, ebp
  006d5	5d		 pop	 ebp
  006d6	c2 08 00	 ret	 8
?UserExp@Brotherhood@@QAEXPAUOBJECTSTRUCT@@AA_J@Z ENDP	; Brotherhood::UserExp
_TEXT	ENDS
PUBLIC	__real@4059000000000000
PUBLIC	?UserBonusZen@Brotherhood@@QAEXPAUOBJECTSTRUCT@@AAM@Z ; Brotherhood::UserBonusZen
EXTRN	__fltused:DWORD
;	COMDAT __real@4059000000000000
CONST	SEGMENT
__real@4059000000000000 DQ 04059000000000000r	; 100
; Function compile flags: /Odtp /ZI
CONST	ENDS
_TEXT	SEGMENT
_this$ = -4						; size = 4
_lpObj$ = 8						; size = 4
_money$ = 12						; size = 4
?UserBonusZen@Brotherhood@@QAEXPAUOBJECTSTRUCT@@AAM@Z PROC ; Brotherhood::UserBonusZen
; _this$ = ecx

; 194  : {

  006e0	55		 push	 ebp
  006e1	8b ec		 mov	 ebp, esp
  006e3	83 ec 44	 sub	 esp, 68			; 00000044H
  006e6	53		 push	 ebx
  006e7	56		 push	 esi
  006e8	57		 push	 edi
  006e9	89 4d fc	 mov	 DWORD PTR _this$[ebp], ecx

; 195  : 	if(!this->Enable) return;

  006ec	8b 45 fc	 mov	 eax, DWORD PTR _this$[ebp]
  006ef	0f b6 08	 movzx	 ecx, BYTE PTR [eax]
  006f2	85 c9		 test	 ecx, ecx
  006f4	75 02		 jne	 SHORT $LN2@UserBonusZ
  006f6	eb 30		 jmp	 SHORT $LN3@UserBonusZ
$LN2@UserBonusZ:

; 196  : 
; 197  : 	if(!this->ActiveBrother(lpObj)) return;

  006f8	8b 45 08	 mov	 eax, DWORD PTR _lpObj$[ebp]
  006fb	50		 push	 eax
  006fc	8b 4d fc	 mov	 ecx, DWORD PTR _this$[ebp]
  006ff	e8 00 00 00 00	 call	 ?ActiveBrother@Brotherhood@@QAE_NPAUOBJECTSTRUCT@@@Z ; Brotherhood::ActiveBrother
  00704	0f b6 c8	 movzx	 ecx, al
  00707	85 c9		 test	 ecx, ecx
  00709	75 02		 jne	 SHORT $LN1@UserBonusZ
  0070b	eb 1b		 jmp	 SHORT $LN3@UserBonusZ
$LN1@UserBonusZ:

; 198  : 
; 199  : 	money += ( money * this->PlusZen ) / 100;

  0070d	8b 45 fc	 mov	 eax, DWORD PTR _this$[ebp]
  00710	db 40 08	 fild	 DWORD PTR [eax+8]
  00713	8b 4d 0c	 mov	 ecx, DWORD PTR _money$[ebp]
  00716	d8 09		 fmul	 DWORD PTR [ecx]
  00718	dc 35 00 00 00
	00		 fdiv	 QWORD PTR __real@4059000000000000
  0071e	8b 55 0c	 mov	 edx, DWORD PTR _money$[ebp]
  00721	d8 02		 fadd	 DWORD PTR [edx]
  00723	8b 45 0c	 mov	 eax, DWORD PTR _money$[ebp]
  00726	d9 18		 fstp	 DWORD PTR [eax]
$LN3@UserBonusZ:

; 200  : }

  00728	5f		 pop	 edi
  00729	5e		 pop	 esi
  0072a	5b		 pop	 ebx
  0072b	8b e5		 mov	 esp, ebp
  0072d	5d		 pop	 ebp
  0072e	c2 08 00	 ret	 8
?UserBonusZen@Brotherhood@@QAEXPAUOBJECTSTRUCT@@AAM@Z ENDP ; Brotherhood::UserBonusZen
_TEXT	ENDS
PUBLIC	?ProccessItemDrop@Brotherhood@@QAE_NPAUOBJECTSTRUCT@@0@Z ; Brotherhood::ProccessItemDrop
EXTRN	?ItemSerialCreateSend@@YAXHEEEHEEEEEHEE@Z:PROC	; ItemSerialCreateSend
EXTRN	?gObjMonsterTopHitDamageUser@@YAHPAUOBJECTSTRUCT@@@Z:PROC ; gObjMonsterTopHitDamageUser
EXTRN	?GenExcOpt@@YAHH@Z:PROC				; GenExcOpt
EXTRN	_rand:PROC
; Function compile flags: /Odtp /ZI
_TEXT	SEGMENT
_iAncOpt$230042 = -32					; size = 4
_iExlOpt$230041 = -28					; size = 4
_iSkill$230040 = -24					; size = 4
_iLuck$230039 = -20					; size = 4
_iOption$230038 = -16					; size = 4
_iLevel$230037 = -12					; size = 4
_i$230029 = -8						; size = 4
_this$ = -4						; size = 4
_lpMobObj$ = 8						; size = 4
_lpTargetObj$ = 12					; size = 4
?ProccessItemDrop@Brotherhood@@QAE_NPAUOBJECTSTRUCT@@0@Z PROC ; Brotherhood::ProccessItemDrop
; _this$ = ecx

; 203  : {

  00740	55		 push	 ebp
  00741	8b ec		 mov	 ebp, esp
  00743	83 ec 60	 sub	 esp, 96			; 00000060H
  00746	53		 push	 ebx
  00747	56		 push	 esi
  00748	57		 push	 edi
  00749	89 4d fc	 mov	 DWORD PTR _this$[ebp], ecx

; 204  : 	if(!this->Enable) return false; 

  0074c	8b 45 fc	 mov	 eax, DWORD PTR _this$[ebp]
  0074f	0f b6 08	 movzx	 ecx, BYTE PTR [eax]
  00752	85 c9		 test	 ecx, ecx
  00754	75 07		 jne	 SHORT $LN22@ProccessIt
  00756	32 c0		 xor	 al, al
  00758	e9 1d 03 00 00	 jmp	 $LN23@ProccessIt
$LN22@ProccessIt:

; 205  : 
; 206  : 	if(!this->ActiveBrother(lpTargetObj)) return false;

  0075d	8b 45 0c	 mov	 eax, DWORD PTR _lpTargetObj$[ebp]
  00760	50		 push	 eax
  00761	8b 4d fc	 mov	 ecx, DWORD PTR _this$[ebp]
  00764	e8 00 00 00 00	 call	 ?ActiveBrother@Brotherhood@@QAE_NPAUOBJECTSTRUCT@@@Z ; Brotherhood::ActiveBrother
  00769	0f b6 c8	 movzx	 ecx, al
  0076c	85 c9		 test	 ecx, ecx
  0076e	75 07		 jne	 SHORT $LN21@ProccessIt
  00770	32 c0		 xor	 al, al
  00772	e9 03 03 00 00	 jmp	 $LN23@ProccessIt
$LN21@ProccessIt:

; 207  : 
; 208  : 	for (int i=0; i < this->DropCount; i++)

  00777	c7 45 f8 00 00
	00 00		 mov	 DWORD PTR _i$230029[ebp], 0
  0077e	eb 09		 jmp	 SHORT $LN20@ProccessIt
$LN19@ProccessIt:
  00780	8b 45 f8	 mov	 eax, DWORD PTR _i$230029[ebp]
  00783	83 c0 01	 add	 eax, 1
  00786	89 45 f8	 mov	 DWORD PTR _i$230029[ebp], eax
$LN20@ProccessIt:
  00789	8b 45 fc	 mov	 eax, DWORD PTR _this$[ebp]
  0078c	8b 4d f8	 mov	 ecx, DWORD PTR _i$230029[ebp]
  0078f	3b 48 2c	 cmp	 ecx, DWORD PTR [eax+44]
  00792	0f 8d e0 02 00
	00		 jge	 $LN18@ProccessIt

; 209  : 	{
; 210  : 		if ( lpMobObj->MapNumber == this->Drop[i].MonsterMap || this->Drop[i].MonsterMap == -1 )

  00798	8b 45 08	 mov	 eax, DWORD PTR _lpMobObj$[ebp]
  0079b	0f b6 88 49 01
	00 00		 movzx	 ecx, BYTE PTR [eax+329]
  007a2	8b 55 f8	 mov	 edx, DWORD PTR _i$230029[ebp]
  007a5	6b d2 4c	 imul	 edx, 76			; 0000004cH
  007a8	8b 45 fc	 mov	 eax, DWORD PTR _this$[ebp]
  007ab	3b 4c 10 74	 cmp	 ecx, DWORD PTR [eax+edx+116]
  007af	74 14		 je	 SHORT $LN16@ProccessIt
  007b1	8b 45 f8	 mov	 eax, DWORD PTR _i$230029[ebp]
  007b4	6b c0 4c	 imul	 eax, 76			; 0000004cH
  007b7	8b 4d fc	 mov	 ecx, DWORD PTR _this$[ebp]
  007ba	83 7c 01 74 ff	 cmp	 DWORD PTR [ecx+eax+116], -1
  007bf	0f 85 ae 02 00
	00		 jne	 $LN17@ProccessIt
$LN16@ProccessIt:

; 211  : 		{
; 212  : 			if ( lpMobObj->Level >= this->Drop[i].MonsterMinLevel && lpMobObj->Level <= this->Drop[i].MonsterMaxLevel )

  007c5	8b 45 08	 mov	 eax, DWORD PTR _lpMobObj$[ebp]
  007c8	0f bf 88 be 00
	00 00		 movsx	 ecx, WORD PTR [eax+190]
  007cf	8b 55 f8	 mov	 edx, DWORD PTR _i$230029[ebp]
  007d2	6b d2 4c	 imul	 edx, 76			; 0000004cH
  007d5	8b 45 fc	 mov	 eax, DWORD PTR _this$[ebp]
  007d8	3b 4c 10 6c	 cmp	 ecx, DWORD PTR [eax+edx+108]
  007dc	0f 8c 91 02 00
	00		 jl	 $LN17@ProccessIt
  007e2	8b 45 08	 mov	 eax, DWORD PTR _lpMobObj$[ebp]
  007e5	0f bf 88 be 00
	00 00		 movsx	 ecx, WORD PTR [eax+190]
  007ec	8b 55 f8	 mov	 edx, DWORD PTR _i$230029[ebp]
  007ef	6b d2 4c	 imul	 edx, 76			; 0000004cH
  007f2	8b 45 fc	 mov	 eax, DWORD PTR _this$[ebp]
  007f5	3b 4c 10 70	 cmp	 ecx, DWORD PTR [eax+edx+112]
  007f9	0f 8f 74 02 00
	00		 jg	 $LN17@ProccessIt

; 213  : 			{
; 214  : 				if ( (rand()%10000) < this->Drop[i].ItemDropRate )

  007ff	e8 00 00 00 00	 call	 _rand
  00804	99		 cdq
  00805	b9 10 27 00 00	 mov	 ecx, 10000		; 00002710H
  0080a	f7 f9		 idiv	 ecx
  0080c	8b 45 f8	 mov	 eax, DWORD PTR _i$230029[ebp]
  0080f	6b c0 4c	 imul	 eax, 76			; 0000004cH
  00812	8b 4d fc	 mov	 ecx, DWORD PTR _this$[ebp]
  00815	3b 54 01 78	 cmp	 edx, DWORD PTR [ecx+eax+120]
  00819	0f 8d 54 02 00
	00		 jge	 $LN17@ProccessIt

; 215  : 				{
; 216  : 					int iLevel	= 0;

  0081f	c7 45 f4 00 00
	00 00		 mov	 DWORD PTR _iLevel$230037[ebp], 0

; 217  : 					int iOption	= 0;

  00826	c7 45 f0 00 00
	00 00		 mov	 DWORD PTR _iOption$230038[ebp], 0

; 218  : 					int iLuck	= 0;

  0082d	c7 45 ec 00 00
	00 00		 mov	 DWORD PTR _iLuck$230039[ebp], 0

; 219  : 					int iSkill	= 0;

  00834	c7 45 e8 00 00
	00 00		 mov	 DWORD PTR _iSkill$230040[ebp], 0

; 220  : 					int iExlOpt	= 0;

  0083b	c7 45 e4 00 00
	00 00		 mov	 DWORD PTR _iExlOpt$230041[ebp], 0

; 221  : 					int iAncOpt	= 0;

  00842	c7 45 e0 00 00
	00 00		 mov	 DWORD PTR _iAncOpt$230042[ebp], 0

; 222  : 					
; 223  : 					if( this->Drop[i].MaxLevel == this->Drop[i].MinLevel )

  00849	8b 45 f8	 mov	 eax, DWORD PTR _i$230029[ebp]
  0084c	6b c0 4c	 imul	 eax, 76			; 0000004cH
  0084f	8b 4d f8	 mov	 ecx, DWORD PTR _i$230029[ebp]
  00852	6b c9 4c	 imul	 ecx, 76			; 0000004cH
  00855	8b 55 fc	 mov	 edx, DWORD PTR _this$[ebp]
  00858	8b 75 fc	 mov	 esi, DWORD PTR _this$[ebp]
  0085b	8b 44 02 3c	 mov	 eax, DWORD PTR [edx+eax+60]
  0085f	3b 44 0e 38	 cmp	 eax, DWORD PTR [esi+ecx+56]
  00863	75 12		 jne	 SHORT $LN13@ProccessIt

; 224  : 					{
; 225  : 						iLevel = this->Drop[i].MinLevel;

  00865	8b 45 f8	 mov	 eax, DWORD PTR _i$230029[ebp]
  00868	6b c0 4c	 imul	 eax, 76			; 0000004cH
  0086b	8b 4d fc	 mov	 ecx, DWORD PTR _this$[ebp]
  0086e	8b 54 01 38	 mov	 edx, DWORD PTR [ecx+eax+56]
  00872	89 55 f4	 mov	 DWORD PTR _iLevel$230037[ebp], edx

; 226  : 					}
; 227  : 					else

  00875	eb 35		 jmp	 SHORT $LN12@ProccessIt
$LN13@ProccessIt:

; 228  : 					{
; 229  : 						iLevel = this->Drop[i].MinLevel + (rand() % (this->Drop[i].MaxLevel - this->Drop[i].MinLevel + 1));

  00877	8b 75 f8	 mov	 esi, DWORD PTR _i$230029[ebp]
  0087a	6b f6 4c	 imul	 esi, 76			; 0000004cH
  0087d	e8 00 00 00 00	 call	 _rand
  00882	8b 4d f8	 mov	 ecx, DWORD PTR _i$230029[ebp]
  00885	6b c9 4c	 imul	 ecx, 76			; 0000004cH
  00888	8b 55 f8	 mov	 edx, DWORD PTR _i$230029[ebp]
  0088b	6b d2 4c	 imul	 edx, 76			; 0000004cH
  0088e	8b 7d fc	 mov	 edi, DWORD PTR _this$[ebp]
  00891	8b 5d fc	 mov	 ebx, DWORD PTR _this$[ebp]
  00894	8b 4c 0f 3c	 mov	 ecx, DWORD PTR [edi+ecx+60]
  00898	2b 4c 13 38	 sub	 ecx, DWORD PTR [ebx+edx+56]
  0089c	83 c1 01	 add	 ecx, 1
  0089f	99		 cdq
  008a0	f7 f9		 idiv	 ecx
  008a2	8b 45 fc	 mov	 eax, DWORD PTR _this$[ebp]
  008a5	03 54 30 38	 add	 edx, DWORD PTR [eax+esi+56]
  008a9	89 55 f4	 mov	 DWORD PTR _iLevel$230037[ebp], edx
$LN12@ProccessIt:

; 230  : 					}	
; 231  : 
; 232  : 					if( this->Drop[i].MaxOption != 0 )

  008ac	8b 45 f8	 mov	 eax, DWORD PTR _i$230029[ebp]
  008af	6b c0 4c	 imul	 eax, 76			; 0000004cH
  008b2	8b 4d fc	 mov	 ecx, DWORD PTR _this$[ebp]
  008b5	83 7c 01 48 00	 cmp	 DWORD PTR [ecx+eax+72], 0
  008ba	74 35		 je	 SHORT $LN11@ProccessIt

; 233  : 					{
; 234  : 						if( rand() % 100 < this->Drop[i].OptionRate )

  008bc	e8 00 00 00 00	 call	 _rand
  008c1	99		 cdq
  008c2	b9 64 00 00 00	 mov	 ecx, 100		; 00000064H
  008c7	f7 f9		 idiv	 ecx
  008c9	8b 45 f8	 mov	 eax, DWORD PTR _i$230029[ebp]
  008cc	6b c0 4c	 imul	 eax, 76			; 0000004cH
  008cf	8b 4d fc	 mov	 ecx, DWORD PTR _this$[ebp]
  008d2	3b 54 01 44	 cmp	 edx, DWORD PTR [ecx+eax+68]
  008d6	7d 19		 jge	 SHORT $LN11@ProccessIt

; 235  : 						{
; 236  : 							iOption = rand() % this->Drop[i].MaxOption + 1;

  008d8	e8 00 00 00 00	 call	 _rand
  008dd	8b 4d f8	 mov	 ecx, DWORD PTR _i$230029[ebp]
  008e0	6b c9 4c	 imul	 ecx, 76			; 0000004cH
  008e3	8b 75 fc	 mov	 esi, DWORD PTR _this$[ebp]
  008e6	99		 cdq
  008e7	f7 7c 0e 48	 idiv	 DWORD PTR [esi+ecx+72]
  008eb	83 c2 01	 add	 edx, 1
  008ee	89 55 f0	 mov	 DWORD PTR _iOption$230038[ebp], edx
$LN11@ProccessIt:

; 237  : 						}
; 238  : 					}
; 239  : 
; 240  : 					if( this->Drop[i].LuckOption == 1 )

  008f1	8b 45 f8	 mov	 eax, DWORD PTR _i$230029[ebp]
  008f4	6b c0 4c	 imul	 eax, 76			; 0000004cH
  008f7	8b 4d fc	 mov	 ecx, DWORD PTR _this$[ebp]
  008fa	83 7c 01 50 01	 cmp	 DWORD PTR [ecx+eax+80], 1
  008ff	75 23		 jne	 SHORT $LN9@ProccessIt

; 241  : 					{
; 242  : 						if( rand() % 100 < this->Drop[i].LuckRate )

  00901	e8 00 00 00 00	 call	 _rand
  00906	99		 cdq
  00907	b9 64 00 00 00	 mov	 ecx, 100		; 00000064H
  0090c	f7 f9		 idiv	 ecx
  0090e	8b 45 f8	 mov	 eax, DWORD PTR _i$230029[ebp]
  00911	6b c0 4c	 imul	 eax, 76			; 0000004cH
  00914	8b 4d fc	 mov	 ecx, DWORD PTR _this$[ebp]
  00917	3b 54 01 4c	 cmp	 edx, DWORD PTR [ecx+eax+76]
  0091b	7d 07		 jge	 SHORT $LN9@ProccessIt

; 243  : 						{
; 244  : 							iLuck = 1;

  0091d	c7 45 ec 01 00
	00 00		 mov	 DWORD PTR _iLuck$230039[ebp], 1
$LN9@ProccessIt:

; 245  : 						}
; 246  : 					}
; 247  : 
; 248  : 					if( this->Drop[i].SkillOption == 1 )

  00924	8b 45 f8	 mov	 eax, DWORD PTR _i$230029[ebp]
  00927	6b c0 4c	 imul	 eax, 76			; 0000004cH
  0092a	8b 4d fc	 mov	 ecx, DWORD PTR _this$[ebp]
  0092d	83 7c 01 58 01	 cmp	 DWORD PTR [ecx+eax+88], 1
  00932	75 23		 jne	 SHORT $LN7@ProccessIt

; 249  : 					{
; 250  : 						if( rand() % 100 < this->Drop[i].SkillRate )

  00934	e8 00 00 00 00	 call	 _rand
  00939	99		 cdq
  0093a	b9 64 00 00 00	 mov	 ecx, 100		; 00000064H
  0093f	f7 f9		 idiv	 ecx
  00941	8b 45 f8	 mov	 eax, DWORD PTR _i$230029[ebp]
  00944	6b c0 4c	 imul	 eax, 76			; 0000004cH
  00947	8b 4d fc	 mov	 ecx, DWORD PTR _this$[ebp]
  0094a	3b 54 01 54	 cmp	 edx, DWORD PTR [ecx+eax+84]
  0094e	7d 07		 jge	 SHORT $LN7@ProccessIt

; 251  : 						{
; 252  : 							iLuck = 1;

  00950	c7 45 ec 01 00
	00 00		 mov	 DWORD PTR _iLuck$230039[ebp], 1
$LN7@ProccessIt:

; 253  : 						}
; 254  : 					}
; 255  : 
; 256  : 					if(this->Drop[i].ExlOption)

  00957	8b 45 f8	 mov	 eax, DWORD PTR _i$230029[ebp]
  0095a	6b c0 4c	 imul	 eax, 76			; 0000004cH
  0095d	8b 4d fc	 mov	 ecx, DWORD PTR _this$[ebp]
  00960	83 7c 01 60 00	 cmp	 DWORD PTR [ecx+eax+96], 0
  00965	74 35		 je	 SHORT $LN5@ProccessIt

; 257  : 					{
; 258  : 						if( rand() % 100 < this->Drop[i].ExlRate )

  00967	e8 00 00 00 00	 call	 _rand
  0096c	99		 cdq
  0096d	b9 64 00 00 00	 mov	 ecx, 100		; 00000064H
  00972	f7 f9		 idiv	 ecx
  00974	8b 45 f8	 mov	 eax, DWORD PTR _i$230029[ebp]
  00977	6b c0 4c	 imul	 eax, 76			; 0000004cH
  0097a	8b 4d fc	 mov	 ecx, DWORD PTR _this$[ebp]
  0097d	3b 54 01 5c	 cmp	 edx, DWORD PTR [ecx+eax+92]
  00981	7d 19		 jge	 SHORT $LN5@ProccessIt

; 259  : 						{
; 260  : 							iExlOpt = GenExcOpt(this->Drop[i].ExlOption);

  00983	8b 45 f8	 mov	 eax, DWORD PTR _i$230029[ebp]
  00986	6b c0 4c	 imul	 eax, 76			; 0000004cH
  00989	8b 4d fc	 mov	 ecx, DWORD PTR _this$[ebp]
  0098c	8b 54 01 60	 mov	 edx, DWORD PTR [ecx+eax+96]
  00990	52		 push	 edx
  00991	e8 00 00 00 00	 call	 ?GenExcOpt@@YAHH@Z	; GenExcOpt
  00996	83 c4 04	 add	 esp, 4
  00999	89 45 e4	 mov	 DWORD PTR _iExlOpt$230041[ebp], eax
$LN5@ProccessIt:

; 261  : 						}
; 262  : 					}
; 263  : 
; 264  : 					if(this->Drop[i].AncOption == 5 || this->Drop[i].AncOption == 10)

  0099c	8b 45 f8	 mov	 eax, DWORD PTR _i$230029[ebp]
  0099f	6b c0 4c	 imul	 eax, 76			; 0000004cH
  009a2	8b 4d fc	 mov	 ecx, DWORD PTR _this$[ebp]
  009a5	83 7c 01 68 05	 cmp	 DWORD PTR [ecx+eax+104], 5
  009aa	74 10		 je	 SHORT $LN2@ProccessIt
  009ac	8b 45 f8	 mov	 eax, DWORD PTR _i$230029[ebp]
  009af	6b c0 4c	 imul	 eax, 76			; 0000004cH
  009b2	8b 4d fc	 mov	 ecx, DWORD PTR _this$[ebp]
  009b5	83 7c 01 68 0a	 cmp	 DWORD PTR [ecx+eax+104], 10 ; 0000000aH
  009ba	75 2c		 jne	 SHORT $LN3@ProccessIt
$LN2@ProccessIt:

; 265  : 					{
; 266  : 						if( rand() % 100 < this->Drop[i].AncRate )

  009bc	e8 00 00 00 00	 call	 _rand
  009c1	99		 cdq
  009c2	b9 64 00 00 00	 mov	 ecx, 100		; 00000064H
  009c7	f7 f9		 idiv	 ecx
  009c9	8b 45 f8	 mov	 eax, DWORD PTR _i$230029[ebp]
  009cc	6b c0 4c	 imul	 eax, 76			; 0000004cH
  009cf	8b 4d fc	 mov	 ecx, DWORD PTR _this$[ebp]
  009d2	3b 54 01 64	 cmp	 edx, DWORD PTR [ecx+eax+100]
  009d6	7d 10		 jge	 SHORT $LN3@ProccessIt

; 267  : 						{
; 268  : 							iAncOpt = this->Drop[i].AncOption;

  009d8	8b 45 f8	 mov	 eax, DWORD PTR _i$230029[ebp]
  009db	6b c0 4c	 imul	 eax, 76			; 0000004cH
  009de	8b 4d fc	 mov	 ecx, DWORD PTR _this$[ebp]
  009e1	8b 54 01 68	 mov	 edx, DWORD PTR [ecx+eax+104]
  009e5	89 55 e0	 mov	 DWORD PTR _iAncOpt$230042[ebp], edx
$LN3@ProccessIt:

; 269  : 						}
; 270  : 					}
; 271  : 
; 272  : 					ItemSerialCreateSend(lpMobObj->m_Index,lpMobObj->MapNumber,lpMobObj->X,lpMobObj->Y,ITEMGET(this->Drop[i].Type,this->Drop[i].Index),iLevel,this->Drop[i].Dur,iSkill,iLuck,iOption,gObjMonsterTopHitDamageUser(lpMobObj),iExlOpt,iAncOpt);

  009e8	0f b6 45 e0	 movzx	 eax, BYTE PTR _iAncOpt$230042[ebp]
  009ec	50		 push	 eax
  009ed	0f b6 4d e4	 movzx	 ecx, BYTE PTR _iExlOpt$230041[ebp]
  009f1	51		 push	 ecx
  009f2	8b 55 08	 mov	 edx, DWORD PTR _lpMobObj$[ebp]
  009f5	52		 push	 edx
  009f6	e8 00 00 00 00	 call	 ?gObjMonsterTopHitDamageUser@@YAHPAUOBJECTSTRUCT@@@Z ; gObjMonsterTopHitDamageUser
  009fb	83 c4 04	 add	 esp, 4
  009fe	50		 push	 eax
  009ff	0f b6 45 f0	 movzx	 eax, BYTE PTR _iOption$230038[ebp]
  00a03	50		 push	 eax
  00a04	0f b6 4d ec	 movzx	 ecx, BYTE PTR _iLuck$230039[ebp]
  00a08	51		 push	 ecx
  00a09	0f b6 55 e8	 movzx	 edx, BYTE PTR _iSkill$230040[ebp]
  00a0d	52		 push	 edx
  00a0e	8b 45 f8	 mov	 eax, DWORD PTR _i$230029[ebp]
  00a11	6b c0 4c	 imul	 eax, 76			; 0000004cH
  00a14	8b 4d fc	 mov	 ecx, DWORD PTR _this$[ebp]
  00a17	0f b6 54 01 40	 movzx	 edx, BYTE PTR [ecx+eax+64]
  00a1c	52		 push	 edx
  00a1d	0f b6 45 f4	 movzx	 eax, BYTE PTR _iLevel$230037[ebp]
  00a21	50		 push	 eax
  00a22	8b 4d f8	 mov	 ecx, DWORD PTR _i$230029[ebp]
  00a25	6b c9 4c	 imul	 ecx, 76			; 0000004cH
  00a28	8b 55 fc	 mov	 edx, DWORD PTR _this$[ebp]
  00a2b	8b 44 0a 30	 mov	 eax, DWORD PTR [edx+ecx+48]
  00a2f	c1 e0 09	 shl	 eax, 9
  00a32	8b 4d f8	 mov	 ecx, DWORD PTR _i$230029[ebp]
  00a35	6b c9 4c	 imul	 ecx, 76			; 0000004cH
  00a38	8b 55 fc	 mov	 edx, DWORD PTR _this$[ebp]
  00a3b	03 44 0a 34	 add	 eax, DWORD PTR [edx+ecx+52]
  00a3f	50		 push	 eax
  00a40	8b 45 08	 mov	 eax, DWORD PTR _lpMobObj$[ebp]
  00a43	0f b6 88 46 01
	00 00		 movzx	 ecx, BYTE PTR [eax+326]
  00a4a	51		 push	 ecx
  00a4b	8b 55 08	 mov	 edx, DWORD PTR _lpMobObj$[ebp]
  00a4e	0f b6 82 44 01
	00 00		 movzx	 eax, BYTE PTR [edx+324]
  00a55	50		 push	 eax
  00a56	8b 4d 08	 mov	 ecx, DWORD PTR _lpMobObj$[ebp]
  00a59	0f b6 91 49 01
	00 00		 movzx	 edx, BYTE PTR [ecx+329]
  00a60	52		 push	 edx
  00a61	8b 45 08	 mov	 eax, DWORD PTR _lpMobObj$[ebp]
  00a64	8b 08		 mov	 ecx, DWORD PTR [eax]
  00a66	51		 push	 ecx
  00a67	e8 00 00 00 00	 call	 ?ItemSerialCreateSend@@YAXHEEEHEEEEEHEE@Z ; ItemSerialCreateSend
  00a6c	83 c4 34	 add	 esp, 52			; 00000034H

; 273  : 					return true;

  00a6f	b0 01		 mov	 al, 1
  00a71	eb 07		 jmp	 SHORT $LN23@ProccessIt
$LN17@ProccessIt:

; 274  : 				}
; 275  : 			}
; 276  : 		}
; 277  : 	}

  00a73	e9 08 fd ff ff	 jmp	 $LN19@ProccessIt
$LN18@ProccessIt:

; 278  : 	return false;

  00a78	32 c0		 xor	 al, al
$LN23@ProccessIt:

; 279  : }

  00a7a	5f		 pop	 edi
  00a7b	5e		 pop	 esi
  00a7c	5b		 pop	 ebx
  00a7d	8b e5		 mov	 esp, ebp
  00a7f	5d		 pop	 ebp
  00a80	c2 08 00	 ret	 8
?ProccessItemDrop@Brotherhood@@QAE_NPAUOBJECTSTRUCT@@0@Z ENDP ; Brotherhood::ProccessItemDrop
_TEXT	ENDS
PUBLIC	?CharacterAdded@Brotherhood@@QAEXPAUOBJECTSTRUCT@@@Z ; Brotherhood::CharacterAdded
; Function compile flags: /Odtp /ZI
_TEXT	SEGMENT
_this$ = -4						; size = 4
_lpObj$ = 8						; size = 4
?CharacterAdded@Brotherhood@@QAEXPAUOBJECTSTRUCT@@@Z PROC ; Brotherhood::CharacterAdded
; _this$ = ecx

; 282  : {

  00a90	55		 push	 ebp
  00a91	8b ec		 mov	 ebp, esp
  00a93	83 ec 44	 sub	 esp, 68			; 00000044H
  00a96	53		 push	 ebx
  00a97	56		 push	 esi
  00a98	57		 push	 edi
  00a99	89 4d fc	 mov	 DWORD PTR _this$[ebp], ecx

; 283  : 	if(!this->Enable) return; 

  00a9c	8b 45 fc	 mov	 eax, DWORD PTR _this$[ebp]
  00a9f	0f b6 08	 movzx	 ecx, BYTE PTR [eax]
  00aa2	85 c9		 test	 ecx, ecx
  00aa4	75 05		 jne	 SHORT $LN2@CharacterA
  00aa6	e9 9e 01 00 00	 jmp	 $LN3@CharacterA
$LN2@CharacterA:

; 284  : 	if(!this->ActiveBrother(lpObj)) return;

  00aab	8b 45 08	 mov	 eax, DWORD PTR _lpObj$[ebp]
  00aae	50		 push	 eax
  00aaf	8b 4d fc	 mov	 ecx, DWORD PTR _this$[ebp]
  00ab2	e8 00 00 00 00	 call	 ?ActiveBrother@Brotherhood@@QAE_NPAUOBJECTSTRUCT@@@Z ; Brotherhood::ActiveBrother
  00ab7	0f b6 c8	 movzx	 ecx, al
  00aba	85 c9		 test	 ecx, ecx
  00abc	75 05		 jne	 SHORT $LN1@CharacterA
  00abe	e9 86 01 00 00	 jmp	 $LN3@CharacterA
$LN1@CharacterA:

; 285  : 	//Damage
; 286  : 	lpObj->m_AttackDamageMaxLeft += ((lpObj->m_AttackDamageMaxLeft * this->PlusDamage) / 100);

  00ac3	8b 45 08	 mov	 eax, DWORD PTR _lpObj$[ebp]
  00ac6	8b 4d fc	 mov	 ecx, DWORD PTR _this$[ebp]
  00ac9	8b 80 78 04 00
	00		 mov	 eax, DWORD PTR [eax+1144]
  00acf	0f af 41 0c	 imul	 eax, DWORD PTR [ecx+12]
  00ad3	99		 cdq
  00ad4	b9 64 00 00 00	 mov	 ecx, 100		; 00000064H
  00ad9	f7 f9		 idiv	 ecx
  00adb	8b 55 08	 mov	 edx, DWORD PTR _lpObj$[ebp]
  00ade	03 82 78 04 00
	00		 add	 eax, DWORD PTR [edx+1144]
  00ae4	8b 4d 08	 mov	 ecx, DWORD PTR _lpObj$[ebp]
  00ae7	89 81 78 04 00
	00		 mov	 DWORD PTR [ecx+1144], eax

; 287  : 	lpObj->m_AttackDamageMinLeft += ((lpObj->m_AttackDamageMinLeft * this->PlusDamage) / 100);

  00aed	8b 45 08	 mov	 eax, DWORD PTR _lpObj$[ebp]
  00af0	8b 4d fc	 mov	 ecx, DWORD PTR _this$[ebp]
  00af3	8b 80 7c 04 00
	00		 mov	 eax, DWORD PTR [eax+1148]
  00af9	0f af 41 0c	 imul	 eax, DWORD PTR [ecx+12]
  00afd	99		 cdq
  00afe	b9 64 00 00 00	 mov	 ecx, 100		; 00000064H
  00b03	f7 f9		 idiv	 ecx
  00b05	8b 55 08	 mov	 edx, DWORD PTR _lpObj$[ebp]
  00b08	03 82 7c 04 00
	00		 add	 eax, DWORD PTR [edx+1148]
  00b0e	8b 4d 08	 mov	 ecx, DWORD PTR _lpObj$[ebp]
  00b11	89 81 7c 04 00
	00		 mov	 DWORD PTR [ecx+1148], eax

; 288  : 	lpObj->m_AttackDamageMaxRight += ((lpObj->m_AttackDamageMaxRight * this->PlusDamage) / 100);

  00b17	8b 45 08	 mov	 eax, DWORD PTR _lpObj$[ebp]
  00b1a	8b 4d fc	 mov	 ecx, DWORD PTR _this$[ebp]
  00b1d	8b 80 80 04 00
	00		 mov	 eax, DWORD PTR [eax+1152]
  00b23	0f af 41 0c	 imul	 eax, DWORD PTR [ecx+12]
  00b27	99		 cdq
  00b28	b9 64 00 00 00	 mov	 ecx, 100		; 00000064H
  00b2d	f7 f9		 idiv	 ecx
  00b2f	8b 55 08	 mov	 edx, DWORD PTR _lpObj$[ebp]
  00b32	03 82 80 04 00
	00		 add	 eax, DWORD PTR [edx+1152]
  00b38	8b 4d 08	 mov	 ecx, DWORD PTR _lpObj$[ebp]
  00b3b	89 81 80 04 00
	00		 mov	 DWORD PTR [ecx+1152], eax

; 289  : 	lpObj->m_AttackDamageMinRight += ((lpObj->m_AttackDamageMinRight * this->PlusDamage) / 100);

  00b41	8b 45 08	 mov	 eax, DWORD PTR _lpObj$[ebp]
  00b44	8b 4d fc	 mov	 ecx, DWORD PTR _this$[ebp]
  00b47	8b 80 84 04 00
	00		 mov	 eax, DWORD PTR [eax+1156]
  00b4d	0f af 41 0c	 imul	 eax, DWORD PTR [ecx+12]
  00b51	99		 cdq
  00b52	b9 64 00 00 00	 mov	 ecx, 100		; 00000064H
  00b57	f7 f9		 idiv	 ecx
  00b59	8b 55 08	 mov	 edx, DWORD PTR _lpObj$[ebp]
  00b5c	03 82 84 04 00
	00		 add	 eax, DWORD PTR [edx+1156]
  00b62	8b 4d 08	 mov	 ecx, DWORD PTR _lpObj$[ebp]
  00b65	89 81 84 04 00
	00		 mov	 DWORD PTR [ecx+1156], eax

; 290  : 	//Ignore
; 291  : 	lpObj->SetOpIgnoreDefense += this->PlusIgnore;

  00b6b	8b 45 08	 mov	 eax, DWORD PTR _lpObj$[ebp]
  00b6e	0f b6 88 3e 11
	00 00		 movzx	 ecx, BYTE PTR [eax+4414]
  00b75	8b 55 fc	 mov	 edx, DWORD PTR _this$[ebp]
  00b78	03 4a 14	 add	 ecx, DWORD PTR [edx+20]
  00b7b	8b 45 08	 mov	 eax, DWORD PTR _lpObj$[ebp]
  00b7e	88 88 3e 11 00
	00		 mov	 BYTE PTR [eax+4414], cl

; 292  : 	//Double Damage
; 293  : 	lpObj->SetOpDoubleDamage += this->PlusDoubleDamage;

  00b84	8b 45 08	 mov	 eax, DWORD PTR _lpObj$[ebp]
  00b87	0f b6 88 3f 11
	00 00		 movzx	 ecx, BYTE PTR [eax+4415]
  00b8e	8b 55 fc	 mov	 edx, DWORD PTR _this$[ebp]
  00b91	03 4a 18	 add	 ecx, DWORD PTR [edx+24]
  00b94	8b 45 08	 mov	 eax, DWORD PTR _lpObj$[ebp]
  00b97	88 88 3f 11 00
	00		 mov	 BYTE PTR [eax+4415], cl

; 294  : 	lpObj->m_MagicDamageMin += ((gObj->m_MagicDamageMin * this->PlusDamage) / 100);

  00b9d	a1 00 00 00 00	 mov	 eax, DWORD PTR ?gObj@@3PAUOBJECTSTRUCT@@A ; gObj
  00ba2	8b 4d fc	 mov	 ecx, DWORD PTR _this$[ebp]
  00ba5	8b 80 68 04 00
	00		 mov	 eax, DWORD PTR [eax+1128]
  00bab	0f af 41 0c	 imul	 eax, DWORD PTR [ecx+12]
  00baf	99		 cdq
  00bb0	b9 64 00 00 00	 mov	 ecx, 100		; 00000064H
  00bb5	f7 f9		 idiv	 ecx
  00bb7	8b 55 08	 mov	 edx, DWORD PTR _lpObj$[ebp]
  00bba	03 82 68 04 00
	00		 add	 eax, DWORD PTR [edx+1128]
  00bc0	8b 4d 08	 mov	 ecx, DWORD PTR _lpObj$[ebp]
  00bc3	89 81 68 04 00
	00		 mov	 DWORD PTR [ecx+1128], eax

; 295  : 	lpObj->m_MagicDamageMax += ((gObj->m_MagicDamageMax * this->PlusDamage) / 100);

  00bc9	a1 00 00 00 00	 mov	 eax, DWORD PTR ?gObj@@3PAUOBJECTSTRUCT@@A ; gObj
  00bce	8b 4d fc	 mov	 ecx, DWORD PTR _this$[ebp]
  00bd1	8b 80 6c 04 00
	00		 mov	 eax, DWORD PTR [eax+1132]
  00bd7	0f af 41 0c	 imul	 eax, DWORD PTR [ecx+12]
  00bdb	99		 cdq
  00bdc	b9 64 00 00 00	 mov	 ecx, 100		; 00000064H
  00be1	f7 f9		 idiv	 ecx
  00be3	8b 55 08	 mov	 edx, DWORD PTR _lpObj$[ebp]
  00be6	03 82 6c 04 00
	00		 add	 eax, DWORD PTR [edx+1132]
  00bec	8b 4d 08	 mov	 ecx, DWORD PTR _lpObj$[ebp]
  00bef	89 81 6c 04 00
	00		 mov	 DWORD PTR [ecx+1132], eax

; 296  : 	//Defense
; 297  : 	lpObj->m_Defense += ((lpObj->m_Defense * this->PlusDefence) / 100);

  00bf5	8b 45 08	 mov	 eax, DWORD PTR _lpObj$[ebp]
  00bf8	8b 4d fc	 mov	 ecx, DWORD PTR _this$[ebp]
  00bfb	8b 80 94 04 00
	00		 mov	 eax, DWORD PTR [eax+1172]
  00c01	0f af 41 10	 imul	 eax, DWORD PTR [ecx+16]
  00c05	99		 cdq
  00c06	b9 64 00 00 00	 mov	 ecx, 100		; 00000064H
  00c0b	f7 f9		 idiv	 ecx
  00c0d	8b 55 08	 mov	 edx, DWORD PTR _lpObj$[ebp]
  00c10	03 82 94 04 00
	00		 add	 eax, DWORD PTR [edx+1172]
  00c16	8b 4d 08	 mov	 ecx, DWORD PTR _lpObj$[ebp]
  00c19	89 81 94 04 00
	00		 mov	 DWORD PTR [ecx+1172], eax

; 298  : 	lpObj->m_MagicDefense += ((lpObj->m_MagicDefense * this->PlusDefence) / 100);

  00c1f	8b 45 08	 mov	 eax, DWORD PTR _lpObj$[ebp]
  00c22	8b 4d fc	 mov	 ecx, DWORD PTR _this$[ebp]
  00c25	8b 80 98 04 00
	00		 mov	 eax, DWORD PTR [eax+1176]
  00c2b	0f af 41 10	 imul	 eax, DWORD PTR [ecx+16]
  00c2f	99		 cdq
  00c30	b9 64 00 00 00	 mov	 ecx, 100		; 00000064H
  00c35	f7 f9		 idiv	 ecx
  00c37	8b 55 08	 mov	 edx, DWORD PTR _lpObj$[ebp]
  00c3a	03 82 98 04 00
	00		 add	 eax, DWORD PTR [edx+1176]
  00c40	8b 4d 08	 mov	 ecx, DWORD PTR _lpObj$[ebp]
  00c43	89 81 98 04 00
	00		 mov	 DWORD PTR [ecx+1176], eax
$LN3@CharacterA:

; 299  : }

  00c49	5f		 pop	 edi
  00c4a	5e		 pop	 esi
  00c4b	5b		 pop	 ebx
  00c4c	8b e5		 mov	 esp, ebp
  00c4e	5d		 pop	 ebp
  00c4f	c2 04 00	 ret	 4
?CharacterAdded@Brotherhood@@QAEXPAUOBJECTSTRUCT@@@Z ENDP ; Brotherhood::CharacterAdded
_TEXT	ENDS
PUBLIC	??_C@_0CA@ILOGBKGN@?$FLBrotherhood?$FN?3?5No?5Teleport?5Move?$AA@ ; `string'
PUBLIC	??_C@_0BN@OLODJBKC@?$FLBrotherhood?$FN?3?5Teleport?5Move?$AA@ ; `string'
PUBLIC	??_C@_0CB@ILEAJAFL@?$FLBrotherhood?$FN?3?5No?5Teleport?5Wcoin@ ; `string'
PUBLIC	?GetCastleState@CCastleSiege@@QAEHXZ		; CCastleSiege::GetCastleState
PUBLIC	??_C@_0CB@BCDIHHMP@?$FLBrotherhood?$FN?3?5No?5Move?5Interface@ ; `string'
PUBLIC	??_C@_0BL@KOILJEBG@?$FLBrotherhood?$FN?3?5No?5Move?5Map?$AA@ ; `string'
PUBLIC	?Teleport@Brotherhood@@QAEXPAUOBJECTSTRUCT@@H@Z	; Brotherhood::Teleport
EXTRN	?AddUserData@CRaklionBattleUserMng@@QAEHH@Z:PROC ; CRaklionBattleUserMng::AddUserData
EXTRN	?g_RaklionBattleUserMng@@3VCRaklionBattleUserMng@@A:BYTE ; g_RaklionBattleUserMng
EXTRN	?gObjTeleport@@YAXHHHH@Z:PROC			; gObjTeleport
EXTRN	?CheckEquipmentToMove@CMoveCommand@@QAEHPAUOBJECTSTRUCT@@H@Z:PROC ; CMoveCommand::CheckEquipmentToMove
EXTRN	?GetMoveLevel@CMoveCommand@@QAEHHHHH@Z:PROC	; CMoveCommand::GetMoveLevel
EXTRN	?g_CastleSiege@@3VCCastleSiege@@A:BYTE		; g_CastleSiege
EXTRN	?GCMagicAttackNumberSend@@YAXPAUOBJECTSTRUCT@@GHE@Z:PROC ; GCMagicAttackNumberSend
EXTRN	?skillSuccess@@3HA:DWORD			; skillSuccess
EXTRN	?GetRaklionState@CRaklion@@QAEHXZ:PROC		; CRaklion::GetRaklionState
EXTRN	?g_Raklion@@3VCRaklion@@A:BYTE			; g_Raklion
EXTRN	?CheckInterfaceToMove@CMoveCommand@@QAEHPAUOBJECTSTRUCT@@@Z:PROC ; CMoveCommand::CheckInterfaceToMove
EXTRN	?GCServerMsgStringSend@@YAXPADHE@Z:PROC		; GCServerMsgStringSend
EXTRN	?CheckMainToMove@CMoveCommand@@QAEHPAUOBJECTSTRUCT@@@Z:PROC ; CMoveCommand::CheckMainToMove
EXTRN	?gMoveCommand@@3VCMoveCommand@@A:BYTE		; gMoveCommand
EXTRN	?CheckTeleoprtMap@cTeleportManager@@QAE_NHH@Z:PROC ; cTeleportManager::CheckTeleoprtMap
EXTRN	?gTeleportManager@@3VcTeleportManager@@A:BYTE	; gTeleportManager
;	COMDAT ??_C@_0CA@ILOGBKGN@?$FLBrotherhood?$FN?3?5No?5Teleport?5Move?$AA@
CONST	SEGMENT
??_C@_0CA@ILOGBKGN@?$FLBrotherhood?$FN?3?5No?5Teleport?5Move?$AA@ DB '[Br'
	DB	'otherhood]: No Teleport Move', 00H		; `string'
CONST	ENDS
;	COMDAT ??_C@_0BN@OLODJBKC@?$FLBrotherhood?$FN?3?5Teleport?5Move?$AA@
CONST	SEGMENT
??_C@_0BN@OLODJBKC@?$FLBrotherhood?$FN?3?5Teleport?5Move?$AA@ DB '[Brothe'
	DB	'rhood]: Teleport Move', 00H			; `string'
CONST	ENDS
;	COMDAT ??_C@_0CB@ILEAJAFL@?$FLBrotherhood?$FN?3?5No?5Teleport?5Wcoin@
CONST	SEGMENT
??_C@_0CB@ILEAJAFL@?$FLBrotherhood?$FN?3?5No?5Teleport?5Wcoin@ DB '[Broth'
	DB	'erhood]: No Teleport Wcoin', 00H		; `string'
CONST	ENDS
;	COMDAT ??_C@_0CB@BCDIHHMP@?$FLBrotherhood?$FN?3?5No?5Move?5Interface@
CONST	SEGMENT
??_C@_0CB@BCDIHHMP@?$FLBrotherhood?$FN?3?5No?5Move?5Interface@ DB '[Broth'
	DB	'erhood]: No Move Interface', 00H		; `string'
CONST	ENDS
;	COMDAT ??_C@_0BL@KOILJEBG@?$FLBrotherhood?$FN?3?5No?5Move?5Map?$AA@
CONST	SEGMENT
??_C@_0BL@KOILJEBG@?$FLBrotherhood?$FN?3?5No?5Move?5Map?$AA@ DB '[Brother'
	DB	'hood]: No Move Map', 00H			; `string'
; Function compile flags: /Odtp /ZI
CONST	ENDS
_TEXT	SEGMENT
_bCheckInterfaceToMove$ = -28				; size = 4
_bCheckEquipmentToMove$ = -24				; size = 4
_bCheckMainToMove$ = -20				; size = 4
_movelevel$ = -16					; size = 4
_lpBrother$ = -12					; size = 4
_lpTarget$ = -8						; size = 4
_this$ = -4						; size = 4
_lpObj$ = 8						; size = 4
_TargetIndex$ = 12					; size = 4
?Teleport@Brotherhood@@QAEXPAUOBJECTSTRUCT@@H@Z PROC	; Brotherhood::Teleport
; _this$ = ecx

; 302  : {

  00c60	55		 push	 ebp
  00c61	8b ec		 mov	 ebp, esp
  00c63	83 ec 5c	 sub	 esp, 92			; 0000005cH
  00c66	53		 push	 ebx
  00c67	56		 push	 esi
  00c68	57		 push	 edi
  00c69	89 4d fc	 mov	 DWORD PTR _this$[ebp], ecx

; 303  : 	if(!this->Enable) return; 

  00c6c	8b 45 fc	 mov	 eax, DWORD PTR _this$[ebp]
  00c6f	0f b6 08	 movzx	 ecx, BYTE PTR [eax]
  00c72	85 c9		 test	 ecx, ecx
  00c74	75 05		 jne	 SHORT $LN17@Teleport
  00c76	e9 1e 03 00 00	 jmp	 $LN18@Teleport
$LN17@Teleport:

; 304  : 
; 305  : 	if(!this->ActiveBrother(lpObj)) return;

  00c7b	8b 45 08	 mov	 eax, DWORD PTR _lpObj$[ebp]
  00c7e	50		 push	 eax
  00c7f	8b 4d fc	 mov	 ecx, DWORD PTR _this$[ebp]
  00c82	e8 00 00 00 00	 call	 ?ActiveBrother@Brotherhood@@QAE_NPAUOBJECTSTRUCT@@@Z ; Brotherhood::ActiveBrother
  00c87	0f b6 c8	 movzx	 ecx, al
  00c8a	85 c9		 test	 ecx, ecx
  00c8c	75 05		 jne	 SHORT $LN16@Teleport
  00c8e	e9 06 03 00 00	 jmp	 $LN18@Teleport
$LN16@Teleport:

; 306  : 
; 307  : 	LPOBJ lpTarget = &gObj[TargetIndex];

  00c93	8b 45 0c	 mov	 eax, DWORD PTR _TargetIndex$[ebp]
  00c96	69 c0 38 2b 00
	00		 imul	 eax, 11064		; 00002b38H
  00c9c	03 05 00 00 00
	00		 add	 eax, DWORD PTR ?gObj@@3PAUOBJECTSTRUCT@@A ; gObj
  00ca2	89 45 f8	 mov	 DWORD PTR _lpTarget$[ebp], eax

; 308  : 
; 309  : 	if(strcmp(lpObj->Brotherhood,lpTarget->Brotherhood))

  00ca5	8b 45 f8	 mov	 eax, DWORD PTR _lpTarget$[ebp]
  00ca8	05 69 28 00 00	 add	 eax, 10345		; 00002869H
  00cad	50		 push	 eax
  00cae	8b 4d 08	 mov	 ecx, DWORD PTR _lpObj$[ebp]
  00cb1	81 c1 69 28 00
	00		 add	 ecx, 10345		; 00002869H
  00cb7	51		 push	 ecx
  00cb8	e8 00 00 00 00	 call	 _strcmp
  00cbd	83 c4 08	 add	 esp, 8
  00cc0	85 c0		 test	 eax, eax
  00cc2	74 05		 je	 SHORT $LN15@Teleport

; 310  : 	{
; 311  : 		return;

  00cc4	e9 d0 02 00 00	 jmp	 $LN18@Teleport
$LN15@Teleport:

; 312  : 	}
; 313  : 
; 314  : 	if(!gTeleportManager.CheckTeleoprtMap(lpObj->m_Index, TargetIndex))

  00cc9	8b 45 0c	 mov	 eax, DWORD PTR _TargetIndex$[ebp]
  00ccc	50		 push	 eax
  00ccd	8b 4d 08	 mov	 ecx, DWORD PTR _lpObj$[ebp]
  00cd0	8b 11		 mov	 edx, DWORD PTR [ecx]
  00cd2	52		 push	 edx
  00cd3	b9 00 00 00 00	 mov	 ecx, OFFSET ?gTeleportManager@@3VcTeleportManager@@A ; gTeleportManager
  00cd8	e8 00 00 00 00	 call	 ?CheckTeleoprtMap@cTeleportManager@@QAE_NHH@Z ; cTeleportManager::CheckTeleoprtMap
  00cdd	0f b6 c0	 movzx	 eax, al
  00ce0	85 c0		 test	 eax, eax
  00ce2	75 05		 jne	 SHORT $LN14@Teleport

; 315  : 	{
; 316  : 		return;

  00ce4	e9 b0 02 00 00	 jmp	 $LN18@Teleport
$LN14@Teleport:

; 317  : 	}
; 318  : 	if (this->TeleportActive == 0)

  00ce9	8b 45 fc	 mov	 eax, DWORD PTR _this$[ebp]
  00cec	83 78 24 00	 cmp	 DWORD PTR [eax+36], 0
  00cf0	75 05		 jne	 SHORT $LN13@Teleport

; 319  : 	{
; 320  : 		return;

  00cf2	e9 a2 02 00 00	 jmp	 $LN18@Teleport
$LN13@Teleport:

; 321  : 	}
; 322  : 	if(gMoveCommand.CheckMainToMove(lpObj) == 0)

  00cf7	8b 45 08	 mov	 eax, DWORD PTR _lpObj$[ebp]
  00cfa	50		 push	 eax
  00cfb	b9 00 00 00 00	 mov	 ecx, OFFSET ?gMoveCommand@@3VCMoveCommand@@A ; gMoveCommand
  00d00	e8 00 00 00 00	 call	 ?CheckMainToMove@CMoveCommand@@QAEHPAUOBJECTSTRUCT@@@Z ; CMoveCommand::CheckMainToMove
  00d05	85 c0		 test	 eax, eax
  00d07	75 1a		 jne	 SHORT $LN12@Teleport

; 323  : 	{
; 324  : 		GCServerMsgStringSend("[Brotherhood]: No Move Map",lpObj->m_Index,1);

  00d09	6a 01		 push	 1
  00d0b	8b 45 08	 mov	 eax, DWORD PTR _lpObj$[ebp]
  00d0e	8b 08		 mov	 ecx, DWORD PTR [eax]
  00d10	51		 push	 ecx
  00d11	68 00 00 00 00	 push	 OFFSET ??_C@_0BL@KOILJEBG@?$FLBrotherhood?$FN?3?5No?5Move?5Map?$AA@
  00d16	e8 00 00 00 00	 call	 ?GCServerMsgStringSend@@YAXPADHE@Z ; GCServerMsgStringSend
  00d1b	83 c4 0c	 add	 esp, 12			; 0000000cH

; 325  : 		return;

  00d1e	e9 76 02 00 00	 jmp	 $LN18@Teleport
$LN12@Teleport:

; 326  : 	}
; 327  : 
; 328  : 	if(gMoveCommand.CheckInterfaceToMove(lpObj) == 0)

  00d23	8b 45 08	 mov	 eax, DWORD PTR _lpObj$[ebp]
  00d26	50		 push	 eax
  00d27	b9 00 00 00 00	 mov	 ecx, OFFSET ?gMoveCommand@@3VCMoveCommand@@A ; gMoveCommand
  00d2c	e8 00 00 00 00	 call	 ?CheckInterfaceToMove@CMoveCommand@@QAEHPAUOBJECTSTRUCT@@@Z ; CMoveCommand::CheckInterfaceToMove
  00d31	85 c0		 test	 eax, eax
  00d33	75 1a		 jne	 SHORT $LN11@Teleport

; 329  : 	{
; 330  : 		GCServerMsgStringSend("[Brotherhood]: No Move Interface",lpObj->m_Index,1);

  00d35	6a 01		 push	 1
  00d37	8b 45 08	 mov	 eax, DWORD PTR _lpObj$[ebp]
  00d3a	8b 08		 mov	 ecx, DWORD PTR [eax]
  00d3c	51		 push	 ecx
  00d3d	68 00 00 00 00	 push	 OFFSET ??_C@_0CB@BCDIHHMP@?$FLBrotherhood?$FN?3?5No?5Move?5Interface@
  00d42	e8 00 00 00 00	 call	 ?GCServerMsgStringSend@@YAXPADHE@Z ; GCServerMsgStringSend
  00d47	83 c4 0c	 add	 esp, 12			; 0000000cH

; 331  : 		return;

  00d4a	e9 4a 02 00 00	 jmp	 $LN18@Teleport
$LN11@Teleport:

; 332  : 	}
; 333  : 
; 334  : 	if( lpObj->MapNumber == MAP_INDEX_RAKLION_BOSS &&
; 335  : 		lpObj->Connected == PLAYER_PLAYING &&
; 336  : 		(g_Raklion.GetRaklionState() == RAKLION_STATE_CLOSE_DOOR ||
; 337  : 		g_Raklion.GetRaklionState() == RAKLION_STATE_ALL_USER_DIE ||
; 338  : 		g_Raklion.GetRaklionState() == RAKLION_STATE_NOTIFY_4 ||
; 339  : 		g_Raklion.GetRaklionState() == RAKLION_STATE_END) ) 

  00d4f	8b 45 08	 mov	 eax, DWORD PTR _lpObj$[ebp]
  00d52	0f b6 88 49 01
	00 00		 movzx	 ecx, BYTE PTR [eax+329]
  00d59	83 f9 3a	 cmp	 ecx, 58			; 0000003aH
  00d5c	75 5f		 jne	 SHORT $LN10@Teleport
  00d5e	8b 45 08	 mov	 eax, DWORD PTR _lpObj$[ebp]
  00d61	83 78 04 03	 cmp	 DWORD PTR [eax+4], 3
  00d65	75 56		 jne	 SHORT $LN10@Teleport
  00d67	b9 00 00 00 00	 mov	 ecx, OFFSET ?g_Raklion@@3VCRaklion@@A ; g_Raklion
  00d6c	e8 00 00 00 00	 call	 ?GetRaklionState@CRaklion@@QAEHXZ ; CRaklion::GetRaklionState
  00d71	83 f8 07	 cmp	 eax, 7
  00d74	74 2d		 je	 SHORT $LN9@Teleport
  00d76	b9 00 00 00 00	 mov	 ecx, OFFSET ?g_Raklion@@3VCRaklion@@A ; g_Raklion
  00d7b	e8 00 00 00 00	 call	 ?GetRaklionState@CRaklion@@QAEHXZ ; CRaklion::GetRaklionState
  00d80	83 f8 08	 cmp	 eax, 8
  00d83	74 1e		 je	 SHORT $LN9@Teleport
  00d85	b9 00 00 00 00	 mov	 ecx, OFFSET ?g_Raklion@@3VCRaklion@@A ; g_Raklion
  00d8a	e8 00 00 00 00	 call	 ?GetRaklionState@CRaklion@@QAEHXZ ; CRaklion::GetRaklionState
  00d8f	83 f8 09	 cmp	 eax, 9
  00d92	74 0f		 je	 SHORT $LN9@Teleport
  00d94	b9 00 00 00 00	 mov	 ecx, OFFSET ?g_Raklion@@3VCRaklion@@A ; g_Raklion
  00d99	e8 00 00 00 00	 call	 ?GetRaklionState@CRaklion@@QAEHXZ ; CRaklion::GetRaklionState
  00d9e	83 f8 0a	 cmp	 eax, 10			; 0000000aH
  00da1	75 1a		 jne	 SHORT $LN10@Teleport
$LN9@Teleport:

; 340  : 	{
; 341  : 		GCServerMsgStringSend("[Brotherhood]: No Move Map",lpObj->m_Index,1);

  00da3	6a 01		 push	 1
  00da5	8b 45 08	 mov	 eax, DWORD PTR _lpObj$[ebp]
  00da8	8b 08		 mov	 ecx, DWORD PTR [eax]
  00daa	51		 push	 ecx
  00dab	68 00 00 00 00	 push	 OFFSET ??_C@_0BL@KOILJEBG@?$FLBrotherhood?$FN?3?5No?5Move?5Map?$AA@
  00db0	e8 00 00 00 00	 call	 ?GCServerMsgStringSend@@YAXPADHE@Z ; GCServerMsgStringSend
  00db5	83 c4 0c	 add	 esp, 12			; 0000000cH

; 342  : 		return;

  00db8	e9 dc 01 00 00	 jmp	 $LN18@Teleport
$LN10@Teleport:

; 343  : 	}
; 344  : 
; 345  : 	LPOBJ lpBrother = &gObj[TargetIndex];

  00dbd	8b 45 0c	 mov	 eax, DWORD PTR _TargetIndex$[ebp]
  00dc0	69 c0 38 2b 00
	00		 imul	 eax, 11064		; 00002b38H
  00dc6	03 05 00 00 00
	00		 add	 eax, DWORD PTR ?gObj@@3PAUOBJECTSTRUCT@@A ; gObj
  00dcc	89 45 f4	 mov	 DWORD PTR _lpBrother$[ebp], eax

; 346  : 
; 347  : 	GCMagicAttackNumberSend(lpObj,AT_SKILL_RECALL_PARTY,lpObj->m_Index,skillSuccess);

  00dcf	0f b6 05 00 00
	00 00		 movzx	 eax, BYTE PTR ?skillSuccess@@3HA
  00dd6	50		 push	 eax
  00dd7	8b 4d 08	 mov	 ecx, DWORD PTR _lpObj$[ebp]
  00dda	8b 11		 mov	 edx, DWORD PTR [ecx]
  00ddc	52		 push	 edx
  00ddd	6a 3f		 push	 63			; 0000003fH
  00ddf	8b 45 08	 mov	 eax, DWORD PTR _lpObj$[ebp]
  00de2	50		 push	 eax
  00de3	e8 00 00 00 00	 call	 ?GCMagicAttackNumberSend@@YAXPAUOBJECTSTRUCT@@GHE@Z ; GCMagicAttackNumberSend
  00de8	83 c4 10	 add	 esp, 16			; 00000010H

; 348  : 
; 349  : 	if(g_CastleSiege.GetCastleState() == CASTLESIEGE_STATE_STARTSIEGE)

  00deb	b9 00 00 00 00	 mov	 ecx, OFFSET ?g_CastleSiege@@3VCCastleSiege@@A ; g_CastleSiege
  00df0	e8 00 00 00 00	 call	 ?GetCastleState@CCastleSiege@@QAEHXZ ; CCastleSiege::GetCastleState
  00df5	83 f8 07	 cmp	 eax, 7
  00df8	75 1d		 jne	 SHORT $LN7@Teleport

; 350  : 	{
; 351  : 		if(lpBrother->m_btCsJoinSide != lpObj->m_btCsJoinSide)

  00dfa	8b 45 f4	 mov	 eax, DWORD PTR _lpBrother$[ebp]
  00dfd	0f b6 88 02 1c
	00 00		 movzx	 ecx, BYTE PTR [eax+7170]
  00e04	8b 55 08	 mov	 edx, DWORD PTR _lpObj$[ebp]
  00e07	0f b6 82 02 1c
	00 00		 movzx	 eax, BYTE PTR [edx+7170]
  00e0e	3b c8		 cmp	 ecx, eax
  00e10	74 05		 je	 SHORT $LN7@Teleport

; 352  : 		{
; 353  : 			return;

  00e12	e9 82 01 00 00	 jmp	 $LN18@Teleport
$LN7@Teleport:

; 354  : 		}
; 355  : 	}
; 356  : 
; 357  : 	int movelevel = gMoveCommand.GetMoveLevel(lpObj->MapNumber,lpObj->X,lpObj->Y,lpBrother->Class);

  00e17	8b 45 f4	 mov	 eax, DWORD PTR _lpBrother$[ebp]
  00e1a	0f b7 88 b8 00
	00 00		 movzx	 ecx, WORD PTR [eax+184]
  00e21	51		 push	 ecx
  00e22	8b 55 08	 mov	 edx, DWORD PTR _lpObj$[ebp]
  00e25	0f bf 82 46 01
	00 00		 movsx	 eax, WORD PTR [edx+326]
  00e2c	50		 push	 eax
  00e2d	8b 4d 08	 mov	 ecx, DWORD PTR _lpObj$[ebp]
  00e30	0f bf 91 44 01
	00 00		 movsx	 edx, WORD PTR [ecx+324]
  00e37	52		 push	 edx
  00e38	8b 45 08	 mov	 eax, DWORD PTR _lpObj$[ebp]
  00e3b	0f b6 88 49 01
	00 00		 movzx	 ecx, BYTE PTR [eax+329]
  00e42	51		 push	 ecx
  00e43	b9 00 00 00 00	 mov	 ecx, OFFSET ?gMoveCommand@@3VCMoveCommand@@A ; gMoveCommand
  00e48	e8 00 00 00 00	 call	 ?GetMoveLevel@CMoveCommand@@QAEHHHHH@Z ; CMoveCommand::GetMoveLevel
  00e4d	89 45 f0	 mov	 DWORD PTR _movelevel$[ebp], eax

; 358  : 	int bCheckMainToMove = gMoveCommand.CheckMainToMove(lpBrother);

  00e50	8b 45 f4	 mov	 eax, DWORD PTR _lpBrother$[ebp]
  00e53	50		 push	 eax
  00e54	b9 00 00 00 00	 mov	 ecx, OFFSET ?gMoveCommand@@3VCMoveCommand@@A ; gMoveCommand
  00e59	e8 00 00 00 00	 call	 ?CheckMainToMove@CMoveCommand@@QAEHPAUOBJECTSTRUCT@@@Z ; CMoveCommand::CheckMainToMove
  00e5e	89 45 ec	 mov	 DWORD PTR _bCheckMainToMove$[ebp], eax

; 359  : 	int bCheckEquipmentToMove = gMoveCommand.CheckEquipmentToMove(lpBrother,lpObj->MapNumber);

  00e61	8b 45 08	 mov	 eax, DWORD PTR _lpObj$[ebp]
  00e64	0f b6 88 49 01
	00 00		 movzx	 ecx, BYTE PTR [eax+329]
  00e6b	51		 push	 ecx
  00e6c	8b 55 f4	 mov	 edx, DWORD PTR _lpBrother$[ebp]
  00e6f	52		 push	 edx
  00e70	b9 00 00 00 00	 mov	 ecx, OFFSET ?gMoveCommand@@3VCMoveCommand@@A ; gMoveCommand
  00e75	e8 00 00 00 00	 call	 ?CheckEquipmentToMove@CMoveCommand@@QAEHPAUOBJECTSTRUCT@@H@Z ; CMoveCommand::CheckEquipmentToMove
  00e7a	89 45 e8	 mov	 DWORD PTR _bCheckEquipmentToMove$[ebp], eax

; 360  : 	int bCheckInterfaceToMove = gMoveCommand.CheckInterfaceToMove(lpBrother);

  00e7d	8b 45 f4	 mov	 eax, DWORD PTR _lpBrother$[ebp]
  00e80	50		 push	 eax
  00e81	b9 00 00 00 00	 mov	 ecx, OFFSET ?gMoveCommand@@3VCMoveCommand@@A ; gMoveCommand
  00e86	e8 00 00 00 00	 call	 ?CheckInterfaceToMove@CMoveCommand@@QAEHPAUOBJECTSTRUCT@@@Z ; CMoveCommand::CheckInterfaceToMove
  00e8b	89 45 e4	 mov	 DWORD PTR _bCheckInterfaceToMove$[ebp], eax

; 361  : 
; 362  : 	if(lpBrother->Level >= movelevel
; 363  : 		&& movelevel != -1
; 364  : 		&& bCheckMainToMove != false
; 365  : 		&& bCheckEquipmentToMove != false
; 366  : 		&& bCheckInterfaceToMove != false)

  00e8e	8b 45 f4	 mov	 eax, DWORD PTR _lpBrother$[ebp]
  00e91	0f bf 88 be 00
	00 00		 movsx	 ecx, WORD PTR [eax+190]
  00e98	3b 4d f0	 cmp	 ecx, DWORD PTR _movelevel$[ebp]
  00e9b	0f 8c e3 00 00
	00		 jl	 $LN6@Teleport
  00ea1	83 7d f0 ff	 cmp	 DWORD PTR _movelevel$[ebp], -1
  00ea5	0f 84 d9 00 00
	00		 je	 $LN6@Teleport
  00eab	83 7d ec 00	 cmp	 DWORD PTR _bCheckMainToMove$[ebp], 0
  00eaf	0f 84 cf 00 00
	00		 je	 $LN6@Teleport
  00eb5	83 7d e8 00	 cmp	 DWORD PTR _bCheckEquipmentToMove$[ebp], 0
  00eb9	0f 84 c5 00 00
	00		 je	 $LN6@Teleport
  00ebf	83 7d e4 00	 cmp	 DWORD PTR _bCheckInterfaceToMove$[ebp], 0
  00ec3	0f 84 bb 00 00
	00		 je	 $LN6@Teleport

; 367  : 	{
; 368  : 
; 369  : 		#if(BROTHER_PAYTELEPORT)
; 370  : 		if(g_ExLicense.CheckUser(eExUB::ulasevich) || g_ExLicense.CheckUser(eExUB::ulasevich2))

  00ec9	6a 17		 push	 23			; 00000017H
  00ecb	b9 00 00 00 00	 mov	 ecx, OFFSET ?g_ExLicense@@3VCExLicense@@A ; g_ExLicense
  00ed0	e8 00 00 00 00	 call	 ?CheckUser@CExLicense@@QAE_NH@Z ; CExLicense::CheckUser
  00ed5	0f b6 c0	 movzx	 eax, al
  00ed8	85 c0		 test	 eax, eax
  00eda	75 13		 jne	 SHORT $LN4@Teleport
  00edc	6a 24		 push	 36			; 00000024H
  00ede	b9 00 00 00 00	 mov	 ecx, OFFSET ?g_ExLicense@@3VCExLicense@@A ; g_ExLicense
  00ee3	e8 00 00 00 00	 call	 ?CheckUser@CExLicense@@QAE_NH@Z ; CExLicense::CheckUser
  00ee8	0f b6 c0	 movzx	 eax, al
  00eeb	85 c0		 test	 eax, eax
  00eed	74 30		 je	 SHORT $LN3@Teleport
$LN4@Teleport:

; 371  : 		{
; 372  : 			if(lpObj->GameShop.WCoinC < this->m_TeleportWCoin)

  00eef	8b 45 fc	 mov	 eax, DWORD PTR _this$[ebp]
  00ef2	db 80 10 29 01
	00		 fild	 DWORD PTR [eax+76048]
  00ef8	8b 4d 08	 mov	 ecx, DWORD PTR _lpObj$[ebp]
  00efb	dc 99 00 23 00
	00		 fcomp	 QWORD PTR [ecx+8960]
  00f01	df e0		 fnstsw	 ax
  00f03	f6 c4 41	 test	 ah, 65			; 00000041H
  00f06	75 17		 jne	 SHORT $LN3@Teleport

; 373  : 			{
; 374  : 				GCServerMsgStringSend("[Brotherhood]: No Teleport Wcoin",lpBrother->m_Index,1);

  00f08	6a 01		 push	 1
  00f0a	8b 45 f4	 mov	 eax, DWORD PTR _lpBrother$[ebp]
  00f0d	8b 08		 mov	 ecx, DWORD PTR [eax]
  00f0f	51		 push	 ecx
  00f10	68 00 00 00 00	 push	 OFFSET ??_C@_0CB@ILEAJAFL@?$FLBrotherhood?$FN?3?5No?5Teleport?5Wcoin@
  00f15	e8 00 00 00 00	 call	 ?GCServerMsgStringSend@@YAXPADHE@Z ; GCServerMsgStringSend
  00f1a	83 c4 0c	 add	 esp, 12			; 0000000cH

; 375  : 				return;

  00f1d	eb 7a		 jmp	 SHORT $LN18@Teleport
$LN3@Teleport:

; 376  : 			}
; 377  : 		}
; 378  : 		#endif
; 379  : 
; 380  : 		gObjTeleport(lpBrother->m_Index,lpObj->MapNumber,lpObj->X,lpObj->Y);

  00f1f	8b 45 08	 mov	 eax, DWORD PTR _lpObj$[ebp]
  00f22	0f bf 88 46 01
	00 00		 movsx	 ecx, WORD PTR [eax+326]
  00f29	51		 push	 ecx
  00f2a	8b 55 08	 mov	 edx, DWORD PTR _lpObj$[ebp]
  00f2d	0f bf 82 44 01
	00 00		 movsx	 eax, WORD PTR [edx+324]
  00f34	50		 push	 eax
  00f35	8b 4d 08	 mov	 ecx, DWORD PTR _lpObj$[ebp]
  00f38	0f b6 91 49 01
	00 00		 movzx	 edx, BYTE PTR [ecx+329]
  00f3f	52		 push	 edx
  00f40	8b 45 f4	 mov	 eax, DWORD PTR _lpBrother$[ebp]
  00f43	8b 08		 mov	 ecx, DWORD PTR [eax]
  00f45	51		 push	 ecx
  00f46	e8 00 00 00 00	 call	 ?gObjTeleport@@YAXHHHH@Z ; gObjTeleport
  00f4b	83 c4 10	 add	 esp, 16			; 00000010H

; 381  : 			
; 382  : 		//Season4 add-on
; 383  : 		if(lpObj->MapNumber == MAP_INDEX_RAKLION_BOSS)

  00f4e	8b 45 08	 mov	 eax, DWORD PTR _lpObj$[ebp]
  00f51	0f b6 88 49 01
	00 00		 movzx	 ecx, BYTE PTR [eax+329]
  00f58	83 f9 3a	 cmp	 ecx, 58			; 0000003aH
  00f5b	75 10		 jne	 SHORT $LN2@Teleport

; 384  : 		{
; 385  : 			g_RaklionBattleUserMng.AddUserData(lpBrother->m_Index);

  00f5d	8b 45 f4	 mov	 eax, DWORD PTR _lpBrother$[ebp]
  00f60	8b 08		 mov	 ecx, DWORD PTR [eax]
  00f62	51		 push	 ecx
  00f63	b9 00 00 00 00	 mov	 ecx, OFFSET ?g_RaklionBattleUserMng@@3VCRaklionBattleUserMng@@A ; g_RaklionBattleUserMng
  00f68	e8 00 00 00 00	 call	 ?AddUserData@CRaklionBattleUserMng@@QAEHH@Z ; CRaklionBattleUserMng::AddUserData
$LN2@Teleport:

; 386  : 		}
; 387  : 
; 388  : 		GCServerMsgStringSend("[Brotherhood]: Teleport Move",lpBrother->m_Index,1);

  00f6d	6a 01		 push	 1
  00f6f	8b 45 f4	 mov	 eax, DWORD PTR _lpBrother$[ebp]
  00f72	8b 08		 mov	 ecx, DWORD PTR [eax]
  00f74	51		 push	 ecx
  00f75	68 00 00 00 00	 push	 OFFSET ??_C@_0BN@OLODJBKC@?$FLBrotherhood?$FN?3?5Teleport?5Move?$AA@
  00f7a	e8 00 00 00 00	 call	 ?GCServerMsgStringSend@@YAXPADHE@Z ; GCServerMsgStringSend
  00f7f	83 c4 0c	 add	 esp, 12			; 0000000cH

; 389  : 	}
; 390  : 	else

  00f82	eb 15		 jmp	 SHORT $LN1@Teleport
$LN6@Teleport:

; 391  : 	{
; 392  : 		GCServerMsgStringSend("[Brotherhood]: No Teleport Move",lpBrother->m_Index,1);

  00f84	6a 01		 push	 1
  00f86	8b 45 f4	 mov	 eax, DWORD PTR _lpBrother$[ebp]
  00f89	8b 08		 mov	 ecx, DWORD PTR [eax]
  00f8b	51		 push	 ecx
  00f8c	68 00 00 00 00	 push	 OFFSET ??_C@_0CA@ILOGBKGN@?$FLBrotherhood?$FN?3?5No?5Teleport?5Move?$AA@
  00f91	e8 00 00 00 00	 call	 ?GCServerMsgStringSend@@YAXPADHE@Z ; GCServerMsgStringSend
  00f96	83 c4 0c	 add	 esp, 12			; 0000000cH
$LN1@Teleport:
$LN18@Teleport:

; 393  : 	}
; 394  : 
; 395  : }

  00f99	5f		 pop	 edi
  00f9a	5e		 pop	 esi
  00f9b	5b		 pop	 ebx
  00f9c	8b e5		 mov	 esp, ebp
  00f9e	5d		 pop	 ebp
  00f9f	c2 08 00	 ret	 8
?Teleport@Brotherhood@@QAEXPAUOBJECTSTRUCT@@H@Z ENDP	; Brotherhood::Teleport
; Function compile flags: /Odtp /ZI
; File d:\projects\exteam6.3\source\gameserver\gameserver\castlesiege.h
_TEXT	ENDS
;	COMDAT ?GetCastleState@CCastleSiege@@QAEHXZ
_TEXT	SEGMENT
_this$ = -4						; size = 4
?GetCastleState@CCastleSiege@@QAEHXZ PROC		; CCastleSiege::GetCastleState, COMDAT
; _this$ = ecx

; 314  : 	int GetCastleState(){return m_iCastleSiegeState;}

  00000	55		 push	 ebp
  00001	8b ec		 mov	 ebp, esp
  00003	83 ec 44	 sub	 esp, 68			; 00000044H
  00006	53		 push	 ebx
  00007	56		 push	 esi
  00008	57		 push	 edi
  00009	89 4d fc	 mov	 DWORD PTR _this$[ebp], ecx
  0000c	8b 45 fc	 mov	 eax, DWORD PTR _this$[ebp]
  0000f	8b 40 28	 mov	 eax, DWORD PTR [eax+40]
  00012	5f		 pop	 edi
  00013	5e		 pop	 esi
  00014	5b		 pop	 ebx
  00015	8b e5		 mov	 esp, ebp
  00017	5d		 pop	 ebp
  00018	c3		 ret	 0
?GetCastleState@CCastleSiege@@QAEHXZ ENDP		; CCastleSiege::GetCastleState
_TEXT	ENDS
PUBLIC	??_C@_0BC@HBGECFMK@?$FLBrotherhood?$FN?3?5?$CFs?$AA@ ; `string'
PUBLIC	??_C@_0O@CKAEPJAF@error?5?3?5?$CFs?5?$CFd?$AA@	; `string'
PUBLIC	??_C@_0ED@NGGOLAHH@d?3?2projects?2exteam6?43?2source?2gam@ ; `string'
PUBLIC	?__LINE__Var@?1??UserConnect@Brotherhood@@QAEXH@Z@4JA ; `Brotherhood::UserConnect'::`2'::__LINE__Var
PUBLIC	?UserConnect@Brotherhood@@QAEXH@Z		; Brotherhood::UserConnect
EXTRN	?MsgNormal@@YAXHPADZZ:PROC			; MsgNormal
EXTRN	?LogAdd@@3P6AXPADZZA:DWORD			; LogAdd
;	COMDAT ??_C@_0BC@HBGECFMK@?$FLBrotherhood?$FN?3?5?$CFs?$AA@
; File d:\projects\exteam6.3\source\gameserver\gameserver\brotherhood.cpp
CONST	SEGMENT
??_C@_0BC@HBGECFMK@?$FLBrotherhood?$FN?3?5?$CFs?$AA@ DB '[Brotherhood]: %'
	DB	's', 00H					; `string'
CONST	ENDS
;	COMDAT ??_C@_0O@CKAEPJAF@error?5?3?5?$CFs?5?$CFd?$AA@
CONST	SEGMENT
??_C@_0O@CKAEPJAF@error?5?3?5?$CFs?5?$CFd?$AA@ DB 'error : %s %d', 00H ; `string'
CONST	ENDS
;	COMDAT ??_C@_0ED@NGGOLAHH@d?3?2projects?2exteam6?43?2source?2gam@
CONST	SEGMENT
??_C@_0ED@NGGOLAHH@d?3?2projects?2exteam6?43?2source?2gam@ DB 'd:\project'
	DB	's\exteam6.3\source\gameserver\gameserver\brotherhood.cpp', 00H ; `string'
CONST	ENDS
;	COMDAT ?__LINE__Var@?1??UserConnect@Brotherhood@@QAEXH@Z@4JA
_DATA	SEGMENT
?__LINE__Var@?1??UserConnect@Brotherhood@@QAEXH@Z@4JA DD 018fH ; `Brotherhood::UserConnect'::`2'::__LINE__Var
; Function compile flags: /Odtp /ZI
_DATA	ENDS
_TEXT	SEGMENT
tv69 = -76						; size = 4
_lpUser$ = -8						; size = 4
_this$ = -4						; size = 4
_aIndex$ = 8						; size = 4
?UserConnect@Brotherhood@@QAEXH@Z PROC			; Brotherhood::UserConnect
; _this$ = ecx

; 399  : {

  00fb0	55		 push	 ebp
  00fb1	8b ec		 mov	 ebp, esp
  00fb3	83 ec 4c	 sub	 esp, 76			; 0000004cH
  00fb6	53		 push	 ebx
  00fb7	56		 push	 esi
  00fb8	57		 push	 edi
  00fb9	89 4d fc	 mov	 DWORD PTR _this$[ebp], ecx

; 400  : 	if(!this->Enable)

  00fbc	8b 45 fc	 mov	 eax, DWORD PTR _this$[ebp]
  00fbf	0f b6 08	 movzx	 ecx, BYTE PTR [eax]
  00fc2	85 c9		 test	 ecx, ecx
  00fc4	75 05		 jne	 SHORT $LN4@UserConnec

; 401  : 	{
; 402  : 		return;

  00fc6	e9 95 00 00 00	 jmp	 $LN5@UserConnec
$LN4@UserConnec:

; 403  : 	}
; 404  : 
; 405  : 	if ( OBJMAX_RANGE(aIndex) == FALSE )

  00fcb	83 7d 08 00	 cmp	 DWORD PTR _aIndex$[ebp], 0
  00fcf	7d 09		 jge	 SHORT $LN7@UserConnec
  00fd1	c7 45 b4 00 00
	00 00		 mov	 DWORD PTR tv69[ebp], 0
  00fd8	eb 0f		 jmp	 SHORT $LN8@UserConnec
$LN7@UserConnec:
  00fda	33 c0		 xor	 eax, eax
  00fdc	81 7d 08 97 3a
	00 00		 cmp	 DWORD PTR _aIndex$[ebp], 14999 ; 00003a97H
  00fe3	0f 9e c0	 setle	 al
  00fe6	89 45 b4	 mov	 DWORD PTR tv69[ebp], eax
$LN8@UserConnec:
  00fe9	83 7d b4 00	 cmp	 DWORD PTR tv69[ebp], 0
  00fed	75 1e		 jne	 SHORT $LN3@UserConnec

; 406  : 	{
; 407  : 		LogAdd("error : %s %d", __FILE__, __LINE__ );

  00fef	a1 00 00 00 00	 mov	 eax, DWORD PTR ?__LINE__Var@?1??UserConnect@Brotherhood@@QAEXH@Z@4JA
  00ff4	83 c0 08	 add	 eax, 8
  00ff7	50		 push	 eax
  00ff8	68 00 00 00 00	 push	 OFFSET ??_C@_0ED@NGGOLAHH@d?3?2projects?2exteam6?43?2source?2gam@
  00ffd	68 00 00 00 00	 push	 OFFSET ??_C@_0O@CKAEPJAF@error?5?3?5?$CFs?5?$CFd?$AA@
  01002	ff 15 00 00 00
	00		 call	 DWORD PTR ?LogAdd@@3P6AXPADZZA ; LogAdd
  01008	83 c4 0c	 add	 esp, 12			; 0000000cH

; 408  : 		return;

  0100b	eb 53		 jmp	 SHORT $LN5@UserConnec
$LN3@UserConnec:

; 409  : 	}
; 410  : 
; 411  : 	LPOBJ lpUser = &gObj[aIndex];

  0100d	8b 45 08	 mov	 eax, DWORD PTR _aIndex$[ebp]
  01010	69 c0 38 2b 00
	00		 imul	 eax, 11064		; 00002b38H
  01016	03 05 00 00 00
	00		 add	 eax, DWORD PTR ?gObj@@3PAUOBJECTSTRUCT@@A ; gObj
  0101c	89 45 f8	 mov	 DWORD PTR _lpUser$[ebp], eax

; 412  : 
; 413  : 	if(lpUser->Connected < PLAYER_PLAYING)

  0101f	8b 45 f8	 mov	 eax, DWORD PTR _lpUser$[ebp]
  01022	83 78 04 03	 cmp	 DWORD PTR [eax+4], 3
  01026	7d 02		 jge	 SHORT $LN2@UserConnec

; 414  : 	{
; 415  : 		return;

  01028	eb 36		 jmp	 SHORT $LN5@UserConnec
$LN2@UserConnec:

; 416  : 	}
; 417  : 
; 418  : 	if(!strcmp(lpUser->Brotherhood,"One"))

  0102a	68 00 00 00 00	 push	 OFFSET ??_C@_03EHAPBBEA@One?$AA@
  0102f	8b 45 f8	 mov	 eax, DWORD PTR _lpUser$[ebp]
  01032	05 69 28 00 00	 add	 eax, 10345		; 00002869H
  01037	50		 push	 eax
  01038	e8 00 00 00 00	 call	 _strcmp
  0103d	83 c4 08	 add	 esp, 8
  01040	85 c0		 test	 eax, eax
  01042	75 02		 jne	 SHORT $LN1@UserConnec

; 419  : 	{
; 420  : 		return;

  01044	eb 1a		 jmp	 SHORT $LN5@UserConnec
$LN1@UserConnec:

; 421  : 	}
; 422  : 
; 423  : 	MsgNormal(aIndex,"[Brotherhood]: %s",lpUser->Brotherhood);

  01046	8b 45 f8	 mov	 eax, DWORD PTR _lpUser$[ebp]
  01049	05 69 28 00 00	 add	 eax, 10345		; 00002869H
  0104e	50		 push	 eax
  0104f	68 00 00 00 00	 push	 OFFSET ??_C@_0BC@HBGECFMK@?$FLBrotherhood?$FN?3?5?$CFs?$AA@
  01054	8b 4d 08	 mov	 ecx, DWORD PTR _aIndex$[ebp]
  01057	51		 push	 ecx
  01058	e8 00 00 00 00	 call	 ?MsgNormal@@YAXHPADZZ	; MsgNormal
  0105d	83 c4 0c	 add	 esp, 12			; 0000000cH
$LN5@UserConnec:

; 424  : 
; 425  : }

  01060	5f		 pop	 edi
  01061	5e		 pop	 esi
  01062	5b		 pop	 ebx
  01063	8b e5		 mov	 esp, ebp
  01065	5d		 pop	 ebp
  01066	c2 04 00	 ret	 4
?UserConnect@Brotherhood@@QAEXH@Z ENDP			; Brotherhood::UserConnect
_TEXT	ENDS
PUBLIC	?CheckSimbol@Brotherhood@@QAE_NPAD@Z		; Brotherhood::CheckSimbol
; Function compile flags: /Odtp /ZI
_TEXT	SEGMENT
tv73 = -76						; size = 4
_i$230129 = -8						; size = 4
_this$ = -4						; size = 4
_String$ = 8						; size = 4
?CheckSimbol@Brotherhood@@QAE_NPAD@Z PROC		; Brotherhood::CheckSimbol
; _this$ = ecx

; 428  : {

  01070	55		 push	 ebp
  01071	8b ec		 mov	 ebp, esp
  01073	83 ec 4c	 sub	 esp, 76			; 0000004cH
  01076	53		 push	 ebx
  01077	56		 push	 esi
  01078	57		 push	 edi
  01079	89 4d fc	 mov	 DWORD PTR _this$[ebp], ecx

; 429  : 	if(String[0] == ' ')

  0107c	8b 45 08	 mov	 eax, DWORD PTR _String$[ebp]
  0107f	0f be 08	 movsx	 ecx, BYTE PTR [eax]
  01082	83 f9 20	 cmp	 ecx, 32			; 00000020H
  01085	75 07		 jne	 SHORT $LN71@CheckSimbo

; 430  : 		return false;

  01087	32 c0		 xor	 al, al
  01089	e9 91 02 00 00	 jmp	 $LN72@CheckSimbo
$LN71@CheckSimbo:

; 431  : 
; 432  : 	for(int i(0);i<10;i++)

  0108e	c7 45 f8 00 00
	00 00		 mov	 DWORD PTR _i$230129[ebp], 0
  01095	eb 09		 jmp	 SHORT $LN70@CheckSimbo
$LN69@CheckSimbo:
  01097	8b 45 f8	 mov	 eax, DWORD PTR _i$230129[ebp]
  0109a	83 c0 01	 add	 eax, 1
  0109d	89 45 f8	 mov	 DWORD PTR _i$230129[ebp], eax
$LN70@CheckSimbo:
  010a0	83 7d f8 0a	 cmp	 DWORD PTR _i$230129[ebp], 10 ; 0000000aH
  010a4	0f 8d 73 02 00
	00		 jge	 $LN68@CheckSimbo

; 433  : 	{
; 434  : 		if(String[i] == NULL)

  010aa	8b 45 08	 mov	 eax, DWORD PTR _String$[ebp]
  010ad	03 45 f8	 add	 eax, DWORD PTR _i$230129[ebp]
  010b0	0f be 08	 movsx	 ecx, BYTE PTR [eax]
  010b3	85 c9		 test	 ecx, ecx
  010b5	75 02		 jne	 SHORT $LN67@CheckSimbo

; 435  : 			continue;

  010b7	eb de		 jmp	 SHORT $LN69@CheckSimbo
$LN67@CheckSimbo:

; 436  : 
; 437  : 		switch(String[i])

  010b9	8b 45 08	 mov	 eax, DWORD PTR _String$[ebp]
  010bc	03 45 f8	 add	 eax, DWORD PTR _i$230129[ebp]
  010bf	0f be 08	 movsx	 ecx, BYTE PTR [eax]
  010c2	89 4d b4	 mov	 DWORD PTR tv73[ebp], ecx
  010c5	8b 55 b4	 mov	 edx, DWORD PTR tv73[ebp]
  010c8	83 ea 20	 sub	 edx, 32			; 00000020H
  010cb	89 55 b4	 mov	 DWORD PTR tv73[ebp], edx
  010ce	83 7d b4 5a	 cmp	 DWORD PTR tv73[ebp], 90	; 0000005aH
  010d2	0f 87 3c 02 00
	00		 ja	 $LN1@CheckSimbo
  010d8	8b 45 b4	 mov	 eax, DWORD PTR tv73[ebp]
  010db	0f b6 88 00 00
	00 00		 movzx	 ecx, BYTE PTR $LN74@CheckSimbo[eax]
  010e2	ff 24 8d 00 00
	00 00		 jmp	 DWORD PTR $LN75@CheckSimbo[ecx*4]
$LN64@CheckSimbo:

; 438  : 		{
; 439  : 		case 'a': continue ; break;

  010e9	eb ac		 jmp	 SHORT $LN69@CheckSimbo
  010eb	e9 28 02 00 00	 jmp	 $LN65@CheckSimbo
$LN63@CheckSimbo:

; 440  : 		case 'b': continue ; break;

  010f0	eb a5		 jmp	 SHORT $LN69@CheckSimbo
  010f2	e9 21 02 00 00	 jmp	 $LN65@CheckSimbo
$LN62@CheckSimbo:

; 441  : 		case 'c': continue ; break;

  010f7	eb 9e		 jmp	 SHORT $LN69@CheckSimbo
  010f9	e9 1a 02 00 00	 jmp	 $LN65@CheckSimbo
$LN61@CheckSimbo:

; 442  : 		case 'd': continue ; break;

  010fe	eb 97		 jmp	 SHORT $LN69@CheckSimbo
  01100	e9 13 02 00 00	 jmp	 $LN65@CheckSimbo
$LN60@CheckSimbo:

; 443  : 		case 'e': continue ; break;

  01105	eb 90		 jmp	 SHORT $LN69@CheckSimbo
  01107	e9 0c 02 00 00	 jmp	 $LN65@CheckSimbo
$LN59@CheckSimbo:

; 444  : 		case 'f': continue ; break;

  0110c	eb 89		 jmp	 SHORT $LN69@CheckSimbo
  0110e	e9 05 02 00 00	 jmp	 $LN65@CheckSimbo
$LN58@CheckSimbo:

; 445  : 		case 'g': continue ; break;

  01113	eb 82		 jmp	 SHORT $LN69@CheckSimbo
  01115	e9 fe 01 00 00	 jmp	 $LN65@CheckSimbo
$LN57@CheckSimbo:

; 446  : 		case 'h': continue ; break;

  0111a	e9 78 ff ff ff	 jmp	 $LN69@CheckSimbo
  0111f	e9 f4 01 00 00	 jmp	 $LN65@CheckSimbo
$LN56@CheckSimbo:

; 447  : 		case 'i': continue ; break;

  01124	e9 6e ff ff ff	 jmp	 $LN69@CheckSimbo
  01129	e9 ea 01 00 00	 jmp	 $LN65@CheckSimbo
$LN55@CheckSimbo:

; 448  : 		case 'j': continue ; break;

  0112e	e9 64 ff ff ff	 jmp	 $LN69@CheckSimbo
  01133	e9 e0 01 00 00	 jmp	 $LN65@CheckSimbo
$LN54@CheckSimbo:

; 449  : 		case 'k': continue ; break;

  01138	e9 5a ff ff ff	 jmp	 $LN69@CheckSimbo
  0113d	e9 d6 01 00 00	 jmp	 $LN65@CheckSimbo
$LN53@CheckSimbo:

; 450  : 		case 'l': continue ; break;

  01142	e9 50 ff ff ff	 jmp	 $LN69@CheckSimbo
  01147	e9 cc 01 00 00	 jmp	 $LN65@CheckSimbo
$LN52@CheckSimbo:

; 451  : 		case 'm': continue ; break;

  0114c	e9 46 ff ff ff	 jmp	 $LN69@CheckSimbo
  01151	e9 c2 01 00 00	 jmp	 $LN65@CheckSimbo
$LN51@CheckSimbo:

; 452  : 		case 'n': continue ; break;

  01156	e9 3c ff ff ff	 jmp	 $LN69@CheckSimbo
  0115b	e9 b8 01 00 00	 jmp	 $LN65@CheckSimbo
$LN50@CheckSimbo:

; 453  : 		case 'o': continue ; break;

  01160	e9 32 ff ff ff	 jmp	 $LN69@CheckSimbo
  01165	e9 ae 01 00 00	 jmp	 $LN65@CheckSimbo
$LN49@CheckSimbo:

; 454  : 		case 'p': continue ; break;

  0116a	e9 28 ff ff ff	 jmp	 $LN69@CheckSimbo
  0116f	e9 a4 01 00 00	 jmp	 $LN65@CheckSimbo
$LN48@CheckSimbo:

; 455  : 		case 'q': continue ; break;

  01174	e9 1e ff ff ff	 jmp	 $LN69@CheckSimbo
  01179	e9 9a 01 00 00	 jmp	 $LN65@CheckSimbo
$LN47@CheckSimbo:

; 456  : 		case 'r': continue ; break;

  0117e	e9 14 ff ff ff	 jmp	 $LN69@CheckSimbo
  01183	e9 90 01 00 00	 jmp	 $LN65@CheckSimbo
$LN46@CheckSimbo:

; 457  : 		case 's': continue ; break;

  01188	e9 0a ff ff ff	 jmp	 $LN69@CheckSimbo
  0118d	e9 86 01 00 00	 jmp	 $LN65@CheckSimbo
$LN45@CheckSimbo:

; 458  : 		case 't': continue ; break;

  01192	e9 00 ff ff ff	 jmp	 $LN69@CheckSimbo
  01197	e9 7c 01 00 00	 jmp	 $LN65@CheckSimbo
$LN44@CheckSimbo:

; 459  : 		case 'u': continue ; break;

  0119c	e9 f6 fe ff ff	 jmp	 $LN69@CheckSimbo
  011a1	e9 72 01 00 00	 jmp	 $LN65@CheckSimbo
$LN43@CheckSimbo:

; 460  : 		case 'v': continue ; break;

  011a6	e9 ec fe ff ff	 jmp	 $LN69@CheckSimbo
  011ab	e9 68 01 00 00	 jmp	 $LN65@CheckSimbo
$LN42@CheckSimbo:

; 461  : 		case 'w': continue ; break;

  011b0	e9 e2 fe ff ff	 jmp	 $LN69@CheckSimbo
  011b5	e9 5e 01 00 00	 jmp	 $LN65@CheckSimbo
$LN41@CheckSimbo:

; 462  : 		case 'x': continue ; break;

  011ba	e9 d8 fe ff ff	 jmp	 $LN69@CheckSimbo
  011bf	e9 54 01 00 00	 jmp	 $LN65@CheckSimbo
$LN40@CheckSimbo:

; 463  : 		case 'y': continue ; break;

  011c4	e9 ce fe ff ff	 jmp	 $LN69@CheckSimbo
  011c9	e9 4a 01 00 00	 jmp	 $LN65@CheckSimbo
$LN39@CheckSimbo:

; 464  : 		case 'z': continue ; break;

  011ce	e9 c4 fe ff ff	 jmp	 $LN69@CheckSimbo
  011d3	e9 40 01 00 00	 jmp	 $LN65@CheckSimbo
$LN38@CheckSimbo:

; 465  : 		case 'A': continue ; break;

  011d8	e9 ba fe ff ff	 jmp	 $LN69@CheckSimbo
  011dd	e9 36 01 00 00	 jmp	 $LN65@CheckSimbo
$LN37@CheckSimbo:

; 466  : 		case 'B': continue ; break;

  011e2	e9 b0 fe ff ff	 jmp	 $LN69@CheckSimbo
  011e7	e9 2c 01 00 00	 jmp	 $LN65@CheckSimbo
$LN36@CheckSimbo:

; 467  : 		case 'C': continue ; break;

  011ec	e9 a6 fe ff ff	 jmp	 $LN69@CheckSimbo
  011f1	e9 22 01 00 00	 jmp	 $LN65@CheckSimbo
$LN35@CheckSimbo:

; 468  : 		case 'D': continue ; break;

  011f6	e9 9c fe ff ff	 jmp	 $LN69@CheckSimbo
  011fb	e9 18 01 00 00	 jmp	 $LN65@CheckSimbo
$LN34@CheckSimbo:

; 469  : 		case 'E': continue ; break;

  01200	e9 92 fe ff ff	 jmp	 $LN69@CheckSimbo
  01205	e9 0e 01 00 00	 jmp	 $LN65@CheckSimbo
$LN33@CheckSimbo:

; 470  : 		case 'F': continue ; break;

  0120a	e9 88 fe ff ff	 jmp	 $LN69@CheckSimbo
  0120f	e9 04 01 00 00	 jmp	 $LN65@CheckSimbo
$LN32@CheckSimbo:

; 471  : 		case 'G': continue ; break;

  01214	e9 7e fe ff ff	 jmp	 $LN69@CheckSimbo
  01219	e9 fa 00 00 00	 jmp	 $LN65@CheckSimbo
$LN31@CheckSimbo:

; 472  : 		case 'H': continue ; break;

  0121e	e9 74 fe ff ff	 jmp	 $LN69@CheckSimbo
  01223	e9 f0 00 00 00	 jmp	 $LN65@CheckSimbo
$LN30@CheckSimbo:

; 473  : 		case 'I': continue ; break;

  01228	e9 6a fe ff ff	 jmp	 $LN69@CheckSimbo
  0122d	e9 e6 00 00 00	 jmp	 $LN65@CheckSimbo
$LN29@CheckSimbo:

; 474  : 		case 'J': continue ; break;

  01232	e9 60 fe ff ff	 jmp	 $LN69@CheckSimbo
  01237	e9 dc 00 00 00	 jmp	 $LN65@CheckSimbo
$LN28@CheckSimbo:

; 475  : 		case 'K': continue ; break;

  0123c	e9 56 fe ff ff	 jmp	 $LN69@CheckSimbo
  01241	e9 d2 00 00 00	 jmp	 $LN65@CheckSimbo
$LN27@CheckSimbo:

; 476  : 		case 'L': continue ; break;

  01246	e9 4c fe ff ff	 jmp	 $LN69@CheckSimbo
  0124b	e9 c8 00 00 00	 jmp	 $LN65@CheckSimbo
$LN26@CheckSimbo:

; 477  : 		case 'M': continue ; break;

  01250	e9 42 fe ff ff	 jmp	 $LN69@CheckSimbo
  01255	e9 be 00 00 00	 jmp	 $LN65@CheckSimbo
$LN25@CheckSimbo:

; 478  : 		case 'N': continue ; break;

  0125a	e9 38 fe ff ff	 jmp	 $LN69@CheckSimbo
  0125f	e9 b4 00 00 00	 jmp	 $LN65@CheckSimbo
$LN24@CheckSimbo:

; 479  : 		case 'O': continue ; break;

  01264	e9 2e fe ff ff	 jmp	 $LN69@CheckSimbo
  01269	e9 aa 00 00 00	 jmp	 $LN65@CheckSimbo
$LN23@CheckSimbo:

; 480  : 		case 'P': continue ; break;

  0126e	e9 24 fe ff ff	 jmp	 $LN69@CheckSimbo
  01273	e9 a0 00 00 00	 jmp	 $LN65@CheckSimbo
$LN22@CheckSimbo:

; 481  : 		case 'Q': continue ; break;

  01278	e9 1a fe ff ff	 jmp	 $LN69@CheckSimbo
  0127d	e9 96 00 00 00	 jmp	 $LN65@CheckSimbo
$LN21@CheckSimbo:

; 482  : 		case 'R': continue ; break;

  01282	e9 10 fe ff ff	 jmp	 $LN69@CheckSimbo
  01287	e9 8c 00 00 00	 jmp	 $LN65@CheckSimbo
$LN20@CheckSimbo:

; 483  : 		case 'S': continue ; break;

  0128c	e9 06 fe ff ff	 jmp	 $LN69@CheckSimbo
  01291	e9 82 00 00 00	 jmp	 $LN65@CheckSimbo
$LN19@CheckSimbo:

; 484  : 		case 'T': continue ; break;

  01296	e9 fc fd ff ff	 jmp	 $LN69@CheckSimbo
  0129b	eb 7b		 jmp	 SHORT $LN65@CheckSimbo
$LN18@CheckSimbo:

; 485  : 		case 'U': continue ; break;

  0129d	e9 f5 fd ff ff	 jmp	 $LN69@CheckSimbo
  012a2	eb 74		 jmp	 SHORT $LN65@CheckSimbo
$LN17@CheckSimbo:

; 486  : 		case 'V': continue ; break;

  012a4	e9 ee fd ff ff	 jmp	 $LN69@CheckSimbo
  012a9	eb 6d		 jmp	 SHORT $LN65@CheckSimbo
$LN16@CheckSimbo:

; 487  : 		case 'W': continue ; break;

  012ab	e9 e7 fd ff ff	 jmp	 $LN69@CheckSimbo
  012b0	eb 66		 jmp	 SHORT $LN65@CheckSimbo
$LN15@CheckSimbo:

; 488  : 		case 'X': continue ; break;

  012b2	e9 e0 fd ff ff	 jmp	 $LN69@CheckSimbo
  012b7	eb 5f		 jmp	 SHORT $LN65@CheckSimbo
$LN14@CheckSimbo:

; 489  : 		case 'Y': continue ; break;

  012b9	e9 d9 fd ff ff	 jmp	 $LN69@CheckSimbo
  012be	eb 58		 jmp	 SHORT $LN65@CheckSimbo
$LN13@CheckSimbo:

; 490  : 		case 'Z': continue ; break;

  012c0	e9 d2 fd ff ff	 jmp	 $LN69@CheckSimbo
  012c5	eb 51		 jmp	 SHORT $LN65@CheckSimbo
$LN12@CheckSimbo:

; 491  : 		case '0': continue ; break;

  012c7	e9 cb fd ff ff	 jmp	 $LN69@CheckSimbo
  012cc	eb 4a		 jmp	 SHORT $LN65@CheckSimbo
$LN11@CheckSimbo:

; 492  : 		case '1': continue ; break;

  012ce	e9 c4 fd ff ff	 jmp	 $LN69@CheckSimbo
  012d3	eb 43		 jmp	 SHORT $LN65@CheckSimbo
$LN10@CheckSimbo:

; 493  : 		case '2': continue ; break;

  012d5	e9 bd fd ff ff	 jmp	 $LN69@CheckSimbo
  012da	eb 3c		 jmp	 SHORT $LN65@CheckSimbo
$LN9@CheckSimbo:

; 494  : 		case '3': continue ; break;

  012dc	e9 b6 fd ff ff	 jmp	 $LN69@CheckSimbo
  012e1	eb 35		 jmp	 SHORT $LN65@CheckSimbo
$LN8@CheckSimbo:

; 495  : 		case '4': continue ; break;

  012e3	e9 af fd ff ff	 jmp	 $LN69@CheckSimbo
  012e8	eb 2e		 jmp	 SHORT $LN65@CheckSimbo
$LN7@CheckSimbo:

; 496  : 		case '5': continue ; break;

  012ea	e9 a8 fd ff ff	 jmp	 $LN69@CheckSimbo
  012ef	eb 27		 jmp	 SHORT $LN65@CheckSimbo
$LN6@CheckSimbo:

; 497  : 		case '6': continue ; break;

  012f1	e9 a1 fd ff ff	 jmp	 $LN69@CheckSimbo
  012f6	eb 20		 jmp	 SHORT $LN65@CheckSimbo
$LN5@CheckSimbo:

; 498  : 		case '7': continue ; break;

  012f8	e9 9a fd ff ff	 jmp	 $LN69@CheckSimbo
  012fd	eb 19		 jmp	 SHORT $LN65@CheckSimbo
$LN4@CheckSimbo:

; 499  : 		case '8': continue ; break;

  012ff	e9 93 fd ff ff	 jmp	 $LN69@CheckSimbo
  01304	eb 12		 jmp	 SHORT $LN65@CheckSimbo
$LN3@CheckSimbo:

; 500  : 		case '9': continue ; break;

  01306	e9 8c fd ff ff	 jmp	 $LN69@CheckSimbo
  0130b	eb 0b		 jmp	 SHORT $LN65@CheckSimbo
$LN2@CheckSimbo:

; 501  : 		case ' ': continue ; break;

  0130d	e9 85 fd ff ff	 jmp	 $LN69@CheckSimbo
  01312	eb 04		 jmp	 SHORT $LN65@CheckSimbo
$LN1@CheckSimbo:

; 502  : 		default: return false;

  01314	32 c0		 xor	 al, al
  01316	eb 07		 jmp	 SHORT $LN72@CheckSimbo
$LN65@CheckSimbo:

; 503  : 		}
; 504  : 	}

  01318	e9 7a fd ff ff	 jmp	 $LN69@CheckSimbo
$LN68@CheckSimbo:

; 505  : 	return true;

  0131d	b0 01		 mov	 al, 1
$LN72@CheckSimbo:

; 506  : }

  0131f	5f		 pop	 edi
  01320	5e		 pop	 esi
  01321	5b		 pop	 ebx
  01322	8b e5		 mov	 esp, ebp
  01324	5d		 pop	 ebp
  01325	c2 04 00	 ret	 4
$LN75@CheckSimbo:
  01328	00 00 00 00	 DD	 $LN2@CheckSimbo
  0132c	00 00 00 00	 DD	 $LN12@CheckSimbo
  01330	00 00 00 00	 DD	 $LN11@CheckSimbo
  01334	00 00 00 00	 DD	 $LN10@CheckSimbo
  01338	00 00 00 00	 DD	 $LN9@CheckSimbo
  0133c	00 00 00 00	 DD	 $LN8@CheckSimbo
  01340	00 00 00 00	 DD	 $LN7@CheckSimbo
  01344	00 00 00 00	 DD	 $LN6@CheckSimbo
  01348	00 00 00 00	 DD	 $LN5@CheckSimbo
  0134c	00 00 00 00	 DD	 $LN4@CheckSimbo
  01350	00 00 00 00	 DD	 $LN3@CheckSimbo
  01354	00 00 00 00	 DD	 $LN38@CheckSimbo
  01358	00 00 00 00	 DD	 $LN37@CheckSimbo
  0135c	00 00 00 00	 DD	 $LN36@CheckSimbo
  01360	00 00 00 00	 DD	 $LN35@CheckSimbo
  01364	00 00 00 00	 DD	 $LN34@CheckSimbo
  01368	00 00 00 00	 DD	 $LN33@CheckSimbo
  0136c	00 00 00 00	 DD	 $LN32@CheckSimbo
  01370	00 00 00 00	 DD	 $LN31@CheckSimbo
  01374	00 00 00 00	 DD	 $LN30@CheckSimbo
  01378	00 00 00 00	 DD	 $LN29@CheckSimbo
  0137c	00 00 00 00	 DD	 $LN28@CheckSimbo
  01380	00 00 00 00	 DD	 $LN27@CheckSimbo
  01384	00 00 00 00	 DD	 $LN26@CheckSimbo
  01388	00 00 00 00	 DD	 $LN25@CheckSimbo
  0138c	00 00 00 00	 DD	 $LN24@CheckSimbo
  01390	00 00 00 00	 DD	 $LN23@CheckSimbo
  01394	00 00 00 00	 DD	 $LN22@CheckSimbo
  01398	00 00 00 00	 DD	 $LN21@CheckSimbo
  0139c	00 00 00 00	 DD	 $LN20@CheckSimbo
  013a0	00 00 00 00	 DD	 $LN19@CheckSimbo
  013a4	00 00 00 00	 DD	 $LN18@CheckSimbo
  013a8	00 00 00 00	 DD	 $LN17@CheckSimbo
  013ac	00 00 00 00	 DD	 $LN16@CheckSimbo
  013b0	00 00 00 00	 DD	 $LN15@CheckSimbo
  013b4	00 00 00 00	 DD	 $LN14@CheckSimbo
  013b8	00 00 00 00	 DD	 $LN13@CheckSimbo
  013bc	00 00 00 00	 DD	 $LN64@CheckSimbo
  013c0	00 00 00 00	 DD	 $LN63@CheckSimbo
  013c4	00 00 00 00	 DD	 $LN62@CheckSimbo
  013c8	00 00 00 00	 DD	 $LN61@CheckSimbo
  013cc	00 00 00 00	 DD	 $LN60@CheckSimbo
  013d0	00 00 00 00	 DD	 $LN59@CheckSimbo
  013d4	00 00 00 00	 DD	 $LN58@CheckSimbo
  013d8	00 00 00 00	 DD	 $LN57@CheckSimbo
  013dc	00 00 00 00	 DD	 $LN56@CheckSimbo
  013e0	00 00 00 00	 DD	 $LN55@CheckSimbo
  013e4	00 00 00 00	 DD	 $LN54@CheckSimbo
  013e8	00 00 00 00	 DD	 $LN53@CheckSimbo
  013ec	00 00 00 00	 DD	 $LN52@CheckSimbo
  013f0	00 00 00 00	 DD	 $LN51@CheckSimbo
  013f4	00 00 00 00	 DD	 $LN50@CheckSimbo
  013f8	00 00 00 00	 DD	 $LN49@CheckSimbo
  013fc	00 00 00 00	 DD	 $LN48@CheckSimbo
  01400	00 00 00 00	 DD	 $LN47@CheckSimbo
  01404	00 00 00 00	 DD	 $LN46@CheckSimbo
  01408	00 00 00 00	 DD	 $LN45@CheckSimbo
  0140c	00 00 00 00	 DD	 $LN44@CheckSimbo
  01410	00 00 00 00	 DD	 $LN43@CheckSimbo
  01414	00 00 00 00	 DD	 $LN42@CheckSimbo
  01418	00 00 00 00	 DD	 $LN41@CheckSimbo
  0141c	00 00 00 00	 DD	 $LN40@CheckSimbo
  01420	00 00 00 00	 DD	 $LN39@CheckSimbo
  01424	00 00 00 00	 DD	 $LN1@CheckSimbo
$LN74@CheckSimbo:
  01428	00		 DB	 0
  01429	3f		 DB	 63			; 0000003fH
  0142a	3f		 DB	 63			; 0000003fH
  0142b	3f		 DB	 63			; 0000003fH
  0142c	3f		 DB	 63			; 0000003fH
  0142d	3f		 DB	 63			; 0000003fH
  0142e	3f		 DB	 63			; 0000003fH
  0142f	3f		 DB	 63			; 0000003fH
  01430	3f		 DB	 63			; 0000003fH
  01431	3f		 DB	 63			; 0000003fH
  01432	3f		 DB	 63			; 0000003fH
  01433	3f		 DB	 63			; 0000003fH
  01434	3f		 DB	 63			; 0000003fH
  01435	3f		 DB	 63			; 0000003fH
  01436	3f		 DB	 63			; 0000003fH
  01437	3f		 DB	 63			; 0000003fH
  01438	01		 DB	 1
  01439	02		 DB	 2
  0143a	03		 DB	 3
  0143b	04		 DB	 4
  0143c	05		 DB	 5
  0143d	06		 DB	 6
  0143e	07		 DB	 7
  0143f	08		 DB	 8
  01440	09		 DB	 9
  01441	0a		 DB	 10			; 0000000aH
  01442	3f		 DB	 63			; 0000003fH
  01443	3f		 DB	 63			; 0000003fH
  01444	3f		 DB	 63			; 0000003fH
  01445	3f		 DB	 63			; 0000003fH
  01446	3f		 DB	 63			; 0000003fH
  01447	3f		 DB	 63			; 0000003fH
  01448	3f		 DB	 63			; 0000003fH
  01449	0b		 DB	 11			; 0000000bH
  0144a	0c		 DB	 12			; 0000000cH
  0144b	0d		 DB	 13			; 0000000dH
  0144c	0e		 DB	 14			; 0000000eH
  0144d	0f		 DB	 15			; 0000000fH
  0144e	10		 DB	 16			; 00000010H
  0144f	11		 DB	 17			; 00000011H
  01450	12		 DB	 18			; 00000012H
  01451	13		 DB	 19			; 00000013H
  01452	14		 DB	 20			; 00000014H
  01453	15		 DB	 21			; 00000015H
  01454	16		 DB	 22			; 00000016H
  01455	17		 DB	 23			; 00000017H
  01456	18		 DB	 24			; 00000018H
  01457	19		 DB	 25			; 00000019H
  01458	1a		 DB	 26			; 0000001aH
  01459	1b		 DB	 27			; 0000001bH
  0145a	1c		 DB	 28			; 0000001cH
  0145b	1d		 DB	 29			; 0000001dH
  0145c	1e		 DB	 30			; 0000001eH
  0145d	1f		 DB	 31			; 0000001fH
  0145e	20		 DB	 32			; 00000020H
  0145f	21		 DB	 33			; 00000021H
  01460	22		 DB	 34			; 00000022H
  01461	23		 DB	 35			; 00000023H
  01462	24		 DB	 36			; 00000024H
  01463	3f		 DB	 63			; 0000003fH
  01464	3f		 DB	 63			; 0000003fH
  01465	3f		 DB	 63			; 0000003fH
  01466	3f		 DB	 63			; 0000003fH
  01467	3f		 DB	 63			; 0000003fH
  01468	3f		 DB	 63			; 0000003fH
  01469	25		 DB	 37			; 00000025H
  0146a	26		 DB	 38			; 00000026H
  0146b	27		 DB	 39			; 00000027H
  0146c	28		 DB	 40			; 00000028H
  0146d	29		 DB	 41			; 00000029H
  0146e	2a		 DB	 42			; 0000002aH
  0146f	2b		 DB	 43			; 0000002bH
  01470	2c		 DB	 44			; 0000002cH
  01471	2d		 DB	 45			; 0000002dH
  01472	2e		 DB	 46			; 0000002eH
  01473	2f		 DB	 47			; 0000002fH
  01474	30		 DB	 48			; 00000030H
  01475	31		 DB	 49			; 00000031H
  01476	32		 DB	 50			; 00000032H
  01477	33		 DB	 51			; 00000033H
  01478	34		 DB	 52			; 00000034H
  01479	35		 DB	 53			; 00000035H
  0147a	36		 DB	 54			; 00000036H
  0147b	37		 DB	 55			; 00000037H
  0147c	38		 DB	 56			; 00000038H
  0147d	39		 DB	 57			; 00000039H
  0147e	3a		 DB	 58			; 0000003aH
  0147f	3b		 DB	 59			; 0000003bH
  01480	3c		 DB	 60			; 0000003cH
  01481	3d		 DB	 61			; 0000003dH
  01482	3e		 DB	 62			; 0000003eH
?CheckSimbol@Brotherhood@@QAE_NPAD@Z ENDP		; Brotherhood::CheckSimbol
_TEXT	ENDS
PUBLIC	??_C@_0BL@MGHIGAKM@?$HO?$FLBrotherhood?$FN?3?5Create?3?5?$CFs?$AA@ ; `string'
PUBLIC	??_C@_0BO@EFGFCICC@?$FLBrotherhood?$FN?3?5Need?5?$CFd?5Credit?$AA@ ; `string'
PUBLIC	??_C@_0BO@MJNLBDFA@?$FLBrotherhood?$FN?3?5Need?5?$CFd?5Goblin?$AA@ ; `string'
PUBLIC	??_C@_0BO@FFKPHDKI@?$FLBrotherhood?$FN?3?5Need?5?$CFd?5WCoinP?$AA@ ; `string'
PUBLIC	??_C@_0BO@DEEADCDK@?$FLBrotherhood?$FN?3?5Need?5?$CFd?5WCoinC?$AA@ ; `string'
PUBLIC	??_C@_0BL@CNLPDMGF@?$FLBrotherhood?$FN?3?5Need?5?$CFd?5Zen?$AA@ ; `string'
PUBLIC	??_C@_0CC@BKCMJHBG@?$FLBrotherhood?$FN?3?5Brother?5Party?5?$CFd?1@ ; `string'
PUBLIC	??_C@_0BO@KLPFKPNJ@?$FLBrotherhood?$FN?5Need?5Max?5User?55?$AA@ ; `string'
PUBLIC	??_C@_0BO@GGNKNGLB@?$FLBrotherhood?$FN?5No?5Party?5Leader?$AA@ ; `string'
PUBLIC	??_C@_0BJ@PHMHMDCA@?$FLBrotherhood?$FN?5Word?5Error?$AA@ ; `string'
PUBLIC	??_C@_0BJ@LGGNJJGF@?$FLBrotherhood?$FN?5Max?5Len?510?$AA@ ; `string'
PUBLIC	??_C@_0BH@IHBBNOAL@?$FLBrotherhood?$FN?5No?5Party?$AA@ ; `string'
PUBLIC	?__LINE__Var@?1??UserAddedBrother@Brotherhood@@QAEXHPAD@Z@4JA ; `Brotherhood::UserAddedBrother'::`2'::__LINE__Var
PUBLIC	__$ArrayPad$
PUBLIC	?UserAddedBrother@Brotherhood@@QAEXHPAD@Z	; Brotherhood::UserAddedBrother
EXTRN	?MessageChat@@YAXHPADZZ:PROC			; MessageChat
EXTRN	?ExFireCracker@@YAXHEE@Z:PROC			; ExFireCracker
EXTRN	?ExUserDataSend@@YAXH@Z:PROC			; ExUserDataSend
EXTRN	?GDSaveUserInfo@GameShop@@QAEXH@Z:PROC		; GameShop::GDSaveUserInfo
EXTRN	?gGameShop@@3VGameShop@@A:BYTE			; gGameShop
EXTRN	?GCMoneySend@@YAXHK@Z:PROC			; GCMoneySend
EXTRN	?GetPartyCount@PartyClass@@QAEHH@Z:PROC		; PartyClass::GetPartyCount
EXTRN	?Isleader@PartyClass@@QAEHHHH@Z:PROC		; PartyClass::Isleader
EXTRN	_strncpy:PROC
EXTRN	_strlen:PROC
;	COMDAT ??_C@_0BL@MGHIGAKM@?$HO?$FLBrotherhood?$FN?3?5Create?3?5?$CFs?$AA@
CONST	SEGMENT
??_C@_0BL@MGHIGAKM@?$HO?$FLBrotherhood?$FN?3?5Create?3?5?$CFs?$AA@ DB '~['
	DB	'Brotherhood]: Create: %s', 00H		; `string'
CONST	ENDS
;	COMDAT ??_C@_0BO@EFGFCICC@?$FLBrotherhood?$FN?3?5Need?5?$CFd?5Credit?$AA@
CONST	SEGMENT
??_C@_0BO@EFGFCICC@?$FLBrotherhood?$FN?3?5Need?5?$CFd?5Credit?$AA@ DB '[B'
	DB	'rotherhood]: Need %d Credit', 00H		; `string'
CONST	ENDS
;	COMDAT ??_C@_0BO@MJNLBDFA@?$FLBrotherhood?$FN?3?5Need?5?$CFd?5Goblin?$AA@
CONST	SEGMENT
??_C@_0BO@MJNLBDFA@?$FLBrotherhood?$FN?3?5Need?5?$CFd?5Goblin?$AA@ DB '[B'
	DB	'rotherhood]: Need %d Goblin', 00H		; `string'
CONST	ENDS
;	COMDAT ??_C@_0BO@FFKPHDKI@?$FLBrotherhood?$FN?3?5Need?5?$CFd?5WCoinP?$AA@
CONST	SEGMENT
??_C@_0BO@FFKPHDKI@?$FLBrotherhood?$FN?3?5Need?5?$CFd?5WCoinP?$AA@ DB '[B'
	DB	'rotherhood]: Need %d WCoinP', 00H		; `string'
CONST	ENDS
;	COMDAT ??_C@_0BO@DEEADCDK@?$FLBrotherhood?$FN?3?5Need?5?$CFd?5WCoinC?$AA@
CONST	SEGMENT
??_C@_0BO@DEEADCDK@?$FLBrotherhood?$FN?3?5Need?5?$CFd?5WCoinC?$AA@ DB '[B'
	DB	'rotherhood]: Need %d WCoinC', 00H		; `string'
CONST	ENDS
;	COMDAT ??_C@_0BL@CNLPDMGF@?$FLBrotherhood?$FN?3?5Need?5?$CFd?5Zen?$AA@
CONST	SEGMENT
??_C@_0BL@CNLPDMGF@?$FLBrotherhood?$FN?3?5Need?5?$CFd?5Zen?$AA@ DB '[Brot'
	DB	'herhood]: Need %d Zen', 00H			; `string'
CONST	ENDS
;	COMDAT ??_C@_0CC@BKCMJHBG@?$FLBrotherhood?$FN?3?5Brother?5Party?5?$CFd?1@
CONST	SEGMENT
??_C@_0CC@BKCMJHBG@?$FLBrotherhood?$FN?3?5Brother?5Party?5?$CFd?1@ DB '[B'
	DB	'rotherhood]: Brother Party %d/5', 00H	; `string'
CONST	ENDS
;	COMDAT ??_C@_0BO@KLPFKPNJ@?$FLBrotherhood?$FN?5Need?5Max?5User?55?$AA@
CONST	SEGMENT
??_C@_0BO@KLPFKPNJ@?$FLBrotherhood?$FN?5Need?5Max?5User?55?$AA@ DB '[Brot'
	DB	'herhood] Need Max User 5', 00H		; `string'
CONST	ENDS
;	COMDAT ??_C@_0BO@GGNKNGLB@?$FLBrotherhood?$FN?5No?5Party?5Leader?$AA@
CONST	SEGMENT
??_C@_0BO@GGNKNGLB@?$FLBrotherhood?$FN?5No?5Party?5Leader?$AA@ DB '[Broth'
	DB	'erhood] No Party Leader', 00H		; `string'
CONST	ENDS
;	COMDAT ??_C@_0BJ@PHMHMDCA@?$FLBrotherhood?$FN?5Word?5Error?$AA@
CONST	SEGMENT
??_C@_0BJ@PHMHMDCA@?$FLBrotherhood?$FN?5Word?5Error?$AA@ DB '[Brotherhood'
	DB	'] Word Error', 00H				; `string'
CONST	ENDS
;	COMDAT ??_C@_0BJ@LGGNJJGF@?$FLBrotherhood?$FN?5Max?5Len?510?$AA@
CONST	SEGMENT
??_C@_0BJ@LGGNJJGF@?$FLBrotherhood?$FN?5Max?5Len?510?$AA@ DB '[Brotherhoo'
	DB	'd] Max Len 10', 00H				; `string'
CONST	ENDS
;	COMDAT ??_C@_0BH@IHBBNOAL@?$FLBrotherhood?$FN?5No?5Party?$AA@
CONST	SEGMENT
??_C@_0BH@IHBBNOAL@?$FLBrotherhood?$FN?5No?5Party?$AA@ DB '[Brotherhood] '
	DB	'No Party', 00H				; `string'
CONST	ENDS
;	COMDAT ?__LINE__Var@?1??UserAddedBrother@Brotherhood@@QAEXHPAD@Z@4JA
_DATA	SEGMENT
?__LINE__Var@?1??UserAddedBrother@Brotherhood@@QAEXHPAD@Z@4JA DD 01fdH ; `Brotherhood::UserAddedBrother'::`2'::__LINE__Var
; Function compile flags: /Odtp /ZI
_DATA	ENDS
_TEXT	SEGMENT
tv69 = -124						; size = 4
_LpBrother$230263 = -56					; size = 4
_i$230258 = -52						; size = 4
_LpBrother$230234 = -48					; size = 4
_n$230228 = -44						; size = 4
_PartyUserCount$ = -40					; size = 4
_partynum$ = -36					; size = 4
_BrCount$ = -32						; size = 4
_number$ = -28						; size = 4
_szBrName$ = -24					; size = 11
_lpUser$ = -12						; size = 4
_this$ = -8						; size = 4
__$ArrayPad$ = -4					; size = 4
_aIndex$ = 8						; size = 4
_BrName$ = 12						; size = 4
?UserAddedBrother@Brotherhood@@QAEXHPAD@Z PROC		; Brotherhood::UserAddedBrother
; _this$ = ecx

; 509  : {

  01490	55		 push	 ebp
  01491	8b ec		 mov	 ebp, esp
  01493	83 ec 7c	 sub	 esp, 124		; 0000007cH
  01496	a1 00 00 00 00	 mov	 eax, DWORD PTR ___security_cookie
  0149b	33 c5		 xor	 eax, ebp
  0149d	89 45 fc	 mov	 DWORD PTR __$ArrayPad$[ebp], eax
  014a0	53		 push	 ebx
  014a1	56		 push	 esi
  014a2	57		 push	 edi
  014a3	89 4d f8	 mov	 DWORD PTR _this$[ebp], ecx

; 510  : 	if(!this->Enable)

  014a6	8b 45 f8	 mov	 eax, DWORD PTR _this$[ebp]
  014a9	0f b6 08	 movzx	 ecx, BYTE PTR [eax]
  014ac	85 c9		 test	 ecx, ecx
  014ae	75 05		 jne	 SHORT $LN35@UserAddedB

; 511  : 	{
; 512  : 		return;

  014b0	e9 19 05 00 00	 jmp	 $LN36@UserAddedB
$LN35@UserAddedB:

; 513  : 	}
; 514  : 
; 515  : 	if ( OBJMAX_RANGE(aIndex) == FALSE )

  014b5	83 7d 08 00	 cmp	 DWORD PTR _aIndex$[ebp], 0
  014b9	7d 09		 jge	 SHORT $LN38@UserAddedB
  014bb	c7 45 84 00 00
	00 00		 mov	 DWORD PTR tv69[ebp], 0
  014c2	eb 0f		 jmp	 SHORT $LN39@UserAddedB
$LN38@UserAddedB:
  014c4	33 c0		 xor	 eax, eax
  014c6	81 7d 08 97 3a
	00 00		 cmp	 DWORD PTR _aIndex$[ebp], 14999 ; 00003a97H
  014cd	0f 9e c0	 setle	 al
  014d0	89 45 84	 mov	 DWORD PTR tv69[ebp], eax
$LN39@UserAddedB:
  014d3	83 7d 84 00	 cmp	 DWORD PTR tv69[ebp], 0
  014d7	75 21		 jne	 SHORT $LN34@UserAddedB

; 516  : 	{
; 517  : 		LogAdd("error : %s %d", __FILE__, __LINE__ );

  014d9	a1 00 00 00 00	 mov	 eax, DWORD PTR ?__LINE__Var@?1??UserAddedBrother@Brotherhood@@QAEXHPAD@Z@4JA
  014de	83 c0 08	 add	 eax, 8
  014e1	50		 push	 eax
  014e2	68 00 00 00 00	 push	 OFFSET ??_C@_0ED@NGGOLAHH@d?3?2projects?2exteam6?43?2source?2gam@
  014e7	68 00 00 00 00	 push	 OFFSET ??_C@_0O@CKAEPJAF@error?5?3?5?$CFs?5?$CFd?$AA@
  014ec	ff 15 00 00 00
	00		 call	 DWORD PTR ?LogAdd@@3P6AXPADZZA ; LogAdd
  014f2	83 c4 0c	 add	 esp, 12			; 0000000cH

; 518  : 		return;

  014f5	e9 d4 04 00 00	 jmp	 $LN36@UserAddedB
$LN34@UserAddedB:

; 519  : 	}
; 520  : 
; 521  : 	LPOBJ lpUser = &gObj[aIndex];

  014fa	8b 45 08	 mov	 eax, DWORD PTR _aIndex$[ebp]
  014fd	69 c0 38 2b 00
	00		 imul	 eax, 11064		; 00002b38H
  01503	03 05 00 00 00
	00		 add	 eax, DWORD PTR ?gObj@@3PAUOBJECTSTRUCT@@A ; gObj
  01509	89 45 f4	 mov	 DWORD PTR _lpUser$[ebp], eax

; 522  : 
; 523  : 	if(lpUser->Connected < PLAYER_PLAYING)

  0150c	8b 45 f4	 mov	 eax, DWORD PTR _lpUser$[ebp]
  0150f	83 78 04 03	 cmp	 DWORD PTR [eax+4], 3
  01513	7d 05		 jge	 SHORT $LN33@UserAddedB

; 524  : 	{
; 525  : 		return;

  01515	e9 b4 04 00 00	 jmp	 $LN36@UserAddedB
$LN33@UserAddedB:

; 526  : 	}
; 527  : 
; 528  : #ifndef BR_DEBUG
; 529  : 
; 530  : 	//    
; 531  : 	if(lpUser->PartyNumber == -1)

  0151a	8b 45 f4	 mov	 eax, DWORD PTR _lpUser$[ebp]
  0151d	83 b8 2c 04 00
	00 ff		 cmp	 DWORD PTR [eax+1068], -1
  01524	75 16		 jne	 SHORT $LN32@UserAddedB

; 532  : 	{
; 533  : 		MsgNormal(aIndex,"[Brotherhood] No Party");

  01526	68 00 00 00 00	 push	 OFFSET ??_C@_0BH@IHBBNOAL@?$FLBrotherhood?$FN?5No?5Party?$AA@
  0152b	8b 45 08	 mov	 eax, DWORD PTR _aIndex$[ebp]
  0152e	50		 push	 eax
  0152f	e8 00 00 00 00	 call	 ?MsgNormal@@YAXHPADZZ	; MsgNormal
  01534	83 c4 08	 add	 esp, 8

; 534  : 		return;

  01537	e9 92 04 00 00	 jmp	 $LN36@UserAddedB
$LN32@UserAddedB:

; 535  : 	}
; 536  : 
; 537  : 
; 538  : 
; 539  : 	if (strlen(BrName) > 10) 

  0153c	8b 45 0c	 mov	 eax, DWORD PTR _BrName$[ebp]
  0153f	50		 push	 eax
  01540	e8 00 00 00 00	 call	 _strlen
  01545	83 c4 04	 add	 esp, 4
  01548	83 f8 0a	 cmp	 eax, 10			; 0000000aH
  0154b	76 16		 jbe	 SHORT $LN31@UserAddedB

; 540  : 	{
; 541  : 		MsgNormal(aIndex,"[Brotherhood] Max Len 10");

  0154d	68 00 00 00 00	 push	 OFFSET ??_C@_0BJ@LGGNJJGF@?$FLBrotherhood?$FN?5Max?5Len?510?$AA@
  01552	8b 45 08	 mov	 eax, DWORD PTR _aIndex$[ebp]
  01555	50		 push	 eax
  01556	e8 00 00 00 00	 call	 ?MsgNormal@@YAXHPADZZ	; MsgNormal
  0155b	83 c4 08	 add	 esp, 8

; 542  : 		return;

  0155e	e9 6b 04 00 00	 jmp	 $LN36@UserAddedB
$LN31@UserAddedB:

; 543  : 	}
; 544  : #endif
; 545  : 	char szBrName[11] = { 0 };

  01563	c6 45 e8 00	 mov	 BYTE PTR _szBrName$[ebp], 0
  01567	33 c0		 xor	 eax, eax
  01569	89 45 e9	 mov	 DWORD PTR _szBrName$[ebp+1], eax
  0156c	89 45 ed	 mov	 DWORD PTR _szBrName$[ebp+5], eax
  0156f	66 89 45 f1	 mov	 WORD PTR _szBrName$[ebp+9], ax

; 546  : 	strncpy(szBrName,BrName,10);

  01573	6a 0a		 push	 10			; 0000000aH
  01575	8b 45 0c	 mov	 eax, DWORD PTR _BrName$[ebp]
  01578	50		 push	 eax
  01579	8d 4d e8	 lea	 ecx, DWORD PTR _szBrName$[ebp]
  0157c	51		 push	 ecx
  0157d	e8 00 00 00 00	 call	 _strncpy
  01582	83 c4 0c	 add	 esp, 12			; 0000000cH

; 547  : 
; 548  : 	//   
; 549  : 	if(this->CheckSimbol(szBrName) == false)

  01585	8d 45 e8	 lea	 eax, DWORD PTR _szBrName$[ebp]
  01588	50		 push	 eax
  01589	8b 4d f8	 mov	 ecx, DWORD PTR _this$[ebp]
  0158c	e8 00 00 00 00	 call	 ?CheckSimbol@Brotherhood@@QAE_NPAD@Z ; Brotherhood::CheckSimbol
  01591	0f b6 c8	 movzx	 ecx, al
  01594	85 c9		 test	 ecx, ecx
  01596	75 16		 jne	 SHORT $LN30@UserAddedB

; 550  : 	{
; 551  : 		MsgNormal(aIndex,"[Brotherhood] Word Error");

  01598	68 00 00 00 00	 push	 OFFSET ??_C@_0BJ@PHMHMDCA@?$FLBrotherhood?$FN?5Word?5Error?$AA@
  0159d	8b 45 08	 mov	 eax, DWORD PTR _aIndex$[ebp]
  015a0	50		 push	 eax
  015a1	e8 00 00 00 00	 call	 ?MsgNormal@@YAXHPADZZ	; MsgNormal
  015a6	83 c4 08	 add	 esp, 8

; 552  : 		return;

  015a9	e9 20 04 00 00	 jmp	 $LN36@UserAddedB
$LN30@UserAddedB:

; 553  : 	}
; 554  : 
; 555  : 	if(strcmp(lpUser->Brotherhood,"One"))

  015ae	68 00 00 00 00	 push	 OFFSET ??_C@_03EHAPBBEA@One?$AA@
  015b3	8b 45 f4	 mov	 eax, DWORD PTR _lpUser$[ebp]
  015b6	05 69 28 00 00	 add	 eax, 10345		; 00002869H
  015bb	50		 push	 eax
  015bc	e8 00 00 00 00	 call	 _strcmp
  015c1	83 c4 08	 add	 esp, 8
  015c4	85 c0		 test	 eax, eax
  015c6	74 05		 je	 SHORT $LN29@UserAddedB

; 556  : 	{
; 557  : 		return;

  015c8	e9 01 04 00 00	 jmp	 $LN36@UserAddedB
$LN29@UserAddedB:

; 558  : 	}
; 559  : 
; 560  : 	int number = 0;

  015cd	c7 45 e4 00 00
	00 00		 mov	 DWORD PTR _number$[ebp], 0

; 561  : 	int BrCount = 0;

  015d4	c7 45 e0 00 00
	00 00		 mov	 DWORD PTR _BrCount$[ebp], 0

; 562  : 	int	partynum = lpUser->PartyNumber;

  015db	8b 45 f4	 mov	 eax, DWORD PTR _lpUser$[ebp]
  015de	8b 88 2c 04 00
	00		 mov	 ecx, DWORD PTR [eax+1068]
  015e4	89 4d dc	 mov	 DWORD PTR _partynum$[ebp], ecx

; 563  : 
; 564  : #ifndef BR_DEBUG
; 565  : 
; 566  : 	if( !gParty.Isleader(gObj[aIndex].PartyNumber, aIndex, gObj[aIndex].DBNumber) )

  015e7	8b 45 08	 mov	 eax, DWORD PTR _aIndex$[ebp]
  015ea	69 c0 38 2b 00
	00		 imul	 eax, 11064		; 00002b38H
  015f0	8b 0d 00 00 00
	00		 mov	 ecx, DWORD PTR ?gObj@@3PAUOBJECTSTRUCT@@A ; gObj
  015f6	8b 54 01 2c	 mov	 edx, DWORD PTR [ecx+eax+44]
  015fa	52		 push	 edx
  015fb	8b 45 08	 mov	 eax, DWORD PTR _aIndex$[ebp]
  015fe	50		 push	 eax
  015ff	8b 4d 08	 mov	 ecx, DWORD PTR _aIndex$[ebp]
  01602	69 c9 38 2b 00
	00		 imul	 ecx, 11064		; 00002b38H
  01608	8b 15 00 00 00
	00		 mov	 edx, DWORD PTR ?gObj@@3PAUOBJECTSTRUCT@@A ; gObj
  0160e	8b 84 0a 2c 04
	00 00		 mov	 eax, DWORD PTR [edx+ecx+1068]
  01615	50		 push	 eax
  01616	b9 00 00 00 00	 mov	 ecx, OFFSET ?gParty@@3VPartyClass@@A ; gParty
  0161b	e8 00 00 00 00	 call	 ?Isleader@PartyClass@@QAEHHHH@Z ; PartyClass::Isleader
  01620	85 c0		 test	 eax, eax
  01622	75 16		 jne	 SHORT $LN28@UserAddedB

; 567  : 	{
; 568  : 		MsgNormal(aIndex,"[Brotherhood] No Party Leader");

  01624	68 00 00 00 00	 push	 OFFSET ??_C@_0BO@GGNKNGLB@?$FLBrotherhood?$FN?5No?5Party?5Leader?$AA@
  01629	8b 45 08	 mov	 eax, DWORD PTR _aIndex$[ebp]
  0162c	50		 push	 eax
  0162d	e8 00 00 00 00	 call	 ?MsgNormal@@YAXHPADZZ	; MsgNormal
  01632	83 c4 08	 add	 esp, 8

; 569  : 		return;

  01635	e9 94 03 00 00	 jmp	 $LN36@UserAddedB
$LN28@UserAddedB:

; 570  : 	}
; 571  : 	
; 572  : 	int PartyUserCount = gParty.GetPartyCount(partynum);

  0163a	8b 45 dc	 mov	 eax, DWORD PTR _partynum$[ebp]
  0163d	50		 push	 eax
  0163e	b9 00 00 00 00	 mov	 ecx, OFFSET ?gParty@@3VPartyClass@@A ; gParty
  01643	e8 00 00 00 00	 call	 ?GetPartyCount@PartyClass@@QAEHH@Z ; PartyClass::GetPartyCount
  01648	89 45 d8	 mov	 DWORD PTR _PartyUserCount$[ebp], eax

; 573  : 
; 574  : 	if(PartyUserCount > 5)

  0164b	83 7d d8 05	 cmp	 DWORD PTR _PartyUserCount$[ebp], 5
  0164f	7e 16		 jle	 SHORT $LN27@UserAddedB

; 575  : 	{
; 576  : 		MsgNormal(aIndex,"[Brotherhood] Need Max User 5");

  01651	68 00 00 00 00	 push	 OFFSET ??_C@_0BO@KLPFKPNJ@?$FLBrotherhood?$FN?5Need?5Max?5User?55?$AA@
  01656	8b 45 08	 mov	 eax, DWORD PTR _aIndex$[ebp]
  01659	50		 push	 eax
  0165a	e8 00 00 00 00	 call	 ?MsgNormal@@YAXHPADZZ	; MsgNormal
  0165f	83 c4 08	 add	 esp, 8

; 577  : 		return;

  01662	e9 67 03 00 00	 jmp	 $LN36@UserAddedB
$LN27@UserAddedB:

; 578  : 	}
; 579  : 
; 580  : 	for(int n = 0; n < MAX_USER_IN_PARTY; n++)

  01667	c7 45 d4 00 00
	00 00		 mov	 DWORD PTR _n$230228[ebp], 0
  0166e	eb 09		 jmp	 SHORT $LN26@UserAddedB
$LN25@UserAddedB:
  01670	8b 45 d4	 mov	 eax, DWORD PTR _n$230228[ebp]
  01673	83 c0 01	 add	 eax, 1
  01676	89 45 d4	 mov	 DWORD PTR _n$230228[ebp], eax
$LN26@UserAddedB:
  01679	83 7d d4 0a	 cmp	 DWORD PTR _n$230228[ebp], 10 ; 0000000aH
  0167d	7d 71		 jge	 SHORT $LN24@UserAddedB

; 581  : 	{
; 582  : #if _NEW_PARTY_SYSTEM_ == TRUE
; 583  : 		if( n >= g_MaxPartyMember)

  0167f	8b 45 d4	 mov	 eax, DWORD PTR _n$230228[ebp]
  01682	3b 05 00 00 00
	00		 cmp	 eax, DWORD PTR ?g_MaxPartyMember@@3HA ; g_MaxPartyMember
  01688	7c 02		 jl	 SHORT $LN23@UserAddedB

; 584  : 		{
; 585  : 			break;

  0168a	eb 64		 jmp	 SHORT $LN24@UserAddedB
$LN23@UserAddedB:

; 586  : 		}
; 587  : #endif
; 588  : 		number = gParty.m_PartyS[partynum].Number[n];

  0168c	8b 45 dc	 mov	 eax, DWORD PTR _partynum$[ebp]
  0168f	6b c0 6c	 imul	 eax, 108		; 0000006cH
  01692	8b 4d d4	 mov	 ecx, DWORD PTR _n$230228[ebp]
  01695	8b 94 88 0c 00
	00 00		 mov	 edx, DWORD PTR ?gParty@@3VPartyClass@@A[eax+ecx*4+12]
  0169c	89 55 e4	 mov	 DWORD PTR _number$[ebp], edx

; 589  : 
; 590  : 		if(number >= 0 && lpUser->Connected == PLAYER_PLAYING)

  0169f	83 7d e4 00	 cmp	 DWORD PTR _number$[ebp], 0
  016a3	7c 47		 jl	 SHORT $LN22@UserAddedB
  016a5	8b 45 f4	 mov	 eax, DWORD PTR _lpUser$[ebp]
  016a8	83 78 04 03	 cmp	 DWORD PTR [eax+4], 3
  016ac	75 3e		 jne	 SHORT $LN22@UserAddedB

; 591  : 		{
; 592  : 			LPOBJ LpBrother = &gObj[number];

  016ae	8b 45 e4	 mov	 eax, DWORD PTR _number$[ebp]
  016b1	69 c0 38 2b 00
	00		 imul	 eax, 11064		; 00002b38H
  016b7	03 05 00 00 00
	00		 add	 eax, DWORD PTR ?gObj@@3PAUOBJECTSTRUCT@@A ; gObj
  016bd	89 45 d0	 mov	 DWORD PTR _LpBrother$230234[ebp], eax

; 593  : 			if(!strncmp(lpUser->Brotherhood,LpBrother->Brotherhood,10))

  016c0	6a 0a		 push	 10			; 0000000aH
  016c2	8b 45 d0	 mov	 eax, DWORD PTR _LpBrother$230234[ebp]
  016c5	05 69 28 00 00	 add	 eax, 10345		; 00002869H
  016ca	50		 push	 eax
  016cb	8b 4d f4	 mov	 ecx, DWORD PTR _lpUser$[ebp]
  016ce	81 c1 69 28 00
	00		 add	 ecx, 10345		; 00002869H
  016d4	51		 push	 ecx
  016d5	e8 00 00 00 00	 call	 _strncmp
  016da	83 c4 0c	 add	 esp, 12			; 0000000cH
  016dd	85 c0		 test	 eax, eax
  016df	75 09		 jne	 SHORT $LN21@UserAddedB

; 594  : 			{
; 595  : 				BrCount++;

  016e1	8b 45 e0	 mov	 eax, DWORD PTR _BrCount$[ebp]
  016e4	83 c0 01	 add	 eax, 1
  016e7	89 45 e0	 mov	 DWORD PTR _BrCount$[ebp], eax
$LN21@UserAddedB:

; 596  : 			}
; 597  : 		}
; 598  : 		else

  016ea	eb 02		 jmp	 SHORT $LN20@UserAddedB
$LN22@UserAddedB:

; 599  : 		{
; 600  : 			continue;

  016ec	eb 82		 jmp	 SHORT $LN25@UserAddedB
$LN20@UserAddedB:

; 601  : 		}
; 602  : 	}

  016ee	eb 80		 jmp	 SHORT $LN25@UserAddedB
$LN24@UserAddedB:

; 603  : 
; 604  : #if _NEW_PARTY_SYSTEM_ == TRUE
; 605  : 	if(5 > BrCount)

  016f0	83 7d e0 05	 cmp	 DWORD PTR _BrCount$[ebp], 5
  016f4	7d 1a		 jge	 SHORT $LN19@UserAddedB

; 606  : 	{
; 607  : 		MsgNormal(aIndex,"[Brotherhood]: Brother Party %d/5",BrCount);

  016f6	8b 45 e0	 mov	 eax, DWORD PTR _BrCount$[ebp]
  016f9	50		 push	 eax
  016fa	68 00 00 00 00	 push	 OFFSET ??_C@_0CC@BKCMJHBG@?$FLBrotherhood?$FN?3?5Brother?5Party?5?$CFd?1@
  016ff	8b 4d 08	 mov	 ecx, DWORD PTR _aIndex$[ebp]
  01702	51		 push	 ecx
  01703	e8 00 00 00 00	 call	 ?MsgNormal@@YAXHPADZZ	; MsgNormal
  01708	83 c4 0c	 add	 esp, 12			; 0000000cH

; 608  : 		return;

  0170b	e9 be 02 00 00	 jmp	 $LN36@UserAddedB
$LN19@UserAddedB:

; 609  : 	}
; 610  : #else
; 611  : 	if(MAX_USER_IN_PARTY > BrCount)
; 612  : 	{
; 613  : 		MsgNormal(aIndex,"[Brotherhood]: Brother Party %d/5",BrCount);
; 614  : 		return;
; 615  : 	}
; 616  : #endif
; 617  : 
; 618  : 	if(this->BuyType == 1)	//Zen

  01710	8b 45 f8	 mov	 eax, DWORD PTR _this$[ebp]
  01713	83 78 1c 01	 cmp	 DWORD PTR [eax+28], 1
  01717	75 61		 jne	 SHORT $LN18@UserAddedB

; 619  : 	{
; 620  : 		if(lpUser->Money < this->BuyCost)

  01719	8b 45 f4	 mov	 eax, DWORD PTR _lpUser$[ebp]
  0171c	8b 4d f8	 mov	 ecx, DWORD PTR _this$[ebp]
  0171f	8b 90 f0 00 00
	00		 mov	 edx, DWORD PTR [eax+240]
  01725	3b 51 20	 cmp	 edx, DWORD PTR [ecx+32]
  01728	7d 1d		 jge	 SHORT $LN17@UserAddedB

; 621  : 		{
; 622  : 			MsgNormal(aIndex,"[Brotherhood]: Need %d Zen",this->BuyCost);

  0172a	8b 45 f8	 mov	 eax, DWORD PTR _this$[ebp]
  0172d	8b 48 20	 mov	 ecx, DWORD PTR [eax+32]
  01730	51		 push	 ecx
  01731	68 00 00 00 00	 push	 OFFSET ??_C@_0BL@CNLPDMGF@?$FLBrotherhood?$FN?3?5Need?5?$CFd?5Zen?$AA@
  01736	8b 55 08	 mov	 edx, DWORD PTR _aIndex$[ebp]
  01739	52		 push	 edx
  0173a	e8 00 00 00 00	 call	 ?MsgNormal@@YAXHPADZZ	; MsgNormal
  0173f	83 c4 0c	 add	 esp, 12			; 0000000cH

; 623  : 			return;

  01742	e9 87 02 00 00	 jmp	 $LN36@UserAddedB
$LN17@UserAddedB:

; 624  : 		}
; 625  : 		lpUser->Money -= this->BuyCost;

  01747	8b 45 f4	 mov	 eax, DWORD PTR _lpUser$[ebp]
  0174a	8b 4d f8	 mov	 ecx, DWORD PTR _this$[ebp]
  0174d	8b 90 f0 00 00
	00		 mov	 edx, DWORD PTR [eax+240]
  01753	2b 51 20	 sub	 edx, DWORD PTR [ecx+32]
  01756	8b 45 f4	 mov	 eax, DWORD PTR _lpUser$[ebp]
  01759	89 90 f0 00 00
	00		 mov	 DWORD PTR [eax+240], edx

; 626  : 		GCMoneySend(aIndex,lpUser->Money);

  0175f	8b 45 f4	 mov	 eax, DWORD PTR _lpUser$[ebp]
  01762	8b 88 f0 00 00
	00		 mov	 ecx, DWORD PTR [eax+240]
  01768	51		 push	 ecx
  01769	8b 55 08	 mov	 edx, DWORD PTR _aIndex$[ebp]
  0176c	52		 push	 edx
  0176d	e8 00 00 00 00	 call	 ?GCMoneySend@@YAXHK@Z	; GCMoneySend
  01772	83 c4 08	 add	 esp, 8
  01775	e9 b8 01 00 00	 jmp	 $LN6@UserAddedB
$LN18@UserAddedB:

; 627  : 	}
; 628  : 	else if(this->BuyType == 2)	//WcoinC

  0177a	8b 45 f8	 mov	 eax, DWORD PTR _this$[ebp]
  0177d	83 78 1c 02	 cmp	 DWORD PTR [eax+28], 2
  01781	75 6a		 jne	 SHORT $LN15@UserAddedB

; 629  : 	{
; 630  : 		if(lpUser->GameShop.WCoinC < this->BuyCost)

  01783	8b 45 f8	 mov	 eax, DWORD PTR _this$[ebp]
  01786	db 40 20	 fild	 DWORD PTR [eax+32]
  01789	8b 4d f4	 mov	 ecx, DWORD PTR _lpUser$[ebp]
  0178c	dc 99 00 23 00
	00		 fcomp	 QWORD PTR [ecx+8960]
  01792	df e0		 fnstsw	 ax
  01794	f6 c4 41	 test	 ah, 65			; 00000041H
  01797	75 1d		 jne	 SHORT $LN14@UserAddedB

; 631  : 		{
; 632  : 			MsgNormal(aIndex,"[Brotherhood]: Need %d WCoinC",this->BuyCost);

  01799	8b 45 f8	 mov	 eax, DWORD PTR _this$[ebp]
  0179c	8b 48 20	 mov	 ecx, DWORD PTR [eax+32]
  0179f	51		 push	 ecx
  017a0	68 00 00 00 00	 push	 OFFSET ??_C@_0BO@DEEADCDK@?$FLBrotherhood?$FN?3?5Need?5?$CFd?5WCoinC?$AA@
  017a5	8b 55 08	 mov	 edx, DWORD PTR _aIndex$[ebp]
  017a8	52		 push	 edx
  017a9	e8 00 00 00 00	 call	 ?MsgNormal@@YAXHPADZZ	; MsgNormal
  017ae	83 c4 0c	 add	 esp, 12			; 0000000cH

; 633  : 			return;

  017b1	e9 18 02 00 00	 jmp	 $LN36@UserAddedB
$LN14@UserAddedB:

; 634  : 		}
; 635  : 		lpUser->GameShop.WCoinC -= this->BuyCost;

  017b6	8b 45 f8	 mov	 eax, DWORD PTR _this$[ebp]
  017b9	db 40 20	 fild	 DWORD PTR [eax+32]
  017bc	8b 4d f4	 mov	 ecx, DWORD PTR _lpUser$[ebp]
  017bf	dc a9 00 23 00
	00		 fsubr	 QWORD PTR [ecx+8960]
  017c5	8b 55 f4	 mov	 edx, DWORD PTR _lpUser$[ebp]
  017c8	dd 9a 00 23 00
	00		 fstp	 QWORD PTR [edx+8960]

; 636  : 		gGameShop.GDSaveUserInfo(aIndex);

  017ce	8b 45 08	 mov	 eax, DWORD PTR _aIndex$[ebp]
  017d1	50		 push	 eax
  017d2	b9 00 00 00 00	 mov	 ecx, OFFSET ?gGameShop@@3VGameShop@@A ; gGameShop
  017d7	e8 00 00 00 00	 call	 ?GDSaveUserInfo@GameShop@@QAEXH@Z ; GameShop::GDSaveUserInfo

; 637  : 		ExUserDataSend(aIndex);

  017dc	8b 45 08	 mov	 eax, DWORD PTR _aIndex$[ebp]
  017df	50		 push	 eax
  017e0	e8 00 00 00 00	 call	 ?ExUserDataSend@@YAXH@Z	; ExUserDataSend
  017e5	83 c4 04	 add	 esp, 4
  017e8	e9 45 01 00 00	 jmp	 $LN6@UserAddedB
$LN15@UserAddedB:

; 638  : 	}
; 639  : 	else if(this->BuyType == 3)	//WcoinP

  017ed	8b 45 f8	 mov	 eax, DWORD PTR _this$[ebp]
  017f0	83 78 1c 03	 cmp	 DWORD PTR [eax+28], 3
  017f4	75 6a		 jne	 SHORT $LN12@UserAddedB

; 640  : 	{
; 641  : 		if(lpUser->GameShop.WCoinP < this->BuyCost)

  017f6	8b 45 f8	 mov	 eax, DWORD PTR _this$[ebp]
  017f9	db 40 20	 fild	 DWORD PTR [eax+32]
  017fc	8b 4d f4	 mov	 ecx, DWORD PTR _lpUser$[ebp]
  017ff	dc 99 f8 22 00
	00		 fcomp	 QWORD PTR [ecx+8952]
  01805	df e0		 fnstsw	 ax
  01807	f6 c4 41	 test	 ah, 65			; 00000041H
  0180a	75 1d		 jne	 SHORT $LN11@UserAddedB

; 642  : 		{
; 643  : 			MsgNormal(aIndex,"[Brotherhood]: Need %d WCoinP",this->BuyCost);

  0180c	8b 45 f8	 mov	 eax, DWORD PTR _this$[ebp]
  0180f	8b 48 20	 mov	 ecx, DWORD PTR [eax+32]
  01812	51		 push	 ecx
  01813	68 00 00 00 00	 push	 OFFSET ??_C@_0BO@FFKPHDKI@?$FLBrotherhood?$FN?3?5Need?5?$CFd?5WCoinP?$AA@
  01818	8b 55 08	 mov	 edx, DWORD PTR _aIndex$[ebp]
  0181b	52		 push	 edx
  0181c	e8 00 00 00 00	 call	 ?MsgNormal@@YAXHPADZZ	; MsgNormal
  01821	83 c4 0c	 add	 esp, 12			; 0000000cH

; 644  : 			return;

  01824	e9 a5 01 00 00	 jmp	 $LN36@UserAddedB
$LN11@UserAddedB:

; 645  : 		}
; 646  : 		lpUser->GameShop.WCoinP -= this->BuyCost;

  01829	8b 45 f8	 mov	 eax, DWORD PTR _this$[ebp]
  0182c	db 40 20	 fild	 DWORD PTR [eax+32]
  0182f	8b 4d f4	 mov	 ecx, DWORD PTR _lpUser$[ebp]
  01832	dc a9 f8 22 00
	00		 fsubr	 QWORD PTR [ecx+8952]
  01838	8b 55 f4	 mov	 edx, DWORD PTR _lpUser$[ebp]
  0183b	dd 9a f8 22 00
	00		 fstp	 QWORD PTR [edx+8952]

; 647  : 		gGameShop.GDSaveUserInfo(aIndex);

  01841	8b 45 08	 mov	 eax, DWORD PTR _aIndex$[ebp]
  01844	50		 push	 eax
  01845	b9 00 00 00 00	 mov	 ecx, OFFSET ?gGameShop@@3VGameShop@@A ; gGameShop
  0184a	e8 00 00 00 00	 call	 ?GDSaveUserInfo@GameShop@@QAEXH@Z ; GameShop::GDSaveUserInfo

; 648  : 		ExUserDataSend(aIndex);

  0184f	8b 45 08	 mov	 eax, DWORD PTR _aIndex$[ebp]
  01852	50		 push	 eax
  01853	e8 00 00 00 00	 call	 ?ExUserDataSend@@YAXH@Z	; ExUserDataSend
  01858	83 c4 04	 add	 esp, 4
  0185b	e9 d2 00 00 00	 jmp	 $LN6@UserAddedB
$LN12@UserAddedB:

; 649  : 	}
; 650  : 	else if(this->BuyType == 4)	//Goblin

  01860	8b 45 f8	 mov	 eax, DWORD PTR _this$[ebp]
  01863	83 78 1c 04	 cmp	 DWORD PTR [eax+28], 4
  01867	75 67		 jne	 SHORT $LN9@UserAddedB

; 651  : 	{
; 652  : 		if(lpUser->GameShop.GoblinPoint < this->BuyCost)

  01869	8b 45 f8	 mov	 eax, DWORD PTR _this$[ebp]
  0186c	db 40 20	 fild	 DWORD PTR [eax+32]
  0186f	8b 4d f4	 mov	 ecx, DWORD PTR _lpUser$[ebp]
  01872	dc 99 08 23 00
	00		 fcomp	 QWORD PTR [ecx+8968]
  01878	df e0		 fnstsw	 ax
  0187a	f6 c4 41	 test	 ah, 65			; 00000041H
  0187d	75 1d		 jne	 SHORT $LN8@UserAddedB

; 653  : 		{
; 654  : 			MsgNormal(aIndex,"[Brotherhood]: Need %d Goblin",this->BuyCost);

  0187f	8b 45 f8	 mov	 eax, DWORD PTR _this$[ebp]
  01882	8b 48 20	 mov	 ecx, DWORD PTR [eax+32]
  01885	51		 push	 ecx
  01886	68 00 00 00 00	 push	 OFFSET ??_C@_0BO@MJNLBDFA@?$FLBrotherhood?$FN?3?5Need?5?$CFd?5Goblin?$AA@
  0188b	8b 55 08	 mov	 edx, DWORD PTR _aIndex$[ebp]
  0188e	52		 push	 edx
  0188f	e8 00 00 00 00	 call	 ?MsgNormal@@YAXHPADZZ	; MsgNormal
  01894	83 c4 0c	 add	 esp, 12			; 0000000cH

; 655  : 			return;

  01897	e9 32 01 00 00	 jmp	 $LN36@UserAddedB
$LN8@UserAddedB:

; 656  : 		}
; 657  : 		lpUser->GameShop.GoblinPoint -= this->BuyCost;

  0189c	8b 45 f8	 mov	 eax, DWORD PTR _this$[ebp]
  0189f	db 40 20	 fild	 DWORD PTR [eax+32]
  018a2	8b 4d f4	 mov	 ecx, DWORD PTR _lpUser$[ebp]
  018a5	dc a9 08 23 00
	00		 fsubr	 QWORD PTR [ecx+8968]
  018ab	8b 55 f4	 mov	 edx, DWORD PTR _lpUser$[ebp]
  018ae	dd 9a 08 23 00
	00		 fstp	 QWORD PTR [edx+8968]

; 658  : 		gGameShop.GDSaveUserInfo(aIndex);

  018b4	8b 45 08	 mov	 eax, DWORD PTR _aIndex$[ebp]
  018b7	50		 push	 eax
  018b8	b9 00 00 00 00	 mov	 ecx, OFFSET ?gGameShop@@3VGameShop@@A ; gGameShop
  018bd	e8 00 00 00 00	 call	 ?GDSaveUserInfo@GameShop@@QAEXH@Z ; GameShop::GDSaveUserInfo

; 659  : 		ExUserDataSend(aIndex);

  018c2	8b 45 08	 mov	 eax, DWORD PTR _aIndex$[ebp]
  018c5	50		 push	 eax
  018c6	e8 00 00 00 00	 call	 ?ExUserDataSend@@YAXH@Z	; ExUserDataSend
  018cb	83 c4 04	 add	 esp, 4
  018ce	eb 62		 jmp	 SHORT $LN6@UserAddedB
$LN9@UserAddedB:

; 660  : 	}
; 661  : 	else if(this->BuyType == 5)	//Credits

  018d0	8b 45 f8	 mov	 eax, DWORD PTR _this$[ebp]
  018d3	83 78 1c 05	 cmp	 DWORD PTR [eax+28], 5
  018d7	75 59		 jne	 SHORT $LN6@UserAddedB

; 662  : 	{
; 663  : 		if(lpUser->ExCred < this->BuyCost)

  018d9	8b 45 f8	 mov	 eax, DWORD PTR _this$[ebp]
  018dc	db 40 20	 fild	 DWORD PTR [eax+32]
  018df	8b 4d f4	 mov	 ecx, DWORD PTR _lpUser$[ebp]
  018e2	d9 81 a8 22 00
	00		 fld	 DWORD PTR [ecx+8872]
  018e8	de d9		 fcompp
  018ea	df e0		 fnstsw	 ax
  018ec	f6 c4 05	 test	 ah, 5
  018ef	7a 1d		 jp	 SHORT $LN5@UserAddedB

; 664  : 		{
; 665  : 			MsgNormal(aIndex,"[Brotherhood]: Need %d Credit",this->BuyCost);

  018f1	8b 45 f8	 mov	 eax, DWORD PTR _this$[ebp]
  018f4	8b 48 20	 mov	 ecx, DWORD PTR [eax+32]
  018f7	51		 push	 ecx
  018f8	68 00 00 00 00	 push	 OFFSET ??_C@_0BO@EFGFCICC@?$FLBrotherhood?$FN?3?5Need?5?$CFd?5Credit?$AA@
  018fd	8b 55 08	 mov	 edx, DWORD PTR _aIndex$[ebp]
  01900	52		 push	 edx
  01901	e8 00 00 00 00	 call	 ?MsgNormal@@YAXHPADZZ	; MsgNormal
  01906	83 c4 0c	 add	 esp, 12			; 0000000cH

; 666  : 			return;

  01909	e9 c0 00 00 00	 jmp	 $LN36@UserAddedB
$LN5@UserAddedB:

; 667  : 		}
; 668  : 		lpUser->ExCred -= this->BuyCost;

  0190e	8b 45 f8	 mov	 eax, DWORD PTR _this$[ebp]
  01911	db 40 20	 fild	 DWORD PTR [eax+32]
  01914	8b 4d f4	 mov	 ecx, DWORD PTR _lpUser$[ebp]
  01917	d8 a9 a8 22 00
	00		 fsubr	 DWORD PTR [ecx+8872]
  0191d	8b 55 f4	 mov	 edx, DWORD PTR _lpUser$[ebp]
  01920	d9 9a a8 22 00
	00		 fstp	 DWORD PTR [edx+8872]

; 669  : 		ExUserDataSend(aIndex);

  01926	8b 45 08	 mov	 eax, DWORD PTR _aIndex$[ebp]
  01929	50		 push	 eax
  0192a	e8 00 00 00 00	 call	 ?ExUserDataSend@@YAXH@Z	; ExUserDataSend
  0192f	83 c4 04	 add	 esp, 4
$LN6@UserAddedB:

; 670  : 	}
; 671  : 
; 672  : #if _NEW_PARTY_SYSTEM_ == TRUE
; 673  : 	for(int i=0; i< g_MaxPartyMember; i++)

  01932	c7 45 cc 00 00
	00 00		 mov	 DWORD PTR _i$230258[ebp], 0
  01939	eb 09		 jmp	 SHORT $LN4@UserAddedB
$LN3@UserAddedB:
  0193b	8b 45 cc	 mov	 eax, DWORD PTR _i$230258[ebp]
  0193e	83 c0 01	 add	 eax, 1
  01941	89 45 cc	 mov	 DWORD PTR _i$230258[ebp], eax
$LN4@UserAddedB:
  01944	8b 45 cc	 mov	 eax, DWORD PTR _i$230258[ebp]
  01947	3b 05 00 00 00
	00		 cmp	 eax, DWORD PTR ?g_MaxPartyMember@@3HA ; g_MaxPartyMember
  0194d	7d 7f		 jge	 SHORT $LN2@UserAddedB

; 674  : #else
; 675  : 	for(int i=0; i < MAX_USER_IN_PARTY; i++)
; 676  : #endif
; 677  : 	{
; 678  : 		number = gParty.m_PartyS[partynum].Number[i];

  0194f	8b 45 dc	 mov	 eax, DWORD PTR _partynum$[ebp]
  01952	6b c0 6c	 imul	 eax, 108		; 0000006cH
  01955	8b 4d cc	 mov	 ecx, DWORD PTR _i$230258[ebp]
  01958	8b 94 88 0c 00
	00 00		 mov	 edx, DWORD PTR ?gParty@@3VPartyClass@@A[eax+ecx*4+12]
  0195f	89 55 e4	 mov	 DWORD PTR _number$[ebp], edx

; 679  : 
; 680  : 		if(number >= 0)

  01962	83 7d e4 00	 cmp	 DWORD PTR _number$[ebp], 0
  01966	7c 61		 jl	 SHORT $LN1@UserAddedB

; 681  : 		{
; 682  : 			LPOBJ LpBrother = &gObj[number];

  01968	8b 45 e4	 mov	 eax, DWORD PTR _number$[ebp]
  0196b	69 c0 38 2b 00
	00		 imul	 eax, 11064		; 00002b38H
  01971	03 05 00 00 00
	00		 add	 eax, DWORD PTR ?gObj@@3PAUOBJECTSTRUCT@@A ; gObj
  01977	89 45 c8	 mov	 DWORD PTR _LpBrother$230263[ebp], eax

; 683  : 			strncpy(LpBrother->Brotherhood,szBrName,10);

  0197a	6a 0a		 push	 10			; 0000000aH
  0197c	8d 45 e8	 lea	 eax, DWORD PTR _szBrName$[ebp]
  0197f	50		 push	 eax
  01980	8b 4d c8	 mov	 ecx, DWORD PTR _LpBrother$230263[ebp]
  01983	81 c1 69 28 00
	00		 add	 ecx, 10345		; 00002869H
  01989	51		 push	 ecx
  0198a	e8 00 00 00 00	 call	 _strncpy
  0198f	83 c4 0c	 add	 esp, 12			; 0000000cH

; 684  : 			ExFireCracker(number, LpBrother->X, LpBrother->Y);

  01992	8b 45 c8	 mov	 eax, DWORD PTR _LpBrother$230263[ebp]
  01995	0f b6 88 46 01
	00 00		 movzx	 ecx, BYTE PTR [eax+326]
  0199c	51		 push	 ecx
  0199d	8b 55 c8	 mov	 edx, DWORD PTR _LpBrother$230263[ebp]
  019a0	0f b6 82 44 01
	00 00		 movzx	 eax, BYTE PTR [edx+324]
  019a7	50		 push	 eax
  019a8	8b 4d e4	 mov	 ecx, DWORD PTR _number$[ebp]
  019ab	51		 push	 ecx
  019ac	e8 00 00 00 00	 call	 ?ExFireCracker@@YAXHEE@Z ; ExFireCracker
  019b1	83 c4 0c	 add	 esp, 12			; 0000000cH

; 685  : 			MessageChat(number,"~[Brotherhood]: Create: %s",szBrName);

  019b4	8d 45 e8	 lea	 eax, DWORD PTR _szBrName$[ebp]
  019b7	50		 push	 eax
  019b8	68 00 00 00 00	 push	 OFFSET ??_C@_0BL@MGHIGAKM@?$HO?$FLBrotherhood?$FN?3?5Create?3?5?$CFs?$AA@
  019bd	8b 4d e4	 mov	 ecx, DWORD PTR _number$[ebp]
  019c0	51		 push	 ecx
  019c1	e8 00 00 00 00	 call	 ?MessageChat@@YAXHPADZZ	; MessageChat
  019c6	83 c4 0c	 add	 esp, 12			; 0000000cH
$LN1@UserAddedB:

; 686  : #ifndef FIX_DS_CRASH
; 687  : 			GJSetCharacterInfo(LpBrother, number, 0);
; 688  : #endif
; 689  : 		}
; 690  : 	}

  019c9	e9 6d ff ff ff	 jmp	 $LN3@UserAddedB
$LN2@UserAddedB:
$LN36@UserAddedB:

; 691  : 	// Done
; 692  : #else
; 693  : 			strncpy(gObj[aIndex].Brotherhood,szBrName,10);
; 694  : 			//ExFireCracker(aIndex, LpBrother->X, LpBrother->Y);
; 695  : 			MessageChat(aIndex,"~[Brotherhood]: Create: %s",szBrName);
; 696  : #ifndef FIX_DS_CRASH
; 697  : 			GJSetCharacterInfo(&gObj[aIndex], aIndex, 0);
; 698  : #endif
; 699  : #endif
; 700  : }

  019ce	5f		 pop	 edi
  019cf	5e		 pop	 esi
  019d0	5b		 pop	 ebx
  019d1	8b 4d fc	 mov	 ecx, DWORD PTR __$ArrayPad$[ebp]
  019d4	33 cd		 xor	 ecx, ebp
  019d6	e8 00 00 00 00	 call	 @__security_check_cookie@4
  019db	8b e5		 mov	 esp, ebp
  019dd	5d		 pop	 ebp
  019de	c2 08 00	 ret	 8
?UserAddedBrother@Brotherhood@@QAEXHPAD@Z ENDP		; Brotherhood::UserAddedBrother
_TEXT	ENDS
PUBLIC	??_C@_0BF@INKEAOIF@?$HO?$FLBrotherhood?$FN?3?5Exit?$AA@ ; `string'
PUBLIC	?__LINE__Var@?1??UserExitBrother@Brotherhood@@QAEXH@Z@4JA ; `Brotherhood::UserExitBrother'::`2'::__LINE__Var
PUBLIC	?UserExitBrother@Brotherhood@@QAEXH@Z		; Brotherhood::UserExitBrother
EXTRN	_strcpy:PROC
;	COMDAT ??_C@_0BF@INKEAOIF@?$HO?$FLBrotherhood?$FN?3?5Exit?$AA@
CONST	SEGMENT
??_C@_0BF@INKEAOIF@?$HO?$FLBrotherhood?$FN?3?5Exit?$AA@ DB '~[Brotherhood'
	DB	']: Exit', 00H				; `string'
CONST	ENDS
;	COMDAT ?__LINE__Var@?1??UserExitBrother@Brotherhood@@QAEXH@Z@4JA
_DATA	SEGMENT
?__LINE__Var@?1??UserExitBrother@Brotherhood@@QAEXH@Z@4JA DD 02bfH ; `Brotherhood::UserExitBrother'::`2'::__LINE__Var
; Function compile flags: /Odtp /ZI
_DATA	ENDS
_TEXT	SEGMENT
tv69 = -76						; size = 4
_lpUser$ = -8						; size = 4
_this$ = -4						; size = 4
_aIndex$ = 8						; size = 4
?UserExitBrother@Brotherhood@@QAEXH@Z PROC		; Brotherhood::UserExitBrother
; _this$ = ecx

; 703  : {

  019f0	55		 push	 ebp
  019f1	8b ec		 mov	 ebp, esp
  019f3	83 ec 4c	 sub	 esp, 76			; 0000004cH
  019f6	53		 push	 ebx
  019f7	56		 push	 esi
  019f8	57		 push	 edi
  019f9	89 4d fc	 mov	 DWORD PTR _this$[ebp], ecx

; 704  : 	if(!this->Enable)

  019fc	8b 45 fc	 mov	 eax, DWORD PTR _this$[ebp]
  019ff	0f b6 08	 movzx	 ecx, BYTE PTR [eax]
  01a02	85 c9		 test	 ecx, ecx
  01a04	75 05		 jne	 SHORT $LN4@UserExitBr

; 705  : 	{
; 706  : 		return;

  01a06	e9 a0 00 00 00	 jmp	 $LN5@UserExitBr
$LN4@UserExitBr:

; 707  : 	}
; 708  : 
; 709  : 	if ( OBJMAX_RANGE(aIndex) == FALSE )

  01a0b	83 7d 08 00	 cmp	 DWORD PTR _aIndex$[ebp], 0
  01a0f	7d 09		 jge	 SHORT $LN7@UserExitBr
  01a11	c7 45 b4 00 00
	00 00		 mov	 DWORD PTR tv69[ebp], 0
  01a18	eb 0f		 jmp	 SHORT $LN8@UserExitBr
$LN7@UserExitBr:
  01a1a	33 c0		 xor	 eax, eax
  01a1c	81 7d 08 97 3a
	00 00		 cmp	 DWORD PTR _aIndex$[ebp], 14999 ; 00003a97H
  01a23	0f 9e c0	 setle	 al
  01a26	89 45 b4	 mov	 DWORD PTR tv69[ebp], eax
$LN8@UserExitBr:
  01a29	83 7d b4 00	 cmp	 DWORD PTR tv69[ebp], 0
  01a2d	75 1e		 jne	 SHORT $LN3@UserExitBr

; 710  : 	{
; 711  : 		LogAdd("error : %s %d", __FILE__, __LINE__ );

  01a2f	a1 00 00 00 00	 mov	 eax, DWORD PTR ?__LINE__Var@?1??UserExitBrother@Brotherhood@@QAEXH@Z@4JA
  01a34	83 c0 08	 add	 eax, 8
  01a37	50		 push	 eax
  01a38	68 00 00 00 00	 push	 OFFSET ??_C@_0ED@NGGOLAHH@d?3?2projects?2exteam6?43?2source?2gam@
  01a3d	68 00 00 00 00	 push	 OFFSET ??_C@_0O@CKAEPJAF@error?5?3?5?$CFs?5?$CFd?$AA@
  01a42	ff 15 00 00 00
	00		 call	 DWORD PTR ?LogAdd@@3P6AXPADZZA ; LogAdd
  01a48	83 c4 0c	 add	 esp, 12			; 0000000cH

; 712  : 		return;

  01a4b	eb 5e		 jmp	 SHORT $LN5@UserExitBr
$LN3@UserExitBr:

; 713  : 	}
; 714  : 
; 715  : 	LPOBJ lpUser = &gObj[aIndex];

  01a4d	8b 45 08	 mov	 eax, DWORD PTR _aIndex$[ebp]
  01a50	69 c0 38 2b 00
	00		 imul	 eax, 11064		; 00002b38H
  01a56	03 05 00 00 00
	00		 add	 eax, DWORD PTR ?gObj@@3PAUOBJECTSTRUCT@@A ; gObj
  01a5c	89 45 f8	 mov	 DWORD PTR _lpUser$[ebp], eax

; 716  : 
; 717  : 	if(lpUser->Connected < PLAYER_PLAYING)

  01a5f	8b 45 f8	 mov	 eax, DWORD PTR _lpUser$[ebp]
  01a62	83 78 04 03	 cmp	 DWORD PTR [eax+4], 3
  01a66	7d 02		 jge	 SHORT $LN2@UserExitBr

; 718  : 	{
; 719  : 		return;

  01a68	eb 41		 jmp	 SHORT $LN5@UserExitBr
$LN2@UserExitBr:

; 720  : 	}
; 721  : 
; 722  : 	if(strcmp(lpUser->Brotherhood,"One"))

  01a6a	68 00 00 00 00	 push	 OFFSET ??_C@_03EHAPBBEA@One?$AA@
  01a6f	8b 45 f8	 mov	 eax, DWORD PTR _lpUser$[ebp]
  01a72	05 69 28 00 00	 add	 eax, 10345		; 00002869H
  01a77	50		 push	 eax
  01a78	e8 00 00 00 00	 call	 _strcmp
  01a7d	83 c4 08	 add	 esp, 8
  01a80	85 c0		 test	 eax, eax
  01a82	74 27		 je	 SHORT $LN5@UserExitBr

; 723  : 	{
; 724  : 		strcpy(lpUser->Brotherhood,"One");

  01a84	68 00 00 00 00	 push	 OFFSET ??_C@_03EHAPBBEA@One?$AA@
  01a89	8b 45 f8	 mov	 eax, DWORD PTR _lpUser$[ebp]
  01a8c	05 69 28 00 00	 add	 eax, 10345		; 00002869H
  01a91	50		 push	 eax
  01a92	e8 00 00 00 00	 call	 _strcpy
  01a97	83 c4 08	 add	 esp, 8

; 725  : #ifndef FIX_DS_CRASH
; 726  : 		GJSetCharacterInfo(lpUser, aIndex, 0);
; 727  : #endif
; 728  : 		MessageChat(aIndex,"~[Brotherhood]: Exit");

  01a9a	68 00 00 00 00	 push	 OFFSET ??_C@_0BF@INKEAOIF@?$HO?$FLBrotherhood?$FN?3?5Exit?$AA@
  01a9f	8b 45 08	 mov	 eax, DWORD PTR _aIndex$[ebp]
  01aa2	50		 push	 eax
  01aa3	e8 00 00 00 00	 call	 ?MessageChat@@YAXHPADZZ	; MessageChat
  01aa8	83 c4 08	 add	 esp, 8
$LN5@UserExitBr:

; 729  : 		return;
; 730  : 	}
; 731  : }

  01aab	5f		 pop	 edi
  01aac	5e		 pop	 esi
  01aad	5b		 pop	 ebx
  01aae	8b e5		 mov	 esp, ebp
  01ab0	5d		 pop	 ebp
  01ab1	c2 04 00	 ret	 4
?UserExitBrother@Brotherhood@@QAEXH@Z ENDP		; Brotherhood::UserExitBrother
_TEXT	ENDS
PUBLIC	?__LINE__Var@?1??TickTime@Brotherhood@@QAEXH@Z@4JA ; `Brotherhood::TickTime'::`2'::__LINE__Var
PUBLIC	?TickTime@Brotherhood@@QAEXH@Z			; Brotherhood::TickTime
EXTRN	?gObjRemoveBuffEffect@@YAEPAUOBJECTSTRUCT@@H@Z:PROC ; gObjRemoveBuffEffect
EXTRN	?gObjApplyBuffEffectDuration@@YAEPAUOBJECTSTRUCT@@HEHEHH@Z:PROC ; gObjApplyBuffEffectDuration
EXTRN	?gObjSearchActiveEffect@@YAEPAUOBJECTSTRUCT@@H@Z:PROC ; gObjSearchActiveEffect
;	COMDAT ?__LINE__Var@?1??TickTime@Brotherhood@@QAEXH@Z@4JA
_DATA	SEGMENT
?__LINE__Var@?1??TickTime@Brotherhood@@QAEXH@Z@4JA DD 02dfH ; `Brotherhood::TickTime'::`2'::__LINE__Var
; Function compile flags: /Odtp /ZI
_DATA	ENDS
_TEXT	SEGMENT
tv69 = -76						; size = 4
_lpUser$ = -8						; size = 4
_this$ = -4						; size = 4
_aIndex$ = 8						; size = 4
?TickTime@Brotherhood@@QAEXH@Z PROC			; Brotherhood::TickTime
; _this$ = ecx

; 735  : {

  01ac0	55		 push	 ebp
  01ac1	8b ec		 mov	 ebp, esp
  01ac3	83 ec 4c	 sub	 esp, 76			; 0000004cH
  01ac6	53		 push	 ebx
  01ac7	56		 push	 esi
  01ac8	57		 push	 edi
  01ac9	89 4d fc	 mov	 DWORD PTR _this$[ebp], ecx

; 736  : 
; 737  : 	if(!this->Enable)

  01acc	8b 45 fc	 mov	 eax, DWORD PTR _this$[ebp]
  01acf	0f b6 08	 movzx	 ecx, BYTE PTR [eax]
  01ad2	85 c9		 test	 ecx, ecx
  01ad4	75 05		 jne	 SHORT $LN7@TickTime

; 738  : 	{
; 739  : 		return;

  01ad6	e9 d7 00 00 00	 jmp	 $LN8@TickTime
$LN7@TickTime:

; 740  : 	}
; 741  : 
; 742  : 	if ( OBJMAX_RANGE(aIndex) == FALSE )

  01adb	83 7d 08 00	 cmp	 DWORD PTR _aIndex$[ebp], 0
  01adf	7d 09		 jge	 SHORT $LN10@TickTime
  01ae1	c7 45 b4 00 00
	00 00		 mov	 DWORD PTR tv69[ebp], 0
  01ae8	eb 0f		 jmp	 SHORT $LN11@TickTime
$LN10@TickTime:
  01aea	33 c0		 xor	 eax, eax
  01aec	81 7d 08 97 3a
	00 00		 cmp	 DWORD PTR _aIndex$[ebp], 14999 ; 00003a97H
  01af3	0f 9e c0	 setle	 al
  01af6	89 45 b4	 mov	 DWORD PTR tv69[ebp], eax
$LN11@TickTime:
  01af9	83 7d b4 00	 cmp	 DWORD PTR tv69[ebp], 0
  01afd	75 21		 jne	 SHORT $LN6@TickTime

; 743  : 	{
; 744  : 		LogAdd("error : %s %d", __FILE__, __LINE__ );

  01aff	a1 00 00 00 00	 mov	 eax, DWORD PTR ?__LINE__Var@?1??TickTime@Brotherhood@@QAEXH@Z@4JA
  01b04	83 c0 09	 add	 eax, 9
  01b07	50		 push	 eax
  01b08	68 00 00 00 00	 push	 OFFSET ??_C@_0ED@NGGOLAHH@d?3?2projects?2exteam6?43?2source?2gam@
  01b0d	68 00 00 00 00	 push	 OFFSET ??_C@_0O@CKAEPJAF@error?5?3?5?$CFs?5?$CFd?$AA@
  01b12	ff 15 00 00 00
	00		 call	 DWORD PTR ?LogAdd@@3P6AXPADZZA ; LogAdd
  01b18	83 c4 0c	 add	 esp, 12			; 0000000cH

; 745  : 		return;

  01b1b	e9 92 00 00 00	 jmp	 $LN8@TickTime
$LN6@TickTime:

; 746  : 	}
; 747  : 
; 748  : 	LPOBJ lpUser = &gObj[aIndex];

  01b20	8b 45 08	 mov	 eax, DWORD PTR _aIndex$[ebp]
  01b23	69 c0 38 2b 00
	00		 imul	 eax, 11064		; 00002b38H
  01b29	03 05 00 00 00
	00		 add	 eax, DWORD PTR ?gObj@@3PAUOBJECTSTRUCT@@A ; gObj
  01b2f	89 45 f8	 mov	 DWORD PTR _lpUser$[ebp], eax

; 749  : 
; 750  : 	if(lpUser->Connected < PLAYER_PLAYING)

  01b32	8b 45 f8	 mov	 eax, DWORD PTR _lpUser$[ebp]
  01b35	83 78 04 03	 cmp	 DWORD PTR [eax+4], 3
  01b39	7d 02		 jge	 SHORT $LN5@TickTime

; 751  : 	{
; 752  : 		return;

  01b3b	eb 75		 jmp	 SHORT $LN8@TickTime
$LN5@TickTime:

; 753  : 	}
; 754  : 
; 755  : 	if(ActiveBrother(lpUser))

  01b3d	8b 45 f8	 mov	 eax, DWORD PTR _lpUser$[ebp]
  01b40	50		 push	 eax
  01b41	8b 4d fc	 mov	 ecx, DWORD PTR _this$[ebp]
  01b44	e8 00 00 00 00	 call	 ?ActiveBrother@Brotherhood@@QAE_NPAUOBJECTSTRUCT@@@Z ; Brotherhood::ActiveBrother
  01b49	0f b6 c8	 movzx	 ecx, al
  01b4c	85 c9		 test	 ecx, ecx
  01b4e	74 38		 je	 SHORT $LN4@TickTime

; 756  : 	{
; 757  : 		if(gObjSearchActiveEffect(lpUser, AT_BT_BROTHERHOOD_BUFF) == FALSE )

  01b50	68 ae 00 00 00	 push	 174			; 000000aeH
  01b55	8b 45 f8	 mov	 eax, DWORD PTR _lpUser$[ebp]
  01b58	50		 push	 eax
  01b59	e8 00 00 00 00	 call	 ?gObjSearchActiveEffect@@YAEPAUOBJECTSTRUCT@@H@Z ; gObjSearchActiveEffect
  01b5e	83 c4 08	 add	 esp, 8
  01b61	0f b6 c8	 movzx	 ecx, al
  01b64	85 c9		 test	 ecx, ecx
  01b66	75 1e		 jne	 SHORT $LN3@TickTime

; 758  : 		{
; 759  : 			gObjApplyBuffEffectDuration(lpUser,AT_BT_BROTHERHOOD_BUFF,0,0,0,0,600);

  01b68	68 58 02 00 00	 push	 600			; 00000258H
  01b6d	6a 00		 push	 0
  01b6f	6a 00		 push	 0
  01b71	6a 00		 push	 0
  01b73	6a 00		 push	 0
  01b75	68 ae 00 00 00	 push	 174			; 000000aeH
  01b7a	8b 45 f8	 mov	 eax, DWORD PTR _lpUser$[ebp]
  01b7d	50		 push	 eax
  01b7e	e8 00 00 00 00	 call	 ?gObjApplyBuffEffectDuration@@YAEPAUOBJECTSTRUCT@@HEHEHH@Z ; gObjApplyBuffEffectDuration
  01b83	83 c4 1c	 add	 esp, 28			; 0000001cH
$LN3@TickTime:

; 760  : 		}
; 761  : 	}
; 762  : 	else

  01b86	eb 2a		 jmp	 SHORT $LN8@TickTime
$LN4@TickTime:

; 763  : 	{
; 764  : 		if(gObjSearchActiveEffect(lpUser, AT_BT_BROTHERHOOD_BUFF) == TRUE )

  01b88	68 ae 00 00 00	 push	 174			; 000000aeH
  01b8d	8b 45 f8	 mov	 eax, DWORD PTR _lpUser$[ebp]
  01b90	50		 push	 eax
  01b91	e8 00 00 00 00	 call	 ?gObjSearchActiveEffect@@YAEPAUOBJECTSTRUCT@@H@Z ; gObjSearchActiveEffect
  01b96	83 c4 08	 add	 esp, 8
  01b99	0f b6 c8	 movzx	 ecx, al
  01b9c	83 f9 01	 cmp	 ecx, 1
  01b9f	75 11		 jne	 SHORT $LN8@TickTime

; 765  : 		{
; 766  : 			gObjRemoveBuffEffect(lpUser,AT_BT_BROTHERHOOD_BUFF);

  01ba1	68 ae 00 00 00	 push	 174			; 000000aeH
  01ba6	8b 45 f8	 mov	 eax, DWORD PTR _lpUser$[ebp]
  01ba9	50		 push	 eax
  01baa	e8 00 00 00 00	 call	 ?gObjRemoveBuffEffect@@YAEPAUOBJECTSTRUCT@@H@Z ; gObjRemoveBuffEffect
  01baf	83 c4 08	 add	 esp, 8
$LN8@TickTime:

; 767  : 		}
; 768  : 	}
; 769  : }

  01bb2	5f		 pop	 edi
  01bb3	5e		 pop	 esi
  01bb4	5b		 pop	 ebx
  01bb5	8b e5		 mov	 esp, ebp
  01bb7	5d		 pop	 ebp
  01bb8	c2 04 00	 ret	 4
?TickTime@Brotherhood@@QAEXH@Z ENDP			; Brotherhood::TickTime
_TEXT	ENDS
PUBLIC	??_C@_0CG@OFBBBAIA@?$FLBrotherhood?$FN?5create?5brother?5?1br@ ; `string'
PUBLIC	?__LINE__Var@?1??NewAddBrother@Brotherhood@@QAE_NHH@Z@4JA ; `Brotherhood::NewAddBrother'::`2'::__LINE__Var
PUBLIC	__$ArrayPad$
PUBLIC	?NewAddBrother@Brotherhood@@QAE_NHH@Z		; Brotherhood::NewAddBrother
EXTRN	?Send@DBSockMng@@QAEHPADH@Z:PROC		; DBSockMng::Send
EXTRN	?cDBSMng@@3VDBSockMng@@A:BYTE			; cDBSMng
EXTRN	_memcpy:PROC
;	COMDAT ??_C@_0CG@OFBBBAIA@?$FLBrotherhood?$FN?5create?5brother?5?1br@
CONST	SEGMENT
??_C@_0CG@OFBBBAIA@?$FLBrotherhood?$FN?5create?5brother?5?1br@ DB '[Broth'
	DB	'erhood] create brother /brstart', 00H	; `string'
CONST	ENDS
;	COMDAT ?__LINE__Var@?1??NewAddBrother@Brotherhood@@QAE_NHH@Z@4JA
_DATA	SEGMENT
?__LINE__Var@?1??NewAddBrother@Brotherhood@@QAE_NHH@Z@4JA DD 0304H ; `Brotherhood::NewAddBrother'::`2'::__LINE__Var
; Function compile flags: /Odtp /ZI
_DATA	ENDS
_TEXT	SEGMENT
tv69 = -120						; size = 4
_Send$ = -52						; size = 24
_PartyUserCount$ = -28					; size = 4
_partynum$ = -24					; size = 4
_BrCount$ = -20						; size = 4
_number$ = -16						; size = 4
_lpUser$ = -12						; size = 4
_this$ = -8						; size = 4
__$ArrayPad$ = -4					; size = 4
_aIndex$ = 8						; size = 4
_TargetIndex$ = 12					; size = 4
?NewAddBrother@Brotherhood@@QAE_NHH@Z PROC		; Brotherhood::NewAddBrother
; _this$ = ecx

; 772  : {

  01bc0	55		 push	 ebp
  01bc1	8b ec		 mov	 ebp, esp
  01bc3	83 ec 78	 sub	 esp, 120		; 00000078H
  01bc6	a1 00 00 00 00	 mov	 eax, DWORD PTR ___security_cookie
  01bcb	33 c5		 xor	 eax, ebp
  01bcd	89 45 fc	 mov	 DWORD PTR __$ArrayPad$[ebp], eax
  01bd0	53		 push	 ebx
  01bd1	56		 push	 esi
  01bd2	57		 push	 edi
  01bd3	89 4d f8	 mov	 DWORD PTR _this$[ebp], ecx

; 773  : 
; 774  : 	if(!this->Enable)

  01bd6	8b 45 f8	 mov	 eax, DWORD PTR _this$[ebp]
  01bd9	0f b6 08	 movzx	 ecx, BYTE PTR [eax]
  01bdc	85 c9		 test	 ecx, ecx
  01bde	75 07		 jne	 SHORT $LN7@NewAddBrot

; 775  : 	{
; 776  : 		return false;

  01be0	32 c0		 xor	 al, al
  01be2	e9 9e 01 00 00	 jmp	 $LN8@NewAddBrot
$LN7@NewAddBrot:

; 777  : 	}
; 778  : 
; 779  : 	if ( OBJMAX_RANGE(aIndex) == FALSE )

  01be7	83 7d 08 00	 cmp	 DWORD PTR _aIndex$[ebp], 0
  01beb	7d 09		 jge	 SHORT $LN10@NewAddBrot
  01bed	c7 45 88 00 00
	00 00		 mov	 DWORD PTR tv69[ebp], 0
  01bf4	eb 0f		 jmp	 SHORT $LN11@NewAddBrot
$LN10@NewAddBrot:
  01bf6	33 c0		 xor	 eax, eax
  01bf8	81 7d 08 97 3a
	00 00		 cmp	 DWORD PTR _aIndex$[ebp], 14999 ; 00003a97H
  01bff	0f 9e c0	 setle	 al
  01c02	89 45 88	 mov	 DWORD PTR tv69[ebp], eax
$LN11@NewAddBrot:
  01c05	83 7d 88 00	 cmp	 DWORD PTR tv69[ebp], 0
  01c09	75 23		 jne	 SHORT $LN6@NewAddBrot

; 780  : 	{
; 781  : 		LogAdd("error : %s %d", __FILE__, __LINE__ );

  01c0b	a1 00 00 00 00	 mov	 eax, DWORD PTR ?__LINE__Var@?1??NewAddBrother@Brotherhood@@QAE_NHH@Z@4JA
  01c10	83 c0 09	 add	 eax, 9
  01c13	50		 push	 eax
  01c14	68 00 00 00 00	 push	 OFFSET ??_C@_0ED@NGGOLAHH@d?3?2projects?2exteam6?43?2source?2gam@
  01c19	68 00 00 00 00	 push	 OFFSET ??_C@_0O@CKAEPJAF@error?5?3?5?$CFs?5?$CFd?$AA@
  01c1e	ff 15 00 00 00
	00		 call	 DWORD PTR ?LogAdd@@3P6AXPADZZA ; LogAdd
  01c24	83 c4 0c	 add	 esp, 12			; 0000000cH

; 782  : 		return false;

  01c27	32 c0		 xor	 al, al
  01c29	e9 57 01 00 00	 jmp	 $LN8@NewAddBrot
$LN6@NewAddBrot:

; 783  : 	}
; 784  : 
; 785  : 	LPOBJ lpUser = &gObj[aIndex];

  01c2e	8b 45 08	 mov	 eax, DWORD PTR _aIndex$[ebp]
  01c31	69 c0 38 2b 00
	00		 imul	 eax, 11064		; 00002b38H
  01c37	03 05 00 00 00
	00		 add	 eax, DWORD PTR ?gObj@@3PAUOBJECTSTRUCT@@A ; gObj
  01c3d	89 45 f4	 mov	 DWORD PTR _lpUser$[ebp], eax

; 786  : 
; 787  : 	if(lpUser->Connected < PLAYER_PLAYING)

  01c40	8b 45 f4	 mov	 eax, DWORD PTR _lpUser$[ebp]
  01c43	83 78 04 03	 cmp	 DWORD PTR [eax+4], 3
  01c47	7d 07		 jge	 SHORT $LN5@NewAddBrot

; 788  : 	{
; 789  : 		return false;

  01c49	32 c0		 xor	 al, al
  01c4b	e9 35 01 00 00	 jmp	 $LN8@NewAddBrot
$LN5@NewAddBrot:

; 790  : 	}
; 791  : #ifndef BR_DEBUG
; 792  : 	//    
; 793  : 	if(lpUser->PartyNumber == -1)

  01c50	8b 45 f4	 mov	 eax, DWORD PTR _lpUser$[ebp]
  01c53	83 b8 2c 04 00
	00 ff		 cmp	 DWORD PTR [eax+1068], -1
  01c5a	75 18		 jne	 SHORT $LN4@NewAddBrot

; 794  : 	{
; 795  : 		MsgNormal(aIndex,"[Brotherhood] No Party");

  01c5c	68 00 00 00 00	 push	 OFFSET ??_C@_0BH@IHBBNOAL@?$FLBrotherhood?$FN?5No?5Party?$AA@
  01c61	8b 45 08	 mov	 eax, DWORD PTR _aIndex$[ebp]
  01c64	50		 push	 eax
  01c65	e8 00 00 00 00	 call	 ?MsgNormal@@YAXHPADZZ	; MsgNormal
  01c6a	83 c4 08	 add	 esp, 8

; 796  : 		return false;

  01c6d	32 c0		 xor	 al, al
  01c6f	e9 11 01 00 00	 jmp	 $LN8@NewAddBrot
$LN4@NewAddBrot:

; 797  : 	}
; 798  : 
; 799  : 	if(!strcmp(lpUser->Brotherhood,"One"))

  01c74	68 00 00 00 00	 push	 OFFSET ??_C@_03EHAPBBEA@One?$AA@
  01c79	8b 45 f4	 mov	 eax, DWORD PTR _lpUser$[ebp]
  01c7c	05 69 28 00 00	 add	 eax, 10345		; 00002869H
  01c81	50		 push	 eax
  01c82	e8 00 00 00 00	 call	 _strcmp
  01c87	83 c4 08	 add	 esp, 8
  01c8a	85 c0		 test	 eax, eax
  01c8c	75 18		 jne	 SHORT $LN3@NewAddBrot

; 800  : 	{
; 801  : 		MsgNormal(aIndex,"[Brotherhood] create brother /brstart");

  01c8e	68 00 00 00 00	 push	 OFFSET ??_C@_0CG@OFBBBAIA@?$FLBrotherhood?$FN?5create?5brother?5?1br@
  01c93	8b 45 08	 mov	 eax, DWORD PTR _aIndex$[ebp]
  01c96	50		 push	 eax
  01c97	e8 00 00 00 00	 call	 ?MsgNormal@@YAXHPADZZ	; MsgNormal
  01c9c	83 c4 08	 add	 esp, 8

; 802  : 		return false;

  01c9f	32 c0		 xor	 al, al
  01ca1	e9 df 00 00 00	 jmp	 $LN8@NewAddBrot
$LN3@NewAddBrot:

; 803  : 	}
; 804  : 
; 805  : 	int number = 0;

  01ca6	c7 45 f0 00 00
	00 00		 mov	 DWORD PTR _number$[ebp], 0

; 806  : 	int BrCount = 0;

  01cad	c7 45 ec 00 00
	00 00		 mov	 DWORD PTR _BrCount$[ebp], 0

; 807  : 	int	partynum = lpUser->PartyNumber;

  01cb4	8b 45 f4	 mov	 eax, DWORD PTR _lpUser$[ebp]
  01cb7	8b 88 2c 04 00
	00		 mov	 ecx, DWORD PTR [eax+1068]
  01cbd	89 4d e8	 mov	 DWORD PTR _partynum$[ebp], ecx

; 808  : 
; 809  : 	if( !gParty.Isleader(gObj[aIndex].PartyNumber, aIndex, gObj[aIndex].DBNumber) )

  01cc0	8b 45 08	 mov	 eax, DWORD PTR _aIndex$[ebp]
  01cc3	69 c0 38 2b 00
	00		 imul	 eax, 11064		; 00002b38H
  01cc9	8b 0d 00 00 00
	00		 mov	 ecx, DWORD PTR ?gObj@@3PAUOBJECTSTRUCT@@A ; gObj
  01ccf	8b 54 01 2c	 mov	 edx, DWORD PTR [ecx+eax+44]
  01cd3	52		 push	 edx
  01cd4	8b 45 08	 mov	 eax, DWORD PTR _aIndex$[ebp]
  01cd7	50		 push	 eax
  01cd8	8b 4d 08	 mov	 ecx, DWORD PTR _aIndex$[ebp]
  01cdb	69 c9 38 2b 00
	00		 imul	 ecx, 11064		; 00002b38H
  01ce1	8b 15 00 00 00
	00		 mov	 edx, DWORD PTR ?gObj@@3PAUOBJECTSTRUCT@@A ; gObj
  01ce7	8b 84 0a 2c 04
	00 00		 mov	 eax, DWORD PTR [edx+ecx+1068]
  01cee	50		 push	 eax
  01cef	b9 00 00 00 00	 mov	 ecx, OFFSET ?gParty@@3VPartyClass@@A ; gParty
  01cf4	e8 00 00 00 00	 call	 ?Isleader@PartyClass@@QAEHHHH@Z ; PartyClass::Isleader
  01cf9	85 c0		 test	 eax, eax
  01cfb	75 15		 jne	 SHORT $LN2@NewAddBrot

; 810  : 	{
; 811  : 		MsgNormal(aIndex,"[Brotherhood] No Party Leader");

  01cfd	68 00 00 00 00	 push	 OFFSET ??_C@_0BO@GGNKNGLB@?$FLBrotherhood?$FN?5No?5Party?5Leader?$AA@
  01d02	8b 45 08	 mov	 eax, DWORD PTR _aIndex$[ebp]
  01d05	50		 push	 eax
  01d06	e8 00 00 00 00	 call	 ?MsgNormal@@YAXHPADZZ	; MsgNormal
  01d0b	83 c4 08	 add	 esp, 8

; 812  : 		return false;

  01d0e	32 c0		 xor	 al, al
  01d10	eb 73		 jmp	 SHORT $LN8@NewAddBrot
$LN2@NewAddBrot:

; 813  : 	}
; 814  : 
; 815  : 	int PartyUserCount = gParty.GetPartyCount(partynum);

  01d12	8b 45 e8	 mov	 eax, DWORD PTR _partynum$[ebp]
  01d15	50		 push	 eax
  01d16	b9 00 00 00 00	 mov	 ecx, OFFSET ?gParty@@3VPartyClass@@A ; gParty
  01d1b	e8 00 00 00 00	 call	 ?GetPartyCount@PartyClass@@QAEHH@Z ; PartyClass::GetPartyCount
  01d20	89 45 e4	 mov	 DWORD PTR _PartyUserCount$[ebp], eax

; 816  : 
; 817  : 	if(PartyUserCount > 5)

  01d23	83 7d e4 05	 cmp	 DWORD PTR _PartyUserCount$[ebp], 5
  01d27	7e 15		 jle	 SHORT $LN1@NewAddBrot

; 818  : 	{
; 819  : 		MsgNormal(aIndex,"[Brotherhood] Need Max User 5");

  01d29	68 00 00 00 00	 push	 OFFSET ??_C@_0BO@KLPFKPNJ@?$FLBrotherhood?$FN?5Need?5Max?5User?55?$AA@
  01d2e	8b 45 08	 mov	 eax, DWORD PTR _aIndex$[ebp]
  01d31	50		 push	 eax
  01d32	e8 00 00 00 00	 call	 ?MsgNormal@@YAXHPADZZ	; MsgNormal
  01d37	83 c4 08	 add	 esp, 8

; 820  : 		return false;

  01d3a	32 c0		 xor	 al, al
  01d3c	eb 47		 jmp	 SHORT $LN8@NewAddBrot
$LN1@NewAddBrot:

; 821  : 	}
; 822  : 
; 823  : #endif
; 824  : 
; 825  : 	GD_CheckBrother Send;
; 826  : 
; 827  : 	Send.h.c = 0xC1;

  01d3e	c6 45 cc c1	 mov	 BYTE PTR _Send$[ebp], 193 ; 000000c1H

; 828  : 	Send.h.headcode = 0xE2;

  01d42	c6 45 ce e2	 mov	 BYTE PTR _Send$[ebp+2], 226 ; 000000e2H

; 829  : 	Send.h.subcode = 0x04;

  01d46	c6 45 cf 04	 mov	 BYTE PTR _Send$[ebp+3], 4

; 830  : 	Send.h.size = sizeof(GD_CheckBrother);

  01d4a	c6 45 cd 18	 mov	 BYTE PTR _Send$[ebp+1], 24 ; 00000018H

; 831  : 	Send.aIndex = aIndex;

  01d4e	8b 45 08	 mov	 eax, DWORD PTR _aIndex$[ebp]
  01d51	89 45 d0	 mov	 DWORD PTR _Send$[ebp+4], eax

; 832  : 	Send.aTargetIndex = TargetIndex;

  01d54	8b 45 0c	 mov	 eax, DWORD PTR _TargetIndex$[ebp]
  01d57	89 45 d4	 mov	 DWORD PTR _Send$[ebp+8], eax

; 833  : 	//Send
; 834  : 	Send.BrName[MAX_ACCOUNT_LEN] = 0;

  01d5a	c6 45 e2 00	 mov	 BYTE PTR _Send$[ebp+22], 0

; 835  : 	memcpy(Send.BrName, lpUser->Brotherhood, sizeof(Send.BrName)-1);

  01d5e	6a 0a		 push	 10			; 0000000aH
  01d60	8b 45 f4	 mov	 eax, DWORD PTR _lpUser$[ebp]
  01d63	05 69 28 00 00	 add	 eax, 10345		; 00002869H
  01d68	50		 push	 eax
  01d69	8d 4d d8	 lea	 ecx, DWORD PTR _Send$[ebp+12]
  01d6c	51		 push	 ecx
  01d6d	e8 00 00 00 00	 call	 _memcpy
  01d72	83 c4 0c	 add	 esp, 12			; 0000000cH

; 836  : 
; 837  : 	cDBSMng.Send((char*)&Send, sizeof(GD_CheckBrother));

  01d75	6a 18		 push	 24			; 00000018H
  01d77	8d 45 cc	 lea	 eax, DWORD PTR _Send$[ebp]
  01d7a	50		 push	 eax
  01d7b	b9 00 00 00 00	 mov	 ecx, OFFSET ?cDBSMng@@3VDBSockMng@@A ; cDBSMng
  01d80	e8 00 00 00 00	 call	 ?Send@DBSockMng@@QAEHPADH@Z ; DBSockMng::Send
$LN8@NewAddBrot:

; 838  : 
; 839  : }

  01d85	5f		 pop	 edi
  01d86	5e		 pop	 esi
  01d87	5b		 pop	 ebx
  01d88	8b 4d fc	 mov	 ecx, DWORD PTR __$ArrayPad$[ebp]
  01d8b	33 cd		 xor	 ecx, ebp
  01d8d	e8 00 00 00 00	 call	 @__security_check_cookie@4
  01d92	8b e5		 mov	 esp, ebp
  01d94	5d		 pop	 ebp
  01d95	c2 08 00	 ret	 8
?NewAddBrother@Brotherhood@@QAE_NHH@Z ENDP		; Brotherhood::NewAddBrother
_TEXT	ENDS
PUBLIC	??_C@_0BI@LHBMPGAC@?$HO?$FLBrotherhood?$FN?3?5New?3?5?$CFs?$AA@ ; `string'
PUBLIC	??_C@_0CM@NEOCLGBF@?$FLBrotherhood?$FN?5Need?5Full?5?$CFd?5?1?5?$CFd?5@ ; `string'
PUBLIC	??_C@_0BC@JHEHGABB@?$FLBrotherhood?$FN?55?15?$AA@ ; `string'
PUBLIC	??_C@_0BJ@OOMPCCAM@?$FLBrotherhood?$FN?5No?5Brother?$AA@ ; `string'
PUBLIC	?__LINE__Var@?1??DG_RecvBrotherCount@Brotherhood@@QAEXPAUDG_CheckBrother@@@Z@4JA ; `Brotherhood::DG_RecvBrotherCount'::`2'::__LINE__Var
PUBLIC	?DG_RecvBrotherCount@Brotherhood@@QAEXPAUDG_CheckBrother@@@Z ; Brotherhood::DG_RecvBrotherCount
;	COMDAT ??_C@_0BI@LHBMPGAC@?$HO?$FLBrotherhood?$FN?3?5New?3?5?$CFs?$AA@
CONST	SEGMENT
??_C@_0BI@LHBMPGAC@?$HO?$FLBrotherhood?$FN?3?5New?3?5?$CFs?$AA@ DB '~[Bro'
	DB	'therhood]: New: %s', 00H			; `string'
CONST	ENDS
;	COMDAT ??_C@_0CM@NEOCLGBF@?$FLBrotherhood?$FN?5Need?5Full?5?$CFd?5?1?5?$CFd?5@
CONST	SEGMENT
??_C@_0CM@NEOCLGBF@?$FLBrotherhood?$FN?5Need?5Full?5?$CFd?5?1?5?$CFd?5@ DB '['
	DB	'Brotherhood] Need Full %d / %d for add new', 00H ; `string'
CONST	ENDS
;	COMDAT ??_C@_0BC@JHEHGABB@?$FLBrotherhood?$FN?55?15?$AA@
CONST	SEGMENT
??_C@_0BC@JHEHGABB@?$FLBrotherhood?$FN?55?15?$AA@ DB '[Brotherhood] 5/5', 00H ; `string'
CONST	ENDS
;	COMDAT ??_C@_0BJ@OOMPCCAM@?$FLBrotherhood?$FN?5No?5Brother?$AA@
CONST	SEGMENT
??_C@_0BJ@OOMPCCAM@?$FLBrotherhood?$FN?5No?5Brother?$AA@ DB '[Brotherhood'
	DB	'] No Brother', 00H				; `string'
CONST	ENDS
;	COMDAT ?__LINE__Var@?1??DG_RecvBrotherCount@Brotherhood@@QAEXPAUDG_CheckBrother@@@Z@4JA
_DATA	SEGMENT
?__LINE__Var@?1??DG_RecvBrotherCount@Brotherhood@@QAEXPAUDG_CheckBrother@@@Z@4JA DD 034bH ; `Brotherhood::DG_RecvBrotherCount'::`2'::__LINE__Var
; Function compile flags: /Odtp /ZI
_DATA	ENDS
_TEXT	SEGMENT
tv81 = -120						; size = 4
tv72 = -120						; size = 4
_LpBrother$230350 = -52					; size = 4
_i$230345 = -48						; size = 4
_LpBrother$230340 = -44					; size = 4
_n$230334 = -40						; size = 4
_partynum$ = -36					; size = 4
_BrCount$ = -32						; size = 4
_number$ = -28						; size = 4
_lpTarget$ = -24					; size = 4
_lpUser$ = -20						; size = 4
_Count$ = -16						; size = 4
_aTragetIndex$ = -12					; size = 4
_aIndex$ = -8						; size = 4
_this$ = -4						; size = 4
_Recv$ = 8						; size = 4
?DG_RecvBrotherCount@Brotherhood@@QAEXPAUDG_CheckBrother@@@Z PROC ; Brotherhood::DG_RecvBrotherCount
; _this$ = ecx

; 843  : {

  01da0	55		 push	 ebp
  01da1	8b ec		 mov	 ebp, esp
  01da3	83 ec 78	 sub	 esp, 120		; 00000078H
  01da6	53		 push	 ebx
  01da7	56		 push	 esi
  01da8	57		 push	 edi
  01da9	89 4d fc	 mov	 DWORD PTR _this$[ebp], ecx

; 844  : 	if(!this->Enable)

  01dac	8b 45 fc	 mov	 eax, DWORD PTR _this$[ebp]
  01daf	0f b6 08	 movzx	 ecx, BYTE PTR [eax]
  01db2	85 c9		 test	 ecx, ecx
  01db4	75 05		 jne	 SHORT $LN19@DG_RecvBro

; 845  : 	{
; 846  : 		return;

  01db6	e9 90 02 00 00	 jmp	 $LN20@DG_RecvBro
$LN19@DG_RecvBro:

; 847  : 	}
; 848  : 
; 849  : 	int aIndex = Recv->aIndex;

  01dbb	8b 45 08	 mov	 eax, DWORD PTR _Recv$[ebp]
  01dbe	8b 48 04	 mov	 ecx, DWORD PTR [eax+4]
  01dc1	89 4d f8	 mov	 DWORD PTR _aIndex$[ebp], ecx

; 850  : 	int aTragetIndex = Recv->aTargetIndex;

  01dc4	8b 45 08	 mov	 eax, DWORD PTR _Recv$[ebp]
  01dc7	8b 48 08	 mov	 ecx, DWORD PTR [eax+8]
  01dca	89 4d f4	 mov	 DWORD PTR _aTragetIndex$[ebp], ecx

; 851  : 	int Count = Recv->Count;

  01dcd	8b 45 08	 mov	 eax, DWORD PTR _Recv$[ebp]
  01dd0	8b 48 0c	 mov	 ecx, DWORD PTR [eax+12]
  01dd3	89 4d f0	 mov	 DWORD PTR _Count$[ebp], ecx

; 852  : 
; 853  : 	if ( OBJMAX_RANGE(aIndex) == FALSE )

  01dd6	83 7d f8 00	 cmp	 DWORD PTR _aIndex$[ebp], 0
  01dda	7d 09		 jge	 SHORT $LN22@DG_RecvBro
  01ddc	c7 45 88 00 00
	00 00		 mov	 DWORD PTR tv72[ebp], 0
  01de3	eb 0f		 jmp	 SHORT $LN23@DG_RecvBro
$LN22@DG_RecvBro:
  01de5	33 c0		 xor	 eax, eax
  01de7	81 7d f8 97 3a
	00 00		 cmp	 DWORD PTR _aIndex$[ebp], 14999 ; 00003a97H
  01dee	0f 9e c0	 setle	 al
  01df1	89 45 88	 mov	 DWORD PTR tv72[ebp], eax
$LN23@DG_RecvBro:
  01df4	83 7d 88 00	 cmp	 DWORD PTR tv72[ebp], 0
  01df8	75 21		 jne	 SHORT $LN18@DG_RecvBro

; 854  : 	{
; 855  : 		LogAdd("error : %s %d", __FILE__, __LINE__ );

  01dfa	a1 00 00 00 00	 mov	 eax, DWORD PTR ?__LINE__Var@?1??DG_RecvBrotherCount@Brotherhood@@QAEXPAUDG_CheckBrother@@@Z@4JA
  01dff	83 c0 0c	 add	 eax, 12			; 0000000cH
  01e02	50		 push	 eax
  01e03	68 00 00 00 00	 push	 OFFSET ??_C@_0ED@NGGOLAHH@d?3?2projects?2exteam6?43?2source?2gam@
  01e08	68 00 00 00 00	 push	 OFFSET ??_C@_0O@CKAEPJAF@error?5?3?5?$CFs?5?$CFd?$AA@
  01e0d	ff 15 00 00 00
	00		 call	 DWORD PTR ?LogAdd@@3P6AXPADZZA ; LogAdd
  01e13	83 c4 0c	 add	 esp, 12			; 0000000cH

; 856  : 		return;

  01e16	e9 30 02 00 00	 jmp	 $LN20@DG_RecvBro
$LN18@DG_RecvBro:

; 857  : 	}
; 858  : 
; 859  : 	if ( OBJMAX_RANGE(aTragetIndex) == FALSE )

  01e1b	83 7d f4 00	 cmp	 DWORD PTR _aTragetIndex$[ebp], 0
  01e1f	7d 09		 jge	 SHORT $LN24@DG_RecvBro
  01e21	c7 45 88 00 00
	00 00		 mov	 DWORD PTR tv81[ebp], 0
  01e28	eb 0f		 jmp	 SHORT $LN25@DG_RecvBro
$LN24@DG_RecvBro:
  01e2a	33 c0		 xor	 eax, eax
  01e2c	81 7d f4 97 3a
	00 00		 cmp	 DWORD PTR _aTragetIndex$[ebp], 14999 ; 00003a97H
  01e33	0f 9e c0	 setle	 al
  01e36	89 45 88	 mov	 DWORD PTR tv81[ebp], eax
$LN25@DG_RecvBro:
  01e39	83 7d 88 00	 cmp	 DWORD PTR tv81[ebp], 0
  01e3d	75 21		 jne	 SHORT $LN17@DG_RecvBro

; 860  : 	{
; 861  : 		LogAdd("error : %s %d", __FILE__, __LINE__ );

  01e3f	a1 00 00 00 00	 mov	 eax, DWORD PTR ?__LINE__Var@?1??DG_RecvBrotherCount@Brotherhood@@QAEXPAUDG_CheckBrother@@@Z@4JA
  01e44	83 c0 12	 add	 eax, 18			; 00000012H
  01e47	50		 push	 eax
  01e48	68 00 00 00 00	 push	 OFFSET ??_C@_0ED@NGGOLAHH@d?3?2projects?2exteam6?43?2source?2gam@
  01e4d	68 00 00 00 00	 push	 OFFSET ??_C@_0O@CKAEPJAF@error?5?3?5?$CFs?5?$CFd?$AA@
  01e52	ff 15 00 00 00
	00		 call	 DWORD PTR ?LogAdd@@3P6AXPADZZA ; LogAdd
  01e58	83 c4 0c	 add	 esp, 12			; 0000000cH

; 862  : 		return;

  01e5b	e9 eb 01 00 00	 jmp	 $LN20@DG_RecvBro
$LN17@DG_RecvBro:

; 863  : 	}
; 864  : 
; 865  : 	LPOBJ lpUser = &gObj[aIndex];

  01e60	8b 45 f8	 mov	 eax, DWORD PTR _aIndex$[ebp]
  01e63	69 c0 38 2b 00
	00		 imul	 eax, 11064		; 00002b38H
  01e69	03 05 00 00 00
	00		 add	 eax, DWORD PTR ?gObj@@3PAUOBJECTSTRUCT@@A ; gObj
  01e6f	89 45 ec	 mov	 DWORD PTR _lpUser$[ebp], eax

; 866  : 	LPOBJ lpTarget = &gObj[aTragetIndex];

  01e72	8b 45 f4	 mov	 eax, DWORD PTR _aTragetIndex$[ebp]
  01e75	69 c0 38 2b 00
	00		 imul	 eax, 11064		; 00002b38H
  01e7b	03 05 00 00 00
	00		 add	 eax, DWORD PTR ?gObj@@3PAUOBJECTSTRUCT@@A ; gObj
  01e81	89 45 e8	 mov	 DWORD PTR _lpTarget$[ebp], eax

; 867  : 
; 868  : 	if(lpUser->Connected < PLAYER_PLAYING)

  01e84	8b 45 ec	 mov	 eax, DWORD PTR _lpUser$[ebp]
  01e87	83 78 04 03	 cmp	 DWORD PTR [eax+4], 3
  01e8b	7d 05		 jge	 SHORT $LN16@DG_RecvBro

; 869  : 	{
; 870  : 		return;

  01e8d	e9 b9 01 00 00	 jmp	 $LN20@DG_RecvBro
$LN16@DG_RecvBro:

; 871  : 	}
; 872  : 
; 873  : 	if(lpTarget->Connected < PLAYER_PLAYING)

  01e92	8b 45 e8	 mov	 eax, DWORD PTR _lpTarget$[ebp]
  01e95	83 78 04 03	 cmp	 DWORD PTR [eax+4], 3
  01e99	7d 05		 jge	 SHORT $LN15@DG_RecvBro

; 874  : 	{
; 875  : 		return;

  01e9b	e9 ab 01 00 00	 jmp	 $LN20@DG_RecvBro
$LN15@DG_RecvBro:

; 876  : 	}
; 877  : 
; 878  : 	if(Count <= 0)

  01ea0	83 7d f0 00	 cmp	 DWORD PTR _Count$[ebp], 0
  01ea4	7f 16		 jg	 SHORT $LN14@DG_RecvBro

; 879  : 	{
; 880  : 		MsgNormal(aIndex,"[Brotherhood] No Brother");

  01ea6	68 00 00 00 00	 push	 OFFSET ??_C@_0BJ@OOMPCCAM@?$FLBrotherhood?$FN?5No?5Brother?$AA@
  01eab	8b 45 f8	 mov	 eax, DWORD PTR _aIndex$[ebp]
  01eae	50		 push	 eax
  01eaf	e8 00 00 00 00	 call	 ?MsgNormal@@YAXHPADZZ	; MsgNormal
  01eb4	83 c4 08	 add	 esp, 8

; 881  : 		return;

  01eb7	e9 8f 01 00 00	 jmp	 $LN20@DG_RecvBro
$LN14@DG_RecvBro:

; 882  : 	}
; 883  : 
; 884  : 	if(Count >= 5)

  01ebc	83 7d f0 05	 cmp	 DWORD PTR _Count$[ebp], 5
  01ec0	7c 16		 jl	 SHORT $LN13@DG_RecvBro

; 885  : 	{
; 886  : 		MsgNormal(aIndex,"[Brotherhood] 5/5");

  01ec2	68 00 00 00 00	 push	 OFFSET ??_C@_0BC@JHEHGABB@?$FLBrotherhood?$FN?55?15?$AA@
  01ec7	8b 45 f8	 mov	 eax, DWORD PTR _aIndex$[ebp]
  01eca	50		 push	 eax
  01ecb	e8 00 00 00 00	 call	 ?MsgNormal@@YAXHPADZZ	; MsgNormal
  01ed0	83 c4 08	 add	 esp, 8

; 887  : 		return;

  01ed3	e9 73 01 00 00	 jmp	 $LN20@DG_RecvBro
$LN13@DG_RecvBro:

; 888  : 	}
; 889  : 
; 890  : #ifndef BR_DEBUG
; 891  : 
; 892  : 	int number = 0;

  01ed8	c7 45 e4 00 00
	00 00		 mov	 DWORD PTR _number$[ebp], 0

; 893  : 	int BrCount = 0;

  01edf	c7 45 e0 00 00
	00 00		 mov	 DWORD PTR _BrCount$[ebp], 0

; 894  : 	int	partynum = lpUser->PartyNumber;

  01ee6	8b 45 ec	 mov	 eax, DWORD PTR _lpUser$[ebp]
  01ee9	8b 88 2c 04 00
	00		 mov	 ecx, DWORD PTR [eax+1068]
  01eef	89 4d dc	 mov	 DWORD PTR _partynum$[ebp], ecx

; 895  : 
; 896  : 	for(int n = 0; n < MAX_USER_IN_PARTY; n++)

  01ef2	c7 45 d8 00 00
	00 00		 mov	 DWORD PTR _n$230334[ebp], 0
  01ef9	eb 09		 jmp	 SHORT $LN12@DG_RecvBro
$LN11@DG_RecvBro:
  01efb	8b 45 d8	 mov	 eax, DWORD PTR _n$230334[ebp]
  01efe	83 c0 01	 add	 eax, 1
  01f01	89 45 d8	 mov	 DWORD PTR _n$230334[ebp], eax
$LN12@DG_RecvBro:
  01f04	83 7d d8 0a	 cmp	 DWORD PTR _n$230334[ebp], 10 ; 0000000aH
  01f08	7d 71		 jge	 SHORT $LN10@DG_RecvBro

; 897  : 	{
; 898  : #if _NEW_PARTY_SYSTEM_ == TRUE
; 899  : 		if( n >= g_MaxPartyMember)

  01f0a	8b 45 d8	 mov	 eax, DWORD PTR _n$230334[ebp]
  01f0d	3b 05 00 00 00
	00		 cmp	 eax, DWORD PTR ?g_MaxPartyMember@@3HA ; g_MaxPartyMember
  01f13	7c 02		 jl	 SHORT $LN9@DG_RecvBro

; 900  : 		{
; 901  : 			break;

  01f15	eb 64		 jmp	 SHORT $LN10@DG_RecvBro
$LN9@DG_RecvBro:

; 902  : 		}
; 903  : #endif
; 904  : 		number = gParty.m_PartyS[partynum].Number[n];

  01f17	8b 45 dc	 mov	 eax, DWORD PTR _partynum$[ebp]
  01f1a	6b c0 6c	 imul	 eax, 108		; 0000006cH
  01f1d	8b 4d d8	 mov	 ecx, DWORD PTR _n$230334[ebp]
  01f20	8b 94 88 0c 00
	00 00		 mov	 edx, DWORD PTR ?gParty@@3VPartyClass@@A[eax+ecx*4+12]
  01f27	89 55 e4	 mov	 DWORD PTR _number$[ebp], edx

; 905  : 
; 906  : 		if(number >= 0 && lpUser->Connected == PLAYER_PLAYING)

  01f2a	83 7d e4 00	 cmp	 DWORD PTR _number$[ebp], 0
  01f2e	7c 47		 jl	 SHORT $LN8@DG_RecvBro
  01f30	8b 45 ec	 mov	 eax, DWORD PTR _lpUser$[ebp]
  01f33	83 78 04 03	 cmp	 DWORD PTR [eax+4], 3
  01f37	75 3e		 jne	 SHORT $LN8@DG_RecvBro

; 907  : 		{
; 908  : 			LPOBJ LpBrother = &gObj[number];

  01f39	8b 45 e4	 mov	 eax, DWORD PTR _number$[ebp]
  01f3c	69 c0 38 2b 00
	00		 imul	 eax, 11064		; 00002b38H
  01f42	03 05 00 00 00
	00		 add	 eax, DWORD PTR ?gObj@@3PAUOBJECTSTRUCT@@A ; gObj
  01f48	89 45 d4	 mov	 DWORD PTR _LpBrother$230340[ebp], eax

; 909  : 			if(!strncmp(lpUser->Brotherhood,LpBrother->Brotherhood,10))

  01f4b	6a 0a		 push	 10			; 0000000aH
  01f4d	8b 45 d4	 mov	 eax, DWORD PTR _LpBrother$230340[ebp]
  01f50	05 69 28 00 00	 add	 eax, 10345		; 00002869H
  01f55	50		 push	 eax
  01f56	8b 4d ec	 mov	 ecx, DWORD PTR _lpUser$[ebp]
  01f59	81 c1 69 28 00
	00		 add	 ecx, 10345		; 00002869H
  01f5f	51		 push	 ecx
  01f60	e8 00 00 00 00	 call	 _strncmp
  01f65	83 c4 0c	 add	 esp, 12			; 0000000cH
  01f68	85 c0		 test	 eax, eax
  01f6a	75 09		 jne	 SHORT $LN7@DG_RecvBro

; 910  : 			{
; 911  : 				BrCount++;

  01f6c	8b 45 e0	 mov	 eax, DWORD PTR _BrCount$[ebp]
  01f6f	83 c0 01	 add	 eax, 1
  01f72	89 45 e0	 mov	 DWORD PTR _BrCount$[ebp], eax
$LN7@DG_RecvBro:

; 912  : 			}
; 913  : 		}
; 914  : 		else

  01f75	eb 02		 jmp	 SHORT $LN6@DG_RecvBro
$LN8@DG_RecvBro:

; 915  : 		{
; 916  : 			continue;

  01f77	eb 82		 jmp	 SHORT $LN11@DG_RecvBro
$LN6@DG_RecvBro:

; 917  : 		}
; 918  : 	}

  01f79	eb 80		 jmp	 SHORT $LN11@DG_RecvBro
$LN10@DG_RecvBro:

; 919  : 
; 920  : 
; 921  : 	if(BrCount != Count)

  01f7b	8b 45 e0	 mov	 eax, DWORD PTR _BrCount$[ebp]
  01f7e	3b 45 f0	 cmp	 eax, DWORD PTR _Count$[ebp]
  01f81	74 1e		 je	 SHORT $LN5@DG_RecvBro

; 922  : 	{
; 923  : 		MsgNormal(aIndex,"[Brotherhood] Need Full %d / %d for add new",BrCount,Count);

  01f83	8b 45 f0	 mov	 eax, DWORD PTR _Count$[ebp]
  01f86	50		 push	 eax
  01f87	8b 4d e0	 mov	 ecx, DWORD PTR _BrCount$[ebp]
  01f8a	51		 push	 ecx
  01f8b	68 00 00 00 00	 push	 OFFSET ??_C@_0CM@NEOCLGBF@?$FLBrotherhood?$FN?5Need?5Full?5?$CFd?5?1?5?$CFd?5@
  01f90	8b 55 f8	 mov	 edx, DWORD PTR _aIndex$[ebp]
  01f93	52		 push	 edx
  01f94	e8 00 00 00 00	 call	 ?MsgNormal@@YAXHPADZZ	; MsgNormal
  01f99	83 c4 10	 add	 esp, 16			; 00000010H

; 924  : 		return;

  01f9c	e9 aa 00 00 00	 jmp	 $LN20@DG_RecvBro
$LN5@DG_RecvBro:

; 925  : 	}
; 926  : 
; 927  : #if _NEW_PARTY_SYSTEM_ == TRUE
; 928  : 	for(int i=0; i< g_MaxPartyMember; i++)

  01fa1	c7 45 d0 00 00
	00 00		 mov	 DWORD PTR _i$230345[ebp], 0
  01fa8	eb 09		 jmp	 SHORT $LN4@DG_RecvBro
$LN3@DG_RecvBro:
  01faa	8b 45 d0	 mov	 eax, DWORD PTR _i$230345[ebp]
  01fad	83 c0 01	 add	 eax, 1
  01fb0	89 45 d0	 mov	 DWORD PTR _i$230345[ebp], eax
$LN4@DG_RecvBro:
  01fb3	8b 45 d0	 mov	 eax, DWORD PTR _i$230345[ebp]
  01fb6	3b 05 00 00 00
	00		 cmp	 eax, DWORD PTR ?g_MaxPartyMember@@3HA ; g_MaxPartyMember
  01fbc	0f 8d 89 00 00
	00		 jge	 $LN20@DG_RecvBro

; 929  : #else
; 930  : 	for(int i=0; i < MAX_USER_IN_PARTY; i++)
; 931  : #endif
; 932  : 	{
; 933  : 		number = gParty.m_PartyS[partynum].Number[i];

  01fc2	8b 45 dc	 mov	 eax, DWORD PTR _partynum$[ebp]
  01fc5	6b c0 6c	 imul	 eax, 108		; 0000006cH
  01fc8	8b 4d d0	 mov	 ecx, DWORD PTR _i$230345[ebp]
  01fcb	8b 94 88 0c 00
	00 00		 mov	 edx, DWORD PTR ?gParty@@3VPartyClass@@A[eax+ecx*4+12]
  01fd2	89 55 e4	 mov	 DWORD PTR _number$[ebp], edx

; 934  : 
; 935  : 		if(number >= 0)

  01fd5	83 7d e4 00	 cmp	 DWORD PTR _number$[ebp], 0
  01fd9	7c 6b		 jl	 SHORT $LN1@DG_RecvBro

; 936  : 		{
; 937  : 			LPOBJ LpBrother = &gObj[number];

  01fdb	8b 45 e4	 mov	 eax, DWORD PTR _number$[ebp]
  01fde	69 c0 38 2b 00
	00		 imul	 eax, 11064		; 00002b38H
  01fe4	03 05 00 00 00
	00		 add	 eax, DWORD PTR ?gObj@@3PAUOBJECTSTRUCT@@A ; gObj
  01fea	89 45 cc	 mov	 DWORD PTR _LpBrother$230350[ebp], eax

; 938  : 			strncpy(LpBrother->Brotherhood,lpUser->Brotherhood,10);

  01fed	6a 0a		 push	 10			; 0000000aH
  01fef	8b 45 ec	 mov	 eax, DWORD PTR _lpUser$[ebp]
  01ff2	05 69 28 00 00	 add	 eax, 10345		; 00002869H
  01ff7	50		 push	 eax
  01ff8	8b 4d cc	 mov	 ecx, DWORD PTR _LpBrother$230350[ebp]
  01ffb	81 c1 69 28 00
	00		 add	 ecx, 10345		; 00002869H
  02001	51		 push	 ecx
  02002	e8 00 00 00 00	 call	 _strncpy
  02007	83 c4 0c	 add	 esp, 12			; 0000000cH

; 939  : 			ExFireCracker(number, LpBrother->X, LpBrother->Y);

  0200a	8b 45 cc	 mov	 eax, DWORD PTR _LpBrother$230350[ebp]
  0200d	0f b6 88 46 01
	00 00		 movzx	 ecx, BYTE PTR [eax+326]
  02014	51		 push	 ecx
  02015	8b 55 cc	 mov	 edx, DWORD PTR _LpBrother$230350[ebp]
  02018	0f b6 82 44 01
	00 00		 movzx	 eax, BYTE PTR [edx+324]
  0201f	50		 push	 eax
  02020	8b 4d e4	 mov	 ecx, DWORD PTR _number$[ebp]
  02023	51		 push	 ecx
  02024	e8 00 00 00 00	 call	 ?ExFireCracker@@YAXHEE@Z ; ExFireCracker
  02029	83 c4 0c	 add	 esp, 12			; 0000000cH

; 940  : 			MessageChat(number,"~[Brotherhood]: New: %s",lpUser->Brotherhood);

  0202c	8b 45 ec	 mov	 eax, DWORD PTR _lpUser$[ebp]
  0202f	05 69 28 00 00	 add	 eax, 10345		; 00002869H
  02034	50		 push	 eax
  02035	68 00 00 00 00	 push	 OFFSET ??_C@_0BI@LHBMPGAC@?$HO?$FLBrotherhood?$FN?3?5New?3?5?$CFs?$AA@
  0203a	8b 4d e4	 mov	 ecx, DWORD PTR _number$[ebp]
  0203d	51		 push	 ecx
  0203e	e8 00 00 00 00	 call	 ?MessageChat@@YAXHPADZZ	; MessageChat
  02043	83 c4 0c	 add	 esp, 12			; 0000000cH
$LN1@DG_RecvBro:

; 941  : #ifndef FIX_DS_CRASH
; 942  : 			GJSetCharacterInfo(LpBrother, number, 0);
; 943  : #endif
; 944  : 		}
; 945  : 	}

  02046	e9 5f ff ff ff	 jmp	 $LN3@DG_RecvBro
$LN20@DG_RecvBro:

; 946  : 
; 947  : #else
; 948  : 			strncpy(lpUser->Brotherhood,lpUser->Brotherhood,10);
; 949  : 			ExFireCracker(aIndex, lpUser->X, lpUser->Y);
; 950  : 			MessageChat(aIndex,"~[Brotherhood]: New: %s",lpUser->Brotherhood);
; 951  : #ifndef FIX_DS_CRASH
; 952  : 			GJSetCharacterInfo(lpUser, aIndex, 0);
; 953  : #endif
; 954  : 
; 955  : #endif
; 956  : 
; 957  : }

  0204b	5f		 pop	 edi
  0204c	5e		 pop	 esi
  0204d	5b		 pop	 ebx
  0204e	8b e5		 mov	 esp, ebp
  02050	5d		 pop	 ebp
  02051	c2 04 00	 ret	 4
?DG_RecvBrotherCount@Brotherhood@@QAEXPAUDG_CheckBrother@@@Z ENDP ; Brotherhood::DG_RecvBrotherCount
_TEXT	ENDS
END
