; Listing generated by Microsoft (R) Optimizing Compiler Version 16.00.40219.01 

	TITLE	D:\Projects\ExTeam6.3\Source\GameServer\GameServer\BufferSystem.cpp
	.686P
	.XMM
	include listing.inc
	.model	flat

INCLUDELIB LIBCMT
INCLUDELIB OLDNAMES

PUBLIC	?g_BufferSystem@@3VBufferSystem@@A		; g_BufferSystem
_BSS	SEGMENT
?g_BufferSystem@@3VBufferSystem@@A DB 074H DUP (?)	; g_BufferSystem
_BSS	ENDS
_DATA	SEGMENT
_g_iNpcUpDfLevel_CGATE DD 01H
	DD	02H
	DD	02dc6c0H
	DD	02H
	DD	03H
	DD	02dc6c0H
	DD	03H
	DD	04H
	DD	02dc6c0H
_g_iNpcUpDfLevel_CSTATUE DD 01H
	DD	03H
	DD	02dc6c0H
	DD	02H
	DD	05H
	DD	02dc6c0H
	DD	03H
	DD	07H
	DD	02dc6c0H
_g_iNpcUpMaxHP_CGATE DD 02625a0H
	DD	02H
	DD	0f4240H
	DD	03567e0H
	DD	03H
	DD	0f4240H
	DD	04f5880H
	DD	04H
	DD	0f4240H
_g_iNpcUpMaxHP_CSTATUE DD 02191c0H
	DD	03H
	DD	0f4240H
	DD	033e140H
	DD	05H
	DD	0f4240H
	DD	04c4b40H
	DD	07H
	DD	0f4240H
_g_iNpcUpRgLevel_CSTATUE DD 01H
	DD	03H
	DD	04c4b40H
	DD	02H
	DD	05H
	DD	04c4b40H
	DD	03H
	DD	07H
	DD	04c4b40H
_g_iCsUserReSpawnArea DD 023H
	DD	011H
	DD	090H
	DD	030H
	DD	04aH
	DD	090H
	DD	073H
	DD	09aH
	DD	023H
	DD	011H
	DD	090H
	DD	030H
_g_iNpcDefense_CGATE DD 064H
	DD	0b4H
	DD	012cH
	DD	0208H
_g_iNpcDefense_CSTATUE DD 050H
	DD	0b4H
	DD	0154H
	DD	0226H
_g_iCastleWallStepAxisY DD 071H
	DD	0a0H
	DD	0cbH
_DATA	ENDS
PUBLIC	??_H@YGXPAXIHP6EPAX0@Z@Z			; `vector constructor iterator'
; Function compile flags: /Odtp /ZI
;	COMDAT ??_H@YGXPAXIHP6EPAX0@Z@Z
_TEXT	SEGMENT
___t$ = 8						; size = 4
___s$ = 12						; size = 4
___n$ = 16						; size = 4
___f$ = 20						; size = 4
??_H@YGXPAXIHP6EPAX0@Z@Z PROC				; `vector constructor iterator', COMDAT
  00000	55		 push	 ebp
  00001	8b ec		 mov	 ebp, esp
  00003	83 ec 40	 sub	 esp, 64			; 00000040H
  00006	53		 push	 ebx
  00007	56		 push	 esi
  00008	57		 push	 edi
$LN2@vector:
  00009	8b 45 10	 mov	 eax, DWORD PTR ___n$[ebp]
  0000c	83 e8 01	 sub	 eax, 1
  0000f	89 45 10	 mov	 DWORD PTR ___n$[ebp], eax
  00012	78 11		 js	 SHORT $LN3@vector
  00014	8b 4d 08	 mov	 ecx, DWORD PTR ___t$[ebp]
  00017	ff 55 14	 call	 DWORD PTR ___f$[ebp]
  0001a	8b 45 08	 mov	 eax, DWORD PTR ___t$[ebp]
  0001d	03 45 0c	 add	 eax, DWORD PTR ___s$[ebp]
  00020	89 45 08	 mov	 DWORD PTR ___t$[ebp], eax
  00023	eb e4		 jmp	 SHORT $LN2@vector
$LN3@vector:
  00025	5f		 pop	 edi
  00026	5e		 pop	 esi
  00027	5b		 pop	 ebx
  00028	8b e5		 mov	 esp, ebp
  0002a	5d		 pop	 ebp
  0002b	c2 10 00	 ret	 16			; 00000010H
??_H@YGXPAXIHP6EPAX0@Z@Z ENDP				; `vector constructor iterator'
_TEXT	ENDS
PUBLIC	?Init@BufferSystem@@QAEXXZ			; BufferSystem::Init
; Function compile flags: /Odtp /ZI
; File d:\projects\exteam6.3\source\gameserver\gameserver\buffersystem.cpp
_TEXT	SEGMENT
_this$ = -4						; size = 4
?Init@BufferSystem@@QAEXXZ PROC				; BufferSystem::Init
; _this$ = ecx

; 20   : {

  00000	55		 push	 ebp
  00001	8b ec		 mov	 ebp, esp
  00003	83 ec 44	 sub	 esp, 68			; 00000044H
  00006	53		 push	 ebx
  00007	56		 push	 esi
  00008	57		 push	 edi
  00009	89 4d fc	 mov	 DWORD PTR _this$[ebp], ecx

; 21   : 	this->Enable = false;

  0000c	8b 45 fc	 mov	 eax, DWORD PTR _this$[ebp]
  0000f	c6 00 00	 mov	 BYTE PTR [eax], 0

; 22   : 	this->NPC_Class = 0;

  00012	8b 45 fc	 mov	 eax, DWORD PTR _this$[ebp]
  00015	c7 40 04 00 00
	00 00		 mov	 DWORD PTR [eax+4], 0

; 23   : 	this->NPC_Map = 0;

  0001c	8b 45 fc	 mov	 eax, DWORD PTR _this$[ebp]
  0001f	c7 40 08 00 00
	00 00		 mov	 DWORD PTR [eax+8], 0

; 24   : 	this->NPC_X = 0;

  00026	8b 45 fc	 mov	 eax, DWORD PTR _this$[ebp]
  00029	c7 40 0c 00 00
	00 00		 mov	 DWORD PTR [eax+12], 0

; 25   : 	this->NPC_Y = 0;

  00030	8b 45 fc	 mov	 eax, DWORD PTR _this$[ebp]
  00033	c7 40 10 00 00
	00 00		 mov	 DWORD PTR [eax+16], 0

; 26   : 
; 27   : 	this->Buff1_ZenMoney = 0;

  0003a	8b 45 fc	 mov	 eax, DWORD PTR _this$[ebp]
  0003d	c7 40 14 00 00
	00 00		 mov	 DWORD PTR [eax+20], 0

; 28   : 	this->Buff1_JewelOfBless = 0;

  00044	8b 45 fc	 mov	 eax, DWORD PTR _this$[ebp]
  00047	c7 40 18 00 00
	00 00		 mov	 DWORD PTR [eax+24], 0

; 29   : 	this->Buff1_JewelOfSoul = 0;

  0004e	8b 45 fc	 mov	 eax, DWORD PTR _this$[ebp]
  00051	c7 40 1c 00 00
	00 00		 mov	 DWORD PTR [eax+28], 0

; 30   : 	this->Buff1_Bonus = 0;

  00058	8b 45 fc	 mov	 eax, DWORD PTR _this$[ebp]
  0005b	c7 40 20 00 00
	00 00		 mov	 DWORD PTR [eax+32], 0

; 31   : 
; 32   : 	this->Buff2_ZenMoney = 0;

  00062	8b 45 fc	 mov	 eax, DWORD PTR _this$[ebp]
  00065	c7 40 24 00 00
	00 00		 mov	 DWORD PTR [eax+36], 0

; 33   : 	this->Buff2_JewelOfBless = 0;

  0006c	8b 45 fc	 mov	 eax, DWORD PTR _this$[ebp]
  0006f	c7 40 28 00 00
	00 00		 mov	 DWORD PTR [eax+40], 0

; 34   : 	this->Buff2_JewelOfSoul = 0;

  00076	8b 45 fc	 mov	 eax, DWORD PTR _this$[ebp]
  00079	c7 40 2c 00 00
	00 00		 mov	 DWORD PTR [eax+44], 0

; 35   : 	this->Buff2_Bonus = 0;

  00080	8b 45 fc	 mov	 eax, DWORD PTR _this$[ebp]
  00083	c7 40 30 00 00
	00 00		 mov	 DWORD PTR [eax+48], 0

; 36   : 
; 37   : 	this->Buff3_ZenMoney = 0;

  0008a	8b 45 fc	 mov	 eax, DWORD PTR _this$[ebp]
  0008d	c7 40 34 00 00
	00 00		 mov	 DWORD PTR [eax+52], 0

; 38   : 	this->Buff3_JewelOfBless = 0;

  00094	8b 45 fc	 mov	 eax, DWORD PTR _this$[ebp]
  00097	c7 40 38 00 00
	00 00		 mov	 DWORD PTR [eax+56], 0

; 39   : 	this->Buff3_JewelOfSoul = 0;

  0009e	8b 45 fc	 mov	 eax, DWORD PTR _this$[ebp]
  000a1	c7 40 3c 00 00
	00 00		 mov	 DWORD PTR [eax+60], 0

; 40   : 	this->Buff3_Bonus = 0;

  000a8	8b 45 fc	 mov	 eax, DWORD PTR _this$[ebp]
  000ab	c7 40 40 00 00
	00 00		 mov	 DWORD PTR [eax+64], 0

; 41   : 
; 42   : 	this->Buff4_ZenMoney = 0;

  000b2	8b 45 fc	 mov	 eax, DWORD PTR _this$[ebp]
  000b5	c7 40 44 00 00
	00 00		 mov	 DWORD PTR [eax+68], 0

; 43   : 	this->Buff4_JewelOfBless = 0;

  000bc	8b 45 fc	 mov	 eax, DWORD PTR _this$[ebp]
  000bf	c7 40 48 00 00
	00 00		 mov	 DWORD PTR [eax+72], 0

; 44   : 	this->Buff4_JewelOfSoul = 0;

  000c6	8b 45 fc	 mov	 eax, DWORD PTR _this$[ebp]
  000c9	c7 40 4c 00 00
	00 00		 mov	 DWORD PTR [eax+76], 0

; 45   : 	this->Buff4_Bonus = 0;

  000d0	8b 45 fc	 mov	 eax, DWORD PTR _this$[ebp]
  000d3	c7 40 50 00 00
	00 00		 mov	 DWORD PTR [eax+80], 0

; 46   : 
; 47   : 	this->Buff5_ZenMoney = 0;

  000da	8b 45 fc	 mov	 eax, DWORD PTR _this$[ebp]
  000dd	c7 40 54 00 00
	00 00		 mov	 DWORD PTR [eax+84], 0

; 48   : 	this->Buff5_JewelOfBless = 0;

  000e4	8b 45 fc	 mov	 eax, DWORD PTR _this$[ebp]
  000e7	c7 40 58 00 00
	00 00		 mov	 DWORD PTR [eax+88], 0

; 49   : 	this->Buff5_JewelOfSoul = 0;

  000ee	8b 45 fc	 mov	 eax, DWORD PTR _this$[ebp]
  000f1	c7 40 5c 00 00
	00 00		 mov	 DWORD PTR [eax+92], 0

; 50   : 	this->Buff5_Bonus = 0;

  000f8	8b 45 fc	 mov	 eax, DWORD PTR _this$[ebp]
  000fb	c7 40 60 00 00
	00 00		 mov	 DWORD PTR [eax+96], 0

; 51   : 
; 52   : 	this->Buff6_ZenMoney = 0;

  00102	8b 45 fc	 mov	 eax, DWORD PTR _this$[ebp]
  00105	c7 40 64 00 00
	00 00		 mov	 DWORD PTR [eax+100], 0

; 53   : 	this->Buff6_JewelOfBless = 0;

  0010c	8b 45 fc	 mov	 eax, DWORD PTR _this$[ebp]
  0010f	c7 40 68 00 00
	00 00		 mov	 DWORD PTR [eax+104], 0

; 54   : 	this->Buff6_JewelOfSoul = 0;

  00116	8b 45 fc	 mov	 eax, DWORD PTR _this$[ebp]
  00119	c7 40 6c 00 00
	00 00		 mov	 DWORD PTR [eax+108], 0

; 55   : 	this->Buff6_Bonus = 0;

  00120	8b 45 fc	 mov	 eax, DWORD PTR _this$[ebp]
  00123	c7 40 70 00 00
	00 00		 mov	 DWORD PTR [eax+112], 0

; 56   : }

  0012a	5f		 pop	 edi
  0012b	5e		 pop	 esi
  0012c	5b		 pop	 ebx
  0012d	8b e5		 mov	 esp, ebp
  0012f	5d		 pop	 ebp
  00130	c3		 ret	 0
?Init@BufferSystem@@QAEXXZ ENDP				; BufferSystem::Init
_TEXT	ENDS
PUBLIC	?Read@BufferSystem@@QAEXPAD@Z			; BufferSystem::Read
PUBLIC	??_C@_0BI@BOFONKA@ExData?2BufferSystem?4ini?$AA@ ; `string'
PUBLIC	?Load@BufferSystem@@QAEXXZ			; BufferSystem::Load
EXTRN	?GetNewPath@CDirPath@@QAEPADPAD@Z:PROC		; CDirPath::GetNewPath
EXTRN	?gDirPath@@3VCDirPath@@A:BYTE			; gDirPath
EXTRN	?g_ExLicense@@3VCExLicense@@A:BYTE		; g_ExLicense
;	COMDAT ??_C@_0BI@BOFONKA@ExData?2BufferSystem?4ini?$AA@
CONST	SEGMENT
??_C@_0BI@BOFONKA@ExData?2BufferSystem?4ini?$AA@ DB 'ExData\BufferSystem.'
	DB	'ini', 00H					; `string'
; Function compile flags: /Odtp /ZI
CONST	ENDS
_TEXT	SEGMENT
_this$ = -4						; size = 4
?Load@BufferSystem@@QAEXXZ PROC				; BufferSystem::Load
; _this$ = ecx

; 60   : {

  00140	55		 push	 ebp
  00141	8b ec		 mov	 ebp, esp
  00143	83 ec 44	 sub	 esp, 68			; 00000044H
  00146	53		 push	 ebx
  00147	56		 push	 esi
  00148	57		 push	 edi
  00149	89 4d fc	 mov	 DWORD PTR _this$[ebp], ecx

; 61   : 	this->Init();

  0014c	8b 4d fc	 mov	 ecx, DWORD PTR _this$[ebp]
  0014f	e8 00 00 00 00	 call	 ?Init@BufferSystem@@QAEXXZ ; BufferSystem::Init

; 62   : 	if(!g_ExLicense.user.NpcBuffer)

  00154	0f b6 05 d9 00
	00 00		 movzx	 eax, BYTE PTR ?g_ExLicense@@3VCExLicense@@A+217
  0015b	85 c0		 test	 eax, eax
  0015d	75 02		 jne	 SHORT $LN1@Load

; 63   : 	{
; 64   : 		return;

  0015f	eb 18		 jmp	 SHORT $LN2@Load
$LN1@Load:

; 65   : 	}
; 66   : 	this->Read(gDirPath.GetNewPath("ExData\\BufferSystem.ini"));

  00161	68 00 00 00 00	 push	 OFFSET ??_C@_0BI@BOFONKA@ExData?2BufferSystem?4ini?$AA@
  00166	b9 00 00 00 00	 mov	 ecx, OFFSET ?gDirPath@@3VCDirPath@@A ; gDirPath
  0016b	e8 00 00 00 00	 call	 ?GetNewPath@CDirPath@@QAEPADPAD@Z ; CDirPath::GetNewPath
  00170	50		 push	 eax
  00171	8b 4d fc	 mov	 ecx, DWORD PTR _this$[ebp]
  00174	e8 00 00 00 00	 call	 ?Read@BufferSystem@@QAEXPAD@Z ; BufferSystem::Read
$LN2@Load:

; 67   : }

  00179	5f		 pop	 edi
  0017a	5e		 pop	 esi
  0017b	5b		 pop	 ebx
  0017c	8b e5		 mov	 esp, ebp
  0017e	5d		 pop	 ebp
  0017f	c3		 ret	 0
?Load@BufferSystem@@QAEXXZ ENDP				; BufferSystem::Load
_TEXT	ENDS
PUBLIC	??_C@_0M@GGJLOKLG@Buff6_Bonus?$AA@		; `string'
PUBLIC	??_C@_0BC@FFMFCOAG@Buff6_JewelOfSoul?$AA@	; `string'
PUBLIC	??_C@_0BD@CFGNFCBC@Buff6_JewelOfBless?$AA@	; `string'
PUBLIC	??_C@_0P@KCGGJLMI@Buff6_ZenMoney?$AA@		; `string'
PUBLIC	??_C@_0M@OIBEONFF@Buff5_Bonus?$AA@		; `string'
PUBLIC	??_C@_0BC@CJKEALNN@Buff5_JewelOfSoul?$AA@	; `string'
PUBLIC	??_C@_0BD@DEBADIGL@Buff5_JewelOfBless?$AA@	; `string'
PUBLIC	??_C@_0P@DLIEPNMJ@Buff5_ZenMoney?$AA@		; `string'
PUBLIC	??_C@_0M@CELOONML@Buff4_Bonus?$AA@		; `string'
PUBLIC	??_C@_0BC@LEKLOKKL@Buff4_JewelOfSoul?$AA@	; `string'
PUBLIC	??_C@_0BD@INOLODID@Buff4_JewelOfBless?$AA@	; `string'
PUBLIC	??_C@_0P@PKAKCCAJ@Buff4_ZenMoney?$AA@		; `string'
PUBLIC	??_C@_0M@COHLOENC@Buff3_Bonus?$AA@		; `string'
PUBLIC	??_C@_0BC@NBGGEAGL@Buff3_JewelOfSoul?$AA@	; `string'
PUBLIC	??_C@_0BD@BGOKOMJJ@Buff3_JewelOfBless?$AA@	; `string'
PUBLIC	??_C@_0P@NDDBDHIK@Buff3_ZenMoney?$AA@		; `string'
PUBLIC	??_C@_0M@OCNBOEEM@Buff2_Bonus?$AA@		; `string'
PUBLIC	??_C@_0BC@EMGJKBBN@Buff2_JewelOfSoul?$AA@	; `string'
PUBLIC	??_C@_0BD@KPBBDHHB@Buff2_JewelOfBless?$AA@	; `string'
PUBLIC	??_C@_0P@BCLPOIEK@Buff2_ZenMoney?$AA@		; `string'
PUBLIC	??_C@_0M@GMFOODKP@Buff1_Bonus?$AA@		; `string'
PUBLIC	??_C@_0BC@DAAIIEMG@Buff1_JewelOfSoul?$AA@	; `string'
PUBLIC	??_C@_0BD@LOGMFNAI@Buff1_JewelOfBless?$AA@	; `string'
PUBLIC	??_C@_0P@ILFNIOEL@Buff1_ZenMoney?$AA@		; `string'
PUBLIC	??_C@_05MGEEICMI@NPC_Y?$AA@			; `string'
PUBLIC	??_C@_05NPFPLDIJ@NPC_X?$AA@			; `string'
PUBLIC	??_C@_07LJMEGBCH@NPC_Map?$AA@			; `string'
PUBLIC	??_C@_09JIOKDDGI@NPC_Class?$AA@			; `string'
PUBLIC	??_C@_06MLPMCPDE@ExTeam?$AA@			; `string'
PUBLIC	??_C@_06CKGENIKG@Enable?$AA@			; `string'
EXTRN	__imp__GetPrivateProfileIntA@16:PROC
;	COMDAT ??_C@_0M@GGJLOKLG@Buff6_Bonus?$AA@
CONST	SEGMENT
??_C@_0M@GGJLOKLG@Buff6_Bonus?$AA@ DB 'Buff6_Bonus', 00H ; `string'
CONST	ENDS
;	COMDAT ??_C@_0BC@FFMFCOAG@Buff6_JewelOfSoul?$AA@
CONST	SEGMENT
??_C@_0BC@FFMFCOAG@Buff6_JewelOfSoul?$AA@ DB 'Buff6_JewelOfSoul', 00H ; `string'
CONST	ENDS
;	COMDAT ??_C@_0BD@CFGNFCBC@Buff6_JewelOfBless?$AA@
CONST	SEGMENT
??_C@_0BD@CFGNFCBC@Buff6_JewelOfBless?$AA@ DB 'Buff6_JewelOfBless', 00H ; `string'
CONST	ENDS
;	COMDAT ??_C@_0P@KCGGJLMI@Buff6_ZenMoney?$AA@
CONST	SEGMENT
??_C@_0P@KCGGJLMI@Buff6_ZenMoney?$AA@ DB 'Buff6_ZenMoney', 00H ; `string'
CONST	ENDS
;	COMDAT ??_C@_0M@OIBEONFF@Buff5_Bonus?$AA@
CONST	SEGMENT
??_C@_0M@OIBEONFF@Buff5_Bonus?$AA@ DB 'Buff5_Bonus', 00H ; `string'
CONST	ENDS
;	COMDAT ??_C@_0BC@CJKEALNN@Buff5_JewelOfSoul?$AA@
CONST	SEGMENT
??_C@_0BC@CJKEALNN@Buff5_JewelOfSoul?$AA@ DB 'Buff5_JewelOfSoul', 00H ; `string'
CONST	ENDS
;	COMDAT ??_C@_0BD@DEBADIGL@Buff5_JewelOfBless?$AA@
CONST	SEGMENT
??_C@_0BD@DEBADIGL@Buff5_JewelOfBless?$AA@ DB 'Buff5_JewelOfBless', 00H ; `string'
CONST	ENDS
;	COMDAT ??_C@_0P@DLIEPNMJ@Buff5_ZenMoney?$AA@
CONST	SEGMENT
??_C@_0P@DLIEPNMJ@Buff5_ZenMoney?$AA@ DB 'Buff5_ZenMoney', 00H ; `string'
CONST	ENDS
;	COMDAT ??_C@_0M@CELOONML@Buff4_Bonus?$AA@
CONST	SEGMENT
??_C@_0M@CELOONML@Buff4_Bonus?$AA@ DB 'Buff4_Bonus', 00H ; `string'
CONST	ENDS
;	COMDAT ??_C@_0BC@LEKLOKKL@Buff4_JewelOfSoul?$AA@
CONST	SEGMENT
??_C@_0BC@LEKLOKKL@Buff4_JewelOfSoul?$AA@ DB 'Buff4_JewelOfSoul', 00H ; `string'
CONST	ENDS
;	COMDAT ??_C@_0BD@INOLODID@Buff4_JewelOfBless?$AA@
CONST	SEGMENT
??_C@_0BD@INOLODID@Buff4_JewelOfBless?$AA@ DB 'Buff4_JewelOfBless', 00H ; `string'
CONST	ENDS
;	COMDAT ??_C@_0P@PKAKCCAJ@Buff4_ZenMoney?$AA@
CONST	SEGMENT
??_C@_0P@PKAKCCAJ@Buff4_ZenMoney?$AA@ DB 'Buff4_ZenMoney', 00H ; `string'
CONST	ENDS
;	COMDAT ??_C@_0M@COHLOENC@Buff3_Bonus?$AA@
CONST	SEGMENT
??_C@_0M@COHLOENC@Buff3_Bonus?$AA@ DB 'Buff3_Bonus', 00H ; `string'
CONST	ENDS
;	COMDAT ??_C@_0BC@NBGGEAGL@Buff3_JewelOfSoul?$AA@
CONST	SEGMENT
??_C@_0BC@NBGGEAGL@Buff3_JewelOfSoul?$AA@ DB 'Buff3_JewelOfSoul', 00H ; `string'
CONST	ENDS
;	COMDAT ??_C@_0BD@BGOKOMJJ@Buff3_JewelOfBless?$AA@
CONST	SEGMENT
??_C@_0BD@BGOKOMJJ@Buff3_JewelOfBless?$AA@ DB 'Buff3_JewelOfBless', 00H ; `string'
CONST	ENDS
;	COMDAT ??_C@_0P@NDDBDHIK@Buff3_ZenMoney?$AA@
CONST	SEGMENT
??_C@_0P@NDDBDHIK@Buff3_ZenMoney?$AA@ DB 'Buff3_ZenMoney', 00H ; `string'
CONST	ENDS
;	COMDAT ??_C@_0M@OCNBOEEM@Buff2_Bonus?$AA@
CONST	SEGMENT
??_C@_0M@OCNBOEEM@Buff2_Bonus?$AA@ DB 'Buff2_Bonus', 00H ; `string'
CONST	ENDS
;	COMDAT ??_C@_0BC@EMGJKBBN@Buff2_JewelOfSoul?$AA@
CONST	SEGMENT
??_C@_0BC@EMGJKBBN@Buff2_JewelOfSoul?$AA@ DB 'Buff2_JewelOfSoul', 00H ; `string'
CONST	ENDS
;	COMDAT ??_C@_0BD@KPBBDHHB@Buff2_JewelOfBless?$AA@
CONST	SEGMENT
??_C@_0BD@KPBBDHHB@Buff2_JewelOfBless?$AA@ DB 'Buff2_JewelOfBless', 00H ; `string'
CONST	ENDS
;	COMDAT ??_C@_0P@BCLPOIEK@Buff2_ZenMoney?$AA@
CONST	SEGMENT
??_C@_0P@BCLPOIEK@Buff2_ZenMoney?$AA@ DB 'Buff2_ZenMoney', 00H ; `string'
CONST	ENDS
;	COMDAT ??_C@_0M@GMFOODKP@Buff1_Bonus?$AA@
CONST	SEGMENT
??_C@_0M@GMFOODKP@Buff1_Bonus?$AA@ DB 'Buff1_Bonus', 00H ; `string'
CONST	ENDS
;	COMDAT ??_C@_0BC@DAAIIEMG@Buff1_JewelOfSoul?$AA@
CONST	SEGMENT
??_C@_0BC@DAAIIEMG@Buff1_JewelOfSoul?$AA@ DB 'Buff1_JewelOfSoul', 00H ; `string'
CONST	ENDS
;	COMDAT ??_C@_0BD@LOGMFNAI@Buff1_JewelOfBless?$AA@
CONST	SEGMENT
??_C@_0BD@LOGMFNAI@Buff1_JewelOfBless?$AA@ DB 'Buff1_JewelOfBless', 00H ; `string'
CONST	ENDS
;	COMDAT ??_C@_0P@ILFNIOEL@Buff1_ZenMoney?$AA@
CONST	SEGMENT
??_C@_0P@ILFNIOEL@Buff1_ZenMoney?$AA@ DB 'Buff1_ZenMoney', 00H ; `string'
CONST	ENDS
;	COMDAT ??_C@_05MGEEICMI@NPC_Y?$AA@
CONST	SEGMENT
??_C@_05MGEEICMI@NPC_Y?$AA@ DB 'NPC_Y', 00H		; `string'
CONST	ENDS
;	COMDAT ??_C@_05NPFPLDIJ@NPC_X?$AA@
CONST	SEGMENT
??_C@_05NPFPLDIJ@NPC_X?$AA@ DB 'NPC_X', 00H		; `string'
CONST	ENDS
;	COMDAT ??_C@_07LJMEGBCH@NPC_Map?$AA@
CONST	SEGMENT
??_C@_07LJMEGBCH@NPC_Map?$AA@ DB 'NPC_Map', 00H		; `string'
CONST	ENDS
;	COMDAT ??_C@_09JIOKDDGI@NPC_Class?$AA@
CONST	SEGMENT
??_C@_09JIOKDDGI@NPC_Class?$AA@ DB 'NPC_Class', 00H	; `string'
CONST	ENDS
;	COMDAT ??_C@_06MLPMCPDE@ExTeam?$AA@
CONST	SEGMENT
??_C@_06MLPMCPDE@ExTeam?$AA@ DB 'ExTeam', 00H		; `string'
CONST	ENDS
;	COMDAT ??_C@_06CKGENIKG@Enable?$AA@
CONST	SEGMENT
??_C@_06CKGENIKG@Enable?$AA@ DB 'Enable', 00H		; `string'
; Function compile flags: /Odtp /ZI
CONST	ENDS
_TEXT	SEGMENT
_this$ = -4						; size = 4
_File$ = 8						; size = 4
?Read@BufferSystem@@QAEXPAD@Z PROC			; BufferSystem::Read
; _this$ = ecx

; 71   : {

  00180	55		 push	 ebp
  00181	8b ec		 mov	 ebp, esp
  00183	83 ec 44	 sub	 esp, 68			; 00000044H
  00186	53		 push	 ebx
  00187	56		 push	 esi
  00188	57		 push	 edi
  00189	89 4d fc	 mov	 DWORD PTR _this$[ebp], ecx

; 72   : 	this->Enable = GetPrivateProfileInt("ExTeam", "Enable", 0, File);

  0018c	8b 45 08	 mov	 eax, DWORD PTR _File$[ebp]
  0018f	50		 push	 eax
  00190	6a 00		 push	 0
  00192	68 00 00 00 00	 push	 OFFSET ??_C@_06CKGENIKG@Enable?$AA@
  00197	68 00 00 00 00	 push	 OFFSET ??_C@_06MLPMCPDE@ExTeam?$AA@
  0019c	ff 15 00 00 00
	00		 call	 DWORD PTR __imp__GetPrivateProfileIntA@16
  001a2	85 c0		 test	 eax, eax
  001a4	0f 95 c1	 setne	 cl
  001a7	8b 55 fc	 mov	 edx, DWORD PTR _this$[ebp]
  001aa	88 0a		 mov	 BYTE PTR [edx], cl

; 73   : 	this->NPC_Class = GetPrivateProfileInt("ExTeam", "NPC_Class", 0, File);

  001ac	8b 45 08	 mov	 eax, DWORD PTR _File$[ebp]
  001af	50		 push	 eax
  001b0	6a 00		 push	 0
  001b2	68 00 00 00 00	 push	 OFFSET ??_C@_09JIOKDDGI@NPC_Class?$AA@
  001b7	68 00 00 00 00	 push	 OFFSET ??_C@_06MLPMCPDE@ExTeam?$AA@
  001bc	ff 15 00 00 00
	00		 call	 DWORD PTR __imp__GetPrivateProfileIntA@16
  001c2	8b 4d fc	 mov	 ecx, DWORD PTR _this$[ebp]
  001c5	89 41 04	 mov	 DWORD PTR [ecx+4], eax

; 74   : 	this->NPC_Map = GetPrivateProfileInt("ExTeam", "NPC_Map", 0, File);

  001c8	8b 45 08	 mov	 eax, DWORD PTR _File$[ebp]
  001cb	50		 push	 eax
  001cc	6a 00		 push	 0
  001ce	68 00 00 00 00	 push	 OFFSET ??_C@_07LJMEGBCH@NPC_Map?$AA@
  001d3	68 00 00 00 00	 push	 OFFSET ??_C@_06MLPMCPDE@ExTeam?$AA@
  001d8	ff 15 00 00 00
	00		 call	 DWORD PTR __imp__GetPrivateProfileIntA@16
  001de	8b 4d fc	 mov	 ecx, DWORD PTR _this$[ebp]
  001e1	89 41 08	 mov	 DWORD PTR [ecx+8], eax

; 75   : 	this->NPC_X = GetPrivateProfileInt("ExTeam", "NPC_X", 0, File);

  001e4	8b 45 08	 mov	 eax, DWORD PTR _File$[ebp]
  001e7	50		 push	 eax
  001e8	6a 00		 push	 0
  001ea	68 00 00 00 00	 push	 OFFSET ??_C@_05NPFPLDIJ@NPC_X?$AA@
  001ef	68 00 00 00 00	 push	 OFFSET ??_C@_06MLPMCPDE@ExTeam?$AA@
  001f4	ff 15 00 00 00
	00		 call	 DWORD PTR __imp__GetPrivateProfileIntA@16
  001fa	8b 4d fc	 mov	 ecx, DWORD PTR _this$[ebp]
  001fd	89 41 0c	 mov	 DWORD PTR [ecx+12], eax

; 76   : 	this->NPC_Y = GetPrivateProfileInt("ExTeam", "NPC_Y", 0, File);

  00200	8b 45 08	 mov	 eax, DWORD PTR _File$[ebp]
  00203	50		 push	 eax
  00204	6a 00		 push	 0
  00206	68 00 00 00 00	 push	 OFFSET ??_C@_05MGEEICMI@NPC_Y?$AA@
  0020b	68 00 00 00 00	 push	 OFFSET ??_C@_06MLPMCPDE@ExTeam?$AA@
  00210	ff 15 00 00 00
	00		 call	 DWORD PTR __imp__GetPrivateProfileIntA@16
  00216	8b 4d fc	 mov	 ecx, DWORD PTR _this$[ebp]
  00219	89 41 10	 mov	 DWORD PTR [ecx+16], eax

; 77   : 
; 78   : 	this->Buff1_ZenMoney = GetPrivateProfileInt("ExTeam", "Buff1_ZenMoney", 0, File);

  0021c	8b 45 08	 mov	 eax, DWORD PTR _File$[ebp]
  0021f	50		 push	 eax
  00220	6a 00		 push	 0
  00222	68 00 00 00 00	 push	 OFFSET ??_C@_0P@ILFNIOEL@Buff1_ZenMoney?$AA@
  00227	68 00 00 00 00	 push	 OFFSET ??_C@_06MLPMCPDE@ExTeam?$AA@
  0022c	ff 15 00 00 00
	00		 call	 DWORD PTR __imp__GetPrivateProfileIntA@16
  00232	8b 4d fc	 mov	 ecx, DWORD PTR _this$[ebp]
  00235	89 41 14	 mov	 DWORD PTR [ecx+20], eax

; 79   : 	this->Buff1_JewelOfBless = GetPrivateProfileInt("ExTeam", "Buff1_JewelOfBless", 0, File);

  00238	8b 45 08	 mov	 eax, DWORD PTR _File$[ebp]
  0023b	50		 push	 eax
  0023c	6a 00		 push	 0
  0023e	68 00 00 00 00	 push	 OFFSET ??_C@_0BD@LOGMFNAI@Buff1_JewelOfBless?$AA@
  00243	68 00 00 00 00	 push	 OFFSET ??_C@_06MLPMCPDE@ExTeam?$AA@
  00248	ff 15 00 00 00
	00		 call	 DWORD PTR __imp__GetPrivateProfileIntA@16
  0024e	8b 4d fc	 mov	 ecx, DWORD PTR _this$[ebp]
  00251	89 41 18	 mov	 DWORD PTR [ecx+24], eax

; 80   : 	this->Buff1_JewelOfSoul = GetPrivateProfileInt("ExTeam", "Buff1_JewelOfSoul", 0, File);

  00254	8b 45 08	 mov	 eax, DWORD PTR _File$[ebp]
  00257	50		 push	 eax
  00258	6a 00		 push	 0
  0025a	68 00 00 00 00	 push	 OFFSET ??_C@_0BC@DAAIIEMG@Buff1_JewelOfSoul?$AA@
  0025f	68 00 00 00 00	 push	 OFFSET ??_C@_06MLPMCPDE@ExTeam?$AA@
  00264	ff 15 00 00 00
	00		 call	 DWORD PTR __imp__GetPrivateProfileIntA@16
  0026a	8b 4d fc	 mov	 ecx, DWORD PTR _this$[ebp]
  0026d	89 41 1c	 mov	 DWORD PTR [ecx+28], eax

; 81   : 	this->Buff1_Bonus = GetPrivateProfileInt("ExTeam", "Buff1_Bonus", 0, File);

  00270	8b 45 08	 mov	 eax, DWORD PTR _File$[ebp]
  00273	50		 push	 eax
  00274	6a 00		 push	 0
  00276	68 00 00 00 00	 push	 OFFSET ??_C@_0M@GMFOODKP@Buff1_Bonus?$AA@
  0027b	68 00 00 00 00	 push	 OFFSET ??_C@_06MLPMCPDE@ExTeam?$AA@
  00280	ff 15 00 00 00
	00		 call	 DWORD PTR __imp__GetPrivateProfileIntA@16
  00286	8b 4d fc	 mov	 ecx, DWORD PTR _this$[ebp]
  00289	89 41 20	 mov	 DWORD PTR [ecx+32], eax

; 82   : 
; 83   : 	this->Buff2_ZenMoney = GetPrivateProfileInt("ExTeam", "Buff2_ZenMoney", 0, File);

  0028c	8b 45 08	 mov	 eax, DWORD PTR _File$[ebp]
  0028f	50		 push	 eax
  00290	6a 00		 push	 0
  00292	68 00 00 00 00	 push	 OFFSET ??_C@_0P@BCLPOIEK@Buff2_ZenMoney?$AA@
  00297	68 00 00 00 00	 push	 OFFSET ??_C@_06MLPMCPDE@ExTeam?$AA@
  0029c	ff 15 00 00 00
	00		 call	 DWORD PTR __imp__GetPrivateProfileIntA@16
  002a2	8b 4d fc	 mov	 ecx, DWORD PTR _this$[ebp]
  002a5	89 41 24	 mov	 DWORD PTR [ecx+36], eax

; 84   : 	this->Buff2_JewelOfBless = GetPrivateProfileInt("ExTeam", "Buff2_JewelOfBless", 0, File);

  002a8	8b 45 08	 mov	 eax, DWORD PTR _File$[ebp]
  002ab	50		 push	 eax
  002ac	6a 00		 push	 0
  002ae	68 00 00 00 00	 push	 OFFSET ??_C@_0BD@KPBBDHHB@Buff2_JewelOfBless?$AA@
  002b3	68 00 00 00 00	 push	 OFFSET ??_C@_06MLPMCPDE@ExTeam?$AA@
  002b8	ff 15 00 00 00
	00		 call	 DWORD PTR __imp__GetPrivateProfileIntA@16
  002be	8b 4d fc	 mov	 ecx, DWORD PTR _this$[ebp]
  002c1	89 41 28	 mov	 DWORD PTR [ecx+40], eax

; 85   : 	this->Buff2_JewelOfSoul = GetPrivateProfileInt("ExTeam", "Buff2_JewelOfSoul", 0, File);

  002c4	8b 45 08	 mov	 eax, DWORD PTR _File$[ebp]
  002c7	50		 push	 eax
  002c8	6a 00		 push	 0
  002ca	68 00 00 00 00	 push	 OFFSET ??_C@_0BC@EMGJKBBN@Buff2_JewelOfSoul?$AA@
  002cf	68 00 00 00 00	 push	 OFFSET ??_C@_06MLPMCPDE@ExTeam?$AA@
  002d4	ff 15 00 00 00
	00		 call	 DWORD PTR __imp__GetPrivateProfileIntA@16
  002da	8b 4d fc	 mov	 ecx, DWORD PTR _this$[ebp]
  002dd	89 41 2c	 mov	 DWORD PTR [ecx+44], eax

; 86   : 	this->Buff2_Bonus = GetPrivateProfileInt("ExTeam", "Buff2_Bonus", 0, File);

  002e0	8b 45 08	 mov	 eax, DWORD PTR _File$[ebp]
  002e3	50		 push	 eax
  002e4	6a 00		 push	 0
  002e6	68 00 00 00 00	 push	 OFFSET ??_C@_0M@OCNBOEEM@Buff2_Bonus?$AA@
  002eb	68 00 00 00 00	 push	 OFFSET ??_C@_06MLPMCPDE@ExTeam?$AA@
  002f0	ff 15 00 00 00
	00		 call	 DWORD PTR __imp__GetPrivateProfileIntA@16
  002f6	8b 4d fc	 mov	 ecx, DWORD PTR _this$[ebp]
  002f9	89 41 30	 mov	 DWORD PTR [ecx+48], eax

; 87   : 
; 88   : 	this->Buff3_ZenMoney = GetPrivateProfileInt("ExTeam", "Buff3_ZenMoney", 0, File);

  002fc	8b 45 08	 mov	 eax, DWORD PTR _File$[ebp]
  002ff	50		 push	 eax
  00300	6a 00		 push	 0
  00302	68 00 00 00 00	 push	 OFFSET ??_C@_0P@NDDBDHIK@Buff3_ZenMoney?$AA@
  00307	68 00 00 00 00	 push	 OFFSET ??_C@_06MLPMCPDE@ExTeam?$AA@
  0030c	ff 15 00 00 00
	00		 call	 DWORD PTR __imp__GetPrivateProfileIntA@16
  00312	8b 4d fc	 mov	 ecx, DWORD PTR _this$[ebp]
  00315	89 41 34	 mov	 DWORD PTR [ecx+52], eax

; 89   : 	this->Buff3_JewelOfBless = GetPrivateProfileInt("ExTeam", "Buff3_JewelOfBless", 0, File);

  00318	8b 45 08	 mov	 eax, DWORD PTR _File$[ebp]
  0031b	50		 push	 eax
  0031c	6a 00		 push	 0
  0031e	68 00 00 00 00	 push	 OFFSET ??_C@_0BD@BGOKOMJJ@Buff3_JewelOfBless?$AA@
  00323	68 00 00 00 00	 push	 OFFSET ??_C@_06MLPMCPDE@ExTeam?$AA@
  00328	ff 15 00 00 00
	00		 call	 DWORD PTR __imp__GetPrivateProfileIntA@16
  0032e	8b 4d fc	 mov	 ecx, DWORD PTR _this$[ebp]
  00331	89 41 38	 mov	 DWORD PTR [ecx+56], eax

; 90   : 	this->Buff3_JewelOfSoul = GetPrivateProfileInt("ExTeam", "Buff3_JewelOfSoul", 0, File);

  00334	8b 45 08	 mov	 eax, DWORD PTR _File$[ebp]
  00337	50		 push	 eax
  00338	6a 00		 push	 0
  0033a	68 00 00 00 00	 push	 OFFSET ??_C@_0BC@NBGGEAGL@Buff3_JewelOfSoul?$AA@
  0033f	68 00 00 00 00	 push	 OFFSET ??_C@_06MLPMCPDE@ExTeam?$AA@
  00344	ff 15 00 00 00
	00		 call	 DWORD PTR __imp__GetPrivateProfileIntA@16
  0034a	8b 4d fc	 mov	 ecx, DWORD PTR _this$[ebp]
  0034d	89 41 3c	 mov	 DWORD PTR [ecx+60], eax

; 91   : 	this->Buff3_Bonus = GetPrivateProfileInt("ExTeam", "Buff3_Bonus", 0, File);

  00350	8b 45 08	 mov	 eax, DWORD PTR _File$[ebp]
  00353	50		 push	 eax
  00354	6a 00		 push	 0
  00356	68 00 00 00 00	 push	 OFFSET ??_C@_0M@COHLOENC@Buff3_Bonus?$AA@
  0035b	68 00 00 00 00	 push	 OFFSET ??_C@_06MLPMCPDE@ExTeam?$AA@
  00360	ff 15 00 00 00
	00		 call	 DWORD PTR __imp__GetPrivateProfileIntA@16
  00366	8b 4d fc	 mov	 ecx, DWORD PTR _this$[ebp]
  00369	89 41 40	 mov	 DWORD PTR [ecx+64], eax

; 92   : 
; 93   : 	this->Buff4_ZenMoney = GetPrivateProfileInt("ExTeam", "Buff4_ZenMoney", 0, File);

  0036c	8b 45 08	 mov	 eax, DWORD PTR _File$[ebp]
  0036f	50		 push	 eax
  00370	6a 00		 push	 0
  00372	68 00 00 00 00	 push	 OFFSET ??_C@_0P@PKAKCCAJ@Buff4_ZenMoney?$AA@
  00377	68 00 00 00 00	 push	 OFFSET ??_C@_06MLPMCPDE@ExTeam?$AA@
  0037c	ff 15 00 00 00
	00		 call	 DWORD PTR __imp__GetPrivateProfileIntA@16
  00382	8b 4d fc	 mov	 ecx, DWORD PTR _this$[ebp]
  00385	89 41 44	 mov	 DWORD PTR [ecx+68], eax

; 94   : 	this->Buff4_JewelOfBless = GetPrivateProfileInt("ExTeam", "Buff4_JewelOfBless", 0, File);

  00388	8b 45 08	 mov	 eax, DWORD PTR _File$[ebp]
  0038b	50		 push	 eax
  0038c	6a 00		 push	 0
  0038e	68 00 00 00 00	 push	 OFFSET ??_C@_0BD@INOLODID@Buff4_JewelOfBless?$AA@
  00393	68 00 00 00 00	 push	 OFFSET ??_C@_06MLPMCPDE@ExTeam?$AA@
  00398	ff 15 00 00 00
	00		 call	 DWORD PTR __imp__GetPrivateProfileIntA@16
  0039e	8b 4d fc	 mov	 ecx, DWORD PTR _this$[ebp]
  003a1	89 41 48	 mov	 DWORD PTR [ecx+72], eax

; 95   : 	this->Buff4_JewelOfSoul = GetPrivateProfileInt("ExTeam", "Buff4_JewelOfSoul", 0, File);

  003a4	8b 45 08	 mov	 eax, DWORD PTR _File$[ebp]
  003a7	50		 push	 eax
  003a8	6a 00		 push	 0
  003aa	68 00 00 00 00	 push	 OFFSET ??_C@_0BC@LEKLOKKL@Buff4_JewelOfSoul?$AA@
  003af	68 00 00 00 00	 push	 OFFSET ??_C@_06MLPMCPDE@ExTeam?$AA@
  003b4	ff 15 00 00 00
	00		 call	 DWORD PTR __imp__GetPrivateProfileIntA@16
  003ba	8b 4d fc	 mov	 ecx, DWORD PTR _this$[ebp]
  003bd	89 41 4c	 mov	 DWORD PTR [ecx+76], eax

; 96   : 	this->Buff4_Bonus = GetPrivateProfileInt("ExTeam", "Buff4_Bonus", 0, File);

  003c0	8b 45 08	 mov	 eax, DWORD PTR _File$[ebp]
  003c3	50		 push	 eax
  003c4	6a 00		 push	 0
  003c6	68 00 00 00 00	 push	 OFFSET ??_C@_0M@CELOONML@Buff4_Bonus?$AA@
  003cb	68 00 00 00 00	 push	 OFFSET ??_C@_06MLPMCPDE@ExTeam?$AA@
  003d0	ff 15 00 00 00
	00		 call	 DWORD PTR __imp__GetPrivateProfileIntA@16
  003d6	8b 4d fc	 mov	 ecx, DWORD PTR _this$[ebp]
  003d9	89 41 50	 mov	 DWORD PTR [ecx+80], eax

; 97   : 
; 98   : 	this->Buff5_ZenMoney = GetPrivateProfileInt("ExTeam", "Buff5_ZenMoney", 0, File);

  003dc	8b 45 08	 mov	 eax, DWORD PTR _File$[ebp]
  003df	50		 push	 eax
  003e0	6a 00		 push	 0
  003e2	68 00 00 00 00	 push	 OFFSET ??_C@_0P@DLIEPNMJ@Buff5_ZenMoney?$AA@
  003e7	68 00 00 00 00	 push	 OFFSET ??_C@_06MLPMCPDE@ExTeam?$AA@
  003ec	ff 15 00 00 00
	00		 call	 DWORD PTR __imp__GetPrivateProfileIntA@16
  003f2	8b 4d fc	 mov	 ecx, DWORD PTR _this$[ebp]
  003f5	89 41 54	 mov	 DWORD PTR [ecx+84], eax

; 99   : 	this->Buff5_JewelOfBless = GetPrivateProfileInt("ExTeam", "Buff5_JewelOfBless", 0, File);

  003f8	8b 45 08	 mov	 eax, DWORD PTR _File$[ebp]
  003fb	50		 push	 eax
  003fc	6a 00		 push	 0
  003fe	68 00 00 00 00	 push	 OFFSET ??_C@_0BD@DEBADIGL@Buff5_JewelOfBless?$AA@
  00403	68 00 00 00 00	 push	 OFFSET ??_C@_06MLPMCPDE@ExTeam?$AA@
  00408	ff 15 00 00 00
	00		 call	 DWORD PTR __imp__GetPrivateProfileIntA@16
  0040e	8b 4d fc	 mov	 ecx, DWORD PTR _this$[ebp]
  00411	89 41 58	 mov	 DWORD PTR [ecx+88], eax

; 100  : 	this->Buff5_JewelOfSoul = GetPrivateProfileInt("ExTeam", "Buff5_JewelOfSoul", 0, File);

  00414	8b 45 08	 mov	 eax, DWORD PTR _File$[ebp]
  00417	50		 push	 eax
  00418	6a 00		 push	 0
  0041a	68 00 00 00 00	 push	 OFFSET ??_C@_0BC@CJKEALNN@Buff5_JewelOfSoul?$AA@
  0041f	68 00 00 00 00	 push	 OFFSET ??_C@_06MLPMCPDE@ExTeam?$AA@
  00424	ff 15 00 00 00
	00		 call	 DWORD PTR __imp__GetPrivateProfileIntA@16
  0042a	8b 4d fc	 mov	 ecx, DWORD PTR _this$[ebp]
  0042d	89 41 5c	 mov	 DWORD PTR [ecx+92], eax

; 101  : 	this->Buff5_Bonus = GetPrivateProfileInt("ExTeam", "Buff5_Bonus", 0, File);

  00430	8b 45 08	 mov	 eax, DWORD PTR _File$[ebp]
  00433	50		 push	 eax
  00434	6a 00		 push	 0
  00436	68 00 00 00 00	 push	 OFFSET ??_C@_0M@OIBEONFF@Buff5_Bonus?$AA@
  0043b	68 00 00 00 00	 push	 OFFSET ??_C@_06MLPMCPDE@ExTeam?$AA@
  00440	ff 15 00 00 00
	00		 call	 DWORD PTR __imp__GetPrivateProfileIntA@16
  00446	8b 4d fc	 mov	 ecx, DWORD PTR _this$[ebp]
  00449	89 41 60	 mov	 DWORD PTR [ecx+96], eax

; 102  : 
; 103  : 	this->Buff6_ZenMoney = GetPrivateProfileInt("ExTeam", "Buff6_ZenMoney", 0, File);

  0044c	8b 45 08	 mov	 eax, DWORD PTR _File$[ebp]
  0044f	50		 push	 eax
  00450	6a 00		 push	 0
  00452	68 00 00 00 00	 push	 OFFSET ??_C@_0P@KCGGJLMI@Buff6_ZenMoney?$AA@
  00457	68 00 00 00 00	 push	 OFFSET ??_C@_06MLPMCPDE@ExTeam?$AA@
  0045c	ff 15 00 00 00
	00		 call	 DWORD PTR __imp__GetPrivateProfileIntA@16
  00462	8b 4d fc	 mov	 ecx, DWORD PTR _this$[ebp]
  00465	89 41 64	 mov	 DWORD PTR [ecx+100], eax

; 104  : 	this->Buff6_JewelOfBless = GetPrivateProfileInt("ExTeam", "Buff6_JewelOfBless", 0, File);

  00468	8b 45 08	 mov	 eax, DWORD PTR _File$[ebp]
  0046b	50		 push	 eax
  0046c	6a 00		 push	 0
  0046e	68 00 00 00 00	 push	 OFFSET ??_C@_0BD@CFGNFCBC@Buff6_JewelOfBless?$AA@
  00473	68 00 00 00 00	 push	 OFFSET ??_C@_06MLPMCPDE@ExTeam?$AA@
  00478	ff 15 00 00 00
	00		 call	 DWORD PTR __imp__GetPrivateProfileIntA@16
  0047e	8b 4d fc	 mov	 ecx, DWORD PTR _this$[ebp]
  00481	89 41 68	 mov	 DWORD PTR [ecx+104], eax

; 105  : 	this->Buff6_JewelOfSoul = GetPrivateProfileInt("ExTeam", "Buff6_JewelOfSoul", 0, File);

  00484	8b 45 08	 mov	 eax, DWORD PTR _File$[ebp]
  00487	50		 push	 eax
  00488	6a 00		 push	 0
  0048a	68 00 00 00 00	 push	 OFFSET ??_C@_0BC@FFMFCOAG@Buff6_JewelOfSoul?$AA@
  0048f	68 00 00 00 00	 push	 OFFSET ??_C@_06MLPMCPDE@ExTeam?$AA@
  00494	ff 15 00 00 00
	00		 call	 DWORD PTR __imp__GetPrivateProfileIntA@16
  0049a	8b 4d fc	 mov	 ecx, DWORD PTR _this$[ebp]
  0049d	89 41 6c	 mov	 DWORD PTR [ecx+108], eax

; 106  : 	this->Buff6_Bonus = GetPrivateProfileInt("ExTeam", "Buff6_Bonus", 0, File);

  004a0	8b 45 08	 mov	 eax, DWORD PTR _File$[ebp]
  004a3	50		 push	 eax
  004a4	6a 00		 push	 0
  004a6	68 00 00 00 00	 push	 OFFSET ??_C@_0M@GGJLOKLG@Buff6_Bonus?$AA@
  004ab	68 00 00 00 00	 push	 OFFSET ??_C@_06MLPMCPDE@ExTeam?$AA@
  004b0	ff 15 00 00 00
	00		 call	 DWORD PTR __imp__GetPrivateProfileIntA@16
  004b6	8b 4d fc	 mov	 ecx, DWORD PTR _this$[ebp]
  004b9	89 41 70	 mov	 DWORD PTR [ecx+112], eax

; 107  : }

  004bc	5f		 pop	 edi
  004bd	5e		 pop	 esi
  004be	5b		 pop	 ebx
  004bf	8b e5		 mov	 esp, ebp
  004c1	5d		 pop	 ebp
  004c2	c2 04 00	 ret	 4
?Read@BufferSystem@@QAEXPAD@Z ENDP			; BufferSystem::Read
_TEXT	ENDS
PUBLIC	?GC_OpenWindow@BufferSystem@@QAEXH@Z		; BufferSystem::GC_OpenWindow
PUBLIC	?Dialog@BufferSystem@@QAE_NHH@Z			; BufferSystem::Dialog
EXTRN	?gObj@@3PAUOBJECTSTRUCT@@A:DWORD		; gObj
EXTRN	?gObjIsConnectedEx@@YA_NH@Z:PROC		; gObjIsConnectedEx
; Function compile flags: /Odtp /ZI
_TEXT	SEGMENT
_lpNpc$ = -12						; size = 4
_lpUser$ = -8						; size = 4
_this$ = -4						; size = 4
_aIndex$ = 8						; size = 4
_aNpcIndex$ = 12					; size = 4
?Dialog@BufferSystem@@QAE_NHH@Z PROC			; BufferSystem::Dialog
; _this$ = ecx

; 111  : {

  004d0	55		 push	 ebp
  004d1	8b ec		 mov	 ebp, esp
  004d3	83 ec 4c	 sub	 esp, 76			; 0000004cH
  004d6	53		 push	 ebx
  004d7	56		 push	 esi
  004d8	57		 push	 edi
  004d9	89 4d fc	 mov	 DWORD PTR _this$[ebp], ecx

; 112  : 	if(!this->Enable)

  004dc	8b 45 fc	 mov	 eax, DWORD PTR _this$[ebp]
  004df	0f b6 08	 movzx	 ecx, BYTE PTR [eax]
  004e2	85 c9		 test	 ecx, ecx
  004e4	75 07		 jne	 SHORT $LN3@Dialog

; 113  : 	{
; 114  :  		return false;

  004e6	32 c0		 xor	 al, al
  004e8	e9 95 00 00 00	 jmp	 $LN4@Dialog
$LN3@Dialog:

; 115  : 	}
; 116  : 
; 117  : 	if(!gObjIsConnectedEx(aIndex))

  004ed	8b 45 08	 mov	 eax, DWORD PTR _aIndex$[ebp]
  004f0	50		 push	 eax
  004f1	e8 00 00 00 00	 call	 ?gObjIsConnectedEx@@YA_NH@Z ; gObjIsConnectedEx
  004f6	83 c4 04	 add	 esp, 4
  004f9	0f b6 c8	 movzx	 ecx, al
  004fc	85 c9		 test	 ecx, ecx
  004fe	75 04		 jne	 SHORT $LN2@Dialog

; 118  : 	{
; 119  : 		return false;

  00500	32 c0		 xor	 al, al
  00502	eb 7e		 jmp	 SHORT $LN4@Dialog
$LN2@Dialog:

; 120  : 	}
; 121  : 
; 122  : 	LPOBJ lpUser = &gObj[aIndex];

  00504	8b 45 08	 mov	 eax, DWORD PTR _aIndex$[ebp]
  00507	69 c0 38 2b 00
	00		 imul	 eax, 11064		; 00002b38H
  0050d	03 05 00 00 00
	00		 add	 eax, DWORD PTR ?gObj@@3PAUOBJECTSTRUCT@@A ; gObj
  00513	89 45 f8	 mov	 DWORD PTR _lpUser$[ebp], eax

; 123  : 	LPOBJ lpNpc = &gObj[aNpcIndex];

  00516	8b 45 0c	 mov	 eax, DWORD PTR _aNpcIndex$[ebp]
  00519	69 c0 38 2b 00
	00		 imul	 eax, 11064		; 00002b38H
  0051f	03 05 00 00 00
	00		 add	 eax, DWORD PTR ?gObj@@3PAUOBJECTSTRUCT@@A ; gObj
  00525	89 45 f4	 mov	 DWORD PTR _lpNpc$[ebp], eax

; 124  : 
; 125  : 	if(		lpNpc->Class		== this->NPC_Class 
; 126  : 		&&	lpNpc->MapNumber	== this->NPC_Map
; 127  : 		&&	lpNpc->X			== this->NPC_X
; 128  : 		&&	lpNpc->Y			== this->NPC_Y )

  00528	8b 45 f4	 mov	 eax, DWORD PTR _lpNpc$[ebp]
  0052b	0f b7 88 b8 00
	00 00		 movzx	 ecx, WORD PTR [eax+184]
  00532	8b 55 fc	 mov	 edx, DWORD PTR _this$[ebp]
  00535	3b 4a 04	 cmp	 ecx, DWORD PTR [edx+4]
  00538	75 46		 jne	 SHORT $LN1@Dialog
  0053a	8b 45 f4	 mov	 eax, DWORD PTR _lpNpc$[ebp]
  0053d	0f b6 88 49 01
	00 00		 movzx	 ecx, BYTE PTR [eax+329]
  00544	8b 55 fc	 mov	 edx, DWORD PTR _this$[ebp]
  00547	3b 4a 08	 cmp	 ecx, DWORD PTR [edx+8]
  0054a	75 34		 jne	 SHORT $LN1@Dialog
  0054c	8b 45 f4	 mov	 eax, DWORD PTR _lpNpc$[ebp]
  0054f	0f bf 88 44 01
	00 00		 movsx	 ecx, WORD PTR [eax+324]
  00556	8b 55 fc	 mov	 edx, DWORD PTR _this$[ebp]
  00559	3b 4a 0c	 cmp	 ecx, DWORD PTR [edx+12]
  0055c	75 22		 jne	 SHORT $LN1@Dialog
  0055e	8b 45 f4	 mov	 eax, DWORD PTR _lpNpc$[ebp]
  00561	0f bf 88 46 01
	00 00		 movsx	 ecx, WORD PTR [eax+326]
  00568	8b 55 fc	 mov	 edx, DWORD PTR _this$[ebp]
  0056b	3b 4a 10	 cmp	 ecx, DWORD PTR [edx+16]
  0056e	75 10		 jne	 SHORT $LN1@Dialog

; 129  : 	{
; 130  : 		this->GC_OpenWindow(aIndex);

  00570	8b 45 08	 mov	 eax, DWORD PTR _aIndex$[ebp]
  00573	50		 push	 eax
  00574	8b 4d fc	 mov	 ecx, DWORD PTR _this$[ebp]
  00577	e8 00 00 00 00	 call	 ?GC_OpenWindow@BufferSystem@@QAEXH@Z ; BufferSystem::GC_OpenWindow

; 131  : 		return true;

  0057c	b0 01		 mov	 al, 1
  0057e	eb 02		 jmp	 SHORT $LN4@Dialog
$LN1@Dialog:

; 132  : 	}
; 133  : 	// ----
; 134  : 	return false;

  00580	32 c0		 xor	 al, al
$LN4@Dialog:

; 135  : }

  00582	5f		 pop	 edi
  00583	5e		 pop	 esi
  00584	5b		 pop	 ebx
  00585	8b e5		 mov	 esp, ebp
  00587	5d		 pop	 ebp
  00588	c2 08 00	 ret	 8
?Dialog@BufferSystem@@QAE_NHH@Z ENDP			; BufferSystem::Dialog
_TEXT	ENDS
PUBLIC	?Check@BufferSystem@@QAE_NHH@Z			; BufferSystem::Check
PUBLIC	?set@PBMSG_HEAD2@@QAEXPAEEEE@Z			; PBMSG_HEAD2::set
PUBLIC	__$ArrayPad$
EXTRN	?DataSend@@YAHHPAEK@Z:PROC			; DataSend
EXTRN	___security_cookie:DWORD
EXTRN	@__security_check_cookie@4:PROC
EXTRN	_memset:PROC
; Function compile flags: /Odtp /ZI
_TEXT	SEGMENT
_pSend$ = -88						; size = 80
_this$ = -8						; size = 4
__$ArrayPad$ = -4					; size = 4
_aIndex$ = 8						; size = 4
?GC_OpenWindow@BufferSystem@@QAEXH@Z PROC		; BufferSystem::GC_OpenWindow
; _this$ = ecx

; 139  : {

  00590	55		 push	 ebp
  00591	8b ec		 mov	 ebp, esp
  00593	81 ec 98 00 00
	00		 sub	 esp, 152		; 00000098H
  00599	a1 00 00 00 00	 mov	 eax, DWORD PTR ___security_cookie
  0059e	33 c5		 xor	 eax, ebp
  005a0	89 45 fc	 mov	 DWORD PTR __$ArrayPad$[ebp], eax
  005a3	53		 push	 ebx
  005a4	56		 push	 esi
  005a5	57		 push	 edi
  005a6	89 4d f8	 mov	 DWORD PTR _this$[ebp], ecx

; 140  : 	if(!this->Enable)

  005a9	8b 45 f8	 mov	 eax, DWORD PTR _this$[ebp]
  005ac	0f b6 08	 movzx	 ecx, BYTE PTR [eax]
  005af	85 c9		 test	 ecx, ecx
  005b1	75 05		 jne	 SHORT $LN1@GC_OpenWin

; 141  : 	{
; 142  :  		return;

  005b3	e9 a0 01 00 00	 jmp	 $LN2@GC_OpenWin
$LN1@GC_OpenWin:

; 143  : 	}
; 144  : 
; 145  : 	// ----
; 146  : 
; 147  : 	GC_BuffNpcOpen pSend = { NULL };

  005b8	c6 45 a8 00	 mov	 BYTE PTR _pSend$[ebp], 0
  005bc	6a 4f		 push	 79			; 0000004fH
  005be	6a 00		 push	 0
  005c0	8d 45 a9	 lea	 eax, DWORD PTR _pSend$[ebp+1]
  005c3	50		 push	 eax
  005c4	e8 00 00 00 00	 call	 _memset
  005c9	83 c4 0c	 add	 esp, 12			; 0000000cH

; 148  : 	pSend.h.set((LPBYTE)&pSend, 0xFB, 0x20, sizeof(pSend));

  005cc	6a 50		 push	 80			; 00000050H
  005ce	6a 20		 push	 32			; 00000020H
  005d0	68 fb 00 00 00	 push	 251			; 000000fbH
  005d5	8d 45 a8	 lea	 eax, DWORD PTR _pSend$[ebp]
  005d8	50		 push	 eax
  005d9	8d 4d a8	 lea	 ecx, DWORD PTR _pSend$[ebp]
  005dc	e8 00 00 00 00	 call	 ?set@PBMSG_HEAD2@@QAEXPAEEEE@Z ; PBMSG_HEAD2::set

; 149  : 
; 150  : 	pSend.Result1 = this->Check(aIndex, 1);

  005e1	6a 01		 push	 1
  005e3	8b 45 08	 mov	 eax, DWORD PTR _aIndex$[ebp]
  005e6	50		 push	 eax
  005e7	8b 4d f8	 mov	 ecx, DWORD PTR _this$[ebp]
  005ea	e8 00 00 00 00	 call	 ?Check@BufferSystem@@QAE_NHH@Z ; BufferSystem::Check
  005ef	88 45 ac	 mov	 BYTE PTR _pSend$[ebp+4], al

; 151  : 	pSend.Zen1 = this->Buff1_ZenMoney;

  005f2	8b 45 f8	 mov	 eax, DWORD PTR _this$[ebp]
  005f5	8b 48 14	 mov	 ecx, DWORD PTR [eax+20]
  005f8	89 4d b0	 mov	 DWORD PTR _pSend$[ebp+8], ecx

; 152  : 	pSend.Bless1 = this->Buff1_JewelOfBless;

  005fb	8b 45 f8	 mov	 eax, DWORD PTR _this$[ebp]
  005fe	66 8b 48 18	 mov	 cx, WORD PTR [eax+24]
  00602	66 89 4d b4	 mov	 WORD PTR _pSend$[ebp+12], cx

; 153  : 	pSend.Soul1 = this->Buff1_JewelOfSoul;

  00606	8b 45 f8	 mov	 eax, DWORD PTR _this$[ebp]
  00609	66 8b 48 1c	 mov	 cx, WORD PTR [eax+28]
  0060d	66 89 4d b6	 mov	 WORD PTR _pSend$[ebp+14], cx

; 154  : 	pSend.Bonus1 = this->Buff1_Bonus;

  00611	8b 45 f8	 mov	 eax, DWORD PTR _this$[ebp]
  00614	66 8b 48 20	 mov	 cx, WORD PTR [eax+32]
  00618	66 89 4d b8	 mov	 WORD PTR _pSend$[ebp+16], cx

; 155  : 
; 156  : 	pSend.Result2 = this->Check(aIndex, 2);

  0061c	6a 02		 push	 2
  0061e	8b 45 08	 mov	 eax, DWORD PTR _aIndex$[ebp]
  00621	50		 push	 eax
  00622	8b 4d f8	 mov	 ecx, DWORD PTR _this$[ebp]
  00625	e8 00 00 00 00	 call	 ?Check@BufferSystem@@QAE_NHH@Z ; BufferSystem::Check
  0062a	88 45 ba	 mov	 BYTE PTR _pSend$[ebp+18], al

; 157  : 	pSend.Zen2 = this->Buff2_ZenMoney;

  0062d	8b 45 f8	 mov	 eax, DWORD PTR _this$[ebp]
  00630	8b 48 24	 mov	 ecx, DWORD PTR [eax+36]
  00633	89 4d bc	 mov	 DWORD PTR _pSend$[ebp+20], ecx

; 158  : 	pSend.Bless2 = this->Buff2_JewelOfBless;

  00636	8b 45 f8	 mov	 eax, DWORD PTR _this$[ebp]
  00639	66 8b 48 28	 mov	 cx, WORD PTR [eax+40]
  0063d	66 89 4d c0	 mov	 WORD PTR _pSend$[ebp+24], cx

; 159  : 	pSend.Soul2 = this->Buff2_JewelOfSoul;

  00641	8b 45 f8	 mov	 eax, DWORD PTR _this$[ebp]
  00644	66 8b 48 2c	 mov	 cx, WORD PTR [eax+44]
  00648	66 89 4d c2	 mov	 WORD PTR _pSend$[ebp+26], cx

; 160  : 	pSend.Bonus2 = this->Buff2_Bonus;

  0064c	8b 45 f8	 mov	 eax, DWORD PTR _this$[ebp]
  0064f	66 8b 48 30	 mov	 cx, WORD PTR [eax+48]
  00653	66 89 4d c4	 mov	 WORD PTR _pSend$[ebp+28], cx

; 161  : 
; 162  : 	pSend.Result3 = this->Check(aIndex, 3);

  00657	6a 03		 push	 3
  00659	8b 45 08	 mov	 eax, DWORD PTR _aIndex$[ebp]
  0065c	50		 push	 eax
  0065d	8b 4d f8	 mov	 ecx, DWORD PTR _this$[ebp]
  00660	e8 00 00 00 00	 call	 ?Check@BufferSystem@@QAE_NHH@Z ; BufferSystem::Check
  00665	88 45 c6	 mov	 BYTE PTR _pSend$[ebp+30], al

; 163  : 	pSend.Zen3 = this->Buff3_ZenMoney;

  00668	8b 45 f8	 mov	 eax, DWORD PTR _this$[ebp]
  0066b	8b 48 34	 mov	 ecx, DWORD PTR [eax+52]
  0066e	89 4d c8	 mov	 DWORD PTR _pSend$[ebp+32], ecx

; 164  : 	pSend.Bless3 = this->Buff3_JewelOfBless;

  00671	8b 45 f8	 mov	 eax, DWORD PTR _this$[ebp]
  00674	66 8b 48 38	 mov	 cx, WORD PTR [eax+56]
  00678	66 89 4d cc	 mov	 WORD PTR _pSend$[ebp+36], cx

; 165  : 	pSend.Soul3 = this->Buff3_JewelOfSoul;

  0067c	8b 45 f8	 mov	 eax, DWORD PTR _this$[ebp]
  0067f	66 8b 48 3c	 mov	 cx, WORD PTR [eax+60]
  00683	66 89 4d ce	 mov	 WORD PTR _pSend$[ebp+38], cx

; 166  : 	pSend.Bonus3 = this->Buff3_Bonus;

  00687	8b 45 f8	 mov	 eax, DWORD PTR _this$[ebp]
  0068a	66 8b 48 40	 mov	 cx, WORD PTR [eax+64]
  0068e	66 89 4d d0	 mov	 WORD PTR _pSend$[ebp+40], cx

; 167  : 
; 168  : 	pSend.Result4 = this->Check(aIndex, 4);

  00692	6a 04		 push	 4
  00694	8b 45 08	 mov	 eax, DWORD PTR _aIndex$[ebp]
  00697	50		 push	 eax
  00698	8b 4d f8	 mov	 ecx, DWORD PTR _this$[ebp]
  0069b	e8 00 00 00 00	 call	 ?Check@BufferSystem@@QAE_NHH@Z ; BufferSystem::Check
  006a0	88 45 d2	 mov	 BYTE PTR _pSend$[ebp+42], al

; 169  : 	pSend.Zen4 = this->Buff4_ZenMoney;

  006a3	8b 45 f8	 mov	 eax, DWORD PTR _this$[ebp]
  006a6	8b 48 44	 mov	 ecx, DWORD PTR [eax+68]
  006a9	89 4d d4	 mov	 DWORD PTR _pSend$[ebp+44], ecx

; 170  : 	pSend.Bless4 = this->Buff4_JewelOfBless;

  006ac	8b 45 f8	 mov	 eax, DWORD PTR _this$[ebp]
  006af	66 8b 48 48	 mov	 cx, WORD PTR [eax+72]
  006b3	66 89 4d d8	 mov	 WORD PTR _pSend$[ebp+48], cx

; 171  : 	pSend.Soul4 = this->Buff4_JewelOfSoul;

  006b7	8b 45 f8	 mov	 eax, DWORD PTR _this$[ebp]
  006ba	66 8b 48 4c	 mov	 cx, WORD PTR [eax+76]
  006be	66 89 4d da	 mov	 WORD PTR _pSend$[ebp+50], cx

; 172  : 	pSend.Bonus4 = this->Buff4_Bonus;

  006c2	8b 45 f8	 mov	 eax, DWORD PTR _this$[ebp]
  006c5	66 8b 48 50	 mov	 cx, WORD PTR [eax+80]
  006c9	66 89 4d dc	 mov	 WORD PTR _pSend$[ebp+52], cx

; 173  : 
; 174  : 	pSend.Result5 = this->Check(aIndex,5);

  006cd	6a 05		 push	 5
  006cf	8b 45 08	 mov	 eax, DWORD PTR _aIndex$[ebp]
  006d2	50		 push	 eax
  006d3	8b 4d f8	 mov	 ecx, DWORD PTR _this$[ebp]
  006d6	e8 00 00 00 00	 call	 ?Check@BufferSystem@@QAE_NHH@Z ; BufferSystem::Check
  006db	88 45 de	 mov	 BYTE PTR _pSend$[ebp+54], al

; 175  : 	pSend.Zen5 = this->Buff5_ZenMoney;

  006de	8b 45 f8	 mov	 eax, DWORD PTR _this$[ebp]
  006e1	8b 48 54	 mov	 ecx, DWORD PTR [eax+84]
  006e4	89 4d e0	 mov	 DWORD PTR _pSend$[ebp+56], ecx

; 176  : 	pSend.Bless5 = this->Buff5_JewelOfBless;

  006e7	8b 45 f8	 mov	 eax, DWORD PTR _this$[ebp]
  006ea	66 8b 48 58	 mov	 cx, WORD PTR [eax+88]
  006ee	66 89 4d e4	 mov	 WORD PTR _pSend$[ebp+60], cx

; 177  : 	pSend.Soul5 = this->Buff5_JewelOfSoul;

  006f2	8b 45 f8	 mov	 eax, DWORD PTR _this$[ebp]
  006f5	66 8b 48 5c	 mov	 cx, WORD PTR [eax+92]
  006f9	66 89 4d e6	 mov	 WORD PTR _pSend$[ebp+62], cx

; 178  : 	pSend.Bonus5 = this->Buff5_Bonus;

  006fd	8b 45 f8	 mov	 eax, DWORD PTR _this$[ebp]
  00700	66 8b 48 60	 mov	 cx, WORD PTR [eax+96]
  00704	66 89 4d e8	 mov	 WORD PTR _pSend$[ebp+64], cx

; 179  : 
; 180  : 	pSend.Result6 = this->Check(aIndex,6);

  00708	6a 06		 push	 6
  0070a	8b 45 08	 mov	 eax, DWORD PTR _aIndex$[ebp]
  0070d	50		 push	 eax
  0070e	8b 4d f8	 mov	 ecx, DWORD PTR _this$[ebp]
  00711	e8 00 00 00 00	 call	 ?Check@BufferSystem@@QAE_NHH@Z ; BufferSystem::Check
  00716	88 45 ea	 mov	 BYTE PTR _pSend$[ebp+66], al

; 181  : 	pSend.Zen6 = this->Buff6_ZenMoney;

  00719	8b 45 f8	 mov	 eax, DWORD PTR _this$[ebp]
  0071c	8b 48 64	 mov	 ecx, DWORD PTR [eax+100]
  0071f	89 4d ec	 mov	 DWORD PTR _pSend$[ebp+68], ecx

; 182  : 	pSend.Bless6 = this->Buff6_JewelOfBless;

  00722	8b 45 f8	 mov	 eax, DWORD PTR _this$[ebp]
  00725	66 8b 48 68	 mov	 cx, WORD PTR [eax+104]
  00729	66 89 4d f0	 mov	 WORD PTR _pSend$[ebp+72], cx

; 183  : 	pSend.Soul6 = this->Buff6_JewelOfSoul;

  0072d	8b 45 f8	 mov	 eax, DWORD PTR _this$[ebp]
  00730	66 8b 48 6c	 mov	 cx, WORD PTR [eax+108]
  00734	66 89 4d f2	 mov	 WORD PTR _pSend$[ebp+74], cx

; 184  : 	pSend.Bonus6 = this->Buff6_Bonus;

  00738	8b 45 f8	 mov	 eax, DWORD PTR _this$[ebp]
  0073b	66 8b 48 70	 mov	 cx, WORD PTR [eax+112]
  0073f	66 89 4d f4	 mov	 WORD PTR _pSend$[ebp+76], cx

; 185  : 
; 186  : 	DataSend(aIndex, (LPBYTE)&pSend, pSend.h.size);

  00743	0f b6 45 a9	 movzx	 eax, BYTE PTR _pSend$[ebp+1]
  00747	50		 push	 eax
  00748	8d 4d a8	 lea	 ecx, DWORD PTR _pSend$[ebp]
  0074b	51		 push	 ecx
  0074c	8b 55 08	 mov	 edx, DWORD PTR _aIndex$[ebp]
  0074f	52		 push	 edx
  00750	e8 00 00 00 00	 call	 ?DataSend@@YAHHPAEK@Z	; DataSend
  00755	83 c4 0c	 add	 esp, 12			; 0000000cH
$LN2@GC_OpenWin:

; 187  : }

  00758	5f		 pop	 edi
  00759	5e		 pop	 esi
  0075a	5b		 pop	 ebx
  0075b	8b 4d fc	 mov	 ecx, DWORD PTR __$ArrayPad$[ebp]
  0075e	33 cd		 xor	 ecx, ebp
  00760	e8 00 00 00 00	 call	 @__security_check_cookie@4
  00765	8b e5		 mov	 esp, ebp
  00767	5d		 pop	 ebp
  00768	c2 04 00	 ret	 4
?GC_OpenWindow@BufferSystem@@QAEXH@Z ENDP		; BufferSystem::GC_OpenWindow
; Function compile flags: /Odtp /ZI
; File d:\projects\exteam6.3\source\gameserver\include\prodef.h
_TEXT	ENDS
;	COMDAT ?set@PBMSG_HEAD2@@QAEXPAEEEE@Z
_TEXT	SEGMENT
_this$ = -4						; size = 4
_lpBuf$ = 8						; size = 4
_head$ = 12						; size = 1
_sub$ = 16						; size = 1
_size$ = 20						; size = 1
?set@PBMSG_HEAD2@@QAEXPAEEEE@Z PROC			; PBMSG_HEAD2::set, COMDAT
; _this$ = ecx

; 104  : 	{

  00000	55		 push	 ebp
  00001	8b ec		 mov	 ebp, esp
  00003	83 ec 44	 sub	 esp, 68			; 00000044H
  00006	53		 push	 ebx
  00007	56		 push	 esi
  00008	57		 push	 edi
  00009	89 4d fc	 mov	 DWORD PTR _this$[ebp], ecx

; 105  : 		lpBuf[0] = 0xC1;

  0000c	8b 45 08	 mov	 eax, DWORD PTR _lpBuf$[ebp]
  0000f	c6 00 c1	 mov	 BYTE PTR [eax], 193	; 000000c1H

; 106  : 		lpBuf[1] = size;

  00012	8b 45 08	 mov	 eax, DWORD PTR _lpBuf$[ebp]
  00015	8a 4d 14	 mov	 cl, BYTE PTR _size$[ebp]
  00018	88 48 01	 mov	 BYTE PTR [eax+1], cl

; 107  : 		lpBuf[2] = head;

  0001b	8b 45 08	 mov	 eax, DWORD PTR _lpBuf$[ebp]
  0001e	8a 4d 0c	 mov	 cl, BYTE PTR _head$[ebp]
  00021	88 48 02	 mov	 BYTE PTR [eax+2], cl

; 108  : 		lpBuf[3] = sub;

  00024	8b 45 08	 mov	 eax, DWORD PTR _lpBuf$[ebp]
  00027	8a 4d 10	 mov	 cl, BYTE PTR _sub$[ebp]
  0002a	88 48 03	 mov	 BYTE PTR [eax+3], cl

; 109  : 	};

  0002d	5f		 pop	 edi
  0002e	5e		 pop	 esi
  0002f	5b		 pop	 ebx
  00030	8b e5		 mov	 esp, ebp
  00032	5d		 pop	 ebp
  00033	c2 10 00	 ret	 16			; 00000010H
?set@PBMSG_HEAD2@@QAEXPAEEEE@Z ENDP			; PBMSG_HEAD2::set
_TEXT	ENDS
EXTRN	?gObjSearchActiveEffect@@YAEPAUOBJECTSTRUCT@@H@Z:PROC ; gObjSearchActiveEffect
EXTRN	?gObjGetItemCountInInventory@@YAHHHH@Z:PROC	; gObjGetItemCountInInventory
EXTRN	?CheckUser@CExLicense@@QAE_NH@Z:PROC		; CExLicense::CheckUser
EXTRN	__fltused:DWORD
; Function compile flags: /Odtp /ZI
; File d:\projects\exteam6.3\source\gameserver\gameserver\buffersystem.cpp
_TEXT	SEGMENT
_idBuffer$ = -32					; size = 4
_iBonusMoney$ = -28					; size = 4
_iSoulMoney$ = -24					; size = 4
_iBlessMoney$ = -20					; size = 4
_iZenMoney$ = -16					; size = 4
_bResult$ = -9						; size = 1
_lpUser$ = -8						; size = 4
_this$ = -4						; size = 4
_aIndex$ = 8						; size = 4
_type$ = 12						; size = 4
?Check@BufferSystem@@QAE_NHH@Z PROC			; BufferSystem::Check
; _this$ = ecx

; 191  : {

  00770	55		 push	 ebp
  00771	8b ec		 mov	 ebp, esp
  00773	83 ec 60	 sub	 esp, 96			; 00000060H
  00776	53		 push	 ebx
  00777	56		 push	 esi
  00778	57		 push	 edi
  00779	89 4d fc	 mov	 DWORD PTR _this$[ebp], ecx

; 192  : 	LPOBJ lpUser = &gObj[aIndex];

  0077c	8b 45 08	 mov	 eax, DWORD PTR _aIndex$[ebp]
  0077f	69 c0 38 2b 00
	00		 imul	 eax, 11064		; 00002b38H
  00785	03 05 00 00 00
	00		 add	 eax, DWORD PTR ?gObj@@3PAUOBJECTSTRUCT@@A ; gObj
  0078b	89 45 f8	 mov	 DWORD PTR _lpUser$[ebp], eax

; 193  : 
; 194  : 	BYTE bResult = 1;

  0078e	c6 45 f7 01	 mov	 BYTE PTR _bResult$[ebp], 1

; 195  : 
; 196  : 	int iZenMoney = 0;

  00792	c7 45 f0 00 00
	00 00		 mov	 DWORD PTR _iZenMoney$[ebp], 0

; 197  : 	int iBlessMoney = 0;

  00799	c7 45 ec 00 00
	00 00		 mov	 DWORD PTR _iBlessMoney$[ebp], 0

; 198  : 	int iSoulMoney = 0;

  007a0	c7 45 e8 00 00
	00 00		 mov	 DWORD PTR _iSoulMoney$[ebp], 0

; 199  : 	int iBonusMoney = 0;

  007a7	c7 45 e4 00 00
	00 00		 mov	 DWORD PTR _iBonusMoney$[ebp], 0

; 200  : 
; 201  : 	int idBuffer = AT_NPC_BUFF_EXP;

  007ae	c7 45 e0 b0 00
	00 00		 mov	 DWORD PTR _idBuffer$[ebp], 176 ; 000000b0H

; 202  : 
; 203  : 	if(type == 1)

  007b5	83 7d 0c 01	 cmp	 DWORD PTR _type$[ebp], 1
  007b9	75 2b		 jne	 SHORT $LN17@Check

; 204  : 	{
; 205  : 		iZenMoney = this->Buff1_ZenMoney;

  007bb	8b 45 fc	 mov	 eax, DWORD PTR _this$[ebp]
  007be	8b 48 14	 mov	 ecx, DWORD PTR [eax+20]
  007c1	89 4d f0	 mov	 DWORD PTR _iZenMoney$[ebp], ecx

; 206  : 		iBlessMoney = this->Buff1_JewelOfBless;

  007c4	8b 45 fc	 mov	 eax, DWORD PTR _this$[ebp]
  007c7	8b 48 18	 mov	 ecx, DWORD PTR [eax+24]
  007ca	89 4d ec	 mov	 DWORD PTR _iBlessMoney$[ebp], ecx

; 207  : 		iSoulMoney = this->Buff1_JewelOfSoul;

  007cd	8b 45 fc	 mov	 eax, DWORD PTR _this$[ebp]
  007d0	8b 48 1c	 mov	 ecx, DWORD PTR [eax+28]
  007d3	89 4d e8	 mov	 DWORD PTR _iSoulMoney$[ebp], ecx

; 208  : 		iBonusMoney = this->Buff1_Bonus;

  007d6	8b 45 fc	 mov	 eax, DWORD PTR _this$[ebp]
  007d9	8b 48 20	 mov	 ecx, DWORD PTR [eax+32]
  007dc	89 4d e4	 mov	 DWORD PTR _iBonusMoney$[ebp], ecx

; 209  : 		idBuffer = AT_NPC_BUFF_EXP;

  007df	c7 45 e0 b0 00
	00 00		 mov	 DWORD PTR _idBuffer$[ebp], 176 ; 000000b0H
$LN17@Check:

; 210  : 	}
; 211  : 	if(type == 2)

  007e6	83 7d 0c 02	 cmp	 DWORD PTR _type$[ebp], 2
  007ea	75 2b		 jne	 SHORT $LN16@Check

; 212  : 	{
; 213  : 		iZenMoney = this->Buff2_ZenMoney;

  007ec	8b 45 fc	 mov	 eax, DWORD PTR _this$[ebp]
  007ef	8b 48 24	 mov	 ecx, DWORD PTR [eax+36]
  007f2	89 4d f0	 mov	 DWORD PTR _iZenMoney$[ebp], ecx

; 214  : 		iBlessMoney = this->Buff2_JewelOfBless;

  007f5	8b 45 fc	 mov	 eax, DWORD PTR _this$[ebp]
  007f8	8b 48 28	 mov	 ecx, DWORD PTR [eax+40]
  007fb	89 4d ec	 mov	 DWORD PTR _iBlessMoney$[ebp], ecx

; 215  : 		iSoulMoney = this->Buff2_JewelOfSoul;

  007fe	8b 45 fc	 mov	 eax, DWORD PTR _this$[ebp]
  00801	8b 48 2c	 mov	 ecx, DWORD PTR [eax+44]
  00804	89 4d e8	 mov	 DWORD PTR _iSoulMoney$[ebp], ecx

; 216  : 		iBonusMoney = this->Buff2_Bonus;

  00807	8b 45 fc	 mov	 eax, DWORD PTR _this$[ebp]
  0080a	8b 48 30	 mov	 ecx, DWORD PTR [eax+48]
  0080d	89 4d e4	 mov	 DWORD PTR _iBonusMoney$[ebp], ecx

; 217  : 		idBuffer = AT_NPC_BUFF_DAMAGE;

  00810	c7 45 e0 b1 00
	00 00		 mov	 DWORD PTR _idBuffer$[ebp], 177 ; 000000b1H
$LN16@Check:

; 218  : 	}
; 219  : 	if(type == 3)

  00817	83 7d 0c 03	 cmp	 DWORD PTR _type$[ebp], 3
  0081b	75 2b		 jne	 SHORT $LN15@Check

; 220  : 	{
; 221  : 		iZenMoney = this->Buff3_ZenMoney;

  0081d	8b 45 fc	 mov	 eax, DWORD PTR _this$[ebp]
  00820	8b 48 34	 mov	 ecx, DWORD PTR [eax+52]
  00823	89 4d f0	 mov	 DWORD PTR _iZenMoney$[ebp], ecx

; 222  : 		iBlessMoney = this->Buff3_JewelOfBless;

  00826	8b 45 fc	 mov	 eax, DWORD PTR _this$[ebp]
  00829	8b 48 38	 mov	 ecx, DWORD PTR [eax+56]
  0082c	89 4d ec	 mov	 DWORD PTR _iBlessMoney$[ebp], ecx

; 223  : 		iSoulMoney = this->Buff3_JewelOfSoul;

  0082f	8b 45 fc	 mov	 eax, DWORD PTR _this$[ebp]
  00832	8b 48 3c	 mov	 ecx, DWORD PTR [eax+60]
  00835	89 4d e8	 mov	 DWORD PTR _iSoulMoney$[ebp], ecx

; 224  : 		iBonusMoney = this->Buff3_Bonus;

  00838	8b 45 fc	 mov	 eax, DWORD PTR _this$[ebp]
  0083b	8b 48 40	 mov	 ecx, DWORD PTR [eax+64]
  0083e	89 4d e4	 mov	 DWORD PTR _iBonusMoney$[ebp], ecx

; 225  : 		idBuffer = AT_NPC_BUFF_DEFENCE;

  00841	c7 45 e0 b2 00
	00 00		 mov	 DWORD PTR _idBuffer$[ebp], 178 ; 000000b2H
$LN15@Check:

; 226  : 	}
; 227  : 	if(type == 4)

  00848	83 7d 0c 04	 cmp	 DWORD PTR _type$[ebp], 4
  0084c	75 2b		 jne	 SHORT $LN14@Check

; 228  : 	{
; 229  : 		iZenMoney = this->Buff4_ZenMoney;

  0084e	8b 45 fc	 mov	 eax, DWORD PTR _this$[ebp]
  00851	8b 48 44	 mov	 ecx, DWORD PTR [eax+68]
  00854	89 4d f0	 mov	 DWORD PTR _iZenMoney$[ebp], ecx

; 230  : 		iBlessMoney = this->Buff4_JewelOfBless;

  00857	8b 45 fc	 mov	 eax, DWORD PTR _this$[ebp]
  0085a	8b 48 48	 mov	 ecx, DWORD PTR [eax+72]
  0085d	89 4d ec	 mov	 DWORD PTR _iBlessMoney$[ebp], ecx

; 231  : 		iSoulMoney = this->Buff4_JewelOfSoul;

  00860	8b 45 fc	 mov	 eax, DWORD PTR _this$[ebp]
  00863	8b 48 4c	 mov	 ecx, DWORD PTR [eax+76]
  00866	89 4d e8	 mov	 DWORD PTR _iSoulMoney$[ebp], ecx

; 232  : 		iBonusMoney = this->Buff4_Bonus;

  00869	8b 45 fc	 mov	 eax, DWORD PTR _this$[ebp]
  0086c	8b 48 50	 mov	 ecx, DWORD PTR [eax+80]
  0086f	89 4d e4	 mov	 DWORD PTR _iBonusMoney$[ebp], ecx

; 233  : 		idBuffer = AT_NPC_BUFF_EXL_CRIT;

  00872	c7 45 e0 b3 00
	00 00		 mov	 DWORD PTR _idBuffer$[ebp], 179 ; 000000b3H
$LN14@Check:

; 234  : 	}
; 235  : 	if(type == 5)

  00879	83 7d 0c 05	 cmp	 DWORD PTR _type$[ebp], 5
  0087d	75 2b		 jne	 SHORT $LN13@Check

; 236  : 	{
; 237  : 		iZenMoney = this->Buff5_ZenMoney;

  0087f	8b 45 fc	 mov	 eax, DWORD PTR _this$[ebp]
  00882	8b 48 54	 mov	 ecx, DWORD PTR [eax+84]
  00885	89 4d f0	 mov	 DWORD PTR _iZenMoney$[ebp], ecx

; 238  : 		iBlessMoney = this->Buff5_JewelOfBless;

  00888	8b 45 fc	 mov	 eax, DWORD PTR _this$[ebp]
  0088b	8b 48 58	 mov	 ecx, DWORD PTR [eax+88]
  0088e	89 4d ec	 mov	 DWORD PTR _iBlessMoney$[ebp], ecx

; 239  : 		iSoulMoney = this->Buff5_JewelOfSoul;

  00891	8b 45 fc	 mov	 eax, DWORD PTR _this$[ebp]
  00894	8b 48 5c	 mov	 ecx, DWORD PTR [eax+92]
  00897	89 4d e8	 mov	 DWORD PTR _iSoulMoney$[ebp], ecx

; 240  : 		iBonusMoney = this->Buff5_Bonus;

  0089a	8b 45 fc	 mov	 eax, DWORD PTR _this$[ebp]
  0089d	8b 48 60	 mov	 ecx, DWORD PTR [eax+96]
  008a0	89 4d e4	 mov	 DWORD PTR _iBonusMoney$[ebp], ecx

; 241  : 		idBuffer = AT_NPC_BUFF_DROP;

  008a3	c7 45 e0 b4 00
	00 00		 mov	 DWORD PTR _idBuffer$[ebp], 180 ; 000000b4H
$LN13@Check:

; 242  : 	}
; 243  : 	if(type == 6)

  008aa	83 7d 0c 06	 cmp	 DWORD PTR _type$[ebp], 6
  008ae	75 2b		 jne	 SHORT $LN12@Check

; 244  : 	{
; 245  : 		iZenMoney = this->Buff6_ZenMoney;

  008b0	8b 45 fc	 mov	 eax, DWORD PTR _this$[ebp]
  008b3	8b 48 64	 mov	 ecx, DWORD PTR [eax+100]
  008b6	89 4d f0	 mov	 DWORD PTR _iZenMoney$[ebp], ecx

; 246  : 		iBlessMoney = this->Buff6_JewelOfBless;

  008b9	8b 45 fc	 mov	 eax, DWORD PTR _this$[ebp]
  008bc	8b 48 68	 mov	 ecx, DWORD PTR [eax+104]
  008bf	89 4d ec	 mov	 DWORD PTR _iBlessMoney$[ebp], ecx

; 247  : 		iSoulMoney = this->Buff6_JewelOfSoul;

  008c2	8b 45 fc	 mov	 eax, DWORD PTR _this$[ebp]
  008c5	8b 48 6c	 mov	 ecx, DWORD PTR [eax+108]
  008c8	89 4d e8	 mov	 DWORD PTR _iSoulMoney$[ebp], ecx

; 248  : 		iBonusMoney = this->Buff6_Bonus;

  008cb	8b 45 fc	 mov	 eax, DWORD PTR _this$[ebp]
  008ce	8b 48 70	 mov	 ecx, DWORD PTR [eax+112]
  008d1	89 4d e4	 mov	 DWORD PTR _iBonusMoney$[ebp], ecx

; 249  : 		idBuffer = AT_NPC_BUFF_DOUBLE;

  008d4	c7 45 e0 b5 00
	00 00		 mov	 DWORD PTR _idBuffer$[ebp], 181 ; 000000b5H
$LN12@Check:

; 250  : 	}
; 251  : 
; 252  : 	if(g_ExLicense.CheckUser(eExUB::Local) || g_ExLicense.CheckUser(eExUB::Gredy) || g_ExLicense.CheckUser(eExUB::GredyLocal) || g_ExLicense.CheckUser(eExUB::Gredy2))

  008db	6a 00		 push	 0
  008dd	b9 00 00 00 00	 mov	 ecx, OFFSET ?g_ExLicense@@3VCExLicense@@A ; g_ExLicense
  008e2	e8 00 00 00 00	 call	 ?CheckUser@CExLicense@@QAE_NH@Z ; CExLicense::CheckUser
  008e7	0f b6 c0	 movzx	 eax, al
  008ea	85 c0		 test	 eax, eax
  008ec	75 39		 jne	 SHORT $LN10@Check
  008ee	6a 20		 push	 32			; 00000020H
  008f0	b9 00 00 00 00	 mov	 ecx, OFFSET ?g_ExLicense@@3VCExLicense@@A ; g_ExLicense
  008f5	e8 00 00 00 00	 call	 ?CheckUser@CExLicense@@QAE_NH@Z ; CExLicense::CheckUser
  008fa	0f b6 c0	 movzx	 eax, al
  008fd	85 c0		 test	 eax, eax
  008ff	75 26		 jne	 SHORT $LN10@Check
  00901	6a 21		 push	 33			; 00000021H
  00903	b9 00 00 00 00	 mov	 ecx, OFFSET ?g_ExLicense@@3VCExLicense@@A ; g_ExLicense
  00908	e8 00 00 00 00	 call	 ?CheckUser@CExLicense@@QAE_NH@Z ; CExLicense::CheckUser
  0090d	0f b6 c0	 movzx	 eax, al
  00910	85 c0		 test	 eax, eax
  00912	75 13		 jne	 SHORT $LN10@Check
  00914	6a 22		 push	 34			; 00000022H
  00916	b9 00 00 00 00	 mov	 ecx, OFFSET ?g_ExLicense@@3VCExLicense@@A ; g_ExLicense
  0091b	e8 00 00 00 00	 call	 ?CheckUser@CExLicense@@QAE_NH@Z ; CExLicense::CheckUser
  00920	0f b6 c0	 movzx	 eax, al
  00923	85 c0		 test	 eax, eax
  00925	74 21		 je	 SHORT $LN11@Check
$LN10@Check:

; 253  : 	{
; 254  : 		if(iZenMoney > 0 && iZenMoney > lpUser->ExCred)

  00927	83 7d f0 00	 cmp	 DWORD PTR _iZenMoney$[ebp], 0
  0092b	7e 19		 jle	 SHORT $LN9@Check
  0092d	db 45 f0	 fild	 DWORD PTR _iZenMoney$[ebp]
  00930	8b 45 f8	 mov	 eax, DWORD PTR _lpUser$[ebp]
  00933	d9 80 a8 22 00
	00		 fld	 DWORD PTR [eax+8872]
  00939	de d9		 fcompp
  0093b	df e0		 fnstsw	 ax
  0093d	f6 c4 05	 test	 ah, 5
  00940	7a 04		 jp	 SHORT $LN9@Check

; 255  : 		{
; 256  : 			bResult = 0;

  00942	c6 45 f7 00	 mov	 BYTE PTR _bResult$[ebp], 0
$LN9@Check:

; 257  : 		}
; 258  : 	}
; 259  : 	else

  00946	eb 18		 jmp	 SHORT $LN7@Check
$LN11@Check:

; 260  : 	{
; 261  : 		if(iZenMoney > 0 && iZenMoney > lpUser->Money)

  00948	83 7d f0 00	 cmp	 DWORD PTR _iZenMoney$[ebp], 0
  0094c	7e 12		 jle	 SHORT $LN7@Check
  0094e	8b 45 f8	 mov	 eax, DWORD PTR _lpUser$[ebp]
  00951	8b 4d f0	 mov	 ecx, DWORD PTR _iZenMoney$[ebp]
  00954	3b 88 f0 00 00
	00		 cmp	 ecx, DWORD PTR [eax+240]
  0095a	7e 04		 jle	 SHORT $LN7@Check

; 262  : 		{
; 263  : 			bResult = 0;

  0095c	c6 45 f7 00	 mov	 BYTE PTR _bResult$[ebp], 0
$LN7@Check:

; 264  : 		}
; 265  : 	}
; 266  : 
; 267  : 	if(iBlessMoney > 0)

  00960	83 7d ec 00	 cmp	 DWORD PTR _iBlessMoney$[ebp], 0
  00964	7e 1c		 jle	 SHORT $LN5@Check

; 268  : 	{
; 269  : 		if( iBlessMoney > gObjGetItemCountInInventory(aIndex, ITEMGET(14,13), 0))

  00966	6a 00		 push	 0
  00968	68 0d 1c 00 00	 push	 7181			; 00001c0dH
  0096d	8b 45 08	 mov	 eax, DWORD PTR _aIndex$[ebp]
  00970	50		 push	 eax
  00971	e8 00 00 00 00	 call	 ?gObjGetItemCountInInventory@@YAHHHH@Z ; gObjGetItemCountInInventory
  00976	83 c4 0c	 add	 esp, 12			; 0000000cH
  00979	39 45 ec	 cmp	 DWORD PTR _iBlessMoney$[ebp], eax
  0097c	7e 04		 jle	 SHORT $LN5@Check

; 270  : 		{
; 271  : 			bResult = 0;

  0097e	c6 45 f7 00	 mov	 BYTE PTR _bResult$[ebp], 0
$LN5@Check:

; 272  : 		}
; 273  : 	}
; 274  : 
; 275  : 	if(iSoulMoney > 0)

  00982	83 7d e8 00	 cmp	 DWORD PTR _iSoulMoney$[ebp], 0
  00986	7e 1c		 jle	 SHORT $LN3@Check

; 276  : 	{
; 277  : 		if(iSoulMoney > gObjGetItemCountInInventory(aIndex, ITEMGET(14,14), 0))

  00988	6a 00		 push	 0
  0098a	68 0e 1c 00 00	 push	 7182			; 00001c0eH
  0098f	8b 45 08	 mov	 eax, DWORD PTR _aIndex$[ebp]
  00992	50		 push	 eax
  00993	e8 00 00 00 00	 call	 ?gObjGetItemCountInInventory@@YAHHHH@Z ; gObjGetItemCountInInventory
  00998	83 c4 0c	 add	 esp, 12			; 0000000cH
  0099b	39 45 e8	 cmp	 DWORD PTR _iSoulMoney$[ebp], eax
  0099e	7e 04		 jle	 SHORT $LN3@Check

; 278  : 		{
; 279  : 			bResult = 0;

  009a0	c6 45 f7 00	 mov	 BYTE PTR _bResult$[ebp], 0
$LN3@Check:

; 280  : 		}
; 281  : 	}
; 282  : 
; 283  : 	if(iBonusMoney > 0 && iBonusMoney > lpUser->GameShop.WCoinC)

  009a4	83 7d e4 00	 cmp	 DWORD PTR _iBonusMoney$[ebp], 0
  009a8	7e 17		 jle	 SHORT $LN2@Check
  009aa	db 45 e4	 fild	 DWORD PTR _iBonusMoney$[ebp]
  009ad	8b 45 f8	 mov	 eax, DWORD PTR _lpUser$[ebp]
  009b0	dc 98 00 23 00
	00		 fcomp	 QWORD PTR [eax+8960]
  009b6	df e0		 fnstsw	 ax
  009b8	f6 c4 41	 test	 ah, 65			; 00000041H
  009bb	75 04		 jne	 SHORT $LN2@Check

; 284  : 	{
; 285  : 		bResult = 0;

  009bd	c6 45 f7 00	 mov	 BYTE PTR _bResult$[ebp], 0
$LN2@Check:

; 286  : 	}
; 287  : 
; 288  : 	//if(g_BuffManagerEx.CheckExBuffData(aIndex, idBuffer) == TRUE )
; 289  : 	if( gObjSearchActiveEffect(lpUser,idBuffer) == TRUE)

  009c1	8b 45 e0	 mov	 eax, DWORD PTR _idBuffer$[ebp]
  009c4	50		 push	 eax
  009c5	8b 4d f8	 mov	 ecx, DWORD PTR _lpUser$[ebp]
  009c8	51		 push	 ecx
  009c9	e8 00 00 00 00	 call	 ?gObjSearchActiveEffect@@YAEPAUOBJECTSTRUCT@@H@Z ; gObjSearchActiveEffect
  009ce	83 c4 08	 add	 esp, 8
  009d1	0f b6 d0	 movzx	 edx, al
  009d4	83 fa 01	 cmp	 edx, 1
  009d7	75 04		 jne	 SHORT $LN1@Check

; 290  : 	{
; 291  : 		bResult = 0;

  009d9	c6 45 f7 00	 mov	 BYTE PTR _bResult$[ebp], 0
$LN1@Check:

; 292  : 	}
; 293  : 
; 294  : 	return bResult;

  009dd	80 7d f7 00	 cmp	 BYTE PTR _bResult$[ebp], 0
  009e1	0f 95 c0	 setne	 al

; 295  : }

  009e4	5f		 pop	 edi
  009e5	5e		 pop	 esi
  009e6	5b		 pop	 ebx
  009e7	8b e5		 mov	 esp, ebp
  009e9	5d		 pop	 ebp
  009ea	c2 08 00	 ret	 8
?Check@BufferSystem@@QAE_NHH@Z ENDP			; BufferSystem::Check
_TEXT	ENDS
PUBLIC	?CG_ResultRecv@BufferSystem@@QAEXHPAUCG_BuffNpcResult@@@Z ; BufferSystem::CG_ResultRecv
EXTRN	?gObjCalCharacter@@YAXH@Z:PROC			; gObjCalCharacter
EXTRN	?gObjApplyBuffEffectDuration@@YAEPAUOBJECTSTRUCT@@HEHEHH@Z:PROC ; gObjApplyBuffEffectDuration
EXTRN	?GDSaveUserInfo@GameShop@@QAEXH@Z:PROC		; GameShop::GDSaveUserInfo
EXTRN	?gGameShop@@3VGameShop@@A:BYTE			; gGameShop
EXTRN	?gObjDeleteItemsCount@@YAHHFFH@Z:PROC		; gObjDeleteItemsCount
EXTRN	?GCMoneySend@@YAXHK@Z:PROC			; GCMoneySend
EXTRN	?ExUserDataSend@@YAXH@Z:PROC			; ExUserDataSend
; Function compile flags: /Odtp /ZI
_TEXT	SEGMENT
_idBuffer$ = -36					; size = 4
_iBonusMoney$ = -32					; size = 4
_iSoulMoney$ = -28					; size = 4
_iBlessMoney$ = -24					; size = 4
_iZenMoney$ = -20					; size = 4
_bResult$ = -13						; size = 1
_lpUser$ = -12						; size = 4
_type$ = -8						; size = 4
_this$ = -4						; size = 4
_aIndex$ = 8						; size = 4
_aRecv$ = 12						; size = 4
?CG_ResultRecv@BufferSystem@@QAEXHPAUCG_BuffNpcResult@@@Z PROC ; BufferSystem::CG_ResultRecv
; _this$ = ecx

; 299  : {

  009f0	55		 push	 ebp
  009f1	8b ec		 mov	 ebp, esp
  009f3	83 ec 64	 sub	 esp, 100		; 00000064H
  009f6	53		 push	 ebx
  009f7	56		 push	 esi
  009f8	57		 push	 edi
  009f9	89 4d fc	 mov	 DWORD PTR _this$[ebp], ecx

; 300  : 	if(!this->Enable)

  009fc	8b 45 fc	 mov	 eax, DWORD PTR _this$[ebp]
  009ff	0f b6 08	 movzx	 ecx, BYTE PTR [eax]
  00a02	85 c9		 test	 ecx, ecx
  00a04	75 05		 jne	 SHORT $LN25@CG_ResultR

; 301  : 	{
; 302  :  		return;

  00a06	e9 a1 03 00 00	 jmp	 $LN26@CG_ResultR
$LN25@CG_ResultR:

; 303  : 	}
; 304  : 
; 305  : 	if(!gObjIsConnectedEx(aIndex))

  00a0b	8b 45 08	 mov	 eax, DWORD PTR _aIndex$[ebp]
  00a0e	50		 push	 eax
  00a0f	e8 00 00 00 00	 call	 ?gObjIsConnectedEx@@YA_NH@Z ; gObjIsConnectedEx
  00a14	83 c4 04	 add	 esp, 4
  00a17	0f b6 c8	 movzx	 ecx, al
  00a1a	85 c9		 test	 ecx, ecx
  00a1c	75 05		 jne	 SHORT $LN24@CG_ResultR

; 306  : 	{
; 307  : 		return;

  00a1e	e9 89 03 00 00	 jmp	 $LN26@CG_ResultR
$LN24@CG_ResultR:

; 308  : 	}
; 309  : 
; 310  : 	if(aRecv->Result < 1 || aRecv->Result > 6)

  00a23	8b 45 0c	 mov	 eax, DWORD PTR _aRecv$[ebp]
  00a26	0f b6 48 04	 movzx	 ecx, BYTE PTR [eax+4]
  00a2a	83 f9 01	 cmp	 ecx, 1
  00a2d	7c 0c		 jl	 SHORT $LN22@CG_ResultR
  00a2f	8b 45 0c	 mov	 eax, DWORD PTR _aRecv$[ebp]
  00a32	0f b6 48 04	 movzx	 ecx, BYTE PTR [eax+4]
  00a36	83 f9 06	 cmp	 ecx, 6
  00a39	7e 05		 jle	 SHORT $LN23@CG_ResultR
$LN22@CG_ResultR:

; 311  : 	{
; 312  : 		return;

  00a3b	e9 6c 03 00 00	 jmp	 $LN26@CG_ResultR
$LN23@CG_ResultR:

; 313  : 	}
; 314  : 
; 315  : 	int type = aRecv->Result;

  00a40	8b 45 0c	 mov	 eax, DWORD PTR _aRecv$[ebp]
  00a43	0f b6 48 04	 movzx	 ecx, BYTE PTR [eax+4]
  00a47	89 4d f8	 mov	 DWORD PTR _type$[ebp], ecx

; 316  : 
; 317  : 	if(!this->Check(aIndex, type))

  00a4a	8b 45 f8	 mov	 eax, DWORD PTR _type$[ebp]
  00a4d	50		 push	 eax
  00a4e	8b 4d 08	 mov	 ecx, DWORD PTR _aIndex$[ebp]
  00a51	51		 push	 ecx
  00a52	8b 4d fc	 mov	 ecx, DWORD PTR _this$[ebp]
  00a55	e8 00 00 00 00	 call	 ?Check@BufferSystem@@QAE_NHH@Z ; BufferSystem::Check
  00a5a	0f b6 d0	 movzx	 edx, al
  00a5d	85 d2		 test	 edx, edx
  00a5f	75 05		 jne	 SHORT $LN21@CG_ResultR

; 318  : 	{
; 319  : 		return;

  00a61	e9 46 03 00 00	 jmp	 $LN26@CG_ResultR
$LN21@CG_ResultR:

; 320  : 	}
; 321  : 
; 322  : 	LPOBJ lpUser = &gObj[aIndex];

  00a66	8b 45 08	 mov	 eax, DWORD PTR _aIndex$[ebp]
  00a69	69 c0 38 2b 00
	00		 imul	 eax, 11064		; 00002b38H
  00a6f	03 05 00 00 00
	00		 add	 eax, DWORD PTR ?gObj@@3PAUOBJECTSTRUCT@@A ; gObj
  00a75	89 45 f4	 mov	 DWORD PTR _lpUser$[ebp], eax

; 323  : 
; 324  : 	BYTE bResult = 1;

  00a78	c6 45 f3 01	 mov	 BYTE PTR _bResult$[ebp], 1

; 325  : 
; 326  : 	int iZenMoney = 0;

  00a7c	c7 45 ec 00 00
	00 00		 mov	 DWORD PTR _iZenMoney$[ebp], 0

; 327  : 	int iBlessMoney = 0;

  00a83	c7 45 e8 00 00
	00 00		 mov	 DWORD PTR _iBlessMoney$[ebp], 0

; 328  : 	int iSoulMoney = 0;

  00a8a	c7 45 e4 00 00
	00 00		 mov	 DWORD PTR _iSoulMoney$[ebp], 0

; 329  : 	int iBonusMoney = 0;

  00a91	c7 45 e0 00 00
	00 00		 mov	 DWORD PTR _iBonusMoney$[ebp], 0

; 330  : 	int idBuffer = AT_NPC_BUFF_EXP;

  00a98	c7 45 dc b0 00
	00 00		 mov	 DWORD PTR _idBuffer$[ebp], 176 ; 000000b0H

; 331  : 
; 332  : 
; 333  : 	if(type == 1)

  00a9f	83 7d f8 01	 cmp	 DWORD PTR _type$[ebp], 1
  00aa3	75 2b		 jne	 SHORT $LN20@CG_ResultR

; 334  : 	{
; 335  : 		iZenMoney = this->Buff1_ZenMoney;

  00aa5	8b 45 fc	 mov	 eax, DWORD PTR _this$[ebp]
  00aa8	8b 48 14	 mov	 ecx, DWORD PTR [eax+20]
  00aab	89 4d ec	 mov	 DWORD PTR _iZenMoney$[ebp], ecx

; 336  : 		iBlessMoney = this->Buff1_JewelOfBless;

  00aae	8b 45 fc	 mov	 eax, DWORD PTR _this$[ebp]
  00ab1	8b 48 18	 mov	 ecx, DWORD PTR [eax+24]
  00ab4	89 4d e8	 mov	 DWORD PTR _iBlessMoney$[ebp], ecx

; 337  : 		iSoulMoney = this->Buff1_JewelOfSoul;

  00ab7	8b 45 fc	 mov	 eax, DWORD PTR _this$[ebp]
  00aba	8b 48 1c	 mov	 ecx, DWORD PTR [eax+28]
  00abd	89 4d e4	 mov	 DWORD PTR _iSoulMoney$[ebp], ecx

; 338  : 		iBonusMoney = this->Buff1_Bonus;

  00ac0	8b 45 fc	 mov	 eax, DWORD PTR _this$[ebp]
  00ac3	8b 48 20	 mov	 ecx, DWORD PTR [eax+32]
  00ac6	89 4d e0	 mov	 DWORD PTR _iBonusMoney$[ebp], ecx

; 339  : 		idBuffer = AT_NPC_BUFF_EXP;

  00ac9	c7 45 dc b0 00
	00 00		 mov	 DWORD PTR _idBuffer$[ebp], 176 ; 000000b0H
$LN20@CG_ResultR:

; 340  : 	}
; 341  : 	if(type == 2)

  00ad0	83 7d f8 02	 cmp	 DWORD PTR _type$[ebp], 2
  00ad4	75 2b		 jne	 SHORT $LN19@CG_ResultR

; 342  : 	{
; 343  : 		iZenMoney = this->Buff2_ZenMoney;

  00ad6	8b 45 fc	 mov	 eax, DWORD PTR _this$[ebp]
  00ad9	8b 48 24	 mov	 ecx, DWORD PTR [eax+36]
  00adc	89 4d ec	 mov	 DWORD PTR _iZenMoney$[ebp], ecx

; 344  : 		iBlessMoney = this->Buff2_JewelOfBless;

  00adf	8b 45 fc	 mov	 eax, DWORD PTR _this$[ebp]
  00ae2	8b 48 28	 mov	 ecx, DWORD PTR [eax+40]
  00ae5	89 4d e8	 mov	 DWORD PTR _iBlessMoney$[ebp], ecx

; 345  : 		iSoulMoney = this->Buff2_JewelOfSoul;

  00ae8	8b 45 fc	 mov	 eax, DWORD PTR _this$[ebp]
  00aeb	8b 48 2c	 mov	 ecx, DWORD PTR [eax+44]
  00aee	89 4d e4	 mov	 DWORD PTR _iSoulMoney$[ebp], ecx

; 346  : 		iBonusMoney = this->Buff2_Bonus;

  00af1	8b 45 fc	 mov	 eax, DWORD PTR _this$[ebp]
  00af4	8b 48 30	 mov	 ecx, DWORD PTR [eax+48]
  00af7	89 4d e0	 mov	 DWORD PTR _iBonusMoney$[ebp], ecx

; 347  : 		idBuffer = AT_NPC_BUFF_DAMAGE;

  00afa	c7 45 dc b1 00
	00 00		 mov	 DWORD PTR _idBuffer$[ebp], 177 ; 000000b1H
$LN19@CG_ResultR:

; 348  : 	}
; 349  : 	if(type == 3)

  00b01	83 7d f8 03	 cmp	 DWORD PTR _type$[ebp], 3
  00b05	75 2b		 jne	 SHORT $LN18@CG_ResultR

; 350  : 	{
; 351  : 		iZenMoney = this->Buff3_ZenMoney;

  00b07	8b 45 fc	 mov	 eax, DWORD PTR _this$[ebp]
  00b0a	8b 48 34	 mov	 ecx, DWORD PTR [eax+52]
  00b0d	89 4d ec	 mov	 DWORD PTR _iZenMoney$[ebp], ecx

; 352  : 		iBlessMoney = this->Buff3_JewelOfBless;

  00b10	8b 45 fc	 mov	 eax, DWORD PTR _this$[ebp]
  00b13	8b 48 38	 mov	 ecx, DWORD PTR [eax+56]
  00b16	89 4d e8	 mov	 DWORD PTR _iBlessMoney$[ebp], ecx

; 353  : 		iSoulMoney = this->Buff3_JewelOfSoul;

  00b19	8b 45 fc	 mov	 eax, DWORD PTR _this$[ebp]
  00b1c	8b 48 3c	 mov	 ecx, DWORD PTR [eax+60]
  00b1f	89 4d e4	 mov	 DWORD PTR _iSoulMoney$[ebp], ecx

; 354  : 		iBonusMoney = this->Buff3_Bonus;

  00b22	8b 45 fc	 mov	 eax, DWORD PTR _this$[ebp]
  00b25	8b 48 40	 mov	 ecx, DWORD PTR [eax+64]
  00b28	89 4d e0	 mov	 DWORD PTR _iBonusMoney$[ebp], ecx

; 355  : 		idBuffer = AT_NPC_BUFF_DEFENCE;

  00b2b	c7 45 dc b2 00
	00 00		 mov	 DWORD PTR _idBuffer$[ebp], 178 ; 000000b2H
$LN18@CG_ResultR:

; 356  : 	}
; 357  : 	if(type == 4)

  00b32	83 7d f8 04	 cmp	 DWORD PTR _type$[ebp], 4
  00b36	75 2b		 jne	 SHORT $LN17@CG_ResultR

; 358  : 	{
; 359  : 		iZenMoney = this->Buff4_ZenMoney;

  00b38	8b 45 fc	 mov	 eax, DWORD PTR _this$[ebp]
  00b3b	8b 48 44	 mov	 ecx, DWORD PTR [eax+68]
  00b3e	89 4d ec	 mov	 DWORD PTR _iZenMoney$[ebp], ecx

; 360  : 		iBlessMoney = this->Buff4_JewelOfBless;

  00b41	8b 45 fc	 mov	 eax, DWORD PTR _this$[ebp]
  00b44	8b 48 48	 mov	 ecx, DWORD PTR [eax+72]
  00b47	89 4d e8	 mov	 DWORD PTR _iBlessMoney$[ebp], ecx

; 361  : 		iSoulMoney = this->Buff4_JewelOfSoul;

  00b4a	8b 45 fc	 mov	 eax, DWORD PTR _this$[ebp]
  00b4d	8b 48 4c	 mov	 ecx, DWORD PTR [eax+76]
  00b50	89 4d e4	 mov	 DWORD PTR _iSoulMoney$[ebp], ecx

; 362  : 		iBonusMoney = this->Buff4_Bonus;

  00b53	8b 45 fc	 mov	 eax, DWORD PTR _this$[ebp]
  00b56	8b 48 50	 mov	 ecx, DWORD PTR [eax+80]
  00b59	89 4d e0	 mov	 DWORD PTR _iBonusMoney$[ebp], ecx

; 363  : 		idBuffer = AT_NPC_BUFF_EXL_CRIT;

  00b5c	c7 45 dc b3 00
	00 00		 mov	 DWORD PTR _idBuffer$[ebp], 179 ; 000000b3H
$LN17@CG_ResultR:

; 364  : 	}
; 365  : 	if(type == 5)

  00b63	83 7d f8 05	 cmp	 DWORD PTR _type$[ebp], 5
  00b67	75 2b		 jne	 SHORT $LN16@CG_ResultR

; 366  : 	{
; 367  : 		iZenMoney = this->Buff5_ZenMoney;

  00b69	8b 45 fc	 mov	 eax, DWORD PTR _this$[ebp]
  00b6c	8b 48 54	 mov	 ecx, DWORD PTR [eax+84]
  00b6f	89 4d ec	 mov	 DWORD PTR _iZenMoney$[ebp], ecx

; 368  : 		iBlessMoney = this->Buff5_JewelOfBless;

  00b72	8b 45 fc	 mov	 eax, DWORD PTR _this$[ebp]
  00b75	8b 48 58	 mov	 ecx, DWORD PTR [eax+88]
  00b78	89 4d e8	 mov	 DWORD PTR _iBlessMoney$[ebp], ecx

; 369  : 		iSoulMoney = this->Buff5_JewelOfSoul;

  00b7b	8b 45 fc	 mov	 eax, DWORD PTR _this$[ebp]
  00b7e	8b 48 5c	 mov	 ecx, DWORD PTR [eax+92]
  00b81	89 4d e4	 mov	 DWORD PTR _iSoulMoney$[ebp], ecx

; 370  : 		iBonusMoney = this->Buff5_Bonus;

  00b84	8b 45 fc	 mov	 eax, DWORD PTR _this$[ebp]
  00b87	8b 48 60	 mov	 ecx, DWORD PTR [eax+96]
  00b8a	89 4d e0	 mov	 DWORD PTR _iBonusMoney$[ebp], ecx

; 371  : 		idBuffer = AT_NPC_BUFF_DROP;

  00b8d	c7 45 dc b4 00
	00 00		 mov	 DWORD PTR _idBuffer$[ebp], 180 ; 000000b4H
$LN16@CG_ResultR:

; 372  : 	}
; 373  : 	if(type == 6)

  00b94	83 7d f8 06	 cmp	 DWORD PTR _type$[ebp], 6
  00b98	75 2b		 jne	 SHORT $LN15@CG_ResultR

; 374  : 	{
; 375  : 		iZenMoney = this->Buff6_ZenMoney;

  00b9a	8b 45 fc	 mov	 eax, DWORD PTR _this$[ebp]
  00b9d	8b 48 64	 mov	 ecx, DWORD PTR [eax+100]
  00ba0	89 4d ec	 mov	 DWORD PTR _iZenMoney$[ebp], ecx

; 376  : 		iBlessMoney = this->Buff6_JewelOfBless;

  00ba3	8b 45 fc	 mov	 eax, DWORD PTR _this$[ebp]
  00ba6	8b 48 68	 mov	 ecx, DWORD PTR [eax+104]
  00ba9	89 4d e8	 mov	 DWORD PTR _iBlessMoney$[ebp], ecx

; 377  : 		iSoulMoney = this->Buff6_JewelOfSoul;

  00bac	8b 45 fc	 mov	 eax, DWORD PTR _this$[ebp]
  00baf	8b 48 6c	 mov	 ecx, DWORD PTR [eax+108]
  00bb2	89 4d e4	 mov	 DWORD PTR _iSoulMoney$[ebp], ecx

; 378  : 		iBonusMoney = this->Buff6_Bonus;

  00bb5	8b 45 fc	 mov	 eax, DWORD PTR _this$[ebp]
  00bb8	8b 48 70	 mov	 ecx, DWORD PTR [eax+112]
  00bbb	89 4d e0	 mov	 DWORD PTR _iBonusMoney$[ebp], ecx

; 379  : 		idBuffer = AT_NPC_BUFF_DOUBLE;

  00bbe	c7 45 dc b5 00
	00 00		 mov	 DWORD PTR _idBuffer$[ebp], 181 ; 000000b5H
$LN15@CG_ResultR:

; 380  : 	}
; 381  : 
; 382  : 	if(iZenMoney > 0)

  00bc5	83 7d ec 00	 cmp	 DWORD PTR _iZenMoney$[ebp], 0
  00bc9	0f 8e 9a 00 00
	00		 jle	 $LN11@CG_ResultR

; 383  : 	{
; 384  : 		if(g_ExLicense.CheckUser(eExUB::Local) || g_ExLicense.CheckUser(eExUB::Gredy) || g_ExLicense.CheckUser(eExUB::GredyLocal) || g_ExLicense.CheckUser(eExUB::Gredy2))

  00bcf	6a 00		 push	 0
  00bd1	b9 00 00 00 00	 mov	 ecx, OFFSET ?g_ExLicense@@3VCExLicense@@A ; g_ExLicense
  00bd6	e8 00 00 00 00	 call	 ?CheckUser@CExLicense@@QAE_NH@Z ; CExLicense::CheckUser
  00bdb	0f b6 c0	 movzx	 eax, al
  00bde	85 c0		 test	 eax, eax
  00be0	75 39		 jne	 SHORT $LN12@CG_ResultR
  00be2	6a 20		 push	 32			; 00000020H
  00be4	b9 00 00 00 00	 mov	 ecx, OFFSET ?g_ExLicense@@3VCExLicense@@A ; g_ExLicense
  00be9	e8 00 00 00 00	 call	 ?CheckUser@CExLicense@@QAE_NH@Z ; CExLicense::CheckUser
  00bee	0f b6 c0	 movzx	 eax, al
  00bf1	85 c0		 test	 eax, eax
  00bf3	75 26		 jne	 SHORT $LN12@CG_ResultR
  00bf5	6a 21		 push	 33			; 00000021H
  00bf7	b9 00 00 00 00	 mov	 ecx, OFFSET ?g_ExLicense@@3VCExLicense@@A ; g_ExLicense
  00bfc	e8 00 00 00 00	 call	 ?CheckUser@CExLicense@@QAE_NH@Z ; CExLicense::CheckUser
  00c01	0f b6 c0	 movzx	 eax, al
  00c04	85 c0		 test	 eax, eax
  00c06	75 13		 jne	 SHORT $LN12@CG_ResultR
  00c08	6a 22		 push	 34			; 00000022H
  00c0a	b9 00 00 00 00	 mov	 ecx, OFFSET ?g_ExLicense@@3VCExLicense@@A ; g_ExLicense
  00c0f	e8 00 00 00 00	 call	 ?CheckUser@CExLicense@@QAE_NH@Z ; CExLicense::CheckUser
  00c14	0f b6 c0	 movzx	 eax, al
  00c17	85 c0		 test	 eax, eax
  00c19	74 23		 je	 SHORT $LN13@CG_ResultR
$LN12@CG_ResultR:

; 385  : 		{
; 386  : 			lpUser->ExCred -= iZenMoney;

  00c1b	db 45 ec	 fild	 DWORD PTR _iZenMoney$[ebp]
  00c1e	8b 45 f4	 mov	 eax, DWORD PTR _lpUser$[ebp]
  00c21	d8 a8 a8 22 00
	00		 fsubr	 DWORD PTR [eax+8872]
  00c27	8b 4d f4	 mov	 ecx, DWORD PTR _lpUser$[ebp]
  00c2a	d9 99 a8 22 00
	00		 fstp	 DWORD PTR [ecx+8872]

; 387  : 			ExUserDataSend(aIndex);

  00c30	8b 45 08	 mov	 eax, DWORD PTR _aIndex$[ebp]
  00c33	50		 push	 eax
  00c34	e8 00 00 00 00	 call	 ?ExUserDataSend@@YAXH@Z	; ExUserDataSend
  00c39	83 c4 04	 add	 esp, 4

; 388  : 		}
; 389  : 		else

  00c3c	eb 2b		 jmp	 SHORT $LN11@CG_ResultR
$LN13@CG_ResultR:

; 390  : 		{
; 391  : 			lpUser->Money -= iZenMoney;

  00c3e	8b 45 f4	 mov	 eax, DWORD PTR _lpUser$[ebp]
  00c41	8b 88 f0 00 00
	00		 mov	 ecx, DWORD PTR [eax+240]
  00c47	2b 4d ec	 sub	 ecx, DWORD PTR _iZenMoney$[ebp]
  00c4a	8b 55 f4	 mov	 edx, DWORD PTR _lpUser$[ebp]
  00c4d	89 8a f0 00 00
	00		 mov	 DWORD PTR [edx+240], ecx

; 392  : 			GCMoneySend(aIndex,lpUser->Money);

  00c53	8b 45 f4	 mov	 eax, DWORD PTR _lpUser$[ebp]
  00c56	8b 88 f0 00 00
	00		 mov	 ecx, DWORD PTR [eax+240]
  00c5c	51		 push	 ecx
  00c5d	8b 55 08	 mov	 edx, DWORD PTR _aIndex$[ebp]
  00c60	52		 push	 edx
  00c61	e8 00 00 00 00	 call	 ?GCMoneySend@@YAXHK@Z	; GCMoneySend
  00c66	83 c4 08	 add	 esp, 8
$LN11@CG_ResultR:

; 393  : 		}
; 394  : 	}
; 395  : 	if(iBlessMoney > 0)

  00c69	83 7d e8 00	 cmp	 DWORD PTR _iBlessMoney$[ebp], 0
  00c6d	7e 17		 jle	 SHORT $LN10@CG_ResultR

; 396  : 	{
; 397  : 		gObjDeleteItemsCount(aIndex, ITEMGET(14,13), 0, iBlessMoney);

  00c6f	8b 45 e8	 mov	 eax, DWORD PTR _iBlessMoney$[ebp]
  00c72	50		 push	 eax
  00c73	6a 00		 push	 0
  00c75	68 0d 1c 00 00	 push	 7181			; 00001c0dH
  00c7a	8b 4d 08	 mov	 ecx, DWORD PTR _aIndex$[ebp]
  00c7d	51		 push	 ecx
  00c7e	e8 00 00 00 00	 call	 ?gObjDeleteItemsCount@@YAHHFFH@Z ; gObjDeleteItemsCount
  00c83	83 c4 10	 add	 esp, 16			; 00000010H
$LN10@CG_ResultR:

; 398  : 	}
; 399  : 	if(iSoulMoney > 0)

  00c86	83 7d e4 00	 cmp	 DWORD PTR _iSoulMoney$[ebp], 0
  00c8a	7e 17		 jle	 SHORT $LN9@CG_ResultR

; 400  : 	{
; 401  : 		gObjDeleteItemsCount(aIndex, ITEMGET(14,14), 0, iSoulMoney);

  00c8c	8b 45 e4	 mov	 eax, DWORD PTR _iSoulMoney$[ebp]
  00c8f	50		 push	 eax
  00c90	6a 00		 push	 0
  00c92	68 0e 1c 00 00	 push	 7182			; 00001c0eH
  00c97	8b 4d 08	 mov	 ecx, DWORD PTR _aIndex$[ebp]
  00c9a	51		 push	 ecx
  00c9b	e8 00 00 00 00	 call	 ?gObjDeleteItemsCount@@YAHHFFH@Z ; gObjDeleteItemsCount
  00ca0	83 c4 10	 add	 esp, 16			; 00000010H
$LN9@CG_ResultR:

; 402  : 	}
; 403  : 	if(iBonusMoney > 0)

  00ca3	83 7d e0 00	 cmp	 DWORD PTR _iBonusMoney$[ebp], 0
  00ca7	7e 2f		 jle	 SHORT $LN8@CG_ResultR

; 404  : 	{
; 405  : 		lpUser->GameShop.WCoinC -= iBonusMoney;

  00ca9	db 45 e0	 fild	 DWORD PTR _iBonusMoney$[ebp]
  00cac	8b 45 f4	 mov	 eax, DWORD PTR _lpUser$[ebp]
  00caf	dc a8 00 23 00
	00		 fsubr	 QWORD PTR [eax+8960]
  00cb5	8b 4d f4	 mov	 ecx, DWORD PTR _lpUser$[ebp]
  00cb8	dd 99 00 23 00
	00		 fstp	 QWORD PTR [ecx+8960]

; 406  : 		gGameShop.GDSaveUserInfo(aIndex);

  00cbe	8b 45 08	 mov	 eax, DWORD PTR _aIndex$[ebp]
  00cc1	50		 push	 eax
  00cc2	b9 00 00 00 00	 mov	 ecx, OFFSET ?gGameShop@@3VGameShop@@A ; gGameShop
  00cc7	e8 00 00 00 00	 call	 ?GDSaveUserInfo@GameShop@@QAEXH@Z ; GameShop::GDSaveUserInfo

; 407  : 		ExUserDataSend(aIndex);

  00ccc	8b 45 08	 mov	 eax, DWORD PTR _aIndex$[ebp]
  00ccf	50		 push	 eax
  00cd0	e8 00 00 00 00	 call	 ?ExUserDataSend@@YAXH@Z	; ExUserDataSend
  00cd5	83 c4 04	 add	 esp, 4
$LN8@CG_ResultR:

; 408  : 	}
; 409  : 
; 410  : 	//if(g_BuffManagerEx.CheckExBuffData(aIndex, idBuffer) == FALSE )
; 411  : 	if( gObjSearchActiveEffect(lpUser,idBuffer) == FALSE)

  00cd8	8b 45 dc	 mov	 eax, DWORD PTR _idBuffer$[ebp]
  00cdb	50		 push	 eax
  00cdc	8b 4d f4	 mov	 ecx, DWORD PTR _lpUser$[ebp]
  00cdf	51		 push	 ecx
  00ce0	e8 00 00 00 00	 call	 ?gObjSearchActiveEffect@@YAEPAUOBJECTSTRUCT@@H@Z ; gObjSearchActiveEffect
  00ce5	83 c4 08	 add	 esp, 8
  00ce8	0f b6 d0	 movzx	 edx, al
  00ceb	85 d2		 test	 edx, edx
  00ced	0f 85 ad 00 00
	00		 jne	 $LN7@CG_ResultR

; 412  : 	{
; 413  : 		// --
; 414  : 		if(idBuffer == AT_NPC_BUFF_EXP)

  00cf3	81 7d dc b0 00
	00 00		 cmp	 DWORD PTR _idBuffer$[ebp], 176 ; 000000b0H
  00cfa	75 0d		 jne	 SHORT $LN6@CG_ResultR

; 415  : 		{
; 416  : 			lpUser->ExpBuffTime = 86400;

  00cfc	8b 45 f4	 mov	 eax, DWORD PTR _lpUser$[ebp]
  00cff	c7 80 90 28 00
	00 80 51 01 00	 mov	 DWORD PTR [eax+10384], 86400 ; 00015180H
$LN6@CG_ResultR:

; 417  : 		}
; 418  : 		// --
; 419  : 		if(idBuffer == AT_NPC_BUFF_DAMAGE)

  00d09	81 7d dc b1 00
	00 00		 cmp	 DWORD PTR _idBuffer$[ebp], 177 ; 000000b1H
  00d10	75 0d		 jne	 SHORT $LN5@CG_ResultR

; 420  : 		{
; 421  : 			lpUser->DamageBuffTime = 86400;

  00d12	8b 45 f4	 mov	 eax, DWORD PTR _lpUser$[ebp]
  00d15	c7 80 94 28 00
	00 80 51 01 00	 mov	 DWORD PTR [eax+10388], 86400 ; 00015180H
$LN5@CG_ResultR:

; 422  : 		}
; 423  : 		// --
; 424  : 		if(idBuffer == AT_NPC_BUFF_DEFENCE)

  00d1f	81 7d dc b2 00
	00 00		 cmp	 DWORD PTR _idBuffer$[ebp], 178 ; 000000b2H
  00d26	75 0d		 jne	 SHORT $LN4@CG_ResultR

; 425  : 		{
; 426  : 			lpUser->DefenceBuffTime = 86400;

  00d28	8b 45 f4	 mov	 eax, DWORD PTR _lpUser$[ebp]
  00d2b	c7 80 98 28 00
	00 80 51 01 00	 mov	 DWORD PTR [eax+10392], 86400 ; 00015180H
$LN4@CG_ResultR:

; 427  : 		}
; 428  : 		// --
; 429  : 		if(idBuffer == AT_NPC_BUFF_EXL_CRIT)

  00d35	81 7d dc b3 00
	00 00		 cmp	 DWORD PTR _idBuffer$[ebp], 179 ; 000000b3H
  00d3c	75 0d		 jne	 SHORT $LN3@CG_ResultR

; 430  : 		{
; 431  : 			lpUser->BattleBuffTime = 86400;

  00d3e	8b 45 f4	 mov	 eax, DWORD PTR _lpUser$[ebp]
  00d41	c7 80 9c 28 00
	00 80 51 01 00	 mov	 DWORD PTR [eax+10396], 86400 ; 00015180H
$LN3@CG_ResultR:

; 432  : 		}
; 433  : 		// --
; 434  : 		if(idBuffer == AT_NPC_BUFF_DROP)

  00d4b	81 7d dc b4 00
	00 00		 cmp	 DWORD PTR _idBuffer$[ebp], 180 ; 000000b4H
  00d52	75 0d		 jne	 SHORT $LN2@CG_ResultR

; 435  : 		{
; 436  : 			lpUser->DropBuffTime = 86400;

  00d54	8b 45 f4	 mov	 eax, DWORD PTR _lpUser$[ebp]
  00d57	c7 80 a0 28 00
	00 80 51 01 00	 mov	 DWORD PTR [eax+10400], 86400 ; 00015180H
$LN2@CG_ResultR:

; 437  : 		}
; 438  : 		// --
; 439  : 		if(idBuffer == AT_NPC_BUFF_DOUBLE)

  00d61	81 7d dc b5 00
	00 00		 cmp	 DWORD PTR _idBuffer$[ebp], 181 ; 000000b5H
  00d68	75 0d		 jne	 SHORT $LN1@CG_ResultR

; 440  : 		{
; 441  : 			lpUser->DoubleBuffTime = 86400;

  00d6a	8b 45 f4	 mov	 eax, DWORD PTR _lpUser$[ebp]
  00d6d	c7 80 a4 28 00
	00 80 51 01 00	 mov	 DWORD PTR [eax+10404], 86400 ; 00015180H
$LN1@CG_ResultR:

; 442  : 		}
; 443  : 		// --
; 444  : 
; 445  : 		//g_BuffManagerEx.AddExBuffData(aIndex, idBuffer, 86400);
; 446  : 		gObjApplyBuffEffectDuration(lpUser, idBuffer, 0, 0, 0, 0, 86400);

  00d77	68 80 51 01 00	 push	 86400			; 00015180H
  00d7c	6a 00		 push	 0
  00d7e	6a 00		 push	 0
  00d80	6a 00		 push	 0
  00d82	6a 00		 push	 0
  00d84	8b 45 dc	 mov	 eax, DWORD PTR _idBuffer$[ebp]
  00d87	50		 push	 eax
  00d88	8b 4d f4	 mov	 ecx, DWORD PTR _lpUser$[ebp]
  00d8b	51		 push	 ecx
  00d8c	e8 00 00 00 00	 call	 ?gObjApplyBuffEffectDuration@@YAEPAUOBJECTSTRUCT@@HEHEHH@Z ; gObjApplyBuffEffectDuration
  00d91	83 c4 1c	 add	 esp, 28			; 0000001cH

; 447  : 
; 448  : 		this->GC_OpenWindow(aIndex);

  00d94	8b 45 08	 mov	 eax, DWORD PTR _aIndex$[ebp]
  00d97	50		 push	 eax
  00d98	8b 4d fc	 mov	 ecx, DWORD PTR _this$[ebp]
  00d9b	e8 00 00 00 00	 call	 ?GC_OpenWindow@BufferSystem@@QAEXH@Z ; BufferSystem::GC_OpenWindow
$LN7@CG_ResultR:

; 449  : 	}
; 450  : 
; 451  : 	gObjCalCharacter(aIndex);

  00da0	8b 45 08	 mov	 eax, DWORD PTR _aIndex$[ebp]
  00da3	50		 push	 eax
  00da4	e8 00 00 00 00	 call	 ?gObjCalCharacter@@YAXH@Z ; gObjCalCharacter
  00da9	83 c4 04	 add	 esp, 4
$LN26@CG_ResultR:

; 452  : 
; 453  : 	//g_ExUser.UpdateCharEx(aIndex);
; 454  : 
; 455  : }

  00dac	5f		 pop	 edi
  00dad	5e		 pop	 esi
  00dae	5b		 pop	 ebx
  00daf	8b e5		 mov	 esp, ebp
  00db1	5d		 pop	 ebp
  00db2	c2 08 00	 ret	 8
?CG_ResultRecv@BufferSystem@@QAEXHPAUCG_BuffNpcResult@@@Z ENDP ; BufferSystem::CG_ResultRecv
_TEXT	ENDS
PUBLIC	??_C@_0O@CKAEPJAF@error?5?3?5?$CFs?5?$CFd?$AA@	; `string'
PUBLIC	??_C@_0EE@HNMADOPO@d?3?2projects?2exteam6?43?2source?2gam@ ; `string'
PUBLIC	?__LINE__Var@?1??Timer@BufferSystem@@QAEXH@Z@4JA ; `BufferSystem::Timer'::`2'::__LINE__Var
PUBLIC	?Timer@BufferSystem@@QAEXH@Z			; BufferSystem::Timer
EXTRN	?LogAdd@@3P6AXPADZZA:DWORD			; LogAdd
;	COMDAT ??_C@_0O@CKAEPJAF@error?5?3?5?$CFs?5?$CFd?$AA@
CONST	SEGMENT
??_C@_0O@CKAEPJAF@error?5?3?5?$CFs?5?$CFd?$AA@ DB 'error : %s %d', 00H ; `string'
CONST	ENDS
;	COMDAT ??_C@_0EE@HNMADOPO@d?3?2projects?2exteam6?43?2source?2gam@
CONST	SEGMENT
??_C@_0EE@HNMADOPO@d?3?2projects?2exteam6?43?2source?2gam@ DB 'd:\project'
	DB	's\exteam6.3\source\gameserver\gameserver\buffersystem.cpp', 00H ; `string'
CONST	ENDS
;	COMDAT ?__LINE__Var@?1??Timer@BufferSystem@@QAEXH@Z@4JA
_DATA	SEGMENT
?__LINE__Var@?1??Timer@BufferSystem@@QAEXH@Z@4JA DD 01cbH ; `BufferSystem::Timer'::`2'::__LINE__Var
; Function compile flags: /Odtp /ZI
_DATA	ENDS
_TEXT	SEGMENT
tv69 = -76						; size = 4
_lpUser$ = -8						; size = 4
_this$ = -4						; size = 4
_aIndex$ = 8						; size = 4
?Timer@BufferSystem@@QAEXH@Z PROC			; BufferSystem::Timer
; _this$ = ecx

; 459  : {

  00dc0	55		 push	 ebp
  00dc1	8b ec		 mov	 ebp, esp
  00dc3	83 ec 4c	 sub	 esp, 76			; 0000004cH
  00dc6	53		 push	 ebx
  00dc7	56		 push	 esi
  00dc8	57		 push	 edi
  00dc9	89 4d fc	 mov	 DWORD PTR _this$[ebp], ecx

; 460  : 	if(!this->Enable)

  00dcc	8b 45 fc	 mov	 eax, DWORD PTR _this$[ebp]
  00dcf	0f b6 08	 movzx	 ecx, BYTE PTR [eax]
  00dd2	85 c9		 test	 ecx, ecx
  00dd4	75 05		 jne	 SHORT $LN9@Timer

; 461  : 	{
; 462  : 		return;

  00dd6	e9 2b 01 00 00	 jmp	 $LN10@Timer
$LN9@Timer:

; 463  : 	}
; 464  : 
; 465  : 	if ( OBJMAX_RANGE(aIndex) == FALSE )

  00ddb	83 7d 08 00	 cmp	 DWORD PTR _aIndex$[ebp], 0
  00ddf	7d 09		 jge	 SHORT $LN12@Timer
  00de1	c7 45 b4 00 00
	00 00		 mov	 DWORD PTR tv69[ebp], 0
  00de8	eb 0f		 jmp	 SHORT $LN13@Timer
$LN12@Timer:
  00dea	33 c0		 xor	 eax, eax
  00dec	81 7d 08 97 3a
	00 00		 cmp	 DWORD PTR _aIndex$[ebp], 14999 ; 00003a97H
  00df3	0f 9e c0	 setle	 al
  00df6	89 45 b4	 mov	 DWORD PTR tv69[ebp], eax
$LN13@Timer:
  00df9	83 7d b4 00	 cmp	 DWORD PTR tv69[ebp], 0
  00dfd	75 21		 jne	 SHORT $LN8@Timer

; 466  : 	{
; 467  : 		LogAdd("error : %s %d", __FILE__, __LINE__ );

  00dff	a1 00 00 00 00	 mov	 eax, DWORD PTR ?__LINE__Var@?1??Timer@BufferSystem@@QAEXH@Z@4JA
  00e04	83 c0 08	 add	 eax, 8
  00e07	50		 push	 eax
  00e08	68 00 00 00 00	 push	 OFFSET ??_C@_0EE@HNMADOPO@d?3?2projects?2exteam6?43?2source?2gam@
  00e0d	68 00 00 00 00	 push	 OFFSET ??_C@_0O@CKAEPJAF@error?5?3?5?$CFs?5?$CFd?$AA@
  00e12	ff 15 00 00 00
	00		 call	 DWORD PTR ?LogAdd@@3P6AXPADZZA ; LogAdd
  00e18	83 c4 0c	 add	 esp, 12			; 0000000cH

; 468  : 		return;

  00e1b	e9 e6 00 00 00	 jmp	 $LN10@Timer
$LN8@Timer:

; 469  : 	}
; 470  : 
; 471  : 	LPOBJ lpUser = &gObj[aIndex];

  00e20	8b 45 08	 mov	 eax, DWORD PTR _aIndex$[ebp]
  00e23	69 c0 38 2b 00
	00		 imul	 eax, 11064		; 00002b38H
  00e29	03 05 00 00 00
	00		 add	 eax, DWORD PTR ?gObj@@3PAUOBJECTSTRUCT@@A ; gObj
  00e2f	89 45 f8	 mov	 DWORD PTR _lpUser$[ebp], eax

; 472  : 
; 473  : 	if(lpUser->Connected < PLAYER_PLAYING)

  00e32	8b 45 f8	 mov	 eax, DWORD PTR _lpUser$[ebp]
  00e35	83 78 04 03	 cmp	 DWORD PTR [eax+4], 3
  00e39	7d 05		 jge	 SHORT $LN7@Timer

; 474  : 	{
; 475  : 		return;

  00e3b	e9 c6 00 00 00	 jmp	 $LN10@Timer
$LN7@Timer:

; 476  : 	}
; 477  : 	// --
; 478  : 	if(lpUser->ExpBuffTime > 0)

  00e40	8b 45 f8	 mov	 eax, DWORD PTR _lpUser$[ebp]
  00e43	83 b8 90 28 00
	00 00		 cmp	 DWORD PTR [eax+10384], 0
  00e4a	76 15		 jbe	 SHORT $LN6@Timer

; 479  : 	{
; 480  : 		lpUser->ExpBuffTime--;

  00e4c	8b 45 f8	 mov	 eax, DWORD PTR _lpUser$[ebp]
  00e4f	8b 88 90 28 00
	00		 mov	 ecx, DWORD PTR [eax+10384]
  00e55	83 e9 01	 sub	 ecx, 1
  00e58	8b 55 f8	 mov	 edx, DWORD PTR _lpUser$[ebp]
  00e5b	89 8a 90 28 00
	00		 mov	 DWORD PTR [edx+10384], ecx
$LN6@Timer:

; 481  : 	}
; 482  : 	// --
; 483  : 	if(lpUser->DamageBuffTime > 0)

  00e61	8b 45 f8	 mov	 eax, DWORD PTR _lpUser$[ebp]
  00e64	83 b8 94 28 00
	00 00		 cmp	 DWORD PTR [eax+10388], 0
  00e6b	76 15		 jbe	 SHORT $LN5@Timer

; 484  : 	{
; 485  : 		lpUser->DamageBuffTime--;

  00e6d	8b 45 f8	 mov	 eax, DWORD PTR _lpUser$[ebp]
  00e70	8b 88 94 28 00
	00		 mov	 ecx, DWORD PTR [eax+10388]
  00e76	83 e9 01	 sub	 ecx, 1
  00e79	8b 55 f8	 mov	 edx, DWORD PTR _lpUser$[ebp]
  00e7c	89 8a 94 28 00
	00		 mov	 DWORD PTR [edx+10388], ecx
$LN5@Timer:

; 486  : 	}
; 487  : 	// --
; 488  : 	if(lpUser->DefenceBuffTime > 0)

  00e82	8b 45 f8	 mov	 eax, DWORD PTR _lpUser$[ebp]
  00e85	83 b8 98 28 00
	00 00		 cmp	 DWORD PTR [eax+10392], 0
  00e8c	76 15		 jbe	 SHORT $LN4@Timer

; 489  : 	{
; 490  : 		lpUser->DefenceBuffTime--;

  00e8e	8b 45 f8	 mov	 eax, DWORD PTR _lpUser$[ebp]
  00e91	8b 88 98 28 00
	00		 mov	 ecx, DWORD PTR [eax+10392]
  00e97	83 e9 01	 sub	 ecx, 1
  00e9a	8b 55 f8	 mov	 edx, DWORD PTR _lpUser$[ebp]
  00e9d	89 8a 98 28 00
	00		 mov	 DWORD PTR [edx+10392], ecx
$LN4@Timer:

; 491  : 	}
; 492  : 	// --
; 493  : 	if(lpUser->BattleBuffTime > 0)

  00ea3	8b 45 f8	 mov	 eax, DWORD PTR _lpUser$[ebp]
  00ea6	83 b8 9c 28 00
	00 00		 cmp	 DWORD PTR [eax+10396], 0
  00ead	76 15		 jbe	 SHORT $LN3@Timer

; 494  : 	{
; 495  : 		lpUser->BattleBuffTime--;

  00eaf	8b 45 f8	 mov	 eax, DWORD PTR _lpUser$[ebp]
  00eb2	8b 88 9c 28 00
	00		 mov	 ecx, DWORD PTR [eax+10396]
  00eb8	83 e9 01	 sub	 ecx, 1
  00ebb	8b 55 f8	 mov	 edx, DWORD PTR _lpUser$[ebp]
  00ebe	89 8a 9c 28 00
	00		 mov	 DWORD PTR [edx+10396], ecx
$LN3@Timer:

; 496  : 	}
; 497  : 	// --
; 498  : 	if(lpUser->DropBuffTime > 0)

  00ec4	8b 45 f8	 mov	 eax, DWORD PTR _lpUser$[ebp]
  00ec7	83 b8 a0 28 00
	00 00		 cmp	 DWORD PTR [eax+10400], 0
  00ece	76 15		 jbe	 SHORT $LN2@Timer

; 499  : 	{
; 500  : 		lpUser->DropBuffTime--;

  00ed0	8b 45 f8	 mov	 eax, DWORD PTR _lpUser$[ebp]
  00ed3	8b 88 a0 28 00
	00		 mov	 ecx, DWORD PTR [eax+10400]
  00ed9	83 e9 01	 sub	 ecx, 1
  00edc	8b 55 f8	 mov	 edx, DWORD PTR _lpUser$[ebp]
  00edf	89 8a a0 28 00
	00		 mov	 DWORD PTR [edx+10400], ecx
$LN2@Timer:

; 501  : 	}
; 502  : 	// --
; 503  : 	if(lpUser->DoubleBuffTime > 0)

  00ee5	8b 45 f8	 mov	 eax, DWORD PTR _lpUser$[ebp]
  00ee8	83 b8 a4 28 00
	00 00		 cmp	 DWORD PTR [eax+10404], 0
  00eef	76 15		 jbe	 SHORT $LN10@Timer

; 504  : 	{
; 505  : 		lpUser->DoubleBuffTime--;

  00ef1	8b 45 f8	 mov	 eax, DWORD PTR _lpUser$[ebp]
  00ef4	8b 88 a4 28 00
	00		 mov	 ecx, DWORD PTR [eax+10404]
  00efa	83 e9 01	 sub	 ecx, 1
  00efd	8b 55 f8	 mov	 edx, DWORD PTR _lpUser$[ebp]
  00f00	89 8a a4 28 00
	00		 mov	 DWORD PTR [edx+10404], ecx
$LN10@Timer:

; 506  : 	}
; 507  : 	// --
; 508  : }

  00f06	5f		 pop	 edi
  00f07	5e		 pop	 esi
  00f08	5b		 pop	 ebx
  00f09	8b e5		 mov	 esp, ebp
  00f0b	5d		 pop	 ebp
  00f0c	c2 04 00	 ret	 4
?Timer@BufferSystem@@QAEXH@Z ENDP			; BufferSystem::Timer
_TEXT	ENDS
PUBLIC	?__LINE__Var@?1??UserConnect@BufferSystem@@QAEXH@Z@4JA ; `BufferSystem::UserConnect'::`2'::__LINE__Var
PUBLIC	?UserConnect@BufferSystem@@QAEXH@Z		; BufferSystem::UserConnect
;	COMDAT ?__LINE__Var@?1??UserConnect@BufferSystem@@QAEXH@Z@4JA
_DATA	SEGMENT
?__LINE__Var@?1??UserConnect@BufferSystem@@QAEXH@Z@4JA DD 0200H ; `BufferSystem::UserConnect'::`2'::__LINE__Var
; Function compile flags: /Odtp /ZI
_DATA	ENDS
_TEXT	SEGMENT
tv69 = -76						; size = 4
_lpUser$ = -8						; size = 4
_this$ = -4						; size = 4
_aIndex$ = 8						; size = 4
?UserConnect@BufferSystem@@QAEXH@Z PROC			; BufferSystem::UserConnect
; _this$ = ecx

; 512  : {

  00f10	55		 push	 ebp
  00f11	8b ec		 mov	 ebp, esp
  00f13	83 ec 4c	 sub	 esp, 76			; 0000004cH
  00f16	53		 push	 ebx
  00f17	56		 push	 esi
  00f18	57		 push	 edi
  00f19	89 4d fc	 mov	 DWORD PTR _this$[ebp], ecx

; 513  : 	if(!this->Enable)

  00f1c	8b 45 fc	 mov	 eax, DWORD PTR _this$[ebp]
  00f1f	0f b6 08	 movzx	 ecx, BYTE PTR [eax]
  00f22	85 c9		 test	 ecx, ecx
  00f24	75 05		 jne	 SHORT $LN9@UserConnec

; 514  : 	{
; 515  : 		return;

  00f26	e9 7f 01 00 00	 jmp	 $LN10@UserConnec
$LN9@UserConnec:

; 516  : 	}
; 517  : 
; 518  : 	if ( OBJMAX_RANGE(aIndex) == FALSE )

  00f2b	83 7d 08 00	 cmp	 DWORD PTR _aIndex$[ebp], 0
  00f2f	7d 09		 jge	 SHORT $LN12@UserConnec
  00f31	c7 45 b4 00 00
	00 00		 mov	 DWORD PTR tv69[ebp], 0
  00f38	eb 0f		 jmp	 SHORT $LN13@UserConnec
$LN12@UserConnec:
  00f3a	33 c0		 xor	 eax, eax
  00f3c	81 7d 08 97 3a
	00 00		 cmp	 DWORD PTR _aIndex$[ebp], 14999 ; 00003a97H
  00f43	0f 9e c0	 setle	 al
  00f46	89 45 b4	 mov	 DWORD PTR tv69[ebp], eax
$LN13@UserConnec:
  00f49	83 7d b4 00	 cmp	 DWORD PTR tv69[ebp], 0
  00f4d	75 21		 jne	 SHORT $LN8@UserConnec

; 519  : 	{
; 520  : 		LogAdd("error : %s %d", __FILE__, __LINE__ );

  00f4f	a1 00 00 00 00	 mov	 eax, DWORD PTR ?__LINE__Var@?1??UserConnect@BufferSystem@@QAEXH@Z@4JA
  00f54	83 c0 08	 add	 eax, 8
  00f57	50		 push	 eax
  00f58	68 00 00 00 00	 push	 OFFSET ??_C@_0EE@HNMADOPO@d?3?2projects?2exteam6?43?2source?2gam@
  00f5d	68 00 00 00 00	 push	 OFFSET ??_C@_0O@CKAEPJAF@error?5?3?5?$CFs?5?$CFd?$AA@
  00f62	ff 15 00 00 00
	00		 call	 DWORD PTR ?LogAdd@@3P6AXPADZZA ; LogAdd
  00f68	83 c4 0c	 add	 esp, 12			; 0000000cH

; 521  : 		return;

  00f6b	e9 3a 01 00 00	 jmp	 $LN10@UserConnec
$LN8@UserConnec:

; 522  : 	}
; 523  : 
; 524  : 	LPOBJ lpUser = &gObj[aIndex];

  00f70	8b 45 08	 mov	 eax, DWORD PTR _aIndex$[ebp]
  00f73	69 c0 38 2b 00
	00		 imul	 eax, 11064		; 00002b38H
  00f79	03 05 00 00 00
	00		 add	 eax, DWORD PTR ?gObj@@3PAUOBJECTSTRUCT@@A ; gObj
  00f7f	89 45 f8	 mov	 DWORD PTR _lpUser$[ebp], eax

; 525  : 
; 526  : 	if(lpUser->Connected < PLAYER_PLAYING)

  00f82	8b 45 f8	 mov	 eax, DWORD PTR _lpUser$[ebp]
  00f85	83 78 04 03	 cmp	 DWORD PTR [eax+4], 3
  00f89	7d 05		 jge	 SHORT $LN7@UserConnec

; 527  : 	{
; 528  : 		return;

  00f8b	e9 1a 01 00 00	 jmp	 $LN10@UserConnec
$LN7@UserConnec:

; 529  : 	}
; 530  : 	
; 531  : 	// --
; 532  : 	if(lpUser->ExpBuffTime > 0)

  00f90	8b 45 f8	 mov	 eax, DWORD PTR _lpUser$[ebp]
  00f93	83 b8 90 28 00
	00 00		 cmp	 DWORD PTR [eax+10384], 0
  00f9a	76 23		 jbe	 SHORT $LN6@UserConnec

; 533  : 	{
; 534  : 		//g_BuffManagerEx.AddExBuffData(aIndex, AT_NPC_BUFF_EXP, lpUser->ExpBuffTime);
; 535  : 		gObjApplyBuffEffectDuration(lpUser, AT_NPC_BUFF_EXP, 0, 0, 0, 0, lpUser->ExpBuffTime);

  00f9c	8b 45 f8	 mov	 eax, DWORD PTR _lpUser$[ebp]
  00f9f	8b 88 90 28 00
	00		 mov	 ecx, DWORD PTR [eax+10384]
  00fa5	51		 push	 ecx
  00fa6	6a 00		 push	 0
  00fa8	6a 00		 push	 0
  00faa	6a 00		 push	 0
  00fac	6a 00		 push	 0
  00fae	68 b0 00 00 00	 push	 176			; 000000b0H
  00fb3	8b 55 f8	 mov	 edx, DWORD PTR _lpUser$[ebp]
  00fb6	52		 push	 edx
  00fb7	e8 00 00 00 00	 call	 ?gObjApplyBuffEffectDuration@@YAEPAUOBJECTSTRUCT@@HEHEHH@Z ; gObjApplyBuffEffectDuration
  00fbc	83 c4 1c	 add	 esp, 28			; 0000001cH
$LN6@UserConnec:

; 536  : 	}
; 537  : 	// --
; 538  : 	if(lpUser->DamageBuffTime > 0)

  00fbf	8b 45 f8	 mov	 eax, DWORD PTR _lpUser$[ebp]
  00fc2	83 b8 94 28 00
	00 00		 cmp	 DWORD PTR [eax+10388], 0
  00fc9	76 23		 jbe	 SHORT $LN5@UserConnec

; 539  : 	{
; 540  : 		//g_BuffManagerEx.AddExBuffData(aIndex, AT_NPC_BUFF_DAMAGE, lpUser->DamageBuffTime);
; 541  : 		gObjApplyBuffEffectDuration(lpUser, AT_NPC_BUFF_DAMAGE, 0, 0, 0, 0, lpUser->DamageBuffTime);

  00fcb	8b 45 f8	 mov	 eax, DWORD PTR _lpUser$[ebp]
  00fce	8b 88 94 28 00
	00		 mov	 ecx, DWORD PTR [eax+10388]
  00fd4	51		 push	 ecx
  00fd5	6a 00		 push	 0
  00fd7	6a 00		 push	 0
  00fd9	6a 00		 push	 0
  00fdb	6a 00		 push	 0
  00fdd	68 b1 00 00 00	 push	 177			; 000000b1H
  00fe2	8b 55 f8	 mov	 edx, DWORD PTR _lpUser$[ebp]
  00fe5	52		 push	 edx
  00fe6	e8 00 00 00 00	 call	 ?gObjApplyBuffEffectDuration@@YAEPAUOBJECTSTRUCT@@HEHEHH@Z ; gObjApplyBuffEffectDuration
  00feb	83 c4 1c	 add	 esp, 28			; 0000001cH
$LN5@UserConnec:

; 542  : 	}
; 543  : 	// --
; 544  : 	if(lpUser->DefenceBuffTime > 0)

  00fee	8b 45 f8	 mov	 eax, DWORD PTR _lpUser$[ebp]
  00ff1	83 b8 98 28 00
	00 00		 cmp	 DWORD PTR [eax+10392], 0
  00ff8	76 23		 jbe	 SHORT $LN4@UserConnec

; 545  : 	{
; 546  : 		//g_BuffManagerEx.AddExBuffData(aIndex, AT_NPC_BUFF_DEFENCE, lpUser->DefenceBuffTime);
; 547  : 		gObjApplyBuffEffectDuration(lpUser, AT_NPC_BUFF_DEFENCE, 0, 0, 0, 0, lpUser->DefenceBuffTime);

  00ffa	8b 45 f8	 mov	 eax, DWORD PTR _lpUser$[ebp]
  00ffd	8b 88 98 28 00
	00		 mov	 ecx, DWORD PTR [eax+10392]
  01003	51		 push	 ecx
  01004	6a 00		 push	 0
  01006	6a 00		 push	 0
  01008	6a 00		 push	 0
  0100a	6a 00		 push	 0
  0100c	68 b2 00 00 00	 push	 178			; 000000b2H
  01011	8b 55 f8	 mov	 edx, DWORD PTR _lpUser$[ebp]
  01014	52		 push	 edx
  01015	e8 00 00 00 00	 call	 ?gObjApplyBuffEffectDuration@@YAEPAUOBJECTSTRUCT@@HEHEHH@Z ; gObjApplyBuffEffectDuration
  0101a	83 c4 1c	 add	 esp, 28			; 0000001cH
$LN4@UserConnec:

; 548  : 	}
; 549  : 	// --
; 550  : 	if(lpUser->BattleBuffTime > 0)

  0101d	8b 45 f8	 mov	 eax, DWORD PTR _lpUser$[ebp]
  01020	83 b8 9c 28 00
	00 00		 cmp	 DWORD PTR [eax+10396], 0
  01027	76 23		 jbe	 SHORT $LN3@UserConnec

; 551  : 	{
; 552  : 		//g_BuffManagerEx.AddExBuffData(aIndex, AT_NPC_BUFF_EXL_CRIT, lpUser->BattleBuffTime);
; 553  : 		gObjApplyBuffEffectDuration(lpUser, AT_NPC_BUFF_EXL_CRIT, 0, 0, 0, 0, lpUser->BattleBuffTime);

  01029	8b 45 f8	 mov	 eax, DWORD PTR _lpUser$[ebp]
  0102c	8b 88 9c 28 00
	00		 mov	 ecx, DWORD PTR [eax+10396]
  01032	51		 push	 ecx
  01033	6a 00		 push	 0
  01035	6a 00		 push	 0
  01037	6a 00		 push	 0
  01039	6a 00		 push	 0
  0103b	68 b3 00 00 00	 push	 179			; 000000b3H
  01040	8b 55 f8	 mov	 edx, DWORD PTR _lpUser$[ebp]
  01043	52		 push	 edx
  01044	e8 00 00 00 00	 call	 ?gObjApplyBuffEffectDuration@@YAEPAUOBJECTSTRUCT@@HEHEHH@Z ; gObjApplyBuffEffectDuration
  01049	83 c4 1c	 add	 esp, 28			; 0000001cH
$LN3@UserConnec:

; 554  : 	}
; 555  : 	// --
; 556  : 	if(lpUser->DropBuffTime > 0)

  0104c	8b 45 f8	 mov	 eax, DWORD PTR _lpUser$[ebp]
  0104f	83 b8 a0 28 00
	00 00		 cmp	 DWORD PTR [eax+10400], 0
  01056	76 23		 jbe	 SHORT $LN2@UserConnec

; 557  : 	{
; 558  : 		//g_BuffManagerEx.AddExBuffData(aIndex, AT_NPC_BUFF_DROP, lpUser->DropBuffTime);
; 559  : 		gObjApplyBuffEffectDuration(lpUser, AT_NPC_BUFF_DROP, 0, 0, 0, 0, lpUser->DropBuffTime);

  01058	8b 45 f8	 mov	 eax, DWORD PTR _lpUser$[ebp]
  0105b	8b 88 a0 28 00
	00		 mov	 ecx, DWORD PTR [eax+10400]
  01061	51		 push	 ecx
  01062	6a 00		 push	 0
  01064	6a 00		 push	 0
  01066	6a 00		 push	 0
  01068	6a 00		 push	 0
  0106a	68 b4 00 00 00	 push	 180			; 000000b4H
  0106f	8b 55 f8	 mov	 edx, DWORD PTR _lpUser$[ebp]
  01072	52		 push	 edx
  01073	e8 00 00 00 00	 call	 ?gObjApplyBuffEffectDuration@@YAEPAUOBJECTSTRUCT@@HEHEHH@Z ; gObjApplyBuffEffectDuration
  01078	83 c4 1c	 add	 esp, 28			; 0000001cH
$LN2@UserConnec:

; 560  : 	}
; 561  : 	// --
; 562  : 	if(lpUser->DoubleBuffTime > 0)

  0107b	8b 45 f8	 mov	 eax, DWORD PTR _lpUser$[ebp]
  0107e	83 b8 a4 28 00
	00 00		 cmp	 DWORD PTR [eax+10404], 0
  01085	76 23		 jbe	 SHORT $LN10@UserConnec

; 563  : 	{
; 564  : 		//g_BuffManagerEx.AddExBuffData(aIndex, AT_NPC_BUFF_DOUBLE, lpUser->DoubleBuffTime);
; 565  : 		gObjApplyBuffEffectDuration(lpUser, AT_NPC_BUFF_DOUBLE, 0, 0, 0, 0, lpUser->DoubleBuffTime);

  01087	8b 45 f8	 mov	 eax, DWORD PTR _lpUser$[ebp]
  0108a	8b 88 a4 28 00
	00		 mov	 ecx, DWORD PTR [eax+10404]
  01090	51		 push	 ecx
  01091	6a 00		 push	 0
  01093	6a 00		 push	 0
  01095	6a 00		 push	 0
  01097	6a 00		 push	 0
  01099	68 b5 00 00 00	 push	 181			; 000000b5H
  0109e	8b 55 f8	 mov	 edx, DWORD PTR _lpUser$[ebp]
  010a1	52		 push	 edx
  010a2	e8 00 00 00 00	 call	 ?gObjApplyBuffEffectDuration@@YAEPAUOBJECTSTRUCT@@HEHEHH@Z ; gObjApplyBuffEffectDuration
  010a7	83 c4 1c	 add	 esp, 28			; 0000001cH
$LN10@UserConnec:

; 566  : 	}
; 567  : 	// --
; 568  : }

  010aa	5f		 pop	 edi
  010ab	5e		 pop	 esi
  010ac	5b		 pop	 ebx
  010ad	8b e5		 mov	 esp, ebp
  010af	5d		 pop	 ebp
  010b0	c2 04 00	 ret	 4
?UserConnect@BufferSystem@@QAEXH@Z ENDP			; BufferSystem::UserConnect
_TEXT	ENDS
END
