; Listing generated by Microsoft (R) Optimizing Compiler Version 16.00.40219.01 

	TITLE	D:\Projects\ExTeam6.3\Source\GameServer\GameServer\CalculatorManager.cpp
	.686P
	.XMM
	include listing.inc
	.model	flat

INCLUDELIB LIBCMT
INCLUDELIB OLDNAMES

PUBLIC	?CalculatorManager@@3VcCalculatorManager@@A	; CalculatorManager
_BSS	SEGMENT
?CalculatorManager@@3VcCalculatorManager@@A DB 048H DUP (?) ; CalculatorManager
_BSS	ENDS
PUBLIC	??_C@_0BB@JKFEPIJA@DamageMaxPercent?$AA@	; `string'
PUBLIC	??_C@_0M@BKNIILFP@RageFighter?$AA@		; `string'
PUBLIC	??_C@_0BB@FGFJIDJP@DamageMinPercent?$AA@	; `string'
PUBLIC	??_C@_0BK@KLLBDLFM@MaximumCurseDamagePercent?$AA@ ; `string'
PUBLIC	??_C@_0BK@EIOMIFIG@MinimumCurseDamagePercent?$AA@ ; `string'
PUBLIC	??_C@_0BN@BENDNGHI@MaximumWizardryDamagePercent?$AA@ ; `string'
PUBLIC	??_C@_08HLBMEKKE@Summoner?$AA@			; `string'
PUBLIC	??_C@_0BN@PLFBMIAC@MinimumWizardryDamagePercent?$AA@ ; `string'
PUBLIC	??_C@_09PCICNBOE@Dark_Lord?$AA@			; `string'
PUBLIC	??_C@_0BA@IPLGPKDA@Magic_Gladiator?$AA@		; `string'
PUBLIC	??_C@_09DIFEFNGC@Fairy_Elf?$AA@			; `string'
PUBLIC	??_C@_0BB@LPDOCKGO@MaxDamagePercent?$AA@	; `string'
PUBLIC	??_C@_0M@MNCPOEBE@Dark_Knight?$AA@		; `string'
PUBLIC	??_C@_0BB@KKLFPOJM@MinDamagePercent?$AA@	; `string'
PUBLIC	??_C@_0BE@GGBCKODP@MaxWizDamagePercent?$AA@	; `string'
PUBLIC	??_C@_0M@CJAMKEGP@Dark_Wizard?$AA@		; `string'
PUBLIC	??_C@_0BE@EPGMFDCH@MinWizDamagePercent?$AA@	; `string'
PUBLIC	??_C@_0CF@HPJDLNAE@?4?4?2Data?2ExData?2CalculatorManager@ ; `string'
PUBLIC	?Load@cCalculatorManager@@QAEXXZ		; cCalculatorManager::Load
EXTRN	__imp__GetPrivateProfileIntA@16:PROC
;	COMDAT ??_C@_0BB@JKFEPIJA@DamageMaxPercent?$AA@
; File d:\projects\exteam6.3\source\gameserver\gameserver\calculatormanager.cpp
CONST	SEGMENT
??_C@_0BB@JKFEPIJA@DamageMaxPercent?$AA@ DB 'DamageMaxPercent', 00H ; `string'
CONST	ENDS
;	COMDAT ??_C@_0M@BKNIILFP@RageFighter?$AA@
CONST	SEGMENT
??_C@_0M@BKNIILFP@RageFighter?$AA@ DB 'RageFighter', 00H ; `string'
CONST	ENDS
;	COMDAT ??_C@_0BB@FGFJIDJP@DamageMinPercent?$AA@
CONST	SEGMENT
??_C@_0BB@FGFJIDJP@DamageMinPercent?$AA@ DB 'DamageMinPercent', 00H ; `string'
CONST	ENDS
;	COMDAT ??_C@_0BK@KLLBDLFM@MaximumCurseDamagePercent?$AA@
CONST	SEGMENT
??_C@_0BK@KLLBDLFM@MaximumCurseDamagePercent?$AA@ DB 'MaximumCurseDamageP'
	DB	'ercent', 00H				; `string'
CONST	ENDS
;	COMDAT ??_C@_0BK@EIOMIFIG@MinimumCurseDamagePercent?$AA@
CONST	SEGMENT
??_C@_0BK@EIOMIFIG@MinimumCurseDamagePercent?$AA@ DB 'MinimumCurseDamageP'
	DB	'ercent', 00H				; `string'
CONST	ENDS
;	COMDAT ??_C@_0BN@BENDNGHI@MaximumWizardryDamagePercent?$AA@
CONST	SEGMENT
??_C@_0BN@BENDNGHI@MaximumWizardryDamagePercent?$AA@ DB 'MaximumWizardryD'
	DB	'amagePercent', 00H				; `string'
CONST	ENDS
;	COMDAT ??_C@_08HLBMEKKE@Summoner?$AA@
CONST	SEGMENT
??_C@_08HLBMEKKE@Summoner?$AA@ DB 'Summoner', 00H	; `string'
CONST	ENDS
;	COMDAT ??_C@_0BN@PLFBMIAC@MinimumWizardryDamagePercent?$AA@
CONST	SEGMENT
??_C@_0BN@PLFBMIAC@MinimumWizardryDamagePercent?$AA@ DB 'MinimumWizardryD'
	DB	'amagePercent', 00H				; `string'
CONST	ENDS
;	COMDAT ??_C@_09PCICNBOE@Dark_Lord?$AA@
CONST	SEGMENT
??_C@_09PCICNBOE@Dark_Lord?$AA@ DB 'Dark_Lord', 00H	; `string'
CONST	ENDS
;	COMDAT ??_C@_0BA@IPLGPKDA@Magic_Gladiator?$AA@
CONST	SEGMENT
??_C@_0BA@IPLGPKDA@Magic_Gladiator?$AA@ DB 'Magic_Gladiator', 00H ; `string'
CONST	ENDS
;	COMDAT ??_C@_09DIFEFNGC@Fairy_Elf?$AA@
CONST	SEGMENT
??_C@_09DIFEFNGC@Fairy_Elf?$AA@ DB 'Fairy_Elf', 00H	; `string'
CONST	ENDS
;	COMDAT ??_C@_0BB@LPDOCKGO@MaxDamagePercent?$AA@
CONST	SEGMENT
??_C@_0BB@LPDOCKGO@MaxDamagePercent?$AA@ DB 'MaxDamagePercent', 00H ; `string'
CONST	ENDS
;	COMDAT ??_C@_0M@MNCPOEBE@Dark_Knight?$AA@
CONST	SEGMENT
??_C@_0M@MNCPOEBE@Dark_Knight?$AA@ DB 'Dark_Knight', 00H ; `string'
CONST	ENDS
;	COMDAT ??_C@_0BB@KKLFPOJM@MinDamagePercent?$AA@
CONST	SEGMENT
??_C@_0BB@KKLFPOJM@MinDamagePercent?$AA@ DB 'MinDamagePercent', 00H ; `string'
CONST	ENDS
;	COMDAT ??_C@_0BE@GGBCKODP@MaxWizDamagePercent?$AA@
CONST	SEGMENT
??_C@_0BE@GGBCKODP@MaxWizDamagePercent?$AA@ DB 'MaxWizDamagePercent', 00H ; `string'
CONST	ENDS
;	COMDAT ??_C@_0M@CJAMKEGP@Dark_Wizard?$AA@
CONST	SEGMENT
??_C@_0M@CJAMKEGP@Dark_Wizard?$AA@ DB 'Dark_Wizard', 00H ; `string'
CONST	ENDS
;	COMDAT ??_C@_0BE@EPGMFDCH@MinWizDamagePercent?$AA@
CONST	SEGMENT
??_C@_0BE@EPGMFDCH@MinWizDamagePercent?$AA@ DB 'MinWizDamagePercent', 00H ; `string'
CONST	ENDS
;	COMDAT ??_C@_0CF@HPJDLNAE@?4?4?2Data?2ExData?2CalculatorManager@
CONST	SEGMENT
??_C@_0CF@HPJDLNAE@?4?4?2Data?2ExData?2CalculatorManager@ DB '..\Data\ExD'
	DB	'ata\CalculatorManager.ini', 00H		; `string'
; Function compile flags: /Odtp /ZI
CONST	ENDS
_TEXT	SEGMENT
_this$ = -4						; size = 4
?Load@cCalculatorManager@@QAEXXZ PROC			; cCalculatorManager::Load
; _this$ = ecx

; 10   : {

  00000	55		 push	 ebp
  00001	8b ec		 mov	 ebp, esp
  00003	83 ec 44	 sub	 esp, 68			; 00000044H
  00006	53		 push	 ebx
  00007	56		 push	 esi
  00008	57		 push	 edi
  00009	89 4d fc	 mov	 DWORD PTR _this$[ebp], ecx

; 11   : 	//Dark_Wizard
; 12   : 	this->DW_MinWizDamagePercent = GetPrivateProfileInt("Dark_Wizard", "MinWizDamagePercent", 100, CALCULATOR_MANAGER_DIR);

  0000c	68 00 00 00 00	 push	 OFFSET ??_C@_0CF@HPJDLNAE@?4?4?2Data?2ExData?2CalculatorManager@
  00011	6a 64		 push	 100			; 00000064H
  00013	68 00 00 00 00	 push	 OFFSET ??_C@_0BE@EPGMFDCH@MinWizDamagePercent?$AA@
  00018	68 00 00 00 00	 push	 OFFSET ??_C@_0M@CJAMKEGP@Dark_Wizard?$AA@
  0001d	ff 15 00 00 00
	00		 call	 DWORD PTR __imp__GetPrivateProfileIntA@16
  00023	8b 4d fc	 mov	 ecx, DWORD PTR _this$[ebp]
  00026	89 01		 mov	 DWORD PTR [ecx], eax

; 13   : 	this->DW_MaxWizDamagePercent = GetPrivateProfileInt("Dark_Wizard", "MaxWizDamagePercent", 100, CALCULATOR_MANAGER_DIR);

  00028	68 00 00 00 00	 push	 OFFSET ??_C@_0CF@HPJDLNAE@?4?4?2Data?2ExData?2CalculatorManager@
  0002d	6a 64		 push	 100			; 00000064H
  0002f	68 00 00 00 00	 push	 OFFSET ??_C@_0BE@GGBCKODP@MaxWizDamagePercent?$AA@
  00034	68 00 00 00 00	 push	 OFFSET ??_C@_0M@CJAMKEGP@Dark_Wizard?$AA@
  00039	ff 15 00 00 00
	00		 call	 DWORD PTR __imp__GetPrivateProfileIntA@16
  0003f	8b 4d fc	 mov	 ecx, DWORD PTR _this$[ebp]
  00042	89 41 04	 mov	 DWORD PTR [ecx+4], eax

; 14   : 
; 15   : 	//Dark_Knight
; 16   : 	this->DK_MinDamagePercent = GetPrivateProfileInt("Dark_Knight", "MinDamagePercent", 100, CALCULATOR_MANAGER_DIR);

  00045	68 00 00 00 00	 push	 OFFSET ??_C@_0CF@HPJDLNAE@?4?4?2Data?2ExData?2CalculatorManager@
  0004a	6a 64		 push	 100			; 00000064H
  0004c	68 00 00 00 00	 push	 OFFSET ??_C@_0BB@KKLFPOJM@MinDamagePercent?$AA@
  00051	68 00 00 00 00	 push	 OFFSET ??_C@_0M@MNCPOEBE@Dark_Knight?$AA@
  00056	ff 15 00 00 00
	00		 call	 DWORD PTR __imp__GetPrivateProfileIntA@16
  0005c	8b 4d fc	 mov	 ecx, DWORD PTR _this$[ebp]
  0005f	89 41 08	 mov	 DWORD PTR [ecx+8], eax

; 17   : 	this->DK_MaxDamagePercent = GetPrivateProfileInt("Dark_Knight", "MaxDamagePercent", 100, CALCULATOR_MANAGER_DIR);

  00062	68 00 00 00 00	 push	 OFFSET ??_C@_0CF@HPJDLNAE@?4?4?2Data?2ExData?2CalculatorManager@
  00067	6a 64		 push	 100			; 00000064H
  00069	68 00 00 00 00	 push	 OFFSET ??_C@_0BB@LPDOCKGO@MaxDamagePercent?$AA@
  0006e	68 00 00 00 00	 push	 OFFSET ??_C@_0M@MNCPOEBE@Dark_Knight?$AA@
  00073	ff 15 00 00 00
	00		 call	 DWORD PTR __imp__GetPrivateProfileIntA@16
  00079	8b 4d fc	 mov	 ecx, DWORD PTR _this$[ebp]
  0007c	89 41 0c	 mov	 DWORD PTR [ecx+12], eax

; 18   : 
; 19   : 	//Fairy_Elf
; 20   : 	this->FE_MinDamagePercent = GetPrivateProfileInt("Fairy_Elf", "MinDamagePercent", 100, CALCULATOR_MANAGER_DIR);

  0007f	68 00 00 00 00	 push	 OFFSET ??_C@_0CF@HPJDLNAE@?4?4?2Data?2ExData?2CalculatorManager@
  00084	6a 64		 push	 100			; 00000064H
  00086	68 00 00 00 00	 push	 OFFSET ??_C@_0BB@KKLFPOJM@MinDamagePercent?$AA@
  0008b	68 00 00 00 00	 push	 OFFSET ??_C@_09DIFEFNGC@Fairy_Elf?$AA@
  00090	ff 15 00 00 00
	00		 call	 DWORD PTR __imp__GetPrivateProfileIntA@16
  00096	8b 4d fc	 mov	 ecx, DWORD PTR _this$[ebp]
  00099	89 41 10	 mov	 DWORD PTR [ecx+16], eax

; 21   : 	this->FE_MaxDamagePercent = GetPrivateProfileInt("Fairy_Elf", "MaxDamagePercent", 100, CALCULATOR_MANAGER_DIR);

  0009c	68 00 00 00 00	 push	 OFFSET ??_C@_0CF@HPJDLNAE@?4?4?2Data?2ExData?2CalculatorManager@
  000a1	6a 64		 push	 100			; 00000064H
  000a3	68 00 00 00 00	 push	 OFFSET ??_C@_0BB@LPDOCKGO@MaxDamagePercent?$AA@
  000a8	68 00 00 00 00	 push	 OFFSET ??_C@_09DIFEFNGC@Fairy_Elf?$AA@
  000ad	ff 15 00 00 00
	00		 call	 DWORD PTR __imp__GetPrivateProfileIntA@16
  000b3	8b 4d fc	 mov	 ecx, DWORD PTR _this$[ebp]
  000b6	89 41 14	 mov	 DWORD PTR [ecx+20], eax

; 22   : 
; 23   : 	//Magic_Gladiator
; 24   : 	this->MG_MinDamagePercent = GetPrivateProfileInt("Magic_Gladiator", "MinDamagePercent", 100, CALCULATOR_MANAGER_DIR);

  000b9	68 00 00 00 00	 push	 OFFSET ??_C@_0CF@HPJDLNAE@?4?4?2Data?2ExData?2CalculatorManager@
  000be	6a 64		 push	 100			; 00000064H
  000c0	68 00 00 00 00	 push	 OFFSET ??_C@_0BB@KKLFPOJM@MinDamagePercent?$AA@
  000c5	68 00 00 00 00	 push	 OFFSET ??_C@_0BA@IPLGPKDA@Magic_Gladiator?$AA@
  000ca	ff 15 00 00 00
	00		 call	 DWORD PTR __imp__GetPrivateProfileIntA@16
  000d0	8b 4d fc	 mov	 ecx, DWORD PTR _this$[ebp]
  000d3	89 41 18	 mov	 DWORD PTR [ecx+24], eax

; 25   : 	this->MG_MaxDamagePercent = GetPrivateProfileInt("Magic_Gladiator", "MaxDamagePercent", 100, CALCULATOR_MANAGER_DIR);

  000d6	68 00 00 00 00	 push	 OFFSET ??_C@_0CF@HPJDLNAE@?4?4?2Data?2ExData?2CalculatorManager@
  000db	6a 64		 push	 100			; 00000064H
  000dd	68 00 00 00 00	 push	 OFFSET ??_C@_0BB@LPDOCKGO@MaxDamagePercent?$AA@
  000e2	68 00 00 00 00	 push	 OFFSET ??_C@_0BA@IPLGPKDA@Magic_Gladiator?$AA@
  000e7	ff 15 00 00 00
	00		 call	 DWORD PTR __imp__GetPrivateProfileIntA@16
  000ed	8b 4d fc	 mov	 ecx, DWORD PTR _this$[ebp]
  000f0	89 41 1c	 mov	 DWORD PTR [ecx+28], eax

; 26   : 	this->MG_MinWizDamagePercent = GetPrivateProfileInt("Magic_Gladiator", "MinWizDamagePercent", 100, CALCULATOR_MANAGER_DIR);

  000f3	68 00 00 00 00	 push	 OFFSET ??_C@_0CF@HPJDLNAE@?4?4?2Data?2ExData?2CalculatorManager@
  000f8	6a 64		 push	 100			; 00000064H
  000fa	68 00 00 00 00	 push	 OFFSET ??_C@_0BE@EPGMFDCH@MinWizDamagePercent?$AA@
  000ff	68 00 00 00 00	 push	 OFFSET ??_C@_0BA@IPLGPKDA@Magic_Gladiator?$AA@
  00104	ff 15 00 00 00
	00		 call	 DWORD PTR __imp__GetPrivateProfileIntA@16
  0010a	8b 4d fc	 mov	 ecx, DWORD PTR _this$[ebp]
  0010d	89 41 20	 mov	 DWORD PTR [ecx+32], eax

; 27   : 	this->MG_MaxWizDamagePercent = GetPrivateProfileInt("Magic_Gladiator", "MaxWizDamagePercent", 100, CALCULATOR_MANAGER_DIR);

  00110	68 00 00 00 00	 push	 OFFSET ??_C@_0CF@HPJDLNAE@?4?4?2Data?2ExData?2CalculatorManager@
  00115	6a 64		 push	 100			; 00000064H
  00117	68 00 00 00 00	 push	 OFFSET ??_C@_0BE@GGBCKODP@MaxWizDamagePercent?$AA@
  0011c	68 00 00 00 00	 push	 OFFSET ??_C@_0BA@IPLGPKDA@Magic_Gladiator?$AA@
  00121	ff 15 00 00 00
	00		 call	 DWORD PTR __imp__GetPrivateProfileIntA@16
  00127	8b 4d fc	 mov	 ecx, DWORD PTR _this$[ebp]
  0012a	89 41 24	 mov	 DWORD PTR [ecx+36], eax

; 28   : 
; 29   : 	//Dark_Lord
; 30   : 	this->DL_MinDamagePercent = GetPrivateProfileInt("Dark_Lord", "MinDamagePercent", 100, CALCULATOR_MANAGER_DIR);

  0012d	68 00 00 00 00	 push	 OFFSET ??_C@_0CF@HPJDLNAE@?4?4?2Data?2ExData?2CalculatorManager@
  00132	6a 64		 push	 100			; 00000064H
  00134	68 00 00 00 00	 push	 OFFSET ??_C@_0BB@KKLFPOJM@MinDamagePercent?$AA@
  00139	68 00 00 00 00	 push	 OFFSET ??_C@_09PCICNBOE@Dark_Lord?$AA@
  0013e	ff 15 00 00 00
	00		 call	 DWORD PTR __imp__GetPrivateProfileIntA@16
  00144	8b 4d fc	 mov	 ecx, DWORD PTR _this$[ebp]
  00147	89 41 28	 mov	 DWORD PTR [ecx+40], eax

; 31   : 	this->DL_MaxDamagePercent = GetPrivateProfileInt("Dark_Lord", "MaxDamagePercent", 100, CALCULATOR_MANAGER_DIR);

  0014a	68 00 00 00 00	 push	 OFFSET ??_C@_0CF@HPJDLNAE@?4?4?2Data?2ExData?2CalculatorManager@
  0014f	6a 64		 push	 100			; 00000064H
  00151	68 00 00 00 00	 push	 OFFSET ??_C@_0BB@LPDOCKGO@MaxDamagePercent?$AA@
  00156	68 00 00 00 00	 push	 OFFSET ??_C@_09PCICNBOE@Dark_Lord?$AA@
  0015b	ff 15 00 00 00
	00		 call	 DWORD PTR __imp__GetPrivateProfileIntA@16
  00161	8b 4d fc	 mov	 ecx, DWORD PTR _this$[ebp]
  00164	89 41 2c	 mov	 DWORD PTR [ecx+44], eax

; 32   : 
; 33   : 	//Summoner
; 34   : 	this->SUM_MinimumWizardryDamagePercent = GetPrivateProfileInt("Summoner", "MinimumWizardryDamagePercent", 100, CALCULATOR_MANAGER_DIR);

  00167	68 00 00 00 00	 push	 OFFSET ??_C@_0CF@HPJDLNAE@?4?4?2Data?2ExData?2CalculatorManager@
  0016c	6a 64		 push	 100			; 00000064H
  0016e	68 00 00 00 00	 push	 OFFSET ??_C@_0BN@PLFBMIAC@MinimumWizardryDamagePercent?$AA@
  00173	68 00 00 00 00	 push	 OFFSET ??_C@_08HLBMEKKE@Summoner?$AA@
  00178	ff 15 00 00 00
	00		 call	 DWORD PTR __imp__GetPrivateProfileIntA@16
  0017e	8b 4d fc	 mov	 ecx, DWORD PTR _this$[ebp]
  00181	89 41 30	 mov	 DWORD PTR [ecx+48], eax

; 35   : 	this->SUM_MaximumWizardryDamagePercent = GetPrivateProfileInt("Summoner", "MaximumWizardryDamagePercent", 100, CALCULATOR_MANAGER_DIR);

  00184	68 00 00 00 00	 push	 OFFSET ??_C@_0CF@HPJDLNAE@?4?4?2Data?2ExData?2CalculatorManager@
  00189	6a 64		 push	 100			; 00000064H
  0018b	68 00 00 00 00	 push	 OFFSET ??_C@_0BN@BENDNGHI@MaximumWizardryDamagePercent?$AA@
  00190	68 00 00 00 00	 push	 OFFSET ??_C@_08HLBMEKKE@Summoner?$AA@
  00195	ff 15 00 00 00
	00		 call	 DWORD PTR __imp__GetPrivateProfileIntA@16
  0019b	8b 4d fc	 mov	 ecx, DWORD PTR _this$[ebp]
  0019e	89 41 34	 mov	 DWORD PTR [ecx+52], eax

; 36   : 	this->SUM_MinimumCurseDamagePercent = GetPrivateProfileInt("Summoner", "MinimumCurseDamagePercent", 100, CALCULATOR_MANAGER_DIR);

  001a1	68 00 00 00 00	 push	 OFFSET ??_C@_0CF@HPJDLNAE@?4?4?2Data?2ExData?2CalculatorManager@
  001a6	6a 64		 push	 100			; 00000064H
  001a8	68 00 00 00 00	 push	 OFFSET ??_C@_0BK@EIOMIFIG@MinimumCurseDamagePercent?$AA@
  001ad	68 00 00 00 00	 push	 OFFSET ??_C@_08HLBMEKKE@Summoner?$AA@
  001b2	ff 15 00 00 00
	00		 call	 DWORD PTR __imp__GetPrivateProfileIntA@16
  001b8	8b 4d fc	 mov	 ecx, DWORD PTR _this$[ebp]
  001bb	89 41 38	 mov	 DWORD PTR [ecx+56], eax

; 37   : 	this->SUM_MaximumCurseDamagePercent = GetPrivateProfileInt("Summoner", "MaximumCurseDamagePercent", 100, CALCULATOR_MANAGER_DIR);

  001be	68 00 00 00 00	 push	 OFFSET ??_C@_0CF@HPJDLNAE@?4?4?2Data?2ExData?2CalculatorManager@
  001c3	6a 64		 push	 100			; 00000064H
  001c5	68 00 00 00 00	 push	 OFFSET ??_C@_0BK@KLLBDLFM@MaximumCurseDamagePercent?$AA@
  001ca	68 00 00 00 00	 push	 OFFSET ??_C@_08HLBMEKKE@Summoner?$AA@
  001cf	ff 15 00 00 00
	00		 call	 DWORD PTR __imp__GetPrivateProfileIntA@16
  001d5	8b 4d fc	 mov	 ecx, DWORD PTR _this$[ebp]
  001d8	89 41 3c	 mov	 DWORD PTR [ecx+60], eax

; 38   : 
; 39   : 	//RageFighter
; 40   : 	this->RF_DamageMinPercent = GetPrivateProfileInt("RageFighter", "DamageMinPercent", 100, CALCULATOR_MANAGER_DIR);

  001db	68 00 00 00 00	 push	 OFFSET ??_C@_0CF@HPJDLNAE@?4?4?2Data?2ExData?2CalculatorManager@
  001e0	6a 64		 push	 100			; 00000064H
  001e2	68 00 00 00 00	 push	 OFFSET ??_C@_0BB@FGFJIDJP@DamageMinPercent?$AA@
  001e7	68 00 00 00 00	 push	 OFFSET ??_C@_0M@BKNIILFP@RageFighter?$AA@
  001ec	ff 15 00 00 00
	00		 call	 DWORD PTR __imp__GetPrivateProfileIntA@16
  001f2	8b 4d fc	 mov	 ecx, DWORD PTR _this$[ebp]
  001f5	89 41 40	 mov	 DWORD PTR [ecx+64], eax

; 41   : 	this->RF_DamageMaxPercent = GetPrivateProfileInt("RageFighter", "DamageMaxPercent", 100, CALCULATOR_MANAGER_DIR);

  001f8	68 00 00 00 00	 push	 OFFSET ??_C@_0CF@HPJDLNAE@?4?4?2Data?2ExData?2CalculatorManager@
  001fd	6a 64		 push	 100			; 00000064H
  001ff	68 00 00 00 00	 push	 OFFSET ??_C@_0BB@JKFEPIJA@DamageMaxPercent?$AA@
  00204	68 00 00 00 00	 push	 OFFSET ??_C@_0M@BKNIILFP@RageFighter?$AA@
  00209	ff 15 00 00 00
	00		 call	 DWORD PTR __imp__GetPrivateProfileIntA@16
  0020f	8b 4d fc	 mov	 ecx, DWORD PTR _this$[ebp]
  00212	89 41 44	 mov	 DWORD PTR [ecx+68], eax

; 42   : }

  00215	5f		 pop	 edi
  00216	5e		 pop	 esi
  00217	5b		 pop	 ebx
  00218	8b e5		 mov	 esp, ebp
  0021a	5d		 pop	 ebp
  0021b	c3		 ret	 0
?Load@cCalculatorManager@@QAEXXZ ENDP			; cCalculatorManager::Load
_TEXT	ENDS
END
