; Listing generated by Microsoft (R) Optimizing Compiler Version 16.00.40219.01 

	TITLE	D:\Projects\ExTeam6.3\Source\GameServer\GameServer\CastleDeepEvent.cpp
	.686P
	.XMM
	include listing.inc
	.model	flat

INCLUDELIB LIBCMT
INCLUDELIB OLDNAMES

_DATA	SEGMENT
_g_iNpcUpDfLevel_CGATE DD 01H
	DD	02H
	DD	02dc6c0H
	DD	02H
	DD	03H
	DD	02dc6c0H
	DD	03H
	DD	04H
	DD	02dc6c0H
_g_iNpcUpDfLevel_CSTATUE DD 01H
	DD	03H
	DD	02dc6c0H
	DD	02H
	DD	05H
	DD	02dc6c0H
	DD	03H
	DD	07H
	DD	02dc6c0H
_g_iNpcUpMaxHP_CGATE DD 02625a0H
	DD	02H
	DD	0f4240H
	DD	03567e0H
	DD	03H
	DD	0f4240H
	DD	04f5880H
	DD	04H
	DD	0f4240H
_g_iNpcUpMaxHP_CSTATUE DD 02191c0H
	DD	03H
	DD	0f4240H
	DD	033e140H
	DD	05H
	DD	0f4240H
	DD	04c4b40H
	DD	07H
	DD	0f4240H
_g_iNpcUpRgLevel_CSTATUE DD 01H
	DD	03H
	DD	04c4b40H
	DD	02H
	DD	05H
	DD	04c4b40H
	DD	03H
	DD	07H
	DD	04c4b40H
_g_iCsUserReSpawnArea DD 023H
	DD	011H
	DD	090H
	DD	030H
	DD	04aH
	DD	090H
	DD	073H
	DD	09aH
	DD	023H
	DD	011H
	DD	090H
	DD	030H
_g_iNpcDefense_CGATE DD 064H
	DD	0b4H
	DD	012cH
	DD	0208H
_g_iNpcDefense_CSTATUE DD 050H
	DD	0b4H
	DD	0154H
	DD	0226H
_g_iCastleWallStepAxisY DD 071H
	DD	0a0H
	DD	0cbH
_DATA	ENDS
PUBLIC	??_H@YGXPAXIHP6EPAX0@Z@Z			; `vector constructor iterator'
; Function compile flags: /Odtp /ZI
;	COMDAT ??_H@YGXPAXIHP6EPAX0@Z@Z
_TEXT	SEGMENT
___t$ = 8						; size = 4
___s$ = 12						; size = 4
___n$ = 16						; size = 4
___f$ = 20						; size = 4
??_H@YGXPAXIHP6EPAX0@Z@Z PROC				; `vector constructor iterator', COMDAT
  00000	55		 push	 ebp
  00001	8b ec		 mov	 ebp, esp
  00003	83 ec 40	 sub	 esp, 64			; 00000040H
  00006	53		 push	 ebx
  00007	56		 push	 esi
  00008	57		 push	 edi
$LN2@vector:
  00009	8b 45 10	 mov	 eax, DWORD PTR ___n$[ebp]
  0000c	83 e8 01	 sub	 eax, 1
  0000f	89 45 10	 mov	 DWORD PTR ___n$[ebp], eax
  00012	78 11		 js	 SHORT $LN3@vector
  00014	8b 4d 08	 mov	 ecx, DWORD PTR ___t$[ebp]
  00017	ff 55 14	 call	 DWORD PTR ___f$[ebp]
  0001a	8b 45 08	 mov	 eax, DWORD PTR ___t$[ebp]
  0001d	03 45 0c	 add	 eax, DWORD PTR ___s$[ebp]
  00020	89 45 08	 mov	 DWORD PTR ___t$[ebp], eax
  00023	eb e4		 jmp	 SHORT $LN2@vector
$LN3@vector:
  00025	5f		 pop	 edi
  00026	5e		 pop	 esi
  00027	5b		 pop	 ebx
  00028	8b e5		 mov	 esp, ebp
  0002a	5d		 pop	 ebp
  0002b	c2 10 00	 ret	 16			; 00000010H
??_H@YGXPAXIHP6EPAX0@Z@Z ENDP				; `vector constructor iterator'
_TEXT	ENDS
PUBLIC	??1?$vector@HV?$allocator@H@std@@@std@@QAE@XZ	; std::vector<int,std::allocator<int> >::~vector<int,std::allocator<int> >
PUBLIC	??1?$vector@UCASTLEDEEP_EVENTTIME@@V?$allocator@UCASTLEDEEP_EVENTTIME@@@std@@@std@@QAE@XZ ; std::vector<CASTLEDEEP_EVENTTIME,std::allocator<CASTLEDEEP_EVENTTIME> >::~vector<CASTLEDEEP_EVENTTIME,std::allocator<CASTLEDEEP_EVENTTIME> >
PUBLIC	??1?$map@HV?$vector@UCASTLEDEEP_SPAWNTIME@@V?$allocator@UCASTLEDEEP_SPAWNTIME@@@std@@@std@@U?$less@H@2@V?$allocator@U?$pair@$$CBHV?$vector@UCASTLEDEEP_SPAWNTIME@@V?$allocator@UCASTLEDEEP_SPAWNTIME@@@std@@@std@@@std@@@2@@std@@QAE@XZ ; std::map<int,std::vector<CASTLEDEEP_SPAWNTIME,std::allocator<CASTLEDEEP_SPAWNTIME> >,std::less<int>,std::allocator<std::pair<int const ,std::vector<CASTLEDEEP_SPAWNTIME,std::allocator<CASTLEDEEP_SPAWNTIME> > > > >::~map<int,std::vector<CASTLEDEEP_SPAWNTIME,std::allocator<CASTLEDEEP_SPAWNTIME> >,std::less<int>,std::allocator<std::pair<int const ,std::vector<CASTLEDEEP_SPAWNTIME,std::allocator<CASTLEDEEP_SPAWNTIME> > > > >
PUBLIC	??1?$map@HV?$vector@UCASTLEDEEP_MONSTERINFO@@V?$allocator@UCASTLEDEEP_MONSTERINFO@@@std@@@std@@U?$less@H@2@V?$allocator@U?$pair@$$CBHV?$vector@UCASTLEDEEP_MONSTERINFO@@V?$allocator@UCASTLEDEEP_MONSTERINFO@@@std@@@std@@@std@@@2@@std@@QAE@XZ ; std::map<int,std::vector<CASTLEDEEP_MONSTERINFO,std::allocator<CASTLEDEEP_MONSTERINFO> >,std::less<int>,std::allocator<std::pair<int const ,std::vector<CASTLEDEEP_MONSTERINFO,std::allocator<CASTLEDEEP_MONSTERINFO> > > > >::~map<int,std::vector<CASTLEDEEP_MONSTERINFO,std::allocator<CASTLEDEEP_MONSTERINFO> >,std::less<int>,std::allocator<std::pair<int const ,std::vector<CASTLEDEEP_MONSTERINFO,std::allocator<CASTLEDEEP_MONSTERINFO> > > > >
PUBLIC	??0?$map@HHU?$less@H@std@@V?$allocator@U?$pair@$$CBHH@std@@@2@@std@@QAE@XZ ; std::map<int,int,std::less<int>,std::allocator<std::pair<int const ,int> > >::map<int,int,std::less<int>,std::allocator<std::pair<int const ,int> > >
PUBLIC	??0?$vector@HV?$allocator@H@std@@@std@@QAE@XZ	; std::vector<int,std::allocator<int> >::vector<int,std::allocator<int> >
PUBLIC	??0?$vector@UCASTLEDEEP_EVENTTIME@@V?$allocator@UCASTLEDEEP_EVENTTIME@@@std@@@std@@QAE@XZ ; std::vector<CASTLEDEEP_EVENTTIME,std::allocator<CASTLEDEEP_EVENTTIME> >::vector<CASTLEDEEP_EVENTTIME,std::allocator<CASTLEDEEP_EVENTTIME> >
PUBLIC	??0?$map@HV?$vector@UCASTLEDEEP_SPAWNTIME@@V?$allocator@UCASTLEDEEP_SPAWNTIME@@@std@@@std@@U?$less@H@2@V?$allocator@U?$pair@$$CBHV?$vector@UCASTLEDEEP_SPAWNTIME@@V?$allocator@UCASTLEDEEP_SPAWNTIME@@@std@@@std@@@std@@@2@@std@@QAE@XZ ; std::map<int,std::vector<CASTLEDEEP_SPAWNTIME,std::allocator<CASTLEDEEP_SPAWNTIME> >,std::less<int>,std::allocator<std::pair<int const ,std::vector<CASTLEDEEP_SPAWNTIME,std::allocator<CASTLEDEEP_SPAWNTIME> > > > >::map<int,std::vector<CASTLEDEEP_SPAWNTIME,std::allocator<CASTLEDEEP_SPAWNTIME> >,std::less<int>,std::allocator<std::pair<int const ,std::vector<CASTLEDEEP_SPAWNTIME,std::allocator<CASTLEDEEP_SPAWNTIME> > > > >
PUBLIC	??0?$map@HV?$vector@UCASTLEDEEP_MONSTERINFO@@V?$allocator@UCASTLEDEEP_MONSTERINFO@@@std@@@std@@U?$less@H@2@V?$allocator@U?$pair@$$CBHV?$vector@UCASTLEDEEP_MONSTERINFO@@V?$allocator@UCASTLEDEEP_MONSTERINFO@@@std@@@std@@@std@@@2@@std@@QAE@XZ ; std::map<int,std::vector<CASTLEDEEP_MONSTERINFO,std::allocator<CASTLEDEEP_MONSTERINFO> >,std::less<int>,std::allocator<std::pair<int const ,std::vector<CASTLEDEEP_MONSTERINFO,std::allocator<CASTLEDEEP_MONSTERINFO> > > > >::map<int,std::vector<CASTLEDEEP_MONSTERINFO,std::allocator<CASTLEDEEP_MONSTERINFO> >,std::less<int>,std::allocator<std::pair<int const ,std::vector<CASTLEDEEP_MONSTERINFO,std::allocator<CASTLEDEEP_MONSTERINFO> > > > >
PUBLIC	??_7CCastleDeepEvent@@6B@			; CCastleDeepEvent::`vftable'
PUBLIC	??0CCastleDeepEvent@@QAE@XZ			; CCastleDeepEvent::CCastleDeepEvent
PUBLIC	??_R4CCastleDeepEvent@@6B@			; CCastleDeepEvent::`RTTI Complete Object Locator'
PUBLIC	??_R0?AVCCastleDeepEvent@@@8			; CCastleDeepEvent `RTTI Type Descriptor'
PUBLIC	??_R3CCastleDeepEvent@@8			; CCastleDeepEvent::`RTTI Class Hierarchy Descriptor'
PUBLIC	??_R2CCastleDeepEvent@@8			; CCastleDeepEvent::`RTTI Base Class Array'
PUBLIC	??_R1A@?0A@EA@CCastleDeepEvent@@8		; CCastleDeepEvent::`RTTI Base Class Descriptor at (0,-1,0,64)'
EXTRN	__imp__InitializeCriticalSection@4:PROC
EXTRN	_srand:PROC
EXTRN	___security_cookie:DWORD
EXTRN	___CxxFrameHandler3:PROC
EXTRN	@__security_check_cookie@4:PROC
EXTRN	??_7type_info@@6B@:QWORD			; type_info::`vftable'
EXTRN	??_ECCastleDeepEvent@@UAEPAXI@Z:PROC		; CCastleDeepEvent::`vector deleting destructor'
;	COMDAT ??_R1A@?0A@EA@CCastleDeepEvent@@8
; File d:\projects\exteam6.3\source\gameserver\gameserver\castledeepevent.cpp
rdata$r	SEGMENT
??_R1A@?0A@EA@CCastleDeepEvent@@8 DD FLAT:??_R0?AVCCastleDeepEvent@@@8 ; CCastleDeepEvent::`RTTI Base Class Descriptor at (0,-1,0,64)'
	DD	00H
	DD	00H
	DD	0ffffffffH
	DD	00H
	DD	040H
	DD	FLAT:??_R3CCastleDeepEvent@@8
rdata$r	ENDS
;	COMDAT ??_R2CCastleDeepEvent@@8
rdata$r	SEGMENT
??_R2CCastleDeepEvent@@8 DD FLAT:??_R1A@?0A@EA@CCastleDeepEvent@@8 ; CCastleDeepEvent::`RTTI Base Class Array'
rdata$r	ENDS
;	COMDAT ??_R3CCastleDeepEvent@@8
rdata$r	SEGMENT
??_R3CCastleDeepEvent@@8 DD 00H				; CCastleDeepEvent::`RTTI Class Hierarchy Descriptor'
	DD	00H
	DD	01H
	DD	FLAT:??_R2CCastleDeepEvent@@8
rdata$r	ENDS
;	COMDAT ??_R0?AVCCastleDeepEvent@@@8
_DATA	SEGMENT
??_R0?AVCCastleDeepEvent@@@8 DD FLAT:??_7type_info@@6B@	; CCastleDeepEvent `RTTI Type Descriptor'
	DD	00H
	DB	'.?AVCCastleDeepEvent@@', 00H
_DATA	ENDS
;	COMDAT ??_R4CCastleDeepEvent@@6B@
rdata$r	SEGMENT
??_R4CCastleDeepEvent@@6B@ DD 00H			; CCastleDeepEvent::`RTTI Complete Object Locator'
	DD	00H
	DD	00H
	DD	FLAT:??_R0?AVCCastleDeepEvent@@@8
	DD	FLAT:??_R3CCastleDeepEvent@@8
rdata$r	ENDS
;	COMDAT ??_7CCastleDeepEvent@@6B@
CONST	SEGMENT
??_7CCastleDeepEvent@@6B@ DD FLAT:??_R4CCastleDeepEvent@@6B@ ; CCastleDeepEvent::`vftable'
	DD	FLAT:??_ECCastleDeepEvent@@UAEPAXI@Z
CONST	ENDS
xdata$x	SEGMENT
__ehfuncinfo$??0CCastleDeepEvent@@QAE@XZ DD 019930522H
	DD	05H
	DD	FLAT:__unwindtable$??0CCastleDeepEvent@@QAE@XZ
	DD	2 DUP(00H)
	DD	2 DUP(00H)
	DD	00H
	DD	01H
__unwindtable$??0CCastleDeepEvent@@QAE@XZ DD 0ffffffffH
	DD	FLAT:__unwindfunclet$??0CCastleDeepEvent@@QAE@XZ$0
	DD	00H
	DD	FLAT:__unwindfunclet$??0CCastleDeepEvent@@QAE@XZ$1
	DD	01H
	DD	FLAT:__unwindfunclet$??0CCastleDeepEvent@@QAE@XZ$2
	DD	02H
	DD	FLAT:__unwindfunclet$??0CCastleDeepEvent@@QAE@XZ$3
	DD	03H
	DD	FLAT:__unwindfunclet$??0CCastleDeepEvent@@QAE@XZ$4
; Function compile flags: /Odtp /ZI
xdata$x	ENDS
_TEXT	SEGMENT
_this$ = -16						; size = 4
__$EHRec$ = -12						; size = 12
??0CCastleDeepEvent@@QAE@XZ PROC			; CCastleDeepEvent::CCastleDeepEvent
; _this$ = ecx

; 21   : {

  00000	55		 push	 ebp
  00001	8b ec		 mov	 ebp, esp
  00003	6a ff		 push	 -1
  00005	68 00 00 00 00	 push	 __ehhandler$??0CCastleDeepEvent@@QAE@XZ
  0000a	64 a1 00 00 00
	00		 mov	 eax, DWORD PTR fs:0
  00010	50		 push	 eax
  00011	83 ec 44	 sub	 esp, 68			; 00000044H
  00014	53		 push	 ebx
  00015	56		 push	 esi
  00016	57		 push	 edi
  00017	a1 00 00 00 00	 mov	 eax, DWORD PTR ___security_cookie
  0001c	33 c5		 xor	 eax, ebp
  0001e	50		 push	 eax
  0001f	8d 45 f4	 lea	 eax, DWORD PTR __$EHRec$[ebp]
  00022	64 a3 00 00 00
	00		 mov	 DWORD PTR fs:0, eax
  00028	89 4d f0	 mov	 DWORD PTR _this$[ebp], ecx
  0002b	8b 45 f0	 mov	 eax, DWORD PTR _this$[ebp]
  0002e	c7 00 00 00 00
	00		 mov	 DWORD PTR [eax], OFFSET ??_7CCastleDeepEvent@@6B@
  00034	8b 4d f0	 mov	 ecx, DWORD PTR _this$[ebp]
  00037	83 c1 30	 add	 ecx, 48			; 00000030H
  0003a	e8 00 00 00 00	 call	 ??0?$map@HV?$vector@UCASTLEDEEP_MONSTERINFO@@V?$allocator@UCASTLEDEEP_MONSTERINFO@@@std@@@std@@U?$less@H@2@V?$allocator@U?$pair@$$CBHV?$vector@UCASTLEDEEP_MONSTERINFO@@V?$allocator@UCASTLEDEEP_MONSTERINFO@@@std@@@std@@@std@@@2@@std@@QAE@XZ ; std::map<int,std::vector<CASTLEDEEP_MONSTERINFO,std::allocator<CASTLEDEEP_MONSTERINFO> >,std::less<int>,std::allocator<std::pair<int const ,std::vector<CASTLEDEEP_MONSTERINFO,std::allocator<CASTLEDEEP_MONSTERINFO> > > > >::map<int,std::vector<CASTLEDEEP_MONSTERINFO,std::allocator<CASTLEDEEP_MONSTERINFO> >,std::less<int>,std::allocator<std::pair<int const ,std::vector<CASTLEDEEP_MONSTERINFO,std::allocator<CASTLEDEEP_MONSTERINFO> > > > >
  0003f	c7 45 fc 00 00
	00 00		 mov	 DWORD PTR __$EHRec$[ebp+8], 0
  00046	8b 4d f0	 mov	 ecx, DWORD PTR _this$[ebp]
  00049	83 c1 40	 add	 ecx, 64			; 00000040H
  0004c	e8 00 00 00 00	 call	 ??0?$map@HV?$vector@UCASTLEDEEP_SPAWNTIME@@V?$allocator@UCASTLEDEEP_SPAWNTIME@@@std@@@std@@U?$less@H@2@V?$allocator@U?$pair@$$CBHV?$vector@UCASTLEDEEP_SPAWNTIME@@V?$allocator@UCASTLEDEEP_SPAWNTIME@@@std@@@std@@@std@@@2@@std@@QAE@XZ ; std::map<int,std::vector<CASTLEDEEP_SPAWNTIME,std::allocator<CASTLEDEEP_SPAWNTIME> >,std::less<int>,std::allocator<std::pair<int const ,std::vector<CASTLEDEEP_SPAWNTIME,std::allocator<CASTLEDEEP_SPAWNTIME> > > > >::map<int,std::vector<CASTLEDEEP_SPAWNTIME,std::allocator<CASTLEDEEP_SPAWNTIME> >,std::less<int>,std::allocator<std::pair<int const ,std::vector<CASTLEDEEP_SPAWNTIME,std::allocator<CASTLEDEEP_SPAWNTIME> > > > >
  00051	c6 45 fc 01	 mov	 BYTE PTR __$EHRec$[ebp+8], 1
  00055	8b 4d f0	 mov	 ecx, DWORD PTR _this$[ebp]
  00058	83 c1 50	 add	 ecx, 80			; 00000050H
  0005b	e8 00 00 00 00	 call	 ??0?$vector@UCASTLEDEEP_EVENTTIME@@V?$allocator@UCASTLEDEEP_EVENTTIME@@@std@@@std@@QAE@XZ ; std::vector<CASTLEDEEP_EVENTTIME,std::allocator<CASTLEDEEP_EVENTTIME> >::vector<CASTLEDEEP_EVENTTIME,std::allocator<CASTLEDEEP_EVENTTIME> >
  00060	c6 45 fc 02	 mov	 BYTE PTR __$EHRec$[ebp+8], 2
  00064	8b 4d f0	 mov	 ecx, DWORD PTR _this$[ebp]
  00067	83 c1 60	 add	 ecx, 96			; 00000060H
  0006a	e8 00 00 00 00	 call	 ??0?$vector@HV?$allocator@H@std@@@std@@QAE@XZ ; std::vector<int,std::allocator<int> >::vector<int,std::allocator<int> >
  0006f	c6 45 fc 03	 mov	 BYTE PTR __$EHRec$[ebp+8], 3
  00073	8b 4d f0	 mov	 ecx, DWORD PTR _this$[ebp]
  00076	83 c1 70	 add	 ecx, 112		; 00000070H
  00079	e8 00 00 00 00	 call	 ??0?$vector@HV?$allocator@H@std@@@std@@QAE@XZ ; std::vector<int,std::allocator<int> >::vector<int,std::allocator<int> >
  0007e	c6 45 fc 04	 mov	 BYTE PTR __$EHRec$[ebp+8], 4
  00082	8b 4d f0	 mov	 ecx, DWORD PTR _this$[ebp]
  00085	81 c1 80 00 00
	00		 add	 ecx, 128		; 00000080H
  0008b	e8 00 00 00 00	 call	 ??0?$map@HHU?$less@H@std@@V?$allocator@U?$pair@$$CBHH@std@@@2@@std@@QAE@XZ ; std::map<int,int,std::less<int>,std::allocator<std::pair<int const ,int> > >::map<int,int,std::less<int>,std::allocator<std::pair<int const ,int> > >

; 22   : 	this->m_bDoEvent = FALSE;

  00090	8b 45 f0	 mov	 eax, DWORD PTR _this$[ebp]
  00093	c7 40 04 00 00
	00 00		 mov	 DWORD PTR [eax+4], 0

; 23   : 	this->m_bHasData = FALSE;

  0009a	8b 45 f0	 mov	 eax, DWORD PTR _this$[ebp]
  0009d	c7 40 08 00 00
	00 00		 mov	 DWORD PTR [eax+8], 0

; 24   : 
; 25   : 	srand(time(NULL));

  000a4	6a 00		 push	 0
  000a6	e8 00 00 00 00	 call	 _time
  000ab	83 c4 04	 add	 esp, 4
  000ae	50		 push	 eax
  000af	e8 00 00 00 00	 call	 _srand
  000b4	83 c4 04	 add	 esp, 4

; 26   : 
; 27   : 	InitializeCriticalSection(&this->m_critEventData);

  000b7	8b 45 f0	 mov	 eax, DWORD PTR _this$[ebp]
  000ba	05 90 00 00 00	 add	 eax, 144		; 00000090H
  000bf	50		 push	 eax
  000c0	ff 15 00 00 00
	00		 call	 DWORD PTR __imp__InitializeCriticalSection@4

; 28   : }

  000c6	c7 45 fc ff ff
	ff ff		 mov	 DWORD PTR __$EHRec$[ebp+8], -1
  000cd	8b 45 f0	 mov	 eax, DWORD PTR _this$[ebp]
  000d0	8b 4d f4	 mov	 ecx, DWORD PTR __$EHRec$[ebp]
  000d3	64 89 0d 00 00
	00 00		 mov	 DWORD PTR fs:0, ecx
  000da	59		 pop	 ecx
  000db	5f		 pop	 edi
  000dc	5e		 pop	 esi
  000dd	5b		 pop	 ebx
  000de	8b e5		 mov	 esp, ebp
  000e0	5d		 pop	 ebp
  000e1	c3		 ret	 0
_TEXT	ENDS
text$x	SEGMENT
__unwindfunclet$??0CCastleDeepEvent@@QAE@XZ$0:
  00000	8b 4d f0	 mov	 ecx, DWORD PTR _this$[ebp]
  00003	83 c1 30	 add	 ecx, 48			; 00000030H
  00006	e9 00 00 00 00	 jmp	 ??1?$map@HV?$vector@UCASTLEDEEP_MONSTERINFO@@V?$allocator@UCASTLEDEEP_MONSTERINFO@@@std@@@std@@U?$less@H@2@V?$allocator@U?$pair@$$CBHV?$vector@UCASTLEDEEP_MONSTERINFO@@V?$allocator@UCASTLEDEEP_MONSTERINFO@@@std@@@std@@@std@@@2@@std@@QAE@XZ
__unwindfunclet$??0CCastleDeepEvent@@QAE@XZ$1:
  0000b	8b 4d f0	 mov	 ecx, DWORD PTR _this$[ebp]
  0000e	83 c1 40	 add	 ecx, 64			; 00000040H
  00011	e9 00 00 00 00	 jmp	 ??1?$map@HV?$vector@UCASTLEDEEP_SPAWNTIME@@V?$allocator@UCASTLEDEEP_SPAWNTIME@@@std@@@std@@U?$less@H@2@V?$allocator@U?$pair@$$CBHV?$vector@UCASTLEDEEP_SPAWNTIME@@V?$allocator@UCASTLEDEEP_SPAWNTIME@@@std@@@std@@@std@@@2@@std@@QAE@XZ
__unwindfunclet$??0CCastleDeepEvent@@QAE@XZ$2:
  00016	8b 4d f0	 mov	 ecx, DWORD PTR _this$[ebp]
  00019	83 c1 50	 add	 ecx, 80			; 00000050H
  0001c	e9 00 00 00 00	 jmp	 ??1?$vector@UCASTLEDEEP_EVENTTIME@@V?$allocator@UCASTLEDEEP_EVENTTIME@@@std@@@std@@QAE@XZ ; std::vector<CASTLEDEEP_EVENTTIME,std::allocator<CASTLEDEEP_EVENTTIME> >::~vector<CASTLEDEEP_EVENTTIME,std::allocator<CASTLEDEEP_EVENTTIME> >
__unwindfunclet$??0CCastleDeepEvent@@QAE@XZ$3:
  00021	8b 4d f0	 mov	 ecx, DWORD PTR _this$[ebp]
  00024	83 c1 60	 add	 ecx, 96			; 00000060H
  00027	e9 00 00 00 00	 jmp	 ??1?$vector@HV?$allocator@H@std@@@std@@QAE@XZ ; std::vector<int,std::allocator<int> >::~vector<int,std::allocator<int> >
__unwindfunclet$??0CCastleDeepEvent@@QAE@XZ$4:
  0002c	8b 4d f0	 mov	 ecx, DWORD PTR _this$[ebp]
  0002f	83 c1 70	 add	 ecx, 112		; 00000070H
  00032	e9 00 00 00 00	 jmp	 ??1?$vector@HV?$allocator@H@std@@@std@@QAE@XZ ; std::vector<int,std::allocator<int> >::~vector<int,std::allocator<int> >
__ehhandler$??0CCastleDeepEvent@@QAE@XZ:
  00037	8b 54 24 08	 mov	 edx, DWORD PTR [esp+8]
  0003b	8d 42 0c	 lea	 eax, DWORD PTR [edx+12]
  0003e	8b 4a ac	 mov	 ecx, DWORD PTR [edx-84]
  00041	33 c8		 xor	 ecx, eax
  00043	e8 00 00 00 00	 call	 @__security_check_cookie@4
  00048	b8 00 00 00 00	 mov	 eax, OFFSET __ehfuncinfo$??0CCastleDeepEvent@@QAE@XZ
  0004d	e9 00 00 00 00	 jmp	 ___CxxFrameHandler3
text$x	ENDS
??0CCastleDeepEvent@@QAE@XZ ENDP			; CCastleDeepEvent::CCastleDeepEvent
EXTRN	__time64:PROC
; Function compile flags: /Odtp /ZI
; File d:\microsoft visual studio 10.0\vc\include\time.inl
_TEXT	SEGMENT
__Time$ = 8						; size = 4
_time	PROC

; 132  : {

  000f0	55		 push	 ebp
  000f1	8b ec		 mov	 ebp, esp
  000f3	83 ec 40	 sub	 esp, 64			; 00000040H
  000f6	53		 push	 ebx
  000f7	56		 push	 esi
  000f8	57		 push	 edi

; 133  :     return _time64(_Time);

  000f9	8b 45 08	 mov	 eax, DWORD PTR __Time$[ebp]
  000fc	50		 push	 eax
  000fd	e8 00 00 00 00	 call	 __time64
  00102	83 c4 04	 add	 esp, 4

; 134  : }

  00105	5f		 pop	 edi
  00106	5e		 pop	 esi
  00107	5b		 pop	 ebx
  00108	8b e5		 mov	 esp, ebp
  0010a	5d		 pop	 ebp
  0010b	c3		 ret	 0
_time	ENDP
_TEXT	ENDS
PUBLIC	??1CCastleDeepEvent@@UAE@XZ			; CCastleDeepEvent::~CCastleDeepEvent
EXTRN	??3@YAXPAX@Z:PROC				; operator delete
; Function compile flags: /Odtp /ZI
;	COMDAT ??_GCCastleDeepEvent@@UAEPAXI@Z
_TEXT	SEGMENT
_this$ = -4						; size = 4
___flags$ = 8						; size = 4
??_GCCastleDeepEvent@@UAEPAXI@Z PROC			; CCastleDeepEvent::`scalar deleting destructor', COMDAT
; _this$ = ecx
  00000	55		 push	 ebp
  00001	8b ec		 mov	 ebp, esp
  00003	83 ec 44	 sub	 esp, 68			; 00000044H
  00006	53		 push	 ebx
  00007	56		 push	 esi
  00008	57		 push	 edi
  00009	89 4d fc	 mov	 DWORD PTR _this$[ebp], ecx
  0000c	8b 4d fc	 mov	 ecx, DWORD PTR _this$[ebp]
  0000f	e8 00 00 00 00	 call	 ??1CCastleDeepEvent@@UAE@XZ ; CCastleDeepEvent::~CCastleDeepEvent
  00014	8b 45 08	 mov	 eax, DWORD PTR ___flags$[ebp]
  00017	83 e0 01	 and	 eax, 1
  0001a	74 0c		 je	 SHORT $LN1@scalar
  0001c	8b 45 fc	 mov	 eax, DWORD PTR _this$[ebp]
  0001f	50		 push	 eax
  00020	e8 00 00 00 00	 call	 ??3@YAXPAX@Z		; operator delete
  00025	83 c4 04	 add	 esp, 4
$LN1@scalar:
  00028	8b 45 fc	 mov	 eax, DWORD PTR _this$[ebp]
  0002b	5f		 pop	 edi
  0002c	5e		 pop	 esi
  0002d	5b		 pop	 ebx
  0002e	8b e5		 mov	 esp, ebp
  00030	5d		 pop	 ebp
  00031	c2 04 00	 ret	 4
??_GCCastleDeepEvent@@UAEPAXI@Z ENDP			; CCastleDeepEvent::`scalar deleting destructor'
_TEXT	ENDS
PUBLIC	??1?$_Tree@V?$_Tmap_traits@HV?$vector@UCASTLEDEEP_MONSTERINFO@@V?$allocator@UCASTLEDEEP_MONSTERINFO@@@std@@@std@@U?$less@H@2@V?$allocator@U?$pair@$$CBHV?$vector@UCASTLEDEEP_MONSTERINFO@@V?$allocator@UCASTLEDEEP_MONSTERINFO@@@std@@@std@@@std@@@2@$0A@@std@@@std@@QAE@XZ ; std::_Tree<std::_Tmap_traits<int,std::vector<CASTLEDEEP_MONSTERINFO,std::allocator<CASTLEDEEP_MONSTERINFO> >,std::less<int>,std::allocator<std::pair<int const ,std::vector<CASTLEDEEP_MONSTERINFO,std::allocator<CASTLEDEEP_MONSTERINFO> > > >,0> >::~_Tree<std::_Tmap_traits<int,std::vector<CASTLEDEEP_MONSTERINFO,std::allocator<CASTLEDEEP_MONSTERINFO> >,std::less<int>,std::allocator<std::pair<int const ,std::vector<CASTLEDEEP_MONSTERINFO,std::allocator<CASTLEDEEP_MONSTERINFO> > > >,0> >
; Function compile flags: /Odtp /ZI
;	COMDAT ??1?$map@HV?$vector@UCASTLEDEEP_MONSTERINFO@@V?$allocator@UCASTLEDEEP_MONSTERINFO@@@std@@@std@@U?$less@H@2@V?$allocator@U?$pair@$$CBHV?$vector@UCASTLEDEEP_MONSTERINFO@@V?$allocator@UCASTLEDEEP_MONSTERINFO@@@std@@@std@@@std@@@2@@std@@QAE@XZ
_TEXT	SEGMENT
_this$ = -4						; size = 4
??1?$map@HV?$vector@UCASTLEDEEP_MONSTERINFO@@V?$allocator@UCASTLEDEEP_MONSTERINFO@@@std@@@std@@U?$less@H@2@V?$allocator@U?$pair@$$CBHV?$vector@UCASTLEDEEP_MONSTERINFO@@V?$allocator@UCASTLEDEEP_MONSTERINFO@@@std@@@std@@@std@@@2@@std@@QAE@XZ PROC ; std::map<int,std::vector<CASTLEDEEP_MONSTERINFO,std::allocator<CASTLEDEEP_MONSTERINFO> >,std::less<int>,std::allocator<std::pair<int const ,std::vector<CASTLEDEEP_MONSTERINFO,std::allocator<CASTLEDEEP_MONSTERINFO> > > > >::~map<int,std::vector<CASTLEDEEP_MONSTERINFO,std::allocator<CASTLEDEEP_MONSTERINFO> >,std::less<int>,std::allocator<std::pair<int const ,std::vector<CASTLEDEEP_MONSTERINFO,std::allocator<CASTLEDEEP_MONSTERINFO> > > > >, COMDAT
; _this$ = ecx
  00000	55		 push	 ebp
  00001	8b ec		 mov	 ebp, esp
  00003	83 ec 44	 sub	 esp, 68			; 00000044H
  00006	53		 push	 ebx
  00007	56		 push	 esi
  00008	57		 push	 edi
  00009	89 4d fc	 mov	 DWORD PTR _this$[ebp], ecx
  0000c	8b 4d fc	 mov	 ecx, DWORD PTR _this$[ebp]
  0000f	e8 00 00 00 00	 call	 ??1?$_Tree@V?$_Tmap_traits@HV?$vector@UCASTLEDEEP_MONSTERINFO@@V?$allocator@UCASTLEDEEP_MONSTERINFO@@@std@@@std@@U?$less@H@2@V?$allocator@U?$pair@$$CBHV?$vector@UCASTLEDEEP_MONSTERINFO@@V?$allocator@UCASTLEDEEP_MONSTERINFO@@@std@@@std@@@std@@@2@$0A@@std@@@std@@QAE@XZ ; std::_Tree<std::_Tmap_traits<int,std::vector<CASTLEDEEP_MONSTERINFO,std::allocator<CASTLEDEEP_MONSTERINFO> >,std::less<int>,std::allocator<std::pair<int const ,std::vector<CASTLEDEEP_MONSTERINFO,std::allocator<CASTLEDEEP_MONSTERINFO> > > >,0> >::~_Tree<std::_Tmap_traits<int,std::vector<CASTLEDEEP_MONSTERINFO,std::allocator<CASTLEDEEP_MONSTERINFO> >,std::less<int>,std::allocator<std::pair<int const ,std::vector<CASTLEDEEP_MONSTERINFO,std::allocator<CASTLEDEEP_MONSTERINFO> > > >,0> >
  00014	5f		 pop	 edi
  00015	5e		 pop	 esi
  00016	5b		 pop	 ebx
  00017	8b e5		 mov	 esp, ebp
  00019	5d		 pop	 ebp
  0001a	c3		 ret	 0
??1?$map@HV?$vector@UCASTLEDEEP_MONSTERINFO@@V?$allocator@UCASTLEDEEP_MONSTERINFO@@@std@@@std@@U?$less@H@2@V?$allocator@U?$pair@$$CBHV?$vector@UCASTLEDEEP_MONSTERINFO@@V?$allocator@UCASTLEDEEP_MONSTERINFO@@@std@@@std@@@std@@@2@@std@@QAE@XZ ENDP ; std::map<int,std::vector<CASTLEDEEP_MONSTERINFO,std::allocator<CASTLEDEEP_MONSTERINFO> >,std::less<int>,std::allocator<std::pair<int const ,std::vector<CASTLEDEEP_MONSTERINFO,std::allocator<CASTLEDEEP_MONSTERINFO> > > > >::~map<int,std::vector<CASTLEDEEP_MONSTERINFO,std::allocator<CASTLEDEEP_MONSTERINFO> >,std::less<int>,std::allocator<std::pair<int const ,std::vector<CASTLEDEEP_MONSTERINFO,std::allocator<CASTLEDEEP_MONSTERINFO> > > > >
_TEXT	ENDS
PUBLIC	??1?$_Tree@V?$_Tmap_traits@HV?$vector@UCASTLEDEEP_SPAWNTIME@@V?$allocator@UCASTLEDEEP_SPAWNTIME@@@std@@@std@@U?$less@H@2@V?$allocator@U?$pair@$$CBHV?$vector@UCASTLEDEEP_SPAWNTIME@@V?$allocator@UCASTLEDEEP_SPAWNTIME@@@std@@@std@@@std@@@2@$0A@@std@@@std@@QAE@XZ ; std::_Tree<std::_Tmap_traits<int,std::vector<CASTLEDEEP_SPAWNTIME,std::allocator<CASTLEDEEP_SPAWNTIME> >,std::less<int>,std::allocator<std::pair<int const ,std::vector<CASTLEDEEP_SPAWNTIME,std::allocator<CASTLEDEEP_SPAWNTIME> > > >,0> >::~_Tree<std::_Tmap_traits<int,std::vector<CASTLEDEEP_SPAWNTIME,std::allocator<CASTLEDEEP_SPAWNTIME> >,std::less<int>,std::allocator<std::pair<int const ,std::vector<CASTLEDEEP_SPAWNTIME,std::allocator<CASTLEDEEP_SPAWNTIME> > > >,0> >
; Function compile flags: /Odtp /ZI
;	COMDAT ??1?$map@HV?$vector@UCASTLEDEEP_SPAWNTIME@@V?$allocator@UCASTLEDEEP_SPAWNTIME@@@std@@@std@@U?$less@H@2@V?$allocator@U?$pair@$$CBHV?$vector@UCASTLEDEEP_SPAWNTIME@@V?$allocator@UCASTLEDEEP_SPAWNTIME@@@std@@@std@@@std@@@2@@std@@QAE@XZ
_TEXT	SEGMENT
_this$ = -4						; size = 4
??1?$map@HV?$vector@UCASTLEDEEP_SPAWNTIME@@V?$allocator@UCASTLEDEEP_SPAWNTIME@@@std@@@std@@U?$less@H@2@V?$allocator@U?$pair@$$CBHV?$vector@UCASTLEDEEP_SPAWNTIME@@V?$allocator@UCASTLEDEEP_SPAWNTIME@@@std@@@std@@@std@@@2@@std@@QAE@XZ PROC ; std::map<int,std::vector<CASTLEDEEP_SPAWNTIME,std::allocator<CASTLEDEEP_SPAWNTIME> >,std::less<int>,std::allocator<std::pair<int const ,std::vector<CASTLEDEEP_SPAWNTIME,std::allocator<CASTLEDEEP_SPAWNTIME> > > > >::~map<int,std::vector<CASTLEDEEP_SPAWNTIME,std::allocator<CASTLEDEEP_SPAWNTIME> >,std::less<int>,std::allocator<std::pair<int const ,std::vector<CASTLEDEEP_SPAWNTIME,std::allocator<CASTLEDEEP_SPAWNTIME> > > > >, COMDAT
; _this$ = ecx
  00000	55		 push	 ebp
  00001	8b ec		 mov	 ebp, esp
  00003	83 ec 44	 sub	 esp, 68			; 00000044H
  00006	53		 push	 ebx
  00007	56		 push	 esi
  00008	57		 push	 edi
  00009	89 4d fc	 mov	 DWORD PTR _this$[ebp], ecx
  0000c	8b 4d fc	 mov	 ecx, DWORD PTR _this$[ebp]
  0000f	e8 00 00 00 00	 call	 ??1?$_Tree@V?$_Tmap_traits@HV?$vector@UCASTLEDEEP_SPAWNTIME@@V?$allocator@UCASTLEDEEP_SPAWNTIME@@@std@@@std@@U?$less@H@2@V?$allocator@U?$pair@$$CBHV?$vector@UCASTLEDEEP_SPAWNTIME@@V?$allocator@UCASTLEDEEP_SPAWNTIME@@@std@@@std@@@std@@@2@$0A@@std@@@std@@QAE@XZ ; std::_Tree<std::_Tmap_traits<int,std::vector<CASTLEDEEP_SPAWNTIME,std::allocator<CASTLEDEEP_SPAWNTIME> >,std::less<int>,std::allocator<std::pair<int const ,std::vector<CASTLEDEEP_SPAWNTIME,std::allocator<CASTLEDEEP_SPAWNTIME> > > >,0> >::~_Tree<std::_Tmap_traits<int,std::vector<CASTLEDEEP_SPAWNTIME,std::allocator<CASTLEDEEP_SPAWNTIME> >,std::less<int>,std::allocator<std::pair<int const ,std::vector<CASTLEDEEP_SPAWNTIME,std::allocator<CASTLEDEEP_SPAWNTIME> > > >,0> >
  00014	5f		 pop	 edi
  00015	5e		 pop	 esi
  00016	5b		 pop	 ebx
  00017	8b e5		 mov	 esp, ebp
  00019	5d		 pop	 ebp
  0001a	c3		 ret	 0
??1?$map@HV?$vector@UCASTLEDEEP_SPAWNTIME@@V?$allocator@UCASTLEDEEP_SPAWNTIME@@@std@@@std@@U?$less@H@2@V?$allocator@U?$pair@$$CBHV?$vector@UCASTLEDEEP_SPAWNTIME@@V?$allocator@UCASTLEDEEP_SPAWNTIME@@@std@@@std@@@std@@@2@@std@@QAE@XZ ENDP ; std::map<int,std::vector<CASTLEDEEP_SPAWNTIME,std::allocator<CASTLEDEEP_SPAWNTIME> >,std::less<int>,std::allocator<std::pair<int const ,std::vector<CASTLEDEEP_SPAWNTIME,std::allocator<CASTLEDEEP_SPAWNTIME> > > > >::~map<int,std::vector<CASTLEDEEP_SPAWNTIME,std::allocator<CASTLEDEEP_SPAWNTIME> >,std::less<int>,std::allocator<std::pair<int const ,std::vector<CASTLEDEEP_SPAWNTIME,std::allocator<CASTLEDEEP_SPAWNTIME> > > > >
_TEXT	ENDS
PUBLIC	??1?$map@HHU?$less@H@std@@V?$allocator@U?$pair@$$CBHH@std@@@2@@std@@QAE@XZ ; std::map<int,int,std::less<int>,std::allocator<std::pair<int const ,int> > >::~map<int,int,std::less<int>,std::allocator<std::pair<int const ,int> > >
EXTRN	__imp__DeleteCriticalSection@4:PROC
xdata$x	SEGMENT
__ehfuncinfo$??1CCastleDeepEvent@@UAE@XZ DD 019930522H
	DD	05H
	DD	FLAT:__unwindtable$??1CCastleDeepEvent@@UAE@XZ
	DD	2 DUP(00H)
	DD	2 DUP(00H)
	DD	00H
	DD	01H
__unwindtable$??1CCastleDeepEvent@@UAE@XZ DD 0ffffffffH
	DD	FLAT:__unwindfunclet$??1CCastleDeepEvent@@UAE@XZ$0
	DD	00H
	DD	FLAT:__unwindfunclet$??1CCastleDeepEvent@@UAE@XZ$1
	DD	01H
	DD	FLAT:__unwindfunclet$??1CCastleDeepEvent@@UAE@XZ$2
	DD	02H
	DD	FLAT:__unwindfunclet$??1CCastleDeepEvent@@UAE@XZ$3
	DD	03H
	DD	FLAT:__unwindfunclet$??1CCastleDeepEvent@@UAE@XZ$4
; Function compile flags: /Odtp /ZI
; File d:\projects\exteam6.3\source\gameserver\gameserver\castledeepevent.cpp
xdata$x	ENDS
_TEXT	SEGMENT
_this$ = -16						; size = 4
__$EHRec$ = -12						; size = 12
??1CCastleDeepEvent@@UAE@XZ PROC			; CCastleDeepEvent::~CCastleDeepEvent
; _this$ = ecx

; 31   : {

  00110	55		 push	 ebp
  00111	8b ec		 mov	 ebp, esp
  00113	6a ff		 push	 -1
  00115	68 00 00 00 00	 push	 __ehhandler$??1CCastleDeepEvent@@UAE@XZ
  0011a	64 a1 00 00 00
	00		 mov	 eax, DWORD PTR fs:0
  00120	50		 push	 eax
  00121	83 ec 44	 sub	 esp, 68			; 00000044H
  00124	53		 push	 ebx
  00125	56		 push	 esi
  00126	57		 push	 edi
  00127	a1 00 00 00 00	 mov	 eax, DWORD PTR ___security_cookie
  0012c	33 c5		 xor	 eax, ebp
  0012e	50		 push	 eax
  0012f	8d 45 f4	 lea	 eax, DWORD PTR __$EHRec$[ebp]
  00132	64 a3 00 00 00
	00		 mov	 DWORD PTR fs:0, eax
  00138	89 4d f0	 mov	 DWORD PTR _this$[ebp], ecx
  0013b	8b 45 f0	 mov	 eax, DWORD PTR _this$[ebp]
  0013e	c7 00 00 00 00
	00		 mov	 DWORD PTR [eax], OFFSET ??_7CCastleDeepEvent@@6B@
  00144	c7 45 fc 04 00
	00 00		 mov	 DWORD PTR __$EHRec$[ebp+8], 4

; 32   : 	DeleteCriticalSection(&this->m_critEventData);

  0014b	8b 45 f0	 mov	 eax, DWORD PTR _this$[ebp]
  0014e	05 90 00 00 00	 add	 eax, 144		; 00000090H
  00153	50		 push	 eax
  00154	ff 15 00 00 00
	00		 call	 DWORD PTR __imp__DeleteCriticalSection@4

; 33   : }

  0015a	8b 4d f0	 mov	 ecx, DWORD PTR _this$[ebp]
  0015d	81 c1 80 00 00
	00		 add	 ecx, 128		; 00000080H
  00163	e8 00 00 00 00	 call	 ??1?$map@HHU?$less@H@std@@V?$allocator@U?$pair@$$CBHH@std@@@2@@std@@QAE@XZ
  00168	c6 45 fc 03	 mov	 BYTE PTR __$EHRec$[ebp+8], 3
  0016c	8b 4d f0	 mov	 ecx, DWORD PTR _this$[ebp]
  0016f	83 c1 70	 add	 ecx, 112		; 00000070H
  00172	e8 00 00 00 00	 call	 ??1?$vector@HV?$allocator@H@std@@@std@@QAE@XZ ; std::vector<int,std::allocator<int> >::~vector<int,std::allocator<int> >
  00177	c6 45 fc 02	 mov	 BYTE PTR __$EHRec$[ebp+8], 2
  0017b	8b 4d f0	 mov	 ecx, DWORD PTR _this$[ebp]
  0017e	83 c1 60	 add	 ecx, 96			; 00000060H
  00181	e8 00 00 00 00	 call	 ??1?$vector@HV?$allocator@H@std@@@std@@QAE@XZ ; std::vector<int,std::allocator<int> >::~vector<int,std::allocator<int> >
  00186	c6 45 fc 01	 mov	 BYTE PTR __$EHRec$[ebp+8], 1
  0018a	8b 4d f0	 mov	 ecx, DWORD PTR _this$[ebp]
  0018d	83 c1 50	 add	 ecx, 80			; 00000050H
  00190	e8 00 00 00 00	 call	 ??1?$vector@UCASTLEDEEP_EVENTTIME@@V?$allocator@UCASTLEDEEP_EVENTTIME@@@std@@@std@@QAE@XZ ; std::vector<CASTLEDEEP_EVENTTIME,std::allocator<CASTLEDEEP_EVENTTIME> >::~vector<CASTLEDEEP_EVENTTIME,std::allocator<CASTLEDEEP_EVENTTIME> >
  00195	c6 45 fc 00	 mov	 BYTE PTR __$EHRec$[ebp+8], 0
  00199	8b 4d f0	 mov	 ecx, DWORD PTR _this$[ebp]
  0019c	83 c1 40	 add	 ecx, 64			; 00000040H
  0019f	e8 00 00 00 00	 call	 ??1?$map@HV?$vector@UCASTLEDEEP_SPAWNTIME@@V?$allocator@UCASTLEDEEP_SPAWNTIME@@@std@@@std@@U?$less@H@2@V?$allocator@U?$pair@$$CBHV?$vector@UCASTLEDEEP_SPAWNTIME@@V?$allocator@UCASTLEDEEP_SPAWNTIME@@@std@@@std@@@std@@@2@@std@@QAE@XZ
  001a4	c7 45 fc ff ff
	ff ff		 mov	 DWORD PTR __$EHRec$[ebp+8], -1
  001ab	8b 4d f0	 mov	 ecx, DWORD PTR _this$[ebp]
  001ae	83 c1 30	 add	 ecx, 48			; 00000030H
  001b1	e8 00 00 00 00	 call	 ??1?$map@HV?$vector@UCASTLEDEEP_MONSTERINFO@@V?$allocator@UCASTLEDEEP_MONSTERINFO@@@std@@@std@@U?$less@H@2@V?$allocator@U?$pair@$$CBHV?$vector@UCASTLEDEEP_MONSTERINFO@@V?$allocator@UCASTLEDEEP_MONSTERINFO@@@std@@@std@@@std@@@2@@std@@QAE@XZ
  001b6	8b 4d f4	 mov	 ecx, DWORD PTR __$EHRec$[ebp]
  001b9	64 89 0d 00 00
	00 00		 mov	 DWORD PTR fs:0, ecx
  001c0	59		 pop	 ecx
  001c1	5f		 pop	 edi
  001c2	5e		 pop	 esi
  001c3	5b		 pop	 ebx
  001c4	8b e5		 mov	 esp, ebp
  001c6	5d		 pop	 ebp
  001c7	c3		 ret	 0
_TEXT	ENDS
text$x	SEGMENT
__unwindfunclet$??1CCastleDeepEvent@@UAE@XZ$0:
  00052	8b 4d f0	 mov	 ecx, DWORD PTR _this$[ebp]
  00055	83 c1 30	 add	 ecx, 48			; 00000030H
  00058	e9 00 00 00 00	 jmp	 ??1?$map@HV?$vector@UCASTLEDEEP_MONSTERINFO@@V?$allocator@UCASTLEDEEP_MONSTERINFO@@@std@@@std@@U?$less@H@2@V?$allocator@U?$pair@$$CBHV?$vector@UCASTLEDEEP_MONSTERINFO@@V?$allocator@UCASTLEDEEP_MONSTERINFO@@@std@@@std@@@std@@@2@@std@@QAE@XZ
__unwindfunclet$??1CCastleDeepEvent@@UAE@XZ$1:
  0005d	8b 4d f0	 mov	 ecx, DWORD PTR _this$[ebp]
  00060	83 c1 40	 add	 ecx, 64			; 00000040H
  00063	e9 00 00 00 00	 jmp	 ??1?$map@HV?$vector@UCASTLEDEEP_SPAWNTIME@@V?$allocator@UCASTLEDEEP_SPAWNTIME@@@std@@@std@@U?$less@H@2@V?$allocator@U?$pair@$$CBHV?$vector@UCASTLEDEEP_SPAWNTIME@@V?$allocator@UCASTLEDEEP_SPAWNTIME@@@std@@@std@@@std@@@2@@std@@QAE@XZ
__unwindfunclet$??1CCastleDeepEvent@@UAE@XZ$2:
  00068	8b 4d f0	 mov	 ecx, DWORD PTR _this$[ebp]
  0006b	83 c1 50	 add	 ecx, 80			; 00000050H
  0006e	e9 00 00 00 00	 jmp	 ??1?$vector@UCASTLEDEEP_EVENTTIME@@V?$allocator@UCASTLEDEEP_EVENTTIME@@@std@@@std@@QAE@XZ ; std::vector<CASTLEDEEP_EVENTTIME,std::allocator<CASTLEDEEP_EVENTTIME> >::~vector<CASTLEDEEP_EVENTTIME,std::allocator<CASTLEDEEP_EVENTTIME> >
__unwindfunclet$??1CCastleDeepEvent@@UAE@XZ$3:
  00073	8b 4d f0	 mov	 ecx, DWORD PTR _this$[ebp]
  00076	83 c1 60	 add	 ecx, 96			; 00000060H
  00079	e9 00 00 00 00	 jmp	 ??1?$vector@HV?$allocator@H@std@@@std@@QAE@XZ ; std::vector<int,std::allocator<int> >::~vector<int,std::allocator<int> >
__unwindfunclet$??1CCastleDeepEvent@@UAE@XZ$4:
  0007e	8b 4d f0	 mov	 ecx, DWORD PTR _this$[ebp]
  00081	83 c1 70	 add	 ecx, 112		; 00000070H
  00084	e9 00 00 00 00	 jmp	 ??1?$vector@HV?$allocator@H@std@@@std@@QAE@XZ ; std::vector<int,std::allocator<int> >::~vector<int,std::allocator<int> >
__ehhandler$??1CCastleDeepEvent@@UAE@XZ:
  00089	8b 54 24 08	 mov	 edx, DWORD PTR [esp+8]
  0008d	8d 42 0c	 lea	 eax, DWORD PTR [edx+12]
  00090	8b 4a ac	 mov	 ecx, DWORD PTR [edx-84]
  00093	33 c8		 xor	 ecx, eax
  00095	e8 00 00 00 00	 call	 @__security_check_cookie@4
  0009a	b8 00 00 00 00	 mov	 eax, OFFSET __ehfuncinfo$??1CCastleDeepEvent@@UAE@XZ
  0009f	e9 00 00 00 00	 jmp	 ___CxxFrameHandler3
text$x	ENDS
??1CCastleDeepEvent@@UAE@XZ ENDP			; CCastleDeepEvent::~CCastleDeepEvent
PUBLIC	??1?$_Tree@V?$_Tmap_traits@HHU?$less@H@std@@V?$allocator@U?$pair@$$CBHH@std@@@2@$0A@@std@@@std@@QAE@XZ ; std::_Tree<std::_Tmap_traits<int,int,std::less<int>,std::allocator<std::pair<int const ,int> >,0> >::~_Tree<std::_Tmap_traits<int,int,std::less<int>,std::allocator<std::pair<int const ,int> >,0> >
; Function compile flags: /Odtp /ZI
;	COMDAT ??1?$map@HHU?$less@H@std@@V?$allocator@U?$pair@$$CBHH@std@@@2@@std@@QAE@XZ
_TEXT	SEGMENT
_this$ = -4						; size = 4
??1?$map@HHU?$less@H@std@@V?$allocator@U?$pair@$$CBHH@std@@@2@@std@@QAE@XZ PROC ; std::map<int,int,std::less<int>,std::allocator<std::pair<int const ,int> > >::~map<int,int,std::less<int>,std::allocator<std::pair<int const ,int> > >, COMDAT
; _this$ = ecx
  00000	55		 push	 ebp
  00001	8b ec		 mov	 ebp, esp
  00003	83 ec 44	 sub	 esp, 68			; 00000044H
  00006	53		 push	 ebx
  00007	56		 push	 esi
  00008	57		 push	 edi
  00009	89 4d fc	 mov	 DWORD PTR _this$[ebp], ecx
  0000c	8b 4d fc	 mov	 ecx, DWORD PTR _this$[ebp]
  0000f	e8 00 00 00 00	 call	 ??1?$_Tree@V?$_Tmap_traits@HHU?$less@H@std@@V?$allocator@U?$pair@$$CBHH@std@@@2@$0A@@std@@@std@@QAE@XZ ; std::_Tree<std::_Tmap_traits<int,int,std::less<int>,std::allocator<std::pair<int const ,int> >,0> >::~_Tree<std::_Tmap_traits<int,int,std::less<int>,std::allocator<std::pair<int const ,int> >,0> >
  00014	5f		 pop	 edi
  00015	5e		 pop	 esi
  00016	5b		 pop	 ebx
  00017	8b e5		 mov	 esp, ebp
  00019	5d		 pop	 ebp
  0001a	c3		 ret	 0
??1?$map@HHU?$less@H@std@@V?$allocator@U?$pair@$$CBHH@std@@@2@@std@@QAE@XZ ENDP ; std::map<int,int,std::less<int>,std::allocator<std::pair<int const ,int> > >::~map<int,int,std::less<int>,std::allocator<std::pair<int const ,int> > >
_TEXT	ENDS
PUBLIC	??$insert@U?$pair@HH@std@@@?$_Tree@V?$_Tmap_traits@HHU?$less@H@std@@V?$allocator@U?$pair@$$CBHH@std@@@2@$0A@@std@@@std@@QAE?AU?$pair@V?$_Tree_iterator@V?$_Tree_val@V?$_Tmap_traits@HHU?$less@H@std@@V?$allocator@U?$pair@$$CBHH@std@@@2@$0A@@std@@@std@@@std@@_N@1@$$QAU?$pair@HH@1@@Z ; std::_Tree<std::_Tmap_traits<int,int,std::less<int>,std::allocator<std::pair<int const ,int> >,0> >::insert<std::pair<int,int> >
PUBLIC	??$?0AAHAAH@?$pair@HH@std@@QAE@AAH0@Z		; std::pair<int,int>::pair<int,int><int &,int &>
PUBLIC	??C?$_Vector_iterator@V?$_Vector_val@UCASTLEDEEP_SPAWNTIME@@V?$allocator@UCASTLEDEEP_SPAWNTIME@@@std@@@std@@@std@@QBEPAUCASTLEDEEP_SPAWNTIME@@XZ ; std::_Vector_iterator<std::_Vector_val<CASTLEDEEP_SPAWNTIME,std::allocator<CASTLEDEEP_SPAWNTIME> > >::operator->
PUBLIC	??9?$_Vector_const_iterator@V?$_Vector_val@UCASTLEDEEP_SPAWNTIME@@V?$allocator@UCASTLEDEEP_SPAWNTIME@@@std@@@std@@@std@@QBE_NABV01@@Z ; std::_Vector_const_iterator<std::_Vector_val<CASTLEDEEP_SPAWNTIME,std::allocator<CASTLEDEEP_SPAWNTIME> > >::operator!=
PUBLIC	?end@?$vector@UCASTLEDEEP_SPAWNTIME@@V?$allocator@UCASTLEDEEP_SPAWNTIME@@@std@@@std@@QAE?AV?$_Vector_iterator@V?$_Vector_val@UCASTLEDEEP_SPAWNTIME@@V?$allocator@UCASTLEDEEP_SPAWNTIME@@@std@@@std@@@2@XZ ; std::vector<CASTLEDEEP_SPAWNTIME,std::allocator<CASTLEDEEP_SPAWNTIME> >::end
PUBLIC	??E?$_Vector_iterator@V?$_Vector_val@UCASTLEDEEP_SPAWNTIME@@V?$allocator@UCASTLEDEEP_SPAWNTIME@@@std@@@std@@@std@@QAE?AV01@H@Z ; std::_Vector_iterator<std::_Vector_val<CASTLEDEEP_SPAWNTIME,std::allocator<CASTLEDEEP_SPAWNTIME> > >::operator++
PUBLIC	?begin@?$vector@UCASTLEDEEP_SPAWNTIME@@V?$allocator@UCASTLEDEEP_SPAWNTIME@@@std@@@std@@QAE?AV?$_Vector_iterator@V?$_Vector_val@UCASTLEDEEP_SPAWNTIME@@V?$allocator@UCASTLEDEEP_SPAWNTIME@@@std@@@std@@@2@XZ ; std::vector<CASTLEDEEP_SPAWNTIME,std::allocator<CASTLEDEEP_SPAWNTIME> >::begin
PUBLIC	??C?$_Tree_iterator@V?$_Tree_val@V?$_Tmap_traits@HV?$vector@UCASTLEDEEP_SPAWNTIME@@V?$allocator@UCASTLEDEEP_SPAWNTIME@@@std@@@std@@U?$less@H@2@V?$allocator@U?$pair@$$CBHV?$vector@UCASTLEDEEP_SPAWNTIME@@V?$allocator@UCASTLEDEEP_SPAWNTIME@@@std@@@std@@@std@@@2@$0A@@std@@@std@@@std@@QBEPAU?$pair@$$CBHV?$vector@UCASTLEDEEP_SPAWNTIME@@V?$allocator@UCASTLEDEEP_SPAWNTIME@@@std@@@std@@@1@XZ ; std::_Tree_iterator<std::_Tree_val<std::_Tmap_traits<int,std::vector<CASTLEDEEP_SPAWNTIME,std::allocator<CASTLEDEEP_SPAWNTIME> >,std::less<int>,std::allocator<std::pair<int const ,std::vector<CASTLEDEEP_SPAWNTIME,std::allocator<CASTLEDEEP_SPAWNTIME> > > >,0> > >::operator->
PUBLIC	?clear@?$_Tree@V?$_Tmap_traits@HHU?$less@H@std@@V?$allocator@U?$pair@$$CBHH@std@@@2@$0A@@std@@@std@@QAEXXZ ; std::_Tree<std::_Tmap_traits<int,int,std::less<int>,std::allocator<std::pair<int const ,int> >,0> >::clear
PUBLIC	??8?$_Tree_const_iterator@V?$_Tree_val@V?$_Tmap_traits@HV?$vector@UCASTLEDEEP_SPAWNTIME@@V?$allocator@UCASTLEDEEP_SPAWNTIME@@@std@@@std@@U?$less@H@2@V?$allocator@U?$pair@$$CBHV?$vector@UCASTLEDEEP_SPAWNTIME@@V?$allocator@UCASTLEDEEP_SPAWNTIME@@@std@@@std@@@std@@@2@$0A@@std@@@std@@@std@@QBE_NABV01@@Z ; std::_Tree_const_iterator<std::_Tree_val<std::_Tmap_traits<int,std::vector<CASTLEDEEP_SPAWNTIME,std::allocator<CASTLEDEEP_SPAWNTIME> >,std::less<int>,std::allocator<std::pair<int const ,std::vector<CASTLEDEEP_SPAWNTIME,std::allocator<CASTLEDEEP_SPAWNTIME> > > >,0> > >::operator==
PUBLIC	?end@?$_Tree@V?$_Tmap_traits@HV?$vector@UCASTLEDEEP_SPAWNTIME@@V?$allocator@UCASTLEDEEP_SPAWNTIME@@@std@@@std@@U?$less@H@2@V?$allocator@U?$pair@$$CBHV?$vector@UCASTLEDEEP_SPAWNTIME@@V?$allocator@UCASTLEDEEP_SPAWNTIME@@@std@@@std@@@std@@@2@$0A@@std@@@std@@QAE?AV?$_Tree_iterator@V?$_Tree_val@V?$_Tmap_traits@HV?$vector@UCASTLEDEEP_SPAWNTIME@@V?$allocator@UCASTLEDEEP_SPAWNTIME@@@std@@@std@@U?$less@H@2@V?$allocator@U?$pair@$$CBHV?$vector@UCASTLEDEEP_SPAWNTIME@@V?$allocator@UCASTLEDEEP_SPAWNTIME@@@std@@@std@@@std@@@2@$0A@@std@@@std@@@2@XZ ; std::_Tree<std::_Tmap_traits<int,std::vector<CASTLEDEEP_SPAWNTIME,std::allocator<CASTLEDEEP_SPAWNTIME> >,std::less<int>,std::allocator<std::pair<int const ,std::vector<CASTLEDEEP_SPAWNTIME,std::allocator<CASTLEDEEP_SPAWNTIME> > > >,0> >::end
PUBLIC	?find@?$_Tree@V?$_Tmap_traits@HV?$vector@UCASTLEDEEP_SPAWNTIME@@V?$allocator@UCASTLEDEEP_SPAWNTIME@@@std@@@std@@U?$less@H@2@V?$allocator@U?$pair@$$CBHV?$vector@UCASTLEDEEP_SPAWNTIME@@V?$allocator@UCASTLEDEEP_SPAWNTIME@@@std@@@std@@@std@@@2@$0A@@std@@@std@@QAE?AV?$_Tree_iterator@V?$_Tree_val@V?$_Tmap_traits@HV?$vector@UCASTLEDEEP_SPAWNTIME@@V?$allocator@UCASTLEDEEP_SPAWNTIME@@@std@@@std@@U?$less@H@2@V?$allocator@U?$pair@$$CBHV?$vector@UCASTLEDEEP_SPAWNTIME@@V?$allocator@UCASTLEDEEP_SPAWNTIME@@@std@@@std@@@std@@@2@$0A@@std@@@std@@@2@ABH@Z ; std::_Tree<std::_Tmap_traits<int,std::vector<CASTLEDEEP_SPAWNTIME,std::allocator<CASTLEDEEP_SPAWNTIME> >,std::less<int>,std::allocator<std::pair<int const ,std::vector<CASTLEDEEP_SPAWNTIME,std::allocator<CASTLEDEEP_SPAWNTIME> > > >,0> >::find
PUBLIC	??_C@_0DC@JMKIKJEC@?$FLCastleDeep?5Event?$FN?5Start?5Fail?5?9?5@ ; `string'
PUBLIC	??A?$vector@HV?$allocator@H@std@@@std@@QAEAAHI@Z ; std::vector<int,std::allocator<int> >::operator[]
PUBLIC	?SetState@CCastleDeepEvent@@QAEXH@Z		; CCastleDeepEvent::SetState
PUBLIC	??_C@_0CP@EPJCMAAN@?$FLCastleDeep?5Event?$FN?5Start?5Fail?5?9?5@ ; `string'
PUBLIC	?size@?$vector@HV?$allocator@H@std@@@std@@QBEIXZ ; std::vector<int,std::allocator<int> >::size
PUBLIC	?StartEvent@CCastleDeepEvent@@QAEXXZ		; CCastleDeepEvent::StartEvent
EXTRN	_rand:PROC
EXTRN	?LogAddTD@@3P6AXPADZZA:DWORD			; LogAddTD
;	COMDAT ??_C@_0DC@JMKIKJEC@?$FLCastleDeep?5Event?$FN?5Start?5Fail?5?9?5@
CONST	SEGMENT
??_C@_0DC@JMKIKJEC@?$FLCastleDeep?5Event?$FN?5Start?5Fail?5?9?5@ DB '[Cas'
	DB	'tleDeep Event] Start Fail - bDoStart == FALSE', 00H ; `string'
CONST	ENDS
;	COMDAT ??_C@_0CP@EPJCMAAN@?$FLCastleDeep?5Event?$FN?5Start?5Fail?5?9?5@
CONST	SEGMENT
??_C@_0CP@EPJCMAAN@?$FLCastleDeep?5Event?$FN?5Start?5Fail?5?9?5@ DB '[Cas'
	DB	'tleDeep Event] Start Fail - No Assult Data', 00H ; `string'
; Function compile flags: /Odtp /ZI
CONST	ENDS
_TEXT	SEGMENT
$T238878 = -124						; size = 4
$T238879 = -120						; size = 4
$T238880 = -116						; size = 4
$T238881 = -112						; size = 8
$T238882 = -104						; size = 8
_stSpawnTime$231019 = -32				; size = 4
_it2$230834 = -28					; size = 4
_it$ = -24						; size = 4
_iRndIndex$230190 = -20					; size = 4
_bDoStart$ = -16					; size = 4
_iASSULT_RATE$ = -12					; size = 4
_iCheckCount$ = -8					; size = 4
_this$ = -4						; size = 4
?StartEvent@CCastleDeepEvent@@QAEXXZ PROC		; CCastleDeepEvent::StartEvent
; _this$ = ecx

; 40   : {

  001d0	55		 push	 ebp
  001d1	8b ec		 mov	 ebp, esp
  001d3	83 ec 7c	 sub	 esp, 124		; 0000007cH
  001d6	53		 push	 ebx
  001d7	56		 push	 esi
  001d8	57		 push	 edi
  001d9	89 4d fc	 mov	 DWORD PTR _this$[ebp], ecx

; 41   : 	if (m_vtAssultType.size() <= 0)

  001dc	8b 4d fc	 mov	 ecx, DWORD PTR _this$[ebp]
  001df	83 c1 60	 add	 ecx, 96			; 00000060H
  001e2	e8 00 00 00 00	 call	 ?size@?$vector@HV?$allocator@H@std@@@std@@QBEIXZ ; std::vector<int,std::allocator<int> >::size
  001e7	85 c0		 test	 eax, eax
  001e9	77 1d		 ja	 SHORT $LN9@StartEvent

; 42   : 	{
; 43   : 		LogAddTD("[CastleDeep Event] Start Fail - No Assult Data");

  001eb	68 00 00 00 00	 push	 OFFSET ??_C@_0CP@EPJCMAAN@?$FLCastleDeep?5Event?$FN?5Start?5Fail?5?9?5@
  001f0	ff 15 00 00 00
	00		 call	 DWORD PTR ?LogAddTD@@3P6AXPADZZA ; LogAddTD
  001f6	83 c4 04	 add	 esp, 4

; 44   : 		SetState(CD_STATE_NONE);

  001f9	6a 00		 push	 0
  001fb	8b 4d fc	 mov	 ecx, DWORD PTR _this$[ebp]
  001fe	e8 00 00 00 00	 call	 ?SetState@CCastleDeepEvent@@QAEXH@Z ; CCastleDeepEvent::SetState

; 45   : 		return;

  00203	e9 8d 01 00 00	 jmp	 $LN10@StartEvent
$LN9@StartEvent:

; 46   : 	}
; 47   : 
; 48   : 	int iCheckCount = 100;

  00208	c7 45 f8 64 00
	00 00		 mov	 DWORD PTR _iCheckCount$[ebp], 100 ; 00000064H

; 49   : 	int iASSULT_RATE = 0;

  0020f	c7 45 f4 00 00
	00 00		 mov	 DWORD PTR _iASSULT_RATE$[ebp], 0

; 50   : 	int bDoStart = FALSE;

  00216	c7 45 f0 00 00
	00 00		 mov	 DWORD PTR _bDoStart$[ebp], 0
$LN8@StartEvent:

; 51   : 
; 52   : 	while(iCheckCount-- > 0)

  0021d	8b 45 f8	 mov	 eax, DWORD PTR _iCheckCount$[ebp]
  00220	8b 4d f8	 mov	 ecx, DWORD PTR _iCheckCount$[ebp]
  00223	83 e9 01	 sub	 ecx, 1
  00226	89 4d f8	 mov	 DWORD PTR _iCheckCount$[ebp], ecx
  00229	85 c0		 test	 eax, eax
  0022b	7e 65		 jle	 SHORT $LN7@StartEvent

; 53   : 	{
; 54   : 		int iRndIndex = rand()%m_vtAssultType.size();

  0022d	e8 00 00 00 00	 call	 _rand
  00232	8b f0		 mov	 esi, eax
  00234	8b 4d fc	 mov	 ecx, DWORD PTR _this$[ebp]
  00237	83 c1 60	 add	 ecx, 96			; 00000060H
  0023a	e8 00 00 00 00	 call	 ?size@?$vector@HV?$allocator@H@std@@@std@@QBEIXZ ; std::vector<int,std::allocator<int> >::size
  0023f	8b c8		 mov	 ecx, eax
  00241	8b c6		 mov	 eax, esi
  00243	33 d2		 xor	 edx, edx
  00245	f7 f1		 div	 ecx
  00247	89 55 ec	 mov	 DWORD PTR _iRndIndex$230190[ebp], edx

; 55   : 
; 56   : 		this->m_iCUR_ASSULT_TYPE = m_vtAssultType[iRndIndex];

  0024a	8b 45 ec	 mov	 eax, DWORD PTR _iRndIndex$230190[ebp]
  0024d	50		 push	 eax
  0024e	8b 4d fc	 mov	 ecx, DWORD PTR _this$[ebp]
  00251	83 c1 60	 add	 ecx, 96			; 00000060H
  00254	e8 00 00 00 00	 call	 ??A?$vector@HV?$allocator@H@std@@@std@@QAEAAHI@Z ; std::vector<int,std::allocator<int> >::operator[]
  00259	8b 4d fc	 mov	 ecx, DWORD PTR _this$[ebp]
  0025c	8b 10		 mov	 edx, DWORD PTR [eax]
  0025e	89 51 28	 mov	 DWORD PTR [ecx+40], edx

; 57   : 		iASSULT_RATE = m_vtAssultTypeRate[iRndIndex];

  00261	8b 45 ec	 mov	 eax, DWORD PTR _iRndIndex$230190[ebp]
  00264	50		 push	 eax
  00265	8b 4d fc	 mov	 ecx, DWORD PTR _this$[ebp]
  00268	83 c1 70	 add	 ecx, 112		; 00000070H
  0026b	e8 00 00 00 00	 call	 ??A?$vector@HV?$allocator@H@std@@@std@@QAEAAHI@Z ; std::vector<int,std::allocator<int> >::operator[]
  00270	8b 08		 mov	 ecx, DWORD PTR [eax]
  00272	89 4d f4	 mov	 DWORD PTR _iASSULT_RATE$[ebp], ecx

; 58   : 
; 59   : 		if (rand()%100 < iASSULT_RATE)

  00275	e8 00 00 00 00	 call	 _rand
  0027a	99		 cdq
  0027b	b9 64 00 00 00	 mov	 ecx, 100		; 00000064H
  00280	f7 f9		 idiv	 ecx
  00282	3b 55 f4	 cmp	 edx, DWORD PTR _iASSULT_RATE$[ebp]
  00285	7d 09		 jge	 SHORT $LN6@StartEvent

; 60   : 		{
; 61   : 			bDoStart = TRUE;

  00287	c7 45 f0 01 00
	00 00		 mov	 DWORD PTR _bDoStart$[ebp], 1

; 62   : 			break;

  0028e	eb 02		 jmp	 SHORT $LN7@StartEvent
$LN6@StartEvent:

; 63   : 		}
; 64   : 	}

  00290	eb 8b		 jmp	 SHORT $LN8@StartEvent
$LN7@StartEvent:

; 65   : 
; 66   : 	if (bDoStart == FALSE)

  00292	83 7d f0 00	 cmp	 DWORD PTR _bDoStart$[ebp], 0
  00296	75 1d		 jne	 SHORT $LN5@StartEvent

; 67   : 	{
; 68   : 		LogAddTD("[CastleDeep Event] Start Fail - bDoStart == FALSE");

  00298	68 00 00 00 00	 push	 OFFSET ??_C@_0DC@JMKIKJEC@?$FLCastleDeep?5Event?$FN?5Start?5Fail?5?9?5@
  0029d	ff 15 00 00 00
	00		 call	 DWORD PTR ?LogAddTD@@3P6AXPADZZA ; LogAddTD
  002a3	83 c4 04	 add	 esp, 4

; 69   : 		SetState(CD_STATE_NONE);

  002a6	6a 00		 push	 0
  002a8	8b 4d fc	 mov	 ecx, DWORD PTR _this$[ebp]
  002ab	e8 00 00 00 00	 call	 ?SetState@CCastleDeepEvent@@QAEXH@Z ; CCastleDeepEvent::SetState

; 70   : 		return;

  002b0	e9 e0 00 00 00	 jmp	 $LN10@StartEvent
$LN5@StartEvent:

; 71   : 	}
; 72   : 
; 73   : 	this->m_iCUR_SPAWN_STEP = 0;

  002b5	8b 45 fc	 mov	 eax, DWORD PTR _this$[ebp]
  002b8	c7 40 2c 00 00
	00 00		 mov	 DWORD PTR [eax+44], 0

; 74   : 
; 75   : 	std::map<int,vector<CASTLEDEEP_SPAWNTIME > >::iterator it = this->m_mapSpawnTime.find(m_iCUR_ASSULT_TYPE); //HermeX Fix

  002bf	8b 45 fc	 mov	 eax, DWORD PTR _this$[ebp]
  002c2	83 c0 28	 add	 eax, 40			; 00000028H
  002c5	50		 push	 eax
  002c6	8d 4d e8	 lea	 ecx, DWORD PTR _it$[ebp]
  002c9	51		 push	 ecx
  002ca	8b 4d fc	 mov	 ecx, DWORD PTR _this$[ebp]
  002cd	83 c1 40	 add	 ecx, 64			; 00000040H
  002d0	e8 00 00 00 00	 call	 ?find@?$_Tree@V?$_Tmap_traits@HV?$vector@UCASTLEDEEP_SPAWNTIME@@V?$allocator@UCASTLEDEEP_SPAWNTIME@@@std@@@std@@U?$less@H@2@V?$allocator@U?$pair@$$CBHV?$vector@UCASTLEDEEP_SPAWNTIME@@V?$allocator@UCASTLEDEEP_SPAWNTIME@@@std@@@std@@@std@@@2@$0A@@std@@@std@@QAE?AV?$_Tree_iterator@V?$_Tree_val@V?$_Tmap_traits@HV?$vector@UCASTLEDEEP_SPAWNTIME@@V?$allocator@UCASTLEDEEP_SPAWNTIME@@@std@@@std@@U?$less@H@2@V?$allocator@U?$pair@$$CBHV?$vector@UCASTLEDEEP_SPAWNTIME@@V?$allocator@UCASTLEDEEP_SPAWNTIME@@@std@@@std@@@std@@@2@$0A@@std@@@std@@@2@ABH@Z ; std::_Tree<std::_Tmap_traits<int,std::vector<CASTLEDEEP_SPAWNTIME,std::allocator<CASTLEDEEP_SPAWNTIME> >,std::less<int>,std::allocator<std::pair<int const ,std::vector<CASTLEDEEP_SPAWNTIME,std::allocator<CASTLEDEEP_SPAWNTIME> > > >,0> >::find

; 76   : 
; 77   : 	if (it == m_mapSpawnTime.end())

  002d5	8d 45 84	 lea	 eax, DWORD PTR $T238878[ebp]
  002d8	50		 push	 eax
  002d9	8b 4d fc	 mov	 ecx, DWORD PTR _this$[ebp]
  002dc	83 c1 40	 add	 ecx, 64			; 00000040H
  002df	e8 00 00 00 00	 call	 ?end@?$_Tree@V?$_Tmap_traits@HV?$vector@UCASTLEDEEP_SPAWNTIME@@V?$allocator@UCASTLEDEEP_SPAWNTIME@@@std@@@std@@U?$less@H@2@V?$allocator@U?$pair@$$CBHV?$vector@UCASTLEDEEP_SPAWNTIME@@V?$allocator@UCASTLEDEEP_SPAWNTIME@@@std@@@std@@@std@@@2@$0A@@std@@@std@@QAE?AV?$_Tree_iterator@V?$_Tree_val@V?$_Tmap_traits@HV?$vector@UCASTLEDEEP_SPAWNTIME@@V?$allocator@UCASTLEDEEP_SPAWNTIME@@@std@@@std@@U?$less@H@2@V?$allocator@U?$pair@$$CBHV?$vector@UCASTLEDEEP_SPAWNTIME@@V?$allocator@UCASTLEDEEP_SPAWNTIME@@@std@@@std@@@std@@@2@$0A@@std@@@std@@@2@XZ ; std::_Tree<std::_Tmap_traits<int,std::vector<CASTLEDEEP_SPAWNTIME,std::allocator<CASTLEDEEP_SPAWNTIME> >,std::less<int>,std::allocator<std::pair<int const ,std::vector<CASTLEDEEP_SPAWNTIME,std::allocator<CASTLEDEEP_SPAWNTIME> > > >,0> >::end
  002e4	50		 push	 eax
  002e5	8d 4d e8	 lea	 ecx, DWORD PTR _it$[ebp]
  002e8	e8 00 00 00 00	 call	 ??8?$_Tree_const_iterator@V?$_Tree_val@V?$_Tmap_traits@HV?$vector@UCASTLEDEEP_SPAWNTIME@@V?$allocator@UCASTLEDEEP_SPAWNTIME@@@std@@@std@@U?$less@H@2@V?$allocator@U?$pair@$$CBHV?$vector@UCASTLEDEEP_SPAWNTIME@@V?$allocator@UCASTLEDEEP_SPAWNTIME@@@std@@@std@@@std@@@2@$0A@@std@@@std@@@std@@QBE_NABV01@@Z ; std::_Tree_const_iterator<std::_Tree_val<std::_Tmap_traits<int,std::vector<CASTLEDEEP_SPAWNTIME,std::allocator<CASTLEDEEP_SPAWNTIME> >,std::less<int>,std::allocator<std::pair<int const ,std::vector<CASTLEDEEP_SPAWNTIME,std::allocator<CASTLEDEEP_SPAWNTIME> > > >,0> > >::operator==
  002ed	0f b6 c8	 movzx	 ecx, al
  002f0	85 c9		 test	 ecx, ecx
  002f2	74 0f		 je	 SHORT $LN4@StartEvent

; 78   : 	{
; 79   : 		SetState(CD_STATE_NONE);

  002f4	6a 00		 push	 0
  002f6	8b 4d fc	 mov	 ecx, DWORD PTR _this$[ebp]
  002f9	e8 00 00 00 00	 call	 ?SetState@CCastleDeepEvent@@QAEXH@Z ; CCastleDeepEvent::SetState

; 80   : 		return;

  002fe	e9 92 00 00 00	 jmp	 $LN10@StartEvent
$LN4@StartEvent:

; 81   : 	}
; 82   : 
; 83   : 	m_mapRunCheck.clear();

  00303	8b 4d fc	 mov	 ecx, DWORD PTR _this$[ebp]
  00306	81 c1 80 00 00
	00		 add	 ecx, 128		; 00000080H
  0030c	e8 00 00 00 00	 call	 ?clear@?$_Tree@V?$_Tmap_traits@HHU?$less@H@std@@V?$allocator@U?$pair@$$CBHH@std@@@2@$0A@@std@@@std@@QAEXXZ ; std::_Tree<std::_Tmap_traits<int,int,std::less<int>,std::allocator<std::pair<int const ,int> >,0> >::clear

; 84   : 
; 85   : 	for(std::vector<CASTLEDEEP_SPAWNTIME>::iterator it2 = it->second.begin(); it2 != it->second.end(); it2++)

  00311	8d 45 e4	 lea	 eax, DWORD PTR _it2$230834[ebp]
  00314	50		 push	 eax
  00315	8d 4d e8	 lea	 ecx, DWORD PTR _it$[ebp]
  00318	e8 00 00 00 00	 call	 ??C?$_Tree_iterator@V?$_Tree_val@V?$_Tmap_traits@HV?$vector@UCASTLEDEEP_SPAWNTIME@@V?$allocator@UCASTLEDEEP_SPAWNTIME@@@std@@@std@@U?$less@H@2@V?$allocator@U?$pair@$$CBHV?$vector@UCASTLEDEEP_SPAWNTIME@@V?$allocator@UCASTLEDEEP_SPAWNTIME@@@std@@@std@@@std@@@2@$0A@@std@@@std@@@std@@QBEPAU?$pair@$$CBHV?$vector@UCASTLEDEEP_SPAWNTIME@@V?$allocator@UCASTLEDEEP_SPAWNTIME@@@std@@@std@@@1@XZ ; std::_Tree_iterator<std::_Tree_val<std::_Tmap_traits<int,std::vector<CASTLEDEEP_SPAWNTIME,std::allocator<CASTLEDEEP_SPAWNTIME> >,std::less<int>,std::allocator<std::pair<int const ,std::vector<CASTLEDEEP_SPAWNTIME,std::allocator<CASTLEDEEP_SPAWNTIME> > > >,0> > >::operator->
  0031d	83 c0 04	 add	 eax, 4
  00320	8b c8		 mov	 ecx, eax
  00322	e8 00 00 00 00	 call	 ?begin@?$vector@UCASTLEDEEP_SPAWNTIME@@V?$allocator@UCASTLEDEEP_SPAWNTIME@@@std@@@std@@QAE?AV?$_Vector_iterator@V?$_Vector_val@UCASTLEDEEP_SPAWNTIME@@V?$allocator@UCASTLEDEEP_SPAWNTIME@@@std@@@std@@@2@XZ ; std::vector<CASTLEDEEP_SPAWNTIME,std::allocator<CASTLEDEEP_SPAWNTIME> >::begin
  00327	eb 0e		 jmp	 SHORT $LN3@StartEvent
$LN2@StartEvent:
  00329	6a 00		 push	 0
  0032b	8d 45 88	 lea	 eax, DWORD PTR $T238879[ebp]
  0032e	50		 push	 eax
  0032f	8d 4d e4	 lea	 ecx, DWORD PTR _it2$230834[ebp]
  00332	e8 00 00 00 00	 call	 ??E?$_Vector_iterator@V?$_Vector_val@UCASTLEDEEP_SPAWNTIME@@V?$allocator@UCASTLEDEEP_SPAWNTIME@@@std@@@std@@@std@@QAE?AV01@H@Z ; std::_Vector_iterator<std::_Vector_val<CASTLEDEEP_SPAWNTIME,std::allocator<CASTLEDEEP_SPAWNTIME> > >::operator++
$LN3@StartEvent:
  00337	8d 45 8c	 lea	 eax, DWORD PTR $T238880[ebp]
  0033a	50		 push	 eax
  0033b	8d 4d e8	 lea	 ecx, DWORD PTR _it$[ebp]
  0033e	e8 00 00 00 00	 call	 ??C?$_Tree_iterator@V?$_Tree_val@V?$_Tmap_traits@HV?$vector@UCASTLEDEEP_SPAWNTIME@@V?$allocator@UCASTLEDEEP_SPAWNTIME@@@std@@@std@@U?$less@H@2@V?$allocator@U?$pair@$$CBHV?$vector@UCASTLEDEEP_SPAWNTIME@@V?$allocator@UCASTLEDEEP_SPAWNTIME@@@std@@@std@@@std@@@2@$0A@@std@@@std@@@std@@QBEPAU?$pair@$$CBHV?$vector@UCASTLEDEEP_SPAWNTIME@@V?$allocator@UCASTLEDEEP_SPAWNTIME@@@std@@@std@@@1@XZ ; std::_Tree_iterator<std::_Tree_val<std::_Tmap_traits<int,std::vector<CASTLEDEEP_SPAWNTIME,std::allocator<CASTLEDEEP_SPAWNTIME> >,std::less<int>,std::allocator<std::pair<int const ,std::vector<CASTLEDEEP_SPAWNTIME,std::allocator<CASTLEDEEP_SPAWNTIME> > > >,0> > >::operator->
  00343	83 c0 04	 add	 eax, 4
  00346	8b c8		 mov	 ecx, eax
  00348	e8 00 00 00 00	 call	 ?end@?$vector@UCASTLEDEEP_SPAWNTIME@@V?$allocator@UCASTLEDEEP_SPAWNTIME@@@std@@@std@@QAE?AV?$_Vector_iterator@V?$_Vector_val@UCASTLEDEEP_SPAWNTIME@@V?$allocator@UCASTLEDEEP_SPAWNTIME@@@std@@@std@@@2@XZ ; std::vector<CASTLEDEEP_SPAWNTIME,std::allocator<CASTLEDEEP_SPAWNTIME> >::end
  0034d	50		 push	 eax
  0034e	8d 4d e4	 lea	 ecx, DWORD PTR _it2$230834[ebp]
  00351	e8 00 00 00 00	 call	 ??9?$_Vector_const_iterator@V?$_Vector_val@UCASTLEDEEP_SPAWNTIME@@V?$allocator@UCASTLEDEEP_SPAWNTIME@@@std@@@std@@@std@@QBE_NABV01@@Z ; std::_Vector_const_iterator<std::_Vector_val<CASTLEDEEP_SPAWNTIME,std::allocator<CASTLEDEEP_SPAWNTIME> > >::operator!=
  00356	0f b6 c8	 movzx	 ecx, al
  00359	85 c9		 test	 ecx, ecx
  0035b	74 38		 je	 SHORT $LN10@StartEvent

; 86   : 	{
; 87   : 		std::vector<CASTLEDEEP_SPAWNTIME>::iterator stSpawnTime= it2;

  0035d	8b 45 e4	 mov	 eax, DWORD PTR _it2$230834[ebp]
  00360	89 45 e0	 mov	 DWORD PTR _stSpawnTime$231019[ebp], eax

; 88   : 
; 89   : 		m_mapRunCheck.insert(std::pair<int,int>(stSpawnTime->m_iMonsterGroup,stSpawnTime->m_iMonsterSpawnMinute)); //HermeX Fix

  00363	8d 4d e0	 lea	 ecx, DWORD PTR _stSpawnTime$231019[ebp]
  00366	e8 00 00 00 00	 call	 ??C?$_Vector_iterator@V?$_Vector_val@UCASTLEDEEP_SPAWNTIME@@V?$allocator@UCASTLEDEEP_SPAWNTIME@@@std@@@std@@@std@@QBEPAUCASTLEDEEP_SPAWNTIME@@XZ ; std::_Vector_iterator<std::_Vector_val<CASTLEDEEP_SPAWNTIME,std::allocator<CASTLEDEEP_SPAWNTIME> > >::operator->
  0036b	83 c0 04	 add	 eax, 4
  0036e	50		 push	 eax
  0036f	8d 4d e0	 lea	 ecx, DWORD PTR _stSpawnTime$231019[ebp]
  00372	e8 00 00 00 00	 call	 ??C?$_Vector_iterator@V?$_Vector_val@UCASTLEDEEP_SPAWNTIME@@V?$allocator@UCASTLEDEEP_SPAWNTIME@@@std@@@std@@@std@@QBEPAUCASTLEDEEP_SPAWNTIME@@XZ ; std::_Vector_iterator<std::_Vector_val<CASTLEDEEP_SPAWNTIME,std::allocator<CASTLEDEEP_SPAWNTIME> > >::operator->
  00377	50		 push	 eax
  00378	8d 4d 90	 lea	 ecx, DWORD PTR $T238881[ebp]
  0037b	e8 00 00 00 00	 call	 ??$?0AAHAAH@?$pair@HH@std@@QAE@AAH0@Z ; std::pair<int,int>::pair<int,int><int &,int &>
  00380	50		 push	 eax
  00381	8d 45 98	 lea	 eax, DWORD PTR $T238882[ebp]
  00384	50		 push	 eax
  00385	8b 4d fc	 mov	 ecx, DWORD PTR _this$[ebp]
  00388	81 c1 80 00 00
	00		 add	 ecx, 128		; 00000080H
  0038e	e8 00 00 00 00	 call	 ??$insert@U?$pair@HH@std@@@?$_Tree@V?$_Tmap_traits@HHU?$less@H@std@@V?$allocator@U?$pair@$$CBHH@std@@@2@$0A@@std@@@std@@QAE?AU?$pair@V?$_Tree_iterator@V?$_Tree_val@V?$_Tmap_traits@HHU?$less@H@std@@V?$allocator@U?$pair@$$CBHH@std@@@2@$0A@@std@@@std@@@std@@_N@1@$$QAU?$pair@HH@1@@Z ; std::_Tree<std::_Tmap_traits<int,int,std::less<int>,std::allocator<std::pair<int const ,int> >,0> >::insert<std::pair<int,int> >

; 90   : 	}

  00393	eb 94		 jmp	 SHORT $LN2@StartEvent
$LN10@StartEvent:

; 91   : }

  00395	5f		 pop	 edi
  00396	5e		 pop	 esi
  00397	5b		 pop	 ebx
  00398	8b e5		 mov	 esp, ebp
  0039a	5d		 pop	 ebp
  0039b	c3		 ret	 0
?StartEvent@CCastleDeepEvent@@QAEXXZ ENDP		; CCastleDeepEvent::StartEvent
_TEXT	ENDS
PUBLIC	?StopEvent@CCastleDeepEvent@@QAEXXZ		; CCastleDeepEvent::StopEvent
; Function compile flags: /Odtp /ZI
_TEXT	SEGMENT
_this$ = -4						; size = 4
?StopEvent@CCastleDeepEvent@@QAEXXZ PROC		; CCastleDeepEvent::StopEvent
; _this$ = ecx

; 94   : {

  003a0	55		 push	 ebp
  003a1	8b ec		 mov	 ebp, esp
  003a3	83 ec 44	 sub	 esp, 68			; 00000044H
  003a6	53		 push	 ebx
  003a7	56		 push	 esi
  003a8	57		 push	 edi
  003a9	89 4d fc	 mov	 DWORD PTR _this$[ebp], ecx

; 95   : ;
; 96   : }

  003ac	5f		 pop	 edi
  003ad	5e		 pop	 esi
  003ae	5b		 pop	 ebx
  003af	8b e5		 mov	 esp, ebp
  003b1	5d		 pop	 ebp
  003b2	c3		 ret	 0
?StopEvent@CCastleDeepEvent@@QAEXXZ ENDP		; CCastleDeepEvent::StopEvent
_TEXT	ENDS
PUBLIC	?EnableEvent@CCastleDeepEvent@@QAEXH@Z		; CCastleDeepEvent::EnableEvent
; Function compile flags: /Odtp /ZI
_TEXT	SEGMENT
_this$ = -4						; size = 4
_bDoEvent$ = 8						; size = 4
?EnableEvent@CCastleDeepEvent@@QAEXH@Z PROC		; CCastleDeepEvent::EnableEvent
; _this$ = ecx

; 99   : {

  003c0	55		 push	 ebp
  003c1	8b ec		 mov	 ebp, esp
  003c3	83 ec 44	 sub	 esp, 68			; 00000044H
  003c6	53		 push	 ebx
  003c7	56		 push	 esi
  003c8	57		 push	 edi
  003c9	89 4d fc	 mov	 DWORD PTR _this$[ebp], ecx

; 100  : 	this->m_bDoEvent = bDoEvent;

  003cc	8b 45 fc	 mov	 eax, DWORD PTR _this$[ebp]
  003cf	8b 4d 08	 mov	 ecx, DWORD PTR _bDoEvent$[ebp]
  003d2	89 48 04	 mov	 DWORD PTR [eax+4], ecx

; 101  : 
; 102  : 	if (this->m_bDoEvent != 0)

  003d5	8b 45 fc	 mov	 eax, DWORD PTR _this$[ebp]
  003d8	83 78 04 00	 cmp	 DWORD PTR [eax+4], 0
  003dc	74 0c		 je	 SHORT $LN2@EnableEven

; 103  : 	{
; 104  : 		this->SetState(CD_STATE_CLOSED);

  003de	6a 01		 push	 1
  003e0	8b 4d fc	 mov	 ecx, DWORD PTR _this$[ebp]
  003e3	e8 00 00 00 00	 call	 ?SetState@CCastleDeepEvent@@QAEXH@Z ; CCastleDeepEvent::SetState

; 105  : 	}
; 106  : 	else

  003e8	eb 0a		 jmp	 SHORT $LN3@EnableEven
$LN2@EnableEven:

; 107  : 	{
; 108  : 		this->SetState(CD_STATE_NONE);

  003ea	6a 00		 push	 0
  003ec	8b 4d fc	 mov	 ecx, DWORD PTR _this$[ebp]
  003ef	e8 00 00 00 00	 call	 ?SetState@CCastleDeepEvent@@QAEXH@Z ; CCastleDeepEvent::SetState
$LN3@EnableEven:

; 109  : 	}
; 110  : }

  003f4	5f		 pop	 edi
  003f5	5e		 pop	 esi
  003f6	5b		 pop	 ebx
  003f7	8b e5		 mov	 esp, ebp
  003f9	5d		 pop	 ebp
  003fa	c2 04 00	 ret	 4
?EnableEvent@CCastleDeepEvent@@QAEXH@Z ENDP		; CCastleDeepEvent::EnableEvent
_TEXT	ENDS
PUBLIC	??_C@_0O@CEHBAEMJ@?$CFs?5file?5load?$CB?$AA@	; `string'
PUBLIC	?push_back@?$vector@UCASTLEDEEP_MONSTERINFO@@V?$allocator@UCASTLEDEEP_MONSTERINFO@@@std@@@std@@QAEXABUCASTLEDEEP_MONSTERINFO@@@Z ; std::vector<CASTLEDEEP_MONSTERINFO,std::allocator<CASTLEDEEP_MONSTERINFO> >::push_back
PUBLIC	??C?$_Tree_iterator@V?$_Tree_val@V?$_Tmap_traits@HV?$vector@UCASTLEDEEP_MONSTERINFO@@V?$allocator@UCASTLEDEEP_MONSTERINFO@@@std@@@std@@U?$less@H@2@V?$allocator@U?$pair@$$CBHV?$vector@UCASTLEDEEP_MONSTERINFO@@V?$allocator@UCASTLEDEEP_MONSTERINFO@@@std@@@std@@@std@@@2@$0A@@std@@@std@@@std@@QBEPAU?$pair@$$CBHV?$vector@UCASTLEDEEP_MONSTERINFO@@V?$allocator@UCASTLEDEEP_MONSTERINFO@@@std@@@std@@@1@XZ ; std::_Tree_iterator<std::_Tree_val<std::_Tmap_traits<int,std::vector<CASTLEDEEP_MONSTERINFO,std::allocator<CASTLEDEEP_MONSTERINFO> >,std::less<int>,std::allocator<std::pair<int const ,std::vector<CASTLEDEEP_MONSTERINFO,std::allocator<CASTLEDEEP_MONSTERINFO> > > >,0> > >::operator->
PUBLIC	??9?$_Tree_const_iterator@V?$_Tree_val@V?$_Tmap_traits@HV?$vector@UCASTLEDEEP_MONSTERINFO@@V?$allocator@UCASTLEDEEP_MONSTERINFO@@@std@@@std@@U?$less@H@2@V?$allocator@U?$pair@$$CBHV?$vector@UCASTLEDEEP_MONSTERINFO@@V?$allocator@UCASTLEDEEP_MONSTERINFO@@@std@@@std@@@std@@@2@$0A@@std@@@std@@@std@@QBE_NABV01@@Z ; std::_Tree_const_iterator<std::_Tree_val<std::_Tmap_traits<int,std::vector<CASTLEDEEP_MONSTERINFO,std::allocator<CASTLEDEEP_MONSTERINFO> >,std::less<int>,std::allocator<std::pair<int const ,std::vector<CASTLEDEEP_MONSTERINFO,std::allocator<CASTLEDEEP_MONSTERINFO> > > >,0> > >::operator!=
PUBLIC	?end@?$_Tree@V?$_Tmap_traits@HV?$vector@UCASTLEDEEP_MONSTERINFO@@V?$allocator@UCASTLEDEEP_MONSTERINFO@@@std@@@std@@U?$less@H@2@V?$allocator@U?$pair@$$CBHV?$vector@UCASTLEDEEP_MONSTERINFO@@V?$allocator@UCASTLEDEEP_MONSTERINFO@@@std@@@std@@@std@@@2@$0A@@std@@@std@@QAE?AV?$_Tree_iterator@V?$_Tree_val@V?$_Tmap_traits@HV?$vector@UCASTLEDEEP_MONSTERINFO@@V?$allocator@UCASTLEDEEP_MONSTERINFO@@@std@@@std@@U?$less@H@2@V?$allocator@U?$pair@$$CBHV?$vector@UCASTLEDEEP_MONSTERINFO@@V?$allocator@UCASTLEDEEP_MONSTERINFO@@@std@@@std@@@std@@@2@$0A@@std@@@std@@@2@XZ ; std::_Tree<std::_Tmap_traits<int,std::vector<CASTLEDEEP_MONSTERINFO,std::allocator<CASTLEDEEP_MONSTERINFO> >,std::less<int>,std::allocator<std::pair<int const ,std::vector<CASTLEDEEP_MONSTERINFO,std::allocator<CASTLEDEEP_MONSTERINFO> > > >,0> >::end
PUBLIC	?find@?$_Tree@V?$_Tmap_traits@HV?$vector@UCASTLEDEEP_MONSTERINFO@@V?$allocator@UCASTLEDEEP_MONSTERINFO@@@std@@@std@@U?$less@H@2@V?$allocator@U?$pair@$$CBHV?$vector@UCASTLEDEEP_MONSTERINFO@@V?$allocator@UCASTLEDEEP_MONSTERINFO@@@std@@@std@@@std@@@2@$0A@@std@@@std@@QAE?AV?$_Tree_iterator@V?$_Tree_val@V?$_Tmap_traits@HV?$vector@UCASTLEDEEP_MONSTERINFO@@V?$allocator@UCASTLEDEEP_MONSTERINFO@@@std@@@std@@U?$less@H@2@V?$allocator@U?$pair@$$CBHV?$vector@UCASTLEDEEP_MONSTERINFO@@V?$allocator@UCASTLEDEEP_MONSTERINFO@@@std@@@std@@@std@@@2@$0A@@std@@@std@@@2@ABH@Z ; std::_Tree<std::_Tmap_traits<int,std::vector<CASTLEDEEP_MONSTERINFO,std::allocator<CASTLEDEEP_MONSTERINFO> >,std::less<int>,std::allocator<std::pair<int const ,std::vector<CASTLEDEEP_MONSTERINFO,std::allocator<CASTLEDEEP_MONSTERINFO> > > >,0> >::find
PUBLIC	?push_back@?$vector@UCASTLEDEEP_SPAWNTIME@@V?$allocator@UCASTLEDEEP_SPAWNTIME@@@std@@@std@@QAEXABUCASTLEDEEP_SPAWNTIME@@@Z ; std::vector<CASTLEDEEP_SPAWNTIME,std::allocator<CASTLEDEEP_SPAWNTIME> >::push_back
PUBLIC	??9?$_Tree_const_iterator@V?$_Tree_val@V?$_Tmap_traits@HV?$vector@UCASTLEDEEP_SPAWNTIME@@V?$allocator@UCASTLEDEEP_SPAWNTIME@@@std@@@std@@U?$less@H@2@V?$allocator@U?$pair@$$CBHV?$vector@UCASTLEDEEP_SPAWNTIME@@V?$allocator@UCASTLEDEEP_SPAWNTIME@@@std@@@std@@@std@@@2@$0A@@std@@@std@@@std@@QBE_NABV01@@Z ; std::_Tree_const_iterator<std::_Tree_val<std::_Tmap_traits<int,std::vector<CASTLEDEEP_SPAWNTIME,std::allocator<CASTLEDEEP_SPAWNTIME> >,std::less<int>,std::allocator<std::pair<int const ,std::vector<CASTLEDEEP_SPAWNTIME,std::allocator<CASTLEDEEP_SPAWNTIME> > > >,0> > >::operator!=
PUBLIC	?push_back@?$vector@HV?$allocator@H@std@@@std@@QAEXABH@Z ; std::vector<int,std::allocator<int> >::push_back
PUBLIC	??1?$pair@HV?$vector@UCASTLEDEEP_SPAWNTIME@@V?$allocator@UCASTLEDEEP_SPAWNTIME@@@std@@@std@@@std@@QAE@XZ ; std::pair<int,std::vector<CASTLEDEEP_SPAWNTIME,std::allocator<CASTLEDEEP_SPAWNTIME> > >::~pair<int,std::vector<CASTLEDEEP_SPAWNTIME,std::allocator<CASTLEDEEP_SPAWNTIME> > >
PUBLIC	??$insert@U?$pair@HV?$vector@UCASTLEDEEP_SPAWNTIME@@V?$allocator@UCASTLEDEEP_SPAWNTIME@@@std@@@std@@@std@@@?$_Tree@V?$_Tmap_traits@HV?$vector@UCASTLEDEEP_SPAWNTIME@@V?$allocator@UCASTLEDEEP_SPAWNTIME@@@std@@@std@@U?$less@H@2@V?$allocator@U?$pair@$$CBHV?$vector@UCASTLEDEEP_SPAWNTIME@@V?$allocator@UCASTLEDEEP_SPAWNTIME@@@std@@@std@@@std@@@2@$0A@@std@@@std@@QAE?AU?$pair@V?$_Tree_iterator@V?$_Tree_val@V?$_Tmap_traits@HV?$vector@UCASTLEDEEP_SPAWNTIME@@V?$allocator@UCASTLEDEEP_SPAWNTIME@@@std@@@std@@U?$less@H@2@V?$allocator@U?$pair@$$CBHV?$vector@UCASTLEDEEP_SPAWNTIME@@V?$allocator@UCASTLEDEEP_SPAWNTIME@@@std@@@std@@@std@@@2@$0A@@std@@@std@@@std@@_N@1@$$QAU?$pair@HV?$vector@UCASTLEDEEP_SPAWNTIME@@V?$allocator@UCASTLEDEEP_SPAWNTIME@@@std@@@std@@@1@@Z ; std::_Tree<std::_Tmap_traits<int,std::vector<CASTLEDEEP_SPAWNTIME,std::allocator<CASTLEDEEP_SPAWNTIME> >,std::less<int>,std::allocator<std::pair<int const ,std::vector<CASTLEDEEP_SPAWNTIME,std::allocator<CASTLEDEEP_SPAWNTIME> > > >,0> >::insert<std::pair<int,std::vector<CASTLEDEEP_SPAWNTIME,std::allocator<CASTLEDEEP_SPAWNTIME> > > >
PUBLIC	??$?0AAHAAV?$vector@UCASTLEDEEP_SPAWNTIME@@V?$allocator@UCASTLEDEEP_SPAWNTIME@@@std@@@std@@@?$pair@HV?$vector@UCASTLEDEEP_SPAWNTIME@@V?$allocator@UCASTLEDEEP_SPAWNTIME@@@std@@@std@@@std@@QAE@AAHAAV?$vector@UCASTLEDEEP_SPAWNTIME@@V?$allocator@UCASTLEDEEP_SPAWNTIME@@@std@@@1@@Z ; std::pair<int,std::vector<CASTLEDEEP_SPAWNTIME,std::allocator<CASTLEDEEP_SPAWNTIME> > >::pair<int,std::vector<CASTLEDEEP_SPAWNTIME,std::allocator<CASTLEDEEP_SPAWNTIME> > ><int &,std::vector<CASTLEDEEP_SPAWNTIME,std::allocator<CASTLEDEEP_SPAWNTIME> > &>
PUBLIC	??1?$pair@HV?$vector@UCASTLEDEEP_MONSTERINFO@@V?$allocator@UCASTLEDEEP_MONSTERINFO@@@std@@@std@@@std@@QAE@XZ ; std::pair<int,std::vector<CASTLEDEEP_MONSTERINFO,std::allocator<CASTLEDEEP_MONSTERINFO> > >::~pair<int,std::vector<CASTLEDEEP_MONSTERINFO,std::allocator<CASTLEDEEP_MONSTERINFO> > >
PUBLIC	??$insert@U?$pair@HV?$vector@UCASTLEDEEP_MONSTERINFO@@V?$allocator@UCASTLEDEEP_MONSTERINFO@@@std@@@std@@@std@@@?$_Tree@V?$_Tmap_traits@HV?$vector@UCASTLEDEEP_MONSTERINFO@@V?$allocator@UCASTLEDEEP_MONSTERINFO@@@std@@@std@@U?$less@H@2@V?$allocator@U?$pair@$$CBHV?$vector@UCASTLEDEEP_MONSTERINFO@@V?$allocator@UCASTLEDEEP_MONSTERINFO@@@std@@@std@@@std@@@2@$0A@@std@@@std@@QAE?AU?$pair@V?$_Tree_iterator@V?$_Tree_val@V?$_Tmap_traits@HV?$vector@UCASTLEDEEP_MONSTERINFO@@V?$allocator@UCASTLEDEEP_MONSTERINFO@@@std@@@std@@U?$less@H@2@V?$allocator@U?$pair@$$CBHV?$vector@UCASTLEDEEP_MONSTERINFO@@V?$allocator@UCASTLEDEEP_MONSTERINFO@@@std@@@std@@@std@@@2@$0A@@std@@@std@@@std@@_N@1@$$QAU?$pair@HV?$vector@UCASTLEDEEP_MONSTERINFO@@V?$allocator@UCASTLEDEEP_MONSTERINFO@@@std@@@std@@@1@@Z ; std::_Tree<std::_Tmap_traits<int,std::vector<CASTLEDEEP_MONSTERINFO,std::allocator<CASTLEDEEP_MONSTERINFO> >,std::less<int>,std::allocator<std::pair<int const ,std::vector<CASTLEDEEP_MONSTERINFO,std::allocator<CASTLEDEEP_MONSTERINFO> > > >,0> >::insert<std::pair<int,std::vector<CASTLEDEEP_MONSTERINFO,std::allocator<CASTLEDEEP_MONSTERINFO> > > >
PUBLIC	??$?0AAHAAV?$vector@UCASTLEDEEP_MONSTERINFO@@V?$allocator@UCASTLEDEEP_MONSTERINFO@@@std@@@std@@@?$pair@HV?$vector@UCASTLEDEEP_MONSTERINFO@@V?$allocator@UCASTLEDEEP_MONSTERINFO@@@std@@@std@@@std@@QAE@AAHAAV?$vector@UCASTLEDEEP_MONSTERINFO@@V?$allocator@UCASTLEDEEP_MONSTERINFO@@@std@@@1@@Z ; std::pair<int,std::vector<CASTLEDEEP_MONSTERINFO,std::allocator<CASTLEDEEP_MONSTERINFO> > >::pair<int,std::vector<CASTLEDEEP_MONSTERINFO,std::allocator<CASTLEDEEP_MONSTERINFO> > ><int &,std::vector<CASTLEDEEP_MONSTERINFO,std::allocator<CASTLEDEEP_MONSTERINFO> > &>
PUBLIC	??1?$vector@UCASTLEDEEP_MONSTERINFO@@V?$allocator@UCASTLEDEEP_MONSTERINFO@@@std@@@std@@QAE@XZ ; std::vector<CASTLEDEEP_MONSTERINFO,std::allocator<CASTLEDEEP_MONSTERINFO> >::~vector<CASTLEDEEP_MONSTERINFO,std::allocator<CASTLEDEEP_MONSTERINFO> >
PUBLIC	??1?$vector@UCASTLEDEEP_SPAWNTIME@@V?$allocator@UCASTLEDEEP_SPAWNTIME@@@std@@@std@@QAE@XZ ; std::vector<CASTLEDEEP_SPAWNTIME,std::allocator<CASTLEDEEP_SPAWNTIME> >::~vector<CASTLEDEEP_SPAWNTIME,std::allocator<CASTLEDEEP_SPAWNTIME> >
PUBLIC	??0?$vector@UCASTLEDEEP_SPAWNTIME@@V?$allocator@UCASTLEDEEP_SPAWNTIME@@@std@@@std@@QAE@XZ ; std::vector<CASTLEDEEP_SPAWNTIME,std::allocator<CASTLEDEEP_SPAWNTIME> >::vector<CASTLEDEEP_SPAWNTIME,std::allocator<CASTLEDEEP_SPAWNTIME> >
PUBLIC	??0?$vector@UCASTLEDEEP_MONSTERINFO@@V?$allocator@UCASTLEDEEP_MONSTERINFO@@@std@@@std@@QAE@XZ ; std::vector<CASTLEDEEP_MONSTERINFO,std::allocator<CASTLEDEEP_MONSTERINFO> >::vector<CASTLEDEEP_MONSTERINFO,std::allocator<CASTLEDEEP_MONSTERINFO> >
PUBLIC	?push_back@?$vector@UCASTLEDEEP_EVENTTIME@@V?$allocator@UCASTLEDEEP_EVENTTIME@@@std@@@std@@QAEXABUCASTLEDEEP_EVENTTIME@@@Z ; std::vector<CASTLEDEEP_EVENTTIME,std::allocator<CASTLEDEEP_EVENTTIME> >::push_back
PUBLIC	??_C@_03JBJLGPFL@end?$AA@			; `string'
PUBLIC	?clear@?$vector@UCASTLEDEEP_EVENTTIME@@V?$allocator@UCASTLEDEEP_EVENTTIME@@@std@@@std@@QAEXXZ ; std::vector<CASTLEDEEP_EVENTTIME,std::allocator<CASTLEDEEP_EVENTTIME> >::clear
PUBLIC	?clear@?$_Tree@V?$_Tmap_traits@HV?$vector@UCASTLEDEEP_MONSTERINFO@@V?$allocator@UCASTLEDEEP_MONSTERINFO@@@std@@@std@@U?$less@H@2@V?$allocator@U?$pair@$$CBHV?$vector@UCASTLEDEEP_MONSTERINFO@@V?$allocator@UCASTLEDEEP_MONSTERINFO@@@std@@@std@@@std@@@2@$0A@@std@@@std@@QAEXXZ ; std::_Tree<std::_Tmap_traits<int,std::vector<CASTLEDEEP_MONSTERINFO,std::allocator<CASTLEDEEP_MONSTERINFO> >,std::less<int>,std::allocator<std::pair<int const ,std::vector<CASTLEDEEP_MONSTERINFO,std::allocator<CASTLEDEEP_MONSTERINFO> > > >,0> >::clear
PUBLIC	?clear@?$_Tree@V?$_Tmap_traits@HV?$vector@UCASTLEDEEP_SPAWNTIME@@V?$allocator@UCASTLEDEEP_SPAWNTIME@@@std@@@std@@U?$less@H@2@V?$allocator@U?$pair@$$CBHV?$vector@UCASTLEDEEP_SPAWNTIME@@V?$allocator@UCASTLEDEEP_SPAWNTIME@@@std@@@std@@@std@@@2@$0A@@std@@@std@@QAEXXZ ; std::_Tree<std::_Tmap_traits<int,std::vector<CASTLEDEEP_SPAWNTIME,std::allocator<CASTLEDEEP_SPAWNTIME> >,std::less<int>,std::allocator<std::pair<int const ,std::vector<CASTLEDEEP_SPAWNTIME,std::allocator<CASTLEDEEP_SPAWNTIME> > > >,0> >::clear
PUBLIC	?clear@?$vector@HV?$allocator@H@std@@@std@@QAEXXZ ; std::vector<int,std::allocator<int> >::clear
PUBLIC	??_C@_0CM@NBAEFDEO@?$FLCastleDeep?5Event?$FN?5Info?5file?5Loa@ ; `string'
PUBLIC	??_C@_01KDCPPGHE@r?$AA@				; `string'
PUBLIC	__$ArrayPad$
PUBLIC	?Load@CCastleDeepEvent@@QAEHPAD@Z		; CCastleDeepEvent::Load
EXTRN	?LogAdd@@3P6AXPADZZA:DWORD			; LogAdd
EXTRN	_fclose:PROC
EXTRN	_strcmp:PROC
EXTRN	__imp__LeaveCriticalSection@4:PROC
EXTRN	__imp__EnterCriticalSection@4:PROC
EXTRN	?MsgBox@@YAXPADZZ:PROC				; MsgBox
EXTRN	_fopen:PROC
EXTRN	__ftol2_sse:PROC
_BSS	SEGMENT
_TokenString DB	064H DUP (?)
_TokenNumber DD	01H DUP (?)
_SMDFile DD	01H DUP (?)
_BSS	ENDS
;	COMDAT ??_C@_0O@CEHBAEMJ@?$CFs?5file?5load?$CB?$AA@
CONST	SEGMENT
??_C@_0O@CEHBAEMJ@?$CFs?5file?5load?$CB?$AA@ DB '%s file load!', 00H ; `string'
CONST	ENDS
;	COMDAT ??_C@_03JBJLGPFL@end?$AA@
CONST	SEGMENT
??_C@_03JBJLGPFL@end?$AA@ DB 'end', 00H			; `string'
CONST	ENDS
;	COMDAT ??_C@_0CM@NBAEFDEO@?$FLCastleDeep?5Event?$FN?5Info?5file?5Loa@
CONST	SEGMENT
??_C@_0CM@NBAEFDEO@?$FLCastleDeep?5Event?$FN?5Info?5file?5Loa@ DB '[Castl'
	DB	'eDeep Event] Info file Load Fail [%s]', 00H	; `string'
CONST	ENDS
;	COMDAT ??_C@_01KDCPPGHE@r?$AA@
CONST	SEGMENT
??_C@_01KDCPPGHE@r?$AA@ DB 'r', 00H			; `string'
CONST	ENDS
xdata$x	SEGMENT
__unwindtable$?Load@CCastleDeepEvent@@QAEHPAD@Z DD 0ffffffffH
	DD	FLAT:__unwindfunclet$?Load@CCastleDeepEvent@@QAEHPAD@Z$0
	DD	00H
	DD	FLAT:__unwindfunclet$?Load@CCastleDeepEvent@@QAEHPAD@Z$1
	DD	01H
	DD	FLAT:__unwindfunclet$?Load@CCastleDeepEvent@@QAEHPAD@Z$2
	DD	01H
	DD	FLAT:__unwindfunclet$?Load@CCastleDeepEvent@@QAEHPAD@Z$3
__ehfuncinfo$?Load@CCastleDeepEvent@@QAEHPAD@Z DD 019930522H
	DD	04H
	DD	FLAT:__unwindtable$?Load@CCastleDeepEvent@@QAEHPAD@Z
	DD	2 DUP(00H)
	DD	2 DUP(00H)
	DD	00H
	DD	01H
; Function compile flags: /Odtp /ZI
xdata$x	ENDS
_TEXT	SEGMENT
tv357 = -264						; size = 4
tv355 = -264						; size = 4
tv154 = -260						; size = 4
tv151 = -260						; size = 4
$T238887 = -256						; size = 20
$T238888 = -236						; size = 8
$T238889 = -228						; size = 20
$T238890 = -208						; size = 8
$T238891 = -200						; size = 4
$T238892 = -196						; size = 4
_it$232774 = -128					; size = 4
_iAssultType$232747 = -124				; size = 4
_stMonsterInfo$232746 = -120				; size = 28
_it$232740 = -92					; size = 4
_iAssultType$232718 = -88				; size = 4
_stSpawnTime$232717 = -84				; size = 8
_iAssultRate$231853 = -76				; size = 4
_iAssultType$231852 = -72				; size = 4
_vtTempSpawnTime$231851 = -68				; size = 16
_vtTempMonsterInfo$231846 = -52				; size = 16
_pRET$231498 = -36					; size = 8
_type$ = -28						; size = 4
_Token$ = -24						; size = 4
_this$ = -20						; size = 4
__$ArrayPad$ = -16					; size = 4
__$EHRec$ = -12						; size = 12
_lpszFileName$ = 8					; size = 4
?Load@CCastleDeepEvent@@QAEHPAD@Z PROC			; CCastleDeepEvent::Load
; _this$ = ecx

; 113  : {

  00400	55		 push	 ebp
  00401	8b ec		 mov	 ebp, esp
  00403	6a ff		 push	 -1
  00405	68 00 00 00 00	 push	 __ehhandler$?Load@CCastleDeepEvent@@QAEHPAD@Z
  0040a	64 a1 00 00 00
	00		 mov	 eax, DWORD PTR fs:0
  00410	50		 push	 eax
  00411	81 ec fc 00 00
	00		 sub	 esp, 252		; 000000fcH
  00417	a1 00 00 00 00	 mov	 eax, DWORD PTR ___security_cookie
  0041c	33 c5		 xor	 eax, ebp
  0041e	89 45 f0	 mov	 DWORD PTR __$ArrayPad$[ebp], eax
  00421	53		 push	 ebx
  00422	56		 push	 esi
  00423	57		 push	 edi
  00424	50		 push	 eax
  00425	8d 45 f4	 lea	 eax, DWORD PTR __$EHRec$[ebp]
  00428	64 a3 00 00 00
	00		 mov	 DWORD PTR fs:0, eax
  0042e	89 4d ec	 mov	 DWORD PTR _this$[ebp], ecx

; 114  : using namespace std;
; 115  : 
; 116  : 	if (lpszFileName == NULL)

  00431	83 7d 08 00	 cmp	 DWORD PTR _lpszFileName$[ebp], 0
  00435	75 07		 jne	 SHORT $LN20@Load

; 117  : 	{
; 118  : 		return false;

  00437	33 c0		 xor	 eax, eax
  00439	e9 fa 04 00 00	 jmp	 $LN21@Load
$LN20@Load:

; 119  : 	}
; 120  : 
; 121  : 	SMDFile = fopen(lpszFileName,"r");

  0043e	68 00 00 00 00	 push	 OFFSET ??_C@_01KDCPPGHE@r?$AA@
  00443	8b 45 08	 mov	 eax, DWORD PTR _lpszFileName$[ebp]
  00446	50		 push	 eax
  00447	e8 00 00 00 00	 call	 _fopen
  0044c	83 c4 08	 add	 esp, 8
  0044f	a3 00 00 00 00	 mov	 DWORD PTR _SMDFile, eax

; 122  : 
; 123  : 	if (SMDFile == NULL)

  00454	83 3d 00 00 00
	00 00		 cmp	 DWORD PTR _SMDFile, 0
  0045b	75 18		 jne	 SHORT $LN19@Load

; 124  : 	{
; 125  : 		MsgBox("[CastleDeep Event] Info file Load Fail [%s]",lpszFileName);

  0045d	8b 45 08	 mov	 eax, DWORD PTR _lpszFileName$[ebp]
  00460	50		 push	 eax
  00461	68 00 00 00 00	 push	 OFFSET ??_C@_0CM@NBAEFDEO@?$FLCastleDeep?5Event?$FN?5Info?5file?5Loa@
  00466	e8 00 00 00 00	 call	 ?MsgBox@@YAXPADZZ	; MsgBox
  0046b	83 c4 08	 add	 esp, 8

; 126  : 		return false;

  0046e	33 c0		 xor	 eax, eax
  00470	e9 c3 04 00 00	 jmp	 $LN21@Load
$LN19@Load:

; 127  : 	}
; 128  : 
; 129  : 	EnterCriticalSection(&this->m_critEventData);

  00475	8b 45 ec	 mov	 eax, DWORD PTR _this$[ebp]
  00478	05 90 00 00 00	 add	 eax, 144		; 00000090H
  0047d	50		 push	 eax
  0047e	ff 15 00 00 00
	00		 call	 DWORD PTR __imp__EnterCriticalSection@4

; 130  : 	this->m_vtAssultType.clear();

  00484	8b 4d ec	 mov	 ecx, DWORD PTR _this$[ebp]
  00487	83 c1 60	 add	 ecx, 96			; 00000060H
  0048a	e8 00 00 00 00	 call	 ?clear@?$vector@HV?$allocator@H@std@@@std@@QAEXXZ ; std::vector<int,std::allocator<int> >::clear

; 131  : 	this->m_vtAssultTypeRate.clear();

  0048f	8b 4d ec	 mov	 ecx, DWORD PTR _this$[ebp]
  00492	83 c1 70	 add	 ecx, 112		; 00000070H
  00495	e8 00 00 00 00	 call	 ?clear@?$vector@HV?$allocator@H@std@@@std@@QAEXXZ ; std::vector<int,std::allocator<int> >::clear

; 132  : 	this->m_mapSpawnTime.clear();

  0049a	8b 4d ec	 mov	 ecx, DWORD PTR _this$[ebp]
  0049d	83 c1 40	 add	 ecx, 64			; 00000040H
  004a0	e8 00 00 00 00	 call	 ?clear@?$_Tree@V?$_Tmap_traits@HV?$vector@UCASTLEDEEP_SPAWNTIME@@V?$allocator@UCASTLEDEEP_SPAWNTIME@@@std@@@std@@U?$less@H@2@V?$allocator@U?$pair@$$CBHV?$vector@UCASTLEDEEP_SPAWNTIME@@V?$allocator@UCASTLEDEEP_SPAWNTIME@@@std@@@std@@@std@@@2@$0A@@std@@@std@@QAEXXZ ; std::_Tree<std::_Tmap_traits<int,std::vector<CASTLEDEEP_SPAWNTIME,std::allocator<CASTLEDEEP_SPAWNTIME> >,std::less<int>,std::allocator<std::pair<int const ,std::vector<CASTLEDEEP_SPAWNTIME,std::allocator<CASTLEDEEP_SPAWNTIME> > > >,0> >::clear

; 133  : 	this->m_mapMonsterInfo.clear();

  004a5	8b 4d ec	 mov	 ecx, DWORD PTR _this$[ebp]
  004a8	83 c1 30	 add	 ecx, 48			; 00000030H
  004ab	e8 00 00 00 00	 call	 ?clear@?$_Tree@V?$_Tmap_traits@HV?$vector@UCASTLEDEEP_MONSTERINFO@@V?$allocator@UCASTLEDEEP_MONSTERINFO@@@std@@@std@@U?$less@H@2@V?$allocator@U?$pair@$$CBHV?$vector@UCASTLEDEEP_MONSTERINFO@@V?$allocator@UCASTLEDEEP_MONSTERINFO@@@std@@@std@@@std@@@2@$0A@@std@@@std@@QAEXXZ ; std::_Tree<std::_Tmap_traits<int,std::vector<CASTLEDEEP_MONSTERINFO,std::allocator<CASTLEDEEP_MONSTERINFO> >,std::less<int>,std::allocator<std::pair<int const ,std::vector<CASTLEDEEP_MONSTERINFO,std::allocator<CASTLEDEEP_MONSTERINFO> > > >,0> >::clear

; 134  : 	this->m_vtEventTime.clear();

  004b0	8b 4d ec	 mov	 ecx, DWORD PTR _this$[ebp]
  004b3	83 c1 50	 add	 ecx, 80			; 00000050H
  004b6	e8 00 00 00 00	 call	 ?clear@?$vector@UCASTLEDEEP_EVENTTIME@@V?$allocator@UCASTLEDEEP_EVENTTIME@@@std@@@std@@QAEXXZ ; std::vector<CASTLEDEEP_EVENTTIME,std::allocator<CASTLEDEEP_EVENTTIME> >::clear

; 135  : 	this->m_mapRunCheck.clear();

  004bb	8b 4d ec	 mov	 ecx, DWORD PTR _this$[ebp]
  004be	81 c1 80 00 00
	00		 add	 ecx, 128		; 00000080H
  004c4	e8 00 00 00 00	 call	 ?clear@?$_Tree@V?$_Tmap_traits@HHU?$less@H@std@@V?$allocator@U?$pair@$$CBHH@std@@@2@$0A@@std@@@std@@QAEXXZ ; std::_Tree<std::_Tmap_traits<int,int,std::less<int>,std::allocator<std::pair<int const ,int> >,0> >::clear

; 136  : 	LeaveCriticalSection(&this->m_critEventData);

  004c9	8b 45 ec	 mov	 eax, DWORD PTR _this$[ebp]
  004cc	05 90 00 00 00	 add	 eax, 144		; 00000090H
  004d1	50		 push	 eax
  004d2	ff 15 00 00 00
	00		 call	 DWORD PTR __imp__LeaveCriticalSection@4

; 137  : 
; 138  : 	this->m_bHasData = FALSE;

  004d8	8b 45 ec	 mov	 eax, DWORD PTR _this$[ebp]
  004db	c7 40 08 00 00
	00 00		 mov	 DWORD PTR [eax+8], 0

; 139  : 
; 140  : 	SMDToken Token;
; 141  : 	int type = -1;

  004e2	c7 45 e4 ff ff
	ff ff		 mov	 DWORD PTR _type$[ebp], -1
$LN18@Load:

; 142  : 
; 143  : 	while( true )

  004e9	b8 01 00 00 00	 mov	 eax, 1
  004ee	85 c0		 test	 eax, eax
  004f0	0f 84 13 04 00
	00		 je	 $LN17@Load

; 144  : 	{
; 145  : 		Token = GetToken();

  004f6	e8 00 00 00 00	 call	 ?GetToken@@YA?AW4SMDToken@@XZ ; GetToken
  004fb	89 45 e8	 mov	 DWORD PTR _Token$[ebp], eax

; 146  : 
; 147  : 		if (Token == END)

  004fe	83 7d e8 02	 cmp	 DWORD PTR _Token$[ebp], 2
  00502	75 05		 jne	 SHORT $LN16@Load

; 148  : 		{
; 149  : 			break;

  00504	e9 00 04 00 00	 jmp	 $LN17@Load
$LN16@Load:

; 150  : 		}
; 151  : 
; 152  : 		type = (int)TokenNumber;

  00509	d9 05 00 00 00
	00		 fld	 DWORD PTR _TokenNumber
  0050f	e8 00 00 00 00	 call	 __ftol2_sse
  00514	89 45 e4	 mov	 DWORD PTR _type$[ebp], eax
$LN15@Load:

; 153  : 
; 154  : 		while( true )

  00517	b8 01 00 00 00	 mov	 eax, 1
  0051c	85 c0		 test	 eax, eax
  0051e	0f 84 e0 03 00
	00		 je	 $LN14@Load

; 155  : 		{
; 156  : 			if (type == 0)

  00524	83 7d e4 00	 cmp	 DWORD PTR _type$[ebp], 0
  00528	75 5b		 jne	 SHORT $LN13@Load

; 157  : 			{
; 158  : 				CASTLEDEEP_EVENTTIME pRET;
; 159  : 
; 160  : 				Token = GetToken();

  0052a	e8 00 00 00 00	 call	 ?GetToken@@YA?AW4SMDToken@@XZ ; GetToken
  0052f	89 45 e8	 mov	 DWORD PTR _Token$[ebp], eax

; 161  : 				if (!strcmp("end",TokenString))

  00532	68 00 00 00 00	 push	 OFFSET _TokenString
  00537	68 00 00 00 00	 push	 OFFSET ??_C@_03JBJLGPFL@end?$AA@
  0053c	e8 00 00 00 00	 call	 _strcmp
  00541	83 c4 08	 add	 esp, 8
  00544	85 c0		 test	 eax, eax
  00546	75 05		 jne	 SHORT $LN12@Load

; 162  : 					break;

  00548	e9 b7 03 00 00	 jmp	 $LN14@Load
$LN12@Load:

; 163  : 				
; 164  : 				pRET.m_iHour = (int)TokenNumber;

  0054d	d9 05 00 00 00
	00		 fld	 DWORD PTR _TokenNumber
  00553	e8 00 00 00 00	 call	 __ftol2_sse
  00558	89 45 dc	 mov	 DWORD PTR _pRET$231498[ebp], eax

; 165  : 				Token = GetToken();

  0055b	e8 00 00 00 00	 call	 ?GetToken@@YA?AW4SMDToken@@XZ ; GetToken
  00560	89 45 e8	 mov	 DWORD PTR _Token$[ebp], eax

; 166  : 				pRET.m_iMinute = (int)TokenNumber;

  00563	d9 05 00 00 00
	00		 fld	 DWORD PTR _TokenNumber
  00569	e8 00 00 00 00	 call	 __ftol2_sse
  0056e	89 45 e0	 mov	 DWORD PTR _pRET$231498[ebp+4], eax

; 167  : 				this->m_vtEventTime.push_back(pRET);

  00571	8d 45 dc	 lea	 eax, DWORD PTR _pRET$231498[ebp]
  00574	50		 push	 eax
  00575	8b 4d ec	 mov	 ecx, DWORD PTR _this$[ebp]
  00578	83 c1 50	 add	 ecx, 80			; 00000050H
  0057b	e8 00 00 00 00	 call	 ?push_back@?$vector@UCASTLEDEEP_EVENTTIME@@V?$allocator@UCASTLEDEEP_EVENTTIME@@@std@@@std@@QAEXABUCASTLEDEEP_EVENTTIME@@@Z ; std::vector<CASTLEDEEP_EVENTTIME,std::allocator<CASTLEDEEP_EVENTTIME> >::push_back
  00580	e9 7a 03 00 00	 jmp	 $LN3@Load
$LN13@Load:

; 168  : 			}
; 169  : 			else if (type == 1)

  00585	83 7d e4 01	 cmp	 DWORD PTR _type$[ebp], 1
  00589	0f 85 5d 01 00
	00		 jne	 $LN10@Load

; 170  : 			{
; 171  : 				std::vector<CASTLEDEEP_MONSTERINFO> vtTempMonsterInfo; //HermeX Fix

  0058f	8d 4d cc	 lea	 ecx, DWORD PTR _vtTempMonsterInfo$231846[ebp]
  00592	e8 00 00 00 00	 call	 ??0?$vector@UCASTLEDEEP_MONSTERINFO@@V?$allocator@UCASTLEDEEP_MONSTERINFO@@@std@@@std@@QAE@XZ ; std::vector<CASTLEDEEP_MONSTERINFO,std::allocator<CASTLEDEEP_MONSTERINFO> >::vector<CASTLEDEEP_MONSTERINFO,std::allocator<CASTLEDEEP_MONSTERINFO> >
  00597	c7 45 fc 00 00
	00 00		 mov	 DWORD PTR __$EHRec$[ebp+8], 0

; 172  : 				std::vector<CASTLEDEEP_SPAWNTIME> vtTempSpawnTime; //HermeX Fix

  0059e	8d 4d bc	 lea	 ecx, DWORD PTR _vtTempSpawnTime$231851[ebp]
  005a1	e8 00 00 00 00	 call	 ??0?$vector@UCASTLEDEEP_SPAWNTIME@@V?$allocator@UCASTLEDEEP_SPAWNTIME@@@std@@@std@@QAE@XZ ; std::vector<CASTLEDEEP_SPAWNTIME,std::allocator<CASTLEDEEP_SPAWNTIME> >::vector<CASTLEDEEP_SPAWNTIME,std::allocator<CASTLEDEEP_SPAWNTIME> >
  005a6	c6 45 fc 01	 mov	 BYTE PTR __$EHRec$[ebp+8], 1

; 173  : 
; 174  : 				int iAssultType;
; 175  : 				int iAssultRate;
; 176  : 
; 177  : 				Token = GetToken();

  005aa	e8 00 00 00 00	 call	 ?GetToken@@YA?AW4SMDToken@@XZ ; GetToken
  005af	89 45 e8	 mov	 DWORD PTR _Token$[ebp], eax

; 178  : 				if (!strcmp("end",TokenString))

  005b2	68 00 00 00 00	 push	 OFFSET _TokenString
  005b7	68 00 00 00 00	 push	 OFFSET ??_C@_03JBJLGPFL@end?$AA@
  005bc	e8 00 00 00 00	 call	 _strcmp
  005c1	83 c4 08	 add	 esp, 8
  005c4	85 c0		 test	 eax, eax
  005c6	75 20		 jne	 SHORT $LN9@Load

; 179  : 					break;

  005c8	c6 45 fc 00	 mov	 BYTE PTR __$EHRec$[ebp+8], 0
  005cc	8d 4d bc	 lea	 ecx, DWORD PTR _vtTempSpawnTime$231851[ebp]
  005cf	e8 00 00 00 00	 call	 ??1?$vector@UCASTLEDEEP_SPAWNTIME@@V?$allocator@UCASTLEDEEP_SPAWNTIME@@@std@@@std@@QAE@XZ ; std::vector<CASTLEDEEP_SPAWNTIME,std::allocator<CASTLEDEEP_SPAWNTIME> >::~vector<CASTLEDEEP_SPAWNTIME,std::allocator<CASTLEDEEP_SPAWNTIME> >
  005d4	c7 45 fc ff ff
	ff ff		 mov	 DWORD PTR __$EHRec$[ebp+8], -1
  005db	8d 4d cc	 lea	 ecx, DWORD PTR _vtTempMonsterInfo$231846[ebp]
  005de	e8 00 00 00 00	 call	 ??1?$vector@UCASTLEDEEP_MONSTERINFO@@V?$allocator@UCASTLEDEEP_MONSTERINFO@@@std@@@std@@QAE@XZ ; std::vector<CASTLEDEEP_MONSTERINFO,std::allocator<CASTLEDEEP_MONSTERINFO> >::~vector<CASTLEDEEP_MONSTERINFO,std::allocator<CASTLEDEEP_MONSTERINFO> >
  005e3	e9 1c 03 00 00	 jmp	 $LN14@Load
$LN9@Load:

; 180  : 
; 181  : 				iAssultType = (int)TokenNumber;

  005e8	d9 05 00 00 00
	00		 fld	 DWORD PTR _TokenNumber
  005ee	e8 00 00 00 00	 call	 __ftol2_sse
  005f3	89 45 b8	 mov	 DWORD PTR _iAssultType$231852[ebp], eax

; 182  : 
; 183  : 				Token = GetToken();

  005f6	e8 00 00 00 00	 call	 ?GetToken@@YA?AW4SMDToken@@XZ ; GetToken
  005fb	89 45 e8	 mov	 DWORD PTR _Token$[ebp], eax

; 184  : 				iAssultRate = (int)TokenNumber;

  005fe	d9 05 00 00 00
	00		 fld	 DWORD PTR _TokenNumber
  00604	e8 00 00 00 00	 call	 __ftol2_sse
  00609	89 45 b4	 mov	 DWORD PTR _iAssultRate$231853[ebp], eax

; 185  : 
; 186  : 				this->m_mapMonsterInfo.insert(std::pair<int,vector<CASTLEDEEP_MONSTERINFO> >(iAssultType,vtTempMonsterInfo)); //HermeX Fix

  0060c	8d 45 cc	 lea	 eax, DWORD PTR _vtTempMonsterInfo$231846[ebp]
  0060f	50		 push	 eax
  00610	8d 4d b8	 lea	 ecx, DWORD PTR _iAssultType$231852[ebp]
  00613	51		 push	 ecx
  00614	8d 8d 00 ff ff
	ff		 lea	 ecx, DWORD PTR $T238887[ebp]
  0061a	e8 00 00 00 00	 call	 ??$?0AAHAAV?$vector@UCASTLEDEEP_MONSTERINFO@@V?$allocator@UCASTLEDEEP_MONSTERINFO@@@std@@@std@@@?$pair@HV?$vector@UCASTLEDEEP_MONSTERINFO@@V?$allocator@UCASTLEDEEP_MONSTERINFO@@@std@@@std@@@std@@QAE@AAHAAV?$vector@UCASTLEDEEP_MONSTERINFO@@V?$allocator@UCASTLEDEEP_MONSTERINFO@@@std@@@1@@Z ; std::pair<int,std::vector<CASTLEDEEP_MONSTERINFO,std::allocator<CASTLEDEEP_MONSTERINFO> > >::pair<int,std::vector<CASTLEDEEP_MONSTERINFO,std::allocator<CASTLEDEEP_MONSTERINFO> > ><int &,std::vector<CASTLEDEEP_MONSTERINFO,std::allocator<CASTLEDEEP_MONSTERINFO> > &>
  0061f	89 85 fc fe ff
	ff		 mov	 DWORD PTR tv154[ebp], eax
  00625	8b 95 fc fe ff
	ff		 mov	 edx, DWORD PTR tv154[ebp]
  0062b	89 95 f8 fe ff
	ff		 mov	 DWORD PTR tv355[ebp], edx
  00631	c6 45 fc 02	 mov	 BYTE PTR __$EHRec$[ebp+8], 2
  00635	8b 85 f8 fe ff
	ff		 mov	 eax, DWORD PTR tv355[ebp]
  0063b	50		 push	 eax
  0063c	8d 8d 14 ff ff
	ff		 lea	 ecx, DWORD PTR $T238888[ebp]
  00642	51		 push	 ecx
  00643	8b 4d ec	 mov	 ecx, DWORD PTR _this$[ebp]
  00646	83 c1 30	 add	 ecx, 48			; 00000030H
  00649	e8 00 00 00 00	 call	 ??$insert@U?$pair@HV?$vector@UCASTLEDEEP_MONSTERINFO@@V?$allocator@UCASTLEDEEP_MONSTERINFO@@@std@@@std@@@std@@@?$_Tree@V?$_Tmap_traits@HV?$vector@UCASTLEDEEP_MONSTERINFO@@V?$allocator@UCASTLEDEEP_MONSTERINFO@@@std@@@std@@U?$less@H@2@V?$allocator@U?$pair@$$CBHV?$vector@UCASTLEDEEP_MONSTERINFO@@V?$allocator@UCASTLEDEEP_MONSTERINFO@@@std@@@std@@@std@@@2@$0A@@std@@@std@@QAE?AU?$pair@V?$_Tree_iterator@V?$_Tree_val@V?$_Tmap_traits@HV?$vector@UCASTLEDEEP_MONSTERINFO@@V?$allocator@UCASTLEDEEP_MONSTERINFO@@@std@@@std@@U?$less@H@2@V?$allocator@U?$pair@$$CBHV?$vector@UCASTLEDEEP_MONSTERINFO@@V?$allocator@UCASTLEDEEP_MONSTERINFO@@@std@@@std@@@std@@@2@$0A@@std@@@std@@@std@@_N@1@$$QAU?$pair@HV?$vector@UCASTLEDEEP_MONSTERINFO@@V?$allocator@UCASTLEDEEP_MONSTERINFO@@@std@@@std@@@1@@Z ; std::_Tree<std::_Tmap_traits<int,std::vector<CASTLEDEEP_MONSTERINFO,std::allocator<CASTLEDEEP_MONSTERINFO> >,std::less<int>,std::allocator<std::pair<int const ,std::vector<CASTLEDEEP_MONSTERINFO,std::allocator<CASTLEDEEP_MONSTERINFO> > > >,0> >::insert<std::pair<int,std::vector<CASTLEDEEP_MONSTERINFO,std::allocator<CASTLEDEEP_MONSTERINFO> > > >
  0064e	c6 45 fc 01	 mov	 BYTE PTR __$EHRec$[ebp+8], 1
  00652	8d 8d 00 ff ff
	ff		 lea	 ecx, DWORD PTR $T238887[ebp]
  00658	e8 00 00 00 00	 call	 ??1?$pair@HV?$vector@UCASTLEDEEP_MONSTERINFO@@V?$allocator@UCASTLEDEEP_MONSTERINFO@@@std@@@std@@@std@@QAE@XZ

; 187  : 				this->m_mapSpawnTime.insert(std::pair<int,vector<CASTLEDEEP_SPAWNTIME> >(iAssultType,vtTempSpawnTime)); //HermeX Fix

  0065d	8d 45 bc	 lea	 eax, DWORD PTR _vtTempSpawnTime$231851[ebp]
  00660	50		 push	 eax
  00661	8d 4d b8	 lea	 ecx, DWORD PTR _iAssultType$231852[ebp]
  00664	51		 push	 ecx
  00665	8d 8d 1c ff ff
	ff		 lea	 ecx, DWORD PTR $T238889[ebp]
  0066b	e8 00 00 00 00	 call	 ??$?0AAHAAV?$vector@UCASTLEDEEP_SPAWNTIME@@V?$allocator@UCASTLEDEEP_SPAWNTIME@@@std@@@std@@@?$pair@HV?$vector@UCASTLEDEEP_SPAWNTIME@@V?$allocator@UCASTLEDEEP_SPAWNTIME@@@std@@@std@@@std@@QAE@AAHAAV?$vector@UCASTLEDEEP_SPAWNTIME@@V?$allocator@UCASTLEDEEP_SPAWNTIME@@@std@@@1@@Z ; std::pair<int,std::vector<CASTLEDEEP_SPAWNTIME,std::allocator<CASTLEDEEP_SPAWNTIME> > >::pair<int,std::vector<CASTLEDEEP_SPAWNTIME,std::allocator<CASTLEDEEP_SPAWNTIME> > ><int &,std::vector<CASTLEDEEP_SPAWNTIME,std::allocator<CASTLEDEEP_SPAWNTIME> > &>
  00670	89 85 fc fe ff
	ff		 mov	 DWORD PTR tv151[ebp], eax
  00676	8b 95 fc fe ff
	ff		 mov	 edx, DWORD PTR tv151[ebp]
  0067c	89 95 f8 fe ff
	ff		 mov	 DWORD PTR tv357[ebp], edx
  00682	c6 45 fc 03	 mov	 BYTE PTR __$EHRec$[ebp+8], 3
  00686	8b 85 f8 fe ff
	ff		 mov	 eax, DWORD PTR tv357[ebp]
  0068c	50		 push	 eax
  0068d	8d 8d 30 ff ff
	ff		 lea	 ecx, DWORD PTR $T238890[ebp]
  00693	51		 push	 ecx
  00694	8b 4d ec	 mov	 ecx, DWORD PTR _this$[ebp]
  00697	83 c1 40	 add	 ecx, 64			; 00000040H
  0069a	e8 00 00 00 00	 call	 ??$insert@U?$pair@HV?$vector@UCASTLEDEEP_SPAWNTIME@@V?$allocator@UCASTLEDEEP_SPAWNTIME@@@std@@@std@@@std@@@?$_Tree@V?$_Tmap_traits@HV?$vector@UCASTLEDEEP_SPAWNTIME@@V?$allocator@UCASTLEDEEP_SPAWNTIME@@@std@@@std@@U?$less@H@2@V?$allocator@U?$pair@$$CBHV?$vector@UCASTLEDEEP_SPAWNTIME@@V?$allocator@UCASTLEDEEP_SPAWNTIME@@@std@@@std@@@std@@@2@$0A@@std@@@std@@QAE?AU?$pair@V?$_Tree_iterator@V?$_Tree_val@V?$_Tmap_traits@HV?$vector@UCASTLEDEEP_SPAWNTIME@@V?$allocator@UCASTLEDEEP_SPAWNTIME@@@std@@@std@@U?$less@H@2@V?$allocator@U?$pair@$$CBHV?$vector@UCASTLEDEEP_SPAWNTIME@@V?$allocator@UCASTLEDEEP_SPAWNTIME@@@std@@@std@@@std@@@2@$0A@@std@@@std@@@std@@_N@1@$$QAU?$pair@HV?$vector@UCASTLEDEEP_SPAWNTIME@@V?$allocator@UCASTLEDEEP_SPAWNTIME@@@std@@@std@@@1@@Z ; std::_Tree<std::_Tmap_traits<int,std::vector<CASTLEDEEP_SPAWNTIME,std::allocator<CASTLEDEEP_SPAWNTIME> >,std::less<int>,std::allocator<std::pair<int const ,std::vector<CASTLEDEEP_SPAWNTIME,std::allocator<CASTLEDEEP_SPAWNTIME> > > >,0> >::insert<std::pair<int,std::vector<CASTLEDEEP_SPAWNTIME,std::allocator<CASTLEDEEP_SPAWNTIME> > > >
  0069f	c6 45 fc 01	 mov	 BYTE PTR __$EHRec$[ebp+8], 1
  006a3	8d 8d 1c ff ff
	ff		 lea	 ecx, DWORD PTR $T238889[ebp]
  006a9	e8 00 00 00 00	 call	 ??1?$pair@HV?$vector@UCASTLEDEEP_SPAWNTIME@@V?$allocator@UCASTLEDEEP_SPAWNTIME@@@std@@@std@@@std@@QAE@XZ

; 188  : 
; 189  : 				this->m_vtAssultType.push_back(iAssultType);

  006ae	8d 45 b8	 lea	 eax, DWORD PTR _iAssultType$231852[ebp]
  006b1	50		 push	 eax
  006b2	8b 4d ec	 mov	 ecx, DWORD PTR _this$[ebp]
  006b5	83 c1 60	 add	 ecx, 96			; 00000060H
  006b8	e8 00 00 00 00	 call	 ?push_back@?$vector@HV?$allocator@H@std@@@std@@QAEXABH@Z ; std::vector<int,std::allocator<int> >::push_back

; 190  : 				this->m_vtAssultTypeRate.push_back(iAssultRate);

  006bd	8d 45 b4	 lea	 eax, DWORD PTR _iAssultRate$231853[ebp]
  006c0	50		 push	 eax
  006c1	8b 4d ec	 mov	 ecx, DWORD PTR _this$[ebp]
  006c4	83 c1 70	 add	 ecx, 112		; 00000070H
  006c7	e8 00 00 00 00	 call	 ?push_back@?$vector@HV?$allocator@H@std@@@std@@QAEXABH@Z ; std::vector<int,std::allocator<int> >::push_back

; 191  : 			}

  006cc	c6 45 fc 00	 mov	 BYTE PTR __$EHRec$[ebp+8], 0
  006d0	8d 4d bc	 lea	 ecx, DWORD PTR _vtTempSpawnTime$231851[ebp]
  006d3	e8 00 00 00 00	 call	 ??1?$vector@UCASTLEDEEP_SPAWNTIME@@V?$allocator@UCASTLEDEEP_SPAWNTIME@@@std@@@std@@QAE@XZ ; std::vector<CASTLEDEEP_SPAWNTIME,std::allocator<CASTLEDEEP_SPAWNTIME> >::~vector<CASTLEDEEP_SPAWNTIME,std::allocator<CASTLEDEEP_SPAWNTIME> >
  006d8	c7 45 fc ff ff
	ff ff		 mov	 DWORD PTR __$EHRec$[ebp+8], -1
  006df	8d 4d cc	 lea	 ecx, DWORD PTR _vtTempMonsterInfo$231846[ebp]
  006e2	e8 00 00 00 00	 call	 ??1?$vector@UCASTLEDEEP_MONSTERINFO@@V?$allocator@UCASTLEDEEP_MONSTERINFO@@@std@@@std@@QAE@XZ ; std::vector<CASTLEDEEP_MONSTERINFO,std::allocator<CASTLEDEEP_MONSTERINFO> >::~vector<CASTLEDEEP_MONSTERINFO,std::allocator<CASTLEDEEP_MONSTERINFO> >
  006e7	e9 13 02 00 00	 jmp	 $LN3@Load
$LN10@Load:

; 192  : 			else if (type == 2)

  006ec	83 7d e4 02	 cmp	 DWORD PTR _type$[ebp], 2
  006f0	0f 85 cb 00 00
	00		 jne	 $LN7@Load

; 193  : 			{
; 194  : 				CASTLEDEEP_SPAWNTIME stSpawnTime;
; 195  : 				int iAssultType;
; 196  : 
; 197  : 				Token = GetToken();

  006f6	e8 00 00 00 00	 call	 ?GetToken@@YA?AW4SMDToken@@XZ ; GetToken
  006fb	89 45 e8	 mov	 DWORD PTR _Token$[ebp], eax

; 198  : 				if (!strcmp("end",TokenString))

  006fe	68 00 00 00 00	 push	 OFFSET _TokenString
  00703	68 00 00 00 00	 push	 OFFSET ??_C@_03JBJLGPFL@end?$AA@
  00708	e8 00 00 00 00	 call	 _strcmp
  0070d	83 c4 08	 add	 esp, 8
  00710	85 c0		 test	 eax, eax
  00712	75 05		 jne	 SHORT $LN6@Load

; 199  : 					break;

  00714	e9 eb 01 00 00	 jmp	 $LN14@Load
$LN6@Load:

; 200  : 
; 201  : 				iAssultType = (int)TokenNumber;

  00719	d9 05 00 00 00
	00		 fld	 DWORD PTR _TokenNumber
  0071f	e8 00 00 00 00	 call	 __ftol2_sse
  00724	89 45 a8	 mov	 DWORD PTR _iAssultType$232718[ebp], eax

; 202  : 
; 203  : 				Token = GetToken();

  00727	e8 00 00 00 00	 call	 ?GetToken@@YA?AW4SMDToken@@XZ ; GetToken
  0072c	89 45 e8	 mov	 DWORD PTR _Token$[ebp], eax

; 204  : 				stSpawnTime.m_iMonsterGroup = (int)TokenNumber;

  0072f	d9 05 00 00 00
	00		 fld	 DWORD PTR _TokenNumber
  00735	e8 00 00 00 00	 call	 __ftol2_sse
  0073a	89 45 ac	 mov	 DWORD PTR _stSpawnTime$232717[ebp], eax

; 205  : 
; 206  : 				Token = GetToken();

  0073d	e8 00 00 00 00	 call	 ?GetToken@@YA?AW4SMDToken@@XZ ; GetToken
  00742	89 45 e8	 mov	 DWORD PTR _Token$[ebp], eax

; 207  : 				stSpawnTime.m_iMonsterSpawnMinute = (int)TokenNumber;

  00745	d9 05 00 00 00
	00		 fld	 DWORD PTR _TokenNumber
  0074b	e8 00 00 00 00	 call	 __ftol2_sse
  00750	89 45 b0	 mov	 DWORD PTR _stSpawnTime$232717[ebp+4], eax

; 208  : 
; 209  : 				EnterCriticalSection(&this->m_critEventData);

  00753	8b 45 ec	 mov	 eax, DWORD PTR _this$[ebp]
  00756	05 90 00 00 00	 add	 eax, 144		; 00000090H
  0075b	50		 push	 eax
  0075c	ff 15 00 00 00
	00		 call	 DWORD PTR __imp__EnterCriticalSection@4

; 210  : 
; 211  : 				std::map<int,vector<CASTLEDEEP_SPAWNTIME > >::iterator it = this->m_mapSpawnTime.find(iAssultType); //HermeX Fix

  00762	8d 45 a8	 lea	 eax, DWORD PTR _iAssultType$232718[ebp]
  00765	50		 push	 eax
  00766	8d 4d a4	 lea	 ecx, DWORD PTR _it$232740[ebp]
  00769	51		 push	 ecx
  0076a	8b 4d ec	 mov	 ecx, DWORD PTR _this$[ebp]
  0076d	83 c1 40	 add	 ecx, 64			; 00000040H
  00770	e8 00 00 00 00	 call	 ?find@?$_Tree@V?$_Tmap_traits@HV?$vector@UCASTLEDEEP_SPAWNTIME@@V?$allocator@UCASTLEDEEP_SPAWNTIME@@@std@@@std@@U?$less@H@2@V?$allocator@U?$pair@$$CBHV?$vector@UCASTLEDEEP_SPAWNTIME@@V?$allocator@UCASTLEDEEP_SPAWNTIME@@@std@@@std@@@std@@@2@$0A@@std@@@std@@QAE?AV?$_Tree_iterator@V?$_Tree_val@V?$_Tmap_traits@HV?$vector@UCASTLEDEEP_SPAWNTIME@@V?$allocator@UCASTLEDEEP_SPAWNTIME@@@std@@@std@@U?$less@H@2@V?$allocator@U?$pair@$$CBHV?$vector@UCASTLEDEEP_SPAWNTIME@@V?$allocator@UCASTLEDEEP_SPAWNTIME@@@std@@@std@@@std@@@2@$0A@@std@@@std@@@2@ABH@Z ; std::_Tree<std::_Tmap_traits<int,std::vector<CASTLEDEEP_SPAWNTIME,std::allocator<CASTLEDEEP_SPAWNTIME> >,std::less<int>,std::allocator<std::pair<int const ,std::vector<CASTLEDEEP_SPAWNTIME,std::allocator<CASTLEDEEP_SPAWNTIME> > > >,0> >::find

; 212  : 
; 213  : 				if (it != this->m_mapSpawnTime.end())

  00775	8d 85 38 ff ff
	ff		 lea	 eax, DWORD PTR $T238891[ebp]
  0077b	50		 push	 eax
  0077c	8b 4d ec	 mov	 ecx, DWORD PTR _this$[ebp]
  0077f	83 c1 40	 add	 ecx, 64			; 00000040H
  00782	e8 00 00 00 00	 call	 ?end@?$_Tree@V?$_Tmap_traits@HV?$vector@UCASTLEDEEP_SPAWNTIME@@V?$allocator@UCASTLEDEEP_SPAWNTIME@@@std@@@std@@U?$less@H@2@V?$allocator@U?$pair@$$CBHV?$vector@UCASTLEDEEP_SPAWNTIME@@V?$allocator@UCASTLEDEEP_SPAWNTIME@@@std@@@std@@@std@@@2@$0A@@std@@@std@@QAE?AV?$_Tree_iterator@V?$_Tree_val@V?$_Tmap_traits@HV?$vector@UCASTLEDEEP_SPAWNTIME@@V?$allocator@UCASTLEDEEP_SPAWNTIME@@@std@@@std@@U?$less@H@2@V?$allocator@U?$pair@$$CBHV?$vector@UCASTLEDEEP_SPAWNTIME@@V?$allocator@UCASTLEDEEP_SPAWNTIME@@@std@@@std@@@std@@@2@$0A@@std@@@std@@@2@XZ ; std::_Tree<std::_Tmap_traits<int,std::vector<CASTLEDEEP_SPAWNTIME,std::allocator<CASTLEDEEP_SPAWNTIME> >,std::less<int>,std::allocator<std::pair<int const ,std::vector<CASTLEDEEP_SPAWNTIME,std::allocator<CASTLEDEEP_SPAWNTIME> > > >,0> >::end
  00787	50		 push	 eax
  00788	8d 4d a4	 lea	 ecx, DWORD PTR _it$232740[ebp]
  0078b	e8 00 00 00 00	 call	 ??9?$_Tree_const_iterator@V?$_Tree_val@V?$_Tmap_traits@HV?$vector@UCASTLEDEEP_SPAWNTIME@@V?$allocator@UCASTLEDEEP_SPAWNTIME@@@std@@@std@@U?$less@H@2@V?$allocator@U?$pair@$$CBHV?$vector@UCASTLEDEEP_SPAWNTIME@@V?$allocator@UCASTLEDEEP_SPAWNTIME@@@std@@@std@@@std@@@2@$0A@@std@@@std@@@std@@QBE_NABV01@@Z ; std::_Tree_const_iterator<std::_Tree_val<std::_Tmap_traits<int,std::vector<CASTLEDEEP_SPAWNTIME,std::allocator<CASTLEDEEP_SPAWNTIME> >,std::less<int>,std::allocator<std::pair<int const ,std::vector<CASTLEDEEP_SPAWNTIME,std::allocator<CASTLEDEEP_SPAWNTIME> > > >,0> > >::operator!=
  00790	0f b6 c8	 movzx	 ecx, al
  00793	85 c9		 test	 ecx, ecx
  00795	74 16		 je	 SHORT $LN5@Load

; 214  : 				{
; 215  : 					it->second.push_back(stSpawnTime);

  00797	8d 45 ac	 lea	 eax, DWORD PTR _stSpawnTime$232717[ebp]
  0079a	50		 push	 eax
  0079b	8d 4d a4	 lea	 ecx, DWORD PTR _it$232740[ebp]
  0079e	e8 00 00 00 00	 call	 ??C?$_Tree_iterator@V?$_Tree_val@V?$_Tmap_traits@HV?$vector@UCASTLEDEEP_SPAWNTIME@@V?$allocator@UCASTLEDEEP_SPAWNTIME@@@std@@@std@@U?$less@H@2@V?$allocator@U?$pair@$$CBHV?$vector@UCASTLEDEEP_SPAWNTIME@@V?$allocator@UCASTLEDEEP_SPAWNTIME@@@std@@@std@@@std@@@2@$0A@@std@@@std@@@std@@QBEPAU?$pair@$$CBHV?$vector@UCASTLEDEEP_SPAWNTIME@@V?$allocator@UCASTLEDEEP_SPAWNTIME@@@std@@@std@@@1@XZ ; std::_Tree_iterator<std::_Tree_val<std::_Tmap_traits<int,std::vector<CASTLEDEEP_SPAWNTIME,std::allocator<CASTLEDEEP_SPAWNTIME> >,std::less<int>,std::allocator<std::pair<int const ,std::vector<CASTLEDEEP_SPAWNTIME,std::allocator<CASTLEDEEP_SPAWNTIME> > > >,0> > >::operator->
  007a3	83 c0 04	 add	 eax, 4
  007a6	8b c8		 mov	 ecx, eax
  007a8	e8 00 00 00 00	 call	 ?push_back@?$vector@UCASTLEDEEP_SPAWNTIME@@V?$allocator@UCASTLEDEEP_SPAWNTIME@@@std@@@std@@QAEXABUCASTLEDEEP_SPAWNTIME@@@Z ; std::vector<CASTLEDEEP_SPAWNTIME,std::allocator<CASTLEDEEP_SPAWNTIME> >::push_back
$LN5@Load:

; 216  : 				}
; 217  : 
; 218  : 				LeaveCriticalSection(&this->m_critEventData);

  007ad	8b 45 ec	 mov	 eax, DWORD PTR _this$[ebp]
  007b0	05 90 00 00 00	 add	 eax, 144		; 00000090H
  007b5	50		 push	 eax
  007b6	ff 15 00 00 00
	00		 call	 DWORD PTR __imp__LeaveCriticalSection@4
  007bc	e9 3e 01 00 00	 jmp	 $LN3@Load
$LN7@Load:

; 219  : 			}
; 220  : 			else if (type == 3)

  007c1	83 7d e4 03	 cmp	 DWORD PTR _type$[ebp], 3
  007c5	0f 85 34 01 00
	00		 jne	 $LN3@Load

; 221  : 			{
; 222  : 				CASTLEDEEP_MONSTERINFO stMonsterInfo;
; 223  : 				int iAssultType;
; 224  : 
; 225  : 				Token = GetToken();

  007cb	e8 00 00 00 00	 call	 ?GetToken@@YA?AW4SMDToken@@XZ ; GetToken
  007d0	89 45 e8	 mov	 DWORD PTR _Token$[ebp], eax

; 226  : 				if (!strcmp("end",TokenString))

  007d3	68 00 00 00 00	 push	 OFFSET _TokenString
  007d8	68 00 00 00 00	 push	 OFFSET ??_C@_03JBJLGPFL@end?$AA@
  007dd	e8 00 00 00 00	 call	 _strcmp
  007e2	83 c4 08	 add	 esp, 8
  007e5	85 c0		 test	 eax, eax
  007e7	75 05		 jne	 SHORT $LN2@Load

; 227  : 					break;

  007e9	e9 16 01 00 00	 jmp	 $LN14@Load
$LN2@Load:

; 228  : 
; 229  : 				iAssultType = (int)TokenNumber;

  007ee	d9 05 00 00 00
	00		 fld	 DWORD PTR _TokenNumber
  007f4	e8 00 00 00 00	 call	 __ftol2_sse
  007f9	89 45 84	 mov	 DWORD PTR _iAssultType$232747[ebp], eax

; 230  : 
; 231  : 				Token = GetToken();

  007fc	e8 00 00 00 00	 call	 ?GetToken@@YA?AW4SMDToken@@XZ ; GetToken
  00801	89 45 e8	 mov	 DWORD PTR _Token$[ebp], eax

; 232  : 				stMonsterInfo.m_iMonsterGroup = (int)TokenNumber;

  00804	d9 05 00 00 00
	00		 fld	 DWORD PTR _TokenNumber
  0080a	e8 00 00 00 00	 call	 __ftol2_sse
  0080f	89 45 88	 mov	 DWORD PTR _stMonsterInfo$232746[ebp], eax

; 233  : 
; 234  : 				Token = GetToken();

  00812	e8 00 00 00 00	 call	 ?GetToken@@YA?AW4SMDToken@@XZ ; GetToken
  00817	89 45 e8	 mov	 DWORD PTR _Token$[ebp], eax

; 235  : 				stMonsterInfo.m_iMonsterType = (int)TokenNumber;

  0081a	d9 05 00 00 00
	00		 fld	 DWORD PTR _TokenNumber
  00820	e8 00 00 00 00	 call	 __ftol2_sse
  00825	89 45 8c	 mov	 DWORD PTR _stMonsterInfo$232746[ebp+4], eax

; 236  : 
; 237  : 				Token = GetToken();

  00828	e8 00 00 00 00	 call	 ?GetToken@@YA?AW4SMDToken@@XZ ; GetToken
  0082d	89 45 e8	 mov	 DWORD PTR _Token$[ebp], eax

; 238  : 				stMonsterInfo.m_iMonsterNumber = (int)TokenNumber;

  00830	d9 05 00 00 00
	00		 fld	 DWORD PTR _TokenNumber
  00836	e8 00 00 00 00	 call	 __ftol2_sse
  0083b	89 45 90	 mov	 DWORD PTR _stMonsterInfo$232746[ebp+8], eax

; 239  : 
; 240  : 				Token = GetToken();

  0083e	e8 00 00 00 00	 call	 ?GetToken@@YA?AW4SMDToken@@XZ ; GetToken
  00843	89 45 e8	 mov	 DWORD PTR _Token$[ebp], eax

; 241  : 				stMonsterInfo.m_iSX = (int)TokenNumber;

  00846	d9 05 00 00 00
	00		 fld	 DWORD PTR _TokenNumber
  0084c	e8 00 00 00 00	 call	 __ftol2_sse
  00851	89 45 94	 mov	 DWORD PTR _stMonsterInfo$232746[ebp+12], eax

; 242  : 
; 243  : 				Token = GetToken();

  00854	e8 00 00 00 00	 call	 ?GetToken@@YA?AW4SMDToken@@XZ ; GetToken
  00859	89 45 e8	 mov	 DWORD PTR _Token$[ebp], eax

; 244  : 				stMonsterInfo.m_iSY = (int)TokenNumber;

  0085c	d9 05 00 00 00
	00		 fld	 DWORD PTR _TokenNumber
  00862	e8 00 00 00 00	 call	 __ftol2_sse
  00867	89 45 98	 mov	 DWORD PTR _stMonsterInfo$232746[ebp+16], eax

; 245  : 
; 246  : 				Token = GetToken();

  0086a	e8 00 00 00 00	 call	 ?GetToken@@YA?AW4SMDToken@@XZ ; GetToken
  0086f	89 45 e8	 mov	 DWORD PTR _Token$[ebp], eax

; 247  : 				stMonsterInfo.m_iDX = (int)TokenNumber;

  00872	d9 05 00 00 00
	00		 fld	 DWORD PTR _TokenNumber
  00878	e8 00 00 00 00	 call	 __ftol2_sse
  0087d	89 45 9c	 mov	 DWORD PTR _stMonsterInfo$232746[ebp+20], eax

; 248  : 
; 249  : 				Token = GetToken();

  00880	e8 00 00 00 00	 call	 ?GetToken@@YA?AW4SMDToken@@XZ ; GetToken
  00885	89 45 e8	 mov	 DWORD PTR _Token$[ebp], eax

; 250  : 				stMonsterInfo.m_iDY = (int)TokenNumber;

  00888	d9 05 00 00 00
	00		 fld	 DWORD PTR _TokenNumber
  0088e	e8 00 00 00 00	 call	 __ftol2_sse
  00893	89 45 a0	 mov	 DWORD PTR _stMonsterInfo$232746[ebp+24], eax

; 251  : 
; 252  : 				EnterCriticalSection(&this->m_critEventData);

  00896	8b 45 ec	 mov	 eax, DWORD PTR _this$[ebp]
  00899	05 90 00 00 00	 add	 eax, 144		; 00000090H
  0089e	50		 push	 eax
  0089f	ff 15 00 00 00
	00		 call	 DWORD PTR __imp__EnterCriticalSection@4

; 253  : 
; 254  : 				std::map<int,vector<CASTLEDEEP_MONSTERINFO > >::iterator it = this->m_mapMonsterInfo.find(iAssultType); //HermeX Fix

  008a5	8d 45 84	 lea	 eax, DWORD PTR _iAssultType$232747[ebp]
  008a8	50		 push	 eax
  008a9	8d 4d 80	 lea	 ecx, DWORD PTR _it$232774[ebp]
  008ac	51		 push	 ecx
  008ad	8b 4d ec	 mov	 ecx, DWORD PTR _this$[ebp]
  008b0	83 c1 30	 add	 ecx, 48			; 00000030H
  008b3	e8 00 00 00 00	 call	 ?find@?$_Tree@V?$_Tmap_traits@HV?$vector@UCASTLEDEEP_MONSTERINFO@@V?$allocator@UCASTLEDEEP_MONSTERINFO@@@std@@@std@@U?$less@H@2@V?$allocator@U?$pair@$$CBHV?$vector@UCASTLEDEEP_MONSTERINFO@@V?$allocator@UCASTLEDEEP_MONSTERINFO@@@std@@@std@@@std@@@2@$0A@@std@@@std@@QAE?AV?$_Tree_iterator@V?$_Tree_val@V?$_Tmap_traits@HV?$vector@UCASTLEDEEP_MONSTERINFO@@V?$allocator@UCASTLEDEEP_MONSTERINFO@@@std@@@std@@U?$less@H@2@V?$allocator@U?$pair@$$CBHV?$vector@UCASTLEDEEP_MONSTERINFO@@V?$allocator@UCASTLEDEEP_MONSTERINFO@@@std@@@std@@@std@@@2@$0A@@std@@@std@@@2@ABH@Z ; std::_Tree<std::_Tmap_traits<int,std::vector<CASTLEDEEP_MONSTERINFO,std::allocator<CASTLEDEEP_MONSTERINFO> >,std::less<int>,std::allocator<std::pair<int const ,std::vector<CASTLEDEEP_MONSTERINFO,std::allocator<CASTLEDEEP_MONSTERINFO> > > >,0> >::find

; 255  : 
; 256  : 				if (it != this->m_mapMonsterInfo.end())

  008b8	8d 85 3c ff ff
	ff		 lea	 eax, DWORD PTR $T238892[ebp]
  008be	50		 push	 eax
  008bf	8b 4d ec	 mov	 ecx, DWORD PTR _this$[ebp]
  008c2	83 c1 30	 add	 ecx, 48			; 00000030H
  008c5	e8 00 00 00 00	 call	 ?end@?$_Tree@V?$_Tmap_traits@HV?$vector@UCASTLEDEEP_MONSTERINFO@@V?$allocator@UCASTLEDEEP_MONSTERINFO@@@std@@@std@@U?$less@H@2@V?$allocator@U?$pair@$$CBHV?$vector@UCASTLEDEEP_MONSTERINFO@@V?$allocator@UCASTLEDEEP_MONSTERINFO@@@std@@@std@@@std@@@2@$0A@@std@@@std@@QAE?AV?$_Tree_iterator@V?$_Tree_val@V?$_Tmap_traits@HV?$vector@UCASTLEDEEP_MONSTERINFO@@V?$allocator@UCASTLEDEEP_MONSTERINFO@@@std@@@std@@U?$less@H@2@V?$allocator@U?$pair@$$CBHV?$vector@UCASTLEDEEP_MONSTERINFO@@V?$allocator@UCASTLEDEEP_MONSTERINFO@@@std@@@std@@@std@@@2@$0A@@std@@@std@@@2@XZ ; std::_Tree<std::_Tmap_traits<int,std::vector<CASTLEDEEP_MONSTERINFO,std::allocator<CASTLEDEEP_MONSTERINFO> >,std::less<int>,std::allocator<std::pair<int const ,std::vector<CASTLEDEEP_MONSTERINFO,std::allocator<CASTLEDEEP_MONSTERINFO> > > >,0> >::end
  008ca	50		 push	 eax
  008cb	8d 4d 80	 lea	 ecx, DWORD PTR _it$232774[ebp]
  008ce	e8 00 00 00 00	 call	 ??9?$_Tree_const_iterator@V?$_Tree_val@V?$_Tmap_traits@HV?$vector@UCASTLEDEEP_MONSTERINFO@@V?$allocator@UCASTLEDEEP_MONSTERINFO@@@std@@@std@@U?$less@H@2@V?$allocator@U?$pair@$$CBHV?$vector@UCASTLEDEEP_MONSTERINFO@@V?$allocator@UCASTLEDEEP_MONSTERINFO@@@std@@@std@@@std@@@2@$0A@@std@@@std@@@std@@QBE_NABV01@@Z ; std::_Tree_const_iterator<std::_Tree_val<std::_Tmap_traits<int,std::vector<CASTLEDEEP_MONSTERINFO,std::allocator<CASTLEDEEP_MONSTERINFO> >,std::less<int>,std::allocator<std::pair<int const ,std::vector<CASTLEDEEP_MONSTERINFO,std::allocator<CASTLEDEEP_MONSTERINFO> > > >,0> > >::operator!=
  008d3	0f b6 c8	 movzx	 ecx, al
  008d6	85 c9		 test	 ecx, ecx
  008d8	74 16		 je	 SHORT $LN1@Load

; 257  : 				{
; 258  : 					it->second.push_back(stMonsterInfo);

  008da	8d 45 88	 lea	 eax, DWORD PTR _stMonsterInfo$232746[ebp]
  008dd	50		 push	 eax
  008de	8d 4d 80	 lea	 ecx, DWORD PTR _it$232774[ebp]
  008e1	e8 00 00 00 00	 call	 ??C?$_Tree_iterator@V?$_Tree_val@V?$_Tmap_traits@HV?$vector@UCASTLEDEEP_MONSTERINFO@@V?$allocator@UCASTLEDEEP_MONSTERINFO@@@std@@@std@@U?$less@H@2@V?$allocator@U?$pair@$$CBHV?$vector@UCASTLEDEEP_MONSTERINFO@@V?$allocator@UCASTLEDEEP_MONSTERINFO@@@std@@@std@@@std@@@2@$0A@@std@@@std@@@std@@QBEPAU?$pair@$$CBHV?$vector@UCASTLEDEEP_MONSTERINFO@@V?$allocator@UCASTLEDEEP_MONSTERINFO@@@std@@@std@@@1@XZ ; std::_Tree_iterator<std::_Tree_val<std::_Tmap_traits<int,std::vector<CASTLEDEEP_MONSTERINFO,std::allocator<CASTLEDEEP_MONSTERINFO> >,std::less<int>,std::allocator<std::pair<int const ,std::vector<CASTLEDEEP_MONSTERINFO,std::allocator<CASTLEDEEP_MONSTERINFO> > > >,0> > >::operator->
  008e6	83 c0 04	 add	 eax, 4
  008e9	8b c8		 mov	 ecx, eax
  008eb	e8 00 00 00 00	 call	 ?push_back@?$vector@UCASTLEDEEP_MONSTERINFO@@V?$allocator@UCASTLEDEEP_MONSTERINFO@@@std@@@std@@QAEXABUCASTLEDEEP_MONSTERINFO@@@Z ; std::vector<CASTLEDEEP_MONSTERINFO,std::allocator<CASTLEDEEP_MONSTERINFO> >::push_back
$LN1@Load:

; 259  : 				}
; 260  : 
; 261  : 				LeaveCriticalSection(&this->m_critEventData);

  008f0	8b 45 ec	 mov	 eax, DWORD PTR _this$[ebp]
  008f3	05 90 00 00 00	 add	 eax, 144		; 00000090H
  008f8	50		 push	 eax
  008f9	ff 15 00 00 00
	00		 call	 DWORD PTR __imp__LeaveCriticalSection@4
$LN3@Load:

; 262  : 			}
; 263  : 		}

  008ff	e9 13 fc ff ff	 jmp	 $LN15@Load
$LN14@Load:

; 264  : 	}

  00904	e9 e0 fb ff ff	 jmp	 $LN18@Load
$LN17@Load:

; 265  : 
; 266  : 	fclose(SMDFile);

  00909	a1 00 00 00 00	 mov	 eax, DWORD PTR _SMDFile
  0090e	50		 push	 eax
  0090f	e8 00 00 00 00	 call	 _fclose
  00914	83 c4 04	 add	 esp, 4

; 267  : 	LogAdd("%s file load!",lpszFileName);

  00917	8b 45 08	 mov	 eax, DWORD PTR _lpszFileName$[ebp]
  0091a	50		 push	 eax
  0091b	68 00 00 00 00	 push	 OFFSET ??_C@_0O@CEHBAEMJ@?$CFs?5file?5load?$CB?$AA@
  00920	ff 15 00 00 00
	00		 call	 DWORD PTR ?LogAdd@@3P6AXPADZZA ; LogAdd
  00926	83 c4 08	 add	 esp, 8

; 268  : 	this->m_bHasData = TRUE;

  00929	8b 45 ec	 mov	 eax, DWORD PTR _this$[ebp]
  0092c	c7 40 08 01 00
	00 00		 mov	 DWORD PTR [eax+8], 1

; 269  : 	return true;

  00933	b8 01 00 00 00	 mov	 eax, 1
$LN21@Load:

; 270  : }

  00938	8b 4d f4	 mov	 ecx, DWORD PTR __$EHRec$[ebp]
  0093b	64 89 0d 00 00
	00 00		 mov	 DWORD PTR fs:0, ecx
  00942	59		 pop	 ecx
  00943	5f		 pop	 edi
  00944	5e		 pop	 esi
  00945	5b		 pop	 ebx
  00946	8b 4d f0	 mov	 ecx, DWORD PTR __$ArrayPad$[ebp]
  00949	33 cd		 xor	 ecx, ebp
  0094b	e8 00 00 00 00	 call	 @__security_check_cookie@4
  00950	8b e5		 mov	 esp, ebp
  00952	5d		 pop	 ebp
  00953	c2 04 00	 ret	 4
_TEXT	ENDS
text$x	SEGMENT
__unwindfunclet$?Load@CCastleDeepEvent@@QAEHPAD@Z$0:
  000a4	8d 4d cc	 lea	 ecx, DWORD PTR _vtTempMonsterInfo$231846[ebp]
  000a7	e9 00 00 00 00	 jmp	 ??1?$vector@UCASTLEDEEP_MONSTERINFO@@V?$allocator@UCASTLEDEEP_MONSTERINFO@@@std@@@std@@QAE@XZ ; std::vector<CASTLEDEEP_MONSTERINFO,std::allocator<CASTLEDEEP_MONSTERINFO> >::~vector<CASTLEDEEP_MONSTERINFO,std::allocator<CASTLEDEEP_MONSTERINFO> >
__unwindfunclet$?Load@CCastleDeepEvent@@QAEHPAD@Z$1:
  000ac	8d 4d bc	 lea	 ecx, DWORD PTR _vtTempSpawnTime$231851[ebp]
  000af	e9 00 00 00 00	 jmp	 ??1?$vector@UCASTLEDEEP_SPAWNTIME@@V?$allocator@UCASTLEDEEP_SPAWNTIME@@@std@@@std@@QAE@XZ ; std::vector<CASTLEDEEP_SPAWNTIME,std::allocator<CASTLEDEEP_SPAWNTIME> >::~vector<CASTLEDEEP_SPAWNTIME,std::allocator<CASTLEDEEP_SPAWNTIME> >
__unwindfunclet$?Load@CCastleDeepEvent@@QAEHPAD@Z$2:
  000b4	8d 8d 00 ff ff
	ff		 lea	 ecx, DWORD PTR $T238887[ebp]
  000ba	e9 00 00 00 00	 jmp	 ??1?$pair@HV?$vector@UCASTLEDEEP_MONSTERINFO@@V?$allocator@UCASTLEDEEP_MONSTERINFO@@@std@@@std@@@std@@QAE@XZ
__unwindfunclet$?Load@CCastleDeepEvent@@QAEHPAD@Z$3:
  000bf	8d 8d 1c ff ff
	ff		 lea	 ecx, DWORD PTR $T238889[ebp]
  000c5	e9 00 00 00 00	 jmp	 ??1?$pair@HV?$vector@UCASTLEDEEP_SPAWNTIME@@V?$allocator@UCASTLEDEEP_SPAWNTIME@@@std@@@std@@@std@@QAE@XZ
__ehhandler$?Load@CCastleDeepEvent@@QAEHPAD@Z:
  000ca	8b 54 24 08	 mov	 edx, DWORD PTR [esp+8]
  000ce	8d 42 0c	 lea	 eax, DWORD PTR [edx+12]
  000d1	8b 8a f4 fe ff
	ff		 mov	 ecx, DWORD PTR [edx-268]
  000d7	33 c8		 xor	 ecx, eax
  000d9	e8 00 00 00 00	 call	 @__security_check_cookie@4
  000de	8b 4a fc	 mov	 ecx, DWORD PTR [edx-4]
  000e1	33 c8		 xor	 ecx, eax
  000e3	e8 00 00 00 00	 call	 @__security_check_cookie@4
  000e8	b8 00 00 00 00	 mov	 eax, OFFSET __ehfuncinfo$?Load@CCastleDeepEvent@@QAEHPAD@Z
  000ed	e9 00 00 00 00	 jmp	 ___CxxFrameHandler3
text$x	ENDS
?Load@CCastleDeepEvent@@QAEHPAD@Z ENDP			; CCastleDeepEvent::Load
PUBLIC	__$ArrayPad$
EXTRN	_isalnum:PROC
EXTRN	_isalpha:PROC
EXTRN	_atof:PROC
EXTRN	_isdigit:PROC
EXTRN	_getc:PROC
EXTRN	_ungetc:PROC
EXTRN	_isspace:PROC
EXTRN	_fgetc:PROC
EXTRN	__fltused:DWORD
_BSS	SEGMENT
_CurrentToken DD 01H DUP (?)
; Function compile flags: /Odtp /ZI
; File d:\projects\exteam6.3\source\gameserver\include\readscript.h
_BSS	ENDS
_TEXT	SEGMENT
tv90 = -180						; size = 4
_TempString$ = -112					; size = 100
_p$ = -12						; size = 4
_ch$ = -5						; size = 1
__$ArrayPad$ = -4					; size = 4
?GetToken@@YA?AW4SMDToken@@XZ PROC			; GetToken

; 24   : {

  00960	55		 push	 ebp
  00961	8b ec		 mov	 ebp, esp
  00963	81 ec b4 00 00
	00		 sub	 esp, 180		; 000000b4H
  00969	a1 00 00 00 00	 mov	 eax, DWORD PTR ___security_cookie
  0096e	33 c5		 xor	 eax, ebp
  00970	89 45 fc	 mov	 DWORD PTR __$ArrayPad$[ebp], eax
  00973	53		 push	 ebx
  00974	56		 push	 esi
  00975	57		 push	 edi

; 25   : 	char ch;
; 26   : 	char* p;
; 27   : 	char TempString[100];
; 28   : 
; 29   : 	TokenString[0]=0;

  00976	c6 05 00 00 00
	00 00		 mov	 BYTE PTR _TokenString, 0
$LN31@GetToken:

; 30   : 
; 31   : 	do
; 32   : 	{
; 33   : 		if ((ch=fgetc(SMDFile)) == -1)

  0097d	a1 00 00 00 00	 mov	 eax, DWORD PTR _SMDFile
  00982	50		 push	 eax
  00983	e8 00 00 00 00	 call	 _fgetc
  00988	83 c4 04	 add	 esp, 4
  0098b	88 45 fb	 mov	 BYTE PTR _ch$[ebp], al
  0098e	0f be 4d fb	 movsx	 ecx, BYTE PTR _ch$[ebp]
  00992	83 f9 ff	 cmp	 ecx, -1
  00995	75 0c		 jne	 SHORT $LN28@GetToken

; 34   : 		{
; 35   : 			return END;	// End of FILE (EOF)

  00997	b8 02 00 00 00	 mov	 eax, 2
  0099c	e9 f7 02 00 00	 jmp	 $LN32@GetToken

; 36   : 		}
; 37   : 		else

  009a1	eb 5b		 jmp	 SHORT $LN22@GetToken
$LN28@GetToken:

; 38   : 		{	
; 39   : 			if (ch=='/')		// this is /

  009a3	0f be 45 fb	 movsx	 eax, BYTE PTR _ch$[ebp]
  009a7	83 f8 2f	 cmp	 eax, 47			; 0000002fH
  009aa	75 52		 jne	 SHORT $LN22@GetToken

; 40   : 			{
; 41   : 				if((ch=fgetc(SMDFile)) == '/')

  009ac	a1 00 00 00 00	 mov	 eax, DWORD PTR _SMDFile
  009b1	50		 push	 eax
  009b2	e8 00 00 00 00	 call	 _fgetc
  009b7	83 c4 04	 add	 esp, 4
  009ba	88 45 fb	 mov	 BYTE PTR _ch$[ebp], al
  009bd	0f be 4d fb	 movsx	 ecx, BYTE PTR _ch$[ebp]
  009c1	83 f9 2f	 cmp	 ecx, 47			; 0000002fH
  009c4	75 38		 jne	 SHORT $LN22@GetToken
$LN24@GetToken:

; 42   : 				{
; 43   : 					while ((ch != '\n') && (ch != -1))	// End of Line (EOL)

  009c6	0f be 45 fb	 movsx	 eax, BYTE PTR _ch$[ebp]
  009ca	83 f8 0a	 cmp	 eax, 10			; 0000000aH
  009cd	74 1c		 je	 SHORT $LN23@GetToken
  009cf	0f be 45 fb	 movsx	 eax, BYTE PTR _ch$[ebp]
  009d3	83 f8 ff	 cmp	 eax, -1
  009d6	74 13		 je	 SHORT $LN23@GetToken

; 44   : 					{
; 45   : 						ch=fgetc(SMDFile);

  009d8	a1 00 00 00 00	 mov	 eax, DWORD PTR _SMDFile
  009dd	50		 push	 eax
  009de	e8 00 00 00 00	 call	 _fgetc
  009e3	83 c4 04	 add	 esp, 4
  009e6	88 45 fb	 mov	 BYTE PTR _ch$[ebp], al

; 46   : 					}

  009e9	eb db		 jmp	 SHORT $LN24@GetToken
$LN23@GetToken:

; 47   : 	
; 48   : 					if (ch == -1)

  009eb	0f be 45 fb	 movsx	 eax, BYTE PTR _ch$[ebp]
  009ef	83 f8 ff	 cmp	 eax, -1
  009f2	75 0a		 jne	 SHORT $LN22@GetToken

; 49   : 					{
; 50   : 						return END;	// End of FILE

  009f4	b8 02 00 00 00	 mov	 eax, 2
  009f9	e9 9a 02 00 00	 jmp	 $LN32@GetToken
$LN22@GetToken:

; 51   : 					}
; 52   : 				}
; 53   : 			}
; 54   : 		}
; 55   : 	}
; 56   : 	while (isspace(ch) != 0);

  009fe	0f be 45 fb	 movsx	 eax, BYTE PTR _ch$[ebp]
  00a02	50		 push	 eax
  00a03	e8 00 00 00 00	 call	 _isspace
  00a08	83 c4 04	 add	 esp, 4
  00a0b	85 c0		 test	 eax, eax
  00a0d	0f 85 6a ff ff
	ff		 jne	 $LN31@GetToken

; 57   : 
; 58   : 	
; 59   : 	switch(ch)

  00a13	0f be 45 fb	 movsx	 eax, BYTE PTR _ch$[ebp]
  00a17	89 85 4c ff ff
	ff		 mov	 DWORD PTR tv90[ebp], eax
  00a1d	8b 8d 4c ff ff
	ff		 mov	 ecx, DWORD PTR tv90[ebp]
  00a23	83 e9 22	 sub	 ecx, 34			; 00000022H
  00a26	89 8d 4c ff ff
	ff		 mov	 DWORD PTR tv90[ebp], ecx
  00a2c	83 bd 4c ff ff
	ff 5b		 cmp	 DWORD PTR tv90[ebp], 91	; 0000005bH
  00a33	0f 87 a3 01 00
	00		 ja	 $LN6@GetToken
  00a39	8b 95 4c ff ff
	ff		 mov	 edx, DWORD PTR tv90[ebp]
  00a3f	0f b6 82 00 00
	00 00		 movzx	 eax, BYTE PTR $LN34@GetToken[edx]
  00a46	ff 24 85 00 00
	00 00		 jmp	 DWORD PTR $LN35@GetToken[eax*4]
$LN19@GetToken:

; 60   : 	{
; 61   : 
; 62   : 	case 0x23:	// #
; 63   : 		return CurrentToken=COMMAND;

  00a4d	c7 05 00 00 00
	00 23 00 00 00	 mov	 DWORD PTR _CurrentToken, 35 ; 00000023H
  00a57	a1 00 00 00 00	 mov	 eax, DWORD PTR _CurrentToken
  00a5c	e9 37 02 00 00	 jmp	 $LN32@GetToken

; 64   : 		break;

  00a61	e9 30 02 00 00	 jmp	 $LN20@GetToken
$LN18@GetToken:

; 65   : 	
; 66   : 	case 0x3B:	// ;
; 67   : 		return CurrentToken=SEMICOLON;

  00a66	c7 05 00 00 00
	00 3b 00 00 00	 mov	 DWORD PTR _CurrentToken, 59 ; 0000003bH
  00a70	a1 00 00 00 00	 mov	 eax, DWORD PTR _CurrentToken
  00a75	e9 1e 02 00 00	 jmp	 $LN32@GetToken

; 68   : 		break;

  00a7a	e9 17 02 00 00	 jmp	 $LN20@GetToken
$LN17@GetToken:

; 69   : 	
; 70   : 	case 0x2C:	// ,
; 71   : 
; 72   : 		return CurrentToken=COMMA;

  00a7f	c7 05 00 00 00
	00 2c 00 00 00	 mov	 DWORD PTR _CurrentToken, 44 ; 0000002cH
  00a89	a1 00 00 00 00	 mov	 eax, DWORD PTR _CurrentToken
  00a8e	e9 05 02 00 00	 jmp	 $LN32@GetToken

; 73   : 		break;

  00a93	e9 fe 01 00 00	 jmp	 $LN20@GetToken
$LN16@GetToken:

; 74   : 	
; 75   : 	case 0x7B:	// {
; 76   : 		return CurrentToken = LP;

  00a98	c7 05 00 00 00
	00 7b 00 00 00	 mov	 DWORD PTR _CurrentToken, 123 ; 0000007bH
  00aa2	a1 00 00 00 00	 mov	 eax, DWORD PTR _CurrentToken
  00aa7	e9 ec 01 00 00	 jmp	 $LN32@GetToken

; 77   : 		break;

  00aac	e9 e5 01 00 00	 jmp	 $LN20@GetToken
$LN15@GetToken:

; 78   : 
; 79   : 	case 0x7D:	// }
; 80   : 		return CurrentToken = RP;

  00ab1	c7 05 00 00 00
	00 7d 00 00 00	 mov	 DWORD PTR _CurrentToken, 125 ; 0000007dH
  00abb	a1 00 00 00 00	 mov	 eax, DWORD PTR _CurrentToken
  00ac0	e9 d3 01 00 00	 jmp	 $LN32@GetToken

; 81   : 		break;

  00ac5	e9 cc 01 00 00	 jmp	 $LN20@GetToken
$LN14@GetToken:

; 82   : 	// Nice Index Table :)	by Deathway
; 83   : 	// Numbers Case
; 84   : 	case 0x2D:	//-
; 85   : 	case 0x2E:	//.
; 86   : 	case '0':	//0
; 87   : 	case '1':	//1
; 88   : 	case '2':	//2
; 89   : 	case '3':	//3
; 90   : 	case '4':	//4		
; 91   : 	case '5':	//5
; 92   : 	case '6':	//6
; 93   : 	case '7':	//7
; 94   : 	case '8':	//8
; 95   : 	case '9':	//9
; 96   : 		ungetc(ch, SMDFile);

  00aca	a1 00 00 00 00	 mov	 eax, DWORD PTR _SMDFile
  00acf	50		 push	 eax
  00ad0	0f be 4d fb	 movsx	 ecx, BYTE PTR _ch$[ebp]
  00ad4	51		 push	 ecx
  00ad5	e8 00 00 00 00	 call	 _ungetc
  00ada	83 c4 08	 add	 esp, 8

; 97   : 		p = TempString;

  00add	8d 45 90	 lea	 eax, DWORD PTR _TempString$[ebp]
  00ae0	89 45 f4	 mov	 DWORD PTR _p$[ebp], eax
$LN13@GetToken:

; 98   : 		
; 99   : 		while (((ch=getc(SMDFile)) != -1) && ((ch == 0x2E) || (isdigit(ch) != 0) || (ch == 0x2D)))  // 2e '.'  2D '-'

  00ae3	a1 00 00 00 00	 mov	 eax, DWORD PTR _SMDFile
  00ae8	50		 push	 eax
  00ae9	e8 00 00 00 00	 call	 _getc
  00aee	83 c4 04	 add	 esp, 4
  00af1	88 45 fb	 mov	 BYTE PTR _ch$[ebp], al
  00af4	0f be 4d fb	 movsx	 ecx, BYTE PTR _ch$[ebp]
  00af8	83 f9 ff	 cmp	 ecx, -1
  00afb	74 36		 je	 SHORT $LN12@GetToken
  00afd	0f be 45 fb	 movsx	 eax, BYTE PTR _ch$[ebp]
  00b01	83 f8 2e	 cmp	 eax, 46			; 0000002eH
  00b04	74 1a		 je	 SHORT $LN11@GetToken
  00b06	0f be 45 fb	 movsx	 eax, BYTE PTR _ch$[ebp]
  00b0a	50		 push	 eax
  00b0b	e8 00 00 00 00	 call	 _isdigit
  00b10	83 c4 04	 add	 esp, 4
  00b13	85 c0		 test	 eax, eax
  00b15	75 09		 jne	 SHORT $LN11@GetToken
  00b17	0f be 45 fb	 movsx	 eax, BYTE PTR _ch$[ebp]
  00b1b	83 f8 2d	 cmp	 eax, 45			; 0000002dH
  00b1e	75 13		 jne	 SHORT $LN12@GetToken
$LN11@GetToken:

; 100  : 		{
; 101  : 			*p = ch;	// Construct a String

  00b20	8b 45 f4	 mov	 eax, DWORD PTR _p$[ebp]
  00b23	8a 4d fb	 mov	 cl, BYTE PTR _ch$[ebp]
  00b26	88 08		 mov	 BYTE PTR [eax], cl

; 102  : 			p++;

  00b28	8b 45 f4	 mov	 eax, DWORD PTR _p$[ebp]
  00b2b	83 c0 01	 add	 eax, 1
  00b2e	89 45 f4	 mov	 DWORD PTR _p$[ebp], eax

; 103  : 		}		

  00b31	eb b0		 jmp	 SHORT $LN13@GetToken
$LN12@GetToken:

; 104  : 		*p = 0;

  00b33	8b 45 f4	 mov	 eax, DWORD PTR _p$[ebp]
  00b36	c6 00 00	 mov	 BYTE PTR [eax], 0

; 105  : 		TokenNumber = atof( TempString);	// Select the first Byte as Main ID

  00b39	8d 45 90	 lea	 eax, DWORD PTR _TempString$[ebp]
  00b3c	50		 push	 eax
  00b3d	e8 00 00 00 00	 call	 _atof
  00b42	83 c4 04	 add	 esp, 4
  00b45	d9 1d 00 00 00
	00		 fstp	 DWORD PTR _TokenNumber

; 106  : 		return CurrentToken  = NUMBER ;

  00b4b	c7 05 00 00 00
	00 01 00 00 00	 mov	 DWORD PTR _CurrentToken, 1
  00b55	a1 00 00 00 00	 mov	 eax, DWORD PTR _CurrentToken
  00b5a	e9 39 01 00 00	 jmp	 $LN32@GetToken

; 107  : 		break;

  00b5f	e9 32 01 00 00	 jmp	 $LN20@GetToken
$LN10@GetToken:

; 108  : 
; 109  : 	case '\"':	// "	String Case
; 110  : 		p=&TokenString[0];

  00b64	c7 45 f4 00 00
	00 00		 mov	 DWORD PTR _p$[ebp], OFFSET _TokenString
$LN9@GetToken:

; 111  : 		
; 112  : 		while (((ch=getc(SMDFile)) != -1 ) && (ch != 0x22))	// nice

  00b6b	a1 00 00 00 00	 mov	 eax, DWORD PTR _SMDFile
  00b70	50		 push	 eax
  00b71	e8 00 00 00 00	 call	 _getc
  00b76	83 c4 04	 add	 esp, 4
  00b79	88 45 fb	 mov	 BYTE PTR _ch$[ebp], al
  00b7c	0f be 4d fb	 movsx	 ecx, BYTE PTR _ch$[ebp]
  00b80	83 f9 ff	 cmp	 ecx, -1
  00b83	74 1c		 je	 SHORT $LN8@GetToken
  00b85	0f be 45 fb	 movsx	 eax, BYTE PTR _ch$[ebp]
  00b89	83 f8 22	 cmp	 eax, 34			; 00000022H
  00b8c	74 13		 je	 SHORT $LN8@GetToken

; 113  : 		{
; 114  : 			*p = ch;

  00b8e	8b 45 f4	 mov	 eax, DWORD PTR _p$[ebp]
  00b91	8a 4d fb	 mov	 cl, BYTE PTR _ch$[ebp]
  00b94	88 08		 mov	 BYTE PTR [eax], cl

; 115  : 			p++;

  00b96	8b 45 f4	 mov	 eax, DWORD PTR _p$[ebp]
  00b99	83 c0 01	 add	 eax, 1
  00b9c	89 45 f4	 mov	 DWORD PTR _p$[ebp], eax

; 116  : 		}

  00b9f	eb ca		 jmp	 SHORT $LN9@GetToken
$LN8@GetToken:

; 117  : 		if (ch != 0x22 )

  00ba1	0f be 45 fb	 movsx	 eax, BYTE PTR _ch$[ebp]
  00ba5	83 f8 22	 cmp	 eax, 34			; 00000022H
  00ba8	74 13		 je	 SHORT $LN7@GetToken

; 118  : 		{
; 119  : 			ungetc(ch, SMDFile);

  00baa	a1 00 00 00 00	 mov	 eax, DWORD PTR _SMDFile
  00baf	50		 push	 eax
  00bb0	0f be 4d fb	 movsx	 ecx, BYTE PTR _ch$[ebp]
  00bb4	51		 push	 ecx
  00bb5	e8 00 00 00 00	 call	 _ungetc
  00bba	83 c4 08	 add	 esp, 8
$LN7@GetToken:

; 120  : 		}
; 121  : 		*p = 0;

  00bbd	8b 45 f4	 mov	 eax, DWORD PTR _p$[ebp]
  00bc0	c6 00 00	 mov	 BYTE PTR [eax], 0

; 122  : 		return CurrentToken = NAME;

  00bc3	c7 05 00 00 00
	00 00 00 00 00	 mov	 DWORD PTR _CurrentToken, 0
  00bcd	a1 00 00 00 00	 mov	 eax, DWORD PTR _CurrentToken
  00bd2	e9 c1 00 00 00	 jmp	 $LN32@GetToken

; 123  : 		break;

  00bd7	e9 ba 00 00 00	 jmp	 $LN20@GetToken
$LN6@GetToken:

; 124  : 
; 125  : 	default:	// Others
; 126  : 		if (isalpha(ch))

  00bdc	0f be 45 fb	 movsx	 eax, BYTE PTR _ch$[ebp]
  00be0	50		 push	 eax
  00be1	e8 00 00 00 00	 call	 _isalpha
  00be6	83 c4 04	 add	 esp, 4
  00be9	85 c0		 test	 eax, eax
  00beb	0f 84 94 00 00
	00		 je	 $LN5@GetToken

; 127  : 		{
; 128  : 			p=&TokenString[0];

  00bf1	c7 45 f4 00 00
	00 00		 mov	 DWORD PTR _p$[ebp], OFFSET _TokenString

; 129  : 			*p=ch;

  00bf8	8b 45 f4	 mov	 eax, DWORD PTR _p$[ebp]
  00bfb	8a 4d fb	 mov	 cl, BYTE PTR _ch$[ebp]
  00bfe	88 08		 mov	 BYTE PTR [eax], cl

; 130  : 			p++;

  00c00	8b 45 f4	 mov	 eax, DWORD PTR _p$[ebp]
  00c03	83 c0 01	 add	 eax, 1
  00c06	89 45 f4	 mov	 DWORD PTR _p$[ebp], eax
$LN4@GetToken:

; 131  : 
; 132  : 			while ( ((ch=getc(SMDFile)) != -1) && ( (ch == 0x2E) || (ch == 0x5F) || (isalnum(ch) != 0) ) )

  00c09	a1 00 00 00 00	 mov	 eax, DWORD PTR _SMDFile
  00c0e	50		 push	 eax
  00c0f	e8 00 00 00 00	 call	 _getc
  00c14	83 c4 04	 add	 esp, 4
  00c17	88 45 fb	 mov	 BYTE PTR _ch$[ebp], al
  00c1a	0f be 4d fb	 movsx	 ecx, BYTE PTR _ch$[ebp]
  00c1e	83 f9 ff	 cmp	 ecx, -1
  00c21	74 36		 je	 SHORT $LN3@GetToken
  00c23	0f be 45 fb	 movsx	 eax, BYTE PTR _ch$[ebp]
  00c27	83 f8 2e	 cmp	 eax, 46			; 0000002eH
  00c2a	74 1a		 je	 SHORT $LN2@GetToken
  00c2c	0f be 45 fb	 movsx	 eax, BYTE PTR _ch$[ebp]
  00c30	83 f8 5f	 cmp	 eax, 95			; 0000005fH
  00c33	74 11		 je	 SHORT $LN2@GetToken
  00c35	0f be 45 fb	 movsx	 eax, BYTE PTR _ch$[ebp]
  00c39	50		 push	 eax
  00c3a	e8 00 00 00 00	 call	 _isalnum
  00c3f	83 c4 04	 add	 esp, 4
  00c42	85 c0		 test	 eax, eax
  00c44	74 13		 je	 SHORT $LN3@GetToken
$LN2@GetToken:

; 133  : 			{
; 134  : 				*p=ch;

  00c46	8b 45 f4	 mov	 eax, DWORD PTR _p$[ebp]
  00c49	8a 4d fb	 mov	 cl, BYTE PTR _ch$[ebp]
  00c4c	88 08		 mov	 BYTE PTR [eax], cl

; 135  : 				p++;

  00c4e	8b 45 f4	 mov	 eax, DWORD PTR _p$[ebp]
  00c51	83 c0 01	 add	 eax, 1
  00c54	89 45 f4	 mov	 DWORD PTR _p$[ebp], eax

; 136  : 				
; 137  : 			}

  00c57	eb b0		 jmp	 SHORT $LN4@GetToken
$LN3@GetToken:

; 138  : 
; 139  : 			ungetc(ch, SMDFile);

  00c59	a1 00 00 00 00	 mov	 eax, DWORD PTR _SMDFile
  00c5e	50		 push	 eax
  00c5f	0f be 4d fb	 movsx	 ecx, BYTE PTR _ch$[ebp]
  00c63	51		 push	 ecx
  00c64	e8 00 00 00 00	 call	 _ungetc
  00c69	83 c4 08	 add	 esp, 8

; 140  : 			*p=0;

  00c6c	8b 45 f4	 mov	 eax, DWORD PTR _p$[ebp]
  00c6f	c6 00 00	 mov	 BYTE PTR [eax], 0

; 141  : 			CurrentToken=NAME;

  00c72	c7 05 00 00 00
	00 00 00 00 00	 mov	 DWORD PTR _CurrentToken, 0

; 142  : 			return CurrentToken;

  00c7c	a1 00 00 00 00	 mov	 eax, DWORD PTR _CurrentToken
  00c81	eb 15		 jmp	 SHORT $LN32@GetToken

; 143  : 		}
; 144  : 		else

  00c83	eb 11		 jmp	 SHORT $LN1@GetToken
$LN5@GetToken:

; 145  : 		{
; 146  : 			return CurrentToken = SMD_ERROR; // '<'

  00c85	c7 05 00 00 00
	00 3c 00 00 00	 mov	 DWORD PTR _CurrentToken, 60 ; 0000003cH
  00c8f	a1 00 00 00 00	 mov	 eax, DWORD PTR _CurrentToken
  00c94	eb 02		 jmp	 SHORT $LN32@GetToken
$LN1@GetToken:
$LN20@GetToken:

; 147  : 		}
; 148  : 		break;
; 149  : 
; 150  : 	}
; 151  : 
; 152  : 	return NAME;

  00c96	33 c0		 xor	 eax, eax
$LN32@GetToken:

; 153  : }

  00c98	5f		 pop	 edi
  00c99	5e		 pop	 esi
  00c9a	5b		 pop	 ebx
  00c9b	8b 4d fc	 mov	 ecx, DWORD PTR __$ArrayPad$[ebp]
  00c9e	33 cd		 xor	 ecx, ebp
  00ca0	e8 00 00 00 00	 call	 @__security_check_cookie@4
  00ca5	8b e5		 mov	 esp, ebp
  00ca7	5d		 pop	 ebp
  00ca8	c3		 ret	 0
  00ca9	8d 49 00	 npad	 3
$LN35@GetToken:
  00cac	00 00 00 00	 DD	 $LN10@GetToken
  00cb0	00 00 00 00	 DD	 $LN19@GetToken
  00cb4	00 00 00 00	 DD	 $LN17@GetToken
  00cb8	00 00 00 00	 DD	 $LN14@GetToken
  00cbc	00 00 00 00	 DD	 $LN18@GetToken
  00cc0	00 00 00 00	 DD	 $LN16@GetToken
  00cc4	00 00 00 00	 DD	 $LN15@GetToken
  00cc8	00 00 00 00	 DD	 $LN6@GetToken
$LN34@GetToken:
  00ccc	00		 DB	 0
  00ccd	01		 DB	 1
  00cce	07		 DB	 7
  00ccf	07		 DB	 7
  00cd0	07		 DB	 7
  00cd1	07		 DB	 7
  00cd2	07		 DB	 7
  00cd3	07		 DB	 7
  00cd4	07		 DB	 7
  00cd5	07		 DB	 7
  00cd6	02		 DB	 2
  00cd7	03		 DB	 3
  00cd8	03		 DB	 3
  00cd9	07		 DB	 7
  00cda	03		 DB	 3
  00cdb	03		 DB	 3
  00cdc	03		 DB	 3
  00cdd	03		 DB	 3
  00cde	03		 DB	 3
  00cdf	03		 DB	 3
  00ce0	03		 DB	 3
  00ce1	03		 DB	 3
  00ce2	03		 DB	 3
  00ce3	03		 DB	 3
  00ce4	07		 DB	 7
  00ce5	04		 DB	 4
  00ce6	07		 DB	 7
  00ce7	07		 DB	 7
  00ce8	07		 DB	 7
  00ce9	07		 DB	 7
  00cea	07		 DB	 7
  00ceb	07		 DB	 7
  00cec	07		 DB	 7
  00ced	07		 DB	 7
  00cee	07		 DB	 7
  00cef	07		 DB	 7
  00cf0	07		 DB	 7
  00cf1	07		 DB	 7
  00cf2	07		 DB	 7
  00cf3	07		 DB	 7
  00cf4	07		 DB	 7
  00cf5	07		 DB	 7
  00cf6	07		 DB	 7
  00cf7	07		 DB	 7
  00cf8	07		 DB	 7
  00cf9	07		 DB	 7
  00cfa	07		 DB	 7
  00cfb	07		 DB	 7
  00cfc	07		 DB	 7
  00cfd	07		 DB	 7
  00cfe	07		 DB	 7
  00cff	07		 DB	 7
  00d00	07		 DB	 7
  00d01	07		 DB	 7
  00d02	07		 DB	 7
  00d03	07		 DB	 7
  00d04	07		 DB	 7
  00d05	07		 DB	 7
  00d06	07		 DB	 7
  00d07	07		 DB	 7
  00d08	07		 DB	 7
  00d09	07		 DB	 7
  00d0a	07		 DB	 7
  00d0b	07		 DB	 7
  00d0c	07		 DB	 7
  00d0d	07		 DB	 7
  00d0e	07		 DB	 7
  00d0f	07		 DB	 7
  00d10	07		 DB	 7
  00d11	07		 DB	 7
  00d12	07		 DB	 7
  00d13	07		 DB	 7
  00d14	07		 DB	 7
  00d15	07		 DB	 7
  00d16	07		 DB	 7
  00d17	07		 DB	 7
  00d18	07		 DB	 7
  00d19	07		 DB	 7
  00d1a	07		 DB	 7
  00d1b	07		 DB	 7
  00d1c	07		 DB	 7
  00d1d	07		 DB	 7
  00d1e	07		 DB	 7
  00d1f	07		 DB	 7
  00d20	07		 DB	 7
  00d21	07		 DB	 7
  00d22	07		 DB	 7
  00d23	07		 DB	 7
  00d24	07		 DB	 7
  00d25	05		 DB	 5
  00d26	07		 DB	 7
  00d27	06		 DB	 6
?GetToken@@YA?AW4SMDToken@@XZ ENDP			; GetToken
_TEXT	ENDS
PUBLIC	??1?$_Pair_base@HV?$vector@UCASTLEDEEP_MONSTERINFO@@V?$allocator@UCASTLEDEEP_MONSTERINFO@@@std@@@std@@@std@@QAE@XZ ; std::_Pair_base<int,std::vector<CASTLEDEEP_MONSTERINFO,std::allocator<CASTLEDEEP_MONSTERINFO> > >::~_Pair_base<int,std::vector<CASTLEDEEP_MONSTERINFO,std::allocator<CASTLEDEEP_MONSTERINFO> > >
; Function compile flags: /Odtp /ZI
;	COMDAT ??1?$pair@HV?$vector@UCASTLEDEEP_MONSTERINFO@@V?$allocator@UCASTLEDEEP_MONSTERINFO@@@std@@@std@@@std@@QAE@XZ
_TEXT	SEGMENT
_this$ = -4						; size = 4
??1?$pair@HV?$vector@UCASTLEDEEP_MONSTERINFO@@V?$allocator@UCASTLEDEEP_MONSTERINFO@@@std@@@std@@@std@@QAE@XZ PROC ; std::pair<int,std::vector<CASTLEDEEP_MONSTERINFO,std::allocator<CASTLEDEEP_MONSTERINFO> > >::~pair<int,std::vector<CASTLEDEEP_MONSTERINFO,std::allocator<CASTLEDEEP_MONSTERINFO> > >, COMDAT
; _this$ = ecx
  00000	55		 push	 ebp
  00001	8b ec		 mov	 ebp, esp
  00003	83 ec 44	 sub	 esp, 68			; 00000044H
  00006	53		 push	 ebx
  00007	56		 push	 esi
  00008	57		 push	 edi
  00009	89 4d fc	 mov	 DWORD PTR _this$[ebp], ecx
  0000c	8b 4d fc	 mov	 ecx, DWORD PTR _this$[ebp]
  0000f	e8 00 00 00 00	 call	 ??1?$_Pair_base@HV?$vector@UCASTLEDEEP_MONSTERINFO@@V?$allocator@UCASTLEDEEP_MONSTERINFO@@@std@@@std@@@std@@QAE@XZ
  00014	5f		 pop	 edi
  00015	5e		 pop	 esi
  00016	5b		 pop	 ebx
  00017	8b e5		 mov	 esp, ebp
  00019	5d		 pop	 ebp
  0001a	c3		 ret	 0
??1?$pair@HV?$vector@UCASTLEDEEP_MONSTERINFO@@V?$allocator@UCASTLEDEEP_MONSTERINFO@@@std@@@std@@@std@@QAE@XZ ENDP ; std::pair<int,std::vector<CASTLEDEEP_MONSTERINFO,std::allocator<CASTLEDEEP_MONSTERINFO> > >::~pair<int,std::vector<CASTLEDEEP_MONSTERINFO,std::allocator<CASTLEDEEP_MONSTERINFO> > >
_TEXT	ENDS
PUBLIC	??1?$_Pair_base@HV?$vector@UCASTLEDEEP_SPAWNTIME@@V?$allocator@UCASTLEDEEP_SPAWNTIME@@@std@@@std@@@std@@QAE@XZ ; std::_Pair_base<int,std::vector<CASTLEDEEP_SPAWNTIME,std::allocator<CASTLEDEEP_SPAWNTIME> > >::~_Pair_base<int,std::vector<CASTLEDEEP_SPAWNTIME,std::allocator<CASTLEDEEP_SPAWNTIME> > >
; Function compile flags: /Odtp /ZI
;	COMDAT ??1?$pair@HV?$vector@UCASTLEDEEP_SPAWNTIME@@V?$allocator@UCASTLEDEEP_SPAWNTIME@@@std@@@std@@@std@@QAE@XZ
_TEXT	SEGMENT
_this$ = -4						; size = 4
??1?$pair@HV?$vector@UCASTLEDEEP_SPAWNTIME@@V?$allocator@UCASTLEDEEP_SPAWNTIME@@@std@@@std@@@std@@QAE@XZ PROC ; std::pair<int,std::vector<CASTLEDEEP_SPAWNTIME,std::allocator<CASTLEDEEP_SPAWNTIME> > >::~pair<int,std::vector<CASTLEDEEP_SPAWNTIME,std::allocator<CASTLEDEEP_SPAWNTIME> > >, COMDAT
; _this$ = ecx
  00000	55		 push	 ebp
  00001	8b ec		 mov	 ebp, esp
  00003	83 ec 44	 sub	 esp, 68			; 00000044H
  00006	53		 push	 ebx
  00007	56		 push	 esi
  00008	57		 push	 edi
  00009	89 4d fc	 mov	 DWORD PTR _this$[ebp], ecx
  0000c	8b 4d fc	 mov	 ecx, DWORD PTR _this$[ebp]
  0000f	e8 00 00 00 00	 call	 ??1?$_Pair_base@HV?$vector@UCASTLEDEEP_SPAWNTIME@@V?$allocator@UCASTLEDEEP_SPAWNTIME@@@std@@@std@@@std@@QAE@XZ
  00014	5f		 pop	 edi
  00015	5e		 pop	 esi
  00016	5b		 pop	 ebx
  00017	8b e5		 mov	 esp, ebp
  00019	5d		 pop	 ebp
  0001a	c3		 ret	 0
??1?$pair@HV?$vector@UCASTLEDEEP_SPAWNTIME@@V?$allocator@UCASTLEDEEP_SPAWNTIME@@@std@@@std@@@std@@QAE@XZ ENDP ; std::pair<int,std::vector<CASTLEDEEP_SPAWNTIME,std::allocator<CASTLEDEEP_SPAWNTIME> > >::~pair<int,std::vector<CASTLEDEEP_SPAWNTIME,std::allocator<CASTLEDEEP_SPAWNTIME> > >
; Function compile flags: /Odtp /ZI
_TEXT	ENDS
;	COMDAT ??1?$_Pair_base@HV?$vector@UCASTLEDEEP_MONSTERINFO@@V?$allocator@UCASTLEDEEP_MONSTERINFO@@@std@@@std@@@std@@QAE@XZ
_TEXT	SEGMENT
_this$ = -4						; size = 4
??1?$_Pair_base@HV?$vector@UCASTLEDEEP_MONSTERINFO@@V?$allocator@UCASTLEDEEP_MONSTERINFO@@@std@@@std@@@std@@QAE@XZ PROC ; std::_Pair_base<int,std::vector<CASTLEDEEP_MONSTERINFO,std::allocator<CASTLEDEEP_MONSTERINFO> > >::~_Pair_base<int,std::vector<CASTLEDEEP_MONSTERINFO,std::allocator<CASTLEDEEP_MONSTERINFO> > >, COMDAT
; _this$ = ecx
  00000	55		 push	 ebp
  00001	8b ec		 mov	 ebp, esp
  00003	83 ec 44	 sub	 esp, 68			; 00000044H
  00006	53		 push	 ebx
  00007	56		 push	 esi
  00008	57		 push	 edi
  00009	89 4d fc	 mov	 DWORD PTR _this$[ebp], ecx
  0000c	8b 4d fc	 mov	 ecx, DWORD PTR _this$[ebp]
  0000f	83 c1 04	 add	 ecx, 4
  00012	e8 00 00 00 00	 call	 ??1?$vector@UCASTLEDEEP_MONSTERINFO@@V?$allocator@UCASTLEDEEP_MONSTERINFO@@@std@@@std@@QAE@XZ ; std::vector<CASTLEDEEP_MONSTERINFO,std::allocator<CASTLEDEEP_MONSTERINFO> >::~vector<CASTLEDEEP_MONSTERINFO,std::allocator<CASTLEDEEP_MONSTERINFO> >
  00017	5f		 pop	 edi
  00018	5e		 pop	 esi
  00019	5b		 pop	 ebx
  0001a	8b e5		 mov	 esp, ebp
  0001c	5d		 pop	 ebp
  0001d	c3		 ret	 0
??1?$_Pair_base@HV?$vector@UCASTLEDEEP_MONSTERINFO@@V?$allocator@UCASTLEDEEP_MONSTERINFO@@@std@@@std@@@std@@QAE@XZ ENDP ; std::_Pair_base<int,std::vector<CASTLEDEEP_MONSTERINFO,std::allocator<CASTLEDEEP_MONSTERINFO> > >::~_Pair_base<int,std::vector<CASTLEDEEP_MONSTERINFO,std::allocator<CASTLEDEEP_MONSTERINFO> > >
; Function compile flags: /Odtp /ZI
_TEXT	ENDS
;	COMDAT ??1?$_Pair_base@HV?$vector@UCASTLEDEEP_SPAWNTIME@@V?$allocator@UCASTLEDEEP_SPAWNTIME@@@std@@@std@@@std@@QAE@XZ
_TEXT	SEGMENT
_this$ = -4						; size = 4
??1?$_Pair_base@HV?$vector@UCASTLEDEEP_SPAWNTIME@@V?$allocator@UCASTLEDEEP_SPAWNTIME@@@std@@@std@@@std@@QAE@XZ PROC ; std::_Pair_base<int,std::vector<CASTLEDEEP_SPAWNTIME,std::allocator<CASTLEDEEP_SPAWNTIME> > >::~_Pair_base<int,std::vector<CASTLEDEEP_SPAWNTIME,std::allocator<CASTLEDEEP_SPAWNTIME> > >, COMDAT
; _this$ = ecx
  00000	55		 push	 ebp
  00001	8b ec		 mov	 ebp, esp
  00003	83 ec 44	 sub	 esp, 68			; 00000044H
  00006	53		 push	 ebx
  00007	56		 push	 esi
  00008	57		 push	 edi
  00009	89 4d fc	 mov	 DWORD PTR _this$[ebp], ecx
  0000c	8b 4d fc	 mov	 ecx, DWORD PTR _this$[ebp]
  0000f	83 c1 04	 add	 ecx, 4
  00012	e8 00 00 00 00	 call	 ??1?$vector@UCASTLEDEEP_SPAWNTIME@@V?$allocator@UCASTLEDEEP_SPAWNTIME@@@std@@@std@@QAE@XZ ; std::vector<CASTLEDEEP_SPAWNTIME,std::allocator<CASTLEDEEP_SPAWNTIME> >::~vector<CASTLEDEEP_SPAWNTIME,std::allocator<CASTLEDEEP_SPAWNTIME> >
  00017	5f		 pop	 edi
  00018	5e		 pop	 esi
  00019	5b		 pop	 ebx
  0001a	8b e5		 mov	 esp, ebp
  0001c	5d		 pop	 ebp
  0001d	c3		 ret	 0
??1?$_Pair_base@HV?$vector@UCASTLEDEEP_SPAWNTIME@@V?$allocator@UCASTLEDEEP_SPAWNTIME@@@std@@@std@@@std@@QAE@XZ ENDP ; std::_Pair_base<int,std::vector<CASTLEDEEP_SPAWNTIME,std::allocator<CASTLEDEEP_SPAWNTIME> > >::~_Pair_base<int,std::vector<CASTLEDEEP_SPAWNTIME,std::allocator<CASTLEDEEP_SPAWNTIME> > >
_TEXT	ENDS
PUBLIC	??_C@_0EM@HOLJDKOB@?$FLCastleDeep?5Event?$FN?5Sync?5Start?5Ti@ ; `string'
PUBLIC	??C?$_Vector_iterator@V?$_Vector_val@UCASTLEDEEP_EVENTTIME@@V?$allocator@UCASTLEDEEP_EVENTTIME@@@std@@@std@@@std@@QBEPAUCASTLEDEEP_EVENTTIME@@XZ ; std::_Vector_iterator<std::_Vector_val<CASTLEDEEP_EVENTTIME,std::allocator<CASTLEDEEP_EVENTTIME> > >::operator->
PUBLIC	??9?$_Vector_const_iterator@V?$_Vector_val@UCASTLEDEEP_EVENTTIME@@V?$allocator@UCASTLEDEEP_EVENTTIME@@@std@@@std@@@std@@QBE_NABV01@@Z ; std::_Vector_const_iterator<std::_Vector_val<CASTLEDEEP_EVENTTIME,std::allocator<CASTLEDEEP_EVENTTIME> > >::operator!=
PUBLIC	?end@?$vector@UCASTLEDEEP_EVENTTIME@@V?$allocator@UCASTLEDEEP_EVENTTIME@@@std@@@std@@QAE?AV?$_Vector_iterator@V?$_Vector_val@UCASTLEDEEP_EVENTTIME@@V?$allocator@UCASTLEDEEP_EVENTTIME@@@std@@@std@@@2@XZ ; std::vector<CASTLEDEEP_EVENTTIME,std::allocator<CASTLEDEEP_EVENTTIME> >::end
PUBLIC	??E?$_Vector_iterator@V?$_Vector_val@UCASTLEDEEP_EVENTTIME@@V?$allocator@UCASTLEDEEP_EVENTTIME@@@std@@@std@@@std@@QAE?AV01@H@Z ; std::_Vector_iterator<std::_Vector_val<CASTLEDEEP_EVENTTIME,std::allocator<CASTLEDEEP_EVENTTIME> > >::operator++
PUBLIC	?begin@?$vector@UCASTLEDEEP_EVENTTIME@@V?$allocator@UCASTLEDEEP_EVENTTIME@@@std@@@std@@QAE?AV?$_Vector_iterator@V?$_Vector_val@UCASTLEDEEP_EVENTTIME@@V?$allocator@UCASTLEDEEP_EVENTTIME@@@std@@@std@@@2@XZ ; std::vector<CASTLEDEEP_EVENTTIME,std::allocator<CASTLEDEEP_EVENTTIME> >::begin
PUBLIC	??0?$_Vector_iterator@V?$_Vector_val@UCASTLEDEEP_EVENTTIME@@V?$allocator@UCASTLEDEEP_EVENTTIME@@@std@@@std@@@std@@QAE@XZ ; std::_Vector_iterator<std::_Vector_val<CASTLEDEEP_EVENTTIME,std::allocator<CASTLEDEEP_EVENTTIME> > >::_Vector_iterator<std::_Vector_val<CASTLEDEEP_EVENTTIME,std::allocator<CASTLEDEEP_EVENTTIME> > >
PUBLIC	??_C@_0CJ@IPPMNGNJ@?$FLCastleDeep?5Event?$FN?5No?5Schedule?5T@ ; `string'
PUBLIC	?empty@?$vector@UCASTLEDEEP_EVENTTIME@@V?$allocator@UCASTLEDEEP_EVENTTIME@@@std@@@std@@QBE_NXZ ; std::vector<CASTLEDEEP_EVENTTIME,std::allocator<CASTLEDEEP_EVENTTIME> >::empty
PUBLIC	__$ArrayPad$
PUBLIC	?CheckSync@CCastleDeepEvent@@QAEXXZ		; CCastleDeepEvent::CheckSync
EXTRN	__imp__GetTickCount@0:PROC
EXTRN	__imp__GetLocalTime@4:PROC
EXTRN	?LogAddC@@3P6AXEPADZZA:DWORD			; LogAddC
;	COMDAT ??_C@_0EM@HOLJDKOB@?$FLCastleDeep?5Event?$FN?5Sync?5Start?5Ti@
; File d:\projects\exteam6.3\source\gameserver\gameserver\castledeepevent.cpp
CONST	SEGMENT
??_C@_0EM@HOLJDKOB@?$FLCastleDeep?5Event?$FN?5Sync?5Start?5Ti@ DB '[Castl'
	DB	'eDeep Event] Sync Start Time. [%d] min remain (START HOUR:%d,'
	DB	' MIN:%d)', 00H				; `string'
CONST	ENDS
;	COMDAT ??_C@_0CJ@IPPMNGNJ@?$FLCastleDeep?5Event?$FN?5No?5Schedule?5T@
CONST	SEGMENT
??_C@_0CJ@IPPMNGNJ@?$FLCastleDeep?5Event?$FN?5No?5Schedule?5T@ DB '[Castl'
	DB	'eDeep Event] No Schedule Time Data', 00H	; `string'
; Function compile flags: /Odtp /ZI
CONST	ENDS
_TEXT	SEGMENT
tv200 = -140						; size = 4
$T238921 = -136						; size = 4
$T238922 = -132						; size = 4
$T238923 = -128						; size = 4
$T238924 = -124						; size = 4
$T238925 = -120						; size = 4
$T238926 = -116						; size = 4
_pRET$232983 = -48					; size = 4
_pRET$232969 = -44					; size = 4
_it$ = -40						; size = 4
_bTIME_CHANGED$ = -36					; size = 4
_iMIN_MINUTE$ = -32					; size = 4
_iMIN_HOUR$ = -28					; size = 4
_sysTime$ = -24						; size = 16
_this$ = -8						; size = 4
__$ArrayPad$ = -4					; size = 4
?CheckSync@CCastleDeepEvent@@QAEXXZ PROC		; CCastleDeepEvent::CheckSync
; _this$ = ecx

; 273  : {

  00d30	55		 push	 ebp
  00d31	8b ec		 mov	 ebp, esp
  00d33	81 ec 8c 00 00
	00		 sub	 esp, 140		; 0000008cH
  00d39	a1 00 00 00 00	 mov	 eax, DWORD PTR ___security_cookie
  00d3e	33 c5		 xor	 eax, ebp
  00d40	89 45 fc	 mov	 DWORD PTR __$ArrayPad$[ebp], eax
  00d43	53		 push	 ebx
  00d44	56		 push	 esi
  00d45	57		 push	 edi
  00d46	89 4d f8	 mov	 DWORD PTR _this$[ebp], ecx

; 274  : 	if (this->m_vtEventTime.empty())

  00d49	8b 4d f8	 mov	 ecx, DWORD PTR _this$[ebp]
  00d4c	83 c1 50	 add	 ecx, 80			; 00000050H
  00d4f	e8 00 00 00 00	 call	 ?empty@?$vector@UCASTLEDEEP_EVENTTIME@@V?$allocator@UCASTLEDEEP_EVENTTIME@@@std@@@std@@QBE_NXZ ; std::vector<CASTLEDEEP_EVENTTIME,std::allocator<CASTLEDEEP_EVENTTIME> >::empty
  00d54	0f b6 c0	 movzx	 eax, al
  00d57	85 c0		 test	 eax, eax
  00d59	74 1f		 je	 SHORT $LN16@CheckSync

; 275  : 	{
; 276  : 		LogAddC(2,"[CastleDeep Event] No Schedule Time Data");

  00d5b	68 00 00 00 00	 push	 OFFSET ??_C@_0CJ@IPPMNGNJ@?$FLCastleDeep?5Event?$FN?5No?5Schedule?5T@
  00d60	6a 02		 push	 2
  00d62	ff 15 00 00 00
	00		 call	 DWORD PTR ?LogAddC@@3P6AXEPADZZA ; LogAddC
  00d68	83 c4 08	 add	 esp, 8

; 277  : 		this->SetState(CD_STATE_NONE);

  00d6b	6a 00		 push	 0
  00d6d	8b 4d f8	 mov	 ecx, DWORD PTR _this$[ebp]
  00d70	e8 00 00 00 00	 call	 ?SetState@CCastleDeepEvent@@QAEXH@Z ; CCastleDeepEvent::SetState

; 278  : 		return;

  00d75	e9 80 02 00 00	 jmp	 $LN17@CheckSync
$LN16@CheckSync:

; 279  : 	}
; 280  : 
; 281  : 	_SYSTEMTIME sysTime;
; 282  : 	GetLocalTime(&sysTime);

  00d7a	8d 45 e8	 lea	 eax, DWORD PTR _sysTime$[ebp]
  00d7d	50		 push	 eax
  00d7e	ff 15 00 00 00
	00		 call	 DWORD PTR __imp__GetLocalTime@4

; 283  : 
; 284  : 	int iMIN_HOUR = 24;

  00d84	c7 45 e4 18 00
	00 00		 mov	 DWORD PTR _iMIN_HOUR$[ebp], 24 ; 00000018H

; 285  : 	int iMIN_MINUTE = 60;

  00d8b	c7 45 e0 3c 00
	00 00		 mov	 DWORD PTR _iMIN_MINUTE$[ebp], 60 ; 0000003cH

; 286  : 	int bTIME_CHANGED = 0;

  00d92	c7 45 dc 00 00
	00 00		 mov	 DWORD PTR _bTIME_CHANGED$[ebp], 0

; 287  : 
; 288  : 	std::vector<CASTLEDEEP_EVENTTIME>::iterator it;

  00d99	8d 4d d8	 lea	 ecx, DWORD PTR _it$[ebp]
  00d9c	e8 00 00 00 00	 call	 ??0?$_Vector_iterator@V?$_Vector_val@UCASTLEDEEP_EVENTTIME@@V?$allocator@UCASTLEDEEP_EVENTTIME@@@std@@@std@@@std@@QAE@XZ ; std::_Vector_iterator<std::_Vector_val<CASTLEDEEP_EVENTTIME,std::allocator<CASTLEDEEP_EVENTTIME> > >::_Vector_iterator<std::_Vector_val<CASTLEDEEP_EVENTTIME,std::allocator<CASTLEDEEP_EVENTTIME> > >

; 289  : 
; 290  : 	for (it = this->m_vtEventTime.begin(); it != this->m_vtEventTime.end();it++)

  00da1	8d 85 78 ff ff
	ff		 lea	 eax, DWORD PTR $T238921[ebp]
  00da7	50		 push	 eax
  00da8	8b 4d f8	 mov	 ecx, DWORD PTR _this$[ebp]
  00dab	83 c1 50	 add	 ecx, 80			; 00000050H
  00dae	e8 00 00 00 00	 call	 ?begin@?$vector@UCASTLEDEEP_EVENTTIME@@V?$allocator@UCASTLEDEEP_EVENTTIME@@@std@@@std@@QAE?AV?$_Vector_iterator@V?$_Vector_val@UCASTLEDEEP_EVENTTIME@@V?$allocator@UCASTLEDEEP_EVENTTIME@@@std@@@std@@@2@XZ ; std::vector<CASTLEDEEP_EVENTTIME,std::allocator<CASTLEDEEP_EVENTTIME> >::begin
  00db3	8b 08		 mov	 ecx, DWORD PTR [eax]
  00db5	89 4d d8	 mov	 DWORD PTR _it$[ebp], ecx
  00db8	eb 11		 jmp	 SHORT $LN15@CheckSync
$LN14@CheckSync:
  00dba	6a 00		 push	 0
  00dbc	8d 85 7c ff ff
	ff		 lea	 eax, DWORD PTR $T238922[ebp]
  00dc2	50		 push	 eax
  00dc3	8d 4d d8	 lea	 ecx, DWORD PTR _it$[ebp]
  00dc6	e8 00 00 00 00	 call	 ??E?$_Vector_iterator@V?$_Vector_val@UCASTLEDEEP_EVENTTIME@@V?$allocator@UCASTLEDEEP_EVENTTIME@@@std@@@std@@@std@@QAE?AV01@H@Z ; std::_Vector_iterator<std::_Vector_val<CASTLEDEEP_EVENTTIME,std::allocator<CASTLEDEEP_EVENTTIME> > >::operator++
$LN15@CheckSync:
  00dcb	8d 45 80	 lea	 eax, DWORD PTR $T238923[ebp]
  00dce	50		 push	 eax
  00dcf	8b 4d f8	 mov	 ecx, DWORD PTR _this$[ebp]
  00dd2	83 c1 50	 add	 ecx, 80			; 00000050H
  00dd5	e8 00 00 00 00	 call	 ?end@?$vector@UCASTLEDEEP_EVENTTIME@@V?$allocator@UCASTLEDEEP_EVENTTIME@@@std@@@std@@QAE?AV?$_Vector_iterator@V?$_Vector_val@UCASTLEDEEP_EVENTTIME@@V?$allocator@UCASTLEDEEP_EVENTTIME@@@std@@@std@@@2@XZ ; std::vector<CASTLEDEEP_EVENTTIME,std::allocator<CASTLEDEEP_EVENTTIME> >::end
  00dda	50		 push	 eax
  00ddb	8d 4d d8	 lea	 ecx, DWORD PTR _it$[ebp]
  00dde	e8 00 00 00 00	 call	 ??9?$_Vector_const_iterator@V?$_Vector_val@UCASTLEDEEP_EVENTTIME@@V?$allocator@UCASTLEDEEP_EVENTTIME@@@std@@@std@@@std@@QBE_NABV01@@Z ; std::_Vector_const_iterator<std::_Vector_val<CASTLEDEEP_EVENTTIME,std::allocator<CASTLEDEEP_EVENTTIME> > >::operator!=
  00de3	0f b6 c8	 movzx	 ecx, al
  00de6	85 c9		 test	 ecx, ecx
  00de8	74 7b		 je	 SHORT $LN13@CheckSync

; 291  : 	{
; 292  : 		std::vector<CASTLEDEEP_EVENTTIME>::iterator pRET = it;

  00dea	8b 45 d8	 mov	 eax, DWORD PTR _it$[ebp]
  00ded	89 45 d4	 mov	 DWORD PTR _pRET$232969[ebp], eax

; 293  : 
; 294  : 		if ((sysTime.wHour * 60 + sysTime.wMinute) < (pRET->m_iHour * 60 + pRET->m_iMinute))

  00df0	0f b7 75 f0	 movzx	 esi, WORD PTR _sysTime$[ebp+8]
  00df4	6b f6 3c	 imul	 esi, 60			; 0000003cH
  00df7	0f b7 45 f2	 movzx	 eax, WORD PTR _sysTime$[ebp+10]
  00dfb	03 f0		 add	 esi, eax
  00dfd	8d 4d d4	 lea	 ecx, DWORD PTR _pRET$232969[ebp]
  00e00	e8 00 00 00 00	 call	 ??C?$_Vector_iterator@V?$_Vector_val@UCASTLEDEEP_EVENTTIME@@V?$allocator@UCASTLEDEEP_EVENTTIME@@@std@@@std@@@std@@QBEPAUCASTLEDEEP_EVENTTIME@@XZ ; std::_Vector_iterator<std::_Vector_val<CASTLEDEEP_EVENTTIME,std::allocator<CASTLEDEEP_EVENTTIME> > >::operator->
  00e05	8b 38		 mov	 edi, DWORD PTR [eax]
  00e07	6b ff 3c	 imul	 edi, 60			; 0000003cH
  00e0a	8d 4d d4	 lea	 ecx, DWORD PTR _pRET$232969[ebp]
  00e0d	e8 00 00 00 00	 call	 ??C?$_Vector_iterator@V?$_Vector_val@UCASTLEDEEP_EVENTTIME@@V?$allocator@UCASTLEDEEP_EVENTTIME@@@std@@@std@@@std@@QBEPAUCASTLEDEEP_EVENTTIME@@XZ ; std::_Vector_iterator<std::_Vector_val<CASTLEDEEP_EVENTTIME,std::allocator<CASTLEDEEP_EVENTTIME> > >::operator->
  00e12	03 78 04	 add	 edi, DWORD PTR [eax+4]
  00e15	3b f7		 cmp	 esi, edi
  00e17	7d 47		 jge	 SHORT $LN12@CheckSync

; 295  : 		{
; 296  : 			if ((iMIN_HOUR * 60 + iMIN_MINUTE) > (pRET->m_iHour * 60 + pRET->m_iMinute))

  00e19	8b 75 e4	 mov	 esi, DWORD PTR _iMIN_HOUR$[ebp]
  00e1c	6b f6 3c	 imul	 esi, 60			; 0000003cH
  00e1f	03 75 e0	 add	 esi, DWORD PTR _iMIN_MINUTE$[ebp]
  00e22	8d 4d d4	 lea	 ecx, DWORD PTR _pRET$232969[ebp]
  00e25	e8 00 00 00 00	 call	 ??C?$_Vector_iterator@V?$_Vector_val@UCASTLEDEEP_EVENTTIME@@V?$allocator@UCASTLEDEEP_EVENTTIME@@@std@@@std@@@std@@QBEPAUCASTLEDEEP_EVENTTIME@@XZ ; std::_Vector_iterator<std::_Vector_val<CASTLEDEEP_EVENTTIME,std::allocator<CASTLEDEEP_EVENTTIME> > >::operator->
  00e2a	8b 38		 mov	 edi, DWORD PTR [eax]
  00e2c	6b ff 3c	 imul	 edi, 60			; 0000003cH
  00e2f	8d 4d d4	 lea	 ecx, DWORD PTR _pRET$232969[ebp]
  00e32	e8 00 00 00 00	 call	 ??C?$_Vector_iterator@V?$_Vector_val@UCASTLEDEEP_EVENTTIME@@V?$allocator@UCASTLEDEEP_EVENTTIME@@@std@@@std@@@std@@QBEPAUCASTLEDEEP_EVENTTIME@@XZ ; std::_Vector_iterator<std::_Vector_val<CASTLEDEEP_EVENTTIME,std::allocator<CASTLEDEEP_EVENTTIME> > >::operator->
  00e37	03 78 04	 add	 edi, DWORD PTR [eax+4]
  00e3a	3b f7		 cmp	 esi, edi
  00e3c	7e 22		 jle	 SHORT $LN12@CheckSync

; 297  : 			{
; 298  : 				bTIME_CHANGED = 1;

  00e3e	c7 45 dc 01 00
	00 00		 mov	 DWORD PTR _bTIME_CHANGED$[ebp], 1

; 299  : 				iMIN_HOUR = pRET->m_iHour;

  00e45	8d 4d d4	 lea	 ecx, DWORD PTR _pRET$232969[ebp]
  00e48	e8 00 00 00 00	 call	 ??C?$_Vector_iterator@V?$_Vector_val@UCASTLEDEEP_EVENTTIME@@V?$allocator@UCASTLEDEEP_EVENTTIME@@@std@@@std@@@std@@QBEPAUCASTLEDEEP_EVENTTIME@@XZ ; std::_Vector_iterator<std::_Vector_val<CASTLEDEEP_EVENTTIME,std::allocator<CASTLEDEEP_EVENTTIME> > >::operator->
  00e4d	8b 00		 mov	 eax, DWORD PTR [eax]
  00e4f	89 45 e4	 mov	 DWORD PTR _iMIN_HOUR$[ebp], eax

; 300  : 				iMIN_MINUTE = pRET->m_iMinute;

  00e52	8d 4d d4	 lea	 ecx, DWORD PTR _pRET$232969[ebp]
  00e55	e8 00 00 00 00	 call	 ??C?$_Vector_iterator@V?$_Vector_val@UCASTLEDEEP_EVENTTIME@@V?$allocator@UCASTLEDEEP_EVENTTIME@@@std@@@std@@@std@@QBEPAUCASTLEDEEP_EVENTTIME@@XZ ; std::_Vector_iterator<std::_Vector_val<CASTLEDEEP_EVENTTIME,std::allocator<CASTLEDEEP_EVENTTIME> > >::operator->
  00e5a	8b 40 04	 mov	 eax, DWORD PTR [eax+4]
  00e5d	89 45 e0	 mov	 DWORD PTR _iMIN_MINUTE$[ebp], eax
$LN12@CheckSync:

; 301  : 			}
; 302  : 		}
; 303  : 	}

  00e60	e9 55 ff ff ff	 jmp	 $LN14@CheckSync
$LN13@CheckSync:

; 304  : 
; 305  : 	if (bTIME_CHANGED == 0)

  00e65	83 7d dc 00	 cmp	 DWORD PTR _bTIME_CHANGED$[ebp], 0
  00e69	0f 85 a0 00 00
	00		 jne	 $LN10@CheckSync

; 306  : 	{
; 307  : 		for (it = this->m_vtEventTime.begin(),iMIN_HOUR = 24,iMIN_MINUTE = 60; it != this->m_vtEventTime.end();it++)

  00e6f	8d 45 84	 lea	 eax, DWORD PTR $T238924[ebp]
  00e72	50		 push	 eax
  00e73	8b 4d f8	 mov	 ecx, DWORD PTR _this$[ebp]
  00e76	83 c1 50	 add	 ecx, 80			; 00000050H
  00e79	e8 00 00 00 00	 call	 ?begin@?$vector@UCASTLEDEEP_EVENTTIME@@V?$allocator@UCASTLEDEEP_EVENTTIME@@@std@@@std@@QAE?AV?$_Vector_iterator@V?$_Vector_val@UCASTLEDEEP_EVENTTIME@@V?$allocator@UCASTLEDEEP_EVENTTIME@@@std@@@std@@@2@XZ ; std::vector<CASTLEDEEP_EVENTTIME,std::allocator<CASTLEDEEP_EVENTTIME> >::begin
  00e7e	8b 08		 mov	 ecx, DWORD PTR [eax]
  00e80	89 4d d8	 mov	 DWORD PTR _it$[ebp], ecx
  00e83	c7 45 e4 18 00
	00 00		 mov	 DWORD PTR _iMIN_HOUR$[ebp], 24 ; 00000018H
  00e8a	c7 45 e0 3c 00
	00 00		 mov	 DWORD PTR _iMIN_MINUTE$[ebp], 60 ; 0000003cH
  00e91	eb 0e		 jmp	 SHORT $LN9@CheckSync
$LN8@CheckSync:
  00e93	6a 00		 push	 0
  00e95	8d 45 88	 lea	 eax, DWORD PTR $T238925[ebp]
  00e98	50		 push	 eax
  00e99	8d 4d d8	 lea	 ecx, DWORD PTR _it$[ebp]
  00e9c	e8 00 00 00 00	 call	 ??E?$_Vector_iterator@V?$_Vector_val@UCASTLEDEEP_EVENTTIME@@V?$allocator@UCASTLEDEEP_EVENTTIME@@@std@@@std@@@std@@QAE?AV01@H@Z ; std::_Vector_iterator<std::_Vector_val<CASTLEDEEP_EVENTTIME,std::allocator<CASTLEDEEP_EVENTTIME> > >::operator++
$LN9@CheckSync:
  00ea1	8d 45 8c	 lea	 eax, DWORD PTR $T238926[ebp]
  00ea4	50		 push	 eax
  00ea5	8b 4d f8	 mov	 ecx, DWORD PTR _this$[ebp]
  00ea8	83 c1 50	 add	 ecx, 80			; 00000050H
  00eab	e8 00 00 00 00	 call	 ?end@?$vector@UCASTLEDEEP_EVENTTIME@@V?$allocator@UCASTLEDEEP_EVENTTIME@@@std@@@std@@QAE?AV?$_Vector_iterator@V?$_Vector_val@UCASTLEDEEP_EVENTTIME@@V?$allocator@UCASTLEDEEP_EVENTTIME@@@std@@@std@@@2@XZ ; std::vector<CASTLEDEEP_EVENTTIME,std::allocator<CASTLEDEEP_EVENTTIME> >::end
  00eb0	50		 push	 eax
  00eb1	8d 4d d8	 lea	 ecx, DWORD PTR _it$[ebp]
  00eb4	e8 00 00 00 00	 call	 ??9?$_Vector_const_iterator@V?$_Vector_val@UCASTLEDEEP_EVENTTIME@@V?$allocator@UCASTLEDEEP_EVENTTIME@@@std@@@std@@@std@@QBE_NABV01@@Z ; std::_Vector_const_iterator<std::_Vector_val<CASTLEDEEP_EVENTTIME,std::allocator<CASTLEDEEP_EVENTTIME> > >::operator!=
  00eb9	0f b6 c8	 movzx	 ecx, al
  00ebc	85 c9		 test	 ecx, ecx
  00ebe	74 4f		 je	 SHORT $LN10@CheckSync

; 308  : 		{
; 309  : 			std::vector<CASTLEDEEP_EVENTTIME>::iterator pRET = it;

  00ec0	8b 45 d8	 mov	 eax, DWORD PTR _it$[ebp]
  00ec3	89 45 d0	 mov	 DWORD PTR _pRET$232983[ebp], eax

; 310  : 
; 311  : 			if ( (iMIN_HOUR * 60 + iMIN_MINUTE) > (pRET->m_iHour * 60 + pRET->m_iMinute) )

  00ec6	8b 75 e4	 mov	 esi, DWORD PTR _iMIN_HOUR$[ebp]
  00ec9	6b f6 3c	 imul	 esi, 60			; 0000003cH
  00ecc	03 75 e0	 add	 esi, DWORD PTR _iMIN_MINUTE$[ebp]
  00ecf	8d 4d d0	 lea	 ecx, DWORD PTR _pRET$232983[ebp]
  00ed2	e8 00 00 00 00	 call	 ??C?$_Vector_iterator@V?$_Vector_val@UCASTLEDEEP_EVENTTIME@@V?$allocator@UCASTLEDEEP_EVENTTIME@@@std@@@std@@@std@@QBEPAUCASTLEDEEP_EVENTTIME@@XZ ; std::_Vector_iterator<std::_Vector_val<CASTLEDEEP_EVENTTIME,std::allocator<CASTLEDEEP_EVENTTIME> > >::operator->
  00ed7	8b 38		 mov	 edi, DWORD PTR [eax]
  00ed9	6b ff 3c	 imul	 edi, 60			; 0000003cH
  00edc	8d 4d d0	 lea	 ecx, DWORD PTR _pRET$232983[ebp]
  00edf	e8 00 00 00 00	 call	 ??C?$_Vector_iterator@V?$_Vector_val@UCASTLEDEEP_EVENTTIME@@V?$allocator@UCASTLEDEEP_EVENTTIME@@@std@@@std@@@std@@QBEPAUCASTLEDEEP_EVENTTIME@@XZ ; std::_Vector_iterator<std::_Vector_val<CASTLEDEEP_EVENTTIME,std::allocator<CASTLEDEEP_EVENTTIME> > >::operator->
  00ee4	03 78 04	 add	 edi, DWORD PTR [eax+4]
  00ee7	3b f7		 cmp	 esi, edi
  00ee9	7e 22		 jle	 SHORT $LN6@CheckSync

; 312  : 			{
; 313  : 				bTIME_CHANGED = 2;

  00eeb	c7 45 dc 02 00
	00 00		 mov	 DWORD PTR _bTIME_CHANGED$[ebp], 2

; 314  : 				iMIN_HOUR = pRET->m_iHour;

  00ef2	8d 4d d0	 lea	 ecx, DWORD PTR _pRET$232983[ebp]
  00ef5	e8 00 00 00 00	 call	 ??C?$_Vector_iterator@V?$_Vector_val@UCASTLEDEEP_EVENTTIME@@V?$allocator@UCASTLEDEEP_EVENTTIME@@@std@@@std@@@std@@QBEPAUCASTLEDEEP_EVENTTIME@@XZ ; std::_Vector_iterator<std::_Vector_val<CASTLEDEEP_EVENTTIME,std::allocator<CASTLEDEEP_EVENTTIME> > >::operator->
  00efa	8b 00		 mov	 eax, DWORD PTR [eax]
  00efc	89 45 e4	 mov	 DWORD PTR _iMIN_HOUR$[ebp], eax

; 315  : 				iMIN_MINUTE = pRET->m_iMinute;

  00eff	8d 4d d0	 lea	 ecx, DWORD PTR _pRET$232983[ebp]
  00f02	e8 00 00 00 00	 call	 ??C?$_Vector_iterator@V?$_Vector_val@UCASTLEDEEP_EVENTTIME@@V?$allocator@UCASTLEDEEP_EVENTTIME@@@std@@@std@@@std@@QBEPAUCASTLEDEEP_EVENTTIME@@XZ ; std::_Vector_iterator<std::_Vector_val<CASTLEDEEP_EVENTTIME,std::allocator<CASTLEDEEP_EVENTTIME> > >::operator->
  00f07	8b 40 04	 mov	 eax, DWORD PTR [eax+4]
  00f0a	89 45 e0	 mov	 DWORD PTR _iMIN_MINUTE$[ebp], eax
$LN6@CheckSync:

; 316  : 			}
; 317  : 		}

  00f0d	eb 84		 jmp	 SHORT $LN8@CheckSync
$LN10@CheckSync:

; 318  : 	}
; 319  : 
; 320  : 	switch(bTIME_CHANGED)

  00f0f	8b 45 dc	 mov	 eax, DWORD PTR _bTIME_CHANGED$[ebp]
  00f12	89 85 74 ff ff
	ff		 mov	 DWORD PTR tv200[ebp], eax
  00f18	83 bd 74 ff ff
	ff 01		 cmp	 DWORD PTR tv200[ebp], 1
  00f1f	74 0b		 je	 SHORT $LN3@CheckSync
  00f21	83 bd 74 ff ff
	ff 02		 cmp	 DWORD PTR tv200[ebp], 2
  00f28	74 3c		 je	 SHORT $LN2@CheckSync
  00f2a	eb 77		 jmp	 SHORT $LN1@CheckSync
$LN3@CheckSync:

; 321  : 	{
; 322  : 	case 1:
; 323  : 		this->m_iTIME_MSEC_REMAIN = ( ( (iMIN_HOUR * 60) * 60 + iMIN_MINUTE * 60 ) - ( (sysTime.wHour * 60) * 60 + sysTime.wMinute * 60 + sysTime.wSecond) ) * 1000;

  00f2c	8b 45 e4	 mov	 eax, DWORD PTR _iMIN_HOUR$[ebp]
  00f2f	6b c0 3c	 imul	 eax, 60			; 0000003cH
  00f32	6b c0 3c	 imul	 eax, 60			; 0000003cH
  00f35	8b 4d e0	 mov	 ecx, DWORD PTR _iMIN_MINUTE$[ebp]
  00f38	6b c9 3c	 imul	 ecx, 60			; 0000003cH
  00f3b	03 c1		 add	 eax, ecx
  00f3d	0f b7 55 f0	 movzx	 edx, WORD PTR _sysTime$[ebp+8]
  00f41	6b d2 3c	 imul	 edx, 60			; 0000003cH
  00f44	6b d2 3c	 imul	 edx, 60			; 0000003cH
  00f47	0f b7 4d f2	 movzx	 ecx, WORD PTR _sysTime$[ebp+10]
  00f4b	6b c9 3c	 imul	 ecx, 60			; 0000003cH
  00f4e	03 d1		 add	 edx, ecx
  00f50	0f b7 4d f4	 movzx	 ecx, WORD PTR _sysTime$[ebp+12]
  00f54	03 d1		 add	 edx, ecx
  00f56	2b c2		 sub	 eax, edx
  00f58	69 c0 e8 03 00
	00		 imul	 eax, 1000		; 000003e8H
  00f5e	8b 55 f8	 mov	 edx, DWORD PTR _this$[ebp]
  00f61	89 42 14	 mov	 DWORD PTR [edx+20], eax

; 324  : 		break;

  00f64	eb 59		 jmp	 SHORT $LN4@CheckSync
$LN2@CheckSync:

; 325  : 	case 2:
; 326  : 		this->m_iTIME_MSEC_REMAIN = ( ( ((iMIN_HOUR + 24) * 60) * 60 + iMIN_MINUTE * 60 ) - ( (sysTime.wHour * 60) * 60 + sysTime.wMinute * 60 + sysTime.wSecond ) ) * 1000;

  00f66	8b 45 e4	 mov	 eax, DWORD PTR _iMIN_HOUR$[ebp]
  00f69	83 c0 18	 add	 eax, 24			; 00000018H
  00f6c	6b c0 3c	 imul	 eax, 60			; 0000003cH
  00f6f	6b c0 3c	 imul	 eax, 60			; 0000003cH
  00f72	8b 4d e0	 mov	 ecx, DWORD PTR _iMIN_MINUTE$[ebp]
  00f75	6b c9 3c	 imul	 ecx, 60			; 0000003cH
  00f78	03 c1		 add	 eax, ecx
  00f7a	0f b7 55 f0	 movzx	 edx, WORD PTR _sysTime$[ebp+8]
  00f7e	6b d2 3c	 imul	 edx, 60			; 0000003cH
  00f81	6b d2 3c	 imul	 edx, 60			; 0000003cH
  00f84	0f b7 4d f2	 movzx	 ecx, WORD PTR _sysTime$[ebp+10]
  00f88	6b c9 3c	 imul	 ecx, 60			; 0000003cH
  00f8b	03 d1		 add	 edx, ecx
  00f8d	0f b7 4d f4	 movzx	 ecx, WORD PTR _sysTime$[ebp+12]
  00f91	03 d1		 add	 edx, ecx
  00f93	2b c2		 sub	 eax, edx
  00f95	69 c0 e8 03 00
	00		 imul	 eax, 1000		; 000003e8H
  00f9b	8b 55 f8	 mov	 edx, DWORD PTR _this$[ebp]
  00f9e	89 42 14	 mov	 DWORD PTR [edx+20], eax

; 327  : 		break;

  00fa1	eb 1c		 jmp	 SHORT $LN4@CheckSync
$LN1@CheckSync:

; 328  : 	default:
; 329  : 		LogAddC(2,"[CastleDeep Event] No Schedule Time Data");

  00fa3	68 00 00 00 00	 push	 OFFSET ??_C@_0CJ@IPPMNGNJ@?$FLCastleDeep?5Event?$FN?5No?5Schedule?5T@
  00fa8	6a 02		 push	 2
  00faa	ff 15 00 00 00
	00		 call	 DWORD PTR ?LogAddC@@3P6AXEPADZZA ; LogAddC
  00fb0	83 c4 08	 add	 esp, 8

; 330  : 		this->SetState(CD_STATE_NONE);

  00fb3	6a 00		 push	 0
  00fb5	8b 4d f8	 mov	 ecx, DWORD PTR _this$[ebp]
  00fb8	e8 00 00 00 00	 call	 ?SetState@CCastleDeepEvent@@QAEXH@Z ; CCastleDeepEvent::SetState

; 331  : 		return;

  00fbd	eb 3b		 jmp	 SHORT $LN17@CheckSync
$LN4@CheckSync:

; 332  : 	}
; 333  : 
; 334  : 	this->m_iTIME_TICK_COUNT = GetTickCount();

  00fbf	ff 15 00 00 00
	00		 call	 DWORD PTR __imp__GetTickCount@0
  00fc5	8b 4d f8	 mov	 ecx, DWORD PTR _this$[ebp]
  00fc8	89 41 1c	 mov	 DWORD PTR [ecx+28], eax

; 335  : 	LogAddTD("[CastleDeep Event] Sync Start Time. [%d] min remain (START HOUR:%d, MIN:%d)",
; 336  : 		this->m_iTIME_MSEC_REMAIN / 60000,iMIN_HOUR,iMIN_MINUTE);

  00fcb	8b 45 e0	 mov	 eax, DWORD PTR _iMIN_MINUTE$[ebp]
  00fce	50		 push	 eax
  00fcf	8b 4d e4	 mov	 ecx, DWORD PTR _iMIN_HOUR$[ebp]
  00fd2	51		 push	 ecx
  00fd3	8b 55 f8	 mov	 edx, DWORD PTR _this$[ebp]
  00fd6	8b 42 14	 mov	 eax, DWORD PTR [edx+20]
  00fd9	99		 cdq
  00fda	b9 60 ea 00 00	 mov	 ecx, 60000		; 0000ea60H
  00fdf	f7 f9		 idiv	 ecx
  00fe1	50		 push	 eax
  00fe2	68 00 00 00 00	 push	 OFFSET ??_C@_0EM@HOLJDKOB@?$FLCastleDeep?5Event?$FN?5Sync?5Start?5Ti@
  00fe7	ff 15 00 00 00
	00		 call	 DWORD PTR ?LogAddTD@@3P6AXPADZZA ; LogAddTD
  00fed	83 c4 10	 add	 esp, 16			; 00000010H

; 337  : 	this->m_iTIME_NOTIFY_COUNT = 5;

  00ff0	8b 45 f8	 mov	 eax, DWORD PTR _this$[ebp]
  00ff3	c7 40 20 05 00
	00 00		 mov	 DWORD PTR [eax+32], 5
$LN17@CheckSync:

; 338  : }

  00ffa	5f		 pop	 edi
  00ffb	5e		 pop	 esi
  00ffc	5b		 pop	 ebx
  00ffd	8b 4d fc	 mov	 ecx, DWORD PTR __$ArrayPad$[ebp]
  01000	33 cd		 xor	 ecx, ebp
  01002	e8 00 00 00 00	 call	 @__security_check_cookie@4
  01007	8b e5		 mov	 esp, ebp
  01009	5d		 pop	 ebp
  0100a	c3		 ret	 0
?CheckSync@CCastleDeepEvent@@QAEXXZ ENDP		; CCastleDeepEvent::CheckSync
_TEXT	ENDS
PUBLIC	?SetState_Playing@CCastleDeepEvent@@QAEXXZ	; CCastleDeepEvent::SetState_Playing
PUBLIC	?SetState_Closed@CCastleDeepEvent@@QAEXXZ	; CCastleDeepEvent::SetState_Closed
PUBLIC	?SetState_None@CCastleDeepEvent@@QAEXXZ		; CCastleDeepEvent::SetState_None
; Function compile flags: /Odtp /ZI
_TEXT	SEGMENT
tv70 = -72						; size = 4
_this$ = -4						; size = 4
_iSTATE$ = 8						; size = 4
?SetState@CCastleDeepEvent@@QAEXH@Z PROC		; CCastleDeepEvent::SetState
; _this$ = ecx

; 341  : {

  01010	55		 push	 ebp
  01011	8b ec		 mov	 ebp, esp
  01013	83 ec 48	 sub	 esp, 72			; 00000048H
  01016	53		 push	 ebx
  01017	56		 push	 esi
  01018	57		 push	 edi
  01019	89 4d fc	 mov	 DWORD PTR _this$[ebp], ecx

; 342  : 	if (m_iEVENT_STATE < 0 || m_iEVENT_STATE > 2)

  0101c	8b 45 fc	 mov	 eax, DWORD PTR _this$[ebp]
  0101f	83 78 24 00	 cmp	 DWORD PTR [eax+36], 0
  01023	7c 09		 jl	 SHORT $LN6@SetState
  01025	8b 45 fc	 mov	 eax, DWORD PTR _this$[ebp]
  01028	83 78 24 02	 cmp	 DWORD PTR [eax+36], 2
  0102c	7e 02		 jle	 SHORT $LN7@SetState
$LN6@SetState:

; 343  : 		return;

  0102e	eb 42		 jmp	 SHORT $LN8@SetState
$LN7@SetState:

; 344  : 
; 345  : 	m_iEVENT_STATE = iSTATE;

  01030	8b 45 fc	 mov	 eax, DWORD PTR _this$[ebp]
  01033	8b 4d 08	 mov	 ecx, DWORD PTR _iSTATE$[ebp]
  01036	89 48 24	 mov	 DWORD PTR [eax+36], ecx

; 346  : 
; 347  : 	switch(m_iEVENT_STATE)

  01039	8b 45 fc	 mov	 eax, DWORD PTR _this$[ebp]
  0103c	8b 48 24	 mov	 ecx, DWORD PTR [eax+36]
  0103f	89 4d b8	 mov	 DWORD PTR tv70[ebp], ecx
  01042	83 7d b8 00	 cmp	 DWORD PTR tv70[ebp], 0
  01046	74 0e		 je	 SHORT $LN3@SetState
  01048	83 7d b8 01	 cmp	 DWORD PTR tv70[ebp], 1
  0104c	74 12		 je	 SHORT $LN2@SetState
  0104e	83 7d b8 02	 cmp	 DWORD PTR tv70[ebp], 2
  01052	74 16		 je	 SHORT $LN1@SetState
  01054	eb 1c		 jmp	 SHORT $LN8@SetState
$LN3@SetState:

; 348  : 	{
; 349  : 		case 0: SetState_None(); break;

  01056	8b 4d fc	 mov	 ecx, DWORD PTR _this$[ebp]
  01059	e8 00 00 00 00	 call	 ?SetState_None@CCastleDeepEvent@@QAEXXZ ; CCastleDeepEvent::SetState_None
  0105e	eb 12		 jmp	 SHORT $LN8@SetState
$LN2@SetState:

; 350  : 		case 1: SetState_Closed(); break;

  01060	8b 4d fc	 mov	 ecx, DWORD PTR _this$[ebp]
  01063	e8 00 00 00 00	 call	 ?SetState_Closed@CCastleDeepEvent@@QAEXXZ ; CCastleDeepEvent::SetState_Closed
  01068	eb 08		 jmp	 SHORT $LN8@SetState
$LN1@SetState:

; 351  : 		case 2: SetState_Playing(); break;

  0106a	8b 4d fc	 mov	 ecx, DWORD PTR _this$[ebp]
  0106d	e8 00 00 00 00	 call	 ?SetState_Playing@CCastleDeepEvent@@QAEXXZ ; CCastleDeepEvent::SetState_Playing
$LN8@SetState:

; 352  : 	}
; 353  : }

  01072	5f		 pop	 edi
  01073	5e		 pop	 esi
  01074	5b		 pop	 ebx
  01075	8b e5		 mov	 esp, ebp
  01077	5d		 pop	 ebp
  01078	c2 04 00	 ret	 4
?SetState@CCastleDeepEvent@@QAEXH@Z ENDP		; CCastleDeepEvent::SetState
; Function compile flags: /Odtp /ZI
_this$ = -4						; size = 4
?SetState_None@CCastleDeepEvent@@QAEXXZ PROC		; CCastleDeepEvent::SetState_None
; _this$ = ecx

; 356  : {

  01080	55		 push	 ebp
  01081	8b ec		 mov	 ebp, esp
  01083	83 ec 44	 sub	 esp, 68			; 00000044H
  01086	53		 push	 ebx
  01087	56		 push	 esi
  01088	57		 push	 edi
  01089	89 4d fc	 mov	 DWORD PTR _this$[ebp], ecx

; 357  : 	this->StopEvent();

  0108c	8b 4d fc	 mov	 ecx, DWORD PTR _this$[ebp]
  0108f	e8 00 00 00 00	 call	 ?StopEvent@CCastleDeepEvent@@QAEXXZ ; CCastleDeepEvent::StopEvent

; 358  : }

  01094	5f		 pop	 edi
  01095	5e		 pop	 esi
  01096	5b		 pop	 ebx
  01097	8b e5		 mov	 esp, ebp
  01099	5d		 pop	 ebp
  0109a	c3		 ret	 0
?SetState_None@CCastleDeepEvent@@QAEXXZ ENDP		; CCastleDeepEvent::SetState_None
; Function compile flags: /Odtp /ZI
_this$ = -4						; size = 4
?SetState_Closed@CCastleDeepEvent@@QAEXXZ PROC		; CCastleDeepEvent::SetState_Closed
; _this$ = ecx

; 361  : {

  010a0	55		 push	 ebp
  010a1	8b ec		 mov	 ebp, esp
  010a3	83 ec 44	 sub	 esp, 68			; 00000044H
  010a6	53		 push	 ebx
  010a7	56		 push	 esi
  010a8	57		 push	 edi
  010a9	89 4d fc	 mov	 DWORD PTR _this$[ebp], ecx

; 362  : 	StopEvent();

  010ac	8b 4d fc	 mov	 ecx, DWORD PTR _this$[ebp]
  010af	e8 00 00 00 00	 call	 ?StopEvent@CCastleDeepEvent@@QAEXXZ ; CCastleDeepEvent::StopEvent

; 363  : 
; 364  : 	if (m_bDoEvent != 0)

  010b4	8b 45 fc	 mov	 eax, DWORD PTR _this$[ebp]
  010b7	83 78 04 00	 cmp	 DWORD PTR [eax+4], 0
  010bb	74 0a		 je	 SHORT $LN2@SetState_C

; 365  : 	{
; 366  : 		CheckSync();

  010bd	8b 4d fc	 mov	 ecx, DWORD PTR _this$[ebp]
  010c0	e8 00 00 00 00	 call	 ?CheckSync@CCastleDeepEvent@@QAEXXZ ; CCastleDeepEvent::CheckSync

; 367  : 	}
; 368  : 	else

  010c5	eb 0a		 jmp	 SHORT $LN3@SetState_C
$LN2@SetState_C:

; 369  : 	{
; 370  : 		SetState(CD_STATE_NONE);

  010c7	6a 00		 push	 0
  010c9	8b 4d fc	 mov	 ecx, DWORD PTR _this$[ebp]
  010cc	e8 00 00 00 00	 call	 ?SetState@CCastleDeepEvent@@QAEXH@Z ; CCastleDeepEvent::SetState
$LN3@SetState_C:

; 371  : 	}
; 372  : }

  010d1	5f		 pop	 edi
  010d2	5e		 pop	 esi
  010d3	5b		 pop	 ebx
  010d4	8b e5		 mov	 esp, ebp
  010d6	5d		 pop	 ebp
  010d7	c3		 ret	 0
?SetState_Closed@CCastleDeepEvent@@QAEXXZ ENDP		; CCastleDeepEvent::SetState_Closed
_TEXT	ENDS
PUBLIC	?ClearMonster@CCastleDeepEvent@@QAEXXZ		; CCastleDeepEvent::ClearMonster
; Function compile flags: /Odtp /ZI
_TEXT	SEGMENT
_this$ = -4						; size = 4
?SetState_Playing@CCastleDeepEvent@@QAEXXZ PROC		; CCastleDeepEvent::SetState_Playing
; _this$ = ecx

; 375  : {

  010e0	55		 push	 ebp
  010e1	8b ec		 mov	 ebp, esp
  010e3	83 ec 44	 sub	 esp, 68			; 00000044H
  010e6	53		 push	 ebx
  010e7	56		 push	 esi
  010e8	57		 push	 edi
  010e9	89 4d fc	 mov	 DWORD PTR _this$[ebp], ecx

; 376  : 	m_iTIME_MSEC_REMAIN = 0;

  010ec	8b 45 fc	 mov	 eax, DWORD PTR _this$[ebp]
  010ef	c7 40 14 00 00
	00 00		 mov	 DWORD PTR [eax+20], 0

; 377  : 	m_bCheckEnd = 0;

  010f6	8b 45 fc	 mov	 eax, DWORD PTR _this$[ebp]
  010f9	c7 40 0c 00 00
	00 00		 mov	 DWORD PTR [eax+12], 0

; 378  : 	m_uCheckEndTick = 0;

  01100	8b 45 fc	 mov	 eax, DWORD PTR _this$[ebp]
  01103	c7 40 10 00 00
	00 00		 mov	 DWORD PTR [eax+16], 0

; 379  : 
; 380  : 	ClearMonster(); //Fixed

  0110a	8b 4d fc	 mov	 ecx, DWORD PTR _this$[ebp]
  0110d	e8 00 00 00 00	 call	 ?ClearMonster@CCastleDeepEvent@@QAEXXZ ; CCastleDeepEvent::ClearMonster

; 381  : 	StartEvent(); //Fixed 

  01112	8b 4d fc	 mov	 ecx, DWORD PTR _this$[ebp]
  01115	e8 00 00 00 00	 call	 ?StartEvent@CCastleDeepEvent@@QAEXXZ ; CCastleDeepEvent::StartEvent

; 382  : }

  0111a	5f		 pop	 edi
  0111b	5e		 pop	 esi
  0111c	5b		 pop	 ebx
  0111d	8b e5		 mov	 esp, ebp
  0111f	5d		 pop	 ebp
  01120	c3		 ret	 0
?SetState_Playing@CCastleDeepEvent@@QAEXXZ ENDP		; CCastleDeepEvent::SetState_Playing
_TEXT	ENDS
PUBLIC	?ProcState_Playing@CCastleDeepEvent@@QAEXXZ	; CCastleDeepEvent::ProcState_Playing
PUBLIC	?ProcState_Closed@CCastleDeepEvent@@QAEXXZ	; CCastleDeepEvent::ProcState_Closed
PUBLIC	?ProcState_None@CCastleDeepEvent@@QAEXXZ	; CCastleDeepEvent::ProcState_None
PUBLIC	?Run@CCastleDeepEvent@@QAEXXZ			; CCastleDeepEvent::Run
; Function compile flags: /Odtp /ZI
_TEXT	SEGMENT
tv67 = -72						; size = 4
_this$ = -4						; size = 4
?Run@CCastleDeepEvent@@QAEXXZ PROC			; CCastleDeepEvent::Run
; _this$ = ecx

; 385  : {

  01130	55		 push	 ebp
  01131	8b ec		 mov	 ebp, esp
  01133	83 ec 48	 sub	 esp, 72			; 00000048H
  01136	53		 push	 ebx
  01137	56		 push	 esi
  01138	57		 push	 edi
  01139	89 4d fc	 mov	 DWORD PTR _this$[ebp], ecx

; 386  : 	if (m_bDoEvent)

  0113c	8b 45 fc	 mov	 eax, DWORD PTR _this$[ebp]
  0113f	83 78 04 00	 cmp	 DWORD PTR [eax+4], 0
  01143	74 39		 je	 SHORT $LN7@Run

; 387  : 	{
; 388  : 		switch(m_iEVENT_STATE)

  01145	8b 45 fc	 mov	 eax, DWORD PTR _this$[ebp]
  01148	8b 48 24	 mov	 ecx, DWORD PTR [eax+36]
  0114b	89 4d b8	 mov	 DWORD PTR tv67[ebp], ecx
  0114e	83 7d b8 00	 cmp	 DWORD PTR tv67[ebp], 0
  01152	74 0e		 je	 SHORT $LN3@Run
  01154	83 7d b8 01	 cmp	 DWORD PTR tv67[ebp], 1
  01158	74 12		 je	 SHORT $LN2@Run
  0115a	83 7d b8 02	 cmp	 DWORD PTR tv67[ebp], 2
  0115e	74 16		 je	 SHORT $LN1@Run
  01160	eb 1c		 jmp	 SHORT $LN7@Run
$LN3@Run:

; 389  : 		{
; 390  : 			case 0: ProcState_None(); break;

  01162	8b 4d fc	 mov	 ecx, DWORD PTR _this$[ebp]
  01165	e8 00 00 00 00	 call	 ?ProcState_None@CCastleDeepEvent@@QAEXXZ ; CCastleDeepEvent::ProcState_None
  0116a	eb 12		 jmp	 SHORT $LN7@Run
$LN2@Run:

; 391  : 			case 1: ProcState_Closed(); break;

  0116c	8b 4d fc	 mov	 ecx, DWORD PTR _this$[ebp]
  0116f	e8 00 00 00 00	 call	 ?ProcState_Closed@CCastleDeepEvent@@QAEXXZ ; CCastleDeepEvent::ProcState_Closed
  01174	eb 08		 jmp	 SHORT $LN7@Run
$LN1@Run:

; 392  : 			case 2: ProcState_Playing(); break;

  01176	8b 4d fc	 mov	 ecx, DWORD PTR _this$[ebp]
  01179	e8 00 00 00 00	 call	 ?ProcState_Playing@CCastleDeepEvent@@QAEXXZ ; CCastleDeepEvent::ProcState_Playing
$LN7@Run:

; 393  : 		}
; 394  : 	}
; 395  : }

  0117e	5f		 pop	 edi
  0117f	5e		 pop	 esi
  01180	5b		 pop	 ebx
  01181	8b e5		 mov	 esp, ebp
  01183	5d		 pop	 ebp
  01184	c3		 ret	 0
?Run@CCastleDeepEvent@@QAEXXZ ENDP			; CCastleDeepEvent::Run
; Function compile flags: /Odtp /ZI
; File d:\projects\exteam6.3\source\gameserver\gameserver\castledeepevent.h
_TEXT	ENDS
;	COMDAT ?ProcState_None@CCastleDeepEvent@@QAEXXZ
_TEXT	SEGMENT
_this$ = -4						; size = 4
?ProcState_None@CCastleDeepEvent@@QAEXXZ PROC		; CCastleDeepEvent::ProcState_None, COMDAT
; _this$ = ecx

; 76   : 	void ProcState_None() {};

  00000	55		 push	 ebp
  00001	8b ec		 mov	 ebp, esp
  00003	83 ec 44	 sub	 esp, 68			; 00000044H
  00006	53		 push	 ebx
  00007	56		 push	 esi
  00008	57		 push	 edi
  00009	89 4d fc	 mov	 DWORD PTR _this$[ebp], ecx
  0000c	5f		 pop	 edi
  0000d	5e		 pop	 esi
  0000e	5b		 pop	 ebx
  0000f	8b e5		 mov	 esp, ebp
  00011	5d		 pop	 ebp
  00012	c3		 ret	 0
?ProcState_None@CCastleDeepEvent@@QAEXXZ ENDP		; CCastleDeepEvent::ProcState_None
_TEXT	ENDS
PUBLIC	??_C@_0CD@HCDGCBIA@?$FLCastleDeep?5Event?$FN?5?9?5Event?5Start@ ; `string'
PUBLIC	??_C@_0DD@OCBAHGCE@?$FLCastleDeep?5Event?$FN?5ProcState_Clo@ ; `string'
PUBLIC	__$ArrayPad$
EXTRN	?SendMapServerGroupMsg@CCastleSiege@@QAEXPAD@Z:PROC ; CCastleSiege::SendMapServerGroupMsg
EXTRN	?g_CastleSiege@@3VCCastleSiege@@A:BYTE		; g_CastleSiege
EXTRN	__imp__wsprintfA:PROC
EXTRN	?Get@CMsg@@QAEPADH@Z:PROC			; CMsg::Get
EXTRN	?lMsg@@3VCMsg@@A:BYTE				; lMsg
;	COMDAT ??_C@_0CD@HCDGCBIA@?$FLCastleDeep?5Event?$FN?5?9?5Event?5Start@
; File d:\projects\exteam6.3\source\gameserver\gameserver\castledeepevent.cpp
CONST	SEGMENT
??_C@_0CD@HCDGCBIA@?$FLCastleDeep?5Event?$FN?5?9?5Event?5Start@ DB '[Cast'
	DB	'leDeep Event] - Event Started', 00H		; `string'
CONST	ENDS
;	COMDAT ??_C@_0DD@OCBAHGCE@?$FLCastleDeep?5Event?$FN?5ProcState_Clo@
CONST	SEGMENT
??_C@_0DD@OCBAHGCE@?$FLCastleDeep?5Event?$FN?5ProcState_Clo@ DB '[CastleD'
	DB	'eep Event] ProcState_Closed()', 09H, 'LEFT-MSEC:%d', 00H ; `string'
; Function compile flags: /Odtp /ZI
CONST	ENDS
_TEXT	SEGMENT
_szTemp$233039 = -524					; size = 256
_szTemp$233036 = -268					; size = 256
_iTICK_MSEC$ = -12					; size = 4
_this$ = -8						; size = 4
__$ArrayPad$ = -4					; size = 4
?ProcState_Closed@CCastleDeepEvent@@QAEXXZ PROC		; CCastleDeepEvent::ProcState_Closed
; _this$ = ecx

; 398  : {

  01190	55		 push	 ebp
  01191	8b ec		 mov	 ebp, esp
  01193	81 ec 4c 02 00
	00		 sub	 esp, 588		; 0000024cH
  01199	a1 00 00 00 00	 mov	 eax, DWORD PTR ___security_cookie
  0119e	33 c5		 xor	 eax, ebp
  011a0	89 45 fc	 mov	 DWORD PTR __$ArrayPad$[ebp], eax
  011a3	53		 push	 ebx
  011a4	56		 push	 esi
  011a5	57		 push	 edi
  011a6	89 4d f8	 mov	 DWORD PTR _this$[ebp], ecx

; 399  : 	int iTICK_MSEC = GetTickCount() - m_iTIME_TICK_COUNT;

  011a9	ff 15 00 00 00
	00		 call	 DWORD PTR __imp__GetTickCount@0
  011af	8b 4d f8	 mov	 ecx, DWORD PTR _this$[ebp]
  011b2	2b 41 1c	 sub	 eax, DWORD PTR [ecx+28]
  011b5	89 45 f4	 mov	 DWORD PTR _iTICK_MSEC$[ebp], eax

; 400  : 
; 401  : 	if (iTICK_MSEC >= 1000)

  011b8	81 7d f4 e8 03
	00 00		 cmp	 DWORD PTR _iTICK_MSEC$[ebp], 1000 ; 000003e8H
  011bf	0f 8c b9 00 00
	00		 jl	 $LN7@ProcState_

; 402  : 	{
; 403  : 		m_iTIME_MSEC_REMAIN -= iTICK_MSEC;

  011c5	8b 45 f8	 mov	 eax, DWORD PTR _this$[ebp]
  011c8	8b 48 14	 mov	 ecx, DWORD PTR [eax+20]
  011cb	2b 4d f4	 sub	 ecx, DWORD PTR _iTICK_MSEC$[ebp]
  011ce	8b 55 f8	 mov	 edx, DWORD PTR _this$[ebp]
  011d1	89 4a 14	 mov	 DWORD PTR [edx+20], ecx

; 404  : 		m_iTIME_TICK_COUNT = GetTickCount();

  011d4	ff 15 00 00 00
	00		 call	 DWORD PTR __imp__GetTickCount@0
  011da	8b 4d f8	 mov	 ecx, DWORD PTR _this$[ebp]
  011dd	89 41 1c	 mov	 DWORD PTR [ecx+28], eax

; 405  : 
; 406  : 		if (m_bDoEvent != 0)

  011e0	8b 45 f8	 mov	 eax, DWORD PTR _this$[ebp]
  011e3	83 78 04 00	 cmp	 DWORD PTR [eax+4], 0
  011e7	74 7e		 je	 SHORT $LN6@ProcState_

; 407  : 		{
; 408  : 			if (m_iTIME_MSEC_REMAIN <= 300000
; 409  : 				&& m_iTIME_MSEC_REMAIN > 0
; 410  : 				&& m_iTIME_MSEC_REMAIN / 60000 != m_iTIME_NOTIFY_COUNT)

  011e9	8b 45 f8	 mov	 eax, DWORD PTR _this$[ebp]
  011ec	81 78 14 e0 93
	04 00		 cmp	 DWORD PTR [eax+20], 300000 ; 000493e0H
  011f3	7f 72		 jg	 SHORT $LN6@ProcState_
  011f5	8b 45 f8	 mov	 eax, DWORD PTR _this$[ebp]
  011f8	83 78 14 00	 cmp	 DWORD PTR [eax+20], 0
  011fc	7e 69		 jle	 SHORT $LN6@ProcState_
  011fe	8b 45 f8	 mov	 eax, DWORD PTR _this$[ebp]
  01201	8b 40 14	 mov	 eax, DWORD PTR [eax+20]
  01204	99		 cdq
  01205	b9 60 ea 00 00	 mov	 ecx, 60000		; 0000ea60H
  0120a	f7 f9		 idiv	 ecx
  0120c	8b 55 f8	 mov	 edx, DWORD PTR _this$[ebp]
  0120f	3b 42 20	 cmp	 eax, DWORD PTR [edx+32]
  01212	74 53		 je	 SHORT $LN6@ProcState_

; 411  : 			{
; 412  : 				m_iTIME_NOTIFY_COUNT = m_iTIME_MSEC_REMAIN / 60000;

  01214	8b 45 f8	 mov	 eax, DWORD PTR _this$[ebp]
  01217	8b 40 14	 mov	 eax, DWORD PTR [eax+20]
  0121a	99		 cdq
  0121b	b9 60 ea 00 00	 mov	 ecx, 60000		; 0000ea60H
  01220	f7 f9		 idiv	 ecx
  01222	8b 55 f8	 mov	 edx, DWORD PTR _this$[ebp]
  01225	89 42 20	 mov	 DWORD PTR [edx+32], eax

; 413  : 
; 414  : 				if (m_iTIME_NOTIFY_COUNT + 1 == 5)

  01228	8b 45 f8	 mov	 eax, DWORD PTR _this$[ebp]
  0122b	8b 48 20	 mov	 ecx, DWORD PTR [eax+32]
  0122e	83 c1 01	 add	 ecx, 1
  01231	83 f9 05	 cmp	 ecx, 5
  01234	75 31		 jne	 SHORT $LN6@ProcState_

; 415  : 				{
; 416  : 					char szTemp[256];
; 417  : 					wsprintf(szTemp,lMsg.Get(3224)); // # translation here

  01236	68 98 0c 00 00	 push	 3224			; 00000c98H
  0123b	b9 00 00 00 00	 mov	 ecx, OFFSET ?lMsg@@3VCMsg@@A ; lMsg
  01240	e8 00 00 00 00	 call	 ?Get@CMsg@@QAEPADH@Z	; CMsg::Get
  01245	50		 push	 eax
  01246	8d 85 f4 fe ff
	ff		 lea	 eax, DWORD PTR _szTemp$233036[ebp]
  0124c	50		 push	 eax
  0124d	ff 15 00 00 00
	00		 call	 DWORD PTR __imp__wsprintfA
  01253	83 c4 08	 add	 esp, 8

; 418  : 					g_CastleSiege.SendMapServerGroupMsg(szTemp);

  01256	8d 85 f4 fe ff
	ff		 lea	 eax, DWORD PTR _szTemp$233036[ebp]
  0125c	50		 push	 eax
  0125d	b9 00 00 00 00	 mov	 ecx, OFFSET ?g_CastleSiege@@3VCCastleSiege@@A ; g_CastleSiege
  01262	e8 00 00 00 00	 call	 ?SendMapServerGroupMsg@CCastleSiege@@QAEXPAD@Z ; CCastleSiege::SendMapServerGroupMsg
$LN6@ProcState_:

; 419  : 				}
; 420  : 			}
; 421  : 		}
; 422  : 
; 423  : 		LogAddC(3,"[CastleDeep Event] ProcState_Closed()	LEFT-MSEC:%d",m_iTIME_MSEC_REMAIN);

  01267	8b 45 f8	 mov	 eax, DWORD PTR _this$[ebp]
  0126a	8b 48 14	 mov	 ecx, DWORD PTR [eax+20]
  0126d	51		 push	 ecx
  0126e	68 00 00 00 00	 push	 OFFSET ??_C@_0DD@OCBAHGCE@?$FLCastleDeep?5Event?$FN?5ProcState_Clo@
  01273	6a 03		 push	 3
  01275	ff 15 00 00 00
	00		 call	 DWORD PTR ?LogAddC@@3P6AXEPADZZA ; LogAddC
  0127b	83 c4 0c	 add	 esp, 12			; 0000000cH
$LN7@ProcState_:

; 424  : 	}
; 425  : 
; 426  : 	if (m_iTIME_MSEC_REMAIN <= 0)

  0127e	8b 45 f8	 mov	 eax, DWORD PTR _this$[ebp]
  01281	83 78 14 00	 cmp	 DWORD PTR [eax+20], 0
  01285	7f 5e		 jg	 SHORT $LN8@ProcState_

; 427  : 	{
; 428  : 		char szTemp[256];
; 429  : 		wsprintf(szTemp,lMsg.Get(3225)); // # translation here

  01287	68 99 0c 00 00	 push	 3225			; 00000c99H
  0128c	b9 00 00 00 00	 mov	 ecx, OFFSET ?lMsg@@3VCMsg@@A ; lMsg
  01291	e8 00 00 00 00	 call	 ?Get@CMsg@@QAEPADH@Z	; CMsg::Get
  01296	50		 push	 eax
  01297	8d 85 f4 fd ff
	ff		 lea	 eax, DWORD PTR _szTemp$233039[ebp]
  0129d	50		 push	 eax
  0129e	ff 15 00 00 00
	00		 call	 DWORD PTR __imp__wsprintfA
  012a4	83 c4 08	 add	 esp, 8

; 430  : 		g_CastleSiege.SendMapServerGroupMsg(szTemp);

  012a7	8d 85 f4 fd ff
	ff		 lea	 eax, DWORD PTR _szTemp$233039[ebp]
  012ad	50		 push	 eax
  012ae	b9 00 00 00 00	 mov	 ecx, OFFSET ?g_CastleSiege@@3VCCastleSiege@@A ; g_CastleSiege
  012b3	e8 00 00 00 00	 call	 ?SendMapServerGroupMsg@CCastleSiege@@QAEXPAD@Z ; CCastleSiege::SendMapServerGroupMsg

; 431  : 
; 432  : 		if (m_bDoEvent != 0)

  012b8	8b 45 f8	 mov	 eax, DWORD PTR _this$[ebp]
  012bb	83 78 04 00	 cmp	 DWORD PTR [eax+4], 0
  012bf	74 0c		 je	 SHORT $LN2@ProcState_

; 433  : 		{
; 434  : 			SetState(CD_STATE_PLAYING);

  012c1	6a 02		 push	 2
  012c3	8b 4d f8	 mov	 ecx, DWORD PTR _this$[ebp]
  012c6	e8 00 00 00 00	 call	 ?SetState@CCastleDeepEvent@@QAEXH@Z ; CCastleDeepEvent::SetState

; 435  : 		}
; 436  : 		else

  012cb	eb 0a		 jmp	 SHORT $LN1@ProcState_
$LN2@ProcState_:

; 437  : 		{
; 438  : 			SetState(CD_STATE_NONE);

  012cd	6a 00		 push	 0
  012cf	8b 4d f8	 mov	 ecx, DWORD PTR _this$[ebp]
  012d2	e8 00 00 00 00	 call	 ?SetState@CCastleDeepEvent@@QAEXH@Z ; CCastleDeepEvent::SetState
$LN1@ProcState_:

; 439  : 		}
; 440  : 
; 441  : 		LogAddTD("[CastleDeep Event] - Event Started");

  012d7	68 00 00 00 00	 push	 OFFSET ??_C@_0CD@HCDGCBIA@?$FLCastleDeep?5Event?$FN?5?9?5Event?5Start@
  012dc	ff 15 00 00 00
	00		 call	 DWORD PTR ?LogAddTD@@3P6AXPADZZA ; LogAddTD
  012e2	83 c4 04	 add	 esp, 4
$LN8@ProcState_:

; 442  : 	}
; 443  : }

  012e5	5f		 pop	 edi
  012e6	5e		 pop	 esi
  012e7	5b		 pop	 ebx
  012e8	8b 4d fc	 mov	 ecx, DWORD PTR __$ArrayPad$[ebp]
  012eb	33 cd		 xor	 ecx, ebp
  012ed	e8 00 00 00 00	 call	 @__security_check_cookie@4
  012f2	8b e5		 mov	 esp, ebp
  012f4	5d		 pop	 ebp
  012f5	c3		 ret	 0
?ProcState_Closed@CCastleDeepEvent@@QAEXXZ ENDP		; CCastleDeepEvent::ProcState_Closed
_TEXT	ENDS
PUBLIC	??_C@_0CB@IOPJIFCO@?$FLCastleDeep?5Event?$FN?5?9?5Event?5Ended@ ; `string'
PUBLIC	?size@?$_Tree@V?$_Tmap_traits@HHU?$less@H@std@@V?$allocator@U?$pair@$$CBHH@std@@@2@$0A@@std@@@std@@QBEIXZ ; std::_Tree<std::_Tmap_traits<int,int,std::less<int>,std::allocator<std::pair<int const ,int> >,0> >::size
PUBLIC	??_C@_0DE@CCCKDNDF@?$FLCastleDeep?5Event?$FN?5ProcState_Pla@ ; `string'
PUBLIC	?erase@?$_Tree@V?$_Tmap_traits@HHU?$less@H@std@@V?$allocator@U?$pair@$$CBHH@std@@@2@$0A@@std@@@std@@QAE?AV?$_Tree_iterator@V?$_Tree_val@V?$_Tmap_traits@HHU?$less@H@std@@V?$allocator@U?$pair@$$CBHH@std@@@2@$0A@@std@@@std@@@2@V?$_Tree_const_iterator@V?$_Tree_val@V?$_Tmap_traits@HHU?$less@H@std@@V?$allocator@U?$pair@$$CBHH@std@@@2@$0A@@std@@@std@@@2@@Z ; std::_Tree<std::_Tmap_traits<int,int,std::less<int>,std::allocator<std::pair<int const ,int> >,0> >::erase
PUBLIC	?AddMonster@CCastleDeepEvent@@QAEXHH@Z		; CCastleDeepEvent::AddMonster
PUBLIC	??C?$_Tree_iterator@V?$_Tree_val@V?$_Tmap_traits@HHU?$less@H@std@@V?$allocator@U?$pair@$$CBHH@std@@@2@$0A@@std@@@std@@@std@@QBEPAU?$pair@$$CBHH@1@XZ ; std::_Tree_iterator<std::_Tree_val<std::_Tmap_traits<int,int,std::less<int>,std::allocator<std::pair<int const ,int> >,0> > >::operator->
PUBLIC	??9?$_Tree_const_iterator@V?$_Tree_val@V?$_Tmap_traits@HHU?$less@H@std@@V?$allocator@U?$pair@$$CBHH@std@@@2@$0A@@std@@@std@@@std@@QBE_NABV01@@Z ; std::_Tree_const_iterator<std::_Tree_val<std::_Tmap_traits<int,int,std::less<int>,std::allocator<std::pair<int const ,int> >,0> > >::operator!=
PUBLIC	?end@?$_Tree@V?$_Tmap_traits@HHU?$less@H@std@@V?$allocator@U?$pair@$$CBHH@std@@@2@$0A@@std@@@std@@QAE?AV?$_Tree_iterator@V?$_Tree_val@V?$_Tmap_traits@HHU?$less@H@std@@V?$allocator@U?$pair@$$CBHH@std@@@2@$0A@@std@@@std@@@2@XZ ; std::_Tree<std::_Tmap_traits<int,int,std::less<int>,std::allocator<std::pair<int const ,int> >,0> >::end
PUBLIC	??E?$_Tree_iterator@V?$_Tree_val@V?$_Tmap_traits@HHU?$less@H@std@@V?$allocator@U?$pair@$$CBHH@std@@@2@$0A@@std@@@std@@@std@@QAE?AV01@H@Z ; std::_Tree_iterator<std::_Tree_val<std::_Tmap_traits<int,int,std::less<int>,std::allocator<std::pair<int const ,int> >,0> > >::operator++
PUBLIC	?begin@?$_Tree@V?$_Tmap_traits@HHU?$less@H@std@@V?$allocator@U?$pair@$$CBHH@std@@@2@$0A@@std@@@std@@QAE?AV?$_Tree_iterator@V?$_Tree_val@V?$_Tmap_traits@HHU?$less@H@std@@V?$allocator@U?$pair@$$CBHH@std@@@2@$0A@@std@@@std@@@2@XZ ; std::_Tree<std::_Tmap_traits<int,int,std::less<int>,std::allocator<std::pair<int const ,int> >,0> >::begin
PUBLIC	__$ArrayPad$
EXTRN	?AllSendServerMsg@@YAXPAD@Z:PROC		; AllSendServerMsg
;	COMDAT ??_C@_0CB@IOPJIFCO@?$FLCastleDeep?5Event?$FN?5?9?5Event?5Ended@
CONST	SEGMENT
??_C@_0CB@IOPJIFCO@?$FLCastleDeep?5Event?$FN?5?9?5Event?5Ended@ DB '[Cast'
	DB	'leDeep Event] - Event Ended', 00H		; `string'
CONST	ENDS
;	COMDAT ??_C@_0DE@CCCKDNDF@?$FLCastleDeep?5Event?$FN?5ProcState_Pla@
CONST	SEGMENT
??_C@_0DE@CCCKDNDF@?$FLCastleDeep?5Event?$FN?5ProcState_Pla@ DB '[CastleD'
	DB	'eep Event] ProcState_Playing()', 09H, 'LEFT-MSEC:%d', 00H ; `string'
; Function compile flags: /Odtp /ZI
CONST	ENDS
_TEXT	SEGMENT
$T238938 = -356						; size = 4
$T238939 = -352						; size = 4
$T238940 = -348						; size = 4
$T238941 = -344						; size = 4
_szTemp$233093 = -276					; size = 256
_iSpawnMin$233084 = -20					; size = 4
_it$233061 = -16					; size = 4
_iTICK_MSEC$ = -12					; size = 4
_this$ = -8						; size = 4
__$ArrayPad$ = -4					; size = 4
?ProcState_Playing@CCastleDeepEvent@@QAEXXZ PROC	; CCastleDeepEvent::ProcState_Playing
; _this$ = ecx

; 446  : {

  01300	55		 push	 ebp
  01301	8b ec		 mov	 ebp, esp
  01303	81 ec 64 01 00
	00		 sub	 esp, 356		; 00000164H
  01309	a1 00 00 00 00	 mov	 eax, DWORD PTR ___security_cookie
  0130e	33 c5		 xor	 eax, ebp
  01310	89 45 fc	 mov	 DWORD PTR __$ArrayPad$[ebp], eax
  01313	53		 push	 ebx
  01314	56		 push	 esi
  01315	57		 push	 edi
  01316	89 4d f8	 mov	 DWORD PTR _this$[ebp], ecx

; 447  : using namespace std;
; 448  : 	int iTICK_MSEC = GetTickCount() - m_iTIME_TICK_COUNT;

  01319	ff 15 00 00 00
	00		 call	 DWORD PTR __imp__GetTickCount@0
  0131f	8b 4d f8	 mov	 ecx, DWORD PTR _this$[ebp]
  01322	2b 41 1c	 sub	 eax, DWORD PTR [ecx+28]
  01325	89 45 f4	 mov	 DWORD PTR _iTICK_MSEC$[ebp], eax

; 449  : 
; 450  : 	if (iTICK_MSEC >= 1000)

  01328	81 7d f4 e8 03
	00 00		 cmp	 DWORD PTR _iTICK_MSEC$[ebp], 1000 ; 000003e8H
  0132f	0f 8c e3 00 00
	00		 jl	 $LN11@ProcState_@2

; 451  : 	{
; 452  : 		m_iTIME_MSEC_REMAIN +=  iTICK_MSEC;

  01335	8b 45 f8	 mov	 eax, DWORD PTR _this$[ebp]
  01338	8b 48 14	 mov	 ecx, DWORD PTR [eax+20]
  0133b	03 4d f4	 add	 ecx, DWORD PTR _iTICK_MSEC$[ebp]
  0133e	8b 55 f8	 mov	 edx, DWORD PTR _this$[ebp]
  01341	89 4a 14	 mov	 DWORD PTR [edx+20], ecx

; 453  : 		m_iTIME_TICK_COUNT = GetTickCount();

  01344	ff 15 00 00 00
	00		 call	 DWORD PTR __imp__GetTickCount@0
  0134a	8b 4d f8	 mov	 ecx, DWORD PTR _this$[ebp]
  0134d	89 41 1c	 mov	 DWORD PTR [ecx+28], eax

; 454  : 
; 455  : 		for ( std::map<int, int>::iterator it = this->m_mapRunCheck.begin() ; it != this->m_mapRunCheck.end() ; it++) //HermeX Fix

  01350	8d 45 f0	 lea	 eax, DWORD PTR _it$233061[ebp]
  01353	50		 push	 eax
  01354	8b 4d f8	 mov	 ecx, DWORD PTR _this$[ebp]
  01357	81 c1 80 00 00
	00		 add	 ecx, 128		; 00000080H
  0135d	e8 00 00 00 00	 call	 ?begin@?$_Tree@V?$_Tmap_traits@HHU?$less@H@std@@V?$allocator@U?$pair@$$CBHH@std@@@2@$0A@@std@@@std@@QAE?AV?$_Tree_iterator@V?$_Tree_val@V?$_Tmap_traits@HHU?$less@H@std@@V?$allocator@U?$pair@$$CBHH@std@@@2@$0A@@std@@@std@@@2@XZ ; std::_Tree<std::_Tmap_traits<int,int,std::less<int>,std::allocator<std::pair<int const ,int> >,0> >::begin
  01362	eb 11		 jmp	 SHORT $LN10@ProcState_@2
$LN9@ProcState_@2:
  01364	6a 00		 push	 0
  01366	8d 85 9c fe ff
	ff		 lea	 eax, DWORD PTR $T238938[ebp]
  0136c	50		 push	 eax
  0136d	8d 4d f0	 lea	 ecx, DWORD PTR _it$233061[ebp]
  01370	e8 00 00 00 00	 call	 ??E?$_Tree_iterator@V?$_Tree_val@V?$_Tmap_traits@HHU?$less@H@std@@V?$allocator@U?$pair@$$CBHH@std@@@2@$0A@@std@@@std@@@std@@QAE?AV01@H@Z ; std::_Tree_iterator<std::_Tree_val<std::_Tmap_traits<int,int,std::less<int>,std::allocator<std::pair<int const ,int> >,0> > >::operator++
$LN10@ProcState_@2:
  01375	8d 85 a0 fe ff
	ff		 lea	 eax, DWORD PTR $T238939[ebp]
  0137b	50		 push	 eax
  0137c	8b 4d f8	 mov	 ecx, DWORD PTR _this$[ebp]
  0137f	81 c1 80 00 00
	00		 add	 ecx, 128		; 00000080H
  01385	e8 00 00 00 00	 call	 ?end@?$_Tree@V?$_Tmap_traits@HHU?$less@H@std@@V?$allocator@U?$pair@$$CBHH@std@@@2@$0A@@std@@@std@@QAE?AV?$_Tree_iterator@V?$_Tree_val@V?$_Tmap_traits@HHU?$less@H@std@@V?$allocator@U?$pair@$$CBHH@std@@@2@$0A@@std@@@std@@@2@XZ ; std::_Tree<std::_Tmap_traits<int,int,std::less<int>,std::allocator<std::pair<int const ,int> >,0> >::end
  0138a	50		 push	 eax
  0138b	8d 4d f0	 lea	 ecx, DWORD PTR _it$233061[ebp]
  0138e	e8 00 00 00 00	 call	 ??9?$_Tree_const_iterator@V?$_Tree_val@V?$_Tmap_traits@HHU?$less@H@std@@V?$allocator@U?$pair@$$CBHH@std@@@2@$0A@@std@@@std@@@std@@QBE_NABV01@@Z ; std::_Tree_const_iterator<std::_Tree_val<std::_Tmap_traits<int,int,std::less<int>,std::allocator<std::pair<int const ,int> >,0> > >::operator!=
  01393	0f b6 c8	 movzx	 ecx, al
  01396	85 c9		 test	 ecx, ecx
  01398	74 67		 je	 SHORT $LN8@ProcState_@2

; 456  : 		{
; 457  : 			int iSpawnMin = it->second;

  0139a	8d 4d f0	 lea	 ecx, DWORD PTR _it$233061[ebp]
  0139d	e8 00 00 00 00	 call	 ??C?$_Tree_iterator@V?$_Tree_val@V?$_Tmap_traits@HHU?$less@H@std@@V?$allocator@U?$pair@$$CBHH@std@@@2@$0A@@std@@@std@@@std@@QBEPAU?$pair@$$CBHH@1@XZ ; std::_Tree_iterator<std::_Tree_val<std::_Tmap_traits<int,int,std::less<int>,std::allocator<std::pair<int const ,int> >,0> > >::operator->
  013a2	8b 40 04	 mov	 eax, DWORD PTR [eax+4]
  013a5	89 45 ec	 mov	 DWORD PTR _iSpawnMin$233084[ebp], eax

; 458  : 
; 459  : 			if (iSpawnMin == m_iTIME_MSEC_REMAIN / 60000)

  013a8	8b 45 f8	 mov	 eax, DWORD PTR _this$[ebp]
  013ab	8b 40 14	 mov	 eax, DWORD PTR [eax+20]
  013ae	99		 cdq
  013af	b9 60 ea 00 00	 mov	 ecx, 60000		; 0000ea60H
  013b4	f7 f9		 idiv	 ecx
  013b6	39 45 ec	 cmp	 DWORD PTR _iSpawnMin$233084[ebp], eax
  013b9	75 41		 jne	 SHORT $LN7@ProcState_@2

; 460  : 			{
; 461  : 				AddMonster(m_iCUR_ASSULT_TYPE,it->first);

  013bb	8d 4d f0	 lea	 ecx, DWORD PTR _it$233061[ebp]
  013be	e8 00 00 00 00	 call	 ??C?$_Tree_iterator@V?$_Tree_val@V?$_Tmap_traits@HHU?$less@H@std@@V?$allocator@U?$pair@$$CBHH@std@@@2@$0A@@std@@@std@@@std@@QBEPAU?$pair@$$CBHH@1@XZ ; std::_Tree_iterator<std::_Tree_val<std::_Tmap_traits<int,int,std::less<int>,std::allocator<std::pair<int const ,int> >,0> > >::operator->
  013c3	8b 00		 mov	 eax, DWORD PTR [eax]
  013c5	50		 push	 eax
  013c6	8b 4d f8	 mov	 ecx, DWORD PTR _this$[ebp]
  013c9	8b 51 28	 mov	 edx, DWORD PTR [ecx+40]
  013cc	52		 push	 edx
  013cd	8b 4d f8	 mov	 ecx, DWORD PTR _this$[ebp]
  013d0	e8 00 00 00 00	 call	 ?AddMonster@CCastleDeepEvent@@QAEXHH@Z ; CCastleDeepEvent::AddMonster

; 462  : 				m_mapRunCheck.erase(it);

  013d5	8b 45 f0	 mov	 eax, DWORD PTR _it$233061[ebp]
  013d8	89 85 a4 fe ff
	ff		 mov	 DWORD PTR $T238940[ebp], eax
  013de	8b 8d a4 fe ff
	ff		 mov	 ecx, DWORD PTR $T238940[ebp]
  013e4	51		 push	 ecx
  013e5	8d 95 a8 fe ff
	ff		 lea	 edx, DWORD PTR $T238941[ebp]
  013eb	52		 push	 edx
  013ec	8b 4d f8	 mov	 ecx, DWORD PTR _this$[ebp]
  013ef	81 c1 80 00 00
	00		 add	 ecx, 128		; 00000080H
  013f5	e8 00 00 00 00	 call	 ?erase@?$_Tree@V?$_Tmap_traits@HHU?$less@H@std@@V?$allocator@U?$pair@$$CBHH@std@@@2@$0A@@std@@@std@@QAE?AV?$_Tree_iterator@V?$_Tree_val@V?$_Tmap_traits@HHU?$less@H@std@@V?$allocator@U?$pair@$$CBHH@std@@@2@$0A@@std@@@std@@@2@V?$_Tree_const_iterator@V?$_Tree_val@V?$_Tmap_traits@HHU?$less@H@std@@V?$allocator@U?$pair@$$CBHH@std@@@2@$0A@@std@@@std@@@2@@Z ; std::_Tree<std::_Tmap_traits<int,int,std::less<int>,std::allocator<std::pair<int const ,int> >,0> >::erase

; 463  : 				break;

  013fa	eb 05		 jmp	 SHORT $LN8@ProcState_@2
$LN7@ProcState_@2:

; 464  : 			}
; 465  : 		}

  013fc	e9 63 ff ff ff	 jmp	 $LN9@ProcState_@2
$LN8@ProcState_@2:

; 466  : 
; 467  : 		LogAddC(3,"[CastleDeep Event] ProcState_Playing()	LEFT-MSEC:%d",m_iTIME_MSEC_REMAIN);

  01401	8b 45 f8	 mov	 eax, DWORD PTR _this$[ebp]
  01404	8b 48 14	 mov	 ecx, DWORD PTR [eax+20]
  01407	51		 push	 ecx
  01408	68 00 00 00 00	 push	 OFFSET ??_C@_0DE@CCCKDNDF@?$FLCastleDeep?5Event?$FN?5ProcState_Pla@
  0140d	6a 03		 push	 3
  0140f	ff 15 00 00 00
	00		 call	 DWORD PTR ?LogAddC@@3P6AXEPADZZA ; LogAddC
  01415	83 c4 0c	 add	 esp, 12			; 0000000cH
$LN11@ProcState_@2:

; 468  : 	}
; 469  : 
; 470  : 	if (m_mapRunCheck.size() <= 0)

  01418	8b 4d f8	 mov	 ecx, DWORD PTR _this$[ebp]
  0141b	81 c1 80 00 00
	00		 add	 ecx, 128		; 00000080H
  01421	e8 00 00 00 00	 call	 ?size@?$_Tree@V?$_Tmap_traits@HHU?$less@H@std@@V?$allocator@U?$pair@$$CBHH@std@@@2@$0A@@std@@@std@@QBEIXZ ; std::_Tree<std::_Tmap_traits<int,int,std::less<int>,std::allocator<std::pair<int const ,int> >,0> >::size
  01426	85 c0		 test	 eax, eax
  01428	0f 87 93 00 00
	00		 ja	 $LN12@ProcState_@2

; 471  : 	{
; 472  : 		if (m_bCheckEnd == 0)

  0142e	8b 45 f8	 mov	 eax, DWORD PTR _this$[ebp]
  01431	83 78 0c 00	 cmp	 DWORD PTR [eax+12], 0
  01435	75 18		 jne	 SHORT $LN5@ProcState_@2

; 473  : 		{
; 474  : 			m_bCheckEnd = 1;

  01437	8b 45 f8	 mov	 eax, DWORD PTR _this$[ebp]
  0143a	c7 40 0c 01 00
	00 00		 mov	 DWORD PTR [eax+12], 1

; 475  : 			m_uCheckEndTick = GetTickCount();

  01441	ff 15 00 00 00
	00		 call	 DWORD PTR __imp__GetTickCount@0
  01447	8b 4d f8	 mov	 ecx, DWORD PTR _this$[ebp]
  0144a	89 41 10	 mov	 DWORD PTR [ecx+16], eax

; 476  : 		}
; 477  : 		else

  0144d	eb 64		 jmp	 SHORT $LN4@ProcState_@2
$LN5@ProcState_@2:

; 478  : 		{
; 479  : 			if (m_uCheckEndTick + 600000 < GetTickCount()) //HermeX Fix

  0144f	8b 45 f8	 mov	 eax, DWORD PTR _this$[ebp]
  01452	8b 70 10	 mov	 esi, DWORD PTR [eax+16]
  01455	81 c6 c0 27 09
	00		 add	 esi, 600000		; 000927c0H
  0145b	ff 15 00 00 00
	00		 call	 DWORD PTR __imp__GetTickCount@0
  01461	3b f0		 cmp	 esi, eax
  01463	73 4e		 jae	 SHORT $LN4@ProcState_@2

; 480  : 			{
; 481  : 				char szTemp[256];
; 482  : 				wsprintf(szTemp,lMsg.Get(3226)); // # translation here (HermeX Fix)

  01465	68 9a 0c 00 00	 push	 3226			; 00000c9aH
  0146a	b9 00 00 00 00	 mov	 ecx, OFFSET ?lMsg@@3VCMsg@@A ; lMsg
  0146f	e8 00 00 00 00	 call	 ?Get@CMsg@@QAEPADH@Z	; CMsg::Get
  01474	50		 push	 eax
  01475	8d 85 ec fe ff
	ff		 lea	 eax, DWORD PTR _szTemp$233093[ebp]
  0147b	50		 push	 eax
  0147c	ff 15 00 00 00
	00		 call	 DWORD PTR __imp__wsprintfA
  01482	83 c4 08	 add	 esp, 8

; 483  : 				AllSendServerMsg(szTemp);

  01485	8d 85 ec fe ff
	ff		 lea	 eax, DWORD PTR _szTemp$233093[ebp]
  0148b	50		 push	 eax
  0148c	e8 00 00 00 00	 call	 ?AllSendServerMsg@@YAXPAD@Z ; AllSendServerMsg
  01491	83 c4 04	 add	 esp, 4

; 484  : 
; 485  : 				if (m_bDoEvent != 0)

  01494	8b 45 f8	 mov	 eax, DWORD PTR _this$[ebp]
  01497	83 78 04 00	 cmp	 DWORD PTR [eax+4], 0
  0149b	74 0c		 je	 SHORT $LN2@ProcState_@2

; 486  : 				{
; 487  : 					SetState(CD_STATE_CLOSED);

  0149d	6a 01		 push	 1
  0149f	8b 4d f8	 mov	 ecx, DWORD PTR _this$[ebp]
  014a2	e8 00 00 00 00	 call	 ?SetState@CCastleDeepEvent@@QAEXH@Z ; CCastleDeepEvent::SetState

; 488  : 				}
; 489  : 				else

  014a7	eb 0a		 jmp	 SHORT $LN4@ProcState_@2
$LN2@ProcState_@2:

; 490  : 				{
; 491  : 					SetState(CD_STATE_NONE);

  014a9	6a 00		 push	 0
  014ab	8b 4d f8	 mov	 ecx, DWORD PTR _this$[ebp]
  014ae	e8 00 00 00 00	 call	 ?SetState@CCastleDeepEvent@@QAEXH@Z ; CCastleDeepEvent::SetState
$LN4@ProcState_@2:

; 492  : 				}
; 493  : 			}
; 494  : 		}
; 495  : 
; 496  : 		LogAddTD("[CastleDeep Event] - Event Ended");

  014b3	68 00 00 00 00	 push	 OFFSET ??_C@_0CB@IOPJIFCO@?$FLCastleDeep?5Event?$FN?5?9?5Event?5Ended@
  014b8	ff 15 00 00 00
	00		 call	 DWORD PTR ?LogAddTD@@3P6AXPADZZA ; LogAddTD
  014be	83 c4 04	 add	 esp, 4
$LN12@ProcState_@2:

; 497  : 	}
; 498  : }

  014c1	5f		 pop	 edi
  014c2	5e		 pop	 esi
  014c3	5b		 pop	 ebx
  014c4	8b 4d fc	 mov	 ecx, DWORD PTR __$ArrayPad$[ebp]
  014c7	33 cd		 xor	 ecx, ebp
  014c9	e8 00 00 00 00	 call	 @__security_check_cookie@4
  014ce	8b e5		 mov	 esp, ebp
  014d0	5d		 pop	 ebp
  014d1	c3		 ret	 0
?ProcState_Playing@CCastleDeepEvent@@QAEXXZ ENDP	; CCastleDeepEvent::ProcState_Playing
_TEXT	ENDS
EXTRN	?gObjDel@@YAFH@Z:PROC				; gObjDel
EXTRN	?gObj@@3PAUOBJECTSTRUCT@@A:DWORD		; gObj
EXTRN	?gObjIsConnected@@YAHH@Z:PROC			; gObjIsConnected
; Function compile flags: /Odtp /ZI
_TEXT	SEGMENT
_iIndex$233100 = -8					; size = 4
_this$ = -4						; size = 4
?ClearMonster@CCastleDeepEvent@@QAEXXZ PROC		; CCastleDeepEvent::ClearMonster
; _this$ = ecx

; 501  : {

  014e0	55		 push	 ebp
  014e1	8b ec		 mov	 ebp, esp
  014e3	83 ec 48	 sub	 esp, 72			; 00000048H
  014e6	53		 push	 ebx
  014e7	56		 push	 esi
  014e8	57		 push	 edi
  014e9	89 4d fc	 mov	 DWORD PTR _this$[ebp], ecx

; 502  : 	for(int iIndex = 0; iIndex < OBJ_MAXMONSTER; iIndex++)

  014ec	c7 45 f8 00 00
	00 00		 mov	 DWORD PTR _iIndex$233100[ebp], 0
  014f3	eb 09		 jmp	 SHORT $LN4@ClearMonst
$LN3@ClearMonst:
  014f5	8b 45 f8	 mov	 eax, DWORD PTR _iIndex$233100[ebp]
  014f8	83 c0 01	 add	 eax, 1
  014fb	89 45 f8	 mov	 DWORD PTR _iIndex$233100[ebp], eax
$LN4@ClearMonst:
  014fe	81 7d f8 c8 32
	00 00		 cmp	 DWORD PTR _iIndex$233100[ebp], 13000 ; 000032c8H
  01505	7d 3a		 jge	 SHORT $LN5@ClearMonst

; 503  : 	{
; 504  : 		if (gObjIsConnected(iIndex) && gObj[iIndex].m_Attribute == 62)

  01507	8b 45 f8	 mov	 eax, DWORD PTR _iIndex$233100[ebp]
  0150a	50		 push	 eax
  0150b	e8 00 00 00 00	 call	 ?gObjIsConnected@@YAHH@Z ; gObjIsConnected
  01510	83 c4 04	 add	 esp, 4
  01513	85 c0		 test	 eax, eax
  01515	74 28		 je	 SHORT $LN1@ClearMonst
  01517	8b 45 f8	 mov	 eax, DWORD PTR _iIndex$233100[ebp]
  0151a	69 c0 38 2b 00
	00		 imul	 eax, 11064		; 00002b38H
  01520	8b 0d 00 00 00
	00		 mov	 ecx, DWORD PTR ?gObj@@3PAUOBJECTSTRUCT@@A ; gObj
  01526	0f bf 94 01 b6
	04 00 00	 movsx	 edx, WORD PTR [ecx+eax+1206]
  0152e	83 fa 3e	 cmp	 edx, 62			; 0000003eH
  01531	75 0c		 jne	 SHORT $LN1@ClearMonst

; 505  : 		{
; 506  : 			gObjDel(iIndex);

  01533	8b 45 f8	 mov	 eax, DWORD PTR _iIndex$233100[ebp]
  01536	50		 push	 eax
  01537	e8 00 00 00 00	 call	 ?gObjDel@@YAFH@Z	; gObjDel
  0153c	83 c4 04	 add	 esp, 4
$LN1@ClearMonst:

; 507  : 		}
; 508  : 	}

  0153f	eb b4		 jmp	 SHORT $LN3@ClearMonst
$LN5@ClearMonst:

; 509  : }

  01541	5f		 pop	 edi
  01542	5e		 pop	 esi
  01543	5b		 pop	 ebx
  01544	8b e5		 mov	 esp, ebp
  01546	5d		 pop	 ebp
  01547	c3		 ret	 0
?ClearMonster@CCastleDeepEvent@@QAEXXZ ENDP		; CCastleDeepEvent::ClearMonster
_TEXT	ENDS
PUBLIC	??C?$_Vector_iterator@V?$_Vector_val@UCASTLEDEEP_MONSTERINFO@@V?$allocator@UCASTLEDEEP_MONSTERINFO@@@std@@@std@@@std@@QBEPAUCASTLEDEEP_MONSTERINFO@@XZ ; std::_Vector_iterator<std::_Vector_val<CASTLEDEEP_MONSTERINFO,std::allocator<CASTLEDEEP_MONSTERINFO> > >::operator->
PUBLIC	??9?$_Vector_const_iterator@V?$_Vector_val@UCASTLEDEEP_MONSTERINFO@@V?$allocator@UCASTLEDEEP_MONSTERINFO@@@std@@@std@@@std@@QBE_NABV01@@Z ; std::_Vector_const_iterator<std::_Vector_val<CASTLEDEEP_MONSTERINFO,std::allocator<CASTLEDEEP_MONSTERINFO> > >::operator!=
PUBLIC	?end@?$vector@UCASTLEDEEP_MONSTERINFO@@V?$allocator@UCASTLEDEEP_MONSTERINFO@@@std@@@std@@QAE?AV?$_Vector_iterator@V?$_Vector_val@UCASTLEDEEP_MONSTERINFO@@V?$allocator@UCASTLEDEEP_MONSTERINFO@@@std@@@std@@@2@XZ ; std::vector<CASTLEDEEP_MONSTERINFO,std::allocator<CASTLEDEEP_MONSTERINFO> >::end
PUBLIC	??E?$_Vector_iterator@V?$_Vector_val@UCASTLEDEEP_MONSTERINFO@@V?$allocator@UCASTLEDEEP_MONSTERINFO@@@std@@@std@@@std@@QAE?AV01@H@Z ; std::_Vector_iterator<std::_Vector_val<CASTLEDEEP_MONSTERINFO,std::allocator<CASTLEDEEP_MONSTERINFO> > >::operator++
PUBLIC	?begin@?$vector@UCASTLEDEEP_MONSTERINFO@@V?$allocator@UCASTLEDEEP_MONSTERINFO@@@std@@@std@@QAE?AV?$_Vector_iterator@V?$_Vector_val@UCASTLEDEEP_MONSTERINFO@@V?$allocator@UCASTLEDEEP_MONSTERINFO@@@std@@@std@@@2@XZ ; std::vector<CASTLEDEEP_MONSTERINFO,std::allocator<CASTLEDEEP_MONSTERINFO> >::begin
PUBLIC	??0?$_Vector_iterator@V?$_Vector_val@UCASTLEDEEP_MONSTERINFO@@V?$allocator@UCASTLEDEEP_MONSTERINFO@@@std@@@std@@@std@@QAE@XZ ; std::_Vector_iterator<std::_Vector_val<CASTLEDEEP_MONSTERINFO,std::allocator<CASTLEDEEP_MONSTERINFO> > >::_Vector_iterator<std::_Vector_val<CASTLEDEEP_MONSTERINFO,std::allocator<CASTLEDEEP_MONSTERINFO> > >
PUBLIC	??8?$_Tree_const_iterator@V?$_Tree_val@V?$_Tmap_traits@HV?$vector@UCASTLEDEEP_MONSTERINFO@@V?$allocator@UCASTLEDEEP_MONSTERINFO@@@std@@@std@@U?$less@H@2@V?$allocator@U?$pair@$$CBHV?$vector@UCASTLEDEEP_MONSTERINFO@@V?$allocator@UCASTLEDEEP_MONSTERINFO@@@std@@@std@@@std@@@2@$0A@@std@@@std@@@std@@QBE_NABV01@@Z ; std::_Tree_const_iterator<std::_Tree_val<std::_Tmap_traits<int,std::vector<CASTLEDEEP_MONSTERINFO,std::allocator<CASTLEDEEP_MONSTERINFO> >,std::less<int>,std::allocator<std::pair<int const ,std::vector<CASTLEDEEP_MONSTERINFO,std::allocator<CASTLEDEEP_MONSTERINFO> > > >,0> > >::operator==
EXTRN	?gObjSetMonster@@YAHHH@Z:PROC			; gObjSetMonster
EXTRN	?gObjAddMonster@@YAFH@Z:PROC			; gObjAddMonster
EXTRN	?gObjGetRandomFreeArea@@YAHHAAE0HHHHH@Z:PROC	; gObjGetRandomFreeArea
; Function compile flags: /Odtp /ZI
_TEXT	SEGMENT
$T238944 = -108						; size = 4
$T238945 = -104						; size = 4
$T238946 = -100						; size = 4
$T238947 = -96						; size = 4
_result$233299 = -28					; size = 4
_iMonCount$233292 = -24					; size = 4
_cSY$233291 = -18					; size = 1
_cSX$233290 = -17					; size = 1
_stMonsterInfo$233288 = -16				; size = 4
_it2$ = -12						; size = 4
_it$ = -8						; size = 4
_this$ = -4						; size = 4
_iAssultType$ = 8					; size = 4
_iGroup$ = 12						; size = 4
?AddMonster@CCastleDeepEvent@@QAEXHH@Z PROC		; CCastleDeepEvent::AddMonster
; _this$ = ecx

; 512  : {

  01550	55		 push	 ebp
  01551	8b ec		 mov	 ebp, esp
  01553	83 ec 6c	 sub	 esp, 108		; 0000006cH
  01556	53		 push	 ebx
  01557	56		 push	 esi
  01558	57		 push	 edi
  01559	89 4d fc	 mov	 DWORD PTR _this$[ebp], ecx

; 513  : 	std::map<int,vector<CASTLEDEEP_MONSTERINFO > >::iterator it = this->m_mapMonsterInfo.find(iAssultType); //HermeX Fix

  0155c	8d 45 08	 lea	 eax, DWORD PTR _iAssultType$[ebp]
  0155f	50		 push	 eax
  01560	8d 4d f8	 lea	 ecx, DWORD PTR _it$[ebp]
  01563	51		 push	 ecx
  01564	8b 4d fc	 mov	 ecx, DWORD PTR _this$[ebp]
  01567	83 c1 30	 add	 ecx, 48			; 00000030H
  0156a	e8 00 00 00 00	 call	 ?find@?$_Tree@V?$_Tmap_traits@HV?$vector@UCASTLEDEEP_MONSTERINFO@@V?$allocator@UCASTLEDEEP_MONSTERINFO@@@std@@@std@@U?$less@H@2@V?$allocator@U?$pair@$$CBHV?$vector@UCASTLEDEEP_MONSTERINFO@@V?$allocator@UCASTLEDEEP_MONSTERINFO@@@std@@@std@@@std@@@2@$0A@@std@@@std@@QAE?AV?$_Tree_iterator@V?$_Tree_val@V?$_Tmap_traits@HV?$vector@UCASTLEDEEP_MONSTERINFO@@V?$allocator@UCASTLEDEEP_MONSTERINFO@@@std@@@std@@U?$less@H@2@V?$allocator@U?$pair@$$CBHV?$vector@UCASTLEDEEP_MONSTERINFO@@V?$allocator@UCASTLEDEEP_MONSTERINFO@@@std@@@std@@@std@@@2@$0A@@std@@@std@@@2@ABH@Z ; std::_Tree<std::_Tmap_traits<int,std::vector<CASTLEDEEP_MONSTERINFO,std::allocator<CASTLEDEEP_MONSTERINFO> >,std::less<int>,std::allocator<std::pair<int const ,std::vector<CASTLEDEEP_MONSTERINFO,std::allocator<CASTLEDEEP_MONSTERINFO> > > >,0> >::find

; 514  : 
; 515  : 	if (it == this->m_mapMonsterInfo.end())

  0156f	8d 45 94	 lea	 eax, DWORD PTR $T238944[ebp]
  01572	50		 push	 eax
  01573	8b 4d fc	 mov	 ecx, DWORD PTR _this$[ebp]
  01576	83 c1 30	 add	 ecx, 48			; 00000030H
  01579	e8 00 00 00 00	 call	 ?end@?$_Tree@V?$_Tmap_traits@HV?$vector@UCASTLEDEEP_MONSTERINFO@@V?$allocator@UCASTLEDEEP_MONSTERINFO@@@std@@@std@@U?$less@H@2@V?$allocator@U?$pair@$$CBHV?$vector@UCASTLEDEEP_MONSTERINFO@@V?$allocator@UCASTLEDEEP_MONSTERINFO@@@std@@@std@@@std@@@2@$0A@@std@@@std@@QAE?AV?$_Tree_iterator@V?$_Tree_val@V?$_Tmap_traits@HV?$vector@UCASTLEDEEP_MONSTERINFO@@V?$allocator@UCASTLEDEEP_MONSTERINFO@@@std@@@std@@U?$less@H@2@V?$allocator@U?$pair@$$CBHV?$vector@UCASTLEDEEP_MONSTERINFO@@V?$allocator@UCASTLEDEEP_MONSTERINFO@@@std@@@std@@@std@@@2@$0A@@std@@@std@@@2@XZ ; std::_Tree<std::_Tmap_traits<int,std::vector<CASTLEDEEP_MONSTERINFO,std::allocator<CASTLEDEEP_MONSTERINFO> >,std::less<int>,std::allocator<std::pair<int const ,std::vector<CASTLEDEEP_MONSTERINFO,std::allocator<CASTLEDEEP_MONSTERINFO> > > >,0> >::end
  0157e	50		 push	 eax
  0157f	8d 4d f8	 lea	 ecx, DWORD PTR _it$[ebp]
  01582	e8 00 00 00 00	 call	 ??8?$_Tree_const_iterator@V?$_Tree_val@V?$_Tmap_traits@HV?$vector@UCASTLEDEEP_MONSTERINFO@@V?$allocator@UCASTLEDEEP_MONSTERINFO@@@std@@@std@@U?$less@H@2@V?$allocator@U?$pair@$$CBHV?$vector@UCASTLEDEEP_MONSTERINFO@@V?$allocator@UCASTLEDEEP_MONSTERINFO@@@std@@@std@@@std@@@2@$0A@@std@@@std@@@std@@QBE_NABV01@@Z ; std::_Tree_const_iterator<std::_Tree_val<std::_Tmap_traits<int,std::vector<CASTLEDEEP_MONSTERINFO,std::allocator<CASTLEDEEP_MONSTERINFO> >,std::less<int>,std::allocator<std::pair<int const ,std::vector<CASTLEDEEP_MONSTERINFO,std::allocator<CASTLEDEEP_MONSTERINFO> > > >,0> > >::operator==
  01587	0f b6 c8	 movzx	 ecx, al
  0158a	85 c9		 test	 ecx, ecx
  0158c	74 05		 je	 SHORT $LN10@AddMonster

; 516  : 	{
; 517  : 		return;

  0158e	e9 75 03 00 00	 jmp	 $LN11@AddMonster
$LN10@AddMonster:

; 518  : 	}
; 519  : 
; 520  : 	std::vector<CASTLEDEEP_MONSTERINFO>::iterator it2;

  01593	8d 4d f4	 lea	 ecx, DWORD PTR _it2$[ebp]
  01596	e8 00 00 00 00	 call	 ??0?$_Vector_iterator@V?$_Vector_val@UCASTLEDEEP_MONSTERINFO@@V?$allocator@UCASTLEDEEP_MONSTERINFO@@@std@@@std@@@std@@QAE@XZ ; std::_Vector_iterator<std::_Vector_val<CASTLEDEEP_MONSTERINFO,std::allocator<CASTLEDEEP_MONSTERINFO> > >::_Vector_iterator<std::_Vector_val<CASTLEDEEP_MONSTERINFO,std::allocator<CASTLEDEEP_MONSTERINFO> > >

; 521  : 
; 522  : 	for(it2 = it->second.begin(); it2 != it->second.end(); it2++)

  0159b	8d 45 98	 lea	 eax, DWORD PTR $T238945[ebp]
  0159e	50		 push	 eax
  0159f	8d 4d f8	 lea	 ecx, DWORD PTR _it$[ebp]
  015a2	e8 00 00 00 00	 call	 ??C?$_Tree_iterator@V?$_Tree_val@V?$_Tmap_traits@HV?$vector@UCASTLEDEEP_MONSTERINFO@@V?$allocator@UCASTLEDEEP_MONSTERINFO@@@std@@@std@@U?$less@H@2@V?$allocator@U?$pair@$$CBHV?$vector@UCASTLEDEEP_MONSTERINFO@@V?$allocator@UCASTLEDEEP_MONSTERINFO@@@std@@@std@@@std@@@2@$0A@@std@@@std@@@std@@QBEPAU?$pair@$$CBHV?$vector@UCASTLEDEEP_MONSTERINFO@@V?$allocator@UCASTLEDEEP_MONSTERINFO@@@std@@@std@@@1@XZ ; std::_Tree_iterator<std::_Tree_val<std::_Tmap_traits<int,std::vector<CASTLEDEEP_MONSTERINFO,std::allocator<CASTLEDEEP_MONSTERINFO> >,std::less<int>,std::allocator<std::pair<int const ,std::vector<CASTLEDEEP_MONSTERINFO,std::allocator<CASTLEDEEP_MONSTERINFO> > > >,0> > >::operator->
  015a7	83 c0 04	 add	 eax, 4
  015aa	8b c8		 mov	 ecx, eax
  015ac	e8 00 00 00 00	 call	 ?begin@?$vector@UCASTLEDEEP_MONSTERINFO@@V?$allocator@UCASTLEDEEP_MONSTERINFO@@@std@@@std@@QAE?AV?$_Vector_iterator@V?$_Vector_val@UCASTLEDEEP_MONSTERINFO@@V?$allocator@UCASTLEDEEP_MONSTERINFO@@@std@@@std@@@2@XZ ; std::vector<CASTLEDEEP_MONSTERINFO,std::allocator<CASTLEDEEP_MONSTERINFO> >::begin
  015b1	8b 08		 mov	 ecx, DWORD PTR [eax]
  015b3	89 4d f4	 mov	 DWORD PTR _it2$[ebp], ecx
  015b6	eb 0e		 jmp	 SHORT $LN9@AddMonster
$LN8@AddMonster:
  015b8	6a 00		 push	 0
  015ba	8d 45 9c	 lea	 eax, DWORD PTR $T238946[ebp]
  015bd	50		 push	 eax
  015be	8d 4d f4	 lea	 ecx, DWORD PTR _it2$[ebp]
  015c1	e8 00 00 00 00	 call	 ??E?$_Vector_iterator@V?$_Vector_val@UCASTLEDEEP_MONSTERINFO@@V?$allocator@UCASTLEDEEP_MONSTERINFO@@@std@@@std@@@std@@QAE?AV01@H@Z ; std::_Vector_iterator<std::_Vector_val<CASTLEDEEP_MONSTERINFO,std::allocator<CASTLEDEEP_MONSTERINFO> > >::operator++
$LN9@AddMonster:
  015c6	8d 45 a0	 lea	 eax, DWORD PTR $T238947[ebp]
  015c9	50		 push	 eax
  015ca	8d 4d f8	 lea	 ecx, DWORD PTR _it$[ebp]
  015cd	e8 00 00 00 00	 call	 ??C?$_Tree_iterator@V?$_Tree_val@V?$_Tmap_traits@HV?$vector@UCASTLEDEEP_MONSTERINFO@@V?$allocator@UCASTLEDEEP_MONSTERINFO@@@std@@@std@@U?$less@H@2@V?$allocator@U?$pair@$$CBHV?$vector@UCASTLEDEEP_MONSTERINFO@@V?$allocator@UCASTLEDEEP_MONSTERINFO@@@std@@@std@@@std@@@2@$0A@@std@@@std@@@std@@QBEPAU?$pair@$$CBHV?$vector@UCASTLEDEEP_MONSTERINFO@@V?$allocator@UCASTLEDEEP_MONSTERINFO@@@std@@@std@@@1@XZ ; std::_Tree_iterator<std::_Tree_val<std::_Tmap_traits<int,std::vector<CASTLEDEEP_MONSTERINFO,std::allocator<CASTLEDEEP_MONSTERINFO> >,std::less<int>,std::allocator<std::pair<int const ,std::vector<CASTLEDEEP_MONSTERINFO,std::allocator<CASTLEDEEP_MONSTERINFO> > > >,0> > >::operator->
  015d2	83 c0 04	 add	 eax, 4
  015d5	8b c8		 mov	 ecx, eax
  015d7	e8 00 00 00 00	 call	 ?end@?$vector@UCASTLEDEEP_MONSTERINFO@@V?$allocator@UCASTLEDEEP_MONSTERINFO@@@std@@@std@@QAE?AV?$_Vector_iterator@V?$_Vector_val@UCASTLEDEEP_MONSTERINFO@@V?$allocator@UCASTLEDEEP_MONSTERINFO@@@std@@@std@@@2@XZ ; std::vector<CASTLEDEEP_MONSTERINFO,std::allocator<CASTLEDEEP_MONSTERINFO> >::end
  015dc	50		 push	 eax
  015dd	8d 4d f4	 lea	 ecx, DWORD PTR _it2$[ebp]
  015e0	e8 00 00 00 00	 call	 ??9?$_Vector_const_iterator@V?$_Vector_val@UCASTLEDEEP_MONSTERINFO@@V?$allocator@UCASTLEDEEP_MONSTERINFO@@@std@@@std@@@std@@QBE_NABV01@@Z ; std::_Vector_const_iterator<std::_Vector_val<CASTLEDEEP_MONSTERINFO,std::allocator<CASTLEDEEP_MONSTERINFO> > >::operator!=
  015e5	0f b6 c8	 movzx	 ecx, al
  015e8	85 c9		 test	 ecx, ecx
  015ea	0f 84 18 03 00
	00		 je	 $LN11@AddMonster

; 523  : 	{
; 524  : 		std::vector<CASTLEDEEP_MONSTERINFO>::iterator stMonsterInfo= it2;

  015f0	8b 45 f4	 mov	 eax, DWORD PTR _it2$[ebp]
  015f3	89 45 f0	 mov	 DWORD PTR _stMonsterInfo$233288[ebp], eax

; 525  : 
; 526  : 		if (stMonsterInfo->m_iMonsterGroup != iGroup)

  015f6	8d 4d f0	 lea	 ecx, DWORD PTR _stMonsterInfo$233288[ebp]
  015f9	e8 00 00 00 00	 call	 ??C?$_Vector_iterator@V?$_Vector_val@UCASTLEDEEP_MONSTERINFO@@V?$allocator@UCASTLEDEEP_MONSTERINFO@@@std@@@std@@@std@@QBEPAUCASTLEDEEP_MONSTERINFO@@XZ ; std::_Vector_iterator<std::_Vector_val<CASTLEDEEP_MONSTERINFO,std::allocator<CASTLEDEEP_MONSTERINFO> > >::operator->
  015fe	8b 00		 mov	 eax, DWORD PTR [eax]
  01600	3b 45 0c	 cmp	 eax, DWORD PTR _iGroup$[ebp]
  01603	74 02		 je	 SHORT $LN6@AddMonster

; 527  : 			continue;

  01605	eb b1		 jmp	 SHORT $LN8@AddMonster
$LN6@AddMonster:

; 528  : 
; 529  : 		BYTE cSX;
; 530  : 		BYTE cSY;
; 531  : 
; 532  : 		for(int iMonCount = 0; iMonCount < stMonsterInfo->m_iMonsterNumber; iMonCount++)

  01607	c7 45 e8 00 00
	00 00		 mov	 DWORD PTR _iMonCount$233292[ebp], 0
  0160e	eb 09		 jmp	 SHORT $LN5@AddMonster
$LN4@AddMonster:
  01610	8b 45 e8	 mov	 eax, DWORD PTR _iMonCount$233292[ebp]
  01613	83 c0 01	 add	 eax, 1
  01616	89 45 e8	 mov	 DWORD PTR _iMonCount$233292[ebp], eax
$LN5@AddMonster:
  01619	8d 4d f0	 lea	 ecx, DWORD PTR _stMonsterInfo$233288[ebp]
  0161c	e8 00 00 00 00	 call	 ??C?$_Vector_iterator@V?$_Vector_val@UCASTLEDEEP_MONSTERINFO@@V?$allocator@UCASTLEDEEP_MONSTERINFO@@@std@@@std@@@std@@QBEPAUCASTLEDEEP_MONSTERINFO@@XZ ; std::_Vector_iterator<std::_Vector_val<CASTLEDEEP_MONSTERINFO,std::allocator<CASTLEDEEP_MONSTERINFO> > >::operator->
  01621	8b 4d e8	 mov	 ecx, DWORD PTR _iMonCount$233292[ebp]
  01624	3b 48 08	 cmp	 ecx, DWORD PTR [eax+8]
  01627	0f 8d d6 02 00
	00		 jge	 $LN3@AddMonster

; 533  : 		{
; 534  : 			if (gObjGetRandomFreeArea(MAP_INDEX_CASTLESIEGE,(BYTE &)cSX,(BYTE &)cSY,
; 535  : 				stMonsterInfo->m_iSX,stMonsterInfo->m_iSY,stMonsterInfo->m_iDX,stMonsterInfo->m_iDY,MAP_INDEX_CASTLESIEGE) == TRUE)

  0162d	6a 1e		 push	 30			; 0000001eH
  0162f	8d 4d f0	 lea	 ecx, DWORD PTR _stMonsterInfo$233288[ebp]
  01632	e8 00 00 00 00	 call	 ??C?$_Vector_iterator@V?$_Vector_val@UCASTLEDEEP_MONSTERINFO@@V?$allocator@UCASTLEDEEP_MONSTERINFO@@@std@@@std@@@std@@QBEPAUCASTLEDEEP_MONSTERINFO@@XZ ; std::_Vector_iterator<std::_Vector_val<CASTLEDEEP_MONSTERINFO,std::allocator<CASTLEDEEP_MONSTERINFO> > >::operator->
  01637	8b 40 18	 mov	 eax, DWORD PTR [eax+24]
  0163a	50		 push	 eax
  0163b	8d 4d f0	 lea	 ecx, DWORD PTR _stMonsterInfo$233288[ebp]
  0163e	e8 00 00 00 00	 call	 ??C?$_Vector_iterator@V?$_Vector_val@UCASTLEDEEP_MONSTERINFO@@V?$allocator@UCASTLEDEEP_MONSTERINFO@@@std@@@std@@@std@@QBEPAUCASTLEDEEP_MONSTERINFO@@XZ ; std::_Vector_iterator<std::_Vector_val<CASTLEDEEP_MONSTERINFO,std::allocator<CASTLEDEEP_MONSTERINFO> > >::operator->
  01643	8b 48 14	 mov	 ecx, DWORD PTR [eax+20]
  01646	51		 push	 ecx
  01647	8d 4d f0	 lea	 ecx, DWORD PTR _stMonsterInfo$233288[ebp]
  0164a	e8 00 00 00 00	 call	 ??C?$_Vector_iterator@V?$_Vector_val@UCASTLEDEEP_MONSTERINFO@@V?$allocator@UCASTLEDEEP_MONSTERINFO@@@std@@@std@@@std@@QBEPAUCASTLEDEEP_MONSTERINFO@@XZ ; std::_Vector_iterator<std::_Vector_val<CASTLEDEEP_MONSTERINFO,std::allocator<CASTLEDEEP_MONSTERINFO> > >::operator->
  0164f	8b 50 10	 mov	 edx, DWORD PTR [eax+16]
  01652	52		 push	 edx
  01653	8d 4d f0	 lea	 ecx, DWORD PTR _stMonsterInfo$233288[ebp]
  01656	e8 00 00 00 00	 call	 ??C?$_Vector_iterator@V?$_Vector_val@UCASTLEDEEP_MONSTERINFO@@V?$allocator@UCASTLEDEEP_MONSTERINFO@@@std@@@std@@@std@@QBEPAUCASTLEDEEP_MONSTERINFO@@XZ ; std::_Vector_iterator<std::_Vector_val<CASTLEDEEP_MONSTERINFO,std::allocator<CASTLEDEEP_MONSTERINFO> > >::operator->
  0165b	8b 40 0c	 mov	 eax, DWORD PTR [eax+12]
  0165e	50		 push	 eax
  0165f	8d 4d ee	 lea	 ecx, DWORD PTR _cSY$233291[ebp]
  01662	51		 push	 ecx
  01663	8d 55 ef	 lea	 edx, DWORD PTR _cSX$233290[ebp]
  01666	52		 push	 edx
  01667	6a 1e		 push	 30			; 0000001eH
  01669	e8 00 00 00 00	 call	 ?gObjGetRandomFreeArea@@YAHHAAE0HHHHH@Z ; gObjGetRandomFreeArea
  0166e	83 c4 20	 add	 esp, 32			; 00000020H
  01671	83 f8 01	 cmp	 eax, 1
  01674	0f 85 84 02 00
	00		 jne	 $LN2@AddMonster

; 536  : 			{
; 537  : 				int result = gObjAddMonster(MAP_INDEX_CASTLESIEGE);

  0167a	6a 1e		 push	 30			; 0000001eH
  0167c	e8 00 00 00 00	 call	 ?gObjAddMonster@@YAFH@Z	; gObjAddMonster
  01681	83 c4 04	 add	 esp, 4
  01684	98		 cwde
  01685	89 45 e4	 mov	 DWORD PTR _result$233299[ebp], eax

; 538  : 
; 539  : 				if (result >= 0)

  01688	83 7d e4 00	 cmp	 DWORD PTR _result$233299[ebp], 0
  0168c	0f 8c 6c 02 00
	00		 jl	 $LN2@AddMonster

; 540  : 				{
; 541  : 					gObj[result].m_PosNum = -1;

  01692	8b 45 e4	 mov	 eax, DWORD PTR _result$233299[ebp]
  01695	69 c0 38 2b 00
	00		 imul	 eax, 11064		; 00002b38H
  0169b	83 c9 ff	 or	 ecx, -1
  0169e	8b 15 00 00 00
	00		 mov	 edx, DWORD PTR ?gObj@@3PAUOBJECTSTRUCT@@A ; gObj
  016a4	66 89 8c 02 b0
	03 00 00	 mov	 WORD PTR [edx+eax+944], cx

; 542  : 					gObj[result].X = cSX;

  016ac	66 0f b6 45 ef	 movzx	 ax, BYTE PTR _cSX$233290[ebp]
  016b1	8b 4d e4	 mov	 ecx, DWORD PTR _result$233299[ebp]
  016b4	69 c9 38 2b 00
	00		 imul	 ecx, 11064		; 00002b38H
  016ba	8b 15 00 00 00
	00		 mov	 edx, DWORD PTR ?gObj@@3PAUOBJECTSTRUCT@@A ; gObj
  016c0	66 89 84 0a 44
	01 00 00	 mov	 WORD PTR [edx+ecx+324], ax

; 543  : 					gObj[result].Y = cSY;

  016c8	66 0f b6 45 ee	 movzx	 ax, BYTE PTR _cSY$233291[ebp]
  016cd	8b 4d e4	 mov	 ecx, DWORD PTR _result$233299[ebp]
  016d0	69 c9 38 2b 00
	00		 imul	 ecx, 11064		; 00002b38H
  016d6	8b 15 00 00 00
	00		 mov	 edx, DWORD PTR ?gObj@@3PAUOBJECTSTRUCT@@A ; gObj
  016dc	66 89 84 0a 46
	01 00 00	 mov	 WORD PTR [edx+ecx+326], ax

; 544  : 					gObj[result].MapNumber = MAP_INDEX_CASTLESIEGE;

  016e4	8b 45 e4	 mov	 eax, DWORD PTR _result$233299[ebp]
  016e7	69 c0 38 2b 00
	00		 imul	 eax, 11064		; 00002b38H
  016ed	8b 0d 00 00 00
	00		 mov	 ecx, DWORD PTR ?gObj@@3PAUOBJECTSTRUCT@@A ; gObj
  016f3	c6 84 01 49 01
	00 00 1e	 mov	 BYTE PTR [ecx+eax+329], 30 ; 0000001eH

; 545  : 					gObj[result].TX = gObj[result].X;

  016fb	8b 45 e4	 mov	 eax, DWORD PTR _result$233299[ebp]
  016fe	69 c0 38 2b 00
	00		 imul	 eax, 11064		; 00002b38H
  01704	8b 4d e4	 mov	 ecx, DWORD PTR _result$233299[ebp]
  01707	69 c9 38 2b 00
	00		 imul	 ecx, 11064		; 00002b38H
  0170d	8b 15 00 00 00
	00		 mov	 edx, DWORD PTR ?gObj@@3PAUOBJECTSTRUCT@@A ; gObj
  01713	8b 35 00 00 00
	00		 mov	 esi, DWORD PTR ?gObj@@3PAUOBJECTSTRUCT@@A ; gObj
  01719	66 8b 84 06 44
	01 00 00	 mov	 ax, WORD PTR [esi+eax+324]
  01721	66 89 84 0a 7c
	01 00 00	 mov	 WORD PTR [edx+ecx+380], ax

; 546  : 					gObj[result].TY = gObj[result].Y;

  01729	8b 45 e4	 mov	 eax, DWORD PTR _result$233299[ebp]
  0172c	69 c0 38 2b 00
	00		 imul	 eax, 11064		; 00002b38H
  01732	8b 4d e4	 mov	 ecx, DWORD PTR _result$233299[ebp]
  01735	69 c9 38 2b 00
	00		 imul	 ecx, 11064		; 00002b38H
  0173b	8b 15 00 00 00
	00		 mov	 edx, DWORD PTR ?gObj@@3PAUOBJECTSTRUCT@@A ; gObj
  01741	8b 35 00 00 00
	00		 mov	 esi, DWORD PTR ?gObj@@3PAUOBJECTSTRUCT@@A ; gObj
  01747	66 8b 84 06 46
	01 00 00	 mov	 ax, WORD PTR [esi+eax+326]
  0174f	66 89 84 0a 7e
	01 00 00	 mov	 WORD PTR [edx+ecx+382], ax

; 547  : 					gObj[result].m_OldX = gObj[result].X;

  01757	8b 45 e4	 mov	 eax, DWORD PTR _result$233299[ebp]
  0175a	69 c0 38 2b 00
	00		 imul	 eax, 11064		; 00002b38H
  01760	8b 4d e4	 mov	 ecx, DWORD PTR _result$233299[ebp]
  01763	69 c9 38 2b 00
	00		 imul	 ecx, 11064		; 00002b38H
  01769	8b 15 00 00 00
	00		 mov	 edx, DWORD PTR ?gObj@@3PAUOBJECTSTRUCT@@A ; gObj
  0176f	8b 35 00 00 00
	00		 mov	 esi, DWORD PTR ?gObj@@3PAUOBJECTSTRUCT@@A ; gObj
  01775	66 8b 84 06 44
	01 00 00	 mov	 ax, WORD PTR [esi+eax+324]
  0177d	66 89 84 0a 78
	01 00 00	 mov	 WORD PTR [edx+ecx+376], ax

; 548  : 					gObj[result].m_OldY = gObj[result].Y;

  01785	8b 45 e4	 mov	 eax, DWORD PTR _result$233299[ebp]
  01788	69 c0 38 2b 00
	00		 imul	 eax, 11064		; 00002b38H
  0178e	8b 4d e4	 mov	 ecx, DWORD PTR _result$233299[ebp]
  01791	69 c9 38 2b 00
	00		 imul	 ecx, 11064		; 00002b38H
  01797	8b 15 00 00 00
	00		 mov	 edx, DWORD PTR ?gObj@@3PAUOBJECTSTRUCT@@A ; gObj
  0179d	8b 35 00 00 00
	00		 mov	 esi, DWORD PTR ?gObj@@3PAUOBJECTSTRUCT@@A ; gObj
  017a3	66 8b 84 06 46
	01 00 00	 mov	 ax, WORD PTR [esi+eax+326]
  017ab	66 89 84 0a 7a
	01 00 00	 mov	 WORD PTR [edx+ecx+378], ax

; 549  : 					gObj[result].Dir = 1;

  017b3	8b 45 e4	 mov	 eax, DWORD PTR _result$233299[ebp]
  017b6	69 c0 38 2b 00
	00		 imul	 eax, 11064		; 00002b38H
  017bc	8b 0d 00 00 00
	00		 mov	 ecx, DWORD PTR ?gObj@@3PAUOBJECTSTRUCT@@A ; gObj
  017c2	c6 84 01 48 01
	00 00 01	 mov	 BYTE PTR [ecx+eax+328], 1

; 550  : 					gObj[result].StartX = gObj[result].X;

  017ca	8b 45 e4	 mov	 eax, DWORD PTR _result$233299[ebp]
  017cd	69 c0 38 2b 00
	00		 imul	 eax, 11064		; 00002b38H
  017d3	8b 4d e4	 mov	 ecx, DWORD PTR _result$233299[ebp]
  017d6	69 c9 38 2b 00
	00		 imul	 ecx, 11064		; 00002b38H
  017dc	8b 15 00 00 00
	00		 mov	 edx, DWORD PTR ?gObj@@3PAUOBJECTSTRUCT@@A ; gObj
  017e2	8b 35 00 00 00
	00		 mov	 esi, DWORD PTR ?gObj@@3PAUOBJECTSTRUCT@@A ; gObj
  017e8	8a 84 06 44 01
	00 00		 mov	 al, BYTE PTR [esi+eax+324]
  017ef	88 84 0a 76 01
	00 00		 mov	 BYTE PTR [edx+ecx+374], al

; 551  : 					gObj[result].StartY = gObj[result].Y;

  017f6	8b 45 e4	 mov	 eax, DWORD PTR _result$233299[ebp]
  017f9	69 c0 38 2b 00
	00		 imul	 eax, 11064		; 00002b38H
  017ff	8b 4d e4	 mov	 ecx, DWORD PTR _result$233299[ebp]
  01802	69 c9 38 2b 00
	00		 imul	 ecx, 11064		; 00002b38H
  01808	8b 15 00 00 00
	00		 mov	 edx, DWORD PTR ?gObj@@3PAUOBJECTSTRUCT@@A ; gObj
  0180e	8b 35 00 00 00
	00		 mov	 esi, DWORD PTR ?gObj@@3PAUOBJECTSTRUCT@@A ; gObj
  01814	8a 84 06 46 01
	00 00		 mov	 al, BYTE PTR [esi+eax+326]
  0181b	88 84 0a 77 01
	00 00		 mov	 BYTE PTR [edx+ecx+375], al

; 552  : 
; 553  : 					gObjSetMonster(result,stMonsterInfo->m_iMonsterType);

  01822	8d 4d f0	 lea	 ecx, DWORD PTR _stMonsterInfo$233288[ebp]
  01825	e8 00 00 00 00	 call	 ??C?$_Vector_iterator@V?$_Vector_val@UCASTLEDEEP_MONSTERINFO@@V?$allocator@UCASTLEDEEP_MONSTERINFO@@@std@@@std@@@std@@QBEPAUCASTLEDEEP_MONSTERINFO@@XZ ; std::_Vector_iterator<std::_Vector_val<CASTLEDEEP_MONSTERINFO,std::allocator<CASTLEDEEP_MONSTERINFO> > >::operator->
  0182a	8b 40 04	 mov	 eax, DWORD PTR [eax+4]
  0182d	50		 push	 eax
  0182e	8b 4d e4	 mov	 ecx, DWORD PTR _result$233299[ebp]
  01831	51		 push	 ecx
  01832	e8 00 00 00 00	 call	 ?gObjSetMonster@@YAHHH@Z ; gObjSetMonster
  01837	83 c4 08	 add	 esp, 8

; 554  : 
; 555  : 					gObj[result].m_Attribute = 62;

  0183a	8b 45 e4	 mov	 eax, DWORD PTR _result$233299[ebp]
  0183d	69 c0 38 2b 00
	00		 imul	 eax, 11064		; 00002b38H
  01843	b9 3e 00 00 00	 mov	 ecx, 62			; 0000003eH
  01848	8b 15 00 00 00
	00		 mov	 edx, DWORD PTR ?gObj@@3PAUOBJECTSTRUCT@@A ; gObj
  0184e	66 89 8c 02 b6
	04 00 00	 mov	 WORD PTR [edx+eax+1206], cx

; 556  : 					gObj[result].MaxRegenTime = 0;

  01856	8b 45 e4	 mov	 eax, DWORD PTR _result$233299[ebp]
  01859	69 c0 38 2b 00
	00		 imul	 eax, 11064		; 00002b38H
  0185f	8b 0d 00 00 00
	00		 mov	 ecx, DWORD PTR ?gObj@@3PAUOBJECTSTRUCT@@A ; gObj
  01865	c7 84 01 ac 03
	00 00 00 00 00
	00		 mov	 DWORD PTR [ecx+eax+940], 0

; 557  : 					gObj[result].Dir = rand()%8;

  01870	e8 00 00 00 00	 call	 _rand
  01875	25 07 00 00 80	 and	 eax, -2147483641	; 80000007H
  0187a	79 05		 jns	 SHORT $LN13@AddMonster
  0187c	48		 dec	 eax
  0187d	83 c8 f8	 or	 eax, -8			; fffffff8H
  01880	40		 inc	 eax
$LN13@AddMonster:
  01881	8b 4d e4	 mov	 ecx, DWORD PTR _result$233299[ebp]
  01884	69 c9 38 2b 00
	00		 imul	 ecx, 11064		; 00002b38H
  0188a	8b 15 00 00 00
	00		 mov	 edx, DWORD PTR ?gObj@@3PAUOBJECTSTRUCT@@A ; gObj
  01890	88 84 0a 48 01
	00 00		 mov	 BYTE PTR [edx+ecx+328], al

; 558  : 					gObj[result].DieRegen = 0;

  01897	8b 45 e4	 mov	 eax, DWORD PTR _result$233299[ebp]
  0189a	69 c0 38 2b 00
	00		 imul	 eax, 11064		; 00002b38H
  018a0	8b 0d 00 00 00
	00		 mov	 ecx, DWORD PTR ?gObj@@3PAUOBJECTSTRUCT@@A ; gObj
  018a6	c6 84 01 a2 03
	00 00 00	 mov	 BYTE PTR [ecx+eax+930], 0

; 559  : 					gObj[result].RegenTime = 1;

  018ae	8b 45 e4	 mov	 eax, DWORD PTR _result$233299[ebp]
  018b1	69 c0 38 2b 00
	00		 imul	 eax, 11064		; 00002b38H
  018b7	8b 0d 00 00 00
	00		 mov	 ecx, DWORD PTR ?gObj@@3PAUOBJECTSTRUCT@@A ; gObj
  018bd	c7 84 01 a8 03
	00 00 01 00 00
	00		 mov	 DWORD PTR [ecx+eax+936], 1

; 560  : 					gObj[result].MaxRegenTime = 1000;

  018c8	8b 45 e4	 mov	 eax, DWORD PTR _result$233299[ebp]
  018cb	69 c0 38 2b 00
	00		 imul	 eax, 11064		; 00002b38H
  018d1	8b 0d 00 00 00
	00		 mov	 ecx, DWORD PTR ?gObj@@3PAUOBJECTSTRUCT@@A ; gObj
  018d7	c7 84 01 ac 03
	00 00 e8 03 00
	00		 mov	 DWORD PTR [ecx+eax+940], 1000 ; 000003e8H

; 561  : 					gObj[result].m_dwLastCheckTick = GetTickCount();

  018e2	ff 15 00 00 00
	00		 call	 DWORD PTR __imp__GetTickCount@0
  018e8	8b 4d e4	 mov	 ecx, DWORD PTR _result$233299[ebp]
  018eb	69 c9 38 2b 00
	00		 imul	 ecx, 11064		; 00002b38H
  018f1	8b 15 00 00 00
	00		 mov	 edx, DWORD PTR ?gObj@@3PAUOBJECTSTRUCT@@A ; gObj
  018f7	89 84 0a c8 1f
	00 00		 mov	 DWORD PTR [edx+ecx+8136], eax
$LN2@AddMonster:

; 562  : 				}
; 563  : 			}
; 564  : 		}

  018fe	e9 0d fd ff ff	 jmp	 $LN4@AddMonster
$LN3@AddMonster:

; 565  : 	}

  01903	e9 b0 fc ff ff	 jmp	 $LN8@AddMonster
$LN11@AddMonster:

; 566  : }

  01908	5f		 pop	 edi
  01909	5e		 pop	 esi
  0190a	5b		 pop	 ebx
  0190b	8b e5		 mov	 esp, ebp
  0190d	5d		 pop	 ebp
  0190e	c2 08 00	 ret	 8
?AddMonster@CCastleDeepEvent@@QAEXHH@Z ENDP		; CCastleDeepEvent::AddMonster
_TEXT	ENDS
PUBLIC	??0?$_Tree@V?$_Tmap_traits@HHU?$less@H@std@@V?$allocator@U?$pair@$$CBHH@std@@@2@$0A@@std@@@std@@QAE@ABU?$less@H@1@ABV?$allocator@U?$pair@$$CBHH@std@@@1@@Z ; std::_Tree<std::_Tmap_traits<int,int,std::less<int>,std::allocator<std::pair<int const ,int> >,0> >::_Tree<std::_Tmap_traits<int,int,std::less<int>,std::allocator<std::pair<int const ,int> >,0> >
PUBLIC	??0?$allocator@U?$pair@$$CBHH@std@@@std@@QAE@XZ	; std::allocator<std::pair<int const ,int> >::allocator<std::pair<int const ,int> >
; Function compile flags: /Odtp /ZI
; File d:\microsoft visual studio 10.0\vc\include\map
;	COMDAT ??0?$map@HHU?$less@H@std@@V?$allocator@U?$pair@$$CBHH@std@@@2@@std@@QAE@XZ
_TEXT	SEGMENT
$T238950 = -70						; size = 1
$T238951 = -69						; size = 1
_this$ = -4						; size = 4
??0?$map@HHU?$less@H@std@@V?$allocator@U?$pair@$$CBHH@std@@@2@@std@@QAE@XZ PROC ; std::map<int,int,std::less<int>,std::allocator<std::pair<int const ,int> > >::map<int,int,std::less<int>,std::allocator<std::pair<int const ,int> > >, COMDAT
; _this$ = ecx

; 106  : 		{	// construct empty map from defaults

  00000	55		 push	 ebp
  00001	8b ec		 mov	 ebp, esp
  00003	83 ec 48	 sub	 esp, 72			; 00000048H
  00006	53		 push	 ebx
  00007	56		 push	 esi
  00008	57		 push	 edi
  00009	89 4d fc	 mov	 DWORD PTR _this$[ebp], ecx
  0000c	8d 4d ba	 lea	 ecx, DWORD PTR $T238950[ebp]
  0000f	e8 00 00 00 00	 call	 ??0?$allocator@U?$pair@$$CBHH@std@@@std@@QAE@XZ ; std::allocator<std::pair<int const ,int> >::allocator<std::pair<int const ,int> >
  00014	50		 push	 eax
  00015	8d 45 bb	 lea	 eax, DWORD PTR $T238951[ebp]
  00018	50		 push	 eax
  00019	8b 4d fc	 mov	 ecx, DWORD PTR _this$[ebp]
  0001c	e8 00 00 00 00	 call	 ??0?$_Tree@V?$_Tmap_traits@HHU?$less@H@std@@V?$allocator@U?$pair@$$CBHH@std@@@2@$0A@@std@@@std@@QAE@ABU?$less@H@1@ABV?$allocator@U?$pair@$$CBHH@std@@@1@@Z ; std::_Tree<std::_Tmap_traits<int,int,std::less<int>,std::allocator<std::pair<int const ,int> >,0> >::_Tree<std::_Tmap_traits<int,int,std::less<int>,std::allocator<std::pair<int const ,int> >,0> >

; 107  : 		}

  00021	8b 45 fc	 mov	 eax, DWORD PTR _this$[ebp]
  00024	5f		 pop	 edi
  00025	5e		 pop	 esi
  00026	5b		 pop	 ebx
  00027	8b e5		 mov	 esp, ebp
  00029	5d		 pop	 ebp
  0002a	c3		 ret	 0
??0?$map@HHU?$less@H@std@@V?$allocator@U?$pair@$$CBHH@std@@@2@@std@@QAE@XZ ENDP ; std::map<int,int,std::less<int>,std::allocator<std::pair<int const ,int> > >::map<int,int,std::less<int>,std::allocator<std::pair<int const ,int> > >
_TEXT	ENDS
PUBLIC	??1?$_Tree_val@V?$_Tmap_traits@HHU?$less@H@std@@V?$allocator@U?$pair@$$CBHH@std@@@2@$0A@@std@@@std@@QAE@XZ ; std::_Tree_val<std::_Tmap_traits<int,int,std::less<int>,std::allocator<std::pair<int const ,int> >,0> >::~_Tree_val<std::_Tmap_traits<int,int,std::less<int>,std::allocator<std::pair<int const ,int> >,0> >
PUBLIC	?_Tidy@?$_Tree@V?$_Tmap_traits@HHU?$less@H@std@@V?$allocator@U?$pair@$$CBHH@std@@@2@$0A@@std@@@std@@IAEXXZ ; std::_Tree<std::_Tmap_traits<int,int,std::less<int>,std::allocator<std::pair<int const ,int> >,0> >::_Tidy
;	COMDAT xdata$x
; File d:\microsoft visual studio 10.0\vc\include\xtree
xdata$x	SEGMENT
__unwindtable$??1?$_Tree@V?$_Tmap_traits@HHU?$less@H@std@@V?$allocator@U?$pair@$$CBHH@std@@@2@$0A@@std@@@std@@QAE@XZ DD 0ffffffffH
	DD	FLAT:__unwindfunclet$??1?$_Tree@V?$_Tmap_traits@HHU?$less@H@std@@V?$allocator@U?$pair@$$CBHH@std@@@2@$0A@@std@@@std@@QAE@XZ$0
__ehfuncinfo$??1?$_Tree@V?$_Tmap_traits@HHU?$less@H@std@@V?$allocator@U?$pair@$$CBHH@std@@@2@$0A@@std@@@std@@QAE@XZ DD 019930522H
	DD	01H
	DD	FLAT:__unwindtable$??1?$_Tree@V?$_Tmap_traits@HHU?$less@H@std@@V?$allocator@U?$pair@$$CBHH@std@@@2@$0A@@std@@@std@@QAE@XZ
	DD	2 DUP(00H)
	DD	2 DUP(00H)
	DD	00H
	DD	01H
; Function compile flags: /Odtp /ZI
xdata$x	ENDS
;	COMDAT ??1?$_Tree@V?$_Tmap_traits@HHU?$less@H@std@@V?$allocator@U?$pair@$$CBHH@std@@@2@$0A@@std@@@std@@QAE@XZ
_TEXT	SEGMENT
_this$ = -16						; size = 4
__$EHRec$ = -12						; size = 12
??1?$_Tree@V?$_Tmap_traits@HHU?$less@H@std@@V?$allocator@U?$pair@$$CBHH@std@@@2@$0A@@std@@@std@@QAE@XZ PROC ; std::_Tree<std::_Tmap_traits<int,int,std::less<int>,std::allocator<std::pair<int const ,int> >,0> >::~_Tree<std::_Tmap_traits<int,int,std::less<int>,std::allocator<std::pair<int const ,int> >,0> >, COMDAT
; _this$ = ecx

; 790  : 		{	// destroy tree

  00000	55		 push	 ebp
  00001	8b ec		 mov	 ebp, esp
  00003	6a ff		 push	 -1
  00005	68 00 00 00 00	 push	 __ehhandler$??1?$_Tree@V?$_Tmap_traits@HHU?$less@H@std@@V?$allocator@U?$pair@$$CBHH@std@@@2@$0A@@std@@@std@@QAE@XZ
  0000a	64 a1 00 00 00
	00		 mov	 eax, DWORD PTR fs:0
  00010	50		 push	 eax
  00011	83 ec 44	 sub	 esp, 68			; 00000044H
  00014	53		 push	 ebx
  00015	56		 push	 esi
  00016	57		 push	 edi
  00017	a1 00 00 00 00	 mov	 eax, DWORD PTR ___security_cookie
  0001c	33 c5		 xor	 eax, ebp
  0001e	50		 push	 eax
  0001f	8d 45 f4	 lea	 eax, DWORD PTR __$EHRec$[ebp]
  00022	64 a3 00 00 00
	00		 mov	 DWORD PTR fs:0, eax
  00028	89 4d f0	 mov	 DWORD PTR _this$[ebp], ecx
  0002b	c7 45 fc 00 00
	00 00		 mov	 DWORD PTR __$EHRec$[ebp+8], 0

; 791  : 		_Tidy();

  00032	8b 4d f0	 mov	 ecx, DWORD PTR _this$[ebp]
  00035	e8 00 00 00 00	 call	 ?_Tidy@?$_Tree@V?$_Tmap_traits@HHU?$less@H@std@@V?$allocator@U?$pair@$$CBHH@std@@@2@$0A@@std@@@std@@IAEXXZ ; std::_Tree<std::_Tmap_traits<int,int,std::less<int>,std::allocator<std::pair<int const ,int> >,0> >::_Tidy

; 792  : 		}

  0003a	c7 45 fc ff ff
	ff ff		 mov	 DWORD PTR __$EHRec$[ebp+8], -1
  00041	8b 4d f0	 mov	 ecx, DWORD PTR _this$[ebp]
  00044	e8 00 00 00 00	 call	 ??1?$_Tree_val@V?$_Tmap_traits@HHU?$less@H@std@@V?$allocator@U?$pair@$$CBHH@std@@@2@$0A@@std@@@std@@QAE@XZ ; std::_Tree_val<std::_Tmap_traits<int,int,std::less<int>,std::allocator<std::pair<int const ,int> >,0> >::~_Tree_val<std::_Tmap_traits<int,int,std::less<int>,std::allocator<std::pair<int const ,int> >,0> >
  00049	8b 4d f4	 mov	 ecx, DWORD PTR __$EHRec$[ebp]
  0004c	64 89 0d 00 00
	00 00		 mov	 DWORD PTR fs:0, ecx
  00053	59		 pop	 ecx
  00054	5f		 pop	 edi
  00055	5e		 pop	 esi
  00056	5b		 pop	 ebx
  00057	8b e5		 mov	 esp, ebp
  00059	5d		 pop	 ebp
  0005a	c3		 ret	 0
_TEXT	ENDS
;	COMDAT text$x
text$x	SEGMENT
__unwindfunclet$??1?$_Tree@V?$_Tmap_traits@HHU?$less@H@std@@V?$allocator@U?$pair@$$CBHH@std@@@2@$0A@@std@@@std@@QAE@XZ$0:
  00000	8b 4d f0	 mov	 ecx, DWORD PTR _this$[ebp]
  00003	e9 00 00 00 00	 jmp	 ??1?$_Tree_val@V?$_Tmap_traits@HHU?$less@H@std@@V?$allocator@U?$pair@$$CBHH@std@@@2@$0A@@std@@@std@@QAE@XZ ; std::_Tree_val<std::_Tmap_traits<int,int,std::less<int>,std::allocator<std::pair<int const ,int> >,0> >::~_Tree_val<std::_Tmap_traits<int,int,std::less<int>,std::allocator<std::pair<int const ,int> >,0> >
__ehhandler$??1?$_Tree@V?$_Tmap_traits@HHU?$less@H@std@@V?$allocator@U?$pair@$$CBHH@std@@@2@$0A@@std@@@std@@QAE@XZ:
  00008	8b 54 24 08	 mov	 edx, DWORD PTR [esp+8]
  0000c	8d 42 0c	 lea	 eax, DWORD PTR [edx+12]
  0000f	8b 4a ac	 mov	 ecx, DWORD PTR [edx-84]
  00012	33 c8		 xor	 ecx, eax
  00014	e8 00 00 00 00	 call	 @__security_check_cookie@4
  00019	b8 00 00 00 00	 mov	 eax, OFFSET __ehfuncinfo$??1?$_Tree@V?$_Tmap_traits@HHU?$less@H@std@@V?$allocator@U?$pair@$$CBHH@std@@@2@$0A@@std@@@std@@QAE@XZ
  0001e	e9 00 00 00 00	 jmp	 ___CxxFrameHandler3
text$x	ENDS
??1?$_Tree@V?$_Tmap_traits@HHU?$less@H@std@@V?$allocator@U?$pair@$$CBHH@std@@@2@$0A@@std@@@std@@QAE@XZ ENDP ; std::_Tree<std::_Tmap_traits<int,int,std::less<int>,std::allocator<std::pair<int const ,int> >,0> >::~_Tree<std::_Tmap_traits<int,int,std::less<int>,std::allocator<std::pair<int const ,int> >,0> >
PUBLIC	??0?$_Tree_iterator@V?$_Tree_val@V?$_Tmap_traits@HHU?$less@H@std@@V?$allocator@U?$pair@$$CBHH@std@@@2@$0A@@std@@@std@@@std@@QAE@PAU_Node@?$_Tree_nod@V?$_Tmap_traits@HHU?$less@H@std@@V?$allocator@U?$pair@$$CBHH@std@@@2@$0A@@std@@@1@PBV?$_Tree_val@V?$_Tmap_traits@HHU?$less@H@std@@V?$allocator@U?$pair@$$CBHH@std@@@2@$0A@@std@@@1@@Z ; std::_Tree_iterator<std::_Tree_val<std::_Tmap_traits<int,int,std::less<int>,std::allocator<std::pair<int const ,int> >,0> > >::_Tree_iterator<std::_Tree_val<std::_Tmap_traits<int,int,std::less<int>,std::allocator<std::pair<int const ,int> >,0> > >
PUBLIC	?_Lmost@?$_Tree@V?$_Tmap_traits@HHU?$less@H@std@@V?$allocator@U?$pair@$$CBHH@std@@@2@$0A@@std@@@std@@IBEAAPAU_Node@?$_Tree_nod@V?$_Tmap_traits@HHU?$less@H@std@@V?$allocator@U?$pair@$$CBHH@std@@@2@$0A@@std@@@2@XZ ; std::_Tree<std::_Tmap_traits<int,int,std::less<int>,std::allocator<std::pair<int const ,int> >,0> >::_Lmost
; Function compile flags: /Odtp /ZI
;	COMDAT ?begin@?$_Tree@V?$_Tmap_traits@HHU?$less@H@std@@V?$allocator@U?$pair@$$CBHH@std@@@2@$0A@@std@@@std@@QAE?AV?$_Tree_iterator@V?$_Tree_val@V?$_Tmap_traits@HHU?$less@H@std@@V?$allocator@U?$pair@$$CBHH@std@@@2@$0A@@std@@@std@@@2@XZ
_TEXT	SEGMENT
_this$ = -4						; size = 4
___$ReturnUdt$ = 8					; size = 4
?begin@?$_Tree@V?$_Tmap_traits@HHU?$less@H@std@@V?$allocator@U?$pair@$$CBHH@std@@@2@$0A@@std@@@std@@QAE?AV?$_Tree_iterator@V?$_Tree_val@V?$_Tmap_traits@HHU?$less@H@std@@V?$allocator@U?$pair@$$CBHH@std@@@2@$0A@@std@@@std@@@2@XZ PROC ; std::_Tree<std::_Tmap_traits<int,int,std::less<int>,std::allocator<std::pair<int const ,int> >,0> >::begin, COMDAT
; _this$ = ecx

; 806  : 		{	// return iterator for beginning of mutable sequence

  00000	55		 push	 ebp
  00001	8b ec		 mov	 ebp, esp
  00003	83 ec 44	 sub	 esp, 68			; 00000044H
  00006	53		 push	 ebx
  00007	56		 push	 esi
  00008	57		 push	 edi
  00009	89 4d fc	 mov	 DWORD PTR _this$[ebp], ecx

; 807  : 		return (iterator(_Lmost(), this));

  0000c	8b 45 fc	 mov	 eax, DWORD PTR _this$[ebp]
  0000f	50		 push	 eax
  00010	8b 4d fc	 mov	 ecx, DWORD PTR _this$[ebp]
  00013	e8 00 00 00 00	 call	 ?_Lmost@?$_Tree@V?$_Tmap_traits@HHU?$less@H@std@@V?$allocator@U?$pair@$$CBHH@std@@@2@$0A@@std@@@std@@IBEAAPAU_Node@?$_Tree_nod@V?$_Tmap_traits@HHU?$less@H@std@@V?$allocator@U?$pair@$$CBHH@std@@@2@$0A@@std@@@2@XZ ; std::_Tree<std::_Tmap_traits<int,int,std::less<int>,std::allocator<std::pair<int const ,int> >,0> >::_Lmost
  00018	8b 08		 mov	 ecx, DWORD PTR [eax]
  0001a	51		 push	 ecx
  0001b	8b 4d 08	 mov	 ecx, DWORD PTR ___$ReturnUdt$[ebp]
  0001e	e8 00 00 00 00	 call	 ??0?$_Tree_iterator@V?$_Tree_val@V?$_Tmap_traits@HHU?$less@H@std@@V?$allocator@U?$pair@$$CBHH@std@@@2@$0A@@std@@@std@@@std@@QAE@PAU_Node@?$_Tree_nod@V?$_Tmap_traits@HHU?$less@H@std@@V?$allocator@U?$pair@$$CBHH@std@@@2@$0A@@std@@@1@PBV?$_Tree_val@V?$_Tmap_traits@HHU?$less@H@std@@V?$allocator@U?$pair@$$CBHH@std@@@2@$0A@@std@@@1@@Z ; std::_Tree_iterator<std::_Tree_val<std::_Tmap_traits<int,int,std::less<int>,std::allocator<std::pair<int const ,int> >,0> > >::_Tree_iterator<std::_Tree_val<std::_Tmap_traits<int,int,std::less<int>,std::allocator<std::pair<int const ,int> >,0> > >
  00023	8b 45 08	 mov	 eax, DWORD PTR ___$ReturnUdt$[ebp]

; 808  : 		}

  00026	5f		 pop	 edi
  00027	5e		 pop	 esi
  00028	5b		 pop	 ebx
  00029	8b e5		 mov	 esp, ebp
  0002b	5d		 pop	 ebp
  0002c	c2 04 00	 ret	 4
?begin@?$_Tree@V?$_Tmap_traits@HHU?$less@H@std@@V?$allocator@U?$pair@$$CBHH@std@@@2@$0A@@std@@@std@@QAE?AV?$_Tree_iterator@V?$_Tree_val@V?$_Tmap_traits@HHU?$less@H@std@@V?$allocator@U?$pair@$$CBHH@std@@@2@$0A@@std@@@std@@@2@XZ ENDP ; std::_Tree<std::_Tmap_traits<int,int,std::less<int>,std::allocator<std::pair<int const ,int> >,0> >::begin
; Function compile flags: /Odtp /ZI
_TEXT	ENDS
;	COMDAT ?end@?$_Tree@V?$_Tmap_traits@HHU?$less@H@std@@V?$allocator@U?$pair@$$CBHH@std@@@2@$0A@@std@@@std@@QAE?AV?$_Tree_iterator@V?$_Tree_val@V?$_Tmap_traits@HHU?$less@H@std@@V?$allocator@U?$pair@$$CBHH@std@@@2@$0A@@std@@@std@@@2@XZ
_TEXT	SEGMENT
_this$ = -4						; size = 4
___$ReturnUdt$ = 8					; size = 4
?end@?$_Tree@V?$_Tmap_traits@HHU?$less@H@std@@V?$allocator@U?$pair@$$CBHH@std@@@2@$0A@@std@@@std@@QAE?AV?$_Tree_iterator@V?$_Tree_val@V?$_Tmap_traits@HHU?$less@H@std@@V?$allocator@U?$pair@$$CBHH@std@@@2@$0A@@std@@@std@@@2@XZ PROC ; std::_Tree<std::_Tmap_traits<int,int,std::less<int>,std::allocator<std::pair<int const ,int> >,0> >::end, COMDAT
; _this$ = ecx

; 816  : 		{	// return iterator for end of mutable sequence

  00000	55		 push	 ebp
  00001	8b ec		 mov	 ebp, esp
  00003	83 ec 44	 sub	 esp, 68			; 00000044H
  00006	53		 push	 ebx
  00007	56		 push	 esi
  00008	57		 push	 edi
  00009	89 4d fc	 mov	 DWORD PTR _this$[ebp], ecx

; 817  : 		return (iterator(this->_Myhead, this));

  0000c	8b 45 fc	 mov	 eax, DWORD PTR _this$[ebp]
  0000f	50		 push	 eax
  00010	8b 4d fc	 mov	 ecx, DWORD PTR _this$[ebp]
  00013	8b 51 04	 mov	 edx, DWORD PTR [ecx+4]
  00016	52		 push	 edx
  00017	8b 4d 08	 mov	 ecx, DWORD PTR ___$ReturnUdt$[ebp]
  0001a	e8 00 00 00 00	 call	 ??0?$_Tree_iterator@V?$_Tree_val@V?$_Tmap_traits@HHU?$less@H@std@@V?$allocator@U?$pair@$$CBHH@std@@@2@$0A@@std@@@std@@@std@@QAE@PAU_Node@?$_Tree_nod@V?$_Tmap_traits@HHU?$less@H@std@@V?$allocator@U?$pair@$$CBHH@std@@@2@$0A@@std@@@1@PBV?$_Tree_val@V?$_Tmap_traits@HHU?$less@H@std@@V?$allocator@U?$pair@$$CBHH@std@@@2@$0A@@std@@@1@@Z ; std::_Tree_iterator<std::_Tree_val<std::_Tmap_traits<int,int,std::less<int>,std::allocator<std::pair<int const ,int> >,0> > >::_Tree_iterator<std::_Tree_val<std::_Tmap_traits<int,int,std::less<int>,std::allocator<std::pair<int const ,int> >,0> > >
  0001f	8b 45 08	 mov	 eax, DWORD PTR ___$ReturnUdt$[ebp]

; 818  : 		}

  00022	5f		 pop	 edi
  00023	5e		 pop	 esi
  00024	5b		 pop	 ebx
  00025	8b e5		 mov	 esp, ebp
  00027	5d		 pop	 ebp
  00028	c2 04 00	 ret	 4
?end@?$_Tree@V?$_Tmap_traits@HHU?$less@H@std@@V?$allocator@U?$pair@$$CBHH@std@@@2@$0A@@std@@@std@@QAE?AV?$_Tree_iterator@V?$_Tree_val@V?$_Tmap_traits@HHU?$less@H@std@@V?$allocator@U?$pair@$$CBHH@std@@@2@$0A@@std@@@std@@@2@XZ ENDP ; std::_Tree<std::_Tmap_traits<int,int,std::less<int>,std::allocator<std::pair<int const ,int> >,0> >::end
; Function compile flags: /Odtp /ZI
_TEXT	ENDS
;	COMDAT ?size@?$_Tree@V?$_Tmap_traits@HHU?$less@H@std@@V?$allocator@U?$pair@$$CBHH@std@@@2@$0A@@std@@@std@@QBEIXZ
_TEXT	SEGMENT
_this$ = -4						; size = 4
?size@?$_Tree@V?$_Tmap_traits@HHU?$less@H@std@@V?$allocator@U?$pair@$$CBHH@std@@@2@$0A@@std@@@std@@QBEIXZ PROC ; std::_Tree<std::_Tmap_traits<int,int,std::less<int>,std::allocator<std::pair<int const ,int> >,0> >::size, COMDAT
; _this$ = ecx

; 868  : 		{	// return length of sequence

  00000	55		 push	 ebp
  00001	8b ec		 mov	 ebp, esp
  00003	83 ec 44	 sub	 esp, 68			; 00000044H
  00006	53		 push	 ebx
  00007	56		 push	 esi
  00008	57		 push	 edi
  00009	89 4d fc	 mov	 DWORD PTR _this$[ebp], ecx

; 869  : 		return (this->_Mysize);

  0000c	8b 45 fc	 mov	 eax, DWORD PTR _this$[ebp]
  0000f	8b 40 08	 mov	 eax, DWORD PTR [eax+8]

; 870  : 		}

  00012	5f		 pop	 edi
  00013	5e		 pop	 esi
  00014	5b		 pop	 ebx
  00015	8b e5		 mov	 esp, ebp
  00017	5d		 pop	 ebp
  00018	c3		 ret	 0
?size@?$_Tree@V?$_Tmap_traits@HHU?$less@H@std@@V?$allocator@U?$pair@$$CBHH@std@@@2@$0A@@std@@@std@@QBEIXZ ENDP ; std::_Tree<std::_Tmap_traits<int,int,std::less<int>,std::allocator<std::pair<int const ,int> >,0> >::size
_TEXT	ENDS
PUBLIC	?deallocate@?$allocator@U_Node@?$_Tree_nod@V?$_Tmap_traits@HHU?$less@H@std@@V?$allocator@U?$pair@$$CBHH@std@@@2@$0A@@std@@@std@@@std@@QAEXPAU_Node@?$_Tree_nod@V?$_Tmap_traits@HHU?$less@H@std@@V?$allocator@U?$pair@$$CBHH@std@@@2@$0A@@std@@@2@I@Z ; std::allocator<std::_Tree_nod<std::_Tmap_traits<int,int,std::less<int>,std::allocator<std::pair<int const ,int> >,0> >::_Node>::deallocate
PUBLIC	??$_Dest_val@V?$allocator@U?$pair@$$CBHH@std@@@std@@U?$pair@$$CBHH@2@@std@@YAXAAV?$allocator@U?$pair@$$CBHH@std@@@0@PAU?$pair@$$CBHH@0@@Z ; std::_Dest_val<std::allocator<std::pair<int const ,int> >,std::pair<int const ,int> >
PUBLIC	??$addressof@U?$pair@$$CBHH@std@@@std@@YAPAU?$pair@$$CBHH@0@AAU10@@Z ; std::addressof<std::pair<int const ,int> >
PUBLIC	?_Myval@?$_Tree_val@V?$_Tmap_traits@HHU?$less@H@std@@V?$allocator@U?$pair@$$CBHH@std@@@2@$0A@@std@@@std@@SAAAU?$pair@$$CBHH@2@PAU_Node@?$_Tree_nod@V?$_Tmap_traits@HHU?$less@H@std@@V?$allocator@U?$pair@$$CBHH@std@@@2@$0A@@std@@@2@@Z ; std::_Tree_val<std::_Tmap_traits<int,int,std::less<int>,std::allocator<std::pair<int const ,int> >,0> >::_Myval
PUBLIC	?_Rrotate@?$_Tree@V?$_Tmap_traits@HHU?$less@H@std@@V?$allocator@U?$pair@$$CBHH@std@@@2@$0A@@std@@@std@@IAEXPAU_Node@?$_Tree_nod@V?$_Tmap_traits@HHU?$less@H@std@@V?$allocator@U?$pair@$$CBHH@std@@@2@$0A@@std@@@2@@Z ; std::_Tree<std::_Tmap_traits<int,int,std::less<int>,std::allocator<std::pair<int const ,int> >,0> >::_Rrotate
PUBLIC	?_Lrotate@?$_Tree@V?$_Tmap_traits@HHU?$less@H@std@@V?$allocator@U?$pair@$$CBHH@std@@@2@$0A@@std@@@std@@IAEXPAU_Node@?$_Tree_nod@V?$_Tmap_traits@HHU?$less@H@std@@V?$allocator@U?$pair@$$CBHH@std@@@2@$0A@@std@@@2@@Z ; std::_Tree<std::_Tmap_traits<int,int,std::less<int>,std::allocator<std::pair<int const ,int> >,0> >::_Lrotate
PUBLIC	??$swap@D@std@@YAXAAD0@Z			; std::swap<char>
PUBLIC	?_Color@?$_Tree_val@V?$_Tmap_traits@HHU?$less@H@std@@V?$allocator@U?$pair@$$CBHH@std@@@2@$0A@@std@@@std@@SAAADPAU_Node@?$_Tree_nod@V?$_Tmap_traits@HHU?$less@H@std@@V?$allocator@U?$pair@$$CBHH@std@@@2@$0A@@std@@@2@@Z ; std::_Tree_val<std::_Tmap_traits<int,int,std::less<int>,std::allocator<std::pair<int const ,int> >,0> >::_Color
PUBLIC	?_Max@?$_Tree_val@V?$_Tmap_traits@HHU?$less@H@std@@V?$allocator@U?$pair@$$CBHH@std@@@2@$0A@@std@@@std@@SAPAU_Node@?$_Tree_nod@V?$_Tmap_traits@HHU?$less@H@std@@V?$allocator@U?$pair@$$CBHH@std@@@2@$0A@@std@@@2@PAU342@@Z ; std::_Tree_val<std::_Tmap_traits<int,int,std::less<int>,std::allocator<std::pair<int const ,int> >,0> >::_Max
PUBLIC	?_Rmost@?$_Tree@V?$_Tmap_traits@HHU?$less@H@std@@V?$allocator@U?$pair@$$CBHH@std@@@2@$0A@@std@@@std@@IBEAAPAU_Node@?$_Tree_nod@V?$_Tmap_traits@HHU?$less@H@std@@V?$allocator@U?$pair@$$CBHH@std@@@2@$0A@@std@@@2@XZ ; std::_Tree<std::_Tmap_traits<int,int,std::less<int>,std::allocator<std::pair<int const ,int> >,0> >::_Rmost
PUBLIC	?_Min@?$_Tree_val@V?$_Tmap_traits@HHU?$less@H@std@@V?$allocator@U?$pair@$$CBHH@std@@@2@$0A@@std@@@std@@SAPAU_Node@?$_Tree_nod@V?$_Tmap_traits@HHU?$less@H@std@@V?$allocator@U?$pair@$$CBHH@std@@@2@$0A@@std@@@2@PAU342@@Z ; std::_Tree_val<std::_Tmap_traits<int,int,std::less<int>,std::allocator<std::pair<int const ,int> >,0> >::_Min
PUBLIC	?_Root@?$_Tree@V?$_Tmap_traits@HHU?$less@H@std@@V?$allocator@U?$pair@$$CBHH@std@@@2@$0A@@std@@@std@@IBEAAPAU_Node@?$_Tree_nod@V?$_Tmap_traits@HHU?$less@H@std@@V?$allocator@U?$pair@$$CBHH@std@@@2@$0A@@std@@@2@XZ ; std::_Tree<std::_Tmap_traits<int,int,std::less<int>,std::allocator<std::pair<int const ,int> >,0> >::_Root
PUBLIC	?_Parent@?$_Tree_val@V?$_Tmap_traits@HHU?$less@H@std@@V?$allocator@U?$pair@$$CBHH@std@@@2@$0A@@std@@@std@@SAAAPAU_Node@?$_Tree_nod@V?$_Tmap_traits@HHU?$less@H@std@@V?$allocator@U?$pair@$$CBHH@std@@@2@$0A@@std@@@2@PAU342@@Z ; std::_Tree_val<std::_Tmap_traits<int,int,std::less<int>,std::allocator<std::pair<int const ,int> >,0> >::_Parent
PUBLIC	?_Right@?$_Tree_val@V?$_Tmap_traits@HHU?$less@H@std@@V?$allocator@U?$pair@$$CBHH@std@@@2@$0A@@std@@@std@@SAAAPAU_Node@?$_Tree_nod@V?$_Tmap_traits@HHU?$less@H@std@@V?$allocator@U?$pair@$$CBHH@std@@@2@$0A@@std@@@2@PAU342@@Z ; std::_Tree_val<std::_Tmap_traits<int,int,std::less<int>,std::allocator<std::pair<int const ,int> >,0> >::_Right
PUBLIC	?_Left@?$_Tree_val@V?$_Tmap_traits@HHU?$less@H@std@@V?$allocator@U?$pair@$$CBHH@std@@@2@$0A@@std@@@std@@SAAAPAU_Node@?$_Tree_nod@V?$_Tmap_traits@HHU?$less@H@std@@V?$allocator@U?$pair@$$CBHH@std@@@2@$0A@@std@@@2@PAU342@@Z ; std::_Tree_val<std::_Tmap_traits<int,int,std::less<int>,std::allocator<std::pair<int const ,int> >,0> >::_Left
PUBLIC	??E?$_Tree_const_iterator@V?$_Tree_val@V?$_Tmap_traits@HHU?$less@H@std@@V?$allocator@U?$pair@$$CBHH@std@@@2@$0A@@std@@@std@@@std@@QAEAAV01@XZ ; std::_Tree_const_iterator<std::_Tree_val<std::_Tmap_traits<int,int,std::less<int>,std::allocator<std::pair<int const ,int> >,0> > >::operator++
PUBLIC	??_C@_0BM@PAPJHAGI@invalid?5map?1set?$DMT?$DO?5iterator?$AA@ ; `string'
PUBLIC	?_Isnil@?$_Tree_val@V?$_Tmap_traits@HHU?$less@H@std@@V?$allocator@U?$pair@$$CBHH@std@@@2@$0A@@std@@@std@@SAAADPAU_Node@?$_Tree_nod@V?$_Tmap_traits@HHU?$less@H@std@@V?$allocator@U?$pair@$$CBHH@std@@@2@$0A@@std@@@2@@Z ; std::_Tree_val<std::_Tmap_traits<int,int,std::less<int>,std::allocator<std::pair<int const ,int> >,0> >::_Isnil
PUBLIC	?_Mynode@?$_Tree_unchecked_const_iterator@V?$_Tree_val@V?$_Tmap_traits@HHU?$less@H@std@@V?$allocator@U?$pair@$$CBHH@std@@@2@$0A@@std@@@std@@U_Iterator_base0@2@@std@@QBEPAU_Node@?$_Tree_nod@V?$_Tmap_traits@HHU?$less@H@std@@V?$allocator@U?$pair@$$CBHH@std@@@2@$0A@@std@@@2@XZ ; std::_Tree_unchecked_const_iterator<std::_Tree_val<std::_Tmap_traits<int,int,std::less<int>,std::allocator<std::pair<int const ,int> >,0> >,std::_Iterator_base0>::_Mynode
EXTRN	?_Xout_of_range@std@@YAXPBD@Z:PROC		; std::_Xout_of_range
;	COMDAT ??_C@_0BM@PAPJHAGI@invalid?5map?1set?$DMT?$DO?5iterator?$AA@
CONST	SEGMENT
??_C@_0BM@PAPJHAGI@invalid?5map?1set?$DMT?$DO?5iterator?$AA@ DB 'invalid '
	DB	'map/set<T> iterator', 00H			; `string'
; Function compile flags: /Odtp /ZI
CONST	ENDS
;	COMDAT ?erase@?$_Tree@V?$_Tmap_traits@HHU?$less@H@std@@V?$allocator@U?$pair@$$CBHH@std@@@2@$0A@@std@@@std@@QAE?AV?$_Tree_iterator@V?$_Tree_val@V?$_Tmap_traits@HHU?$less@H@std@@V?$allocator@U?$pair@$$CBHH@std@@@2@$0A@@std@@@std@@@2@V?$_Tree_const_iterator@V?$_Tree_val@V?$_Tmap_traits@HHU?$less@H@std@@V?$allocator@U?$pair@$$CBHH@std@@@2@$0A@@std@@@std@@@2@@Z
_TEXT	SEGMENT
tv182 = -88						; size = 4
tv170 = -88						; size = 4
__Pnode$ = -20						; size = 4
__Fixnodeparent$ = -16					; size = 4
__Fixnode$ = -12					; size = 4
__Erasednode$ = -8					; size = 4
_this$ = -4						; size = 4
___$ReturnUdt$ = 8					; size = 4
__Where$ = 12						; size = 4
?erase@?$_Tree@V?$_Tmap_traits@HHU?$less@H@std@@V?$allocator@U?$pair@$$CBHH@std@@@2@$0A@@std@@@std@@QAE?AV?$_Tree_iterator@V?$_Tree_val@V?$_Tmap_traits@HHU?$less@H@std@@V?$allocator@U?$pair@$$CBHH@std@@@2@$0A@@std@@@std@@@2@V?$_Tree_const_iterator@V?$_Tree_val@V?$_Tmap_traits@HHU?$less@H@std@@V?$allocator@U?$pair@$$CBHH@std@@@2@$0A@@std@@@std@@@2@@Z PROC ; std::_Tree<std::_Tmap_traits<int,int,std::less<int>,std::allocator<std::pair<int const ,int> >,0> >::erase, COMDAT
; _this$ = ecx

; 1195 : 		{	// erase element at _Where

  00000	55		 push	 ebp
  00001	8b ec		 mov	 ebp, esp
  00003	83 ec 58	 sub	 esp, 88			; 00000058H
  00006	53		 push	 ebx
  00007	56		 push	 esi
  00008	57		 push	 edi
  00009	89 4d fc	 mov	 DWORD PTR _this$[ebp], ecx

; 1196 :  #if _ITERATOR_DEBUG_LEVEL == 2
; 1197 : 		if (_Where._Getcont() != this || this->_Isnil(_Where._Mynode()))
; 1198 : 			_DEBUG_ERROR("map/set erase iterator outside range");
; 1199 : 		_Nodeptr _Erasednode = _Where._Mynode();	// node to erase
; 1200 : 		++_Where;	// save successor iterator for return
; 1201 : 		_Orphan_ptr(*this, _Erasednode);
; 1202 : 
; 1203 :  #else /* _ITERATOR_DEBUG_LEVEL == 2 */
; 1204 : 		if (this->_Isnil(_Where._Mynode()))

  0000c	8d 4d 0c	 lea	 ecx, DWORD PTR __Where$[ebp]
  0000f	e8 00 00 00 00	 call	 ?_Mynode@?$_Tree_unchecked_const_iterator@V?$_Tree_val@V?$_Tmap_traits@HHU?$less@H@std@@V?$allocator@U?$pair@$$CBHH@std@@@2@$0A@@std@@@std@@U_Iterator_base0@2@@std@@QBEPAU_Node@?$_Tree_nod@V?$_Tmap_traits@HHU?$less@H@std@@V?$allocator@U?$pair@$$CBHH@std@@@2@$0A@@std@@@2@XZ ; std::_Tree_unchecked_const_iterator<std::_Tree_val<std::_Tmap_traits<int,int,std::less<int>,std::allocator<std::pair<int const ,int> >,0> >,std::_Iterator_base0>::_Mynode
  00014	50		 push	 eax
  00015	e8 00 00 00 00	 call	 ?_Isnil@?$_Tree_val@V?$_Tmap_traits@HHU?$less@H@std@@V?$allocator@U?$pair@$$CBHH@std@@@2@$0A@@std@@@std@@SAAADPAU_Node@?$_Tree_nod@V?$_Tmap_traits@HHU?$less@H@std@@V?$allocator@U?$pair@$$CBHH@std@@@2@$0A@@std@@@2@@Z ; std::_Tree_val<std::_Tmap_traits<int,int,std::less<int>,std::allocator<std::pair<int const ,int> >,0> >::_Isnil
  0001a	83 c4 04	 add	 esp, 4
  0001d	0f be 00	 movsx	 eax, BYTE PTR [eax]
  00020	85 c0		 test	 eax, eax
  00022	74 0a		 je	 SHORT $LN40@erase

; 1205 : 			_Xout_of_range("invalid map/set<T> iterator");

  00024	68 00 00 00 00	 push	 OFFSET ??_C@_0BM@PAPJHAGI@invalid?5map?1set?$DMT?$DO?5iterator?$AA@
  00029	e8 00 00 00 00	 call	 ?_Xout_of_range@std@@YAXPBD@Z ; std::_Xout_of_range
$LN40@erase:

; 1206 : 		_Nodeptr _Erasednode = _Where._Mynode();	// node to erase

  0002e	8d 4d 0c	 lea	 ecx, DWORD PTR __Where$[ebp]
  00031	e8 00 00 00 00	 call	 ?_Mynode@?$_Tree_unchecked_const_iterator@V?$_Tree_val@V?$_Tmap_traits@HHU?$less@H@std@@V?$allocator@U?$pair@$$CBHH@std@@@2@$0A@@std@@@std@@U_Iterator_base0@2@@std@@QBEPAU_Node@?$_Tree_nod@V?$_Tmap_traits@HHU?$less@H@std@@V?$allocator@U?$pair@$$CBHH@std@@@2@$0A@@std@@@2@XZ ; std::_Tree_unchecked_const_iterator<std::_Tree_val<std::_Tmap_traits<int,int,std::less<int>,std::allocator<std::pair<int const ,int> >,0> >,std::_Iterator_base0>::_Mynode
  00036	89 45 f8	 mov	 DWORD PTR __Erasednode$[ebp], eax

; 1207 : 		++_Where;	// save successor iterator for return

  00039	8d 4d 0c	 lea	 ecx, DWORD PTR __Where$[ebp]
  0003c	e8 00 00 00 00	 call	 ??E?$_Tree_const_iterator@V?$_Tree_val@V?$_Tmap_traits@HHU?$less@H@std@@V?$allocator@U?$pair@$$CBHH@std@@@2@$0A@@std@@@std@@@std@@QAEAAV01@XZ ; std::_Tree_const_iterator<std::_Tree_val<std::_Tmap_traits<int,int,std::less<int>,std::allocator<std::pair<int const ,int> >,0> > >::operator++

; 1208 :  #endif /* _ITERATOR_DEBUG_LEVEL == 2 */
; 1209 : 
; 1210 : 		_Nodeptr _Fixnode;	// the node to recolor as needed
; 1211 : 		_Nodeptr _Fixnodeparent;	// parent of _Fixnode (which may be nil)
; 1212 : 		_Nodeptr _Pnode = _Erasednode;

  00041	8b 45 f8	 mov	 eax, DWORD PTR __Erasednode$[ebp]
  00044	89 45 ec	 mov	 DWORD PTR __Pnode$[ebp], eax

; 1213 : 
; 1214 : 		if (this->_Isnil(this->_Left(_Pnode)))

  00047	8b 45 ec	 mov	 eax, DWORD PTR __Pnode$[ebp]
  0004a	50		 push	 eax
  0004b	e8 00 00 00 00	 call	 ?_Left@?$_Tree_val@V?$_Tmap_traits@HHU?$less@H@std@@V?$allocator@U?$pair@$$CBHH@std@@@2@$0A@@std@@@std@@SAAAPAU_Node@?$_Tree_nod@V?$_Tmap_traits@HHU?$less@H@std@@V?$allocator@U?$pair@$$CBHH@std@@@2@$0A@@std@@@2@PAU342@@Z ; std::_Tree_val<std::_Tmap_traits<int,int,std::less<int>,std::allocator<std::pair<int const ,int> >,0> >::_Left
  00050	83 c4 04	 add	 esp, 4
  00053	8b 08		 mov	 ecx, DWORD PTR [eax]
  00055	51		 push	 ecx
  00056	e8 00 00 00 00	 call	 ?_Isnil@?$_Tree_val@V?$_Tmap_traits@HHU?$less@H@std@@V?$allocator@U?$pair@$$CBHH@std@@@2@$0A@@std@@@std@@SAAADPAU_Node@?$_Tree_nod@V?$_Tmap_traits@HHU?$less@H@std@@V?$allocator@U?$pair@$$CBHH@std@@@2@$0A@@std@@@2@@Z ; std::_Tree_val<std::_Tmap_traits<int,int,std::less<int>,std::allocator<std::pair<int const ,int> >,0> >::_Isnil
  0005b	83 c4 04	 add	 esp, 4
  0005e	0f be 10	 movsx	 edx, BYTE PTR [eax]
  00061	85 d2		 test	 edx, edx
  00063	74 13		 je	 SHORT $LN39@erase

; 1215 : 			_Fixnode = this->_Right(_Pnode);	// stitch up right subtree

  00065	8b 45 ec	 mov	 eax, DWORD PTR __Pnode$[ebp]
  00068	50		 push	 eax
  00069	e8 00 00 00 00	 call	 ?_Right@?$_Tree_val@V?$_Tmap_traits@HHU?$less@H@std@@V?$allocator@U?$pair@$$CBHH@std@@@2@$0A@@std@@@std@@SAAAPAU_Node@?$_Tree_nod@V?$_Tmap_traits@HHU?$less@H@std@@V?$allocator@U?$pair@$$CBHH@std@@@2@$0A@@std@@@2@PAU342@@Z ; std::_Tree_val<std::_Tmap_traits<int,int,std::less<int>,std::allocator<std::pair<int const ,int> >,0> >::_Right
  0006e	83 c4 04	 add	 esp, 4
  00071	8b 08		 mov	 ecx, DWORD PTR [eax]
  00073	89 4d f4	 mov	 DWORD PTR __Fixnode$[ebp], ecx
  00076	eb 4d		 jmp	 SHORT $LN38@erase
$LN39@erase:

; 1216 : 		else if (this->_Isnil(this->_Right(_Pnode)))

  00078	8b 45 ec	 mov	 eax, DWORD PTR __Pnode$[ebp]
  0007b	50		 push	 eax
  0007c	e8 00 00 00 00	 call	 ?_Right@?$_Tree_val@V?$_Tmap_traits@HHU?$less@H@std@@V?$allocator@U?$pair@$$CBHH@std@@@2@$0A@@std@@@std@@SAAAPAU_Node@?$_Tree_nod@V?$_Tmap_traits@HHU?$less@H@std@@V?$allocator@U?$pair@$$CBHH@std@@@2@$0A@@std@@@2@PAU342@@Z ; std::_Tree_val<std::_Tmap_traits<int,int,std::less<int>,std::allocator<std::pair<int const ,int> >,0> >::_Right
  00081	83 c4 04	 add	 esp, 4
  00084	8b 08		 mov	 ecx, DWORD PTR [eax]
  00086	51		 push	 ecx
  00087	e8 00 00 00 00	 call	 ?_Isnil@?$_Tree_val@V?$_Tmap_traits@HHU?$less@H@std@@V?$allocator@U?$pair@$$CBHH@std@@@2@$0A@@std@@@std@@SAAADPAU_Node@?$_Tree_nod@V?$_Tmap_traits@HHU?$less@H@std@@V?$allocator@U?$pair@$$CBHH@std@@@2@$0A@@std@@@2@@Z ; std::_Tree_val<std::_Tmap_traits<int,int,std::less<int>,std::allocator<std::pair<int const ,int> >,0> >::_Isnil
  0008c	83 c4 04	 add	 esp, 4
  0008f	0f be 10	 movsx	 edx, BYTE PTR [eax]
  00092	85 d2		 test	 edx, edx
  00094	74 13		 je	 SHORT $LN37@erase

; 1217 : 			_Fixnode = this->_Left(_Pnode);	// stitch up left subtree

  00096	8b 45 ec	 mov	 eax, DWORD PTR __Pnode$[ebp]
  00099	50		 push	 eax
  0009a	e8 00 00 00 00	 call	 ?_Left@?$_Tree_val@V?$_Tmap_traits@HHU?$less@H@std@@V?$allocator@U?$pair@$$CBHH@std@@@2@$0A@@std@@@std@@SAAAPAU_Node@?$_Tree_nod@V?$_Tmap_traits@HHU?$less@H@std@@V?$allocator@U?$pair@$$CBHH@std@@@2@$0A@@std@@@2@PAU342@@Z ; std::_Tree_val<std::_Tmap_traits<int,int,std::less<int>,std::allocator<std::pair<int const ,int> >,0> >::_Left
  0009f	83 c4 04	 add	 esp, 4
  000a2	8b 08		 mov	 ecx, DWORD PTR [eax]
  000a4	89 4d f4	 mov	 DWORD PTR __Fixnode$[ebp], ecx

; 1218 : 		else

  000a7	eb 1c		 jmp	 SHORT $LN38@erase
$LN37@erase:

; 1219 : 			{	// two subtrees, must lift successor node to replace erased
; 1220 : 			_Pnode = _Where._Mynode();	// _Pnode is successor node

  000a9	8d 4d 0c	 lea	 ecx, DWORD PTR __Where$[ebp]
  000ac	e8 00 00 00 00	 call	 ?_Mynode@?$_Tree_unchecked_const_iterator@V?$_Tree_val@V?$_Tmap_traits@HHU?$less@H@std@@V?$allocator@U?$pair@$$CBHH@std@@@2@$0A@@std@@@std@@U_Iterator_base0@2@@std@@QBEPAU_Node@?$_Tree_nod@V?$_Tmap_traits@HHU?$less@H@std@@V?$allocator@U?$pair@$$CBHH@std@@@2@$0A@@std@@@2@XZ ; std::_Tree_unchecked_const_iterator<std::_Tree_val<std::_Tmap_traits<int,int,std::less<int>,std::allocator<std::pair<int const ,int> >,0> >,std::_Iterator_base0>::_Mynode
  000b1	89 45 ec	 mov	 DWORD PTR __Pnode$[ebp], eax

; 1221 : 			_Fixnode = this->_Right(_Pnode);	// _Fixnode is only subtree

  000b4	8b 45 ec	 mov	 eax, DWORD PTR __Pnode$[ebp]
  000b7	50		 push	 eax
  000b8	e8 00 00 00 00	 call	 ?_Right@?$_Tree_val@V?$_Tmap_traits@HHU?$less@H@std@@V?$allocator@U?$pair@$$CBHH@std@@@2@$0A@@std@@@std@@SAAAPAU_Node@?$_Tree_nod@V?$_Tmap_traits@HHU?$less@H@std@@V?$allocator@U?$pair@$$CBHH@std@@@2@$0A@@std@@@2@PAU342@@Z ; std::_Tree_val<std::_Tmap_traits<int,int,std::less<int>,std::allocator<std::pair<int const ,int> >,0> >::_Right
  000bd	83 c4 04	 add	 esp, 4
  000c0	8b 08		 mov	 ecx, DWORD PTR [eax]
  000c2	89 4d f4	 mov	 DWORD PTR __Fixnode$[ebp], ecx
$LN38@erase:

; 1222 : 			}
; 1223 : 
; 1224 : 		if (_Pnode == _Erasednode)

  000c5	8b 45 ec	 mov	 eax, DWORD PTR __Pnode$[ebp]
  000c8	3b 45 f8	 cmp	 eax, DWORD PTR __Erasednode$[ebp]
  000cb	0f 85 1b 01 00
	00		 jne	 $LN35@erase

; 1225 : 			{	// at most one subtree, relink it
; 1226 : 			_Fixnodeparent = this->_Parent(_Erasednode);

  000d1	8b 45 f8	 mov	 eax, DWORD PTR __Erasednode$[ebp]
  000d4	50		 push	 eax
  000d5	e8 00 00 00 00	 call	 ?_Parent@?$_Tree_val@V?$_Tmap_traits@HHU?$less@H@std@@V?$allocator@U?$pair@$$CBHH@std@@@2@$0A@@std@@@std@@SAAAPAU_Node@?$_Tree_nod@V?$_Tmap_traits@HHU?$less@H@std@@V?$allocator@U?$pair@$$CBHH@std@@@2@$0A@@std@@@2@PAU342@@Z ; std::_Tree_val<std::_Tmap_traits<int,int,std::less<int>,std::allocator<std::pair<int const ,int> >,0> >::_Parent
  000da	83 c4 04	 add	 esp, 4
  000dd	8b 08		 mov	 ecx, DWORD PTR [eax]
  000df	89 4d f0	 mov	 DWORD PTR __Fixnodeparent$[ebp], ecx

; 1227 : 			if (!this->_Isnil(_Fixnode))

  000e2	8b 45 f4	 mov	 eax, DWORD PTR __Fixnode$[ebp]
  000e5	50		 push	 eax
  000e6	e8 00 00 00 00	 call	 ?_Isnil@?$_Tree_val@V?$_Tmap_traits@HHU?$less@H@std@@V?$allocator@U?$pair@$$CBHH@std@@@2@$0A@@std@@@std@@SAAADPAU_Node@?$_Tree_nod@V?$_Tmap_traits@HHU?$less@H@std@@V?$allocator@U?$pair@$$CBHH@std@@@2@$0A@@std@@@2@@Z ; std::_Tree_val<std::_Tmap_traits<int,int,std::less<int>,std::allocator<std::pair<int const ,int> >,0> >::_Isnil
  000eb	83 c4 04	 add	 esp, 4
  000ee	0f be 08	 movsx	 ecx, BYTE PTR [eax]
  000f1	85 c9		 test	 ecx, ecx
  000f3	75 11		 jne	 SHORT $LN34@erase

; 1228 : 				this->_Parent(_Fixnode) = _Fixnodeparent;	// link up

  000f5	8b 45 f4	 mov	 eax, DWORD PTR __Fixnode$[ebp]
  000f8	50		 push	 eax
  000f9	e8 00 00 00 00	 call	 ?_Parent@?$_Tree_val@V?$_Tmap_traits@HHU?$less@H@std@@V?$allocator@U?$pair@$$CBHH@std@@@2@$0A@@std@@@std@@SAAAPAU_Node@?$_Tree_nod@V?$_Tmap_traits@HHU?$less@H@std@@V?$allocator@U?$pair@$$CBHH@std@@@2@$0A@@std@@@2@PAU342@@Z ; std::_Tree_val<std::_Tmap_traits<int,int,std::less<int>,std::allocator<std::pair<int const ,int> >,0> >::_Parent
  000fe	83 c4 04	 add	 esp, 4
  00101	8b 4d f0	 mov	 ecx, DWORD PTR __Fixnodeparent$[ebp]
  00104	89 08		 mov	 DWORD PTR [eax], ecx
$LN34@erase:

; 1229 : 
; 1230 : 			if (_Root() == _Erasednode)

  00106	8b 4d fc	 mov	 ecx, DWORD PTR _this$[ebp]
  00109	e8 00 00 00 00	 call	 ?_Root@?$_Tree@V?$_Tmap_traits@HHU?$less@H@std@@V?$allocator@U?$pair@$$CBHH@std@@@2@$0A@@std@@@std@@IBEAAPAU_Node@?$_Tree_nod@V?$_Tmap_traits@HHU?$less@H@std@@V?$allocator@U?$pair@$$CBHH@std@@@2@$0A@@std@@@2@XZ ; std::_Tree<std::_Tmap_traits<int,int,std::less<int>,std::allocator<std::pair<int const ,int> >,0> >::_Root
  0010e	8b 00		 mov	 eax, DWORD PTR [eax]
  00110	3b 45 f8	 cmp	 eax, DWORD PTR __Erasednode$[ebp]
  00113	75 0f		 jne	 SHORT $LN33@erase

; 1231 : 				_Root() = _Fixnode;	// link down from root

  00115	8b 4d fc	 mov	 ecx, DWORD PTR _this$[ebp]
  00118	e8 00 00 00 00	 call	 ?_Root@?$_Tree@V?$_Tmap_traits@HHU?$less@H@std@@V?$allocator@U?$pair@$$CBHH@std@@@2@$0A@@std@@@std@@IBEAAPAU_Node@?$_Tree_nod@V?$_Tmap_traits@HHU?$less@H@std@@V?$allocator@U?$pair@$$CBHH@std@@@2@$0A@@std@@@2@XZ ; std::_Tree<std::_Tmap_traits<int,int,std::less<int>,std::allocator<std::pair<int const ,int> >,0> >::_Root
  0011d	8b 4d f4	 mov	 ecx, DWORD PTR __Fixnode$[ebp]
  00120	89 08		 mov	 DWORD PTR [eax], ecx
  00122	eb 37		 jmp	 SHORT $LN32@erase
$LN33@erase:

; 1232 : 			else if (this->_Left(_Fixnodeparent) == _Erasednode)

  00124	8b 45 f0	 mov	 eax, DWORD PTR __Fixnodeparent$[ebp]
  00127	50		 push	 eax
  00128	e8 00 00 00 00	 call	 ?_Left@?$_Tree_val@V?$_Tmap_traits@HHU?$less@H@std@@V?$allocator@U?$pair@$$CBHH@std@@@2@$0A@@std@@@std@@SAAAPAU_Node@?$_Tree_nod@V?$_Tmap_traits@HHU?$less@H@std@@V?$allocator@U?$pair@$$CBHH@std@@@2@$0A@@std@@@2@PAU342@@Z ; std::_Tree_val<std::_Tmap_traits<int,int,std::less<int>,std::allocator<std::pair<int const ,int> >,0> >::_Left
  0012d	83 c4 04	 add	 esp, 4
  00130	8b 08		 mov	 ecx, DWORD PTR [eax]
  00132	3b 4d f8	 cmp	 ecx, DWORD PTR __Erasednode$[ebp]
  00135	75 13		 jne	 SHORT $LN31@erase

; 1233 : 				this->_Left(_Fixnodeparent) = _Fixnode;	// link down to left

  00137	8b 45 f0	 mov	 eax, DWORD PTR __Fixnodeparent$[ebp]
  0013a	50		 push	 eax
  0013b	e8 00 00 00 00	 call	 ?_Left@?$_Tree_val@V?$_Tmap_traits@HHU?$less@H@std@@V?$allocator@U?$pair@$$CBHH@std@@@2@$0A@@std@@@std@@SAAAPAU_Node@?$_Tree_nod@V?$_Tmap_traits@HHU?$less@H@std@@V?$allocator@U?$pair@$$CBHH@std@@@2@$0A@@std@@@2@PAU342@@Z ; std::_Tree_val<std::_Tmap_traits<int,int,std::less<int>,std::allocator<std::pair<int const ,int> >,0> >::_Left
  00140	83 c4 04	 add	 esp, 4
  00143	8b 4d f4	 mov	 ecx, DWORD PTR __Fixnode$[ebp]
  00146	89 08		 mov	 DWORD PTR [eax], ecx

; 1234 : 			else

  00148	eb 11		 jmp	 SHORT $LN32@erase
$LN31@erase:

; 1235 : 				this->_Right(_Fixnodeparent) =
; 1236 : 					_Fixnode;	// link down to right

  0014a	8b 45 f0	 mov	 eax, DWORD PTR __Fixnodeparent$[ebp]
  0014d	50		 push	 eax
  0014e	e8 00 00 00 00	 call	 ?_Right@?$_Tree_val@V?$_Tmap_traits@HHU?$less@H@std@@V?$allocator@U?$pair@$$CBHH@std@@@2@$0A@@std@@@std@@SAAAPAU_Node@?$_Tree_nod@V?$_Tmap_traits@HHU?$less@H@std@@V?$allocator@U?$pair@$$CBHH@std@@@2@$0A@@std@@@2@PAU342@@Z ; std::_Tree_val<std::_Tmap_traits<int,int,std::less<int>,std::allocator<std::pair<int const ,int> >,0> >::_Right
  00153	83 c4 04	 add	 esp, 4
  00156	8b 4d f4	 mov	 ecx, DWORD PTR __Fixnode$[ebp]
  00159	89 08		 mov	 DWORD PTR [eax], ecx
$LN32@erase:

; 1237 : 
; 1238 : 			if (_Lmost() == _Erasednode)

  0015b	8b 4d fc	 mov	 ecx, DWORD PTR _this$[ebp]
  0015e	e8 00 00 00 00	 call	 ?_Lmost@?$_Tree@V?$_Tmap_traits@HHU?$less@H@std@@V?$allocator@U?$pair@$$CBHH@std@@@2@$0A@@std@@@std@@IBEAAPAU_Node@?$_Tree_nod@V?$_Tmap_traits@HHU?$less@H@std@@V?$allocator@U?$pair@$$CBHH@std@@@2@$0A@@std@@@2@XZ ; std::_Tree<std::_Tmap_traits<int,int,std::less<int>,std::allocator<std::pair<int const ,int> >,0> >::_Lmost
  00163	8b 00		 mov	 eax, DWORD PTR [eax]
  00165	3b 45 f8	 cmp	 eax, DWORD PTR __Erasednode$[ebp]
  00168	75 37		 jne	 SHORT $LN29@erase

; 1239 : 				_Lmost() = this->_Isnil(_Fixnode)
; 1240 : 					? _Fixnodeparent	// smallest is parent of erased node
; 1241 : 					: this->_Min(_Fixnode);	// smallest in relinked subtree

  0016a	8b 45 f4	 mov	 eax, DWORD PTR __Fixnode$[ebp]
  0016d	50		 push	 eax
  0016e	e8 00 00 00 00	 call	 ?_Isnil@?$_Tree_val@V?$_Tmap_traits@HHU?$less@H@std@@V?$allocator@U?$pair@$$CBHH@std@@@2@$0A@@std@@@std@@SAAADPAU_Node@?$_Tree_nod@V?$_Tmap_traits@HHU?$less@H@std@@V?$allocator@U?$pair@$$CBHH@std@@@2@$0A@@std@@@2@@Z ; std::_Tree_val<std::_Tmap_traits<int,int,std::less<int>,std::allocator<std::pair<int const ,int> >,0> >::_Isnil
  00173	83 c4 04	 add	 esp, 4
  00176	0f be 08	 movsx	 ecx, BYTE PTR [eax]
  00179	85 c9		 test	 ecx, ecx
  0017b	74 08		 je	 SHORT $LN43@erase
  0017d	8b 55 f0	 mov	 edx, DWORD PTR __Fixnodeparent$[ebp]
  00180	89 55 a8	 mov	 DWORD PTR tv170[ebp], edx
  00183	eb 0f		 jmp	 SHORT $LN44@erase
$LN43@erase:
  00185	8b 45 f4	 mov	 eax, DWORD PTR __Fixnode$[ebp]
  00188	50		 push	 eax
  00189	e8 00 00 00 00	 call	 ?_Min@?$_Tree_val@V?$_Tmap_traits@HHU?$less@H@std@@V?$allocator@U?$pair@$$CBHH@std@@@2@$0A@@std@@@std@@SAPAU_Node@?$_Tree_nod@V?$_Tmap_traits@HHU?$less@H@std@@V?$allocator@U?$pair@$$CBHH@std@@@2@$0A@@std@@@2@PAU342@@Z ; std::_Tree_val<std::_Tmap_traits<int,int,std::less<int>,std::allocator<std::pair<int const ,int> >,0> >::_Min
  0018e	83 c4 04	 add	 esp, 4
  00191	89 45 a8	 mov	 DWORD PTR tv170[ebp], eax
$LN44@erase:
