; Listing generated by Microsoft (R) Optimizing Compiler Version 16.00.40219.01 

	TITLE	D:\Projects\ExTeam6.3\Source\GameServer\GameServer\ChaosCastle.cpp
	.686P
	.XMM
	include listing.inc
	.model	flat

INCLUDELIB LIBCMT
INCLUDELIB OLDNAMES

PUBLIC	?g_iChaosCastle_OffLineGiftRate@@3HA		; g_iChaosCastle_OffLineGiftRate
CONST	SEGMENT
_g_btCastleSafetyZoneMapXY DB 017H
	DB	04bH
	DB	02cH
	DB	06cH
	DB	017H
	DB	04bH
	DB	02cH
	DB	06cH
	DB	017H
	DB	04bH
	DB	02cH
	DB	06cH
	DB	017H
	DB	04bH
	DB	02cH
	DB	06cH
	DB	017H
	DB	04bH
	DB	02cH
	DB	06cH
	DB	017H
	DB	04bH
	DB	02cH
	DB	06cH
	DB	017H
	DB	04bH
	DB	02cH
	DB	06cH
_g_btCastleCenterHollowZoneMapXY DB 020H
	DB	054H
	DB	023H
	DB	057H
	DB	020H
	DB	060H
	DB	023H
	DB	063H
	DB	020H
	DB	054H
	DB	023H
	DB	057H
	DB	020H
	DB	060H
	DB	023H
	DB	063H
	DB	020H
	DB	054H
	DB	023H
	DB	057H
	DB	020H
	DB	060H
	DB	023H
	DB	063H
	DB	020H
	DB	054H
	DB	023H
	DB	057H
	DB	020H
	DB	060H
	DB	023H
	DB	063H
	DB	020H
	DB	054H
	DB	023H
	DB	057H
	DB	020H
	DB	060H
	DB	023H
	DB	063H
	DB	020H
	DB	054H
	DB	023H
	DB	057H
	DB	020H
	DB	060H
	DB	023H
	DB	063H
	DB	020H
	DB	054H
	DB	023H
	DB	057H
	DB	020H
	DB	060H
	DB	023H
	DB	063H
_g_iChaosCastle_ExpTable DD 01388H
	DD	03e8H
	DD	03e8H
	DD	05dcH
	DD	05dcH
	DD	07d0H
	DD	07d0H
	DD	09c4H
	DD	09c4H
	DD	0bb8H
	DD	0bb8H
	DD	0dacH
	DD	0fa0H
	DD	01388H
CONST	ENDS
_DATA	SEGMENT
_g_sttBLOODCASTLE_LEVEL DD 0fH
	DD	050H
	DD	0aH
	DD	03cH
	DD	051H
	DD	082H
	DD	03dH
	DD	06eH
	DD	083H
	DD	0b4H
	DD	06fH
	DD	0a0H
	DD	0b5H
	DD	0e6H
	DD	0a1H
	DD	0d2H
	DD	0e7H
	DD	0118H
	DD	0d3H
	DD	0104H
	DD	0119H
	DD	014aH
	DD	0105H
	DD	0136H
	DD	014bH
	DD	0190H
	DD	0137H
	DD	0190H
	DD	0fH
	DD	0257H
	DD	0aH
	DD	0257H
_g_sttCHAOSCASTLE_LEVEL DD 0fH
	DD	031H
	DD	0fH
	DD	01dH
	DD	032H
	DD	077H
	DD	01eH
	DD	063H
	DD	078H
	DD	0b3H
	DD	064H
	DD	09fH
	DD	0b4H
	DD	0efH
	DD	0a0H
	DD	0dbH
	DD	0f0H
	DD	012bH
	DD	0dcH
	DD	0117H
	DD	012cH
	DD	0190H
	DD	0118H
	DD	0190H
	DD	0190H
	DD	0257H
	DD	0190H
	DD	0257H
_g_iChaosCastle_BlowOutDistance DD 03H
	DD	04H
	DD	03H
	DD	04H
	DD	02H
	DD	03H
	DD	00H
	DD	01H
_g_iChaosCastle_BlowOutDamage DD 0fH
	DD	0fH
	DD	0aH
	DD	05H
_g_iChaosCastle_EnterCost DD 061a8H
	DD	013880H
	DD	0249f0H
	DD	03d090H
	DD	061a80H
	DD	09eb10H
	DD	0f4240H
_g_iChaosCastle_GuardSetValue DD 09c4H
	DD	09c4H
	DD	09c4H
	DD	09c4H
	DD	09c4H
	DD	09c4H
	DD	09c4H
_g_iChaosCastle_MonsterItems DD 01c0dH
	DD	01H
	DD	01c0eH
	DD	02H
	DD	01c0dH
	DD	01H
	DD	01c0eH
	DD	03H
	DD	01c0dH
	DD	01H
	DD	01c0eH
	DD	03H
	DD	01c0dH
	DD	02H
	DD	01c0eH
	DD	02H
	DD	01c0dH
	DD	02H
	DD	01c0eH
	DD	03H
	DD	01c0dH
	DD	02H
	DD	01c0eH
	DD	03H
	DD	01c0dH
	DD	02H
	DD	01c0eH
	DD	04H
_g_iChaosCastle_MonsterItemsNewServer DD 00H
	DD	00H
	DD	01c0eH
	DD	02H
	DD	01c0dH
	DD	01H
	DD	01c0eH
	DD	01H
	DD	01c0dH
	DD	01H
	DD	01c0eH
	DD	02H
	DD	01c0dH
	DD	01H
	DD	01c0eH
	DD	02H
	DD	01c0dH
	DD	02H
	DD	01c0eH
	DD	01H
	DD	01c0dH
	DD	02H
	DD	01c0eH
	DD	02H
	DD	01c0dH
	DD	02H
	DD	01c0eH
	DD	03H
_g_iChaosCastle_GroundAxis DD 017H
	DD	04bH
	DD	02cH
	DD	06cH
_g_iChaosCastle_DamageAxis DD 017H
	DD	04bH
	DD	02cH
	DD	06cH
	DD	019H
	DD	04dH
	DD	02aH
	DD	06aH
	DD	01bH
	DD	04fH
	DD	028H
	DD	068H
	DD	01dH
	DD	051H
	DD	026H
	DD	066H
_g_iChaosCastle_MapHollowZone DD 017H
	DD	04bH
	DD	02cH
	DD	04cH
	DD	02bH
	DD	04dH
	DD	02cH
	DD	06cH
	DD	017H
	DD	06bH
	DD	02aH
	DD	06cH
	DD	017H
	DD	04dH
	DD	018H
	DD	06aH
	DD	017H
	DD	04bH
	DD	02cH
	DD	04cH
	DD	02bH
	DD	04dH
	DD	02cH
	DD	06cH
	DD	017H
	DD	06bH
	DD	02aH
	DD	06cH
	DD	017H
	DD	04dH
	DD	018H
	DD	06aH
	DD	019H
	DD	04dH
	DD	02aH
	DD	04eH
	DD	029H
	DD	04fH
	DD	02aH
	DD	06aH
	DD	019H
	DD	069H
	DD	028H
	DD	06aH
	DD	019H
	DD	04fH
	DD	01aH
	DD	068H
	DD	01bH
	DD	04fH
	DD	028H
	DD	050H
	DD	027H
	DD	051H
	DD	028H
	DD	068H
	DD	01bH
	DD	067H
	DD	026H
	DD	068H
	DD	01bH
	DD	051H
	DD	01cH
	DD	066H
_g_iNpcUpDfLevel_CGATE DD 01H
	DD	02H
	DD	02dc6c0H
	DD	02H
	DD	03H
	DD	02dc6c0H
	DD	03H
	DD	04H
	DD	02dc6c0H
_g_iNpcUpDfLevel_CSTATUE DD 01H
	DD	03H
	DD	02dc6c0H
	DD	02H
	DD	05H
	DD	02dc6c0H
	DD	03H
	DD	07H
	DD	02dc6c0H
_g_iNpcUpMaxHP_CGATE DD 02625a0H
	DD	02H
	DD	0f4240H
	DD	03567e0H
	DD	03H
	DD	0f4240H
	DD	04f5880H
	DD	04H
	DD	0f4240H
_g_iNpcUpMaxHP_CSTATUE DD 02191c0H
	DD	03H
	DD	0f4240H
	DD	033e140H
	DD	05H
	DD	0f4240H
	DD	04c4b40H
	DD	07H
	DD	0f4240H
_g_iNpcUpRgLevel_CSTATUE DD 01H
	DD	03H
	DD	04c4b40H
	DD	02H
	DD	05H
	DD	04c4b40H
	DD	03H
	DD	07H
	DD	04c4b40H
_g_iCsUserReSpawnArea DD 023H
	DD	011H
	DD	090H
	DD	030H
	DD	04aH
	DD	090H
	DD	073H
	DD	09aH
	DD	023H
	DD	011H
	DD	090H
	DD	030H
_g_iNpcDefense_CGATE DD 064H
	DD	0b4H
	DD	012cH
	DD	0208H
_g_iNpcDefense_CSTATUE DD 050H
	DD	0b4H
	DD	0154H
	DD	0226H
_g_iCastleWallStepAxisY DD 071H
	DD	0a0H
	DD	0cbH
?g_iChaosCastle_OffLineGiftRate@@3HA DD 02H		; g_iChaosCastle_OffLineGiftRate
_DATA	ENDS
PUBLIC	??_H@YGXPAXIHP6EPAX0@Z@Z			; `vector constructor iterator'
; Function compile flags: /Odtp /ZI
;	COMDAT ??_H@YGXPAXIHP6EPAX0@Z@Z
_TEXT	SEGMENT
___t$ = 8						; size = 4
___s$ = 12						; size = 4
___n$ = 16						; size = 4
___f$ = 20						; size = 4
??_H@YGXPAXIHP6EPAX0@Z@Z PROC				; `vector constructor iterator', COMDAT
  00000	55		 push	 ebp
  00001	8b ec		 mov	 ebp, esp
  00003	83 ec 40	 sub	 esp, 64			; 00000040H
  00006	53		 push	 ebx
  00007	56		 push	 esi
  00008	57		 push	 edi
$LN2@vector:
  00009	8b 45 10	 mov	 eax, DWORD PTR ___n$[ebp]
  0000c	83 e8 01	 sub	 eax, 1
  0000f	89 45 10	 mov	 DWORD PTR ___n$[ebp], eax
  00012	78 11		 js	 SHORT $LN3@vector
  00014	8b 4d 08	 mov	 ecx, DWORD PTR ___t$[ebp]
  00017	ff 55 14	 call	 DWORD PTR ___f$[ebp]
  0001a	8b 45 08	 mov	 eax, DWORD PTR ___t$[ebp]
  0001d	03 45 0c	 add	 eax, DWORD PTR ___s$[ebp]
  00020	89 45 08	 mov	 DWORD PTR ___t$[ebp], eax
  00023	eb e4		 jmp	 SHORT $LN2@vector
$LN3@vector:
  00025	5f		 pop	 edi
  00026	5e		 pop	 esi
  00027	5b		 pop	 ebx
  00028	8b e5		 mov	 esp, ebp
  0002a	5d		 pop	 ebp
  0002b	c2 10 00	 ret	 16			; 00000010H
??_H@YGXPAXIHP6EPAX0@Z@Z ENDP				; `vector constructor iterator'
_TEXT	ENDS
PUBLIC	??1?$vector@UCHAOSCASTLE_START_TIME@@V?$allocator@UCHAOSCASTLE_START_TIME@@@std@@@std@@QAE@XZ ; std::vector<CHAOSCASTLE_START_TIME,std::allocator<CHAOSCASTLE_START_TIME> >::~vector<CHAOSCASTLE_START_TIME,std::allocator<CHAOSCASTLE_START_TIME> >
PUBLIC	?Clear@CHAOSCASTLE_REWARD@@QAEXXZ		; CHAOSCASTLE_REWARD::Clear
PUBLIC	?ClearChaosCastleData@CChaosCastle@@IAEXH@Z	; CChaosCastle::ClearChaosCastleData
PUBLIC	__real@3f800000
PUBLIC	?GetChaosCastleMapNumber@CChaosCastle@@QAEHH@Z	; CChaosCastle::GetChaosCastleMapNumber
PUBLIC	??0_CHAOSCASTLE_DATA@@QAE@XZ			; _CHAOSCASTLE_DATA::_CHAOSCASTLE_DATA
PUBLIC	??1_CHAOSCASTLE_DATA@@QAE@XZ			; _CHAOSCASTLE_DATA::~_CHAOSCASTLE_DATA
PUBLIC	??0?$vector@UCHAOSCASTLE_START_TIME@@V?$allocator@UCHAOSCASTLE_START_TIME@@@std@@@std@@QAE@XZ ; std::vector<CHAOSCASTLE_START_TIME,std::allocator<CHAOSCASTLE_START_TIME> >::vector<CHAOSCASTLE_START_TIME,std::allocator<CHAOSCASTLE_START_TIME> >
PUBLIC	??_7CChaosCastle@@6B@				; CChaosCastle::`vftable'
PUBLIC	??0CChaosCastle@@QAE@XZ				; CChaosCastle::CChaosCastle
PUBLIC	??_R4CChaosCastle@@6B@				; CChaosCastle::`RTTI Complete Object Locator'
PUBLIC	??_R0?AVCChaosCastle@@@8			; CChaosCastle `RTTI Type Descriptor'
PUBLIC	??_R3CChaosCastle@@8				; CChaosCastle::`RTTI Class Hierarchy Descriptor'
PUBLIC	??_R2CChaosCastle@@8				; CChaosCastle::`RTTI Base Class Array'
PUBLIC	??_R1A@?0A@EA@CChaosCastle@@8			; CChaosCastle::`RTTI Base Class Descriptor at (0,-1,0,64)'
EXTRN	??_M@YGXPAXIHP6EX0@Z@Z:PROC			; `eh vector destructor iterator'
EXTRN	_srand:PROC
EXTRN	??_L@YGXPAXIHP6EX0@Z1@Z:PROC			; `eh vector constructor iterator'
EXTRN	___security_cookie:DWORD
EXTRN	___CxxFrameHandler3:PROC
EXTRN	@__security_check_cookie@4:PROC
EXTRN	__fltused:DWORD
EXTRN	??_7type_info@@6B@:QWORD			; type_info::`vftable'
EXTRN	??_ECChaosCastle@@UAEPAXI@Z:PROC		; CChaosCastle::`vector deleting destructor'
;	COMDAT ??_R1A@?0A@EA@CChaosCastle@@8
; File d:\projects\exteam6.3\source\gameserver\gameserver\chaoscastle.cpp
rdata$r	SEGMENT
??_R1A@?0A@EA@CChaosCastle@@8 DD FLAT:??_R0?AVCChaosCastle@@@8 ; CChaosCastle::`RTTI Base Class Descriptor at (0,-1,0,64)'
	DD	00H
	DD	00H
	DD	0ffffffffH
	DD	00H
	DD	040H
	DD	FLAT:??_R3CChaosCastle@@8
rdata$r	ENDS
;	COMDAT ??_R2CChaosCastle@@8
rdata$r	SEGMENT
??_R2CChaosCastle@@8 DD FLAT:??_R1A@?0A@EA@CChaosCastle@@8 ; CChaosCastle::`RTTI Base Class Array'
rdata$r	ENDS
;	COMDAT ??_R3CChaosCastle@@8
rdata$r	SEGMENT
??_R3CChaosCastle@@8 DD 00H				; CChaosCastle::`RTTI Class Hierarchy Descriptor'
	DD	00H
	DD	01H
	DD	FLAT:??_R2CChaosCastle@@8
rdata$r	ENDS
;	COMDAT ??_R0?AVCChaosCastle@@@8
_DATA	SEGMENT
??_R0?AVCChaosCastle@@@8 DD FLAT:??_7type_info@@6B@	; CChaosCastle `RTTI Type Descriptor'
	DD	00H
	DB	'.?AVCChaosCastle@@', 00H
_DATA	ENDS
;	COMDAT ??_R4CChaosCastle@@6B@
rdata$r	SEGMENT
??_R4CChaosCastle@@6B@ DD 00H				; CChaosCastle::`RTTI Complete Object Locator'
	DD	00H
	DD	00H
	DD	FLAT:??_R0?AVCChaosCastle@@@8
	DD	FLAT:??_R3CChaosCastle@@8
rdata$r	ENDS
;	COMDAT __real@3f800000
CONST	SEGMENT
__real@3f800000 DD 03f800000r			; 1
CONST	ENDS
;	COMDAT ??_7CChaosCastle@@6B@
CONST	SEGMENT
??_7CChaosCastle@@6B@ DD FLAT:??_R4CChaosCastle@@6B@	; CChaosCastle::`vftable'
	DD	FLAT:??_ECChaosCastle@@UAEPAXI@Z
CONST	ENDS
xdata$x	SEGMENT
__unwindtable$??0CChaosCastle@@QAE@XZ DD 0ffffffffH
	DD	FLAT:__unwindfunclet$??0CChaosCastle@@QAE@XZ$0
	DD	00H
	DD	FLAT:__unwindfunclet$??0CChaosCastle@@QAE@XZ$1
__ehfuncinfo$??0CChaosCastle@@QAE@XZ DD 019930522H
	DD	02H
	DD	FLAT:__unwindtable$??0CChaosCastle@@QAE@XZ
	DD	2 DUP(00H)
	DD	2 DUP(00H)
	DD	00H
	DD	01H
; Function compile flags: /Odtp /ZI
xdata$x	ENDS
_TEXT	SEGMENT
_i$236359 = -20						; size = 4
_this$ = -16						; size = 4
__$EHRec$ = -12						; size = 12
??0CChaosCastle@@QAE@XZ PROC				; CChaosCastle::CChaosCastle
; _this$ = ecx

; 31   : {

  00000	55		 push	 ebp
  00001	8b ec		 mov	 ebp, esp
  00003	6a ff		 push	 -1
  00005	68 00 00 00 00	 push	 __ehhandler$??0CChaosCastle@@QAE@XZ
  0000a	64 a1 00 00 00
	00		 mov	 eax, DWORD PTR fs:0
  00010	50		 push	 eax
  00011	83 ec 48	 sub	 esp, 72			; 00000048H
  00014	53		 push	 ebx
  00015	56		 push	 esi
  00016	57		 push	 edi
  00017	a1 00 00 00 00	 mov	 eax, DWORD PTR ___security_cookie
  0001c	33 c5		 xor	 eax, ebp
  0001e	50		 push	 eax
  0001f	8d 45 f4	 lea	 eax, DWORD PTR __$EHRec$[ebp]
  00022	64 a3 00 00 00
	00		 mov	 DWORD PTR fs:0, eax
  00028	89 4d f0	 mov	 DWORD PTR _this$[ebp], ecx
  0002b	8b 45 f0	 mov	 eax, DWORD PTR _this$[ebp]
  0002e	c7 00 00 00 00
	00		 mov	 DWORD PTR [eax], OFFSET ??_7CChaosCastle@@6B@
  00034	8b 4d f0	 mov	 ecx, DWORD PTR _this$[ebp]
  00037	83 c1 20	 add	 ecx, 32			; 00000020H
  0003a	e8 00 00 00 00	 call	 ??0?$vector@UCHAOSCASTLE_START_TIME@@V?$allocator@UCHAOSCASTLE_START_TIME@@@std@@@std@@QAE@XZ ; std::vector<CHAOSCASTLE_START_TIME,std::allocator<CHAOSCASTLE_START_TIME> >::vector<CHAOSCASTLE_START_TIME,std::allocator<CHAOSCASTLE_START_TIME> >
  0003f	c7 45 fc 00 00
	00 00		 mov	 DWORD PTR __$EHRec$[ebp+8], 0
  00046	68 00 00 00 00	 push	 OFFSET ??1_CHAOSCASTLE_DATA@@QAE@XZ
  0004b	68 00 00 00 00	 push	 OFFSET ??0_CHAOSCASTLE_DATA@@QAE@XZ
  00050	6a 07		 push	 7
  00052	68 70 08 00 00	 push	 2160			; 00000870H
  00057	8b 45 f0	 mov	 eax, DWORD PTR _this$[ebp]
  0005a	83 c0 30	 add	 eax, 48			; 00000030H
  0005d	50		 push	 eax
  0005e	e8 00 00 00 00	 call	 ??_L@YGXPAXIHP6EX0@Z1@Z
  00063	c6 45 fc 01	 mov	 BYTE PTR __$EHRec$[ebp+8], 1

; 32   : 	this->m_bCC_EVENT_ENABLE = FALSE;

  00067	8b 45 f0	 mov	 eax, DWORD PTR _this$[ebp]
  0006a	c7 40 04 00 00
	00 00		 mov	 DWORD PTR [eax+4], 0

; 33   : 	this->m_iCC_TIME_MIN_OPEN = 10;

  00071	8b 45 f0	 mov	 eax, DWORD PTR _this$[ebp]
  00074	c7 40 08 0a 00
	00 00		 mov	 DWORD PTR [eax+8], 10	; 0000000aH

; 34   : 	this->m_iCC_NORMAL_ITEM_DROP = 100;

  0007b	8b 45 f0	 mov	 eax, DWORD PTR _this$[ebp]
  0007e	c7 40 14 64 00
	00 00		 mov	 DWORD PTR [eax+20], 100	; 00000064H

; 35   : 	this->m_iCC_EXCEL_ITEM_DROP = 1200;

  00085	8b 45 f0	 mov	 eax, DWORD PTR _this$[ebp]
  00088	c7 40 18 b0 04
	00 00		 mov	 DWORD PTR [eax+24], 1200 ; 000004b0H

; 36   : 	this->m_iCC_MONSTER_REGEN = 0;

  0008f	8b 45 f0	 mov	 eax, DWORD PTR _this$[ebp]
  00092	c7 40 1c 00 00
	00 00		 mov	 DWORD PTR [eax+28], 0

; 37   : 
; 38   : 	for ( int i=0;i<MAX_CHAOSCASTLE_LEVEL;i++)

  00099	c7 45 ec 00 00
	00 00		 mov	 DWORD PTR _i$236359[ebp], 0
  000a0	eb 09		 jmp	 SHORT $LN3@CChaosCast
$LN2@CChaosCast:
  000a2	8b 45 ec	 mov	 eax, DWORD PTR _i$236359[ebp]
  000a5	83 c0 01	 add	 eax, 1
  000a8	89 45 ec	 mov	 DWORD PTR _i$236359[ebp], eax
$LN3@CChaosCast:
  000ab	83 7d ec 07	 cmp	 DWORD PTR _i$236359[ebp], 7
  000af	0f 8d a6 00 00
	00		 jge	 $LN1@CChaosCast

; 39   : 	{
; 40   : 		this->m_stChaosCastleData[i].m_iCC_STATE = CC_STATE_NONE;

  000b5	8b 45 ec	 mov	 eax, DWORD PTR _i$236359[ebp]
  000b8	69 c0 70 08 00
	00		 imul	 eax, 2160		; 00000870H
  000be	8b 4d f0	 mov	 ecx, DWORD PTR _this$[ebp]
  000c1	c7 44 01 30 00
	00 00 00	 mov	 DWORD PTR [ecx+eax+48], 0

; 41   : 		this->m_stChaosCastleData[i].m_iMapNumber = this->GetChaosCastleMapNumber(i);

  000c9	8b 45 ec	 mov	 eax, DWORD PTR _i$236359[ebp]
  000cc	50		 push	 eax
  000cd	8b 4d f0	 mov	 ecx, DWORD PTR _this$[ebp]
  000d0	e8 00 00 00 00	 call	 ?GetChaosCastleMapNumber@CChaosCastle@@QAEHH@Z ; CChaosCastle::GetChaosCastleMapNumber
  000d5	8b 4d ec	 mov	 ecx, DWORD PTR _i$236359[ebp]
  000d8	69 c9 70 08 00
	00		 imul	 ecx, 2160		; 00000870H
  000de	8b 55 f0	 mov	 edx, DWORD PTR _this$[ebp]
  000e1	89 44 0a 34	 mov	 DWORD PTR [edx+ecx+52], eax

; 42   : 		this->m_stChaosCastleData[i].m_iChaosCastleIndex = i;

  000e5	8b 45 ec	 mov	 eax, DWORD PTR _i$236359[ebp]
  000e8	69 c0 70 08 00
	00		 imul	 eax, 2160		; 00000870H
  000ee	8b 4d f0	 mov	 ecx, DWORD PTR _this$[ebp]
  000f1	8b 55 ec	 mov	 edx, DWORD PTR _i$236359[ebp]
  000f4	89 54 01 38	 mov	 DWORD PTR [ecx+eax+56], edx

; 43   : 		this->m_stChaosCastleData[i].m_iCC_REMAIN_MSEC = -1;

  000f8	8b 45 ec	 mov	 eax, DWORD PTR _i$236359[ebp]
  000fb	69 c0 70 08 00
	00		 imul	 eax, 2160		; 00000870H
  00101	8b 4d f0	 mov	 ecx, DWORD PTR _this$[ebp]
  00104	c7 44 01 40 ff
	ff ff ff	 mov	 DWORD PTR [ecx+eax+64], -1

; 44   : 		this->m_stChaosCastleData[i].m_iCC_TICK_COUNT = -1;

  0010c	8b 45 ec	 mov	 eax, DWORD PTR _i$236359[ebp]
  0010f	69 c0 70 08 00
	00		 imul	 eax, 2160		; 00000870H
  00115	8b 4d f0	 mov	 ecx, DWORD PTR _this$[ebp]
  00118	c7 44 01 44 ff
	ff ff ff	 mov	 DWORD PTR [ecx+eax+68], -1

; 45   : 		this->m_stChaosCastleData[i].m_iCC_REWARD_EXP = 1.0f; //season 4.5 add-on

  00120	8b 45 ec	 mov	 eax, DWORD PTR _i$236359[ebp]
  00123	69 c0 70 08 00
	00		 imul	 eax, 2160		; 00000870H
  00129	8b 4d f0	 mov	 ecx, DWORD PTR _this$[ebp]
  0012c	d9 e8		 fld1
  0012e	d9 9c 01 9c 08
	00 00		 fstp	 DWORD PTR [ecx+eax+2204]

; 46   : 		this->ClearChaosCastleData(i);

  00135	8b 45 ec	 mov	 eax, DWORD PTR _i$236359[ebp]
  00138	50		 push	 eax
  00139	8b 4d f0	 mov	 ecx, DWORD PTR _this$[ebp]
  0013c	e8 00 00 00 00	 call	 ?ClearChaosCastleData@CChaosCastle@@IAEXH@Z ; CChaosCastle::ClearChaosCastleData

; 47   : 
; 48   : #ifdef _CONFLICT_
; 49   : 		this->m_RewardData[i].Clear();

  00141	8b 45 ec	 mov	 eax, DWORD PTR _i$236359[ebp]
  00144	6b c0 0c	 imul	 eax, 12			; 0000000cH
  00147	8b 4d f0	 mov	 ecx, DWORD PTR _this$[ebp]
  0014a	8d 8c 01 40 3b
	00 00		 lea	 ecx, DWORD PTR [ecx+eax+15168]
  00151	e8 00 00 00 00	 call	 ?Clear@CHAOSCASTLE_REWARD@@QAEXXZ ; CHAOSCASTLE_REWARD::Clear

; 50   : #endif
; 51   : 	}

  00156	e9 47 ff ff ff	 jmp	 $LN2@CChaosCast
$LN1@CChaosCast:

; 52   : 
; 53   : 	srand(time(NULL));

  0015b	6a 00		 push	 0
  0015d	e8 00 00 00 00	 call	 _time
  00162	83 c4 04	 add	 esp, 4
  00165	50		 push	 eax
  00166	e8 00 00 00 00	 call	 _srand
  0016b	83 c4 04	 add	 esp, 4

; 54   : }

  0016e	c7 45 fc ff ff
	ff ff		 mov	 DWORD PTR __$EHRec$[ebp+8], -1
  00175	8b 45 f0	 mov	 eax, DWORD PTR _this$[ebp]
  00178	8b 4d f4	 mov	 ecx, DWORD PTR __$EHRec$[ebp]
  0017b	64 89 0d 00 00
	00 00		 mov	 DWORD PTR fs:0, ecx
  00182	59		 pop	 ecx
  00183	5f		 pop	 edi
  00184	5e		 pop	 esi
  00185	5b		 pop	 ebx
  00186	8b e5		 mov	 esp, ebp
  00188	5d		 pop	 ebp
  00189	c3		 ret	 0
_TEXT	ENDS
text$x	SEGMENT
__unwindfunclet$??0CChaosCastle@@QAE@XZ$0:
  00000	8b 4d f0	 mov	 ecx, DWORD PTR _this$[ebp]
  00003	83 c1 20	 add	 ecx, 32			; 00000020H
  00006	e9 00 00 00 00	 jmp	 ??1?$vector@UCHAOSCASTLE_START_TIME@@V?$allocator@UCHAOSCASTLE_START_TIME@@@std@@@std@@QAE@XZ ; std::vector<CHAOSCASTLE_START_TIME,std::allocator<CHAOSCASTLE_START_TIME> >::~vector<CHAOSCASTLE_START_TIME,std::allocator<CHAOSCASTLE_START_TIME> >
__unwindfunclet$??0CChaosCastle@@QAE@XZ$1:
  0000b	68 00 00 00 00	 push	 OFFSET ??1_CHAOSCASTLE_DATA@@QAE@XZ
  00010	6a 07		 push	 7
  00012	68 70 08 00 00	 push	 2160			; 00000870H
  00017	8b 45 f0	 mov	 eax, DWORD PTR _this$[ebp]
  0001a	83 c0 30	 add	 eax, 48			; 00000030H
  0001d	50		 push	 eax
  0001e	e8 00 00 00 00	 call	 ??_M@YGXPAXIHP6EX0@Z@Z
  00023	c3		 ret	 0
__ehhandler$??0CChaosCastle@@QAE@XZ:
  00024	8b 54 24 08	 mov	 edx, DWORD PTR [esp+8]
  00028	8d 42 0c	 lea	 eax, DWORD PTR [edx+12]
  0002b	8b 4a a8	 mov	 ecx, DWORD PTR [edx-88]
  0002e	33 c8		 xor	 ecx, eax
  00030	e8 00 00 00 00	 call	 @__security_check_cookie@4
  00035	b8 00 00 00 00	 mov	 eax, OFFSET __ehfuncinfo$??0CChaosCastle@@QAE@XZ
  0003a	e9 00 00 00 00	 jmp	 ___CxxFrameHandler3
text$x	ENDS
??0CChaosCastle@@QAE@XZ ENDP				; CChaosCastle::CChaosCastle
; Function compile flags: /Odtp /ZI
; File d:\projects\exteam6.3\source\gameserver\gameserver\chaoscastle.h
;	COMDAT ?Clear@CHAOSCASTLE_REWARD@@QAEXXZ
_TEXT	SEGMENT
_this$ = -4						; size = 4
?Clear@CHAOSCASTLE_REWARD@@QAEXXZ PROC			; CHAOSCASTLE_REWARD::Clear, COMDAT
; _this$ = ecx

; 249  : 		{

  00000	55		 push	 ebp
  00001	8b ec		 mov	 ebp, esp
  00003	83 ec 44	 sub	 esp, 68			; 00000044H
  00006	53		 push	 ebx
  00007	56		 push	 esi
  00008	57		 push	 edi
  00009	89 4d fc	 mov	 DWORD PTR _this$[ebp], ecx

; 250  : 			this->AncientRate	= 0;

  0000c	8b 45 fc	 mov	 eax, DWORD PTR _this$[ebp]
  0000f	c7 00 00 00 00
	00		 mov	 DWORD PTR [eax], 0

; 251  : 			this->AncientCount	= 0;

  00015	8b 45 fc	 mov	 eax, DWORD PTR _this$[ebp]
  00018	c6 40 04 00	 mov	 BYTE PTR [eax+4], 0

; 252  : 			this->ItemCount		= 0;

  0001c	8b 45 fc	 mov	 eax, DWORD PTR _this$[ebp]
  0001f	c6 40 05 00	 mov	 BYTE PTR [eax+5], 0

; 253  : 			this->ItemID		= -1;

  00023	b8 ff ff 00 00	 mov	 eax, 65535		; 0000ffffH
  00028	8b 4d fc	 mov	 ecx, DWORD PTR _this$[ebp]
  0002b	66 89 41 06	 mov	 WORD PTR [ecx+6], ax

; 254  : 			this->ItemIndex		= -1;

  0002f	b8 ff ff 00 00	 mov	 eax, 65535		; 0000ffffH
  00034	8b 4d fc	 mov	 ecx, DWORD PTR _this$[ebp]
  00037	66 89 41 08	 mov	 WORD PTR [ecx+8], ax

; 255  : 			this->ItemLevel		= 0;

  0003b	33 c0		 xor	 eax, eax
  0003d	8b 4d fc	 mov	 ecx, DWORD PTR _this$[ebp]
  00040	66 89 41 0a	 mov	 WORD PTR [ecx+10], ax

; 256  : 		};

  00044	5f		 pop	 edi
  00045	5e		 pop	 esi
  00046	5b		 pop	 ebx
  00047	8b e5		 mov	 esp, ebp
  00049	5d		 pop	 ebp
  0004a	c3		 ret	 0
?Clear@CHAOSCASTLE_REWARD@@QAEXXZ ENDP			; CHAOSCASTLE_REWARD::Clear
_TEXT	ENDS
EXTRN	__time64:PROC
; Function compile flags: /Odtp /ZI
; File d:\microsoft visual studio 10.0\vc\include\time.inl
_TEXT	SEGMENT
__Time$ = 8						; size = 4
_time	PROC

; 132  : {

  00190	55		 push	 ebp
  00191	8b ec		 mov	 ebp, esp
  00193	83 ec 40	 sub	 esp, 64			; 00000040H
  00196	53		 push	 ebx
  00197	56		 push	 esi
  00198	57		 push	 edi

; 133  :     return _time64(_Time);

  00199	8b 45 08	 mov	 eax, DWORD PTR __Time$[ebp]
  0019c	50		 push	 eax
  0019d	e8 00 00 00 00	 call	 __time64
  001a2	83 c4 04	 add	 esp, 4

; 134  : }

  001a5	5f		 pop	 edi
  001a6	5e		 pop	 esi
  001a7	5b		 pop	 ebx
  001a8	8b e5		 mov	 esp, ebp
  001aa	5d		 pop	 ebp
  001ab	c3		 ret	 0
_time	ENDP
_TEXT	ENDS
PUBLIC	??1CChaosCastle@@UAE@XZ				; CChaosCastle::~CChaosCastle
EXTRN	??3@YAXPAX@Z:PROC				; operator delete
; Function compile flags: /Odtp /ZI
;	COMDAT ??_GCChaosCastle@@UAEPAXI@Z
_TEXT	SEGMENT
_this$ = -4						; size = 4
___flags$ = 8						; size = 4
??_GCChaosCastle@@UAEPAXI@Z PROC			; CChaosCastle::`scalar deleting destructor', COMDAT
; _this$ = ecx
  00000	55		 push	 ebp
  00001	8b ec		 mov	 ebp, esp
  00003	83 ec 44	 sub	 esp, 68			; 00000044H
  00006	53		 push	 ebx
  00007	56		 push	 esi
  00008	57		 push	 edi
  00009	89 4d fc	 mov	 DWORD PTR _this$[ebp], ecx
  0000c	8b 4d fc	 mov	 ecx, DWORD PTR _this$[ebp]
  0000f	e8 00 00 00 00	 call	 ??1CChaosCastle@@UAE@XZ	; CChaosCastle::~CChaosCastle
  00014	8b 45 08	 mov	 eax, DWORD PTR ___flags$[ebp]
  00017	83 e0 01	 and	 eax, 1
  0001a	74 0c		 je	 SHORT $LN1@scalar
  0001c	8b 45 fc	 mov	 eax, DWORD PTR _this$[ebp]
  0001f	50		 push	 eax
  00020	e8 00 00 00 00	 call	 ??3@YAXPAX@Z		; operator delete
  00025	83 c4 04	 add	 esp, 4
$LN1@scalar:
  00028	8b 45 fc	 mov	 eax, DWORD PTR _this$[ebp]
  0002b	5f		 pop	 edi
  0002c	5e		 pop	 esi
  0002d	5b		 pop	 ebx
  0002e	8b e5		 mov	 esp, ebp
  00030	5d		 pop	 ebp
  00031	c2 04 00	 ret	 4
??_GCChaosCastle@@UAEPAXI@Z ENDP			; CChaosCastle::`scalar deleting destructor'
_TEXT	ENDS
PUBLIC	??0?$map@HU_MONSTER_ITEM_DROP@@U?$less@H@std@@V?$allocator@U?$pair@$$CBHU_MONSTER_ITEM_DROP@@@std@@@3@@std@@QAE@XZ ; std::map<int,_MONSTER_ITEM_DROP,std::less<int>,std::allocator<std::pair<int const ,_MONSTER_ITEM_DROP> > >::map<int,_MONSTER_ITEM_DROP,std::less<int>,std::allocator<std::pair<int const ,_MONSTER_ITEM_DROP> > >
PUBLIC	??0_CHAOSCASTLE_USER@@QAE@XZ			; _CHAOSCASTLE_USER::_CHAOSCASTLE_USER
; Function compile flags: /Odtp /ZI
;	COMDAT ??0_CHAOSCASTLE_DATA@@QAE@XZ
_TEXT	SEGMENT
_this$ = -4						; size = 4
??0_CHAOSCASTLE_DATA@@QAE@XZ PROC			; _CHAOSCASTLE_DATA::_CHAOSCASTLE_DATA, COMDAT
; _this$ = ecx
  00000	55		 push	 ebp
  00001	8b ec		 mov	 ebp, esp
  00003	83 ec 44	 sub	 esp, 68			; 00000044H
  00006	53		 push	 ebx
  00007	56		 push	 esi
  00008	57		 push	 edi
  00009	89 4d fc	 mov	 DWORD PTR _this$[ebp], ecx
  0000c	68 00 00 00 00	 push	 OFFSET ??0_CHAOSCASTLE_USER@@QAE@XZ ; _CHAOSCASTLE_USER::_CHAOSCASTLE_USER
  00011	6a 46		 push	 70			; 00000046H
  00013	6a 14		 push	 20			; 00000014H
  00015	8b 45 fc	 mov	 eax, DWORD PTR _this$[ebp]
  00018	83 c0 3c	 add	 eax, 60			; 0000003cH
  0001b	50		 push	 eax
  0001c	e8 00 00 00 00	 call	 ??_H@YGXPAXIHP6EPAX0@Z@Z
  00021	8b 4d fc	 mov	 ecx, DWORD PTR _this$[ebp]
  00024	81 c1 5c 08 00
	00		 add	 ecx, 2140		; 0000085cH
  0002a	e8 00 00 00 00	 call	 ??0?$map@HU_MONSTER_ITEM_DROP@@U?$less@H@std@@V?$allocator@U?$pair@$$CBHU_MONSTER_ITEM_DROP@@@std@@@3@@std@@QAE@XZ ; std::map<int,_MONSTER_ITEM_DROP,std::less<int>,std::allocator<std::pair<int const ,_MONSTER_ITEM_DROP> > >::map<int,_MONSTER_ITEM_DROP,std::less<int>,std::allocator<std::pair<int const ,_MONSTER_ITEM_DROP> > >
  0002f	8b 45 fc	 mov	 eax, DWORD PTR _this$[ebp]
  00032	5f		 pop	 edi
  00033	5e		 pop	 esi
  00034	5b		 pop	 ebx
  00035	8b e5		 mov	 esp, ebp
  00037	5d		 pop	 ebp
  00038	c3		 ret	 0
??0_CHAOSCASTLE_DATA@@QAE@XZ ENDP			; _CHAOSCASTLE_DATA::_CHAOSCASTLE_DATA
_TEXT	ENDS
PUBLIC	?Clear@_CHAOSCASTLE_USER@@QAEXXZ		; _CHAOSCASTLE_USER::Clear
; Function compile flags: /Odtp /ZI
; File d:\projects\exteam6.3\source\gameserver\gameserver\chaoscastle.h
;	COMDAT ??0_CHAOSCASTLE_USER@@QAE@XZ
_TEXT	SEGMENT
_this$ = -4						; size = 4
??0_CHAOSCASTLE_USER@@QAE@XZ PROC			; _CHAOSCASTLE_USER::_CHAOSCASTLE_USER, COMDAT
; _this$ = ecx

; 157  : 	_CHAOSCASTLE_USER()	// line : 338

  00000	55		 push	 ebp
  00001	8b ec		 mov	 ebp, esp
  00003	83 ec 44	 sub	 esp, 68			; 00000044H
  00006	53		 push	 ebx
  00007	56		 push	 esi
  00008	57		 push	 edi
  00009	89 4d fc	 mov	 DWORD PTR _this$[ebp], ecx

; 158  : 	{
; 159  : 		this->Clear();

  0000c	8b 4d fc	 mov	 ecx, DWORD PTR _this$[ebp]
  0000f	e8 00 00 00 00	 call	 ?Clear@_CHAOSCASTLE_USER@@QAEXXZ ; _CHAOSCASTLE_USER::Clear

; 160  : 	};	// line : 340

  00014	8b 45 fc	 mov	 eax, DWORD PTR _this$[ebp]
  00017	5f		 pop	 edi
  00018	5e		 pop	 esi
  00019	5b		 pop	 ebx
  0001a	8b e5		 mov	 esp, ebp
  0001c	5d		 pop	 ebp
  0001d	c3		 ret	 0
??0_CHAOSCASTLE_USER@@QAE@XZ ENDP			; _CHAOSCASTLE_USER::_CHAOSCASTLE_USER
; Function compile flags: /Odtp /ZI
_TEXT	ENDS
;	COMDAT ?Clear@_CHAOSCASTLE_USER@@QAEXXZ
_TEXT	SEGMENT
_this$ = -4						; size = 4
?Clear@_CHAOSCASTLE_USER@@QAEXXZ PROC			; _CHAOSCASTLE_USER::Clear, COMDAT
; _this$ = ecx

; 163  : 	{

  00000	55		 push	 ebp
  00001	8b ec		 mov	 ebp, esp
  00003	83 ec 44	 sub	 esp, 68			; 00000044H
  00006	53		 push	 ebx
  00007	56		 push	 esi
  00008	57		 push	 edi
  00009	89 4d fc	 mov	 DWORD PTR _this$[ebp], ecx

; 164  : 		this->m_iIndex = -1;

  0000c	8b 45 fc	 mov	 eax, DWORD PTR _this$[ebp]
  0000f	c7 00 ff ff ff
	ff		 mov	 DWORD PTR [eax], -1

; 165  : 		this->m_iEXP = 0;

  00015	8b 45 fc	 mov	 eax, DWORD PTR _this$[ebp]
  00018	c7 40 04 00 00
	00 00		 mov	 DWORD PTR [eax+4], 0

; 166  : 		this->m_iScore = 0;

  0001f	8b 45 fc	 mov	 eax, DWORD PTR _this$[ebp]
  00022	c7 40 08 00 00
	00 00		 mov	 DWORD PTR [eax+8], 0

; 167  : 		this->m_iUserState = 0;

  00029	8b 45 fc	 mov	 eax, DWORD PTR _this$[ebp]
  0002c	c7 40 0c 00 00
	00 00		 mov	 DWORD PTR [eax+12], 0

; 168  : 		this->m_bSendQuitMsg = false;

  00033	8b 45 fc	 mov	 eax, DWORD PTR _this$[ebp]
  00036	c6 40 10 00	 mov	 BYTE PTR [eax+16], 0

; 169  : 	};	// line : 348

  0003a	5f		 pop	 edi
  0003b	5e		 pop	 esi
  0003c	5b		 pop	 ebx
  0003d	8b e5		 mov	 esp, ebp
  0003f	5d		 pop	 ebp
  00040	c3		 ret	 0
?Clear@_CHAOSCASTLE_USER@@QAEXXZ ENDP			; _CHAOSCASTLE_USER::Clear
_TEXT	ENDS
PUBLIC	??1?$map@HU_MONSTER_ITEM_DROP@@U?$less@H@std@@V?$allocator@U?$pair@$$CBHU_MONSTER_ITEM_DROP@@@std@@@3@@std@@QAE@XZ ; std::map<int,_MONSTER_ITEM_DROP,std::less<int>,std::allocator<std::pair<int const ,_MONSTER_ITEM_DROP> > >::~map<int,_MONSTER_ITEM_DROP,std::less<int>,std::allocator<std::pair<int const ,_MONSTER_ITEM_DROP> > >
; Function compile flags: /Odtp /ZI
;	COMDAT ??1_CHAOSCASTLE_DATA@@QAE@XZ
_TEXT	SEGMENT
_this$ = -4						; size = 4
??1_CHAOSCASTLE_DATA@@QAE@XZ PROC			; _CHAOSCASTLE_DATA::~_CHAOSCASTLE_DATA, COMDAT
; _this$ = ecx
  00000	55		 push	 ebp
  00001	8b ec		 mov	 ebp, esp
  00003	83 ec 44	 sub	 esp, 68			; 00000044H
  00006	53		 push	 ebx
  00007	56		 push	 esi
  00008	57		 push	 edi
  00009	89 4d fc	 mov	 DWORD PTR _this$[ebp], ecx
  0000c	8b 4d fc	 mov	 ecx, DWORD PTR _this$[ebp]
  0000f	81 c1 5c 08 00
	00		 add	 ecx, 2140		; 0000085cH
  00015	e8 00 00 00 00	 call	 ??1?$map@HU_MONSTER_ITEM_DROP@@U?$less@H@std@@V?$allocator@U?$pair@$$CBHU_MONSTER_ITEM_DROP@@@std@@@3@@std@@QAE@XZ
  0001a	5f		 pop	 edi
  0001b	5e		 pop	 esi
  0001c	5b		 pop	 ebx
  0001d	8b e5		 mov	 esp, ebp
  0001f	5d		 pop	 ebp
  00020	c3		 ret	 0
??1_CHAOSCASTLE_DATA@@QAE@XZ ENDP			; _CHAOSCASTLE_DATA::~_CHAOSCASTLE_DATA
_TEXT	ENDS
PUBLIC	??1?$_Tree@V?$_Tmap_traits@HU_MONSTER_ITEM_DROP@@U?$less@H@std@@V?$allocator@U?$pair@$$CBHU_MONSTER_ITEM_DROP@@@std@@@3@$0A@@std@@@std@@QAE@XZ ; std::_Tree<std::_Tmap_traits<int,_MONSTER_ITEM_DROP,std::less<int>,std::allocator<std::pair<int const ,_MONSTER_ITEM_DROP> >,0> >::~_Tree<std::_Tmap_traits<int,_MONSTER_ITEM_DROP,std::less<int>,std::allocator<std::pair<int const ,_MONSTER_ITEM_DROP> >,0> >
; Function compile flags: /Odtp /ZI
;	COMDAT ??1?$map@HU_MONSTER_ITEM_DROP@@U?$less@H@std@@V?$allocator@U?$pair@$$CBHU_MONSTER_ITEM_DROP@@@std@@@3@@std@@QAE@XZ
_TEXT	SEGMENT
_this$ = -4						; size = 4
??1?$map@HU_MONSTER_ITEM_DROP@@U?$less@H@std@@V?$allocator@U?$pair@$$CBHU_MONSTER_ITEM_DROP@@@std@@@3@@std@@QAE@XZ PROC ; std::map<int,_MONSTER_ITEM_DROP,std::less<int>,std::allocator<std::pair<int const ,_MONSTER_ITEM_DROP> > >::~map<int,_MONSTER_ITEM_DROP,std::less<int>,std::allocator<std::pair<int const ,_MONSTER_ITEM_DROP> > >, COMDAT
; _this$ = ecx
  00000	55		 push	 ebp
  00001	8b ec		 mov	 ebp, esp
  00003	83 ec 44	 sub	 esp, 68			; 00000044H
  00006	53		 push	 ebx
  00007	56		 push	 esi
  00008	57		 push	 edi
  00009	89 4d fc	 mov	 DWORD PTR _this$[ebp], ecx
  0000c	8b 4d fc	 mov	 ecx, DWORD PTR _this$[ebp]
  0000f	e8 00 00 00 00	 call	 ??1?$_Tree@V?$_Tmap_traits@HU_MONSTER_ITEM_DROP@@U?$less@H@std@@V?$allocator@U?$pair@$$CBHU_MONSTER_ITEM_DROP@@@std@@@3@$0A@@std@@@std@@QAE@XZ ; std::_Tree<std::_Tmap_traits<int,_MONSTER_ITEM_DROP,std::less<int>,std::allocator<std::pair<int const ,_MONSTER_ITEM_DROP> >,0> >::~_Tree<std::_Tmap_traits<int,_MONSTER_ITEM_DROP,std::less<int>,std::allocator<std::pair<int const ,_MONSTER_ITEM_DROP> >,0> >
  00014	5f		 pop	 edi
  00015	5e		 pop	 esi
  00016	5b		 pop	 ebx
  00017	8b e5		 mov	 esp, ebp
  00019	5d		 pop	 ebp
  0001a	c3		 ret	 0
??1?$map@HU_MONSTER_ITEM_DROP@@U?$less@H@std@@V?$allocator@U?$pair@$$CBHU_MONSTER_ITEM_DROP@@@std@@@3@@std@@QAE@XZ ENDP ; std::map<int,_MONSTER_ITEM_DROP,std::less<int>,std::allocator<std::pair<int const ,_MONSTER_ITEM_DROP> > >::~map<int,_MONSTER_ITEM_DROP,std::less<int>,std::allocator<std::pair<int const ,_MONSTER_ITEM_DROP> > >
_TEXT	ENDS
xdata$x	SEGMENT
__unwindtable$??1CChaosCastle@@UAE@XZ DD 0ffffffffH
	DD	FLAT:__unwindfunclet$??1CChaosCastle@@UAE@XZ$0
__ehfuncinfo$??1CChaosCastle@@UAE@XZ DD 019930522H
	DD	01H
	DD	FLAT:__unwindtable$??1CChaosCastle@@UAE@XZ
	DD	2 DUP(00H)
	DD	2 DUP(00H)
	DD	00H
	DD	01H
; Function compile flags: /Odtp /ZI
; File d:\projects\exteam6.3\source\gameserver\gameserver\chaoscastle.cpp
xdata$x	ENDS
_TEXT	SEGMENT
_i$236378 = -20						; size = 4
_this$ = -16						; size = 4
__$EHRec$ = -12						; size = 12
??1CChaosCastle@@UAE@XZ PROC				; CChaosCastle::~CChaosCastle
; _this$ = ecx

; 57   : {

  001b0	55		 push	 ebp
  001b1	8b ec		 mov	 ebp, esp
  001b3	6a ff		 push	 -1
  001b5	68 00 00 00 00	 push	 __ehhandler$??1CChaosCastle@@UAE@XZ
  001ba	64 a1 00 00 00
	00		 mov	 eax, DWORD PTR fs:0
  001c0	50		 push	 eax
  001c1	83 ec 48	 sub	 esp, 72			; 00000048H
  001c4	53		 push	 ebx
  001c5	56		 push	 esi
  001c6	57		 push	 edi
  001c7	a1 00 00 00 00	 mov	 eax, DWORD PTR ___security_cookie
  001cc	33 c5		 xor	 eax, ebp
  001ce	50		 push	 eax
  001cf	8d 45 f4	 lea	 eax, DWORD PTR __$EHRec$[ebp]
  001d2	64 a3 00 00 00
	00		 mov	 DWORD PTR fs:0, eax
  001d8	89 4d f0	 mov	 DWORD PTR _this$[ebp], ecx
  001db	8b 45 f0	 mov	 eax, DWORD PTR _this$[ebp]
  001de	c7 00 00 00 00
	00		 mov	 DWORD PTR [eax], OFFSET ??_7CChaosCastle@@6B@
  001e4	c7 45 fc 00 00
	00 00		 mov	 DWORD PTR __$EHRec$[ebp+8], 0

; 58   : 	for ( int i=0;i<MAX_CHAOSCASTLE_LEVEL;i++)

  001eb	c7 45 ec 00 00
	00 00		 mov	 DWORD PTR _i$236378[ebp], 0
  001f2	eb 09		 jmp	 SHORT $LN3@CChaosCast@2
$LN2@CChaosCast@2:
  001f4	8b 45 ec	 mov	 eax, DWORD PTR _i$236378[ebp]
  001f7	83 c0 01	 add	 eax, 1
  001fa	89 45 ec	 mov	 DWORD PTR _i$236378[ebp], eax
$LN3@CChaosCast@2:
  001fd	83 7d ec 07	 cmp	 DWORD PTR _i$236378[ebp], 7
  00201	7d 02		 jge	 SHORT $LN4@CChaosCast@2

; 59   : 	{
; 60   : 	}

  00203	eb ef		 jmp	 SHORT $LN2@CChaosCast@2
$LN4@CChaosCast@2:

; 61   : }

  00205	68 00 00 00 00	 push	 OFFSET ??1_CHAOSCASTLE_DATA@@QAE@XZ
  0020a	6a 07		 push	 7
  0020c	68 70 08 00 00	 push	 2160			; 00000870H
  00211	8b 45 f0	 mov	 eax, DWORD PTR _this$[ebp]
  00214	83 c0 30	 add	 eax, 48			; 00000030H
  00217	50		 push	 eax
  00218	e8 00 00 00 00	 call	 ??_M@YGXPAXIHP6EX0@Z@Z
  0021d	c7 45 fc ff ff
	ff ff		 mov	 DWORD PTR __$EHRec$[ebp+8], -1
  00224	8b 4d f0	 mov	 ecx, DWORD PTR _this$[ebp]
  00227	83 c1 20	 add	 ecx, 32			; 00000020H
  0022a	e8 00 00 00 00	 call	 ??1?$vector@UCHAOSCASTLE_START_TIME@@V?$allocator@UCHAOSCASTLE_START_TIME@@@std@@@std@@QAE@XZ ; std::vector<CHAOSCASTLE_START_TIME,std::allocator<CHAOSCASTLE_START_TIME> >::~vector<CHAOSCASTLE_START_TIME,std::allocator<CHAOSCASTLE_START_TIME> >
  0022f	8b 4d f4	 mov	 ecx, DWORD PTR __$EHRec$[ebp]
  00232	64 89 0d 00 00
	00 00		 mov	 DWORD PTR fs:0, ecx
  00239	59		 pop	 ecx
  0023a	5f		 pop	 edi
  0023b	5e		 pop	 esi
  0023c	5b		 pop	 ebx
  0023d	8b e5		 mov	 esp, ebp
  0023f	5d		 pop	 ebp
  00240	c3		 ret	 0
_TEXT	ENDS
text$x	SEGMENT
__unwindfunclet$??1CChaosCastle@@UAE@XZ$0:
  0003f	8b 4d f0	 mov	 ecx, DWORD PTR _this$[ebp]
  00042	83 c1 20	 add	 ecx, 32			; 00000020H
  00045	e9 00 00 00 00	 jmp	 ??1?$vector@UCHAOSCASTLE_START_TIME@@V?$allocator@UCHAOSCASTLE_START_TIME@@@std@@@std@@QAE@XZ ; std::vector<CHAOSCASTLE_START_TIME,std::allocator<CHAOSCASTLE_START_TIME> >::~vector<CHAOSCASTLE_START_TIME,std::allocator<CHAOSCASTLE_START_TIME> >
__ehhandler$??1CChaosCastle@@UAE@XZ:
  0004a	8b 54 24 08	 mov	 edx, DWORD PTR [esp+8]
  0004e	8d 42 0c	 lea	 eax, DWORD PTR [edx+12]
  00051	8b 4a a8	 mov	 ecx, DWORD PTR [edx-88]
  00054	33 c8		 xor	 ecx, eax
  00056	e8 00 00 00 00	 call	 @__security_check_cookie@4
  0005b	b8 00 00 00 00	 mov	 eax, OFFSET __ehfuncinfo$??1CChaosCastle@@UAE@XZ
  00060	e9 00 00 00 00	 jmp	 ___CxxFrameHandler3
text$x	ENDS
??1CChaosCastle@@UAE@XZ ENDP				; CChaosCastle::~CChaosCastle
PUBLIC	?ProcState_PlayEnd@CChaosCastle@@IAEXH@Z	; CChaosCastle::ProcState_PlayEnd
PUBLIC	?ProcState_Playing@CChaosCastle@@IAEXH@Z	; CChaosCastle::ProcState_Playing
PUBLIC	?ProcState_Closed@CChaosCastle@@IAEXH@Z		; CChaosCastle::ProcState_Closed
PUBLIC	?ProcState_None@CChaosCastle@@IAEXH@Z		; CChaosCastle::ProcState_None
PUBLIC	?Run@CChaosCastle@@QAEXXZ			; CChaosCastle::Run
EXTRN	?DestroyGIocp@@YAXXZ:PROC			; DestroyGIocp
EXTRN	?szAuthKey@@3PADA:BYTE				; szAuthKey
; Function compile flags: /Odtp /ZI
_TEXT	SEGMENT
tv71 = -76						; size = 4
_i$236386 = -8						; size = 4
_this$ = -4						; size = 4
?Run@CChaosCastle@@QAEXXZ PROC				; CChaosCastle::Run
; _this$ = ecx

; 64   : {

  00250	55		 push	 ebp
  00251	8b ec		 mov	 ebp, esp
  00253	83 ec 4c	 sub	 esp, 76			; 0000004cH
  00256	53		 push	 ebx
  00257	56		 push	 esi
  00258	57		 push	 edi
  00259	89 4d fc	 mov	 DWORD PTR _this$[ebp], ecx

; 65   : 	if ( this->m_bCC_EVENT_ENABLE != FALSE )

  0025c	8b 45 fc	 mov	 eax, DWORD PTR _this$[ebp]
  0025f	83 78 04 00	 cmp	 DWORD PTR [eax+4], 0
  00263	0f 84 84 00 00
	00		 je	 $LN12@Run

; 66   : 	{
; 67   : 		for ( int i=0;i<MAX_CHAOSCASTLE_LEVEL;i++)

  00269	c7 45 f8 00 00
	00 00		 mov	 DWORD PTR _i$236386[ebp], 0
  00270	eb 09		 jmp	 SHORT $LN10@Run
$LN9@Run:
  00272	8b 45 f8	 mov	 eax, DWORD PTR _i$236386[ebp]
  00275	83 c0 01	 add	 eax, 1
  00278	89 45 f8	 mov	 DWORD PTR _i$236386[ebp], eax
$LN10@Run:
  0027b	83 7d f8 07	 cmp	 DWORD PTR _i$236386[ebp], 7
  0027f	7d 5b		 jge	 SHORT $LN8@Run

; 68   : 		{
; 69   : 			switch ( this->m_stChaosCastleData[i].m_iCC_STATE )

  00281	8b 45 f8	 mov	 eax, DWORD PTR _i$236386[ebp]
  00284	69 c0 70 08 00
	00		 imul	 eax, 2160		; 00000870H
  0028a	8b 4d fc	 mov	 ecx, DWORD PTR _this$[ebp]
  0028d	8b 54 01 30	 mov	 edx, DWORD PTR [ecx+eax+48]
  00291	89 55 b4	 mov	 DWORD PTR tv71[ebp], edx
  00294	83 7d b4 03	 cmp	 DWORD PTR tv71[ebp], 3
  00298	77 40		 ja	 SHORT $LN6@Run
  0029a	8b 45 b4	 mov	 eax, DWORD PTR tv71[ebp]
  0029d	ff 24 85 00 00
	00 00		 jmp	 DWORD PTR $LN14@Run[eax*4]
$LN5@Run:

; 70   : 			{
; 71   : 				case CC_STATE_NONE:
; 72   : 					this->ProcState_None(i);

  002a4	8b 45 f8	 mov	 eax, DWORD PTR _i$236386[ebp]
  002a7	50		 push	 eax
  002a8	8b 4d fc	 mov	 ecx, DWORD PTR _this$[ebp]
  002ab	e8 00 00 00 00	 call	 ?ProcState_None@CChaosCastle@@IAEXH@Z ; CChaosCastle::ProcState_None

; 73   : 					break;

  002b0	eb 28		 jmp	 SHORT $LN6@Run
$LN4@Run:

; 74   : 
; 75   : 				case CC_STATE_CLOSED:
; 76   : 					this->ProcState_Closed(i);

  002b2	8b 45 f8	 mov	 eax, DWORD PTR _i$236386[ebp]
  002b5	50		 push	 eax
  002b6	8b 4d fc	 mov	 ecx, DWORD PTR _this$[ebp]
  002b9	e8 00 00 00 00	 call	 ?ProcState_Closed@CChaosCastle@@IAEXH@Z ; CChaosCastle::ProcState_Closed

; 77   : 					break;

  002be	eb 1a		 jmp	 SHORT $LN6@Run
$LN3@Run:

; 78   : 
; 79   : 				case CC_STATE_PLAYING:
; 80   : 					this->ProcState_Playing(i);

  002c0	8b 45 f8	 mov	 eax, DWORD PTR _i$236386[ebp]
  002c3	50		 push	 eax
  002c4	8b 4d fc	 mov	 ecx, DWORD PTR _this$[ebp]
  002c7	e8 00 00 00 00	 call	 ?ProcState_Playing@CChaosCastle@@IAEXH@Z ; CChaosCastle::ProcState_Playing

; 81   : 					break;

  002cc	eb 0c		 jmp	 SHORT $LN6@Run
$LN2@Run:

; 82   : 
; 83   : 				case CC_STATE_PLAYEND:
; 84   : 					this->ProcState_PlayEnd(i);

  002ce	8b 45 f8	 mov	 eax, DWORD PTR _i$236386[ebp]
  002d1	50		 push	 eax
  002d2	8b 4d fc	 mov	 ecx, DWORD PTR _this$[ebp]
  002d5	e8 00 00 00 00	 call	 ?ProcState_PlayEnd@CChaosCastle@@IAEXH@Z ; CChaosCastle::ProcState_PlayEnd
$LN6@Run:

; 85   : 					break;
; 86   : 			}
; 87   : 		}

  002da	eb 96		 jmp	 SHORT $LN9@Run
$LN8@Run:

; 88   : 
; 89   : 		if ( szAuthKey[13] != AUTHKEY13 )

  002dc	0f be 05 0d 00
	00 00		 movsx	 eax, BYTE PTR ?szAuthKey@@3PADA+13
  002e3	83 f8 bb	 cmp	 eax, -69		; ffffffbbH
  002e6	74 05		 je	 SHORT $LN12@Run

; 90   : 		{
; 91   : 			DestroyGIocp();

  002e8	e8 00 00 00 00	 call	 ?DestroyGIocp@@YAXXZ	; DestroyGIocp
$LN12@Run:

; 92   : 		}
; 93   : 
; 94   : 	}
; 95   : }

  002ed	5f		 pop	 edi
  002ee	5e		 pop	 esi
  002ef	5b		 pop	 ebx
  002f0	8b e5		 mov	 esp, ebp
  002f2	5d		 pop	 ebp
  002f3	c3		 ret	 0
$LN14@Run:
  002f4	00 00 00 00	 DD	 $LN5@Run
  002f8	00 00 00 00	 DD	 $LN4@Run
  002fc	00 00 00 00	 DD	 $LN3@Run
  00300	00 00 00 00	 DD	 $LN2@Run
?Run@CChaosCastle@@QAEXXZ ENDP				; CChaosCastle::Run
_TEXT	ENDS
PUBLIC	?SetState@CChaosCastle@@QAEXHH@Z		; CChaosCastle::SetState
PUBLIC	?Init@CChaosCastle@@QAEX_N@Z			; CChaosCastle::Init
_BSS	SEGMENT
_g_rtPOINT_TRAP DB 040H DUP (?)
_g_rtPOINT_FRAME DB 040H DUP (?)
; Function compile flags: /Odtp /ZI
_BSS	ENDS
_TEXT	SEGMENT
_iTRAP_STEP$236407 = -12				; size = 4
_i$236403 = -8						; size = 4
_this$ = -4						; size = 4
_bEVENT_ENABLE$ = 8					; size = 1
?Init@CChaosCastle@@QAEX_N@Z PROC			; CChaosCastle::Init
; _this$ = ecx

; 98   : {

  00310	55		 push	 ebp
  00311	8b ec		 mov	 ebp, esp
  00313	83 ec 4c	 sub	 esp, 76			; 0000004cH
  00316	53		 push	 ebx
  00317	56		 push	 esi
  00318	57		 push	 edi
  00319	89 4d fc	 mov	 DWORD PTR _this$[ebp], ecx

; 99   : 	this->m_bCC_EVENT_ENABLE = bEVENT_ENABLE;

  0031c	0f b6 45 08	 movzx	 eax, BYTE PTR _bEVENT_ENABLE$[ebp]
  00320	8b 4d fc	 mov	 ecx, DWORD PTR _this$[ebp]
  00323	89 41 04	 mov	 DWORD PTR [ecx+4], eax

; 100  : 
; 101  : 	for ( int i=0;i<MAX_CHAOSCASTLE_LEVEL;i++)

  00326	c7 45 f8 00 00
	00 00		 mov	 DWORD PTR _i$236403[ebp], 0
  0032d	eb 09		 jmp	 SHORT $LN6@Init
$LN5@Init:
  0032f	8b 45 f8	 mov	 eax, DWORD PTR _i$236403[ebp]
  00332	83 c0 01	 add	 eax, 1
  00335	89 45 f8	 mov	 DWORD PTR _i$236403[ebp], eax
$LN6@Init:
  00338	83 7d f8 07	 cmp	 DWORD PTR _i$236403[ebp], 7
  0033c	7d 10		 jge	 SHORT $LN4@Init

; 102  : 	{
; 103  : 		this->SetState(i, CC_STATE_CLOSED);

  0033e	6a 01		 push	 1
  00340	8b 45 f8	 mov	 eax, DWORD PTR _i$236403[ebp]
  00343	50		 push	 eax
  00344	8b 4d fc	 mov	 ecx, DWORD PTR _this$[ebp]
  00347	e8 00 00 00 00	 call	 ?SetState@CChaosCastle@@QAEXHH@Z ; CChaosCastle::SetState

; 104  : 	}

  0034c	eb e1		 jmp	 SHORT $LN5@Init
$LN4@Init:

; 105  : 
; 106  : 	for ( int iTRAP_STEP = 0; iTRAP_STEP<MAX_CC_TRAP_STEP;iTRAP_STEP++)

  0034e	c7 45 f4 00 00
	00 00		 mov	 DWORD PTR _iTRAP_STEP$236407[ebp], 0
  00355	eb 09		 jmp	 SHORT $LN3@Init
$LN2@Init:
  00357	8b 45 f4	 mov	 eax, DWORD PTR _iTRAP_STEP$236407[ebp]
  0035a	83 c0 01	 add	 eax, 1
  0035d	89 45 f4	 mov	 DWORD PTR _iTRAP_STEP$236407[ebp], eax
$LN3@Init:
  00360	83 7d f4 04	 cmp	 DWORD PTR _iTRAP_STEP$236407[ebp], 4
  00364	0f 8d b5 02 00
	00		 jge	 $LN7@Init

; 107  : 	{
; 108  : 		g_rtPOINT_FRAME[0].left = (::g_iChaosCastle_GroundAxis[2] + ::g_iChaosCastle_GroundAxis[0]) / 2 + 1;

  0036a	a1 08 00 00 00	 mov	 eax, DWORD PTR _g_iChaosCastle_GroundAxis+8
  0036f	03 05 00 00 00
	00		 add	 eax, DWORD PTR _g_iChaosCastle_GroundAxis
  00375	99		 cdq
  00376	2b c2		 sub	 eax, edx
  00378	d1 f8		 sar	 eax, 1
  0037a	83 c0 01	 add	 eax, 1
  0037d	a3 00 00 00 00	 mov	 DWORD PTR _g_rtPOINT_FRAME, eax

; 109  : 		g_rtPOINT_FRAME[0].top = g_iChaosCastle_GroundAxis[1];

  00382	a1 04 00 00 00	 mov	 eax, DWORD PTR _g_iChaosCastle_GroundAxis+4
  00387	a3 04 00 00 00	 mov	 DWORD PTR _g_rtPOINT_FRAME+4, eax

; 110  : 		g_rtPOINT_FRAME[0].right = ::g_iChaosCastle_GroundAxis[2];

  0038c	a1 08 00 00 00	 mov	 eax, DWORD PTR _g_iChaosCastle_GroundAxis+8
  00391	a3 08 00 00 00	 mov	 DWORD PTR _g_rtPOINT_FRAME+8, eax

; 111  : 		g_rtPOINT_FRAME[0].bottom = (::g_iChaosCastle_GroundAxis[3] + ::g_iChaosCastle_GroundAxis[1] ) / 2 ;

  00396	a1 0c 00 00 00	 mov	 eax, DWORD PTR _g_iChaosCastle_GroundAxis+12
  0039b	03 05 04 00 00
	00		 add	 eax, DWORD PTR _g_iChaosCastle_GroundAxis+4
  003a1	99		 cdq
  003a2	2b c2		 sub	 eax, edx
  003a4	d1 f8		 sar	 eax, 1
  003a6	a3 0c 00 00 00	 mov	 DWORD PTR _g_rtPOINT_FRAME+12, eax

; 112  : 
; 113  : 		g_rtPOINT_FRAME[1].left = (::g_iChaosCastle_GroundAxis[2] + ::g_iChaosCastle_GroundAxis[0]) / 2 + 1;

  003ab	a1 08 00 00 00	 mov	 eax, DWORD PTR _g_iChaosCastle_GroundAxis+8
  003b0	03 05 00 00 00
	00		 add	 eax, DWORD PTR _g_iChaosCastle_GroundAxis
  003b6	99		 cdq
  003b7	2b c2		 sub	 eax, edx
  003b9	d1 f8		 sar	 eax, 1
  003bb	83 c0 01	 add	 eax, 1
  003be	a3 10 00 00 00	 mov	 DWORD PTR _g_rtPOINT_FRAME+16, eax

; 114  : 		g_rtPOINT_FRAME[1].top = (::g_iChaosCastle_GroundAxis[3] + ::g_iChaosCastle_GroundAxis[1] ) / 2 + 1;

  003c3	a1 0c 00 00 00	 mov	 eax, DWORD PTR _g_iChaosCastle_GroundAxis+12
  003c8	03 05 04 00 00
	00		 add	 eax, DWORD PTR _g_iChaosCastle_GroundAxis+4
  003ce	99		 cdq
  003cf	2b c2		 sub	 eax, edx
  003d1	d1 f8		 sar	 eax, 1
  003d3	83 c0 01	 add	 eax, 1
  003d6	a3 14 00 00 00	 mov	 DWORD PTR _g_rtPOINT_FRAME+20, eax

; 115  : 		g_rtPOINT_FRAME[1].right = g_iChaosCastle_GroundAxis[2];

  003db	a1 08 00 00 00	 mov	 eax, DWORD PTR _g_iChaosCastle_GroundAxis+8
  003e0	a3 18 00 00 00	 mov	 DWORD PTR _g_rtPOINT_FRAME+24, eax

; 116  : 		g_rtPOINT_FRAME[1].bottom = ::g_iChaosCastle_GroundAxis[3];

  003e5	a1 0c 00 00 00	 mov	 eax, DWORD PTR _g_iChaosCastle_GroundAxis+12
  003ea	a3 1c 00 00 00	 mov	 DWORD PTR _g_rtPOINT_FRAME+28, eax

; 117  : 		
; 118  : 		g_rtPOINT_FRAME[2].left = ::g_iChaosCastle_GroundAxis[0];

  003ef	a1 00 00 00 00	 mov	 eax, DWORD PTR _g_iChaosCastle_GroundAxis
  003f4	a3 20 00 00 00	 mov	 DWORD PTR _g_rtPOINT_FRAME+32, eax

; 119  : 		g_rtPOINT_FRAME[2].top = (::g_iChaosCastle_GroundAxis[3] + ::g_iChaosCastle_GroundAxis[1] ) / 2 + 1;

  003f9	a1 0c 00 00 00	 mov	 eax, DWORD PTR _g_iChaosCastle_GroundAxis+12
  003fe	03 05 04 00 00
	00		 add	 eax, DWORD PTR _g_iChaosCastle_GroundAxis+4
  00404	99		 cdq
  00405	2b c2		 sub	 eax, edx
  00407	d1 f8		 sar	 eax, 1
  00409	83 c0 01	 add	 eax, 1
  0040c	a3 24 00 00 00	 mov	 DWORD PTR _g_rtPOINT_FRAME+36, eax

; 120  : 		g_rtPOINT_FRAME[2].right = (::g_iChaosCastle_GroundAxis[2] + ::g_iChaosCastle_GroundAxis[0] ) / 2 ;

  00411	a1 08 00 00 00	 mov	 eax, DWORD PTR _g_iChaosCastle_GroundAxis+8
  00416	03 05 00 00 00
	00		 add	 eax, DWORD PTR _g_iChaosCastle_GroundAxis
  0041c	99		 cdq
  0041d	2b c2		 sub	 eax, edx
  0041f	d1 f8		 sar	 eax, 1
  00421	a3 28 00 00 00	 mov	 DWORD PTR _g_rtPOINT_FRAME+40, eax

; 121  : 		g_rtPOINT_FRAME[2].bottom = ::g_iChaosCastle_GroundAxis[3];

  00426	a1 0c 00 00 00	 mov	 eax, DWORD PTR _g_iChaosCastle_GroundAxis+12
  0042b	a3 2c 00 00 00	 mov	 DWORD PTR _g_rtPOINT_FRAME+44, eax

; 122  : 
; 123  : 		g_rtPOINT_FRAME[3].left = ::g_iChaosCastle_GroundAxis[0];

  00430	a1 00 00 00 00	 mov	 eax, DWORD PTR _g_iChaosCastle_GroundAxis
  00435	a3 30 00 00 00	 mov	 DWORD PTR _g_rtPOINT_FRAME+48, eax

; 124  : 		g_rtPOINT_FRAME[3].top = ::g_iChaosCastle_GroundAxis[1];

  0043a	a1 04 00 00 00	 mov	 eax, DWORD PTR _g_iChaosCastle_GroundAxis+4
  0043f	a3 34 00 00 00	 mov	 DWORD PTR _g_rtPOINT_FRAME+52, eax

; 125  : 		g_rtPOINT_FRAME[3].right = (::g_iChaosCastle_GroundAxis[2] + ::g_iChaosCastle_GroundAxis[0] ) / 2;

  00444	a1 08 00 00 00	 mov	 eax, DWORD PTR _g_iChaosCastle_GroundAxis+8
  00449	03 05 00 00 00
	00		 add	 eax, DWORD PTR _g_iChaosCastle_GroundAxis
  0044f	99		 cdq
  00450	2b c2		 sub	 eax, edx
  00452	d1 f8		 sar	 eax, 1
  00454	a3 38 00 00 00	 mov	 DWORD PTR _g_rtPOINT_FRAME+56, eax

; 126  : 		g_rtPOINT_FRAME[3].bottom = (::g_iChaosCastle_GroundAxis[3] + ::g_iChaosCastle_GroundAxis[1] ) / 2;

  00459	a1 0c 00 00 00	 mov	 eax, DWORD PTR _g_iChaosCastle_GroundAxis+12
  0045e	03 05 04 00 00
	00		 add	 eax, DWORD PTR _g_iChaosCastle_GroundAxis+4
  00464	99		 cdq
  00465	2b c2		 sub	 eax, edx
  00467	d1 f8		 sar	 eax, 1
  00469	a3 3c 00 00 00	 mov	 DWORD PTR _g_rtPOINT_FRAME+60, eax

; 127  : 
; 128  : 		g_rtPOINT_TRAP[0].left = (::g_iChaosCastle_DamageAxis[iTRAP_STEP][2] + ::g_iChaosCastle_DamageAxis[iTRAP_STEP][0]) / 2 + 1;

  0046e	8b 45 f4	 mov	 eax, DWORD PTR _iTRAP_STEP$236407[ebp]
  00471	c1 e0 04	 shl	 eax, 4
  00474	8b 4d f4	 mov	 ecx, DWORD PTR _iTRAP_STEP$236407[ebp]
  00477	c1 e1 04	 shl	 ecx, 4
  0047a	8b 80 08 00 00
	00		 mov	 eax, DWORD PTR _g_iChaosCastle_DamageAxis[eax+8]
  00480	03 81 00 00 00
	00		 add	 eax, DWORD PTR _g_iChaosCastle_DamageAxis[ecx]
  00486	99		 cdq
  00487	2b c2		 sub	 eax, edx
  00489	d1 f8		 sar	 eax, 1
  0048b	83 c0 01	 add	 eax, 1
  0048e	a3 00 00 00 00	 mov	 DWORD PTR _g_rtPOINT_TRAP, eax

; 129  : 		g_rtPOINT_TRAP[0].top = ::g_iChaosCastle_DamageAxis[iTRAP_STEP][1];

  00493	8b 45 f4	 mov	 eax, DWORD PTR _iTRAP_STEP$236407[ebp]
  00496	c1 e0 04	 shl	 eax, 4
  00499	8b 88 04 00 00
	00		 mov	 ecx, DWORD PTR _g_iChaosCastle_DamageAxis[eax+4]
  0049f	89 0d 04 00 00
	00		 mov	 DWORD PTR _g_rtPOINT_TRAP+4, ecx

; 130  : 		g_rtPOINT_TRAP[0].right = ::g_iChaosCastle_DamageAxis[iTRAP_STEP][2];

  004a5	8b 45 f4	 mov	 eax, DWORD PTR _iTRAP_STEP$236407[ebp]
  004a8	c1 e0 04	 shl	 eax, 4
  004ab	8b 88 08 00 00
	00		 mov	 ecx, DWORD PTR _g_iChaosCastle_DamageAxis[eax+8]
  004b1	89 0d 08 00 00
	00		 mov	 DWORD PTR _g_rtPOINT_TRAP+8, ecx

; 131  : 		g_rtPOINT_TRAP[0].bottom = (::g_iChaosCastle_DamageAxis[iTRAP_STEP][3] + ::g_iChaosCastle_DamageAxis[iTRAP_STEP][1]) / 2;

  004b7	8b 45 f4	 mov	 eax, DWORD PTR _iTRAP_STEP$236407[ebp]
  004ba	c1 e0 04	 shl	 eax, 4
  004bd	8b 4d f4	 mov	 ecx, DWORD PTR _iTRAP_STEP$236407[ebp]
  004c0	c1 e1 04	 shl	 ecx, 4
  004c3	8b 80 0c 00 00
	00		 mov	 eax, DWORD PTR _g_iChaosCastle_DamageAxis[eax+12]
  004c9	03 81 04 00 00
	00		 add	 eax, DWORD PTR _g_iChaosCastle_DamageAxis[ecx+4]
  004cf	99		 cdq
  004d0	2b c2		 sub	 eax, edx
  004d2	d1 f8		 sar	 eax, 1
  004d4	a3 0c 00 00 00	 mov	 DWORD PTR _g_rtPOINT_TRAP+12, eax

; 132  : 
; 133  : 		g_rtPOINT_TRAP[1].left = (::g_iChaosCastle_DamageAxis[iTRAP_STEP][2] + ::g_iChaosCastle_DamageAxis[iTRAP_STEP][0]) / 2 + 1;

  004d9	8b 45 f4	 mov	 eax, DWORD PTR _iTRAP_STEP$236407[ebp]
  004dc	c1 e0 04	 shl	 eax, 4
  004df	8b 4d f4	 mov	 ecx, DWORD PTR _iTRAP_STEP$236407[ebp]
  004e2	c1 e1 04	 shl	 ecx, 4
  004e5	8b 80 08 00 00
	00		 mov	 eax, DWORD PTR _g_iChaosCastle_DamageAxis[eax+8]
  004eb	03 81 00 00 00
	00		 add	 eax, DWORD PTR _g_iChaosCastle_DamageAxis[ecx]
  004f1	99		 cdq
  004f2	2b c2		 sub	 eax, edx
  004f4	d1 f8		 sar	 eax, 1
  004f6	83 c0 01	 add	 eax, 1
  004f9	a3 10 00 00 00	 mov	 DWORD PTR _g_rtPOINT_TRAP+16, eax

; 134  : 		g_rtPOINT_TRAP[1].top = (::g_iChaosCastle_DamageAxis[iTRAP_STEP][3] + ::g_iChaosCastle_DamageAxis[iTRAP_STEP][1] ) / 2 + 1;

  004fe	8b 45 f4	 mov	 eax, DWORD PTR _iTRAP_STEP$236407[ebp]
  00501	c1 e0 04	 shl	 eax, 4
  00504	8b 4d f4	 mov	 ecx, DWORD PTR _iTRAP_STEP$236407[ebp]
  00507	c1 e1 04	 shl	 ecx, 4
  0050a	8b 80 0c 00 00
	00		 mov	 eax, DWORD PTR _g_iChaosCastle_DamageAxis[eax+12]
  00510	03 81 04 00 00
	00		 add	 eax, DWORD PTR _g_iChaosCastle_DamageAxis[ecx+4]
  00516	99		 cdq
  00517	2b c2		 sub	 eax, edx
  00519	d1 f8		 sar	 eax, 1
  0051b	83 c0 01	 add	 eax, 1
  0051e	a3 14 00 00 00	 mov	 DWORD PTR _g_rtPOINT_TRAP+20, eax

; 135  : 		g_rtPOINT_TRAP[1].right = g_iChaosCastle_DamageAxis[iTRAP_STEP][2];

  00523	8b 45 f4	 mov	 eax, DWORD PTR _iTRAP_STEP$236407[ebp]
  00526	c1 e0 04	 shl	 eax, 4
  00529	8b 88 08 00 00
	00		 mov	 ecx, DWORD PTR _g_iChaosCastle_DamageAxis[eax+8]
  0052f	89 0d 18 00 00
	00		 mov	 DWORD PTR _g_rtPOINT_TRAP+24, ecx

; 136  : 		g_rtPOINT_TRAP[1].bottom = ::g_iChaosCastle_DamageAxis[iTRAP_STEP][3];

  00535	8b 45 f4	 mov	 eax, DWORD PTR _iTRAP_STEP$236407[ebp]
  00538	c1 e0 04	 shl	 eax, 4
  0053b	8b 88 0c 00 00
	00		 mov	 ecx, DWORD PTR _g_iChaosCastle_DamageAxis[eax+12]
  00541	89 0d 1c 00 00
	00		 mov	 DWORD PTR _g_rtPOINT_TRAP+28, ecx

; 137  : 
; 138  : 		g_rtPOINT_TRAP[2].left = ::g_iChaosCastle_DamageAxis[iTRAP_STEP][0];

  00547	8b 45 f4	 mov	 eax, DWORD PTR _iTRAP_STEP$236407[ebp]
  0054a	c1 e0 04	 shl	 eax, 4
  0054d	8b 88 00 00 00
	00		 mov	 ecx, DWORD PTR _g_iChaosCastle_DamageAxis[eax]
  00553	89 0d 20 00 00
	00		 mov	 DWORD PTR _g_rtPOINT_TRAP+32, ecx

; 139  : 		g_rtPOINT_TRAP[2].top = (::g_iChaosCastle_DamageAxis[iTRAP_STEP][3] + ::g_iChaosCastle_DamageAxis[iTRAP_STEP][1] ) / 2 + 1;

  00559	8b 45 f4	 mov	 eax, DWORD PTR _iTRAP_STEP$236407[ebp]
  0055c	c1 e0 04	 shl	 eax, 4
  0055f	8b 4d f4	 mov	 ecx, DWORD PTR _iTRAP_STEP$236407[ebp]
  00562	c1 e1 04	 shl	 ecx, 4
  00565	8b 80 0c 00 00
	00		 mov	 eax, DWORD PTR _g_iChaosCastle_DamageAxis[eax+12]
  0056b	03 81 04 00 00
	00		 add	 eax, DWORD PTR _g_iChaosCastle_DamageAxis[ecx+4]
  00571	99		 cdq
  00572	2b c2		 sub	 eax, edx
  00574	d1 f8		 sar	 eax, 1
  00576	83 c0 01	 add	 eax, 1
  00579	a3 24 00 00 00	 mov	 DWORD PTR _g_rtPOINT_TRAP+36, eax

; 140  : 		g_rtPOINT_TRAP[2].right = (::g_iChaosCastle_DamageAxis[iTRAP_STEP][2] + ::g_iChaosCastle_DamageAxis[iTRAP_STEP][0] ) / 2;

  0057e	8b 45 f4	 mov	 eax, DWORD PTR _iTRAP_STEP$236407[ebp]
  00581	c1 e0 04	 shl	 eax, 4
  00584	8b 4d f4	 mov	 ecx, DWORD PTR _iTRAP_STEP$236407[ebp]
  00587	c1 e1 04	 shl	 ecx, 4
  0058a	8b 80 08 00 00
	00		 mov	 eax, DWORD PTR _g_iChaosCastle_DamageAxis[eax+8]
  00590	03 81 00 00 00
	00		 add	 eax, DWORD PTR _g_iChaosCastle_DamageAxis[ecx]
  00596	99		 cdq
  00597	2b c2		 sub	 eax, edx
  00599	d1 f8		 sar	 eax, 1
  0059b	a3 28 00 00 00	 mov	 DWORD PTR _g_rtPOINT_TRAP+40, eax

; 141  : 		g_rtPOINT_TRAP[2].bottom = ::g_iChaosCastle_DamageAxis[iTRAP_STEP][3];

  005a0	8b 45 f4	 mov	 eax, DWORD PTR _iTRAP_STEP$236407[ebp]
  005a3	c1 e0 04	 shl	 eax, 4
  005a6	8b 88 0c 00 00
	00		 mov	 ecx, DWORD PTR _g_iChaosCastle_DamageAxis[eax+12]
  005ac	89 0d 2c 00 00
	00		 mov	 DWORD PTR _g_rtPOINT_TRAP+44, ecx

; 142  : 
; 143  : 		g_rtPOINT_TRAP[3].left = ::g_iChaosCastle_DamageAxis[iTRAP_STEP][0];

  005b2	8b 45 f4	 mov	 eax, DWORD PTR _iTRAP_STEP$236407[ebp]
  005b5	c1 e0 04	 shl	 eax, 4
  005b8	8b 88 00 00 00
	00		 mov	 ecx, DWORD PTR _g_iChaosCastle_DamageAxis[eax]
  005be	89 0d 30 00 00
	00		 mov	 DWORD PTR _g_rtPOINT_TRAP+48, ecx

; 144  : 		g_rtPOINT_TRAP[3].top = ::g_iChaosCastle_DamageAxis[iTRAP_STEP][1];

  005c4	8b 45 f4	 mov	 eax, DWORD PTR _iTRAP_STEP$236407[ebp]
  005c7	c1 e0 04	 shl	 eax, 4
  005ca	8b 88 04 00 00
	00		 mov	 ecx, DWORD PTR _g_iChaosCastle_DamageAxis[eax+4]
  005d0	89 0d 34 00 00
	00		 mov	 DWORD PTR _g_rtPOINT_TRAP+52, ecx

; 145  : 		g_rtPOINT_TRAP[3].right = (::g_iChaosCastle_DamageAxis[iTRAP_STEP][2] + ::g_iChaosCastle_DamageAxis[iTRAP_STEP][0] ) / 2;

  005d6	8b 45 f4	 mov	 eax, DWORD PTR _iTRAP_STEP$236407[ebp]
  005d9	c1 e0 04	 shl	 eax, 4
  005dc	8b 4d f4	 mov	 ecx, DWORD PTR _iTRAP_STEP$236407[ebp]
  005df	c1 e1 04	 shl	 ecx, 4
  005e2	8b 80 08 00 00
	00		 mov	 eax, DWORD PTR _g_iChaosCastle_DamageAxis[eax+8]
  005e8	03 81 00 00 00
	00		 add	 eax, DWORD PTR _g_iChaosCastle_DamageAxis[ecx]
  005ee	99		 cdq
  005ef	2b c2		 sub	 eax, edx
  005f1	d1 f8		 sar	 eax, 1
  005f3	a3 38 00 00 00	 mov	 DWORD PTR _g_rtPOINT_TRAP+56, eax

; 146  : 		g_rtPOINT_TRAP[3].bottom = (::g_iChaosCastle_DamageAxis[iTRAP_STEP][3] + ::g_iChaosCastle_DamageAxis[iTRAP_STEP][1] ) / 2;

  005f8	8b 45 f4	 mov	 eax, DWORD PTR _iTRAP_STEP$236407[ebp]
  005fb	c1 e0 04	 shl	 eax, 4
  005fe	8b 4d f4	 mov	 ecx, DWORD PTR _iTRAP_STEP$236407[ebp]
  00601	c1 e1 04	 shl	 ecx, 4
  00604	8b 80 0c 00 00
	00		 mov	 eax, DWORD PTR _g_iChaosCastle_DamageAxis[eax+12]
  0060a	03 81 04 00 00
	00		 add	 eax, DWORD PTR _g_iChaosCastle_DamageAxis[ecx+4]
  00610	99		 cdq
  00611	2b c2		 sub	 eax, edx
  00613	d1 f8		 sar	 eax, 1
  00615	a3 3c 00 00 00	 mov	 DWORD PTR _g_rtPOINT_TRAP+60, eax

; 147  : 	}

  0061a	e9 38 fd ff ff	 jmp	 $LN2@Init
$LN7@Init:

; 148  : }

  0061f	5f		 pop	 edi
  00620	5e		 pop	 esi
  00621	5b		 pop	 ebx
  00622	8b e5		 mov	 esp, ebp
  00624	5d		 pop	 ebp
  00625	c2 04 00	 ret	 4
?Init@CChaosCastle@@QAEX_N@Z ENDP			; CChaosCastle::Init
_TEXT	ENDS
PUBLIC	??_C@_0O@CEHBAEMJ@?$CFs?5file?5load?$CB?$AA@	; `string'
PUBLIC	?push_back@?$vector@UCHAOSCASTLE_START_TIME@@V?$allocator@UCHAOSCASTLE_START_TIME@@@std@@@std@@QAEXABUCHAOSCASTLE_START_TIME@@@Z ; std::vector<CHAOSCASTLE_START_TIME,std::allocator<CHAOSCASTLE_START_TIME> >::push_back
PUBLIC	??_C@_03JBJLGPFL@end?$AA@			; `string'
PUBLIC	?erase@?$vector@UCHAOSCASTLE_START_TIME@@V?$allocator@UCHAOSCASTLE_START_TIME@@@std@@@std@@QAE?AV?$_Vector_iterator@V?$_Vector_val@UCHAOSCASTLE_START_TIME@@V?$allocator@UCHAOSCASTLE_START_TIME@@@std@@@std@@@2@V?$_Vector_const_iterator@V?$_Vector_val@UCHAOSCASTLE_START_TIME@@V?$allocator@UCHAOSCASTLE_START_TIME@@@std@@@std@@@2@0@Z ; std::vector<CHAOSCASTLE_START_TIME,std::allocator<CHAOSCASTLE_START_TIME> >::erase
PUBLIC	?begin@?$vector@UCHAOSCASTLE_START_TIME@@V?$allocator@UCHAOSCASTLE_START_TIME@@@std@@@std@@QAE?AV?$_Vector_iterator@V?$_Vector_val@UCHAOSCASTLE_START_TIME@@V?$allocator@UCHAOSCASTLE_START_TIME@@@std@@@std@@@2@XZ ; std::vector<CHAOSCASTLE_START_TIME,std::allocator<CHAOSCASTLE_START_TIME> >::begin
PUBLIC	?end@?$vector@UCHAOSCASTLE_START_TIME@@V?$allocator@UCHAOSCASTLE_START_TIME@@@std@@@std@@QAE?AV?$_Vector_iterator@V?$_Vector_val@UCHAOSCASTLE_START_TIME@@V?$allocator@UCHAOSCASTLE_START_TIME@@@std@@@std@@@2@XZ ; std::vector<CHAOSCASTLE_START_TIME,std::allocator<CHAOSCASTLE_START_TIME> >::end
PUBLIC	??_C@_0CI@HJPKEJEN@?$FLChaos?5Castle?$FN?5Info?5file?5Load?5Fa@ ; `string'
PUBLIC	??_C@_01KDCPPGHE@r?$AA@				; `string'
PUBLIC	?Load@CChaosCastle@@QAEXPAD@Z			; CChaosCastle::Load
EXTRN	?LogAdd@@3P6AXPADZZA:DWORD			; LogAdd
EXTRN	_fclose:PROC
EXTRN	_strcmp:PROC
EXTRN	?MsgBox@@YAXPADZZ:PROC				; MsgBox
EXTRN	_fopen:PROC
EXTRN	__ftol2_sse:PROC
_BSS	SEGMENT
_TokenString DB	064H DUP (?)
_TokenNumber DD	01H DUP (?)
_SMDFile DD	01H DUP (?)
_BSS	ENDS
;	COMDAT ??_C@_0O@CEHBAEMJ@?$CFs?5file?5load?$CB?$AA@
CONST	SEGMENT
??_C@_0O@CEHBAEMJ@?$CFs?5file?5load?$CB?$AA@ DB '%s file load!', 00H ; `string'
CONST	ENDS
;	COMDAT ??_C@_03JBJLGPFL@end?$AA@
CONST	SEGMENT
??_C@_03JBJLGPFL@end?$AA@ DB 'end', 00H			; `string'
CONST	ENDS
;	COMDAT ??_C@_0CI@HJPKEJEN@?$FLChaos?5Castle?$FN?5Info?5file?5Load?5Fa@
CONST	SEGMENT
??_C@_0CI@HJPKEJEN@?$FLChaos?5Castle?$FN?5Info?5file?5Load?5Fa@ DB '[Chao'
	DB	's Castle] Info file Load Fail [%s]', 00H	; `string'
CONST	ENDS
;	COMDAT ??_C@_01KDCPPGHE@r?$AA@
CONST	SEGMENT
??_C@_01KDCPPGHE@r?$AA@ DB 'r', 00H			; `string'
; Function compile flags: /Odtp /ZI
CONST	ENDS
_TEXT	SEGMENT
tv413 = -128						; size = 4
tv402 = -128						; size = 4
tv391 = -128						; size = 4
tv380 = -128						; size = 4
tv369 = -128						; size = 4
tv411 = -124						; size = 4
tv400 = -124						; size = 4
tv389 = -124						; size = 4
tv378 = -124						; size = 4
tv367 = -124						; size = 4
tv188 = -120						; size = 4
tv408 = -118						; size = 2
tv397 = -118						; size = 2
tv386 = -118						; size = 2
tv375 = -118						; size = 2
tv364 = -118						; size = 2
$T241988 = -116						; size = 4
$T241989 = -112						; size = 4
$T241990 = -108						; size = 4
$T241991 = -104						; size = 4
$T241992 = -100						; size = 4
_CastleLevel$236592 = -32				; size = 4
_iChaosCastleIndex$236585 = -28				; size = 4
_Schedule$236575 = -24					; size = 8
_iChaosCastleCount$ = -16				; size = 4
_type$ = -12						; size = 4
_Token$ = -8						; size = 4
_this$ = -4						; size = 4
_filename$ = 8						; size = 4
?Load@CChaosCastle@@QAEXPAD@Z PROC			; CChaosCastle::Load
; _this$ = ecx

; 151  : {

  00630	55		 push	 ebp
  00631	8b ec		 mov	 ebp, esp
  00633	81 ec 80 00 00
	00		 sub	 esp, 128		; 00000080H
  00639	53		 push	 ebx
  0063a	56		 push	 esi
  0063b	57		 push	 edi
  0063c	89 4d fc	 mov	 DWORD PTR _this$[ebp], ecx

; 152  : 	SMDFile = fopen(filename, "r");

  0063f	68 00 00 00 00	 push	 OFFSET ??_C@_01KDCPPGHE@r?$AA@
  00644	8b 45 08	 mov	 eax, DWORD PTR _filename$[ebp]
  00647	50		 push	 eax
  00648	e8 00 00 00 00	 call	 _fopen
  0064d	83 c4 08	 add	 esp, 8
  00650	a3 00 00 00 00	 mov	 DWORD PTR _SMDFile, eax

; 153  : 
; 154  : 	if ( SMDFile == NULL )

  00655	83 3d 00 00 00
	00 00		 cmp	 DWORD PTR _SMDFile, 0
  0065c	75 16		 jne	 SHORT $LN25@Load

; 155  : 	{
; 156  : 		MsgBox("[Chaos Castle] Info file Load Fail [%s]", filename);

  0065e	8b 45 08	 mov	 eax, DWORD PTR _filename$[ebp]
  00661	50		 push	 eax
  00662	68 00 00 00 00	 push	 OFFSET ??_C@_0CI@HJPKEJEN@?$FLChaos?5Castle?$FN?5Info?5file?5Load?5Fa@
  00667	e8 00 00 00 00	 call	 ?MsgBox@@YAXPADZZ	; MsgBox
  0066c	83 c4 08	 add	 esp, 8

; 157  : 		return;

  0066f	e9 53 04 00 00	 jmp	 $LN26@Load
$LN25@Load:

; 158  : 	}
; 159  : 
; 160  : 	int Token;
; 161  : 	int type = -1;

  00674	c7 45 f4 ff ff
	ff ff		 mov	 DWORD PTR _type$[ebp], -1

; 162  : 	int iChaosCastleCount = -1;

  0067b	c7 45 f0 ff ff
	ff ff		 mov	 DWORD PTR _iChaosCastleCount$[ebp], -1

; 163  : 
; 164  : 	this->m_vtChaosCastleOpenTime.erase( this->m_vtChaosCastleOpenTime.begin(), this->m_vtChaosCastleOpenTime.end());

  00682	8d 45 90	 lea	 eax, DWORD PTR $T241989[ebp]
  00685	50		 push	 eax
  00686	8b 4d fc	 mov	 ecx, DWORD PTR _this$[ebp]
  00689	83 c1 20	 add	 ecx, 32			; 00000020H
  0068c	e8 00 00 00 00	 call	 ?end@?$vector@UCHAOSCASTLE_START_TIME@@V?$allocator@UCHAOSCASTLE_START_TIME@@@std@@@std@@QAE?AV?$_Vector_iterator@V?$_Vector_val@UCHAOSCASTLE_START_TIME@@V?$allocator@UCHAOSCASTLE_START_TIME@@@std@@@std@@@2@XZ ; std::vector<CHAOSCASTLE_START_TIME,std::allocator<CHAOSCASTLE_START_TIME> >::end
  00691	8b 08		 mov	 ecx, DWORD PTR [eax]
  00693	89 4d 8c	 mov	 DWORD PTR $T241988[ebp], ecx
  00696	8d 55 98	 lea	 edx, DWORD PTR $T241991[ebp]
  00699	52		 push	 edx
  0069a	8b 4d fc	 mov	 ecx, DWORD PTR _this$[ebp]
  0069d	83 c1 20	 add	 ecx, 32			; 00000020H
  006a0	e8 00 00 00 00	 call	 ?begin@?$vector@UCHAOSCASTLE_START_TIME@@V?$allocator@UCHAOSCASTLE_START_TIME@@@std@@@std@@QAE?AV?$_Vector_iterator@V?$_Vector_val@UCHAOSCASTLE_START_TIME@@V?$allocator@UCHAOSCASTLE_START_TIME@@@std@@@std@@@2@XZ ; std::vector<CHAOSCASTLE_START_TIME,std::allocator<CHAOSCASTLE_START_TIME> >::begin
  006a5	8b 00		 mov	 eax, DWORD PTR [eax]
  006a7	89 45 94	 mov	 DWORD PTR $T241990[ebp], eax
  006aa	8b 4d 8c	 mov	 ecx, DWORD PTR $T241988[ebp]
  006ad	51		 push	 ecx
  006ae	8b 55 94	 mov	 edx, DWORD PTR $T241990[ebp]
  006b1	52		 push	 edx
  006b2	8d 45 9c	 lea	 eax, DWORD PTR $T241992[ebp]
  006b5	50		 push	 eax
  006b6	8b 4d fc	 mov	 ecx, DWORD PTR _this$[ebp]
  006b9	83 c1 20	 add	 ecx, 32			; 00000020H
  006bc	e8 00 00 00 00	 call	 ?erase@?$vector@UCHAOSCASTLE_START_TIME@@V?$allocator@UCHAOSCASTLE_START_TIME@@@std@@@std@@QAE?AV?$_Vector_iterator@V?$_Vector_val@UCHAOSCASTLE_START_TIME@@V?$allocator@UCHAOSCASTLE_START_TIME@@@std@@@std@@@2@V?$_Vector_const_iterator@V?$_Vector_val@UCHAOSCASTLE_START_TIME@@V?$allocator@UCHAOSCASTLE_START_TIME@@@std@@@std@@@2@0@Z ; std::vector<CHAOSCASTLE_START_TIME,std::allocator<CHAOSCASTLE_START_TIME> >::erase
$LN24@Load:

; 165  : 
; 166  : 	while ( true )

  006c1	b8 01 00 00 00	 mov	 eax, 1
  006c6	85 c0		 test	 eax, eax
  006c8	0f 84 d9 03 00
	00		 je	 $LN23@Load

; 167  : 	{
; 168  : 		Token = GetToken();

  006ce	e8 00 00 00 00	 call	 ?GetToken@@YA?AW4SMDToken@@XZ ; GetToken
  006d3	89 45 f8	 mov	 DWORD PTR _Token$[ebp], eax

; 169  : 
; 170  : 		if ( Token == 2 )

  006d6	83 7d f8 02	 cmp	 DWORD PTR _Token$[ebp], 2
  006da	75 05		 jne	 SHORT $LN22@Load

; 171  : 		{
; 172  : 			break;

  006dc	e9 c6 03 00 00	 jmp	 $LN23@Load
$LN22@Load:

; 173  : 		}
; 174  : 
; 175  : 		type = (int)TokenNumber;

  006e1	d9 05 00 00 00
	00		 fld	 DWORD PTR _TokenNumber
  006e7	e8 00 00 00 00	 call	 __ftol2_sse
  006ec	89 45 f4	 mov	 DWORD PTR _type$[ebp], eax
$LN21@Load:

; 176  : 
; 177  : 		while ( true )

  006ef	b8 01 00 00 00	 mov	 eax, 1
  006f4	85 c0		 test	 eax, eax
  006f6	0f 84 a6 03 00
	00		 je	 $LN20@Load

; 178  : 		{
; 179  : 			if ( type == 0 )	// Time Setting

  006fc	83 7d f4 00	 cmp	 DWORD PTR _type$[ebp], 0
  00700	75 6b		 jne	 SHORT $LN19@Load

; 180  : 			{
; 181  : 				Token = GetToken();

  00702	e8 00 00 00 00	 call	 ?GetToken@@YA?AW4SMDToken@@XZ ; GetToken
  00707	89 45 f8	 mov	 DWORD PTR _Token$[ebp], eax

; 182  : 
; 183  : 				if ( strcmp("end", TokenString) == 0 )

  0070a	68 00 00 00 00	 push	 OFFSET _TokenString
  0070f	68 00 00 00 00	 push	 OFFSET ??_C@_03JBJLGPFL@end?$AA@
  00714	e8 00 00 00 00	 call	 _strcmp
  00719	83 c4 08	 add	 esp, 8
  0071c	85 c0		 test	 eax, eax
  0071e	75 05		 jne	 SHORT $LN18@Load

; 184  : 				{
; 185  : 					break;

  00720	e9 7d 03 00 00	 jmp	 $LN20@Load
$LN18@Load:

; 186  : 				}
; 187  : 
; 188  : 				this->m_iCC_TIME_MIN_OPEN = (int)TokenNumber;

  00725	d9 05 00 00 00
	00		 fld	 DWORD PTR _TokenNumber
  0072b	e8 00 00 00 00	 call	 __ftol2_sse
  00730	8b 4d fc	 mov	 ecx, DWORD PTR _this$[ebp]
  00733	89 41 08	 mov	 DWORD PTR [ecx+8], eax

; 189  : 
; 190  : 				Token = GetToken();

  00736	e8 00 00 00 00	 call	 ?GetToken@@YA?AW4SMDToken@@XZ ; GetToken
  0073b	89 45 f8	 mov	 DWORD PTR _Token$[ebp], eax

; 191  : 				this->m_iCC_TIME_MIN_PLAY = (int)TokenNumber;

  0073e	d9 05 00 00 00
	00		 fld	 DWORD PTR _TokenNumber
  00744	e8 00 00 00 00	 call	 __ftol2_sse
  00749	8b 4d fc	 mov	 ecx, DWORD PTR _this$[ebp]
  0074c	89 41 0c	 mov	 DWORD PTR [ecx+12], eax

; 192  : 
; 193  : 				Token = GetToken();

  0074f	e8 00 00 00 00	 call	 ?GetToken@@YA?AW4SMDToken@@XZ ; GetToken
  00754	89 45 f8	 mov	 DWORD PTR _Token$[ebp], eax

; 194  : 				this->m_iCC_TIME_MIN_REST = (int)TokenNumber;

  00757	d9 05 00 00 00
	00		 fld	 DWORD PTR _TokenNumber
  0075d	e8 00 00 00 00	 call	 __ftol2_sse
  00762	8b 4d fc	 mov	 ecx, DWORD PTR _this$[ebp]
  00765	89 41 10	 mov	 DWORD PTR [ecx+16], eax
  00768	e9 30 03 00 00	 jmp	 $LN2@Load
$LN19@Load:

; 195  : 			}
; 196  : 			else if ( type == 1 ) // Drops

  0076d	83 7d f4 01	 cmp	 DWORD PTR _type$[ebp], 1
  00771	75 6b		 jne	 SHORT $LN16@Load

; 197  : 			{
; 198  : 				Token = GetToken();

  00773	e8 00 00 00 00	 call	 ?GetToken@@YA?AW4SMDToken@@XZ ; GetToken
  00778	89 45 f8	 mov	 DWORD PTR _Token$[ebp], eax

; 199  : 
; 200  : 				if ( strcmp("end", TokenString) == 0 )

  0077b	68 00 00 00 00	 push	 OFFSET _TokenString
  00780	68 00 00 00 00	 push	 OFFSET ??_C@_03JBJLGPFL@end?$AA@
  00785	e8 00 00 00 00	 call	 _strcmp
  0078a	83 c4 08	 add	 esp, 8
  0078d	85 c0		 test	 eax, eax
  0078f	75 05		 jne	 SHORT $LN15@Load

; 201  : 				{
; 202  : 					break;

  00791	e9 0c 03 00 00	 jmp	 $LN20@Load
$LN15@Load:

; 203  : 				}
; 204  : 
; 205  : 				this->m_iCC_NORMAL_ITEM_DROP = (int)TokenNumber;

  00796	d9 05 00 00 00
	00		 fld	 DWORD PTR _TokenNumber
  0079c	e8 00 00 00 00	 call	 __ftol2_sse
  007a1	8b 4d fc	 mov	 ecx, DWORD PTR _this$[ebp]
  007a4	89 41 14	 mov	 DWORD PTR [ecx+20], eax

; 206  : 
; 207  : 				Token = GetToken();

  007a7	e8 00 00 00 00	 call	 ?GetToken@@YA?AW4SMDToken@@XZ ; GetToken
  007ac	89 45 f8	 mov	 DWORD PTR _Token$[ebp], eax

; 208  : 				this->m_iCC_EXCEL_ITEM_DROP = (int)TokenNumber;

  007af	d9 05 00 00 00
	00		 fld	 DWORD PTR _TokenNumber
  007b5	e8 00 00 00 00	 call	 __ftol2_sse
  007ba	8b 4d fc	 mov	 ecx, DWORD PTR _this$[ebp]
  007bd	89 41 18	 mov	 DWORD PTR [ecx+24], eax

; 209  : 
; 210  : 				Token = GetToken();

  007c0	e8 00 00 00 00	 call	 ?GetToken@@YA?AW4SMDToken@@XZ ; GetToken
  007c5	89 45 f8	 mov	 DWORD PTR _Token$[ebp], eax

; 211  : 				this->m_iCC_MONSTER_REGEN = (int)TokenNumber;

  007c8	d9 05 00 00 00
	00		 fld	 DWORD PTR _TokenNumber
  007ce	e8 00 00 00 00	 call	 __ftol2_sse
  007d3	8b 4d fc	 mov	 ecx, DWORD PTR _this$[ebp]
  007d6	89 41 1c	 mov	 DWORD PTR [ecx+28], eax
  007d9	e9 bf 02 00 00	 jmp	 $LN2@Load
$LN16@Load:

; 212  : 			}
; 213  : 			else if ( type == 2 ) // Schedule

  007de	83 7d f4 02	 cmp	 DWORD PTR _type$[ebp], 2
  007e2	75 5b		 jne	 SHORT $LN13@Load

; 214  : 			{
; 215  : 				Token = GetToken();

  007e4	e8 00 00 00 00	 call	 ?GetToken@@YA?AW4SMDToken@@XZ ; GetToken
  007e9	89 45 f8	 mov	 DWORD PTR _Token$[ebp], eax

; 216  : 
; 217  : 				if ( strcmp("end", TokenString) == 0 )

  007ec	68 00 00 00 00	 push	 OFFSET _TokenString
  007f1	68 00 00 00 00	 push	 OFFSET ??_C@_03JBJLGPFL@end?$AA@
  007f6	e8 00 00 00 00	 call	 _strcmp
  007fb	83 c4 08	 add	 esp, 8
  007fe	85 c0		 test	 eax, eax
  00800	75 05		 jne	 SHORT $LN12@Load

; 218  : 				{
; 219  : 					break;

  00802	e9 9b 02 00 00	 jmp	 $LN20@Load
$LN12@Load:

; 220  : 				}
; 221  : 				
; 222  : 				CHAOSCASTLE_START_TIME Schedule;
; 223  : 
; 224  : 				Schedule.m_iHour = (int)TokenNumber;

  00807	d9 05 00 00 00
	00		 fld	 DWORD PTR _TokenNumber
  0080d	e8 00 00 00 00	 call	 __ftol2_sse
  00812	89 45 e8	 mov	 DWORD PTR _Schedule$236575[ebp], eax

; 225  : 
; 226  : 				Token = GetToken();

  00815	e8 00 00 00 00	 call	 ?GetToken@@YA?AW4SMDToken@@XZ ; GetToken
  0081a	89 45 f8	 mov	 DWORD PTR _Token$[ebp], eax

; 227  : 				Schedule.m_iMinute = (int)TokenNumber;

  0081d	d9 05 00 00 00
	00		 fld	 DWORD PTR _TokenNumber
  00823	e8 00 00 00 00	 call	 __ftol2_sse
  00828	89 45 ec	 mov	 DWORD PTR _Schedule$236575[ebp+4], eax

; 228  : 
; 229  : 				this->m_vtChaosCastleOpenTime.push_back(Schedule);

  0082b	8d 45 e8	 lea	 eax, DWORD PTR _Schedule$236575[ebp]
  0082e	50		 push	 eax
  0082f	8b 4d fc	 mov	 ecx, DWORD PTR _this$[ebp]
  00832	83 c1 20	 add	 ecx, 32			; 00000020H
  00835	e8 00 00 00 00	 call	 ?push_back@?$vector@UCHAOSCASTLE_START_TIME@@V?$allocator@UCHAOSCASTLE_START_TIME@@@std@@@std@@QAEXABUCHAOSCASTLE_START_TIME@@@Z ; std::vector<CHAOSCASTLE_START_TIME,std::allocator<CHAOSCASTLE_START_TIME> >::push_back
  0083a	e9 5e 02 00 00	 jmp	 $LN2@Load
$LN13@Load:

; 230  : 			}
; 231  : 			else if ( type == 3 ) // ItemDropProb

  0083f	83 7d f4 03	 cmp	 DWORD PTR _type$[ebp], 3
  00843	75 4b		 jne	 SHORT $LN10@Load

; 232  : 			{
; 233  : 				Token = GetToken();

  00845	e8 00 00 00 00	 call	 ?GetToken@@YA?AW4SMDToken@@XZ ; GetToken
  0084a	89 45 f8	 mov	 DWORD PTR _Token$[ebp], eax

; 234  : 
; 235  : 				if ( strcmp("end", TokenString) == 0 )

  0084d	68 00 00 00 00	 push	 OFFSET _TokenString
  00852	68 00 00 00 00	 push	 OFFSET ??_C@_03JBJLGPFL@end?$AA@
  00857	e8 00 00 00 00	 call	 _strcmp
  0085c	83 c4 08	 add	 esp, 8
  0085f	85 c0		 test	 eax, eax
  00861	75 05		 jne	 SHORT $LN9@Load

; 236  : 				{
; 237  : 					break;

  00863	e9 3a 02 00 00	 jmp	 $LN20@Load
$LN9@Load:

; 238  : 				}
; 239  : 		
; 240  : 				g_iChaosCastle_OffLineGiftRate = (int)TokenNumber;

  00868	d9 05 00 00 00
	00		 fld	 DWORD PTR _TokenNumber
  0086e	e8 00 00 00 00	 call	 __ftol2_sse
  00873	a3 00 00 00 00	 mov	 DWORD PTR ?g_iChaosCastle_OffLineGiftRate@@3HA, eax ; g_iChaosCastle_OffLineGiftRate

; 241  : 				g_iChaosCastle_OffLineGiftRate %= 10000;

  00878	a1 00 00 00 00	 mov	 eax, DWORD PTR ?g_iChaosCastle_OffLineGiftRate@@3HA ; g_iChaosCastle_OffLineGiftRate
  0087d	99		 cdq
  0087e	b9 10 27 00 00	 mov	 ecx, 10000		; 00002710H
  00883	f7 f9		 idiv	 ecx
  00885	89 15 00 00 00
	00		 mov	 DWORD PTR ?g_iChaosCastle_OffLineGiftRate@@3HA, edx ; g_iChaosCastle_OffLineGiftRate
  0088b	e9 0d 02 00 00	 jmp	 $LN2@Load
$LN10@Load:

; 242  : 			}
; 243  : 			//Season 4.5 add-on
; 244  : 			else if ( type == 4 )

  00890	83 7d f4 04	 cmp	 DWORD PTR _type$[ebp], 4
  00894	0f 85 82 00 00
	00		 jne	 $LN7@Load

; 245  : 			{
; 246  : 				Token = GetToken();

  0089a	e8 00 00 00 00	 call	 ?GetToken@@YA?AW4SMDToken@@XZ ; GetToken
  0089f	89 45 f8	 mov	 DWORD PTR _Token$[ebp], eax

; 247  : 
; 248  : 				if (strcmp("end", TokenString) == 0)

  008a2	68 00 00 00 00	 push	 OFFSET _TokenString
  008a7	68 00 00 00 00	 push	 OFFSET ??_C@_03JBJLGPFL@end?$AA@
  008ac	e8 00 00 00 00	 call	 _strcmp
  008b1	83 c4 08	 add	 esp, 8
  008b4	85 c0		 test	 eax, eax
  008b6	75 05		 jne	 SHORT $LN6@Load

; 249  : 				{
; 250  : 					break;

  008b8	e9 e5 01 00 00	 jmp	 $LN20@Load
$LN6@Load:

; 251  : 				}
; 252  : 			
; 253  : 				int iChaosCastleIndex = (int)TokenNumber;

  008bd	d9 05 00 00 00
	00		 fld	 DWORD PTR _TokenNumber
  008c3	e8 00 00 00 00	 call	 __ftol2_sse
  008c8	89 45 e4	 mov	 DWORD PTR _iChaosCastleIndex$236585[ebp], eax

; 254  : 
; 255  : 				if ( CC_FLOOR_RANGE(iChaosCastleIndex) != FALSE )

  008cb	83 7d e4 00	 cmp	 DWORD PTR _iChaosCastleIndex$236585[ebp], 0
  008cf	7d 09		 jge	 SHORT $LN28@Load
  008d1	c7 45 88 00 00
	00 00		 mov	 DWORD PTR tv188[ebp], 0
  008d8	eb 0c		 jmp	 SHORT $LN29@Load
$LN28@Load:
  008da	33 c0		 xor	 eax, eax
  008dc	83 7d e4 06	 cmp	 DWORD PTR _iChaosCastleIndex$236585[ebp], 6
  008e0	0f 9e c0	 setle	 al
  008e3	89 45 88	 mov	 DWORD PTR tv188[ebp], eax
$LN29@Load:
  008e6	83 7d 88 00	 cmp	 DWORD PTR tv188[ebp], 0
  008ea	74 23		 je	 SHORT $LN5@Load

; 256  : 				{
; 257  : 					Token = GetToken();

  008ec	e8 00 00 00 00	 call	 ?GetToken@@YA?AW4SMDToken@@XZ ; GetToken
  008f1	89 45 f8	 mov	 DWORD PTR _Token$[ebp], eax

; 258  : 					this->m_stChaosCastleData[iChaosCastleIndex].m_iCC_REWARD_EXP = TokenNumber;

  008f4	8b 45 e4	 mov	 eax, DWORD PTR _iChaosCastleIndex$236585[ebp]
  008f7	69 c0 70 08 00
	00		 imul	 eax, 2160		; 00000870H
  008fd	8b 4d fc	 mov	 ecx, DWORD PTR _this$[ebp]
  00900	d9 05 00 00 00
	00		 fld	 DWORD PTR _TokenNumber
  00906	d9 9c 01 9c 08
	00 00		 fstp	 DWORD PTR [ecx+eax+2204]

; 259  : 				}
; 260  : 				else

  0090d	eb 08		 jmp	 SHORT $LN4@Load
$LN5@Load:

; 261  : 				{
; 262  : 					Token = GetToken();

  0090f	e8 00 00 00 00	 call	 ?GetToken@@YA?AW4SMDToken@@XZ ; GetToken
  00914	89 45 f8	 mov	 DWORD PTR _Token$[ebp], eax
$LN4@Load:

; 263  : 				}

  00917	e9 81 01 00 00	 jmp	 $LN2@Load
$LN7@Load:

; 264  : 			}
; 265  : #ifdef _CONFLICT_
; 266  : 			else if( type == 5 )

  0091c	83 7d f4 05	 cmp	 DWORD PTR _type$[ebp], 5
  00920	0f 85 77 01 00
	00		 jne	 $LN2@Load

; 267  : 			{
; 268  : 				Token = GetToken();

  00926	e8 00 00 00 00	 call	 ?GetToken@@YA?AW4SMDToken@@XZ ; GetToken
  0092b	89 45 f8	 mov	 DWORD PTR _Token$[ebp], eax

; 269  : 				// ----
; 270  : 				if (strcmp("end", TokenString) == 0)

  0092e	68 00 00 00 00	 push	 OFFSET _TokenString
  00933	68 00 00 00 00	 push	 OFFSET ??_C@_03JBJLGPFL@end?$AA@
  00938	e8 00 00 00 00	 call	 _strcmp
  0093d	83 c4 08	 add	 esp, 8
  00940	85 c0		 test	 eax, eax
  00942	75 05		 jne	 SHORT $LN1@Load

; 271  : 				{
; 272  : 					break;

  00944	e9 59 01 00 00	 jmp	 $LN20@Load
$LN1@Load:

; 273  : 				}
; 274  : 				// ----
; 275  : 				int CastleLevel = TokenNumber;

  00949	d9 05 00 00 00
	00		 fld	 DWORD PTR _TokenNumber
  0094f	e8 00 00 00 00	 call	 __ftol2_sse
  00954	89 45 e0	 mov	 DWORD PTR _CastleLevel$236592[ebp], eax

; 276  : 				// ----
; 277  : 				Token = GetToken();

  00957	e8 00 00 00 00	 call	 ?GetToken@@YA?AW4SMDToken@@XZ ; GetToken
  0095c	89 45 f8	 mov	 DWORD PTR _Token$[ebp], eax

; 278  : 				this->m_RewardData[CastleLevel].AncientRate		= TokenNumber;

  0095f	d9 05 00 00 00
	00		 fld	 DWORD PTR _TokenNumber
  00965	e8 00 00 00 00	 call	 __ftol2_sse
  0096a	8b 4d e0	 mov	 ecx, DWORD PTR _CastleLevel$236592[ebp]
  0096d	6b c9 0c	 imul	 ecx, 12			; 0000000cH
  00970	8b 55 fc	 mov	 edx, DWORD PTR _this$[ebp]
  00973	89 84 0a 40 3b
	00 00		 mov	 DWORD PTR [edx+ecx+15168], eax

; 279  : 				// ----
; 280  : 				Token = GetToken();

  0097a	e8 00 00 00 00	 call	 ?GetToken@@YA?AW4SMDToken@@XZ ; GetToken
  0097f	89 45 f8	 mov	 DWORD PTR _Token$[ebp], eax

; 281  : 				this->m_RewardData[CastleLevel].AncientCount	= TokenNumber;

  00982	d9 05 00 00 00
	00		 fld	 DWORD PTR _TokenNumber
  00988	d9 7d 8a	 fnstcw	 WORD PTR tv364[ebp]
  0098b	0f b7 45 8a	 movzx	 eax, WORD PTR tv364[ebp]
  0098f	0d 00 0c 00 00	 or	 eax, 3072		; 00000c00H
  00994	89 45 84	 mov	 DWORD PTR tv367[ebp], eax
  00997	d9 6d 84	 fldcw	 WORD PTR tv367[ebp]
  0099a	db 5d 80	 fistp	 DWORD PTR tv369[ebp]
  0099d	d9 6d 8a	 fldcw	 WORD PTR tv364[ebp]
  009a0	8a 45 80	 mov	 al, BYTE PTR tv369[ebp]
  009a3	8b 4d e0	 mov	 ecx, DWORD PTR _CastleLevel$236592[ebp]
  009a6	6b c9 0c	 imul	 ecx, 12			; 0000000cH
  009a9	8b 55 fc	 mov	 edx, DWORD PTR _this$[ebp]
  009ac	88 84 0a 44 3b
	00 00		 mov	 BYTE PTR [edx+ecx+15172], al

; 282  : 				// ----
; 283  : 				Token = GetToken();

  009b3	e8 00 00 00 00	 call	 ?GetToken@@YA?AW4SMDToken@@XZ ; GetToken
  009b8	89 45 f8	 mov	 DWORD PTR _Token$[ebp], eax

; 284  : 				this->m_RewardData[CastleLevel].ItemCount		= TokenNumber;

  009bb	d9 05 00 00 00
	00		 fld	 DWORD PTR _TokenNumber
  009c1	d9 7d 8a	 fnstcw	 WORD PTR tv375[ebp]
  009c4	0f b7 45 8a	 movzx	 eax, WORD PTR tv375[ebp]
  009c8	0d 00 0c 00 00	 or	 eax, 3072		; 00000c00H
  009cd	89 45 84	 mov	 DWORD PTR tv378[ebp], eax
  009d0	d9 6d 84	 fldcw	 WORD PTR tv378[ebp]
  009d3	db 5d 80	 fistp	 DWORD PTR tv380[ebp]
  009d6	d9 6d 8a	 fldcw	 WORD PTR tv375[ebp]
  009d9	8a 45 80	 mov	 al, BYTE PTR tv380[ebp]
  009dc	8b 4d e0	 mov	 ecx, DWORD PTR _CastleLevel$236592[ebp]
  009df	6b c9 0c	 imul	 ecx, 12			; 0000000cH
  009e2	8b 55 fc	 mov	 edx, DWORD PTR _this$[ebp]
  009e5	88 84 0a 45 3b
	00 00		 mov	 BYTE PTR [edx+ecx+15173], al

; 285  : 				// ----
; 286  : 				Token = GetToken();

  009ec	e8 00 00 00 00	 call	 ?GetToken@@YA?AW4SMDToken@@XZ ; GetToken
  009f1	89 45 f8	 mov	 DWORD PTR _Token$[ebp], eax

; 287  : 				this->m_RewardData[CastleLevel].ItemID			= TokenNumber;

  009f4	d9 05 00 00 00
	00		 fld	 DWORD PTR _TokenNumber
  009fa	d9 7d 8a	 fnstcw	 WORD PTR tv386[ebp]
  009fd	0f b7 45 8a	 movzx	 eax, WORD PTR tv386[ebp]
  00a01	0d 00 0c 00 00	 or	 eax, 3072		; 00000c00H
  00a06	89 45 84	 mov	 DWORD PTR tv389[ebp], eax
  00a09	d9 6d 84	 fldcw	 WORD PTR tv389[ebp]
  00a0c	db 5d 80	 fistp	 DWORD PTR tv391[ebp]
  00a0f	d9 6d 8a	 fldcw	 WORD PTR tv386[ebp]
  00a12	66 8b 45 80	 mov	 ax, WORD PTR tv391[ebp]
  00a16	8b 4d e0	 mov	 ecx, DWORD PTR _CastleLevel$236592[ebp]
  00a19	6b c9 0c	 imul	 ecx, 12			; 0000000cH
  00a1c	8b 55 fc	 mov	 edx, DWORD PTR _this$[ebp]
  00a1f	66 89 84 0a 46
	3b 00 00	 mov	 WORD PTR [edx+ecx+15174], ax

; 288  : 				// ----
; 289  : 				Token = GetToken();

  00a27	e8 00 00 00 00	 call	 ?GetToken@@YA?AW4SMDToken@@XZ ; GetToken
  00a2c	89 45 f8	 mov	 DWORD PTR _Token$[ebp], eax

; 290  : 				this->m_RewardData[CastleLevel].ItemIndex		= TokenNumber;

  00a2f	d9 05 00 00 00
	00		 fld	 DWORD PTR _TokenNumber
  00a35	d9 7d 8a	 fnstcw	 WORD PTR tv397[ebp]
  00a38	0f b7 45 8a	 movzx	 eax, WORD PTR tv397[ebp]
  00a3c	0d 00 0c 00 00	 or	 eax, 3072		; 00000c00H
  00a41	89 45 84	 mov	 DWORD PTR tv400[ebp], eax
  00a44	d9 6d 84	 fldcw	 WORD PTR tv400[ebp]
  00a47	db 5d 80	 fistp	 DWORD PTR tv402[ebp]
  00a4a	d9 6d 8a	 fldcw	 WORD PTR tv397[ebp]
  00a4d	66 8b 45 80	 mov	 ax, WORD PTR tv402[ebp]
  00a51	8b 4d e0	 mov	 ecx, DWORD PTR _CastleLevel$236592[ebp]
  00a54	6b c9 0c	 imul	 ecx, 12			; 0000000cH
  00a57	8b 55 fc	 mov	 edx, DWORD PTR _this$[ebp]
  00a5a	66 89 84 0a 48
	3b 00 00	 mov	 WORD PTR [edx+ecx+15176], ax

; 291  : 				// ----
; 292  : 				Token = GetToken();

  00a62	e8 00 00 00 00	 call	 ?GetToken@@YA?AW4SMDToken@@XZ ; GetToken
  00a67	89 45 f8	 mov	 DWORD PTR _Token$[ebp], eax

; 293  : 				this->m_RewardData[CastleLevel].ItemLevel		= TokenNumber;

  00a6a	d9 05 00 00 00
	00		 fld	 DWORD PTR _TokenNumber
  00a70	d9 7d 8a	 fnstcw	 WORD PTR tv408[ebp]
  00a73	0f b7 45 8a	 movzx	 eax, WORD PTR tv408[ebp]
  00a77	0d 00 0c 00 00	 or	 eax, 3072		; 00000c00H
  00a7c	89 45 84	 mov	 DWORD PTR tv411[ebp], eax
  00a7f	d9 6d 84	 fldcw	 WORD PTR tv411[ebp]
  00a82	db 5d 80	 fistp	 DWORD PTR tv413[ebp]
  00a85	d9 6d 8a	 fldcw	 WORD PTR tv408[ebp]
  00a88	66 8b 45 80	 mov	 ax, WORD PTR tv413[ebp]
  00a8c	8b 4d e0	 mov	 ecx, DWORD PTR _CastleLevel$236592[ebp]
  00a8f	6b c9 0c	 imul	 ecx, 12			; 0000000cH
  00a92	8b 55 fc	 mov	 edx, DWORD PTR _this$[ebp]
  00a95	66 89 84 0a 4a
	3b 00 00	 mov	 WORD PTR [edx+ecx+15178], ax
$LN2@Load:

; 294  : 			}
; 295  : #endif
; 296  : 		}

  00a9d	e9 4d fc ff ff	 jmp	 $LN21@Load
$LN20@Load:

; 297  : 	}

  00aa2	e9 1a fc ff ff	 jmp	 $LN24@Load
$LN23@Load:

; 298  : 
; 299  : 	fclose(SMDFile);

  00aa7	a1 00 00 00 00	 mov	 eax, DWORD PTR _SMDFile
  00aac	50		 push	 eax
  00aad	e8 00 00 00 00	 call	 _fclose
  00ab2	83 c4 04	 add	 esp, 4

; 300  : 
; 301  : 	LogAdd("%s file load!", filename);

  00ab5	8b 45 08	 mov	 eax, DWORD PTR _filename$[ebp]
  00ab8	50		 push	 eax
  00ab9	68 00 00 00 00	 push	 OFFSET ??_C@_0O@CEHBAEMJ@?$CFs?5file?5load?$CB?$AA@
  00abe	ff 15 00 00 00
	00		 call	 DWORD PTR ?LogAdd@@3P6AXPADZZA ; LogAdd
  00ac4	83 c4 08	 add	 esp, 8
$LN26@Load:

; 302  : }

  00ac7	5f		 pop	 edi
  00ac8	5e		 pop	 esi
  00ac9	5b		 pop	 ebx
  00aca	8b e5		 mov	 esp, ebp
  00acc	5d		 pop	 ebp
  00acd	c2 04 00	 ret	 4
?Load@CChaosCastle@@QAEXPAD@Z ENDP			; CChaosCastle::Load
_TEXT	ENDS
PUBLIC	__$ArrayPad$
EXTRN	_isalnum:PROC
EXTRN	_isalpha:PROC
EXTRN	_atof:PROC
EXTRN	_isdigit:PROC
EXTRN	_getc:PROC
EXTRN	_ungetc:PROC
EXTRN	_isspace:PROC
EXTRN	_fgetc:PROC
_BSS	SEGMENT
_CurrentToken DD 01H DUP (?)
; Function compile flags: /Odtp /ZI
; File d:\projects\exteam6.3\source\gameserver\include\readscript.h
_BSS	ENDS
_TEXT	SEGMENT
tv90 = -180						; size = 4
_TempString$ = -112					; size = 100
_p$ = -12						; size = 4
_ch$ = -5						; size = 1
__$ArrayPad$ = -4					; size = 4
?GetToken@@YA?AW4SMDToken@@XZ PROC			; GetToken

; 24   : {

  00ad0	55		 push	 ebp
  00ad1	8b ec		 mov	 ebp, esp
  00ad3	81 ec b4 00 00
	00		 sub	 esp, 180		; 000000b4H
  00ad9	a1 00 00 00 00	 mov	 eax, DWORD PTR ___security_cookie
  00ade	33 c5		 xor	 eax, ebp
  00ae0	89 45 fc	 mov	 DWORD PTR __$ArrayPad$[ebp], eax
  00ae3	53		 push	 ebx
  00ae4	56		 push	 esi
  00ae5	57		 push	 edi

; 25   : 	char ch;
; 26   : 	char* p;
; 27   : 	char TempString[100];
; 28   : 
; 29   : 	TokenString[0]=0;

  00ae6	c6 05 00 00 00
	00 00		 mov	 BYTE PTR _TokenString, 0
$LN31@GetToken:

; 30   : 
; 31   : 	do
; 32   : 	{
; 33   : 		if ((ch=fgetc(SMDFile)) == -1)

  00aed	a1 00 00 00 00	 mov	 eax, DWORD PTR _SMDFile
  00af2	50		 push	 eax
  00af3	e8 00 00 00 00	 call	 _fgetc
  00af8	83 c4 04	 add	 esp, 4
  00afb	88 45 fb	 mov	 BYTE PTR _ch$[ebp], al
  00afe	0f be 4d fb	 movsx	 ecx, BYTE PTR _ch$[ebp]
  00b02	83 f9 ff	 cmp	 ecx, -1
  00b05	75 0c		 jne	 SHORT $LN28@GetToken

; 34   : 		{
; 35   : 			return END;	// End of FILE (EOF)

  00b07	b8 02 00 00 00	 mov	 eax, 2
  00b0c	e9 f7 02 00 00	 jmp	 $LN32@GetToken

; 36   : 		}
; 37   : 		else

  00b11	eb 5b		 jmp	 SHORT $LN22@GetToken
$LN28@GetToken:

; 38   : 		{	
; 39   : 			if (ch=='/')		// this is /

  00b13	0f be 45 fb	 movsx	 eax, BYTE PTR _ch$[ebp]
  00b17	83 f8 2f	 cmp	 eax, 47			; 0000002fH
  00b1a	75 52		 jne	 SHORT $LN22@GetToken

; 40   : 			{
; 41   : 				if((ch=fgetc(SMDFile)) == '/')

  00b1c	a1 00 00 00 00	 mov	 eax, DWORD PTR _SMDFile
  00b21	50		 push	 eax
  00b22	e8 00 00 00 00	 call	 _fgetc
  00b27	83 c4 04	 add	 esp, 4
  00b2a	88 45 fb	 mov	 BYTE PTR _ch$[ebp], al
  00b2d	0f be 4d fb	 movsx	 ecx, BYTE PTR _ch$[ebp]
  00b31	83 f9 2f	 cmp	 ecx, 47			; 0000002fH
  00b34	75 38		 jne	 SHORT $LN22@GetToken
$LN24@GetToken:

; 42   : 				{
; 43   : 					while ((ch != '\n') && (ch != -1))	// End of Line (EOL)

  00b36	0f be 45 fb	 movsx	 eax, BYTE PTR _ch$[ebp]
  00b3a	83 f8 0a	 cmp	 eax, 10			; 0000000aH
  00b3d	74 1c		 je	 SHORT $LN23@GetToken
  00b3f	0f be 45 fb	 movsx	 eax, BYTE PTR _ch$[ebp]
  00b43	83 f8 ff	 cmp	 eax, -1
  00b46	74 13		 je	 SHORT $LN23@GetToken

; 44   : 					{
; 45   : 						ch=fgetc(SMDFile);

  00b48	a1 00 00 00 00	 mov	 eax, DWORD PTR _SMDFile
  00b4d	50		 push	 eax
  00b4e	e8 00 00 00 00	 call	 _fgetc
  00b53	83 c4 04	 add	 esp, 4
  00b56	88 45 fb	 mov	 BYTE PTR _ch$[ebp], al

; 46   : 					}

  00b59	eb db		 jmp	 SHORT $LN24@GetToken
$LN23@GetToken:

; 47   : 	
; 48   : 					if (ch == -1)

  00b5b	0f be 45 fb	 movsx	 eax, BYTE PTR _ch$[ebp]
  00b5f	83 f8 ff	 cmp	 eax, -1
  00b62	75 0a		 jne	 SHORT $LN22@GetToken

; 49   : 					{
; 50   : 						return END;	// End of FILE

  00b64	b8 02 00 00 00	 mov	 eax, 2
  00b69	e9 9a 02 00 00	 jmp	 $LN32@GetToken
$LN22@GetToken:

; 51   : 					}
; 52   : 				}
; 53   : 			}
; 54   : 		}
; 55   : 	}
; 56   : 	while (isspace(ch) != 0);

  00b6e	0f be 45 fb	 movsx	 eax, BYTE PTR _ch$[ebp]
  00b72	50		 push	 eax
  00b73	e8 00 00 00 00	 call	 _isspace
  00b78	83 c4 04	 add	 esp, 4
  00b7b	85 c0		 test	 eax, eax
  00b7d	0f 85 6a ff ff
	ff		 jne	 $LN31@GetToken

; 57   : 
; 58   : 	
; 59   : 	switch(ch)

  00b83	0f be 45 fb	 movsx	 eax, BYTE PTR _ch$[ebp]
  00b87	89 85 4c ff ff
	ff		 mov	 DWORD PTR tv90[ebp], eax
  00b8d	8b 8d 4c ff ff
	ff		 mov	 ecx, DWORD PTR tv90[ebp]
  00b93	83 e9 22	 sub	 ecx, 34			; 00000022H
  00b96	89 8d 4c ff ff
	ff		 mov	 DWORD PTR tv90[ebp], ecx
  00b9c	83 bd 4c ff ff
	ff 5b		 cmp	 DWORD PTR tv90[ebp], 91	; 0000005bH
  00ba3	0f 87 a3 01 00
	00		 ja	 $LN6@GetToken
  00ba9	8b 95 4c ff ff
	ff		 mov	 edx, DWORD PTR tv90[ebp]
  00baf	0f b6 82 00 00
	00 00		 movzx	 eax, BYTE PTR $LN34@GetToken[edx]
  00bb6	ff 24 85 00 00
	00 00		 jmp	 DWORD PTR $LN35@GetToken[eax*4]
$LN19@GetToken:

; 60   : 	{
; 61   : 
; 62   : 	case 0x23:	// #
; 63   : 		return CurrentToken=COMMAND;

  00bbd	c7 05 00 00 00
	00 23 00 00 00	 mov	 DWORD PTR _CurrentToken, 35 ; 00000023H
  00bc7	a1 00 00 00 00	 mov	 eax, DWORD PTR _CurrentToken
  00bcc	e9 37 02 00 00	 jmp	 $LN32@GetToken

; 64   : 		break;

  00bd1	e9 30 02 00 00	 jmp	 $LN20@GetToken
$LN18@GetToken:

; 65   : 	
; 66   : 	case 0x3B:	// ;
; 67   : 		return CurrentToken=SEMICOLON;

  00bd6	c7 05 00 00 00
	00 3b 00 00 00	 mov	 DWORD PTR _CurrentToken, 59 ; 0000003bH
  00be0	a1 00 00 00 00	 mov	 eax, DWORD PTR _CurrentToken
  00be5	e9 1e 02 00 00	 jmp	 $LN32@GetToken

; 68   : 		break;

  00bea	e9 17 02 00 00	 jmp	 $LN20@GetToken
$LN17@GetToken:

; 69   : 	
; 70   : 	case 0x2C:	// ,
; 71   : 
; 72   : 		return CurrentToken=COMMA;

  00bef	c7 05 00 00 00
	00 2c 00 00 00	 mov	 DWORD PTR _CurrentToken, 44 ; 0000002cH
  00bf9	a1 00 00 00 00	 mov	 eax, DWORD PTR _CurrentToken
  00bfe	e9 05 02 00 00	 jmp	 $LN32@GetToken

; 73   : 		break;

  00c03	e9 fe 01 00 00	 jmp	 $LN20@GetToken
$LN16@GetToken:

; 74   : 	
; 75   : 	case 0x7B:	// {
; 76   : 		return CurrentToken = LP;

  00c08	c7 05 00 00 00
	00 7b 00 00 00	 mov	 DWORD PTR _CurrentToken, 123 ; 0000007bH
  00c12	a1 00 00 00 00	 mov	 eax, DWORD PTR _CurrentToken
  00c17	e9 ec 01 00 00	 jmp	 $LN32@GetToken

; 77   : 		break;

  00c1c	e9 e5 01 00 00	 jmp	 $LN20@GetToken
$LN15@GetToken:

; 78   : 
; 79   : 	case 0x7D:	// }
; 80   : 		return CurrentToken = RP;

  00c21	c7 05 00 00 00
	00 7d 00 00 00	 mov	 DWORD PTR _CurrentToken, 125 ; 0000007dH
  00c2b	a1 00 00 00 00	 mov	 eax, DWORD PTR _CurrentToken
  00c30	e9 d3 01 00 00	 jmp	 $LN32@GetToken

; 81   : 		break;

  00c35	e9 cc 01 00 00	 jmp	 $LN20@GetToken
$LN14@GetToken:

; 82   : 	// Nice Index Table :)	by Deathway
; 83   : 	// Numbers Case
; 84   : 	case 0x2D:	//-
; 85   : 	case 0x2E:	//.
; 86   : 	case '0':	//0
; 87   : 	case '1':	//1
; 88   : 	case '2':	//2
; 89   : 	case '3':	//3
; 90   : 	case '4':	//4		
; 91   : 	case '5':	//5
; 92   : 	case '6':	//6
; 93   : 	case '7':	//7
; 94   : 	case '8':	//8
; 95   : 	case '9':	//9
; 96   : 		ungetc(ch, SMDFile);

  00c3a	a1 00 00 00 00	 mov	 eax, DWORD PTR _SMDFile
  00c3f	50		 push	 eax
  00c40	0f be 4d fb	 movsx	 ecx, BYTE PTR _ch$[ebp]
  00c44	51		 push	 ecx
  00c45	e8 00 00 00 00	 call	 _ungetc
  00c4a	83 c4 08	 add	 esp, 8

; 97   : 		p = TempString;

  00c4d	8d 45 90	 lea	 eax, DWORD PTR _TempString$[ebp]
  00c50	89 45 f4	 mov	 DWORD PTR _p$[ebp], eax
$LN13@GetToken:

; 98   : 		
; 99   : 		while (((ch=getc(SMDFile)) != -1) && ((ch == 0x2E) || (isdigit(ch) != 0) || (ch == 0x2D)))  // 2e '.'  2D '-'

  00c53	a1 00 00 00 00	 mov	 eax, DWORD PTR _SMDFile
  00c58	50		 push	 eax
  00c59	e8 00 00 00 00	 call	 _getc
  00c5e	83 c4 04	 add	 esp, 4
  00c61	88 45 fb	 mov	 BYTE PTR _ch$[ebp], al
  00c64	0f be 4d fb	 movsx	 ecx, BYTE PTR _ch$[ebp]
  00c68	83 f9 ff	 cmp	 ecx, -1
  00c6b	74 36		 je	 SHORT $LN12@GetToken
  00c6d	0f be 45 fb	 movsx	 eax, BYTE PTR _ch$[ebp]
  00c71	83 f8 2e	 cmp	 eax, 46			; 0000002eH
  00c74	74 1a		 je	 SHORT $LN11@GetToken
  00c76	0f be 45 fb	 movsx	 eax, BYTE PTR _ch$[ebp]
  00c7a	50		 push	 eax
  00c7b	e8 00 00 00 00	 call	 _isdigit
  00c80	83 c4 04	 add	 esp, 4
  00c83	85 c0		 test	 eax, eax
  00c85	75 09		 jne	 SHORT $LN11@GetToken
  00c87	0f be 45 fb	 movsx	 eax, BYTE PTR _ch$[ebp]
  00c8b	83 f8 2d	 cmp	 eax, 45			; 0000002dH
  00c8e	75 13		 jne	 SHORT $LN12@GetToken
$LN11@GetToken:

; 100  : 		{
; 101  : 			*p = ch;	// Construct a String

  00c90	8b 45 f4	 mov	 eax, DWORD PTR _p$[ebp]
  00c93	8a 4d fb	 mov	 cl, BYTE PTR _ch$[ebp]
  00c96	88 08		 mov	 BYTE PTR [eax], cl

; 102  : 			p++;

  00c98	8b 45 f4	 mov	 eax, DWORD PTR _p$[ebp]
  00c9b	83 c0 01	 add	 eax, 1
  00c9e	89 45 f4	 mov	 DWORD PTR _p$[ebp], eax

; 103  : 		}		

  00ca1	eb b0		 jmp	 SHORT $LN13@GetToken
$LN12@GetToken:

; 104  : 		*p = 0;

  00ca3	8b 45 f4	 mov	 eax, DWORD PTR _p$[ebp]
  00ca6	c6 00 00	 mov	 BYTE PTR [eax], 0

; 105  : 		TokenNumber = atof( TempString);	// Select the first Byte as Main ID

  00ca9	8d 45 90	 lea	 eax, DWORD PTR _TempString$[ebp]
  00cac	50		 push	 eax
  00cad	e8 00 00 00 00	 call	 _atof
  00cb2	83 c4 04	 add	 esp, 4
  00cb5	d9 1d 00 00 00
	00		 fstp	 DWORD PTR _TokenNumber

; 106  : 		return CurrentToken  = NUMBER ;

  00cbb	c7 05 00 00 00
	00 01 00 00 00	 mov	 DWORD PTR _CurrentToken, 1
  00cc5	a1 00 00 00 00	 mov	 eax, DWORD PTR _CurrentToken
  00cca	e9 39 01 00 00	 jmp	 $LN32@GetToken

; 107  : 		break;

  00ccf	e9 32 01 00 00	 jmp	 $LN20@GetToken
$LN10@GetToken:

; 108  : 
; 109  : 	case '\"':	// "	String Case
; 110  : 		p=&TokenString[0];

  00cd4	c7 45 f4 00 00
	00 00		 mov	 DWORD PTR _p$[ebp], OFFSET _TokenString
$LN9@GetToken:

; 111  : 		
; 112  : 		while (((ch=getc(SMDFile)) != -1 ) && (ch != 0x22))	// nice

  00cdb	a1 00 00 00 00	 mov	 eax, DWORD PTR _SMDFile
  00ce0	50		 push	 eax
  00ce1	e8 00 00 00 00	 call	 _getc
  00ce6	83 c4 04	 add	 esp, 4
  00ce9	88 45 fb	 mov	 BYTE PTR _ch$[ebp], al
  00cec	0f be 4d fb	 movsx	 ecx, BYTE PTR _ch$[ebp]
  00cf0	83 f9 ff	 cmp	 ecx, -1
  00cf3	74 1c		 je	 SHORT $LN8@GetToken
  00cf5	0f be 45 fb	 movsx	 eax, BYTE PTR _ch$[ebp]
  00cf9	83 f8 22	 cmp	 eax, 34			; 00000022H
  00cfc	74 13		 je	 SHORT $LN8@GetToken

; 113  : 		{
; 114  : 			*p = ch;

  00cfe	8b 45 f4	 mov	 eax, DWORD PTR _p$[ebp]
  00d01	8a 4d fb	 mov	 cl, BYTE PTR _ch$[ebp]
  00d04	88 08		 mov	 BYTE PTR [eax], cl

; 115  : 			p++;

  00d06	8b 45 f4	 mov	 eax, DWORD PTR _p$[ebp]
  00d09	83 c0 01	 add	 eax, 1
  00d0c	89 45 f4	 mov	 DWORD PTR _p$[ebp], eax

; 116  : 		}

  00d0f	eb ca		 jmp	 SHORT $LN9@GetToken
$LN8@GetToken:

; 117  : 		if (ch != 0x22 )

  00d11	0f be 45 fb	 movsx	 eax, BYTE PTR _ch$[ebp]
  00d15	83 f8 22	 cmp	 eax, 34			; 00000022H
  00d18	74 13		 je	 SHORT $LN7@GetToken

; 118  : 		{
; 119  : 			ungetc(ch, SMDFile);

  00d1a	a1 00 00 00 00	 mov	 eax, DWORD PTR _SMDFile
  00d1f	50		 push	 eax
  00d20	0f be 4d fb	 movsx	 ecx, BYTE PTR _ch$[ebp]
  00d24	51		 push	 ecx
  00d25	e8 00 00 00 00	 call	 _ungetc
  00d2a	83 c4 08	 add	 esp, 8
$LN7@GetToken:

; 120  : 		}
; 121  : 		*p = 0;

  00d2d	8b 45 f4	 mov	 eax, DWORD PTR _p$[ebp]
  00d30	c6 00 00	 mov	 BYTE PTR [eax], 0

; 122  : 		return CurrentToken = NAME;

  00d33	c7 05 00 00 00
	00 00 00 00 00	 mov	 DWORD PTR _CurrentToken, 0
  00d3d	a1 00 00 00 00	 mov	 eax, DWORD PTR _CurrentToken
  00d42	e9 c1 00 00 00	 jmp	 $LN32@GetToken

; 123  : 		break;

  00d47	e9 ba 00 00 00	 jmp	 $LN20@GetToken
$LN6@GetToken:

; 124  : 
; 125  : 	default:	// Others
; 126  : 		if (isalpha(ch))

  00d4c	0f be 45 fb	 movsx	 eax, BYTE PTR _ch$[ebp]
  00d50	50		 push	 eax
  00d51	e8 00 00 00 00	 call	 _isalpha
  00d56	83 c4 04	 add	 esp, 4
  00d59	85 c0		 test	 eax, eax
  00d5b	0f 84 94 00 00
	00		 je	 $LN5@GetToken

; 127  : 		{
; 128  : 			p=&TokenString[0];

  00d61	c7 45 f4 00 00
	00 00		 mov	 DWORD PTR _p$[ebp], OFFSET _TokenString

; 129  : 			*p=ch;

  00d68	8b 45 f4	 mov	 eax, DWORD PTR _p$[ebp]
  00d6b	8a 4d fb	 mov	 cl, BYTE PTR _ch$[ebp]
  00d6e	88 08		 mov	 BYTE PTR [eax], cl

; 130  : 			p++;

  00d70	8b 45 f4	 mov	 eax, DWORD PTR _p$[ebp]
  00d73	83 c0 01	 add	 eax, 1
  00d76	89 45 f4	 mov	 DWORD PTR _p$[ebp], eax
$LN4@GetToken:

; 131  : 
; 132  : 			while ( ((ch=getc(SMDFile)) != -1) && ( (ch == 0x2E) || (ch == 0x5F) || (isalnum(ch) != 0) ) )

  00d79	a1 00 00 00 00	 mov	 eax, DWORD PTR _SMDFile
  00d7e	50		 push	 eax
  00d7f	e8 00 00 00 00	 call	 _getc
  00d84	83 c4 04	 add	 esp, 4
  00d87	88 45 fb	 mov	 BYTE PTR _ch$[ebp], al
  00d8a	0f be 4d fb	 movsx	 ecx, BYTE PTR _ch$[ebp]
  00d8e	83 f9 ff	 cmp	 ecx, -1
  00d91	74 36		 je	 SHORT $LN3@GetToken
  00d93	0f be 45 fb	 movsx	 eax, BYTE PTR _ch$[ebp]
  00d97	83 f8 2e	 cmp	 eax, 46			; 0000002eH
  00d9a	74 1a		 je	 SHORT $LN2@GetToken
  00d9c	0f be 45 fb	 movsx	 eax, BYTE PTR _ch$[ebp]
  00da0	83 f8 5f	 cmp	 eax, 95			; 0000005fH
  00da3	74 11		 je	 SHORT $LN2@GetToken
  00da5	0f be 45 fb	 movsx	 eax, BYTE PTR _ch$[ebp]
  00da9	50		 push	 eax
  00daa	e8 00 00 00 00	 call	 _isalnum
  00daf	83 c4 04	 add	 esp, 4
  00db2	85 c0		 test	 eax, eax
  00db4	74 13		 je	 SHORT $LN3@GetToken
$LN2@GetToken:

; 133  : 			{
; 134  : 				*p=ch;

  00db6	8b 45 f4	 mov	 eax, DWORD PTR _p$[ebp]
  00db9	8a 4d fb	 mov	 cl, BYTE PTR _ch$[ebp]
  00dbc	88 08		 mov	 BYTE PTR [eax], cl

; 135  : 				p++;

  00dbe	8b 45 f4	 mov	 eax, DWORD PTR _p$[ebp]
  00dc1	83 c0 01	 add	 eax, 1
  00dc4	89 45 f4	 mov	 DWORD PTR _p$[ebp], eax

; 136  : 				
; 137  : 			}

  00dc7	eb b0		 jmp	 SHORT $LN4@GetToken
$LN3@GetToken:

; 138  : 
; 139  : 			ungetc(ch, SMDFile);

  00dc9	a1 00 00 00 00	 mov	 eax, DWORD PTR _SMDFile
  00dce	50		 push	 eax
  00dcf	0f be 4d fb	 movsx	 ecx, BYTE PTR _ch$[ebp]
  00dd3	51		 push	 ecx
  00dd4	e8 00 00 00 00	 call	 _ungetc
  00dd9	83 c4 08	 add	 esp, 8

; 140  : 			*p=0;

  00ddc	8b 45 f4	 mov	 eax, DWORD PTR _p$[ebp]
  00ddf	c6 00 00	 mov	 BYTE PTR [eax], 0

; 141  : 			CurrentToken=NAME;

  00de2	c7 05 00 00 00
	00 00 00 00 00	 mov	 DWORD PTR _CurrentToken, 0

; 142  : 			return CurrentToken;

  00dec	a1 00 00 00 00	 mov	 eax, DWORD PTR _CurrentToken
  00df1	eb 15		 jmp	 SHORT $LN32@GetToken

; 143  : 		}
; 144  : 		else

  00df3	eb 11		 jmp	 SHORT $LN1@GetToken
$LN5@GetToken:

; 145  : 		{
; 146  : 			return CurrentToken = SMD_ERROR; // '<'

  00df5	c7 05 00 00 00
	00 3c 00 00 00	 mov	 DWORD PTR _CurrentToken, 60 ; 0000003cH
  00dff	a1 00 00 00 00	 mov	 eax, DWORD PTR _CurrentToken
  00e04	eb 02		 jmp	 SHORT $LN32@GetToken
$LN1@GetToken:
$LN20@GetToken:

; 147  : 		}
; 148  : 		break;
; 149  : 
; 150  : 	}
; 151  : 
; 152  : 	return NAME;

  00e06	33 c0		 xor	 eax, eax
$LN32@GetToken:

; 153  : }

  00e08	5f		 pop	 edi
  00e09	5e		 pop	 esi
  00e0a	5b		 pop	 ebx
  00e0b	8b 4d fc	 mov	 ecx, DWORD PTR __$ArrayPad$[ebp]
  00e0e	33 cd		 xor	 ecx, ebp
  00e10	e8 00 00 00 00	 call	 @__security_check_cookie@4
  00e15	8b e5		 mov	 esp, ebp
  00e17	5d		 pop	 ebp
  00e18	c3		 ret	 0
  00e19	8d 49 00	 npad	 3
$LN35@GetToken:
  00e1c	00 00 00 00	 DD	 $LN10@GetToken
  00e20	00 00 00 00	 DD	 $LN19@GetToken
  00e24	00 00 00 00	 DD	 $LN17@GetToken
  00e28	00 00 00 00	 DD	 $LN14@GetToken
  00e2c	00 00 00 00	 DD	 $LN18@GetToken
  00e30	00 00 00 00	 DD	 $LN16@GetToken
  00e34	00 00 00 00	 DD	 $LN15@GetToken
  00e38	00 00 00 00	 DD	 $LN6@GetToken
$LN34@GetToken:
  00e3c	00		 DB	 0
  00e3d	01		 DB	 1
  00e3e	07		 DB	 7
  00e3f	07		 DB	 7
  00e40	07		 DB	 7
  00e41	07		 DB	 7
  00e42	07		 DB	 7
  00e43	07		 DB	 7
  00e44	07		 DB	 7
  00e45	07		 DB	 7
  00e46	02		 DB	 2
  00e47	03		 DB	 3
  00e48	03		 DB	 3
  00e49	07		 DB	 7
  00e4a	03		 DB	 3
  00e4b	03		 DB	 3
  00e4c	03		 DB	 3
  00e4d	03		 DB	 3
  00e4e	03		 DB	 3
  00e4f	03		 DB	 3
  00e50	03		 DB	 3
  00e51	03		 DB	 3
  00e52	03		 DB	 3
  00e53	03		 DB	 3
  00e54	07		 DB	 7
  00e55	04		 DB	 4
  00e56	07		 DB	 7
  00e57	07		 DB	 7
  00e58	07		 DB	 7
  00e59	07		 DB	 7
  00e5a	07		 DB	 7
  00e5b	07		 DB	 7
  00e5c	07		 DB	 7
  00e5d	07		 DB	 7
  00e5e	07		 DB	 7
  00e5f	07		 DB	 7
  00e60	07		 DB	 7
  00e61	07		 DB	 7
  00e62	07		 DB	 7
  00e63	07		 DB	 7
  00e64	07		 DB	 7
  00e65	07		 DB	 7
  00e66	07		 DB	 7
  00e67	07		 DB	 7
  00e68	07		 DB	 7
  00e69	07		 DB	 7
  00e6a	07		 DB	 7
  00e6b	07		 DB	 7
  00e6c	07		 DB	 7
  00e6d	07		 DB	 7
  00e6e	07		 DB	 7
  00e6f	07		 DB	 7
  00e70	07		 DB	 7
  00e71	07		 DB	 7
  00e72	07		 DB	 7
  00e73	07		 DB	 7
  00e74	07		 DB	 7
  00e75	07		 DB	 7
  00e76	07		 DB	 7
  00e77	07		 DB	 7
  00e78	07		 DB	 7
  00e79	07		 DB	 7
  00e7a	07		 DB	 7
  00e7b	07		 DB	 7
  00e7c	07		 DB	 7
  00e7d	07		 DB	 7
  00e7e	07		 DB	 7
  00e7f	07		 DB	 7
  00e80	07		 DB	 7
  00e81	07		 DB	 7
  00e82	07		 DB	 7
  00e83	07		 DB	 7
  00e84	07		 DB	 7
  00e85	07		 DB	 7
  00e86	07		 DB	 7
  00e87	07		 DB	 7
  00e88	07		 DB	 7
  00e89	07		 DB	 7
  00e8a	07		 DB	 7
  00e8b	07		 DB	 7
  00e8c	07		 DB	 7
  00e8d	07		 DB	 7
  00e8e	07		 DB	 7
  00e8f	07		 DB	 7
  00e90	07		 DB	 7
  00e91	07		 DB	 7
  00e92	07		 DB	 7
  00e93	07		 DB	 7
  00e94	07		 DB	 7
  00e95	05		 DB	 5
  00e96	07		 DB	 7
  00e97	06		 DB	 6
?GetToken@@YA?AW4SMDToken@@XZ ENDP			; GetToken
_TEXT	ENDS
PUBLIC	??_C@_0EN@IGEPIJHA@?$FLChaos?5Castle?$FN?5?$CI?$CFd?$CJ?5Sync?5Start?5T@ ; `string'
PUBLIC	??_C@_0FH@CMJAMBAM@?$FLChaos?5Castle?$FN?5?$CI?$CFd?$CJ?5No?5Schedule?5@ ; `string'
PUBLIC	??D?$_Vector_iterator@V?$_Vector_val@UCHAOSCASTLE_START_TIME@@V?$allocator@UCHAOSCASTLE_START_TIME@@@std@@@std@@@std@@QBEAAUCHAOSCASTLE_START_TIME@@XZ ; std::_Vector_iterator<std::_Vector_val<CHAOSCASTLE_START_TIME,std::allocator<CHAOSCASTLE_START_TIME> > >::operator*
PUBLIC	??9?$_Vector_const_iterator@V?$_Vector_val@UCHAOSCASTLE_START_TIME@@V?$allocator@UCHAOSCASTLE_START_TIME@@@std@@@std@@@std@@QBE_NABV01@@Z ; std::_Vector_const_iterator<std::_Vector_val<CHAOSCASTLE_START_TIME,std::allocator<CHAOSCASTLE_START_TIME> > >::operator!=
PUBLIC	??E?$_Vector_iterator@V?$_Vector_val@UCHAOSCASTLE_START_TIME@@V?$allocator@UCHAOSCASTLE_START_TIME@@@std@@@std@@@std@@QAE?AV01@H@Z ; std::_Vector_iterator<std::_Vector_val<CHAOSCASTLE_START_TIME,std::allocator<CHAOSCASTLE_START_TIME> > >::operator++
PUBLIC	??0?$_Vector_iterator@V?$_Vector_val@UCHAOSCASTLE_START_TIME@@V?$allocator@UCHAOSCASTLE_START_TIME@@@std@@@std@@@std@@QAE@XZ ; std::_Vector_iterator<std::_Vector_val<CHAOSCASTLE_START_TIME,std::allocator<CHAOSCASTLE_START_TIME> > >::_Vector_iterator<std::_Vector_val<CHAOSCASTLE_START_TIME,std::allocator<CHAOSCASTLE_START_TIME> > >
PUBLIC	??_C@_0GG@HCMJNMOO@?$FLChaos?5Castle?$FN?5?$CI?$CFd?$CJ?5No?5Schedule?5@ ; `string'
PUBLIC	?empty@?$vector@UCHAOSCASTLE_START_TIME@@V?$allocator@UCHAOSCASTLE_START_TIME@@@std@@@std@@QBE_NXZ ; std::vector<CHAOSCASTLE_START_TIME,std::allocator<CHAOSCASTLE_START_TIME> >::empty
PUBLIC	__$ArrayPad$
PUBLIC	?CheckSync@CChaosCastle@@IAEXH@Z		; CChaosCastle::CheckSync
EXTRN	?LogAddTD@@3P6AXPADZZA:DWORD			; LogAddTD
EXTRN	__imp__GetTickCount@0:PROC
EXTRN	__imp__GetLocalTime@4:PROC
EXTRN	?LogAddC@@3P6AXEPADZZA:DWORD			; LogAddC
;	COMDAT ??_C@_0EN@IGEPIJHA@?$FLChaos?5Castle?$FN?5?$CI?$CFd?$CJ?5Sync?5Start?5T@
; File d:\projects\exteam6.3\source\gameserver\gameserver\chaoscastle.cpp
CONST	SEGMENT
??_C@_0EN@IGEPIJHA@?$FLChaos?5Castle?$FN?5?$CI?$CFd?$CJ?5Sync?5Start?5T@ DB '['
	DB	'Chaos Castle] (%d) Sync Start Time. [%d] min remain (START HO'
	DB	'UR:%d, MIN:%d)', 00H			; `string'
CONST	ENDS
;	COMDAT ??_C@_0FH@CMJAMBAM@?$FLChaos?5Castle?$FN?5?$CI?$CFd?$CJ?5No?5Schedule?5@
CONST	SEGMENT
??_C@_0FH@CMJAMBAM@?$FLChaos?5Castle?$FN?5?$CI?$CFd?$CJ?5No?5Schedule?5@ DB '['
	DB	'Chaos Castle] (%d) No Schedule Time Data - Chaos Castle Termi'
	DB	'nated (bTIME_CHANGED=%d)', 00H		; `string'
CONST	ENDS
;	COMDAT ??_C@_0GG@HCMJNMOO@?$FLChaos?5Castle?$FN?5?$CI?$CFd?$CJ?5No?5Schedule?5@
CONST	SEGMENT
??_C@_0GG@HCMJNMOO@?$FLChaos?5Castle?$FN?5?$CI?$CFd?$CJ?5No?5Schedule?5@ DB '['
	DB	'Chaos Castle] (%d) No Schedule Time Data - Chaos Castle Termi'
	DB	'nated (m_vtChaosCastleOpenTime.empty())', 00H ; `string'
; Function compile flags: /Odtp /ZI
CONST	ENDS
_TEXT	SEGMENT
tv192 = -140						; size = 4
tv67 = -140						; size = 4
$T242004 = -136						; size = 4
$T242005 = -132						; size = 4
$T242006 = -128						; size = 4
$T242007 = -124						; size = 4
$T242008 = -120						; size = 4
$T242009 = -116						; size = 4
_stCCTime$236642 = -48					; size = 4
_stCCTime$236632 = -44					; size = 4
_it$ = -40						; size = 4
_bTIME_CHANGED$ = -36					; size = 4
_iMIN_MINUTE$ = -32					; size = 4
_iMIN_HOUR$ = -28					; size = 4
_sysTime$ = -24						; size = 16
_this$ = -8						; size = 4
__$ArrayPad$ = -4					; size = 4
_iChaosCastleIndex$ = 8					; size = 4
?CheckSync@CChaosCastle@@IAEXH@Z PROC			; CChaosCastle::CheckSync
; _this$ = ecx

; 305  : {

  00ea0	55		 push	 ebp
  00ea1	8b ec		 mov	 ebp, esp
  00ea3	81 ec 8c 00 00
	00		 sub	 esp, 140		; 0000008cH
  00ea9	a1 00 00 00 00	 mov	 eax, DWORD PTR ___security_cookie
  00eae	33 c5		 xor	 eax, ebp
  00eb0	89 45 fc	 mov	 DWORD PTR __$ArrayPad$[ebp], eax
  00eb3	53		 push	 ebx
  00eb4	56		 push	 esi
  00eb5	57		 push	 edi
  00eb6	89 4d f8	 mov	 DWORD PTR _this$[ebp], ecx

; 306  : 	if ( CC_FLOOR_RANGE(iChaosCastleIndex) == FALSE )

  00eb9	83 7d 08 00	 cmp	 DWORD PTR _iChaosCastleIndex$[ebp], 0
  00ebd	7d 0c		 jge	 SHORT $LN20@CheckSync
  00ebf	c7 85 74 ff ff
	ff 00 00 00 00	 mov	 DWORD PTR tv67[ebp], 0
  00ec9	eb 0f		 jmp	 SHORT $LN21@CheckSync
$LN20@CheckSync:
  00ecb	33 c0		 xor	 eax, eax
  00ecd	83 7d 08 06	 cmp	 DWORD PTR _iChaosCastleIndex$[ebp], 6
  00ed1	0f 9e c0	 setle	 al
  00ed4	89 85 74 ff ff
	ff		 mov	 DWORD PTR tv67[ebp], eax
$LN21@CheckSync:
  00eda	83 bd 74 ff ff
	ff 00		 cmp	 DWORD PTR tv67[ebp], 0
  00ee1	75 05		 jne	 SHORT $LN17@CheckSync

; 307  : 	{
; 308  : 		return;

  00ee3	e9 cb 02 00 00	 jmp	 $LN18@CheckSync
$LN17@CheckSync:

; 309  : 	}
; 310  : 
; 311  : 	if ( this->m_vtChaosCastleOpenTime.empty() != false )

  00ee8	8b 4d f8	 mov	 ecx, DWORD PTR _this$[ebp]
  00eeb	83 c1 20	 add	 ecx, 32			; 00000020H
  00eee	e8 00 00 00 00	 call	 ?empty@?$vector@UCHAOSCASTLE_START_TIME@@V?$allocator@UCHAOSCASTLE_START_TIME@@@std@@@std@@QBE_NXZ ; std::vector<CHAOSCASTLE_START_TIME,std::allocator<CHAOSCASTLE_START_TIME> >::empty
  00ef3	0f b6 c0	 movzx	 eax, al
  00ef6	85 c0		 test	 eax, eax
  00ef8	74 2a		 je	 SHORT $LN16@CheckSync

; 312  : 	{
; 313  : 		LogAddC(2, "[Chaos Castle] (%d) No Schedule Time Data - Chaos Castle Terminated (m_vtChaosCastleOpenTime.empty())", iChaosCastleIndex);

  00efa	8b 45 08	 mov	 eax, DWORD PTR _iChaosCastleIndex$[ebp]
  00efd	50		 push	 eax
  00efe	68 00 00 00 00	 push	 OFFSET ??_C@_0GG@HCMJNMOO@?$FLChaos?5Castle?$FN?5?$CI?$CFd?$CJ?5No?5Schedule?5@
  00f03	6a 02		 push	 2
  00f05	ff 15 00 00 00
	00		 call	 DWORD PTR ?LogAddC@@3P6AXEPADZZA ; LogAddC
  00f0b	83 c4 0c	 add	 esp, 12			; 0000000cH

; 314  : 		this->SetState(iChaosCastleIndex+1, CC_STATE_NONE);

  00f0e	6a 00		 push	 0
  00f10	8b 45 08	 mov	 eax, DWORD PTR _iChaosCastleIndex$[ebp]
  00f13	83 c0 01	 add	 eax, 1
  00f16	50		 push	 eax
  00f17	8b 4d f8	 mov	 ecx, DWORD PTR _this$[ebp]
  00f1a	e8 00 00 00 00	 call	 ?SetState@CChaosCastle@@QAEXHH@Z ; CChaosCastle::SetState

; 315  : 		
; 316  : 		return;

  00f1f	e9 8f 02 00 00	 jmp	 $LN18@CheckSync
$LN16@CheckSync:

; 317  : 	}
; 318  : 
; 319  : 	SYSTEMTIME sysTime;
; 320  : 	GetLocalTime(&sysTime);

  00f24	8d 45 e8	 lea	 eax, DWORD PTR _sysTime$[ebp]
  00f27	50		 push	 eax
  00f28	ff 15 00 00 00
	00		 call	 DWORD PTR __imp__GetLocalTime@4

; 321  : 	int iMIN_HOUR = 24;

  00f2e	c7 45 e4 18 00
	00 00		 mov	 DWORD PTR _iMIN_HOUR$[ebp], 24 ; 00000018H

; 322  : 	int iMIN_MINUTE = 60;

  00f35	c7 45 e0 3c 00
	00 00		 mov	 DWORD PTR _iMIN_MINUTE$[ebp], 60 ; 0000003cH

; 323  : 	BOOL bTIME_CHANGED = FALSE;

  00f3c	c7 45 dc 00 00
	00 00		 mov	 DWORD PTR _bTIME_CHANGED$[ebp], 0

; 324  : 	std::vector<CHAOSCASTLE_START_TIME>::iterator it;

  00f43	8d 4d d8	 lea	 ecx, DWORD PTR _it$[ebp]
  00f46	e8 00 00 00 00	 call	 ??0?$_Vector_iterator@V?$_Vector_val@UCHAOSCASTLE_START_TIME@@V?$allocator@UCHAOSCASTLE_START_TIME@@@std@@@std@@@std@@QAE@XZ ; std::_Vector_iterator<std::_Vector_val<CHAOSCASTLE_START_TIME,std::allocator<CHAOSCASTLE_START_TIME> > >::_Vector_iterator<std::_Vector_val<CHAOSCASTLE_START_TIME,std::allocator<CHAOSCASTLE_START_TIME> > >

; 325  : 	for (it = this->m_vtChaosCastleOpenTime.begin() ; it != this->m_vtChaosCastleOpenTime.end() ; it++ )

  00f4b	8d 85 78 ff ff
	ff		 lea	 eax, DWORD PTR $T242004[ebp]
  00f51	50		 push	 eax
  00f52	8b 4d f8	 mov	 ecx, DWORD PTR _this$[ebp]
  00f55	83 c1 20	 add	 ecx, 32			; 00000020H
  00f58	e8 00 00 00 00	 call	 ?begin@?$vector@UCHAOSCASTLE_START_TIME@@V?$allocator@UCHAOSCASTLE_START_TIME@@@std@@@std@@QAE?AV?$_Vector_iterator@V?$_Vector_val@UCHAOSCASTLE_START_TIME@@V?$allocator@UCHAOSCASTLE_START_TIME@@@std@@@std@@@2@XZ ; std::vector<CHAOSCASTLE_START_TIME,std::allocator<CHAOSCASTLE_START_TIME> >::begin
  00f5d	8b 08		 mov	 ecx, DWORD PTR [eax]
  00f5f	89 4d d8	 mov	 DWORD PTR _it$[ebp], ecx
  00f62	eb 11		 jmp	 SHORT $LN15@CheckSync
$LN14@CheckSync:
  00f64	6a 00		 push	 0
  00f66	8d 85 7c ff ff
	ff		 lea	 eax, DWORD PTR $T242005[ebp]
  00f6c	50		 push	 eax
  00f6d	8d 4d d8	 lea	 ecx, DWORD PTR _it$[ebp]
  00f70	e8 00 00 00 00	 call	 ??E?$_Vector_iterator@V?$_Vector_val@UCHAOSCASTLE_START_TIME@@V?$allocator@UCHAOSCASTLE_START_TIME@@@std@@@std@@@std@@QAE?AV01@H@Z ; std::_Vector_iterator<std::_Vector_val<CHAOSCASTLE_START_TIME,std::allocator<CHAOSCASTLE_START_TIME> > >::operator++
$LN15@CheckSync:
  00f75	8d 45 80	 lea	 eax, DWORD PTR $T242006[ebp]
  00f78	50		 push	 eax
  00f79	8b 4d f8	 mov	 ecx, DWORD PTR _this$[ebp]
  00f7c	83 c1 20	 add	 ecx, 32			; 00000020H
  00f7f	e8 00 00 00 00	 call	 ?end@?$vector@UCHAOSCASTLE_START_TIME@@V?$allocator@UCHAOSCASTLE_START_TIME@@@std@@@std@@QAE?AV?$_Vector_iterator@V?$_Vector_val@UCHAOSCASTLE_START_TIME@@V?$allocator@UCHAOSCASTLE_START_TIME@@@std@@@std@@@2@XZ ; std::vector<CHAOSCASTLE_START_TIME,std::allocator<CHAOSCASTLE_START_TIME> >::end
  00f84	50		 push	 eax
  00f85	8d 4d d8	 lea	 ecx, DWORD PTR _it$[ebp]
  00f88	e8 00 00 00 00	 call	 ??9?$_Vector_const_iterator@V?$_Vector_val@UCHAOSCASTLE_START_TIME@@V?$allocator@UCHAOSCASTLE_START_TIME@@@std@@@std@@@std@@QBE_NABV01@@Z ; std::_Vector_const_iterator<std::_Vector_val<CHAOSCASTLE_START_TIME,std::allocator<CHAOSCASTLE_START_TIME> > >::operator!=
  00f8d	0f b6 c8	 movzx	 ecx, al
  00f90	85 c9		 test	 ecx, ecx
  00f92	74 62		 je	 SHORT $LN13@CheckSync

; 326  : 	{
; 327  : 		CHAOSCASTLE_START_TIME * stCCTime = &(*it);

  00f94	8d 4d d8	 lea	 ecx, DWORD PTR _it$[ebp]
  00f97	e8 00 00 00 00	 call	 ??D?$_Vector_iterator@V?$_Vector_val@UCHAOSCASTLE_START_TIME@@V?$allocator@UCHAOSCASTLE_START_TIME@@@std@@@std@@@std@@QBEAAUCHAOSCASTLE_START_TIME@@XZ ; std::_Vector_iterator<std::_Vector_val<CHAOSCASTLE_START_TIME,std::allocator<CHAOSCASTLE_START_TIME> > >::operator*
  00f9c	89 45 d4	 mov	 DWORD PTR _stCCTime$236632[ebp], eax

; 328  : 
; 329  : 		if ( (sysTime.wHour * 60 + sysTime.wMinute) < (stCCTime->m_iHour * 60 + stCCTime->m_iMinute) )

  00f9f	0f b7 45 f0	 movzx	 eax, WORD PTR _sysTime$[ebp+8]
  00fa3	6b c0 3c	 imul	 eax, 60			; 0000003cH
  00fa6	0f b7 4d f2	 movzx	 ecx, WORD PTR _sysTime$[ebp+10]
  00faa	03 c1		 add	 eax, ecx
  00fac	8b 55 d4	 mov	 edx, DWORD PTR _stCCTime$236632[ebp]
  00faf	8b 0a		 mov	 ecx, DWORD PTR [edx]
  00fb1	6b c9 3c	 imul	 ecx, 60			; 0000003cH
  00fb4	8b 55 d4	 mov	 edx, DWORD PTR _stCCTime$236632[ebp]
  00fb7	03 4a 04	 add	 ecx, DWORD PTR [edx+4]
  00fba	3b c1		 cmp	 eax, ecx
  00fbc	7d 33		 jge	 SHORT $LN12@CheckSync

; 330  : 		{
; 331  : 			if ( ( iMIN_HOUR * 60 + iMIN_MINUTE ) > ( stCCTime->m_iHour * 60 + stCCTime->m_iMinute ) )

  00fbe	8b 45 e4	 mov	 eax, DWORD PTR _iMIN_HOUR$[ebp]
  00fc1	6b c0 3c	 imul	 eax, 60			; 0000003cH
  00fc4	03 45 e0	 add	 eax, DWORD PTR _iMIN_MINUTE$[ebp]
  00fc7	8b 4d d4	 mov	 ecx, DWORD PTR _stCCTime$236632[ebp]
  00fca	8b 11		 mov	 edx, DWORD PTR [ecx]
  00fcc	6b d2 3c	 imul	 edx, 60			; 0000003cH
  00fcf	8b 4d d4	 mov	 ecx, DWORD PTR _stCCTime$236632[ebp]
  00fd2	03 51 04	 add	 edx, DWORD PTR [ecx+4]
  00fd5	3b c2		 cmp	 eax, edx
  00fd7	7e 18		 jle	 SHORT $LN12@CheckSync

; 332  : 			{
; 333  : 				bTIME_CHANGED = TRUE;

  00fd9	c7 45 dc 01 00
	00 00		 mov	 DWORD PTR _bTIME_CHANGED$[ebp], 1

; 334  : 				iMIN_HOUR = stCCTime->m_iHour;

  00fe0	8b 45 d4	 mov	 eax, DWORD PTR _stCCTime$236632[ebp]
  00fe3	8b 08		 mov	 ecx, DWORD PTR [eax]
  00fe5	89 4d e4	 mov	 DWORD PTR _iMIN_HOUR$[ebp], ecx

; 335  : 				iMIN_MINUTE = stCCTime->m_iMinute;

  00fe8	8b 45 d4	 mov	 eax, DWORD PTR _stCCTime$236632[ebp]
  00feb	8b 48 04	 mov	 ecx, DWORD PTR [eax+4]
  00fee	89 4d e0	 mov	 DWORD PTR _iMIN_MINUTE$[ebp], ecx
$LN12@CheckSync:

; 336  : 			}
; 337  : 		}
; 338  : 	}

  00ff1	e9 6e ff ff ff	 jmp	 $LN14@CheckSync
$LN13@CheckSync:

; 339  : 
; 340  : 	if ( bTIME_CHANGED == FALSE )

  00ff6	83 7d dc 00	 cmp	 DWORD PTR _bTIME_CHANGED$[ebp], 0
  00ffa	0f 85 91 00 00
	00		 jne	 $LN10@CheckSync

; 341  : 	{
; 342  : 		it = this->m_vtChaosCastleOpenTime.begin();

  01000	8d 45 84	 lea	 eax, DWORD PTR $T242007[ebp]
  01003	50		 push	 eax
  01004	8b 4d f8	 mov	 ecx, DWORD PTR _this$[ebp]
  01007	83 c1 20	 add	 ecx, 32			; 00000020H
  0100a	e8 00 00 00 00	 call	 ?begin@?$vector@UCHAOSCASTLE_START_TIME@@V?$allocator@UCHAOSCASTLE_START_TIME@@@std@@@std@@QAE?AV?$_Vector_iterator@V?$_Vector_val@UCHAOSCASTLE_START_TIME@@V?$allocator@UCHAOSCASTLE_START_TIME@@@std@@@std@@@2@XZ ; std::vector<CHAOSCASTLE_START_TIME,std::allocator<CHAOSCASTLE_START_TIME> >::begin
  0100f	8b 08		 mov	 ecx, DWORD PTR [eax]
  01011	89 4d d8	 mov	 DWORD PTR _it$[ebp], ecx

; 343  : 		iMIN_HOUR = 24;

  01014	c7 45 e4 18 00
	00 00		 mov	 DWORD PTR _iMIN_HOUR$[ebp], 24 ; 00000018H

; 344  : 		iMIN_MINUTE = 60;

  0101b	c7 45 e0 3c 00
	00 00		 mov	 DWORD PTR _iMIN_MINUTE$[ebp], 60 ; 0000003cH
  01022	eb 0e		 jmp	 SHORT $LN9@CheckSync
$LN8@CheckSync:

; 345  : 
; 346  : 		for ( ; it != this->m_vtChaosCastleOpenTime.end() ; it++ )

  01024	6a 00		 push	 0
  01026	8d 45 88	 lea	 eax, DWORD PTR $T242008[ebp]
  01029	50		 push	 eax
  0102a	8d 4d d8	 lea	 ecx, DWORD PTR _it$[ebp]
  0102d	e8 00 00 00 00	 call	 ??E?$_Vector_iterator@V?$_Vector_val@UCHAOSCASTLE_START_TIME@@V?$allocator@UCHAOSCASTLE_START_TIME@@@std@@@std@@@std@@QAE?AV01@H@Z ; std::_Vector_iterator<std::_Vector_val<CHAOSCASTLE_START_TIME,std::allocator<CHAOSCASTLE_START_TIME> > >::operator++
$LN9@CheckSync:
  01032	8d 45 8c	 lea	 eax, DWORD PTR $T242009[ebp]
  01035	50		 push	 eax
  01036	8b 4d f8	 mov	 ecx, DWORD PTR _this$[ebp]
  01039	83 c1 20	 add	 ecx, 32			; 00000020H
  0103c	e8 00 00 00 00	 call	 ?end@?$vector@UCHAOSCASTLE_START_TIME@@V?$allocator@UCHAOSCASTLE_START_TIME@@@std@@@std@@QAE?AV?$_Vector_iterator@V?$_Vector_val@UCHAOSCASTLE_START_TIME@@V?$allocator@UCHAOSCASTLE_START_TIME@@@std@@@std@@@2@XZ ; std::vector<CHAOSCASTLE_START_TIME,std::allocator<CHAOSCASTLE_START_TIME> >::end
  01041	50		 push	 eax
  01042	8d 4d d8	 lea	 ecx, DWORD PTR _it$[ebp]
  01045	e8 00 00 00 00	 call	 ??9?$_Vector_const_iterator@V?$_Vector_val@UCHAOSCASTLE_START_TIME@@V?$allocator@UCHAOSCASTLE_START_TIME@@@std@@@std@@@std@@QBE_NABV01@@Z ; std::_Vector_const_iterator<std::_Vector_val<CHAOSCASTLE_START_TIME,std::allocator<CHAOSCASTLE_START_TIME> > >::operator!=
  0104a	0f b6 c8	 movzx	 ecx, al
  0104d	85 c9		 test	 ecx, ecx
  0104f	74 40		 je	 SHORT $LN10@CheckSync

; 347  : 		{
; 348  : 			CHAOSCASTLE_START_TIME * stCCTime = &(*it);

  01051	8d 4d d8	 lea	 ecx, DWORD PTR _it$[ebp]
  01054	e8 00 00 00 00	 call	 ??D?$_Vector_iterator@V?$_Vector_val@UCHAOSCASTLE_START_TIME@@V?$allocator@UCHAOSCASTLE_START_TIME@@@std@@@std@@@std@@QBEAAUCHAOSCASTLE_START_TIME@@XZ ; std::_Vector_iterator<std::_Vector_val<CHAOSCASTLE_START_TIME,std::allocator<CHAOSCASTLE_START_TIME> > >::operator*
  01059	89 45 d0	 mov	 DWORD PTR _stCCTime$236642[ebp], eax

; 349  : 
; 350  : 			if ( ( iMIN_HOUR * 60 + iMIN_MINUTE ) > ( stCCTime->m_iHour * 60 + stCCTime->m_iMinute ) )

  0105c	8b 45 e4	 mov	 eax, DWORD PTR _iMIN_HOUR$[ebp]
  0105f	6b c0 3c	 imul	 eax, 60			; 0000003cH
  01062	03 45 e0	 add	 eax, DWORD PTR _iMIN_MINUTE$[ebp]
  01065	8b 4d d0	 mov	 ecx, DWORD PTR _stCCTime$236642[ebp]
  01068	8b 11		 mov	 edx, DWORD PTR [ecx]
  0106a	6b d2 3c	 imul	 edx, 60			; 0000003cH
  0106d	8b 4d d0	 mov	 ecx, DWORD PTR _stCCTime$236642[ebp]
  01070	03 51 04	 add	 edx, DWORD PTR [ecx+4]
  01073	3b c2		 cmp	 eax, edx
  01075	7e 18		 jle	 SHORT $LN6@CheckSync

; 351  : 			{
; 352  : 				bTIME_CHANGED = 2;

  01077	c7 45 dc 02 00
	00 00		 mov	 DWORD PTR _bTIME_CHANGED$[ebp], 2

; 353  : 				iMIN_HOUR = stCCTime->m_iHour;

  0107e	8b 45 d0	 mov	 eax, DWORD PTR _stCCTime$236642[ebp]
  01081	8b 08		 mov	 ecx, DWORD PTR [eax]
  01083	89 4d e4	 mov	 DWORD PTR _iMIN_HOUR$[ebp], ecx

; 354  : 				iMIN_MINUTE = stCCTime->m_iMinute;

  01086	8b 45 d0	 mov	 eax, DWORD PTR _stCCTime$236642[ebp]
  01089	8b 48 04	 mov	 ecx, DWORD PTR [eax+4]
  0108c	89 4d e0	 mov	 DWORD PTR _iMIN_MINUTE$[ebp], ecx
$LN6@CheckSync:

; 355  : 			}
; 356  : 		}

  0108f	eb 93		 jmp	 SHORT $LN8@CheckSync
$LN10@CheckSync:

; 357  : 	}
; 358  : 
; 359  : 	switch ( bTIME_CHANGED )

  01091	8b 45 dc	 mov	 eax, DWORD PTR _bTIME_CHANGED$[ebp]
  01094	89 85 74 ff ff
	ff		 mov	 DWORD PTR tv192[ebp], eax
  0109a	83 bd 74 ff ff
	ff 01		 cmp	 DWORD PTR tv192[ebp], 1
  010a1	74 0e		 je	 SHORT $LN3@CheckSync
  010a3	83 bd 74 ff ff
	ff 02		 cmp	 DWORD PTR tv192[ebp], 2
  010aa	74 49		 je	 SHORT $LN2@CheckSync
  010ac	e9 8b 00 00 00	 jmp	 $LN1@CheckSync
$LN3@CheckSync:

; 360  : 	{
; 361  : 		case TRUE:
; 362  : 			this->m_stChaosCastleData[iChaosCastleIndex].m_iCC_REMAIN_MSEC = (((iMIN_HOUR * 60 * 60) + (iMIN_MINUTE * 60)) - ((sysTime.wHour * 60 * 60) + (sysTime.wMinute * 60) + (sysTime.wSecond))) * 1000;

  010b1	8b 45 e4	 mov	 eax, DWORD PTR _iMIN_HOUR$[ebp]
  010b4	6b c0 3c	 imul	 eax, 60			; 0000003cH
  010b7	6b c0 3c	 imul	 eax, 60			; 0000003cH
  010ba	8b 4d e0	 mov	 ecx, DWORD PTR _iMIN_MINUTE$[ebp]
  010bd	6b c9 3c	 imul	 ecx, 60			; 0000003cH
  010c0	03 c1		 add	 eax, ecx
  010c2	0f b7 55 f0	 movzx	 edx, WORD PTR _sysTime$[ebp+8]
  010c6	6b d2 3c	 imul	 edx, 60			; 0000003cH
  010c9	6b d2 3c	 imul	 edx, 60			; 0000003cH
  010cc	0f b7 4d f2	 movzx	 ecx, WORD PTR _sysTime$[ebp+10]
  010d0	6b c9 3c	 imul	 ecx, 60			; 0000003cH
  010d3	03 d1		 add	 edx, ecx
  010d5	0f b7 4d f4	 movzx	 ecx, WORD PTR _sysTime$[ebp+12]
  010d9	03 d1		 add	 edx, ecx
  010db	2b c2		 sub	 eax, edx
  010dd	69 c0 e8 03 00
	00		 imul	 eax, 1000		; 000003e8H
  010e3	8b 55 08	 mov	 edx, DWORD PTR _iChaosCastleIndex$[ebp]
  010e6	69 d2 70 08 00
	00		 imul	 edx, 2160		; 00000870H
  010ec	8b 4d f8	 mov	 ecx, DWORD PTR _this$[ebp]
  010ef	89 44 11 40	 mov	 DWORD PTR [ecx+edx+64], eax

; 363  : 			break;

  010f3	eb 72		 jmp	 SHORT $LN4@CheckSync
$LN2@CheckSync:

; 364  : 
; 365  : 		case 2:
; 366  : 			this->m_stChaosCastleData[iChaosCastleIndex].m_iCC_REMAIN_MSEC = ((((iMIN_HOUR+24) * 60 * 60) + (iMIN_MINUTE * 60)) - ((sysTime.wHour * 60 * 60) + (sysTime.wMinute * 60) + (sysTime.wSecond))) * 1000;

  010f5	8b 45 e4	 mov	 eax, DWORD PTR _iMIN_HOUR$[ebp]
  010f8	83 c0 18	 add	 eax, 24			; 00000018H
  010fb	6b c0 3c	 imul	 eax, 60			; 0000003cH
  010fe	6b c0 3c	 imul	 eax, 60			; 0000003cH
  01101	8b 4d e0	 mov	 ecx, DWORD PTR _iMIN_MINUTE$[ebp]
  01104	6b c9 3c	 imul	 ecx, 60			; 0000003cH
  01107	03 c1		 add	 eax, ecx
  01109	0f b7 55 f0	 movzx	 edx, WORD PTR _sysTime$[ebp+8]
  0110d	6b d2 3c	 imul	 edx, 60			; 0000003cH
  01110	6b d2 3c	 imul	 edx, 60			; 0000003cH
  01113	0f b7 4d f2	 movzx	 ecx, WORD PTR _sysTime$[ebp+10]
  01117	6b c9 3c	 imul	 ecx, 60			; 0000003cH
  0111a	03 d1		 add	 edx, ecx
  0111c	0f b7 4d f4	 movzx	 ecx, WORD PTR _sysTime$[ebp+12]
  01120	03 d1		 add	 edx, ecx
  01122	2b c2		 sub	 eax, edx
  01124	69 c0 e8 03 00
	00		 imul	 eax, 1000		; 000003e8H
  0112a	8b 55 08	 mov	 edx, DWORD PTR _iChaosCastleIndex$[ebp]
  0112d	69 d2 70 08 00
	00		 imul	 edx, 2160		; 00000870H
  01133	8b 4d f8	 mov	 ecx, DWORD PTR _this$[ebp]
  01136	89 44 11 40	 mov	 DWORD PTR [ecx+edx+64], eax

; 367  : 			break;

  0113a	eb 2b		 jmp	 SHORT $LN4@CheckSync
$LN1@CheckSync:

; 368  : 
; 369  : 		default:
; 370  : 			LogAddC(2, "[Chaos Castle] (%d) No Schedule Time Data - Chaos Castle Terminated (bTIME_CHANGED=%d)",
; 371  : 				iChaosCastleIndex + 1, bTIME_CHANGED);

  0113c	8b 45 dc	 mov	 eax, DWORD PTR _bTIME_CHANGED$[ebp]
  0113f	50		 push	 eax
  01140	8b 4d 08	 mov	 ecx, DWORD PTR _iChaosCastleIndex$[ebp]
  01143	83 c1 01	 add	 ecx, 1
  01146	51		 push	 ecx
  01147	68 00 00 00 00	 push	 OFFSET ??_C@_0FH@CMJAMBAM@?$FLChaos?5Castle?$FN?5?$CI?$CFd?$CJ?5No?5Schedule?5@
  0114c	6a 02		 push	 2
  0114e	ff 15 00 00 00
	00		 call	 DWORD PTR ?LogAddC@@3P6AXEPADZZA ; LogAddC
  01154	83 c4 10	 add	 esp, 16			; 00000010H

; 372  : 			this->SetState(iChaosCastleIndex, CC_STATE_NONE);

  01157	6a 00		 push	 0
  01159	8b 45 08	 mov	 eax, DWORD PTR _iChaosCastleIndex$[ebp]
  0115c	50		 push	 eax
  0115d	8b 4d f8	 mov	 ecx, DWORD PTR _this$[ebp]
  01160	e8 00 00 00 00	 call	 ?SetState@CChaosCastle@@QAEXHH@Z ; CChaosCastle::SetState

; 373  : 			return;

  01165	eb 4c		 jmp	 SHORT $LN18@CheckSync
$LN4@CheckSync:

; 374  : 
; 375  : 	}
; 376  : 
; 377  : 	this->m_stChaosCastleData[iChaosCastleIndex].m_iCC_TICK_COUNT = GetTickCount();

  01167	ff 15 00 00 00
	00		 call	 DWORD PTR __imp__GetTickCount@0
  0116d	8b 4d 08	 mov	 ecx, DWORD PTR _iChaosCastleIndex$[ebp]
  01170	69 c9 70 08 00
	00		 imul	 ecx, 2160		; 00000870H
  01176	8b 55 f8	 mov	 edx, DWORD PTR _this$[ebp]
  01179	89 44 0a 44	 mov	 DWORD PTR [edx+ecx+68], eax

; 378  : 
; 379  : 	LogAddTD("[Chaos Castle] (%d) Sync Start Time. [%d] min remain (START HOUR:%d, MIN:%d)",
; 380  : 		iChaosCastleIndex+1, this->m_stChaosCastleData[iChaosCastleIndex].m_iCC_REMAIN_MSEC / 60000,
; 381  : 		iMIN_HOUR, iMIN_MINUTE);

  0117d	8b 45 e0	 mov	 eax, DWORD PTR _iMIN_MINUTE$[ebp]
  01180	50		 push	 eax
  01181	8b 4d e4	 mov	 ecx, DWORD PTR _iMIN_HOUR$[ebp]
  01184	51		 push	 ecx
  01185	8b 55 08	 mov	 edx, DWORD PTR _iChaosCastleIndex$[ebp]
  01188	69 d2 70 08 00
	00		 imul	 edx, 2160		; 00000870H
  0118e	8b 45 f8	 mov	 eax, DWORD PTR _this$[ebp]
  01191	8b 44 10 40	 mov	 eax, DWORD PTR [eax+edx+64]
  01195	99		 cdq
  01196	b9 60 ea 00 00	 mov	 ecx, 60000		; 0000ea60H
  0119b	f7 f9		 idiv	 ecx
  0119d	50		 push	 eax
  0119e	8b 55 08	 mov	 edx, DWORD PTR _iChaosCastleIndex$[ebp]
  011a1	83 c2 01	 add	 edx, 1
  011a4	52		 push	 edx
  011a5	68 00 00 00 00	 push	 OFFSET ??_C@_0EN@IGEPIJHA@?$FLChaos?5Castle?$FN?5?$CI?$CFd?$CJ?5Sync?5Start?5T@
  011aa	ff 15 00 00 00
	00		 call	 DWORD PTR ?LogAddTD@@3P6AXPADZZA ; LogAddTD
  011b0	83 c4 14	 add	 esp, 20			; 00000014H
$LN18@CheckSync:

; 382  : }

  011b3	5f		 pop	 edi
  011b4	5e		 pop	 esi
  011b5	5b		 pop	 ebx
  011b6	8b 4d fc	 mov	 ecx, DWORD PTR __$ArrayPad$[ebp]
  011b9	33 cd		 xor	 ecx, ebp
  011bb	e8 00 00 00 00	 call	 @__security_check_cookie@4
  011c0	8b e5		 mov	 esp, ebp
  011c2	5d		 pop	 ebp
  011c3	c2 04 00	 ret	 4
?CheckSync@CChaosCastle@@IAEXH@Z ENDP			; CChaosCastle::CheckSync
; Function compile flags: /Odtp /ZI
_this$ = -4						; size = 4
_iChaosCastleIndex$ = 8					; size = 4
?ProcState_None@CChaosCastle@@IAEXH@Z PROC		; CChaosCastle::ProcState_None
; _this$ = ecx

; 385  : {

  011d0	55		 push	 ebp
  011d1	8b ec		 mov	 ebp, esp
  011d3	83 ec 44	 sub	 esp, 68			; 00000044H
  011d6	53		 push	 ebx
  011d7	56		 push	 esi
  011d8	57		 push	 edi
  011d9	89 4d fc	 mov	 DWORD PTR _this$[ebp], ecx

; 386  : 	return;
; 387  : }

  011dc	5f		 pop	 edi
  011dd	5e		 pop	 esi
  011de	5b		 pop	 ebx
  011df	8b e5		 mov	 esp, ebp
  011e1	5d		 pop	 ebp
  011e2	c2 04 00	 ret	 4
?ProcState_None@CChaosCastle@@IAEXH@Z ENDP		; CChaosCastle::ProcState_None
_TEXT	ENDS
PUBLIC	?SendAllUserAnyMsg@CChaosCastle@@QAEXPAEH@Z	; CChaosCastle::SendAllUserAnyMsg
PUBLIC	__$ArrayPad$
EXTRN	?DataSend@@YAHHPAEK@Z:PROC			; DataSend
EXTRN	?gObj@@3PAUOBJECTSTRUCT@@A:DWORD		; gObj
EXTRN	?PHeadSetB@@YAXPAEEH@Z:PROC			; PHeadSetB
EXTRN	?MakeNoticeMsgEx@TNotice@@SAXPAXEPADZZ:PROC	; TNotice::MakeNoticeMsgEx
EXTRN	?Get@CMsg@@QAEPADH@Z:PROC			; CMsg::Get
EXTRN	?lMsg@@3VCMsg@@A:BYTE				; lMsg
EXTRN	?g_bChaosCastle@@3HA:DWORD			; g_bChaosCastle
; Function compile flags: /Odtp /ZI
_TEXT	SEGMENT
tv259 = -364						; size = 4
tv240 = -364						; size = 4
tv260 = -360						; size = 4
tv241 = -360						; size = 4
_i$236673 = -292					; size = 4
_pMsg$236671 = -288					; size = 4
_pNotice$236667 = -284					; size = 272
_iTICK_MSEC$ = -12					; size = 4
_this$ = -8						; size = 4
__$ArrayPad$ = -4					; size = 4
_iChaosCastleIndex$ = 8					; size = 4
?ProcState_Closed@CChaosCastle@@IAEXH@Z PROC		; CChaosCastle::ProcState_Closed
; _this$ = ecx

; 390  : {

  011f0	55		 push	 ebp
  011f1	8b ec		 mov	 ebp, esp
  011f3	81 ec 6c 01 00
	00		 sub	 esp, 364		; 0000016cH
  011f9	a1 00 00 00 00	 mov	 eax, DWORD PTR ___security_cookie
  011fe	33 c5		 xor	 eax, ebp
  01200	89 45 fc	 mov	 DWORD PTR __$ArrayPad$[ebp], eax
  01203	53		 push	 ebx
  01204	56		 push	 esi
  01205	57		 push	 edi
  01206	89 4d f8	 mov	 DWORD PTR _this$[ebp], ecx

; 391  : 	int iTICK_MSEC = GetTickCount() - this->m_stChaosCastleData[iChaosCastleIndex].m_iCC_TICK_COUNT;

  01209	ff 15 00 00 00
	00		 call	 DWORD PTR __imp__GetTickCount@0
  0120f	8b 4d 08	 mov	 ecx, DWORD PTR _iChaosCastleIndex$[ebp]
  01212	69 c9 70 08 00
	00		 imul	 ecx, 2160		; 00000870H
  01218	8b 55 f8	 mov	 edx, DWORD PTR _this$[ebp]
  0121b	2b 44 0a 44	 sub	 eax, DWORD PTR [edx+ecx+68]
  0121f	89 45 f4	 mov	 DWORD PTR _iTICK_MSEC$[ebp], eax

; 392  : 
; 393  : 	if ( iTICK_MSEC >= 1000 )

  01222	81 7d f4 e8 03
	00 00		 cmp	 DWORD PTR _iTICK_MSEC$[ebp], 1000 ; 000003e8H
  01229	0f 8c b5 03 00
	00		 jl	 $LN16@ProcState_

; 394  : 	{
; 395  : 		this->m_stChaosCastleData[iChaosCastleIndex].m_iCC_REMAIN_MSEC -= iTICK_MSEC;

  0122f	8b 45 08	 mov	 eax, DWORD PTR _iChaosCastleIndex$[ebp]
  01232	69 c0 70 08 00
	00		 imul	 eax, 2160		; 00000870H
  01238	8b 4d f8	 mov	 ecx, DWORD PTR _this$[ebp]
  0123b	8b 54 01 40	 mov	 edx, DWORD PTR [ecx+eax+64]
  0123f	2b 55 f4	 sub	 edx, DWORD PTR _iTICK_MSEC$[ebp]
  01242	8b 45 08	 mov	 eax, DWORD PTR _iChaosCastleIndex$[ebp]
  01245	69 c0 70 08 00
	00		 imul	 eax, 2160		; 00000870H
  0124b	8b 4d f8	 mov	 ecx, DWORD PTR _this$[ebp]
  0124e	89 54 01 40	 mov	 DWORD PTR [ecx+eax+64], edx

; 396  : 		this->m_stChaosCastleData[iChaosCastleIndex].m_iCC_TICK_COUNT = GetTickCount();

  01252	ff 15 00 00 00
	00		 call	 DWORD PTR __imp__GetTickCount@0
  01258	8b 4d 08	 mov	 ecx, DWORD PTR _iChaosCastleIndex$[ebp]
  0125b	69 c9 70 08 00
	00		 imul	 ecx, 2160		; 00000870H
  01261	8b 55 f8	 mov	 edx, DWORD PTR _this$[ebp]
  01264	89 44 0a 44	 mov	 DWORD PTR [edx+ecx+68], eax

; 397  : 
; 398  : 		if ( g_bChaosCastle != FALSE )

  01268	83 3d 00 00 00
	00 00		 cmp	 DWORD PTR ?g_bChaosCastle@@3HA, 0 ; g_bChaosCastle
  0126f	0f 84 6f 03 00
	00		 je	 $LN16@ProcState_

; 399  : 		{
; 400  : 			if ( this->m_stChaosCastleData[iChaosCastleIndex].m_iCC_REMAIN_MSEC <= ( this->m_iCC_TIME_MIN_OPEN * 60 * 1000 ) && this->m_stChaosCastleData[iChaosCastleIndex].m_bCC_CAN_ENTER == false)

  01275	8b 45 08	 mov	 eax, DWORD PTR _iChaosCastleIndex$[ebp]
  01278	69 c0 70 08 00
	00		 imul	 eax, 2160		; 00000870H
  0127e	8b 4d f8	 mov	 ecx, DWORD PTR _this$[ebp]
  01281	8b 51 08	 mov	 edx, DWORD PTR [ecx+8]
  01284	6b d2 3c	 imul	 edx, 60			; 0000003cH
  01287	69 d2 e8 03 00
	00		 imul	 edx, 1000		; 000003e8H
  0128d	8b 4d f8	 mov	 ecx, DWORD PTR _this$[ebp]
  01290	39 54 01 40	 cmp	 DWORD PTR [ecx+eax+64], edx
  01294	7f 37		 jg	 SHORT $LN14@ProcState_
  01296	8b 45 08	 mov	 eax, DWORD PTR _iChaosCastleIndex$[ebp]
  01299	69 c0 70 08 00
	00		 imul	 eax, 2160		; 00000870H
  0129f	8b 4d f8	 mov	 ecx, DWORD PTR _this$[ebp]
  012a2	0f b6 54 01 4c	 movzx	 edx, BYTE PTR [ecx+eax+76]
  012a7	85 d2		 test	 edx, edx
  012a9	75 22		 jne	 SHORT $LN14@ProcState_

; 401  : 			{
; 402  : 				this->m_stChaosCastleData[iChaosCastleIndex].m_bCC_CAN_ENTER = true;

  012ab	8b 45 08	 mov	 eax, DWORD PTR _iChaosCastleIndex$[ebp]
  012ae	69 c0 70 08 00
	00		 imul	 eax, 2160		; 00000870H
  012b4	8b 4d f8	 mov	 ecx, DWORD PTR _this$[ebp]
  012b7	c6 44 01 4c 01	 mov	 BYTE PTR [ecx+eax+76], 1

; 403  : 				this->m_stChaosCastleData[iChaosCastleIndex].m_bCC_CAN_PARTY = true;

  012bc	8b 45 08	 mov	 eax, DWORD PTR _iChaosCastleIndex$[ebp]
  012bf	69 c0 70 08 00
	00		 imul	 eax, 2160		; 00000870H
  012c5	8b 4d f8	 mov	 ecx, DWORD PTR _this$[ebp]
  012c8	c6 44 01 4d 01	 mov	 BYTE PTR [ecx+eax+77], 1
$LN14@ProcState_:

; 404  : 			}
; 405  : 
; 406  : 			if ( this->m_stChaosCastleData[iChaosCastleIndex].m_iCC_REMAIN_MSEC <= ( this->m_iCC_TIME_MIN_OPEN * 60 * 1000 ) && this->m_stChaosCastleData[iChaosCastleIndex].m_iCC_REMAIN_MSEC > 0 && (this->m_stChaosCastleData[iChaosCastleIndex].m_iCC_REMAIN_MSEC/60000) !=this->m_stChaosCastleData[iChaosCastleIndex].m_iCC_NOTIFY_COUNT)

  012cd	8b 45 08	 mov	 eax, DWORD PTR _iChaosCastleIndex$[ebp]
  012d0	69 c0 70 08 00
	00		 imul	 eax, 2160		; 00000870H
  012d6	8b 4d f8	 mov	 ecx, DWORD PTR _this$[ebp]
  012d9	8b 51 08	 mov	 edx, DWORD PTR [ecx+8]
  012dc	6b d2 3c	 imul	 edx, 60			; 0000003cH
  012df	69 d2 e8 03 00
	00		 imul	 edx, 1000		; 000003e8H
  012e5	8b 4d f8	 mov	 ecx, DWORD PTR _this$[ebp]
  012e8	39 54 01 40	 cmp	 DWORD PTR [ecx+eax+64], edx
  012ec	0f 8f bb 00 00
	00		 jg	 $LN13@ProcState_
  012f2	8b 45 08	 mov	 eax, DWORD PTR _iChaosCastleIndex$[ebp]
  012f5	69 c0 70 08 00
	00		 imul	 eax, 2160		; 00000870H
  012fb	8b 4d f8	 mov	 ecx, DWORD PTR _this$[ebp]
  012fe	83 7c 01 40 00	 cmp	 DWORD PTR [ecx+eax+64], 0
  01303	0f 8e a4 00 00
	00		 jle	 $LN13@ProcState_
  01309	8b 45 08	 mov	 eax, DWORD PTR _iChaosCastleIndex$[ebp]
  0130c	69 c0 70 08 00
	00		 imul	 eax, 2160		; 00000870H
  01312	8b 4d f8	 mov	 ecx, DWORD PTR _this$[ebp]
  01315	8b 44 01 40	 mov	 eax, DWORD PTR [ecx+eax+64]
  01319	99		 cdq
  0131a	b9 60 ea 00 00	 mov	 ecx, 60000		; 0000ea60H
  0131f	f7 f9		 idiv	 ecx
  01321	8b 55 08	 mov	 edx, DWORD PTR _iChaosCastleIndex$[ebp]
  01324	69 d2 70 08 00
	00		 imul	 edx, 2160		; 00000870H
  0132a	8b 4d f8	 mov	 ecx, DWORD PTR _this$[ebp]
  0132d	3b 44 11 48	 cmp	 eax, DWORD PTR [ecx+edx+72]
  01331	74 7a		 je	 SHORT $LN13@ProcState_

; 407  : 			{
; 408  : 				this->m_stChaosCastleData[iChaosCastleIndex].m_iCC_NOTIFY_COUNT = this->m_stChaosCastleData[iChaosCastleIndex].m_iCC_REMAIN_MSEC / 60000;

  01333	8b 45 08	 mov	 eax, DWORD PTR _iChaosCastleIndex$[ebp]
  01336	69 c0 70 08 00
	00		 imul	 eax, 2160		; 00000870H
  0133c	8b 4d f8	 mov	 ecx, DWORD PTR _this$[ebp]
  0133f	8b 44 01 40	 mov	 eax, DWORD PTR [ecx+eax+64]
  01343	99		 cdq
  01344	b9 60 ea 00 00	 mov	 ecx, 60000		; 0000ea60H
  01349	f7 f9		 idiv	 ecx
  0134b	8b 55 08	 mov	 edx, DWORD PTR _iChaosCastleIndex$[ebp]
  0134e	69 d2 70 08 00
	00		 imul	 edx, 2160		; 00000870H
  01354	8b 4d f8	 mov	 ecx, DWORD PTR _this$[ebp]
  01357	89 44 11 48	 mov	 DWORD PTR [ecx+edx+72], eax

; 409  : 
; 410  : 				if ( iChaosCastleIndex == 0 )

  0135b	83 7d 08 00	 cmp	 DWORD PTR _iChaosCastleIndex$[ebp], 0
  0135f	75 4c		 jne	 SHORT $LN13@ProcState_

; 411  : 				{
; 412  : 					PMSG_NOTICE pNotice;
; 413  : 
; 414  : 					TNotice::MakeNoticeMsgEx(&pNotice, 0, lMsg.Get( MSGGET(4, 208)), this->m_stChaosCastleData[iChaosCastleIndex].m_iCC_NOTIFY_COUNT+1);

  01361	8b 45 08	 mov	 eax, DWORD PTR _iChaosCastleIndex$[ebp]
  01364	69 c0 70 08 00
	00		 imul	 eax, 2160		; 00000870H
  0136a	8b 4d f8	 mov	 ecx, DWORD PTR _this$[ebp]
  0136d	8b 54 01 48	 mov	 edx, DWORD PTR [ecx+eax+72]
  01371	83 c2 01	 add	 edx, 1
  01374	52		 push	 edx
  01375	68 d0 04 00 00	 push	 1232			; 000004d0H
  0137a	b9 00 00 00 00	 mov	 ecx, OFFSET ?lMsg@@3VCMsg@@A ; lMsg
  0137f	e8 00 00 00 00	 call	 ?Get@CMsg@@QAEPADH@Z	; CMsg::Get
  01384	50		 push	 eax
  01385	6a 00		 push	 0
  01387	8d 85 e4 fe ff
	ff		 lea	 eax, DWORD PTR _pNotice$236667[ebp]
  0138d	50		 push	 eax
  0138e	e8 00 00 00 00	 call	 ?MakeNoticeMsgEx@TNotice@@SAXPAXEPADZZ ; TNotice::MakeNoticeMsgEx
  01393	83 c4 10	 add	 esp, 16			; 00000010H

; 415  : 					this->SendAllUserAnyMsg( (LPBYTE)&pNotice, pNotice.h.size);

  01396	0f b6 85 e5 fe
	ff ff		 movzx	 eax, BYTE PTR _pNotice$236667[ebp+1]
  0139d	50		 push	 eax
  0139e	8d 8d e4 fe ff
	ff		 lea	 ecx, DWORD PTR _pNotice$236667[ebp]
  013a4	51		 push	 ecx
  013a5	8b 4d f8	 mov	 ecx, DWORD PTR _this$[ebp]
  013a8	e8 00 00 00 00	 call	 ?SendAllUserAnyMsg@CChaosCastle@@QAEXPAEH@Z ; CChaosCastle::SendAllUserAnyMsg
$LN13@ProcState_:

; 416  : 				}
; 417  : 			}
; 418  : 
; 419  : 			if ( this->m_stChaosCastleData[iChaosCastleIndex].m_iCC_REMAIN_MSEC <= 30000 && this->m_stChaosCastleData[iChaosCastleIndex].m_iCC_REMAIN_MSEC > 0 && this->m_stChaosCastleData[iChaosCastleIndex].m_bCC_MSG_BEFORE_ENTER == false )

  013ad	8b 45 08	 mov	 eax, DWORD PTR _iChaosCastleIndex$[ebp]
  013b0	69 c0 70 08 00
	00		 imul	 eax, 2160		; 00000870H
  013b6	8b 4d f8	 mov	 ecx, DWORD PTR _this$[ebp]
  013b9	81 7c 01 40 30
	75 00 00	 cmp	 DWORD PTR [ecx+eax+64], 30000 ; 00007530H
  013c1	0f 8f 1d 02 00
	00		 jg	 $LN16@ProcState_
  013c7	8b 45 08	 mov	 eax, DWORD PTR _iChaosCastleIndex$[ebp]
  013ca	69 c0 70 08 00
	00		 imul	 eax, 2160		; 00000870H
  013d0	8b 4d f8	 mov	 ecx, DWORD PTR _this$[ebp]
  013d3	83 7c 01 40 00	 cmp	 DWORD PTR [ecx+eax+64], 0
  013d8	0f 8e 06 02 00
	00		 jle	 $LN16@ProcState_
  013de	8b 45 08	 mov	 eax, DWORD PTR _iChaosCastleIndex$[ebp]
  013e1	69 c0 70 08 00
	00		 imul	 eax, 2160		; 00000870H
  013e7	8b 4d f8	 mov	 ecx, DWORD PTR _this$[ebp]
  013ea	0f b6 54 01 4f	 movzx	 edx, BYTE PTR [ecx+eax+79]
  013ef	85 d2		 test	 edx, edx
  013f1	0f 85 ed 01 00
	00		 jne	 $LN16@ProcState_

; 420  : 			{
; 421  : 				this->m_stChaosCastleData[iChaosCastleIndex].m_bCC_MSG_BEFORE_ENTER = true;

  013f7	8b 45 08	 mov	 eax, DWORD PTR _iChaosCastleIndex$[ebp]
  013fa	69 c0 70 08 00
	00		 imul	 eax, 2160		; 00000870H
  01400	8b 4d f8	 mov	 ecx, DWORD PTR _this$[ebp]
  01403	c6 44 01 4f 01	 mov	 BYTE PTR [ecx+eax+79], 1

; 422  : 
; 423  : 				if ( iChaosCastleIndex == 0 )

  01408	83 7d 08 00	 cmp	 DWORD PTR _iChaosCastleIndex$[ebp], 0
  0140c	0f 85 d2 01 00
	00		 jne	 $LN16@ProcState_

; 424  : 				{
; 425  : 					PMSG_SET_DEVILSQUARE pMsg;
; 426  : 
; 427  : 					PHeadSetB((LPBYTE)&pMsg, 0x92, sizeof(pMsg));

  01412	6a 04		 push	 4
  01414	68 92 00 00 00	 push	 146			; 00000092H
  01419	8d 85 e0 fe ff
	ff		 lea	 eax, DWORD PTR _pMsg$236671[ebp]
  0141f	50		 push	 eax
  01420	e8 00 00 00 00	 call	 ?PHeadSetB@@YAXPAEEH@Z	; PHeadSetB
  01425	83 c4 0c	 add	 esp, 12			; 0000000cH

; 428  : 					pMsg.Type = 10;

  01428	c6 85 e3 fe ff
	ff 0a		 mov	 BYTE PTR _pMsg$236671[ebp+3], 10 ; 0000000aH

; 429  : 
; 430  : 					for (int i= OBJ_STARTUSERINDEX;i<OBJMAX;i++)

  0142f	c7 85 dc fe ff
	ff b0 36 00 00	 mov	 DWORD PTR _i$236673[ebp], 14000 ; 000036b0H
  01439	eb 0f		 jmp	 SHORT $LN9@ProcState_
$LN8@ProcState_:
  0143b	8b 85 dc fe ff
	ff		 mov	 eax, DWORD PTR _i$236673[ebp]
  01441	83 c0 01	 add	 eax, 1
  01444	89 85 dc fe ff
	ff		 mov	 DWORD PTR _i$236673[ebp], eax
$LN9@ProcState_:
  0144a	81 bd dc fe ff
	ff 98 3a 00 00	 cmp	 DWORD PTR _i$236673[ebp], 15000 ; 00003a98H
  01454	0f 8d 8a 01 00
	00		 jge	 $LN16@ProcState_

; 431  : 					{
; 432  : 						if ( gObj[i].Connected == PLAYER_PLAYING && gObj[i].Type == OBJ_USER)

  0145a	8b 85 dc fe ff
	ff		 mov	 eax, DWORD PTR _i$236673[ebp]
  01460	69 c0 38 2b 00
	00		 imul	 eax, 11064		; 00002b38H
  01466	8b 0d 00 00 00
	00		 mov	 ecx, DWORD PTR ?gObj@@3PAUOBJECTSTRUCT@@A ; gObj
  0146c	83 7c 01 04 03	 cmp	 DWORD PTR [ecx+eax+4], 3
  01471	0f 85 68 01 00
	00		 jne	 $LN6@ProcState_
  01477	8b 85 dc fe ff
	ff		 mov	 eax, DWORD PTR _i$236673[ebp]
  0147d	69 c0 38 2b 00
	00		 imul	 eax, 11064		; 00002b38H
  01483	8b 0d 00 00 00
	00		 mov	 ecx, DWORD PTR ?gObj@@3PAUOBJECTSTRUCT@@A ; gObj
  01489	0f b7 54 01 68	 movzx	 edx, WORD PTR [ecx+eax+104]
  0148e	83 fa 01	 cmp	 edx, 1
  01491	0f 85 48 01 00
	00		 jne	 $LN6@ProcState_

; 433  : 						{
; 434  : 							if ( CC_MAP_RANGE(gObj[i].MapNumber) == FALSE )

  01497	8b 85 dc fe ff
	ff		 mov	 eax, DWORD PTR _i$236673[ebp]
  0149d	69 c0 38 2b 00
	00		 imul	 eax, 11064		; 00002b38H
  014a3	8b 0d 00 00 00
	00		 mov	 ecx, DWORD PTR ?gObj@@3PAUOBJECTSTRUCT@@A ; gObj
  014a9	0f b6 94 01 49
	01 00 00	 movzx	 edx, BYTE PTR [ecx+eax+329]
  014b1	83 fa 35	 cmp	 edx, 53			; 00000035H
  014b4	75 0c		 jne	 SHORT $LN21@ProcState_
  014b6	c7 85 98 fe ff
	ff 01 00 00 00	 mov	 DWORD PTR tv241[ebp], 1
  014c0	eb 5f		 jmp	 SHORT $LN22@ProcState_
$LN21@ProcState_:
  014c2	8b 85 dc fe ff
	ff		 mov	 eax, DWORD PTR _i$236673[ebp]
  014c8	69 c0 38 2b 00
	00		 imul	 eax, 11064		; 00002b38H
  014ce	8b 0d 00 00 00
	00		 mov	 ecx, DWORD PTR ?gObj@@3PAUOBJECTSTRUCT@@A ; gObj
  014d4	0f b6 94 01 49
	01 00 00	 movzx	 edx, BYTE PTR [ecx+eax+329]
  014dc	83 fa 12	 cmp	 edx, 18			; 00000012H
  014df	7d 0c		 jge	 SHORT $LN19@ProcState_
  014e1	c7 85 94 fe ff
	ff 00 00 00 00	 mov	 DWORD PTR tv240[ebp], 0
  014eb	eb 28		 jmp	 SHORT $LN20@ProcState_
$LN19@ProcState_:
  014ed	8b 85 dc fe ff
	ff		 mov	 eax, DWORD PTR _i$236673[ebp]
  014f3	69 c0 38 2b 00
	00		 imul	 eax, 11064		; 00002b38H
  014f9	8b 0d 00 00 00
	00		 mov	 ecx, DWORD PTR ?gObj@@3PAUOBJECTSTRUCT@@A ; gObj
  014ff	0f b6 94 01 49
	01 00 00	 movzx	 edx, BYTE PTR [ecx+eax+329]
  01507	33 c0		 xor	 eax, eax
  01509	83 fa 17	 cmp	 edx, 23			; 00000017H
  0150c	0f 9e c0	 setle	 al
  0150f	89 85 94 fe ff
	ff		 mov	 DWORD PTR tv240[ebp], eax
$LN20@ProcState_:
  01515	8b 8d 94 fe ff
	ff		 mov	 ecx, DWORD PTR tv240[ebp]
  0151b	89 8d 98 fe ff
	ff		 mov	 DWORD PTR tv241[ebp], ecx
$LN22@ProcState_:
  01521	83 bd 98 fe ff
	ff 00		 cmp	 DWORD PTR tv241[ebp], 0
  01528	0f 85 b1 00 00
	00		 jne	 $LN6@ProcState_

; 435  : 							{
; 436  : 								if ( BC_MAP_RANGE(gObj[i].MapNumber) == FALSE )

  0152e	8b 85 dc fe ff
	ff		 mov	 eax, DWORD PTR _i$236673[ebp]
  01534	69 c0 38 2b 00
	00		 imul	 eax, 11064		; 00002b38H
  0153a	8b 0d 00 00 00
	00		 mov	 ecx, DWORD PTR ?gObj@@3PAUOBJECTSTRUCT@@A ; gObj
  01540	0f b6 94 01 49
	01 00 00	 movzx	 edx, BYTE PTR [ecx+eax+329]
  01548	83 fa 34	 cmp	 edx, 52			; 00000034H
  0154b	75 0c		 jne	 SHORT $LN25@ProcState_
  0154d	c7 85 98 fe ff
	ff 01 00 00 00	 mov	 DWORD PTR tv260[ebp], 1
  01557	eb 5f		 jmp	 SHORT $LN26@ProcState_
$LN25@ProcState_:
  01559	8b 85 dc fe ff
	ff		 mov	 eax, DWORD PTR _i$236673[ebp]
  0155f	69 c0 38 2b 00
	00		 imul	 eax, 11064		; 00002b38H
  01565	8b 0d 00 00 00
	00		 mov	 ecx, DWORD PTR ?gObj@@3PAUOBJECTSTRUCT@@A ; gObj
  0156b	0f b6 94 01 49
	01 00 00	 movzx	 edx, BYTE PTR [ecx+eax+329]
  01573	83 fa 0b	 cmp	 edx, 11			; 0000000bH
  01576	7d 0c		 jge	 SHORT $LN23@ProcState_
  01578	c7 85 94 fe ff
	ff 00 00 00 00	 mov	 DWORD PTR tv259[ebp], 0
  01582	eb 28		 jmp	 SHORT $LN24@ProcState_
$LN23@ProcState_:
  01584	8b 85 dc fe ff
	ff		 mov	 eax, DWORD PTR _i$236673[ebp]
  0158a	69 c0 38 2b 00
	00		 imul	 eax, 11064		; 00002b38H
  01590	8b 0d 00 00 00
	00		 mov	 ecx, DWORD PTR ?gObj@@3PAUOBJECTSTRUCT@@A ; gObj
  01596	0f b6 94 01 49
	01 00 00	 movzx	 edx, BYTE PTR [ecx+eax+329]
  0159e	33 c0		 xor	 eax, eax
  015a0	83 fa 11	 cmp	 edx, 17			; 00000011H
  015a3	0f 9e c0	 setle	 al
  015a6	89 85 94 fe ff
	ff		 mov	 DWORD PTR tv259[ebp], eax
$LN24@ProcState_:
  015ac	8b 8d 94 fe ff
	ff		 mov	 ecx, DWORD PTR tv259[ebp]
  015b2	89 8d 98 fe ff
	ff		 mov	 DWORD PTR tv260[ebp], ecx
$LN26@ProcState_:
  015b8	83 bd 98 fe ff
	ff 00		 cmp	 DWORD PTR tv260[ebp], 0
  015bf	75 1e		 jne	 SHORT $LN6@ProcState_

; 437  : 								{
; 438  : 									DataSend(i, (LPBYTE)&pMsg, pMsg.h.size);

  015c1	0f b6 85 e1 fe
	ff ff		 movzx	 eax, BYTE PTR _pMsg$236671[ebp+1]
  015c8	50		 push	 eax
  015c9	8d 8d e0 fe ff
	ff		 lea	 ecx, DWORD PTR _pMsg$236671[ebp]
  015cf	51		 push	 ecx
  015d0	8b 95 dc fe ff
	ff		 mov	 edx, DWORD PTR _i$236673[ebp]
  015d6	52		 push	 edx
  015d7	e8 00 00 00 00	 call	 ?DataSend@@YAHHPAEK@Z	; DataSend
  015dc	83 c4 0c	 add	 esp, 12			; 0000000cH
$LN6@ProcState_:

; 439  : 								}
; 440  : 							}
; 441  : 						}
; 442  : 					}

  015df	e9 57 fe ff ff	 jmp	 $LN8@ProcState_
$LN16@ProcState_:

; 443  : 				}
; 444  : 			}
; 445  : 		}
; 446  : 	}
; 447  : 
; 448  : 	if ( this->m_stChaosCastleData[iChaosCastleIndex].m_iCC_REMAIN_MSEC <= 0 )

  015e4	8b 45 08	 mov	 eax, DWORD PTR _iChaosCastleIndex$[ebp]
  015e7	69 c0 70 08 00
	00		 imul	 eax, 2160		; 00000870H
  015ed	8b 4d f8	 mov	 ecx, DWORD PTR _this$[ebp]
  015f0	83 7c 01 40 00	 cmp	 DWORD PTR [ecx+eax+64], 0
  015f5	7f 27		 jg	 SHORT $LN17@ProcState_

; 449  : 	{
; 450  : 		if ( g_bChaosCastle != FALSE )

  015f7	83 3d 00 00 00
	00 00		 cmp	 DWORD PTR ?g_bChaosCastle@@3HA, 0 ; g_bChaosCastle
  015fe	74 10		 je	 SHORT $LN2@ProcState_

; 451  : 		{
; 452  : 			this->SetState(iChaosCastleIndex, CC_STATE_PLAYING);

  01600	6a 02		 push	 2
  01602	8b 45 08	 mov	 eax, DWORD PTR _iChaosCastleIndex$[ebp]
  01605	50		 push	 eax
  01606	8b 4d f8	 mov	 ecx, DWORD PTR _this$[ebp]
  01609	e8 00 00 00 00	 call	 ?SetState@CChaosCastle@@QAEXHH@Z ; CChaosCastle::SetState

; 453  : 		}
; 454  : 		else

  0160e	eb 0e		 jmp	 SHORT $LN17@ProcState_
$LN2@ProcState_:

; 455  : 		{
; 456  : 			this->SetState(iChaosCastleIndex, CC_STATE_CLOSED);

  01610	6a 01		 push	 1
  01612	8b 45 08	 mov	 eax, DWORD PTR _iChaosCastleIndex$[ebp]
  01615	50		 push	 eax
  01616	8b 4d f8	 mov	 ecx, DWORD PTR _this$[ebp]
  01619	e8 00 00 00 00	 call	 ?SetState@CChaosCastle@@QAEXHH@Z ; CChaosCastle::SetState
$LN17@ProcState_:

; 457  : 		}
; 458  : 	}
; 459  : }

  0161e	5f		 pop	 edi
  0161f	5e		 pop	 esi
  01620	5b		 pop	 ebx
  01621	8b 4d fc	 mov	 ecx, DWORD PTR __$ArrayPad$[ebp]
  01624	33 cd		 xor	 ecx, ebp
  01626	e8 00 00 00 00	 call	 @__security_check_cookie@4
  0162b	8b e5		 mov	 esp, ebp
  0162d	5d		 pop	 ebp
  0162e	c2 04 00	 ret	 4
?ProcState_Closed@CChaosCastle@@IAEXH@Z ENDP		; CChaosCastle::ProcState_Closed
_TEXT	ENDS
PUBLIC	??_C@_0DM@ENGGGAC@?$FLChaos?5Castle?$FN?$FLBug?5Tracer?$FN?5?$CI?$CFd?$CJ?5@ ; `string'
PUBLIC	__real@0000000000000000
PUBLIC	?GetCurrentState@CChaosCastle@@QAEHH@Z		; CChaosCastle::GetCurrentState
PUBLIC	??_C@_0EC@CDMJLAJE@?$FLChaos?5Castle?$FN?5?$CI?$CFd?$CJ?5is?5Over?5?3?5TI@ ; `string'
PUBLIC	?SendAllLoserFailMessage@CChaosCastle@@QAEXHH@Z	; CChaosCastle::SendAllLoserFailMessage
PUBLIC	??_C@_0DG@DNCOEMLJ@?$FLChaos?5Castle?$FN?5?$CI?$CFd?$CJ?5Has?5No?5Winne@ ; `string'
PUBLIC	??_C@_0CD@JOONMNFN@?$FLChaos?5Castle?$FN?5?$CI?$CFd?$CJ?5Has?5No?5Winne@ ; `string'
PUBLIC	?GiveWinnerItem@CChaosCastle@@QAEXHH@Z		; CChaosCastle::GiveWinnerItem
PUBLIC	?SendWinMessage@CChaosCastle@@QAEXHH@Z		; CChaosCastle::SendWinMessage
PUBLIC	??_C@_0KB@EOIGCIIB@?$FLChaos?5Castle?$FN?5?$CI?$CFd?$CJ?5?$FL?$CFs?$FN?$FL?$CFs?$FN?5is?5@ ; `string'
PUBLIC	?GetCurrentWinUser@CChaosCastle@@QAEHH@Z	; CChaosCastle::GetCurrentWinUser
PUBLIC	?GetMonsterListCount@CChaosCastle@@QAEHH@Z	; CChaosCastle::GetMonsterListCount
PUBLIC	?CheckPlayEnded@CChaosCastle@@QAEHH@Z		; CChaosCastle::CheckPlayEnded
PUBLIC	?PullObjInnerPlace@CChaosCastle@@QAEXHH@Z	; CChaosCastle::PullObjInnerPlace
PUBLIC	?SetMapAttrHollow@CChaosCastle@@QAEXHH@Z	; CChaosCastle::SetMapAttrHollow
PUBLIC	?ProcessTrapStatus@CChaosCastle@@QAEXH@Z	; CChaosCastle::ProcessTrapStatus
PUBLIC	?CheckMonsterInDieTile@CChaosCastle@@QAEXH@Z	; CChaosCastle::CheckMonsterInDieTile
PUBLIC	?CheckUserInDieTile@CChaosCastle@@QAEXH@Z	; CChaosCastle::CheckUserInDieTile
PUBLIC	?ProcessFallUser@CChaosCastle@@QAEXH@Z		; CChaosCastle::ProcessFallUser
PUBLIC	??_C@_0DI@NBGGDBDE@?$FLChaos?5Castle?$FN?5?$CI?$CFd?$CJ?5Chaos?5Castle@ ; `string'
PUBLIC	??_C@_0DM@PFNIGNGP@?$FLChaos?5Castle?$FN?5?$CI?$CFd?$CJ?5Chaos?5Castle@ ; `string'
PUBLIC	?GetCurPlayUser@CChaosCastle@@QAEHH@Z		; CChaosCastle::GetCurPlayUser
PUBLIC	?SendNoticeState@CChaosCastle@@QAEXHH@Z		; CChaosCastle::SendNoticeState
PUBLIC	?SetItemsToMonster@CChaosCastle@@QAEXH@Z	; CChaosCastle::SetItemsToMonster
PUBLIC	?SetMonster@CChaosCastle@@QAEHH@Z		; CChaosCastle::SetMonster
PUBLIC	?ReCalcUserCount@CChaosCastle@@QAEHH@Z		; CChaosCastle::ReCalcUserCount
PUBLIC	?SendCastleZoneSafetyInfo@CChaosCastle@@QAEXH_N@Z ; CChaosCastle::SendCastleZoneSafetyInfo
PUBLIC	?UnSafetyCastleZone@CChaosCastle@@QAEXH@Z	; CChaosCastle::UnSafetyCastleZone
PUBLIC	?SendChaosCastleAnyMsg@CChaosCastle@@QAEXPAEHH@Z ; CChaosCastle::SendChaosCastleAnyMsg
PUBLIC	__$ArrayPad$
;	COMDAT ??_C@_0DM@ENGGGAC@?$FLChaos?5Castle?$FN?$FLBug?5Tracer?$FN?5?$CI?$CFd?$CJ?5@
CONST	SEGMENT
??_C@_0DM@ENGGGAC@?$FLChaos?5Castle?$FN?$FLBug?5Tracer?$FN?5?$CI?$CFd?$CJ?5@ DB '['
	DB	'Chaos Castle][Bug Tracer] (%d) Left Monster AttrInfo %d/%d', 00H ; `string'
CONST	ENDS
;	COMDAT __real@0000000000000000
CONST	SEGMENT
__real@0000000000000000 DQ 00000000000000000r	; 0
CONST	ENDS
;	COMDAT ??_C@_0EC@CDMJLAJE@?$FLChaos?5Castle?$FN?5?$CI?$CFd?$CJ?5is?5Over?5?3?5TI@
CONST	SEGMENT
??_C@_0EC@CDMJLAJE@?$FLChaos?5Castle?$FN?5?$CI?$CFd?$CJ?5is?5Over?5?3?5TI@ DB '['
	DB	'Chaos Castle] (%d) is Over : TIME-OUT (Left User:%d, Monster:'
	DB	'%d)', 00H					; `string'
CONST	ENDS
;	COMDAT ??_C@_0DG@DNCOEMLJ@?$FLChaos?5Castle?$FN?5?$CI?$CFd?$CJ?5Has?5No?5Winne@
CONST	SEGMENT
??_C@_0DG@DNCOEMLJ@?$FLChaos?5Castle?$FN?5?$CI?$CFd?$CJ?5Has?5No?5Winne@ DB '['
	DB	'Chaos Castle] (%d) Has No Winner : Monster Left (%d)', 00H ; `string'
CONST	ENDS
;	COMDAT ??_C@_0CD@JOONMNFN@?$FLChaos?5Castle?$FN?5?$CI?$CFd?$CJ?5Has?5No?5Winne@
CONST	SEGMENT
??_C@_0CD@JOONMNFN@?$FLChaos?5Castle?$FN?5?$CI?$CFd?$CJ?5Has?5No?5Winne@ DB '['
	DB	'Chaos Castle] (%d) Has No Winner.', 00H	; `string'
CONST	ENDS
;	COMDAT ??_C@_0KB@EOIGCIIB@?$FLChaos?5Castle?$FN?5?$CI?$CFd?$CJ?5?$FL?$CFs?$FN?$FL?$CFs?$FN?5is?5@
CONST	SEGMENT
??_C@_0KB@EOIGCIIB@?$FLChaos?5Castle?$FN?5?$CI?$CFd?$CJ?5?$FL?$CFs?$FN?$FL?$CFs?$FN?5is?5@ DB '['
	DB	'Chaos Castle] (%d) [%s][%s] is Winner. [CharInfoSave : Class='
	DB	'%d, Level=%d, LvPoint=%d, Exp=%d, Str=%d, Dex=%d, Vit=%d, Ene'
	DB	'rgy=%d, LeaderShip=%d, Map=%d, Pk=%d]', 00H	; `string'
CONST	ENDS
;	COMDAT ??_C@_0DI@NBGGDBDE@?$FLChaos?5Castle?$FN?5?$CI?$CFd?$CJ?5Chaos?5Castle@
CONST	SEGMENT
??_C@_0DI@NBGGDBDE@?$FLChaos?5Castle?$FN?5?$CI?$CFd?$CJ?5Chaos?5Castle@ DB '['
	DB	'Chaos Castle] (%d) Chaos Castle Quest Closed - No User', 00H ; `string'
CONST	ENDS
;	COMDAT ??_C@_0DM@PFNIGNGP@?$FLChaos?5Castle?$FN?5?$CI?$CFd?$CJ?5Chaos?5Castle@
CONST	SEGMENT
??_C@_0DM@PFNIGNGP@?$FLChaos?5Castle?$FN?5?$CI?$CFd?$CJ?5Chaos?5Castle@ DB '['
	DB	'Chaos Castle] (%d) Chaos Castle Quest Start (UserCount:%d)', 00H ; `string'
; Function compile flags: /Odtp /ZI
CONST	ENDS
_TEXT	SEGMENT
tv666 = -404						; size = 4
tv667 = -400						; size = 4
tv637 = -400						; size = 4
_CC_MONSTER_COUNT$236758 = -332				; size = 4
_i$236753 = -328					; size = 4
_iMonsterCount$236747 = -324				; size = 4
_iWinnerIndex$236746 = -320				; size = 4
_iMonsterCount$236738 = -316				; size = 4
_iWinnerIndex$236737 = -312				; size = 4
_iMonsterCount$236728 = -308				; size = 4
_iWinnerIndex$236727 = -304				; size = 4
_bPlayEnded$236725 = -300				; size = 4
_iCurPlayUser$236720 = -296				; size = 4
_pNotice$236715 = -292					; size = 272
_pMsg$236711 = -20					; size = 4
_pMsg$236707 = -16					; size = 4
_iTICK_MSEC$ = -12					; size = 4
_this$ = -8						; size = 4
__$ArrayPad$ = -4					; size = 4
_iChaosCastleIndex$ = 8					; size = 4
?ProcState_Playing@CChaosCastle@@IAEXH@Z PROC		; CChaosCastle::ProcState_Playing
; _this$ = ecx

; 462  : {

  01640	55		 push	 ebp
  01641	8b ec		 mov	 ebp, esp
  01643	81 ec 94 01 00
	00		 sub	 esp, 404		; 00000194H
  01649	a1 00 00 00 00	 mov	 eax, DWORD PTR ___security_cookie
  0164e	33 c5		 xor	 eax, ebp
  01650	89 45 fc	 mov	 DWORD PTR __$ArrayPad$[ebp], eax
  01653	53		 push	 ebx
  01654	56		 push	 esi
  01655	57		 push	 edi
  01656	89 4d f8	 mov	 DWORD PTR _this$[ebp], ecx

; 463  : 	int iTICK_MSEC = GetTickCount() - this->m_stChaosCastleData[iChaosCastleIndex].m_iCC_TICK_COUNT;

  01659	ff 15 00 00 00
	00		 call	 DWORD PTR __imp__GetTickCount@0
  0165f	8b 4d 08	 mov	 ecx, DWORD PTR _iChaosCastleIndex$[ebp]
  01662	69 c9 70 08 00
	00		 imul	 ecx, 2160		; 00000870H
  01668	8b 55 f8	 mov	 edx, DWORD PTR _this$[ebp]
  0166b	2b 44 0a 44	 sub	 eax, DWORD PTR [edx+ecx+68]
  0166f	89 45 f4	 mov	 DWORD PTR _iTICK_MSEC$[ebp], eax

; 464  : 
; 465  : 	if ( iTICK_MSEC >= 1000 )

  01672	81 7d f4 e8 03
	00 00		 cmp	 DWORD PTR _iTICK_MSEC$[ebp], 1000 ; 000003e8H
  01679	0f 8c 87 08 00
	00		 jl	 $LN16@ProcState_@2

; 466  : 	{
; 467  : 		this->m_stChaosCastleData[iChaosCastleIndex].m_iCC_REMAIN_MSEC -= iTICK_MSEC;

  0167f	8b 45 08	 mov	 eax, DWORD PTR _iChaosCastleIndex$[ebp]
  01682	69 c0 70 08 00
	00		 imul	 eax, 2160		; 00000870H
  01688	8b 4d f8	 mov	 ecx, DWORD PTR _this$[ebp]
  0168b	8b 54 01 40	 mov	 edx, DWORD PTR [ecx+eax+64]
  0168f	2b 55 f4	 sub	 edx, DWORD PTR _iTICK_MSEC$[ebp]
  01692	8b 45 08	 mov	 eax, DWORD PTR _iChaosCastleIndex$[ebp]
  01695	69 c0 70 08 00
	00		 imul	 eax, 2160		; 00000870H
  0169b	8b 4d f8	 mov	 ecx, DWORD PTR _this$[ebp]
  0169e	89 54 01 40	 mov	 DWORD PTR [ecx+eax+64], edx

; 468  : 		this->m_stChaosCastleData[iChaosCastleIndex].m_iCC_TICK_COUNT = GetTickCount();

  016a2	ff 15 00 00 00
	00		 call	 DWORD PTR __imp__GetTickCount@0
  016a8	8b 4d 08	 mov	 ecx, DWORD PTR _iChaosCastleIndex$[ebp]
  016ab	69 c9 70 08 00
	00		 imul	 ecx, 2160		; 00000870H
  016b1	8b 55 f8	 mov	 edx, DWORD PTR _this$[ebp]
  016b4	89 44 0a 44	 mov	 DWORD PTR [edx+ecx+68], eax

; 469  : 
; 470  : 		if ( this->m_stChaosCastleData[iChaosCastleIndex].m_iCC_REMAIN_MSEC <= ((this->m_iCC_TIME_MIN_PLAY*60-30)*1000) &&
; 471  : 			 this->m_stChaosCastleData[iChaosCastleIndex].m_bCC_MSG_BEFORE_PLAY == false )

  016b8	8b 45 08	 mov	 eax, DWORD PTR _iChaosCastleIndex$[ebp]
  016bb	69 c0 70 08 00
	00		 imul	 eax, 2160		; 00000870H
  016c1	8b 4d f8	 mov	 ecx, DWORD PTR _this$[ebp]
  016c4	8b 51 0c	 mov	 edx, DWORD PTR [ecx+12]
  016c7	6b d2 3c	 imul	 edx, 60			; 0000003cH
  016ca	83 ea 1e	 sub	 edx, 30			; 0000001eH
  016cd	69 d2 e8 03 00
	00		 imul	 edx, 1000		; 000003e8H
  016d3	8b 4d f8	 mov	 ecx, DWORD PTR _this$[ebp]
  016d6	39 54 01 40	 cmp	 DWORD PTR [ecx+eax+64], edx
  016da	7f 4f		 jg	 SHORT $LN33@ProcState_@2
  016dc	8b 45 08	 mov	 eax, DWORD PTR _iChaosCastleIndex$[ebp]
  016df	69 c0 70 08 00
	00		 imul	 eax, 2160		; 00000870H
  016e5	8b 4d f8	 mov	 ecx, DWORD PTR _this$[ebp]
  016e8	0f b6 54 01 50	 movzx	 edx, BYTE PTR [ecx+eax+80]
  016ed	85 d2		 test	 edx, edx
  016ef	75 3a		 jne	 SHORT $LN33@ProcState_@2

; 472  : 		{
; 473  : 			this->m_stChaosCastleData[iChaosCastleIndex].m_bCC_MSG_BEFORE_PLAY = true;

  016f1	8b 45 08	 mov	 eax, DWORD PTR _iChaosCastleIndex$[ebp]
  016f4	69 c0 70 08 00
	00		 imul	 eax, 2160		; 00000870H
  016fa	8b 4d f8	 mov	 ecx, DWORD PTR _this$[ebp]
  016fd	c6 44 01 50 01	 mov	 BYTE PTR [ecx+eax+80], 1

; 474  : 			
; 475  : 			PMSG_SET_DEVILSQUARE pMsg;
; 476  : 			PHeadSetB((LPBYTE)&pMsg, 0x92, sizeof(pMsg));

  01702	6a 04		 push	 4
  01704	68 92 00 00 00	 push	 146			; 00000092H
  01709	8d 45 f0	 lea	 eax, DWORD PTR _pMsg$236707[ebp]
  0170c	50		 push	 eax
  0170d	e8 00 00 00 00	 call	 ?PHeadSetB@@YAXPAEEH@Z	; PHeadSetB
  01712	83 c4 0c	 add	 esp, 12			; 0000000cH

; 477  : 			pMsg.Type = 11;

  01715	c6 45 f3 0b	 mov	 BYTE PTR _pMsg$236707[ebp+3], 11 ; 0000000bH

; 478  : 			this->SendChaosCastleAnyMsg((LPBYTE)&pMsg, sizeof(pMsg), iChaosCastleIndex);

  01719	8b 45 08	 mov	 eax, DWORD PTR _iChaosCastleIndex$[ebp]
  0171c	50		 push	 eax
  0171d	6a 04		 push	 4
  0171f	8d 4d f0	 lea	 ecx, DWORD PTR _pMsg$236707[ebp]
  01722	51		 push	 ecx
  01723	8b 4d f8	 mov	 ecx, DWORD PTR _this$[ebp]
  01726	e8 00 00 00 00	 call	 ?SendChaosCastleAnyMsg@CChaosCastle@@QAEXPAEHH@Z ; CChaosCastle::SendChaosCastleAnyMsg
$LN33@ProcState_@2:

; 479  : 		}
; 480  : 
; 481  : 		if ( this->m_stChaosCastleData[iChaosCastleIndex].m_iCC_REMAIN_MSEC <= 30000 &&
; 482  : 			 this->m_stChaosCastleData[iChaosCastleIndex].m_iCC_REMAIN_MSEC > 0  &&
; 483  : 			 this->m_stChaosCastleData[iChaosCastleIndex].m_bCC_MSG_BEFORE_END == false )

  0172b	8b 45 08	 mov	 eax, DWORD PTR _iChaosCastleIndex$[ebp]
  0172e	69 c0 70 08 00
	00		 imul	 eax, 2160		; 00000870H
  01734	8b 4d f8	 mov	 ecx, DWORD PTR _this$[ebp]
  01737	81 7c 01 40 30
	75 00 00	 cmp	 DWORD PTR [ecx+eax+64], 30000 ; 00007530H
  0173f	7f 62		 jg	 SHORT $LN32@ProcState_@2
  01741	8b 45 08	 mov	 eax, DWORD PTR _iChaosCastleIndex$[ebp]
  01744	69 c0 70 08 00
	00		 imul	 eax, 2160		; 00000870H
  0174a	8b 4d f8	 mov	 ecx, DWORD PTR _this$[ebp]
  0174d	83 7c 01 40 00	 cmp	 DWORD PTR [ecx+eax+64], 0
  01752	7e 4f		 jle	 SHORT $LN32@ProcState_@2
  01754	8b 45 08	 mov	 eax, DWORD PTR _iChaosCastleIndex$[ebp]
  01757	69 c0 70 08 00
	00		 imul	 eax, 2160		; 00000870H
  0175d	8b 4d f8	 mov	 ecx, DWORD PTR _this$[ebp]
  01760	0f b6 54 01 51	 movzx	 edx, BYTE PTR [ecx+eax+81]
  01765	85 d2		 test	 edx, edx
  01767	75 3a		 jne	 SHORT $LN32@ProcState_@2

; 484  : 		{
; 485  : 			this->m_stChaosCastleData[iChaosCastleIndex].m_bCC_MSG_BEFORE_END = true;

  01769	8b 45 08	 mov	 eax, DWORD PTR _iChaosCastleIndex$[ebp]
  0176c	69 c0 70 08 00
	00		 imul	 eax, 2160		; 00000870H
  01772	8b 4d f8	 mov	 ecx, DWORD PTR _this$[ebp]
  01775	c6 44 01 51 01	 mov	 BYTE PTR [ecx+eax+81], 1

; 486  : 			PMSG_SET_DEVILSQUARE pMsg;
; 487  : 			PHeadSetB((LPBYTE)&pMsg, 0x92, sizeof(pMsg));

  0177a	6a 04		 push	 4
  0177c	68 92 00 00 00	 push	 146			; 00000092H
  01781	8d 45 ec	 lea	 eax, DWORD PTR _pMsg$236711[ebp]
  01784	50		 push	 eax
  01785	e8 00 00 00 00	 call	 ?PHeadSetB@@YAXPAEEH@Z	; PHeadSetB
  0178a	83 c4 0c	 add	 esp, 12			; 0000000cH

; 488  : 			pMsg.Type = 12;

  0178d	c6 45 ef 0c	 mov	 BYTE PTR _pMsg$236711[ebp+3], 12 ; 0000000cH

; 489  : 			this->SendChaosCastleAnyMsg((LPBYTE)&pMsg, sizeof(pMsg), iChaosCastleIndex);

  01791	8b 45 08	 mov	 eax, DWORD PTR _iChaosCastleIndex$[ebp]
  01794	50		 push	 eax
  01795	6a 04		 push	 4
  01797	8d 4d ec	 lea	 ecx, DWORD PTR _pMsg$236711[ebp]
  0179a	51		 push	 ecx
  0179b	8b 4d f8	 mov	 ecx, DWORD PTR _this$[ebp]
  0179e	e8 00 00 00 00	 call	 ?SendChaosCastleAnyMsg@CChaosCastle@@QAEXPAEHH@Z ; CChaosCastle::SendChaosCastleAnyMsg
$LN32@ProcState_@2:

; 490  : 		}
; 491  : 
; 492  : 		// Set Play Quest
; 493  : 		if ( this->m_stChaosCastleData[iChaosCastleIndex].m_iCC_REMAIN_MSEC <= ((this->m_iCC_TIME_MIN_PLAY*60-60)*1000) &&
; 494  : 			this->m_stChaosCastleData[iChaosCastleIndex].m_bCC_PLAY_START == false )

  017a3	8b 45 08	 mov	 eax, DWORD PTR _iChaosCastleIndex$[ebp]
  017a6	69 c0 70 08 00
	00		 imul	 eax, 2160		; 00000870H
  017ac	8b 4d f8	 mov	 ecx, DWORD PTR _this$[ebp]
  017af	8b 51 0c	 mov	 edx, DWORD PTR [ecx+12]
  017b2	6b d2 3c	 imul	 edx, 60			; 0000003cH
  017b5	83 ea 3c	 sub	 edx, 60			; 0000003cH
  017b8	69 d2 e8 03 00
	00		 imul	 edx, 1000		; 000003e8H
  017be	8b 4d f8	 mov	 ecx, DWORD PTR _this$[ebp]
  017c1	39 54 01 40	 cmp	 DWORD PTR [ecx+eax+64], edx
  017c5	0f 8f 4b 01 00
	00		 jg	 $LN31@ProcState_@2
  017cb	8b 45 08	 mov	 eax, DWORD PTR _iChaosCastleIndex$[ebp]
  017ce	69 c0 70 08 00
	00		 imul	 eax, 2160		; 00000870H
  017d4	8b 4d f8	 mov	 ecx, DWORD PTR _this$[ebp]
  017d7	0f b6 54 01 4e	 movzx	 edx, BYTE PTR [ecx+eax+78]
  017dc	85 d2		 test	 edx, edx
  017de	0f 85 32 01 00
	00		 jne	 $LN31@ProcState_@2

; 495  : 		{
; 496  : 			PMSG_NOTICE pNotice;
; 497  : 
; 498  : 			this->m_stChaosCastleData[iChaosCastleIndex].m_iCC_REMAIN_MSEC = (this->m_iCC_TIME_MIN_PLAY*60)*1000;

  017e4	8b 45 f8	 mov	 eax, DWORD PTR _this$[ebp]
  017e7	8b 48 0c	 mov	 ecx, DWORD PTR [eax+12]
  017ea	6b c9 3c	 imul	 ecx, 60			; 0000003cH
  017ed	69 c9 e8 03 00
	00		 imul	 ecx, 1000		; 000003e8H
  017f3	8b 55 08	 mov	 edx, DWORD PTR _iChaosCastleIndex$[ebp]
  017f6	69 d2 70 08 00
	00		 imul	 edx, 2160		; 00000870H
  017fc	8b 45 f8	 mov	 eax, DWORD PTR _this$[ebp]
  017ff	89 4c 10 40	 mov	 DWORD PTR [eax+edx+64], ecx

; 499  : 			this->m_stChaosCastleData[iChaosCastleIndex].m_bCC_CAN_PARTY = false;

  01803	8b 45 08	 mov	 eax, DWORD PTR _iChaosCastleIndex$[ebp]
  01806	69 c0 70 08 00
	00		 imul	 eax, 2160		; 00000870H
  0180c	8b 4d f8	 mov	 ecx, DWORD PTR _this$[ebp]
  0180f	c6 44 01 4d 00	 mov	 BYTE PTR [ecx+eax+77], 0

; 500  : 
; 501  : 			TNotice::MakeNoticeMsgEx((TNotice*)&pNotice, 0, lMsg.Get(MSGGET(4,209)), iChaosCastleIndex+1);

  01814	8b 45 08	 mov	 eax, DWORD PTR _iChaosCastleIndex$[ebp]
  01817	83 c0 01	 add	 eax, 1
  0181a	50		 push	 eax
  0181b	68 d1 04 00 00	 push	 1233			; 000004d1H
  01820	b9 00 00 00 00	 mov	 ecx, OFFSET ?lMsg@@3VCMsg@@A ; lMsg
  01825	e8 00 00 00 00	 call	 ?Get@CMsg@@QAEPADH@Z	; CMsg::Get
  0182a	50		 push	 eax
  0182b	6a 00		 push	 0
  0182d	8d 8d dc fe ff
	ff		 lea	 ecx, DWORD PTR _pNotice$236715[ebp]
  01833	51		 push	 ecx
  01834	e8 00 00 00 00	 call	 ?MakeNoticeMsgEx@TNotice@@SAXPAXEPADZZ ; TNotice::MakeNoticeMsgEx
  01839	83 c4 10	 add	 esp, 16			; 00000010H

; 502  : 			this->SendChaosCastleAnyMsg( (LPBYTE)&pNotice, pNotice.h.size, iChaosCastleIndex);

  0183c	8b 45 08	 mov	 eax, DWORD PTR _iChaosCastleIndex$[ebp]
  0183f	50		 push	 eax
  01840	0f b6 8d dd fe
	ff ff		 movzx	 ecx, BYTE PTR _pNotice$236715[ebp+1]
  01847	51		 push	 ecx
  01848	8d 95 dc fe ff
	ff		 lea	 edx, DWORD PTR _pNotice$236715[ebp]
  0184e	52		 push	 edx
  0184f	8b 4d f8	 mov	 ecx, DWORD PTR _this$[ebp]
  01852	e8 00 00 00 00	 call	 ?SendChaosCastleAnyMsg@CChaosCastle@@QAEXPAEHH@Z ; CChaosCastle::SendChaosCastleAnyMsg

; 503  : 
; 504  : 			this->UnSafetyCastleZone(iChaosCastleIndex);

  01857	8b 45 08	 mov	 eax, DWORD PTR _iChaosCastleIndex$[ebp]
  0185a	50		 push	 eax
  0185b	8b 4d f8	 mov	 ecx, DWORD PTR _this$[ebp]
  0185e	e8 00 00 00 00	 call	 ?UnSafetyCastleZone@CChaosCastle@@QAEXH@Z ; CChaosCastle::UnSafetyCastleZone

; 505  : 			this->SendCastleZoneSafetyInfo(iChaosCastleIndex, 0);

  01863	6a 00		 push	 0
  01865	8b 45 08	 mov	 eax, DWORD PTR _iChaosCastleIndex$[ebp]
  01868	50		 push	 eax
  01869	8b 4d f8	 mov	 ecx, DWORD PTR _this$[ebp]
  0186c	e8 00 00 00 00	 call	 ?SendCastleZoneSafetyInfo@CChaosCastle@@QAEXH_N@Z ; CChaosCastle::SendCastleZoneSafetyInfo

; 506  : 			this->m_stChaosCastleData[iChaosCastleIndex].m_bCC_PLAY_START = true;

  01871	8b 45 08	 mov	 eax, DWORD PTR _iChaosCastleIndex$[ebp]
  01874	69 c0 70 08 00
	00		 imul	 eax, 2160		; 00000870H
  0187a	8b 4d f8	 mov	 ecx, DWORD PTR _this$[ebp]
  0187d	c6 44 01 4e 01	 mov	 BYTE PTR [ecx+eax+78], 1

; 507  : 			this->m_stChaosCastleData[iChaosCastleIndex].m_iCC_FIRST_USER_COUNT = this->ReCalcUserCount(iChaosCastleIndex);

  01882	8b 45 08	 mov	 eax, DWORD PTR _iChaosCastleIndex$[ebp]
  01885	50		 push	 eax
  01886	8b 4d f8	 mov	 ecx, DWORD PTR _this$[ebp]
  01889	e8 00 00 00 00	 call	 ?ReCalcUserCount@CChaosCastle@@QAEHH@Z ; CChaosCastle::ReCalcUserCount
  0188e	8b 4d 08	 mov	 ecx, DWORD PTR _iChaosCastleIndex$[ebp]
  01891	69 c9 70 08 00
	00		 imul	 ecx, 2160		; 00000870H
  01897	8b 55 f8	 mov	 edx, DWORD PTR _this$[ebp]
  0189a	89 44 0a 58	 mov	 DWORD PTR [edx+ecx+88], eax

; 508  : 			this->m_stChaosCastleData[iChaosCastleIndex].m_lCC_CURRENT_MONSTER_COUNT = this->SetMonster(iChaosCastleIndex);

  0189e	8b 45 08	 mov	 eax, DWORD PTR _iChaosCastleIndex$[ebp]
  018a1	50		 push	 eax
  018a2	8b 4d f8	 mov	 ecx, DWORD PTR _this$[ebp]
  018a5	e8 00 00 00 00	 call	 ?SetMonster@CChaosCastle@@QAEHH@Z ; CChaosCastle::SetMonster
  018aa	8b 4d 08	 mov	 ecx, DWORD PTR _iChaosCastleIndex$[ebp]
  018ad	69 c9 70 08 00
	00		 imul	 ecx, 2160		; 00000870H
  018b3	8b 55 f8	 mov	 edx, DWORD PTR _this$[ebp]
  018b6	89 44 0a 60	 mov	 DWORD PTR [edx+ecx+96], eax

; 509  : 			this->m_stChaosCastleData[iChaosCastleIndex].m_iCC_FIRST_MONSTER_COUNT = this->m_stChaosCastleData[iChaosCastleIndex].m_lCC_CURRENT_MONSTER_COUNT; 

  018ba	8b 45 08	 mov	 eax, DWORD PTR _iChaosCastleIndex$[ebp]
  018bd	69 c0 70 08 00
	00		 imul	 eax, 2160		; 00000870H
  018c3	8b 4d 08	 mov	 ecx, DWORD PTR _iChaosCastleIndex$[ebp]
  018c6	69 c9 70 08 00
	00		 imul	 ecx, 2160		; 00000870H
  018cc	8b 55 f8	 mov	 edx, DWORD PTR _this$[ebp]
  018cf	8b 75 f8	 mov	 esi, DWORD PTR _this$[ebp]
  018d2	8b 44 06 60	 mov	 eax, DWORD PTR [esi+eax+96]
  018d6	89 44 0a 5c	 mov	 DWORD PTR [edx+ecx+92], eax

; 510  : 			this->SetItemsToMonster(iChaosCastleIndex);

  018da	8b 45 08	 mov	 eax, DWORD PTR _iChaosCastleIndex$[ebp]
  018dd	50		 push	 eax
  018de	8b 4d f8	 mov	 ecx, DWORD PTR _this$[ebp]
  018e1	e8 00 00 00 00	 call	 ?SetItemsToMonster@CChaosCastle@@QAEXH@Z ; CChaosCastle::SetItemsToMonster

; 511  : 			this->SendNoticeState(iChaosCastleIndex, 5);

  018e6	6a 05		 push	 5
  018e8	8b 45 08	 mov	 eax, DWORD PTR _iChaosCastleIndex$[ebp]
  018eb	50		 push	 eax
  018ec	8b 4d f8	 mov	 ecx, DWORD PTR _this$[ebp]
  018ef	e8 00 00 00 00	 call	 ?SendNoticeState@CChaosCastle@@QAEXHH@Z ; CChaosCastle::SendNoticeState

; 512  : 			
; 513  : 			LogAddTD("[Chaos Castle] (%d) Chaos Castle Quest Start (UserCount:%d)",	iChaosCastleIndex+1, this->GetCurPlayUser(iChaosCastleIndex));

  018f4	8b 45 08	 mov	 eax, DWORD PTR _iChaosCastleIndex$[ebp]
  018f7	50		 push	 eax
  018f8	8b 4d f8	 mov	 ecx, DWORD PTR _this$[ebp]
  018fb	e8 00 00 00 00	 call	 ?GetCurPlayUser@CChaosCastle@@QAEHH@Z ; CChaosCastle::GetCurPlayUser
  01900	50		 push	 eax
  01901	8b 4d 08	 mov	 ecx, DWORD PTR _iChaosCastleIndex$[ebp]
  01904	83 c1 01	 add	 ecx, 1
  01907	51		 push	 ecx
  01908	68 00 00 00 00	 push	 OFFSET ??_C@_0DM@PFNIGNGP@?$FLChaos?5Castle?$FN?5?$CI?$CFd?$CJ?5Chaos?5Castle@
  0190d	ff 15 00 00 00
	00		 call	 DWORD PTR ?LogAddTD@@3P6AXPADZZA ; LogAddTD
  01913	83 c4 0c	 add	 esp, 12			; 0000000cH
$LN31@ProcState_@2:

; 514  : 		}
; 515  : 
; 516  : 		if ( this->m_stChaosCastleData[iChaosCastleIndex].m_bCC_PLAY_START == false && this->m_stChaosCastleData[iChaosCastleIndex].m_bCC_CAN_ENTER == false )

  01916	8b 45 08	 mov	 eax, DWORD PTR _iChaosCastleIndex$[ebp]
  01919	69 c0 70 08 00
	00		 imul	 eax, 2160		; 00000870H
  0191f	8b 4d f8	 mov	 ecx, DWORD PTR _this$[ebp]
  01922	0f b6 54 01 4e	 movzx	 edx, BYTE PTR [ecx+eax+78]
  01927	85 d2		 test	 edx, edx
  01929	75 58		 jne	 SHORT $LN29@ProcState_@2
  0192b	8b 45 08	 mov	 eax, DWORD PTR _iChaosCastleIndex$[ebp]
  0192e	69 c0 70 08 00
	00		 imul	 eax, 2160		; 00000870H
  01934	8b 4d f8	 mov	 ecx, DWORD PTR _this$[ebp]
  01937	0f b6 54 01 4c	 movzx	 edx, BYTE PTR [ecx+eax+76]
  0193c	85 d2		 test	 edx, edx
  0193e	75 43		 jne	 SHORT $LN29@ProcState_@2

; 517  : 		{
; 518  : 			int iCurPlayUser = this->GetCurPlayUser(iChaosCastleIndex);

  01940	8b 45 08	 mov	 eax, DWORD PTR _iChaosCastleIndex$[ebp]
  01943	50		 push	 eax
  01944	8b 4d f8	 mov	 ecx, DWORD PTR _this$[ebp]
  01947	e8 00 00 00 00	 call	 ?GetCurPlayUser@CChaosCastle@@QAEHH@Z ; CChaosCastle::GetCurPlayUser
  0194c	89 85 d8 fe ff
	ff		 mov	 DWORD PTR _iCurPlayUser$236720[ebp], eax

; 519  : 
; 520  : 			if (iCurPlayUser == 0 )

  01952	83 bd d8 fe ff
	ff 00		 cmp	 DWORD PTR _iCurPlayUser$236720[ebp], 0
  01959	75 28		 jne	 SHORT $LN29@ProcState_@2

; 521  : 			{
; 522  : 				this->SetState(iChaosCastleIndex, CC_STATE_CLOSED);

  0195b	6a 01		 push	 1
  0195d	8b 45 08	 mov	 eax, DWORD PTR _iChaosCastleIndex$[ebp]
  01960	50		 push	 eax
  01961	8b 4d f8	 mov	 ecx, DWORD PTR _this$[ebp]
  01964	e8 00 00 00 00	 call	 ?SetState@CChaosCastle@@QAEXHH@Z ; CChaosCastle::SetState

; 523  : 				LogAddTD("[Chaos Castle] (%d) Chaos Castle Quest Closed - No User",	iChaosCastleIndex+1);

  01969	8b 45 08	 mov	 eax, DWORD PTR _iChaosCastleIndex$[ebp]
  0196c	83 c0 01	 add	 eax, 1
  0196f	50		 push	 eax
  01970	68 00 00 00 00	 push	 OFFSET ??_C@_0DI@NBGGDBDE@?$FLChaos?5Castle?$FN?5?$CI?$CFd?$CJ?5Chaos?5Castle@
  01975	ff 15 00 00 00
	00		 call	 DWORD PTR ?LogAddTD@@3P6AXPADZZA ; LogAddTD
  0197b	83 c4 08	 add	 esp, 8

; 524  : 				return;

  0197e	e9 07 0a 00 00	 jmp	 $LN35@ProcState_@2
$LN29@ProcState_@2:

; 525  : 			}
; 526  : 		}
; 527  : 
; 528  : 		if ( this->m_stChaosCastleData[iChaosCastleIndex].m_bCC_PLAY_START == true )

  01983	8b 45 08	 mov	 eax, DWORD PTR _iChaosCastleIndex$[ebp]
  01986	69 c0 70 08 00
	00		 imul	 eax, 2160		; 00000870H
  0198c	8b 4d f8	 mov	 ecx, DWORD PTR _this$[ebp]
  0198f	0f b6 54 01 4e	 movzx	 edx, BYTE PTR [ecx+eax+78]
  01994	83 fa 01	 cmp	 edx, 1
  01997	0f 85 69 05 00
	00		 jne	 $LN16@ProcState_@2

; 529  : 		{
; 530  : 			this->ProcessFallUser(iChaosCastleIndex);

  0199d	8b 45 08	 mov	 eax, DWORD PTR _iChaosCastleIndex$[ebp]
  019a0	50		 push	 eax
  019a1	8b 4d f8	 mov	 ecx, DWORD PTR _this$[ebp]
  019a4	e8 00 00 00 00	 call	 ?ProcessFallUser@CChaosCastle@@QAEXH@Z ; CChaosCastle::ProcessFallUser

; 531  : 			this->CheckUserInDieTile(iChaosCastleIndex);

  019a9	8b 45 08	 mov	 eax, DWORD PTR _iChaosCastleIndex$[ebp]
  019ac	50		 push	 eax
  019ad	8b 4d f8	 mov	 ecx, DWORD PTR _this$[ebp]
  019b0	e8 00 00 00 00	 call	 ?CheckUserInDieTile@CChaosCastle@@QAEXH@Z ; CChaosCastle::CheckUserInDieTile

; 532  : 			this->CheckMonsterInDieTile(iChaosCastleIndex);

  019b5	8b 45 08	 mov	 eax, DWORD PTR _iChaosCastleIndex$[ebp]
  019b8	50		 push	 eax
  019b9	8b 4d f8	 mov	 ecx, DWORD PTR _this$[ebp]
  019bc	e8 00 00 00 00	 call	 ?CheckMonsterInDieTile@CChaosCastle@@QAEXH@Z ; CChaosCastle::CheckMonsterInDieTile

; 533  : 			this->ProcessTrapStatus(iChaosCastleIndex);

  019c1	8b 45 08	 mov	 eax, DWORD PTR _iChaosCastleIndex$[ebp]
  019c4	50		 push	 eax
  019c5	8b 4d f8	 mov	 ecx, DWORD PTR _this$[ebp]
  019c8	e8 00 00 00 00	 call	 ?ProcessTrapStatus@CChaosCastle@@QAEXH@Z ; CChaosCastle::ProcessTrapStatus

; 534  : 
; 535  : 			if ( this->m_stChaosCastleData[iChaosCastleIndex].m_iCC_TRAP_STATUS != this->m_stChaosCastleData[iChaosCastleIndex].m_iCC_TRAP_OLD_STATUS )

  019cd	8b 45 08	 mov	 eax, DWORD PTR _iChaosCastleIndex$[ebp]
  019d0	69 c0 70 08 00
	00		 imul	 eax, 2160		; 00000870H
  019d6	8b 4d 08	 mov	 ecx, DWORD PTR _iChaosCastleIndex$[ebp]
  019d9	69 c9 70 08 00
	00		 imul	 ecx, 2160		; 00000870H
  019df	8b 55 f8	 mov	 edx, DWORD PTR _this$[ebp]
  019e2	8b 75 f8	 mov	 esi, DWORD PTR _this$[ebp]
  019e5	8b 44 02 64	 mov	 eax, DWORD PTR [edx+eax+100]
  019e9	3b 44 0e 68	 cmp	 eax, DWORD PTR [esi+ecx+104]
  019ed	74 5a		 je	 SHORT $LN27@ProcState_@2

; 536  : 			{
; 537  : 				this->m_stChaosCastleData[iChaosCastleIndex].m_iCC_TRAP_OLD_STATUS = this->m_stChaosCastleData[iChaosCastleIndex].m_iCC_TRAP_STATUS;

  019ef	8b 45 08	 mov	 eax, DWORD PTR _iChaosCastleIndex$[ebp]
  019f2	69 c0 70 08 00
	00		 imul	 eax, 2160		; 00000870H
  019f8	8b 4d 08	 mov	 ecx, DWORD PTR _iChaosCastleIndex$[ebp]
  019fb	69 c9 70 08 00
	00		 imul	 ecx, 2160		; 00000870H
  01a01	8b 55 f8	 mov	 edx, DWORD PTR _this$[ebp]
  01a04	8b 75 f8	 mov	 esi, DWORD PTR _this$[ebp]
  01a07	8b 44 06 64	 mov	 eax, DWORD PTR [esi+eax+100]
  01a0b	89 44 0a 68	 mov	 DWORD PTR [edx+ecx+104], eax

; 538  : 				this->SetMapAttrHollow(iChaosCastleIndex, this->m_stChaosCastleData[iChaosCastleIndex].m_iCC_TRAP_STATUS);

  01a0f	8b 45 08	 mov	 eax, DWORD PTR _iChaosCastleIndex$[ebp]
  01a12	69 c0 70 08 00
	00		 imul	 eax, 2160		; 00000870H
  01a18	8b 4d f8	 mov	 ecx, DWORD PTR _this$[ebp]
  01a1b	8b 54 01 64	 mov	 edx, DWORD PTR [ecx+eax+100]
  01a1f	52		 push	 edx
  01a20	8b 45 08	 mov	 eax, DWORD PTR _iChaosCastleIndex$[ebp]
  01a23	50		 push	 eax
  01a24	8b 4d f8	 mov	 ecx, DWORD PTR _this$[ebp]
  01a27	e8 00 00 00 00	 call	 ?SetMapAttrHollow@CChaosCastle@@QAEXHH@Z ; CChaosCastle::SetMapAttrHollow

; 539  : 				this->PullObjInnerPlace(iChaosCastleIndex, this->m_stChaosCastleData[iChaosCastleIndex].m_iCC_TRAP_STATUS);

  01a2c	8b 45 08	 mov	 eax, DWORD PTR _iChaosCastleIndex$[ebp]
  01a2f	69 c0 70 08 00
	00		 imul	 eax, 2160		; 00000870H
  01a35	8b 4d f8	 mov	 ecx, DWORD PTR _this$[ebp]
  01a38	8b 54 01 64	 mov	 edx, DWORD PTR [ecx+eax+100]
  01a3c	52		 push	 edx
  01a3d	8b 45 08	 mov	 eax, DWORD PTR _iChaosCastleIndex$[ebp]
  01a40	50		 push	 eax
  01a41	8b 4d f8	 mov	 ecx, DWORD PTR _this$[ebp]
  01a44	e8 00 00 00 00	 call	 ?PullObjInnerPlace@CChaosCastle@@QAEXHH@Z ; CChaosCastle::PullObjInnerPlace
$LN27@ProcState_@2:

; 540  : 			}
; 541  : 
; 542  : 			BOOL bPlayEnded = this->CheckPlayEnded(iChaosCastleIndex);

  01a49	8b 45 08	 mov	 eax, DWORD PTR _iChaosCastleIndex$[ebp]
  01a4c	50		 push	 eax
  01a4d	8b 4d f8	 mov	 ecx, DWORD PTR _this$[ebp]
  01a50	e8 00 00 00 00	 call	 ?CheckPlayEnded@CChaosCastle@@QAEHH@Z ; CChaosCastle::CheckPlayEnded
  01a55	89 85 d4 fe ff
	ff		 mov	 DWORD PTR _bPlayEnded$236725[ebp], eax

; 543  : 
; 544  : 			if ( bPlayEnded == TRUE )

  01a5b	83 bd d4 fe ff
	ff 01		 cmp	 DWORD PTR _bPlayEnded$236725[ebp], 1
  01a62	0f 85 3d 02 00
	00		 jne	 $LN26@ProcState_@2

; 545  : 			{
; 546  : 				int iWinnerIndex = -1;

  01a68	c7 85 d0 fe ff
	ff ff ff ff ff	 mov	 DWORD PTR _iWinnerIndex$236727[ebp], -1

; 547  : 				int iMonsterCount = this->GetMonsterListCount(iChaosCastleIndex);

  01a72	8b 45 08	 mov	 eax, DWORD PTR _iChaosCastleIndex$[ebp]
  01a75	50		 push	 eax
  01a76	8b 4d f8	 mov	 ecx, DWORD PTR _this$[ebp]
  01a79	e8 00 00 00 00	 call	 ?GetMonsterListCount@CChaosCastle@@QAEHH@Z ; CChaosCastle::GetMonsterListCount
  01a7e	89 85 cc fe ff
	ff		 mov	 DWORD PTR _iMonsterCount$236728[ebp], eax

; 548  : 
; 549  : 				if ( iMonsterCount <= 0 )

  01a84	83 bd cc fe ff
	ff 00		 cmp	 DWORD PTR _iMonsterCount$236728[ebp], 0
  01a8b	0f 8f c8 01 00
	00		 jg	 $LN25@ProcState_@2

; 550  : 				{
; 551  : 					iWinnerIndex = this->GetCurrentWinUser(iChaosCastleIndex);

  01a91	8b 45 08	 mov	 eax, DWORD PTR _iChaosCastleIndex$[ebp]
  01a94	50		 push	 eax
  01a95	8b 4d f8	 mov	 ecx, DWORD PTR _this$[ebp]
  01a98	e8 00 00 00 00	 call	 ?GetCurrentWinUser@CChaosCastle@@QAEHH@Z ; CChaosCastle::GetCurrentWinUser
  01a9d	89 85 d0 fe ff
	ff		 mov	 DWORD PTR _iWinnerIndex$236727[ebp], eax

; 552  : 
; 553  : 					if ( iWinnerIndex != -1 )

  01aa3	83 bd d0 fe ff
	ff ff		 cmp	 DWORD PTR _iWinnerIndex$236727[ebp], -1
  01aaa	0f 84 92 01 00
	00		 je	 $LN24@ProcState_@2

; 554  : 					{
; 555  : 						LogAddTD("[Chaos Castle] (%d) [%s][%s] is Winner. [CharInfoSave : Class=%d, Level=%d, LvPoint=%d, Exp=%d, Str=%d, Dex=%d, Vit=%d, Energy=%d, LeaderShip=%d, Map=%d, Pk=%d]",
; 556  : 							iChaosCastleIndex+1, gObj[iWinnerIndex].AccountID, gObj[iWinnerIndex].Name,
; 557  : 							gObj[iWinnerIndex].Class, gObj[iWinnerIndex].Level, gObj[iWinnerIndex].LevelUpPoint,
; 558  : 							gObj[iWinnerIndex].Experience, gObj[iWinnerIndex].Strength,
; 559  : 							gObj[iWinnerIndex].Dexterity, gObj[iWinnerIndex].Vitality, gObj[iWinnerIndex].Energy,
; 560  : 							gObj[iWinnerIndex].Leadership, gObj[iWinnerIndex].MapNumber, gObj[iWinnerIndex].m_PK_Level);

  01ab0	8b 85 d0 fe ff
	ff		 mov	 eax, DWORD PTR _iWinnerIndex$236727[ebp]
  01ab6	69 c0 38 2b 00
	00		 imul	 eax, 11064		; 00002b38H
  01abc	8b 0d 00 00 00
	00		 mov	 ecx, DWORD PTR ?gObj@@3PAUOBJECTSTRUCT@@A ; gObj
  01ac2	0f be 94 01 3d
	01 00 00	 movsx	 edx, BYTE PTR [ecx+eax+317]
  01aca	52		 push	 edx
  01acb	8b 85 d0 fe ff
	ff		 mov	 eax, DWORD PTR _iWinnerIndex$236727[ebp]
  01ad1	69 c0 38 2b 00
	00		 imul	 eax, 11064		; 00002b38H
  01ad7	8b 0d 00 00 00
	00		 mov	 ecx, DWORD PTR ?gObj@@3PAUOBJECTSTRUCT@@A ; gObj
  01add	0f b6 94 01 49
	01 00 00	 movzx	 edx, BYTE PTR [ecx+eax+329]
  01ae5	52		 push	 edx
  01ae6	8b 85 d0 fe ff
	ff		 mov	 eax, DWORD PTR _iWinnerIndex$236727[ebp]
  01aec	69 c0 38 2b 00
	00		 imul	 eax, 11064		; 00002b38H
  01af2	8b 0d 00 00 00
	00		 mov	 ecx, DWORD PTR ?gObj@@3PAUOBJECTSTRUCT@@A ; gObj
  01af8	0f b7 94 01 18
	01 00 00	 movzx	 edx, WORD PTR [ecx+eax+280]
  01b00	52		 push	 edx
  01b01	8b 85 d0 fe ff
	ff		 mov	 eax, DWORD PTR _iWinnerIndex$236727[ebp]
  01b07	69 c0 38 2b 00
	00		 imul	 eax, 11064		; 00002b38H
  01b0d	8b 0d 00 00 00
	00		 mov	 ecx, DWORD PTR ?gObj@@3PAUOBJECTSTRUCT@@A ; gObj
  01b13	0f b7 94 01 fa
	00 00 00	 movzx	 edx, WORD PTR [ecx+eax+250]
  01b1b	52		 push	 edx
  01b1c	8b 85 d0 fe ff
	ff		 mov	 eax, DWORD PTR _iWinnerIndex$236727[ebp]
  01b22	69 c0 38 2b 00
	00		 imul	 eax, 11064		; 00002b38H
  01b28	8b 0d 00 00 00
	00		 mov	 ecx, DWORD PTR ?gObj@@3PAUOBJECTSTRUCT@@A ; gObj
  01b2e	0f b7 94 01 f8
	00 00 00	 movzx	 edx, WORD PTR [ecx+eax+248]
  01b36	52		 push	 edx
  01b37	8b 85 d0 fe ff
	ff		 mov	 eax, DWORD PTR _iWinnerIndex$236727[ebp]
  01b3d	69 c0 38 2b 00
	00		 imul	 eax, 11064		; 00002b38H
  01b43	8b 0d 00 00 00
	00		 mov	 ecx, DWORD PTR ?gObj@@3PAUOBJECTSTRUCT@@A ; gObj
  01b49	0f b7 94 01 f6
	00 00 00	 movzx	 edx, WORD PTR [ecx+eax+246]
  01b51	52		 push	 edx
  01b52	8b 85 d0 fe ff
	ff		 mov	 eax, DWORD PTR _iWinnerIndex$236727[ebp]
  01b58	69 c0 38 2b 00
	00		 imul	 eax, 11064		; 00002b38H
  01b5e	8b 0d 00 00 00
	00		 mov	 ecx, DWORD PTR ?gObj@@3PAUOBJECTSTRUCT@@A ; gObj
  01b64	0f b7 94 01 f4
	00 00 00	 movzx	 edx, WORD PTR [ecx+eax+244]
  01b6c	52		 push	 edx
  01b6d	8b 85 d0 fe ff
	ff		 mov	 eax, DWORD PTR _iWinnerIndex$236727[ebp]
  01b73	69 c0 38 2b 00
	00		 imul	 eax, 11064		; 00002b38H
  01b79	8b 0d 00 00 00
	00		 mov	 ecx, DWORD PTR ?gObj@@3PAUOBJECTSTRUCT@@A ; gObj
  01b7f	8b 94 01 c8 00
	00 00		 mov	 edx, DWORD PTR [ecx+eax+200]
  01b86	52		 push	 edx
  01b87	8b 85 d0 fe ff
	ff		 mov	 eax, DWORD PTR _iWinnerIndex$236727[ebp]
  01b8d	69 c0 38 2b 00
	00		 imul	 eax, 11064		; 00002b38H
  01b93	8b 0d 00 00 00
	00		 mov	 ecx, DWORD PTR ?gObj@@3PAUOBJECTSTRUCT@@A ; gObj
  01b99	8b 94 01 c0 00
	00 00		 mov	 edx, DWORD PTR [ecx+eax+192]
  01ba0	52		 push	 edx
  01ba1	8b 85 d0 fe ff
	ff		 mov	 eax, DWORD PTR _iWinnerIndex$236727[ebp]
  01ba7	69 c0 38 2b 00
	00		 imul	 eax, 11064		; 00002b38H
  01bad	8b 0d 00 00 00
	00		 mov	 ecx, DWORD PTR ?gObj@@3PAUOBJECTSTRUCT@@A ; gObj
  01bb3	0f bf 94 01 be
	00 00 00	 movsx	 edx, WORD PTR [ecx+eax+190]
  01bbb	52		 push	 edx
  01bbc	8b 85 d0 fe ff
	ff		 mov	 eax, DWORD PTR _iWinnerIndex$236727[ebp]
  01bc2	69 c0 38 2b 00
	00		 imul	 eax, 11064		; 00002b38H
  01bc8	8b 0d 00 00 00
	00		 mov	 ecx, DWORD PTR ?gObj@@3PAUOBJECTSTRUCT@@A ; gObj
  01bce	0f b7 94 01 b8
	00 00 00	 movzx	 edx, WORD PTR [ecx+eax+184]
  01bd6	52		 push	 edx
  01bd7	8b 85 d0 fe ff
	ff		 mov	 eax, DWORD PTR _iWinnerIndex$236727[ebp]
  01bdd	69 c0 38 2b 00
	00		 imul	 eax, 11064		; 00002b38H
  01be3	8b 0d 00 00 00
	00		 mov	 ecx, DWORD PTR ?gObj@@3PAUOBJECTSTRUCT@@A ; gObj
  01be9	8d 54 01 77	 lea	 edx, DWORD PTR [ecx+eax+119]
  01bed	52		 push	 edx
  01bee	8b 85 d0 fe ff
	ff		 mov	 eax, DWORD PTR _iWinnerIndex$236727[ebp]
  01bf4	69 c0 38 2b 00
	00		 imul	 eax, 11064		; 00002b38H
  01bfa	8b 0d 00 00 00
	00		 mov	 ecx, DWORD PTR ?gObj@@3PAUOBJECTSTRUCT@@A ; gObj
  01c00	8d 54 01 6c	 lea	 edx, DWORD PTR [ecx+eax+108]
  01c04	52		 push	 edx
  01c05	8b 45 08	 mov	 eax, DWORD PTR _iChaosCastleIndex$[ebp]
  01c08	83 c0 01	 add	 eax, 1
  01c0b	50		 push	 eax
  01c0c	68 00 00 00 00	 push	 OFFSET ??_C@_0KB@EOIGCIIB@?$FLChaos?5Castle?$FN?5?$CI?$CFd?$CJ?5?$FL?$CFs?$FN?$FL?$CFs?$FN?5is?5@
  01c11	ff 15 00 00 00
	00		 call	 DWORD PTR ?LogAddTD@@3P6AXPADZZA ; LogAddTD
  01c17	83 c4 3c	 add	 esp, 60			; 0000003cH

; 561  : 
; 562  : 						this->SendWinMessage(iChaosCastleIndex, iWinnerIndex);

  01c1a	8b 85 d0 fe ff
	ff		 mov	 eax, DWORD PTR _iWinnerIndex$236727[ebp]
  01c20	50		 push	 eax
  01c21	8b 4d 08	 mov	 ecx, DWORD PTR _iChaosCastleIndex$[ebp]
  01c24	51		 push	 ecx
  01c25	8b 4d f8	 mov	 ecx, DWORD PTR _this$[ebp]
  01c28	e8 00 00 00 00	 call	 ?SendWinMessage@CChaosCastle@@QAEXHH@Z ; CChaosCastle::SendWinMessage

; 563  : 						this->GiveWinnerItem(iChaosCastleIndex, iWinnerIndex);

  01c2d	8b 85 d0 fe ff
	ff		 mov	 eax, DWORD PTR _iWinnerIndex$236727[ebp]
  01c33	50		 push	 eax
  01c34	8b 4d 08	 mov	 ecx, DWORD PTR _iChaosCastleIndex$[ebp]
  01c37	51		 push	 ecx
  01c38	8b 4d f8	 mov	 ecx, DWORD PTR _this$[ebp]
  01c3b	e8 00 00 00 00	 call	 ?GiveWinnerItem@CChaosCastle@@QAEXHH@Z ; CChaosCastle::GiveWinnerItem

; 564  : 					}
; 565  : 					else

  01c40	eb 15		 jmp	 SHORT $LN23@ProcState_@2
$LN24@ProcState_@2:

; 566  : 					{
; 567  : 						LogAddTD("[Chaos Castle] (%d) Has No Winner.", iChaosCastleIndex+1);

  01c42	8b 45 08	 mov	 eax, DWORD PTR _iChaosCastleIndex$[ebp]
  01c45	83 c0 01	 add	 eax, 1
  01c48	50		 push	 eax
  01c49	68 00 00 00 00	 push	 OFFSET ??_C@_0CD@JOONMNFN@?$FLChaos?5Castle?$FN?5?$CI?$CFd?$CJ?5Has?5No?5Winne@
  01c4e	ff 15 00 00 00
	00		 call	 DWORD PTR ?LogAddTD@@3P6AXPADZZA ; LogAddTD
  01c54	83 c4 08	 add	 esp, 8
$LN23@ProcState_@2:

; 568  : 					}
; 569  : 				}
; 570  : 				else

  01c57	eb 26		 jmp	 SHORT $LN22@ProcState_@2
$LN25@ProcState_@2:

; 571  : 				{
; 572  : 					LogAddTD("[Chaos Castle] (%d) Has No Winner : Monster Left (%d)", iChaosCastleIndex+1, this->m_stChaosCastleData[iChaosCastleIndex].m_lCC_CURRENT_MONSTER_COUNT);

  01c59	8b 45 08	 mov	 eax, DWORD PTR _iChaosCastleIndex$[ebp]
  01c5c	69 c0 70 08 00
	00		 imul	 eax, 2160		; 00000870H
  01c62	8b 4d f8	 mov	 ecx, DWORD PTR _this$[ebp]
  01c65	8b 54 01 60	 mov	 edx, DWORD PTR [ecx+eax+96]
  01c69	52		 push	 edx
  01c6a	8b 45 08	 mov	 eax, DWORD PTR _iChaosCastleIndex$[ebp]
  01c6d	83 c0 01	 add	 eax, 1
  01c70	50		 push	 eax
  01c71	68 00 00 00 00	 push	 OFFSET ??_C@_0DG@DNCOEMLJ@?$FLChaos?5Castle?$FN?5?$CI?$CFd?$CJ?5Has?5No?5Winne@
  01c76	ff 15 00 00 00
	00		 call	 DWORD PTR ?LogAddTD@@3P6AXPADZZA ; LogAddTD
  01c7c	83 c4 0c	 add	 esp, 12			; 0000000cH
$LN22@ProcState_@2:

; 573  : 				}
; 574  : 
; 575  : 				this->SendAllLoserFailMessage(iChaosCastleIndex, iWinnerIndex);

  01c7f	8b 85 d0 fe ff
	ff		 mov	 eax, DWORD PTR _iWinnerIndex$236727[ebp]
  01c85	50		 push	 eax
  01c86	8b 4d 08	 mov	 ecx, DWORD PTR _iChaosCastleIndex$[ebp]
  01c89	51		 push	 ecx
  01c8a	8b 4d f8	 mov	 ecx, DWORD PTR _this$[ebp]
  01c8d	e8 00 00 00 00	 call	 ?SendAllLoserFailMessage@CChaosCastle@@QAEXHH@Z ; CChaosCastle::SendAllLoserFailMessage

; 576  : 				this->SetState(iChaosCastleIndex, CC_STATE_PLAYEND);

  01c92	6a 03		 push	 3
  01c94	8b 45 08	 mov	 eax, DWORD PTR _iChaosCastleIndex$[ebp]
  01c97	50		 push	 eax
  01c98	8b 4d f8	 mov	 ecx, DWORD PTR _this$[ebp]
  01c9b	e8 00 00 00 00	 call	 ?SetState@CChaosCastle@@QAEXHH@Z ; CChaosCastle::SetState

; 577  : 				return;

  01ca0	e9 e5 06 00 00	 jmp	 $LN35@ProcState_@2
$LN26@ProcState_@2:

; 578  : 			}
; 579  : 		
; 580  : 			if ( bPlayEnded == 2 )

  01ca5	83 bd d4 fe ff
	ff 02		 cmp	 DWORD PTR _bPlayEnded$236725[ebp], 2
  01cac	0f 85 3d 02 00
	00		 jne	 $LN21@ProcState_@2

; 581  : 			{
; 582  : 				int iWinnerIndex = -1;

  01cb2	c7 85 c8 fe ff
	ff ff ff ff ff	 mov	 DWORD PTR _iWinnerIndex$236737[ebp], -1

; 583  : 				int iMonsterCount = this->GetMonsterListCount(iChaosCastleIndex);

  01cbc	8b 45 08	 mov	 eax, DWORD PTR _iChaosCastleIndex$[ebp]
  01cbf	50		 push	 eax
  01cc0	8b 4d f8	 mov	 ecx, DWORD PTR _this$[ebp]
  01cc3	e8 00 00 00 00	 call	 ?GetMonsterListCount@CChaosCastle@@QAEHH@Z ; CChaosCastle::GetMonsterListCount
  01cc8	89 85 c4 fe ff
	ff		 mov	 DWORD PTR _iMonsterCount$236738[ebp], eax

; 584  : 
; 585  : 				if ( iMonsterCount <= 0 )

  01cce	83 bd c4 fe ff
	ff 00		 cmp	 DWORD PTR _iMonsterCount$236738[ebp], 0
  01cd5	0f 8f c8 01 00
	00		 jg	 $LN20@ProcState_@2

; 586  : 				{
; 587  : 					iWinnerIndex = this->GetCurrentWinUser(iChaosCastleIndex);

  01cdb	8b 45 08	 mov	 eax, DWORD PTR _iChaosCastleIndex$[ebp]
  01cde	50		 push	 eax
  01cdf	8b 4d f8	 mov	 ecx, DWORD PTR _this$[ebp]
  01ce2	e8 00 00 00 00	 call	 ?GetCurrentWinUser@CChaosCastle@@QAEHH@Z ; CChaosCastle::GetCurrentWinUser
  01ce7	89 85 c8 fe ff
	ff		 mov	 DWORD PTR _iWinnerIndex$236737[ebp], eax

; 588  : 
; 589  : 					if ( iWinnerIndex != -1 )

  01ced	83 bd c8 fe ff
	ff ff		 cmp	 DWORD PTR _iWinnerIndex$236737[ebp], -1
  01cf4	0f 84 92 01 00
	00		 je	 $LN19@ProcState_@2

; 590  : 					{
; 591  : 						LogAddTD("[Chaos Castle] (%d) [%s][%s] is Winner. [CharInfoSave : Class=%d, Level=%d, LvPoint=%d, Exp=%d, Str=%d, Dex=%d, Vit=%d, Energy=%d, LeaderShip=%d, Map=%d, Pk=%d]",
; 592  : 							iChaosCastleIndex+1, gObj[iWinnerIndex].AccountID, gObj[iWinnerIndex].Name,
; 593  : 							gObj[iWinnerIndex].Class, gObj[iWinnerIndex].Level, gObj[iWinnerIndex].LevelUpPoint,
; 594  : 							gObj[iWinnerIndex].Experience, gObj[iWinnerIndex].Strength,
; 595  : 							gObj[iWinnerIndex].Dexterity, gObj[iWinnerIndex].Vitality, gObj[iWinnerIndex].Energy,
; 596  : 							gObj[iWinnerIndex].Leadership, gObj[iWinnerIndex].MapNumber, gObj[iWinnerIndex].m_PK_Level);

  01cfa	8b 85 c8 fe ff
	ff		 mov	 eax, DWORD PTR _iWinnerIndex$236737[ebp]
  01d00	69 c0 38 2b 00
	00		 imul	 eax, 11064		; 00002b38H
  01d06	8b 0d 00 00 00
	00		 mov	 ecx, DWORD PTR ?gObj@@3PAUOBJECTSTRUCT@@A ; gObj
  01d0c	0f be 94 01 3d
	01 00 00	 movsx	 edx, BYTE PTR [ecx+eax+317]
  01d14	52		 push	 edx
  01d15	8b 85 c8 fe ff
	ff		 mov	 eax, DWORD PTR _iWinnerIndex$236737[ebp]
  01d1b	69 c0 38 2b 00
	00		 imul	 eax, 11064		; 00002b38H
  01d21	8b 0d 00 00 00
	00		 mov	 ecx, DWORD PTR ?gObj@@3PAUOBJECTSTRUCT@@A ; gObj
  01d27	0f b6 94 01 49
	01 00 00	 movzx	 edx, BYTE PTR [ecx+eax+329]
  01d2f	52		 push	 edx
  01d30	8b 85 c8 fe ff
	ff		 mov	 eax, DWORD PTR _iWinnerIndex$236737[ebp]
  01d36	69 c0 38 2b 00
	00		 imul	 eax, 11064		; 00002b38H
  01d3c	8b 0d 00 00 00
	00		 mov	 ecx, DWORD PTR ?gObj@@3PAUOBJECTSTRUCT@@A ; gObj
  01d42	0f b7 94 01 18
	01 00 00	 movzx	 edx, WORD PTR [ecx+eax+280]
  01d4a	52		 push	 edx
  01d4b	8b 85 c8 fe ff
	ff		 mov	 eax, DWORD PTR _iWinnerIndex$236737[ebp]
  01d51	69 c0 38 2b 00
	00		 imul	 eax, 11064		; 00002b38H
  01d57	8b 0d 00 00 00
	00		 mov	 ecx, DWORD PTR ?gObj@@3PAUOBJECTSTRUCT@@A ; gObj
  01d5d	0f b7 94 01 fa
	00 00 00	 movzx	 edx, WORD PTR [ecx+eax+250]
  01d65	52		 push	 edx
  01d66	8b 85 c8 fe ff
	ff		 mov	 eax, DWORD PTR _iWinnerIndex$236737[ebp]
  01d6c	69 c0 38 2b 00
	00		 imul	 eax, 11064		; 00002b38H
  01d72	8b 0d 00 00 00
	00		 mov	 ecx, DWORD PTR ?gObj@@3PAUOBJECTSTRUCT@@A ; gObj
  01d78	0f b7 94 01 f8
	00 00 00	 movzx	 edx, WORD PTR [ecx+eax+248]
  01d80	52		 push	 edx
  01d81	8b 85 c8 fe ff
	ff		 mov	 eax, DWORD PTR _iWinnerIndex$236737[ebp]
  01d87	69 c0 38 2b 00
	00		 imul	 eax, 11064		; 00002b38H
  01d8d	8b 0d 00 00 00
	00		 mov	 ecx, DWORD PTR ?gObj@@3PAUOBJECTSTRUCT@@A ; gObj
  01d93	0f b7 94 01 f6
	00 00 00	 movzx	 edx, WORD PTR [ecx+eax+246]
  01d9b	52		 push	 edx
  01d9c	8b 85 c8 fe ff
	ff		 mov	 eax, DWORD PTR _iWinnerIndex$236737[ebp]
  01da2	69 c0 38 2b 00
	00		 imul	 eax, 11064		; 00002b38H
  01da8	8b 0d 00 00 00
	00		 mov	 ecx, DWORD PTR ?gObj@@3PAUOBJECTSTRUCT@@A ; gObj
  01dae	0f b7 94 01 f4
	00 00 00	 movzx	 edx, WORD PTR [ecx+eax+244]
  01db6	52		 push	 edx
  01db7	8b 85 c8 fe ff
	ff		 mov	 eax, DWORD PTR _iWinnerIndex$236737[ebp]
  01dbd	69 c0 38 2b 00
	00		 imul	 eax, 11064		; 00002b38H
  01dc3	8b 0d 00 00 00
	00		 mov	 ecx, DWORD PTR ?gObj@@3PAUOBJECTSTRUCT@@A ; gObj
  01dc9	8b 94 01 c8 00
	00 00		 mov	 edx, DWORD PTR [ecx+eax+200]
  01dd0	52		 push	 edx
  01dd1	8b 85 c8 fe ff
	ff		 mov	 eax, DWORD PTR _iWinnerIndex$236737[ebp]
  01dd7	69 c0 38 2b 00
	00		 imul	 eax, 11064		; 00002b38H
  01ddd	8b 0d 00 00 00
	00		 mov	 ecx, DWORD PTR ?gObj@@3PAUOBJECTSTRUCT@@A ; gObj
  01de3	8b 94 01 c0 00
	00 00		 mov	 edx, DWORD PTR [ecx+eax+192]
  01dea	52		 push	 edx
  01deb	8b 85 c8 fe ff
	ff		 mov	 eax, DWORD PTR _iWinnerIndex$236737[ebp]
  01df1	69 c0 38 2b 00
	00		 imul	 eax, 11064		; 00002b38H
  01df7	8b 0d 00 00 00
	00		 mov	 ecx, DWORD PTR ?gObj@@3PAUOBJECTSTRUCT@@A ; gObj
  01dfd	0f bf 94 01 be
	00 00 00	 movsx	 edx, WORD PTR [ecx+eax+190]
  01e05	52		 push	 edx
  01e06	8b 85 c8 fe ff
	ff		 mov	 eax, DWORD PTR _iWinnerIndex$236737[ebp]
  01e0c	69 c0 38 2b 00
	00		 imul	 eax, 11064		; 00002b38H
  01e12	8b 0d 00 00 00
	00		 mov	 ecx, DWORD PTR ?gObj@@3PAUOBJECTSTRUCT@@A ; gObj
  01e18	0f b7 94 01 b8
	00 00 00	 movzx	 edx, WORD PTR [ecx+eax+184]
  01e20	52		 push	 edx
  01e21	8b 85 c8 fe ff
	ff		 mov	 eax, DWORD PTR _iWinnerIndex$236737[ebp]
  01e27	69 c0 38 2b 00
	00		 imul	 eax, 11064		; 00002b38H
  01e2d	8b 0d 00 00 00
	00		 mov	 ecx, DWORD PTR ?gObj@@3PAUOBJECTSTRUCT@@A ; gObj
  01e33	8d 54 01 77	 lea	 edx, DWORD PTR [ecx+eax+119]
  01e37	52		 push	 edx
  01e38	8b 85 c8 fe ff
	ff		 mov	 eax, DWORD PTR _iWinnerIndex$236737[ebp]
  01e3e	69 c0 38 2b 00
	00		 imul	 eax, 11064		; 00002b38H
  01e44	8b 0d 00 00 00
	00		 mov	 ecx, DWORD PTR ?gObj@@3PAUOBJECTSTRUCT@@A ; gObj
  01e4a	8d 54 01 6c	 lea	 edx, DWORD PTR [ecx+eax+108]
  01e4e	52		 push	 edx
  01e4f	8b 45 08	 mov	 eax, DWORD PTR _iChaosCastleIndex$[ebp]
  01e52	83 c0 01	 add	 eax, 1
  01e55	50		 push	 eax
  01e56	68 00 00 00 00	 push	 OFFSET ??_C@_0KB@EOIGCIIB@?$FLChaos?5Castle?$FN?5?$CI?$CFd?$CJ?5?$FL?$CFs?$FN?$FL?$CFs?$FN?5is?5@
  01e5b	ff 15 00 00 00
	00		 call	 DWORD PTR ?LogAddTD@@3P6AXPADZZA ; LogAddTD
  01e61	83 c4 3c	 add	 esp, 60			; 0000003cH

; 597  : 
; 598  : 						this->SendWinMessage(iChaosCastleIndex, iWinnerIndex);

  01e64	8b 85 c8 fe ff
	ff		 mov	 eax, DWORD PTR _iWinnerIndex$236737[ebp]
  01e6a	50		 push	 eax
  01e6b	8b 4d 08	 mov	 ecx, DWORD PTR _iChaosCastleIndex$[ebp]
  01e6e	51		 push	 ecx
  01e6f	8b 4d f8	 mov	 ecx, DWORD PTR _this$[ebp]
  01e72	e8 00 00 00 00	 call	 ?SendWinMessage@CChaosCastle@@QAEXHH@Z ; CChaosCastle::SendWinMessage

; 599  : 						this->GiveWinnerItem(iChaosCastleIndex, iWinnerIndex);

  01e77	8b 85 c8 fe ff
	ff		 mov	 eax, DWORD PTR _iWinnerIndex$236737[ebp]
  01e7d	50		 push	 eax
  01e7e	8b 4d 08	 mov	 ecx, DWORD PTR _iChaosCastleIndex$[ebp]
  01e81	51		 push	 ecx
  01e82	8b 4d f8	 mov	 ecx, DWORD PTR _this$[ebp]
  01e85	e8 00 00 00 00	 call	 ?GiveWinnerItem@CChaosCastle@@QAEXHH@Z ; CChaosCastle::GiveWinnerItem

; 600  : 					}
; 601  : 					else

  01e8a	eb 15		 jmp	 SHORT $LN18@ProcState_@2
$LN19@ProcState_@2:

; 602  : 					{
; 603  : 						LogAddTD("[Chaos Castle] (%d) Has No Winner.", iChaosCastleIndex+1);

  01e8c	8b 45 08	 mov	 eax, DWORD PTR _iChaosCastleIndex$[ebp]
  01e8f	83 c0 01	 add	 eax, 1
  01e92	50		 push	 eax
  01e93	68 00 00 00 00	 push	 OFFSET ??_C@_0CD@JOONMNFN@?$FLChaos?5Castle?$FN?5?$CI?$CFd?$CJ?5Has?5No?5Winne@
  01e98	ff 15 00 00 00
	00		 call	 DWORD PTR ?LogAddTD@@3P6AXPADZZA ; LogAddTD
  01e9e	83 c4 08	 add	 esp, 8
$LN18@ProcState_@2:

; 604  : 					}
; 605  : 				}
; 606  : 				else

  01ea1	eb 26		 jmp	 SHORT $LN17@ProcState_@2
$LN20@ProcState_@2:

; 607  : 				{
; 608  : 					LogAddTD("[Chaos Castle] (%d) Has No Winner : Monster Left (%d)",
; 609  : 						iChaosCastleIndex+1, this->m_stChaosCastleData[iChaosCastleIndex].m_lCC_CURRENT_MONSTER_COUNT);

  01ea3	8b 45 08	 mov	 eax, DWORD PTR _iChaosCastleIndex$[ebp]
  01ea6	69 c0 70 08 00
	00		 imul	 eax, 2160		; 00000870H
  01eac	8b 4d f8	 mov	 ecx, DWORD PTR _this$[ebp]
  01eaf	8b 54 01 60	 mov	 edx, DWORD PTR [ecx+eax+96]
  01eb3	52		 push	 edx
  01eb4	8b 45 08	 mov	 eax, DWORD PTR _iChaosCastleIndex$[ebp]
  01eb7	83 c0 01	 add	 eax, 1
  01eba	50		 push	 eax
  01ebb	68 00 00 00 00	 push	 OFFSET ??_C@_0DG@DNCOEMLJ@?$FLChaos?5Castle?$FN?5?$CI?$CFd?$CJ?5Has?5No?5Winne@
  01ec0	ff 15 00 00 00
	00		 call	 DWORD PTR ?LogAddTD@@3P6AXPADZZA ; LogAddTD
  01ec6	83 c4 0c	 add	 esp, 12			; 0000000cH
$LN17@ProcState_@2:

; 610  : 				}
; 611  : 
; 612  : 				this->SendAllLoserFailMessage(iChaosCastleIndex, iWinnerIndex);

  01ec9	8b 85 c8 fe ff
	ff		 mov	 eax, DWORD PTR _iWinnerIndex$236737[ebp]
  01ecf	50		 push	 eax
  01ed0	8b 4d 08	 mov	 ecx, DWORD PTR _iChaosCastleIndex$[ebp]
  01ed3	51		 push	 ecx
  01ed4	8b 4d f8	 mov	 ecx, DWORD PTR _this$[ebp]
  01ed7	e8 00 00 00 00	 call	 ?SendAllLoserFailMessage@CChaosCastle@@QAEXHH@Z ; CChaosCastle::SendAllLoserFailMessage

; 613  : 				this->SetState(iChaosCastleIndex, CC_STATE_PLAYEND);

  01edc	6a 03		 push	 3
  01ede	8b 45 08	 mov	 eax, DWORD PTR _iChaosCastleIndex$[ebp]
  01ee1	50		 push	 eax
  01ee2	8b 4d f8	 mov	 ecx, DWORD PTR _this$[ebp]
  01ee5	e8 00 00 00 00	 call	 ?SetState@CChaosCastle@@QAEXHH@Z ; CChaosCastle::SetState

; 614  : 
; 615  : 				return;

  01eea	e9 9b 04 00 00	 jmp	 $LN35@ProcState_@2
$LN21@ProcState_@2:

; 616  : 			}
; 617  : 		
; 618  : 			if ( bPlayEnded == FALSE )

  01eef	83 bd d4 fe ff
	ff 00		 cmp	 DWORD PTR _bPlayEnded$236725[ebp], 0
  01ef6	75 0e		 jne	 SHORT $LN16@ProcState_@2

; 619  : 			{
; 620  : 				this->SendNoticeState(iChaosCastleIndex, 6);

  01ef8	6a 06		 push	 6
  01efa	8b 45 08	 mov	 eax, DWORD PTR _iChaosCastleIndex$[ebp]
  01efd	50		 push	 eax
  01efe	8b 4d f8	 mov	 ecx, DWORD PTR _this$[ebp]
  01f01	e8 00 00 00 00	 call	 ?SendNoticeState@CChaosCastle@@QAEXHH@Z ; CChaosCastle::SendNoticeState
$LN16@ProcState_@2:

; 621  : 			}
; 622  : 		}
; 623  : 	}
; 624  : 
; 625  : 	if ( this->m_stChaosCastleData[iChaosCastleIndex].m_iCC_REMAIN_MSEC <= 0 )

  01f06	8b 45 08	 mov	 eax, DWORD PTR _iChaosCastleIndex$[ebp]
  01f09	69 c0 70 08 00
	00		 imul	 eax, 2160		; 00000870H
  01f0f	8b 4d f8	 mov	 ecx, DWORD PTR _this$[ebp]
  01f12	83 7c 01 40 00	 cmp	 DWORD PTR [ecx+eax+64], 0
  01f17	0f 8f 6d 04 00
	00		 jg	 $LN15@ProcState_@2

; 626  : 	{
; 627  : 		LogAddTD("[Chaos Castle] (%d) is Over : TIME-OUT (Left User:%d, Monster:%d)", iChaosCastleIndex+1, this->GetCurPlayUser(iChaosCastleIndex), this->GetMonsterListCount(iChaosCastleIndex));

  01f1d	8b 45 08	 mov	 eax, DWORD PTR _iChaosCastleIndex$[ebp]
  01f20	50		 push	 eax
  01f21	8b 4d f8	 mov	 ecx, DWORD PTR _this$[ebp]
  01f24	e8 00 00 00 00	 call	 ?GetMonsterListCount@CChaosCastle@@QAEHH@Z ; CChaosCastle::GetMonsterListCount
  01f29	50		 push	 eax
  01f2a	8b 4d 08	 mov	 ecx, DWORD PTR _iChaosCastleIndex$[ebp]
  01f2d	51		 push	 ecx
  01f2e	8b 4d f8	 mov	 ecx, DWORD PTR _this$[ebp]
  01f31	e8 00 00 00 00	 call	 ?GetCurPlayUser@CChaosCastle@@QAEHH@Z ; CChaosCastle::GetCurPlayUser
  01f36	50		 push	 eax
  01f37	8b 55 08	 mov	 edx, DWORD PTR _iChaosCastleIndex$[ebp]
  01f3a	83 c2 01	 add	 edx, 1
  01f3d	52		 push	 edx
  01f3e	68 00 00 00 00	 push	 OFFSET ??_C@_0EC@CDMJLAJE@?$FLChaos?5Castle?$FN?5?$CI?$CFd?$CJ?5is?5Over?5?3?5TI@
  01f43	ff 15 00 00 00
	00		 call	 DWORD PTR ?LogAddTD@@3P6AXPADZZA ; LogAddTD
  01f49	83 c4 10	 add	 esp, 16			; 00000010H

; 628  : 
; 629  : 		int iWinnerIndex = -1;

  01f4c	c7 85 c0 fe ff
	ff ff ff ff ff	 mov	 DWORD PTR _iWinnerIndex$236746[ebp], -1

; 630  : 		int iMonsterCount = this->GetMonsterListCount(iChaosCastleIndex);

  01f56	8b 45 08	 mov	 eax, DWORD PTR _iChaosCastleIndex$[ebp]
  01f59	50		 push	 eax
  01f5a	8b 4d f8	 mov	 ecx, DWORD PTR _this$[ebp]
  01f5d	e8 00 00 00 00	 call	 ?GetMonsterListCount@CChaosCastle@@QAEHH@Z ; CChaosCastle::GetMonsterListCount
  01f62	89 85 bc fe ff
	ff		 mov	 DWORD PTR _iMonsterCount$236747[ebp], eax

; 631  : 
; 632  : 		if ( iMonsterCount <= 0 )

  01f68	83 bd bc fe ff
	ff 00		 cmp	 DWORD PTR _iMonsterCount$236747[ebp], 0
  01f6f	0f 8f cb 01 00
	00		 jg	 $LN14@ProcState_@2

; 633  : 		{
; 634  : 			iWinnerIndex = this->GetCurrentWinUser(iChaosCastleIndex);

  01f75	8b 45 08	 mov	 eax, DWORD PTR _iChaosCastleIndex$[ebp]
  01f78	50		 push	 eax
  01f79	8b 4d f8	 mov	 ecx, DWORD PTR _this$[ebp]
  01f7c	e8 00 00 00 00	 call	 ?GetCurrentWinUser@CChaosCastle@@QAEHH@Z ; CChaosCastle::GetCurrentWinUser
  01f81	89 85 c0 fe ff
	ff		 mov	 DWORD PTR _iWinnerIndex$236746[ebp], eax

; 635  : 
; 636  : 			if ( iWinnerIndex != -1 )

  01f87	83 bd c0 fe ff
	ff ff		 cmp	 DWORD PTR _iWinnerIndex$236746[ebp], -1
  01f8e	0f 84 92 01 00
	00		 je	 $LN13@ProcState_@2

; 637  : 			{
; 638  : 				LogAddTD("[Chaos Castle] (%d) [%s][%s] is Winner. [CharInfoSave : Class=%d, Level=%d, LvPoint=%d, Exp=%d, Str=%d, Dex=%d, Vit=%d, Energy=%d, LeaderShip=%d, Map=%d, Pk=%d]",
; 639  : 					iChaosCastleIndex+1, gObj[iWinnerIndex].AccountID, gObj[iWinnerIndex].Name,
; 640  : 					gObj[iWinnerIndex].Class, gObj[iWinnerIndex].Level, gObj[iWinnerIndex].LevelUpPoint,
; 641  : 					gObj[iWinnerIndex].Experience, gObj[iWinnerIndex].Strength,
; 642  : 					gObj[iWinnerIndex].Dexterity, gObj[iWinnerIndex].Vitality, gObj[iWinnerIndex].Energy,
; 643  : 					gObj[iWinnerIndex].Leadership, gObj[iWinnerIndex].MapNumber, gObj[iWinnerIndex].m_PK_Level);

  01f94	8b 85 c0 fe ff
	ff		 mov	 eax, DWORD PTR _iWinnerIndex$236746[ebp]
  01f9a	69 c0 38 2b 00
	00		 imul	 eax, 11064		; 00002b38H
  01fa0	8b 0d 00 00 00
	00		 mov	 ecx, DWORD PTR ?gObj@@3PAUOBJECTSTRUCT@@A ; gObj
  01fa6	0f be 94 01 3d
	01 00 00	 movsx	 edx, BYTE PTR [ecx+eax+317]
  01fae	52		 push	 edx
  01faf	8b 85 c0 fe ff
	ff		 mov	 eax, DWORD PTR _iWinnerIndex$236746[ebp]
  01fb5	69 c0 38 2b 00
	00		 imul	 eax, 11064		; 00002b38H
  01fbb	8b 0d 00 00 00
	00		 mov	 ecx, DWORD PTR ?gObj@@3PAUOBJECTSTRUCT@@A ; gObj
  01fc1	0f b6 94 01 49
	01 00 00	 movzx	 edx, BYTE PTR [ecx+eax+329]
  01fc9	52		 push	 edx
  01fca	8b 85 c0 fe ff
	ff		 mov	 eax, DWORD PTR _iWinnerIndex$236746[ebp]
  01fd0	69 c0 38 2b 00
	00		 imul	 eax, 11064		; 00002b38H
  01fd6	8b 0d 00 00 00
	00		 mov	 ecx, DWORD PTR ?gObj@@3PAUOBJECTSTRUCT@@A ; gObj
  01fdc	0f b7 94 01 18
	01 00 00	 movzx	 edx, WORD PTR [ecx+eax+280]
  01fe4	52		 push	 edx
  01fe5	8b 85 c0 fe ff
	ff		 mov	 eax, DWORD PTR _iWinnerIndex$236746[ebp]
  01feb	69 c0 38 2b 00
	00		 imul	 eax, 11064		; 00002b38H
  01ff1	8b 0d 00 00 00
	00		 mov	 ecx, DWORD PTR ?gObj@@3PAUOBJECTSTRUCT@@A ; gObj
  01ff7	0f b7 94 01 fa
	00 00 00	 movzx	 edx, WORD PTR [ecx+eax+250]
  01fff	52		 push	 edx
  02000	8b 85 c0 fe ff
	ff		 mov	 eax, DWORD PTR _iWinnerIndex$236746[ebp]
  02006	69 c0 38 2b 00
	00		 imul	 eax, 11064		; 00002b38H
  0200c	8b 0d 00 00 00
	00		 mov	 ecx, DWORD PTR ?gObj@@3PAUOBJECTSTRUCT@@A ; gObj
  02012	0f b7 94 01 f8
	00 00 00	 movzx	 edx, WORD PTR [ecx+eax+248]
  0201a	52		 push	 edx
  0201b	8b 85 c0 fe ff
	ff		 mov	 eax, DWORD PTR _iWinnerIndex$236746[ebp]
  02021	69 c0 38 2b 00
	00		 imul	 eax, 11064		; 00002b38H
  02027	8b 0d 00 00 00
	00		 mov	 ecx, DWORD PTR ?gObj@@3PAUOBJECTSTRUCT@@A ; gObj
  0202d	0f b7 94 01 f6
	00 00 00	 movzx	 edx, WORD PTR [ecx+eax+246]
  02035	52		 push	 edx
  02036	8b 85 c0 fe ff
	ff		 mov	 eax, DWORD PTR _iWinnerIndex$236746[ebp]
  0203c	69 c0 38 2b 00
	00		 imul	 eax, 11064		; 00002b38H
  02042	8b 0d 00 00 00
	00		 mov	 ecx, DWORD PTR ?gObj@@3PAUOBJECTSTRUCT@@A ; gObj
  02048	0f b7 94 01 f4
	00 00 00	 movzx	 edx, WORD PTR [ecx+eax+244]
  02050	52		 push	 edx
  02051	8b 85 c0 fe ff
	ff		 mov	 eax, DWORD PTR _iWinnerIndex$236746[ebp]
  02057	69 c0 38 2b 00
	00		 imul	 eax, 11064		; 00002b38H
  0205d	8b 0d 00 00 00
	00		 mov	 ecx, DWORD PTR ?gObj@@3PAUOBJECTSTRUCT@@A ; gObj
  02063	8b 94 01 c8 00
	00 00		 mov	 edx, DWORD PTR [ecx+eax+200]
  0206a	52		 push	 edx
  0206b	8b 85 c0 fe ff
	ff		 mov	 eax, DWORD PTR _iWinnerIndex$236746[ebp]
  02071	69 c0 38 2b 00
	00		 imul	 eax, 11064		; 00002b38H
  02077	8b 0d 00 00 00
	00		 mov	 ecx, DWORD PTR ?gObj@@3PAUOBJECTSTRUCT@@A ; gObj
  0207d	8b 94 01 c0 00
	00 00		 mov	 edx, DWORD PTR [ecx+eax+192]
  02084	52		 push	 edx
  02085	8b 85 c0 fe ff
	ff		 mov	 eax, DWORD PTR _iWinnerIndex$236746[ebp]
  0208b	69 c0 38 2b 00
	00		 imul	 eax, 11064		; 00002b38H
  02091	8b 0d 00 00 00
	00		 mov	 ecx, DWORD PTR ?gObj@@3PAUOBJECTSTRUCT@@A ; gObj
  02097	0f bf 94 01 be
	00 00 00	 movsx	 edx, WORD PTR [ecx+eax+190]
  0209f	52		 push	 edx
  020a0	8b 85 c0 fe ff
	ff		 mov	 eax, DWORD PTR _iWinnerIndex$236746[ebp]
  020a6	69 c0 38 2b 00
	00		 imul	 eax, 11064		; 00002b38H
  020ac	8b 0d 00 00 00
	00		 mov	 ecx, DWORD PTR ?gObj@@3PAUOBJECTSTRUCT@@A ; gObj
  020b2	0f b7 94 01 b8
	00 00 00	 movzx	 edx, WORD PTR [ecx+eax+184]
  020ba	52		 push	 edx
  020bb	8b 85 c0 fe ff
	ff		 mov	 eax, DWORD PTR _iWinnerIndex$236746[ebp]
  020c1	69 c0 38 2b 00
	00		 imul	 eax, 11064		; 00002b38H
  020c7	8b 0d 00 00 00
	00		 mov	 ecx, DWORD PTR ?gObj@@3PAUOBJECTSTRUCT@@A ; gObj
  020cd	8d 54 01 77	 lea	 edx, DWORD PTR [ecx+eax+119]
  020d1	52		 push	 edx
  020d2	8b 85 c0 fe ff
	ff		 mov	 eax, DWORD PTR _iWinnerIndex$236746[ebp]
  020d8	69 c0 38 2b 00
	00		 imul	 eax, 11064		; 00002b38H
  020de	8b 0d 00 00 00
	00		 mov	 ecx, DWORD PTR ?gObj@@3PAUOBJECTSTRUCT@@A ; gObj
  020e4	8d 54 01 6c	 lea	 edx, DWORD PTR [ecx+eax+108]
  020e8	52		 push	 edx
  020e9	8b 45 08	 mov	 eax, DWORD PTR _iChaosCastleIndex$[ebp]
  020ec	83 c0 01	 add	 eax, 1
  020ef	50		 push	 eax
  020f0	68 00 00 00 00	 push	 OFFSET ??_C@_0KB@EOIGCIIB@?$FLChaos?5Castle?$FN?5?$CI?$CFd?$CJ?5?$FL?$CFs?$FN?$FL?$CFs?$FN?5is?5@
  020f5	ff 15 00 00 00
	00		 call	 DWORD PTR ?LogAddTD@@3P6AXPADZZA ; LogAddTD
  020fb	83 c4 3c	 add	 esp, 60			; 0000003cH

; 644  : 
; 645  : 				this->SendWinMessage(iChaosCastleIndex, iWinnerIndex);

  020fe	8b 85 c0 fe ff
	ff		 mov	 eax, DWORD PTR _iWinnerIndex$236746[ebp]
  02104	50		 push	 eax
  02105	8b 4d 08	 mov	 ecx, DWORD PTR _iChaosCastleIndex$[ebp]
  02108	51		 push	 ecx
  02109	8b 4d f8	 mov	 ecx, DWORD PTR _this$[ebp]
  0210c	e8 00 00 00 00	 call	 ?SendWinMessage@CChaosCastle@@QAEXHH@Z ; CChaosCastle::SendWinMessage

; 646  : 				this->GiveWinnerItem(iChaosCastleIndex, iWinnerIndex);

  02111	8b 85 c0 fe ff
	ff		 mov	 eax, DWORD PTR _iWinnerIndex$236746[ebp]
  02117	50		 push	 eax
  02118	8b 4d 08	 mov	 ecx, DWORD PTR _iChaosCastleIndex$[ebp]
  0211b	51		 push	 ecx
  0211c	8b 4d f8	 mov	 ecx, DWORD PTR _this$[ebp]
  0211f	e8 00 00 00 00	 call	 ?GiveWinnerItem@CChaosCastle@@QAEXHH@Z ; CChaosCastle::GiveWinnerItem

; 647  : 			}
; 648  : 			else

  02124	eb 15		 jmp	 SHORT $LN12@ProcState_@2
$LN13@ProcState_@2:

; 649  : 			{
; 650  : 				LogAddTD("[Chaos Castle] (%d) Has No Winner.", iChaosCastleIndex+1);

  02126	8b 45 08	 mov	 eax, DWORD PTR _iChaosCastleIndex$[ebp]
  02129	83 c0 01	 add	 eax, 1
  0212c	50		 push	 eax
  0212d	68 00 00 00 00	 push	 OFFSET ??_C@_0CD@JOONMNFN@?$FLChaos?5Castle?$FN?5?$CI?$CFd?$CJ?5Has?5No?5Winne@
  02132	ff 15 00 00 00
	00		 call	 DWORD PTR ?LogAddTD@@3P6AXPADZZA ; LogAddTD
  02138	83 c4 08	 add	 esp, 8
$LN12@ProcState_@2:

; 651  : 			}
; 652  : 		}
; 653  : 		else

  0213b	e9 29 02 00 00	 jmp	 $LN1@ProcState_@2
$LN14@ProcState_@2:

; 654  : 		{
; 655  : 			if( this->GetCurrentState(iChaosCastleIndex) == 1) //season 2.5 add-on

  02140	8b 45 08	 mov	 eax, DWORD PTR _iChaosCastleIndex$[ebp]
  02143	50		 push	 eax
  02144	8b 4d f8	 mov	 ecx, DWORD PTR _this$[ebp]
  02147	e8 00 00 00 00	 call	 ?GetCurrentState@CChaosCastle@@QAEHH@Z ; CChaosCastle::GetCurrentState
  0214c	83 f8 01	 cmp	 eax, 1
  0214f	0f 85 ee 01 00
	00		 jne	 $LN10@ProcState_@2

; 656  : 			{
; 657  : 				for ( int i=0;i<MAX_CHAOSCASTLE_MONSTER;i++)

  02155	c7 85 b8 fe ff
	ff 00 00 00 00	 mov	 DWORD PTR _i$236753[ebp], 0
  0215f	eb 0f		 jmp	 SHORT $LN9@ProcState_@2
$LN8@ProcState_@2:
  02161	8b 85 b8 fe ff
	ff		 mov	 eax, DWORD PTR _i$236753[ebp]
  02167	83 c0 01	 add	 eax, 1
  0216a	89 85 b8 fe ff
	ff		 mov	 DWORD PTR _i$236753[ebp], eax
$LN9@ProcState_@2:
  02170	83 bd b8 fe ff
	ff 64		 cmp	 DWORD PTR _i$236753[ebp], 100 ; 00000064H
  02177	0f 8d c4 01 00
	00		 jge	 $LN7@ProcState_@2

; 658  : 				{
; 659  : 					if(this->m_stChaosCastleData[iChaosCastleIndex].m_lCC_MONSTER_COUNT[i] == -1)

  0217d	8b 45 08	 mov	 eax, DWORD PTR _iChaosCastleIndex$[ebp]
  02180	69 c0 70 08 00
	00		 imul	 eax, 2160		; 00000870H
  02186	8b 4d f8	 mov	 ecx, DWORD PTR _this$[ebp]
  02189	8d 54 01 30	 lea	 edx, DWORD PTR [ecx+eax+48]
  0218d	8b 85 b8 fe ff
	ff		 mov	 eax, DWORD PTR _i$236753[ebp]
  02193	83 bc 82 b4 05
	00 00 ff	 cmp	 DWORD PTR [edx+eax*4+1460], -1
  0219b	75 02		 jne	 SHORT $LN6@ProcState_@2

; 660  : 					{
; 661  : 						continue;

  0219d	eb c2		 jmp	 SHORT $LN8@ProcState_@2
$LN6@ProcState_@2:

; 662  : 					}
; 663  : 
; 664  : 					int CC_MONSTER_COUNT = this->m_stChaosCastleData[iChaosCastleIndex].m_lCC_MONSTER_COUNT[i];

  0219f	8b 45 08	 mov	 eax, DWORD PTR _iChaosCastleIndex$[ebp]
  021a2	69 c0 70 08 00
	00		 imul	 eax, 2160		; 00000870H
  021a8	8b 4d f8	 mov	 ecx, DWORD PTR _this$[ebp]
  021ab	8d 54 01 30	 lea	 edx, DWORD PTR [ecx+eax+48]
  021af	8b 85 b8 fe ff
	ff		 mov	 eax, DWORD PTR _i$236753[ebp]
  021b5	8b 8c 82 b4 05
	00 00		 mov	 ecx, DWORD PTR [edx+eax*4+1460]
  021bc	89 8d b4 fe ff
	ff		 mov	 DWORD PTR _CC_MONSTER_COUNT$236758[ebp], ecx

; 665  : 					
; 666  : 					if ( ((CC_MONSTER_COUNT<0)?FALSE:(CC_MONSTER_COUNT>OBJ_MAXMONSTER-1)?FALSE:TRUE) == FALSE ) 

  021c2	83 bd b4 fe ff
	ff 00		 cmp	 DWORD PTR _CC_MONSTER_COUNT$236758[ebp], 0
  021c9	7d 0c		 jge	 SHORT $LN37@ProcState_@2
  021cb	c7 85 70 fe ff
	ff 00 00 00 00	 mov	 DWORD PTR tv637[ebp], 0
  021d5	eb 15		 jmp	 SHORT $LN38@ProcState_@2
$LN37@ProcState_@2:
  021d7	33 c0		 xor	 eax, eax
  021d9	81 bd b4 fe ff
	ff c7 32 00 00	 cmp	 DWORD PTR _CC_MONSTER_COUNT$236758[ebp], 12999 ; 000032c7H
  021e3	0f 9e c0	 setle	 al
  021e6	89 85 70 fe ff
	ff		 mov	 DWORD PTR tv637[ebp], eax
$LN38@ProcState_@2:
  021ec	83 bd 70 fe ff
	ff 00		 cmp	 DWORD PTR tv637[ebp], 0
  021f3	75 26		 jne	 SHORT $LN5@ProcState_@2

; 667  : 					{
; 668  : 						this->m_stChaosCastleData[iChaosCastleIndex].m_lCC_MONSTER_COUNT[i] = -1;

  021f5	8b 45 08	 mov	 eax, DWORD PTR _iChaosCastleIndex$[ebp]
  021f8	69 c0 70 08 00
	00		 imul	 eax, 2160		; 00000870H
  021fe	8b 4d f8	 mov	 ecx, DWORD PTR _this$[ebp]
  02201	8d 54 01 30	 lea	 edx, DWORD PTR [ecx+eax+48]
  02205	8b 85 b8 fe ff
	ff		 mov	 eax, DWORD PTR _i$236753[ebp]
  0220b	c7 84 82 b4 05
	00 00 ff ff ff
	ff		 mov	 DWORD PTR [edx+eax*4+1460], -1

; 669  : 						continue;

  02216	e9 46 ff ff ff	 jmp	 $LN8@ProcState_@2
$LN5@ProcState_@2:

; 670  : 					}
; 671  : 
; 672  : 					if(gObj[CC_MONSTER_COUNT].Life > 0.0f)

  0221b	8b 85 b4 fe ff
	ff		 mov	 eax, DWORD PTR _CC_MONSTER_COUNT$236758[ebp]
  02221	69 c0 38 2b 00
	00		 imul	 eax, 11064		; 00002b38H
  02227	8b 0d 00 00 00
	00		 mov	 ecx, DWORD PTR ?gObj@@3PAUOBJECTSTRUCT@@A ; gObj
  0222d	d9 84 01 fc 00
	00 00		 fld	 DWORD PTR [ecx+eax+252]
  02234	dc 1d 00 00 00
	00		 fcomp	 QWORD PTR __real@0000000000000000
  0223a	df e0		 fnstsw	 ax
  0223c	f6 c4 41	 test	 ah, 65			; 00000041H
  0223f	0f 85 f7 00 00
	00		 jne	 $LN2@ProcState_@2

; 673  : 					{
; 674  : 						if(CC_MAP_RANGE(gObj[CC_MONSTER_COUNT].MapNumber) != FALSE)

  02245	8b 85 b4 fe ff
	ff		 mov	 eax, DWORD PTR _CC_MONSTER_COUNT$236758[ebp]
  0224b	69 c0 38 2b 00
	00		 imul	 eax, 11064		; 00002b38H
  02251	8b 0d 00 00 00
	00		 mov	 ecx, DWORD PTR ?gObj@@3PAUOBJECTSTRUCT@@A ; gObj
  02257	0f b6 94 01 49
	01 00 00	 movzx	 edx, BYTE PTR [ecx+eax+329]
  0225f	83 fa 35	 cmp	 edx, 53			; 00000035H
  02262	75 0c		 jne	 SHORT $LN41@ProcState_@2
  02264	c7 85 70 fe ff
	ff 01 00 00 00	 mov	 DWORD PTR tv667[ebp], 1
  0226e	eb 5f		 jmp	 SHORT $LN42@ProcState_@2
$LN41@ProcState_@2:
  02270	8b 85 b4 fe ff
	ff		 mov	 eax, DWORD PTR _CC_MONSTER_COUNT$236758[ebp]
  02276	69 c0 38 2b 00
	00		 imul	 eax, 11064		; 00002b38H
  0227c	8b 0d 00 00 00
	00		 mov	 ecx, DWORD PTR ?gObj@@3PAUOBJECTSTRUCT@@A ; gObj
  02282	0f b6 94 01 49
	01 00 00	 movzx	 edx, BYTE PTR [ecx+eax+329]
  0228a	83 fa 12	 cmp	 edx, 18			; 00000012H
  0228d	7d 0c		 jge	 SHORT $LN39@ProcState_@2
  0228f	c7 85 6c fe ff
	ff 00 00 00 00	 mov	 DWORD PTR tv666[ebp], 0
  02299	eb 28		 jmp	 SHORT $LN40@ProcState_@2
$LN39@ProcState_@2:
  0229b	8b 85 b4 fe ff
	ff		 mov	 eax, DWORD PTR _CC_MONSTER_COUNT$236758[ebp]
  022a1	69 c0 38 2b 00
	00		 imul	 eax, 11064		; 00002b38H
  022a7	8b 0d 00 00 00
	00		 mov	 ecx, DWORD PTR ?gObj@@3PAUOBJECTSTRUCT@@A ; gObj
  022ad	0f b6 94 01 49
	01 00 00	 movzx	 edx, BYTE PTR [ecx+eax+329]
  022b5	33 c0		 xor	 eax, eax
  022b7	83 fa 17	 cmp	 edx, 23			; 00000017H
  022ba	0f 9e c0	 setle	 al
  022bd	89 85 6c fe ff
	ff		 mov	 DWORD PTR tv666[ebp], eax
$LN40@ProcState_@2:
  022c3	8b 8d 6c fe ff
	ff		 mov	 ecx, DWORD PTR tv666[ebp]
  022c9	89 8d 70 fe ff
	ff		 mov	 DWORD PTR tv667[ebp], ecx
$LN42@ProcState_@2:
  022cf	83 bd 70 fe ff
	ff 00		 cmp	 DWORD PTR tv667[ebp], 0
  022d6	74 64		 je	 SHORT $LN2@ProcState_@2

; 675  : 						{
; 676  : 							if(gObj[CC_MONSTER_COUNT].Connected > 0)

  022d8	8b 85 b4 fe ff
	ff		 mov	 eax, DWORD PTR _CC_MONSTER_COUNT$236758[ebp]
  022de	69 c0 38 2b 00
	00		 imul	 eax, 11064		; 00002b38H
  022e4	8b 0d 00 00 00
	00		 mov	 ecx, DWORD PTR ?gObj@@3PAUOBJECTSTRUCT@@A ; gObj
  022ea	83 7c 01 04 00	 cmp	 DWORD PTR [ecx+eax+4], 0
  022ef	7e 4b		 jle	 SHORT $LN2@ProcState_@2

; 677  : 							{
; 678  : 								LogAddTD("[Chaos Castle][Bug Tracer] (%d) Left Monster AttrInfo %d/%d", iChaosCastleIndex+1, gObj[CC_MONSTER_COUNT].X, gObj[CC_MONSTER_COUNT].Y);

  022f1	8b 85 b4 fe ff
	ff		 mov	 eax, DWORD PTR _CC_MONSTER_COUNT$236758[ebp]
  022f7	69 c0 38 2b 00
	00		 imul	 eax, 11064		; 00002b38H
  022fd	8b 0d 00 00 00
	00		 mov	 ecx, DWORD PTR ?gObj@@3PAUOBJECTSTRUCT@@A ; gObj
  02303	0f bf 94 01 46
	01 00 00	 movsx	 edx, WORD PTR [ecx+eax+326]
  0230b	52		 push	 edx
  0230c	8b 85 b4 fe ff
	ff		 mov	 eax, DWORD PTR _CC_MONSTER_COUNT$236758[ebp]
  02312	69 c0 38 2b 00
	00		 imul	 eax, 11064		; 00002b38H
  02318	8b 0d 00 00 00
	00		 mov	 ecx, DWORD PTR ?gObj@@3PAUOBJECTSTRUCT@@A ; gObj
  0231e	0f bf 94 01 44
	01 00 00	 movsx	 edx, WORD PTR [ecx+eax+324]
  02326	52		 push	 edx
  02327	8b 45 08	 mov	 eax, DWORD PTR _iChaosCastleIndex$[ebp]
  0232a	83 c0 01	 add	 eax, 1
  0232d	50		 push	 eax
  0232e	68 00 00 00 00	 push	 OFFSET ??_C@_0DM@ENGGGAC@?$FLChaos?5Castle?$FN?$FLBug?5Tracer?$FN?5?$CI?$CFd?$CJ?5@
  02333	ff 15 00 00 00
	00		 call	 DWORD PTR ?LogAddTD@@3P6AXPADZZA ; LogAddTD
  02339	83 c4 10	 add	 esp, 16			; 00000010H
$LN2@ProcState_@2:

; 679  : 							}
; 680  : 						}
; 681  : 					}
; 682  : 				}

  0233c	e9 20 fe ff ff	 jmp	 $LN8@ProcState_@2
$LN7@ProcState_@2:

; 683  : 			}
; 684  : 			else

  02341	eb 26		 jmp	 SHORT $LN1@ProcState_@2
$LN10@ProcState_@2:

; 685  : 			{
; 686  : 				LogAddTD("[Chaos Castle] (%d) Has No Winner : Monster Left (%d)", iChaosCastleIndex+1, this->m_stChaosCastleData[iChaosCastleIndex].m_lCC_CURRENT_MONSTER_COUNT);

  02343	8b 45 08	 mov	 eax, DWORD PTR _iChaosCastleIndex$[ebp]
  02346	69 c0 70 08 00
	00		 imul	 eax, 2160		; 00000870H
  0234c	8b 4d f8	 mov	 ecx, DWORD PTR _this$[ebp]
  0234f	8b 54 01 60	 mov	 edx, DWORD PTR [ecx+eax+96]
  02353	52		 push	 edx
  02354	8b 45 08	 mov	 eax, DWORD PTR _iChaosCastleIndex$[ebp]
  02357	83 c0 01	 add	 eax, 1
  0235a	50		 push	 eax
  0235b	68 00 00 00 00	 push	 OFFSET ??_C@_0DG@DNCOEMLJ@?$FLChaos?5Castle?$FN?5?$CI?$CFd?$CJ?5Has?5No?5Winne@
  02360	ff 15 00 00 00
	00		 call	 DWORD PTR ?LogAddTD@@3P6AXPADZZA ; LogAddTD
  02366	83 c4 0c	 add	 esp, 12			; 0000000cH
$LN1@ProcState_@2:

; 687  : 			}
; 688  : 		}
; 689  : 
; 690  : 		this->SendAllLoserFailMessage(iChaosCastleIndex, iWinnerIndex);

  02369	8b 85 c0 fe ff
	ff		 mov	 eax, DWORD PTR _iWinnerIndex$236746[ebp]
  0236f	50		 push	 eax
  02370	8b 4d 08	 mov	 ecx, DWORD PTR _iChaosCastleIndex$[ebp]
  02373	51		 push	 ecx
  02374	8b 4d f8	 mov	 ecx, DWORD PTR _this$[ebp]
  02377	e8 00 00 00 00	 call	 ?SendAllLoserFailMessage@CChaosCastle@@QAEXHH@Z ; CChaosCastle::SendAllLoserFailMessage

; 691  : 		this->SetState(iChaosCastleIndex, CC_STATE_PLAYEND);

  0237c	6a 03		 push	 3
  0237e	8b 45 08	 mov	 eax, DWORD PTR _iChaosCastleIndex$[ebp]
  02381	50		 push	 eax
  02382	8b 4d f8	 mov	 ecx, DWORD PTR _this$[ebp]
  02385	e8 00 00 00 00	 call	 ?SetState@CChaosCastle@@QAEXHH@Z ; CChaosCastle::SetState
$LN15@ProcState_@2:
$LN35@ProcState_@2:

; 692  : 	}
; 693  : }

  0238a	5f		 pop	 edi
  0238b	5e		 pop	 esi
  0238c	5b		 pop	 ebx
  0238d	8b 4d fc	 mov	 ecx, DWORD PTR __$ArrayPad$[ebp]
  02390	33 cd		 xor	 ecx, ebp
  02392	e8 00 00 00 00	 call	 @__security_check_cookie@4
  02397	8b e5		 mov	 esp, ebp
  02399	5d		 pop	 ebp
  0239a	c2 04 00	 ret	 4
?ProcState_Playing@CChaosCastle@@IAEXH@Z ENDP		; CChaosCastle::ProcState_Playing
_TEXT	ENDS
PUBLIC	?ObjSetPosition@CChaosCastle@@QAEHHHH@Z		; CChaosCastle::ObjSetPosition
PUBLIC	?pop_back@?$vector@UtagPOINT@@V?$allocator@UtagPOINT@@@std@@@std@@QAEXXZ ; std::vector<tagPOINT,std::allocator<tagPOINT> >::pop_back
PUBLIC	?back@?$vector@UtagPOINT@@V?$allocator@UtagPOINT@@@std@@@std@@QAEAAUtagPOINT@@XZ ; std::vector<tagPOINT,std::allocator<tagPOINT> >::back
PUBLIC	?empty@?$vector@UtagPOINT@@V?$allocator@UtagPOINT@@@std@@@std@@QBE_NXZ ; std::vector<tagPOINT,std::allocator<tagPOINT> >::empty
PUBLIC	?push_back@?$vector@UtagPOINT@@V?$allocator@UtagPOINT@@@std@@@std@@QAEXABUtagPOINT@@@Z ; std::vector<tagPOINT,std::allocator<tagPOINT> >::push_back
PUBLIC	??0?$vector@UtagPOINT@@V?$allocator@UtagPOINT@@@std@@@std@@QAE@XZ ; std::vector<tagPOINT,std::allocator<tagPOINT> >::vector<tagPOINT,std::allocator<tagPOINT> >
PUBLIC	??1?$vector@UtagPOINT@@V?$allocator@UtagPOINT@@@std@@@std@@QAE@XZ ; std::vector<tagPOINT,std::allocator<tagPOINT> >::~vector<tagPOINT,std::allocator<tagPOINT> >
PUBLIC	__$ArrayPad$
EXTRN	?IsItem@CItem@@QAEHXZ:PROC			; CItem::IsItem
EXTRN	?gObjIsConnected@@YAHH@Z:PROC			; gObjIsConnected
EXTRN	?GetAttr@MapClass@@QAEEHH@Z:PROC		; MapClass::GetAttr
EXTRN	?MapC@@3PAVMapClass@@A:BYTE			; MapC
xdata$x	SEGMENT
__unwindtable$?PullObjInnerPlace@CChaosCastle@@QAEXHH@Z DD 0ffffffffH
	DD	FLAT:__unwindfunclet$?PullObjInnerPlace@CChaosCastle@@QAEXHH@Z$0
__ehfuncinfo$?PullObjInnerPlace@CChaosCastle@@QAEXHH@Z DD 019930522H
	DD	01H
	DD	FLAT:__unwindtable$?PullObjInnerPlace@CChaosCastle@@QAEXHH@Z
	DD	2 DUP(00H)
	DD	2 DUP(00H)
	DD	00H
	DD	01H
; Function compile flags: /Odtp /ZI
xdata$x	ENDS
_TEXT	SEGMENT
tv322 = -272						; size = 4
tv323 = -268						; size = 4
tv293 = -268						; size = 4
tv72 = -268						; size = 4
tv67 = -268						; size = 4
_y$237186 = -200					; size = 4
_x$237185 = -196					; size = 4
_iMapNumber$237183 = -192				; size = 4
_iMAP_ITEM$237179 = -188				; size = 4
_ptEMPTY$237177 = -184					; size = 8
_n$237170 = -176					; size = 4
_btMapAttr$237168 = -169				; size = 1
_iMapNumber$237167 = -168				; size = 4
_iSY$237166 = -164					; size = 4
_iSX$237165 = -160					; size = 4
_iMON_INDEX$237162 = -156				; size = 4
_iMON$237157 = -152					; size = 4
_ptEMPTY$237155 = -148					; size = 8
_n$237148 = -140					; size = 4
_btMapAttr$237146 = -133				; size = 1
_iMapNumber$237145 = -132				; size = 4
_iSY$237144 = -128					; size = 4
_iSX$237143 = -124					; size = 4
_i$237137 = -120					; size = 4
_iPT$237136 = -116					; size = 8
_btMapAttr$237134 = -105				; size = 1
_iMapNumber$237133 = -104				; size = 4
_iMAPY$237129 = -100					; size = 4
_iMAPX$237125 = -96					; size = 4
_iAXIS$237121 = -92					; size = 4
_vtMAP_UNTRAP$ = -88					; size = 64
_iUSER_AXIS$ = -24					; size = 4
_this$ = -20						; size = 4
__$ArrayPad$ = -16					; size = 4
__$EHRec$ = -12						; size = 12
_iChaosCastleIndex$ = 8					; size = 4
_iTRAP_STEP$ = 12					; size = 4
?PullObjInnerPlace@CChaosCastle@@QAEXHH@Z PROC		; CChaosCastle::PullObjInnerPlace
; _this$ = ecx

; 696  : {

  023a0	55		 push	 ebp
  023a1	8b ec		 mov	 ebp, esp
  023a3	6a ff		 push	 -1
  023a5	68 00 00 00 00	 push	 __ehhandler$?PullObjInnerPlace@CChaosCastle@@QAEXHH@Z
  023aa	64 a1 00 00 00
	00		 mov	 eax, DWORD PTR fs:0
  023b0	50		 push	 eax
  023b1	81 ec 04 01 00
	00		 sub	 esp, 260		; 00000104H
  023b7	a1 00 00 00 00	 mov	 eax, DWORD PTR ___security_cookie
  023bc	33 c5		 xor	 eax, ebp
  023be	89 45 f0	 mov	 DWORD PTR __$ArrayPad$[ebp], eax
  023c1	53		 push	 ebx
  023c2	56		 push	 esi
  023c3	57		 push	 edi
  023c4	50		 push	 eax
  023c5	8d 45 f4	 lea	 eax, DWORD PTR __$EHRec$[ebp]
  023c8	64 a3 00 00 00
	00		 mov	 DWORD PTR fs:0, eax
  023ce	89 4d ec	 mov	 DWORD PTR _this$[ebp], ecx

; 697  : 	if ( CC_FLOOR_RANGE(iChaosCastleIndex) == FALSE )

  023d1	83 7d 08 00	 cmp	 DWORD PTR _iChaosCastleIndex$[ebp], 0
  023d5	7d 0c		 jge	 SHORT $LN49@PullObjInn
  023d7	c7 85 f4 fe ff
	ff 00 00 00 00	 mov	 DWORD PTR tv67[ebp], 0
  023e1	eb 0f		 jmp	 SHORT $LN50@PullObjInn
$LN49@PullObjInn:
  023e3	33 c0		 xor	 eax, eax
  023e5	83 7d 08 06	 cmp	 DWORD PTR _iChaosCastleIndex$[ebp], 6
  023e9	0f 9e c0	 setle	 al
  023ec	89 85 f4 fe ff
	ff		 mov	 DWORD PTR tv67[ebp], eax
$LN50@PullObjInn:
  023f2	83 bd f4 fe ff
	ff 00		 cmp	 DWORD PTR tv67[ebp], 0
  023f9	75 05		 jne	 SHORT $LN46@PullObjInn

; 698  : 		return;

  023fb	e9 e0 08 00 00	 jmp	 $LN47@PullObjInn
$LN46@PullObjInn:

; 699  : 
; 700  : 	if ( CC_TRAP_STEP_RANGE(iTRAP_STEP) == FALSE )

  02400	83 7d 0c 00	 cmp	 DWORD PTR _iTRAP_STEP$[ebp], 0
  02404	7d 0c		 jge	 SHORT $LN51@PullObjInn
  02406	c7 85 f4 fe ff
	ff 00 00 00 00	 mov	 DWORD PTR tv72[ebp], 0
  02410	eb 0f		 jmp	 SHORT $LN52@PullObjInn
$LN51@PullObjInn:
  02412	33 c0		 xor	 eax, eax
  02414	83 7d 0c 03	 cmp	 DWORD PTR _iTRAP_STEP$[ebp], 3
  02418	0f 9e c0	 setle	 al
  0241b	89 85 f4 fe ff
	ff		 mov	 DWORD PTR tv72[ebp], eax
$LN52@PullObjInn:
  02421	83 bd f4 fe ff
	ff 00		 cmp	 DWORD PTR tv72[ebp], 0
  02428	75 05		 jne	 SHORT $LN45@PullObjInn

; 701  : 		return;

  0242a	e9 b1 08 00 00	 jmp	 $LN47@PullObjInn
$LN45@PullObjInn:

; 702  : 
; 703  : 	if ( iTRAP_STEP == 0 )

  0242f	83 7d 0c 00	 cmp	 DWORD PTR _iTRAP_STEP$[ebp], 0
  02433	75 05		 jne	 SHORT $LN44@PullObjInn

; 704  : 		return;

  02435	e9 a6 08 00 00	 jmp	 $LN47@PullObjInn
$LN44@PullObjInn:

; 705  : 
; 706  : 	int iUSER_AXIS = 0;

  0243a	c7 45 e8 00 00
	00 00		 mov	 DWORD PTR _iUSER_AXIS$[ebp], 0

; 707  : 	std::vector<POINT> vtMAP_UNTRAP[MAX_CC_TRAP_STEP];

  02441	68 00 00 00 00	 push	 OFFSET ??1?$vector@UtagPOINT@@V?$allocator@UtagPOINT@@@std@@@std@@QAE@XZ ; std::vector<tagPOINT,std::allocator<tagPOINT> >::~vector<tagPOINT,std::allocator<tagPOINT> >
  02446	68 00 00 00 00	 push	 OFFSET ??0?$vector@UtagPOINT@@V?$allocator@UtagPOINT@@@std@@@std@@QAE@XZ ; std::vector<tagPOINT,std::allocator<tagPOINT> >::vector<tagPOINT,std::allocator<tagPOINT> >
  0244b	6a 04		 push	 4
  0244d	6a 10		 push	 16			; 00000010H
  0244f	8d 45 a8	 lea	 eax, DWORD PTR _vtMAP_UNTRAP$[ebp]
  02452	50		 push	 eax
  02453	e8 00 00 00 00	 call	 ??_L@YGXPAXIHP6EX0@Z1@Z
  02458	c7 45 fc 00 00
	00 00		 mov	 DWORD PTR __$EHRec$[ebp+8], 0

; 708  : 
; 709  : 	for ( int iAXIS = 0; iAXIS < MAX_CC_TRAP_STEP ; iAXIS++)

  0245f	c7 45 a4 00 00
	00 00		 mov	 DWORD PTR _iAXIS$237121[ebp], 0
  02466	eb 09		 jmp	 SHORT $LN43@PullObjInn
$LN42@PullObjInn:
  02468	8b 45 a4	 mov	 eax, DWORD PTR _iAXIS$237121[ebp]
  0246b	83 c0 01	 add	 eax, 1
  0246e	89 45 a4	 mov	 DWORD PTR _iAXIS$237121[ebp], eax
$LN43@PullObjInn:
  02471	83 7d a4 04	 cmp	 DWORD PTR _iAXIS$237121[ebp], 4
  02475	0f 8d d1 00 00
	00		 jge	 $LN41@PullObjInn

; 710  : 	{
; 711  : 		for ( int iMAPX = g_rtPOINT_TRAP[iAXIS].left ; iMAPX <= g_rtPOINT_TRAP[iAXIS].right ; iMAPX ++ )

  0247b	8b 45 a4	 mov	 eax, DWORD PTR _iAXIS$237121[ebp]
  0247e	c1 e0 04	 shl	 eax, 4
  02481	8b 88 00 00 00
	00		 mov	 ecx, DWORD PTR _g_rtPOINT_TRAP[eax]
  02487	89 4d a0	 mov	 DWORD PTR _iMAPX$237125[ebp], ecx
  0248a	eb 09		 jmp	 SHORT $LN40@PullObjInn
$LN39@PullObjInn:
  0248c	8b 45 a0	 mov	 eax, DWORD PTR _iMAPX$237125[ebp]
  0248f	83 c0 01	 add	 eax, 1
  02492	89 45 a0	 mov	 DWORD PTR _iMAPX$237125[ebp], eax
$LN40@PullObjInn:
  02495	8b 45 a4	 mov	 eax, DWORD PTR _iAXIS$237121[ebp]
  02498	c1 e0 04	 shl	 eax, 4
  0249b	8b 4d a0	 mov	 ecx, DWORD PTR _iMAPX$237125[ebp]
  0249e	3b 88 08 00 00
	00		 cmp	 ecx, DWORD PTR _g_rtPOINT_TRAP[eax+8]
  024a4	0f 8f 9d 00 00
	00		 jg	 $LN38@PullObjInn

; 712  : 		{
; 713  : 			for ( int iMAPY = g_rtPOINT_TRAP[iAXIS].top ; iMAPY <= g_rtPOINT_TRAP[iAXIS].bottom ; iMAPY++ )

  024aa	8b 45 a4	 mov	 eax, DWORD PTR _iAXIS$237121[ebp]
  024ad	c1 e0 04	 shl	 eax, 4
  024b0	8b 88 04 00 00
	00		 mov	 ecx, DWORD PTR _g_rtPOINT_TRAP[eax+4]
  024b6	89 4d 9c	 mov	 DWORD PTR _iMAPY$237129[ebp], ecx
  024b9	eb 09		 jmp	 SHORT $LN37@PullObjInn
$LN36@PullObjInn:
  024bb	8b 45 9c	 mov	 eax, DWORD PTR _iMAPY$237129[ebp]
  024be	83 c0 01	 add	 eax, 1
  024c1	89 45 9c	 mov	 DWORD PTR _iMAPY$237129[ebp], eax
$LN37@PullObjInn:
  024c4	8b 45 a4	 mov	 eax, DWORD PTR _iAXIS$237121[ebp]
  024c7	c1 e0 04	 shl	 eax, 4
  024ca	8b 4d 9c	 mov	 ecx, DWORD PTR _iMAPY$237129[ebp]
  024cd	3b 88 0c 00 00
	00		 cmp	 ecx, DWORD PTR _g_rtPOINT_TRAP[eax+12]
  024d3	7f 6d		 jg	 SHORT $LN35@PullObjInn

; 714  : 			{
; 715  : 				int iMapNumber = this->GetChaosCastleMapNumber(iChaosCastleIndex);

  024d5	8b 45 08	 mov	 eax, DWORD PTR _iChaosCastleIndex$[ebp]
  024d8	50		 push	 eax
  024d9	8b 4d ec	 mov	 ecx, DWORD PTR _this$[ebp]
  024dc	e8 00 00 00 00	 call	 ?GetChaosCastleMapNumber@CChaosCastle@@QAEHH@Z ; CChaosCastle::GetChaosCastleMapNumber
  024e1	89 45 98	 mov	 DWORD PTR _iMapNumber$237133[ebp], eax

; 716  : 
; 717  : 				BYTE btMapAttr = MapC[iMapNumber].GetAttr(iMAPX, iMAPY);

  024e4	8b 45 9c	 mov	 eax, DWORD PTR _iMAPY$237129[ebp]
  024e7	50		 push	 eax
  024e8	8b 4d a0	 mov	 ecx, DWORD PTR _iMAPX$237125[ebp]
  024eb	51		 push	 ecx
  024ec	8b 4d 98	 mov	 ecx, DWORD PTR _iMapNumber$237133[ebp]
  024ef	69 c9 b8 3d 05
	00		 imul	 ecx, 343480		; 00053db8H
  024f5	81 c1 00 00 00
	00		 add	 ecx, OFFSET ?MapC@@3PAVMapClass@@A ; MapC
  024fb	e8 00 00 00 00	 call	 ?GetAttr@MapClass@@QAEEHH@Z ; MapClass::GetAttr
  02500	88 45 97	 mov	 BYTE PTR _btMapAttr$237134[ebp], al

; 718  : 
; 719  : 				if ( (btMapAttr&2) != 2 && (btMapAttr&4) != 4 && (btMapAttr&8) != 8 ) 

  02503	0f b6 45 97	 movzx	 eax, BYTE PTR _btMapAttr$237134[ebp]
  02507	83 e0 02	 and	 eax, 2
  0250a	75 31		 jne	 SHORT $LN34@PullObjInn
  0250c	0f b6 45 97	 movzx	 eax, BYTE PTR _btMapAttr$237134[ebp]
  02510	83 e0 04	 and	 eax, 4
  02513	75 28		 jne	 SHORT $LN34@PullObjInn
  02515	0f b6 45 97	 movzx	 eax, BYTE PTR _btMapAttr$237134[ebp]
  02519	83 e0 08	 and	 eax, 8
  0251c	75 1f		 jne	 SHORT $LN34@PullObjInn

; 720  : 				{
; 721  : 					POINT iPT = {iMAPX, iMAPY};

  0251e	8b 45 a0	 mov	 eax, DWORD PTR _iMAPX$237125[ebp]
  02521	89 45 8c	 mov	 DWORD PTR _iPT$237136[ebp], eax
  02524	8b 45 9c	 mov	 eax, DWORD PTR _iMAPY$237129[ebp]
  02527	89 45 90	 mov	 DWORD PTR _iPT$237136[ebp+4], eax

; 722  : 					vtMAP_UNTRAP[iAXIS].push_back(iPT);

  0252a	8d 45 8c	 lea	 eax, DWORD PTR _iPT$237136[ebp]
  0252d	50		 push	 eax
  0252e	8b 4d a4	 mov	 ecx, DWORD PTR _iAXIS$237121[ebp]
  02531	c1 e1 04	 shl	 ecx, 4
  02534	8d 4c 0d a8	 lea	 ecx, DWORD PTR _vtMAP_UNTRAP$[ebp+ecx]
  02538	e8 00 00 00 00	 call	 ?push_back@?$vector@UtagPOINT@@V?$allocator@UtagPOINT@@@std@@@std@@QAEXABUtagPOINT@@@Z ; std::vector<tagPOINT,std::allocator<tagPOINT> >::push_back
$LN34@PullObjInn:

; 723  : 				}
; 724  : 			}

  0253d	e9 79 ff ff ff	 jmp	 $LN36@PullObjInn
$LN35@PullObjInn:

; 725  : 		}

  02542	e9 45 ff ff ff	 jmp	 $LN39@PullObjInn
$LN38@PullObjInn:

; 726  : 	}

  02547	e9 1c ff ff ff	 jmp	 $LN42@PullObjInn
$LN41@PullObjInn:

; 727  : 
; 728  : 	for ( int i=0;i<MAX_CHAOSCASTLE_USER;i++)

  0254c	c7 45 88 00 00
	00 00		 mov	 DWORD PTR _i$237137[ebp], 0
  02553	eb 09		 jmp	 SHORT $LN33@PullObjInn
$LN32@PullObjInn:
  02555	8b 45 88	 mov	 eax, DWORD PTR _i$237137[ebp]
  02558	83 c0 01	 add	 eax, 1
  0255b	89 45 88	 mov	 DWORD PTR _i$237137[ebp], eax
$LN33@PullObjInn:
  0255e	83 7d 88 46	 cmp	 DWORD PTR _i$237137[ebp], 70 ; 00000046H
  02562	0f 8d 8b 02 00
	00		 jge	 $LN31@PullObjInn

; 729  : 	{
; 730  : 		if ( this->m_stChaosCastleData[iChaosCastleIndex].m_UserData[i].m_iIndex != -1 )

  02568	8b 45 08	 mov	 eax, DWORD PTR _iChaosCastleIndex$[ebp]
  0256b	69 c0 70 08 00
	00		 imul	 eax, 2160		; 00000870H
  02571	8b 4d ec	 mov	 ecx, DWORD PTR _this$[ebp]
  02574	8d 54 01 30	 lea	 edx, DWORD PTR [ecx+eax+48]
  02578	8b 45 88	 mov	 eax, DWORD PTR _i$237137[ebp]
  0257b	6b c0 14	 imul	 eax, 20			; 00000014H
  0257e	83 7c 02 3c ff	 cmp	 DWORD PTR [edx+eax+60], -1
  02583	0f 84 65 02 00
	00		 je	 $LN21@PullObjInn

; 731  : 		{
; 732  : 			if ( gObjIsConnected(this->m_stChaosCastleData[iChaosCastleIndex].m_UserData[i].m_iIndex) ==TRUE && gObj[this->m_stChaosCastleData[iChaosCastleIndex].m_UserData[i].m_iIndex].MapNumber == (this->GetChaosCastleMapNumber(iChaosCastleIndex)) )

  02589	8b 45 08	 mov	 eax, DWORD PTR _iChaosCastleIndex$[ebp]
  0258c	69 c0 70 08 00
	00		 imul	 eax, 2160		; 00000870H
  02592	8b 4d ec	 mov	 ecx, DWORD PTR _this$[ebp]
  02595	8d 54 01 30	 lea	 edx, DWORD PTR [ecx+eax+48]
  02599	8b 45 88	 mov	 eax, DWORD PTR _i$237137[ebp]
  0259c	6b c0 14	 imul	 eax, 20			; 00000014H
  0259f	8b 4c 02 3c	 mov	 ecx, DWORD PTR [edx+eax+60]
  025a3	51		 push	 ecx
  025a4	e8 00 00 00 00	 call	 ?gObjIsConnected@@YAHH@Z ; gObjIsConnected
  025a9	83 c4 04	 add	 esp, 4
  025ac	83 f8 01	 cmp	 eax, 1
  025af	0f 85 39 02 00
	00		 jne	 $LN21@PullObjInn
  025b5	8b 45 08	 mov	 eax, DWORD PTR _iChaosCastleIndex$[ebp]
  025b8	69 c0 70 08 00
	00		 imul	 eax, 2160		; 00000870H
  025be	8b 4d ec	 mov	 ecx, DWORD PTR _this$[ebp]
  025c1	8d 54 01 30	 lea	 edx, DWORD PTR [ecx+eax+48]
  025c5	8b 45 88	 mov	 eax, DWORD PTR _i$237137[ebp]
  025c8	6b c0 14	 imul	 eax, 20			; 00000014H
  025cb	8b 4c 02 3c	 mov	 ecx, DWORD PTR [edx+eax+60]
  025cf	69 c9 38 2b 00
	00		 imul	 ecx, 11064		; 00002b38H
  025d5	8b 15 00 00 00
	00		 mov	 edx, DWORD PTR ?gObj@@3PAUOBJECTSTRUCT@@A ; gObj
  025db	0f b6 b4 0a 49
	01 00 00	 movzx	 esi, BYTE PTR [edx+ecx+329]
  025e3	8b 45 08	 mov	 eax, DWORD PTR _iChaosCastleIndex$[ebp]
  025e6	50		 push	 eax
  025e7	8b 4d ec	 mov	 ecx, DWORD PTR _this$[ebp]
  025ea	e8 00 00 00 00	 call	 ?GetChaosCastleMapNumber@CChaosCastle@@QAEHH@Z ; CChaosCastle::GetChaosCastleMapNumber
  025ef	3b f0		 cmp	 esi, eax
  025f1	0f 85 f7 01 00
	00		 jne	 $LN21@PullObjInn

; 733  : 			{
; 734  : 				int iSX = gObj[this->m_stChaosCastleData[iChaosCastleIndex].m_UserData[i].m_iIndex].X;

  025f7	8b 45 08	 mov	 eax, DWORD PTR _iChaosCastleIndex$[ebp]
  025fa	69 c0 70 08 00
	00		 imul	 eax, 2160		; 00000870H
  02600	8b 4d ec	 mov	 ecx, DWORD PTR _this$[ebp]
  02603	8d 54 01 30	 lea	 edx, DWORD PTR [ecx+eax+48]
  02607	8b 45 88	 mov	 eax, DWORD PTR _i$237137[ebp]
  0260a	6b c0 14	 imul	 eax, 20			; 00000014H
  0260d	8b 4c 02 3c	 mov	 ecx, DWORD PTR [edx+eax+60]
  02611	69 c9 38 2b 00
	00		 imul	 ecx, 11064		; 00002b38H
  02617	8b 15 00 00 00
	00		 mov	 edx, DWORD PTR ?gObj@@3PAUOBJECTSTRUCT@@A ; gObj
  0261d	0f bf 84 0a 44
	01 00 00	 movsx	 eax, WORD PTR [edx+ecx+324]
  02625	89 45 84	 mov	 DWORD PTR _iSX$237143[ebp], eax

; 735  : 				int iSY = gObj[this->m_stChaosCastleData[iChaosCastleIndex].m_UserData[i].m_iIndex].Y;

  02628	8b 45 08	 mov	 eax, DWORD PTR _iChaosCastleIndex$[ebp]
  0262b	69 c0 70 08 00
	00		 imul	 eax, 2160		; 00000870H
  02631	8b 4d ec	 mov	 ecx, DWORD PTR _this$[ebp]
  02634	8d 54 01 30	 lea	 edx, DWORD PTR [ecx+eax+48]
  02638	8b 45 88	 mov	 eax, DWORD PTR _i$237137[ebp]
  0263b	6b c0 14	 imul	 eax, 20			; 00000014H
  0263e	8b 4c 02 3c	 mov	 ecx, DWORD PTR [edx+eax+60]
  02642	69 c9 38 2b 00
	00		 imul	 ecx, 11064		; 00002b38H
  02648	8b 15 00 00 00
	00		 mov	 edx, DWORD PTR ?gObj@@3PAUOBJECTSTRUCT@@A ; gObj
  0264e	0f bf 84 0a 46
	01 00 00	 movsx	 eax, WORD PTR [edx+ecx+326]
  02656	89 45 80	 mov	 DWORD PTR _iSY$237144[ebp], eax

; 736  : 
; 737  : 				int iMapNumber = this->GetChaosCastleMapNumber(iChaosCastleIndex);

  02659	8b 45 08	 mov	 eax, DWORD PTR _iChaosCastleIndex$[ebp]
  0265c	50		 push	 eax
  0265d	8b 4d ec	 mov	 ecx, DWORD PTR _this$[ebp]
  02660	e8 00 00 00 00	 call	 ?GetChaosCastleMapNumber@CChaosCastle@@QAEHH@Z ; CChaosCastle::GetChaosCastleMapNumber
  02665	89 85 7c ff ff
	ff		 mov	 DWORD PTR _iMapNumber$237145[ebp], eax

; 738  : 
; 739  : 				BYTE btMapAttr = MapC[iMapNumber].m_attrbuf[iSY * 256 + iSX] & 0x08;

  0266b	8b 85 7c ff ff
	ff		 mov	 eax, DWORD PTR _iMapNumber$237145[ebp]
  02671	69 c0 b8 3d 05
	00		 imul	 eax, 343480		; 00053db8H
  02677	8b 4d 80	 mov	 ecx, DWORD PTR _iSY$237144[ebp]
  0267a	c1 e1 08	 shl	 ecx, 8
  0267d	03 4d 84	 add	 ecx, DWORD PTR _iSX$237143[ebp]
  02680	8b 90 10 00 00
	00		 mov	 edx, DWORD PTR ?MapC@@3PAVMapClass@@A[eax+16]
  02686	0f b6 04 0a	 movzx	 eax, BYTE PTR [edx+ecx]
  0268a	83 e0 08	 and	 eax, 8
  0268d	88 85 7b ff ff
	ff		 mov	 BYTE PTR _btMapAttr$237146[ebp], al

; 740  : 
; 741  : 				if ( btMapAttr == 8 )

  02693	0f b6 85 7b ff
	ff ff		 movzx	 eax, BYTE PTR _btMapAttr$237146[ebp]
  0269a	83 f8 08	 cmp	 eax, 8
  0269d	0f 85 4b 01 00
	00		 jne	 $LN21@PullObjInn

; 742  : 				{
; 743  : 					int n=0;

  026a3	c7 85 74 ff ff
	ff 00 00 00 00	 mov	 DWORD PTR _n$237148[ebp], 0

; 744  : 					for ( n=0;n<MAX_CC_TRAP_STEP;n++)

  026ad	c7 85 74 ff ff
	ff 00 00 00 00	 mov	 DWORD PTR _n$237148[ebp], 0
  026b7	eb 0f		 jmp	 SHORT $LN27@PullObjInn
$LN26@PullObjInn:
  026b9	8b 85 74 ff ff
	ff		 mov	 eax, DWORD PTR _n$237148[ebp]
  026bf	83 c0 01	 add	 eax, 1
  026c2	89 85 74 ff ff
	ff		 mov	 DWORD PTR _n$237148[ebp], eax
$LN27@PullObjInn:
  026c8	83 bd 74 ff ff
	ff 04		 cmp	 DWORD PTR _n$237148[ebp], 4
  026cf	7d 5d		 jge	 SHORT $LN25@PullObjInn

; 745  : 					{
; 746  : 						if ( iSX >= g_rtPOINT_FRAME[n].left && iSX <= g_rtPOINT_FRAME[n].right &&
; 747  : 							 iSY >= g_rtPOINT_FRAME[n].top && iSY <= g_rtPOINT_FRAME[n].bottom )

  026d1	8b 85 74 ff ff
	ff		 mov	 eax, DWORD PTR _n$237148[ebp]
  026d7	c1 e0 04	 shl	 eax, 4
  026da	8b 4d 84	 mov	 ecx, DWORD PTR _iSX$237143[ebp]
  026dd	3b 88 00 00 00
	00		 cmp	 ecx, DWORD PTR _g_rtPOINT_FRAME[eax]
  026e3	7c 47		 jl	 SHORT $LN24@PullObjInn
  026e5	8b 85 74 ff ff
	ff		 mov	 eax, DWORD PTR _n$237148[ebp]
  026eb	c1 e0 04	 shl	 eax, 4
  026ee	8b 4d 84	 mov	 ecx, DWORD PTR _iSX$237143[ebp]
  026f1	3b 88 08 00 00
	00		 cmp	 ecx, DWORD PTR _g_rtPOINT_FRAME[eax+8]
  026f7	7f 33		 jg	 SHORT $LN24@PullObjInn
  026f9	8b 85 74 ff ff
	ff		 mov	 eax, DWORD PTR _n$237148[ebp]
  026ff	c1 e0 04	 shl	 eax, 4
  02702	8b 4d 80	 mov	 ecx, DWORD PTR _iSY$237144[ebp]
  02705	3b 88 04 00 00
	00		 cmp	 ecx, DWORD PTR _g_rtPOINT_FRAME[eax+4]
  0270b	7c 1f		 jl	 SHORT $LN24@PullObjInn
  0270d	8b 85 74 ff ff
	ff		 mov	 eax, DWORD PTR _n$237148[ebp]
  02713	c1 e0 04	 shl	 eax, 4
  02716	8b 4d 80	 mov	 ecx, DWORD PTR _iSY$237144[ebp]
  02719	3b 88 0c 00 00
	00		 cmp	 ecx, DWORD PTR _g_rtPOINT_FRAME[eax+12]
  0271f	7f 0b		 jg	 SHORT $LN24@PullObjInn

; 748  : 						{
; 749  : 							iUSER_AXIS = n;

  02721	8b 85 74 ff ff
	ff		 mov	 eax, DWORD PTR _n$237148[ebp]
  02727	89 45 e8	 mov	 DWORD PTR _iUSER_AXIS$[ebp], eax

; 750  : 							break;

  0272a	eb 02		 jmp	 SHORT $LN25@PullObjInn
$LN24@PullObjInn:

; 751  : 						}
; 752  : 					}

  0272c	eb 8b		 jmp	 SHORT $LN26@PullObjInn
$LN25@PullObjInn:

; 753  : 
; 754  : 					if ( n == MAX_CC_TRAP_STEP )

  0272e	83 bd 74 ff ff
	ff 04		 cmp	 DWORD PTR _n$237148[ebp], 4
  02735	75 05		 jne	 SHORT $LN23@PullObjInn

; 755  : 						continue;

  02737	e9 19 fe ff ff	 jmp	 $LN32@PullObjInn
$LN23@PullObjInn:

; 756  : 
; 757  : 					if ( vtMAP_UNTRAP[iUSER_AXIS].empty() == false )

  0273c	8b 45 e8	 mov	 eax, DWORD PTR _iUSER_AXIS$[ebp]
  0273f	c1 e0 04	 shl	 eax, 4
  02742	8d 4c 05 a8	 lea	 ecx, DWORD PTR _vtMAP_UNTRAP$[ebp+eax]
  02746	e8 00 00 00 00	 call	 ?empty@?$vector@UtagPOINT@@V?$allocator@UtagPOINT@@@std@@@std@@QBE_NXZ ; std::vector<tagPOINT,std::allocator<tagPOINT> >::empty
  0274b	0f b6 c8	 movzx	 ecx, al
  0274e	85 c9		 test	 ecx, ecx
  02750	0f 85 98 00 00
	00		 jne	 $LN21@PullObjInn

; 758  : 					{
; 759  : 						POINT ptEMPTY = vtMAP_UNTRAP[iUSER_AXIS].back();

  02756	8b 45 e8	 mov	 eax, DWORD PTR _iUSER_AXIS$[ebp]
  02759	c1 e0 04	 shl	 eax, 4
  0275c	8d 4c 05 a8	 lea	 ecx, DWORD PTR _vtMAP_UNTRAP$[ebp+eax]
  02760	e8 00 00 00 00	 call	 ?back@?$vector@UtagPOINT@@V?$allocator@UtagPOINT@@@std@@@std@@QAEAAUtagPOINT@@XZ ; std::vector<tagPOINT,std::allocator<tagPOINT> >::back
  02765	8b 08		 mov	 ecx, DWORD PTR [eax]
  02767	8b 50 04	 mov	 edx, DWORD PTR [eax+4]
  0276a	89 8d 6c ff ff
	ff		 mov	 DWORD PTR _ptEMPTY$237155[ebp], ecx
  02770	89 95 70 ff ff
	ff		 mov	 DWORD PTR _ptEMPTY$237155[ebp+4], edx

; 760  : 						vtMAP_UNTRAP[iUSER_AXIS].pop_back();

  02776	8b 45 e8	 mov	 eax, DWORD PTR _iUSER_AXIS$[ebp]
  02779	c1 e0 04	 shl	 eax, 4
  0277c	8d 4c 05 a8	 lea	 ecx, DWORD PTR _vtMAP_UNTRAP$[ebp+eax]
  02780	e8 00 00 00 00	 call	 ?pop_back@?$vector@UtagPOINT@@V?$allocator@UtagPOINT@@@std@@@std@@QAEXXZ ; std::vector<tagPOINT,std::allocator<tagPOINT> >::pop_back

; 761  : 
; 762  : 						if ( this->ObjSetPosition(this->m_stChaosCastleData[iChaosCastleIndex].m_UserData[i].m_iIndex, ptEMPTY.x, ptEMPTY.y) == TRUE )

  02785	8b 85 70 ff ff
	ff		 mov	 eax, DWORD PTR _ptEMPTY$237155[ebp+4]
  0278b	50		 push	 eax
  0278c	8b 8d 6c ff ff
	ff		 mov	 ecx, DWORD PTR _ptEMPTY$237155[ebp]
  02792	51		 push	 ecx
  02793	8b 55 08	 mov	 edx, DWORD PTR _iChaosCastleIndex$[ebp]
  02796	69 d2 70 08 00
	00		 imul	 edx, 2160		; 00000870H
  0279c	8b 45 ec	 mov	 eax, DWORD PTR _this$[ebp]
  0279f	8d 4c 10 30	 lea	 ecx, DWORD PTR [eax+edx+48]
  027a3	8b 55 88	 mov	 edx, DWORD PTR _i$237137[ebp]
  027a6	6b d2 14	 imul	 edx, 20			; 00000014H
  027a9	8b 44 11 3c	 mov	 eax, DWORD PTR [ecx+edx+60]
  027ad	50		 push	 eax
  027ae	8b 4d ec	 mov	 ecx, DWORD PTR _this$[ebp]
  027b1	e8 00 00 00 00	 call	 ?ObjSetPosition@CChaosCastle@@QAEHHHH@Z ; CChaosCastle::ObjSetPosition
  027b6	83 f8 01	 cmp	 eax, 1
  027b9	75 33		 jne	 SHORT $LN21@PullObjInn

; 763  : 						{
; 764  : 							gObj[this->m_stChaosCastleData[iChaosCastleIndex].m_UserData[i].m_iIndex].m_iChaosCastleBlowTime = GetTickCount();

  027bb	ff 15 00 00 00
	00		 call	 DWORD PTR __imp__GetTickCount@0
  027c1	8b 4d 08	 mov	 ecx, DWORD PTR _iChaosCastleIndex$[ebp]
  027c4	69 c9 70 08 00
	00		 imul	 ecx, 2160		; 00000870H
  027ca	8b 55 ec	 mov	 edx, DWORD PTR _this$[ebp]
  027cd	8d 4c 0a 30	 lea	 ecx, DWORD PTR [edx+ecx+48]
  027d1	8b 55 88	 mov	 edx, DWORD PTR _i$237137[ebp]
  027d4	6b d2 14	 imul	 edx, 20			; 00000014H
  027d7	8b 4c 11 3c	 mov	 ecx, DWORD PTR [ecx+edx+60]
  027db	69 c9 38 2b 00
	00		 imul	 ecx, 11064		; 00002b38H
  027e1	8b 15 00 00 00
	00		 mov	 edx, DWORD PTR ?gObj@@3PAUOBJECTSTRUCT@@A ; gObj
  027e7	89 84 0a a8 0e
	00 00		 mov	 DWORD PTR [edx+ecx+3752], eax
$LN21@PullObjInn:

; 765  : 						}
; 766  : 					}
; 767  : 				}
; 768  : 			}
; 769  : 		}
; 770  : 	}

  027ee	e9 62 fd ff ff	 jmp	 $LN32@PullObjInn
$LN31@PullObjInn:

; 771  : 
; 772  : 	for ( int iMON = 0; iMON < MAX_CHAOSCASTLE_MONSTER ; iMON++ )

  027f3	c7 85 68 ff ff
	ff 00 00 00 00	 mov	 DWORD PTR _iMON$237157[ebp], 0
  027fd	eb 0f		 jmp	 SHORT $LN20@PullObjInn
$LN19@PullObjInn:
  027ff	8b 85 68 ff ff
	ff		 mov	 eax, DWORD PTR _iMON$237157[ebp]
  02805	83 c0 01	 add	 eax, 1
  02808	89 85 68 ff ff
	ff		 mov	 DWORD PTR _iMON$237157[ebp], eax
$LN20@PullObjInn:
  0280e	83 bd 68 ff ff
	ff 64		 cmp	 DWORD PTR _iMON$237157[ebp], 100 ; 00000064H
  02815	0f 8d 3f 03 00
	00		 jge	 $LN18@PullObjInn

; 773  : 	{
; 774  : 		if ( this->m_stChaosCastleData[iChaosCastleIndex].m_lCC_MONSTER_COUNT[iMON] == -1 )

  0281b	8b 45 08	 mov	 eax, DWORD PTR _iChaosCastleIndex$[ebp]
  0281e	69 c0 70 08 00
	00		 imul	 eax, 2160		; 00000870H
  02824	8b 4d ec	 mov	 ecx, DWORD PTR _this$[ebp]
  02827	8d 54 01 30	 lea	 edx, DWORD PTR [ecx+eax+48]
  0282b	8b 85 68 ff ff
	ff		 mov	 eax, DWORD PTR _iMON$237157[ebp]
  02831	83 bc 82 b4 05
	00 00 ff	 cmp	 DWORD PTR [edx+eax*4+1460], -1
  02839	75 02		 jne	 SHORT $LN17@PullObjInn

; 775  : 			continue;

  0283b	eb c2		 jmp	 SHORT $LN19@PullObjInn
$LN17@PullObjInn:

; 776  : 
; 777  : 		int iMON_INDEX = this->m_stChaosCastleData[iChaosCastleIndex].m_lCC_MONSTER_COUNT[iMON];

  0283d	8b 45 08	 mov	 eax, DWORD PTR _iChaosCastleIndex$[ebp]
  02840	69 c0 70 08 00
	00		 imul	 eax, 2160		; 00000870H
  02846	8b 4d ec	 mov	 ecx, DWORD PTR _this$[ebp]
  02849	8d 54 01 30	 lea	 edx, DWORD PTR [ecx+eax+48]
  0284d	8b 85 68 ff ff
	ff		 mov	 eax, DWORD PTR _iMON$237157[ebp]
  02853	8b 8c 82 b4 05
	00 00		 mov	 ecx, DWORD PTR [edx+eax*4+1460]
  0285a	89 8d 64 ff ff
	ff		 mov	 DWORD PTR _iMON_INDEX$237162[ebp], ecx

; 778  : 
; 779  : 		if ( !CHECK_LIMIT(iMON_INDEX, OBJ_MAXMONSTER))

  02860	83 bd 64 ff ff
	ff 00		 cmp	 DWORD PTR _iMON_INDEX$237162[ebp], 0
  02867	7d 0c		 jge	 SHORT $LN53@PullObjInn
  02869	c7 85 f4 fe ff
	ff 00 00 00 00	 mov	 DWORD PTR tv293[ebp], 0
  02873	eb 15		 jmp	 SHORT $LN54@PullObjInn
$LN53@PullObjInn:
  02875	33 c0		 xor	 eax, eax
  02877	81 bd 64 ff ff
	ff c7 32 00 00	 cmp	 DWORD PTR _iMON_INDEX$237162[ebp], 12999 ; 000032c7H
  02881	0f 9e c0	 setle	 al
  02884	89 85 f4 fe ff
	ff		 mov	 DWORD PTR tv293[ebp], eax
$LN54@PullObjInn:
  0288a	83 bd f4 fe ff
	ff 00		 cmp	 DWORD PTR tv293[ebp], 0
  02891	75 26		 jne	 SHORT $LN16@PullObjInn

; 780  : 		{
; 781  : 			this->m_stChaosCastleData[iChaosCastleIndex].m_lCC_MONSTER_COUNT[iMON] = -1;

  02893	8b 45 08	 mov	 eax, DWORD PTR _iChaosCastleIndex$[ebp]
  02896	69 c0 70 08 00
	00		 imul	 eax, 2160		; 00000870H
  0289c	8b 4d ec	 mov	 ecx, DWORD PTR _this$[ebp]
  0289f	8d 54 01 30	 lea	 edx, DWORD PTR [ecx+eax+48]
  028a3	8b 85 68 ff ff
	ff		 mov	 eax, DWORD PTR _iMON$237157[ebp]
  028a9	c7 84 82 b4 05
	00 00 ff ff ff
	ff		 mov	 DWORD PTR [edx+eax*4+1460], -1

; 782  : 			continue;

  028b4	e9 46 ff ff ff	 jmp	 $LN19@PullObjInn
$LN16@PullObjInn:

; 783  : 		}
; 784  : 
; 785  : 		if ( gObj[iMON_INDEX].Life > 0.0f && CC_MAP_RANGE(gObj[iMON_INDEX].MapNumber) != FALSE && gObj[iMON_INDEX].Connected > PLAYER_EMPTY )

  028b9	8b 85 64 ff ff
	ff		 mov	 eax, DWORD PTR _iMON_INDEX$237162[ebp]
  028bf	69 c0 38 2b 00
	00		 imul	 eax, 11064		; 00002b38H
  028c5	8b 0d 00 00 00
	00		 mov	 ecx, DWORD PTR ?gObj@@3PAUOBJECTSTRUCT@@A ; gObj
  028cb	d9 84 01 fc 00
	00 00		 fld	 DWORD PTR [ecx+eax+252]
  028d2	dc 1d 00 00 00
	00		 fcomp	 QWORD PTR __real@0000000000000000
  028d8	df e0		 fnstsw	 ax
  028da	f6 c4 41	 test	 ah, 65			; 00000041H
  028dd	0f 85 72 02 00
	00		 jne	 $LN7@PullObjInn
  028e3	8b 85 64 ff ff
	ff		 mov	 eax, DWORD PTR _iMON_INDEX$237162[ebp]
  028e9	69 c0 38 2b 00
	00		 imul	 eax, 11064		; 00002b38H
  028ef	8b 0d 00 00 00
	00		 mov	 ecx, DWORD PTR ?gObj@@3PAUOBJECTSTRUCT@@A ; gObj
  028f5	0f b6 94 01 49
	01 00 00	 movzx	 edx, BYTE PTR [ecx+eax+329]
  028fd	83 fa 35	 cmp	 edx, 53			; 00000035H
  02900	75 0c		 jne	 SHORT $LN57@PullObjInn
  02902	c7 85 f4 fe ff
	ff 01 00 00 00	 mov	 DWORD PTR tv323[ebp], 1
  0290c	eb 5f		 jmp	 SHORT $LN58@PullObjInn
$LN57@PullObjInn:
  0290e	8b 85 64 ff ff
	ff		 mov	 eax, DWORD PTR _iMON_INDEX$237162[ebp]
  02914	69 c0 38 2b 00
	00		 imul	 eax, 11064		; 00002b38H
  0291a	8b 0d 00 00 00
	00		 mov	 ecx, DWORD PTR ?gObj@@3PAUOBJECTSTRUCT@@A ; gObj
  02920	0f b6 94 01 49
	01 00 00	 movzx	 edx, BYTE PTR [ecx+eax+329]
  02928	83 fa 12	 cmp	 edx, 18			; 00000012H
  0292b	7d 0c		 jge	 SHORT $LN55@PullObjInn
  0292d	c7 85 f0 fe ff
	ff 00 00 00 00	 mov	 DWORD PTR tv322[ebp], 0
  02937	eb 28		 jmp	 SHORT $LN56@PullObjInn
$LN55@PullObjInn:
  02939	8b 85 64 ff ff
	ff		 mov	 eax, DWORD PTR _iMON_INDEX$237162[ebp]
  0293f	69 c0 38 2b 00
	00		 imul	 eax, 11064		; 00002b38H
  02945	8b 0d 00 00 00
	00		 mov	 ecx, DWORD PTR ?gObj@@3PAUOBJECTSTRUCT@@A ; gObj
  0294b	0f b6 94 01 49
	01 00 00	 movzx	 edx, BYTE PTR [ecx+eax+329]
  02953	33 c0		 xor	 eax, eax
  02955	83 fa 17	 cmp	 edx, 23			; 00000017H
  02958	0f 9e c0	 setle	 al
  0295b	89 85 f0 fe ff
	ff		 mov	 DWORD PTR tv322[ebp], eax
$LN56@PullObjInn:
  02961	8b 8d f0 fe ff
	ff		 mov	 ecx, DWORD PTR tv322[ebp]
  02967	89 8d f4 fe ff
	ff		 mov	 DWORD PTR tv323[ebp], ecx
$LN58@PullObjInn:
  0296d	83 bd f4 fe ff
	ff 00		 cmp	 DWORD PTR tv323[ebp], 0
  02974	0f 84 db 01 00
	00		 je	 $LN7@PullObjInn
  0297a	8b 85 64 ff ff
	ff		 mov	 eax, DWORD PTR _iMON_INDEX$237162[ebp]
  02980	69 c0 38 2b 00
	00		 imul	 eax, 11064		; 00002b38H
  02986	8b 0d 00 00 00
	00		 mov	 ecx, DWORD PTR ?gObj@@3PAUOBJECTSTRUCT@@A ; gObj
  0298c	83 7c 01 04 00	 cmp	 DWORD PTR [ecx+eax+4], 0
  02991	0f 8e be 01 00
	00		 jle	 $LN7@PullObjInn

; 786  : 		{
; 787  : 			int iSX = gObj[iMON_INDEX].X;

  02997	8b 85 64 ff ff
	ff		 mov	 eax, DWORD PTR _iMON_INDEX$237162[ebp]
  0299d	69 c0 38 2b 00
	00		 imul	 eax, 11064		; 00002b38H
  029a3	8b 0d 00 00 00
	00		 mov	 ecx, DWORD PTR ?gObj@@3PAUOBJECTSTRUCT@@A ; gObj
  029a9	0f bf 94 01 44
	01 00 00	 movsx	 edx, WORD PTR [ecx+eax+324]
  029b1	89 95 60 ff ff
	ff		 mov	 DWORD PTR _iSX$237165[ebp], edx

; 788  : 			int iSY = gObj[iMON_INDEX].Y;

  029b7	8b 85 64 ff ff
	ff		 mov	 eax, DWORD PTR _iMON_INDEX$237162[ebp]
  029bd	69 c0 38 2b 00
	00		 imul	 eax, 11064		; 00002b38H
  029c3	8b 0d 00 00 00
	00		 mov	 ecx, DWORD PTR ?gObj@@3PAUOBJECTSTRUCT@@A ; gObj
  029c9	0f bf 94 01 46
	01 00 00	 movsx	 edx, WORD PTR [ecx+eax+326]
  029d1	89 95 5c ff ff
	ff		 mov	 DWORD PTR _iSY$237166[ebp], edx

; 789  : 			int iMapNumber = this->GetChaosCastleMapNumber(iChaosCastleIndex);

  029d7	8b 45 08	 mov	 eax, DWORD PTR _iChaosCastleIndex$[ebp]
  029da	50		 push	 eax
  029db	8b 4d ec	 mov	 ecx, DWORD PTR _this$[ebp]
  029de	e8 00 00 00 00	 call	 ?GetChaosCastleMapNumber@CChaosCastle@@QAEHH@Z ; CChaosCastle::GetChaosCastleMapNumber
  029e3	89 85 58 ff ff
	ff		 mov	 DWORD PTR _iMapNumber$237167[ebp], eax

; 790  : 
; 791  : 			BYTE btMapAttr = MapC[iMapNumber].m_attrbuf[iSY * 256 + iSX] & 0x08;

  029e9	8b 85 58 ff ff
	ff		 mov	 eax, DWORD PTR _iMapNumber$237167[ebp]
  029ef	69 c0 b8 3d 05
	00		 imul	 eax, 343480		; 00053db8H
  029f5	8b 8d 5c ff ff
	ff		 mov	 ecx, DWORD PTR _iSY$237166[ebp]
  029fb	c1 e1 08	 shl	 ecx, 8
  029fe	03 8d 60 ff ff
	ff		 add	 ecx, DWORD PTR _iSX$237165[ebp]
  02a04	8b 90 10 00 00
	00		 mov	 edx, DWORD PTR ?MapC@@3PAVMapClass@@A[eax+16]
  02a0a	0f b6 04 0a	 movzx	 eax, BYTE PTR [edx+ecx]
  02a0e	83 e0 08	 and	 eax, 8
  02a11	88 85 57 ff ff
	ff		 mov	 BYTE PTR _btMapAttr$237168[ebp], al

; 792  : 
; 793  : 			if ( btMapAttr == 8 )

  02a17	0f b6 85 57 ff
	ff ff		 movzx	 eax, BYTE PTR _btMapAttr$237168[ebp]
  02a1e	83 f8 08	 cmp	 eax, 8
  02a21	0f 85 2e 01 00
	00		 jne	 $LN7@PullObjInn

; 794  : 			{
; 795  : 				int n=0;

  02a27	c7 85 50 ff ff
	ff 00 00 00 00	 mov	 DWORD PTR _n$237170[ebp], 0

; 796  : 				for (n=0;n<MAX_CC_TRAP_STEP;n++)

  02a31	c7 85 50 ff ff
	ff 00 00 00 00	 mov	 DWORD PTR _n$237170[ebp], 0
  02a3b	eb 0f		 jmp	 SHORT $LN13@PullObjInn
$LN12@PullObjInn:
  02a3d	8b 85 50 ff ff
	ff		 mov	 eax, DWORD PTR _n$237170[ebp]
  02a43	83 c0 01	 add	 eax, 1
  02a46	89 85 50 ff ff
	ff		 mov	 DWORD PTR _n$237170[ebp], eax
$LN13@PullObjInn:
  02a4c	83 bd 50 ff ff
	ff 04		 cmp	 DWORD PTR _n$237170[ebp], 4
  02a53	7d 6c		 jge	 SHORT $LN11@PullObjInn

; 797  : 				{
; 798  : 					if ( iSX >= g_rtPOINT_FRAME[n].left && iSX <= g_rtPOINT_FRAME[n].right &&
; 799  : 						 iSY >= g_rtPOINT_FRAME[n].top && iSY <= g_rtPOINT_FRAME[n].bottom )

  02a55	8b 85 50 ff ff
	ff		 mov	 eax, DWORD PTR _n$237170[ebp]
  02a5b	c1 e0 04	 shl	 eax, 4
  02a5e	8b 8d 60 ff ff
	ff		 mov	 ecx, DWORD PTR _iSX$237165[ebp]
  02a64	3b 88 00 00 00
	00		 cmp	 ecx, DWORD PTR _g_rtPOINT_FRAME[eax]
  02a6a	7c 50		 jl	 SHORT $LN10@PullObjInn
  02a6c	8b 85 50 ff ff
	ff		 mov	 eax, DWORD PTR _n$237170[ebp]
  02a72	c1 e0 04	 shl	 eax, 4
  02a75	8b 8d 60 ff ff
	ff		 mov	 ecx, DWORD PTR _iSX$237165[ebp]
  02a7b	3b 88 08 00 00
	00		 cmp	 ecx, DWORD PTR _g_rtPOINT_FRAME[eax+8]
  02a81	7f 39		 jg	 SHORT $LN10@PullObjInn
  02a83	8b 85 50 ff ff
	ff		 mov	 eax, DWORD PTR _n$237170[ebp]
  02a89	c1 e0 04	 shl	 eax, 4
  02a8c	8b 8d 5c ff ff
	ff		 mov	 ecx, DWORD PTR _iSY$237166[ebp]
  02a92	3b 88 04 00 00
	00		 cmp	 ecx, DWORD PTR _g_rtPOINT_FRAME[eax+4]
  02a98	7c 22		 jl	 SHORT $LN10@PullObjInn
  02a9a	8b 85 50 ff ff
	ff		 mov	 eax, DWORD PTR _n$237170[ebp]
  02aa0	c1 e0 04	 shl	 eax, 4
  02aa3	8b 8d 5c ff ff
	ff		 mov	 ecx, DWORD PTR _iSY$237166[ebp]
  02aa9	3b 88 0c 00 00
	00		 cmp	 ecx, DWORD PTR _g_rtPOINT_FRAME[eax+12]
  02aaf	7f 0b		 jg	 SHORT $LN10@PullObjInn

; 800  : 					{
; 801  : 						iUSER_AXIS = n;

  02ab1	8b 85 50 ff ff
	ff		 mov	 eax, DWORD PTR _n$237170[ebp]
  02ab7	89 45 e8	 mov	 DWORD PTR _iUSER_AXIS$[ebp], eax

; 802  : 						break;

  02aba	eb 05		 jmp	 SHORT $LN11@PullObjInn
$LN10@PullObjInn:

; 803  : 					}
; 804  : 				}

  02abc	e9 7c ff ff ff	 jmp	 $LN12@PullObjInn
$LN11@PullObjInn:

; 805  : 
; 806  : 				if ( n == MAX_CC_TRAP_STEP )

  02ac1	83 bd 50 ff ff
	ff 04		 cmp	 DWORD PTR _n$237170[ebp], 4
  02ac8	75 05		 jne	 SHORT $LN9@PullObjInn

; 807  : 					continue;

  02aca	e9 30 fd ff ff	 jmp	 $LN19@PullObjInn
$LN9@PullObjInn:

; 808  : 
; 809  : 				if ( vtMAP_UNTRAP[iUSER_AXIS].empty() == false )

  02acf	8b 45 e8	 mov	 eax, DWORD PTR _iUSER_AXIS$[ebp]
  02ad2	c1 e0 04	 shl	 eax, 4
  02ad5	8d 4c 05 a8	 lea	 ecx, DWORD PTR _vtMAP_UNTRAP$[ebp+eax]
  02ad9	e8 00 00 00 00	 call	 ?empty@?$vector@UtagPOINT@@V?$allocator@UtagPOINT@@@std@@@std@@QBE_NXZ ; std::vector<tagPOINT,std::allocator<tagPOINT> >::empty
  02ade	0f b6 c8	 movzx	 ecx, al
  02ae1	85 c9		 test	 ecx, ecx
  02ae3	75 70		 jne	 SHORT $LN7@PullObjInn

; 810  : 				{
; 811  : 					POINT ptEMPTY = vtMAP_UNTRAP[iUSER_AXIS].back();

  02ae5	8b 45 e8	 mov	 eax, DWORD PTR _iUSER_AXIS$[ebp]
  02ae8	c1 e0 04	 shl	 eax, 4
  02aeb	8d 4c 05 a8	 lea	 ecx, DWORD PTR _vtMAP_UNTRAP$[ebp+eax]
  02aef	e8 00 00 00 00	 call	 ?back@?$vector@UtagPOINT@@V?$allocator@UtagPOINT@@@std@@@std@@QAEAAUtagPOINT@@XZ ; std::vector<tagPOINT,std::allocator<tagPOINT> >::back
  02af4	8b 08		 mov	 ecx, DWORD PTR [eax]
  02af6	8b 50 04	 mov	 edx, DWORD PTR [eax+4]
  02af9	89 8d 48 ff ff
	ff		 mov	 DWORD PTR _ptEMPTY$237177[ebp], ecx
  02aff	89 95 4c ff ff
	ff		 mov	 DWORD PTR _ptEMPTY$237177[ebp+4], edx

; 812  : 					vtMAP_UNTRAP[iUSER_AXIS].pop_back();

  02b05	8b 45 e8	 mov	 eax, DWORD PTR _iUSER_AXIS$[ebp]
  02b08	c1 e0 04	 shl	 eax, 4
  02b0b	8d 4c 05 a8	 lea	 ecx, DWORD PTR _vtMAP_UNTRAP$[ebp+eax]
  02b0f	e8 00 00 00 00	 call	 ?pop_back@?$vector@UtagPOINT@@V?$allocator@UtagPOINT@@@std@@@std@@QAEXXZ ; std::vector<tagPOINT,std::allocator<tagPOINT> >::pop_back

; 813  : 
; 814  : 					if ( this->ObjSetPosition(iMON_INDEX, ptEMPTY.x, ptEMPTY.y) == TRUE )

  02b14	8b 85 4c ff ff
	ff		 mov	 eax, DWORD PTR _ptEMPTY$237177[ebp+4]
  02b1a	50		 push	 eax
  02b1b	8b 8d 48 ff ff
	ff		 mov	 ecx, DWORD PTR _ptEMPTY$237177[ebp]
  02b21	51		 push	 ecx
  02b22	8b 95 64 ff ff
	ff		 mov	 edx, DWORD PTR _iMON_INDEX$237162[ebp]
  02b28	52		 push	 edx
  02b29	8b 4d ec	 mov	 ecx, DWORD PTR _this$[ebp]
  02b2c	e8 00 00 00 00	 call	 ?ObjSetPosition@CChaosCastle@@QAEHHHH@Z ; CChaosCastle::ObjSetPosition
  02b31	83 f8 01	 cmp	 eax, 1
  02b34	75 1f		 jne	 SHORT $LN7@PullObjInn

; 815  : 					{
; 816  : 						gObj[iMON_INDEX].m_iChaosCastleBlowTime = GetTickCount();

  02b36	ff 15 00 00 00
	00		 call	 DWORD PTR __imp__GetTickCount@0
  02b3c	8b 8d 64 ff ff
	ff		 mov	 ecx, DWORD PTR _iMON_INDEX$237162[ebp]
  02b42	69 c9 38 2b 00
	00		 imul	 ecx, 11064		; 00002b38H
  02b48	8b 15 00 00 00
	00		 mov	 edx, DWORD PTR ?gObj@@3PAUOBJECTSTRUCT@@A ; gObj
  02b4e	89 84 0a a8 0e
	00 00		 mov	 DWORD PTR [edx+ecx+3752], eax
$LN7@PullObjInn:

; 817  : 					}
; 818  : 				}
; 819  : 			}
; 820  : 		}
; 821  : 	}

  02b55	e9 a5 fc ff ff	 jmp	 $LN19@PullObjInn
$LN18@PullObjInn:

; 822  : 
; 823  : 	for ( int iMAP_ITEM =0;iMAP_ITEM<MAX_MAPITEM;iMAP_ITEM++)

  02b5a	c7 85 44 ff ff
	ff 00 00 00 00	 mov	 DWORD PTR _iMAP_ITEM$237179[ebp], 0
  02b64	eb 0f		 jmp	 SHORT $LN6@PullObjInn
$LN5@PullObjInn:
  02b66	8b 85 44 ff ff
	ff		 mov	 eax, DWORD PTR _iMAP_ITEM$237179[ebp]
  02b6c	83 c0 01	 add	 eax, 1
  02b6f	89 85 44 ff ff
	ff		 mov	 DWORD PTR _iMAP_ITEM$237179[ebp], eax
$LN6@PullObjInn:
  02b75	81 bd 44 ff ff
	ff 2c 01 00 00	 cmp	 DWORD PTR _iMAP_ITEM$237179[ebp], 300 ; 0000012cH
  02b7f	0f 8d 42 01 00
	00		 jge	 $LN4@PullObjInn

; 824  : 	{
; 825  : 		int iMapNumber = this->GetChaosCastleMapNumber(iChaosCastleIndex);

  02b85	8b 45 08	 mov	 eax, DWORD PTR _iChaosCastleIndex$[ebp]
  02b88	50		 push	 eax
  02b89	8b 4d ec	 mov	 ecx, DWORD PTR _this$[ebp]
  02b8c	e8 00 00 00 00	 call	 ?GetChaosCastleMapNumber@CChaosCastle@@QAEHH@Z ; CChaosCastle::GetChaosCastleMapNumber
  02b91	89 85 40 ff ff
	ff		 mov	 DWORD PTR _iMapNumber$237183[ebp], eax

; 826  : 
; 827  : 		if ( MapC[iMapNumber].m_cItem[iMAP_ITEM].IsItem() )

  02b97	8b 85 40 ff ff
	ff		 mov	 eax, DWORD PTR _iMapNumber$237183[ebp]
  02b9d	69 c0 b8 3d 05
	00		 imul	 eax, 343480		; 00053db8H
  02ba3	8b 8d 44 ff ff
	ff		 mov	 ecx, DWORD PTR _iMAP_ITEM$237179[ebp]
  02ba9	69 c9 74 04 00
	00		 imul	 ecx, 1140		; 00000474H
  02baf	8d 8c 08 24 00
	00 00		 lea	 ecx, DWORD PTR ?MapC@@3PAVMapClass@@A[eax+ecx+36]
  02bb6	e8 00 00 00 00	 call	 ?IsItem@CItem@@QAEHXZ	; CItem::IsItem
  02bbb	85 c0		 test	 eax, eax
  02bbd	0f 84 ff 00 00
	00		 je	 $LN2@PullObjInn

; 828  : 		{
; 829  : 			int x = MapC[iMapNumber].m_cItem[iMAP_ITEM].px;

  02bc3	8b 85 40 ff ff
	ff		 mov	 eax, DWORD PTR _iMapNumber$237183[ebp]
  02bc9	69 c0 b8 3d 05
	00		 imul	 eax, 343480		; 00053db8H
  02bcf	8b 8d 44 ff ff
	ff		 mov	 ecx, DWORD PTR _iMAP_ITEM$237179[ebp]
  02bd5	69 c9 74 04 00
	00		 imul	 ecx, 1140		; 00000474H
  02bdb	0f b6 94 08 f8
	00 00 00	 movzx	 edx, BYTE PTR ?MapC@@3PAVMapClass@@A[eax+ecx+248]
  02be3	89 95 3c ff ff
	ff		 mov	 DWORD PTR _x$237185[ebp], edx

; 830  : 			int y = MapC[iMapNumber].m_cItem[iMAP_ITEM].py;

  02be9	8b 85 40 ff ff
	ff		 mov	 eax, DWORD PTR _iMapNumber$237183[ebp]
  02bef	69 c0 b8 3d 05
	00		 imul	 eax, 343480		; 00053db8H
  02bf5	8b 8d 44 ff ff
	ff		 mov	 ecx, DWORD PTR _iMAP_ITEM$237179[ebp]
  02bfb	69 c9 74 04 00
	00		 imul	 ecx, 1140		; 00000474H
  02c01	0f b6 94 08 f9
	00 00 00	 movzx	 edx, BYTE PTR ?MapC@@3PAVMapClass@@A[eax+ecx+249]
  02c09	89 95 38 ff ff
	ff		 mov	 DWORD PTR _y$237186[ebp], edx

; 831  : 
; 832  : 			if ( x < ::g_iChaosCastle_DamageAxis[iTRAP_STEP][0] || x > ::g_iChaosCastle_DamageAxis[iTRAP_STEP][2] ||
; 833  : 				 y < ::g_iChaosCastle_DamageAxis[iTRAP_STEP][1] || y > ::g_iChaosCastle_DamageAxis[iTRAP_STEP][3] )

  02c0f	8b 45 0c	 mov	 eax, DWORD PTR _iTRAP_STEP$[ebp]
  02c12	c1 e0 04	 shl	 eax, 4
  02c15	8b 8d 3c ff ff
	ff		 mov	 ecx, DWORD PTR _x$237185[ebp]
  02c1b	3b 88 00 00 00
	00		 cmp	 ecx, DWORD PTR _g_iChaosCastle_DamageAxis[eax]
  02c21	7c 3c		 jl	 SHORT $LN1@PullObjInn
  02c23	8b 45 0c	 mov	 eax, DWORD PTR _iTRAP_STEP$[ebp]
  02c26	c1 e0 04	 shl	 eax, 4
  02c29	8b 8d 3c ff ff
	ff		 mov	 ecx, DWORD PTR _x$237185[ebp]
  02c2f	3b 88 08 00 00
	00		 cmp	 ecx, DWORD PTR _g_iChaosCastle_DamageAxis[eax+8]
  02c35	7f 28		 jg	 SHORT $LN1@PullObjInn
  02c37	8b 45 0c	 mov	 eax, DWORD PTR _iTRAP_STEP$[ebp]
  02c3a	c1 e0 04	 shl	 eax, 4
  02c3d	8b 8d 38 ff ff
	ff		 mov	 ecx, DWORD PTR _y$237186[ebp]
  02c43	3b 88 04 00 00
	00		 cmp	 ecx, DWORD PTR _g_iChaosCastle_DamageAxis[eax+4]
  02c49	7c 14		 jl	 SHORT $LN1@PullObjInn
  02c4b	8b 45 0c	 mov	 eax, DWORD PTR _iTRAP_STEP$[ebp]
  02c4e	c1 e0 04	 shl	 eax, 4
  02c51	8b 8d 38 ff ff
	ff		 mov	 ecx, DWORD PTR _y$237186[ebp]
  02c57	3b 88 0c 00 00
	00		 cmp	 ecx, DWORD PTR _g_iChaosCastle_DamageAxis[eax+12]
  02c5d	7e 63		 jle	 SHORT $LN2@PullObjInn
$LN1@PullObjInn:

; 834  : 			{
; 835  : 				MapC[iMapNumber].m_cItem[iMAP_ITEM].m_State = 8;

  02c5f	8b 85 40 ff ff
	ff		 mov	 eax, DWORD PTR _iMapNumber$237183[ebp]
  02c65	69 c0 b8 3d 05
	00		 imul	 eax, 343480		; 00053db8H
  02c6b	8b 8d 44 ff ff
	ff		 mov	 ecx, DWORD PTR _iMAP_ITEM$237179[ebp]
  02c71	69 c9 74 04 00
	00		 imul	 ecx, 1140		; 00000474H
  02c77	c7 84 08 fc 00
	00 00 08 00 00
	00		 mov	 DWORD PTR ?MapC@@3PAVMapClass@@A[eax+ecx+252], 8

; 836  : 				MapC[iMapNumber].m_cItem[iMAP_ITEM].Give = true;

  02c82	8b 85 40 ff ff
	ff		 mov	 eax, DWORD PTR _iMapNumber$237183[ebp]
  02c88	69 c0 b8 3d 05
	00		 imul	 eax, 343480		; 00053db8H
  02c8e	8b 8d 44 ff ff
	ff		 mov	 ecx, DWORD PTR _iMAP_ITEM$237179[ebp]
  02c94	69 c9 74 04 00
	00		 imul	 ecx, 1140		; 00000474H
  02c9a	c6 84 08 fb 00
	00 00 01	 mov	 BYTE PTR ?MapC@@3PAVMapClass@@A[eax+ecx+251], 1

; 837  : 				MapC[iMapNumber].m_cItem[iMAP_ITEM].live = false;

  02ca2	8b 85 40 ff ff
	ff		 mov	 eax, DWORD PTR _iMapNumber$237183[ebp]
  02ca8	69 c0 b8 3d 05
	00		 imul	 eax, 343480		; 00053db8H
  02cae	8b 8d 44 ff ff
	ff		 mov	 ecx, DWORD PTR _iMAP_ITEM$237179[ebp]
  02cb4	69 c9 74 04 00
	00		 imul	 ecx, 1140		; 00000474H
  02cba	c6 84 08 fa 00
	00 00 00	 mov	 BYTE PTR ?MapC@@3PAVMapClass@@A[eax+ecx+250], 0
$LN2@PullObjInn:

; 838  : 			}
; 839  : 		}
; 840  : 	}

  02cc2	e9 9f fe ff ff	 jmp	 $LN5@PullObjInn
$LN4@PullObjInn:

; 841  : }

  02cc7	c7 45 fc ff ff
	ff ff		 mov	 DWORD PTR __$EHRec$[ebp+8], -1
  02cce	68 00 00 00 00	 push	 OFFSET ??1?$vector@UtagPOINT@@V?$allocator@UtagPOINT@@@std@@@std@@QAE@XZ ; std::vector<tagPOINT,std::allocator<tagPOINT> >::~vector<tagPOINT,std::allocator<tagPOINT> >
  02cd3	6a 04		 push	 4
  02cd5	6a 10		 push	 16			; 00000010H
  02cd7	8d 45 a8	 lea	 eax, DWORD PTR _vtMAP_UNTRAP$[ebp]
  02cda	50		 push	 eax
  02cdb	e8 00 00 00 00	 call	 ??_M@YGXPAXIHP6EX0@Z@Z
$LN47@PullObjInn:
  02ce0	8b 4d f4	 mov	 ecx, DWORD PTR __$EHRec$[ebp]
  02ce3	64 89 0d 00 00
	00 00		 mov	 DWORD PTR fs:0, ecx
  02cea	59		 pop	 ecx
  02ceb	5f		 pop	 edi
  02cec	5e		 pop	 esi
  02ced	5b		 pop	 ebx
  02cee	8b 4d f0	 mov	 ecx, DWORD PTR __$ArrayPad$[ebp]
  02cf1	33 cd		 xor	 ecx, ebp
  02cf3	e8 00 00 00 00	 call	 @__security_check_cookie@4
  02cf8	8b e5		 mov	 esp, ebp
  02cfa	5d		 pop	 ebp
  02cfb	c2 08 00	 ret	 8
_TEXT	ENDS
text$x	SEGMENT
__unwindfunclet$?PullObjInnerPlace@CChaosCastle@@QAEXHH@Z$0:
  00065	68 00 00 00 00	 push	 OFFSET ??1?$vector@UtagPOINT@@V?$allocator@UtagPOINT@@@std@@@std@@QAE@XZ ; std::vector<tagPOINT,std::allocator<tagPOINT> >::~vector<tagPOINT,std::allocator<tagPOINT> >
  0006a	6a 04		 push	 4
  0006c	6a 10		 push	 16			; 00000010H
  0006e	8d 45 a8	 lea	 eax, DWORD PTR _vtMAP_UNTRAP$[ebp]
  00071	50		 push	 eax
  00072	e8 00 00 00 00	 call	 ??_M@YGXPAXIHP6EX0@Z@Z
  00077	c3		 ret	 0
__ehhandler$?PullObjInnerPlace@CChaosCastle@@QAEXHH@Z:
  00078	8b 54 24 08	 mov	 edx, DWORD PTR [esp+8]
  0007c	8d 42 0c	 lea	 eax, DWORD PTR [edx+12]
  0007f	8b 8a ec fe ff
	ff		 mov	 ecx, DWORD PTR [edx-276]
  00085	33 c8		 xor	 ecx, eax
  00087	e8 00 00 00 00	 call	 @__security_check_cookie@4
  0008c	8b 4a fc	 mov	 ecx, DWORD PTR [edx-4]
  0008f	33 c8		 xor	 ecx, eax
  00091	e8 00 00 00 00	 call	 @__security_check_cookie@4
  00096	b8 00 00 00 00	 mov	 eax, OFFSET __ehfuncinfo$?PullObjInnerPlace@CChaosCastle@@QAEXHH@Z
  0009b	e9 00 00 00 00	 jmp	 ___CxxFrameHandler3
text$x	ENDS
?PullObjInnerPlace@CChaosCastle@@QAEXHH@Z ENDP		; CChaosCastle::PullObjInnerPlace
; Function compile flags: /Odtp /ZI
_TEXT	SEGMENT
tv72 = -88						; size = 4
tv67 = -88						; size = 4
_iMapNumber$237209 = -20				; size = 4
_c$237205 = -16						; size = 4
_b$237201 = -12						; size = 4
_a$237197 = -8						; size = 4
_this$ = -4						; size = 4
_iChaosCastleIndex$ = 8					; size = 4
_iTRAP_STEP$ = 12					; size = 4
?SetMapAttrHollow@CChaosCastle@@QAEXHH@Z PROC		; CChaosCastle::SetMapAttrHollow
; _this$ = ecx

; 844  : {

  02d00	55		 push	 ebp
  02d01	8b ec		 mov	 ebp, esp
  02d03	83 ec 58	 sub	 esp, 88			; 00000058H
  02d06	53		 push	 ebx
  02d07	56		 push	 esi
  02d08	57		 push	 edi
  02d09	89 4d fc	 mov	 DWORD PTR _this$[ebp], ecx

; 845  : 	if ( CC_FLOOR_RANGE(iChaosCastleIndex) == FALSE )

  02d0c	83 7d 08 00	 cmp	 DWORD PTR _iChaosCastleIndex$[ebp], 0
  02d10	7d 09		 jge	 SHORT $LN15@SetMapAttr
  02d12	c7 45 a8 00 00
	00 00		 mov	 DWORD PTR tv67[ebp], 0
  02d19	eb 0c		 jmp	 SHORT $LN16@SetMapAttr
$LN15@SetMapAttr:
  02d1b	33 c0		 xor	 eax, eax
  02d1d	83 7d 08 06	 cmp	 DWORD PTR _iChaosCastleIndex$[ebp], 6
  02d21	0f 9e c0	 setle	 al
  02d24	89 45 a8	 mov	 DWORD PTR tv67[ebp], eax
$LN16@SetMapAttr:
  02d27	83 7d a8 00	 cmp	 DWORD PTR tv67[ebp], 0
  02d2b	75 05		 jne	 SHORT $LN12@SetMapAttr

; 846  : 	{
; 847  : 		return;

  02d2d	e9 18 01 00 00	 jmp	 $LN13@SetMapAttr
$LN12@SetMapAttr:

; 848  : 	}
; 849  : 
; 850  : 	if ( CC_TRAP_STEP_RANGE(iTRAP_STEP) == FALSE )

  02d32	83 7d 0c 00	 cmp	 DWORD PTR _iTRAP_STEP$[ebp], 0
  02d36	7d 09		 jge	 SHORT $LN17@SetMapAttr
  02d38	c7 45 a8 00 00
	00 00		 mov	 DWORD PTR tv72[ebp], 0
  02d3f	eb 0c		 jmp	 SHORT $LN18@SetMapAttr
$LN17@SetMapAttr:
  02d41	33 c0		 xor	 eax, eax
  02d43	83 7d 0c 03	 cmp	 DWORD PTR _iTRAP_STEP$[ebp], 3
  02d47	0f 9e c0	 setle	 al
  02d4a	89 45 a8	 mov	 DWORD PTR tv72[ebp], eax
$LN18@SetMapAttr:
  02d4d	83 7d a8 00	 cmp	 DWORD PTR tv72[ebp], 0
  02d51	75 05		 jne	 SHORT $LN11@SetMapAttr

; 851  : 	{
; 852  : 		return;

  02d53	e9 f2 00 00 00	 jmp	 $LN13@SetMapAttr
$LN11@SetMapAttr:

; 853  : 	}
; 854  : 
; 855  : 	if ( iTRAP_STEP == 0 )

  02d58	83 7d 0c 00	 cmp	 DWORD PTR _iTRAP_STEP$[ebp], 0
  02d5c	75 05		 jne	 SHORT $LN10@SetMapAttr

; 856  : 	{
; 857  : 		return;

  02d5e	e9 e7 00 00 00	 jmp	 $LN13@SetMapAttr
$LN10@SetMapAttr:

; 858  : 	}
; 859  : 
; 860  : 	for ( int a=0;a<MAX_CC_HOLLOW_ZONE;a++)

  02d63	c7 45 f8 00 00
	00 00		 mov	 DWORD PTR _a$237197[ebp], 0
  02d6a	eb 09		 jmp	 SHORT $LN9@SetMapAttr
$LN8@SetMapAttr:
  02d6c	8b 45 f8	 mov	 eax, DWORD PTR _a$237197[ebp]
  02d6f	83 c0 01	 add	 eax, 1
  02d72	89 45 f8	 mov	 DWORD PTR _a$237197[ebp], eax
$LN9@SetMapAttr:
  02d75	83 7d f8 04	 cmp	 DWORD PTR _a$237197[ebp], 4
  02d79	0f 8d cb 00 00
	00		 jge	 $LN13@SetMapAttr

; 861  : 	{
; 862  : 		for ( int b=::g_iChaosCastle_MapHollowZone[iTRAP_STEP][a][0] ; b<=::g_iChaosCastle_MapHollowZone[iTRAP_STEP][a][2] ; b++)

  02d7f	8b 45 0c	 mov	 eax, DWORD PTR _iTRAP_STEP$[ebp]
  02d82	c1 e0 06	 shl	 eax, 6
  02d85	8b 4d f8	 mov	 ecx, DWORD PTR _a$237197[ebp]
  02d88	c1 e1 04	 shl	 ecx, 4
  02d8b	8b 94 08 00 00
	00 00		 mov	 edx, DWORD PTR _g_iChaosCastle_MapHollowZone[eax+ecx]
  02d92	89 55 f4	 mov	 DWORD PTR _b$237201[ebp], edx
  02d95	eb 09		 jmp	 SHORT $LN6@SetMapAttr
$LN5@SetMapAttr:
  02d97	8b 45 f4	 mov	 eax, DWORD PTR _b$237201[ebp]
  02d9a	83 c0 01	 add	 eax, 1
  02d9d	89 45 f4	 mov	 DWORD PTR _b$237201[ebp], eax
$LN6@SetMapAttr:
  02da0	8b 45 0c	 mov	 eax, DWORD PTR _iTRAP_STEP$[ebp]
  02da3	c1 e0 06	 shl	 eax, 6
  02da6	8b 4d f8	 mov	 ecx, DWORD PTR _a$237197[ebp]
  02da9	c1 e1 04	 shl	 ecx, 4
  02dac	8b 55 f4	 mov	 edx, DWORD PTR _b$237201[ebp]
  02daf	3b 94 08 08 00
	00 00		 cmp	 edx, DWORD PTR _g_iChaosCastle_MapHollowZone[eax+ecx+8]
  02db6	0f 8f 89 00 00
	00		 jg	 $LN4@SetMapAttr

; 863  : 		{
; 864  : 			for ( int c=::g_iChaosCastle_MapHollowZone[iTRAP_STEP][a][1] ; c<=::g_iChaosCastle_MapHollowZone[iTRAP_STEP][a][3] ; c++)

  02dbc	8b 45 0c	 mov	 eax, DWORD PTR _iTRAP_STEP$[ebp]
  02dbf	c1 e0 06	 shl	 eax, 6
  02dc2	8b 4d f8	 mov	 ecx, DWORD PTR _a$237197[ebp]
  02dc5	c1 e1 04	 shl	 ecx, 4
  02dc8	8b 94 08 04 00
	00 00		 mov	 edx, DWORD PTR _g_iChaosCastle_MapHollowZone[eax+ecx+4]
  02dcf	89 55 f0	 mov	 DWORD PTR _c$237205[ebp], edx
  02dd2	eb 09		 jmp	 SHORT $LN3@SetMapAttr
$LN2@SetMapAttr:
  02dd4	8b 45 f0	 mov	 eax, DWORD PTR _c$237205[ebp]
  02dd7	83 c0 01	 add	 eax, 1
  02dda	89 45 f0	 mov	 DWORD PTR _c$237205[ebp], eax
$LN3@SetMapAttr:
  02ddd	8b 45 0c	 mov	 eax, DWORD PTR _iTRAP_STEP$[ebp]
  02de0	c1 e0 06	 shl	 eax, 6
  02de3	8b 4d f8	 mov	 ecx, DWORD PTR _a$237197[ebp]
  02de6	c1 e1 04	 shl	 ecx, 4
  02de9	8b 55 f0	 mov	 edx, DWORD PTR _c$237205[ebp]
  02dec	3b 94 08 0c 00
	00 00		 cmp	 edx, DWORD PTR _g_iChaosCastle_MapHollowZone[eax+ecx+12]
  02df3	7f 4b		 jg	 SHORT $LN1@SetMapAttr

; 865  : 			{
; 866  : 				int iMapNumber = this->GetChaosCastleMapNumber(iChaosCastleIndex);

  02df5	8b 45 08	 mov	 eax, DWORD PTR _iChaosCastleIndex$[ebp]
  02df8	50		 push	 eax
  02df9	8b 4d fc	 mov	 ecx, DWORD PTR _this$[ebp]
  02dfc	e8 00 00 00 00	 call	 ?GetChaosCastleMapNumber@CChaosCastle@@QAEHH@Z ; CChaosCastle::GetChaosCastleMapNumber
  02e01	89 45 ec	 mov	 DWORD PTR _iMapNumber$237209[ebp], eax

; 867  : 				MapC[iMapNumber].m_attrbuf[ c * 256 + b] |= 8;

  02e04	8b 45 ec	 mov	 eax, DWORD PTR _iMapNumber$237209[ebp]
  02e07	69 c0 b8 3d 05
	00		 imul	 eax, 343480		; 00053db8H
  02e0d	8b 4d f0	 mov	 ecx, DWORD PTR _c$237205[ebp]
  02e10	c1 e1 08	 shl	 ecx, 8
  02e13	03 4d f4	 add	 ecx, DWORD PTR _b$237201[ebp]
  02e16	8b 90 10 00 00
	00		 mov	 edx, DWORD PTR ?MapC@@3PAVMapClass@@A[eax+16]
  02e1c	0f b6 04 0a	 movzx	 eax, BYTE PTR [edx+ecx]
  02e20	83 c8 08	 or	 eax, 8
  02e23	8b 4d ec	 mov	 ecx, DWORD PTR _iMapNumber$237209[ebp]
  02e26	69 c9 b8 3d 05
	00		 imul	 ecx, 343480		; 00053db8H
  02e2c	8b 55 f0	 mov	 edx, DWORD PTR _c$237205[ebp]
  02e2f	c1 e2 08	 shl	 edx, 8
  02e32	03 55 f4	 add	 edx, DWORD PTR _b$237201[ebp]
  02e35	8b 89 10 00 00
	00		 mov	 ecx, DWORD PTR ?MapC@@3PAVMapClass@@A[ecx+16]
  02e3b	88 04 0a	 mov	 BYTE PTR [edx+ecx], al

; 868  : 			}

  02e3e	eb 94		 jmp	 SHORT $LN2@SetMapAttr
$LN1@SetMapAttr:

; 869  : 		}

  02e40	e9 52 ff ff ff	 jmp	 $LN5@SetMapAttr
$LN4@SetMapAttr:

; 870  : 	}

  02e45	e9 22 ff ff ff	 jmp	 $LN8@SetMapAttr
$LN13@SetMapAttr:

; 871  : 	
; 872  : }

  02e4a	5f		 pop	 edi
  02e4b	5e		 pop	 esi
  02e4c	5b		 pop	 ebx
  02e4d	8b e5		 mov	 esp, ebp
  02e4f	5d		 pop	 ebp
  02e50	c2 08 00	 ret	 8
?SetMapAttrHollow@CChaosCastle@@QAEXHH@Z ENDP		; CChaosCastle::SetMapAttrHollow
_TEXT	ENDS
PUBLIC	?SetMapAttrFill@CChaosCastle@@QAEXH@Z		; CChaosCastle::SetMapAttrFill
; Function compile flags: /Odtp /ZI
_TEXT	SEGMENT
tv67 = -92						; size = 4
_iMapNumber$237231 = -24				; size = 4
_c$237227 = -20						; size = 4
_b$237223 = -16						; size = 4
_a$237219 = -12						; size = 4
_iTRAP_STEP$237215 = -8					; size = 4
_this$ = -4						; size = 4
_iChaosCastleIndex$ = 8					; size = 4
?SetMapAttrFill@CChaosCastle@@QAEXH@Z PROC		; CChaosCastle::SetMapAttrFill
; _this$ = ecx

; 875  : {

  02e60	55		 push	 ebp
  02e61	8b ec		 mov	 ebp, esp
  02e63	83 ec 5c	 sub	 esp, 92			; 0000005cH
  02e66	53		 push	 ebx
  02e67	56		 push	 esi
  02e68	57		 push	 edi
  02e69	89 4d fc	 mov	 DWORD PTR _this$[ebp], ecx

; 876  : 	if ( CC_FLOOR_RANGE(iChaosCastleIndex) == FALSE )

  02e6c	83 7d 08 00	 cmp	 DWORD PTR _iChaosCastleIndex$[ebp], 0
  02e70	7d 09		 jge	 SHORT $LN16@SetMapAttr@2
  02e72	c7 45 a4 00 00
	00 00		 mov	 DWORD PTR tv67[ebp], 0
  02e79	eb 0c		 jmp	 SHORT $LN17@SetMapAttr@2
$LN16@SetMapAttr@2:
  02e7b	33 c0		 xor	 eax, eax
  02e7d	83 7d 08 06	 cmp	 DWORD PTR _iChaosCastleIndex$[ebp], 6
  02e81	0f 9e c0	 setle	 al
  02e84	89 45 a4	 mov	 DWORD PTR tv67[ebp], eax
$LN17@SetMapAttr@2:
  02e87	83 7d a4 00	 cmp	 DWORD PTR tv67[ebp], 0
  02e8b	75 05		 jne	 SHORT $LN13@SetMapAttr@2

; 877  : 	{
; 878  : 		return;

  02e8d	e9 08 01 00 00	 jmp	 $LN14@SetMapAttr@2
$LN13@SetMapAttr@2:

; 879  : 	}
; 880  : 	
