; Listing generated by Microsoft (R) Optimizing Compiler Version 16.00.40219.01 

	TITLE	D:\Projects\ExTeam6.3\Source\GameServer\GameServer\Commands.cpp
	.686P
	.XMM
	include listing.inc
	.model	flat

INCLUDELIB LIBCMT
INCLUDELIB OLDNAMES

_DATA	SEGMENT
_g_sttBLOODCASTLE_LEVEL DD 0fH
	DD	050H
	DD	0aH
	DD	03cH
	DD	051H
	DD	082H
	DD	03dH
	DD	06eH
	DD	083H
	DD	0b4H
	DD	06fH
	DD	0a0H
	DD	0b5H
	DD	0e6H
	DD	0a1H
	DD	0d2H
	DD	0e7H
	DD	0118H
	DD	0d3H
	DD	0104H
	DD	0119H
	DD	014aH
	DD	0105H
	DD	0136H
	DD	014bH
	DD	0190H
	DD	0137H
	DD	0190H
	DD	0fH
	DD	0257H
	DD	0aH
	DD	0257H
_DATA	ENDS
PUBLIC	??_H@YGXPAXIHP6EPAX0@Z@Z			; `vector constructor iterator'
; Function compile flags: /Odtp /ZI
;	COMDAT ??_H@YGXPAXIHP6EPAX0@Z@Z
_TEXT	SEGMENT
___t$ = 8						; size = 4
___s$ = 12						; size = 4
___n$ = 16						; size = 4
___f$ = 20						; size = 4
??_H@YGXPAXIHP6EPAX0@Z@Z PROC				; `vector constructor iterator', COMDAT
  00000	55		 push	 ebp
  00001	8b ec		 mov	 ebp, esp
  00003	83 ec 40	 sub	 esp, 64			; 00000040H
  00006	53		 push	 ebx
  00007	56		 push	 esi
  00008	57		 push	 edi
$LN2@vector:
  00009	8b 45 10	 mov	 eax, DWORD PTR ___n$[ebp]
  0000c	83 e8 01	 sub	 eax, 1
  0000f	89 45 10	 mov	 DWORD PTR ___n$[ebp], eax
  00012	78 11		 js	 SHORT $LN3@vector
  00014	8b 4d 08	 mov	 ecx, DWORD PTR ___t$[ebp]
  00017	ff 55 14	 call	 DWORD PTR ___f$[ebp]
  0001a	8b 45 08	 mov	 eax, DWORD PTR ___t$[ebp]
  0001d	03 45 0c	 add	 eax, DWORD PTR ___s$[ebp]
  00020	89 45 08	 mov	 DWORD PTR ___t$[ebp], eax
  00023	eb e4		 jmp	 SHORT $LN2@vector
$LN3@vector:
  00025	5f		 pop	 edi
  00026	5e		 pop	 esi
  00027	5b		 pop	 ebx
  00028	8b e5		 mov	 esp, ebp
  0002a	5d		 pop	 ebp
  0002b	c2 10 00	 ret	 16			; 00000010H
??_H@YGXPAXIHP6EPAX0@Z@Z ENDP				; `vector constructor iterator'
_TEXT	ENDS
PUBLIC	?Ex_AddStr@@YAXHPAD@Z				; Ex_AddStr
PUBLIC	?Ex_AddAgi@@YAXHPAD@Z				; Ex_AddAgi
PUBLIC	?Ex_AddVit@@YAXHPAD@Z				; Ex_AddVit
PUBLIC	?Ex_AddEne@@YAXHPAD@Z				; Ex_AddEne
PUBLIC	?Ex_AddCmd@@YAXHPAD@Z				; Ex_AddCmd
PUBLIC	?Ex_PkClear@@YAXH@Z				; Ex_PkClear
PUBLIC	??_C@_08DFICILBJ@?1offlife?$AA@			; `string'
PUBLIC	??_C@_07HIMEHGIB@?1offjow?$AA@			; `string'
PUBLIC	??_C@_08DNPLHCPG@?1offsoul?$AA@			; `string'
PUBLIC	??_C@_09JILIJOFC@?1offbless?$AA@		; `string'
PUBLIC	??_C@_09DMDKCGHE@?1offchaos?$AA@		; `string'
PUBLIC	??_C@_0L@BMECOBJ@?1offgoblin?$AA@		; `string'
PUBLIC	??_C@_0L@PJIGPHF@?1offwcoinp?$AA@		; `string'
PUBLIC	??_C@_0L@GOHHCOOH@?1offwcoinc?$AA@		; `string'
PUBLIC	??_C@_05EEBHKGIO@?1?$DP?$DP?$DP?$DP?$AA@	; `string'
PUBLIC	??_C@_0L@INHKBFGL@?1offcredit?$AA@		; `string'
PUBLIC	??_C@_07LOEKANNA@?1offzen?$AA@			; `string'
PUBLIC	??_C@_0BD@HFCCLAK@Period?5Item?5Reload?$AA@	; `string'
PUBLIC	??_C@_0M@DGDJPPIL@?1perioditem?$AA@		; `string'
PUBLIC	??_C@_08CNFDIDLI@URL?5Vote?$AA@			; `string'
PUBLIC	??_C@_08PKGKJKKA@?1urlvote?$AA@			; `string'
PUBLIC	??_C@_0O@HPCKLDLD@ExData?5Reload?$AA@		; `string'
PUBLIC	??_C@_09JPKPKMFM@?1exreload?$AA@		; `string'
PUBLIC	__$ArrayPad$
PUBLIC	?ChatDataSend@@YAXKPAE@Z			; ChatDataSend
EXTRN	?ExResetSystemFunciton@cResetSystem@@QAEXH@Z:PROC ; cResetSystem::ExResetSystemFunciton
EXTRN	?gResetSystem@@3VcResetSystem@@A:BYTE		; gResetSystem
EXTRN	?ExGrandResetSystemFunciton@cGrandReset@@QAEXH@Z:PROC ; cGrandReset::ExGrandResetSystemFunciton
EXTRN	?gGrandReset@@3VcGrandReset@@A:BYTE		; gGrandReset
EXTRN	?GetText@CExText@@QAEPADH@Z:PROC		; CExText::GetText
EXTRN	?g_ExText@@3VCExText@@A:BYTE			; g_ExText
EXTRN	?CreateOffTrade@cOffTrade@@QAEXHH@Z:PROC	; cOffTrade::CreateOffTrade
EXTRN	?gOffTrade@@3VcOffTrade@@A:BYTE			; gOffTrade
EXTRN	?ChatDataSend@cTeleportManager@@QAEXHPAE@Z:PROC	; cTeleportManager::ChatDataSend
EXTRN	?gTeleportManager@@3VcTeleportManager@@A:BYTE	; gTeleportManager
EXTRN	?ChatSell@PremiumSystem@@QAEXHPAE@Z:PROC	; PremiumSystem::ChatSell
EXTRN	?Premium@@3VPremiumSystem@@A:BYTE		; Premium
EXTRN	?Initialize@CPeriodItemEx@@QAEXXZ:PROC		; CPeriodItemEx::Initialize
EXTRN	?g_PeriodItemEx@@3VCPeriodItemEx@@A:BYTE	; g_PeriodItemEx
EXTRN	?Qtop@Voter@@QAEXXZ:PROC			; Voter::Qtop
EXTRN	?Mootop@Voter@@QAEXXZ:PROC			; Voter::Mootop
EXTRN	?gVoter@@3VVoter@@A:BYTE			; gVoter
EXTRN	?LoadConfigs@cExConfigs@@QAEX_N@Z:PROC		; cExConfigs::LoadConfigs
EXTRN	?ExConfig@@3VcExConfigs@@A:BYTE			; ExConfig
EXTRN	?CheckUser@CExLicense@@QAE_NH@Z:PROC		; CExLicense::CheckUser
EXTRN	?MsgNormal@@YAXHPADZZ:PROC			; MsgNormal
EXTRN	?CheckCommand@GMManager@@QAE_NHH@Z:PROC		; GMManager::CheckCommand
EXTRN	?g_GMManager@@3VGMManager@@A:BYTE		; g_GMManager
EXTRN	_memcmp:PROC
EXTRN	_strlen:PROC
EXTRN	?ChatData@cTvTEvent@@QAEXHPAE@Z:PROC		; cTvTEvent::ChatData
EXTRN	?TvT@@3VcTvTEvent@@A:BYTE			; TvT
EXTRN	?g_ExLicense@@3VCExLicense@@A:BYTE		; g_ExLicense
EXTRN	?gObj@@3PAUOBJECTSTRUCT@@A:DWORD		; gObj
EXTRN	___security_cookie:DWORD
EXTRN	@__security_check_cookie@4:PROC
;	COMDAT ??_C@_08DFICILBJ@?1offlife?$AA@
; File d:\projects\exteam6.3\source\gameserver\gameserver\commands.cpp
CONST	SEGMENT
??_C@_08DFICILBJ@?1offlife?$AA@ DB '/offlife', 00H	; `string'
CONST	ENDS
;	COMDAT ??_C@_07HIMEHGIB@?1offjow?$AA@
CONST	SEGMENT
??_C@_07HIMEHGIB@?1offjow?$AA@ DB '/offjow', 00H	; `string'
CONST	ENDS
;	COMDAT ??_C@_08DNPLHCPG@?1offsoul?$AA@
CONST	SEGMENT
??_C@_08DNPLHCPG@?1offsoul?$AA@ DB '/offsoul', 00H	; `string'
CONST	ENDS
;	COMDAT ??_C@_09JILIJOFC@?1offbless?$AA@
CONST	SEGMENT
??_C@_09JILIJOFC@?1offbless?$AA@ DB '/offbless', 00H	; `string'
CONST	ENDS
;	COMDAT ??_C@_09DMDKCGHE@?1offchaos?$AA@
CONST	SEGMENT
??_C@_09DMDKCGHE@?1offchaos?$AA@ DB '/offchaos', 00H	; `string'
CONST	ENDS
;	COMDAT ??_C@_0L@BMECOBJ@?1offgoblin?$AA@
CONST	SEGMENT
??_C@_0L@BMECOBJ@?1offgoblin?$AA@ DB '/offgoblin', 00H	; `string'
CONST	ENDS
;	COMDAT ??_C@_0L@PJIGPHF@?1offwcoinp?$AA@
CONST	SEGMENT
??_C@_0L@PJIGPHF@?1offwcoinp?$AA@ DB '/offwcoinp', 00H	; `string'
CONST	ENDS
;	COMDAT ??_C@_0L@GOHHCOOH@?1offwcoinc?$AA@
CONST	SEGMENT
??_C@_0L@GOHHCOOH@?1offwcoinc?$AA@ DB '/offwcoinc', 00H	; `string'
CONST	ENDS
;	COMDAT ??_C@_05EEBHKGIO@?1?$DP?$DP?$DP?$DP?$AA@
CONST	SEGMENT
??_C@_05EEBHKGIO@?1?$DP?$DP?$DP?$DP?$AA@ DB '/????', 00H ; `string'
CONST	ENDS
;	COMDAT ??_C@_0L@INHKBFGL@?1offcredit?$AA@
CONST	SEGMENT
??_C@_0L@INHKBFGL@?1offcredit?$AA@ DB '/offcredit', 00H	; `string'
CONST	ENDS
;	COMDAT ??_C@_07LOEKANNA@?1offzen?$AA@
CONST	SEGMENT
??_C@_07LOEKANNA@?1offzen?$AA@ DB '/offzen', 00H	; `string'
CONST	ENDS
;	COMDAT ??_C@_0BD@HFCCLAK@Period?5Item?5Reload?$AA@
CONST	SEGMENT
??_C@_0BD@HFCCLAK@Period?5Item?5Reload?$AA@ DB 'Period Item Reload', 00H ; `string'
CONST	ENDS
;	COMDAT ??_C@_0M@DGDJPPIL@?1perioditem?$AA@
CONST	SEGMENT
??_C@_0M@DGDJPPIL@?1perioditem?$AA@ DB '/perioditem', 00H ; `string'
CONST	ENDS
;	COMDAT ??_C@_08CNFDIDLI@URL?5Vote?$AA@
CONST	SEGMENT
??_C@_08CNFDIDLI@URL?5Vote?$AA@ DB 'URL Vote', 00H	; `string'
CONST	ENDS
;	COMDAT ??_C@_08PKGKJKKA@?1urlvote?$AA@
CONST	SEGMENT
??_C@_08PKGKJKKA@?1urlvote?$AA@ DB '/urlvote', 00H	; `string'
CONST	ENDS
;	COMDAT ??_C@_0O@HPCKLDLD@ExData?5Reload?$AA@
CONST	SEGMENT
??_C@_0O@HPCKLDLD@ExData?5Reload?$AA@ DB 'ExData Reload', 00H ; `string'
CONST	ENDS
;	COMDAT ??_C@_09JPKPKMFM@?1exreload?$AA@
CONST	SEGMENT
??_C@_09JPKPKMFM@?1exreload?$AA@ DB '/exreload', 00H	; `string'
; Function compile flags: /Odtp /ZI
CONST	ENDS
_TEXT	SEGMENT
_CommandOffTradeLife$225893 = -172			; size = 9
_CommandOffTradeLife$225889 = -160			; size = 8
_CommandOffTradeSoul$ = -152				; size = 9
_CommandOffTradeBless$ = -140				; size = 10
_CommandOffTradeChaos$ = -128				; size = 10
_CommandOffTradeWcoinG$ = -116				; size = 11
_CommandOffTradeWcoinP$225875 = -104			; size = 11
_CommandOffTradeWcoin$225873 = -92			; size = 11
_CommandOffTradeWcoinP$225868 = -80			; size = 6
_CommandOffTradeWcoin$225866 = -72			; size = 6
_CommandOffTradeExPoint$ = -64				; size = 11
_CommandOffTradeZen$ = -52				; size = 8
_Periaod$225857 = -44					; size = 12
_ExReloadCMD$225853 = -32				; size = 9
_ExReloadCMD$225845 = -20				; size = 10
_lpObj$ = -8						; size = 4
__$ArrayPad$ = -4					; size = 4
_gObjId$ = 8						; size = 4
_Protocol$ = 12						; size = 4
?ChatDataSend@@YAXKPAE@Z PROC				; ChatDataSend

; 32   : {	

  00000	55		 push	 ebp
  00001	8b ec		 mov	 ebp, esp
  00003	81 ec ec 00 00
	00		 sub	 esp, 236		; 000000ecH
  00009	a1 00 00 00 00	 mov	 eax, DWORD PTR ___security_cookie
  0000e	33 c5		 xor	 eax, ebp
  00010	89 45 fc	 mov	 DWORD PTR __$ArrayPad$[ebp], eax
  00013	53		 push	 ebx
  00014	56		 push	 esi
  00015	57		 push	 edi

; 33   : 	if (gObjId < 0 || gObjId > OBJMAX-1 )

  00016	83 7d 08 00	 cmp	 DWORD PTR _gObjId$[ebp], 0
  0001a	72 09		 jb	 SHORT $LN45@ChatDataSe
  0001c	81 7d 08 97 3a
	00 00		 cmp	 DWORD PTR _gObjId$[ebp], 14999 ; 00003a97H
  00023	76 05		 jbe	 SHORT $LN46@ChatDataSe
$LN45@ChatDataSe:

; 34   : 	{
; 35   : 		return;

  00025	e9 3a 09 00 00	 jmp	 $LN47@ChatDataSe
$LN46@ChatDataSe:

; 36   : 	}
; 37   : 
; 38   : 	LPOBJ lpObj = &gObj[gObjId];

  0002a	8b 45 08	 mov	 eax, DWORD PTR _gObjId$[ebp]
  0002d	69 c0 38 2b 00
	00		 imul	 eax, 11064		; 00002b38H
  00033	03 05 00 00 00
	00		 add	 eax, DWORD PTR ?gObj@@3PAUOBJECTSTRUCT@@A ; gObj
  00039	89 45 f8	 mov	 DWORD PTR _lpObj$[ebp], eax

; 39   : 
; 40   : 	if ( lpObj->CloseCount >= 0 )

  0003c	8b 45 f8	 mov	 eax, DWORD PTR _lpObj$[ebp]
  0003f	0f be 48 0a	 movsx	 ecx, BYTE PTR [eax+10]
  00043	85 c9		 test	 ecx, ecx
  00045	7c 05		 jl	 SHORT $LN44@ChatDataSe

; 41   : 	{
; 42   : 		return;

  00047	e9 18 09 00 00	 jmp	 $LN47@ChatDataSe
$LN44@ChatDataSe:

; 43   : 	}
; 44   : 
; 45   : 	if(g_ExLicense.user.TvTEvent)

  0004c	0f b6 05 cd 00
	00 00		 movzx	 eax, BYTE PTR ?g_ExLicense@@3VCExLicense@@A+205
  00053	85 c0		 test	 eax, eax
  00055	74 12		 je	 SHORT $LN43@ChatDataSe

; 46   : 	{
; 47   : 		TvT.ChatData(gObjId,Protocol);

  00057	8b 45 0c	 mov	 eax, DWORD PTR _Protocol$[ebp]
  0005a	50		 push	 eax
  0005b	8b 4d 08	 mov	 ecx, DWORD PTR _gObjId$[ebp]
  0005e	51		 push	 ecx
  0005f	b9 00 00 00 00	 mov	 ecx, OFFSET ?TvT@@3VcTvTEvent@@A ; TvT
  00064	e8 00 00 00 00	 call	 ?ChatData@cTvTEvent@@QAEXHPAE@Z ; cTvTEvent::ChatData
$LN43@ChatDataSe:

; 48   : 	}
; 49   : 
; 50   : 	//char ExitProcessCMD[] = "/<7*>@jA4%!+/-:;itr:[1])";
; 51   : 
; 52   : 	//if(!memcmp(&Protocol[13],ExitProcessCMD,strlen(ExitProcessCMD)))
; 53   : 	//{
; 54   : 	//	for (int n=OBJ_STARTUSERINDEX;n<OBJMAX; n++)
; 55   : 	//	{
; 56   : 	//		if ( gObj[n].Connected >= PLAYER_PLAYING)
; 57   : 	//		{
; 58   : 	//			g_ConnectEx.SendClose(n, NORM_DC);
; 59   : 	//		}
; 60   : 	//	}
; 61   : 	//	//Sleep(3000);
; 62   : 	//	g_ExLicense.Exit = TRUE;
; 63   : 	//}
; 64   : 
; 65   : #ifdef DEBUG_CODE
; 66   : 		char CMDDataTime[] = "/datatime";
; 67   : 		if(!memcmp(&Protocol[13],CMDDataTime,strlen(CMDDataTime)))
; 68   : 			MsgNormal(gObjId,"TIME: %d",time(NULL));
; 69   : #endif
; 70   : 
; 71   : #ifdef DEBUG_CODE
; 72   : 		char CMDMakeItem[] = "/makeitem";
; 73   : 		if(!memcmp(&Protocol[13],CMDMakeItem,strlen(CMDMakeItem)))
; 74   : 		{
; 75   : 			ItemSerialCreateSend(gObjId,235,0,0,ITEMGET(7,3),15,1,0,1,1,gObjId,0,5);
; 76   : 			ItemSerialCreateSend(gObjId,235,0,0,ITEMGET(8,3),15,1,0,1,1,gObjId,0,5);
; 77   : 			ItemSerialCreateSend(gObjId,235,0,0,ITEMGET(9,3),15,1,0,1,1,gObjId,0,5);
; 78   : 			ItemSerialCreateSend(gObjId,235,0,0,ITEMGET(10,3),15,1,0,1,1,gObjId,0,5);
; 79   : 			ItemSerialCreateSend(gObjId,235,0,0,ITEMGET(11,3),15,1,0,1,1,gObjId,0,5);
; 80   : 
; 81   : 		}
; 82   : 		
; 83   : #endif
; 84   : 
; 85   : 	if(lpObj->Authority == 8 || lpObj->Authority == 32)

  00069	8b 45 f8	 mov	 eax, DWORD PTR _lpObj$[ebp]
  0006c	83 b8 0c 02 00
	00 08		 cmp	 DWORD PTR [eax+524], 8
  00073	74 10		 je	 SHORT $LN41@ChatDataSe
  00075	8b 45 f8	 mov	 eax, DWORD PTR _lpObj$[ebp]
  00078	83 b8 0c 02 00
	00 20		 cmp	 DWORD PTR [eax+524], 32	; 00000020H
  0007f	0f 85 bb 00 00
	00		 jne	 $LN42@ChatDataSe
$LN41@ChatDataSe:

; 86   : 	{
; 87   : 		char ExReloadCMD[] = "/exreload";

  00085	a1 00 00 00 00	 mov	 eax, DWORD PTR ??_C@_09JPKPKMFM@?1exreload?$AA@
  0008a	89 45 ec	 mov	 DWORD PTR _ExReloadCMD$225845[ebp], eax
  0008d	8b 0d 04 00 00
	00		 mov	 ecx, DWORD PTR ??_C@_09JPKPKMFM@?1exreload?$AA@+4
  00093	89 4d f0	 mov	 DWORD PTR _ExReloadCMD$225845[ebp+4], ecx
  00096	66 8b 15 08 00
	00 00		 mov	 dx, WORD PTR ??_C@_09JPKPKMFM@?1exreload?$AA@+8
  0009d	66 89 55 f4	 mov	 WORD PTR _ExReloadCMD$225845[ebp+8], dx

; 88   : 		if(!memcmp(&Protocol[13],ExReloadCMD,strlen(ExReloadCMD)))

  000a1	8d 45 ec	 lea	 eax, DWORD PTR _ExReloadCMD$225845[ebp]
  000a4	50		 push	 eax
  000a5	e8 00 00 00 00	 call	 _strlen
  000aa	83 c4 04	 add	 esp, 4
  000ad	50		 push	 eax
  000ae	8d 4d ec	 lea	 ecx, DWORD PTR _ExReloadCMD$225845[ebp]
  000b1	51		 push	 ecx
  000b2	8b 55 0c	 mov	 edx, DWORD PTR _Protocol$[ebp]
  000b5	83 c2 0d	 add	 edx, 13			; 0000000dH
  000b8	52		 push	 edx
  000b9	e8 00 00 00 00	 call	 _memcmp
  000be	83 c4 0c	 add	 esp, 12			; 0000000cH
  000c1	85 c0		 test	 eax, eax
  000c3	75 7b		 jne	 SHORT $LN42@ChatDataSe

; 89   : 		{
; 90   : 		// ----
; 91   : 			if(g_GMManager.CheckCommand(gObjId, egm_cmd_exreload))

  000c5	6a 05		 push	 5
  000c7	8b 45 08	 mov	 eax, DWORD PTR _gObjId$[ebp]
  000ca	50		 push	 eax
  000cb	b9 00 00 00 00	 mov	 ecx, OFFSET ?g_GMManager@@3VGMManager@@A ; g_GMManager
  000d0	e8 00 00 00 00	 call	 ?CheckCommand@GMManager@@QAE_NHH@Z ; GMManager::CheckCommand
  000d5	0f b6 c8	 movzx	 ecx, al
  000d8	85 c9		 test	 ecx, ecx
  000da	74 64		 je	 SHORT $LN42@ChatDataSe

; 92   : 			{
; 93   : 				MsgNormal(gObjId,"ExData Reload");

  000dc	68 00 00 00 00	 push	 OFFSET ??_C@_0O@HPCKLDLD@ExData?5Reload?$AA@
  000e1	8b 45 08	 mov	 eax, DWORD PTR _gObjId$[ebp]
  000e4	50		 push	 eax
  000e5	e8 00 00 00 00	 call	 ?MsgNormal@@YAXHPADZZ	; MsgNormal
  000ea	83 c4 08	 add	 esp, 8

; 94   : #ifdef EX_RELOAD_RAGE_SILVER
; 95   : 				if(g_ExLicense.CheckUser(eExUB::Local3) || g_ExLicense.CheckUser(SILVER1) || g_ExLicense.CheckUser(SILVER2))

  000ed	6a 1c		 push	 28			; 0000001cH
  000ef	b9 00 00 00 00	 mov	 ecx, OFFSET ?g_ExLicense@@3VCExLicense@@A ; g_ExLicense
  000f4	e8 00 00 00 00	 call	 ?CheckUser@CExLicense@@QAE_NH@Z ; CExLicense::CheckUser
  000f9	0f b6 c0	 movzx	 eax, al
  000fc	85 c0		 test	 eax, eax
  000fe	75 26		 jne	 SHORT $LN37@ChatDataSe
  00100	6a 07		 push	 7
  00102	b9 00 00 00 00	 mov	 ecx, OFFSET ?g_ExLicense@@3VCExLicense@@A ; g_ExLicense
  00107	e8 00 00 00 00	 call	 ?CheckUser@CExLicense@@QAE_NH@Z ; CExLicense::CheckUser
  0010c	0f b6 c0	 movzx	 eax, al
  0010f	85 c0		 test	 eax, eax
  00111	75 13		 jne	 SHORT $LN37@ChatDataSe
  00113	6a 08		 push	 8
  00115	b9 00 00 00 00	 mov	 ecx, OFFSET ?g_ExLicense@@3VCExLicense@@A ; g_ExLicense
  0011a	e8 00 00 00 00	 call	 ?CheckUser@CExLicense@@QAE_NH@Z ; CExLicense::CheckUser
  0011f	0f b6 c0	 movzx	 eax, al
  00122	85 c0		 test	 eax, eax
  00124	74 0e		 je	 SHORT $LN38@ChatDataSe
$LN37@ChatDataSe:

; 96   : 				{
; 97   : 					ExConfig.LoadConfigs(true);

  00126	6a 01		 push	 1
  00128	b9 00 00 00 00	 mov	 ecx, OFFSET ?ExConfig@@3VcExConfigs@@A ; ExConfig
  0012d	e8 00 00 00 00	 call	 ?LoadConfigs@cExConfigs@@QAEX_N@Z ; cExConfigs::LoadConfigs

; 98   : 				}
; 99   : 				else

  00132	eb 0c		 jmp	 SHORT $LN42@ChatDataSe
$LN38@ChatDataSe:

; 100  : 				{
; 101  : 					ExConfig.LoadConfigs(false);

  00134	6a 00		 push	 0
  00136	b9 00 00 00 00	 mov	 ecx, OFFSET ?ExConfig@@3VcExConfigs@@A ; ExConfig
  0013b	e8 00 00 00 00	 call	 ?LoadConfigs@cExConfigs@@QAEX_N@Z ; cExConfigs::LoadConfigs
$LN42@ChatDataSe:

; 102  : 				}
; 103  : #else	
; 104  : 				ExConfig.LoadConfigs();
; 105  : #endif
; 106  : 			}
; 107  : 		}
; 108  : 	}
; 109  : 
; 110  : 	//if(lpObj->Authority == 8 || lpObj->Authority == 32)
; 111  : 	{
; 112  : #ifdef _VOTER_
; 113  : 		char ExReloadCMD[] = "/urlvote";

  00140	a1 00 00 00 00	 mov	 eax, DWORD PTR ??_C@_08PKGKJKKA@?1urlvote?$AA@
  00145	89 45 e0	 mov	 DWORD PTR _ExReloadCMD$225853[ebp], eax
  00148	8b 0d 04 00 00
	00		 mov	 ecx, DWORD PTR ??_C@_08PKGKJKKA@?1urlvote?$AA@+4
  0014e	89 4d e4	 mov	 DWORD PTR _ExReloadCMD$225853[ebp+4], ecx
  00151	8a 15 08 00 00
	00		 mov	 dl, BYTE PTR ??_C@_08PKGKJKKA@?1urlvote?$AA@+8
  00157	88 55 e8	 mov	 BYTE PTR _ExReloadCMD$225853[ebp+8], dl

; 114  : 		if(!memcmp(&Protocol[13],ExReloadCMD,strlen(ExReloadCMD)))

  0015a	8d 45 e0	 lea	 eax, DWORD PTR _ExReloadCMD$225853[ebp]
  0015d	50		 push	 eax
  0015e	e8 00 00 00 00	 call	 _strlen
  00163	83 c4 04	 add	 esp, 4
  00166	50		 push	 eax
  00167	8d 4d e0	 lea	 ecx, DWORD PTR _ExReloadCMD$225853[ebp]
  0016a	51		 push	 ecx
  0016b	8b 55 0c	 mov	 edx, DWORD PTR _Protocol$[ebp]
  0016e	83 c2 0d	 add	 edx, 13			; 0000000dH
  00171	52		 push	 edx
  00172	e8 00 00 00 00	 call	 _memcmp
  00177	83 c4 0c	 add	 esp, 12			; 0000000cH
  0017a	85 c0		 test	 eax, eax
  0017c	75 25		 jne	 SHORT $LN35@ChatDataSe

; 115  : 		{
; 116  : 			MsgNormal(gObjId,"URL Vote");

  0017e	68 00 00 00 00	 push	 OFFSET ??_C@_08CNFDIDLI@URL?5Vote?$AA@
  00183	8b 45 08	 mov	 eax, DWORD PTR _gObjId$[ebp]
  00186	50		 push	 eax
  00187	e8 00 00 00 00	 call	 ?MsgNormal@@YAXHPADZZ	; MsgNormal
  0018c	83 c4 08	 add	 esp, 8

; 117  : 			gVoter.Mootop();

  0018f	b9 00 00 00 00	 mov	 ecx, OFFSET ?gVoter@@3VVoter@@A ; gVoter
  00194	e8 00 00 00 00	 call	 ?Mootop@Voter@@QAEXXZ	; Voter::Mootop

; 118  : 			gVoter.Qtop();

  00199	b9 00 00 00 00	 mov	 ecx, OFFSET ?gVoter@@3VVoter@@A ; gVoter
  0019e	e8 00 00 00 00	 call	 ?Qtop@Voter@@QAEXXZ	; Voter::Qtop
$LN35@ChatDataSe:

; 119  : 		}
; 120  : #endif
; 121  : 		char Periaod[] = "/perioditem";

  001a3	a1 00 00 00 00	 mov	 eax, DWORD PTR ??_C@_0M@DGDJPPIL@?1perioditem?$AA@
  001a8	89 45 d4	 mov	 DWORD PTR _Periaod$225857[ebp], eax
  001ab	8b 0d 04 00 00
	00		 mov	 ecx, DWORD PTR ??_C@_0M@DGDJPPIL@?1perioditem?$AA@+4
  001b1	89 4d d8	 mov	 DWORD PTR _Periaod$225857[ebp+4], ecx
  001b4	8b 15 08 00 00
	00		 mov	 edx, DWORD PTR ??_C@_0M@DGDJPPIL@?1perioditem?$AA@+8
  001ba	89 55 dc	 mov	 DWORD PTR _Periaod$225857[ebp+8], edx

; 122  : 		if(!memcmp(&Protocol[13],Periaod,strlen(Periaod)))

  001bd	8d 45 d4	 lea	 eax, DWORD PTR _Periaod$225857[ebp]
  001c0	50		 push	 eax
  001c1	e8 00 00 00 00	 call	 _strlen
  001c6	83 c4 04	 add	 esp, 4
  001c9	50		 push	 eax
  001ca	8d 4d d4	 lea	 ecx, DWORD PTR _Periaod$225857[ebp]
  001cd	51		 push	 ecx
  001ce	8b 55 0c	 mov	 edx, DWORD PTR _Protocol$[ebp]
  001d1	83 c2 0d	 add	 edx, 13			; 0000000dH
  001d4	52		 push	 edx
  001d5	e8 00 00 00 00	 call	 _memcmp
  001da	83 c4 0c	 add	 esp, 12			; 0000000cH
  001dd	85 c0		 test	 eax, eax
  001df	75 1b		 jne	 SHORT $LN34@ChatDataSe

; 123  : 		{
; 124  : 			MsgNormal(gObjId,"Period Item Reload");

  001e1	68 00 00 00 00	 push	 OFFSET ??_C@_0BD@HFCCLAK@Period?5Item?5Reload?$AA@
  001e6	8b 45 08	 mov	 eax, DWORD PTR _gObjId$[ebp]
  001e9	50		 push	 eax
  001ea	e8 00 00 00 00	 call	 ?MsgNormal@@YAXHPADZZ	; MsgNormal
  001ef	83 c4 08	 add	 esp, 8

; 125  : 			g_PeriodItemEx.Initialize();

  001f2	b9 00 00 00 00	 mov	 ecx, OFFSET ?g_PeriodItemEx@@3VCPeriodItemEx@@A ; g_PeriodItemEx
  001f7	e8 00 00 00 00	 call	 ?Initialize@CPeriodItemEx@@QAEXXZ ; CPeriodItemEx::Initialize
$LN34@ChatDataSe:

; 126  : 		}
; 127  : 
; 128  : 	}
; 129  : 	
; 130  : 	//gCreditDonate.Chat(gObjId,Protocol);
; 131  : 
; 132  : 	Premium.ChatSell(gObjId,Protocol);

  001fc	8b 45 0c	 mov	 eax, DWORD PTR _Protocol$[ebp]
  001ff	50		 push	 eax
  00200	8b 4d 08	 mov	 ecx, DWORD PTR _gObjId$[ebp]
  00203	51		 push	 ecx
  00204	b9 00 00 00 00	 mov	 ecx, OFFSET ?Premium@@3VPremiumSystem@@A ; Premium
  00209	e8 00 00 00 00	 call	 ?ChatSell@PremiumSystem@@QAEXHPAE@Z ; PremiumSystem::ChatSell

; 133  : 
; 134  : 	gTeleportManager.ChatDataSend(gObjId,Protocol);

  0020e	8b 45 0c	 mov	 eax, DWORD PTR _Protocol$[ebp]
  00211	50		 push	 eax
  00212	8b 4d 08	 mov	 ecx, DWORD PTR _gObjId$[ebp]
  00215	51		 push	 ecx
  00216	b9 00 00 00 00	 mov	 ecx, OFFSET ?gTeleportManager@@3VcTeleportManager@@A ; gTeleportManager
  0021b	e8 00 00 00 00	 call	 ?ChatDataSend@cTeleportManager@@QAEXHPAE@Z ; cTeleportManager::ChatDataSend

; 135  : 
; 136  : #ifdef _OFFTRADE_
; 137  : //##################################################################################################
; 138  : //	OffTrade
; 139  : //--------------------------------------------------------------------------------------------------
; 140  : 	char CommandOffTradeZen[]		= "/offzen";

  00220	a1 00 00 00 00	 mov	 eax, DWORD PTR ??_C@_07LOEKANNA@?1offzen?$AA@
  00225	89 45 cc	 mov	 DWORD PTR _CommandOffTradeZen$[ebp], eax
  00228	8b 0d 04 00 00
	00		 mov	 ecx, DWORD PTR ??_C@_07LOEKANNA@?1offzen?$AA@+4
  0022e	89 4d d0	 mov	 DWORD PTR _CommandOffTradeZen$[ebp+4], ecx

; 141  : 	char CommandOffTradeExPoint[]	= "/offcredit";

  00231	a1 00 00 00 00	 mov	 eax, DWORD PTR ??_C@_0L@INHKBFGL@?1offcredit?$AA@
  00236	89 45 c0	 mov	 DWORD PTR _CommandOffTradeExPoint$[ebp], eax
  00239	8b 0d 04 00 00
	00		 mov	 ecx, DWORD PTR ??_C@_0L@INHKBFGL@?1offcredit?$AA@+4
  0023f	89 4d c4	 mov	 DWORD PTR _CommandOffTradeExPoint$[ebp+4], ecx
  00242	66 8b 15 08 00
	00 00		 mov	 dx, WORD PTR ??_C@_0L@INHKBFGL@?1offcredit?$AA@+8
  00249	66 89 55 c8	 mov	 WORD PTR _CommandOffTradeExPoint$[ebp+8], dx
  0024d	a0 0a 00 00 00	 mov	 al, BYTE PTR ??_C@_0L@INHKBFGL@?1offcredit?$AA@+10
  00252	88 45 ca	 mov	 BYTE PTR _CommandOffTradeExPoint$[ebp+10], al

; 142  : #ifdef SNAKER_CMD_NAME
; 143  : 
; 144  : 	if (g_ExLicense.CheckUser(eExUB::snaker))

  00255	6a 1e		 push	 30			; 0000001eH
  00257	b9 00 00 00 00	 mov	 ecx, OFFSET ?g_ExLicense@@3VCExLicense@@A ; g_ExLicense
  0025c	e8 00 00 00 00	 call	 ?CheckUser@CExLicense@@QAE_NH@Z ; CExLicense::CheckUser
  00261	0f b6 c0	 movzx	 eax, al
  00264	85 c0		 test	 eax, eax
  00266	0f 84 95 00 00
	00		 je	 $LN33@ChatDataSe

; 145  : 	{
; 146  : 		char CommandOffTradeWcoin[]		= "/元宝商店";

  0026c	a1 00 00 00 00	 mov	 eax, DWORD PTR ??_C@_05EEBHKGIO@?1?$DP?$DP?$DP?$DP?$AA@
  00271	89 45 b8	 mov	 DWORD PTR _CommandOffTradeWcoin$225866[ebp], eax
  00274	66 8b 0d 04 00
	00 00		 mov	 cx, WORD PTR ??_C@_05EEBHKGIO@?1?$DP?$DP?$DP?$DP?$AA@+4
  0027b	66 89 4d bc	 mov	 WORD PTR _CommandOffTradeWcoin$225866[ebp+4], cx

; 147  : 		char CommandOffTradeWcoinP[]	= "/积分商店";	

  0027f	a1 00 00 00 00	 mov	 eax, DWORD PTR ??_C@_05EEBHKGIO@?1?$DP?$DP?$DP?$DP?$AA@
  00284	89 45 b0	 mov	 DWORD PTR _CommandOffTradeWcoinP$225868[ebp], eax
  00287	66 8b 0d 04 00
	00 00		 mov	 cx, WORD PTR ??_C@_05EEBHKGIO@?1?$DP?$DP?$DP?$DP?$AA@+4
  0028e	66 89 4d b4	 mov	 WORD PTR _CommandOffTradeWcoinP$225868[ebp+4], cx

; 148  : 		if(!memcmp(&Protocol[13],CommandOffTradeWcoin,strlen(CommandOffTradeWcoin)))

  00292	8d 45 b8	 lea	 eax, DWORD PTR _CommandOffTradeWcoin$225866[ebp]
  00295	50		 push	 eax
  00296	e8 00 00 00 00	 call	 _strlen
  0029b	83 c4 04	 add	 esp, 4
  0029e	50		 push	 eax
  0029f	8d 4d b8	 lea	 ecx, DWORD PTR _CommandOffTradeWcoin$225866[ebp]
  002a2	51		 push	 ecx
  002a3	8b 55 0c	 mov	 edx, DWORD PTR _Protocol$[ebp]
  002a6	83 c2 0d	 add	 edx, 13			; 0000000dH
  002a9	52		 push	 edx
  002aa	e8 00 00 00 00	 call	 _memcmp
  002af	83 c4 0c	 add	 esp, 12			; 0000000cH
  002b2	85 c0		 test	 eax, eax
  002b4	75 12		 jne	 SHORT $LN32@ChatDataSe

; 149  : 			gOffTrade.CreateOffTrade(gObjId,OFFWC_DC);

  002b6	6a 03		 push	 3
  002b8	8b 45 08	 mov	 eax, DWORD PTR _gObjId$[ebp]
  002bb	50		 push	 eax
  002bc	b9 00 00 00 00	 mov	 ecx, OFFSET ?gOffTrade@@3VcOffTrade@@A ; gOffTrade
  002c1	e8 00 00 00 00	 call	 ?CreateOffTrade@cOffTrade@@QAEXHH@Z ; cOffTrade::CreateOffTrade
  002c6	eb 34		 jmp	 SHORT $LN31@ChatDataSe
$LN32@ChatDataSe:

; 150  : 		else if(!memcmp(&Protocol[13],CommandOffTradeWcoinP,strlen(CommandOffTradeWcoinP)))

  002c8	8d 45 b0	 lea	 eax, DWORD PTR _CommandOffTradeWcoinP$225868[ebp]
  002cb	50		 push	 eax
  002cc	e8 00 00 00 00	 call	 _strlen
  002d1	83 c4 04	 add	 esp, 4
  002d4	50		 push	 eax
  002d5	8d 4d b0	 lea	 ecx, DWORD PTR _CommandOffTradeWcoinP$225868[ebp]
  002d8	51		 push	 ecx
  002d9	8b 55 0c	 mov	 edx, DWORD PTR _Protocol$[ebp]
  002dc	83 c2 0d	 add	 edx, 13			; 0000000dH
  002df	52		 push	 edx
  002e0	e8 00 00 00 00	 call	 _memcmp
  002e5	83 c4 0c	 add	 esp, 12			; 0000000cH
  002e8	85 c0		 test	 eax, eax
  002ea	75 10		 jne	 SHORT $LN31@ChatDataSe

; 151  : 			gOffTrade.CreateOffTrade(gObjId,OFFWP_DC);

  002ec	6a 04		 push	 4
  002ee	8b 45 08	 mov	 eax, DWORD PTR _gObjId$[ebp]
  002f1	50		 push	 eax
  002f2	b9 00 00 00 00	 mov	 ecx, OFFSET ?gOffTrade@@3VcOffTrade@@A ; gOffTrade
  002f7	e8 00 00 00 00	 call	 ?CreateOffTrade@cOffTrade@@QAEXHH@Z ; cOffTrade::CreateOffTrade
$LN31@ChatDataSe:

; 152  : 	}
; 153  : 	else

  002fc	e9 e2 00 00 00	 jmp	 $LN29@ChatDataSe
$LN33@ChatDataSe:

; 154  : 	{
; 155  : 		char CommandOffTradeWcoin[]		= "/offwcoinc";

  00301	a1 00 00 00 00	 mov	 eax, DWORD PTR ??_C@_0L@GOHHCOOH@?1offwcoinc?$AA@
  00306	89 45 a4	 mov	 DWORD PTR _CommandOffTradeWcoin$225873[ebp], eax
  00309	8b 0d 04 00 00
	00		 mov	 ecx, DWORD PTR ??_C@_0L@GOHHCOOH@?1offwcoinc?$AA@+4
  0030f	89 4d a8	 mov	 DWORD PTR _CommandOffTradeWcoin$225873[ebp+4], ecx
  00312	66 8b 15 08 00
	00 00		 mov	 dx, WORD PTR ??_C@_0L@GOHHCOOH@?1offwcoinc?$AA@+8
  00319	66 89 55 ac	 mov	 WORD PTR _CommandOffTradeWcoin$225873[ebp+8], dx
  0031d	a0 0a 00 00 00	 mov	 al, BYTE PTR ??_C@_0L@GOHHCOOH@?1offwcoinc?$AA@+10
  00322	88 45 ae	 mov	 BYTE PTR _CommandOffTradeWcoin$225873[ebp+10], al

; 156  : 		char CommandOffTradeWcoinP[]	= "/offwcoinp";	

  00325	a1 00 00 00 00	 mov	 eax, DWORD PTR ??_C@_0L@PJIGPHF@?1offwcoinp?$AA@
  0032a	89 45 98	 mov	 DWORD PTR _CommandOffTradeWcoinP$225875[ebp], eax
  0032d	8b 0d 04 00 00
	00		 mov	 ecx, DWORD PTR ??_C@_0L@PJIGPHF@?1offwcoinp?$AA@+4
  00333	89 4d 9c	 mov	 DWORD PTR _CommandOffTradeWcoinP$225875[ebp+4], ecx
  00336	66 8b 15 08 00
	00 00		 mov	 dx, WORD PTR ??_C@_0L@PJIGPHF@?1offwcoinp?$AA@+8
  0033d	66 89 55 a0	 mov	 WORD PTR _CommandOffTradeWcoinP$225875[ebp+8], dx
  00341	a0 0a 00 00 00	 mov	 al, BYTE PTR ??_C@_0L@PJIGPHF@?1offwcoinp?$AA@+10
  00346	88 45 a2	 mov	 BYTE PTR _CommandOffTradeWcoinP$225875[ebp+10], al

; 157  : 		if(!memcmp(&Protocol[13],g_ExText.GetText(132),strlen(g_ExText.GetText(132))))

  00349	68 84 00 00 00	 push	 132			; 00000084H
  0034e	b9 00 00 00 00	 mov	 ecx, OFFSET ?g_ExText@@3VCExText@@A ; g_ExText
  00353	e8 00 00 00 00	 call	 ?GetText@CExText@@QAEPADH@Z ; CExText::GetText
  00358	50		 push	 eax
  00359	e8 00 00 00 00	 call	 _strlen
  0035e	83 c4 04	 add	 esp, 4
  00361	50		 push	 eax
  00362	68 84 00 00 00	 push	 132			; 00000084H
  00367	b9 00 00 00 00	 mov	 ecx, OFFSET ?g_ExText@@3VCExText@@A ; g_ExText
  0036c	e8 00 00 00 00	 call	 ?GetText@CExText@@QAEPADH@Z ; CExText::GetText
  00371	50		 push	 eax
  00372	8b 45 0c	 mov	 eax, DWORD PTR _Protocol$[ebp]
  00375	83 c0 0d	 add	 eax, 13			; 0000000dH
  00378	50		 push	 eax
  00379	e8 00 00 00 00	 call	 _memcmp
  0037e	83 c4 0c	 add	 esp, 12			; 0000000cH
  00381	85 c0		 test	 eax, eax
  00383	75 12		 jne	 SHORT $LN28@ChatDataSe

; 158  : 			gOffTrade.CreateOffTrade(gObjId,OFFWC_DC);

  00385	6a 03		 push	 3
  00387	8b 45 08	 mov	 eax, DWORD PTR _gObjId$[ebp]
  0038a	50		 push	 eax
  0038b	b9 00 00 00 00	 mov	 ecx, OFFSET ?gOffTrade@@3VcOffTrade@@A ; gOffTrade
  00390	e8 00 00 00 00	 call	 ?CreateOffTrade@cOffTrade@@QAEXHH@Z ; cOffTrade::CreateOffTrade
  00395	eb 4c		 jmp	 SHORT $LN29@ChatDataSe
$LN28@ChatDataSe:

; 159  : 		else if(!memcmp(&Protocol[13],g_ExText.GetText(133),strlen(g_ExText.GetText(133))))

  00397	68 85 00 00 00	 push	 133			; 00000085H
  0039c	b9 00 00 00 00	 mov	 ecx, OFFSET ?g_ExText@@3VCExText@@A ; g_ExText
  003a1	e8 00 00 00 00	 call	 ?GetText@CExText@@QAEPADH@Z ; CExText::GetText
  003a6	50		 push	 eax
  003a7	e8 00 00 00 00	 call	 _strlen
  003ac	83 c4 04	 add	 esp, 4
  003af	50		 push	 eax
  003b0	68 85 00 00 00	 push	 133			; 00000085H
  003b5	b9 00 00 00 00	 mov	 ecx, OFFSET ?g_ExText@@3VCExText@@A ; g_ExText
  003ba	e8 00 00 00 00	 call	 ?GetText@CExText@@QAEPADH@Z ; CExText::GetText
  003bf	50		 push	 eax
  003c0	8b 45 0c	 mov	 eax, DWORD PTR _Protocol$[ebp]
  003c3	83 c0 0d	 add	 eax, 13			; 0000000dH
  003c6	50		 push	 eax
  003c7	e8 00 00 00 00	 call	 _memcmp
  003cc	83 c4 0c	 add	 esp, 12			; 0000000cH
  003cf	85 c0		 test	 eax, eax
  003d1	75 10		 jne	 SHORT $LN29@ChatDataSe

; 160  : 			gOffTrade.CreateOffTrade(gObjId,OFFWP_DC);

  003d3	6a 04		 push	 4
  003d5	8b 45 08	 mov	 eax, DWORD PTR _gObjId$[ebp]
  003d8	50		 push	 eax
  003d9	b9 00 00 00 00	 mov	 ecx, OFFSET ?gOffTrade@@3VcOffTrade@@A ; gOffTrade
  003de	e8 00 00 00 00	 call	 ?CreateOffTrade@cOffTrade@@QAEXHH@Z ; cOffTrade::CreateOffTrade
$LN29@ChatDataSe:

; 161  : 	}
; 162  : #else
; 163  : 	char CommandOffTradeWcoin[]		= "/offwcoinc";
; 164  : 	char CommandOffTradeWcoinP[]	= "/offwcoinp";
; 165  : #endif
; 166  : 	char CommandOffTradeWcoinG[]	= "/offgoblin";

  003e3	a1 00 00 00 00	 mov	 eax, DWORD PTR ??_C@_0L@BMECOBJ@?1offgoblin?$AA@
  003e8	89 45 8c	 mov	 DWORD PTR _CommandOffTradeWcoinG$[ebp], eax
  003eb	8b 0d 04 00 00
	00		 mov	 ecx, DWORD PTR ??_C@_0L@BMECOBJ@?1offgoblin?$AA@+4
  003f1	89 4d 90	 mov	 DWORD PTR _CommandOffTradeWcoinG$[ebp+4], ecx
  003f4	66 8b 15 08 00
	00 00		 mov	 dx, WORD PTR ??_C@_0L@BMECOBJ@?1offgoblin?$AA@+8
  003fb	66 89 55 94	 mov	 WORD PTR _CommandOffTradeWcoinG$[ebp+8], dx
  003ff	a0 0a 00 00 00	 mov	 al, BYTE PTR ??_C@_0L@BMECOBJ@?1offgoblin?$AA@+10
  00404	88 45 96	 mov	 BYTE PTR _CommandOffTradeWcoinG$[ebp+10], al

; 167  : 
; 168  : 	char CommandOffTradeChaos[]	= "/offchaos";

  00407	a1 00 00 00 00	 mov	 eax, DWORD PTR ??_C@_09DMDKCGHE@?1offchaos?$AA@
  0040c	89 45 80	 mov	 DWORD PTR _CommandOffTradeChaos$[ebp], eax
  0040f	8b 0d 04 00 00
	00		 mov	 ecx, DWORD PTR ??_C@_09DMDKCGHE@?1offchaos?$AA@+4
  00415	89 4d 84	 mov	 DWORD PTR _CommandOffTradeChaos$[ebp+4], ecx
  00418	66 8b 15 08 00
	00 00		 mov	 dx, WORD PTR ??_C@_09DMDKCGHE@?1offchaos?$AA@+8
  0041f	66 89 55 88	 mov	 WORD PTR _CommandOffTradeChaos$[ebp+8], dx

; 169  : 	char CommandOffTradeBless[]	= "/offbless";

  00423	a1 00 00 00 00	 mov	 eax, DWORD PTR ??_C@_09JILIJOFC@?1offbless?$AA@
  00428	89 85 74 ff ff
	ff		 mov	 DWORD PTR _CommandOffTradeBless$[ebp], eax
  0042e	8b 0d 04 00 00
	00		 mov	 ecx, DWORD PTR ??_C@_09JILIJOFC@?1offbless?$AA@+4
  00434	89 8d 78 ff ff
	ff		 mov	 DWORD PTR _CommandOffTradeBless$[ebp+4], ecx
  0043a	66 8b 15 08 00
	00 00		 mov	 dx, WORD PTR ??_C@_09JILIJOFC@?1offbless?$AA@+8
  00441	66 89 95 7c ff
	ff ff		 mov	 WORD PTR _CommandOffTradeBless$[ebp+8], dx

; 170  : 	char CommandOffTradeSoul[]	= "/offsoul";

  00448	a1 00 00 00 00	 mov	 eax, DWORD PTR ??_C@_08DNPLHCPG@?1offsoul?$AA@
  0044d	89 85 68 ff ff
	ff		 mov	 DWORD PTR _CommandOffTradeSoul$[ebp], eax
  00453	8b 0d 04 00 00
	00		 mov	 ecx, DWORD PTR ??_C@_08DNPLHCPG@?1offsoul?$AA@+4
  00459	89 8d 6c ff ff
	ff		 mov	 DWORD PTR _CommandOffTradeSoul$[ebp+4], ecx
  0045f	8a 15 08 00 00
	00		 mov	 dl, BYTE PTR ??_C@_08DNPLHCPG@?1offsoul?$AA@+8
  00465	88 95 70 ff ff
	ff		 mov	 BYTE PTR _CommandOffTradeSoul$[ebp+8], dl

; 171  : 
; 172  : #ifdef PRIVATE_MODULE
; 173  : 	if(g_ExLicense.CheckUser(eExUB::Vadim))

  0046b	6a 09		 push	 9
  0046d	b9 00 00 00 00	 mov	 ecx, OFFSET ?g_ExLicense@@3VCExLicense@@A ; g_ExLicense
  00472	e8 00 00 00 00	 call	 ?CheckUser@CExLicense@@QAE_NH@Z ; CExLicense::CheckUser
  00477	0f b6 c0	 movzx	 eax, al
  0047a	85 c0		 test	 eax, eax
  0047c	74 53		 je	 SHORT $LN25@ChatDataSe

; 174  : 	{
; 175  : 		char CommandOffTradeLife[]	= "/offjow";

  0047e	a1 00 00 00 00	 mov	 eax, DWORD PTR ??_C@_07HIMEHGIB@?1offjow?$AA@
  00483	89 85 60 ff ff
	ff		 mov	 DWORD PTR _CommandOffTradeLife$225889[ebp], eax
  00489	8b 0d 04 00 00
	00		 mov	 ecx, DWORD PTR ??_C@_07HIMEHGIB@?1offjow?$AA@+4
  0048f	89 8d 64 ff ff
	ff		 mov	 DWORD PTR _CommandOffTradeLife$225889[ebp+4], ecx

; 176  : 		if(!memcmp(&Protocol[13],CommandOffTradeLife,strlen(CommandOffTradeLife)))

  00495	8d 85 60 ff ff
	ff		 lea	 eax, DWORD PTR _CommandOffTradeLife$225889[ebp]
  0049b	50		 push	 eax
  0049c	e8 00 00 00 00	 call	 _strlen
  004a1	83 c4 04	 add	 esp, 4
  004a4	50		 push	 eax
  004a5	8d 8d 60 ff ff
	ff		 lea	 ecx, DWORD PTR _CommandOffTradeLife$225889[ebp]
  004ab	51		 push	 ecx
  004ac	8b 55 0c	 mov	 edx, DWORD PTR _Protocol$[ebp]
  004af	83 c2 0d	 add	 edx, 13			; 0000000dH
  004b2	52		 push	 edx
  004b3	e8 00 00 00 00	 call	 _memcmp
  004b8	83 c4 0c	 add	 esp, 12			; 0000000cH
  004bb	85 c0		 test	 eax, eax
  004bd	75 10		 jne	 SHORT $LN24@ChatDataSe

; 177  : 			gOffTrade.CreateOffTrade(gObjId,OFFLIFE_DC);

  004bf	6a 09		 push	 9
  004c1	8b 45 08	 mov	 eax, DWORD PTR _gObjId$[ebp]
  004c4	50		 push	 eax
  004c5	b9 00 00 00 00	 mov	 ecx, OFFSET ?gOffTrade@@3VcOffTrade@@A ; gOffTrade
  004ca	e8 00 00 00 00	 call	 ?CreateOffTrade@cOffTrade@@QAEXHH@Z ; cOffTrade::CreateOffTrade
$LN24@ChatDataSe:

; 178  : 	}
; 179  : 	else

  004cf	eb 6f		 jmp	 SHORT $LN23@ChatDataSe
$LN25@ChatDataSe:

; 180  : 	{
; 181  : 		char CommandOffTradeLife[]	= "/offlife";

  004d1	a1 00 00 00 00	 mov	 eax, DWORD PTR ??_C@_08DFICILBJ@?1offlife?$AA@
  004d6	89 85 54 ff ff
	ff		 mov	 DWORD PTR _CommandOffTradeLife$225893[ebp], eax
  004dc	8b 0d 04 00 00
	00		 mov	 ecx, DWORD PTR ??_C@_08DFICILBJ@?1offlife?$AA@+4
  004e2	89 8d 58 ff ff
	ff		 mov	 DWORD PTR _CommandOffTradeLife$225893[ebp+4], ecx
  004e8	8a 15 08 00 00
	00		 mov	 dl, BYTE PTR ??_C@_08DFICILBJ@?1offlife?$AA@+8
  004ee	88 95 5c ff ff
	ff		 mov	 BYTE PTR _CommandOffTradeLife$225893[ebp+8], dl

; 182  : 		if(!memcmp(&Protocol[13],g_ExText.GetText(138),strlen(g_ExText.GetText(138))))

  004f4	68 8a 00 00 00	 push	 138			; 0000008aH
  004f9	b9 00 00 00 00	 mov	 ecx, OFFSET ?g_ExText@@3VCExText@@A ; g_ExText
  004fe	e8 00 00 00 00	 call	 ?GetText@CExText@@QAEPADH@Z ; CExText::GetText
  00503	50		 push	 eax
  00504	e8 00 00 00 00	 call	 _strlen
  00509	83 c4 04	 add	 esp, 4
  0050c	50		 push	 eax
  0050d	68 8a 00 00 00	 push	 138			; 0000008aH
  00512	b9 00 00 00 00	 mov	 ecx, OFFSET ?g_ExText@@3VCExText@@A ; g_ExText
  00517	e8 00 00 00 00	 call	 ?GetText@CExText@@QAEPADH@Z ; CExText::GetText
  0051c	50		 push	 eax
  0051d	8b 45 0c	 mov	 eax, DWORD PTR _Protocol$[ebp]
  00520	83 c0 0d	 add	 eax, 13			; 0000000dH
  00523	50		 push	 eax
  00524	e8 00 00 00 00	 call	 _memcmp
  00529	83 c4 0c	 add	 esp, 12			; 0000000cH
  0052c	85 c0		 test	 eax, eax
  0052e	75 10		 jne	 SHORT $LN23@ChatDataSe

; 183  : 			gOffTrade.CreateOffTrade(gObjId,OFFLIFE_DC);

  00530	6a 09		 push	 9
  00532	8b 45 08	 mov	 eax, DWORD PTR _gObjId$[ebp]
  00535	50		 push	 eax
  00536	b9 00 00 00 00	 mov	 ecx, OFFSET ?gOffTrade@@3VcOffTrade@@A ; gOffTrade
  0053b	e8 00 00 00 00	 call	 ?CreateOffTrade@cOffTrade@@QAEXHH@Z ; cOffTrade::CreateOffTrade
$LN23@ChatDataSe:

; 184  : 	}
; 185  : #else
; 186  : 	char CommandOffTradeLife[]	= "/offlife";
; 187  : #endif
; 188  : 
; 189  : 	// OffTrade
; 190  : 	if(!memcmp(&Protocol[13],g_ExText.GetText(130),strlen(g_ExText.GetText(130))))

  00540	68 82 00 00 00	 push	 130			; 00000082H
  00545	b9 00 00 00 00	 mov	 ecx, OFFSET ?g_ExText@@3VCExText@@A ; g_ExText
  0054a	e8 00 00 00 00	 call	 ?GetText@CExText@@QAEPADH@Z ; CExText::GetText
  0054f	50		 push	 eax
  00550	e8 00 00 00 00	 call	 _strlen
  00555	83 c4 04	 add	 esp, 4
  00558	50		 push	 eax
  00559	68 82 00 00 00	 push	 130			; 00000082H
  0055e	b9 00 00 00 00	 mov	 ecx, OFFSET ?g_ExText@@3VCExText@@A ; g_ExText
  00563	e8 00 00 00 00	 call	 ?GetText@CExText@@QAEPADH@Z ; CExText::GetText
  00568	50		 push	 eax
  00569	8b 45 0c	 mov	 eax, DWORD PTR _Protocol$[ebp]
  0056c	83 c0 0d	 add	 eax, 13			; 0000000dH
  0056f	50		 push	 eax
  00570	e8 00 00 00 00	 call	 _memcmp
  00575	83 c4 0c	 add	 esp, 12			; 0000000cH
  00578	85 c0		 test	 eax, eax
  0057a	75 15		 jne	 SHORT $LN21@ChatDataSe

; 191  : 		gOffTrade.CreateOffTrade(gObjId,OFFZEN_DC);

  0057c	6a 01		 push	 1
  0057e	8b 45 08	 mov	 eax, DWORD PTR _gObjId$[ebp]
  00581	50		 push	 eax
  00582	b9 00 00 00 00	 mov	 ecx, OFFSET ?gOffTrade@@3VcOffTrade@@A ; gOffTrade
  00587	e8 00 00 00 00	 call	 ?CreateOffTrade@cOffTrade@@QAEXHH@Z ; cOffTrade::CreateOffTrade
  0058c	e9 8d 01 00 00	 jmp	 $LN20@ChatDataSe
$LN21@ChatDataSe:

; 192  : 	else if(!memcmp(&Protocol[13],g_ExText.GetText(131),strlen(g_ExText.GetText(131))))

  00591	68 83 00 00 00	 push	 131			; 00000083H
  00596	b9 00 00 00 00	 mov	 ecx, OFFSET ?g_ExText@@3VCExText@@A ; g_ExText
  0059b	e8 00 00 00 00	 call	 ?GetText@CExText@@QAEPADH@Z ; CExText::GetText
  005a0	50		 push	 eax
  005a1	e8 00 00 00 00	 call	 _strlen
  005a6	83 c4 04	 add	 esp, 4
  005a9	50		 push	 eax
  005aa	68 83 00 00 00	 push	 131			; 00000083H
  005af	b9 00 00 00 00	 mov	 ecx, OFFSET ?g_ExText@@3VCExText@@A ; g_ExText
  005b4	e8 00 00 00 00	 call	 ?GetText@CExText@@QAEPADH@Z ; CExText::GetText
  005b9	50		 push	 eax
  005ba	8b 45 0c	 mov	 eax, DWORD PTR _Protocol$[ebp]
  005bd	83 c0 0d	 add	 eax, 13			; 0000000dH
  005c0	50		 push	 eax
  005c1	e8 00 00 00 00	 call	 _memcmp
  005c6	83 c4 0c	 add	 esp, 12			; 0000000cH
  005c9	85 c0		 test	 eax, eax
  005cb	75 15		 jne	 SHORT $LN19@ChatDataSe

; 193  : 		gOffTrade.CreateOffTrade(gObjId,OFFCR_DC);

  005cd	6a 02		 push	 2
  005cf	8b 45 08	 mov	 eax, DWORD PTR _gObjId$[ebp]
  005d2	50		 push	 eax
  005d3	b9 00 00 00 00	 mov	 ecx, OFFSET ?gOffTrade@@3VcOffTrade@@A ; gOffTrade
  005d8	e8 00 00 00 00	 call	 ?CreateOffTrade@cOffTrade@@QAEXHH@Z ; cOffTrade::CreateOffTrade
  005dd	e9 3c 01 00 00	 jmp	 $LN20@ChatDataSe
$LN19@ChatDataSe:

; 194  : #ifdef SNAKER_CMD_NAME
; 195  : 
; 196  : #else // SNAKER_CMD_NAME
; 197  : 
; 198  : 	else if(!memcmp(&Protocol[13],CommandOffTradeWcoin,strlen(CommandOffTradeWcoin)))
; 199  : 		gOffTrade.CreateOffTrade(gObjId,OFFWC_DC);
; 200  : 	else if(!memcmp(&Protocol[13],CommandOffTradeWcoinP,strlen(CommandOffTradeWcoinP)))
; 201  : 		gOffTrade.CreateOffTrade(gObjId,OFFWP_DC);
; 202  : #endif
; 203  : 	else if(!memcmp(&Protocol[13],g_ExText.GetText(134),strlen(g_ExText.GetText(134))))

  005e2	68 86 00 00 00	 push	 134			; 00000086H
  005e7	b9 00 00 00 00	 mov	 ecx, OFFSET ?g_ExText@@3VCExText@@A ; g_ExText
  005ec	e8 00 00 00 00	 call	 ?GetText@CExText@@QAEPADH@Z ; CExText::GetText
  005f1	50		 push	 eax
  005f2	e8 00 00 00 00	 call	 _strlen
  005f7	83 c4 04	 add	 esp, 4
  005fa	50		 push	 eax
  005fb	68 86 00 00 00	 push	 134			; 00000086H
  00600	b9 00 00 00 00	 mov	 ecx, OFFSET ?g_ExText@@3VCExText@@A ; g_ExText
  00605	e8 00 00 00 00	 call	 ?GetText@CExText@@QAEPADH@Z ; CExText::GetText
  0060a	50		 push	 eax
  0060b	8b 45 0c	 mov	 eax, DWORD PTR _Protocol$[ebp]
  0060e	83 c0 0d	 add	 eax, 13			; 0000000dH
  00611	50		 push	 eax
  00612	e8 00 00 00 00	 call	 _memcmp
  00617	83 c4 0c	 add	 esp, 12			; 0000000cH
  0061a	85 c0		 test	 eax, eax
  0061c	75 15		 jne	 SHORT $LN17@ChatDataSe

; 204  : 		gOffTrade.CreateOffTrade(gObjId,OFFWG_DC);

  0061e	6a 05		 push	 5
  00620	8b 45 08	 mov	 eax, DWORD PTR _gObjId$[ebp]
  00623	50		 push	 eax
  00624	b9 00 00 00 00	 mov	 ecx, OFFSET ?gOffTrade@@3VcOffTrade@@A ; gOffTrade
  00629	e8 00 00 00 00	 call	 ?CreateOffTrade@cOffTrade@@QAEXHH@Z ; cOffTrade::CreateOffTrade
  0062e	e9 eb 00 00 00	 jmp	 $LN20@ChatDataSe
$LN17@ChatDataSe:

; 205  : 
; 206  : 	else if(!memcmp(&Protocol[13],g_ExText.GetText(135),strlen(g_ExText.GetText(135))))

  00633	68 87 00 00 00	 push	 135			; 00000087H
  00638	b9 00 00 00 00	 mov	 ecx, OFFSET ?g_ExText@@3VCExText@@A ; g_ExText
  0063d	e8 00 00 00 00	 call	 ?GetText@CExText@@QAEPADH@Z ; CExText::GetText
  00642	50		 push	 eax
  00643	e8 00 00 00 00	 call	 _strlen
  00648	83 c4 04	 add	 esp, 4
  0064b	50		 push	 eax
  0064c	68 87 00 00 00	 push	 135			; 00000087H
  00651	b9 00 00 00 00	 mov	 ecx, OFFSET ?g_ExText@@3VCExText@@A ; g_ExText
  00656	e8 00 00 00 00	 call	 ?GetText@CExText@@QAEPADH@Z ; CExText::GetText
  0065b	50		 push	 eax
  0065c	8b 45 0c	 mov	 eax, DWORD PTR _Protocol$[ebp]
  0065f	83 c0 0d	 add	 eax, 13			; 0000000dH
  00662	50		 push	 eax
  00663	e8 00 00 00 00	 call	 _memcmp
  00668	83 c4 0c	 add	 esp, 12			; 0000000cH
  0066b	85 c0		 test	 eax, eax
  0066d	75 15		 jne	 SHORT $LN15@ChatDataSe

; 207  : 		gOffTrade.CreateOffTrade(gObjId,OFFCHAOS_DC);

  0066f	6a 06		 push	 6
  00671	8b 45 08	 mov	 eax, DWORD PTR _gObjId$[ebp]
  00674	50		 push	 eax
  00675	b9 00 00 00 00	 mov	 ecx, OFFSET ?gOffTrade@@3VcOffTrade@@A ; gOffTrade
  0067a	e8 00 00 00 00	 call	 ?CreateOffTrade@cOffTrade@@QAEXHH@Z ; cOffTrade::CreateOffTrade
  0067f	e9 9a 00 00 00	 jmp	 $LN20@ChatDataSe
$LN15@ChatDataSe:

; 208  : 	else if(!memcmp(&Protocol[13],g_ExText.GetText(136),strlen(g_ExText.GetText(136))))

  00684	68 88 00 00 00	 push	 136			; 00000088H
  00689	b9 00 00 00 00	 mov	 ecx, OFFSET ?g_ExText@@3VCExText@@A ; g_ExText
  0068e	e8 00 00 00 00	 call	 ?GetText@CExText@@QAEPADH@Z ; CExText::GetText
  00693	50		 push	 eax
  00694	e8 00 00 00 00	 call	 _strlen
  00699	83 c4 04	 add	 esp, 4
  0069c	50		 push	 eax
  0069d	68 88 00 00 00	 push	 136			; 00000088H
  006a2	b9 00 00 00 00	 mov	 ecx, OFFSET ?g_ExText@@3VCExText@@A ; g_ExText
  006a7	e8 00 00 00 00	 call	 ?GetText@CExText@@QAEPADH@Z ; CExText::GetText
  006ac	50		 push	 eax
  006ad	8b 45 0c	 mov	 eax, DWORD PTR _Protocol$[ebp]
  006b0	83 c0 0d	 add	 eax, 13			; 0000000dH
  006b3	50		 push	 eax
  006b4	e8 00 00 00 00	 call	 _memcmp
  006b9	83 c4 0c	 add	 esp, 12			; 0000000cH
  006bc	85 c0		 test	 eax, eax
  006be	75 12		 jne	 SHORT $LN13@ChatDataSe

; 209  : 		gOffTrade.CreateOffTrade(gObjId,OFFBLESS_DC);

  006c0	6a 07		 push	 7
  006c2	8b 45 08	 mov	 eax, DWORD PTR _gObjId$[ebp]
  006c5	50		 push	 eax
  006c6	b9 00 00 00 00	 mov	 ecx, OFFSET ?gOffTrade@@3VcOffTrade@@A ; gOffTrade
  006cb	e8 00 00 00 00	 call	 ?CreateOffTrade@cOffTrade@@QAEXHH@Z ; cOffTrade::CreateOffTrade
  006d0	eb 4c		 jmp	 SHORT $LN20@ChatDataSe
$LN13@ChatDataSe:

; 210  : 	else if(!memcmp(&Protocol[13],g_ExText.GetText(137),strlen(g_ExText.GetText(137))))

  006d2	68 89 00 00 00	 push	 137			; 00000089H
  006d7	b9 00 00 00 00	 mov	 ecx, OFFSET ?g_ExText@@3VCExText@@A ; g_ExText
  006dc	e8 00 00 00 00	 call	 ?GetText@CExText@@QAEPADH@Z ; CExText::GetText
  006e1	50		 push	 eax
  006e2	e8 00 00 00 00	 call	 _strlen
  006e7	83 c4 04	 add	 esp, 4
  006ea	50		 push	 eax
  006eb	68 89 00 00 00	 push	 137			; 00000089H
  006f0	b9 00 00 00 00	 mov	 ecx, OFFSET ?g_ExText@@3VCExText@@A ; g_ExText
  006f5	e8 00 00 00 00	 call	 ?GetText@CExText@@QAEPADH@Z ; CExText::GetText
  006fa	50		 push	 eax
  006fb	8b 45 0c	 mov	 eax, DWORD PTR _Protocol$[ebp]
  006fe	83 c0 0d	 add	 eax, 13			; 0000000dH
  00701	50		 push	 eax
  00702	e8 00 00 00 00	 call	 _memcmp
  00707	83 c4 0c	 add	 esp, 12			; 0000000cH
  0070a	85 c0		 test	 eax, eax
  0070c	75 10		 jne	 SHORT $LN20@ChatDataSe

; 211  : 		gOffTrade.CreateOffTrade(gObjId,OFFSOUL_DC);

  0070e	6a 08		 push	 8
  00710	8b 45 08	 mov	 eax, DWORD PTR _gObjId$[ebp]
  00713	50		 push	 eax
  00714	b9 00 00 00 00	 mov	 ecx, OFFSET ?gOffTrade@@3VcOffTrade@@A ; gOffTrade
  00719	e8 00 00 00 00	 call	 ?CreateOffTrade@cOffTrade@@QAEXHH@Z ; cOffTrade::CreateOffTrade
$LN20@ChatDataSe:

; 212  : #endif
; 213  : 
; 214  : 	if(!memcmp(&Protocol[13],gGrandReset.CommandGrandReset,strlen(gGrandReset.CommandGrandReset))) gGrandReset.ExGrandResetSystemFunciton(gObjId);

  0071e	68 4c 00 00 00	 push	 OFFSET ?gGrandReset@@3VcGrandReset@@A+76
  00723	e8 00 00 00 00	 call	 _strlen
  00728	83 c4 04	 add	 esp, 4
  0072b	50		 push	 eax
  0072c	68 4c 00 00 00	 push	 OFFSET ?gGrandReset@@3VcGrandReset@@A+76
  00731	8b 45 0c	 mov	 eax, DWORD PTR _Protocol$[ebp]
  00734	83 c0 0d	 add	 eax, 13			; 0000000dH
  00737	50		 push	 eax
  00738	e8 00 00 00 00	 call	 _memcmp
  0073d	83 c4 0c	 add	 esp, 12			; 0000000cH
  00740	85 c0		 test	 eax, eax
  00742	75 0e		 jne	 SHORT $LN10@ChatDataSe
  00744	8b 45 08	 mov	 eax, DWORD PTR _gObjId$[ebp]
  00747	50		 push	 eax
  00748	b9 00 00 00 00	 mov	 ecx, OFFSET ?gGrandReset@@3VcGrandReset@@A ; gGrandReset
  0074d	e8 00 00 00 00	 call	 ?ExGrandResetSystemFunciton@cGrandReset@@QAEXH@Z ; cGrandReset::ExGrandResetSystemFunciton
$LN10@ChatDataSe:

; 215  : 	if(!memcmp(&Protocol[13],gResetSystem.CommandReset,strlen(gResetSystem.CommandReset))) gResetSystem.ExResetSystemFunciton(gObjId);

  00752	68 4d 00 00 00	 push	 OFFSET ?gResetSystem@@3VcResetSystem@@A+77
  00757	e8 00 00 00 00	 call	 _strlen
  0075c	83 c4 04	 add	 esp, 4
  0075f	50		 push	 eax
  00760	68 4d 00 00 00	 push	 OFFSET ?gResetSystem@@3VcResetSystem@@A+77
  00765	8b 45 0c	 mov	 eax, DWORD PTR _Protocol$[ebp]
  00768	83 c0 0d	 add	 eax, 13			; 0000000dH
  0076b	50		 push	 eax
  0076c	e8 00 00 00 00	 call	 _memcmp
  00771	83 c4 0c	 add	 esp, 12			; 0000000cH
  00774	85 c0		 test	 eax, eax
  00776	75 0e		 jne	 SHORT $LN9@ChatDataSe
  00778	8b 45 08	 mov	 eax, DWORD PTR _gObjId$[ebp]
  0077b	50		 push	 eax
  0077c	b9 00 00 00 00	 mov	 ecx, OFFSET ?gResetSystem@@3VcResetSystem@@A ; gResetSystem
  00781	e8 00 00 00 00	 call	 ?ExResetSystemFunciton@cResetSystem@@QAEXH@Z ; cResetSystem::ExResetSystemFunciton
$LN9@ChatDataSe:

; 216  : //--------------------------------------------------------------------------------------------------
; 217  : // CommandPkClear
; 218  : 	if(!memcmp(&Protocol[13],ExConfig.Command.CommandPkClear,strlen(ExConfig.Command.CommandPkClear)))

  00786	68 38 05 00 00	 push	 OFFSET ?ExConfig@@3VcExConfigs@@A+1336
  0078b	e8 00 00 00 00	 call	 _strlen
  00790	83 c4 04	 add	 esp, 4
  00793	50		 push	 eax
  00794	68 38 05 00 00	 push	 OFFSET ?ExConfig@@3VcExConfigs@@A+1336
  00799	8b 45 0c	 mov	 eax, DWORD PTR _Protocol$[ebp]
  0079c	83 c0 0d	 add	 eax, 13			; 0000000dH
  0079f	50		 push	 eax
  007a0	e8 00 00 00 00	 call	 _memcmp
  007a5	83 c4 0c	 add	 esp, 12			; 0000000cH
  007a8	85 c0		 test	 eax, eax
  007aa	75 0c		 jne	 SHORT $LN8@ChatDataSe

; 219  : 		Ex_PkClear(gObjId);

  007ac	8b 45 08	 mov	 eax, DWORD PTR _gObjId$[ebp]
  007af	50		 push	 eax
  007b0	e8 00 00 00 00	 call	 ?Ex_PkClear@@YAXH@Z	; Ex_PkClear
  007b5	83 c4 04	 add	 esp, 4
$LN8@ChatDataSe:

; 220  : //--------------------------------------------------------------------------------------------------
; 221  : // CommandAddCmd
; 222  : 	if(!memcmp(&Protocol[13],ExConfig.Command.CommandAddCmd,strlen(ExConfig.Command.CommandAddCmd)))

  007b8	68 d4 04 00 00	 push	 OFFSET ?ExConfig@@3VcExConfigs@@A+1236
  007bd	e8 00 00 00 00	 call	 _strlen
  007c2	83 c4 04	 add	 esp, 4
  007c5	50		 push	 eax
  007c6	68 d4 04 00 00	 push	 OFFSET ?ExConfig@@3VcExConfigs@@A+1236
  007cb	8b 45 0c	 mov	 eax, DWORD PTR _Protocol$[ebp]
  007ce	83 c0 0d	 add	 eax, 13			; 0000000dH
  007d1	50		 push	 eax
  007d2	e8 00 00 00 00	 call	 _memcmp
  007d7	83 c4 0c	 add	 esp, 12			; 0000000cH
  007da	85 c0		 test	 eax, eax
  007dc	75 21		 jne	 SHORT $LN7@ChatDataSe

; 223  : 		Ex_AddCmd(gObjId,(char*)Protocol+13+strlen(ExConfig.Command.CommandAddCmd));

  007de	68 d4 04 00 00	 push	 OFFSET ?ExConfig@@3VcExConfigs@@A+1236
  007e3	e8 00 00 00 00	 call	 _strlen
  007e8	83 c4 04	 add	 esp, 4
  007eb	8b 4d 0c	 mov	 ecx, DWORD PTR _Protocol$[ebp]
  007ee	8d 54 01 0d	 lea	 edx, DWORD PTR [ecx+eax+13]
  007f2	52		 push	 edx
  007f3	8b 45 08	 mov	 eax, DWORD PTR _gObjId$[ebp]
  007f6	50		 push	 eax
  007f7	e8 00 00 00 00	 call	 ?Ex_AddCmd@@YAXHPAD@Z	; Ex_AddCmd
  007fc	83 c4 08	 add	 esp, 8
$LN7@ChatDataSe:

; 224  : //--------------------------------------------------------------------------------------------------
; 225  : // CommandAddEne
; 226  : 	if(!memcmp(&Protocol[13],ExConfig.Command.CommandAddEne,strlen(ExConfig.Command.CommandAddEne)))

  007ff	68 70 04 00 00	 push	 OFFSET ?ExConfig@@3VcExConfigs@@A+1136
  00804	e8 00 00 00 00	 call	 _strlen
  00809	83 c4 04	 add	 esp, 4
  0080c	50		 push	 eax
  0080d	68 70 04 00 00	 push	 OFFSET ?ExConfig@@3VcExConfigs@@A+1136
  00812	8b 45 0c	 mov	 eax, DWORD PTR _Protocol$[ebp]
  00815	83 c0 0d	 add	 eax, 13			; 0000000dH
  00818	50		 push	 eax
  00819	e8 00 00 00 00	 call	 _memcmp
  0081e	83 c4 0c	 add	 esp, 12			; 0000000cH
  00821	85 c0		 test	 eax, eax
  00823	75 21		 jne	 SHORT $LN6@ChatDataSe

; 227  : 		Ex_AddEne(gObjId,(char*)Protocol+13+strlen(ExConfig.Command.CommandAddEne));

  00825	68 70 04 00 00	 push	 OFFSET ?ExConfig@@3VcExConfigs@@A+1136
  0082a	e8 00 00 00 00	 call	 _strlen
  0082f	83 c4 04	 add	 esp, 4
  00832	8b 4d 0c	 mov	 ecx, DWORD PTR _Protocol$[ebp]
  00835	8d 54 01 0d	 lea	 edx, DWORD PTR [ecx+eax+13]
  00839	52		 push	 edx
  0083a	8b 45 08	 mov	 eax, DWORD PTR _gObjId$[ebp]
  0083d	50		 push	 eax
  0083e	e8 00 00 00 00	 call	 ?Ex_AddEne@@YAXHPAD@Z	; Ex_AddEne
  00843	83 c4 08	 add	 esp, 8
$LN6@ChatDataSe:

; 228  : //--------------------------------------------------------------------------------------------------
; 229  : // CommandAddVit
; 230  : 	if(!memcmp(&Protocol[13],ExConfig.Command.CommandAddVit,strlen(ExConfig.Command.CommandAddVit)))

  00846	68 0c 04 00 00	 push	 OFFSET ?ExConfig@@3VcExConfigs@@A+1036
  0084b	e8 00 00 00 00	 call	 _strlen
  00850	83 c4 04	 add	 esp, 4
  00853	50		 push	 eax
  00854	68 0c 04 00 00	 push	 OFFSET ?ExConfig@@3VcExConfigs@@A+1036
  00859	8b 45 0c	 mov	 eax, DWORD PTR _Protocol$[ebp]
  0085c	83 c0 0d	 add	 eax, 13			; 0000000dH
  0085f	50		 push	 eax
  00860	e8 00 00 00 00	 call	 _memcmp
  00865	83 c4 0c	 add	 esp, 12			; 0000000cH
  00868	85 c0		 test	 eax, eax
  0086a	75 21		 jne	 SHORT $LN5@ChatDataSe

; 231  : 		Ex_AddVit(gObjId,(char*)Protocol+13+strlen(ExConfig.Command.CommandAddVit));

  0086c	68 0c 04 00 00	 push	 OFFSET ?ExConfig@@3VcExConfigs@@A+1036
  00871	e8 00 00 00 00	 call	 _strlen
  00876	83 c4 04	 add	 esp, 4
  00879	8b 4d 0c	 mov	 ecx, DWORD PTR _Protocol$[ebp]
  0087c	8d 54 01 0d	 lea	 edx, DWORD PTR [ecx+eax+13]
  00880	52		 push	 edx
  00881	8b 45 08	 mov	 eax, DWORD PTR _gObjId$[ebp]
  00884	50		 push	 eax
  00885	e8 00 00 00 00	 call	 ?Ex_AddVit@@YAXHPAD@Z	; Ex_AddVit
  0088a	83 c4 08	 add	 esp, 8
$LN5@ChatDataSe:

; 232  : //--------------------------------------------------------------------------------------------------
; 233  : // CommandAddAgi
; 234  : 	if(!memcmp(&Protocol[13],ExConfig.Command.CommandAddAgi,strlen(ExConfig.Command.CommandAddAgi)))

  0088d	68 a8 03 00 00	 push	 OFFSET ?ExConfig@@3VcExConfigs@@A+936
  00892	e8 00 00 00 00	 call	 _strlen
  00897	83 c4 04	 add	 esp, 4
  0089a	50		 push	 eax
  0089b	68 a8 03 00 00	 push	 OFFSET ?ExConfig@@3VcExConfigs@@A+936
  008a0	8b 45 0c	 mov	 eax, DWORD PTR _Protocol$[ebp]
  008a3	83 c0 0d	 add	 eax, 13			; 0000000dH
  008a6	50		 push	 eax
  008a7	e8 00 00 00 00	 call	 _memcmp
  008ac	83 c4 0c	 add	 esp, 12			; 0000000cH
  008af	85 c0		 test	 eax, eax
  008b1	75 21		 jne	 SHORT $LN4@ChatDataSe

; 235  : 		Ex_AddAgi(gObjId,(char*)Protocol+13+strlen(ExConfig.Command.CommandAddAgi));

  008b3	68 a8 03 00 00	 push	 OFFSET ?ExConfig@@3VcExConfigs@@A+936
  008b8	e8 00 00 00 00	 call	 _strlen
  008bd	83 c4 04	 add	 esp, 4
  008c0	8b 4d 0c	 mov	 ecx, DWORD PTR _Protocol$[ebp]
  008c3	8d 54 01 0d	 lea	 edx, DWORD PTR [ecx+eax+13]
  008c7	52		 push	 edx
  008c8	8b 45 08	 mov	 eax, DWORD PTR _gObjId$[ebp]
  008cb	50		 push	 eax
  008cc	e8 00 00 00 00	 call	 ?Ex_AddAgi@@YAXHPAD@Z	; Ex_AddAgi
  008d1	83 c4 08	 add	 esp, 8
$LN4@ChatDataSe:

; 236  : //--------------------------------------------------------------------------------------------------
; 237  : // CommandAddStr
; 238  : 	if(!memcmp(&Protocol[13],ExConfig.Command.CommandAddStr,strlen(ExConfig.Command.CommandAddStr)))

  008d4	68 44 03 00 00	 push	 OFFSET ?ExConfig@@3VcExConfigs@@A+836
  008d9	e8 00 00 00 00	 call	 _strlen
  008de	83 c4 04	 add	 esp, 4
  008e1	50		 push	 eax
  008e2	68 44 03 00 00	 push	 OFFSET ?ExConfig@@3VcExConfigs@@A+836
  008e7	8b 45 0c	 mov	 eax, DWORD PTR _Protocol$[ebp]
  008ea	83 c0 0d	 add	 eax, 13			; 0000000dH
  008ed	50		 push	 eax
  008ee	e8 00 00 00 00	 call	 _memcmp
  008f3	83 c4 0c	 add	 esp, 12			; 0000000cH
  008f6	85 c0		 test	 eax, eax
  008f8	75 23		 jne	 SHORT $LN3@ChatDataSe

; 239  : 	{
; 240  : 		Ex_AddStr(gObjId,(char*)Protocol+13+strlen(ExConfig.Command.CommandAddStr));

  008fa	68 44 03 00 00	 push	 OFFSET ?ExConfig@@3VcExConfigs@@A+836
  008ff	e8 00 00 00 00	 call	 _strlen
  00904	83 c4 04	 add	 esp, 4
  00907	8b 4d 0c	 mov	 ecx, DWORD PTR _Protocol$[ebp]
  0090a	8d 54 01 0d	 lea	 edx, DWORD PTR [ecx+eax+13]
  0090e	52		 push	 edx
  0090f	8b 45 08	 mov	 eax, DWORD PTR _gObjId$[ebp]
  00912	50		 push	 eax
  00913	e8 00 00 00 00	 call	 ?Ex_AddStr@@YAXHPAD@Z	; Ex_AddStr
  00918	83 c4 08	 add	 esp, 8
  0091b	eb 47		 jmp	 SHORT $LN47@ChatDataSe
$LN3@ChatDataSe:

; 241  : 	}
; 242  : 
; 243  : 	else if(!memcmp(&Protocol[13],"/元宝商店",strlen("/元宝商店")))

  0091d	68 00 00 00 00	 push	 OFFSET ??_C@_05EEBHKGIO@?1?$DP?$DP?$DP?$DP?$AA@
  00922	e8 00 00 00 00	 call	 _strlen
  00927	83 c4 04	 add	 esp, 4
  0092a	50		 push	 eax
  0092b	68 00 00 00 00	 push	 OFFSET ??_C@_05EEBHKGIO@?1?$DP?$DP?$DP?$DP?$AA@
  00930	8b 45 0c	 mov	 eax, DWORD PTR _Protocol$[ebp]
  00933	83 c0 0d	 add	 eax, 13			; 0000000dH
  00936	50		 push	 eax
  00937	e8 00 00 00 00	 call	 _memcmp
  0093c	83 c4 0c	 add	 esp, 12			; 0000000cH
  0093f	85 c0		 test	 eax, eax
  00941	75 21		 jne	 SHORT $LN47@ChatDataSe

; 244  : 	{
; 245  : 
; 246  : 		Ex_AddStr(gObjId,(char*)Protocol+13+strlen(ExConfig.Command.CommandAddStr));

  00943	68 44 03 00 00	 push	 OFFSET ?ExConfig@@3VcExConfigs@@A+836
  00948	e8 00 00 00 00	 call	 _strlen
  0094d	83 c4 04	 add	 esp, 4
  00950	8b 4d 0c	 mov	 ecx, DWORD PTR _Protocol$[ebp]
  00953	8d 54 01 0d	 lea	 edx, DWORD PTR [ecx+eax+13]
  00957	52		 push	 edx
  00958	8b 45 08	 mov	 eax, DWORD PTR _gObjId$[ebp]
  0095b	50		 push	 eax
  0095c	e8 00 00 00 00	 call	 ?Ex_AddStr@@YAXHPAD@Z	; Ex_AddStr
  00961	83 c4 08	 add	 esp, 8
$LN47@ChatDataSe:

; 247  : 	}
; 248  : //--------------------------------------------------------------------------------------------------
; 249  : //Command Post
; 250  : 	/*if(!memcmp(&Protocol[13],ExConfig.Command.CommandPost,strlen(ExConfig.Command.CommandPost)))
; 251  : 	PostMessage(gObjId,(char*)Protocol+13+strlen(ExConfig.Command.CommandPost));*/
; 252  : 	
; 253  : }

  00964	5f		 pop	 edi
  00965	5e		 pop	 esi
  00966	5b		 pop	 ebx
  00967	8b 4d fc	 mov	 ecx, DWORD PTR __$ArrayPad$[ebp]
  0096a	33 cd		 xor	 ecx, ebp
  0096c	e8 00 00 00 00	 call	 @__security_check_cookie@4
  00971	8b e5		 mov	 esp, ebp
  00973	5d		 pop	 ebp
  00974	c3		 ret	 0
?ChatDataSend@@YAXKPAE@Z ENDP				; ChatDataSend
_TEXT	ENDS
PUBLIC	??_C@_02DPKJAMEF@?$CFd?$AA@			; `string'
EXTRN	?UpdateCharInfo@@YAXH@Z:PROC			; UpdateCharInfo
EXTRN	?GCManaSend@@YAXHHEEH@Z:PROC			; GCManaSend
EXTRN	?gObjSetBP@@YAXH@Z:PROC				; gObjSetBP
EXTRN	?GCReFillSend@@YAXHHEEH@Z:PROC			; GCReFillSend
EXTRN	?gObjCalCharacter@@YAXH@Z:PROC			; gObjCalCharacter
EXTRN	?GCMoneySend@@YAXHK@Z:PROC			; GCMoneySend
EXTRN	_sscanf:PROC
EXTRN	__fltused:DWORD
EXTRN	__ftol2_sse:PROC
;	COMDAT ??_C@_02DPKJAMEF@?$CFd?$AA@
CONST	SEGMENT
??_C@_02DPKJAMEF@?$CFd?$AA@ DB '%d', 00H		; `string'
; Function compile flags: /Odtp /ZI
CONST	ENDS
_TEXT	SEGMENT
_AddPoints$ = -8					; size = 4
_lpObj$ = -4						; size = 4
_aIndex$ = 8						; size = 4
_msg$ = 12						; size = 4
?Ex_AddStr@@YAXHPAD@Z PROC				; Ex_AddStr

; 325  : {

  00980	55		 push	 ebp
  00981	8b ec		 mov	 ebp, esp
  00983	83 ec 48	 sub	 esp, 72			; 00000048H
  00986	53		 push	 ebx
  00987	56		 push	 esi
  00988	57		 push	 edi

; 326  : 	LPOBJ lpObj = &gObj[aIndex];

  00989	8b 45 08	 mov	 eax, DWORD PTR _aIndex$[ebp]
  0098c	69 c0 38 2b 00
	00		 imul	 eax, 11064		; 00002b38H
  00992	03 05 00 00 00
	00		 add	 eax, DWORD PTR ?gObj@@3PAUOBJECTSTRUCT@@A ; gObj
  00998	89 45 fc	 mov	 DWORD PTR _lpObj$[ebp], eax

; 327  : 	if(lpObj->LevelUpPoint == 0)

  0099b	8b 45 fc	 mov	 eax, DWORD PTR _lpObj$[ebp]
  0099e	83 b8 c0 00 00
	00 00		 cmp	 DWORD PTR [eax+192], 0
  009a5	75 05		 jne	 SHORT $LN6@Ex_AddStr

; 328  : 		return;

  009a7	e9 c6 01 00 00	 jmp	 $LN7@Ex_AddStr
$LN6@Ex_AddStr:

; 329  : 	unsigned int AddPoints = 0;

  009ac	c7 45 f8 00 00
	00 00		 mov	 DWORD PTR _AddPoints$[ebp], 0

; 330  : 	sscanf(msg,"%d",&AddPoints);

  009b3	8d 45 f8	 lea	 eax, DWORD PTR _AddPoints$[ebp]
  009b6	50		 push	 eax
  009b7	68 00 00 00 00	 push	 OFFSET ??_C@_02DPKJAMEF@?$CFd?$AA@
  009bc	8b 4d 0c	 mov	 ecx, DWORD PTR _msg$[ebp]
  009bf	51		 push	 ecx
  009c0	e8 00 00 00 00	 call	 _sscanf
  009c5	83 c4 0c	 add	 esp, 12			; 0000000cH

; 331  : 	if(lpObj->LevelUpPoint < AddPoints)

  009c8	8b 45 fc	 mov	 eax, DWORD PTR _lpObj$[ebp]
  009cb	8b 88 c0 00 00
	00		 mov	 ecx, DWORD PTR [eax+192]
  009d1	3b 4d f8	 cmp	 ecx, DWORD PTR _AddPoints$[ebp]
  009d4	73 05		 jae	 SHORT $LN5@Ex_AddStr

; 332  : 		return;

  009d6	e9 97 01 00 00	 jmp	 $LN7@Ex_AddStr
$LN5@Ex_AddStr:

; 333  : 	//int AddMoney = GetPrivateProfileInt("AddCommand","AddPriceZen",0,"..\\Data\\ExData\\Commands.ini");
; 334  : 	if(ExConfig.Command.AddMoney > lpObj->Money)

  009db	8b 45 fc	 mov	 eax, DWORD PTR _lpObj$[ebp]
  009de	8b 0d 7c 06 00
	00		 mov	 ecx, DWORD PTR ?ExConfig@@3VcExConfigs@@A+1660
  009e4	3b 88 f0 00 00
	00		 cmp	 ecx, DWORD PTR [eax+240]
  009ea	7e 24		 jle	 SHORT $LN4@Ex_AddStr

; 335  : 	{
; 336  : 		MsgNormal(aIndex, g_ExText.GetText(126), ExConfig.Command.AddMoney);

  009ec	a1 7c 06 00 00	 mov	 eax, DWORD PTR ?ExConfig@@3VcExConfigs@@A+1660
  009f1	50		 push	 eax
  009f2	6a 7e		 push	 126			; 0000007eH
  009f4	b9 00 00 00 00	 mov	 ecx, OFFSET ?g_ExText@@3VCExText@@A ; g_ExText
  009f9	e8 00 00 00 00	 call	 ?GetText@CExText@@QAEPADH@Z ; CExText::GetText
  009fe	50		 push	 eax
  009ff	8b 4d 08	 mov	 ecx, DWORD PTR _aIndex$[ebp]
  00a02	51		 push	 ecx
  00a03	e8 00 00 00 00	 call	 ?MsgNormal@@YAXHPADZZ	; MsgNormal
  00a08	83 c4 0c	 add	 esp, 12			; 0000000cH

; 337  : 		return;

  00a0b	e9 62 01 00 00	 jmp	 $LN7@Ex_AddStr
$LN4@Ex_AddStr:

; 338  : 	}
; 339  : 	//int AddLeveL = GetPrivateProfileInt("AddCommand","AddPointLevel",1,"..\\Data\\ExData\\Commands.ini");
; 340  : 	if(ExConfig.Command.AddLeveL > lpObj->Level)

  00a10	8b 45 fc	 mov	 eax, DWORD PTR _lpObj$[ebp]
  00a13	0f bf 88 be 00
	00 00		 movsx	 ecx, WORD PTR [eax+190]
  00a1a	39 0d 80 06 00
	00		 cmp	 DWORD PTR ?ExConfig@@3VcExConfigs@@A+1664, ecx
  00a20	7e 24		 jle	 SHORT $LN3@Ex_AddStr

; 341  : 	{
; 342  : 		MsgNormal(aIndex,g_ExText.GetText(127),ExConfig.Command.AddLeveL);

  00a22	a1 80 06 00 00	 mov	 eax, DWORD PTR ?ExConfig@@3VcExConfigs@@A+1664
  00a27	50		 push	 eax
  00a28	6a 7f		 push	 127			; 0000007fH
  00a2a	b9 00 00 00 00	 mov	 ecx, OFFSET ?g_ExText@@3VCExText@@A ; g_ExText
  00a2f	e8 00 00 00 00	 call	 ?GetText@CExText@@QAEPADH@Z ; CExText::GetText
  00a34	50		 push	 eax
  00a35	8b 4d 08	 mov	 ecx, DWORD PTR _aIndex$[ebp]
  00a38	51		 push	 ecx
  00a39	e8 00 00 00 00	 call	 ?MsgNormal@@YAXHPADZZ	; MsgNormal
  00a3e	83 c4 0c	 add	 esp, 12			; 0000000cH

; 343  : 		return;

  00a41	e9 2c 01 00 00	 jmp	 $LN7@Ex_AddStr
$LN3@Ex_AddStr:

; 344  : 	}
; 345  : 	if (AddPoints>0 && AddPoints <= ExConfig.Character.MaxStats)

  00a46	83 7d f8 00	 cmp	 DWORD PTR _AddPoints$[ebp], 0
  00a4a	0f 86 22 01 00
	00		 jbe	 $LN2@Ex_AddStr
  00a50	8b 45 f8	 mov	 eax, DWORD PTR _AddPoints$[ebp]
  00a53	3b 05 50 01 00
	00		 cmp	 eax, DWORD PTR ?ExConfig@@3VcExConfigs@@A+336
  00a59	0f 87 13 01 00
	00		 ja	 $LN2@Ex_AddStr

; 346  : 	{
; 347  : 		if((lpObj->Strength + AddPoints ) > ExConfig.Character.MaxStats)

  00a5f	8b 45 fc	 mov	 eax, DWORD PTR _lpObj$[ebp]
  00a62	0f b7 88 f4 00
	00 00		 movzx	 ecx, WORD PTR [eax+244]
  00a69	03 4d f8	 add	 ecx, DWORD PTR _AddPoints$[ebp]
  00a6c	3b 0d 50 01 00
	00		 cmp	 ecx, DWORD PTR ?ExConfig@@3VcExConfigs@@A+336
  00a72	76 05		 jbe	 SHORT $LN1@Ex_AddStr

; 348  : 			return;

  00a74	e9 f9 00 00 00	 jmp	 $LN7@Ex_AddStr
$LN1@Ex_AddStr:

; 349  : 		lpObj->Strength += AddPoints;

  00a79	8b 45 fc	 mov	 eax, DWORD PTR _lpObj$[ebp]
  00a7c	0f b7 88 f4 00
	00 00		 movzx	 ecx, WORD PTR [eax+244]
  00a83	03 4d f8	 add	 ecx, DWORD PTR _AddPoints$[ebp]
  00a86	8b 55 fc	 mov	 edx, DWORD PTR _lpObj$[ebp]
  00a89	66 89 8a f4 00
	00 00		 mov	 WORD PTR [edx+244], cx

; 350  : 		lpObj->LevelUpPoint -= AddPoints;

  00a90	8b 45 fc	 mov	 eax, DWORD PTR _lpObj$[ebp]
  00a93	8b 88 c0 00 00
	00		 mov	 ecx, DWORD PTR [eax+192]
  00a99	2b 4d f8	 sub	 ecx, DWORD PTR _AddPoints$[ebp]
  00a9c	8b 55 fc	 mov	 edx, DWORD PTR _lpObj$[ebp]
  00a9f	89 8a c0 00 00
	00		 mov	 DWORD PTR [edx+192], ecx

; 351  : 		lpObj->Money -= ExConfig.Command.AddMoney;

  00aa5	8b 45 fc	 mov	 eax, DWORD PTR _lpObj$[ebp]
  00aa8	8b 88 f0 00 00
	00		 mov	 ecx, DWORD PTR [eax+240]
  00aae	2b 0d 7c 06 00
	00		 sub	 ecx, DWORD PTR ?ExConfig@@3VcExConfigs@@A+1660
  00ab4	8b 55 fc	 mov	 edx, DWORD PTR _lpObj$[ebp]
  00ab7	89 8a f0 00 00
	00		 mov	 DWORD PTR [edx+240], ecx

; 352  : 		GCMoneySend(aIndex,lpObj->Money);

  00abd	8b 45 fc	 mov	 eax, DWORD PTR _lpObj$[ebp]
  00ac0	8b 88 f0 00 00
	00		 mov	 ecx, DWORD PTR [eax+240]
  00ac6	51		 push	 ecx
  00ac7	8b 55 08	 mov	 edx, DWORD PTR _aIndex$[ebp]
  00aca	52		 push	 edx
  00acb	e8 00 00 00 00	 call	 ?GCMoneySend@@YAXHK@Z	; GCMoneySend
  00ad0	83 c4 08	 add	 esp, 8

; 353  : 		//ExUpdateStats(lpObj, AddPoints, 1);
; 354  : 		gObjCalCharacter(lpObj->m_Index);

  00ad3	8b 45 fc	 mov	 eax, DWORD PTR _lpObj$[ebp]
  00ad6	8b 08		 mov	 ecx, DWORD PTR [eax]
  00ad8	51		 push	 ecx
  00ad9	e8 00 00 00 00	 call	 ?gObjCalCharacter@@YAXH@Z ; gObjCalCharacter
  00ade	83 c4 04	 add	 esp, 4

; 355  : 		GCReFillSend(lpObj->m_Index,(lpObj->AddLife + lpObj->MaxLife), 0xFE, 0, (lpObj->iMaxShield + lpObj->iAddShield) );

  00ae1	8b 45 fc	 mov	 eax, DWORD PTR _lpObj$[ebp]
  00ae4	8b 88 58 01 00
	00		 mov	 ecx, DWORD PTR [eax+344]
  00aea	8b 55 fc	 mov	 edx, DWORD PTR _lpObj$[ebp]
  00aed	03 8a 5c 01 00
	00		 add	 ecx, DWORD PTR [edx+348]
  00af3	51		 push	 ecx
  00af4	6a 00		 push	 0
  00af6	68 fe 00 00 00	 push	 254			; 000000feH
  00afb	8b 45 fc	 mov	 eax, DWORD PTR _lpObj$[ebp]
  00afe	db 80 4c 01 00
	00		 fild	 DWORD PTR [eax+332]
  00b04	8b 4d fc	 mov	 ecx, DWORD PTR _lpObj$[ebp]
  00b07	d8 81 00 01 00
	00		 fadd	 DWORD PTR [ecx+256]
  00b0d	e8 00 00 00 00	 call	 __ftol2_sse
  00b12	50		 push	 eax
  00b13	8b 55 fc	 mov	 edx, DWORD PTR _lpObj$[ebp]
  00b16	8b 02		 mov	 eax, DWORD PTR [edx]
  00b18	50		 push	 eax
  00b19	e8 00 00 00 00	 call	 ?GCReFillSend@@YAXHHEEH@Z ; GCReFillSend
  00b1e	83 c4 14	 add	 esp, 20			; 00000014H

; 356  : 		gObjSetBP(lpObj->m_Index);

  00b21	8b 45 fc	 mov	 eax, DWORD PTR _lpObj$[ebp]
  00b24	8b 08		 mov	 ecx, DWORD PTR [eax]
  00b26	51		 push	 ecx
  00b27	e8 00 00 00 00	 call	 ?gObjSetBP@@YAXH@Z	; gObjSetBP
  00b2c	83 c4 04	 add	 esp, 4

; 357  : 		GCManaSend(lpObj->m_Index, (lpObj->AddMana + lpObj->MaxMana), 0xFE, 0, lpObj->MaxBP);

  00b2f	8b 45 fc	 mov	 eax, DWORD PTR _lpObj$[ebp]
  00b32	8b 88 2c 01 00
	00		 mov	 ecx, DWORD PTR [eax+300]
  00b38	51		 push	 ecx
  00b39	6a 00		 push	 0
  00b3b	68 fe 00 00 00	 push	 254			; 000000feH
  00b40	8b 55 fc	 mov	 edx, DWORD PTR _lpObj$[ebp]
  00b43	db 82 50 01 00
	00		 fild	 DWORD PTR [edx+336]
  00b49	8b 45 fc	 mov	 eax, DWORD PTR _lpObj$[ebp]
  00b4c	d8 80 14 01 00
	00		 fadd	 DWORD PTR [eax+276]
  00b52	e8 00 00 00 00	 call	 __ftol2_sse
  00b57	50		 push	 eax
  00b58	8b 4d fc	 mov	 ecx, DWORD PTR _lpObj$[ebp]
  00b5b	8b 11		 mov	 edx, DWORD PTR [ecx]
  00b5d	52		 push	 edx
  00b5e	e8 00 00 00 00	 call	 ?GCManaSend@@YAXHHEEH@Z	; GCManaSend
  00b63	83 c4 14	 add	 esp, 20			; 00000014H

; 358  : 		//GCLevelUpMsgSend(gObj[aIndex].m_Index, 0);
; 359  : 		UpdateCharInfo(aIndex);

  00b66	8b 45 08	 mov	 eax, DWORD PTR _aIndex$[ebp]
  00b69	50		 push	 eax
  00b6a	e8 00 00 00 00	 call	 ?UpdateCharInfo@@YAXH@Z	; UpdateCharInfo
  00b6f	83 c4 04	 add	 esp, 4
$LN2@Ex_AddStr:
$LN7@Ex_AddStr:

; 360  : 	}
; 361  : }

  00b72	5f		 pop	 edi
  00b73	5e		 pop	 esi
  00b74	5b		 pop	 ebx
  00b75	8b e5		 mov	 esp, ebp
  00b77	5d		 pop	 ebp
  00b78	c3		 ret	 0
?Ex_AddStr@@YAXHPAD@Z ENDP				; Ex_AddStr
; Function compile flags: /Odtp /ZI
_AddPoints$ = -8					; size = 4
_lpObj$ = -4						; size = 4
_aIndex$ = 8						; size = 4
_msg$ = 12						; size = 4
?Ex_AddAgi@@YAXHPAD@Z PROC				; Ex_AddAgi

; 364  : {

  00b80	55		 push	 ebp
  00b81	8b ec		 mov	 ebp, esp
  00b83	83 ec 48	 sub	 esp, 72			; 00000048H
  00b86	53		 push	 ebx
  00b87	56		 push	 esi
  00b88	57		 push	 edi

; 365  : 	LPOBJ lpObj = &gObj[aIndex];

  00b89	8b 45 08	 mov	 eax, DWORD PTR _aIndex$[ebp]
  00b8c	69 c0 38 2b 00
	00		 imul	 eax, 11064		; 00002b38H
  00b92	03 05 00 00 00
	00		 add	 eax, DWORD PTR ?gObj@@3PAUOBJECTSTRUCT@@A ; gObj
  00b98	89 45 fc	 mov	 DWORD PTR _lpObj$[ebp], eax

; 366  : 	if(lpObj->LevelUpPoint == 0)

  00b9b	8b 45 fc	 mov	 eax, DWORD PTR _lpObj$[ebp]
  00b9e	83 b8 c0 00 00
	00 00		 cmp	 DWORD PTR [eax+192], 0
  00ba5	75 05		 jne	 SHORT $LN6@Ex_AddAgi

; 367  : 		return;

  00ba7	e9 c6 01 00 00	 jmp	 $LN7@Ex_AddAgi
$LN6@Ex_AddAgi:

; 368  : 	unsigned int AddPoints = 0;

  00bac	c7 45 f8 00 00
	00 00		 mov	 DWORD PTR _AddPoints$[ebp], 0

; 369  : 	sscanf(msg,"%d",&AddPoints);

  00bb3	8d 45 f8	 lea	 eax, DWORD PTR _AddPoints$[ebp]
  00bb6	50		 push	 eax
  00bb7	68 00 00 00 00	 push	 OFFSET ??_C@_02DPKJAMEF@?$CFd?$AA@
  00bbc	8b 4d 0c	 mov	 ecx, DWORD PTR _msg$[ebp]
  00bbf	51		 push	 ecx
  00bc0	e8 00 00 00 00	 call	 _sscanf
  00bc5	83 c4 0c	 add	 esp, 12			; 0000000cH

; 370  : 	if(lpObj->LevelUpPoint < AddPoints)

  00bc8	8b 45 fc	 mov	 eax, DWORD PTR _lpObj$[ebp]
  00bcb	8b 88 c0 00 00
	00		 mov	 ecx, DWORD PTR [eax+192]
  00bd1	3b 4d f8	 cmp	 ecx, DWORD PTR _AddPoints$[ebp]
  00bd4	73 05		 jae	 SHORT $LN5@Ex_AddAgi

; 371  : 		return;

  00bd6	e9 97 01 00 00	 jmp	 $LN7@Ex_AddAgi
$LN5@Ex_AddAgi:

; 372  : 	//int AddMoney = GetPrivateProfileInt("AddCommand","AddPriceZen",0,"..\\Data\\ExData\\Commands.ini");
; 373  : 	if(ExConfig.Command.AddMoney > lpObj->Money)

  00bdb	8b 45 fc	 mov	 eax, DWORD PTR _lpObj$[ebp]
  00bde	8b 0d 7c 06 00
	00		 mov	 ecx, DWORD PTR ?ExConfig@@3VcExConfigs@@A+1660
  00be4	3b 88 f0 00 00
	00		 cmp	 ecx, DWORD PTR [eax+240]
  00bea	7e 24		 jle	 SHORT $LN4@Ex_AddAgi

; 374  : 	{
; 375  : 		MsgNormal(aIndex, g_ExText.GetText(126),ExConfig.Command.AddMoney);

  00bec	a1 7c 06 00 00	 mov	 eax, DWORD PTR ?ExConfig@@3VcExConfigs@@A+1660
  00bf1	50		 push	 eax
  00bf2	6a 7e		 push	 126			; 0000007eH
  00bf4	b9 00 00 00 00	 mov	 ecx, OFFSET ?g_ExText@@3VCExText@@A ; g_ExText
  00bf9	e8 00 00 00 00	 call	 ?GetText@CExText@@QAEPADH@Z ; CExText::GetText
  00bfe	50		 push	 eax
  00bff	8b 4d 08	 mov	 ecx, DWORD PTR _aIndex$[ebp]
  00c02	51		 push	 ecx
  00c03	e8 00 00 00 00	 call	 ?MsgNormal@@YAXHPADZZ	; MsgNormal
  00c08	83 c4 0c	 add	 esp, 12			; 0000000cH

; 376  : 		return;

  00c0b	e9 62 01 00 00	 jmp	 $LN7@Ex_AddAgi
$LN4@Ex_AddAgi:

; 377  : 	}
; 378  : 	//int AddLeveL = GetPrivateProfileInt("AddCommand","AddPointLevel",1,"..\\Data\\ExData\\Commands.ini");
; 379  : 	if(ExConfig.Command.AddLeveL > lpObj->Level)

  00c10	8b 45 fc	 mov	 eax, DWORD PTR _lpObj$[ebp]
  00c13	0f bf 88 be 00
	00 00		 movsx	 ecx, WORD PTR [eax+190]
  00c1a	39 0d 80 06 00
	00		 cmp	 DWORD PTR ?ExConfig@@3VcExConfigs@@A+1664, ecx
  00c20	7e 24		 jle	 SHORT $LN3@Ex_AddAgi

; 380  : 	{
; 381  : 		MsgNormal(aIndex,g_ExText.GetText(127),ExConfig.Command.AddLeveL);

  00c22	a1 80 06 00 00	 mov	 eax, DWORD PTR ?ExConfig@@3VcExConfigs@@A+1664
  00c27	50		 push	 eax
  00c28	6a 7f		 push	 127			; 0000007fH
  00c2a	b9 00 00 00 00	 mov	 ecx, OFFSET ?g_ExText@@3VCExText@@A ; g_ExText
  00c2f	e8 00 00 00 00	 call	 ?GetText@CExText@@QAEPADH@Z ; CExText::GetText
  00c34	50		 push	 eax
  00c35	8b 4d 08	 mov	 ecx, DWORD PTR _aIndex$[ebp]
  00c38	51		 push	 ecx
  00c39	e8 00 00 00 00	 call	 ?MsgNormal@@YAXHPADZZ	; MsgNormal
  00c3e	83 c4 0c	 add	 esp, 12			; 0000000cH

; 382  : 		return;

  00c41	e9 2c 01 00 00	 jmp	 $LN7@Ex_AddAgi
$LN3@Ex_AddAgi:

; 383  : 	}
; 384  : 	if (AddPoints>0 && AddPoints <= ExConfig.Character.MaxStats)

  00c46	83 7d f8 00	 cmp	 DWORD PTR _AddPoints$[ebp], 0
  00c4a	0f 86 22 01 00
	00		 jbe	 $LN2@Ex_AddAgi
  00c50	8b 45 f8	 mov	 eax, DWORD PTR _AddPoints$[ebp]
  00c53	3b 05 50 01 00
	00		 cmp	 eax, DWORD PTR ?ExConfig@@3VcExConfigs@@A+336
  00c59	0f 87 13 01 00
	00		 ja	 $LN2@Ex_AddAgi

; 385  : 	{
; 386  : 		if ((lpObj->Dexterity + AddPoints) > ExConfig.Character.MaxStats)

  00c5f	8b 45 fc	 mov	 eax, DWORD PTR _lpObj$[ebp]
  00c62	0f b7 88 f6 00
	00 00		 movzx	 ecx, WORD PTR [eax+246]
  00c69	03 4d f8	 add	 ecx, DWORD PTR _AddPoints$[ebp]
  00c6c	3b 0d 50 01 00
	00		 cmp	 ecx, DWORD PTR ?ExConfig@@3VcExConfigs@@A+336
  00c72	76 05		 jbe	 SHORT $LN1@Ex_AddAgi

; 387  : 			return;

  00c74	e9 f9 00 00 00	 jmp	 $LN7@Ex_AddAgi
$LN1@Ex_AddAgi:

; 388  : 		lpObj->Dexterity += AddPoints;

  00c79	8b 45 fc	 mov	 eax, DWORD PTR _lpObj$[ebp]
  00c7c	0f b7 88 f6 00
	00 00		 movzx	 ecx, WORD PTR [eax+246]
  00c83	03 4d f8	 add	 ecx, DWORD PTR _AddPoints$[ebp]
  00c86	8b 55 fc	 mov	 edx, DWORD PTR _lpObj$[ebp]
  00c89	66 89 8a f6 00
	00 00		 mov	 WORD PTR [edx+246], cx

; 389  : 		lpObj->LevelUpPoint -= AddPoints;

  00c90	8b 45 fc	 mov	 eax, DWORD PTR _lpObj$[ebp]
  00c93	8b 88 c0 00 00
	00		 mov	 ecx, DWORD PTR [eax+192]
  00c99	2b 4d f8	 sub	 ecx, DWORD PTR _AddPoints$[ebp]
  00c9c	8b 55 fc	 mov	 edx, DWORD PTR _lpObj$[ebp]
  00c9f	89 8a c0 00 00
	00		 mov	 DWORD PTR [edx+192], ecx

; 390  : 		lpObj->Money -= ExConfig.Command.AddMoney;

  00ca5	8b 45 fc	 mov	 eax, DWORD PTR _lpObj$[ebp]
  00ca8	8b 88 f0 00 00
	00		 mov	 ecx, DWORD PTR [eax+240]
  00cae	2b 0d 7c 06 00
	00		 sub	 ecx, DWORD PTR ?ExConfig@@3VcExConfigs@@A+1660
  00cb4	8b 55 fc	 mov	 edx, DWORD PTR _lpObj$[ebp]
  00cb7	89 8a f0 00 00
	00		 mov	 DWORD PTR [edx+240], ecx

; 391  : 		GCMoneySend(aIndex,lpObj->Money);

  00cbd	8b 45 fc	 mov	 eax, DWORD PTR _lpObj$[ebp]
  00cc0	8b 88 f0 00 00
	00		 mov	 ecx, DWORD PTR [eax+240]
  00cc6	51		 push	 ecx
  00cc7	8b 55 08	 mov	 edx, DWORD PTR _aIndex$[ebp]
  00cca	52		 push	 edx
  00ccb	e8 00 00 00 00	 call	 ?GCMoneySend@@YAXHK@Z	; GCMoneySend
  00cd0	83 c4 08	 add	 esp, 8

; 392  : 		//ExUpdateStats(lpObj, AddPoints, 2);
; 393  : 		gObjCalCharacter(lpObj->m_Index);

  00cd3	8b 45 fc	 mov	 eax, DWORD PTR _lpObj$[ebp]
  00cd6	8b 08		 mov	 ecx, DWORD PTR [eax]
  00cd8	51		 push	 ecx
  00cd9	e8 00 00 00 00	 call	 ?gObjCalCharacter@@YAXH@Z ; gObjCalCharacter
  00cde	83 c4 04	 add	 esp, 4

; 394  : 		GCReFillSend(lpObj->m_Index,(lpObj->AddLife + lpObj->MaxLife), 0xFE, 0, (lpObj->iMaxShield + lpObj->iAddShield) );

  00ce1	8b 45 fc	 mov	 eax, DWORD PTR _lpObj$[ebp]
  00ce4	8b 88 58 01 00
	00		 mov	 ecx, DWORD PTR [eax+344]
  00cea	8b 55 fc	 mov	 edx, DWORD PTR _lpObj$[ebp]
  00ced	03 8a 5c 01 00
	00		 add	 ecx, DWORD PTR [edx+348]
  00cf3	51		 push	 ecx
  00cf4	6a 00		 push	 0
  00cf6	68 fe 00 00 00	 push	 254			; 000000feH
  00cfb	8b 45 fc	 mov	 eax, DWORD PTR _lpObj$[ebp]
  00cfe	db 80 4c 01 00
	00		 fild	 DWORD PTR [eax+332]
  00d04	8b 4d fc	 mov	 ecx, DWORD PTR _lpObj$[ebp]
  00d07	d8 81 00 01 00
	00		 fadd	 DWORD PTR [ecx+256]
  00d0d	e8 00 00 00 00	 call	 __ftol2_sse
  00d12	50		 push	 eax
  00d13	8b 55 fc	 mov	 edx, DWORD PTR _lpObj$[ebp]
  00d16	8b 02		 mov	 eax, DWORD PTR [edx]
  00d18	50		 push	 eax
  00d19	e8 00 00 00 00	 call	 ?GCReFillSend@@YAXHHEEH@Z ; GCReFillSend
  00d1e	83 c4 14	 add	 esp, 20			; 00000014H

; 395  : 		gObjSetBP(lpObj->m_Index);

  00d21	8b 45 fc	 mov	 eax, DWORD PTR _lpObj$[ebp]
  00d24	8b 08		 mov	 ecx, DWORD PTR [eax]
  00d26	51		 push	 ecx
  00d27	e8 00 00 00 00	 call	 ?gObjSetBP@@YAXH@Z	; gObjSetBP
  00d2c	83 c4 04	 add	 esp, 4

; 396  : 		GCManaSend(lpObj->m_Index, (lpObj->AddMana + lpObj->MaxMana), 0xFE, 0, lpObj->MaxBP);

  00d2f	8b 45 fc	 mov	 eax, DWORD PTR _lpObj$[ebp]
  00d32	8b 88 2c 01 00
	00		 mov	 ecx, DWORD PTR [eax+300]
  00d38	51		 push	 ecx
  00d39	6a 00		 push	 0
  00d3b	68 fe 00 00 00	 push	 254			; 000000feH
  00d40	8b 55 fc	 mov	 edx, DWORD PTR _lpObj$[ebp]
  00d43	db 82 50 01 00
	00		 fild	 DWORD PTR [edx+336]
  00d49	8b 45 fc	 mov	 eax, DWORD PTR _lpObj$[ebp]
  00d4c	d8 80 14 01 00
	00		 fadd	 DWORD PTR [eax+276]
  00d52	e8 00 00 00 00	 call	 __ftol2_sse
  00d57	50		 push	 eax
  00d58	8b 4d fc	 mov	 ecx, DWORD PTR _lpObj$[ebp]
  00d5b	8b 11		 mov	 edx, DWORD PTR [ecx]
  00d5d	52		 push	 edx
  00d5e	e8 00 00 00 00	 call	 ?GCManaSend@@YAXHHEEH@Z	; GCManaSend
  00d63	83 c4 14	 add	 esp, 20			; 00000014H

; 397  : 		//GCLevelUpMsgSend(gObj[aIndex].m_Index, 0);
; 398  : 		UpdateCharInfo(aIndex);

  00d66	8b 45 08	 mov	 eax, DWORD PTR _aIndex$[ebp]
  00d69	50		 push	 eax
  00d6a	e8 00 00 00 00	 call	 ?UpdateCharInfo@@YAXH@Z	; UpdateCharInfo
  00d6f	83 c4 04	 add	 esp, 4
$LN2@Ex_AddAgi:
$LN7@Ex_AddAgi:

; 399  : 	}
; 400  : }

  00d72	5f		 pop	 edi
  00d73	5e		 pop	 esi
  00d74	5b		 pop	 ebx
  00d75	8b e5		 mov	 esp, ebp
  00d77	5d		 pop	 ebp
  00d78	c3		 ret	 0
?Ex_AddAgi@@YAXHPAD@Z ENDP				; Ex_AddAgi
; Function compile flags: /Odtp /ZI
tv207 = -80						; size = 8
_AddPoints$ = -8					; size = 4
_lpObj$ = -4						; size = 4
_aIndex$ = 8						; size = 4
_msg$ = 12						; size = 4
?Ex_AddVit@@YAXHPAD@Z PROC				; Ex_AddVit

; 403  : {

  00d80	55		 push	 ebp
  00d81	8b ec		 mov	 ebp, esp
  00d83	83 ec 50	 sub	 esp, 80			; 00000050H
  00d86	53		 push	 ebx
  00d87	56		 push	 esi
  00d88	57		 push	 edi

; 404  : 	LPOBJ lpObj = &gObj[aIndex];

  00d89	8b 45 08	 mov	 eax, DWORD PTR _aIndex$[ebp]
  00d8c	69 c0 38 2b 00
	00		 imul	 eax, 11064		; 00002b38H
  00d92	03 05 00 00 00
	00		 add	 eax, DWORD PTR ?gObj@@3PAUOBJECTSTRUCT@@A ; gObj
  00d98	89 45 fc	 mov	 DWORD PTR _lpObj$[ebp], eax

; 405  : 	if(lpObj->LevelUpPoint == 0)

  00d9b	8b 45 fc	 mov	 eax, DWORD PTR _lpObj$[ebp]
  00d9e	83 b8 c0 00 00
	00 00		 cmp	 DWORD PTR [eax+192], 0
  00da5	75 05		 jne	 SHORT $LN6@Ex_AddVit

; 406  : 		return;

  00da7	e9 f1 01 00 00	 jmp	 $LN7@Ex_AddVit
$LN6@Ex_AddVit:

; 407  : 	unsigned int AddPoints = 0;

  00dac	c7 45 f8 00 00
	00 00		 mov	 DWORD PTR _AddPoints$[ebp], 0

; 408  : 	sscanf(msg,"%d",&AddPoints);

  00db3	8d 45 f8	 lea	 eax, DWORD PTR _AddPoints$[ebp]
  00db6	50		 push	 eax
  00db7	68 00 00 00 00	 push	 OFFSET ??_C@_02DPKJAMEF@?$CFd?$AA@
  00dbc	8b 4d 0c	 mov	 ecx, DWORD PTR _msg$[ebp]
  00dbf	51		 push	 ecx
  00dc0	e8 00 00 00 00	 call	 _sscanf
  00dc5	83 c4 0c	 add	 esp, 12			; 0000000cH

; 409  : 	if(lpObj->LevelUpPoint < AddPoints)

  00dc8	8b 45 fc	 mov	 eax, DWORD PTR _lpObj$[ebp]
  00dcb	8b 88 c0 00 00
	00		 mov	 ecx, DWORD PTR [eax+192]
  00dd1	3b 4d f8	 cmp	 ecx, DWORD PTR _AddPoints$[ebp]
  00dd4	73 05		 jae	 SHORT $LN5@Ex_AddVit

; 410  : 		return;

  00dd6	e9 c2 01 00 00	 jmp	 $LN7@Ex_AddVit
$LN5@Ex_AddVit:

; 411  : 	//int AddMoney = GetPrivateProfileInt("AddCommand","AddPriceZen",0,"..\\Data\\ExData\\Commands.ini");
; 412  : 	if(ExConfig.Command.AddMoney > lpObj->Money)

  00ddb	8b 45 fc	 mov	 eax, DWORD PTR _lpObj$[ebp]
  00dde	8b 0d 7c 06 00
	00		 mov	 ecx, DWORD PTR ?ExConfig@@3VcExConfigs@@A+1660
  00de4	3b 88 f0 00 00
	00		 cmp	 ecx, DWORD PTR [eax+240]
  00dea	7e 24		 jle	 SHORT $LN4@Ex_AddVit

; 413  : 	{
; 414  : 		MsgNormal(aIndex, g_ExText.GetText(126),ExConfig.Command.AddMoney);

  00dec	a1 7c 06 00 00	 mov	 eax, DWORD PTR ?ExConfig@@3VcExConfigs@@A+1660
  00df1	50		 push	 eax
  00df2	6a 7e		 push	 126			; 0000007eH
  00df4	b9 00 00 00 00	 mov	 ecx, OFFSET ?g_ExText@@3VCExText@@A ; g_ExText
  00df9	e8 00 00 00 00	 call	 ?GetText@CExText@@QAEPADH@Z ; CExText::GetText
  00dfe	50		 push	 eax
  00dff	8b 4d 08	 mov	 ecx, DWORD PTR _aIndex$[ebp]
  00e02	51		 push	 ecx
  00e03	e8 00 00 00 00	 call	 ?MsgNormal@@YAXHPADZZ	; MsgNormal
  00e08	83 c4 0c	 add	 esp, 12			; 0000000cH

; 415  : 		return;

  00e0b	e9 8d 01 00 00	 jmp	 $LN7@Ex_AddVit
$LN4@Ex_AddVit:

; 416  : 	}
; 417  : 	//int AddLeveL = GetPrivateProfileInt("AddCommand","AddPointLevel",1,"..\\Data\\ExData\\Commands.ini");
; 418  : 	if(ExConfig.Command.AddLeveL > lpObj->Level)

  00e10	8b 45 fc	 mov	 eax, DWORD PTR _lpObj$[ebp]
  00e13	0f bf 88 be 00
	00 00		 movsx	 ecx, WORD PTR [eax+190]
  00e1a	39 0d 80 06 00
	00		 cmp	 DWORD PTR ?ExConfig@@3VcExConfigs@@A+1664, ecx
  00e20	7e 24		 jle	 SHORT $LN3@Ex_AddVit

; 419  : 	{
; 420  : 		MsgNormal(aIndex,g_ExText.GetText(127),ExConfig.Command.AddLeveL);

  00e22	a1 80 06 00 00	 mov	 eax, DWORD PTR ?ExConfig@@3VcExConfigs@@A+1664
  00e27	50		 push	 eax
  00e28	6a 7f		 push	 127			; 0000007fH
  00e2a	b9 00 00 00 00	 mov	 ecx, OFFSET ?g_ExText@@3VCExText@@A ; g_ExText
  00e2f	e8 00 00 00 00	 call	 ?GetText@CExText@@QAEPADH@Z ; CExText::GetText
  00e34	50		 push	 eax
  00e35	8b 4d 08	 mov	 ecx, DWORD PTR _aIndex$[ebp]
  00e38	51		 push	 ecx
  00e39	e8 00 00 00 00	 call	 ?MsgNormal@@YAXHPADZZ	; MsgNormal
  00e3e	83 c4 0c	 add	 esp, 12			; 0000000cH

; 421  : 		return;

  00e41	e9 57 01 00 00	 jmp	 $LN7@Ex_AddVit
$LN3@Ex_AddVit:

; 422  : 	}
; 423  : 	if (AddPoints>0 && AddPoints <= ExConfig.Character.MaxStats)

  00e46	83 7d f8 00	 cmp	 DWORD PTR _AddPoints$[ebp], 0
  00e4a	0f 86 4d 01 00
	00		 jbe	 $LN2@Ex_AddVit
  00e50	8b 45 f8	 mov	 eax, DWORD PTR _AddPoints$[ebp]
  00e53	3b 05 50 01 00
	00		 cmp	 eax, DWORD PTR ?ExConfig@@3VcExConfigs@@A+336
  00e59	0f 87 3e 01 00
	00		 ja	 $LN2@Ex_AddVit

; 424  : 	{
; 425  : 		if ((lpObj->Vitality + AddPoints ) > ExConfig.Character.MaxStats)

  00e5f	8b 45 fc	 mov	 eax, DWORD PTR _lpObj$[ebp]
  00e62	0f b7 88 f8 00
	00 00		 movzx	 ecx, WORD PTR [eax+248]
  00e69	03 4d f8	 add	 ecx, DWORD PTR _AddPoints$[ebp]
  00e6c	3b 0d 50 01 00
	00		 cmp	 ecx, DWORD PTR ?ExConfig@@3VcExConfigs@@A+336
  00e72	76 05		 jbe	 SHORT $LN1@Ex_AddVit

; 426  : 			return;

  00e74	e9 24 01 00 00	 jmp	 $LN7@Ex_AddVit
$LN1@Ex_AddVit:

; 427  : 		lpObj->Vitality += AddPoints;

  00e79	8b 45 fc	 mov	 eax, DWORD PTR _lpObj$[ebp]
  00e7c	0f b7 88 f8 00
	00 00		 movzx	 ecx, WORD PTR [eax+248]
  00e83	03 4d f8	 add	 ecx, DWORD PTR _AddPoints$[ebp]
  00e86	8b 55 fc	 mov	 edx, DWORD PTR _lpObj$[ebp]
  00e89	66 89 8a f8 00
	00 00		 mov	 WORD PTR [edx+248], cx

; 428  : 		lpObj->MaxLife += lpObj->VitalityToLife * AddPoints;

  00e90	8b 45 f8	 mov	 eax, DWORD PTR _AddPoints$[ebp]
  00e93	89 45 b0	 mov	 DWORD PTR tv207[ebp], eax
  00e96	c7 45 b4 00 00
	00 00		 mov	 DWORD PTR tv207[ebp+4], 0
  00e9d	df 6d b0	 fild	 QWORD PTR tv207[ebp]
  00ea0	8b 4d fc	 mov	 ecx, DWORD PTR _lpObj$[ebp]
  00ea3	d8 89 34 01 00
	00		 fmul	 DWORD PTR [ecx+308]
  00ea9	8b 55 fc	 mov	 edx, DWORD PTR _lpObj$[ebp]
  00eac	d8 82 00 01 00
	00		 fadd	 DWORD PTR [edx+256]
  00eb2	8b 45 fc	 mov	 eax, DWORD PTR _lpObj$[ebp]
  00eb5	d9 98 00 01 00
	00		 fstp	 DWORD PTR [eax+256]

; 429  : 		lpObj->LevelUpPoint -= AddPoints;

  00ebb	8b 45 fc	 mov	 eax, DWORD PTR _lpObj$[ebp]
  00ebe	8b 88 c0 00 00
	00		 mov	 ecx, DWORD PTR [eax+192]
  00ec4	2b 4d f8	 sub	 ecx, DWORD PTR _AddPoints$[ebp]
  00ec7	8b 55 fc	 mov	 edx, DWORD PTR _lpObj$[ebp]
  00eca	89 8a c0 00 00
	00		 mov	 DWORD PTR [edx+192], ecx

; 430  : 		lpObj->Money -= ExConfig.Command.AddMoney;

  00ed0	8b 45 fc	 mov	 eax, DWORD PTR _lpObj$[ebp]
  00ed3	8b 88 f0 00 00
	00		 mov	 ecx, DWORD PTR [eax+240]
  00ed9	2b 0d 7c 06 00
	00		 sub	 ecx, DWORD PTR ?ExConfig@@3VcExConfigs@@A+1660
  00edf	8b 55 fc	 mov	 edx, DWORD PTR _lpObj$[ebp]
  00ee2	89 8a f0 00 00
	00		 mov	 DWORD PTR [edx+240], ecx

; 431  : 		//if(lpObj->Type == CLASS_KNIGHT)
; 432  : 		//	lpObj->MaxLife += AddPoints * 3;
; 433  : 		//else
; 434  : 		//	lpObj->MaxLife += AddPoints * 2;
; 435  : 		GCMoneySend(aIndex,lpObj->Money);

  00ee8	8b 45 fc	 mov	 eax, DWORD PTR _lpObj$[ebp]
  00eeb	8b 88 f0 00 00
	00		 mov	 ecx, DWORD PTR [eax+240]
  00ef1	51		 push	 ecx
  00ef2	8b 55 08	 mov	 edx, DWORD PTR _aIndex$[ebp]
  00ef5	52		 push	 edx
  00ef6	e8 00 00 00 00	 call	 ?GCMoneySend@@YAXHK@Z	; GCMoneySend
  00efb	83 c4 08	 add	 esp, 8

; 436  : 		//ExUpdateStats(lpObj, AddPoints, 3);
; 437  : 		gObjCalCharacter(lpObj->m_Index);

  00efe	8b 45 fc	 mov	 eax, DWORD PTR _lpObj$[ebp]
  00f01	8b 08		 mov	 ecx, DWORD PTR [eax]
  00f03	51		 push	 ecx
  00f04	e8 00 00 00 00	 call	 ?gObjCalCharacter@@YAXH@Z ; gObjCalCharacter
  00f09	83 c4 04	 add	 esp, 4

; 438  : 		GCReFillSend(lpObj->m_Index,(lpObj->AddLife + lpObj->MaxLife), 0xFE, 0, (lpObj->iMaxShield + lpObj->iAddShield) );

  00f0c	8b 45 fc	 mov	 eax, DWORD PTR _lpObj$[ebp]
  00f0f	8b 88 58 01 00
	00		 mov	 ecx, DWORD PTR [eax+344]
  00f15	8b 55 fc	 mov	 edx, DWORD PTR _lpObj$[ebp]
  00f18	03 8a 5c 01 00
	00		 add	 ecx, DWORD PTR [edx+348]
  00f1e	51		 push	 ecx
  00f1f	6a 00		 push	 0
  00f21	68 fe 00 00 00	 push	 254			; 000000feH
  00f26	8b 45 fc	 mov	 eax, DWORD PTR _lpObj$[ebp]
  00f29	db 80 4c 01 00
	00		 fild	 DWORD PTR [eax+332]
  00f2f	8b 4d fc	 mov	 ecx, DWORD PTR _lpObj$[ebp]
  00f32	d8 81 00 01 00
	00		 fadd	 DWORD PTR [ecx+256]
  00f38	e8 00 00 00 00	 call	 __ftol2_sse
  00f3d	50		 push	 eax
  00f3e	8b 55 fc	 mov	 edx, DWORD PTR _lpObj$[ebp]
  00f41	8b 02		 mov	 eax, DWORD PTR [edx]
  00f43	50		 push	 eax
  00f44	e8 00 00 00 00	 call	 ?GCReFillSend@@YAXHHEEH@Z ; GCReFillSend
  00f49	83 c4 14	 add	 esp, 20			; 00000014H

; 439  : 		gObjSetBP(lpObj->m_Index);

  00f4c	8b 45 fc	 mov	 eax, DWORD PTR _lpObj$[ebp]
  00f4f	8b 08		 mov	 ecx, DWORD PTR [eax]
  00f51	51		 push	 ecx
  00f52	e8 00 00 00 00	 call	 ?gObjSetBP@@YAXH@Z	; gObjSetBP
  00f57	83 c4 04	 add	 esp, 4

; 440  : 		GCManaSend(lpObj->m_Index, (lpObj->AddMana + lpObj->MaxMana), 0xFE, 0, lpObj->MaxBP);

  00f5a	8b 45 fc	 mov	 eax, DWORD PTR _lpObj$[ebp]
  00f5d	8b 88 2c 01 00
	00		 mov	 ecx, DWORD PTR [eax+300]
  00f63	51		 push	 ecx
  00f64	6a 00		 push	 0
  00f66	68 fe 00 00 00	 push	 254			; 000000feH
  00f6b	8b 55 fc	 mov	 edx, DWORD PTR _lpObj$[ebp]
  00f6e	db 82 50 01 00
	00		 fild	 DWORD PTR [edx+336]
  00f74	8b 45 fc	 mov	 eax, DWORD PTR _lpObj$[ebp]
  00f77	d8 80 14 01 00
	00		 fadd	 DWORD PTR [eax+276]
  00f7d	e8 00 00 00 00	 call	 __ftol2_sse
  00f82	50		 push	 eax
  00f83	8b 4d fc	 mov	 ecx, DWORD PTR _lpObj$[ebp]
  00f86	8b 11		 mov	 edx, DWORD PTR [ecx]
  00f88	52		 push	 edx
  00f89	e8 00 00 00 00	 call	 ?GCManaSend@@YAXHHEEH@Z	; GCManaSend
  00f8e	83 c4 14	 add	 esp, 20			; 00000014H

; 441  : 		//GCLevelUpMsgSend(gObj[aIndex].m_Index, 0);
; 442  : 		UpdateCharInfo(aIndex);

  00f91	8b 45 08	 mov	 eax, DWORD PTR _aIndex$[ebp]
  00f94	50		 push	 eax
  00f95	e8 00 00 00 00	 call	 ?UpdateCharInfo@@YAXH@Z	; UpdateCharInfo
  00f9a	83 c4 04	 add	 esp, 4
$LN2@Ex_AddVit:
$LN7@Ex_AddVit:

; 443  : 	}
; 444  : }

  00f9d	5f		 pop	 edi
  00f9e	5e		 pop	 esi
  00f9f	5b		 pop	 ebx
  00fa0	8b e5		 mov	 esp, ebp
  00fa2	5d		 pop	 ebp
  00fa3	c3		 ret	 0
?Ex_AddVit@@YAXHPAD@Z ENDP				; Ex_AddVit
; Function compile flags: /Odtp /ZI
tv211 = -80						; size = 8
_AddPoints$ = -8					; size = 4
_lpObj$ = -4						; size = 4
_aIndex$ = 8						; size = 4
_msg$ = 12						; size = 4
?Ex_AddEne@@YAXHPAD@Z PROC				; Ex_AddEne

; 447  : {

  00fb0	55		 push	 ebp
  00fb1	8b ec		 mov	 ebp, esp
  00fb3	83 ec 50	 sub	 esp, 80			; 00000050H
  00fb6	53		 push	 ebx
  00fb7	56		 push	 esi
  00fb8	57		 push	 edi

; 448  : 	LPOBJ lpObj = &gObj[aIndex];

  00fb9	8b 45 08	 mov	 eax, DWORD PTR _aIndex$[ebp]
  00fbc	69 c0 38 2b 00
	00		 imul	 eax, 11064		; 00002b38H
  00fc2	03 05 00 00 00
	00		 add	 eax, DWORD PTR ?gObj@@3PAUOBJECTSTRUCT@@A ; gObj
  00fc8	89 45 fc	 mov	 DWORD PTR _lpObj$[ebp], eax

; 449  : 	if(lpObj->LevelUpPoint == 0)

  00fcb	8b 45 fc	 mov	 eax, DWORD PTR _lpObj$[ebp]
  00fce	83 b8 c0 00 00
	00 00		 cmp	 DWORD PTR [eax+192], 0
  00fd5	75 05		 jne	 SHORT $LN6@Ex_AddEne

; 450  : 		return;

  00fd7	e9 ea 01 00 00	 jmp	 $LN7@Ex_AddEne
$LN6@Ex_AddEne:

; 451  : 	unsigned int AddPoints = 0;

  00fdc	c7 45 f8 00 00
	00 00		 mov	 DWORD PTR _AddPoints$[ebp], 0

; 452  : 	sscanf(msg,"%d",&AddPoints);

  00fe3	8d 45 f8	 lea	 eax, DWORD PTR _AddPoints$[ebp]
  00fe6	50		 push	 eax
  00fe7	68 00 00 00 00	 push	 OFFSET ??_C@_02DPKJAMEF@?$CFd?$AA@
  00fec	8b 4d 0c	 mov	 ecx, DWORD PTR _msg$[ebp]
  00fef	51		 push	 ecx
  00ff0	e8 00 00 00 00	 call	 _sscanf
  00ff5	83 c4 0c	 add	 esp, 12			; 0000000cH

; 453  : 	if(lpObj->LevelUpPoint < AddPoints)

  00ff8	8b 45 fc	 mov	 eax, DWORD PTR _lpObj$[ebp]
  00ffb	8b 88 c0 00 00
	00		 mov	 ecx, DWORD PTR [eax+192]
  01001	3b 4d f8	 cmp	 ecx, DWORD PTR _AddPoints$[ebp]
  01004	73 05		 jae	 SHORT $LN5@Ex_AddEne

; 454  : 		return;

  01006	e9 bb 01 00 00	 jmp	 $LN7@Ex_AddEne
$LN5@Ex_AddEne:

; 455  : 	//int AddMoney = GetPrivateProfileInt("AddCommand","AddPriceZen",0,"..\\Data\\ExData\\Commands.ini");
; 456  : 	if(ExConfig.Command.AddMoney > lpObj->Money)

  0100b	8b 45 fc	 mov	 eax, DWORD PTR _lpObj$[ebp]
  0100e	8b 0d 7c 06 00
	00		 mov	 ecx, DWORD PTR ?ExConfig@@3VcExConfigs@@A+1660
  01014	3b 88 f0 00 00
	00		 cmp	 ecx, DWORD PTR [eax+240]
  0101a	7e 24		 jle	 SHORT $LN4@Ex_AddEne

; 457  : 	{
; 458  : 		MsgNormal(aIndex, g_ExText.GetText(126),ExConfig.Command.AddMoney);

  0101c	a1 7c 06 00 00	 mov	 eax, DWORD PTR ?ExConfig@@3VcExConfigs@@A+1660
  01021	50		 push	 eax
  01022	6a 7e		 push	 126			; 0000007eH
  01024	b9 00 00 00 00	 mov	 ecx, OFFSET ?g_ExText@@3VCExText@@A ; g_ExText
  01029	e8 00 00 00 00	 call	 ?GetText@CExText@@QAEPADH@Z ; CExText::GetText
  0102e	50		 push	 eax
  0102f	8b 4d 08	 mov	 ecx, DWORD PTR _aIndex$[ebp]
  01032	51		 push	 ecx
  01033	e8 00 00 00 00	 call	 ?MsgNormal@@YAXHPADZZ	; MsgNormal
  01038	83 c4 0c	 add	 esp, 12			; 0000000cH

; 459  : 		return;

  0103b	e9 86 01 00 00	 jmp	 $LN7@Ex_AddEne
$LN4@Ex_AddEne:

; 460  : 	}
; 461  : 	//int AddLeveL = GetPrivateProfileInt("AddCommand","AddPointLevel",1,"..\\Data\\ExData\\Commands.ini");
; 462  : 	if(ExConfig.Command.AddLeveL > lpObj->Level)

  01040	8b 45 fc	 mov	 eax, DWORD PTR _lpObj$[ebp]
  01043	0f bf 88 be 00
	00 00		 movsx	 ecx, WORD PTR [eax+190]
  0104a	39 0d 80 06 00
	00		 cmp	 DWORD PTR ?ExConfig@@3VcExConfigs@@A+1664, ecx
  01050	7e 24		 jle	 SHORT $LN3@Ex_AddEne

; 463  : 	{
; 464  : 		MsgNormal(aIndex,g_ExText.GetText(127),ExConfig.Command.AddLeveL);

  01052	a1 80 06 00 00	 mov	 eax, DWORD PTR ?ExConfig@@3VcExConfigs@@A+1664
  01057	50		 push	 eax
  01058	6a 7f		 push	 127			; 0000007fH
  0105a	b9 00 00 00 00	 mov	 ecx, OFFSET ?g_ExText@@3VCExText@@A ; g_ExText
  0105f	e8 00 00 00 00	 call	 ?GetText@CExText@@QAEPADH@Z ; CExText::GetText
  01064	50		 push	 eax
  01065	8b 4d 08	 mov	 ecx, DWORD PTR _aIndex$[ebp]
  01068	51		 push	 ecx
  01069	e8 00 00 00 00	 call	 ?MsgNormal@@YAXHPADZZ	; MsgNormal
  0106e	83 c4 0c	 add	 esp, 12			; 0000000cH

; 465  : 		return;

  01071	e9 50 01 00 00	 jmp	 $LN7@Ex_AddEne
$LN3@Ex_AddEne:

; 466  : 	}
; 467  : 	if (AddPoints>0 && AddPoints <= ExConfig.Character.MaxStats)

  01076	83 7d f8 00	 cmp	 DWORD PTR _AddPoints$[ebp], 0
  0107a	0f 86 46 01 00
	00		 jbe	 $LN2@Ex_AddEne
  01080	8b 45 f8	 mov	 eax, DWORD PTR _AddPoints$[ebp]
  01083	3b 05 50 01 00
	00		 cmp	 eax, DWORD PTR ?ExConfig@@3VcExConfigs@@A+336
  01089	0f 87 37 01 00
	00		 ja	 $LN2@Ex_AddEne

; 468  : 	{
; 469  : 		if ((lpObj->Energy + AddPoints ) > ExConfig.Character.MaxStats)

  0108f	8b 45 fc	 mov	 eax, DWORD PTR _lpObj$[ebp]
  01092	0f b7 88 fa 00
	00 00		 movzx	 ecx, WORD PTR [eax+250]
  01099	03 4d f8	 add	 ecx, DWORD PTR _AddPoints$[ebp]
  0109c	3b 0d 50 01 00
	00		 cmp	 ecx, DWORD PTR ?ExConfig@@3VcExConfigs@@A+336
  010a2	76 05		 jbe	 SHORT $LN1@Ex_AddEne

; 470  : 			return;

  010a4	e9 1d 01 00 00	 jmp	 $LN7@Ex_AddEne
$LN1@Ex_AddEne:

; 471  : 		lpObj->Energy += AddPoints;

  010a9	8b 45 fc	 mov	 eax, DWORD PTR _lpObj$[ebp]
  010ac	0f b7 88 fa 00
	00 00		 movzx	 ecx, WORD PTR [eax+250]
  010b3	03 4d f8	 add	 ecx, DWORD PTR _AddPoints$[ebp]
  010b6	8b 55 fc	 mov	 edx, DWORD PTR _lpObj$[ebp]
  010b9	66 89 8a fa 00
	00 00		 mov	 WORD PTR [edx+250], cx

; 472  : 		lpObj->LevelUpPoint -= AddPoints;

  010c0	8b 45 fc	 mov	 eax, DWORD PTR _lpObj$[ebp]
  010c3	8b 88 c0 00 00
	00		 mov	 ecx, DWORD PTR [eax+192]
  010c9	2b 4d f8	 sub	 ecx, DWORD PTR _AddPoints$[ebp]
  010cc	8b 55 fc	 mov	 edx, DWORD PTR _lpObj$[ebp]
  010cf	89 8a c0 00 00
	00		 mov	 DWORD PTR [edx+192], ecx

; 473  : 		lpObj->Money -= ExConfig.Command.AddMoney;

  010d5	8b 45 fc	 mov	 eax, DWORD PTR _lpObj$[ebp]
  010d8	8b 88 f0 00 00
	00		 mov	 ecx, DWORD PTR [eax+240]
  010de	2b 0d 7c 06 00
	00		 sub	 ecx, DWORD PTR ?ExConfig@@3VcExConfigs@@A+1660
  010e4	8b 55 fc	 mov	 edx, DWORD PTR _lpObj$[ebp]
  010e7	89 8a f0 00 00
	00		 mov	 DWORD PTR [edx+240], ecx

; 474  : 		lpObj->MaxMana += AddPoints * 2;

  010ed	8b 45 f8	 mov	 eax, DWORD PTR _AddPoints$[ebp]
  010f0	d1 e0		 shl	 eax, 1
  010f2	89 45 b0	 mov	 DWORD PTR tv211[ebp], eax
  010f5	c7 45 b4 00 00
	00 00		 mov	 DWORD PTR tv211[ebp+4], 0
  010fc	df 6d b0	 fild	 QWORD PTR tv211[ebp]
  010ff	8b 4d fc	 mov	 ecx, DWORD PTR _lpObj$[ebp]
  01102	d8 81 14 01 00
	00		 fadd	 DWORD PTR [ecx+276]
  01108	8b 55 fc	 mov	 edx, DWORD PTR _lpObj$[ebp]
  0110b	d9 9a 14 01 00
	00		 fstp	 DWORD PTR [edx+276]

; 475  : 		GCMoneySend(aIndex,lpObj->Money);

  01111	8b 45 fc	 mov	 eax, DWORD PTR _lpObj$[ebp]
  01114	8b 88 f0 00 00
	00		 mov	 ecx, DWORD PTR [eax+240]
  0111a	51		 push	 ecx
  0111b	8b 55 08	 mov	 edx, DWORD PTR _aIndex$[ebp]
  0111e	52		 push	 edx
  0111f	e8 00 00 00 00	 call	 ?GCMoneySend@@YAXHK@Z	; GCMoneySend
  01124	83 c4 08	 add	 esp, 8

; 476  : 		//ExUpdateStats(lpObj, AddPoints, 4);
; 477  : 		gObjCalCharacter(lpObj->m_Index);

  01127	8b 45 fc	 mov	 eax, DWORD PTR _lpObj$[ebp]
  0112a	8b 08		 mov	 ecx, DWORD PTR [eax]
  0112c	51		 push	 ecx
  0112d	e8 00 00 00 00	 call	 ?gObjCalCharacter@@YAXH@Z ; gObjCalCharacter
  01132	83 c4 04	 add	 esp, 4

; 478  : 		GCReFillSend(lpObj->m_Index,(lpObj->AddLife + lpObj->MaxLife), 0xFE, 0, (lpObj->iMaxShield + lpObj->iAddShield) );

  01135	8b 45 fc	 mov	 eax, DWORD PTR _lpObj$[ebp]
  01138	8b 88 58 01 00
	00		 mov	 ecx, DWORD PTR [eax+344]
  0113e	8b 55 fc	 mov	 edx, DWORD PTR _lpObj$[ebp]
  01141	03 8a 5c 01 00
	00		 add	 ecx, DWORD PTR [edx+348]
  01147	51		 push	 ecx
  01148	6a 00		 push	 0
  0114a	68 fe 00 00 00	 push	 254			; 000000feH
  0114f	8b 45 fc	 mov	 eax, DWORD PTR _lpObj$[ebp]
  01152	db 80 4c 01 00
	00		 fild	 DWORD PTR [eax+332]
  01158	8b 4d fc	 mov	 ecx, DWORD PTR _lpObj$[ebp]
  0115b	d8 81 00 01 00
	00		 fadd	 DWORD PTR [ecx+256]
  01161	e8 00 00 00 00	 call	 __ftol2_sse
  01166	50		 push	 eax
  01167	8b 55 fc	 mov	 edx, DWORD PTR _lpObj$[ebp]
  0116a	8b 02		 mov	 eax, DWORD PTR [edx]
  0116c	50		 push	 eax
  0116d	e8 00 00 00 00	 call	 ?GCReFillSend@@YAXHHEEH@Z ; GCReFillSend
  01172	83 c4 14	 add	 esp, 20			; 00000014H

; 479  : 		gObjSetBP(lpObj->m_Index);

  01175	8b 45 fc	 mov	 eax, DWORD PTR _lpObj$[ebp]
  01178	8b 08		 mov	 ecx, DWORD PTR [eax]
  0117a	51		 push	 ecx
  0117b	e8 00 00 00 00	 call	 ?gObjSetBP@@YAXH@Z	; gObjSetBP
  01180	83 c4 04	 add	 esp, 4

; 480  : 		GCManaSend(lpObj->m_Index, (lpObj->AddMana + lpObj->MaxMana), 0xFE, 0, lpObj->MaxBP);

  01183	8b 45 fc	 mov	 eax, DWORD PTR _lpObj$[ebp]
  01186	8b 88 2c 01 00
	00		 mov	 ecx, DWORD PTR [eax+300]
  0118c	51		 push	 ecx
  0118d	6a 00		 push	 0
  0118f	68 fe 00 00 00	 push	 254			; 000000feH
  01194	8b 55 fc	 mov	 edx, DWORD PTR _lpObj$[ebp]
  01197	db 82 50 01 00
	00		 fild	 DWORD PTR [edx+336]
  0119d	8b 45 fc	 mov	 eax, DWORD PTR _lpObj$[ebp]
  011a0	d8 80 14 01 00
	00		 fadd	 DWORD PTR [eax+276]
  011a6	e8 00 00 00 00	 call	 __ftol2_sse
  011ab	50		 push	 eax
  011ac	8b 4d fc	 mov	 ecx, DWORD PTR _lpObj$[ebp]
  011af	8b 11		 mov	 edx, DWORD PTR [ecx]
  011b1	52		 push	 edx
  011b2	e8 00 00 00 00	 call	 ?GCManaSend@@YAXHHEEH@Z	; GCManaSend
  011b7	83 c4 14	 add	 esp, 20			; 00000014H

; 481  : 		//GCLevelUpMsgSend(gObj[aIndex].m_Index, 0);
; 482  : 		UpdateCharInfo(aIndex);

  011ba	8b 45 08	 mov	 eax, DWORD PTR _aIndex$[ebp]
  011bd	50		 push	 eax
  011be	e8 00 00 00 00	 call	 ?UpdateCharInfo@@YAXH@Z	; UpdateCharInfo
  011c3	83 c4 04	 add	 esp, 4
$LN2@Ex_AddEne:
$LN7@Ex_AddEne:

; 483  : 	}
; 484  : }

  011c6	5f		 pop	 edi
  011c7	5e		 pop	 esi
  011c8	5b		 pop	 ebx
  011c9	8b e5		 mov	 esp, ebp
  011cb	5d		 pop	 ebp
  011cc	c3		 ret	 0
?Ex_AddEne@@YAXHPAD@Z ENDP				; Ex_AddEne
; Function compile flags: /Odtp /ZI
_AddPoints$ = -8					; size = 4
_lpObj$ = -4						; size = 4
_aIndex$ = 8						; size = 4
_msg$ = 12						; size = 4
?Ex_AddCmd@@YAXHPAD@Z PROC				; Ex_AddCmd

; 487  : {

  011d0	55		 push	 ebp
  011d1	8b ec		 mov	 ebp, esp
  011d3	83 ec 48	 sub	 esp, 72			; 00000048H
  011d6	53		 push	 ebx
  011d7	56		 push	 esi
  011d8	57		 push	 edi

; 488  : 	LPOBJ lpObj = &gObj[aIndex];

  011d9	8b 45 08	 mov	 eax, DWORD PTR _aIndex$[ebp]
  011dc	69 c0 38 2b 00
	00		 imul	 eax, 11064		; 00002b38H
  011e2	03 05 00 00 00
	00		 add	 eax, DWORD PTR ?gObj@@3PAUOBJECTSTRUCT@@A ; gObj
  011e8	89 45 fc	 mov	 DWORD PTR _lpObj$[ebp], eax

; 489  : 	if(lpObj->Class != 4)

  011eb	8b 45 fc	 mov	 eax, DWORD PTR _lpObj$[ebp]
  011ee	0f b7 88 b8 00
	00 00		 movzx	 ecx, WORD PTR [eax+184]
  011f5	83 f9 04	 cmp	 ecx, 4
  011f8	74 05		 je	 SHORT $LN7@Ex_AddCmd

; 490  : 		return;

  011fa	e9 d5 01 00 00	 jmp	 $LN8@Ex_AddCmd
$LN7@Ex_AddCmd:

; 491  : 	if(lpObj->LevelUpPoint == 0)

  011ff	8b 45 fc	 mov	 eax, DWORD PTR _lpObj$[ebp]
  01202	83 b8 c0 00 00
	00 00		 cmp	 DWORD PTR [eax+192], 0
  01209	75 05		 jne	 SHORT $LN6@Ex_AddCmd

; 492  : 		return;

  0120b	e9 c4 01 00 00	 jmp	 $LN8@Ex_AddCmd
$LN6@Ex_AddCmd:

; 493  : 	unsigned int AddPoints = 0;

  01210	c7 45 f8 00 00
	00 00		 mov	 DWORD PTR _AddPoints$[ebp], 0

; 494  : 	sscanf(msg,"%d",&AddPoints);

  01217	8d 45 f8	 lea	 eax, DWORD PTR _AddPoints$[ebp]
  0121a	50		 push	 eax
  0121b	68 00 00 00 00	 push	 OFFSET ??_C@_02DPKJAMEF@?$CFd?$AA@
  01220	8b 4d 0c	 mov	 ecx, DWORD PTR _msg$[ebp]
  01223	51		 push	 ecx
  01224	e8 00 00 00 00	 call	 _sscanf
  01229	83 c4 0c	 add	 esp, 12			; 0000000cH

; 495  : 	if(lpObj->LevelUpPoint < AddPoints)

  0122c	8b 45 fc	 mov	 eax, DWORD PTR _lpObj$[ebp]
  0122f	8b 88 c0 00 00
	00		 mov	 ecx, DWORD PTR [eax+192]
  01235	3b 4d f8	 cmp	 ecx, DWORD PTR _AddPoints$[ebp]
  01238	73 05		 jae	 SHORT $LN5@Ex_AddCmd

; 496  : 		return;

  0123a	e9 95 01 00 00	 jmp	 $LN8@Ex_AddCmd
$LN5@Ex_AddCmd:

; 497  : 	//int AddMoney = GetPrivateProfileInt("AddCommand","AddPriceZen",0,"..\\Data\\ExData\\Commands.ini");
; 498  : 	if(ExConfig.Command.AddMoney > lpObj->Money)

  0123f	8b 45 fc	 mov	 eax, DWORD PTR _lpObj$[ebp]
  01242	8b 0d 7c 06 00
	00		 mov	 ecx, DWORD PTR ?ExConfig@@3VcExConfigs@@A+1660
  01248	3b 88 f0 00 00
	00		 cmp	 ecx, DWORD PTR [eax+240]
  0124e	7e 24		 jle	 SHORT $LN4@Ex_AddCmd

; 499  : 	{
; 500  : 		MsgNormal(aIndex, g_ExText.GetText(126),ExConfig.Command.AddMoney);

  01250	a1 7c 06 00 00	 mov	 eax, DWORD PTR ?ExConfig@@3VcExConfigs@@A+1660
  01255	50		 push	 eax
  01256	6a 7e		 push	 126			; 0000007eH
  01258	b9 00 00 00 00	 mov	 ecx, OFFSET ?g_ExText@@3VCExText@@A ; g_ExText
  0125d	e8 00 00 00 00	 call	 ?GetText@CExText@@QAEPADH@Z ; CExText::GetText
  01262	50		 push	 eax
  01263	8b 4d 08	 mov	 ecx, DWORD PTR _aIndex$[ebp]
  01266	51		 push	 ecx
  01267	e8 00 00 00 00	 call	 ?MsgNormal@@YAXHPADZZ	; MsgNormal
  0126c	83 c4 0c	 add	 esp, 12			; 0000000cH

; 501  : 		return;

  0126f	e9 60 01 00 00	 jmp	 $LN8@Ex_AddCmd
$LN4@Ex_AddCmd:

; 502  : 	}
; 503  : 	//int AddLeveL = GetPrivateProfileInt("AddCommand","AddPointLevel",1,"..\\Data\\ExData\\Commands.ini");
; 504  : 	if(ExConfig.Command.AddLeveL > lpObj->Level)

  01274	8b 45 fc	 mov	 eax, DWORD PTR _lpObj$[ebp]
  01277	0f bf 88 be 00
	00 00		 movsx	 ecx, WORD PTR [eax+190]
  0127e	39 0d 80 06 00
	00		 cmp	 DWORD PTR ?ExConfig@@3VcExConfigs@@A+1664, ecx
  01284	7e 24		 jle	 SHORT $LN3@Ex_AddCmd

; 505  : 	{
; 506  : 		MsgNormal(aIndex,g_ExText.GetText(127),ExConfig.Command.AddLeveL);

  01286	a1 80 06 00 00	 mov	 eax, DWORD PTR ?ExConfig@@3VcExConfigs@@A+1664
  0128b	50		 push	 eax
  0128c	6a 7f		 push	 127			; 0000007fH
  0128e	b9 00 00 00 00	 mov	 ecx, OFFSET ?g_ExText@@3VCExText@@A ; g_ExText
  01293	e8 00 00 00 00	 call	 ?GetText@CExText@@QAEPADH@Z ; CExText::GetText
  01298	50		 push	 eax
  01299	8b 4d 08	 mov	 ecx, DWORD PTR _aIndex$[ebp]
  0129c	51		 push	 ecx
  0129d	e8 00 00 00 00	 call	 ?MsgNormal@@YAXHPADZZ	; MsgNormal
  012a2	83 c4 0c	 add	 esp, 12			; 0000000cH

; 507  : 		return;

  012a5	e9 2a 01 00 00	 jmp	 $LN8@Ex_AddCmd
$LN3@Ex_AddCmd:

; 508  : 	}
; 509  : 	if(AddPoints>0 && AddPoints<=32767)

  012aa	83 7d f8 00	 cmp	 DWORD PTR _AddPoints$[ebp], 0
  012ae	0f 86 20 01 00
	00		 jbe	 $LN2@Ex_AddCmd
  012b4	81 7d f8 ff 7f
	00 00		 cmp	 DWORD PTR _AddPoints$[ebp], 32767 ; 00007fffH
  012bb	0f 87 13 01 00
	00		 ja	 $LN2@Ex_AddCmd

; 510  : 	{
; 511  : 		if((lpObj->Leadership + AddPoints) > 32767)

  012c1	8b 45 fc	 mov	 eax, DWORD PTR _lpObj$[ebp]
  012c4	0f b7 88 18 01
	00 00		 movzx	 ecx, WORD PTR [eax+280]
  012cb	03 4d f8	 add	 ecx, DWORD PTR _AddPoints$[ebp]
  012ce	81 f9 ff 7f 00
	00		 cmp	 ecx, 32767		; 00007fffH
  012d4	76 05		 jbe	 SHORT $LN1@Ex_AddCmd

; 512  : 			return;

  012d6	e9 f9 00 00 00	 jmp	 $LN8@Ex_AddCmd
$LN1@Ex_AddCmd:

; 513  : 		lpObj->Leadership += AddPoints;

  012db	8b 45 fc	 mov	 eax, DWORD PTR _lpObj$[ebp]
  012de	0f b7 88 18 01
	00 00		 movzx	 ecx, WORD PTR [eax+280]
  012e5	03 4d f8	 add	 ecx, DWORD PTR _AddPoints$[ebp]
  012e8	8b 55 fc	 mov	 edx, DWORD PTR _lpObj$[ebp]
  012eb	66 89 8a 18 01
	00 00		 mov	 WORD PTR [edx+280], cx

; 514  : 		lpObj->LevelUpPoint -= AddPoints;

  012f2	8b 45 fc	 mov	 eax, DWORD PTR _lpObj$[ebp]
  012f5	8b 88 c0 00 00
	00		 mov	 ecx, DWORD PTR [eax+192]
  012fb	2b 4d f8	 sub	 ecx, DWORD PTR _AddPoints$[ebp]
  012fe	8b 55 fc	 mov	 edx, DWORD PTR _lpObj$[ebp]
  01301	89 8a c0 00 00
	00		 mov	 DWORD PTR [edx+192], ecx

; 515  : 		lpObj->Money -= ExConfig.Command.AddMoney;

  01307	8b 45 fc	 mov	 eax, DWORD PTR _lpObj$[ebp]
  0130a	8b 88 f0 00 00
	00		 mov	 ecx, DWORD PTR [eax+240]
  01310	2b 0d 7c 06 00
	00		 sub	 ecx, DWORD PTR ?ExConfig@@3VcExConfigs@@A+1660
  01316	8b 55 fc	 mov	 edx, DWORD PTR _lpObj$[ebp]
  01319	89 8a f0 00 00
	00		 mov	 DWORD PTR [edx+240], ecx

; 516  : 		GCMoneySend(aIndex,lpObj->Money);

  0131f	8b 45 fc	 mov	 eax, DWORD PTR _lpObj$[ebp]
  01322	8b 88 f0 00 00
	00		 mov	 ecx, DWORD PTR [eax+240]
  01328	51		 push	 ecx
  01329	8b 55 08	 mov	 edx, DWORD PTR _aIndex$[ebp]
  0132c	52		 push	 edx
  0132d	e8 00 00 00 00	 call	 ?GCMoneySend@@YAXHK@Z	; GCMoneySend
  01332	83 c4 08	 add	 esp, 8

; 517  : 		//ExUpdateStats(lpObj, AddPoints, 5);
; 518  : 		gObjCalCharacter(lpObj->m_Index);

  01335	8b 45 fc	 mov	 eax, DWORD PTR _lpObj$[ebp]
  01338	8b 08		 mov	 ecx, DWORD PTR [eax]
  0133a	51		 push	 ecx
  0133b	e8 00 00 00 00	 call	 ?gObjCalCharacter@@YAXH@Z ; gObjCalCharacter
  01340	83 c4 04	 add	 esp, 4

; 519  : 		GCReFillSend(lpObj->m_Index,(lpObj->AddLife + lpObj->MaxLife), 0xFE, 0, (lpObj->iMaxShield + lpObj->iAddShield) );

  01343	8b 45 fc	 mov	 eax, DWORD PTR _lpObj$[ebp]
  01346	8b 88 58 01 00
	00		 mov	 ecx, DWORD PTR [eax+344]
  0134c	8b 55 fc	 mov	 edx, DWORD PTR _lpObj$[ebp]
  0134f	03 8a 5c 01 00
	00		 add	 ecx, DWORD PTR [edx+348]
  01355	51		 push	 ecx
  01356	6a 00		 push	 0
  01358	68 fe 00 00 00	 push	 254			; 000000feH
  0135d	8b 45 fc	 mov	 eax, DWORD PTR _lpObj$[ebp]
  01360	db 80 4c 01 00
	00		 fild	 DWORD PTR [eax+332]
  01366	8b 4d fc	 mov	 ecx, DWORD PTR _lpObj$[ebp]
  01369	d8 81 00 01 00
	00		 fadd	 DWORD PTR [ecx+256]
  0136f	e8 00 00 00 00	 call	 __ftol2_sse
  01374	50		 push	 eax
  01375	8b 55 fc	 mov	 edx, DWORD PTR _lpObj$[ebp]
  01378	8b 02		 mov	 eax, DWORD PTR [edx]
  0137a	50		 push	 eax
  0137b	e8 00 00 00 00	 call	 ?GCReFillSend@@YAXHHEEH@Z ; GCReFillSend
  01380	83 c4 14	 add	 esp, 20			; 00000014H

; 520  : 		gObjSetBP(lpObj->m_Index);

  01383	8b 45 fc	 mov	 eax, DWORD PTR _lpObj$[ebp]
  01386	8b 08		 mov	 ecx, DWORD PTR [eax]
  01388	51		 push	 ecx
  01389	e8 00 00 00 00	 call	 ?gObjSetBP@@YAXH@Z	; gObjSetBP
  0138e	83 c4 04	 add	 esp, 4

; 521  : 		GCManaSend(lpObj->m_Index, (lpObj->AddMana + lpObj->MaxMana), 0xFE, 0, lpObj->MaxBP);

  01391	8b 45 fc	 mov	 eax, DWORD PTR _lpObj$[ebp]
  01394	8b 88 2c 01 00
	00		 mov	 ecx, DWORD PTR [eax+300]
  0139a	51		 push	 ecx
  0139b	6a 00		 push	 0
  0139d	68 fe 00 00 00	 push	 254			; 000000feH
  013a2	8b 55 fc	 mov	 edx, DWORD PTR _lpObj$[ebp]
  013a5	db 82 50 01 00
	00		 fild	 DWORD PTR [edx+336]
  013ab	8b 45 fc	 mov	 eax, DWORD PTR _lpObj$[ebp]
  013ae	d8 80 14 01 00
	00		 fadd	 DWORD PTR [eax+276]
  013b4	e8 00 00 00 00	 call	 __ftol2_sse
  013b9	50		 push	 eax
  013ba	8b 4d fc	 mov	 ecx, DWORD PTR _lpObj$[ebp]
  013bd	8b 11		 mov	 edx, DWORD PTR [ecx]
  013bf	52		 push	 edx
  013c0	e8 00 00 00 00	 call	 ?GCManaSend@@YAXHHEEH@Z	; GCManaSend
  013c5	83 c4 14	 add	 esp, 20			; 00000014H

; 522  : 		//GCLevelUpMsgSend(gObj[aIndex].m_Index, 0);
; 523  : 		UpdateCharInfo(aIndex);

  013c8	8b 45 08	 mov	 eax, DWORD PTR _aIndex$[ebp]
  013cb	50		 push	 eax
  013cc	e8 00 00 00 00	 call	 ?UpdateCharInfo@@YAXH@Z	; UpdateCharInfo
  013d1	83 c4 04	 add	 esp, 4
$LN2@Ex_AddCmd:
$LN8@Ex_AddCmd:

; 524  : 	}
; 525  : }

  013d4	5f		 pop	 edi
  013d5	5e		 pop	 esi
  013d6	5b		 pop	 ebx
  013d7	8b e5		 mov	 esp, ebp
  013d9	5d		 pop	 ebp
  013da	c3		 ret	 0
?Ex_AddCmd@@YAXHPAD@Z ENDP				; Ex_AddCmd
_TEXT	ENDS
PUBLIC	??_C@_0CC@JDBEDODN@?$FLPkClear?$FN?5Success?5Cost?3?5Credit?5?$CF@ ; `string'
PUBLIC	??_C@_0BK@OIDDILMF@?$FLPkClear?$FN?5Need?5?$CFd?5Credits?$AA@ ; `string'
EXTRN	?GCPkLevelSend@@YAXHE@Z:PROC			; GCPkLevelSend
EXTRN	?ExUserDataSend@@YAXH@Z:PROC			; ExUserDataSend
;	COMDAT ??_C@_0CC@JDBEDODN@?$FLPkClear?$FN?5Success?5Cost?3?5Credit?5?$CF@
CONST	SEGMENT
??_C@_0CC@JDBEDODN@?$FLPkClear?$FN?5Success?5Cost?3?5Credit?5?$CF@ DB '[P'
	DB	'kClear] Success Cost: Credit %d', 00H	; `string'
CONST	ENDS
;	COMDAT ??_C@_0BK@OIDDILMF@?$FLPkClear?$FN?5Need?5?$CFd?5Credits?$AA@
CONST	SEGMENT
??_C@_0BK@OIDDILMF@?$FLPkClear?$FN?5Need?5?$CFd?5Credits?$AA@ DB '[PkClea'
	DB	'r] Need %d Credits', 00H			; `string'
; Function compile flags: /Odtp /ZI
CONST	ENDS
_TEXT	SEGMENT
_PkMoneyCredits$225998 = -16				; size = 4
_PkMoney$225994 = -12					; size = 4
_PkLevel$225992 = -8					; size = 4
_lpObj$ = -4						; size = 4
_aIndex$ = 8						; size = 4
?Ex_PkClear@@YAXH@Z PROC				; Ex_PkClear

; 528  : {

  013e0	55		 push	 ebp
  013e1	8b ec		 mov	 ebp, esp
  013e3	83 ec 50	 sub	 esp, 80			; 00000050H
  013e6	53		 push	 ebx
  013e7	56		 push	 esi
  013e8	57		 push	 edi

; 529  : 	//int Ex_PkClear_Enabled = GetPrivateProfileInt("PkClear","Enabled",1,"..\\Data\\ExData\\Commands.ini");
; 530  : 	if(!ExConfig.Command.Ex_PkClear_Enabled)

  013e9	83 3d 84 06 00
	00 00		 cmp	 DWORD PTR ?ExConfig@@3VcExConfigs@@A+1668, 0
  013f0	75 05		 jne	 SHORT $LN16@Ex_PkClear

; 531  : 		return;

  013f2	e9 63 03 00 00	 jmp	 $LN17@Ex_PkClear
$LN16@Ex_PkClear:

; 532  : 	LPOBJ lpObj = &gObj[aIndex];

  013f7	8b 45 08	 mov	 eax, DWORD PTR _aIndex$[ebp]
  013fa	69 c0 38 2b 00
	00		 imul	 eax, 11064		; 00002b38H
  01400	03 05 00 00 00
	00		 add	 eax, DWORD PTR ?gObj@@3PAUOBJECTSTRUCT@@A ; gObj
  01406	89 45 fc	 mov	 DWORD PTR _lpObj$[ebp], eax

; 533  : 	//int Ex_PkClearLevel = GetPrivateProfileInt("PkClear","PkClearLevel",0,"..\\Data\\ExData\\Commands.ini");
; 534  : 	if(ExConfig.Command.Ex_PkClearLevel > lpObj->Level)

  01409	8b 45 fc	 mov	 eax, DWORD PTR _lpObj$[ebp]
  0140c	0f bf 88 be 00
	00 00		 movsx	 ecx, WORD PTR [eax+190]
  01413	39 0d 88 06 00
	00		 cmp	 DWORD PTR ?ExConfig@@3VcExConfigs@@A+1672, ecx
  01419	7e 27		 jle	 SHORT $LN15@Ex_PkClear

; 535  : 	{
; 536  : 		MsgNormal(aIndex,g_ExText.GetText(128),ExConfig.Command.Ex_PkClearLevel);

  0141b	a1 88 06 00 00	 mov	 eax, DWORD PTR ?ExConfig@@3VcExConfigs@@A+1672
  01420	50		 push	 eax
  01421	68 80 00 00 00	 push	 128			; 00000080H
  01426	b9 00 00 00 00	 mov	 ecx, OFFSET ?g_ExText@@3VCExText@@A ; g_ExText
  0142b	e8 00 00 00 00	 call	 ?GetText@CExText@@QAEPADH@Z ; CExText::GetText
  01430	50		 push	 eax
  01431	8b 4d 08	 mov	 ecx, DWORD PTR _aIndex$[ebp]
  01434	51		 push	 ecx
  01435	e8 00 00 00 00	 call	 ?MsgNormal@@YAXHPADZZ	; MsgNormal
  0143a	83 c4 0c	 add	 esp, 12			; 0000000cH

; 537  : 		return;

  0143d	e9 18 03 00 00	 jmp	 $LN17@Ex_PkClear
$LN15@Ex_PkClear:

; 538  : 	}
; 539  : 	//int Ex_PkClearMoney = GetPrivateProfileInt("PkClear","PkClearMoney",0,"..\\Data\\ExData\\Commands.ini");
; 540  : 	//int Ex_PKClearType = GetPrivateProfileInt("PkClear","PKClearType",0,"..\\Data\\ExData\\Commands.ini");
; 541  : 	if(lpObj->m_PK_Level <= 3)

  01442	8b 45 fc	 mov	 eax, DWORD PTR _lpObj$[ebp]
  01445	0f be 88 3d 01
	00 00		 movsx	 ecx, BYTE PTR [eax+317]
  0144c	83 f9 03	 cmp	 ecx, 3
  0144f	7f 05		 jg	 SHORT $LN14@Ex_PkClear

; 542  : 		return;

  01451	e9 04 03 00 00	 jmp	 $LN17@Ex_PkClear
$LN14@Ex_PkClear:

; 543  : 	if(ExConfig.Command.Ex_PKClearType == 1)

  01456	83 3d 90 06 00
	00 01		 cmp	 DWORD PTR ?ExConfig@@3VcExConfigs@@A+1680, 1
  0145d	0f 85 6a 01 00
	00		 jne	 $LN13@Ex_PkClear

; 544  : 	{
; 545  : 			int PkLevel = lpObj->m_PK_Level - 3;

  01463	8b 45 fc	 mov	 eax, DWORD PTR _lpObj$[ebp]
  01466	0f be 88 3d 01
	00 00		 movsx	 ecx, BYTE PTR [eax+317]
  0146d	83 e9 03	 sub	 ecx, 3
  01470	89 4d f8	 mov	 DWORD PTR _PkLevel$225992[ebp], ecx

; 546  : 			if(PkLevel == 0)

  01473	75 05		 jne	 SHORT $LN12@Ex_PkClear

; 547  : 				return;

  01475	e9 e0 02 00 00	 jmp	 $LN17@Ex_PkClear
$LN12@Ex_PkClear:

; 548  : 			int PkMoney = PkLevel * ExConfig.Command.Ex_PkClearMoney;

  0147a	8b 45 f8	 mov	 eax, DWORD PTR _PkLevel$225992[ebp]
  0147d	0f af 05 8c 06
	00 00		 imul	 eax, DWORD PTR ?ExConfig@@3VcExConfigs@@A+1676
  01484	89 45 f4	 mov	 DWORD PTR _PkMoney$225994[ebp], eax

; 549  : 			if(PkMoney > lpObj->Money)

  01487	8b 45 fc	 mov	 eax, DWORD PTR _lpObj$[ebp]
  0148a	8b 4d f4	 mov	 ecx, DWORD PTR _PkMoney$225994[ebp]
  0148d	3b 88 f0 00 00
	00		 cmp	 ecx, DWORD PTR [eax+240]
  01493	7e 25		 jle	 SHORT $LN11@Ex_PkClear

; 550  : 			{
; 551  : 				MsgNormal(aIndex,g_ExText.GetText(129),PkMoney);

  01495	8b 45 f4	 mov	 eax, DWORD PTR _PkMoney$225994[ebp]
  01498	50		 push	 eax
  01499	68 81 00 00 00	 push	 129			; 00000081H
  0149e	b9 00 00 00 00	 mov	 ecx, OFFSET ?g_ExText@@3VCExText@@A ; g_ExText
  014a3	e8 00 00 00 00	 call	 ?GetText@CExText@@QAEPADH@Z ; CExText::GetText
  014a8	50		 push	 eax
  014a9	8b 4d 08	 mov	 ecx, DWORD PTR _aIndex$[ebp]
  014ac	51		 push	 ecx
  014ad	e8 00 00 00 00	 call	 ?MsgNormal@@YAXHPADZZ	; MsgNormal
  014b2	83 c4 0c	 add	 esp, 12			; 0000000cH

; 552  : 				return;

  014b5	e9 a0 02 00 00	 jmp	 $LN17@Ex_PkClear
$LN11@Ex_PkClear:

; 553  : 			}
; 554  : #ifdef PK_CLEAR_TO_CREDITS
; 555  : 			if(g_ExLicense.CheckUser(eExUB::Local3) || g_ExLicense.CheckUser(SILVER1) || g_ExLicense.CheckUser(SILVER2))

  014ba	6a 1c		 push	 28			; 0000001cH
  014bc	b9 00 00 00 00	 mov	 ecx, OFFSET ?g_ExLicense@@3VCExLicense@@A ; g_ExLicense
  014c1	e8 00 00 00 00	 call	 ?CheckUser@CExLicense@@QAE_NH@Z ; CExLicense::CheckUser
  014c6	0f b6 c0	 movzx	 eax, al
  014c9	85 c0		 test	 eax, eax
  014cb	75 26		 jne	 SHORT $LN9@Ex_PkClear
  014cd	6a 07		 push	 7
  014cf	b9 00 00 00 00	 mov	 ecx, OFFSET ?g_ExLicense@@3VCExLicense@@A ; g_ExLicense
  014d4	e8 00 00 00 00	 call	 ?CheckUser@CExLicense@@QAE_NH@Z ; CExLicense::CheckUser
  014d9	0f b6 c0	 movzx	 eax, al
  014dc	85 c0		 test	 eax, eax
  014de	75 13		 jne	 SHORT $LN9@Ex_PkClear
  014e0	6a 08		 push	 8
  014e2	b9 00 00 00 00	 mov	 ecx, OFFSET ?g_ExLicense@@3VCExLicense@@A ; g_ExLicense
  014e7	e8 00 00 00 00	 call	 ?CheckUser@CExLicense@@QAE_NH@Z ; CExLicense::CheckUser
  014ec	0f b6 c0	 movzx	 eax, al
  014ef	85 c0		 test	 eax, eax
  014f1	74 72		 je	 SHORT $LN10@Ex_PkClear
$LN9@Ex_PkClear:

; 556  : 			{
; 557  : 				int PkMoneyCredits = PkLevel * ExConfig.Command.Ex_PkClearCredits;

  014f3	8b 45 f8	 mov	 eax, DWORD PTR _PkLevel$225992[ebp]
  014f6	0f af 05 94 06
	00 00		 imul	 eax, DWORD PTR ?ExConfig@@3VcExConfigs@@A+1684
  014fd	89 45 f0	 mov	 DWORD PTR _PkMoneyCredits$225998[ebp], eax

; 558  : 			
; 559  : 				if(PkMoneyCredits > lpObj->ExCred)

  01500	db 45 f0	 fild	 DWORD PTR _PkMoneyCredits$225998[ebp]
  01503	8b 45 fc	 mov	 eax, DWORD PTR _lpObj$[ebp]
  01506	d9 80 a8 22 00
	00		 fld	 DWORD PTR [eax+8872]
  0150c	de d9		 fcompp
  0150e	df e0		 fnstsw	 ax
  01510	f6 c4 05	 test	 ah, 5
  01513	7a 1a		 jp	 SHORT $LN8@Ex_PkClear

; 560  : 				{
; 561  : 					MsgNormal(aIndex,"[PkClear] Need %d Credits",PkMoneyCredits);

  01515	8b 45 f0	 mov	 eax, DWORD PTR _PkMoneyCredits$225998[ebp]
  01518	50		 push	 eax
  01519	68 00 00 00 00	 push	 OFFSET ??_C@_0BK@OIDDILMF@?$FLPkClear?$FN?5Need?5?$CFd?5Credits?$AA@
  0151e	8b 4d 08	 mov	 ecx, DWORD PTR _aIndex$[ebp]
  01521	51		 push	 ecx
  01522	e8 00 00 00 00	 call	 ?MsgNormal@@YAXHPADZZ	; MsgNormal
  01527	83 c4 0c	 add	 esp, 12			; 0000000cH

; 562  : 					return;

  0152a	e9 2b 02 00 00	 jmp	 $LN17@Ex_PkClear
$LN8@Ex_PkClear:

; 563  : 				}
; 564  : 				MsgNormal(aIndex,"[PkClear] Success Cost: Credit %d",PkMoneyCredits);

  0152f	8b 45 f0	 mov	 eax, DWORD PTR _PkMoneyCredits$225998[ebp]
  01532	50		 push	 eax
  01533	68 00 00 00 00	 push	 OFFSET ??_C@_0CC@JDBEDODN@?$FLPkClear?$FN?5Success?5Cost?3?5Credit?5?$CF@
  01538	8b 4d 08	 mov	 ecx, DWORD PTR _aIndex$[ebp]
  0153b	51		 push	 ecx
  0153c	e8 00 00 00 00	 call	 ?MsgNormal@@YAXHPADZZ	; MsgNormal
  01541	83 c4 0c	 add	 esp, 12			; 0000000cH

; 565  : 					
; 566  : 				lpObj->ExCred -= PkMoneyCredits;

  01544	db 45 f0	 fild	 DWORD PTR _PkMoneyCredits$225998[ebp]
  01547	8b 45 fc	 mov	 eax, DWORD PTR _lpObj$[ebp]
  0154a	d8 a8 a8 22 00
	00		 fsubr	 DWORD PTR [eax+8872]
  01550	8b 4d fc	 mov	 ecx, DWORD PTR _lpObj$[ebp]
  01553	d9 99 a8 22 00
	00		 fstp	 DWORD PTR [ecx+8872]

; 567  : 				ExUserDataSend(aIndex);

  01559	8b 45 08	 mov	 eax, DWORD PTR _aIndex$[ebp]
  0155c	50		 push	 eax
  0155d	e8 00 00 00 00	 call	 ?ExUserDataSend@@YAXH@Z	; ExUserDataSend
  01562	83 c4 04	 add	 esp, 4
$LN10@Ex_PkClear:

; 568  : 			}
; 569  : 			
; 570  : #endif // PK_CLEAR_TO_CREDITS
; 571  : 
; 572  : 			lpObj->Money -= PkMoney;

  01565	8b 45 fc	 mov	 eax, DWORD PTR _lpObj$[ebp]
  01568	8b 88 f0 00 00
	00		 mov	 ecx, DWORD PTR [eax+240]
  0156e	2b 4d f4	 sub	 ecx, DWORD PTR _PkMoney$225994[ebp]
  01571	8b 55 fc	 mov	 edx, DWORD PTR _lpObj$[ebp]
  01574	89 8a f0 00 00
	00		 mov	 DWORD PTR [edx+240], ecx

; 573  : 			lpObj->m_PK_Level = 3;

  0157a	8b 45 fc	 mov	 eax, DWORD PTR _lpObj$[ebp]
  0157d	c6 80 3d 01 00
	00 03		 mov	 BYTE PTR [eax+317], 3

; 574  : 			lpObj->m_PK_Count = 0;

  01584	8b 45 fc	 mov	 eax, DWORD PTR _lpObj$[ebp]
  01587	c6 80 3c 01 00
	00 00		 mov	 BYTE PTR [eax+316], 0

; 575  : #if(FIX_PKLEVEL)
; 576  : 			lpObj->m_PK_Time = 0;

  0158e	8b 45 fc	 mov	 eax, DWORD PTR _lpObj$[ebp]
  01591	c7 80 40 01 00
	00 00 00 00 00	 mov	 DWORD PTR [eax+320], 0

; 577  : #endif
; 578  : 			GCMoneySend(aIndex,lpObj->Money);

  0159b	8b 45 fc	 mov	 eax, DWORD PTR _lpObj$[ebp]
  0159e	8b 88 f0 00 00
	00		 mov	 ecx, DWORD PTR [eax+240]
  015a4	51		 push	 ecx
  015a5	8b 55 08	 mov	 edx, DWORD PTR _aIndex$[ebp]
  015a8	52		 push	 edx
  015a9	e8 00 00 00 00	 call	 ?GCMoneySend@@YAXHK@Z	; GCMoneySend
  015ae	83 c4 08	 add	 esp, 8

; 579  : 			GCPkLevelSend(aIndex,lpObj->m_PK_Level);

  015b1	8b 45 fc	 mov	 eax, DWORD PTR _lpObj$[ebp]
  015b4	0f b6 88 3d 01
	00 00		 movzx	 ecx, BYTE PTR [eax+317]
  015bb	51		 push	 ecx
  015bc	8b 55 08	 mov	 edx, DWORD PTR _aIndex$[ebp]
  015bf	52		 push	 edx
  015c0	e8 00 00 00 00	 call	 ?GCPkLevelSend@@YAXHE@Z	; GCPkLevelSend
  015c5	83 c4 08	 add	 esp, 8
  015c8	e9 8d 01 00 00	 jmp	 $LN1@Ex_PkClear
$LN13@Ex_PkClear:

; 580  : 	}
; 581  : 	else if(ExConfig.Command.Ex_PKClearType == 2)

  015cd	83 3d 90 06 00
	00 02		 cmp	 DWORD PTR ?ExConfig@@3VcExConfigs@@A+1680, 2
  015d4	0f 85 48 01 00
	00		 jne	 $LN6@Ex_PkClear

; 582  : 	{
; 583  : 			if(ExConfig.Command.Ex_PkClearMoney > lpObj->Money)

  015da	8b 45 fc	 mov	 eax, DWORD PTR _lpObj$[ebp]
  015dd	8b 0d 8c 06 00
	00		 mov	 ecx, DWORD PTR ?ExConfig@@3VcExConfigs@@A+1676
  015e3	3b 88 f0 00 00
	00		 cmp	 ecx, DWORD PTR [eax+240]
  015e9	7e 27		 jle	 SHORT $LN5@Ex_PkClear

; 584  : 			{
; 585  : 				MsgNormal(aIndex,g_ExText.GetText(129),ExConfig.Command.Ex_PkClearMoney);

  015eb	a1 8c 06 00 00	 mov	 eax, DWORD PTR ?ExConfig@@3VcExConfigs@@A+1676
  015f0	50		 push	 eax
  015f1	68 81 00 00 00	 push	 129			; 00000081H
  015f6	b9 00 00 00 00	 mov	 ecx, OFFSET ?g_ExText@@3VCExText@@A ; g_ExText
  015fb	e8 00 00 00 00	 call	 ?GetText@CExText@@QAEPADH@Z ; CExText::GetText
  01600	50		 push	 eax
  01601	8b 4d 08	 mov	 ecx, DWORD PTR _aIndex$[ebp]
  01604	51		 push	 ecx
  01605	e8 00 00 00 00	 call	 ?MsgNormal@@YAXHPADZZ	; MsgNormal
  0160a	83 c4 0c	 add	 esp, 12			; 0000000cH

; 586  : 				return;

  0160d	e9 48 01 00 00	 jmp	 $LN17@Ex_PkClear
$LN5@Ex_PkClear:

; 587  : 			}
; 588  : #ifdef PK_CLEAR_TO_CREDITS
; 589  : 			if(g_ExLicense.CheckUser(eExUB::Local3) || g_ExLicense.CheckUser(SILVER1) || g_ExLicense.CheckUser(SILVER2))

  01612	6a 1c		 push	 28			; 0000001cH
  01614	b9 00 00 00 00	 mov	 ecx, OFFSET ?g_ExLicense@@3VCExLicense@@A ; g_ExLicense
  01619	e8 00 00 00 00	 call	 ?CheckUser@CExLicense@@QAE_NH@Z ; CExLicense::CheckUser
  0161e	0f b6 c0	 movzx	 eax, al
  01621	85 c0		 test	 eax, eax
  01623	75 26		 jne	 SHORT $LN3@Ex_PkClear
  01625	6a 07		 push	 7
  01627	b9 00 00 00 00	 mov	 ecx, OFFSET ?g_ExLicense@@3VCExLicense@@A ; g_ExLicense
  0162c	e8 00 00 00 00	 call	 ?CheckUser@CExLicense@@QAE_NH@Z ; CExLicense::CheckUser
  01631	0f b6 c0	 movzx	 eax, al
  01634	85 c0		 test	 eax, eax
  01636	75 13		 jne	 SHORT $LN3@Ex_PkClear
  01638	6a 08		 push	 8
  0163a	b9 00 00 00 00	 mov	 ecx, OFFSET ?g_ExLicense@@3VCExLicense@@A ; g_ExLicense
  0163f	e8 00 00 00 00	 call	 ?CheckUser@CExLicense@@QAE_NH@Z ; CExLicense::CheckUser
  01644	0f b6 c0	 movzx	 eax, al
  01647	85 c0		 test	 eax, eax
  01649	74 6f		 je	 SHORT $LN4@Ex_PkClear
$LN3@Ex_PkClear:

; 590  : 			{
; 591  : 				if(ExConfig.Command.Ex_PkClearCredits > lpObj->ExCred)

  0164b	db 05 94 06 00
	00		 fild	 DWORD PTR ?ExConfig@@3VcExConfigs@@A+1684
  01651	8b 45 fc	 mov	 eax, DWORD PTR _lpObj$[ebp]
  01654	d9 80 a8 22 00
	00		 fld	 DWORD PTR [eax+8872]
  0165a	de d9		 fcompp
  0165c	df e0		 fnstsw	 ax
  0165e	f6 c4 05	 test	 ah, 5
  01661	7a 1c		 jp	 SHORT $LN2@Ex_PkClear

; 592  : 				{
; 593  : 					MsgNormal(aIndex,"[PkClear] Need %d Credits",ExConfig.Command.Ex_PkClearCredits);

  01663	a1 94 06 00 00	 mov	 eax, DWORD PTR ?ExConfig@@3VcExConfigs@@A+1684
  01668	50		 push	 eax
  01669	68 00 00 00 00	 push	 OFFSET ??_C@_0BK@OIDDILMF@?$FLPkClear?$FN?5Need?5?$CFd?5Credits?$AA@
  0166e	8b 4d 08	 mov	 ecx, DWORD PTR _aIndex$[ebp]
  01671	51		 push	 ecx
  01672	e8 00 00 00 00	 call	 ?MsgNormal@@YAXHPADZZ	; MsgNormal
  01677	83 c4 0c	 add	 esp, 12			; 0000000cH

; 594  : 					return;

  0167a	e9 db 00 00 00	 jmp	 $LN17@Ex_PkClear
$LN2@Ex_PkClear:

; 595  : 				}
; 596  : 				MsgNormal(aIndex,"[PkClear] Success Cost: Credit %d",ExConfig.Command.Ex_PkClearCredits);

  0167f	a1 94 06 00 00	 mov	 eax, DWORD PTR ?ExConfig@@3VcExConfigs@@A+1684
  01684	50		 push	 eax
  01685	68 00 00 00 00	 push	 OFFSET ??_C@_0CC@JDBEDODN@?$FLPkClear?$FN?5Success?5Cost?3?5Credit?5?$CF@
  0168a	8b 4d 08	 mov	 ecx, DWORD PTR _aIndex$[ebp]
  0168d	51		 push	 ecx
  0168e	e8 00 00 00 00	 call	 ?MsgNormal@@YAXHPADZZ	; MsgNormal
  01693	83 c4 0c	 add	 esp, 12			; 0000000cH

; 597  : 				lpObj->ExCred -= ExConfig.Command.Ex_PkClearCredits;

  01696	db 05 94 06 00
	00		 fild	 DWORD PTR ?ExConfig@@3VcExConfigs@@A+1684
  0169c	8b 45 fc	 mov	 eax, DWORD PTR _lpObj$[ebp]
  0169f	d8 a8 a8 22 00
	00		 fsubr	 DWORD PTR [eax+8872]
  016a5	8b 4d fc	 mov	 ecx, DWORD PTR _lpObj$[ebp]
  016a8	d9 99 a8 22 00
	00		 fstp	 DWORD PTR [ecx+8872]

; 598  : 				ExUserDataSend(aIndex);

  016ae	8b 45 08	 mov	 eax, DWORD PTR _aIndex$[ebp]
  016b1	50		 push	 eax
  016b2	e8 00 00 00 00	 call	 ?ExUserDataSend@@YAXH@Z	; ExUserDataSend
  016b7	83 c4 04	 add	 esp, 4
$LN4@Ex_PkClear:

; 599  : 			}
; 600  : #endif // PK_CLEAR_TO_CREDITS
; 601  : 			lpObj->Money -= ExConfig.Command.Ex_PkClearMoney;

  016ba	8b 45 fc	 mov	 eax, DWORD PTR _lpObj$[ebp]
  016bd	8b 88 f0 00 00
	00		 mov	 ecx, DWORD PTR [eax+240]
  016c3	2b 0d 8c 06 00
	00		 sub	 ecx, DWORD PTR ?ExConfig@@3VcExConfigs@@A+1676
  016c9	8b 55 fc	 mov	 edx, DWORD PTR _lpObj$[ebp]
  016cc	89 8a f0 00 00
	00		 mov	 DWORD PTR [edx+240], ecx

; 602  : 			lpObj->m_PK_Level = 3;

  016d2	8b 45 fc	 mov	 eax, DWORD PTR _lpObj$[ebp]
  016d5	c6 80 3d 01 00
	00 03		 mov	 BYTE PTR [eax+317], 3

; 603  : 			lpObj->m_PK_Count = 0;

  016dc	8b 45 fc	 mov	 eax, DWORD PTR _lpObj$[ebp]
  016df	c6 80 3c 01 00
	00 00		 mov	 BYTE PTR [eax+316], 0

; 604  : 			lpObj->m_PK_Time = 0;

  016e6	8b 45 fc	 mov	 eax, DWORD PTR _lpObj$[ebp]
  016e9	c7 80 40 01 00
	00 00 00 00 00	 mov	 DWORD PTR [eax+320], 0

; 605  : 			GCMoneySend(aIndex,lpObj->Money);

  016f3	8b 45 fc	 mov	 eax, DWORD PTR _lpObj$[ebp]
  016f6	8b 88 f0 00 00
	00		 mov	 ecx, DWORD PTR [eax+240]
  016fc	51		 push	 ecx
  016fd	8b 55 08	 mov	 edx, DWORD PTR _aIndex$[ebp]
  01700	52		 push	 edx
  01701	e8 00 00 00 00	 call	 ?GCMoneySend@@YAXHK@Z	; GCMoneySend
  01706	83 c4 08	 add	 esp, 8

; 606  : 			GCPkLevelSend(aIndex,lpObj->m_PK_Level);

  01709	8b 45 fc	 mov	 eax, DWORD PTR _lpObj$[ebp]
  0170c	0f b6 88 3d 01
	00 00		 movzx	 ecx, BYTE PTR [eax+317]
  01713	51		 push	 ecx
  01714	8b 55 08	 mov	 edx, DWORD PTR _aIndex$[ebp]
  01717	52		 push	 edx
  01718	e8 00 00 00 00	 call	 ?GCPkLevelSend@@YAXHE@Z	; GCPkLevelSend
  0171d	83 c4 08	 add	 esp, 8

; 607  : 	}
; 608  : 	else

  01720	eb 38		 jmp	 SHORT $LN1@Ex_PkClear
$LN6@Ex_PkClear:

; 609  : 	{
; 610  : 			lpObj->m_PK_Level = 3;

  01722	8b 45 fc	 mov	 eax, DWORD PTR _lpObj$[ebp]
  01725	c6 80 3d 01 00
	00 03		 mov	 BYTE PTR [eax+317], 3

; 611  : 			lpObj->m_PK_Count = 0;

  0172c	8b 45 fc	 mov	 eax, DWORD PTR _lpObj$[ebp]
  0172f	c6 80 3c 01 00
	00 00		 mov	 BYTE PTR [eax+316], 0

; 612  : 			lpObj->m_PK_Time = 0;

  01736	8b 45 fc	 mov	 eax, DWORD PTR _lpObj$[ebp]
  01739	c7 80 40 01 00
	00 00 00 00 00	 mov	 DWORD PTR [eax+320], 0

; 613  : 			GCPkLevelSend(aIndex,lpObj->m_PK_Level);

  01743	8b 45 fc	 mov	 eax, DWORD PTR _lpObj$[ebp]
  01746	0f b6 88 3d 01
	00 00		 movzx	 ecx, BYTE PTR [eax+317]
  0174d	51		 push	 ecx
  0174e	8b 55 08	 mov	 edx, DWORD PTR _aIndex$[ebp]
  01751	52		 push	 edx
  01752	e8 00 00 00 00	 call	 ?GCPkLevelSend@@YAXHE@Z	; GCPkLevelSend
  01757	83 c4 08	 add	 esp, 8
$LN1@Ex_PkClear:
$LN17@Ex_PkClear:

; 614  : 	}
; 615  : }

  0175a	5f		 pop	 edi
  0175b	5e		 pop	 esi
  0175c	5b		 pop	 ebx
  0175d	8b e5		 mov	 esp, ebp
  0175f	5d		 pop	 ebp
  01760	c3		 ret	 0
?Ex_PkClear@@YAXH@Z ENDP				; Ex_PkClear
_TEXT	ENDS
END
