; Listing generated by Microsoft (R) Optimizing Compiler Version 16.00.40219.01 

	TITLE	D:\Projects\ExTeam6.3\Source\GameServer\GameServer\Configs.cpp
	.686P
	.XMM
	include listing.inc
	.model	flat

INCLUDELIB LIBCMT
INCLUDELIB OLDNAMES

PUBLIC	?ExConfig@@3VcExConfigs@@A			; ExConfig
_BSS	SEGMENT
?ExConfig@@3VcExConfigs@@A DB 0d4cH DUP (?)		; ExConfig
_BSS	ENDS
_DATA	SEGMENT
_g_sttBLOODCASTLE_LEVEL DD 0fH
	DD	050H
	DD	0aH
	DD	03cH
	DD	051H
	DD	082H
	DD	03dH
	DD	06eH
	DD	083H
	DD	0b4H
	DD	06fH
	DD	0a0H
	DD	0b5H
	DD	0e6H
	DD	0a1H
	DD	0d2H
	DD	0e7H
	DD	0118H
	DD	0d3H
	DD	0104H
	DD	0119H
	DD	014aH
	DD	0105H
	DD	0136H
	DD	014bH
	DD	0190H
	DD	0137H
	DD	0190H
	DD	0fH
	DD	0257H
	DD	0aH
	DD	0257H
_g_sttCHAOSCASTLE_LEVEL DD 0fH
	DD	031H
	DD	0fH
	DD	01dH
	DD	032H
	DD	077H
	DD	01eH
	DD	063H
	DD	078H
	DD	0b3H
	DD	064H
	DD	09fH
	DD	0b4H
	DD	0efH
	DD	0a0H
	DD	0dbH
	DD	0f0H
	DD	012bH
	DD	0dcH
	DD	0117H
	DD	012cH
	DD	0190H
	DD	0118H
	DD	0190H
	DD	0190H
	DD	0257H
	DD	0190H
	DD	0257H
_g_iChaosCastle_BlowOutDistance DD 03H
	DD	04H
	DD	03H
	DD	04H
	DD	02H
	DD	03H
	DD	00H
	DD	01H
_g_iChaosCastle_BlowOutDamage DD 0fH
	DD	0fH
	DD	0aH
	DD	05H
_g_iChaosCastle_EnterCost DD 061a8H
	DD	013880H
	DD	0249f0H
	DD	03d090H
	DD	061a80H
	DD	09eb10H
	DD	0f4240H
_g_iChaosCastle_GuardSetValue DD 09c4H
	DD	09c4H
	DD	09c4H
	DD	09c4H
	DD	09c4H
	DD	09c4H
	DD	09c4H
_g_iChaosCastle_MonsterItems DD 01c0dH
	DD	01H
	DD	01c0eH
	DD	02H
	DD	01c0dH
	DD	01H
	DD	01c0eH
	DD	03H
	DD	01c0dH
	DD	01H
	DD	01c0eH
	DD	03H
	DD	01c0dH
	DD	02H
	DD	01c0eH
	DD	02H
	DD	01c0dH
	DD	02H
	DD	01c0eH
	DD	03H
	DD	01c0dH
	DD	02H
	DD	01c0eH
	DD	03H
	DD	01c0dH
	DD	02H
	DD	01c0eH
	DD	04H
_g_iChaosCastle_MonsterItemsNewServer DD 00H
	DD	00H
	DD	01c0eH
	DD	02H
	DD	01c0dH
	DD	01H
	DD	01c0eH
	DD	01H
	DD	01c0dH
	DD	01H
	DD	01c0eH
	DD	02H
	DD	01c0dH
	DD	01H
	DD	01c0eH
	DD	02H
	DD	01c0dH
	DD	02H
	DD	01c0eH
	DD	01H
	DD	01c0dH
	DD	02H
	DD	01c0eH
	DD	02H
	DD	01c0dH
	DD	02H
	DD	01c0eH
	DD	03H
_g_iChaosCastle_GroundAxis DD 017H
	DD	04bH
	DD	02cH
	DD	06cH
_g_iChaosCastle_DamageAxis DD 017H
	DD	04bH
	DD	02cH
	DD	06cH
	DD	019H
	DD	04dH
	DD	02aH
	DD	06aH
	DD	01bH
	DD	04fH
	DD	028H
	DD	068H
	DD	01dH
	DD	051H
	DD	026H
	DD	066H
_g_iChaosCastle_MapHollowZone DD 017H
	DD	04bH
	DD	02cH
	DD	04cH
	DD	02bH
	DD	04dH
	DD	02cH
	DD	06cH
	DD	017H
	DD	06bH
	DD	02aH
	DD	06cH
	DD	017H
	DD	04dH
	DD	018H
	DD	06aH
	DD	017H
	DD	04bH
	DD	02cH
	DD	04cH
	DD	02bH
	DD	04dH
	DD	02cH
	DD	06cH
	DD	017H
	DD	06bH
	DD	02aH
	DD	06cH
	DD	017H
	DD	04dH
	DD	018H
	DD	06aH
	DD	019H
	DD	04dH
	DD	02aH
	DD	04eH
	DD	029H
	DD	04fH
	DD	02aH
	DD	06aH
	DD	019H
	DD	069H
	DD	028H
	DD	06aH
	DD	019H
	DD	04fH
	DD	01aH
	DD	068H
	DD	01bH
	DD	04fH
	DD	028H
	DD	050H
	DD	027H
	DD	051H
	DD	028H
	DD	068H
	DD	01bH
	DD	067H
	DD	026H
	DD	068H
	DD	01bH
	DD	051H
	DD	01cH
	DD	066H
_DATA	ENDS
PUBLIC	??_H@YGXPAXIHP6EPAX0@Z@Z			; `vector constructor iterator'
; Function compile flags: /Odtp /ZI
;	COMDAT ??_H@YGXPAXIHP6EPAX0@Z@Z
_TEXT	SEGMENT
___t$ = 8						; size = 4
___s$ = 12						; size = 4
___n$ = 16						; size = 4
___f$ = 20						; size = 4
??_H@YGXPAXIHP6EPAX0@Z@Z PROC				; `vector constructor iterator', COMDAT
  00000	55		 push	 ebp
  00001	8b ec		 mov	 ebp, esp
  00003	83 ec 40	 sub	 esp, 64			; 00000040H
  00006	53		 push	 ebx
  00007	56		 push	 esi
  00008	57		 push	 edi
$LN2@vector:
  00009	8b 45 10	 mov	 eax, DWORD PTR ___n$[ebp]
  0000c	83 e8 01	 sub	 eax, 1
  0000f	89 45 10	 mov	 DWORD PTR ___n$[ebp], eax
  00012	78 11		 js	 SHORT $LN3@vector
  00014	8b 4d 08	 mov	 ecx, DWORD PTR ___t$[ebp]
  00017	ff 55 14	 call	 DWORD PTR ___f$[ebp]
  0001a	8b 45 08	 mov	 eax, DWORD PTR ___t$[ebp]
  0001d	03 45 0c	 add	 eax, DWORD PTR ___s$[ebp]
  00020	89 45 08	 mov	 DWORD PTR ___t$[ebp], eax
  00023	eb e4		 jmp	 SHORT $LN2@vector
$LN3@vector:
  00025	5f		 pop	 edi
  00026	5e		 pop	 esi
  00027	5b		 pop	 ebx
  00028	8b e5		 mov	 esp, ebp
  0002a	5d		 pop	 ebp
  0002b	c2 10 00	 ret	 16			; 00000010H
??_H@YGXPAXIHP6EPAX0@Z@Z ENDP				; `vector constructor iterator'
_TEXT	ENDS
PUBLIC	??_C@_0BE@FEKBLFNH@NewBuffPartyDefence?$AA@	; `string'
PUBLIC	??_C@_0BD@HIJCBDHI@NewBuffPartyDamage?$AA@	; `string'
PUBLIC	??_C@_0BG@DGGLLPMG@NewBuffPartyMembCount?$AA@	; `string'
PUBLIC	??_C@_0BD@PEKDAHBH@NewBuffPartyEnable?$AA@	; `string'
PUBLIC	??_C@_0BE@HGOKOEGD@NewBuffGuildDefence?$AA@	; `string'
PUBLIC	??_C@_0BD@DBNFBOMO@NewBuffGuildDamage?$AA@	; `string'
PUBLIC	??_C@_0BH@HCIGDAG@NewBuffGuildMembOnline?$AA@	; `string'
PUBLIC	??_C@_0BD@LNOEAKKB@NewBuffGuildEnable?$AA@	; `string'
PUBLIC	??_C@_0BG@PICBNOIL@NewBuffPremiumDefence?$AA@	; `string'
PUBLIC	??_C@_0BF@EEAAAPFD@NewBuffPremiumDamage?$AA@	; `string'
PUBLIC	??_C@_0BF@MIDBBLDM@NewBuffPremiumEnable?$AA@	; `string'
PUBLIC	??_C@_0BL@HCAPNPCB@?4?4?2Data?2ExData?2NewBuff?4ini?$AA@ ; `string'
PUBLIC	??_C@_04MJOIBMDI@RF_Y?$AA@			; `string'
PUBLIC	??_C@_04NAPDCNHJ@RF_X?$AA@			; `string'
PUBLIC	??_C@_0M@OEIIMLMI@RF_MapStart?$AA@		; `string'
PUBLIC	??_C@_04EJPFJOHO@DL_Y?$AA@			; `string'
PUBLIC	??_C@_04FAOOKPDP@DL_X?$AA@			; `string'
PUBLIC	??_C@_0M@OFACNLFA@DL_MapStart?$AA@		; `string'
PUBLIC	??_C@_04JDOEHLAO@MG_Y?$AA@			; `string'
PUBLIC	??_C@_04IKPPEKEP@MG_X?$AA@			; `string'
PUBLIC	??_C@_0M@FLIKGGIF@MG_MapStart?$AA@		; `string'
PUBLIC	??_C@_04LGCEMNPJ@SU_Y?$AA@			; `string'
PUBLIC	??_C@_04KPDPPMLI@SU_X?$AA@			; `string'
PUBLIC	??_C@_0M@EIDJCFGN@SU_MapStart?$AA@		; `string'
PUBLIC	??_C@_04JJNPIEE@EE_Y?$AA@			; `string'
PUBLIC	??_C@_04BAIGMJAF@EE_X?$AA@			; `string'
PUBLIC	??_C@_0M@FOKKJLK@EE_MapStart?$AA@		; `string'
PUBLIC	??_C@_04NECCKGMH@DK_Y?$AA@			; `string'
PUBLIC	??_C@_04MNDJJHIG@DK_X?$AA@			; `string'
PUBLIC	??_C@_0M@MMDJMOND@DK_MapStart?$AA@		; `string'
PUBLIC	??_C@_04MOONEOOA@DW_Y?$AA@			; `string'
PUBLIC	??_C@_04NHPGHPKB@DW_X?$AA@			; `string'
PUBLIC	??_C@_0M@GINFJINP@DW_MapStart?$AA@		; `string'
PUBLIC	??_C@_0BM@PGMOEDPI@?4?4?2Data?2ExData?2MapStart?4ini?$AA@ ; `string'
PUBLIC	??_C@_0BH@HMPFPJHA@TeleportMapForDieMap51?$AA@	; `string'
PUBLIC	??_C@_0BH@GECMKCAG@TeleportMapForDieMap40?$AA@	; `string'
PUBLIC	??_C@_0BG@FDOFJEDH@TeleportMapForDieMap6?$AA@	; `string'
PUBLIC	??_C@_0BK@MHFKIFF@?4?4?2Data?2ExData?2MapDie?4ini?$AA@ ; `string'
PUBLIC	??_C@_08NDNCIGJE@Class3rd?$AA@			; `string'
PUBLIC	??_C@_08GLGOOBPB@Class2rd?$AA@			; `string'
PUBLIC	??_C@_06MOPANJOH@Marlon?$AA@			; `string'
PUBLIC	??_C@_06INNNFHKM@Master?$AA@			; `string'
PUBLIC	??_C@_0O@PKHMODMN@RfLevelPoints?$AA@		; `string'
PUBLIC	??_C@_0O@FOFDPCDB@DlLevelPoints?$AA@		; `string'
PUBLIC	??_C@_0O@BHMMLCNC@MgLevelPoints?$AA@		; `string'
PUBLIC	??_C@_0P@CMJAHKBN@SumLevelPoints?$AA@		; `string'
PUBLIC	??_C@_0P@GFCFENCP@ElfLevelPoints?$AA@		; `string'
PUBLIC	??_C@_0O@NJNOLEI@DwLevelPoints?$AA@		; `string'
PUBLIC	??_C@_0O@CDCAPEGJ@DkLevelPoints?$AA@		; `string'
PUBLIC	??_C@_0BP@KEOOEKDK@?4?4?2Data?2ExData?2AddPointLvl?4ini?$AA@ ; `string'
PUBLIC	??_C@_05OKMLJOMC@?$CFd?5?$CFd?$AA@		; `string'
PUBLIC	??_C@_0BA@PIOFNAIM@LOAD?5FILE?5ERROR?$AA@	; `string'
PUBLIC	??_C@_01KDCPPGHE@r?$AA@				; `string'
PUBLIC	??_C@_0BF@KHLDLEHL@CountErohimItemsDrop?$AA@	; `string'
PUBLIC	??_C@_0BF@BCJHLFDK@CountKundumItemsDrop?$AA@	; `string'
PUBLIC	??_C@_08LEBLPLCH@ExpMinus?$AA@			; `string'
PUBLIC	??_C@_04PABHPHAJ@Gold?$AA@			; `string'
PUBLIC	??_C@_06BONGPKIK@Silver?$AA@			; `string'
PUBLIC	??_C@_0M@DPJHHJHF@PartySystem?$AA@		; `string'
PUBLIC	??_C@_0BC@OIHKJNFL@PartySystemEnable?$AA@	; `string'
PUBLIC	??_C@_0L@LMHNIDEG@GMKillMapY?$AA@		; `string'
PUBLIC	??_C@_0L@KFGGLCAH@GMKillMapX?$AA@		; `string'
PUBLIC	??_C@_05PDFHKAHB@GMMap?$AA@			; `string'
PUBLIC	??_C@_09JLHLFOB@GMKillMap?$AA@			; `string'
PUBLIC	??_C@_0BB@CGPMFCOB@FloodProtectTime?$AA@	; `string'
PUBLIC	??_C@_0M@FDPCIMFD@FloodInPost?$AA@		; `string'
PUBLIC	??_C@_0BD@IIGIBBFK@IsPostFloodProtect?$AA@	; `string'
PUBLIC	??_C@_0BA@HJHGGKGC@ErohimItemsDrop?$AA@		; `string'
PUBLIC	??_C@_09CMLILGNK@ItemsDrop?$AA@			; `string'
PUBLIC	??_C@_0BA@MMFCGLCD@KundumItemsDrop?$AA@		; `string'
PUBLIC	??_C@_0CA@LDIAHPBC@?4?4?2Data?2ExData?2dryneaConfig?4ini?$AA@ ; `string'
PUBLIC	??_C@_0BB@JOFKNJGG@VitalityToLifeRF?$AA@	; `string'
PUBLIC	??_C@_0M@IFOGKLEF@LevelLifeRF?$AA@		; `string'
PUBLIC	??_C@_0BC@EHEENFLA@VitalityToLifeSUM?$AA@	; `string'
PUBLIC	??_C@_0N@OFDIBILA@LevelLifeSUM?$AA@		; `string'
PUBLIC	??_C@_0BB@HMBOOOCO@VitalityToLifeDL?$AA@	; `string'
PUBLIC	??_C@_0M@GHKCJMAN@LevelLifeDL?$AA@		; `string'
PUBLIC	??_C@_0BB@JADLAMGK@VitalityToLifeMG?$AA@	; `string'
PUBLIC	??_C@_0M@ILIHHOEJ@LevelLifeMG?$AA@		; `string'
PUBLIC	??_C@_0BC@MCDFJMMH@VitalityToLifeELF?$AA@	; `string'
PUBLIC	??_C@_0N@GAEJFBMH@LevelLifeELF?$AA@		; `string'
PUBLIC	??_C@_0BB@DDFPHIOJ@VitalityToLifeDK?$AA@	; `string'
PUBLIC	??_C@_0M@CIODAKMK@LevelLifeDK?$AA@		; `string'
PUBLIC	??_C@_0BB@HMGMGKJK@VitalityToLifeSM?$AA@	; `string'
PUBLIC	??_C@_07GNAIBKOG@MaxLife?$AA@			; `string'
PUBLIC	??_C@_0M@GHNABILJ@LevelLifeSM?$AA@		; `string'
PUBLIC	??_C@_09NCEFHIOD@Fortitude?$AA@			; `string'
PUBLIC	??_C@_02GACNOJIN@BK?$AA@			; `string'
PUBLIC	??_C@_09KLNDOCNC@ComboBase?$AA@			; `string'
PUBLIC	??_C@_0P@KINOHHEI@OffDecreaseDur?$AA@		; `string'
PUBLIC	??_C@_0L@ICIPIMOB@IncPercent?$AA@		; `string'
PUBLIC	??_C@_0L@LBPLDKBB@DecPercent?$AA@		; `string'
PUBLIC	??_C@_0BA@CKCFCJNP@AttackDamageMax?$AA@		; `string'
PUBLIC	??_C@_0BA@DIKOMNLA@AttackDamageMin?$AA@		; `string'
PUBLIC	??_C@_07IOCAHHAN@AddMana?$AA@			; `string'
PUBLIC	??_C@_07BMILOCOO@AddLife?$AA@			; `string'
PUBLIC	??_C@_0BE@FDGOFHPP@DiapasonMasterMoney?$AA@	; `string'
PUBLIC	??_C@_09MMCIGBFH@MasterZen?$AA@			; `string'
PUBLIC	??_C@_0M@CLMNLHID@MasterMoney?$AA@		; `string'
PUBLIC	??_C@_0CB@GHBPHMJD@?4?4?2Data?2ExData?2PrideMuConfig?4ini@ ; `string'
PUBLIC	??_C@_03PDAOPOAJ@GmY?$AA@			; `string'
PUBLIC	??_C@_03OKBFMPEI@GmX?$AA@			; `string'
PUBLIC	??_C@_05DCJGIPHF@GmMap?$AA@			; `string'
PUBLIC	??_C@_0BJ@MCLBFNLA@?4?4?2Data?2ExData?2GmMap?4ini?$AA@ ; `string'
PUBLIC	??_C@_0M@MEOEHJII@SearchEvent?$AA@		; `string'
PUBLIC	??_C@_0CK@PKJPGHPM@?$FLSearch?5Event?$FN?5Event?5Start?5For?5?$CF@ ; `string'
PUBLIC	??_C@_09JMDHGKGF@DropEvent?$AA@			; `string'
PUBLIC	??_C@_0CI@JCKJNPEA@?$FLDrop?5Event?$FN?5Event?5Start?5For?5?$CFd?5@ ; `string'
PUBLIC	??_C@_0O@LIFHJMIC@MessageConfig?$AA@		; `string'
PUBLIC	??_C@_09PCOABNJK@HappyHour?$AA@			; `string'
PUBLIC	??_C@_0CI@GOEPAOAJ@?$FLHappy?5Hour?$FN?5Event?5Start?5For?5?$CFd?5@ ; `string'
PUBLIC	??_C@_0CB@NMLGFBIF@?4?4?2Data?2ExData?2MessageConfig?4ini@ ; `string'
PUBLIC	??_C@_0N@IMFGNPFM@ShowExCredit?$AA@		; `string'
PUBLIC	??_C@_06LGONOADE@ShowGP?$AA@			; `string'
PUBLIC	??_C@_0L@DOBIGPHK@ShowWcoinC?$AA@		; `string'
PUBLIC	??_C@_09JAPKFKFH@ShowGMAll?$AA@			; `string'
PUBLIC	??_C@_0O@EINGOGBE@ShowNameColor?$AA@		; `string'
PUBLIC	??_C@_0M@MOLFGNHA@ShowNameAll?$AA@		; `string'
PUBLIC	??_C@_0L@FCMJFHPJ@ShowOnline?$AA@		; `string'
PUBLIC	??_C@_0L@HPKGMHDD@ShowGReset?$AA@		; `string'
PUBLIC	??_C@_09OFLIDOEG@ShowReset?$AA@			; `string'
PUBLIC	??_C@_06CKGENIKG@Enable?$AA@			; `string'
PUBLIC	??_C@_0CB@ONPBJKDM@?4?4?2Data?2ExData?2PlayerConnect?4ini@ ; `string'
PUBLIC	??_C@_0BC@CGOLLBCP@GoldenGreatDragon?$AA@	; `string'
PUBLIC	??_C@_09OEMFLPMC@countitem?$AA@			; `string'
PUBLIC	??_C@_0L@BHPAMDEK@randlevel3?$AA@		; `string'
PUBLIC	??_C@_0L@OOLPCAL@randlevel2?$AA@		; `string'
PUBLIC	??_C@_0L@CFMGKBMI@randlevel1?$AA@		; `string'
PUBLIC	??_C@_0N@HHBMKNLD@GoldenDragon?$AA@		; `string'
PUBLIC	??_C@_0M@MMGMILNL@GoldenNapin?$AA@		; `string'
PUBLIC	??_C@_0BB@OONOPKFI@GoldenIronKnight?$AA@	; `string'
PUBLIC	??_C@_0P@EAJKDCOP@GoldenTwinTale?$AA@		; `string'
PUBLIC	??_C@_0O@EIIOBDNH@GoldenSatyrus?$AA@		; `string'
PUBLIC	??_C@_0M@MBPAFJBI@GoldenCrust?$AA@		; `string'
PUBLIC	??_C@_0M@GMKLCGPC@GoldenGolem?$AA@		; `string'
PUBLIC	??_C@_0M@LJEOIGLC@GoldenWheel?$AA@		; `string'
PUBLIC	??_C@_0P@BINBPBJF@GoldenTantalos?$AA@		; `string'
PUBLIC	??_C@_0M@IPCKDDCD@GoldenDevil?$AA@		; `string'
PUBLIC	??_C@_0M@DOANKBAI@GoldenVepar?$AA@		; `string'
PUBLIC	??_C@_0BB@NNGMMMAH@GoldenLizardKing?$AA@	; `string'
PUBLIC	??_C@_0O@ONGBPJOA@GoldenSoldier?$AA@		; `string'
PUBLIC	??_C@_0M@NPCACHAI@GoldenTitan?$AA@		; `string'
PUBLIC	??_C@_0BB@PMLMCGPG@GoldenDarkKnight?$AA@	; `string'
PUBLIC	??_C@_0N@GNJACHAI@GoldenGoblin?$AA@		; `string'
PUBLIC	??_C@_0BC@LLLKPALN@GoldenBudgeDragon?$AA@	; `string'
PUBLIC	??_C@_09EBLHEKMK@ItemLevel?$AA@			; `string'
PUBLIC	??_C@_09LCBEKCCJ@ItemIndex?$AA@			; `string'
PUBLIC	??_C@_06COGLIGFC@Dragon?$AA@			; `string'
PUBLIC	??_C@_08LJOGMPAO@ItemType?$AA@			; `string'
PUBLIC	??_C@_0CN@PLBMBNNL@?4?4?2Data?2ExData?2Events?2GoldenInva@ ; `string'
PUBLIC	??_C@_09FEFNOIN@DuelLevel?$AA@			; `string'
PUBLIC	??_C@_04EPBLILKF@Duel?$AA@			; `string'
PUBLIC	??_C@_04BLOGEDLD@Gate?$AA@			; `string'
PUBLIC	??_C@_07GPOLHHOH@PkLimit?$AA@			; `string'
PUBLIC	??_C@_02HPIPJOJD@PK?$AA@			; `string'
PUBLIC	??_C@_09FNHGLBIL@PKPartyOn?$AA@			; `string'
PUBLIC	??_C@_0BN@IMCLPOND@?4?4?2Data?2ExData?2PvPSystem?4ini?$AA@ ; `string'
PUBLIC	??_C@_0BH@FCABGCKB@RingSkeletonDurability?$AA@	; `string'
PUBLIC	??_C@_0BE@MODNLPLG@RingPandaDurability?$AA@	; `string'
PUBLIC	??_C@_0BD@EHLKGHKK@DinorantDurability?$AA@	; `string'
PUBLIC	??_C@_0BB@KEGIPMLB@UniriaDurability?$AA@	; `string'
PUBLIC	??_C@_0BC@JMNEHPBP@UnicornDurability?$AA@	; `string'
PUBLIC	??_C@_0BD@IBJLACMM@SkeletonDurability?$AA@	; `string'
PUBLIC	??_C@_0BA@CKPNOEKM@PandaDurability?$AA@		; `string'
PUBLIC	??_C@_0BD@GLMHAOCA@GuardianDurability?$AA@	; `string'
PUBLIC	??_C@_0BA@HLKLPGNP@DemonDurability?$AA@		; `string'
PUBLIC	??_C@_0BA@NIALJKML@SatanDurability?$AA@		; `string'
PUBLIC	??_C@_0BB@HMPHPBHO@RudolfDurability?$AA@	; `string'
PUBLIC	??_C@_0BB@OHAGIPNH@PetDurabilityDiv?$AA@	; `string'
PUBLIC	??_C@_0BA@NLFFKPBF@AngelDurability?$AA@		; `string'
PUBLIC	??_C@_0BJ@PNGLHMOF@GoldFenrirProcDurability?$AA@ ; `string'
PUBLIC	??_C@_0BD@NNICAKBA@GoldFenrirProcLife?$AA@	; `string'
PUBLIC	??_C@_0BF@PPKOKDO@GoldFenrirProcAbsurd?$AA@	; `string'
PUBLIC	??_C@_0BF@NIALAOMG@GoldFenrirProcDamage?$AA@	; `string'
PUBLIC	??_C@_0BK@LLKCGAK@BlackFenrirProcDurability?$AA@ ; `string'
PUBLIC	??_C@_0BE@CKFPCFDG@BlackFenrirProcLife?$AA@	; `string'
PUBLIC	??_C@_0BG@GHPFKDJO@BlackFenrirProcAbsurd?$AA@	; `string'
PUBLIC	??_C@_0BG@LAAEEHGG@BlackFenrirProcDamage?$AA@	; `string'
PUBLIC	??_C@_0BJ@HGNDEEEG@BlueFenrirProcDurability?$AA@ ; `string'
PUBLIC	??_C@_0BD@NBABNGPJ@BlueFenrirProcLife?$AA@	; `string'
PUBLIC	??_C@_0BF@PCDDAOH@BlueFenrirProcAbsurd?$AA@	; `string'
PUBLIC	??_C@_0BF@NINCNEBP@BlueFenrirProcDamage?$AA@	; `string'
PUBLIC	??_C@_0BI@OCEBDAGI@RedFenrirProcDurability?$AA@	; `string'
PUBLIC	??_C@_0BC@IGFPMEEP@RedFenrirProcLife?$AA@	; `string'
PUBLIC	??_C@_0BE@EOAFBPMP@RedFenrirProcAbsurd?$AA@	; `string'
PUBLIC	??_C@_06KAEKLEML@Fenrir?$AA@			; `string'
PUBLIC	??_C@_0BE@JJPEPLDH@RedFenrirProcDamage?$AA@	; `string'
PUBLIC	??_C@_0BD@JCKJEJIF@SkeletonPetAndRing?$AA@	; `string'
PUBLIC	??_C@_0M@KAGNIJEL@SkeletonPet?$AA@		; `string'
PUBLIC	??_C@_0L@DCGNFONO@Experience?$AA@		; `string'
PUBLIC	??_C@_0BF@JONGFLJ@RavenDurabilitySmall?$AA@	; `string'
PUBLIC	??_C@_0BI@GFJAHIIP@RavenAttackDamageMaxCmd?$AA@	; `string'
PUBLIC	??_C@_0BI@GGGDJIMA@RavenAttackDamageMinCmd?$AA@	; `string'
PUBLIC	??_C@_0BI@OFFJKOEA@RavenAttackDamageMaxLvl?$AA@	; `string'
PUBLIC	??_C@_0L@NPEGNDBD@DarkSpirit?$AA@		; `string'
PUBLIC	??_C@_0BI@OGKKEOAP@RavenAttackDamageMinLvl?$AA@	; `string'
PUBLIC	??_C@_03HKMMIPC@Exp?$AA@			; `string'
PUBLIC	??_C@_05OCALBHM@Panda?$AA@			; `string'
PUBLIC	??_C@_0N@OLKLOICD@AttackDamage?$AA@		; `string'
PUBLIC	??_C@_09PLEBLNMO@PandaRing?$AA@			; `string'
PUBLIC	??_C@_03MPGJIAMH@Zen?$AA@			; `string'
PUBLIC	??_C@_0BI@PBIDCIDA@?4?4?2Data?2ExData?2Pets?4ini?$AA@ ; `string'
PUBLIC	??_C@_0BA@HPMHDCCH@DSAllowPKPlayer?$AA@		; `string'
PUBLIC	??_C@_0BG@KLHLNOIL@DSParty1ExpSetPercent?$AA@	; `string'
PUBLIC	??_C@_0BG@CBAHLLOI@DSParty5ExpSetPercent?$AA@	; `string'
PUBLIC	??_C@_0BG@JIPMGAAA@DSParty4ExpSetPercent?$AA@	; `string'
PUBLIC	??_C@_0BG@DPNGPBK@DSParty3ExpSetPercent?$AA@	; `string'
PUBLIC	??_C@_0BG@LKAGLEPC@DSParty2ExpSetPercent?$AA@	; `string'
PUBLIC	??_C@_0BH@CKMHNKKK@DSPartyExpPercentOther?$AA@	; `string'
PUBLIC	??_C@_0BD@GNODHJOK@DSParty5ExpPercent?$AA@	; `string'
PUBLIC	??_C@_0BD@PGEGDFIF@DSParty4ExpPercent?$AA@	; `string'
PUBLIC	??_C@_0M@DFALAJPK@DevilSquare?$AA@		; `string'
PUBLIC	??_C@_0BD@ICNONMAK@DSParty3ExpPercent?$AA@	; `string'
PUBLIC	??_C@_0M@DMDCPMM@ChaosCastle?$AA@		; `string'
PUBLIC	??_C@_0M@GPALKPNK@CCMinPlayer?$AA@		; `string'
PUBLIC	??_C@_0BB@PDPJEHDE@BCAllowPKPlayer8?$AA@	; `string'
PUBLIC	??_C@_0O@IOJFCINI@BCDropAncOpt8?$AA@		; `string'
PUBLIC	??_C@_0O@ONBIPNG@BCDropExcOpt8?$AA@		; `string'
PUBLIC	??_C@_0L@IBPNLEMG@BCDropOpt8?$AA@		; `string'
PUBLIC	??_C@_0M@IIFJCENL@BCDropLuck8?$AA@		; `string'
PUBLIC	??_C@_0N@BCIOMHDL@BCDropSkill8?$AA@		; `string'
PUBLIC	??_C@_0N@CGKKAFLF@BCDropLevel8?$AA@		; `string'
PUBLIC	??_C@_09DBGFKBND@BCDropID8?$AA@			; `string'
PUBLIC	??_C@_0M@OKBOJMFH@BCDropType8?$AA@		; `string'
PUBLIC	??_C@_0BB@HEGBFLPL@BCAllowPKPlayer7?$AA@	; `string'
PUBLIC	??_C@_0O@JANDEBH@BCDropAncOpt7?$AA@		; `string'
PUBLIC	??_C@_0O@IJEJJDBJ@BCDropExcOpt7?$AA@		; `string'
PUBLIC	??_C@_0L@GGFKIAJ@BCDropOpt7?$AA@		; `string'
PUBLIC	??_C@_0M@PMBDIBE@BCDropLuck7?$AA@		; `string'
PUBLIC	??_C@_0N@JFBGNLPE@BCDropSkill7?$AA@		; `string'
PUBLIC	??_C@_0N@KBDCBJHK@BCDropLevel7?$AA@		; `string'
PUBLIC	??_C@_09LGPNLNBM@BCDropID7?$AA@			; `string'
PUBLIC	??_C@_0M@GNIGIAJI@BCDropType7?$AA@		; `string'
PUBLIC	??_C@_0BB@GNHKGKLK@BCAllowPKPlayer6?$AA@	; `string'
PUBLIC	??_C@_0O@BABGAFFG@BCDropAncOpt6?$AA@		; `string'
PUBLIC	??_C@_0O@JAFCKCFI@BCDropExcOpt6?$AA@		; `string'
PUBLIC	??_C@_0L@BPHOJJEI@BCDropOpt6?$AA@		; `string'
PUBLIC	??_C@_0M@BGNKAJFF@BCDropLuck6?$AA@		; `string'
PUBLIC	??_C@_0N@IMANOKLF@BCDropSkill6?$AA@		; `string'
PUBLIC	??_C@_0N@LICJCIDL@BCDropLevel6?$AA@		; `string'
PUBLIC	??_C@_09KPOGIMFN@BCDropID6?$AA@			; `string'
PUBLIC	??_C@_0M@HEJNLBNJ@BCDropType6?$AA@		; `string'
PUBLIC	??_C@_0BB@EGFHDJHJ@BCAllowPKPlayer5?$AA@	; `string'
PUBLIC	??_C@_0O@DLDLFGJF@BCDropAncOpt5?$AA@		; `string'
PUBLIC	??_C@_0O@LLHPPBJL@BCDropExcOpt5?$AA@		; `string'
PUBLIC	??_C@_0L@DEFDMKIL@BCDropOpt5?$AA@		; `string'
PUBLIC	??_C@_0M@DNPHFKJG@BCDropLuck5?$AA@		; `string'
PUBLIC	??_C@_0N@KHCALJHG@BCDropSkill5?$AA@		; `string'
PUBLIC	??_C@_0N@JDAEHLPI@BCDropLevel5?$AA@		; `string'
PUBLIC	??_C@_09IEMLNPJO@BCDropID5?$AA@			; `string'
PUBLIC	??_C@_0M@FPLAOCBK@BCDropType5?$AA@		; `string'
PUBLIC	??_C@_0BB@FPEMAIDI@BCAllowPKPlayer4?$AA@	; `string'
PUBLIC	??_C@_0O@CCCAGHNE@BCDropAncOpt4?$AA@		; `string'
PUBLIC	??_C@_0O@KCGEMANK@BCDropExcOpt4?$AA@		; `string'
PUBLIC	??_C@_0L@CNEIPLMK@BCDropOpt4?$AA@		; `string'
PUBLIC	??_C@_0M@CEOMGLNH@BCDropLuck4?$AA@		; `string'
PUBLIC	??_C@_0N@LODLIIDH@BCDropSkill4?$AA@		; `string'
PUBLIC	??_C@_0N@IKBPEKLJ@BCDropLevel4?$AA@		; `string'
PUBLIC	??_C@_09JNNAOONP@BCDropID4?$AA@			; `string'
PUBLIC	??_C@_0M@EGKLNDFL@BCDropType4?$AA@		; `string'
PUBLIC	??_C@_0BB@BAANJOPP@BCAllowPKPlayer3?$AA@	; `string'
PUBLIC	??_C@_0O@GNGBPBBD@BCDropAncOpt3?$AA@		; `string'
PUBLIC	??_C@_0O@ONCFFGBN@BCDropExcOpt3?$AA@		; `string'
PUBLIC	??_C@_0L@GCAJGNAN@BCDropOpt3?$AA@		; `string'
PUBLIC	??_C@_0M@GLKNPNBA@BCDropLuck3?$AA@		; `string'
PUBLIC	??_C@_0N@PBHKBOPA@BCDropSkill3?$AA@		; `string'
PUBLIC	??_C@_0N@MFFONMHO@BCDropLevel3?$AA@		; `string'
PUBLIC	??_C@_09NCJBHIBI@BCDropID3?$AA@			; `string'
PUBLIC	??_C@_0M@JOKEFJM@BCDropType3?$AA@		; `string'
PUBLIC	??_C@_0BB@JBGKPLO@BCAllowPKPlayer2?$AA@		; `string'
PUBLIC	??_C@_0O@HEHKMAFC@BCDropAncOpt2?$AA@		; `string'
PUBLIC	??_C@_0O@PEDOGHFM@BCDropExcOpt2?$AA@		; `string'
PUBLIC	??_C@_0L@HLBCFMEM@BCDropOpt2?$AA@		; `string'
PUBLIC	??_C@_0M@HCLGMMFB@BCDropLuck2?$AA@		; `string'
PUBLIC	??_C@_0N@OIGBCPLB@BCDropSkill2?$AA@		; `string'
PUBLIC	??_C@_0N@NMEFONDP@BCDropLevel2?$AA@		; `string'
PUBLIC	??_C@_09MLIKEJFJ@BCDropID2?$AA@			; `string'
PUBLIC	??_C@_0M@BAPBHENN@BCDropType2?$AA@		; `string'
PUBLIC	??_C@_0BB@CCDLPMHN@BCAllowPKPlayer1?$AA@	; `string'
PUBLIC	??_C@_0O@FPFHJDJB@BCDropAncOpt1?$AA@		; `string'
PUBLIC	??_C@_0O@NPBDDEJP@BCDropExcOpt1?$AA@		; `string'
PUBLIC	??_C@_0L@FADPAPIP@BCDropOpt1?$AA@		; `string'
PUBLIC	??_C@_0M@FJJLJPJC@BCDropLuck1?$AA@		; `string'
PUBLIC	??_C@_0N@MDEMHMHC@BCDropSkill1?$AA@		; `string'
PUBLIC	??_C@_0N@PHGILOPM@BCDropLevel1?$AA@		; `string'
PUBLIC	??_C@_09OAKHBKJK@BCDropID1?$AA@			; `string'
PUBLIC	??_C@_0M@DLNMCHBO@BCDropType1?$AA@		; `string'
PUBLIC	??_C@_0BA@GIDEMEIM@BCAllowPKPlayer?$AA@		; `string'
PUBLIC	??_C@_0N@DMFJJAD@BCDropAncOpt?$AA@		; `string'
PUBLIC	??_C@_0N@CCAFFMJG@BCDropExcOpt?$AA@		; `string'
PUBLIC	??_C@_09GLKALDEK@BCDropOpt?$AA@			; `string'
PUBLIC	??_C@_0L@HJHMIFEG@BCDropLuck?$AA@		; `string'
PUBLIC	??_C@_0M@BBCMNDMH@BCDropSkill?$AA@		; `string'
PUBLIC	??_C@_0M@FLDHKBKO@BCDropLevel?$AA@		; `string'
PUBLIC	??_C@_08CDCNIEDA@BCDropID?$AA@			; `string'
PUBLIC	??_C@_0M@EAAIBIKA@BloodCastle?$AA@		; `string'
PUBLIC	??_C@_0L@ODNJNGBK@BCDropType?$AA@		; `string'
PUBLIC	??_C@_0N@IELNPJCL@ItDropAncOpt?$AA@		; `string'
PUBLIC	??_C@_0N@KFHNDMLO@ItDropExcOpt?$AA@		; `string'
PUBLIC	??_C@_09NJBAOFKG@ItDropOpt?$AA@			; `string'
PUBLIC	??_C@_0L@NAHCJLED@ItDropLuck?$AA@		; `string'
PUBLIC	??_C@_0M@GBOPCJFG@ItDropSkill?$AA@		; `string'
PUBLIC	??_C@_0M@CLPEFLDP@ItDropLevel?$AA@		; `string'
PUBLIC	??_C@_08COHAEAIJ@ItDropID?$AA@			; `string'
PUBLIC	??_C@_0L@EKNHMIBP@ItDropType?$AA@		; `string'
PUBLIC	??_C@_0P@MKNNBBHA@IllusionTemple?$AA@		; `string'
PUBLIC	??_C@_0N@DIJFKDPN@ItMinPlayers?$AA@		; `string'
PUBLIC	??_C@_0BK@COKDLGKJ@?4?4?2Data?2ExData?2Events?4ini?$AA@ ; `string'
PUBLIC	??_C@_0O@OMDLJIIP@GensColorBlue?$AA@		; `string'
PUBLIC	??_C@_0P@FJJBAMMP@GensColorGreen?$AA@		; `string'
PUBLIC	??_C@_0N@GJKDHDBG@GensColorRed?$AA@		; `string'
PUBLIC	??_C@_0BA@JLFAEIBB@GensColorEnable?$AA@		; `string'
PUBLIC	??_C@_0O@GEIEBGDA@AdminPostName?$AA@		; `string'
PUBLIC	??_C@_03EBMOLPEO@?1gg?$AA@			; `string'
PUBLIC	??_C@_09FDPGKJIB@MoneyType?$AA@			; `string'
PUBLIC	??_C@_0M@LDFBDLDI@PostPCPoint?$AA@		; `string'
PUBLIC	??_C@_0P@HABGNHDN@PkClearCredits?$AA@		; `string'
PUBLIC	??_C@_0M@OGBNAHMP@PKClearType?$AA@		; `string'
PUBLIC	??_C@_0N@JGEOMKLM@PkClearMoney?$AA@		; `string'
PUBLIC	??_C@_0N@LFLKJINM@PkClearLevel?$AA@		; `string'
PUBLIC	??_C@_07DOAOMMKG@Enabled?$AA@			; `string'
PUBLIC	??_C@_0O@ICHAGEJN@AddPointLevel?$AA@		; `string'
PUBLIC	??_C@_0M@FLIEHIPP@AddPriceZen?$AA@		; `string'
PUBLIC	??_C@_0L@PJEJJPCD@PostServer?$AA@		; `string'
PUBLIC	??_C@_09BPEAKGKL@PostDelay?$AA@			; `string'
PUBLIC	??_C@_09KBJPHKHD@PostColor?$AA@			; `string'
PUBLIC	??_C@_09MIBFFENF@PostPrist?$AA@			; `string'
PUBLIC	??_C@_07JMLJGMOM@?$FLpost?$FN?3?$AA@		; `string'
PUBLIC	??_C@_09NPPPIPJF@PostMoney?$AA@			; `string'
PUBLIC	??_C@_09PMALNNPF@PostLevel?$AA@			; `string'
PUBLIC	??_C@_07MLKAJEJD@PkClear?$AA@			; `string'
PUBLIC	??_C@_0M@MLICEIGI@PkClearName?$AA@		; `string'
PUBLIC	??_C@_08OLBJHFEG@?1pkclear?$AA@			; `string'
PUBLIC	??_C@_07HIBHDECO@CmdName?$AA@			; `string'
PUBLIC	??_C@_04BCEBBOAK@?1cmd?$AA@			; `string'
PUBLIC	??_C@_07EEMMPEJB@EneName?$AA@			; `string'
PUBLIC	??_C@_04CMHHMOMO@?1ene?$AA@			; `string'
PUBLIC	??_C@_07LLNFCNOJ@VitName?$AA@			; `string'
PUBLIC	??_C@_04DIENADCK@?1vit?$AA@			; `string'
PUBLIC	??_C@_07CCNMHPMD@AgiName?$AA@			; `string'
PUBLIC	??_C@_04HBCNBK@?1agi?$AA@			; `string'
PUBLIC	??_C@_0L@JFFLHCAL@AddCommand?$AA@		; `string'
PUBLIC	??_C@_07CDGFDNJO@StrName?$AA@			; `string'
PUBLIC	??_C@_04ENDHGELN@?1str?$AA@			; `string'
PUBLIC	??_C@_04HPGPEKIH@Post?$AA@			; `string'
PUBLIC	??_C@_08BDIACMIO@PostName?$AA@			; `string'
PUBLIC	??_C@_05DPLEIENO@?1post?$AA@			; `string'
PUBLIC	??_C@_0BM@NADNCLMP@?4?4?2Data?2ExData?2Commands?4ini?$AA@ ; `string'
PUBLIC	??_C@_0BD@NGDMFPLJ@RFPvPAttackRateDiv?$AA@	; `string'
PUBLIC	??_C@_0BF@GKCEFGDC@RFPvPAttackRateFact2?$AA@	; `string'
PUBLIC	??_C@_0BF@EBAJAFPB@RFPvPAttackRateFact1?$AA@	; `string'
PUBLIC	??_C@_0BD@MFPLFOJL@SUPvPAttackRateDiv?$AA@	; `string'
PUBLIC	??_C@_0BF@LKJBDDED@SUPvPAttackRateFact2?$AA@	; `string'
PUBLIC	??_C@_0BF@JBLMGAIA@SUPvPAttackRateFact1?$AA@	; `string'
PUBLIC	??_C@_0BF@IAOIOBCG@DLPvPAttackRateFact2?$AA@	; `string'
PUBLIC	??_C@_0BF@KLMFLCOF@DLPvPAttackRateFact1?$AA@	; `string'
PUBLIC	??_C@_0BD@GJLDEEJM@MGPvPAttackRateDiv?$AA@	; `string'
PUBLIC	??_C@_0BF@ILCPALG@MGPvPAttackRateFact2?$AA@	; `string'
PUBLIC	??_C@_0BF@CDJPKDHF@MGPvPAttackRateFact1?$AA@	; `string'
PUBLIC	??_C@_0BD@GFMGDCJK@EEPvPAttackRateDiv?$AA@	; `string'
PUBLIC	??_C@_0BF@OHIOIPEM@EEPvPAttackRateFact2?$AA@	; `string'
PUBLIC	??_C@_0BF@MMKDNMIP@EEPvPAttackRateFact1?$AA@	; `string'
PUBLIC	??_C@_0BF@FCFMNBHL@DWPvPAttackRateFact2?$AA@	; `string'
PUBLIC	??_C@_0BF@HJHBICLI@DWPvPAttackRateFact1?$AA@	; `string'
PUBLIC	??_C@_0BD@KLAJKAEL@DKPvPAttackRateDiv?$AA@	; `string'
PUBLIC	??_C@_0BF@GBKMEHLF@DKPvPAttackRateFact2?$AA@	; `string'
PUBLIC	??_C@_0BF@EKIBBEHG@DKPvPAttackRateFact1?$AA@	; `string'
PUBLIC	??_C@_0BF@FALIENJF@CWElfAlterDMGPercent?$AA@	; `string'
PUBLIC	??_C@_0P@NCKHGKEG@BerserkAddMana?$AA@		; `string'
PUBLIC	??_C@_0BF@NLHHHFNI@DLSkillDMGPercentMax?$AA@	; `string'
PUBLIC	??_C@_0BF@DKDDNDEL@DKSkillDMGPercentMax?$AA@	; `string'
PUBLIC	??_C@_0BC@BAEFKHHM@DamageMax_VitLeft?$AA@	; `string'
PUBLIC	??_C@_0BC@IADGLHJG@DamageMin_VitLeft?$AA@	; `string'
PUBLIC	??_C@_0BD@EDFMHHNJ@DamageMax_VitRight?$AA@	; `string'
PUBLIC	??_C@_0M@BKNIILFP@RageFighter?$AA@		; `string'
PUBLIC	??_C@_0BD@DBDAPKP@DamageMin_VitRight?$AA@	; `string'
PUBLIC	??_C@_07PEDPFCGC@Defense?$AA@			; `string'
PUBLIC	??_C@_0BD@OCEADDEC@SuccessfulBlocking?$AA@	; `string'
PUBLIC	??_C@_0P@CLAFNACP@MagicDamageMin?$AA@		; `string'
PUBLIC	??_C@_0P@DJIODEEA@MagicDamageMax?$AA@		; `string'
PUBLIC	??_C@_09PCICNBOE@Dark_Lord?$AA@			; `string'
PUBLIC	??_C@_0M@CJAMKEGP@Dark_Wizard?$AA@		; `string'
PUBLIC	??_C@_08HLBMEKKE@Summoner?$AA@			; `string'
PUBLIC	??_C@_0BC@HPCPGOOO@DamageMin_EneLeft?$AA@	; `string'
PUBLIC	??_C@_0BC@OPFMHOAE@DamageMax_EneLeft?$AA@	; `string'
PUBLIC	??_C@_0BD@FNDCOPHI@DamageMin_EneRight?$AA@	; `string'
PUBLIC	??_C@_0BD@BNHNJHAO@DamageMax_EneRight?$AA@	; `string'
PUBLIC	??_C@_0BA@IPLGPKDA@Magic_Gladiator?$AA@		; `string'
PUBLIC	??_C@_0BC@BIIGKHOB@DamageMin_StrLeft?$AA@	; `string'
PUBLIC	??_C@_0BC@IIPFLHAL@DamageMax_StrLeft?$AA@	; `string'
PUBLIC	??_C@_0BD@MNOKFLCA@DamageMin_StrRight?$AA@	; `string'
PUBLIC	??_C@_0M@MNCPOEBE@Dark_Knight?$AA@		; `string'
PUBLIC	??_C@_0BD@INKFCDFG@DamageMax_StrRight?$AA@	; `string'
PUBLIC	??_C@_0BF@PBOHAMNC@DamageMin_DexStrLeft?$AA@	; `string'
PUBLIC	??_C@_0BF@NGFMGLOD@DamageMax_DexStrLeft?$AA@	; `string'
PUBLIC	??_C@_0BG@HCNDFLJN@DamageMin_DexStrRight?$AA@	; `string'
PUBLIC	??_C@_0BG@CDCKOAMA@DamageMax_DexStrRight?$AA@	; `string'
PUBLIC	??_C@_0BI@MAMADLME@DamageMin_NoBow_DexLeft?$AA@	; `string'
PUBLIC	??_C@_0BI@NGIMLHOK@DamageMin_NoBow_StrLeft?$AA@	; `string'
PUBLIC	??_C@_0BI@JDGGCDCA@DamageMax_NoBow_DexLeft?$AA@	; `string'
PUBLIC	??_C@_0BI@IFCKKPAO@DamageMax_NoBow_StrLeft?$AA@	; `string'
PUBLIC	??_C@_0BJ@IGDGMJPL@DamageMin_NoBow_DexRight?$AA@ ; `string'
PUBLIC	??_C@_0BJ@FKPGIILI@DamageMin_NoBow_StrRight?$AA@ ; `string'
PUBLIC	??_C@_0BJ@CBACEJIC@DamageMax_NoBow_DexRight?$AA@ ; `string'
PUBLIC	??_C@_0BJ@PNMCAIMB@DamageMax_NoBow_StrRight?$AA@ ; `string'
PUBLIC	??_C@_0BJ@CNDLEJGO@DamageMin_Bow_StrDexLeft?$AA@ ; `string'
PUBLIC	??_C@_0BJ@IKAPMJBH@DamageMax_Bow_StrDexLeft?$AA@ ; `string'
PUBLIC	??_C@_0BK@LANIHIHP@DamageMin_Bow_StrDexRight?$AA@ ; `string'
PUBLIC	??_C@_09DIFEFNGC@Fairy_Elf?$AA@			; `string'
PUBLIC	??_C@_0BK@JJKGIFGH@DamageMax_Bow_StrDexRight?$AA@ ; `string'
PUBLIC	??_C@_0BK@FKMBAABH@SoulBarrierAttackManaDown?$AA@ ; `string'
PUBLIC	??_C@_0BD@ILDLACFI@ComboDamagePercent?$AA@	; `string'
PUBLIC	??_C@_0BB@FNNJAMED@ReflectToReflect?$AA@	; `string'
PUBLIC	??_C@_0BH@KAHNGFMD@CastleDamageByAlliance?$AA@	; `string'
PUBLIC	??_C@_08KHNFHHOB@MaxStats?$AA@			; `string'
PUBLIC	??_C@_0BI@IPAIFD@PetCastleAttackByPlayer?$AA@	; `string'
PUBLIC	??_C@_0BF@DMHPGJA@PetCastleAttackByNPC?$AA@	; `string'
PUBLIC	??_C@_0BF@JAHKLENK@CastleAttackByPlayer?$AA@	; `string'
PUBLIC	??_C@_0BC@PPFCPJN@CastleAttackByNPC?$AA@	; `string'
PUBLIC	??_C@_0BH@OHMFFPBI@CastleSiegeSkillEnable?$AA@	; `string'
PUBLIC	??_C@_06POMJKEPM@Common?$AA@			; `string'
PUBLIC	??_C@_09MINFMDAF@NeedArrow?$AA@			; `string'
PUBLIC	??_C@_0BN@HKLOFEFB@?4?4?2Data?2ExData?2Character?4ini?$AA@ ; `string'
PUBLIC	??_C@_0N@LLPFBELB@ExpPartyPlus?$AA@		; `string'
PUBLIC	??_C@_0BB@HCCLEKCI@AllianceMaxGuild?$AA@	; `string'
PUBLIC	??_C@_0N@MPBFAGDG@GuildMaxUser?$AA@		; `string'
PUBLIC	??_C@_0BD@KBAOACND@BloodCastleMaxUser?$AA@	; `string'
PUBLIC	??_C@_0BE@OMLJFHBO@CheckOtherGuildLand?$AA@	; `string'
PUBLIC	??_C@_0P@NBNCCEMG@MarlonTeleport?$AA@		; `string'
PUBLIC	??_C@_0M@KFFOANIE@PotionDelay?$AA@		; `string'
PUBLIC	??_C@_0BH@PCNOGLEL@NoobBuffDefencePercent?$AA@	; `string'
PUBLIC	??_C@_0BG@IIMIEODH@NoobBuffDamagePercent?$AA@	; `string'
PUBLIC	??_C@_0BB@GDDGHPJM@NoobBuffMaxReset?$AA@	; `string'
PUBLIC	??_C@_0P@NHEJBOPE@NoobBuffEnable?$AA@		; `string'
PUBLIC	??_C@_0P@DALCDAPN@PercentKillZen?$AA@		; `string'
PUBLIC	??_C@_0M@DCDMAILA@ExlDropRate?$AA@		; `string'
PUBLIC	??_C@_09HEEKJFKJ@ReConnect?$AA@			; `string'
PUBLIC	??_C@_09BMIDEEAO@ArenaItem?$AA@			; `string'
PUBLIC	??_C@_0BB@MCHIAFN@CommandSetLeader?$AA@		; `string'
PUBLIC	??_C@_0O@EFBFEMGF@AutoSetLeader?$AA@		; `string'
PUBLIC	??_C@_0M@IOKCPMBJ@RePartyTime?$AA@		; `string'
PUBLIC	??_C@_0O@PCMHEGFB@RePartyEnable?$AA@		; `string'
PUBLIC	??_C@_0BE@CFNMLIBO@CountItemDropErohim?$AA@	; `string'
PUBLIC	??_C@_0BE@CBEBGMCE@CountItemDropKundun?$AA@	; `string'
PUBLIC	??_C@_0BF@CDBGPNPC@CountItemDropSelupan?$AA@	; `string'
PUBLIC	??_C@_0P@FPJLLCEA@ProcentDropZen?$AA@		; `string'
PUBLIC	??_C@_0L@DLHIOEAJ@MaxDropZen?$AA@		; `string'
PUBLIC	??_C@_0BB@OHNOBAOE@MarlonQuestReset?$AA@	; `string'
PUBLIC	??_C@_0BC@JONOACBC@DisatanceObjViewe?$AA@	; `string'
PUBLIC	??_C@_0O@JCJOCALP@KundunAncDrop?$AA@		; `string'
PUBLIC	??_C@_05LICMIJMM@Guard?$AA@			; `string'
PUBLIC	??_C@_0N@GAKPJHLA@GuardMessage?$AA@		; `string'
PUBLIC	??_C@_0BE@CDCKDDPK@Welcome?5to?5Ex?9Games?$AA@	; `string'
PUBLIC	??_C@_0O@DIFEKECK@MasterDropZen?$AA@		; `string'
PUBLIC	??_C@_0BE@EJDHFDGH@Wing5MaxSuccessRate?$AA@	; `string'
PUBLIC	??_C@_0BE@OHFPMCPG@Wing4MaxSuccessRate?$AA@	; `string'
PUBLIC	??_C@_0BG@PAGEHNCK@Wing2_5MaxSuccessRate?$AA@	; `string'
PUBLIC	??_C@_0BA@EJDEHLBF@DinorantMixRate?$AA@		; `string'
PUBLIC	??_C@_0BF@PLBFDKPB@WingLv3MixMaxPercent?$AA@	; `string'
PUBLIC	??_C@_0BN@HCIIKEKG@FeatherofCondorMixMaxPercent?$AA@ ; `string'
PUBLIC	??_C@_0BJ@GACBIDHJ@DarkSpiritMixSuccessRate?$AA@ ; `string'
PUBLIC	??_C@_0BI@GCJANFMA@DarkHorseMixSuccessRate?$AA@	; `string'
PUBLIC	??_C@_0BE@LEMOKLBC@Wing2MaxSuccessRate?$AA@	; `string'
PUBLIC	??_C@_0BC@HBJMIEIB@MixMaxSuccessRate?$AA@	; `string'
PUBLIC	??_C@_0BC@OMCNANPE@MixLuckOptRateAdd?$AA@	; `string'
PUBLIC	??_C@_0BH@FBDPHOOK@MixSocket15SuccessRate?$AA@	; `string'
PUBLIC	??_C@_0BK@MLCJJPOM@Mix380AncExc15SuccessRate?$AA@ ; `string'
PUBLIC	??_C@_0BH@DOLHJBNM@MixNormal15SuccessRate?$AA@	; `string'
PUBLIC	??_C@_0BH@IMKJKHGP@MixSocket14SuccessRate?$AA@	; `string'
PUBLIC	??_C@_0BK@BGLPEGGJ@Mix380AncExc14SuccessRate?$AA@ ; `string'
PUBLIC	??_C@_0BH@ODCBEIFJ@MixNormal14SuccessRate?$AA@	; `string'
PUBLIC	??_C@_0BH@PBNKKBDH@MixSocket13SuccessRate?$AA@	; `string'
PUBLIC	??_C@_0BK@GLMMEADB@Mix380AncExc13SuccessRate?$AA@ ; `string'
PUBLIC	??_C@_0BH@JOFCEOAB@MixNormal13SuccessRate?$AA@	; `string'
PUBLIC	??_C@_0BH@CMEMHILC@MixSocket12SuccessRate?$AA@	; `string'
PUBLIC	??_C@_0BK@LGFKJJLE@Mix380AncExc12SuccessRate?$AA@ ; `string'
PUBLIC	??_C@_0BH@EDMEJHIE@MixNormal12SuccessRate?$AA@	; `string'
PUBLIC	??_C@_0BH@JBIGBEHM@MixSocket11SuccessRate?$AA@	; `string'
PUBLIC	??_C@_0BK@LJAPFHK@Mix380AncExc11SuccessRate?$AA@ ; `string'
PUBLIC	??_C@_0BH@POAOPLEK@MixNormal11SuccessRate?$AA@	; `string'
PUBLIC	??_C@_0BH@EMBAMNPJ@MixSocket10SuccessRate?$AA@	; `string'
PUBLIC	??_C@_0BK@NGAGCMPP@Mix380AncExc10SuccessRate?$AA@ ; `string'
PUBLIC	??_C@_0BH@CDJICCMP@MixNormal10SuccessRate?$AA@	; `string'
PUBLIC	??_C@_0L@BAKJPIHJ@DeleteLogs?$AA@		; `string'
PUBLIC	??_C@_0L@FGHOFJAN@PersonalID?$AA@		; `string'
PUBLIC	??_C@_08BPDKCIGK@CheckSum?$AA@			; `string'
PUBLIC	??_C@_0BK@PCGLKKEC@?4?4?2Data?2ExData?2Common?4ini?$AA@ ; `string'
PUBLIC	??_C@_08KNIMID@PostItem?$AA@			; `string'
PUBLIC	??_C@_0BD@KMKHPDOP@DivFireScreamSpeed?$AA@	; `string'
PUBLIC	??_C@_0N@JDNGCJM@MasterSkills?$AA@		; `string'
PUBLIC	??_C@_09PCFKOPAI@DLReflect?$AA@			; `string'
PUBLIC	??_C@_0BA@JHMAKOGB@CreateMONKLevel?$AA@		; `string'
PUBLIC	??_C@_0P@LCDIEJDJ@CreateSUMLevel?$AA@		; `string'
PUBLIC	??_C@_0O@MPPNBNCE@CreateDLLevel?$AA@		; `string'
PUBLIC	??_C@_0O@NCLFFCPF@CreateMGLevel?$AA@		; `string'
PUBLIC	??_C@_0M@ICCLDJIL@EnableHPBar?$AA@		; `string'
PUBLIC	??_C@_0BA@FACLGDII@ClientAntiCheat?$AA@		; `string'
PUBLIC	??_C@_0BE@LBCOHCJL@MoveTargetPosEffect?$AA@	; `string'
PUBLIC	??_C@_06GMDPMMC@Top100?$AA@			; `string'
PUBLIC	??_C@_09EGDCOCMF@AutoParty?$AA@			; `string'
PUBLIC	??_C@_0BD@MAJIDFMA@HelperClickerLevel?$AA@	; `string'
PUBLIC	??_C@_06MLPMCPDE@ExTeam?$AA@			; `string'
PUBLIC	??_C@_0L@FCEPFPBL@SwitchChar?$AA@		; `string'
PUBLIC	??_C@_0BM@LMFNOFKJ@?4?4?2Data?2ExData?2ExCustom?4ini?$AA@ ; `string'
PUBLIC	__$ArrayPad$
PUBLIC	?LoadConfigs@cExConfigs@@QAEX_N@Z		; cExConfigs::LoadConfigs
EXTRN	?gObjCalCharacter@@YAXH@Z:PROC			; gObjCalCharacter
EXTRN	?gObj@@3PAUOBJECTSTRUCT@@A:DWORD		; gObj
EXTRN	_fclose:PROC
EXTRN	_sscanf:PROC
EXTRN	?Ex_IsBadFileLine@@YA_NPADAAH@Z:PROC		; Ex_IsBadFileLine
EXTRN	_fgets:PROC
EXTRN	_feof:PROC
EXTRN	__imp__ExitProcess@4:PROC
EXTRN	__imp__MessageBoxA@16:PROC
EXTRN	_fopen:PROC
EXTRN	__imp__GetPrivateProfileStringA@24:PROC
EXTRN	__imp__GetPrivateProfileIntA@16:PROC
EXTRN	?Load@CMarriage@@QAEXXZ:PROC			; CMarriage::Load
EXTRN	?g_Marriage@@3VCMarriage@@A:BYTE		; g_Marriage
EXTRN	?Load@ComboCustom@@QAEXXZ:PROC			; ComboCustom::Load
EXTRN	?g_ComboCustom@@3VComboCustom@@A:BYTE		; g_ComboCustom
EXTRN	?Load@NewsBoard@@QAEXXZ:PROC			; NewsBoard::Load
EXTRN	?g_NewsBoard@@3VNewsBoard@@A:BYTE		; g_NewsBoard
EXTRN	?Load@cPandoraBoxEvent@@QAEXXZ:PROC		; cPandoraBoxEvent::Load
EXTRN	?gPandoraBoxEvent@@3VcPandoraBoxEvent@@A:BYTE	; gPandoraBoxEvent
EXTRN	?Load@Brotherhood@@QAEXXZ:PROC			; Brotherhood::Load
EXTRN	?gBrotherhood@@3VBrotherhood@@A:BYTE		; gBrotherhood
EXTRN	?Load@cAlertSystem@@QAEXXZ:PROC			; cAlertSystem::Load
EXTRN	?AlertSystem@@3VcAlertSystem@@A:BYTE		; AlertSystem
EXTRN	?Load@PartyBonus@@QAEXXZ:PROC			; PartyBonus::Load
EXTRN	?gPartyBonus@@3VPartyBonus@@A:BYTE		; gPartyBonus
EXTRN	?Load@cMonsterSpawner@@QAEXXZ:PROC		; cMonsterSpawner::Load
EXTRN	?gMonsterSpawner@@3VcMonsterSpawner@@A:BYTE	; gMonsterSpawner
EXTRN	?LoadConfigs@CDeviasBattle@@QAEXXZ:PROC		; CDeviasBattle::LoadConfigs
EXTRN	?g_DeviasBattle@@3VCDeviasBattle@@A:BYTE	; g_DeviasBattle
EXTRN	?LoadConfigs@cLoraBattle@@QAEXXZ:PROC		; cLoraBattle::LoadConfigs
EXTRN	?LoraBattle@@3VcLoraBattle@@A:BYTE		; LoraBattle
EXTRN	?Load@cCustomNpc@@QAEXXZ:PROC			; cCustomNpc::Load
EXTRN	?gCustomNpc@@3VcCustomNpc@@A:BYTE		; gCustomNpc
EXTRN	?Init@cBossRewardItem@@QAEXXZ:PROC		; cBossRewardItem::Init
EXTRN	?gBossRewardItem@@3VcBossRewardItem@@A:BYTE	; gBossRewardItem
EXTRN	?Load@cWingsDamage@@QAEXXZ:PROC			; cWingsDamage::Load
EXTRN	?gWingsDamage@@3VcWingsDamage@@A:BYTE		; gWingsDamage
EXTRN	?Load@CChaosCastleRewardItem@@QAEXXZ:PROC	; CChaosCastleRewardItem::Load
EXTRN	?gChaosCastleRewardItem@@3VCChaosCastleRewardItem@@A:BYTE ; gChaosCastleRewardItem
EXTRN	?Load@cBloodCastleRewardItem@@QAEXXZ:PROC	; cBloodCastleRewardItem::Load
EXTRN	?gBloodCastleRewardItem@@3VcBloodCastleRewardItem@@A:BYTE ; gBloodCastleRewardItem
EXTRN	?Load@cDevilSquareRewardItem@@QAEXXZ:PROC	; cDevilSquareRewardItem::Load
EXTRN	?gDevilSquareRewardItem@@3VcDevilSquareRewardItem@@A:BYTE ; gDevilSquareRewardItem
EXTRN	?Load@cCalculatorManager@@QAEXXZ:PROC		; cCalculatorManager::Load
EXTRN	?CalculatorManager@@3VcCalculatorManager@@A:BYTE ; CalculatorManager
EXTRN	?Load@cBalanceSystem@@QAEXXZ:PROC		; cBalanceSystem::Load
EXTRN	?gBalanceSystem@@3VcBalanceSystem@@A:BYTE	; gBalanceSystem
EXTRN	?Load@cGrandHero@@QAEXXZ:PROC			; cGrandHero::Load
EXTRN	?GrandHero@@3VcGrandHero@@A:BYTE		; GrandHero
EXTRN	?Load@cTvTEvent@@QAEXXZ:PROC			; cTvTEvent::Load
EXTRN	?TvT@@3VcTvTEvent@@A:BYTE			; TvT
EXTRN	?Load@MonsterQuest@@QAEXXZ:PROC			; MonsterQuest::Load
EXTRN	?gMonsterQuest@@3VMonsterQuest@@A:BYTE		; gMonsterQuest
EXTRN	?Load@MixOption@@QAEXXZ:PROC			; MixOption::Load
EXTRN	?g_MixOption@@3VMixOption@@A:BYTE		; g_MixOption
EXTRN	?Init@cChaosMixManager@@QAEXXZ:PROC		; cChaosMixManager::Init
EXTRN	?ChaosMixManager@@3VcChaosMixManager@@A:BYTE	; ChaosMixManager
EXTRN	?Load@cMonsterBonus@@QAEXXZ:PROC		; cMonsterBonus::Load
EXTRN	?gMonsterBonus@@3VcMonsterBonus@@A:BYTE		; gMonsterBonus
EXTRN	?LoadTimer@cEventTimer@@QAEXXZ:PROC		; cEventTimer::LoadTimer
EXTRN	?gEventTimer@@3VcEventTimer@@A:BYTE		; gEventTimer
EXTRN	?Load@cMaxPower@@QAEXXZ:PROC			; cMaxPower::Load
EXTRN	?gMaxPower@@3VcMaxPower@@A:BYTE			; gMaxPower
EXTRN	?Load@cTeleportManager@@QAEXXZ:PROC		; cTeleportManager::Load
EXTRN	?gTeleportManager@@3VcTeleportManager@@A:BYTE	; gTeleportManager
EXTRN	?Load@cExclusiveOptions@@QAEXXZ:PROC		; cExclusiveOptions::Load
EXTRN	?gExclusiveOptions@@3VcExclusiveOptions@@A:BYTE	; gExclusiveOptions
EXTRN	?Init@cWinQuestSystem@@QAEXXZ:PROC		; cWinQuestSystem::Init
EXTRN	?gWinQuestSystem@@3VcWinQuestSystem@@A:BYTE	; gWinQuestSystem
EXTRN	?Load@cCreditDonate@@QAEXXZ:PROC		; cCreditDonate::Load
EXTRN	?gCreditDonate@@3VcCreditDonate@@A:BYTE		; gCreditDonate
EXTRN	?Init@Voter@@QAEXXZ:PROC			; Voter::Init
EXTRN	?gVoter@@3VVoter@@A:BYTE			; gVoter
EXTRN	?Load@JewelsBank@@QAEXXZ:PROC			; JewelsBank::Load
EXTRN	?gJewelsBank@@3VJewelsBank@@A:BYTE		; gJewelsBank
EXTRN	?Load@OnlineBonus@@QAEXXZ:PROC			; OnlineBonus::Load
EXTRN	?gOnlineBonus@@3VOnlineBonus@@A:BYTE		; gOnlineBonus
EXTRN	?Load@cNewJewels@@QAEXXZ:PROC			; cNewJewels::Load
EXTRN	?gNewJewels@@3VcNewJewels@@A:BYTE		; gNewJewels
EXTRN	?Init@CItemDropManager@@QAEXXZ:PROC		; CItemDropManager::Init
EXTRN	?gItemDropManager@@3VCItemDropManager@@A:BYTE	; gItemDropManager
EXTRN	?Load@cBlockMoveItem@@QAEXXZ:PROC		; cBlockMoveItem::Load
EXTRN	?gBlockMoveIteml@@3VcBlockMoveItem@@A:BYTE	; gBlockMoveIteml
EXTRN	?Load@cSystemOfRage@@QAEXXZ:PROC		; cSystemOfRage::Load
EXTRN	?gSystemOfRage@@3VcSystemOfRage@@A:BYTE		; gSystemOfRage
EXTRN	?CheckUser@CExLicense@@QAE_NH@Z:PROC		; CExLicense::CheckUser
EXTRN	?Loader@PremiumSystem@@QAEXXZ:PROC		; PremiumSystem::Loader
EXTRN	?Premium@@3VPremiumSystem@@A:BYTE		; Premium
EXTRN	?LoadingEvent@cSearchEvent@@QAEXXZ:PROC		; cSearchEvent::LoadingEvent
EXTRN	?SearchEvent@@3VcSearchEvent@@A:BYTE		; SearchEvent
EXTRN	?LoadFile@cDropEvent@@QAEXXZ:PROC		; cDropEvent::LoadFile
EXTRN	?DropEvent@@3VcDropEvent@@A:BYTE		; DropEvent
EXTRN	?LoadConfig@cPriceManager@@QAEXXZ:PROC		; cPriceManager::LoadConfig
EXTRN	?PriceManager@@3VcPriceManager@@A:BYTE		; PriceManager
EXTRN	?LoadConfig@cPvPMapSystem@@QAEXXZ:PROC		; cPvPMapSystem::LoadConfig
EXTRN	?PvPMapSystem@@3VcPvPMapSystem@@A:BYTE		; PvPMapSystem
EXTRN	?LoadConfig@cMapExp@@QAEXXZ:PROC		; cMapExp::LoadConfig
EXTRN	?gMapExp@@3VcMapExp@@A:BYTE			; gMapExp
EXTRN	?LoadConfig@cDropZenManager@@QAEXXZ:PROC	; cDropZenManager::LoadConfig
EXTRN	?DropZenManager@@3VcDropZenManager@@A:BYTE	; DropZenManager
EXTRN	?Loader@cExQuest@@QAEXXZ:PROC			; cExQuest::Loader
EXTRN	?ExQuestSystem@@3VcExQuest@@A:BYTE		; ExQuestSystem
EXTRN	?Load@cOffTrade@@QAEXXZ:PROC			; cOffTrade::Load
EXTRN	?gOffTrade@@3VcOffTrade@@A:BYTE			; gOffTrade
EXTRN	?LoadConfig@cHappyHour@@QAEXXZ:PROC		; cHappyHour::LoadConfig
EXTRN	?HappyHour@@3VcHappyHour@@A:BYTE		; HappyHour
EXTRN	?Load@cGrandReset@@QAEXXZ:PROC			; cGrandReset::Load
EXTRN	?gGrandReset@@3VcGrandReset@@A:BYTE		; gGrandReset
EXTRN	?LoadConfig@cOffExp@@QAEXXZ:PROC		; cOffExp::LoadConfig
EXTRN	?OffExp@@3VcOffExp@@A:BYTE			; OffExp
EXTRN	?Load@cResetSystem@@QAEXXZ:PROC			; cResetSystem::Load
EXTRN	?gResetSystem@@3VcResetSystem@@A:BYTE		; gResetSystem
EXTRN	?ReedConfig@cBloodHound@@QAEXXZ:PROC		; cBloodHound::ReedConfig
EXTRN	?BloodHound@@3VcBloodHound@@A:BYTE		; BloodHound
EXTRN	?g_ExLicense@@3VCExLicense@@A:BYTE		; g_ExLicense
EXTRN	?Load@TeleportShop@@QAEXXZ:PROC			; TeleportShop::Load
EXTRN	?g_TeleportShop@@3VTeleportShop@@A:BYTE		; g_TeleportShop
EXTRN	?Load@CSmithy@@QAEXXZ:PROC			; CSmithy::Load
EXTRN	?g_Smithy@@3VCSmithy@@A:BYTE			; g_Smithy
EXTRN	?Load@CUserConfig@@QAEXXZ:PROC			; CUserConfig::Load
EXTRN	?g_UserConfig@@3VCUserConfig@@A:BYTE		; g_UserConfig
EXTRN	___security_cookie:DWORD
EXTRN	@__security_check_cookie@4:PROC
;	COMDAT ??_C@_0BE@FEKBLFNH@NewBuffPartyDefence?$AA@
; File d:\projects\exteam6.3\source\gameserver\gameserver\configs.cpp
CONST	SEGMENT
??_C@_0BE@FEKBLFNH@NewBuffPartyDefence?$AA@ DB 'NewBuffPartyDefence', 00H ; `string'
CONST	ENDS
;	COMDAT ??_C@_0BD@HIJCBDHI@NewBuffPartyDamage?$AA@
CONST	SEGMENT
??_C@_0BD@HIJCBDHI@NewBuffPartyDamage?$AA@ DB 'NewBuffPartyDamage', 00H ; `string'
CONST	ENDS
;	COMDAT ??_C@_0BG@DGGLLPMG@NewBuffPartyMembCount?$AA@
CONST	SEGMENT
??_C@_0BG@DGGLLPMG@NewBuffPartyMembCount?$AA@ DB 'NewBuffPartyMembCount', 00H ; `string'
CONST	ENDS
;	COMDAT ??_C@_0BD@PEKDAHBH@NewBuffPartyEnable?$AA@
CONST	SEGMENT
??_C@_0BD@PEKDAHBH@NewBuffPartyEnable?$AA@ DB 'NewBuffPartyEnable', 00H ; `string'
CONST	ENDS
;	COMDAT ??_C@_0BE@HGOKOEGD@NewBuffGuildDefence?$AA@
CONST	SEGMENT
??_C@_0BE@HGOKOEGD@NewBuffGuildDefence?$AA@ DB 'NewBuffGuildDefence', 00H ; `string'
CONST	ENDS
;	COMDAT ??_C@_0BD@DBNFBOMO@NewBuffGuildDamage?$AA@
CONST	SEGMENT
??_C@_0BD@DBNFBOMO@NewBuffGuildDamage?$AA@ DB 'NewBuffGuildDamage', 00H ; `string'
CONST	ENDS
;	COMDAT ??_C@_0BH@HCIGDAG@NewBuffGuildMembOnline?$AA@
CONST	SEGMENT
??_C@_0BH@HCIGDAG@NewBuffGuildMembOnline?$AA@ DB 'NewBuffGuildMembOnline', 00H ; `string'
CONST	ENDS
;	COMDAT ??_C@_0BD@LNOEAKKB@NewBuffGuildEnable?$AA@
CONST	SEGMENT
??_C@_0BD@LNOEAKKB@NewBuffGuildEnable?$AA@ DB 'NewBuffGuildEnable', 00H ; `string'
CONST	ENDS
;	COMDAT ??_C@_0BG@PICBNOIL@NewBuffPremiumDefence?$AA@
CONST	SEGMENT
??_C@_0BG@PICBNOIL@NewBuffPremiumDefence?$AA@ DB 'NewBuffPremiumDefence', 00H ; `string'
CONST	ENDS
;	COMDAT ??_C@_0BF@EEAAAPFD@NewBuffPremiumDamage?$AA@
CONST	SEGMENT
??_C@_0BF@EEAAAPFD@NewBuffPremiumDamage?$AA@ DB 'NewBuffPremiumDamage', 00H ; `string'
CONST	ENDS
;	COMDAT ??_C@_0BF@MIDBBLDM@NewBuffPremiumEnable?$AA@
CONST	SEGMENT
??_C@_0BF@MIDBBLDM@NewBuffPremiumEnable?$AA@ DB 'NewBuffPremiumEnable', 00H ; `string'
CONST	ENDS
;	COMDAT ??_C@_0BL@HCAPNPCB@?4?4?2Data?2ExData?2NewBuff?4ini?$AA@
CONST	SEGMENT
??_C@_0BL@HCAPNPCB@?4?4?2Data?2ExData?2NewBuff?4ini?$AA@ DB '..\Data\ExDa'
	DB	'ta\NewBuff.ini', 00H			; `string'
CONST	ENDS
;	COMDAT ??_C@_04MJOIBMDI@RF_Y?$AA@
CONST	SEGMENT
??_C@_04MJOIBMDI@RF_Y?$AA@ DB 'RF_Y', 00H		; `string'
CONST	ENDS
;	COMDAT ??_C@_04NAPDCNHJ@RF_X?$AA@
CONST	SEGMENT
??_C@_04NAPDCNHJ@RF_X?$AA@ DB 'RF_X', 00H		; `string'
CONST	ENDS
;	COMDAT ??_C@_0M@OEIIMLMI@RF_MapStart?$AA@
CONST	SEGMENT
??_C@_0M@OEIIMLMI@RF_MapStart?$AA@ DB 'RF_MapStart', 00H ; `string'
CONST	ENDS
;	COMDAT ??_C@_04EJPFJOHO@DL_Y?$AA@
CONST	SEGMENT
??_C@_04EJPFJOHO@DL_Y?$AA@ DB 'DL_Y', 00H		; `string'
CONST	ENDS
;	COMDAT ??_C@_04FAOOKPDP@DL_X?$AA@
CONST	SEGMENT
??_C@_04FAOOKPDP@DL_X?$AA@ DB 'DL_X', 00H		; `string'
CONST	ENDS
;	COMDAT ??_C@_0M@OFACNLFA@DL_MapStart?$AA@
CONST	SEGMENT
??_C@_0M@OFACNLFA@DL_MapStart?$AA@ DB 'DL_MapStart', 00H ; `string'
CONST	ENDS
;	COMDAT ??_C@_04JDOEHLAO@MG_Y?$AA@
CONST	SEGMENT
??_C@_04JDOEHLAO@MG_Y?$AA@ DB 'MG_Y', 00H		; `string'
CONST	ENDS
;	COMDAT ??_C@_04IKPPEKEP@MG_X?$AA@
CONST	SEGMENT
??_C@_04IKPPEKEP@MG_X?$AA@ DB 'MG_X', 00H		; `string'
CONST	ENDS
;	COMDAT ??_C@_0M@FLIKGGIF@MG_MapStart?$AA@
CONST	SEGMENT
??_C@_0M@FLIKGGIF@MG_MapStart?$AA@ DB 'MG_MapStart', 00H ; `string'
CONST	ENDS
;	COMDAT ??_C@_04LGCEMNPJ@SU_Y?$AA@
CONST	SEGMENT
??_C@_04LGCEMNPJ@SU_Y?$AA@ DB 'SU_Y', 00H		; `string'
CONST	ENDS
;	COMDAT ??_C@_04KPDPPMLI@SU_X?$AA@
CONST	SEGMENT
??_C@_04KPDPPMLI@SU_X?$AA@ DB 'SU_X', 00H		; `string'
CONST	ENDS
;	COMDAT ??_C@_0M@EIDJCFGN@SU_MapStart?$AA@
CONST	SEGMENT
??_C@_0M@EIDJCFGN@SU_MapStart?$AA@ DB 'SU_MapStart', 00H ; `string'
CONST	ENDS
;	COMDAT ??_C@_04JJNPIEE@EE_Y?$AA@
CONST	SEGMENT
??_C@_04JJNPIEE@EE_Y?$AA@ DB 'EE_Y', 00H		; `string'
CONST	ENDS
;	COMDAT ??_C@_04BAIGMJAF@EE_X?$AA@
CONST	SEGMENT
??_C@_04BAIGMJAF@EE_X?$AA@ DB 'EE_X', 00H		; `string'
CONST	ENDS
;	COMDAT ??_C@_0M@FOKKJLK@EE_MapStart?$AA@
CONST	SEGMENT
??_C@_0M@FOKKJLK@EE_MapStart?$AA@ DB 'EE_MapStart', 00H	; `string'
CONST	ENDS
;	COMDAT ??_C@_04NECCKGMH@DK_Y?$AA@
CONST	SEGMENT
??_C@_04NECCKGMH@DK_Y?$AA@ DB 'DK_Y', 00H		; `string'
CONST	ENDS
;	COMDAT ??_C@_04MNDJJHIG@DK_X?$AA@
CONST	SEGMENT
??_C@_04MNDJJHIG@DK_X?$AA@ DB 'DK_X', 00H		; `string'
CONST	ENDS
;	COMDAT ??_C@_0M@MMDJMOND@DK_MapStart?$AA@
CONST	SEGMENT
??_C@_0M@MMDJMOND@DK_MapStart?$AA@ DB 'DK_MapStart', 00H ; `string'
CONST	ENDS
;	COMDAT ??_C@_04MOONEOOA@DW_Y?$AA@
CONST	SEGMENT
??_C@_04MOONEOOA@DW_Y?$AA@ DB 'DW_Y', 00H		; `string'
CONST	ENDS
;	COMDAT ??_C@_04NHPGHPKB@DW_X?$AA@
CONST	SEGMENT
??_C@_04NHPGHPKB@DW_X?$AA@ DB 'DW_X', 00H		; `string'
CONST	ENDS
;	COMDAT ??_C@_0M@GINFJINP@DW_MapStart?$AA@
CONST	SEGMENT
??_C@_0M@GINFJINP@DW_MapStart?$AA@ DB 'DW_MapStart', 00H ; `string'
CONST	ENDS
;	COMDAT ??_C@_0BM@PGMOEDPI@?4?4?2Data?2ExData?2MapStart?4ini?$AA@
CONST	SEGMENT
??_C@_0BM@PGMOEDPI@?4?4?2Data?2ExData?2MapStart?4ini?$AA@ DB '..\Data\ExD'
	DB	'ata\MapStart.ini', 00H			; `string'
CONST	ENDS
;	COMDAT ??_C@_0BH@HMPFPJHA@TeleportMapForDieMap51?$AA@
CONST	SEGMENT
??_C@_0BH@HMPFPJHA@TeleportMapForDieMap51?$AA@ DB 'TeleportMapForDieMap51'
	DB	00H						; `string'
CONST	ENDS
;	COMDAT ??_C@_0BH@GECMKCAG@TeleportMapForDieMap40?$AA@
CONST	SEGMENT
??_C@_0BH@GECMKCAG@TeleportMapForDieMap40?$AA@ DB 'TeleportMapForDieMap40'
	DB	00H						; `string'
CONST	ENDS
;	COMDAT ??_C@_0BG@FDOFJEDH@TeleportMapForDieMap6?$AA@
CONST	SEGMENT
??_C@_0BG@FDOFJEDH@TeleportMapForDieMap6?$AA@ DB 'TeleportMapForDieMap6', 00H ; `string'
CONST	ENDS
;	COMDAT ??_C@_0BK@MHFKIFF@?4?4?2Data?2ExData?2MapDie?4ini?$AA@
CONST	SEGMENT
??_C@_0BK@MHFKIFF@?4?4?2Data?2ExData?2MapDie?4ini?$AA@ DB '..\Data\ExData'
	DB	'\MapDie.ini', 00H				; `string'
CONST	ENDS
;	COMDAT ??_C@_08NDNCIGJE@Class3rd?$AA@
CONST	SEGMENT
??_C@_08NDNCIGJE@Class3rd?$AA@ DB 'Class3rd', 00H	; `string'
CONST	ENDS
;	COMDAT ??_C@_08GLGOOBPB@Class2rd?$AA@
CONST	SEGMENT
??_C@_08GLGOOBPB@Class2rd?$AA@ DB 'Class2rd', 00H	; `string'
CONST	ENDS
;	COMDAT ??_C@_06MOPANJOH@Marlon?$AA@
CONST	SEGMENT
??_C@_06MOPANJOH@Marlon?$AA@ DB 'Marlon', 00H		; `string'
CONST	ENDS
;	COMDAT ??_C@_06INNNFHKM@Master?$AA@
CONST	SEGMENT
??_C@_06INNNFHKM@Master?$AA@ DB 'Master', 00H		; `string'
CONST	ENDS
;	COMDAT ??_C@_0O@PKHMODMN@RfLevelPoints?$AA@
CONST	SEGMENT
??_C@_0O@PKHMODMN@RfLevelPoints?$AA@ DB 'RfLevelPoints', 00H ; `string'
CONST	ENDS
;	COMDAT ??_C@_0O@FOFDPCDB@DlLevelPoints?$AA@
CONST	SEGMENT
??_C@_0O@FOFDPCDB@DlLevelPoints?$AA@ DB 'DlLevelPoints', 00H ; `string'
CONST	ENDS
;	COMDAT ??_C@_0O@BHMMLCNC@MgLevelPoints?$AA@
CONST	SEGMENT
??_C@_0O@BHMMLCNC@MgLevelPoints?$AA@ DB 'MgLevelPoints', 00H ; `string'
CONST	ENDS
;	COMDAT ??_C@_0P@CMJAHKBN@SumLevelPoints?$AA@
CONST	SEGMENT
??_C@_0P@CMJAHKBN@SumLevelPoints?$AA@ DB 'SumLevelPoints', 00H ; `string'
CONST	ENDS
;	COMDAT ??_C@_0P@GFCFENCP@ElfLevelPoints?$AA@
CONST	SEGMENT
??_C@_0P@GFCFENCP@ElfLevelPoints?$AA@ DB 'ElfLevelPoints', 00H ; `string'
CONST	ENDS
;	COMDAT ??_C@_0O@NJNOLEI@DwLevelPoints?$AA@
CONST	SEGMENT
??_C@_0O@NJNOLEI@DwLevelPoints?$AA@ DB 'DwLevelPoints', 00H ; `string'
CONST	ENDS
;	COMDAT ??_C@_0O@CDCAPEGJ@DkLevelPoints?$AA@
CONST	SEGMENT
??_C@_0O@CDCAPEGJ@DkLevelPoints?$AA@ DB 'DkLevelPoints', 00H ; `string'
CONST	ENDS
;	COMDAT ??_C@_0BP@KEOOEKDK@?4?4?2Data?2ExData?2AddPointLvl?4ini?$AA@
CONST	SEGMENT
??_C@_0BP@KEOOEKDK@?4?4?2Data?2ExData?2AddPointLvl?4ini?$AA@ DB '..\Data\'
	DB	'ExData\AddPointLvl.ini', 00H		; `string'
CONST	ENDS
;	COMDAT ??_C@_05OKMLJOMC@?$CFd?5?$CFd?$AA@
CONST	SEGMENT
??_C@_05OKMLJOMC@?$CFd?5?$CFd?$AA@ DB '%d %d', 00H	; `string'
CONST	ENDS
;	COMDAT ??_C@_0BA@PIOFNAIM@LOAD?5FILE?5ERROR?$AA@
CONST	SEGMENT
??_C@_0BA@PIOFNAIM@LOAD?5FILE?5ERROR?$AA@ DB 'LOAD FILE ERROR', 00H ; `string'
CONST	ENDS
;	COMDAT ??_C@_01KDCPPGHE@r?$AA@
CONST	SEGMENT
??_C@_01KDCPPGHE@r?$AA@ DB 'r', 00H			; `string'
CONST	ENDS
;	COMDAT ??_C@_0BF@KHLDLEHL@CountErohimItemsDrop?$AA@
CONST	SEGMENT
??_C@_0BF@KHLDLEHL@CountErohimItemsDrop?$AA@ DB 'CountErohimItemsDrop', 00H ; `string'
CONST	ENDS
;	COMDAT ??_C@_0BF@BCJHLFDK@CountKundumItemsDrop?$AA@
CONST	SEGMENT
??_C@_0BF@BCJHLFDK@CountKundumItemsDrop?$AA@ DB 'CountKundumItemsDrop', 00H ; `string'
CONST	ENDS
;	COMDAT ??_C@_08LEBLPLCH@ExpMinus?$AA@
CONST	SEGMENT
??_C@_08LEBLPLCH@ExpMinus?$AA@ DB 'ExpMinus', 00H	; `string'
CONST	ENDS
;	COMDAT ??_C@_04PABHPHAJ@Gold?$AA@
CONST	SEGMENT
??_C@_04PABHPHAJ@Gold?$AA@ DB 'Gold', 00H		; `string'
CONST	ENDS
;	COMDAT ??_C@_06BONGPKIK@Silver?$AA@
CONST	SEGMENT
??_C@_06BONGPKIK@Silver?$AA@ DB 'Silver', 00H		; `string'
CONST	ENDS
;	COMDAT ??_C@_0M@DPJHHJHF@PartySystem?$AA@
CONST	SEGMENT
??_C@_0M@DPJHHJHF@PartySystem?$AA@ DB 'PartySystem', 00H ; `string'
CONST	ENDS
;	COMDAT ??_C@_0BC@OIHKJNFL@PartySystemEnable?$AA@
CONST	SEGMENT
??_C@_0BC@OIHKJNFL@PartySystemEnable?$AA@ DB 'PartySystemEnable', 00H ; `string'
CONST	ENDS
;	COMDAT ??_C@_0L@LMHNIDEG@GMKillMapY?$AA@
CONST	SEGMENT
??_C@_0L@LMHNIDEG@GMKillMapY?$AA@ DB 'GMKillMapY', 00H	; `string'
CONST	ENDS
;	COMDAT ??_C@_0L@KFGGLCAH@GMKillMapX?$AA@
CONST	SEGMENT
??_C@_0L@KFGGLCAH@GMKillMapX?$AA@ DB 'GMKillMapX', 00H	; `string'
CONST	ENDS
;	COMDAT ??_C@_05PDFHKAHB@GMMap?$AA@
CONST	SEGMENT
??_C@_05PDFHKAHB@GMMap?$AA@ DB 'GMMap', 00H		; `string'
CONST	ENDS
;	COMDAT ??_C@_09JLHLFOB@GMKillMap?$AA@
CONST	SEGMENT
??_C@_09JLHLFOB@GMKillMap?$AA@ DB 'GMKillMap', 00H	; `string'
CONST	ENDS
;	COMDAT ??_C@_0BB@CGPMFCOB@FloodProtectTime?$AA@
CONST	SEGMENT
??_C@_0BB@CGPMFCOB@FloodProtectTime?$AA@ DB 'FloodProtectTime', 00H ; `string'
CONST	ENDS
;	COMDAT ??_C@_0M@FDPCIMFD@FloodInPost?$AA@
CONST	SEGMENT
??_C@_0M@FDPCIMFD@FloodInPost?$AA@ DB 'FloodInPost', 00H ; `string'
CONST	ENDS
;	COMDAT ??_C@_0BD@IIGIBBFK@IsPostFloodProtect?$AA@
CONST	SEGMENT
??_C@_0BD@IIGIBBFK@IsPostFloodProtect?$AA@ DB 'IsPostFloodProtect', 00H ; `string'
CONST	ENDS
;	COMDAT ??_C@_0BA@HJHGGKGC@ErohimItemsDrop?$AA@
CONST	SEGMENT
??_C@_0BA@HJHGGKGC@ErohimItemsDrop?$AA@ DB 'ErohimItemsDrop', 00H ; `string'
CONST	ENDS
;	COMDAT ??_C@_09CMLILGNK@ItemsDrop?$AA@
CONST	SEGMENT
??_C@_09CMLILGNK@ItemsDrop?$AA@ DB 'ItemsDrop', 00H	; `string'
CONST	ENDS
;	COMDAT ??_C@_0BA@MMFCGLCD@KundumItemsDrop?$AA@
CONST	SEGMENT
??_C@_0BA@MMFCGLCD@KundumItemsDrop?$AA@ DB 'KundumItemsDrop', 00H ; `string'
CONST	ENDS
;	COMDAT ??_C@_0CA@LDIAHPBC@?4?4?2Data?2ExData?2dryneaConfig?4ini?$AA@
CONST	SEGMENT
??_C@_0CA@LDIAHPBC@?4?4?2Data?2ExData?2dryneaConfig?4ini?$AA@ DB '..\Data'
	DB	'\ExData\dryneaConfig.ini', 00H		; `string'
CONST	ENDS
;	COMDAT ??_C@_0BB@JOFKNJGG@VitalityToLifeRF?$AA@
CONST	SEGMENT
??_C@_0BB@JOFKNJGG@VitalityToLifeRF?$AA@ DB 'VitalityToLifeRF', 00H ; `string'
CONST	ENDS
;	COMDAT ??_C@_0M@IFOGKLEF@LevelLifeRF?$AA@
CONST	SEGMENT
??_C@_0M@IFOGKLEF@LevelLifeRF?$AA@ DB 'LevelLifeRF', 00H ; `string'
CONST	ENDS
;	COMDAT ??_C@_0BC@EHEENFLA@VitalityToLifeSUM?$AA@
CONST	SEGMENT
??_C@_0BC@EHEENFLA@VitalityToLifeSUM?$AA@ DB 'VitalityToLifeSUM', 00H ; `string'
CONST	ENDS
;	COMDAT ??_C@_0N@OFDIBILA@LevelLifeSUM?$AA@
CONST	SEGMENT
??_C@_0N@OFDIBILA@LevelLifeSUM?$AA@ DB 'LevelLifeSUM', 00H ; `string'
CONST	ENDS
;	COMDAT ??_C@_0BB@HMBOOOCO@VitalityToLifeDL?$AA@
CONST	SEGMENT
??_C@_0BB@HMBOOOCO@VitalityToLifeDL?$AA@ DB 'VitalityToLifeDL', 00H ; `string'
CONST	ENDS
;	COMDAT ??_C@_0M@GHKCJMAN@LevelLifeDL?$AA@
CONST	SEGMENT
??_C@_0M@GHKCJMAN@LevelLifeDL?$AA@ DB 'LevelLifeDL', 00H ; `string'
CONST	ENDS
;	COMDAT ??_C@_0BB@JADLAMGK@VitalityToLifeMG?$AA@
CONST	SEGMENT
??_C@_0BB@JADLAMGK@VitalityToLifeMG?$AA@ DB 'VitalityToLifeMG', 00H ; `string'
CONST	ENDS
;	COMDAT ??_C@_0M@ILIHHOEJ@LevelLifeMG?$AA@
CONST	SEGMENT
??_C@_0M@ILIHHOEJ@LevelLifeMG?$AA@ DB 'LevelLifeMG', 00H ; `string'
CONST	ENDS
;	COMDAT ??_C@_0BC@MCDFJMMH@VitalityToLifeELF?$AA@
CONST	SEGMENT
??_C@_0BC@MCDFJMMH@VitalityToLifeELF?$AA@ DB 'VitalityToLifeELF', 00H ; `string'
CONST	ENDS
;	COMDAT ??_C@_0N@GAEJFBMH@LevelLifeELF?$AA@
CONST	SEGMENT
??_C@_0N@GAEJFBMH@LevelLifeELF?$AA@ DB 'LevelLifeELF', 00H ; `string'
CONST	ENDS
;	COMDAT ??_C@_0BB@DDFPHIOJ@VitalityToLifeDK?$AA@
CONST	SEGMENT
??_C@_0BB@DDFPHIOJ@VitalityToLifeDK?$AA@ DB 'VitalityToLifeDK', 00H ; `string'
CONST	ENDS
;	COMDAT ??_C@_0M@CIODAKMK@LevelLifeDK?$AA@
CONST	SEGMENT
??_C@_0M@CIODAKMK@LevelLifeDK?$AA@ DB 'LevelLifeDK', 00H ; `string'
CONST	ENDS
;	COMDAT ??_C@_0BB@HMGMGKJK@VitalityToLifeSM?$AA@
CONST	SEGMENT
??_C@_0BB@HMGMGKJK@VitalityToLifeSM?$AA@ DB 'VitalityToLifeSM', 00H ; `string'
CONST	ENDS
;	COMDAT ??_C@_07GNAIBKOG@MaxLife?$AA@
CONST	SEGMENT
??_C@_07GNAIBKOG@MaxLife?$AA@ DB 'MaxLife', 00H		; `string'
CONST	ENDS
;	COMDAT ??_C@_0M@GHNABILJ@LevelLifeSM?$AA@
CONST	SEGMENT
??_C@_0M@GHNABILJ@LevelLifeSM?$AA@ DB 'LevelLifeSM', 00H ; `string'
CONST	ENDS
;	COMDAT ??_C@_09NCEFHIOD@Fortitude?$AA@
CONST	SEGMENT
??_C@_09NCEFHIOD@Fortitude?$AA@ DB 'Fortitude', 00H	; `string'
CONST	ENDS
;	COMDAT ??_C@_02GACNOJIN@BK?$AA@
CONST	SEGMENT
??_C@_02GACNOJIN@BK?$AA@ DB 'BK', 00H			; `string'
CONST	ENDS
;	COMDAT ??_C@_09KLNDOCNC@ComboBase?$AA@
CONST	SEGMENT
??_C@_09KLNDOCNC@ComboBase?$AA@ DB 'ComboBase', 00H	; `string'
CONST	ENDS
;	COMDAT ??_C@_0P@KINOHHEI@OffDecreaseDur?$AA@
CONST	SEGMENT
??_C@_0P@KINOHHEI@OffDecreaseDur?$AA@ DB 'OffDecreaseDur', 00H ; `string'
CONST	ENDS
;	COMDAT ??_C@_0L@ICIPIMOB@IncPercent?$AA@
CONST	SEGMENT
??_C@_0L@ICIPIMOB@IncPercent?$AA@ DB 'IncPercent', 00H	; `string'
CONST	ENDS
;	COMDAT ??_C@_0L@LBPLDKBB@DecPercent?$AA@
CONST	SEGMENT
??_C@_0L@LBPLDKBB@DecPercent?$AA@ DB 'DecPercent', 00H	; `string'
CONST	ENDS
;	COMDAT ??_C@_0BA@CKCFCJNP@AttackDamageMax?$AA@
CONST	SEGMENT
??_C@_0BA@CKCFCJNP@AttackDamageMax?$AA@ DB 'AttackDamageMax', 00H ; `string'
CONST	ENDS
;	COMDAT ??_C@_0BA@DIKOMNLA@AttackDamageMin?$AA@
CONST	SEGMENT
??_C@_0BA@DIKOMNLA@AttackDamageMin?$AA@ DB 'AttackDamageMin', 00H ; `string'
CONST	ENDS
;	COMDAT ??_C@_07IOCAHHAN@AddMana?$AA@
CONST	SEGMENT
??_C@_07IOCAHHAN@AddMana?$AA@ DB 'AddMana', 00H		; `string'
CONST	ENDS
;	COMDAT ??_C@_07BMILOCOO@AddLife?$AA@
CONST	SEGMENT
??_C@_07BMILOCOO@AddLife?$AA@ DB 'AddLife', 00H		; `string'
CONST	ENDS
;	COMDAT ??_C@_0BE@FDGOFHPP@DiapasonMasterMoney?$AA@
CONST	SEGMENT
??_C@_0BE@FDGOFHPP@DiapasonMasterMoney?$AA@ DB 'DiapasonMasterMoney', 00H ; `string'
CONST	ENDS
;	COMDAT ??_C@_09MMCIGBFH@MasterZen?$AA@
CONST	SEGMENT
??_C@_09MMCIGBFH@MasterZen?$AA@ DB 'MasterZen', 00H	; `string'
CONST	ENDS
;	COMDAT ??_C@_0M@CLMNLHID@MasterMoney?$AA@
CONST	SEGMENT
??_C@_0M@CLMNLHID@MasterMoney?$AA@ DB 'MasterMoney', 00H ; `string'
CONST	ENDS
;	COMDAT ??_C@_0CB@GHBPHMJD@?4?4?2Data?2ExData?2PrideMuConfig?4ini@
CONST	SEGMENT
??_C@_0CB@GHBPHMJD@?4?4?2Data?2ExData?2PrideMuConfig?4ini@ DB '..\Data\Ex'
	DB	'Data\PrideMuConfig.ini', 00H		; `string'
CONST	ENDS
;	COMDAT ??_C@_03PDAOPOAJ@GmY?$AA@
CONST	SEGMENT
??_C@_03PDAOPOAJ@GmY?$AA@ DB 'GmY', 00H			; `string'
CONST	ENDS
;	COMDAT ??_C@_03OKBFMPEI@GmX?$AA@
CONST	SEGMENT
??_C@_03OKBFMPEI@GmX?$AA@ DB 'GmX', 00H			; `string'
CONST	ENDS
;	COMDAT ??_C@_05DCJGIPHF@GmMap?$AA@
CONST	SEGMENT
??_C@_05DCJGIPHF@GmMap?$AA@ DB 'GmMap', 00H		; `string'
CONST	ENDS
;	COMDAT ??_C@_0BJ@MCLBFNLA@?4?4?2Data?2ExData?2GmMap?4ini?$AA@
CONST	SEGMENT
??_C@_0BJ@MCLBFNLA@?4?4?2Data?2ExData?2GmMap?4ini?$AA@ DB '..\Data\ExData'
	DB	'\GmMap.ini', 00H				; `string'
CONST	ENDS
;	COMDAT ??_C@_0M@MEOEHJII@SearchEvent?$AA@
CONST	SEGMENT
??_C@_0M@MEOEHJII@SearchEvent?$AA@ DB 'SearchEvent', 00H ; `string'
CONST	ENDS
;	COMDAT ??_C@_0CK@PKJPGHPM@?$FLSearch?5Event?$FN?5Event?5Start?5For?5?$CF@
CONST	SEGMENT
??_C@_0CK@PKJPGHPM@?$FLSearch?5Event?$FN?5Event?5Start?5For?5?$CF@ DB '[S'
	DB	'earch Event] Event Start For %d Minutes', 00H ; `string'
CONST	ENDS
;	COMDAT ??_C@_09JMDHGKGF@DropEvent?$AA@
CONST	SEGMENT
??_C@_09JMDHGKGF@DropEvent?$AA@ DB 'DropEvent', 00H	; `string'
CONST	ENDS
;	COMDAT ??_C@_0CI@JCKJNPEA@?$FLDrop?5Event?$FN?5Event?5Start?5For?5?$CFd?5@
CONST	SEGMENT
??_C@_0CI@JCKJNPEA@?$FLDrop?5Event?$FN?5Event?5Start?5For?5?$CFd?5@ DB '['
	DB	'Drop Event] Event Start For %d Minutes', 00H ; `string'
CONST	ENDS
;	COMDAT ??_C@_0O@LIFHJMIC@MessageConfig?$AA@
CONST	SEGMENT
??_C@_0O@LIFHJMIC@MessageConfig?$AA@ DB 'MessageConfig', 00H ; `string'
CONST	ENDS
;	COMDAT ??_C@_09PCOABNJK@HappyHour?$AA@
CONST	SEGMENT
??_C@_09PCOABNJK@HappyHour?$AA@ DB 'HappyHour', 00H	; `string'
CONST	ENDS
;	COMDAT ??_C@_0CI@GOEPAOAJ@?$FLHappy?5Hour?$FN?5Event?5Start?5For?5?$CFd?5@
CONST	SEGMENT
??_C@_0CI@GOEPAOAJ@?$FLHappy?5Hour?$FN?5Event?5Start?5For?5?$CFd?5@ DB '['
	DB	'Happy Hour] Event Start For %d Minutes', 00H ; `string'
CONST	ENDS
;	COMDAT ??_C@_0CB@NMLGFBIF@?4?4?2Data?2ExData?2MessageConfig?4ini@
CONST	SEGMENT
??_C@_0CB@NMLGFBIF@?4?4?2Data?2ExData?2MessageConfig?4ini@ DB '..\Data\Ex'
	DB	'Data\MessageConfig.ini', 00H		; `string'
CONST	ENDS
;	COMDAT ??_C@_0N@IMFGNPFM@ShowExCredit?$AA@
CONST	SEGMENT
??_C@_0N@IMFGNPFM@ShowExCredit?$AA@ DB 'ShowExCredit', 00H ; `string'
CONST	ENDS
;	COMDAT ??_C@_06LGONOADE@ShowGP?$AA@
CONST	SEGMENT
??_C@_06LGONOADE@ShowGP?$AA@ DB 'ShowGP', 00H		; `string'
CONST	ENDS
;	COMDAT ??_C@_0L@DOBIGPHK@ShowWcoinC?$AA@
CONST	SEGMENT
??_C@_0L@DOBIGPHK@ShowWcoinC?$AA@ DB 'ShowWcoinC', 00H	; `string'
CONST	ENDS
;	COMDAT ??_C@_09JAPKFKFH@ShowGMAll?$AA@
CONST	SEGMENT
??_C@_09JAPKFKFH@ShowGMAll?$AA@ DB 'ShowGMAll', 00H	; `string'
CONST	ENDS
;	COMDAT ??_C@_0O@EINGOGBE@ShowNameColor?$AA@
CONST	SEGMENT
??_C@_0O@EINGOGBE@ShowNameColor?$AA@ DB 'ShowNameColor', 00H ; `string'
CONST	ENDS
;	COMDAT ??_C@_0M@MOLFGNHA@ShowNameAll?$AA@
CONST	SEGMENT
??_C@_0M@MOLFGNHA@ShowNameAll?$AA@ DB 'ShowNameAll', 00H ; `string'
CONST	ENDS
;	COMDAT ??_C@_0L@FCMJFHPJ@ShowOnline?$AA@
CONST	SEGMENT
??_C@_0L@FCMJFHPJ@ShowOnline?$AA@ DB 'ShowOnline', 00H	; `string'
CONST	ENDS
;	COMDAT ??_C@_0L@HPKGMHDD@ShowGReset?$AA@
CONST	SEGMENT
??_C@_0L@HPKGMHDD@ShowGReset?$AA@ DB 'ShowGReset', 00H	; `string'
CONST	ENDS
;	COMDAT ??_C@_09OFLIDOEG@ShowReset?$AA@
CONST	SEGMENT
??_C@_09OFLIDOEG@ShowReset?$AA@ DB 'ShowReset', 00H	; `string'
CONST	ENDS
;	COMDAT ??_C@_06CKGENIKG@Enable?$AA@
CONST	SEGMENT
??_C@_06CKGENIKG@Enable?$AA@ DB 'Enable', 00H		; `string'
CONST	ENDS
;	COMDAT ??_C@_0CB@ONPBJKDM@?4?4?2Data?2ExData?2PlayerConnect?4ini@
CONST	SEGMENT
??_C@_0CB@ONPBJKDM@?4?4?2Data?2ExData?2PlayerConnect?4ini@ DB '..\Data\Ex'
	DB	'Data\PlayerConnect.ini', 00H		; `string'
CONST	ENDS
;	COMDAT ??_C@_0BC@CGOLLBCP@GoldenGreatDragon?$AA@
CONST	SEGMENT
??_C@_0BC@CGOLLBCP@GoldenGreatDragon?$AA@ DB 'GoldenGreatDragon', 00H ; `string'
CONST	ENDS
;	COMDAT ??_C@_09OEMFLPMC@countitem?$AA@
CONST	SEGMENT
??_C@_09OEMFLPMC@countitem?$AA@ DB 'countitem', 00H	; `string'
CONST	ENDS
;	COMDAT ??_C@_0L@BHPAMDEK@randlevel3?$AA@
CONST	SEGMENT
??_C@_0L@BHPAMDEK@randlevel3?$AA@ DB 'randlevel3', 00H	; `string'
CONST	ENDS
;	COMDAT ??_C@_0L@OOLPCAL@randlevel2?$AA@
CONST	SEGMENT
??_C@_0L@OOLPCAL@randlevel2?$AA@ DB 'randlevel2', 00H	; `string'
CONST	ENDS
;	COMDAT ??_C@_0L@CFMGKBMI@randlevel1?$AA@
CONST	SEGMENT
??_C@_0L@CFMGKBMI@randlevel1?$AA@ DB 'randlevel1', 00H	; `string'
CONST	ENDS
;	COMDAT ??_C@_0N@HHBMKNLD@GoldenDragon?$AA@
CONST	SEGMENT
??_C@_0N@HHBMKNLD@GoldenDragon?$AA@ DB 'GoldenDragon', 00H ; `string'
CONST	ENDS
;	COMDAT ??_C@_0M@MMGMILNL@GoldenNapin?$AA@
CONST	SEGMENT
??_C@_0M@MMGMILNL@GoldenNapin?$AA@ DB 'GoldenNapin', 00H ; `string'
CONST	ENDS
;	COMDAT ??_C@_0BB@OONOPKFI@GoldenIronKnight?$AA@
CONST	SEGMENT
??_C@_0BB@OONOPKFI@GoldenIronKnight?$AA@ DB 'GoldenIronKnight', 00H ; `string'
CONST	ENDS
;	COMDAT ??_C@_0P@EAJKDCOP@GoldenTwinTale?$AA@
CONST	SEGMENT
??_C@_0P@EAJKDCOP@GoldenTwinTale?$AA@ DB 'GoldenTwinTale', 00H ; `string'
CONST	ENDS
;	COMDAT ??_C@_0O@EIIOBDNH@GoldenSatyrus?$AA@
CONST	SEGMENT
??_C@_0O@EIIOBDNH@GoldenSatyrus?$AA@ DB 'GoldenSatyrus', 00H ; `string'
CONST	ENDS
;	COMDAT ??_C@_0M@MBPAFJBI@GoldenCrust?$AA@
CONST	SEGMENT
??_C@_0M@MBPAFJBI@GoldenCrust?$AA@ DB 'GoldenCrust', 00H ; `string'
CONST	ENDS
;	COMDAT ??_C@_0M@GMKLCGPC@GoldenGolem?$AA@
CONST	SEGMENT
??_C@_0M@GMKLCGPC@GoldenGolem?$AA@ DB 'GoldenGolem', 00H ; `string'
CONST	ENDS
;	COMDAT ??_C@_0M@LJEOIGLC@GoldenWheel?$AA@
CONST	SEGMENT
??_C@_0M@LJEOIGLC@GoldenWheel?$AA@ DB 'GoldenWheel', 00H ; `string'
CONST	ENDS
;	COMDAT ??_C@_0P@BINBPBJF@GoldenTantalos?$AA@
CONST	SEGMENT
??_C@_0P@BINBPBJF@GoldenTantalos?$AA@ DB 'GoldenTantalos', 00H ; `string'
CONST	ENDS
;	COMDAT ??_C@_0M@IPCKDDCD@GoldenDevil?$AA@
CONST	SEGMENT
??_C@_0M@IPCKDDCD@GoldenDevil?$AA@ DB 'GoldenDevil', 00H ; `string'
CONST	ENDS
;	COMDAT ??_C@_0M@DOANKBAI@GoldenVepar?$AA@
CONST	SEGMENT
??_C@_0M@DOANKBAI@GoldenVepar?$AA@ DB 'GoldenVepar', 00H ; `string'
CONST	ENDS
;	COMDAT ??_C@_0BB@NNGMMMAH@GoldenLizardKing?$AA@
CONST	SEGMENT
??_C@_0BB@NNGMMMAH@GoldenLizardKing?$AA@ DB 'GoldenLizardKing', 00H ; `string'
CONST	ENDS
;	COMDAT ??_C@_0O@ONGBPJOA@GoldenSoldier?$AA@
CONST	SEGMENT
??_C@_0O@ONGBPJOA@GoldenSoldier?$AA@ DB 'GoldenSoldier', 00H ; `string'
CONST	ENDS
;	COMDAT ??_C@_0M@NPCACHAI@GoldenTitan?$AA@
CONST	SEGMENT
??_C@_0M@NPCACHAI@GoldenTitan?$AA@ DB 'GoldenTitan', 00H ; `string'
CONST	ENDS
;	COMDAT ??_C@_0BB@PMLMCGPG@GoldenDarkKnight?$AA@
CONST	SEGMENT
??_C@_0BB@PMLMCGPG@GoldenDarkKnight?$AA@ DB 'GoldenDarkKnight', 00H ; `string'
CONST	ENDS
;	COMDAT ??_C@_0N@GNJACHAI@GoldenGoblin?$AA@
CONST	SEGMENT
??_C@_0N@GNJACHAI@GoldenGoblin?$AA@ DB 'GoldenGoblin', 00H ; `string'
CONST	ENDS
;	COMDAT ??_C@_0BC@LLLKPALN@GoldenBudgeDragon?$AA@
CONST	SEGMENT
??_C@_0BC@LLLKPALN@GoldenBudgeDragon?$AA@ DB 'GoldenBudgeDragon', 00H ; `string'
CONST	ENDS
;	COMDAT ??_C@_09EBLHEKMK@ItemLevel?$AA@
CONST	SEGMENT
??_C@_09EBLHEKMK@ItemLevel?$AA@ DB 'ItemLevel', 00H	; `string'
CONST	ENDS
;	COMDAT ??_C@_09LCBEKCCJ@ItemIndex?$AA@
CONST	SEGMENT
??_C@_09LCBEKCCJ@ItemIndex?$AA@ DB 'ItemIndex', 00H	; `string'
CONST	ENDS
;	COMDAT ??_C@_06COGLIGFC@Dragon?$AA@
CONST	SEGMENT
??_C@_06COGLIGFC@Dragon?$AA@ DB 'Dragon', 00H		; `string'
CONST	ENDS
;	COMDAT ??_C@_08LJOGMPAO@ItemType?$AA@
CONST	SEGMENT
??_C@_08LJOGMPAO@ItemType?$AA@ DB 'ItemType', 00H	; `string'
CONST	ENDS
;	COMDAT ??_C@_0CN@PLBMBNNL@?4?4?2Data?2ExData?2Events?2GoldenInva@
CONST	SEGMENT
??_C@_0CN@PLBMBNNL@?4?4?2Data?2ExData?2Events?2GoldenInva@ DB '..\Data\Ex'
	DB	'Data\Events\GoldenInvasionDrop.ini', 00H	; `string'
CONST	ENDS
;	COMDAT ??_C@_09FEFNOIN@DuelLevel?$AA@
CONST	SEGMENT
??_C@_09FEFNOIN@DuelLevel?$AA@ DB 'DuelLevel', 00H	; `string'
CONST	ENDS
;	COMDAT ??_C@_04EPBLILKF@Duel?$AA@
CONST	SEGMENT
??_C@_04EPBLILKF@Duel?$AA@ DB 'Duel', 00H		; `string'
CONST	ENDS
;	COMDAT ??_C@_04BLOGEDLD@Gate?$AA@
CONST	SEGMENT
??_C@_04BLOGEDLD@Gate?$AA@ DB 'Gate', 00H		; `string'
CONST	ENDS
;	COMDAT ??_C@_07GPOLHHOH@PkLimit?$AA@
CONST	SEGMENT
??_C@_07GPOLHHOH@PkLimit?$AA@ DB 'PkLimit', 00H		; `string'
CONST	ENDS
;	COMDAT ??_C@_02HPIPJOJD@PK?$AA@
CONST	SEGMENT
??_C@_02HPIPJOJD@PK?$AA@ DB 'PK', 00H			; `string'
CONST	ENDS
;	COMDAT ??_C@_09FNHGLBIL@PKPartyOn?$AA@
CONST	SEGMENT
??_C@_09FNHGLBIL@PKPartyOn?$AA@ DB 'PKPartyOn', 00H	; `string'
CONST	ENDS
;	COMDAT ??_C@_0BN@IMCLPOND@?4?4?2Data?2ExData?2PvPSystem?4ini?$AA@
CONST	SEGMENT
??_C@_0BN@IMCLPOND@?4?4?2Data?2ExData?2PvPSystem?4ini?$AA@ DB '..\Data\Ex'
	DB	'Data\PvPSystem.ini', 00H			; `string'
CONST	ENDS
;	COMDAT ??_C@_0BH@FCABGCKB@RingSkeletonDurability?$AA@
CONST	SEGMENT
??_C@_0BH@FCABGCKB@RingSkeletonDurability?$AA@ DB 'RingSkeletonDurability'
	DB	00H						; `string'
CONST	ENDS
;	COMDAT ??_C@_0BE@MODNLPLG@RingPandaDurability?$AA@
CONST	SEGMENT
??_C@_0BE@MODNLPLG@RingPandaDurability?$AA@ DB 'RingPandaDurability', 00H ; `string'
CONST	ENDS
;	COMDAT ??_C@_0BD@EHLKGHKK@DinorantDurability?$AA@
CONST	SEGMENT
??_C@_0BD@EHLKGHKK@DinorantDurability?$AA@ DB 'DinorantDurability', 00H ; `string'
CONST	ENDS
;	COMDAT ??_C@_0BB@KEGIPMLB@UniriaDurability?$AA@
CONST	SEGMENT
??_C@_0BB@KEGIPMLB@UniriaDurability?$AA@ DB 'UniriaDurability', 00H ; `string'
CONST	ENDS
;	COMDAT ??_C@_0BC@JMNEHPBP@UnicornDurability?$AA@
CONST	SEGMENT
??_C@_0BC@JMNEHPBP@UnicornDurability?$AA@ DB 'UnicornDurability', 00H ; `string'
CONST	ENDS
;	COMDAT ??_C@_0BD@IBJLACMM@SkeletonDurability?$AA@
CONST	SEGMENT
??_C@_0BD@IBJLACMM@SkeletonDurability?$AA@ DB 'SkeletonDurability', 00H ; `string'
CONST	ENDS
;	COMDAT ??_C@_0BA@CKPNOEKM@PandaDurability?$AA@
CONST	SEGMENT
??_C@_0BA@CKPNOEKM@PandaDurability?$AA@ DB 'PandaDurability', 00H ; `string'
CONST	ENDS
;	COMDAT ??_C@_0BD@GLMHAOCA@GuardianDurability?$AA@
CONST	SEGMENT
??_C@_0BD@GLMHAOCA@GuardianDurability?$AA@ DB 'GuardianDurability', 00H ; `string'
CONST	ENDS
;	COMDAT ??_C@_0BA@HLKLPGNP@DemonDurability?$AA@
CONST	SEGMENT
??_C@_0BA@HLKLPGNP@DemonDurability?$AA@ DB 'DemonDurability', 00H ; `string'
CONST	ENDS
;	COMDAT ??_C@_0BA@NIALJKML@SatanDurability?$AA@
CONST	SEGMENT
??_C@_0BA@NIALJKML@SatanDurability?$AA@ DB 'SatanDurability', 00H ; `string'
CONST	ENDS
;	COMDAT ??_C@_0BB@HMPHPBHO@RudolfDurability?$AA@
CONST	SEGMENT
??_C@_0BB@HMPHPBHO@RudolfDurability?$AA@ DB 'RudolfDurability', 00H ; `string'
CONST	ENDS
;	COMDAT ??_C@_0BB@OHAGIPNH@PetDurabilityDiv?$AA@
CONST	SEGMENT
??_C@_0BB@OHAGIPNH@PetDurabilityDiv?$AA@ DB 'PetDurabilityDiv', 00H ; `string'
CONST	ENDS
;	COMDAT ??_C@_0BA@NLFFKPBF@AngelDurability?$AA@
CONST	SEGMENT
??_C@_0BA@NLFFKPBF@AngelDurability?$AA@ DB 'AngelDurability', 00H ; `string'
CONST	ENDS
;	COMDAT ??_C@_0BJ@PNGLHMOF@GoldFenrirProcDurability?$AA@
CONST	SEGMENT
??_C@_0BJ@PNGLHMOF@GoldFenrirProcDurability?$AA@ DB 'GoldFenrirProcDurabi'
	DB	'lity', 00H					; `string'
CONST	ENDS
;	COMDAT ??_C@_0BD@NNICAKBA@GoldFenrirProcLife?$AA@
CONST	SEGMENT
??_C@_0BD@NNICAKBA@GoldFenrirProcLife?$AA@ DB 'GoldFenrirProcLife', 00H ; `string'
CONST	ENDS
;	COMDAT ??_C@_0BF@PPKOKDO@GoldFenrirProcAbsurd?$AA@
CONST	SEGMENT
??_C@_0BF@PPKOKDO@GoldFenrirProcAbsurd?$AA@ DB 'GoldFenrirProcAbsurd', 00H ; `string'
CONST	ENDS
;	COMDAT ??_C@_0BF@NIALAOMG@GoldFenrirProcDamage?$AA@
CONST	SEGMENT
??_C@_0BF@NIALAOMG@GoldFenrirProcDamage?$AA@ DB 'GoldFenrirProcDamage', 00H ; `string'
CONST	ENDS
;	COMDAT ??_C@_0BK@LLKCGAK@BlackFenrirProcDurability?$AA@
CONST	SEGMENT
??_C@_0BK@LLKCGAK@BlackFenrirProcDurability?$AA@ DB 'BlackFenrirProcDurab'
	DB	'ility', 00H					; `string'
CONST	ENDS
;	COMDAT ??_C@_0BE@CKFPCFDG@BlackFenrirProcLife?$AA@
CONST	SEGMENT
??_C@_0BE@CKFPCFDG@BlackFenrirProcLife?$AA@ DB 'BlackFenrirProcLife', 00H ; `string'
CONST	ENDS
;	COMDAT ??_C@_0BG@GHPFKDJO@BlackFenrirProcAbsurd?$AA@
CONST	SEGMENT
??_C@_0BG@GHPFKDJO@BlackFenrirProcAbsurd?$AA@ DB 'BlackFenrirProcAbsurd', 00H ; `string'
CONST	ENDS
;	COMDAT ??_C@_0BG@LAAEEHGG@BlackFenrirProcDamage?$AA@
CONST	SEGMENT
??_C@_0BG@LAAEEHGG@BlackFenrirProcDamage?$AA@ DB 'BlackFenrirProcDamage', 00H ; `string'
CONST	ENDS
;	COMDAT ??_C@_0BJ@HGNDEEEG@BlueFenrirProcDurability?$AA@
CONST	SEGMENT
??_C@_0BJ@HGNDEEEG@BlueFenrirProcDurability?$AA@ DB 'BlueFenrirProcDurabi'
	DB	'lity', 00H					; `string'
CONST	ENDS
;	COMDAT ??_C@_0BD@NBABNGPJ@BlueFenrirProcLife?$AA@
CONST	SEGMENT
??_C@_0BD@NBABNGPJ@BlueFenrirProcLife?$AA@ DB 'BlueFenrirProcLife', 00H ; `string'
CONST	ENDS
;	COMDAT ??_C@_0BF@PCDDAOH@BlueFenrirProcAbsurd?$AA@
CONST	SEGMENT
??_C@_0BF@PCDDAOH@BlueFenrirProcAbsurd?$AA@ DB 'BlueFenrirProcAbsurd', 00H ; `string'
CONST	ENDS
;	COMDAT ??_C@_0BF@NINCNEBP@BlueFenrirProcDamage?$AA@
CONST	SEGMENT
??_C@_0BF@NINCNEBP@BlueFenrirProcDamage?$AA@ DB 'BlueFenrirProcDamage', 00H ; `string'
CONST	ENDS
;	COMDAT ??_C@_0BI@OCEBDAGI@RedFenrirProcDurability?$AA@
CONST	SEGMENT
??_C@_0BI@OCEBDAGI@RedFenrirProcDurability?$AA@ DB 'RedFenrirProcDurabili'
	DB	'ty', 00H					; `string'
CONST	ENDS
;	COMDAT ??_C@_0BC@IGFPMEEP@RedFenrirProcLife?$AA@
CONST	SEGMENT
??_C@_0BC@IGFPMEEP@RedFenrirProcLife?$AA@ DB 'RedFenrirProcLife', 00H ; `string'
CONST	ENDS
;	COMDAT ??_C@_0BE@EOAFBPMP@RedFenrirProcAbsurd?$AA@
CONST	SEGMENT
??_C@_0BE@EOAFBPMP@RedFenrirProcAbsurd?$AA@ DB 'RedFenrirProcAbsurd', 00H ; `string'
CONST	ENDS
;	COMDAT ??_C@_06KAEKLEML@Fenrir?$AA@
CONST	SEGMENT
??_C@_06KAEKLEML@Fenrir?$AA@ DB 'Fenrir', 00H		; `string'
CONST	ENDS
;	COMDAT ??_C@_0BE@JJPEPLDH@RedFenrirProcDamage?$AA@
CONST	SEGMENT
??_C@_0BE@JJPEPLDH@RedFenrirProcDamage?$AA@ DB 'RedFenrirProcDamage', 00H ; `string'
CONST	ENDS
;	COMDAT ??_C@_0BD@JCKJEJIF@SkeletonPetAndRing?$AA@
CONST	SEGMENT
??_C@_0BD@JCKJEJIF@SkeletonPetAndRing?$AA@ DB 'SkeletonPetAndRing', 00H ; `string'
CONST	ENDS
;	COMDAT ??_C@_0M@KAGNIJEL@SkeletonPet?$AA@
CONST	SEGMENT
??_C@_0M@KAGNIJEL@SkeletonPet?$AA@ DB 'SkeletonPet', 00H ; `string'
CONST	ENDS
;	COMDAT ??_C@_0L@DCGNFONO@Experience?$AA@
CONST	SEGMENT
??_C@_0L@DCGNFONO@Experience?$AA@ DB 'Experience', 00H	; `string'
CONST	ENDS
;	COMDAT ??_C@_0BF@JONGFLJ@RavenDurabilitySmall?$AA@
CONST	SEGMENT
??_C@_0BF@JONGFLJ@RavenDurabilitySmall?$AA@ DB 'RavenDurabilitySmall', 00H ; `string'
CONST	ENDS
;	COMDAT ??_C@_0BI@GFJAHIIP@RavenAttackDamageMaxCmd?$AA@
CONST	SEGMENT
??_C@_0BI@GFJAHIIP@RavenAttackDamageMaxCmd?$AA@ DB 'RavenAttackDamageMaxC'
	DB	'md', 00H					; `string'
CONST	ENDS
;	COMDAT ??_C@_0BI@GGGDJIMA@RavenAttackDamageMinCmd?$AA@
CONST	SEGMENT
??_C@_0BI@GGGDJIMA@RavenAttackDamageMinCmd?$AA@ DB 'RavenAttackDamageMinC'
	DB	'md', 00H					; `string'
CONST	ENDS
;	COMDAT ??_C@_0BI@OFFJKOEA@RavenAttackDamageMaxLvl?$AA@
CONST	SEGMENT
??_C@_0BI@OFFJKOEA@RavenAttackDamageMaxLvl?$AA@ DB 'RavenAttackDamageMaxL'
	DB	'vl', 00H					; `string'
CONST	ENDS
;	COMDAT ??_C@_0L@NPEGNDBD@DarkSpirit?$AA@
CONST	SEGMENT
??_C@_0L@NPEGNDBD@DarkSpirit?$AA@ DB 'DarkSpirit', 00H	; `string'
CONST	ENDS
;	COMDAT ??_C@_0BI@OGKKEOAP@RavenAttackDamageMinLvl?$AA@
CONST	SEGMENT
??_C@_0BI@OGKKEOAP@RavenAttackDamageMinLvl?$AA@ DB 'RavenAttackDamageMinL'
	DB	'vl', 00H					; `string'
CONST	ENDS
;	COMDAT ??_C@_03HKMMIPC@Exp?$AA@
CONST	SEGMENT
??_C@_03HKMMIPC@Exp?$AA@ DB 'Exp', 00H			; `string'
CONST	ENDS
;	COMDAT ??_C@_05OCALBHM@Panda?$AA@
CONST	SEGMENT
??_C@_05OCALBHM@Panda?$AA@ DB 'Panda', 00H		; `string'
CONST	ENDS
;	COMDAT ??_C@_0N@OLKLOICD@AttackDamage?$AA@
CONST	SEGMENT
??_C@_0N@OLKLOICD@AttackDamage?$AA@ DB 'AttackDamage', 00H ; `string'
CONST	ENDS
;	COMDAT ??_C@_09PLEBLNMO@PandaRing?$AA@
CONST	SEGMENT
??_C@_09PLEBLNMO@PandaRing?$AA@ DB 'PandaRing', 00H	; `string'
CONST	ENDS
;	COMDAT ??_C@_03MPGJIAMH@Zen?$AA@
CONST	SEGMENT
??_C@_03MPGJIAMH@Zen?$AA@ DB 'Zen', 00H			; `string'
CONST	ENDS
;	COMDAT ??_C@_0BI@PBIDCIDA@?4?4?2Data?2ExData?2Pets?4ini?$AA@
CONST	SEGMENT
??_C@_0BI@PBIDCIDA@?4?4?2Data?2ExData?2Pets?4ini?$AA@ DB '..\Data\ExData\'
	DB	'Pets.ini', 00H				; `string'
CONST	ENDS
;	COMDAT ??_C@_0BA@HPMHDCCH@DSAllowPKPlayer?$AA@
CONST	SEGMENT
??_C@_0BA@HPMHDCCH@DSAllowPKPlayer?$AA@ DB 'DSAllowPKPlayer', 00H ; `string'
CONST	ENDS
;	COMDAT ??_C@_0BG@KLHLNOIL@DSParty1ExpSetPercent?$AA@
CONST	SEGMENT
??_C@_0BG@KLHLNOIL@DSParty1ExpSetPercent?$AA@ DB 'DSParty1ExpSetPercent', 00H ; `string'
CONST	ENDS
;	COMDAT ??_C@_0BG@CBAHLLOI@DSParty5ExpSetPercent?$AA@
CONST	SEGMENT
??_C@_0BG@CBAHLLOI@DSParty5ExpSetPercent?$AA@ DB 'DSParty5ExpSetPercent', 00H ; `string'
CONST	ENDS
;	COMDAT ??_C@_0BG@JIPMGAAA@DSParty4ExpSetPercent?$AA@
CONST	SEGMENT
??_C@_0BG@JIPMGAAA@DSParty4ExpSetPercent?$AA@ DB 'DSParty4ExpSetPercent', 00H ; `string'
CONST	ENDS
;	COMDAT ??_C@_0BG@DPNGPBK@DSParty3ExpSetPercent?$AA@
CONST	SEGMENT
??_C@_0BG@DPNGPBK@DSParty3ExpSetPercent?$AA@ DB 'DSParty3ExpSetPercent', 00H ; `string'
CONST	ENDS
;	COMDAT ??_C@_0BG@LKAGLEPC@DSParty2ExpSetPercent?$AA@
CONST	SEGMENT
??_C@_0BG@LKAGLEPC@DSParty2ExpSetPercent?$AA@ DB 'DSParty2ExpSetPercent', 00H ; `string'
CONST	ENDS
;	COMDAT ??_C@_0BH@CKMHNKKK@DSPartyExpPercentOther?$AA@
CONST	SEGMENT
??_C@_0BH@CKMHNKKK@DSPartyExpPercentOther?$AA@ DB 'DSPartyExpPercentOther'
	DB	00H						; `string'
CONST	ENDS
;	COMDAT ??_C@_0BD@GNODHJOK@DSParty5ExpPercent?$AA@
CONST	SEGMENT
??_C@_0BD@GNODHJOK@DSParty5ExpPercent?$AA@ DB 'DSParty5ExpPercent', 00H ; `string'
CONST	ENDS
;	COMDAT ??_C@_0BD@PGEGDFIF@DSParty4ExpPercent?$AA@
CONST	SEGMENT
??_C@_0BD@PGEGDFIF@DSParty4ExpPercent?$AA@ DB 'DSParty4ExpPercent', 00H ; `string'
CONST	ENDS
;	COMDAT ??_C@_0M@DFALAJPK@DevilSquare?$AA@
CONST	SEGMENT
??_C@_0M@DFALAJPK@DevilSquare?$AA@ DB 'DevilSquare', 00H ; `string'
CONST	ENDS
;	COMDAT ??_C@_0BD@ICNONMAK@DSParty3ExpPercent?$AA@
CONST	SEGMENT
??_C@_0BD@ICNONMAK@DSParty3ExpPercent?$AA@ DB 'DSParty3ExpPercent', 00H ; `string'
CONST	ENDS
;	COMDAT ??_C@_0M@DMDCPMM@ChaosCastle?$AA@
CONST	SEGMENT
??_C@_0M@DMDCPMM@ChaosCastle?$AA@ DB 'ChaosCastle', 00H	; `string'
CONST	ENDS
;	COMDAT ??_C@_0M@GPALKPNK@CCMinPlayer?$AA@
CONST	SEGMENT
??_C@_0M@GPALKPNK@CCMinPlayer?$AA@ DB 'CCMinPlayer', 00H ; `string'
CONST	ENDS
;	COMDAT ??_C@_0BB@PDPJEHDE@BCAllowPKPlayer8?$AA@
CONST	SEGMENT
??_C@_0BB@PDPJEHDE@BCAllowPKPlayer8?$AA@ DB 'BCAllowPKPlayer8', 00H ; `string'
CONST	ENDS
;	COMDAT ??_C@_0O@IOJFCINI@BCDropAncOpt8?$AA@
CONST	SEGMENT
??_C@_0O@IOJFCINI@BCDropAncOpt8?$AA@ DB 'BCDropAncOpt8', 00H ; `string'
CONST	ENDS
;	COMDAT ??_C@_0O@ONBIPNG@BCDropExcOpt8?$AA@
CONST	SEGMENT
??_C@_0O@ONBIPNG@BCDropExcOpt8?$AA@ DB 'BCDropExcOpt8', 00H ; `string'
CONST	ENDS
;	COMDAT ??_C@_0L@IBPNLEMG@BCDropOpt8?$AA@
CONST	SEGMENT
??_C@_0L@IBPNLEMG@BCDropOpt8?$AA@ DB 'BCDropOpt8', 00H	; `string'
CONST	ENDS
;	COMDAT ??_C@_0M@IIFJCENL@BCDropLuck8?$AA@
CONST	SEGMENT
??_C@_0M@IIFJCENL@BCDropLuck8?$AA@ DB 'BCDropLuck8', 00H ; `string'
CONST	ENDS
;	COMDAT ??_C@_0N@BCIOMHDL@BCDropSkill8?$AA@
CONST	SEGMENT
??_C@_0N@BCIOMHDL@BCDropSkill8?$AA@ DB 'BCDropSkill8', 00H ; `string'
CONST	ENDS
;	COMDAT ??_C@_0N@CGKKAFLF@BCDropLevel8?$AA@
CONST	SEGMENT
??_C@_0N@CGKKAFLF@BCDropLevel8?$AA@ DB 'BCDropLevel8', 00H ; `string'
CONST	ENDS
;	COMDAT ??_C@_09DBGFKBND@BCDropID8?$AA@
CONST	SEGMENT
??_C@_09DBGFKBND@BCDropID8?$AA@ DB 'BCDropID8', 00H	; `string'
CONST	ENDS
;	COMDAT ??_C@_0M@OKBOJMFH@BCDropType8?$AA@
CONST	SEGMENT
??_C@_0M@OKBOJMFH@BCDropType8?$AA@ DB 'BCDropType8', 00H ; `string'
CONST	ENDS
;	COMDAT ??_C@_0BB@HEGBFLPL@BCAllowPKPlayer7?$AA@
CONST	SEGMENT
??_C@_0BB@HEGBFLPL@BCAllowPKPlayer7?$AA@ DB 'BCAllowPKPlayer7', 00H ; `string'
CONST	ENDS
;	COMDAT ??_C@_0O@JANDEBH@BCDropAncOpt7?$AA@
CONST	SEGMENT
??_C@_0O@JANDEBH@BCDropAncOpt7?$AA@ DB 'BCDropAncOpt7', 00H ; `string'
CONST	ENDS
;	COMDAT ??_C@_0O@IJEJJDBJ@BCDropExcOpt7?$AA@
CONST	SEGMENT
??_C@_0O@IJEJJDBJ@BCDropExcOpt7?$AA@ DB 'BCDropExcOpt7', 00H ; `string'
CONST	ENDS
;	COMDAT ??_C@_0L@GGFKIAJ@BCDropOpt7?$AA@
CONST	SEGMENT
??_C@_0L@GGFKIAJ@BCDropOpt7?$AA@ DB 'BCDropOpt7', 00H	; `string'
CONST	ENDS
;	COMDAT ??_C@_0M@PMBDIBE@BCDropLuck7?$AA@
CONST	SEGMENT
??_C@_0M@PMBDIBE@BCDropLuck7?$AA@ DB 'BCDropLuck7', 00H	; `string'
CONST	ENDS
;	COMDAT ??_C@_0N@JFBGNLPE@BCDropSkill7?$AA@
CONST	SEGMENT
??_C@_0N@JFBGNLPE@BCDropSkill7?$AA@ DB 'BCDropSkill7', 00H ; `string'
CONST	ENDS
;	COMDAT ??_C@_0N@KBDCBJHK@BCDropLevel7?$AA@
CONST	SEGMENT
??_C@_0N@KBDCBJHK@BCDropLevel7?$AA@ DB 'BCDropLevel7', 00H ; `string'
CONST	ENDS
;	COMDAT ??_C@_09LGPNLNBM@BCDropID7?$AA@
CONST	SEGMENT
??_C@_09LGPNLNBM@BCDropID7?$AA@ DB 'BCDropID7', 00H	; `string'
CONST	ENDS
;	COMDAT ??_C@_0M@GNIGIAJI@BCDropType7?$AA@
CONST	SEGMENT
??_C@_0M@GNIGIAJI@BCDropType7?$AA@ DB 'BCDropType7', 00H ; `string'
CONST	ENDS
;	COMDAT ??_C@_0BB@GNHKGKLK@BCAllowPKPlayer6?$AA@
CONST	SEGMENT
??_C@_0BB@GNHKGKLK@BCAllowPKPlayer6?$AA@ DB 'BCAllowPKPlayer6', 00H ; `string'
CONST	ENDS
;	COMDAT ??_C@_0O@BABGAFFG@BCDropAncOpt6?$AA@
CONST	SEGMENT
??_C@_0O@BABGAFFG@BCDropAncOpt6?$AA@ DB 'BCDropAncOpt6', 00H ; `string'
CONST	ENDS
;	COMDAT ??_C@_0O@JAFCKCFI@BCDropExcOpt6?$AA@
CONST	SEGMENT
??_C@_0O@JAFCKCFI@BCDropExcOpt6?$AA@ DB 'BCDropExcOpt6', 00H ; `string'
CONST	ENDS
;	COMDAT ??_C@_0L@BPHOJJEI@BCDropOpt6?$AA@
CONST	SEGMENT
??_C@_0L@BPHOJJEI@BCDropOpt6?$AA@ DB 'BCDropOpt6', 00H	; `string'
CONST	ENDS
;	COMDAT ??_C@_0M@BGNKAJFF@BCDropLuck6?$AA@
CONST	SEGMENT
??_C@_0M@BGNKAJFF@BCDropLuck6?$AA@ DB 'BCDropLuck6', 00H ; `string'
CONST	ENDS
;	COMDAT ??_C@_0N@IMANOKLF@BCDropSkill6?$AA@
CONST	SEGMENT
??_C@_0N@IMANOKLF@BCDropSkill6?$AA@ DB 'BCDropSkill6', 00H ; `string'
CONST	ENDS
;	COMDAT ??_C@_0N@LICJCIDL@BCDropLevel6?$AA@
CONST	SEGMENT
??_C@_0N@LICJCIDL@BCDropLevel6?$AA@ DB 'BCDropLevel6', 00H ; `string'
CONST	ENDS
;	COMDAT ??_C@_09KPOGIMFN@BCDropID6?$AA@
CONST	SEGMENT
??_C@_09KPOGIMFN@BCDropID6?$AA@ DB 'BCDropID6', 00H	; `string'
CONST	ENDS
;	COMDAT ??_C@_0M@HEJNLBNJ@BCDropType6?$AA@
CONST	SEGMENT
??_C@_0M@HEJNLBNJ@BCDropType6?$AA@ DB 'BCDropType6', 00H ; `string'
CONST	ENDS
;	COMDAT ??_C@_0BB@EGFHDJHJ@BCAllowPKPlayer5?$AA@
CONST	SEGMENT
??_C@_0BB@EGFHDJHJ@BCAllowPKPlayer5?$AA@ DB 'BCAllowPKPlayer5', 00H ; `string'
CONST	ENDS
;	COMDAT ??_C@_0O@DLDLFGJF@BCDropAncOpt5?$AA@
CONST	SEGMENT
??_C@_0O@DLDLFGJF@BCDropAncOpt5?$AA@ DB 'BCDropAncOpt5', 00H ; `string'
CONST	ENDS
;	COMDAT ??_C@_0O@LLHPPBJL@BCDropExcOpt5?$AA@
CONST	SEGMENT
??_C@_0O@LLHPPBJL@BCDropExcOpt5?$AA@ DB 'BCDropExcOpt5', 00H ; `string'
CONST	ENDS
;	COMDAT ??_C@_0L@DEFDMKIL@BCDropOpt5?$AA@
CONST	SEGMENT
??_C@_0L@DEFDMKIL@BCDropOpt5?$AA@ DB 'BCDropOpt5', 00H	; `string'
CONST	ENDS
;	COMDAT ??_C@_0M@DNPHFKJG@BCDropLuck5?$AA@
CONST	SEGMENT
??_C@_0M@DNPHFKJG@BCDropLuck5?$AA@ DB 'BCDropLuck5', 00H ; `string'
CONST	ENDS
;	COMDAT ??_C@_0N@KHCALJHG@BCDropSkill5?$AA@
CONST	SEGMENT
??_C@_0N@KHCALJHG@BCDropSkill5?$AA@ DB 'BCDropSkill5', 00H ; `string'
CONST	ENDS
;	COMDAT ??_C@_0N@JDAEHLPI@BCDropLevel5?$AA@
CONST	SEGMENT
??_C@_0N@JDAEHLPI@BCDropLevel5?$AA@ DB 'BCDropLevel5', 00H ; `string'
CONST	ENDS
;	COMDAT ??_C@_09IEMLNPJO@BCDropID5?$AA@
CONST	SEGMENT
??_C@_09IEMLNPJO@BCDropID5?$AA@ DB 'BCDropID5', 00H	; `string'
CONST	ENDS
;	COMDAT ??_C@_0M@FPLAOCBK@BCDropType5?$AA@
CONST	SEGMENT
??_C@_0M@FPLAOCBK@BCDropType5?$AA@ DB 'BCDropType5', 00H ; `string'
CONST	ENDS
;	COMDAT ??_C@_0BB@FPEMAIDI@BCAllowPKPlayer4?$AA@
CONST	SEGMENT
??_C@_0BB@FPEMAIDI@BCAllowPKPlayer4?$AA@ DB 'BCAllowPKPlayer4', 00H ; `string'
CONST	ENDS
;	COMDAT ??_C@_0O@CCCAGHNE@BCDropAncOpt4?$AA@
CONST	SEGMENT
??_C@_0O@CCCAGHNE@BCDropAncOpt4?$AA@ DB 'BCDropAncOpt4', 00H ; `string'
CONST	ENDS
;	COMDAT ??_C@_0O@KCGEMANK@BCDropExcOpt4?$AA@
CONST	SEGMENT
??_C@_0O@KCGEMANK@BCDropExcOpt4?$AA@ DB 'BCDropExcOpt4', 00H ; `string'
CONST	ENDS
;	COMDAT ??_C@_0L@CNEIPLMK@BCDropOpt4?$AA@
CONST	SEGMENT
??_C@_0L@CNEIPLMK@BCDropOpt4?$AA@ DB 'BCDropOpt4', 00H	; `string'
CONST	ENDS
;	COMDAT ??_C@_0M@CEOMGLNH@BCDropLuck4?$AA@
CONST	SEGMENT
??_C@_0M@CEOMGLNH@BCDropLuck4?$AA@ DB 'BCDropLuck4', 00H ; `string'
CONST	ENDS
;	COMDAT ??_C@_0N@LODLIIDH@BCDropSkill4?$AA@
CONST	SEGMENT
??_C@_0N@LODLIIDH@BCDropSkill4?$AA@ DB 'BCDropSkill4', 00H ; `string'
CONST	ENDS
;	COMDAT ??_C@_0N@IKBPEKLJ@BCDropLevel4?$AA@
CONST	SEGMENT
??_C@_0N@IKBPEKLJ@BCDropLevel4?$AA@ DB 'BCDropLevel4', 00H ; `string'
CONST	ENDS
;	COMDAT ??_C@_09JNNAOONP@BCDropID4?$AA@
CONST	SEGMENT
??_C@_09JNNAOONP@BCDropID4?$AA@ DB 'BCDropID4', 00H	; `string'
CONST	ENDS
;	COMDAT ??_C@_0M@EGKLNDFL@BCDropType4?$AA@
CONST	SEGMENT
??_C@_0M@EGKLNDFL@BCDropType4?$AA@ DB 'BCDropType4', 00H ; `string'
CONST	ENDS
;	COMDAT ??_C@_0BB@BAANJOPP@BCAllowPKPlayer3?$AA@
CONST	SEGMENT
??_C@_0BB@BAANJOPP@BCAllowPKPlayer3?$AA@ DB 'BCAllowPKPlayer3', 00H ; `string'
CONST	ENDS
;	COMDAT ??_C@_0O@GNGBPBBD@BCDropAncOpt3?$AA@
CONST	SEGMENT
??_C@_0O@GNGBPBBD@BCDropAncOpt3?$AA@ DB 'BCDropAncOpt3', 00H ; `string'
CONST	ENDS
;	COMDAT ??_C@_0O@ONCFFGBN@BCDropExcOpt3?$AA@
CONST	SEGMENT
??_C@_0O@ONCFFGBN@BCDropExcOpt3?$AA@ DB 'BCDropExcOpt3', 00H ; `string'
CONST	ENDS
;	COMDAT ??_C@_0L@GCAJGNAN@BCDropOpt3?$AA@
CONST	SEGMENT
??_C@_0L@GCAJGNAN@BCDropOpt3?$AA@ DB 'BCDropOpt3', 00H	; `string'
CONST	ENDS
;	COMDAT ??_C@_0M@GLKNPNBA@BCDropLuck3?$AA@
CONST	SEGMENT
??_C@_0M@GLKNPNBA@BCDropLuck3?$AA@ DB 'BCDropLuck3', 00H ; `string'
CONST	ENDS
;	COMDAT ??_C@_0N@PBHKBOPA@BCDropSkill3?$AA@
CONST	SEGMENT
??_C@_0N@PBHKBOPA@BCDropSkill3?$AA@ DB 'BCDropSkill3', 00H ; `string'
CONST	ENDS
;	COMDAT ??_C@_0N@MFFONMHO@BCDropLevel3?$AA@
CONST	SEGMENT
??_C@_0N@MFFONMHO@BCDropLevel3?$AA@ DB 'BCDropLevel3', 00H ; `string'
CONST	ENDS
;	COMDAT ??_C@_09NCJBHIBI@BCDropID3?$AA@
CONST	SEGMENT
??_C@_09NCJBHIBI@BCDropID3?$AA@ DB 'BCDropID3', 00H	; `string'
CONST	ENDS
;	COMDAT ??_C@_0M@JOKEFJM@BCDropType3?$AA@
CONST	SEGMENT
??_C@_0M@JOKEFJM@BCDropType3?$AA@ DB 'BCDropType3', 00H	; `string'
CONST	ENDS
;	COMDAT ??_C@_0BB@JBGKPLO@BCAllowPKPlayer2?$AA@
CONST	SEGMENT
??_C@_0BB@JBGKPLO@BCAllowPKPlayer2?$AA@ DB 'BCAllowPKPlayer2', 00H ; `string'
CONST	ENDS
;	COMDAT ??_C@_0O@HEHKMAFC@BCDropAncOpt2?$AA@
CONST	SEGMENT
??_C@_0O@HEHKMAFC@BCDropAncOpt2?$AA@ DB 'BCDropAncOpt2', 00H ; `string'
CONST	ENDS
;	COMDAT ??_C@_0O@PEDOGHFM@BCDropExcOpt2?$AA@
CONST	SEGMENT
??_C@_0O@PEDOGHFM@BCDropExcOpt2?$AA@ DB 'BCDropExcOpt2', 00H ; `string'
CONST	ENDS
;	COMDAT ??_C@_0L@HLBCFMEM@BCDropOpt2?$AA@
CONST	SEGMENT
??_C@_0L@HLBCFMEM@BCDropOpt2?$AA@ DB 'BCDropOpt2', 00H	; `string'
CONST	ENDS
;	COMDAT ??_C@_0M@HCLGMMFB@BCDropLuck2?$AA@
CONST	SEGMENT
??_C@_0M@HCLGMMFB@BCDropLuck2?$AA@ DB 'BCDropLuck2', 00H ; `string'
CONST	ENDS
;	COMDAT ??_C@_0N@OIGBCPLB@BCDropSkill2?$AA@
CONST	SEGMENT
??_C@_0N@OIGBCPLB@BCDropSkill2?$AA@ DB 'BCDropSkill2', 00H ; `string'
CONST	ENDS
;	COMDAT ??_C@_0N@NMEFONDP@BCDropLevel2?$AA@
CONST	SEGMENT
??_C@_0N@NMEFONDP@BCDropLevel2?$AA@ DB 'BCDropLevel2', 00H ; `string'
CONST	ENDS
;	COMDAT ??_C@_09MLIKEJFJ@BCDropID2?$AA@
CONST	SEGMENT
??_C@_09MLIKEJFJ@BCDropID2?$AA@ DB 'BCDropID2', 00H	; `string'
CONST	ENDS
;	COMDAT ??_C@_0M@BAPBHENN@BCDropType2?$AA@
CONST	SEGMENT
??_C@_0M@BAPBHENN@BCDropType2?$AA@ DB 'BCDropType2', 00H ; `string'
CONST	ENDS
;	COMDAT ??_C@_0BB@CCDLPMHN@BCAllowPKPlayer1?$AA@
CONST	SEGMENT
??_C@_0BB@CCDLPMHN@BCAllowPKPlayer1?$AA@ DB 'BCAllowPKPlayer1', 00H ; `string'
CONST	ENDS
;	COMDAT ??_C@_0O@FPFHJDJB@BCDropAncOpt1?$AA@
CONST	SEGMENT
??_C@_0O@FPFHJDJB@BCDropAncOpt1?$AA@ DB 'BCDropAncOpt1', 00H ; `string'
CONST	ENDS
;	COMDAT ??_C@_0O@NPBDDEJP@BCDropExcOpt1?$AA@
CONST	SEGMENT
??_C@_0O@NPBDDEJP@BCDropExcOpt1?$AA@ DB 'BCDropExcOpt1', 00H ; `string'
CONST	ENDS
;	COMDAT ??_C@_0L@FADPAPIP@BCDropOpt1?$AA@
CONST	SEGMENT
??_C@_0L@FADPAPIP@BCDropOpt1?$AA@ DB 'BCDropOpt1', 00H	; `string'
CONST	ENDS
;	COMDAT ??_C@_0M@FJJLJPJC@BCDropLuck1?$AA@
CONST	SEGMENT
??_C@_0M@FJJLJPJC@BCDropLuck1?$AA@ DB 'BCDropLuck1', 00H ; `string'
CONST	ENDS
;	COMDAT ??_C@_0N@MDEMHMHC@BCDropSkill1?$AA@
CONST	SEGMENT
??_C@_0N@MDEMHMHC@BCDropSkill1?$AA@ DB 'BCDropSkill1', 00H ; `string'
CONST	ENDS
;	COMDAT ??_C@_0N@PHGILOPM@BCDropLevel1?$AA@
CONST	SEGMENT
??_C@_0N@PHGILOPM@BCDropLevel1?$AA@ DB 'BCDropLevel1', 00H ; `string'
CONST	ENDS
;	COMDAT ??_C@_09OAKHBKJK@BCDropID1?$AA@
CONST	SEGMENT
??_C@_09OAKHBKJK@BCDropID1?$AA@ DB 'BCDropID1', 00H	; `string'
CONST	ENDS
;	COMDAT ??_C@_0M@DLNMCHBO@BCDropType1?$AA@
CONST	SEGMENT
??_C@_0M@DLNMCHBO@BCDropType1?$AA@ DB 'BCDropType1', 00H ; `string'
CONST	ENDS
;	COMDAT ??_C@_0BA@GIDEMEIM@BCAllowPKPlayer?$AA@
CONST	SEGMENT
??_C@_0BA@GIDEMEIM@BCAllowPKPlayer?$AA@ DB 'BCAllowPKPlayer', 00H ; `string'
CONST	ENDS
;	COMDAT ??_C@_0N@DMFJJAD@BCDropAncOpt?$AA@
CONST	SEGMENT
??_C@_0N@DMFJJAD@BCDropAncOpt?$AA@ DB 'BCDropAncOpt', 00H ; `string'
CONST	ENDS
;	COMDAT ??_C@_0N@CCAFFMJG@BCDropExcOpt?$AA@
CONST	SEGMENT
??_C@_0N@CCAFFMJG@BCDropExcOpt?$AA@ DB 'BCDropExcOpt', 00H ; `string'
CONST	ENDS
;	COMDAT ??_C@_09GLKALDEK@BCDropOpt?$AA@
CONST	SEGMENT
??_C@_09GLKALDEK@BCDropOpt?$AA@ DB 'BCDropOpt', 00H	; `string'
CONST	ENDS
;	COMDAT ??_C@_0L@HJHMIFEG@BCDropLuck?$AA@
CONST	SEGMENT
??_C@_0L@HJHMIFEG@BCDropLuck?$AA@ DB 'BCDropLuck', 00H	; `string'
CONST	ENDS
;	COMDAT ??_C@_0M@BBCMNDMH@BCDropSkill?$AA@
CONST	SEGMENT
??_C@_0M@BBCMNDMH@BCDropSkill?$AA@ DB 'BCDropSkill', 00H ; `string'
CONST	ENDS
;	COMDAT ??_C@_0M@FLDHKBKO@BCDropLevel?$AA@
CONST	SEGMENT
??_C@_0M@FLDHKBKO@BCDropLevel?$AA@ DB 'BCDropLevel', 00H ; `string'
CONST	ENDS
;	COMDAT ??_C@_08CDCNIEDA@BCDropID?$AA@
CONST	SEGMENT
??_C@_08CDCNIEDA@BCDropID?$AA@ DB 'BCDropID', 00H	; `string'
CONST	ENDS
;	COMDAT ??_C@_0M@EAAIBIKA@BloodCastle?$AA@
CONST	SEGMENT
??_C@_0M@EAAIBIKA@BloodCastle?$AA@ DB 'BloodCastle', 00H ; `string'
CONST	ENDS
;	COMDAT ??_C@_0L@ODNJNGBK@BCDropType?$AA@
CONST	SEGMENT
??_C@_0L@ODNJNGBK@BCDropType?$AA@ DB 'BCDropType', 00H	; `string'
CONST	ENDS
;	COMDAT ??_C@_0N@IELNPJCL@ItDropAncOpt?$AA@
CONST	SEGMENT
??_C@_0N@IELNPJCL@ItDropAncOpt?$AA@ DB 'ItDropAncOpt', 00H ; `string'
CONST	ENDS
;	COMDAT ??_C@_0N@KFHNDMLO@ItDropExcOpt?$AA@
CONST	SEGMENT
??_C@_0N@KFHNDMLO@ItDropExcOpt?$AA@ DB 'ItDropExcOpt', 00H ; `string'
CONST	ENDS
;	COMDAT ??_C@_09NJBAOFKG@ItDropOpt?$AA@
CONST	SEGMENT
??_C@_09NJBAOFKG@ItDropOpt?$AA@ DB 'ItDropOpt', 00H	; `string'
CONST	ENDS
;	COMDAT ??_C@_0L@NAHCJLED@ItDropLuck?$AA@
CONST	SEGMENT
??_C@_0L@NAHCJLED@ItDropLuck?$AA@ DB 'ItDropLuck', 00H	; `string'
CONST	ENDS
;	COMDAT ??_C@_0M@GBOPCJFG@ItDropSkill?$AA@
CONST	SEGMENT
??_C@_0M@GBOPCJFG@ItDropSkill?$AA@ DB 'ItDropSkill', 00H ; `string'
CONST	ENDS
;	COMDAT ??_C@_0M@CLPEFLDP@ItDropLevel?$AA@
CONST	SEGMENT
??_C@_0M@CLPEFLDP@ItDropLevel?$AA@ DB 'ItDropLevel', 00H ; `string'
CONST	ENDS
;	COMDAT ??_C@_08COHAEAIJ@ItDropID?$AA@
CONST	SEGMENT
??_C@_08COHAEAIJ@ItDropID?$AA@ DB 'ItDropID', 00H	; `string'
CONST	ENDS
;	COMDAT ??_C@_0L@EKNHMIBP@ItDropType?$AA@
CONST	SEGMENT
??_C@_0L@EKNHMIBP@ItDropType?$AA@ DB 'ItDropType', 00H	; `string'
CONST	ENDS
;	COMDAT ??_C@_0P@MKNNBBHA@IllusionTemple?$AA@
CONST	SEGMENT
??_C@_0P@MKNNBBHA@IllusionTemple?$AA@ DB 'IllusionTemple', 00H ; `string'
CONST	ENDS
;	COMDAT ??_C@_0N@DIJFKDPN@ItMinPlayers?$AA@
CONST	SEGMENT
??_C@_0N@DIJFKDPN@ItMinPlayers?$AA@ DB 'ItMinPlayers', 00H ; `string'
CONST	ENDS
;	COMDAT ??_C@_0BK@COKDLGKJ@?4?4?2Data?2ExData?2Events?4ini?$AA@
CONST	SEGMENT
??_C@_0BK@COKDLGKJ@?4?4?2Data?2ExData?2Events?4ini?$AA@ DB '..\Data\ExDat'
	DB	'a\Events.ini', 00H				; `string'
CONST	ENDS
;	COMDAT ??_C@_0O@OMDLJIIP@GensColorBlue?$AA@
CONST	SEGMENT
??_C@_0O@OMDLJIIP@GensColorBlue?$AA@ DB 'GensColorBlue', 00H ; `string'
CONST	ENDS
;	COMDAT ??_C@_0P@FJJBAMMP@GensColorGreen?$AA@
CONST	SEGMENT
??_C@_0P@FJJBAMMP@GensColorGreen?$AA@ DB 'GensColorGreen', 00H ; `string'
CONST	ENDS
;	COMDAT ??_C@_0N@GJKDHDBG@GensColorRed?$AA@
CONST	SEGMENT
??_C@_0N@GJKDHDBG@GensColorRed?$AA@ DB 'GensColorRed', 00H ; `string'
CONST	ENDS
;	COMDAT ??_C@_0BA@JLFAEIBB@GensColorEnable?$AA@
CONST	SEGMENT
??_C@_0BA@JLFAEIBB@GensColorEnable?$AA@ DB 'GensColorEnable', 00H ; `string'
CONST	ENDS
;	COMDAT ??_C@_0O@GEIEBGDA@AdminPostName?$AA@
CONST	SEGMENT
??_C@_0O@GEIEBGDA@AdminPostName?$AA@ DB 'AdminPostName', 00H ; `string'
CONST	ENDS
;	COMDAT ??_C@_03EBMOLPEO@?1gg?$AA@
CONST	SEGMENT
??_C@_03EBMOLPEO@?1gg?$AA@ DB '/gg', 00H		; `string'
CONST	ENDS
;	COMDAT ??_C@_09FDPGKJIB@MoneyType?$AA@
CONST	SEGMENT
??_C@_09FDPGKJIB@MoneyType?$AA@ DB 'MoneyType', 00H	; `string'
CONST	ENDS
;	COMDAT ??_C@_0M@LDFBDLDI@PostPCPoint?$AA@
CONST	SEGMENT
??_C@_0M@LDFBDLDI@PostPCPoint?$AA@ DB 'PostPCPoint', 00H ; `string'
CONST	ENDS
;	COMDAT ??_C@_0P@HABGNHDN@PkClearCredits?$AA@
CONST	SEGMENT
??_C@_0P@HABGNHDN@PkClearCredits?$AA@ DB 'PkClearCredits', 00H ; `string'
CONST	ENDS
;	COMDAT ??_C@_0M@OGBNAHMP@PKClearType?$AA@
CONST	SEGMENT
??_C@_0M@OGBNAHMP@PKClearType?$AA@ DB 'PKClearType', 00H ; `string'
CONST	ENDS
;	COMDAT ??_C@_0N@JGEOMKLM@PkClearMoney?$AA@
CONST	SEGMENT
??_C@_0N@JGEOMKLM@PkClearMoney?$AA@ DB 'PkClearMoney', 00H ; `string'
CONST	ENDS
;	COMDAT ??_C@_0N@LFLKJINM@PkClearLevel?$AA@
CONST	SEGMENT
??_C@_0N@LFLKJINM@PkClearLevel?$AA@ DB 'PkClearLevel', 00H ; `string'
CONST	ENDS
;	COMDAT ??_C@_07DOAOMMKG@Enabled?$AA@
CONST	SEGMENT
??_C@_07DOAOMMKG@Enabled?$AA@ DB 'Enabled', 00H		; `string'
CONST	ENDS
;	COMDAT ??_C@_0O@ICHAGEJN@AddPointLevel?$AA@
CONST	SEGMENT
??_C@_0O@ICHAGEJN@AddPointLevel?$AA@ DB 'AddPointLevel', 00H ; `string'
CONST	ENDS
;	COMDAT ??_C@_0M@FLIEHIPP@AddPriceZen?$AA@
CONST	SEGMENT
??_C@_0M@FLIEHIPP@AddPriceZen?$AA@ DB 'AddPriceZen', 00H ; `string'
CONST	ENDS
;	COMDAT ??_C@_0L@PJEJJPCD@PostServer?$AA@
CONST	SEGMENT
??_C@_0L@PJEJJPCD@PostServer?$AA@ DB 'PostServer', 00H	; `string'
CONST	ENDS
;	COMDAT ??_C@_09BPEAKGKL@PostDelay?$AA@
CONST	SEGMENT
??_C@_09BPEAKGKL@PostDelay?$AA@ DB 'PostDelay', 00H	; `string'
CONST	ENDS
;	COMDAT ??_C@_09KBJPHKHD@PostColor?$AA@
CONST	SEGMENT
??_C@_09KBJPHKHD@PostColor?$AA@ DB 'PostColor', 00H	; `string'
CONST	ENDS
;	COMDAT ??_C@_09MIBFFENF@PostPrist?$AA@
CONST	SEGMENT
??_C@_09MIBFFENF@PostPrist?$AA@ DB 'PostPrist', 00H	; `string'
CONST	ENDS
;	COMDAT ??_C@_07JMLJGMOM@?$FLpost?$FN?3?$AA@
CONST	SEGMENT
??_C@_07JMLJGMOM@?$FLpost?$FN?3?$AA@ DB '[post]:', 00H	; `string'
CONST	ENDS
;	COMDAT ??_C@_09NPPPIPJF@PostMoney?$AA@
CONST	SEGMENT
??_C@_09NPPPIPJF@PostMoney?$AA@ DB 'PostMoney', 00H	; `string'
CONST	ENDS
;	COMDAT ??_C@_09PMALNNPF@PostLevel?$AA@
CONST	SEGMENT
??_C@_09PMALNNPF@PostLevel?$AA@ DB 'PostLevel', 00H	; `string'
CONST	ENDS
;	COMDAT ??_C@_07MLKAJEJD@PkClear?$AA@
CONST	SEGMENT
??_C@_07MLKAJEJD@PkClear?$AA@ DB 'PkClear', 00H		; `string'
CONST	ENDS
;	COMDAT ??_C@_0M@MLICEIGI@PkClearName?$AA@
CONST	SEGMENT
??_C@_0M@MLICEIGI@PkClearName?$AA@ DB 'PkClearName', 00H ; `string'
CONST	ENDS
;	COMDAT ??_C@_08OLBJHFEG@?1pkclear?$AA@
CONST	SEGMENT
??_C@_08OLBJHFEG@?1pkclear?$AA@ DB '/pkclear', 00H	; `string'
CONST	ENDS
;	COMDAT ??_C@_07HIBHDECO@CmdName?$AA@
CONST	SEGMENT
??_C@_07HIBHDECO@CmdName?$AA@ DB 'CmdName', 00H		; `string'
CONST	ENDS
;	COMDAT ??_C@_04BCEBBOAK@?1cmd?$AA@
CONST	SEGMENT
??_C@_04BCEBBOAK@?1cmd?$AA@ DB '/cmd', 00H		; `string'
CONST	ENDS
;	COMDAT ??_C@_07EEMMPEJB@EneName?$AA@
CONST	SEGMENT
??_C@_07EEMMPEJB@EneName?$AA@ DB 'EneName', 00H		; `string'
CONST	ENDS
;	COMDAT ??_C@_04CMHHMOMO@?1ene?$AA@
CONST	SEGMENT
??_C@_04CMHHMOMO@?1ene?$AA@ DB '/ene', 00H		; `string'
CONST	ENDS
;	COMDAT ??_C@_07LLNFCNOJ@VitName?$AA@
CONST	SEGMENT
??_C@_07LLNFCNOJ@VitName?$AA@ DB 'VitName', 00H		; `string'
CONST	ENDS
;	COMDAT ??_C@_04DIENADCK@?1vit?$AA@
CONST	SEGMENT
??_C@_04DIENADCK@?1vit?$AA@ DB '/vit', 00H		; `string'
CONST	ENDS
;	COMDAT ??_C@_07CCNMHPMD@AgiName?$AA@
CONST	SEGMENT
??_C@_07CCNMHPMD@AgiName?$AA@ DB 'AgiName', 00H		; `string'
CONST	ENDS
;	COMDAT ??_C@_04HBCNBK@?1agi?$AA@
CONST	SEGMENT
??_C@_04HBCNBK@?1agi?$AA@ DB '/agi', 00H		; `string'
CONST	ENDS
;	COMDAT ??_C@_0L@JFFLHCAL@AddCommand?$AA@
CONST	SEGMENT
??_C@_0L@JFFLHCAL@AddCommand?$AA@ DB 'AddCommand', 00H	; `string'
CONST	ENDS
;	COMDAT ??_C@_07CDGFDNJO@StrName?$AA@
CONST	SEGMENT
??_C@_07CDGFDNJO@StrName?$AA@ DB 'StrName', 00H		; `string'
CONST	ENDS
;	COMDAT ??_C@_04ENDHGELN@?1str?$AA@
CONST	SEGMENT
??_C@_04ENDHGELN@?1str?$AA@ DB '/str', 00H		; `string'
CONST	ENDS
;	COMDAT ??_C@_04HPGPEKIH@Post?$AA@
CONST	SEGMENT
??_C@_04HPGPEKIH@Post?$AA@ DB 'Post', 00H		; `string'
CONST	ENDS
;	COMDAT ??_C@_08BDIACMIO@PostName?$AA@
CONST	SEGMENT
??_C@_08BDIACMIO@PostName?$AA@ DB 'PostName', 00H	; `string'
CONST	ENDS
;	COMDAT ??_C@_05DPLEIENO@?1post?$AA@
CONST	SEGMENT
??_C@_05DPLEIENO@?1post?$AA@ DB '/post', 00H		; `string'
CONST	ENDS
;	COMDAT ??_C@_0BM@NADNCLMP@?4?4?2Data?2ExData?2Commands?4ini?$AA@
CONST	SEGMENT
??_C@_0BM@NADNCLMP@?4?4?2Data?2ExData?2Commands?4ini?$AA@ DB '..\Data\ExD'
	DB	'ata\Commands.ini', 00H			; `string'
CONST	ENDS
;	COMDAT ??_C@_0BD@NGDMFPLJ@RFPvPAttackRateDiv?$AA@
CONST	SEGMENT
??_C@_0BD@NGDMFPLJ@RFPvPAttackRateDiv?$AA@ DB 'RFPvPAttackRateDiv', 00H ; `string'
CONST	ENDS
;	COMDAT ??_C@_0BF@GKCEFGDC@RFPvPAttackRateFact2?$AA@
CONST	SEGMENT
??_C@_0BF@GKCEFGDC@RFPvPAttackRateFact2?$AA@ DB 'RFPvPAttackRateFact2', 00H ; `string'
CONST	ENDS
;	COMDAT ??_C@_0BF@EBAJAFPB@RFPvPAttackRateFact1?$AA@
CONST	SEGMENT
??_C@_0BF@EBAJAFPB@RFPvPAttackRateFact1?$AA@ DB 'RFPvPAttackRateFact1', 00H ; `string'
CONST	ENDS
;	COMDAT ??_C@_0BD@MFPLFOJL@SUPvPAttackRateDiv?$AA@
CONST	SEGMENT
??_C@_0BD@MFPLFOJL@SUPvPAttackRateDiv?$AA@ DB 'SUPvPAttackRateDiv', 00H ; `string'
CONST	ENDS
;	COMDAT ??_C@_0BF@LKJBDDED@SUPvPAttackRateFact2?$AA@
CONST	SEGMENT
??_C@_0BF@LKJBDDED@SUPvPAttackRateFact2?$AA@ DB 'SUPvPAttackRateFact2', 00H ; `string'
CONST	ENDS
;	COMDAT ??_C@_0BF@JBLMGAIA@SUPvPAttackRateFact1?$AA@
CONST	SEGMENT
??_C@_0BF@JBLMGAIA@SUPvPAttackRateFact1?$AA@ DB 'SUPvPAttackRateFact1', 00H ; `string'
CONST	ENDS
;	COMDAT ??_C@_0BF@IAOIOBCG@DLPvPAttackRateFact2?$AA@
CONST	SEGMENT
??_C@_0BF@IAOIOBCG@DLPvPAttackRateFact2?$AA@ DB 'DLPvPAttackRateFact2', 00H ; `string'
CONST	ENDS
;	COMDAT ??_C@_0BF@KLMFLCOF@DLPvPAttackRateFact1?$AA@
CONST	SEGMENT
??_C@_0BF@KLMFLCOF@DLPvPAttackRateFact1?$AA@ DB 'DLPvPAttackRateFact1', 00H ; `string'
CONST	ENDS
;	COMDAT ??_C@_0BD@GJLDEEJM@MGPvPAttackRateDiv?$AA@
CONST	SEGMENT
??_C@_0BD@GJLDEEJM@MGPvPAttackRateDiv?$AA@ DB 'MGPvPAttackRateDiv', 00H ; `string'
CONST	ENDS
;	COMDAT ??_C@_0BF@ILCPALG@MGPvPAttackRateFact2?$AA@
CONST	SEGMENT
??_C@_0BF@ILCPALG@MGPvPAttackRateFact2?$AA@ DB 'MGPvPAttackRateFact2', 00H ; `string'
CONST	ENDS
;	COMDAT ??_C@_0BF@CDJPKDHF@MGPvPAttackRateFact1?$AA@
CONST	SEGMENT
??_C@_0BF@CDJPKDHF@MGPvPAttackRateFact1?$AA@ DB 'MGPvPAttackRateFact1', 00H ; `string'
CONST	ENDS
;	COMDAT ??_C@_0BD@GFMGDCJK@EEPvPAttackRateDiv?$AA@
CONST	SEGMENT
??_C@_0BD@GFMGDCJK@EEPvPAttackRateDiv?$AA@ DB 'EEPvPAttackRateDiv', 00H ; `string'
CONST	ENDS
;	COMDAT ??_C@_0BF@OHIOIPEM@EEPvPAttackRateFact2?$AA@
CONST	SEGMENT
??_C@_0BF@OHIOIPEM@EEPvPAttackRateFact2?$AA@ DB 'EEPvPAttackRateFact2', 00H ; `string'
CONST	ENDS
;	COMDAT ??_C@_0BF@MMKDNMIP@EEPvPAttackRateFact1?$AA@
CONST	SEGMENT
??_C@_0BF@MMKDNMIP@EEPvPAttackRateFact1?$AA@ DB 'EEPvPAttackRateFact1', 00H ; `string'
CONST	ENDS
;	COMDAT ??_C@_0BF@FCFMNBHL@DWPvPAttackRateFact2?$AA@
CONST	SEGMENT
??_C@_0BF@FCFMNBHL@DWPvPAttackRateFact2?$AA@ DB 'DWPvPAttackRateFact2', 00H ; `string'
CONST	ENDS
;	COMDAT ??_C@_0BF@HJHBICLI@DWPvPAttackRateFact1?$AA@
CONST	SEGMENT
??_C@_0BF@HJHBICLI@DWPvPAttackRateFact1?$AA@ DB 'DWPvPAttackRateFact1', 00H ; `string'
CONST	ENDS
;	COMDAT ??_C@_0BD@KLAJKAEL@DKPvPAttackRateDiv?$AA@
CONST	SEGMENT
??_C@_0BD@KLAJKAEL@DKPvPAttackRateDiv?$AA@ DB 'DKPvPAttackRateDiv', 00H ; `string'
CONST	ENDS
;	COMDAT ??_C@_0BF@GBKMEHLF@DKPvPAttackRateFact2?$AA@
CONST	SEGMENT
??_C@_0BF@GBKMEHLF@DKPvPAttackRateFact2?$AA@ DB 'DKPvPAttackRateFact2', 00H ; `string'
CONST	ENDS
;	COMDAT ??_C@_0BF@EKIBBEHG@DKPvPAttackRateFact1?$AA@
CONST	SEGMENT
??_C@_0BF@EKIBBEHG@DKPvPAttackRateFact1?$AA@ DB 'DKPvPAttackRateFact1', 00H ; `string'
CONST	ENDS
;	COMDAT ??_C@_0BF@FALIENJF@CWElfAlterDMGPercent?$AA@
CONST	SEGMENT
??_C@_0BF@FALIENJF@CWElfAlterDMGPercent?$AA@ DB 'CWElfAlterDMGPercent', 00H ; `string'
CONST	ENDS
;	COMDAT ??_C@_0P@NCKHGKEG@BerserkAddMana?$AA@
CONST	SEGMENT
??_C@_0P@NCKHGKEG@BerserkAddMana?$AA@ DB 'BerserkAddMana', 00H ; `string'
CONST	ENDS
;	COMDAT ??_C@_0BF@NLHHHFNI@DLSkillDMGPercentMax?$AA@
CONST	SEGMENT
??_C@_0BF@NLHHHFNI@DLSkillDMGPercentMax?$AA@ DB 'DLSkillDMGPercentMax', 00H ; `string'
CONST	ENDS
;	COMDAT ??_C@_0BF@DKDDNDEL@DKSkillDMGPercentMax?$AA@
CONST	SEGMENT
??_C@_0BF@DKDDNDEL@DKSkillDMGPercentMax?$AA@ DB 'DKSkillDMGPercentMax', 00H ; `string'
CONST	ENDS
;	COMDAT ??_C@_0BC@BAEFKHHM@DamageMax_VitLeft?$AA@
CONST	SEGMENT
??_C@_0BC@BAEFKHHM@DamageMax_VitLeft?$AA@ DB 'DamageMax_VitLeft', 00H ; `string'
CONST	ENDS
;	COMDAT ??_C@_0BC@IADGLHJG@DamageMin_VitLeft?$AA@
CONST	SEGMENT
??_C@_0BC@IADGLHJG@DamageMin_VitLeft?$AA@ DB 'DamageMin_VitLeft', 00H ; `string'
CONST	ENDS
;	COMDAT ??_C@_0BD@EDFMHHNJ@DamageMax_VitRight?$AA@
CONST	SEGMENT
??_C@_0BD@EDFMHHNJ@DamageMax_VitRight?$AA@ DB 'DamageMax_VitRight', 00H ; `string'
CONST	ENDS
;	COMDAT ??_C@_0M@BKNIILFP@RageFighter?$AA@
CONST	SEGMENT
??_C@_0M@BKNIILFP@RageFighter?$AA@ DB 'RageFighter', 00H ; `string'
CONST	ENDS
;	COMDAT ??_C@_0BD@DBDAPKP@DamageMin_VitRight?$AA@
CONST	SEGMENT
??_C@_0BD@DBDAPKP@DamageMin_VitRight?$AA@ DB 'DamageMin_VitRight', 00H ; `string'
CONST	ENDS
;	COMDAT ??_C@_07PEDPFCGC@Defense?$AA@
CONST	SEGMENT
??_C@_07PEDPFCGC@Defense?$AA@ DB 'Defense', 00H		; `string'
CONST	ENDS
;	COMDAT ??_C@_0BD@OCEADDEC@SuccessfulBlocking?$AA@
CONST	SEGMENT
??_C@_0BD@OCEADDEC@SuccessfulBlocking?$AA@ DB 'SuccessfulBlocking', 00H ; `string'
CONST	ENDS
;	COMDAT ??_C@_0P@CLAFNACP@MagicDamageMin?$AA@
CONST	SEGMENT
??_C@_0P@CLAFNACP@MagicDamageMin?$AA@ DB 'MagicDamageMin', 00H ; `string'
CONST	ENDS
;	COMDAT ??_C@_0P@DJIODEEA@MagicDamageMax?$AA@
CONST	SEGMENT
??_C@_0P@DJIODEEA@MagicDamageMax?$AA@ DB 'MagicDamageMax', 00H ; `string'
CONST	ENDS
;	COMDAT ??_C@_09PCICNBOE@Dark_Lord?$AA@
CONST	SEGMENT
??_C@_09PCICNBOE@Dark_Lord?$AA@ DB 'Dark_Lord', 00H	; `string'
CONST	ENDS
;	COMDAT ??_C@_0M@CJAMKEGP@Dark_Wizard?$AA@
CONST	SEGMENT
??_C@_0M@CJAMKEGP@Dark_Wizard?$AA@ DB 'Dark_Wizard', 00H ; `string'
CONST	ENDS
;	COMDAT ??_C@_08HLBMEKKE@Summoner?$AA@
CONST	SEGMENT
??_C@_08HLBMEKKE@Summoner?$AA@ DB 'Summoner', 00H	; `string'
CONST	ENDS
;	COMDAT ??_C@_0BC@HPCPGOOO@DamageMin_EneLeft?$AA@
CONST	SEGMENT
??_C@_0BC@HPCPGOOO@DamageMin_EneLeft?$AA@ DB 'DamageMin_EneLeft', 00H ; `string'
CONST	ENDS
;	COMDAT ??_C@_0BC@OPFMHOAE@DamageMax_EneLeft?$AA@
CONST	SEGMENT
??_C@_0BC@OPFMHOAE@DamageMax_EneLeft?$AA@ DB 'DamageMax_EneLeft', 00H ; `string'
CONST	ENDS
;	COMDAT ??_C@_0BD@FNDCOPHI@DamageMin_EneRight?$AA@
CONST	SEGMENT
??_C@_0BD@FNDCOPHI@DamageMin_EneRight?$AA@ DB 'DamageMin_EneRight', 00H ; `string'
CONST	ENDS
;	COMDAT ??_C@_0BD@BNHNJHAO@DamageMax_EneRight?$AA@
CONST	SEGMENT
??_C@_0BD@BNHNJHAO@DamageMax_EneRight?$AA@ DB 'DamageMax_EneRight', 00H ; `string'
CONST	ENDS
;	COMDAT ??_C@_0BA@IPLGPKDA@Magic_Gladiator?$AA@
CONST	SEGMENT
??_C@_0BA@IPLGPKDA@Magic_Gladiator?$AA@ DB 'Magic_Gladiator', 00H ; `string'
CONST	ENDS
;	COMDAT ??_C@_0BC@BIIGKHOB@DamageMin_StrLeft?$AA@
CONST	SEGMENT
??_C@_0BC@BIIGKHOB@DamageMin_StrLeft?$AA@ DB 'DamageMin_StrLeft', 00H ; `string'
CONST	ENDS
;	COMDAT ??_C@_0BC@IIPFLHAL@DamageMax_StrLeft?$AA@
CONST	SEGMENT
??_C@_0BC@IIPFLHAL@DamageMax_StrLeft?$AA@ DB 'DamageMax_StrLeft', 00H ; `string'
CONST	ENDS
;	COMDAT ??_C@_0BD@MNOKFLCA@DamageMin_StrRight?$AA@
CONST	SEGMENT
??_C@_0BD@MNOKFLCA@DamageMin_StrRight?$AA@ DB 'DamageMin_StrRight', 00H ; `string'
CONST	ENDS
;	COMDAT ??_C@_0M@MNCPOEBE@Dark_Knight?$AA@
CONST	SEGMENT
??_C@_0M@MNCPOEBE@Dark_Knight?$AA@ DB 'Dark_Knight', 00H ; `string'
CONST	ENDS
;	COMDAT ??_C@_0BD@INKFCDFG@DamageMax_StrRight?$AA@
CONST	SEGMENT
??_C@_0BD@INKFCDFG@DamageMax_StrRight?$AA@ DB 'DamageMax_StrRight', 00H ; `string'
CONST	ENDS
;	COMDAT ??_C@_0BF@PBOHAMNC@DamageMin_DexStrLeft?$AA@
CONST	SEGMENT
??_C@_0BF@PBOHAMNC@DamageMin_DexStrLeft?$AA@ DB 'DamageMin_DexStrLeft', 00H ; `string'
CONST	ENDS
;	COMDAT ??_C@_0BF@NGFMGLOD@DamageMax_DexStrLeft?$AA@
CONST	SEGMENT
??_C@_0BF@NGFMGLOD@DamageMax_DexStrLeft?$AA@ DB 'DamageMax_DexStrLeft', 00H ; `string'
CONST	ENDS
;	COMDAT ??_C@_0BG@HCNDFLJN@DamageMin_DexStrRight?$AA@
CONST	SEGMENT
??_C@_0BG@HCNDFLJN@DamageMin_DexStrRight?$AA@ DB 'DamageMin_DexStrRight', 00H ; `string'
CONST	ENDS
;	COMDAT ??_C@_0BG@CDCKOAMA@DamageMax_DexStrRight?$AA@
CONST	SEGMENT
??_C@_0BG@CDCKOAMA@DamageMax_DexStrRight?$AA@ DB 'DamageMax_DexStrRight', 00H ; `string'
CONST	ENDS
;	COMDAT ??_C@_0BI@MAMADLME@DamageMin_NoBow_DexLeft?$AA@
CONST	SEGMENT
??_C@_0BI@MAMADLME@DamageMin_NoBow_DexLeft?$AA@ DB 'DamageMin_NoBow_DexLe'
	DB	'ft', 00H					; `string'
CONST	ENDS
;	COMDAT ??_C@_0BI@NGIMLHOK@DamageMin_NoBow_StrLeft?$AA@
CONST	SEGMENT
??_C@_0BI@NGIMLHOK@DamageMin_NoBow_StrLeft?$AA@ DB 'DamageMin_NoBow_StrLe'
	DB	'ft', 00H					; `string'
CONST	ENDS
;	COMDAT ??_C@_0BI@JDGGCDCA@DamageMax_NoBow_DexLeft?$AA@
CONST	SEGMENT
??_C@_0BI@JDGGCDCA@DamageMax_NoBow_DexLeft?$AA@ DB 'DamageMax_NoBow_DexLe'
	DB	'ft', 00H					; `string'
CONST	ENDS
;	COMDAT ??_C@_0BI@IFCKKPAO@DamageMax_NoBow_StrLeft?$AA@
CONST	SEGMENT
??_C@_0BI@IFCKKPAO@DamageMax_NoBow_StrLeft?$AA@ DB 'DamageMax_NoBow_StrLe'
	DB	'ft', 00H					; `string'
CONST	ENDS
;	COMDAT ??_C@_0BJ@IGDGMJPL@DamageMin_NoBow_DexRight?$AA@
CONST	SEGMENT
??_C@_0BJ@IGDGMJPL@DamageMin_NoBow_DexRight?$AA@ DB 'DamageMin_NoBow_DexR'
	DB	'ight', 00H					; `string'
CONST	ENDS
;	COMDAT ??_C@_0BJ@FKPGIILI@DamageMin_NoBow_StrRight?$AA@
CONST	SEGMENT
??_C@_0BJ@FKPGIILI@DamageMin_NoBow_StrRight?$AA@ DB 'DamageMin_NoBow_StrR'
	DB	'ight', 00H					; `string'
CONST	ENDS
;	COMDAT ??_C@_0BJ@CBACEJIC@DamageMax_NoBow_DexRight?$AA@
CONST	SEGMENT
??_C@_0BJ@CBACEJIC@DamageMax_NoBow_DexRight?$AA@ DB 'DamageMax_NoBow_DexR'
	DB	'ight', 00H					; `string'
CONST	ENDS
;	COMDAT ??_C@_0BJ@PNMCAIMB@DamageMax_NoBow_StrRight?$AA@
CONST	SEGMENT
??_C@_0BJ@PNMCAIMB@DamageMax_NoBow_StrRight?$AA@ DB 'DamageMax_NoBow_StrR'
	DB	'ight', 00H					; `string'
CONST	ENDS
;	COMDAT ??_C@_0BJ@CNDLEJGO@DamageMin_Bow_StrDexLeft?$AA@
CONST	SEGMENT
??_C@_0BJ@CNDLEJGO@DamageMin_Bow_StrDexLeft?$AA@ DB 'DamageMin_Bow_StrDex'
	DB	'Left', 00H					; `string'
CONST	ENDS
;	COMDAT ??_C@_0BJ@IKAPMJBH@DamageMax_Bow_StrDexLeft?$AA@
CONST	SEGMENT
??_C@_0BJ@IKAPMJBH@DamageMax_Bow_StrDexLeft?$AA@ DB 'DamageMax_Bow_StrDex'
	DB	'Left', 00H					; `string'
CONST	ENDS
;	COMDAT ??_C@_0BK@LANIHIHP@DamageMin_Bow_StrDexRight?$AA@
CONST	SEGMENT
??_C@_0BK@LANIHIHP@DamageMin_Bow_StrDexRight?$AA@ DB 'DamageMin_Bow_StrDe'
	DB	'xRight', 00H				; `string'
CONST	ENDS
;	COMDAT ??_C@_09DIFEFNGC@Fairy_Elf?$AA@
CONST	SEGMENT
??_C@_09DIFEFNGC@Fairy_Elf?$AA@ DB 'Fairy_Elf', 00H	; `string'
CONST	ENDS
;	COMDAT ??_C@_0BK@JJKGIFGH@DamageMax_Bow_StrDexRight?$AA@
CONST	SEGMENT
??_C@_0BK@JJKGIFGH@DamageMax_Bow_StrDexRight?$AA@ DB 'DamageMax_Bow_StrDe'
	DB	'xRight', 00H				; `string'
CONST	ENDS
;	COMDAT ??_C@_0BK@FKMBAABH@SoulBarrierAttackManaDown?$AA@
CONST	SEGMENT
??_C@_0BK@FKMBAABH@SoulBarrierAttackManaDown?$AA@ DB 'SoulBarrierAttackMa'
	DB	'naDown', 00H				; `string'
CONST	ENDS
;	COMDAT ??_C@_0BD@ILDLACFI@ComboDamagePercent?$AA@
CONST	SEGMENT
??_C@_0BD@ILDLACFI@ComboDamagePercent?$AA@ DB 'ComboDamagePercent', 00H ; `string'
CONST	ENDS
;	COMDAT ??_C@_0BB@FNNJAMED@ReflectToReflect?$AA@
CONST	SEGMENT
??_C@_0BB@FNNJAMED@ReflectToReflect?$AA@ DB 'ReflectToReflect', 00H ; `string'
CONST	ENDS
;	COMDAT ??_C@_0BH@KAHNGFMD@CastleDamageByAlliance?$AA@
CONST	SEGMENT
??_C@_0BH@KAHNGFMD@CastleDamageByAlliance?$AA@ DB 'CastleDamageByAlliance'
	DB	00H						; `string'
CONST	ENDS
;	COMDAT ??_C@_08KHNFHHOB@MaxStats?$AA@
CONST	SEGMENT
??_C@_08KHNFHHOB@MaxStats?$AA@ DB 'MaxStats', 00H	; `string'
CONST	ENDS
;	COMDAT ??_C@_0BI@IPAIFD@PetCastleAttackByPlayer?$AA@
CONST	SEGMENT
??_C@_0BI@IPAIFD@PetCastleAttackByPlayer?$AA@ DB 'PetCastleAttackByPlayer'
	DB	00H						; `string'
CONST	ENDS
;	COMDAT ??_C@_0BF@DMHPGJA@PetCastleAttackByNPC?$AA@
CONST	SEGMENT
??_C@_0BF@DMHPGJA@PetCastleAttackByNPC?$AA@ DB 'PetCastleAttackByNPC', 00H ; `string'
CONST	ENDS
;	COMDAT ??_C@_0BF@JAHKLENK@CastleAttackByPlayer?$AA@
CONST	SEGMENT
??_C@_0BF@JAHKLENK@CastleAttackByPlayer?$AA@ DB 'CastleAttackByPlayer', 00H ; `string'
CONST	ENDS
;	COMDAT ??_C@_0BC@PPFCPJN@CastleAttackByNPC?$AA@
CONST	SEGMENT
??_C@_0BC@PPFCPJN@CastleAttackByNPC?$AA@ DB 'CastleAttackByNPC', 00H ; `string'
CONST	ENDS
;	COMDAT ??_C@_0BH@OHMFFPBI@CastleSiegeSkillEnable?$AA@
CONST	SEGMENT
??_C@_0BH@OHMFFPBI@CastleSiegeSkillEnable?$AA@ DB 'CastleSiegeSkillEnable'
	DB	00H						; `string'
CONST	ENDS
;	COMDAT ??_C@_06POMJKEPM@Common?$AA@
CONST	SEGMENT
??_C@_06POMJKEPM@Common?$AA@ DB 'Common', 00H		; `string'
CONST	ENDS
;	COMDAT ??_C@_09MINFMDAF@NeedArrow?$AA@
CONST	SEGMENT
??_C@_09MINFMDAF@NeedArrow?$AA@ DB 'NeedArrow', 00H	; `string'
CONST	ENDS
;	COMDAT ??_C@_0BN@HKLOFEFB@?4?4?2Data?2ExData?2Character?4ini?$AA@
CONST	SEGMENT
??_C@_0BN@HKLOFEFB@?4?4?2Data?2ExData?2Character?4ini?$AA@ DB '..\Data\Ex'
	DB	'Data\Character.ini', 00H			; `string'
CONST	ENDS
;	COMDAT ??_C@_0N@LLPFBELB@ExpPartyPlus?$AA@
CONST	SEGMENT
??_C@_0N@LLPFBELB@ExpPartyPlus?$AA@ DB 'ExpPartyPlus', 00H ; `string'
CONST	ENDS
;	COMDAT ??_C@_0BB@HCCLEKCI@AllianceMaxGuild?$AA@
CONST	SEGMENT
??_C@_0BB@HCCLEKCI@AllianceMaxGuild?$AA@ DB 'AllianceMaxGuild', 00H ; `string'
CONST	ENDS
;	COMDAT ??_C@_0N@MPBFAGDG@GuildMaxUser?$AA@
CONST	SEGMENT
??_C@_0N@MPBFAGDG@GuildMaxUser?$AA@ DB 'GuildMaxUser', 00H ; `string'
CONST	ENDS
;	COMDAT ??_C@_0BD@KBAOACND@BloodCastleMaxUser?$AA@
CONST	SEGMENT
??_C@_0BD@KBAOACND@BloodCastleMaxUser?$AA@ DB 'BloodCastleMaxUser', 00H ; `string'
CONST	ENDS
;	COMDAT ??_C@_0BE@OMLJFHBO@CheckOtherGuildLand?$AA@
CONST	SEGMENT
??_C@_0BE@OMLJFHBO@CheckOtherGuildLand?$AA@ DB 'CheckOtherGuildLand', 00H ; `string'
CONST	ENDS
;	COMDAT ??_C@_0P@NBNCCEMG@MarlonTeleport?$AA@
CONST	SEGMENT
??_C@_0P@NBNCCEMG@MarlonTeleport?$AA@ DB 'MarlonTeleport', 00H ; `string'
CONST	ENDS
;	COMDAT ??_C@_0M@KFFOANIE@PotionDelay?$AA@
CONST	SEGMENT
??_C@_0M@KFFOANIE@PotionDelay?$AA@ DB 'PotionDelay', 00H ; `string'
CONST	ENDS
;	COMDAT ??_C@_0BH@PCNOGLEL@NoobBuffDefencePercent?$AA@
CONST	SEGMENT
??_C@_0BH@PCNOGLEL@NoobBuffDefencePercent?$AA@ DB 'NoobBuffDefencePercent'
	DB	00H						; `string'
CONST	ENDS
;	COMDAT ??_C@_0BG@IIMIEODH@NoobBuffDamagePercent?$AA@
CONST	SEGMENT
??_C@_0BG@IIMIEODH@NoobBuffDamagePercent?$AA@ DB 'NoobBuffDamagePercent', 00H ; `string'
CONST	ENDS
;	COMDAT ??_C@_0BB@GDDGHPJM@NoobBuffMaxReset?$AA@
CONST	SEGMENT
??_C@_0BB@GDDGHPJM@NoobBuffMaxReset?$AA@ DB 'NoobBuffMaxReset', 00H ; `string'
CONST	ENDS
;	COMDAT ??_C@_0P@NHEJBOPE@NoobBuffEnable?$AA@
CONST	SEGMENT
??_C@_0P@NHEJBOPE@NoobBuffEnable?$AA@ DB 'NoobBuffEnable', 00H ; `string'
CONST	ENDS
;	COMDAT ??_C@_0P@DALCDAPN@PercentKillZen?$AA@
CONST	SEGMENT
??_C@_0P@DALCDAPN@PercentKillZen?$AA@ DB 'PercentKillZen', 00H ; `string'
CONST	ENDS
;	COMDAT ??_C@_0M@DCDMAILA@ExlDropRate?$AA@
CONST	SEGMENT
??_C@_0M@DCDMAILA@ExlDropRate?$AA@ DB 'ExlDropRate', 00H ; `string'
CONST	ENDS
;	COMDAT ??_C@_09HEEKJFKJ@ReConnect?$AA@
CONST	SEGMENT
??_C@_09HEEKJFKJ@ReConnect?$AA@ DB 'ReConnect', 00H	; `string'
CONST	ENDS
;	COMDAT ??_C@_09BMIDEEAO@ArenaItem?$AA@
CONST	SEGMENT
??_C@_09BMIDEEAO@ArenaItem?$AA@ DB 'ArenaItem', 00H	; `string'
CONST	ENDS
;	COMDAT ??_C@_0BB@MCHIAFN@CommandSetLeader?$AA@
CONST	SEGMENT
??_C@_0BB@MCHIAFN@CommandSetLeader?$AA@ DB 'CommandSetLeader', 00H ; `string'
CONST	ENDS
;	COMDAT ??_C@_0O@EFBFEMGF@AutoSetLeader?$AA@
CONST	SEGMENT
??_C@_0O@EFBFEMGF@AutoSetLeader?$AA@ DB 'AutoSetLeader', 00H ; `string'
CONST	ENDS
;	COMDAT ??_C@_0M@IOKCPMBJ@RePartyTime?$AA@
CONST	SEGMENT
??_C@_0M@IOKCPMBJ@RePartyTime?$AA@ DB 'RePartyTime', 00H ; `string'
CONST	ENDS
;	COMDAT ??_C@_0O@PCMHEGFB@RePartyEnable?$AA@
CONST	SEGMENT
??_C@_0O@PCMHEGFB@RePartyEnable?$AA@ DB 'RePartyEnable', 00H ; `string'
CONST	ENDS
;	COMDAT ??_C@_0BE@CFNMLIBO@CountItemDropErohim?$AA@
CONST	SEGMENT
??_C@_0BE@CFNMLIBO@CountItemDropErohim?$AA@ DB 'CountItemDropErohim', 00H ; `string'
CONST	ENDS
;	COMDAT ??_C@_0BE@CBEBGMCE@CountItemDropKundun?$AA@
CONST	SEGMENT
??_C@_0BE@CBEBGMCE@CountItemDropKundun?$AA@ DB 'CountItemDropKundun', 00H ; `string'
CONST	ENDS
;	COMDAT ??_C@_0BF@CDBGPNPC@CountItemDropSelupan?$AA@
CONST	SEGMENT
??_C@_0BF@CDBGPNPC@CountItemDropSelupan?$AA@ DB 'CountItemDropSelupan', 00H ; `string'
CONST	ENDS
;	COMDAT ??_C@_0P@FPJLLCEA@ProcentDropZen?$AA@
CONST	SEGMENT
??_C@_0P@FPJLLCEA@ProcentDropZen?$AA@ DB 'ProcentDropZen', 00H ; `string'
CONST	ENDS
;	COMDAT ??_C@_0L@DLHIOEAJ@MaxDropZen?$AA@
CONST	SEGMENT
??_C@_0L@DLHIOEAJ@MaxDropZen?$AA@ DB 'MaxDropZen', 00H	; `string'
CONST	ENDS
;	COMDAT ??_C@_0BB@OHNOBAOE@MarlonQuestReset?$AA@
CONST	SEGMENT
??_C@_0BB@OHNOBAOE@MarlonQuestReset?$AA@ DB 'MarlonQuestReset', 00H ; `string'
CONST	ENDS
;	COMDAT ??_C@_0BC@JONOACBC@DisatanceObjViewe?$AA@
CONST	SEGMENT
??_C@_0BC@JONOACBC@DisatanceObjViewe?$AA@ DB 'DisatanceObjViewe', 00H ; `string'
CONST	ENDS
;	COMDAT ??_C@_0O@JCJOCALP@KundunAncDrop?$AA@
CONST	SEGMENT
??_C@_0O@JCJOCALP@KundunAncDrop?$AA@ DB 'KundunAncDrop', 00H ; `string'
CONST	ENDS
;	COMDAT ??_C@_05LICMIJMM@Guard?$AA@
CONST	SEGMENT
??_C@_05LICMIJMM@Guard?$AA@ DB 'Guard', 00H		; `string'
CONST	ENDS
;	COMDAT ??_C@_0N@GAKPJHLA@GuardMessage?$AA@
CONST	SEGMENT
??_C@_0N@GAKPJHLA@GuardMessage?$AA@ DB 'GuardMessage', 00H ; `string'
CONST	ENDS
;	COMDAT ??_C@_0BE@CDCKDDPK@Welcome?5to?5Ex?9Games?$AA@
CONST	SEGMENT
??_C@_0BE@CDCKDDPK@Welcome?5to?5Ex?9Games?$AA@ DB 'Welcome to Ex-Games', 00H ; `string'
CONST	ENDS
;	COMDAT ??_C@_0O@DIFEKECK@MasterDropZen?$AA@
CONST	SEGMENT
??_C@_0O@DIFEKECK@MasterDropZen?$AA@ DB 'MasterDropZen', 00H ; `string'
CONST	ENDS
;	COMDAT ??_C@_0BE@EJDHFDGH@Wing5MaxSuccessRate?$AA@
CONST	SEGMENT
??_C@_0BE@EJDHFDGH@Wing5MaxSuccessRate?$AA@ DB 'Wing5MaxSuccessRate', 00H ; `string'
CONST	ENDS
;	COMDAT ??_C@_0BE@OHFPMCPG@Wing4MaxSuccessRate?$AA@
CONST	SEGMENT
??_C@_0BE@OHFPMCPG@Wing4MaxSuccessRate?$AA@ DB 'Wing4MaxSuccessRate', 00H ; `string'
CONST	ENDS
;	COMDAT ??_C@_0BG@PAGEHNCK@Wing2_5MaxSuccessRate?$AA@
CONST	SEGMENT
??_C@_0BG@PAGEHNCK@Wing2_5MaxSuccessRate?$AA@ DB 'Wing2_5MaxSuccessRate', 00H ; `string'
CONST	ENDS
;	COMDAT ??_C@_0BA@EJDEHLBF@DinorantMixRate?$AA@
CONST	SEGMENT
??_C@_0BA@EJDEHLBF@DinorantMixRate?$AA@ DB 'DinorantMixRate', 00H ; `string'
CONST	ENDS
;	COMDAT ??_C@_0BF@PLBFDKPB@WingLv3MixMaxPercent?$AA@
CONST	SEGMENT
??_C@_0BF@PLBFDKPB@WingLv3MixMaxPercent?$AA@ DB 'WingLv3MixMaxPercent', 00H ; `string'
CONST	ENDS
;	COMDAT ??_C@_0BN@HCIIKEKG@FeatherofCondorMixMaxPercent?$AA@
CONST	SEGMENT
??_C@_0BN@HCIIKEKG@FeatherofCondorMixMaxPercent?$AA@ DB 'FeatherofCondorM'
	DB	'ixMaxPercent', 00H				; `string'
CONST	ENDS
;	COMDAT ??_C@_0BJ@GACBIDHJ@DarkSpiritMixSuccessRate?$AA@
CONST	SEGMENT
??_C@_0BJ@GACBIDHJ@DarkSpiritMixSuccessRate?$AA@ DB 'DarkSpiritMixSuccess'
	DB	'Rate', 00H					; `string'
CONST	ENDS
;	COMDAT ??_C@_0BI@GCJANFMA@DarkHorseMixSuccessRate?$AA@
CONST	SEGMENT
??_C@_0BI@GCJANFMA@DarkHorseMixSuccessRate?$AA@ DB 'DarkHorseMixSuccessRa'
	DB	'te', 00H					; `string'
CONST	ENDS
;	COMDAT ??_C@_0BE@LEMOKLBC@Wing2MaxSuccessRate?$AA@
CONST	SEGMENT
??_C@_0BE@LEMOKLBC@Wing2MaxSuccessRate?$AA@ DB 'Wing2MaxSuccessRate', 00H ; `string'
CONST	ENDS
;	COMDAT ??_C@_0BC@HBJMIEIB@MixMaxSuccessRate?$AA@
CONST	SEGMENT
??_C@_0BC@HBJMIEIB@MixMaxSuccessRate?$AA@ DB 'MixMaxSuccessRate', 00H ; `string'
CONST	ENDS
;	COMDAT ??_C@_0BC@OMCNANPE@MixLuckOptRateAdd?$AA@
CONST	SEGMENT
??_C@_0BC@OMCNANPE@MixLuckOptRateAdd?$AA@ DB 'MixLuckOptRateAdd', 00H ; `string'
CONST	ENDS
;	COMDAT ??_C@_0BH@FBDPHOOK@MixSocket15SuccessRate?$AA@
CONST	SEGMENT
??_C@_0BH@FBDPHOOK@MixSocket15SuccessRate?$AA@ DB 'MixSocket15SuccessRate'
	DB	00H						; `string'
CONST	ENDS
;	COMDAT ??_C@_0BK@MLCJJPOM@Mix380AncExc15SuccessRate?$AA@
CONST	SEGMENT
??_C@_0BK@MLCJJPOM@Mix380AncExc15SuccessRate?$AA@ DB 'Mix380AncExc15Succe'
	DB	'ssRate', 00H				; `string'
CONST	ENDS
;	COMDAT ??_C@_0BH@DOLHJBNM@MixNormal15SuccessRate?$AA@
CONST	SEGMENT
??_C@_0BH@DOLHJBNM@MixNormal15SuccessRate?$AA@ DB 'MixNormal15SuccessRate'
	DB	00H						; `string'
CONST	ENDS
;	COMDAT ??_C@_0BH@IMKJKHGP@MixSocket14SuccessRate?$AA@
CONST	SEGMENT
??_C@_0BH@IMKJKHGP@MixSocket14SuccessRate?$AA@ DB 'MixSocket14SuccessRate'
	DB	00H						; `string'
CONST	ENDS
;	COMDAT ??_C@_0BK@BGLPEGGJ@Mix380AncExc14SuccessRate?$AA@
CONST	SEGMENT
??_C@_0BK@BGLPEGGJ@Mix380AncExc14SuccessRate?$AA@ DB 'Mix380AncExc14Succe'
	DB	'ssRate', 00H				; `string'
CONST	ENDS
;	COMDAT ??_C@_0BH@ODCBEIFJ@MixNormal14SuccessRate?$AA@
CONST	SEGMENT
??_C@_0BH@ODCBEIFJ@MixNormal14SuccessRate?$AA@ DB 'MixNormal14SuccessRate'
	DB	00H						; `string'
CONST	ENDS
;	COMDAT ??_C@_0BH@PBNKKBDH@MixSocket13SuccessRate?$AA@
CONST	SEGMENT
??_C@_0BH@PBNKKBDH@MixSocket13SuccessRate?$AA@ DB 'MixSocket13SuccessRate'
	DB	00H						; `string'
CONST	ENDS
;	COMDAT ??_C@_0BK@GLMMEADB@Mix380AncExc13SuccessRate?$AA@
CONST	SEGMENT
??_C@_0BK@GLMMEADB@Mix380AncExc13SuccessRate?$AA@ DB 'Mix380AncExc13Succe'
	DB	'ssRate', 00H				; `string'
CONST	ENDS
;	COMDAT ??_C@_0BH@JOFCEOAB@MixNormal13SuccessRate?$AA@
CONST	SEGMENT
??_C@_0BH@JOFCEOAB@MixNormal13SuccessRate?$AA@ DB 'MixNormal13SuccessRate'
	DB	00H						; `string'
CONST	ENDS
;	COMDAT ??_C@_0BH@CMEMHILC@MixSocket12SuccessRate?$AA@
CONST	SEGMENT
??_C@_0BH@CMEMHILC@MixSocket12SuccessRate?$AA@ DB 'MixSocket12SuccessRate'
	DB	00H						; `string'
CONST	ENDS
;	COMDAT ??_C@_0BK@LGFKJJLE@Mix380AncExc12SuccessRate?$AA@
CONST	SEGMENT
??_C@_0BK@LGFKJJLE@Mix380AncExc12SuccessRate?$AA@ DB 'Mix380AncExc12Succe'
	DB	'ssRate', 00H				; `string'
CONST	ENDS
;	COMDAT ??_C@_0BH@EDMEJHIE@MixNormal12SuccessRate?$AA@
CONST	SEGMENT
??_C@_0BH@EDMEJHIE@MixNormal12SuccessRate?$AA@ DB 'MixNormal12SuccessRate'
	DB	00H						; `string'
CONST	ENDS
;	COMDAT ??_C@_0BH@JBIGBEHM@MixSocket11SuccessRate?$AA@
CONST	SEGMENT
??_C@_0BH@JBIGBEHM@MixSocket11SuccessRate?$AA@ DB 'MixSocket11SuccessRate'
	DB	00H						; `string'
CONST	ENDS
;	COMDAT ??_C@_0BK@LJAPFHK@Mix380AncExc11SuccessRate?$AA@
CONST	SEGMENT
??_C@_0BK@LJAPFHK@Mix380AncExc11SuccessRate?$AA@ DB 'Mix380AncExc11Succes'
	DB	'sRate', 00H					; `string'
CONST	ENDS
;	COMDAT ??_C@_0BH@POAOPLEK@MixNormal11SuccessRate?$AA@
CONST	SEGMENT
??_C@_0BH@POAOPLEK@MixNormal11SuccessRate?$AA@ DB 'MixNormal11SuccessRate'
	DB	00H						; `string'
CONST	ENDS
;	COMDAT ??_C@_0BH@EMBAMNPJ@MixSocket10SuccessRate?$AA@
CONST	SEGMENT
??_C@_0BH@EMBAMNPJ@MixSocket10SuccessRate?$AA@ DB 'MixSocket10SuccessRate'
	DB	00H						; `string'
CONST	ENDS
;	COMDAT ??_C@_0BK@NGAGCMPP@Mix380AncExc10SuccessRate?$AA@
CONST	SEGMENT
??_C@_0BK@NGAGCMPP@Mix380AncExc10SuccessRate?$AA@ DB 'Mix380AncExc10Succe'
	DB	'ssRate', 00H				; `string'
CONST	ENDS
;	COMDAT ??_C@_0BH@CDJICCMP@MixNormal10SuccessRate?$AA@
CONST	SEGMENT
??_C@_0BH@CDJICCMP@MixNormal10SuccessRate?$AA@ DB 'MixNormal10SuccessRate'
	DB	00H						; `string'
CONST	ENDS
;	COMDAT ??_C@_0L@BAKJPIHJ@DeleteLogs?$AA@
CONST	SEGMENT
??_C@_0L@BAKJPIHJ@DeleteLogs?$AA@ DB 'DeleteLogs', 00H	; `string'
CONST	ENDS
;	COMDAT ??_C@_0L@FGHOFJAN@PersonalID?$AA@
CONST	SEGMENT
??_C@_0L@FGHOFJAN@PersonalID?$AA@ DB 'PersonalID', 00H	; `string'
CONST	ENDS
;	COMDAT ??_C@_08BPDKCIGK@CheckSum?$AA@
CONST	SEGMENT
??_C@_08BPDKCIGK@CheckSum?$AA@ DB 'CheckSum', 00H	; `string'
CONST	ENDS
;	COMDAT ??_C@_0BK@PCGLKKEC@?4?4?2Data?2ExData?2Common?4ini?$AA@
CONST	SEGMENT
??_C@_0BK@PCGLKKEC@?4?4?2Data?2ExData?2Common?4ini?$AA@ DB '..\Data\ExDat'
	DB	'a\Common.ini', 00H				; `string'
CONST	ENDS
;	COMDAT ??_C@_08KNIMID@PostItem?$AA@
CONST	SEGMENT
??_C@_08KNIMID@PostItem?$AA@ DB 'PostItem', 00H		; `string'
CONST	ENDS
;	COMDAT ??_C@_0BD@KMKHPDOP@DivFireScreamSpeed?$AA@
CONST	SEGMENT
??_C@_0BD@KMKHPDOP@DivFireScreamSpeed?$AA@ DB 'DivFireScreamSpeed', 00H ; `string'
CONST	ENDS
;	COMDAT ??_C@_0N@JDNGCJM@MasterSkills?$AA@
CONST	SEGMENT
??_C@_0N@JDNGCJM@MasterSkills?$AA@ DB 'MasterSkills', 00H ; `string'
CONST	ENDS
;	COMDAT ??_C@_09PCFKOPAI@DLReflect?$AA@
CONST	SEGMENT
??_C@_09PCFKOPAI@DLReflect?$AA@ DB 'DLReflect', 00H	; `string'
CONST	ENDS
;	COMDAT ??_C@_0BA@JHMAKOGB@CreateMONKLevel?$AA@
CONST	SEGMENT
??_C@_0BA@JHMAKOGB@CreateMONKLevel?$AA@ DB 'CreateMONKLevel', 00H ; `string'
CONST	ENDS
;	COMDAT ??_C@_0P@LCDIEJDJ@CreateSUMLevel?$AA@
CONST	SEGMENT
??_C@_0P@LCDIEJDJ@CreateSUMLevel?$AA@ DB 'CreateSUMLevel', 00H ; `string'
CONST	ENDS
;	COMDAT ??_C@_0O@MPPNBNCE@CreateDLLevel?$AA@
CONST	SEGMENT
??_C@_0O@MPPNBNCE@CreateDLLevel?$AA@ DB 'CreateDLLevel', 00H ; `string'
CONST	ENDS
;	COMDAT ??_C@_0O@NCLFFCPF@CreateMGLevel?$AA@
CONST	SEGMENT
??_C@_0O@NCLFFCPF@CreateMGLevel?$AA@ DB 'CreateMGLevel', 00H ; `string'
CONST	ENDS
;	COMDAT ??_C@_0M@ICCLDJIL@EnableHPBar?$AA@
CONST	SEGMENT
??_C@_0M@ICCLDJIL@EnableHPBar?$AA@ DB 'EnableHPBar', 00H ; `string'
CONST	ENDS
;	COMDAT ??_C@_0BA@FACLGDII@ClientAntiCheat?$AA@
CONST	SEGMENT
??_C@_0BA@FACLGDII@ClientAntiCheat?$AA@ DB 'ClientAntiCheat', 00H ; `string'
CONST	ENDS
;	COMDAT ??_C@_0BE@LBCOHCJL@MoveTargetPosEffect?$AA@
CONST	SEGMENT
??_C@_0BE@LBCOHCJL@MoveTargetPosEffect?$AA@ DB 'MoveTargetPosEffect', 00H ; `string'
CONST	ENDS
;	COMDAT ??_C@_06GMDPMMC@Top100?$AA@
CONST	SEGMENT
??_C@_06GMDPMMC@Top100?$AA@ DB 'Top100', 00H		; `string'
CONST	ENDS
;	COMDAT ??_C@_09EGDCOCMF@AutoParty?$AA@
CONST	SEGMENT
??_C@_09EGDCOCMF@AutoParty?$AA@ DB 'AutoParty', 00H	; `string'
CONST	ENDS
;	COMDAT ??_C@_0BD@MAJIDFMA@HelperClickerLevel?$AA@
CONST	SEGMENT
??_C@_0BD@MAJIDFMA@HelperClickerLevel?$AA@ DB 'HelperClickerLevel', 00H ; `string'
CONST	ENDS
;	COMDAT ??_C@_06MLPMCPDE@ExTeam?$AA@
CONST	SEGMENT
??_C@_06MLPMCPDE@ExTeam?$AA@ DB 'ExTeam', 00H		; `string'
CONST	ENDS
;	COMDAT ??_C@_0L@FCEPFPBL@SwitchChar?$AA@
CONST	SEGMENT
??_C@_0L@FCEPFPBL@SwitchChar?$AA@ DB 'SwitchChar', 00H	; `string'
CONST	ENDS
;	COMDAT ??_C@_0BM@LMFNOFKJ@?4?4?2Data?2ExData?2ExCustom?4ini?$AA@
CONST	SEGMENT
??_C@_0BM@LMFNOFKJ@?4?4?2Data?2ExData?2ExCustom?4ini?$AA@ DB '..\Data\ExD'
	DB	'ata\ExCustom.ini', 00H			; `string'
; Function compile flags: /Odtp /ZI
CONST	ENDS
_TEXT	SEGMENT
_lpObj$231482 = -292					; size = 4
_n$231478 = -288					; size = 4
_n$231421 = -284					; size = 8
_Flag$231414 = -276					; size = 4
_Buff$231413 = -272					; size = 256
_file$231409 = -16					; size = 4
_i$231405 = -12						; size = 4
_this$ = -8						; size = 4
__$ArrayPad$ = -4					; size = 4
_isExReload$ = 8					; size = 1
?LoadConfigs@cExConfigs@@QAEX_N@Z PROC			; cExConfigs::LoadConfigs
; _this$ = ecx

; 85   : {

  00000	55		 push	 ebp
  00001	8b ec		 mov	 ebp, esp
  00003	81 ec 64 01 00
	00		 sub	 esp, 356		; 00000164H
  00009	a1 00 00 00 00	 mov	 eax, DWORD PTR ___security_cookie
  0000e	33 c5		 xor	 eax, ebp
  00010	89 45 fc	 mov	 DWORD PTR __$ArrayPad$[ebp], eax
  00013	53		 push	 ebx
  00014	56		 push	 esi
  00015	57		 push	 edi
  00016	89 4d f8	 mov	 DWORD PTR _this$[ebp], ecx

; 86   : 	g_UserConfig.Load();

  00019	b9 00 00 00 00	 mov	 ecx, OFFSET ?g_UserConfig@@3VCUserConfig@@A ; g_UserConfig
  0001e	e8 00 00 00 00	 call	 ?Load@CUserConfig@@QAEXXZ ; CUserConfig::Load

; 87   : 
; 88   : #if(CUSTOM_SMITHY == TRUE)
; 89   : 	g_Smithy.Load();

  00023	b9 00 00 00 00	 mov	 ecx, OFFSET ?g_Smithy@@3VCSmithy@@A ; g_Smithy
  00028	e8 00 00 00 00	 call	 ?Load@CSmithy@@QAEXXZ	; CSmithy::Load

; 90   : #endif
; 91   : 
; 92   : 	g_TeleportShop.Load();

  0002d	b9 00 00 00 00	 mov	 ecx, OFFSET ?g_TeleportShop@@3VTeleportShop@@A ; g_TeleportShop
  00032	e8 00 00 00 00	 call	 ?Load@TeleportShop@@QAEXXZ ; TeleportShop::Load

; 93   : 
; 94   : 	if(g_ExLicense.user.BloodHound)

  00037	0f b6 05 cb 00
	00 00		 movzx	 eax, BYTE PTR ?g_ExLicense@@3VCExLicense@@A+203
  0003e	85 c0		 test	 eax, eax
  00040	74 0a		 je	 SHORT $LN52@LoadConfig

; 95   : 	{
; 96   : 		BloodHound.ReedConfig();

  00042	b9 00 00 00 00	 mov	 ecx, OFFSET ?BloodHound@@3VcBloodHound@@A ; BloodHound
  00047	e8 00 00 00 00	 call	 ?ReedConfig@cBloodHound@@QAEXXZ ; cBloodHound::ReedConfig
$LN52@LoadConfig:

; 97   : 	}
; 98   : 
; 99   : 	gResetSystem.Load();

  0004c	b9 00 00 00 00	 mov	 ecx, OFFSET ?gResetSystem@@3VcResetSystem@@A ; gResetSystem
  00051	e8 00 00 00 00	 call	 ?Load@cResetSystem@@QAEXXZ ; cResetSystem::Load

; 100  : 	OffExp.LoadConfig();

  00056	b9 00 00 00 00	 mov	 ecx, OFFSET ?OffExp@@3VcOffExp@@A ; OffExp
  0005b	e8 00 00 00 00	 call	 ?LoadConfig@cOffExp@@QAEXXZ ; cOffExp::LoadConfig

; 101  : 	gGrandReset.Load();

  00060	b9 00 00 00 00	 mov	 ecx, OFFSET ?gGrandReset@@3VcGrandReset@@A ; gGrandReset
  00065	e8 00 00 00 00	 call	 ?Load@cGrandReset@@QAEXXZ ; cGrandReset::Load

; 102  : 	HappyHour.LoadConfig();

  0006a	b9 00 00 00 00	 mov	 ecx, OFFSET ?HappyHour@@3VcHappyHour@@A ; HappyHour
  0006f	e8 00 00 00 00	 call	 ?LoadConfig@cHappyHour@@QAEXXZ ; cHappyHour::LoadConfig

; 103  : 
; 104  : #ifdef _OFFTRADE_
; 105  : 	gOffTrade.Load();

  00074	b9 00 00 00 00	 mov	 ecx, OFFSET ?gOffTrade@@3VcOffTrade@@A ; gOffTrade
  00079	e8 00 00 00 00	 call	 ?Load@cOffTrade@@QAEXXZ	; cOffTrade::Load

; 106  : #endif
; 107  : 	ExQuestSystem.Loader();

  0007e	b9 00 00 00 00	 mov	 ecx, OFFSET ?ExQuestSystem@@3VcExQuest@@A ; ExQuestSystem
  00083	e8 00 00 00 00	 call	 ?Loader@cExQuest@@QAEXXZ ; cExQuest::Loader

; 108  : 	DropZenManager.LoadConfig();

  00088	b9 00 00 00 00	 mov	 ecx, OFFSET ?DropZenManager@@3VcDropZenManager@@A ; DropZenManager
  0008d	e8 00 00 00 00	 call	 ?LoadConfig@cDropZenManager@@QAEXXZ ; cDropZenManager::LoadConfig

; 109  : 
; 110  : 	gMapExp.LoadConfig();

  00092	b9 00 00 00 00	 mov	 ecx, OFFSET ?gMapExp@@3VcMapExp@@A ; gMapExp
  00097	e8 00 00 00 00	 call	 ?LoadConfig@cMapExp@@QAEXXZ ; cMapExp::LoadConfig

; 111  : 
; 112  : 	PvPMapSystem.LoadConfig();

  0009c	b9 00 00 00 00	 mov	 ecx, OFFSET ?PvPMapSystem@@3VcPvPMapSystem@@A ; PvPMapSystem
  000a1	e8 00 00 00 00	 call	 ?LoadConfig@cPvPMapSystem@@QAEXXZ ; cPvPMapSystem::LoadConfig

; 113  : 
; 114  : 	PriceManager.LoadConfig();

  000a6	b9 00 00 00 00	 mov	 ecx, OFFSET ?PriceManager@@3VcPriceManager@@A ; PriceManager
  000ab	e8 00 00 00 00	 call	 ?LoadConfig@cPriceManager@@QAEXXZ ; cPriceManager::LoadConfig

; 115  : 	DropEvent.LoadFile();

  000b0	b9 00 00 00 00	 mov	 ecx, OFFSET ?DropEvent@@3VcDropEvent@@A ; DropEvent
  000b5	e8 00 00 00 00	 call	 ?LoadFile@cDropEvent@@QAEXXZ ; cDropEvent::LoadFile

; 116  : 	SearchEvent.LoadingEvent();

  000ba	b9 00 00 00 00	 mov	 ecx, OFFSET ?SearchEvent@@3VcSearchEvent@@A ; SearchEvent
  000bf	e8 00 00 00 00	 call	 ?LoadingEvent@cSearchEvent@@QAEXXZ ; cSearchEvent::LoadingEvent

; 117  : 	Premium.Loader();

  000c4	b9 00 00 00 00	 mov	 ecx, OFFSET ?Premium@@3VPremiumSystem@@A ; Premium
  000c9	e8 00 00 00 00	 call	 ?Loader@PremiumSystem@@QAEXXZ ; PremiumSystem::Loader

; 118  : #ifdef EX_RELOAD_RAGE_SILVER
; 119  : 	if(g_ExLicense.CheckUser(eExUB::Local3) || g_ExLicense.CheckUser(SILVER1) || g_ExLicense.CheckUser(SILVER2))

  000ce	6a 1c		 push	 28			; 0000001cH
  000d0	b9 00 00 00 00	 mov	 ecx, OFFSET ?g_ExLicense@@3VCExLicense@@A ; g_ExLicense
  000d5	e8 00 00 00 00	 call	 ?CheckUser@CExLicense@@QAE_NH@Z ; CExLicense::CheckUser
  000da	0f b6 c0	 movzx	 eax, al
  000dd	85 c0		 test	 eax, eax
  000df	75 26		 jne	 SHORT $LN50@LoadConfig
  000e1	6a 07		 push	 7
  000e3	b9 00 00 00 00	 mov	 ecx, OFFSET ?g_ExLicense@@3VCExLicense@@A ; g_ExLicense
  000e8	e8 00 00 00 00	 call	 ?CheckUser@CExLicense@@QAE_NH@Z ; CExLicense::CheckUser
  000ed	0f b6 c0	 movzx	 eax, al
  000f0	85 c0		 test	 eax, eax
  000f2	75 13		 jne	 SHORT $LN50@LoadConfig
  000f4	6a 08		 push	 8
  000f6	b9 00 00 00 00	 mov	 ecx, OFFSET ?g_ExLicense@@3VCExLicense@@A ; g_ExLicense
  000fb	e8 00 00 00 00	 call	 ?CheckUser@CExLicense@@QAE_NH@Z ; CExLicense::CheckUser
  00100	0f b6 c0	 movzx	 eax, al
  00103	85 c0		 test	 eax, eax
  00105	74 1f		 je	 SHORT $LN51@LoadConfig
$LN50@LoadConfig:

; 120  : 	{
; 121  : 		if(	g_ExLicense.user.Rage && (!isExReload)	)

  00107	0f b6 05 c9 00
	00 00		 movzx	 eax, BYTE PTR ?g_ExLicense@@3VCExLicense@@A+201
  0010e	85 c0		 test	 eax, eax
  00110	74 12		 je	 SHORT $LN49@LoadConfig
  00112	0f b6 45 08	 movzx	 eax, BYTE PTR _isExReload$[ebp]
  00116	85 c0		 test	 eax, eax
  00118	75 0a		 jne	 SHORT $LN49@LoadConfig

; 122  : 		{
; 123  : 			gSystemOfRage.Load();

  0011a	b9 00 00 00 00	 mov	 ecx, OFFSET ?gSystemOfRage@@3VcSystemOfRage@@A ; gSystemOfRage
  0011f	e8 00 00 00 00	 call	 ?Load@cSystemOfRage@@QAEXXZ ; cSystemOfRage::Load
$LN49@LoadConfig:

; 124  : 		}
; 125  : 	}
; 126  : 	else

  00124	eb 15		 jmp	 SHORT $LN48@LoadConfig
$LN51@LoadConfig:

; 127  : 	{
; 128  : 		if(g_ExLicense.user.Rage)

  00126	0f b6 05 c9 00
	00 00		 movzx	 eax, BYTE PTR ?g_ExLicense@@3VCExLicense@@A+201
  0012d	85 c0		 test	 eax, eax
  0012f	74 0a		 je	 SHORT $LN48@LoadConfig

; 129  : 		{
; 130  : 			gSystemOfRage.Load();

  00131	b9 00 00 00 00	 mov	 ecx, OFFSET ?gSystemOfRage@@3VcSystemOfRage@@A ; gSystemOfRage
  00136	e8 00 00 00 00	 call	 ?Load@cSystemOfRage@@QAEXXZ ; cSystemOfRage::Load
$LN48@LoadConfig:

; 131  : 		}
; 132  : 	}
; 133  : #else
; 134  : 	if(g_ExLicense.user.Rage)
; 135  : 		{
; 136  : 			gSystemOfRage.Load();
; 137  : 		}
; 138  : #endif
; 139  : 
; 140  : 	gBlockMoveIteml.Load();

  0013b	b9 00 00 00 00	 mov	 ecx, OFFSET ?gBlockMoveIteml@@3VcBlockMoveItem@@A ; gBlockMoveIteml
  00140	e8 00 00 00 00	 call	 ?Load@cBlockMoveItem@@QAEXXZ ; cBlockMoveItem::Load

; 141  : 
; 142  : 	gItemDropManager.Init();

  00145	b9 00 00 00 00	 mov	 ecx, OFFSET ?gItemDropManager@@3VCItemDropManager@@A ; gItemDropManager
  0014a	e8 00 00 00 00	 call	 ?Init@CItemDropManager@@QAEXXZ ; CItemDropManager::Init

; 143  : 
; 144  : 	gNewJewels.Load();

  0014f	b9 00 00 00 00	 mov	 ecx, OFFSET ?gNewJewels@@3VcNewJewels@@A ; gNewJewels
  00154	e8 00 00 00 00	 call	 ?Load@cNewJewels@@QAEXXZ ; cNewJewels::Load

; 145  : 
; 146  : 	gOnlineBonus.Load();

  00159	b9 00 00 00 00	 mov	 ecx, OFFSET ?gOnlineBonus@@3VOnlineBonus@@A ; gOnlineBonus
  0015e	e8 00 00 00 00	 call	 ?Load@OnlineBonus@@QAEXXZ ; OnlineBonus::Load

; 147  : 	gJewelsBank.Load();

  00163	b9 00 00 00 00	 mov	 ecx, OFFSET ?gJewelsBank@@3VJewelsBank@@A ; gJewelsBank
  00168	e8 00 00 00 00	 call	 ?Load@JewelsBank@@QAEXXZ ; JewelsBank::Load

; 148  : #ifdef _VOTER_
; 149  : 	gVoter.Init();

  0016d	b9 00 00 00 00	 mov	 ecx, OFFSET ?gVoter@@3VVoter@@A ; gVoter
  00172	e8 00 00 00 00	 call	 ?Init@Voter@@QAEXXZ	; Voter::Init

; 150  : #endif
; 151  : 	gCreditDonate.Load();

  00177	b9 00 00 00 00	 mov	 ecx, OFFSET ?gCreditDonate@@3VcCreditDonate@@A ; gCreditDonate
  0017c	e8 00 00 00 00	 call	 ?Load@cCreditDonate@@QAEXXZ ; cCreditDonate::Load

; 152  : 
; 153  : 	if(g_ExLicense.user.WinQuest)

  00181	0f b6 05 ca 00
	00 00		 movzx	 eax, BYTE PTR ?g_ExLicense@@3VCExLicense@@A+202
  00188	85 c0		 test	 eax, eax
  0018a	74 0a		 je	 SHORT $LN46@LoadConfig

; 154  : 	{
; 155  : 		gWinQuestSystem.Init();

  0018c	b9 00 00 00 00	 mov	 ecx, OFFSET ?gWinQuestSystem@@3VcWinQuestSystem@@A ; gWinQuestSystem
  00191	e8 00 00 00 00	 call	 ?Init@cWinQuestSystem@@QAEXXZ ; cWinQuestSystem::Init
$LN46@LoadConfig:

; 156  : 	}
; 157  : 
; 158  : 	gExclusiveOptions.Load();

  00196	b9 00 00 00 00	 mov	 ecx, OFFSET ?gExclusiveOptions@@3VcExclusiveOptions@@A ; gExclusiveOptions
  0019b	e8 00 00 00 00	 call	 ?Load@cExclusiveOptions@@QAEXXZ ; cExclusiveOptions::Load

; 159  : 
; 160  : 	gTeleportManager.Load();

  001a0	b9 00 00 00 00	 mov	 ecx, OFFSET ?gTeleportManager@@3VcTeleportManager@@A ; gTeleportManager
  001a5	e8 00 00 00 00	 call	 ?Load@cTeleportManager@@QAEXXZ ; cTeleportManager::Load

; 161  : 
; 162  : 	gMaxPower.Load();

  001aa	b9 00 00 00 00	 mov	 ecx, OFFSET ?gMaxPower@@3VcMaxPower@@A ; gMaxPower
  001af	e8 00 00 00 00	 call	 ?Load@cMaxPower@@QAEXXZ	; cMaxPower::Load

; 163  : 
; 164  : 	gEventTimer.LoadTimer();

  001b4	b9 00 00 00 00	 mov	 ecx, OFFSET ?gEventTimer@@3VcEventTimer@@A ; gEventTimer
  001b9	e8 00 00 00 00	 call	 ?LoadTimer@cEventTimer@@QAEXXZ ; cEventTimer::LoadTimer

; 165  : 
; 166  : 	gMonsterBonus.Load();

  001be	b9 00 00 00 00	 mov	 ecx, OFFSET ?gMonsterBonus@@3VcMonsterBonus@@A ; gMonsterBonus
  001c3	e8 00 00 00 00	 call	 ?Load@cMonsterBonus@@QAEXXZ ; cMonsterBonus::Load

; 167  : 
; 168  : 	ChaosMixManager.Init();

  001c8	b9 00 00 00 00	 mov	 ecx, OFFSET ?ChaosMixManager@@3VcChaosMixManager@@A ; ChaosMixManager
  001cd	e8 00 00 00 00	 call	 ?Init@cChaosMixManager@@QAEXXZ ; cChaosMixManager::Init

; 169  : 
; 170  : 	g_MixOption.Load();

  001d2	b9 00 00 00 00	 mov	 ecx, OFFSET ?g_MixOption@@3VMixOption@@A ; g_MixOption
  001d7	e8 00 00 00 00	 call	 ?Load@MixOption@@QAEXXZ	; MixOption::Load

; 171  : #ifdef PRIVATE_MODULE
; 172  : 	if(g_ExLicense.user.MonsterQuest)

  001dc	0f b6 05 cc 00
	00 00		 movzx	 eax, BYTE PTR ?g_ExLicense@@3VCExLicense@@A+204
  001e3	85 c0		 test	 eax, eax
  001e5	74 0a		 je	 SHORT $LN45@LoadConfig

; 173  : 	{
; 174  : 		gMonsterQuest.Load();

  001e7	b9 00 00 00 00	 mov	 ecx, OFFSET ?gMonsterQuest@@3VMonsterQuest@@A ; gMonsterQuest
  001ec	e8 00 00 00 00	 call	 ?Load@MonsterQuest@@QAEXXZ ; MonsterQuest::Load
$LN45@LoadConfig:

; 175  : 	}
; 176  : #endif
; 177  : 
; 178  : 	if(g_ExLicense.user.TvTEvent)

  001f1	0f b6 05 cd 00
	00 00		 movzx	 eax, BYTE PTR ?g_ExLicense@@3VCExLicense@@A+205
  001f8	85 c0		 test	 eax, eax
  001fa	74 0a		 je	 SHORT $LN44@LoadConfig

; 179  : 	{
; 180  : 		TvT.Load();

  001fc	b9 00 00 00 00	 mov	 ecx, OFFSET ?TvT@@3VcTvTEvent@@A ; TvT
  00201	e8 00 00 00 00	 call	 ?Load@cTvTEvent@@QAEXXZ	; cTvTEvent::Load
$LN44@LoadConfig:

; 181  : 	}
; 182  : #if(GRAND_HERO_DEV)
; 183  : 	GrandHero.Load();

  00206	b9 00 00 00 00	 mov	 ecx, OFFSET ?GrandHero@@3VcGrandHero@@A ; GrandHero
  0020b	e8 00 00 00 00	 call	 ?Load@cGrandHero@@QAEXXZ ; cGrandHero::Load

; 184  : #endif
; 185  : #ifdef _BALANS_SYSTEM_
; 186  : 	gBalanceSystem.Load();

  00210	b9 00 00 00 00	 mov	 ecx, OFFSET ?gBalanceSystem@@3VcBalanceSystem@@A ; gBalanceSystem
  00215	e8 00 00 00 00	 call	 ?Load@cBalanceSystem@@QAEXXZ ; cBalanceSystem::Load

; 187  : #endif
; 188  : 
; 189  : 	
; 190  : #ifdef CALCULATOR_MANAGER
; 191  : 	if (g_ExLicense.CheckUser(eExUB::ulasevich) || g_ExLicense.CheckUser(eExUB::ConflictNoCustom) || g_ExLicense.CheckUser(eExUB::ulasevich2))

  0021a	6a 17		 push	 23			; 00000017H
  0021c	b9 00 00 00 00	 mov	 ecx, OFFSET ?g_ExLicense@@3VCExLicense@@A ; g_ExLicense
  00221	e8 00 00 00 00	 call	 ?CheckUser@CExLicense@@QAE_NH@Z ; CExLicense::CheckUser
  00226	0f b6 c0	 movzx	 eax, al
  00229	85 c0		 test	 eax, eax
  0022b	75 26		 jne	 SHORT $LN42@LoadConfig
  0022d	6a 28		 push	 40			; 00000028H
  0022f	b9 00 00 00 00	 mov	 ecx, OFFSET ?g_ExLicense@@3VCExLicense@@A ; g_ExLicense
  00234	e8 00 00 00 00	 call	 ?CheckUser@CExLicense@@QAE_NH@Z ; CExLicense::CheckUser
  00239	0f b6 c0	 movzx	 eax, al
  0023c	85 c0		 test	 eax, eax
  0023e	75 13		 jne	 SHORT $LN42@LoadConfig
  00240	6a 24		 push	 36			; 00000024H
  00242	b9 00 00 00 00	 mov	 ecx, OFFSET ?g_ExLicense@@3VCExLicense@@A ; g_ExLicense
  00247	e8 00 00 00 00	 call	 ?CheckUser@CExLicense@@QAE_NH@Z ; CExLicense::CheckUser
  0024c	0f b6 c0	 movzx	 eax, al
  0024f	85 c0		 test	 eax, eax
  00251	74 0a		 je	 SHORT $LN43@LoadConfig
$LN42@LoadConfig:

; 192  : 	{
; 193  : 		CalculatorManager.Load();

  00253	b9 00 00 00 00	 mov	 ecx, OFFSET ?CalculatorManager@@3VcCalculatorManager@@A ; CalculatorManager
  00258	e8 00 00 00 00	 call	 ?Load@cCalculatorManager@@QAEXXZ ; cCalculatorManager::Load
$LN43@LoadConfig:

; 194  : 	}
; 195  : #endif
; 196  : 	
; 197  : 
; 198  : 
; 199  : #ifdef DS_REWARD_ITEM
; 200  : 	gDevilSquareRewardItem.Load();

  0025d	b9 00 00 00 00	 mov	 ecx, OFFSET ?gDevilSquareRewardItem@@3VcDevilSquareRewardItem@@A ; gDevilSquareRewardItem
  00262	e8 00 00 00 00	 call	 ?Load@cDevilSquareRewardItem@@QAEXXZ ; cDevilSquareRewardItem::Load

; 201  : 	gBloodCastleRewardItem.Load();

  00267	b9 00 00 00 00	 mov	 ecx, OFFSET ?gBloodCastleRewardItem@@3VcBloodCastleRewardItem@@A ; gBloodCastleRewardItem
  0026c	e8 00 00 00 00	 call	 ?Load@cBloodCastleRewardItem@@QAEXXZ ; cBloodCastleRewardItem::Load

; 202  : #endif // DS_REWARD_ITEM
; 203  : 	gChaosCastleRewardItem.Load();

  00271	b9 00 00 00 00	 mov	 ecx, OFFSET ?gChaosCastleRewardItem@@3VCChaosCastleRewardItem@@A ; gChaosCastleRewardItem
  00276	e8 00 00 00 00	 call	 ?Load@CChaosCastleRewardItem@@QAEXXZ ; CChaosCastleRewardItem::Load

; 204  : #ifdef _WINGS_DAMAGE_
; 205  : 	gWingsDamage.Load();

  0027b	b9 00 00 00 00	 mov	 ecx, OFFSET ?gWingsDamage@@3VcWingsDamage@@A ; gWingsDamage
  00280	e8 00 00 00 00	 call	 ?Load@cWingsDamage@@QAEXXZ ; cWingsDamage::Load

; 206  : #endif // _WINGS_DAMAGE_
; 207  : #ifdef BOSS_REWARD_ITEM
; 208  : 	gBossRewardItem.Init();

  00285	b9 00 00 00 00	 mov	 ecx, OFFSET ?gBossRewardItem@@3VcBossRewardItem@@A ; gBossRewardItem
  0028a	e8 00 00 00 00	 call	 ?Init@cBossRewardItem@@QAEXXZ ; cBossRewardItem::Init

; 209  : #endif // BOSS_REWARD_ITEM
; 210  : 	gCustomNpc.Load();

  0028f	b9 00 00 00 00	 mov	 ecx, OFFSET ?gCustomNpc@@3VcCustomNpc@@A ; gCustomNpc
  00294	e8 00 00 00 00	 call	 ?Load@cCustomNpc@@QAEXXZ ; cCustomNpc::Load

; 211  : #ifdef LORA_BATTLE_EVENT
; 212  : 	//if(g_ExLicense.CheckUser(eExUB::Gredy) || g_ExLicense.CheckUser(eExUB::GredyLocal) || g_ExLicense.CheckUser(eExUB::Gredy2))
; 213  : 	{
; 214  : 		LoraBattle.LoadConfigs();

  00299	b9 00 00 00 00	 mov	 ecx, OFFSET ?LoraBattle@@3VcLoraBattle@@A ; LoraBattle
  0029e	e8 00 00 00 00	 call	 ?LoadConfigs@cLoraBattle@@QAEXXZ ; cLoraBattle::LoadConfigs

; 215  : 	}
; 216  : #endif // LORA_BATTLE_EVENT
; 217  : 
; 218  : #if(EVENT_DEVIASBATTLE)
; 219  : 	if(g_ExLicense.CheckUser(eExUB::Gredy) || g_ExLicense.CheckUser(eExUB::GredyLocal) || g_ExLicense.CheckUser(eExUB::Gredy2))

  002a3	6a 20		 push	 32			; 00000020H
  002a5	b9 00 00 00 00	 mov	 ecx, OFFSET ?g_ExLicense@@3VCExLicense@@A ; g_ExLicense
  002aa	e8 00 00 00 00	 call	 ?CheckUser@CExLicense@@QAE_NH@Z ; CExLicense::CheckUser
  002af	0f b6 c0	 movzx	 eax, al
  002b2	85 c0		 test	 eax, eax
  002b4	75 26		 jne	 SHORT $LN40@LoadConfig
  002b6	6a 21		 push	 33			; 00000021H
  002b8	b9 00 00 00 00	 mov	 ecx, OFFSET ?g_ExLicense@@3VCExLicense@@A ; g_ExLicense
  002bd	e8 00 00 00 00	 call	 ?CheckUser@CExLicense@@QAE_NH@Z ; CExLicense::CheckUser
  002c2	0f b6 c0	 movzx	 eax, al
  002c5	85 c0		 test	 eax, eax
  002c7	75 13		 jne	 SHORT $LN40@LoadConfig
  002c9	6a 22		 push	 34			; 00000022H
  002cb	b9 00 00 00 00	 mov	 ecx, OFFSET ?g_ExLicense@@3VCExLicense@@A ; g_ExLicense
  002d0	e8 00 00 00 00	 call	 ?CheckUser@CExLicense@@QAE_NH@Z ; CExLicense::CheckUser
  002d5	0f b6 c0	 movzx	 eax, al
  002d8	85 c0		 test	 eax, eax
  002da	74 0a		 je	 SHORT $LN41@LoadConfig
$LN40@LoadConfig:

; 220  : 	{
; 221  : 		g_DeviasBattle.LoadConfigs();

  002dc	b9 00 00 00 00	 mov	 ecx, OFFSET ?g_DeviasBattle@@3VCDeviasBattle@@A ; g_DeviasBattle
  002e1	e8 00 00 00 00	 call	 ?LoadConfigs@CDeviasBattle@@QAEXXZ ; CDeviasBattle::LoadConfigs
$LN41@LoadConfig:

; 222  : 	}
; 223  : #endif
; 224  : 
; 225  : 	if(g_ExLicense.CheckUser(eExUB::ulasevich) || g_ExLicense.CheckUser(eExUB::ConflictNoCustom) || g_ExLicense.CheckUser(eExUB::ulasevich2))

  002e6	6a 17		 push	 23			; 00000017H
  002e8	b9 00 00 00 00	 mov	 ecx, OFFSET ?g_ExLicense@@3VCExLicense@@A ; g_ExLicense
  002ed	e8 00 00 00 00	 call	 ?CheckUser@CExLicense@@QAE_NH@Z ; CExLicense::CheckUser
  002f2	0f b6 c0	 movzx	 eax, al
  002f5	85 c0		 test	 eax, eax
  002f7	75 26		 jne	 SHORT $LN38@LoadConfig
  002f9	6a 28		 push	 40			; 00000028H
  002fb	b9 00 00 00 00	 mov	 ecx, OFFSET ?g_ExLicense@@3VCExLicense@@A ; g_ExLicense
  00300	e8 00 00 00 00	 call	 ?CheckUser@CExLicense@@QAE_NH@Z ; CExLicense::CheckUser
  00305	0f b6 c0	 movzx	 eax, al
  00308	85 c0		 test	 eax, eax
  0030a	75 13		 jne	 SHORT $LN38@LoadConfig
  0030c	6a 24		 push	 36			; 00000024H
  0030e	b9 00 00 00 00	 mov	 ecx, OFFSET ?g_ExLicense@@3VCExLicense@@A ; g_ExLicense
  00313	e8 00 00 00 00	 call	 ?CheckUser@CExLicense@@QAE_NH@Z ; CExLicense::CheckUser
  00318	0f b6 c0	 movzx	 eax, al
  0031b	85 c0		 test	 eax, eax
  0031d	74 14		 je	 SHORT $LN39@LoadConfig
$LN38@LoadConfig:

; 226  : 	{
; 227  : 		gMonsterSpawner.Load();

  0031f	b9 00 00 00 00	 mov	 ecx, OFFSET ?gMonsterSpawner@@3VcMonsterSpawner@@A ; gMonsterSpawner
  00324	e8 00 00 00 00	 call	 ?Load@cMonsterSpawner@@QAEXXZ ; cMonsterSpawner::Load

; 228  : #ifdef PARTY_BONUS
; 229  : 		gPartyBonus.Load();

  00329	b9 00 00 00 00	 mov	 ecx, OFFSET ?gPartyBonus@@3VPartyBonus@@A ; gPartyBonus
  0032e	e8 00 00 00 00	 call	 ?Load@PartyBonus@@QAEXXZ ; PartyBonus::Load
$LN39@LoadConfig:

; 230  : #endif
; 231  : 	}
; 232  : 	AlertSystem.Load();

  00333	b9 00 00 00 00	 mov	 ecx, OFFSET ?AlertSystem@@3VcAlertSystem@@A ; AlertSystem
  00338	e8 00 00 00 00	 call	 ?Load@cAlertSystem@@QAEXXZ ; cAlertSystem::Load

; 233  : 
; 234  : 
; 235  : 
; 236  : #if(SYSTEMOF_BROTHER==TRUE)
; 237  : 	gBrotherhood.Load();

  0033d	b9 00 00 00 00	 mov	 ecx, OFFSET ?gBrotherhood@@3VBrotherhood@@A ; gBrotherhood
  00342	e8 00 00 00 00	 call	 ?Load@Brotherhood@@QAEXXZ ; Brotherhood::Load

; 238  : #endif
; 239  : #ifdef PANDORA_EVENT
; 240  : 	if (g_ExLicense.user.PandoraEvent)

  00347	0f b6 05 d5 00
	00 00		 movzx	 eax, BYTE PTR ?g_ExLicense@@3VCExLicense@@A+213
  0034e	85 c0		 test	 eax, eax
  00350	74 0a		 je	 SHORT $LN37@LoadConfig

; 241  : 	{
; 242  : 		gPandoraBoxEvent.Load();

  00352	b9 00 00 00 00	 mov	 ecx, OFFSET ?gPandoraBoxEvent@@3VcPandoraBoxEvent@@A ; gPandoraBoxEvent
  00357	e8 00 00 00 00	 call	 ?Load@cPandoraBoxEvent@@QAEXXZ ; cPandoraBoxEvent::Load
$LN37@LoadConfig:

; 243  : 	}
; 244  : #endif // PANDORA_EVENT
; 245  : #if(CUSTOM_NEWS==TRUE)
; 246  : 	g_NewsBoard.Load();

  0035c	b9 00 00 00 00	 mov	 ecx, OFFSET ?g_NewsBoard@@3VNewsBoard@@A ; g_NewsBoard
  00361	e8 00 00 00 00	 call	 ?Load@NewsBoard@@QAEXXZ	; NewsBoard::Load

; 247  : #endif // NEWS_BOARD
; 248  : 
; 249  : #if(DEV_COMBO_CUSTOM==TRUE)
; 250  : 	g_ComboCustom.Load();

  00366	b9 00 00 00 00	 mov	 ecx, OFFSET ?g_ComboCustom@@3VComboCustom@@A ; g_ComboCustom
  0036b	e8 00 00 00 00	 call	 ?Load@ComboCustom@@QAEXXZ ; ComboCustom::Load

; 251  : #endif
; 252  : 
; 253  : #if(CUSTOM_MARRIAGE)
; 254  : 	g_Marriage.Load();

  00370	b9 00 00 00 00	 mov	 ecx, OFFSET ?g_Marriage@@3VCMarriage@@A ; g_Marriage
  00375	e8 00 00 00 00	 call	 ?Load@CMarriage@@QAEXXZ	; CMarriage::Load

; 255  : #endif
; 256  : 	//----------------
; 257  : 
; 258  : 	this->ExCustom.SwitchChar = GetPrivateProfileInt("ExTeam","SwitchChar",0,ExCustom_DIR);

  0037a	68 00 00 00 00	 push	 OFFSET ??_C@_0BM@LMFNOFKJ@?4?4?2Data?2ExData?2ExCustom?4ini?$AA@
  0037f	6a 00		 push	 0
  00381	68 00 00 00 00	 push	 OFFSET ??_C@_0L@FCEPFPBL@SwitchChar?$AA@
  00386	68 00 00 00 00	 push	 OFFSET ??_C@_06MLPMCPDE@ExTeam?$AA@
  0038b	ff 15 00 00 00
	00		 call	 DWORD PTR __imp__GetPrivateProfileIntA@16
  00391	8b 4d f8	 mov	 ecx, DWORD PTR _this$[ebp]
  00394	89 01		 mov	 DWORD PTR [ecx], eax

; 259  : 	this->ExCustom.HelperClickerLevel = GetPrivateProfileInt("ExTeam","HelperClickerLevel",80,ExCustom_DIR);

  00396	68 00 00 00 00	 push	 OFFSET ??_C@_0BM@LMFNOFKJ@?4?4?2Data?2ExData?2ExCustom?4ini?$AA@
  0039b	6a 50		 push	 80			; 00000050H
  0039d	68 00 00 00 00	 push	 OFFSET ??_C@_0BD@MAJIDFMA@HelperClickerLevel?$AA@
  003a2	68 00 00 00 00	 push	 OFFSET ??_C@_06MLPMCPDE@ExTeam?$AA@
  003a7	ff 15 00 00 00
	00		 call	 DWORD PTR __imp__GetPrivateProfileIntA@16
  003ad	8b 4d f8	 mov	 ecx, DWORD PTR _this$[ebp]
  003b0	89 41 04	 mov	 DWORD PTR [ecx+4], eax

; 260  : 
; 261  : 	this->ExCustom.AutoParty = GetPrivateProfileInt("ExTeam","AutoParty",1,ExCustom_DIR);

  003b3	68 00 00 00 00	 push	 OFFSET ??_C@_0BM@LMFNOFKJ@?4?4?2Data?2ExData?2ExCustom?4ini?$AA@
  003b8	6a 01		 push	 1
  003ba	68 00 00 00 00	 push	 OFFSET ??_C@_09EGDCOCMF@AutoParty?$AA@
  003bf	68 00 00 00 00	 push	 OFFSET ??_C@_06MLPMCPDE@ExTeam?$AA@
  003c4	ff 15 00 00 00
	00		 call	 DWORD PTR __imp__GetPrivateProfileIntA@16
  003ca	85 c0		 test	 eax, eax
  003cc	0f 95 c0	 setne	 al
  003cf	8b 4d f8	 mov	 ecx, DWORD PTR _this$[ebp]
  003d2	88 41 08	 mov	 BYTE PTR [ecx+8], al

; 262  : 	this->ExCustom.Top100 = GetPrivateProfileInt("ExTeam","Top100",1,ExCustom_DIR);

  003d5	68 00 00 00 00	 push	 OFFSET ??_C@_0BM@LMFNOFKJ@?4?4?2Data?2ExData?2ExCustom?4ini?$AA@
  003da	6a 01		 push	 1
  003dc	68 00 00 00 00	 push	 OFFSET ??_C@_06GMDPMMC@Top100?$AA@
  003e1	68 00 00 00 00	 push	 OFFSET ??_C@_06MLPMCPDE@ExTeam?$AA@
  003e6	ff 15 00 00 00
	00		 call	 DWORD PTR __imp__GetPrivateProfileIntA@16
  003ec	8b 4d f8	 mov	 ecx, DWORD PTR _this$[ebp]
  003ef	88 41 09	 mov	 BYTE PTR [ecx+9], al

; 263  : 	
; 264  : 	this->ExCustom.MoveTargetPosEffect = GetPrivateProfileInt("ExTeam","MoveTargetPosEffect",1,ExCustom_DIR);

  003f2	68 00 00 00 00	 push	 OFFSET ??_C@_0BM@LMFNOFKJ@?4?4?2Data?2ExData?2ExCustom?4ini?$AA@
  003f7	6a 01		 push	 1
  003f9	68 00 00 00 00	 push	 OFFSET ??_C@_0BE@LBCOHCJL@MoveTargetPosEffect?$AA@
  003fe	68 00 00 00 00	 push	 OFFSET ??_C@_06MLPMCPDE@ExTeam?$AA@
  00403	ff 15 00 00 00
	00		 call	 DWORD PTR __imp__GetPrivateProfileIntA@16
  00409	8b 4d f8	 mov	 ecx, DWORD PTR _this$[ebp]
  0040c	88 41 0a	 mov	 BYTE PTR [ecx+10], al

; 265  : 	this->ExCustom.ClientAntiCheat = GetPrivateProfileInt("ExTeam","ClientAntiCheat",0,ExCustom_DIR);

  0040f	68 00 00 00 00	 push	 OFFSET ??_C@_0BM@LMFNOFKJ@?4?4?2Data?2ExData?2ExCustom?4ini?$AA@
  00414	6a 00		 push	 0
  00416	68 00 00 00 00	 push	 OFFSET ??_C@_0BA@FACLGDII@ClientAntiCheat?$AA@
  0041b	68 00 00 00 00	 push	 OFFSET ??_C@_06MLPMCPDE@ExTeam?$AA@
  00420	ff 15 00 00 00
	00		 call	 DWORD PTR __imp__GetPrivateProfileIntA@16
  00426	8b 4d f8	 mov	 ecx, DWORD PTR _this$[ebp]
  00429	88 41 0b	 mov	 BYTE PTR [ecx+11], al

; 266  : 
; 267  : 	this->ExCustom.EnableHPBar = GetPrivateProfileInt("ExTeam","EnableHPBar",1,ExCustom_DIR);

  0042c	68 00 00 00 00	 push	 OFFSET ??_C@_0BM@LMFNOFKJ@?4?4?2Data?2ExData?2ExCustom?4ini?$AA@
  00431	6a 01		 push	 1
  00433	68 00 00 00 00	 push	 OFFSET ??_C@_0M@ICCLDJIL@EnableHPBar?$AA@
  00438	68 00 00 00 00	 push	 OFFSET ??_C@_06MLPMCPDE@ExTeam?$AA@
  0043d	ff 15 00 00 00
	00		 call	 DWORD PTR __imp__GetPrivateProfileIntA@16
  00443	8b 4d f8	 mov	 ecx, DWORD PTR _this$[ebp]
  00446	88 41 0c	 mov	 BYTE PTR [ecx+12], al

; 268  : 	
; 269  : 	this->ExCustom.CreateMGLevel	= GetPrivateProfileInt("ExTeam", "CreateMGLevel", 220, ExCustom_DIR);

  00449	68 00 00 00 00	 push	 OFFSET ??_C@_0BM@LMFNOFKJ@?4?4?2Data?2ExData?2ExCustom?4ini?$AA@
  0044e	68 dc 00 00 00	 push	 220			; 000000dcH
  00453	68 00 00 00 00	 push	 OFFSET ??_C@_0O@NCLFFCPF@CreateMGLevel?$AA@
  00458	68 00 00 00 00	 push	 OFFSET ??_C@_06MLPMCPDE@ExTeam?$AA@
  0045d	ff 15 00 00 00
	00		 call	 DWORD PTR __imp__GetPrivateProfileIntA@16
  00463	8b 4d f8	 mov	 ecx, DWORD PTR _this$[ebp]
  00466	66 89 41 0e	 mov	 WORD PTR [ecx+14], ax

; 270  : 	this->ExCustom.CreateDLLevel	= GetPrivateProfileInt("ExTeam", "CreateDLLevel", 250, ExCustom_DIR);

  0046a	68 00 00 00 00	 push	 OFFSET ??_C@_0BM@LMFNOFKJ@?4?4?2Data?2ExData?2ExCustom?4ini?$AA@
  0046f	68 fa 00 00 00	 push	 250			; 000000faH
  00474	68 00 00 00 00	 push	 OFFSET ??_C@_0O@MPPNBNCE@CreateDLLevel?$AA@
  00479	68 00 00 00 00	 push	 OFFSET ??_C@_06MLPMCPDE@ExTeam?$AA@
  0047e	ff 15 00 00 00
	00		 call	 DWORD PTR __imp__GetPrivateProfileIntA@16
  00484	8b 4d f8	 mov	 ecx, DWORD PTR _this$[ebp]
  00487	66 89 41 10	 mov	 WORD PTR [ecx+16], ax

; 271  : 	this->ExCustom.CreateSUMLevel	= GetPrivateProfileInt("ExTeam", "CreateSUMLevel", 150, ExCustom_DIR);

  0048b	68 00 00 00 00	 push	 OFFSET ??_C@_0BM@LMFNOFKJ@?4?4?2Data?2ExData?2ExCustom?4ini?$AA@
  00490	68 96 00 00 00	 push	 150			; 00000096H
  00495	68 00 00 00 00	 push	 OFFSET ??_C@_0P@LCDIEJDJ@CreateSUMLevel?$AA@
  0049a	68 00 00 00 00	 push	 OFFSET ??_C@_06MLPMCPDE@ExTeam?$AA@
  0049f	ff 15 00 00 00
	00		 call	 DWORD PTR __imp__GetPrivateProfileIntA@16
  004a5	8b 4d f8	 mov	 ecx, DWORD PTR _this$[ebp]
  004a8	66 89 41 12	 mov	 WORD PTR [ecx+18], ax

; 272  : 	this->ExCustom.CreateMONKLevel	= GetPrivateProfileInt("ExTeam", "CreateMONKLevel", 180, ExCustom_DIR);

  004ac	68 00 00 00 00	 push	 OFFSET ??_C@_0BM@LMFNOFKJ@?4?4?2Data?2ExData?2ExCustom?4ini?$AA@
  004b1	68 b4 00 00 00	 push	 180			; 000000b4H
  004b6	68 00 00 00 00	 push	 OFFSET ??_C@_0BA@JHMAKOGB@CreateMONKLevel?$AA@
  004bb	68 00 00 00 00	 push	 OFFSET ??_C@_06MLPMCPDE@ExTeam?$AA@
  004c0	ff 15 00 00 00
	00		 call	 DWORD PTR __imp__GetPrivateProfileIntA@16
  004c6	8b 4d f8	 mov	 ecx, DWORD PTR _this$[ebp]
  004c9	66 89 41 14	 mov	 WORD PTR [ecx+20], ax

; 273  : 	
; 274  : 	this->ExCustom.DLReflect = GetPrivateProfileInt("ExTeam", "DLReflect", 0, ExCustom_DIR);

  004cd	68 00 00 00 00	 push	 OFFSET ??_C@_0BM@LMFNOFKJ@?4?4?2Data?2ExData?2ExCustom?4ini?$AA@
  004d2	6a 00		 push	 0
  004d4	68 00 00 00 00	 push	 OFFSET ??_C@_09PCFKOPAI@DLReflect?$AA@
  004d9	68 00 00 00 00	 push	 OFFSET ??_C@_06MLPMCPDE@ExTeam?$AA@
  004de	ff 15 00 00 00
	00		 call	 DWORD PTR __imp__GetPrivateProfileIntA@16
  004e4	8b 4d f8	 mov	 ecx, DWORD PTR _this$[ebp]
  004e7	88 41 16	 mov	 BYTE PTR [ecx+22], al

; 275  : 	this->ExCustom.MasterSkills = GetPrivateProfileInt("ExTeam", "MasterSkills", 1, ExCustom_DIR);

  004ea	68 00 00 00 00	 push	 OFFSET ??_C@_0BM@LMFNOFKJ@?4?4?2Data?2ExData?2ExCustom?4ini?$AA@
  004ef	6a 01		 push	 1
  004f1	68 00 00 00 00	 push	 OFFSET ??_C@_0N@JDNGCJM@MasterSkills?$AA@
  004f6	68 00 00 00 00	 push	 OFFSET ??_C@_06MLPMCPDE@ExTeam?$AA@
  004fb	ff 15 00 00 00
	00		 call	 DWORD PTR __imp__GetPrivateProfileIntA@16
  00501	85 c0		 test	 eax, eax
  00503	0f 95 c0	 setne	 al
  00506	8b 4d f8	 mov	 ecx, DWORD PTR _this$[ebp]
  00509	88 41 17	 mov	 BYTE PTR [ecx+23], al

; 276  : 	this->ExCustom.DivFireScreamSpeed = GetPrivateProfileInt("ExTeam", "DivFireScreamSpeed", 1, ExCustom_DIR);

  0050c	68 00 00 00 00	 push	 OFFSET ??_C@_0BM@LMFNOFKJ@?4?4?2Data?2ExData?2ExCustom?4ini?$AA@
  00511	6a 01		 push	 1
  00513	68 00 00 00 00	 push	 OFFSET ??_C@_0BD@KMKHPDOP@DivFireScreamSpeed?$AA@
  00518	68 00 00 00 00	 push	 OFFSET ??_C@_06MLPMCPDE@ExTeam?$AA@
  0051d	ff 15 00 00 00
	00		 call	 DWORD PTR __imp__GetPrivateProfileIntA@16
  00523	8b 4d f8	 mov	 ecx, DWORD PTR _this$[ebp]
  00526	89 41 18	 mov	 DWORD PTR [ecx+24], eax

; 277  : 
; 278  : 	this->ExCustom.PostItem = GetPrivateProfileInt("ExTeam", "PostItem", 0, ExCustom_DIR);

  00529	68 00 00 00 00	 push	 OFFSET ??_C@_0BM@LMFNOFKJ@?4?4?2Data?2ExData?2ExCustom?4ini?$AA@
  0052e	6a 00		 push	 0
  00530	68 00 00 00 00	 push	 OFFSET ??_C@_08KNIMID@PostItem?$AA@
  00535	68 00 00 00 00	 push	 OFFSET ??_C@_06MLPMCPDE@ExTeam?$AA@
  0053a	ff 15 00 00 00
	00		 call	 DWORD PTR __imp__GetPrivateProfileIntA@16
  00540	85 c0		 test	 eax, eax
  00542	0f 95 c0	 setne	 al
  00545	8b 4d f8	 mov	 ecx, DWORD PTR _this$[ebp]
  00548	88 41 1c	 mov	 BYTE PTR [ecx+28], al

; 279  : 
; 280  : 	
; 281  : 	
; 282  : 	//----------------
; 283  : 	// CommonServer
; 284  : 	//----------------
; 285  : 
; 286  : 	this->CommonServer.EnableCheckSum = GetPrivateProfileInt("ExTeam","CheckSum",0,CommonServer_DIR);

  0054b	68 00 00 00 00	 push	 OFFSET ??_C@_0BK@PCGLKKEC@?4?4?2Data?2ExData?2Common?4ini?$AA@
  00550	6a 00		 push	 0
  00552	68 00 00 00 00	 push	 OFFSET ??_C@_08BPDKCIGK@CheckSum?$AA@
  00557	68 00 00 00 00	 push	 OFFSET ??_C@_06MLPMCPDE@ExTeam?$AA@
  0055c	ff 15 00 00 00
	00		 call	 DWORD PTR __imp__GetPrivateProfileIntA@16
  00562	8b 4d f8	 mov	 ecx, DWORD PTR _this$[ebp]
  00565	89 41 20	 mov	 DWORD PTR [ecx+32], eax

; 287  : 	this->CommonServer.Ex_PersonalID = GetPrivateProfileInt("ExTeam","PersonalID",0,CommonServer_DIR);

  00568	68 00 00 00 00	 push	 OFFSET ??_C@_0BK@PCGLKKEC@?4?4?2Data?2ExData?2Common?4ini?$AA@
  0056d	6a 00		 push	 0
  0056f	68 00 00 00 00	 push	 OFFSET ??_C@_0L@FGHOFJAN@PersonalID?$AA@
  00574	68 00 00 00 00	 push	 OFFSET ??_C@_06MLPMCPDE@ExTeam?$AA@
  00579	ff 15 00 00 00
	00		 call	 DWORD PTR __imp__GetPrivateProfileIntA@16
  0057f	8b 4d f8	 mov	 ecx, DWORD PTR _this$[ebp]
  00582	89 41 24	 mov	 DWORD PTR [ecx+36], eax

; 288  : 	this->CommonServer.DeleteLogs = GetPrivateProfileInt("ExTeam","DeleteLogs",0,CommonServer_DIR);

  00585	68 00 00 00 00	 push	 OFFSET ??_C@_0BK@PCGLKKEC@?4?4?2Data?2ExData?2Common?4ini?$AA@
  0058a	6a 00		 push	 0
  0058c	68 00 00 00 00	 push	 OFFSET ??_C@_0L@BAKJPIHJ@DeleteLogs?$AA@
  00591	68 00 00 00 00	 push	 OFFSET ??_C@_06MLPMCPDE@ExTeam?$AA@
  00596	ff 15 00 00 00
	00		 call	 DWORD PTR __imp__GetPrivateProfileIntA@16
  0059c	8b 4d f8	 mov	 ecx, DWORD PTR _this$[ebp]
  0059f	89 41 28	 mov	 DWORD PTR [ecx+40], eax

; 289  : 
; 290  : 	//this->CommonServer.Ex_LifeRate = GetPrivateProfileInt("JewelRates","LifeRate",50,CommonServer_DIR);
; 291  : 	//this->CommonServer.Ex_SoulRate = GetPrivateProfileInt("JewelRates","SoulRate",50,CommonServer_DIR);
; 292  : 	//this->CommonServer.Ex_SoulRateLuck = GetPrivateProfileInt("JewelRates","SoulRateLuck",20,CommonServer_DIR);
; 293  : 	
; 294  : 	this->CommonServer.ExMixNormal10SuccessRate = GetPrivateProfileInt("ExTeam","MixNormal10SuccessRate",60,CommonServer_DIR);

  005a2	68 00 00 00 00	 push	 OFFSET ??_C@_0BK@PCGLKKEC@?4?4?2Data?2ExData?2Common?4ini?$AA@
  005a7	6a 3c		 push	 60			; 0000003cH
  005a9	68 00 00 00 00	 push	 OFFSET ??_C@_0BH@CDJICCMP@MixNormal10SuccessRate?$AA@
  005ae	68 00 00 00 00	 push	 OFFSET ??_C@_06MLPMCPDE@ExTeam?$AA@
  005b3	ff 15 00 00 00
	00		 call	 DWORD PTR __imp__GetPrivateProfileIntA@16
  005b9	8b 4d f8	 mov	 ecx, DWORD PTR _this$[ebp]
  005bc	89 41 2c	 mov	 DWORD PTR [ecx+44], eax

; 295  : 	this->CommonServer.ExMix380AncExc10SuccessRate = GetPrivateProfileInt("ExTeam","Mix380AncExc10SuccessRate",50,CommonServer_DIR);

  005bf	68 00 00 00 00	 push	 OFFSET ??_C@_0BK@PCGLKKEC@?4?4?2Data?2ExData?2Common?4ini?$AA@
  005c4	6a 32		 push	 50			; 00000032H
  005c6	68 00 00 00 00	 push	 OFFSET ??_C@_0BK@NGAGCMPP@Mix380AncExc10SuccessRate?$AA@
  005cb	68 00 00 00 00	 push	 OFFSET ??_C@_06MLPMCPDE@ExTeam?$AA@
  005d0	ff 15 00 00 00
	00		 call	 DWORD PTR __imp__GetPrivateProfileIntA@16
  005d6	8b 4d f8	 mov	 ecx, DWORD PTR _this$[ebp]
  005d9	89 41 30	 mov	 DWORD PTR [ecx+48], eax

; 296  : 	this->CommonServer.ExMixSocket10SuccessRate = GetPrivateProfileInt("ExTeam","MixSocket10SuccessRate",40,CommonServer_DIR);

  005dc	68 00 00 00 00	 push	 OFFSET ??_C@_0BK@PCGLKKEC@?4?4?2Data?2ExData?2Common?4ini?$AA@
  005e1	6a 28		 push	 40			; 00000028H
  005e3	68 00 00 00 00	 push	 OFFSET ??_C@_0BH@EMBAMNPJ@MixSocket10SuccessRate?$AA@
  005e8	68 00 00 00 00	 push	 OFFSET ??_C@_06MLPMCPDE@ExTeam?$AA@
  005ed	ff 15 00 00 00
	00		 call	 DWORD PTR __imp__GetPrivateProfileIntA@16
  005f3	8b 4d f8	 mov	 ecx, DWORD PTR _this$[ebp]
  005f6	89 41 34	 mov	 DWORD PTR [ecx+52], eax

; 297  : 	this->CommonServer.ExMixNormal11SuccessRate = GetPrivateProfileInt("ExTeam","MixNormal11SuccessRate",60,CommonServer_DIR);

  005f9	68 00 00 00 00	 push	 OFFSET ??_C@_0BK@PCGLKKEC@?4?4?2Data?2ExData?2Common?4ini?$AA@
  005fe	6a 3c		 push	 60			; 0000003cH
  00600	68 00 00 00 00	 push	 OFFSET ??_C@_0BH@POAOPLEK@MixNormal11SuccessRate?$AA@
  00605	68 00 00 00 00	 push	 OFFSET ??_C@_06MLPMCPDE@ExTeam?$AA@
  0060a	ff 15 00 00 00
	00		 call	 DWORD PTR __imp__GetPrivateProfileIntA@16
  00610	8b 4d f8	 mov	 ecx, DWORD PTR _this$[ebp]
  00613	89 41 38	 mov	 DWORD PTR [ecx+56], eax

; 298  : 	this->CommonServer.ExMix380AncExc11SuccessRate = GetPrivateProfileInt("ExTeam","Mix380AncExc11SuccessRate",50,CommonServer_DIR);

  00616	68 00 00 00 00	 push	 OFFSET ??_C@_0BK@PCGLKKEC@?4?4?2Data?2ExData?2Common?4ini?$AA@
  0061b	6a 32		 push	 50			; 00000032H
  0061d	68 00 00 00 00	 push	 OFFSET ??_C@_0BK@LJAPFHK@Mix380AncExc11SuccessRate?$AA@
  00622	68 00 00 00 00	 push	 OFFSET ??_C@_06MLPMCPDE@ExTeam?$AA@
  00627	ff 15 00 00 00
	00		 call	 DWORD PTR __imp__GetPrivateProfileIntA@16
  0062d	8b 4d f8	 mov	 ecx, DWORD PTR _this$[ebp]
  00630	89 41 3c	 mov	 DWORD PTR [ecx+60], eax

; 299  : 	this->CommonServer.ExMixSocket11SuccessRate = GetPrivateProfileInt("ExTeam","MixSocket11SuccessRate",40,CommonServer_DIR);

  00633	68 00 00 00 00	 push	 OFFSET ??_C@_0BK@PCGLKKEC@?4?4?2Data?2ExData?2Common?4ini?$AA@
  00638	6a 28		 push	 40			; 00000028H
  0063a	68 00 00 00 00	 push	 OFFSET ??_C@_0BH@JBIGBEHM@MixSocket11SuccessRate?$AA@
  0063f	68 00 00 00 00	 push	 OFFSET ??_C@_06MLPMCPDE@ExTeam?$AA@
  00644	ff 15 00 00 00
	00		 call	 DWORD PTR __imp__GetPrivateProfileIntA@16
  0064a	8b 4d f8	 mov	 ecx, DWORD PTR _this$[ebp]
  0064d	89 41 40	 mov	 DWORD PTR [ecx+64], eax

; 300  : 	this->CommonServer.ExMixNormal12SuccessRate = GetPrivateProfileInt("ExTeam","MixNormal12SuccessRate",60,CommonServer_DIR);

  00650	68 00 00 00 00	 push	 OFFSET ??_C@_0BK@PCGLKKEC@?4?4?2Data?2ExData?2Common?4ini?$AA@
  00655	6a 3c		 push	 60			; 0000003cH
  00657	68 00 00 00 00	 push	 OFFSET ??_C@_0BH@EDMEJHIE@MixNormal12SuccessRate?$AA@
  0065c	68 00 00 00 00	 push	 OFFSET ??_C@_06MLPMCPDE@ExTeam?$AA@
  00661	ff 15 00 00 00
	00		 call	 DWORD PTR __imp__GetPrivateProfileIntA@16
  00667	8b 4d f8	 mov	 ecx, DWORD PTR _this$[ebp]
  0066a	89 41 44	 mov	 DWORD PTR [ecx+68], eax

; 301  : 	this->CommonServer.ExMix380AncExc12SuccessRate = GetPrivateProfileInt("ExTeam","Mix380AncExc12SuccessRate",50,CommonServer_DIR);

  0066d	68 00 00 00 00	 push	 OFFSET ??_C@_0BK@PCGLKKEC@?4?4?2Data?2ExData?2Common?4ini?$AA@
  00672	6a 32		 push	 50			; 00000032H
  00674	68 00 00 00 00	 push	 OFFSET ??_C@_0BK@LGFKJJLE@Mix380AncExc12SuccessRate?$AA@
  00679	68 00 00 00 00	 push	 OFFSET ??_C@_06MLPMCPDE@ExTeam?$AA@
  0067e	ff 15 00 00 00
	00		 call	 DWORD PTR __imp__GetPrivateProfileIntA@16
  00684	8b 4d f8	 mov	 ecx, DWORD PTR _this$[ebp]
  00687	89 41 48	 mov	 DWORD PTR [ecx+72], eax

; 302  : 	this->CommonServer.ExMixSocket12SuccessRate = GetPrivateProfileInt("ExTeam","MixSocket12SuccessRate",40,CommonServer_DIR);

  0068a	68 00 00 00 00	 push	 OFFSET ??_C@_0BK@PCGLKKEC@?4?4?2Data?2ExData?2Common?4ini?$AA@
  0068f	6a 28		 push	 40			; 00000028H
  00691	68 00 00 00 00	 push	 OFFSET ??_C@_0BH@CMEMHILC@MixSocket12SuccessRate?$AA@
  00696	68 00 00 00 00	 push	 OFFSET ??_C@_06MLPMCPDE@ExTeam?$AA@
  0069b	ff 15 00 00 00
	00		 call	 DWORD PTR __imp__GetPrivateProfileIntA@16
  006a1	8b 4d f8	 mov	 ecx, DWORD PTR _this$[ebp]
  006a4	89 41 4c	 mov	 DWORD PTR [ecx+76], eax

; 303  : 	this->CommonServer.ExMixNormal13SuccessRate = GetPrivateProfileInt("ExTeam","MixNormal13SuccessRate",55,CommonServer_DIR);

  006a7	68 00 00 00 00	 push	 OFFSET ??_C@_0BK@PCGLKKEC@?4?4?2Data?2ExData?2Common?4ini?$AA@
  006ac	6a 37		 push	 55			; 00000037H
  006ae	68 00 00 00 00	 push	 OFFSET ??_C@_0BH@JOFCEOAB@MixNormal13SuccessRate?$AA@
  006b3	68 00 00 00 00	 push	 OFFSET ??_C@_06MLPMCPDE@ExTeam?$AA@
  006b8	ff 15 00 00 00
	00		 call	 DWORD PTR __imp__GetPrivateProfileIntA@16
  006be	8b 4d f8	 mov	 ecx, DWORD PTR _this$[ebp]
  006c1	89 41 50	 mov	 DWORD PTR [ecx+80], eax

; 304  : 	this->CommonServer.ExMix380AncExc13SuccessRate = GetPrivateProfileInt("ExTeam","Mix380AncExc13SuccessRate",50,CommonServer_DIR);

  006c4	68 00 00 00 00	 push	 OFFSET ??_C@_0BK@PCGLKKEC@?4?4?2Data?2ExData?2Common?4ini?$AA@
  006c9	6a 32		 push	 50			; 00000032H
  006cb	68 00 00 00 00	 push	 OFFSET ??_C@_0BK@GLMMEADB@Mix380AncExc13SuccessRate?$AA@
  006d0	68 00 00 00 00	 push	 OFFSET ??_C@_06MLPMCPDE@ExTeam?$AA@
  006d5	ff 15 00 00 00
	00		 call	 DWORD PTR __imp__GetPrivateProfileIntA@16
  006db	8b 4d f8	 mov	 ecx, DWORD PTR _this$[ebp]
  006de	89 41 54	 mov	 DWORD PTR [ecx+84], eax

; 305  : 	this->CommonServer.ExMixSocket13SuccessRate = GetPrivateProfileInt("ExTeam","MixSocket13SuccessRate",35,CommonServer_DIR);

  006e1	68 00 00 00 00	 push	 OFFSET ??_C@_0BK@PCGLKKEC@?4?4?2Data?2ExData?2Common?4ini?$AA@
  006e6	6a 23		 push	 35			; 00000023H
  006e8	68 00 00 00 00	 push	 OFFSET ??_C@_0BH@PBNKKBDH@MixSocket13SuccessRate?$AA@
  006ed	68 00 00 00 00	 push	 OFFSET ??_C@_06MLPMCPDE@ExTeam?$AA@
  006f2	ff 15 00 00 00
	00		 call	 DWORD PTR __imp__GetPrivateProfileIntA@16
  006f8	8b 4d f8	 mov	 ecx, DWORD PTR _this$[ebp]
  006fb	89 41 58	 mov	 DWORD PTR [ecx+88], eax

; 306  : 
; 307  : 	//Season 5 +15 Items
; 308  : 	this->CommonServer.ExMixNormal14SuccessRate = GetPrivateProfileInt("ExTeam","MixNormal14SuccessRate",55,CommonServer_DIR);

  006fe	68 00 00 00 00	 push	 OFFSET ??_C@_0BK@PCGLKKEC@?4?4?2Data?2ExData?2Common?4ini?$AA@
  00703	6a 37		 push	 55			; 00000037H
  00705	68 00 00 00 00	 push	 OFFSET ??_C@_0BH@ODCBEIFJ@MixNormal14SuccessRate?$AA@
  0070a	68 00 00 00 00	 push	 OFFSET ??_C@_06MLPMCPDE@ExTeam?$AA@
  0070f	ff 15 00 00 00
	00		 call	 DWORD PTR __imp__GetPrivateProfileIntA@16
  00715	8b 4d f8	 mov	 ecx, DWORD PTR _this$[ebp]
  00718	89 41 5c	 mov	 DWORD PTR [ecx+92], eax

; 309  : 	this->CommonServer.ExMix380AncExc14SuccessRate = GetPrivateProfileInt("ExTeam","Mix380AncExc14SuccessRate",50,CommonServer_DIR);

  0071b	68 00 00 00 00	 push	 OFFSET ??_C@_0BK@PCGLKKEC@?4?4?2Data?2ExData?2Common?4ini?$AA@
  00720	6a 32		 push	 50			; 00000032H
  00722	68 00 00 00 00	 push	 OFFSET ??_C@_0BK@BGLPEGGJ@Mix380AncExc14SuccessRate?$AA@
  00727	68 00 00 00 00	 push	 OFFSET ??_C@_06MLPMCPDE@ExTeam?$AA@
  0072c	ff 15 00 00 00
	00		 call	 DWORD PTR __imp__GetPrivateProfileIntA@16
  00732	8b 4d f8	 mov	 ecx, DWORD PTR _this$[ebp]
  00735	89 41 60	 mov	 DWORD PTR [ecx+96], eax

; 310  : 	this->CommonServer.ExMixSocket14SuccessRate = GetPrivateProfileInt("ExTeam","MixSocket14SuccessRate",35,CommonServer_DIR);

  00738	68 00 00 00 00	 push	 OFFSET ??_C@_0BK@PCGLKKEC@?4?4?2Data?2ExData?2Common?4ini?$AA@
  0073d	6a 23		 push	 35			; 00000023H
  0073f	68 00 00 00 00	 push	 OFFSET ??_C@_0BH@IMKJKHGP@MixSocket14SuccessRate?$AA@
  00744	68 00 00 00 00	 push	 OFFSET ??_C@_06MLPMCPDE@ExTeam?$AA@
  00749	ff 15 00 00 00
	00		 call	 DWORD PTR __imp__GetPrivateProfileIntA@16
  0074f	8b 4d f8	 mov	 ecx, DWORD PTR _this$[ebp]
  00752	89 41 64	 mov	 DWORD PTR [ecx+100], eax

; 311  : 	this->CommonServer.ExMixNormal15SuccessRate = GetPrivateProfileInt("ExTeam","MixNormal15SuccessRate",55,CommonServer_DIR);

  00755	68 00 00 00 00	 push	 OFFSET ??_C@_0BK@PCGLKKEC@?4?4?2Data?2ExData?2Common?4ini?$AA@
  0075a	6a 37		 push	 55			; 00000037H
  0075c	68 00 00 00 00	 push	 OFFSET ??_C@_0BH@DOLHJBNM@MixNormal15SuccessRate?$AA@
  00761	68 00 00 00 00	 push	 OFFSET ??_C@_06MLPMCPDE@ExTeam?$AA@
  00766	ff 15 00 00 00
	00		 call	 DWORD PTR __imp__GetPrivateProfileIntA@16
  0076c	8b 4d f8	 mov	 ecx, DWORD PTR _this$[ebp]
  0076f	89 41 68	 mov	 DWORD PTR [ecx+104], eax

; 312  : 	this->CommonServer.ExMix380AncExc15SuccessRate = GetPrivateProfileInt("ExTeam","Mix380AncExc15SuccessRate",50,CommonServer_DIR);

  00772	68 00 00 00 00	 push	 OFFSET ??_C@_0BK@PCGLKKEC@?4?4?2Data?2ExData?2Common?4ini?$AA@
  00777	6a 32		 push	 50			; 00000032H
  00779	68 00 00 00 00	 push	 OFFSET ??_C@_0BK@MLCJJPOM@Mix380AncExc15SuccessRate?$AA@
  0077e	68 00 00 00 00	 push	 OFFSET ??_C@_06MLPMCPDE@ExTeam?$AA@
  00783	ff 15 00 00 00
	00		 call	 DWORD PTR __imp__GetPrivateProfileIntA@16
  00789	8b 4d f8	 mov	 ecx, DWORD PTR _this$[ebp]
  0078c	89 41 6c	 mov	 DWORD PTR [ecx+108], eax

; 313  : 	this->CommonServer.ExMixSocket15SuccessRate = GetPrivateProfileInt("ExTeam","MixSocket15SuccessRate",35,CommonServer_DIR);

  0078f	68 00 00 00 00	 push	 OFFSET ??_C@_0BK@PCGLKKEC@?4?4?2Data?2ExData?2Common?4ini?$AA@
  00794	6a 23		 push	 35			; 00000023H
  00796	68 00 00 00 00	 push	 OFFSET ??_C@_0BH@FBDPHOOK@MixSocket15SuccessRate?$AA@
  0079b	68 00 00 00 00	 push	 OFFSET ??_C@_06MLPMCPDE@ExTeam?$AA@
  007a0	ff 15 00 00 00
	00		 call	 DWORD PTR __imp__GetPrivateProfileIntA@16
  007a6	8b 4d f8	 mov	 ecx, DWORD PTR _this$[ebp]
  007a9	89 41 70	 mov	 DWORD PTR [ecx+112], eax

; 314  : 
; 315  : 	this->CommonServer.ExMixLuckOptRateAdd = GetPrivateProfileInt("ExTeam","MixLuckOptRateAdd",20,CommonServer_DIR);

  007ac	68 00 00 00 00	 push	 OFFSET ??_C@_0BK@PCGLKKEC@?4?4?2Data?2ExData?2Common?4ini?$AA@
  007b1	6a 14		 push	 20			; 00000014H
  007b3	68 00 00 00 00	 push	 OFFSET ??_C@_0BC@OMCNANPE@MixLuckOptRateAdd?$AA@
  007b8	68 00 00 00 00	 push	 OFFSET ??_C@_06MLPMCPDE@ExTeam?$AA@
  007bd	ff 15 00 00 00
	00		 call	 DWORD PTR __imp__GetPrivateProfileIntA@16
  007c3	8b 4d f8	 mov	 ecx, DWORD PTR _this$[ebp]
  007c6	89 41 74	 mov	 DWORD PTR [ecx+116], eax

; 316  : 	this->CommonServer.ExMixMaxSuccessRate = GetPrivateProfileInt("ExTeam","MixMaxSuccessRate",75,CommonServer_DIR);

  007c9	68 00 00 00 00	 push	 OFFSET ??_C@_0BK@PCGLKKEC@?4?4?2Data?2ExData?2Common?4ini?$AA@
  007ce	6a 4b		 push	 75			; 0000004bH
  007d0	68 00 00 00 00	 push	 OFFSET ??_C@_0BC@HBJMIEIB@MixMaxSuccessRate?$AA@
  007d5	68 00 00 00 00	 push	 OFFSET ??_C@_06MLPMCPDE@ExTeam?$AA@
  007da	ff 15 00 00 00
	00		 call	 DWORD PTR __imp__GetPrivateProfileIntA@16
  007e0	8b 4d f8	 mov	 ecx, DWORD PTR _this$[ebp]
  007e3	89 41 78	 mov	 DWORD PTR [ecx+120], eax

; 317  : 	this->CommonServer.ExWing2MaxSuccessRate = GetPrivateProfileInt("ExTeam","Wing2MaxSuccessRate",90,CommonServer_DIR);

  007e6	68 00 00 00 00	 push	 OFFSET ??_C@_0BK@PCGLKKEC@?4?4?2Data?2ExData?2Common?4ini?$AA@
  007eb	6a 5a		 push	 90			; 0000005aH
  007ed	68 00 00 00 00	 push	 OFFSET ??_C@_0BE@LEMOKLBC@Wing2MaxSuccessRate?$AA@
  007f2	68 00 00 00 00	 push	 OFFSET ??_C@_06MLPMCPDE@ExTeam?$AA@
  007f7	ff 15 00 00 00
	00		 call	 DWORD PTR __imp__GetPrivateProfileIntA@16
  007fd	8b 4d f8	 mov	 ecx, DWORD PTR _this$[ebp]
  00800	89 41 7c	 mov	 DWORD PTR [ecx+124], eax

; 318  : 	this->CommonServer.ExDarkHorseMixSuccessRate = GetPrivateProfileInt("ExTeam","DarkHorseMixSuccessRate",60,CommonServer_DIR);

  00803	68 00 00 00 00	 push	 OFFSET ??_C@_0BK@PCGLKKEC@?4?4?2Data?2ExData?2Common?4ini?$AA@
  00808	6a 3c		 push	 60			; 0000003cH
  0080a	68 00 00 00 00	 push	 OFFSET ??_C@_0BI@GCJANFMA@DarkHorseMixSuccessRate?$AA@
  0080f	68 00 00 00 00	 push	 OFFSET ??_C@_06MLPMCPDE@ExTeam?$AA@
  00814	ff 15 00 00 00
	00		 call	 DWORD PTR __imp__GetPrivateProfileIntA@16
  0081a	8b 4d f8	 mov	 ecx, DWORD PTR _this$[ebp]
  0081d	89 81 80 00 00
	00		 mov	 DWORD PTR [ecx+128], eax

; 319  : 	this->CommonServer.ExDarkSpiritMixSuccessRate = GetPrivateProfileInt("ExTeam","DarkSpiritMixSuccessRate",60,CommonServer_DIR);

  00823	68 00 00 00 00	 push	 OFFSET ??_C@_0BK@PCGLKKEC@?4?4?2Data?2ExData?2Common?4ini?$AA@
  00828	6a 3c		 push	 60			; 0000003cH
  0082a	68 00 00 00 00	 push	 OFFSET ??_C@_0BJ@GACBIDHJ@DarkSpiritMixSuccessRate?$AA@
  0082f	68 00 00 00 00	 push	 OFFSET ??_C@_06MLPMCPDE@ExTeam?$AA@
  00834	ff 15 00 00 00
	00		 call	 DWORD PTR __imp__GetPrivateProfileIntA@16
  0083a	8b 4d f8	 mov	 ecx, DWORD PTR _this$[ebp]
  0083d	89 81 84 00 00
	00		 mov	 DWORD PTR [ecx+132], eax

; 320  : 	this->CommonServer.ExFeatherofCondorMixMaxPercent = GetPrivateProfileInt("ExTeam","FeatherofCondorMixMaxPercent",60,CommonServer_DIR);

  00843	68 00 00 00 00	 push	 OFFSET ??_C@_0BK@PCGLKKEC@?4?4?2Data?2ExData?2Common?4ini?$AA@
  00848	6a 3c		 push	 60			; 0000003cH
  0084a	68 00 00 00 00	 push	 OFFSET ??_C@_0BN@HCIIKEKG@FeatherofCondorMixMaxPercent?$AA@
  0084f	68 00 00 00 00	 push	 OFFSET ??_C@_06MLPMCPDE@ExTeam?$AA@
  00854	ff 15 00 00 00
	00		 call	 DWORD PTR __imp__GetPrivateProfileIntA@16
  0085a	8b 4d f8	 mov	 ecx, DWORD PTR _this$[ebp]
  0085d	89 81 88 00 00
	00		 mov	 DWORD PTR [ecx+136], eax

; 321  : 	this->CommonServer.ExWingLv3MixMaxPercent = GetPrivateProfileInt("ExTeam","WingLv3MixMaxPercent",40,CommonServer_DIR);

  00863	68 00 00 00 00	 push	 OFFSET ??_C@_0BK@PCGLKKEC@?4?4?2Data?2ExData?2Common?4ini?$AA@
  00868	6a 28		 push	 40			; 00000028H
  0086a	68 00 00 00 00	 push	 OFFSET ??_C@_0BF@PLBFDKPB@WingLv3MixMaxPercent?$AA@
  0086f	68 00 00 00 00	 push	 OFFSET ??_C@_06MLPMCPDE@ExTeam?$AA@
  00874	ff 15 00 00 00
	00		 call	 DWORD PTR __imp__GetPrivateProfileIntA@16
  0087a	8b 4d f8	 mov	 ecx, DWORD PTR _this$[ebp]
  0087d	89 81 8c 00 00
	00		 mov	 DWORD PTR [ecx+140], eax

; 322  : 	this->CommonServer.ExDinorantMixRate = GetPrivateProfileInt("ExTeam","DinorantMixRate",70,CommonServer_DIR);

  00883	68 00 00 00 00	 push	 OFFSET ??_C@_0BK@PCGLKKEC@?4?4?2Data?2ExData?2Common?4ini?$AA@
  00888	6a 46		 push	 70			; 00000046H
  0088a	68 00 00 00 00	 push	 OFFSET ??_C@_0BA@EJDEHLBF@DinorantMixRate?$AA@
  0088f	68 00 00 00 00	 push	 OFFSET ??_C@_06MLPMCPDE@ExTeam?$AA@
  00894	ff 15 00 00 00
	00		 call	 DWORD PTR __imp__GetPrivateProfileIntA@16
  0089a	8b 4d f8	 mov	 ecx, DWORD PTR _this$[ebp]
  0089d	89 81 90 00 00
	00		 mov	 DWORD PTR [ecx+144], eax

; 323  : 
; 324  : 	this->CommonServer.Wing2_5MaxSuccessRate = GetPrivateProfileInt("ExTeam","Wing2_5MaxSuccessRate",60,CommonServer_DIR);

  008a3	68 00 00 00 00	 push	 OFFSET ??_C@_0BK@PCGLKKEC@?4?4?2Data?2ExData?2Common?4ini?$AA@
  008a8	6a 3c		 push	 60			; 0000003cH
  008aa	68 00 00 00 00	 push	 OFFSET ??_C@_0BG@PAGEHNCK@Wing2_5MaxSuccessRate?$AA@
  008af	68 00 00 00 00	 push	 OFFSET ??_C@_06MLPMCPDE@ExTeam?$AA@
  008b4	ff 15 00 00 00
	00		 call	 DWORD PTR __imp__GetPrivateProfileIntA@16
  008ba	8b 4d f8	 mov	 ecx, DWORD PTR _this$[ebp]
  008bd	89 81 94 00 00
	00		 mov	 DWORD PTR [ecx+148], eax

; 325  : 	this->CommonServer.Wing4MaxSuccessRate = GetPrivateProfileInt("ExTeam","Wing4MaxSuccessRate",40,CommonServer_DIR);

  008c3	68 00 00 00 00	 push	 OFFSET ??_C@_0BK@PCGLKKEC@?4?4?2Data?2ExData?2Common?4ini?$AA@
  008c8	6a 28		 push	 40			; 00000028H
  008ca	68 00 00 00 00	 push	 OFFSET ??_C@_0BE@OHFPMCPG@Wing4MaxSuccessRate?$AA@
  008cf	68 00 00 00 00	 push	 OFFSET ??_C@_06MLPMCPDE@ExTeam?$AA@
  008d4	ff 15 00 00 00
	00		 call	 DWORD PTR __imp__GetPrivateProfileIntA@16
  008da	8b 4d f8	 mov	 ecx, DWORD PTR _this$[ebp]
  008dd	89 81 98 00 00
	00		 mov	 DWORD PTR [ecx+152], eax

; 326  : 	this->CommonServer.Wing5MaxSuccessRate = GetPrivateProfileInt("ExTeam","Wing5MaxSuccessRate",40,CommonServer_DIR);

  008e3	68 00 00 00 00	 push	 OFFSET ??_C@_0BK@PCGLKKEC@?4?4?2Data?2ExData?2Common?4ini?$AA@
  008e8	6a 28		 push	 40			; 00000028H
  008ea	68 00 00 00 00	 push	 OFFSET ??_C@_0BE@EJDHFDGH@Wing5MaxSuccessRate?$AA@
  008ef	68 00 00 00 00	 push	 OFFSET ??_C@_06MLPMCPDE@ExTeam?$AA@
  008f4	ff 15 00 00 00
	00		 call	 DWORD PTR __imp__GetPrivateProfileIntA@16
  008fa	8b 4d f8	 mov	 ecx, DWORD PTR _this$[ebp]
  008fd	89 81 9c 00 00
	00		 mov	 DWORD PTR [ecx+156], eax

; 327  : 
; 328  : 	this->CommonServer.Ex_MasterDropZen = GetPrivateProfileInt("ExTeam","MasterDropZen",100,CommonServer_DIR);

  00903	68 00 00 00 00	 push	 OFFSET ??_C@_0BK@PCGLKKEC@?4?4?2Data?2ExData?2Common?4ini?$AA@
  00908	6a 64		 push	 100			; 00000064H
  0090a	68 00 00 00 00	 push	 OFFSET ??_C@_0O@DIFEKECK@MasterDropZen?$AA@
  0090f	68 00 00 00 00	 push	 OFFSET ??_C@_06MLPMCPDE@ExTeam?$AA@
  00914	ff 15 00 00 00
	00		 call	 DWORD PTR __imp__GetPrivateProfileIntA@16
  0091a	8b 4d f8	 mov	 ecx, DWORD PTR _this$[ebp]
  0091d	89 81 a0 00 00
	00		 mov	 DWORD PTR [ecx+160], eax

; 329  : 
; 330  : 	GetPrivateProfileString("Guard", "GuardMessage","Welcome to Ex-Games",this->CommonServer.GuardMessage,50,CommonServer_DIR);

  00923	68 00 00 00 00	 push	 OFFSET ??_C@_0BK@PCGLKKEC@?4?4?2Data?2ExData?2Common?4ini?$AA@
  00928	6a 32		 push	 50			; 00000032H
  0092a	8b 45 f8	 mov	 eax, DWORD PTR _this$[ebp]
  0092d	05 a4 00 00 00	 add	 eax, 164		; 000000a4H
  00932	50		 push	 eax
  00933	68 00 00 00 00	 push	 OFFSET ??_C@_0BE@CDCKDDPK@Welcome?5to?5Ex?9Games?$AA@
  00938	68 00 00 00 00	 push	 OFFSET ??_C@_0N@GAKPJHLA@GuardMessage?$AA@
  0093d	68 00 00 00 00	 push	 OFFSET ??_C@_05LICMIJMM@Guard?$AA@
  00942	ff 15 00 00 00
	00		 call	 DWORD PTR __imp__GetPrivateProfileStringA@24

; 331  : 
; 332  : 	this->CommonServer.KundunAncDrop = GetPrivateProfileInt("ExTeam","KundunAncDrop",2500,CommonServer_DIR);

  00948	68 00 00 00 00	 push	 OFFSET ??_C@_0BK@PCGLKKEC@?4?4?2Data?2ExData?2Common?4ini?$AA@
  0094d	68 c4 09 00 00	 push	 2500			; 000009c4H
  00952	68 00 00 00 00	 push	 OFFSET ??_C@_0O@JCJOCALP@KundunAncDrop?$AA@
  00957	68 00 00 00 00	 push	 OFFSET ??_C@_06MLPMCPDE@ExTeam?$AA@
  0095c	ff 15 00 00 00
	00		 call	 DWORD PTR __imp__GetPrivateProfileIntA@16
  00962	8b 4d f8	 mov	 ecx, DWORD PTR _this$[ebp]
  00965	89 81 d8 00 00
	00		 mov	 DWORD PTR [ecx+216], eax

; 333  : 
; 334  : 	this->CommonServer.DisatanceObjViewe = GetPrivateProfileInt("ExTeam","DisatanceObjViewe",15,CommonServer_DIR);

  0096b	68 00 00 00 00	 push	 OFFSET ??_C@_0BK@PCGLKKEC@?4?4?2Data?2ExData?2Common?4ini?$AA@
  00970	6a 0f		 push	 15			; 0000000fH
  00972	68 00 00 00 00	 push	 OFFSET ??_C@_0BC@JONOACBC@DisatanceObjViewe?$AA@
  00977	68 00 00 00 00	 push	 OFFSET ??_C@_06MLPMCPDE@ExTeam?$AA@
  0097c	ff 15 00 00 00
	00		 call	 DWORD PTR __imp__GetPrivateProfileIntA@16
  00982	8b 4d f8	 mov	 ecx, DWORD PTR _this$[ebp]
  00985	89 81 dc 00 00
	00		 mov	 DWORD PTR [ecx+220], eax

; 335  : 
; 336  : 	this->CommonServer.MarlonQuestReset = GetPrivateProfileInt("ExTeam","MarlonQuestReset",0,CommonServer_DIR);

  0098b	68 00 00 00 00	 push	 OFFSET ??_C@_0BK@PCGLKKEC@?4?4?2Data?2ExData?2Common?4ini?$AA@
  00990	6a 00		 push	 0
  00992	68 00 00 00 00	 push	 OFFSET ??_C@_0BB@OHNOBAOE@MarlonQuestReset?$AA@
  00997	68 00 00 00 00	 push	 OFFSET ??_C@_06MLPMCPDE@ExTeam?$AA@
  0099c	ff 15 00 00 00
	00		 call	 DWORD PTR __imp__GetPrivateProfileIntA@16
  009a2	85 c0		 test	 eax, eax
  009a4	0f 95 c0	 setne	 al
  009a7	8b 4d f8	 mov	 ecx, DWORD PTR _this$[ebp]
  009aa	88 81 e0 00 00
	00		 mov	 BYTE PTR [ecx+224], al

; 337  : 
; 338  : 	this->CommonServer.MaxDropZen = GetPrivateProfileInt("ExTeam","MaxDropZen",1000000,CommonServer_DIR);

  009b0	68 00 00 00 00	 push	 OFFSET ??_C@_0BK@PCGLKKEC@?4?4?2Data?2ExData?2Common?4ini?$AA@
  009b5	68 40 42 0f 00	 push	 1000000			; 000f4240H
  009ba	68 00 00 00 00	 push	 OFFSET ??_C@_0L@DLHIOEAJ@MaxDropZen?$AA@
  009bf	68 00 00 00 00	 push	 OFFSET ??_C@_06MLPMCPDE@ExTeam?$AA@
  009c4	ff 15 00 00 00
	00		 call	 DWORD PTR __imp__GetPrivateProfileIntA@16
  009ca	8b 4d f8	 mov	 ecx, DWORD PTR _this$[ebp]
  009cd	89 81 e4 00 00
	00		 mov	 DWORD PTR [ecx+228], eax

; 339  : 	this->CommonServer.ProcentDropZen = GetPrivateProfileInt("ExTeam", "ProcentDropZen", 100, CommonServer_DIR);

  009d3	68 00 00 00 00	 push	 OFFSET ??_C@_0BK@PCGLKKEC@?4?4?2Data?2ExData?2Common?4ini?$AA@
  009d8	6a 64		 push	 100			; 00000064H
  009da	68 00 00 00 00	 push	 OFFSET ??_C@_0P@FPJLLCEA@ProcentDropZen?$AA@
  009df	68 00 00 00 00	 push	 OFFSET ??_C@_06MLPMCPDE@ExTeam?$AA@
  009e4	ff 15 00 00 00
	00		 call	 DWORD PTR __imp__GetPrivateProfileIntA@16
  009ea	8b 4d f8	 mov	 ecx, DWORD PTR _this$[ebp]
  009ed	89 81 e8 00 00
	00		 mov	 DWORD PTR [ecx+232], eax

; 340  : 	if (this->CommonServer.ProcentDropZen <= 0)

  009f3	8b 45 f8	 mov	 eax, DWORD PTR _this$[ebp]
  009f6	83 b8 e8 00 00
	00 00		 cmp	 DWORD PTR [eax+232], 0
  009fd	7f 0d		 jg	 SHORT $LN36@LoadConfig

; 341  : 	{
; 342  : 		this->CommonServer.ProcentDropZen = 0;

  009ff	8b 45 f8	 mov	 eax, DWORD PTR _this$[ebp]
  00a02	c7 80 e8 00 00
	00 00 00 00 00	 mov	 DWORD PTR [eax+232], 0
$LN36@LoadConfig:

; 343  : 	}
; 344  : 
; 345  : 	this->CommonServer.CountItemDropSelupan = GetPrivateProfileInt("ExTeam","CountItemDropSelupan",10,CommonServer_DIR);

  00a0c	68 00 00 00 00	 push	 OFFSET ??_C@_0BK@PCGLKKEC@?4?4?2Data?2ExData?2Common?4ini?$AA@
  00a11	6a 0a		 push	 10			; 0000000aH
  00a13	68 00 00 00 00	 push	 OFFSET ??_C@_0BF@CDBGPNPC@CountItemDropSelupan?$AA@
  00a18	68 00 00 00 00	 push	 OFFSET ??_C@_06MLPMCPDE@ExTeam?$AA@
  00a1d	ff 15 00 00 00
	00		 call	 DWORD PTR __imp__GetPrivateProfileIntA@16
  00a23	8b 4d f8	 mov	 ecx, DWORD PTR _this$[ebp]
  00a26	89 81 ec 00 00
	00		 mov	 DWORD PTR [ecx+236], eax

; 346  : 	this->CommonServer.CountItemDropKundun = GetPrivateProfileInt("ExTeam","CountItemDropKundun",3,CommonServer_DIR);

  00a2c	68 00 00 00 00	 push	 OFFSET ??_C@_0BK@PCGLKKEC@?4?4?2Data?2ExData?2Common?4ini?$AA@
  00a31	6a 03		 push	 3
  00a33	68 00 00 00 00	 push	 OFFSET ??_C@_0BE@CBEBGMCE@CountItemDropKundun?$AA@
  00a38	68 00 00 00 00	 push	 OFFSET ??_C@_06MLPMCPDE@ExTeam?$AA@
  00a3d	ff 15 00 00 00
	00		 call	 DWORD PTR __imp__GetPrivateProfileIntA@16
  00a43	8b 4d f8	 mov	 ecx, DWORD PTR _this$[ebp]
  00a46	89 81 f0 00 00
	00		 mov	 DWORD PTR [ecx+240], eax

; 347  : 	this->CommonServer.CountItemDropErohim = GetPrivateProfileInt("ExTeam","CountItemDropErohim",1,CommonServer_DIR);

  00a4c	68 00 00 00 00	 push	 OFFSET ??_C@_0BK@PCGLKKEC@?4?4?2Data?2ExData?2Common?4ini?$AA@
  00a51	6a 01		 push	 1
  00a53	68 00 00 00 00	 push	 OFFSET ??_C@_0BE@CFNMLIBO@CountItemDropErohim?$AA@
  00a58	68 00 00 00 00	 push	 OFFSET ??_C@_06MLPMCPDE@ExTeam?$AA@
  00a5d	ff 15 00 00 00
	00		 call	 DWORD PTR __imp__GetPrivateProfileIntA@16
  00a63	8b 4d f8	 mov	 ecx, DWORD PTR _this$[ebp]
  00a66	89 81 f4 00 00
	00		 mov	 DWORD PTR [ecx+244], eax

; 348  : 
; 349  : #if(_NEW_PT_SYSTEM_	==1)
; 350  : 	this->CommonServer.RePartyEnable = GetPrivateProfileInt("ExTeam","RePartyEnable",0,CommonServer_DIR);

  00a6c	68 00 00 00 00	 push	 OFFSET ??_C@_0BK@PCGLKKEC@?4?4?2Data?2ExData?2Common?4ini?$AA@
  00a71	6a 00		 push	 0
  00a73	68 00 00 00 00	 push	 OFFSET ??_C@_0O@PCMHEGFB@RePartyEnable?$AA@
  00a78	68 00 00 00 00	 push	 OFFSET ??_C@_06MLPMCPDE@ExTeam?$AA@
  00a7d	ff 15 00 00 00
	00		 call	 DWORD PTR __imp__GetPrivateProfileIntA@16
  00a83	8b 4d f8	 mov	 ecx, DWORD PTR _this$[ebp]
  00a86	89 81 f8 00 00
	00		 mov	 DWORD PTR [ecx+248], eax

; 351  : 	this->CommonServer.RePartyTime = GetPrivateProfileInt("ExTeam","RePartyTime",10,CommonServer_DIR) * 3600;

  00a8c	68 00 00 00 00	 push	 OFFSET ??_C@_0BK@PCGLKKEC@?4?4?2Data?2ExData?2Common?4ini?$AA@
  00a91	6a 0a		 push	 10			; 0000000aH
  00a93	68 00 00 00 00	 push	 OFFSET ??_C@_0M@IOKCPMBJ@RePartyTime?$AA@
  00a98	68 00 00 00 00	 push	 OFFSET ??_C@_06MLPMCPDE@ExTeam?$AA@
  00a9d	ff 15 00 00 00
	00		 call	 DWORD PTR __imp__GetPrivateProfileIntA@16
  00aa3	69 c0 10 0e 00
	00		 imul	 eax, 3600		; 00000e10H
  00aa9	8b 4d f8	 mov	 ecx, DWORD PTR _this$[ebp]
  00aac	89 81 fc 00 00
	00		 mov	 DWORD PTR [ecx+252], eax

; 352  : 	this->CommonServer.AutoSetLeader = GetPrivateProfileInt("ExTeam","AutoSetLeader",1,CommonServer_DIR);

  00ab2	68 00 00 00 00	 push	 OFFSET ??_C@_0BK@PCGLKKEC@?4?4?2Data?2ExData?2Common?4ini?$AA@
  00ab7	6a 01		 push	 1
  00ab9	68 00 00 00 00	 push	 OFFSET ??_C@_0O@EFBFEMGF@AutoSetLeader?$AA@
  00abe	68 00 00 00 00	 push	 OFFSET ??_C@_06MLPMCPDE@ExTeam?$AA@
  00ac3	ff 15 00 00 00
	00		 call	 DWORD PTR __imp__GetPrivateProfileIntA@16
  00ac9	8b 4d f8	 mov	 ecx, DWORD PTR _this$[ebp]
  00acc	89 81 00 01 00
	00		 mov	 DWORD PTR [ecx+256], eax

; 353  : 	this->CommonServer.CommandSetLeader = GetPrivateProfileInt("ExTeam","CommandSetLeader",1,CommonServer_DIR);

  00ad2	68 00 00 00 00	 push	 OFFSET ??_C@_0BK@PCGLKKEC@?4?4?2Data?2ExData?2Common?4ini?$AA@
  00ad7	6a 01		 push	 1
  00ad9	68 00 00 00 00	 push	 OFFSET ??_C@_0BB@MCHIAFN@CommandSetLeader?$AA@
  00ade	68 00 00 00 00	 push	 OFFSET ??_C@_06MLPMCPDE@ExTeam?$AA@
  00ae3	ff 15 00 00 00
	00		 call	 DWORD PTR __imp__GetPrivateProfileIntA@16
  00ae9	8b 4d f8	 mov	 ecx, DWORD PTR _this$[ebp]
  00aec	89 81 04 01 00
	00		 mov	 DWORD PTR [ecx+260], eax

; 354  : #endif
; 355  : 
; 356  : #if(_ARENA_ITEM_)
; 357  : 	this->CommonServer.ArenaItem = GetPrivateProfileInt("ExTeam","ArenaItem",-1,CommonServer_DIR);

  00af2	68 00 00 00 00	 push	 OFFSET ??_C@_0BK@PCGLKKEC@?4?4?2Data?2ExData?2Common?4ini?$AA@
  00af7	6a ff		 push	 -1
  00af9	68 00 00 00 00	 push	 OFFSET ??_C@_09BMIDEEAO@ArenaItem?$AA@
  00afe	68 00 00 00 00	 push	 OFFSET ??_C@_06MLPMCPDE@ExTeam?$AA@
  00b03	ff 15 00 00 00
	00		 call	 DWORD PTR __imp__GetPrivateProfileIntA@16
  00b09	8b 4d f8	 mov	 ecx, DWORD PTR _this$[ebp]
  00b0c	89 81 08 01 00
	00		 mov	 DWORD PTR [ecx+264], eax

; 358  : #endif
; 359  : 
; 360  : 	this->CommonServer.ReConnect = GetPrivateProfileInt("ExTeam","ReConnect",1,CommonServer_DIR);

  00b12	68 00 00 00 00	 push	 OFFSET ??_C@_0BK@PCGLKKEC@?4?4?2Data?2ExData?2Common?4ini?$AA@
  00b17	6a 01		 push	 1
  00b19	68 00 00 00 00	 push	 OFFSET ??_C@_09HEEKJFKJ@ReConnect?$AA@
  00b1e	68 00 00 00 00	 push	 OFFSET ??_C@_06MLPMCPDE@ExTeam?$AA@
  00b23	ff 15 00 00 00
	00		 call	 DWORD PTR __imp__GetPrivateProfileIntA@16
  00b29	85 c0		 test	 eax, eax
  00b2b	0f 95 c0	 setne	 al
  00b2e	8b 4d f8	 mov	 ecx, DWORD PTR _this$[ebp]
  00b31	88 81 0c 01 00
	00		 mov	 BYTE PTR [ecx+268], al

; 361  : 	
; 362  : 	this->CommonServer.ExlDropRate = GetPrivateProfileInt("ExTeam","ExlDropRate",10,CommonServer_DIR);

  00b37	68 00 00 00 00	 push	 OFFSET ??_C@_0BK@PCGLKKEC@?4?4?2Data?2ExData?2Common?4ini?$AA@
  00b3c	6a 0a		 push	 10			; 0000000aH
  00b3e	68 00 00 00 00	 push	 OFFSET ??_C@_0M@DCDMAILA@ExlDropRate?$AA@
  00b43	68 00 00 00 00	 push	 OFFSET ??_C@_06MLPMCPDE@ExTeam?$AA@
  00b48	ff 15 00 00 00
	00		 call	 DWORD PTR __imp__GetPrivateProfileIntA@16
  00b4e	8b 4d f8	 mov	 ecx, DWORD PTR _this$[ebp]
  00b51	89 81 10 01 00
	00		 mov	 DWORD PTR [ecx+272], eax

; 363  : 	this->CommonServer.PercentKillZen  = GetPrivateProfileInt("ExTeam","PercentKillZen",10,CommonServer_DIR);

  00b57	68 00 00 00 00	 push	 OFFSET ??_C@_0BK@PCGLKKEC@?4?4?2Data?2ExData?2Common?4ini?$AA@
  00b5c	6a 0a		 push	 10			; 0000000aH
  00b5e	68 00 00 00 00	 push	 OFFSET ??_C@_0P@DALCDAPN@PercentKillZen?$AA@
  00b63	68 00 00 00 00	 push	 OFFSET ??_C@_06MLPMCPDE@ExTeam?$AA@
  00b68	ff 15 00 00 00
	00		 call	 DWORD PTR __imp__GetPrivateProfileIntA@16
  00b6e	8b 4d f8	 mov	 ecx, DWORD PTR _this$[ebp]
  00b71	89 81 14 01 00
	00		 mov	 DWORD PTR [ecx+276], eax

; 364  : 
; 365  : #if(CUSTOM_NOOBBUFF)
; 366  : 	this->CommonServer.bNoobBuffEnable = GetPrivateProfileInt("ExTeam","NoobBuffEnable",0,CommonServer_DIR);

  00b77	68 00 00 00 00	 push	 OFFSET ??_C@_0BK@PCGLKKEC@?4?4?2Data?2ExData?2Common?4ini?$AA@
  00b7c	6a 00		 push	 0
  00b7e	68 00 00 00 00	 push	 OFFSET ??_C@_0P@NHEJBOPE@NoobBuffEnable?$AA@
  00b83	68 00 00 00 00	 push	 OFFSET ??_C@_06MLPMCPDE@ExTeam?$AA@
  00b88	ff 15 00 00 00
	00		 call	 DWORD PTR __imp__GetPrivateProfileIntA@16
  00b8e	85 c0		 test	 eax, eax
  00b90	0f 95 c0	 setne	 al
  00b93	8b 4d f8	 mov	 ecx, DWORD PTR _this$[ebp]
  00b96	88 81 18 01 00
	00		 mov	 BYTE PTR [ecx+280], al

; 367  : 	this->CommonServer.iNoobBuffMaxReset = GetPrivateProfileInt("ExTeam","NoobBuffMaxReset",1,CommonServer_DIR);

  00b9c	68 00 00 00 00	 push	 OFFSET ??_C@_0BK@PCGLKKEC@?4?4?2Data?2ExData?2Common?4ini?$AA@
  00ba1	6a 01		 push	 1
  00ba3	68 00 00 00 00	 push	 OFFSET ??_C@_0BB@GDDGHPJM@NoobBuffMaxReset?$AA@
  00ba8	68 00 00 00 00	 push	 OFFSET ??_C@_06MLPMCPDE@ExTeam?$AA@
  00bad	ff 15 00 00 00
	00		 call	 DWORD PTR __imp__GetPrivateProfileIntA@16
  00bb3	8b 4d f8	 mov	 ecx, DWORD PTR _this$[ebp]
  00bb6	89 81 1c 01 00
	00		 mov	 DWORD PTR [ecx+284], eax

; 368  : 	this->CommonServer.m_NoobDamage = GetPrivateProfileInt("ExTeam","NoobBuffDamagePercent",15,CommonServer_DIR);

  00bbc	68 00 00 00 00	 push	 OFFSET ??_C@_0BK@PCGLKKEC@?4?4?2Data?2ExData?2Common?4ini?$AA@
  00bc1	6a 0f		 push	 15			; 0000000fH
  00bc3	68 00 00 00 00	 push	 OFFSET ??_C@_0BG@IIMIEODH@NoobBuffDamagePercent?$AA@
  00bc8	68 00 00 00 00	 push	 OFFSET ??_C@_06MLPMCPDE@ExTeam?$AA@
  00bcd	ff 15 00 00 00
	00		 call	 DWORD PTR __imp__GetPrivateProfileIntA@16
  00bd3	8b 4d f8	 mov	 ecx, DWORD PTR _this$[ebp]
  00bd6	89 81 20 01 00
	00		 mov	 DWORD PTR [ecx+288], eax

; 369  : 	this->CommonServer.m_NoobDefence = GetPrivateProfileInt("ExTeam","NoobBuffDefencePercent",15,CommonServer_DIR);

  00bdc	68 00 00 00 00	 push	 OFFSET ??_C@_0BK@PCGLKKEC@?4?4?2Data?2ExData?2Common?4ini?$AA@
  00be1	6a 0f		 push	 15			; 0000000fH
  00be3	68 00 00 00 00	 push	 OFFSET ??_C@_0BH@PCNOGLEL@NoobBuffDefencePercent?$AA@
  00be8	68 00 00 00 00	 push	 OFFSET ??_C@_06MLPMCPDE@ExTeam?$AA@
  00bed	ff 15 00 00 00
	00		 call	 DWORD PTR __imp__GetPrivateProfileIntA@16
  00bf3	8b 4d f8	 mov	 ecx, DWORD PTR _this$[ebp]
  00bf6	89 81 24 01 00
	00		 mov	 DWORD PTR [ecx+292], eax

; 370  : #endif
; 371  : 
; 372  : #if(CUSTOM_POTIONTICK)
; 373  : 	this->CommonServer.PotionDelay = GetPrivateProfileInt("ExTeam","PotionDelay",0,CommonServer_DIR);

  00bfc	68 00 00 00 00	 push	 OFFSET ??_C@_0BK@PCGLKKEC@?4?4?2Data?2ExData?2Common?4ini?$AA@
  00c01	6a 00		 push	 0
  00c03	68 00 00 00 00	 push	 OFFSET ??_C@_0M@KFFOANIE@PotionDelay?$AA@
  00c08	68 00 00 00 00	 push	 OFFSET ??_C@_06MLPMCPDE@ExTeam?$AA@
  00c0d	ff 15 00 00 00
	00		 call	 DWORD PTR __imp__GetPrivateProfileIntA@16
  00c13	8b 4d f8	 mov	 ecx, DWORD PTR _this$[ebp]
  00c16	89 81 28 01 00
	00		 mov	 DWORD PTR [ecx+296], eax

; 374  : #endif
; 375  : 
; 376  : 	this->CommonServer.MarlonTeleport = GetPrivateProfileInt("ExTeam","MarlonTeleport",1,CommonServer_DIR);

  00c1c	68 00 00 00 00	 push	 OFFSET ??_C@_0BK@PCGLKKEC@?4?4?2Data?2ExData?2Common?4ini?$AA@
  00c21	6a 01		 push	 1
  00c23	68 00 00 00 00	 push	 OFFSET ??_C@_0P@NBNCCEMG@MarlonTeleport?$AA@
  00c28	68 00 00 00 00	 push	 OFFSET ??_C@_06MLPMCPDE@ExTeam?$AA@
  00c2d	ff 15 00 00 00
	00		 call	 DWORD PTR __imp__GetPrivateProfileIntA@16
  00c33	8b 4d f8	 mov	 ecx, DWORD PTR _this$[ebp]
  00c36	89 81 2c 01 00
	00		 mov	 DWORD PTR [ecx+300], eax

; 377  : 	this->CommonServer.CheckOtherGuildLand = GetPrivateProfileInt("ExTeam","CheckOtherGuildLand",0,CommonServer_DIR);

  00c3c	68 00 00 00 00	 push	 OFFSET ??_C@_0BK@PCGLKKEC@?4?4?2Data?2ExData?2Common?4ini?$AA@
  00c41	6a 00		 push	 0
  00c43	68 00 00 00 00	 push	 OFFSET ??_C@_0BE@OMLJFHBO@CheckOtherGuildLand?$AA@
  00c48	68 00 00 00 00	 push	 OFFSET ??_C@_06MLPMCPDE@ExTeam?$AA@
  00c4d	ff 15 00 00 00
	00		 call	 DWORD PTR __imp__GetPrivateProfileIntA@16
  00c53	8b 4d f8	 mov	 ecx, DWORD PTR _this$[ebp]
  00c56	89 81 30 01 00
	00		 mov	 DWORD PTR [ecx+304], eax

; 378  : 	
; 379  : 	this->m_iBloodCastleMaxUser = GetPrivateProfileInt("ExTeam","BloodCastleMaxUser",1,CommonServer_DIR);

  00c5c	68 00 00 00 00	 push	 OFFSET ??_C@_0BK@PCGLKKEC@?4?4?2Data?2ExData?2Common?4ini?$AA@
  00c61	6a 01		 push	 1
  00c63	68 00 00 00 00	 push	 OFFSET ??_C@_0BD@KBAOACND@BloodCastleMaxUser?$AA@
  00c68	68 00 00 00 00	 push	 OFFSET ??_C@_06MLPMCPDE@ExTeam?$AA@
  00c6d	ff 15 00 00 00
	00		 call	 DWORD PTR __imp__GetPrivateProfileIntA@16
  00c73	8b 4d f8	 mov	 ecx, DWORD PTR _this$[ebp]
  00c76	89 81 3c 0d 00
	00		 mov	 DWORD PTR [ecx+3388], eax

; 380  : 	this->m_iGuildMaxUser = GetPrivateProfileInt("ExTeam","GuildMaxUser",80,CommonServer_DIR);

  00c7c	68 00 00 00 00	 push	 OFFSET ??_C@_0BK@PCGLKKEC@?4?4?2Data?2ExData?2Common?4ini?$AA@
  00c81	6a 50		 push	 80			; 00000050H
  00c83	68 00 00 00 00	 push	 OFFSET ??_C@_0N@MPBFAGDG@GuildMaxUser?$AA@
  00c88	68 00 00 00 00	 push	 OFFSET ??_C@_06MLPMCPDE@ExTeam?$AA@
  00c8d	ff 15 00 00 00
	00		 call	 DWORD PTR __imp__GetPrivateProfileIntA@16
  00c93	8b 4d f8	 mov	 ecx, DWORD PTR _this$[ebp]
  00c96	89 81 40 0d 00
	00		 mov	 DWORD PTR [ecx+3392], eax

; 381  : 	this->m_iAllianceMaxGuild = GetPrivateProfileInt("ExTeam","AllianceMaxGuild",1,CommonServer_DIR);

  00c9c	68 00 00 00 00	 push	 OFFSET ??_C@_0BK@PCGLKKEC@?4?4?2Data?2ExData?2Common?4ini?$AA@
  00ca1	6a 01		 push	 1
  00ca3	68 00 00 00 00	 push	 OFFSET ??_C@_0BB@HCCLEKCI@AllianceMaxGuild?$AA@
  00ca8	68 00 00 00 00	 push	 OFFSET ??_C@_06MLPMCPDE@ExTeam?$AA@
  00cad	ff 15 00 00 00
	00		 call	 DWORD PTR __imp__GetPrivateProfileIntA@16
  00cb3	8b 4d f8	 mov	 ecx, DWORD PTR _this$[ebp]
  00cb6	89 81 44 0d 00
	00		 mov	 DWORD PTR [ecx+3396], eax

; 382  : 
; 383  : 	this->m_iExpPartyPlus = GetPrivateProfileInt("ExTeam","ExpPartyPlus",0,CommonServer_DIR);

  00cbc	68 00 00 00 00	 push	 OFFSET ??_C@_0BK@PCGLKKEC@?4?4?2Data?2ExData?2Common?4ini?$AA@
  00cc1	6a 00		 push	 0
  00cc3	68 00 00 00 00	 push	 OFFSET ??_C@_0N@LLPFBELB@ExpPartyPlus?$AA@
  00cc8	68 00 00 00 00	 push	 OFFSET ??_C@_06MLPMCPDE@ExTeam?$AA@
  00ccd	ff 15 00 00 00
	00		 call	 DWORD PTR __imp__GetPrivateProfileIntA@16
  00cd3	8b 4d f8	 mov	 ecx, DWORD PTR _this$[ebp]
  00cd6	89 81 48 0d 00
	00		 mov	 DWORD PTR [ecx+3400], eax

; 384  : 
; 385  : 	//----------------
; 386  : 	//		Skills
; 387  : 	//----------------
; 388  : 
; 389  : 	//this->Skills.ExStartPowerHp = GetPrivateProfileInt("DakrKnight","HPStartPower",12,Skills_DIR);
; 390  : 	//this->Skills.ExVitality = GetPrivateProfileInt("DakrKnight","HPVitality",100,Skills_DIR);
; 391  : 	//this->Skills.ExEnergy = GetPrivateProfileInt("DakrKnight","HPEnergy",20,Skills_DIR);
; 392  : 	//this->Skills.ExMaxPowerHp = GetPrivateProfileInt("DakrKnight","HPMaxPower",200,Skills_DIR);
; 393  : 
; 394  : 	//this->Skills.ExMaster_StartPowerHp = GetPrivateProfileInt("DakrKnight","Master_HPStartPower",12,Skills_DIR);
; 395  : 	//this->Skills.ExMaster_Vitality = GetPrivateProfileInt("DakrKnight","Master_HPVitality",100,Skills_DIR);
; 396  : 	//this->Skills.ExMaster_Energy = GetPrivateProfileInt("DakrKnight","Master_HPEnergy",20,Skills_DIR);
; 397  : 	//this->Skills.ExMaster_MaxPowerHp = GetPrivateProfileInt("DakrKnight","Master_HPMaxPower",200,Skills_DIR);
; 398  : 
; 399  : 	//this->Skills.ExMSStartPower = GetPrivateProfileInt("DarkWizard","MSStartPower",10,Skills_DIR);
; 400  : 	//this->Skills.ExMSAgility = GetPrivateProfileInt("DarkWizard","MSAgility",50,Skills_DIR);
; 401  : 	//this->Skills.ExMSEnergy = GetPrivateProfileInt("DarkWizard","MSEnergy",200,Skills_DIR);
; 402  : 	//this->Skills.ExMSMaxPower = GetPrivateProfileInt("DarkWizard","MSMaxPower",50,Skills_DIR);
; 403  : 
; 404  : 	//this->Skills.ExMaster_MSStartPower = GetPrivateProfileInt("DarkWizard","Master_MSStartPower",10,Skills_DIR);
; 405  : 	//this->Skills.ExMaster_MSAgility = GetPrivateProfileInt("DarkWizard","Master_MSAgility",50,Skills_DIR);
; 406  : 	//this->Skills.ExMaster_MSEnergy = GetPrivateProfileInt("DarkWizard","Master_MSEnergy",200,Skills_DIR);
; 407  : 	//this->Skills.ExMaster_MSMaxPower = GetPrivateProfileInt("DarkWizard","Master_MSMaxPower",50,Skills_DIR);
; 408  : 
; 409  : 	//this->Skills.ExWizardryPowerMax = GetPrivateProfileInt("DarkWizard","WizardryPowerMax",20,Skills_DIR);
; 410  : 
; 411  : 	//this->Skills.ExAttackEnergy = GetPrivateProfileInt("Elf","AttackEnergy",7,Skills_DIR);
; 412  : 	//this->Skills.ExDefenceEnergy = GetPrivateProfileInt("Elf","DefenceEnergy",8,Skills_DIR);
; 413  : 
; 414  : 	//this->Skills.NeedArrow = GetPrivateProfileInt("Elf","NeedArrow",1,Skills_DIR);
; 415  : 
; 416  : 	//this->Skills.ExCriticalEnergy = GetPrivateProfileInt("DarkLord","CritEnergy",30,Skills_DIR);
; 417  : 	//this->Skills.ExCriticalCommand = GetPrivateProfileInt("DarkLord","CritCommand",25,Skills_DIR);
; 418  : 	//this->Skills.ExCritEneTime = GetPrivateProfileInt("DarkLord","CritEneTime",10,Skills_DIR);
; 419  : 
; 420  : 	//this->Skills.ExRefStartPower = GetPrivateProfileInt("Summoner","RefStartPower",30,Skills_DIR);
; 421  : 	//this->Skills.ExRefEnergy = GetPrivateProfileInt("Summoner","RefEnergy",42,Skills_DIR);
; 422  : 	//this->Skills.ExRefMaxPower = GetPrivateProfileInt("Summoner","RefMaxPower",50,Skills_DIR);
; 423  : 	//this->Skills.ExRefStartTime = GetPrivateProfileInt("Summoner","RefStartTime",30,Skills_DIR);
; 424  : 	//this->Skills.ExRefEneTime = GetPrivateProfileInt("Summoner","RefEneTime",25,Skills_DIR);
; 425  : 
; 426  : 	//this->Skills.Ex_BerserkerPower = GetPrivateProfileInt("Summoner","BerserkerPower",50,Skills_DIR);
; 427  : 
; 428  : 	//this->Skills.ExBerserkerStartTime = GetPrivateProfileInt("Summoner","BerserkerStartTime",30,Skills_DIR);
; 429  : 	//this->Skills.ExBerserkerEnergyTime = GetPrivateProfileInt("Summoner","BerserkerEnergyTime",20,Skills_DIR);
; 430  : 	//this->Skills.ExBerserkerMaxTime = GetPrivateProfileInt("Summoner","BerserkerMaxTime",0,Skills_DIR);
; 431  : 
; 432  : 	//this->Skills.ExBerserkerEneIncMana = GetPrivateProfileInt("Summoner","BerserkerEneIncMana",30,Skills_DIR);
; 433  : 	//this->Skills.ExBerserkerEneDecLife = GetPrivateProfileInt("Summoner","BerserkerEneDecLife",60,Skills_DIR);
; 434  : 
; 435  : 	//this->Skills.Ex_BerserkerDex = GetPrivateProfileInt("Summoner","BerserkerDex",10,Skills_DIR);
; 436  : 
; 437  : 	//this->Skills.Ex_WeaknessPower = GetPrivateProfileInt("Summoner","WeaknessPower",30,Skills_DIR);
; 438  : 
; 439  : 	//this->Skills.Ex_InnovationPower = GetPrivateProfileInt("Summoner","InnovationPower",30,Skills_DIR);
; 440  : 
; 441  : 	//this->Skills.ExCSSKill = GetPrivateProfileInt("CastleSkills","CastleSkillsOnNormal",0,Skills_DIR);
; 442  : 
; 443  : 	//this->Skills.AttackByNPC = GetPrivateProfileInt("CastleSiege","AttackByNPC",20,Skills_DIR);
; 444  : 	//this->Skills.AttackByPlayer = GetPrivateProfileInt("CastleSiege","AttackByPlayer",40,Skills_DIR);
; 445  : 
; 446  : 	//this->Skills.PetAttackByNPC = GetPrivateProfileInt("CastleSiegePet","PetAttackByNPC",20,Skills_DIR);
; 447  : 	//this->Skills.PetAttackByPlayer = GetPrivateProfileInt("CastleSiegePet","PetAttackByPlayer",40,Skills_DIR);
; 448  : 
; 449  : 	////Skills Level
; 450  : 
; 451  : 	//this->Skills.TwistingSlashLevel = GetPrivateProfileInt("Level","TwistingSlashLevel",80,Skills_DIR);
; 452  : 	//this->Skills.RagefulBlowLevel = GetPrivateProfileInt("Level","RagefulBlowLevel",170,Skills_DIR);
; 453  : 	//this->Skills.DeathStabLevel = GetPrivateProfileInt("Level","DeathStabLevel",160,Skills_DIR);
; 454  : 	//this->Skills.ImpaleLevel = GetPrivateProfileInt("Level","ImpaleLevel",28,Skills_DIR);
; 455  : 	//this->Skills.InnerStrengthLevel = GetPrivateProfileInt("Level","InnerStrengthLevel",120,Skills_DIR);
; 456  : 	//this->Skills.PenetrationLevel = GetPrivateProfileInt("Level","PenetrationLevel",130,Skills_DIR);
; 457  : 
; 458  : 	//----------------------
; 459  : 	//		Character
; 460  : 	//----------------------
; 461  : 
; 462  : 	this->Character.NeedArrow = GetPrivateProfileInt("Common","NeedArrow",1,Character_DIR);

  00cdc	68 00 00 00 00	 push	 OFFSET ??_C@_0BN@HKLOFEFB@?4?4?2Data?2ExData?2Character?4ini?$AA@
  00ce1	6a 01		 push	 1
  00ce3	68 00 00 00 00	 push	 OFFSET ??_C@_09MINFMDAF@NeedArrow?$AA@
  00ce8	68 00 00 00 00	 push	 OFFSET ??_C@_06POMJKEPM@Common?$AA@
  00ced	ff 15 00 00 00
	00		 call	 DWORD PTR __imp__GetPrivateProfileIntA@16
  00cf3	8b 4d f8	 mov	 ecx, DWORD PTR _this$[ebp]
  00cf6	89 81 38 01 00
	00		 mov	 DWORD PTR [ecx+312], eax

; 463  : 	this->Character.CastleSiegeSkillEnable = GetPrivateProfileInt("Common","CastleSiegeSkillEnable",1,Character_DIR);

  00cfc	68 00 00 00 00	 push	 OFFSET ??_C@_0BN@HKLOFEFB@?4?4?2Data?2ExData?2Character?4ini?$AA@
  00d01	6a 01		 push	 1
  00d03	68 00 00 00 00	 push	 OFFSET ??_C@_0BH@OHMFFPBI@CastleSiegeSkillEnable?$AA@
  00d08	68 00 00 00 00	 push	 OFFSET ??_C@_06POMJKEPM@Common?$AA@
  00d0d	ff 15 00 00 00
	00		 call	 DWORD PTR __imp__GetPrivateProfileIntA@16
  00d13	8b 4d f8	 mov	 ecx, DWORD PTR _this$[ebp]
  00d16	89 81 3c 01 00
	00		 mov	 DWORD PTR [ecx+316], eax

; 464  : 	this->Character.CastleAttackByNPC = GetPrivateProfileInt("Common","CastleAttackByNPC",20,Character_DIR);

  00d1c	68 00 00 00 00	 push	 OFFSET ??_C@_0BN@HKLOFEFB@?4?4?2Data?2ExData?2Character?4ini?$AA@
  00d21	6a 14		 push	 20			; 00000014H
  00d23	68 00 00 00 00	 push	 OFFSET ??_C@_0BC@PPFCPJN@CastleAttackByNPC?$AA@
  00d28	68 00 00 00 00	 push	 OFFSET ??_C@_06POMJKEPM@Common?$AA@
  00d2d	ff 15 00 00 00
	00		 call	 DWORD PTR __imp__GetPrivateProfileIntA@16
  00d33	8b 4d f8	 mov	 ecx, DWORD PTR _this$[ebp]
  00d36	89 81 40 01 00
	00		 mov	 DWORD PTR [ecx+320], eax

; 465  : 	this->Character.CastleAttackByPlayer = GetPrivateProfileInt("Common","CastleAttackByPlayer",40,Character_DIR);

  00d3c	68 00 00 00 00	 push	 OFFSET ??_C@_0BN@HKLOFEFB@?4?4?2Data?2ExData?2Character?4ini?$AA@
  00d41	6a 28		 push	 40			; 00000028H
  00d43	68 00 00 00 00	 push	 OFFSET ??_C@_0BF@JAHKLENK@CastleAttackByPlayer?$AA@
  00d48	68 00 00 00 00	 push	 OFFSET ??_C@_06POMJKEPM@Common?$AA@
  00d4d	ff 15 00 00 00
	00		 call	 DWORD PTR __imp__GetPrivateProfileIntA@16
  00d53	8b 4d f8	 mov	 ecx, DWORD PTR _this$[ebp]
  00d56	89 81 44 01 00
	00		 mov	 DWORD PTR [ecx+324], eax

; 466  : 	this->Character.PetCastleAttackByNPC = GetPrivateProfileInt("Common","PetCastleAttackByNPC",20,Character_DIR);

  00d5c	68 00 00 00 00	 push	 OFFSET ??_C@_0BN@HKLOFEFB@?4?4?2Data?2ExData?2Character?4ini?$AA@
  00d61	6a 14		 push	 20			; 00000014H
  00d63	68 00 00 00 00	 push	 OFFSET ??_C@_0BF@DMHPGJA@PetCastleAttackByNPC?$AA@
  00d68	68 00 00 00 00	 push	 OFFSET ??_C@_06POMJKEPM@Common?$AA@
  00d6d	ff 15 00 00 00
	00		 call	 DWORD PTR __imp__GetPrivateProfileIntA@16
  00d73	8b 4d f8	 mov	 ecx, DWORD PTR _this$[ebp]
  00d76	89 81 48 01 00
	00		 mov	 DWORD PTR [ecx+328], eax

; 467  : 	this->Character.PetCastleAttackByPlayer = GetPrivateProfileInt("Common","PetCastleAttackByPlayer",40,Character_DIR);

  00d7c	68 00 00 00 00	 push	 OFFSET ??_C@_0BN@HKLOFEFB@?4?4?2Data?2ExData?2Character?4ini?$AA@
  00d81	6a 28		 push	 40			; 00000028H
  00d83	68 00 00 00 00	 push	 OFFSET ??_C@_0BI@IPAIFD@PetCastleAttackByPlayer?$AA@
  00d88	68 00 00 00 00	 push	 OFFSET ??_C@_06POMJKEPM@Common?$AA@
  00d8d	ff 15 00 00 00
	00		 call	 DWORD PTR __imp__GetPrivateProfileIntA@16
  00d93	8b 4d f8	 mov	 ecx, DWORD PTR _this$[ebp]
  00d96	89 81 4c 01 00
	00		 mov	 DWORD PTR [ecx+332], eax

; 468  : 	this->Character.MaxStats = GetPrivateProfileInt("Common", "MaxStats", 65535, Character_DIR);

  00d9c	68 00 00 00 00	 push	 OFFSET ??_C@_0BN@HKLOFEFB@?4?4?2Data?2ExData?2Character?4ini?$AA@
  00da1	68 ff ff 00 00	 push	 65535			; 0000ffffH
  00da6	68 00 00 00 00	 push	 OFFSET ??_C@_08KHNFHHOB@MaxStats?$AA@
  00dab	68 00 00 00 00	 push	 OFFSET ??_C@_06POMJKEPM@Common?$AA@
  00db0	ff 15 00 00 00
	00		 call	 DWORD PTR __imp__GetPrivateProfileIntA@16
  00db6	8b 4d f8	 mov	 ecx, DWORD PTR _this$[ebp]
  00db9	89 81 50 01 00
	00		 mov	 DWORD PTR [ecx+336], eax

; 469  : 	this->Character.CastleDamageByAlliance = GetPrivateProfileInt("Common", "CastleDamageByAlliance", 100, Character_DIR);

  00dbf	68 00 00 00 00	 push	 OFFSET ??_C@_0BN@HKLOFEFB@?4?4?2Data?2ExData?2Character?4ini?$AA@
  00dc4	6a 64		 push	 100			; 00000064H
  00dc6	68 00 00 00 00	 push	 OFFSET ??_C@_0BH@KAHNGFMD@CastleDamageByAlliance?$AA@
  00dcb	68 00 00 00 00	 push	 OFFSET ??_C@_06POMJKEPM@Common?$AA@
  00dd0	ff 15 00 00 00
	00		 call	 DWORD PTR __imp__GetPrivateProfileIntA@16
  00dd6	8b 4d f8	 mov	 ecx, DWORD PTR _this$[ebp]
  00dd9	89 81 54 01 00
	00		 mov	 DWORD PTR [ecx+340], eax

; 470  : 	this->Character.bReflectToReflect = GetPrivateProfileInt("Common", "ReflectToReflect", 1, Character_DIR);

  00ddf	68 00 00 00 00	 push	 OFFSET ??_C@_0BN@HKLOFEFB@?4?4?2Data?2ExData?2Character?4ini?$AA@
  00de4	6a 01		 push	 1
  00de6	68 00 00 00 00	 push	 OFFSET ??_C@_0BB@FNNJAMED@ReflectToReflect?$AA@
  00deb	68 00 00 00 00	 push	 OFFSET ??_C@_06POMJKEPM@Common?$AA@
  00df0	ff 15 00 00 00
	00		 call	 DWORD PTR __imp__GetPrivateProfileIntA@16
  00df6	85 c0		 test	 eax, eax
  00df8	0f 95 c0	 setne	 al
  00dfb	8b 4d f8	 mov	 ecx, DWORD PTR _this$[ebp]
  00dfe	88 81 58 01 00
	00		 mov	 BYTE PTR [ecx+344], al

; 471  : 
; 472  : 	this->Character.ComboDamagePercent = GetPrivateProfileInt("Common", "ComboDamagePercent", 100, Character_DIR);

  00e04	68 00 00 00 00	 push	 OFFSET ??_C@_0BN@HKLOFEFB@?4?4?2Data?2ExData?2Character?4ini?$AA@
  00e09	6a 64		 push	 100			; 00000064H
  00e0b	68 00 00 00 00	 push	 OFFSET ??_C@_0BD@ILDLACFI@ComboDamagePercent?$AA@
  00e10	68 00 00 00 00	 push	 OFFSET ??_C@_06POMJKEPM@Common?$AA@
  00e15	ff 15 00 00 00
	00		 call	 DWORD PTR __imp__GetPrivateProfileIntA@16
  00e1b	8b 4d f8	 mov	 ecx, DWORD PTR _this$[ebp]
  00e1e	89 81 60 01 00
	00		 mov	 DWORD PTR [ecx+352], eax

; 473  : 	this->Character.SoulBarrierAttackManaDown = GetPrivateProfileInt("Common", "SoulBarrierAttackManaDown", 1, Character_DIR);

  00e24	68 00 00 00 00	 push	 OFFSET ??_C@_0BN@HKLOFEFB@?4?4?2Data?2ExData?2Character?4ini?$AA@
  00e29	6a 01		 push	 1
  00e2b	68 00 00 00 00	 push	 OFFSET ??_C@_0BK@FKMBAABH@SoulBarrierAttackManaDown?$AA@
  00e30	68 00 00 00 00	 push	 OFFSET ??_C@_06POMJKEPM@Common?$AA@
  00e35	ff 15 00 00 00
	00		 call	 DWORD PTR __imp__GetPrivateProfileIntA@16
  00e3b	85 c0		 test	 eax, eax
  00e3d	0f 95 c0	 setne	 al
  00e40	8b 4d f8	 mov	 ecx, DWORD PTR _this$[ebp]
  00e43	88 81 64 01 00
	00		 mov	 BYTE PTR [ecx+356], al

; 474  : 
; 475  : 	if(this->Character.CastleDamageByAlliance < 0)

  00e49	8b 45 f8	 mov	 eax, DWORD PTR _this$[ebp]
  00e4c	83 b8 54 01 00
	00 00		 cmp	 DWORD PTR [eax+340], 0
  00e53	7d 0d		 jge	 SHORT $LN35@LoadConfig

; 476  : 	{
; 477  : 		this->Character.CastleDamageByAlliance = 0;

  00e55	8b 45 f8	 mov	 eax, DWORD PTR _this$[ebp]
  00e58	c7 80 54 01 00
	00 00 00 00 00	 mov	 DWORD PTR [eax+340], 0
$LN35@LoadConfig:

; 478  : 	}
; 479  : 
; 480  : 	this->Character.ELFDamageMax_Bow_StrDexRight = GetPrivateProfileInt("Fairy_Elf","DamageMax_Bow_StrDexRight",4,Character_DIR);

  00e62	68 00 00 00 00	 push	 OFFSET ??_C@_0BN@HKLOFEFB@?4?4?2Data?2ExData?2Character?4ini?$AA@
  00e67	6a 04		 push	 4
  00e69	68 00 00 00 00	 push	 OFFSET ??_C@_0BK@JJKGIFGH@DamageMax_Bow_StrDexRight?$AA@
  00e6e	68 00 00 00 00	 push	 OFFSET ??_C@_09DIFEFNGC@Fairy_Elf?$AA@
  00e73	ff 15 00 00 00
	00		 call	 DWORD PTR __imp__GetPrivateProfileIntA@16
  00e79	8b 4d f8	 mov	 ecx, DWORD PTR _this$[ebp]
  00e7c	89 81 68 01 00
	00		 mov	 DWORD PTR [ecx+360], eax

; 481  : 	this->Character.ELFDamageMin_Bow_StrDexRight = GetPrivateProfileInt("Fairy_Elf","DamageMin_Bow_StrDexRight",7,Character_DIR);

  00e82	68 00 00 00 00	 push	 OFFSET ??_C@_0BN@HKLOFEFB@?4?4?2Data?2ExData?2Character?4ini?$AA@
  00e87	6a 07		 push	 7
  00e89	68 00 00 00 00	 push	 OFFSET ??_C@_0BK@LANIHIHP@DamageMin_Bow_StrDexRight?$AA@
  00e8e	68 00 00 00 00	 push	 OFFSET ??_C@_09DIFEFNGC@Fairy_Elf?$AA@
  00e93	ff 15 00 00 00
	00		 call	 DWORD PTR __imp__GetPrivateProfileIntA@16
  00e99	8b 4d f8	 mov	 ecx, DWORD PTR _this$[ebp]
  00e9c	89 81 6c 01 00
	00		 mov	 DWORD PTR [ecx+364], eax

; 482  : 	this->Character.ELFDamageMax_Bow_StrDexLeft = GetPrivateProfileInt("Fairy_Elf","DamageMax_Bow_StrDexLeft",4,Character_DIR);

  00ea2	68 00 00 00 00	 push	 OFFSET ??_C@_0BN@HKLOFEFB@?4?4?2Data?2ExData?2Character?4ini?$AA@
  00ea7	6a 04		 push	 4
  00ea9	68 00 00 00 00	 push	 OFFSET ??_C@_0BJ@IKAPMJBH@DamageMax_Bow_StrDexLeft?$AA@
  00eae	68 00 00 00 00	 push	 OFFSET ??_C@_09DIFEFNGC@Fairy_Elf?$AA@
  00eb3	ff 15 00 00 00
	00		 call	 DWORD PTR __imp__GetPrivateProfileIntA@16
  00eb9	8b 4d f8	 mov	 ecx, DWORD PTR _this$[ebp]
  00ebc	89 81 70 01 00
	00		 mov	 DWORD PTR [ecx+368], eax

; 483  : 	this->Character.ELFDamageMin_Bow_StrDexLeft = GetPrivateProfileInt("Fairy_Elf","DamageMin_Bow_StrDexLeft",7,Character_DIR);

  00ec2	68 00 00 00 00	 push	 OFFSET ??_C@_0BN@HKLOFEFB@?4?4?2Data?2ExData?2Character?4ini?$AA@
  00ec7	6a 07		 push	 7
  00ec9	68 00 00 00 00	 push	 OFFSET ??_C@_0BJ@CNDLEJGO@DamageMin_Bow_StrDexLeft?$AA@
  00ece	68 00 00 00 00	 push	 OFFSET ??_C@_09DIFEFNGC@Fairy_Elf?$AA@
  00ed3	ff 15 00 00 00
	00		 call	 DWORD PTR __imp__GetPrivateProfileIntA@16
  00ed9	8b 4d f8	 mov	 ecx, DWORD PTR _this$[ebp]
  00edc	89 81 74 01 00
	00		 mov	 DWORD PTR [ecx+372], eax

; 484  : 
; 485  : 	this->Character.ELFDamageMax_NoBow_StrRight = GetPrivateProfileInt("Fairy_Elf","DamageMax_NoBow_StrRight",8,Character_DIR);

  00ee2	68 00 00 00 00	 push	 OFFSET ??_C@_0BN@HKLOFEFB@?4?4?2Data?2ExData?2Character?4ini?$AA@
  00ee7	6a 08		 push	 8
  00ee9	68 00 00 00 00	 push	 OFFSET ??_C@_0BJ@PNMCAIMB@DamageMax_NoBow_StrRight?$AA@
  00eee	68 00 00 00 00	 push	 OFFSET ??_C@_09DIFEFNGC@Fairy_Elf?$AA@
  00ef3	ff 15 00 00 00
	00		 call	 DWORD PTR __imp__GetPrivateProfileIntA@16
  00ef9	8b 4d f8	 mov	 ecx, DWORD PTR _this$[ebp]
  00efc	89 81 78 01 00
	00		 mov	 DWORD PTR [ecx+376], eax

; 486  : 	this->Character.ELFDamageMax_NoBow_DexRight = GetPrivateProfileInt("Fairy_Elf","DamageMax_NoBow_DexRight",4,Character_DIR);

  00f02	68 00 00 00 00	 push	 OFFSET ??_C@_0BN@HKLOFEFB@?4?4?2Data?2ExData?2Character?4ini?$AA@
  00f07	6a 04		 push	 4
  00f09	68 00 00 00 00	 push	 OFFSET ??_C@_0BJ@CBACEJIC@DamageMax_NoBow_DexRight?$AA@
  00f0e	68 00 00 00 00	 push	 OFFSET ??_C@_09DIFEFNGC@Fairy_Elf?$AA@
  00f13	ff 15 00 00 00
	00		 call	 DWORD PTR __imp__GetPrivateProfileIntA@16
  00f19	8b 4d f8	 mov	 ecx, DWORD PTR _this$[ebp]
  00f1c	89 81 7c 01 00
	00		 mov	 DWORD PTR [ecx+380], eax

; 487  : 	this->Character.ELFDamageMin_NoBow_StrRight = GetPrivateProfileInt("Fairy_Elf","DamageMin_NoBow_StrRight",14,Character_DIR);

  00f22	68 00 00 00 00	 push	 OFFSET ??_C@_0BN@HKLOFEFB@?4?4?2Data?2ExData?2Character?4ini?$AA@
  00f27	6a 0e		 push	 14			; 0000000eH
  00f29	68 00 00 00 00	 push	 OFFSET ??_C@_0BJ@FKPGIILI@DamageMin_NoBow_StrRight?$AA@
  00f2e	68 00 00 00 00	 push	 OFFSET ??_C@_09DIFEFNGC@Fairy_Elf?$AA@
  00f33	ff 15 00 00 00
	00		 call	 DWORD PTR __imp__GetPrivateProfileIntA@16
  00f39	8b 4d f8	 mov	 ecx, DWORD PTR _this$[ebp]
  00f3c	89 81 80 01 00
	00		 mov	 DWORD PTR [ecx+384], eax

; 488  : 	this->Character.ELFDamageMin_NoBow_DexRight = GetPrivateProfileInt("Fairy_Elf","DamageMin_NoBow_DexRight",7,Character_DIR);

  00f42	68 00 00 00 00	 push	 OFFSET ??_C@_0BN@HKLOFEFB@?4?4?2Data?2ExData?2Character?4ini?$AA@
  00f47	6a 07		 push	 7
  00f49	68 00 00 00 00	 push	 OFFSET ??_C@_0BJ@IGDGMJPL@DamageMin_NoBow_DexRight?$AA@
  00f4e	68 00 00 00 00	 push	 OFFSET ??_C@_09DIFEFNGC@Fairy_Elf?$AA@
  00f53	ff 15 00 00 00
	00		 call	 DWORD PTR __imp__GetPrivateProfileIntA@16
  00f59	8b 4d f8	 mov	 ecx, DWORD PTR _this$[ebp]
  00f5c	89 81 84 01 00
	00		 mov	 DWORD PTR [ecx+388], eax

; 489  : 
; 490  : 	this->Character.ELFDamageMax_NoBow_StrLeft = GetPrivateProfileInt("Fairy_Elf","DamageMax_NoBow_StrLeft",8,Character_DIR);

  00f62	68 00 00 00 00	 push	 OFFSET ??_C@_0BN@HKLOFEFB@?4?4?2Data?2ExData?2Character?4ini?$AA@
  00f67	6a 08		 push	 8
  00f69	68 00 00 00 00	 push	 OFFSET ??_C@_0BI@IFCKKPAO@DamageMax_NoBow_StrLeft?$AA@
  00f6e	68 00 00 00 00	 push	 OFFSET ??_C@_09DIFEFNGC@Fairy_Elf?$AA@
  00f73	ff 15 00 00 00
	00		 call	 DWORD PTR __imp__GetPrivateProfileIntA@16
  00f79	8b 4d f8	 mov	 ecx, DWORD PTR _this$[ebp]
  00f7c	89 81 88 01 00
	00		 mov	 DWORD PTR [ecx+392], eax

; 491  : 	this->Character.ELFDamageMax_NoBow_DexLeft = GetPrivateProfileInt("Fairy_Elf","DamageMax_NoBow_DexLeft",4,Character_DIR);

  00f82	68 00 00 00 00	 push	 OFFSET ??_C@_0BN@HKLOFEFB@?4?4?2Data?2ExData?2Character?4ini?$AA@
  00f87	6a 04		 push	 4
  00f89	68 00 00 00 00	 push	 OFFSET ??_C@_0BI@JDGGCDCA@DamageMax_NoBow_DexLeft?$AA@
  00f8e	68 00 00 00 00	 push	 OFFSET ??_C@_09DIFEFNGC@Fairy_Elf?$AA@
  00f93	ff 15 00 00 00
	00		 call	 DWORD PTR __imp__GetPrivateProfileIntA@16
  00f99	8b 4d f8	 mov	 ecx, DWORD PTR _this$[ebp]
  00f9c	89 81 8c 01 00
	00		 mov	 DWORD PTR [ecx+396], eax

; 492  : 	this->Character.ELFDamageMin_NoBow_StrLeft = GetPrivateProfileInt("Fairy_Elf","DamageMin_NoBow_StrLeft",14,Character_DIR);

  00fa2	68 00 00 00 00	 push	 OFFSET ??_C@_0BN@HKLOFEFB@?4?4?2Data?2ExData?2Character?4ini?$AA@
  00fa7	6a 0e		 push	 14			; 0000000eH
  00fa9	68 00 00 00 00	 push	 OFFSET ??_C@_0BI@NGIMLHOK@DamageMin_NoBow_StrLeft?$AA@
  00fae	68 00 00 00 00	 push	 OFFSET ??_C@_09DIFEFNGC@Fairy_Elf?$AA@
  00fb3	ff 15 00 00 00
	00		 call	 DWORD PTR __imp__GetPrivateProfileIntA@16
  00fb9	8b 4d f8	 mov	 ecx, DWORD PTR _this$[ebp]
  00fbc	89 81 90 01 00
	00		 mov	 DWORD PTR [ecx+400], eax

; 493  : 	this->Character.ELFDamageMin_NoBow_DexLeft = GetPrivateProfileInt("Fairy_Elf","DamageMin_NoBow_DexLeft",7,Character_DIR);

  00fc2	68 00 00 00 00	 push	 OFFSET ??_C@_0BN@HKLOFEFB@?4?4?2Data?2ExData?2Character?4ini?$AA@
  00fc7	6a 07		 push	 7
  00fc9	68 00 00 00 00	 push	 OFFSET ??_C@_0BI@MAMADLME@DamageMin_NoBow_DexLeft?$AA@
  00fce	68 00 00 00 00	 push	 OFFSET ??_C@_09DIFEFNGC@Fairy_Elf?$AA@
  00fd3	ff 15 00 00 00
	00		 call	 DWORD PTR __imp__GetPrivateProfileIntA@16
  00fd9	8b 4d f8	 mov	 ecx, DWORD PTR _this$[ebp]
  00fdc	89 81 94 01 00
	00		 mov	 DWORD PTR [ecx+404], eax

; 494  : 
; 495  : 	this->Character.ELFDamageMax_DexStrRight = GetPrivateProfileInt("Fairy_Elf","DamageMax_DexStrRight",4,Character_DIR);

  00fe2	68 00 00 00 00	 push	 OFFSET ??_C@_0BN@HKLOFEFB@?4?4?2Data?2ExData?2Character?4ini?$AA@
  00fe7	6a 04		 push	 4
  00fe9	68 00 00 00 00	 push	 OFFSET ??_C@_0BG@CDCKOAMA@DamageMax_DexStrRight?$AA@
  00fee	68 00 00 00 00	 push	 OFFSET ??_C@_09DIFEFNGC@Fairy_Elf?$AA@
  00ff3	ff 15 00 00 00
	00		 call	 DWORD PTR __imp__GetPrivateProfileIntA@16
  00ff9	8b 4d f8	 mov	 ecx, DWORD PTR _this$[ebp]
  00ffc	89 81 98 01 00
	00		 mov	 DWORD PTR [ecx+408], eax

; 496  : 	this->Character.ELFDamageMin_DexStrRight = GetPrivateProfileInt("Fairy_Elf","DamageMin_DexStrRight",7,Character_DIR);

  01002	68 00 00 00 00	 push	 OFFSET ??_C@_0BN@HKLOFEFB@?4?4?2Data?2ExData?2Character?4ini?$AA@
  01007	6a 07		 push	 7
  01009	68 00 00 00 00	 push	 OFFSET ??_C@_0BG@HCNDFLJN@DamageMin_DexStrRight?$AA@
  0100e	68 00 00 00 00	 push	 OFFSET ??_C@_09DIFEFNGC@Fairy_Elf?$AA@
  01013	ff 15 00 00 00
	00		 call	 DWORD PTR __imp__GetPrivateProfileIntA@16
  01019	8b 4d f8	 mov	 ecx, DWORD PTR _this$[ebp]
  0101c	89 81 9c 01 00
	00		 mov	 DWORD PTR [ecx+412], eax

; 497  : 	this->Character.ELFDamageMax_DexStrLeft = GetPrivateProfileInt("Fairy_Elf","DamageMax_DexStrLeft",4,Character_DIR);

  01022	68 00 00 00 00	 push	 OFFSET ??_C@_0BN@HKLOFEFB@?4?4?2Data?2ExData?2Character?4ini?$AA@
  01027	6a 04		 push	 4
  01029	68 00 00 00 00	 push	 OFFSET ??_C@_0BF@NGFMGLOD@DamageMax_DexStrLeft?$AA@
  0102e	68 00 00 00 00	 push	 OFFSET ??_C@_09DIFEFNGC@Fairy_Elf?$AA@
  01033	ff 15 00 00 00
	00		 call	 DWORD PTR __imp__GetPrivateProfileIntA@16
  01039	8b 4d f8	 mov	 ecx, DWORD PTR _this$[ebp]
  0103c	89 81 a0 01 00
	00		 mov	 DWORD PTR [ecx+416], eax

; 498  : 	this->Character.ELFDamageMin_DexStrLeft = GetPrivateProfileInt("Fairy_Elf","DamageMin_DexStrLeft",7,Character_DIR);

  01042	68 00 00 00 00	 push	 OFFSET ??_C@_0BN@HKLOFEFB@?4?4?2Data?2ExData?2Character?4ini?$AA@
  01047	6a 07		 push	 7
  01049	68 00 00 00 00	 push	 OFFSET ??_C@_0BF@PBOHAMNC@DamageMin_DexStrLeft?$AA@
  0104e	68 00 00 00 00	 push	 OFFSET ??_C@_09DIFEFNGC@Fairy_Elf?$AA@
  01053	ff 15 00 00 00
	00		 call	 DWORD PTR __imp__GetPrivateProfileIntA@16
  01059	8b 4d f8	 mov	 ecx, DWORD PTR _this$[ebp]
  0105c	89 81 a4 01 00
	00		 mov	 DWORD PTR [ecx+420], eax

; 499  : 
; 500  : 	//----------------------
; 501  : 	this->Character.DKDamageMax_StrRight = GetPrivateProfileInt("Dark_Knight","DamageMax_StrRight",4,Character_DIR);

  01062	68 00 00 00 00	 push	 OFFSET ??_C@_0BN@HKLOFEFB@?4?4?2Data?2ExData?2Character?4ini?$AA@
  01067	6a 04		 push	 4
  01069	68 00 00 00 00	 push	 OFFSET ??_C@_0BD@INKFCDFG@DamageMax_StrRight?$AA@
  0106e	68 00 00 00 00	 push	 OFFSET ??_C@_0M@MNCPOEBE@Dark_Knight?$AA@
  01073	ff 15 00 00 00
	00		 call	 DWORD PTR __imp__GetPrivateProfileIntA@16
  01079	8b 4d f8	 mov	 ecx, DWORD PTR _this$[ebp]
  0107c	89 81 a8 01 00
	00		 mov	 DWORD PTR [ecx+424], eax

; 502  : 	this->Character.DKDamageMin_StrRight = GetPrivateProfileInt("Dark_Knight","DamageMin_StrRight",6,Character_DIR);

  01082	68 00 00 00 00	 push	 OFFSET ??_C@_0BN@HKLOFEFB@?4?4?2Data?2ExData?2Character?4ini?$AA@
  01087	6a 06		 push	 6
  01089	68 00 00 00 00	 push	 OFFSET ??_C@_0BD@MNOKFLCA@DamageMin_StrRight?$AA@
  0108e	68 00 00 00 00	 push	 OFFSET ??_C@_0M@MNCPOEBE@Dark_Knight?$AA@
  01093	ff 15 00 00 00
	00		 call	 DWORD PTR __imp__GetPrivateProfileIntA@16
  01099	8b 4d f8	 mov	 ecx, DWORD PTR _this$[ebp]
  0109c	89 81 ac 01 00
	00		 mov	 DWORD PTR [ecx+428], eax

; 503  : 	this->Character.DKDamageMax_StrLeft = GetPrivateProfileInt("Dark_Knight","DamageMax_StrLeft",4,Character_DIR);

  010a2	68 00 00 00 00	 push	 OFFSET ??_C@_0BN@HKLOFEFB@?4?4?2Data?2ExData?2Character?4ini?$AA@
  010a7	6a 04		 push	 4
  010a9	68 00 00 00 00	 push	 OFFSET ??_C@_0BC@IIPFLHAL@DamageMax_StrLeft?$AA@
  010ae	68 00 00 00 00	 push	 OFFSET ??_C@_0M@MNCPOEBE@Dark_Knight?$AA@
  010b3	ff 15 00 00 00
	00		 call	 DWORD PTR __imp__GetPrivateProfileIntA@16
  010b9	8b 4d f8	 mov	 ecx, DWORD PTR _this$[ebp]
  010bc	89 81 b0 01 00
	00		 mov	 DWORD PTR [ecx+432], eax

; 504  : 	this->Character.DKDamageMin_StrLeft = GetPrivateProfileInt("Dark_Knight","DamageMin_StrLeft",6,Character_DIR);

  010c2	68 00 00 00 00	 push	 OFFSET ??_C@_0BN@HKLOFEFB@?4?4?2Data?2ExData?2Character?4ini?$AA@
  010c7	6a 06		 push	 6
  010c9	68 00 00 00 00	 push	 OFFSET ??_C@_0BC@BIIGKHOB@DamageMin_StrLeft?$AA@
  010ce	68 00 00 00 00	 push	 OFFSET ??_C@_0M@MNCPOEBE@Dark_Knight?$AA@
  010d3	ff 15 00 00 00
	00		 call	 DWORD PTR __imp__GetPrivateProfileIntA@16
  010d9	8b 4d f8	 mov	 ecx, DWORD PTR _this$[ebp]
  010dc	89 81 b4 01 00
	00		 mov	 DWORD PTR [ecx+436], eax

; 505  : 	//----------------------
; 506  : 	this->Character.MGDamageMax_StrRight = GetPrivateProfileInt("Magic_Gladiator","DamageMax_StrRight",4,Character_DIR);

  010e2	68 00 00 00 00	 push	 OFFSET ??_C@_0BN@HKLOFEFB@?4?4?2Data?2ExData?2Character?4ini?$AA@
  010e7	6a 04		 push	 4
  010e9	68 00 00 00 00	 push	 OFFSET ??_C@_0BD@INKFCDFG@DamageMax_StrRight?$AA@
  010ee	68 00 00 00 00	 push	 OFFSET ??_C@_0BA@IPLGPKDA@Magic_Gladiator?$AA@
  010f3	ff 15 00 00 00
	00		 call	 DWORD PTR __imp__GetPrivateProfileIntA@16
  010f9	8b 4d f8	 mov	 ecx, DWORD PTR _this$[ebp]
  010fc	89 81 b8 01 00
	00		 mov	 DWORD PTR [ecx+440], eax

; 507  : 	this->Character.MGDamageMax_EneRight = GetPrivateProfileInt("Magic_Gladiator","DamageMax_EneRight",8,Character_DIR);

  01102	68 00 00 00 00	 push	 OFFSET ??_C@_0BN@HKLOFEFB@?4?4?2Data?2ExData?2Character?4ini?$AA@
  01107	6a 08		 push	 8
  01109	68 00 00 00 00	 push	 OFFSET ??_C@_0BD@BNHNJHAO@DamageMax_EneRight?$AA@
  0110e	68 00 00 00 00	 push	 OFFSET ??_C@_0BA@IPLGPKDA@Magic_Gladiator?$AA@
  01113	ff 15 00 00 00
	00		 call	 DWORD PTR __imp__GetPrivateProfileIntA@16
  01119	8b 4d f8	 mov	 ecx, DWORD PTR _this$[ebp]
  0111c	89 81 bc 01 00
	00		 mov	 DWORD PTR [ecx+444], eax

; 508  : 	this->Character.MGDamageMin_StrRight = GetPrivateProfileInt("Magic_Gladiator","DamageMin_StrRight",6,Character_DIR);

  01122	68 00 00 00 00	 push	 OFFSET ??_C@_0BN@HKLOFEFB@?4?4?2Data?2ExData?2Character?4ini?$AA@
  01127	6a 06		 push	 6
  01129	68 00 00 00 00	 push	 OFFSET ??_C@_0BD@MNOKFLCA@DamageMin_StrRight?$AA@
  0112e	68 00 00 00 00	 push	 OFFSET ??_C@_0BA@IPLGPKDA@Magic_Gladiator?$AA@
  01133	ff 15 00 00 00
	00		 call	 DWORD PTR __imp__GetPrivateProfileIntA@16
  01139	8b 4d f8	 mov	 ecx, DWORD PTR _this$[ebp]
  0113c	89 81 c0 01 00
	00		 mov	 DWORD PTR [ecx+448], eax

; 509  : 	this->Character.MGDamageMin_EneRight = GetPrivateProfileInt("Magic_Gladiator","DamageMin_EneRight",12,Character_DIR);

  01142	68 00 00 00 00	 push	 OFFSET ??_C@_0BN@HKLOFEFB@?4?4?2Data?2ExData?2Character?4ini?$AA@
  01147	6a 0c		 push	 12			; 0000000cH
  01149	68 00 00 00 00	 push	 OFFSET ??_C@_0BD@FNDCOPHI@DamageMin_EneRight?$AA@
  0114e	68 00 00 00 00	 push	 OFFSET ??_C@_0BA@IPLGPKDA@Magic_Gladiator?$AA@
  01153	ff 15 00 00 00
	00		 call	 DWORD PTR __imp__GetPrivateProfileIntA@16
  01159	8b 4d f8	 mov	 ecx, DWORD PTR _this$[ebp]
  0115c	89 81 c4 01 00
	00		 mov	 DWORD PTR [ecx+452], eax

; 510  : 
; 511  : 	this->Character.MGDamageMax_StrLeft = GetPrivateProfileInt("Magic_Gladiator","DamageMax_StrLeft",4,Character_DIR);

  01162	68 00 00 00 00	 push	 OFFSET ??_C@_0BN@HKLOFEFB@?4?4?2Data?2ExData?2Character?4ini?$AA@
  01167	6a 04		 push	 4
  01169	68 00 00 00 00	 push	 OFFSET ??_C@_0BC@IIPFLHAL@DamageMax_StrLeft?$AA@
  0116e	68 00 00 00 00	 push	 OFFSET ??_C@_0BA@IPLGPKDA@Magic_Gladiator?$AA@
  01173	ff 15 00 00 00
	00		 call	 DWORD PTR __imp__GetPrivateProfileIntA@16
  01179	8b 4d f8	 mov	 ecx, DWORD PTR _this$[ebp]
  0117c	89 81 c8 01 00
	00		 mov	 DWORD PTR [ecx+456], eax

; 512  : 	this->Character.MGDamageMax_EneLeft = GetPrivateProfileInt("Magic_Gladiator","DamageMax_EneLeft",8,Character_DIR);

  01182	68 00 00 00 00	 push	 OFFSET ??_C@_0BN@HKLOFEFB@?4?4?2Data?2ExData?2Character?4ini?$AA@
  01187	6a 08		 push	 8
  01189	68 00 00 00 00	 push	 OFFSET ??_C@_0BC@OPFMHOAE@DamageMax_EneLeft?$AA@
  0118e	68 00 00 00 00	 push	 OFFSET ??_C@_0BA@IPLGPKDA@Magic_Gladiator?$AA@
  01193	ff 15 00 00 00
	00		 call	 DWORD PTR __imp__GetPrivateProfileIntA@16
  01199	8b 4d f8	 mov	 ecx, DWORD PTR _this$[ebp]
  0119c	89 81 cc 01 00
	00		 mov	 DWORD PTR [ecx+460], eax

; 513  : 	this->Character.MGDamageMin_StrLeft = GetPrivateProfileInt("Magic_Gladiator","DamageMin_StrLeft",6,Character_DIR);

  011a2	68 00 00 00 00	 push	 OFFSET ??_C@_0BN@HKLOFEFB@?4?4?2Data?2ExData?2Character?4ini?$AA@
  011a7	6a 06		 push	 6
  011a9	68 00 00 00 00	 push	 OFFSET ??_C@_0BC@BIIGKHOB@DamageMin_StrLeft?$AA@
  011ae	68 00 00 00 00	 push	 OFFSET ??_C@_0BA@IPLGPKDA@Magic_Gladiator?$AA@
  011b3	ff 15 00 00 00
	00		 call	 DWORD PTR __imp__GetPrivateProfileIntA@16
  011b9	8b 4d f8	 mov	 ecx, DWORD PTR _this$[ebp]
  011bc	89 81 d0 01 00
	00		 mov	 DWORD PTR [ecx+464], eax

; 514  : 	this->Character.MGDamageMin_EneLeft = GetPrivateProfileInt("Magic_Gladiator","DamageMin_EneLeft",12,Character_DIR);

  011c2	68 00 00 00 00	 push	 OFFSET ??_C@_0BN@HKLOFEFB@?4?4?2Data?2ExData?2Character?4ini?$AA@
  011c7	6a 0c		 push	 12			; 0000000cH
  011c9	68 00 00 00 00	 push	 OFFSET ??_C@_0BC@HPCPGOOO@DamageMin_EneLeft?$AA@
  011ce	68 00 00 00 00	 push	 OFFSET ??_C@_0BA@IPLGPKDA@Magic_Gladiator?$AA@
  011d3	ff 15 00 00 00
	00		 call	 DWORD PTR __imp__GetPrivateProfileIntA@16
  011d9	8b 4d f8	 mov	 ecx, DWORD PTR _this$[ebp]
  011dc	89 81 d4 01 00
	00		 mov	 DWORD PTR [ecx+468], eax

; 515  : 	//----------------------
; 516  : 	this->Character.SUMDamageMax_StrRight = GetPrivateProfileInt("Summoner","DamageMax_StrRight",4,Character_DIR);

  011e2	68 00 00 00 00	 push	 OFFSET ??_C@_0BN@HKLOFEFB@?4?4?2Data?2ExData?2Character?4ini?$AA@
  011e7	6a 04		 push	 4
  011e9	68 00 00 00 00	 push	 OFFSET ??_C@_0BD@INKFCDFG@DamageMax_StrRight?$AA@
  011ee	68 00 00 00 00	 push	 OFFSET ??_C@_08HLBMEKKE@Summoner?$AA@
  011f3	ff 15 00 00 00
	00		 call	 DWORD PTR __imp__GetPrivateProfileIntA@16
  011f9	8b 4d f8	 mov	 ecx, DWORD PTR _this$[ebp]
  011fc	89 81 d8 01 00
	00		 mov	 DWORD PTR [ecx+472], eax

; 517  : 	this->Character.SUMDamageMin_StrRight = GetPrivateProfileInt("Summoner","DamageMin_StrRight",7,Character_DIR);

  01202	68 00 00 00 00	 push	 OFFSET ??_C@_0BN@HKLOFEFB@?4?4?2Data?2ExData?2Character?4ini?$AA@
  01207	6a 07		 push	 7
  01209	68 00 00 00 00	 push	 OFFSET ??_C@_0BD@MNOKFLCA@DamageMin_StrRight?$AA@
  0120e	68 00 00 00 00	 push	 OFFSET ??_C@_08HLBMEKKE@Summoner?$AA@
  01213	ff 15 00 00 00
	00		 call	 DWORD PTR __imp__GetPrivateProfileIntA@16
  01219	8b 4d f8	 mov	 ecx, DWORD PTR _this$[ebp]
  0121c	89 81 dc 01 00
	00		 mov	 DWORD PTR [ecx+476], eax

; 518  : 	this->Character.SUMDamageMax_StrLeft = GetPrivateProfileInt("Summoner","DamageMax_StrLeft",4,Character_DIR);

  01222	68 00 00 00 00	 push	 OFFSET ??_C@_0BN@HKLOFEFB@?4?4?2Data?2ExData?2Character?4ini?$AA@
  01227	6a 04		 push	 4
  01229	68 00 00 00 00	 push	 OFFSET ??_C@_0BC@IIPFLHAL@DamageMax_StrLeft?$AA@
  0122e	68 00 00 00 00	 push	 OFFSET ??_C@_08HLBMEKKE@Summoner?$AA@
  01233	ff 15 00 00 00
	00		 call	 DWORD PTR __imp__GetPrivateProfileIntA@16
  01239	8b 4d f8	 mov	 ecx, DWORD PTR _this$[ebp]
  0123c	89 81 e0 01 00
	00		 mov	 DWORD PTR [ecx+480], eax

; 519  : 	this->Character.SUMDamageMin_StrLeft = GetPrivateProfileInt("Summoner","DamageMin_StrLeft",7,Character_DIR);

  01242	68 00 00 00 00	 push	 OFFSET ??_C@_0BN@HKLOFEFB@?4?4?2Data?2ExData?2Character?4ini?$AA@
  01247	6a 07		 push	 7
  01249	68 00 00 00 00	 push	 OFFSET ??_C@_0BC@BIIGKHOB@DamageMin_StrLeft?$AA@
  0124e	68 00 00 00 00	 push	 OFFSET ??_C@_08HLBMEKKE@Summoner?$AA@
  01253	ff 15 00 00 00
	00		 call	 DWORD PTR __imp__GetPrivateProfileIntA@16
  01259	8b 4d f8	 mov	 ecx, DWORD PTR _this$[ebp]
  0125c	89 81 e4 01 00
	00		 mov	 DWORD PTR [ecx+484], eax

; 520  : 	//----------------------
; 521  : 	this->Character.DWDamageMax_StrRight = GetPrivateProfileInt("Dark_Wizard","DamageMax_StrRight",4,Character_DIR);

  01262	68 00 00 00 00	 push	 OFFSET ??_C@_0BN@HKLOFEFB@?4?4?2Data?2ExData?2Character?4ini?$AA@
  01267	6a 04		 push	 4
  01269	68 00 00 00 00	 push	 OFFSET ??_C@_0BD@INKFCDFG@DamageMax_StrRight?$AA@
  0126e	68 00 00 00 00	 push	 OFFSET ??_C@_0M@CJAMKEGP@Dark_Wizard?$AA@
  01273	ff 15 00 00 00
	00		 call	 DWORD PTR __imp__GetPrivateProfileIntA@16
  01279	8b 4d f8	 mov	 ecx, DWORD PTR _this$[ebp]
  0127c	89 81 e8 01 00
	00		 mov	 DWORD PTR [ecx+488], eax

; 522  : 	this->Character.DWDamageMin_StrRight = GetPrivateProfileInt("Dark_Wizard","DamageMin_StrRight",6,Character_DIR);

  01282	68 00 00 00 00	 push	 OFFSET ??_C@_0BN@HKLOFEFB@?4?4?2Data?2ExData?2Character?4ini?$AA@
  01287	6a 06		 push	 6
  01289	68 00 00 00 00	 push	 OFFSET ??_C@_0BD@MNOKFLCA@DamageMin_StrRight?$AA@
  0128e	68 00 00 00 00	 push	 OFFSET ??_C@_0M@CJAMKEGP@Dark_Wizard?$AA@
  01293	ff 15 00 00 00
	00		 call	 DWORD PTR __imp__GetPrivateProfileIntA@16
  01299	8b 4d f8	 mov	 ecx, DWORD PTR _this$[ebp]
  0129c	89 81 ec 01 00
	00		 mov	 DWORD PTR [ecx+492], eax

; 523  : 	this->Character.DWDamageMax_StrLeft = GetPrivateProfileInt("Dark_Wizard","DamageMax_StrLeft",4,Character_DIR);

  012a2	68 00 00 00 00	 push	 OFFSET ??_C@_0BN@HKLOFEFB@?4?4?2Data?2ExData?2Character?4ini?$AA@
  012a7	6a 04		 push	 4
  012a9	68 00 00 00 00	 push	 OFFSET ??_C@_0BC@IIPFLHAL@DamageMax_StrLeft?$AA@
  012ae	68 00 00 00 00	 push	 OFFSET ??_C@_0M@CJAMKEGP@Dark_Wizard?$AA@
  012b3	ff 15 00 00 00
	00		 call	 DWORD PTR __imp__GetPrivateProfileIntA@16
  012b9	8b 4d f8	 mov	 ecx, DWORD PTR _this$[ebp]
  012bc	89 81 f0 01 00
	00		 mov	 DWORD PTR [ecx+496], eax

; 524  : 	this->Character.DWDamageMin_StrLeft = GetPrivateProfileInt("Dark_Wizard","DamageMin_StrLeft",6,Character_DIR);

  012c2	68 00 00 00 00	 push	 OFFSET ??_C@_0BN@HKLOFEFB@?4?4?2Data?2ExData?2Character?4ini?$AA@
  012c7	6a 06		 push	 6
  012c9	68 00 00 00 00	 push	 OFFSET ??_C@_0BC@BIIGKHOB@DamageMin_StrLeft?$AA@
  012ce	68 00 00 00 00	 push	 OFFSET ??_C@_0M@CJAMKEGP@Dark_Wizard?$AA@
  012d3	ff 15 00 00 00
	00		 call	 DWORD PTR __imp__GetPrivateProfileIntA@16
  012d9	8b 4d f8	 mov	 ecx, DWORD PTR _this$[ebp]
  012dc	89 81 f4 01 00
	00		 mov	 DWORD PTR [ecx+500], eax

; 525  : 	//------------------------
; 526  : 	this->Character.DLDamageMax_StrRight = GetPrivateProfileInt("Dark_Lord","DamageMax_StrRight",5,Character_DIR);

  012e2	68 00 00 00 00	 push	 OFFSET ??_C@_0BN@HKLOFEFB@?4?4?2Data?2ExData?2Character?4ini?$AA@
  012e7	6a 05		 push	 5
  012e9	68 00 00 00 00	 push	 OFFSET ??_C@_0BD@INKFCDFG@DamageMax_StrRight?$AA@
  012ee	68 00 00 00 00	 push	 OFFSET ??_C@_09PCICNBOE@Dark_Lord?$AA@
  012f3	ff 15 00 00 00
	00		 call	 DWORD PTR __imp__GetPrivateProfileIntA@16
  012f9	8b 4d f8	 mov	 ecx, DWORD PTR _this$[ebp]
  012fc	89 81 f8 01 00
	00		 mov	 DWORD PTR [ecx+504], eax

; 527  : 	this->Character.DLDamageMax_EneRight = GetPrivateProfileInt("Dark_Lord","DamageMax_EneRight",10,Character_DIR);

  01302	68 00 00 00 00	 push	 OFFSET ??_C@_0BN@HKLOFEFB@?4?4?2Data?2ExData?2Character?4ini?$AA@
  01307	6a 0a		 push	 10			; 0000000aH
  01309	68 00 00 00 00	 push	 OFFSET ??_C@_0BD@BNHNJHAO@DamageMax_EneRight?$AA@
  0130e	68 00 00 00 00	 push	 OFFSET ??_C@_09PCICNBOE@Dark_Lord?$AA@
  01313	ff 15 00 00 00
	00		 call	 DWORD PTR __imp__GetPrivateProfileIntA@16
  01319	8b 4d f8	 mov	 ecx, DWORD PTR _this$[ebp]
  0131c	89 81 fc 01 00
	00		 mov	 DWORD PTR [ecx+508], eax

; 528  : 	this->Character.DLDamageMin_StrRight = GetPrivateProfileInt("Dark_Lord","DamageMin_StrRight",7,Character_DIR);

  01322	68 00 00 00 00	 push	 OFFSET ??_C@_0BN@HKLOFEFB@?4?4?2Data?2ExData?2Character?4ini?$AA@
  01327	6a 07		 push	 7
  01329	68 00 00 00 00	 push	 OFFSET ??_C@_0BD@MNOKFLCA@DamageMin_StrRight?$AA@
  0132e	68 00 00 00 00	 push	 OFFSET ??_C@_09PCICNBOE@Dark_Lord?$AA@
  01333	ff 15 00 00 00
	00		 call	 DWORD PTR __imp__GetPrivateProfileIntA@16
  01339	8b 4d f8	 mov	 ecx, DWORD PTR _this$[ebp]
  0133c	89 81 00 02 00
	00		 mov	 DWORD PTR [ecx+512], eax

; 529  : 	this->Character.DLDamageMin_EneRight = GetPrivateProfileInt("Dark_Lord","DamageMin_EneRight",14,Character_DIR);

  01342	68 00 00 00 00	 push	 OFFSET ??_C@_0BN@HKLOFEFB@?4?4?2Data?2ExData?2Character?4ini?$AA@
  01347	6a 0e		 push	 14			; 0000000eH
  01349	68 00 00 00 00	 push	 OFFSET ??_C@_0BD@FNDCOPHI@DamageMin_EneRight?$AA@
  0134e	68 00 00 00 00	 push	 OFFSET ??_C@_09PCICNBOE@Dark_Lord?$AA@
  01353	ff 15 00 00 00
	00		 call	 DWORD PTR __imp__GetPrivateProfileIntA@16
  01359	8b 4d f8	 mov	 ecx, DWORD PTR _this$[ebp]
  0135c	89 81 04 02 00
	00		 mov	 DWORD PTR [ecx+516], eax

; 530  : 
; 531  : 	this->Character.DLDamageMax_StrLeft = GetPrivateProfileInt("Dark_Lord","DamageMax_StrLeft",5,Character_DIR);

  01362	68 00 00 00 00	 push	 OFFSET ??_C@_0BN@HKLOFEFB@?4?4?2Data?2ExData?2Character?4ini?$AA@
  01367	6a 05		 push	 5
  01369	68 00 00 00 00	 push	 OFFSET ??_C@_0BC@IIPFLHAL@DamageMax_StrLeft?$AA@
  0136e	68 00 00 00 00	 push	 OFFSET ??_C@_09PCICNBOE@Dark_Lord?$AA@
  01373	ff 15 00 00 00
	00		 call	 DWORD PTR __imp__GetPrivateProfileIntA@16
  01379	8b 4d f8	 mov	 ecx, DWORD PTR _this$[ebp]
  0137c	89 81 08 02 00
	00		 mov	 DWORD PTR [ecx+520], eax

; 532  : 	this->Character.DLDamageMax_EneLeft = GetPrivateProfileInt("Dark_Lord","DamageMax_EneLeft",10,Character_DIR);

  01382	68 00 00 00 00	 push	 OFFSET ??_C@_0BN@HKLOFEFB@?4?4?2Data?2ExData?2Character?4ini?$AA@
  01387	6a 0a		 push	 10			; 0000000aH
  01389	68 00 00 00 00	 push	 OFFSET ??_C@_0BC@OPFMHOAE@DamageMax_EneLeft?$AA@
  0138e	68 00 00 00 00	 push	 OFFSET ??_C@_09PCICNBOE@Dark_Lord?$AA@
  01393	ff 15 00 00 00
	00		 call	 DWORD PTR __imp__GetPrivateProfileIntA@16
  01399	8b 4d f8	 mov	 ecx, DWORD PTR _this$[ebp]
  0139c	89 81 0c 02 00
	00		 mov	 DWORD PTR [ecx+524], eax

; 533  : 	this->Character.DLDamageMin_StrLeft = GetPrivateProfileInt("Dark_Lord","DamageMin_StrLeft",7,Character_DIR);

  013a2	68 00 00 00 00	 push	 OFFSET ??_C@_0BN@HKLOFEFB@?4?4?2Data?2ExData?2Character?4ini?$AA@
  013a7	6a 07		 push	 7
  013a9	68 00 00 00 00	 push	 OFFSET ??_C@_0BC@BIIGKHOB@DamageMin_StrLeft?$AA@
  013ae	68 00 00 00 00	 push	 OFFSET ??_C@_09PCICNBOE@Dark_Lord?$AA@
  013b3	ff 15 00 00 00
	00		 call	 DWORD PTR __imp__GetPrivateProfileIntA@16
  013b9	8b 4d f8	 mov	 ecx, DWORD PTR _this$[ebp]
  013bc	89 81 10 02 00
	00		 mov	 DWORD PTR [ecx+528], eax

; 534  : 	this->Character.DLDamageMin_EneLeft = GetPrivateProfileInt("Dark_Lord","DamageMin_EneLeft",14,Character_DIR);

  013c2	68 00 00 00 00	 push	 OFFSET ??_C@_0BN@HKLOFEFB@?4?4?2Data?2ExData?2Character?4ini?$AA@
  013c7	6a 0e		 push	 14			; 0000000eH
  013c9	68 00 00 00 00	 push	 OFFSET ??_C@_0BC@HPCPGOOO@DamageMin_EneLeft?$AA@
  013ce	68 00 00 00 00	 push	 OFFSET ??_C@_09PCICNBOE@Dark_Lord?$AA@
  013d3	ff 15 00 00 00
	00		 call	 DWORD PTR __imp__GetPrivateProfileIntA@16
  013d9	8b 4d f8	 mov	 ecx, DWORD PTR _this$[ebp]
  013dc	89 81 14 02 00
	00		 mov	 DWORD PTR [ecx+532], eax

; 535  : 	//-------------------------
; 536  : 
; 537  : 	this->Character.SUMMagicDamageMax = GetPrivateProfileInt("Summoner","MagicDamageMax",4,Character_DIR);

  013e2	68 00 00 00 00	 push	 OFFSET ??_C@_0BN@HKLOFEFB@?4?4?2Data?2ExData?2Character?4ini?$AA@
  013e7	6a 04		 push	 4
  013e9	68 00 00 00 00	 push	 OFFSET ??_C@_0P@DJIODEEA@MagicDamageMax?$AA@
  013ee	68 00 00 00 00	 push	 OFFSET ??_C@_08HLBMEKKE@Summoner?$AA@
  013f3	ff 15 00 00 00
	00		 call	 DWORD PTR __imp__GetPrivateProfileIntA@16
  013f9	8b 4d f8	 mov	 ecx, DWORD PTR _this$[ebp]
  013fc	89 81 18 02 00
	00		 mov	 DWORD PTR [ecx+536], eax

; 538  : 	this->Character.SUMMagicDamageMin = GetPrivateProfileInt("Summoner","MagicDamageMin",9,Character_DIR);

  01402	68 00 00 00 00	 push	 OFFSET ??_C@_0BN@HKLOFEFB@?4?4?2Data?2ExData?2Character?4ini?$AA@
  01407	6a 09		 push	 9
  01409	68 00 00 00 00	 push	 OFFSET ??_C@_0P@CLAFNACP@MagicDamageMin?$AA@
  0140e	68 00 00 00 00	 push	 OFFSET ??_C@_08HLBMEKKE@Summoner?$AA@
  01413	ff 15 00 00 00
	00		 call	 DWORD PTR __imp__GetPrivateProfileIntA@16
  01419	8b 4d f8	 mov	 ecx, DWORD PTR _this$[ebp]
  0141c	89 81 1c 02 00
	00		 mov	 DWORD PTR [ecx+540], eax

; 539  : 
; 540  : 	this->Character.MGMagicDamageMax = GetPrivateProfileInt("Magic_Gladiator","MagicDamageMax",4,Character_DIR);

  01422	68 00 00 00 00	 push	 OFFSET ??_C@_0BN@HKLOFEFB@?4?4?2Data?2ExData?2Character?4ini?$AA@
  01427	6a 04		 push	 4
  01429	68 00 00 00 00	 push	 OFFSET ??_C@_0P@DJIODEEA@MagicDamageMax?$AA@
  0142e	68 00 00 00 00	 push	 OFFSET ??_C@_0BA@IPLGPKDA@Magic_Gladiator?$AA@
  01433	ff 15 00 00 00
	00		 call	 DWORD PTR __imp__GetPrivateProfileIntA@16
  01439	8b 4d f8	 mov	 ecx, DWORD PTR _this$[ebp]
  0143c	89 81 20 02 00
	00		 mov	 DWORD PTR [ecx+544], eax

; 541  : 	this->Character.MGMagicDamageMin = GetPrivateProfileInt("Magic_Gladiator","MagicDamageMin",9,Character_DIR);

  01442	68 00 00 00 00	 push	 OFFSET ??_C@_0BN@HKLOFEFB@?4?4?2Data?2ExData?2Character?4ini?$AA@
  01447	6a 09		 push	 9
  01449	68 00 00 00 00	 push	 OFFSET ??_C@_0P@CLAFNACP@MagicDamageMin?$AA@
  0144e	68 00 00 00 00	 push	 OFFSET ??_C@_0BA@IPLGPKDA@Magic_Gladiator?$AA@
  01453	ff 15 00 00 00
	00		 call	 DWORD PTR __imp__GetPrivateProfileIntA@16
  01459	8b 4d f8	 mov	 ecx, DWORD PTR _this$[ebp]
  0145c	89 81 24 02 00
	00		 mov	 DWORD PTR [ecx+548], eax

; 542  : 
; 543  : 	this->Character.DWMagicDamageMax = GetPrivateProfileInt("Dark_Wizard","MagicDamageMax",4,Character_DIR);

  01462	68 00 00 00 00	 push	 OFFSET ??_C@_0BN@HKLOFEFB@?4?4?2Data?2ExData?2Character?4ini?$AA@
  01467	6a 04		 push	 4
  01469	68 00 00 00 00	 push	 OFFSET ??_C@_0P@DJIODEEA@MagicDamageMax?$AA@
  0146e	68 00 00 00 00	 push	 OFFSET ??_C@_0M@CJAMKEGP@Dark_Wizard?$AA@
  01473	ff 15 00 00 00
	00		 call	 DWORD PTR __imp__GetPrivateProfileIntA@16
  01479	8b 4d f8	 mov	 ecx, DWORD PTR _this$[ebp]
  0147c	89 81 28 02 00
	00		 mov	 DWORD PTR [ecx+552], eax

; 544  : 	this->Character.DWMagicDamageMin = GetPrivateProfileInt("Dark_Wizard","MagicDamageMin",9,Character_DIR);

  01482	68 00 00 00 00	 push	 OFFSET ??_C@_0BN@HKLOFEFB@?4?4?2Data?2ExData?2Character?4ini?$AA@
  01487	6a 09		 push	 9
  01489	68 00 00 00 00	 push	 OFFSET ??_C@_0P@CLAFNACP@MagicDamageMin?$AA@
  0148e	68 00 00 00 00	 push	 OFFSET ??_C@_0M@CJAMKEGP@Dark_Wizard?$AA@
  01493	ff 15 00 00 00
	00		 call	 DWORD PTR __imp__GetPrivateProfileIntA@16
  01499	8b 4d f8	 mov	 ecx, DWORD PTR _this$[ebp]
  0149c	89 81 2c 02 00
	00		 mov	 DWORD PTR [ecx+556], eax

; 545  : 
; 546  : 	//---------------------------------
; 547  : 	this->Character.ELFSuccessfulBlocking = GetPrivateProfileInt("Fairy_Elf","SuccessfulBlocking",4,Character_DIR);

  014a2	68 00 00 00 00	 push	 OFFSET ??_C@_0BN@HKLOFEFB@?4?4?2Data?2ExData?2Character?4ini?$AA@
  014a7	6a 04		 push	 4
  014a9	68 00 00 00 00	 push	 OFFSET ??_C@_0BD@OCEADDEC@SuccessfulBlocking?$AA@
  014ae	68 00 00 00 00	 push	 OFFSET ??_C@_09DIFEFNGC@Fairy_Elf?$AA@
  014b3	ff 15 00 00 00
	00		 call	 DWORD PTR __imp__GetPrivateProfileIntA@16
  014b9	8b 4d f8	 mov	 ecx, DWORD PTR _this$[ebp]
  014bc	89 81 30 02 00
	00		 mov	 DWORD PTR [ecx+560], eax

; 548  : 	this->Character.DLSuccessfulBlocking = GetPrivateProfileInt("Dark_Lord","SuccessfulBlocking",7,Character_DIR);

  014c2	68 00 00 00 00	 push	 OFFSET ??_C@_0BN@HKLOFEFB@?4?4?2Data?2ExData?2Character?4ini?$AA@
  014c7	6a 07		 push	 7
  014c9	68 00 00 00 00	 push	 OFFSET ??_C@_0BD@OCEADDEC@SuccessfulBlocking?$AA@
  014ce	68 00 00 00 00	 push	 OFFSET ??_C@_09PCICNBOE@Dark_Lord?$AA@
  014d3	ff 15 00 00 00
	00		 call	 DWORD PTR __imp__GetPrivateProfileIntA@16
  014d9	8b 4d f8	 mov	 ecx, DWORD PTR _this$[ebp]
  014dc	89 81 34 02 00
	00		 mov	 DWORD PTR [ecx+564], eax

; 549  : 	this->Character.SUMSuccessfulBlocking = GetPrivateProfileInt("Summoner","SuccessfulBlocking",4,Character_DIR);

  014e2	68 00 00 00 00	 push	 OFFSET ??_C@_0BN@HKLOFEFB@?4?4?2Data?2ExData?2Character?4ini?$AA@
  014e7	6a 04		 push	 4
  014e9	68 00 00 00 00	 push	 OFFSET ??_C@_0BD@OCEADDEC@SuccessfulBlocking?$AA@
  014ee	68 00 00 00 00	 push	 OFFSET ??_C@_08HLBMEKKE@Summoner?$AA@
  014f3	ff 15 00 00 00
	00		 call	 DWORD PTR __imp__GetPrivateProfileIntA@16
  014f9	8b 4d f8	 mov	 ecx, DWORD PTR _this$[ebp]
  014fc	89 81 38 02 00
	00		 mov	 DWORD PTR [ecx+568], eax

; 550  : 	this->Character.DWSuccessfulBlocking = GetPrivateProfileInt("Dark_Wizard","SuccessfulBlocking",3,Character_DIR);

  01502	68 00 00 00 00	 push	 OFFSET ??_C@_0BN@HKLOFEFB@?4?4?2Data?2ExData?2Character?4ini?$AA@
  01507	6a 03		 push	 3
  01509	68 00 00 00 00	 push	 OFFSET ??_C@_0BD@OCEADDEC@SuccessfulBlocking?$AA@
  0150e	68 00 00 00 00	 push	 OFFSET ??_C@_0M@CJAMKEGP@Dark_Wizard?$AA@
  01513	ff 15 00 00 00
	00		 call	 DWORD PTR __imp__GetPrivateProfileIntA@16
  01519	8b 4d f8	 mov	 ecx, DWORD PTR _this$[ebp]
  0151c	89 81 3c 02 00
	00		 mov	 DWORD PTR [ecx+572], eax

; 551  : 	this->Character.DKSuccessfulBlocking = GetPrivateProfileInt("Dark_Knight","SuccessfulBlocking",3,Character_DIR);

  01522	68 00 00 00 00	 push	 OFFSET ??_C@_0BN@HKLOFEFB@?4?4?2Data?2ExData?2Character?4ini?$AA@
  01527	6a 03		 push	 3
  01529	68 00 00 00 00	 push	 OFFSET ??_C@_0BD@OCEADDEC@SuccessfulBlocking?$AA@
  0152e	68 00 00 00 00	 push	 OFFSET ??_C@_0M@MNCPOEBE@Dark_Knight?$AA@
  01533	ff 15 00 00 00
	00		 call	 DWORD PTR __imp__GetPrivateProfileIntA@16
  01539	8b 4d f8	 mov	 ecx, DWORD PTR _this$[ebp]
  0153c	89 81 40 02 00
	00		 mov	 DWORD PTR [ecx+576], eax

; 552  : 	this->Character.MGSuccessfulBlocking = GetPrivateProfileInt("Magic_Gladiator","SuccessfulBlocking",3,Character_DIR);

  01542	68 00 00 00 00	 push	 OFFSET ??_C@_0BN@HKLOFEFB@?4?4?2Data?2ExData?2Character?4ini?$AA@
  01547	6a 03		 push	 3
  01549	68 00 00 00 00	 push	 OFFSET ??_C@_0BD@OCEADDEC@SuccessfulBlocking?$AA@
  0154e	68 00 00 00 00	 push	 OFFSET ??_C@_0BA@IPLGPKDA@Magic_Gladiator?$AA@
  01553	ff 15 00 00 00
	00		 call	 DWORD PTR __imp__GetPrivateProfileIntA@16
  01559	8b 4d f8	 mov	 ecx, DWORD PTR _this$[ebp]
  0155c	89 81 44 02 00
	00		 mov	 DWORD PTR [ecx+580], eax

; 553  : 	//---------------------------------
; 554  : 	this->Character.ELFDefense = GetPrivateProfileInt("Fairy_Elf","Defense",10,Character_DIR);

  01562	68 00 00 00 00	 push	 OFFSET ??_C@_0BN@HKLOFEFB@?4?4?2Data?2ExData?2Character?4ini?$AA@
  01567	6a 0a		 push	 10			; 0000000aH
  01569	68 00 00 00 00	 push	 OFFSET ??_C@_07PEDPFCGC@Defense?$AA@
  0156e	68 00 00 00 00	 push	 OFFSET ??_C@_09DIFEFNGC@Fairy_Elf?$AA@
  01573	ff 15 00 00 00
	00		 call	 DWORD PTR __imp__GetPrivateProfileIntA@16
  01579	8b 4d f8	 mov	 ecx, DWORD PTR _this$[ebp]
  0157c	89 81 48 02 00
	00		 mov	 DWORD PTR [ecx+584], eax

; 555  : 	this->Character.DKDefense = GetPrivateProfileInt("Dark_Knight","Defense",3,Character_DIR);

  01582	68 00 00 00 00	 push	 OFFSET ??_C@_0BN@HKLOFEFB@?4?4?2Data?2ExData?2Character?4ini?$AA@
  01587	6a 03		 push	 3
  01589	68 00 00 00 00	 push	 OFFSET ??_C@_07PEDPFCGC@Defense?$AA@
  0158e	68 00 00 00 00	 push	 OFFSET ??_C@_0M@MNCPOEBE@Dark_Knight?$AA@
  01593	ff 15 00 00 00
	00		 call	 DWORD PTR __imp__GetPrivateProfileIntA@16
  01599	8b 4d f8	 mov	 ecx, DWORD PTR _this$[ebp]
  0159c	89 81 4c 02 00
	00		 mov	 DWORD PTR [ecx+588], eax

; 556  : 	this->Character.DLDefense = GetPrivateProfileInt("Dark_Lord","Defense",7,Character_DIR);

  015a2	68 00 00 00 00	 push	 OFFSET ??_C@_0BN@HKLOFEFB@?4?4?2Data?2ExData?2Character?4ini?$AA@
  015a7	6a 07		 push	 7
  015a9	68 00 00 00 00	 push	 OFFSET ??_C@_07PEDPFCGC@Defense?$AA@
  015ae	68 00 00 00 00	 push	 OFFSET ??_C@_09PCICNBOE@Dark_Lord?$AA@
  015b3	ff 15 00 00 00
	00		 call	 DWORD PTR __imp__GetPrivateProfileIntA@16
  015b9	8b 4d f8	 mov	 ecx, DWORD PTR _this$[ebp]
  015bc	89 81 50 02 00
	00		 mov	 DWORD PTR [ecx+592], eax

; 557  : 	this->Character.SUMDefense = GetPrivateProfileInt("Summoner","Defense",3,Character_DIR);

  015c2	68 00 00 00 00	 push	 OFFSET ??_C@_0BN@HKLOFEFB@?4?4?2Data?2ExData?2Character?4ini?$AA@
  015c7	6a 03		 push	 3
  015c9	68 00 00 00 00	 push	 OFFSET ??_C@_07PEDPFCGC@Defense?$AA@
  015ce	68 00 00 00 00	 push	 OFFSET ??_C@_08HLBMEKKE@Summoner?$AA@
  015d3	ff 15 00 00 00
	00		 call	 DWORD PTR __imp__GetPrivateProfileIntA@16
  015d9	8b 4d f8	 mov	 ecx, DWORD PTR _this$[ebp]
  015dc	89 81 54 02 00
	00		 mov	 DWORD PTR [ecx+596], eax

; 558  : 	this->Character.MGDefense = GetPrivateProfileInt("Magic_Gladiator","Defense",4,Character_DIR);

  015e2	68 00 00 00 00	 push	 OFFSET ??_C@_0BN@HKLOFEFB@?4?4?2Data?2ExData?2Character?4ini?$AA@
  015e7	6a 04		 push	 4
  015e9	68 00 00 00 00	 push	 OFFSET ??_C@_07PEDPFCGC@Defense?$AA@
  015ee	68 00 00 00 00	 push	 OFFSET ??_C@_0BA@IPLGPKDA@Magic_Gladiator?$AA@
  015f3	ff 15 00 00 00
	00		 call	 DWORD PTR __imp__GetPrivateProfileIntA@16
  015f9	8b 4d f8	 mov	 ecx, DWORD PTR _this$[ebp]
  015fc	89 81 58 02 00
	00		 mov	 DWORD PTR [ecx+600], eax

; 559  : 	this->Character.DWDefense = GetPrivateProfileInt("Dark_Wizard","Defense",4,Character_DIR);

  01602	68 00 00 00 00	 push	 OFFSET ??_C@_0BN@HKLOFEFB@?4?4?2Data?2ExData?2Character?4ini?$AA@
  01607	6a 04		 push	 4
  01609	68 00 00 00 00	 push	 OFFSET ??_C@_07PEDPFCGC@Defense?$AA@
  0160e	68 00 00 00 00	 push	 OFFSET ??_C@_0M@CJAMKEGP@Dark_Wizard?$AA@
  01613	ff 15 00 00 00
	00		 call	 DWORD PTR __imp__GetPrivateProfileIntA@16
  01619	8b 4d f8	 mov	 ecx, DWORD PTR _this$[ebp]
  0161c	89 81 5c 02 00
	00		 mov	 DWORD PTR [ecx+604], eax

; 560  : 
; 561  : 	this->Character.RFDamageMin_VitRight = GetPrivateProfileInt("RageFighter","DamageMin_VitRight",15,Character_DIR);

  01622	68 00 00 00 00	 push	 OFFSET ??_C@_0BN@HKLOFEFB@?4?4?2Data?2ExData?2Character?4ini?$AA@
  01627	6a 0f		 push	 15			; 0000000fH
  01629	68 00 00 00 00	 push	 OFFSET ??_C@_0BD@DBDAPKP@DamageMin_VitRight?$AA@
  0162e	68 00 00 00 00	 push	 OFFSET ??_C@_0M@BKNIILFP@RageFighter?$AA@
  01633	ff 15 00 00 00
	00		 call	 DWORD PTR __imp__GetPrivateProfileIntA@16
  01639	8b 4d f8	 mov	 ecx, DWORD PTR _this$[ebp]
  0163c	89 81 60 02 00
	00		 mov	 DWORD PTR [ecx+608], eax

; 562  : 	this->Character.RFDamageMin_StrRight = GetPrivateProfileInt("RageFighter","DamageMin_StrRight",7,Character_DIR);

  01642	68 00 00 00 00	 push	 OFFSET ??_C@_0BN@HKLOFEFB@?4?4?2Data?2ExData?2Character?4ini?$AA@
  01647	6a 07		 push	 7
  01649	68 00 00 00 00	 push	 OFFSET ??_C@_0BD@MNOKFLCA@DamageMin_StrRight?$AA@
  0164e	68 00 00 00 00	 push	 OFFSET ??_C@_0M@BKNIILFP@RageFighter?$AA@
  01653	ff 15 00 00 00
	00		 call	 DWORD PTR __imp__GetPrivateProfileIntA@16
  01659	8b 4d f8	 mov	 ecx, DWORD PTR _this$[ebp]
  0165c	89 81 64 02 00
	00		 mov	 DWORD PTR [ecx+612], eax

; 563  : 	this->Character.RFDamageMax_VitRight = GetPrivateProfileInt("RageFighter","DamageMax_VitRight",12,Character_DIR);

  01662	68 00 00 00 00	 push	 OFFSET ??_C@_0BN@HKLOFEFB@?4?4?2Data?2ExData?2Character?4ini?$AA@
  01667	6a 0c		 push	 12			; 0000000cH
  01669	68 00 00 00 00	 push	 OFFSET ??_C@_0BD@EDFMHHNJ@DamageMax_VitRight?$AA@
  0166e	68 00 00 00 00	 push	 OFFSET ??_C@_0M@BKNIILFP@RageFighter?$AA@
  01673	ff 15 00 00 00
	00		 call	 DWORD PTR __imp__GetPrivateProfileIntA@16
  01679	8b 4d f8	 mov	 ecx, DWORD PTR _this$[ebp]
  0167c	89 81 68 02 00
	00		 mov	 DWORD PTR [ecx+616], eax

; 564  : 	this->Character.RFDamageMax_StrRight = GetPrivateProfileInt("RageFighter","DamageMax_StrRight",5,Character_DIR);

  01682	68 00 00 00 00	 push	 OFFSET ??_C@_0BN@HKLOFEFB@?4?4?2Data?2ExData?2Character?4ini?$AA@
  01687	6a 05		 push	 5
  01689	68 00 00 00 00	 push	 OFFSET ??_C@_0BD@INKFCDFG@DamageMax_StrRight?$AA@
  0168e	68 00 00 00 00	 push	 OFFSET ??_C@_0M@BKNIILFP@RageFighter?$AA@
  01693	ff 15 00 00 00
	00		 call	 DWORD PTR __imp__GetPrivateProfileIntA@16
  01699	8b 4d f8	 mov	 ecx, DWORD PTR _this$[ebp]
  0169c	89 81 6c 02 00
	00		 mov	 DWORD PTR [ecx+620], eax

; 565  : 
; 566  : 	this->Character.RFDamageMin_VitLeft = GetPrivateProfileInt("RageFighter","DamageMin_VitLeft",15,Character_DIR);

  016a2	68 00 00 00 00	 push	 OFFSET ??_C@_0BN@HKLOFEFB@?4?4?2Data?2ExData?2Character?4ini?$AA@
  016a7	6a 0f		 push	 15			; 0000000fH
  016a9	68 00 00 00 00	 push	 OFFSET ??_C@_0BC@IADGLHJG@DamageMin_VitLeft?$AA@
  016ae	68 00 00 00 00	 push	 OFFSET ??_C@_0M@BKNIILFP@RageFighter?$AA@
  016b3	ff 15 00 00 00
	00		 call	 DWORD PTR __imp__GetPrivateProfileIntA@16
  016b9	8b 4d f8	 mov	 ecx, DWORD PTR _this$[ebp]
  016bc	89 81 70 02 00
	00		 mov	 DWORD PTR [ecx+624], eax

; 567  : 	this->Character.RFDamageMin_StrLeft = GetPrivateProfileInt("RageFighter","DamageMin_StrLeft",7,Character_DIR);

  016c2	68 00 00 00 00	 push	 OFFSET ??_C@_0BN@HKLOFEFB@?4?4?2Data?2ExData?2Character?4ini?$AA@
  016c7	6a 07		 push	 7
  016c9	68 00 00 00 00	 push	 OFFSET ??_C@_0BC@BIIGKHOB@DamageMin_StrLeft?$AA@
  016ce	68 00 00 00 00	 push	 OFFSET ??_C@_0M@BKNIILFP@RageFighter?$AA@
  016d3	ff 15 00 00 00
	00		 call	 DWORD PTR __imp__GetPrivateProfileIntA@16
  016d9	8b 4d f8	 mov	 ecx, DWORD PTR _this$[ebp]
  016dc	89 81 74 02 00
	00		 mov	 DWORD PTR [ecx+628], eax

; 568  : 	this->Character.RFDamageMax_VitLeft = GetPrivateProfileInt("RageFighter","DamageMax_VitLeft",12,Character_DIR);

  016e2	68 00 00 00 00	 push	 OFFSET ??_C@_0BN@HKLOFEFB@?4?4?2Data?2ExData?2Character?4ini?$AA@
  016e7	6a 0c		 push	 12			; 0000000cH
  016e9	68 00 00 00 00	 push	 OFFSET ??_C@_0BC@BAEFKHHM@DamageMax_VitLeft?$AA@
  016ee	68 00 00 00 00	 push	 OFFSET ??_C@_0M@BKNIILFP@RageFighter?$AA@
  016f3	ff 15 00 00 00
	00		 call	 DWORD PTR __imp__GetPrivateProfileIntA@16
  016f9	8b 4d f8	 mov	 ecx, DWORD PTR _this$[ebp]
  016fc	89 81 78 02 00
	00		 mov	 DWORD PTR [ecx+632], eax

; 569  : 	this->Character.RFDamageMax_StrLeft = GetPrivateProfileInt("RageFighter","DamageMax_StrLeft",5,Character_DIR);

  01702	68 00 00 00 00	 push	 OFFSET ??_C@_0BN@HKLOFEFB@?4?4?2Data?2ExData?2Character?4ini?$AA@
  01707	6a 05		 push	 5
  01709	68 00 00 00 00	 push	 OFFSET ??_C@_0BC@IIPFLHAL@DamageMax_StrLeft?$AA@
  0170e	68 00 00 00 00	 push	 OFFSET ??_C@_0M@BKNIILFP@RageFighter?$AA@
  01713	ff 15 00 00 00
	00		 call	 DWORD PTR __imp__GetPrivateProfileIntA@16
  01719	8b 4d f8	 mov	 ecx, DWORD PTR _this$[ebp]
  0171c	89 81 7c 02 00
	00		 mov	 DWORD PTR [ecx+636], eax

; 570  : 
; 571  : 	this->Character.RFSuccessfulBlocking = GetPrivateProfileInt("RageFighter","SuccessfulBlocking",10,Character_DIR);

  01722	68 00 00 00 00	 push	 OFFSET ??_C@_0BN@HKLOFEFB@?4?4?2Data?2ExData?2Character?4ini?$AA@
  01727	6a 0a		 push	 10			; 0000000aH
  01729	68 00 00 00 00	 push	 OFFSET ??_C@_0BD@OCEADDEC@SuccessfulBlocking?$AA@
  0172e	68 00 00 00 00	 push	 OFFSET ??_C@_0M@BKNIILFP@RageFighter?$AA@
  01733	ff 15 00 00 00
	00		 call	 DWORD PTR __imp__GetPrivateProfileIntA@16
  01739	8b 4d f8	 mov	 ecx, DWORD PTR _this$[ebp]
  0173c	89 81 80 02 00
	00		 mov	 DWORD PTR [ecx+640], eax

; 572  : 
; 573  : 	this->Character.RFDefense = GetPrivateProfileInt("RageFighter","Defense",8,Character_DIR);

  01742	68 00 00 00 00	 push	 OFFSET ??_C@_0BN@HKLOFEFB@?4?4?2Data?2ExData?2Character?4ini?$AA@
  01747	6a 08		 push	 8
  01749	68 00 00 00 00	 push	 OFFSET ??_C@_07PEDPFCGC@Defense?$AA@
  0174e	68 00 00 00 00	 push	 OFFSET ??_C@_0M@BKNIILFP@RageFighter?$AA@
  01753	ff 15 00 00 00
	00		 call	 DWORD PTR __imp__GetPrivateProfileIntA@16
  01759	8b 4d f8	 mov	 ecx, DWORD PTR _this$[ebp]
  0175c	89 81 84 02 00
	00		 mov	 DWORD PTR [ecx+644], eax

; 574  : 
; 575  : 	this->Character.DKSkillDMGPercentMax = GetPrivateProfileInt("Dark_Knight","DKSkillDMGPercentMax",0,Character_DIR);

  01762	68 00 00 00 00	 push	 OFFSET ??_C@_0BN@HKLOFEFB@?4?4?2Data?2ExData?2Character?4ini?$AA@
  01767	6a 00		 push	 0
  01769	68 00 00 00 00	 push	 OFFSET ??_C@_0BF@DKDDNDEL@DKSkillDMGPercentMax?$AA@
  0176e	68 00 00 00 00	 push	 OFFSET ??_C@_0M@MNCPOEBE@Dark_Knight?$AA@
  01773	ff 15 00 00 00
	00		 call	 DWORD PTR __imp__GetPrivateProfileIntA@16
  01779	8b 4d f8	 mov	 ecx, DWORD PTR _this$[ebp]
  0177c	89 81 88 02 00
	00		 mov	 DWORD PTR [ecx+648], eax

; 576  : 	this->Character.DLSkillDMGPercentMax = GetPrivateProfileInt("Dark_Lord","DLSkillDMGPercentMax",0,Character_DIR);

  01782	68 00 00 00 00	 push	 OFFSET ??_C@_0BN@HKLOFEFB@?4?4?2Data?2ExData?2Character?4ini?$AA@
  01787	6a 00		 push	 0
  01789	68 00 00 00 00	 push	 OFFSET ??_C@_0BF@NLHHHFNI@DLSkillDMGPercentMax?$AA@
  0178e	68 00 00 00 00	 push	 OFFSET ??_C@_09PCICNBOE@Dark_Lord?$AA@
  01793	ff 15 00 00 00
	00		 call	 DWORD PTR __imp__GetPrivateProfileIntA@16
  01799	8b 4d f8	 mov	 ecx, DWORD PTR _this$[ebp]
  0179c	89 81 8c 02 00
	00		 mov	 DWORD PTR [ecx+652], eax

; 577  : 
; 578  : #ifdef FIX_BERSERK_SUM
; 579  : 	this->Character.BerserkAddMana = GetPrivateProfileInt("Summoner","BerserkAddMana",0,Character_DIR);

  017a2	68 00 00 00 00	 push	 OFFSET ??_C@_0BN@HKLOFEFB@?4?4?2Data?2ExData?2Character?4ini?$AA@
  017a7	6a 00		 push	 0
  017a9	68 00 00 00 00	 push	 OFFSET ??_C@_0P@NCKHGKEG@BerserkAddMana?$AA@
  017ae	68 00 00 00 00	 push	 OFFSET ??_C@_08HLBMEKKE@Summoner?$AA@
  017b3	ff 15 00 00 00
	00		 call	 DWORD PTR __imp__GetPrivateProfileIntA@16
  017b9	8b 4d f8	 mov	 ecx, DWORD PTR _this$[ebp]
  017bc	89 81 90 02 00
	00		 mov	 DWORD PTR [ecx+656], eax

; 580  : #endif
; 581  : 
; 582  : #if(CUSTOM_CW_ALTERELFDMG)
; 583  : 	this->Character.CWElfAlterDMGPercent = GetPrivateProfileInt("Common","CWElfAlterDMGPercent",100,Character_DIR);

  017c2	68 00 00 00 00	 push	 OFFSET ??_C@_0BN@HKLOFEFB@?4?4?2Data?2ExData?2Character?4ini?$AA@
  017c7	6a 64		 push	 100			; 00000064H
  017c9	68 00 00 00 00	 push	 OFFSET ??_C@_0BF@FALIENJF@CWElfAlterDMGPercent?$AA@
  017ce	68 00 00 00 00	 push	 OFFSET ??_C@_06POMJKEPM@Common?$AA@
  017d3	ff 15 00 00 00
	00		 call	 DWORD PTR __imp__GetPrivateProfileIntA@16
  017d9	8b 4d f8	 mov	 ecx, DWORD PTR _this$[ebp]
  017dc	89 81 5c 01 00
	00		 mov	 DWORD PTR [ecx+348], eax

; 584  : #endif
; 585  : 
; 586  : 	this->Character.DKPvPAttackRateFact1 = GetPrivateProfileInt("Dark_Knight","DKPvPAttackRateFact1",3,Character_DIR);

  017e2	68 00 00 00 00	 push	 OFFSET ??_C@_0BN@HKLOFEFB@?4?4?2Data?2ExData?2Character?4ini?$AA@
  017e7	6a 03		 push	 3
  017e9	68 00 00 00 00	 push	 OFFSET ??_C@_0BF@EKIBBEHG@DKPvPAttackRateFact1?$AA@
  017ee	68 00 00 00 00	 push	 OFFSET ??_C@_0M@MNCPOEBE@Dark_Knight?$AA@
  017f3	ff 15 00 00 00
	00		 call	 DWORD PTR __imp__GetPrivateProfileIntA@16
  017f9	8b 4d f8	 mov	 ecx, DWORD PTR _this$[ebp]
  017fc	89 81 94 02 00
	00		 mov	 DWORD PTR [ecx+660], eax

; 587  : 	this->Character.DKPvPAttackRateFact2 = GetPrivateProfileInt("Dark_Knight","DKPvPAttackRateFact2",45,Character_DIR);

  01802	68 00 00 00 00	 push	 OFFSET ??_C@_0BN@HKLOFEFB@?4?4?2Data?2ExData?2Character?4ini?$AA@
  01807	6a 2d		 push	 45			; 0000002dH
  01809	68 00 00 00 00	 push	 OFFSET ??_C@_0BF@GBKMEHLF@DKPvPAttackRateFact2?$AA@
  0180e	68 00 00 00 00	 push	 OFFSET ??_C@_0M@MNCPOEBE@Dark_Knight?$AA@
  01813	ff 15 00 00 00
	00		 call	 DWORD PTR __imp__GetPrivateProfileIntA@16
  01819	8b 4d f8	 mov	 ecx, DWORD PTR _this$[ebp]
  0181c	89 81 98 02 00
	00		 mov	 DWORD PTR [ecx+664], eax

; 588  : 	this->Character.DKPvPAttackRateDiv = GetPrivateProfileInt("Dark_Knight","DKPvPAttackRateDiv",10,Character_DIR);

  01822	68 00 00 00 00	 push	 OFFSET ??_C@_0BN@HKLOFEFB@?4?4?2Data?2ExData?2Character?4ini?$AA@
  01827	6a 0a		 push	 10			; 0000000aH
  01829	68 00 00 00 00	 push	 OFFSET ??_C@_0BD@KLAJKAEL@DKPvPAttackRateDiv?$AA@
  0182e	68 00 00 00 00	 push	 OFFSET ??_C@_0M@MNCPOEBE@Dark_Knight?$AA@
  01833	ff 15 00 00 00
	00		 call	 DWORD PTR __imp__GetPrivateProfileIntA@16
  01839	8b 4d f8	 mov	 ecx, DWORD PTR _this$[ebp]
  0183c	89 81 9c 02 00
	00		 mov	 DWORD PTR [ecx+668], eax

; 589  : 
; 590  : 	this->Character.DWPvPAttackRateFact1 = GetPrivateProfileInt("Dark_Wizard","DWPvPAttackRateFact1",3,Character_DIR);

  01842	68 00 00 00 00	 push	 OFFSET ??_C@_0BN@HKLOFEFB@?4?4?2Data?2ExData?2Character?4ini?$AA@
  01847	6a 03		 push	 3
  01849	68 00 00 00 00	 push	 OFFSET ??_C@_0BF@HJHBICLI@DWPvPAttackRateFact1?$AA@
  0184e	68 00 00 00 00	 push	 OFFSET ??_C@_0M@CJAMKEGP@Dark_Wizard?$AA@
  01853	ff 15 00 00 00
	00		 call	 DWORD PTR __imp__GetPrivateProfileIntA@16
  01859	8b 4d f8	 mov	 ecx, DWORD PTR _this$[ebp]
  0185c	89 81 a0 02 00
	00		 mov	 DWORD PTR [ecx+672], eax

; 591  : 	this->Character.DWPvPAttackRateFact2 = GetPrivateProfileInt("Dark_Wizard","DWPvPAttackRateFact2",4,Character_DIR);

  01862	68 00 00 00 00	 push	 OFFSET ??_C@_0BN@HKLOFEFB@?4?4?2Data?2ExData?2Character?4ini?$AA@
  01867	6a 04		 push	 4
  01869	68 00 00 00 00	 push	 OFFSET ??_C@_0BF@FCFMNBHL@DWPvPAttackRateFact2?$AA@
  0186e	68 00 00 00 00	 push	 OFFSET ??_C@_0M@CJAMKEGP@Dark_Wizard?$AA@
  01873	ff 15 00 00 00
	00		 call	 DWORD PTR __imp__GetPrivateProfileIntA@16
  01879	8b 4d f8	 mov	 ecx, DWORD PTR _this$[ebp]
  0187c	89 81 a4 02 00
	00		 mov	 DWORD PTR [ecx+676], eax

; 592  : 
; 593  : 	this->Character.EEPvPAttackRateFact1 = GetPrivateProfileInt("Fairy_Elf","EEPvPAttackRateFact1",3,Character_DIR);

  01882	68 00 00 00 00	 push	 OFFSET ??_C@_0BN@HKLOFEFB@?4?4?2Data?2ExData?2Character?4ini?$AA@
  01887	6a 03		 push	 3
  01889	68 00 00 00 00	 push	 OFFSET ??_C@_0BF@MMKDNMIP@EEPvPAttackRateFact1?$AA@
  0188e	68 00 00 00 00	 push	 OFFSET ??_C@_09DIFEFNGC@Fairy_Elf?$AA@
  01893	ff 15 00 00 00
	00		 call	 DWORD PTR __imp__GetPrivateProfileIntA@16
  01899	8b 4d f8	 mov	 ecx, DWORD PTR _this$[ebp]
  0189c	89 81 a8 02 00
	00		 mov	 DWORD PTR [ecx+680], eax

; 594  : 	this->Character.EEPvPAttackRateFact2 = GetPrivateProfileInt("Fairy_Elf","EEPvPAttackRateFact2",6,Character_DIR);

  018a2	68 00 00 00 00	 push	 OFFSET ??_C@_0BN@HKLOFEFB@?4?4?2Data?2ExData?2Character?4ini?$AA@
  018a7	6a 06		 push	 6
  018a9	68 00 00 00 00	 push	 OFFSET ??_C@_0BF@OHIOIPEM@EEPvPAttackRateFact2?$AA@
  018ae	68 00 00 00 00	 push	 OFFSET ??_C@_09DIFEFNGC@Fairy_Elf?$AA@
  018b3	ff 15 00 00 00
	00		 call	 DWORD PTR __imp__GetPrivateProfileIntA@16
  018b9	8b 4d f8	 mov	 ecx, DWORD PTR _this$[ebp]
  018bc	89 81 ac 02 00
	00		 mov	 DWORD PTR [ecx+684], eax

; 595  : 	this->Character.EEPvPAttackRateDiv = GetPrivateProfileInt("Fairy_Elf","EEPvPAttackRateDiv",10,Character_DIR);

  018c2	68 00 00 00 00	 push	 OFFSET ??_C@_0BN@HKLOFEFB@?4?4?2Data?2ExData?2Character?4ini?$AA@
  018c7	6a 0a		 push	 10			; 0000000aH
  018c9	68 00 00 00 00	 push	 OFFSET ??_C@_0BD@GFMGDCJK@EEPvPAttackRateDiv?$AA@
  018ce	68 00 00 00 00	 push	 OFFSET ??_C@_09DIFEFNGC@Fairy_Elf?$AA@
  018d3	ff 15 00 00 00
	00		 call	 DWORD PTR __imp__GetPrivateProfileIntA@16
  018d9	8b 4d f8	 mov	 ecx, DWORD PTR _this$[ebp]
  018dc	89 81 b0 02 00
	00		 mov	 DWORD PTR [ecx+688], eax

; 596  : 
; 597  : 	this->Character.MGPvPAttackRateFact1 = GetPrivateProfileInt("Magic_Gladiator","MGPvPAttackRateFact1",3,Character_DIR);

  018e2	68 00 00 00 00	 push	 OFFSET ??_C@_0BN@HKLOFEFB@?4?4?2Data?2ExData?2Character?4ini?$AA@
  018e7	6a 03		 push	 3
  018e9	68 00 00 00 00	 push	 OFFSET ??_C@_0BF@CDJPKDHF@MGPvPAttackRateFact1?$AA@
  018ee	68 00 00 00 00	 push	 OFFSET ??_C@_0BA@IPLGPKDA@Magic_Gladiator?$AA@
  018f3	ff 15 00 00 00
	00		 call	 DWORD PTR __imp__GetPrivateProfileIntA@16
  018f9	8b 4d f8	 mov	 ecx, DWORD PTR _this$[ebp]
  018fc	89 81 b4 02 00
	00		 mov	 DWORD PTR [ecx+692], eax

; 598  : 	this->Character.MGPvPAttackRateFact2 = GetPrivateProfileInt("Magic_Gladiator","MGPvPAttackRateFact2",35,Character_DIR);

  01902	68 00 00 00 00	 push	 OFFSET ??_C@_0BN@HKLOFEFB@?4?4?2Data?2ExData?2Character?4ini?$AA@
  01907	6a 23		 push	 35			; 00000023H
  01909	68 00 00 00 00	 push	 OFFSET ??_C@_0BF@ILCPALG@MGPvPAttackRateFact2?$AA@
  0190e	68 00 00 00 00	 push	 OFFSET ??_C@_0BA@IPLGPKDA@Magic_Gladiator?$AA@
  01913	ff 15 00 00 00
	00		 call	 DWORD PTR __imp__GetPrivateProfileIntA@16
  01919	8b 4d f8	 mov	 ecx, DWORD PTR _this$[ebp]
  0191c	89 81 b8 02 00
	00		 mov	 DWORD PTR [ecx+696], eax

; 599  : 	this->Character.MGPvPAttackRateDiv = GetPrivateProfileInt("Magic_Gladiator","MGPvPAttackRateDiv",10,Character_DIR);

  01922	68 00 00 00 00	 push	 OFFSET ??_C@_0BN@HKLOFEFB@?4?4?2Data?2ExData?2Character?4ini?$AA@
  01927	6a 0a		 push	 10			; 0000000aH
  01929	68 00 00 00 00	 push	 OFFSET ??_C@_0BD@GJLDEEJM@MGPvPAttackRateDiv?$AA@
  0192e	68 00 00 00 00	 push	 OFFSET ??_C@_0BA@IPLGPKDA@Magic_Gladiator?$AA@
  01933	ff 15 00 00 00
	00		 call	 DWORD PTR __imp__GetPrivateProfileIntA@16
  01939	8b 4d f8	 mov	 ecx, DWORD PTR _this$[ebp]
  0193c	89 81 bc 02 00
	00		 mov	 DWORD PTR [ecx+700], eax

; 600  : 
; 601  : 	this->Character.DLPvPAttackRateFact1 = GetPrivateProfileInt("Dark_Lord","DLPvPAttackRateFact1",3,Character_DIR);

  01942	68 00 00 00 00	 push	 OFFSET ??_C@_0BN@HKLOFEFB@?4?4?2Data?2ExData?2Character?4ini?$AA@
  01947	6a 03		 push	 3
  01949	68 00 00 00 00	 push	 OFFSET ??_C@_0BF@KLMFLCOF@DLPvPAttackRateFact1?$AA@
  0194e	68 00 00 00 00	 push	 OFFSET ??_C@_09PCICNBOE@Dark_Lord?$AA@
  01953	ff 15 00 00 00
	00		 call	 DWORD PTR __imp__GetPrivateProfileIntA@16
  01959	8b 4d f8	 mov	 ecx, DWORD PTR _this$[ebp]
  0195c	89 81 c0 02 00
	00		 mov	 DWORD PTR [ecx+704], eax

; 602  : 	this->Character.DLPvPAttackRateFact2 = GetPrivateProfileInt("Dark_Lord","DLPvPAttackRateFact2",4,Character_DIR);

  01962	68 00 00 00 00	 push	 OFFSET ??_C@_0BN@HKLOFEFB@?4?4?2Data?2ExData?2Character?4ini?$AA@
  01967	6a 04		 push	 4
  01969	68 00 00 00 00	 push	 OFFSET ??_C@_0BF@IAOIOBCG@DLPvPAttackRateFact2?$AA@
  0196e	68 00 00 00 00	 push	 OFFSET ??_C@_09PCICNBOE@Dark_Lord?$AA@
  01973	ff 15 00 00 00
	00		 call	 DWORD PTR __imp__GetPrivateProfileIntA@16
  01979	8b 4d f8	 mov	 ecx, DWORD PTR _this$[ebp]
  0197c	89 81 c4 02 00
	00		 mov	 DWORD PTR [ecx+708], eax

; 603  : 
; 604  : 	this->Character.SUPvPAttackRateFact1 = GetPrivateProfileInt("Summoner","SUPvPAttackRateFact1",3,Character_DIR);

  01982	68 00 00 00 00	 push	 OFFSET ??_C@_0BN@HKLOFEFB@?4?4?2Data?2ExData?2Character?4ini?$AA@
  01987	6a 03		 push	 3
  01989	68 00 00 00 00	 push	 OFFSET ??_C@_0BF@JBLMGAIA@SUPvPAttackRateFact1?$AA@
  0198e	68 00 00 00 00	 push	 OFFSET ??_C@_08HLBMEKKE@Summoner?$AA@
  01993	ff 15 00 00 00
	00		 call	 DWORD PTR __imp__GetPrivateProfileIntA@16
  01999	8b 4d f8	 mov	 ecx, DWORD PTR _this$[ebp]
  0199c	89 81 c8 02 00
	00		 mov	 DWORD PTR [ecx+712], eax

; 605  : 	this->Character.SUPvPAttackRateFact2 = GetPrivateProfileInt("Summoner","SUPvPAttackRateFact2",35,Character_DIR);

  019a2	68 00 00 00 00	 push	 OFFSET ??_C@_0BN@HKLOFEFB@?4?4?2Data?2ExData?2Character?4ini?$AA@
  019a7	6a 23		 push	 35			; 00000023H
  019a9	68 00 00 00 00	 push	 OFFSET ??_C@_0BF@LKJBDDED@SUPvPAttackRateFact2?$AA@
  019ae	68 00 00 00 00	 push	 OFFSET ??_C@_08HLBMEKKE@Summoner?$AA@
  019b3	ff 15 00 00 00
	00		 call	 DWORD PTR __imp__GetPrivateProfileIntA@16
  019b9	8b 4d f8	 mov	 ecx, DWORD PTR _this$[ebp]
  019bc	89 81 cc 02 00
	00		 mov	 DWORD PTR [ecx+716], eax

; 606  : 	this->Character.SUPvPAttackRateDiv = GetPrivateProfileInt("Summoner","SUPvPAttackRateDiv",10,Character_DIR);

  019c2	68 00 00 00 00	 push	 OFFSET ??_C@_0BN@HKLOFEFB@?4?4?2Data?2ExData?2Character?4ini?$AA@
  019c7	6a 0a		 push	 10			; 0000000aH
  019c9	68 00 00 00 00	 push	 OFFSET ??_C@_0BD@MFPLFOJL@SUPvPAttackRateDiv?$AA@
  019ce	68 00 00 00 00	 push	 OFFSET ??_C@_08HLBMEKKE@Summoner?$AA@
  019d3	ff 15 00 00 00
	00		 call	 DWORD PTR __imp__GetPrivateProfileIntA@16
  019d9	8b 4d f8	 mov	 ecx, DWORD PTR _this$[ebp]
  019dc	89 81 d0 02 00
	00		 mov	 DWORD PTR [ecx+720], eax

; 607  : 
; 608  : 	this->Character.RFPvPAttackRateFact1 = GetPrivateProfileInt("RageFighter","RFPvPAttackRateFact1",3,Character_DIR);

  019e2	68 00 00 00 00	 push	 OFFSET ??_C@_0BN@HKLOFEFB@?4?4?2Data?2ExData?2Character?4ini?$AA@
  019e7	6a 03		 push	 3
  019e9	68 00 00 00 00	 push	 OFFSET ??_C@_0BF@EBAJAFPB@RFPvPAttackRateFact1?$AA@
  019ee	68 00 00 00 00	 push	 OFFSET ??_C@_0M@BKNIILFP@RageFighter?$AA@
  019f3	ff 15 00 00 00
	00		 call	 DWORD PTR __imp__GetPrivateProfileIntA@16
  019f9	8b 4d f8	 mov	 ecx, DWORD PTR _this$[ebp]
  019fc	89 81 d4 02 00
	00		 mov	 DWORD PTR [ecx+724], eax

; 609  : 	this->Character.RFPvPAttackRateFact2 = GetPrivateProfileInt("RageFighter","RFPvPAttackRateFact2",36,Character_DIR);

  01a02	68 00 00 00 00	 push	 OFFSET ??_C@_0BN@HKLOFEFB@?4?4?2Data?2ExData?2Character?4ini?$AA@
  01a07	6a 24		 push	 36			; 00000024H
  01a09	68 00 00 00 00	 push	 OFFSET ??_C@_0BF@GKCEFGDC@RFPvPAttackRateFact2?$AA@
  01a0e	68 00 00 00 00	 push	 OFFSET ??_C@_0M@BKNIILFP@RageFighter?$AA@
  01a13	ff 15 00 00 00
	00		 call	 DWORD PTR __imp__GetPrivateProfileIntA@16
  01a19	8b 4d f8	 mov	 ecx, DWORD PTR _this$[ebp]
  01a1c	89 81 d8 02 00
	00		 mov	 DWORD PTR [ecx+728], eax

; 610  : 	this->Character.RFPvPAttackRateDiv = GetPrivateProfileInt("RageFighter","RFPvPAttackRateDiv",10,Character_DIR);

