; Listing generated by Microsoft (R) Optimizing Compiler Version 16.00.40219.01 

	TITLE	D:\Projects\ExTeam6.3\Source\GameServer\GameServer\CreditDonate.cpp
	.686P
	.XMM
	include listing.inc
	.model	flat

INCLUDELIB LIBCMT
INCLUDELIB OLDNAMES

PUBLIC	?gCreditDonate@@3VcCreditDonate@@A		; gCreditDonate
_BSS	SEGMENT
?gCreditDonate@@3VcCreditDonate@@A DB 02afc8H DUP (?)	; gCreditDonate
_BSS	ENDS
PUBLIC	??_H@YGXPAXIHP6EPAX0@Z@Z			; `vector constructor iterator'
; Function compile flags: /Odtp /ZI
;	COMDAT ??_H@YGXPAXIHP6EPAX0@Z@Z
_TEXT	SEGMENT
___t$ = 8						; size = 4
___s$ = 12						; size = 4
___n$ = 16						; size = 4
___f$ = 20						; size = 4
??_H@YGXPAXIHP6EPAX0@Z@Z PROC				; `vector constructor iterator', COMDAT
  00000	55		 push	 ebp
  00001	8b ec		 mov	 ebp, esp
  00003	83 ec 40	 sub	 esp, 64			; 00000040H
  00006	53		 push	 ebx
  00007	56		 push	 esi
  00008	57		 push	 edi
$LN2@vector:
  00009	8b 45 10	 mov	 eax, DWORD PTR ___n$[ebp]
  0000c	83 e8 01	 sub	 eax, 1
  0000f	89 45 10	 mov	 DWORD PTR ___n$[ebp], eax
  00012	78 11		 js	 SHORT $LN3@vector
  00014	8b 4d 08	 mov	 ecx, DWORD PTR ___t$[ebp]
  00017	ff 55 14	 call	 DWORD PTR ___f$[ebp]
  0001a	8b 45 08	 mov	 eax, DWORD PTR ___t$[ebp]
  0001d	03 45 0c	 add	 eax, DWORD PTR ___s$[ebp]
  00020	89 45 08	 mov	 DWORD PTR ___t$[ebp], eax
  00023	eb e4		 jmp	 SHORT $LN2@vector
$LN3@vector:
  00025	5f		 pop	 edi
  00026	5e		 pop	 esi
  00027	5b		 pop	 ebx
  00028	8b e5		 mov	 esp, ebp
  0002a	5d		 pop	 ebp
  0002b	c2 10 00	 ret	 16			; 00000010H
??_H@YGXPAXIHP6EPAX0@Z@Z ENDP				; `vector constructor iterator'
_TEXT	ENDS
PUBLIC	?SetItemCount@cCreditDonate@@QAEHH@Z		; cCreditDonate::SetItemCount
EXTRN	?ItemAttribute@@3PAUITEM_ATTRIBUTE@@A:BYTE	; ItemAttribute
; Function compile flags: /Odtp /ZI
; File d:\projects\exteam6.3\source\gameserver\gameserver\creditdonate.cpp
_TEXT	SEGMENT
_this$ = -4						; size = 4
_Type$ = 8						; size = 4
?SetItemCount@cCreditDonate@@QAEHH@Z PROC		; cCreditDonate::SetItemCount
; _this$ = ecx

; 23   : {

  00000	55		 push	 ebp
  00001	8b ec		 mov	 ebp, esp
  00003	83 ec 44	 sub	 esp, 68			; 00000044H
  00006	53		 push	 ebx
  00007	56		 push	 esi
  00008	57		 push	 edi
  00009	89 4d fc	 mov	 DWORD PTR _this$[ebp], ecx

; 24   : 	if( ItemAttribute[Type].RequireClass[0] == 0 && 
; 25   : 		ItemAttribute[Type].RequireClass[1] == 0 &&   
; 26   : 		ItemAttribute[Type].RequireClass[2] == 0 && 
; 27   : 		ItemAttribute[Type].RequireClass[4] == 0 &&
; 28   : 		ItemAttribute[Type].RequireClass[5] == 0 )

  0000c	8b 45 08	 mov	 eax, DWORD PTR _Type$[ebp]
  0000f	6b c0 70	 imul	 eax, 112		; 00000070H
  00012	0f b6 88 3e 00
	00 00		 movzx	 ecx, BYTE PTR ?ItemAttribute@@3PAUITEM_ATTRIBUTE@@A[eax+62]
  00019	85 c9		 test	 ecx, ecx
  0001b	75 6d		 jne	 SHORT $LN3@SetItemCou
  0001d	8b 45 08	 mov	 eax, DWORD PTR _Type$[ebp]
  00020	6b c0 70	 imul	 eax, 112		; 00000070H
  00023	0f b6 88 3f 00
	00 00		 movzx	 ecx, BYTE PTR ?ItemAttribute@@3PAUITEM_ATTRIBUTE@@A[eax+63]
  0002a	85 c9		 test	 ecx, ecx
  0002c	75 5c		 jne	 SHORT $LN3@SetItemCou
  0002e	8b 45 08	 mov	 eax, DWORD PTR _Type$[ebp]
  00031	6b c0 70	 imul	 eax, 112		; 00000070H
  00034	0f b6 88 40 00
	00 00		 movzx	 ecx, BYTE PTR ?ItemAttribute@@3PAUITEM_ATTRIBUTE@@A[eax+64]
  0003b	85 c9		 test	 ecx, ecx
  0003d	75 4b		 jne	 SHORT $LN3@SetItemCou
  0003f	8b 45 08	 mov	 eax, DWORD PTR _Type$[ebp]
  00042	6b c0 70	 imul	 eax, 112		; 00000070H
  00045	0f b6 88 42 00
	00 00		 movzx	 ecx, BYTE PTR ?ItemAttribute@@3PAUITEM_ATTRIBUTE@@A[eax+66]
  0004c	85 c9		 test	 ecx, ecx
  0004e	75 3a		 jne	 SHORT $LN3@SetItemCou
  00050	8b 45 08	 mov	 eax, DWORD PTR _Type$[ebp]
  00053	6b c0 70	 imul	 eax, 112		; 00000070H
  00056	0f b6 88 43 00
	00 00		 movzx	 ecx, BYTE PTR ?ItemAttribute@@3PAUITEM_ATTRIBUTE@@A[eax+67]
  0005d	85 c9		 test	 ecx, ecx
  0005f	75 29		 jne	 SHORT $LN3@SetItemCou

; 29   : 	{
; 30   : 		if( ItemAttribute[Type].RequireClass[3] > 0 || ItemAttribute[Type].RequireClass[6] > 0 )

  00061	8b 45 08	 mov	 eax, DWORD PTR _Type$[ebp]
  00064	6b c0 70	 imul	 eax, 112		; 00000070H
  00067	0f b6 88 41 00
	00 00		 movzx	 ecx, BYTE PTR ?ItemAttribute@@3PAUITEM_ATTRIBUTE@@A[eax+65]
  0006e	85 c9		 test	 ecx, ecx
  00070	7f 11		 jg	 SHORT $LN1@SetItemCou
  00072	8b 45 08	 mov	 eax, DWORD PTR _Type$[ebp]
  00075	6b c0 70	 imul	 eax, 112		; 00000070H
  00078	0f b6 88 44 00
	00 00		 movzx	 ecx, BYTE PTR ?ItemAttribute@@3PAUITEM_ATTRIBUTE@@A[eax+68]
  0007f	85 c9		 test	 ecx, ecx
  00081	7e 07		 jle	 SHORT $LN3@SetItemCou
$LN1@SetItemCou:

; 31   : 		{
; 32   : 			return 4;

  00083	b8 04 00 00 00	 mov	 eax, 4
  00088	eb 05		 jmp	 SHORT $LN4@SetItemCou
$LN3@SetItemCou:

; 33   : 		}
; 34   : 	}
; 35   : 
; 36   : 	return 5;

  0008a	b8 05 00 00 00	 mov	 eax, 5
$LN4@SetItemCou:

; 37   : }

  0008f	5f		 pop	 edi
  00090	5e		 pop	 esi
  00091	5b		 pop	 ebx
  00092	8b e5		 mov	 esp, ebp
  00094	5d		 pop	 ebp
  00095	c2 04 00	 ret	 4
?SetItemCount@cCreditDonate@@QAEHH@Z ENDP		; cCreditDonate::SetItemCount
_TEXT	ENDS
PUBLIC	?NumberFor100@@YAHH@Z				; NumberFor100
; Function compile flags: /Odtp /ZI
_TEXT	SEGMENT
_i$223824 = -8						; size = 4
_b$ = -4						; size = 4
_a$ = 8							; size = 4
?NumberFor100@@YAHH@Z PROC				; NumberFor100

; 40   : {

  000a0	55		 push	 ebp
  000a1	8b ec		 mov	 ebp, esp
  000a3	83 ec 48	 sub	 esp, 72			; 00000048H
  000a6	53		 push	 ebx
  000a7	56		 push	 esi
  000a8	57		 push	 edi

; 41   : 	int b = 0;

  000a9	c7 45 fc 00 00
	00 00		 mov	 DWORD PTR _b$[ebp], 0

; 42   : 	for(int i = 100; i < 10000; i+=100)

  000b0	c7 45 f8 64 00
	00 00		 mov	 DWORD PTR _i$223824[ebp], 100 ; 00000064H
  000b7	eb 09		 jmp	 SHORT $LN4@NumberFor1
$LN3@NumberFor1:
  000b9	8b 45 f8	 mov	 eax, DWORD PTR _i$223824[ebp]
  000bc	83 c0 64	 add	 eax, 100		; 00000064H
  000bf	89 45 f8	 mov	 DWORD PTR _i$223824[ebp], eax
$LN4@NumberFor1:
  000c2	81 7d f8 10 27
	00 00		 cmp	 DWORD PTR _i$223824[ebp], 10000 ; 00002710H
  000c9	7d 18		 jge	 SHORT $LN2@NumberFor1

; 43   : 	{
; 44   : 		b++;

  000cb	8b 45 fc	 mov	 eax, DWORD PTR _b$[ebp]
  000ce	83 c0 01	 add	 eax, 1
  000d1	89 45 fc	 mov	 DWORD PTR _b$[ebp], eax

; 45   : 		if(a == i)

  000d4	8b 45 08	 mov	 eax, DWORD PTR _a$[ebp]
  000d7	3b 45 f8	 cmp	 eax, DWORD PTR _i$223824[ebp]
  000da	75 05		 jne	 SHORT $LN1@NumberFor1

; 46   : 		{
; 47   : 			return b;

  000dc	8b 45 fc	 mov	 eax, DWORD PTR _b$[ebp]
  000df	eb 05		 jmp	 SHORT $LN5@NumberFor1
$LN1@NumberFor1:

; 48   : 		}
; 49   : 	}

  000e1	eb d6		 jmp	 SHORT $LN3@NumberFor1
$LN2@NumberFor1:

; 50   : 	return -1;

  000e3	83 c8 ff	 or	 eax, -1
$LN5@NumberFor1:

; 51   : }

  000e6	5f		 pop	 edi
  000e7	5e		 pop	 esi
  000e8	5b		 pop	 ebx
  000e9	8b e5		 mov	 esp, ebp
  000eb	5d		 pop	 ebp
  000ec	c3		 ret	 0
?NumberFor100@@YAHH@Z ENDP				; NumberFor100
_TEXT	ENDS
PUBLIC	?NormalItem@@YA_NHH@Z				; NormalItem
; Function compile flags: /Odtp /ZI
_TEXT	SEGMENT
_Type$ = 8						; size = 4
_Index$ = 12						; size = 4
?NormalItem@@YA_NHH@Z PROC				; NormalItem

; 54   : {

  000f0	55		 push	 ebp
  000f1	8b ec		 mov	 ebp, esp
  000f3	83 ec 40	 sub	 esp, 64			; 00000040H
  000f6	53		 push	 ebx
  000f7	56		 push	 esi
  000f8	57		 push	 edi

; 55   : 	if(ITEMGET(Type, Index) < ITEMGET(11,255) ) return true;

  000f9	8b 45 08	 mov	 eax, DWORD PTR _Type$[ebp]
  000fc	c1 e0 09	 shl	 eax, 9
  000ff	03 45 0c	 add	 eax, DWORD PTR _Index$[ebp]
  00102	3d ff 16 00 00	 cmp	 eax, 5887		; 000016ffH
  00107	7d 06		 jge	 SHORT $LN2@NormalItem
  00109	b0 01		 mov	 al, 1
  0010b	eb 04		 jmp	 SHORT $LN3@NormalItem
  0010d	eb 02		 jmp	 SHORT $LN3@NormalItem
$LN2@NormalItem:

; 56   : 	else return false;

  0010f	32 c0		 xor	 al, al
$LN3@NormalItem:

; 57   : }

  00111	5f		 pop	 edi
  00112	5e		 pop	 esi
  00113	5b		 pop	 ebx
  00114	8b e5		 mov	 esp, ebp
  00116	5d		 pop	 ebp
  00117	c3		 ret	 0
?NormalItem@@YA_NHH@Z ENDP				; NormalItem
_TEXT	ENDS
PUBLIC	??_C@_02DKCKIIND@?$CFs?$AA@			; `string'
PUBLIC	??_C@_0CD@MBABJFMK@?$CC?$CF?$FL?$FO?$CC?$FN?$CC?5?$CFd?5?$CFd?5?$CFd?5?$CFd?5?$CFd?5?$CFd?5?$CFd?5?$CFd?5@ ; `string'
PUBLIC	??_C@_01KDCPPGHE@r?$AA@				; `string'
PUBLIC	??_C@_0N@KFOMAHLG@EndDayChange?$AA@		; `string'
PUBLIC	??_C@_0P@MFEPLFBD@StartDayChange?$AA@		; `string'
PUBLIC	??_C@_0BE@IBGOKHOG@MinusDivGrandChange?$AA@	; `string'
PUBLIC	??_C@_0BF@IEOLIBEM@ActiveDivGrandChange?$AA@	; `string'
PUBLIC	??_C@_0BE@EPKNBCGB@MinusDivResetChange?$AA@	; `string'
PUBLIC	??_C@_0BF@EKCIDEML@ActiveDivResetChange?$AA@	; `string'
PUBLIC	??_C@_0P@GPCKADMD@MinGrandChange?$AA@		; `string'
PUBLIC	??_C@_0P@KBOJLGEE@MinResetChange?$AA@		; `string'
PUBLIC	??_C@_0BB@BDGDNJPA@premium_price_30?$AA@	; `string'
PUBLIC	??_C@_0BA@ENPEFDLA@premium_price_7?$AA@		; `string'
PUBLIC	??_C@_0BA@BLKOPEDG@premium_price_1?$AA@		; `string'
PUBLIC	??_C@_0M@FBABJPHA@ChangeWCoin?$AA@		; `string'
PUBLIC	??_C@_0N@PKCFHGHN@ChangeCredit?$AA@		; `string'
PUBLIC	??_C@_0M@IENFFKKB@ChangeClass?$AA@		; `string'
PUBLIC	??_C@_0L@IFDBMNGG@BuyPremium?$AA@		; `string'
PUBLIC	??_C@_09NJGFGAFN@BuyGoblin?$AA@			; `string'
PUBLIC	??_C@_09ECLNAFJD@BuyWcoinP?$AA@			; `string'
PUBLIC	??_C@_09CDFCEEAB@BuyWcoinC?$AA@			; `string'
PUBLIC	??_C@_0M@JDMDMCGH@SellProcent?$AA@		; `string'
PUBLIC	??_C@_06MLPMCPDE@ExTeam?$AA@			; `string'
PUBLIC	??_C@_06CKGENIKG@Enable?$AA@			; `string'
PUBLIC	??_C@_0CA@ICPLOBL@?4?4?2Data?2ExData?2CreditDonate?4ini?$AA@ ; `string'
PUBLIC	__$ArrayPad$
PUBLIC	?Load@cCreditDonate@@QAEXXZ			; cCreditDonate::Load
EXTRN	_fclose:PROC
EXTRN	_sprintf:PROC
EXTRN	_sscanf:PROC
EXTRN	?Ex_IsBadFileLine@@YA_NPADAAH@Z:PROC		; Ex_IsBadFileLine
EXTRN	_fgets:PROC
EXTRN	_feof:PROC
EXTRN	_fopen:PROC
EXTRN	?CheckUser@CExLicense@@QAE_NH@Z:PROC		; CExLicense::CheckUser
EXTRN	?g_ExLicense@@3VCExLicense@@A:BYTE		; g_ExLicense
EXTRN	__imp__GetPrivateProfileIntA@16:PROC
EXTRN	___security_cookie:DWORD
EXTRN	@__security_check_cookie@4:PROC
;	COMDAT ??_C@_02DKCKIIND@?$CFs?$AA@
CONST	SEGMENT
??_C@_02DKCKIIND@?$CFs?$AA@ DB '%s', 00H		; `string'
CONST	ENDS
;	COMDAT ??_C@_0CD@MBABJFMK@?$CC?$CF?$FL?$FO?$CC?$FN?$CC?5?$CFd?5?$CFd?5?$CFd?5?$CFd?5?$CFd?5?$CFd?5?$CFd?5?$CFd?5@
CONST	SEGMENT
??_C@_0CD@MBABJFMK@?$CC?$CF?$FL?$FO?$CC?$FN?$CC?5?$CFd?5?$CFd?5?$CFd?5?$CFd?5?$CFd?5?$CFd?5?$CFd?5?$CFd?5@ DB '"'
	DB	'%[^"]" %d %d %d %d %d %d %d %d %d', 00H	; `string'
CONST	ENDS
;	COMDAT ??_C@_01KDCPPGHE@r?$AA@
CONST	SEGMENT
??_C@_01KDCPPGHE@r?$AA@ DB 'r', 00H			; `string'
CONST	ENDS
;	COMDAT ??_C@_0N@KFOMAHLG@EndDayChange?$AA@
CONST	SEGMENT
??_C@_0N@KFOMAHLG@EndDayChange?$AA@ DB 'EndDayChange', 00H ; `string'
CONST	ENDS
;	COMDAT ??_C@_0P@MFEPLFBD@StartDayChange?$AA@
CONST	SEGMENT
??_C@_0P@MFEPLFBD@StartDayChange?$AA@ DB 'StartDayChange', 00H ; `string'
CONST	ENDS
;	COMDAT ??_C@_0BE@IBGOKHOG@MinusDivGrandChange?$AA@
CONST	SEGMENT
??_C@_0BE@IBGOKHOG@MinusDivGrandChange?$AA@ DB 'MinusDivGrandChange', 00H ; `string'
CONST	ENDS
;	COMDAT ??_C@_0BF@IEOLIBEM@ActiveDivGrandChange?$AA@
CONST	SEGMENT
??_C@_0BF@IEOLIBEM@ActiveDivGrandChange?$AA@ DB 'ActiveDivGrandChange', 00H ; `string'
CONST	ENDS
;	COMDAT ??_C@_0BE@EPKNBCGB@MinusDivResetChange?$AA@
CONST	SEGMENT
??_C@_0BE@EPKNBCGB@MinusDivResetChange?$AA@ DB 'MinusDivResetChange', 00H ; `string'
CONST	ENDS
;	COMDAT ??_C@_0BF@EKCIDEML@ActiveDivResetChange?$AA@
CONST	SEGMENT
??_C@_0BF@EKCIDEML@ActiveDivResetChange?$AA@ DB 'ActiveDivResetChange', 00H ; `string'
CONST	ENDS
;	COMDAT ??_C@_0P@GPCKADMD@MinGrandChange?$AA@
CONST	SEGMENT
??_C@_0P@GPCKADMD@MinGrandChange?$AA@ DB 'MinGrandChange', 00H ; `string'
CONST	ENDS
;	COMDAT ??_C@_0P@KBOJLGEE@MinResetChange?$AA@
CONST	SEGMENT
??_C@_0P@KBOJLGEE@MinResetChange?$AA@ DB 'MinResetChange', 00H ; `string'
CONST	ENDS
;	COMDAT ??_C@_0BB@BDGDNJPA@premium_price_30?$AA@
CONST	SEGMENT
??_C@_0BB@BDGDNJPA@premium_price_30?$AA@ DB 'premium_price_30', 00H ; `string'
CONST	ENDS
;	COMDAT ??_C@_0BA@ENPEFDLA@premium_price_7?$AA@
CONST	SEGMENT
??_C@_0BA@ENPEFDLA@premium_price_7?$AA@ DB 'premium_price_7', 00H ; `string'
CONST	ENDS
;	COMDAT ??_C@_0BA@BLKOPEDG@premium_price_1?$AA@
CONST	SEGMENT
??_C@_0BA@BLKOPEDG@premium_price_1?$AA@ DB 'premium_price_1', 00H ; `string'
CONST	ENDS
;	COMDAT ??_C@_0M@FBABJPHA@ChangeWCoin?$AA@
CONST	SEGMENT
??_C@_0M@FBABJPHA@ChangeWCoin?$AA@ DB 'ChangeWCoin', 00H ; `string'
CONST	ENDS
;	COMDAT ??_C@_0N@PKCFHGHN@ChangeCredit?$AA@
CONST	SEGMENT
??_C@_0N@PKCFHGHN@ChangeCredit?$AA@ DB 'ChangeCredit', 00H ; `string'
CONST	ENDS
;	COMDAT ??_C@_0M@IENFFKKB@ChangeClass?$AA@
CONST	SEGMENT
??_C@_0M@IENFFKKB@ChangeClass?$AA@ DB 'ChangeClass', 00H ; `string'
CONST	ENDS
;	COMDAT ??_C@_0L@IFDBMNGG@BuyPremium?$AA@
CONST	SEGMENT
??_C@_0L@IFDBMNGG@BuyPremium?$AA@ DB 'BuyPremium', 00H	; `string'
CONST	ENDS
;	COMDAT ??_C@_09NJGFGAFN@BuyGoblin?$AA@
CONST	SEGMENT
??_C@_09NJGFGAFN@BuyGoblin?$AA@ DB 'BuyGoblin', 00H	; `string'
CONST	ENDS
;	COMDAT ??_C@_09ECLNAFJD@BuyWcoinP?$AA@
CONST	SEGMENT
??_C@_09ECLNAFJD@BuyWcoinP?$AA@ DB 'BuyWcoinP', 00H	; `string'
CONST	ENDS
;	COMDAT ??_C@_09CDFCEEAB@BuyWcoinC?$AA@
CONST	SEGMENT
??_C@_09CDFCEEAB@BuyWcoinC?$AA@ DB 'BuyWcoinC', 00H	; `string'
CONST	ENDS
;	COMDAT ??_C@_0M@JDMDMCGH@SellProcent?$AA@
CONST	SEGMENT
??_C@_0M@JDMDMCGH@SellProcent?$AA@ DB 'SellProcent', 00H ; `string'
CONST	ENDS
;	COMDAT ??_C@_06MLPMCPDE@ExTeam?$AA@
CONST	SEGMENT
??_C@_06MLPMCPDE@ExTeam?$AA@ DB 'ExTeam', 00H		; `string'
CONST	ENDS
;	COMDAT ??_C@_06CKGENIKG@Enable?$AA@
CONST	SEGMENT
??_C@_06CKGENIKG@Enable?$AA@ DB 'Enable', 00H		; `string'
CONST	ENDS
;	COMDAT ??_C@_0CA@ICPLOBL@?4?4?2Data?2ExData?2CreditDonate?4ini?$AA@
CONST	SEGMENT
??_C@_0CA@ICPLOBL@?4?4?2Data?2ExData?2CreditDonate?4ini?$AA@ DB '..\Data\'
	DB	'ExData\CreditDonate.ini', 00H		; `string'
; Function compile flags: /Odtp /ZI
CONST	ENDS
_TEXT	SEGMENT
_mes$223876 = -412					; size = 100
_n$223875 = -312					; size = 36
_Flag$ = -276						; size = 4
_Buff$ = -272						; size = 256
_file$ = -16						; size = 4
_i$223861 = -12						; size = 4
_this$ = -8						; size = 4
__$ArrayPad$ = -4					; size = 4
?Load@cCreditDonate@@QAEXXZ PROC			; cCreditDonate::Load
; _this$ = ecx

; 60   : {

  00120	55		 push	 ebp
  00121	8b ec		 mov	 ebp, esp
  00123	81 ec dc 01 00
	00		 sub	 esp, 476		; 000001dcH
  00129	a1 00 00 00 00	 mov	 eax, DWORD PTR ___security_cookie
  0012e	33 c5		 xor	 eax, ebp
  00130	89 45 fc	 mov	 DWORD PTR __$ArrayPad$[ebp], eax
  00133	53		 push	 ebx
  00134	56		 push	 esi
  00135	57		 push	 edi
  00136	89 4d f8	 mov	 DWORD PTR _this$[ebp], ecx

; 61   : 	this->Enable = GetPrivateProfileInt("ExTeam","Enable",0,CR_DONATE_DIR);

  00139	68 00 00 00 00	 push	 OFFSET ??_C@_0CA@ICPLOBL@?4?4?2Data?2ExData?2CreditDonate?4ini?$AA@
  0013e	6a 00		 push	 0
  00140	68 00 00 00 00	 push	 OFFSET ??_C@_06CKGENIKG@Enable?$AA@
  00145	68 00 00 00 00	 push	 OFFSET ??_C@_06MLPMCPDE@ExTeam?$AA@
  0014a	ff 15 00 00 00
	00		 call	 DWORD PTR __imp__GetPrivateProfileIntA@16
  00150	85 c0		 test	 eax, eax
  00152	0f 95 c0	 setne	 al
  00155	8b 4d f8	 mov	 ecx, DWORD PTR _this$[ebp]
  00158	88 01		 mov	 BYTE PTR [ecx], al

; 62   : 	this->SellProcent = GetPrivateProfileInt("ExTeam","SellProcent",0,CR_DONATE_DIR);

  0015a	68 00 00 00 00	 push	 OFFSET ??_C@_0CA@ICPLOBL@?4?4?2Data?2ExData?2CreditDonate?4ini?$AA@
  0015f	6a 00		 push	 0
  00161	68 00 00 00 00	 push	 OFFSET ??_C@_0M@JDMDMCGH@SellProcent?$AA@
  00166	68 00 00 00 00	 push	 OFFSET ??_C@_06MLPMCPDE@ExTeam?$AA@
  0016b	ff 15 00 00 00
	00		 call	 DWORD PTR __imp__GetPrivateProfileIntA@16
  00171	8b 4d f8	 mov	 ecx, DWORD PTR _this$[ebp]
  00174	89 41 04	 mov	 DWORD PTR [ecx+4], eax

; 63   : 
; 64   : 	this->BuyWcoinC = GetPrivateProfileInt("ExTeam","BuyWcoinC",0,CR_DONATE_DIR);

  00177	68 00 00 00 00	 push	 OFFSET ??_C@_0CA@ICPLOBL@?4?4?2Data?2ExData?2CreditDonate?4ini?$AA@
  0017c	6a 00		 push	 0
  0017e	68 00 00 00 00	 push	 OFFSET ??_C@_09CDFCEEAB@BuyWcoinC?$AA@
  00183	68 00 00 00 00	 push	 OFFSET ??_C@_06MLPMCPDE@ExTeam?$AA@
  00188	ff 15 00 00 00
	00		 call	 DWORD PTR __imp__GetPrivateProfileIntA@16
  0018e	85 c0		 test	 eax, eax
  00190	0f 95 c0	 setne	 al
  00193	8b 4d f8	 mov	 ecx, DWORD PTR _this$[ebp]
  00196	88 41 08	 mov	 BYTE PTR [ecx+8], al

; 65   : 	this->BuyWcoinP = GetPrivateProfileInt("ExTeam","BuyWcoinP",0,CR_DONATE_DIR);

  00199	68 00 00 00 00	 push	 OFFSET ??_C@_0CA@ICPLOBL@?4?4?2Data?2ExData?2CreditDonate?4ini?$AA@
  0019e	6a 00		 push	 0
  001a0	68 00 00 00 00	 push	 OFFSET ??_C@_09ECLNAFJD@BuyWcoinP?$AA@
  001a5	68 00 00 00 00	 push	 OFFSET ??_C@_06MLPMCPDE@ExTeam?$AA@
  001aa	ff 15 00 00 00
	00		 call	 DWORD PTR __imp__GetPrivateProfileIntA@16
  001b0	85 c0		 test	 eax, eax
  001b2	0f 95 c0	 setne	 al
  001b5	8b 4d f8	 mov	 ecx, DWORD PTR _this$[ebp]
  001b8	88 41 09	 mov	 BYTE PTR [ecx+9], al

; 66   : 	this->BuyGoblin = GetPrivateProfileInt("ExTeam","BuyGoblin",0,CR_DONATE_DIR);

  001bb	68 00 00 00 00	 push	 OFFSET ??_C@_0CA@ICPLOBL@?4?4?2Data?2ExData?2CreditDonate?4ini?$AA@
  001c0	6a 00		 push	 0
  001c2	68 00 00 00 00	 push	 OFFSET ??_C@_09NJGFGAFN@BuyGoblin?$AA@
  001c7	68 00 00 00 00	 push	 OFFSET ??_C@_06MLPMCPDE@ExTeam?$AA@
  001cc	ff 15 00 00 00
	00		 call	 DWORD PTR __imp__GetPrivateProfileIntA@16
  001d2	85 c0		 test	 eax, eax
  001d4	0f 95 c0	 setne	 al
  001d7	8b 4d f8	 mov	 ecx, DWORD PTR _this$[ebp]
  001da	88 41 0a	 mov	 BYTE PTR [ecx+10], al

; 67   : 	this->BuyPremium = GetPrivateProfileInt("ExTeam","BuyPremium",0,CR_DONATE_DIR);

  001dd	68 00 00 00 00	 push	 OFFSET ??_C@_0CA@ICPLOBL@?4?4?2Data?2ExData?2CreditDonate?4ini?$AA@
  001e2	6a 00		 push	 0
  001e4	68 00 00 00 00	 push	 OFFSET ??_C@_0L@IFDBMNGG@BuyPremium?$AA@
  001e9	68 00 00 00 00	 push	 OFFSET ??_C@_06MLPMCPDE@ExTeam?$AA@
  001ee	ff 15 00 00 00
	00		 call	 DWORD PTR __imp__GetPrivateProfileIntA@16
  001f4	85 c0		 test	 eax, eax
  001f6	0f 95 c0	 setne	 al
  001f9	8b 4d f8	 mov	 ecx, DWORD PTR _this$[ebp]
  001fc	88 41 0b	 mov	 BYTE PTR [ecx+11], al

; 68   : 
; 69   : 	this->ChangeClass = GetPrivateProfileInt("ExTeam","ChangeClass",0,CR_DONATE_DIR);

  001ff	68 00 00 00 00	 push	 OFFSET ??_C@_0CA@ICPLOBL@?4?4?2Data?2ExData?2CreditDonate?4ini?$AA@
  00204	6a 00		 push	 0
  00206	68 00 00 00 00	 push	 OFFSET ??_C@_0M@IENFFKKB@ChangeClass?$AA@
  0020b	68 00 00 00 00	 push	 OFFSET ??_C@_06MLPMCPDE@ExTeam?$AA@
  00210	ff 15 00 00 00
	00		 call	 DWORD PTR __imp__GetPrivateProfileIntA@16
  00216	85 c0		 test	 eax, eax
  00218	0f 95 c0	 setne	 al
  0021b	8b 4d f8	 mov	 ecx, DWORD PTR _this$[ebp]
  0021e	88 41 0c	 mov	 BYTE PTR [ecx+12], al

; 70   : 	this->ChangeCredit = GetPrivateProfileInt("ExTeam","ChangeCredit",0,CR_DONATE_DIR);

  00221	68 00 00 00 00	 push	 OFFSET ??_C@_0CA@ICPLOBL@?4?4?2Data?2ExData?2CreditDonate?4ini?$AA@
  00226	6a 00		 push	 0
  00228	68 00 00 00 00	 push	 OFFSET ??_C@_0N@PKCFHGHN@ChangeCredit?$AA@
  0022d	68 00 00 00 00	 push	 OFFSET ??_C@_06MLPMCPDE@ExTeam?$AA@
  00232	ff 15 00 00 00
	00		 call	 DWORD PTR __imp__GetPrivateProfileIntA@16
  00238	8b 4d f8	 mov	 ecx, DWORD PTR _this$[ebp]
  0023b	89 41 10	 mov	 DWORD PTR [ecx+16], eax

; 71   : 	this->ChangeWCoin = GetPrivateProfileInt("ExTeam","ChangeWCoin",0,CR_DONATE_DIR);

  0023e	68 00 00 00 00	 push	 OFFSET ??_C@_0CA@ICPLOBL@?4?4?2Data?2ExData?2CreditDonate?4ini?$AA@
  00243	6a 00		 push	 0
  00245	68 00 00 00 00	 push	 OFFSET ??_C@_0M@FBABJPHA@ChangeWCoin?$AA@
  0024a	68 00 00 00 00	 push	 OFFSET ??_C@_06MLPMCPDE@ExTeam?$AA@
  0024f	ff 15 00 00 00
	00		 call	 DWORD PTR __imp__GetPrivateProfileIntA@16
  00255	8b 4d f8	 mov	 ecx, DWORD PTR _this$[ebp]
  00258	89 41 14	 mov	 DWORD PTR [ecx+20], eax

; 72   : 
; 73   : #ifdef PRIVATE_MODULE
; 74   : 	if(g_ExLicense.CheckUser(eExUB::Vadim))

  0025b	6a 09		 push	 9
  0025d	b9 00 00 00 00	 mov	 ecx, OFFSET ?g_ExLicense@@3VCExLicense@@A ; g_ExLicense
  00262	e8 00 00 00 00	 call	 ?CheckUser@CExLicense@@QAE_NH@Z ; CExLicense::CheckUser
  00267	0f b6 c0	 movzx	 eax, al
  0026a	85 c0		 test	 eax, eax
  0026c	74 60		 je	 SHORT $LN13@Load

; 75   : 	{
; 76   : 		this->premium_price_1 = GetPrivateProfileInt("ExTeam","premium_price_1",0,CR_DONATE_DIR);

  0026e	68 00 00 00 00	 push	 OFFSET ??_C@_0CA@ICPLOBL@?4?4?2Data?2ExData?2CreditDonate?4ini?$AA@
  00273	6a 00		 push	 0
  00275	68 00 00 00 00	 push	 OFFSET ??_C@_0BA@BLKOPEDG@premium_price_1?$AA@
  0027a	68 00 00 00 00	 push	 OFFSET ??_C@_06MLPMCPDE@ExTeam?$AA@
  0027f	ff 15 00 00 00
	00		 call	 DWORD PTR __imp__GetPrivateProfileIntA@16
  00285	8b 4d f8	 mov	 ecx, DWORD PTR _this$[ebp]
  00288	89 81 9c af 02
	00		 mov	 DWORD PTR [ecx+176028], eax

; 77   : 		this->premium_price_7 = GetPrivateProfileInt("ExTeam","premium_price_7",0,CR_DONATE_DIR);

  0028e	68 00 00 00 00	 push	 OFFSET ??_C@_0CA@ICPLOBL@?4?4?2Data?2ExData?2CreditDonate?4ini?$AA@
  00293	6a 00		 push	 0
  00295	68 00 00 00 00	 push	 OFFSET ??_C@_0BA@ENPEFDLA@premium_price_7?$AA@
  0029a	68 00 00 00 00	 push	 OFFSET ??_C@_06MLPMCPDE@ExTeam?$AA@
  0029f	ff 15 00 00 00
	00		 call	 DWORD PTR __imp__GetPrivateProfileIntA@16
  002a5	8b 4d f8	 mov	 ecx, DWORD PTR _this$[ebp]
  002a8	89 81 a0 af 02
	00		 mov	 DWORD PTR [ecx+176032], eax

; 78   : 		this->premium_price_30 = GetPrivateProfileInt("ExTeam","premium_price_30",0,CR_DONATE_DIR);

  002ae	68 00 00 00 00	 push	 OFFSET ??_C@_0CA@ICPLOBL@?4?4?2Data?2ExData?2CreditDonate?4ini?$AA@
  002b3	6a 00		 push	 0
  002b5	68 00 00 00 00	 push	 OFFSET ??_C@_0BB@BDGDNJPA@premium_price_30?$AA@
  002ba	68 00 00 00 00	 push	 OFFSET ??_C@_06MLPMCPDE@ExTeam?$AA@
  002bf	ff 15 00 00 00
	00		 call	 DWORD PTR __imp__GetPrivateProfileIntA@16
  002c5	8b 4d f8	 mov	 ecx, DWORD PTR _this$[ebp]
  002c8	89 81 a4 af 02
	00		 mov	 DWORD PTR [ecx+176036], eax
$LN13@Load:

; 79   : 	}
; 80   : #endif
; 81   : 
; 82   : 	// -> Evo
; 83   : 	this->m_MinResetChange = GetPrivateProfileInt("ExTeam","MinResetChange",0,CR_DONATE_DIR);

  002ce	68 00 00 00 00	 push	 OFFSET ??_C@_0CA@ICPLOBL@?4?4?2Data?2ExData?2CreditDonate?4ini?$AA@
  002d3	6a 00		 push	 0
  002d5	68 00 00 00 00	 push	 OFFSET ??_C@_0P@KBOJLGEE@MinResetChange?$AA@
  002da	68 00 00 00 00	 push	 OFFSET ??_C@_06MLPMCPDE@ExTeam?$AA@
  002df	ff 15 00 00 00
	00		 call	 DWORD PTR __imp__GetPrivateProfileIntA@16
  002e5	8b 4d f8	 mov	 ecx, DWORD PTR _this$[ebp]
  002e8	89 81 a8 af 02
	00		 mov	 DWORD PTR [ecx+176040], eax

; 84   : 	this->m_MinGrandChange = GetPrivateProfileInt("ExTeam","MinGrandChange",0,CR_DONATE_DIR);

  002ee	68 00 00 00 00	 push	 OFFSET ??_C@_0CA@ICPLOBL@?4?4?2Data?2ExData?2CreditDonate?4ini?$AA@
  002f3	6a 00		 push	 0
  002f5	68 00 00 00 00	 push	 OFFSET ??_C@_0P@GPCKADMD@MinGrandChange?$AA@
  002fa	68 00 00 00 00	 push	 OFFSET ??_C@_06MLPMCPDE@ExTeam?$AA@
  002ff	ff 15 00 00 00
	00		 call	 DWORD PTR __imp__GetPrivateProfileIntA@16
  00305	8b 4d f8	 mov	 ecx, DWORD PTR _this$[ebp]
  00308	89 81 ac af 02
	00		 mov	 DWORD PTR [ecx+176044], eax

; 85   : 	this->m_ActiveDivResetChange = GetPrivateProfileInt("ExTeam","ActiveDivResetChange",0,CR_DONATE_DIR);

  0030e	68 00 00 00 00	 push	 OFFSET ??_C@_0CA@ICPLOBL@?4?4?2Data?2ExData?2CreditDonate?4ini?$AA@
  00313	6a 00		 push	 0
  00315	68 00 00 00 00	 push	 OFFSET ??_C@_0BF@EKCIDEML@ActiveDivResetChange?$AA@
  0031a	68 00 00 00 00	 push	 OFFSET ??_C@_06MLPMCPDE@ExTeam?$AA@
  0031f	ff 15 00 00 00
	00		 call	 DWORD PTR __imp__GetPrivateProfileIntA@16
  00325	8b 4d f8	 mov	 ecx, DWORD PTR _this$[ebp]
  00328	89 81 b0 af 02
	00		 mov	 DWORD PTR [ecx+176048], eax

; 86   : 	this->m_MinusDivResetChange = GetPrivateProfileInt("ExTeam","MinusDivResetChange",0,CR_DONATE_DIR);

  0032e	68 00 00 00 00	 push	 OFFSET ??_C@_0CA@ICPLOBL@?4?4?2Data?2ExData?2CreditDonate?4ini?$AA@
  00333	6a 00		 push	 0
  00335	68 00 00 00 00	 push	 OFFSET ??_C@_0BE@EPKNBCGB@MinusDivResetChange?$AA@
  0033a	68 00 00 00 00	 push	 OFFSET ??_C@_06MLPMCPDE@ExTeam?$AA@
  0033f	ff 15 00 00 00
	00		 call	 DWORD PTR __imp__GetPrivateProfileIntA@16
  00345	8b 4d f8	 mov	 ecx, DWORD PTR _this$[ebp]
  00348	89 81 b4 af 02
	00		 mov	 DWORD PTR [ecx+176052], eax

; 87   : 	this->m_ActiveDivGrandChange = GetPrivateProfileInt("ExTeam","ActiveDivGrandChange",0,CR_DONATE_DIR);

  0034e	68 00 00 00 00	 push	 OFFSET ??_C@_0CA@ICPLOBL@?4?4?2Data?2ExData?2CreditDonate?4ini?$AA@
  00353	6a 00		 push	 0
  00355	68 00 00 00 00	 push	 OFFSET ??_C@_0BF@IEOLIBEM@ActiveDivGrandChange?$AA@
  0035a	68 00 00 00 00	 push	 OFFSET ??_C@_06MLPMCPDE@ExTeam?$AA@
  0035f	ff 15 00 00 00
	00		 call	 DWORD PTR __imp__GetPrivateProfileIntA@16
  00365	8b 4d f8	 mov	 ecx, DWORD PTR _this$[ebp]
  00368	89 81 b8 af 02
	00		 mov	 DWORD PTR [ecx+176056], eax

; 88   : 	this->m_MinusDivGrandChange = GetPrivateProfileInt("ExTeam","MinusDivGrandChange",0,CR_DONATE_DIR);

  0036e	68 00 00 00 00	 push	 OFFSET ??_C@_0CA@ICPLOBL@?4?4?2Data?2ExData?2CreditDonate?4ini?$AA@
  00373	6a 00		 push	 0
  00375	68 00 00 00 00	 push	 OFFSET ??_C@_0BE@IBGOKHOG@MinusDivGrandChange?$AA@
  0037a	68 00 00 00 00	 push	 OFFSET ??_C@_06MLPMCPDE@ExTeam?$AA@
  0037f	ff 15 00 00 00
	00		 call	 DWORD PTR __imp__GetPrivateProfileIntA@16
  00385	8b 4d f8	 mov	 ecx, DWORD PTR _this$[ebp]
  00388	89 81 bc af 02
	00		 mov	 DWORD PTR [ecx+176060], eax

; 89   : 	this->m_StartDayChange = GetPrivateProfileInt("ExTeam","StartDayChange",-1,CR_DONATE_DIR);

  0038e	68 00 00 00 00	 push	 OFFSET ??_C@_0CA@ICPLOBL@?4?4?2Data?2ExData?2CreditDonate?4ini?$AA@
  00393	6a ff		 push	 -1
  00395	68 00 00 00 00	 push	 OFFSET ??_C@_0P@MFEPLFBD@StartDayChange?$AA@
  0039a	68 00 00 00 00	 push	 OFFSET ??_C@_06MLPMCPDE@ExTeam?$AA@
  0039f	ff 15 00 00 00
	00		 call	 DWORD PTR __imp__GetPrivateProfileIntA@16
  003a5	8b 4d f8	 mov	 ecx, DWORD PTR _this$[ebp]
  003a8	89 81 c0 af 02
	00		 mov	 DWORD PTR [ecx+176064], eax

; 90   : 	this->m_EndDayChange = GetPrivateProfileInt("ExTeam","EndDayChange",0,CR_DONATE_DIR);

  003ae	68 00 00 00 00	 push	 OFFSET ??_C@_0CA@ICPLOBL@?4?4?2Data?2ExData?2CreditDonate?4ini?$AA@
  003b3	6a 00		 push	 0
  003b5	68 00 00 00 00	 push	 OFFSET ??_C@_0N@KFOMAHLG@EndDayChange?$AA@
  003ba	68 00 00 00 00	 push	 OFFSET ??_C@_06MLPMCPDE@ExTeam?$AA@
  003bf	ff 15 00 00 00
	00		 call	 DWORD PTR __imp__GetPrivateProfileIntA@16
  003c5	8b 4d f8	 mov	 ecx, DWORD PTR _this$[ebp]
  003c8	89 81 c4 af 02
	00		 mov	 DWORD PTR [ecx+176068], eax

; 91   : 
; 92   : 	for(int i=0;i<MAX_DONATE_ITEM;i++)

  003ce	c7 45 f4 00 00
	00 00		 mov	 DWORD PTR _i$223861[ebp], 0
  003d5	eb 09		 jmp	 SHORT $LN12@Load
$LN11@Load:
  003d7	8b 45 f4	 mov	 eax, DWORD PTR _i$223861[ebp]
  003da	83 c0 01	 add	 eax, 1
  003dd	89 45 f4	 mov	 DWORD PTR _i$223861[ebp], eax
$LN12@Load:
  003e0	81 7d f4 d0 07
	00 00		 cmp	 DWORD PTR _i$223861[ebp], 2000 ; 000007d0H
  003e7	0f 8d ac 00 00
	00		 jge	 $LN10@Load

; 93   : 	{
; 94   : 		this->Donate[i].cmd[0]	= 0;

  003ed	8b 45 f4	 mov	 eax, DWORD PTR _i$223861[ebp]
  003f0	6b c0 58	 imul	 eax, 88			; 00000058H
  003f3	8b 4d f8	 mov	 ecx, DWORD PTR _this$[ebp]
  003f6	c6 44 01 18 00	 mov	 BYTE PTR [ecx+eax+24], 0

; 95   : 		this->Donate[i].Type	= 0;

  003fb	8b 45 f4	 mov	 eax, DWORD PTR _i$223861[ebp]
  003fe	6b c0 58	 imul	 eax, 88			; 00000058H
  00401	8b 4d f8	 mov	 ecx, DWORD PTR _this$[ebp]
  00404	c7 44 01 4c 00
	00 00 00	 mov	 DWORD PTR [ecx+eax+76], 0

; 96   : 		this->Donate[i].Index	= 0;

  0040c	8b 45 f4	 mov	 eax, DWORD PTR _i$223861[ebp]
  0040f	6b c0 58	 imul	 eax, 88			; 00000058H
  00412	8b 4d f8	 mov	 ecx, DWORD PTR _this$[ebp]
  00415	c7 44 01 50 00
	00 00 00	 mov	 DWORD PTR [ecx+eax+80], 0

; 97   : 		this->Donate[i].Level	= 0;

  0041d	8b 45 f4	 mov	 eax, DWORD PTR _i$223861[ebp]
  00420	6b c0 58	 imul	 eax, 88			; 00000058H
  00423	8b 4d f8	 mov	 ecx, DWORD PTR _this$[ebp]
  00426	c7 44 01 54 00
	00 00 00	 mov	 DWORD PTR [ecx+eax+84], 0

; 98   : 		this->Donate[i].Skill	= 0;

  0042e	8b 45 f4	 mov	 eax, DWORD PTR _i$223861[ebp]
  00431	6b c0 58	 imul	 eax, 88			; 00000058H
  00434	8b 4d f8	 mov	 ecx, DWORD PTR _this$[ebp]
  00437	c7 44 01 58 00
	00 00 00	 mov	 DWORD PTR [ecx+eax+88], 0

; 99   : 		this->Donate[i].Luck	= 0;

  0043f	8b 45 f4	 mov	 eax, DWORD PTR _i$223861[ebp]
  00442	6b c0 58	 imul	 eax, 88			; 00000058H
  00445	8b 4d f8	 mov	 ecx, DWORD PTR _this$[ebp]
  00448	c7 44 01 5c 00
	00 00 00	 mov	 DWORD PTR [ecx+eax+92], 0

; 100  : 		this->Donate[i].Opt		= 0;

  00450	8b 45 f4	 mov	 eax, DWORD PTR _i$223861[ebp]
  00453	6b c0 58	 imul	 eax, 88			; 00000058H
  00456	8b 4d f8	 mov	 ecx, DWORD PTR _this$[ebp]
  00459	c7 44 01 60 00
	00 00 00	 mov	 DWORD PTR [ecx+eax+96], 0

; 101  : 		this->Donate[i].Exl		= 0;

  00461	8b 45 f4	 mov	 eax, DWORD PTR _i$223861[ebp]
  00464	6b c0 58	 imul	 eax, 88			; 00000058H
  00467	8b 4d f8	 mov	 ecx, DWORD PTR _this$[ebp]
  0046a	c7 44 01 64 00
	00 00 00	 mov	 DWORD PTR [ecx+eax+100], 0

; 102  : 		this->Donate[i].Anc		= 0;

  00472	8b 45 f4	 mov	 eax, DWORD PTR _i$223861[ebp]
  00475	6b c0 58	 imul	 eax, 88			; 00000058H
  00478	8b 4d f8	 mov	 ecx, DWORD PTR _this$[ebp]
  0047b	c7 44 01 68 00
	00 00 00	 mov	 DWORD PTR [ecx+eax+104], 0

; 103  : 		this->Donate[i].CrPrice	= 0;

  00483	8b 45 f4	 mov	 eax, DWORD PTR _i$223861[ebp]
  00486	6b c0 58	 imul	 eax, 88			; 00000058H
  00489	8b 4d f8	 mov	 ecx, DWORD PTR _this$[ebp]
  0048c	c7 44 01 6c 00
	00 00 00	 mov	 DWORD PTR [ecx+eax+108], 0

; 104  : 	}

  00494	e9 3e ff ff ff	 jmp	 $LN11@Load
$LN10@Load:

; 105  : 
; 106  : 	//CheckFile(CR_DONATE_DIR);
; 107  : 
; 108  : 	FILE *file = fopen(CR_DONATE_DIR,"r");

  00499	68 00 00 00 00	 push	 OFFSET ??_C@_01KDCPPGHE@r?$AA@
  0049e	68 00 00 00 00	 push	 OFFSET ??_C@_0CA@ICPLOBL@?4?4?2Data?2ExData?2CreditDonate?4ini?$AA@
  004a3	e8 00 00 00 00	 call	 _fopen
  004a8	83 c4 08	 add	 esp, 8
  004ab	89 45 f0	 mov	 DWORD PTR _file$[ebp], eax

; 109  : 
; 110  : 	if(file == NULL)

  004ae	83 7d f0 00	 cmp	 DWORD PTR _file$[ebp], 0
  004b2	75 0b		 jne	 SHORT $LN9@Load

; 111  : 	{
; 112  : 		this->Enable = 0;

  004b4	8b 45 f8	 mov	 eax, DWORD PTR _this$[ebp]
  004b7	c6 00 00	 mov	 BYTE PTR [eax], 0

; 113  : 		return;

  004ba	e9 71 02 00 00	 jmp	 $LN14@Load
$LN9@Load:

; 114  : 	}
; 115  : 
; 116  : 	char Buff[256];
; 117  : 	int Flag = 0;

  004bf	c7 85 ec fe ff
	ff 00 00 00 00	 mov	 DWORD PTR _Flag$[ebp], 0

; 118  : 	this->Count = 0;

  004c9	8b 45 f8	 mov	 eax, DWORD PTR _this$[ebp]
  004cc	c7 80 98 af 02
	00 00 00 00 00	 mov	 DWORD PTR [eax+176024], 0
$LN8@Load:

; 119  : 
; 120  : 	while(!feof(file))

  004d6	8b 45 f0	 mov	 eax, DWORD PTR _file$[ebp]
  004d9	50		 push	 eax
  004da	e8 00 00 00 00	 call	 _feof
  004df	83 c4 04	 add	 esp, 4
  004e2	85 c0		 test	 eax, eax
  004e4	0f 85 3a 02 00
	00		 jne	 $LN7@Load

; 121  : 	{
; 122  : 		fgets(Buff,256,file);	

  004ea	8b 45 f0	 mov	 eax, DWORD PTR _file$[ebp]
  004ed	50		 push	 eax
  004ee	68 00 01 00 00	 push	 256			; 00000100H
  004f3	8d 8d f0 fe ff
	ff		 lea	 ecx, DWORD PTR _Buff$[ebp]
  004f9	51		 push	 ecx
  004fa	e8 00 00 00 00	 call	 _fgets
  004ff	83 c4 0c	 add	 esp, 12			; 0000000cH

; 123  : 		if(Ex_IsBadFileLine(Buff, Flag))	

  00502	8d 85 ec fe ff
	ff		 lea	 eax, DWORD PTR _Flag$[ebp]
  00508	50		 push	 eax
  00509	8d 8d f0 fe ff
	ff		 lea	 ecx, DWORD PTR _Buff$[ebp]
  0050f	51		 push	 ecx
  00510	e8 00 00 00 00	 call	 ?Ex_IsBadFileLine@@YA_NPADAAH@Z ; Ex_IsBadFileLine
  00515	83 c4 08	 add	 esp, 8
  00518	0f b6 d0	 movzx	 edx, al
  0051b	85 d2		 test	 edx, edx
  0051d	74 02		 je	 SHORT $LN6@Load

; 124  : 			continue;

  0051f	eb b5		 jmp	 SHORT $LN8@Load
$LN6@Load:

; 125  : 
; 126  : 		if(Flag == 1)

  00521	83 bd ec fe ff
	ff 01		 cmp	 DWORD PTR _Flag$[ebp], 1
  00528	0f 85 f1 01 00
	00		 jne	 $LN5@Load

; 127  : 		{
; 128  : 			int n[9];
; 129  : 			char mes[100];
; 130  : 
; 131  : 			sscanf(Buff,"\"%[^\"]\" %d %d %d %d %d %d %d %d %d",&mes,&n[0],&n[1],&n[2],&n[3],&n[4],&n[5],&n[6],&n[7],&n[8]);

  0052e	8d 85 e8 fe ff
	ff		 lea	 eax, DWORD PTR _n$223875[ebp+32]
  00534	50		 push	 eax
  00535	8d 8d e4 fe ff
	ff		 lea	 ecx, DWORD PTR _n$223875[ebp+28]
  0053b	51		 push	 ecx
  0053c	8d 95 e0 fe ff
	ff		 lea	 edx, DWORD PTR _n$223875[ebp+24]
  00542	52		 push	 edx
  00543	8d 85 dc fe ff
	ff		 lea	 eax, DWORD PTR _n$223875[ebp+20]
  00549	50		 push	 eax
  0054a	8d 8d d8 fe ff
	ff		 lea	 ecx, DWORD PTR _n$223875[ebp+16]
  00550	51		 push	 ecx
  00551	8d 95 d4 fe ff
	ff		 lea	 edx, DWORD PTR _n$223875[ebp+12]
  00557	52		 push	 edx
  00558	8d 85 d0 fe ff
	ff		 lea	 eax, DWORD PTR _n$223875[ebp+8]
  0055e	50		 push	 eax
  0055f	8d 8d cc fe ff
	ff		 lea	 ecx, DWORD PTR _n$223875[ebp+4]
  00565	51		 push	 ecx
  00566	8d 95 c8 fe ff
	ff		 lea	 edx, DWORD PTR _n$223875[ebp]
  0056c	52		 push	 edx
  0056d	8d 85 64 fe ff
	ff		 lea	 eax, DWORD PTR _mes$223876[ebp]
  00573	50		 push	 eax
  00574	68 00 00 00 00	 push	 OFFSET ??_C@_0CD@MBABJFMK@?$CC?$CF?$FL?$FO?$CC?$FN?$CC?5?$CFd?5?$CFd?5?$CFd?5?$CFd?5?$CFd?5?$CFd?5?$CFd?5?$CFd?5@
  00579	8d 8d f0 fe ff
	ff		 lea	 ecx, DWORD PTR _Buff$[ebp]
  0057f	51		 push	 ecx
  00580	e8 00 00 00 00	 call	 _sscanf
  00585	83 c4 30	 add	 esp, 48			; 00000030H

; 132  : 
; 133  : 			sprintf(this->Donate[this->Count].cmd,"%s",mes);

  00588	8d 85 64 fe ff
	ff		 lea	 eax, DWORD PTR _mes$223876[ebp]
  0058e	50		 push	 eax
  0058f	68 00 00 00 00	 push	 OFFSET ??_C@_02DKCKIIND@?$CFs?$AA@
  00594	8b 4d f8	 mov	 ecx, DWORD PTR _this$[ebp]
  00597	8b 91 98 af 02
	00		 mov	 edx, DWORD PTR [ecx+176024]
  0059d	6b d2 58	 imul	 edx, 88			; 00000058H
  005a0	8b 45 f8	 mov	 eax, DWORD PTR _this$[ebp]
  005a3	8d 4c 10 18	 lea	 ecx, DWORD PTR [eax+edx+24]
  005a7	51		 push	 ecx
  005a8	e8 00 00 00 00	 call	 _sprintf
  005ad	83 c4 0c	 add	 esp, 12			; 0000000cH

; 134  : 
; 135  : 			if(n[0] == -1) continue;

  005b0	83 bd c8 fe ff
	ff ff		 cmp	 DWORD PTR _n$223875[ebp], -1
  005b7	75 05		 jne	 SHORT $LN4@Load
  005b9	e9 18 ff ff ff	 jmp	 $LN8@Load
$LN4@Load:

; 136  : 
; 137  : 			this->Donate[this->Count].Type		= n[0];

  005be	8b 45 f8	 mov	 eax, DWORD PTR _this$[ebp]
  005c1	8b 88 98 af 02
	00		 mov	 ecx, DWORD PTR [eax+176024]
  005c7	6b c9 58	 imul	 ecx, 88			; 00000058H
  005ca	8b 55 f8	 mov	 edx, DWORD PTR _this$[ebp]
  005cd	8b 85 c8 fe ff
	ff		 mov	 eax, DWORD PTR _n$223875[ebp]
  005d3	89 44 0a 4c	 mov	 DWORD PTR [edx+ecx+76], eax

; 138  : 			this->Donate[this->Count].Index		= n[1];

  005d7	8b 45 f8	 mov	 eax, DWORD PTR _this$[ebp]
  005da	8b 88 98 af 02
	00		 mov	 ecx, DWORD PTR [eax+176024]
  005e0	6b c9 58	 imul	 ecx, 88			; 00000058H
  005e3	8b 55 f8	 mov	 edx, DWORD PTR _this$[ebp]
  005e6	8b 85 cc fe ff
	ff		 mov	 eax, DWORD PTR _n$223875[ebp+4]
  005ec	89 44 0a 50	 mov	 DWORD PTR [edx+ecx+80], eax

; 139  : 			this->Donate[this->Count].Level		= n[2];

  005f0	8b 45 f8	 mov	 eax, DWORD PTR _this$[ebp]
  005f3	8b 88 98 af 02
	00		 mov	 ecx, DWORD PTR [eax+176024]
  005f9	6b c9 58	 imul	 ecx, 88			; 00000058H
  005fc	8b 55 f8	 mov	 edx, DWORD PTR _this$[ebp]
  005ff	8b 85 d0 fe ff
	ff		 mov	 eax, DWORD PTR _n$223875[ebp+8]
  00605	89 44 0a 54	 mov	 DWORD PTR [edx+ecx+84], eax

; 140  : 			this->Donate[this->Count].Skill		= n[3];

  00609	8b 45 f8	 mov	 eax, DWORD PTR _this$[ebp]
  0060c	8b 88 98 af 02
	00		 mov	 ecx, DWORD PTR [eax+176024]
  00612	6b c9 58	 imul	 ecx, 88			; 00000058H
  00615	8b 55 f8	 mov	 edx, DWORD PTR _this$[ebp]
  00618	8b 85 d4 fe ff
	ff		 mov	 eax, DWORD PTR _n$223875[ebp+12]
  0061e	89 44 0a 58	 mov	 DWORD PTR [edx+ecx+88], eax

; 141  : 			this->Donate[this->Count].Luck		= n[4];

  00622	8b 45 f8	 mov	 eax, DWORD PTR _this$[ebp]
  00625	8b 88 98 af 02
	00		 mov	 ecx, DWORD PTR [eax+176024]
  0062b	6b c9 58	 imul	 ecx, 88			; 00000058H
  0062e	8b 55 f8	 mov	 edx, DWORD PTR _this$[ebp]
  00631	8b 85 d8 fe ff
	ff		 mov	 eax, DWORD PTR _n$223875[ebp+16]
  00637	89 44 0a 5c	 mov	 DWORD PTR [edx+ecx+92], eax

; 142  : 			this->Donate[this->Count].Opt		= n[5];

  0063b	8b 45 f8	 mov	 eax, DWORD PTR _this$[ebp]
  0063e	8b 88 98 af 02
	00		 mov	 ecx, DWORD PTR [eax+176024]
  00644	6b c9 58	 imul	 ecx, 88			; 00000058H
  00647	8b 55 f8	 mov	 edx, DWORD PTR _this$[ebp]
  0064a	8b 85 dc fe ff
	ff		 mov	 eax, DWORD PTR _n$223875[ebp+20]
  00650	89 44 0a 60	 mov	 DWORD PTR [edx+ecx+96], eax

; 143  : 			this->Donate[this->Count].Exl		= n[6];

  00654	8b 45 f8	 mov	 eax, DWORD PTR _this$[ebp]
  00657	8b 88 98 af 02
	00		 mov	 ecx, DWORD PTR [eax+176024]
  0065d	6b c9 58	 imul	 ecx, 88			; 00000058H
  00660	8b 55 f8	 mov	 edx, DWORD PTR _this$[ebp]
  00663	8b 85 e0 fe ff
	ff		 mov	 eax, DWORD PTR _n$223875[ebp+24]
  00669	89 44 0a 64	 mov	 DWORD PTR [edx+ecx+100], eax

; 144  : 			this->Donate[this->Count].Anc		= n[7];

  0066d	8b 45 f8	 mov	 eax, DWORD PTR _this$[ebp]
  00670	8b 88 98 af 02
	00		 mov	 ecx, DWORD PTR [eax+176024]
  00676	6b c9 58	 imul	 ecx, 88			; 00000058H
  00679	8b 55 f8	 mov	 edx, DWORD PTR _this$[ebp]
  0067c	8b 85 e4 fe ff
	ff		 mov	 eax, DWORD PTR _n$223875[ebp+28]
  00682	89 44 0a 68	 mov	 DWORD PTR [edx+ecx+104], eax

; 145  : 
; 146  : 			this->Donate[this->Count].CrPrice	= n[8];

  00686	8b 45 f8	 mov	 eax, DWORD PTR _this$[ebp]
  00689	8b 88 98 af 02
	00		 mov	 ecx, DWORD PTR [eax+176024]
  0068f	6b c9 58	 imul	 ecx, 88			; 00000058H
  00692	8b 55 f8	 mov	 edx, DWORD PTR _this$[ebp]
  00695	8b 85 e8 fe ff
	ff		 mov	 eax, DWORD PTR _n$223875[ebp+32]
  0069b	89 44 0a 6c	 mov	 DWORD PTR [edx+ecx+108], eax

; 147  : 
; 148  : 			if(this->Donate[this->Count].Skill) this->Donate[this->Count].Skill = 1;

  0069f	8b 45 f8	 mov	 eax, DWORD PTR _this$[ebp]
  006a2	8b 88 98 af 02
	00		 mov	 ecx, DWORD PTR [eax+176024]
  006a8	6b c9 58	 imul	 ecx, 88			; 00000058H
  006ab	8b 55 f8	 mov	 edx, DWORD PTR _this$[ebp]
  006ae	83 7c 0a 58 00	 cmp	 DWORD PTR [edx+ecx+88], 0
  006b3	74 17		 je	 SHORT $LN3@Load
  006b5	8b 45 f8	 mov	 eax, DWORD PTR _this$[ebp]
  006b8	8b 88 98 af 02
	00		 mov	 ecx, DWORD PTR [eax+176024]
  006be	6b c9 58	 imul	 ecx, 88			; 00000058H
  006c1	8b 55 f8	 mov	 edx, DWORD PTR _this$[ebp]
  006c4	c7 44 0a 58 01
	00 00 00	 mov	 DWORD PTR [edx+ecx+88], 1
$LN3@Load:

; 149  : 			if(this->Donate[this->Count].Luck) this->Donate[this->Count].Luck = 1;

  006cc	8b 45 f8	 mov	 eax, DWORD PTR _this$[ebp]
  006cf	8b 88 98 af 02
	00		 mov	 ecx, DWORD PTR [eax+176024]
  006d5	6b c9 58	 imul	 ecx, 88			; 00000058H
  006d8	8b 55 f8	 mov	 edx, DWORD PTR _this$[ebp]
  006db	83 7c 0a 5c 00	 cmp	 DWORD PTR [edx+ecx+92], 0
  006e0	74 17		 je	 SHORT $LN2@Load
  006e2	8b 45 f8	 mov	 eax, DWORD PTR _this$[ebp]
  006e5	8b 88 98 af 02
	00		 mov	 ecx, DWORD PTR [eax+176024]
  006eb	6b c9 58	 imul	 ecx, 88			; 00000058H
  006ee	8b 55 f8	 mov	 edx, DWORD PTR _this$[ebp]
  006f1	c7 44 0a 5c 01
	00 00 00	 mov	 DWORD PTR [edx+ecx+92], 1
$LN2@Load:

; 150  : 
; 151  : 			this->Count++;

  006f9	8b 45 f8	 mov	 eax, DWORD PTR _this$[ebp]
  006fc	8b 88 98 af 02
	00		 mov	 ecx, DWORD PTR [eax+176024]
  00702	83 c1 01	 add	 ecx, 1
  00705	8b 55 f8	 mov	 edx, DWORD PTR _this$[ebp]
  00708	89 8a 98 af 02
	00		 mov	 DWORD PTR [edx+176024], ecx

; 152  : 
; 153  : 			if (this->Count>=MAX_DONATE_ITEM)

  0070e	8b 45 f8	 mov	 eax, DWORD PTR _this$[ebp]
  00711	81 b8 98 af 02
	00 d0 07 00 00	 cmp	 DWORD PTR [eax+176024], 2000 ; 000007d0H
  0071b	7c 02		 jl	 SHORT $LN5@Load

; 154  : 			{
; 155  : 				break;

  0071d	eb 05		 jmp	 SHORT $LN7@Load
$LN5@Load:

; 156  : 			}
; 157  : 		}
; 158  : 	}

  0071f	e9 b2 fd ff ff	 jmp	 $LN8@Load
$LN7@Load:

; 159  : 	fclose(file);

  00724	8b 45 f0	 mov	 eax, DWORD PTR _file$[ebp]
  00727	50		 push	 eax
  00728	e8 00 00 00 00	 call	 _fclose
  0072d	83 c4 04	 add	 esp, 4
$LN14@Load:

; 160  : }

  00730	5f		 pop	 edi
  00731	5e		 pop	 esi
  00732	5b		 pop	 ebx
  00733	8b 4d fc	 mov	 ecx, DWORD PTR __$ArrayPad$[ebp]
  00736	33 cd		 xor	 ecx, ebp
  00738	e8 00 00 00 00	 call	 @__security_check_cookie@4
  0073d	8b e5		 mov	 esp, ebp
  0073f	5d		 pop	 ebp
  00740	c3		 ret	 0
?Load@cCreditDonate@@QAEXXZ ENDP			; cCreditDonate::Load
_TEXT	ENDS
PUBLIC	??_C@_07LAKGFKMJ@premium?$AA@			; `string'
PUBLIC	??_C@_06PLFKDFHF@goblin?$AA@			; `string'
PUBLIC	??_C@_06PFAGHEBJ@wcoinp?$AA@			; `string'
PUBLIC	??_C@_06JEOJDFIL@wcoinc?$AA@			; `string'
PUBLIC	?Chat@cCreditDonate@@QAEXHPADH@Z		; cCreditDonate::Chat
EXTRN	?ItemSerialCreateSend@@YAXHEEEHEEEEEHEE@Z:PROC	; ItemSerialCreateSend
EXTRN	?CheckInventoryEmptySpace@@YAHPAUOBJECTSTRUCT@@HH@Z:PROC ; CheckInventoryEmptySpace
EXTRN	?ExUserDataSend@@YAXH@Z:PROC			; ExUserDataSend
EXTRN	?GDSaveUserInfo@GameShop@@QAEXH@Z:PROC		; GameShop::GDSaveUserInfo
EXTRN	?gGameShop@@3VGameShop@@A:BYTE			; gGameShop
EXTRN	?MsgOutput@@YAXHPADZZ:PROC			; MsgOutput
EXTRN	?GetText@CExText@@QAEPADH@Z:PROC		; CExText::GetText
EXTRN	?g_ExText@@3VCExText@@A:BYTE			; g_ExText
EXTRN	_strcmp:PROC
EXTRN	?gObj@@3PAUOBJECTSTRUCT@@A:DWORD		; gObj
EXTRN	__fltused:DWORD
;	COMDAT ??_C@_07LAKGFKMJ@premium?$AA@
CONST	SEGMENT
??_C@_07LAKGFKMJ@premium?$AA@ DB 'premium', 00H		; `string'
CONST	ENDS
;	COMDAT ??_C@_06PLFKDFHF@goblin?$AA@
CONST	SEGMENT
??_C@_06PLFKDFHF@goblin?$AA@ DB 'goblin', 00H		; `string'
CONST	ENDS
;	COMDAT ??_C@_06PFAGHEBJ@wcoinp?$AA@
CONST	SEGMENT
??_C@_06PFAGHEBJ@wcoinp?$AA@ DB 'wcoinp', 00H		; `string'
CONST	ENDS
;	COMDAT ??_C@_06JEOJDFIL@wcoinc?$AA@
CONST	SEGMENT
??_C@_06JEOJDFIL@wcoinc?$AA@ DB 'wcoinc', 00H		; `string'
; Function compile flags: /Odtp /ZI
CONST	ENDS
_TEXT	SEGMENT
_iWidth$223931 = -32					; size = 4
_iHeight$223930 = -28					; size = 4
_i$223924 = -24						; size = 4
_b$223906 = -20						; size = 4
_b$223900 = -16						; size = 4
_b$223894 = -12						; size = 4
_lpObj$ = -8						; size = 4
_this$ = -4						; size = 4
_aIndex$ = 8						; size = 4
_Message$ = 12						; size = 4
_Count$ = 16						; size = 4
?Chat@cCreditDonate@@QAEXHPADH@Z PROC			; cCreditDonate::Chat
; _this$ = ecx

; 163  : {

  00750	55		 push	 ebp
  00751	8b ec		 mov	 ebp, esp
  00753	83 ec 60	 sub	 esp, 96			; 00000060H
  00756	53		 push	 ebx
  00757	56		 push	 esi
  00758	57		 push	 edi
  00759	89 4d fc	 mov	 DWORD PTR _this$[ebp], ecx

; 164  : 	if(!this->Enable) return;

  0075c	8b 45 fc	 mov	 eax, DWORD PTR _this$[ebp]
  0075f	0f b6 08	 movzx	 ecx, BYTE PTR [eax]
  00762	85 c9		 test	 ecx, ecx
  00764	75 05		 jne	 SHORT $LN34@Chat
  00766	e9 5f 07 00 00	 jmp	 $LN35@Chat
$LN34@Chat:

; 165  : 
; 166  : 	LPOBJ lpObj = &gObj[aIndex];

  0076b	8b 45 08	 mov	 eax, DWORD PTR _aIndex$[ebp]
  0076e	69 c0 38 2b 00
	00		 imul	 eax, 11064		; 00002b38H
  00774	03 05 00 00 00
	00		 add	 eax, DWORD PTR ?gObj@@3PAUOBJECTSTRUCT@@A ; gObj
  0077a	89 45 f8	 mov	 DWORD PTR _lpObj$[ebp], eax

; 167  : 	if(Count)

  0077d	83 7d 10 00	 cmp	 DWORD PTR _Count$[ebp], 0
  00781	0f 84 f8 04 00
	00		 je	 $LN33@Chat

; 168  : 	{
; 169  : 		if(!strcmp(Message,"wcoinc") && this->BuyWcoinC)

  00787	68 00 00 00 00	 push	 OFFSET ??_C@_06JEOJDFIL@wcoinc?$AA@
  0078c	8b 45 0c	 mov	 eax, DWORD PTR _Message$[ebp]
  0078f	50		 push	 eax
  00790	e8 00 00 00 00	 call	 _strcmp
  00795	83 c4 08	 add	 esp, 8
  00798	85 c0		 test	 eax, eax
  0079a	0f 85 c2 00 00
	00		 jne	 $LN32@Chat
  007a0	8b 45 fc	 mov	 eax, DWORD PTR _this$[ebp]
  007a3	0f b6 48 08	 movzx	 ecx, BYTE PTR [eax+8]
  007a7	85 c9		 test	 ecx, ecx
  007a9	0f 84 b3 00 00
	00		 je	 $LN32@Chat

; 170  : 		{
; 171  : 			int b = NumberFor100(Count);

  007af	8b 45 10	 mov	 eax, DWORD PTR _Count$[ebp]
  007b2	50		 push	 eax
  007b3	e8 00 00 00 00	 call	 ?NumberFor100@@YAHH@Z	; NumberFor100
  007b8	83 c4 04	 add	 esp, 4
  007bb	89 45 f4	 mov	 DWORD PTR _b$223894[ebp], eax

; 172  : 			if(b == -1)

  007be	83 7d f4 ff	 cmp	 DWORD PTR _b$223894[ebp], -1
  007c2	75 1e		 jne	 SHORT $LN31@Chat

; 173  : 			{
; 174  : 				MsgOutput(aIndex,g_ExText.GetText(113));

  007c4	6a 71		 push	 113			; 00000071H
  007c6	b9 00 00 00 00	 mov	 ecx, OFFSET ?g_ExText@@3VCExText@@A ; g_ExText
  007cb	e8 00 00 00 00	 call	 ?GetText@CExText@@QAEPADH@Z ; CExText::GetText
  007d0	50		 push	 eax
  007d1	8b 45 08	 mov	 eax, DWORD PTR _aIndex$[ebp]
  007d4	50		 push	 eax
  007d5	e8 00 00 00 00	 call	 ?MsgOutput@@YAXHPADZZ	; MsgOutput
  007da	83 c4 08	 add	 esp, 8

; 175  : 				return;

  007dd	e9 e8 06 00 00	 jmp	 $LN35@Chat
$LN31@Chat:

; 176  : 			}
; 177  : 			if(b > lpObj->ExCred )

  007e2	db 45 f4	 fild	 DWORD PTR _b$223894[ebp]
  007e5	8b 45 f8	 mov	 eax, DWORD PTR _lpObj$[ebp]
  007e8	d9 80 a8 22 00
	00		 fld	 DWORD PTR [eax+8872]
  007ee	de d9		 fcompp
  007f0	df e0		 fnstsw	 ax
  007f2	f6 c4 05	 test	 ah, 5
  007f5	7a 22		 jp	 SHORT $LN30@Chat

; 178  : 			{
; 179  : 				MsgOutput(aIndex,g_ExText.GetText(114),b);

  007f7	8b 45 f4	 mov	 eax, DWORD PTR _b$223894[ebp]
  007fa	50		 push	 eax
  007fb	6a 72		 push	 114			; 00000072H
  007fd	b9 00 00 00 00	 mov	 ecx, OFFSET ?g_ExText@@3VCExText@@A ; g_ExText
  00802	e8 00 00 00 00	 call	 ?GetText@CExText@@QAEPADH@Z ; CExText::GetText
  00807	50		 push	 eax
  00808	8b 4d 08	 mov	 ecx, DWORD PTR _aIndex$[ebp]
  0080b	51		 push	 ecx
  0080c	e8 00 00 00 00	 call	 ?MsgOutput@@YAXHPADZZ	; MsgOutput
  00811	83 c4 0c	 add	 esp, 12			; 0000000cH

; 180  : 				return;

  00814	e9 b1 06 00 00	 jmp	 $LN35@Chat
$LN30@Chat:

; 181  : 			}
; 182  : 			lpObj->ExCred -= b;

  00819	db 45 f4	 fild	 DWORD PTR _b$223894[ebp]
  0081c	8b 45 f8	 mov	 eax, DWORD PTR _lpObj$[ebp]
  0081f	d8 a8 a8 22 00
	00		 fsubr	 DWORD PTR [eax+8872]
  00825	8b 4d f8	 mov	 ecx, DWORD PTR _lpObj$[ebp]
  00828	d9 99 a8 22 00
	00		 fstp	 DWORD PTR [ecx+8872]

; 183  : 			lpObj->GameShop.WCoinC += Count;

  0082e	db 45 10	 fild	 DWORD PTR _Count$[ebp]
  00831	8b 45 f8	 mov	 eax, DWORD PTR _lpObj$[ebp]
  00834	dc 80 00 23 00
	00		 fadd	 QWORD PTR [eax+8960]
  0083a	8b 4d f8	 mov	 ecx, DWORD PTR _lpObj$[ebp]
  0083d	dd 99 00 23 00
	00		 fstp	 QWORD PTR [ecx+8960]

; 184  : 
; 185  : 			gGameShop.GDSaveUserInfo(aIndex);

  00843	8b 45 08	 mov	 eax, DWORD PTR _aIndex$[ebp]
  00846	50		 push	 eax
  00847	b9 00 00 00 00	 mov	 ecx, OFFSET ?gGameShop@@3VGameShop@@A ; gGameShop
  0084c	e8 00 00 00 00	 call	 ?GDSaveUserInfo@GameShop@@QAEXH@Z ; GameShop::GDSaveUserInfo

; 186  : #ifndef FIX_DS_CRASH
; 187  : 			GJSetCharacterInfo(lpObj, lpObj->m_Index, 0);
; 188  : #endif
; 189  : 			ExUserDataSend(aIndex);

  00851	8b 45 08	 mov	 eax, DWORD PTR _aIndex$[ebp]
  00854	50		 push	 eax
  00855	e8 00 00 00 00	 call	 ?ExUserDataSend@@YAXH@Z	; ExUserDataSend
  0085a	83 c4 04	 add	 esp, 4
  0085d	e9 18 04 00 00	 jmp	 $LN10@Chat
$LN32@Chat:

; 190  : 		}
; 191  : 		else if(!strcmp(Message,"wcoinp") && this->BuyWcoinP)

  00862	68 00 00 00 00	 push	 OFFSET ??_C@_06PFAGHEBJ@wcoinp?$AA@
  00867	8b 45 0c	 mov	 eax, DWORD PTR _Message$[ebp]
  0086a	50		 push	 eax
  0086b	e8 00 00 00 00	 call	 _strcmp
  00870	83 c4 08	 add	 esp, 8
  00873	85 c0		 test	 eax, eax
  00875	0f 85 c2 00 00
	00		 jne	 $LN28@Chat
  0087b	8b 45 fc	 mov	 eax, DWORD PTR _this$[ebp]
  0087e	0f b6 48 09	 movzx	 ecx, BYTE PTR [eax+9]
  00882	85 c9		 test	 ecx, ecx
  00884	0f 84 b3 00 00
	00		 je	 $LN28@Chat

; 192  : 		{
; 193  : 			int b = NumberFor100(Count);

  0088a	8b 45 10	 mov	 eax, DWORD PTR _Count$[ebp]
  0088d	50		 push	 eax
  0088e	e8 00 00 00 00	 call	 ?NumberFor100@@YAHH@Z	; NumberFor100
  00893	83 c4 04	 add	 esp, 4
  00896	89 45 f0	 mov	 DWORD PTR _b$223900[ebp], eax

; 194  : 			if(b == -1)

  00899	83 7d f0 ff	 cmp	 DWORD PTR _b$223900[ebp], -1
  0089d	75 1e		 jne	 SHORT $LN27@Chat

; 195  : 			{
; 196  : 				MsgOutput(aIndex,g_ExText.GetText(115));

  0089f	6a 73		 push	 115			; 00000073H
  008a1	b9 00 00 00 00	 mov	 ecx, OFFSET ?g_ExText@@3VCExText@@A ; g_ExText
  008a6	e8 00 00 00 00	 call	 ?GetText@CExText@@QAEPADH@Z ; CExText::GetText
  008ab	50		 push	 eax
  008ac	8b 45 08	 mov	 eax, DWORD PTR _aIndex$[ebp]
  008af	50		 push	 eax
  008b0	e8 00 00 00 00	 call	 ?MsgOutput@@YAXHPADZZ	; MsgOutput
  008b5	83 c4 08	 add	 esp, 8

; 197  : 				return;

  008b8	e9 0d 06 00 00	 jmp	 $LN35@Chat
$LN27@Chat:

; 198  : 			}
; 199  : 			if(b > lpObj->ExCred )

  008bd	db 45 f0	 fild	 DWORD PTR _b$223900[ebp]
  008c0	8b 45 f8	 mov	 eax, DWORD PTR _lpObj$[ebp]
  008c3	d9 80 a8 22 00
	00		 fld	 DWORD PTR [eax+8872]
  008c9	de d9		 fcompp
  008cb	df e0		 fnstsw	 ax
  008cd	f6 c4 05	 test	 ah, 5
  008d0	7a 22		 jp	 SHORT $LN26@Chat

; 200  : 			{
; 201  : 				MsgOutput(aIndex,g_ExText.GetText(116),b);

  008d2	8b 45 f0	 mov	 eax, DWORD PTR _b$223900[ebp]
  008d5	50		 push	 eax
  008d6	6a 74		 push	 116			; 00000074H
  008d8	b9 00 00 00 00	 mov	 ecx, OFFSET ?g_ExText@@3VCExText@@A ; g_ExText
  008dd	e8 00 00 00 00	 call	 ?GetText@CExText@@QAEPADH@Z ; CExText::GetText
  008e2	50		 push	 eax
  008e3	8b 4d 08	 mov	 ecx, DWORD PTR _aIndex$[ebp]
  008e6	51		 push	 ecx
  008e7	e8 00 00 00 00	 call	 ?MsgOutput@@YAXHPADZZ	; MsgOutput
  008ec	83 c4 0c	 add	 esp, 12			; 0000000cH

; 202  : 				return;

  008ef	e9 d6 05 00 00	 jmp	 $LN35@Chat
$LN26@Chat:

; 203  : 			}
; 204  : 			lpObj->ExCred -= b;

  008f4	db 45 f0	 fild	 DWORD PTR _b$223900[ebp]
  008f7	8b 45 f8	 mov	 eax, DWORD PTR _lpObj$[ebp]
  008fa	d8 a8 a8 22 00
	00		 fsubr	 DWORD PTR [eax+8872]
  00900	8b 4d f8	 mov	 ecx, DWORD PTR _lpObj$[ebp]
  00903	d9 99 a8 22 00
	00		 fstp	 DWORD PTR [ecx+8872]

; 205  : 			lpObj->GameShop.WCoinP += Count;

  00909	db 45 10	 fild	 DWORD PTR _Count$[ebp]
  0090c	8b 45 f8	 mov	 eax, DWORD PTR _lpObj$[ebp]
  0090f	dc 80 f8 22 00
	00		 fadd	 QWORD PTR [eax+8952]
  00915	8b 4d f8	 mov	 ecx, DWORD PTR _lpObj$[ebp]
  00918	dd 99 f8 22 00
	00		 fstp	 QWORD PTR [ecx+8952]

; 206  : 
; 207  : 			gGameShop.GDSaveUserInfo(aIndex);

  0091e	8b 45 08	 mov	 eax, DWORD PTR _aIndex$[ebp]
  00921	50		 push	 eax
  00922	b9 00 00 00 00	 mov	 ecx, OFFSET ?gGameShop@@3VGameShop@@A ; gGameShop
  00927	e8 00 00 00 00	 call	 ?GDSaveUserInfo@GameShop@@QAEXH@Z ; GameShop::GDSaveUserInfo

; 208  : #ifndef FIX_DS_CRASH
; 209  : 			GJSetCharacterInfo(lpObj, lpObj->m_Index, 0);
; 210  : #endif
; 211  : 			ExUserDataSend(aIndex);

  0092c	8b 45 08	 mov	 eax, DWORD PTR _aIndex$[ebp]
  0092f	50		 push	 eax
  00930	e8 00 00 00 00	 call	 ?ExUserDataSend@@YAXH@Z	; ExUserDataSend
  00935	83 c4 04	 add	 esp, 4
  00938	e9 3d 03 00 00	 jmp	 $LN10@Chat
$LN28@Chat:

; 212  : 		}
; 213  : 		else if(!strcmp(Message,"goblin") && this->BuyGoblin)

  0093d	68 00 00 00 00	 push	 OFFSET ??_C@_06PLFKDFHF@goblin?$AA@
  00942	8b 45 0c	 mov	 eax, DWORD PTR _Message$[ebp]
  00945	50		 push	 eax
  00946	e8 00 00 00 00	 call	 _strcmp
  0094b	83 c4 08	 add	 esp, 8
  0094e	85 c0		 test	 eax, eax
  00950	0f 85 c2 00 00
	00		 jne	 $LN24@Chat
  00956	8b 45 fc	 mov	 eax, DWORD PTR _this$[ebp]
  00959	0f b6 48 0a	 movzx	 ecx, BYTE PTR [eax+10]
  0095d	85 c9		 test	 ecx, ecx
  0095f	0f 84 b3 00 00
	00		 je	 $LN24@Chat

; 214  : 		{
; 215  : 			int b = NumberFor100(Count);

  00965	8b 45 10	 mov	 eax, DWORD PTR _Count$[ebp]
  00968	50		 push	 eax
  00969	e8 00 00 00 00	 call	 ?NumberFor100@@YAHH@Z	; NumberFor100
  0096e	83 c4 04	 add	 esp, 4
  00971	89 45 ec	 mov	 DWORD PTR _b$223906[ebp], eax

; 216  : 			if(b == -1)

  00974	83 7d ec ff	 cmp	 DWORD PTR _b$223906[ebp], -1
  00978	75 1e		 jne	 SHORT $LN23@Chat

; 217  : 			{
; 218  : 				MsgOutput(aIndex,g_ExText.GetText(117));

  0097a	6a 75		 push	 117			; 00000075H
  0097c	b9 00 00 00 00	 mov	 ecx, OFFSET ?g_ExText@@3VCExText@@A ; g_ExText
  00981	e8 00 00 00 00	 call	 ?GetText@CExText@@QAEPADH@Z ; CExText::GetText
  00986	50		 push	 eax
  00987	8b 45 08	 mov	 eax, DWORD PTR _aIndex$[ebp]
  0098a	50		 push	 eax
  0098b	e8 00 00 00 00	 call	 ?MsgOutput@@YAXHPADZZ	; MsgOutput
  00990	83 c4 08	 add	 esp, 8

; 219  : 				return;

  00993	e9 32 05 00 00	 jmp	 $LN35@Chat
$LN23@Chat:

; 220  : 			}
; 221  : 			if(b > lpObj->ExCred )

  00998	db 45 ec	 fild	 DWORD PTR _b$223906[ebp]
  0099b	8b 45 f8	 mov	 eax, DWORD PTR _lpObj$[ebp]
  0099e	d9 80 a8 22 00
	00		 fld	 DWORD PTR [eax+8872]
  009a4	de d9		 fcompp
  009a6	df e0		 fnstsw	 ax
  009a8	f6 c4 05	 test	 ah, 5
  009ab	7a 22		 jp	 SHORT $LN22@Chat

; 222  : 			{
; 223  : 				MsgOutput(aIndex,g_ExText.GetText(118),b);

  009ad	8b 45 ec	 mov	 eax, DWORD PTR _b$223906[ebp]
  009b0	50		 push	 eax
  009b1	6a 76		 push	 118			; 00000076H
  009b3	b9 00 00 00 00	 mov	 ecx, OFFSET ?g_ExText@@3VCExText@@A ; g_ExText
  009b8	e8 00 00 00 00	 call	 ?GetText@CExText@@QAEPADH@Z ; CExText::GetText
  009bd	50		 push	 eax
  009be	8b 4d 08	 mov	 ecx, DWORD PTR _aIndex$[ebp]
  009c1	51		 push	 ecx
  009c2	e8 00 00 00 00	 call	 ?MsgOutput@@YAXHPADZZ	; MsgOutput
  009c7	83 c4 0c	 add	 esp, 12			; 0000000cH

; 224  : 				return;

  009ca	e9 fb 04 00 00	 jmp	 $LN35@Chat
$LN22@Chat:

; 225  : 			}
; 226  : 			lpObj->ExCred -= b;

  009cf	db 45 ec	 fild	 DWORD PTR _b$223906[ebp]
  009d2	8b 45 f8	 mov	 eax, DWORD PTR _lpObj$[ebp]
  009d5	d8 a8 a8 22 00
	00		 fsubr	 DWORD PTR [eax+8872]
  009db	8b 4d f8	 mov	 ecx, DWORD PTR _lpObj$[ebp]
  009de	d9 99 a8 22 00
	00		 fstp	 DWORD PTR [ecx+8872]

; 227  : 			lpObj->GameShop.GoblinPoint += Count;

  009e4	db 45 10	 fild	 DWORD PTR _Count$[ebp]
  009e7	8b 45 f8	 mov	 eax, DWORD PTR _lpObj$[ebp]
  009ea	dc 80 08 23 00
	00		 fadd	 QWORD PTR [eax+8968]
  009f0	8b 4d f8	 mov	 ecx, DWORD PTR _lpObj$[ebp]
  009f3	dd 99 08 23 00
	00		 fstp	 QWORD PTR [ecx+8968]

; 228  : 
; 229  : 			gGameShop.GDSaveUserInfo(aIndex);

  009f9	8b 45 08	 mov	 eax, DWORD PTR _aIndex$[ebp]
  009fc	50		 push	 eax
  009fd	b9 00 00 00 00	 mov	 ecx, OFFSET ?gGameShop@@3VGameShop@@A ; gGameShop
  00a02	e8 00 00 00 00	 call	 ?GDSaveUserInfo@GameShop@@QAEXH@Z ; GameShop::GDSaveUserInfo

; 230  : #ifndef FIX_DS_CRASH
; 231  : 			GJSetCharacterInfo(lpObj, lpObj->m_Index, 0);
; 232  : #endif
; 233  : 			ExUserDataSend(aIndex);

  00a07	8b 45 08	 mov	 eax, DWORD PTR _aIndex$[ebp]
  00a0a	50		 push	 eax
  00a0b	e8 00 00 00 00	 call	 ?ExUserDataSend@@YAXH@Z	; ExUserDataSend
  00a10	83 c4 04	 add	 esp, 4
  00a13	e9 62 02 00 00	 jmp	 $LN10@Chat
$LN24@Chat:

; 234  : 		}
; 235  : 		else if(!strcmp(Message,"premium") && this->BuyPremium)

  00a18	68 00 00 00 00	 push	 OFFSET ??_C@_07LAKGFKMJ@premium?$AA@
  00a1d	8b 45 0c	 mov	 eax, DWORD PTR _Message$[ebp]
  00a20	50		 push	 eax
  00a21	e8 00 00 00 00	 call	 _strcmp
  00a26	83 c4 08	 add	 esp, 8
  00a29	85 c0		 test	 eax, eax
  00a2b	0f 85 49 02 00
	00		 jne	 $LN10@Chat
  00a31	8b 45 fc	 mov	 eax, DWORD PTR _this$[ebp]
  00a34	0f b6 48 0b	 movzx	 ecx, BYTE PTR [eax+11]
  00a38	85 c9		 test	 ecx, ecx
  00a3a	0f 84 3a 02 00
	00		 je	 $LN10@Chat

; 236  : 		{
; 237  : #ifdef PRIVATE_MODULE
; 238  : 			if(g_ExLicense.CheckUser(eExUB::Vadim))

  00a40	6a 09		 push	 9
  00a42	b9 00 00 00 00	 mov	 ecx, OFFSET ?g_ExLicense@@3VCExLicense@@A ; g_ExLicense
  00a47	e8 00 00 00 00	 call	 ?CheckUser@CExLicense@@QAE_NH@Z ; CExLicense::CheckUser
  00a4c	0f b6 c0	 movzx	 eax, al
  00a4f	85 c0		 test	 eax, eax
  00a51	0f 84 b0 01 00
	00		 je	 $LN19@Chat

; 239  : 			{
; 240  : 				if(Count == 1)

  00a57	83 7d 10 01	 cmp	 DWORD PTR _Count$[ebp], 1
  00a5b	0f 85 87 00 00
	00		 jne	 $LN18@Chat

; 241  : 				{
; 242  : 					if(this->premium_price_1 > lpObj->ExCred)

  00a61	8b 45 fc	 mov	 eax, DWORD PTR _this$[ebp]
  00a64	db 80 9c af 02
	00		 fild	 DWORD PTR [eax+176028]
  00a6a	8b 4d f8	 mov	 ecx, DWORD PTR _lpObj$[ebp]
  00a6d	d9 81 a8 22 00
	00		 fld	 DWORD PTR [ecx+8872]
  00a73	de d9		 fcompp
  00a75	df e0		 fnstsw	 ax
  00a77	f6 c4 05	 test	 ah, 5
  00a7a	7a 28		 jp	 SHORT $LN17@Chat

; 243  : 					{
; 244  : 						MsgOutput(aIndex,g_ExText.GetText(119),this->premium_price_1);

  00a7c	8b 45 fc	 mov	 eax, DWORD PTR _this$[ebp]
  00a7f	8b 88 9c af 02
	00		 mov	 ecx, DWORD PTR [eax+176028]
  00a85	51		 push	 ecx
  00a86	6a 77		 push	 119			; 00000077H
  00a88	b9 00 00 00 00	 mov	 ecx, OFFSET ?g_ExText@@3VCExText@@A ; g_ExText
  00a8d	e8 00 00 00 00	 call	 ?GetText@CExText@@QAEPADH@Z ; CExText::GetText
  00a92	50		 push	 eax
  00a93	8b 55 08	 mov	 edx, DWORD PTR _aIndex$[ebp]
  00a96	52		 push	 edx
  00a97	e8 00 00 00 00	 call	 ?MsgOutput@@YAXHPADZZ	; MsgOutput
  00a9c	83 c4 0c	 add	 esp, 12			; 0000000cH

; 245  : 						return;

  00a9f	e9 26 04 00 00	 jmp	 $LN35@Chat
$LN17@Chat:

; 246  : 					}
; 247  : 					lpObj->ExCred -= this->premium_price_1;

  00aa4	8b 45 fc	 mov	 eax, DWORD PTR _this$[ebp]
  00aa7	db 80 9c af 02
	00		 fild	 DWORD PTR [eax+176028]
  00aad	8b 4d f8	 mov	 ecx, DWORD PTR _lpObj$[ebp]
  00ab0	d8 a9 a8 22 00
	00		 fsubr	 DWORD PTR [ecx+8872]
  00ab6	8b 55 f8	 mov	 edx, DWORD PTR _lpObj$[ebp]
  00ab9	d9 9a a8 22 00
	00		 fstp	 DWORD PTR [edx+8872]

; 248  : 					lpObj->PremiumTime += ( 1 * 86400 );

  00abf	8b 45 f8	 mov	 eax, DWORD PTR _lpObj$[ebp]
  00ac2	8b 88 b8 22 00
	00		 mov	 ecx, DWORD PTR [eax+8888]
  00ac8	81 c1 80 51 01
	00		 add	 ecx, 86400		; 00015180H
  00ace	8b 55 f8	 mov	 edx, DWORD PTR _lpObj$[ebp]
  00ad1	89 8a b8 22 00
	00		 mov	 DWORD PTR [edx+8888], ecx

; 249  : #ifndef FIX_DS_CRASH
; 250  : 					GJSetCharacterInfo(lpObj, lpObj->m_Index, 0);
; 251  : #endif
; 252  : 					ExUserDataSend(aIndex);

  00ad7	8b 45 08	 mov	 eax, DWORD PTR _aIndex$[ebp]
  00ada	50		 push	 eax
  00adb	e8 00 00 00 00	 call	 ?ExUserDataSend@@YAXH@Z	; ExUserDataSend
  00ae0	83 c4 04	 add	 esp, 4
  00ae3	e9 1d 01 00 00	 jmp	 $LN12@Chat
$LN18@Chat:

; 253  : 				}
; 254  : 				else if(Count == 2)

  00ae8	83 7d 10 02	 cmp	 DWORD PTR _Count$[ebp], 2
  00aec	0f 85 87 00 00
	00		 jne	 $LN15@Chat

; 255  : 				{
; 256  : 					if(this->premium_price_7 > lpObj->ExCred)

  00af2	8b 45 fc	 mov	 eax, DWORD PTR _this$[ebp]
  00af5	db 80 a0 af 02
	00		 fild	 DWORD PTR [eax+176032]
  00afb	8b 4d f8	 mov	 ecx, DWORD PTR _lpObj$[ebp]
  00afe	d9 81 a8 22 00
	00		 fld	 DWORD PTR [ecx+8872]
  00b04	de d9		 fcompp
  00b06	df e0		 fnstsw	 ax
  00b08	f6 c4 05	 test	 ah, 5
  00b0b	7a 28		 jp	 SHORT $LN14@Chat

; 257  : 					{
; 258  : 						MsgOutput(aIndex,g_ExText.GetText(119),this->premium_price_7);

  00b0d	8b 45 fc	 mov	 eax, DWORD PTR _this$[ebp]
  00b10	8b 88 a0 af 02
	00		 mov	 ecx, DWORD PTR [eax+176032]
  00b16	51		 push	 ecx
  00b17	6a 77		 push	 119			; 00000077H
  00b19	b9 00 00 00 00	 mov	 ecx, OFFSET ?g_ExText@@3VCExText@@A ; g_ExText
  00b1e	e8 00 00 00 00	 call	 ?GetText@CExText@@QAEPADH@Z ; CExText::GetText
  00b23	50		 push	 eax
  00b24	8b 55 08	 mov	 edx, DWORD PTR _aIndex$[ebp]
  00b27	52		 push	 edx
  00b28	e8 00 00 00 00	 call	 ?MsgOutput@@YAXHPADZZ	; MsgOutput
  00b2d	83 c4 0c	 add	 esp, 12			; 0000000cH

; 259  : 						return;

  00b30	e9 95 03 00 00	 jmp	 $LN35@Chat
$LN14@Chat:

; 260  : 					}
; 261  : 					lpObj->ExCred -= this->premium_price_7;

  00b35	8b 45 fc	 mov	 eax, DWORD PTR _this$[ebp]
  00b38	db 80 a0 af 02
	00		 fild	 DWORD PTR [eax+176032]
  00b3e	8b 4d f8	 mov	 ecx, DWORD PTR _lpObj$[ebp]
  00b41	d8 a9 a8 22 00
	00		 fsubr	 DWORD PTR [ecx+8872]
  00b47	8b 55 f8	 mov	 edx, DWORD PTR _lpObj$[ebp]
  00b4a	d9 9a a8 22 00
	00		 fstp	 DWORD PTR [edx+8872]

; 262  : 					lpObj->PremiumTime += ( 7 * 86400 );

  00b50	8b 45 f8	 mov	 eax, DWORD PTR _lpObj$[ebp]
  00b53	8b 88 b8 22 00
	00		 mov	 ecx, DWORD PTR [eax+8888]
  00b59	81 c1 80 3a 09
	00		 add	 ecx, 604800		; 00093a80H
  00b5f	8b 55 f8	 mov	 edx, DWORD PTR _lpObj$[ebp]
  00b62	89 8a b8 22 00
	00		 mov	 DWORD PTR [edx+8888], ecx

; 263  : #ifndef FIX_DS_CRASH
; 264  : 					GJSetCharacterInfo(lpObj, lpObj->m_Index, 0);
; 265  : #endif
; 266  : 					ExUserDataSend(aIndex);

  00b68	8b 45 08	 mov	 eax, DWORD PTR _aIndex$[ebp]
  00b6b	50		 push	 eax
  00b6c	e8 00 00 00 00	 call	 ?ExUserDataSend@@YAXH@Z	; ExUserDataSend
  00b71	83 c4 04	 add	 esp, 4
  00b74	e9 8c 00 00 00	 jmp	 $LN12@Chat
$LN15@Chat:

; 267  : 				}
; 268  : 				else if(Count == 3)

  00b79	83 7d 10 03	 cmp	 DWORD PTR _Count$[ebp], 3
  00b7d	0f 85 82 00 00
	00		 jne	 $LN12@Chat

; 269  : 				{
; 270  : 					if(this->premium_price_30 > lpObj->ExCred)

  00b83	8b 45 fc	 mov	 eax, DWORD PTR _this$[ebp]
  00b86	db 80 a4 af 02
	00		 fild	 DWORD PTR [eax+176036]
  00b8c	8b 4d f8	 mov	 ecx, DWORD PTR _lpObj$[ebp]
  00b8f	d9 81 a8 22 00
	00		 fld	 DWORD PTR [ecx+8872]
  00b95	de d9		 fcompp
  00b97	df e0		 fnstsw	 ax
  00b99	f6 c4 05	 test	 ah, 5
  00b9c	7a 28		 jp	 SHORT $LN11@Chat

; 271  : 					{
; 272  : 						MsgOutput(aIndex,g_ExText.GetText(119),this->premium_price_30);

  00b9e	8b 45 fc	 mov	 eax, DWORD PTR _this$[ebp]
  00ba1	8b 88 a4 af 02
	00		 mov	 ecx, DWORD PTR [eax+176036]
  00ba7	51		 push	 ecx
  00ba8	6a 77		 push	 119			; 00000077H
  00baa	b9 00 00 00 00	 mov	 ecx, OFFSET ?g_ExText@@3VCExText@@A ; g_ExText
  00baf	e8 00 00 00 00	 call	 ?GetText@CExText@@QAEPADH@Z ; CExText::GetText
  00bb4	50		 push	 eax
  00bb5	8b 55 08	 mov	 edx, DWORD PTR _aIndex$[ebp]
  00bb8	52		 push	 edx
  00bb9	e8 00 00 00 00	 call	 ?MsgOutput@@YAXHPADZZ	; MsgOutput
  00bbe	83 c4 0c	 add	 esp, 12			; 0000000cH

; 273  : 						return;

  00bc1	e9 04 03 00 00	 jmp	 $LN35@Chat
$LN11@Chat:

; 274  : 					}
; 275  : 					lpObj->ExCred -= this->premium_price_30;

  00bc6	8b 45 fc	 mov	 eax, DWORD PTR _this$[ebp]
  00bc9	db 80 a4 af 02
	00		 fild	 DWORD PTR [eax+176036]
  00bcf	8b 4d f8	 mov	 ecx, DWORD PTR _lpObj$[ebp]
  00bd2	d8 a9 a8 22 00
	00		 fsubr	 DWORD PTR [ecx+8872]
  00bd8	8b 55 f8	 mov	 edx, DWORD PTR _lpObj$[ebp]
  00bdb	d9 9a a8 22 00
	00		 fstp	 DWORD PTR [edx+8872]

; 276  : 					lpObj->PremiumTime += ( 30 * 86400 );

  00be1	8b 45 f8	 mov	 eax, DWORD PTR _lpObj$[ebp]
  00be4	8b 88 b8 22 00
	00		 mov	 ecx, DWORD PTR [eax+8888]
  00bea	81 c1 00 8d 27
	00		 add	 ecx, 2592000		; 00278d00H
  00bf0	8b 55 f8	 mov	 edx, DWORD PTR _lpObj$[ebp]
  00bf3	89 8a b8 22 00
	00		 mov	 DWORD PTR [edx+8888], ecx

; 277  : #ifndef FIX_DS_CRASH
; 278  : 					GJSetCharacterInfo(lpObj, lpObj->m_Index, 0);
; 279  : #endif
; 280  : 					ExUserDataSend(aIndex);

  00bf9	8b 45 08	 mov	 eax, DWORD PTR _aIndex$[ebp]
  00bfc	50		 push	 eax
  00bfd	e8 00 00 00 00	 call	 ?ExUserDataSend@@YAXH@Z	; ExUserDataSend
  00c02	83 c4 04	 add	 esp, 4
$LN12@Chat:

; 281  : 				}
; 282  : 			}
; 283  : 			else

  00c05	eb 73		 jmp	 SHORT $LN10@Chat
$LN19@Chat:

; 284  : 			{
; 285  : 				if(Count > lpObj->ExCred)

  00c07	db 45 10	 fild	 DWORD PTR _Count$[ebp]
  00c0a	8b 45 f8	 mov	 eax, DWORD PTR _lpObj$[ebp]
  00c0d	d9 80 a8 22 00
	00		 fld	 DWORD PTR [eax+8872]
  00c13	de d9		 fcompp
  00c15	df e0		 fnstsw	 ax
  00c17	f6 c4 05	 test	 ah, 5
  00c1a	7a 22		 jp	 SHORT $LN9@Chat

; 286  : 				{
; 287  : 					MsgOutput(aIndex,g_ExText.GetText(119),Count);

  00c1c	8b 45 10	 mov	 eax, DWORD PTR _Count$[ebp]
  00c1f	50		 push	 eax
  00c20	6a 77		 push	 119			; 00000077H
  00c22	b9 00 00 00 00	 mov	 ecx, OFFSET ?g_ExText@@3VCExText@@A ; g_ExText
  00c27	e8 00 00 00 00	 call	 ?GetText@CExText@@QAEPADH@Z ; CExText::GetText
  00c2c	50		 push	 eax
  00c2d	8b 4d 08	 mov	 ecx, DWORD PTR _aIndex$[ebp]
  00c30	51		 push	 ecx
  00c31	e8 00 00 00 00	 call	 ?MsgOutput@@YAXHPADZZ	; MsgOutput
  00c36	83 c4 0c	 add	 esp, 12			; 0000000cH

; 288  : 					return;

  00c39	e9 8c 02 00 00	 jmp	 $LN35@Chat
$LN9@Chat:

; 289  : 				}
; 290  : 				lpObj->ExCred -= Count;

  00c3e	db 45 10	 fild	 DWORD PTR _Count$[ebp]
  00c41	8b 45 f8	 mov	 eax, DWORD PTR _lpObj$[ebp]
  00c44	d8 a8 a8 22 00
	00		 fsubr	 DWORD PTR [eax+8872]
  00c4a	8b 4d f8	 mov	 ecx, DWORD PTR _lpObj$[ebp]
  00c4d	d9 99 a8 22 00
	00		 fstp	 DWORD PTR [ecx+8872]

; 291  : 				lpObj->PremiumTime += ( Count * 86400 );

  00c53	8b 45 10	 mov	 eax, DWORD PTR _Count$[ebp]
  00c56	69 c0 80 51 01
	00		 imul	 eax, 86400		; 00015180H
  00c5c	8b 4d f8	 mov	 ecx, DWORD PTR _lpObj$[ebp]
  00c5f	03 81 b8 22 00
	00		 add	 eax, DWORD PTR [ecx+8888]
  00c65	8b 55 f8	 mov	 edx, DWORD PTR _lpObj$[ebp]
  00c68	89 82 b8 22 00
	00		 mov	 DWORD PTR [edx+8888], eax

; 292  : #ifndef FIX_DS_CRASH
; 293  : 				GJSetCharacterInfo(lpObj, lpObj->m_Index, 0);
; 294  : #endif
; 295  : 				ExUserDataSend(aIndex);

  00c6e	8b 45 08	 mov	 eax, DWORD PTR _aIndex$[ebp]
  00c71	50		 push	 eax
  00c72	e8 00 00 00 00	 call	 ?ExUserDataSend@@YAXH@Z	; ExUserDataSend
  00c77	83 c4 04	 add	 esp, 4
$LN10@Chat:

; 296  : 			}
; 297  : #else
; 298  : 			if(Count > lpObj->ExCred)
; 299  : 			{
; 300  : 				MsgOutput(aIndex,"[Credit Donate]:Buy Premium Need %d",Count);
; 301  : 				return;
; 302  : 			}
; 303  : 			lpObj->ExCred -= Count;
; 304  : 			lpObj->PremiumTime += ( Count * 86400 );
; 305  : #ifndef FIX_DS_CRASH
; 306  : 			GJSetCharacterInfo(lpObj, lpObj->m_Index, 0);
; 307  : #endif
; 308  : 			ExUserDataSend(aIndex);
; 309  : #endif
; 310  : 		}
; 311  : 	}
; 312  : 	else

  00c7a	e9 4b 02 00 00	 jmp	 $LN5@Chat
$LN33@Chat:

; 313  : 	{
; 314  : 		for(int i=0;i<this->Count;i++)

  00c7f	c7 45 e8 00 00
	00 00		 mov	 DWORD PTR _i$223924[ebp], 0
  00c86	eb 09		 jmp	 SHORT $LN7@Chat
$LN6@Chat:
  00c88	8b 45 e8	 mov	 eax, DWORD PTR _i$223924[ebp]
  00c8b	83 c0 01	 add	 eax, 1
  00c8e	89 45 e8	 mov	 DWORD PTR _i$223924[ebp], eax
$LN7@Chat:
  00c91	8b 45 fc	 mov	 eax, DWORD PTR _this$[ebp]
  00c94	8b 4d e8	 mov	 ecx, DWORD PTR _i$223924[ebp]
  00c97	3b 88 98 af 02
	00		 cmp	 ecx, DWORD PTR [eax+176024]
  00c9d	0f 8d 27 02 00
	00		 jge	 $LN5@Chat

; 315  : 		{
; 316  : 			if(this->Donate[i].cmd[0] == Message[0])

  00ca3	8b 45 e8	 mov	 eax, DWORD PTR _i$223924[ebp]
  00ca6	6b c0 58	 imul	 eax, 88			; 00000058H
  00ca9	8b 4d fc	 mov	 ecx, DWORD PTR _this$[ebp]
  00cac	0f be 54 01 18	 movsx	 edx, BYTE PTR [ecx+eax+24]
  00cb1	8b 45 0c	 mov	 eax, DWORD PTR _Message$[ebp]
  00cb4	0f be 08	 movsx	 ecx, BYTE PTR [eax]
  00cb7	3b d1		 cmp	 edx, ecx
  00cb9	0f 85 06 02 00
	00		 jne	 $LN3@Chat

; 317  : 			{
; 318  : 				if(!strcmp(Message,this->Donate[i].cmd))

  00cbf	8b 45 e8	 mov	 eax, DWORD PTR _i$223924[ebp]
  00cc2	6b c0 58	 imul	 eax, 88			; 00000058H
  00cc5	8b 4d fc	 mov	 ecx, DWORD PTR _this$[ebp]
  00cc8	8d 54 01 18	 lea	 edx, DWORD PTR [ecx+eax+24]
  00ccc	52		 push	 edx
  00ccd	8b 45 0c	 mov	 eax, DWORD PTR _Message$[ebp]
  00cd0	50		 push	 eax
  00cd1	e8 00 00 00 00	 call	 _strcmp
  00cd6	83 c4 08	 add	 esp, 8
  00cd9	85 c0		 test	 eax, eax
  00cdb	0f 85 e4 01 00
	00		 jne	 $LN3@Chat

; 319  : 				{
; 320  : 					//if ( CheckInventoryEmptySpace(lpObj,4,8) == false )
; 321  : 
; 322  : 					int iHeight = ItemAttribute[ITEMGET(this->Donate[i].Type,this->Donate[i].Index)].Height;

  00ce1	8b 45 e8	 mov	 eax, DWORD PTR _i$223924[ebp]
  00ce4	6b c0 58	 imul	 eax, 88			; 00000058H
  00ce7	8b 4d fc	 mov	 ecx, DWORD PTR _this$[ebp]
  00cea	8b 54 01 4c	 mov	 edx, DWORD PTR [ecx+eax+76]
  00cee	c1 e2 09	 shl	 edx, 9
  00cf1	8b 45 e8	 mov	 eax, DWORD PTR _i$223924[ebp]
  00cf4	6b c0 58	 imul	 eax, 88			; 00000058H
  00cf7	8b 4d fc	 mov	 ecx, DWORD PTR _this$[ebp]
  00cfa	03 54 01 50	 add	 edx, DWORD PTR [ecx+eax+80]
  00cfe	6b d2 70	 imul	 edx, 112		; 00000070H
  00d01	0f b6 92 24 00
	00 00		 movzx	 edx, BYTE PTR ?ItemAttribute@@3PAUITEM_ATTRIBUTE@@A[edx+36]
  00d08	89 55 e4	 mov	 DWORD PTR _iHeight$223930[ebp], edx

; 323  : 					int iWidth = ItemAttribute[ITEMGET(this->Donate[i].Type,this->Donate[i].Index)].Width;

  00d0b	8b 45 e8	 mov	 eax, DWORD PTR _i$223924[ebp]
  00d0e	6b c0 58	 imul	 eax, 88			; 00000058H
  00d11	8b 4d fc	 mov	 ecx, DWORD PTR _this$[ebp]
  00d14	8b 54 01 4c	 mov	 edx, DWORD PTR [ecx+eax+76]
  00d18	c1 e2 09	 shl	 edx, 9
  00d1b	8b 45 e8	 mov	 eax, DWORD PTR _i$223924[ebp]
  00d1e	6b c0 58	 imul	 eax, 88			; 00000058H
  00d21	8b 4d fc	 mov	 ecx, DWORD PTR _this$[ebp]
  00d24	03 54 01 50	 add	 edx, DWORD PTR [ecx+eax+80]
  00d28	6b d2 70	 imul	 edx, 112		; 00000070H
  00d2b	0f b6 92 23 00
	00 00		 movzx	 edx, BYTE PTR ?ItemAttribute@@3PAUITEM_ATTRIBUTE@@A[edx+35]
  00d32	89 55 e0	 mov	 DWORD PTR _iWidth$223931[ebp], edx

; 324  : 					
; 325  : 					if ( CheckInventoryEmptySpace(lpObj,iHeight,iWidth) == false )

  00d35	8b 45 e0	 mov	 eax, DWORD PTR _iWidth$223931[ebp]
  00d38	50		 push	 eax
  00d39	8b 4d e4	 mov	 ecx, DWORD PTR _iHeight$223930[ebp]
  00d3c	51		 push	 ecx
  00d3d	8b 55 f8	 mov	 edx, DWORD PTR _lpObj$[ebp]
  00d40	52		 push	 edx
  00d41	e8 00 00 00 00	 call	 ?CheckInventoryEmptySpace@@YAHPAUOBJECTSTRUCT@@HH@Z ; CheckInventoryEmptySpace
  00d46	83 c4 0c	 add	 esp, 12			; 0000000cH
  00d49	85 c0		 test	 eax, eax
  00d4b	75 26		 jne	 SHORT $LN2@Chat

; 326  : 					{
; 327  : 						MsgOutput(aIndex,g_ExText.GetText(120),iHeight,iWidth);

  00d4d	8b 45 e0	 mov	 eax, DWORD PTR _iWidth$223931[ebp]
  00d50	50		 push	 eax
  00d51	8b 4d e4	 mov	 ecx, DWORD PTR _iHeight$223930[ebp]
  00d54	51		 push	 ecx
  00d55	6a 78		 push	 120			; 00000078H
  00d57	b9 00 00 00 00	 mov	 ecx, OFFSET ?g_ExText@@3VCExText@@A ; g_ExText
  00d5c	e8 00 00 00 00	 call	 ?GetText@CExText@@QAEPADH@Z ; CExText::GetText
  00d61	50		 push	 eax
  00d62	8b 55 08	 mov	 edx, DWORD PTR _aIndex$[ebp]
  00d65	52		 push	 edx
  00d66	e8 00 00 00 00	 call	 ?MsgOutput@@YAXHPADZZ	; MsgOutput
  00d6b	83 c4 10	 add	 esp, 16			; 00000010H

; 328  : 						//GCServerMsgStringSend("[Credit Donate]: Need to make space in the inventory (4x8)",aIndex,1);
; 329  : 						return;

  00d6e	e9 57 01 00 00	 jmp	 $LN35@Chat
$LN2@Chat:

; 330  : 					}
; 331  : 
; 332  : 					if(this->Donate[i].CrPrice > lpObj->ExCred)

  00d73	8b 45 e8	 mov	 eax, DWORD PTR _i$223924[ebp]
  00d76	6b c0 58	 imul	 eax, 88			; 00000058H
  00d79	8b 4d fc	 mov	 ecx, DWORD PTR _this$[ebp]
  00d7c	db 44 01 6c	 fild	 DWORD PTR [ecx+eax+108]
  00d80	8b 55 f8	 mov	 edx, DWORD PTR _lpObj$[ebp]
  00d83	d9 82 a8 22 00
	00		 fld	 DWORD PTR [edx+8872]
  00d89	de d9		 fcompp
  00d8b	df e0		 fnstsw	 ax
  00d8d	f6 c4 05	 test	 ah, 5
  00d90	7a 2c		 jp	 SHORT $LN1@Chat

; 333  : 					{
; 334  : 						MsgOutput(aIndex,g_ExText.GetText(121),this->Donate[i].CrPrice);

  00d92	8b 45 e8	 mov	 eax, DWORD PTR _i$223924[ebp]
  00d95	6b c0 58	 imul	 eax, 88			; 00000058H
  00d98	8b 4d fc	 mov	 ecx, DWORD PTR _this$[ebp]
  00d9b	8b 54 01 6c	 mov	 edx, DWORD PTR [ecx+eax+108]
  00d9f	52		 push	 edx
  00da0	6a 79		 push	 121			; 00000079H
  00da2	b9 00 00 00 00	 mov	 ecx, OFFSET ?g_ExText@@3VCExText@@A ; g_ExText
  00da7	e8 00 00 00 00	 call	 ?GetText@CExText@@QAEPADH@Z ; CExText::GetText
  00dac	50		 push	 eax
  00dad	8b 45 08	 mov	 eax, DWORD PTR _aIndex$[ebp]
  00db0	50		 push	 eax
  00db1	e8 00 00 00 00	 call	 ?MsgOutput@@YAXHPADZZ	; MsgOutput
  00db6	83 c4 0c	 add	 esp, 12			; 0000000cH

; 335  : 						return;

  00db9	e9 0c 01 00 00	 jmp	 $LN35@Chat
$LN1@Chat:

; 336  : 					}
; 337  : 
; 338  : 					lpObj->ExCred -= this->Donate[i].CrPrice;

  00dbe	8b 45 e8	 mov	 eax, DWORD PTR _i$223924[ebp]
  00dc1	6b c0 58	 imul	 eax, 88			; 00000058H
  00dc4	8b 4d fc	 mov	 ecx, DWORD PTR _this$[ebp]
  00dc7	db 44 01 6c	 fild	 DWORD PTR [ecx+eax+108]
  00dcb	8b 55 f8	 mov	 edx, DWORD PTR _lpObj$[ebp]
  00dce	d8 aa a8 22 00
	00		 fsubr	 DWORD PTR [edx+8872]
  00dd4	8b 45 f8	 mov	 eax, DWORD PTR _lpObj$[ebp]
  00dd7	d9 98 a8 22 00
	00		 fstp	 DWORD PTR [eax+8872]

; 339  : 
; 340  : 					//if(this->Donate[i].Type == -1)
; 341  : 					//{
; 342  : 					//	ItemSerialCreateSend(aIndex,235,1,1,ITEMGET(7,this->Donate[i].Index),this->Donate[i].Level,0,this->Donate[i].Skill,this->Donate[i].Luck,this->Donate[i].Opt,aIndex,this->Donate[i].Exl,this->Donate[i].Anc);
; 343  : 					//	ItemSerialCreateSend(aIndex,235,1,1,ITEMGET(8,this->Donate[i].Index),this->Donate[i].Level,0,this->Donate[i].Skill,this->Donate[i].Luck,this->Donate[i].Opt,aIndex,this->Donate[i].Exl,this->Donate[i].Anc);
; 344  : 					//	ItemSerialCreateSend(aIndex,235,1,1,ITEMGET(9,this->Donate[i].Index),this->Donate[i].Level,0,this->Donate[i].Skill,this->Donate[i].Luck,this->Donate[i].Opt,aIndex,this->Donate[i].Exl,this->Donate[i].Anc);
; 345  : 					//	ItemSerialCreateSend(aIndex,235,1,1,ITEMGET(10,this->Donate[i].Index),this->Donate[i].Level,0,this->Donate[i].Skill,this->Donate[i].Luck,this->Donate[i].Opt,aIndex,this->Donate[i].Exl,this->Donate[i].Anc);
; 346  : 					//	ItemSerialCreateSend(aIndex,235,1,1,ITEMGET(11,this->Donate[i].Index),this->Donate[i].Level,0,this->Donate[i].Skill,this->Donate[i].Luck,this->Donate[i].Opt,aIndex,this->Donate[i].Exl,this->Donate[i].Anc);
; 347  : 					//}
; 348  : 					//else
; 349  : 					//{
; 350  : 						ItemSerialCreateSend(aIndex,235,lpObj->X,lpObj->Y,ITEMGET(this->Donate[i].Type,this->Donate[i].Index),this->Donate[i].Level,0,this->Donate[i].Skill,this->Donate[i].Luck,this->Donate[i].Opt,aIndex,this->Donate[i].Exl,this->Donate[i].Anc);

  00ddd	8b 45 e8	 mov	 eax, DWORD PTR _i$223924[ebp]
  00de0	6b c0 58	 imul	 eax, 88			; 00000058H
  00de3	8b 4d fc	 mov	 ecx, DWORD PTR _this$[ebp]
  00de6	0f b6 54 01 68	 movzx	 edx, BYTE PTR [ecx+eax+104]
  00deb	52		 push	 edx
  00dec	8b 45 e8	 mov	 eax, DWORD PTR _i$223924[ebp]
  00def	6b c0 58	 imul	 eax, 88			; 00000058H
  00df2	8b 4d fc	 mov	 ecx, DWORD PTR _this$[ebp]
  00df5	0f b6 54 01 64	 movzx	 edx, BYTE PTR [ecx+eax+100]
  00dfa	52		 push	 edx
  00dfb	8b 45 08	 mov	 eax, DWORD PTR _aIndex$[ebp]
  00dfe	50		 push	 eax
  00dff	8b 4d e8	 mov	 ecx, DWORD PTR _i$223924[ebp]
  00e02	6b c9 58	 imul	 ecx, 88			; 00000058H
  00e05	8b 55 fc	 mov	 edx, DWORD PTR _this$[ebp]
  00e08	0f b6 44 0a 60	 movzx	 eax, BYTE PTR [edx+ecx+96]
  00e0d	50		 push	 eax
  00e0e	8b 4d e8	 mov	 ecx, DWORD PTR _i$223924[ebp]
  00e11	6b c9 58	 imul	 ecx, 88			; 00000058H
  00e14	8b 55 fc	 mov	 edx, DWORD PTR _this$[ebp]
  00e17	0f b6 44 0a 5c	 movzx	 eax, BYTE PTR [edx+ecx+92]
  00e1c	50		 push	 eax
  00e1d	8b 4d e8	 mov	 ecx, DWORD PTR _i$223924[ebp]
  00e20	6b c9 58	 imul	 ecx, 88			; 00000058H
  00e23	8b 55 fc	 mov	 edx, DWORD PTR _this$[ebp]
  00e26	0f b6 44 0a 58	 movzx	 eax, BYTE PTR [edx+ecx+88]
  00e2b	50		 push	 eax
  00e2c	6a 00		 push	 0
  00e2e	8b 4d e8	 mov	 ecx, DWORD PTR _i$223924[ebp]
  00e31	6b c9 58	 imul	 ecx, 88			; 00000058H
  00e34	8b 55 fc	 mov	 edx, DWORD PTR _this$[ebp]
  00e37	0f b6 44 0a 54	 movzx	 eax, BYTE PTR [edx+ecx+84]
  00e3c	50		 push	 eax
  00e3d	8b 4d e8	 mov	 ecx, DWORD PTR _i$223924[ebp]
  00e40	6b c9 58	 imul	 ecx, 88			; 00000058H
  00e43	8b 55 fc	 mov	 edx, DWORD PTR _this$[ebp]
  00e46	8b 44 0a 4c	 mov	 eax, DWORD PTR [edx+ecx+76]
  00e4a	c1 e0 09	 shl	 eax, 9
  00e4d	8b 4d e8	 mov	 ecx, DWORD PTR _i$223924[ebp]
  00e50	6b c9 58	 imul	 ecx, 88			; 00000058H
  00e53	8b 55 fc	 mov	 edx, DWORD PTR _this$[ebp]
  00e56	03 44 0a 50	 add	 eax, DWORD PTR [edx+ecx+80]
  00e5a	50		 push	 eax
  00e5b	8b 45 f8	 mov	 eax, DWORD PTR _lpObj$[ebp]
  00e5e	0f b6 88 46 01
	00 00		 movzx	 ecx, BYTE PTR [eax+326]
  00e65	51		 push	 ecx
  00e66	8b 55 f8	 mov	 edx, DWORD PTR _lpObj$[ebp]
  00e69	0f b6 82 44 01
	00 00		 movzx	 eax, BYTE PTR [edx+324]
  00e70	50		 push	 eax
  00e71	68 eb 00 00 00	 push	 235			; 000000ebH
  00e76	8b 4d 08	 mov	 ecx, DWORD PTR _aIndex$[ebp]
  00e79	51		 push	 ecx
  00e7a	e8 00 00 00 00	 call	 ?ItemSerialCreateSend@@YAXHEEEHEEEEEHEE@Z ; ItemSerialCreateSend
  00e7f	83 c4 34	 add	 esp, 52			; 00000034H

; 351  : 					//}
; 352  : 
; 353  : 					MsgOutput(aIndex,g_ExText.GetText(122),this->Donate[i].cmd,this->Donate[i].CrPrice);

  00e82	8b 45 e8	 mov	 eax, DWORD PTR _i$223924[ebp]
  00e85	6b c0 58	 imul	 eax, 88			; 00000058H
  00e88	8b 4d fc	 mov	 ecx, DWORD PTR _this$[ebp]
  00e8b	8b 54 01 6c	 mov	 edx, DWORD PTR [ecx+eax+108]
  00e8f	52		 push	 edx
  00e90	8b 45 e8	 mov	 eax, DWORD PTR _i$223924[ebp]
  00e93	6b c0 58	 imul	 eax, 88			; 00000058H
  00e96	8b 4d fc	 mov	 ecx, DWORD PTR _this$[ebp]
  00e99	8d 54 01 18	 lea	 edx, DWORD PTR [ecx+eax+24]
  00e9d	52		 push	 edx
  00e9e	6a 7a		 push	 122			; 0000007aH
  00ea0	b9 00 00 00 00	 mov	 ecx, OFFSET ?g_ExText@@3VCExText@@A ; g_ExText
  00ea5	e8 00 00 00 00	 call	 ?GetText@CExText@@QAEPADH@Z ; CExText::GetText
  00eaa	50		 push	 eax
  00eab	8b 45 08	 mov	 eax, DWORD PTR _aIndex$[ebp]
  00eae	50		 push	 eax
  00eaf	e8 00 00 00 00	 call	 ?MsgOutput@@YAXHPADZZ	; MsgOutput
  00eb4	83 c4 10	 add	 esp, 16			; 00000010H

; 354  : 
; 355  : 					ExUserDataSend(aIndex);

  00eb7	8b 45 08	 mov	 eax, DWORD PTR _aIndex$[ebp]
  00eba	50		 push	 eax
  00ebb	e8 00 00 00 00	 call	 ?ExUserDataSend@@YAXH@Z	; ExUserDataSend
  00ec0	83 c4 04	 add	 esp, 4

; 356  : 			
; 357  : 					return;

  00ec3	eb 05		 jmp	 SHORT $LN35@Chat
$LN3@Chat:

; 358  : 				}
; 359  : 			}
; 360  : 		}		

  00ec5	e9 be fd ff ff	 jmp	 $LN6@Chat
$LN5@Chat:
$LN35@Chat:

; 361  : 	}
; 362  : }

  00eca	5f		 pop	 edi
  00ecb	5e		 pop	 esi
  00ecc	5b		 pop	 ebx
  00ecd	8b e5		 mov	 esp, ebp
  00ecf	5d		 pop	 ebp
  00ed0	c2 0c 00	 ret	 12			; 0000000cH
?Chat@cCreditDonate@@QAEXHPADH@Z ENDP			; cCreditDonate::Chat
_TEXT	ENDS
PUBLIC	__real@4059000000000000
PUBLIC	?Sell@cCreditDonate@@QAE_NHHAAH@Z		; cCreditDonate::Sell
EXTRN	?CheckOptions@@YA_N_NHH@Z:PROC			; CheckOptions
;	COMDAT __real@4059000000000000
CONST	SEGMENT
__real@4059000000000000 DQ 04059000000000000r	; 100
; Function compile flags: /Odtp /ZI
CONST	ENDS
_TEXT	SEGMENT
_CrSell$223949 = -24					; size = 4
_NewPrice$223948 = -20					; size = 4
_bItems$223946 = -13					; size = 1
_i$223942 = -12						; size = 4
_lpObj$ = -8						; size = 4
_this$ = -4						; size = 4
_aIndex$ = 8						; size = 4
_Pos$ = 12						; size = 4
_iAddZen$ = 16						; size = 4
?Sell@cCreditDonate@@QAE_NHHAAH@Z PROC			; cCreditDonate::Sell
; _this$ = ecx

; 365  : {

  00ee0	55		 push	 ebp
  00ee1	8b ec		 mov	 ebp, esp
  00ee3	83 ec 58	 sub	 esp, 88			; 00000058H
  00ee6	53		 push	 ebx
  00ee7	56		 push	 esi
  00ee8	57		 push	 edi
  00ee9	89 4d fc	 mov	 DWORD PTR _this$[ebp], ecx

; 366  : 	if(!this->Enable) return false;

  00eec	8b 45 fc	 mov	 eax, DWORD PTR _this$[ebp]
  00eef	0f b6 08	 movzx	 ecx, BYTE PTR [eax]
  00ef2	85 c9		 test	 ecx, ecx
  00ef4	75 07		 jne	 SHORT $LN5@Sell
  00ef6	32 c0		 xor	 al, al
  00ef8	e9 01 02 00 00	 jmp	 $LN2@Sell
$LN5@Sell:

; 367  : 
; 368  : 	LPOBJ lpObj = &gObj[aIndex];

  00efd	8b 45 08	 mov	 eax, DWORD PTR _aIndex$[ebp]
  00f00	69 c0 38 2b 00
	00		 imul	 eax, 11064		; 00002b38H
  00f06	03 05 00 00 00
	00		 add	 eax, DWORD PTR ?gObj@@3PAUOBJECTSTRUCT@@A ; gObj
  00f0c	89 45 f8	 mov	 DWORD PTR _lpObj$[ebp], eax

; 369  : 
; 370  : 	//if(lpObj->pInventory[Pos].m_Number != 1 && lpObj->pInventory[Pos].m_Number != 2)
; 371  : 	//{
; 372  : 	//	return;
; 373  : 	//}
; 374  : 
; 375  : 	for(int i=0;i<this->Count;i++)

  00f0f	c7 45 f4 00 00
	00 00		 mov	 DWORD PTR _i$223942[ebp], 0
  00f16	eb 09		 jmp	 SHORT $LN4@Sell
$LN3@Sell:
  00f18	8b 45 f4	 mov	 eax, DWORD PTR _i$223942[ebp]
  00f1b	83 c0 01	 add	 eax, 1
  00f1e	89 45 f4	 mov	 DWORD PTR _i$223942[ebp], eax
$LN4@Sell:
  00f21	8b 45 fc	 mov	 eax, DWORD PTR _this$[ebp]
  00f24	8b 4d f4	 mov	 ecx, DWORD PTR _i$223942[ebp]
  00f27	3b 88 98 af 02
	00		 cmp	 ecx, DWORD PTR [eax+176024]
  00f2d	0f 8d cb 01 00
	00		 jge	 $LN2@Sell

; 376  : 	{
; 377  : 		bool bItems = NormalItem(this->Donate[i].Type,this->Donate[i].Index);

  00f33	8b 45 f4	 mov	 eax, DWORD PTR _i$223942[ebp]
  00f36	6b c0 58	 imul	 eax, 88			; 00000058H
  00f39	8b 4d fc	 mov	 ecx, DWORD PTR _this$[ebp]
  00f3c	8b 54 01 50	 mov	 edx, DWORD PTR [ecx+eax+80]
  00f40	52		 push	 edx
  00f41	8b 45 f4	 mov	 eax, DWORD PTR _i$223942[ebp]
  00f44	6b c0 58	 imul	 eax, 88			; 00000058H
  00f47	8b 4d fc	 mov	 ecx, DWORD PTR _this$[ebp]
  00f4a	8b 54 01 4c	 mov	 edx, DWORD PTR [ecx+eax+76]
  00f4e	52		 push	 edx
  00f4f	e8 00 00 00 00	 call	 ?NormalItem@@YA_NHH@Z	; NormalItem
  00f54	83 c4 08	 add	 esp, 8
  00f57	88 45 f3	 mov	 BYTE PTR _bItems$223946[ebp], al

; 378  : 
; 379  : 		if(
; 380  : 			lpObj->pInventory[Pos].m_Type == ITEMGET(this->Donate[i].Type,this->Donate[i].Index) && 
; 381  : 			lpObj->pInventory[Pos].m_Level == this->Donate[i].Level &&
; 382  : 			lpObj->pInventory[Pos].m_Option2 == this->Donate[i].Luck &&
; 383  : 			lpObj->pInventory[Pos].m_Option3 >= this->Donate[i].Opt &&
; 384  : 			CheckOptions(bItems, lpObj->pInventory[Pos].m_NewOption, this->Donate[i].Exl) &&
; 385  : 			lpObj->pInventory[Pos].m_SetOption == this->Donate[i].Anc
; 386  : 			)

  00f5a	8b 45 0c	 mov	 eax, DWORD PTR _Pos$[ebp]
  00f5d	69 c0 d4 00 00
	00		 imul	 eax, 212		; 000000d4H
  00f63	8b 4d f8	 mov	 ecx, DWORD PTR _lpObj$[ebp]
  00f66	8b 91 24 0e 00
	00		 mov	 edx, DWORD PTR [ecx+3620]
  00f6c	0f bf 44 02 06	 movsx	 eax, WORD PTR [edx+eax+6]
  00f71	8b 4d f4	 mov	 ecx, DWORD PTR _i$223942[ebp]
  00f74	6b c9 58	 imul	 ecx, 88			; 00000058H
  00f77	8b 55 fc	 mov	 edx, DWORD PTR _this$[ebp]
  00f7a	8b 4c 0a 4c	 mov	 ecx, DWORD PTR [edx+ecx+76]
  00f7e	c1 e1 09	 shl	 ecx, 9
  00f81	8b 55 f4	 mov	 edx, DWORD PTR _i$223942[ebp]
  00f84	6b d2 58	 imul	 edx, 88			; 00000058H
  00f87	8b 75 fc	 mov	 esi, DWORD PTR _this$[ebp]
  00f8a	03 4c 16 50	 add	 ecx, DWORD PTR [esi+edx+80]
  00f8e	3b c1		 cmp	 eax, ecx
  00f90	0f 85 63 01 00
	00		 jne	 $LN1@Sell
  00f96	8b 45 0c	 mov	 eax, DWORD PTR _Pos$[ebp]
  00f99	69 c0 d4 00 00
	00		 imul	 eax, 212		; 000000d4H
  00f9f	8b 4d f8	 mov	 ecx, DWORD PTR _lpObj$[ebp]
  00fa2	8b 91 24 0e 00
	00		 mov	 edx, DWORD PTR [ecx+3620]
  00fa8	0f bf 44 02 08	 movsx	 eax, WORD PTR [edx+eax+8]
  00fad	8b 4d f4	 mov	 ecx, DWORD PTR _i$223942[ebp]
  00fb0	6b c9 58	 imul	 ecx, 88			; 00000058H
  00fb3	8b 55 fc	 mov	 edx, DWORD PTR _this$[ebp]
  00fb6	3b 44 0a 54	 cmp	 eax, DWORD PTR [edx+ecx+84]
  00fba	0f 85 39 01 00
	00		 jne	 $LN1@Sell
  00fc0	8b 45 0c	 mov	 eax, DWORD PTR _Pos$[ebp]
  00fc3	69 c0 d4 00 00
	00		 imul	 eax, 212		; 000000d4H
  00fc9	8b 4d f8	 mov	 ecx, DWORD PTR _lpObj$[ebp]
  00fcc	8b 91 24 0e 00
	00		 mov	 edx, DWORD PTR [ecx+3620]
  00fd2	0f b6 84 02 95
	00 00 00	 movzx	 eax, BYTE PTR [edx+eax+149]
  00fda	8b 4d f4	 mov	 ecx, DWORD PTR _i$223942[ebp]
  00fdd	6b c9 58	 imul	 ecx, 88			; 00000058H
  00fe0	8b 55 fc	 mov	 edx, DWORD PTR _this$[ebp]
  00fe3	3b 44 0a 5c	 cmp	 eax, DWORD PTR [edx+ecx+92]
  00fe7	0f 85 0c 01 00
	00		 jne	 $LN1@Sell
  00fed	8b 45 0c	 mov	 eax, DWORD PTR _Pos$[ebp]
  00ff0	69 c0 d4 00 00
	00		 imul	 eax, 212		; 000000d4H
  00ff6	8b 4d f8	 mov	 ecx, DWORD PTR _lpObj$[ebp]
  00ff9	8b 91 24 0e 00
	00		 mov	 edx, DWORD PTR [ecx+3620]
  00fff	0f b6 84 02 96
	00 00 00	 movzx	 eax, BYTE PTR [edx+eax+150]
  01007	8b 4d f4	 mov	 ecx, DWORD PTR _i$223942[ebp]
  0100a	6b c9 58	 imul	 ecx, 88			; 00000058H
  0100d	8b 55 fc	 mov	 edx, DWORD PTR _this$[ebp]
  01010	3b 44 0a 60	 cmp	 eax, DWORD PTR [edx+ecx+96]
  01014	0f 8c df 00 00
	00		 jl	 $LN1@Sell
  0101a	8b 45 f4	 mov	 eax, DWORD PTR _i$223942[ebp]
  0101d	6b c0 58	 imul	 eax, 88			; 00000058H
  01020	8b 4d fc	 mov	 ecx, DWORD PTR _this$[ebp]
  01023	8b 54 01 64	 mov	 edx, DWORD PTR [ecx+eax+100]
  01027	52		 push	 edx
  01028	8b 45 0c	 mov	 eax, DWORD PTR _Pos$[ebp]
  0102b	69 c0 d4 00 00
	00		 imul	 eax, 212		; 000000d4H
  01031	8b 4d f8	 mov	 ecx, DWORD PTR _lpObj$[ebp]
  01034	8b 91 24 0e 00
	00		 mov	 edx, DWORD PTR [ecx+3620]
  0103a	0f b6 84 02 97
	00 00 00	 movzx	 eax, BYTE PTR [edx+eax+151]
  01042	50		 push	 eax
  01043	0f b6 4d f3	 movzx	 ecx, BYTE PTR _bItems$223946[ebp]
  01047	51		 push	 ecx
  01048	e8 00 00 00 00	 call	 ?CheckOptions@@YA_N_NHH@Z ; CheckOptions
  0104d	83 c4 0c	 add	 esp, 12			; 0000000cH
  01050	0f b6 d0	 movzx	 edx, al
  01053	85 d2		 test	 edx, edx
  01055	0f 84 9e 00 00
	00		 je	 $LN1@Sell
  0105b	8b 45 0c	 mov	 eax, DWORD PTR _Pos$[ebp]
  0105e	69 c0 d4 00 00
	00		 imul	 eax, 212		; 000000d4H
  01064	8b 4d f8	 mov	 ecx, DWORD PTR _lpObj$[ebp]
  01067	8b 91 24 0e 00
	00		 mov	 edx, DWORD PTR [ecx+3620]
  0106d	0f b6 84 02 ae
	00 00 00	 movzx	 eax, BYTE PTR [edx+eax+174]
  01075	8b 4d f4	 mov	 ecx, DWORD PTR _i$223942[ebp]
  01078	6b c9 58	 imul	 ecx, 88			; 00000058H
  0107b	8b 55 fc	 mov	 edx, DWORD PTR _this$[ebp]
  0107e	3b 44 0a 68	 cmp	 eax, DWORD PTR [edx+ecx+104]
  01082	75 75		 jne	 SHORT $LN1@Sell

; 387  : 		{
; 388  : 			float NewPrice = this->Donate[i].CrPrice;

  01084	8b 45 f4	 mov	 eax, DWORD PTR _i$223942[ebp]
  01087	6b c0 58	 imul	 eax, 88			; 00000058H
  0108a	8b 4d fc	 mov	 ecx, DWORD PTR _this$[ebp]
  0108d	db 44 01 6c	 fild	 DWORD PTR [ecx+eax+108]
  01091	d9 5d ec	 fstp	 DWORD PTR _NewPrice$223948[ebp]

; 389  : 			float CrSell = NewPrice - ( ( NewPrice * this->SellProcent ) / 100 );

  01094	8b 45 fc	 mov	 eax, DWORD PTR _this$[ebp]
  01097	db 40 04	 fild	 DWORD PTR [eax+4]
  0109a	d8 4d ec	 fmul	 DWORD PTR _NewPrice$223948[ebp]
  0109d	dc 35 00 00 00
	00		 fdiv	 QWORD PTR __real@4059000000000000
  010a3	d8 6d ec	 fsubr	 DWORD PTR _NewPrice$223948[ebp]
  010a6	d9 5d e8	 fstp	 DWORD PTR _CrSell$223949[ebp]

; 390  : 			//if(lpObj->pInventory[Pos].m_SetOption)
; 391  : 			//{
; 392  : 			//	CrSell += 10;
; 393  : 			//}
; 394  : 			lpObj->ExCred += CrSell;

  010a9	8b 45 f8	 mov	 eax, DWORD PTR _lpObj$[ebp]
  010ac	d9 80 a8 22 00
	00		 fld	 DWORD PTR [eax+8872]
  010b2	d8 45 e8	 fadd	 DWORD PTR _CrSell$223949[ebp]
  010b5	8b 4d f8	 mov	 ecx, DWORD PTR _lpObj$[ebp]
  010b8	d9 99 a8 22 00
	00		 fstp	 DWORD PTR [ecx+8872]

; 395  : 			MsgOutput(aIndex,g_ExText.GetText(123),CrSell);

  010be	d9 45 e8	 fld	 DWORD PTR _CrSell$223949[ebp]
  010c1	83 ec 08	 sub	 esp, 8
  010c4	dd 1c 24	 fstp	 QWORD PTR [esp]
  010c7	6a 7b		 push	 123			; 0000007bH
  010c9	b9 00 00 00 00	 mov	 ecx, OFFSET ?g_ExText@@3VCExText@@A ; g_ExText
  010ce	e8 00 00 00 00	 call	 ?GetText@CExText@@QAEPADH@Z ; CExText::GetText
  010d3	50		 push	 eax
  010d4	8b 45 08	 mov	 eax, DWORD PTR _aIndex$[ebp]
  010d7	50		 push	 eax
  010d8	e8 00 00 00 00	 call	 ?MsgOutput@@YAXHPADZZ	; MsgOutput
  010dd	83 c4 10	 add	 esp, 16			; 00000010H

; 396  : #ifndef FIX_DS_CRASH
; 397  : 			GJSetCharacterInfo(lpObj, lpObj->m_Index, 0);
; 398  : #endif
; 399  : 			ExUserDataSend(aIndex);

  010e0	8b 45 08	 mov	 eax, DWORD PTR _aIndex$[ebp]
  010e3	50		 push	 eax
  010e4	e8 00 00 00 00	 call	 ?ExUserDataSend@@YAXH@Z	; ExUserDataSend
  010e9	83 c4 04	 add	 esp, 4

; 400  : 			iAddZen = 0;

  010ec	8b 45 10	 mov	 eax, DWORD PTR _iAddZen$[ebp]
  010ef	c7 00 00 00 00
	00		 mov	 DWORD PTR [eax], 0

; 401  : 			return true;

  010f5	b0 01		 mov	 al, 1
  010f7	eb 05		 jmp	 SHORT $LN2@Sell
$LN1@Sell:

; 402  : 		}
; 403  : 		//else if( lpObj->pInventory[Pos].m_Number == 1 &&
; 404  : 		//	this->Donate[i].Type == -1 && lpObj->pInventory[Pos].m_Type % 512 == this->Donate[i].Index && 
; 405  : 		//	lpObj->pInventory[Pos].m_Level == this->Donate[i].Level &&
; 406  : 		//	CheckOptions(lpObj->pInventory[Pos].m_NewOption, this->Donate[i].Exl))
; 407  : 		//{
; 408  : 		//	float NewPrice = this->Donate[i].CrPrice / SetItemCount(lpObj->pInventory[Pos].m_Type);
; 409  : 		//	float CrSell = NewPrice - ( ( NewPrice * this->SellProcent ) / 100 );
; 410  : 		//	if(lpObj->pInventory[Pos].m_SetOption)
; 411  : 		//	{
; 412  : 		//		CrSell += 10;
; 413  : 		//	}
; 414  : 		//	lpObj->ExCred += CrSell;
; 415  : 		//	MsgOutput(aIndex,"[Credit Donate]: Sell %.2f Credits",CrSell);
; 416  : 
; 417  : 		//	GJSetCharacterInfo(lpObj, lpObj->m_Index, 0);
; 418  : 		//	ExUserDataSend(aIndex);
; 419  : 		//	iAddZen = 0;
; 420  : 		//	return;
; 421  : 		//}
; 422  : 	}

  010f9	e9 1a fe ff ff	 jmp	 $LN3@Sell
$LN2@Sell:

; 423  : }

  010fe	5f		 pop	 edi
  010ff	5e		 pop	 esi
  01100	5b		 pop	 ebx
  01101	8b e5		 mov	 esp, ebp
  01103	5d		 pop	 ebp
  01104	c2 0c 00	 ret	 12			; 0000000cH
?Sell@cCreditDonate@@QAE_NHHAAH@Z ENDP			; cCreditDonate::Sell
_TEXT	ENDS
PUBLIC	??_C@_04PPHKAIAN@monk?$AA@			; `string'
PUBLIC	??_C@_08PJONMIAH@summoner?$AA@			; `string'
PUBLIC	??_C@_04FALOGHGG@lord?$AA@			; `string'
PUBLIC	??_C@_05PBCCBLFE@magic?$AA@			; `string'
PUBLIC	??_C@_03KACJNJLH@elf?$AA@			; `string'
PUBLIC	??_C@_06OGJIKKFI@knight?$AA@			; `string'
PUBLIC	??_C@_06CLLOKCD@wizard?$AA@			; `string'
PUBLIC	?exClass@cCreditDonate@@QAEXHPAD@Z		; cCreditDonate::exClass
EXTRN	?gObjCloseSet@@YAXHH@Z:PROC			; gObjCloseSet
EXTRN	_memset:PROC
EXTRN	?ClearPassiveSkill@CMasterLevelSkillTreeSystem@@QAEXPAUOBJECTSTRUCT@@@Z:PROC ; CMasterLevelSkillTreeSystem::ClearPassiveSkill
EXTRN	?g_MasterSkillSystem@@3VCMasterLevelSkillTreeSystem@@A:BYTE ; g_MasterSkillSystem
EXTRN	?Clear@CMagicInf@@QAEXXZ:PROC			; CMagicInf::Clear
EXTRN	?IsItem@CItem@@QAEHXZ:PROC			; CItem::IsItem
;	COMDAT ??_C@_04PPHKAIAN@monk?$AA@
CONST	SEGMENT
??_C@_04PPHKAIAN@monk?$AA@ DB 'monk', 00H		; `string'
CONST	ENDS
;	COMDAT ??_C@_08PJONMIAH@summoner?$AA@
CONST	SEGMENT
??_C@_08PJONMIAH@summoner?$AA@ DB 'summoner', 00H	; `string'
CONST	ENDS
;	COMDAT ??_C@_04FALOGHGG@lord?$AA@
CONST	SEGMENT
??_C@_04FALOGHGG@lord?$AA@ DB 'lord', 00H		; `string'
CONST	ENDS
;	COMDAT ??_C@_05PBCCBLFE@magic?$AA@
CONST	SEGMENT
??_C@_05PBCCBLFE@magic?$AA@ DB 'magic', 00H		; `string'
CONST	ENDS
;	COMDAT ??_C@_03KACJNJLH@elf?$AA@
CONST	SEGMENT
??_C@_03KACJNJLH@elf?$AA@ DB 'elf', 00H			; `string'
CONST	ENDS
;	COMDAT ??_C@_06OGJIKKFI@knight?$AA@
CONST	SEGMENT
??_C@_06OGJIKKFI@knight?$AA@ DB 'knight', 00H		; `string'
CONST	ENDS
;	COMDAT ??_C@_06CLLOKCD@wizard?$AA@
CONST	SEGMENT
??_C@_06CLLOKCD@wizard?$AA@ DB 'wizard', 00H		; `string'
; Function compile flags: /Odtp /ZI
CONST	ENDS
_TEXT	SEGMENT
_i$223985 = -20						; size = 4
_i$223979 = -16						; size = 4
_NewClass$ = -9						; size = 1
_lpObj$ = -8						; size = 4
_this$ = -4						; size = 4
_aIndex$ = 8						; size = 4
_Message$ = 12						; size = 4
?exClass@cCreditDonate@@QAEXHPAD@Z PROC			; cCreditDonate::exClass
; _this$ = ecx

; 426  : {

  01110	55		 push	 ebp
  01111	8b ec		 mov	 ebp, esp
  01113	83 ec 54	 sub	 esp, 84			; 00000054H
  01116	53		 push	 ebx
  01117	56		 push	 esi
  01118	57		 push	 edi
  01119	89 4d fc	 mov	 DWORD PTR _this$[ebp], ecx

; 427  : 	if(!this->ChangeClass)

  0111c	8b 45 fc	 mov	 eax, DWORD PTR _this$[ebp]
  0111f	0f b6 48 0c	 movzx	 ecx, BYTE PTR [eax+12]
  01123	85 c9		 test	 ecx, ecx
  01125	75 05		 jne	 SHORT $LN23@exClass

; 428  : 	{
; 429  : 		return;

  01127	e9 61 02 00 00	 jmp	 $LN24@exClass
$LN23@exClass:

; 430  : 	}
; 431  : 	LPOBJ lpObj = &gObj[aIndex];

  0112c	8b 45 08	 mov	 eax, DWORD PTR _aIndex$[ebp]
  0112f	69 c0 38 2b 00
	00		 imul	 eax, 11064		; 00002b38H
  01135	03 05 00 00 00
	00		 add	 eax, DWORD PTR ?gObj@@3PAUOBJECTSTRUCT@@A ; gObj
  0113b	89 45 f8	 mov	 DWORD PTR _lpObj$[ebp], eax

; 432  : 
; 433  : 	BYTE NewClass;
; 434  : 
; 435  : 	if(!strcmp(Message,"wizard") && lpObj->Class != CLASS_WIZARD)

  0113e	68 00 00 00 00	 push	 OFFSET ??_C@_06CLLOKCD@wizard?$AA@
  01143	8b 45 0c	 mov	 eax, DWORD PTR _Message$[ebp]
  01146	50		 push	 eax
  01147	e8 00 00 00 00	 call	 _strcmp
  0114c	83 c4 08	 add	 esp, 8
  0114f	85 c0		 test	 eax, eax
  01151	75 17		 jne	 SHORT $LN22@exClass
  01153	8b 45 f8	 mov	 eax, DWORD PTR _lpObj$[ebp]
  01156	0f b7 88 b8 00
	00 00		 movzx	 ecx, WORD PTR [eax+184]
  0115d	85 c9		 test	 ecx, ecx
  0115f	74 09		 je	 SHORT $LN22@exClass

; 436  : 	{
; 437  : 		NewClass = 0;

  01161	c6 45 f7 00	 mov	 BYTE PTR _NewClass$[ebp], 0
  01165	e9 0a 01 00 00	 jmp	 $LN9@exClass
$LN22@exClass:

; 438  : 	}
; 439  : 	else if(!strcmp(Message,"knight") && lpObj->Class != CLASS_KNIGHT)

  0116a	68 00 00 00 00	 push	 OFFSET ??_C@_06OGJIKKFI@knight?$AA@
  0116f	8b 45 0c	 mov	 eax, DWORD PTR _Message$[ebp]
  01172	50		 push	 eax
  01173	e8 00 00 00 00	 call	 _strcmp
  01178	83 c4 08	 add	 esp, 8
  0117b	85 c0		 test	 eax, eax
  0117d	75 18		 jne	 SHORT $LN20@exClass
  0117f	8b 45 f8	 mov	 eax, DWORD PTR _lpObj$[ebp]
  01182	0f b7 88 b8 00
	00 00		 movzx	 ecx, WORD PTR [eax+184]
  01189	83 f9 01	 cmp	 ecx, 1
  0118c	74 09		 je	 SHORT $LN20@exClass

; 440  : 	{
; 441  : 		NewClass = 16;

  0118e	c6 45 f7 10	 mov	 BYTE PTR _NewClass$[ebp], 16 ; 00000010H
  01192	e9 dd 00 00 00	 jmp	 $LN9@exClass
$LN20@exClass:

; 442  : 	}
; 443  : 	else if(!strcmp(Message,"elf") && lpObj->Class != CLASS_ELF)

  01197	68 00 00 00 00	 push	 OFFSET ??_C@_03KACJNJLH@elf?$AA@
  0119c	8b 45 0c	 mov	 eax, DWORD PTR _Message$[ebp]
  0119f	50		 push	 eax
  011a0	e8 00 00 00 00	 call	 _strcmp
  011a5	83 c4 08	 add	 esp, 8
  011a8	85 c0		 test	 eax, eax
  011aa	75 18		 jne	 SHORT $LN18@exClass
  011ac	8b 45 f8	 mov	 eax, DWORD PTR _lpObj$[ebp]
  011af	0f b7 88 b8 00
	00 00		 movzx	 ecx, WORD PTR [eax+184]
  011b6	83 f9 02	 cmp	 ecx, 2
  011b9	74 09		 je	 SHORT $LN18@exClass

; 444  : 	{
; 445  : 		NewClass = 32;

  011bb	c6 45 f7 20	 mov	 BYTE PTR _NewClass$[ebp], 32 ; 00000020H
  011bf	e9 b0 00 00 00	 jmp	 $LN9@exClass
$LN18@exClass:

; 446  : 	}
; 447  : 	else if(!strcmp(Message,"magic") && lpObj->Class != CLASS_MAGUMSA)

  011c4	68 00 00 00 00	 push	 OFFSET ??_C@_05PBCCBLFE@magic?$AA@
  011c9	8b 45 0c	 mov	 eax, DWORD PTR _Message$[ebp]
  011cc	50		 push	 eax
  011cd	e8 00 00 00 00	 call	 _strcmp
  011d2	83 c4 08	 add	 esp, 8
  011d5	85 c0		 test	 eax, eax
  011d7	75 18		 jne	 SHORT $LN16@exClass
  011d9	8b 45 f8	 mov	 eax, DWORD PTR _lpObj$[ebp]
  011dc	0f b7 88 b8 00
	00 00		 movzx	 ecx, WORD PTR [eax+184]
  011e3	83 f9 03	 cmp	 ecx, 3
  011e6	74 09		 je	 SHORT $LN16@exClass

; 448  : 	{
; 449  : 		NewClass = 48;

  011e8	c6 45 f7 30	 mov	 BYTE PTR _NewClass$[ebp], 48 ; 00000030H
  011ec	e9 83 00 00 00	 jmp	 $LN9@exClass
$LN16@exClass:

; 450  : 	}
; 451  : 	else if(!strcmp(Message,"lord") && lpObj->Class != CLASS_DARKLORD)

  011f1	68 00 00 00 00	 push	 OFFSET ??_C@_04FALOGHGG@lord?$AA@
  011f6	8b 45 0c	 mov	 eax, DWORD PTR _Message$[ebp]
  011f9	50		 push	 eax
  011fa	e8 00 00 00 00	 call	 _strcmp
  011ff	83 c4 08	 add	 esp, 8
  01202	85 c0		 test	 eax, eax
  01204	75 15		 jne	 SHORT $LN14@exClass
  01206	8b 45 f8	 mov	 eax, DWORD PTR _lpObj$[ebp]
  01209	0f b7 88 b8 00
	00 00		 movzx	 ecx, WORD PTR [eax+184]
  01210	83 f9 04	 cmp	 ecx, 4
  01213	74 06		 je	 SHORT $LN14@exClass

; 452  : 	{
; 453  : 		NewClass = 64;

  01215	c6 45 f7 40	 mov	 BYTE PTR _NewClass$[ebp], 64 ; 00000040H
  01219	eb 59		 jmp	 SHORT $LN9@exClass
$LN14@exClass:

; 454  : 	}		
; 455  : 	else if(!strcmp(Message,"summoner") && lpObj->Class != CLASS_SUMMONER)

  0121b	68 00 00 00 00	 push	 OFFSET ??_C@_08PJONMIAH@summoner?$AA@
  01220	8b 45 0c	 mov	 eax, DWORD PTR _Message$[ebp]
  01223	50		 push	 eax
  01224	e8 00 00 00 00	 call	 _strcmp
  01229	83 c4 08	 add	 esp, 8
  0122c	85 c0		 test	 eax, eax
  0122e	75 15		 jne	 SHORT $LN12@exClass
  01230	8b 45 f8	 mov	 eax, DWORD PTR _lpObj$[ebp]
  01233	0f b7 88 b8 00
	00 00		 movzx	 ecx, WORD PTR [eax+184]
  0123a	83 f9 05	 cmp	 ecx, 5
  0123d	74 06		 je	 SHORT $LN12@exClass

; 456  : 	{
; 457  : 		NewClass = 80;

  0123f	c6 45 f7 50	 mov	 BYTE PTR _NewClass$[ebp], 80 ; 00000050H
  01243	eb 2f		 jmp	 SHORT $LN9@exClass
$LN12@exClass:

; 458  : 	}
; 459  : 	else if(!strcmp(Message,"monk") && lpObj->Class != CLASS_MONK)

  01245	68 00 00 00 00	 push	 OFFSET ??_C@_04PPHKAIAN@monk?$AA@
  0124a	8b 45 0c	 mov	 eax, DWORD PTR _Message$[ebp]
  0124d	50		 push	 eax
  0124e	e8 00 00 00 00	 call	 _strcmp
  01253	83 c4 08	 add	 esp, 8
  01256	85 c0		 test	 eax, eax
  01258	75 15		 jne	 SHORT $LN10@exClass
  0125a	8b 45 f8	 mov	 eax, DWORD PTR _lpObj$[ebp]
  0125d	0f b7 88 b8 00
	00 00		 movzx	 ecx, WORD PTR [eax+184]
  01264	83 f9 06	 cmp	 ecx, 6
  01267	74 06		 je	 SHORT $LN10@exClass

; 460  : 	{
; 461  : 		NewClass = 96;

  01269	c6 45 f7 60	 mov	 BYTE PTR _NewClass$[ebp], 96 ; 00000060H

; 462  : 	}
; 463  : 	else

  0126d	eb 05		 jmp	 SHORT $LN9@exClass
$LN10@exClass:

; 464  : 	{
; 465  : 		return;

  0126f	e9 19 01 00 00	 jmp	 $LN24@exClass
$LN9@exClass:

; 466  : 	}
; 467  : 
; 468  : 	for ( int i=0;i<INVETORY_WEAR_SIZE;i++)

  01274	c7 45 f0 00 00
	00 00		 mov	 DWORD PTR _i$223979[ebp], 0
  0127b	eb 09		 jmp	 SHORT $LN8@exClass
$LN7@exClass:
  0127d	8b 45 f0	 mov	 eax, DWORD PTR _i$223979[ebp]
  01280	83 c0 01	 add	 eax, 1
  01283	89 45 f0	 mov	 DWORD PTR _i$223979[ebp], eax
$LN8@exClass:
  01286	83 7d f0 0c	 cmp	 DWORD PTR _i$223979[ebp], 12 ; 0000000cH
  0128a	7d 3b		 jge	 SHORT $LN6@exClass

; 469  : 	{
; 470  : 		if ( lpObj->pInventory[i].IsItem() )

  0128c	8b 4d f0	 mov	 ecx, DWORD PTR _i$223979[ebp]
  0128f	69 c9 d4 00 00
	00		 imul	 ecx, 212		; 000000d4H
  01295	8b 45 f8	 mov	 eax, DWORD PTR _lpObj$[ebp]
  01298	03 88 24 0e 00
	00		 add	 ecx, DWORD PTR [eax+3620]
  0129e	e8 00 00 00 00	 call	 ?IsItem@CItem@@QAEHXZ	; CItem::IsItem
  012a3	85 c0		 test	 eax, eax
  012a5	74 1e		 je	 SHORT $LN5@exClass

; 471  : 		{
; 472  : 			MsgOutput(aIndex,g_ExText.GetText(124));

  012a7	6a 7c		 push	 124			; 0000007cH
  012a9	b9 00 00 00 00	 mov	 ecx, OFFSET ?g_ExText@@3VCExText@@A ; g_ExText
  012ae	e8 00 00 00 00	 call	 ?GetText@CExText@@QAEPADH@Z ; CExText::GetText
  012b3	50		 push	 eax
  012b4	8b 45 08	 mov	 eax, DWORD PTR _aIndex$[ebp]
  012b7	50		 push	 eax
  012b8	e8 00 00 00 00	 call	 ?MsgOutput@@YAXHPADZZ	; MsgOutput
  012bd	83 c4 08	 add	 esp, 8

; 473  : 			return;

  012c0	e9 c8 00 00 00	 jmp	 $LN24@exClass
$LN5@exClass:

; 474  : 		}
; 475  : 	}

  012c5	eb b6		 jmp	 SHORT $LN7@exClass
$LN6@exClass:

; 476  : 
; 477  : 	if(this->ChangeCredit > lpObj->ExCred)

  012c7	8b 45 fc	 mov	 eax, DWORD PTR _this$[ebp]
  012ca	db 40 10	 fild	 DWORD PTR [eax+16]
  012cd	8b 4d f8	 mov	 ecx, DWORD PTR _lpObj$[ebp]
  012d0	d9 81 a8 22 00
	00		 fld	 DWORD PTR [ecx+8872]
  012d6	de d9		 fcompp
  012d8	df e0		 fnstsw	 ax
  012da	f6 c4 05	 test	 ah, 5
  012dd	7a 25		 jp	 SHORT $LN4@exClass

; 478  : 	{
; 479  : 		MsgOutput(aIndex,g_ExText.GetText(125),this->ChangeCredit);

  012df	8b 45 fc	 mov	 eax, DWORD PTR _this$[ebp]
  012e2	8b 48 10	 mov	 ecx, DWORD PTR [eax+16]
  012e5	51		 push	 ecx
  012e6	6a 7d		 push	 125			; 0000007dH
  012e8	b9 00 00 00 00	 mov	 ecx, OFFSET ?g_ExText@@3VCExText@@A ; g_ExText
  012ed	e8 00 00 00 00	 call	 ?GetText@CExText@@QAEPADH@Z ; CExText::GetText
  012f2	50		 push	 eax
  012f3	8b 55 08	 mov	 edx, DWORD PTR _aIndex$[ebp]
  012f6	52		 push	 edx
  012f7	e8 00 00 00 00	 call	 ?MsgOutput@@YAXHPADZZ	; MsgOutput
  012fc	83 c4 0c	 add	 esp, 12			; 0000000cH

; 480  : 		return;

  012ff	e9 89 00 00 00	 jmp	 $LN24@exClass
$LN4@exClass:

; 481  : 	}
; 482  : 
; 483  : 	lpObj->ExCred -= this->ChangeCredit;

  01304	8b 45 fc	 mov	 eax, DWORD PTR _this$[ebp]
  01307	db 40 10	 fild	 DWORD PTR [eax+16]
  0130a	8b 4d f8	 mov	 ecx, DWORD PTR _lpObj$[ebp]
  0130d	d8 a9 a8 22 00
	00		 fsubr	 DWORD PTR [ecx+8872]
  01313	8b 55 f8	 mov	 edx, DWORD PTR _lpObj$[ebp]
  01316	d9 9a a8 22 00
	00		 fstp	 DWORD PTR [edx+8872]

; 484  : 
; 485  : 	lpObj->DbClass = NewClass;

  0131c	8b 45 f8	 mov	 eax, DWORD PTR _lpObj$[ebp]
  0131f	8a 4d f7	 mov	 cl, BYTE PTR _NewClass$[ebp]
  01322	88 88 ba 00 00
	00		 mov	 BYTE PTR [eax+186], cl

; 486  : 
; 487  : 	for (int i=0;i<MAX_MAGIC ; i++)

  01328	c7 45 ec 00 00
	00 00		 mov	 DWORD PTR _i$223985[ebp], 0
  0132f	eb 09		 jmp	 SHORT $LN3@exClass
$LN2@exClass:
  01331	8b 45 ec	 mov	 eax, DWORD PTR _i$223985[ebp]
  01334	83 c0 01	 add	 eax, 1
  01337	89 45 ec	 mov	 DWORD PTR _i$223985[ebp], eax
$LN3@exClass:
  0133a	81 7d ec 96 00
	00 00		 cmp	 DWORD PTR _i$223985[ebp], 150 ; 00000096H
  01341	7d 16		 jge	 SHORT $LN1@exClass

; 488  : 	{
; 489  : 		lpObj->Magic[i].Clear(); //Changed

  01343	8b 4d ec	 mov	 ecx, DWORD PTR _i$223985[ebp]
  01346	6b c9 18	 imul	 ecx, 24			; 00000018H
  01349	8b 45 f8	 mov	 eax, DWORD PTR _lpObj$[ebp]
  0134c	03 88 c8 04 00
	00		 add	 ecx, DWORD PTR [eax+1224]
  01352	e8 00 00 00 00	 call	 ?Clear@CMagicInf@@QAEXXZ ; CMagicInf::Clear

; 490  : 	}

  01357	eb d8		 jmp	 SHORT $LN2@exClass
$LN1@exClass:

; 491  : 
; 492  : 	g_MasterSkillSystem.ClearPassiveSkill(lpObj);

  01359	8b 45 f8	 mov	 eax, DWORD PTR _lpObj$[ebp]
  0135c	50		 push	 eax
  0135d	b9 00 00 00 00	 mov	 ecx, OFFSET ?g_MasterSkillSystem@@3VCMasterLevelSkillTreeSystem@@A ; g_MasterSkillSystem
  01362	e8 00 00 00 00	 call	 ?ClearPassiveSkill@CMasterLevelSkillTreeSystem@@QAEXPAUOBJECTSTRUCT@@@Z ; CMasterLevelSkillTreeSystem::ClearPassiveSkill

; 493  : 	memset(lpObj->m_Quest, 0xFF, sizeof(lpObj->m_Quest));

  01367	6a 32		 push	 50			; 00000032H
  01369	68 ff 00 00 00	 push	 255			; 000000ffH
  0136e	8b 45 f8	 mov	 eax, DWORD PTR _lpObj$[ebp]
  01371	05 8c 10 00 00	 add	 eax, 4236		; 0000108cH
  01376	50		 push	 eax
  01377	e8 00 00 00 00	 call	 _memset
  0137c	83 c4 0c	 add	 esp, 12			; 0000000cH

; 494  : 	gObjCloseSet(aIndex, 1);

  0137f	6a 01		 push	 1
  01381	8b 45 08	 mov	 eax, DWORD PTR _aIndex$[ebp]
  01384	50		 push	 eax
  01385	e8 00 00 00 00	 call	 ?gObjCloseSet@@YAXHH@Z	; gObjCloseSet
  0138a	83 c4 08	 add	 esp, 8
$LN24@exClass:

; 495  : 
; 496  : 
; 497  : }

  0138d	5f		 pop	 edi
  0138e	5e		 pop	 esi
  0138f	5b		 pop	 ebx
  01390	8b e5		 mov	 esp, ebp
  01392	5d		 pop	 ebp
  01393	c2 08 00	 ret	 8
?exClass@cCreditDonate@@QAEXHPAD@Z ENDP			; cCreditDonate::exClass
_TEXT	ENDS
PUBLIC	?set@PBMSG_HEAD2@@QAEXPAEEEE@Z			; PBMSG_HEAD2::set
PUBLIC	__$ArrayPad$
PUBLIC	?GCChangeClassConfig@cCreditDonate@@QAEXH@Z	; cCreditDonate::GCChangeClassConfig
EXTRN	?DataSend@@YAHHPAEK@Z:PROC			; DataSend
; Function compile flags: /Odtp /ZI
_TEXT	SEGMENT
tv130 = -92						; size = 4
_pMsg$ = -24						; size = 12
_lpUser$ = -12						; size = 4
_this$ = -8						; size = 4
__$ArrayPad$ = -4					; size = 4
_aIndex$ = 8						; size = 4
?GCChangeClassConfig@cCreditDonate@@QAEXH@Z PROC	; cCreditDonate::GCChangeClassConfig
; _this$ = ecx

; 500  : {

  013a0	55		 push	 ebp
  013a1	8b ec		 mov	 ebp, esp
  013a3	83 ec 5c	 sub	 esp, 92			; 0000005cH
  013a6	a1 00 00 00 00	 mov	 eax, DWORD PTR ___security_cookie
  013ab	33 c5		 xor	 eax, ebp
  013ad	89 45 fc	 mov	 DWORD PTR __$ArrayPad$[ebp], eax
  013b0	53		 push	 ebx
  013b1	56		 push	 esi
  013b2	57		 push	 edi
  013b3	89 4d f8	 mov	 DWORD PTR _this$[ebp], ecx

; 501  : 	if( !g_ExLicense.CheckUser(eExUB::Local) && 
; 502  : 		!g_ExLicense.CheckUser(eExUB::Gredy) &&
; 503  : 		!g_ExLicense.CheckUser(eExUB::Gredy2) && 
; 504  : 		!g_ExLicense.CheckUser(eExUB::GredyLocal) &&
; 505  : 		!g_ExLicense.CheckUser(eExUB::EpicMU) &&
; 506  : 		!g_ExLicense.CheckUser(eExUB::MedoniAndrei) &&
; 507  : 		!THINNAKORN_MAC)

  013b6	6a 00		 push	 0
  013b8	b9 00 00 00 00	 mov	 ecx, OFFSET ?g_ExLicense@@3VCExLicense@@A ; g_ExLicense
  013bd	e8 00 00 00 00	 call	 ?CheckUser@CExLicense@@QAE_NH@Z ; CExLicense::CheckUser
  013c2	0f b6 c0	 movzx	 eax, al
  013c5	85 c0		 test	 eax, eax
  013c7	75 6a		 jne	 SHORT $LN2@GCChangeCl
  013c9	6a 20		 push	 32			; 00000020H
  013cb	b9 00 00 00 00	 mov	 ecx, OFFSET ?g_ExLicense@@3VCExLicense@@A ; g_ExLicense
  013d0	e8 00 00 00 00	 call	 ?CheckUser@CExLicense@@QAE_NH@Z ; CExLicense::CheckUser
  013d5	0f b6 c0	 movzx	 eax, al
  013d8	85 c0		 test	 eax, eax
  013da	75 57		 jne	 SHORT $LN2@GCChangeCl
  013dc	6a 22		 push	 34			; 00000022H
  013de	b9 00 00 00 00	 mov	 ecx, OFFSET ?g_ExLicense@@3VCExLicense@@A ; g_ExLicense
  013e3	e8 00 00 00 00	 call	 ?CheckUser@CExLicense@@QAE_NH@Z ; CExLicense::CheckUser
  013e8	0f b6 c0	 movzx	 eax, al
  013eb	85 c0		 test	 eax, eax
  013ed	75 44		 jne	 SHORT $LN2@GCChangeCl
  013ef	6a 21		 push	 33			; 00000021H
  013f1	b9 00 00 00 00	 mov	 ecx, OFFSET ?g_ExLicense@@3VCExLicense@@A ; g_ExLicense
  013f6	e8 00 00 00 00	 call	 ?CheckUser@CExLicense@@QAE_NH@Z ; CExLicense::CheckUser
  013fb	0f b6 c0	 movzx	 eax, al
  013fe	85 c0		 test	 eax, eax
  01400	75 31		 jne	 SHORT $LN2@GCChangeCl
  01402	6a 3b		 push	 59			; 0000003bH
  01404	b9 00 00 00 00	 mov	 ecx, OFFSET ?g_ExLicense@@3VCExLicense@@A ; g_ExLicense
  01409	e8 00 00 00 00	 call	 ?CheckUser@CExLicense@@QAE_NH@Z ; CExLicense::CheckUser
  0140e	0f b6 c0	 movzx	 eax, al
  01411	85 c0		 test	 eax, eax
  01413	75 1e		 jne	 SHORT $LN2@GCChangeCl
  01415	6a 32		 push	 50			; 00000032H
  01417	b9 00 00 00 00	 mov	 ecx, OFFSET ?g_ExLicense@@3VCExLicense@@A ; g_ExLicense
  0141c	e8 00 00 00 00	 call	 ?CheckUser@CExLicense@@QAE_NH@Z ; CExLicense::CheckUser
  01421	0f b6 c0	 movzx	 eax, al
  01424	85 c0		 test	 eax, eax
  01426	75 0b		 jne	 SHORT $LN2@GCChangeCl
  01428	b8 01 00 00 00	 mov	 eax, 1
  0142d	85 c0		 test	 eax, eax
  0142f	74 02		 je	 SHORT $LN2@GCChangeCl

; 508  : 	{
; 509  : 		return;

  01431	eb 71		 jmp	 SHORT $LN3@GCChangeCl
$LN2@GCChangeCl:

; 510  : 	}
; 511  : 
; 512  : 	if(OBJMAX_RANGE(aIndex) == 0)

  01433	83 7d 08 00	 cmp	 DWORD PTR _aIndex$[ebp], 0
  01437	7d 09		 jge	 SHORT $LN5@GCChangeCl
  01439	c7 45 a4 00 00
	00 00		 mov	 DWORD PTR tv130[ebp], 0
  01440	eb 0f		 jmp	 SHORT $LN6@GCChangeCl
$LN5@GCChangeCl:
  01442	33 c0		 xor	 eax, eax
  01444	81 7d 08 97 3a
	00 00		 cmp	 DWORD PTR _aIndex$[ebp], 14999 ; 00003a97H
  0144b	0f 9e c0	 setle	 al
  0144e	89 45 a4	 mov	 DWORD PTR tv130[ebp], eax
$LN6@GCChangeCl:
  01451	83 7d a4 00	 cmp	 DWORD PTR tv130[ebp], 0
  01455	75 02		 jne	 SHORT $LN1@GCChangeCl

; 513  : 	{
; 514  : 		return;

  01457	eb 4b		 jmp	 SHORT $LN3@GCChangeCl
$LN1@GCChangeCl:

; 515  : 	}
; 516  : 
; 517  : 	LPOBJ lpUser = &gObj[aIndex];

  01459	8b 45 08	 mov	 eax, DWORD PTR _aIndex$[ebp]
  0145c	69 c0 38 2b 00
	00		 imul	 eax, 11064		; 00002b38H
  01462	03 05 00 00 00
	00		 add	 eax, DWORD PTR ?gObj@@3PAUOBJECTSTRUCT@@A ; gObj
  01468	89 45 f4	 mov	 DWORD PTR _lpUser$[ebp], eax

; 518  : 
; 519  : 	PMSG_GC_CHANGECLASS_CONFIG pMsg;
; 520  : 	pMsg.h.set((LPBYTE)&pMsg, 0xFB, 0x40, sizeof(pMsg));

  0146b	6a 0c		 push	 12			; 0000000cH
  0146d	6a 40		 push	 64			; 00000040H
  0146f	68 fb 00 00 00	 push	 251			; 000000fbH
  01474	8d 45 e8	 lea	 eax, DWORD PTR _pMsg$[ebp]
  01477	50		 push	 eax
  01478	8d 4d e8	 lea	 ecx, DWORD PTR _pMsg$[ebp]
  0147b	e8 00 00 00 00	 call	 ?set@PBMSG_HEAD2@@QAEXPAEEEE@Z ; PBMSG_HEAD2::set

; 521  : 	pMsg.iChangeClassWcoinPrice = this->ChangeWCoin;

  01480	8b 45 f8	 mov	 eax, DWORD PTR _this$[ebp]
  01483	8b 48 14	 mov	 ecx, DWORD PTR [eax+20]
  01486	89 4d ec	 mov	 DWORD PTR _pMsg$[ebp+4], ecx

; 522  : 	pMsg.iChangeClassCreditPrice = this->ChangeCredit;

  01489	8b 45 f8	 mov	 eax, DWORD PTR _this$[ebp]
  0148c	8b 48 10	 mov	 ecx, DWORD PTR [eax+16]
  0148f	89 4d f0	 mov	 DWORD PTR _pMsg$[ebp+8], ecx

; 523  : 	DataSend(aIndex, (LPBYTE)&pMsg, sizeof(pMsg));

  01492	6a 0c		 push	 12			; 0000000cH
  01494	8d 45 e8	 lea	 eax, DWORD PTR _pMsg$[ebp]
  01497	50		 push	 eax
  01498	8b 4d 08	 mov	 ecx, DWORD PTR _aIndex$[ebp]
  0149b	51		 push	 ecx
  0149c	e8 00 00 00 00	 call	 ?DataSend@@YAHHPAEK@Z	; DataSend
  014a1	83 c4 0c	 add	 esp, 12			; 0000000cH
$LN3@GCChangeCl:

; 524  : }

  014a4	5f		 pop	 edi
  014a5	5e		 pop	 esi
  014a6	5b		 pop	 ebx
  014a7	8b 4d fc	 mov	 ecx, DWORD PTR __$ArrayPad$[ebp]
  014aa	33 cd		 xor	 ecx, ebp
  014ac	e8 00 00 00 00	 call	 @__security_check_cookie@4
  014b1	8b e5		 mov	 esp, ebp
  014b3	5d		 pop	 ebp
  014b4	c2 04 00	 ret	 4
?GCChangeClassConfig@cCreditDonate@@QAEXH@Z ENDP	; cCreditDonate::GCChangeClassConfig
; Function compile flags: /Odtp /ZI
; File d:\projects\exteam6.3\source\gameserver\include\prodef.h
_TEXT	ENDS
;	COMDAT ?set@PBMSG_HEAD2@@QAEXPAEEEE@Z
_TEXT	SEGMENT
_this$ = -4						; size = 4
_lpBuf$ = 8						; size = 4
_head$ = 12						; size = 1
_sub$ = 16						; size = 1
_size$ = 20						; size = 1
?set@PBMSG_HEAD2@@QAEXPAEEEE@Z PROC			; PBMSG_HEAD2::set, COMDAT
; _this$ = ecx

; 104  : 	{

  00000	55		 push	 ebp
  00001	8b ec		 mov	 ebp, esp
  00003	83 ec 44	 sub	 esp, 68			; 00000044H
  00006	53		 push	 ebx
  00007	56		 push	 esi
  00008	57		 push	 edi
  00009	89 4d fc	 mov	 DWORD PTR _this$[ebp], ecx

; 105  : 		lpBuf[0] = 0xC1;

  0000c	8b 45 08	 mov	 eax, DWORD PTR _lpBuf$[ebp]
  0000f	c6 00 c1	 mov	 BYTE PTR [eax], 193	; 000000c1H

; 106  : 		lpBuf[1] = size;

  00012	8b 45 08	 mov	 eax, DWORD PTR _lpBuf$[ebp]
  00015	8a 4d 14	 mov	 cl, BYTE PTR _size$[ebp]
  00018	88 48 01	 mov	 BYTE PTR [eax+1], cl

; 107  : 		lpBuf[2] = head;

  0001b	8b 45 08	 mov	 eax, DWORD PTR _lpBuf$[ebp]
  0001e	8a 4d 0c	 mov	 cl, BYTE PTR _head$[ebp]
  00021	88 48 02	 mov	 BYTE PTR [eax+2], cl

; 108  : 		lpBuf[3] = sub;

  00024	8b 45 08	 mov	 eax, DWORD PTR _lpBuf$[ebp]
  00027	8a 4d 10	 mov	 cl, BYTE PTR _sub$[ebp]
  0002a	88 48 03	 mov	 BYTE PTR [eax+3], cl

; 109  : 	};

  0002d	5f		 pop	 edi
  0002e	5e		 pop	 esi
  0002f	5b		 pop	 ebx
  00030	8b e5		 mov	 esp, ebp
  00032	5d		 pop	 ebp
  00033	c2 10 00	 ret	 16			; 00000010H
?set@PBMSG_HEAD2@@QAEXPAEEEE@Z ENDP			; PBMSG_HEAD2::set
_TEXT	ENDS
PUBLIC	??_C@_0BO@MHAIPFF@?$FLChange?5Class?$FN?3?5Need?5?$CFd?5WCoin?$AA@ ; `string'
PUBLIC	??_C@_0BP@LBHMNDCK@?$FLChange?5Class?$FN?3?5Need?5?$CFd?5Credit?$AA@ ; `string'
PUBLIC	??_C@_0CJ@LADKEPDC@?$FLChange?5Class?$FN?3?5You?5need?5Empty?5I@ ; `string'
PUBLIC	??_C@_0BL@KFFEMCK@?$FLChange?5Class?$FN?3?5class?5busy?$AA@ ; `string'
PUBLIC	?CGChangeClass@cCreditDonate@@QAEXPAUPMSG_CG_CHANGECLASS@@H@Z ; cCreditDonate::CGChangeClass
EXTRN	?gGrandReset@@3VcGrandReset@@A:BYTE		; gGrandReset
EXTRN	?gResetSystem@@3VcResetSystem@@A:BYTE		; gResetSystem
;	COMDAT ??_C@_0BO@MHAIPFF@?$FLChange?5Class?$FN?3?5Need?5?$CFd?5WCoin?$AA@
; File d:\projects\exteam6.3\source\gameserver\gameserver\creditdonate.cpp
CONST	SEGMENT
??_C@_0BO@MHAIPFF@?$FLChange?5Class?$FN?3?5Need?5?$CFd?5WCoin?$AA@ DB '[C'
	DB	'hange Class]: Need %d WCoin', 00H		; `string'
CONST	ENDS
;	COMDAT ??_C@_0BP@LBHMNDCK@?$FLChange?5Class?$FN?3?5Need?5?$CFd?5Credit?$AA@
CONST	SEGMENT
??_C@_0BP@LBHMNDCK@?$FLChange?5Class?$FN?3?5Need?5?$CFd?5Credit?$AA@ DB '['
	DB	'Change Class]: Need %d Credit', 00H		; `string'
CONST	ENDS
;	COMDAT ??_C@_0CJ@LADKEPDC@?$FLChange?5Class?$FN?3?5You?5need?5Empty?5I@
CONST	SEGMENT
??_C@_0CJ@LADKEPDC@?$FLChange?5Class?$FN?3?5You?5need?5Empty?5I@ DB '[Cha'
	DB	'nge Class]: You need Empty Inventory', 00H	; `string'
CONST	ENDS
;	COMDAT ??_C@_0BL@KFFEMCK@?$FLChange?5Class?$FN?3?5class?5busy?$AA@
CONST	SEGMENT
??_C@_0BL@KFFEMCK@?$FLChange?5Class?$FN?3?5class?5busy?$AA@ DB '[Change C'
	DB	'lass]: class busy', 00H			; `string'
; Function compile flags: /Odtp /ZI
CONST	ENDS
_TEXT	SEGMENT
tv412 = -88						; size = 4
tv372 = -88						; size = 4
tv321 = -88						; size = 4
tv130 = -88						; size = 4
_i$224042 = -20						; size = 4
_i$224025 = -16						; size = 4
_btPriceType$ = -10					; size = 1
_NewClass$ = -9						; size = 1
_lpUser$ = -8						; size = 4
_this$ = -4						; size = 4
_aRecv$ = 8						; size = 4
_aIndex$ = 12						; size = 4
?CGChangeClass@cCreditDonate@@QAEXPAUPMSG_CG_CHANGECLASS@@H@Z PROC ; cCreditDonate::CGChangeClass
; _this$ = ecx

; 527  : {

  014c0	55		 push	 ebp
  014c1	8b ec		 mov	 ebp, esp
  014c3	83 ec 58	 sub	 esp, 88			; 00000058H
  014c6	53		 push	 ebx
  014c7	56		 push	 esi
  014c8	57		 push	 edi
  014c9	89 4d fc	 mov	 DWORD PTR _this$[ebp], ecx

; 528  : 	if( !g_ExLicense.CheckUser(eExUB::Local) && 
; 529  : 		!g_ExLicense.CheckUser(eExUB::Gredy) &&
; 530  : 		!g_ExLicense.CheckUser(eExUB::Gredy2) && 
; 531  : 		!g_ExLicense.CheckUser(eExUB::GredyLocal) &&
; 532  : 		!g_ExLicense.CheckUser(eExUB::EpicMU) &&
; 533  : 		!g_ExLicense.CheckUser(eExUB::MedoniAndrei) &&
; 534  : 		!THINNAKORN_MAC)

  014cc	6a 00		 push	 0
  014ce	b9 00 00 00 00	 mov	 ecx, OFFSET ?g_ExLicense@@3VCExLicense@@A ; g_ExLicense
  014d3	e8 00 00 00 00	 call	 ?CheckUser@CExLicense@@QAE_NH@Z ; CExLicense::CheckUser
  014d8	0f b6 c0	 movzx	 eax, al
  014db	85 c0		 test	 eax, eax
  014dd	75 6d		 jne	 SHORT $LN76@CGChangeCl@2
  014df	6a 20		 push	 32			; 00000020H
  014e1	b9 00 00 00 00	 mov	 ecx, OFFSET ?g_ExLicense@@3VCExLicense@@A ; g_ExLicense
  014e6	e8 00 00 00 00	 call	 ?CheckUser@CExLicense@@QAE_NH@Z ; CExLicense::CheckUser
  014eb	0f b6 c0	 movzx	 eax, al
  014ee	85 c0		 test	 eax, eax
  014f0	75 5a		 jne	 SHORT $LN76@CGChangeCl@2
  014f2	6a 22		 push	 34			; 00000022H
  014f4	b9 00 00 00 00	 mov	 ecx, OFFSET ?g_ExLicense@@3VCExLicense@@A ; g_ExLicense
  014f9	e8 00 00 00 00	 call	 ?CheckUser@CExLicense@@QAE_NH@Z ; CExLicense::CheckUser
  014fe	0f b6 c0	 movzx	 eax, al
  01501	85 c0		 test	 eax, eax
  01503	75 47		 jne	 SHORT $LN76@CGChangeCl@2
  01505	6a 21		 push	 33			; 00000021H
  01507	b9 00 00 00 00	 mov	 ecx, OFFSET ?g_ExLicense@@3VCExLicense@@A ; g_ExLicense
  0150c	e8 00 00 00 00	 call	 ?CheckUser@CExLicense@@QAE_NH@Z ; CExLicense::CheckUser
  01511	0f b6 c0	 movzx	 eax, al
  01514	85 c0		 test	 eax, eax
  01516	75 34		 jne	 SHORT $LN76@CGChangeCl@2
  01518	6a 3b		 push	 59			; 0000003bH
  0151a	b9 00 00 00 00	 mov	 ecx, OFFSET ?g_ExLicense@@3VCExLicense@@A ; g_ExLicense
  0151f	e8 00 00 00 00	 call	 ?CheckUser@CExLicense@@QAE_NH@Z ; CExLicense::CheckUser
  01524	0f b6 c0	 movzx	 eax, al
  01527	85 c0		 test	 eax, eax
  01529	75 21		 jne	 SHORT $LN76@CGChangeCl@2
  0152b	6a 32		 push	 50			; 00000032H
  0152d	b9 00 00 00 00	 mov	 ecx, OFFSET ?g_ExLicense@@3VCExLicense@@A ; g_ExLicense
  01532	e8 00 00 00 00	 call	 ?CheckUser@CExLicense@@QAE_NH@Z ; CExLicense::CheckUser
  01537	0f b6 c0	 movzx	 eax, al
  0153a	85 c0		 test	 eax, eax
  0153c	75 0e		 jne	 SHORT $LN76@CGChangeCl@2
  0153e	b8 01 00 00 00	 mov	 eax, 1
  01543	85 c0		 test	 eax, eax
  01545	74 05		 je	 SHORT $LN76@CGChangeCl@2

; 535  : 	{
; 536  : 		return;

  01547	e9 d8 08 00 00	 jmp	 $LN77@CGChangeCl@2
$LN76@CGChangeCl@2:

; 537  : 	}
; 538  : 
; 539  : 	if(OBJMAX_RANGE(aIndex) == 0)

  0154c	83 7d 0c 00	 cmp	 DWORD PTR _aIndex$[ebp], 0
  01550	7d 09		 jge	 SHORT $LN79@CGChangeCl@2
  01552	c7 45 a8 00 00
	00 00		 mov	 DWORD PTR tv130[ebp], 0
  01559	eb 0f		 jmp	 SHORT $LN80@CGChangeCl@2
$LN79@CGChangeCl@2:
  0155b	33 c0		 xor	 eax, eax
  0155d	81 7d 0c 97 3a
	00 00		 cmp	 DWORD PTR _aIndex$[ebp], 14999 ; 00003a97H
  01564	0f 9e c0	 setle	 al
  01567	89 45 a8	 mov	 DWORD PTR tv130[ebp], eax
$LN80@CGChangeCl@2:
  0156a	83 7d a8 00	 cmp	 DWORD PTR tv130[ebp], 0
  0156e	75 05		 jne	 SHORT $LN75@CGChangeCl@2

; 540  : 	{
; 541  : 		return;

  01570	e9 af 08 00 00	 jmp	 $LN77@CGChangeCl@2
$LN75@CGChangeCl@2:

; 542  : 	}
; 543  : 
; 544  : 	LPOBJ lpUser = &gObj[aIndex];

  01575	8b 45 0c	 mov	 eax, DWORD PTR _aIndex$[ebp]
  01578	69 c0 38 2b 00
	00		 imul	 eax, 11064		; 00002b38H
  0157e	03 05 00 00 00
	00		 add	 eax, DWORD PTR ?gObj@@3PAUOBJECTSTRUCT@@A ; gObj
  01584	89 45 f8	 mov	 DWORD PTR _lpUser$[ebp], eax

; 545  : 
; 546  : 	if(lpUser->Connected < PLAYER_PLAYING)

  01587	8b 45 f8	 mov	 eax, DWORD PTR _lpUser$[ebp]
  0158a	83 78 04 03	 cmp	 DWORD PTR [eax+4], 3
  0158e	7d 05		 jge	 SHORT $LN74@CGChangeCl@2

; 547  : 	{
; 548  : 		return;

  01590	e9 8f 08 00 00	 jmp	 $LN77@CGChangeCl@2
$LN74@CGChangeCl@2:

; 549  : 	}
; 550  : 	/*
; 551  : 	if(g_ExLicense.CheckUser(eExUB::Gredy) || g_ExLicense.CheckUser(eExUB::Gredy2) || g_ExLicense.CheckUser(eExUB::GredyLocal))	
; 552  : 	{
; 553  : 		SYSTEMTIME systime;
; 554  : 		GetLocalTime(&systime);
; 555  : 
; 556  : 		if(this->m_StartDayChange >= systime.wDayOfWeek && systime.wDayOfWeek <= this->m_EndDayChange )
; 557  : 		{
; 558  : 			if(this->m_MinResetChange > lpUser->Reset)
; 559  : 			{
; 560  : 				MsgOutput(aIndex, "[Change Class]: Min Reset %d", this->m_MinResetChange);
; 561  : 				return;
; 562  : 			}
; 563  : 
; 564  : 			if(this->m_MinGrandChange > lpUser->GReset)
; 565  : 			{
; 566  : 				MsgOutput(aIndex, "[Change Class]: Min Grand %d", this->m_MinResetChange);
; 567  : 				return;
; 568  : 			}
; 569  : 		}
; 570  : 		else
; 571  : 		{
; 572  : 			MsgOutput(aIndex, "[Change Class]: Day Of Week %d - %d", this->m_StartDayChange, this->m_EndDayChange);
; 573  : 			return;
; 574  : 		}
; 575  : 	}
; 576  : 	*/
; 577  : 	BYTE NewClass = aRecv->iNewClass;

  01595	8b 45 08	 mov	 eax, DWORD PTR _aRecv$[ebp]
  01598	8a 48 04	 mov	 cl, BYTE PTR [eax+4]
  0159b	88 4d f7	 mov	 BYTE PTR _NewClass$[ebp], cl

; 578  : 	BYTE btPriceType = aRecv->PriceType;

  0159e	8b 45 08	 mov	 eax, DWORD PTR _aRecv$[ebp]
  015a1	8a 48 05	 mov	 cl, BYTE PTR [eax+5]
  015a4	88 4d f6	 mov	 BYTE PTR _btPriceType$[ebp], cl

; 579  : 
; 580  : 	if(NewClass == CLASS_WIZARD && lpUser->Class != CLASS_WIZARD)

  015a7	0f b6 45 f7	 movzx	 eax, BYTE PTR _NewClass$[ebp]
  015ab	85 c0		 test	 eax, eax
  015ad	75 17		 jne	 SHORT $LN73@CGChangeCl@2
  015af	8b 45 f8	 mov	 eax, DWORD PTR _lpUser$[ebp]
  015b2	0f b7 88 b8 00
	00 00		 movzx	 ecx, WORD PTR [eax+184]
  015b9	85 c9		 test	 ecx, ecx
  015bb	74 09		 je	 SHORT $LN73@CGChangeCl@2

; 581  : 	{
; 582  : 		NewClass = 0;

  015bd	c6 45 f7 00	 mov	 BYTE PTR _NewClass$[ebp], 0
  015c1	e9 d0 00 00 00	 jmp	 $LN60@CGChangeCl@2
$LN73@CGChangeCl@2:

; 583  : 	}
; 584  : 	else if(NewClass == CLASS_KNIGHT && lpUser->Class != CLASS_KNIGHT)

  015c6	0f b6 45 f7	 movzx	 eax, BYTE PTR _NewClass$[ebp]
  015ca	83 f8 01	 cmp	 eax, 1
  015cd	75 18		 jne	 SHORT $LN71@CGChangeCl@2
  015cf	8b 45 f8	 mov	 eax, DWORD PTR _lpUser$[ebp]
  015d2	0f b7 88 b8 00
	00 00		 movzx	 ecx, WORD PTR [eax+184]
  015d9	83 f9 01	 cmp	 ecx, 1
  015dc	74 09		 je	 SHORT $LN71@CGChangeCl@2

; 585  : 	{
; 586  : 		NewClass = 16;

  015de	c6 45 f7 10	 mov	 BYTE PTR _NewClass$[ebp], 16 ; 00000010H
  015e2	e9 af 00 00 00	 jmp	 $LN60@CGChangeCl@2
$LN71@CGChangeCl@2:

; 587  : 	}
; 588  : 	else if(NewClass == CLASS_ELF && lpUser->Class != CLASS_ELF)

  015e7	0f b6 45 f7	 movzx	 eax, BYTE PTR _NewClass$[ebp]
  015eb	83 f8 02	 cmp	 eax, 2
  015ee	75 18		 jne	 SHORT $LN69@CGChangeCl@2
  015f0	8b 45 f8	 mov	 eax, DWORD PTR _lpUser$[ebp]
  015f3	0f b7 88 b8 00
	00 00		 movzx	 ecx, WORD PTR [eax+184]
  015fa	83 f9 02	 cmp	 ecx, 2
  015fd	74 09		 je	 SHORT $LN69@CGChangeCl@2

; 589  : 	{
; 590  : 		NewClass = 32;

  015ff	c6 45 f7 20	 mov	 BYTE PTR _NewClass$[ebp], 32 ; 00000020H
  01603	e9 8e 00 00 00	 jmp	 $LN60@CGChangeCl@2
$LN69@CGChangeCl@2:

; 591  : 	}
; 592  : 	else if(NewClass == CLASS_MAGUMSA && lpUser->Class != CLASS_MAGUMSA)

  01608	0f b6 45 f7	 movzx	 eax, BYTE PTR _NewClass$[ebp]
  0160c	83 f8 03	 cmp	 eax, 3
  0160f	75 15		 jne	 SHORT $LN67@CGChangeCl@2
  01611	8b 45 f8	 mov	 eax, DWORD PTR _lpUser$[ebp]
  01614	0f b7 88 b8 00
	00 00		 movzx	 ecx, WORD PTR [eax+184]
  0161b	83 f9 03	 cmp	 ecx, 3
  0161e	74 06		 je	 SHORT $LN67@CGChangeCl@2

; 593  : 	{
; 594  : 		NewClass = 48;

  01620	c6 45 f7 30	 mov	 BYTE PTR _NewClass$[ebp], 48 ; 00000030H
  01624	eb 70		 jmp	 SHORT $LN60@CGChangeCl@2
$LN67@CGChangeCl@2:

; 595  : 	}
; 596  : 	else if(NewClass == CLASS_DARKLORD && lpUser->Class != CLASS_DARKLORD)

  01626	0f b6 45 f7	 movzx	 eax, BYTE PTR _NewClass$[ebp]
  0162a	83 f8 04	 cmp	 eax, 4
  0162d	75 15		 jne	 SHORT $LN65@CGChangeCl@2
  0162f	8b 45 f8	 mov	 eax, DWORD PTR _lpUser$[ebp]
  01632	0f b7 88 b8 00
	00 00		 movzx	 ecx, WORD PTR [eax+184]
  01639	83 f9 04	 cmp	 ecx, 4
  0163c	74 06		 je	 SHORT $LN65@CGChangeCl@2

; 597  : 	{
; 598  : 		NewClass = 64;

  0163e	c6 45 f7 40	 mov	 BYTE PTR _NewClass$[ebp], 64 ; 00000040H
  01642	eb 52		 jmp	 SHORT $LN60@CGChangeCl@2
$LN65@CGChangeCl@2:

; 599  : 	}		
; 600  : 	else if(NewClass == CLASS_SUMMONER && lpUser->Class != CLASS_SUMMONER)

  01644	0f b6 45 f7	 movzx	 eax, BYTE PTR _NewClass$[ebp]
  01648	83 f8 05	 cmp	 eax, 5
  0164b	75 15		 jne	 SHORT $LN63@CGChangeCl@2
  0164d	8b 45 f8	 mov	 eax, DWORD PTR _lpUser$[ebp]
  01650	0f b7 88 b8 00
	00 00		 movzx	 ecx, WORD PTR [eax+184]
  01657	83 f9 05	 cmp	 ecx, 5
  0165a	74 06		 je	 SHORT $LN63@CGChangeCl@2

; 601  : 	{
; 602  : 		NewClass = 80;

  0165c	c6 45 f7 50	 mov	 BYTE PTR _NewClass$[ebp], 80 ; 00000050H
  01660	eb 34		 jmp	 SHORT $LN60@CGChangeCl@2
$LN63@CGChangeCl@2:

; 603  : 	}
; 604  : 	else if(NewClass == CLASS_MONK && lpUser->Class != CLASS_MONK)

  01662	0f b6 45 f7	 movzx	 eax, BYTE PTR _NewClass$[ebp]
  01666	83 f8 06	 cmp	 eax, 6
  01669	75 15		 jne	 SHORT $LN61@CGChangeCl@2
  0166b	8b 45 f8	 mov	 eax, DWORD PTR _lpUser$[ebp]
  0166e	0f b7 88 b8 00
	00 00		 movzx	 ecx, WORD PTR [eax+184]
  01675	83 f9 06	 cmp	 ecx, 6
  01678	74 06		 je	 SHORT $LN61@CGChangeCl@2

; 605  : 	{
; 606  : 		NewClass = 96;

  0167a	c6 45 f7 60	 mov	 BYTE PTR _NewClass$[ebp], 96 ; 00000060H

; 607  : 	}
; 608  : 	else

  0167e	eb 16		 jmp	 SHORT $LN60@CGChangeCl@2
$LN61@CGChangeCl@2:

; 609  : 	{
; 610  : 		MsgOutput(aIndex,"[Change Class]: class busy");

  01680	68 00 00 00 00	 push	 OFFSET ??_C@_0BL@KFFEMCK@?$FLChange?5Class?$FN?3?5class?5busy?$AA@
  01685	8b 45 0c	 mov	 eax, DWORD PTR _aIndex$[ebp]
  01688	50		 push	 eax
  01689	e8 00 00 00 00	 call	 ?MsgOutput@@YAXHPADZZ	; MsgOutput
  0168e	83 c4 08	 add	 esp, 8

; 611  : 		return;

  01691	e9 8e 07 00 00	 jmp	 $LN77@CGChangeCl@2
$LN60@CGChangeCl@2:

; 612  : 	}
; 613  : 
; 614  : 	for ( int i=0;i<INVETORY_WEAR_SIZE;i++)

  01696	c7 45 f0 00 00
	00 00		 mov	 DWORD PTR _i$224025[ebp], 0
  0169d	eb 09		 jmp	 SHORT $LN59@CGChangeCl@2
$LN58@CGChangeCl@2:
  0169f	8b 45 f0	 mov	 eax, DWORD PTR _i$224025[ebp]
  016a2	83 c0 01	 add	 eax, 1
  016a5	89 45 f0	 mov	 DWORD PTR _i$224025[ebp], eax
$LN59@CGChangeCl@2:
  016a8	83 7d f0 0c	 cmp	 DWORD PTR _i$224025[ebp], 12 ; 0000000cH
  016ac	7d 33		 jge	 SHORT $LN57@CGChangeCl@2

; 615  : 	{
; 616  : 		if ( lpUser->pInventory[i].IsItem() )

  016ae	8b 4d f0	 mov	 ecx, DWORD PTR _i$224025[ebp]
  016b1	69 c9 d4 00 00
	00		 imul	 ecx, 212		; 000000d4H
  016b7	8b 45 f8	 mov	 eax, DWORD PTR _lpUser$[ebp]
  016ba	03 88 24 0e 00
	00		 add	 ecx, DWORD PTR [eax+3620]
  016c0	e8 00 00 00 00	 call	 ?IsItem@CItem@@QAEHXZ	; CItem::IsItem
  016c5	85 c0		 test	 eax, eax
  016c7	74 16		 je	 SHORT $LN56@CGChangeCl@2

; 617  : 		{
; 618  : 			MsgOutput(aIndex,"[Change Class]: You need Empty Inventory");

  016c9	68 00 00 00 00	 push	 OFFSET ??_C@_0CJ@LADKEPDC@?$FLChange?5Class?$FN?3?5You?5need?5Empty?5I@
  016ce	8b 45 0c	 mov	 eax, DWORD PTR _aIndex$[ebp]
  016d1	50		 push	 eax
  016d2	e8 00 00 00 00	 call	 ?MsgOutput@@YAXHPADZZ	; MsgOutput
  016d7	83 c4 08	 add	 esp, 8

; 619  : 			return;

  016da	e9 45 07 00 00	 jmp	 $LN77@CGChangeCl@2
$LN56@CGChangeCl@2:

; 620  : 		}
; 621  : 	}

  016df	eb be		 jmp	 SHORT $LN58@CGChangeCl@2
$LN57@CGChangeCl@2:

; 622  : 
; 623  : 	if(btPriceType == 0)

  016e1	0f b6 45 f6	 movzx	 eax, BYTE PTR _btPriceType$[ebp]
  016e5	85 c0		 test	 eax, eax
  016e7	75 4f		 jne	 SHORT $LN55@CGChangeCl@2

; 624  : 	{
; 625  : 		if(this->ChangeCredit > lpUser->ExCred)

  016e9	8b 45 fc	 mov	 eax, DWORD PTR _this$[ebp]
  016ec	db 40 10	 fild	 DWORD PTR [eax+16]
  016ef	8b 4d f8	 mov	 ecx, DWORD PTR _lpUser$[ebp]
  016f2	d9 81 a8 22 00
	00		 fld	 DWORD PTR [ecx+8872]
  016f8	de d9		 fcompp
  016fa	df e0		 fnstsw	 ax
  016fc	f6 c4 05	 test	 ah, 5
  016ff	7a 1d		 jp	 SHORT $LN54@CGChangeCl@2

; 626  : 		{
; 627  : 			MsgOutput(aIndex,"[Change Class]: Need %d Credit",this->ChangeCredit);

  01701	8b 45 fc	 mov	 eax, DWORD PTR _this$[ebp]
  01704	8b 48 10	 mov	 ecx, DWORD PTR [eax+16]
  01707	51		 push	 ecx
  01708	68 00 00 00 00	 push	 OFFSET ??_C@_0BP@LBHMNDCK@?$FLChange?5Class?$FN?3?5Need?5?$CFd?5Credit?$AA@
  0170d	8b 55 0c	 mov	 edx, DWORD PTR _aIndex$[ebp]
  01710	52		 push	 edx
  01711	e8 00 00 00 00	 call	 ?MsgOutput@@YAXHPADZZ	; MsgOutput
  01716	83 c4 0c	 add	 esp, 12			; 0000000cH

; 628  : 			return;

  01719	e9 06 07 00 00	 jmp	 $LN77@CGChangeCl@2
$LN54@CGChangeCl@2:

; 629  : 		}
; 630  : 		lpUser->ExCred -= this->ChangeCredit;

  0171e	8b 45 fc	 mov	 eax, DWORD PTR _this$[ebp]
  01721	db 40 10	 fild	 DWORD PTR [eax+16]
  01724	8b 4d f8	 mov	 ecx, DWORD PTR _lpUser$[ebp]
  01727	d8 a9 a8 22 00
	00		 fsubr	 DWORD PTR [ecx+8872]
  0172d	8b 55 f8	 mov	 edx, DWORD PTR _lpUser$[ebp]
  01730	d9 9a a8 22 00
	00		 fstp	 DWORD PTR [edx+8872]
  01736	eb 54		 jmp	 SHORT $LN52@CGChangeCl@2
$LN55@CGChangeCl@2:

; 631  : 	}
; 632  : 	else if(btPriceType == 1)

  01738	0f b6 45 f6	 movzx	 eax, BYTE PTR _btPriceType$[ebp]
  0173c	83 f8 01	 cmp	 eax, 1
  0173f	75 4b		 jne	 SHORT $LN52@CGChangeCl@2

; 633  : 	{
; 634  : 		if(this->ChangeWCoin > lpUser->GameShop.WCoinC)

  01741	8b 45 fc	 mov	 eax, DWORD PTR _this$[ebp]
  01744	db 40 14	 fild	 DWORD PTR [eax+20]
  01747	8b 4d f8	 mov	 ecx, DWORD PTR _lpUser$[ebp]
  0174a	dc 99 00 23 00
	00		 fcomp	 QWORD PTR [ecx+8960]
  01750	df e0		 fnstsw	 ax
  01752	f6 c4 41	 test	 ah, 65			; 00000041H
  01755	75 1d		 jne	 SHORT $LN51@CGChangeCl@2

; 635  : 		{
; 636  : 			MsgOutput(aIndex,"[Change Class]: Need %d WCoin",this->ChangeWCoin);

  01757	8b 45 fc	 mov	 eax, DWORD PTR _this$[ebp]
  0175a	8b 48 14	 mov	 ecx, DWORD PTR [eax+20]
  0175d	51		 push	 ecx
  0175e	68 00 00 00 00	 push	 OFFSET ??_C@_0BO@MHAIPFF@?$FLChange?5Class?$FN?3?5Need?5?$CFd?5WCoin?$AA@
  01763	8b 55 0c	 mov	 edx, DWORD PTR _aIndex$[ebp]
  01766	52		 push	 edx
  01767	e8 00 00 00 00	 call	 ?MsgOutput@@YAXHPADZZ	; MsgOutput
  0176c	83 c4 0c	 add	 esp, 12			; 0000000cH

; 637  : 			return;

  0176f	e9 b0 06 00 00	 jmp	 $LN77@CGChangeCl@2
$LN51@CGChangeCl@2:

; 638  : 		}
; 639  : 		lpUser->GameShop.WCoinC -= this->ChangeWCoin;

  01774	8b 45 fc	 mov	 eax, DWORD PTR _this$[ebp]
  01777	db 40 14	 fild	 DWORD PTR [eax+20]
  0177a	8b 4d f8	 mov	 ecx, DWORD PTR _lpUser$[ebp]
  0177d	dc a9 00 23 00
	00		 fsubr	 QWORD PTR [ecx+8960]
  01783	8b 55 f8	 mov	 edx, DWORD PTR _lpUser$[ebp]
  01786	dd 9a 00 23 00
	00		 fstp	 QWORD PTR [edx+8960]
$LN52@CGChangeCl@2:

; 640  : 	}
; 641  : 
; 642  : 	if(g_ExLicense.CheckUser(eExUB::Gredy) || g_ExLicense.CheckUser(eExUB::Gredy2) || g_ExLicense.CheckUser(eExUB::GredyLocal))	

  0178c	6a 20		 push	 32			; 00000020H
  0178e	b9 00 00 00 00	 mov	 ecx, OFFSET ?g_ExLicense@@3VCExLicense@@A ; g_ExLicense
  01793	e8 00 00 00 00	 call	 ?CheckUser@CExLicense@@QAE_NH@Z ; CExLicense::CheckUser
  01798	0f b6 c0	 movzx	 eax, al
  0179b	85 c0		 test	 eax, eax
  0179d	75 26		 jne	 SHORT $LN49@CGChangeCl@2
  0179f	6a 22		 push	 34			; 00000022H
  017a1	b9 00 00 00 00	 mov	 ecx, OFFSET ?g_ExLicense@@3VCExLicense@@A ; g_ExLicense
  017a6	e8 00 00 00 00	 call	 ?CheckUser@CExLicense@@QAE_NH@Z ; CExLicense::CheckUser
  017ab	0f b6 c0	 movzx	 eax, al
  017ae	85 c0		 test	 eax, eax
  017b0	75 13		 jne	 SHORT $LN49@CGChangeCl@2
  017b2	6a 21		 push	 33			; 00000021H
  017b4	b9 00 00 00 00	 mov	 ecx, OFFSET ?g_ExLicense@@3VCExLicense@@A ; g_ExLicense
  017b9	e8 00 00 00 00	 call	 ?CheckUser@CExLicense@@QAE_NH@Z ; CExLicense::CheckUser
  017be	0f b6 c0	 movzx	 eax, al
  017c1	85 c0		 test	 eax, eax
  017c3	74 50		 je	 SHORT $LN47@CGChangeCl@2
$LN49@CGChangeCl@2:

; 643  : 	{
; 644  : 		if(this->m_ActiveDivResetChange)

  017c5	8b 45 fc	 mov	 eax, DWORD PTR _this$[ebp]
  017c8	83 b8 b0 af 02
	00 00		 cmp	 DWORD PTR [eax+176048], 0
  017cf	74 1c		 je	 SHORT $LN48@CGChangeCl@2

; 645  : 		{
; 646  : 			lpUser->Reset = lpUser->Reset / this->m_MinusDivResetChange;

  017d1	8b 45 f8	 mov	 eax, DWORD PTR _lpUser$[ebp]
  017d4	8b 4d fc	 mov	 ecx, DWORD PTR _this$[ebp]
  017d7	8b 80 90 22 00
	00		 mov	 eax, DWORD PTR [eax+8848]
  017dd	99		 cdq
  017de	f7 b9 b4 af 02
	00		 idiv	 DWORD PTR [ecx+176052]
  017e4	8b 55 f8	 mov	 edx, DWORD PTR _lpUser$[ebp]
  017e7	89 82 90 22 00
	00		 mov	 DWORD PTR [edx+8848], eax
$LN48@CGChangeCl@2:

; 647  : 		}
; 648  : 
; 649  : 		if(this->m_MinusDivGrandChange)

  017ed	8b 45 fc	 mov	 eax, DWORD PTR _this$[ebp]
  017f0	83 b8 bc af 02
	00 00		 cmp	 DWORD PTR [eax+176060], 0
  017f7	74 1c		 je	 SHORT $LN47@CGChangeCl@2

; 650  : 		{
; 651  : 			lpUser->GReset = lpUser->GReset / this->m_MinusDivGrandChange;

  017f9	8b 45 f8	 mov	 eax, DWORD PTR _lpUser$[ebp]
  017fc	8b 4d fc	 mov	 ecx, DWORD PTR _this$[ebp]
  017ff	8b 80 94 22 00
	00		 mov	 eax, DWORD PTR [eax+8852]
  01805	99		 cdq
  01806	f7 b9 bc af 02
	00		 idiv	 DWORD PTR [ecx+176060]
  0180c	8b 55 f8	 mov	 edx, DWORD PTR _lpUser$[ebp]
  0180f	89 82 94 22 00
	00		 mov	 DWORD PTR [edx+8852], eax
$LN47@CGChangeCl@2:

; 652  : 		}
; 653  : 	}
; 654  : 
; 655  : 	lpUser->DbClass = NewClass;

  01815	8b 45 f8	 mov	 eax, DWORD PTR _lpUser$[ebp]
  01818	8a 4d f7	 mov	 cl, BYTE PTR _NewClass$[ebp]
  0181b	88 88 ba 00 00
	00		 mov	 BYTE PTR [eax+186], cl

; 656  : 
; 657  : 	for (int i=0;i<MAX_MAGIC ; i++)

  01821	c7 45 ec 00 00
	00 00		 mov	 DWORD PTR _i$224042[ebp], 0
  01828	eb 09		 jmp	 SHORT $LN46@CGChangeCl@2
$LN45@CGChangeCl@2:
  0182a	8b 45 ec	 mov	 eax, DWORD PTR _i$224042[ebp]
  0182d	83 c0 01	 add	 eax, 1
  01830	89 45 ec	 mov	 DWORD PTR _i$224042[ebp], eax
$LN46@CGChangeCl@2:
  01833	81 7d ec 96 00
	00 00		 cmp	 DWORD PTR _i$224042[ebp], 150 ; 00000096H
  0183a	7d 16		 jge	 SHORT $LN44@CGChangeCl@2

; 658  : 	{
; 659  : 		lpUser->Magic[i].Clear();

  0183c	8b 4d ec	 mov	 ecx, DWORD PTR _i$224042[ebp]
  0183f	6b c9 18	 imul	 ecx, 24			; 00000018H
  01842	8b 45 f8	 mov	 eax, DWORD PTR _lpUser$[ebp]
  01845	03 88 c8 04 00
	00		 add	 ecx, DWORD PTR [eax+1224]
  0184b	e8 00 00 00 00	 call	 ?Clear@CMagicInf@@QAEXXZ ; CMagicInf::Clear

; 660  : 	}

  01850	eb d8		 jmp	 SHORT $LN45@CGChangeCl@2
$LN44@CGChangeCl@2:

; 661  : 
; 662  : 	g_MasterSkillSystem.ClearPassiveSkill(lpUser);

  01852	8b 45 f8	 mov	 eax, DWORD PTR _lpUser$[ebp]
  01855	50		 push	 eax
  01856	b9 00 00 00 00	 mov	 ecx, OFFSET ?g_MasterSkillSystem@@3VCMasterLevelSkillTreeSystem@@A ; g_MasterSkillSystem
  0185b	e8 00 00 00 00	 call	 ?ClearPassiveSkill@CMasterLevelSkillTreeSystem@@QAEXPAUOBJECTSTRUCT@@@Z ; CMasterLevelSkillTreeSystem::ClearPassiveSkill

; 663  : 
; 664  : 	if(g_ExLicense.CheckUser(eExUB::Local) ||	
; 665  : 	   g_ExLicense.CheckUser(eExUB::Gredy) ||
; 666  : 	   g_ExLicense.CheckUser(eExUB::Gredy2) || 
; 667  : 	   g_ExLicense.CheckUser(eExUB::GredyLocal))

  01860	6a 00		 push	 0
  01862	b9 00 00 00 00	 mov	 ecx, OFFSET ?g_ExLicense@@3VCExLicense@@A ; g_ExLicense
  01867	e8 00 00 00 00	 call	 ?CheckUser@CExLicense@@QAE_NH@Z ; CExLicense::CheckUser
  0186c	0f b6 c0	 movzx	 eax, al
  0186f	85 c0		 test	 eax, eax
  01871	75 3d		 jne	 SHORT $LN42@CGChangeCl@2
  01873	6a 20		 push	 32			; 00000020H
  01875	b9 00 00 00 00	 mov	 ecx, OFFSET ?g_ExLicense@@3VCExLicense@@A ; g_ExLicense
  0187a	e8 00 00 00 00	 call	 ?CheckUser@CExLicense@@QAE_NH@Z ; CExLicense::CheckUser
  0187f	0f b6 c0	 movzx	 eax, al
  01882	85 c0		 test	 eax, eax
  01884	75 2a		 jne	 SHORT $LN42@CGChangeCl@2
  01886	6a 22		 push	 34			; 00000022H
  01888	b9 00 00 00 00	 mov	 ecx, OFFSET ?g_ExLicense@@3VCExLicense@@A ; g_ExLicense
  0188d	e8 00 00 00 00	 call	 ?CheckUser@CExLicense@@QAE_NH@Z ; CExLicense::CheckUser
  01892	0f b6 c0	 movzx	 eax, al
  01895	85 c0		 test	 eax, eax
  01897	75 17		 jne	 SHORT $LN42@CGChangeCl@2
  01899	6a 21		 push	 33			; 00000021H
  0189b	b9 00 00 00 00	 mov	 ecx, OFFSET ?g_ExLicense@@3VCExLicense@@A ; g_ExLicense
  018a0	e8 00 00 00 00	 call	 ?CheckUser@CExLicense@@QAE_NH@Z ; CExLicense::CheckUser
  018a5	0f b6 c0	 movzx	 eax, al
  018a8	85 c0		 test	 eax, eax
  018aa	0f 84 4e 05 00
	00		 je	 $LN43@CGChangeCl@2
$LN42@CGChangeCl@2:

; 668  : 	{
; 669  : 
; 670  : #if(EVO_CREDITDONATE)
; 671  : 
; 672  : 		if(aRecv->iNewClass == CLASS_WIZARD ||
; 673  : 			aRecv->iNewClass == CLASS_KNIGHT || 
; 674  : 			aRecv->iNewClass == CLASS_ELF ||
; 675  : 			aRecv->iNewClass == CLASS_SUMMONER )

  018b0	8b 45 08	 mov	 eax, DWORD PTR _aRecv$[ebp]
  018b3	0f b6 48 04	 movzx	 ecx, BYTE PTR [eax+4]
  018b7	85 c9		 test	 ecx, ecx
  018b9	74 24		 je	 SHORT $LN40@CGChangeCl@2
  018bb	8b 45 08	 mov	 eax, DWORD PTR _aRecv$[ebp]
  018be	0f b6 48 04	 movzx	 ecx, BYTE PTR [eax+4]
  018c2	83 f9 01	 cmp	 ecx, 1
  018c5	74 18		 je	 SHORT $LN40@CGChangeCl@2
  018c7	8b 45 08	 mov	 eax, DWORD PTR _aRecv$[ebp]
  018ca	0f b6 48 04	 movzx	 ecx, BYTE PTR [eax+4]
  018ce	83 f9 02	 cmp	 ecx, 2
  018d1	74 0c		 je	 SHORT $LN40@CGChangeCl@2
  018d3	8b 45 08	 mov	 eax, DWORD PTR _aRecv$[ebp]
  018d6	0f b6 48 04	 movzx	 ecx, BYTE PTR [eax+4]
  018da	83 f9 05	 cmp	 ecx, 5
  018dd	75 24		 jne	 SHORT $LN39@CGChangeCl@2
$LN40@CGChangeCl@2:

; 676  : 		{
; 677  : 			if(lpUser->ChangeUP)

  018df	8b 45 f8	 mov	 eax, DWORD PTR _lpUser$[ebp]
  018e2	0f b6 88 bb 00
	00 00		 movzx	 ecx, BYTE PTR [eax+187]
  018e9	85 c9		 test	 ecx, ecx
  018eb	74 16		 je	 SHORT $LN39@CGChangeCl@2

; 678  : 			{
; 679  : 				lpUser->DbClass += 1;

  018ed	8b 45 f8	 mov	 eax, DWORD PTR _lpUser$[ebp]
  018f0	0f b6 88 ba 00
	00 00		 movzx	 ecx, BYTE PTR [eax+186]
  018f7	83 c1 01	 add	 ecx, 1
  018fa	8b 55 f8	 mov	 edx, DWORD PTR _lpUser$[ebp]
  018fd	88 8a ba 00 00
	00		 mov	 BYTE PTR [edx+186], cl
$LN39@CGChangeCl@2:

; 680  : 			}
; 681  : 		}
; 682  : 
; 683  : 		if(lpUser->ChangeUP3rd)

  01903	8b 45 f8	 mov	 eax, DWORD PTR _lpUser$[ebp]
  01906	0f b6 88 bc 00
	00 00		 movzx	 ecx, BYTE PTR [eax+188]
  0190d	85 c9		 test	 ecx, ecx
  0190f	74 16		 je	 SHORT $LN38@CGChangeCl@2

; 684  : 		{
; 685  : 			lpUser->DbClass += 2;

  01911	8b 45 f8	 mov	 eax, DWORD PTR _lpUser$[ebp]
  01914	0f b6 88 ba 00
	00 00		 movzx	 ecx, BYTE PTR [eax+186]
  0191b	83 c1 02	 add	 ecx, 2
  0191e	8b 55 f8	 mov	 edx, DWORD PTR _lpUser$[ebp]
  01921	88 8a ba 00 00
	00		 mov	 BYTE PTR [edx+186], cl
$LN38@CGChangeCl@2:

; 686  : 		}
; 687  : 
; 688  : 		/*
; 689  : 		if(aRecv->iNewClass == CLASS_KNIGHT)
; 690  : 		{
; 691  : 			g_QuestInfo.SetQuestState(lpUser, 2, 1);
; 692  : 			g_QuestInfo.SetQuestState(lpUser, 3, 1);
; 693  : 		}
; 694  : 		*/
; 695  : 
; 696  : 		lpUser->Strength = 25;

  01927	b8 19 00 00 00	 mov	 eax, 25			; 00000019H
  0192c	8b 4d f8	 mov	 ecx, DWORD PTR _lpUser$[ebp]
  0192f	66 89 81 f4 00
	00 00		 mov	 WORD PTR [ecx+244], ax

; 697  : 		lpUser->Dexterity = 25;

  01936	b8 19 00 00 00	 mov	 eax, 25			; 00000019H
  0193b	8b 4d f8	 mov	 ecx, DWORD PTR _lpUser$[ebp]
  0193e	66 89 81 f6 00
	00 00		 mov	 WORD PTR [ecx+246], ax

; 698  : 		lpUser->Vitality = 25;

  01945	b8 19 00 00 00	 mov	 eax, 25			; 00000019H
  0194a	8b 4d f8	 mov	 ecx, DWORD PTR _lpUser$[ebp]
  0194d	66 89 81 f8 00
	00 00		 mov	 WORD PTR [ecx+248], ax

; 699  : 		lpUser->Energy = 25;

  01954	b8 19 00 00 00	 mov	 eax, 25			; 00000019H
  01959	8b 4d f8	 mov	 ecx, DWORD PTR _lpUser$[ebp]
  0195c	66 89 81 fa 00
	00 00		 mov	 WORD PTR [ecx+250], ax

; 700  : 
; 701  : 		if(lpUser->Class == 4)

  01963	8b 45 f8	 mov	 eax, DWORD PTR _lpUser$[ebp]
  01966	0f b7 88 b8 00
	00 00		 movzx	 ecx, WORD PTR [eax+184]
  0196d	83 f9 04	 cmp	 ecx, 4
  01970	75 0f		 jne	 SHORT $LN37@CGChangeCl@2

; 702  : 		{
; 703  : 			lpUser->Leadership = 25;

  01972	b8 19 00 00 00	 mov	 eax, 25			; 00000019H
  01977	8b 4d f8	 mov	 ecx, DWORD PTR _lpUser$[ebp]
  0197a	66 89 81 18 01
	00 00		 mov	 WORD PTR [ecx+280], ax
$LN37@CGChangeCl@2:

; 704  : 		}
; 705  : 
; 706  : 		lpUser->ChangeUP = 0;

  01981	8b 45 f8	 mov	 eax, DWORD PTR _lpUser$[ebp]
  01984	c6 80 bb 00 00
	00 00		 mov	 BYTE PTR [eax+187], 0

; 707  : 		lpUser->ChangeUP3rd = 0;

  0198b	8b 45 f8	 mov	 eax, DWORD PTR _lpUser$[ebp]
  0198e	c6 80 bc 00 00
	00 00		 mov	 BYTE PTR [eax+188], 0

; 708  : 		lpUser->LevelUpPoint = 0;

  01995	8b 45 f8	 mov	 eax, DWORD PTR _lpUser$[ebp]
  01998	c7 80 c0 00 00
	00 00 00 00 00	 mov	 DWORD PTR [eax+192], 0

; 709  : 
; 710  : 		//  
; 711  : 		if(gResetSystem.AddForm == 1 || gResetSystem.AddForm == 2)

  019a2	83 3d 14 00 00
	00 01		 cmp	 DWORD PTR ?gResetSystem@@3VcResetSystem@@A+20, 1
  019a9	74 0d		 je	 SHORT $LN35@CGChangeCl@2
  019ab	83 3d 14 00 00
	00 02		 cmp	 DWORD PTR ?gResetSystem@@3VcResetSystem@@A+20, 2
  019b2	0f 85 36 01 00
	00		 jne	 $LN33@CGChangeCl@2
$LN35@CGChangeCl@2:

; 712  : 		{
; 713  : 			switch (aRecv->iNewClass)

  019b8	8b 45 08	 mov	 eax, DWORD PTR _aRecv$[ebp]
  019bb	0f b6 48 04	 movzx	 ecx, BYTE PTR [eax+4]
  019bf	89 4d a8	 mov	 DWORD PTR tv321[ebp], ecx
  019c2	83 7d a8 06	 cmp	 DWORD PTR tv321[ebp], 6
  019c6	0f 87 22 01 00
	00		 ja	 $LN33@CGChangeCl@2
  019cc	8b 55 a8	 mov	 edx, DWORD PTR tv321[ebp]
  019cf	ff 24 95 00 00
	00 00		 jmp	 DWORD PTR $LN81@CGChangeCl@2[edx*4]
$LN32@CGChangeCl@2:

; 714  : 			{
; 715  : 				case 0: lpUser->LevelUpPoint += ( lpUser->Reset + 1 ) * gResetSystem.AddPointsDW ;  break;

  019d6	8b 45 f8	 mov	 eax, DWORD PTR _lpUser$[ebp]
  019d9	8b 88 90 22 00
	00		 mov	 ecx, DWORD PTR [eax+8848]
  019df	83 c1 01	 add	 ecx, 1
  019e2	0f af 0d 18 00
	00 00		 imul	 ecx, DWORD PTR ?gResetSystem@@3VcResetSystem@@A+24
  019e9	8b 55 f8	 mov	 edx, DWORD PTR _lpUser$[ebp]
  019ec	03 8a c0 00 00
	00		 add	 ecx, DWORD PTR [edx+192]
  019f2	8b 45 f8	 mov	 eax, DWORD PTR _lpUser$[ebp]
  019f5	89 88 c0 00 00
	00		 mov	 DWORD PTR [eax+192], ecx
  019fb	e9 ee 00 00 00	 jmp	 $LN33@CGChangeCl@2
$LN31@CGChangeCl@2:

; 716  : 				case 1: lpUser->LevelUpPoint += ( lpUser->Reset + 1 ) * gResetSystem.AddPointsDK ;  break;

  01a00	8b 45 f8	 mov	 eax, DWORD PTR _lpUser$[ebp]
  01a03	8b 88 90 22 00
	00		 mov	 ecx, DWORD PTR [eax+8848]
  01a09	83 c1 01	 add	 ecx, 1
  01a0c	0f af 0d 1c 00
	00 00		 imul	 ecx, DWORD PTR ?gResetSystem@@3VcResetSystem@@A+28
  01a13	8b 55 f8	 mov	 edx, DWORD PTR _lpUser$[ebp]
  01a16	03 8a c0 00 00
	00		 add	 ecx, DWORD PTR [edx+192]
  01a1c	8b 45 f8	 mov	 eax, DWORD PTR _lpUser$[ebp]
  01a1f	89 88 c0 00 00
	00		 mov	 DWORD PTR [eax+192], ecx
  01a25	e9 c4 00 00 00	 jmp	 $LN33@CGChangeCl@2
$LN30@CGChangeCl@2:

; 717  : 				case 2: lpUser->LevelUpPoint += ( lpUser->Reset + 1 ) * gResetSystem.AddPointsELF ; break;

  01a2a	8b 45 f8	 mov	 eax, DWORD PTR _lpUser$[ebp]
  01a2d	8b 88 90 22 00
	00		 mov	 ecx, DWORD PTR [eax+8848]
  01a33	83 c1 01	 add	 ecx, 1
  01a36	0f af 0d 20 00
	00 00		 imul	 ecx, DWORD PTR ?gResetSystem@@3VcResetSystem@@A+32
  01a3d	8b 55 f8	 mov	 edx, DWORD PTR _lpUser$[ebp]
  01a40	03 8a c0 00 00
	00		 add	 ecx, DWORD PTR [edx+192]
  01a46	8b 45 f8	 mov	 eax, DWORD PTR _lpUser$[ebp]
  01a49	89 88 c0 00 00
	00		 mov	 DWORD PTR [eax+192], ecx
  01a4f	e9 9a 00 00 00	 jmp	 $LN33@CGChangeCl@2
$LN29@CGChangeCl@2:

; 718  : 				case 3: lpUser->LevelUpPoint += ( lpUser->Reset + 1 ) * gResetSystem.AddPointsMG ;  break;

  01a54	8b 45 f8	 mov	 eax, DWORD PTR _lpUser$[ebp]
  01a57	8b 88 90 22 00
	00		 mov	 ecx, DWORD PTR [eax+8848]
  01a5d	83 c1 01	 add	 ecx, 1
  01a60	0f af 0d 28 00
	00 00		 imul	 ecx, DWORD PTR ?gResetSystem@@3VcResetSystem@@A+40
  01a67	8b 55 f8	 mov	 edx, DWORD PTR _lpUser$[ebp]
  01a6a	03 8a c0 00 00
	00		 add	 ecx, DWORD PTR [edx+192]
  01a70	8b 45 f8	 mov	 eax, DWORD PTR _lpUser$[ebp]
  01a73	89 88 c0 00 00
	00		 mov	 DWORD PTR [eax+192], ecx
  01a79	eb 73		 jmp	 SHORT $LN33@CGChangeCl@2
$LN28@CGChangeCl@2:

; 719  : 				case 4: lpUser->LevelUpPoint += ( lpUser->Reset + 1 ) * gResetSystem.AddPointsDL ;  break;

  01a7b	8b 45 f8	 mov	 eax, DWORD PTR _lpUser$[ebp]
  01a7e	8b 88 90 22 00
	00		 mov	 ecx, DWORD PTR [eax+8848]
  01a84	83 c1 01	 add	 ecx, 1
  01a87	0f af 0d 2c 00
	00 00		 imul	 ecx, DWORD PTR ?gResetSystem@@3VcResetSystem@@A+44
  01a8e	8b 55 f8	 mov	 edx, DWORD PTR _lpUser$[ebp]
  01a91	03 8a c0 00 00
	00		 add	 ecx, DWORD PTR [edx+192]
  01a97	8b 45 f8	 mov	 eax, DWORD PTR _lpUser$[ebp]
  01a9a	89 88 c0 00 00
	00		 mov	 DWORD PTR [eax+192], ecx
  01aa0	eb 4c		 jmp	 SHORT $LN33@CGChangeCl@2
$LN27@CGChangeCl@2:

; 720  : 				case 5: lpUser->LevelUpPoint += ( lpUser->Reset + 1 ) * gResetSystem.AddPointsSUM ; break;

  01aa2	8b 45 f8	 mov	 eax, DWORD PTR _lpUser$[ebp]
  01aa5	8b 88 90 22 00
	00		 mov	 ecx, DWORD PTR [eax+8848]
  01aab	83 c1 01	 add	 ecx, 1
  01aae	0f af 0d 24 00
	00 00		 imul	 ecx, DWORD PTR ?gResetSystem@@3VcResetSystem@@A+36
  01ab5	8b 55 f8	 mov	 edx, DWORD PTR _lpUser$[ebp]
  01ab8	03 8a c0 00 00
	00		 add	 ecx, DWORD PTR [edx+192]
  01abe	8b 45 f8	 mov	 eax, DWORD PTR _lpUser$[ebp]
  01ac1	89 88 c0 00 00
	00		 mov	 DWORD PTR [eax+192], ecx
  01ac7	eb 25		 jmp	 SHORT $LN33@CGChangeCl@2
$LN26@CGChangeCl@2:

; 721  : 				case 6: lpUser->LevelUpPoint += ( lpUser->Reset + 1 ) * gResetSystem.AddPointsRF ; break;

  01ac9	8b 45 f8	 mov	 eax, DWORD PTR _lpUser$[ebp]
  01acc	8b 88 90 22 00
	00		 mov	 ecx, DWORD PTR [eax+8848]
  01ad2	83 c1 01	 add	 ecx, 1
  01ad5	0f af 0d 30 00
	00 00		 imul	 ecx, DWORD PTR ?gResetSystem@@3VcResetSystem@@A+48
  01adc	8b 55 f8	 mov	 edx, DWORD PTR _lpUser$[ebp]
  01adf	03 8a c0 00 00
	00		 add	 ecx, DWORD PTR [edx+192]
  01ae5	8b 45 f8	 mov	 eax, DWORD PTR _lpUser$[ebp]
  01ae8	89 88 c0 00 00
	00		 mov	 DWORD PTR [eax+192], ecx
$LN33@CGChangeCl@2:

; 722  : 			}
; 723  : 		}
; 724  : 
; 725  : 		//   
; 726  : 		if(gGrandReset.EnableGrandResetSystem)

  01aee	83 3d 00 00 00
	00 00		 cmp	 DWORD PTR ?gGrandReset@@3VcGrandReset@@A, 0
  01af5	0f 84 e6 02 00
	00		 je	 $LN9@CGChangeCl@2

; 727  : 		{
; 728  : 			if(lpUser->GReset > 0)

  01afb	8b 45 f8	 mov	 eax, DWORD PTR _lpUser$[ebp]
  01afe	83 b8 94 22 00
	00 00		 cmp	 DWORD PTR [eax+8852], 0
  01b05	0f 8e d6 02 00
	00		 jle	 $LN9@CGChangeCl@2

; 729  : 			{
; 730  : 				if(gGrandReset.AddForm == 1 || gGrandReset.AddForm == 2)

  01b0b	83 3d 18 00 00
	00 01		 cmp	 DWORD PTR ?gGrandReset@@3VcGrandReset@@A+24, 1
  01b12	74 0d		 je	 SHORT $LN22@CGChangeCl@2
  01b14	83 3d 18 00 00
	00 02		 cmp	 DWORD PTR ?gGrandReset@@3VcGrandReset@@A+24, 2
  01b1b	0f 85 26 01 00
	00		 jne	 $LN23@CGChangeCl@2
$LN22@CGChangeCl@2:

; 731  : 				{
; 732  : 					switch (aRecv->iNewClass)

  01b21	8b 45 08	 mov	 eax, DWORD PTR _aRecv$[ebp]
  01b24	0f b6 48 04	 movzx	 ecx, BYTE PTR [eax+4]
  01b28	89 4d a8	 mov	 DWORD PTR tv372[ebp], ecx
  01b2b	83 7d a8 06	 cmp	 DWORD PTR tv372[ebp], 6
  01b2f	0f 87 0d 01 00
	00		 ja	 $LN20@CGChangeCl@2
  01b35	8b 55 a8	 mov	 edx, DWORD PTR tv372[ebp]
  01b38	ff 24 95 00 00
	00 00		 jmp	 DWORD PTR $LN82@CGChangeCl@2[edx*4]
$LN19@CGChangeCl@2:

; 733  : 					{
; 734  : 						case 0: lpUser->LevelUpPoint += lpUser->GReset * gGrandReset.AddPointsDW ;  break;

  01b3f	8b 45 f8	 mov	 eax, DWORD PTR _lpUser$[ebp]
  01b42	8b 88 94 22 00
	00		 mov	 ecx, DWORD PTR [eax+8852]
  01b48	0f af 0d 1c 00
	00 00		 imul	 ecx, DWORD PTR ?gGrandReset@@3VcGrandReset@@A+28
  01b4f	8b 55 f8	 mov	 edx, DWORD PTR _lpUser$[ebp]
  01b52	03 8a c0 00 00
	00		 add	 ecx, DWORD PTR [edx+192]
  01b58	8b 45 f8	 mov	 eax, DWORD PTR _lpUser$[ebp]
  01b5b	89 88 c0 00 00
	00		 mov	 DWORD PTR [eax+192], ecx
  01b61	e9 dc 00 00 00	 jmp	 $LN20@CGChangeCl@2
$LN18@CGChangeCl@2:

; 735  : 						case 1: lpUser->LevelUpPoint += lpUser->GReset * gGrandReset.AddPointsDK ;  break;

  01b66	8b 45 f8	 mov	 eax, DWORD PTR _lpUser$[ebp]
  01b69	8b 88 94 22 00
	00		 mov	 ecx, DWORD PTR [eax+8852]
  01b6f	0f af 0d 20 00
	00 00		 imul	 ecx, DWORD PTR ?gGrandReset@@3VcGrandReset@@A+32
  01b76	8b 55 f8	 mov	 edx, DWORD PTR _lpUser$[ebp]
  01b79	03 8a c0 00 00
	00		 add	 ecx, DWORD PTR [edx+192]
  01b7f	8b 45 f8	 mov	 eax, DWORD PTR _lpUser$[ebp]
  01b82	89 88 c0 00 00
	00		 mov	 DWORD PTR [eax+192], ecx
  01b88	e9 b5 00 00 00	 jmp	 $LN20@CGChangeCl@2
$LN17@CGChangeCl@2:

; 736  : 						case 2: lpUser->LevelUpPoint += lpUser->GReset * gGrandReset.AddPointsELF ; break;

  01b8d	8b 45 f8	 mov	 eax, DWORD PTR _lpUser$[ebp]
  01b90	8b 88 94 22 00
	00		 mov	 ecx, DWORD PTR [eax+8852]
  01b96	0f af 0d 24 00
	00 00		 imul	 ecx, DWORD PTR ?gGrandReset@@3VcGrandReset@@A+36
  01b9d	8b 55 f8	 mov	 edx, DWORD PTR _lpUser$[ebp]
  01ba0	03 8a c0 00 00
	00		 add	 ecx, DWORD PTR [edx+192]
  01ba6	8b 45 f8	 mov	 eax, DWORD PTR _lpUser$[ebp]
  01ba9	89 88 c0 00 00
	00		 mov	 DWORD PTR [eax+192], ecx
  01baf	e9 8e 00 00 00	 jmp	 $LN20@CGChangeCl@2
$LN16@CGChangeCl@2:

; 737  : 						case 3: lpUser->LevelUpPoint += lpUser->GReset * gGrandReset.AddPointsMG ;  break;

  01bb4	8b 45 f8	 mov	 eax, DWORD PTR _lpUser$[ebp]
  01bb7	8b 88 94 22 00
	00		 mov	 ecx, DWORD PTR [eax+8852]
  01bbd	0f af 0d 2c 00
	00 00		 imul	 ecx, DWORD PTR ?gGrandReset@@3VcGrandReset@@A+44
  01bc4	8b 55 f8	 mov	 edx, DWORD PTR _lpUser$[ebp]
  01bc7	03 8a c0 00 00
	00		 add	 ecx, DWORD PTR [edx+192]
  01bcd	8b 45 f8	 mov	 eax, DWORD PTR _lpUser$[ebp]
  01bd0	89 88 c0 00 00
	00		 mov	 DWORD PTR [eax+192], ecx
  01bd6	eb 6a		 jmp	 SHORT $LN20@CGChangeCl@2
$LN15@CGChangeCl@2:

; 738  : 						case 4: lpUser->LevelUpPoint += lpUser->GReset * gGrandReset.AddPointsDL ;  break;

  01bd8	8b 45 f8	 mov	 eax, DWORD PTR _lpUser$[ebp]
  01bdb	8b 88 94 22 00
	00		 mov	 ecx, DWORD PTR [eax+8852]
  01be1	0f af 0d 30 00
	00 00		 imul	 ecx, DWORD PTR ?gGrandReset@@3VcGrandReset@@A+48
  01be8	8b 55 f8	 mov	 edx, DWORD PTR _lpUser$[ebp]
  01beb	03 8a c0 00 00
	00		 add	 ecx, DWORD PTR [edx+192]
  01bf1	8b 45 f8	 mov	 eax, DWORD PTR _lpUser$[ebp]
  01bf4	89 88 c0 00 00
	00		 mov	 DWORD PTR [eax+192], ecx
  01bfa	eb 46		 jmp	 SHORT $LN20@CGChangeCl@2
$LN14@CGChangeCl@2:

; 739  : 						case 5: lpUser->LevelUpPoint += lpUser->GReset * gGrandReset.AddPointsSUM ; break;

  01bfc	8b 45 f8	 mov	 eax, DWORD PTR _lpUser$[ebp]
  01bff	8b 88 94 22 00
	00		 mov	 ecx, DWORD PTR [eax+8852]
  01c05	0f af 0d 28 00
	00 00		 imul	 ecx, DWORD PTR ?gGrandReset@@3VcGrandReset@@A+40
  01c0c	8b 55 f8	 mov	 edx, DWORD PTR _lpUser$[ebp]
  01c0f	03 8a c0 00 00
	00		 add	 ecx, DWORD PTR [edx+192]
  01c15	8b 45 f8	 mov	 eax, DWORD PTR _lpUser$[ebp]
  01c18	89 88 c0 00 00
	00		 mov	 DWORD PTR [eax+192], ecx
  01c1e	eb 22		 jmp	 SHORT $LN20@CGChangeCl@2
$LN13@CGChangeCl@2:

; 740  : 						case 6: lpUser->LevelUpPoint += lpUser->GReset * gGrandReset.AddPointsRF ; break;

  01c20	8b 45 f8	 mov	 eax, DWORD PTR _lpUser$[ebp]
  01c23	8b 88 94 22 00
	00		 mov	 ecx, DWORD PTR [eax+8852]
  01c29	0f af 0d 34 00
	00 00		 imul	 ecx, DWORD PTR ?gGrandReset@@3VcGrandReset@@A+52
  01c30	8b 55 f8	 mov	 edx, DWORD PTR _lpUser$[ebp]
  01c33	03 8a c0 00 00
	00		 add	 ecx, DWORD PTR [edx+192]
  01c39	8b 45 f8	 mov	 eax, DWORD PTR _lpUser$[ebp]
  01c3c	89 88 c0 00 00
	00		 mov	 DWORD PTR [eax+192], ecx
$LN20@CGChangeCl@2:

; 741  : 					}
; 742  : 				}
; 743  : 				else if(gGrandReset.AddForm == 3)

  01c42	e9 9a 01 00 00	 jmp	 $LN9@CGChangeCl@2
$LN23@CGChangeCl@2:
  01c47	83 3d 18 00 00
	00 03		 cmp	 DWORD PTR ?gGrandReset@@3VcGrandReset@@A+24, 3
  01c4e	0f 85 8d 01 00
	00		 jne	 $LN9@CGChangeCl@2

; 744  : 				{
; 745  : 					switch (aRecv->iNewClass)

  01c54	8b 45 08	 mov	 eax, DWORD PTR _aRecv$[ebp]
  01c57	0f b6 48 04	 movzx	 ecx, BYTE PTR [eax+4]
  01c5b	89 4d a8	 mov	 DWORD PTR tv412[ebp], ecx
  01c5e	83 7d a8 06	 cmp	 DWORD PTR tv412[ebp], 6
  01c62	0f 87 79 01 00
	00		 ja	 $LN9@CGChangeCl@2
  01c68	8b 55 a8	 mov	 edx, DWORD PTR tv412[ebp]
  01c6b	ff 24 95 00 00
	00 00		 jmp	 DWORD PTR $LN83@CGChangeCl@2[edx*4]
$LN8@CGChangeCl@2:

; 746  : 					{
; 747  : 						case 0: lpUser->LevelUpPoint += lpUser->GReset * gGrandReset.AddPointsDW  * ( lpUser->Reset+1 ); break;

  01c72	8b 45 f8	 mov	 eax, DWORD PTR _lpUser$[ebp]
  01c75	8b 88 94 22 00
	00		 mov	 ecx, DWORD PTR [eax+8852]
  01c7b	0f af 0d 1c 00
	00 00		 imul	 ecx, DWORD PTR ?gGrandReset@@3VcGrandReset@@A+28
  01c82	8b 55 f8	 mov	 edx, DWORD PTR _lpUser$[ebp]
  01c85	8b 82 90 22 00
	00		 mov	 eax, DWORD PTR [edx+8848]
  01c8b	83 c0 01	 add	 eax, 1
  01c8e	0f af c8	 imul	 ecx, eax
  01c91	8b 55 f8	 mov	 edx, DWORD PTR _lpUser$[ebp]
  01c94	03 8a c0 00 00
	00		 add	 ecx, DWORD PTR [edx+192]
  01c9a	8b 45 f8	 mov	 eax, DWORD PTR _lpUser$[ebp]
  01c9d	89 88 c0 00 00
	00		 mov	 DWORD PTR [eax+192], ecx
  01ca3	e9 39 01 00 00	 jmp	 $LN9@CGChangeCl@2
$LN7@CGChangeCl@2:

; 748  : 						case 1: lpUser->LevelUpPoint += lpUser->GReset * gGrandReset.AddPointsDK  * ( lpUser->Reset+1 ); break;

  01ca8	8b 45 f8	 mov	 eax, DWORD PTR _lpUser$[ebp]
  01cab	8b 88 94 22 00
	00		 mov	 ecx, DWORD PTR [eax+8852]
  01cb1	0f af 0d 20 00
	00 00		 imul	 ecx, DWORD PTR ?gGrandReset@@3VcGrandReset@@A+32
  01cb8	8b 55 f8	 mov	 edx, DWORD PTR _lpUser$[ebp]
  01cbb	8b 82 90 22 00
	00		 mov	 eax, DWORD PTR [edx+8848]
  01cc1	83 c0 01	 add	 eax, 1
  01cc4	0f af c8	 imul	 ecx, eax
  01cc7	8b 55 f8	 mov	 edx, DWORD PTR _lpUser$[ebp]
  01cca	03 8a c0 00 00
	00		 add	 ecx, DWORD PTR [edx+192]
  01cd0	8b 45 f8	 mov	 eax, DWORD PTR _lpUser$[ebp]
  01cd3	89 88 c0 00 00
	00		 mov	 DWORD PTR [eax+192], ecx
  01cd9	e9 03 01 00 00	 jmp	 $LN9@CGChangeCl@2
$LN6@CGChangeCl@2:

; 749  : 						case 2: lpUser->LevelUpPoint += lpUser->GReset * gGrandReset.AddPointsELF * ( lpUser->Reset+1 ); break;

  01cde	8b 45 f8	 mov	 eax, DWORD PTR _lpUser$[ebp]
  01ce1	8b 88 94 22 00
	00		 mov	 ecx, DWORD PTR [eax+8852]
  01ce7	0f af 0d 24 00
	00 00		 imul	 ecx, DWORD PTR ?gGrandReset@@3VcGrandReset@@A+36
  01cee	8b 55 f8	 mov	 edx, DWORD PTR _lpUser$[ebp]
  01cf1	8b 82 90 22 00
	00		 mov	 eax, DWORD PTR [edx+8848]
  01cf7	83 c0 01	 add	 eax, 1
  01cfa	0f af c8	 imul	 ecx, eax
  01cfd	8b 55 f8	 mov	 edx, DWORD PTR _lpUser$[ebp]
  01d00	03 8a c0 00 00
	00		 add	 ecx, DWORD PTR [edx+192]
  01d06	8b 45 f8	 mov	 eax, DWORD PTR _lpUser$[ebp]
  01d09	89 88 c0 00 00
	00		 mov	 DWORD PTR [eax+192], ecx
  01d0f	e9 cd 00 00 00	 jmp	 $LN9@CGChangeCl@2
$LN5@CGChangeCl@2:

; 750  : 						case 3: lpUser->LevelUpPoint += lpUser->GReset * gGrandReset.AddPointsMG  * ( lpUser->Reset+1 ); break;

  01d14	8b 45 f8	 mov	 eax, DWORD PTR _lpUser$[ebp]
  01d17	8b 88 94 22 00
	00		 mov	 ecx, DWORD PTR [eax+8852]
  01d1d	0f af 0d 2c 00
	00 00		 imul	 ecx, DWORD PTR ?gGrandReset@@3VcGrandReset@@A+44
  01d24	8b 55 f8	 mov	 edx, DWORD PTR _lpUser$[ebp]
  01d27	8b 82 90 22 00
	00		 mov	 eax, DWORD PTR [edx+8848]
  01d2d	83 c0 01	 add	 eax, 1
  01d30	0f af c8	 imul	 ecx, eax
  01d33	8b 55 f8	 mov	 edx, DWORD PTR _lpUser$[ebp]
  01d36	03 8a c0 00 00
	00		 add	 ecx, DWORD PTR [edx+192]
  01d3c	8b 45 f8	 mov	 eax, DWORD PTR _lpUser$[ebp]
  01d3f	89 88 c0 00 00
	00		 mov	 DWORD PTR [eax+192], ecx
  01d45	e9 97 00 00 00	 jmp	 $LN9@CGChangeCl@2
$LN4@CGChangeCl@2:

; 751  : 						case 4: lpUser->LevelUpPoint += lpUser->GReset * gGrandReset.AddPointsDL  * ( lpUser->Reset+1 ); break;

  01d4a	8b 45 f8	 mov	 eax, DWORD PTR _lpUser$[ebp]
  01d4d	8b 88 94 22 00
	00		 mov	 ecx, DWORD PTR [eax+8852]
  01d53	0f af 0d 30 00
	00 00		 imul	 ecx, DWORD PTR ?gGrandReset@@3VcGrandReset@@A+48
  01d5a	8b 55 f8	 mov	 edx, DWORD PTR _lpUser$[ebp]
  01d5d	8b 82 90 22 00
	00		 mov	 eax, DWORD PTR [edx+8848]
  01d63	83 c0 01	 add	 eax, 1
  01d66	0f af c8	 imul	 ecx, eax
  01d69	8b 55 f8	 mov	 edx, DWORD PTR _lpUser$[ebp]
  01d6c	03 8a c0 00 00
	00		 add	 ecx, DWORD PTR [edx+192]
  01d72	8b 45 f8	 mov	 eax, DWORD PTR _lpUser$[ebp]
  01d75	89 88 c0 00 00
	00		 mov	 DWORD PTR [eax+192], ecx
  01d7b	eb 64		 jmp	 SHORT $LN9@CGChangeCl@2
$LN3@CGChangeCl@2:

; 752  : 						case 5: lpUser->LevelUpPoint += lpUser->GReset * gGrandReset.AddPointsSUM * ( lpUser->Reset+1 ); break;

  01d7d	8b 45 f8	 mov	 eax, DWORD PTR _lpUser$[ebp]
  01d80	8b 88 94 22 00
	00		 mov	 ecx, DWORD PTR [eax+8852]
  01d86	0f af 0d 28 00
	00 00		 imul	 ecx, DWORD PTR ?gGrandReset@@3VcGrandReset@@A+40
  01d8d	8b 55 f8	 mov	 edx, DWORD PTR _lpUser$[ebp]
  01d90	8b 82 90 22 00
	00		 mov	 eax, DWORD PTR [edx+8848]
  01d96	83 c0 01	 add	 eax, 1
  01d99	0f af c8	 imul	 ecx, eax
  01d9c	8b 55 f8	 mov	 edx, DWORD PTR _lpUser$[ebp]
  01d9f	03 8a c0 00 00
	00		 add	 ecx, DWORD PTR [edx+192]
  01da5	8b 45 f8	 mov	 eax, DWORD PTR _lpUser$[ebp]
  01da8	89 88 c0 00 00
	00		 mov	 DWORD PTR [eax+192], ecx
  01dae	eb 31		 jmp	 SHORT $LN9@CGChangeCl@2
$LN2@CGChangeCl@2:

; 753  : 						case 6: lpUser->LevelUpPoint += lpUser->GReset * gGrandReset.AddPointsRF * ( lpUser->Reset+1 ); break;

  01db0	8b 45 f8	 mov	 eax, DWORD PTR _lpUser$[ebp]
  01db3	8b 88 94 22 00
	00		 mov	 ecx, DWORD PTR [eax+8852]
  01db9	0f af 0d 34 00
	00 00		 imul	 ecx, DWORD PTR ?gGrandReset@@3VcGrandReset@@A+52
  01dc0	8b 55 f8	 mov	 edx, DWORD PTR _lpUser$[ebp]
  01dc3	8b 82 90 22 00
	00		 mov	 eax, DWORD PTR [edx+8848]
  01dc9	83 c0 01	 add	 eax, 1
  01dcc	0f af c8	 imul	 ecx, eax
  01dcf	8b 55 f8	 mov	 edx, DWORD PTR _lpUser$[ebp]
  01dd2	03 8a c0 00 00
	00		 add	 ecx, DWORD PTR [edx+192]
  01dd8	8b 45 f8	 mov	 eax, DWORD PTR _lpUser$[ebp]
  01ddb	89 88 c0 00 00
	00		 mov	 DWORD PTR [eax+192], ecx
$LN9@CGChangeCl@2:

; 754  : 					}
; 755  : 				}
; 756  : 			}
; 757  : 		}
; 758  : 
; 759  : 		lpUser->LevelUpPoint += lpUser->ExFreePoints;

  01de1	8b 45 f8	 mov	 eax, DWORD PTR _lpUser$[ebp]
  01de4	8b 88 c0 00 00
	00		 mov	 ecx, DWORD PTR [eax+192]
  01dea	8b 55 f8	 mov	 edx, DWORD PTR _lpUser$[ebp]
  01ded	03 8a 8c 22 00
	00		 add	 ecx, DWORD PTR [edx+8844]
  01df3	8b 45 f8	 mov	 eax, DWORD PTR _lpUser$[ebp]
  01df6	89 88 c0 00 00
	00		 mov	 DWORD PTR [eax+192], ecx

; 760  : 
; 761  : 
; 762  : 
; 763  : #endif
; 764  : 
; 765  : 	}
; 766  : 	else

  01dfc	eb 18		 jmp	 SHORT $LN1@CGChangeCl@2
$LN43@CGChangeCl@2:

; 767  : 	{
; 768  : 		memset(lpUser->m_Quest, 0xFF, sizeof(lpUser->m_Quest));

  01dfe	6a 32		 push	 50			; 00000032H
  01e00	68 ff 00 00 00	 push	 255			; 000000ffH
  01e05	8b 45 f8	 mov	 eax, DWORD PTR _lpUser$[ebp]
  01e08	05 8c 10 00 00	 add	 eax, 4236		; 0000108cH
  01e0d	50		 push	 eax
  01e0e	e8 00 00 00 00	 call	 _memset
  01e13	83 c4 0c	 add	 esp, 12			; 0000000cH
$LN1@CGChangeCl@2:

; 769  : 	}
; 770  : 
; 771  : 	// ---------------
; 772  : 	
; 773  : 	gObjCloseSet(aIndex, 2);

  01e16	6a 02		 push	 2
  01e18	8b 45 0c	 mov	 eax, DWORD PTR _aIndex$[ebp]
  01e1b	50		 push	 eax
  01e1c	e8 00 00 00 00	 call	 ?gObjCloseSet@@YAXHH@Z	; gObjCloseSet
  01e21	83 c4 08	 add	 esp, 8
$LN77@CGChangeCl@2:

; 774  : }

  01e24	5f		 pop	 edi
  01e25	5e		 pop	 esi
  01e26	5b		 pop	 ebx
  01e27	8b e5		 mov	 esp, ebp
  01e29	5d		 pop	 ebp
  01e2a	c2 08 00	 ret	 8
  01e2d	8d 49 00	 npad	 3
$LN81@CGChangeCl@2:
  01e30	00 00 00 00	 DD	 $LN32@CGChangeCl@2
  01e34	00 00 00 00	 DD	 $LN31@CGChangeCl@2
  01e38	00 00 00 00	 DD	 $LN30@CGChangeCl@2
  01e3c	00 00 00 00	 DD	 $LN29@CGChangeCl@2
  01e40	00 00 00 00	 DD	 $LN28@CGChangeCl@2
  01e44	00 00 00 00	 DD	 $LN27@CGChangeCl@2
  01e48	00 00 00 00	 DD	 $LN26@CGChangeCl@2
$LN82@CGChangeCl@2:
  01e4c	00 00 00 00	 DD	 $LN19@CGChangeCl@2
  01e50	00 00 00 00	 DD	 $LN18@CGChangeCl@2
  01e54	00 00 00 00	 DD	 $LN17@CGChangeCl@2
  01e58	00 00 00 00	 DD	 $LN16@CGChangeCl@2
  01e5c	00 00 00 00	 DD	 $LN15@CGChangeCl@2
  01e60	00 00 00 00	 DD	 $LN14@CGChangeCl@2
  01e64	00 00 00 00	 DD	 $LN13@CGChangeCl@2
$LN83@CGChangeCl@2:
  01e68	00 00 00 00	 DD	 $LN8@CGChangeCl@2
  01e6c	00 00 00 00	 DD	 $LN7@CGChangeCl@2
  01e70	00 00 00 00	 DD	 $LN6@CGChangeCl@2
  01e74	00 00 00 00	 DD	 $LN5@CGChangeCl@2
  01e78	00 00 00 00	 DD	 $LN4@CGChangeCl@2
  01e7c	00 00 00 00	 DD	 $LN3@CGChangeCl@2
  01e80	00 00 00 00	 DD	 $LN2@CGChangeCl@2
?CGChangeClass@cCreditDonate@@QAEXPAUPMSG_CG_CHANGECLASS@@H@Z ENDP ; cCreditDonate::CGChangeClass
_TEXT	ENDS
PUBLIC	?GetClassID@cCreditDonate@@QAEHHH@Z		; cCreditDonate::GetClassID
; Function compile flags: /Odtp /ZI
_TEXT	SEGMENT
_lpUser$ = -8						; size = 4
_this$ = -4						; size = 4
_aIndex$ = 8						; size = 4
_NewClass$ = 12						; size = 4
?GetClassID@cCreditDonate@@QAEHHH@Z PROC		; cCreditDonate::GetClassID
; _this$ = ecx

; 777  : {

  01e90	55		 push	 ebp
  01e91	8b ec		 mov	 ebp, esp
  01e93	83 ec 48	 sub	 esp, 72			; 00000048H
  01e96	53		 push	 ebx
  01e97	56		 push	 esi
  01e98	57		 push	 edi
  01e99	89 4d fc	 mov	 DWORD PTR _this$[ebp], ecx

; 778  : 	LPOBJ lpUser = &gObj[aIndex];

  01e9c	8b 45 08	 mov	 eax, DWORD PTR _aIndex$[ebp]
  01e9f	69 c0 38 2b 00
	00		 imul	 eax, 11064		; 00002b38H
  01ea5	03 05 00 00 00
	00		 add	 eax, DWORD PTR ?gObj@@3PAUOBJECTSTRUCT@@A ; gObj
  01eab	89 45 f8	 mov	 DWORD PTR _lpUser$[ebp], eax

; 779  : 
; 780  : 	if(NewClass == CLASS_WIZARD && lpUser->Class != CLASS_WIZARD)

  01eae	83 7d 0c 00	 cmp	 DWORD PTR _NewClass$[ebp], 0
  01eb2	75 1a		 jne	 SHORT $LN14@GetClassID
  01eb4	8b 45 f8	 mov	 eax, DWORD PTR _lpUser$[ebp]
  01eb7	0f b7 88 b8 00
	00 00		 movzx	 ecx, WORD PTR [eax+184]
  01ebe	85 c9		 test	 ecx, ecx
  01ec0	74 0c		 je	 SHORT $LN14@GetClassID

; 781  : 	{
; 782  : 		NewClass = 16;

  01ec2	c7 45 0c 10 00
	00 00		 mov	 DWORD PTR _NewClass$[ebp], 16 ; 00000010H
  01ec9	e9 ce 00 00 00	 jmp	 $LN15@GetClassID
$LN14@GetClassID:

; 783  : 	}
; 784  : 	else if(NewClass == CLASS_KNIGHT && lpUser->Class != CLASS_KNIGHT)

  01ece	83 7d 0c 01	 cmp	 DWORD PTR _NewClass$[ebp], 1
  01ed2	75 1b		 jne	 SHORT $LN12@GetClassID
  01ed4	8b 45 f8	 mov	 eax, DWORD PTR _lpUser$[ebp]
  01ed7	0f b7 88 b8 00
	00 00		 movzx	 ecx, WORD PTR [eax+184]
  01ede	83 f9 01	 cmp	 ecx, 1
  01ee1	74 0c		 je	 SHORT $LN12@GetClassID

; 785  : 	{
; 786  : 		NewClass = 16;

  01ee3	c7 45 0c 10 00
	00 00		 mov	 DWORD PTR _NewClass$[ebp], 16 ; 00000010H
  01eea	e9 ad 00 00 00	 jmp	 $LN15@GetClassID
$LN12@GetClassID:

; 787  : 	}
; 788  : 	else if(NewClass == CLASS_ELF && lpUser->Class != CLASS_ELF)

  01eef	83 7d 0c 02	 cmp	 DWORD PTR _NewClass$[ebp], 2
  01ef3	75 1b		 jne	 SHORT $LN10@GetClassID
  01ef5	8b 45 f8	 mov	 eax, DWORD PTR _lpUser$[ebp]
  01ef8	0f b7 88 b8 00
	00 00		 movzx	 ecx, WORD PTR [eax+184]
  01eff	83 f9 02	 cmp	 ecx, 2
  01f02	74 0c		 je	 SHORT $LN10@GetClassID

; 789  : 	{
; 790  : 		NewClass = 32;

  01f04	c7 45 0c 20 00
	00 00		 mov	 DWORD PTR _NewClass$[ebp], 32 ; 00000020H
  01f0b	e9 8c 00 00 00	 jmp	 $LN15@GetClassID
$LN10@GetClassID:

; 791  : 	}
; 792  : 	else if(NewClass == CLASS_MAGUMSA && lpUser->Class != CLASS_MAGUMSA)

  01f10	83 7d 0c 03	 cmp	 DWORD PTR _NewClass$[ebp], 3
  01f14	75 18		 jne	 SHORT $LN8@GetClassID
  01f16	8b 45 f8	 mov	 eax, DWORD PTR _lpUser$[ebp]
  01f19	0f b7 88 b8 00
	00 00		 movzx	 ecx, WORD PTR [eax+184]
  01f20	83 f9 03	 cmp	 ecx, 3
  01f23	74 09		 je	 SHORT $LN8@GetClassID

; 793  : 	{
; 794  : 		NewClass = 48;

  01f25	c7 45 0c 30 00
	00 00		 mov	 DWORD PTR _NewClass$[ebp], 48 ; 00000030H
  01f2c	eb 6e		 jmp	 SHORT $LN15@GetClassID
$LN8@GetClassID:

; 795  : 	}
; 796  : 	else if(NewClass == CLASS_DARKLORD && lpUser->Class != CLASS_DARKLORD)

  01f2e	83 7d 0c 04	 cmp	 DWORD PTR _NewClass$[ebp], 4
  01f32	75 18		 jne	 SHORT $LN6@GetClassID
  01f34	8b 45 f8	 mov	 eax, DWORD PTR _lpUser$[ebp]
  01f37	0f b7 88 b8 00
	00 00		 movzx	 ecx, WORD PTR [eax+184]
  01f3e	83 f9 04	 cmp	 ecx, 4
  01f41	74 09		 je	 SHORT $LN6@GetClassID

; 797  : 	{
; 798  : 		NewClass = 64;

  01f43	c7 45 0c 40 00
	00 00		 mov	 DWORD PTR _NewClass$[ebp], 64 ; 00000040H
  01f4a	eb 50		 jmp	 SHORT $LN15@GetClassID
$LN6@GetClassID:

; 799  : 	}		
; 800  : 	else if(NewClass == CLASS_SUMMONER && lpUser->Class != CLASS_SUMMONER)

  01f4c	83 7d 0c 05	 cmp	 DWORD PTR _NewClass$[ebp], 5
  01f50	75 18		 jne	 SHORT $LN4@GetClassID
  01f52	8b 45 f8	 mov	 eax, DWORD PTR _lpUser$[ebp]
  01f55	0f b7 88 b8 00
	00 00		 movzx	 ecx, WORD PTR [eax+184]
  01f5c	83 f9 05	 cmp	 ecx, 5
  01f5f	74 09		 je	 SHORT $LN4@GetClassID

; 801  : 	{
; 802  : 		NewClass = 80;

  01f61	c7 45 0c 50 00
	00 00		 mov	 DWORD PTR _NewClass$[ebp], 80 ; 00000050H
  01f68	eb 32		 jmp	 SHORT $LN15@GetClassID
$LN4@GetClassID:

; 803  : 	}
; 804  : 	else if(NewClass == CLASS_MONK && lpUser->Class != CLASS_MONK)

  01f6a	83 7d 0c 06	 cmp	 DWORD PTR _NewClass$[ebp], 6
  01f6e	75 18		 jne	 SHORT $LN2@GetClassID
  01f70	8b 45 f8	 mov	 eax, DWORD PTR _lpUser$[ebp]
  01f73	0f b7 88 b8 00
	00 00		 movzx	 ecx, WORD PTR [eax+184]
  01f7a	83 f9 06	 cmp	 ecx, 6
  01f7d	74 09		 je	 SHORT $LN2@GetClassID

; 805  : 	{
; 806  : 		NewClass = 96;

  01f7f	c7 45 0c 60 00
	00 00		 mov	 DWORD PTR _NewClass$[ebp], 96 ; 00000060H

; 807  : 	}
; 808  : 	else

  01f86	eb 14		 jmp	 SHORT $LN15@GetClassID
$LN2@GetClassID:

; 809  : 	{
; 810  : 		MsgOutput(aIndex,"[Change Class]: class busy");

  01f88	68 00 00 00 00	 push	 OFFSET ??_C@_0BL@KFFEMCK@?$FLChange?5Class?$FN?3?5class?5busy?$AA@
  01f8d	8b 45 08	 mov	 eax, DWORD PTR _aIndex$[ebp]
  01f90	50		 push	 eax
  01f91	e8 00 00 00 00	 call	 ?MsgOutput@@YAXHPADZZ	; MsgOutput
  01f96	83 c4 08	 add	 esp, 8

; 811  : 		return -1;

  01f99	83 c8 ff	 or	 eax, -1
$LN15@GetClassID:

; 812  : 	}
; 813  : }

  01f9c	5f		 pop	 edi
  01f9d	5e		 pop	 esi
  01f9e	5b		 pop	 ebx
  01f9f	8b e5		 mov	 esp, ebp
  01fa1	5d		 pop	 ebp
  01fa2	c2 08 00	 ret	 8
?GetClassID@cCreditDonate@@QAEHHH@Z ENDP		; cCreditDonate::GetClassID
_TEXT	ENDS
END
