; Listing generated by Microsoft (R) Optimizing Compiler Version 16.00.40219.01 

	TITLE	D:\Projects\ExTeam6.3\Source\GameServer\GameServer\CrywolfStatue.cpp
	.686P
	.XMM
	include listing.inc
	.model	flat

INCLUDELIB LIBCMT
INCLUDELIB OLDNAMES

_DATA	SEGMENT
_g_iNpcUpDfLevel_CGATE DD 01H
	DD	02H
	DD	02dc6c0H
	DD	02H
	DD	03H
	DD	02dc6c0H
	DD	03H
	DD	04H
	DD	02dc6c0H
_g_iNpcUpDfLevel_CSTATUE DD 01H
	DD	03H
	DD	02dc6c0H
	DD	02H
	DD	05H
	DD	02dc6c0H
	DD	03H
	DD	07H
	DD	02dc6c0H
_g_iNpcUpMaxHP_CGATE DD 02625a0H
	DD	02H
	DD	0f4240H
	DD	03567e0H
	DD	03H
	DD	0f4240H
	DD	04f5880H
	DD	04H
	DD	0f4240H
_g_iNpcUpMaxHP_CSTATUE DD 02191c0H
	DD	03H
	DD	0f4240H
	DD	033e140H
	DD	05H
	DD	0f4240H
	DD	04c4b40H
	DD	07H
	DD	0f4240H
_g_iNpcUpRgLevel_CSTATUE DD 01H
	DD	03H
	DD	04c4b40H
	DD	02H
	DD	05H
	DD	04c4b40H
	DD	03H
	DD	07H
	DD	04c4b40H
_g_iCsUserReSpawnArea DD 023H
	DD	011H
	DD	090H
	DD	030H
	DD	04aH
	DD	090H
	DD	073H
	DD	09aH
	DD	023H
	DD	011H
	DD	090H
	DD	030H
_g_iNpcDefense_CGATE DD 064H
	DD	0b4H
	DD	012cH
	DD	0208H
_g_iNpcDefense_CSTATUE DD 050H
	DD	0b4H
	DD	0154H
	DD	0226H
_g_iCastleWallStepAxisY DD 071H
	DD	0a0H
	DD	0cbH
_DATA	ENDS
PUBLIC	??_H@YGXPAXIHP6EPAX0@Z@Z			; `vector constructor iterator'
; Function compile flags: /Odtp /ZI
;	COMDAT ??_H@YGXPAXIHP6EPAX0@Z@Z
_TEXT	SEGMENT
___t$ = 8						; size = 4
___s$ = 12						; size = 4
___n$ = 16						; size = 4
___f$ = 20						; size = 4
??_H@YGXPAXIHP6EPAX0@Z@Z PROC				; `vector constructor iterator', COMDAT
  00000	55		 push	 ebp
  00001	8b ec		 mov	 ebp, esp
  00003	83 ec 40	 sub	 esp, 64			; 00000040H
  00006	53		 push	 ebx
  00007	56		 push	 esi
  00008	57		 push	 edi
$LN2@vector:
  00009	8b 45 10	 mov	 eax, DWORD PTR ___n$[ebp]
  0000c	83 e8 01	 sub	 eax, 1
  0000f	89 45 10	 mov	 DWORD PTR ___n$[ebp], eax
  00012	78 11		 js	 SHORT $LN3@vector
  00014	8b 4d 08	 mov	 ecx, DWORD PTR ___t$[ebp]
  00017	ff 55 14	 call	 DWORD PTR ___f$[ebp]
  0001a	8b 45 08	 mov	 eax, DWORD PTR ___t$[ebp]
  0001d	03 45 0c	 add	 eax, DWORD PTR ___s$[ebp]
  00020	89 45 08	 mov	 DWORD PTR ___t$[ebp], eax
  00023	eb e4		 jmp	 SHORT $LN2@vector
$LN3@vector:
  00025	5f		 pop	 edi
  00026	5e		 pop	 esi
  00027	5b		 pop	 ebx
  00028	8b e5		 mov	 esp, ebp
  0002a	5d		 pop	 ebp
  0002b	c2 10 00	 ret	 16			; 00000010H
??_H@YGXPAXIHP6EPAX0@Z@Z ENDP				; `vector constructor iterator'
_TEXT	ENDS
PUBLIC	??0CCrywolfShield@@QAE@XZ			; CCrywolfShield::CCrywolfShield
PUBLIC	??_7CCrywolfStatue@@6B@				; CCrywolfStatue::`vftable'
PUBLIC	??0CCrywolfStatue@@QAE@XZ			; CCrywolfStatue::CCrywolfStatue
PUBLIC	??_R4CCrywolfStatue@@6B@			; CCrywolfStatue::`RTTI Complete Object Locator'
PUBLIC	??_R0?AVCCrywolfStatue@@@8			; CCrywolfStatue `RTTI Type Descriptor'
PUBLIC	??_R3CCrywolfStatue@@8				; CCrywolfStatue::`RTTI Class Hierarchy Descriptor'
PUBLIC	??_R2CCrywolfStatue@@8				; CCrywolfStatue::`RTTI Base Class Array'
PUBLIC	??_R1A@?0A@EA@CCrywolfStatue@@8			; CCrywolfStatue::`RTTI Base Class Descriptor at (0,-1,0,64)'
EXTRN	??_7type_info@@6B@:QWORD			; type_info::`vftable'
EXTRN	??_ECCrywolfStatue@@UAEPAXI@Z:PROC		; CCrywolfStatue::`vector deleting destructor'
;	COMDAT ??_R1A@?0A@EA@CCrywolfStatue@@8
; File d:\projects\exteam6.3\source\gameserver\gameserver\crywolfstatue.cpp
rdata$r	SEGMENT
??_R1A@?0A@EA@CCrywolfStatue@@8 DD FLAT:??_R0?AVCCrywolfStatue@@@8 ; CCrywolfStatue::`RTTI Base Class Descriptor at (0,-1,0,64)'
	DD	00H
	DD	00H
	DD	0ffffffffH
	DD	00H
	DD	040H
	DD	FLAT:??_R3CCrywolfStatue@@8
rdata$r	ENDS
;	COMDAT ??_R2CCrywolfStatue@@8
rdata$r	SEGMENT
??_R2CCrywolfStatue@@8 DD FLAT:??_R1A@?0A@EA@CCrywolfStatue@@8 ; CCrywolfStatue::`RTTI Base Class Array'
rdata$r	ENDS
;	COMDAT ??_R3CCrywolfStatue@@8
rdata$r	SEGMENT
??_R3CCrywolfStatue@@8 DD 00H				; CCrywolfStatue::`RTTI Class Hierarchy Descriptor'
	DD	00H
	DD	01H
	DD	FLAT:??_R2CCrywolfStatue@@8
rdata$r	ENDS
;	COMDAT ??_R0?AVCCrywolfStatue@@@8
_DATA	SEGMENT
??_R0?AVCCrywolfStatue@@@8 DD FLAT:??_7type_info@@6B@	; CCrywolfStatue `RTTI Type Descriptor'
	DD	00H
	DB	'.?AVCCrywolfStatue@@', 00H
_DATA	ENDS
;	COMDAT ??_R4CCrywolfStatue@@6B@
rdata$r	SEGMENT
??_R4CCrywolfStatue@@6B@ DD 00H				; CCrywolfStatue::`RTTI Complete Object Locator'
	DD	00H
	DD	00H
	DD	FLAT:??_R0?AVCCrywolfStatue@@@8
	DD	FLAT:??_R3CCrywolfStatue@@8
rdata$r	ENDS
;	COMDAT ??_7CCrywolfStatue@@6B@
CONST	SEGMENT
??_7CCrywolfStatue@@6B@ DD FLAT:??_R4CCrywolfStatue@@6B@ ; CCrywolfStatue::`vftable'
	DD	FLAT:??_ECCrywolfStatue@@UAEPAXI@Z
; Function compile flags: /Odtp /ZI
CONST	ENDS
_TEXT	SEGMENT
_this$ = -4						; size = 4
??0CCrywolfStatue@@QAE@XZ PROC				; CCrywolfStatue::CCrywolfStatue
; _this$ = ecx

; 20   : {

  00000	55		 push	 ebp
  00001	8b ec		 mov	 ebp, esp
  00003	83 ec 44	 sub	 esp, 68			; 00000044H
  00006	53		 push	 ebx
  00007	56		 push	 esi
  00008	57		 push	 edi
  00009	89 4d fc	 mov	 DWORD PTR _this$[ebp], ecx
  0000c	8b 45 fc	 mov	 eax, DWORD PTR _this$[ebp]
  0000f	c7 00 00 00 00
	00		 mov	 DWORD PTR [eax], OFFSET ??_7CCrywolfStatue@@6B@
  00015	8b 4d fc	 mov	 ecx, DWORD PTR _this$[ebp]
  00018	83 c1 04	 add	 ecx, 4
  0001b	e8 00 00 00 00	 call	 ??0CCrywolfShield@@QAE@XZ ; CCrywolfShield::CCrywolfShield

; 21   : 
; 22   : }

  00020	8b 45 fc	 mov	 eax, DWORD PTR _this$[ebp]
  00023	5f		 pop	 edi
  00024	5e		 pop	 esi
  00025	5b		 pop	 ebx
  00026	8b e5		 mov	 esp, ebp
  00028	5d		 pop	 ebp
  00029	c3		 ret	 0
??0CCrywolfStatue@@QAE@XZ ENDP				; CCrywolfStatue::CCrywolfStatue
_TEXT	ENDS
PUBLIC	?Reset@CCrywolfShield@@QAEXXZ			; CCrywolfShield::Reset
; Function compile flags: /Odtp /ZI
; File d:\projects\exteam6.3\source\gameserver\gameserver\crywolfstatue.h
;	COMDAT ??0CCrywolfShield@@QAE@XZ
_TEXT	SEGMENT
_this$ = -4						; size = 4
??0CCrywolfShield@@QAE@XZ PROC				; CCrywolfShield::CCrywolfShield, COMDAT
; _this$ = ecx

; 19   : 	CCrywolfShield()

  00000	55		 push	 ebp
  00001	8b ec		 mov	 ebp, esp
  00003	83 ec 44	 sub	 esp, 68			; 00000044H
  00006	53		 push	 ebx
  00007	56		 push	 esi
  00008	57		 push	 edi
  00009	89 4d fc	 mov	 DWORD PTR _this$[ebp], ecx

; 20   : 	{
; 21   : 		this->Reset();

  0000c	8b 4d fc	 mov	 ecx, DWORD PTR _this$[ebp]
  0000f	e8 00 00 00 00	 call	 ?Reset@CCrywolfShield@@QAEXXZ ; CCrywolfShield::Reset

; 22   : 	}

  00014	8b 45 fc	 mov	 eax, DWORD PTR _this$[ebp]
  00017	5f		 pop	 edi
  00018	5e		 pop	 esi
  00019	5b		 pop	 ebx
  0001a	8b e5		 mov	 esp, ebp
  0001c	5d		 pop	 ebp
  0001d	c3		 ret	 0
??0CCrywolfShield@@QAE@XZ ENDP				; CCrywolfShield::CCrywolfShield
; Function compile flags: /Odtp /ZI
_TEXT	ENDS
;	COMDAT ?Reset@CCrywolfShield@@QAEXXZ
_TEXT	SEGMENT
_this$ = -4						; size = 4
?Reset@CCrywolfShield@@QAEXXZ PROC			; CCrywolfShield::Reset, COMDAT
; _this$ = ecx

; 25   : 	{

  00000	55		 push	 ebp
  00001	8b ec		 mov	 ebp, esp
  00003	83 ec 44	 sub	 esp, 68			; 00000044H
  00006	53		 push	 ebx
  00007	56		 push	 esi
  00008	57		 push	 edi
  00009	89 4d fc	 mov	 DWORD PTR _this$[ebp], ecx

; 26   : 		this->m_iPriestNumber = 0;

  0000c	8b 45 fc	 mov	 eax, DWORD PTR _this$[ebp]
  0000f	c7 40 0c 00 00
	00 00		 mov	 DWORD PTR [eax+12], 0

; 27   : 		this->m_iShieldHP = 0;	

  00016	8b 45 fc	 mov	 eax, DWORD PTR _this$[ebp]
  00019	c7 40 04 00 00
	00 00		 mov	 DWORD PTR [eax+4], 0

; 28   : 		this->m_iShieldMaxHP = 0;	

  00020	8b 45 fc	 mov	 eax, DWORD PTR _this$[ebp]
  00023	c7 00 00 00 00
	00		 mov	 DWORD PTR [eax], 0

; 29   : 		this->m_iShieldState = 0;	

  00029	8b 45 fc	 mov	 eax, DWORD PTR _this$[ebp]
  0002c	c7 40 08 00 00
	00 00		 mov	 DWORD PTR [eax+8], 0

; 30   : 	}

  00033	5f		 pop	 edi
  00034	5e		 pop	 esi
  00035	5b		 pop	 ebx
  00036	8b e5		 mov	 esp, ebp
  00038	5d		 pop	 ebp
  00039	c3		 ret	 0
?Reset@CCrywolfShield@@QAEXXZ ENDP			; CCrywolfShield::Reset
_TEXT	ENDS
PUBLIC	??1CCrywolfStatue@@UAE@XZ			; CCrywolfStatue::~CCrywolfStatue
EXTRN	??3@YAXPAX@Z:PROC				; operator delete
; Function compile flags: /Odtp /ZI
;	COMDAT ??_GCCrywolfStatue@@UAEPAXI@Z
_TEXT	SEGMENT
_this$ = -4						; size = 4
___flags$ = 8						; size = 4
??_GCCrywolfStatue@@UAEPAXI@Z PROC			; CCrywolfStatue::`scalar deleting destructor', COMDAT
; _this$ = ecx
  00000	55		 push	 ebp
  00001	8b ec		 mov	 ebp, esp
  00003	83 ec 44	 sub	 esp, 68			; 00000044H
  00006	53		 push	 ebx
  00007	56		 push	 esi
  00008	57		 push	 edi
  00009	89 4d fc	 mov	 DWORD PTR _this$[ebp], ecx
  0000c	8b 4d fc	 mov	 ecx, DWORD PTR _this$[ebp]
  0000f	e8 00 00 00 00	 call	 ??1CCrywolfStatue@@UAE@XZ ; CCrywolfStatue::~CCrywolfStatue
  00014	8b 45 08	 mov	 eax, DWORD PTR ___flags$[ebp]
  00017	83 e0 01	 and	 eax, 1
  0001a	74 0c		 je	 SHORT $LN1@scalar
  0001c	8b 45 fc	 mov	 eax, DWORD PTR _this$[ebp]
  0001f	50		 push	 eax
  00020	e8 00 00 00 00	 call	 ??3@YAXPAX@Z		; operator delete
  00025	83 c4 04	 add	 esp, 4
$LN1@scalar:
  00028	8b 45 fc	 mov	 eax, DWORD PTR _this$[ebp]
  0002b	5f		 pop	 edi
  0002c	5e		 pop	 esi
  0002d	5b		 pop	 ebx
  0002e	8b e5		 mov	 esp, ebp
  00030	5d		 pop	 ebp
  00031	c2 04 00	 ret	 4
??_GCCrywolfStatue@@UAEPAXI@Z ENDP			; CCrywolfStatue::`scalar deleting destructor'
; Function compile flags: /Odtp /ZI
; File d:\projects\exteam6.3\source\gameserver\gameserver\crywolfstatue.cpp
_TEXT	ENDS
_TEXT	SEGMENT
_this$ = -4						; size = 4
??1CCrywolfStatue@@UAE@XZ PROC				; CCrywolfStatue::~CCrywolfStatue
; _this$ = ecx

; 25   : {

  00030	55		 push	 ebp
  00031	8b ec		 mov	 ebp, esp
  00033	83 ec 44	 sub	 esp, 68			; 00000044H
  00036	53		 push	 ebx
  00037	56		 push	 esi
  00038	57		 push	 edi
  00039	89 4d fc	 mov	 DWORD PTR _this$[ebp], ecx
  0003c	8b 45 fc	 mov	 eax, DWORD PTR _this$[ebp]
  0003f	c7 00 00 00 00
	00		 mov	 DWORD PTR [eax], OFFSET ??_7CCrywolfStatue@@6B@

; 26   : 
; 27   : }

  00045	5f		 pop	 edi
  00046	5e		 pop	 esi
  00047	5b		 pop	 ebx
  00048	8b e5		 mov	 esp, ebp
  0004a	5d		 pop	 ebp
  0004b	c3		 ret	 0
??1CCrywolfStatue@@UAE@XZ ENDP				; CCrywolfStatue::~CCrywolfStatue
_TEXT	ENDS
PUBLIC	?GetStatueViewState@CCrywolfStatue@@QAEHH@Z	; CCrywolfStatue::GetStatueViewState
; Function compile flags: /Odtp /ZI
_TEXT	SEGMENT
tv64 = -76						; size = 4
_iViewState$ = -8					; size = 4
_this$ = -4						; size = 4
_iPriestNumber$ = 8					; size = 4
?GetStatueViewState@CCrywolfStatue@@QAEHH@Z PROC	; CCrywolfStatue::GetStatueViewState
; _this$ = ecx

; 30   : {

  00050	55		 push	 ebp
  00051	8b ec		 mov	 ebp, esp
  00053	83 ec 4c	 sub	 esp, 76			; 0000004cH
  00056	53		 push	 ebx
  00057	56		 push	 esi
  00058	57		 push	 edi
  00059	89 4d fc	 mov	 DWORD PTR _this$[ebp], ecx

; 31   : 	int iViewState = 0;

  0005c	c7 45 f8 00 00
	00 00		 mov	 DWORD PTR _iViewState$[ebp], 0

; 32   : 
; 33   : 	switch ( iPriestNumber )

  00063	8b 45 08	 mov	 eax, DWORD PTR _iPriestNumber$[ebp]
  00066	89 45 b4	 mov	 DWORD PTR tv64[ebp], eax
  00069	83 7d b4 05	 cmp	 DWORD PTR tv64[ebp], 5
  0006d	77 3e		 ja	 SHORT $LN7@GetStatueV
  0006f	8b 4d b4	 mov	 ecx, DWORD PTR tv64[ebp]
  00072	ff 24 8d 00 00
	00 00		 jmp	 DWORD PTR $LN11@GetStatueV[ecx*4]
$LN6@GetStatueV:

; 34   : 	{
; 35   : 		case 0:
; 36   : 			iViewState = 0;

  00079	c7 45 f8 00 00
	00 00		 mov	 DWORD PTR _iViewState$[ebp], 0

; 37   : 			break;

  00080	eb 2b		 jmp	 SHORT $LN7@GetStatueV
$LN5@GetStatueV:

; 38   : 		case 1:
; 39   : 			iViewState = 1;

  00082	c7 45 f8 01 00
	00 00		 mov	 DWORD PTR _iViewState$[ebp], 1

; 40   : 			break;

  00089	eb 22		 jmp	 SHORT $LN7@GetStatueV
$LN4@GetStatueV:

; 41   : 		case 2:
; 42   : 			iViewState = 2;

  0008b	c7 45 f8 02 00
	00 00		 mov	 DWORD PTR _iViewState$[ebp], 2

; 43   : 			break;

  00092	eb 19		 jmp	 SHORT $LN7@GetStatueV
$LN3@GetStatueV:

; 44   : 		case 3:
; 45   : 			iViewState = 4;

  00094	c7 45 f8 04 00
	00 00		 mov	 DWORD PTR _iViewState$[ebp], 4

; 46   : 			break;

  0009b	eb 10		 jmp	 SHORT $LN7@GetStatueV
$LN2@GetStatueV:

; 47   : 		case 4:
; 48   : 			iViewState = 8;

  0009d	c7 45 f8 08 00
	00 00		 mov	 DWORD PTR _iViewState$[ebp], 8

; 49   : 			break;

  000a4	eb 07		 jmp	 SHORT $LN7@GetStatueV
$LN1@GetStatueV:

; 50   : 		case 5:
; 51   : 			iViewState = 256;

  000a6	c7 45 f8 00 01
	00 00		 mov	 DWORD PTR _iViewState$[ebp], 256 ; 00000100H
$LN7@GetStatueV:

; 52   : 			break;
; 53   : 	}
; 54   : 
; 55   : 	return iViewState;

  000ad	8b 45 f8	 mov	 eax, DWORD PTR _iViewState$[ebp]

; 56   : }

  000b0	5f		 pop	 edi
  000b1	5e		 pop	 esi
  000b2	5b		 pop	 ebx
  000b3	8b e5		 mov	 esp, ebp
  000b5	5d		 pop	 ebp
  000b6	c2 04 00	 ret	 4
  000b9	8d 49 00	 npad	 3
$LN11@GetStatueV:
  000bc	00 00 00 00	 DD	 $LN6@GetStatueV
  000c0	00 00 00 00	 DD	 $LN5@GetStatueV
  000c4	00 00 00 00	 DD	 $LN4@GetStatueV
  000c8	00 00 00 00	 DD	 $LN3@GetStatueV
  000cc	00 00 00 00	 DD	 $LN2@GetStatueV
  000d0	00 00 00 00	 DD	 $LN1@GetStatueV
?GetStatueViewState@CCrywolfStatue@@QAEHH@Z ENDP	; CCrywolfStatue::GetStatueViewState
_TEXT	ENDS
PUBLIC	?SetStatueViewState@CCrywolfStatue@@QAEXPAUOBJECTSTRUCT@@H@Z ; CCrywolfStatue::SetStatueViewState
EXTRN	?gObjApplyBuffEffectDuration@@YAEPAUOBJECTSTRUCT@@HEHEHH@Z:PROC ; gObjApplyBuffEffectDuration
; Function compile flags: /Odtp /ZI
_TEXT	SEGMENT
tv64 = -72						; size = 4
_this$ = -4						; size = 4
_lpObj$ = 8						; size = 4
_iAltarNumber$ = 12					; size = 4
?SetStatueViewState@CCrywolfStatue@@QAEXPAUOBJECTSTRUCT@@H@Z PROC ; CCrywolfStatue::SetStatueViewState
; _this$ = ecx

; 59   : {

  000e0	55		 push	 ebp
  000e1	8b ec		 mov	 ebp, esp
  000e3	83 ec 48	 sub	 esp, 72			; 00000048H
  000e6	53		 push	 ebx
  000e7	56		 push	 esi
  000e8	57		 push	 edi
  000e9	89 4d fc	 mov	 DWORD PTR _this$[ebp], ecx

; 60   : 	switch ( iAltarNumber )

  000ec	8b 45 0c	 mov	 eax, DWORD PTR _iAltarNumber$[ebp]
  000ef	89 45 b8	 mov	 DWORD PTR tv64[ebp], eax
  000f2	8b 4d b8	 mov	 ecx, DWORD PTR tv64[ebp]
  000f5	83 e9 01	 sub	 ecx, 1
  000f8	89 4d b8	 mov	 DWORD PTR tv64[ebp], ecx
  000fb	83 7d b8 04	 cmp	 DWORD PTR tv64[ebp], 4
  000ff	0f 87 8a 00 00
	00		 ja	 $LN8@SetStatueV
  00105	8b 55 b8	 mov	 edx, DWORD PTR tv64[ebp]
  00108	ff 24 95 00 00
	00 00		 jmp	 DWORD PTR $LN10@SetStatueV[edx*4]
$LN5@SetStatueV:

; 61   : 	{
; 62   : 		case 1:
; 63   : 			gObjApplyBuffEffectDuration(lpObj, AT_CRYWOLF_PROTECTION1, 0, 0, 0, 0, -10);

  0010f	6a f6		 push	 -10			; fffffff6H
  00111	6a 00		 push	 0
  00113	6a 00		 push	 0
  00115	6a 00		 push	 0
  00117	6a 00		 push	 0
  00119	6a 42		 push	 66			; 00000042H
  0011b	8b 45 08	 mov	 eax, DWORD PTR _lpObj$[ebp]
  0011e	50		 push	 eax
  0011f	e8 00 00 00 00	 call	 ?gObjApplyBuffEffectDuration@@YAEPAUOBJECTSTRUCT@@HEHEHH@Z ; gObjApplyBuffEffectDuration
  00124	83 c4 1c	 add	 esp, 28			; 0000001cH

; 64   : 			break;

  00127	eb 66		 jmp	 SHORT $LN8@SetStatueV
$LN4@SetStatueV:

; 65   : 		case 2:
; 66   : 			gObjApplyBuffEffectDuration(lpObj, AT_CRYWOLF_PROTECTION2, 0, 0, 0, 0, -10);

  00129	6a f6		 push	 -10			; fffffff6H
  0012b	6a 00		 push	 0
  0012d	6a 00		 push	 0
  0012f	6a 00		 push	 0
  00131	6a 00		 push	 0
  00133	6a 43		 push	 67			; 00000043H
  00135	8b 45 08	 mov	 eax, DWORD PTR _lpObj$[ebp]
  00138	50		 push	 eax
  00139	e8 00 00 00 00	 call	 ?gObjApplyBuffEffectDuration@@YAEPAUOBJECTSTRUCT@@HEHEHH@Z ; gObjApplyBuffEffectDuration
  0013e	83 c4 1c	 add	 esp, 28			; 0000001cH

; 67   : 			break;

  00141	eb 4c		 jmp	 SHORT $LN8@SetStatueV
$LN3@SetStatueV:

; 68   : 		case 3:
; 69   : 			gObjApplyBuffEffectDuration(lpObj, AT_CRYWOLF_PROTECTION3, 0, 0, 0, 0, -10);

  00143	6a f6		 push	 -10			; fffffff6H
  00145	6a 00		 push	 0
  00147	6a 00		 push	 0
  00149	6a 00		 push	 0
  0014b	6a 00		 push	 0
  0014d	6a 44		 push	 68			; 00000044H
  0014f	8b 45 08	 mov	 eax, DWORD PTR _lpObj$[ebp]
  00152	50		 push	 eax
  00153	e8 00 00 00 00	 call	 ?gObjApplyBuffEffectDuration@@YAEPAUOBJECTSTRUCT@@HEHEHH@Z ; gObjApplyBuffEffectDuration
  00158	83 c4 1c	 add	 esp, 28			; 0000001cH

; 70   : 			break;

  0015b	eb 32		 jmp	 SHORT $LN8@SetStatueV
$LN2@SetStatueV:

; 71   : 		case 4:
; 72   : 			gObjApplyBuffEffectDuration(lpObj, AT_CRYWOLF_PROTECTION4, 0, 0, 0, 0, -10);

  0015d	6a f6		 push	 -10			; fffffff6H
  0015f	6a 00		 push	 0
  00161	6a 00		 push	 0
  00163	6a 00		 push	 0
  00165	6a 00		 push	 0
  00167	6a 45		 push	 69			; 00000045H
  00169	8b 45 08	 mov	 eax, DWORD PTR _lpObj$[ebp]
  0016c	50		 push	 eax
  0016d	e8 00 00 00 00	 call	 ?gObjApplyBuffEffectDuration@@YAEPAUOBJECTSTRUCT@@HEHEHH@Z ; gObjApplyBuffEffectDuration
  00172	83 c4 1c	 add	 esp, 28			; 0000001cH

; 73   : 			break;

  00175	eb 18		 jmp	 SHORT $LN8@SetStatueV
$LN1@SetStatueV:

; 74   : 		case 5:
; 75   : 			gObjApplyBuffEffectDuration(lpObj, AT_CRYWOLF_PROTECTION5, 0, 0, 0, 0, -10);

  00177	6a f6		 push	 -10			; fffffff6H
  00179	6a 00		 push	 0
  0017b	6a 00		 push	 0
  0017d	6a 00		 push	 0
  0017f	6a 00		 push	 0
  00181	6a 46		 push	 70			; 00000046H
  00183	8b 45 08	 mov	 eax, DWORD PTR _lpObj$[ebp]
  00186	50		 push	 eax
  00187	e8 00 00 00 00	 call	 ?gObjApplyBuffEffectDuration@@YAEPAUOBJECTSTRUCT@@HEHEHH@Z ; gObjApplyBuffEffectDuration
  0018c	83 c4 1c	 add	 esp, 28			; 0000001cH
$LN8@SetStatueV:

; 76   : 			break;
; 77   : 	}
; 78   : }

  0018f	5f		 pop	 edi
  00190	5e		 pop	 esi
  00191	5b		 pop	 ebx
  00192	8b e5		 mov	 esp, ebp
  00194	5d		 pop	 ebp
  00195	c2 08 00	 ret	 8
$LN10@SetStatueV:
  00198	00 00 00 00	 DD	 $LN5@SetStatueV
  0019c	00 00 00 00	 DD	 $LN4@SetStatueV
  001a0	00 00 00 00	 DD	 $LN3@SetStatueV
  001a4	00 00 00 00	 DD	 $LN2@SetStatueV
  001a8	00 00 00 00	 DD	 $LN1@SetStatueV
?SetStatueViewState@CCrywolfStatue@@QAEXPAUOBJECTSTRUCT@@H@Z ENDP ; CCrywolfStatue::SetStatueViewState
_TEXT	ENDS
PUBLIC	?CrywolfStatueAct@CCrywolfStatue@@QAEXH@Z	; CCrywolfStatue::CrywolfStatueAct
EXTRN	?SendCrywolfUserAnyMsg@CCrywolfUtil@@QAAXHPADZZ:PROC ; CCrywolfUtil::SendCrywolfUserAnyMsg
EXTRN	?Get@CMsg@@QAEPADH@Z:PROC			; CMsg::Get
EXTRN	?lMsg@@3VCMsg@@A:BYTE				; lMsg
EXTRN	?GetPriestMaxHPSum@CCrywolfAltar@@QAEHXZ:PROC	; CCrywolfAltar::GetPriestMaxHPSum
EXTRN	?GetPriestHPSum@CCrywolfAltar@@QAEHXZ:PROC	; CCrywolfAltar::GetPriestHPSum
EXTRN	?GetContractedAltarCount@CCrywolfAltar@@QAEHXZ:PROC ; CCrywolfAltar::GetContractedAltarCount
EXTRN	?g_CrywolfNPC_Altar@@3VCCrywolfAltar@@A:BYTE	; g_CrywolfNPC_Altar
EXTRN	?gObj@@3PAUOBJECTSTRUCT@@A:DWORD		; gObj
EXTRN	?gObjIsConnected@@YAHH@Z:PROC			; gObjIsConnected
; Function compile flags: /Odtp /ZI
_TEXT	SEGMENT
_iPriestMaxHPSum$ = -20					; size = 4
_iPriestHPSum$ = -16					; size = 4
_iContractedAlterCount$ = -12				; size = 4
_lpObj$ = -8						; size = 4
_this$ = -4						; size = 4
_iIndex$ = 8						; size = 4
?CrywolfStatueAct@CCrywolfStatue@@QAEXH@Z PROC		; CCrywolfStatue::CrywolfStatueAct
; _this$ = ecx

; 81   : {

  001b0	55		 push	 ebp
  001b1	8b ec		 mov	 ebp, esp
  001b3	83 ec 54	 sub	 esp, 84			; 00000054H
  001b6	53		 push	 ebx
  001b7	56		 push	 esi
  001b8	57		 push	 edi
  001b9	89 4d fc	 mov	 DWORD PTR _this$[ebp], ecx

; 82   : 	if ( !gObjIsConnected(iIndex))

  001bc	8b 45 08	 mov	 eax, DWORD PTR _iIndex$[ebp]
  001bf	50		 push	 eax
  001c0	e8 00 00 00 00	 call	 ?gObjIsConnected@@YAHH@Z ; gObjIsConnected
  001c5	83 c4 04	 add	 esp, 4
  001c8	85 c0		 test	 eax, eax
  001ca	75 05		 jne	 SHORT $LN12@CrywolfSta

; 83   : 		return;

  001cc	e9 00 02 00 00	 jmp	 $LN13@CrywolfSta
$LN12@CrywolfSta:

; 84   : 
; 85   : 	if ( gObj[iIndex].Type != OBJ_NPC || CHECK_CLASS(204, gObj[iIndex].Class) == FALSE )

  001d1	8b 45 08	 mov	 eax, DWORD PTR _iIndex$[ebp]
  001d4	69 c0 38 2b 00
	00		 imul	 eax, 11064		; 00002b38H
  001da	8b 0d 00 00 00
	00		 mov	 ecx, DWORD PTR ?gObj@@3PAUOBJECTSTRUCT@@A ; gObj
  001e0	0f b7 54 01 68	 movzx	 edx, WORD PTR [ecx+eax+104]
  001e5	83 fa 03	 cmp	 edx, 3
  001e8	75 26		 jne	 SHORT $LN10@CrywolfSta
  001ea	8b 45 08	 mov	 eax, DWORD PTR _iIndex$[ebp]
  001ed	69 c0 38 2b 00
	00		 imul	 eax, 11064		; 00002b38H
  001f3	8b 0d 00 00 00
	00		 mov	 ecx, DWORD PTR ?gObj@@3PAUOBJECTSTRUCT@@A ; gObj
  001f9	0f b7 94 01 b8
	00 00 00	 movzx	 edx, WORD PTR [ecx+eax+184]
  00201	33 c0		 xor	 eax, eax
  00203	81 fa cc 00 00
	00		 cmp	 edx, 204		; 000000ccH
  00209	0f 94 c0	 sete	 al
  0020c	85 c0		 test	 eax, eax
  0020e	75 05		 jne	 SHORT $LN11@CrywolfSta
$LN10@CrywolfSta:

; 86   : 		return;

  00210	e9 bc 01 00 00	 jmp	 $LN13@CrywolfSta
$LN11@CrywolfSta:

; 87   : 
; 88   : 	LPOBJ lpObj = &gObj[iIndex];

  00215	8b 45 08	 mov	 eax, DWORD PTR _iIndex$[ebp]
  00218	69 c0 38 2b 00
	00		 imul	 eax, 11064		; 00002b38H
  0021e	03 05 00 00 00
	00		 add	 eax, DWORD PTR ?gObj@@3PAUOBJECTSTRUCT@@A ; gObj
  00224	89 45 f8	 mov	 DWORD PTR _lpObj$[ebp], eax

; 89   : 	int iContractedAlterCount = g_CrywolfNPC_Altar.GetContractedAltarCount();

  00227	b9 00 00 00 00	 mov	 ecx, OFFSET ?g_CrywolfNPC_Altar@@3VCCrywolfAltar@@A ; g_CrywolfNPC_Altar
  0022c	e8 00 00 00 00	 call	 ?GetContractedAltarCount@CCrywolfAltar@@QAEHXZ ; CCrywolfAltar::GetContractedAltarCount
  00231	89 45 f4	 mov	 DWORD PTR _iContractedAlterCount$[ebp], eax

; 90   : 	int iPriestHPSum = g_CrywolfNPC_Altar.GetPriestHPSum();

  00234	b9 00 00 00 00	 mov	 ecx, OFFSET ?g_CrywolfNPC_Altar@@3VCCrywolfAltar@@A ; g_CrywolfNPC_Altar
  00239	e8 00 00 00 00	 call	 ?GetPriestHPSum@CCrywolfAltar@@QAEHXZ ; CCrywolfAltar::GetPriestHPSum
  0023e	89 45 f0	 mov	 DWORD PTR _iPriestHPSum$[ebp], eax

; 91   : 	int iPriestMaxHPSum = g_CrywolfNPC_Altar.GetPriestMaxHPSum();

  00241	b9 00 00 00 00	 mov	 ecx, OFFSET ?g_CrywolfNPC_Altar@@3VCCrywolfAltar@@A ; g_CrywolfNPC_Altar
  00246	e8 00 00 00 00	 call	 ?GetPriestMaxHPSum@CCrywolfAltar@@QAEHXZ ; CCrywolfAltar::GetPriestMaxHPSum
  0024b	89 45 ec	 mov	 DWORD PTR _iPriestMaxHPSum$[ebp], eax

; 92   : 
; 93   : 	if ( iContractedAlterCount == 0 || this->m_Shield.m_iShieldHP == 0 )

  0024e	83 7d f4 00	 cmp	 DWORD PTR _iContractedAlterCount$[ebp], 0
  00252	74 0d		 je	 SHORT $LN8@CrywolfSta
  00254	8b 45 fc	 mov	 eax, DWORD PTR _this$[ebp]
  00257	83 78 08 00	 cmp	 DWORD PTR [eax+8], 0
  0025b	0f 85 cf 00 00
	00		 jne	 $LN9@CrywolfSta
$LN8@CrywolfSta:

; 94   : 	{
; 95   : 		if ( this->m_Shield.m_iShieldState == 1 )

  00261	8b 45 fc	 mov	 eax, DWORD PTR _this$[ebp]
  00264	83 78 0c 01	 cmp	 DWORD PTR [eax+12], 1
  00268	75 58		 jne	 SHORT $LN7@CrywolfSta

; 96   : 		{
; 97   : 			UTIL.SendCrywolfUserAnyMsg(2, lMsg.Get(MSGGET(13, 5)));

  0026a	68 05 0d 00 00	 push	 3333			; 00000d05H
  0026f	b9 00 00 00 00	 mov	 ecx, OFFSET ?lMsg@@3VCMsg@@A ; lMsg
  00274	e8 00 00 00 00	 call	 ?Get@CMsg@@QAEPADH@Z	; CMsg::Get
  00279	50		 push	 eax
  0027a	6a 02		 push	 2
  0027c	68 00 00 00 00	 push	 OFFSET _UTIL
  00281	e8 00 00 00 00	 call	 ?SendCrywolfUserAnyMsg@CCrywolfUtil@@QAAXHPADZZ ; CCrywolfUtil::SendCrywolfUserAnyMsg
  00286	83 c4 0c	 add	 esp, 12			; 0000000cH

; 98   : 			this->m_Shield.m_iShieldState = 0;

  00289	8b 45 fc	 mov	 eax, DWORD PTR _this$[ebp]
  0028c	c7 40 0c 00 00
	00 00		 mov	 DWORD PTR [eax+12], 0

; 99   : 			this->m_Shield.m_iShieldHP = 0;

  00293	8b 45 fc	 mov	 eax, DWORD PTR _this$[ebp]
  00296	c7 40 08 00 00
	00 00		 mov	 DWORD PTR [eax+8], 0

; 100  : 			this->m_Shield.m_iShieldMaxHP = 0;

  0029d	8b 45 fc	 mov	 eax, DWORD PTR _this$[ebp]
  002a0	c7 40 04 00 00
	00 00		 mov	 DWORD PTR [eax+4], 0

; 101  : 			this->m_Shield.m_iPriestNumber = iContractedAlterCount;

  002a7	8b 45 fc	 mov	 eax, DWORD PTR _this$[ebp]
  002aa	8b 4d f4	 mov	 ecx, DWORD PTR _iContractedAlterCount$[ebp]
  002ad	89 48 10	 mov	 DWORD PTR [eax+16], ecx

; 102  : 			this->SetStatueViewState(lpObj, iContractedAlterCount); //season 3.0 add-on

  002b0	8b 45 f4	 mov	 eax, DWORD PTR _iContractedAlterCount$[ebp]
  002b3	50		 push	 eax
  002b4	8b 4d f8	 mov	 ecx, DWORD PTR _lpObj$[ebp]
  002b7	51		 push	 ecx
  002b8	8b 4d fc	 mov	 ecx, DWORD PTR _this$[ebp]
  002bb	e8 00 00 00 00	 call	 ?SetStatueViewState@CCrywolfStatue@@QAEXPAUOBJECTSTRUCT@@H@Z ; CCrywolfStatue::SetStatueViewState
  002c0	eb 67		 jmp	 SHORT $LN6@CrywolfSta
$LN7@CrywolfSta:

; 103  : 		}
; 104  : 		else if ( this->m_Shield.m_iPriestNumber != iContractedAlterCount )

  002c2	8b 45 fc	 mov	 eax, DWORD PTR _this$[ebp]
  002c5	8b 48 10	 mov	 ecx, DWORD PTR [eax+16]
  002c8	3b 4d f4	 cmp	 ecx, DWORD PTR _iContractedAlterCount$[ebp]
  002cb	74 5c		 je	 SHORT $LN6@CrywolfSta

; 105  : 		{
; 106  : 			this->m_Shield.m_iShieldState = 1;

  002cd	8b 45 fc	 mov	 eax, DWORD PTR _this$[ebp]
  002d0	c7 40 0c 01 00
	00 00		 mov	 DWORD PTR [eax+12], 1

; 107  : 			this->m_Shield.m_iShieldHP = iPriestHPSum;

  002d7	8b 45 fc	 mov	 eax, DWORD PTR _this$[ebp]
  002da	8b 4d f0	 mov	 ecx, DWORD PTR _iPriestHPSum$[ebp]
  002dd	89 48 08	 mov	 DWORD PTR [eax+8], ecx

; 108  : 			this->m_Shield.m_iShieldMaxHP = iPriestMaxHPSum;

  002e0	8b 45 fc	 mov	 eax, DWORD PTR _this$[ebp]
  002e3	8b 4d ec	 mov	 ecx, DWORD PTR _iPriestMaxHPSum$[ebp]
  002e6	89 48 04	 mov	 DWORD PTR [eax+4], ecx

; 109  : 			this->m_Shield.m_iPriestNumber = iContractedAlterCount;

  002e9	8b 45 fc	 mov	 eax, DWORD PTR _this$[ebp]
  002ec	8b 4d f4	 mov	 ecx, DWORD PTR _iContractedAlterCount$[ebp]
  002ef	89 48 10	 mov	 DWORD PTR [eax+16], ecx

; 110  : 			UTIL.SendCrywolfUserAnyMsg(2, lMsg.Get(MSGGET(13, 6)), iContractedAlterCount, iPriestHPSum);

  002f2	8b 45 f0	 mov	 eax, DWORD PTR _iPriestHPSum$[ebp]
  002f5	50		 push	 eax
  002f6	8b 4d f4	 mov	 ecx, DWORD PTR _iContractedAlterCount$[ebp]
  002f9	51		 push	 ecx
  002fa	68 06 0d 00 00	 push	 3334			; 00000d06H
  002ff	b9 00 00 00 00	 mov	 ecx, OFFSET ?lMsg@@3VCMsg@@A ; lMsg
  00304	e8 00 00 00 00	 call	 ?Get@CMsg@@QAEPADH@Z	; CMsg::Get
  00309	50		 push	 eax
  0030a	6a 02		 push	 2
  0030c	68 00 00 00 00	 push	 OFFSET _UTIL
  00311	e8 00 00 00 00	 call	 ?SendCrywolfUserAnyMsg@CCrywolfUtil@@QAAXHPADZZ ; CCrywolfUtil::SendCrywolfUserAnyMsg
  00316	83 c4 14	 add	 esp, 20			; 00000014H

; 111  : 			this->SetStatueViewState(lpObj, iContractedAlterCount); //season 3.0 add-on

  00319	8b 45 f4	 mov	 eax, DWORD PTR _iContractedAlterCount$[ebp]
  0031c	50		 push	 eax
  0031d	8b 4d f8	 mov	 ecx, DWORD PTR _lpObj$[ebp]
  00320	51		 push	 ecx
  00321	8b 4d fc	 mov	 ecx, DWORD PTR _this$[ebp]
  00324	e8 00 00 00 00	 call	 ?SetStatueViewState@CCrywolfStatue@@QAEXPAUOBJECTSTRUCT@@H@Z ; CCrywolfStatue::SetStatueViewState
$LN6@CrywolfSta:

; 112  : 		}
; 113  : 		return;

  00329	e9 a3 00 00 00	 jmp	 $LN13@CrywolfSta
  0032e	eb 7c		 jmp	 SHORT $LN4@CrywolfSta
$LN9@CrywolfSta:

; 114  : 	}
; 115  : 	else if ( this->m_Shield.m_iShieldState == 0 )

  00330	8b 45 fc	 mov	 eax, DWORD PTR _this$[ebp]
  00333	83 78 0c 00	 cmp	 DWORD PTR [eax+12], 0
  00337	75 31		 jne	 SHORT $LN3@CrywolfSta

; 116  : 	{
; 117  : 		UTIL.SendCrywolfUserAnyMsg(2, lMsg.Get(MSGGET(13, 7)));

  00339	68 07 0d 00 00	 push	 3335			; 00000d07H
  0033e	b9 00 00 00 00	 mov	 ecx, OFFSET ?lMsg@@3VCMsg@@A ; lMsg
  00343	e8 00 00 00 00	 call	 ?Get@CMsg@@QAEPADH@Z	; CMsg::Get
  00348	50		 push	 eax
  00349	6a 02		 push	 2
  0034b	68 00 00 00 00	 push	 OFFSET _UTIL
  00350	e8 00 00 00 00	 call	 ?SendCrywolfUserAnyMsg@CCrywolfUtil@@QAAXHPADZZ ; CCrywolfUtil::SendCrywolfUserAnyMsg
  00355	83 c4 0c	 add	 esp, 12			; 0000000cH

; 118  : 		this->SetStatueViewState(lpObj, iContractedAlterCount); //season 3.0 add-on

  00358	8b 45 f4	 mov	 eax, DWORD PTR _iContractedAlterCount$[ebp]
  0035b	50		 push	 eax
  0035c	8b 4d f8	 mov	 ecx, DWORD PTR _lpObj$[ebp]
  0035f	51		 push	 ecx
  00360	8b 4d fc	 mov	 ecx, DWORD PTR _this$[ebp]
  00363	e8 00 00 00 00	 call	 ?SetStatueViewState@CCrywolfStatue@@QAEXPAUOBJECTSTRUCT@@H@Z ; CCrywolfStatue::SetStatueViewState
  00368	eb 42		 jmp	 SHORT $LN4@CrywolfSta
$LN3@CrywolfSta:

; 119  : 	}
; 120  : 	else if ( this->m_Shield.m_iPriestNumber != iContractedAlterCount )

  0036a	8b 45 fc	 mov	 eax, DWORD PTR _this$[ebp]
  0036d	8b 48 10	 mov	 ecx, DWORD PTR [eax+16]
  00370	3b 4d f4	 cmp	 ecx, DWORD PTR _iContractedAlterCount$[ebp]
  00373	74 37		 je	 SHORT $LN4@CrywolfSta

; 121  : 	{
; 122  : 		UTIL.SendCrywolfUserAnyMsg(2, lMsg.Get(MSGGET(13, 6)), iContractedAlterCount, iPriestHPSum);

  00375	8b 45 f0	 mov	 eax, DWORD PTR _iPriestHPSum$[ebp]
  00378	50		 push	 eax
  00379	8b 4d f4	 mov	 ecx, DWORD PTR _iContractedAlterCount$[ebp]
  0037c	51		 push	 ecx
  0037d	68 06 0d 00 00	 push	 3334			; 00000d06H
  00382	b9 00 00 00 00	 mov	 ecx, OFFSET ?lMsg@@3VCMsg@@A ; lMsg
  00387	e8 00 00 00 00	 call	 ?Get@CMsg@@QAEPADH@Z	; CMsg::Get
  0038c	50		 push	 eax
  0038d	6a 02		 push	 2
  0038f	68 00 00 00 00	 push	 OFFSET _UTIL
  00394	e8 00 00 00 00	 call	 ?SendCrywolfUserAnyMsg@CCrywolfUtil@@QAAXHPADZZ ; CCrywolfUtil::SendCrywolfUserAnyMsg
  00399	83 c4 14	 add	 esp, 20			; 00000014H

; 123  : 		this->SetStatueViewState(lpObj, iContractedAlterCount); //season 3.0 add-on

  0039c	8b 45 f4	 mov	 eax, DWORD PTR _iContractedAlterCount$[ebp]
  0039f	50		 push	 eax
  003a0	8b 4d f8	 mov	 ecx, DWORD PTR _lpObj$[ebp]
  003a3	51		 push	 ecx
  003a4	8b 4d fc	 mov	 ecx, DWORD PTR _this$[ebp]
  003a7	e8 00 00 00 00	 call	 ?SetStatueViewState@CCrywolfStatue@@QAEXPAUOBJECTSTRUCT@@H@Z ; CCrywolfStatue::SetStatueViewState
$LN4@CrywolfSta:

; 124  : 	}
; 125  : 
; 126  : 	this->m_Shield.m_iShieldState = 1;

  003ac	8b 45 fc	 mov	 eax, DWORD PTR _this$[ebp]
  003af	c7 40 0c 01 00
	00 00		 mov	 DWORD PTR [eax+12], 1

; 127  : 	this->m_Shield.m_iShieldHP = iPriestHPSum;

  003b6	8b 45 fc	 mov	 eax, DWORD PTR _this$[ebp]
  003b9	8b 4d f0	 mov	 ecx, DWORD PTR _iPriestHPSum$[ebp]
  003bc	89 48 08	 mov	 DWORD PTR [eax+8], ecx

; 128  : 	this->m_Shield.m_iShieldMaxHP = iPriestMaxHPSum;

  003bf	8b 45 fc	 mov	 eax, DWORD PTR _this$[ebp]
  003c2	8b 4d ec	 mov	 ecx, DWORD PTR _iPriestMaxHPSum$[ebp]
  003c5	89 48 04	 mov	 DWORD PTR [eax+4], ecx

; 129  : 	this->m_Shield.m_iPriestNumber = iContractedAlterCount;

  003c8	8b 45 fc	 mov	 eax, DWORD PTR _this$[ebp]
  003cb	8b 4d f4	 mov	 ecx, DWORD PTR _iContractedAlterCount$[ebp]
  003ce	89 48 10	 mov	 DWORD PTR [eax+16], ecx
$LN13@CrywolfSta:

; 130  : }

  003d1	5f		 pop	 edi
  003d2	5e		 pop	 esi
  003d3	5b		 pop	 ebx
  003d4	8b e5		 mov	 esp, ebp
  003d6	5d		 pop	 ebp
  003d7	c2 04 00	 ret	 4
?CrywolfStatueAct@CCrywolfStatue@@QAEXH@Z ENDP		; CCrywolfStatue::CrywolfStatueAct
_TEXT	ENDS
EXTRN	_atexit:PROC
EXTRN	??0CCrywolfUtil@@QAE@XZ:PROC			; CCrywolfUtil::CCrywolfUtil
; Function compile flags: /Odtp /ZI
;	COMDAT ??__EUTIL@@YAXXZ
text$yc	SEGMENT
??__EUTIL@@YAXXZ PROC					; `dynamic initializer for 'UTIL'', COMDAT

; 13   : static CCrywolfUtil UTIL;

  00000	55		 push	 ebp
  00001	8b ec		 mov	 ebp, esp
  00003	83 ec 40	 sub	 esp, 64			; 00000040H
  00006	53		 push	 ebx
  00007	56		 push	 esi
  00008	57		 push	 edi
  00009	b9 00 00 00 00	 mov	 ecx, OFFSET _UTIL
  0000e	e8 00 00 00 00	 call	 ??0CCrywolfUtil@@QAE@XZ	; CCrywolfUtil::CCrywolfUtil
  00013	68 00 00 00 00	 push	 OFFSET ??__FUTIL@@YAXXZ	; `dynamic atexit destructor for 'UTIL''
  00018	e8 00 00 00 00	 call	 _atexit
  0001d	83 c4 04	 add	 esp, 4
  00020	5f		 pop	 edi
  00021	5e		 pop	 esi
  00022	5b		 pop	 ebx
  00023	8b e5		 mov	 esp, ebp
  00025	5d		 pop	 ebp
  00026	c3		 ret	 0
??__EUTIL@@YAXXZ ENDP					; `dynamic initializer for 'UTIL''
; Function compile flags: /Odtp /ZI
text$yc	ENDS
;	COMDAT ??__Eg_CrywolfNPC_Statue@@YAXXZ
text$yc	SEGMENT
??__Eg_CrywolfNPC_Statue@@YAXXZ PROC			; `dynamic initializer for 'g_CrywolfNPC_Statue'', COMDAT

; 14   : CCrywolfStatue g_CrywolfNPC_Statue;

  00000	55		 push	 ebp
  00001	8b ec		 mov	 ebp, esp
  00003	83 ec 40	 sub	 esp, 64			; 00000040H
  00006	53		 push	 ebx
  00007	56		 push	 esi
  00008	57		 push	 edi
  00009	b9 00 00 00 00	 mov	 ecx, OFFSET ?g_CrywolfNPC_Statue@@3VCCrywolfStatue@@A ; g_CrywolfNPC_Statue
  0000e	e8 00 00 00 00	 call	 ??0CCrywolfStatue@@QAE@XZ ; CCrywolfStatue::CCrywolfStatue
  00013	68 00 00 00 00	 push	 OFFSET ??__Fg_CrywolfNPC_Statue@@YAXXZ ; `dynamic atexit destructor for 'g_CrywolfNPC_Statue''
  00018	e8 00 00 00 00	 call	 _atexit
  0001d	83 c4 04	 add	 esp, 4
  00020	5f		 pop	 edi
  00021	5e		 pop	 esi
  00022	5b		 pop	 ebx
  00023	8b e5		 mov	 esp, ebp
  00025	5d		 pop	 ebp
  00026	c3		 ret	 0
??__Eg_CrywolfNPC_Statue@@YAXXZ ENDP			; `dynamic initializer for 'g_CrywolfNPC_Statue''
text$yc	ENDS
EXTRN	??1CCrywolfUtil@@UAE@XZ:PROC			; CCrywolfUtil::~CCrywolfUtil
; Function compile flags: /Odtp /ZI
;	COMDAT ??__FUTIL@@YAXXZ
text$yd	SEGMENT
??__FUTIL@@YAXXZ PROC					; `dynamic atexit destructor for 'UTIL'', COMDAT
  00000	55		 push	 ebp
  00001	8b ec		 mov	 ebp, esp
  00003	83 ec 40	 sub	 esp, 64			; 00000040H
  00006	53		 push	 ebx
  00007	56		 push	 esi
  00008	57		 push	 edi
  00009	b9 00 00 00 00	 mov	 ecx, OFFSET _UTIL
  0000e	e8 00 00 00 00	 call	 ??1CCrywolfUtil@@UAE@XZ	; CCrywolfUtil::~CCrywolfUtil
  00013	5f		 pop	 edi
  00014	5e		 pop	 esi
  00015	5b		 pop	 ebx
  00016	8b e5		 mov	 esp, ebp
  00018	5d		 pop	 ebp
  00019	c3		 ret	 0
??__FUTIL@@YAXXZ ENDP					; `dynamic atexit destructor for 'UTIL''
; Function compile flags: /Odtp /ZI
text$yd	ENDS
;	COMDAT ??__Fg_CrywolfNPC_Statue@@YAXXZ
text$yd	SEGMENT
??__Fg_CrywolfNPC_Statue@@YAXXZ PROC			; `dynamic atexit destructor for 'g_CrywolfNPC_Statue'', COMDAT
  00000	55		 push	 ebp
  00001	8b ec		 mov	 ebp, esp
  00003	83 ec 40	 sub	 esp, 64			; 00000040H
  00006	53		 push	 ebx
  00007	56		 push	 esi
  00008	57		 push	 edi
  00009	b9 00 00 00 00	 mov	 ecx, OFFSET ?g_CrywolfNPC_Statue@@3VCCrywolfStatue@@A ; g_CrywolfNPC_Statue
  0000e	e8 00 00 00 00	 call	 ??1CCrywolfStatue@@UAE@XZ ; CCrywolfStatue::~CCrywolfStatue
  00013	5f		 pop	 edi
  00014	5e		 pop	 esi
  00015	5b		 pop	 ebx
  00016	8b e5		 mov	 esp, ebp
  00018	5d		 pop	 ebp
  00019	c3		 ret	 0
??__Fg_CrywolfNPC_Statue@@YAXXZ ENDP			; `dynamic atexit destructor for 'g_CrywolfNPC_Statue''
text$yd	ENDS
PUBLIC	?g_CrywolfNPC_Statue@@3VCCrywolfStatue@@A	; g_CrywolfNPC_Statue
_BSS	SEGMENT
?g_CrywolfNPC_Statue@@3VCCrywolfStatue@@A DB 014H DUP (?) ; g_CrywolfNPC_Statue
_UTIL	DD	01H DUP (?)
_BSS	ENDS
CRT$XCU	SEGMENT
_UTIL$initializer$ DD FLAT:??__EUTIL@@YAXXZ
_g_CrywolfNPC_Statue$initializer$ DD FLAT:??__Eg_CrywolfNPC_Statue@@YAXXZ
CRT$XCU	ENDS
END
