; Listing generated by Microsoft (R) Optimizing Compiler Version 16.00.40219.01 

	TITLE	D:\Projects\ExTeam6.3\Source\GameServer\GameServer\CrywolfDarkElf.cpp
	.686P
	.XMM
	include listing.inc
	.model	flat

INCLUDELIB LIBCMT
INCLUDELIB OLDNAMES

PUBLIC	??_7CCrywolfDarkElf@@6B@			; CCrywolfDarkElf::`vftable'
PUBLIC	??0CCrywolfDarkElf@@QAE@XZ			; CCrywolfDarkElf::CCrywolfDarkElf
PUBLIC	??_R4CCrywolfDarkElf@@6B@			; CCrywolfDarkElf::`RTTI Complete Object Locator'
PUBLIC	??_R0?AVCCrywolfDarkElf@@@8			; CCrywolfDarkElf `RTTI Type Descriptor'
PUBLIC	??_R3CCrywolfDarkElf@@8				; CCrywolfDarkElf::`RTTI Class Hierarchy Descriptor'
PUBLIC	??_R2CCrywolfDarkElf@@8				; CCrywolfDarkElf::`RTTI Base Class Array'
PUBLIC	??_R1A@?0A@EA@CCrywolfDarkElf@@8		; CCrywolfDarkElf::`RTTI Base Class Descriptor at (0,-1,0,64)'
EXTRN	??_7type_info@@6B@:QWORD			; type_info::`vftable'
EXTRN	??_ECCrywolfDarkElf@@UAEPAXI@Z:PROC		; CCrywolfDarkElf::`vector deleting destructor'
;	COMDAT ??_R1A@?0A@EA@CCrywolfDarkElf@@8
; File d:\projects\exteam6.3\source\gameserver\gameserver\crywolfdarkelf.cpp
rdata$r	SEGMENT
??_R1A@?0A@EA@CCrywolfDarkElf@@8 DD FLAT:??_R0?AVCCrywolfDarkElf@@@8 ; CCrywolfDarkElf::`RTTI Base Class Descriptor at (0,-1,0,64)'
	DD	00H
	DD	00H
	DD	0ffffffffH
	DD	00H
	DD	040H
	DD	FLAT:??_R3CCrywolfDarkElf@@8
rdata$r	ENDS
;	COMDAT ??_R2CCrywolfDarkElf@@8
rdata$r	SEGMENT
??_R2CCrywolfDarkElf@@8 DD FLAT:??_R1A@?0A@EA@CCrywolfDarkElf@@8 ; CCrywolfDarkElf::`RTTI Base Class Array'
rdata$r	ENDS
;	COMDAT ??_R3CCrywolfDarkElf@@8
rdata$r	SEGMENT
??_R3CCrywolfDarkElf@@8 DD 00H				; CCrywolfDarkElf::`RTTI Class Hierarchy Descriptor'
	DD	00H
	DD	01H
	DD	FLAT:??_R2CCrywolfDarkElf@@8
rdata$r	ENDS
;	COMDAT ??_R0?AVCCrywolfDarkElf@@@8
_DATA	SEGMENT
??_R0?AVCCrywolfDarkElf@@@8 DD FLAT:??_7type_info@@6B@	; CCrywolfDarkElf `RTTI Type Descriptor'
	DD	00H
	DB	'.?AVCCrywolfDarkElf@@', 00H
_DATA	ENDS
;	COMDAT ??_R4CCrywolfDarkElf@@6B@
rdata$r	SEGMENT
??_R4CCrywolfDarkElf@@6B@ DD 00H			; CCrywolfDarkElf::`RTTI Complete Object Locator'
	DD	00H
	DD	00H
	DD	FLAT:??_R0?AVCCrywolfDarkElf@@@8
	DD	FLAT:??_R3CCrywolfDarkElf@@8
rdata$r	ENDS
;	COMDAT ??_7CCrywolfDarkElf@@6B@
CONST	SEGMENT
??_7CCrywolfDarkElf@@6B@ DD FLAT:??_R4CCrywolfDarkElf@@6B@ ; CCrywolfDarkElf::`vftable'
	DD	FLAT:??_ECCrywolfDarkElf@@UAEPAXI@Z
; Function compile flags: /Odtp /ZI
CONST	ENDS
_TEXT	SEGMENT
_this$ = -4						; size = 4
??0CCrywolfDarkElf@@QAE@XZ PROC				; CCrywolfDarkElf::CCrywolfDarkElf
; _this$ = ecx

; 14   : {

  00000	55		 push	 ebp
  00001	8b ec		 mov	 ebp, esp
  00003	83 ec 44	 sub	 esp, 68			; 00000044H
  00006	53		 push	 ebx
  00007	56		 push	 esi
  00008	57		 push	 edi
  00009	89 4d fc	 mov	 DWORD PTR _this$[ebp], ecx
  0000c	8b 45 fc	 mov	 eax, DWORD PTR _this$[ebp]
  0000f	c7 00 00 00 00
	00		 mov	 DWORD PTR [eax], OFFSET ??_7CCrywolfDarkElf@@6B@

; 15   : 	return;
; 16   : }

  00015	8b 45 fc	 mov	 eax, DWORD PTR _this$[ebp]
  00018	5f		 pop	 edi
  00019	5e		 pop	 esi
  0001a	5b		 pop	 ebx
  0001b	8b e5		 mov	 esp, ebp
  0001d	5d		 pop	 ebp
  0001e	c3		 ret	 0
??0CCrywolfDarkElf@@QAE@XZ ENDP				; CCrywolfDarkElf::CCrywolfDarkElf
_TEXT	ENDS
PUBLIC	??1CCrywolfDarkElf@@UAE@XZ			; CCrywolfDarkElf::~CCrywolfDarkElf
EXTRN	??3@YAXPAX@Z:PROC				; operator delete
; Function compile flags: /Odtp /ZI
;	COMDAT ??_GCCrywolfDarkElf@@UAEPAXI@Z
_TEXT	SEGMENT
_this$ = -4						; size = 4
___flags$ = 8						; size = 4
??_GCCrywolfDarkElf@@UAEPAXI@Z PROC			; CCrywolfDarkElf::`scalar deleting destructor', COMDAT
; _this$ = ecx
  00000	55		 push	 ebp
  00001	8b ec		 mov	 ebp, esp
  00003	83 ec 44	 sub	 esp, 68			; 00000044H
  00006	53		 push	 ebx
  00007	56		 push	 esi
  00008	57		 push	 edi
  00009	89 4d fc	 mov	 DWORD PTR _this$[ebp], ecx
  0000c	8b 4d fc	 mov	 ecx, DWORD PTR _this$[ebp]
  0000f	e8 00 00 00 00	 call	 ??1CCrywolfDarkElf@@UAE@XZ ; CCrywolfDarkElf::~CCrywolfDarkElf
  00014	8b 45 08	 mov	 eax, DWORD PTR ___flags$[ebp]
  00017	83 e0 01	 and	 eax, 1
  0001a	74 0c		 je	 SHORT $LN1@scalar
  0001c	8b 45 fc	 mov	 eax, DWORD PTR _this$[ebp]
  0001f	50		 push	 eax
  00020	e8 00 00 00 00	 call	 ??3@YAXPAX@Z		; operator delete
  00025	83 c4 04	 add	 esp, 4
$LN1@scalar:
  00028	8b 45 fc	 mov	 eax, DWORD PTR _this$[ebp]
  0002b	5f		 pop	 edi
  0002c	5e		 pop	 esi
  0002d	5b		 pop	 ebx
  0002e	8b e5		 mov	 esp, ebp
  00030	5d		 pop	 ebp
  00031	c2 04 00	 ret	 4
??_GCCrywolfDarkElf@@UAEPAXI@Z ENDP			; CCrywolfDarkElf::`scalar deleting destructor'
; Function compile flags: /Odtp /ZI
_TEXT	ENDS
_TEXT	SEGMENT
_this$ = -4						; size = 4
??1CCrywolfDarkElf@@UAE@XZ PROC				; CCrywolfDarkElf::~CCrywolfDarkElf
; _this$ = ecx

; 19   : {

  00020	55		 push	 ebp
  00021	8b ec		 mov	 ebp, esp
  00023	83 ec 44	 sub	 esp, 68			; 00000044H
  00026	53		 push	 ebx
  00027	56		 push	 esi
  00028	57		 push	 edi
  00029	89 4d fc	 mov	 DWORD PTR _this$[ebp], ecx
  0002c	8b 45 fc	 mov	 eax, DWORD PTR _this$[ebp]
  0002f	c7 00 00 00 00
	00		 mov	 DWORD PTR [eax], OFFSET ??_7CCrywolfDarkElf@@6B@

; 20   : 	return;
; 21   : }

  00035	5f		 pop	 edi
  00036	5e		 pop	 esi
  00037	5b		 pop	 ebx
  00038	8b e5		 mov	 esp, ebp
  0003a	5d		 pop	 ebp
  0003b	c3		 ret	 0
??1CCrywolfDarkElf@@UAE@XZ ENDP				; CCrywolfDarkElf::~CCrywolfDarkElf
_TEXT	ENDS
PUBLIC	?CrywolfDarkElfAct@CCrywolfDarkElf@@QAEXH@Z	; CCrywolfDarkElf::CrywolfDarkElfAct
; Function compile flags: /Odtp /ZI
_TEXT	SEGMENT
_this$ = -4						; size = 4
_iIndex$ = 8						; size = 4
?CrywolfDarkElfAct@CCrywolfDarkElf@@QAEXH@Z PROC	; CCrywolfDarkElf::CrywolfDarkElfAct
; _this$ = ecx

; 25   : {

  00040	55		 push	 ebp
  00041	8b ec		 mov	 ebp, esp
  00043	83 ec 44	 sub	 esp, 68			; 00000044H
  00046	53		 push	 ebx
  00047	56		 push	 esi
  00048	57		 push	 edi
  00049	89 4d fc	 mov	 DWORD PTR _this$[ebp], ecx

; 26   : 
; 27   : 	return;
; 28   : }

  0004c	5f		 pop	 edi
  0004d	5e		 pop	 esi
  0004e	5b		 pop	 ebx
  0004f	8b e5		 mov	 esp, ebp
  00051	5d		 pop	 ebp
  00052	c2 04 00	 ret	 4
?CrywolfDarkElfAct@CCrywolfDarkElf@@QAEXH@Z ENDP	; CCrywolfDarkElf::CrywolfDarkElfAct
_TEXT	ENDS
EXTRN	_atexit:PROC
; Function compile flags: /Odtp /ZI
;	COMDAT ??__Eg_CrywolfMON_DarkElf@@YAXXZ
text$yc	SEGMENT
??__Eg_CrywolfMON_DarkElf@@YAXXZ PROC			; `dynamic initializer for 'g_CrywolfMON_DarkElf'', COMDAT

; 8    : CCrywolfDarkElf g_CrywolfMON_DarkElf;

  00000	55		 push	 ebp
  00001	8b ec		 mov	 ebp, esp
  00003	83 ec 40	 sub	 esp, 64			; 00000040H
  00006	53		 push	 ebx
  00007	56		 push	 esi
  00008	57		 push	 edi
  00009	b9 00 00 00 00	 mov	 ecx, OFFSET ?g_CrywolfMON_DarkElf@@3VCCrywolfDarkElf@@A ; g_CrywolfMON_DarkElf
  0000e	e8 00 00 00 00	 call	 ??0CCrywolfDarkElf@@QAE@XZ ; CCrywolfDarkElf::CCrywolfDarkElf
  00013	68 00 00 00 00	 push	 OFFSET ??__Fg_CrywolfMON_DarkElf@@YAXXZ ; `dynamic atexit destructor for 'g_CrywolfMON_DarkElf''
  00018	e8 00 00 00 00	 call	 _atexit
  0001d	83 c4 04	 add	 esp, 4
  00020	5f		 pop	 edi
  00021	5e		 pop	 esi
  00022	5b		 pop	 ebx
  00023	8b e5		 mov	 esp, ebp
  00025	5d		 pop	 ebp
  00026	c3		 ret	 0
??__Eg_CrywolfMON_DarkElf@@YAXXZ ENDP			; `dynamic initializer for 'g_CrywolfMON_DarkElf''
; Function compile flags: /Odtp /ZI
text$yc	ENDS
;	COMDAT ??__Fg_CrywolfMON_DarkElf@@YAXXZ
text$yd	SEGMENT
??__Fg_CrywolfMON_DarkElf@@YAXXZ PROC			; `dynamic atexit destructor for 'g_CrywolfMON_DarkElf'', COMDAT
  00000	55		 push	 ebp
  00001	8b ec		 mov	 ebp, esp
  00003	83 ec 40	 sub	 esp, 64			; 00000040H
  00006	53		 push	 ebx
  00007	56		 push	 esi
  00008	57		 push	 edi
  00009	b9 00 00 00 00	 mov	 ecx, OFFSET ?g_CrywolfMON_DarkElf@@3VCCrywolfDarkElf@@A ; g_CrywolfMON_DarkElf
  0000e	e8 00 00 00 00	 call	 ??1CCrywolfDarkElf@@UAE@XZ ; CCrywolfDarkElf::~CCrywolfDarkElf
  00013	5f		 pop	 edi
  00014	5e		 pop	 esi
  00015	5b		 pop	 ebx
  00016	8b e5		 mov	 esp, ebp
  00018	5d		 pop	 ebp
  00019	c3		 ret	 0
??__Fg_CrywolfMON_DarkElf@@YAXXZ ENDP			; `dynamic atexit destructor for 'g_CrywolfMON_DarkElf''
text$yd	ENDS
PUBLIC	?g_CrywolfMON_DarkElf@@3VCCrywolfDarkElf@@A	; g_CrywolfMON_DarkElf
_BSS	SEGMENT
?g_CrywolfMON_DarkElf@@3VCCrywolfDarkElf@@A DD 01H DUP (?) ; g_CrywolfMON_DarkElf
_BSS	ENDS
CRT$XCU	SEGMENT
_g_CrywolfMON_DarkElf$initializer$ DD FLAT:??__Eg_CrywolfMON_DarkElf@@YAXXZ
CRT$XCU	ENDS
END
