; Listing generated by Microsoft (R) Optimizing Compiler Version 16.00.40219.01 

	TITLE	D:\Projects\ExTeam6.3\Source\GameServer\GameServer\CustomSystem.cpp
	.686P
	.XMM
	include listing.inc
	.model	flat

INCLUDELIB LIBCMT
INCLUDELIB OLDNAMES

_DATA	SEGMENT
_g_iNpcUpDfLevel_CGATE DD 01H
	DD	02H
	DD	02dc6c0H
	DD	02H
	DD	03H
	DD	02dc6c0H
	DD	03H
	DD	04H
	DD	02dc6c0H
_g_iNpcUpDfLevel_CSTATUE DD 01H
	DD	03H
	DD	02dc6c0H
	DD	02H
	DD	05H
	DD	02dc6c0H
	DD	03H
	DD	07H
	DD	02dc6c0H
_g_iNpcUpMaxHP_CGATE DD 02625a0H
	DD	02H
	DD	0f4240H
	DD	03567e0H
	DD	03H
	DD	0f4240H
	DD	04f5880H
	DD	04H
	DD	0f4240H
_g_iNpcUpMaxHP_CSTATUE DD 02191c0H
	DD	03H
	DD	0f4240H
	DD	033e140H
	DD	05H
	DD	0f4240H
	DD	04c4b40H
	DD	07H
	DD	0f4240H
_g_iNpcUpRgLevel_CSTATUE DD 01H
	DD	03H
	DD	04c4b40H
	DD	02H
	DD	05H
	DD	04c4b40H
	DD	03H
	DD	07H
	DD	04c4b40H
_g_iCsUserReSpawnArea DD 023H
	DD	011H
	DD	090H
	DD	030H
	DD	04aH
	DD	090H
	DD	073H
	DD	09aH
	DD	023H
	DD	011H
	DD	090H
	DD	030H
_g_iNpcDefense_CGATE DD 064H
	DD	0b4H
	DD	012cH
	DD	0208H
_g_iNpcDefense_CSTATUE DD 050H
	DD	0b4H
	DD	0154H
	DD	0226H
_g_iCastleWallStepAxisY DD 071H
	DD	0a0H
	DD	0cbH
_DATA	ENDS
PUBLIC	??_H@YGXPAXIHP6EPAX0@Z@Z			; `vector constructor iterator'
; Function compile flags: /Odtp /ZI
;	COMDAT ??_H@YGXPAXIHP6EPAX0@Z@Z
_TEXT	SEGMENT
___t$ = 8						; size = 4
___s$ = 12						; size = 4
___n$ = 16						; size = 4
___f$ = 20						; size = 4
??_H@YGXPAXIHP6EPAX0@Z@Z PROC				; `vector constructor iterator', COMDAT
  00000	55		 push	 ebp
  00001	8b ec		 mov	 ebp, esp
  00003	83 ec 40	 sub	 esp, 64			; 00000040H
  00006	53		 push	 ebx
  00007	56		 push	 esi
  00008	57		 push	 edi
$LN2@vector:
  00009	8b 45 10	 mov	 eax, DWORD PTR ___n$[ebp]
  0000c	83 e8 01	 sub	 eax, 1
  0000f	89 45 10	 mov	 DWORD PTR ___n$[ebp], eax
  00012	78 11		 js	 SHORT $LN3@vector
  00014	8b 4d 08	 mov	 ecx, DWORD PTR ___t$[ebp]
  00017	ff 55 14	 call	 DWORD PTR ___f$[ebp]
  0001a	8b 45 08	 mov	 eax, DWORD PTR ___t$[ebp]
  0001d	03 45 0c	 add	 eax, DWORD PTR ___s$[ebp]
  00020	89 45 08	 mov	 DWORD PTR ___t$[ebp], eax
  00023	eb e4		 jmp	 SHORT $LN2@vector
$LN3@vector:
  00025	5f		 pop	 edi
  00026	5e		 pop	 esi
  00027	5b		 pop	 ebx
  00028	8b e5		 mov	 esp, ebp
  0002a	5d		 pop	 ebp
  0002b	c2 10 00	 ret	 16			; 00000010H
??_H@YGXPAXIHP6EPAX0@Z@Z ENDP				; `vector constructor iterator'
_TEXT	ENDS
PUBLIC	??_7CCustomSystem@@6B@				; CCustomSystem::`vftable'
PUBLIC	??0CCustomSystem@@QAE@XZ			; CCustomSystem::CCustomSystem
PUBLIC	??_R4CCustomSystem@@6B@				; CCustomSystem::`RTTI Complete Object Locator'
PUBLIC	??_R0?AVCCustomSystem@@@8			; CCustomSystem `RTTI Type Descriptor'
PUBLIC	??_R3CCustomSystem@@8				; CCustomSystem::`RTTI Class Hierarchy Descriptor'
PUBLIC	??_R2CCustomSystem@@8				; CCustomSystem::`RTTI Base Class Array'
PUBLIC	??_R1A@?0A@EA@CCustomSystem@@8			; CCustomSystem::`RTTI Base Class Descriptor at (0,-1,0,64)'
EXTRN	??_7type_info@@6B@:QWORD			; type_info::`vftable'
EXTRN	??_ECCustomSystem@@UAEPAXI@Z:PROC		; CCustomSystem::`vector deleting destructor'
;	COMDAT ??_R1A@?0A@EA@CCustomSystem@@8
; File d:\projects\exteam6.3\source\gameserver\gameserver\customsystem.cpp
rdata$r	SEGMENT
??_R1A@?0A@EA@CCustomSystem@@8 DD FLAT:??_R0?AVCCustomSystem@@@8 ; CCustomSystem::`RTTI Base Class Descriptor at (0,-1,0,64)'
	DD	00H
	DD	00H
	DD	0ffffffffH
	DD	00H
	DD	040H
	DD	FLAT:??_R3CCustomSystem@@8
rdata$r	ENDS
;	COMDAT ??_R2CCustomSystem@@8
rdata$r	SEGMENT
??_R2CCustomSystem@@8 DD FLAT:??_R1A@?0A@EA@CCustomSystem@@8 ; CCustomSystem::`RTTI Base Class Array'
rdata$r	ENDS
;	COMDAT ??_R3CCustomSystem@@8
rdata$r	SEGMENT
??_R3CCustomSystem@@8 DD 00H				; CCustomSystem::`RTTI Class Hierarchy Descriptor'
	DD	00H
	DD	01H
	DD	FLAT:??_R2CCustomSystem@@8
rdata$r	ENDS
;	COMDAT ??_R0?AVCCustomSystem@@@8
_DATA	SEGMENT
??_R0?AVCCustomSystem@@@8 DD FLAT:??_7type_info@@6B@	; CCustomSystem `RTTI Type Descriptor'
	DD	00H
	DB	'.?AVCCustomSystem@@', 00H
_DATA	ENDS
;	COMDAT ??_R4CCustomSystem@@6B@
rdata$r	SEGMENT
??_R4CCustomSystem@@6B@ DD 00H				; CCustomSystem::`RTTI Complete Object Locator'
	DD	00H
	DD	00H
	DD	FLAT:??_R0?AVCCustomSystem@@@8
	DD	FLAT:??_R3CCustomSystem@@8
rdata$r	ENDS
;	COMDAT ??_7CCustomSystem@@6B@
CONST	SEGMENT
??_7CCustomSystem@@6B@ DD FLAT:??_R4CCustomSystem@@6B@	; CCustomSystem::`vftable'
	DD	FLAT:??_ECCustomSystem@@UAEPAXI@Z
; Function compile flags: /Odtp /ZI
CONST	ENDS
_TEXT	SEGMENT
_this$ = -4						; size = 4
??0CCustomSystem@@QAE@XZ PROC				; CCustomSystem::CCustomSystem
; _this$ = ecx

; 9    : {

  00000	55		 push	 ebp
  00001	8b ec		 mov	 ebp, esp
  00003	83 ec 44	 sub	 esp, 68			; 00000044H
  00006	53		 push	 ebx
  00007	56		 push	 esi
  00008	57		 push	 edi
  00009	89 4d fc	 mov	 DWORD PTR _this$[ebp], ecx
  0000c	8b 45 fc	 mov	 eax, DWORD PTR _this$[ebp]
  0000f	c7 00 00 00 00
	00		 mov	 DWORD PTR [eax], OFFSET ??_7CCustomSystem@@6B@

; 10   : }

  00015	8b 45 fc	 mov	 eax, DWORD PTR _this$[ebp]
  00018	5f		 pop	 edi
  00019	5e		 pop	 esi
  0001a	5b		 pop	 ebx
  0001b	8b e5		 mov	 esp, ebp
  0001d	5d		 pop	 ebp
  0001e	c3		 ret	 0
??0CCustomSystem@@QAE@XZ ENDP				; CCustomSystem::CCustomSystem
_TEXT	ENDS
PUBLIC	??1CCustomSystem@@UAE@XZ			; CCustomSystem::~CCustomSystem
EXTRN	??3@YAXPAX@Z:PROC				; operator delete
; Function compile flags: /Odtp /ZI
;	COMDAT ??_GCCustomSystem@@UAEPAXI@Z
_TEXT	SEGMENT
_this$ = -4						; size = 4
___flags$ = 8						; size = 4
??_GCCustomSystem@@UAEPAXI@Z PROC			; CCustomSystem::`scalar deleting destructor', COMDAT
; _this$ = ecx
  00000	55		 push	 ebp
  00001	8b ec		 mov	 ebp, esp
  00003	83 ec 44	 sub	 esp, 68			; 00000044H
  00006	53		 push	 ebx
  00007	56		 push	 esi
  00008	57		 push	 edi
  00009	89 4d fc	 mov	 DWORD PTR _this$[ebp], ecx
  0000c	8b 4d fc	 mov	 ecx, DWORD PTR _this$[ebp]
  0000f	e8 00 00 00 00	 call	 ??1CCustomSystem@@UAE@XZ ; CCustomSystem::~CCustomSystem
  00014	8b 45 08	 mov	 eax, DWORD PTR ___flags$[ebp]
  00017	83 e0 01	 and	 eax, 1
  0001a	74 0c		 je	 SHORT $LN1@scalar
  0001c	8b 45 fc	 mov	 eax, DWORD PTR _this$[ebp]
  0001f	50		 push	 eax
  00020	e8 00 00 00 00	 call	 ??3@YAXPAX@Z		; operator delete
  00025	83 c4 04	 add	 esp, 4
$LN1@scalar:
  00028	8b 45 fc	 mov	 eax, DWORD PTR _this$[ebp]
  0002b	5f		 pop	 edi
  0002c	5e		 pop	 esi
  0002d	5b		 pop	 ebx
  0002e	8b e5		 mov	 esp, ebp
  00030	5d		 pop	 ebp
  00031	c2 04 00	 ret	 4
??_GCCustomSystem@@UAEPAXI@Z ENDP			; CCustomSystem::`scalar deleting destructor'
; Function compile flags: /Odtp /ZI
_TEXT	ENDS
_TEXT	SEGMENT
_this$ = -4						; size = 4
??1CCustomSystem@@UAE@XZ PROC				; CCustomSystem::~CCustomSystem
; _this$ = ecx

; 14   : {

  00020	55		 push	 ebp
  00021	8b ec		 mov	 ebp, esp
  00023	83 ec 44	 sub	 esp, 68			; 00000044H
  00026	53		 push	 ebx
  00027	56		 push	 esi
  00028	57		 push	 edi
  00029	89 4d fc	 mov	 DWORD PTR _this$[ebp], ecx
  0002c	8b 45 fc	 mov	 eax, DWORD PTR _this$[ebp]
  0002f	c7 00 00 00 00
	00		 mov	 DWORD PTR [eax], OFFSET ??_7CCustomSystem@@6B@

; 15   : }

  00035	5f		 pop	 edi
  00036	5e		 pop	 esi
  00037	5b		 pop	 ebx
  00038	8b e5		 mov	 esp, ebp
  0003a	5d		 pop	 ebp
  0003b	c3		 ret	 0
??1CCustomSystem@@UAE@XZ ENDP				; CCustomSystem::~CCustomSystem
_TEXT	ENDS
PUBLIC	?Init@CCustomSystem@@QAEXXZ			; CCustomSystem::Init
; Function compile flags: /Odtp /ZI
_TEXT	SEGMENT
_this$ = -4						; size = 4
?Init@CCustomSystem@@QAEXXZ PROC			; CCustomSystem::Init
; _this$ = ecx

; 18   : {

  00040	55		 push	 ebp
  00041	8b ec		 mov	 ebp, esp
  00043	83 ec 44	 sub	 esp, 68			; 00000044H
  00046	53		 push	 ebx
  00047	56		 push	 esi
  00048	57		 push	 edi
  00049	89 4d fc	 mov	 DWORD PTR _this$[ebp], ecx

; 19   : 	m_bBaned = false;

  0004c	8b 45 fc	 mov	 eax, DWORD PTR _this$[ebp]
  0004f	c6 40 04 00	 mov	 BYTE PTR [eax+4], 0

; 20   : 	m_bRage = false;

  00053	8b 45 fc	 mov	 eax, DWORD PTR _this$[ebp]
  00056	c6 40 05 00	 mov	 BYTE PTR [eax+5], 0

; 21   : 	m_bWinQuest = false;

  0005a	8b 45 fc	 mov	 eax, DWORD PTR _this$[ebp]
  0005d	c6 40 06 00	 mov	 BYTE PTR [eax+6], 0

; 22   : 	m_bBloodHound = false;

  00061	8b 45 fc	 mov	 eax, DWORD PTR _this$[ebp]
  00064	c6 40 07 00	 mov	 BYTE PTR [eax+7], 0

; 23   : 	m_bMonsterQuest = false;

  00068	8b 45 fc	 mov	 eax, DWORD PTR _this$[ebp]
  0006b	c6 40 08 00	 mov	 BYTE PTR [eax+8], 0

; 24   : 	m_bTvTEvent = false;	

  0006f	8b 45 fc	 mov	 eax, DWORD PTR _this$[ebp]
  00072	c6 40 09 00	 mov	 BYTE PTR [eax+9], 0

; 25   : 	m_bGrandHero = false;

  00076	8b 45 fc	 mov	 eax, DWORD PTR _this$[ebp]
  00079	c6 40 0a 00	 mov	 BYTE PTR [eax+10], 0

; 26   : 	m_bPartySystem = false;

  0007d	8b 45 fc	 mov	 eax, DWORD PTR _this$[ebp]
  00080	c6 40 0b 00	 mov	 BYTE PTR [eax+11], 0

; 27   : 	m_bBrotherhood = false;

  00084	8b 45 fc	 mov	 eax, DWORD PTR _this$[ebp]
  00087	c6 40 0c 00	 mov	 BYTE PTR [eax+12], 0

; 28   : 	m_bPartySearch = false;

  0008b	8b 45 fc	 mov	 eax, DWORD PTR _this$[ebp]
  0008e	c6 40 0d 00	 mov	 BYTE PTR [eax+13], 0

; 29   : 	m_bChatLog = false;

  00092	8b 45 fc	 mov	 eax, DWORD PTR _this$[ebp]
  00095	c6 40 0e 00	 mov	 BYTE PTR [eax+14], 0

; 30   : 	m_bGM_Manager = false;

  00099	8b 45 fc	 mov	 eax, DWORD PTR _this$[ebp]
  0009c	c6 40 0f 00	 mov	 BYTE PTR [eax+15], 0

; 31   : 	m_bPerosnalStoreEx = false;

  000a0	8b 45 fc	 mov	 eax, DWORD PTR _this$[ebp]
  000a3	c6 40 10 00	 mov	 BYTE PTR [eax+16], 0

; 32   : 	m_bPandoraEvent = false;

  000a7	8b 45 fc	 mov	 eax, DWORD PTR _this$[ebp]
  000aa	c6 40 11 00	 mov	 BYTE PTR [eax+17], 0

; 33   : 	m_bAntiCheatPlus = false;

  000ae	8b 45 fc	 mov	 eax, DWORD PTR _this$[ebp]
  000b1	c6 40 12 00	 mov	 BYTE PTR [eax+18], 0

; 34   : 	m_bSpotReturn = false;

  000b5	8b 45 fc	 mov	 eax, DWORD PTR _this$[ebp]
  000b8	c6 40 13 00	 mov	 BYTE PTR [eax+19], 0

; 35   : 	m_bComboCustom = false;

  000bc	8b 45 fc	 mov	 eax, DWORD PTR _this$[ebp]
  000bf	c6 40 14 00	 mov	 BYTE PTR [eax+20], 0

; 36   : 	m_bNpcBuffer = false;

  000c3	8b 45 fc	 mov	 eax, DWORD PTR _this$[ebp]
  000c6	c6 40 15 00	 mov	 BYTE PTR [eax+21], 0

; 37   : 	m_bBMQuest = false;

  000ca	8b 45 fc	 mov	 eax, DWORD PTR _this$[ebp]
  000cd	c6 40 16 00	 mov	 BYTE PTR [eax+22], 0

; 38   : 	m_bLoraBattle = false;

  000d1	8b 45 fc	 mov	 eax, DWORD PTR _this$[ebp]
  000d4	c6 40 17 00	 mov	 BYTE PTR [eax+23], 0

; 39   : 	m_bSmithy = false;

  000d8	8b 45 fc	 mov	 eax, DWORD PTR _this$[ebp]
  000db	c6 40 18 00	 mov	 BYTE PTR [eax+24], 0

; 40   : 	m_bMonster = false;

  000df	8b 45 fc	 mov	 eax, DWORD PTR _this$[ebp]
  000e2	c6 40 19 00	 mov	 BYTE PTR [eax+25], 0

; 41   : 	m_bItemSmokeEffect = false;

  000e6	8b 45 fc	 mov	 eax, DWORD PTR _this$[ebp]
  000e9	c6 40 1a 00	 mov	 BYTE PTR [eax+26], 0

; 42   : 	m_bGrandDinamicExp = false;

  000ed	8b 45 fc	 mov	 eax, DWORD PTR _this$[ebp]
  000f0	c6 40 1b 00	 mov	 BYTE PTR [eax+27], 0

; 43   : 	m_bPartySave = false;

  000f4	8b 45 fc	 mov	 eax, DWORD PTR _this$[ebp]
  000f7	c6 40 1c 00	 mov	 BYTE PTR [eax+28], 0

; 44   : 	m_bDisableMasterTree = false;

  000fb	8b 45 fc	 mov	 eax, DWORD PTR _this$[ebp]
  000fe	c6 40 1d 00	 mov	 BYTE PTR [eax+29], 0

; 45   : 	m_bOfflineMode = false;

  00102	8b 45 fc	 mov	 eax, DWORD PTR _this$[ebp]
  00105	c6 40 1e 00	 mov	 BYTE PTR [eax+30], 0

; 46   : 	m_bMarriage = false;

  00109	8b 45 fc	 mov	 eax, DWORD PTR _this$[ebp]
  0010c	c6 40 1f 00	 mov	 BYTE PTR [eax+31], 0

; 47   : 	m_bMonsterAttackLife = false;

  00110	8b 45 fc	 mov	 eax, DWORD PTR _this$[ebp]
  00113	c6 40 20 00	 mov	 BYTE PTR [eax+32], 0

; 48   : 	m_bbRankItem = false;

  00117	8b 45 fc	 mov	 eax, DWORD PTR _this$[ebp]
  0011a	c6 40 21 00	 mov	 BYTE PTR [eax+33], 0

; 49   : 	m_bRestoreOffMode = false;

  0011e	8b 45 fc	 mov	 eax, DWORD PTR _this$[ebp]
  00121	c6 40 22 00	 mov	 BYTE PTR [eax+34], 0

; 50   : 	m_bMapQuest = false;

  00125	8b 45 fc	 mov	 eax, DWORD PTR _this$[ebp]
  00128	c6 40 23 00	 mov	 BYTE PTR [eax+35], 0

; 51   : 	m_bbTeamVsTeam2 = false;

  0012c	8b 45 fc	 mov	 eax, DWORD PTR _this$[ebp]
  0012f	c6 40 24 00	 mov	 BYTE PTR [eax+36], 0

; 52   : 	m_bbAchievements = false;

  00133	8b 45 fc	 mov	 eax, DWORD PTR _this$[ebp]
  00136	c6 40 25 00	 mov	 BYTE PTR [eax+37], 0

; 53   : 	m_bPremiumEx = false;

  0013a	8b 45 fc	 mov	 eax, DWORD PTR _this$[ebp]
  0013d	c6 40 26 00	 mov	 BYTE PTR [eax+38], 0

; 54   : 	m_bAccSecurity = false;

  00141	8b 45 fc	 mov	 eax, DWORD PTR _this$[ebp]
  00144	c6 40 27 00	 mov	 BYTE PTR [eax+39], 0

; 55   : 	m_bCraftQuestSystem = false;

  00148	8b 45 fc	 mov	 eax, DWORD PTR _this$[ebp]
  0014b	c6 40 28 00	 mov	 BYTE PTR [eax+40], 0

; 56   : 	m_bPickUpItemInfo = false;

  0014f	8b 45 fc	 mov	 eax, DWORD PTR _this$[ebp]
  00152	c6 40 29 00	 mov	 BYTE PTR [eax+41], 0

; 57   : 	m_bReferralSystem = false;

  00156	8b 45 fc	 mov	 eax, DWORD PTR _this$[ebp]
  00159	c6 40 2a 00	 mov	 BYTE PTR [eax+42], 0

; 58   : }

  0015d	5f		 pop	 edi
  0015e	5e		 pop	 esi
  0015f	5b		 pop	 ebx
  00160	8b e5		 mov	 esp, ebp
  00162	5d		 pop	 ebp
  00163	c3		 ret	 0
?Init@CCustomSystem@@QAEXXZ ENDP			; CCustomSystem::Init
_TEXT	ENDS
PUBLIC	??_C@_0P@HKHENGDG@ReferralSystem?$AA@		; `string'
PUBLIC	??_C@_0P@IGINMNCJ@PickUpItemInfo?$AA@		; `string'
PUBLIC	??_C@_0BB@JBLMLDIE@CraftQuestSystem?$AA@	; `string'
PUBLIC	??_C@_0M@IGFGJNDG@AccSecurity?$AA@		; `string'
PUBLIC	??_C@_09EPGMNLEO@PremiumEx?$AA@			; `string'
PUBLIC	??_C@_0O@HHCLNCCD@bAchievements?$AA@		; `string'
PUBLIC	??_C@_0N@LFDCJKJD@bTeamVsTeam2?$AA@		; `string'
PUBLIC	??_C@_08CBPOKGCI@MapQuest?$AA@			; `string'
PUBLIC	??_C@_0P@FDFPNDOE@RestoreOffMode?$AA@		; `string'
PUBLIC	??_C@_09BPMJFDOC@bRankItem?$AA@			; `string'
PUBLIC	??_C@_0BC@EMNDDHAC@MonsterAttackLife?$AA@	; `string'
PUBLIC	??_C@_08FFNNAFPB@Marriage?$AA@			; `string'
PUBLIC	??_C@_0M@MAHENOJP@OfflineMode?$AA@		; `string'
PUBLIC	??_C@_0BC@HIGIONLP@DisableMasterTree?$AA@	; `string'
PUBLIC	??_C@_09IANJBEIH@PartySave?$AA@			; `string'
PUBLIC	??_C@_0BA@KBBGBHCB@GrandDinamicExp?$AA@		; `string'
PUBLIC	??_C@_0BA@EIGCOPHD@ItemSmokeEffect?$AA@		; `string'
PUBLIC	??_C@_07GOHPBKOH@Monster?$AA@			; `string'
PUBLIC	??_C@_06MICLFPP@Smithy?$AA@			; `string'
PUBLIC	??_C@_0L@LKGLFHN@LoraBattle?$AA@		; `string'
PUBLIC	??_C@_07DDEFCIJI@BMQuest?$AA@			; `string'
PUBLIC	??_C@_09OBJAAELI@NpcBuffer?$AA@			; `string'
PUBLIC	??_C@_0M@LIEHGNCO@ComboCustom?$AA@		; `string'
PUBLIC	??_C@_0L@DIGGCLHA@SpotReturn?$AA@		; `string'
PUBLIC	??_C@_0O@KCLGGKNP@AntiCheatPlus?$AA@		; `string'
PUBLIC	??_C@_0N@PMNDPLMP@PandoraEvent?$AA@		; `string'
PUBLIC	??_C@_0BA@HJFDLJDI@PerosnalStoreEx?$AA@		; `string'
PUBLIC	??_C@_0L@FBLFDNHH@GM_Manager?$AA@		; `string'
PUBLIC	??_C@_07PCJJOLBC@ChatLog?$AA@			; `string'
PUBLIC	??_C@_0M@NDCKIFM@PartySearch?$AA@		; `string'
PUBLIC	??_C@_0M@GHOILLAI@Brotherhood?$AA@		; `string'
PUBLIC	??_C@_0M@DPJHHJHF@PartySystem?$AA@		; `string'
PUBLIC	??_C@_09DLIAGFDN@GrandHero?$AA@			; `string'
PUBLIC	??_C@_08KHAIHNMB@TvTEvent?$AA@			; `string'
PUBLIC	??_C@_0N@OGHPBMFH@MonsterQuest?$AA@		; `string'
PUBLIC	??_C@_0L@MDDPOOON@BloodHound?$AA@		; `string'
PUBLIC	??_C@_08PMBEJCOB@WinQuest?$AA@			; `string'
PUBLIC	??_C@_04KNIGEGGI@Rage?$AA@			; `string'
PUBLIC	??_C@_0N@OGADEGCF@CustomSystem?$AA@		; `string'
PUBLIC	??_C@_05DMILIMJO@Baned?$AA@			; `string'
PUBLIC	??_C@_0BH@MJFGBPKH@CustomCustomSystem?4ini?$AA@	; `string'
PUBLIC	?Load@CCustomSystem@@QAEXXZ			; CCustomSystem::Load
EXTRN	__imp__GetPrivateProfileIntA@16:PROC
EXTRN	?GetNewPath@CDirPath@@QAEPADPAD@Z:PROC		; CDirPath::GetNewPath
EXTRN	?gDirPath@@3VCDirPath@@A:BYTE			; gDirPath
;	COMDAT ??_C@_0P@HKHENGDG@ReferralSystem?$AA@
CONST	SEGMENT
??_C@_0P@HKHENGDG@ReferralSystem?$AA@ DB 'ReferralSystem', 00H ; `string'
CONST	ENDS
;	COMDAT ??_C@_0P@IGINMNCJ@PickUpItemInfo?$AA@
CONST	SEGMENT
??_C@_0P@IGINMNCJ@PickUpItemInfo?$AA@ DB 'PickUpItemInfo', 00H ; `string'
CONST	ENDS
;	COMDAT ??_C@_0BB@JBLMLDIE@CraftQuestSystem?$AA@
CONST	SEGMENT
??_C@_0BB@JBLMLDIE@CraftQuestSystem?$AA@ DB 'CraftQuestSystem', 00H ; `string'
CONST	ENDS
;	COMDAT ??_C@_0M@IGFGJNDG@AccSecurity?$AA@
CONST	SEGMENT
??_C@_0M@IGFGJNDG@AccSecurity?$AA@ DB 'AccSecurity', 00H ; `string'
CONST	ENDS
;	COMDAT ??_C@_09EPGMNLEO@PremiumEx?$AA@
CONST	SEGMENT
??_C@_09EPGMNLEO@PremiumEx?$AA@ DB 'PremiumEx', 00H	; `string'
CONST	ENDS
;	COMDAT ??_C@_0O@HHCLNCCD@bAchievements?$AA@
CONST	SEGMENT
??_C@_0O@HHCLNCCD@bAchievements?$AA@ DB 'bAchievements', 00H ; `string'
CONST	ENDS
;	COMDAT ??_C@_0N@LFDCJKJD@bTeamVsTeam2?$AA@
CONST	SEGMENT
??_C@_0N@LFDCJKJD@bTeamVsTeam2?$AA@ DB 'bTeamVsTeam2', 00H ; `string'
CONST	ENDS
;	COMDAT ??_C@_08CBPOKGCI@MapQuest?$AA@
CONST	SEGMENT
??_C@_08CBPOKGCI@MapQuest?$AA@ DB 'MapQuest', 00H	; `string'
CONST	ENDS
;	COMDAT ??_C@_0P@FDFPNDOE@RestoreOffMode?$AA@
CONST	SEGMENT
??_C@_0P@FDFPNDOE@RestoreOffMode?$AA@ DB 'RestoreOffMode', 00H ; `string'
CONST	ENDS
;	COMDAT ??_C@_09BPMJFDOC@bRankItem?$AA@
CONST	SEGMENT
??_C@_09BPMJFDOC@bRankItem?$AA@ DB 'bRankItem', 00H	; `string'
CONST	ENDS
;	COMDAT ??_C@_0BC@EMNDDHAC@MonsterAttackLife?$AA@
CONST	SEGMENT
??_C@_0BC@EMNDDHAC@MonsterAttackLife?$AA@ DB 'MonsterAttackLife', 00H ; `string'
CONST	ENDS
;	COMDAT ??_C@_08FFNNAFPB@Marriage?$AA@
CONST	SEGMENT
??_C@_08FFNNAFPB@Marriage?$AA@ DB 'Marriage', 00H	; `string'
CONST	ENDS
;	COMDAT ??_C@_0M@MAHENOJP@OfflineMode?$AA@
CONST	SEGMENT
??_C@_0M@MAHENOJP@OfflineMode?$AA@ DB 'OfflineMode', 00H ; `string'
CONST	ENDS
;	COMDAT ??_C@_0BC@HIGIONLP@DisableMasterTree?$AA@
CONST	SEGMENT
??_C@_0BC@HIGIONLP@DisableMasterTree?$AA@ DB 'DisableMasterTree', 00H ; `string'
CONST	ENDS
;	COMDAT ??_C@_09IANJBEIH@PartySave?$AA@
CONST	SEGMENT
??_C@_09IANJBEIH@PartySave?$AA@ DB 'PartySave', 00H	; `string'
CONST	ENDS
;	COMDAT ??_C@_0BA@KBBGBHCB@GrandDinamicExp?$AA@
CONST	SEGMENT
??_C@_0BA@KBBGBHCB@GrandDinamicExp?$AA@ DB 'GrandDinamicExp', 00H ; `string'
CONST	ENDS
;	COMDAT ??_C@_0BA@EIGCOPHD@ItemSmokeEffect?$AA@
CONST	SEGMENT
??_C@_0BA@EIGCOPHD@ItemSmokeEffect?$AA@ DB 'ItemSmokeEffect', 00H ; `string'
CONST	ENDS
;	COMDAT ??_C@_07GOHPBKOH@Monster?$AA@
CONST	SEGMENT
??_C@_07GOHPBKOH@Monster?$AA@ DB 'Monster', 00H		; `string'
CONST	ENDS
;	COMDAT ??_C@_06MICLFPP@Smithy?$AA@
CONST	SEGMENT
??_C@_06MICLFPP@Smithy?$AA@ DB 'Smithy', 00H		; `string'
CONST	ENDS
;	COMDAT ??_C@_0L@LKGLFHN@LoraBattle?$AA@
CONST	SEGMENT
??_C@_0L@LKGLFHN@LoraBattle?$AA@ DB 'LoraBattle', 00H	; `string'
CONST	ENDS
;	COMDAT ??_C@_07DDEFCIJI@BMQuest?$AA@
CONST	SEGMENT
??_C@_07DDEFCIJI@BMQuest?$AA@ DB 'BMQuest', 00H		; `string'
CONST	ENDS
;	COMDAT ??_C@_09OBJAAELI@NpcBuffer?$AA@
CONST	SEGMENT
??_C@_09OBJAAELI@NpcBuffer?$AA@ DB 'NpcBuffer', 00H	; `string'
CONST	ENDS
;	COMDAT ??_C@_0M@LIEHGNCO@ComboCustom?$AA@
CONST	SEGMENT
??_C@_0M@LIEHGNCO@ComboCustom?$AA@ DB 'ComboCustom', 00H ; `string'
CONST	ENDS
;	COMDAT ??_C@_0L@DIGGCLHA@SpotReturn?$AA@
CONST	SEGMENT
??_C@_0L@DIGGCLHA@SpotReturn?$AA@ DB 'SpotReturn', 00H	; `string'
CONST	ENDS
;	COMDAT ??_C@_0O@KCLGGKNP@AntiCheatPlus?$AA@
CONST	SEGMENT
??_C@_0O@KCLGGKNP@AntiCheatPlus?$AA@ DB 'AntiCheatPlus', 00H ; `string'
CONST	ENDS
;	COMDAT ??_C@_0N@PMNDPLMP@PandoraEvent?$AA@
CONST	SEGMENT
??_C@_0N@PMNDPLMP@PandoraEvent?$AA@ DB 'PandoraEvent', 00H ; `string'
CONST	ENDS
;	COMDAT ??_C@_0BA@HJFDLJDI@PerosnalStoreEx?$AA@
CONST	SEGMENT
??_C@_0BA@HJFDLJDI@PerosnalStoreEx?$AA@ DB 'PerosnalStoreEx', 00H ; `string'
CONST	ENDS
;	COMDAT ??_C@_0L@FBLFDNHH@GM_Manager?$AA@
CONST	SEGMENT
??_C@_0L@FBLFDNHH@GM_Manager?$AA@ DB 'GM_Manager', 00H	; `string'
CONST	ENDS
;	COMDAT ??_C@_07PCJJOLBC@ChatLog?$AA@
CONST	SEGMENT
??_C@_07PCJJOLBC@ChatLog?$AA@ DB 'ChatLog', 00H		; `string'
CONST	ENDS
;	COMDAT ??_C@_0M@NDCKIFM@PartySearch?$AA@
CONST	SEGMENT
??_C@_0M@NDCKIFM@PartySearch?$AA@ DB 'PartySearch', 00H	; `string'
CONST	ENDS
;	COMDAT ??_C@_0M@GHOILLAI@Brotherhood?$AA@
CONST	SEGMENT
??_C@_0M@GHOILLAI@Brotherhood?$AA@ DB 'Brotherhood', 00H ; `string'
CONST	ENDS
;	COMDAT ??_C@_0M@DPJHHJHF@PartySystem?$AA@
CONST	SEGMENT
??_C@_0M@DPJHHJHF@PartySystem?$AA@ DB 'PartySystem', 00H ; `string'
CONST	ENDS
;	COMDAT ??_C@_09DLIAGFDN@GrandHero?$AA@
CONST	SEGMENT
??_C@_09DLIAGFDN@GrandHero?$AA@ DB 'GrandHero', 00H	; `string'
CONST	ENDS
;	COMDAT ??_C@_08KHAIHNMB@TvTEvent?$AA@
CONST	SEGMENT
??_C@_08KHAIHNMB@TvTEvent?$AA@ DB 'TvTEvent', 00H	; `string'
CONST	ENDS
;	COMDAT ??_C@_0N@OGHPBMFH@MonsterQuest?$AA@
CONST	SEGMENT
??_C@_0N@OGHPBMFH@MonsterQuest?$AA@ DB 'MonsterQuest', 00H ; `string'
CONST	ENDS
;	COMDAT ??_C@_0L@MDDPOOON@BloodHound?$AA@
CONST	SEGMENT
??_C@_0L@MDDPOOON@BloodHound?$AA@ DB 'BloodHound', 00H	; `string'
CONST	ENDS
;	COMDAT ??_C@_08PMBEJCOB@WinQuest?$AA@
CONST	SEGMENT
??_C@_08PMBEJCOB@WinQuest?$AA@ DB 'WinQuest', 00H	; `string'
CONST	ENDS
;	COMDAT ??_C@_04KNIGEGGI@Rage?$AA@
CONST	SEGMENT
??_C@_04KNIGEGGI@Rage?$AA@ DB 'Rage', 00H		; `string'
CONST	ENDS
;	COMDAT ??_C@_0N@OGADEGCF@CustomSystem?$AA@
CONST	SEGMENT
??_C@_0N@OGADEGCF@CustomSystem?$AA@ DB 'CustomSystem', 00H ; `string'
CONST	ENDS
;	COMDAT ??_C@_05DMILIMJO@Baned?$AA@
CONST	SEGMENT
??_C@_05DMILIMJO@Baned?$AA@ DB 'Baned', 00H		; `string'
CONST	ENDS
;	COMDAT ??_C@_0BH@MJFGBPKH@CustomCustomSystem?4ini?$AA@
CONST	SEGMENT
??_C@_0BH@MJFGBPKH@CustomCustomSystem?4ini?$AA@ DB 'CustomCustomSystem.in'
	DB	'i', 00H					; `string'
; Function compile flags: /Odtp /ZI
CONST	ENDS
_TEXT	SEGMENT
_this$ = -4						; size = 4
?Load@CCustomSystem@@QAEXXZ PROC			; CCustomSystem::Load
; _this$ = ecx

; 61   : {

  00170	55		 push	 ebp
  00171	8b ec		 mov	 ebp, esp
  00173	83 ec 44	 sub	 esp, 68			; 00000044H
  00176	53		 push	 ebx
  00177	56		 push	 esi
  00178	57		 push	 edi
  00179	89 4d fc	 mov	 DWORD PTR _this$[ebp], ecx

; 62   : 	Init();

  0017c	8b 4d fc	 mov	 ecx, DWORD PTR _this$[ebp]
  0017f	e8 00 00 00 00	 call	 ?Init@CCustomSystem@@QAEXXZ ; CCustomSystem::Init

; 63   : 
; 64   : 	m_bBaned = (bool) GetPrivateProfileInt("CustomSystem", "Baned", 0, gDirPath.GetNewPath("Custom\CustomSystem.ini"));

  00184	68 00 00 00 00	 push	 OFFSET ??_C@_0BH@MJFGBPKH@CustomCustomSystem?4ini?$AA@
  00189	b9 00 00 00 00	 mov	 ecx, OFFSET ?gDirPath@@3VCDirPath@@A ; gDirPath
  0018e	e8 00 00 00 00	 call	 ?GetNewPath@CDirPath@@QAEPADPAD@Z ; CDirPath::GetNewPath
  00193	50		 push	 eax
  00194	6a 00		 push	 0
  00196	68 00 00 00 00	 push	 OFFSET ??_C@_05DMILIMJO@Baned?$AA@
  0019b	68 00 00 00 00	 push	 OFFSET ??_C@_0N@OGADEGCF@CustomSystem?$AA@
  001a0	ff 15 00 00 00
	00		 call	 DWORD PTR __imp__GetPrivateProfileIntA@16
  001a6	85 c0		 test	 eax, eax
  001a8	0f 95 c0	 setne	 al
  001ab	8b 4d fc	 mov	 ecx, DWORD PTR _this$[ebp]
  001ae	88 41 04	 mov	 BYTE PTR [ecx+4], al

; 65   : 	m_bRage = (bool) GetPrivateProfileInt("CustomSystem", "Rage", 0, gDirPath.GetNewPath("Custom\CustomSystem.ini"));

  001b1	68 00 00 00 00	 push	 OFFSET ??_C@_0BH@MJFGBPKH@CustomCustomSystem?4ini?$AA@
  001b6	b9 00 00 00 00	 mov	 ecx, OFFSET ?gDirPath@@3VCDirPath@@A ; gDirPath
  001bb	e8 00 00 00 00	 call	 ?GetNewPath@CDirPath@@QAEPADPAD@Z ; CDirPath::GetNewPath
  001c0	50		 push	 eax
  001c1	6a 00		 push	 0
  001c3	68 00 00 00 00	 push	 OFFSET ??_C@_04KNIGEGGI@Rage?$AA@
  001c8	68 00 00 00 00	 push	 OFFSET ??_C@_0N@OGADEGCF@CustomSystem?$AA@
  001cd	ff 15 00 00 00
	00		 call	 DWORD PTR __imp__GetPrivateProfileIntA@16
  001d3	85 c0		 test	 eax, eax
  001d5	0f 95 c0	 setne	 al
  001d8	8b 4d fc	 mov	 ecx, DWORD PTR _this$[ebp]
  001db	88 41 05	 mov	 BYTE PTR [ecx+5], al

; 66   : 	m_bWinQuest = (bool) GetPrivateProfileInt("CustomSystem", "WinQuest", 0, gDirPath.GetNewPath("Custom\CustomSystem.ini"));

  001de	68 00 00 00 00	 push	 OFFSET ??_C@_0BH@MJFGBPKH@CustomCustomSystem?4ini?$AA@
  001e3	b9 00 00 00 00	 mov	 ecx, OFFSET ?gDirPath@@3VCDirPath@@A ; gDirPath
  001e8	e8 00 00 00 00	 call	 ?GetNewPath@CDirPath@@QAEPADPAD@Z ; CDirPath::GetNewPath
  001ed	50		 push	 eax
  001ee	6a 00		 push	 0
  001f0	68 00 00 00 00	 push	 OFFSET ??_C@_08PMBEJCOB@WinQuest?$AA@
  001f5	68 00 00 00 00	 push	 OFFSET ??_C@_0N@OGADEGCF@CustomSystem?$AA@
  001fa	ff 15 00 00 00
	00		 call	 DWORD PTR __imp__GetPrivateProfileIntA@16
  00200	85 c0		 test	 eax, eax
  00202	0f 95 c0	 setne	 al
  00205	8b 4d fc	 mov	 ecx, DWORD PTR _this$[ebp]
  00208	88 41 06	 mov	 BYTE PTR [ecx+6], al

; 67   : 	m_bBloodHound = (bool) GetPrivateProfileInt("CustomSystem", "BloodHound", 0, gDirPath.GetNewPath("Custom\CustomSystem.ini"));

  0020b	68 00 00 00 00	 push	 OFFSET ??_C@_0BH@MJFGBPKH@CustomCustomSystem?4ini?$AA@
  00210	b9 00 00 00 00	 mov	 ecx, OFFSET ?gDirPath@@3VCDirPath@@A ; gDirPath
  00215	e8 00 00 00 00	 call	 ?GetNewPath@CDirPath@@QAEPADPAD@Z ; CDirPath::GetNewPath
  0021a	50		 push	 eax
  0021b	6a 00		 push	 0
  0021d	68 00 00 00 00	 push	 OFFSET ??_C@_0L@MDDPOOON@BloodHound?$AA@
  00222	68 00 00 00 00	 push	 OFFSET ??_C@_0N@OGADEGCF@CustomSystem?$AA@
  00227	ff 15 00 00 00
	00		 call	 DWORD PTR __imp__GetPrivateProfileIntA@16
  0022d	85 c0		 test	 eax, eax
  0022f	0f 95 c0	 setne	 al
  00232	8b 4d fc	 mov	 ecx, DWORD PTR _this$[ebp]
  00235	88 41 07	 mov	 BYTE PTR [ecx+7], al

; 68   : 	m_bMonsterQuest = (bool) GetPrivateProfileInt("CustomSystem", "MonsterQuest", 0, gDirPath.GetNewPath("Custom\CustomSystem.ini"));

  00238	68 00 00 00 00	 push	 OFFSET ??_C@_0BH@MJFGBPKH@CustomCustomSystem?4ini?$AA@
  0023d	b9 00 00 00 00	 mov	 ecx, OFFSET ?gDirPath@@3VCDirPath@@A ; gDirPath
  00242	e8 00 00 00 00	 call	 ?GetNewPath@CDirPath@@QAEPADPAD@Z ; CDirPath::GetNewPath
  00247	50		 push	 eax
  00248	6a 00		 push	 0
  0024a	68 00 00 00 00	 push	 OFFSET ??_C@_0N@OGHPBMFH@MonsterQuest?$AA@
  0024f	68 00 00 00 00	 push	 OFFSET ??_C@_0N@OGADEGCF@CustomSystem?$AA@
  00254	ff 15 00 00 00
	00		 call	 DWORD PTR __imp__GetPrivateProfileIntA@16
  0025a	85 c0		 test	 eax, eax
  0025c	0f 95 c0	 setne	 al
  0025f	8b 4d fc	 mov	 ecx, DWORD PTR _this$[ebp]
  00262	88 41 08	 mov	 BYTE PTR [ecx+8], al

; 69   : 	m_bTvTEvent = (bool) GetPrivateProfileInt("CustomSystem", "TvTEvent", 0, gDirPath.GetNewPath("Custom\CustomSystem.ini"));

  00265	68 00 00 00 00	 push	 OFFSET ??_C@_0BH@MJFGBPKH@CustomCustomSystem?4ini?$AA@
  0026a	b9 00 00 00 00	 mov	 ecx, OFFSET ?gDirPath@@3VCDirPath@@A ; gDirPath
  0026f	e8 00 00 00 00	 call	 ?GetNewPath@CDirPath@@QAEPADPAD@Z ; CDirPath::GetNewPath
  00274	50		 push	 eax
  00275	6a 00		 push	 0
  00277	68 00 00 00 00	 push	 OFFSET ??_C@_08KHAIHNMB@TvTEvent?$AA@
  0027c	68 00 00 00 00	 push	 OFFSET ??_C@_0N@OGADEGCF@CustomSystem?$AA@
  00281	ff 15 00 00 00
	00		 call	 DWORD PTR __imp__GetPrivateProfileIntA@16
  00287	85 c0		 test	 eax, eax
  00289	0f 95 c0	 setne	 al
  0028c	8b 4d fc	 mov	 ecx, DWORD PTR _this$[ebp]
  0028f	88 41 09	 mov	 BYTE PTR [ecx+9], al

; 70   : 	m_bGrandHero = (bool) GetPrivateProfileInt("CustomSystem", "GrandHero", 0, gDirPath.GetNewPath("Custom\CustomSystem.ini"));

  00292	68 00 00 00 00	 push	 OFFSET ??_C@_0BH@MJFGBPKH@CustomCustomSystem?4ini?$AA@
  00297	b9 00 00 00 00	 mov	 ecx, OFFSET ?gDirPath@@3VCDirPath@@A ; gDirPath
  0029c	e8 00 00 00 00	 call	 ?GetNewPath@CDirPath@@QAEPADPAD@Z ; CDirPath::GetNewPath
  002a1	50		 push	 eax
  002a2	6a 00		 push	 0
  002a4	68 00 00 00 00	 push	 OFFSET ??_C@_09DLIAGFDN@GrandHero?$AA@
  002a9	68 00 00 00 00	 push	 OFFSET ??_C@_0N@OGADEGCF@CustomSystem?$AA@
  002ae	ff 15 00 00 00
	00		 call	 DWORD PTR __imp__GetPrivateProfileIntA@16
  002b4	85 c0		 test	 eax, eax
  002b6	0f 95 c0	 setne	 al
  002b9	8b 4d fc	 mov	 ecx, DWORD PTR _this$[ebp]
  002bc	88 41 0a	 mov	 BYTE PTR [ecx+10], al

; 71   : 	m_bPartySystem = (bool) GetPrivateProfileInt("CustomSystem", "PartySystem", 0, gDirPath.GetNewPath("Custom\CustomSystem.ini"));

  002bf	68 00 00 00 00	 push	 OFFSET ??_C@_0BH@MJFGBPKH@CustomCustomSystem?4ini?$AA@
  002c4	b9 00 00 00 00	 mov	 ecx, OFFSET ?gDirPath@@3VCDirPath@@A ; gDirPath
  002c9	e8 00 00 00 00	 call	 ?GetNewPath@CDirPath@@QAEPADPAD@Z ; CDirPath::GetNewPath
  002ce	50		 push	 eax
  002cf	6a 00		 push	 0
  002d1	68 00 00 00 00	 push	 OFFSET ??_C@_0M@DPJHHJHF@PartySystem?$AA@
  002d6	68 00 00 00 00	 push	 OFFSET ??_C@_0N@OGADEGCF@CustomSystem?$AA@
  002db	ff 15 00 00 00
	00		 call	 DWORD PTR __imp__GetPrivateProfileIntA@16
  002e1	85 c0		 test	 eax, eax
  002e3	0f 95 c0	 setne	 al
  002e6	8b 4d fc	 mov	 ecx, DWORD PTR _this$[ebp]
  002e9	88 41 0b	 mov	 BYTE PTR [ecx+11], al

; 72   : 	m_bBrotherhood = (bool) GetPrivateProfileInt("CustomSystem", "Brotherhood", 0, gDirPath.GetNewPath("Custom\CustomSystem.ini"));

  002ec	68 00 00 00 00	 push	 OFFSET ??_C@_0BH@MJFGBPKH@CustomCustomSystem?4ini?$AA@
  002f1	b9 00 00 00 00	 mov	 ecx, OFFSET ?gDirPath@@3VCDirPath@@A ; gDirPath
  002f6	e8 00 00 00 00	 call	 ?GetNewPath@CDirPath@@QAEPADPAD@Z ; CDirPath::GetNewPath
  002fb	50		 push	 eax
  002fc	6a 00		 push	 0
  002fe	68 00 00 00 00	 push	 OFFSET ??_C@_0M@GHOILLAI@Brotherhood?$AA@
  00303	68 00 00 00 00	 push	 OFFSET ??_C@_0N@OGADEGCF@CustomSystem?$AA@
  00308	ff 15 00 00 00
	00		 call	 DWORD PTR __imp__GetPrivateProfileIntA@16
  0030e	85 c0		 test	 eax, eax
  00310	0f 95 c0	 setne	 al
  00313	8b 4d fc	 mov	 ecx, DWORD PTR _this$[ebp]
  00316	88 41 0c	 mov	 BYTE PTR [ecx+12], al

; 73   : 	m_bPartySearch = (bool) GetPrivateProfileInt("CustomSystem", "PartySearch", 0, gDirPath.GetNewPath("Custom\CustomSystem.ini"));

  00319	68 00 00 00 00	 push	 OFFSET ??_C@_0BH@MJFGBPKH@CustomCustomSystem?4ini?$AA@
  0031e	b9 00 00 00 00	 mov	 ecx, OFFSET ?gDirPath@@3VCDirPath@@A ; gDirPath
  00323	e8 00 00 00 00	 call	 ?GetNewPath@CDirPath@@QAEPADPAD@Z ; CDirPath::GetNewPath
  00328	50		 push	 eax
  00329	6a 00		 push	 0
  0032b	68 00 00 00 00	 push	 OFFSET ??_C@_0M@NDCKIFM@PartySearch?$AA@
  00330	68 00 00 00 00	 push	 OFFSET ??_C@_0N@OGADEGCF@CustomSystem?$AA@
  00335	ff 15 00 00 00
	00		 call	 DWORD PTR __imp__GetPrivateProfileIntA@16
  0033b	85 c0		 test	 eax, eax
  0033d	0f 95 c0	 setne	 al
  00340	8b 4d fc	 mov	 ecx, DWORD PTR _this$[ebp]
  00343	88 41 0d	 mov	 BYTE PTR [ecx+13], al

; 74   : 	m_bChatLog = (bool) GetPrivateProfileInt("CustomSystem", "ChatLog", 0, gDirPath.GetNewPath("Custom\CustomSystem.ini"));

  00346	68 00 00 00 00	 push	 OFFSET ??_C@_0BH@MJFGBPKH@CustomCustomSystem?4ini?$AA@
  0034b	b9 00 00 00 00	 mov	 ecx, OFFSET ?gDirPath@@3VCDirPath@@A ; gDirPath
  00350	e8 00 00 00 00	 call	 ?GetNewPath@CDirPath@@QAEPADPAD@Z ; CDirPath::GetNewPath
  00355	50		 push	 eax
  00356	6a 00		 push	 0
  00358	68 00 00 00 00	 push	 OFFSET ??_C@_07PCJJOLBC@ChatLog?$AA@
  0035d	68 00 00 00 00	 push	 OFFSET ??_C@_0N@OGADEGCF@CustomSystem?$AA@
  00362	ff 15 00 00 00
	00		 call	 DWORD PTR __imp__GetPrivateProfileIntA@16
  00368	85 c0		 test	 eax, eax
  0036a	0f 95 c0	 setne	 al
  0036d	8b 4d fc	 mov	 ecx, DWORD PTR _this$[ebp]
  00370	88 41 0e	 mov	 BYTE PTR [ecx+14], al

; 75   : 	m_bGM_Manager = (bool) GetPrivateProfileInt("CustomSystem", "GM_Manager", 0, gDirPath.GetNewPath("Custom\CustomSystem.ini"));

  00373	68 00 00 00 00	 push	 OFFSET ??_C@_0BH@MJFGBPKH@CustomCustomSystem?4ini?$AA@
  00378	b9 00 00 00 00	 mov	 ecx, OFFSET ?gDirPath@@3VCDirPath@@A ; gDirPath
  0037d	e8 00 00 00 00	 call	 ?GetNewPath@CDirPath@@QAEPADPAD@Z ; CDirPath::GetNewPath
  00382	50		 push	 eax
  00383	6a 00		 push	 0
  00385	68 00 00 00 00	 push	 OFFSET ??_C@_0L@FBLFDNHH@GM_Manager?$AA@
  0038a	68 00 00 00 00	 push	 OFFSET ??_C@_0N@OGADEGCF@CustomSystem?$AA@
  0038f	ff 15 00 00 00
	00		 call	 DWORD PTR __imp__GetPrivateProfileIntA@16
  00395	85 c0		 test	 eax, eax
  00397	0f 95 c0	 setne	 al
  0039a	8b 4d fc	 mov	 ecx, DWORD PTR _this$[ebp]
  0039d	88 41 0f	 mov	 BYTE PTR [ecx+15], al

; 76   : 	m_bPerosnalStoreEx = (bool) GetPrivateProfileInt("CustomSystem", "PerosnalStoreEx", 0, gDirPath.GetNewPath("Custom\CustomSystem.ini"));

  003a0	68 00 00 00 00	 push	 OFFSET ??_C@_0BH@MJFGBPKH@CustomCustomSystem?4ini?$AA@
  003a5	b9 00 00 00 00	 mov	 ecx, OFFSET ?gDirPath@@3VCDirPath@@A ; gDirPath
  003aa	e8 00 00 00 00	 call	 ?GetNewPath@CDirPath@@QAEPADPAD@Z ; CDirPath::GetNewPath
  003af	50		 push	 eax
  003b0	6a 00		 push	 0
  003b2	68 00 00 00 00	 push	 OFFSET ??_C@_0BA@HJFDLJDI@PerosnalStoreEx?$AA@
  003b7	68 00 00 00 00	 push	 OFFSET ??_C@_0N@OGADEGCF@CustomSystem?$AA@
  003bc	ff 15 00 00 00
	00		 call	 DWORD PTR __imp__GetPrivateProfileIntA@16
  003c2	85 c0		 test	 eax, eax
  003c4	0f 95 c0	 setne	 al
  003c7	8b 4d fc	 mov	 ecx, DWORD PTR _this$[ebp]
  003ca	88 41 10	 mov	 BYTE PTR [ecx+16], al

; 77   : 	m_bPandoraEvent = (bool) GetPrivateProfileInt("CustomSystem", "PandoraEvent", 0, gDirPath.GetNewPath("Custom\CustomSystem.ini"));

  003cd	68 00 00 00 00	 push	 OFFSET ??_C@_0BH@MJFGBPKH@CustomCustomSystem?4ini?$AA@
  003d2	b9 00 00 00 00	 mov	 ecx, OFFSET ?gDirPath@@3VCDirPath@@A ; gDirPath
  003d7	e8 00 00 00 00	 call	 ?GetNewPath@CDirPath@@QAEPADPAD@Z ; CDirPath::GetNewPath
  003dc	50		 push	 eax
  003dd	6a 00		 push	 0
  003df	68 00 00 00 00	 push	 OFFSET ??_C@_0N@PMNDPLMP@PandoraEvent?$AA@
  003e4	68 00 00 00 00	 push	 OFFSET ??_C@_0N@OGADEGCF@CustomSystem?$AA@
  003e9	ff 15 00 00 00
	00		 call	 DWORD PTR __imp__GetPrivateProfileIntA@16
  003ef	85 c0		 test	 eax, eax
  003f1	0f 95 c0	 setne	 al
  003f4	8b 4d fc	 mov	 ecx, DWORD PTR _this$[ebp]
  003f7	88 41 11	 mov	 BYTE PTR [ecx+17], al

; 78   : 	m_bAntiCheatPlus = (bool) GetPrivateProfileInt("CustomSystem", "AntiCheatPlus", 0, gDirPath.GetNewPath("Custom\CustomSystem.ini"));

  003fa	68 00 00 00 00	 push	 OFFSET ??_C@_0BH@MJFGBPKH@CustomCustomSystem?4ini?$AA@
  003ff	b9 00 00 00 00	 mov	 ecx, OFFSET ?gDirPath@@3VCDirPath@@A ; gDirPath
  00404	e8 00 00 00 00	 call	 ?GetNewPath@CDirPath@@QAEPADPAD@Z ; CDirPath::GetNewPath
  00409	50		 push	 eax
  0040a	6a 00		 push	 0
  0040c	68 00 00 00 00	 push	 OFFSET ??_C@_0O@KCLGGKNP@AntiCheatPlus?$AA@
  00411	68 00 00 00 00	 push	 OFFSET ??_C@_0N@OGADEGCF@CustomSystem?$AA@
  00416	ff 15 00 00 00
	00		 call	 DWORD PTR __imp__GetPrivateProfileIntA@16
  0041c	85 c0		 test	 eax, eax
  0041e	0f 95 c0	 setne	 al
  00421	8b 4d fc	 mov	 ecx, DWORD PTR _this$[ebp]
  00424	88 41 12	 mov	 BYTE PTR [ecx+18], al

; 79   : 	m_bSpotReturn = (bool) GetPrivateProfileInt("CustomSystem", "SpotReturn", 0, gDirPath.GetNewPath("Custom\CustomSystem.ini"));

  00427	68 00 00 00 00	 push	 OFFSET ??_C@_0BH@MJFGBPKH@CustomCustomSystem?4ini?$AA@
  0042c	b9 00 00 00 00	 mov	 ecx, OFFSET ?gDirPath@@3VCDirPath@@A ; gDirPath
  00431	e8 00 00 00 00	 call	 ?GetNewPath@CDirPath@@QAEPADPAD@Z ; CDirPath::GetNewPath
  00436	50		 push	 eax
  00437	6a 00		 push	 0
  00439	68 00 00 00 00	 push	 OFFSET ??_C@_0L@DIGGCLHA@SpotReturn?$AA@
  0043e	68 00 00 00 00	 push	 OFFSET ??_C@_0N@OGADEGCF@CustomSystem?$AA@
  00443	ff 15 00 00 00
	00		 call	 DWORD PTR __imp__GetPrivateProfileIntA@16
  00449	85 c0		 test	 eax, eax
  0044b	0f 95 c0	 setne	 al
  0044e	8b 4d fc	 mov	 ecx, DWORD PTR _this$[ebp]
  00451	88 41 13	 mov	 BYTE PTR [ecx+19], al

; 80   : 	m_bComboCustom = (bool) GetPrivateProfileInt("CustomSystem", "ComboCustom", 0, gDirPath.GetNewPath("Custom\CustomSystem.ini"));

  00454	68 00 00 00 00	 push	 OFFSET ??_C@_0BH@MJFGBPKH@CustomCustomSystem?4ini?$AA@
  00459	b9 00 00 00 00	 mov	 ecx, OFFSET ?gDirPath@@3VCDirPath@@A ; gDirPath
  0045e	e8 00 00 00 00	 call	 ?GetNewPath@CDirPath@@QAEPADPAD@Z ; CDirPath::GetNewPath
  00463	50		 push	 eax
  00464	6a 00		 push	 0
  00466	68 00 00 00 00	 push	 OFFSET ??_C@_0M@LIEHGNCO@ComboCustom?$AA@
  0046b	68 00 00 00 00	 push	 OFFSET ??_C@_0N@OGADEGCF@CustomSystem?$AA@
  00470	ff 15 00 00 00
	00		 call	 DWORD PTR __imp__GetPrivateProfileIntA@16
  00476	85 c0		 test	 eax, eax
  00478	0f 95 c0	 setne	 al
  0047b	8b 4d fc	 mov	 ecx, DWORD PTR _this$[ebp]
  0047e	88 41 14	 mov	 BYTE PTR [ecx+20], al

; 81   : 	m_bNpcBuffer = (bool) GetPrivateProfileInt("CustomSystem", "NpcBuffer", 0, gDirPath.GetNewPath("Custom\CustomSystem.ini"));

  00481	68 00 00 00 00	 push	 OFFSET ??_C@_0BH@MJFGBPKH@CustomCustomSystem?4ini?$AA@
  00486	b9 00 00 00 00	 mov	 ecx, OFFSET ?gDirPath@@3VCDirPath@@A ; gDirPath
  0048b	e8 00 00 00 00	 call	 ?GetNewPath@CDirPath@@QAEPADPAD@Z ; CDirPath::GetNewPath
  00490	50		 push	 eax
  00491	6a 00		 push	 0
  00493	68 00 00 00 00	 push	 OFFSET ??_C@_09OBJAAELI@NpcBuffer?$AA@
  00498	68 00 00 00 00	 push	 OFFSET ??_C@_0N@OGADEGCF@CustomSystem?$AA@
  0049d	ff 15 00 00 00
	00		 call	 DWORD PTR __imp__GetPrivateProfileIntA@16
  004a3	85 c0		 test	 eax, eax
  004a5	0f 95 c0	 setne	 al
  004a8	8b 4d fc	 mov	 ecx, DWORD PTR _this$[ebp]
  004ab	88 41 15	 mov	 BYTE PTR [ecx+21], al

; 82   : 	m_bBMQuest = (bool) GetPrivateProfileInt("CustomSystem", "BMQuest", 0, gDirPath.GetNewPath("Custom\CustomSystem.ini"));

  004ae	68 00 00 00 00	 push	 OFFSET ??_C@_0BH@MJFGBPKH@CustomCustomSystem?4ini?$AA@
  004b3	b9 00 00 00 00	 mov	 ecx, OFFSET ?gDirPath@@3VCDirPath@@A ; gDirPath
  004b8	e8 00 00 00 00	 call	 ?GetNewPath@CDirPath@@QAEPADPAD@Z ; CDirPath::GetNewPath
  004bd	50		 push	 eax
  004be	6a 00		 push	 0
  004c0	68 00 00 00 00	 push	 OFFSET ??_C@_07DDEFCIJI@BMQuest?$AA@
  004c5	68 00 00 00 00	 push	 OFFSET ??_C@_0N@OGADEGCF@CustomSystem?$AA@
  004ca	ff 15 00 00 00
	00		 call	 DWORD PTR __imp__GetPrivateProfileIntA@16
  004d0	85 c0		 test	 eax, eax
  004d2	0f 95 c0	 setne	 al
  004d5	8b 4d fc	 mov	 ecx, DWORD PTR _this$[ebp]
  004d8	88 41 16	 mov	 BYTE PTR [ecx+22], al

; 83   : 	m_bLoraBattle = (bool) GetPrivateProfileInt("CustomSystem", "LoraBattle", 0, gDirPath.GetNewPath("Custom\CustomSystem.ini"));

  004db	68 00 00 00 00	 push	 OFFSET ??_C@_0BH@MJFGBPKH@CustomCustomSystem?4ini?$AA@
  004e0	b9 00 00 00 00	 mov	 ecx, OFFSET ?gDirPath@@3VCDirPath@@A ; gDirPath
  004e5	e8 00 00 00 00	 call	 ?GetNewPath@CDirPath@@QAEPADPAD@Z ; CDirPath::GetNewPath
  004ea	50		 push	 eax
  004eb	6a 00		 push	 0
  004ed	68 00 00 00 00	 push	 OFFSET ??_C@_0L@LKGLFHN@LoraBattle?$AA@
  004f2	68 00 00 00 00	 push	 OFFSET ??_C@_0N@OGADEGCF@CustomSystem?$AA@
  004f7	ff 15 00 00 00
	00		 call	 DWORD PTR __imp__GetPrivateProfileIntA@16
  004fd	85 c0		 test	 eax, eax
  004ff	0f 95 c0	 setne	 al
  00502	8b 4d fc	 mov	 ecx, DWORD PTR _this$[ebp]
  00505	88 41 17	 mov	 BYTE PTR [ecx+23], al

; 84   : 	m_bSmithy = (bool) GetPrivateProfileInt("CustomSystem", "Smithy", 0, gDirPath.GetNewPath("Custom\CustomSystem.ini"));

  00508	68 00 00 00 00	 push	 OFFSET ??_C@_0BH@MJFGBPKH@CustomCustomSystem?4ini?$AA@
  0050d	b9 00 00 00 00	 mov	 ecx, OFFSET ?gDirPath@@3VCDirPath@@A ; gDirPath
  00512	e8 00 00 00 00	 call	 ?GetNewPath@CDirPath@@QAEPADPAD@Z ; CDirPath::GetNewPath
  00517	50		 push	 eax
  00518	6a 00		 push	 0
  0051a	68 00 00 00 00	 push	 OFFSET ??_C@_06MICLFPP@Smithy?$AA@
  0051f	68 00 00 00 00	 push	 OFFSET ??_C@_0N@OGADEGCF@CustomSystem?$AA@
  00524	ff 15 00 00 00
	00		 call	 DWORD PTR __imp__GetPrivateProfileIntA@16
  0052a	85 c0		 test	 eax, eax
  0052c	0f 95 c0	 setne	 al
  0052f	8b 4d fc	 mov	 ecx, DWORD PTR _this$[ebp]
  00532	88 41 18	 mov	 BYTE PTR [ecx+24], al

; 85   : 	m_bMonster = (bool) GetPrivateProfileInt("CustomSystem", "Monster", 0, gDirPath.GetNewPath("Custom\CustomSystem.ini"));

  00535	68 00 00 00 00	 push	 OFFSET ??_C@_0BH@MJFGBPKH@CustomCustomSystem?4ini?$AA@
  0053a	b9 00 00 00 00	 mov	 ecx, OFFSET ?gDirPath@@3VCDirPath@@A ; gDirPath
  0053f	e8 00 00 00 00	 call	 ?GetNewPath@CDirPath@@QAEPADPAD@Z ; CDirPath::GetNewPath
  00544	50		 push	 eax
  00545	6a 00		 push	 0
  00547	68 00 00 00 00	 push	 OFFSET ??_C@_07GOHPBKOH@Monster?$AA@
  0054c	68 00 00 00 00	 push	 OFFSET ??_C@_0N@OGADEGCF@CustomSystem?$AA@
  00551	ff 15 00 00 00
	00		 call	 DWORD PTR __imp__GetPrivateProfileIntA@16
  00557	85 c0		 test	 eax, eax
  00559	0f 95 c0	 setne	 al
  0055c	8b 4d fc	 mov	 ecx, DWORD PTR _this$[ebp]
  0055f	88 41 19	 mov	 BYTE PTR [ecx+25], al

; 86   : 	m_bItemSmokeEffect = (bool) GetPrivateProfileInt("CustomSystem", "ItemSmokeEffect", 0, gDirPath.GetNewPath("Custom\CustomSystem.ini"));

  00562	68 00 00 00 00	 push	 OFFSET ??_C@_0BH@MJFGBPKH@CustomCustomSystem?4ini?$AA@
  00567	b9 00 00 00 00	 mov	 ecx, OFFSET ?gDirPath@@3VCDirPath@@A ; gDirPath
  0056c	e8 00 00 00 00	 call	 ?GetNewPath@CDirPath@@QAEPADPAD@Z ; CDirPath::GetNewPath
  00571	50		 push	 eax
  00572	6a 00		 push	 0
  00574	68 00 00 00 00	 push	 OFFSET ??_C@_0BA@EIGCOPHD@ItemSmokeEffect?$AA@
  00579	68 00 00 00 00	 push	 OFFSET ??_C@_0N@OGADEGCF@CustomSystem?$AA@
  0057e	ff 15 00 00 00
	00		 call	 DWORD PTR __imp__GetPrivateProfileIntA@16
  00584	85 c0		 test	 eax, eax
  00586	0f 95 c0	 setne	 al
  00589	8b 4d fc	 mov	 ecx, DWORD PTR _this$[ebp]
  0058c	88 41 1a	 mov	 BYTE PTR [ecx+26], al

; 87   : 	m_bGrandDinamicExp = (bool) GetPrivateProfileInt("CustomSystem", "GrandDinamicExp", 0, gDirPath.GetNewPath("Custom\CustomSystem.ini"));

  0058f	68 00 00 00 00	 push	 OFFSET ??_C@_0BH@MJFGBPKH@CustomCustomSystem?4ini?$AA@
  00594	b9 00 00 00 00	 mov	 ecx, OFFSET ?gDirPath@@3VCDirPath@@A ; gDirPath
  00599	e8 00 00 00 00	 call	 ?GetNewPath@CDirPath@@QAEPADPAD@Z ; CDirPath::GetNewPath
  0059e	50		 push	 eax
  0059f	6a 00		 push	 0
  005a1	68 00 00 00 00	 push	 OFFSET ??_C@_0BA@KBBGBHCB@GrandDinamicExp?$AA@
  005a6	68 00 00 00 00	 push	 OFFSET ??_C@_0N@OGADEGCF@CustomSystem?$AA@
  005ab	ff 15 00 00 00
	00		 call	 DWORD PTR __imp__GetPrivateProfileIntA@16
  005b1	85 c0		 test	 eax, eax
  005b3	0f 95 c0	 setne	 al
  005b6	8b 4d fc	 mov	 ecx, DWORD PTR _this$[ebp]
  005b9	88 41 1b	 mov	 BYTE PTR [ecx+27], al

; 88   : 	m_bPartySave = (bool) GetPrivateProfileInt("CustomSystem", "PartySave", 0, gDirPath.GetNewPath("Custom\CustomSystem.ini"));

  005bc	68 00 00 00 00	 push	 OFFSET ??_C@_0BH@MJFGBPKH@CustomCustomSystem?4ini?$AA@
  005c1	b9 00 00 00 00	 mov	 ecx, OFFSET ?gDirPath@@3VCDirPath@@A ; gDirPath
  005c6	e8 00 00 00 00	 call	 ?GetNewPath@CDirPath@@QAEPADPAD@Z ; CDirPath::GetNewPath
  005cb	50		 push	 eax
  005cc	6a 00		 push	 0
  005ce	68 00 00 00 00	 push	 OFFSET ??_C@_09IANJBEIH@PartySave?$AA@
  005d3	68 00 00 00 00	 push	 OFFSET ??_C@_0N@OGADEGCF@CustomSystem?$AA@
  005d8	ff 15 00 00 00
	00		 call	 DWORD PTR __imp__GetPrivateProfileIntA@16
  005de	85 c0		 test	 eax, eax
  005e0	0f 95 c0	 setne	 al
  005e3	8b 4d fc	 mov	 ecx, DWORD PTR _this$[ebp]
  005e6	88 41 1c	 mov	 BYTE PTR [ecx+28], al

; 89   : 	m_bDisableMasterTree = (bool) GetPrivateProfileInt("CustomSystem", "DisableMasterTree", 0, gDirPath.GetNewPath("Custom\CustomSystem.ini"));

  005e9	68 00 00 00 00	 push	 OFFSET ??_C@_0BH@MJFGBPKH@CustomCustomSystem?4ini?$AA@
  005ee	b9 00 00 00 00	 mov	 ecx, OFFSET ?gDirPath@@3VCDirPath@@A ; gDirPath
  005f3	e8 00 00 00 00	 call	 ?GetNewPath@CDirPath@@QAEPADPAD@Z ; CDirPath::GetNewPath
  005f8	50		 push	 eax
  005f9	6a 00		 push	 0
  005fb	68 00 00 00 00	 push	 OFFSET ??_C@_0BC@HIGIONLP@DisableMasterTree?$AA@
  00600	68 00 00 00 00	 push	 OFFSET ??_C@_0N@OGADEGCF@CustomSystem?$AA@
  00605	ff 15 00 00 00
	00		 call	 DWORD PTR __imp__GetPrivateProfileIntA@16
  0060b	85 c0		 test	 eax, eax
  0060d	0f 95 c0	 setne	 al
  00610	8b 4d fc	 mov	 ecx, DWORD PTR _this$[ebp]
  00613	88 41 1d	 mov	 BYTE PTR [ecx+29], al

; 90   : 	m_bOfflineMode = (bool) GetPrivateProfileInt("CustomSystem", "OfflineMode", 0, gDirPath.GetNewPath("Custom\CustomSystem.ini"));

  00616	68 00 00 00 00	 push	 OFFSET ??_C@_0BH@MJFGBPKH@CustomCustomSystem?4ini?$AA@
  0061b	b9 00 00 00 00	 mov	 ecx, OFFSET ?gDirPath@@3VCDirPath@@A ; gDirPath
  00620	e8 00 00 00 00	 call	 ?GetNewPath@CDirPath@@QAEPADPAD@Z ; CDirPath::GetNewPath
  00625	50		 push	 eax
  00626	6a 00		 push	 0
  00628	68 00 00 00 00	 push	 OFFSET ??_C@_0M@MAHENOJP@OfflineMode?$AA@
  0062d	68 00 00 00 00	 push	 OFFSET ??_C@_0N@OGADEGCF@CustomSystem?$AA@
  00632	ff 15 00 00 00
	00		 call	 DWORD PTR __imp__GetPrivateProfileIntA@16
  00638	85 c0		 test	 eax, eax
  0063a	0f 95 c0	 setne	 al
  0063d	8b 4d fc	 mov	 ecx, DWORD PTR _this$[ebp]
  00640	88 41 1e	 mov	 BYTE PTR [ecx+30], al

; 91   : 	m_bMarriage = (bool) GetPrivateProfileInt("CustomSystem", "Marriage", 0, gDirPath.GetNewPath("Custom\CustomSystem.ini"));

  00643	68 00 00 00 00	 push	 OFFSET ??_C@_0BH@MJFGBPKH@CustomCustomSystem?4ini?$AA@
  00648	b9 00 00 00 00	 mov	 ecx, OFFSET ?gDirPath@@3VCDirPath@@A ; gDirPath
  0064d	e8 00 00 00 00	 call	 ?GetNewPath@CDirPath@@QAEPADPAD@Z ; CDirPath::GetNewPath
  00652	50		 push	 eax
  00653	6a 00		 push	 0
  00655	68 00 00 00 00	 push	 OFFSET ??_C@_08FFNNAFPB@Marriage?$AA@
  0065a	68 00 00 00 00	 push	 OFFSET ??_C@_0N@OGADEGCF@CustomSystem?$AA@
  0065f	ff 15 00 00 00
	00		 call	 DWORD PTR __imp__GetPrivateProfileIntA@16
  00665	85 c0		 test	 eax, eax
  00667	0f 95 c0	 setne	 al
  0066a	8b 4d fc	 mov	 ecx, DWORD PTR _this$[ebp]
  0066d	88 41 1f	 mov	 BYTE PTR [ecx+31], al

; 92   : 	m_bMonsterAttackLife = (bool) GetPrivateProfileInt("CustomSystem", "MonsterAttackLife", 0, gDirPath.GetNewPath("Custom\CustomSystem.ini"));

  00670	68 00 00 00 00	 push	 OFFSET ??_C@_0BH@MJFGBPKH@CustomCustomSystem?4ini?$AA@
  00675	b9 00 00 00 00	 mov	 ecx, OFFSET ?gDirPath@@3VCDirPath@@A ; gDirPath
  0067a	e8 00 00 00 00	 call	 ?GetNewPath@CDirPath@@QAEPADPAD@Z ; CDirPath::GetNewPath
  0067f	50		 push	 eax
  00680	6a 00		 push	 0
  00682	68 00 00 00 00	 push	 OFFSET ??_C@_0BC@EMNDDHAC@MonsterAttackLife?$AA@
  00687	68 00 00 00 00	 push	 OFFSET ??_C@_0N@OGADEGCF@CustomSystem?$AA@
  0068c	ff 15 00 00 00
	00		 call	 DWORD PTR __imp__GetPrivateProfileIntA@16
  00692	85 c0		 test	 eax, eax
  00694	0f 95 c0	 setne	 al
  00697	8b 4d fc	 mov	 ecx, DWORD PTR _this$[ebp]
  0069a	88 41 20	 mov	 BYTE PTR [ecx+32], al

; 93   : 	m_bbRankItem = (bool) GetPrivateProfileInt("CustomSystem", "bRankItem", 0, gDirPath.GetNewPath("Custom\CustomSystem.ini"));

  0069d	68 00 00 00 00	 push	 OFFSET ??_C@_0BH@MJFGBPKH@CustomCustomSystem?4ini?$AA@
  006a2	b9 00 00 00 00	 mov	 ecx, OFFSET ?gDirPath@@3VCDirPath@@A ; gDirPath
  006a7	e8 00 00 00 00	 call	 ?GetNewPath@CDirPath@@QAEPADPAD@Z ; CDirPath::GetNewPath
  006ac	50		 push	 eax
  006ad	6a 00		 push	 0
  006af	68 00 00 00 00	 push	 OFFSET ??_C@_09BPMJFDOC@bRankItem?$AA@
  006b4	68 00 00 00 00	 push	 OFFSET ??_C@_0N@OGADEGCF@CustomSystem?$AA@
  006b9	ff 15 00 00 00
	00		 call	 DWORD PTR __imp__GetPrivateProfileIntA@16
  006bf	85 c0		 test	 eax, eax
  006c1	0f 95 c0	 setne	 al
  006c4	8b 4d fc	 mov	 ecx, DWORD PTR _this$[ebp]
  006c7	88 41 21	 mov	 BYTE PTR [ecx+33], al

; 94   : 	m_bRestoreOffMode = (bool) GetPrivateProfileInt("CustomSystem", "RestoreOffMode", 0, gDirPath.GetNewPath("Custom\CustomSystem.ini"));

  006ca	68 00 00 00 00	 push	 OFFSET ??_C@_0BH@MJFGBPKH@CustomCustomSystem?4ini?$AA@
  006cf	b9 00 00 00 00	 mov	 ecx, OFFSET ?gDirPath@@3VCDirPath@@A ; gDirPath
  006d4	e8 00 00 00 00	 call	 ?GetNewPath@CDirPath@@QAEPADPAD@Z ; CDirPath::GetNewPath
  006d9	50		 push	 eax
  006da	6a 00		 push	 0
  006dc	68 00 00 00 00	 push	 OFFSET ??_C@_0P@FDFPNDOE@RestoreOffMode?$AA@
  006e1	68 00 00 00 00	 push	 OFFSET ??_C@_0N@OGADEGCF@CustomSystem?$AA@
  006e6	ff 15 00 00 00
	00		 call	 DWORD PTR __imp__GetPrivateProfileIntA@16
  006ec	85 c0		 test	 eax, eax
  006ee	0f 95 c0	 setne	 al
  006f1	8b 4d fc	 mov	 ecx, DWORD PTR _this$[ebp]
  006f4	88 41 22	 mov	 BYTE PTR [ecx+34], al

; 95   : 	m_bMapQuest = (bool) GetPrivateProfileInt("CustomSystem", "MapQuest", 0, gDirPath.GetNewPath("Custom\CustomSystem.ini"));

  006f7	68 00 00 00 00	 push	 OFFSET ??_C@_0BH@MJFGBPKH@CustomCustomSystem?4ini?$AA@
  006fc	b9 00 00 00 00	 mov	 ecx, OFFSET ?gDirPath@@3VCDirPath@@A ; gDirPath
  00701	e8 00 00 00 00	 call	 ?GetNewPath@CDirPath@@QAEPADPAD@Z ; CDirPath::GetNewPath
  00706	50		 push	 eax
  00707	6a 00		 push	 0
  00709	68 00 00 00 00	 push	 OFFSET ??_C@_08CBPOKGCI@MapQuest?$AA@
  0070e	68 00 00 00 00	 push	 OFFSET ??_C@_0N@OGADEGCF@CustomSystem?$AA@
  00713	ff 15 00 00 00
	00		 call	 DWORD PTR __imp__GetPrivateProfileIntA@16
  00719	85 c0		 test	 eax, eax
  0071b	0f 95 c0	 setne	 al
  0071e	8b 4d fc	 mov	 ecx, DWORD PTR _this$[ebp]
  00721	88 41 23	 mov	 BYTE PTR [ecx+35], al

; 96   : 	m_bbTeamVsTeam2 = (bool) GetPrivateProfileInt("CustomSystem", "bTeamVsTeam2", 0, gDirPath.GetNewPath("Custom\CustomSystem.ini"));

  00724	68 00 00 00 00	 push	 OFFSET ??_C@_0BH@MJFGBPKH@CustomCustomSystem?4ini?$AA@
  00729	b9 00 00 00 00	 mov	 ecx, OFFSET ?gDirPath@@3VCDirPath@@A ; gDirPath
  0072e	e8 00 00 00 00	 call	 ?GetNewPath@CDirPath@@QAEPADPAD@Z ; CDirPath::GetNewPath
  00733	50		 push	 eax
  00734	6a 00		 push	 0
  00736	68 00 00 00 00	 push	 OFFSET ??_C@_0N@LFDCJKJD@bTeamVsTeam2?$AA@
  0073b	68 00 00 00 00	 push	 OFFSET ??_C@_0N@OGADEGCF@CustomSystem?$AA@
  00740	ff 15 00 00 00
	00		 call	 DWORD PTR __imp__GetPrivateProfileIntA@16
  00746	85 c0		 test	 eax, eax
  00748	0f 95 c0	 setne	 al
  0074b	8b 4d fc	 mov	 ecx, DWORD PTR _this$[ebp]
  0074e	88 41 24	 mov	 BYTE PTR [ecx+36], al

; 97   : 	m_bbAchievements = (bool) GetPrivateProfileInt("CustomSystem", "bAchievements", 0, gDirPath.GetNewPath("Custom\CustomSystem.ini"));

  00751	68 00 00 00 00	 push	 OFFSET ??_C@_0BH@MJFGBPKH@CustomCustomSystem?4ini?$AA@
  00756	b9 00 00 00 00	 mov	 ecx, OFFSET ?gDirPath@@3VCDirPath@@A ; gDirPath
  0075b	e8 00 00 00 00	 call	 ?GetNewPath@CDirPath@@QAEPADPAD@Z ; CDirPath::GetNewPath
  00760	50		 push	 eax
  00761	6a 00		 push	 0
  00763	68 00 00 00 00	 push	 OFFSET ??_C@_0O@HHCLNCCD@bAchievements?$AA@
  00768	68 00 00 00 00	 push	 OFFSET ??_C@_0N@OGADEGCF@CustomSystem?$AA@
  0076d	ff 15 00 00 00
	00		 call	 DWORD PTR __imp__GetPrivateProfileIntA@16
  00773	85 c0		 test	 eax, eax
  00775	0f 95 c0	 setne	 al
  00778	8b 4d fc	 mov	 ecx, DWORD PTR _this$[ebp]
  0077b	88 41 25	 mov	 BYTE PTR [ecx+37], al

; 98   : 	m_bPremiumEx = (bool) GetPrivateProfileInt("CustomSystem", "PremiumEx", 0, gDirPath.GetNewPath("Custom\CustomSystem.ini"));

  0077e	68 00 00 00 00	 push	 OFFSET ??_C@_0BH@MJFGBPKH@CustomCustomSystem?4ini?$AA@
  00783	b9 00 00 00 00	 mov	 ecx, OFFSET ?gDirPath@@3VCDirPath@@A ; gDirPath
  00788	e8 00 00 00 00	 call	 ?GetNewPath@CDirPath@@QAEPADPAD@Z ; CDirPath::GetNewPath
  0078d	50		 push	 eax
  0078e	6a 00		 push	 0
  00790	68 00 00 00 00	 push	 OFFSET ??_C@_09EPGMNLEO@PremiumEx?$AA@
  00795	68 00 00 00 00	 push	 OFFSET ??_C@_0N@OGADEGCF@CustomSystem?$AA@
  0079a	ff 15 00 00 00
	00		 call	 DWORD PTR __imp__GetPrivateProfileIntA@16
  007a0	85 c0		 test	 eax, eax
  007a2	0f 95 c0	 setne	 al
  007a5	8b 4d fc	 mov	 ecx, DWORD PTR _this$[ebp]
  007a8	88 41 26	 mov	 BYTE PTR [ecx+38], al

; 99   : 	m_bAccSecurity = (bool) GetPrivateProfileInt("CustomSystem", "AccSecurity", 0, gDirPath.GetNewPath("Custom\CustomSystem.ini"));

  007ab	68 00 00 00 00	 push	 OFFSET ??_C@_0BH@MJFGBPKH@CustomCustomSystem?4ini?$AA@
  007b0	b9 00 00 00 00	 mov	 ecx, OFFSET ?gDirPath@@3VCDirPath@@A ; gDirPath
  007b5	e8 00 00 00 00	 call	 ?GetNewPath@CDirPath@@QAEPADPAD@Z ; CDirPath::GetNewPath
  007ba	50		 push	 eax
  007bb	6a 00		 push	 0
  007bd	68 00 00 00 00	 push	 OFFSET ??_C@_0M@IGFGJNDG@AccSecurity?$AA@
  007c2	68 00 00 00 00	 push	 OFFSET ??_C@_0N@OGADEGCF@CustomSystem?$AA@
  007c7	ff 15 00 00 00
	00		 call	 DWORD PTR __imp__GetPrivateProfileIntA@16
  007cd	85 c0		 test	 eax, eax
  007cf	0f 95 c0	 setne	 al
  007d2	8b 4d fc	 mov	 ecx, DWORD PTR _this$[ebp]
  007d5	88 41 27	 mov	 BYTE PTR [ecx+39], al

; 100  : 	m_bCraftQuestSystem = (bool) GetPrivateProfileInt("CustomSystem", "CraftQuestSystem", 0, gDirPath.GetNewPath("Custom\CustomSystem.ini"));

  007d8	68 00 00 00 00	 push	 OFFSET ??_C@_0BH@MJFGBPKH@CustomCustomSystem?4ini?$AA@
  007dd	b9 00 00 00 00	 mov	 ecx, OFFSET ?gDirPath@@3VCDirPath@@A ; gDirPath
  007e2	e8 00 00 00 00	 call	 ?GetNewPath@CDirPath@@QAEPADPAD@Z ; CDirPath::GetNewPath
  007e7	50		 push	 eax
  007e8	6a 00		 push	 0
  007ea	68 00 00 00 00	 push	 OFFSET ??_C@_0BB@JBLMLDIE@CraftQuestSystem?$AA@
  007ef	68 00 00 00 00	 push	 OFFSET ??_C@_0N@OGADEGCF@CustomSystem?$AA@
  007f4	ff 15 00 00 00
	00		 call	 DWORD PTR __imp__GetPrivateProfileIntA@16
  007fa	85 c0		 test	 eax, eax
  007fc	0f 95 c0	 setne	 al
  007ff	8b 4d fc	 mov	 ecx, DWORD PTR _this$[ebp]
  00802	88 41 28	 mov	 BYTE PTR [ecx+40], al

; 101  : 	m_bPickUpItemInfo = (bool) GetPrivateProfileInt("CustomSystem", "PickUpItemInfo", 0, gDirPath.GetNewPath("Custom\CustomSystem.ini"));

  00805	68 00 00 00 00	 push	 OFFSET ??_C@_0BH@MJFGBPKH@CustomCustomSystem?4ini?$AA@
  0080a	b9 00 00 00 00	 mov	 ecx, OFFSET ?gDirPath@@3VCDirPath@@A ; gDirPath
  0080f	e8 00 00 00 00	 call	 ?GetNewPath@CDirPath@@QAEPADPAD@Z ; CDirPath::GetNewPath
  00814	50		 push	 eax
  00815	6a 00		 push	 0
  00817	68 00 00 00 00	 push	 OFFSET ??_C@_0P@IGINMNCJ@PickUpItemInfo?$AA@
  0081c	68 00 00 00 00	 push	 OFFSET ??_C@_0N@OGADEGCF@CustomSystem?$AA@
  00821	ff 15 00 00 00
	00		 call	 DWORD PTR __imp__GetPrivateProfileIntA@16
  00827	85 c0		 test	 eax, eax
  00829	0f 95 c0	 setne	 al
  0082c	8b 4d fc	 mov	 ecx, DWORD PTR _this$[ebp]
  0082f	88 41 29	 mov	 BYTE PTR [ecx+41], al

; 102  : 	m_bReferralSystem = (bool) GetPrivateProfileInt("CustomSystem", "ReferralSystem", 0, gDirPath.GetNewPath("Custom\CustomSystem.ini"));

  00832	68 00 00 00 00	 push	 OFFSET ??_C@_0BH@MJFGBPKH@CustomCustomSystem?4ini?$AA@
  00837	b9 00 00 00 00	 mov	 ecx, OFFSET ?gDirPath@@3VCDirPath@@A ; gDirPath
  0083c	e8 00 00 00 00	 call	 ?GetNewPath@CDirPath@@QAEPADPAD@Z ; CDirPath::GetNewPath
  00841	50		 push	 eax
  00842	6a 00		 push	 0
  00844	68 00 00 00 00	 push	 OFFSET ??_C@_0P@HKHENGDG@ReferralSystem?$AA@
  00849	68 00 00 00 00	 push	 OFFSET ??_C@_0N@OGADEGCF@CustomSystem?$AA@
  0084e	ff 15 00 00 00
	00		 call	 DWORD PTR __imp__GetPrivateProfileIntA@16
  00854	85 c0		 test	 eax, eax
  00856	0f 95 c0	 setne	 al
  00859	8b 4d fc	 mov	 ecx, DWORD PTR _this$[ebp]
  0085c	88 41 2a	 mov	 BYTE PTR [ecx+42], al

; 103  : }

  0085f	5f		 pop	 edi
  00860	5e		 pop	 esi
  00861	5b		 pop	 ebx
  00862	8b e5		 mov	 esp, ebp
  00864	5d		 pop	 ebp
  00865	c3		 ret	 0
?Load@CCustomSystem@@QAEXXZ ENDP			; CCustomSystem::Load
_TEXT	ENDS
EXTRN	_atexit:PROC
; Function compile flags: /Odtp /ZI
;	COMDAT ??__Eg_CustomSystem@@YAXXZ
text$yc	SEGMENT
??__Eg_CustomSystem@@YAXXZ PROC				; `dynamic initializer for 'g_CustomSystem'', COMDAT

; 6    : CCustomSystem g_CustomSystem;

  00000	55		 push	 ebp
  00001	8b ec		 mov	 ebp, esp
  00003	83 ec 40	 sub	 esp, 64			; 00000040H
  00006	53		 push	 ebx
  00007	56		 push	 esi
  00008	57		 push	 edi
  00009	b9 00 00 00 00	 mov	 ecx, OFFSET ?g_CustomSystem@@3VCCustomSystem@@A ; g_CustomSystem
  0000e	e8 00 00 00 00	 call	 ??0CCustomSystem@@QAE@XZ ; CCustomSystem::CCustomSystem
  00013	68 00 00 00 00	 push	 OFFSET ??__Fg_CustomSystem@@YAXXZ ; `dynamic atexit destructor for 'g_CustomSystem''
  00018	e8 00 00 00 00	 call	 _atexit
  0001d	83 c4 04	 add	 esp, 4
  00020	5f		 pop	 edi
  00021	5e		 pop	 esi
  00022	5b		 pop	 ebx
  00023	8b e5		 mov	 esp, ebp
  00025	5d		 pop	 ebp
  00026	c3		 ret	 0
??__Eg_CustomSystem@@YAXXZ ENDP				; `dynamic initializer for 'g_CustomSystem''
; Function compile flags: /Odtp /ZI
text$yc	ENDS
;	COMDAT ??__Fg_CustomSystem@@YAXXZ
text$yd	SEGMENT
??__Fg_CustomSystem@@YAXXZ PROC				; `dynamic atexit destructor for 'g_CustomSystem'', COMDAT
  00000	55		 push	 ebp
  00001	8b ec		 mov	 ebp, esp
  00003	83 ec 40	 sub	 esp, 64			; 00000040H
  00006	53		 push	 ebx
  00007	56		 push	 esi
  00008	57		 push	 edi
  00009	b9 00 00 00 00	 mov	 ecx, OFFSET ?g_CustomSystem@@3VCCustomSystem@@A ; g_CustomSystem
  0000e	e8 00 00 00 00	 call	 ??1CCustomSystem@@UAE@XZ ; CCustomSystem::~CCustomSystem
  00013	5f		 pop	 edi
  00014	5e		 pop	 esi
  00015	5b		 pop	 ebx
  00016	8b e5		 mov	 esp, ebp
  00018	5d		 pop	 ebp
  00019	c3		 ret	 0
??__Fg_CustomSystem@@YAXXZ ENDP				; `dynamic atexit destructor for 'g_CustomSystem''
text$yd	ENDS
PUBLIC	?g_CustomSystem@@3VCCustomSystem@@A		; g_CustomSystem
_BSS	SEGMENT
?g_CustomSystem@@3VCCustomSystem@@A DB 02cH DUP (?)	; g_CustomSystem
_BSS	ENDS
CRT$XCU	SEGMENT
_g_CustomSystem$initializer$ DD FLAT:??__Eg_CustomSystem@@YAXXZ
CRT$XCU	ENDS
END
