; Listing generated by Microsoft (R) Optimizing Compiler Version 16.00.40219.01 

	TITLE	D:\Projects\ExTeam6.3\Source\GameServer\GameServer\DeviasBattle.cpp
	.686P
	.XMM
	include listing.inc
	.model	flat

INCLUDELIB LIBCMT
INCLUDELIB OLDNAMES

PUBLIC	?g_DeviasBattle@@3VCDeviasBattle@@A		; g_DeviasBattle
_BSS	SEGMENT
?g_DeviasBattle@@3VCDeviasBattle@@A DB 021cc8H DUP (?)	; g_DeviasBattle
_BSS	ENDS
PUBLIC	??_H@YGXPAXIHP6EPAX0@Z@Z			; `vector constructor iterator'
; Function compile flags: /Odtp /ZI
;	COMDAT ??_H@YGXPAXIHP6EPAX0@Z@Z
_TEXT	SEGMENT
___t$ = 8						; size = 4
___s$ = 12						; size = 4
___n$ = 16						; size = 4
___f$ = 20						; size = 4
??_H@YGXPAXIHP6EPAX0@Z@Z PROC				; `vector constructor iterator', COMDAT
  00000	55		 push	 ebp
  00001	8b ec		 mov	 ebp, esp
  00003	83 ec 40	 sub	 esp, 64			; 00000040H
  00006	53		 push	 ebx
  00007	56		 push	 esi
  00008	57		 push	 edi
$LN2@vector:
  00009	8b 45 10	 mov	 eax, DWORD PTR ___n$[ebp]
  0000c	83 e8 01	 sub	 eax, 1
  0000f	89 45 10	 mov	 DWORD PTR ___n$[ebp], eax
  00012	78 11		 js	 SHORT $LN3@vector
  00014	8b 4d 08	 mov	 ecx, DWORD PTR ___t$[ebp]
  00017	ff 55 14	 call	 DWORD PTR ___f$[ebp]
  0001a	8b 45 08	 mov	 eax, DWORD PTR ___t$[ebp]
  0001d	03 45 0c	 add	 eax, DWORD PTR ___s$[ebp]
  00020	89 45 08	 mov	 DWORD PTR ___t$[ebp], eax
  00023	eb e4		 jmp	 SHORT $LN2@vector
$LN3@vector:
  00025	5f		 pop	 edi
  00026	5e		 pop	 esi
  00027	5b		 pop	 ebx
  00028	8b e5		 mov	 esp, ebp
  0002a	5d		 pop	 ebp
  0002b	c2 10 00	 ret	 16			; 00000010H
??_H@YGXPAXIHP6EPAX0@Z@Z ENDP				; `vector constructor iterator'
_TEXT	ENDS
PUBLIC	??_C@_0BC@HDIJPDCG@?$CFd?5?$CFd?5?$CFd?5?$CFd?5?$CFd?5?$CFd?$AA@ ; `string'
PUBLIC	??_C@_0CB@HDEBLLGM@DeviasBattleEvent?4ini?5Load?5Error@ ; `string'
PUBLIC	??_C@_0P@BPENEPNJ@CRITICAL?5ERROR?$AA@		; `string'
PUBLIC	??_C@_01KDCPPGHE@r?$AA@				; `string'
PUBLIC	??_C@_0BF@JLLCHHMO@FallenItemDropAncOpt?$AA@	; `string'
PUBLIC	??_C@_0BF@LKHCLCFL@FallenItemDropExcOpt?$AA@	; `string'
PUBLIC	??_C@_0BC@MOMDCMLD@FallenItemDropOpt?$AA@	; `string'
PUBLIC	??_C@_0BD@LNLIKMGB@FallenItemDropLuck?$AA@	; `string'
PUBLIC	??_C@_0BE@LEOCKCIF@FallenItemDropSkill?$AA@	; `string'
PUBLIC	??_C@_0BE@POPJNAOM@FallenItemDropLevel?$AA@	; `string'
PUBLIC	??_C@_0BB@EKAHBGBH@FallenItemDropID?$AA@	; `string'
PUBLIC	??_C@_0BD@CHBNPPDN@FallenItemDropType?$AA@	; `string'
PUBLIC	??_C@_06BOLACBCI@Fallen?$AA@			; `string'
PUBLIC	??_C@_0M@IPCHJHK@Fallen_DROP?$AA@		; `string'
PUBLIC	??_C@_0BF@FCMLKBH@RewardItemDropAncOpt?$AA@	; `string'
PUBLIC	??_C@_0BF@CEOMHPIC@RewardItemDropExcOpt?$AA@	; `string'
PUBLIC	??_C@_0BC@OBBCBHMH@RewardItemDropOpt?$AA@	; `string'
PUBLIC	??_C@_0BD@OKPPMIHP@RewardItemDropLuck?$AA@	; `string'
PUBLIC	??_C@_0BE@EOLKNIIC@RewardItemDropSkill?$AA@	; `string'
PUBLIC	??_C@_0BE@EKBKKOL@RewardItemDropLevel?$AA@	; `string'
PUBLIC	??_C@_0BB@PEEAOFCL@RewardItemDropID?$AA@	; `string'
PUBLIC	??_C@_0BD@HAFKJLCD@RewardItemDropType?$AA@	; `string'
PUBLIC	??_C@_0N@CKMOHFOH@RewardExCred?$AA@		; `string'
PUBLIC	??_C@_0N@BMBAGBBL@RewardGoblin?$AA@		; `string'
PUBLIC	??_C@_0N@IAGEABOD@RewardWCoinP?$AA@		; `string'
PUBLIC	??_C@_0N@OBILEAHB@RewardWCoinC?$AA@		; `string'
PUBLIC	??_C@_06BAGMPINC@Reward?$AA@			; `string'
PUBLIC	??_C@_0L@MMIEHGGH@RewardItem?$AA@		; `string'
PUBLIC	??_C@_03FDIGDFNB@MGS?$AA@			; `string'
PUBLIC	??_C@_0CF@GHNLONBB@?$FLDevias?5Battle?$FN?5Start?5after?51?5mi@ ; `string'
PUBLIC	??_C@_06POMJKEPM@Common?$AA@			; `string'
PUBLIC	??_C@_06CKGENIKG@Enable?$AA@			; `string'
PUBLIC	??_C@_0CM@MAHHOJJN@?4?4?2Data?2ExData?2Events?2DeviasBatt@ ; `string'
PUBLIC	__$ArrayPad$
PUBLIC	?LoadConfigs@CDeviasBattle@@QAEXXZ		; CDeviasBattle::LoadConfigs
EXTRN	_fclose:PROC
EXTRN	_sscanf:PROC
EXTRN	?Ex_IsBadFileLine@@YA_NPADAAH@Z:PROC		; Ex_IsBadFileLine
EXTRN	_fgets:PROC
EXTRN	_feof:PROC
EXTRN	__imp__MessageBoxA@16:PROC
EXTRN	_fopen:PROC
EXTRN	__imp__GetPrivateProfileStringA@24:PROC
EXTRN	?g_ExLicense@@3VCExLicense@@A:BYTE		; g_ExLicense
EXTRN	__imp__GetPrivateProfileIntA@16:PROC
EXTRN	___security_cookie:DWORD
EXTRN	@__security_check_cookie@4:PROC
;	COMDAT ??_C@_0BC@HDIJPDCG@?$CFd?5?$CFd?5?$CFd?5?$CFd?5?$CFd?5?$CFd?$AA@
; File d:\projects\exteam6.3\source\gameserver\gameserver\deviasbattle.cpp
CONST	SEGMENT
??_C@_0BC@HDIJPDCG@?$CFd?5?$CFd?5?$CFd?5?$CFd?5?$CFd?5?$CFd?$AA@ DB '%d %'
	DB	'd %d %d %d %d', 00H				; `string'
CONST	ENDS
;	COMDAT ??_C@_0CB@HDEBLLGM@DeviasBattleEvent?4ini?5Load?5Error@
CONST	SEGMENT
??_C@_0CB@HDEBLLGM@DeviasBattleEvent?4ini?5Load?5Error@ DB 'DeviasBattleE'
	DB	'vent.ini Load Error', 00H			; `string'
CONST	ENDS
;	COMDAT ??_C@_0P@BPENEPNJ@CRITICAL?5ERROR?$AA@
CONST	SEGMENT
??_C@_0P@BPENEPNJ@CRITICAL?5ERROR?$AA@ DB 'CRITICAL ERROR', 00H ; `string'
CONST	ENDS
;	COMDAT ??_C@_01KDCPPGHE@r?$AA@
CONST	SEGMENT
??_C@_01KDCPPGHE@r?$AA@ DB 'r', 00H			; `string'
CONST	ENDS
;	COMDAT ??_C@_0BF@JLLCHHMO@FallenItemDropAncOpt?$AA@
CONST	SEGMENT
??_C@_0BF@JLLCHHMO@FallenItemDropAncOpt?$AA@ DB 'FallenItemDropAncOpt', 00H ; `string'
CONST	ENDS
;	COMDAT ??_C@_0BF@LKHCLCFL@FallenItemDropExcOpt?$AA@
CONST	SEGMENT
??_C@_0BF@LKHCLCFL@FallenItemDropExcOpt?$AA@ DB 'FallenItemDropExcOpt', 00H ; `string'
CONST	ENDS
;	COMDAT ??_C@_0BC@MOMDCMLD@FallenItemDropOpt?$AA@
CONST	SEGMENT
??_C@_0BC@MOMDCMLD@FallenItemDropOpt?$AA@ DB 'FallenItemDropOpt', 00H ; `string'
CONST	ENDS
;	COMDAT ??_C@_0BD@LNLIKMGB@FallenItemDropLuck?$AA@
CONST	SEGMENT
??_C@_0BD@LNLIKMGB@FallenItemDropLuck?$AA@ DB 'FallenItemDropLuck', 00H ; `string'
CONST	ENDS
;	COMDAT ??_C@_0BE@LEOCKCIF@FallenItemDropSkill?$AA@
CONST	SEGMENT
??_C@_0BE@LEOCKCIF@FallenItemDropSkill?$AA@ DB 'FallenItemDropSkill', 00H ; `string'
CONST	ENDS
;	COMDAT ??_C@_0BE@POPJNAOM@FallenItemDropLevel?$AA@
CONST	SEGMENT
??_C@_0BE@POPJNAOM@FallenItemDropLevel?$AA@ DB 'FallenItemDropLevel', 00H ; `string'
CONST	ENDS
;	COMDAT ??_C@_0BB@EKAHBGBH@FallenItemDropID?$AA@
CONST	SEGMENT
??_C@_0BB@EKAHBGBH@FallenItemDropID?$AA@ DB 'FallenItemDropID', 00H ; `string'
CONST	ENDS
;	COMDAT ??_C@_0BD@CHBNPPDN@FallenItemDropType?$AA@
CONST	SEGMENT
??_C@_0BD@CHBNPPDN@FallenItemDropType?$AA@ DB 'FallenItemDropType', 00H ; `string'
CONST	ENDS
;	COMDAT ??_C@_06BOLACBCI@Fallen?$AA@
CONST	SEGMENT
??_C@_06BOLACBCI@Fallen?$AA@ DB 'Fallen', 00H		; `string'
CONST	ENDS
;	COMDAT ??_C@_0M@IPCHJHK@Fallen_DROP?$AA@
CONST	SEGMENT
??_C@_0M@IPCHJHK@Fallen_DROP?$AA@ DB 'Fallen_DROP', 00H	; `string'
CONST	ENDS
;	COMDAT ??_C@_0BF@FCMLKBH@RewardItemDropAncOpt?$AA@
CONST	SEGMENT
??_C@_0BF@FCMLKBH@RewardItemDropAncOpt?$AA@ DB 'RewardItemDropAncOpt', 00H ; `string'
CONST	ENDS
;	COMDAT ??_C@_0BF@CEOMHPIC@RewardItemDropExcOpt?$AA@
CONST	SEGMENT
??_C@_0BF@CEOMHPIC@RewardItemDropExcOpt?$AA@ DB 'RewardItemDropExcOpt', 00H ; `string'
CONST	ENDS
;	COMDAT ??_C@_0BC@OBBCBHMH@RewardItemDropOpt?$AA@
CONST	SEGMENT
??_C@_0BC@OBBCBHMH@RewardItemDropOpt?$AA@ DB 'RewardItemDropOpt', 00H ; `string'
CONST	ENDS
;	COMDAT ??_C@_0BD@OKPPMIHP@RewardItemDropLuck?$AA@
CONST	SEGMENT
??_C@_0BD@OKPPMIHP@RewardItemDropLuck?$AA@ DB 'RewardItemDropLuck', 00H ; `string'
CONST	ENDS
;	COMDAT ??_C@_0BE@EOLKNIIC@RewardItemDropSkill?$AA@
CONST	SEGMENT
??_C@_0BE@EOLKNIIC@RewardItemDropSkill?$AA@ DB 'RewardItemDropSkill', 00H ; `string'
CONST	ENDS
;	COMDAT ??_C@_0BE@EKBKKOL@RewardItemDropLevel?$AA@
CONST	SEGMENT
??_C@_0BE@EKBKKOL@RewardItemDropLevel?$AA@ DB 'RewardItemDropLevel', 00H ; `string'
CONST	ENDS
;	COMDAT ??_C@_0BB@PEEAOFCL@RewardItemDropID?$AA@
CONST	SEGMENT
??_C@_0BB@PEEAOFCL@RewardItemDropID?$AA@ DB 'RewardItemDropID', 00H ; `string'
CONST	ENDS
;	COMDAT ??_C@_0BD@HAFKJLCD@RewardItemDropType?$AA@
CONST	SEGMENT
??_C@_0BD@HAFKJLCD@RewardItemDropType?$AA@ DB 'RewardItemDropType', 00H ; `string'
CONST	ENDS
;	COMDAT ??_C@_0N@CKMOHFOH@RewardExCred?$AA@
CONST	SEGMENT
??_C@_0N@CKMOHFOH@RewardExCred?$AA@ DB 'RewardExCred', 00H ; `string'
CONST	ENDS
;	COMDAT ??_C@_0N@BMBAGBBL@RewardGoblin?$AA@
CONST	SEGMENT
??_C@_0N@BMBAGBBL@RewardGoblin?$AA@ DB 'RewardGoblin', 00H ; `string'
CONST	ENDS
;	COMDAT ??_C@_0N@IAGEABOD@RewardWCoinP?$AA@
CONST	SEGMENT
??_C@_0N@IAGEABOD@RewardWCoinP?$AA@ DB 'RewardWCoinP', 00H ; `string'
CONST	ENDS
;	COMDAT ??_C@_0N@OBILEAHB@RewardWCoinC?$AA@
CONST	SEGMENT
??_C@_0N@OBILEAHB@RewardWCoinC?$AA@ DB 'RewardWCoinC', 00H ; `string'
CONST	ENDS
;	COMDAT ??_C@_06BAGMPINC@Reward?$AA@
CONST	SEGMENT
??_C@_06BAGMPINC@Reward?$AA@ DB 'Reward', 00H		; `string'
CONST	ENDS
;	COMDAT ??_C@_0L@MMIEHGGH@RewardItem?$AA@
CONST	SEGMENT
??_C@_0L@MMIEHGGH@RewardItem?$AA@ DB 'RewardItem', 00H	; `string'
CONST	ENDS
;	COMDAT ??_C@_03FDIGDFNB@MGS?$AA@
CONST	SEGMENT
??_C@_03FDIGDFNB@MGS?$AA@ DB 'MGS', 00H			; `string'
CONST	ENDS
;	COMDAT ??_C@_0CF@GHNLONBB@?$FLDevias?5Battle?$FN?5Start?5after?51?5mi@
CONST	SEGMENT
??_C@_0CF@GHNLONBB@?$FLDevias?5Battle?$FN?5Start?5after?51?5mi@ DB '[Devi'
	DB	'as Battle] Start after 1 minute', 00H	; `string'
CONST	ENDS
;	COMDAT ??_C@_06POMJKEPM@Common?$AA@
CONST	SEGMENT
??_C@_06POMJKEPM@Common?$AA@ DB 'Common', 00H		; `string'
CONST	ENDS
;	COMDAT ??_C@_06CKGENIKG@Enable?$AA@
CONST	SEGMENT
??_C@_06CKGENIKG@Enable?$AA@ DB 'Enable', 00H		; `string'
CONST	ENDS
;	COMDAT ??_C@_0CM@MAHHOJJN@?4?4?2Data?2ExData?2Events?2DeviasBatt@
CONST	SEGMENT
??_C@_0CM@MAHHOJJN@?4?4?2Data?2ExData?2Events?2DeviasBatt@ DB '..\Data\Ex'
	DB	'Data\Events\DeviasBattleEvent.ini', 00H	; `string'
; Function compile flags: /Odtp /ZI
CONST	ENDS
_TEXT	SEGMENT
_n$220441 = -304					; size = 28
_Flag$ = -276						; size = 4
_Buff$ = -272						; size = 256
_file$ = -16						; size = 4
_i$220425 = -12						; size = 4
_this$ = -8						; size = 4
__$ArrayPad$ = -4					; size = 4
?LoadConfigs@CDeviasBattle@@QAEXXZ PROC			; CDeviasBattle::LoadConfigs
; _this$ = ecx

; 15   : {

  00000	55		 push	 ebp
  00001	8b ec		 mov	 ebp, esp
  00003	81 ec 70 01 00
	00		 sub	 esp, 368		; 00000170H
  00009	a1 00 00 00 00	 mov	 eax, DWORD PTR ___security_cookie
  0000e	33 c5		 xor	 eax, ebp
  00010	89 45 fc	 mov	 DWORD PTR __$ArrayPad$[ebp], eax
  00013	53		 push	 ebx
  00014	56		 push	 esi
  00015	57		 push	 edi
  00016	89 4d f8	 mov	 DWORD PTR _this$[ebp], ecx

; 16   : 	Enable = GetPrivateProfileInt("Common","Enable",1,DEVBATTLE_DIR);

  00019	68 00 00 00 00	 push	 OFFSET ??_C@_0CM@MAHHOJJN@?4?4?2Data?2ExData?2Events?2DeviasBatt@
  0001e	6a 01		 push	 1
  00020	68 00 00 00 00	 push	 OFFSET ??_C@_06CKGENIKG@Enable?$AA@
  00025	68 00 00 00 00	 push	 OFFSET ??_C@_06POMJKEPM@Common?$AA@
  0002a	ff 15 00 00 00
	00		 call	 DWORD PTR __imp__GetPrivateProfileIntA@16
  00030	8b 4d f8	 mov	 ecx, DWORD PTR _this$[ebp]
  00033	89 01		 mov	 DWORD PTR [ecx], eax

; 17   : 	
; 18   : 	if(!g_ExLicense.user.LoraBattle)

  00035	0f b6 05 db 00
	00 00		 movzx	 eax, BYTE PTR ?g_ExLicense@@3VCExLicense@@A+219
  0003c	85 c0		 test	 eax, eax
  0003e	75 09		 jne	 SHORT $LN10@LoadConfig

; 19   : 	{
; 20   : 		Enable = 0;

  00040	8b 45 f8	 mov	 eax, DWORD PTR _this$[ebp]
  00043	c7 00 00 00 00
	00		 mov	 DWORD PTR [eax], 0
$LN10@LoadConfig:

; 21   : 	}
; 22   : 
; 23   : 	if(!Enable)

  00049	8b 45 f8	 mov	 eax, DWORD PTR _this$[ebp]
  0004c	83 38 00	 cmp	 DWORD PTR [eax], 0
  0004f	75 05		 jne	 SHORT $LN9@LoadConfig

; 24   : 		return;

  00051	e9 4d 05 00 00	 jmp	 $LN11@LoadConfig
$LN9@LoadConfig:

; 25   : 
; 26   : 	//Configs
; 27   : 	GetPrivateProfileStringA("Common", "MGS","[Devias Battle] Start after 1 minute",MSG,sizeof(MSG),DEVBATTLE_DIR);

  00056	68 00 00 00 00	 push	 OFFSET ??_C@_0CM@MAHHOJJN@?4?4?2Data?2ExData?2Events?2DeviasBatt@
  0005b	68 00 01 00 00	 push	 256			; 00000100H
  00060	8b 45 f8	 mov	 eax, DWORD PTR _this$[ebp]
  00063	05 c0 0f 02 00	 add	 eax, 135104		; 00020fc0H
  00068	50		 push	 eax
  00069	68 00 00 00 00	 push	 OFFSET ??_C@_0CF@GHNLONBB@?$FLDevias?5Battle?$FN?5Start?5after?51?5mi@
  0006e	68 00 00 00 00	 push	 OFFSET ??_C@_03FDIGDFNB@MGS?$AA@
  00073	68 00 00 00 00	 push	 OFFSET ??_C@_06POMJKEPM@Common?$AA@
  00078	ff 15 00 00 00
	00		 call	 DWORD PTR __imp__GetPrivateProfileStringA@24

; 28   : 	RewardItem = GetPrivateProfileInt("Reward","RewardItem",1,DEVBATTLE_DIR);

  0007e	68 00 00 00 00	 push	 OFFSET ??_C@_0CM@MAHHOJJN@?4?4?2Data?2ExData?2Events?2DeviasBatt@
  00083	6a 01		 push	 1
  00085	68 00 00 00 00	 push	 OFFSET ??_C@_0L@MMIEHGGH@RewardItem?$AA@
  0008a	68 00 00 00 00	 push	 OFFSET ??_C@_06BAGMPINC@Reward?$AA@
  0008f	ff 15 00 00 00
	00		 call	 DWORD PTR __imp__GetPrivateProfileIntA@16
  00095	8b 4d f8	 mov	 ecx, DWORD PTR _this$[ebp]
  00098	89 41 08	 mov	 DWORD PTR [ecx+8], eax

; 29   : 
; 30   : 	RewardWCoinC = GetPrivateProfileInt("Reward","RewardWCoinC",0,DEVBATTLE_DIR);

  0009b	68 00 00 00 00	 push	 OFFSET ??_C@_0CM@MAHHOJJN@?4?4?2Data?2ExData?2Events?2DeviasBatt@
  000a0	6a 00		 push	 0
  000a2	68 00 00 00 00	 push	 OFFSET ??_C@_0N@OBILEAHB@RewardWCoinC?$AA@
  000a7	68 00 00 00 00	 push	 OFFSET ??_C@_06BAGMPINC@Reward?$AA@
  000ac	ff 15 00 00 00
	00		 call	 DWORD PTR __imp__GetPrivateProfileIntA@16
  000b2	8b 4d f8	 mov	 ecx, DWORD PTR _this$[ebp]
  000b5	89 41 0c	 mov	 DWORD PTR [ecx+12], eax

; 31   : 	RewardWCoinP = GetPrivateProfileInt("Reward","RewardWCoinP",0,DEVBATTLE_DIR);

  000b8	68 00 00 00 00	 push	 OFFSET ??_C@_0CM@MAHHOJJN@?4?4?2Data?2ExData?2Events?2DeviasBatt@
  000bd	6a 00		 push	 0
  000bf	68 00 00 00 00	 push	 OFFSET ??_C@_0N@IAGEABOD@RewardWCoinP?$AA@
  000c4	68 00 00 00 00	 push	 OFFSET ??_C@_06BAGMPINC@Reward?$AA@
  000c9	ff 15 00 00 00
	00		 call	 DWORD PTR __imp__GetPrivateProfileIntA@16
  000cf	8b 4d f8	 mov	 ecx, DWORD PTR _this$[ebp]
  000d2	89 41 10	 mov	 DWORD PTR [ecx+16], eax

; 32   : 	RewardGoblin = GetPrivateProfileInt("Reward","RewardGoblin",0,DEVBATTLE_DIR);

  000d5	68 00 00 00 00	 push	 OFFSET ??_C@_0CM@MAHHOJJN@?4?4?2Data?2ExData?2Events?2DeviasBatt@
  000da	6a 00		 push	 0
  000dc	68 00 00 00 00	 push	 OFFSET ??_C@_0N@BMBAGBBL@RewardGoblin?$AA@
  000e1	68 00 00 00 00	 push	 OFFSET ??_C@_06BAGMPINC@Reward?$AA@
  000e6	ff 15 00 00 00
	00		 call	 DWORD PTR __imp__GetPrivateProfileIntA@16
  000ec	8b 4d f8	 mov	 ecx, DWORD PTR _this$[ebp]
  000ef	89 41 14	 mov	 DWORD PTR [ecx+20], eax

; 33   : 	RewardExCred = GetPrivateProfileInt("Reward","RewardExCred",0,DEVBATTLE_DIR);

  000f2	68 00 00 00 00	 push	 OFFSET ??_C@_0CM@MAHHOJJN@?4?4?2Data?2ExData?2Events?2DeviasBatt@
  000f7	6a 00		 push	 0
  000f9	68 00 00 00 00	 push	 OFFSET ??_C@_0N@CKMOHFOH@RewardExCred?$AA@
  000fe	68 00 00 00 00	 push	 OFFSET ??_C@_06BAGMPINC@Reward?$AA@
  00103	ff 15 00 00 00
	00		 call	 DWORD PTR __imp__GetPrivateProfileIntA@16
  00109	8b 4d f8	 mov	 ecx, DWORD PTR _this$[ebp]
  0010c	89 41 18	 mov	 DWORD PTR [ecx+24], eax

; 34   : 
; 35   : 	RewardItemDropType	= GetPrivateProfileInt("Reward","RewardItemDropType",12,DEVBATTLE_DIR);

  0010f	68 00 00 00 00	 push	 OFFSET ??_C@_0CM@MAHHOJJN@?4?4?2Data?2ExData?2Events?2DeviasBatt@
  00114	6a 0c		 push	 12			; 0000000cH
  00116	68 00 00 00 00	 push	 OFFSET ??_C@_0BD@HAFKJLCD@RewardItemDropType?$AA@
  0011b	68 00 00 00 00	 push	 OFFSET ??_C@_06BAGMPINC@Reward?$AA@
  00120	ff 15 00 00 00
	00		 call	 DWORD PTR __imp__GetPrivateProfileIntA@16
  00126	8b 4d f8	 mov	 ecx, DWORD PTR _this$[ebp]
  00129	89 41 1c	 mov	 DWORD PTR [ecx+28], eax

; 36   : 	RewardItemDropID		= GetPrivateProfileInt("Reward","RewardItemDropID",15,DEVBATTLE_DIR);

  0012c	68 00 00 00 00	 push	 OFFSET ??_C@_0CM@MAHHOJJN@?4?4?2Data?2ExData?2Events?2DeviasBatt@
  00131	6a 0f		 push	 15			; 0000000fH
  00133	68 00 00 00 00	 push	 OFFSET ??_C@_0BB@PEEAOFCL@RewardItemDropID?$AA@
  00138	68 00 00 00 00	 push	 OFFSET ??_C@_06BAGMPINC@Reward?$AA@
  0013d	ff 15 00 00 00
	00		 call	 DWORD PTR __imp__GetPrivateProfileIntA@16
  00143	8b 4d f8	 mov	 ecx, DWORD PTR _this$[ebp]
  00146	89 41 20	 mov	 DWORD PTR [ecx+32], eax

; 37   : 	RewardItemDropLevel	= GetPrivateProfileInt("Reward","RewardItemDropLevel",0,DEVBATTLE_DIR);

  00149	68 00 00 00 00	 push	 OFFSET ??_C@_0CM@MAHHOJJN@?4?4?2Data?2ExData?2Events?2DeviasBatt@
  0014e	6a 00		 push	 0
  00150	68 00 00 00 00	 push	 OFFSET ??_C@_0BE@EKBKKOL@RewardItemDropLevel?$AA@
  00155	68 00 00 00 00	 push	 OFFSET ??_C@_06BAGMPINC@Reward?$AA@
  0015a	ff 15 00 00 00
	00		 call	 DWORD PTR __imp__GetPrivateProfileIntA@16
  00160	8b 4d f8	 mov	 ecx, DWORD PTR _this$[ebp]
  00163	89 41 24	 mov	 DWORD PTR [ecx+36], eax

; 38   : 	RewardItemDropSkill	= GetPrivateProfileInt("Reward","RewardItemDropSkill",0,DEVBATTLE_DIR);

  00166	68 00 00 00 00	 push	 OFFSET ??_C@_0CM@MAHHOJJN@?4?4?2Data?2ExData?2Events?2DeviasBatt@
  0016b	6a 00		 push	 0
  0016d	68 00 00 00 00	 push	 OFFSET ??_C@_0BE@EOLKNIIC@RewardItemDropSkill?$AA@
  00172	68 00 00 00 00	 push	 OFFSET ??_C@_06BAGMPINC@Reward?$AA@
  00177	ff 15 00 00 00
	00		 call	 DWORD PTR __imp__GetPrivateProfileIntA@16
  0017d	8b 4d f8	 mov	 ecx, DWORD PTR _this$[ebp]
  00180	89 41 28	 mov	 DWORD PTR [ecx+40], eax

; 39   : 	RewardItemDropLuck	= GetPrivateProfileInt("Reward","RewardItemDropLuck",0,DEVBATTLE_DIR);

  00183	68 00 00 00 00	 push	 OFFSET ??_C@_0CM@MAHHOJJN@?4?4?2Data?2ExData?2Events?2DeviasBatt@
  00188	6a 00		 push	 0
  0018a	68 00 00 00 00	 push	 OFFSET ??_C@_0BD@OKPPMIHP@RewardItemDropLuck?$AA@
  0018f	68 00 00 00 00	 push	 OFFSET ??_C@_06BAGMPINC@Reward?$AA@
  00194	ff 15 00 00 00
	00		 call	 DWORD PTR __imp__GetPrivateProfileIntA@16
  0019a	8b 4d f8	 mov	 ecx, DWORD PTR _this$[ebp]
  0019d	89 41 2c	 mov	 DWORD PTR [ecx+44], eax

; 40   : 	RewardItemDropOpt	= GetPrivateProfileInt("Reward","RewardItemDropOpt",0,DEVBATTLE_DIR);

  001a0	68 00 00 00 00	 push	 OFFSET ??_C@_0CM@MAHHOJJN@?4?4?2Data?2ExData?2Events?2DeviasBatt@
  001a5	6a 00		 push	 0
  001a7	68 00 00 00 00	 push	 OFFSET ??_C@_0BC@OBBCBHMH@RewardItemDropOpt?$AA@
  001ac	68 00 00 00 00	 push	 OFFSET ??_C@_06BAGMPINC@Reward?$AA@
  001b1	ff 15 00 00 00
	00		 call	 DWORD PTR __imp__GetPrivateProfileIntA@16
  001b7	8b 4d f8	 mov	 ecx, DWORD PTR _this$[ebp]
  001ba	89 41 30	 mov	 DWORD PTR [ecx+48], eax

; 41   : 	RewardItemDropExcOpt	= GetPrivateProfileInt("Reward","RewardItemDropExcOpt",0,DEVBATTLE_DIR);

  001bd	68 00 00 00 00	 push	 OFFSET ??_C@_0CM@MAHHOJJN@?4?4?2Data?2ExData?2Events?2DeviasBatt@
  001c2	6a 00		 push	 0
  001c4	68 00 00 00 00	 push	 OFFSET ??_C@_0BF@CEOMHPIC@RewardItemDropExcOpt?$AA@
  001c9	68 00 00 00 00	 push	 OFFSET ??_C@_06BAGMPINC@Reward?$AA@
  001ce	ff 15 00 00 00
	00		 call	 DWORD PTR __imp__GetPrivateProfileIntA@16
  001d4	8b 4d f8	 mov	 ecx, DWORD PTR _this$[ebp]
  001d7	89 41 34	 mov	 DWORD PTR [ecx+52], eax

; 42   : 	RewardItemDropAncOpt	= GetPrivateProfileInt("Reward","RewardItemDropAncOpt",0,DEVBATTLE_DIR);

  001da	68 00 00 00 00	 push	 OFFSET ??_C@_0CM@MAHHOJJN@?4?4?2Data?2ExData?2Events?2DeviasBatt@
  001df	6a 00		 push	 0
  001e1	68 00 00 00 00	 push	 OFFSET ??_C@_0BF@FCMLKBH@RewardItemDropAncOpt?$AA@
  001e6	68 00 00 00 00	 push	 OFFSET ??_C@_06BAGMPINC@Reward?$AA@
  001eb	ff 15 00 00 00
	00		 call	 DWORD PTR __imp__GetPrivateProfileIntA@16
  001f1	8b 4d f8	 mov	 ecx, DWORD PTR _this$[ebp]
  001f4	89 41 38	 mov	 DWORD PTR [ecx+56], eax

; 43   : 
; 44   : 	Fallen_DROP = GetPrivateProfileInt("Fallen","Fallen_DROP",1,DEVBATTLE_DIR);

  001f7	68 00 00 00 00	 push	 OFFSET ??_C@_0CM@MAHHOJJN@?4?4?2Data?2ExData?2Events?2DeviasBatt@
  001fc	6a 01		 push	 1
  001fe	68 00 00 00 00	 push	 OFFSET ??_C@_0M@IPCHJHK@Fallen_DROP?$AA@
  00203	68 00 00 00 00	 push	 OFFSET ??_C@_06BOLACBCI@Fallen?$AA@
  00208	ff 15 00 00 00
	00		 call	 DWORD PTR __imp__GetPrivateProfileIntA@16
  0020e	8b 4d f8	 mov	 ecx, DWORD PTR _this$[ebp]
  00211	89 41 3c	 mov	 DWORD PTR [ecx+60], eax

; 45   : 
; 46   : 	FallenItemDropType	= GetPrivateProfileInt("Fallen","FallenItemDropType",12,DEVBATTLE_DIR);

  00214	68 00 00 00 00	 push	 OFFSET ??_C@_0CM@MAHHOJJN@?4?4?2Data?2ExData?2Events?2DeviasBatt@
  00219	6a 0c		 push	 12			; 0000000cH
  0021b	68 00 00 00 00	 push	 OFFSET ??_C@_0BD@CHBNPPDN@FallenItemDropType?$AA@
  00220	68 00 00 00 00	 push	 OFFSET ??_C@_06BOLACBCI@Fallen?$AA@
  00225	ff 15 00 00 00
	00		 call	 DWORD PTR __imp__GetPrivateProfileIntA@16
  0022b	8b 4d f8	 mov	 ecx, DWORD PTR _this$[ebp]
  0022e	89 41 40	 mov	 DWORD PTR [ecx+64], eax

; 47   : 	FallenItemDropID		= GetPrivateProfileInt("Fallen","FallenItemDropID",15,DEVBATTLE_DIR);

  00231	68 00 00 00 00	 push	 OFFSET ??_C@_0CM@MAHHOJJN@?4?4?2Data?2ExData?2Events?2DeviasBatt@
  00236	6a 0f		 push	 15			; 0000000fH
  00238	68 00 00 00 00	 push	 OFFSET ??_C@_0BB@EKAHBGBH@FallenItemDropID?$AA@
  0023d	68 00 00 00 00	 push	 OFFSET ??_C@_06BOLACBCI@Fallen?$AA@
  00242	ff 15 00 00 00
	00		 call	 DWORD PTR __imp__GetPrivateProfileIntA@16
  00248	8b 4d f8	 mov	 ecx, DWORD PTR _this$[ebp]
  0024b	89 41 44	 mov	 DWORD PTR [ecx+68], eax

; 48   : 	FallenItemDropLevel	= GetPrivateProfileInt("Fallen","FallenItemDropLevel",0,DEVBATTLE_DIR);

  0024e	68 00 00 00 00	 push	 OFFSET ??_C@_0CM@MAHHOJJN@?4?4?2Data?2ExData?2Events?2DeviasBatt@
  00253	6a 00		 push	 0
  00255	68 00 00 00 00	 push	 OFFSET ??_C@_0BE@POPJNAOM@FallenItemDropLevel?$AA@
  0025a	68 00 00 00 00	 push	 OFFSET ??_C@_06BOLACBCI@Fallen?$AA@
  0025f	ff 15 00 00 00
	00		 call	 DWORD PTR __imp__GetPrivateProfileIntA@16
  00265	8b 4d f8	 mov	 ecx, DWORD PTR _this$[ebp]
  00268	89 41 48	 mov	 DWORD PTR [ecx+72], eax

; 49   : 	FallenItemDropSkill	= GetPrivateProfileInt("Fallen","FallenItemDropSkill",0,DEVBATTLE_DIR);

  0026b	68 00 00 00 00	 push	 OFFSET ??_C@_0CM@MAHHOJJN@?4?4?2Data?2ExData?2Events?2DeviasBatt@
  00270	6a 00		 push	 0
  00272	68 00 00 00 00	 push	 OFFSET ??_C@_0BE@LEOCKCIF@FallenItemDropSkill?$AA@
  00277	68 00 00 00 00	 push	 OFFSET ??_C@_06BOLACBCI@Fallen?$AA@
  0027c	ff 15 00 00 00
	00		 call	 DWORD PTR __imp__GetPrivateProfileIntA@16
  00282	8b 4d f8	 mov	 ecx, DWORD PTR _this$[ebp]
  00285	89 41 4c	 mov	 DWORD PTR [ecx+76], eax

; 50   : 	FallenItemDropLuck	= GetPrivateProfileInt("Fallen","FallenItemDropLuck",0,DEVBATTLE_DIR);

  00288	68 00 00 00 00	 push	 OFFSET ??_C@_0CM@MAHHOJJN@?4?4?2Data?2ExData?2Events?2DeviasBatt@
  0028d	6a 00		 push	 0
  0028f	68 00 00 00 00	 push	 OFFSET ??_C@_0BD@LNLIKMGB@FallenItemDropLuck?$AA@
  00294	68 00 00 00 00	 push	 OFFSET ??_C@_06BOLACBCI@Fallen?$AA@
  00299	ff 15 00 00 00
	00		 call	 DWORD PTR __imp__GetPrivateProfileIntA@16
  0029f	8b 4d f8	 mov	 ecx, DWORD PTR _this$[ebp]
  002a2	89 41 50	 mov	 DWORD PTR [ecx+80], eax

; 51   : 	FallenItemDropOpt	= GetPrivateProfileInt("Fallen","FallenItemDropOpt",0,DEVBATTLE_DIR);

  002a5	68 00 00 00 00	 push	 OFFSET ??_C@_0CM@MAHHOJJN@?4?4?2Data?2ExData?2Events?2DeviasBatt@
  002aa	6a 00		 push	 0
  002ac	68 00 00 00 00	 push	 OFFSET ??_C@_0BC@MOMDCMLD@FallenItemDropOpt?$AA@
  002b1	68 00 00 00 00	 push	 OFFSET ??_C@_06BOLACBCI@Fallen?$AA@
  002b6	ff 15 00 00 00
	00		 call	 DWORD PTR __imp__GetPrivateProfileIntA@16
  002bc	8b 4d f8	 mov	 ecx, DWORD PTR _this$[ebp]
  002bf	89 41 54	 mov	 DWORD PTR [ecx+84], eax

; 52   : 	FallenItemDropExcOpt	= GetPrivateProfileInt("Fallen","FallenItemDropExcOpt",0,DEVBATTLE_DIR);

  002c2	68 00 00 00 00	 push	 OFFSET ??_C@_0CM@MAHHOJJN@?4?4?2Data?2ExData?2Events?2DeviasBatt@
  002c7	6a 00		 push	 0
  002c9	68 00 00 00 00	 push	 OFFSET ??_C@_0BF@LKHCLCFL@FallenItemDropExcOpt?$AA@
  002ce	68 00 00 00 00	 push	 OFFSET ??_C@_06BOLACBCI@Fallen?$AA@
  002d3	ff 15 00 00 00
	00		 call	 DWORD PTR __imp__GetPrivateProfileIntA@16
  002d9	8b 4d f8	 mov	 ecx, DWORD PTR _this$[ebp]
  002dc	89 41 58	 mov	 DWORD PTR [ecx+88], eax

; 53   : 	FallenItemDropAncOpt	= GetPrivateProfileInt("Fallen","FallenItemDropAncOpt",0,DEVBATTLE_DIR);

  002df	68 00 00 00 00	 push	 OFFSET ??_C@_0CM@MAHHOJJN@?4?4?2Data?2ExData?2Events?2DeviasBatt@
  002e4	6a 00		 push	 0
  002e6	68 00 00 00 00	 push	 OFFSET ??_C@_0BF@JLLCHHMO@FallenItemDropAncOpt?$AA@
  002eb	68 00 00 00 00	 push	 OFFSET ??_C@_06BOLACBCI@Fallen?$AA@
  002f0	ff 15 00 00 00
	00		 call	 DWORD PTR __imp__GetPrivateProfileIntA@16
  002f6	8b 4d f8	 mov	 ecx, DWORD PTR _this$[ebp]
  002f9	89 41 5c	 mov	 DWORD PTR [ecx+92], eax

; 54   : 
; 55   : 
; 56   : 	for(int i=OBJ_STARTUSERINDEX; i<OBJMAX; i++)

  002fc	c7 45 f4 b0 36
	00 00		 mov	 DWORD PTR _i$220425[ebp], 14000 ; 000036b0H
  00303	eb 09		 jmp	 SHORT $LN8@LoadConfig
$LN7@LoadConfig:
  00305	8b 45 f4	 mov	 eax, DWORD PTR _i$220425[ebp]
  00308	83 c0 01	 add	 eax, 1
  0030b	89 45 f4	 mov	 DWORD PTR _i$220425[ebp], eax
$LN8@LoadConfig:
  0030e	81 7d f4 98 3a
	00 00		 cmp	 DWORD PTR _i$220425[ebp], 15000 ; 00003a98H
  00315	7d 21		 jge	 SHORT $LN6@LoadConfig

; 57   : 	{
; 58   : 		KillSocer[i] = 0;

  00317	8b 45 f4	 mov	 eax, DWORD PTR _i$220425[ebp]
  0031a	8b 4d f8	 mov	 ecx, DWORD PTR _this$[ebp]
  0031d	c7 44 81 60 00
	00 00 00	 mov	 DWORD PTR [ecx+eax*4+96], 0

; 59   : 		m_PK_Level[i] = 0;

  00325	8b 45 f4	 mov	 eax, DWORD PTR _i$220425[ebp]
  00328	8b 4d f8	 mov	 ecx, DWORD PTR _this$[ebp]
  0032b	c7 84 81 58 25
	01 00 00 00 00
	00		 mov	 DWORD PTR [ecx+eax*4+75096], 0

; 60   : 	}

  00336	eb cd		 jmp	 SHORT $LN7@LoadConfig
$LN6@LoadConfig:

; 61   : 
; 62   : 	MaxSocer	 = 0;

  00338	8b 45 f8	 mov	 eax, DWORD PTR _this$[ebp]
  0033b	c7 80 b8 0f 02
	00 00 00 00 00	 mov	 DWORD PTR [eax+135096], 0

; 63   : 
; 64   : 	Start = false;

  00345	8b 45 f8	 mov	 eax, DWORD PTR _this$[ebp]
  00348	c7 40 04 00 00
	00 00		 mov	 DWORD PTR [eax+4], 0

; 65   : 
; 66   : 	FILE *file = fopen(DEVBATTLE_DIR,"r");

  0034f	68 00 00 00 00	 push	 OFFSET ??_C@_01KDCPPGHE@r?$AA@
  00354	68 00 00 00 00	 push	 OFFSET ??_C@_0CM@MAHHOJJN@?4?4?2Data?2ExData?2Events?2DeviasBatt@
  00359	e8 00 00 00 00	 call	 _fopen
  0035e	83 c4 08	 add	 esp, 8
  00361	89 45 f0	 mov	 DWORD PTR _file$[ebp], eax

; 67   : 
; 68   : 	if(file == NULL)

  00364	83 7d f0 00	 cmp	 DWORD PTR _file$[ebp], 0
  00368	75 22		 jne	 SHORT $LN5@LoadConfig

; 69   : 	{
; 70   : 		MessageBoxA(0,"DeviasBattleEvent.ini Load Error","CRITICAL ERROR",0);

  0036a	6a 00		 push	 0
  0036c	68 00 00 00 00	 push	 OFFSET ??_C@_0P@BPENEPNJ@CRITICAL?5ERROR?$AA@
  00371	68 00 00 00 00	 push	 OFFSET ??_C@_0CB@HDEBLLGM@DeviasBattleEvent?4ini?5Load?5Error@
  00376	6a 00		 push	 0
  00378	ff 15 00 00 00
	00		 call	 DWORD PTR __imp__MessageBoxA@16

; 71   : 		//ExitProcess(1);
; 72   : 		this->Enable = 0;

  0037e	8b 45 f8	 mov	 eax, DWORD PTR _this$[ebp]
  00381	c7 00 00 00 00
	00		 mov	 DWORD PTR [eax], 0

; 73   : 		return;

  00387	e9 17 02 00 00	 jmp	 $LN11@LoadConfig
$LN5@LoadConfig:

; 74   : 	}
; 75   : 
; 76   : 	char Buff[256];
; 77   : 	int Flag = 0;

  0038c	c7 85 ec fe ff
	ff 00 00 00 00	 mov	 DWORD PTR _Flag$[ebp], 0

; 78   : 
; 79   : 	Count = 0;

  00396	8b 45 f8	 mov	 eax, DWORD PTR _this$[ebp]
  00399	c7 80 c0 1c 02
	00 00 00 00 00	 mov	 DWORD PTR [eax+138432], 0
$LN4@LoadConfig:

; 80   : 
; 81   : 	while(!feof(file)) // Проверяем есть ли строка в документе

  003a3	8b 45 f0	 mov	 eax, DWORD PTR _file$[ebp]
  003a6	50		 push	 eax
  003a7	e8 00 00 00 00	 call	 _feof
  003ac	83 c4 04	 add	 esp, 4
  003af	85 c0		 test	 eax, eax
  003b1	0f 85 e0 01 00
	00		 jne	 $LN3@LoadConfig

; 82   : 	{
; 83   : 		fgets(Buff,256,file);//Функция читает текущую строку

  003b7	8b 45 f0	 mov	 eax, DWORD PTR _file$[ebp]
  003ba	50		 push	 eax
  003bb	68 00 01 00 00	 push	 256			; 00000100H
  003c0	8d 8d f0 fe ff
	ff		 lea	 ecx, DWORD PTR _Buff$[ebp]
  003c6	51		 push	 ecx
  003c7	e8 00 00 00 00	 call	 _fgets
  003cc	83 c4 0c	 add	 esp, 12			; 0000000cH

; 84   : 		if(Ex_IsBadFileLine(Buff, Flag)) //Вспомогательная функция

  003cf	8d 85 ec fe ff
	ff		 lea	 eax, DWORD PTR _Flag$[ebp]
  003d5	50		 push	 eax
  003d6	8d 8d f0 fe ff
	ff		 lea	 ecx, DWORD PTR _Buff$[ebp]
  003dc	51		 push	 ecx
  003dd	e8 00 00 00 00	 call	 ?Ex_IsBadFileLine@@YA_NPADAAH@Z ; Ex_IsBadFileLine
  003e2	83 c4 08	 add	 esp, 8
  003e5	0f b6 d0	 movzx	 edx, al
  003e8	85 d2		 test	 edx, edx
  003ea	74 02		 je	 SHORT $LN2@LoadConfig

; 85   : 			continue;

  003ec	eb b5		 jmp	 SHORT $LN4@LoadConfig
$LN2@LoadConfig:

; 86   : 		if(Flag == 1)

  003ee	83 bd ec fe ff
	ff 01		 cmp	 DWORD PTR _Flag$[ebp], 1
  003f5	0f 85 97 01 00
	00		 jne	 $LN1@LoadConfig

; 87   : 		{
; 88   : 			Time[Count].StrHour	= 0;

  003fb	8b 45 f8	 mov	 eax, DWORD PTR _this$[ebp]
  003fe	8b 88 c0 1c 02
	00		 mov	 ecx, DWORD PTR [eax+138432]
  00404	6b c9 18	 imul	 ecx, 24			; 00000018H
  00407	8b 55 f8	 mov	 edx, DWORD PTR _this$[ebp]
  0040a	c7 84 0a c0 10
	02 00 00 00 00
	00		 mov	 DWORD PTR [edx+ecx+135360], 0

; 89   : 			Time[Count].StrMin	= 0;

  00415	8b 45 f8	 mov	 eax, DWORD PTR _this$[ebp]
  00418	8b 88 c0 1c 02
	00		 mov	 ecx, DWORD PTR [eax+138432]
  0041e	6b c9 18	 imul	 ecx, 24			; 00000018H
  00421	8b 55 f8	 mov	 edx, DWORD PTR _this$[ebp]
  00424	c7 84 0a c4 10
	02 00 00 00 00
	00		 mov	 DWORD PTR [edx+ecx+135364], 0

; 90   : 			Time[Count].Hour	= 0;

  0042f	8b 45 f8	 mov	 eax, DWORD PTR _this$[ebp]
  00432	8b 88 c0 1c 02
	00		 mov	 ecx, DWORD PTR [eax+138432]
  00438	6b c9 18	 imul	 ecx, 24			; 00000018H
  0043b	8b 55 f8	 mov	 edx, DWORD PTR _this$[ebp]
  0043e	c7 84 0a c8 10
	02 00 00 00 00
	00		 mov	 DWORD PTR [edx+ecx+135368], 0

; 91   : 			Time[Count].Min		= 0;

  00449	8b 45 f8	 mov	 eax, DWORD PTR _this$[ebp]
  0044c	8b 88 c0 1c 02
	00		 mov	 ecx, DWORD PTR [eax+138432]
  00452	6b c9 18	 imul	 ecx, 24			; 00000018H
  00455	8b 55 f8	 mov	 edx, DWORD PTR _this$[ebp]
  00458	c7 84 0a cc 10
	02 00 00 00 00
	00		 mov	 DWORD PTR [edx+ecx+135372], 0

; 92   : 			Time[Count].EndHour	= 0;

  00463	8b 45 f8	 mov	 eax, DWORD PTR _this$[ebp]
  00466	8b 88 c0 1c 02
	00		 mov	 ecx, DWORD PTR [eax+138432]
  0046c	6b c9 18	 imul	 ecx, 24			; 00000018H
  0046f	8b 55 f8	 mov	 edx, DWORD PTR _this$[ebp]
  00472	c7 84 0a d0 10
	02 00 00 00 00
	00		 mov	 DWORD PTR [edx+ecx+135376], 0

; 93   : 			Time[Count].EndMin	= 0;

  0047d	8b 45 f8	 mov	 eax, DWORD PTR _this$[ebp]
  00480	8b 88 c0 1c 02
	00		 mov	 ecx, DWORD PTR [eax+138432]
  00486	6b c9 18	 imul	 ecx, 24			; 00000018H
  00489	8b 55 f8	 mov	 edx, DWORD PTR _this$[ebp]
  0048c	c7 84 0a d4 10
	02 00 00 00 00
	00		 mov	 DWORD PTR [edx+ecx+135380], 0

; 94   : 
; 95   : 			int n[7];
; 96   : 			sscanf(Buff, "%d %d %d %d %d %d", &n[0], &n[1], &n[2], &n[3], &n[4], &n[5]);

  00497	8d 85 e4 fe ff
	ff		 lea	 eax, DWORD PTR _n$220441[ebp+20]
  0049d	50		 push	 eax
  0049e	8d 8d e0 fe ff
	ff		 lea	 ecx, DWORD PTR _n$220441[ebp+16]
  004a4	51		 push	 ecx
  004a5	8d 95 dc fe ff
	ff		 lea	 edx, DWORD PTR _n$220441[ebp+12]
  004ab	52		 push	 edx
  004ac	8d 85 d8 fe ff
	ff		 lea	 eax, DWORD PTR _n$220441[ebp+8]
  004b2	50		 push	 eax
  004b3	8d 8d d4 fe ff
	ff		 lea	 ecx, DWORD PTR _n$220441[ebp+4]
  004b9	51		 push	 ecx
  004ba	8d 95 d0 fe ff
	ff		 lea	 edx, DWORD PTR _n$220441[ebp]
  004c0	52		 push	 edx
  004c1	68 00 00 00 00	 push	 OFFSET ??_C@_0BC@HDIJPDCG@?$CFd?5?$CFd?5?$CFd?5?$CFd?5?$CFd?5?$CFd?$AA@
  004c6	8d 85 f0 fe ff
	ff		 lea	 eax, DWORD PTR _Buff$[ebp]
  004cc	50		 push	 eax
  004cd	e8 00 00 00 00	 call	 _sscanf
  004d2	83 c4 20	 add	 esp, 32			; 00000020H

; 97   : 			Time[Count].StrHour	= n[0];

  004d5	8b 45 f8	 mov	 eax, DWORD PTR _this$[ebp]
  004d8	8b 88 c0 1c 02
	00		 mov	 ecx, DWORD PTR [eax+138432]
  004de	6b c9 18	 imul	 ecx, 24			; 00000018H
  004e1	8b 55 f8	 mov	 edx, DWORD PTR _this$[ebp]
  004e4	8b 85 d0 fe ff
	ff		 mov	 eax, DWORD PTR _n$220441[ebp]
  004ea	89 84 0a c0 10
	02 00		 mov	 DWORD PTR [edx+ecx+135360], eax

; 98   : 			Time[Count].StrMin	= n[1];

  004f1	8b 45 f8	 mov	 eax, DWORD PTR _this$[ebp]
  004f4	8b 88 c0 1c 02
	00		 mov	 ecx, DWORD PTR [eax+138432]
  004fa	6b c9 18	 imul	 ecx, 24			; 00000018H
  004fd	8b 55 f8	 mov	 edx, DWORD PTR _this$[ebp]
  00500	8b 85 d4 fe ff
	ff		 mov	 eax, DWORD PTR _n$220441[ebp+4]
  00506	89 84 0a c4 10
	02 00		 mov	 DWORD PTR [edx+ecx+135364], eax

; 99   : 			Time[Count].Hour	= n[2];

  0050d	8b 45 f8	 mov	 eax, DWORD PTR _this$[ebp]
  00510	8b 88 c0 1c 02
	00		 mov	 ecx, DWORD PTR [eax+138432]
  00516	6b c9 18	 imul	 ecx, 24			; 00000018H
  00519	8b 55 f8	 mov	 edx, DWORD PTR _this$[ebp]
  0051c	8b 85 d8 fe ff
	ff		 mov	 eax, DWORD PTR _n$220441[ebp+8]
  00522	89 84 0a c8 10
	02 00		 mov	 DWORD PTR [edx+ecx+135368], eax

; 100  : 			Time[Count].Min		= n[3];;

  00529	8b 45 f8	 mov	 eax, DWORD PTR _this$[ebp]
  0052c	8b 88 c0 1c 02
	00		 mov	 ecx, DWORD PTR [eax+138432]
  00532	6b c9 18	 imul	 ecx, 24			; 00000018H
  00535	8b 55 f8	 mov	 edx, DWORD PTR _this$[ebp]
  00538	8b 85 dc fe ff
	ff		 mov	 eax, DWORD PTR _n$220441[ebp+12]
  0053e	89 84 0a cc 10
	02 00		 mov	 DWORD PTR [edx+ecx+135372], eax

; 101  : 			Time[Count].EndHour	= n[4];

  00545	8b 45 f8	 mov	 eax, DWORD PTR _this$[ebp]
  00548	8b 88 c0 1c 02
	00		 mov	 ecx, DWORD PTR [eax+138432]
  0054e	6b c9 18	 imul	 ecx, 24			; 00000018H
  00551	8b 55 f8	 mov	 edx, DWORD PTR _this$[ebp]
  00554	8b 85 e0 fe ff
	ff		 mov	 eax, DWORD PTR _n$220441[ebp+16]
  0055a	89 84 0a d0 10
	02 00		 mov	 DWORD PTR [edx+ecx+135376], eax

; 102  : 			Time[Count].EndMin	= n[5];

  00561	8b 45 f8	 mov	 eax, DWORD PTR _this$[ebp]
  00564	8b 88 c0 1c 02
	00		 mov	 ecx, DWORD PTR [eax+138432]
  0056a	6b c9 18	 imul	 ecx, 24			; 00000018H
  0056d	8b 55 f8	 mov	 edx, DWORD PTR _this$[ebp]
  00570	8b 85 e4 fe ff
	ff		 mov	 eax, DWORD PTR _n$220441[ebp+20]
  00576	89 84 0a d4 10
	02 00		 mov	 DWORD PTR [edx+ecx+135380], eax

; 103  : 			Count++;

  0057d	8b 45 f8	 mov	 eax, DWORD PTR _this$[ebp]
  00580	8b 88 c0 1c 02
	00		 mov	 ecx, DWORD PTR [eax+138432]
  00586	83 c1 01	 add	 ecx, 1
  00589	8b 55 f8	 mov	 edx, DWORD PTR _this$[ebp]
  0058c	89 8a c0 1c 02
	00		 mov	 DWORD PTR [edx+138432], ecx
$LN1@LoadConfig:

; 104  : 		}
; 105  : 	}

  00592	e9 0c fe ff ff	 jmp	 $LN4@LoadConfig
$LN3@LoadConfig:

; 106  : 	fclose(file);

  00597	8b 45 f0	 mov	 eax, DWORD PTR _file$[ebp]
  0059a	50		 push	 eax
  0059b	e8 00 00 00 00	 call	 _fclose
  005a0	83 c4 04	 add	 esp, 4
$LN11@LoadConfig:

; 107  : }

  005a3	5f		 pop	 edi
  005a4	5e		 pop	 esi
  005a5	5b		 pop	 ebx
  005a6	8b 4d fc	 mov	 ecx, DWORD PTR __$ArrayPad$[ebp]
  005a9	33 cd		 xor	 ecx, ebp
  005ab	e8 00 00 00 00	 call	 @__security_check_cookie@4
  005b0	8b e5		 mov	 esp, ebp
  005b2	5d		 pop	 ebp
  005b3	c3		 ret	 0
?LoadConfigs@CDeviasBattle@@QAEXXZ ENDP			; CDeviasBattle::LoadConfigs
_TEXT	ENDS
PUBLIC	??_C@_02DKCKIIND@?$CFs?$AA@			; `string'
PUBLIC	?Start1min@CDeviasBattle@@QAEXXZ		; CDeviasBattle::Start1min
EXTRN	?MessaageAllGlobal@@YAXPADZZ:PROC		; MessaageAllGlobal
;	COMDAT ??_C@_02DKCKIIND@?$CFs?$AA@
CONST	SEGMENT
??_C@_02DKCKIIND@?$CFs?$AA@ DB '%s', 00H		; `string'
; Function compile flags: /Odtp /ZI
CONST	ENDS
_TEXT	SEGMENT
_this$ = -4						; size = 4
?Start1min@CDeviasBattle@@QAEXXZ PROC			; CDeviasBattle::Start1min
; _this$ = ecx

; 109  : {

  005c0	55		 push	 ebp
  005c1	8b ec		 mov	 ebp, esp
  005c3	83 ec 44	 sub	 esp, 68			; 00000044H
  005c6	53		 push	 ebx
  005c7	56		 push	 esi
  005c8	57		 push	 edi
  005c9	89 4d fc	 mov	 DWORD PTR _this$[ebp], ecx

; 110  : 	MessaageAllGlobal("%s",MSG);

  005cc	8b 45 fc	 mov	 eax, DWORD PTR _this$[ebp]
  005cf	05 c0 0f 02 00	 add	 eax, 135104		; 00020fc0H
  005d4	50		 push	 eax
  005d5	68 00 00 00 00	 push	 OFFSET ??_C@_02DKCKIIND@?$CFs?$AA@
  005da	e8 00 00 00 00	 call	 ?MessaageAllGlobal@@YAXPADZZ ; MessaageAllGlobal
  005df	83 c4 08	 add	 esp, 8

; 111  : }

  005e2	5f		 pop	 edi
  005e3	5e		 pop	 esi
  005e4	5b		 pop	 ebx
  005e5	8b e5		 mov	 esp, ebp
  005e7	5d		 pop	 ebp
  005e8	c3		 ret	 0
?Start1min@CDeviasBattle@@QAEXXZ ENDP			; CDeviasBattle::Start1min
_TEXT	ENDS
PUBLIC	??_C@_0BP@JPDGJLJP@?$FLDevias?5Battle?$FN?5Event?5Started?$CB?$AA@ ; `string'
PUBLIC	?StartEvent@CDeviasBattle@@QAEXXZ		; CDeviasBattle::StartEvent
EXTRN	?gObj@@3PAUOBJECTSTRUCT@@A:DWORD		; gObj
;	COMDAT ??_C@_0BP@JPDGJLJP@?$FLDevias?5Battle?$FN?5Event?5Started?$CB?$AA@
CONST	SEGMENT
??_C@_0BP@JPDGJLJP@?$FLDevias?5Battle?$FN?5Event?5Started?$CB?$AA@ DB '[D'
	DB	'evias Battle] Event Started!', 00H		; `string'
; Function compile flags: /Odtp /ZI
CONST	ENDS
_TEXT	SEGMENT
_lpObj$220454 = -12					; size = 4
_j$220450 = -8						; size = 4
_this$ = -4						; size = 4
?StartEvent@CDeviasBattle@@QAEXXZ PROC			; CDeviasBattle::StartEvent
; _this$ = ecx

; 114  : {

  005f0	55		 push	 ebp
  005f1	8b ec		 mov	 ebp, esp
  005f3	83 ec 4c	 sub	 esp, 76			; 0000004cH
  005f6	53		 push	 ebx
  005f7	56		 push	 esi
  005f8	57		 push	 edi
  005f9	89 4d fc	 mov	 DWORD PTR _this$[ebp], ecx

; 115  : 	for(int j=OBJ_STARTUSERINDEX; j<OBJMAX; j++)

  005fc	c7 45 f8 b0 36
	00 00		 mov	 DWORD PTR _j$220450[ebp], 14000 ; 000036b0H
  00603	eb 09		 jmp	 SHORT $LN3@StartEvent
$LN2@StartEvent:
  00605	8b 45 f8	 mov	 eax, DWORD PTR _j$220450[ebp]
  00608	83 c0 01	 add	 eax, 1
  0060b	89 45 f8	 mov	 DWORD PTR _j$220450[ebp], eax
$LN3@StartEvent:
  0060e	81 7d f8 98 3a
	00 00		 cmp	 DWORD PTR _j$220450[ebp], 15000 ; 00003a98H
  00615	7d 2b		 jge	 SHORT $LN1@StartEvent

; 116  : 	{
; 117  : 		LPOBJ lpObj = &gObj[j];

  00617	8b 45 f8	 mov	 eax, DWORD PTR _j$220450[ebp]
  0061a	69 c0 38 2b 00
	00		 imul	 eax, 11064		; 00002b38H
  00620	03 05 00 00 00
	00		 add	 eax, DWORD PTR ?gObj@@3PAUOBJECTSTRUCT@@A ; gObj
  00626	89 45 f4	 mov	 DWORD PTR _lpObj$220454[ebp], eax

; 118  : 		m_PK_Level[j] = lpObj->m_PK_Level;

  00629	8b 45 f4	 mov	 eax, DWORD PTR _lpObj$220454[ebp]
  0062c	0f be 88 3d 01
	00 00		 movsx	 ecx, BYTE PTR [eax+317]
  00633	8b 55 f8	 mov	 edx, DWORD PTR _j$220450[ebp]
  00636	8b 45 fc	 mov	 eax, DWORD PTR _this$[ebp]
  00639	89 8c 90 58 25
	01 00		 mov	 DWORD PTR [eax+edx*4+75096], ecx

; 119  : 	}

  00640	eb c3		 jmp	 SHORT $LN2@StartEvent
$LN1@StartEvent:

; 120  : 
; 121  : 	Start = true;

  00642	8b 45 fc	 mov	 eax, DWORD PTR _this$[ebp]
  00645	c7 40 04 01 00
	00 00		 mov	 DWORD PTR [eax+4], 1

; 122  : 	MessaageAllGlobal("[Devias Battle] Event Started!");

  0064c	68 00 00 00 00	 push	 OFFSET ??_C@_0BP@JPDGJLJP@?$FLDevias?5Battle?$FN?5Event?5Started?$CB?$AA@
  00651	e8 00 00 00 00	 call	 ?MessaageAllGlobal@@YAXPADZZ ; MessaageAllGlobal
  00656	83 c4 04	 add	 esp, 4

; 123  : }

  00659	5f		 pop	 edi
  0065a	5e		 pop	 esi
  0065b	5b		 pop	 ebx
  0065c	8b e5		 mov	 esp, ebp
  0065e	5d		 pop	 ebp
  0065f	c3		 ret	 0
?StartEvent@CDeviasBattle@@QAEXXZ ENDP			; CDeviasBattle::StartEvent
_TEXT	ENDS
PUBLIC	??_C@_0BL@CIEBKFIP@?$FLDevias?5Battle?$FN?5Event?5End?$CB?$AA@ ; `string'
PUBLIC	??_C@_0CJ@OIOBDICK@?$FLDevias?5Battle?$FN?5Total?5Win?5?$CFd?0?5No@ ; `string'
PUBLIC	?Reward@CDeviasBattle@@QAEXH@Z			; CDeviasBattle::Reward
PUBLIC	??_C@_0BJ@MLOJJNKI@?$FLDevias?5Battle?$FN?5Win?5?$CFs?5?$CB?$AA@ ; `string'
PUBLIC	?EndEvent@CDeviasBattle@@QAEXXZ			; CDeviasBattle::EndEvent
;	COMDAT ??_C@_0BL@CIEBKFIP@?$FLDevias?5Battle?$FN?5Event?5End?$CB?$AA@
CONST	SEGMENT
??_C@_0BL@CIEBKFIP@?$FLDevias?5Battle?$FN?5Event?5End?$CB?$AA@ DB '[Devia'
	DB	's Battle] Event End!', 00H			; `string'
CONST	ENDS
;	COMDAT ??_C@_0CJ@OIOBDICK@?$FLDevias?5Battle?$FN?5Total?5Win?5?$CFd?0?5No@
CONST	SEGMENT
??_C@_0CJ@OIOBDICK@?$FLDevias?5Battle?$FN?5Total?5Win?5?$CFd?0?5No@ DB '['
	DB	'Devias Battle] Total Win %d, No Reward!', 00H ; `string'
CONST	ENDS
;	COMDAT ??_C@_0BJ@MLOJJNKI@?$FLDevias?5Battle?$FN?5Win?5?$CFs?5?$CB?$AA@
CONST	SEGMENT
??_C@_0BJ@MLOJJNKI@?$FLDevias?5Battle?$FN?5Win?5?$CFs?5?$CB?$AA@ DB '[Dev'
	DB	'ias Battle] Win %s !', 00H			; `string'
; Function compile flags: /Odtp /ZI
CONST	ENDS
_TEXT	SEGMENT
_lpObj$220490 = -36					; size = 4
_i$220486 = -32						; size = 4
_lpObj$220480 = -28					; size = 4
_l$220474 = -24						; size = 4
_lpObj$220471 = -20					; size = 4
_l$220465 = -16						; size = 4
_TotalWin$ = -12					; size = 4
_j$220459 = -8						; size = 4
_this$ = -4						; size = 4
?EndEvent@CDeviasBattle@@QAEXXZ PROC			; CDeviasBattle::EndEvent
; _this$ = ecx

; 126  : {

  00660	55		 push	 ebp
  00661	8b ec		 mov	 ebp, esp
  00663	83 ec 64	 sub	 esp, 100		; 00000064H
  00666	53		 push	 ebx
  00667	56		 push	 esi
  00668	57		 push	 edi
  00669	89 4d fc	 mov	 DWORD PTR _this$[ebp], ecx

; 127  : 	Start = false;

  0066c	8b 45 fc	 mov	 eax, DWORD PTR _this$[ebp]
  0066f	c7 40 04 00 00
	00 00		 mov	 DWORD PTR [eax+4], 0

; 128  : 	for(int j=OBJ_STARTUSERINDEX; j<OBJMAX; j++)

  00676	c7 45 f8 b0 36
	00 00		 mov	 DWORD PTR _j$220459[ebp], 14000 ; 000036b0H
  0067d	eb 09		 jmp	 SHORT $LN21@EndEvent
$LN20@EndEvent:
  0067f	8b 45 f8	 mov	 eax, DWORD PTR _j$220459[ebp]
  00682	83 c0 01	 add	 eax, 1
  00685	89 45 f8	 mov	 DWORD PTR _j$220459[ebp], eax
$LN21@EndEvent:
  00688	81 7d f8 98 3a
	00 00		 cmp	 DWORD PTR _j$220459[ebp], 15000 ; 00003a98H
  0068f	7d 36		 jge	 SHORT $LN19@EndEvent

; 129  : 	{
; 130  : 		//MaxSocer = KillSocer[j];
; 131  : 		if(KillSocer[j] > MaxSocer)

  00691	8b 45 f8	 mov	 eax, DWORD PTR _j$220459[ebp]
  00694	8b 4d fc	 mov	 ecx, DWORD PTR _this$[ebp]
  00697	8b 55 fc	 mov	 edx, DWORD PTR _this$[ebp]
  0069a	8b 44 81 60	 mov	 eax, DWORD PTR [ecx+eax*4+96]
  0069e	3b 82 b8 0f 02
	00		 cmp	 eax, DWORD PTR [edx+135096]
  006a4	7e 1f		 jle	 SHORT $LN18@EndEvent

; 132  : 		{
; 133  : 			MaxSocer = KillSocer[j];

  006a6	8b 45 fc	 mov	 eax, DWORD PTR _this$[ebp]
  006a9	8b 4d f8	 mov	 ecx, DWORD PTR _j$220459[ebp]
  006ac	8b 55 fc	 mov	 edx, DWORD PTR _this$[ebp]
  006af	8b 4c 8a 60	 mov	 ecx, DWORD PTR [edx+ecx*4+96]
  006b3	89 88 b8 0f 02
	00		 mov	 DWORD PTR [eax+135096], ecx

; 134  : 			MaxIndex = j;

  006b9	8b 45 fc	 mov	 eax, DWORD PTR _this$[ebp]
  006bc	8b 4d f8	 mov	 ecx, DWORD PTR _j$220459[ebp]
  006bf	89 88 bc 0f 02
	00		 mov	 DWORD PTR [eax+135100], ecx
$LN18@EndEvent:

; 135  : 		}
; 136  : 	}

  006c5	eb b8		 jmp	 SHORT $LN20@EndEvent
$LN19@EndEvent:

; 137  : 
; 138  : 	int TotalWin = 0;

  006c7	c7 45 f4 00 00
	00 00		 mov	 DWORD PTR _TotalWin$[ebp], 0

; 139  : 
; 140  : 	for(int l=OBJ_STARTUSERINDEX; l<OBJMAX; l++)

  006ce	c7 45 f0 b0 36
	00 00		 mov	 DWORD PTR _l$220465[ebp], 14000 ; 000036b0H
  006d5	eb 09		 jmp	 SHORT $LN17@EndEvent
$LN16@EndEvent:
  006d7	8b 45 f0	 mov	 eax, DWORD PTR _l$220465[ebp]
  006da	83 c0 01	 add	 eax, 1
  006dd	89 45 f0	 mov	 DWORD PTR _l$220465[ebp], eax
$LN17@EndEvent:
  006e0	81 7d f0 98 3a
	00 00		 cmp	 DWORD PTR _l$220465[ebp], 15000 ; 00003a98H
  006e7	7d 4a		 jge	 SHORT $LN15@EndEvent

; 141  : 	{
; 142  : 		if(KillSocer[l] == 0)

  006e9	8b 45 f0	 mov	 eax, DWORD PTR _l$220465[ebp]
  006ec	8b 4d fc	 mov	 ecx, DWORD PTR _this$[ebp]
  006ef	83 7c 81 60 00	 cmp	 DWORD PTR [ecx+eax*4+96], 0
  006f4	75 02		 jne	 SHORT $LN14@EndEvent

; 143  : 			continue;

  006f6	eb df		 jmp	 SHORT $LN16@EndEvent
$LN14@EndEvent:

; 144  : 
; 145  : 		if(MaxSocer == KillSocer[l])

  006f8	8b 45 fc	 mov	 eax, DWORD PTR _this$[ebp]
  006fb	8b 4d f0	 mov	 ecx, DWORD PTR _l$220465[ebp]
  006fe	8b 55 fc	 mov	 edx, DWORD PTR _this$[ebp]
  00701	8b 80 b8 0f 02
	00		 mov	 eax, DWORD PTR [eax+135096]
  00707	3b 44 8a 60	 cmp	 eax, DWORD PTR [edx+ecx*4+96]
  0070b	75 24		 jne	 SHORT $LN13@EndEvent

; 146  : 		{
; 147  : 			LPOBJ lpObj = &gObj[l];

  0070d	8b 45 f0	 mov	 eax, DWORD PTR _l$220465[ebp]
  00710	69 c0 38 2b 00
	00		 imul	 eax, 11064		; 00002b38H
  00716	03 05 00 00 00
	00		 add	 eax, DWORD PTR ?gObj@@3PAUOBJECTSTRUCT@@A ; gObj
  0071c	89 45 ec	 mov	 DWORD PTR _lpObj$220471[ebp], eax

; 148  : 			if(lpObj->Connected == PLAYER_PLAYING)

  0071f	8b 45 ec	 mov	 eax, DWORD PTR _lpObj$220471[ebp]
  00722	83 78 04 03	 cmp	 DWORD PTR [eax+4], 3
  00726	75 09		 jne	 SHORT $LN13@EndEvent

; 149  : 			{
; 150  : 				TotalWin++;

  00728	8b 45 f4	 mov	 eax, DWORD PTR _TotalWin$[ebp]
  0072b	83 c0 01	 add	 eax, 1
  0072e	89 45 f4	 mov	 DWORD PTR _TotalWin$[ebp], eax
$LN13@EndEvent:

; 151  : 			}
; 152  : 		}
; 153  : 	}

  00731	eb a4		 jmp	 SHORT $LN16@EndEvent
$LN15@EndEvent:

; 154  : 
; 155  : 	if(TotalWin == 1)

  00733	83 7d f4 01	 cmp	 DWORD PTR _TotalWin$[ebp], 1
  00737	75 7e		 jne	 SHORT $LN11@EndEvent

; 156  : 	{
; 157  : 		for(int l=OBJ_STARTUSERINDEX; l<OBJMAX; l++)

  00739	c7 45 e8 b0 36
	00 00		 mov	 DWORD PTR _l$220474[ebp], 14000 ; 000036b0H
  00740	eb 09		 jmp	 SHORT $LN10@EndEvent
$LN9@EndEvent:
  00742	8b 45 e8	 mov	 eax, DWORD PTR _l$220474[ebp]
  00745	83 c0 01	 add	 eax, 1
  00748	89 45 e8	 mov	 DWORD PTR _l$220474[ebp], eax
$LN10@EndEvent:
  0074b	81 7d e8 98 3a
	00 00		 cmp	 DWORD PTR _l$220474[ebp], 15000 ; 00003a98H
  00752	7d 61		 jge	 SHORT $LN8@EndEvent

; 158  : 		{
; 159  : 			if(KillSocer[l] == 0)

  00754	8b 45 e8	 mov	 eax, DWORD PTR _l$220474[ebp]
  00757	8b 4d fc	 mov	 ecx, DWORD PTR _this$[ebp]
  0075a	83 7c 81 60 00	 cmp	 DWORD PTR [ecx+eax*4+96], 0
  0075f	75 02		 jne	 SHORT $LN7@EndEvent

; 160  : 				continue;

  00761	eb df		 jmp	 SHORT $LN9@EndEvent
$LN7@EndEvent:

; 161  : 
; 162  : 			if(MaxSocer == KillSocer[l])

  00763	8b 45 fc	 mov	 eax, DWORD PTR _this$[ebp]
  00766	8b 4d e8	 mov	 ecx, DWORD PTR _l$220474[ebp]
  00769	8b 55 fc	 mov	 edx, DWORD PTR _this$[ebp]
  0076c	8b 80 b8 0f 02
	00		 mov	 eax, DWORD PTR [eax+135096]
  00772	3b 44 8a 60	 cmp	 eax, DWORD PTR [edx+ecx*4+96]
  00776	75 3b		 jne	 SHORT $LN6@EndEvent

; 163  : 			{
; 164  : 				LPOBJ lpObj = &gObj[l];

  00778	8b 45 e8	 mov	 eax, DWORD PTR _l$220474[ebp]
  0077b	69 c0 38 2b 00
	00		 imul	 eax, 11064		; 00002b38H
  00781	03 05 00 00 00
	00		 add	 eax, DWORD PTR ?gObj@@3PAUOBJECTSTRUCT@@A ; gObj
  00787	89 45 e4	 mov	 DWORD PTR _lpObj$220480[ebp], eax

; 165  : 				if(lpObj->Connected == PLAYER_PLAYING)

  0078a	8b 45 e4	 mov	 eax, DWORD PTR _lpObj$220480[ebp]
  0078d	83 78 04 03	 cmp	 DWORD PTR [eax+4], 3
  00791	75 20		 jne	 SHORT $LN6@EndEvent

; 166  : 				{
; 167  : 					MessaageAllGlobal("[Devias Battle] Win %s !",lpObj->Name);

  00793	8b 45 e4	 mov	 eax, DWORD PTR _lpObj$220480[ebp]
  00796	83 c0 77	 add	 eax, 119		; 00000077H
  00799	50		 push	 eax
  0079a	68 00 00 00 00	 push	 OFFSET ??_C@_0BJ@MLOJJNKI@?$FLDevias?5Battle?$FN?5Win?5?$CFs?5?$CB?$AA@
  0079f	e8 00 00 00 00	 call	 ?MessaageAllGlobal@@YAXPADZZ ; MessaageAllGlobal
  007a4	83 c4 08	 add	 esp, 8

; 168  : 					Reward(l);

  007a7	8b 45 e8	 mov	 eax, DWORD PTR _l$220474[ebp]
  007aa	50		 push	 eax
  007ab	8b 4d fc	 mov	 ecx, DWORD PTR _this$[ebp]
  007ae	e8 00 00 00 00	 call	 ?Reward@CDeviasBattle@@QAEXH@Z ; CDeviasBattle::Reward
$LN6@EndEvent:

; 169  : 				}
; 170  : 			}
; 171  : 		}

  007b3	eb 8d		 jmp	 SHORT $LN9@EndEvent
$LN8@EndEvent:

; 172  : 	}
; 173  : 	else

  007b5	eb 11		 jmp	 SHORT $LN4@EndEvent
$LN11@EndEvent:

; 174  : 	{
; 175  : 		MessaageAllGlobal("[Devias Battle] Total Win %d, No Reward!", TotalWin);

  007b7	8b 45 f4	 mov	 eax, DWORD PTR _TotalWin$[ebp]
  007ba	50		 push	 eax
  007bb	68 00 00 00 00	 push	 OFFSET ??_C@_0CJ@OIOBDICK@?$FLDevias?5Battle?$FN?5Total?5Win?5?$CFd?0?5No@
  007c0	e8 00 00 00 00	 call	 ?MessaageAllGlobal@@YAXPADZZ ; MessaageAllGlobal
  007c5	83 c4 08	 add	 esp, 8
$LN4@EndEvent:

; 176  : 	}
; 177  : 	
; 178  :  	MessaageAllGlobal("[Devias Battle] Event End!");

  007c8	68 00 00 00 00	 push	 OFFSET ??_C@_0BL@CIEBKFIP@?$FLDevias?5Battle?$FN?5Event?5End?$CB?$AA@
  007cd	e8 00 00 00 00	 call	 ?MessaageAllGlobal@@YAXPADZZ ; MessaageAllGlobal
  007d2	83 c4 04	 add	 esp, 4

; 179  : 
; 180  : 	for(int i=OBJ_STARTUSERINDEX; i<OBJMAX; i++)

  007d5	c7 45 e0 b0 36
	00 00		 mov	 DWORD PTR _i$220486[ebp], 14000 ; 000036b0H
  007dc	eb 09		 jmp	 SHORT $LN3@EndEvent
$LN2@EndEvent:
  007de	8b 45 e0	 mov	 eax, DWORD PTR _i$220486[ebp]
  007e1	83 c0 01	 add	 eax, 1
  007e4	89 45 e0	 mov	 DWORD PTR _i$220486[ebp], eax
$LN3@EndEvent:
  007e7	81 7d e0 98 3a
	00 00		 cmp	 DWORD PTR _i$220486[ebp], 15000 ; 00003a98H
  007ee	7d 22		 jge	 SHORT $LN1@EndEvent

; 181  : 	{
; 182  : 		LPOBJ lpObj = &gObj[i];

  007f0	8b 45 e0	 mov	 eax, DWORD PTR _i$220486[ebp]
  007f3	69 c0 38 2b 00
	00		 imul	 eax, 11064		; 00002b38H
  007f9	03 05 00 00 00
	00		 add	 eax, DWORD PTR ?gObj@@3PAUOBJECTSTRUCT@@A ; gObj
  007ff	89 45 dc	 mov	 DWORD PTR _lpObj$220490[ebp], eax

; 183  : 		KillSocer[i] = 0;

  00802	8b 45 e0	 mov	 eax, DWORD PTR _i$220486[ebp]
  00805	8b 4d fc	 mov	 ecx, DWORD PTR _this$[ebp]
  00808	c7 44 81 60 00
	00 00 00	 mov	 DWORD PTR [ecx+eax*4+96], 0

; 184  : 		
; 185  : 		
; 186  : 	}

  00810	eb cc		 jmp	 SHORT $LN2@EndEvent
$LN1@EndEvent:

; 187  : 
; 188  : 	MaxSocer = 0;

  00812	8b 45 fc	 mov	 eax, DWORD PTR _this$[ebp]
  00815	c7 80 b8 0f 02
	00 00 00 00 00	 mov	 DWORD PTR [eax+135096], 0

; 189  : }

  0081f	5f		 pop	 edi
  00820	5e		 pop	 esi
  00821	5b		 pop	 ebx
  00822	8b e5		 mov	 esp, ebp
  00824	5d		 pop	 ebp
  00825	c3		 ret	 0
?EndEvent@CDeviasBattle@@QAEXXZ ENDP			; CDeviasBattle::EndEvent
_TEXT	ENDS
PUBLIC	__$ArrayPad$
PUBLIC	?TickTime@CDeviasBattle@@QAEXXZ			; CDeviasBattle::TickTime
EXTRN	?GetSecond@CTimerEx@@QAEHXZ:PROC		; CTimerEx::GetSecond
EXTRN	?g_TimerEx@@3VCTimerEx@@A:DWORD			; g_TimerEx
EXTRN	__imp__GetLocalTime@4:PROC
; Function compile flags: /Odtp /ZI
_TEXT	SEGMENT
_i$220497 = -28						; size = 4
_time$ = -24						; size = 16
_this$ = -8						; size = 4
__$ArrayPad$ = -4					; size = 4
?TickTime@CDeviasBattle@@QAEXXZ PROC			; CDeviasBattle::TickTime
; _this$ = ecx

; 192  : {

  00830	55		 push	 ebp
  00831	8b ec		 mov	 ebp, esp
  00833	83 ec 5c	 sub	 esp, 92			; 0000005cH
  00836	a1 00 00 00 00	 mov	 eax, DWORD PTR ___security_cookie
  0083b	33 c5		 xor	 eax, ebp
  0083d	89 45 fc	 mov	 DWORD PTR __$ArrayPad$[ebp], eax
  00840	53		 push	 ebx
  00841	56		 push	 esi
  00842	57		 push	 edi
  00843	89 4d f8	 mov	 DWORD PTR _this$[ebp], ecx

; 193  : 	if(!Enable) return;

  00846	8b 45 f8	 mov	 eax, DWORD PTR _this$[ebp]
  00849	83 38 00	 cmp	 DWORD PTR [eax], 0
  0084c	75 05		 jne	 SHORT $LN10@TickTime
  0084e	e9 e5 00 00 00	 jmp	 $LN11@TickTime
$LN10@TickTime:

; 194  : 	SYSTEMTIME time;
; 195  : 	GetLocalTime(&time);

  00853	8d 45 e8	 lea	 eax, DWORD PTR _time$[ebp]
  00856	50		 push	 eax
  00857	ff 15 00 00 00
	00		 call	 DWORD PTR __imp__GetLocalTime@4

; 196  : 
; 197  : #if(NEWTIMEREX)
; 198  : 	if(g_TimerEx.GetSecond() == 00)

  0085d	b9 00 00 00 00	 mov	 ecx, OFFSET ?g_TimerEx@@3VCTimerEx@@A ; g_TimerEx
  00862	e8 00 00 00 00	 call	 ?GetSecond@CTimerEx@@QAEHXZ ; CTimerEx::GetSecond
  00867	85 c0		 test	 eax, eax
  00869	0f 85 c9 00 00
	00		 jne	 $LN11@TickTime

; 199  : #else
; 200  : 	if(time.wSecond == 00)
; 201  : #endif
; 202  : 	{
; 203  : 		for(int i = 0; i < Count; i++)

  0086f	c7 45 e4 00 00
	00 00		 mov	 DWORD PTR _i$220497[ebp], 0
  00876	eb 09		 jmp	 SHORT $LN8@TickTime
$LN7@TickTime:
  00878	8b 45 e4	 mov	 eax, DWORD PTR _i$220497[ebp]
  0087b	83 c0 01	 add	 eax, 1
  0087e	89 45 e4	 mov	 DWORD PTR _i$220497[ebp], eax
$LN8@TickTime:
  00881	8b 45 f8	 mov	 eax, DWORD PTR _this$[ebp]
  00884	8b 4d e4	 mov	 ecx, DWORD PTR _i$220497[ebp]
  00887	3b 88 c0 1c 02
	00		 cmp	 ecx, DWORD PTR [eax+138432]
  0088d	0f 8d a5 00 00
	00		 jge	 $LN11@TickTime

; 204  : 		{
; 205  : 			if(Time[i].StrHour == time.wHour && Time[i].StrMin == time.wMinute)

  00893	8b 45 e4	 mov	 eax, DWORD PTR _i$220497[ebp]
  00896	6b c0 18	 imul	 eax, 24			; 00000018H
  00899	0f b7 4d f0	 movzx	 ecx, WORD PTR _time$[ebp+8]
  0089d	8b 55 f8	 mov	 edx, DWORD PTR _this$[ebp]
  008a0	39 8c 02 c0 10
	02 00		 cmp	 DWORD PTR [edx+eax+135360], ecx
  008a7	75 20		 jne	 SHORT $LN5@TickTime
  008a9	8b 45 e4	 mov	 eax, DWORD PTR _i$220497[ebp]
  008ac	6b c0 18	 imul	 eax, 24			; 00000018H
  008af	0f b7 4d f2	 movzx	 ecx, WORD PTR _time$[ebp+10]
  008b3	8b 55 f8	 mov	 edx, DWORD PTR _this$[ebp]
  008b6	39 8c 02 c4 10
	02 00		 cmp	 DWORD PTR [edx+eax+135364], ecx
  008bd	75 0a		 jne	 SHORT $LN5@TickTime

; 206  : 			{
; 207  : 
; 208  : 				Start1min();

  008bf	8b 4d f8	 mov	 ecx, DWORD PTR _this$[ebp]
  008c2	e8 00 00 00 00	 call	 ?Start1min@CDeviasBattle@@QAEXXZ ; CDeviasBattle::Start1min
  008c7	eb 6a		 jmp	 SHORT $LN4@TickTime
$LN5@TickTime:

; 209  : 			}
; 210  : 
; 211  : 			else if(Time[i].Hour == time.wHour && Time[i].Min == time.wMinute)

  008c9	8b 45 e4	 mov	 eax, DWORD PTR _i$220497[ebp]
  008cc	6b c0 18	 imul	 eax, 24			; 00000018H
  008cf	0f b7 4d f0	 movzx	 ecx, WORD PTR _time$[ebp+8]
  008d3	8b 55 f8	 mov	 edx, DWORD PTR _this$[ebp]
  008d6	39 8c 02 c8 10
	02 00		 cmp	 DWORD PTR [edx+eax+135368], ecx
  008dd	75 20		 jne	 SHORT $LN3@TickTime
  008df	8b 45 e4	 mov	 eax, DWORD PTR _i$220497[ebp]
  008e2	6b c0 18	 imul	 eax, 24			; 00000018H
  008e5	0f b7 4d f2	 movzx	 ecx, WORD PTR _time$[ebp+10]
  008e9	8b 55 f8	 mov	 edx, DWORD PTR _this$[ebp]
  008ec	39 8c 02 cc 10
	02 00		 cmp	 DWORD PTR [edx+eax+135372], ecx
  008f3	75 0a		 jne	 SHORT $LN3@TickTime

; 212  : 			{
; 213  : 
; 214  : 				StartEvent();

  008f5	8b 4d f8	 mov	 ecx, DWORD PTR _this$[ebp]
  008f8	e8 00 00 00 00	 call	 ?StartEvent@CDeviasBattle@@QAEXXZ ; CDeviasBattle::StartEvent
  008fd	eb 34		 jmp	 SHORT $LN4@TickTime
$LN3@TickTime:

; 215  : 			}
; 216  : 			else if(Time[i].EndHour == time.wHour && Time[i].EndMin == time.wMinute)

  008ff	8b 45 e4	 mov	 eax, DWORD PTR _i$220497[ebp]
  00902	6b c0 18	 imul	 eax, 24			; 00000018H
  00905	0f b7 4d f0	 movzx	 ecx, WORD PTR _time$[ebp+8]
  00909	8b 55 f8	 mov	 edx, DWORD PTR _this$[ebp]
  0090c	39 8c 02 d0 10
	02 00		 cmp	 DWORD PTR [edx+eax+135376], ecx
  00913	75 1e		 jne	 SHORT $LN4@TickTime
  00915	8b 45 e4	 mov	 eax, DWORD PTR _i$220497[ebp]
  00918	6b c0 18	 imul	 eax, 24			; 00000018H
  0091b	0f b7 4d f2	 movzx	 ecx, WORD PTR _time$[ebp+10]
  0091f	8b 55 f8	 mov	 edx, DWORD PTR _this$[ebp]
  00922	39 8c 02 d4 10
	02 00		 cmp	 DWORD PTR [edx+eax+135380], ecx
  00929	75 08		 jne	 SHORT $LN4@TickTime

; 217  : 			{
; 218  : 
; 219  : 				EndEvent();

  0092b	8b 4d f8	 mov	 ecx, DWORD PTR _this$[ebp]
  0092e	e8 00 00 00 00	 call	 ?EndEvent@CDeviasBattle@@QAEXXZ ; CDeviasBattle::EndEvent
$LN4@TickTime:

; 220  : 			}
; 221  : 		}

  00933	e9 40 ff ff ff	 jmp	 $LN7@TickTime
$LN11@TickTime:

; 222  : 	}
; 223  : }

  00938	5f		 pop	 edi
  00939	5e		 pop	 esi
  0093a	5b		 pop	 ebx
  0093b	8b 4d fc	 mov	 ecx, DWORD PTR __$ArrayPad$[ebp]
  0093e	33 cd		 xor	 ecx, ebp
  00940	e8 00 00 00 00	 call	 @__security_check_cookie@4
  00945	8b e5		 mov	 esp, ebp
  00947	5d		 pop	 ebp
  00948	c3		 ret	 0
?TickTime@CDeviasBattle@@QAEXXZ ENDP			; CDeviasBattle::TickTime
_TEXT	ENDS
PUBLIC	??_C@_0BL@OLGLDOGN@?$FLDevias?5Battle?$FN?5Killed?3?5?$CFd?$AA@ ; `string'
PUBLIC	?BattleKillSocer@CDeviasBattle@@QAEXHH@Z	; CDeviasBattle::BattleKillSocer
EXTRN	?ItemSerialCreateSend@@YAXHEEEHEEEEEHEE@Z:PROC	; ItemSerialCreateSend
EXTRN	?MsgNormal@@YAXHPADZZ:PROC			; MsgNormal
;	COMDAT ??_C@_0BL@OLGLDOGN@?$FLDevias?5Battle?$FN?5Killed?3?5?$CFd?$AA@
CONST	SEGMENT
??_C@_0BL@OLGLDOGN@?$FLDevias?5Battle?$FN?5Killed?3?5?$CFd?$AA@ DB '[Devi'
	DB	'as Battle] Killed: %d', 00H			; `string'
; Function compile flags: /Odtp /ZI
CONST	ENDS
_TEXT	SEGMENT
_lpTargetObj$ = -12					; size = 4
_lpObj$ = -8						; size = 4
_this$ = -4						; size = 4
_aIndex$ = 8						; size = 4
_aIndex2$ = 12						; size = 4
?BattleKillSocer@CDeviasBattle@@QAEXHH@Z PROC		; CDeviasBattle::BattleKillSocer
; _this$ = ecx

; 226  : {

  00950	55		 push	 ebp
  00951	8b ec		 mov	 ebp, esp
  00953	83 ec 4c	 sub	 esp, 76			; 0000004cH
  00956	53		 push	 ebx
  00957	56		 push	 esi
  00958	57		 push	 edi
  00959	89 4d fc	 mov	 DWORD PTR _this$[ebp], ecx

; 227  : 	LPOBJ lpObj = &gObj[aIndex];	

  0095c	8b 45 08	 mov	 eax, DWORD PTR _aIndex$[ebp]
  0095f	69 c0 38 2b 00
	00		 imul	 eax, 11064		; 00002b38H
  00965	03 05 00 00 00
	00		 add	 eax, DWORD PTR ?gObj@@3PAUOBJECTSTRUCT@@A ; gObj
  0096b	89 45 f8	 mov	 DWORD PTR _lpObj$[ebp], eax

; 228  : 	LPOBJ lpTargetObj = &gObj[aIndex2];	

  0096e	8b 45 0c	 mov	 eax, DWORD PTR _aIndex2$[ebp]
  00971	69 c0 38 2b 00
	00		 imul	 eax, 11064		; 00002b38H
  00977	03 05 00 00 00
	00		 add	 eax, DWORD PTR ?gObj@@3PAUOBJECTSTRUCT@@A ; gObj
  0097d	89 45 f4	 mov	 DWORD PTR _lpTargetObj$[ebp], eax

; 229  : 	if(lpObj->MapNumber == 2 && lpObj->X >= 144 && lpObj->X <= 159 && lpObj->Y >= 34 && lpObj->Y <= 49)

  00980	8b 45 f8	 mov	 eax, DWORD PTR _lpObj$[ebp]
  00983	0f b6 88 49 01
	00 00		 movzx	 ecx, BYTE PTR [eax+329]
  0098a	83 f9 02	 cmp	 ecx, 2
  0098d	0f 85 01 01 00
	00		 jne	 $LN3@BattleKill
  00993	8b 45 f8	 mov	 eax, DWORD PTR _lpObj$[ebp]
  00996	0f bf 88 44 01
	00 00		 movsx	 ecx, WORD PTR [eax+324]
  0099d	81 f9 90 00 00
	00		 cmp	 ecx, 144		; 00000090H
  009a3	0f 8c eb 00 00
	00		 jl	 $LN3@BattleKill
  009a9	8b 45 f8	 mov	 eax, DWORD PTR _lpObj$[ebp]
  009ac	0f bf 88 44 01
	00 00		 movsx	 ecx, WORD PTR [eax+324]
  009b3	81 f9 9f 00 00
	00		 cmp	 ecx, 159		; 0000009fH
  009b9	0f 8f d5 00 00
	00		 jg	 $LN3@BattleKill
  009bf	8b 45 f8	 mov	 eax, DWORD PTR _lpObj$[ebp]
  009c2	0f bf 88 46 01
	00 00		 movsx	 ecx, WORD PTR [eax+326]
  009c9	83 f9 22	 cmp	 ecx, 34			; 00000022H
  009cc	0f 8c c2 00 00
	00		 jl	 $LN3@BattleKill
  009d2	8b 45 f8	 mov	 eax, DWORD PTR _lpObj$[ebp]
  009d5	0f bf 88 46 01
	00 00		 movsx	 ecx, WORD PTR [eax+326]
  009dc	83 f9 31	 cmp	 ecx, 49			; 00000031H
  009df	0f 8f af 00 00
	00		 jg	 $LN3@BattleKill

; 230  : 	{
; 231  : 		KillSocer[aIndex]++;

  009e5	8b 45 08	 mov	 eax, DWORD PTR _aIndex$[ebp]
  009e8	8b 4d fc	 mov	 ecx, DWORD PTR _this$[ebp]
  009eb	8b 54 81 60	 mov	 edx, DWORD PTR [ecx+eax*4+96]
  009ef	83 c2 01	 add	 edx, 1
  009f2	8b 45 08	 mov	 eax, DWORD PTR _aIndex$[ebp]
  009f5	8b 4d fc	 mov	 ecx, DWORD PTR _this$[ebp]
  009f8	89 54 81 60	 mov	 DWORD PTR [ecx+eax*4+96], edx

; 232  : 		MsgNormal(aIndex,"[Devias Battle] Killed: %d",KillSocer[aIndex]);

  009fc	8b 45 08	 mov	 eax, DWORD PTR _aIndex$[ebp]
  009ff	8b 4d fc	 mov	 ecx, DWORD PTR _this$[ebp]
  00a02	8b 54 81 60	 mov	 edx, DWORD PTR [ecx+eax*4+96]
  00a06	52		 push	 edx
  00a07	68 00 00 00 00	 push	 OFFSET ??_C@_0BL@OLGLDOGN@?$FLDevias?5Battle?$FN?5Killed?3?5?$CFd?$AA@
  00a0c	8b 45 08	 mov	 eax, DWORD PTR _aIndex$[ebp]
  00a0f	50		 push	 eax
  00a10	e8 00 00 00 00	 call	 ?MsgNormal@@YAXHPADZZ	; MsgNormal
  00a15	83 c4 0c	 add	 esp, 12			; 0000000cH

; 233  : 		if(Fallen_DROP)

  00a18	8b 45 fc	 mov	 eax, DWORD PTR _this$[ebp]
  00a1b	83 78 3c 00	 cmp	 DWORD PTR [eax+60], 0
  00a1f	74 73		 je	 SHORT $LN3@BattleKill

; 234  : 		{
; 235  : 			ItemSerialCreateSend(aIndex,lpObj->MapNumber,lpObj->X,lpObj->Y,ITEMGET(this->FallenItemDropType,this->FallenItemDropID),
; 236  : 					this->FallenItemDropLevel,0, this->FallenItemDropSkill,this->FallenItemDropLuck,
; 237  : 					this->FallenItemDropOpt,aIndex,this->FallenItemDropExcOpt,this->FallenItemDropAncOpt);	

  00a21	8b 45 fc	 mov	 eax, DWORD PTR _this$[ebp]
  00a24	0f b6 48 5c	 movzx	 ecx, BYTE PTR [eax+92]
  00a28	51		 push	 ecx
  00a29	8b 55 fc	 mov	 edx, DWORD PTR _this$[ebp]
  00a2c	0f b6 42 58	 movzx	 eax, BYTE PTR [edx+88]
  00a30	50		 push	 eax
  00a31	8b 4d 08	 mov	 ecx, DWORD PTR _aIndex$[ebp]
  00a34	51		 push	 ecx
  00a35	8b 55 fc	 mov	 edx, DWORD PTR _this$[ebp]
  00a38	0f b6 42 54	 movzx	 eax, BYTE PTR [edx+84]
  00a3c	50		 push	 eax
  00a3d	8b 4d fc	 mov	 ecx, DWORD PTR _this$[ebp]
  00a40	0f b6 51 50	 movzx	 edx, BYTE PTR [ecx+80]
  00a44	52		 push	 edx
  00a45	8b 45 fc	 mov	 eax, DWORD PTR _this$[ebp]
  00a48	0f b6 48 4c	 movzx	 ecx, BYTE PTR [eax+76]
  00a4c	51		 push	 ecx
  00a4d	6a 00		 push	 0
  00a4f	8b 55 fc	 mov	 edx, DWORD PTR _this$[ebp]
  00a52	0f b6 42 48	 movzx	 eax, BYTE PTR [edx+72]
  00a56	50		 push	 eax
  00a57	8b 4d fc	 mov	 ecx, DWORD PTR _this$[ebp]
  00a5a	8b 51 40	 mov	 edx, DWORD PTR [ecx+64]
  00a5d	c1 e2 09	 shl	 edx, 9
  00a60	8b 45 fc	 mov	 eax, DWORD PTR _this$[ebp]
  00a63	03 50 44	 add	 edx, DWORD PTR [eax+68]
  00a66	52		 push	 edx
  00a67	8b 4d f8	 mov	 ecx, DWORD PTR _lpObj$[ebp]
  00a6a	0f b6 91 46 01
	00 00		 movzx	 edx, BYTE PTR [ecx+326]
  00a71	52		 push	 edx
  00a72	8b 45 f8	 mov	 eax, DWORD PTR _lpObj$[ebp]
  00a75	0f b6 88 44 01
	00 00		 movzx	 ecx, BYTE PTR [eax+324]
  00a7c	51		 push	 ecx
  00a7d	8b 55 f8	 mov	 edx, DWORD PTR _lpObj$[ebp]
  00a80	0f b6 82 49 01
	00 00		 movzx	 eax, BYTE PTR [edx+329]
  00a87	50		 push	 eax
  00a88	8b 4d 08	 mov	 ecx, DWORD PTR _aIndex$[ebp]
  00a8b	51		 push	 ecx
  00a8c	e8 00 00 00 00	 call	 ?ItemSerialCreateSend@@YAXHEEEHEEEEEHEE@Z ; ItemSerialCreateSend
  00a91	83 c4 34	 add	 esp, 52			; 00000034H
$LN3@BattleKill:

; 238  : 		}
; 239  : 	}
; 240  : }

  00a94	5f		 pop	 edi
  00a95	5e		 pop	 esi
  00a96	5b		 pop	 ebx
  00a97	8b e5		 mov	 esp, ebp
  00a99	5d		 pop	 ebp
  00a9a	c2 08 00	 ret	 8
?BattleKillSocer@CDeviasBattle@@QAEXHH@Z ENDP		; CDeviasBattle::BattleKillSocer
_TEXT	ENDS
PUBLIC	??_C@_0BM@CGIKKGMH@?$HO?$FLCredit?$FN?3?5Online?5Bonus?3?5?$CFd?$AA@ ; `string'
PUBLIC	??_C@_0CK@FFIKEMNG@?$HO?$FLGoblin?$FN?3?5Devias?5Battle?5Event?5R@ ; `string'
PUBLIC	??_C@_0CK@DLFIOBDH@?$HO?$FLWCoinP?$FN?3?5Devias?5Battle?5Event?5R@ ; `string'
PUBLIC	??_C@_0CL@PCCNPDPE@?$HO?$FLWCoinC?$FN?3?5Devias?5Battle?5Event?5R@ ; `string'
EXTRN	?ExFireCracker@@YAXHEE@Z:PROC			; ExFireCracker
EXTRN	?ExUserDataSend@@YAXH@Z:PROC			; ExUserDataSend
EXTRN	?MessageChat@@YAXHPADZZ:PROC			; MessageChat
EXTRN	?GDSaveUserInfo@GameShop@@QAEXH@Z:PROC		; GameShop::GDSaveUserInfo
EXTRN	?gGameShop@@3VGameShop@@A:BYTE			; gGameShop
EXTRN	__fltused:DWORD
;	COMDAT ??_C@_0BM@CGIKKGMH@?$HO?$FLCredit?$FN?3?5Online?5Bonus?3?5?$CFd?$AA@
CONST	SEGMENT
??_C@_0BM@CGIKKGMH@?$HO?$FLCredit?$FN?3?5Online?5Bonus?3?5?$CFd?$AA@ DB '~'
	DB	'[Credit]: Online Bonus: %d', 00H		; `string'
CONST	ENDS
;	COMDAT ??_C@_0CK@FFIKEMNG@?$HO?$FLGoblin?$FN?3?5Devias?5Battle?5Event?5R@
CONST	SEGMENT
??_C@_0CK@FFIKEMNG@?$HO?$FLGoblin?$FN?3?5Devias?5Battle?5Event?5R@ DB '~['
	DB	'Goblin]: Devias Battle Event Reward: %d', 00H ; `string'
CONST	ENDS
;	COMDAT ??_C@_0CK@DLFIOBDH@?$HO?$FLWCoinP?$FN?3?5Devias?5Battle?5Event?5R@
CONST	SEGMENT
??_C@_0CK@DLFIOBDH@?$HO?$FLWCoinP?$FN?3?5Devias?5Battle?5Event?5R@ DB '~['
	DB	'WCoinP]: Devias Battle Event Reward: %d', 00H ; `string'
CONST	ENDS
;	COMDAT ??_C@_0CL@PCCNPDPE@?$HO?$FLWCoinC?$FN?3?5Devias?5Battle?5Event?5R@
CONST	SEGMENT
??_C@_0CL@PCCNPDPE@?$HO?$FLWCoinC?$FN?3?5Devias?5Battle?5Event?5R@ DB '~['
	DB	'WCoinC]: Devias Battle Event Reward : %d', 00H ; `string'
; Function compile flags: /Odtp /ZI
CONST	ENDS
_TEXT	SEGMENT
_lpObj$ = -8						; size = 4
_this$ = -4						; size = 4
_aIndex$ = 8						; size = 4
?Reward@CDeviasBattle@@QAEXH@Z PROC			; CDeviasBattle::Reward
; _this$ = ecx

; 243  : {

  00aa0	55		 push	 ebp
  00aa1	8b ec		 mov	 ebp, esp
  00aa3	83 ec 48	 sub	 esp, 72			; 00000048H
  00aa6	53		 push	 ebx
  00aa7	56		 push	 esi
  00aa8	57		 push	 edi
  00aa9	89 4d fc	 mov	 DWORD PTR _this$[ebp], ecx

; 244  : 	LPOBJ lpObj = &gObj[aIndex];	

  00aac	8b 45 08	 mov	 eax, DWORD PTR _aIndex$[ebp]
  00aaf	69 c0 38 2b 00
	00		 imul	 eax, 11064		; 00002b38H
  00ab5	03 05 00 00 00
	00		 add	 eax, DWORD PTR ?gObj@@3PAUOBJECTSTRUCT@@A ; gObj
  00abb	89 45 f8	 mov	 DWORD PTR _lpObj$[ebp], eax

; 245  : 	if(this->RewardWCoinC > 0)

  00abe	8b 45 fc	 mov	 eax, DWORD PTR _this$[ebp]
  00ac1	83 78 0c 00	 cmp	 DWORD PTR [eax+12], 0
  00ac5	7e 3e		 jle	 SHORT $LN5@Reward

; 246  : 	{
; 247  : 			lpObj->GameShop.WCoinC += this->RewardWCoinC;

  00ac7	8b 45 fc	 mov	 eax, DWORD PTR _this$[ebp]
  00aca	db 40 0c	 fild	 DWORD PTR [eax+12]
  00acd	8b 4d f8	 mov	 ecx, DWORD PTR _lpObj$[ebp]
  00ad0	dc 81 00 23 00
	00		 fadd	 QWORD PTR [ecx+8960]
  00ad6	8b 55 f8	 mov	 edx, DWORD PTR _lpObj$[ebp]
  00ad9	dd 9a 00 23 00
	00		 fstp	 QWORD PTR [edx+8960]

; 248  : 			gGameShop.GDSaveUserInfo(aIndex);

  00adf	8b 45 08	 mov	 eax, DWORD PTR _aIndex$[ebp]
  00ae2	50		 push	 eax
  00ae3	b9 00 00 00 00	 mov	 ecx, OFFSET ?gGameShop@@3VGameShop@@A ; gGameShop
  00ae8	e8 00 00 00 00	 call	 ?GDSaveUserInfo@GameShop@@QAEXH@Z ; GameShop::GDSaveUserInfo

; 249  : 			MessageChat(aIndex,"~[WCoinC]: Devias Battle Event Reward : %d",this->RewardWCoinC);

  00aed	8b 45 fc	 mov	 eax, DWORD PTR _this$[ebp]
  00af0	8b 48 0c	 mov	 ecx, DWORD PTR [eax+12]
  00af3	51		 push	 ecx
  00af4	68 00 00 00 00	 push	 OFFSET ??_C@_0CL@PCCNPDPE@?$HO?$FLWCoinC?$FN?3?5Devias?5Battle?5Event?5R@
  00af9	8b 55 08	 mov	 edx, DWORD PTR _aIndex$[ebp]
  00afc	52		 push	 edx
  00afd	e8 00 00 00 00	 call	 ?MessageChat@@YAXHPADZZ	; MessageChat
  00b02	83 c4 0c	 add	 esp, 12			; 0000000cH
$LN5@Reward:

; 250  : 	}
; 251  : 
; 252  : 	if(this->RewardWCoinP > 0)

  00b05	8b 45 fc	 mov	 eax, DWORD PTR _this$[ebp]
  00b08	83 78 10 00	 cmp	 DWORD PTR [eax+16], 0
  00b0c	7e 3e		 jle	 SHORT $LN4@Reward

; 253  : 	{
; 254  : 			lpObj->GameShop.WCoinP += this->RewardWCoinP;

  00b0e	8b 45 fc	 mov	 eax, DWORD PTR _this$[ebp]
  00b11	db 40 10	 fild	 DWORD PTR [eax+16]
  00b14	8b 4d f8	 mov	 ecx, DWORD PTR _lpObj$[ebp]
  00b17	dc 81 f8 22 00
	00		 fadd	 QWORD PTR [ecx+8952]
  00b1d	8b 55 f8	 mov	 edx, DWORD PTR _lpObj$[ebp]
  00b20	dd 9a f8 22 00
	00		 fstp	 QWORD PTR [edx+8952]

; 255  : 			gGameShop.GDSaveUserInfo(aIndex);

  00b26	8b 45 08	 mov	 eax, DWORD PTR _aIndex$[ebp]
  00b29	50		 push	 eax
  00b2a	b9 00 00 00 00	 mov	 ecx, OFFSET ?gGameShop@@3VGameShop@@A ; gGameShop
  00b2f	e8 00 00 00 00	 call	 ?GDSaveUserInfo@GameShop@@QAEXH@Z ; GameShop::GDSaveUserInfo

; 256  : 			MessageChat(aIndex,"~[WCoinP]: Devias Battle Event Reward: %d",this->RewardWCoinP);

  00b34	8b 45 fc	 mov	 eax, DWORD PTR _this$[ebp]
  00b37	8b 48 10	 mov	 ecx, DWORD PTR [eax+16]
  00b3a	51		 push	 ecx
  00b3b	68 00 00 00 00	 push	 OFFSET ??_C@_0CK@DLFIOBDH@?$HO?$FLWCoinP?$FN?3?5Devias?5Battle?5Event?5R@
  00b40	8b 55 08	 mov	 edx, DWORD PTR _aIndex$[ebp]
  00b43	52		 push	 edx
  00b44	e8 00 00 00 00	 call	 ?MessageChat@@YAXHPADZZ	; MessageChat
  00b49	83 c4 0c	 add	 esp, 12			; 0000000cH
$LN4@Reward:

; 257  : 	}
; 258  : 
; 259  : 	if(this->RewardGoblin > 0)

  00b4c	8b 45 fc	 mov	 eax, DWORD PTR _this$[ebp]
  00b4f	83 78 14 00	 cmp	 DWORD PTR [eax+20], 0
  00b53	7e 3e		 jle	 SHORT $LN3@Reward

; 260  : 	{
; 261  : 			lpObj->GameShop.GoblinPoint += this->RewardGoblin;

  00b55	8b 45 fc	 mov	 eax, DWORD PTR _this$[ebp]
  00b58	db 40 14	 fild	 DWORD PTR [eax+20]
  00b5b	8b 4d f8	 mov	 ecx, DWORD PTR _lpObj$[ebp]
  00b5e	dc 81 08 23 00
	00		 fadd	 QWORD PTR [ecx+8968]
  00b64	8b 55 f8	 mov	 edx, DWORD PTR _lpObj$[ebp]
  00b67	dd 9a 08 23 00
	00		 fstp	 QWORD PTR [edx+8968]

; 262  : 			gGameShop.GDSaveUserInfo(aIndex);

  00b6d	8b 45 08	 mov	 eax, DWORD PTR _aIndex$[ebp]
  00b70	50		 push	 eax
  00b71	b9 00 00 00 00	 mov	 ecx, OFFSET ?gGameShop@@3VGameShop@@A ; gGameShop
  00b76	e8 00 00 00 00	 call	 ?GDSaveUserInfo@GameShop@@QAEXH@Z ; GameShop::GDSaveUserInfo

; 263  : 			MessageChat(aIndex,"~[Goblin]: Devias Battle Event Reward: %d",this->RewardGoblin);

  00b7b	8b 45 fc	 mov	 eax, DWORD PTR _this$[ebp]
  00b7e	8b 48 14	 mov	 ecx, DWORD PTR [eax+20]
  00b81	51		 push	 ecx
  00b82	68 00 00 00 00	 push	 OFFSET ??_C@_0CK@FFIKEMNG@?$HO?$FLGoblin?$FN?3?5Devias?5Battle?5Event?5R@
  00b87	8b 55 08	 mov	 edx, DWORD PTR _aIndex$[ebp]
  00b8a	52		 push	 edx
  00b8b	e8 00 00 00 00	 call	 ?MessageChat@@YAXHPADZZ	; MessageChat
  00b90	83 c4 0c	 add	 esp, 12			; 0000000cH
$LN3@Reward:

; 264  : 	}
; 265  : 
; 266  : 	if(this->RewardExCred > 0)

  00b93	8b 45 fc	 mov	 eax, DWORD PTR _this$[ebp]
  00b96	83 78 18 00	 cmp	 DWORD PTR [eax+24], 0
  00b9a	7e 3c		 jle	 SHORT $LN2@Reward

; 267  : 	{
; 268  : 			lpObj->ExCred += this->RewardExCred;

  00b9c	8b 45 fc	 mov	 eax, DWORD PTR _this$[ebp]
  00b9f	db 40 18	 fild	 DWORD PTR [eax+24]
  00ba2	8b 4d f8	 mov	 ecx, DWORD PTR _lpObj$[ebp]
  00ba5	d8 81 a8 22 00
	00		 fadd	 DWORD PTR [ecx+8872]
  00bab	8b 55 f8	 mov	 edx, DWORD PTR _lpObj$[ebp]
  00bae	d9 9a a8 22 00
	00		 fstp	 DWORD PTR [edx+8872]

; 269  : #ifndef FIX_DS_CRASH
; 270  : 			GJSetCharacterInfo(lpObj, lpObj->m_Index, 0);
; 271  : #endif
; 272  : 			ExUserDataSend(aIndex);

  00bb4	8b 45 08	 mov	 eax, DWORD PTR _aIndex$[ebp]
  00bb7	50		 push	 eax
  00bb8	e8 00 00 00 00	 call	 ?ExUserDataSend@@YAXH@Z	; ExUserDataSend
  00bbd	83 c4 04	 add	 esp, 4

; 273  : 			MessageChat(aIndex,"~[Credit]: Online Bonus: %d",this->RewardExCred);

  00bc0	8b 45 fc	 mov	 eax, DWORD PTR _this$[ebp]
  00bc3	8b 48 18	 mov	 ecx, DWORD PTR [eax+24]
  00bc6	51		 push	 ecx
  00bc7	68 00 00 00 00	 push	 OFFSET ??_C@_0BM@CGIKKGMH@?$HO?$FLCredit?$FN?3?5Online?5Bonus?3?5?$CFd?$AA@
  00bcc	8b 55 08	 mov	 edx, DWORD PTR _aIndex$[ebp]
  00bcf	52		 push	 edx
  00bd0	e8 00 00 00 00	 call	 ?MessageChat@@YAXHPADZZ	; MessageChat
  00bd5	83 c4 0c	 add	 esp, 12			; 0000000cH
$LN2@Reward:

; 274  : 	}
; 275  : 
; 276  : 	if(RewardItem)

  00bd8	8b 45 fc	 mov	 eax, DWORD PTR _this$[ebp]
  00bdb	83 78 08 00	 cmp	 DWORD PTR [eax+8], 0
  00bdf	74 73		 je	 SHORT $LN1@Reward

; 277  : 	{
; 278  : 		ItemSerialCreateSend(aIndex,lpObj->MapNumber,lpObj->X,lpObj->Y,ITEMGET(this->RewardItemDropType,this->RewardItemDropID),
; 279  : 					this->RewardItemDropLevel,0, this->RewardItemDropSkill,this->RewardItemDropLuck,
; 280  : 					this->RewardItemDropOpt,aIndex,this->RewardItemDropExcOpt,this->RewardItemDropAncOpt);

  00be1	8b 45 fc	 mov	 eax, DWORD PTR _this$[ebp]
  00be4	0f b6 48 38	 movzx	 ecx, BYTE PTR [eax+56]
  00be8	51		 push	 ecx
  00be9	8b 55 fc	 mov	 edx, DWORD PTR _this$[ebp]
  00bec	0f b6 42 34	 movzx	 eax, BYTE PTR [edx+52]
  00bf0	50		 push	 eax
  00bf1	8b 4d 08	 mov	 ecx, DWORD PTR _aIndex$[ebp]
  00bf4	51		 push	 ecx
  00bf5	8b 55 fc	 mov	 edx, DWORD PTR _this$[ebp]
  00bf8	0f b6 42 30	 movzx	 eax, BYTE PTR [edx+48]
  00bfc	50		 push	 eax
  00bfd	8b 4d fc	 mov	 ecx, DWORD PTR _this$[ebp]
  00c00	0f b6 51 2c	 movzx	 edx, BYTE PTR [ecx+44]
  00c04	52		 push	 edx
  00c05	8b 45 fc	 mov	 eax, DWORD PTR _this$[ebp]
  00c08	0f b6 48 28	 movzx	 ecx, BYTE PTR [eax+40]
  00c0c	51		 push	 ecx
  00c0d	6a 00		 push	 0
  00c0f	8b 55 fc	 mov	 edx, DWORD PTR _this$[ebp]
  00c12	0f b6 42 24	 movzx	 eax, BYTE PTR [edx+36]
  00c16	50		 push	 eax
  00c17	8b 4d fc	 mov	 ecx, DWORD PTR _this$[ebp]
  00c1a	8b 51 1c	 mov	 edx, DWORD PTR [ecx+28]
  00c1d	c1 e2 09	 shl	 edx, 9
  00c20	8b 45 fc	 mov	 eax, DWORD PTR _this$[ebp]
  00c23	03 50 20	 add	 edx, DWORD PTR [eax+32]
  00c26	52		 push	 edx
  00c27	8b 4d f8	 mov	 ecx, DWORD PTR _lpObj$[ebp]
  00c2a	0f b6 91 46 01
	00 00		 movzx	 edx, BYTE PTR [ecx+326]
  00c31	52		 push	 edx
  00c32	8b 45 f8	 mov	 eax, DWORD PTR _lpObj$[ebp]
  00c35	0f b6 88 44 01
	00 00		 movzx	 ecx, BYTE PTR [eax+324]
  00c3c	51		 push	 ecx
  00c3d	8b 55 f8	 mov	 edx, DWORD PTR _lpObj$[ebp]
  00c40	0f b6 82 49 01
	00 00		 movzx	 eax, BYTE PTR [edx+329]
  00c47	50		 push	 eax
  00c48	8b 4d 08	 mov	 ecx, DWORD PTR _aIndex$[ebp]
  00c4b	51		 push	 ecx
  00c4c	e8 00 00 00 00	 call	 ?ItemSerialCreateSend@@YAXHEEEHEEEEEHEE@Z ; ItemSerialCreateSend
  00c51	83 c4 34	 add	 esp, 52			; 00000034H
$LN1@Reward:

; 281  : 	}
; 282  : 
; 283  : 	
; 284  : 	ExFireCracker(aIndex,lpObj->X,lpObj->Y);

  00c54	8b 45 f8	 mov	 eax, DWORD PTR _lpObj$[ebp]
  00c57	0f b6 88 46 01
	00 00		 movzx	 ecx, BYTE PTR [eax+326]
  00c5e	51		 push	 ecx
  00c5f	8b 55 f8	 mov	 edx, DWORD PTR _lpObj$[ebp]
  00c62	0f b6 82 44 01
	00 00		 movzx	 eax, BYTE PTR [edx+324]
  00c69	50		 push	 eax
  00c6a	8b 4d 08	 mov	 ecx, DWORD PTR _aIndex$[ebp]
  00c6d	51		 push	 ecx
  00c6e	e8 00 00 00 00	 call	 ?ExFireCracker@@YAXHEE@Z ; ExFireCracker
  00c73	83 c4 0c	 add	 esp, 12			; 0000000cH

; 285  : }

  00c76	5f		 pop	 edi
  00c77	5e		 pop	 esi
  00c78	5b		 pop	 ebx
  00c79	8b e5		 mov	 esp, ebp
  00c7b	5d		 pop	 ebp
  00c7c	c2 04 00	 ret	 4
?Reward@CDeviasBattle@@QAEXH@Z ENDP			; CDeviasBattle::Reward
_TEXT	ENDS
PUBLIC	?PkCheck@CDeviasBattle@@QAE_NPAUOBJECTSTRUCT@@0@Z ; CDeviasBattle::PkCheck
; Function compile flags: /Odtp /ZI
_TEXT	SEGMENT
_this$ = -4						; size = 4
_lpObj$ = 8						; size = 4
_lpTarget$ = 12						; size = 4
?PkCheck@CDeviasBattle@@QAE_NPAUOBJECTSTRUCT@@0@Z PROC	; CDeviasBattle::PkCheck
; _this$ = ecx

; 288  : {

  00c80	55		 push	 ebp
  00c81	8b ec		 mov	 ebp, esp
  00c83	83 ec 44	 sub	 esp, 68			; 00000044H
  00c86	53		 push	 ebx
  00c87	56		 push	 esi
  00c88	57		 push	 edi
  00c89	89 4d fc	 mov	 DWORD PTR _this$[ebp], ecx

; 289  : 	if(!this->Enable)return true;

  00c8c	8b 45 fc	 mov	 eax, DWORD PTR _this$[ebp]
  00c8f	83 38 00	 cmp	 DWORD PTR [eax], 0
  00c92	75 04		 jne	 SHORT $LN3@PkCheck
  00c94	b0 01		 mov	 al, 1
  00c96	eb 3d		 jmp	 SHORT $LN4@PkCheck
$LN3@PkCheck:

; 290  : 	if(!this->Start)return true;

  00c98	8b 45 fc	 mov	 eax, DWORD PTR _this$[ebp]
  00c9b	83 78 04 00	 cmp	 DWORD PTR [eax+4], 0
  00c9f	75 04		 jne	 SHORT $LN2@PkCheck
  00ca1	b0 01		 mov	 al, 1
  00ca3	eb 30		 jmp	 SHORT $LN4@PkCheck
$LN2@PkCheck:

; 291  : 	if(this->BattleRing[lpObj->m_Index] == true && this->BattleRing[lpTarget->m_Index] == true) return false;

  00ca5	8b 45 08	 mov	 eax, DWORD PTR _lpObj$[ebp]
  00ca8	8b 08		 mov	 ecx, DWORD PTR [eax]
  00caa	8b 55 fc	 mov	 edx, DWORD PTR _this$[ebp]
  00cad	0f b6 84 0a c0
	ea 00 00	 movzx	 eax, BYTE PTR [edx+ecx+60096]
  00cb5	83 f8 01	 cmp	 eax, 1
  00cb8	75 19		 jne	 SHORT $LN1@PkCheck
  00cba	8b 45 0c	 mov	 eax, DWORD PTR _lpTarget$[ebp]
  00cbd	8b 08		 mov	 ecx, DWORD PTR [eax]
  00cbf	8b 55 fc	 mov	 edx, DWORD PTR _this$[ebp]
  00cc2	0f b6 84 0a c0
	ea 00 00	 movzx	 eax, BYTE PTR [edx+ecx+60096]
  00cca	83 f8 01	 cmp	 eax, 1
  00ccd	75 04		 jne	 SHORT $LN1@PkCheck
  00ccf	32 c0		 xor	 al, al
  00cd1	eb 02		 jmp	 SHORT $LN4@PkCheck
$LN1@PkCheck:

; 292  : 	return true;

  00cd3	b0 01		 mov	 al, 1
$LN4@PkCheck:

; 293  : }

  00cd5	5f		 pop	 edi
  00cd6	5e		 pop	 esi
  00cd7	5b		 pop	 ebx
  00cd8	8b e5		 mov	 esp, ebp
  00cda	5d		 pop	 ebp
  00cdb	c2 08 00	 ret	 8
?PkCheck@CDeviasBattle@@QAE_NPAUOBJECTSTRUCT@@0@Z ENDP	; CDeviasBattle::PkCheck
_TEXT	ENDS
PUBLIC	?ReturnStatus@CDeviasBattle@@QAEHHH@Z		; CDeviasBattle::ReturnStatus
; Function compile flags: /Odtp /ZI
_TEXT	SEGMENT
_lpTargetObj$ = -12					; size = 4
_lpObj$ = -8						; size = 4
_this$ = -4						; size = 4
_aIndex$ = 8						; size = 4
_TargetIndex$ = 12					; size = 4
?ReturnStatus@CDeviasBattle@@QAEHHH@Z PROC		; CDeviasBattle::ReturnStatus
; _this$ = ecx

; 296  : {

  00ce0	55		 push	 ebp
  00ce1	8b ec		 mov	 ebp, esp
  00ce3	83 ec 4c	 sub	 esp, 76			; 0000004cH
  00ce6	53		 push	 ebx
  00ce7	56		 push	 esi
  00ce8	57		 push	 edi
  00ce9	89 4d fc	 mov	 DWORD PTR _this$[ebp], ecx

; 297  : 	LPOBJ lpObj = &gObj[aIndex];

  00cec	8b 45 08	 mov	 eax, DWORD PTR _aIndex$[ebp]
  00cef	69 c0 38 2b 00
	00		 imul	 eax, 11064		; 00002b38H
  00cf5	03 05 00 00 00
	00		 add	 eax, DWORD PTR ?gObj@@3PAUOBJECTSTRUCT@@A ; gObj
  00cfb	89 45 f8	 mov	 DWORD PTR _lpObj$[ebp], eax

; 298  : 	LPOBJ lpTargetObj = &gObj[TargetIndex];

  00cfe	8b 45 0c	 mov	 eax, DWORD PTR _TargetIndex$[ebp]
  00d01	69 c0 38 2b 00
	00		 imul	 eax, 11064		; 00002b38H
  00d07	03 05 00 00 00
	00		 add	 eax, DWORD PTR ?gObj@@3PAUOBJECTSTRUCT@@A ; gObj
  00d0d	89 45 f4	 mov	 DWORD PTR _lpTargetObj$[ebp], eax

; 299  : 	//if(lpTargetObj->MapNumber == 0 && lpTargetObj->X >= 137 && lpTargetObj->X <= 144 && lpTargetObj->Y >= 124 && lpTargetObj->Y <= 131)
; 300  : 	if(lpTargetObj->MapNumber == 2 && lpTargetObj->X >= 144 && lpTargetObj->X <= 159 && lpTargetObj->Y >= 34 && lpTargetObj->Y <= 49)

  00d10	8b 45 f4	 mov	 eax, DWORD PTR _lpTargetObj$[ebp]
  00d13	0f b6 88 49 01
	00 00		 movzx	 ecx, BYTE PTR [eax+329]
  00d1a	83 f9 02	 cmp	 ecx, 2
  00d1d	75 4b		 jne	 SHORT $LN4@ReturnStat
  00d1f	8b 45 f4	 mov	 eax, DWORD PTR _lpTargetObj$[ebp]
  00d22	0f bf 88 44 01
	00 00		 movsx	 ecx, WORD PTR [eax+324]
  00d29	81 f9 90 00 00
	00		 cmp	 ecx, 144		; 00000090H
  00d2f	7c 39		 jl	 SHORT $LN4@ReturnStat
  00d31	8b 45 f4	 mov	 eax, DWORD PTR _lpTargetObj$[ebp]
  00d34	0f bf 88 44 01
	00 00		 movsx	 ecx, WORD PTR [eax+324]
  00d3b	81 f9 9f 00 00
	00		 cmp	 ecx, 159		; 0000009fH
  00d41	7f 27		 jg	 SHORT $LN4@ReturnStat
  00d43	8b 45 f4	 mov	 eax, DWORD PTR _lpTargetObj$[ebp]
  00d46	0f bf 88 46 01
	00 00		 movsx	 ecx, WORD PTR [eax+326]
  00d4d	83 f9 22	 cmp	 ecx, 34			; 00000022H
  00d50	7c 18		 jl	 SHORT $LN4@ReturnStat
  00d52	8b 45 f4	 mov	 eax, DWORD PTR _lpTargetObj$[ebp]
  00d55	0f bf 88 46 01
	00 00		 movsx	 ecx, WORD PTR [eax+326]
  00d5c	83 f9 31	 cmp	 ecx, 49			; 00000031H
  00d5f	7f 09		 jg	 SHORT $LN4@ReturnStat

; 301  : 	{
; 302  : 		return 6;

  00d61	b8 06 00 00 00	 mov	 eax, 6
  00d66	eb 66		 jmp	 SHORT $LN5@ReturnStat
  00d68	eb 64		 jmp	 SHORT $LN5@ReturnStat
$LN4@ReturnStat:

; 303  : 	}
; 304  : 	else if(lpObj->MapNumber == 2 && lpObj->X >= 144 && lpObj->X <= 159 && lpObj->Y >= 34 && lpObj->Y <= 49)

  00d6a	8b 45 f8	 mov	 eax, DWORD PTR _lpObj$[ebp]
  00d6d	0f b6 88 49 01
	00 00		 movzx	 ecx, BYTE PTR [eax+329]
  00d74	83 f9 02	 cmp	 ecx, 2
  00d77	75 4b		 jne	 SHORT $LN2@ReturnStat
  00d79	8b 45 f8	 mov	 eax, DWORD PTR _lpObj$[ebp]
  00d7c	0f bf 88 44 01
	00 00		 movsx	 ecx, WORD PTR [eax+324]
  00d83	81 f9 90 00 00
	00		 cmp	 ecx, 144		; 00000090H
  00d89	7c 39		 jl	 SHORT $LN2@ReturnStat
  00d8b	8b 45 f8	 mov	 eax, DWORD PTR _lpObj$[ebp]
  00d8e	0f bf 88 44 01
	00 00		 movsx	 ecx, WORD PTR [eax+324]
  00d95	81 f9 9f 00 00
	00		 cmp	 ecx, 159		; 0000009fH
  00d9b	7f 27		 jg	 SHORT $LN2@ReturnStat
  00d9d	8b 45 f8	 mov	 eax, DWORD PTR _lpObj$[ebp]
  00da0	0f bf 88 46 01
	00 00		 movsx	 ecx, WORD PTR [eax+326]
  00da7	83 f9 22	 cmp	 ecx, 34			; 00000022H
  00daa	7c 18		 jl	 SHORT $LN2@ReturnStat
  00dac	8b 45 f8	 mov	 eax, DWORD PTR _lpObj$[ebp]
  00daf	0f bf 88 46 01
	00 00		 movsx	 ecx, WORD PTR [eax+326]
  00db6	83 f9 31	 cmp	 ecx, 49			; 00000031H
  00db9	7f 09		 jg	 SHORT $LN2@ReturnStat

; 305  : 	{
; 306  : 		return 6;

  00dbb	b8 06 00 00 00	 mov	 eax, 6
  00dc0	eb 0c		 jmp	 SHORT $LN5@ReturnStat

; 307  : 	}
; 308  : 	/*
; 309  : 	if(lpTargetObj->MapNumber == 0 && lpTargetObj->X >= 118 && lpTargetObj->X <= 153 && lpTargetObj->Y >= 110 && lpTargetObj->Y <= 150)
; 310  : 	{
; 311  : 		return 6;
; 312  : 	}
; 313  : 	else if(lpObj->MapNumber == 0 && lpObj->X >= 118 && lpObj->X <= 153 && lpObj->Y >= 110 && lpObj->Y <= 150)
; 314  : 	{
; 315  : 		return 6;
; 316  : 	}
; 317  : 	*/
; 318  : 	else

  00dc2	eb 0a		 jmp	 SHORT $LN5@ReturnStat
$LN2@ReturnStat:

; 319  : 	{
; 320  : 		return (int)lpTargetObj->m_PK_Level;

  00dc4	8b 45 f4	 mov	 eax, DWORD PTR _lpTargetObj$[ebp]
  00dc7	0f be 80 3d 01
	00 00		 movsx	 eax, BYTE PTR [eax+317]
$LN5@ReturnStat:

; 321  : 	}
; 322  : 
; 323  : }

  00dce	5f		 pop	 edi
  00dcf	5e		 pop	 esi
  00dd0	5b		 pop	 ebx
  00dd1	8b e5		 mov	 esp, ebp
  00dd3	5d		 pop	 ebp
  00dd4	c2 08 00	 ret	 8
?ReturnStatus@CDeviasBattle@@QAEHHH@Z ENDP		; CDeviasBattle::ReturnStatus
_TEXT	ENDS
PUBLIC	?CheckStartEvent@CDeviasBattle@@QAE_NXZ		; CDeviasBattle::CheckStartEvent
; Function compile flags: /Odtp /ZI
_TEXT	SEGMENT
_this$ = -4						; size = 4
?CheckStartEvent@CDeviasBattle@@QAE_NXZ PROC		; CDeviasBattle::CheckStartEvent
; _this$ = ecx

; 326  : {

  00de0	55		 push	 ebp
  00de1	8b ec		 mov	 ebp, esp
  00de3	83 ec 44	 sub	 esp, 68			; 00000044H
  00de6	53		 push	 ebx
  00de7	56		 push	 esi
  00de8	57		 push	 edi
  00de9	89 4d fc	 mov	 DWORD PTR _this$[ebp], ecx

; 327  : 	if(!this->Enable || !this->Start)return false;

  00dec	8b 45 fc	 mov	 eax, DWORD PTR _this$[ebp]
  00def	83 38 00	 cmp	 DWORD PTR [eax], 0
  00df2	74 09		 je	 SHORT $LN1@CheckStart
  00df4	8b 45 fc	 mov	 eax, DWORD PTR _this$[ebp]
  00df7	83 78 04 00	 cmp	 DWORD PTR [eax+4], 0
  00dfb	75 04		 jne	 SHORT $LN2@CheckStart
$LN1@CheckStart:
  00dfd	32 c0		 xor	 al, al
  00dff	eb 02		 jmp	 SHORT $LN3@CheckStart
$LN2@CheckStart:

; 328  : 	return true;

  00e01	b0 01		 mov	 al, 1
$LN3@CheckStart:

; 329  : }

  00e03	5f		 pop	 edi
  00e04	5e		 pop	 esi
  00e05	5b		 pop	 ebx
  00e06	8b e5		 mov	 esp, ebp
  00e08	5d		 pop	 ebp
  00e09	c3		 ret	 0
?CheckStartEvent@CDeviasBattle@@QAE_NXZ ENDP		; CDeviasBattle::CheckStartEvent
_TEXT	ENDS
END
