; Listing generated by Microsoft (R) Optimizing Compiler Version 16.00.40219.01 

	TITLE	D:\Projects\ExTeam6.3\Source\GameServer\GameServer\DropEvent.cpp
	.686P
	.XMM
	include listing.inc
	.model	flat

INCLUDELIB LIBCMT
INCLUDELIB OLDNAMES

PUBLIC	?DropEvent@@3VcDropEvent@@A			; DropEvent
_BSS	SEGMENT
?DropEvent@@3VcDropEvent@@A DB 02cc8H DUP (?)		; DropEvent
_BSS	ENDS
PUBLIC	??_H@YGXPAXIHP6EPAX0@Z@Z			; `vector constructor iterator'
; Function compile flags: /Odtp /ZI
;	COMDAT ??_H@YGXPAXIHP6EPAX0@Z@Z
_TEXT	SEGMENT
___t$ = 8						; size = 4
___s$ = 12						; size = 4
___n$ = 16						; size = 4
___f$ = 20						; size = 4
??_H@YGXPAXIHP6EPAX0@Z@Z PROC				; `vector constructor iterator', COMDAT
  00000	55		 push	 ebp
  00001	8b ec		 mov	 ebp, esp
  00003	83 ec 40	 sub	 esp, 64			; 00000040H
  00006	53		 push	 ebx
  00007	56		 push	 esi
  00008	57		 push	 edi
$LN2@vector:
  00009	8b 45 10	 mov	 eax, DWORD PTR ___n$[ebp]
  0000c	83 e8 01	 sub	 eax, 1
  0000f	89 45 10	 mov	 DWORD PTR ___n$[ebp], eax
  00012	78 11		 js	 SHORT $LN3@vector
  00014	8b 4d 08	 mov	 ecx, DWORD PTR ___t$[ebp]
  00017	ff 55 14	 call	 DWORD PTR ___f$[ebp]
  0001a	8b 45 08	 mov	 eax, DWORD PTR ___t$[ebp]
  0001d	03 45 0c	 add	 eax, DWORD PTR ___s$[ebp]
  00020	89 45 08	 mov	 DWORD PTR ___t$[ebp], eax
  00023	eb e4		 jmp	 SHORT $LN2@vector
$LN3@vector:
  00025	5f		 pop	 edi
  00026	5e		 pop	 esi
  00027	5b		 pop	 ebx
  00028	8b e5		 mov	 esp, ebp
  0002a	5d		 pop	 ebp
  0002b	c2 10 00	 ret	 16			; 00000010H
??_H@YGXPAXIHP6EPAX0@Z@Z ENDP				; `vector constructor iterator'
_TEXT	ENDS
PUBLIC	??_C@_06POMJKEPM@Common?$AA@			; `string'
PUBLIC	??_C@_06CKGENIKG@Enable?$AA@			; `string'
PUBLIC	??_C@_0CE@NICHAOAN@?4?4?2Data?2ExData?2Events?2DropEvent?4@ ; `string'
PUBLIC	?LoadConfigs@cDropEvent@@QAEXXZ			; cDropEvent::LoadConfigs
EXTRN	__imp__GetPrivateProfileIntA@16:PROC
;	COMDAT ??_C@_06POMJKEPM@Common?$AA@
; File d:\projects\exteam6.3\source\gameserver\gameserver\dropevent.cpp
CONST	SEGMENT
??_C@_06POMJKEPM@Common?$AA@ DB 'Common', 00H		; `string'
CONST	ENDS
;	COMDAT ??_C@_06CKGENIKG@Enable?$AA@
CONST	SEGMENT
??_C@_06CKGENIKG@Enable?$AA@ DB 'Enable', 00H		; `string'
CONST	ENDS
;	COMDAT ??_C@_0CE@NICHAOAN@?4?4?2Data?2ExData?2Events?2DropEvent?4@
CONST	SEGMENT
??_C@_0CE@NICHAOAN@?4?4?2Data?2ExData?2Events?2DropEvent?4@ DB '..\Data\E'
	DB	'xData\Events\DropEvent.ini', 00H		; `string'
; Function compile flags: /Odtp /ZI
CONST	ENDS
_TEXT	SEGMENT
_f$220744 = -16						; size = 4
_j$220740 = -12						; size = 4
_i$220736 = -8						; size = 4
_this$ = -4						; size = 4
?LoadConfigs@cDropEvent@@QAEXXZ PROC			; cDropEvent::LoadConfigs
; _this$ = ecx

; 18   : {

  00000	55		 push	 ebp
  00001	8b ec		 mov	 ebp, esp
  00003	83 ec 50	 sub	 esp, 80			; 00000050H
  00006	53		 push	 ebx
  00007	56		 push	 esi
  00008	57		 push	 edi
  00009	89 4d fc	 mov	 DWORD PTR _this$[ebp], ecx

; 19   : 	Enable = GetPrivateProfileInt("Common","Enable",1,DROP_EVENT_DIR);

  0000c	68 00 00 00 00	 push	 OFFSET ??_C@_0CE@NICHAOAN@?4?4?2Data?2ExData?2Events?2DropEvent?4@
  00011	6a 01		 push	 1
  00013	68 00 00 00 00	 push	 OFFSET ??_C@_06CKGENIKG@Enable?$AA@
  00018	68 00 00 00 00	 push	 OFFSET ??_C@_06POMJKEPM@Common?$AA@
  0001d	ff 15 00 00 00
	00		 call	 DWORD PTR __imp__GetPrivateProfileIntA@16
  00023	8b 4d fc	 mov	 ecx, DWORD PTR _this$[ebp]
  00026	89 01		 mov	 DWORD PTR [ecx], eax

; 20   : 
; 21   : 	for(int i(0);i < DROP_EVENT_MAX; i++)

  00028	c7 45 f8 00 00
	00 00		 mov	 DWORD PTR _i$220736[ebp], 0
  0002f	eb 09		 jmp	 SHORT $LN9@LoadConfig
$LN8@LoadConfig:
  00031	8b 45 f8	 mov	 eax, DWORD PTR _i$220736[ebp]
  00034	83 c0 01	 add	 eax, 1
  00037	89 45 f8	 mov	 DWORD PTR _i$220736[ebp], eax
$LN9@LoadConfig:
  0003a	81 7d f8 00 01
	00 00		 cmp	 DWORD PTR _i$220736[ebp], 256 ; 00000100H
  00041	0f 8d 8d 00 00
	00		 jge	 $LN7@LoadConfig

; 22   : 	{
; 23   : 		Item[i].Index = 0;

  00047	8b 45 f8	 mov	 eax, DWORD PTR _i$220736[ebp]
  0004a	c1 e0 05	 shl	 eax, 5
  0004d	8b 4d fc	 mov	 ecx, DWORD PTR _this$[ebp]
  00050	c7 44 01 04 00
	00 00 00	 mov	 DWORD PTR [ecx+eax+4], 0

; 24   : 		Item[i].Type  = 0;

  00058	8b 45 f8	 mov	 eax, DWORD PTR _i$220736[ebp]
  0005b	c1 e0 05	 shl	 eax, 5
  0005e	8b 4d fc	 mov	 ecx, DWORD PTR _this$[ebp]
  00061	c7 44 01 08 00
	00 00 00	 mov	 DWORD PTR [ecx+eax+8], 0

; 25   : 		Item[i].Level = 0;

  00069	8b 45 f8	 mov	 eax, DWORD PTR _i$220736[ebp]
  0006c	c1 e0 05	 shl	 eax, 5
  0006f	8b 4d fc	 mov	 ecx, DWORD PTR _this$[ebp]
  00072	c7 44 01 0c 00
	00 00 00	 mov	 DWORD PTR [ecx+eax+12], 0

; 26   : 		Item[i].Skill = 0;

  0007a	8b 45 f8	 mov	 eax, DWORD PTR _i$220736[ebp]
  0007d	c1 e0 05	 shl	 eax, 5
  00080	8b 4d fc	 mov	 ecx, DWORD PTR _this$[ebp]
  00083	c7 44 01 10 00
	00 00 00	 mov	 DWORD PTR [ecx+eax+16], 0

; 27   : 		Item[i].Luck  = 0;

  0008b	8b 45 f8	 mov	 eax, DWORD PTR _i$220736[ebp]
  0008e	c1 e0 05	 shl	 eax, 5
  00091	8b 4d fc	 mov	 ecx, DWORD PTR _this$[ebp]
  00094	c7 44 01 14 00
	00 00 00	 mov	 DWORD PTR [ecx+eax+20], 0

; 28   : 		Item[i].Opt   = 0;

  0009c	8b 45 f8	 mov	 eax, DWORD PTR _i$220736[ebp]
  0009f	c1 e0 05	 shl	 eax, 5
  000a2	8b 4d fc	 mov	 ecx, DWORD PTR _this$[ebp]
  000a5	c7 44 01 18 00
	00 00 00	 mov	 DWORD PTR [ecx+eax+24], 0

; 29   : 		Item[i].Exl	  = 0;

  000ad	8b 45 f8	 mov	 eax, DWORD PTR _i$220736[ebp]
  000b0	c1 e0 05	 shl	 eax, 5
  000b3	8b 4d fc	 mov	 ecx, DWORD PTR _this$[ebp]
  000b6	c7 44 01 1c 00
	00 00 00	 mov	 DWORD PTR [ecx+eax+28], 0

; 30   : 		Item[i].Anc   = 0;

  000be	8b 45 f8	 mov	 eax, DWORD PTR _i$220736[ebp]
  000c1	c1 e0 05	 shl	 eax, 5
  000c4	8b 4d fc	 mov	 ecx, DWORD PTR _this$[ebp]
  000c7	c7 44 01 20 00
	00 00 00	 mov	 DWORD PTR [ecx+eax+32], 0

; 31   : 	}

  000cf	e9 5d ff ff ff	 jmp	 $LN8@LoadConfig
$LN7@LoadConfig:

; 32   : 
; 33   : 	for(int j(0);j < DROP_EVENT_MAX; j++)

  000d4	c7 45 f4 00 00
	00 00		 mov	 DWORD PTR _j$220740[ebp], 0
  000db	eb 09		 jmp	 SHORT $LN6@LoadConfig
$LN5@LoadConfig:
  000dd	8b 45 f4	 mov	 eax, DWORD PTR _j$220740[ebp]
  000e0	83 c0 01	 add	 eax, 1
  000e3	89 45 f4	 mov	 DWORD PTR _j$220740[ebp], eax
$LN6@LoadConfig:
  000e6	81 7d f4 00 01
	00 00		 cmp	 DWORD PTR _j$220740[ebp], 256 ; 00000100H
  000ed	7d 24		 jge	 SHORT $LN4@LoadConfig

; 34   : 	{
; 35   : 		Time[j].Hour  = 0;

  000ef	8b 45 f4	 mov	 eax, DWORD PTR _j$220740[ebp]
  000f2	8b 4d fc	 mov	 ecx, DWORD PTR _this$[ebp]
  000f5	c7 84 c1 04 20
	00 00 00 00 00
	00		 mov	 DWORD PTR [ecx+eax*8+8196], 0

; 36   : 		Time[j].Min   = 0;

  00100	8b 45 f4	 mov	 eax, DWORD PTR _j$220740[ebp]
  00103	8b 4d fc	 mov	 ecx, DWORD PTR _this$[ebp]
  00106	c7 84 c1 08 20
	00 00 00 00 00
	00		 mov	 DWORD PTR [ecx+eax*8+8200], 0

; 37   : 	}

  00111	eb ca		 jmp	 SHORT $LN5@LoadConfig
$LN4@LoadConfig:

; 38   : 
; 39   : 	for(int f=0;f<100;f++)

  00113	c7 45 f0 00 00
	00 00		 mov	 DWORD PTR _f$220744[ebp], 0
  0011a	eb 09		 jmp	 SHORT $LN3@LoadConfig
$LN2@LoadConfig:
  0011c	8b 45 f0	 mov	 eax, DWORD PTR _f$220744[ebp]
  0011f	83 c0 01	 add	 eax, 1
  00122	89 45 f0	 mov	 DWORD PTR _f$220744[ebp], eax
$LN3@LoadConfig:
  00125	83 7d f0 64	 cmp	 DWORD PTR _f$220744[ebp], 100 ; 00000064H
  00129	7d 3e		 jge	 SHORT $LN10@LoadConfig

; 40   : 	{
; 41   : 		Cord[f].Map	= 0;

  0012b	8b 45 f0	 mov	 eax, DWORD PTR _f$220744[ebp]
  0012e	6b c0 0c	 imul	 eax, 12			; 0000000cH
  00131	8b 4d fc	 mov	 ecx, DWORD PTR _this$[ebp]
  00134	c7 84 01 04 28
	00 00 00 00 00
	00		 mov	 DWORD PTR [ecx+eax+10244], 0

; 42   : 		Cord[f].X	= 0;

  0013f	8b 45 f0	 mov	 eax, DWORD PTR _f$220744[ebp]
  00142	6b c0 0c	 imul	 eax, 12			; 0000000cH
  00145	8b 4d fc	 mov	 ecx, DWORD PTR _this$[ebp]
  00148	c7 84 01 08 28
	00 00 00 00 00
	00		 mov	 DWORD PTR [ecx+eax+10248], 0

; 43   : 		Cord[f].Y	= 0;

  00153	8b 45 f0	 mov	 eax, DWORD PTR _f$220744[ebp]
  00156	6b c0 0c	 imul	 eax, 12			; 0000000cH
  00159	8b 4d fc	 mov	 ecx, DWORD PTR _this$[ebp]
  0015c	c7 84 01 0c 28
	00 00 00 00 00
	00		 mov	 DWORD PTR [ecx+eax+10252], 0

; 44   : 	}

  00167	eb b3		 jmp	 SHORT $LN2@LoadConfig
$LN10@LoadConfig:

; 45   : }

  00169	5f		 pop	 edi
  0016a	5e		 pop	 esi
  0016b	5b		 pop	 ebx
  0016c	8b e5		 mov	 esp, ebp
  0016e	5d		 pop	 ebp
  0016f	c3		 ret	 0
?LoadConfigs@cDropEvent@@QAEXXZ ENDP			; cDropEvent::LoadConfigs
_TEXT	ENDS
PUBLIC	??_C@_08OOHKHLPO@?$CFd?5?$CFd?5?$CFd?$AA@	; `string'
PUBLIC	??_C@_05OKMLJOMC@?$CFd?5?$CFd?$AA@		; `string'
PUBLIC	??_C@_0BI@HDMMBKBM@?$CFd?5?$CFd?5?$CFd?5?$CFd?5?$CFd?5?$CFd?5?$CFd?5?$CFd?$AA@ ; `string'
PUBLIC	??_C@_0BA@PIOFNAIM@LOAD?5FILE?5ERROR?$AA@	; `string'
PUBLIC	??_C@_01KDCPPGHE@r?$AA@				; `string'
PUBLIC	__$ArrayPad$
PUBLIC	?LoadFile@cDropEvent@@QAEXXZ			; cDropEvent::LoadFile
EXTRN	_fclose:PROC
EXTRN	_sscanf:PROC
EXTRN	?Ex_IsBadFileLine@@YA_NPADAAH@Z:PROC		; Ex_IsBadFileLine
EXTRN	_fgets:PROC
EXTRN	_feof:PROC
EXTRN	__imp__ExitProcess@4:PROC
EXTRN	__imp__MessageBoxA@16:PROC
EXTRN	_fopen:PROC
EXTRN	___security_cookie:DWORD
EXTRN	@__security_check_cookie@4:PROC
;	COMDAT ??_C@_08OOHKHLPO@?$CFd?5?$CFd?5?$CFd?$AA@
CONST	SEGMENT
??_C@_08OOHKHLPO@?$CFd?5?$CFd?5?$CFd?$AA@ DB '%d %d %d', 00H ; `string'
CONST	ENDS
;	COMDAT ??_C@_05OKMLJOMC@?$CFd?5?$CFd?$AA@
CONST	SEGMENT
??_C@_05OKMLJOMC@?$CFd?5?$CFd?$AA@ DB '%d %d', 00H	; `string'
CONST	ENDS
;	COMDAT ??_C@_0BI@HDMMBKBM@?$CFd?5?$CFd?5?$CFd?5?$CFd?5?$CFd?5?$CFd?5?$CFd?5?$CFd?$AA@
CONST	SEGMENT
??_C@_0BI@HDMMBKBM@?$CFd?5?$CFd?5?$CFd?5?$CFd?5?$CFd?5?$CFd?5?$CFd?5?$CFd?$AA@ DB '%'
	DB	'd %d %d %d %d %d %d %d', 00H		; `string'
CONST	ENDS
;	COMDAT ??_C@_0BA@PIOFNAIM@LOAD?5FILE?5ERROR?$AA@
CONST	SEGMENT
??_C@_0BA@PIOFNAIM@LOAD?5FILE?5ERROR?$AA@ DB 'LOAD FILE ERROR', 00H ; `string'
CONST	ENDS
;	COMDAT ??_C@_01KDCPPGHE@r?$AA@
CONST	SEGMENT
??_C@_01KDCPPGHE@r?$AA@ DB 'r', 00H			; `string'
; Function compile flags: /Odtp /ZI
CONST	ENDS
_TEXT	SEGMENT
_n$220768 = -340					; size = 16
_n$220765 = -324					; size = 12
_n$220762 = -312					; size = 40
_Flag$ = -272						; size = 4
_Buff$ = -268						; size = 256
_file$ = -12						; size = 4
_this$ = -8						; size = 4
__$ArrayPad$ = -4					; size = 4
?LoadFile@cDropEvent@@QAEXXZ PROC			; cDropEvent::LoadFile
; _this$ = ecx

; 48   : {

  00170	55		 push	 ebp
  00171	8b ec		 mov	 ebp, esp
  00173	81 ec 94 01 00
	00		 sub	 esp, 404		; 00000194H
  00179	a1 00 00 00 00	 mov	 eax, DWORD PTR ___security_cookie
  0017e	33 c5		 xor	 eax, ebp
  00180	89 45 fc	 mov	 DWORD PTR __$ArrayPad$[ebp], eax
  00183	53		 push	 ebx
  00184	56		 push	 esi
  00185	57		 push	 edi
  00186	89 4d f8	 mov	 DWORD PTR _this$[ebp], ecx

; 49   : 	LoadConfigs();

  00189	8b 4d f8	 mov	 ecx, DWORD PTR _this$[ebp]
  0018c	e8 00 00 00 00	 call	 ?LoadConfigs@cDropEvent@@QAEXXZ ; cDropEvent::LoadConfigs

; 50   : 
; 51   : 	
; 52   : 
; 53   : 	FILE *file = fopen(DROP_EVENT_DIR,"r");

  00191	68 00 00 00 00	 push	 OFFSET ??_C@_01KDCPPGHE@r?$AA@
  00196	68 00 00 00 00	 push	 OFFSET ??_C@_0CE@NICHAOAN@?4?4?2Data?2ExData?2Events?2DropEvent?4@
  0019b	e8 00 00 00 00	 call	 _fopen
  001a0	83 c4 08	 add	 esp, 8
  001a3	89 45 f4	 mov	 DWORD PTR _file$[ebp], eax

; 54   : 
; 55   : 	if(file == NULL)

  001a6	83 7d f4 00	 cmp	 DWORD PTR _file$[ebp], 0
  001aa	75 21		 jne	 SHORT $LN7@LoadFile

; 56   : 	{
; 57   : 		MessageBoxA(0,DROP_EVENT_DIR,"LOAD FILE ERROR",0);

  001ac	6a 00		 push	 0
  001ae	68 00 00 00 00	 push	 OFFSET ??_C@_0BA@PIOFNAIM@LOAD?5FILE?5ERROR?$AA@
  001b3	68 00 00 00 00	 push	 OFFSET ??_C@_0CE@NICHAOAN@?4?4?2Data?2ExData?2Events?2DropEvent?4@
  001b8	6a 00		 push	 0
  001ba	ff 15 00 00 00
	00		 call	 DWORD PTR __imp__MessageBoxA@16

; 58   : 		ExitProcess(1);

  001c0	6a 01		 push	 1
  001c2	ff 15 00 00 00
	00		 call	 DWORD PTR __imp__ExitProcess@4

; 59   : 		return;

  001c8	e9 d4 02 00 00	 jmp	 $LN9@LoadFile
$LN7@LoadFile:

; 60   : 	}
; 61   : 
; 62   : 	char Buff[256];
; 63   : 	int Flag = 0;

  001cd	c7 85 f0 fe ff
	ff 00 00 00 00	 mov	 DWORD PTR _Flag$[ebp], 0

; 64   : 
; 65   : 	Count[1] = 0;

  001d7	8b 45 f8	 mov	 eax, DWORD PTR _this$[ebp]
  001da	c7 80 b8 2c 00
	00 00 00 00 00	 mov	 DWORD PTR [eax+11448], 0

; 66   : 	Count[2] = 0;

  001e4	8b 45 f8	 mov	 eax, DWORD PTR _this$[ebp]
  001e7	c7 80 bc 2c 00
	00 00 00 00 00	 mov	 DWORD PTR [eax+11452], 0

; 67   : 	Count[3] = 0;

  001f1	8b 45 f8	 mov	 eax, DWORD PTR _this$[ebp]
  001f4	c7 80 c0 2c 00
	00 00 00 00 00	 mov	 DWORD PTR [eax+11456], 0
$LN6@LoadFile:

; 68   : 
; 69   : 	while(!feof(file)) // Проверяем есть ли строка в документе

  001fe	8b 45 f4	 mov	 eax, DWORD PTR _file$[ebp]
  00201	50		 push	 eax
  00202	e8 00 00 00 00	 call	 _feof
  00207	83 c4 04	 add	 esp, 4
  0020a	85 c0		 test	 eax, eax
  0020c	0f 85 83 02 00
	00		 jne	 $LN5@LoadFile

; 70   : 	{
; 71   : 		fgets(Buff,256,file);//Функция читает текущую строку

  00212	8b 45 f4	 mov	 eax, DWORD PTR _file$[ebp]
  00215	50		 push	 eax
  00216	68 00 01 00 00	 push	 256			; 00000100H
  0021b	8d 8d f4 fe ff
	ff		 lea	 ecx, DWORD PTR _Buff$[ebp]
  00221	51		 push	 ecx
  00222	e8 00 00 00 00	 call	 _fgets
  00227	83 c4 0c	 add	 esp, 12			; 0000000cH

; 72   : 		if(Ex_IsBadFileLine(Buff, Flag)) //Вспомогательная функция

  0022a	8d 85 f0 fe ff
	ff		 lea	 eax, DWORD PTR _Flag$[ebp]
  00230	50		 push	 eax
  00231	8d 8d f4 fe ff
	ff		 lea	 ecx, DWORD PTR _Buff$[ebp]
  00237	51		 push	 ecx
  00238	e8 00 00 00 00	 call	 ?Ex_IsBadFileLine@@YA_NPADAAH@Z ; Ex_IsBadFileLine
  0023d	83 c4 08	 add	 esp, 8
  00240	0f b6 d0	 movzx	 edx, al
  00243	85 d2		 test	 edx, edx
  00245	74 02		 je	 SHORT $LN4@LoadFile

; 73   : 			continue;

  00247	eb b5		 jmp	 SHORT $LN6@LoadFile
$LN4@LoadFile:

; 74   : 		if(Flag == 1)

  00249	83 bd f0 fe ff
	ff 01		 cmp	 DWORD PTR _Flag$[ebp], 1
  00250	0f 85 29 01 00
	00		 jne	 $LN3@LoadFile

; 75   : 		{
; 76   : 			int n[10];
; 77   : 			sscanf(Buff, "%d %d %d %d %d %d %d %d", &n[0], &n[1], &n[2], &n[3], &n[4], &n[5], &n[6], &n[7]);

  00256	8d 85 e4 fe ff
	ff		 lea	 eax, DWORD PTR _n$220762[ebp+28]
  0025c	50		 push	 eax
  0025d	8d 8d e0 fe ff
	ff		 lea	 ecx, DWORD PTR _n$220762[ebp+24]
  00263	51		 push	 ecx
  00264	8d 95 dc fe ff
	ff		 lea	 edx, DWORD PTR _n$220762[ebp+20]
  0026a	52		 push	 edx
  0026b	8d 85 d8 fe ff
	ff		 lea	 eax, DWORD PTR _n$220762[ebp+16]
  00271	50		 push	 eax
  00272	8d 8d d4 fe ff
	ff		 lea	 ecx, DWORD PTR _n$220762[ebp+12]
  00278	51		 push	 ecx
  00279	8d 95 d0 fe ff
	ff		 lea	 edx, DWORD PTR _n$220762[ebp+8]
  0027f	52		 push	 edx
  00280	8d 85 cc fe ff
	ff		 lea	 eax, DWORD PTR _n$220762[ebp+4]
  00286	50		 push	 eax
  00287	8d 8d c8 fe ff
	ff		 lea	 ecx, DWORD PTR _n$220762[ebp]
  0028d	51		 push	 ecx
  0028e	68 00 00 00 00	 push	 OFFSET ??_C@_0BI@HDMMBKBM@?$CFd?5?$CFd?5?$CFd?5?$CFd?5?$CFd?5?$CFd?5?$CFd?5?$CFd?$AA@
  00293	8d 95 f4 fe ff
	ff		 lea	 edx, DWORD PTR _Buff$[ebp]
  00299	52		 push	 edx
  0029a	e8 00 00 00 00	 call	 _sscanf
  0029f	83 c4 28	 add	 esp, 40			; 00000028H

; 78   : 
; 79   : 			Item[Count[1]].Type  = n[0];

  002a2	8b 45 f8	 mov	 eax, DWORD PTR _this$[ebp]
  002a5	8b 88 b8 2c 00
	00		 mov	 ecx, DWORD PTR [eax+11448]
  002ab	c1 e1 05	 shl	 ecx, 5
  002ae	8b 55 f8	 mov	 edx, DWORD PTR _this$[ebp]
  002b1	8b 85 c8 fe ff
	ff		 mov	 eax, DWORD PTR _n$220762[ebp]
  002b7	89 44 0a 08	 mov	 DWORD PTR [edx+ecx+8], eax

; 80   : 			Item[Count[1]].Index = n[1];

  002bb	8b 45 f8	 mov	 eax, DWORD PTR _this$[ebp]
  002be	8b 88 b8 2c 00
	00		 mov	 ecx, DWORD PTR [eax+11448]
  002c4	c1 e1 05	 shl	 ecx, 5
  002c7	8b 55 f8	 mov	 edx, DWORD PTR _this$[ebp]
  002ca	8b 85 cc fe ff
	ff		 mov	 eax, DWORD PTR _n$220762[ebp+4]
  002d0	89 44 0a 04	 mov	 DWORD PTR [edx+ecx+4], eax

; 81   : 			Item[Count[1]].Level = n[2];

  002d4	8b 45 f8	 mov	 eax, DWORD PTR _this$[ebp]
  002d7	8b 88 b8 2c 00
	00		 mov	 ecx, DWORD PTR [eax+11448]
  002dd	c1 e1 05	 shl	 ecx, 5
  002e0	8b 55 f8	 mov	 edx, DWORD PTR _this$[ebp]
  002e3	8b 85 d0 fe ff
	ff		 mov	 eax, DWORD PTR _n$220762[ebp+8]
  002e9	89 44 0a 0c	 mov	 DWORD PTR [edx+ecx+12], eax

; 82   : 			Item[Count[1]].Skill = n[3];

  002ed	8b 45 f8	 mov	 eax, DWORD PTR _this$[ebp]
  002f0	8b 88 b8 2c 00
	00		 mov	 ecx, DWORD PTR [eax+11448]
  002f6	c1 e1 05	 shl	 ecx, 5
  002f9	8b 55 f8	 mov	 edx, DWORD PTR _this$[ebp]
  002fc	8b 85 d4 fe ff
	ff		 mov	 eax, DWORD PTR _n$220762[ebp+12]
  00302	89 44 0a 10	 mov	 DWORD PTR [edx+ecx+16], eax

; 83   : 			Item[Count[1]].Luck  = n[4];

  00306	8b 45 f8	 mov	 eax, DWORD PTR _this$[ebp]
  00309	8b 88 b8 2c 00
	00		 mov	 ecx, DWORD PTR [eax+11448]
  0030f	c1 e1 05	 shl	 ecx, 5
  00312	8b 55 f8	 mov	 edx, DWORD PTR _this$[ebp]
  00315	8b 85 d8 fe ff
	ff		 mov	 eax, DWORD PTR _n$220762[ebp+16]
  0031b	89 44 0a 14	 mov	 DWORD PTR [edx+ecx+20], eax

; 84   : 			Item[Count[1]].Opt   = n[5];

  0031f	8b 45 f8	 mov	 eax, DWORD PTR _this$[ebp]
  00322	8b 88 b8 2c 00
	00		 mov	 ecx, DWORD PTR [eax+11448]
  00328	c1 e1 05	 shl	 ecx, 5
  0032b	8b 55 f8	 mov	 edx, DWORD PTR _this$[ebp]
  0032e	8b 85 dc fe ff
	ff		 mov	 eax, DWORD PTR _n$220762[ebp+20]
  00334	89 44 0a 18	 mov	 DWORD PTR [edx+ecx+24], eax

; 85   : 			Item[Count[1]].Exl	 = n[6];

  00338	8b 45 f8	 mov	 eax, DWORD PTR _this$[ebp]
  0033b	8b 88 b8 2c 00
	00		 mov	 ecx, DWORD PTR [eax+11448]
  00341	c1 e1 05	 shl	 ecx, 5
  00344	8b 55 f8	 mov	 edx, DWORD PTR _this$[ebp]
  00347	8b 85 e0 fe ff
	ff		 mov	 eax, DWORD PTR _n$220762[ebp+24]
  0034d	89 44 0a 1c	 mov	 DWORD PTR [edx+ecx+28], eax

; 86   : 			Item[Count[1]].Anc   = n[7];

  00351	8b 45 f8	 mov	 eax, DWORD PTR _this$[ebp]
  00354	8b 88 b8 2c 00
	00		 mov	 ecx, DWORD PTR [eax+11448]
  0035a	c1 e1 05	 shl	 ecx, 5
  0035d	8b 55 f8	 mov	 edx, DWORD PTR _this$[ebp]
  00360	8b 85 e4 fe ff
	ff		 mov	 eax, DWORD PTR _n$220762[ebp+28]
  00366	89 44 0a 20	 mov	 DWORD PTR [edx+ecx+32], eax

; 87   : 			Count[1]++;

  0036a	8b 45 f8	 mov	 eax, DWORD PTR _this$[ebp]
  0036d	8b 88 b8 2c 00
	00		 mov	 ecx, DWORD PTR [eax+11448]
  00373	83 c1 01	 add	 ecx, 1
  00376	8b 55 f8	 mov	 edx, DWORD PTR _this$[ebp]
  00379	89 8a b8 2c 00
	00		 mov	 DWORD PTR [edx+11448], ecx
$LN3@LoadFile:

; 88   : 		}
; 89   : 
; 90   : 		if(Flag == 2)

  0037f	83 bd f0 fe ff
	ff 02		 cmp	 DWORD PTR _Flag$[ebp], 2
  00386	75 69		 jne	 SHORT $LN2@LoadFile

; 91   : 		{
; 92   : 			int n[3];
; 93   : 			sscanf(Buff, "%d %d", &n[0], &n[1]);

  00388	8d 85 c0 fe ff
	ff		 lea	 eax, DWORD PTR _n$220765[ebp+4]
  0038e	50		 push	 eax
  0038f	8d 8d bc fe ff
	ff		 lea	 ecx, DWORD PTR _n$220765[ebp]
  00395	51		 push	 ecx
  00396	68 00 00 00 00	 push	 OFFSET ??_C@_05OKMLJOMC@?$CFd?5?$CFd?$AA@
  0039b	8d 95 f4 fe ff
	ff		 lea	 edx, DWORD PTR _Buff$[ebp]
  003a1	52		 push	 edx
  003a2	e8 00 00 00 00	 call	 _sscanf
  003a7	83 c4 10	 add	 esp, 16			; 00000010H

; 94   : 			Time[Count[2]].Hour  = n[0];

  003aa	8b 45 f8	 mov	 eax, DWORD PTR _this$[ebp]
  003ad	8b 88 bc 2c 00
	00		 mov	 ecx, DWORD PTR [eax+11452]
  003b3	8b 55 f8	 mov	 edx, DWORD PTR _this$[ebp]
  003b6	8b 85 bc fe ff
	ff		 mov	 eax, DWORD PTR _n$220765[ebp]
  003bc	89 84 ca 04 20
	00 00		 mov	 DWORD PTR [edx+ecx*8+8196], eax

; 95   : 			Time[Count[2]].Min   = n[1];

  003c3	8b 45 f8	 mov	 eax, DWORD PTR _this$[ebp]
  003c6	8b 88 bc 2c 00
	00		 mov	 ecx, DWORD PTR [eax+11452]
  003cc	8b 55 f8	 mov	 edx, DWORD PTR _this$[ebp]
  003cf	8b 85 c0 fe ff
	ff		 mov	 eax, DWORD PTR _n$220765[ebp+4]
  003d5	89 84 ca 08 20
	00 00		 mov	 DWORD PTR [edx+ecx*8+8200], eax

; 96   : 			Count[2]++;

  003dc	8b 45 f8	 mov	 eax, DWORD PTR _this$[ebp]
  003df	8b 88 bc 2c 00
	00		 mov	 ecx, DWORD PTR [eax+11452]
  003e5	83 c1 01	 add	 ecx, 1
  003e8	8b 55 f8	 mov	 edx, DWORD PTR _this$[ebp]
  003eb	89 8a bc 2c 00
	00		 mov	 DWORD PTR [edx+11452], ecx
$LN2@LoadFile:

; 97   : 		}
; 98   : 
; 99   : 		if(Flag == 3)

  003f1	83 bd f0 fe ff
	ff 03		 cmp	 DWORD PTR _Flag$[ebp], 3
  003f8	0f 85 92 00 00
	00		 jne	 $LN1@LoadFile

; 100  : 		{
; 101  : 			int n[4];
; 102  : 			sscanf(Buff, "%d %d %d", &n[0], &n[1], &n[2]);

  003fe	8d 85 b4 fe ff
	ff		 lea	 eax, DWORD PTR _n$220768[ebp+8]
  00404	50		 push	 eax
  00405	8d 8d b0 fe ff
	ff		 lea	 ecx, DWORD PTR _n$220768[ebp+4]
  0040b	51		 push	 ecx
  0040c	8d 95 ac fe ff
	ff		 lea	 edx, DWORD PTR _n$220768[ebp]
  00412	52		 push	 edx
  00413	68 00 00 00 00	 push	 OFFSET ??_C@_08OOHKHLPO@?$CFd?5?$CFd?5?$CFd?$AA@
  00418	8d 85 f4 fe ff
	ff		 lea	 eax, DWORD PTR _Buff$[ebp]
  0041e	50		 push	 eax
  0041f	e8 00 00 00 00	 call	 _sscanf
  00424	83 c4 14	 add	 esp, 20			; 00000014H

; 103  : 			Cord[Count[3]].Map  = n[0];

  00427	8b 45 f8	 mov	 eax, DWORD PTR _this$[ebp]
  0042a	8b 88 c0 2c 00
	00		 mov	 ecx, DWORD PTR [eax+11456]
  00430	6b c9 0c	 imul	 ecx, 12			; 0000000cH
  00433	8b 55 f8	 mov	 edx, DWORD PTR _this$[ebp]
  00436	8b 85 ac fe ff
	ff		 mov	 eax, DWORD PTR _n$220768[ebp]
  0043c	89 84 0a 04 28
	00 00		 mov	 DWORD PTR [edx+ecx+10244], eax

; 104  : 			Cord[Count[3]].X	= n[1];

  00443	8b 45 f8	 mov	 eax, DWORD PTR _this$[ebp]
  00446	8b 88 c0 2c 00
	00		 mov	 ecx, DWORD PTR [eax+11456]
  0044c	6b c9 0c	 imul	 ecx, 12			; 0000000cH
  0044f	8b 55 f8	 mov	 edx, DWORD PTR _this$[ebp]
  00452	8b 85 b0 fe ff
	ff		 mov	 eax, DWORD PTR _n$220768[ebp+4]
  00458	89 84 0a 08 28
	00 00		 mov	 DWORD PTR [edx+ecx+10248], eax

; 105  : 			Cord[Count[3]].Y	= n[2];

  0045f	8b 45 f8	 mov	 eax, DWORD PTR _this$[ebp]
  00462	8b 88 c0 2c 00
	00		 mov	 ecx, DWORD PTR [eax+11456]
  00468	6b c9 0c	 imul	 ecx, 12			; 0000000cH
  0046b	8b 55 f8	 mov	 edx, DWORD PTR _this$[ebp]
  0046e	8b 85 b4 fe ff
	ff		 mov	 eax, DWORD PTR _n$220768[ebp+8]
  00474	89 84 0a 0c 28
	00 00		 mov	 DWORD PTR [edx+ecx+10252], eax

; 106  : 			Count[3]++;

  0047b	8b 45 f8	 mov	 eax, DWORD PTR _this$[ebp]
  0047e	8b 88 c0 2c 00
	00		 mov	 ecx, DWORD PTR [eax+11456]
  00484	83 c1 01	 add	 ecx, 1
  00487	8b 55 f8	 mov	 edx, DWORD PTR _this$[ebp]
  0048a	89 8a c0 2c 00
	00		 mov	 DWORD PTR [edx+11456], ecx
$LN1@LoadFile:

; 107  : 		}
; 108  : 	}

  00490	e9 69 fd ff ff	 jmp	 $LN6@LoadFile
$LN5@LoadFile:

; 109  : 	fclose(file);

  00495	8b 45 f4	 mov	 eax, DWORD PTR _file$[ebp]
  00498	50		 push	 eax
  00499	e8 00 00 00 00	 call	 _fclose
  0049e	83 c4 04	 add	 esp, 4
$LN9@LoadFile:

; 110  : }

  004a1	5f		 pop	 edi
  004a2	5e		 pop	 esi
  004a3	5b		 pop	 ebx
  004a4	8b 4d fc	 mov	 ecx, DWORD PTR __$ArrayPad$[ebp]
  004a7	33 cd		 xor	 ecx, ebp
  004a9	e8 00 00 00 00	 call	 @__security_check_cookie@4
  004ae	8b e5		 mov	 esp, ebp
  004b0	5d		 pop	 ebp
  004b1	c3		 ret	 0
?LoadFile@cDropEvent@@QAEXXZ ENDP			; cDropEvent::LoadFile
_TEXT	ENDS
PUBLIC	?StartEvent@cDropEvent@@QAEXXZ			; cDropEvent::StartEvent
EXTRN	?ItemSerialCreateSend@@YAXHEEEHEEEEEHEE@Z:PROC	; ItemSerialCreateSend
EXTRN	?GenExcOpt@@YAHH@Z:PROC				; GenExcOpt
EXTRN	_rand:PROC
EXTRN	?MessaageAllGlobal@@YAXPADZZ:PROC		; MessaageAllGlobal
EXTRN	?GetText@CExText@@QAEPADH@Z:PROC		; CExText::GetText
EXTRN	?g_ExText@@3VCExText@@A:BYTE			; g_ExText
; Function compile flags: /Odtp /ZI
_TEXT	SEGMENT
_CordY$220786 = -36					; size = 4
_CordX$220785 = -32					; size = 4
_CordMap$220784 = -28					; size = 4
_DropItem$220780 = -24					; size = 4
_NewAnc$220779 = -20					; size = 4
_NewExl$220778 = -16					; size = 4
_Ran$220777 = -12					; size = 4
_i$220773 = -8						; size = 4
_this$ = -4						; size = 4
?StartEvent@cDropEvent@@QAEXXZ PROC			; cDropEvent::StartEvent
; _this$ = ecx

; 112  : {

  004c0	55		 push	 ebp
  004c1	8b ec		 mov	 ebp, esp
  004c3	83 ec 64	 sub	 esp, 100		; 00000064H
  004c6	53		 push	 ebx
  004c7	56		 push	 esi
  004c8	57		 push	 edi
  004c9	89 4d fc	 mov	 DWORD PTR _this$[ebp], ecx

; 113  : 	MessaageAllGlobal(g_ExText.GetText(254));

  004cc	68 fe 00 00 00	 push	 254			; 000000feH
  004d1	b9 00 00 00 00	 mov	 ecx, OFFSET ?g_ExText@@3VCExText@@A ; g_ExText
  004d6	e8 00 00 00 00	 call	 ?GetText@CExText@@QAEPADH@Z ; CExText::GetText
  004db	50		 push	 eax
  004dc	e8 00 00 00 00	 call	 ?MessaageAllGlobal@@YAXPADZZ ; MessaageAllGlobal
  004e1	83 c4 04	 add	 esp, 4

; 114  : 	for(int i=0;i<Count[3];i++)

  004e4	c7 45 f8 00 00
	00 00		 mov	 DWORD PTR _i$220773[ebp], 0
  004eb	eb 09		 jmp	 SHORT $LN6@StartEvent
$LN5@StartEvent:
  004ed	8b 45 f8	 mov	 eax, DWORD PTR _i$220773[ebp]
  004f0	83 c0 01	 add	 eax, 1
  004f3	89 45 f8	 mov	 DWORD PTR _i$220773[ebp], eax
$LN6@StartEvent:
  004f6	8b 45 fc	 mov	 eax, DWORD PTR _this$[ebp]
  004f9	8b 4d f8	 mov	 ecx, DWORD PTR _i$220773[ebp]
  004fc	3b 88 c0 2c 00
	00		 cmp	 ecx, DWORD PTR [eax+11456]
  00502	0f 8d 3e 01 00
	00		 jge	 $LN7@StartEvent

; 115  : 	{
; 116  : 		int Ran = rand()%Count[1];

  00508	e8 00 00 00 00	 call	 _rand
  0050d	8b 4d fc	 mov	 ecx, DWORD PTR _this$[ebp]
  00510	99		 cdq
  00511	f7 b9 b8 2c 00
	00		 idiv	 DWORD PTR [ecx+11448]
  00517	89 55 f4	 mov	 DWORD PTR _Ran$220777[ebp], edx

; 117  : 
; 118  : 		int NewExl = 0;

  0051a	c7 45 f0 00 00
	00 00		 mov	 DWORD PTR _NewExl$220778[ebp], 0

; 119  : 		int NewAnc = 0;

  00521	c7 45 ec 00 00
	00 00		 mov	 DWORD PTR _NewAnc$220779[ebp], 0

; 120  : 
; 121  : 		int DropItem = ITEMGET(Item[Ran].Type,Item[Ran].Index);

  00528	8b 45 f4	 mov	 eax, DWORD PTR _Ran$220777[ebp]
  0052b	c1 e0 05	 shl	 eax, 5
  0052e	8b 4d fc	 mov	 ecx, DWORD PTR _this$[ebp]
  00531	8b 54 01 08	 mov	 edx, DWORD PTR [ecx+eax+8]
  00535	c1 e2 09	 shl	 edx, 9
  00538	8b 45 f4	 mov	 eax, DWORD PTR _Ran$220777[ebp]
  0053b	c1 e0 05	 shl	 eax, 5
  0053e	8b 4d fc	 mov	 ecx, DWORD PTR _this$[ebp]
  00541	03 54 01 04	 add	 edx, DWORD PTR [ecx+eax+4]
  00545	89 55 e8	 mov	 DWORD PTR _DropItem$220780[ebp], edx

; 122  : 
; 123  : 		if(Item[Ran].Exl > 0)

  00548	8b 45 f4	 mov	 eax, DWORD PTR _Ran$220777[ebp]
  0054b	c1 e0 05	 shl	 eax, 5
  0054e	8b 4d fc	 mov	 ecx, DWORD PTR _this$[ebp]
  00551	83 7c 01 1c 00	 cmp	 DWORD PTR [ecx+eax+28], 0
  00556	7e 19		 jle	 SHORT $LN3@StartEvent

; 124  : 			NewExl = GenExcOpt(Item[Ran].Exl);

  00558	8b 45 f4	 mov	 eax, DWORD PTR _Ran$220777[ebp]
  0055b	c1 e0 05	 shl	 eax, 5
  0055e	8b 4d fc	 mov	 ecx, DWORD PTR _this$[ebp]
  00561	8b 54 01 1c	 mov	 edx, DWORD PTR [ecx+eax+28]
  00565	52		 push	 edx
  00566	e8 00 00 00 00	 call	 ?GenExcOpt@@YAHH@Z	; GenExcOpt
  0056b	83 c4 04	 add	 esp, 4
  0056e	89 45 f0	 mov	 DWORD PTR _NewExl$220778[ebp], eax
$LN3@StartEvent:

; 125  : 
; 126  : 		if(Item[Ran].Anc == 5 || Item[Ran].Anc == 10)

  00571	8b 45 f4	 mov	 eax, DWORD PTR _Ran$220777[ebp]
  00574	c1 e0 05	 shl	 eax, 5
  00577	8b 4d fc	 mov	 ecx, DWORD PTR _this$[ebp]
  0057a	83 7c 01 20 05	 cmp	 DWORD PTR [ecx+eax+32], 5
  0057f	74 10		 je	 SHORT $LN1@StartEvent
  00581	8b 45 f4	 mov	 eax, DWORD PTR _Ran$220777[ebp]
  00584	c1 e0 05	 shl	 eax, 5
  00587	8b 4d fc	 mov	 ecx, DWORD PTR _this$[ebp]
  0058a	83 7c 01 20 0a	 cmp	 DWORD PTR [ecx+eax+32], 10 ; 0000000aH
  0058f	75 10		 jne	 SHORT $LN2@StartEvent
$LN1@StartEvent:

; 127  : 			NewAnc = Item[Ran].Anc;

  00591	8b 45 f4	 mov	 eax, DWORD PTR _Ran$220777[ebp]
  00594	c1 e0 05	 shl	 eax, 5
  00597	8b 4d fc	 mov	 ecx, DWORD PTR _this$[ebp]
  0059a	8b 54 01 20	 mov	 edx, DWORD PTR [ecx+eax+32]
  0059e	89 55 ec	 mov	 DWORD PTR _NewAnc$220779[ebp], edx
$LN2@StartEvent:

; 128  : 
; 129  : 		int CordMap = Cord[i].Map;

  005a1	8b 45 f8	 mov	 eax, DWORD PTR _i$220773[ebp]
  005a4	6b c0 0c	 imul	 eax, 12			; 0000000cH
  005a7	8b 4d fc	 mov	 ecx, DWORD PTR _this$[ebp]
  005aa	8b 94 01 04 28
	00 00		 mov	 edx, DWORD PTR [ecx+eax+10244]
  005b1	89 55 e4	 mov	 DWORD PTR _CordMap$220784[ebp], edx

; 130  : 		int CordX = Cord[i].X;

  005b4	8b 45 f8	 mov	 eax, DWORD PTR _i$220773[ebp]
  005b7	6b c0 0c	 imul	 eax, 12			; 0000000cH
  005ba	8b 4d fc	 mov	 ecx, DWORD PTR _this$[ebp]
  005bd	8b 94 01 08 28
	00 00		 mov	 edx, DWORD PTR [ecx+eax+10248]
  005c4	89 55 e0	 mov	 DWORD PTR _CordX$220785[ebp], edx

; 131  : 		int CordY = Cord[i].Y;

  005c7	8b 45 f8	 mov	 eax, DWORD PTR _i$220773[ebp]
  005ca	6b c0 0c	 imul	 eax, 12			; 0000000cH
  005cd	8b 4d fc	 mov	 ecx, DWORD PTR _this$[ebp]
  005d0	8b 94 01 0c 28
	00 00		 mov	 edx, DWORD PTR [ecx+eax+10252]
  005d7	89 55 dc	 mov	 DWORD PTR _CordY$220786[ebp], edx

; 132  : 
; 133  : 		ItemSerialCreateSend(NULL,CordMap,CordX,CordY,DropItem,Item[Ran].Level,0,Item[Ran].Skill,Item[Ran].Luck,Item[Ran].Opt,NULL,NewExl,NewAnc);

  005da	0f b6 45 ec	 movzx	 eax, BYTE PTR _NewAnc$220779[ebp]
  005de	50		 push	 eax
  005df	0f b6 4d f0	 movzx	 ecx, BYTE PTR _NewExl$220778[ebp]
  005e3	51		 push	 ecx
  005e4	6a 00		 push	 0
  005e6	8b 55 f4	 mov	 edx, DWORD PTR _Ran$220777[ebp]
  005e9	c1 e2 05	 shl	 edx, 5
  005ec	8b 45 fc	 mov	 eax, DWORD PTR _this$[ebp]
  005ef	0f b6 4c 10 18	 movzx	 ecx, BYTE PTR [eax+edx+24]
  005f4	51		 push	 ecx
  005f5	8b 55 f4	 mov	 edx, DWORD PTR _Ran$220777[ebp]
  005f8	c1 e2 05	 shl	 edx, 5
  005fb	8b 45 fc	 mov	 eax, DWORD PTR _this$[ebp]
  005fe	0f b6 4c 10 14	 movzx	 ecx, BYTE PTR [eax+edx+20]
  00603	51		 push	 ecx
  00604	8b 55 f4	 mov	 edx, DWORD PTR _Ran$220777[ebp]
  00607	c1 e2 05	 shl	 edx, 5
  0060a	8b 45 fc	 mov	 eax, DWORD PTR _this$[ebp]
  0060d	0f b6 4c 10 10	 movzx	 ecx, BYTE PTR [eax+edx+16]
  00612	51		 push	 ecx
  00613	6a 00		 push	 0
  00615	8b 55 f4	 mov	 edx, DWORD PTR _Ran$220777[ebp]
  00618	c1 e2 05	 shl	 edx, 5
  0061b	8b 45 fc	 mov	 eax, DWORD PTR _this$[ebp]
  0061e	0f b6 4c 10 0c	 movzx	 ecx, BYTE PTR [eax+edx+12]
  00623	51		 push	 ecx
  00624	8b 55 e8	 mov	 edx, DWORD PTR _DropItem$220780[ebp]
  00627	52		 push	 edx
  00628	0f b6 45 dc	 movzx	 eax, BYTE PTR _CordY$220786[ebp]
  0062c	50		 push	 eax
  0062d	0f b6 4d e0	 movzx	 ecx, BYTE PTR _CordX$220785[ebp]
  00631	51		 push	 ecx
  00632	0f b6 55 e4	 movzx	 edx, BYTE PTR _CordMap$220784[ebp]
  00636	52		 push	 edx
  00637	6a 00		 push	 0
  00639	e8 00 00 00 00	 call	 ?ItemSerialCreateSend@@YAXHEEEHEEEEEHEE@Z ; ItemSerialCreateSend
  0063e	83 c4 34	 add	 esp, 52			; 00000034H

; 134  : 	}

  00641	e9 a7 fe ff ff	 jmp	 $LN5@StartEvent
$LN7@StartEvent:

; 135  : }

  00646	5f		 pop	 edi
  00647	5e		 pop	 esi
  00648	5b		 pop	 ebx
  00649	8b e5		 mov	 esp, ebp
  0064b	5d		 pop	 ebp
  0064c	c3		 ret	 0
?StartEvent@cDropEvent@@QAEXXZ ENDP			; cDropEvent::StartEvent
_TEXT	ENDS
PUBLIC	__$ArrayPad$
PUBLIC	?TickTime@cDropEvent@@QAEXXZ			; cDropEvent::TickTime
EXTRN	?ExConfig@@3VcExConfigs@@A:BYTE			; ExConfig
EXTRN	?CheckUser@CExLicense@@QAE_NH@Z:PROC		; CExLicense::CheckUser
EXTRN	?g_ExLicense@@3VCExLicense@@A:BYTE		; g_ExLicense
EXTRN	?GetSecond@CTimerEx@@QAEHXZ:PROC		; CTimerEx::GetSecond
EXTRN	?g_TimerEx@@3VCTimerEx@@A:DWORD			; g_TimerEx
EXTRN	__imp__GetLocalTime@4:PROC
; Function compile flags: /Odtp /ZI
_TEXT	SEGMENT
_j$220806 = -32						; size = 4
_i$220793 = -28						; size = 4
_t$ = -24						; size = 16
_this$ = -8						; size = 4
__$ArrayPad$ = -4					; size = 4
?TickTime@cDropEvent@@QAEXXZ PROC			; cDropEvent::TickTime
; _this$ = ecx

; 137  : {

  00650	55		 push	 ebp
  00651	8b ec		 mov	 ebp, esp
  00653	83 ec 60	 sub	 esp, 96			; 00000060H
  00656	a1 00 00 00 00	 mov	 eax, DWORD PTR ___security_cookie
  0065b	33 c5		 xor	 eax, ebp
  0065d	89 45 fc	 mov	 DWORD PTR __$ArrayPad$[ebp], eax
  00660	53		 push	 ebx
  00661	56		 push	 esi
  00662	57		 push	 edi
  00663	89 4d f8	 mov	 DWORD PTR _this$[ebp], ecx

; 138  : 	if(!Enable)

  00666	8b 45 f8	 mov	 eax, DWORD PTR _this$[ebp]
  00669	83 38 00	 cmp	 DWORD PTR [eax], 0
  0066c	75 05		 jne	 SHORT $LN54@TickTime

; 139  : 		return;

  0066e	e9 a0 06 00 00	 jmp	 $LN55@TickTime
$LN54@TickTime:

; 140  : 
; 141  : 	SYSTEMTIME t;
; 142  : 	GetLocalTime(&t);

  00673	8d 45 e8	 lea	 eax, DWORD PTR _t$[ebp]
  00676	50		 push	 eax
  00677	ff 15 00 00 00
	00		 call	 DWORD PTR __imp__GetLocalTime@4

; 143  : 
; 144  : #if(NEWTIMEREX)
; 145  : 	if(g_TimerEx.GetSecond() == 00)

  0067d	b9 00 00 00 00	 mov	 ecx, OFFSET ?g_TimerEx@@3VCTimerEx@@A ; g_TimerEx
  00682	e8 00 00 00 00	 call	 ?GetSecond@CTimerEx@@QAEHXZ ; CTimerEx::GetSecond
  00687	85 c0		 test	 eax, eax
  00689	0f 85 84 06 00
	00		 jne	 $LN55@TickTime

; 146  : #else
; 147  : 	if(t.wSecond == 00)
; 148  : #endif
; 149  : 	{
; 150  : 		for(int i = 0; i < Count[2]; i++)

  0068f	c7 45 e4 00 00
	00 00		 mov	 DWORD PTR _i$220793[ebp], 0
  00696	eb 09		 jmp	 SHORT $LN52@TickTime
$LN51@TickTime:
  00698	8b 45 e4	 mov	 eax, DWORD PTR _i$220793[ebp]
  0069b	83 c0 01	 add	 eax, 1
  0069e	89 45 e4	 mov	 DWORD PTR _i$220793[ebp], eax
$LN52@TickTime:
  006a1	8b 45 f8	 mov	 eax, DWORD PTR _this$[ebp]
  006a4	8b 4d e4	 mov	 ecx, DWORD PTR _i$220793[ebp]
  006a7	3b 88 bc 2c 00
	00		 cmp	 ecx, DWORD PTR [eax+11452]
  006ad	0f 8d 60 06 00
	00		 jge	 $LN55@TickTime

; 151  : 		{
; 152  : #ifdef _MESSAGE_CONFIG_
; 153  : 			if(g_ExLicense.CheckUser(eExUB::Gredy) || g_ExLicense.CheckUser(eExUB::GredyLocal) || g_ExLicense.CheckUser(eExUB::Gredy2))

  006b3	6a 20		 push	 32			; 00000020H
  006b5	b9 00 00 00 00	 mov	 ecx, OFFSET ?g_ExLicense@@3VCExLicense@@A ; g_ExLicense
  006ba	e8 00 00 00 00	 call	 ?CheckUser@CExLicense@@QAE_NH@Z ; CExLicense::CheckUser
  006bf	0f b6 c0	 movzx	 eax, al
  006c2	85 c0		 test	 eax, eax
  006c4	75 2a		 jne	 SHORT $LN48@TickTime
  006c6	6a 21		 push	 33			; 00000021H
  006c8	b9 00 00 00 00	 mov	 ecx, OFFSET ?g_ExLicense@@3VCExLicense@@A ; g_ExLicense
  006cd	e8 00 00 00 00	 call	 ?CheckUser@CExLicense@@QAE_NH@Z ; CExLicense::CheckUser
  006d2	0f b6 c0	 movzx	 eax, al
  006d5	85 c0		 test	 eax, eax
  006d7	75 17		 jne	 SHORT $LN48@TickTime
  006d9	6a 22		 push	 34			; 00000022H
  006db	b9 00 00 00 00	 mov	 ecx, OFFSET ?g_ExLicense@@3VCExLicense@@A ; g_ExLicense
  006e0	e8 00 00 00 00	 call	 ?CheckUser@CExLicense@@QAE_NH@Z ; CExLicense::CheckUser
  006e5	0f b6 c0	 movzx	 eax, al
  006e8	85 c0		 test	 eax, eax
  006ea	0f 84 91 00 00
	00		 je	 $LN49@TickTime
$LN48@TickTime:

; 154  : 			{
; 155  : 				if(Time[i].Min >= 1)

  006f0	8b 45 e4	 mov	 eax, DWORD PTR _i$220793[ebp]
  006f3	8b 4d f8	 mov	 ecx, DWORD PTR _this$[ebp]
  006f6	83 bc c1 08 20
	00 00 01	 cmp	 DWORD PTR [ecx+eax*8+8200], 1
  006fe	7c 3c		 jl	 SHORT $LN47@TickTime

; 156  : 				{			
; 157  : 						if(Time[i].Hour == t.wHour && ((Time[i].Min-1) == t.wMinute))

  00700	0f b7 45 f0	 movzx	 eax, WORD PTR _t$[ebp+8]
  00704	8b 4d e4	 mov	 ecx, DWORD PTR _i$220793[ebp]
  00707	8b 55 f8	 mov	 edx, DWORD PTR _this$[ebp]
  0070a	39 84 ca 04 20
	00 00		 cmp	 DWORD PTR [edx+ecx*8+8196], eax
  00711	75 27		 jne	 SHORT $LN46@TickTime
  00713	8b 45 e4	 mov	 eax, DWORD PTR _i$220793[ebp]
  00716	8b 4d f8	 mov	 ecx, DWORD PTR _this$[ebp]
  00719	8b 94 c1 08 20
	00 00		 mov	 edx, DWORD PTR [ecx+eax*8+8200]
  00720	83 ea 01	 sub	 edx, 1
  00723	0f b7 45 f2	 movzx	 eax, WORD PTR _t$[ebp+10]
  00727	3b d0		 cmp	 edx, eax
  00729	75 0f		 jne	 SHORT $LN46@TickTime

; 158  : 							MessaageAllGlobal(ExConfig.MessageConfig.DropEvent, 1);

  0072b	6a 01		 push	 1
  0072d	68 68 0a 00 00	 push	 OFFSET ?ExConfig@@3VcExConfigs@@A+2664
  00732	e8 00 00 00 00	 call	 ?MessaageAllGlobal@@YAXPADZZ ; MessaageAllGlobal
  00737	83 c4 08	 add	 esp, 8
$LN46@TickTime:

; 159  : 				}

  0073a	eb 40		 jmp	 SHORT $LN45@TickTime
$LN47@TickTime:

; 160  : 				else if(Time[i].Min == 0)

  0073c	8b 45 e4	 mov	 eax, DWORD PTR _i$220793[ebp]
  0073f	8b 4d f8	 mov	 ecx, DWORD PTR _this$[ebp]
  00742	83 bc c1 08 20
	00 00 00	 cmp	 DWORD PTR [ecx+eax*8+8200], 0
  0074a	75 30		 jne	 SHORT $LN45@TickTime

; 161  : 				{
; 162  : 					if(Time[i].Hour-1 == t.wHour && (59 == t.wMinute))

  0074c	8b 45 e4	 mov	 eax, DWORD PTR _i$220793[ebp]
  0074f	8b 4d f8	 mov	 ecx, DWORD PTR _this$[ebp]
  00752	8b 94 c1 04 20
	00 00		 mov	 edx, DWORD PTR [ecx+eax*8+8196]
  00759	83 ea 01	 sub	 edx, 1
  0075c	0f b7 45 f0	 movzx	 eax, WORD PTR _t$[ebp+8]
  00760	3b d0		 cmp	 edx, eax
  00762	75 18		 jne	 SHORT $LN45@TickTime
  00764	0f b7 45 f2	 movzx	 eax, WORD PTR _t$[ebp+10]
  00768	83 f8 3b	 cmp	 eax, 59			; 0000003bH
  0076b	75 0f		 jne	 SHORT $LN45@TickTime

; 163  : 							MessaageAllGlobal(ExConfig.MessageConfig.DropEvent, 1);

  0076d	6a 01		 push	 1
  0076f	68 68 0a 00 00	 push	 OFFSET ?ExConfig@@3VcExConfigs@@A+2664
  00774	e8 00 00 00 00	 call	 ?MessaageAllGlobal@@YAXPADZZ ; MessaageAllGlobal
  00779	83 c4 08	 add	 esp, 8
$LN45@TickTime:

; 164  : 				}
; 165  : 				
; 166  : 			}
; 167  : 			else

  0077c	e9 5d 05 00 00	 jmp	 $LN42@TickTime
$LN49@TickTime:

; 168  : 			{
; 169  : 				if(Time[i].Min > 5)

  00781	8b 45 e4	 mov	 eax, DWORD PTR _i$220793[ebp]
  00784	8b 4d f8	 mov	 ecx, DWORD PTR _this$[ebp]
  00787	83 bc c1 08 20
	00 00 05	 cmp	 DWORD PTR [ecx+eax*8+8200], 5
  0078f	7e 5b		 jle	 SHORT $LN41@TickTime

; 170  : 				{
; 171  : 					for(int j=1; j <= 5; j++)

  00791	c7 45 e0 01 00
	00 00		 mov	 DWORD PTR _j$220806[ebp], 1
  00798	eb 09		 jmp	 SHORT $LN40@TickTime
$LN39@TickTime:
  0079a	8b 45 e0	 mov	 eax, DWORD PTR _j$220806[ebp]
  0079d	83 c0 01	 add	 eax, 1
  007a0	89 45 e0	 mov	 DWORD PTR _j$220806[ebp], eax
$LN40@TickTime:
  007a3	83 7d e0 05	 cmp	 DWORD PTR _j$220806[ebp], 5
  007a7	7f 3e		 jg	 SHORT $LN38@TickTime

; 172  : 					{
; 173  : 			
; 174  : 						if(Time[i].Hour == t.wHour && (Time[i].Min-j) == t.wMinute)

  007a9	0f b7 45 f0	 movzx	 eax, WORD PTR _t$[ebp+8]
  007ad	8b 4d e4	 mov	 ecx, DWORD PTR _i$220793[ebp]
  007b0	8b 55 f8	 mov	 edx, DWORD PTR _this$[ebp]
  007b3	39 84 ca 04 20
	00 00		 cmp	 DWORD PTR [edx+ecx*8+8196], eax
  007ba	75 29		 jne	 SHORT $LN37@TickTime
  007bc	8b 45 e4	 mov	 eax, DWORD PTR _i$220793[ebp]
  007bf	8b 4d f8	 mov	 ecx, DWORD PTR _this$[ebp]
  007c2	8b 94 c1 08 20
	00 00		 mov	 edx, DWORD PTR [ecx+eax*8+8200]
  007c9	2b 55 e0	 sub	 edx, DWORD PTR _j$220806[ebp]
  007cc	0f b7 45 f2	 movzx	 eax, WORD PTR _t$[ebp+10]
  007d0	3b d0		 cmp	 edx, eax
  007d2	75 11		 jne	 SHORT $LN37@TickTime

; 175  : 							MessaageAllGlobal(ExConfig.MessageConfig.DropEvent, j);

  007d4	8b 45 e0	 mov	 eax, DWORD PTR _j$220806[ebp]
  007d7	50		 push	 eax
  007d8	68 68 0a 00 00	 push	 OFFSET ?ExConfig@@3VcExConfigs@@A+2664
  007dd	e8 00 00 00 00	 call	 ?MessaageAllGlobal@@YAXPADZZ ; MessaageAllGlobal
  007e2	83 c4 08	 add	 esp, 8
$LN37@TickTime:

; 176  : 					}

  007e5	eb b3		 jmp	 SHORT $LN39@TickTime
$LN38@TickTime:

; 177  : 				}
; 178  : 				else if(Time[i].Min == 4)

  007e7	e9 f2 04 00 00	 jmp	 $LN42@TickTime
$LN41@TickTime:
  007ec	8b 45 e4	 mov	 eax, DWORD PTR _i$220793[ebp]
  007ef	8b 4d f8	 mov	 ecx, DWORD PTR _this$[ebp]
  007f2	83 bc c1 08 20
	00 00 04	 cmp	 DWORD PTR [ecx+eax*8+8200], 4
  007fa	0f 85 e0 00 00
	00		 jne	 $LN35@TickTime

; 179  : 				{
; 180  : 						if(Time[i].Hour-1 == t.wHour && 59 == t.wMinute)

  00800	8b 45 e4	 mov	 eax, DWORD PTR _i$220793[ebp]
  00803	8b 4d f8	 mov	 ecx, DWORD PTR _this$[ebp]
  00806	8b 94 c1 04 20
	00 00		 mov	 edx, DWORD PTR [ecx+eax*8+8196]
  0080d	83 ea 01	 sub	 edx, 1
  00810	0f b7 45 f0	 movzx	 eax, WORD PTR _t$[ebp+8]
  00814	3b d0		 cmp	 edx, eax
  00816	75 18		 jne	 SHORT $LN34@TickTime
  00818	0f b7 45 f2	 movzx	 eax, WORD PTR _t$[ebp+10]
  0081c	83 f8 3b	 cmp	 eax, 59			; 0000003bH
  0081f	75 0f		 jne	 SHORT $LN34@TickTime

; 181  : 							MessaageAllGlobal(ExConfig.MessageConfig.DropEvent, 5);

  00821	6a 05		 push	 5
  00823	68 68 0a 00 00	 push	 OFFSET ?ExConfig@@3VcExConfigs@@A+2664
  00828	e8 00 00 00 00	 call	 ?MessaageAllGlobal@@YAXPADZZ ; MessaageAllGlobal
  0082d	83 c4 08	 add	 esp, 8
$LN34@TickTime:

; 182  : 						if(Time[i].Hour == t.wHour && 0 == t.wMinute)

  00830	0f b7 45 f0	 movzx	 eax, WORD PTR _t$[ebp+8]
  00834	8b 4d e4	 mov	 ecx, DWORD PTR _i$220793[ebp]
  00837	8b 55 f8	 mov	 edx, DWORD PTR _this$[ebp]
  0083a	39 84 ca 04 20
	00 00		 cmp	 DWORD PTR [edx+ecx*8+8196], eax
  00841	75 17		 jne	 SHORT $LN33@TickTime
  00843	0f b7 45 f2	 movzx	 eax, WORD PTR _t$[ebp+10]
  00847	85 c0		 test	 eax, eax
  00849	75 0f		 jne	 SHORT $LN33@TickTime

; 183  : 							MessaageAllGlobal(ExConfig.MessageConfig.DropEvent, 4);

  0084b	6a 04		 push	 4
  0084d	68 68 0a 00 00	 push	 OFFSET ?ExConfig@@3VcExConfigs@@A+2664
  00852	e8 00 00 00 00	 call	 ?MessaageAllGlobal@@YAXPADZZ ; MessaageAllGlobal
  00857	83 c4 08	 add	 esp, 8
$LN33@TickTime:

; 184  : 						if(Time[i].Hour == t.wHour && 1 == t.wMinute)

  0085a	0f b7 45 f0	 movzx	 eax, WORD PTR _t$[ebp+8]
  0085e	8b 4d e4	 mov	 ecx, DWORD PTR _i$220793[ebp]
  00861	8b 55 f8	 mov	 edx, DWORD PTR _this$[ebp]
  00864	39 84 ca 04 20
	00 00		 cmp	 DWORD PTR [edx+ecx*8+8196], eax
  0086b	75 18		 jne	 SHORT $LN32@TickTime
  0086d	0f b7 45 f2	 movzx	 eax, WORD PTR _t$[ebp+10]
  00871	83 f8 01	 cmp	 eax, 1
  00874	75 0f		 jne	 SHORT $LN32@TickTime

; 185  : 							MessaageAllGlobal(ExConfig.MessageConfig.DropEvent, 3);

  00876	6a 03		 push	 3
  00878	68 68 0a 00 00	 push	 OFFSET ?ExConfig@@3VcExConfigs@@A+2664
  0087d	e8 00 00 00 00	 call	 ?MessaageAllGlobal@@YAXPADZZ ; MessaageAllGlobal
  00882	83 c4 08	 add	 esp, 8
$LN32@TickTime:

; 186  : 						if(Time[i].Hour == t.wHour && 2 == t.wMinute)

  00885	0f b7 45 f0	 movzx	 eax, WORD PTR _t$[ebp+8]
  00889	8b 4d e4	 mov	 ecx, DWORD PTR _i$220793[ebp]
  0088c	8b 55 f8	 mov	 edx, DWORD PTR _this$[ebp]
  0088f	39 84 ca 04 20
	00 00		 cmp	 DWORD PTR [edx+ecx*8+8196], eax
  00896	75 18		 jne	 SHORT $LN31@TickTime
  00898	0f b7 45 f2	 movzx	 eax, WORD PTR _t$[ebp+10]
  0089c	83 f8 02	 cmp	 eax, 2
  0089f	75 0f		 jne	 SHORT $LN31@TickTime

; 187  : 							MessaageAllGlobal(ExConfig.MessageConfig.DropEvent, 2);

  008a1	6a 02		 push	 2
  008a3	68 68 0a 00 00	 push	 OFFSET ?ExConfig@@3VcExConfigs@@A+2664
  008a8	e8 00 00 00 00	 call	 ?MessaageAllGlobal@@YAXPADZZ ; MessaageAllGlobal
  008ad	83 c4 08	 add	 esp, 8
$LN31@TickTime:

; 188  : 						if(Time[i].Hour == t.wHour && 3 == t.wMinute)

  008b0	0f b7 45 f0	 movzx	 eax, WORD PTR _t$[ebp+8]
  008b4	8b 4d e4	 mov	 ecx, DWORD PTR _i$220793[ebp]
  008b7	8b 55 f8	 mov	 edx, DWORD PTR _this$[ebp]
  008ba	39 84 ca 04 20
	00 00		 cmp	 DWORD PTR [edx+ecx*8+8196], eax
  008c1	75 18		 jne	 SHORT $LN30@TickTime
  008c3	0f b7 45 f2	 movzx	 eax, WORD PTR _t$[ebp+10]
  008c7	83 f8 03	 cmp	 eax, 3
  008ca	75 0f		 jne	 SHORT $LN30@TickTime

; 189  : 							MessaageAllGlobal(ExConfig.MessageConfig.DropEvent, 1);

  008cc	6a 01		 push	 1
  008ce	68 68 0a 00 00	 push	 OFFSET ?ExConfig@@3VcExConfigs@@A+2664
  008d3	e8 00 00 00 00	 call	 ?MessaageAllGlobal@@YAXPADZZ ; MessaageAllGlobal
  008d8	83 c4 08	 add	 esp, 8
$LN30@TickTime:

; 190  : 
; 191  : 				}

  008db	e9 fe 03 00 00	 jmp	 $LN42@TickTime
$LN35@TickTime:

; 192  : 				else if(Time[i].Min == 3)

  008e0	8b 45 e4	 mov	 eax, DWORD PTR _i$220793[ebp]
  008e3	8b 4d f8	 mov	 ecx, DWORD PTR _this$[ebp]
  008e6	83 bc c1 08 20
	00 00 03	 cmp	 DWORD PTR [ecx+eax*8+8200], 3
  008ee	0f 85 e5 00 00
	00		 jne	 $LN28@TickTime

; 193  : 				{
; 194  : 						if(Time[i].Hour-1 == t.wHour && 58 == t.wMinute)

  008f4	8b 45 e4	 mov	 eax, DWORD PTR _i$220793[ebp]
  008f7	8b 4d f8	 mov	 ecx, DWORD PTR _this$[ebp]
  008fa	8b 94 c1 04 20
	00 00		 mov	 edx, DWORD PTR [ecx+eax*8+8196]
  00901	83 ea 01	 sub	 edx, 1
  00904	0f b7 45 f0	 movzx	 eax, WORD PTR _t$[ebp+8]
  00908	3b d0		 cmp	 edx, eax
  0090a	75 18		 jne	 SHORT $LN27@TickTime
  0090c	0f b7 45 f2	 movzx	 eax, WORD PTR _t$[ebp+10]
  00910	83 f8 3a	 cmp	 eax, 58			; 0000003aH
  00913	75 0f		 jne	 SHORT $LN27@TickTime

; 195  : 							MessaageAllGlobal(ExConfig.MessageConfig.DropEvent, 5);

  00915	6a 05		 push	 5
  00917	68 68 0a 00 00	 push	 OFFSET ?ExConfig@@3VcExConfigs@@A+2664
  0091c	e8 00 00 00 00	 call	 ?MessaageAllGlobal@@YAXPADZZ ; MessaageAllGlobal
  00921	83 c4 08	 add	 esp, 8
$LN27@TickTime:

; 196  : 						if(Time[i].Hour-1 == t.wHour && 59 == t.wMinute)

  00924	8b 45 e4	 mov	 eax, DWORD PTR _i$220793[ebp]
  00927	8b 4d f8	 mov	 ecx, DWORD PTR _this$[ebp]
  0092a	8b 94 c1 04 20
	00 00		 mov	 edx, DWORD PTR [ecx+eax*8+8196]
  00931	83 ea 01	 sub	 edx, 1
  00934	0f b7 45 f0	 movzx	 eax, WORD PTR _t$[ebp+8]
  00938	3b d0		 cmp	 edx, eax
  0093a	75 18		 jne	 SHORT $LN26@TickTime
  0093c	0f b7 45 f2	 movzx	 eax, WORD PTR _t$[ebp+10]
  00940	83 f8 3b	 cmp	 eax, 59			; 0000003bH
  00943	75 0f		 jne	 SHORT $LN26@TickTime

; 197  : 							MessaageAllGlobal(ExConfig.MessageConfig.DropEvent, 4);

  00945	6a 04		 push	 4
  00947	68 68 0a 00 00	 push	 OFFSET ?ExConfig@@3VcExConfigs@@A+2664
  0094c	e8 00 00 00 00	 call	 ?MessaageAllGlobal@@YAXPADZZ ; MessaageAllGlobal
  00951	83 c4 08	 add	 esp, 8
$LN26@TickTime:

; 198  : 						if(Time[i].Hour == t.wHour && 0 == t.wMinute)

  00954	0f b7 45 f0	 movzx	 eax, WORD PTR _t$[ebp+8]
  00958	8b 4d e4	 mov	 ecx, DWORD PTR _i$220793[ebp]
  0095b	8b 55 f8	 mov	 edx, DWORD PTR _this$[ebp]
  0095e	39 84 ca 04 20
	00 00		 cmp	 DWORD PTR [edx+ecx*8+8196], eax
  00965	75 17		 jne	 SHORT $LN25@TickTime
  00967	0f b7 45 f2	 movzx	 eax, WORD PTR _t$[ebp+10]
  0096b	85 c0		 test	 eax, eax
  0096d	75 0f		 jne	 SHORT $LN25@TickTime

; 199  : 							MessaageAllGlobal(ExConfig.MessageConfig.DropEvent, 3);

  0096f	6a 03		 push	 3
  00971	68 68 0a 00 00	 push	 OFFSET ?ExConfig@@3VcExConfigs@@A+2664
  00976	e8 00 00 00 00	 call	 ?MessaageAllGlobal@@YAXPADZZ ; MessaageAllGlobal
  0097b	83 c4 08	 add	 esp, 8
$LN25@TickTime:

; 200  : 						if(Time[i].Hour == t.wHour && 1 == t.wMinute)

  0097e	0f b7 45 f0	 movzx	 eax, WORD PTR _t$[ebp+8]
  00982	8b 4d e4	 mov	 ecx, DWORD PTR _i$220793[ebp]
  00985	8b 55 f8	 mov	 edx, DWORD PTR _this$[ebp]
  00988	39 84 ca 04 20
	00 00		 cmp	 DWORD PTR [edx+ecx*8+8196], eax
  0098f	75 18		 jne	 SHORT $LN24@TickTime
  00991	0f b7 45 f2	 movzx	 eax, WORD PTR _t$[ebp+10]
  00995	83 f8 01	 cmp	 eax, 1
  00998	75 0f		 jne	 SHORT $LN24@TickTime

; 201  : 							MessaageAllGlobal(ExConfig.MessageConfig.DropEvent, 2);

  0099a	6a 02		 push	 2
  0099c	68 68 0a 00 00	 push	 OFFSET ?ExConfig@@3VcExConfigs@@A+2664
  009a1	e8 00 00 00 00	 call	 ?MessaageAllGlobal@@YAXPADZZ ; MessaageAllGlobal
  009a6	83 c4 08	 add	 esp, 8
$LN24@TickTime:

; 202  : 						if(Time[i].Hour == t.wHour && 2 == t.wMinute)

  009a9	0f b7 45 f0	 movzx	 eax, WORD PTR _t$[ebp+8]
  009ad	8b 4d e4	 mov	 ecx, DWORD PTR _i$220793[ebp]
  009b0	8b 55 f8	 mov	 edx, DWORD PTR _this$[ebp]
  009b3	39 84 ca 04 20
	00 00		 cmp	 DWORD PTR [edx+ecx*8+8196], eax
  009ba	75 18		 jne	 SHORT $LN23@TickTime
  009bc	0f b7 45 f2	 movzx	 eax, WORD PTR _t$[ebp+10]
  009c0	83 f8 02	 cmp	 eax, 2
  009c3	75 0f		 jne	 SHORT $LN23@TickTime

; 203  : 							MessaageAllGlobal(ExConfig.MessageConfig.DropEvent, 1);

  009c5	6a 01		 push	 1
  009c7	68 68 0a 00 00	 push	 OFFSET ?ExConfig@@3VcExConfigs@@A+2664
  009cc	e8 00 00 00 00	 call	 ?MessaageAllGlobal@@YAXPADZZ ; MessaageAllGlobal
  009d1	83 c4 08	 add	 esp, 8
$LN23@TickTime:

; 204  : 				}

  009d4	e9 05 03 00 00	 jmp	 $LN42@TickTime
$LN28@TickTime:

; 205  : 				else if(Time[i].Min == 2)

  009d9	8b 45 e4	 mov	 eax, DWORD PTR _i$220793[ebp]
  009dc	8b 4d f8	 mov	 ecx, DWORD PTR _this$[ebp]
  009df	83 bc c1 08 20
	00 00 02	 cmp	 DWORD PTR [ecx+eax*8+8200], 2
  009e7	0f 85 ea 00 00
	00		 jne	 $LN21@TickTime

; 206  : 				{
; 207  : 						if(Time[i].Hour-1 == t.wHour && 57 == t.wMinute)

  009ed	8b 45 e4	 mov	 eax, DWORD PTR _i$220793[ebp]
  009f0	8b 4d f8	 mov	 ecx, DWORD PTR _this$[ebp]
  009f3	8b 94 c1 04 20
	00 00		 mov	 edx, DWORD PTR [ecx+eax*8+8196]
  009fa	83 ea 01	 sub	 edx, 1
  009fd	0f b7 45 f0	 movzx	 eax, WORD PTR _t$[ebp+8]
  00a01	3b d0		 cmp	 edx, eax
  00a03	75 18		 jne	 SHORT $LN20@TickTime
  00a05	0f b7 45 f2	 movzx	 eax, WORD PTR _t$[ebp+10]
  00a09	83 f8 39	 cmp	 eax, 57			; 00000039H
  00a0c	75 0f		 jne	 SHORT $LN20@TickTime

; 208  : 							MessaageAllGlobal(ExConfig.MessageConfig.DropEvent, 5);

  00a0e	6a 05		 push	 5
  00a10	68 68 0a 00 00	 push	 OFFSET ?ExConfig@@3VcExConfigs@@A+2664
  00a15	e8 00 00 00 00	 call	 ?MessaageAllGlobal@@YAXPADZZ ; MessaageAllGlobal
  00a1a	83 c4 08	 add	 esp, 8
$LN20@TickTime:

; 209  : 						if(Time[i].Hour-1 == t.wHour && 58 == t.wMinute)

  00a1d	8b 45 e4	 mov	 eax, DWORD PTR _i$220793[ebp]
  00a20	8b 4d f8	 mov	 ecx, DWORD PTR _this$[ebp]
  00a23	8b 94 c1 04 20
	00 00		 mov	 edx, DWORD PTR [ecx+eax*8+8196]
  00a2a	83 ea 01	 sub	 edx, 1
  00a2d	0f b7 45 f0	 movzx	 eax, WORD PTR _t$[ebp+8]
  00a31	3b d0		 cmp	 edx, eax
  00a33	75 18		 jne	 SHORT $LN19@TickTime
  00a35	0f b7 45 f2	 movzx	 eax, WORD PTR _t$[ebp+10]
  00a39	83 f8 3a	 cmp	 eax, 58			; 0000003aH
  00a3c	75 0f		 jne	 SHORT $LN19@TickTime

; 210  : 							MessaageAllGlobal(ExConfig.MessageConfig.DropEvent, 4);

  00a3e	6a 04		 push	 4
  00a40	68 68 0a 00 00	 push	 OFFSET ?ExConfig@@3VcExConfigs@@A+2664
  00a45	e8 00 00 00 00	 call	 ?MessaageAllGlobal@@YAXPADZZ ; MessaageAllGlobal
  00a4a	83 c4 08	 add	 esp, 8
$LN19@TickTime:

; 211  : 						if(Time[i].Hour-1 == t.wHour && 59 == t.wMinute)

  00a4d	8b 45 e4	 mov	 eax, DWORD PTR _i$220793[ebp]
  00a50	8b 4d f8	 mov	 ecx, DWORD PTR _this$[ebp]
  00a53	8b 94 c1 04 20
	00 00		 mov	 edx, DWORD PTR [ecx+eax*8+8196]
  00a5a	83 ea 01	 sub	 edx, 1
  00a5d	0f b7 45 f0	 movzx	 eax, WORD PTR _t$[ebp+8]
  00a61	3b d0		 cmp	 edx, eax
  00a63	75 18		 jne	 SHORT $LN18@TickTime
  00a65	0f b7 45 f2	 movzx	 eax, WORD PTR _t$[ebp+10]
  00a69	83 f8 3b	 cmp	 eax, 59			; 0000003bH
  00a6c	75 0f		 jne	 SHORT $LN18@TickTime

; 212  : 							MessaageAllGlobal(ExConfig.MessageConfig.DropEvent, 3);

  00a6e	6a 03		 push	 3
  00a70	68 68 0a 00 00	 push	 OFFSET ?ExConfig@@3VcExConfigs@@A+2664
  00a75	e8 00 00 00 00	 call	 ?MessaageAllGlobal@@YAXPADZZ ; MessaageAllGlobal
  00a7a	83 c4 08	 add	 esp, 8
$LN18@TickTime:

; 213  : 						if(Time[i].Hour == t.wHour && 0 == t.wMinute)

  00a7d	0f b7 45 f0	 movzx	 eax, WORD PTR _t$[ebp+8]
  00a81	8b 4d e4	 mov	 ecx, DWORD PTR _i$220793[ebp]
  00a84	8b 55 f8	 mov	 edx, DWORD PTR _this$[ebp]
  00a87	39 84 ca 04 20
	00 00		 cmp	 DWORD PTR [edx+ecx*8+8196], eax
  00a8e	75 17		 jne	 SHORT $LN17@TickTime
  00a90	0f b7 45 f2	 movzx	 eax, WORD PTR _t$[ebp+10]
  00a94	85 c0		 test	 eax, eax
  00a96	75 0f		 jne	 SHORT $LN17@TickTime

; 214  : 							MessaageAllGlobal(ExConfig.MessageConfig.DropEvent, 2);

  00a98	6a 02		 push	 2
  00a9a	68 68 0a 00 00	 push	 OFFSET ?ExConfig@@3VcExConfigs@@A+2664
  00a9f	e8 00 00 00 00	 call	 ?MessaageAllGlobal@@YAXPADZZ ; MessaageAllGlobal
  00aa4	83 c4 08	 add	 esp, 8
$LN17@TickTime:

; 215  : 						if(Time[i].Hour == t.wHour && 1 == t.wMinute)

  00aa7	0f b7 45 f0	 movzx	 eax, WORD PTR _t$[ebp+8]
  00aab	8b 4d e4	 mov	 ecx, DWORD PTR _i$220793[ebp]
  00aae	8b 55 f8	 mov	 edx, DWORD PTR _this$[ebp]
  00ab1	39 84 ca 04 20
	00 00		 cmp	 DWORD PTR [edx+ecx*8+8196], eax
  00ab8	75 18		 jne	 SHORT $LN16@TickTime
  00aba	0f b7 45 f2	 movzx	 eax, WORD PTR _t$[ebp+10]
  00abe	83 f8 01	 cmp	 eax, 1
  00ac1	75 0f		 jne	 SHORT $LN16@TickTime

; 216  : 							MessaageAllGlobal(ExConfig.MessageConfig.DropEvent, 1);

  00ac3	6a 01		 push	 1
  00ac5	68 68 0a 00 00	 push	 OFFSET ?ExConfig@@3VcExConfigs@@A+2664
  00aca	e8 00 00 00 00	 call	 ?MessaageAllGlobal@@YAXPADZZ ; MessaageAllGlobal
  00acf	83 c4 08	 add	 esp, 8
$LN16@TickTime:

; 217  : 				}

  00ad2	e9 07 02 00 00	 jmp	 $LN42@TickTime
$LN21@TickTime:

; 218  : 				else if(Time[i].Min == 1)

  00ad7	8b 45 e4	 mov	 eax, DWORD PTR _i$220793[ebp]
  00ada	8b 4d f8	 mov	 ecx, DWORD PTR _this$[ebp]
  00add	83 bc c1 08 20
	00 00 01	 cmp	 DWORD PTR [ecx+eax*8+8200], 1
  00ae5	0f 85 ef 00 00
	00		 jne	 $LN14@TickTime

; 219  : 				{
; 220  : 						if(Time[i].Hour-1 == t.wHour && 56 == t.wMinute)

  00aeb	8b 45 e4	 mov	 eax, DWORD PTR _i$220793[ebp]
  00aee	8b 4d f8	 mov	 ecx, DWORD PTR _this$[ebp]
  00af1	8b 94 c1 04 20
	00 00		 mov	 edx, DWORD PTR [ecx+eax*8+8196]
  00af8	83 ea 01	 sub	 edx, 1
  00afb	0f b7 45 f0	 movzx	 eax, WORD PTR _t$[ebp+8]
  00aff	3b d0		 cmp	 edx, eax
  00b01	75 18		 jne	 SHORT $LN13@TickTime
  00b03	0f b7 45 f2	 movzx	 eax, WORD PTR _t$[ebp+10]
  00b07	83 f8 38	 cmp	 eax, 56			; 00000038H
  00b0a	75 0f		 jne	 SHORT $LN13@TickTime

; 221  : 							MessaageAllGlobal(ExConfig.MessageConfig.DropEvent, 5);

  00b0c	6a 05		 push	 5
  00b0e	68 68 0a 00 00	 push	 OFFSET ?ExConfig@@3VcExConfigs@@A+2664
  00b13	e8 00 00 00 00	 call	 ?MessaageAllGlobal@@YAXPADZZ ; MessaageAllGlobal
  00b18	83 c4 08	 add	 esp, 8
$LN13@TickTime:

; 222  : 						if(Time[i].Hour-1 == t.wHour && 57 == t.wMinute)

  00b1b	8b 45 e4	 mov	 eax, DWORD PTR _i$220793[ebp]
  00b1e	8b 4d f8	 mov	 ecx, DWORD PTR _this$[ebp]
  00b21	8b 94 c1 04 20
	00 00		 mov	 edx, DWORD PTR [ecx+eax*8+8196]
  00b28	83 ea 01	 sub	 edx, 1
  00b2b	0f b7 45 f0	 movzx	 eax, WORD PTR _t$[ebp+8]
  00b2f	3b d0		 cmp	 edx, eax
  00b31	75 18		 jne	 SHORT $LN12@TickTime
  00b33	0f b7 45 f2	 movzx	 eax, WORD PTR _t$[ebp+10]
  00b37	83 f8 39	 cmp	 eax, 57			; 00000039H
  00b3a	75 0f		 jne	 SHORT $LN12@TickTime

; 223  : 							MessaageAllGlobal(ExConfig.MessageConfig.DropEvent, 4);

  00b3c	6a 04		 push	 4
  00b3e	68 68 0a 00 00	 push	 OFFSET ?ExConfig@@3VcExConfigs@@A+2664
  00b43	e8 00 00 00 00	 call	 ?MessaageAllGlobal@@YAXPADZZ ; MessaageAllGlobal
  00b48	83 c4 08	 add	 esp, 8
$LN12@TickTime:

; 224  : 						if(Time[i].Hour-1 == t.wHour && 58 == t.wMinute)

  00b4b	8b 45 e4	 mov	 eax, DWORD PTR _i$220793[ebp]
  00b4e	8b 4d f8	 mov	 ecx, DWORD PTR _this$[ebp]
  00b51	8b 94 c1 04 20
	00 00		 mov	 edx, DWORD PTR [ecx+eax*8+8196]
  00b58	83 ea 01	 sub	 edx, 1
  00b5b	0f b7 45 f0	 movzx	 eax, WORD PTR _t$[ebp+8]
  00b5f	3b d0		 cmp	 edx, eax
  00b61	75 18		 jne	 SHORT $LN11@TickTime
  00b63	0f b7 45 f2	 movzx	 eax, WORD PTR _t$[ebp+10]
  00b67	83 f8 3a	 cmp	 eax, 58			; 0000003aH
  00b6a	75 0f		 jne	 SHORT $LN11@TickTime

; 225  : 							MessaageAllGlobal(ExConfig.MessageConfig.DropEvent, 3);

  00b6c	6a 03		 push	 3
  00b6e	68 68 0a 00 00	 push	 OFFSET ?ExConfig@@3VcExConfigs@@A+2664
  00b73	e8 00 00 00 00	 call	 ?MessaageAllGlobal@@YAXPADZZ ; MessaageAllGlobal
  00b78	83 c4 08	 add	 esp, 8
$LN11@TickTime:

; 226  : 						if(Time[i].Hour-1 == t.wHour && 59 == t.wMinute)

  00b7b	8b 45 e4	 mov	 eax, DWORD PTR _i$220793[ebp]
  00b7e	8b 4d f8	 mov	 ecx, DWORD PTR _this$[ebp]
  00b81	8b 94 c1 04 20
	00 00		 mov	 edx, DWORD PTR [ecx+eax*8+8196]
  00b88	83 ea 01	 sub	 edx, 1
  00b8b	0f b7 45 f0	 movzx	 eax, WORD PTR _t$[ebp+8]
  00b8f	3b d0		 cmp	 edx, eax
  00b91	75 18		 jne	 SHORT $LN10@TickTime
  00b93	0f b7 45 f2	 movzx	 eax, WORD PTR _t$[ebp+10]
  00b97	83 f8 3b	 cmp	 eax, 59			; 0000003bH
  00b9a	75 0f		 jne	 SHORT $LN10@TickTime

; 227  : 							MessaageAllGlobal(ExConfig.MessageConfig.DropEvent, 2);

  00b9c	6a 02		 push	 2
  00b9e	68 68 0a 00 00	 push	 OFFSET ?ExConfig@@3VcExConfigs@@A+2664
  00ba3	e8 00 00 00 00	 call	 ?MessaageAllGlobal@@YAXPADZZ ; MessaageAllGlobal
  00ba8	83 c4 08	 add	 esp, 8
$LN10@TickTime:

; 228  : 						if(Time[i].Hour == t.wHour && 0 == t.wMinute)

  00bab	0f b7 45 f0	 movzx	 eax, WORD PTR _t$[ebp+8]
  00baf	8b 4d e4	 mov	 ecx, DWORD PTR _i$220793[ebp]
  00bb2	8b 55 f8	 mov	 edx, DWORD PTR _this$[ebp]
  00bb5	39 84 ca 04 20
	00 00		 cmp	 DWORD PTR [edx+ecx*8+8196], eax
  00bbc	75 17		 jne	 SHORT $LN9@TickTime
  00bbe	0f b7 45 f2	 movzx	 eax, WORD PTR _t$[ebp+10]
  00bc2	85 c0		 test	 eax, eax
  00bc4	75 0f		 jne	 SHORT $LN9@TickTime

; 229  : 							MessaageAllGlobal(ExConfig.MessageConfig.DropEvent, 1);

  00bc6	6a 01		 push	 1
  00bc8	68 68 0a 00 00	 push	 OFFSET ?ExConfig@@3VcExConfigs@@A+2664
  00bcd	e8 00 00 00 00	 call	 ?MessaageAllGlobal@@YAXPADZZ ; MessaageAllGlobal
  00bd2	83 c4 08	 add	 esp, 8
$LN9@TickTime:

; 230  : 				}

  00bd5	e9 04 01 00 00	 jmp	 $LN42@TickTime
$LN14@TickTime:

; 231  : 				else if(Time[i].Min == 0)

  00bda	8b 45 e4	 mov	 eax, DWORD PTR _i$220793[ebp]
  00bdd	8b 4d f8	 mov	 ecx, DWORD PTR _this$[ebp]
  00be0	83 bc c1 08 20
	00 00 00	 cmp	 DWORD PTR [ecx+eax*8+8200], 0
  00be8	0f 85 f0 00 00
	00		 jne	 $LN42@TickTime

; 232  : 				{
; 233  : 						if(Time[i].Hour-1 == t.wHour && 55 == t.wMinute)

  00bee	8b 45 e4	 mov	 eax, DWORD PTR _i$220793[ebp]
  00bf1	8b 4d f8	 mov	 ecx, DWORD PTR _this$[ebp]
  00bf4	8b 94 c1 04 20
	00 00		 mov	 edx, DWORD PTR [ecx+eax*8+8196]
  00bfb	83 ea 01	 sub	 edx, 1
  00bfe	0f b7 45 f0	 movzx	 eax, WORD PTR _t$[ebp+8]
  00c02	3b d0		 cmp	 edx, eax
  00c04	75 18		 jne	 SHORT $LN6@TickTime
  00c06	0f b7 45 f2	 movzx	 eax, WORD PTR _t$[ebp+10]
  00c0a	83 f8 37	 cmp	 eax, 55			; 00000037H
  00c0d	75 0f		 jne	 SHORT $LN6@TickTime

; 234  : 							MessaageAllGlobal(ExConfig.MessageConfig.DropEvent, 5);

  00c0f	6a 05		 push	 5
  00c11	68 68 0a 00 00	 push	 OFFSET ?ExConfig@@3VcExConfigs@@A+2664
  00c16	e8 00 00 00 00	 call	 ?MessaageAllGlobal@@YAXPADZZ ; MessaageAllGlobal
  00c1b	83 c4 08	 add	 esp, 8
$LN6@TickTime:

; 235  : 						if(Time[i].Hour-1 == t.wHour && 56 == t.wMinute)

  00c1e	8b 45 e4	 mov	 eax, DWORD PTR _i$220793[ebp]
  00c21	8b 4d f8	 mov	 ecx, DWORD PTR _this$[ebp]
  00c24	8b 94 c1 04 20
	00 00		 mov	 edx, DWORD PTR [ecx+eax*8+8196]
  00c2b	83 ea 01	 sub	 edx, 1
  00c2e	0f b7 45 f0	 movzx	 eax, WORD PTR _t$[ebp+8]
  00c32	3b d0		 cmp	 edx, eax
  00c34	75 18		 jne	 SHORT $LN5@TickTime
  00c36	0f b7 45 f2	 movzx	 eax, WORD PTR _t$[ebp+10]
  00c3a	83 f8 38	 cmp	 eax, 56			; 00000038H
  00c3d	75 0f		 jne	 SHORT $LN5@TickTime

; 236  : 							MessaageAllGlobal(ExConfig.MessageConfig.DropEvent, 4);

  00c3f	6a 04		 push	 4
  00c41	68 68 0a 00 00	 push	 OFFSET ?ExConfig@@3VcExConfigs@@A+2664
  00c46	e8 00 00 00 00	 call	 ?MessaageAllGlobal@@YAXPADZZ ; MessaageAllGlobal
  00c4b	83 c4 08	 add	 esp, 8
$LN5@TickTime:

; 237  : 						if(Time[i].Hour-1 == t.wHour && 57 == t.wMinute)

  00c4e	8b 45 e4	 mov	 eax, DWORD PTR _i$220793[ebp]
  00c51	8b 4d f8	 mov	 ecx, DWORD PTR _this$[ebp]
  00c54	8b 94 c1 04 20
	00 00		 mov	 edx, DWORD PTR [ecx+eax*8+8196]
  00c5b	83 ea 01	 sub	 edx, 1
  00c5e	0f b7 45 f0	 movzx	 eax, WORD PTR _t$[ebp+8]
  00c62	3b d0		 cmp	 edx, eax
  00c64	75 18		 jne	 SHORT $LN4@TickTime
  00c66	0f b7 45 f2	 movzx	 eax, WORD PTR _t$[ebp+10]
  00c6a	83 f8 39	 cmp	 eax, 57			; 00000039H
  00c6d	75 0f		 jne	 SHORT $LN4@TickTime

; 238  : 							MessaageAllGlobal(ExConfig.MessageConfig.DropEvent, 3);

  00c6f	6a 03		 push	 3
  00c71	68 68 0a 00 00	 push	 OFFSET ?ExConfig@@3VcExConfigs@@A+2664
  00c76	e8 00 00 00 00	 call	 ?MessaageAllGlobal@@YAXPADZZ ; MessaageAllGlobal
  00c7b	83 c4 08	 add	 esp, 8
$LN4@TickTime:

; 239  : 						if(Time[i].Hour-1 == t.wHour && 58 == t.wMinute)

  00c7e	8b 45 e4	 mov	 eax, DWORD PTR _i$220793[ebp]
  00c81	8b 4d f8	 mov	 ecx, DWORD PTR _this$[ebp]
  00c84	8b 94 c1 04 20
	00 00		 mov	 edx, DWORD PTR [ecx+eax*8+8196]
  00c8b	83 ea 01	 sub	 edx, 1
  00c8e	0f b7 45 f0	 movzx	 eax, WORD PTR _t$[ebp+8]
  00c92	3b d0		 cmp	 edx, eax
  00c94	75 18		 jne	 SHORT $LN3@TickTime
  00c96	0f b7 45 f2	 movzx	 eax, WORD PTR _t$[ebp+10]
  00c9a	83 f8 3a	 cmp	 eax, 58			; 0000003aH
  00c9d	75 0f		 jne	 SHORT $LN3@TickTime

; 240  : 							MessaageAllGlobal(ExConfig.MessageConfig.DropEvent, 2);

  00c9f	6a 02		 push	 2
  00ca1	68 68 0a 00 00	 push	 OFFSET ?ExConfig@@3VcExConfigs@@A+2664
  00ca6	e8 00 00 00 00	 call	 ?MessaageAllGlobal@@YAXPADZZ ; MessaageAllGlobal
  00cab	83 c4 08	 add	 esp, 8
$LN3@TickTime:

; 241  : 						if(Time[i].Hour-1 == t.wHour && 59 == t.wMinute)

  00cae	8b 45 e4	 mov	 eax, DWORD PTR _i$220793[ebp]
  00cb1	8b 4d f8	 mov	 ecx, DWORD PTR _this$[ebp]
  00cb4	8b 94 c1 04 20
	00 00		 mov	 edx, DWORD PTR [ecx+eax*8+8196]
  00cbb	83 ea 01	 sub	 edx, 1
  00cbe	0f b7 45 f0	 movzx	 eax, WORD PTR _t$[ebp+8]
  00cc2	3b d0		 cmp	 edx, eax
  00cc4	75 18		 jne	 SHORT $LN42@TickTime
  00cc6	0f b7 45 f2	 movzx	 eax, WORD PTR _t$[ebp+10]
  00cca	83 f8 3b	 cmp	 eax, 59			; 0000003bH
  00ccd	75 0f		 jne	 SHORT $LN42@TickTime

; 242  : 							MessaageAllGlobal(ExConfig.MessageConfig.DropEvent, 1);

  00ccf	6a 01		 push	 1
  00cd1	68 68 0a 00 00	 push	 OFFSET ?ExConfig@@3VcExConfigs@@A+2664
  00cd6	e8 00 00 00 00	 call	 ?MessaageAllGlobal@@YAXPADZZ ; MessaageAllGlobal
  00cdb	83 c4 08	 add	 esp, 8
$LN42@TickTime:

; 243  : 				}
; 244  : 			}
; 245  : #endif
; 246  : 			if(Time[i].Hour == t.wHour && Time[i].Min == t.wMinute)

  00cde	0f b7 45 f0	 movzx	 eax, WORD PTR _t$[ebp+8]
  00ce2	8b 4d e4	 mov	 ecx, DWORD PTR _i$220793[ebp]
  00ce5	8b 55 f8	 mov	 edx, DWORD PTR _this$[ebp]
  00ce8	39 84 ca 04 20
	00 00		 cmp	 DWORD PTR [edx+ecx*8+8196], eax
  00cef	75 1d		 jne	 SHORT $LN1@TickTime
  00cf1	0f b7 45 f2	 movzx	 eax, WORD PTR _t$[ebp+10]
  00cf5	8b 4d e4	 mov	 ecx, DWORD PTR _i$220793[ebp]
  00cf8	8b 55 f8	 mov	 edx, DWORD PTR _this$[ebp]
  00cfb	39 84 ca 08 20
	00 00		 cmp	 DWORD PTR [edx+ecx*8+8200], eax
  00d02	75 0a		 jne	 SHORT $LN1@TickTime

; 247  : 			{
; 248  : 
; 249  : 				this->StartEvent();

  00d04	8b 4d f8	 mov	 ecx, DWORD PTR _this$[ebp]
  00d07	e8 00 00 00 00	 call	 ?StartEvent@cDropEvent@@QAEXXZ ; cDropEvent::StartEvent

; 250  : 				return;

  00d0c	eb 05		 jmp	 SHORT $LN55@TickTime
$LN1@TickTime:

; 251  : 			}
; 252  : 		}

  00d0e	e9 85 f9 ff ff	 jmp	 $LN51@TickTime
$LN55@TickTime:

; 253  : 	}
; 254  : }

  00d13	5f		 pop	 edi
  00d14	5e		 pop	 esi
  00d15	5b		 pop	 ebx
  00d16	8b 4d fc	 mov	 ecx, DWORD PTR __$ArrayPad$[ebp]
  00d19	33 cd		 xor	 ecx, ebp
  00d1b	e8 00 00 00 00	 call	 @__security_check_cookie@4
  00d20	8b e5		 mov	 esp, ebp
  00d22	5d		 pop	 ebp
  00d23	c3		 ret	 0
?TickTime@cDropEvent@@QAEXXZ ENDP			; cDropEvent::TickTime
_TEXT	ENDS
END
