; Listing generated by Microsoft (R) Optimizing Compiler Version 16.00.40219.01 

	TITLE	D:\Projects\ExTeam6.3\Source\GameServer\GameServer\DSProtocol.cpp
	.686P
	.XMM
	include listing.inc
	.model	flat

INCLUDELIB LIBCMT
INCLUDELIB OLDNAMES

PUBLIC	?dwCrywolfSyncLogTickCount@@3KA			; dwCrywolfSyncLogTickCount
_BSS	SEGMENT
?dwCrywolfSyncLogTickCount@@3KA DD 01H DUP (?)		; dwCrywolfSyncLogTickCount
_BSS	ENDS
_DATA	SEGMENT
_g_iNpcUpDfLevel_CGATE DD 01H
	DD	02H
	DD	02dc6c0H
	DD	02H
	DD	03H
	DD	02dc6c0H
	DD	03H
	DD	04H
	DD	02dc6c0H
_g_iNpcUpDfLevel_CSTATUE DD 01H
	DD	03H
	DD	02dc6c0H
	DD	02H
	DD	05H
	DD	02dc6c0H
	DD	03H
	DD	07H
	DD	02dc6c0H
_g_iNpcUpMaxHP_CGATE DD 02625a0H
	DD	02H
	DD	0f4240H
	DD	03567e0H
	DD	03H
	DD	0f4240H
	DD	04f5880H
	DD	04H
	DD	0f4240H
_g_iNpcUpMaxHP_CSTATUE DD 02191c0H
	DD	03H
	DD	0f4240H
	DD	033e140H
	DD	05H
	DD	0f4240H
	DD	04c4b40H
	DD	07H
	DD	0f4240H
_g_iNpcUpRgLevel_CSTATUE DD 01H
	DD	03H
	DD	04c4b40H
	DD	02H
	DD	05H
	DD	04c4b40H
	DD	03H
	DD	07H
	DD	04c4b40H
_g_iCsUserReSpawnArea DD 023H
	DD	011H
	DD	090H
	DD	030H
	DD	04aH
	DD	090H
	DD	073H
	DD	09aH
	DD	023H
	DD	011H
	DD	090H
	DD	030H
_g_iNpcDefense_CGATE DD 064H
	DD	0b4H
	DD	012cH
	DD	0208H
_g_iNpcDefense_CSTATUE DD 050H
	DD	0b4H
	DD	0154H
	DD	0226H
_g_iCastleWallStepAxisY DD 071H
	DD	0a0H
	DD	0cbH
_g_sttBLOODCASTLE_LEVEL DD 0fH
	DD	050H
	DD	0aH
	DD	03cH
	DD	051H
	DD	082H
	DD	03dH
	DD	06eH
	DD	083H
	DD	0b4H
	DD	06fH
	DD	0a0H
	DD	0b5H
	DD	0e6H
	DD	0a1H
	DD	0d2H
	DD	0e7H
	DD	0118H
	DD	0d3H
	DD	0104H
	DD	0119H
	DD	014aH
	DD	0105H
	DD	0136H
	DD	014bH
	DD	0190H
	DD	0137H
	DD	0190H
	DD	0fH
	DD	0257H
	DD	0aH
	DD	0257H
_DATA	ENDS
PUBLIC	??_H@YGXPAXIHP6EPAX0@Z@Z			; `vector constructor iterator'
; Function compile flags: /Odtp /ZI
;	COMDAT ??_H@YGXPAXIHP6EPAX0@Z@Z
_TEXT	SEGMENT
___t$ = 8						; size = 4
___s$ = 12						; size = 4
___n$ = 16						; size = 4
___f$ = 20						; size = 4
??_H@YGXPAXIHP6EPAX0@Z@Z PROC				; `vector constructor iterator', COMDAT
  00000	55		 push	 ebp
  00001	8b ec		 mov	 ebp, esp
  00003	83 ec 40	 sub	 esp, 64			; 00000040H
  00006	53		 push	 ebx
  00007	56		 push	 esi
  00008	57		 push	 edi
$LN2@vector:
  00009	8b 45 10	 mov	 eax, DWORD PTR ___n$[ebp]
  0000c	83 e8 01	 sub	 eax, 1
  0000f	89 45 10	 mov	 DWORD PTR ___n$[ebp], eax
  00012	78 11		 js	 SHORT $LN3@vector
  00014	8b 4d 08	 mov	 ecx, DWORD PTR ___t$[ebp]
  00017	ff 55 14	 call	 DWORD PTR ___f$[ebp]
  0001a	8b 45 08	 mov	 eax, DWORD PTR ___t$[ebp]
  0001d	03 45 0c	 add	 eax, DWORD PTR ___s$[ebp]
  00020	89 45 08	 mov	 DWORD PTR ___t$[ebp], eax
  00023	eb e4		 jmp	 SHORT $LN2@vector
$LN3@vector:
  00025	5f		 pop	 edi
  00026	5e		 pop	 esi
  00027	5b		 pop	 ebx
  00028	8b e5		 mov	 esp, ebp
  0002a	5d		 pop	 ebp
  0002b	c2 10 00	 ret	 16			; 00000010H
??_H@YGXPAXIHP6EPAX0@Z@Z ENDP				; `vector constructor iterator'
_TEXT	ENDS
PUBLIC	?GDGetWarehouseNumber@@YAXPAULOADWAREHOUSENUMBER_SAVE@@@Z ; GDGetWarehouseNumber
PUBLIC	?DSBanSystem@@YAXPAUBAN_CHAR_DS@@@Z		; DSBanSystem
PUBLIC	?DGUpdateExtendedWarehouseResult@@YAXPAUSDHP_ANS_SET_EXTENDEDWAREHOUSE_COUNT@@@Z ; DGUpdateExtendedWarehouseResult
PUBLIC	?DGUpdateExtendedInvenCountResult@@YAXPAUSDHP_ANS_SET_EXTENDEDINVEN_COUNT@@@Z ; DGUpdateExtendedInvenCountResult
PUBLIC	??_C@_0CC@MBCBAID@error?9L2DataServer?5RECV?5?3?5?$CFd?5?$CI?$CFd@ ; `string'
PUBLIC	?DGSummonerStateRecv@@YAXPAUPMSG_ANS_SUMMONER_STATUS@@@Z ; DGSummonerStateRecv
PUBLIC	?DGSummonerStateUpdatedSend@@YAXPAUPMSG_ANS_SUMMONER_CREATE@@@Z ; DGSummonerStateUpdatedSend
PUBLIC	?DGMoveOtherServer@@YAXPAUSDHP_CHARACTER_TRANSFER_RESULT@@@Z ; DGMoveOtherServer
PUBLIC	?DGAnsCrywolfInfoSave@@YAXPAE@Z			; DGAnsCrywolfInfoSave
PUBLIC	?DGAnsCrywolfInfoLoad@@YAXPAE@Z			; DGAnsCrywolfInfoLoad
PUBLIC	?DGAnsCrywolfSync@@YAXPAE@Z			; DGAnsCrywolfSync
PUBLIC	?GS_DGAnsCastleNpcUpdate@@YAXPAE@Z		; GS_DGAnsCastleNpcUpdate
PUBLIC	?GS_DGAnsCsLoadTotalGuildInfo@@YAXPAE@Z		; GS_DGAnsCsLoadTotalGuildInfo
PUBLIC	?GS_DGAnsCsSaveTotalGuildInfo@@YAXPAE@Z		; GS_DGAnsCsSaveTotalGuildInfo
PUBLIC	?GS_DGAnsCsGulidUnionInfo@@YAXPAE@Z		; GS_DGAnsCsGulidUnionInfo
PUBLIC	?GS_DGAnsCalcREgGuildList@@YAXPAE@Z		; GS_DGAnsCalcREgGuildList
PUBLIC	?GS_DGAnsFirstCreateNPC@@YAXPAE@Z		; GS_DGAnsFirstCreateNPC
PUBLIC	?GS_DGAnsAllGuildMarkRegInfo@@YAXPAE@Z		; GS_DGAnsAllGuildMarkRegInfo
PUBLIC	?GS_DGAnsCastleNpcInfo@@YAXPAE@Z		; GS_DGAnsCastleNpcInfo
PUBLIC	?GS_DGAnsCastleInitData@@YAXPAE@Z		; GS_DGAnsCastleInitData
PUBLIC	?GS_DGAnsResetRegSiegeInfo@@YAXPAE@Z		; GS_DGAnsResetRegSiegeInfo
PUBLIC	?GS_DGAnsResetSiegeGuildInfo@@YAXPAE@Z		; GS_DGAnsResetSiegeGuildInfo
PUBLIC	?GS_DGAnsResetCastleTaxInfo@@YAXPAE@Z		; GS_DGAnsResetCastleTaxInfo
PUBLIC	?GS_DGAnsCastleTributeMoney@@YAXPAE@Z		; GS_DGAnsCastleTributeMoney
PUBLIC	?GS_DGAnsCastleStateSync@@YAXPAE@Z		; GS_DGAnsCastleStateSync
PUBLIC	?GS_DGAnsNpcRemove@@YAXPAE@Z			; GS_DGAnsNpcRemove
PUBLIC	?GS_DGAnsGuildSetGiveUp@@YAXPAE@Z		; GS_DGAnsGuildSetGiveUp
PUBLIC	?GS_DGAnsGuildMarkReset@@YAXPAE@Z		; GS_DGAnsGuildMarkReset
PUBLIC	?GS_DGAnsRegGuildMark@@YAXPAE@Z			; GS_DGAnsRegGuildMark
PUBLIC	?GS_DGAnsMapSvrMsgMultiCast@@YAXPAE@Z		; GS_DGAnsMapSvrMsgMultiCast
PUBLIC	?GS_DGAnsRestartCastleState@@YAXPAE@Z		; GS_DGAnsRestartCastleState
PUBLIC	?GS_DGAnsRegAttackGuild@@YAXPAE@Z		; GS_DGAnsRegAttackGuild
PUBLIC	?GS_DGAnsCastleOwnerChange@@YAXPAE@Z		; GS_DGAnsCastleOwnerChange
PUBLIC	?GS_DGAnsSiegeEndedChange@@YAXPAE@Z		; GS_DGAnsSiegeEndedChange
PUBLIC	?GS_DGAnsGuildMarkRegInfo@@YAXPAE@Z		; GS_DGAnsGuildMarkRegInfo
PUBLIC	?GS_DGAnsSiegeDateChange@@YAXPAE@Z		; GS_DGAnsSiegeDateChange
PUBLIC	?GS_DGAnsCastleMoneyChange@@YAXPAE@Z		; GS_DGAnsCastleMoneyChange
PUBLIC	?GS_DGAnsTaxRateChange@@YAXPAE@Z		; GS_DGAnsTaxRateChange
PUBLIC	?GS_DGAnsTaxInfo@@YAXPAE@Z			; GS_DGAnsTaxInfo
PUBLIC	?GS_DGAnsCastleNpcUpgrade@@YAXPAE@Z		; GS_DGAnsCastleNpcUpgrade
PUBLIC	?GS_DGAnsCastleNpcRepair@@YAXPAE@Z		; GS_DGAnsCastleNpcRepair
PUBLIC	?GS_DGAnsCastleNpcBuy@@YAXPAE@Z			; GS_DGAnsCastleNpcBuy
PUBLIC	?GS_DGAnsOwnerGuildMaster@@YAXPAE@Z		; GS_DGAnsOwnerGuildMaster
PUBLIC	?GS_DGAnsCastleTotalInfo@@YAXPAE@Z		; GS_DGAnsCastleTotalInfo
PUBLIC	?DGOptionDataRecv@@YAXPAUSDHP_SKILLKEYDATA_SEND@@@Z ; DGOptionDataRecv
PUBLIC	?DGRecvPetItemInfo@@YAXPAE@Z			; DGRecvPetItemInfo
PUBLIC	?ItemSerialCreateRecv@@YAXPAUSDHP_ITEMCREATERECV@@@Z ; ItemSerialCreateRecv
PUBLIC	?DGChangeNameResult@@YAXPAUSDHP_CHANGENAME_RESULT@@@Z ; DGChangeNameResult
PUBLIC	?GDGetWarehouseNoItem@@YAXPAUSDHP_GETWAREHOUSEDB_RESULT@@@Z ; GDGetWarehouseNoItem
PUBLIC	?DGGetWarehouseList@@YAXPAUSDHP_GETWAREHOUSEDB_SAVE@@@Z ; DGGetWarehouseList
PUBLIC	?JGGetCharacterInfo@@YAXPAUSDHP_DBCHAR_INFORESULT@@@Z ; JGGetCharacterInfo
PUBLIC	?JGCharDelRequest@@YAXPAUSDHP_CHARDELETERESULT@@@Z ; JGCharDelRequest
PUBLIC	?JGCharacterCreateRequest@@YAXPAUSDHP_CREATECHARRESULT@@@Z ; JGCharacterCreateRequest
PUBLIC	?JGPGetCharList@@YAXPAE@Z			; JGPGetCharList
PUBLIC	?DataServerLoginResult@@YAXPAUSDHP_RESULT@@@Z	; DataServerLoginResult
PUBLIC	?DataServerProtocolCore@@YAXEPAEH@Z		; DataServerProtocolCore
EXTRN	?DGAnsSave@CAccountSecurity@@QAEXPAUPMSG_ANS_ACC_DATABASE_SAVE@@@Z:PROC ; CAccountSecurity::DGAnsSave
EXTRN	?DGAnsLoad@CAccountSecurity@@QAEXPAUPMSG_ANS_ACC_DATABASE_LOAD@@@Z:PROC ; CAccountSecurity::DGAnsLoad
EXTRN	?g_AccountSecurity@@3VCAccountSecurity@@A:BYTE	; g_AccountSecurity
EXTRN	?Protocol@CExWebManager@@QAEXEPAE@Z:PROC	; CExWebManager::Protocol
EXTRN	?g_ExWebManager@@3VCExWebManager@@A:BYTE	; g_ExWebManager
EXTRN	?DGPSelectData@OfflineMode@@QAEXPAUPMSG_GDLOAD_OFFMODE_DATA@@@Z:PROC ; OfflineMode::DGPSelectData
EXTRN	?DGAnsOffCharacter@OfflineMode@@QAEXPAUSDHP_DBCHAR_INFORESULT@@@Z:PROC ; OfflineMode::DGAnsOffCharacter
EXTRN	?DGAnsMasterInfo@CReferralSystem@@QAEXPAUPMSG_DGANS_REFERRAL_MASTER_INFO@@@Z:PROC ; CReferralSystem::DGAnsMasterInfo
EXTRN	?DSAnsSelect@CBanSystem@@QAEXPAUPMSG_SELECT_BANSYSTEM@@@Z:PROC ; CBanSystem::DSAnsSelect
EXTRN	?g_BanSystem@@3VCBanSystem@@A:BYTE		; g_BanSystem
EXTRN	?DGAnsUserUpdate@CReferralSystem@@QAEXPAUPMSG_GDANS_REFERRAL_USER_UPDATE@@@Z:PROC ; CReferralSystem::DGAnsUserUpdate
EXTRN	?DGAnsUserInfo@CReferralSystem@@QAEXPAUPMSG_DGANS_REFERRAL_USER_INFO@@@Z:PROC ; CReferralSystem::DGAnsUserInfo
EXTRN	?DGAnsMasterUpdate@CReferralSystem@@QAEXPAUPMSG_GDANS_REFERRAL_MASTER_UPDATE@@@Z:PROC ; CReferralSystem::DGAnsMasterUpdate
EXTRN	?g_ReferralSystem@@3VCReferralSystem@@A:BYTE	; g_ReferralSystem
EXTRN	?DGAnsAccauntPassword@OfflineMode@@QAEXPAUPMSG_DGANS_OFFMODE_START@@@Z:PROC ; OfflineMode::DGAnsAccauntPassword
EXTRN	?g_OfflineMode@@3VOfflineMode@@A:BYTE		; g_OfflineMode
EXTRN	?DGSiegeOwner@CDungeonSiege@@QAEXPAUPMSG_DG_DUNGEON_SIEGE_SELECT_OENER@@@Z:PROC ; CDungeonSiege::DGSiegeOwner
EXTRN	?DGRegSiegeResult@CDungeonSiege@@QAEXPAUPMSG_GD_DUNGEON_SIEGE_GUILD_REG_RESULT@@@Z:PROC ; CDungeonSiege::DGRegSiegeResult
EXTRN	?DGRegSiegeList@CDungeonSiege@@QAEXPAUPMSG_DG_DUNGEON_SIEGE_REG_LIST@@@Z:PROC ; CDungeonSiege::DGRegSiegeList
EXTRN	?g_DungeonSiege@@3VCDungeonSiege@@A:BYTE	; g_DungeonSiege
EXTRN	?DGDelete@CMarriage@@QAEXPAUPMSG_ANS_MARRIAGE_DELETE@@@Z:PROC ; CMarriage::DGDelete
EXTRN	?DGInsert@CMarriage@@QAEXPAUPMSG_ANS_MARRIAGE_INSERT@@@Z:PROC ; CMarriage::DGInsert
EXTRN	?DGLoad@CMarriage@@QAEXPAUPMSG_ANS_MARRIAGE_LOAD@@@Z:PROC ; CMarriage::DGLoad
EXTRN	?g_Marriage@@3VCMarriage@@A:BYTE		; g_Marriage
EXTRN	?Protocol@CExGDManager@@QAEXEPAE@Z:PROC		; CExGDManager::Protocol
EXTRN	?g_ExGDManager@@3VCExGDManager@@A:BYTE		; g_ExGDManager
EXTRN	?DGStatus@SpotReturn@@QAEXPAUPMSG_DG_SPOTSTATUS@@@Z:PROC ; SpotReturn::DGStatus
EXTRN	?g_SpotReturn@@3VSpotReturn@@A:QWORD		; g_SpotReturn
EXTRN	?RecvDS@cRanking@@QAEXPAUDGCharTop@@@Z:PROC	; cRanking::RecvDS
EXTRN	?gRanking@@3VcRanking@@A:BYTE			; gRanking
EXTRN	?DG_RecvBrotherCount@Brotherhood@@QAEXPAUDG_CheckBrother@@@Z:PROC ; Brotherhood::DG_RecvBrotherCount
EXTRN	?gBrotherhood@@3VBrotherhood@@A:BYTE		; gBrotherhood
EXTRN	?RecvQuestInfo@cWinQuestSystem@@QAEXPAUDGQuestUserInfo@@@Z:PROC ; cWinQuestSystem::RecvQuestInfo
EXTRN	?gWinQuestSystem@@3VcWinQuestSystem@@A:BYTE	; gWinQuestSystem
EXTRN	?g_ExLicense@@3VCExLicense@@A:BYTE		; g_ExLicense
EXTRN	?DGPeriodItemExList@CPeriodItemEx@@QAEXPAUPMSG_ANS_PERIODITEMEX_LIST@@@Z:PROC ; CPeriodItemEx::DGPeriodItemExList
EXTRN	?DGPeriodItemExListCount@CPeriodItemEx@@QAEXPAUPMSG_ANS_PERIODITEMEX_LIST_COUNT@@@Z:PROC ; CPeriodItemEx::DGPeriodItemExListCount
EXTRN	?DGPeriodItemExExpiredItemList@CPeriodItemEx@@QAEXPAUPMSG_ANS_PERIODITEMEX_EXPIRED_ITEMLIST@@@Z:PROC ; CPeriodItemEx::DGPeriodItemExExpiredItemList
EXTRN	?DGPeriodItemExDelete@CPeriodItemEx@@QAEXPAUPMSG_ANS_PERIODITEMEX_DELETE@@@Z:PROC ; CPeriodItemEx::DGPeriodItemExDelete
EXTRN	?DGPeriodItemExInsert@CPeriodItemEx@@QAEXPAUPMSG_ANS_PERIODITEMEX_INSERT@@@Z:PROC ; CPeriodItemEx::DGPeriodItemExInsert
EXTRN	?g_PeriodItemEx@@3VCPeriodItemEx@@A:BYTE	; g_PeriodItemEx
EXTRN	?DGAnsLuckyItemList@LuckyItemManager@@QAEXPAUPMSG_ANS_LUCKYITEM_SELECT@@@Z:PROC ; LuckyItemManager::DGAnsLuckyItemList
EXTRN	?g_LuckyItemManager@@3ULuckyItemManager@@A:BYTE	; g_LuckyItemManager
EXTRN	?DGGetPoint@GameShop@@QAEXPAUGAMESHOP_DG_GET_POINT@@@Z:PROC ; GameShop::DGGetPoint
EXTRN	?DGGetStorage@GameShop@@QAEXPAUGAMESHOP_GD_STORAGE@@@Z:PROC ; GameShop::DGGetStorage
EXTRN	?gGameShop@@3VGameShop@@A:BYTE			; gGameShop
EXTRN	?DGRewardAns@GensSystem@@QAEXPAUPMSG_GENS_REWARD_ANS@@@Z:PROC ; GensSystem::DGRewardAns
EXTRN	?gGensSystem@@3VGensSystem@@A:BYTE		; gGensSystem
EXTRN	?DGAnsSecedeGensMember@@YAXPAUPMSG_ANS_SECEDE_GENS_MEMBER_EXDB@@@Z:PROC ; DGAnsSecedeGensMember
EXTRN	?DGAnsRegGensMember@@YAXPAUPMSG_ANS_REG_GENS_MEMBER_EXDB@@@Z:PROC ; DGAnsRegGensMember
EXTRN	?DGAnsGensInfo@@YAXPAUPMSG_ANS_GENS_INFO_EXDB@@@Z:PROC ; DGAnsGensInfo
EXTRN	?gGENS@@3HA:DWORD				; gGENS
EXTRN	?LogAddC@@3P6AXEPADZZA:DWORD			; LogAddC
EXTRN	?DGAnsPeriodItemUpdate@CCashItemPeriodSystem@@QAEXPAUPMSG_ANS_PERIODITEM_UPDATE@@@Z:PROC ; CCashItemPeriodSystem::DGAnsPeriodItemUpdate
EXTRN	?DGAnsPeriodItemList@CCashItemPeriodSystem@@QAEXPAUPMSG_ANS_PERIODITEM_LIST@@@Z:PROC ; CCashItemPeriodSystem::DGAnsPeriodItemList
EXTRN	?DGAnsPeriodItemInsert@CCashItemPeriodSystem@@QAEXPAUPMSG_ANS_PERIODITEM_INSERT@@@Z:PROC ; CCashItemPeriodSystem::DGAnsPeriodItemInsert
EXTRN	?DGAnsPeriodItemInquiry@CCashItemPeriodSystem@@QAEXPAUPMSG_ANS_PERIODITEM_INQUIRY@@@Z:PROC ; CCashItemPeriodSystem::DGAnsPeriodItemInquiry
EXTRN	?g_CashItemPeriodSystem@@3VCCashItemPeriodSystem@@A:BYTE ; g_CashItemPeriodSystem
EXTRN	?DGRequestMasterLevelInfoLoad@CMasterLevelSystem@@QAEXPAE@Z:PROC ; CMasterLevelSystem::DGRequestMasterLevelInfoLoad
EXTRN	?g_MasterLevelSystem@@3VCMasterLevelSystem@@A:BYTE ; g_MasterLevelSystem
EXTRN	?SendMacro@MUHelper@@QAEXPAUMUHELPER_MACRO_DS@@@Z:PROC ; MUHelper::SendMacro
EXTRN	?g_MUHelper@@3VMUHelper@@A:BYTE			; g_MUHelper
EXTRN	?Quest3rdLoadInfo@CQuestUtil@@QAEXPAE@Z:PROC	; CQuestUtil::Quest3rdLoadInfo
EXTRN	?g_QuestUtil@@3VCQuestUtil@@A:DWORD		; g_QuestUtil
;	COMDAT ??_C@_0CC@MBCBAID@error?9L2DataServer?5RECV?5?3?5?$CFd?5?$CI?$CFd@
; File d:\projects\exteam6.3\source\gameserver\gameserver\dsprotocol.cpp
CONST	SEGMENT
??_C@_0CC@MBCBAID@error?9L2DataServer?5RECV?5?3?5?$CFd?5?$CI?$CFd@ DB 'er'
	DB	'ror-L2DataServer RECV : %d (%d)', 00H	; `string'
; Function compile flags: /Odtp /ZI
CONST	ENDS
_TEXT	SEGMENT
tv308 = -128						; size = 4
tv297 = -128						; size = 4
tv281 = -128						; size = 4
tv255 = -128						; size = 4
tv243 = -128						; size = 4
tv226 = -128						; size = 4
tv209 = -128						; size = 4
tv199 = -128						; size = 4
tv191 = -128						; size = 4
tv181 = -128						; size = 4
tv158 = -128						; size = 4
tv85 = -128						; size = 4
tv65 = -128						; size = 4
_lpMsg$245212 = -60					; size = 4
_lpMsg$245201 = -56					; size = 4
_lpDef$245198 = -52					; size = 4
_lpMsg$245185 = -48					; size = 4
_lpMsg$245155 = -44					; size = 4
_lpDef$245152 = -40					; size = 4
_lpMsg$245143 = -36					; size = 4
_lpMsg$245126 = -32					; size = 4
_lpMsg$245105 = -28					; size = 4
_lpMsg$245094 = -24					; size = 4
_lpMsg2$245085 = -20					; size = 4
_lpMsg$245070 = -16					; size = 4
_pMsg$245062 = -12					; size = 4
_lpMsg$245043 = -8					; size = 4
_lpDef1$244998 = -4					; size = 4
_protoNum$ = 8						; size = 1
_aRecv$ = 12						; size = 4
_aLen$ = 16						; size = 4
?DataServerProtocolCore@@YAXEPAEH@Z PROC		; DataServerProtocolCore

; 77   : {

  00000	55		 push	 ebp
  00001	8b ec		 mov	 ebp, esp
  00003	81 ec 80 00 00
	00		 sub	 esp, 128		; 00000080H
  00009	53		 push	 ebx
  0000a	56		 push	 esi
  0000b	57		 push	 edi

; 78   : 	switch ( protoNum )

  0000c	0f b6 45 08	 movzx	 eax, BYTE PTR _protoNum$[ebp]
  00010	89 45 80	 mov	 DWORD PTR tv65[ebp], eax
  00013	81 7d 80 cf 00
	00 00		 cmp	 DWORD PTR tv65[ebp], 207 ; 000000cfH
  0001a	7f 2b		 jg	 SHORT $LN146@DataServer
  0001c	81 7d 80 cf 00
	00 00		 cmp	 DWORD PTR tv65[ebp], 207 ; 000000cfH
  00023	0f 84 a5 03 00
	00		 je	 $LN88@DataServer
  00029	81 7d 80 c6 00
	00 00		 cmp	 DWORD PTR tv65[ebp], 198 ; 000000c6H
  00030	0f 87 6e 08 00
	00		 ja	 $LN144@DataServer
  00036	8b 4d 80	 mov	 ecx, DWORD PTR tv65[ebp]
  00039	0f b6 91 00 00
	00 00		 movzx	 edx, BYTE PTR $LN147@DataServer[ecx]
  00040	ff 24 95 00 00
	00 00		 jmp	 DWORD PTR $LN150@DataServer[edx*4]
$LN146@DataServer:
  00047	8b 45 80	 mov	 eax, DWORD PTR tv65[ebp]
  0004a	2d d0 00 00 00	 sub	 eax, 208		; 000000d0H
  0004f	89 45 80	 mov	 DWORD PTR tv65[ebp], eax
  00052	83 7d 80 2f	 cmp	 DWORD PTR tv65[ebp], 47	; 0000002fH
  00056	0f 87 48 08 00
	00		 ja	 $LN144@DataServer
  0005c	8b 4d 80	 mov	 ecx, DWORD PTR tv65[ebp]
  0005f	0f b6 91 00 00
	00 00		 movzx	 edx, BYTE PTR $LN148@DataServer[ecx]
  00066	ff 24 95 00 00
	00 00		 jmp	 DWORD PTR $LN151@DataServer[edx*4]
$LN141@DataServer:

; 79   : 	{
; 80   : 		case 0x00:
; 81   : 			DataServerLoginResult((SDHP_RESULT *)aRecv);

  0006d	8b 45 0c	 mov	 eax, DWORD PTR _aRecv$[ebp]
  00070	50		 push	 eax
  00071	e8 00 00 00 00	 call	 ?DataServerLoginResult@@YAXPAUSDHP_RESULT@@@Z ; DataServerLoginResult
  00076	83 c4 04	 add	 esp, 4

; 82   : 			break;

  00079	e9 26 08 00 00	 jmp	 $LN144@DataServer
$LN140@DataServer:

; 83   : 
; 84   : 		case 0x01:
; 85   : 			JGPGetCharList(aRecv);

  0007e	8b 45 0c	 mov	 eax, DWORD PTR _aRecv$[ebp]
  00081	50		 push	 eax
  00082	e8 00 00 00 00	 call	 ?JGPGetCharList@@YAXPAE@Z ; JGPGetCharList
  00087	83 c4 04	 add	 esp, 4

; 86   : 			break;

  0008a	e9 15 08 00 00	 jmp	 $LN144@DataServer
$LN139@DataServer:

; 87   : 
; 88   : 		case 0x04:
; 89   : 			JGCharacterCreateRequest((SDHP_CREATECHARRESULT *)aRecv);

  0008f	8b 45 0c	 mov	 eax, DWORD PTR _aRecv$[ebp]
  00092	50		 push	 eax
  00093	e8 00 00 00 00	 call	 ?JGCharacterCreateRequest@@YAXPAUSDHP_CREATECHARRESULT@@@Z ; JGCharacterCreateRequest
  00098	83 c4 04	 add	 esp, 4

; 90   : 			break;

  0009b	e9 04 08 00 00	 jmp	 $LN144@DataServer
$LN138@DataServer:

; 91   : 
; 92   : 		case 0x05:
; 93   : 			JGCharDelRequest((SDHP_CHARDELETERESULT *)aRecv);

  000a0	8b 45 0c	 mov	 eax, DWORD PTR _aRecv$[ebp]
  000a3	50		 push	 eax
  000a4	e8 00 00 00 00	 call	 ?JGCharDelRequest@@YAXPAUSDHP_CHARDELETERESULT@@@Z ; JGCharDelRequest
  000a9	83 c4 04	 add	 esp, 4

; 94   : 			break;

  000ac	e9 f3 07 00 00	 jmp	 $LN144@DataServer
$LN137@DataServer:

; 95   : 
; 96   : 		case 0x06:
; 97   : 			JGGetCharacterInfo((SDHP_DBCHAR_INFORESULT *)aRecv);

  000b1	8b 45 0c	 mov	 eax, DWORD PTR _aRecv$[ebp]
  000b4	50		 push	 eax
  000b5	e8 00 00 00 00	 call	 ?JGGetCharacterInfo@@YAXPAUSDHP_DBCHAR_INFORESULT@@@Z ; JGGetCharacterInfo
  000ba	83 c4 04	 add	 esp, 4

; 98   : 			break;

  000bd	e9 e2 07 00 00	 jmp	 $LN144@DataServer
$LN136@DataServer:

; 99   : 
; 100  : 		case 0x08:
; 101  : 			DGGetWarehouseList((SDHP_GETWAREHOUSEDB_SAVE *)aRecv);

  000c2	8b 45 0c	 mov	 eax, DWORD PTR _aRecv$[ebp]
  000c5	50		 push	 eax
  000c6	e8 00 00 00 00	 call	 ?DGGetWarehouseList@@YAXPAUSDHP_GETWAREHOUSEDB_SAVE@@@Z ; DGGetWarehouseList
  000cb	83 c4 04	 add	 esp, 4

; 102  : 			break;

  000ce	e9 d1 07 00 00	 jmp	 $LN144@DataServer
$LN135@DataServer:

; 103  : 
; 104  : 		case 0x10:
; 105  : 			GDGetWarehouseNoItem((SDHP_GETWAREHOUSEDB_RESULT *)aRecv);

  000d3	8b 45 0c	 mov	 eax, DWORD PTR _aRecv$[ebp]
  000d6	50		 push	 eax
  000d7	e8 00 00 00 00	 call	 ?GDGetWarehouseNoItem@@YAXPAUSDHP_GETWAREHOUSEDB_RESULT@@@Z ; GDGetWarehouseNoItem
  000dc	83 c4 04	 add	 esp, 4

; 106  : 			break;

  000df	e9 c0 07 00 00	 jmp	 $LN144@DataServer
$LN134@DataServer:

; 107  : 
; 108  : 			//Season 2.5 Quest Load
; 109  : 		case 0x14:
; 110  : 			g_QuestUtil.Quest3rdLoadInfo(aRecv);

  000e4	8b 45 0c	 mov	 eax, DWORD PTR _aRecv$[ebp]
  000e7	50		 push	 eax
  000e8	b9 00 00 00 00	 mov	 ecx, OFFSET ?g_QuestUtil@@3VCQuestUtil@@A ; g_QuestUtil
  000ed	e8 00 00 00 00	 call	 ?Quest3rdLoadInfo@CQuestUtil@@QAEXPAE@Z ; CQuestUtil::Quest3rdLoadInfo

; 111  : 			break;

  000f2	e9 ad 07 00 00	 jmp	 $LN144@DataServer
$LN133@DataServer:

; 112  : 
; 113  : 		case 0x16://Season 4.5 ChangeCharacterName
; 114  : 			DGChangeNameResult((SDHP_CHANGENAME_RESULT *)aRecv);

  000f7	8b 45 0c	 mov	 eax, DWORD PTR _aRecv$[ebp]
  000fa	50		 push	 eax
  000fb	e8 00 00 00 00	 call	 ?DGChangeNameResult@@YAXPAUSDHP_CHANGENAME_RESULT@@@Z ; DGChangeNameResult
  00100	83 c4 04	 add	 esp, 4

; 115  : 			break;

  00103	e9 9c 07 00 00	 jmp	 $LN144@DataServer
$LN132@DataServer:

; 116  : 
; 117  : #ifdef MUHELPER
; 118  : 		case 0x17:
; 119  : 			g_MUHelper.SendMacro((MUHELPER_MACRO_DS*)aRecv);

  00108	8b 45 0c	 mov	 eax, DWORD PTR _aRecv$[ebp]
  0010b	50		 push	 eax
  0010c	b9 00 00 00 00	 mov	 ecx, OFFSET ?g_MUHelper@@3VMUHelper@@A ; g_MUHelper
  00111	e8 00 00 00 00	 call	 ?SendMacro@MUHelper@@QAEXPAUMUHELPER_MACRO_DS@@@Z ; MUHelper::SendMacro

; 120  : 			break;

  00116	e9 89 07 00 00	 jmp	 $LN144@DataServer
$LN131@DataServer:

; 121  : #endif
; 122  : 
; 123  : 		case 0x30:
; 124  : 			g_MasterLevelSystem.DGRequestMasterLevelInfoLoad(aRecv);

  0011b	8b 45 0c	 mov	 eax, DWORD PTR _aRecv$[ebp]
  0011e	50		 push	 eax
  0011f	b9 00 00 00 00	 mov	 ecx, OFFSET ?g_MasterLevelSystem@@3VCMasterLevelSystem@@A ; g_MasterLevelSystem
  00124	e8 00 00 00 00	 call	 ?DGRequestMasterLevelInfoLoad@CMasterLevelSystem@@QAEXPAE@Z ; CMasterLevelSystem::DGRequestMasterLevelInfoLoad

; 125  : 			break;

  00129	e9 76 07 00 00	 jmp	 $LN144@DataServer
$LN130@DataServer:

; 126  : 
; 127  : 		case 0x52:
; 128  : 			ItemSerialCreateRecv((SDHP_ITEMCREATERECV *)aRecv);

  0012e	8b 45 0c	 mov	 eax, DWORD PTR _aRecv$[ebp]
  00131	50		 push	 eax
  00132	e8 00 00 00 00	 call	 ?ItemSerialCreateRecv@@YAXPAUSDHP_ITEMCREATERECV@@@Z ; ItemSerialCreateRecv
  00137	83 c4 04	 add	 esp, 4

; 129  : 			break;

  0013a	e9 65 07 00 00	 jmp	 $LN144@DataServer
$LN129@DataServer:

; 130  : 
; 131  : 		case 0x56:
; 132  : 			DGRecvPetItemInfo(aRecv);

  0013f	8b 45 0c	 mov	 eax, DWORD PTR _aRecv$[ebp]
  00142	50		 push	 eax
  00143	e8 00 00 00 00	 call	 ?DGRecvPetItemInfo@@YAXPAE@Z ; DGRecvPetItemInfo
  00148	83 c4 04	 add	 esp, 4

; 133  : 			break;

  0014b	e9 54 07 00 00	 jmp	 $LN144@DataServer
$LN128@DataServer:

; 134  : 
; 135  : 		case 0x60:
; 136  : 			DGOptionDataRecv((SDHP_SKILLKEYDATA_SEND *)aRecv);

  00150	8b 45 0c	 mov	 eax, DWORD PTR _aRecv$[ebp]
  00153	50		 push	 eax
  00154	e8 00 00 00 00	 call	 ?DGOptionDataRecv@@YAXPAUSDHP_SKILLKEYDATA_SEND@@@Z ; DGOptionDataRecv
  00159	83 c4 04	 add	 esp, 4

; 137  : 			break;

  0015c	e9 43 07 00 00	 jmp	 $LN144@DataServer
$LN127@DataServer:

; 138  : 
; 139  : 		case 0x80:
; 140  : 			{
; 141  : 				PMSG_DEFAULT2 * lpDef1 = (PMSG_DEFAULT2 *)aRecv;

  00161	8b 45 0c	 mov	 eax, DWORD PTR _aRecv$[ebp]
  00164	89 45 fc	 mov	 DWORD PTR _lpDef1$244998[ebp], eax

; 142  : 
; 143  : 				switch ( lpDef1->subcode )

  00167	8b 45 fc	 mov	 eax, DWORD PTR _lpDef1$244998[ebp]
  0016a	0f b6 48 03	 movzx	 ecx, BYTE PTR [eax+3]
  0016e	89 4d 80	 mov	 DWORD PTR tv85[ebp], ecx
  00171	83 7d 80 1b	 cmp	 DWORD PTR tv85[ebp], 27	; 0000001bH
  00175	0f 87 82 01 00
	00		 ja	 $LN125@DataServer
  0017b	8b 55 80	 mov	 edx, DWORD PTR tv85[ebp]
  0017e	ff 24 95 00 00
	00 00		 jmp	 DWORD PTR $LN152@DataServer[edx*4]
$LN124@DataServer:

; 144  : 				{
; 145  : 					case 0x00:
; 146  : 						GS_DGAnsCastleTotalInfo(aRecv);

  00185	8b 45 0c	 mov	 eax, DWORD PTR _aRecv$[ebp]
  00188	50		 push	 eax
  00189	e8 00 00 00 00	 call	 ?GS_DGAnsCastleTotalInfo@@YAXPAE@Z ; GS_DGAnsCastleTotalInfo
  0018e	83 c4 04	 add	 esp, 4

; 147  : 						break;

  00191	e9 67 01 00 00	 jmp	 $LN125@DataServer
$LN123@DataServer:

; 148  : 
; 149  : 					case 0x01:
; 150  : 						GS_DGAnsOwnerGuildMaster(aRecv);

  00196	8b 45 0c	 mov	 eax, DWORD PTR _aRecv$[ebp]
  00199	50		 push	 eax
  0019a	e8 00 00 00 00	 call	 ?GS_DGAnsOwnerGuildMaster@@YAXPAE@Z ; GS_DGAnsOwnerGuildMaster
  0019f	83 c4 04	 add	 esp, 4

; 151  : 						break;

  001a2	e9 56 01 00 00	 jmp	 $LN125@DataServer
$LN122@DataServer:

; 152  : 
; 153  : 					case 0x03:
; 154  : 						GS_DGAnsCastleNpcBuy(aRecv);

  001a7	8b 45 0c	 mov	 eax, DWORD PTR _aRecv$[ebp]
  001aa	50		 push	 eax
  001ab	e8 00 00 00 00	 call	 ?GS_DGAnsCastleNpcBuy@@YAXPAE@Z ; GS_DGAnsCastleNpcBuy
  001b0	83 c4 04	 add	 esp, 4

; 155  : 						break;

  001b3	e9 45 01 00 00	 jmp	 $LN125@DataServer
$LN121@DataServer:

; 156  : 
; 157  : 					case 0x04:
; 158  : 						GS_DGAnsCastleNpcRepair(aRecv);

  001b8	8b 45 0c	 mov	 eax, DWORD PTR _aRecv$[ebp]
  001bb	50		 push	 eax
  001bc	e8 00 00 00 00	 call	 ?GS_DGAnsCastleNpcRepair@@YAXPAE@Z ; GS_DGAnsCastleNpcRepair
  001c1	83 c4 04	 add	 esp, 4

; 159  : 						break;

  001c4	e9 34 01 00 00	 jmp	 $LN125@DataServer
$LN120@DataServer:

; 160  : 
; 161  : 					case 0x05:
; 162  : 						GS_DGAnsCastleNpcUpgrade(aRecv);

  001c9	8b 45 0c	 mov	 eax, DWORD PTR _aRecv$[ebp]
  001cc	50		 push	 eax
  001cd	e8 00 00 00 00	 call	 ?GS_DGAnsCastleNpcUpgrade@@YAXPAE@Z ; GS_DGAnsCastleNpcUpgrade
  001d2	83 c4 04	 add	 esp, 4

; 163  : 						break;

  001d5	e9 23 01 00 00	 jmp	 $LN125@DataServer
$LN119@DataServer:

; 164  : 
; 165  : 					case 0x06:
; 166  : 						GS_DGAnsTaxInfo(aRecv);

  001da	8b 45 0c	 mov	 eax, DWORD PTR _aRecv$[ebp]
  001dd	50		 push	 eax
  001de	e8 00 00 00 00	 call	 ?GS_DGAnsTaxInfo@@YAXPAE@Z ; GS_DGAnsTaxInfo
  001e3	83 c4 04	 add	 esp, 4

; 167  : 						break;

  001e6	e9 12 01 00 00	 jmp	 $LN125@DataServer
$LN118@DataServer:

; 168  : 
; 169  : 					case 0x07:
; 170  : 						GS_DGAnsTaxRateChange(aRecv);

  001eb	8b 45 0c	 mov	 eax, DWORD PTR _aRecv$[ebp]
  001ee	50		 push	 eax
  001ef	e8 00 00 00 00	 call	 ?GS_DGAnsTaxRateChange@@YAXPAE@Z ; GS_DGAnsTaxRateChange
  001f4	83 c4 04	 add	 esp, 4

; 171  : 						break;

  001f7	e9 01 01 00 00	 jmp	 $LN125@DataServer
$LN117@DataServer:

; 172  : 
; 173  : 					case 0x08:
; 174  : 						GS_DGAnsCastleMoneyChange(aRecv);

  001fc	8b 45 0c	 mov	 eax, DWORD PTR _aRecv$[ebp]
  001ff	50		 push	 eax
  00200	e8 00 00 00 00	 call	 ?GS_DGAnsCastleMoneyChange@@YAXPAE@Z ; GS_DGAnsCastleMoneyChange
  00205	83 c4 04	 add	 esp, 4

; 175  : 						break;

  00208	e9 f0 00 00 00	 jmp	 $LN125@DataServer
$LN116@DataServer:

; 176  : 
; 177  : 					case 0x09:
; 178  : 						GS_DGAnsSiegeDateChange(aRecv);

  0020d	8b 45 0c	 mov	 eax, DWORD PTR _aRecv$[ebp]
  00210	50		 push	 eax
  00211	e8 00 00 00 00	 call	 ?GS_DGAnsSiegeDateChange@@YAXPAE@Z ; GS_DGAnsSiegeDateChange
  00216	83 c4 04	 add	 esp, 4

; 179  : 						break;

  00219	e9 df 00 00 00	 jmp	 $LN125@DataServer
$LN115@DataServer:

; 180  : 
; 181  : 					case 0x0A:
; 182  : 						GS_DGAnsGuildMarkRegInfo(aRecv);

  0021e	8b 45 0c	 mov	 eax, DWORD PTR _aRecv$[ebp]
  00221	50		 push	 eax
  00222	e8 00 00 00 00	 call	 ?GS_DGAnsGuildMarkRegInfo@@YAXPAE@Z ; GS_DGAnsGuildMarkRegInfo
  00227	83 c4 04	 add	 esp, 4

; 183  : 						break;

  0022a	e9 ce 00 00 00	 jmp	 $LN125@DataServer
$LN114@DataServer:

; 184  : 
; 185  : 					case 0x0B:
; 186  : 						GS_DGAnsSiegeEndedChange(aRecv);

  0022f	8b 45 0c	 mov	 eax, DWORD PTR _aRecv$[ebp]
  00232	50		 push	 eax
  00233	e8 00 00 00 00	 call	 ?GS_DGAnsSiegeEndedChange@@YAXPAE@Z ; GS_DGAnsSiegeEndedChange
  00238	83 c4 04	 add	 esp, 4

; 187  : 						break;

  0023b	e9 bd 00 00 00	 jmp	 $LN125@DataServer
$LN113@DataServer:

; 188  : 
; 189  : 					case 0x0C:
; 190  : 						GS_DGAnsCastleOwnerChange(aRecv);

  00240	8b 45 0c	 mov	 eax, DWORD PTR _aRecv$[ebp]
  00243	50		 push	 eax
  00244	e8 00 00 00 00	 call	 ?GS_DGAnsCastleOwnerChange@@YAXPAE@Z ; GS_DGAnsCastleOwnerChange
  00249	83 c4 04	 add	 esp, 4

; 191  : 						break;

  0024c	e9 ac 00 00 00	 jmp	 $LN125@DataServer
$LN112@DataServer:

; 192  : 
; 193  : 					case 0x0D:
; 194  : 						GS_DGAnsRegAttackGuild(aRecv);

  00251	8b 45 0c	 mov	 eax, DWORD PTR _aRecv$[ebp]
  00254	50		 push	 eax
  00255	e8 00 00 00 00	 call	 ?GS_DGAnsRegAttackGuild@@YAXPAE@Z ; GS_DGAnsRegAttackGuild
  0025a	83 c4 04	 add	 esp, 4

; 195  : 						break;

  0025d	e9 9b 00 00 00	 jmp	 $LN125@DataServer
$LN111@DataServer:

; 196  : 
; 197  : 					case 0x0E:
; 198  : 						GS_DGAnsRestartCastleState(aRecv);

  00262	8b 45 0c	 mov	 eax, DWORD PTR _aRecv$[ebp]
  00265	50		 push	 eax
  00266	e8 00 00 00 00	 call	 ?GS_DGAnsRestartCastleState@@YAXPAE@Z ; GS_DGAnsRestartCastleState
  0026b	83 c4 04	 add	 esp, 4

; 199  : 						break;

  0026e	e9 8a 00 00 00	 jmp	 $LN125@DataServer
$LN110@DataServer:

; 200  : 
; 201  : 					case 0x0F:
; 202  : 						GS_DGAnsMapSvrMsgMultiCast(aRecv);

  00273	8b 45 0c	 mov	 eax, DWORD PTR _aRecv$[ebp]
  00276	50		 push	 eax
  00277	e8 00 00 00 00	 call	 ?GS_DGAnsMapSvrMsgMultiCast@@YAXPAE@Z ; GS_DGAnsMapSvrMsgMultiCast
  0027c	83 c4 04	 add	 esp, 4

; 203  : 						break;

  0027f	eb 7c		 jmp	 SHORT $LN125@DataServer
$LN109@DataServer:

; 204  : 
; 205  : 					case 0x10:
; 206  : 						GS_DGAnsRegGuildMark(aRecv);

  00281	8b 45 0c	 mov	 eax, DWORD PTR _aRecv$[ebp]
  00284	50		 push	 eax
  00285	e8 00 00 00 00	 call	 ?GS_DGAnsRegGuildMark@@YAXPAE@Z ; GS_DGAnsRegGuildMark
  0028a	83 c4 04	 add	 esp, 4

; 207  : 						break;

  0028d	eb 6e		 jmp	 SHORT $LN125@DataServer
$LN108@DataServer:

; 208  : 
; 209  : 					case 0x11:
; 210  : 						GS_DGAnsGuildMarkReset(aRecv);

  0028f	8b 45 0c	 mov	 eax, DWORD PTR _aRecv$[ebp]
  00292	50		 push	 eax
  00293	e8 00 00 00 00	 call	 ?GS_DGAnsGuildMarkReset@@YAXPAE@Z ; GS_DGAnsGuildMarkReset
  00298	83 c4 04	 add	 esp, 4

; 211  : 						break;

  0029b	eb 60		 jmp	 SHORT $LN125@DataServer
$LN107@DataServer:

; 212  : 
; 213  : 					case 0x12:
; 214  : 						GS_DGAnsGuildSetGiveUp(aRecv);

  0029d	8b 45 0c	 mov	 eax, DWORD PTR _aRecv$[ebp]
  002a0	50		 push	 eax
  002a1	e8 00 00 00 00	 call	 ?GS_DGAnsGuildSetGiveUp@@YAXPAE@Z ; GS_DGAnsGuildSetGiveUp
  002a6	83 c4 04	 add	 esp, 4

; 215  : 						break;

  002a9	eb 52		 jmp	 SHORT $LN125@DataServer
$LN106@DataServer:

; 216  : 
; 217  : 					case 0x16:
; 218  : 						GS_DGAnsNpcRemove(aRecv);

  002ab	8b 45 0c	 mov	 eax, DWORD PTR _aRecv$[ebp]
  002ae	50		 push	 eax
  002af	e8 00 00 00 00	 call	 ?GS_DGAnsNpcRemove@@YAXPAE@Z ; GS_DGAnsNpcRemove
  002b4	83 c4 04	 add	 esp, 4

; 219  : 						break;

  002b7	eb 44		 jmp	 SHORT $LN125@DataServer
$LN105@DataServer:

; 220  : 
; 221  : 					case 0x17:
; 222  : 						GS_DGAnsCastleStateSync(aRecv);

  002b9	8b 45 0c	 mov	 eax, DWORD PTR _aRecv$[ebp]
  002bc	50		 push	 eax
  002bd	e8 00 00 00 00	 call	 ?GS_DGAnsCastleStateSync@@YAXPAE@Z ; GS_DGAnsCastleStateSync
  002c2	83 c4 04	 add	 esp, 4

; 223  : 						break;

  002c5	eb 36		 jmp	 SHORT $LN125@DataServer
$LN104@DataServer:

; 224  : 
; 225  : 					case 0x18:
; 226  : 						GS_DGAnsCastleTributeMoney(aRecv);

  002c7	8b 45 0c	 mov	 eax, DWORD PTR _aRecv$[ebp]
  002ca	50		 push	 eax
  002cb	e8 00 00 00 00	 call	 ?GS_DGAnsCastleTributeMoney@@YAXPAE@Z ; GS_DGAnsCastleTributeMoney
  002d0	83 c4 04	 add	 esp, 4

; 227  : 						break;

  002d3	eb 28		 jmp	 SHORT $LN125@DataServer
$LN103@DataServer:

; 228  : 
; 229  : 					case 0x19:
; 230  : 						GS_DGAnsResetCastleTaxInfo(aRecv);

  002d5	8b 45 0c	 mov	 eax, DWORD PTR _aRecv$[ebp]
  002d8	50		 push	 eax
  002d9	e8 00 00 00 00	 call	 ?GS_DGAnsResetCastleTaxInfo@@YAXPAE@Z ; GS_DGAnsResetCastleTaxInfo
  002de	83 c4 04	 add	 esp, 4

; 231  : 						break;

  002e1	eb 1a		 jmp	 SHORT $LN125@DataServer
$LN102@DataServer:

; 232  : 
; 233  : 					case 0x1A:
; 234  : 						GS_DGAnsResetSiegeGuildInfo(aRecv);

  002e3	8b 45 0c	 mov	 eax, DWORD PTR _aRecv$[ebp]
  002e6	50		 push	 eax
  002e7	e8 00 00 00 00	 call	 ?GS_DGAnsResetSiegeGuildInfo@@YAXPAE@Z ; GS_DGAnsResetSiegeGuildInfo
  002ec	83 c4 04	 add	 esp, 4

; 235  : 						break;

  002ef	eb 0c		 jmp	 SHORT $LN125@DataServer
$LN101@DataServer:

; 236  : 
; 237  : 					case 0x1B:
; 238  : 						GS_DGAnsResetRegSiegeInfo(aRecv);

  002f1	8b 45 0c	 mov	 eax, DWORD PTR _aRecv$[ebp]
  002f4	50		 push	 eax
  002f5	e8 00 00 00 00	 call	 ?GS_DGAnsResetRegSiegeInfo@@YAXPAE@Z ; GS_DGAnsResetRegSiegeInfo
  002fa	83 c4 04	 add	 esp, 4
$LN125@DataServer:

; 239  : 						break;
; 240  : 				}
; 241  : 			}
; 242  : 			break;

  002fd	e9 a2 05 00 00	 jmp	 $LN144@DataServer
$LN100@DataServer:

; 243  : 
; 244  : 		case 0x81:
; 245  : 			GS_DGAnsCastleInitData(aRecv);

  00302	8b 45 0c	 mov	 eax, DWORD PTR _aRecv$[ebp]
  00305	50		 push	 eax
  00306	e8 00 00 00 00	 call	 ?GS_DGAnsCastleInitData@@YAXPAE@Z ; GS_DGAnsCastleInitData
  0030b	83 c4 04	 add	 esp, 4

; 246  : 			break;

  0030e	e9 91 05 00 00	 jmp	 $LN144@DataServer
$LN99@DataServer:

; 247  : 
; 248  : 		case 0x82:
; 249  : 			GS_DGAnsCastleNpcInfo(aRecv);

  00313	8b 45 0c	 mov	 eax, DWORD PTR _aRecv$[ebp]
  00316	50		 push	 eax
  00317	e8 00 00 00 00	 call	 ?GS_DGAnsCastleNpcInfo@@YAXPAE@Z ; GS_DGAnsCastleNpcInfo
  0031c	83 c4 04	 add	 esp, 4

; 250  : 			break;

  0031f	e9 80 05 00 00	 jmp	 $LN144@DataServer
$LN98@DataServer:

; 251  : 
; 252  : 		case 0x83:
; 253  : 			GS_DGAnsAllGuildMarkRegInfo(aRecv);

  00324	8b 45 0c	 mov	 eax, DWORD PTR _aRecv$[ebp]
  00327	50		 push	 eax
  00328	e8 00 00 00 00	 call	 ?GS_DGAnsAllGuildMarkRegInfo@@YAXPAE@Z ; GS_DGAnsAllGuildMarkRegInfo
  0032d	83 c4 04	 add	 esp, 4

; 254  : 			break;

  00330	e9 6f 05 00 00	 jmp	 $LN144@DataServer
$LN97@DataServer:

; 255  : 
; 256  : 		case 0x84:
; 257  : 			GS_DGAnsFirstCreateNPC(aRecv);

  00335	8b 45 0c	 mov	 eax, DWORD PTR _aRecv$[ebp]
  00338	50		 push	 eax
  00339	e8 00 00 00 00	 call	 ?GS_DGAnsFirstCreateNPC@@YAXPAE@Z ; GS_DGAnsFirstCreateNPC
  0033e	83 c4 04	 add	 esp, 4

; 258  : 			break;

  00341	e9 5e 05 00 00	 jmp	 $LN144@DataServer
$LN96@DataServer:

; 259  : 
; 260  : 		case 0x85:
; 261  : 			GS_DGAnsCalcREgGuildList(aRecv);

  00346	8b 45 0c	 mov	 eax, DWORD PTR _aRecv$[ebp]
  00349	50		 push	 eax
  0034a	e8 00 00 00 00	 call	 ?GS_DGAnsCalcREgGuildList@@YAXPAE@Z ; GS_DGAnsCalcREgGuildList
  0034f	83 c4 04	 add	 esp, 4

; 262  : 			break;

  00352	e9 4d 05 00 00	 jmp	 $LN144@DataServer
$LN95@DataServer:

; 263  : 
; 264  : 		case 0x86:
; 265  : 			GS_DGAnsCsGulidUnionInfo(aRecv);

  00357	8b 45 0c	 mov	 eax, DWORD PTR _aRecv$[ebp]
  0035a	50		 push	 eax
  0035b	e8 00 00 00 00	 call	 ?GS_DGAnsCsGulidUnionInfo@@YAXPAE@Z ; GS_DGAnsCsGulidUnionInfo
  00360	83 c4 04	 add	 esp, 4

; 266  : 			break;

  00363	e9 3c 05 00 00	 jmp	 $LN144@DataServer
$LN94@DataServer:

; 267  : 
; 268  : 		case 0x87:
; 269  : 			GS_DGAnsCsSaveTotalGuildInfo(aRecv);

  00368	8b 45 0c	 mov	 eax, DWORD PTR _aRecv$[ebp]
  0036b	50		 push	 eax
  0036c	e8 00 00 00 00	 call	 ?GS_DGAnsCsSaveTotalGuildInfo@@YAXPAE@Z ; GS_DGAnsCsSaveTotalGuildInfo
  00371	83 c4 04	 add	 esp, 4

; 270  : 			break;

  00374	e9 2b 05 00 00	 jmp	 $LN144@DataServer
$LN93@DataServer:

; 271  : 
; 272  : 		case 0x88:
; 273  : 			GS_DGAnsCsLoadTotalGuildInfo(aRecv);

  00379	8b 45 0c	 mov	 eax, DWORD PTR _aRecv$[ebp]
  0037c	50		 push	 eax
  0037d	e8 00 00 00 00	 call	 ?GS_DGAnsCsLoadTotalGuildInfo@@YAXPAE@Z ; GS_DGAnsCsLoadTotalGuildInfo
  00382	83 c4 04	 add	 esp, 4

; 274  : 			break;

  00385	e9 1a 05 00 00	 jmp	 $LN144@DataServer
$LN92@DataServer:

; 275  : 
; 276  : 		case 0x89:
; 277  : 			GS_DGAnsCastleNpcUpdate(aRecv);

  0038a	8b 45 0c	 mov	 eax, DWORD PTR _aRecv$[ebp]
  0038d	50		 push	 eax
  0038e	e8 00 00 00 00	 call	 ?GS_DGAnsCastleNpcUpdate@@YAXPAE@Z ; GS_DGAnsCastleNpcUpdate
  00393	83 c4 04	 add	 esp, 4

; 278  : 			break;

  00396	e9 09 05 00 00	 jmp	 $LN144@DataServer
$LN91@DataServer:

; 279  : 
; 280  : 		case 0xB0:
; 281  : 			DGAnsCrywolfSync(aRecv);

  0039b	8b 45 0c	 mov	 eax, DWORD PTR _aRecv$[ebp]
  0039e	50		 push	 eax
  0039f	e8 00 00 00 00	 call	 ?DGAnsCrywolfSync@@YAXPAE@Z ; DGAnsCrywolfSync
  003a4	83 c4 04	 add	 esp, 4

; 282  : 			break;

  003a7	e9 f8 04 00 00	 jmp	 $LN144@DataServer
$LN90@DataServer:

; 283  : 
; 284  : 		case 0xB1:
; 285  : 			DGAnsCrywolfInfoLoad(aRecv);

  003ac	8b 45 0c	 mov	 eax, DWORD PTR _aRecv$[ebp]
  003af	50		 push	 eax
  003b0	e8 00 00 00 00	 call	 ?DGAnsCrywolfInfoLoad@@YAXPAE@Z ; DGAnsCrywolfInfoLoad
  003b5	83 c4 04	 add	 esp, 4

; 286  : 			break;

  003b8	e9 e7 04 00 00	 jmp	 $LN144@DataServer
$LN89@DataServer:

; 287  : 
; 288  : 		case 0xB2:
; 289  : 			DGAnsCrywolfInfoSave(aRecv);

  003bd	8b 45 0c	 mov	 eax, DWORD PTR _aRecv$[ebp]
  003c0	50		 push	 eax
  003c1	e8 00 00 00 00	 call	 ?DGAnsCrywolfInfoSave@@YAXPAE@Z ; DGAnsCrywolfInfoSave
  003c6	83 c4 04	 add	 esp, 4

; 290  : 			break;

  003c9	e9 d6 04 00 00	 jmp	 $LN144@DataServer
$LN88@DataServer:

; 291  : 
; 292  : 		case 0xCF:
; 293  : 			DGMoveOtherServer((SDHP_CHARACTER_TRANSFER_RESULT *)aRecv);

  003ce	8b 45 0c	 mov	 eax, DWORD PTR _aRecv$[ebp]
  003d1	50		 push	 eax
  003d2	e8 00 00 00 00	 call	 ?DGMoveOtherServer@@YAXPAUSDHP_CHARACTER_TRANSFER_RESULT@@@Z ; DGMoveOtherServer
  003d7	83 c4 04	 add	 esp, 4

; 294  : 			break;

  003da	e9 c5 04 00 00	 jmp	 $LN144@DataServer
$LN87@DataServer:

; 295  : 
; 296  : 		case 0xD0:
; 297  : 			{
; 298  : 				PMSG_DEFAULT2 * lpMsg = (PMSG_DEFAULT2 *)aRecv;

  003df	8b 45 0c	 mov	 eax, DWORD PTR _aRecv$[ebp]
  003e2	89 45 f8	 mov	 DWORD PTR _lpMsg$245043[ebp], eax

; 299  : 
; 300  : 				switch ( lpMsg->subcode )

  003e5	8b 45 f8	 mov	 eax, DWORD PTR _lpMsg$245043[ebp]
  003e8	0f b6 48 03	 movzx	 ecx, BYTE PTR [eax+3]
  003ec	89 4d 80	 mov	 DWORD PTR tv158[ebp], ecx
  003ef	8b 55 80	 mov	 edx, DWORD PTR tv158[ebp]
  003f2	83 ea 02	 sub	 edx, 2
  003f5	89 55 80	 mov	 DWORD PTR tv158[ebp], edx
  003f8	83 7d 80 06	 cmp	 DWORD PTR tv158[ebp], 6
  003fc	77 48		 ja	 SHORT $LN85@DataServer
  003fe	8b 45 80	 mov	 eax, DWORD PTR tv158[ebp]
  00401	ff 24 85 00 00
	00 00		 jmp	 DWORD PTR $LN153@DataServer[eax*4]
$LN84@DataServer:

; 301  : 				{
; 302  : 					case 0x02:
; 303  : 						g_CashItemPeriodSystem.DGAnsPeriodItemInquiry((PMSG_ANS_PERIODITEM_INQUIRY *)aRecv);

  00408	8b 45 0c	 mov	 eax, DWORD PTR _aRecv$[ebp]
  0040b	50		 push	 eax
  0040c	b9 00 00 00 00	 mov	 ecx, OFFSET ?g_CashItemPeriodSystem@@3VCCashItemPeriodSystem@@A ; g_CashItemPeriodSystem
  00411	e8 00 00 00 00	 call	 ?DGAnsPeriodItemInquiry@CCashItemPeriodSystem@@QAEXPAUPMSG_ANS_PERIODITEM_INQUIRY@@@Z ; CCashItemPeriodSystem::DGAnsPeriodItemInquiry

; 304  : 						break;

  00416	eb 2e		 jmp	 SHORT $LN85@DataServer
$LN83@DataServer:

; 305  : 
; 306  : 					case 0x04:
; 307  : 						g_CashItemPeriodSystem.DGAnsPeriodItemInsert((PMSG_ANS_PERIODITEM_INSERT *)aRecv);

  00418	8b 45 0c	 mov	 eax, DWORD PTR _aRecv$[ebp]
  0041b	50		 push	 eax
  0041c	b9 00 00 00 00	 mov	 ecx, OFFSET ?g_CashItemPeriodSystem@@3VCCashItemPeriodSystem@@A ; g_CashItemPeriodSystem
  00421	e8 00 00 00 00	 call	 ?DGAnsPeriodItemInsert@CCashItemPeriodSystem@@QAEXPAUPMSG_ANS_PERIODITEM_INSERT@@@Z ; CCashItemPeriodSystem::DGAnsPeriodItemInsert

; 308  : 						break;

  00426	eb 1e		 jmp	 SHORT $LN85@DataServer
$LN82@DataServer:

; 309  : 
; 310  : 					case 0x06:
; 311  : 						g_CashItemPeriodSystem.DGAnsPeriodItemList((PMSG_ANS_PERIODITEM_LIST *)aRecv);

  00428	8b 45 0c	 mov	 eax, DWORD PTR _aRecv$[ebp]
  0042b	50		 push	 eax
  0042c	b9 00 00 00 00	 mov	 ecx, OFFSET ?g_CashItemPeriodSystem@@3VCCashItemPeriodSystem@@A ; g_CashItemPeriodSystem
  00431	e8 00 00 00 00	 call	 ?DGAnsPeriodItemList@CCashItemPeriodSystem@@QAEXPAUPMSG_ANS_PERIODITEM_LIST@@@Z ; CCashItemPeriodSystem::DGAnsPeriodItemList

; 312  : 						break;

  00436	eb 0e		 jmp	 SHORT $LN85@DataServer
$LN81@DataServer:

; 313  : 
; 314  : 					case 0x08:
; 315  : 						g_CashItemPeriodSystem.DGAnsPeriodItemUpdate((PMSG_ANS_PERIODITEM_UPDATE *)aRecv);

  00438	8b 45 0c	 mov	 eax, DWORD PTR _aRecv$[ebp]
  0043b	50		 push	 eax
  0043c	b9 00 00 00 00	 mov	 ecx, OFFSET ?g_CashItemPeriodSystem@@3VCCashItemPeriodSystem@@A ; g_CashItemPeriodSystem
  00441	e8 00 00 00 00	 call	 ?DGAnsPeriodItemUpdate@CCashItemPeriodSystem@@QAEXPAUPMSG_ANS_PERIODITEM_UPDATE@@@Z ; CCashItemPeriodSystem::DGAnsPeriodItemUpdate
$LN85@DataServer:

; 316  : 						break;
; 317  : 				}
; 318  : 			}
; 319  : 			break;

  00446	e9 59 04 00 00	 jmp	 $LN144@DataServer
$LN80@DataServer:

; 320  : 
; 321  : 		//Season3
; 322  : 		case 0xA1:
; 323  : 			DGSummonerStateUpdatedSend((PMSG_ANS_SUMMONER_CREATE *)aRecv);

  0044b	8b 45 0c	 mov	 eax, DWORD PTR _aRecv$[ebp]
  0044e	50		 push	 eax
  0044f	e8 00 00 00 00	 call	 ?DGSummonerStateUpdatedSend@@YAXPAUPMSG_ANS_SUMMONER_CREATE@@@Z ; DGSummonerStateUpdatedSend
  00454	83 c4 04	 add	 esp, 4

; 324  : 			break;

  00457	e9 48 04 00 00	 jmp	 $LN144@DataServer
$LN79@DataServer:

; 325  : 		case 0xA2:
; 326  : 			DGSummonerStateRecv((PMSG_ANS_SUMMONER_STATUS *)aRecv);

  0045c	8b 45 0c	 mov	 eax, DWORD PTR _aRecv$[ebp]
  0045f	50		 push	 eax
  00460	e8 00 00 00 00	 call	 ?DGSummonerStateRecv@@YAXPAUPMSG_ANS_SUMMONER_STATUS@@@Z ; DGSummonerStateRecv
  00465	83 c4 04	 add	 esp, 4

; 327  : 			break;

  00468	e9 37 04 00 00	 jmp	 $LN144@DataServer
$LN78@DataServer:

; 328  : 
; 329  : 		case 0xFF:	// Test Packet
; 330  : 			{
; 331  : 				PMSG_TEST * pMsg = (PMSG_TEST *)aRecv;

  0046d	8b 45 0c	 mov	 eax, DWORD PTR _aRecv$[ebp]
  00470	89 45 f4	 mov	 DWORD PTR _pMsg$245062[ebp], eax

; 332  : 
; 333  : 				LogAddC(2, "error-L2DataServer RECV : %d (%d)", aLen, pMsg->count);

  00473	8b 45 f4	 mov	 eax, DWORD PTR _pMsg$245062[ebp]
  00476	8b 88 d0 07 00
	00		 mov	 ecx, DWORD PTR [eax+2000]
  0047c	51		 push	 ecx
  0047d	8b 55 10	 mov	 edx, DWORD PTR _aLen$[ebp]
  00480	52		 push	 edx
  00481	68 00 00 00 00	 push	 OFFSET ??_C@_0CC@MBCBAID@error?9L2DataServer?5RECV?5?3?5?$CFd?5?$CI?$CFd@
  00486	6a 02		 push	 2
  00488	ff 15 00 00 00
	00		 call	 DWORD PTR ?LogAddC@@3P6AXEPADZZA ; LogAddC
  0048e	83 c4 10	 add	 esp, 16			; 00000010H

; 334  : 			}
; 335  : 			break;

  00491	e9 0e 04 00 00	 jmp	 $LN144@DataServer

; 336  : 
; 337  : 		case 0xE6:
; 338  : #ifdef OLDCASHSHOP
; 339  : 			DGRequestWcoinInfoLoad(aRecv);
; 340  : #endif
; 341  : 			break;

  00496	e9 09 04 00 00	 jmp	 $LN144@DataServer
$LN75@DataServer:

; 342  : 
; 343  : 		case 0xE0:
; 344  : 			if(g_ExLicense.user.Rage)
; 345  : 			{
; 346  : 				//gSystemOfRage.RecvDSProtocol((DSRageUser *)aRecv);
; 347  : 			}
; 348  : 			break;

  0049b	e9 04 04 00 00	 jmp	 $LN144@DataServer
$LN74@DataServer:

; 349  : 
; 350  : 		case 0xF8: // Gens System
; 351  : 			{
; 352  : 				if(gGENS)

  004a0	83 3d 00 00 00
	00 00		 cmp	 DWORD PTR ?gGENS@@3HA, 0 ; gGENS
  004a7	74 61		 je	 SHORT $LN73@DataServer

; 353  : 				{
; 354  : 					PMSG_DEFAULT2 * lpMsg = (PMSG_DEFAULT2 *)aRecv;

  004a9	8b 45 0c	 mov	 eax, DWORD PTR _aRecv$[ebp]
  004ac	89 45 f0	 mov	 DWORD PTR _lpMsg$245070[ebp], eax

; 355  : 					// ----
; 356  : 					switch(lpMsg->subcode)

  004af	8b 45 f0	 mov	 eax, DWORD PTR _lpMsg$245070[ebp]
  004b2	0f b6 48 03	 movzx	 ecx, BYTE PTR [eax+3]
  004b6	89 4d 80	 mov	 DWORD PTR tv181[ebp], ecx
  004b9	8b 55 80	 mov	 edx, DWORD PTR tv181[ebp]
  004bc	83 ea 01	 sub	 edx, 1
  004bf	89 55 80	 mov	 DWORD PTR tv181[ebp], edx
  004c2	83 7d 80 04	 cmp	 DWORD PTR tv181[ebp], 4
  004c6	77 42		 ja	 SHORT $LN73@DataServer
  004c8	8b 45 80	 mov	 eax, DWORD PTR tv181[ebp]
  004cb	ff 24 85 00 00
	00 00		 jmp	 DWORD PTR $LN154@DataServer[eax*4]
$LN70@DataServer:

; 357  : 					{
; 358  : 					case 0x01: //-> Get member info
; 359  : 						{
; 360  : 							DGAnsGensInfo((PMSG_ANS_GENS_INFO_EXDB*)aRecv);

  004d2	8b 45 0c	 mov	 eax, DWORD PTR _aRecv$[ebp]
  004d5	50		 push	 eax
  004d6	e8 00 00 00 00	 call	 ?DGAnsGensInfo@@YAXPAUPMSG_ANS_GENS_INFO_EXDB@@@Z ; DGAnsGensInfo
  004db	83 c4 04	 add	 esp, 4

; 361  : 						}
; 362  : 						break;

  004de	eb 2a		 jmp	 SHORT $LN73@DataServer
$LN69@DataServer:

; 363  : 						// --
; 364  : 					case 0x03: //-> Register new member
; 365  : 						{
; 366  : 							DGAnsRegGensMember((PMSG_ANS_REG_GENS_MEMBER_EXDB*)aRecv);

  004e0	8b 45 0c	 mov	 eax, DWORD PTR _aRecv$[ebp]
  004e3	50		 push	 eax
  004e4	e8 00 00 00 00	 call	 ?DGAnsRegGensMember@@YAXPAUPMSG_ANS_REG_GENS_MEMBER_EXDB@@@Z ; DGAnsRegGensMember
  004e9	83 c4 04	 add	 esp, 4

; 367  : 						}
; 368  : 						break;

  004ec	eb 1c		 jmp	 SHORT $LN73@DataServer
$LN68@DataServer:

; 369  : 						// --
; 370  : 					case 0x04: //-> Delete member
; 371  : 						{
; 372  : 							 DGAnsSecedeGensMember((PMSG_ANS_SECEDE_GENS_MEMBER_EXDB*)aRecv);

  004ee	8b 45 0c	 mov	 eax, DWORD PTR _aRecv$[ebp]
  004f1	50		 push	 eax
  004f2	e8 00 00 00 00	 call	 ?DGAnsSecedeGensMember@@YAXPAUPMSG_ANS_SECEDE_GENS_MEMBER_EXDB@@@Z ; DGAnsSecedeGensMember
  004f7	83 c4 04	 add	 esp, 4

; 373  : 						}
; 374  : 						break;

  004fa	eb 0e		 jmp	 SHORT $LN73@DataServer
$LN67@DataServer:

; 375  : 						// --
; 376  : 					case 0x05: //-> Reward answer
; 377  : 						{
; 378  : 							gGensSystem.DGRewardAns((PMSG_GENS_REWARD_ANS*)aRecv);

  004fc	8b 45 0c	 mov	 eax, DWORD PTR _aRecv$[ebp]
  004ff	50		 push	 eax
  00500	b9 00 00 00 00	 mov	 ecx, OFFSET ?gGensSystem@@3VGensSystem@@A ; gGensSystem
  00505	e8 00 00 00 00	 call	 ?DGRewardAns@GensSystem@@QAEXPAUPMSG_GENS_REWARD_ANS@@@Z ; GensSystem::DGRewardAns
$LN73@DataServer:

; 379  : 						}
; 380  : 						break;
; 381  : 					}
; 382  : 				}
; 383  : 			}
; 384  : 			break;

  0050a	e9 95 03 00 00	 jmp	 $LN144@DataServer
$LN66@DataServer:

; 385  : 			// --
; 386  : #ifdef GAMESHOP
; 387  : 		case 0xD3:
; 388  : 			{
; 389  : 				PWMSG_HEAD2 * lpMsg2	= (PWMSG_HEAD2*)aRecv;

  0050f	8b 45 0c	 mov	 eax, DWORD PTR _aRecv$[ebp]
  00512	89 45 ec	 mov	 DWORD PTR _lpMsg2$245085[ebp], eax

; 390  : 				// ----
; 391  : 				switch(lpMsg2->subcode)

  00515	8b 45 ec	 mov	 eax, DWORD PTR _lpMsg2$245085[ebp]
  00518	8a 48 04	 mov	 cl, BYTE PTR [eax+4]
  0051b	88 4d 80	 mov	 BYTE PTR tv191[ebp], cl
  0051e	80 7d 80 01	 cmp	 BYTE PTR tv191[ebp], 1
  00522	74 02		 je	 SHORT $LN63@DataServer
  00524	eb 0e		 jmp	 SHORT $LN64@DataServer
$LN63@DataServer:

; 392  : 				{
; 393  : 				case 1:
; 394  : 					{
; 395  : 						gGameShop.DGGetStorage((GAMESHOP_GD_STORAGE*)aRecv);

  00526	8b 45 0c	 mov	 eax, DWORD PTR _aRecv$[ebp]
  00529	50		 push	 eax
  0052a	b9 00 00 00 00	 mov	 ecx, OFFSET ?gGameShop@@3VGameShop@@A ; gGameShop
  0052f	e8 00 00 00 00	 call	 ?DGGetStorage@GameShop@@QAEXPAUGAMESHOP_GD_STORAGE@@@Z ; GameShop::DGGetStorage
$LN64@DataServer:

; 396  : 					}
; 397  : 					break;
; 398  : 				}
; 399  : 			}
; 400  : 			break;

  00534	e9 6b 03 00 00	 jmp	 $LN144@DataServer
$LN62@DataServer:

; 401  : 			// --
; 402  : 
; 403  : 		case 0xD2:	//-> GameShop
; 404  : 			{
; 405  : 				PMSG_DEFAULT2 * lpMsg = (PMSG_DEFAULT2 *)aRecv;

  00539	8b 45 0c	 mov	 eax, DWORD PTR _aRecv$[ebp]
  0053c	89 45 e8	 mov	 DWORD PTR _lpMsg$245094[ebp], eax

; 406  : 				// ----
; 407  : 				switch(lpMsg->subcode)

  0053f	8b 45 e8	 mov	 eax, DWORD PTR _lpMsg$245094[ebp]
  00542	8a 48 03	 mov	 cl, BYTE PTR [eax+3]
  00545	88 4d 80	 mov	 BYTE PTR tv199[ebp], cl
  00548	80 7d 80 02	 cmp	 BYTE PTR tv199[ebp], 2
  0054c	74 02		 je	 SHORT $LN59@DataServer
  0054e	eb 0e		 jmp	 SHORT $LN60@DataServer
$LN59@DataServer:

; 408  : 				{
; 409  : 				case 2:	//-> Answer point
; 410  : 					{
; 411  : 						gGameShop.DGGetPoint((GAMESHOP_DG_GET_POINT*)aRecv);

  00550	8b 45 0c	 mov	 eax, DWORD PTR _aRecv$[ebp]
  00553	50		 push	 eax
  00554	b9 00 00 00 00	 mov	 ecx, OFFSET ?gGameShop@@3VGameShop@@A ; gGameShop
  00559	e8 00 00 00 00	 call	 ?DGGetPoint@GameShop@@QAEXPAUGAMESHOP_DG_GET_POINT@@@Z ; GameShop::DGGetPoint
$LN60@DataServer:

; 412  : 					}
; 413  : 					break;
; 414  : 				}
; 415  : 			}
; 416  : 			break;

  0055e	e9 41 03 00 00	 jmp	 $LN144@DataServer
$LN58@DataServer:

; 417  : #endif
; 418  : #ifdef LUCKYITEM
; 419  : 		case 0xD4:	//-> LuckyItem Select
; 420  : 			{
; 421  : 				g_LuckyItemManager.DGAnsLuckyItemList((PMSG_ANS_LUCKYITEM_SELECT*)aRecv);

  00563	8b 45 0c	 mov	 eax, DWORD PTR _aRecv$[ebp]
  00566	50		 push	 eax
  00567	b9 00 00 00 00	 mov	 ecx, OFFSET ?g_LuckyItemManager@@3ULuckyItemManager@@A ; g_LuckyItemManager
  0056c	e8 00 00 00 00	 call	 ?DGAnsLuckyItemList@LuckyItemManager@@QAEXPAUPMSG_ANS_LUCKYITEM_SELECT@@@Z ; LuckyItemManager::DGAnsLuckyItemList

; 422  : 			}
; 423  : 			break;

  00571	e9 2e 03 00 00	 jmp	 $LN144@DataServer
$LN57@DataServer:

; 424  : #endif
; 425  : #ifdef PERIOD
; 426  : 		case 0xD1:	//-> PeriodItemEx Main
; 427  : 			{
; 428  : 				PMSG_DEFAULT2 * lpMsg = (PMSG_DEFAULT2 *)aRecv;

  00576	8b 45 0c	 mov	 eax, DWORD PTR _aRecv$[ebp]
  00579	89 45 e4	 mov	 DWORD PTR _lpMsg$245105[ebp], eax

; 429  : 				// ----
; 430  : 				switch(lpMsg->subcode)

  0057c	8b 45 e4	 mov	 eax, DWORD PTR _lpMsg$245105[ebp]
  0057f	0f b6 48 03	 movzx	 ecx, BYTE PTR [eax+3]
  00583	89 4d 80	 mov	 DWORD PTR tv209[ebp], ecx
  00586	8b 55 80	 mov	 edx, DWORD PTR tv209[ebp]
  00589	83 ea 01	 sub	 edx, 1
  0058c	89 55 80	 mov	 DWORD PTR tv209[ebp], edx
  0058f	83 7d 80 04	 cmp	 DWORD PTR tv209[ebp], 4
  00593	77 58		 ja	 SHORT $LN55@DataServer
  00595	8b 45 80	 mov	 eax, DWORD PTR tv209[ebp]
  00598	ff 24 85 00 00
	00 00		 jmp	 DWORD PTR $LN155@DataServer[eax*4]
$LN54@DataServer:

; 431  : 				{
; 432  : 				case 1:
; 433  : 					g_PeriodItemEx.DGPeriodItemExInsert((PMSG_ANS_PERIODITEMEX_INSERT*)aRecv);

  0059f	8b 45 0c	 mov	 eax, DWORD PTR _aRecv$[ebp]
  005a2	50		 push	 eax
  005a3	b9 00 00 00 00	 mov	 ecx, OFFSET ?g_PeriodItemEx@@3VCPeriodItemEx@@A ; g_PeriodItemEx
  005a8	e8 00 00 00 00	 call	 ?DGPeriodItemExInsert@CPeriodItemEx@@QAEXPAUPMSG_ANS_PERIODITEMEX_INSERT@@@Z ; CPeriodItemEx::DGPeriodItemExInsert

; 434  : 					break;

  005ad	eb 3e		 jmp	 SHORT $LN55@DataServer
$LN53@DataServer:

; 435  : 				case 2:
; 436  : 					g_PeriodItemEx.DGPeriodItemExDelete((PMSG_ANS_PERIODITEMEX_DELETE*)aRecv);

  005af	8b 45 0c	 mov	 eax, DWORD PTR _aRecv$[ebp]
  005b2	50		 push	 eax
  005b3	b9 00 00 00 00	 mov	 ecx, OFFSET ?g_PeriodItemEx@@3VCPeriodItemEx@@A ; g_PeriodItemEx
  005b8	e8 00 00 00 00	 call	 ?DGPeriodItemExDelete@CPeriodItemEx@@QAEXPAUPMSG_ANS_PERIODITEMEX_DELETE@@@Z ; CPeriodItemEx::DGPeriodItemExDelete

; 437  : 					break;

  005bd	eb 2e		 jmp	 SHORT $LN55@DataServer
$LN52@DataServer:

; 438  : 				case 3:
; 439  : 					g_PeriodItemEx.DGPeriodItemExExpiredItemList((PMSG_ANS_PERIODITEMEX_EXPIRED_ITEMLIST*)aRecv);

  005bf	8b 45 0c	 mov	 eax, DWORD PTR _aRecv$[ebp]
  005c2	50		 push	 eax
  005c3	b9 00 00 00 00	 mov	 ecx, OFFSET ?g_PeriodItemEx@@3VCPeriodItemEx@@A ; g_PeriodItemEx
  005c8	e8 00 00 00 00	 call	 ?DGPeriodItemExExpiredItemList@CPeriodItemEx@@QAEXPAUPMSG_ANS_PERIODITEMEX_EXPIRED_ITEMLIST@@@Z ; CPeriodItemEx::DGPeriodItemExExpiredItemList

; 440  : 					break;

  005cd	eb 1e		 jmp	 SHORT $LN55@DataServer
$LN51@DataServer:

; 441  : 				case 4:
; 442  : 					g_PeriodItemEx.DGPeriodItemExListCount((PMSG_ANS_PERIODITEMEX_LIST_COUNT*)aRecv);

  005cf	8b 45 0c	 mov	 eax, DWORD PTR _aRecv$[ebp]
  005d2	50		 push	 eax
  005d3	b9 00 00 00 00	 mov	 ecx, OFFSET ?g_PeriodItemEx@@3VCPeriodItemEx@@A ; g_PeriodItemEx
  005d8	e8 00 00 00 00	 call	 ?DGPeriodItemExListCount@CPeriodItemEx@@QAEXPAUPMSG_ANS_PERIODITEMEX_LIST_COUNT@@@Z ; CPeriodItemEx::DGPeriodItemExListCount

; 443  : 					break;

  005dd	eb 0e		 jmp	 SHORT $LN55@DataServer
$LN50@DataServer:

; 444  : 				case 5:
; 445  : 					g_PeriodItemEx.DGPeriodItemExList((PMSG_ANS_PERIODITEMEX_LIST*)aRecv);

  005df	8b 45 0c	 mov	 eax, DWORD PTR _aRecv$[ebp]
  005e2	50		 push	 eax
  005e3	b9 00 00 00 00	 mov	 ecx, OFFSET ?g_PeriodItemEx@@3VCPeriodItemEx@@A ; g_PeriodItemEx
  005e8	e8 00 00 00 00	 call	 ?DGPeriodItemExList@CPeriodItemEx@@QAEXPAUPMSG_ANS_PERIODITEMEX_LIST@@@Z ; CPeriodItemEx::DGPeriodItemExList
$LN55@DataServer:

; 446  : 					break;
; 447  : 				}
; 448  : 			}
; 449  : 			break;

  005ed	e9 b2 02 00 00	 jmp	 $LN144@DataServer
$LN49@DataServer:

; 450  : #endif
; 451  : #ifdef EXPINV
; 452  : 		case 0xD5:
; 453  : 			{
; 454  : 				DGUpdateExtendedInvenCountResult((SDHP_ANS_SET_EXTENDEDINVEN_COUNT*)aRecv);

  005f2	8b 45 0c	 mov	 eax, DWORD PTR _aRecv$[ebp]
  005f5	50		 push	 eax
  005f6	e8 00 00 00 00	 call	 ?DGUpdateExtendedInvenCountResult@@YAXPAUSDHP_ANS_SET_EXTENDEDINVEN_COUNT@@@Z ; DGUpdateExtendedInvenCountResult
  005fb	83 c4 04	 add	 esp, 4

; 455  : 			}
; 456  : 			break;

  005fe	e9 a1 02 00 00	 jmp	 $LN144@DataServer
$LN48@DataServer:

; 457  : 			// --
; 458  : 		case 0xD6:
; 459  : 			{
; 460  : 				DGUpdateExtendedWarehouseResult((SDHP_ANS_SET_EXTENDEDWAREHOUSE_COUNT*)aRecv);

  00603	8b 45 0c	 mov	 eax, DWORD PTR _aRecv$[ebp]
  00606	50		 push	 eax
  00607	e8 00 00 00 00	 call	 ?DGUpdateExtendedWarehouseResult@@YAXPAUSDHP_ANS_SET_EXTENDEDWAREHOUSE_COUNT@@@Z ; DGUpdateExtendedWarehouseResult
  0060c	83 c4 04	 add	 esp, 4

; 461  : 			}
; 462  : 			break;

  0060f	e9 90 02 00 00	 jmp	 $LN144@DataServer
$LN47@DataServer:

; 463  : #endif
; 464  : 		case 0xE2:
; 465  : 			{
; 466  : 				PMSG_DEFAULT2 * lpMsg = (PMSG_DEFAULT2 *)aRecv;

  00614	8b 45 0c	 mov	 eax, DWORD PTR _aRecv$[ebp]
  00617	89 45 e0	 mov	 DWORD PTR _lpMsg$245126[ebp], eax

; 467  : 				switch(lpMsg->subcode)

  0061a	8b 45 e0	 mov	 eax, DWORD PTR _lpMsg$245126[ebp]
  0061d	8a 48 03	 mov	 cl, BYTE PTR [eax+3]
  00620	88 4d 80	 mov	 BYTE PTR tv226[ebp], cl
  00623	80 7d 80 00	 cmp	 BYTE PTR tv226[ebp], 0
  00627	74 0e		 je	 SHORT $LN44@DataServer
  00629	80 7d 80 01	 cmp	 BYTE PTR tv226[ebp], 1
  0062d	74 16		 je	 SHORT $LN43@DataServer
  0062f	80 7d 80 02	 cmp	 BYTE PTR tv226[ebp], 2
  00633	74 2b		 je	 SHORT $LN41@DataServer
  00635	eb 37		 jmp	 SHORT $LN45@DataServer
$LN44@DataServer:

; 468  : 				{
; 469  : 				case 0x00:
; 470  : 					{
; 471  : 						DSBanSystem((BAN_CHAR_DS *)aRecv);

  00637	8b 45 0c	 mov	 eax, DWORD PTR _aRecv$[ebp]
  0063a	50		 push	 eax
  0063b	e8 00 00 00 00	 call	 ?DSBanSystem@@YAXPAUBAN_CHAR_DS@@@Z ; DSBanSystem
  00640	83 c4 04	 add	 esp, 4

; 472  : 					}
; 473  : 					break;

  00643	eb 29		 jmp	 SHORT $LN45@DataServer
$LN43@DataServer:

; 474  : 
; 475  : 				case 0x01:
; 476  : 					if(g_ExLicense.user.WinQuest)

  00645	0f b6 05 ca 00
	00 00		 movzx	 eax, BYTE PTR ?g_ExLicense@@3VCExLicense@@A+202
  0064c	85 c0		 test	 eax, eax
  0064e	74 0e		 je	 SHORT $LN42@DataServer

; 477  : 					{
; 478  : 						gWinQuestSystem.RecvQuestInfo((DGQuestUserInfo*)aRecv);

  00650	8b 45 0c	 mov	 eax, DWORD PTR _aRecv$[ebp]
  00653	50		 push	 eax
  00654	b9 00 00 00 00	 mov	 ecx, OFFSET ?gWinQuestSystem@@3VcWinQuestSystem@@A ; gWinQuestSystem
  00659	e8 00 00 00 00	 call	 ?RecvQuestInfo@cWinQuestSystem@@QAEXPAUDGQuestUserInfo@@@Z ; cWinQuestSystem::RecvQuestInfo
$LN42@DataServer:

; 479  : 					}
; 480  : 					break;

  0065e	eb 0e		 jmp	 SHORT $LN45@DataServer
$LN41@DataServer:

; 481  : 				case 0x02:
; 482  : 					{
; 483  : 						gBrotherhood.DG_RecvBrotherCount((DG_CheckBrother*)aRecv);

  00660	8b 45 0c	 mov	 eax, DWORD PTR _aRecv$[ebp]
  00663	50		 push	 eax
  00664	b9 00 00 00 00	 mov	 ecx, OFFSET ?gBrotherhood@@3VBrotherhood@@A ; gBrotherhood
  00669	e8 00 00 00 00	 call	 ?DG_RecvBrotherCount@Brotherhood@@QAEXPAUDG_CheckBrother@@@Z ; Brotherhood::DG_RecvBrotherCount
$LN45@DataServer:

; 484  : 					}
; 485  : 					break;
; 486  : 
; 487  : 				}
; 488  : 			}
; 489  : 			break;

  0066e	e9 31 02 00 00	 jmp	 $LN144@DataServer
$LN40@DataServer:

; 490  : 		case 0xE3:
; 491  : 			{
; 492  : 				gRanking.RecvDS((DGCharTop*)aRecv);

  00673	8b 45 0c	 mov	 eax, DWORD PTR _aRecv$[ebp]
  00676	50		 push	 eax
  00677	b9 00 00 00 00	 mov	 ecx, OFFSET ?gRanking@@3VcRanking@@A ; gRanking
  0067c	e8 00 00 00 00	 call	 ?RecvDS@cRanking@@QAEXPAUDGCharTop@@@Z ; cRanking::RecvDS

; 493  : 			}
; 494  : 			break;

  00681	e9 1e 02 00 00	 jmp	 $LN144@DataServer

; 495  : 		case 0xE4:
; 496  : 			{
; 497  : 				
; 498  : 			}
; 499  : 			break;

  00686	e9 19 02 00 00	 jmp	 $LN144@DataServer
$LN38@DataServer:

; 500  : 		case 0xE5:
; 501  : 			{
; 502  : 				PMSG_DEFAULT2 * lpMsg = (PMSG_DEFAULT2 *)aRecv;

  0068b	8b 45 0c	 mov	 eax, DWORD PTR _aRecv$[ebp]
  0068e	89 45 dc	 mov	 DWORD PTR _lpMsg$245143[ebp], eax

; 503  : 
; 504  : 				switch(lpMsg->subcode)

  00691	8b 45 dc	 mov	 eax, DWORD PTR _lpMsg$245143[ebp]
  00694	8a 48 03	 mov	 cl, BYTE PTR [eax+3]
  00697	88 4d 80	 mov	 BYTE PTR tv243[ebp], cl
  0069a	80 7d 80 00	 cmp	 BYTE PTR tv243[ebp], 0
  0069e	74 02		 je	 SHORT $LN35@DataServer
  006a0	eb 0e		 jmp	 SHORT $LN36@DataServer
$LN35@DataServer:

; 505  : 				{
; 506  : #if(CUSTOM_RETURNSPOT==TRUE)
; 507  : 				case 0x00:
; 508  : 					g_SpotReturn.DGStatus((PMSG_DG_SPOTSTATUS*)aRecv);

  006a2	8b 45 0c	 mov	 eax, DWORD PTR _aRecv$[ebp]
  006a5	50		 push	 eax
  006a6	b9 00 00 00 00	 mov	 ecx, OFFSET ?g_SpotReturn@@3VSpotReturn@@A ; g_SpotReturn
  006ab	e8 00 00 00 00	 call	 ?DGStatus@SpotReturn@@QAEXPAUPMSG_DG_SPOTSTATUS@@@Z ; SpotReturn::DGStatus
$LN36@DataServer:

; 509  : 					break;
; 510  : #endif
; 511  : 				}
; 512  : 			};
; 513  : 			break;

  006b0	e9 ef 01 00 00	 jmp	 $LN144@DataServer
$LN34@DataServer:

; 514  : 		case 0xEA:
; 515  : 			{
; 516  : 				PMSG_DEFAULT2* lpDef = (PMSG_DEFAULT2*)aRecv;

  006b5	8b 45 0c	 mov	 eax, DWORD PTR _aRecv$[ebp]
  006b8	89 45 d8	 mov	 DWORD PTR _lpDef$245152[ebp], eax

; 517  : 				g_ExGDManager.Protocol(lpDef->subcode, aRecv);

  006bb	8b 45 0c	 mov	 eax, DWORD PTR _aRecv$[ebp]
  006be	50		 push	 eax
  006bf	8b 4d d8	 mov	 ecx, DWORD PTR _lpDef$245152[ebp]
  006c2	0f b6 51 03	 movzx	 edx, BYTE PTR [ecx+3]
  006c6	52		 push	 edx
  006c7	b9 00 00 00 00	 mov	 ecx, OFFSET ?g_ExGDManager@@3VCExGDManager@@A ; g_ExGDManager
  006cc	e8 00 00 00 00	 call	 ?Protocol@CExGDManager@@QAEXEPAE@Z ; CExGDManager::Protocol

; 518  : 			}
; 519  : 			break;

  006d1	e9 ce 01 00 00	 jmp	 $LN144@DataServer
$LN33@DataServer:

; 520  : 		case 0xEB:
; 521  : 			{
; 522  : 				PMSG_DEFAULT2 * lpMsg = (PMSG_DEFAULT2 *)aRecv;

  006d6	8b 45 0c	 mov	 eax, DWORD PTR _aRecv$[ebp]
  006d9	89 45 d4	 mov	 DWORD PTR _lpMsg$245155[ebp], eax

; 523  : 
; 524  : 				switch(lpMsg->subcode)

  006dc	8b 45 d4	 mov	 eax, DWORD PTR _lpMsg$245155[ebp]
  006df	0f b6 48 03	 movzx	 ecx, BYTE PTR [eax+3]
  006e3	89 4d 80	 mov	 DWORD PTR tv255[ebp], ecx
  006e6	83 7d 80 20	 cmp	 DWORD PTR tv255[ebp], 32 ; 00000020H
  006ea	0f 87 c5 00 00
	00		 ja	 $LN31@DataServer
  006f0	8b 55 80	 mov	 edx, DWORD PTR tv255[ebp]
  006f3	0f b6 82 00 00
	00 00		 movzx	 eax, BYTE PTR $LN149@DataServer[edx]
  006fa	ff 24 85 00 00
	00 00		 jmp	 DWORD PTR $LN156@DataServer[eax*4]
$LN30@DataServer:

; 525  : 				{
; 526  : #if(CUSTOM_MARRIAGE)
; 527  : 				case 0x00:
; 528  : 					g_Marriage.DGLoad((PMSG_ANS_MARRIAGE_LOAD*) aRecv);

  00701	8b 45 0c	 mov	 eax, DWORD PTR _aRecv$[ebp]
  00704	50		 push	 eax
  00705	b9 00 00 00 00	 mov	 ecx, OFFSET ?g_Marriage@@3VCMarriage@@A ; g_Marriage
  0070a	e8 00 00 00 00	 call	 ?DGLoad@CMarriage@@QAEXPAUPMSG_ANS_MARRIAGE_LOAD@@@Z ; CMarriage::DGLoad

; 529  : 					break;

  0070f	e9 a1 00 00 00	 jmp	 $LN31@DataServer
$LN29@DataServer:

; 530  : 				case 0x01:
; 531  : 					g_Marriage.DGInsert((PMSG_ANS_MARRIAGE_INSERT*) aRecv);

  00714	8b 45 0c	 mov	 eax, DWORD PTR _aRecv$[ebp]
  00717	50		 push	 eax
  00718	b9 00 00 00 00	 mov	 ecx, OFFSET ?g_Marriage@@3VCMarriage@@A ; g_Marriage
  0071d	e8 00 00 00 00	 call	 ?DGInsert@CMarriage@@QAEXPAUPMSG_ANS_MARRIAGE_INSERT@@@Z ; CMarriage::DGInsert

; 532  : 					break;

  00722	e9 8e 00 00 00	 jmp	 $LN31@DataServer
$LN28@DataServer:

; 533  : 				case 0x02:
; 534  : 					g_Marriage.DGDelete((PMSG_ANS_MARRIAGE_DELETE*) aRecv);

  00727	8b 45 0c	 mov	 eax, DWORD PTR _aRecv$[ebp]
  0072a	50		 push	 eax
  0072b	b9 00 00 00 00	 mov	 ecx, OFFSET ?g_Marriage@@3VCMarriage@@A ; g_Marriage
  00730	e8 00 00 00 00	 call	 ?DGDelete@CMarriage@@QAEXPAUPMSG_ANS_MARRIAGE_DELETE@@@Z ; CMarriage::DGDelete

; 535  : 					break;

  00735	eb 7e		 jmp	 SHORT $LN31@DataServer
$LN27@DataServer:

; 536  : #endif
; 537  : #if(EVENT_DUNGEON_SIEGE)
; 538  : 				case 0x03:
; 539  : 					g_DungeonSiege.DGRegSiegeList((PMSG_DG_DUNGEON_SIEGE_REG_LIST*)aRecv); 

  00737	8b 45 0c	 mov	 eax, DWORD PTR _aRecv$[ebp]
  0073a	50		 push	 eax
  0073b	b9 00 00 00 00	 mov	 ecx, OFFSET ?g_DungeonSiege@@3VCDungeonSiege@@A ; g_DungeonSiege
  00740	e8 00 00 00 00	 call	 ?DGRegSiegeList@CDungeonSiege@@QAEXPAUPMSG_DG_DUNGEON_SIEGE_REG_LIST@@@Z ; CDungeonSiege::DGRegSiegeList

; 540  : 					break;

  00745	eb 6e		 jmp	 SHORT $LN31@DataServer
$LN26@DataServer:

; 541  : 				case 0x04:
; 542  : 					g_DungeonSiege.DGRegSiegeResult((PMSG_GD_DUNGEON_SIEGE_GUILD_REG_RESULT*)aRecv); 

  00747	8b 45 0c	 mov	 eax, DWORD PTR _aRecv$[ebp]
  0074a	50		 push	 eax
  0074b	b9 00 00 00 00	 mov	 ecx, OFFSET ?g_DungeonSiege@@3VCDungeonSiege@@A ; g_DungeonSiege
  00750	e8 00 00 00 00	 call	 ?DGRegSiegeResult@CDungeonSiege@@QAEXPAUPMSG_GD_DUNGEON_SIEGE_GUILD_REG_RESULT@@@Z ; CDungeonSiege::DGRegSiegeResult

; 543  : 					break;

  00755	eb 5e		 jmp	 SHORT $LN31@DataServer
$LN25@DataServer:

; 544  : 				case 0x06:
; 545  : 					g_DungeonSiege.DGSiegeOwner((PMSG_DG_DUNGEON_SIEGE_SELECT_OENER*)aRecv); 

  00757	8b 45 0c	 mov	 eax, DWORD PTR _aRecv$[ebp]
  0075a	50		 push	 eax
  0075b	b9 00 00 00 00	 mov	 ecx, OFFSET ?g_DungeonSiege@@3VCDungeonSiege@@A ; g_DungeonSiege
  00760	e8 00 00 00 00	 call	 ?DGSiegeOwner@CDungeonSiege@@QAEXPAUPMSG_DG_DUNGEON_SIEGE_SELECT_OENER@@@Z ; CDungeonSiege::DGSiegeOwner

; 546  : 					break;

  00765	eb 4e		 jmp	 SHORT $LN31@DataServer
$LN24@DataServer:

; 547  : #endif
; 548  : 				case 0x11:
; 549  : 					#if(OFFLINE_MODE_RESTORE)
; 550  : 					g_OfflineMode.DGAnsAccauntPassword((PMSG_DGANS_OFFMODE_START*)aRecv);

  00767	8b 45 0c	 mov	 eax, DWORD PTR _aRecv$[ebp]
  0076a	50		 push	 eax
  0076b	b9 00 00 00 00	 mov	 ecx, OFFSET ?g_OfflineMode@@3VOfflineMode@@A ; g_OfflineMode
  00770	e8 00 00 00 00	 call	 ?DGAnsAccauntPassword@OfflineMode@@QAEXPAUPMSG_DGANS_OFFMODE_START@@@Z ; OfflineMode::DGAnsAccauntPassword

; 551  : 					#endif
; 552  : #if(CUSTOM_REFERAL_SYSTEM)
; 553  : 				case 0x14:
; 554  : 					//g_ReferralSystem.DGAnsMasterInfo((PMSG_DGANS_REFERRAL_MASTER_INFO*)aRecv);
; 555  : 					break;

  00775	eb 3e		 jmp	 SHORT $LN31@DataServer
$LN22@DataServer:

; 556  : 				case 0x15:
; 557  : 					g_ReferralSystem.DGAnsMasterUpdate((PMSG_GDANS_REFERRAL_MASTER_UPDATE*)aRecv);

  00777	8b 45 0c	 mov	 eax, DWORD PTR _aRecv$[ebp]
  0077a	50		 push	 eax
  0077b	b9 00 00 00 00	 mov	 ecx, OFFSET ?g_ReferralSystem@@3VCReferralSystem@@A ; g_ReferralSystem
  00780	e8 00 00 00 00	 call	 ?DGAnsMasterUpdate@CReferralSystem@@QAEXPAUPMSG_GDANS_REFERRAL_MASTER_UPDATE@@@Z ; CReferralSystem::DGAnsMasterUpdate

; 558  : 					break;

  00785	eb 2e		 jmp	 SHORT $LN31@DataServer
$LN21@DataServer:

; 559  : 				case 0x16:
; 560  : 					g_ReferralSystem.DGAnsUserInfo((PMSG_DGANS_REFERRAL_USER_INFO*)aRecv);

  00787	8b 45 0c	 mov	 eax, DWORD PTR _aRecv$[ebp]
  0078a	50		 push	 eax
  0078b	b9 00 00 00 00	 mov	 ecx, OFFSET ?g_ReferralSystem@@3VCReferralSystem@@A ; g_ReferralSystem
  00790	e8 00 00 00 00	 call	 ?DGAnsUserInfo@CReferralSystem@@QAEXPAUPMSG_DGANS_REFERRAL_USER_INFO@@@Z ; CReferralSystem::DGAnsUserInfo

; 561  : 					break;

  00795	eb 1e		 jmp	 SHORT $LN31@DataServer
$LN20@DataServer:

; 562  : 				case 0x17:
; 563  : 					g_ReferralSystem.DGAnsUserUpdate((PMSG_GDANS_REFERRAL_USER_UPDATE*)aRecv);

  00797	8b 45 0c	 mov	 eax, DWORD PTR _aRecv$[ebp]
  0079a	50		 push	 eax
  0079b	b9 00 00 00 00	 mov	 ecx, OFFSET ?g_ReferralSystem@@3VCReferralSystem@@A ; g_ReferralSystem
  007a0	e8 00 00 00 00	 call	 ?DGAnsUserUpdate@CReferralSystem@@QAEXPAUPMSG_GDANS_REFERRAL_USER_UPDATE@@@Z ; CReferralSystem::DGAnsUserUpdate

; 564  : 					break;

  007a5	eb 0e		 jmp	 SHORT $LN31@DataServer
$LN19@DataServer:

; 565  : #endif
; 566  : #if(DEV_BANSYSTEM)
; 567  : 				case 0x20:
; 568  : 					g_BanSystem.DSAnsSelect((PMSG_SELECT_BANSYSTEM*)aRecv);

  007a7	8b 45 0c	 mov	 eax, DWORD PTR _aRecv$[ebp]
  007aa	50		 push	 eax
  007ab	b9 00 00 00 00	 mov	 ecx, OFFSET ?g_BanSystem@@3VCBanSystem@@A ; g_BanSystem
  007b0	e8 00 00 00 00	 call	 ?DSAnsSelect@CBanSystem@@QAEXPAUPMSG_SELECT_BANSYSTEM@@@Z ; CBanSystem::DSAnsSelect
$LN31@DataServer:

; 569  : 					break;
; 570  : #endif
; 571  : 				}
; 572  : 			}
; 573  : 			break;

  007b5	e9 ea 00 00 00	 jmp	 $LN144@DataServer
$LN18@DataServer:

; 574  : 		case 0xE1:
; 575  : 			{
; 576  : 				PWMSG_HEAD2 * lpMsg = (PWMSG_HEAD2*)aRecv;

  007ba	8b 45 0c	 mov	 eax, DWORD PTR _aRecv$[ebp]
  007bd	89 45 d0	 mov	 DWORD PTR _lpMsg$245185[ebp], eax

; 577  : 
; 578  : 				switch(lpMsg->subcode)

  007c0	8b 45 d0	 mov	 eax, DWORD PTR _lpMsg$245185[ebp]
  007c3	8a 48 04	 mov	 cl, BYTE PTR [eax+4]
  007c6	88 4d 80	 mov	 BYTE PTR tv281[ebp], cl
  007c9	80 7d 80 00	 cmp	 BYTE PTR tv281[ebp], 0
  007cd	74 02		 je	 SHORT $LN15@DataServer
  007cf	eb 0e		 jmp	 SHORT $LN16@DataServer
$LN15@DataServer:

; 579  : 				{
; 580  : #if(CUSTOM_REFERAL_SYSTEM)
; 581  : 				case 0x00:
; 582  : 					g_ReferralSystem.DGAnsMasterInfo((PMSG_DGANS_REFERRAL_MASTER_INFO*)aRecv);

  007d1	8b 45 0c	 mov	 eax, DWORD PTR _aRecv$[ebp]
  007d4	50		 push	 eax
  007d5	b9 00 00 00 00	 mov	 ecx, OFFSET ?g_ReferralSystem@@3VCReferralSystem@@A ; g_ReferralSystem
  007da	e8 00 00 00 00	 call	 ?DGAnsMasterInfo@CReferralSystem@@QAEXPAUPMSG_DGANS_REFERRAL_MASTER_INFO@@@Z ; CReferralSystem::DGAnsMasterInfo
$LN16@DataServer:

; 583  : 					break;
; 584  : #endif
; 585  : 				}
; 586  : 			}
; 587  : 			break;

  007df	e9 c0 00 00 00	 jmp	 $LN144@DataServer
$LN14@DataServer:

; 588  : 		case 0xEC:
; 589  : 			#if(OFFLINE_MODE_RESTORE)
; 590  : 			g_OfflineMode.DGAnsOffCharacter((SDHP_DBCHAR_INFORESULT*)aRecv);

  007e4	8b 45 0c	 mov	 eax, DWORD PTR _aRecv$[ebp]
  007e7	50		 push	 eax
  007e8	b9 00 00 00 00	 mov	 ecx, OFFSET ?g_OfflineMode@@3VOfflineMode@@A ; g_OfflineMode
  007ed	e8 00 00 00 00	 call	 ?DGAnsOffCharacter@OfflineMode@@QAEXPAUSDHP_DBCHAR_INFORESULT@@@Z ; OfflineMode::DGAnsOffCharacter

; 591  : 			#endif
; 592  : 			break;

  007f2	e9 ad 00 00 00	 jmp	 $LN144@DataServer
$LN13@DataServer:

; 593  : 		case 0xED:
; 594  : 			#if(OFFLINE_MODE_RESTORE)
; 595  : 			g_OfflineMode.DGPSelectData((PMSG_GDLOAD_OFFMODE_DATA*) aRecv);

  007f7	8b 45 0c	 mov	 eax, DWORD PTR _aRecv$[ebp]
  007fa	50		 push	 eax
  007fb	b9 00 00 00 00	 mov	 ecx, OFFSET ?g_OfflineMode@@3VOfflineMode@@A ; g_OfflineMode
  00800	e8 00 00 00 00	 call	 ?DGPSelectData@OfflineMode@@QAEXPAUPMSG_GDLOAD_OFFMODE_DATA@@@Z ; OfflineMode::DGPSelectData

; 596  : 			#endif
; 597  : 			break;

  00805	e9 9a 00 00 00	 jmp	 $LN144@DataServer
$LN12@DataServer:

; 598  : 		case 0xEE:
; 599  : 			{
; 600  : 				PMSG_DEFAULT2* lpDef = (PMSG_DEFAULT2*)aRecv;

  0080a	8b 45 0c	 mov	 eax, DWORD PTR _aRecv$[ebp]
  0080d	89 45 cc	 mov	 DWORD PTR _lpDef$245198[ebp], eax

; 601  : 				g_ExWebManager.Protocol(lpDef->subcode, aRecv);

  00810	8b 45 0c	 mov	 eax, DWORD PTR _aRecv$[ebp]
  00813	50		 push	 eax
  00814	8b 4d cc	 mov	 ecx, DWORD PTR _lpDef$245198[ebp]
  00817	0f b6 51 03	 movzx	 edx, BYTE PTR [ecx+3]
  0081b	52		 push	 edx
  0081c	b9 00 00 00 00	 mov	 ecx, OFFSET ?g_ExWebManager@@3VCExWebManager@@A ; g_ExWebManager
  00821	e8 00 00 00 00	 call	 ?Protocol@CExWebManager@@QAEXEPAE@Z ; CExWebManager::Protocol

; 602  : 			}
; 603  : 			break;

  00826	eb 7c		 jmp	 SHORT $LN144@DataServer
$LN11@DataServer:

; 604  : 		case 0xEF:
; 605  : 			{
; 606  : 				PMSG_DEFAULT2 * lpMsg = (PMSG_DEFAULT2 *)aRecv;

  00828	8b 45 0c	 mov	 eax, DWORD PTR _aRecv$[ebp]
  0082b	89 45 c8	 mov	 DWORD PTR _lpMsg$245201[ebp], eax

; 607  : 
; 608  : 				switch(lpMsg->subcode)

  0082e	8b 45 c8	 mov	 eax, DWORD PTR _lpMsg$245201[ebp]
  00831	8a 48 03	 mov	 cl, BYTE PTR [eax+3]
  00834	88 4d 80	 mov	 BYTE PTR tv297[ebp], cl
  00837	80 7d 80 00	 cmp	 BYTE PTR tv297[ebp], 0
  0083b	74 08		 je	 SHORT $LN8@DataServer
  0083d	80 7d 80 01	 cmp	 BYTE PTR tv297[ebp], 1
  00841	74 12		 je	 SHORT $LN7@DataServer
  00843	eb 1e		 jmp	 SHORT $LN9@DataServer
$LN8@DataServer:

; 609  : 				{
; 610  : 				case 0x00:
; 611  : 					g_AccountSecurity.DGAnsLoad((PMSG_ANS_ACC_DATABASE_LOAD*)aRecv);

  00845	8b 45 0c	 mov	 eax, DWORD PTR _aRecv$[ebp]
  00848	50		 push	 eax
  00849	b9 00 00 00 00	 mov	 ecx, OFFSET ?g_AccountSecurity@@3VCAccountSecurity@@A ; g_AccountSecurity
  0084e	e8 00 00 00 00	 call	 ?DGAnsLoad@CAccountSecurity@@QAEXPAUPMSG_ANS_ACC_DATABASE_LOAD@@@Z ; CAccountSecurity::DGAnsLoad

; 612  : 					break;

  00853	eb 0e		 jmp	 SHORT $LN9@DataServer
$LN7@DataServer:

; 613  : 				case 0x01:
; 614  : 					g_AccountSecurity.DGAnsSave((PMSG_ANS_ACC_DATABASE_SAVE*)aRecv);

  00855	8b 45 0c	 mov	 eax, DWORD PTR _aRecv$[ebp]
  00858	50		 push	 eax
  00859	b9 00 00 00 00	 mov	 ecx, OFFSET ?g_AccountSecurity@@3VCAccountSecurity@@A ; g_AccountSecurity
  0085e	e8 00 00 00 00	 call	 ?DGAnsSave@CAccountSecurity@@QAEXPAUPMSG_ANS_ACC_DATABASE_SAVE@@@Z ; CAccountSecurity::DGAnsSave
$LN9@DataServer:

; 615  : 					break;
; 616  : 				}
; 617  : 			}
; 618  : 			break;

  00863	eb 3f		 jmp	 SHORT $LN144@DataServer
$LN6@DataServer:

; 619  : 		case 0xFD:
; 620  : 		{
; 621  : 			PMSG_DEFAULT2 * lpMsg = (PMSG_DEFAULT2 *)aRecv;

  00865	8b 45 0c	 mov	 eax, DWORD PTR _aRecv$[ebp]
  00868	89 45 c4	 mov	 DWORD PTR _lpMsg$245212[ebp], eax

; 622  : 			switch (lpMsg->subcode)

  0086b	8b 45 c4	 mov	 eax, DWORD PTR _lpMsg$245212[ebp]
  0086e	8a 48 03	 mov	 cl, BYTE PTR [eax+3]
  00871	88 4d 80	 mov	 BYTE PTR tv308[ebp], cl
  00874	80 7d 80 01	 cmp	 BYTE PTR tv308[ebp], 1
  00878	74 02		 je	 SHORT $LN3@DataServer
  0087a	eb 0c		 jmp	 SHORT $LN4@DataServer
$LN3@DataServer:

; 623  : 			{
; 624  : #if(CUSTOM_MULTIWAREHOUSE)
; 625  : 				case 0x01:
; 626  : 					GDGetWarehouseNumber((LOADWAREHOUSENUMBER_SAVE*)aRecv);

  0087c	8b 45 0c	 mov	 eax, DWORD PTR _aRecv$[ebp]
  0087f	50		 push	 eax
  00880	e8 00 00 00 00	 call	 ?GDGetWarehouseNumber@@YAXPAULOADWAREHOUSENUMBER_SAVE@@@Z ; GDGetWarehouseNumber
  00885	83 c4 04	 add	 esp, 4
$LN4@DataServer:

; 627  : 					break;
; 628  : #endif
; 629  : 			}
; 630  : 		}
; 631  : 		break;

  00888	eb 1a		 jmp	 SHORT $LN144@DataServer
$LN2@DataServer:

; 632  : 
; 633  : #if (DEV_GUILDBANK)
; 634  : 		//case Protocol_GSRecv_GetWarehouseList:
; 635  : 		//	DGGetWarehouseList((SDHP_GETWAREHOUSEDB_SAVE *)aRecv);
; 636  : 		//	break;
; 637  : 		case Protocol_GSRecv_GetWarehouseNoItem:
; 638  : 			GDGetWarehouseNoItem((SDHP_GETWAREHOUSEDB_RESULT *)aRecv);

  0088a	8b 45 0c	 mov	 eax, DWORD PTR _aRecv$[ebp]
  0088d	50		 push	 eax
  0088e	e8 00 00 00 00	 call	 ?GDGetWarehouseNoItem@@YAXPAUSDHP_GETWAREHOUSEDB_RESULT@@@Z ; GDGetWarehouseNoItem
  00893	83 c4 04	 add	 esp, 4

; 639  : 			break;

  00896	eb 0c		 jmp	 SHORT $LN144@DataServer
$LN1@DataServer:

; 640  : 		//case Protocol_GSRecv_GetWarehouseList:
; 641  : 		//	DGGetWarehouseList((SDHP_GETWAREHOUSEDB_SAVE *)aRecv);
; 642  : 		//	break;
; 643  : 		case Protocol_GSRecv_GetGuildWarehouseList:
; 644  : 			DGGetWarehouseList((SDHP_GETWAREHOUSEDB_SAVE *)aRecv);

  00898	8b 45 0c	 mov	 eax, DWORD PTR _aRecv$[ebp]
  0089b	50		 push	 eax
  0089c	e8 00 00 00 00	 call	 ?DGGetWarehouseList@@YAXPAUSDHP_GETWAREHOUSEDB_SAVE@@@Z ; DGGetWarehouseList
  008a1	83 c4 04	 add	 esp, 4
$LN144@DataServer:

; 645  : 			break;
; 646  : #endif
; 647  : 
; 648  : 	}
; 649  : }

  008a4	5f		 pop	 edi
  008a5	5e		 pop	 esi
  008a6	5b		 pop	 ebx
  008a7	8b e5		 mov	 esp, ebp
  008a9	5d		 pop	 ebp
  008aa	c3		 ret	 0
  008ab	90		 npad	 1
$LN150@DataServer:
  008ac	00 00 00 00	 DD	 $LN141@DataServer
  008b0	00 00 00 00	 DD	 $LN140@DataServer
  008b4	00 00 00 00	 DD	 $LN139@DataServer
  008b8	00 00 00 00	 DD	 $LN138@DataServer
  008bc	00 00 00 00	 DD	 $LN137@DataServer
  008c0	00 00 00 00	 DD	 $LN136@DataServer
  008c4	00 00 00 00	 DD	 $LN135@DataServer
  008c8	00 00 00 00	 DD	 $LN134@DataServer
  008cc	00 00 00 00	 DD	 $LN133@DataServer
  008d0	00 00 00 00	 DD	 $LN132@DataServer
  008d4	00 00 00 00	 DD	 $LN131@DataServer
  008d8	00 00 00 00	 DD	 $LN130@DataServer
  008dc	00 00 00 00	 DD	 $LN129@DataServer
  008e0	00 00 00 00	 DD	 $LN128@DataServer
  008e4	00 00 00 00	 DD	 $LN127@DataServer
  008e8	00 00 00 00	 DD	 $LN100@DataServer
  008ec	00 00 00 00	 DD	 $LN99@DataServer
  008f0	00 00 00 00	 DD	 $LN98@DataServer
  008f4	00 00 00 00	 DD	 $LN97@DataServer
  008f8	00 00 00 00	 DD	 $LN96@DataServer
  008fc	00 00 00 00	 DD	 $LN95@DataServer
  00900	00 00 00 00	 DD	 $LN94@DataServer
  00904	00 00 00 00	 DD	 $LN93@DataServer
  00908	00 00 00 00	 DD	 $LN92@DataServer
  0090c	00 00 00 00	 DD	 $LN80@DataServer
  00910	00 00 00 00	 DD	 $LN79@DataServer
  00914	00 00 00 00	 DD	 $LN91@DataServer
  00918	00 00 00 00	 DD	 $LN90@DataServer
  0091c	00 00 00 00	 DD	 $LN89@DataServer
  00920	00 00 00 00	 DD	 $LN2@DataServer
  00924	00 00 00 00	 DD	 $LN144@DataServer
$LN147@DataServer:
  00928	00		 DB	 0
  00929	01		 DB	 1
  0092a	1e		 DB	 30			; 0000001eH
  0092b	1e		 DB	 30			; 0000001eH
  0092c	02		 DB	 2
  0092d	03		 DB	 3
  0092e	04		 DB	 4
  0092f	1e		 DB	 30			; 0000001eH
  00930	05		 DB	 5
  00931	1e		 DB	 30			; 0000001eH
  00932	1e		 DB	 30			; 0000001eH
  00933	1e		 DB	 30			; 0000001eH
  00934	1e		 DB	 30			; 0000001eH
  00935	1e		 DB	 30			; 0000001eH
  00936	1e		 DB	 30			; 0000001eH
  00937	1e		 DB	 30			; 0000001eH
  00938	06		 DB	 6
  00939	1e		 DB	 30			; 0000001eH
  0093a	1e		 DB	 30			; 0000001eH
  0093b	1e		 DB	 30			; 0000001eH
  0093c	07		 DB	 7
  0093d	1e		 DB	 30			; 0000001eH
  0093e	08		 DB	 8
  0093f	09		 DB	 9
  00940	1e		 DB	 30			; 0000001eH
  00941	1e		 DB	 30			; 0000001eH
  00942	1e		 DB	 30			; 0000001eH
  00943	1e		 DB	 30			; 0000001eH
  00944	1e		 DB	 30			; 0000001eH
  00945	1e		 DB	 30			; 0000001eH
  00946	1e		 DB	 30			; 0000001eH
  00947	1e		 DB	 30			; 0000001eH
  00948	1e		 DB	 30			; 0000001eH
  00949	1e		 DB	 30			; 0000001eH
  0094a	1e		 DB	 30			; 0000001eH
  0094b	1e		 DB	 30			; 0000001eH
  0094c	1e		 DB	 30			; 0000001eH
  0094d	1e		 DB	 30			; 0000001eH
  0094e	1e		 DB	 30			; 0000001eH
  0094f	1e		 DB	 30			; 0000001eH
  00950	1e		 DB	 30			; 0000001eH
  00951	1e		 DB	 30			; 0000001eH
  00952	1e		 DB	 30			; 0000001eH
  00953	1e		 DB	 30			; 0000001eH
  00954	1e		 DB	 30			; 0000001eH
  00955	1e		 DB	 30			; 0000001eH
  00956	1e		 DB	 30			; 0000001eH
  00957	1e		 DB	 30			; 0000001eH
  00958	0a		 DB	 10			; 0000000aH
  00959	1e		 DB	 30			; 0000001eH
  0095a	1e		 DB	 30			; 0000001eH
  0095b	1e		 DB	 30			; 0000001eH
  0095c	1e		 DB	 30			; 0000001eH
  0095d	1e		 DB	 30			; 0000001eH
  0095e	1e		 DB	 30			; 0000001eH
  0095f	1e		 DB	 30			; 0000001eH
  00960	1e		 DB	 30			; 0000001eH
  00961	1e		 DB	 30			; 0000001eH
  00962	1e		 DB	 30			; 0000001eH
  00963	1e		 DB	 30			; 0000001eH
  00964	1e		 DB	 30			; 0000001eH
  00965	1e		 DB	 30			; 0000001eH
  00966	1e		 DB	 30			; 0000001eH
  00967	1e		 DB	 30			; 0000001eH
  00968	1e		 DB	 30			; 0000001eH
  00969	1e		 DB	 30			; 0000001eH
  0096a	1e		 DB	 30			; 0000001eH
  0096b	1e		 DB	 30			; 0000001eH
  0096c	1e		 DB	 30			; 0000001eH
  0096d	1e		 DB	 30			; 0000001eH
  0096e	1e		 DB	 30			; 0000001eH
  0096f	1e		 DB	 30			; 0000001eH
  00970	1e		 DB	 30			; 0000001eH
  00971	1e		 DB	 30			; 0000001eH
  00972	1e		 DB	 30			; 0000001eH
  00973	1e		 DB	 30			; 0000001eH
  00974	1e		 DB	 30			; 0000001eH
  00975	1e		 DB	 30			; 0000001eH
  00976	1e		 DB	 30			; 0000001eH
  00977	1e		 DB	 30			; 0000001eH
  00978	1e		 DB	 30			; 0000001eH
  00979	1e		 DB	 30			; 0000001eH
  0097a	0b		 DB	 11			; 0000000bH
  0097b	1e		 DB	 30			; 0000001eH
  0097c	1e		 DB	 30			; 0000001eH
  0097d	1e		 DB	 30			; 0000001eH
  0097e	0c		 DB	 12			; 0000000cH
  0097f	1e		 DB	 30			; 0000001eH
  00980	1e		 DB	 30			; 0000001eH
  00981	1e		 DB	 30			; 0000001eH
  00982	1e		 DB	 30			; 0000001eH
  00983	1e		 DB	 30			; 0000001eH
  00984	1e		 DB	 30			; 0000001eH
  00985	1e		 DB	 30			; 0000001eH
  00986	1e		 DB	 30			; 0000001eH
  00987	1e		 DB	 30			; 0000001eH
  00988	0d		 DB	 13			; 0000000dH
  00989	1e		 DB	 30			; 0000001eH
  0098a	1e		 DB	 30			; 0000001eH
  0098b	1e		 DB	 30			; 0000001eH
  0098c	1e		 DB	 30			; 0000001eH
  0098d	1e		 DB	 30			; 0000001eH
  0098e	1e		 DB	 30			; 0000001eH
  0098f	1e		 DB	 30			; 0000001eH
  00990	1e		 DB	 30			; 0000001eH
  00991	1e		 DB	 30			; 0000001eH
  00992	1e		 DB	 30			; 0000001eH
  00993	1e		 DB	 30			; 0000001eH
  00994	1e		 DB	 30			; 0000001eH
  00995	1e		 DB	 30			; 0000001eH
  00996	1e		 DB	 30			; 0000001eH
  00997	1e		 DB	 30			; 0000001eH
  00998	1e		 DB	 30			; 0000001eH
  00999	1e		 DB	 30			; 0000001eH
  0099a	1e		 DB	 30			; 0000001eH
  0099b	1e		 DB	 30			; 0000001eH
  0099c	1e		 DB	 30			; 0000001eH
  0099d	1e		 DB	 30			; 0000001eH
  0099e	1e		 DB	 30			; 0000001eH
  0099f	1e		 DB	 30			; 0000001eH
  009a0	1e		 DB	 30			; 0000001eH
  009a1	1e		 DB	 30			; 0000001eH
  009a2	1e		 DB	 30			; 0000001eH
  009a3	1e		 DB	 30			; 0000001eH
  009a4	1e		 DB	 30			; 0000001eH
  009a5	1e		 DB	 30			; 0000001eH
  009a6	1e		 DB	 30			; 0000001eH
  009a7	1e		 DB	 30			; 0000001eH
  009a8	0e		 DB	 14			; 0000000eH
  009a9	0f		 DB	 15			; 0000000fH
  009aa	10		 DB	 16			; 00000010H
  009ab	11		 DB	 17			; 00000011H
  009ac	12		 DB	 18			; 00000012H
  009ad	13		 DB	 19			; 00000013H
  009ae	14		 DB	 20			; 00000014H
  009af	15		 DB	 21			; 00000015H
  009b0	16		 DB	 22			; 00000016H
  009b1	17		 DB	 23			; 00000017H
  009b2	1e		 DB	 30			; 0000001eH
  009b3	1e		 DB	 30			; 0000001eH
  009b4	1e		 DB	 30			; 0000001eH
  009b5	1e		 DB	 30			; 0000001eH
  009b6	1e		 DB	 30			; 0000001eH
  009b7	1e		 DB	 30			; 0000001eH
  009b8	1e		 DB	 30			; 0000001eH
  009b9	1e		 DB	 30			; 0000001eH
  009ba	1e		 DB	 30			; 0000001eH
  009bb	1e		 DB	 30			; 0000001eH
  009bc	1e		 DB	 30			; 0000001eH
  009bd	1e		 DB	 30			; 0000001eH
  009be	1e		 DB	 30			; 0000001eH
  009bf	1e		 DB	 30			; 0000001eH
  009c0	1e		 DB	 30			; 0000001eH
  009c1	1e		 DB	 30			; 0000001eH
  009c2	1e		 DB	 30			; 0000001eH
  009c3	1e		 DB	 30			; 0000001eH
  009c4	1e		 DB	 30			; 0000001eH
  009c5	1e		 DB	 30			; 0000001eH
  009c6	1e		 DB	 30			; 0000001eH
  009c7	1e		 DB	 30			; 0000001eH
  009c8	1e		 DB	 30			; 0000001eH
  009c9	18		 DB	 24			; 00000018H
  009ca	19		 DB	 25			; 00000019H
  009cb	1e		 DB	 30			; 0000001eH
  009cc	1e		 DB	 30			; 0000001eH
  009cd	1e		 DB	 30			; 0000001eH
  009ce	1e		 DB	 30			; 0000001eH
  009cf	1e		 DB	 30			; 0000001eH
  009d0	1e		 DB	 30			; 0000001eH
  009d1	1e		 DB	 30			; 0000001eH
  009d2	1e		 DB	 30			; 0000001eH
  009d3	1e		 DB	 30			; 0000001eH
  009d4	1e		 DB	 30			; 0000001eH
  009d5	1e		 DB	 30			; 0000001eH
  009d6	1e		 DB	 30			; 0000001eH
  009d7	1e		 DB	 30			; 0000001eH
  009d8	1a		 DB	 26			; 0000001aH
  009d9	1b		 DB	 27			; 0000001bH
  009da	1c		 DB	 28			; 0000001cH
  009db	1e		 DB	 30			; 0000001eH
  009dc	1e		 DB	 30			; 0000001eH
  009dd	1e		 DB	 30			; 0000001eH
  009de	1e		 DB	 30			; 0000001eH
  009df	1e		 DB	 30			; 0000001eH
  009e0	1e		 DB	 30			; 0000001eH
  009e1	1e		 DB	 30			; 0000001eH
  009e2	1e		 DB	 30			; 0000001eH
  009e3	1e		 DB	 30			; 0000001eH
  009e4	1e		 DB	 30			; 0000001eH
  009e5	1e		 DB	 30			; 0000001eH
  009e6	1e		 DB	 30			; 0000001eH
  009e7	1e		 DB	 30			; 0000001eH
  009e8	1e		 DB	 30			; 0000001eH
  009e9	1e		 DB	 30			; 0000001eH
  009ea	1e		 DB	 30			; 0000001eH
  009eb	1e		 DB	 30			; 0000001eH
  009ec	1e		 DB	 30			; 0000001eH
  009ed	1e		 DB	 30			; 0000001eH
  009ee	1d		 DB	 29			; 0000001dH
  009ef	90		 npad	 1
$LN151@DataServer:
  009f0	00 00 00 00	 DD	 $LN87@DataServer
  009f4	00 00 00 00	 DD	 $LN57@DataServer
  009f8	00 00 00 00	 DD	 $LN62@DataServer
  009fc	00 00 00 00	 DD	 $LN66@DataServer
  00a00	00 00 00 00	 DD	 $LN58@DataServer
  00a04	00 00 00 00	 DD	 $LN49@DataServer
  00a08	00 00 00 00	 DD	 $LN48@DataServer
  00a0c	00 00 00 00	 DD	 $LN1@DataServer
  00a10	00 00 00 00	 DD	 $LN75@DataServer
  00a14	00 00 00 00	 DD	 $LN18@DataServer
  00a18	00 00 00 00	 DD	 $LN47@DataServer
  00a1c	00 00 00 00	 DD	 $LN40@DataServer
  00a20	00 00 00 00	 DD	 $LN38@DataServer
  00a24	00 00 00 00	 DD	 $LN34@DataServer
  00a28	00 00 00 00	 DD	 $LN33@DataServer
  00a2c	00 00 00 00	 DD	 $LN14@DataServer
  00a30	00 00 00 00	 DD	 $LN13@DataServer
  00a34	00 00 00 00	 DD	 $LN12@DataServer
  00a38	00 00 00 00	 DD	 $LN11@DataServer
  00a3c	00 00 00 00	 DD	 $LN74@DataServer
  00a40	00 00 00 00	 DD	 $LN6@DataServer
  00a44	00 00 00 00	 DD	 $LN78@DataServer
  00a48	00 00 00 00	 DD	 $LN144@DataServer
$LN148@DataServer:
  00a4c	00		 DB	 0
  00a4d	01		 DB	 1
  00a4e	02		 DB	 2
  00a4f	03		 DB	 3
  00a50	04		 DB	 4
  00a51	05		 DB	 5
  00a52	06		 DB	 6
  00a53	07		 DB	 7
  00a54	16		 DB	 22			; 00000016H
  00a55	16		 DB	 22			; 00000016H
  00a56	16		 DB	 22			; 00000016H
  00a57	16		 DB	 22			; 00000016H
  00a58	16		 DB	 22			; 00000016H
  00a59	16		 DB	 22			; 00000016H
  00a5a	16		 DB	 22			; 00000016H
  00a5b	16		 DB	 22			; 00000016H
  00a5c	08		 DB	 8
  00a5d	09		 DB	 9
  00a5e	0a		 DB	 10			; 0000000aH
  00a5f	0b		 DB	 11			; 0000000bH
  00a60	16		 DB	 22			; 00000016H
  00a61	0c		 DB	 12			; 0000000cH
  00a62	16		 DB	 22			; 00000016H
  00a63	16		 DB	 22			; 00000016H
  00a64	16		 DB	 22			; 00000016H
  00a65	16		 DB	 22			; 00000016H
  00a66	0d		 DB	 13			; 0000000dH
  00a67	0e		 DB	 14			; 0000000eH
  00a68	0f		 DB	 15			; 0000000fH
  00a69	10		 DB	 16			; 00000010H
  00a6a	11		 DB	 17			; 00000011H
  00a6b	12		 DB	 18			; 00000012H
  00a6c	16		 DB	 22			; 00000016H
  00a6d	16		 DB	 22			; 00000016H
  00a6e	16		 DB	 22			; 00000016H
  00a6f	16		 DB	 22			; 00000016H
  00a70	16		 DB	 22			; 00000016H
  00a71	16		 DB	 22			; 00000016H
  00a72	16		 DB	 22			; 00000016H
  00a73	16		 DB	 22			; 00000016H
  00a74	13		 DB	 19			; 00000013H
  00a75	16		 DB	 22			; 00000016H
  00a76	16		 DB	 22			; 00000016H
  00a77	16		 DB	 22			; 00000016H
  00a78	16		 DB	 22			; 00000016H
  00a79	14		 DB	 20			; 00000014H
  00a7a	16		 DB	 22			; 00000016H
  00a7b	15		 DB	 21			; 00000015H
$LN152@DataServer:
  00a7c	00 00 00 00	 DD	 $LN124@DataServer
  00a80	00 00 00 00	 DD	 $LN123@DataServer
  00a84	00 00 00 00	 DD	 $LN125@DataServer
  00a88	00 00 00 00	 DD	 $LN122@DataServer
  00a8c	00 00 00 00	 DD	 $LN121@DataServer
  00a90	00 00 00 00	 DD	 $LN120@DataServer
  00a94	00 00 00 00	 DD	 $LN119@DataServer
  00a98	00 00 00 00	 DD	 $LN118@DataServer
  00a9c	00 00 00 00	 DD	 $LN117@DataServer
  00aa0	00 00 00 00	 DD	 $LN116@DataServer
  00aa4	00 00 00 00	 DD	 $LN115@DataServer
  00aa8	00 00 00 00	 DD	 $LN114@DataServer
  00aac	00 00 00 00	 DD	 $LN113@DataServer
  00ab0	00 00 00 00	 DD	 $LN112@DataServer
  00ab4	00 00 00 00	 DD	 $LN111@DataServer
  00ab8	00 00 00 00	 DD	 $LN110@DataServer
  00abc	00 00 00 00	 DD	 $LN109@DataServer
  00ac0	00 00 00 00	 DD	 $LN108@DataServer
  00ac4	00 00 00 00	 DD	 $LN107@DataServer
  00ac8	00 00 00 00	 DD	 $LN125@DataServer
  00acc	00 00 00 00	 DD	 $LN125@DataServer
  00ad0	00 00 00 00	 DD	 $LN125@DataServer
  00ad4	00 00 00 00	 DD	 $LN106@DataServer
  00ad8	00 00 00 00	 DD	 $LN105@DataServer
  00adc	00 00 00 00	 DD	 $LN104@DataServer
  00ae0	00 00 00 00	 DD	 $LN103@DataServer
  00ae4	00 00 00 00	 DD	 $LN102@DataServer
  00ae8	00 00 00 00	 DD	 $LN101@DataServer
$LN153@DataServer:
  00aec	00 00 00 00	 DD	 $LN84@DataServer
  00af0	00 00 00 00	 DD	 $LN85@DataServer
  00af4	00 00 00 00	 DD	 $LN83@DataServer
  00af8	00 00 00 00	 DD	 $LN85@DataServer
  00afc	00 00 00 00	 DD	 $LN82@DataServer
  00b00	00 00 00 00	 DD	 $LN85@DataServer
  00b04	00 00 00 00	 DD	 $LN81@DataServer
$LN154@DataServer:
  00b08	00 00 00 00	 DD	 $LN70@DataServer
  00b0c	00 00 00 00	 DD	 $LN73@DataServer
  00b10	00 00 00 00	 DD	 $LN69@DataServer
  00b14	00 00 00 00	 DD	 $LN68@DataServer
  00b18	00 00 00 00	 DD	 $LN67@DataServer
$LN155@DataServer:
  00b1c	00 00 00 00	 DD	 $LN54@DataServer
  00b20	00 00 00 00	 DD	 $LN53@DataServer
  00b24	00 00 00 00	 DD	 $LN52@DataServer
  00b28	00 00 00 00	 DD	 $LN51@DataServer
  00b2c	00 00 00 00	 DD	 $LN50@DataServer
$LN156@DataServer:
  00b30	00 00 00 00	 DD	 $LN30@DataServer
  00b34	00 00 00 00	 DD	 $LN29@DataServer
  00b38	00 00 00 00	 DD	 $LN28@DataServer
  00b3c	00 00 00 00	 DD	 $LN27@DataServer
  00b40	00 00 00 00	 DD	 $LN26@DataServer
  00b44	00 00 00 00	 DD	 $LN25@DataServer
  00b48	00 00 00 00	 DD	 $LN24@DataServer
  00b4c	00 00 00 00	 DD	 $LN22@DataServer
  00b50	00 00 00 00	 DD	 $LN21@DataServer
  00b54	00 00 00 00	 DD	 $LN20@DataServer
  00b58	00 00 00 00	 DD	 $LN19@DataServer
  00b5c	00 00 00 00	 DD	 $LN31@DataServer
$LN149@DataServer:
  00b60	00		 DB	 0
  00b61	01		 DB	 1
  00b62	02		 DB	 2
  00b63	03		 DB	 3
  00b64	04		 DB	 4
  00b65	0b		 DB	 11			; 0000000bH
  00b66	05		 DB	 5
  00b67	0b		 DB	 11			; 0000000bH
  00b68	0b		 DB	 11			; 0000000bH
  00b69	0b		 DB	 11			; 0000000bH
  00b6a	0b		 DB	 11			; 0000000bH
  00b6b	0b		 DB	 11			; 0000000bH
  00b6c	0b		 DB	 11			; 0000000bH
  00b6d	0b		 DB	 11			; 0000000bH
  00b6e	0b		 DB	 11			; 0000000bH
  00b6f	0b		 DB	 11			; 0000000bH
  00b70	0b		 DB	 11			; 0000000bH
  00b71	06		 DB	 6
  00b72	0b		 DB	 11			; 0000000bH
  00b73	0b		 DB	 11			; 0000000bH
  00b74	0b		 DB	 11			; 0000000bH
  00b75	07		 DB	 7
  00b76	08		 DB	 8
  00b77	09		 DB	 9
  00b78	0b		 DB	 11			; 0000000bH
  00b79	0b		 DB	 11			; 0000000bH
  00b7a	0b		 DB	 11			; 0000000bH
  00b7b	0b		 DB	 11			; 0000000bH
  00b7c	0b		 DB	 11			; 0000000bH
  00b7d	0b		 DB	 11			; 0000000bH
  00b7e	0b		 DB	 11			; 0000000bH
  00b7f	0b		 DB	 11			; 0000000bH
  00b80	0a		 DB	 10			; 0000000aH
?DataServerProtocolCore@@YAXEPAEH@Z ENDP		; DataServerProtocolCore
_TEXT	ENDS
PUBLIC	??_C@_0P@GMPEKMII@Test?5Data?5Send?$AA@		; `string'
PUBLIC	??_C@_02DKCKIIND@?$CFs?$AA@			; `string'
PUBLIC	??_C@_02DPKJAMEF@?$CFd?$AA@			; `string'
PUBLIC	__$ArrayPad$
PUBLIC	?TestDSSend@@YAXXZ				; TestDSSend
EXTRN	?Send@DBSockMng@@QAEHPADH@Z:PROC		; DBSockMng::Send
EXTRN	?cDBSMng@@3VDBSockMng@@A:BYTE			; cDBSMng
EXTRN	?LogAdd@@3P6AXPADZZA:DWORD			; LogAdd
EXTRN	__imp__wsprintfA:PROC
EXTRN	?iCount@@3HA:DWORD				; iCount
EXTRN	___security_cookie:DWORD
EXTRN	@__security_check_cookie@4:PROC
;	COMDAT ??_C@_0P@GMPEKMII@Test?5Data?5Send?$AA@
CONST	SEGMENT
??_C@_0P@GMPEKMII@Test?5Data?5Send?$AA@ DB 'Test Data Send', 00H ; `string'
CONST	ENDS
;	COMDAT ??_C@_02DKCKIIND@?$CFs?$AA@
CONST	SEGMENT
??_C@_02DKCKIIND@?$CFs?$AA@ DB '%s', 00H		; `string'
CONST	ENDS
;	COMDAT ??_C@_02DPKJAMEF@?$CFd?$AA@
CONST	SEGMENT
??_C@_02DPKJAMEF@?$CFd?$AA@ DB '%d', 00H		; `string'
; Function compile flags: /Odtp /ZI
CONST	ENDS
_TEXT	SEGMENT
_size$ = -2012						; size = 4
_pMsg$ = -2008						; size = 2004
__$ArrayPad$ = -4					; size = 4
?TestDSSend@@YAXXZ PROC					; TestDSSend

; 653  : {

  00b90	55		 push	 ebp
  00b91	8b ec		 mov	 ebp, esp
  00b93	81 ec 1c 08 00
	00		 sub	 esp, 2076		; 0000081cH
  00b99	a1 00 00 00 00	 mov	 eax, DWORD PTR ___security_cookie
  00b9e	33 c5		 xor	 eax, ebp
  00ba0	89 45 fc	 mov	 DWORD PTR __$ArrayPad$[ebp], eax
  00ba3	53		 push	 ebx
  00ba4	56		 push	 esi
  00ba5	57		 push	 edi

; 654  : 	PMSG_TEST pMsg;
; 655  : 	int size;
; 656  : 
; 657  : 	size = sizeof(PMSG_TEST);

  00ba6	c7 85 24 f8 ff
	ff d4 07 00 00	 mov	 DWORD PTR _size$[ebp], 2004 ; 000007d4H

; 658  : 	pMsg.h.c=0xC2;

  00bb0	c6 85 28 f8 ff
	ff c2		 mov	 BYTE PTR _pMsg$[ebp], 194 ; 000000c2H

; 659  : 	pMsg.h.headcode =0xFF;

  00bb7	c6 85 2b f8 ff
	ff ff		 mov	 BYTE PTR _pMsg$[ebp+3], 255 ; 000000ffH

; 660  : 	pMsg.h.sizeH = SET_NUMBERH(size);

  00bbe	8b 85 24 f8 ff
	ff		 mov	 eax, DWORD PTR _size$[ebp]
  00bc4	c1 e8 08	 shr	 eax, 8
  00bc7	88 85 29 f8 ff
	ff		 mov	 BYTE PTR _pMsg$[ebp+1], al

; 661  : 	pMsg.h.sizeL = SET_NUMBERL(size);

  00bcd	8b 85 24 f8 ff
	ff		 mov	 eax, DWORD PTR _size$[ebp]
  00bd3	25 ff 00 00 00	 and	 eax, 255		; 000000ffH
  00bd8	88 85 2a f8 ff
	ff		 mov	 BYTE PTR _pMsg$[ebp+2], al

; 662  : 
; 663  : 	wsprintf(pMsg.testbuf, "%d", iCount);

  00bde	a1 00 00 00 00	 mov	 eax, DWORD PTR ?iCount@@3HA ; iCount
  00be3	50		 push	 eax
  00be4	68 00 00 00 00	 push	 OFFSET ??_C@_02DPKJAMEF@?$CFd?$AA@
  00be9	8d 8d 2c f8 ff
	ff		 lea	 ecx, DWORD PTR _pMsg$[ebp+4]
  00bef	51		 push	 ecx
  00bf0	ff 15 00 00 00
	00		 call	 DWORD PTR __imp__wsprintfA
  00bf6	83 c4 0c	 add	 esp, 12			; 0000000cH

; 664  : 	LogAdd("%s", pMsg.testbuf );

  00bf9	8d 85 2c f8 ff
	ff		 lea	 eax, DWORD PTR _pMsg$[ebp+4]
  00bff	50		 push	 eax
  00c00	68 00 00 00 00	 push	 OFFSET ??_C@_02DKCKIIND@?$CFs?$AA@
  00c05	ff 15 00 00 00
	00		 call	 DWORD PTR ?LogAdd@@3P6AXPADZZA ; LogAdd
  00c0b	83 c4 08	 add	 esp, 8

; 665  : 	cDBSMng.Send((char *)&pMsg, size);

  00c0e	8b 85 24 f8 ff
	ff		 mov	 eax, DWORD PTR _size$[ebp]
  00c14	50		 push	 eax
  00c15	8d 8d 28 f8 ff
	ff		 lea	 ecx, DWORD PTR _pMsg$[ebp]
  00c1b	51		 push	 ecx
  00c1c	b9 00 00 00 00	 mov	 ecx, OFFSET ?cDBSMng@@3VDBSockMng@@A ; cDBSMng
  00c21	e8 00 00 00 00	 call	 ?Send@DBSockMng@@QAEHPADH@Z ; DBSockMng::Send

; 666  : 	iCount++;

  00c26	a1 00 00 00 00	 mov	 eax, DWORD PTR ?iCount@@3HA ; iCount
  00c2b	83 c0 01	 add	 eax, 1
  00c2e	a3 00 00 00 00	 mov	 DWORD PTR ?iCount@@3HA, eax ; iCount

; 667  : 
; 668  : 	wsprintf(pMsg.testbuf, "%d", iCount);

  00c33	a1 00 00 00 00	 mov	 eax, DWORD PTR ?iCount@@3HA ; iCount
  00c38	50		 push	 eax
  00c39	68 00 00 00 00	 push	 OFFSET ??_C@_02DPKJAMEF@?$CFd?$AA@
  00c3e	8d 8d 2c f8 ff
	ff		 lea	 ecx, DWORD PTR _pMsg$[ebp+4]
  00c44	51		 push	 ecx
  00c45	ff 15 00 00 00
	00		 call	 DWORD PTR __imp__wsprintfA
  00c4b	83 c4 0c	 add	 esp, 12			; 0000000cH

; 669  : 	LogAdd("%s", pMsg.testbuf);

  00c4e	8d 85 2c f8 ff
	ff		 lea	 eax, DWORD PTR _pMsg$[ebp+4]
  00c54	50		 push	 eax
  00c55	68 00 00 00 00	 push	 OFFSET ??_C@_02DKCKIIND@?$CFs?$AA@
  00c5a	ff 15 00 00 00
	00		 call	 DWORD PTR ?LogAdd@@3P6AXPADZZA ; LogAdd
  00c60	83 c4 08	 add	 esp, 8

; 670  : 	cDBSMng.Send((char *)&pMsg, size);

  00c63	8b 85 24 f8 ff
	ff		 mov	 eax, DWORD PTR _size$[ebp]
  00c69	50		 push	 eax
  00c6a	8d 8d 28 f8 ff
	ff		 lea	 ecx, DWORD PTR _pMsg$[ebp]
  00c70	51		 push	 ecx
  00c71	b9 00 00 00 00	 mov	 ecx, OFFSET ?cDBSMng@@3VDBSockMng@@A ; cDBSMng
  00c76	e8 00 00 00 00	 call	 ?Send@DBSockMng@@QAEHPADH@Z ; DBSockMng::Send

; 671  : 	iCount++;

  00c7b	a1 00 00 00 00	 mov	 eax, DWORD PTR ?iCount@@3HA ; iCount
  00c80	83 c0 01	 add	 eax, 1
  00c83	a3 00 00 00 00	 mov	 DWORD PTR ?iCount@@3HA, eax ; iCount

; 672  : 
; 673  : 	wsprintf(pMsg.testbuf, "%d", iCount);

  00c88	a1 00 00 00 00	 mov	 eax, DWORD PTR ?iCount@@3HA ; iCount
  00c8d	50		 push	 eax
  00c8e	68 00 00 00 00	 push	 OFFSET ??_C@_02DPKJAMEF@?$CFd?$AA@
  00c93	8d 8d 2c f8 ff
	ff		 lea	 ecx, DWORD PTR _pMsg$[ebp+4]
  00c99	51		 push	 ecx
  00c9a	ff 15 00 00 00
	00		 call	 DWORD PTR __imp__wsprintfA
  00ca0	83 c4 0c	 add	 esp, 12			; 0000000cH

; 674  : 	LogAdd("%s", pMsg.testbuf);

  00ca3	8d 85 2c f8 ff
	ff		 lea	 eax, DWORD PTR _pMsg$[ebp+4]
  00ca9	50		 push	 eax
  00caa	68 00 00 00 00	 push	 OFFSET ??_C@_02DKCKIIND@?$CFs?$AA@
  00caf	ff 15 00 00 00
	00		 call	 DWORD PTR ?LogAdd@@3P6AXPADZZA ; LogAdd
  00cb5	83 c4 08	 add	 esp, 8

; 675  : 	cDBSMng.Send((char *)&pMsg, size);

  00cb8	8b 85 24 f8 ff
	ff		 mov	 eax, DWORD PTR _size$[ebp]
  00cbe	50		 push	 eax
  00cbf	8d 8d 28 f8 ff
	ff		 lea	 ecx, DWORD PTR _pMsg$[ebp]
  00cc5	51		 push	 ecx
  00cc6	b9 00 00 00 00	 mov	 ecx, OFFSET ?cDBSMng@@3VDBSockMng@@A ; cDBSMng
  00ccb	e8 00 00 00 00	 call	 ?Send@DBSockMng@@QAEHPADH@Z ; DBSockMng::Send

; 676  : 	iCount++;

  00cd0	a1 00 00 00 00	 mov	 eax, DWORD PTR ?iCount@@3HA ; iCount
  00cd5	83 c0 01	 add	 eax, 1
  00cd8	a3 00 00 00 00	 mov	 DWORD PTR ?iCount@@3HA, eax ; iCount

; 677  : 
; 678  : 	wsprintf(pMsg.testbuf, "%d", iCount);

  00cdd	a1 00 00 00 00	 mov	 eax, DWORD PTR ?iCount@@3HA ; iCount
  00ce2	50		 push	 eax
  00ce3	68 00 00 00 00	 push	 OFFSET ??_C@_02DPKJAMEF@?$CFd?$AA@
  00ce8	8d 8d 2c f8 ff
	ff		 lea	 ecx, DWORD PTR _pMsg$[ebp+4]
  00cee	51		 push	 ecx
  00cef	ff 15 00 00 00
	00		 call	 DWORD PTR __imp__wsprintfA
  00cf5	83 c4 0c	 add	 esp, 12			; 0000000cH

; 679  : 	LogAdd("%s", pMsg.testbuf);

  00cf8	8d 85 2c f8 ff
	ff		 lea	 eax, DWORD PTR _pMsg$[ebp+4]
  00cfe	50		 push	 eax
  00cff	68 00 00 00 00	 push	 OFFSET ??_C@_02DKCKIIND@?$CFs?$AA@
  00d04	ff 15 00 00 00
	00		 call	 DWORD PTR ?LogAdd@@3P6AXPADZZA ; LogAdd
  00d0a	83 c4 08	 add	 esp, 8

; 680  : 	cDBSMng.Send((char *)&pMsg, size);

  00d0d	8b 85 24 f8 ff
	ff		 mov	 eax, DWORD PTR _size$[ebp]
  00d13	50		 push	 eax
  00d14	8d 8d 28 f8 ff
	ff		 lea	 ecx, DWORD PTR _pMsg$[ebp]
  00d1a	51		 push	 ecx
  00d1b	b9 00 00 00 00	 mov	 ecx, OFFSET ?cDBSMng@@3VDBSockMng@@A ; cDBSMng
  00d20	e8 00 00 00 00	 call	 ?Send@DBSockMng@@QAEHPADH@Z ; DBSockMng::Send

; 681  : 	iCount++;

  00d25	a1 00 00 00 00	 mov	 eax, DWORD PTR ?iCount@@3HA ; iCount
  00d2a	83 c0 01	 add	 eax, 1
  00d2d	a3 00 00 00 00	 mov	 DWORD PTR ?iCount@@3HA, eax ; iCount

; 682  : 
; 683  : 	wsprintf(pMsg.testbuf, "%d", iCount);

  00d32	a1 00 00 00 00	 mov	 eax, DWORD PTR ?iCount@@3HA ; iCount
  00d37	50		 push	 eax
  00d38	68 00 00 00 00	 push	 OFFSET ??_C@_02DPKJAMEF@?$CFd?$AA@
  00d3d	8d 8d 2c f8 ff
	ff		 lea	 ecx, DWORD PTR _pMsg$[ebp+4]
  00d43	51		 push	 ecx
  00d44	ff 15 00 00 00
	00		 call	 DWORD PTR __imp__wsprintfA
  00d4a	83 c4 0c	 add	 esp, 12			; 0000000cH

; 684  : 	LogAdd("%s", pMsg.testbuf);

  00d4d	8d 85 2c f8 ff
	ff		 lea	 eax, DWORD PTR _pMsg$[ebp+4]
  00d53	50		 push	 eax
  00d54	68 00 00 00 00	 push	 OFFSET ??_C@_02DKCKIIND@?$CFs?$AA@
  00d59	ff 15 00 00 00
	00		 call	 DWORD PTR ?LogAdd@@3P6AXPADZZA ; LogAdd
  00d5f	83 c4 08	 add	 esp, 8

; 685  : 	cDBSMng.Send((char *)&pMsg, size);

  00d62	8b 85 24 f8 ff
	ff		 mov	 eax, DWORD PTR _size$[ebp]
  00d68	50		 push	 eax
  00d69	8d 8d 28 f8 ff
	ff		 lea	 ecx, DWORD PTR _pMsg$[ebp]
  00d6f	51		 push	 ecx
  00d70	b9 00 00 00 00	 mov	 ecx, OFFSET ?cDBSMng@@3VDBSockMng@@A ; cDBSMng
  00d75	e8 00 00 00 00	 call	 ?Send@DBSockMng@@QAEHPADH@Z ; DBSockMng::Send

; 686  : 	iCount++;

  00d7a	a1 00 00 00 00	 mov	 eax, DWORD PTR ?iCount@@3HA ; iCount
  00d7f	83 c0 01	 add	 eax, 1
  00d82	a3 00 00 00 00	 mov	 DWORD PTR ?iCount@@3HA, eax ; iCount

; 687  : 
; 688  : 	wsprintf(pMsg.testbuf, "%d", iCount);

  00d87	a1 00 00 00 00	 mov	 eax, DWORD PTR ?iCount@@3HA ; iCount
  00d8c	50		 push	 eax
  00d8d	68 00 00 00 00	 push	 OFFSET ??_C@_02DPKJAMEF@?$CFd?$AA@
  00d92	8d 8d 2c f8 ff
	ff		 lea	 ecx, DWORD PTR _pMsg$[ebp+4]
  00d98	51		 push	 ecx
  00d99	ff 15 00 00 00
	00		 call	 DWORD PTR __imp__wsprintfA
  00d9f	83 c4 0c	 add	 esp, 12			; 0000000cH

; 689  : 	LogAdd("%s", pMsg.testbuf);

  00da2	8d 85 2c f8 ff
	ff		 lea	 eax, DWORD PTR _pMsg$[ebp+4]
  00da8	50		 push	 eax
  00da9	68 00 00 00 00	 push	 OFFSET ??_C@_02DKCKIIND@?$CFs?$AA@
  00dae	ff 15 00 00 00
	00		 call	 DWORD PTR ?LogAdd@@3P6AXPADZZA ; LogAdd
  00db4	83 c4 08	 add	 esp, 8

; 690  : 	cDBSMng.Send((char *)&pMsg, size);

  00db7	8b 85 24 f8 ff
	ff		 mov	 eax, DWORD PTR _size$[ebp]
  00dbd	50		 push	 eax
  00dbe	8d 8d 28 f8 ff
	ff		 lea	 ecx, DWORD PTR _pMsg$[ebp]
  00dc4	51		 push	 ecx
  00dc5	b9 00 00 00 00	 mov	 ecx, OFFSET ?cDBSMng@@3VDBSockMng@@A ; cDBSMng
  00dca	e8 00 00 00 00	 call	 ?Send@DBSockMng@@QAEHPADH@Z ; DBSockMng::Send

; 691  : 	iCount++;

  00dcf	a1 00 00 00 00	 mov	 eax, DWORD PTR ?iCount@@3HA ; iCount
  00dd4	83 c0 01	 add	 eax, 1
  00dd7	a3 00 00 00 00	 mov	 DWORD PTR ?iCount@@3HA, eax ; iCount

; 692  : 
; 693  : 	wsprintf(pMsg.testbuf, "%d", iCount);

  00ddc	a1 00 00 00 00	 mov	 eax, DWORD PTR ?iCount@@3HA ; iCount
  00de1	50		 push	 eax
  00de2	68 00 00 00 00	 push	 OFFSET ??_C@_02DPKJAMEF@?$CFd?$AA@
  00de7	8d 8d 2c f8 ff
	ff		 lea	 ecx, DWORD PTR _pMsg$[ebp+4]
  00ded	51		 push	 ecx
  00dee	ff 15 00 00 00
	00		 call	 DWORD PTR __imp__wsprintfA
  00df4	83 c4 0c	 add	 esp, 12			; 0000000cH

; 694  : 	LogAdd("%s", pMsg.testbuf);

  00df7	8d 85 2c f8 ff
	ff		 lea	 eax, DWORD PTR _pMsg$[ebp+4]
  00dfd	50		 push	 eax
  00dfe	68 00 00 00 00	 push	 OFFSET ??_C@_02DKCKIIND@?$CFs?$AA@
  00e03	ff 15 00 00 00
	00		 call	 DWORD PTR ?LogAdd@@3P6AXPADZZA ; LogAdd
  00e09	83 c4 08	 add	 esp, 8

; 695  : 	cDBSMng.Send((char *)&pMsg, size);

  00e0c	8b 85 24 f8 ff
	ff		 mov	 eax, DWORD PTR _size$[ebp]
  00e12	50		 push	 eax
  00e13	8d 8d 28 f8 ff
	ff		 lea	 ecx, DWORD PTR _pMsg$[ebp]
  00e19	51		 push	 ecx
  00e1a	b9 00 00 00 00	 mov	 ecx, OFFSET ?cDBSMng@@3VDBSockMng@@A ; cDBSMng
  00e1f	e8 00 00 00 00	 call	 ?Send@DBSockMng@@QAEHPADH@Z ; DBSockMng::Send

; 696  : 	iCount++;

  00e24	a1 00 00 00 00	 mov	 eax, DWORD PTR ?iCount@@3HA ; iCount
  00e29	83 c0 01	 add	 eax, 1
  00e2c	a3 00 00 00 00	 mov	 DWORD PTR ?iCount@@3HA, eax ; iCount

; 697  : 
; 698  : 	wsprintf(pMsg.testbuf, "%d", iCount);

  00e31	a1 00 00 00 00	 mov	 eax, DWORD PTR ?iCount@@3HA ; iCount
  00e36	50		 push	 eax
  00e37	68 00 00 00 00	 push	 OFFSET ??_C@_02DPKJAMEF@?$CFd?$AA@
  00e3c	8d 8d 2c f8 ff
	ff		 lea	 ecx, DWORD PTR _pMsg$[ebp+4]
  00e42	51		 push	 ecx
  00e43	ff 15 00 00 00
	00		 call	 DWORD PTR __imp__wsprintfA
  00e49	83 c4 0c	 add	 esp, 12			; 0000000cH

; 699  : 	LogAdd("%s", pMsg.testbuf);

  00e4c	8d 85 2c f8 ff
	ff		 lea	 eax, DWORD PTR _pMsg$[ebp+4]
  00e52	50		 push	 eax
  00e53	68 00 00 00 00	 push	 OFFSET ??_C@_02DKCKIIND@?$CFs?$AA@
  00e58	ff 15 00 00 00
	00		 call	 DWORD PTR ?LogAdd@@3P6AXPADZZA ; LogAdd
  00e5e	83 c4 08	 add	 esp, 8

; 700  : 	cDBSMng.Send((char *)&pMsg, size);

  00e61	8b 85 24 f8 ff
	ff		 mov	 eax, DWORD PTR _size$[ebp]
  00e67	50		 push	 eax
  00e68	8d 8d 28 f8 ff
	ff		 lea	 ecx, DWORD PTR _pMsg$[ebp]
  00e6e	51		 push	 ecx
  00e6f	b9 00 00 00 00	 mov	 ecx, OFFSET ?cDBSMng@@3VDBSockMng@@A ; cDBSMng
  00e74	e8 00 00 00 00	 call	 ?Send@DBSockMng@@QAEHPADH@Z ; DBSockMng::Send

; 701  : 	iCount++;

  00e79	a1 00 00 00 00	 mov	 eax, DWORD PTR ?iCount@@3HA ; iCount
  00e7e	83 c0 01	 add	 eax, 1
  00e81	a3 00 00 00 00	 mov	 DWORD PTR ?iCount@@3HA, eax ; iCount

; 702  : 
; 703  : 	wsprintf(pMsg.testbuf, "%d", iCount);

  00e86	a1 00 00 00 00	 mov	 eax, DWORD PTR ?iCount@@3HA ; iCount
  00e8b	50		 push	 eax
  00e8c	68 00 00 00 00	 push	 OFFSET ??_C@_02DPKJAMEF@?$CFd?$AA@
  00e91	8d 8d 2c f8 ff
	ff		 lea	 ecx, DWORD PTR _pMsg$[ebp+4]
  00e97	51		 push	 ecx
  00e98	ff 15 00 00 00
	00		 call	 DWORD PTR __imp__wsprintfA
  00e9e	83 c4 0c	 add	 esp, 12			; 0000000cH

; 704  : 	LogAdd("%s", pMsg.testbuf);

  00ea1	8d 85 2c f8 ff
	ff		 lea	 eax, DWORD PTR _pMsg$[ebp+4]
  00ea7	50		 push	 eax
  00ea8	68 00 00 00 00	 push	 OFFSET ??_C@_02DKCKIIND@?$CFs?$AA@
  00ead	ff 15 00 00 00
	00		 call	 DWORD PTR ?LogAdd@@3P6AXPADZZA ; LogAdd
  00eb3	83 c4 08	 add	 esp, 8

; 705  : 	cDBSMng.Send((char *)&pMsg, size);

  00eb6	8b 85 24 f8 ff
	ff		 mov	 eax, DWORD PTR _size$[ebp]
  00ebc	50		 push	 eax
  00ebd	8d 8d 28 f8 ff
	ff		 lea	 ecx, DWORD PTR _pMsg$[ebp]
  00ec3	51		 push	 ecx
  00ec4	b9 00 00 00 00	 mov	 ecx, OFFSET ?cDBSMng@@3VDBSockMng@@A ; cDBSMng
  00ec9	e8 00 00 00 00	 call	 ?Send@DBSockMng@@QAEHPADH@Z ; DBSockMng::Send

; 706  : 	iCount++;

  00ece	a1 00 00 00 00	 mov	 eax, DWORD PTR ?iCount@@3HA ; iCount
  00ed3	83 c0 01	 add	 eax, 1
  00ed6	a3 00 00 00 00	 mov	 DWORD PTR ?iCount@@3HA, eax ; iCount

; 707  : 
; 708  : 	wsprintf(pMsg.testbuf, "%d", iCount);

  00edb	a1 00 00 00 00	 mov	 eax, DWORD PTR ?iCount@@3HA ; iCount
  00ee0	50		 push	 eax
  00ee1	68 00 00 00 00	 push	 OFFSET ??_C@_02DPKJAMEF@?$CFd?$AA@
  00ee6	8d 8d 2c f8 ff
	ff		 lea	 ecx, DWORD PTR _pMsg$[ebp+4]
  00eec	51		 push	 ecx
  00eed	ff 15 00 00 00
	00		 call	 DWORD PTR __imp__wsprintfA
  00ef3	83 c4 0c	 add	 esp, 12			; 0000000cH

; 709  : 	LogAdd("%s", pMsg.testbuf);

  00ef6	8d 85 2c f8 ff
	ff		 lea	 eax, DWORD PTR _pMsg$[ebp+4]
  00efc	50		 push	 eax
  00efd	68 00 00 00 00	 push	 OFFSET ??_C@_02DKCKIIND@?$CFs?$AA@
  00f02	ff 15 00 00 00
	00		 call	 DWORD PTR ?LogAdd@@3P6AXPADZZA ; LogAdd
  00f08	83 c4 08	 add	 esp, 8

; 710  : 	cDBSMng.Send((char *)&pMsg, size);

  00f0b	8b 85 24 f8 ff
	ff		 mov	 eax, DWORD PTR _size$[ebp]
  00f11	50		 push	 eax
  00f12	8d 8d 28 f8 ff
	ff		 lea	 ecx, DWORD PTR _pMsg$[ebp]
  00f18	51		 push	 ecx
  00f19	b9 00 00 00 00	 mov	 ecx, OFFSET ?cDBSMng@@3VDBSockMng@@A ; cDBSMng
  00f1e	e8 00 00 00 00	 call	 ?Send@DBSockMng@@QAEHPADH@Z ; DBSockMng::Send

; 711  : 	iCount++;

  00f23	a1 00 00 00 00	 mov	 eax, DWORD PTR ?iCount@@3HA ; iCount
  00f28	83 c0 01	 add	 eax, 1
  00f2b	a3 00 00 00 00	 mov	 DWORD PTR ?iCount@@3HA, eax ; iCount

; 712  : 
; 713  : 	wsprintf(pMsg.testbuf, "%d", iCount);

  00f30	a1 00 00 00 00	 mov	 eax, DWORD PTR ?iCount@@3HA ; iCount
  00f35	50		 push	 eax
  00f36	68 00 00 00 00	 push	 OFFSET ??_C@_02DPKJAMEF@?$CFd?$AA@
  00f3b	8d 8d 2c f8 ff
	ff		 lea	 ecx, DWORD PTR _pMsg$[ebp+4]
  00f41	51		 push	 ecx
  00f42	ff 15 00 00 00
	00		 call	 DWORD PTR __imp__wsprintfA
  00f48	83 c4 0c	 add	 esp, 12			; 0000000cH

; 714  : 	LogAdd("%s", pMsg.testbuf);

  00f4b	8d 85 2c f8 ff
	ff		 lea	 eax, DWORD PTR _pMsg$[ebp+4]
  00f51	50		 push	 eax
  00f52	68 00 00 00 00	 push	 OFFSET ??_C@_02DKCKIIND@?$CFs?$AA@
  00f57	ff 15 00 00 00
	00		 call	 DWORD PTR ?LogAdd@@3P6AXPADZZA ; LogAdd
  00f5d	83 c4 08	 add	 esp, 8

; 715  : 	cDBSMng.Send((char *)&pMsg, size);

  00f60	8b 85 24 f8 ff
	ff		 mov	 eax, DWORD PTR _size$[ebp]
  00f66	50		 push	 eax
  00f67	8d 8d 28 f8 ff
	ff		 lea	 ecx, DWORD PTR _pMsg$[ebp]
  00f6d	51		 push	 ecx
  00f6e	b9 00 00 00 00	 mov	 ecx, OFFSET ?cDBSMng@@3VDBSockMng@@A ; cDBSMng
  00f73	e8 00 00 00 00	 call	 ?Send@DBSockMng@@QAEHPADH@Z ; DBSockMng::Send

; 716  : 	iCount++;

  00f78	a1 00 00 00 00	 mov	 eax, DWORD PTR ?iCount@@3HA ; iCount
  00f7d	83 c0 01	 add	 eax, 1
  00f80	a3 00 00 00 00	 mov	 DWORD PTR ?iCount@@3HA, eax ; iCount

; 717  : 
; 718  : 	wsprintf(pMsg.testbuf, "%d", iCount);

  00f85	a1 00 00 00 00	 mov	 eax, DWORD PTR ?iCount@@3HA ; iCount
  00f8a	50		 push	 eax
  00f8b	68 00 00 00 00	 push	 OFFSET ??_C@_02DPKJAMEF@?$CFd?$AA@
  00f90	8d 8d 2c f8 ff
	ff		 lea	 ecx, DWORD PTR _pMsg$[ebp+4]
  00f96	51		 push	 ecx
  00f97	ff 15 00 00 00
	00		 call	 DWORD PTR __imp__wsprintfA
  00f9d	83 c4 0c	 add	 esp, 12			; 0000000cH

; 719  : 	LogAdd("%s", pMsg.testbuf);

  00fa0	8d 85 2c f8 ff
	ff		 lea	 eax, DWORD PTR _pMsg$[ebp+4]
  00fa6	50		 push	 eax
  00fa7	68 00 00 00 00	 push	 OFFSET ??_C@_02DKCKIIND@?$CFs?$AA@
  00fac	ff 15 00 00 00
	00		 call	 DWORD PTR ?LogAdd@@3P6AXPADZZA ; LogAdd
  00fb2	83 c4 08	 add	 esp, 8

; 720  : 	cDBSMng.Send((char *)&pMsg, size);

  00fb5	8b 85 24 f8 ff
	ff		 mov	 eax, DWORD PTR _size$[ebp]
  00fbb	50		 push	 eax
  00fbc	8d 8d 28 f8 ff
	ff		 lea	 ecx, DWORD PTR _pMsg$[ebp]
  00fc2	51		 push	 ecx
  00fc3	b9 00 00 00 00	 mov	 ecx, OFFSET ?cDBSMng@@3VDBSockMng@@A ; cDBSMng
  00fc8	e8 00 00 00 00	 call	 ?Send@DBSockMng@@QAEHPADH@Z ; DBSockMng::Send

; 721  : 	iCount++;

  00fcd	a1 00 00 00 00	 mov	 eax, DWORD PTR ?iCount@@3HA ; iCount
  00fd2	83 c0 01	 add	 eax, 1
  00fd5	a3 00 00 00 00	 mov	 DWORD PTR ?iCount@@3HA, eax ; iCount

; 722  : 
; 723  : 	wsprintf(pMsg.testbuf, "%d", iCount);

  00fda	a1 00 00 00 00	 mov	 eax, DWORD PTR ?iCount@@3HA ; iCount
  00fdf	50		 push	 eax
  00fe0	68 00 00 00 00	 push	 OFFSET ??_C@_02DPKJAMEF@?$CFd?$AA@
  00fe5	8d 8d 2c f8 ff
	ff		 lea	 ecx, DWORD PTR _pMsg$[ebp+4]
  00feb	51		 push	 ecx
  00fec	ff 15 00 00 00
	00		 call	 DWORD PTR __imp__wsprintfA
  00ff2	83 c4 0c	 add	 esp, 12			; 0000000cH

; 724  : 	LogAdd("%s", pMsg.testbuf);

  00ff5	8d 85 2c f8 ff
	ff		 lea	 eax, DWORD PTR _pMsg$[ebp+4]
  00ffb	50		 push	 eax
  00ffc	68 00 00 00 00	 push	 OFFSET ??_C@_02DKCKIIND@?$CFs?$AA@
  01001	ff 15 00 00 00
	00		 call	 DWORD PTR ?LogAdd@@3P6AXPADZZA ; LogAdd
  01007	83 c4 08	 add	 esp, 8

; 725  : 	cDBSMng.Send((char *)&pMsg, size);

  0100a	8b 85 24 f8 ff
	ff		 mov	 eax, DWORD PTR _size$[ebp]
  01010	50		 push	 eax
  01011	8d 8d 28 f8 ff
	ff		 lea	 ecx, DWORD PTR _pMsg$[ebp]
  01017	51		 push	 ecx
  01018	b9 00 00 00 00	 mov	 ecx, OFFSET ?cDBSMng@@3VDBSockMng@@A ; cDBSMng
  0101d	e8 00 00 00 00	 call	 ?Send@DBSockMng@@QAEHPADH@Z ; DBSockMng::Send

; 726  : 	iCount++;

  01022	a1 00 00 00 00	 mov	 eax, DWORD PTR ?iCount@@3HA ; iCount
  01027	83 c0 01	 add	 eax, 1
  0102a	a3 00 00 00 00	 mov	 DWORD PTR ?iCount@@3HA, eax ; iCount

; 727  : 
; 728  : 	wsprintf(pMsg.testbuf, "%d", iCount);

  0102f	a1 00 00 00 00	 mov	 eax, DWORD PTR ?iCount@@3HA ; iCount
  01034	50		 push	 eax
  01035	68 00 00 00 00	 push	 OFFSET ??_C@_02DPKJAMEF@?$CFd?$AA@
  0103a	8d 8d 2c f8 ff
	ff		 lea	 ecx, DWORD PTR _pMsg$[ebp+4]
  01040	51		 push	 ecx
  01041	ff 15 00 00 00
	00		 call	 DWORD PTR __imp__wsprintfA
  01047	83 c4 0c	 add	 esp, 12			; 0000000cH

; 729  : 	LogAdd("%s", pMsg.testbuf);

  0104a	8d 85 2c f8 ff
	ff		 lea	 eax, DWORD PTR _pMsg$[ebp+4]
  01050	50		 push	 eax
  01051	68 00 00 00 00	 push	 OFFSET ??_C@_02DKCKIIND@?$CFs?$AA@
  01056	ff 15 00 00 00
	00		 call	 DWORD PTR ?LogAdd@@3P6AXPADZZA ; LogAdd
  0105c	83 c4 08	 add	 esp, 8

; 730  : 	cDBSMng.Send((char *)&pMsg, size);

  0105f	8b 85 24 f8 ff
	ff		 mov	 eax, DWORD PTR _size$[ebp]
  01065	50		 push	 eax
  01066	8d 8d 28 f8 ff
	ff		 lea	 ecx, DWORD PTR _pMsg$[ebp]
  0106c	51		 push	 ecx
  0106d	b9 00 00 00 00	 mov	 ecx, OFFSET ?cDBSMng@@3VDBSockMng@@A ; cDBSMng
  01072	e8 00 00 00 00	 call	 ?Send@DBSockMng@@QAEHPADH@Z ; DBSockMng::Send

; 731  : 	iCount++;

  01077	a1 00 00 00 00	 mov	 eax, DWORD PTR ?iCount@@3HA ; iCount
  0107c	83 c0 01	 add	 eax, 1
  0107f	a3 00 00 00 00	 mov	 DWORD PTR ?iCount@@3HA, eax ; iCount

; 732  : 
; 733  : 	wsprintf(pMsg.testbuf, "%d", iCount);

  01084	a1 00 00 00 00	 mov	 eax, DWORD PTR ?iCount@@3HA ; iCount
  01089	50		 push	 eax
  0108a	68 00 00 00 00	 push	 OFFSET ??_C@_02DPKJAMEF@?$CFd?$AA@
  0108f	8d 8d 2c f8 ff
	ff		 lea	 ecx, DWORD PTR _pMsg$[ebp+4]
  01095	51		 push	 ecx
  01096	ff 15 00 00 00
	00		 call	 DWORD PTR __imp__wsprintfA
  0109c	83 c4 0c	 add	 esp, 12			; 0000000cH

; 734  : 	LogAdd("%s", pMsg.testbuf);

  0109f	8d 85 2c f8 ff
	ff		 lea	 eax, DWORD PTR _pMsg$[ebp+4]
  010a5	50		 push	 eax
  010a6	68 00 00 00 00	 push	 OFFSET ??_C@_02DKCKIIND@?$CFs?$AA@
  010ab	ff 15 00 00 00
	00		 call	 DWORD PTR ?LogAdd@@3P6AXPADZZA ; LogAdd
  010b1	83 c4 08	 add	 esp, 8

; 735  : 	cDBSMng.Send((char *)&pMsg, size);

  010b4	8b 85 24 f8 ff
	ff		 mov	 eax, DWORD PTR _size$[ebp]
  010ba	50		 push	 eax
  010bb	8d 8d 28 f8 ff
	ff		 lea	 ecx, DWORD PTR _pMsg$[ebp]
  010c1	51		 push	 ecx
  010c2	b9 00 00 00 00	 mov	 ecx, OFFSET ?cDBSMng@@3VDBSockMng@@A ; cDBSMng
  010c7	e8 00 00 00 00	 call	 ?Send@DBSockMng@@QAEHPADH@Z ; DBSockMng::Send

; 736  : 	iCount++;

  010cc	a1 00 00 00 00	 mov	 eax, DWORD PTR ?iCount@@3HA ; iCount
  010d1	83 c0 01	 add	 eax, 1
  010d4	a3 00 00 00 00	 mov	 DWORD PTR ?iCount@@3HA, eax ; iCount

; 737  : 
; 738  : 	wsprintf(pMsg.testbuf, "%d", iCount);

  010d9	a1 00 00 00 00	 mov	 eax, DWORD PTR ?iCount@@3HA ; iCount
  010de	50		 push	 eax
  010df	68 00 00 00 00	 push	 OFFSET ??_C@_02DPKJAMEF@?$CFd?$AA@
  010e4	8d 8d 2c f8 ff
	ff		 lea	 ecx, DWORD PTR _pMsg$[ebp+4]
  010ea	51		 push	 ecx
  010eb	ff 15 00 00 00
	00		 call	 DWORD PTR __imp__wsprintfA
  010f1	83 c4 0c	 add	 esp, 12			; 0000000cH

; 739  : 	LogAdd("%s", pMsg.testbuf);

  010f4	8d 85 2c f8 ff
	ff		 lea	 eax, DWORD PTR _pMsg$[ebp+4]
  010fa	50		 push	 eax
  010fb	68 00 00 00 00	 push	 OFFSET ??_C@_02DKCKIIND@?$CFs?$AA@
  01100	ff 15 00 00 00
	00		 call	 DWORD PTR ?LogAdd@@3P6AXPADZZA ; LogAdd
  01106	83 c4 08	 add	 esp, 8

; 740  : 	cDBSMng.Send((char *)&pMsg, size);

  01109	8b 85 24 f8 ff
	ff		 mov	 eax, DWORD PTR _size$[ebp]
  0110f	50		 push	 eax
  01110	8d 8d 28 f8 ff
	ff		 lea	 ecx, DWORD PTR _pMsg$[ebp]
  01116	51		 push	 ecx
  01117	b9 00 00 00 00	 mov	 ecx, OFFSET ?cDBSMng@@3VDBSockMng@@A ; cDBSMng
  0111c	e8 00 00 00 00	 call	 ?Send@DBSockMng@@QAEHPADH@Z ; DBSockMng::Send

; 741  : 	iCount++;

  01121	a1 00 00 00 00	 mov	 eax, DWORD PTR ?iCount@@3HA ; iCount
  01126	83 c0 01	 add	 eax, 1
  01129	a3 00 00 00 00	 mov	 DWORD PTR ?iCount@@3HA, eax ; iCount

; 742  : 
; 743  : 	wsprintf(pMsg.testbuf, "%d", iCount);

  0112e	a1 00 00 00 00	 mov	 eax, DWORD PTR ?iCount@@3HA ; iCount
  01133	50		 push	 eax
  01134	68 00 00 00 00	 push	 OFFSET ??_C@_02DPKJAMEF@?$CFd?$AA@
  01139	8d 8d 2c f8 ff
	ff		 lea	 ecx, DWORD PTR _pMsg$[ebp+4]
  0113f	51		 push	 ecx
  01140	ff 15 00 00 00
	00		 call	 DWORD PTR __imp__wsprintfA
  01146	83 c4 0c	 add	 esp, 12			; 0000000cH

; 744  : 	LogAdd("%s", pMsg.testbuf);

  01149	8d 85 2c f8 ff
	ff		 lea	 eax, DWORD PTR _pMsg$[ebp+4]
  0114f	50		 push	 eax
  01150	68 00 00 00 00	 push	 OFFSET ??_C@_02DKCKIIND@?$CFs?$AA@
  01155	ff 15 00 00 00
	00		 call	 DWORD PTR ?LogAdd@@3P6AXPADZZA ; LogAdd
  0115b	83 c4 08	 add	 esp, 8

; 745  : 	cDBSMng.Send((char *)&pMsg, size);

  0115e	8b 85 24 f8 ff
	ff		 mov	 eax, DWORD PTR _size$[ebp]
  01164	50		 push	 eax
  01165	8d 8d 28 f8 ff
	ff		 lea	 ecx, DWORD PTR _pMsg$[ebp]
  0116b	51		 push	 ecx
  0116c	b9 00 00 00 00	 mov	 ecx, OFFSET ?cDBSMng@@3VDBSockMng@@A ; cDBSMng
  01171	e8 00 00 00 00	 call	 ?Send@DBSockMng@@QAEHPADH@Z ; DBSockMng::Send

; 746  : 	iCount++;

  01176	a1 00 00 00 00	 mov	 eax, DWORD PTR ?iCount@@3HA ; iCount
  0117b	83 c0 01	 add	 eax, 1
  0117e	a3 00 00 00 00	 mov	 DWORD PTR ?iCount@@3HA, eax ; iCount

; 747  : 
; 748  : 	wsprintf(pMsg.testbuf, "%d", iCount);

  01183	a1 00 00 00 00	 mov	 eax, DWORD PTR ?iCount@@3HA ; iCount
  01188	50		 push	 eax
  01189	68 00 00 00 00	 push	 OFFSET ??_C@_02DPKJAMEF@?$CFd?$AA@
  0118e	8d 8d 2c f8 ff
	ff		 lea	 ecx, DWORD PTR _pMsg$[ebp+4]
  01194	51		 push	 ecx
  01195	ff 15 00 00 00
	00		 call	 DWORD PTR __imp__wsprintfA
  0119b	83 c4 0c	 add	 esp, 12			; 0000000cH

; 749  : 	LogAdd("%s", pMsg.testbuf);

  0119e	8d 85 2c f8 ff
	ff		 lea	 eax, DWORD PTR _pMsg$[ebp+4]
  011a4	50		 push	 eax
  011a5	68 00 00 00 00	 push	 OFFSET ??_C@_02DKCKIIND@?$CFs?$AA@
  011aa	ff 15 00 00 00
	00		 call	 DWORD PTR ?LogAdd@@3P6AXPADZZA ; LogAdd
  011b0	83 c4 08	 add	 esp, 8

; 750  : 	cDBSMng.Send((char *)&pMsg, size);

  011b3	8b 85 24 f8 ff
	ff		 mov	 eax, DWORD PTR _size$[ebp]
  011b9	50		 push	 eax
  011ba	8d 8d 28 f8 ff
	ff		 lea	 ecx, DWORD PTR _pMsg$[ebp]
  011c0	51		 push	 ecx
  011c1	b9 00 00 00 00	 mov	 ecx, OFFSET ?cDBSMng@@3VDBSockMng@@A ; cDBSMng
  011c6	e8 00 00 00 00	 call	 ?Send@DBSockMng@@QAEHPADH@Z ; DBSockMng::Send

; 751  : 	iCount++;

  011cb	a1 00 00 00 00	 mov	 eax, DWORD PTR ?iCount@@3HA ; iCount
  011d0	83 c0 01	 add	 eax, 1
  011d3	a3 00 00 00 00	 mov	 DWORD PTR ?iCount@@3HA, eax ; iCount

; 752  : 
; 753  : 	wsprintf(pMsg.testbuf, "%d", iCount);

  011d8	a1 00 00 00 00	 mov	 eax, DWORD PTR ?iCount@@3HA ; iCount
  011dd	50		 push	 eax
  011de	68 00 00 00 00	 push	 OFFSET ??_C@_02DPKJAMEF@?$CFd?$AA@
  011e3	8d 8d 2c f8 ff
	ff		 lea	 ecx, DWORD PTR _pMsg$[ebp+4]
  011e9	51		 push	 ecx
  011ea	ff 15 00 00 00
	00		 call	 DWORD PTR __imp__wsprintfA
  011f0	83 c4 0c	 add	 esp, 12			; 0000000cH

; 754  : 	LogAdd("%s", pMsg.testbuf);

  011f3	8d 85 2c f8 ff
	ff		 lea	 eax, DWORD PTR _pMsg$[ebp+4]
  011f9	50		 push	 eax
  011fa	68 00 00 00 00	 push	 OFFSET ??_C@_02DKCKIIND@?$CFs?$AA@
  011ff	ff 15 00 00 00
	00		 call	 DWORD PTR ?LogAdd@@3P6AXPADZZA ; LogAdd
  01205	83 c4 08	 add	 esp, 8

; 755  : 	cDBSMng.Send((char *)&pMsg, size);

  01208	8b 85 24 f8 ff
	ff		 mov	 eax, DWORD PTR _size$[ebp]
  0120e	50		 push	 eax
  0120f	8d 8d 28 f8 ff
	ff		 lea	 ecx, DWORD PTR _pMsg$[ebp]
  01215	51		 push	 ecx
  01216	b9 00 00 00 00	 mov	 ecx, OFFSET ?cDBSMng@@3VDBSockMng@@A ; cDBSMng
  0121b	e8 00 00 00 00	 call	 ?Send@DBSockMng@@QAEHPADH@Z ; DBSockMng::Send

; 756  : 	iCount++;

  01220	a1 00 00 00 00	 mov	 eax, DWORD PTR ?iCount@@3HA ; iCount
  01225	83 c0 01	 add	 eax, 1
  01228	a3 00 00 00 00	 mov	 DWORD PTR ?iCount@@3HA, eax ; iCount

; 757  : 
; 758  : 	wsprintf(pMsg.testbuf, "%d", iCount);

  0122d	a1 00 00 00 00	 mov	 eax, DWORD PTR ?iCount@@3HA ; iCount
  01232	50		 push	 eax
  01233	68 00 00 00 00	 push	 OFFSET ??_C@_02DPKJAMEF@?$CFd?$AA@
  01238	8d 8d 2c f8 ff
	ff		 lea	 ecx, DWORD PTR _pMsg$[ebp+4]
  0123e	51		 push	 ecx
  0123f	ff 15 00 00 00
	00		 call	 DWORD PTR __imp__wsprintfA
  01245	83 c4 0c	 add	 esp, 12			; 0000000cH

; 759  : 	LogAdd("%s", pMsg.testbuf);

  01248	8d 85 2c f8 ff
	ff		 lea	 eax, DWORD PTR _pMsg$[ebp+4]
  0124e	50		 push	 eax
  0124f	68 00 00 00 00	 push	 OFFSET ??_C@_02DKCKIIND@?$CFs?$AA@
  01254	ff 15 00 00 00
	00		 call	 DWORD PTR ?LogAdd@@3P6AXPADZZA ; LogAdd
  0125a	83 c4 08	 add	 esp, 8

; 760  : 	cDBSMng.Send((char *)&pMsg, size);

  0125d	8b 85 24 f8 ff
	ff		 mov	 eax, DWORD PTR _size$[ebp]
  01263	50		 push	 eax
  01264	8d 8d 28 f8 ff
	ff		 lea	 ecx, DWORD PTR _pMsg$[ebp]
  0126a	51		 push	 ecx
  0126b	b9 00 00 00 00	 mov	 ecx, OFFSET ?cDBSMng@@3VDBSockMng@@A ; cDBSMng
  01270	e8 00 00 00 00	 call	 ?Send@DBSockMng@@QAEHPADH@Z ; DBSockMng::Send

; 761  : 	iCount++;

  01275	a1 00 00 00 00	 mov	 eax, DWORD PTR ?iCount@@3HA ; iCount
  0127a	83 c0 01	 add	 eax, 1
  0127d	a3 00 00 00 00	 mov	 DWORD PTR ?iCount@@3HA, eax ; iCount

; 762  : 
; 763  : 	wsprintf(pMsg.testbuf, "%d", iCount);

  01282	a1 00 00 00 00	 mov	 eax, DWORD PTR ?iCount@@3HA ; iCount
  01287	50		 push	 eax
  01288	68 00 00 00 00	 push	 OFFSET ??_C@_02DPKJAMEF@?$CFd?$AA@
  0128d	8d 8d 2c f8 ff
	ff		 lea	 ecx, DWORD PTR _pMsg$[ebp+4]
  01293	51		 push	 ecx
  01294	ff 15 00 00 00
	00		 call	 DWORD PTR __imp__wsprintfA
  0129a	83 c4 0c	 add	 esp, 12			; 0000000cH

; 764  : 	LogAdd("%s", pMsg.testbuf);

  0129d	8d 85 2c f8 ff
	ff		 lea	 eax, DWORD PTR _pMsg$[ebp+4]
  012a3	50		 push	 eax
  012a4	68 00 00 00 00	 push	 OFFSET ??_C@_02DKCKIIND@?$CFs?$AA@
  012a9	ff 15 00 00 00
	00		 call	 DWORD PTR ?LogAdd@@3P6AXPADZZA ; LogAdd
  012af	83 c4 08	 add	 esp, 8

; 765  : 	cDBSMng.Send((char *)&pMsg, size);

  012b2	8b 85 24 f8 ff
	ff		 mov	 eax, DWORD PTR _size$[ebp]
  012b8	50		 push	 eax
  012b9	8d 8d 28 f8 ff
	ff		 lea	 ecx, DWORD PTR _pMsg$[ebp]
  012bf	51		 push	 ecx
  012c0	b9 00 00 00 00	 mov	 ecx, OFFSET ?cDBSMng@@3VDBSockMng@@A ; cDBSMng
  012c5	e8 00 00 00 00	 call	 ?Send@DBSockMng@@QAEHPADH@Z ; DBSockMng::Send

; 766  : 	iCount++;

  012ca	a1 00 00 00 00	 mov	 eax, DWORD PTR ?iCount@@3HA ; iCount
  012cf	83 c0 01	 add	 eax, 1
  012d2	a3 00 00 00 00	 mov	 DWORD PTR ?iCount@@3HA, eax ; iCount

; 767  : 
; 768  : 	wsprintf(pMsg.testbuf, "%d", iCount);

  012d7	a1 00 00 00 00	 mov	 eax, DWORD PTR ?iCount@@3HA ; iCount
  012dc	50		 push	 eax
  012dd	68 00 00 00 00	 push	 OFFSET ??_C@_02DPKJAMEF@?$CFd?$AA@
  012e2	8d 8d 2c f8 ff
	ff		 lea	 ecx, DWORD PTR _pMsg$[ebp+4]
  012e8	51		 push	 ecx
  012e9	ff 15 00 00 00
	00		 call	 DWORD PTR __imp__wsprintfA
  012ef	83 c4 0c	 add	 esp, 12			; 0000000cH

; 769  : 	LogAdd("%s", pMsg.testbuf);

  012f2	8d 85 2c f8 ff
	ff		 lea	 eax, DWORD PTR _pMsg$[ebp+4]
  012f8	50		 push	 eax
  012f9	68 00 00 00 00	 push	 OFFSET ??_C@_02DKCKIIND@?$CFs?$AA@
  012fe	ff 15 00 00 00
	00		 call	 DWORD PTR ?LogAdd@@3P6AXPADZZA ; LogAdd
  01304	83 c4 08	 add	 esp, 8

; 770  : 	cDBSMng.Send((char *)&pMsg, size);

  01307	8b 85 24 f8 ff
	ff		 mov	 eax, DWORD PTR _size$[ebp]
  0130d	50		 push	 eax
  0130e	8d 8d 28 f8 ff
	ff		 lea	 ecx, DWORD PTR _pMsg$[ebp]
  01314	51		 push	 ecx
  01315	b9 00 00 00 00	 mov	 ecx, OFFSET ?cDBSMng@@3VDBSockMng@@A ; cDBSMng
  0131a	e8 00 00 00 00	 call	 ?Send@DBSockMng@@QAEHPADH@Z ; DBSockMng::Send

; 771  : 	iCount++;

  0131f	a1 00 00 00 00	 mov	 eax, DWORD PTR ?iCount@@3HA ; iCount
  01324	83 c0 01	 add	 eax, 1
  01327	a3 00 00 00 00	 mov	 DWORD PTR ?iCount@@3HA, eax ; iCount

; 772  : 
; 773  : 	wsprintf(pMsg.testbuf, "%d", iCount);

  0132c	a1 00 00 00 00	 mov	 eax, DWORD PTR ?iCount@@3HA ; iCount
  01331	50		 push	 eax
  01332	68 00 00 00 00	 push	 OFFSET ??_C@_02DPKJAMEF@?$CFd?$AA@
  01337	8d 8d 2c f8 ff
	ff		 lea	 ecx, DWORD PTR _pMsg$[ebp+4]
  0133d	51		 push	 ecx
  0133e	ff 15 00 00 00
	00		 call	 DWORD PTR __imp__wsprintfA
  01344	83 c4 0c	 add	 esp, 12			; 0000000cH

; 774  : 	LogAdd("%s", pMsg.testbuf);

  01347	8d 85 2c f8 ff
	ff		 lea	 eax, DWORD PTR _pMsg$[ebp+4]
  0134d	50		 push	 eax
  0134e	68 00 00 00 00	 push	 OFFSET ??_C@_02DKCKIIND@?$CFs?$AA@
  01353	ff 15 00 00 00
	00		 call	 DWORD PTR ?LogAdd@@3P6AXPADZZA ; LogAdd
  01359	83 c4 08	 add	 esp, 8

; 775  : 	cDBSMng.Send((char *)&pMsg, size);

  0135c	8b 85 24 f8 ff
	ff		 mov	 eax, DWORD PTR _size$[ebp]
  01362	50		 push	 eax
  01363	8d 8d 28 f8 ff
	ff		 lea	 ecx, DWORD PTR _pMsg$[ebp]
  01369	51		 push	 ecx
  0136a	b9 00 00 00 00	 mov	 ecx, OFFSET ?cDBSMng@@3VDBSockMng@@A ; cDBSMng
  0136f	e8 00 00 00 00	 call	 ?Send@DBSockMng@@QAEHPADH@Z ; DBSockMng::Send

; 776  : 	iCount++;

  01374	a1 00 00 00 00	 mov	 eax, DWORD PTR ?iCount@@3HA ; iCount
  01379	83 c0 01	 add	 eax, 1
  0137c	a3 00 00 00 00	 mov	 DWORD PTR ?iCount@@3HA, eax ; iCount

; 777  : 
; 778  : 	LogAdd("Test Data Send");

  01381	68 00 00 00 00	 push	 OFFSET ??_C@_0P@GMPEKMII@Test?5Data?5Send?$AA@
  01386	ff 15 00 00 00
	00		 call	 DWORD PTR ?LogAdd@@3P6AXPADZZA ; LogAdd
  0138c	83 c4 04	 add	 esp, 4

; 779  : }

  0138f	5f		 pop	 edi
  01390	5e		 pop	 esi
  01391	5b		 pop	 ebx
  01392	8b 4d fc	 mov	 ecx, DWORD PTR __$ArrayPad$[ebp]
  01395	33 cd		 xor	 ecx, ebp
  01397	e8 00 00 00 00	 call	 @__security_check_cookie@4
  0139c	8b e5		 mov	 esp, ebp
  0139e	5d		 pop	 ebp
  0139f	c3		 ret	 0
?TestDSSend@@YAXXZ ENDP					; TestDSSend
_TEXT	ENDS
PUBLIC	__$ArrayPad$
PUBLIC	?DataServerLogin@@YAXH@Z			; DataServerLogin
EXTRN	?GDLicenseUser@CExLicense@@QAEXXZ:PROC		; CExLicense::GDLicenseUser
EXTRN	?Send@DBSockMng@@QAEHHPADH@Z:PROC		; DBSockMng::Send
EXTRN	_strcpy:PROC
EXTRN	?szServerName@@3PADA:BYTE			; szServerName
EXTRN	?gGameServerCode@@3FA:WORD			; gGameServerCode
EXTRN	?GameServerPort@@3HA:DWORD			; GameServerPort
; Function compile flags: /Odtp /ZI
_TEXT	SEGMENT
_pInfo$ = -64						; size = 58
__$ArrayPad$ = -4					; size = 4
_server$ = 8						; size = 4
?DataServerLogin@@YAXH@Z PROC				; DataServerLogin

; 783  : {

  013a0	55		 push	 ebp
  013a1	8b ec		 mov	 ebp, esp
  013a3	81 ec 80 00 00
	00		 sub	 esp, 128		; 00000080H
  013a9	a1 00 00 00 00	 mov	 eax, DWORD PTR ___security_cookie
  013ae	33 c5		 xor	 eax, ebp
  013b0	89 45 fc	 mov	 DWORD PTR __$ArrayPad$[ebp], eax
  013b3	53		 push	 ebx
  013b4	56		 push	 esi
  013b5	57		 push	 edi

; 784  : 	SDHP_SERVERINFO pInfo;
; 785  : 	pInfo.h.c =0xC1;

  013b6	c6 45 c0 c1	 mov	 BYTE PTR _pInfo$[ebp], 193 ; 000000c1H

; 786  : 	pInfo.h.size = sizeof(SDHP_SERVERINFO);

  013ba	c6 45 c1 3a	 mov	 BYTE PTR _pInfo$[ebp+1], 58 ; 0000003aH

; 787  : 	pInfo.h.headcode =0x00;

  013be	c6 45 c2 00	 mov	 BYTE PTR _pInfo$[ebp+2], 0

; 788  : 	pInfo.Port =(WORD)GameServerPort;

  013c2	66 a1 00 00 00
	00		 mov	 ax, WORD PTR ?GameServerPort@@3HA
  013c8	66 89 45 c4	 mov	 WORD PTR _pInfo$[ebp+4], ax

; 789  : 	pInfo.Type =1;

  013cc	c6 45 c3 01	 mov	 BYTE PTR _pInfo$[ebp+3], 1

; 790  : 	pInfo.ServerCode =gGameServerCode;

  013d0	66 a1 00 00 00
	00		 mov	 ax, WORD PTR ?gGameServerCode@@3FA ; gGameServerCode
  013d6	66 89 45 f8	 mov	 WORD PTR _pInfo$[ebp+56], ax

; 791  : 	strcpy( (char*)&pInfo.ServerName[0], (const char*)&szServerName[0] );

  013da	68 00 00 00 00	 push	 OFFSET ?szServerName@@3PADA ; szServerName
  013df	8d 45 c6	 lea	 eax, DWORD PTR _pInfo$[ebp+6]
  013e2	50		 push	 eax
  013e3	e8 00 00 00 00	 call	 _strcpy
  013e8	83 c4 08	 add	 esp, 8

; 792  : 	cDBSMng.Send(server, (char*)&pInfo , pInfo.h.size  );	

  013eb	0f b6 45 c1	 movzx	 eax, BYTE PTR _pInfo$[ebp+1]
  013ef	50		 push	 eax
  013f0	8d 4d c0	 lea	 ecx, DWORD PTR _pInfo$[ebp]
  013f3	51		 push	 ecx
  013f4	8b 55 08	 mov	 edx, DWORD PTR _server$[ebp]
  013f7	52		 push	 edx
  013f8	b9 00 00 00 00	 mov	 ecx, OFFSET ?cDBSMng@@3VDBSockMng@@A ; cDBSMng
  013fd	e8 00 00 00 00	 call	 ?Send@DBSockMng@@QAEHHPADH@Z ; DBSockMng::Send

; 793  : 
; 794  : 	g_ExLicense.GDLicenseUser();

  01402	b9 00 00 00 00	 mov	 ecx, OFFSET ?g_ExLicense@@3VCExLicense@@A ; g_ExLicense
  01407	e8 00 00 00 00	 call	 ?GDLicenseUser@CExLicense@@QAEXXZ ; CExLicense::GDLicenseUser

; 795  : }

  0140c	5f		 pop	 edi
  0140d	5e		 pop	 esi
  0140e	5b		 pop	 ebx
  0140f	8b 4d fc	 mov	 ecx, DWORD PTR __$ArrayPad$[ebp]
  01412	33 cd		 xor	 ecx, ebp
  01414	e8 00 00 00 00	 call	 @__security_check_cookie@4
  01419	8b e5		 mov	 esp, ebp
  0141b	5d		 pop	 ebp
  0141c	c3		 ret	 0
?DataServerLogin@@YAXH@Z ENDP				; DataServerLogin
_TEXT	ENDS
EXTRN	?DSReqSelect@CBanSystem@@QAEXXZ:PROC		; CBanSystem::DSReqSelect
EXTRN	?GDReqRegSiegeList@CDungeonSiege@@QAEXXZ:PROC	; CDungeonSiege::GDReqRegSiegeList
EXTRN	?GDSiegeOwner@CDungeonSiege@@QAEXXZ:PROC	; CDungeonSiege::GDSiegeOwner
EXTRN	__imp__SendMessageA@16:PROC
EXTRN	?ghWnd@@3PAUHWND__@@A:DWORD			; ghWnd
EXTRN	?gServerReady@@3HA:DWORD			; gServerReady
EXTRN	?DataServerConnected@@3HA:DWORD			; DataServerConnected
EXTRN	?DB_Start@CExGDManager@@QAEXXZ:PROC		; CExGDManager::DB_Start
EXTRN	?gParty@@3VPartyClass@@A:BYTE			; gParty
EXTRN	?Get@CMsg@@QAEPADH@Z:PROC			; CMsg::Get
EXTRN	?lMsg@@3VCMsg@@A:BYTE				; lMsg
; Function compile flags: /Odtp /ZI
_TEXT	SEGMENT
_lpMsg$ = 8						; size = 4
?DataServerLoginResult@@YAXPAUSDHP_RESULT@@@Z PROC	; DataServerLoginResult

; 799  : {

  01420	55		 push	 ebp
  01421	8b ec		 mov	 ebp, esp
  01423	83 ec 40	 sub	 esp, 64			; 00000040H
  01426	53		 push	 ebx
  01427	56		 push	 esi
  01428	57		 push	 edi

; 800  : 	if (lpMsg->Result == false )

  01429	8b 45 08	 mov	 eax, DWORD PTR _lpMsg$[ebp]
  0142c	0f b6 48 03	 movzx	 ecx, BYTE PTR [eax+3]
  01430	85 c9		 test	 ecx, ecx
  01432	75 22		 jne	 SHORT $LN1@DataServer@2

; 801  : 	{
; 802  : #if(SWENG_FIX==TRUE)
; 803  : 		LogAddC(2, "%s", lMsg.Get(MSGGET(1, 210)));	//FIX_CRASH

  01434	68 d2 01 00 00	 push	 466			; 000001d2H
  01439	b9 00 00 00 00	 mov	 ecx, OFFSET ?lMsg@@3VCMsg@@A ; lMsg
  0143e	e8 00 00 00 00	 call	 ?Get@CMsg@@QAEPADH@Z	; CMsg::Get
  01443	50		 push	 eax
  01444	68 00 00 00 00	 push	 OFFSET ??_C@_02DKCKIIND@?$CFs?$AA@
  01449	6a 02		 push	 2
  0144b	ff 15 00 00 00
	00		 call	 DWORD PTR ?LogAddC@@3P6AXEPADZZA ; LogAddC
  01451	83 c4 0c	 add	 esp, 12			; 0000000cH

; 804  : #else
; 805  : 		MsgBox(lMsg.Get(MSGGET(1, 210)));	
; 806  : #endif
; 807  : 		return;

  01454	eb 60		 jmp	 SHORT $LN2@DataServer@2
$LN1@DataServer@2:

; 808  : 	}
; 809  : 	
; 810  : #if(CUSTOM_SAVE_PT==TRUE)
; 811  : 	gParty.DBIndex = lpMsg->PartyCount;

  01456	8b 45 08	 mov	 eax, DWORD PTR _lpMsg$[ebp]
  01459	8b 48 08	 mov	 ecx, DWORD PTR [eax+8]
  0145c	89 0d 28 b9 18
	00		 mov	 DWORD PTR ?gParty@@3VPartyClass@@A+1620264, ecx

; 812  : #endif
; 813  : 
; 814  : 	g_ExGDManager.DB_Start();

  01462	b9 00 00 00 00	 mov	 ecx, OFFSET ?g_ExGDManager@@3VCExGDManager@@A ; g_ExGDManager
  01467	e8 00 00 00 00	 call	 ?DB_Start@CExGDManager@@QAEXXZ ; CExGDManager::DB_Start

; 815  : 
; 816  : 	DataServerConnected = TRUE;

  0146c	c7 05 00 00 00
	00 01 00 00 00	 mov	 DWORD PTR ?DataServerConnected@@3HA, 1 ; DataServerConnected

; 817  : 	gServerReady++;

  01476	a1 00 00 00 00	 mov	 eax, DWORD PTR ?gServerReady@@3HA ; gServerReady
  0147b	83 c0 01	 add	 eax, 1
  0147e	a3 00 00 00 00	 mov	 DWORD PTR ?gServerReady@@3HA, eax ; gServerReady

; 818  : 	SendMessage(ghWnd, WM_START_SERVER, 0, 0); 

  01483	6a 00		 push	 0
  01485	6a 00		 push	 0
  01487	68 05 04 00 00	 push	 1029			; 00000405H
  0148c	a1 00 00 00 00	 mov	 eax, DWORD PTR ?ghWnd@@3PAUHWND__@@A ; ghWnd
  01491	50		 push	 eax
  01492	ff 15 00 00 00
	00		 call	 DWORD PTR __imp__SendMessageA@16

; 819  : 
; 820  : #if(EVENT_DUNGEON_SIEGE)
; 821  : 	g_DungeonSiege.GDSiegeOwner();

  01498	b9 00 00 00 00	 mov	 ecx, OFFSET ?g_DungeonSiege@@3VCDungeonSiege@@A ; g_DungeonSiege
  0149d	e8 00 00 00 00	 call	 ?GDSiegeOwner@CDungeonSiege@@QAEXXZ ; CDungeonSiege::GDSiegeOwner

; 822  : 	g_DungeonSiege.GDReqRegSiegeList();

  014a2	b9 00 00 00 00	 mov	 ecx, OFFSET ?g_DungeonSiege@@3VCDungeonSiege@@A ; g_DungeonSiege
  014a7	e8 00 00 00 00	 call	 ?GDReqRegSiegeList@CDungeonSiege@@QAEXXZ ; CDungeonSiege::GDReqRegSiegeList

; 823  : #endif
; 824  : 
; 825  : 	#if(DEV_BANSYSTEM)
; 826  : 	g_BanSystem.DSReqSelect();

  014ac	b9 00 00 00 00	 mov	 ecx, OFFSET ?g_BanSystem@@3VCBanSystem@@A ; g_BanSystem
  014b1	e8 00 00 00 00	 call	 ?DSReqSelect@CBanSystem@@QAEXXZ ; CBanSystem::DSReqSelect
$LN2@DataServer@2:

; 827  : 	#endif
; 828  : }

  014b6	5f		 pop	 edi
  014b7	5e		 pop	 esi
  014b8	5b		 pop	 ebx
  014b9	8b e5		 mov	 esp, ebp
  014bb	5d		 pop	 ebp
  014bc	c3		 ret	 0
?DataServerLoginResult@@YAXPAUSDHP_RESULT@@@Z ENDP	; DataServerLoginResult
_TEXT	ENDS
PUBLIC	?set@PBMSG_HEAD@@QAEXPAEEE@Z			; PBMSG_HEAD::set
PUBLIC	??_C@_0DI@OHFHMHBN@Requested?5character?5list?5doesn?8t@ ; `string'
PUBLIC	__$ArrayPad$
EXTRN	?DataSend@@YAHHPAEK@Z:PROC			; DataSend
EXTRN	?ExConfig@@3VcExConfigs@@A:BYTE			; ExConfig
EXTRN	?LevelSmallConvert@@YAEH@Z:PROC			; LevelSmallConvert
EXTRN	?IsPet@CPetEx@@QAE_NH@Z:PROC			; CPetEx::IsPet
EXTRN	?g_PetEx@@3VCPetEx@@A:BYTE			; g_PetEx
EXTRN	?Player@CBanSystem@@QAE_NH@Z:PROC		; CBanSystem::Player
EXTRN	_memset:PROC
EXTRN	?CloseClient@@YAXH@Z:PROC			; CloseClient
EXTRN	?gObj@@3PAUOBJECTSTRUCT@@A:DWORD		; gObj
EXTRN	?gObjIsAccontConnect@@YAHHPAD@Z:PROC		; gObjIsAccontConnect
EXTRN	_memcpy:PROC
;	COMDAT ??_C@_0DI@OHFHMHBN@Requested?5character?5list?5doesn?8t@
CONST	SEGMENT
??_C@_0DI@OHFHMHBN@Requested?5character?5list?5doesn?8t@ DB 'Requested ch'
	DB	'aracter list doesn''t match the user. (%s)%s', 00H ; `string'
; Function compile flags: /Odtp /ZI
CONST	ENDS
_TEXT	SEGMENT
tv1037 = -464						; size = 4
tv1016 = -464						; size = 4
tv988 = -464						; size = 4
tv960 = -464						; size = 4
tv932 = -464						; size = 4
tv679 = -464						; size = 4
_pMsg$ = -396						; size = 5
_levelindex$245428 = -388				; size = 4
_changeup$245329 = -384					; size = 4
_n$245321 = -380					; size = 4
_GenerableClass$ = -373					; size = 1
_HightLevel$ = -372					; size = 4
_btExcellentOption$ = -365				; size = 1
_TempInventory$ = -364					; size = 24
_pCList$ = -340						; size = 34
_pCLCount$ = -304					; size = 8
_index$ = -293						; size = 1
_aIndex$ = -292						; size = 4
_lsOfs$ = -288						; size = 4
_lOfs$ = -284						; size = 4
_sendbuf$ = -280					; size = 256
_szId$ = -24						; size = 11
_lpCL$ = -12						; size = 4
_lpCount$ = -8						; size = 4
__$ArrayPad$ = -4					; size = 4
_lpRecv$ = 8						; size = 4
?JGPGetCharList@@YAXPAE@Z PROC				; JGPGetCharList

; 852  : {

  014c0	55		 push	 ebp
  014c1	8b ec		 mov	 ebp, esp
  014c3	81 ec d0 01 00
	00		 sub	 esp, 464		; 000001d0H
  014c9	a1 00 00 00 00	 mov	 eax, DWORD PTR ___security_cookie
  014ce	33 c5		 xor	 eax, ebp
  014d0	89 45 fc	 mov	 DWORD PTR __$ArrayPad$[ebp], eax
  014d3	53		 push	 ebx
  014d4	56		 push	 esi
  014d5	57		 push	 edi

; 853  : 	SDHP_CHARLISTCOUNT * lpCount = (SDHP_CHARLISTCOUNT *)lpRecv;

  014d6	8b 45 08	 mov	 eax, DWORD PTR _lpRecv$[ebp]
  014d9	89 45 f8	 mov	 DWORD PTR _lpCount$[ebp], eax

; 854  : 	SDHP_CHARLIST * lpCL;
; 855  : 	char szId[MAX_ACCOUNT_LEN+1];
; 856  : 	BYTE sendbuf[256];
; 857  : 	int lOfs = 0;

  014dc	c7 85 e4 fe ff
	ff 00 00 00 00	 mov	 DWORD PTR _lOfs$[ebp], 0

; 858  : 	int lsOfs = sizeof(SDHP_CHARLISTCOUNT);

  014e6	c7 85 e0 fe ff
	ff 1c 00 00 00	 mov	 DWORD PTR _lsOfs$[ebp], 28 ; 0000001cH

; 859  : 	int aIndex = lpCount->Number;

  014f0	8b 45 f8	 mov	 eax, DWORD PTR _lpCount$[ebp]
  014f3	0f bf 48 04	 movsx	 ecx, WORD PTR [eax+4]
  014f7	89 8d dc fe ff
	ff		 mov	 DWORD PTR _aIndex$[ebp], ecx

; 860  : 	BYTE index;
; 861  : 	PMSG_CHARLISTCOUNT pCLCount;	// Packet Char List Count 7
; 862  : 	PMSG_CHARLIST pCList;
; 863  : 	WORD TempInventory[12];
; 864  : 	BYTE btExcellentOption;
; 865  : 
; 866  : 	pCLCount.h.c		= 0xC1;

  014fd	c6 85 d0 fe ff
	ff c1		 mov	 BYTE PTR _pCLCount$[ebp], 193 ; 000000c1H

; 867  : 	pCLCount.h.headcode = 0xF3;

  01504	c6 85 d2 fe ff
	ff f3		 mov	 BYTE PTR _pCLCount$[ebp+2], 243 ; 000000f3H

; 868  : 	pCLCount.subcode	= 0x00;

  0150b	c6 85 d3 fe ff
	ff 00		 mov	 BYTE PTR _pCLCount$[ebp+3], 0

; 869  : 	pCLCount.Count		= lpCount->Count;

  01512	8b 45 f8	 mov	 eax, DWORD PTR _lpCount$[ebp]
  01515	8a 48 06	 mov	 cl, BYTE PTR [eax+6]
  01518	88 8d d6 fe ff
	ff		 mov	 BYTE PTR _pCLCount$[ebp+6], cl

; 870  : 
; 871  : #if(DEBUG_CODE)
; 872  : 	LogAddC(2,"pCLCount.Count: %d",pCLCount.Count);
; 873  : #endif
; 874  : 
; 875  : 	szId[MAX_ACCOUNT_LEN] = 0;

  0151e	c6 45 f2 00	 mov	 BYTE PTR _szId$[ebp+10], 0

; 876  : 	memcpy(szId, lpCount->AccountId, MAX_ACCOUNT_LEN);

  01522	6a 0a		 push	 10			; 0000000aH
  01524	8b 45 f8	 mov	 eax, DWORD PTR _lpCount$[ebp]
  01527	83 c0 0d	 add	 eax, 13			; 0000000dH
  0152a	50		 push	 eax
  0152b	8d 4d e8	 lea	 ecx, DWORD PTR _szId$[ebp]
  0152e	51		 push	 ecx
  0152f	e8 00 00 00 00	 call	 _memcpy
  01534	83 c4 0c	 add	 esp, 12			; 0000000cH

; 877  : 
; 878  : 	if(gObjIsAccontConnect(aIndex, szId) == FALSE)

  01537	8d 45 e8	 lea	 eax, DWORD PTR _szId$[ebp]
  0153a	50		 push	 eax
  0153b	8b 8d dc fe ff
	ff		 mov	 ecx, DWORD PTR _aIndex$[ebp]
  01541	51		 push	 ecx
  01542	e8 00 00 00 00	 call	 ?gObjIsAccontConnect@@YAHHPAD@Z ; gObjIsAccontConnect
  01547	83 c4 08	 add	 esp, 8
  0154a	85 c0		 test	 eax, eax
  0154c	75 3f		 jne	 SHORT $LN85@JGPGetChar

; 879  : 	{
; 880  : 		LogAddC(2, "Requested character list doesn't match the user. (%s)%s", gObj[aIndex].AccountID, szId);

  0154e	8d 45 e8	 lea	 eax, DWORD PTR _szId$[ebp]
  01551	50		 push	 eax
  01552	8b 8d dc fe ff
	ff		 mov	 ecx, DWORD PTR _aIndex$[ebp]
  01558	69 c9 38 2b 00
	00		 imul	 ecx, 11064		; 00002b38H
  0155e	8b 15 00 00 00
	00		 mov	 edx, DWORD PTR ?gObj@@3PAUOBJECTSTRUCT@@A ; gObj
  01564	8d 44 0a 6c	 lea	 eax, DWORD PTR [edx+ecx+108]
  01568	50		 push	 eax
  01569	68 00 00 00 00	 push	 OFFSET ??_C@_0DI@OHFHMHBN@Requested?5character?5list?5doesn?8t@
  0156e	6a 02		 push	 2
  01570	ff 15 00 00 00
	00		 call	 DWORD PTR ?LogAddC@@3P6AXEPADZZA ; LogAddC
  01576	83 c4 10	 add	 esp, 16			; 00000010H

; 881  : 		CloseClient(aIndex);

  01579	8b 85 dc fe ff
	ff		 mov	 eax, DWORD PTR _aIndex$[ebp]
  0157f	50		 push	 eax
  01580	e8 00 00 00 00	 call	 ?CloseClient@@YAXH@Z	; CloseClient
  01585	83 c4 04	 add	 esp, 4

; 882  : 		return;

  01588	e9 0f 14 00 00	 jmp	 $LN86@JGPGetChar
$LN85@JGPGetChar:

; 883  : 	}
; 884  : 
; 885  : 	gObj[aIndex].Magumsa		= lpCount->Magumsa;

  0158d	8b 85 dc fe ff
	ff		 mov	 eax, DWORD PTR _aIndex$[ebp]
  01593	69 c0 38 2b 00
	00		 imul	 eax, 11064		; 00002b38H
  01599	8b 0d 00 00 00
	00		 mov	 ecx, DWORD PTR ?gObj@@3PAUOBJECTSTRUCT@@A ; gObj
  0159f	8b 55 f8	 mov	 edx, DWORD PTR _lpCount$[ebp]
  015a2	8a 52 0c	 mov	 dl, BYTE PTR [edx+12]
  015a5	88 54 01 34	 mov	 BYTE PTR [ecx+eax+52], dl

; 886  : 	pCLCount.MaxClass			= lpCount->Magumsa + 2;

  015a9	8b 45 f8	 mov	 eax, DWORD PTR _lpCount$[ebp]
  015ac	0f b6 48 0c	 movzx	 ecx, BYTE PTR [eax+12]
  015b0	83 c1 02	 add	 ecx, 2
  015b3	88 8d d4 fe ff
	ff		 mov	 BYTE PTR _pCLCount$[ebp+4], cl

; 887  : 	pCLCount.MaxClass			+= 1;

  015b9	0f b6 85 d4 fe
	ff ff		 movzx	 eax, BYTE PTR _pCLCount$[ebp+4]
  015c0	83 c0 01	 add	 eax, 1
  015c3	88 85 d4 fe ff
	ff		 mov	 BYTE PTR _pCLCount$[ebp+4], al

; 888  : 	pCLCount.MoveCnt			= lpCount->MoveCnt;

  015c9	8b 45 f8	 mov	 eax, DWORD PTR _lpCount$[ebp]
  015cc	8a 48 18	 mov	 cl, BYTE PTR [eax+24]
  015cf	88 8d d5 fe ff
	ff		 mov	 BYTE PTR _pCLCount$[ebp+5], cl

; 889  : 	// ----
; 890  : #ifdef EXPINV
; 891  : #ifdef DEBUG_CODE
; 892  : 	LogAddC(2, "lpCount->ExpandedWarehouse: %d", lpCount->ExpandedWarehouse);
; 893  : 	
; 894  : #endif
; 895  : 	pCLCount.ExpandedWarehouse		= lpCount->ExpandedWarehouse;

  015d5	8b 45 f8	 mov	 eax, DWORD PTR _lpCount$[ebp]
  015d8	80 78 19 00	 cmp	 BYTE PTR [eax+25], 0
  015dc	0f 95 c1	 setne	 cl
  015df	88 8d d7 fe ff
	ff		 mov	 BYTE PTR _pCLCount$[ebp+7], cl

; 896  : 	gObj[aIndex].ExpandedWarehouse	= lpCount->ExpandedWarehouse;

  015e5	8b 85 dc fe ff
	ff		 mov	 eax, DWORD PTR _aIndex$[ebp]
  015eb	69 c0 38 2b 00
	00		 imul	 eax, 11064		; 00002b38H
  015f1	8b 0d 00 00 00
	00		 mov	 ecx, DWORD PTR ?gObj@@3PAUOBJECTSTRUCT@@A ; gObj
  015f7	8b 55 f8	 mov	 edx, DWORD PTR _lpCount$[ebp]
  015fa	8a 52 19	 mov	 dl, BYTE PTR [edx+25]
  015fd	88 94 01 25 26
	00 00		 mov	 BYTE PTR [ecx+eax+9765], dl

; 897  : #endif
; 898  : 
; 899  : 	memset(sendbuf, 0, sizeof(sendbuf));

  01604	68 00 01 00 00	 push	 256			; 00000100H
  01609	6a 00		 push	 0
  0160b	8d 85 e8 fe ff
	ff		 lea	 eax, DWORD PTR _sendbuf$[ebp]
  01611	50		 push	 eax
  01612	e8 00 00 00 00	 call	 _memset
  01617	83 c4 0c	 add	 esp, 12			; 0000000cH

; 900  : 	lOfs += sizeof(PMSG_CHARLISTCOUNT);

  0161a	8b 85 e4 fe ff
	ff		 mov	 eax, DWORD PTR _lOfs$[ebp]
  01620	83 c0 08	 add	 eax, 8
  01623	89 85 e4 fe ff
	ff		 mov	 DWORD PTR _lOfs$[ebp], eax

; 901  : 
; 902  : #ifdef CHARCREATE_TEMP
; 903  : 	int HightLevel		= 0;

  01629	c7 85 8c fe ff
	ff 00 00 00 00	 mov	 DWORD PTR _HightLevel$[ebp], 0

; 904  : 	BYTE GenerableClass = 0;

  01633	c6 85 8b fe ff
	ff 00		 mov	 BYTE PTR _GenerableClass$[ebp], 0

; 905  : #endif
; 906  : 
; 907  : 	if( pCLCount.Count > 0 )

  0163a	0f b6 85 d6 fe
	ff ff		 movzx	 eax, BYTE PTR _pCLCount$[ebp+6]
  01641	85 c0		 test	 eax, eax
  01643	0f 8e 24 12 00
	00		 jle	 $LN84@JGPGetChar

; 908  : 	{
; 909  : 		for ( int n=0;n<pCLCount.Count ;n++)

  01649	c7 85 84 fe ff
	ff 00 00 00 00	 mov	 DWORD PTR _n$245321[ebp], 0
  01653	eb 0f		 jmp	 SHORT $LN83@JGPGetChar
$LN82@JGPGetChar:
  01655	8b 85 84 fe ff
	ff		 mov	 eax, DWORD PTR _n$245321[ebp]
  0165b	83 c0 01	 add	 eax, 1
  0165e	89 85 84 fe ff
	ff		 mov	 DWORD PTR _n$245321[ebp], eax
$LN83@JGPGetChar:
  01664	0f b6 85 d6 fe
	ff ff		 movzx	 eax, BYTE PTR _pCLCount$[ebp+6]
  0166b	39 85 84 fe ff
	ff		 cmp	 DWORD PTR _n$245321[ebp], eax
  01671	0f 8d f6 11 00
	00		 jge	 $LN84@JGPGetChar

; 910  : 		{
; 911  : 			memset(&pCList, 0, sizeof(pCList));

  01677	6a 22		 push	 34			; 00000022H
  01679	6a 00		 push	 0
  0167b	8d 85 ac fe ff
	ff		 lea	 eax, DWORD PTR _pCList$[ebp]
  01681	50		 push	 eax
  01682	e8 00 00 00 00	 call	 _memset
  01687	83 c4 0c	 add	 esp, 12			; 0000000cH

; 912  : 			lpCL = (SDHP_CHARLIST *)&lpRecv[lsOfs];

  0168a	8b 45 08	 mov	 eax, DWORD PTR _lpRecv$[ebp]
  0168d	03 85 e0 fe ff
	ff		 add	 eax, DWORD PTR _lsOfs$[ebp]
  01693	89 45 f4	 mov	 DWORD PTR _lpCL$[ebp], eax

; 913  : #ifdef CHARCREATE_TEMP
; 914  : 			if( lpCL->Level > HightLevel )

  01696	8b 45 f4	 mov	 eax, DWORD PTR _lpCL$[ebp]
  01699	0f b7 48 0c	 movzx	 ecx, WORD PTR [eax+12]
  0169d	3b 8d 8c fe ff
	ff		 cmp	 ecx, DWORD PTR _HightLevel$[ebp]
  016a3	7e 0d		 jle	 SHORT $LN80@JGPGetChar

; 915  : 			{
; 916  : 				HightLevel = lpCL->Level;

  016a5	8b 45 f4	 mov	 eax, DWORD PTR _lpCL$[ebp]
  016a8	0f b7 48 0c	 movzx	 ecx, WORD PTR [eax+12]
  016ac	89 8d 8c fe ff
	ff		 mov	 DWORD PTR _HightLevel$[ebp], ecx
$LN80@JGPGetChar:

; 917  : 			}
; 918  : #endif
; 919  : 			pCList.Index = lpCL->Index;

  016b2	8b 45 f4	 mov	 eax, DWORD PTR _lpCL$[ebp]
  016b5	8a 08		 mov	 cl, BYTE PTR [eax]
  016b7	88 8d ac fe ff
	ff		 mov	 BYTE PTR _pCList$[ebp], cl

; 920  : 			pCList.Level = lpCL->Level;

  016bd	8b 45 f4	 mov	 eax, DWORD PTR _lpCL$[ebp]
  016c0	66 8b 48 0c	 mov	 cx, WORD PTR [eax+12]
  016c4	66 89 8d b8 fe
	ff ff		 mov	 WORD PTR _pCList$[ebp+12], cx

; 921  : 			pCList.CtlCode = lpCL->CtlCode;

  016cb	8b 45 f4	 mov	 eax, DWORD PTR _lpCL$[ebp]
  016ce	8a 48 0f	 mov	 cl, BYTE PTR [eax+15]
  016d1	88 8d ba fe ff
	ff		 mov	 BYTE PTR _pCList$[ebp+14], cl

; 922  : 			pCList.btGuildStatus = lpCL->btGuildStatus;

  016d7	8b 45 f4	 mov	 eax, DWORD PTR _lpCL$[ebp]
  016da	8a 48 41	 mov	 cl, BYTE PTR [eax+65]
  016dd	88 8d cd fe ff
	ff		 mov	 BYTE PTR _pCList$[ebp+33], cl

; 923  : 
; 924  : 			if ( gObj[aIndex].m_cAccountItemBlock != 0 )

  016e3	8b 85 dc fe ff
	ff		 mov	 eax, DWORD PTR _aIndex$[ebp]
  016e9	69 c0 38 2b 00
	00		 imul	 eax, 11064		; 00002b38H
  016ef	8b 0d 00 00 00
	00		 mov	 ecx, DWORD PTR ?gObj@@3PAUOBJECTSTRUCT@@A ; gObj
  016f5	0f b6 94 01 14
	02 00 00	 movzx	 edx, BYTE PTR [ecx+eax+532]
  016fd	85 d2		 test	 edx, edx
  016ff	74 10		 je	 SHORT $LN79@JGPGetChar

; 925  : 				pCList.CtlCode |= 0x10;	// Set Block Item

  01701	0f b6 85 ba fe
	ff ff		 movzx	 eax, BYTE PTR _pCList$[ebp+14]
  01708	83 c8 10	 or	 eax, 16			; 00000010H
  0170b	88 85 ba fe ff
	ff		 mov	 BYTE PTR _pCList$[ebp+14], al
$LN79@JGPGetChar:

; 926  : 
; 927  : 			#if(DEV_BANSYSTEM)
; 928  : 			if(!g_BanSystem.Player(aIndex))

  01711	8b 85 dc fe ff
	ff		 mov	 eax, DWORD PTR _aIndex$[ebp]
  01717	50		 push	 eax
  01718	b9 00 00 00 00	 mov	 ecx, OFFSET ?g_BanSystem@@3VCBanSystem@@A ; g_BanSystem
  0171d	e8 00 00 00 00	 call	 ?Player@CBanSystem@@QAE_NH@Z ; CBanSystem::Player
  01722	0f b6 c8	 movzx	 ecx, al
  01725	85 c9		 test	 ecx, ecx
  01727	75 07		 jne	 SHORT $LN78@JGPGetChar

; 929  : 			{
; 930  : 				pCList.CtlCode = 0x01;

  01729	c6 85 ba fe ff
	ff 01		 mov	 BYTE PTR _pCList$[ebp+14], 1
$LN78@JGPGetChar:

; 931  : 			}
; 932  : 			#endif
; 933  : 
; 934  : 			memcpy(pCList.Name, lpCL->Name, MAX_ACCOUNT_LEN);

  01730	6a 0a		 push	 10			; 0000000aH
  01732	8b 45 f4	 mov	 eax, DWORD PTR _lpCL$[ebp]
  01735	83 c0 01	 add	 eax, 1
  01738	50		 push	 eax
  01739	8d 8d ad fe ff
	ff		 lea	 ecx, DWORD PTR _pCList$[ebp+1]
  0173f	51		 push	 ecx
  01740	e8 00 00 00 00	 call	 _memcpy
  01745	83 c4 0c	 add	 esp, 12			; 0000000cH

; 935  : 
; 936  : 			pCList.CharSet[CS_CLASS] = CS_GET_CLASS(lpCL->Class);

  01748	8b 45 f4	 mov	 eax, DWORD PTR _lpCL$[ebp]
  0174b	0f b6 48 0e	 movzx	 ecx, BYTE PTR [eax+14]
  0174f	c1 f9 04	 sar	 ecx, 4
  01752	c1 e1 05	 shl	 ecx, 5
  01755	81 e1 e0 00 00
	00		 and	 ecx, 224		; 000000e0H
  0175b	88 8d bb fe ff
	ff		 mov	 BYTE PTR _pCList$[ebp+15], cl

; 937  : 			int changeup = CS_GET_CHANGEUP(lpCL->Class);

  01761	8b 45 f4	 mov	 eax, DWORD PTR _lpCL$[ebp]
  01764	0f b6 48 0e	 movzx	 ecx, BYTE PTR [eax+14]
  01768	83 e1 07	 and	 ecx, 7
  0176b	89 8d 80 fe ff
	ff		 mov	 DWORD PTR _changeup$245329[ebp], ecx

; 938  : 			pCList.CharSet[CS_CLASS] |= CS_SET_CHANGEUP(changeup);

  01771	8b 85 80 fe ff
	ff		 mov	 eax, DWORD PTR _changeup$245329[ebp]
  01777	c1 e0 04	 shl	 eax, 4
  0177a	83 e0 10	 and	 eax, 16			; 00000010H
  0177d	0f b6 8d bb fe
	ff ff		 movzx	 ecx, BYTE PTR _pCList$[ebp+15]
  01784	0b c8		 or	 ecx, eax
  01786	88 8d bb fe ff
	ff		 mov	 BYTE PTR _pCList$[ebp+15], cl

; 939  : 			pCList.CharSet[CS_CLASS] |= CS_GET_MASTERCLASS(changeup);

  0178c	8b 85 80 fe ff
	ff		 mov	 eax, DWORD PTR _changeup$245329[ebp]
  01792	d1 f8		 sar	 eax, 1
  01794	c1 e0 03	 shl	 eax, 3
  01797	83 e0 08	 and	 eax, 8
  0179a	0f b6 8d bb fe
	ff ff		 movzx	 ecx, BYTE PTR _pCList$[ebp+15]
  017a1	0b c8		 or	 ecx, eax
  017a3	88 8d bb fe ff
	ff		 mov	 BYTE PTR _pCList$[ebp+15], cl

; 940  : 
; 941  : 			pCList.CharSet[9] = 0;

  017a9	c6 85 c4 fe ff
	ff 00		 mov	 BYTE PTR _pCList$[ebp+24], 0

; 942  : 
; 943  : 			if ( lpCL->dbInventory[0] == (BYTE)-1 && (lpCL->dbInventory[2] & 0x80) == 0x80 && (lpCL->dbInventory[3]& 0xF0) == 0xF0  )

  017b0	8b 45 f4	 mov	 eax, DWORD PTR _lpCL$[ebp]
  017b3	0f b6 48 10	 movzx	 ecx, BYTE PTR [eax+16]
  017b7	81 f9 ff 00 00
	00		 cmp	 ecx, 255		; 000000ffH
  017bd	75 32		 jne	 SHORT $LN77@JGPGetChar
  017bf	8b 45 f4	 mov	 eax, DWORD PTR _lpCL$[ebp]
  017c2	0f b6 48 12	 movzx	 ecx, BYTE PTR [eax+18]
  017c6	81 e1 80 00 00
	00		 and	 ecx, 128		; 00000080H
  017cc	74 23		 je	 SHORT $LN77@JGPGetChar
  017ce	8b 45 f4	 mov	 eax, DWORD PTR _lpCL$[ebp]
  017d1	0f b6 48 13	 movzx	 ecx, BYTE PTR [eax+19]
  017d5	81 e1 f0 00 00
	00		 and	 ecx, 240		; 000000f0H
  017db	81 f9 f0 00 00
	00		 cmp	 ecx, 240		; 000000f0H
  017e1	75 0e		 jne	 SHORT $LN77@JGPGetChar

; 944  : 			{
; 945  : 				TempInventory[0] = -1;

  017e3	b8 ff ff 00 00	 mov	 eax, 65535		; 0000ffffH
  017e8	66 89 85 94 fe
	ff ff		 mov	 WORD PTR _TempInventory$[ebp], ax

; 946  : 			}
; 947  : 			else

  017ef	eb 2e		 jmp	 SHORT $LN76@JGPGetChar
$LN77@JGPGetChar:

; 948  : 			{
; 949  : 				TempInventory[0] = (lpCL->dbInventory[0] + (lpCL->dbInventory[2]&0x80)*2)+ (lpCL->dbInventory[3]&0xF0)*32;

  017f1	8b 45 f4	 mov	 eax, DWORD PTR _lpCL$[ebp]
  017f4	0f b6 48 10	 movzx	 ecx, BYTE PTR [eax+16]
  017f8	8b 55 f4	 mov	 edx, DWORD PTR _lpCL$[ebp]
  017fb	0f b6 42 12	 movzx	 eax, BYTE PTR [edx+18]
  017ff	25 80 00 00 00	 and	 eax, 128		; 00000080H
  01804	8d 0c 41	 lea	 ecx, DWORD PTR [ecx+eax*2]
  01807	8b 55 f4	 mov	 edx, DWORD PTR _lpCL$[ebp]
  0180a	0f b6 42 13	 movzx	 eax, BYTE PTR [edx+19]
  0180e	25 f0 00 00 00	 and	 eax, 240		; 000000f0H
  01813	c1 e0 05	 shl	 eax, 5
  01816	03 c8		 add	 ecx, eax
  01818	66 89 8d 94 fe
	ff ff		 mov	 WORD PTR _TempInventory$[ebp], cx
$LN76@JGPGetChar:

; 950  : 			}
; 951  : 			if ( lpCL->dbInventory[4] == (BYTE)-1 && (lpCL->dbInventory[6]& 0x80) == 0x80 && (lpCL->dbInventory[7]& 0xF0) == 0xF0  )

  0181f	8b 45 f4	 mov	 eax, DWORD PTR _lpCL$[ebp]
  01822	0f b6 48 14	 movzx	 ecx, BYTE PTR [eax+20]
  01826	81 f9 ff 00 00
	00		 cmp	 ecx, 255		; 000000ffH
  0182c	75 32		 jne	 SHORT $LN75@JGPGetChar
  0182e	8b 45 f4	 mov	 eax, DWORD PTR _lpCL$[ebp]
  01831	0f b6 48 16	 movzx	 ecx, BYTE PTR [eax+22]
  01835	81 e1 80 00 00
	00		 and	 ecx, 128		; 00000080H
  0183b	74 23		 je	 SHORT $LN75@JGPGetChar
  0183d	8b 45 f4	 mov	 eax, DWORD PTR _lpCL$[ebp]
  01840	0f b6 48 17	 movzx	 ecx, BYTE PTR [eax+23]
  01844	81 e1 f0 00 00
	00		 and	 ecx, 240		; 000000f0H
  0184a	81 f9 f0 00 00
	00		 cmp	 ecx, 240		; 000000f0H
  01850	75 0e		 jne	 SHORT $LN75@JGPGetChar

; 952  : 			{
; 953  : 				TempInventory[1] = -1;

  01852	b8 ff ff 00 00	 mov	 eax, 65535		; 0000ffffH
  01857	66 89 85 96 fe
	ff ff		 mov	 WORD PTR _TempInventory$[ebp+2], ax

; 954  : 			}
; 955  : 			else

  0185e	eb 2e		 jmp	 SHORT $LN74@JGPGetChar
$LN75@JGPGetChar:

; 956  : 			{
; 957  : 				TempInventory[1] = (lpCL->dbInventory[4] + (lpCL->dbInventory[6]&0x80)*2)+ (lpCL->dbInventory[7]&0xF0)*32;

  01860	8b 45 f4	 mov	 eax, DWORD PTR _lpCL$[ebp]
  01863	0f b6 48 14	 movzx	 ecx, BYTE PTR [eax+20]
  01867	8b 55 f4	 mov	 edx, DWORD PTR _lpCL$[ebp]
  0186a	0f b6 42 16	 movzx	 eax, BYTE PTR [edx+22]
  0186e	25 80 00 00 00	 and	 eax, 128		; 00000080H
  01873	8d 0c 41	 lea	 ecx, DWORD PTR [ecx+eax*2]
  01876	8b 55 f4	 mov	 edx, DWORD PTR _lpCL$[ebp]
  01879	0f b6 42 17	 movzx	 eax, BYTE PTR [edx+23]
  0187d	25 f0 00 00 00	 and	 eax, 240		; 000000f0H
  01882	c1 e0 05	 shl	 eax, 5
  01885	03 c8		 add	 ecx, eax
  01887	66 89 8d 96 fe
	ff ff		 mov	 WORD PTR _TempInventory$[ebp+2], cx
$LN74@JGPGetChar:

; 958  : 			}
; 959  : 			if ( lpCL->dbInventory[8] == (BYTE)-1 && (lpCL->dbInventory[10]& 0x80) == 0x80 && (lpCL->dbInventory[11]& 0xF0) == 0xF0  )

  0188e	8b 45 f4	 mov	 eax, DWORD PTR _lpCL$[ebp]
  01891	0f b6 48 18	 movzx	 ecx, BYTE PTR [eax+24]
  01895	81 f9 ff 00 00
	00		 cmp	 ecx, 255		; 000000ffH
  0189b	75 32		 jne	 SHORT $LN73@JGPGetChar
  0189d	8b 45 f4	 mov	 eax, DWORD PTR _lpCL$[ebp]
  018a0	0f b6 48 1a	 movzx	 ecx, BYTE PTR [eax+26]
  018a4	81 e1 80 00 00
	00		 and	 ecx, 128		; 00000080H
  018aa	74 23		 je	 SHORT $LN73@JGPGetChar
  018ac	8b 45 f4	 mov	 eax, DWORD PTR _lpCL$[ebp]
  018af	0f b6 48 1b	 movzx	 ecx, BYTE PTR [eax+27]
  018b3	81 e1 f0 00 00
	00		 and	 ecx, 240		; 000000f0H
  018b9	81 f9 f0 00 00
	00		 cmp	 ecx, 240		; 000000f0H
  018bf	75 0e		 jne	 SHORT $LN73@JGPGetChar

; 960  : 			{
; 961  : 				TempInventory[2] = 0x1FF;

  018c1	b8 ff 01 00 00	 mov	 eax, 511		; 000001ffH
  018c6	66 89 85 98 fe
	ff ff		 mov	 WORD PTR _TempInventory$[ebp+4], ax

; 962  : 			}
; 963  : 			else

  018cd	eb 3e		 jmp	 SHORT $LN72@JGPGetChar
$LN73@JGPGetChar:

; 964  : 			{
; 965  : 				TempInventory[2] = ((lpCL->dbInventory[8] + (lpCL->dbInventory[10]&0x80)*2)+ (lpCL->dbInventory[11]&0xF0)*32)%MAX_SUBTYPE_ITEMS;

  018cf	8b 45 f4	 mov	 eax, DWORD PTR _lpCL$[ebp]
  018d2	0f b6 48 18	 movzx	 ecx, BYTE PTR [eax+24]
  018d6	8b 55 f4	 mov	 edx, DWORD PTR _lpCL$[ebp]
  018d9	0f b6 42 1a	 movzx	 eax, BYTE PTR [edx+26]
  018dd	25 80 00 00 00	 and	 eax, 128		; 00000080H
  018e2	8d 0c 41	 lea	 ecx, DWORD PTR [ecx+eax*2]
  018e5	8b 55 f4	 mov	 edx, DWORD PTR _lpCL$[ebp]
  018e8	0f b6 42 1b	 movzx	 eax, BYTE PTR [edx+27]
  018ec	25 f0 00 00 00	 and	 eax, 240		; 000000f0H
  018f1	c1 e0 05	 shl	 eax, 5
  018f4	03 c8		 add	 ecx, eax
  018f6	81 e1 ff 01 00
	80		 and	 ecx, -2147483137	; 800001ffH
  018fc	79 08		 jns	 SHORT $LN101@JGPGetChar
  018fe	49		 dec	 ecx
  018ff	81 c9 00 fe ff
	ff		 or	 ecx, -512		; fffffe00H
  01905	41		 inc	 ecx
$LN101@JGPGetChar:
  01906	66 89 8d 98 fe
	ff ff		 mov	 WORD PTR _TempInventory$[ebp+4], cx
$LN72@JGPGetChar:

; 966  : 			}
; 967  : 			if ( lpCL->dbInventory[12] == (BYTE)-1 && (lpCL->dbInventory[14]& 0x80) == 0x80 && (lpCL->dbInventory[15]& 0xF0) == 0xF0  )

  0190d	8b 45 f4	 mov	 eax, DWORD PTR _lpCL$[ebp]
  01910	0f b6 48 1c	 movzx	 ecx, BYTE PTR [eax+28]
  01914	81 f9 ff 00 00
	00		 cmp	 ecx, 255		; 000000ffH
  0191a	75 32		 jne	 SHORT $LN71@JGPGetChar
  0191c	8b 45 f4	 mov	 eax, DWORD PTR _lpCL$[ebp]
  0191f	0f b6 48 1e	 movzx	 ecx, BYTE PTR [eax+30]
  01923	81 e1 80 00 00
	00		 and	 ecx, 128		; 00000080H
  01929	74 23		 je	 SHORT $LN71@JGPGetChar
  0192b	8b 45 f4	 mov	 eax, DWORD PTR _lpCL$[ebp]
  0192e	0f b6 48 1f	 movzx	 ecx, BYTE PTR [eax+31]
  01932	81 e1 f0 00 00
	00		 and	 ecx, 240		; 000000f0H
  01938	81 f9 f0 00 00
	00		 cmp	 ecx, 240		; 000000f0H
  0193e	75 0e		 jne	 SHORT $LN71@JGPGetChar

; 968  : 			{
; 969  : 				TempInventory[3] = 0x1FF;

  01940	b8 ff 01 00 00	 mov	 eax, 511		; 000001ffH
  01945	66 89 85 9a fe
	ff ff		 mov	 WORD PTR _TempInventory$[ebp+6], ax

; 970  : 			}
; 971  : 			else

  0194c	eb 3e		 jmp	 SHORT $LN70@JGPGetChar
$LN71@JGPGetChar:

; 972  : 			{
; 973  : 				TempInventory[3] = ((lpCL->dbInventory[12] + (lpCL->dbInventory[14]&0x80)*2)+ (lpCL->dbInventory[15]&0xF0)*32)%MAX_SUBTYPE_ITEMS;

  0194e	8b 45 f4	 mov	 eax, DWORD PTR _lpCL$[ebp]
  01951	0f b6 48 1c	 movzx	 ecx, BYTE PTR [eax+28]
  01955	8b 55 f4	 mov	 edx, DWORD PTR _lpCL$[ebp]
  01958	0f b6 42 1e	 movzx	 eax, BYTE PTR [edx+30]
  0195c	25 80 00 00 00	 and	 eax, 128		; 00000080H
  01961	8d 0c 41	 lea	 ecx, DWORD PTR [ecx+eax*2]
  01964	8b 55 f4	 mov	 edx, DWORD PTR _lpCL$[ebp]
  01967	0f b6 42 1f	 movzx	 eax, BYTE PTR [edx+31]
  0196b	25 f0 00 00 00	 and	 eax, 240		; 000000f0H
  01970	c1 e0 05	 shl	 eax, 5
  01973	03 c8		 add	 ecx, eax
  01975	81 e1 ff 01 00
	80		 and	 ecx, -2147483137	; 800001ffH
  0197b	79 08		 jns	 SHORT $LN102@JGPGetChar
  0197d	49		 dec	 ecx
  0197e	81 c9 00 fe ff
	ff		 or	 ecx, -512		; fffffe00H
  01984	41		 inc	 ecx
$LN102@JGPGetChar:
  01985	66 89 8d 9a fe
	ff ff		 mov	 WORD PTR _TempInventory$[ebp+6], cx
$LN70@JGPGetChar:

; 974  : 			}
; 975  : 			if ( lpCL->dbInventory[16] == (BYTE)-1 && (lpCL->dbInventory[18]& 0x80) == 0x80 && (lpCL->dbInventory[19]& 0xF0) == 0xF0  )

  0198c	8b 45 f4	 mov	 eax, DWORD PTR _lpCL$[ebp]
  0198f	0f b6 48 20	 movzx	 ecx, BYTE PTR [eax+32]
  01993	81 f9 ff 00 00
	00		 cmp	 ecx, 255		; 000000ffH
  01999	75 32		 jne	 SHORT $LN69@JGPGetChar
  0199b	8b 45 f4	 mov	 eax, DWORD PTR _lpCL$[ebp]
  0199e	0f b6 48 22	 movzx	 ecx, BYTE PTR [eax+34]
  019a2	81 e1 80 00 00
	00		 and	 ecx, 128		; 00000080H
  019a8	74 23		 je	 SHORT $LN69@JGPGetChar
  019aa	8b 45 f4	 mov	 eax, DWORD PTR _lpCL$[ebp]
  019ad	0f b6 48 23	 movzx	 ecx, BYTE PTR [eax+35]
  019b1	81 e1 f0 00 00
	00		 and	 ecx, 240		; 000000f0H
  019b7	81 f9 f0 00 00
	00		 cmp	 ecx, 240		; 000000f0H
  019bd	75 0e		 jne	 SHORT $LN69@JGPGetChar

; 976  : 			{
; 977  : 				TempInventory[4] = 0x1FF;

  019bf	b8 ff 01 00 00	 mov	 eax, 511		; 000001ffH
  019c4	66 89 85 9c fe
	ff ff		 mov	 WORD PTR _TempInventory$[ebp+8], ax

; 978  : 			}
; 979  : 			else

  019cb	eb 3e		 jmp	 SHORT $LN68@JGPGetChar
$LN69@JGPGetChar:

; 980  : 			{
; 981  : 				TempInventory[4] = ((lpCL->dbInventory[16] + (lpCL->dbInventory[18]&0x80)*2)+ (lpCL->dbInventory[19]&0xF0)*32)%MAX_SUBTYPE_ITEMS;

  019cd	8b 45 f4	 mov	 eax, DWORD PTR _lpCL$[ebp]
  019d0	0f b6 48 20	 movzx	 ecx, BYTE PTR [eax+32]
  019d4	8b 55 f4	 mov	 edx, DWORD PTR _lpCL$[ebp]
  019d7	0f b6 42 22	 movzx	 eax, BYTE PTR [edx+34]
  019db	25 80 00 00 00	 and	 eax, 128		; 00000080H
  019e0	8d 0c 41	 lea	 ecx, DWORD PTR [ecx+eax*2]
  019e3	8b 55 f4	 mov	 edx, DWORD PTR _lpCL$[ebp]
  019e6	0f b6 42 23	 movzx	 eax, BYTE PTR [edx+35]
  019ea	25 f0 00 00 00	 and	 eax, 240		; 000000f0H
  019ef	c1 e0 05	 shl	 eax, 5
  019f2	03 c8		 add	 ecx, eax
  019f4	81 e1 ff 01 00
	80		 and	 ecx, -2147483137	; 800001ffH
  019fa	79 08		 jns	 SHORT $LN103@JGPGetChar
  019fc	49		 dec	 ecx
  019fd	81 c9 00 fe ff
	ff		 or	 ecx, -512		; fffffe00H
  01a03	41		 inc	 ecx
$LN103@JGPGetChar:
  01a04	66 89 8d 9c fe
	ff ff		 mov	 WORD PTR _TempInventory$[ebp+8], cx
$LN68@JGPGetChar:

; 982  : 			}
; 983  : 			if ( lpCL->dbInventory[20] == (BYTE)-1 && (lpCL->dbInventory[22]& 0x80) == 0x80 && (lpCL->dbInventory[23]& 0xF0) == 0xF0  )

  01a0b	8b 45 f4	 mov	 eax, DWORD PTR _lpCL$[ebp]
  01a0e	0f b6 48 24	 movzx	 ecx, BYTE PTR [eax+36]
  01a12	81 f9 ff 00 00
	00		 cmp	 ecx, 255		; 000000ffH
  01a18	75 32		 jne	 SHORT $LN67@JGPGetChar
  01a1a	8b 45 f4	 mov	 eax, DWORD PTR _lpCL$[ebp]
  01a1d	0f b6 48 26	 movzx	 ecx, BYTE PTR [eax+38]
  01a21	81 e1 80 00 00
	00		 and	 ecx, 128		; 00000080H
  01a27	74 23		 je	 SHORT $LN67@JGPGetChar
  01a29	8b 45 f4	 mov	 eax, DWORD PTR _lpCL$[ebp]
  01a2c	0f b6 48 27	 movzx	 ecx, BYTE PTR [eax+39]
  01a30	81 e1 f0 00 00
	00		 and	 ecx, 240		; 000000f0H
  01a36	81 f9 f0 00 00
	00		 cmp	 ecx, 240		; 000000f0H
  01a3c	75 0e		 jne	 SHORT $LN67@JGPGetChar

; 984  : 			{
; 985  : 				TempInventory[5] = 0x1FF;

  01a3e	b8 ff 01 00 00	 mov	 eax, 511		; 000001ffH
  01a43	66 89 85 9e fe
	ff ff		 mov	 WORD PTR _TempInventory$[ebp+10], ax

; 986  : 			}
; 987  : 			else

  01a4a	eb 3e		 jmp	 SHORT $LN66@JGPGetChar
$LN67@JGPGetChar:

; 988  : 			{
; 989  : 				TempInventory[5] = ((lpCL->dbInventory[20] + (lpCL->dbInventory[22]&0x80)*2)+ (lpCL->dbInventory[23]&0xF0)*32)%MAX_SUBTYPE_ITEMS;

  01a4c	8b 45 f4	 mov	 eax, DWORD PTR _lpCL$[ebp]
  01a4f	0f b6 48 24	 movzx	 ecx, BYTE PTR [eax+36]
  01a53	8b 55 f4	 mov	 edx, DWORD PTR _lpCL$[ebp]
  01a56	0f b6 42 26	 movzx	 eax, BYTE PTR [edx+38]
  01a5a	25 80 00 00 00	 and	 eax, 128		; 00000080H
  01a5f	8d 0c 41	 lea	 ecx, DWORD PTR [ecx+eax*2]
  01a62	8b 55 f4	 mov	 edx, DWORD PTR _lpCL$[ebp]
  01a65	0f b6 42 27	 movzx	 eax, BYTE PTR [edx+39]
  01a69	25 f0 00 00 00	 and	 eax, 240		; 000000f0H
  01a6e	c1 e0 05	 shl	 eax, 5
  01a71	03 c8		 add	 ecx, eax
  01a73	81 e1 ff 01 00
	80		 and	 ecx, -2147483137	; 800001ffH
  01a79	79 08		 jns	 SHORT $LN104@JGPGetChar
  01a7b	49		 dec	 ecx
  01a7c	81 c9 00 fe ff
	ff		 or	 ecx, -512		; fffffe00H
  01a82	41		 inc	 ecx
$LN104@JGPGetChar:
  01a83	66 89 8d 9e fe
	ff ff		 mov	 WORD PTR _TempInventory$[ebp+10], cx
$LN66@JGPGetChar:

; 990  : 			}
; 991  : 			if ( lpCL->dbInventory[24] == (BYTE)-1 && (lpCL->dbInventory[26]& 0x80) == 0x80 && (lpCL->dbInventory[27]& 0xF0) == 0xF0  )

  01a8a	8b 45 f4	 mov	 eax, DWORD PTR _lpCL$[ebp]
  01a8d	0f b6 48 28	 movzx	 ecx, BYTE PTR [eax+40]
  01a91	81 f9 ff 00 00
	00		 cmp	 ecx, 255		; 000000ffH
  01a97	75 32		 jne	 SHORT $LN65@JGPGetChar
  01a99	8b 45 f4	 mov	 eax, DWORD PTR _lpCL$[ebp]
  01a9c	0f b6 48 2a	 movzx	 ecx, BYTE PTR [eax+42]
  01aa0	81 e1 80 00 00
	00		 and	 ecx, 128		; 00000080H
  01aa6	74 23		 je	 SHORT $LN65@JGPGetChar
  01aa8	8b 45 f4	 mov	 eax, DWORD PTR _lpCL$[ebp]
  01aab	0f b6 48 2b	 movzx	 ecx, BYTE PTR [eax+43]
  01aaf	81 e1 f0 00 00
	00		 and	 ecx, 240		; 000000f0H
  01ab5	81 f9 f0 00 00
	00		 cmp	 ecx, 240		; 000000f0H
  01abb	75 0e		 jne	 SHORT $LN65@JGPGetChar

; 992  : 			{
; 993  : 				TempInventory[6] = 0x1FF;

  01abd	b8 ff 01 00 00	 mov	 eax, 511		; 000001ffH
  01ac2	66 89 85 a0 fe
	ff ff		 mov	 WORD PTR _TempInventory$[ebp+12], ax

; 994  : 			}
; 995  : 			else

  01ac9	eb 3e		 jmp	 SHORT $LN64@JGPGetChar
$LN65@JGPGetChar:

; 996  : 			{
; 997  : 				TempInventory[6] = ((lpCL->dbInventory[24] + (lpCL->dbInventory[26]&0x80)*2)+ (lpCL->dbInventory[27]&0xF0)*32)%MAX_SUBTYPE_ITEMS;

  01acb	8b 45 f4	 mov	 eax, DWORD PTR _lpCL$[ebp]
  01ace	0f b6 48 28	 movzx	 ecx, BYTE PTR [eax+40]
  01ad2	8b 55 f4	 mov	 edx, DWORD PTR _lpCL$[ebp]
  01ad5	0f b6 42 2a	 movzx	 eax, BYTE PTR [edx+42]
  01ad9	25 80 00 00 00	 and	 eax, 128		; 00000080H
  01ade	8d 0c 41	 lea	 ecx, DWORD PTR [ecx+eax*2]
  01ae1	8b 55 f4	 mov	 edx, DWORD PTR _lpCL$[ebp]
  01ae4	0f b6 42 2b	 movzx	 eax, BYTE PTR [edx+43]
  01ae8	25 f0 00 00 00	 and	 eax, 240		; 000000f0H
  01aed	c1 e0 05	 shl	 eax, 5
  01af0	03 c8		 add	 ecx, eax
  01af2	81 e1 ff 01 00
	80		 and	 ecx, -2147483137	; 800001ffH
  01af8	79 08		 jns	 SHORT $LN105@JGPGetChar
  01afa	49		 dec	 ecx
  01afb	81 c9 00 fe ff
	ff		 or	 ecx, -512		; fffffe00H
  01b01	41		 inc	 ecx
$LN105@JGPGetChar:
  01b02	66 89 8d a0 fe
	ff ff		 mov	 WORD PTR _TempInventory$[ebp+12], cx
$LN64@JGPGetChar:

; 998  : 			}
; 999  : 			if ( lpCL->dbInventory[28] == (BYTE)-1 && (lpCL->dbInventory[30]& 0x80) == 0x80 && (lpCL->dbInventory[31]& 0xF0) == 0xF0  )

  01b09	8b 45 f4	 mov	 eax, DWORD PTR _lpCL$[ebp]
  01b0c	0f b6 48 2c	 movzx	 ecx, BYTE PTR [eax+44]
  01b10	81 f9 ff 00 00
	00		 cmp	 ecx, 255		; 000000ffH
  01b16	75 32		 jne	 SHORT $LN63@JGPGetChar
  01b18	8b 45 f4	 mov	 eax, DWORD PTR _lpCL$[ebp]
  01b1b	0f b6 48 2e	 movzx	 ecx, BYTE PTR [eax+46]
  01b1f	81 e1 80 00 00
	00		 and	 ecx, 128		; 00000080H
  01b25	74 23		 je	 SHORT $LN63@JGPGetChar
  01b27	8b 45 f4	 mov	 eax, DWORD PTR _lpCL$[ebp]
  01b2a	0f b6 48 2f	 movzx	 ecx, BYTE PTR [eax+47]
  01b2e	81 e1 f0 00 00
	00		 and	 ecx, 240		; 000000f0H
  01b34	81 f9 f0 00 00
	00		 cmp	 ecx, 240		; 000000f0H
  01b3a	75 0e		 jne	 SHORT $LN63@JGPGetChar

; 1000 : 			{
; 1001 : 				TempInventory[7] = 0x1FF;

  01b3c	b8 ff 01 00 00	 mov	 eax, 511		; 000001ffH
  01b41	66 89 85 a2 fe
	ff ff		 mov	 WORD PTR _TempInventory$[ebp+14], ax

; 1002 : 			}
; 1003 : 			else

  01b48	eb 3e		 jmp	 SHORT $LN62@JGPGetChar
$LN63@JGPGetChar:

; 1004 : 			{
; 1005 : 				TempInventory[7] = ((lpCL->dbInventory[28] + (lpCL->dbInventory[30]&0x80)*2)+ (lpCL->dbInventory[31]&0xF0)*32)%MAX_SUBTYPE_ITEMS;

  01b4a	8b 45 f4	 mov	 eax, DWORD PTR _lpCL$[ebp]
  01b4d	0f b6 48 2c	 movzx	 ecx, BYTE PTR [eax+44]
  01b51	8b 55 f4	 mov	 edx, DWORD PTR _lpCL$[ebp]
  01b54	0f b6 42 2e	 movzx	 eax, BYTE PTR [edx+46]
  01b58	25 80 00 00 00	 and	 eax, 128		; 00000080H
  01b5d	8d 0c 41	 lea	 ecx, DWORD PTR [ecx+eax*2]
  01b60	8b 55 f4	 mov	 edx, DWORD PTR _lpCL$[ebp]
  01b63	0f b6 42 2f	 movzx	 eax, BYTE PTR [edx+47]
  01b67	25 f0 00 00 00	 and	 eax, 240		; 000000f0H
  01b6c	c1 e0 05	 shl	 eax, 5
  01b6f	03 c8		 add	 ecx, eax
  01b71	81 e1 ff 01 00
	80		 and	 ecx, -2147483137	; 800001ffH
  01b77	79 08		 jns	 SHORT $LN106@JGPGetChar
  01b79	49		 dec	 ecx
  01b7a	81 c9 00 fe ff
	ff		 or	 ecx, -512		; fffffe00H
  01b80	41		 inc	 ecx
$LN106@JGPGetChar:
  01b81	66 89 8d a2 fe
	ff ff		 mov	 WORD PTR _TempInventory$[ebp+14], cx
$LN62@JGPGetChar:

; 1006 : 			}
; 1007 : 			if ( lpCL->dbInventory[32] == (BYTE)-1 && (lpCL->dbInventory[34]& 0x80) == 0x80 && (lpCL->dbInventory[35]& 0xF0) == 0xF0  )

  01b88	8b 45 f4	 mov	 eax, DWORD PTR _lpCL$[ebp]
  01b8b	0f b6 48 30	 movzx	 ecx, BYTE PTR [eax+48]
  01b8f	81 f9 ff 00 00
	00		 cmp	 ecx, 255		; 000000ffH
  01b95	75 32		 jne	 SHORT $LN61@JGPGetChar
  01b97	8b 45 f4	 mov	 eax, DWORD PTR _lpCL$[ebp]
  01b9a	0f b6 48 32	 movzx	 ecx, BYTE PTR [eax+50]
  01b9e	81 e1 80 00 00
	00		 and	 ecx, 128		; 00000080H
  01ba4	74 23		 je	 SHORT $LN61@JGPGetChar
  01ba6	8b 45 f4	 mov	 eax, DWORD PTR _lpCL$[ebp]
  01ba9	0f b6 48 33	 movzx	 ecx, BYTE PTR [eax+51]
  01bad	81 e1 f0 00 00
	00		 and	 ecx, 240		; 000000f0H
  01bb3	81 f9 f0 00 00
	00		 cmp	 ecx, 240		; 000000f0H
  01bb9	75 0e		 jne	 SHORT $LN61@JGPGetChar

; 1008 : 			{
; 1009 : 				TempInventory[8] = 0x1FF;

  01bbb	b8 ff 01 00 00	 mov	 eax, 511		; 000001ffH
  01bc0	66 89 85 a4 fe
	ff ff		 mov	 WORD PTR _TempInventory$[ebp+16], ax

; 1010 : 			}
; 1011 : 			else

  01bc7	eb 3e		 jmp	 SHORT $LN60@JGPGetChar
$LN61@JGPGetChar:

; 1012 : 			{
; 1013 : 				TempInventory[8] = ((lpCL->dbInventory[32] + (lpCL->dbInventory[34]&0x80)*2)+ (lpCL->dbInventory[35]&0xF0)*32)%MAX_SUBTYPE_ITEMS;

  01bc9	8b 45 f4	 mov	 eax, DWORD PTR _lpCL$[ebp]
  01bcc	0f b6 48 30	 movzx	 ecx, BYTE PTR [eax+48]
  01bd0	8b 55 f4	 mov	 edx, DWORD PTR _lpCL$[ebp]
  01bd3	0f b6 42 32	 movzx	 eax, BYTE PTR [edx+50]
  01bd7	25 80 00 00 00	 and	 eax, 128		; 00000080H
  01bdc	8d 0c 41	 lea	 ecx, DWORD PTR [ecx+eax*2]
  01bdf	8b 55 f4	 mov	 edx, DWORD PTR _lpCL$[ebp]
  01be2	0f b6 42 33	 movzx	 eax, BYTE PTR [edx+51]
  01be6	25 f0 00 00 00	 and	 eax, 240		; 000000f0H
  01beb	c1 e0 05	 shl	 eax, 5
  01bee	03 c8		 add	 ecx, eax
  01bf0	81 e1 ff 01 00
	80		 and	 ecx, -2147483137	; 800001ffH
  01bf6	79 08		 jns	 SHORT $LN107@JGPGetChar
  01bf8	49		 dec	 ecx
  01bf9	81 c9 00 fe ff
	ff		 or	 ecx, -512		; fffffe00H
  01bff	41		 inc	 ecx
$LN107@JGPGetChar:
  01c00	66 89 8d a4 fe
	ff ff		 mov	 WORD PTR _TempInventory$[ebp+16], cx
$LN60@JGPGetChar:

; 1014 : 			}
; 1015 : 
; 1016 : 			pCList.CharSet[12] |= DBI_GET_TYPE(TempInventory[0]);

  01c07	0f b7 85 94 fe
	ff ff		 movzx	 eax, WORD PTR _TempInventory$[ebp]
  01c0e	25 00 0f 00 00	 and	 eax, 3840		; 00000f00H
  01c13	c1 f8 04	 sar	 eax, 4
  01c16	0f b6 8d c7 fe
	ff ff		 movzx	 ecx, BYTE PTR _pCList$[ebp+27]
  01c1d	0b c8		 or	 ecx, eax
  01c1f	88 8d c7 fe ff
	ff		 mov	 BYTE PTR _pCList$[ebp+27], cl

; 1017 : 			pCList.CharSet[1] = TempInventory[0] % 256;

  01c25	0f b7 85 94 fe
	ff ff		 movzx	 eax, WORD PTR _TempInventory$[ebp]
  01c2c	25 ff 00 00 80	 and	 eax, -2147483393	; 800000ffH
  01c31	79 07		 jns	 SHORT $LN108@JGPGetChar
  01c33	48		 dec	 eax
  01c34	0d 00 ff ff ff	 or	 eax, -256		; ffffff00H
  01c39	40		 inc	 eax
$LN108@JGPGetChar:
  01c3a	88 85 bc fe ff
	ff		 mov	 BYTE PTR _pCList$[ebp+16], al

; 1018 : 
; 1019 : 			pCList.CharSet[13] |= DBI_GET_TYPE(TempInventory[1]);

  01c40	0f b7 85 96 fe
	ff ff		 movzx	 eax, WORD PTR _TempInventory$[ebp+2]
  01c47	25 00 0f 00 00	 and	 eax, 3840		; 00000f00H
  01c4c	c1 f8 04	 sar	 eax, 4
  01c4f	0f b6 8d c8 fe
	ff ff		 movzx	 ecx, BYTE PTR _pCList$[ebp+28]
  01c56	0b c8		 or	 ecx, eax
  01c58	88 8d c8 fe ff
	ff		 mov	 BYTE PTR _pCList$[ebp+28], cl

; 1020 : 			pCList.CharSet[2] = TempInventory[1] % 256;

  01c5e	0f b7 85 96 fe
	ff ff		 movzx	 eax, WORD PTR _TempInventory$[ebp+2]
  01c65	25 ff 00 00 80	 and	 eax, -2147483393	; 800000ffH
  01c6a	79 07		 jns	 SHORT $LN109@JGPGetChar
  01c6c	48		 dec	 eax
  01c6d	0d 00 ff ff ff	 or	 eax, -256		; ffffff00H
  01c72	40		 inc	 eax
$LN109@JGPGetChar:
  01c73	88 85 bd fe ff
	ff		 mov	 BYTE PTR _pCList$[ebp+17], al

; 1021 : 
; 1022 : 			pCList.CharSet[13] |= (int)(TempInventory[2] & 0x1E0) >> 5;

  01c79	0f b7 85 98 fe
	ff ff		 movzx	 eax, WORD PTR _TempInventory$[ebp+4]
  01c80	25 e0 01 00 00	 and	 eax, 480		; 000001e0H
  01c85	c1 f8 05	 sar	 eax, 5
  01c88	0f b6 8d c8 fe
	ff ff		 movzx	 ecx, BYTE PTR _pCList$[ebp+28]
  01c8f	0b c8		 or	 ecx, eax
  01c91	88 8d c8 fe ff
	ff		 mov	 BYTE PTR _pCList$[ebp+28], cl

; 1023 : 			pCList.CharSet[9] |= (int)(TempInventory[2] & 0x10) << 3;

  01c97	0f b7 85 98 fe
	ff ff		 movzx	 eax, WORD PTR _TempInventory$[ebp+4]
  01c9e	83 e0 10	 and	 eax, 16			; 00000010H
  01ca1	c1 e0 03	 shl	 eax, 3
  01ca4	0f b6 8d c4 fe
	ff ff		 movzx	 ecx, BYTE PTR _pCList$[ebp+24]
  01cab	0b c8		 or	 ecx, eax
  01cad	88 8d c4 fe ff
	ff		 mov	 BYTE PTR _pCList$[ebp+24], cl

; 1024 : 			pCList.CharSet[3] |= (int)(TempInventory[2] & 0x0F) << 4;

  01cb3	0f b7 85 98 fe
	ff ff		 movzx	 eax, WORD PTR _TempInventory$[ebp+4]
  01cba	83 e0 0f	 and	 eax, 15			; 0000000fH
  01cbd	c1 e0 04	 shl	 eax, 4
  01cc0	0f b6 8d be fe
	ff ff		 movzx	 ecx, BYTE PTR _pCList$[ebp+18]
  01cc7	0b c8		 or	 ecx, eax
  01cc9	88 8d be fe ff
	ff		 mov	 BYTE PTR _pCList$[ebp+18], cl

; 1025 : 
; 1026 : 			pCList.CharSet[14] |= (int)(TempInventory[3] & 0x1E0) >> 1;

  01ccf	0f b7 85 9a fe
	ff ff		 movzx	 eax, WORD PTR _TempInventory$[ebp+6]
  01cd6	25 e0 01 00 00	 and	 eax, 480		; 000001e0H
  01cdb	d1 f8		 sar	 eax, 1
  01cdd	0f b6 8d c9 fe
	ff ff		 movzx	 ecx, BYTE PTR _pCList$[ebp+29]
  01ce4	0b c8		 or	 ecx, eax
  01ce6	88 8d c9 fe ff
	ff		 mov	 BYTE PTR _pCList$[ebp+29], cl

; 1027 : 			pCList.CharSet[9] |= (int)(TempInventory[3] & 0x10) << 2;

  01cec	0f b7 85 9a fe
	ff ff		 movzx	 eax, WORD PTR _TempInventory$[ebp+6]
  01cf3	83 e0 10	 and	 eax, 16			; 00000010H
  01cf6	c1 e0 02	 shl	 eax, 2
  01cf9	0f b6 8d c4 fe
	ff ff		 movzx	 ecx, BYTE PTR _pCList$[ebp+24]
  01d00	0b c8		 or	 ecx, eax
  01d02	88 8d c4 fe ff
	ff		 mov	 BYTE PTR _pCList$[ebp+24], cl

; 1028 : 			pCList.CharSet[3] |= (int)(TempInventory[3] & 0x0F);

  01d08	0f b7 85 9a fe
	ff ff		 movzx	 eax, WORD PTR _TempInventory$[ebp+6]
  01d0f	83 e0 0f	 and	 eax, 15			; 0000000fH
  01d12	0f b6 8d be fe
	ff ff		 movzx	 ecx, BYTE PTR _pCList$[ebp+18]
  01d19	0b c8		 or	 ecx, eax
  01d1b	88 8d be fe ff
	ff		 mov	 BYTE PTR _pCList$[ebp+18], cl

; 1029 : 
; 1030 : 			pCList.CharSet[14] |= (int)(TempInventory[4] & 0x1E0) >> 5;

  01d21	0f b7 85 9c fe
	ff ff		 movzx	 eax, WORD PTR _TempInventory$[ebp+8]
  01d28	25 e0 01 00 00	 and	 eax, 480		; 000001e0H
  01d2d	c1 f8 05	 sar	 eax, 5
  01d30	0f b6 8d c9 fe
	ff ff		 movzx	 ecx, BYTE PTR _pCList$[ebp+29]
  01d37	0b c8		 or	 ecx, eax
  01d39	88 8d c9 fe ff
	ff		 mov	 BYTE PTR _pCList$[ebp+29], cl

; 1031 : 			pCList.CharSet[9] |= (int)(TempInventory[4] & 0x10) << 1;

  01d3f	0f b7 85 9c fe
	ff ff		 movzx	 eax, WORD PTR _TempInventory$[ebp+8]
  01d46	83 e0 10	 and	 eax, 16			; 00000010H
  01d49	d1 e0		 shl	 eax, 1
  01d4b	0f b6 8d c4 fe
	ff ff		 movzx	 ecx, BYTE PTR _pCList$[ebp+24]
  01d52	0b c8		 or	 ecx, eax
  01d54	88 8d c4 fe ff
	ff		 mov	 BYTE PTR _pCList$[ebp+24], cl

; 1032 : 			pCList.CharSet[4] |= (int)(TempInventory[4] & 0x0F) << 4;

  01d5a	0f b7 85 9c fe
	ff ff		 movzx	 eax, WORD PTR _TempInventory$[ebp+8]
  01d61	83 e0 0f	 and	 eax, 15			; 0000000fH
  01d64	c1 e0 04	 shl	 eax, 4
  01d67	0f b6 8d bf fe
	ff ff		 movzx	 ecx, BYTE PTR _pCList$[ebp+19]
  01d6e	0b c8		 or	 ecx, eax
  01d70	88 8d bf fe ff
	ff		 mov	 BYTE PTR _pCList$[ebp+19], cl

; 1033 : 
; 1034 : 			pCList.CharSet[15] |= (int)(TempInventory[5] & 0x1E0) >> 1;

  01d76	0f b7 85 9e fe
	ff ff		 movzx	 eax, WORD PTR _TempInventory$[ebp+10]
  01d7d	25 e0 01 00 00	 and	 eax, 480		; 000001e0H
  01d82	d1 f8		 sar	 eax, 1
  01d84	0f b6 8d ca fe
	ff ff		 movzx	 ecx, BYTE PTR _pCList$[ebp+30]
  01d8b	0b c8		 or	 ecx, eax
  01d8d	88 8d ca fe ff
	ff		 mov	 BYTE PTR _pCList$[ebp+30], cl

; 1035 : 			pCList.CharSet[9] |= (int)(TempInventory[5] & 0x10);

  01d93	0f b7 85 9e fe
	ff ff		 movzx	 eax, WORD PTR _TempInventory$[ebp+10]
  01d9a	83 e0 10	 and	 eax, 16			; 00000010H
  01d9d	0f b6 8d c4 fe
	ff ff		 movzx	 ecx, BYTE PTR _pCList$[ebp+24]
  01da4	0b c8		 or	 ecx, eax
  01da6	88 8d c4 fe ff
	ff		 mov	 BYTE PTR _pCList$[ebp+24], cl

; 1036 : 			pCList.CharSet[4] |= (int)(TempInventory[5] & 0x0F);

  01dac	0f b7 85 9e fe
	ff ff		 movzx	 eax, WORD PTR _TempInventory$[ebp+10]
  01db3	83 e0 0f	 and	 eax, 15			; 0000000fH
  01db6	0f b6 8d bf fe
	ff ff		 movzx	 ecx, BYTE PTR _pCList$[ebp+19]
  01dbd	0b c8		 or	 ecx, eax
  01dbf	88 8d bf fe ff
	ff		 mov	 BYTE PTR _pCList$[ebp+19], cl

; 1037 : 
; 1038 : 			pCList.CharSet[15] |= (int)(TempInventory[6] & 0x1E0) >> 5;

  01dc5	0f b7 85 a0 fe
	ff ff		 movzx	 eax, WORD PTR _TempInventory$[ebp+12]
  01dcc	25 e0 01 00 00	 and	 eax, 480		; 000001e0H
  01dd1	c1 f8 05	 sar	 eax, 5
  01dd4	0f b6 8d ca fe
	ff ff		 movzx	 ecx, BYTE PTR _pCList$[ebp+30]
  01ddb	0b c8		 or	 ecx, eax
  01ddd	88 8d ca fe ff
	ff		 mov	 BYTE PTR _pCList$[ebp+30], cl

; 1039 : 			pCList.CharSet[9] |= (int)(TempInventory[6] & 0x10) >> 1;

  01de3	0f b7 85 a0 fe
	ff ff		 movzx	 eax, WORD PTR _TempInventory$[ebp+12]
  01dea	83 e0 10	 and	 eax, 16			; 00000010H
  01ded	d1 f8		 sar	 eax, 1
  01def	0f b6 8d c4 fe
	ff ff		 movzx	 ecx, BYTE PTR _pCList$[ebp+24]
  01df6	0b c8		 or	 ecx, eax
  01df8	88 8d c4 fe ff
	ff		 mov	 BYTE PTR _pCList$[ebp+24], cl

; 1040 : 			pCList.CharSet[5] |= (int)(TempInventory[6] & 0x0F) << 4;

  01dfe	0f b7 85 a0 fe
	ff ff		 movzx	 eax, WORD PTR _TempInventory$[ebp+12]
  01e05	83 e0 0f	 and	 eax, 15			; 0000000fH
  01e08	c1 e0 04	 shl	 eax, 4
  01e0b	0f b6 8d c0 fe
	ff ff		 movzx	 ecx, BYTE PTR _pCList$[ebp+20]
  01e12	0b c8		 or	 ecx, eax
  01e14	88 8d c0 fe ff
	ff		 mov	 BYTE PTR _pCList$[ebp+20], cl

; 1041 : 
; 1042 : 			index = 0;

  01e1a	c6 85 db fe ff
	ff 00		 mov	 BYTE PTR _index$[ebp], 0

; 1043 : 
; 1044 : 			// Wings Set
; 1045 : 			switch (TempInventory[7])

  01e21	0f b7 85 a2 fe
	ff ff		 movzx	 eax, WORD PTR _TempInventory$[ebp+14]
  01e28	89 85 30 fe ff
	ff		 mov	 DWORD PTR tv679[ebp], eax
  01e2e	81 bd 30 fe ff
	ff ff 01 00 00	 cmp	 DWORD PTR tv679[ebp], 511 ; 000001ffH
  01e38	7f 30		 jg	 SHORT $LN88@JGPGetChar
  01e3a	81 bd 30 fe ff
	ff ff 01 00 00	 cmp	 DWORD PTR tv679[ebp], 511 ; 000001ffH
  01e44	74 29		 je	 SHORT $LN57@JGPGetChar
  01e46	81 bd 30 fe ff
	ff 87 00 00 00	 cmp	 DWORD PTR tv679[ebp], 135 ; 00000087H
  01e50	0f 87 9a 03 00
	00		 ja	 $LN58@JGPGetChar
  01e56	8b 8d 30 fe ff
	ff		 mov	 ecx, DWORD PTR tv679[ebp]
  01e5c	0f b6 91 00 00
	00 00		 movzx	 edx, BYTE PTR $LN99@JGPGetChar[ecx]
  01e63	ff 24 95 00 00
	00 00		 jmp	 DWORD PTR $LN110@JGPGetChar[edx*4]
$LN88@JGPGetChar:
  01e6a	e9 81 03 00 00	 jmp	 $LN58@JGPGetChar
$LN57@JGPGetChar:

; 1046 : 			{
; 1047 : 			case 0x1FF: // No Wings
; 1048 : 				index |= 0;

  01e6f	8a 85 db fe ff
	ff		 mov	 al, BYTE PTR _index$[ebp]
  01e75	88 85 db fe ff
	ff		 mov	 BYTE PTR _index$[ebp], al

; 1049 : 				break;

  01e7b	e9 70 03 00 00	 jmp	 $LN58@JGPGetChar
$LN56@JGPGetChar:

; 1050 : 			case 0: // Wings of Elf
; 1051 : 				pCList.CharSet[5] |= CS_SET_WING1(1);

  01e80	0f b6 85 c0 fe
	ff ff		 movzx	 eax, BYTE PTR _pCList$[ebp+20]
  01e87	83 c8 04	 or	 eax, 4
  01e8a	88 85 c0 fe ff
	ff		 mov	 BYTE PTR _pCList$[ebp+20], al

; 1052 : 				pCList.CharSet[9] |= 1;

  01e90	0f b6 85 c4 fe
	ff ff		 movzx	 eax, BYTE PTR _pCList$[ebp+24]
  01e97	83 c8 01	 or	 eax, 1
  01e9a	88 85 c4 fe ff
	ff		 mov	 BYTE PTR _pCList$[ebp+24], al

; 1053 : 				break;

  01ea0	e9 4b 03 00 00	 jmp	 $LN58@JGPGetChar
$LN55@JGPGetChar:

; 1054 : 			case 1: // Wings of Heaven
; 1055 : 				pCList.CharSet[5] |= CS_SET_WING1(1);

  01ea5	0f b6 85 c0 fe
	ff ff		 movzx	 eax, BYTE PTR _pCList$[ebp+20]
  01eac	83 c8 04	 or	 eax, 4
  01eaf	88 85 c0 fe ff
	ff		 mov	 BYTE PTR _pCList$[ebp+20], al

; 1056 : 				pCList.CharSet[9] |= 2;

  01eb5	0f b6 85 c4 fe
	ff ff		 movzx	 eax, BYTE PTR _pCList$[ebp+24]
  01ebc	83 c8 02	 or	 eax, 2
  01ebf	88 85 c4 fe ff
	ff		 mov	 BYTE PTR _pCList$[ebp+24], al

; 1057 : 				break;

  01ec5	e9 26 03 00 00	 jmp	 $LN58@JGPGetChar
$LN54@JGPGetChar:

; 1058 : 			case 2: // Wings of Satan
; 1059 : 				pCList.CharSet[5] |= CS_SET_WING1(1);

  01eca	0f b6 85 c0 fe
	ff ff		 movzx	 eax, BYTE PTR _pCList$[ebp+20]
  01ed1	83 c8 04	 or	 eax, 4
  01ed4	88 85 c0 fe ff
	ff		 mov	 BYTE PTR _pCList$[ebp+20], al

; 1060 : 				pCList.CharSet[9] |= 3;

  01eda	0f b6 85 c4 fe
	ff ff		 movzx	 eax, BYTE PTR _pCList$[ebp+24]
  01ee1	83 c8 03	 or	 eax, 3
  01ee4	88 85 c4 fe ff
	ff		 mov	 BYTE PTR _pCList$[ebp+24], al

; 1061 : 				break;

  01eea	e9 01 03 00 00	 jmp	 $LN58@JGPGetChar
$LN53@JGPGetChar:

; 1062 : 			case 41:
; 1063 : 				pCList.CharSet[5] |= CS_SET_WING1(1);

  01eef	0f b6 85 c0 fe
	ff ff		 movzx	 eax, BYTE PTR _pCList$[ebp+20]
  01ef6	83 c8 04	 or	 eax, 4
  01ef9	88 85 c0 fe ff
	ff		 mov	 BYTE PTR _pCList$[ebp+20], al

; 1064 : 				pCList.CharSet[9] |= 4;

  01eff	0f b6 85 c4 fe
	ff ff		 movzx	 eax, BYTE PTR _pCList$[ebp+24]
  01f06	83 c8 04	 or	 eax, 4
  01f09	88 85 c4 fe ff
	ff		 mov	 BYTE PTR _pCList$[ebp+24], al

; 1065 : 				break;

  01f0f	e9 dc 02 00 00	 jmp	 $LN58@JGPGetChar
$LN52@JGPGetChar:

; 1066 : 			case 3: // Muse Elf Wings
; 1067 : 				pCList.CharSet[5] |= CS_SET_WING1(2);

  01f14	0f b6 85 c0 fe
	ff ff		 movzx	 eax, BYTE PTR _pCList$[ebp+20]
  01f1b	83 c8 08	 or	 eax, 8
  01f1e	88 85 c0 fe ff
	ff		 mov	 BYTE PTR _pCList$[ebp+20], al

; 1068 : 				pCList.CharSet[9] |= 1;

  01f24	0f b6 85 c4 fe
	ff ff		 movzx	 eax, BYTE PTR _pCList$[ebp+24]
  01f2b	83 c8 01	 or	 eax, 1
  01f2e	88 85 c4 fe ff
	ff		 mov	 BYTE PTR _pCList$[ebp+24], al

; 1069 : 				break;

  01f34	e9 b7 02 00 00	 jmp	 $LN58@JGPGetChar
$LN51@JGPGetChar:

; 1070 : 			case 4: // Soul Master Wings
; 1071 : 				pCList.CharSet[5] |= CS_SET_WING1(2);

  01f39	0f b6 85 c0 fe
	ff ff		 movzx	 eax, BYTE PTR _pCList$[ebp+20]
  01f40	83 c8 08	 or	 eax, 8
  01f43	88 85 c0 fe ff
	ff		 mov	 BYTE PTR _pCList$[ebp+20], al

; 1072 : 				pCList.CharSet[9] |= 2;

  01f49	0f b6 85 c4 fe
	ff ff		 movzx	 eax, BYTE PTR _pCList$[ebp+24]
  01f50	83 c8 02	 or	 eax, 2
  01f53	88 85 c4 fe ff
	ff		 mov	 BYTE PTR _pCList$[ebp+24], al

; 1073 : 				break;

  01f59	e9 92 02 00 00	 jmp	 $LN58@JGPGetChar
$LN50@JGPGetChar:

; 1074 : 			case 5: // Blade Knight Wings
; 1075 : 				pCList.CharSet[5] |= CS_SET_WING1(2);

  01f5e	0f b6 85 c0 fe
	ff ff		 movzx	 eax, BYTE PTR _pCList$[ebp+20]
  01f65	83 c8 08	 or	 eax, 8
  01f68	88 85 c0 fe ff
	ff		 mov	 BYTE PTR _pCList$[ebp+20], al

; 1076 : 				pCList.CharSet[9] |= 3;

  01f6e	0f b6 85 c4 fe
	ff ff		 movzx	 eax, BYTE PTR _pCList$[ebp+24]
  01f75	83 c8 03	 or	 eax, 3
  01f78	88 85 c4 fe ff
	ff		 mov	 BYTE PTR _pCList$[ebp+24], al

; 1077 : 				break;

  01f7e	e9 6d 02 00 00	 jmp	 $LN58@JGPGetChar
$LN49@JGPGetChar:

; 1078 : 			case 6: // Magic Gladiator Wings
; 1079 : 				pCList.CharSet[5] |= CS_SET_WING1(2);

  01f83	0f b6 85 c0 fe
	ff ff		 movzx	 eax, BYTE PTR _pCList$[ebp+20]
  01f8a	83 c8 08	 or	 eax, 8
  01f8d	88 85 c0 fe ff
	ff		 mov	 BYTE PTR _pCList$[ebp+20], al

; 1080 : 				pCList.CharSet[9] |= 4;

  01f93	0f b6 85 c4 fe
	ff ff		 movzx	 eax, BYTE PTR _pCList$[ebp+24]
  01f9a	83 c8 04	 or	 eax, 4
  01f9d	88 85 c4 fe ff
	ff		 mov	 BYTE PTR _pCList$[ebp+24], al

; 1081 : 				break;

  01fa3	e9 48 02 00 00	 jmp	 $LN58@JGPGetChar
$LN48@JGPGetChar:

; 1082 : 			case 30: // Cape of Lord
; 1083 : 				pCList.CharSet[5] |= CS_SET_WING1(2);

  01fa8	0f b6 85 c0 fe
	ff ff		 movzx	 eax, BYTE PTR _pCList$[ebp+20]
  01faf	83 c8 08	 or	 eax, 8
  01fb2	88 85 c0 fe ff
	ff		 mov	 BYTE PTR _pCList$[ebp+20], al

; 1084 : 				pCList.CharSet[9] |= 5;

  01fb8	0f b6 85 c4 fe
	ff ff		 movzx	 eax, BYTE PTR _pCList$[ebp+24]
  01fbf	83 c8 05	 or	 eax, 5
  01fc2	88 85 c4 fe ff
	ff		 mov	 BYTE PTR _pCList$[ebp+24], al

; 1085 : 				break;

  01fc8	e9 23 02 00 00	 jmp	 $LN58@JGPGetChar
$LN47@JGPGetChar:

; 1086 : 			case 42: // Bloody Summoner Wings
; 1087 : 				pCList.CharSet[5] |= CS_SET_WING1(2);

  01fcd	0f b6 85 c0 fe
	ff ff		 movzx	 eax, BYTE PTR _pCList$[ebp+20]
  01fd4	83 c8 08	 or	 eax, 8
  01fd7	88 85 c0 fe ff
	ff		 mov	 BYTE PTR _pCList$[ebp+20], al

; 1088 : 				pCList.CharSet[9] |= 6;

  01fdd	0f b6 85 c4 fe
	ff ff		 movzx	 eax, BYTE PTR _pCList$[ebp+24]
  01fe4	83 c8 06	 or	 eax, 6
  01fe7	88 85 c4 fe ff
	ff		 mov	 BYTE PTR _pCList$[ebp+24], al

; 1089 : 				break;

  01fed	e9 fe 01 00 00	 jmp	 $LN58@JGPGetChar
$LN46@JGPGetChar:

; 1090 : 			case 49: // Cloak of Warrior
; 1091 : 				pCList.CharSet[5] |= CS_SET_WING1(2);

  01ff2	0f b6 85 c0 fe
	ff ff		 movzx	 eax, BYTE PTR _pCList$[ebp+20]
  01ff9	83 c8 08	 or	 eax, 8
  01ffc	88 85 c0 fe ff
	ff		 mov	 BYTE PTR _pCList$[ebp+20], al

; 1092 : 				pCList.CharSet[9] |= 7;

  02002	0f b6 85 c4 fe
	ff ff		 movzx	 eax, BYTE PTR _pCList$[ebp+24]
  02009	83 c8 07	 or	 eax, 7
  0200c	88 85 c4 fe ff
	ff		 mov	 BYTE PTR _pCList$[ebp+24], al

; 1093 : 				break;

  02012	e9 d9 01 00 00	 jmp	 $LN58@JGPGetChar
$LN45@JGPGetChar:

; 1094 : 			case 36: // Blade Master Wings
; 1095 : 				pCList.CharSet[5] |= CS_SET_WING1(-1);

  02017	0f b6 85 c0 fe
	ff ff		 movzx	 eax, BYTE PTR _pCList$[ebp+20]
  0201e	83 c8 0c	 or	 eax, 12			; 0000000cH
  02021	88 85 c0 fe ff
	ff		 mov	 BYTE PTR _pCList$[ebp+20], al

; 1096 : 				pCList.CharSet[9] |= 1;

  02027	0f b6 85 c4 fe
	ff ff		 movzx	 eax, BYTE PTR _pCList$[ebp+24]
  0202e	83 c8 01	 or	 eax, 1
  02031	88 85 c4 fe ff
	ff		 mov	 BYTE PTR _pCList$[ebp+24], al

; 1097 : 				break;

  02037	e9 b4 01 00 00	 jmp	 $LN58@JGPGetChar
$LN44@JGPGetChar:

; 1098 : 			case 37: // Grand Master Wings
; 1099 : 				pCList.CharSet[5] |= CS_SET_WING1(-1);

  0203c	0f b6 85 c0 fe
	ff ff		 movzx	 eax, BYTE PTR _pCList$[ebp+20]
  02043	83 c8 0c	 or	 eax, 12			; 0000000cH
  02046	88 85 c0 fe ff
	ff		 mov	 BYTE PTR _pCList$[ebp+20], al

; 1100 : 				pCList.CharSet[9] |= 2;

  0204c	0f b6 85 c4 fe
	ff ff		 movzx	 eax, BYTE PTR _pCList$[ebp+24]
  02053	83 c8 02	 or	 eax, 2
  02056	88 85 c4 fe ff
	ff		 mov	 BYTE PTR _pCList$[ebp+24], al

; 1101 : 				break;

  0205c	e9 8f 01 00 00	 jmp	 $LN58@JGPGetChar
$LN43@JGPGetChar:

; 1102 : 			case 38: // High Elf Wings
; 1103 : 				pCList.CharSet[5] |= CS_SET_WING1(-1);

  02061	0f b6 85 c0 fe
	ff ff		 movzx	 eax, BYTE PTR _pCList$[ebp+20]
  02068	83 c8 0c	 or	 eax, 12			; 0000000cH
  0206b	88 85 c0 fe ff
	ff		 mov	 BYTE PTR _pCList$[ebp+20], al

; 1104 : 				pCList.CharSet[9] |= 3;

  02071	0f b6 85 c4 fe
	ff ff		 movzx	 eax, BYTE PTR _pCList$[ebp+24]
  02078	83 c8 03	 or	 eax, 3
  0207b	88 85 c4 fe ff
	ff		 mov	 BYTE PTR _pCList$[ebp+24], al

; 1105 : 				break;

  02081	e9 6a 01 00 00	 jmp	 $LN58@JGPGetChar
$LN42@JGPGetChar:

; 1106 : 			case 39: // Duel Master Wings
; 1107 : 				pCList.CharSet[5] |= CS_SET_WING1(-1);

  02086	0f b6 85 c0 fe
	ff ff		 movzx	 eax, BYTE PTR _pCList$[ebp+20]
  0208d	83 c8 0c	 or	 eax, 12			; 0000000cH
  02090	88 85 c0 fe ff
	ff		 mov	 BYTE PTR _pCList$[ebp+20], al

; 1108 : 				pCList.CharSet[9] |= 4;

  02096	0f b6 85 c4 fe
	ff ff		 movzx	 eax, BYTE PTR _pCList$[ebp+24]
  0209d	83 c8 04	 or	 eax, 4
  020a0	88 85 c4 fe ff
	ff		 mov	 BYTE PTR _pCList$[ebp+24], al

; 1109 : 				break;

  020a6	e9 45 01 00 00	 jmp	 $LN58@JGPGetChar
$LN41@JGPGetChar:

; 1110 : 			case 40: // Lord Emperor Cape
; 1111 : 				pCList.CharSet[5] |= CS_SET_WING1(-1);

  020ab	0f b6 85 c0 fe
	ff ff		 movzx	 eax, BYTE PTR _pCList$[ebp+20]
  020b2	83 c8 0c	 or	 eax, 12			; 0000000cH
  020b5	88 85 c0 fe ff
	ff		 mov	 BYTE PTR _pCList$[ebp+20], al

; 1112 : 				pCList.CharSet[9] |= 5;

  020bb	0f b6 85 c4 fe
	ff ff		 movzx	 eax, BYTE PTR _pCList$[ebp+24]
  020c2	83 c8 05	 or	 eax, 5
  020c5	88 85 c4 fe ff
	ff		 mov	 BYTE PTR _pCList$[ebp+24], al

; 1113 : 				break;

  020cb	e9 20 01 00 00	 jmp	 $LN58@JGPGetChar
$LN40@JGPGetChar:

; 1114 : 			case 43: // Dimension Master Wings
; 1115 : 				pCList.CharSet[5] |= CS_SET_WING1(-1);

  020d0	0f b6 85 c0 fe
	ff ff		 movzx	 eax, BYTE PTR _pCList$[ebp+20]
  020d7	83 c8 0c	 or	 eax, 12			; 0000000cH
  020da	88 85 c0 fe ff
	ff		 mov	 BYTE PTR _pCList$[ebp+20], al

; 1116 : 				pCList.CharSet[9] |= 6;

  020e0	0f b6 85 c4 fe
	ff ff		 movzx	 eax, BYTE PTR _pCList$[ebp+24]
  020e7	83 c8 06	 or	 eax, 6
  020ea	88 85 c4 fe ff
	ff		 mov	 BYTE PTR _pCList$[ebp+24], al

; 1117 : 				break;

  020f0	e9 fb 00 00 00	 jmp	 $LN58@JGPGetChar
$LN39@JGPGetChar:

; 1118 : 			case 50: // Fist Master Cloak
; 1119 : 				pCList.CharSet[5] |= CS_SET_WING1(-1);

  020f5	0f b6 85 c0 fe
	ff ff		 movzx	 eax, BYTE PTR _pCList$[ebp+20]
  020fc	83 c8 0c	 or	 eax, 12			; 0000000cH
  020ff	88 85 c0 fe ff
	ff		 mov	 BYTE PTR _pCList$[ebp+20], al

; 1120 : 				pCList.CharSet[9] |= 7;

  02105	0f b6 85 c4 fe
	ff ff		 movzx	 eax, BYTE PTR _pCList$[ebp+24]
  0210c	83 c8 07	 or	 eax, 7
  0210f	88 85 c4 fe ff
	ff		 mov	 BYTE PTR _pCList$[ebp+24], al

; 1121 : 				break;

  02115	e9 d6 00 00 00	 jmp	 $LN58@JGPGetChar
$LN38@JGPGetChar:

; 1122 : 			case 130: // Small Cape of Lord
; 1123 : 				pCList.CharSet[5] |= CS_SET_WING1(3);

  0211a	0f b6 85 c0 fe
	ff ff		 movzx	 eax, BYTE PTR _pCList$[ebp+20]
  02121	83 c8 0c	 or	 eax, 12			; 0000000cH
  02124	88 85 c0 fe ff
	ff		 mov	 BYTE PTR _pCList$[ebp+20], al

; 1124 : 				pCList.CharSet[17] |= 32;

  0212a	0f b6 85 cc fe
	ff ff		 movzx	 eax, BYTE PTR _pCList$[ebp+32]
  02131	83 c8 20	 or	 eax, 32			; 00000020H
  02134	88 85 cc fe ff
	ff		 mov	 BYTE PTR _pCList$[ebp+32], al

; 1125 : 				break;

  0213a	e9 b1 00 00 00	 jmp	 $LN58@JGPGetChar
$LN37@JGPGetChar:

; 1126 : 			case 131: // Small Wings of Misery
; 1127 : 				pCList.CharSet[5] |= CS_SET_WING1(3);

  0213f	0f b6 85 c0 fe
	ff ff		 movzx	 eax, BYTE PTR _pCList$[ebp+20]
  02146	83 c8 0c	 or	 eax, 12			; 0000000cH
  02149	88 85 c0 fe ff
	ff		 mov	 BYTE PTR _pCList$[ebp+20], al

; 1128 : 				pCList.CharSet[17] |= 64;

  0214f	0f b6 85 cc fe
	ff ff		 movzx	 eax, BYTE PTR _pCList$[ebp+32]
  02156	83 c8 40	 or	 eax, 64			; 00000040H
  02159	88 85 cc fe ff
	ff		 mov	 BYTE PTR _pCList$[ebp+32], al

; 1129 : 				break;

  0215f	e9 8c 00 00 00	 jmp	 $LN58@JGPGetChar
$LN36@JGPGetChar:

; 1130 : 			case 132: // Small Wings of Elf
; 1131 : 				pCList.CharSet[5] |= CS_SET_WING1(3);

  02164	0f b6 85 c0 fe
	ff ff		 movzx	 eax, BYTE PTR _pCList$[ebp+20]
  0216b	83 c8 0c	 or	 eax, 12			; 0000000cH
  0216e	88 85 c0 fe ff
	ff		 mov	 BYTE PTR _pCList$[ebp+20], al

; 1132 : 				pCList.CharSet[17] |= 96;

  02174	0f b6 85 cc fe
	ff ff		 movzx	 eax, BYTE PTR _pCList$[ebp+32]
  0217b	83 c8 60	 or	 eax, 96			; 00000060H
  0217e	88 85 cc fe ff
	ff		 mov	 BYTE PTR _pCList$[ebp+32], al

; 1133 : 				break;

  02184	eb 6a		 jmp	 SHORT $LN58@JGPGetChar
$LN35@JGPGetChar:

; 1134 : 			case 133: // Small Wings of Heaven
; 1135 : 				pCList.CharSet[5] |= CS_SET_WING1(3);

  02186	0f b6 85 c0 fe
	ff ff		 movzx	 eax, BYTE PTR _pCList$[ebp+20]
  0218d	83 c8 0c	 or	 eax, 12			; 0000000cH
  02190	88 85 c0 fe ff
	ff		 mov	 BYTE PTR _pCList$[ebp+20], al

; 1136 : 				pCList.CharSet[17] |= 128;

  02196	0f b6 85 cc fe
	ff ff		 movzx	 eax, BYTE PTR _pCList$[ebp+32]
  0219d	0d 80 00 00 00	 or	 eax, 128		; 00000080H
  021a2	88 85 cc fe ff
	ff		 mov	 BYTE PTR _pCList$[ebp+32], al

; 1137 : 				break;

  021a8	eb 46		 jmp	 SHORT $LN58@JGPGetChar
$LN34@JGPGetChar:

; 1138 : 			case 134: // Small Wings of Satan
; 1139 : 				pCList.CharSet[5] |= CS_SET_WING1(3);

  021aa	0f b6 85 c0 fe
	ff ff		 movzx	 eax, BYTE PTR _pCList$[ebp+20]
  021b1	83 c8 0c	 or	 eax, 12			; 0000000cH
  021b4	88 85 c0 fe ff
	ff		 mov	 BYTE PTR _pCList$[ebp+20], al

; 1140 : 				pCList.CharSet[17] |= 160;

  021ba	0f b6 85 cc fe
	ff ff		 movzx	 eax, BYTE PTR _pCList$[ebp+32]
  021c1	0d a0 00 00 00	 or	 eax, 160		; 000000a0H
  021c6	88 85 cc fe ff
	ff		 mov	 BYTE PTR _pCList$[ebp+32], al

; 1141 : 				break;

  021cc	eb 22		 jmp	 SHORT $LN58@JGPGetChar
$LN33@JGPGetChar:

; 1142 : 			case 135: // Small Cloak of Warrior
; 1143 : 				pCList.CharSet[5] |= CS_SET_WING1(3);

  021ce	0f b6 85 c0 fe
	ff ff		 movzx	 eax, BYTE PTR _pCList$[ebp+20]
  021d5	83 c8 0c	 or	 eax, 12			; 0000000cH
  021d8	88 85 c0 fe ff
	ff		 mov	 BYTE PTR _pCList$[ebp+20], al

; 1144 : 				pCList.CharSet[17] |= 192;

  021de	0f b6 85 cc fe
	ff ff		 movzx	 eax, BYTE PTR _pCList$[ebp+32]
  021e5	0d c0 00 00 00	 or	 eax, 192		; 000000c0H
  021ea	88 85 cc fe ff
	ff		 mov	 BYTE PTR _pCList$[ebp+32], al
$LN58@JGPGetChar:

; 1145 : 				break;
; 1146 : 			}
; 1147 : #ifdef NEWWINGS
; 1148 : 			if( IS_NEWWINGS(TempInventory[7]+ITEMGET(12, 0)) )
; 1149 : 			{
; 1150 : 				pCList.CharSet[5]	|= CS_SET_WING1(3);
; 1151 : 				pCList.CharSet[17]	|= (BYTE)(TempInventory[7] - 180 + 1) << 2;
; 1152 : 			}
; 1153 : #endif
; 1154 : #ifdef NEWWINGS_2_5
; 1155 : 			if( IS_NEWWINGS_2_5(TempInventory[7]+ITEMGET(12, 0)) )

  021f0	0f b7 85 a2 fe
	ff ff		 movzx	 eax, WORD PTR _TempInventory$[ebp+14]
  021f7	05 00 18 00 00	 add	 eax, 6144		; 00001800H
  021fc	3d ba 18 00 00	 cmp	 eax, 6330		; 000018baH
  02201	7d 0c		 jge	 SHORT $LN89@JGPGetChar
  02203	c7 85 30 fe ff
	ff 00 00 00 00	 mov	 DWORD PTR tv932[ebp], 0
  0220d	eb 1e		 jmp	 SHORT $LN90@JGPGetChar
$LN89@JGPGetChar:
  0220f	0f b7 8d a2 fe
	ff ff		 movzx	 ecx, WORD PTR _TempInventory$[ebp+14]
  02216	81 c1 00 18 00
	00		 add	 ecx, 6144		; 00001800H
  0221c	33 d2		 xor	 edx, edx
  0221e	81 f9 bc 18 00
	00		 cmp	 ecx, 6332		; 000018bcH
  02224	0f 9e c2	 setle	 dl
  02227	89 95 30 fe ff
	ff		 mov	 DWORD PTR tv932[ebp], edx
$LN90@JGPGetChar:
  0222d	83 bd 30 fe ff
	ff 00		 cmp	 DWORD PTR tv932[ebp], 0
  02234	74 31		 je	 SHORT $LN32@JGPGetChar

; 1156 : 			{
; 1157 : 				pCList.CharSet[5]	|= CS_SET_WING1(3);

  02236	0f b6 85 c0 fe
	ff ff		 movzx	 eax, BYTE PTR _pCList$[ebp+20]
  0223d	83 c8 0c	 or	 eax, 12			; 0000000cH
  02240	88 85 c0 fe ff
	ff		 mov	 BYTE PTR _pCList$[ebp+20], al

; 1158 : 				pCList.CharSet[17]	|= (BYTE)(TempInventory[7] - 180 + 1) << 2;

  02246	0f b7 85 a2 fe
	ff ff		 movzx	 eax, WORD PTR _TempInventory$[ebp+14]
  0224d	2d b3 00 00 00	 sub	 eax, 179		; 000000b3H
  02252	0f b6 c8	 movzx	 ecx, al
  02255	c1 e1 02	 shl	 ecx, 2
  02258	0f b6 95 cc fe
	ff ff		 movzx	 edx, BYTE PTR _pCList$[ebp+32]
  0225f	0b d1		 or	 edx, ecx
  02261	88 95 cc fe ff
	ff		 mov	 BYTE PTR _pCList$[ebp+32], dl
$LN32@JGPGetChar:

; 1159 : 			}
; 1160 : #endif
; 1161 : #ifdef NEWWINGS_4
; 1162 : 			if( IS_NEWWINGS_4(TempInventory[7]+ITEMGET(12, 0)) )

  02267	0f b7 85 a2 fe
	ff ff		 movzx	 eax, WORD PTR _TempInventory$[ebp+14]
  0226e	05 00 18 00 00	 add	 eax, 6144		; 00001800H
  02273	3d b4 18 00 00	 cmp	 eax, 6324		; 000018b4H
  02278	7d 0c		 jge	 SHORT $LN91@JGPGetChar
  0227a	c7 85 30 fe ff
	ff 00 00 00 00	 mov	 DWORD PTR tv960[ebp], 0
  02284	eb 1e		 jmp	 SHORT $LN92@JGPGetChar
$LN91@JGPGetChar:
  02286	0f b7 8d a2 fe
	ff ff		 movzx	 ecx, WORD PTR _TempInventory$[ebp+14]
  0228d	81 c1 00 18 00
	00		 add	 ecx, 6144		; 00001800H
  02293	33 d2		 xor	 edx, edx
  02295	81 f9 b9 18 00
	00		 cmp	 ecx, 6329		; 000018b9H
  0229b	0f 9e c2	 setle	 dl
  0229e	89 95 30 fe ff
	ff		 mov	 DWORD PTR tv960[ebp], edx
$LN92@JGPGetChar:
  022a4	83 bd 30 fe ff
	ff 00		 cmp	 DWORD PTR tv960[ebp], 0
  022ab	74 31		 je	 SHORT $LN31@JGPGetChar

; 1163 : 			{
; 1164 : 				pCList.CharSet[5]	|= CS_SET_WING1(3);

  022ad	0f b6 85 c0 fe
	ff ff		 movzx	 eax, BYTE PTR _pCList$[ebp+20]
  022b4	83 c8 0c	 or	 eax, 12			; 0000000cH
  022b7	88 85 c0 fe ff
	ff		 mov	 BYTE PTR _pCList$[ebp+20], al

; 1165 : 				pCList.CharSet[17]	|= (BYTE)(TempInventory[7] - 180 + 1) << 2;

  022bd	0f b7 85 a2 fe
	ff ff		 movzx	 eax, WORD PTR _TempInventory$[ebp+14]
  022c4	2d b3 00 00 00	 sub	 eax, 179		; 000000b3H
  022c9	0f b6 c8	 movzx	 ecx, al
  022cc	c1 e1 02	 shl	 ecx, 2
  022cf	0f b6 95 cc fe
	ff ff		 movzx	 edx, BYTE PTR _pCList$[ebp+32]
  022d6	0b d1		 or	 edx, ecx
  022d8	88 95 cc fe ff
	ff		 mov	 BYTE PTR _pCList$[ebp+32], dl
$LN31@JGPGetChar:

; 1166 : 			}
; 1167 : #endif
; 1168 : #ifdef NEWWINGS_5
; 1169 : 			if( IS_NEWWINGS_5(TempInventory[7]+ITEMGET(12, 0)) )

  022de	0f b7 85 a2 fe
	ff ff		 movzx	 eax, WORD PTR _TempInventory$[ebp+14]
  022e5	05 00 18 00 00	 add	 eax, 6144		; 00001800H
  022ea	3d bd 18 00 00	 cmp	 eax, 6333		; 000018bdH
  022ef	7d 0c		 jge	 SHORT $LN93@JGPGetChar
  022f1	c7 85 30 fe ff
	ff 00 00 00 00	 mov	 DWORD PTR tv988[ebp], 0
  022fb	eb 1e		 jmp	 SHORT $LN94@JGPGetChar
$LN93@JGPGetChar:
  022fd	0f b7 8d a2 fe
	ff ff		 movzx	 ecx, WORD PTR _TempInventory$[ebp+14]
  02304	81 c1 00 18 00
	00		 add	 ecx, 6144		; 00001800H
  0230a	33 d2		 xor	 edx, edx
  0230c	81 f9 c2 18 00
	00		 cmp	 ecx, 6338		; 000018c2H
  02312	0f 9e c2	 setle	 dl
  02315	89 95 30 fe ff
	ff		 mov	 DWORD PTR tv988[ebp], edx
$LN94@JGPGetChar:
  0231b	83 bd 30 fe ff
	ff 00		 cmp	 DWORD PTR tv988[ebp], 0
  02322	74 31		 je	 SHORT $LN30@JGPGetChar

; 1170 : 			{
; 1171 : 				pCList.CharSet[5]	|= CS_SET_WING1(3);

  02324	0f b6 85 c0 fe
	ff ff		 movzx	 eax, BYTE PTR _pCList$[ebp+20]
  0232b	83 c8 0c	 or	 eax, 12			; 0000000cH
  0232e	88 85 c0 fe ff
	ff		 mov	 BYTE PTR _pCList$[ebp+20], al

; 1172 : 				pCList.CharSet[17]	|= (BYTE)(TempInventory[7] - 180 + 1) << 2;

  02334	0f b7 85 a2 fe
	ff ff		 movzx	 eax, WORD PTR _TempInventory$[ebp+14]
  0233b	2d b3 00 00 00	 sub	 eax, 179		; 000000b3H
  02340	0f b6 c8	 movzx	 ecx, al
  02343	c1 e1 02	 shl	 ecx, 2
  02346	0f b6 95 cc fe
	ff ff		 movzx	 edx, BYTE PTR _pCList$[ebp+32]
  0234d	0b d1		 or	 edx, ecx
  0234f	88 95 cc fe ff
	ff		 mov	 BYTE PTR _pCList$[ebp+32], dl
$LN30@JGPGetChar:

; 1173 : 			}
; 1174 : #endif
; 1175 : #ifdef NEWWINGS_6
; 1176 : 			if( IS_NEWWINGS_6(TempInventory[7]+ITEMGET(12, 0)) )

  02355	0f b7 85 a2 fe
	ff ff		 movzx	 eax, WORD PTR _TempInventory$[ebp+14]
  0235c	05 00 18 00 00	 add	 eax, 6144		; 00001800H
  02361	3d c3 18 00 00	 cmp	 eax, 6339		; 000018c3H
  02366	7d 0c		 jge	 SHORT $LN95@JGPGetChar
  02368	c7 85 30 fe ff
	ff 00 00 00 00	 mov	 DWORD PTR tv1016[ebp], 0
  02372	eb 1e		 jmp	 SHORT $LN96@JGPGetChar
$LN95@JGPGetChar:
  02374	0f b7 8d a2 fe
	ff ff		 movzx	 ecx, WORD PTR _TempInventory$[ebp+14]
  0237b	81 c1 00 18 00
	00		 add	 ecx, 6144		; 00001800H
  02381	33 d2		 xor	 edx, edx
  02383	81 f9 dc 18 00
	00		 cmp	 ecx, 6364		; 000018dcH
  02389	0f 9e c2	 setle	 dl
  0238c	89 95 30 fe ff
	ff		 mov	 DWORD PTR tv1016[ebp], edx
$LN96@JGPGetChar:
  02392	83 bd 30 fe ff
	ff 00		 cmp	 DWORD PTR tv1016[ebp], 0
  02399	74 31		 je	 SHORT $LN29@JGPGetChar

; 1177 : 			{
; 1178 : 				//if(g_ExLicense.CheckUser(eExUB::PrideMuLocal || eExUB::PrideMu || eExUB::Local3 || eExUB::Local2)){
; 1179 : 			
; 1180 : 				pCList.CharSet[5]	|= CS_SET_WING1(3);

  0239b	0f b6 85 c0 fe
	ff ff		 movzx	 eax, BYTE PTR _pCList$[ebp+20]
  023a2	83 c8 0c	 or	 eax, 12			; 0000000cH
  023a5	88 85 c0 fe ff
	ff		 mov	 BYTE PTR _pCList$[ebp+20], al

; 1181 : 				pCList.CharSet[17]	|= (BYTE)(TempInventory[7] - 180 + 1) << 2;

  023ab	0f b7 85 a2 fe
	ff ff		 movzx	 eax, WORD PTR _TempInventory$[ebp+14]
  023b2	2d b3 00 00 00	 sub	 eax, 179		; 000000b3H
  023b7	0f b6 c8	 movzx	 ecx, al
  023ba	c1 e1 02	 shl	 ecx, 2
  023bd	0f b6 95 cc fe
	ff ff		 movzx	 edx, BYTE PTR _pCList$[ebp+32]
  023c4	0b d1		 or	 edx, ecx
  023c6	88 95 cc fe ff
	ff		 mov	 BYTE PTR _pCList$[ebp+32], dl
$LN29@JGPGetChar:

; 1182 : 				//}
; 1183 : 			}
; 1184 : #endif
; 1185 : 			// Pets Set
; 1186 : 			switch (TempInventory[8])

  023cc	0f b7 85 a4 fe
	ff ff		 movzx	 eax, WORD PTR _TempInventory$[ebp+16]
  023d3	89 85 30 fe ff
	ff		 mov	 DWORD PTR tv1037[ebp], eax
  023d9	83 bd 30 fe ff
	ff 43		 cmp	 DWORD PTR tv1037[ebp], 67 ; 00000043H
  023e0	7f 3d		 jg	 SHORT $LN97@JGPGetChar
  023e2	83 bd 30 fe ff
	ff 43		 cmp	 DWORD PTR tv1037[ebp], 67 ; 00000043H
  023e9	0f 84 0a 01 00
	00		 je	 $LN21@JGPGetChar
  023ef	8b 8d 30 fe ff
	ff		 mov	 ecx, DWORD PTR tv1037[ebp]
  023f5	83 e9 03	 sub	 ecx, 3
  023f8	89 8d 30 fe ff
	ff		 mov	 DWORD PTR tv1037[ebp], ecx
  023fe	83 bd 30 fe ff
	ff 3e		 cmp	 DWORD PTR tv1037[ebp], 62 ; 0000003eH
  02405	0f 87 f7 01 00
	00		 ja	 $LN13@JGPGetChar
  0240b	8b 95 30 fe ff
	ff		 mov	 edx, DWORD PTR tv1037[ebp]
  02411	0f b6 82 00 00
	00 00		 movzx	 eax, BYTE PTR $LN100@JGPGetChar[edx]
  02418	ff 24 85 00 00
	00 00		 jmp	 DWORD PTR $LN111@JGPGetChar[eax*4]
$LN97@JGPGetChar:
  0241f	83 bd 30 fe ff
	ff 7b		 cmp	 DWORD PTR tv1037[ebp], 123 ; 0000007bH
  02426	7f 2c		 jg	 SHORT $LN98@JGPGetChar
  02428	83 bd 30 fe ff
	ff 7b		 cmp	 DWORD PTR tv1037[ebp], 123 ; 0000007bH
  0242f	0f 84 98 00 00
	00		 je	 $LN23@JGPGetChar
  02435	83 bd 30 fe ff
	ff 50		 cmp	 DWORD PTR tv1037[ebp], 80 ; 00000050H
  0243c	0f 84 a0 00 00
	00		 je	 $LN22@JGPGetChar
  02442	83 bd 30 fe ff
	ff 6a		 cmp	 DWORD PTR tv1037[ebp], 106 ; 0000006aH
  02449	0f 84 eb 00 00
	00		 je	 $LN18@JGPGetChar
  0244f	e9 ae 01 00 00	 jmp	 $LN13@JGPGetChar
$LN98@JGPGetChar:
  02454	81 bd 30 fe ff
	ff ff 01 00 00	 cmp	 DWORD PTR tv1037[ebp], 511 ; 000001ffH
  0245e	74 05		 je	 SHORT $LN26@JGPGetChar
  02460	e9 9d 01 00 00	 jmp	 $LN13@JGPGetChar
$LN26@JGPGetChar:

; 1187 : 			{
; 1188 : 			case 0x1FF:
; 1189 : 				index |= 0x03;

  02465	0f b6 85 db fe
	ff ff		 movzx	 eax, BYTE PTR _index$[ebp]
  0246c	83 c8 03	 or	 eax, 3
  0246f	88 85 db fe ff
	ff		 mov	 BYTE PTR _index$[ebp], al

; 1190 : 				break;

  02475	e9 e7 01 00 00	 jmp	 $LN27@JGPGetChar
$LN25@JGPGetChar:

; 1191 : 			case 4: // Dark Horse
; 1192 : 				index |= CS_SET_HELPER(-1);

  0247a	0f b6 85 db fe
	ff ff		 movzx	 eax, BYTE PTR _index$[ebp]
  02481	83 c8 03	 or	 eax, 3
  02484	88 85 db fe ff
	ff		 mov	 BYTE PTR _index$[ebp], al

; 1193 : 				pCList.CharSet[12] |= 0x01;

  0248a	0f b6 85 c7 fe
	ff ff		 movzx	 eax, BYTE PTR _pCList$[ebp+27]
  02491	83 c8 01	 or	 eax, 1
  02494	88 85 c7 fe ff
	ff		 mov	 BYTE PTR _pCList$[ebp+27], al

; 1194 : 				break;

  0249a	e9 c2 01 00 00	 jmp	 $LN27@JGPGetChar
$LN24@JGPGetChar:

; 1195 : 			case 3: // Dinorant
; 1196 : 				pCList.CharSet[10] |= 0x01;

  0249f	0f b6 85 c5 fe
	ff ff		 movzx	 eax, BYTE PTR _pCList$[ebp+25]
  024a6	83 c8 01	 or	 eax, 1
  024a9	88 85 c5 fe ff
	ff		 mov	 BYTE PTR _pCList$[ebp+25], al

; 1197 : 				index |= (TempInventory[8] ) & 0x03;

  024af	0f b7 85 a4 fe
	ff ff		 movzx	 eax, WORD PTR _TempInventory$[ebp+16]
  024b6	83 e0 03	 and	 eax, 3
  024b9	0f b6 8d db fe
	ff ff		 movzx	 ecx, BYTE PTR _index$[ebp]
  024c0	0b c8		 or	 ecx, eax
  024c2	88 8d db fe ff
	ff		 mov	 BYTE PTR _index$[ebp], cl

; 1198 : 				break;

  024c8	e9 94 01 00 00	 jmp	 $LN27@JGPGetChar
$LN23@JGPGetChar:

; 1199 : 			case 123: // Skeleton Pet
; 1200 : 				pCList.CharSet[16] |= 96;

  024cd	0f b6 85 cb fe
	ff ff		 movzx	 eax, BYTE PTR _pCList$[ebp+31]
  024d4	83 c8 60	 or	 eax, 96			; 00000060H
  024d7	88 85 cb fe ff
	ff		 mov	 BYTE PTR _pCList$[ebp+31], al

; 1201 : 				break;

  024dd	e9 7f 01 00 00	 jmp	 $LN27@JGPGetChar
$LN22@JGPGetChar:

; 1202 : 			case 80: // Panda Pet
; 1203 : 				pCList.CharSet[16] |= 224;

  024e2	0f b6 85 cb fe
	ff ff		 movzx	 eax, BYTE PTR _pCList$[ebp+31]
  024e9	0d e0 00 00 00	 or	 eax, 224		; 000000e0H
  024ee	88 85 cb fe ff
	ff		 mov	 BYTE PTR _pCList$[ebp+31], al

; 1204 : 				break;

  024f4	e9 68 01 00 00	 jmp	 $LN27@JGPGetChar
$LN21@JGPGetChar:

; 1205 : 			case 67: // Rudolf Pet
; 1206 : 				pCList.CharSet[16] |= 0x80;

  024f9	0f b6 85 cb fe
	ff ff		 movzx	 eax, BYTE PTR _pCList$[ebp+31]
  02500	0d 80 00 00 00	 or	 eax, 128		; 00000080H
  02505	88 85 cb fe ff
	ff		 mov	 BYTE PTR _pCList$[ebp+31], al

; 1207 : 				break;

  0250b	e9 51 01 00 00	 jmp	 $LN27@JGPGetChar
$LN20@JGPGetChar:

; 1208 : 			case 64: // Demon Pet
; 1209 : 				pCList.CharSet[16] |= 0x20;

  02510	0f b6 85 cb fe
	ff ff		 movzx	 eax, BYTE PTR _pCList$[ebp+31]
  02517	83 c8 20	 or	 eax, 32			; 00000020H
  0251a	88 85 cb fe ff
	ff		 mov	 BYTE PTR _pCList$[ebp+31], al

; 1210 : 				break;

  02520	e9 3c 01 00 00	 jmp	 $LN27@JGPGetChar
$LN19@JGPGetChar:

; 1211 : 			case 65: // Spirit of Guardian Pet
; 1212 : 				pCList.CharSet[16] |= 0x40;

  02525	0f b6 85 cb fe
	ff ff		 movzx	 eax, BYTE PTR _pCList$[ebp+31]
  0252c	83 c8 40	 or	 eax, 64			; 00000040H
  0252f	88 85 cb fe ff
	ff		 mov	 BYTE PTR _pCList$[ebp+31], al

; 1213 : 				break;

  02535	e9 27 01 00 00	 jmp	 $LN27@JGPGetChar
$LN18@JGPGetChar:

; 1214 : 			case 106:	//JPN Unicorn
; 1215 : 				pCList.CharSet[16] |= 0xA0;

  0253a	0f b6 85 cb fe
	ff ff		 movzx	 eax, BYTE PTR _pCList$[ebp+31]
  02541	0d a0 00 00 00	 or	 eax, 160		; 000000a0H
  02546	88 85 cb fe ff
	ff		 mov	 BYTE PTR _pCList$[ebp+31], al

; 1216 : 				break;

  0254c	e9 10 01 00 00	 jmp	 $LN27@JGPGetChar
$LN17@JGPGetChar:

; 1217 : 			case 37:
; 1218 : 				index |= CS_SET_HELPER(-1);

  02551	0f b6 85 db fe
	ff ff		 movzx	 eax, BYTE PTR _index$[ebp]
  02558	83 c8 03	 or	 eax, 3
  0255b	88 85 db fe ff
	ff		 mov	 BYTE PTR _index$[ebp], al

; 1219 : 				pCList.CharSet[10] &= 0xFE;

  02561	0f b6 85 c5 fe
	ff ff		 movzx	 eax, BYTE PTR _pCList$[ebp+25]
  02568	25 fe 00 00 00	 and	 eax, 254		; 000000feH
  0256d	88 85 c5 fe ff
	ff		 mov	 BYTE PTR _pCList$[ebp+25], al

; 1220 : 				pCList.CharSet[12] &= 0xFE;

  02573	0f b6 85 c7 fe
	ff ff		 movzx	 eax, BYTE PTR _pCList$[ebp+27]
  0257a	25 fe 00 00 00	 and	 eax, 254		; 000000feH
  0257f	88 85 c7 fe ff
	ff		 mov	 BYTE PTR _pCList$[ebp+27], al

; 1221 : 				pCList.CharSet[12] |= 0x04;

  02585	0f b6 85 c7 fe
	ff ff		 movzx	 eax, BYTE PTR _pCList$[ebp+27]
  0258c	83 c8 04	 or	 eax, 4
  0258f	88 85 c7 fe ff
	ff		 mov	 BYTE PTR _pCList$[ebp+27], al

; 1222 : 				pCList.CharSet[16] = 0;

  02595	c6 85 cb fe ff
	ff 00		 mov	 BYTE PTR _pCList$[ebp+31], 0

; 1223 : 				btExcellentOption = lpCL->dbInventory[34] & 0x3F;

  0259c	8b 45 f4	 mov	 eax, DWORD PTR _lpCL$[ebp]
  0259f	0f b6 48 32	 movzx	 ecx, BYTE PTR [eax+50]
  025a3	83 e1 3f	 and	 ecx, 63			; 0000003fH
  025a6	88 8d 93 fe ff
	ff		 mov	 BYTE PTR _btExcellentOption$[ebp], cl

; 1224 : 
; 1225 : 				if ( (btExcellentOption&1) == 1 ) // Red Fenrir

  025ac	0f b6 85 93 fe
	ff ff		 movzx	 eax, BYTE PTR _btExcellentOption$[ebp]
  025b3	83 e0 01	 and	 eax, 1
  025b6	74 10		 je	 SHORT $LN16@JGPGetChar

; 1226 : 				{
; 1227 : 					pCList.CharSet[16] |= 0x01;

  025b8	0f b6 85 cb fe
	ff ff		 movzx	 eax, BYTE PTR _pCList$[ebp+31]
  025bf	83 c8 01	 or	 eax, 1
  025c2	88 85 cb fe ff
	ff		 mov	 BYTE PTR _pCList$[ebp+31], al
$LN16@JGPGetChar:

; 1228 : 				}
; 1229 : 				if ( (btExcellentOption&2) == 2 ) // Blue Fenrir

  025c8	0f b6 85 93 fe
	ff ff		 movzx	 eax, BYTE PTR _btExcellentOption$[ebp]
  025cf	83 e0 02	 and	 eax, 2
  025d2	74 10		 je	 SHORT $LN15@JGPGetChar

; 1230 : 				{
; 1231 : 					pCList.CharSet[16] |= 0x02;

  025d4	0f b6 85 cb fe
	ff ff		 movzx	 eax, BYTE PTR _pCList$[ebp+31]
  025db	83 c8 02	 or	 eax, 2
  025de	88 85 cb fe ff
	ff		 mov	 BYTE PTR _pCList$[ebp+31], al
$LN15@JGPGetChar:

; 1232 : 				}
; 1233 : 				if ( (btExcellentOption&4) == 4 ) // Gold Fenrir 

  025e4	0f b6 85 93 fe
	ff ff		 movzx	 eax, BYTE PTR _btExcellentOption$[ebp]
  025eb	83 e0 04	 and	 eax, 4
  025ee	74 10		 je	 SHORT $LN14@JGPGetChar

; 1234 : 				{
; 1235 : 					pCList.CharSet[17] |= 0x01;

  025f0	0f b6 85 cc fe
	ff ff		 movzx	 eax, BYTE PTR _pCList$[ebp+32]
  025f7	83 c8 01	 or	 eax, 1
  025fa	88 85 cc fe ff
	ff		 mov	 BYTE PTR _pCList$[ebp+32], al
$LN14@JGPGetChar:

; 1236 : 				}
; 1237 : 				break;

  02600	eb 5f		 jmp	 SHORT $LN27@JGPGetChar
$LN13@JGPGetChar:

; 1238 : 			default:
; 1239 : 				#if(ENABLE_PETEX)
; 1240 : 				if(g_PetEx.IsPet(ITEMGET(13, TempInventory[8])))

  02602	0f b7 85 a4 fe
	ff ff		 movzx	 eax, WORD PTR _TempInventory$[ebp+16]
  02609	05 00 1a 00 00	 add	 eax, 6656		; 00001a00H
  0260e	50		 push	 eax
  0260f	b9 00 00 00 00	 mov	 ecx, OFFSET ?g_PetEx@@3VCPetEx@@A ; g_PetEx
  02614	e8 00 00 00 00	 call	 ?IsPet@CPetEx@@QAE_NH@Z	; CPetEx::IsPet
  02619	0f b6 c8	 movzx	 ecx, al
  0261c	85 c9		 test	 ecx, ecx
  0261e	74 28		 je	 SHORT $LN12@JGPGetChar

; 1241 : 				{
; 1242 : 					index |= CS_SET_HELPER(3);

  02620	0f b6 85 db fe
	ff ff		 movzx	 eax, BYTE PTR _index$[ebp]
  02627	83 c8 03	 or	 eax, 3
  0262a	88 85 db fe ff
	ff		 mov	 BYTE PTR _index$[ebp], al

; 1243 : 					pCList.CharSet[16] |= TempInventory[8];

  02630	0f b7 85 a4 fe
	ff ff		 movzx	 eax, WORD PTR _TempInventory$[ebp+16]
  02637	0f b6 8d cb fe
	ff ff		 movzx	 ecx, BYTE PTR _pCList$[ebp+31]
  0263e	0b c8		 or	 ecx, eax
  02640	88 8d cb fe ff
	ff		 mov	 BYTE PTR _pCList$[ebp+31], cl

; 1244 : 					break;

  02646	eb 19		 jmp	 SHORT $LN27@JGPGetChar
$LN12@JGPGetChar:

; 1245 : 				}
; 1246 : 				#endif
; 1247 : 				index |= (TempInventory[8] ) & 0x03;

  02648	0f b7 85 a4 fe
	ff ff		 movzx	 eax, WORD PTR _TempInventory$[ebp+16]
  0264f	83 e0 03	 and	 eax, 3
  02652	0f b6 8d db fe
	ff ff		 movzx	 ecx, BYTE PTR _index$[ebp]
  02659	0b c8		 or	 ecx, eax
  0265b	88 8d db fe ff
	ff		 mov	 BYTE PTR _index$[ebp], cl
$LN27@JGPGetChar:

; 1248 : 				break;
; 1249 : 			}
; 1250 : 
; 1251 : 			pCList.CharSet[5] |= index;

  02661	0f b6 85 db fe
	ff ff		 movzx	 eax, BYTE PTR _index$[ebp]
  02668	0f b6 8d c0 fe
	ff ff		 movzx	 ecx, BYTE PTR _pCList$[ebp+20]
  0266f	0b c8		 or	 ecx, eax
  02671	88 8d c0 fe ff
	ff		 mov	 BYTE PTR _pCList$[ebp+20], cl

; 1252 : 
; 1253 : 			int levelindex = 0;

  02677	c7 85 7c fe ff
	ff 00 00 00 00	 mov	 DWORD PTR _levelindex$245428[ebp], 0

; 1254 : 
; 1255 : 			if ( TempInventory[0] != (WORD)-1 )

  02681	0f b7 85 94 fe
	ff ff		 movzx	 eax, WORD PTR _TempInventory$[ebp]
  02688	3d ff ff 00 00	 cmp	 eax, 65535		; 0000ffffH
  0268d	74 1f		 je	 SHORT $LN11@JGPGetChar

; 1256 : 			{
; 1257 : 				levelindex = LevelSmallConvert(DBI_GET_LEVEL(lpCL->dbInventory[1]));

  0268f	8b 45 f4	 mov	 eax, DWORD PTR _lpCL$[ebp]
  02692	0f b6 48 11	 movzx	 ecx, BYTE PTR [eax+17]
  02696	c1 f9 03	 sar	 ecx, 3
  02699	83 e1 0f	 and	 ecx, 15			; 0000000fH
  0269c	51		 push	 ecx
  0269d	e8 00 00 00 00	 call	 ?LevelSmallConvert@@YAEH@Z ; LevelSmallConvert
  026a2	83 c4 04	 add	 esp, 4
  026a5	0f b6 d0	 movzx	 edx, al
  026a8	89 95 7c fe ff
	ff		 mov	 DWORD PTR _levelindex$245428[ebp], edx
$LN11@JGPGetChar:

; 1258 : 			}
; 1259 : 			if ( TempInventory[1] != (WORD)-1 )

  026ae	0f b7 85 96 fe
	ff ff		 movzx	 eax, WORD PTR _TempInventory$[ebp+2]
  026b5	3d ff ff 00 00	 cmp	 eax, 65535		; 0000ffffH
  026ba	74 28		 je	 SHORT $LN10@JGPGetChar

; 1260 : 			{
; 1261 : 				levelindex |= (int)LevelSmallConvert(DBI_GET_LEVEL(lpCL->dbInventory[5])) << 3;

  026bc	8b 45 f4	 mov	 eax, DWORD PTR _lpCL$[ebp]
  026bf	0f b6 48 15	 movzx	 ecx, BYTE PTR [eax+21]
  026c3	c1 f9 03	 sar	 ecx, 3
  026c6	83 e1 0f	 and	 ecx, 15			; 0000000fH
  026c9	51		 push	 ecx
  026ca	e8 00 00 00 00	 call	 ?LevelSmallConvert@@YAEH@Z ; LevelSmallConvert
  026cf	83 c4 04	 add	 esp, 4
  026d2	0f b6 d0	 movzx	 edx, al
  026d5	c1 e2 03	 shl	 edx, 3
  026d8	0b 95 7c fe ff
	ff		 or	 edx, DWORD PTR _levelindex$245428[ebp]
  026de	89 95 7c fe ff
	ff		 mov	 DWORD PTR _levelindex$245428[ebp], edx
$LN10@JGPGetChar:

; 1262 : 			}
; 1263 : 			if ( TempInventory[2] < 0x1FF )

  026e4	0f b7 85 98 fe
	ff ff		 movzx	 eax, WORD PTR _TempInventory$[ebp+4]
  026eb	3d ff 01 00 00	 cmp	 eax, 511		; 000001ffH
  026f0	7d 28		 jge	 SHORT $LN9@JGPGetChar

; 1264 : 			{
; 1265 : 				levelindex |= (int)LevelSmallConvert(DBI_GET_LEVEL(lpCL->dbInventory[9])) << 6;

  026f2	8b 45 f4	 mov	 eax, DWORD PTR _lpCL$[ebp]
  026f5	0f b6 48 19	 movzx	 ecx, BYTE PTR [eax+25]
  026f9	c1 f9 03	 sar	 ecx, 3
  026fc	83 e1 0f	 and	 ecx, 15			; 0000000fH
  026ff	51		 push	 ecx
  02700	e8 00 00 00 00	 call	 ?LevelSmallConvert@@YAEH@Z ; LevelSmallConvert
  02705	83 c4 04	 add	 esp, 4
  02708	0f b6 d0	 movzx	 edx, al
  0270b	c1 e2 06	 shl	 edx, 6
  0270e	0b 95 7c fe ff
	ff		 or	 edx, DWORD PTR _levelindex$245428[ebp]
  02714	89 95 7c fe ff
	ff		 mov	 DWORD PTR _levelindex$245428[ebp], edx
$LN9@JGPGetChar:

; 1266 : 			}
; 1267 : 			if ( TempInventory[3] < 0x1FF )

  0271a	0f b7 85 9a fe
	ff ff		 movzx	 eax, WORD PTR _TempInventory$[ebp+6]
  02721	3d ff 01 00 00	 cmp	 eax, 511		; 000001ffH
  02726	7d 28		 jge	 SHORT $LN8@JGPGetChar

; 1268 : 			{
; 1269 : 				levelindex |= (int)LevelSmallConvert(DBI_GET_LEVEL(lpCL->dbInventory[13])) << 9;

  02728	8b 45 f4	 mov	 eax, DWORD PTR _lpCL$[ebp]
  0272b	0f b6 48 1d	 movzx	 ecx, BYTE PTR [eax+29]
  0272f	c1 f9 03	 sar	 ecx, 3
  02732	83 e1 0f	 and	 ecx, 15			; 0000000fH
  02735	51		 push	 ecx
  02736	e8 00 00 00 00	 call	 ?LevelSmallConvert@@YAEH@Z ; LevelSmallConvert
  0273b	83 c4 04	 add	 esp, 4
  0273e	0f b6 d0	 movzx	 edx, al
  02741	c1 e2 09	 shl	 edx, 9
  02744	0b 95 7c fe ff
	ff		 or	 edx, DWORD PTR _levelindex$245428[ebp]
  0274a	89 95 7c fe ff
	ff		 mov	 DWORD PTR _levelindex$245428[ebp], edx
$LN8@JGPGetChar:

; 1270 : 			}
; 1271 : 			if ( TempInventory[4] < 0x1FF )

  02750	0f b7 85 9c fe
	ff ff		 movzx	 eax, WORD PTR _TempInventory$[ebp+8]
  02757	3d ff 01 00 00	 cmp	 eax, 511		; 000001ffH
  0275c	7d 28		 jge	 SHORT $LN7@JGPGetChar

; 1272 : 			{
; 1273 : 				levelindex |= (int)LevelSmallConvert(DBI_GET_LEVEL(lpCL->dbInventory[17])) << 12;

  0275e	8b 45 f4	 mov	 eax, DWORD PTR _lpCL$[ebp]
  02761	0f b6 48 21	 movzx	 ecx, BYTE PTR [eax+33]
  02765	c1 f9 03	 sar	 ecx, 3
  02768	83 e1 0f	 and	 ecx, 15			; 0000000fH
  0276b	51		 push	 ecx
  0276c	e8 00 00 00 00	 call	 ?LevelSmallConvert@@YAEH@Z ; LevelSmallConvert
  02771	83 c4 04	 add	 esp, 4
  02774	0f b6 d0	 movzx	 edx, al
  02777	c1 e2 0c	 shl	 edx, 12			; 0000000cH
  0277a	0b 95 7c fe ff
	ff		 or	 edx, DWORD PTR _levelindex$245428[ebp]
  02780	89 95 7c fe ff
	ff		 mov	 DWORD PTR _levelindex$245428[ebp], edx
$LN7@JGPGetChar:

; 1274 : 			}
; 1275 : 			if ( TempInventory[5] < 0x1FF )

  02786	0f b7 85 9e fe
	ff ff		 movzx	 eax, WORD PTR _TempInventory$[ebp+10]
  0278d	3d ff 01 00 00	 cmp	 eax, 511		; 000001ffH
  02792	7d 28		 jge	 SHORT $LN6@JGPGetChar

; 1276 : 			{
; 1277 : 				levelindex |= (int)LevelSmallConvert(DBI_GET_LEVEL(lpCL->dbInventory[21])) << 15;

  02794	8b 45 f4	 mov	 eax, DWORD PTR _lpCL$[ebp]
  02797	0f b6 48 25	 movzx	 ecx, BYTE PTR [eax+37]
  0279b	c1 f9 03	 sar	 ecx, 3
  0279e	83 e1 0f	 and	 ecx, 15			; 0000000fH
  027a1	51		 push	 ecx
  027a2	e8 00 00 00 00	 call	 ?LevelSmallConvert@@YAEH@Z ; LevelSmallConvert
  027a7	83 c4 04	 add	 esp, 4
  027aa	0f b6 d0	 movzx	 edx, al
  027ad	c1 e2 0f	 shl	 edx, 15			; 0000000fH
  027b0	0b 95 7c fe ff
	ff		 or	 edx, DWORD PTR _levelindex$245428[ebp]
  027b6	89 95 7c fe ff
	ff		 mov	 DWORD PTR _levelindex$245428[ebp], edx
$LN6@JGPGetChar:

; 1278 : 			}
; 1279 : 			if ( TempInventory[6] < 0x1FF )

  027bc	0f b7 85 a0 fe
	ff ff		 movzx	 eax, WORD PTR _TempInventory$[ebp+12]
  027c3	3d ff 01 00 00	 cmp	 eax, 511		; 000001ffH
  027c8	7d 28		 jge	 SHORT $LN5@JGPGetChar

; 1280 : 			{
; 1281 : 				levelindex |= (int)LevelSmallConvert(DBI_GET_LEVEL(lpCL->dbInventory[25])) << 18;

  027ca	8b 45 f4	 mov	 eax, DWORD PTR _lpCL$[ebp]
  027cd	0f b6 48 29	 movzx	 ecx, BYTE PTR [eax+41]
  027d1	c1 f9 03	 sar	 ecx, 3
  027d4	83 e1 0f	 and	 ecx, 15			; 0000000fH
  027d7	51		 push	 ecx
  027d8	e8 00 00 00 00	 call	 ?LevelSmallConvert@@YAEH@Z ; LevelSmallConvert
  027dd	83 c4 04	 add	 esp, 4
  027e0	0f b6 d0	 movzx	 edx, al
  027e3	c1 e2 12	 shl	 edx, 18			; 00000012H
  027e6	0b 95 7c fe ff
	ff		 or	 edx, DWORD PTR _levelindex$245428[ebp]
  027ec	89 95 7c fe ff
	ff		 mov	 DWORD PTR _levelindex$245428[ebp], edx
$LN5@JGPGetChar:

; 1282 : 			}
; 1283 : 
; 1284 : 			pCList.CharSet[6] = ((int)levelindex >> 0x10) & 0xFF;

  027f2	8b 85 7c fe ff
	ff		 mov	 eax, DWORD PTR _levelindex$245428[ebp]
  027f8	c1 f8 10	 sar	 eax, 16			; 00000010H
  027fb	25 ff 00 00 00	 and	 eax, 255		; 000000ffH
  02800	88 85 c1 fe ff
	ff		 mov	 BYTE PTR _pCList$[ebp+21], al

; 1285 : 			pCList.CharSet[7] = ((int)levelindex >> 0x08) & 0xFF;

  02806	8b 85 7c fe ff
	ff		 mov	 eax, DWORD PTR _levelindex$245428[ebp]
  0280c	c1 f8 08	 sar	 eax, 8
  0280f	25 ff 00 00 00	 and	 eax, 255		; 000000ffH
  02814	88 85 c2 fe ff
	ff		 mov	 BYTE PTR _pCList$[ebp+22], al

; 1286 : 			pCList.CharSet[8] = ((int)levelindex) & 0xFF;

  0281a	8b 85 7c fe ff
	ff		 mov	 eax, DWORD PTR _levelindex$245428[ebp]
  02820	25 ff 00 00 00	 and	 eax, 255		; 000000ffH
  02825	88 85 c3 fe ff
	ff		 mov	 BYTE PTR _pCList$[ebp+23], al

; 1287 : 
; 1288 : 			memcpy(&sendbuf[lOfs], &pCList, sizeof(pCList));

  0282b	6a 22		 push	 34			; 00000022H
  0282d	8d 85 ac fe ff
	ff		 lea	 eax, DWORD PTR _pCList$[ebp]
  02833	50		 push	 eax
  02834	8b 8d e4 fe ff
	ff		 mov	 ecx, DWORD PTR _lOfs$[ebp]
  0283a	8d 94 0d e8 fe
	ff ff		 lea	 edx, DWORD PTR _sendbuf$[ebp+ecx]
  02841	52		 push	 edx
  02842	e8 00 00 00 00	 call	 _memcpy
  02847	83 c4 0c	 add	 esp, 12			; 0000000cH

; 1289 : 			lsOfs += sizeof(SDHP_CHARLIST);

  0284a	8b 85 e0 fe ff
	ff		 mov	 eax, DWORD PTR _lsOfs$[ebp]
  02850	83 c0 42	 add	 eax, 66			; 00000042H
  02853	89 85 e0 fe ff
	ff		 mov	 DWORD PTR _lsOfs$[ebp], eax

; 1290 : 			lOfs += sizeof(pCList);

  02859	8b 85 e4 fe ff
	ff		 mov	 eax, DWORD PTR _lOfs$[ebp]
  0285f	83 c0 22	 add	 eax, 34			; 00000022H
  02862	89 85 e4 fe ff
	ff		 mov	 DWORD PTR _lOfs$[ebp], eax

; 1291 : 		}

  02868	e9 e8 ed ff ff	 jmp	 $LN82@JGPGetChar
$LN84@JGPGetChar:

; 1292 : 		// ----
; 1293 : 	}
; 1294 : 
; 1295 : #ifdef CHARCREATE_TEMP
; 1296 : 		if( HightLevel >= ExConfig.ExCustom.CreateSUMLevel )  //gCreateSUMLevel

  0286d	0f bf 05 12 00
	00 00		 movsx	 eax, WORD PTR ?ExConfig@@3VcExConfigs@@A+18
  02874	39 85 8c fe ff
	ff		 cmp	 DWORD PTR _HightLevel$[ebp], eax
  0287a	7c 10		 jl	 SHORT $LN4@JGPGetChar

; 1297 : 		{
; 1298 : 			GenerableClass += 1;

  0287c	0f b6 85 8b fe
	ff ff		 movzx	 eax, BYTE PTR _GenerableClass$[ebp]
  02883	83 c0 01	 add	 eax, 1
  02886	88 85 8b fe ff
	ff		 mov	 BYTE PTR _GenerableClass$[ebp], al
$LN4@JGPGetChar:

; 1299 : 		}
; 1300 : 		// ----
; 1301 : 		if( HightLevel >= ExConfig.ExCustom.CreateMONKLevel ) //gCreateMONKLevel

  0288c	0f bf 05 14 00
	00 00		 movsx	 eax, WORD PTR ?ExConfig@@3VcExConfigs@@A+20
  02893	39 85 8c fe ff
	ff		 cmp	 DWORD PTR _HightLevel$[ebp], eax
  02899	7c 10		 jl	 SHORT $LN3@JGPGetChar

; 1302 : 		{
; 1303 : 			GenerableClass += 8;

  0289b	0f b6 85 8b fe
	ff ff		 movzx	 eax, BYTE PTR _GenerableClass$[ebp]
  028a2	83 c0 08	 add	 eax, 8
  028a5	88 85 8b fe ff
	ff		 mov	 BYTE PTR _GenerableClass$[ebp], al
$LN3@JGPGetChar:

; 1304 : 		}
; 1305 : 		// ----
; 1306 : 		if( HightLevel >= ExConfig.ExCustom.CreateMGLevel )	  //gCreateMGLevel

  028ab	0f bf 05 0e 00
	00 00		 movsx	 eax, WORD PTR ?ExConfig@@3VcExConfigs@@A+14
  028b2	39 85 8c fe ff
	ff		 cmp	 DWORD PTR _HightLevel$[ebp], eax
  028b8	7c 27		 jl	 SHORT $LN2@JGPGetChar

; 1307 : 		{
; 1308 : 			GenerableClass += 4;

  028ba	0f b6 85 8b fe
	ff ff		 movzx	 eax, BYTE PTR _GenerableClass$[ebp]
  028c1	83 c0 04	 add	 eax, 4
  028c4	88 85 8b fe ff
	ff		 mov	 BYTE PTR _GenerableClass$[ebp], al

; 1309 : 			gObj[aIndex].Magumsa = 1;

  028ca	8b 85 dc fe ff
	ff		 mov	 eax, DWORD PTR _aIndex$[ebp]
  028d0	69 c0 38 2b 00
	00		 imul	 eax, 11064		; 00002b38H
  028d6	8b 0d 00 00 00
	00		 mov	 ecx, DWORD PTR ?gObj@@3PAUOBJECTSTRUCT@@A ; gObj
  028dc	c6 44 01 34 01	 mov	 BYTE PTR [ecx+eax+52], 1
$LN2@JGPGetChar:

; 1310 : 		}
; 1311 : 		// ----
; 1312 : 		if( HightLevel >= ExConfig.ExCustom.CreateDLLevel )	  //gCreateDLLevel

  028e1	0f bf 05 10 00
	00 00		 movsx	 eax, WORD PTR ?ExConfig@@3VcExConfigs@@A+16
  028e8	39 85 8c fe ff
	ff		 cmp	 DWORD PTR _HightLevel$[ebp], eax
  028ee	7c 27		 jl	 SHORT $LN1@JGPGetChar

; 1313 : 		{
; 1314 : 			GenerableClass += 2;

  028f0	0f b6 85 8b fe
	ff ff		 movzx	 eax, BYTE PTR _GenerableClass$[ebp]
  028f7	83 c0 02	 add	 eax, 2
  028fa	88 85 8b fe ff
	ff		 mov	 BYTE PTR _GenerableClass$[ebp], al

; 1315 : 			gObj[aIndex].Magumsa = 2;

  02900	8b 85 dc fe ff
	ff		 mov	 eax, DWORD PTR _aIndex$[ebp]
  02906	69 c0 38 2b 00
	00		 imul	 eax, 11064		; 00002b38H
  0290c	8b 0d 00 00 00
	00		 mov	 ecx, DWORD PTR ?gObj@@3PAUOBJECTSTRUCT@@A ; gObj
  02912	c6 44 01 34 02	 mov	 BYTE PTR [ecx+eax+52], 2
$LN1@JGPGetChar:

; 1316 : 		}
; 1317 : 		// ----
; 1318 : 		PMSG_UPD_SUMMONER_CREATE pMsg;
; 1319 : 		pMsg.h.set((LPBYTE)&pMsg, 0xDE, sizeof(pMsg));

  02917	6a 05		 push	 5
  02919	68 de 00 00 00	 push	 222			; 000000deH
  0291e	8d 85 74 fe ff
	ff		 lea	 eax, DWORD PTR _pMsg$[ebp]
  02924	50		 push	 eax
  02925	8d 8d 74 fe ff
	ff		 lea	 ecx, DWORD PTR _pMsg$[ebp]
  0292b	e8 00 00 00 00	 call	 ?set@PBMSG_HEAD@@QAEXPAEEE@Z ; PBMSG_HEAD::set

; 1320 : 		pMsg.btResult = 0;

  02930	c6 85 77 fe ff
	ff 00		 mov	 BYTE PTR _pMsg$[ebp+3], 0

; 1321 : 		pMsg.IsSummonerEnable = GenerableClass;

  02937	8a 85 8b fe ff
	ff		 mov	 al, BYTE PTR _GenerableClass$[ebp]
  0293d	88 85 78 fe ff
	ff		 mov	 BYTE PTR _pMsg$[ebp+4], al

; 1322 : 		// ----
; 1323 : 		DataSend(aIndex, (LPBYTE)&pMsg, sizeof(pMsg));

  02943	6a 05		 push	 5
  02945	8d 85 74 fe ff
	ff		 lea	 eax, DWORD PTR _pMsg$[ebp]
  0294b	50		 push	 eax
  0294c	8b 8d dc fe ff
	ff		 mov	 ecx, DWORD PTR _aIndex$[ebp]
  02952	51		 push	 ecx
  02953	e8 00 00 00 00	 call	 ?DataSend@@YAHHPAEK@Z	; DataSend
  02958	83 c4 0c	 add	 esp, 12			; 0000000cH

; 1324 : #endif
; 1325 : 
; 1326 : 	pCLCount.h.size = lOfs;

  0295b	8a 85 e4 fe ff
	ff		 mov	 al, BYTE PTR _lOfs$[ebp]
  02961	88 85 d1 fe ff
	ff		 mov	 BYTE PTR _pCLCount$[ebp+1], al

; 1327 : 	memcpy(sendbuf, &pCLCount, sizeof(PMSG_CHARLISTCOUNT));	

  02967	6a 08		 push	 8
  02969	8d 85 d0 fe ff
	ff		 lea	 eax, DWORD PTR _pCLCount$[ebp]
  0296f	50		 push	 eax
  02970	8d 8d e8 fe ff
	ff		 lea	 ecx, DWORD PTR _sendbuf$[ebp]
  02976	51		 push	 ecx
  02977	e8 00 00 00 00	 call	 _memcpy
  0297c	83 c4 0c	 add	 esp, 12			; 0000000cH

; 1328 : 
; 1329 : 	DataSend(aIndex, sendbuf, lOfs);

  0297f	8b 85 e4 fe ff
	ff		 mov	 eax, DWORD PTR _lOfs$[ebp]
  02985	50		 push	 eax
  02986	8d 8d e8 fe ff
	ff		 lea	 ecx, DWORD PTR _sendbuf$[ebp]
  0298c	51		 push	 ecx
  0298d	8b 95 dc fe ff
	ff		 mov	 edx, DWORD PTR _aIndex$[ebp]
  02993	52		 push	 edx
  02994	e8 00 00 00 00	 call	 ?DataSend@@YAHHPAEK@Z	; DataSend
  02999	83 c4 0c	 add	 esp, 12			; 0000000cH
$LN86@JGPGetChar:

; 1330 : 
; 1331 : 	//g_ExUser.GCDataClient(aIndex);
; 1332 : #if(SYSTEM_ACHIEVEMENTS)
; 1333 : 	//g_Achievements.GCSettingsData(aIndex);
; 1334 : #endif
; 1335 : }

  0299c	5f		 pop	 edi
  0299d	5e		 pop	 esi
  0299e	5b		 pop	 ebx
  0299f	8b 4d fc	 mov	 ecx, DWORD PTR __$ArrayPad$[ebp]
  029a2	33 cd		 xor	 ecx, ebp
  029a4	e8 00 00 00 00	 call	 @__security_check_cookie@4
  029a9	8b e5		 mov	 esp, ebp
  029ab	5d		 pop	 ebp
  029ac	c3		 ret	 0
  029ad	8d 49 00	 npad	 3
$LN110@JGPGetChar:
  029b0	00 00 00 00	 DD	 $LN56@JGPGetChar
  029b4	00 00 00 00	 DD	 $LN55@JGPGetChar
  029b8	00 00 00 00	 DD	 $LN54@JGPGetChar
  029bc	00 00 00 00	 DD	 $LN52@JGPGetChar
  029c0	00 00 00 00	 DD	 $LN51@JGPGetChar
  029c4	00 00 00 00	 DD	 $LN50@JGPGetChar
  029c8	00 00 00 00	 DD	 $LN49@JGPGetChar
  029cc	00 00 00 00	 DD	 $LN48@JGPGetChar
  029d0	00 00 00 00	 DD	 $LN45@JGPGetChar
  029d4	00 00 00 00	 DD	 $LN44@JGPGetChar
  029d8	00 00 00 00	 DD	 $LN43@JGPGetChar
  029dc	00 00 00 00	 DD	 $LN42@JGPGetChar
  029e0	00 00 00 00	 DD	 $LN41@JGPGetChar
  029e4	00 00 00 00	 DD	 $LN53@JGPGetChar
  029e8	00 00 00 00	 DD	 $LN47@JGPGetChar
  029ec	00 00 00 00	 DD	 $LN40@JGPGetChar
  029f0	00 00 00 00	 DD	 $LN46@JGPGetChar
  029f4	00 00 00 00	 DD	 $LN39@JGPGetChar
  029f8	00 00 00 00	 DD	 $LN38@JGPGetChar
  029fc	00 00 00 00	 DD	 $LN37@JGPGetChar
  02a00	00 00 00 00	 DD	 $LN36@JGPGetChar
  02a04	00 00 00 00	 DD	 $LN35@JGPGetChar
  02a08	00 00 00 00	 DD	 $LN34@JGPGetChar
  02a0c	00 00 00 00	 DD	 $LN33@JGPGetChar
  02a10	00 00 00 00	 DD	 $LN58@JGPGetChar
$LN99@JGPGetChar:
  02a14	00		 DB	 0
  02a15	01		 DB	 1
  02a16	02		 DB	 2
  02a17	03		 DB	 3
  02a18	04		 DB	 4
  02a19	05		 DB	 5
  02a1a	06		 DB	 6
  02a1b	18		 DB	 24			; 00000018H
  02a1c	18		 DB	 24			; 00000018H
  02a1d	18		 DB	 24			; 00000018H
  02a1e	18		 DB	 24			; 00000018H
  02a1f	18		 DB	 24			; 00000018H
  02a20	18		 DB	 24			; 00000018H
  02a21	18		 DB	 24			; 00000018H
  02a22	18		 DB	 24			; 00000018H
  02a23	18		 DB	 24			; 00000018H
  02a24	18		 DB	 24			; 00000018H
  02a25	18		 DB	 24			; 00000018H
  02a26	18		 DB	 24			; 00000018H
  02a27	18		 DB	 24			; 00000018H
  02a28	18		 DB	 24			; 00000018H
  02a29	18		 DB	 24			; 00000018H
  02a2a	18		 DB	 24			; 00000018H
  02a2b	18		 DB	 24			; 00000018H
  02a2c	18		 DB	 24			; 00000018H
  02a2d	18		 DB	 24			; 00000018H
  02a2e	18		 DB	 24			; 00000018H
  02a2f	18		 DB	 24			; 00000018H
  02a30	18		 DB	 24			; 00000018H
  02a31	18		 DB	 24			; 00000018H
  02a32	07		 DB	 7
  02a33	18		 DB	 24			; 00000018H
  02a34	18		 DB	 24			; 00000018H
  02a35	18		 DB	 24			; 00000018H
  02a36	18		 DB	 24			; 00000018H
  02a37	18		 DB	 24			; 00000018H
  02a38	08		 DB	 8
  02a39	09		 DB	 9
  02a3a	0a		 DB	 10			; 0000000aH
  02a3b	0b		 DB	 11			; 0000000bH
  02a3c	0c		 DB	 12			; 0000000cH
  02a3d	0d		 DB	 13			; 0000000dH
  02a3e	0e		 DB	 14			; 0000000eH
  02a3f	0f		 DB	 15			; 0000000fH
  02a40	18		 DB	 24			; 00000018H
  02a41	18		 DB	 24			; 00000018H
  02a42	18		 DB	 24			; 00000018H
  02a43	18		 DB	 24			; 00000018H
  02a44	18		 DB	 24			; 00000018H
  02a45	10		 DB	 16			; 00000010H
  02a46	11		 DB	 17			; 00000011H
  02a47	18		 DB	 24			; 00000018H
  02a48	18		 DB	 24			; 00000018H
  02a49	18		 DB	 24			; 00000018H
  02a4a	18		 DB	 24			; 00000018H
  02a4b	18		 DB	 24			; 00000018H
  02a4c	18		 DB	 24			; 00000018H
  02a4d	18		 DB	 24			; 00000018H
  02a4e	18		 DB	 24			; 00000018H
  02a4f	18		 DB	 24			; 00000018H
  02a50	18		 DB	 24			; 00000018H
  02a51	18		 DB	 24			; 00000018H
  02a52	18		 DB	 24			; 00000018H
  02a53	18		 DB	 24			; 00000018H
  02a54	18		 DB	 24			; 00000018H
  02a55	18		 DB	 24			; 00000018H
  02a56	18		 DB	 24			; 00000018H
  02a57	18		 DB	 24			; 00000018H
  02a58	18		 DB	 24			; 00000018H
  02a59	18		 DB	 24			; 00000018H
  02a5a	18		 DB	 24			; 00000018H
  02a5b	18		 DB	 24			; 00000018H
  02a5c	18		 DB	 24			; 00000018H
  02a5d	18		 DB	 24			; 00000018H
  02a5e	18		 DB	 24			; 00000018H
  02a5f	18		 DB	 24			; 00000018H
  02a60	18		 DB	 24			; 00000018H
  02a61	18		 DB	 24			; 00000018H
  02a62	18		 DB	 24			; 00000018H
  02a63	18		 DB	 24			; 00000018H
  02a64	18		 DB	 24			; 00000018H
  02a65	18		 DB	 24			; 00000018H
  02a66	18		 DB	 24			; 00000018H
  02a67	18		 DB	 24			; 00000018H
  02a68	18		 DB	 24			; 00000018H
  02a69	18		 DB	 24			; 00000018H
  02a6a	18		 DB	 24			; 00000018H
  02a6b	18		 DB	 24			; 00000018H
  02a6c	18		 DB	 24			; 00000018H
  02a6d	18		 DB	 24			; 00000018H
  02a6e	18		 DB	 24			; 00000018H
  02a6f	18		 DB	 24			; 00000018H
  02a70	18		 DB	 24			; 00000018H
  02a71	18		 DB	 24			; 00000018H
  02a72	18		 DB	 24			; 00000018H
  02a73	18		 DB	 24			; 00000018H
  02a74	18		 DB	 24			; 00000018H
  02a75	18		 DB	 24			; 00000018H
  02a76	18		 DB	 24			; 00000018H
  02a77	18		 DB	 24			; 00000018H
  02a78	18		 DB	 24			; 00000018H
  02a79	18		 DB	 24			; 00000018H
  02a7a	18		 DB	 24			; 00000018H
  02a7b	18		 DB	 24			; 00000018H
  02a7c	18		 DB	 24			; 00000018H
  02a7d	18		 DB	 24			; 00000018H
  02a7e	18		 DB	 24			; 00000018H
  02a7f	18		 DB	 24			; 00000018H
  02a80	18		 DB	 24			; 00000018H
  02a81	18		 DB	 24			; 00000018H
  02a82	18		 DB	 24			; 00000018H
  02a83	18		 DB	 24			; 00000018H
  02a84	18		 DB	 24			; 00000018H
  02a85	18		 DB	 24			; 00000018H
  02a86	18		 DB	 24			; 00000018H
  02a87	18		 DB	 24			; 00000018H
  02a88	18		 DB	 24			; 00000018H
  02a89	18		 DB	 24			; 00000018H
  02a8a	18		 DB	 24			; 00000018H
  02a8b	18		 DB	 24			; 00000018H
  02a8c	18		 DB	 24			; 00000018H
  02a8d	18		 DB	 24			; 00000018H
  02a8e	18		 DB	 24			; 00000018H
  02a8f	18		 DB	 24			; 00000018H
  02a90	18		 DB	 24			; 00000018H
  02a91	18		 DB	 24			; 00000018H
  02a92	18		 DB	 24			; 00000018H
  02a93	18		 DB	 24			; 00000018H
  02a94	18		 DB	 24			; 00000018H
  02a95	18		 DB	 24			; 00000018H
  02a96	12		 DB	 18			; 00000012H
  02a97	13		 DB	 19			; 00000013H
  02a98	14		 DB	 20			; 00000014H
  02a99	15		 DB	 21			; 00000015H
  02a9a	16		 DB	 22			; 00000016H
  02a9b	17		 DB	 23			; 00000017H
$LN111@JGPGetChar:
  02a9c	00 00 00 00	 DD	 $LN24@JGPGetChar
  02aa0	00 00 00 00	 DD	 $LN25@JGPGetChar
  02aa4	00 00 00 00	 DD	 $LN17@JGPGetChar
  02aa8	00 00 00 00	 DD	 $LN20@JGPGetChar
  02aac	00 00 00 00	 DD	 $LN19@JGPGetChar
  02ab0	00 00 00 00	 DD	 $LN13@JGPGetChar
$LN100@JGPGetChar:
  02ab4	00		 DB	 0
  02ab5	01		 DB	 1
  02ab6	05		 DB	 5
  02ab7	05		 DB	 5
  02ab8	05		 DB	 5
  02ab9	05		 DB	 5
  02aba	05		 DB	 5
  02abb	05		 DB	 5
  02abc	05		 DB	 5
  02abd	05		 DB	 5
  02abe	05		 DB	 5
  02abf	05		 DB	 5
  02ac0	05		 DB	 5
  02ac1	05		 DB	 5
  02ac2	05		 DB	 5
  02ac3	05		 DB	 5
  02ac4	05		 DB	 5
  02ac5	05		 DB	 5
  02ac6	05		 DB	 5
  02ac7	05		 DB	 5
  02ac8	05		 DB	 5
  02ac9	05		 DB	 5
  02aca	05		 DB	 5
  02acb	05		 DB	 5
  02acc	05		 DB	 5
  02acd	05		 DB	 5
  02ace	05		 DB	 5
  02acf	05		 DB	 5
  02ad0	05		 DB	 5
  02ad1	05		 DB	 5
  02ad2	05		 DB	 5
  02ad3	05		 DB	 5
  02ad4	05		 DB	 5
  02ad5	05		 DB	 5
  02ad6	02		 DB	 2
  02ad7	05		 DB	 5
  02ad8	05		 DB	 5
  02ad9	05		 DB	 5
  02ada	05		 DB	 5
  02adb	05		 DB	 5
  02adc	05		 DB	 5
  02add	05		 DB	 5
  02ade	05		 DB	 5
  02adf	05		 DB	 5
  02ae0	05		 DB	 5
  02ae1	05		 DB	 5
  02ae2	05		 DB	 5
  02ae3	05		 DB	 5
  02ae4	05		 DB	 5
  02ae5	05		 DB	 5
  02ae6	05		 DB	 5
  02ae7	05		 DB	 5
  02ae8	05		 DB	 5
  02ae9	05		 DB	 5
  02aea	05		 DB	 5
  02aeb	05		 DB	 5
  02aec	05		 DB	 5
  02aed	05		 DB	 5
  02aee	05		 DB	 5
  02aef	05		 DB	 5
  02af0	05		 DB	 5
  02af1	03		 DB	 3
  02af2	04		 DB	 4
?JGPGetCharList@@YAXPAE@Z ENDP				; JGPGetCharList
; Function compile flags: /Odtp /ZI
; File d:\projects\exteam6.3\source\gameserver\include\prodef.h
_TEXT	ENDS
;	COMDAT ?set@PBMSG_HEAD@@QAEXPAEEE@Z
_TEXT	SEGMENT
_this$ = -4						; size = 4
_lpBuf$ = 8						; size = 4
_head$ = 12						; size = 1
_size$ = 16						; size = 1
?set@PBMSG_HEAD@@QAEXPAEEE@Z PROC			; PBMSG_HEAD::set, COMDAT
; _this$ = ecx

; 80   : 	{

  00000	55		 push	 ebp
  00001	8b ec		 mov	 ebp, esp
  00003	83 ec 44	 sub	 esp, 68			; 00000044H
  00006	53		 push	 ebx
  00007	56		 push	 esi
  00008	57		 push	 edi
  00009	89 4d fc	 mov	 DWORD PTR _this$[ebp], ecx

; 81   : 		lpBuf[0] = 0xC1;

  0000c	8b 45 08	 mov	 eax, DWORD PTR _lpBuf$[ebp]
  0000f	c6 00 c1	 mov	 BYTE PTR [eax], 193	; 000000c1H

; 82   : 		lpBuf[1] = size;

  00012	8b 45 08	 mov	 eax, DWORD PTR _lpBuf$[ebp]
  00015	8a 4d 10	 mov	 cl, BYTE PTR _size$[ebp]
  00018	88 48 01	 mov	 BYTE PTR [eax+1], cl

; 83   : 		lpBuf[2] = head;

  0001b	8b 45 08	 mov	 eax, DWORD PTR _lpBuf$[ebp]
  0001e	8a 4d 0c	 mov	 cl, BYTE PTR _head$[ebp]
  00021	88 48 02	 mov	 BYTE PTR [eax+2], cl

; 84   : 	};	// line : 22

  00024	5f		 pop	 edi
  00025	5e		 pop	 esi
  00026	5b		 pop	 ebx
  00027	8b e5		 mov	 esp, ebp
  00029	5d		 pop	 ebp
  0002a	c2 0c 00	 ret	 12			; 0000000cH
?set@PBMSG_HEAD@@QAEXPAEEE@Z ENDP			; PBMSG_HEAD::set
_TEXT	ENDS
PUBLIC	??_C@_0EC@CJNCOELN@d?3?2projects?2exteam6?43?2source?2gam@ ; `string'
PUBLIC	?__LINE__Var@?1??DataServerGetCharListRequest@@YAXF@Z@4JA ; `DataServerGetCharListRequest'::`2'::__LINE__Var
PUBLIC	__$ArrayPad$
PUBLIC	?DataServerGetCharListRequest@@YAXF@Z		; DataServerGetCharListRequest
EXTRN	_strlen:PROC
EXTRN	?gObjGetAccountId@@YAPADH@Z:PROC		; gObjGetAccountId
EXTRN	?GCLicenseUser@CExLicense@@QAEXH@Z:PROC		; CExLicense::GCLicenseUser
;	COMDAT ??_C@_0EC@CJNCOELN@d?3?2projects?2exteam6?43?2source?2gam@
; File d:\projects\exteam6.3\source\gameserver\gameserver\dsprotocol.cpp
CONST	SEGMENT
??_C@_0EC@CJNCOELN@d?3?2projects?2exteam6?43?2source?2gam@ DB 'd:\project'
	DB	's\exteam6.3\source\gameserver\gameserver\dsprotocol.cpp', 00H ; `string'
CONST	ENDS
;	COMDAT ?__LINE__Var@?1??DataServerGetCharListRequest@@YAXF@Z@4JA
_DATA	SEGMENT
?__LINE__Var@?1??DataServerGetCharListRequest@@YAXF@Z@4JA DD 0542H ; `DataServerGetCharListRequest'::`2'::__LINE__Var
; Function compile flags: /Odtp /ZI
_DATA	ENDS
_TEXT	SEGMENT
_AccountId$ = -36					; size = 4
_TempId$ = -32						; size = 11
_pMsg$ = -20						; size = 16
__$ArrayPad$ = -4					; size = 4
_aIndex$ = 8						; size = 2
?DataServerGetCharListRequest@@YAXF@Z PROC		; DataServerGetCharListRequest

; 1346 : {

  02b00	55		 push	 ebp
  02b01	8b ec		 mov	 ebp, esp
  02b03	83 ec 64	 sub	 esp, 100		; 00000064H
  02b06	a1 00 00 00 00	 mov	 eax, DWORD PTR ___security_cookie
  02b0b	33 c5		 xor	 eax, ebp
  02b0d	89 45 fc	 mov	 DWORD PTR __$ArrayPad$[ebp], eax
  02b10	53		 push	 ebx
  02b11	56		 push	 esi
  02b12	57		 push	 edi

; 1347 : 	g_ExLicense.GCLicenseUser(aIndex);

  02b13	0f bf 45 08	 movsx	 eax, WORD PTR _aIndex$[ebp]
  02b17	50		 push	 eax
  02b18	b9 00 00 00 00	 mov	 ecx, OFFSET ?g_ExLicense@@3VCExLicense@@A ; g_ExLicense
  02b1d	e8 00 00 00 00	 call	 ?GCLicenseUser@CExLicense@@QAEXH@Z ; CExLicense::GCLicenseUser

; 1348 : 
; 1349 : 	SDHP_GETCHARLIST pMsg;
; 1350 : 	char TempId[11];
; 1351 : 	char* AccountId;
; 1352 : 
; 1353 : 	memset(TempId, 0, sizeof(TempId));

  02b22	6a 0b		 push	 11			; 0000000bH
  02b24	6a 00		 push	 0
  02b26	8d 45 e0	 lea	 eax, DWORD PTR _TempId$[ebp]
  02b29	50		 push	 eax
  02b2a	e8 00 00 00 00	 call	 _memset
  02b2f	83 c4 0c	 add	 esp, 12			; 0000000cH

; 1354 : 	AccountId = gObjGetAccountId(aIndex);

  02b32	0f bf 45 08	 movsx	 eax, WORD PTR _aIndex$[ebp]
  02b36	50		 push	 eax
  02b37	e8 00 00 00 00	 call	 ?gObjGetAccountId@@YAPADH@Z ; gObjGetAccountId
  02b3c	83 c4 04	 add	 esp, 4
  02b3f	89 45 dc	 mov	 DWORD PTR _AccountId$[ebp], eax

; 1355 : 
; 1356 : 	if ( AccountId == 0 )

  02b42	83 7d dc 00	 cmp	 DWORD PTR _AccountId$[ebp], 0
  02b46	75 39		 jne	 SHORT $LN2@DataServer@3

; 1357 : 	{
; 1358 : 		LogAdd(lMsg.Get(MSGGET(1, 166)), __FILE__, __LINE__);

  02b48	a1 00 00 00 00	 mov	 eax, DWORD PTR ?__LINE__Var@?1??DataServerGetCharListRequest@@YAXF@Z@4JA
  02b4d	83 c0 0c	 add	 eax, 12			; 0000000cH
  02b50	50		 push	 eax
  02b51	68 00 00 00 00	 push	 OFFSET ??_C@_0EC@CJNCOELN@d?3?2projects?2exteam6?43?2source?2gam@
  02b56	68 a6 01 00 00	 push	 422			; 000001a6H
  02b5b	b9 00 00 00 00	 mov	 ecx, OFFSET ?lMsg@@3VCMsg@@A ; lMsg
  02b60	e8 00 00 00 00	 call	 ?Get@CMsg@@QAEPADH@Z	; CMsg::Get
  02b65	50		 push	 eax
  02b66	ff 15 00 00 00
	00		 call	 DWORD PTR ?LogAdd@@3P6AXPADZZA ; LogAdd
  02b6c	83 c4 0c	 add	 esp, 12			; 0000000cH

; 1359 : 		CloseClient(aIndex);

  02b6f	0f bf 45 08	 movsx	 eax, WORD PTR _aIndex$[ebp]
  02b73	50		 push	 eax
  02b74	e8 00 00 00 00	 call	 ?CloseClient@@YAXH@Z	; CloseClient
  02b79	83 c4 04	 add	 esp, 4

; 1360 : 		return;

  02b7c	e9 90 00 00 00	 jmp	 $LN3@DataServer@3
$LN2@DataServer@3:

; 1361 : 	}
; 1362 : 
; 1363 : 	// When Len is Less than 1
; 1364 : 	if ( strlen(AccountId) < 1 )

  02b81	8b 45 dc	 mov	 eax, DWORD PTR _AccountId$[ebp]
  02b84	50		 push	 eax
  02b85	e8 00 00 00 00	 call	 _strlen
  02b8a	83 c4 04	 add	 esp, 4
  02b8d	83 f8 01	 cmp	 eax, 1
  02b90	73 36		 jae	 SHORT $LN1@DataServer@3

; 1365 : 	{
; 1366 : 		// Error Message
; 1367 : 		//
; 1368 : 		LogAdd(lMsg.Get(MSGGET(1, 167)), __FILE__, __LINE__);

  02b92	a1 00 00 00 00	 mov	 eax, DWORD PTR ?__LINE__Var@?1??DataServerGetCharListRequest@@YAXF@Z@4JA
  02b97	83 c0 16	 add	 eax, 22			; 00000016H
  02b9a	50		 push	 eax
  02b9b	68 00 00 00 00	 push	 OFFSET ??_C@_0EC@CJNCOELN@d?3?2projects?2exteam6?43?2source?2gam@
  02ba0	68 a7 01 00 00	 push	 423			; 000001a7H
  02ba5	b9 00 00 00 00	 mov	 ecx, OFFSET ?lMsg@@3VCMsg@@A ; lMsg
  02baa	e8 00 00 00 00	 call	 ?Get@CMsg@@QAEPADH@Z	; CMsg::Get
  02baf	50		 push	 eax
  02bb0	ff 15 00 00 00
	00		 call	 DWORD PTR ?LogAdd@@3P6AXPADZZA ; LogAdd
  02bb6	83 c4 0c	 add	 esp, 12			; 0000000cH

; 1369 : 		CloseClient(aIndex);

  02bb9	0f bf 45 08	 movsx	 eax, WORD PTR _aIndex$[ebp]
  02bbd	50		 push	 eax
  02bbe	e8 00 00 00 00	 call	 ?CloseClient@@YAXH@Z	; CloseClient
  02bc3	83 c4 04	 add	 esp, 4

; 1370 : 		return;

  02bc6	eb 49		 jmp	 SHORT $LN3@DataServer@3
$LN1@DataServer@3:

; 1371 : 	}
; 1372 : 
; 1373 : 	strcpy((char*)TempId, AccountId);

  02bc8	8b 45 dc	 mov	 eax, DWORD PTR _AccountId$[ebp]
  02bcb	50		 push	 eax
  02bcc	8d 4d e0	 lea	 ecx, DWORD PTR _TempId$[ebp]
  02bcf	51		 push	 ecx
  02bd0	e8 00 00 00 00	 call	 _strcpy
  02bd5	83 c4 08	 add	 esp, 8

; 1374 : 
; 1375 : 	pMsg.h.c  = 0xC1;

  02bd8	c6 45 ec c1	 mov	 BYTE PTR _pMsg$[ebp], 193 ; 000000c1H

; 1376 : 	pMsg.h.size  = sizeof(SDHP_GETCHARLIST);

  02bdc	c6 45 ed 10	 mov	 BYTE PTR _pMsg$[ebp+1], 16 ; 00000010H

; 1377 : 	pMsg.h.headcode = 0x01;

  02be0	c6 45 ee 01	 mov	 BYTE PTR _pMsg$[ebp+2], 1

; 1378 : 	pMsg.Number = aIndex;

  02be4	66 8b 45 08	 mov	 ax, WORD PTR _aIndex$[ebp]
  02be8	66 89 45 fa	 mov	 WORD PTR _pMsg$[ebp+14], ax

; 1379 : 	memcpy(pMsg.Id , TempId, sizeof(TempId)-1);

  02bec	6a 0a		 push	 10			; 0000000aH
  02bee	8d 45 e0	 lea	 eax, DWORD PTR _TempId$[ebp]
  02bf1	50		 push	 eax
  02bf2	8d 4d ef	 lea	 ecx, DWORD PTR _pMsg$[ebp+3]
  02bf5	51		 push	 ecx
  02bf6	e8 00 00 00 00	 call	 _memcpy
  02bfb	83 c4 0c	 add	 esp, 12			; 0000000cH

; 1380 : 
; 1381 : 	cDBSMng.Send((char*)&pMsg, pMsg.h.size);

  02bfe	0f b6 45 ed	 movzx	 eax, BYTE PTR _pMsg$[ebp+1]
  02c02	50		 push	 eax
  02c03	8d 4d ec	 lea	 ecx, DWORD PTR _pMsg$[ebp]
  02c06	51		 push	 ecx
  02c07	b9 00 00 00 00	 mov	 ecx, OFFSET ?cDBSMng@@3VDBSockMng@@A ; cDBSMng
  02c0c	e8 00 00 00 00	 call	 ?Send@DBSockMng@@QAEHPADH@Z ; DBSockMng::Send
$LN3@DataServer@3:

; 1382 : 	
; 1383 : }

  02c11	5f		 pop	 edi
  02c12	5e		 pop	 esi
  02c13	5b		 pop	 ebx
  02c14	8b 4d fc	 mov	 ecx, DWORD PTR __$ArrayPad$[ebp]
  02c17	33 cd		 xor	 ecx, ebp
  02c19	e8 00 00 00 00	 call	 @__security_check_cookie@4
  02c1e	8b e5		 mov	 esp, ebp
  02c20	5d		 pop	 ebp
  02c21	c3		 ret	 0
?DataServerGetCharListRequest@@YAXF@Z ENDP		; DataServerGetCharListRequest
_TEXT	ENDS
PUBLIC	__$ArrayPad$
; Function compile flags: /Odtp /ZI
_TEXT	SEGMENT
_changeup$ = -68					; size = 4
_aIndex$ = -64						; size = 4
_szAccountID$ = -60					; size = 11
_pResult$ = -48						; size = 44
__$ArrayPad$ = -4					; size = 4
_lpMsg$ = 8						; size = 4
?JGCharacterCreateRequest@@YAXPAUSDHP_CREATECHARRESULT@@@Z PROC ; JGCharacterCreateRequest

; 1399 : {

  02c30	55		 push	 ebp
  02c31	8b ec		 mov	 ebp, esp
  02c33	81 ec 84 00 00
	00		 sub	 esp, 132		; 00000084H
  02c39	a1 00 00 00 00	 mov	 eax, DWORD PTR ___security_cookie
  02c3e	33 c5		 xor	 eax, ebp
  02c40	89 45 fc	 mov	 DWORD PTR __$ArrayPad$[ebp], eax
  02c43	53		 push	 ebx
  02c44	56		 push	 esi
  02c45	57		 push	 edi

; 1400 : 	PMSG_CHARCREATERESULT pResult;
; 1401 : 	char szAccountID[MAX_ACCOUNT_LEN+1];
; 1402 : 	int aIndex = lpMsg->Number;

  02c46	8b 45 08	 mov	 eax, DWORD PTR _lpMsg$[ebp]
  02c49	0f bf 48 04	 movsx	 ecx, WORD PTR [eax+4]
  02c4d	89 4d c0	 mov	 DWORD PTR _aIndex$[ebp], ecx

; 1403 : 
; 1404 : 	szAccountID[MAX_ACCOUNT_LEN] = 0;

  02c50	c6 45 ce 00	 mov	 BYTE PTR _szAccountID$[ebp+10], 0

; 1405 : 	memcpy(szAccountID, lpMsg->AccountId, sizeof(lpMsg->AccountId));

  02c54	6a 0a		 push	 10			; 0000000aH
  02c56	8b 45 08	 mov	 eax, DWORD PTR _lpMsg$[ebp]
  02c59	83 c0 06	 add	 eax, 6
  02c5c	50		 push	 eax
  02c5d	8d 4d c4	 lea	 ecx, DWORD PTR _szAccountID$[ebp]
  02c60	51		 push	 ecx
  02c61	e8 00 00 00 00	 call	 _memcpy
  02c66	83 c4 0c	 add	 esp, 12			; 0000000cH

; 1406 : 
; 1407 : 	if ( gObjIsAccontConnect(aIndex, szAccountID) == FALSE )

  02c69	8d 45 c4	 lea	 eax, DWORD PTR _szAccountID$[ebp]
  02c6c	50		 push	 eax
  02c6d	8b 4d c0	 mov	 ecx, DWORD PTR _aIndex$[ebp]
  02c70	51		 push	 ecx
  02c71	e8 00 00 00 00	 call	 ?gObjIsAccontConnect@@YAHHPAD@Z ; gObjIsAccontConnect
  02c76	83 c4 08	 add	 esp, 8
  02c79	85 c0		 test	 eax, eax
  02c7b	75 30		 jne	 SHORT $LN2@JGCharacte

; 1408 : 	{
; 1409 : 		LogAddC(2, lMsg.Get(MSGGET(1, 168)), szAccountID);

  02c7d	8d 45 c4	 lea	 eax, DWORD PTR _szAccountID$[ebp]
  02c80	50		 push	 eax
  02c81	68 a8 01 00 00	 push	 424			; 000001a8H
  02c86	b9 00 00 00 00	 mov	 ecx, OFFSET ?lMsg@@3VCMsg@@A ; lMsg
  02c8b	e8 00 00 00 00	 call	 ?Get@CMsg@@QAEPADH@Z	; CMsg::Get
  02c90	50		 push	 eax
  02c91	6a 02		 push	 2
  02c93	ff 15 00 00 00
	00		 call	 DWORD PTR ?LogAddC@@3P6AXEPADZZA ; LogAddC
  02c99	83 c4 0c	 add	 esp, 12			; 0000000cH

; 1410 : 		CloseClient(aIndex);

  02c9c	8b 45 c0	 mov	 eax, DWORD PTR _aIndex$[ebp]
  02c9f	50		 push	 eax
  02ca0	e8 00 00 00 00	 call	 ?CloseClient@@YAXH@Z	; CloseClient
  02ca5	83 c4 04	 add	 esp, 4

; 1411 : 		return;

  02ca8	e9 bc 00 00 00	 jmp	 $LN3@JGCharacte
$LN2@JGCharacte:

; 1412 : 	}
; 1413 : 
; 1414 : 	pResult.h.c = 0xC1;

  02cad	c6 45 d0 c1	 mov	 BYTE PTR _pResult$[ebp], 193 ; 000000c1H

; 1415 : 	pResult.h.size = sizeof(PMSG_CHARCREATERESULT);

  02cb1	c6 45 d1 2c	 mov	 BYTE PTR _pResult$[ebp+1], 44 ; 0000002cH

; 1416 : 	pResult.h.headcode = 0xF3;

  02cb5	c6 45 d2 f3	 mov	 BYTE PTR _pResult$[ebp+2], 243 ; 000000f3H

; 1417 : 	pResult.subcode = 0x01;

  02cb9	c6 45 d3 01	 mov	 BYTE PTR _pResult$[ebp+3], 1

; 1418 : 	pResult.Result = lpMsg->Result;

  02cbd	8b 45 08	 mov	 eax, DWORD PTR _lpMsg$[ebp]
  02cc0	8a 48 03	 mov	 cl, BYTE PTR [eax+3]
  02cc3	88 4d d4	 mov	 BYTE PTR _pResult$[ebp+4], cl

; 1419 : 	pResult.pos = lpMsg->Pos;

  02cc6	8b 45 08	 mov	 eax, DWORD PTR _lpMsg$[ebp]
  02cc9	8a 48 1a	 mov	 cl, BYTE PTR [eax+26]
  02ccc	88 4d df	 mov	 BYTE PTR _pResult$[ebp+15], cl

; 1420 : 	pResult.Class = (lpMsg->ClassSkin >> 4 << 5) & 0xE0;

  02ccf	8b 45 08	 mov	 eax, DWORD PTR _lpMsg$[ebp]
  02cd2	0f b6 48 1b	 movzx	 ecx, BYTE PTR [eax+27]
  02cd6	c1 f9 04	 sar	 ecx, 4
  02cd9	c1 e1 05	 shl	 ecx, 5
  02cdc	81 e1 e0 00 00
	00		 and	 ecx, 224		; 000000e0H
  02ce2	88 4d e2	 mov	 BYTE PTR _pResult$[ebp+18], cl

; 1421 : 	int changeup = lpMsg->ClassSkin & 0x07; 

  02ce5	8b 45 08	 mov	 eax, DWORD PTR _lpMsg$[ebp]
  02ce8	0f b6 48 1b	 movzx	 ecx, BYTE PTR [eax+27]
  02cec	83 e1 07	 and	 ecx, 7
  02cef	89 4d bc	 mov	 DWORD PTR _changeup$[ebp], ecx

; 1422 : 	pResult.Class |= (changeup << 4) & 0x10;

  02cf2	8b 45 bc	 mov	 eax, DWORD PTR _changeup$[ebp]
  02cf5	c1 e0 04	 shl	 eax, 4
  02cf8	83 e0 10	 and	 eax, 16			; 00000010H
  02cfb	0f b6 4d e2	 movzx	 ecx, BYTE PTR _pResult$[ebp+18]
  02cff	0b c8		 or	 ecx, eax
  02d01	88 4d e2	 mov	 BYTE PTR _pResult$[ebp+18], cl

; 1423 : 	pResult.Class |= (changeup << 4) & 0x20; //Season 2.5 add-on

  02d04	8b 45 bc	 mov	 eax, DWORD PTR _changeup$[ebp]
  02d07	c1 e0 04	 shl	 eax, 4
  02d0a	83 e0 20	 and	 eax, 32			; 00000020H
  02d0d	0f b6 4d e2	 movzx	 ecx, BYTE PTR _pResult$[ebp+18]
  02d11	0b c8		 or	 ecx, eax
  02d13	88 4d e2	 mov	 BYTE PTR _pResult$[ebp+18], cl

; 1424 : 	pResult.Level = lpMsg->Level;

  02d16	8b 45 08	 mov	 eax, DWORD PTR _lpMsg$[ebp]
  02d19	66 8b 48 34	 mov	 cx, WORD PTR [eax+52]
  02d1d	66 89 4d e0	 mov	 WORD PTR _pResult$[ebp+16], cx

; 1425 : 	memcpy(pResult.Name, lpMsg->Name, sizeof(pResult.Name));

  02d21	6a 0a		 push	 10			; 0000000aH
  02d23	8b 45 08	 mov	 eax, DWORD PTR _lpMsg$[ebp]
  02d26	83 c0 10	 add	 eax, 16			; 00000010H
  02d29	50		 push	 eax
  02d2a	8d 4d d5	 lea	 ecx, DWORD PTR _pResult$[ebp+5]
  02d2d	51		 push	 ecx
  02d2e	e8 00 00 00 00	 call	 _memcpy
  02d33	83 c4 0c	 add	 esp, 12			; 0000000cH

; 1426 : 
; 1427 : 	if ( pResult.Result == 1 )

  02d36	0f b6 45 d4	 movzx	 eax, BYTE PTR _pResult$[ebp+4]
  02d3a	83 f8 01	 cmp	 eax, 1
  02d3d	75 15		 jne	 SHORT $LN1@JGCharacte

; 1428 : 	{
; 1429 : 		memcpy(pResult.Equipment, lpMsg->Equipment, sizeof(pResult.Equipment));

  02d3f	6a 18		 push	 24			; 00000018H
  02d41	8b 45 08	 mov	 eax, DWORD PTR _lpMsg$[ebp]
  02d44	83 c0 1c	 add	 eax, 28			; 0000001cH
  02d47	50		 push	 eax
  02d48	8d 4d e3	 lea	 ecx, DWORD PTR _pResult$[ebp+19]
  02d4b	51		 push	 ecx
  02d4c	e8 00 00 00 00	 call	 _memcpy
  02d51	83 c4 0c	 add	 esp, 12			; 0000000cH
$LN1@JGCharacte:

; 1430 : 	}
; 1431 : 
; 1432 : 	DataSend(aIndex, (LPBYTE)&pResult, pResult.h.size);

  02d54	0f b6 45 d1	 movzx	 eax, BYTE PTR _pResult$[ebp+1]
  02d58	50		 push	 eax
  02d59	8d 4d d0	 lea	 ecx, DWORD PTR _pResult$[ebp]
  02d5c	51		 push	 ecx
  02d5d	8b 55 c0	 mov	 edx, DWORD PTR _aIndex$[ebp]
  02d60	52		 push	 edx
  02d61	e8 00 00 00 00	 call	 ?DataSend@@YAHHPAEK@Z	; DataSend
  02d66	83 c4 0c	 add	 esp, 12			; 0000000cH
$LN3@JGCharacte:

; 1433 : }

  02d69	5f		 pop	 edi
  02d6a	5e		 pop	 esi
  02d6b	5b		 pop	 ebx
  02d6c	8b 4d fc	 mov	 ecx, DWORD PTR __$ArrayPad$[ebp]
  02d6f	33 cd		 xor	 ecx, ebp
  02d71	e8 00 00 00 00	 call	 @__security_check_cookie@4
  02d76	8b e5		 mov	 esp, ebp
  02d78	5d		 pop	 ebp
  02d79	c3		 ret	 0
?JGCharacterCreateRequest@@YAXPAUSDHP_CREATECHARRESULT@@@Z ENDP ; JGCharacterCreateRequest
_TEXT	ENDS
PUBLIC	__$ArrayPad$
PUBLIC	?JGCharacterCreateFailSend@@YAXHPAD@Z		; JGCharacterCreateFailSend
; Function compile flags: /Odtp /ZI
_TEXT	SEGMENT
_pResult$ = -48						; size = 44
__$ArrayPad$ = -4					; size = 4
_aIndex$ = 8						; size = 4
_id$ = 12						; size = 4
?JGCharacterCreateFailSend@@YAXHPAD@Z PROC		; JGCharacterCreateFailSend

; 1437 : {

  02d80	55		 push	 ebp
  02d81	8b ec		 mov	 ebp, esp
  02d83	83 ec 70	 sub	 esp, 112		; 00000070H
  02d86	a1 00 00 00 00	 mov	 eax, DWORD PTR ___security_cookie
  02d8b	33 c5		 xor	 eax, ebp
  02d8d	89 45 fc	 mov	 DWORD PTR __$ArrayPad$[ebp], eax
  02d90	53		 push	 ebx
  02d91	56		 push	 esi
  02d92	57		 push	 edi

; 1438 : 	PMSG_CHARCREATERESULT  pResult;
; 1439 : 
; 1440 : 	pResult.h.c = 0xC1;

  02d93	c6 45 d0 c1	 mov	 BYTE PTR _pResult$[ebp], 193 ; 000000c1H

; 1441 : 	pResult.h.size = sizeof (PMSG_CHARCREATERESULT);

  02d97	c6 45 d1 2c	 mov	 BYTE PTR _pResult$[ebp+1], 44 ; 0000002cH

; 1442 : 	pResult.h.headcode = 0xF3;

  02d9b	c6 45 d2 f3	 mov	 BYTE PTR _pResult$[ebp+2], 243 ; 000000f3H

; 1443 : 	pResult.subcode = 0x01;

  02d9f	c6 45 d3 01	 mov	 BYTE PTR _pResult$[ebp+3], 1

; 1444 : 	pResult.Result = false;

  02da3	c6 45 d4 00	 mov	 BYTE PTR _pResult$[ebp+4], 0

; 1445 : 	pResult.pos = 0;

  02da7	c6 45 df 00	 mov	 BYTE PTR _pResult$[ebp+15], 0

; 1446 : 	memcpy(pResult.Name, id, sizeof(pResult.Name));

  02dab	6a 0a		 push	 10			; 0000000aH
  02dad	8b 45 0c	 mov	 eax, DWORD PTR _id$[ebp]
  02db0	50		 push	 eax
  02db1	8d 4d d5	 lea	 ecx, DWORD PTR _pResult$[ebp+5]
  02db4	51		 push	 ecx
  02db5	e8 00 00 00 00	 call	 _memcpy
  02dba	83 c4 0c	 add	 esp, 12			; 0000000cH

; 1447 : 
; 1448 : 	DataSend(aIndex, (UCHAR*)&pResult, pResult.h.size);

  02dbd	0f b6 45 d1	 movzx	 eax, BYTE PTR _pResult$[ebp+1]
  02dc1	50		 push	 eax
  02dc2	8d 4d d0	 lea	 ecx, DWORD PTR _pResult$[ebp]
  02dc5	51		 push	 ecx
  02dc6	8b 55 08	 mov	 edx, DWORD PTR _aIndex$[ebp]
  02dc9	52		 push	 edx
  02dca	e8 00 00 00 00	 call	 ?DataSend@@YAHHPAEK@Z	; DataSend
  02dcf	83 c4 0c	 add	 esp, 12			; 0000000cH

; 1449 : }

  02dd2	5f		 pop	 edi
  02dd3	5e		 pop	 esi
  02dd4	5b		 pop	 ebx
  02dd5	8b 4d fc	 mov	 ecx, DWORD PTR __$ArrayPad$[ebp]
  02dd8	33 cd		 xor	 ecx, ebp
  02dda	e8 00 00 00 00	 call	 @__security_check_cookie@4
  02ddf	8b e5		 mov	 esp, ebp
  02de1	5d		 pop	 ebp
  02de2	c3		 ret	 0
?JGCharacterCreateFailSend@@YAXHPAD@Z ENDP		; JGCharacterCreateFailSend
_TEXT	ENDS
PUBLIC	__$ArrayPad$
; Function compile flags: /Odtp /ZI
_TEXT	SEGMENT
_aIndex$ = -28						; size = 4
_szAccountId$ = -24					; size = 11
_pResult$ = -12						; size = 5
__$ArrayPad$ = -4					; size = 4
_lpMsg$ = 8						; size = 4
?JGCharDelRequest@@YAXPAUSDHP_CHARDELETERESULT@@@Z PROC	; JGCharDelRequest

; 1453 : {

  02df0	55		 push	 ebp
  02df1	8b ec		 mov	 ebp, esp
  02df3	83 ec 5c	 sub	 esp, 92			; 0000005cH
  02df6	a1 00 00 00 00	 mov	 eax, DWORD PTR ___security_cookie
  02dfb	33 c5		 xor	 eax, ebp
  02dfd	89 45 fc	 mov	 DWORD PTR __$ArrayPad$[ebp], eax
  02e00	53		 push	 ebx
  02e01	56		 push	 esi
  02e02	57		 push	 edi

; 1454 : 	PMSG_RESULT pResult;
; 1455 : 	char szAccountId[MAX_ACCOUNT_LEN+1];
; 1456 : 	int aIndex = lpMsg->Number;

  02e03	8b 45 08	 mov	 eax, DWORD PTR _lpMsg$[ebp]
  02e06	0f bf 48 04	 movsx	 ecx, WORD PTR [eax+4]
  02e0a	89 4d e4	 mov	 DWORD PTR _aIndex$[ebp], ecx

; 1457 : 	szAccountId[MAX_ACCOUNT_LEN] = 0;

  02e0d	c6 45 f2 00	 mov	 BYTE PTR _szAccountId$[ebp+10], 0

; 1458 : 	memcpy(szAccountId, lpMsg->AccountID, sizeof(lpMsg->AccountID));

  02e11	6a 0a		 push	 10			; 0000000aH
  02e13	8b 45 08	 mov	 eax, DWORD PTR _lpMsg$[ebp]
  02e16	83 c0 06	 add	 eax, 6
  02e19	50		 push	 eax
  02e1a	8d 4d e8	 lea	 ecx, DWORD PTR _szAccountId$[ebp]
  02e1d	51		 push	 ecx
  02e1e	e8 00 00 00 00	 call	 _memcpy
  02e23	83 c4 0c	 add	 esp, 12			; 0000000cH

; 1459 : 
; 1460 : 	if ( ::gObjIsAccontConnect(aIndex, szAccountId) == FALSE )

  02e26	8d 45 e8	 lea	 eax, DWORD PTR _szAccountId$[ebp]
  02e29	50		 push	 eax
  02e2a	8b 4d e4	 mov	 ecx, DWORD PTR _aIndex$[ebp]
  02e2d	51		 push	 ecx
  02e2e	e8 00 00 00 00	 call	 ?gObjIsAccontConnect@@YAHHPAD@Z ; gObjIsAccontConnect
  02e33	83 c4 08	 add	 esp, 8
  02e36	85 c0		 test	 eax, eax
  02e38	75 2d		 jne	 SHORT $LN1@JGCharDelR

; 1461 : 	{
; 1462 : 		LogAddC(2, lMsg.Get(MSGGET(1, 169)), szAccountId);

  02e3a	8d 45 e8	 lea	 eax, DWORD PTR _szAccountId$[ebp]
  02e3d	50		 push	 eax
  02e3e	68 a9 01 00 00	 push	 425			; 000001a9H
  02e43	b9 00 00 00 00	 mov	 ecx, OFFSET ?lMsg@@3VCMsg@@A ; lMsg
  02e48	e8 00 00 00 00	 call	 ?Get@CMsg@@QAEPADH@Z	; CMsg::Get
  02e4d	50		 push	 eax
  02e4e	6a 02		 push	 2
  02e50	ff 15 00 00 00
	00		 call	 DWORD PTR ?LogAddC@@3P6AXEPADZZA ; LogAddC
  02e56	83 c4 0c	 add	 esp, 12			; 0000000cH

; 1463 : 		CloseClient(aIndex);

  02e59	8b 45 e4	 mov	 eax, DWORD PTR _aIndex$[ebp]
  02e5c	50		 push	 eax
  02e5d	e8 00 00 00 00	 call	 ?CloseClient@@YAXH@Z	; CloseClient
  02e62	83 c4 04	 add	 esp, 4

; 1464 : 
; 1465 : 		return;

  02e65	eb 32		 jmp	 SHORT $LN2@JGCharDelR
$LN1@JGCharDelR:

; 1466 : 	}
; 1467 : 
; 1468 : 	pResult.h.c = 0xC1;

  02e67	c6 45 f4 c1	 mov	 BYTE PTR _pResult$[ebp], 193 ; 000000c1H

; 1469 : 	pResult.h.size = sizeof(PMSG_RESULT);

  02e6b	c6 45 f5 05	 mov	 BYTE PTR _pResult$[ebp+1], 5

; 1470 : 	pResult.h.headcode = 0xF3;

  02e6f	c6 45 f6 f3	 mov	 BYTE PTR _pResult$[ebp+2], 243 ; 000000f3H

; 1471 : 	pResult.subcode = 0x02;

  02e73	c6 45 f7 02	 mov	 BYTE PTR _pResult$[ebp+3], 2

; 1472 : 	pResult.result = lpMsg->Result;

  02e77	8b 45 08	 mov	 eax, DWORD PTR _lpMsg$[ebp]
  02e7a	8a 48 03	 mov	 cl, BYTE PTR [eax+3]
  02e7d	88 4d f8	 mov	 BYTE PTR _pResult$[ebp+4], cl

; 1473 : 
; 1474 : 	DataSend(lpMsg->Number, (UCHAR*)&pResult, pResult.h.size);

  02e80	0f b6 45 f5	 movzx	 eax, BYTE PTR _pResult$[ebp+1]
  02e84	50		 push	 eax
  02e85	8d 4d f4	 lea	 ecx, DWORD PTR _pResult$[ebp]
  02e88	51		 push	 ecx
  02e89	8b 55 08	 mov	 edx, DWORD PTR _lpMsg$[ebp]
  02e8c	0f bf 42 04	 movsx	 eax, WORD PTR [edx+4]
  02e90	50		 push	 eax
  02e91	e8 00 00 00 00	 call	 ?DataSend@@YAHHPAEK@Z	; DataSend
  02e96	83 c4 0c	 add	 esp, 12			; 0000000cH
$LN2@JGCharDelR:

; 1475 : }

  02e99	5f		 pop	 edi
  02e9a	5e		 pop	 esi
  02e9b	5b		 pop	 ebx
  02e9c	8b 4d fc	 mov	 ecx, DWORD PTR __$ArrayPad$[ebp]
  02e9f	33 cd		 xor	 ecx, ebp
  02ea1	e8 00 00 00 00	 call	 @__security_check_cookie@4
  02ea6	8b e5		 mov	 esp, ebp
  02ea8	5d		 pop	 ebp
  02ea9	c3		 ret	 0
?JGCharDelRequest@@YAXPAUSDHP_CHARDELETERESULT@@@Z ENDP	; JGCharDelRequest
_TEXT	ENDS
PUBLIC	?set@PBMSG_HEAD2@@QAEXPAEEEE@Z			; PBMSG_HEAD2::set
PUBLIC	?GCItemListSend@@YAXH@Z				; GCItemListSend
PUBLIC	??_C@_0GD@LBDNOPPJ@?$FLFRUIT?5System?$FN?5Character?5Stat?5Er@ ; `string'
PUBLIC	??_C@_0EO@MMCPKNFL@?$FLFRUIT?5System?$FN?5?$FL?$CFs?$FN?$FL?$CFs?$FN?5?$CIMinusPo@ ; `string'
PUBLIC	??_C@_0EB@KJANBCDD@?$FLMapServerMng?$FN?5Request?5to?5Move?5M@ ; `string'
PUBLIC	??_C@_0EM@ICCPKMCE@?$FLMapServerMng?$FN?5Map?5Server?5Move?5F@ ; `string'
PUBLIC	??_C@_0BB@LBNJKNBE@error?9L3?5?3?5?$CFs?5?$CFd?$AA@ ; `string'
PUBLIC	??_C@_0CG@LIHKGJJG@?$DP?$DP?$DP?$DP?5ZEN?5MODIFY?5?$DP?$DP?$DP?$DP?5?$FL?$CFs?$FN?$FL?$CFs?$FN?5?$CFd@ ; `string'
PUBLIC	?__LINE__Var@?1??JGGetCharacterInfo@@YAXPAUSDHP_DBCHAR_INFORESULT@@@Z@4JA ; `JGGetCharacterInfo'::`2'::__LINE__Var
PUBLIC	??_C@_0FE@JOJGEKKO@?$FLAnti?9HACK?$FN?$FLJGGetCharacterInfo?$FN?5@ ; `string'
PUBLIC	??_C@_0CL@ECFCLMFK@error?9L1?5?3?5Load?5Block?5Character?5@ ; `string'
PUBLIC	__$ArrayPad$
EXTRN	__imp__GetTickCount@0:PROC
EXTRN	?GCPlayerConnect@CDungeonSiege@@QAEXH@Z:PROC	; CDungeonSiege::GCPlayerConnect
EXTRN	?g_WaitOpen@@3_NA:BYTE				; g_WaitOpen
EXTRN	?SendClose@ConnectEx@@QAEXHH@Z:PROC		; ConnectEx::SendClose
EXTRN	?g_ConnectEx@@3VConnectEx@@A:QWORD		; g_ConnectEx
EXTRN	?CheckPremiumServer@PremiumSystem@@QAE_NH@Z:PROC ; PremiumSystem::CheckPremiumServer
EXTRN	?Premium@@3VPremiumSystem@@A:BYTE		; Premium
EXTRN	?UserConnect@PremiumSystemEx@@QAEXH@Z:PROC	; PremiumSystemEx::UserConnect
EXTRN	?g_PremiumSystemEx@@3VPremiumSystemEx@@A:BYTE	; g_PremiumSystemEx
EXTRN	?RestoreParty@PartyClass@@QAEXH@Z:PROC		; PartyClass::RestoreParty
EXTRN	?OpenMain@NewsBoard@@QAEXPAUOBJECTSTRUCT@@@Z:PROC ; NewsBoard::OpenMain
EXTRN	?g_NewsBoard@@3VNewsBoard@@A:BYTE		; g_NewsBoard
EXTRN	?ConnectAdmin@GMManager@@QAEXH@Z:PROC		; GMManager::ConnectAdmin
EXTRN	?g_GMManager@@3VGMManager@@A:BYTE		; g_GMManager
EXTRN	?ExUserDataSend@@YAXH@Z:PROC			; ExUserDataSend
EXTRN	?GCServerMsgStringSend@@YAXPADHE@Z:PROC		; GCServerMsgStringSend
EXTRN	?gWelcomeMessage@@3PADA:BYTE			; gWelcomeMessage
EXTRN	?SkillChangeUse@CObjUseSkill@@QAEHH@Z:PROC	; CObjUseSkill::SkillChangeUse
EXTRN	?gObjUseSkill@@3VCObjUseSkill@@A:DWORD		; gObjUseSkill
EXTRN	?GCMapEventStateSend@@YAXHEE@Z:PROC		; GCMapEventStateSend
EXTRN	?gAppearTamaJJang@@3HA:DWORD			; gAppearTamaJJang
EXTRN	?gTamaJJangEvent@@3HA:DWORD			; gTamaJJangEvent
EXTRN	?FriendListRequest@@YAXH@Z:PROC			; FriendListRequest
EXTRN	?GDLoad@CMarriage@@QAEXH@Z:PROC			; CMarriage::GDLoad
EXTRN	?ReqMacro@MUHelper@@QAEXH@Z:PROC		; MUHelper::ReqMacro
EXTRN	?ReqQuestInfo@cWinQuestSystem@@QAEXPAUOBJECTSTRUCT@@@Z:PROC ; cWinQuestSystem::ReqQuestInfo
EXTRN	?ReqExDBGensInfo@GensSystem@@QAEHPAUOBJECTSTRUCT@@@Z:PROC ; GensSystem::ReqExDBGensInfo
EXTRN	?DGGuildMemberInfoRequest@@YAXH@Z:PROC		; DGGuildMemberInfoRequest
EXTRN	?Quest3rdRequestInfo@CQuestUtil@@QAEXPAUOBJECTSTRUCT@@@Z:PROC ; CQuestUtil::Quest3rdRequestInfo
EXTRN	?CGRequestQuestInfo@@YAXH@Z:PROC		; CGRequestQuestInfo
EXTRN	?GDReqMasterLevelInfo@CMasterLevelSystem@@QAEXPAUOBJECTSTRUCT@@@Z:PROC ; CMasterLevelSystem::GDReqMasterLevelInfo
EXTRN	?GDReqLuckyItemSelect@LuckyItemManager@@QAEXPAUOBJECTSTRUCT@@@Z:PROC ; LuckyItemManager::GDReqLuckyItemSelect
EXTRN	?RequestPeriodItemInfo@CPeriodItemEx@@QAEXPAUOBJECTSTRUCT@@@Z:PROC ; CPeriodItemEx::RequestPeriodItemInfo
EXTRN	?GCMagicListMultiSend@@YAXPAUOBJECTSTRUCT@@E@Z:PROC ; GCMagicListMultiSend
EXTRN	?QuestInfoSave@CQuestInfo@@QAEXPAUOBJECTSTRUCT@@@Z:PROC ; CQuestInfo::QuestInfoSave
EXTRN	?g_QuestInfo@@3VCQuestInfo@@A:BYTE		; g_QuestInfo
EXTRN	?gObjGetStatPointState@@YAXHAAF000@Z:PROC	; gObjGetStatPointState
EXTRN	?CheckIsMasterLevelCharacter@CMasterLevelSystem@@QAEHPAUOBJECTSTRUCT@@@Z:PROC ; CMasterLevelSystem::CheckIsMasterLevelCharacter
EXTRN	?GJReqMapSvrMove@@YAXHGGEE@Z:PROC		; GJReqMapSvrMove
EXTRN	?CheckMoveMapSvr@CMapServerManager@@QAEFHHF@Z:PROC ; CMapServerManager::CheckMoveMapSvr
EXTRN	?g_MapServerManager@@3VCMapServerManager@@A:BYTE ; g_MapServerManager
EXTRN	?MapNumberCheck@@YAHH@Z:PROC			; MapNumberCheck
EXTRN	?DestroyGIocp@@YAXXZ:PROC			; DestroyGIocp
EXTRN	?szAuthKey@@3PADA:BYTE				; szAuthKey
EXTRN	?gObjSetCharacter@@YAHPAEH@Z:PROC		; gObjSetCharacter
EXTRN	?LogAddTD@@3P6AXPADZZA:DWORD			; LogAddTD
EXTRN	_strncmp:PROC
EXTRN	__fltused:DWORD
EXTRN	__allshr:PROC
;	COMDAT ??_C@_0GD@LBDNOPPJ@?$FLFRUIT?5System?$FN?5Character?5Stat?5Er@
CONST	SEGMENT
??_C@_0GD@LBDNOPPJ@?$FLFRUIT?5System?$FN?5Character?5Stat?5Er@ DB '[FRUIT'
	DB	' System] Character Stat Error [%s][%s] (MinusPoint:%d/PlusPoi'
	DB	'nt:%d) (MaxMinus:%d/MaxPlus:%d)', 00H	; `string'
CONST	ENDS
;	COMDAT ??_C@_0EO@MMCPKNFL@?$FLFRUIT?5System?$FN?5?$FL?$CFs?$FN?$FL?$CFs?$FN?5?$CIMinusPo@
CONST	SEGMENT
??_C@_0EO@MMCPKNFL@?$FLFRUIT?5System?$FN?5?$FL?$CFs?$FN?$FL?$CFs?$FN?5?$CIMinusPo@ DB '['
	DB	'FRUIT System] [%s][%s] (MinusPoint:%d/PlusPoint:%d) (MaxMinus'
	DB	':%d/MaxPlus:%d)', 00H			; `string'
CONST	ENDS
;	COMDAT ??_C@_0EB@KJANBCDD@?$FLMapServerMng?$FN?5Request?5to?5Move?5M@
CONST	SEGMENT
??_C@_0EB@KJANBCDD@?$FLMapServerMng?$FN?5Request?5to?5Move?5M@ DB '[MapSe'
	DB	'rverMng] Request to Move Map Server : (%d) - [%s][%s] (%d)', 00H ; `string'
CONST	ENDS
;	COMDAT ??_C@_0EM@ICCPKMCE@?$FLMapServerMng?$FN?5Map?5Server?5Move?5F@
CONST	SEGMENT
??_C@_0EM@ICCPKMCE@?$FLMapServerMng?$FN?5Map?5Server?5Move?5F@ DB '[MapSe'
	DB	'rverMng] Map Server Move Fail : CheckMoveMapSvr() == -1 [%s]['
	DB	'%s] (%d)', 00H				; `string'
CONST	ENDS
;	COMDAT ??_C@_0BB@LBNJKNBE@error?9L3?5?3?5?$CFs?5?$CFd?$AA@
CONST	SEGMENT
??_C@_0BB@LBNJKNBE@error?9L3?5?3?5?$CFs?5?$CFd?$AA@ DB 'error-L3 : %s %d', 00H ; `string'
CONST	ENDS
;	COMDAT ??_C@_0CG@LIHKGJJG@?$DP?$DP?$DP?$DP?5ZEN?5MODIFY?5?$DP?$DP?$DP?$DP?5?$FL?$CFs?$FN?$FL?$CFs?$FN?5?$CFd@
CONST	SEGMENT
??_C@_0CG@LIHKGJJG@?$DP?$DP?$DP?$DP?5ZEN?5MODIFY?5?$DP?$DP?$DP?$DP?5?$FL?$CFs?$FN?$FL?$CFs?$FN?5?$CFd@ DB '?'
	DB	'??? ZEN MODIFY ???? [%s][%s] %d -> 0', 00H	; `string'
CONST	ENDS
;	COMDAT ?__LINE__Var@?1??JGGetCharacterInfo@@YAXPAUSDHP_DBCHAR_INFORESULT@@@Z@4JA
_DATA	SEGMENT
?__LINE__Var@?1??JGGetCharacterInfo@@YAXPAUSDHP_DBCHAR_INFORESULT@@@Z@4JA DD 060fH ; `JGGetCharacterInfo'::`2'::__LINE__Var
_DATA	ENDS
;	COMDAT ??_C@_0FE@JOJGEKKO@?$FLAnti?9HACK?$FN?$FLJGGetCharacterInfo?$FN?5@
CONST	SEGMENT
??_C@_0FE@JOJGEKKO@?$FLAnti?9HACK?$FN?$FLJGGetCharacterInfo?$FN?5@ DB '[A'
	DB	'nti-HACK][JGGetCharacterInfo] Attempted Character-Copy by dou'
	DB	'ble logging [%s][%s]', 00H			; `string'
CONST	ENDS
;	COMDAT ??_C@_0CL@ECFCLMFK@error?9L1?5?3?5Load?5Block?5Character?5@
CONST	SEGMENT
??_C@_0CL@ECFCLMFK@error?9L1?5?3?5Load?5Block?5Character?5@ DB 'error-L1 '
	DB	': Load Block Character infomation', 00H	; `string'
; Function compile flags: /Odtp /ZI
CONST	ENDS
_TEXT	SEGMENT
tv1129 = -276						; size = 8
tv1119 = -276						; size = 8
tv1110 = -276						; size = 8
tv1100 = -276						; size = 8
tv1053 = -272						; size = 4
tv1043 = -272						; size = 4
tv1034 = -272						; size = 4
tv1024 = -272						; size = 4
tv1127 = -268						; size = 4
tv1117 = -268						; size = 4
tv1108 = -268						; size = 4
tv1098 = -268						; size = 4
tv1051 = -268						; size = 4
tv1041 = -268						; size = 4
tv1032 = -268						; size = 4
tv1022 = -268						; size = 4
tv1124 = -262						; size = 2
tv1114 = -262						; size = 2
tv1105 = -262						; size = 2
tv1095 = -262						; size = 2
tv1048 = -262						; size = 2
tv1038 = -262						; size = 2
tv1029 = -262						; size = 2
tv1019 = -262						; size = 2
_pResult$ = -196					; size = 5
_MaxMinusPoint$ = -188					; size = 2
_MinusPoint$ = -184					; size = 2
_MaxAddPoint$ = -180					; size = 2
_AddPoint$ = -176					; size = 2
_NextExperience$ = -172					; size = 8
_Experience$ = -164					; size = 8
_wGameServerCode$245677 = -156				; size = 2
_lpObj$ = -152						; size = 4
_i$245657 = -148					; size = 4
_aIndex$ = -144						; size = 4
_szName$ = -140						; size = 11
_szAccountId$ = -128					; size = 11
_pjMsg$ = -116						; size = 112
__$ArrayPad$ = -4					; size = 4
_lpMsg$ = 8						; size = 4
?JGGetCharacterInfo@@YAXPAUSDHP_DBCHAR_INFORESULT@@@Z PROC ; JGGetCharacterInfo

; 1551 : {

  02eb0	55		 push	 ebp
  02eb1	8b ec		 mov	 ebp, esp
  02eb3	81 ec 14 01 00
	00		 sub	 esp, 276		; 00000114H
  02eb9	a1 00 00 00 00	 mov	 eax, DWORD PTR ___security_cookie
  02ebe	33 c5		 xor	 eax, ebp
  02ec0	89 45 fc	 mov	 DWORD PTR __$ArrayPad$[ebp], eax
  02ec3	53		 push	 ebx
  02ec4	56		 push	 esi
  02ec5	57		 push	 edi

; 1552 : 	PMSG_CHARMAPJOINRESULT pjMsg;
; 1553 : 
; 1554 : 	char szAccountId[MAX_ACCOUNT_LEN+1];
; 1555 : 	char szName[MAX_ACCOUNT_LEN+1];
; 1556 : 	int aIndex = lpMsg->Number;

  02ec6	8b 45 08	 mov	 eax, DWORD PTR _lpMsg$[ebp]
  02ec9	0f bf 48 06	 movsx	 ecx, WORD PTR [eax+6]
  02ecd	89 8d 70 ff ff
	ff		 mov	 DWORD PTR _aIndex$[ebp], ecx

; 1557 : 
; 1558 : 	szAccountId[MAX_ACCOUNT_LEN] = 0;

  02ed3	c6 45 8a 00	 mov	 BYTE PTR _szAccountId$[ebp+10], 0

; 1559 : 	memcpy(szAccountId, lpMsg->AccountID, sizeof(lpMsg->AccountID));

  02ed7	6a 0a		 push	 10			; 0000000aH
  02ed9	8b 45 08	 mov	 eax, DWORD PTR _lpMsg$[ebp]
  02edc	83 c0 08	 add	 eax, 8
  02edf	50		 push	 eax
  02ee0	8d 4d 80	 lea	 ecx, DWORD PTR _szAccountId$[ebp]
  02ee3	51		 push	 ecx
  02ee4	e8 00 00 00 00	 call	 _memcpy
  02ee9	83 c4 0c	 add	 esp, 12			; 0000000cH

; 1560 : 
; 1561 : 	if ( gObjIsAccontConnect(aIndex, szAccountId) == FALSE )

  02eec	8d 45 80	 lea	 eax, DWORD PTR _szAccountId$[ebp]
  02eef	50		 push	 eax
  02ef0	8b 8d 70 ff ff
	ff		 mov	 ecx, DWORD PTR _aIndex$[ebp]
  02ef6	51		 push	 ecx
  02ef7	e8 00 00 00 00	 call	 ?gObjIsAccontConnect@@YAHHPAD@Z ; gObjIsAccontConnect
  02efc	83 c4 08	 add	 esp, 8
  02eff	85 c0		 test	 eax, eax
  02f01	75 33		 jne	 SHORT $LN31@JGGetChara

; 1562 : 	{
; 1563 : 		LogAddC(2, lMsg.Get(MSGGET(1, 170)), szAccountId);

  02f03	8d 45 80	 lea	 eax, DWORD PTR _szAccountId$[ebp]
  02f06	50		 push	 eax
  02f07	68 aa 01 00 00	 push	 426			; 000001aaH
  02f0c	b9 00 00 00 00	 mov	 ecx, OFFSET ?lMsg@@3VCMsg@@A ; lMsg
  02f11	e8 00 00 00 00	 call	 ?Get@CMsg@@QAEPADH@Z	; CMsg::Get
  02f16	50		 push	 eax
  02f17	6a 02		 push	 2
  02f19	ff 15 00 00 00
	00		 call	 DWORD PTR ?LogAddC@@3P6AXEPADZZA ; LogAddC
  02f1f	83 c4 0c	 add	 esp, 12			; 0000000cH

; 1564 : 		CloseClient(aIndex);

  02f22	8b 85 70 ff ff
	ff		 mov	 eax, DWORD PTR _aIndex$[ebp]
  02f28	50		 push	 eax
  02f29	e8 00 00 00 00	 call	 ?CloseClient@@YAXH@Z	; CloseClient
  02f2e	83 c4 04	 add	 esp, 4

; 1565 : 		return;

  02f31	e9 2a 0f 00 00	 jmp	 $LN32@JGGetChara
$LN31@JGGetChara:

; 1566 : 	}
; 1567 : 
; 1568 : 	szName[MAX_ACCOUNT_LEN] = 0;

  02f36	c6 85 7e ff ff
	ff 00		 mov	 BYTE PTR _szName$[ebp+10], 0

; 1569 : 	memcpy(szName, lpMsg->Name, MAX_ACCOUNT_LEN);

  02f3d	6a 0a		 push	 10			; 0000000aH
  02f3f	8b 45 08	 mov	 eax, DWORD PTR _lpMsg$[ebp]
  02f42	83 c0 12	 add	 eax, 18			; 00000012H
  02f45	50		 push	 eax
  02f46	8d 8d 74 ff ff
	ff		 lea	 ecx, DWORD PTR _szName$[ebp]
  02f4c	51		 push	 ecx
  02f4d	e8 00 00 00 00	 call	 _memcpy
  02f52	83 c4 0c	 add	 esp, 12			; 0000000cH

; 1570 : 
; 1571 : 	if ( lpMsg->result == false )

  02f55	8b 45 08	 mov	 eax, DWORD PTR _lpMsg$[ebp]
  02f58	0f b6 48 04	 movzx	 ecx, BYTE PTR [eax+4]
  02f5c	85 c9		 test	 ecx, ecx
  02f5e	75 4d		 jne	 SHORT $LN30@JGGetChara

; 1572 : 	{
; 1573 : 		LogAddC(2, lMsg.Get(MSGGET(1, 171)), szName, gObj[aIndex].AccountID);

  02f60	8b 85 70 ff ff
	ff		 mov	 eax, DWORD PTR _aIndex$[ebp]
  02f66	69 c0 38 2b 00
	00		 imul	 eax, 11064		; 00002b38H
  02f6c	8b 0d 00 00 00
	00		 mov	 ecx, DWORD PTR ?gObj@@3PAUOBJECTSTRUCT@@A ; gObj
  02f72	8d 54 01 6c	 lea	 edx, DWORD PTR [ecx+eax+108]
  02f76	52		 push	 edx
  02f77	8d 85 74 ff ff
	ff		 lea	 eax, DWORD PTR _szName$[ebp]
  02f7d	50		 push	 eax
  02f7e	68 ab 01 00 00	 push	 427			; 000001abH
  02f83	b9 00 00 00 00	 mov	 ecx, OFFSET ?lMsg@@3VCMsg@@A ; lMsg
  02f88	e8 00 00 00 00	 call	 ?Get@CMsg@@QAEPADH@Z	; CMsg::Get
  02f8d	50		 push	 eax
  02f8e	6a 02		 push	 2
  02f90	ff 15 00 00 00
	00		 call	 DWORD PTR ?LogAddC@@3P6AXEPADZZA ; LogAddC
  02f96	83 c4 10	 add	 esp, 16			; 00000010H

; 1574 : 		CloseClient(aIndex);

  02f99	8b 85 70 ff ff
	ff		 mov	 eax, DWORD PTR _aIndex$[ebp]
  02f9f	50		 push	 eax
  02fa0	e8 00 00 00 00	 call	 ?CloseClient@@YAXH@Z	; CloseClient
  02fa5	83 c4 04	 add	 esp, 4

; 1575 : 		return;

  02fa8	e9 b3 0e 00 00	 jmp	 $LN32@JGGetChara
$LN30@JGGetChara:

; 1576 : 	}
; 1577 : 
; 1578 : 	if ( (lpMsg->CtlCode&1) != 0 )

  02fad	8b 45 08	 mov	 eax, DWORD PTR _lpMsg$[ebp]
  02fb0	0f b6 88 d4 10
	00 00		 movzx	 ecx, BYTE PTR [eax+4308]
  02fb7	83 e1 01	 and	 ecx, 1
  02fba	74 42		 je	 SHORT $LN29@JGGetChara

; 1579 : 	{
; 1580 : 		LogAddC(2, "error-L1 : Load Block Character infomation", szName, gObj[aIndex].AccountID);

  02fbc	8b 85 70 ff ff
	ff		 mov	 eax, DWORD PTR _aIndex$[ebp]
  02fc2	69 c0 38 2b 00
	00		 imul	 eax, 11064		; 00002b38H
  02fc8	8b 0d 00 00 00
	00		 mov	 ecx, DWORD PTR ?gObj@@3PAUOBJECTSTRUCT@@A ; gObj
  02fce	8d 54 01 6c	 lea	 edx, DWORD PTR [ecx+eax+108]
  02fd2	52		 push	 edx
  02fd3	8d 85 74 ff ff
	ff		 lea	 eax, DWORD PTR _szName$[ebp]
  02fd9	50		 push	 eax
  02fda	68 00 00 00 00	 push	 OFFSET ??_C@_0CL@ECFCLMFK@error?9L1?5?3?5Load?5Block?5Character?5@
  02fdf	6a 02		 push	 2
  02fe1	ff 15 00 00 00
	00		 call	 DWORD PTR ?LogAddC@@3P6AXEPADZZA ; LogAddC
  02fe7	83 c4 10	 add	 esp, 16			; 00000010H

; 1581 : 		CloseClient(aIndex);

  02fea	8b 85 70 ff ff
	ff		 mov	 eax, DWORD PTR _aIndex$[ebp]
  02ff0	50		 push	 eax
  02ff1	e8 00 00 00 00	 call	 ?CloseClient@@YAXH@Z	; CloseClient
  02ff6	83 c4 04	 add	 esp, 4

; 1582 : 		return;

  02ff9	e9 62 0e 00 00	 jmp	 $LN32@JGGetChara
$LN29@JGGetChara:

; 1583 : 	}
; 1584 : 
; 1585 : 	for (int i=OBJ_STARTUSERINDEX;i<OBJMAX;i++)

  02ffe	c7 85 6c ff ff
	ff b0 36 00 00	 mov	 DWORD PTR _i$245657[ebp], 14000 ; 000036b0H
  03008	eb 0f		 jmp	 SHORT $LN28@JGGetChara
$LN27@JGGetChara:
  0300a	8b 85 6c ff ff
	ff		 mov	 eax, DWORD PTR _i$245657[ebp]
  03010	83 c0 01	 add	 eax, 1
  03013	89 85 6c ff ff
	ff		 mov	 DWORD PTR _i$245657[ebp], eax
