; Listing generated by Microsoft (R) Optimizing Compiler Version 16.00.40219.01 

	TITLE	D:\Projects\ExTeam6.3\Source\GameServer\GameServer\EDSProtocol.cpp
	.686P
	.XMM
	include listing.inc
	.model	flat

INCLUDELIB LIBCMT
INCLUDELIB OLDNAMES

PUBLIC	?gGuildListTotal@@3HA				; gGuildListTotal
PUBLIC	?gGuildListCount@@3HA				; gGuildListCount
PUBLIC	?GuildListhSts@@3PAUHWND__@@A			; GuildListhSts
PUBLIC	?GuildListhPrs@@3PAUHWND__@@A			; GuildListhPrs
PUBLIC	?GuildListhDlg@@3PAUHWND__@@A			; GuildListhDlg
_BSS	SEGMENT
?gGuildListTotal@@3HA DD 01H DUP (?)			; gGuildListTotal
?gGuildListCount@@3HA DD 01H DUP (?)			; gGuildListCount
?GuildListhSts@@3PAUHWND__@@A DD 01H DUP (?)		; GuildListhSts
?GuildListhPrs@@3PAUHWND__@@A DD 01H DUP (?)		; GuildListhPrs
?GuildListhDlg@@3PAUHWND__@@A DD 01H DUP (?)		; GuildListhDlg
_BSS	ENDS
_DATA	SEGMENT
_g_iNpcUpDfLevel_CGATE DD 01H
	DD	02H
	DD	02dc6c0H
	DD	02H
	DD	03H
	DD	02dc6c0H
	DD	03H
	DD	04H
	DD	02dc6c0H
_g_iNpcUpDfLevel_CSTATUE DD 01H
	DD	03H
	DD	02dc6c0H
	DD	02H
	DD	05H
	DD	02dc6c0H
	DD	03H
	DD	07H
	DD	02dc6c0H
_g_iNpcUpMaxHP_CGATE DD 02625a0H
	DD	02H
	DD	0f4240H
	DD	03567e0H
	DD	03H
	DD	0f4240H
	DD	04f5880H
	DD	04H
	DD	0f4240H
_g_iNpcUpMaxHP_CSTATUE DD 02191c0H
	DD	03H
	DD	0f4240H
	DD	033e140H
	DD	05H
	DD	0f4240H
	DD	04c4b40H
	DD	07H
	DD	0f4240H
_g_iNpcUpRgLevel_CSTATUE DD 01H
	DD	03H
	DD	04c4b40H
	DD	02H
	DD	05H
	DD	04c4b40H
	DD	03H
	DD	07H
	DD	04c4b40H
_g_iCsUserReSpawnArea DD 023H
	DD	011H
	DD	090H
	DD	030H
	DD	04aH
	DD	090H
	DD	073H
	DD	09aH
	DD	023H
	DD	011H
	DD	090H
	DD	030H
_g_iNpcDefense_CGATE DD 064H
	DD	0b4H
	DD	012cH
	DD	0208H
_g_iNpcDefense_CSTATUE DD 050H
	DD	0b4H
	DD	0154H
	DD	0226H
_g_iCastleWallStepAxisY DD 071H
	DD	0a0H
	DD	0cbH
_DATA	ENDS
PUBLIC	??_H@YGXPAXIHP6EPAX0@Z@Z			; `vector constructor iterator'
; Function compile flags: /Odtp /ZI
;	COMDAT ??_H@YGXPAXIHP6EPAX0@Z@Z
_TEXT	SEGMENT
___t$ = 8						; size = 4
___s$ = 12						; size = 4
___n$ = 16						; size = 4
___f$ = 20						; size = 4
??_H@YGXPAXIHP6EPAX0@Z@Z PROC				; `vector constructor iterator', COMDAT
  00000	55		 push	 ebp
  00001	8b ec		 mov	 ebp, esp
  00003	83 ec 40	 sub	 esp, 64			; 00000040H
  00006	53		 push	 ebx
  00007	56		 push	 esi
  00008	57		 push	 edi
$LN2@vector:
  00009	8b 45 10	 mov	 eax, DWORD PTR ___n$[ebp]
  0000c	83 e8 01	 sub	 eax, 1
  0000f	89 45 10	 mov	 DWORD PTR ___n$[ebp], eax
  00012	78 11		 js	 SHORT $LN3@vector
  00014	8b 4d 08	 mov	 ecx, DWORD PTR ___t$[ebp]
  00017	ff 55 14	 call	 DWORD PTR ___f$[ebp]
  0001a	8b 45 08	 mov	 eax, DWORD PTR ___t$[ebp]
  0001d	03 45 0c	 add	 eax, DWORD PTR ___s$[ebp]
  00020	89 45 08	 mov	 DWORD PTR ___t$[ebp], eax
  00023	eb e4		 jmp	 SHORT $LN2@vector
$LN3@vector:
  00025	5f		 pop	 edi
  00026	5e		 pop	 esi
  00027	5b		 pop	 ebx
  00028	8b e5		 mov	 esp, ebp
  0002a	5d		 pop	 ebp
  0002b	c2 10 00	 ret	 16			; 00000010H
??_H@YGXPAXIHP6EPAX0@Z@Z ENDP				; `vector constructor iterator'
_TEXT	ENDS
PUBLIC	?FriendRoomInvitationRecv@@YAXPAUFHP_FRIEND_INVITATION_RET@@@Z ; FriendRoomInvitationRecv
PUBLIC	?FriendMemoDelResult@@YAXPAUFHP_FRIEND_MEMO_DEL_RESULT@@@Z ; FriendMemoDelResult
PUBLIC	?FriendMemoRead@@YAXPAUFHP_FRIEND_MEMO_RECV@@@Z	; FriendMemoRead
PUBLIC	?FriendMemoList@@YAXPAUFHP_FRIEND_MEMO_LIST@@@Z	; FriendMemoList
PUBLIC	?FriendMemoSendResult@@YAXPAUFHP_FRIEND_MEMO_SEND_RESULT@@@Z ; FriendMemoSendResult
PUBLIC	?FriendChatRoomCreateResult@@YAXPAUFHP_FRIEND_CHATROOM_CREATE_RESULT@@@Z ; FriendChatRoomCreateResult
PUBLIC	?FriendDelResult@@YAXPAUFHP_FRIEND_DEL_RESULT@@@Z ; FriendDelResult
PUBLIC	?WaitFriendAddResult@@YAXPAUFHP_WAITFRIEND_ADD_RESULT@@@Z ; WaitFriendAddResult
PUBLIC	?FriendAddResult@@YAXPAUFHP_FRIEND_ADD_RESULT@@@Z ; FriendAddResult
PUBLIC	?FriendStateRecv@@YAXPAUFHP_FRIEND_STATE@@@Z	; FriendStateRecv
PUBLIC	?WaitFriendListResult@@YAXPAUFHP_WAITFRIENDLIST_COUNT@@@Z ; WaitFriendListResult
PUBLIC	?FriendListResult@@YAXPAE@Z			; FriendListResult
PUBLIC	?DGRelationShipAnsKickOutUnionMember@@YAXPAUEXSDHP_KICKOUT_UNIONMEMBER_RESULT@@@Z ; DGRelationShipAnsKickOutUnionMember
PUBLIC	?DGUnionListRecv@@YAXPAE@Z			; DGUnionListRecv
PUBLIC	?DGRelationShipNotificationRecv@@YAXPAUEXSDHP_NOTIFICATION_RELATIONSHIP@@@Z ; DGRelationShipNotificationRecv
PUBLIC	?DGRelationShipListRecv@@YAXPAUEXSDHP_UNION_RELATIONSHIP_LIST@@@Z ; DGRelationShipListRecv
PUBLIC	?DGRelationShipAnsBreakOff@@YAXPAUEXSDHP_RELATIONSHIP_BREAKOFF_RESULT@@@Z ; DGRelationShipAnsBreakOff
PUBLIC	?DGRelationShipAnsJoin@@YAXPAUEXSDHP_RELATIONSHIP_JOIN_RESULT@@@Z ; DGRelationShipAnsJoin
PUBLIC	?DGGuildAnsAssignType@@YAXPAUEXSDHP_GUILD_ASSIGN_TYPE_RESULT@@@Z ; DGGuildAnsAssignType
PUBLIC	?DGGuildAnsAssignStatus@@YAXPAUEXSDHP_GUILD_ASSIGN_STATUS_RESULT@@@Z ; DGGuildAnsAssignStatus
PUBLIC	?DGUnionServerGroupChattingRecv@@YAXPAUEXSDHP_SERVERGROUP_UNION_CHATTING_RECV@@@Z ; DGUnionServerGroupChattingRecv
PUBLIC	?DGGuildServerGroupChattingRecv@@YAXPAUEXSDHP_SERVERGROUP_GUILD_CHATTING_RECV@@@Z ; DGGuildServerGroupChattingRecv
PUBLIC	?DGGuildListState@@YAXPAUSDHP_GUILDLISTSTATE@@@Z ; DGGuildListState
PUBLIC	?DGGuildList@@YAXPAUSDHP_GUILDCREATED@@@Z	; DGGuildList
PUBLIC	?DGGuildNoticeRecv@@YAXPAUSDHP_GUILDNOTICE@@@Z	; DGGuildNoticeRecv
PUBLIC	?GDGuildScoreUpdateRecv@@YAXPAUSDHP_GUILDSCOREUPDATE@@@Z ; GDGuildScoreUpdateRecv
PUBLIC	?DGGuildMasterListRecv@@YAXPAE@Z		; DGGuildMasterListRecv
PUBLIC	?DGGuildMemberInfo@@YAXPAUSDHP_GUILDMEMBER_INFO@@@Z ; DGGuildMemberInfo
PUBLIC	?GDGuildMemberDelResult@@YAXPAUSDHP_GUILDMEMBERDEL_RESULT@@@Z ; GDGuildMemberDelResult
PUBLIC	?GDGuildMemberAddResult@@YAXPAUSDHP_GUILDMEMBERADD_RESULT@@@Z ; GDGuildMemberAddResult
PUBLIC	?GDGuildDestroyRecv@@YAXPAUSDHP_GUILDDESTROY_RESULT@@@Z ; GDGuildDestroyRecv
PUBLIC	?GDGuildCreateRecv@@YAXPAUSDHP_GUILDCREATE_RESULT@@@Z ; GDGuildCreateRecv
PUBLIC	?GDCharCloseRecv@@YAXPAUSDHP_USERCLOSE@@@Z	; GDCharCloseRecv
PUBLIC	?ExDataServerLoginResult@@YAXPAUSDHP_RESULT@@@Z	; ExDataServerLoginResult
PUBLIC	?ExDataServerProtocolCore@@YAXEPAEH@Z		; ExDataServerProtocolCore
; Function compile flags: /Odtp /ZI
; File d:\projects\exteam6.3\source\gameserver\gameserver\edsprotocol.cpp
_TEXT	SEGMENT
tv89 = -72						; size = 4
tv65 = -72						; size = 4
_lpDef$231900 = -4					; size = 4
_protoNum$ = 8						; size = 1
_aRecv$ = 12						; size = 4
_aLen$ = 16						; size = 4
?ExDataServerProtocolCore@@YAXEPAEH@Z PROC		; ExDataServerProtocolCore

; 36   : {

  00000	55		 push	 ebp
  00001	8b ec		 mov	 ebp, esp
  00003	83 ec 48	 sub	 esp, 72			; 00000048H
  00006	53		 push	 ebx
  00007	56		 push	 esi
  00008	57		 push	 edi

; 37   : 	switch ( protoNum )

  00009	0f b6 45 08	 movzx	 eax, BYTE PTR _protoNum$[ebp]
  0000d	89 45 b8	 mov	 DWORD PTR tv65[ebp], eax
  00010	81 7d b8 eb 00
	00 00		 cmp	 DWORD PTR tv65[ebp], 235 ; 000000ebH
  00017	0f 87 4a 02 00
	00		 ja	 $LN40@ExDataServ
  0001d	8b 4d b8	 mov	 ecx, DWORD PTR tv65[ebp]
  00020	0f b6 91 00 00
	00 00		 movzx	 edx, BYTE PTR $LN42@ExDataServ[ecx]
  00027	ff 24 95 00 00
	00 00		 jmp	 DWORD PTR $LN43@ExDataServ[edx*4]
$LN37@ExDataServ:

; 38   : 	{
; 39   : 		case 0x00:
; 40   : 			ExDataServerLoginResult((SDHP_RESULT *)aRecv);

  0002e	8b 45 0c	 mov	 eax, DWORD PTR _aRecv$[ebp]
  00031	50		 push	 eax
  00032	e8 00 00 00 00	 call	 ?ExDataServerLoginResult@@YAXPAUSDHP_RESULT@@@Z ; ExDataServerLoginResult
  00037	83 c4 04	 add	 esp, 4

; 41   : 			break;

  0003a	e9 28 02 00 00	 jmp	 $LN40@ExDataServ
$LN36@ExDataServ:

; 42   : 		case 0x02:
; 43   : 			GDCharCloseRecv((SDHP_USERCLOSE *)aRecv);

  0003f	8b 45 0c	 mov	 eax, DWORD PTR _aRecv$[ebp]
  00042	50		 push	 eax
  00043	e8 00 00 00 00	 call	 ?GDCharCloseRecv@@YAXPAUSDHP_USERCLOSE@@@Z ; GDCharCloseRecv
  00048	83 c4 04	 add	 esp, 4

; 44   : 			break;

  0004b	e9 17 02 00 00	 jmp	 $LN40@ExDataServ
$LN35@ExDataServ:

; 45   : 		case 0x30:
; 46   : 			GDGuildCreateRecv((SDHP_GUILDCREATE_RESULT *)aRecv);

  00050	8b 45 0c	 mov	 eax, DWORD PTR _aRecv$[ebp]
  00053	50		 push	 eax
  00054	e8 00 00 00 00	 call	 ?GDGuildCreateRecv@@YAXPAUSDHP_GUILDCREATE_RESULT@@@Z ; GDGuildCreateRecv
  00059	83 c4 04	 add	 esp, 4

; 47   : 			break;

  0005c	e9 06 02 00 00	 jmp	 $LN40@ExDataServ
$LN34@ExDataServ:

; 48   : 		case 0x31:
; 49   : 			GDGuildDestroyRecv((SDHP_GUILDDESTROY_RESULT *)aRecv);

  00061	8b 45 0c	 mov	 eax, DWORD PTR _aRecv$[ebp]
  00064	50		 push	 eax
  00065	e8 00 00 00 00	 call	 ?GDGuildDestroyRecv@@YAXPAUSDHP_GUILDDESTROY_RESULT@@@Z ; GDGuildDestroyRecv
  0006a	83 c4 04	 add	 esp, 4

; 50   : 			break;

  0006d	e9 f5 01 00 00	 jmp	 $LN40@ExDataServ
$LN33@ExDataServ:

; 51   : 		case 0x32:
; 52   : 			GDGuildMemberAddResult((SDHP_GUILDMEMBERADD_RESULT *)aRecv);

  00072	8b 45 0c	 mov	 eax, DWORD PTR _aRecv$[ebp]
  00075	50		 push	 eax
  00076	e8 00 00 00 00	 call	 ?GDGuildMemberAddResult@@YAXPAUSDHP_GUILDMEMBERADD_RESULT@@@Z ; GDGuildMemberAddResult
  0007b	83 c4 04	 add	 esp, 4

; 53   : 			break;

  0007e	e9 e4 01 00 00	 jmp	 $LN40@ExDataServ
$LN32@ExDataServ:

; 54   : 		case 0x33:
; 55   : 			GDGuildMemberDelResult((SDHP_GUILDMEMBERDEL_RESULT *)aRecv);

  00083	8b 45 0c	 mov	 eax, DWORD PTR _aRecv$[ebp]
  00086	50		 push	 eax
  00087	e8 00 00 00 00	 call	 ?GDGuildMemberDelResult@@YAXPAUSDHP_GUILDMEMBERDEL_RESULT@@@Z ; GDGuildMemberDelResult
  0008c	83 c4 04	 add	 esp, 4

; 56   : 			break;

  0008f	e9 d3 01 00 00	 jmp	 $LN40@ExDataServ
$LN31@ExDataServ:

; 57   : 		case 0x35:
; 58   : 			DGGuildMemberInfo((SDHP_GUILDMEMBER_INFO *)aRecv);

  00094	8b 45 0c	 mov	 eax, DWORD PTR _aRecv$[ebp]
  00097	50		 push	 eax
  00098	e8 00 00 00 00	 call	 ?DGGuildMemberInfo@@YAXPAUSDHP_GUILDMEMBER_INFO@@@Z ; DGGuildMemberInfo
  0009d	83 c4 04	 add	 esp, 4

; 59   : 			break;

  000a0	e9 c2 01 00 00	 jmp	 $LN40@ExDataServ
$LN30@ExDataServ:

; 60   : 		case 0x36:
; 61   : 			DGGuildMasterListRecv(aRecv);

  000a5	8b 45 0c	 mov	 eax, DWORD PTR _aRecv$[ebp]
  000a8	50		 push	 eax
  000a9	e8 00 00 00 00	 call	 ?DGGuildMasterListRecv@@YAXPAE@Z ; DGGuildMasterListRecv
  000ae	83 c4 04	 add	 esp, 4

; 62   : 			break;

  000b1	e9 b1 01 00 00	 jmp	 $LN40@ExDataServ
$LN29@ExDataServ:

; 63   : 		case 0x37:
; 64   : 			GDGuildScoreUpdateRecv((SDHP_GUILDSCOREUPDATE *)aRecv);

  000b6	8b 45 0c	 mov	 eax, DWORD PTR _aRecv$[ebp]
  000b9	50		 push	 eax
  000ba	e8 00 00 00 00	 call	 ?GDGuildScoreUpdateRecv@@YAXPAUSDHP_GUILDSCOREUPDATE@@@Z ; GDGuildScoreUpdateRecv
  000bf	83 c4 04	 add	 esp, 4

; 65   : 			break;

  000c2	e9 a0 01 00 00	 jmp	 $LN40@ExDataServ
$LN28@ExDataServ:

; 66   : 		case 0x38:
; 67   : 			DGGuildNoticeRecv((SDHP_GUILDNOTICE *)aRecv);

  000c7	8b 45 0c	 mov	 eax, DWORD PTR _aRecv$[ebp]
  000ca	50		 push	 eax
  000cb	e8 00 00 00 00	 call	 ?DGGuildNoticeRecv@@YAXPAUSDHP_GUILDNOTICE@@@Z ; DGGuildNoticeRecv
  000d0	83 c4 04	 add	 esp, 4

; 68   : 			break;

  000d3	e9 8f 01 00 00	 jmp	 $LN40@ExDataServ
$LN27@ExDataServ:

; 69   : 		case 0x40:
; 70   : 			DGGuildList((SDHP_GUILDCREATED *)aRecv);

  000d8	8b 45 0c	 mov	 eax, DWORD PTR _aRecv$[ebp]
  000db	50		 push	 eax
  000dc	e8 00 00 00 00	 call	 ?DGGuildList@@YAXPAUSDHP_GUILDCREATED@@@Z ; DGGuildList
  000e1	83 c4 04	 add	 esp, 4

; 71   : 			break;

  000e4	e9 7e 01 00 00	 jmp	 $LN40@ExDataServ
$LN26@ExDataServ:

; 72   : 		case 0x41:
; 73   : 			DGGuildListState((SDHP_GUILDLISTSTATE *)aRecv);

  000e9	8b 45 0c	 mov	 eax, DWORD PTR _aRecv$[ebp]
  000ec	50		 push	 eax
  000ed	e8 00 00 00 00	 call	 ?DGGuildListState@@YAXPAUSDHP_GUILDLISTSTATE@@@Z ; DGGuildListState
  000f2	83 c4 04	 add	 esp, 4

; 74   : 			break;

  000f5	e9 6d 01 00 00	 jmp	 $LN40@ExDataServ
$LN25@ExDataServ:

; 75   : 		case 0x50:
; 76   : 			DGGuildServerGroupChattingRecv((EXSDHP_SERVERGROUP_GUILD_CHATTING_RECV *)aRecv);

  000fa	8b 45 0c	 mov	 eax, DWORD PTR _aRecv$[ebp]
  000fd	50		 push	 eax
  000fe	e8 00 00 00 00	 call	 ?DGGuildServerGroupChattingRecv@@YAXPAUEXSDHP_SERVERGROUP_GUILD_CHATTING_RECV@@@Z ; DGGuildServerGroupChattingRecv
  00103	83 c4 04	 add	 esp, 4

; 77   : 			break;

  00106	e9 5c 01 00 00	 jmp	 $LN40@ExDataServ
$LN24@ExDataServ:

; 78   : 		case 0x51:
; 79   : 			DGUnionServerGroupChattingRecv((EXSDHP_SERVERGROUP_UNION_CHATTING_RECV *)aRecv);

  0010b	8b 45 0c	 mov	 eax, DWORD PTR _aRecv$[ebp]
  0010e	50		 push	 eax
  0010f	e8 00 00 00 00	 call	 ?DGUnionServerGroupChattingRecv@@YAXPAUEXSDHP_SERVERGROUP_UNION_CHATTING_RECV@@@Z ; DGUnionServerGroupChattingRecv
  00114	83 c4 04	 add	 esp, 4

; 80   : 			break;

  00117	e9 4b 01 00 00	 jmp	 $LN40@ExDataServ
$LN23@ExDataServ:

; 81   : 		case 0xE1:
; 82   : 			DGGuildAnsAssignStatus((EXSDHP_GUILD_ASSIGN_STATUS_RESULT *)aRecv);

  0011c	8b 45 0c	 mov	 eax, DWORD PTR _aRecv$[ebp]
  0011f	50		 push	 eax
  00120	e8 00 00 00 00	 call	 ?DGGuildAnsAssignStatus@@YAXPAUEXSDHP_GUILD_ASSIGN_STATUS_RESULT@@@Z ; DGGuildAnsAssignStatus
  00125	83 c4 04	 add	 esp, 4

; 83   : 			break;

  00128	e9 3a 01 00 00	 jmp	 $LN40@ExDataServ
$LN22@ExDataServ:

; 84   : 		case 0xE2:
; 85   : 			DGGuildAnsAssignType((EXSDHP_GUILD_ASSIGN_TYPE_RESULT *)aRecv);

  0012d	8b 45 0c	 mov	 eax, DWORD PTR _aRecv$[ebp]
  00130	50		 push	 eax
  00131	e8 00 00 00 00	 call	 ?DGGuildAnsAssignType@@YAXPAUEXSDHP_GUILD_ASSIGN_TYPE_RESULT@@@Z ; DGGuildAnsAssignType
  00136	83 c4 04	 add	 esp, 4

; 86   : 			break;

  00139	e9 29 01 00 00	 jmp	 $LN40@ExDataServ
$LN21@ExDataServ:

; 87   : 		case 0xE5:
; 88   : 			DGRelationShipAnsJoin((EXSDHP_RELATIONSHIP_JOIN_RESULT *)aRecv);

  0013e	8b 45 0c	 mov	 eax, DWORD PTR _aRecv$[ebp]
  00141	50		 push	 eax
  00142	e8 00 00 00 00	 call	 ?DGRelationShipAnsJoin@@YAXPAUEXSDHP_RELATIONSHIP_JOIN_RESULT@@@Z ; DGRelationShipAnsJoin
  00147	83 c4 04	 add	 esp, 4

; 89   : 			break;

  0014a	e9 18 01 00 00	 jmp	 $LN40@ExDataServ
$LN20@ExDataServ:

; 90   : 		case 0xE6:
; 91   : 			DGRelationShipAnsBreakOff((EXSDHP_RELATIONSHIP_BREAKOFF_RESULT *)aRecv);

  0014f	8b 45 0c	 mov	 eax, DWORD PTR _aRecv$[ebp]
  00152	50		 push	 eax
  00153	e8 00 00 00 00	 call	 ?DGRelationShipAnsBreakOff@@YAXPAUEXSDHP_RELATIONSHIP_BREAKOFF_RESULT@@@Z ; DGRelationShipAnsBreakOff
  00158	83 c4 04	 add	 esp, 4

; 92   : 			break;

  0015b	e9 07 01 00 00	 jmp	 $LN40@ExDataServ
$LN19@ExDataServ:

; 93   : 		case 0xE7:
; 94   : 			DGRelationShipListRecv((EXSDHP_UNION_RELATIONSHIP_LIST *)aRecv);

  00160	8b 45 0c	 mov	 eax, DWORD PTR _aRecv$[ebp]
  00163	50		 push	 eax
  00164	e8 00 00 00 00	 call	 ?DGRelationShipListRecv@@YAXPAUEXSDHP_UNION_RELATIONSHIP_LIST@@@Z ; DGRelationShipListRecv
  00169	83 c4 04	 add	 esp, 4

; 95   : 			break;

  0016c	e9 f6 00 00 00	 jmp	 $LN40@ExDataServ
$LN18@ExDataServ:

; 96   : 		case 0xE8:
; 97   : 			DGRelationShipNotificationRecv((EXSDHP_NOTIFICATION_RELATIONSHIP *)aRecv);

  00171	8b 45 0c	 mov	 eax, DWORD PTR _aRecv$[ebp]
  00174	50		 push	 eax
  00175	e8 00 00 00 00	 call	 ?DGRelationShipNotificationRecv@@YAXPAUEXSDHP_NOTIFICATION_RELATIONSHIP@@@Z ; DGRelationShipNotificationRecv
  0017a	83 c4 04	 add	 esp, 4

; 98   : 			break;

  0017d	e9 e5 00 00 00	 jmp	 $LN40@ExDataServ
$LN17@ExDataServ:

; 99   : 		case 0xE9:
; 100  : 			DGUnionListRecv(aRecv);

  00182	8b 45 0c	 mov	 eax, DWORD PTR _aRecv$[ebp]
  00185	50		 push	 eax
  00186	e8 00 00 00 00	 call	 ?DGUnionListRecv@@YAXPAE@Z ; DGUnionListRecv
  0018b	83 c4 04	 add	 esp, 4

; 101  : 			break;

  0018e	e9 d4 00 00 00	 jmp	 $LN40@ExDataServ
$LN16@ExDataServ:

; 102  : 		case 0xEB:
; 103  : 			{
; 104  : 				PMSG_DEFAULT2 * lpDef = (PMSG_DEFAULT2 *)aRecv;

  00193	8b 45 0c	 mov	 eax, DWORD PTR _aRecv$[ebp]
  00196	89 45 fc	 mov	 DWORD PTR _lpDef$231900[ebp], eax

; 105  : 
; 106  : 				switch ( lpDef->subcode )

  00199	8b 45 fc	 mov	 eax, DWORD PTR _lpDef$231900[ebp]
  0019c	8a 48 03	 mov	 cl, BYTE PTR [eax+3]
  0019f	88 4d b8	 mov	 BYTE PTR tv89[ebp], cl
  001a2	80 7d b8 01	 cmp	 BYTE PTR tv89[ebp], 1
  001a6	74 02		 je	 SHORT $LN13@ExDataServ
  001a8	eb 0c		 jmp	 SHORT $LN14@ExDataServ
$LN13@ExDataServ:

; 107  : 				{
; 108  : 					case 0x01:
; 109  : 						DGRelationShipAnsKickOutUnionMember((EXSDHP_KICKOUT_UNIONMEMBER_RESULT *)aRecv);

  001aa	8b 45 0c	 mov	 eax, DWORD PTR _aRecv$[ebp]
  001ad	50		 push	 eax
  001ae	e8 00 00 00 00	 call	 ?DGRelationShipAnsKickOutUnionMember@@YAXPAUEXSDHP_KICKOUT_UNIONMEMBER_RESULT@@@Z ; DGRelationShipAnsKickOutUnionMember
  001b3	83 c4 04	 add	 esp, 4
$LN14@ExDataServ:

; 110  : 						break;
; 111  : 				}
; 112  : 			}
; 113  : 			break;

  001b6	e9 ac 00 00 00	 jmp	 $LN40@ExDataServ
$LN12@ExDataServ:

; 114  : 		case 0x60:
; 115  : 			FriendListResult(aRecv);

  001bb	8b 45 0c	 mov	 eax, DWORD PTR _aRecv$[ebp]
  001be	50		 push	 eax
  001bf	e8 00 00 00 00	 call	 ?FriendListResult@@YAXPAE@Z ; FriendListResult
  001c4	83 c4 04	 add	 esp, 4

; 116  : 			break;

  001c7	e9 9b 00 00 00	 jmp	 $LN40@ExDataServ
$LN11@ExDataServ:

; 117  : 		case 0x61:
; 118  : 			WaitFriendListResult((FHP_WAITFRIENDLIST_COUNT *)aRecv);

  001cc	8b 45 0c	 mov	 eax, DWORD PTR _aRecv$[ebp]
  001cf	50		 push	 eax
  001d0	e8 00 00 00 00	 call	 ?WaitFriendListResult@@YAXPAUFHP_WAITFRIENDLIST_COUNT@@@Z ; WaitFriendListResult
  001d5	83 c4 04	 add	 esp, 4

; 119  : 			break;

  001d8	e9 8a 00 00 00	 jmp	 $LN40@ExDataServ
$LN10@ExDataServ:

; 120  : 		case 0x62:
; 121  : 			FriendStateRecv((FHP_FRIEND_STATE *)aRecv);

  001dd	8b 45 0c	 mov	 eax, DWORD PTR _aRecv$[ebp]
  001e0	50		 push	 eax
  001e1	e8 00 00 00 00	 call	 ?FriendStateRecv@@YAXPAUFHP_FRIEND_STATE@@@Z ; FriendStateRecv
  001e6	83 c4 04	 add	 esp, 4

; 122  : 			break;

  001e9	eb 7c		 jmp	 SHORT $LN40@ExDataServ
$LN9@ExDataServ:

; 123  : 		case 0x63:
; 124  : 			FriendAddResult((FHP_FRIEND_ADD_RESULT *)aRecv);

  001eb	8b 45 0c	 mov	 eax, DWORD PTR _aRecv$[ebp]
  001ee	50		 push	 eax
  001ef	e8 00 00 00 00	 call	 ?FriendAddResult@@YAXPAUFHP_FRIEND_ADD_RESULT@@@Z ; FriendAddResult
  001f4	83 c4 04	 add	 esp, 4

; 125  : 			break;

  001f7	eb 6e		 jmp	 SHORT $LN40@ExDataServ
$LN8@ExDataServ:

; 126  : 		case 0x64:
; 127  : 			WaitFriendAddResult((FHP_WAITFRIEND_ADD_RESULT *)aRecv);

  001f9	8b 45 0c	 mov	 eax, DWORD PTR _aRecv$[ebp]
  001fc	50		 push	 eax
  001fd	e8 00 00 00 00	 call	 ?WaitFriendAddResult@@YAXPAUFHP_WAITFRIEND_ADD_RESULT@@@Z ; WaitFriendAddResult
  00202	83 c4 04	 add	 esp, 4

; 128  : 			break;

  00205	eb 60		 jmp	 SHORT $LN40@ExDataServ
$LN7@ExDataServ:

; 129  : 		case 0x65:
; 130  : 			FriendDelResult((FHP_FRIEND_DEL_RESULT *)aRecv);

  00207	8b 45 0c	 mov	 eax, DWORD PTR _aRecv$[ebp]
  0020a	50		 push	 eax
  0020b	e8 00 00 00 00	 call	 ?FriendDelResult@@YAXPAUFHP_FRIEND_DEL_RESULT@@@Z ; FriendDelResult
  00210	83 c4 04	 add	 esp, 4

; 131  : 			break;

  00213	eb 52		 jmp	 SHORT $LN40@ExDataServ
$LN6@ExDataServ:

; 132  : 		case 0x66:
; 133  : 			FriendChatRoomCreateResult((FHP_FRIEND_CHATROOM_CREATE_RESULT *)aRecv);

  00215	8b 45 0c	 mov	 eax, DWORD PTR _aRecv$[ebp]
  00218	50		 push	 eax
  00219	e8 00 00 00 00	 call	 ?FriendChatRoomCreateResult@@YAXPAUFHP_FRIEND_CHATROOM_CREATE_RESULT@@@Z ; FriendChatRoomCreateResult
  0021e	83 c4 04	 add	 esp, 4

; 134  : 			break;

  00221	eb 44		 jmp	 SHORT $LN40@ExDataServ
$LN5@ExDataServ:

; 135  : 		case 0x70:
; 136  : 			FriendMemoSendResult((FHP_FRIEND_MEMO_SEND_RESULT *)aRecv);

  00223	8b 45 0c	 mov	 eax, DWORD PTR _aRecv$[ebp]
  00226	50		 push	 eax
  00227	e8 00 00 00 00	 call	 ?FriendMemoSendResult@@YAXPAUFHP_FRIEND_MEMO_SEND_RESULT@@@Z ; FriendMemoSendResult
  0022c	83 c4 04	 add	 esp, 4

; 137  : 			break;

  0022f	eb 36		 jmp	 SHORT $LN40@ExDataServ
$LN4@ExDataServ:

; 138  : 		case 0x71:
; 139  : 			FriendMemoList((FHP_FRIEND_MEMO_LIST *)aRecv);

  00231	8b 45 0c	 mov	 eax, DWORD PTR _aRecv$[ebp]
  00234	50		 push	 eax
  00235	e8 00 00 00 00	 call	 ?FriendMemoList@@YAXPAUFHP_FRIEND_MEMO_LIST@@@Z ; FriendMemoList
  0023a	83 c4 04	 add	 esp, 4

; 140  : 			break;

  0023d	eb 28		 jmp	 SHORT $LN40@ExDataServ
$LN3@ExDataServ:

; 141  : 		case 0x72:
; 142  : 			FriendMemoRead((FHP_FRIEND_MEMO_RECV *)aRecv);

  0023f	8b 45 0c	 mov	 eax, DWORD PTR _aRecv$[ebp]
  00242	50		 push	 eax
  00243	e8 00 00 00 00	 call	 ?FriendMemoRead@@YAXPAUFHP_FRIEND_MEMO_RECV@@@Z ; FriendMemoRead
  00248	83 c4 04	 add	 esp, 4

; 143  : 			break;

  0024b	eb 1a		 jmp	 SHORT $LN40@ExDataServ
$LN2@ExDataServ:

; 144  : 		case 0x73:
; 145  : 			FriendMemoDelResult((FHP_FRIEND_MEMO_DEL_RESULT *)aRecv);

  0024d	8b 45 0c	 mov	 eax, DWORD PTR _aRecv$[ebp]
  00250	50		 push	 eax
  00251	e8 00 00 00 00	 call	 ?FriendMemoDelResult@@YAXPAUFHP_FRIEND_MEMO_DEL_RESULT@@@Z ; FriendMemoDelResult
  00256	83 c4 04	 add	 esp, 4

; 146  : 			break;

  00259	eb 0c		 jmp	 SHORT $LN40@ExDataServ
$LN1@ExDataServ:

; 147  : 		case 0x74:
; 148  : 			FriendRoomInvitationRecv((FHP_FRIEND_INVITATION_RET *)aRecv);

  0025b	8b 45 0c	 mov	 eax, DWORD PTR _aRecv$[ebp]
  0025e	50		 push	 eax
  0025f	e8 00 00 00 00	 call	 ?FriendRoomInvitationRecv@@YAXPAUFHP_FRIEND_INVITATION_RET@@@Z ; FriendRoomInvitationRecv
  00264	83 c4 04	 add	 esp, 4
$LN40@ExDataServ:

; 149  : 			break;
; 150  : 	}
; 151  : }

  00267	5f		 pop	 edi
  00268	5e		 pop	 esi
  00269	5b		 pop	 ebx
  0026a	8b e5		 mov	 esp, ebp
  0026c	5d		 pop	 ebp
  0026d	c3		 ret	 0
  0026e	8b ff		 npad	 2
$LN43@ExDataServ:
  00270	00 00 00 00	 DD	 $LN37@ExDataServ
  00274	00 00 00 00	 DD	 $LN36@ExDataServ
  00278	00 00 00 00	 DD	 $LN35@ExDataServ
  0027c	00 00 00 00	 DD	 $LN34@ExDataServ
  00280	00 00 00 00	 DD	 $LN33@ExDataServ
  00284	00 00 00 00	 DD	 $LN32@ExDataServ
  00288	00 00 00 00	 DD	 $LN31@ExDataServ
  0028c	00 00 00 00	 DD	 $LN30@ExDataServ
  00290	00 00 00 00	 DD	 $LN29@ExDataServ
  00294	00 00 00 00	 DD	 $LN28@ExDataServ
  00298	00 00 00 00	 DD	 $LN27@ExDataServ
  0029c	00 00 00 00	 DD	 $LN26@ExDataServ
  002a0	00 00 00 00	 DD	 $LN25@ExDataServ
  002a4	00 00 00 00	 DD	 $LN24@ExDataServ
  002a8	00 00 00 00	 DD	 $LN12@ExDataServ
  002ac	00 00 00 00	 DD	 $LN11@ExDataServ
  002b0	00 00 00 00	 DD	 $LN10@ExDataServ
  002b4	00 00 00 00	 DD	 $LN9@ExDataServ
  002b8	00 00 00 00	 DD	 $LN8@ExDataServ
  002bc	00 00 00 00	 DD	 $LN7@ExDataServ
  002c0	00 00 00 00	 DD	 $LN6@ExDataServ
  002c4	00 00 00 00	 DD	 $LN5@ExDataServ
  002c8	00 00 00 00	 DD	 $LN4@ExDataServ
  002cc	00 00 00 00	 DD	 $LN3@ExDataServ
  002d0	00 00 00 00	 DD	 $LN2@ExDataServ
  002d4	00 00 00 00	 DD	 $LN1@ExDataServ
  002d8	00 00 00 00	 DD	 $LN23@ExDataServ
  002dc	00 00 00 00	 DD	 $LN22@ExDataServ
  002e0	00 00 00 00	 DD	 $LN21@ExDataServ
  002e4	00 00 00 00	 DD	 $LN20@ExDataServ
  002e8	00 00 00 00	 DD	 $LN19@ExDataServ
  002ec	00 00 00 00	 DD	 $LN18@ExDataServ
  002f0	00 00 00 00	 DD	 $LN17@ExDataServ
  002f4	00 00 00 00	 DD	 $LN16@ExDataServ
  002f8	00 00 00 00	 DD	 $LN40@ExDataServ
$LN42@ExDataServ:
  002fc	00		 DB	 0
  002fd	22		 DB	 34			; 00000022H
  002fe	01		 DB	 1
  002ff	22		 DB	 34			; 00000022H
  00300	22		 DB	 34			; 00000022H
  00301	22		 DB	 34			; 00000022H
  00302	22		 DB	 34			; 00000022H
  00303	22		 DB	 34			; 00000022H
  00304	22		 DB	 34			; 00000022H
  00305	22		 DB	 34			; 00000022H
  00306	22		 DB	 34			; 00000022H
  00307	22		 DB	 34			; 00000022H
  00308	22		 DB	 34			; 00000022H
  00309	22		 DB	 34			; 00000022H
  0030a	22		 DB	 34			; 00000022H
  0030b	22		 DB	 34			; 00000022H
  0030c	22		 DB	 34			; 00000022H
  0030d	22		 DB	 34			; 00000022H
  0030e	22		 DB	 34			; 00000022H
  0030f	22		 DB	 34			; 00000022H
  00310	22		 DB	 34			; 00000022H
  00311	22		 DB	 34			; 00000022H
  00312	22		 DB	 34			; 00000022H
  00313	22		 DB	 34			; 00000022H
  00314	22		 DB	 34			; 00000022H
  00315	22		 DB	 34			; 00000022H
  00316	22		 DB	 34			; 00000022H
  00317	22		 DB	 34			; 00000022H
  00318	22		 DB	 34			; 00000022H
  00319	22		 DB	 34			; 00000022H
  0031a	22		 DB	 34			; 00000022H
  0031b	22		 DB	 34			; 00000022H
  0031c	22		 DB	 34			; 00000022H
  0031d	22		 DB	 34			; 00000022H
  0031e	22		 DB	 34			; 00000022H
  0031f	22		 DB	 34			; 00000022H
  00320	22		 DB	 34			; 00000022H
  00321	22		 DB	 34			; 00000022H
  00322	22		 DB	 34			; 00000022H
  00323	22		 DB	 34			; 00000022H
  00324	22		 DB	 34			; 00000022H
  00325	22		 DB	 34			; 00000022H
  00326	22		 DB	 34			; 00000022H
  00327	22		 DB	 34			; 00000022H
  00328	22		 DB	 34			; 00000022H
  00329	22		 DB	 34			; 00000022H
  0032a	22		 DB	 34			; 00000022H
  0032b	22		 DB	 34			; 00000022H
  0032c	02		 DB	 2
  0032d	03		 DB	 3
  0032e	04		 DB	 4
  0032f	05		 DB	 5
  00330	22		 DB	 34			; 00000022H
  00331	06		 DB	 6
  00332	07		 DB	 7
  00333	08		 DB	 8
  00334	09		 DB	 9
  00335	22		 DB	 34			; 00000022H
  00336	22		 DB	 34			; 00000022H
  00337	22		 DB	 34			; 00000022H
  00338	22		 DB	 34			; 00000022H
  00339	22		 DB	 34			; 00000022H
  0033a	22		 DB	 34			; 00000022H
  0033b	22		 DB	 34			; 00000022H
  0033c	0a		 DB	 10			; 0000000aH
  0033d	0b		 DB	 11			; 0000000bH
  0033e	22		 DB	 34			; 00000022H
  0033f	22		 DB	 34			; 00000022H
  00340	22		 DB	 34			; 00000022H
  00341	22		 DB	 34			; 00000022H
  00342	22		 DB	 34			; 00000022H
  00343	22		 DB	 34			; 00000022H
  00344	22		 DB	 34			; 00000022H
  00345	22		 DB	 34			; 00000022H
  00346	22		 DB	 34			; 00000022H
  00347	22		 DB	 34			; 00000022H
  00348	22		 DB	 34			; 00000022H
  00349	22		 DB	 34			; 00000022H
  0034a	22		 DB	 34			; 00000022H
  0034b	22		 DB	 34			; 00000022H
  0034c	0c		 DB	 12			; 0000000cH
  0034d	0d		 DB	 13			; 0000000dH
  0034e	22		 DB	 34			; 00000022H
  0034f	22		 DB	 34			; 00000022H
  00350	22		 DB	 34			; 00000022H
  00351	22		 DB	 34			; 00000022H
  00352	22		 DB	 34			; 00000022H
  00353	22		 DB	 34			; 00000022H
  00354	22		 DB	 34			; 00000022H
  00355	22		 DB	 34			; 00000022H
  00356	22		 DB	 34			; 00000022H
  00357	22		 DB	 34			; 00000022H
  00358	22		 DB	 34			; 00000022H
  00359	22		 DB	 34			; 00000022H
  0035a	22		 DB	 34			; 00000022H
  0035b	22		 DB	 34			; 00000022H
  0035c	0e		 DB	 14			; 0000000eH
  0035d	0f		 DB	 15			; 0000000fH
  0035e	10		 DB	 16			; 00000010H
  0035f	11		 DB	 17			; 00000011H
  00360	12		 DB	 18			; 00000012H
  00361	13		 DB	 19			; 00000013H
  00362	14		 DB	 20			; 00000014H
  00363	22		 DB	 34			; 00000022H
  00364	22		 DB	 34			; 00000022H
  00365	22		 DB	 34			; 00000022H
  00366	22		 DB	 34			; 00000022H
  00367	22		 DB	 34			; 00000022H
  00368	22		 DB	 34			; 00000022H
  00369	22		 DB	 34			; 00000022H
  0036a	22		 DB	 34			; 00000022H
  0036b	22		 DB	 34			; 00000022H
  0036c	15		 DB	 21			; 00000015H
  0036d	16		 DB	 22			; 00000016H
  0036e	17		 DB	 23			; 00000017H
  0036f	18		 DB	 24			; 00000018H
  00370	19		 DB	 25			; 00000019H
  00371	22		 DB	 34			; 00000022H
  00372	22		 DB	 34			; 00000022H
  00373	22		 DB	 34			; 00000022H
  00374	22		 DB	 34			; 00000022H
  00375	22		 DB	 34			; 00000022H
  00376	22		 DB	 34			; 00000022H
  00377	22		 DB	 34			; 00000022H
  00378	22		 DB	 34			; 00000022H
  00379	22		 DB	 34			; 00000022H
  0037a	22		 DB	 34			; 00000022H
  0037b	22		 DB	 34			; 00000022H
  0037c	22		 DB	 34			; 00000022H
  0037d	22		 DB	 34			; 00000022H
  0037e	22		 DB	 34			; 00000022H
  0037f	22		 DB	 34			; 00000022H
  00380	22		 DB	 34			; 00000022H
  00381	22		 DB	 34			; 00000022H
  00382	22		 DB	 34			; 00000022H
  00383	22		 DB	 34			; 00000022H
  00384	22		 DB	 34			; 00000022H
  00385	22		 DB	 34			; 00000022H
  00386	22		 DB	 34			; 00000022H
  00387	22		 DB	 34			; 00000022H
  00388	22		 DB	 34			; 00000022H
  00389	22		 DB	 34			; 00000022H
  0038a	22		 DB	 34			; 00000022H
  0038b	22		 DB	 34			; 00000022H
  0038c	22		 DB	 34			; 00000022H
  0038d	22		 DB	 34			; 00000022H
  0038e	22		 DB	 34			; 00000022H
  0038f	22		 DB	 34			; 00000022H
  00390	22		 DB	 34			; 00000022H
  00391	22		 DB	 34			; 00000022H
  00392	22		 DB	 34			; 00000022H
  00393	22		 DB	 34			; 00000022H
  00394	22		 DB	 34			; 00000022H
  00395	22		 DB	 34			; 00000022H
  00396	22		 DB	 34			; 00000022H
  00397	22		 DB	 34			; 00000022H
  00398	22		 DB	 34			; 00000022H
  00399	22		 DB	 34			; 00000022H
  0039a	22		 DB	 34			; 00000022H
  0039b	22		 DB	 34			; 00000022H
  0039c	22		 DB	 34			; 00000022H
  0039d	22		 DB	 34			; 00000022H
  0039e	22		 DB	 34			; 00000022H
  0039f	22		 DB	 34			; 00000022H
  003a0	22		 DB	 34			; 00000022H
  003a1	22		 DB	 34			; 00000022H
  003a2	22		 DB	 34			; 00000022H
  003a3	22		 DB	 34			; 00000022H
  003a4	22		 DB	 34			; 00000022H
  003a5	22		 DB	 34			; 00000022H
  003a6	22		 DB	 34			; 00000022H
  003a7	22		 DB	 34			; 00000022H
  003a8	22		 DB	 34			; 00000022H
  003a9	22		 DB	 34			; 00000022H
  003aa	22		 DB	 34			; 00000022H
  003ab	22		 DB	 34			; 00000022H
  003ac	22		 DB	 34			; 00000022H
  003ad	22		 DB	 34			; 00000022H
  003ae	22		 DB	 34			; 00000022H
  003af	22		 DB	 34			; 00000022H
  003b0	22		 DB	 34			; 00000022H
  003b1	22		 DB	 34			; 00000022H
  003b2	22		 DB	 34			; 00000022H
  003b3	22		 DB	 34			; 00000022H
  003b4	22		 DB	 34			; 00000022H
  003b5	22		 DB	 34			; 00000022H
  003b6	22		 DB	 34			; 00000022H
  003b7	22		 DB	 34			; 00000022H
  003b8	22		 DB	 34			; 00000022H
  003b9	22		 DB	 34			; 00000022H
  003ba	22		 DB	 34			; 00000022H
  003bb	22		 DB	 34			; 00000022H
  003bc	22		 DB	 34			; 00000022H
  003bd	22		 DB	 34			; 00000022H
  003be	22		 DB	 34			; 00000022H
  003bf	22		 DB	 34			; 00000022H
  003c0	22		 DB	 34			; 00000022H
  003c1	22		 DB	 34			; 00000022H
  003c2	22		 DB	 34			; 00000022H
  003c3	22		 DB	 34			; 00000022H
  003c4	22		 DB	 34			; 00000022H
  003c5	22		 DB	 34			; 00000022H
  003c6	22		 DB	 34			; 00000022H
  003c7	22		 DB	 34			; 00000022H
  003c8	22		 DB	 34			; 00000022H
  003c9	22		 DB	 34			; 00000022H
  003ca	22		 DB	 34			; 00000022H
  003cb	22		 DB	 34			; 00000022H
  003cc	22		 DB	 34			; 00000022H
  003cd	22		 DB	 34			; 00000022H
  003ce	22		 DB	 34			; 00000022H
  003cf	22		 DB	 34			; 00000022H
  003d0	22		 DB	 34			; 00000022H
  003d1	22		 DB	 34			; 00000022H
  003d2	22		 DB	 34			; 00000022H
  003d3	22		 DB	 34			; 00000022H
  003d4	22		 DB	 34			; 00000022H
  003d5	22		 DB	 34			; 00000022H
  003d6	22		 DB	 34			; 00000022H
  003d7	22		 DB	 34			; 00000022H
  003d8	22		 DB	 34			; 00000022H
  003d9	22		 DB	 34			; 00000022H
  003da	22		 DB	 34			; 00000022H
  003db	22		 DB	 34			; 00000022H
  003dc	22		 DB	 34			; 00000022H
  003dd	1a		 DB	 26			; 0000001aH
  003de	1b		 DB	 27			; 0000001bH
  003df	22		 DB	 34			; 00000022H
  003e0	22		 DB	 34			; 00000022H
  003e1	1c		 DB	 28			; 0000001cH
  003e2	1d		 DB	 29			; 0000001dH
  003e3	1e		 DB	 30			; 0000001eH
  003e4	1f		 DB	 31			; 0000001fH
  003e5	20		 DB	 32			; 00000020H
  003e6	22		 DB	 34			; 00000022H
  003e7	21		 DB	 33			; 00000021H
?ExDataServerProtocolCore@@YAXEPAEH@Z ENDP		; ExDataServerProtocolCore
_TEXT	ENDS
PUBLIC	__$ArrayPad$
PUBLIC	?ExDataServerLogin@@YAXXZ			; ExDataServerLogin
EXTRN	?DataSend@wsJoinServerCli@@QAEHPADH@Z:PROC	; wsJoinServerCli::DataSend
EXTRN	?wsExDbCli@@3VwsJoinServerCli@@A:BYTE		; wsExDbCli
EXTRN	_strcpy:PROC
EXTRN	?szServerName@@3PADA:BYTE			; szServerName
EXTRN	?gGameServerCode@@3FA:WORD			; gGameServerCode
EXTRN	?GameServerPort@@3HA:DWORD			; GameServerPort
EXTRN	___security_cookie:DWORD
EXTRN	@__security_check_cookie@4:PROC
; Function compile flags: /Odtp /ZI
_TEXT	SEGMENT
_pInfo$ = -64						; size = 58
__$ArrayPad$ = -4					; size = 4
?ExDataServerLogin@@YAXXZ PROC				; ExDataServerLogin

; 154  : {

  003f0	55		 push	 ebp
  003f1	8b ec		 mov	 ebp, esp
  003f3	81 ec 80 00 00
	00		 sub	 esp, 128		; 00000080H
  003f9	a1 00 00 00 00	 mov	 eax, DWORD PTR ___security_cookie
  003fe	33 c5		 xor	 eax, ebp
  00400	89 45 fc	 mov	 DWORD PTR __$ArrayPad$[ebp], eax
  00403	53		 push	 ebx
  00404	56		 push	 esi
  00405	57		 push	 edi

; 155  : 	SDHP_SERVERINFO pInfo;
; 156  : 
; 157  : 	pInfo.h.c = 0xC1;

  00406	c6 45 c0 c1	 mov	 BYTE PTR _pInfo$[ebp], 193 ; 000000c1H

; 158  : 	pInfo.h.size = sizeof(SDHP_SERVERINFO);

  0040a	c6 45 c1 3a	 mov	 BYTE PTR _pInfo$[ebp+1], 58 ; 0000003aH

; 159  : 	pInfo.h.headcode = 0x00;

  0040e	c6 45 c2 00	 mov	 BYTE PTR _pInfo$[ebp+2], 0

; 160  : 	pInfo.Port = GameServerPort;

  00412	66 a1 00 00 00
	00		 mov	 ax, WORD PTR ?GameServerPort@@3HA
  00418	66 89 45 c4	 mov	 WORD PTR _pInfo$[ebp+4], ax

; 161  : 	pInfo.Type = 0x01;

  0041c	c6 45 c3 01	 mov	 BYTE PTR _pInfo$[ebp+3], 1

; 162  : 	pInfo.ServerCode = gGameServerCode;

  00420	66 a1 00 00 00
	00		 mov	 ax, WORD PTR ?gGameServerCode@@3FA ; gGameServerCode
  00426	66 89 45 f8	 mov	 WORD PTR _pInfo$[ebp+56], ax

; 163  : 	strcpy(pInfo.ServerName, szServerName);

  0042a	68 00 00 00 00	 push	 OFFSET ?szServerName@@3PADA ; szServerName
  0042f	8d 45 c6	 lea	 eax, DWORD PTR _pInfo$[ebp+6]
  00432	50		 push	 eax
  00433	e8 00 00 00 00	 call	 _strcpy
  00438	83 c4 08	 add	 esp, 8

; 164  : 
; 165  : 	wsExDbCli.DataSend((char*)&pInfo, pInfo.h.size);

  0043b	0f b6 45 c1	 movzx	 eax, BYTE PTR _pInfo$[ebp+1]
  0043f	50		 push	 eax
  00440	8d 4d c0	 lea	 ecx, DWORD PTR _pInfo$[ebp]
  00443	51		 push	 ecx
  00444	b9 00 00 00 00	 mov	 ecx, OFFSET ?wsExDbCli@@3VwsJoinServerCli@@A ; wsExDbCli
  00449	e8 00 00 00 00	 call	 ?DataSend@wsJoinServerCli@@QAEHPADH@Z ; wsJoinServerCli::DataSend

; 166  : }

  0044e	5f		 pop	 edi
  0044f	5e		 pop	 esi
  00450	5b		 pop	 ebx
  00451	8b 4d fc	 mov	 ecx, DWORD PTR __$ArrayPad$[ebp]
  00454	33 cd		 xor	 ecx, ebp
  00456	e8 00 00 00 00	 call	 @__security_check_cookie@4
  0045b	8b e5		 mov	 esp, ebp
  0045d	5d		 pop	 ebp
  0045e	c3		 ret	 0
?ExDataServerLogin@@YAXXZ ENDP				; ExDataServerLogin
_TEXT	ENDS
PUBLIC	__$ArrayPad$
PUBLIC	?GDCharClose@@YAXHPAD0@Z			; GDCharClose
EXTRN	_memset:PROC
EXTRN	_memcpy:PROC
; Function compile flags: /Odtp /ZI
_TEXT	SEGMENT
_pMsg$ = -28						; size = 22
__$ArrayPad$ = -4					; size = 4
_type$ = 8						; size = 4
_GuildName$ = 12					; size = 4
_Name$ = 16						; size = 4
?GDCharClose@@YAXHPAD0@Z PROC				; GDCharClose

; 169  : {

  00460	55		 push	 ebp
  00461	8b ec		 mov	 ebp, esp
  00463	83 ec 5c	 sub	 esp, 92			; 0000005cH
  00466	a1 00 00 00 00	 mov	 eax, DWORD PTR ___security_cookie
  0046b	33 c5		 xor	 eax, ebp
  0046d	89 45 fc	 mov	 DWORD PTR __$ArrayPad$[ebp], eax
  00470	53		 push	 ebx
  00471	56		 push	 esi
  00472	57		 push	 edi

; 170  : 	SDHP_USERCLOSE pMsg;
; 171  : 
; 172  : 	pMsg.h.c = 0xC1;

  00473	c6 45 e4 c1	 mov	 BYTE PTR _pMsg$[ebp], 193 ; 000000c1H

; 173  : 	pMsg.h.size = sizeof(pMsg);

  00477	c6 45 e5 16	 mov	 BYTE PTR _pMsg$[ebp+1], 22 ; 00000016H

; 174  : 	pMsg.h.headcode = 0x02;

  0047b	c6 45 e6 02	 mov	 BYTE PTR _pMsg$[ebp+2], 2

; 175  : 	pMsg.Type = type;

  0047f	8a 45 08	 mov	 al, BYTE PTR _type$[ebp]
  00482	88 45 f9	 mov	 BYTE PTR _pMsg$[ebp+21], al

; 176  : 	memcpy(pMsg.CharName, Name, sizeof(pMsg.CharName));

  00485	6a 0a		 push	 10			; 0000000aH
  00487	8b 45 10	 mov	 eax, DWORD PTR _Name$[ebp]
  0048a	50		 push	 eax
  0048b	8d 4d e7	 lea	 ecx, DWORD PTR _pMsg$[ebp+3]
  0048e	51		 push	 ecx
  0048f	e8 00 00 00 00	 call	 _memcpy
  00494	83 c4 0c	 add	 esp, 12			; 0000000cH

; 177  : 	memset(pMsg.GuildName, 0, sizeof(pMsg.GuildName));

  00497	6a 08		 push	 8
  00499	6a 00		 push	 0
  0049b	8d 45 f1	 lea	 eax, DWORD PTR _pMsg$[ebp+13]
  0049e	50		 push	 eax
  0049f	e8 00 00 00 00	 call	 _memset
  004a4	83 c4 0c	 add	 esp, 12			; 0000000cH

; 178  : 
; 179  : 	if ( GuildName != NULL )

  004a7	83 7d 0c 00	 cmp	 DWORD PTR _GuildName$[ebp], 0
  004ab	74 12		 je	 SHORT $LN1@GDCharClos

; 180  : 	{
; 181  : 		memcpy(pMsg.GuildName, GuildName, sizeof(pMsg.GuildName));

  004ad	6a 08		 push	 8
  004af	8b 45 0c	 mov	 eax, DWORD PTR _GuildName$[ebp]
  004b2	50		 push	 eax
  004b3	8d 4d f1	 lea	 ecx, DWORD PTR _pMsg$[ebp+13]
  004b6	51		 push	 ecx
  004b7	e8 00 00 00 00	 call	 _memcpy
  004bc	83 c4 0c	 add	 esp, 12			; 0000000cH
$LN1@GDCharClos:

; 182  : 	}
; 183  : 
; 184  : 	wsExDbCli.DataSend((char*)&pMsg, pMsg.h.size);

  004bf	0f b6 45 e5	 movzx	 eax, BYTE PTR _pMsg$[ebp+1]
  004c3	50		 push	 eax
  004c4	8d 4d e4	 lea	 ecx, DWORD PTR _pMsg$[ebp]
  004c7	51		 push	 ecx
  004c8	b9 00 00 00 00	 mov	 ecx, OFFSET ?wsExDbCli@@3VwsJoinServerCli@@A ; wsExDbCli
  004cd	e8 00 00 00 00	 call	 ?DataSend@wsJoinServerCli@@QAEHPADH@Z ; wsJoinServerCli::DataSend

; 185  : }

  004d2	5f		 pop	 edi
  004d3	5e		 pop	 esi
  004d4	5b		 pop	 ebx
  004d5	8b 4d fc	 mov	 ecx, DWORD PTR __$ArrayPad$[ebp]
  004d8	33 cd		 xor	 ecx, ebp
  004da	e8 00 00 00 00	 call	 @__security_check_cookie@4
  004df	8b e5		 mov	 esp, ebp
  004e1	5d		 pop	 ebp
  004e2	c3		 ret	 0
?GDCharClose@@YAXHPAD0@Z ENDP				; GDCharClose
_TEXT	ENDS
PUBLIC	??_C@_0BL@MLPIPIDH@ExDB?5Server?5Login?5Fail?3?5?$CFd?$AA@ ; `string'
EXTRN	?gObj@@3PAUOBJECTSTRUCT@@A:DWORD		; gObj
EXTRN	?gObjIsConnectedGP@@YAHH@Z:PROC			; gObjIsConnectedGP
EXTRN	?LogAddTD@@3P6AXPADZZA:DWORD			; LogAddTD
;	COMDAT ??_C@_0BL@MLPIPIDH@ExDB?5Server?5Login?5Fail?3?5?$CFd?$AA@
CONST	SEGMENT
??_C@_0BL@MLPIPIDH@ExDB?5Server?5Login?5Fail?3?5?$CFd?$AA@ DB 'ExDB Serve'
	DB	'r Login Fail: %d', 00H			; `string'
; Function compile flags: /Odtp /ZI
CONST	ENDS
_TEXT	SEGMENT
_i$231949 = -4						; size = 4
_lpMsg$ = 8						; size = 4
?ExDataServerLoginResult@@YAXPAUSDHP_RESULT@@@Z PROC	; ExDataServerLoginResult

; 188  : {

  004f0	55		 push	 ebp
  004f1	8b ec		 mov	 ebp, esp
  004f3	83 ec 44	 sub	 esp, 68			; 00000044H
  004f6	53		 push	 ebx
  004f7	56		 push	 esi
  004f8	57		 push	 edi

; 189  : 	if ( lpMsg->Result == false )

  004f9	8b 45 08	 mov	 eax, DWORD PTR _lpMsg$[ebp]
  004fc	0f b6 48 03	 movzx	 ecx, BYTE PTR [eax+3]
  00500	85 c9		 test	 ecx, ecx
  00502	75 18		 jne	 SHORT $LN6@ExDataServ@2

; 190  : 	{
; 191  : 		LogAddTD("ExDB Server Login Fail: %d", lpMsg->Result);

  00504	8b 45 08	 mov	 eax, DWORD PTR _lpMsg$[ebp]
  00507	0f b6 48 03	 movzx	 ecx, BYTE PTR [eax+3]
  0050b	51		 push	 ecx
  0050c	68 00 00 00 00	 push	 OFFSET ??_C@_0BL@MLPIPIDH@ExDB?5Server?5Login?5Fail?3?5?$CFd?$AA@
  00511	ff 15 00 00 00
	00		 call	 DWORD PTR ?LogAddTD@@3P6AXPADZZA ; LogAddTD
  00517	83 c4 08	 add	 esp, 8

; 192  : 		return;

  0051a	eb 61		 jmp	 SHORT $LN7@ExDataServ@2
$LN6@ExDataServ@2:

; 193  : 	}
; 194  : 
; 195  : 	for (int i=0;i<OBJMAX;i++)

  0051c	c7 45 fc 00 00
	00 00		 mov	 DWORD PTR _i$231949[ebp], 0
  00523	eb 09		 jmp	 SHORT $LN5@ExDataServ@2
$LN4@ExDataServ@2:
  00525	8b 45 fc	 mov	 eax, DWORD PTR _i$231949[ebp]
  00528	83 c0 01	 add	 eax, 1
  0052b	89 45 fc	 mov	 DWORD PTR _i$231949[ebp], eax
$LN5@ExDataServ@2:
  0052e	81 7d fc 98 3a
	00 00		 cmp	 DWORD PTR _i$231949[ebp], 15000 ; 00003a98H
  00535	7d 46		 jge	 SHORT $LN7@ExDataServ@2

; 196  : 	{
; 197  : 		if ( gObjIsConnectedGP(i) == TRUE )

  00537	8b 45 fc	 mov	 eax, DWORD PTR _i$231949[ebp]
  0053a	50		 push	 eax
  0053b	e8 00 00 00 00	 call	 ?gObjIsConnectedGP@@YAHH@Z ; gObjIsConnectedGP
  00540	83 c4 04	 add	 esp, 4
  00543	83 f8 01	 cmp	 eax, 1
  00546	75 33		 jne	 SHORT $LN2@ExDataServ@2

; 198  : 		{
; 199  : 			if ( gObj[i].m_FriendServerOnline == FRIEND_SERVER_STATE_OFFLINE )

  00548	8b 45 fc	 mov	 eax, DWORD PTR _i$231949[ebp]
  0054b	69 c0 38 2b 00
	00		 imul	 eax, 11064		; 00002b38H
  00551	8b 0d 00 00 00
	00		 mov	 ecx, DWORD PTR ?gObj@@3PAUOBJECTSTRUCT@@A ; gObj
  00557	0f b6 94 01 70
	03 00 00	 movzx	 edx, BYTE PTR [ecx+eax+880]
  0055f	83 fa 01	 cmp	 edx, 1
  00562	75 17		 jne	 SHORT $LN2@ExDataServ@2

; 200  : 			{
; 201  : 				gObj[i].m_FriendServerOnline = FALSE;

  00564	8b 45 fc	 mov	 eax, DWORD PTR _i$231949[ebp]
  00567	69 c0 38 2b 00
	00		 imul	 eax, 11064		; 00002b38H
  0056d	8b 0d 00 00 00
	00		 mov	 ecx, DWORD PTR ?gObj@@3PAUOBJECTSTRUCT@@A ; gObj
  00573	c6 84 01 70 03
	00 00 00	 mov	 BYTE PTR [ecx+eax+880], 0
$LN2@ExDataServ@2:

; 202  : 			}
; 203  : 		}
; 204  : 	}

  0057b	eb a8		 jmp	 SHORT $LN4@ExDataServ@2
$LN7@ExDataServ@2:

; 205  : 	
; 206  : }

  0057d	5f		 pop	 edi
  0057e	5e		 pop	 esi
  0057f	5b		 pop	 ebx
  00580	8b e5		 mov	 esp, ebp
  00582	5d		 pop	 ebp
  00583	c3		 ret	 0
?ExDataServerLoginResult@@YAXPAUSDHP_RESULT@@@Z ENDP	; ExDataServerLoginResult
_TEXT	ENDS
PUBLIC	__$ArrayPad$
EXTRN	?CloseMember@CGuildClass@@QAEHPAD0@Z:PROC	; CGuildClass::CloseMember
EXTRN	?Guild@@3VCGuildClass@@A:BYTE			; Guild
; Function compile flags: /Odtp /ZI
_TEXT	SEGMENT
_szGuildName$ = -28					; size = 9
_szName$ = -16						; size = 11
__$ArrayPad$ = -4					; size = 4
_lpMsg$ = 8						; size = 4
?GDCharCloseRecv@@YAXPAUSDHP_USERCLOSE@@@Z PROC		; GDCharCloseRecv

; 209  : {

  00590	55		 push	 ebp
  00591	8b ec		 mov	 ebp, esp
  00593	83 ec 5c	 sub	 esp, 92			; 0000005cH
  00596	a1 00 00 00 00	 mov	 eax, DWORD PTR ___security_cookie
  0059b	33 c5		 xor	 eax, ebp
  0059d	89 45 fc	 mov	 DWORD PTR __$ArrayPad$[ebp], eax
  005a0	53		 push	 ebx
  005a1	56		 push	 esi
  005a2	57		 push	 edi

; 210  : 	char szName[MAX_ACCOUNT_LEN+1];
; 211  : 	char szGuildName[MAX_GUILD_LEN+1];
; 212  : 
; 213  : 	memset(szName, 0, sizeof(szName));

  005a3	6a 0b		 push	 11			; 0000000bH
  005a5	6a 00		 push	 0
  005a7	8d 45 f0	 lea	 eax, DWORD PTR _szName$[ebp]
  005aa	50		 push	 eax
  005ab	e8 00 00 00 00	 call	 _memset
  005b0	83 c4 0c	 add	 esp, 12			; 0000000cH

; 214  : 	memset(szGuildName, 0, sizeof(szGuildName));

  005b3	6a 09		 push	 9
  005b5	6a 00		 push	 0
  005b7	8d 45 e4	 lea	 eax, DWORD PTR _szGuildName$[ebp]
  005ba	50		 push	 eax
  005bb	e8 00 00 00 00	 call	 _memset
  005c0	83 c4 0c	 add	 esp, 12			; 0000000cH

; 215  : 	memcpy(szName, lpMsg->CharName, sizeof(lpMsg->CharName));

  005c3	6a 0a		 push	 10			; 0000000aH
  005c5	8b 45 08	 mov	 eax, DWORD PTR _lpMsg$[ebp]
  005c8	83 c0 03	 add	 eax, 3
  005cb	50		 push	 eax
  005cc	8d 4d f0	 lea	 ecx, DWORD PTR _szName$[ebp]
  005cf	51		 push	 ecx
  005d0	e8 00 00 00 00	 call	 _memcpy
  005d5	83 c4 0c	 add	 esp, 12			; 0000000cH

; 216  : 	memcpy(szGuildName, lpMsg->GuildName, sizeof(lpMsg->GuildName));

  005d8	6a 08		 push	 8
  005da	8b 45 08	 mov	 eax, DWORD PTR _lpMsg$[ebp]
  005dd	83 c0 0d	 add	 eax, 13			; 0000000dH
  005e0	50		 push	 eax
  005e1	8d 4d e4	 lea	 ecx, DWORD PTR _szGuildName$[ebp]
  005e4	51		 push	 ecx
  005e5	e8 00 00 00 00	 call	 _memcpy
  005ea	83 c4 0c	 add	 esp, 12			; 0000000cH

; 217  : 
; 218  : 	Guild.CloseMember(szGuildName, szName);

  005ed	8d 45 f0	 lea	 eax, DWORD PTR _szName$[ebp]
  005f0	50		 push	 eax
  005f1	8d 4d e4	 lea	 ecx, DWORD PTR _szGuildName$[ebp]
  005f4	51		 push	 ecx
  005f5	b9 00 00 00 00	 mov	 ecx, OFFSET ?Guild@@3VCGuildClass@@A ; Guild
  005fa	e8 00 00 00 00	 call	 ?CloseMember@CGuildClass@@QAEHPAD0@Z ; CGuildClass::CloseMember

; 219  : }

  005ff	5f		 pop	 edi
  00600	5e		 pop	 esi
  00601	5b		 pop	 ebx
  00602	8b 4d fc	 mov	 ecx, DWORD PTR __$ArrayPad$[ebp]
  00605	33 cd		 xor	 ecx, ebp
  00607	e8 00 00 00 00	 call	 @__security_check_cookie@4
  0060c	8b e5		 mov	 esp, ebp
  0060e	5d		 pop	 ebp
  0060f	c3		 ret	 0
?GDCharCloseRecv@@YAXPAUSDHP_USERCLOSE@@@Z ENDP		; GDCharCloseRecv
_TEXT	ENDS
PUBLIC	__$ArrayPad$
PUBLIC	?GDGuildCreateSend@@YAXHPAD0PAEH@Z		; GDGuildCreateSend
; Function compile flags: /Odtp /ZI
_TEXT	SEGMENT
_pMsg$ = -64						; size = 58
__$ArrayPad$ = -4					; size = 4
_aIndex$ = 8						; size = 4
_Name$ = 12						; size = 4
_Master$ = 16						; size = 4
_Mark$ = 20						; size = 4
_iGuildType$ = 24					; size = 4
?GDGuildCreateSend@@YAXHPAD0PAEH@Z PROC			; GDGuildCreateSend

; 233  : {

  00610	55		 push	 ebp
  00611	8b ec		 mov	 ebp, esp
  00613	81 ec 80 00 00
	00		 sub	 esp, 128		; 00000080H
  00619	a1 00 00 00 00	 mov	 eax, DWORD PTR ___security_cookie
  0061e	33 c5		 xor	 eax, ebp
  00620	89 45 fc	 mov	 DWORD PTR __$ArrayPad$[ebp], eax
  00623	53		 push	 ebx
  00624	56		 push	 esi
  00625	57		 push	 edi

; 234  : 	SDHP_GUILDCREATE pMsg;
; 235  : 
; 236  : 	pMsg.h.c = 0xC1;

  00626	c6 45 c0 c1	 mov	 BYTE PTR _pMsg$[ebp], 193 ; 000000c1H

; 237  : 	pMsg.h.headcode = 0x30;

  0062a	c6 45 c2 30	 mov	 BYTE PTR _pMsg$[ebp+2], 48 ; 00000030H

; 238  : 	pMsg.h.size = sizeof(pMsg);

  0062e	c6 45 c1 3a	 mov	 BYTE PTR _pMsg$[ebp+1], 58 ; 0000003aH

; 239  : 
; 240  : 	memcpy(pMsg.Mark, Mark, sizeof(pMsg.Mark));

  00632	6a 20		 push	 32			; 00000020H
  00634	8b 45 14	 mov	 eax, DWORD PTR _Mark$[ebp]
  00637	50		 push	 eax
  00638	8d 4d d7	 lea	 ecx, DWORD PTR _pMsg$[ebp+23]
  0063b	51		 push	 ecx
  0063c	e8 00 00 00 00	 call	 _memcpy
  00641	83 c4 0c	 add	 esp, 12			; 0000000cH

; 241  : 	pMsg.Master[MAX_ACCOUNT_LEN] = 0;

  00644	c6 45 d6 00	 mov	 BYTE PTR _pMsg$[ebp+22], 0

; 242  : 	pMsg.GuildName[MAX_GUILD_LEN] = 0;

  00648	c6 45 cb 00	 mov	 BYTE PTR _pMsg$[ebp+11], 0

; 243  : 	memcpy(pMsg.Master, Master, MAX_ACCOUNT_LEN);

  0064c	6a 0a		 push	 10			; 0000000aH
  0064e	8b 45 10	 mov	 eax, DWORD PTR _Master$[ebp]
  00651	50		 push	 eax
  00652	8d 4d cc	 lea	 ecx, DWORD PTR _pMsg$[ebp+12]
  00655	51		 push	 ecx
  00656	e8 00 00 00 00	 call	 _memcpy
  0065b	83 c4 0c	 add	 esp, 12			; 0000000cH

; 244  : 	memcpy(pMsg.GuildName, Name, MAX_GUILD_LEN);

  0065e	6a 08		 push	 8
  00660	8b 45 0c	 mov	 eax, DWORD PTR _Name$[ebp]
  00663	50		 push	 eax
  00664	8d 4d c3	 lea	 ecx, DWORD PTR _pMsg$[ebp+3]
  00667	51		 push	 ecx
  00668	e8 00 00 00 00	 call	 _memcpy
  0066d	83 c4 0c	 add	 esp, 12			; 0000000cH

; 245  : 	pMsg.NumberH = SET_NUMBERH(aIndex);

  00670	8b 45 08	 mov	 eax, DWORD PTR _aIndex$[ebp]
  00673	c1 e8 08	 shr	 eax, 8
  00676	88 45 f7	 mov	 BYTE PTR _pMsg$[ebp+55], al

; 246  : 	pMsg.NumberL = SET_NUMBERL(aIndex);

  00679	8b 45 08	 mov	 eax, DWORD PTR _aIndex$[ebp]
  0067c	25 ff 00 00 00	 and	 eax, 255		; 000000ffH
  00681	88 45 f8	 mov	 BYTE PTR _pMsg$[ebp+56], al

; 247  : 	pMsg.btGuildType = iGuildType;

  00684	8a 45 18	 mov	 al, BYTE PTR _iGuildType$[ebp]
  00687	88 45 f9	 mov	 BYTE PTR _pMsg$[ebp+57], al

; 248  : 
; 249  : 	wsExDbCli.DataSend((char*)&pMsg, pMsg.h.size);

  0068a	0f b6 45 c1	 movzx	 eax, BYTE PTR _pMsg$[ebp+1]
  0068e	50		 push	 eax
  0068f	8d 4d c0	 lea	 ecx, DWORD PTR _pMsg$[ebp]
  00692	51		 push	 ecx
  00693	b9 00 00 00 00	 mov	 ecx, OFFSET ?wsExDbCli@@3VwsJoinServerCli@@A ; wsExDbCli
  00698	e8 00 00 00 00	 call	 ?DataSend@wsJoinServerCli@@QAEHPADH@Z ; wsJoinServerCli::DataSend

; 250  : }

  0069d	5f		 pop	 edi
  0069e	5e		 pop	 esi
  0069f	5b		 pop	 ebx
  006a0	8b 4d fc	 mov	 ecx, DWORD PTR __$ArrayPad$[ebp]
  006a3	33 cd		 xor	 ecx, ebp
  006a5	e8 00 00 00 00	 call	 @__security_check_cookie@4
  006aa	8b e5		 mov	 esp, ebp
  006ac	5d		 pop	 ebp
  006ad	c3		 ret	 0
?GDGuildCreateSend@@YAXHPAD0PAEH@Z ENDP			; GDGuildCreateSend
_TEXT	ENDS
PUBLIC	??_C@_0DE@PMHJKKOP@?$FLU?4System?$FN?5Guild?5is?5Created?5?9?5Gu@ ; `string'
PUBLIC	__$ArrayPad$
EXTRN	?GCGuildViewportNowPaint@@YAXHPADPAEH@Z:PROC	; GCGuildViewportNowPaint
EXTRN	?LogAdd@@3P6AXPADZZA:DWORD			; LogAdd
EXTRN	?Get@CMsg@@QAEPADH@Z:PROC			; CMsg::Get
EXTRN	?lMsg@@3VCMsg@@A:BYTE				; lMsg
EXTRN	?AddGuild@CGuildClass@@QAEPAU_GUILD_INFO_STRUCT@@HPADPAE0H@Z:PROC ; CGuildClass::AddGuild
EXTRN	_strcmp:PROC
EXTRN	?gObjIsConnected@@YAHH@Z:PROC			; gObjIsConnected
EXTRN	?DataSend@@YAHHPAEK@Z:PROC			; DataSend
EXTRN	?PHeadSetB@@YAXPAEEH@Z:PROC			; PHeadSetB
;	COMDAT ??_C@_0DE@PMHJKKOP@?$FLU?4System?$FN?5Guild?5is?5Created?5?9?5Gu@
CONST	SEGMENT
??_C@_0DE@PMHJKKOP@?$FLU?4System?$FN?5Guild?5is?5Created?5?9?5Gu@ DB '[U.'
	DB	'System] Guild is Created - Guild : %s / [%s][%s]', 00H ; `string'
; Function compile flags: /Odtp /ZI
CONST	ENDS
_TEXT	SEGMENT
_pResult$232000 = -52					; size = 5
_szGuildName$ = -44					; size = 9
_szMaster$ = -32					; size = 11
_lpNode$ = -20						; size = 4
_pMsg$ = -16						; size = 5
_aIndex$ = -8						; size = 4
__$ArrayPad$ = -4					; size = 4
_lpMsg$ = 8						; size = 4
?GDGuildCreateRecv@@YAXPAUSDHP_GUILDCREATE_RESULT@@@Z PROC ; GDGuildCreateRecv

; 253  : {

  006b0	55		 push	 ebp
  006b1	8b ec		 mov	 ebp, esp
  006b3	83 ec 74	 sub	 esp, 116		; 00000074H
  006b6	a1 00 00 00 00	 mov	 eax, DWORD PTR ___security_cookie
  006bb	33 c5		 xor	 eax, ebp
  006bd	89 45 fc	 mov	 DWORD PTR __$ArrayPad$[ebp], eax
  006c0	53		 push	 ebx
  006c1	56		 push	 esi
  006c2	57		 push	 edi

; 254  : 	int aIndex = -1;

  006c3	c7 45 f8 ff ff
	ff ff		 mov	 DWORD PTR _aIndex$[ebp], -1

; 255  : 	PMSG_GUILDCREATED_RESULT pMsg;
; 256  : 	_GUILD_INFO_STRUCT * lpNode;
; 257  : 	char szMaster[MAX_ACCOUNT_LEN+1];
; 258  : 	char szGuildName[MAX_GUILD_LEN+1];
; 259  : 
; 260  : 	szMaster[MAX_ACCOUNT_LEN] = 0;

  006ca	c6 45 ea 00	 mov	 BYTE PTR _szMaster$[ebp+10], 0

; 261  : 	szGuildName[MAX_GUILD_LEN] = 0;

  006ce	c6 45 dc 00	 mov	 BYTE PTR _szGuildName$[ebp+8], 0

; 262  : 	memcpy(szMaster, lpMsg->Master, MAX_ACCOUNT_LEN);

  006d2	6a 0a		 push	 10			; 0000000aH
  006d4	8b 45 08	 mov	 eax, DWORD PTR _lpMsg$[ebp]
  006d7	83 c0 0e	 add	 eax, 14			; 0000000eH
  006da	50		 push	 eax
  006db	8d 4d e0	 lea	 ecx, DWORD PTR _szMaster$[ebp]
  006de	51		 push	 ecx
  006df	e8 00 00 00 00	 call	 _memcpy
  006e4	83 c4 0c	 add	 esp, 12			; 0000000cH

; 263  : 	memcpy(szGuildName, lpMsg->GuildName, MAX_GUILD_LEN);

  006e7	6a 08		 push	 8
  006e9	8b 45 08	 mov	 eax, DWORD PTR _lpMsg$[ebp]
  006ec	83 c0 19	 add	 eax, 25			; 00000019H
  006ef	50		 push	 eax
  006f0	8d 4d d4	 lea	 ecx, DWORD PTR _szGuildName$[ebp]
  006f3	51		 push	 ecx
  006f4	e8 00 00 00 00	 call	 _memcpy
  006f9	83 c4 0c	 add	 esp, 12			; 0000000cH

; 264  : 
; 265  : 	if (lpMsg->Result == 0 )

  006fc	8b 45 08	 mov	 eax, DWORD PTR _lpMsg$[ebp]
  006ff	0f b6 48 03	 movzx	 ecx, BYTE PTR [eax+3]
  00703	85 c9		 test	 ecx, ecx
  00705	0f 85 d0 00 00
	00		 jne	 $LN8@GDGuildCre

; 266  : 	{
; 267  : 		aIndex = MAKE_NUMBERW(lpMsg->NumberH, lpMsg->NumberL);

  0070b	8b 45 08	 mov	 eax, DWORD PTR _lpMsg$[ebp]
  0070e	0f b6 48 0d	 movzx	 ecx, BYTE PTR [eax+13]
  00712	81 e1 ff 00 00
	00		 and	 ecx, 255		; 000000ffH
  00718	0f b6 d1	 movzx	 edx, cl
  0071b	8b 45 08	 mov	 eax, DWORD PTR _lpMsg$[ebp]
  0071e	0f b6 48 0c	 movzx	 ecx, BYTE PTR [eax+12]
  00722	81 e1 ff 00 00
	00		 and	 ecx, 255		; 000000ffH
  00728	0f b6 c1	 movzx	 eax, cl
  0072b	c1 e0 08	 shl	 eax, 8
  0072e	0b d0		 or	 edx, eax
  00730	0f b7 ca	 movzx	 ecx, dx
  00733	89 4d f8	 mov	 DWORD PTR _aIndex$[ebp], ecx

; 268  : 
; 269  : 		PMSG_GUILDCREATED_RESULT pResult;
; 270  : 
; 271  : 		PHeadSetB((LPBYTE)&pResult, 0x56, sizeof(pResult));

  00736	6a 05		 push	 5
  00738	6a 56		 push	 86			; 00000056H
  0073a	8d 45 cc	 lea	 eax, DWORD PTR _pResult$232000[ebp]
  0073d	50		 push	 eax
  0073e	e8 00 00 00 00	 call	 ?PHeadSetB@@YAXPAEEH@Z	; PHeadSetB
  00743	83 c4 0c	 add	 esp, 12			; 0000000cH

; 272  : 		pResult.Result = G_ERROR_NONE;

  00746	c6 45 cf 00	 mov	 BYTE PTR _pResult$232000[ebp+3], 0

; 273  : 		pResult.btGuildType = lpMsg->btGuildType;

  0074a	8b 45 08	 mov	 eax, DWORD PTR _lpMsg$[ebp]
  0074d	8a 48 42	 mov	 cl, BYTE PTR [eax+66]
  00750	88 4d d0	 mov	 BYTE PTR _pResult$232000[ebp+4], cl

; 274  : 
; 275  : 		DataSend(aIndex, (LPBYTE)&pResult, pResult.h.size);

  00753	0f b6 45 cd	 movzx	 eax, BYTE PTR _pResult$232000[ebp+1]
  00757	50		 push	 eax
  00758	8d 4d cc	 lea	 ecx, DWORD PTR _pResult$232000[ebp]
  0075b	51		 push	 ecx
  0075c	8b 55 f8	 mov	 edx, DWORD PTR _aIndex$[ebp]
  0075f	52		 push	 edx
  00760	e8 00 00 00 00	 call	 ?DataSend@@YAHHPAEK@Z	; DataSend
  00765	83 c4 0c	 add	 esp, 12			; 0000000cH

; 276  : 
; 277  : 		if ( gObj[aIndex].m_IfState.use != 0 && gObj[aIndex].m_IfState.type == 5 )

  00768	8b 45 f8	 mov	 eax, DWORD PTR _aIndex$[ebp]
  0076b	69 c0 38 2b 00
	00		 imul	 eax, 11064		; 00002b38H
  00771	8b 0d 00 00 00
	00		 mov	 ecx, DWORD PTR ?gObj@@3PAUOBJECTSTRUCT@@A ; gObj
  00777	8b 94 01 1c 0e
	00 00		 mov	 edx, DWORD PTR [ecx+eax+3612]
  0077e	83 e2 03	 and	 edx, 3
  00781	74 53		 je	 SHORT $LN7@GDGuildCre
  00783	8b 45 f8	 mov	 eax, DWORD PTR _aIndex$[ebp]
  00786	69 c0 38 2b 00
	00		 imul	 eax, 11064		; 00002b38H
  0078c	8b 0d 00 00 00
	00		 mov	 ecx, DWORD PTR ?gObj@@3PAUOBJECTSTRUCT@@A ; gObj
  00792	8b 94 01 1c 0e
	00 00		 mov	 edx, DWORD PTR [ecx+eax+3612]
  00799	c1 ea 06	 shr	 edx, 6
  0079c	81 e2 ff 03 00
	00		 and	 edx, 1023		; 000003ffH
  007a2	83 fa 05	 cmp	 edx, 5
  007a5	75 2f		 jne	 SHORT $LN7@GDGuildCre

; 278  : 		{
; 279  : 			gObj[aIndex].m_IfState.use = 0;

  007a7	8b 45 f8	 mov	 eax, DWORD PTR _aIndex$[ebp]
  007aa	69 c0 38 2b 00
	00		 imul	 eax, 11064		; 00002b38H
  007b0	8b 0d 00 00 00
	00		 mov	 ecx, DWORD PTR ?gObj@@3PAUOBJECTSTRUCT@@A ; gObj
  007b6	8b 94 01 1c 0e
	00 00		 mov	 edx, DWORD PTR [ecx+eax+3612]
  007bd	83 e2 fc	 and	 edx, -4			; fffffffcH
  007c0	8b 45 f8	 mov	 eax, DWORD PTR _aIndex$[ebp]
  007c3	69 c0 38 2b 00
	00		 imul	 eax, 11064		; 00002b38H
  007c9	8b 0d 00 00 00
	00		 mov	 ecx, DWORD PTR ?gObj@@3PAUOBJECTSTRUCT@@A ; gObj
  007cf	89 94 01 1c 0e
	00 00		 mov	 DWORD PTR [ecx+eax+3612], edx
$LN7@GDGuildCre:

; 280  : 		}
; 281  : 		return;

  007d6	e9 1e 02 00 00	 jmp	 $LN9@GDGuildCre
$LN8@GDGuildCre:

; 282  : 	}
; 283  : 
; 284  : 	if ( lpMsg->Flag == 1 )

  007db	8b 45 08	 mov	 eax, DWORD PTR _lpMsg$[ebp]
  007de	0f b6 48 04	 movzx	 ecx, BYTE PTR [eax+4]
  007e2	83 f9 01	 cmp	 ecx, 1
  007e5	0f 85 af 00 00
	00		 jne	 $LN6@GDGuildCre

; 285  : 	{
; 286  : 		aIndex = MAKE_NUMBERW(lpMsg->NumberH, lpMsg->NumberL);

  007eb	8b 45 08	 mov	 eax, DWORD PTR _lpMsg$[ebp]
  007ee	0f b6 48 0d	 movzx	 ecx, BYTE PTR [eax+13]
  007f2	81 e1 ff 00 00
	00		 and	 ecx, 255		; 000000ffH
  007f8	0f b6 d1	 movzx	 edx, cl
  007fb	8b 45 08	 mov	 eax, DWORD PTR _lpMsg$[ebp]
  007fe	0f b6 48 0c	 movzx	 ecx, BYTE PTR [eax+12]
  00802	81 e1 ff 00 00
	00		 and	 ecx, 255		; 000000ffH
  00808	0f b6 c1	 movzx	 eax, cl
  0080b	c1 e0 08	 shl	 eax, 8
  0080e	0b d0		 or	 edx, eax
  00810	0f b7 ca	 movzx	 ecx, dx
  00813	89 4d f8	 mov	 DWORD PTR _aIndex$[ebp], ecx

; 287  : 
; 288  : 		if ( gObjIsConnected(aIndex) == TRUE )

  00816	8b 45 f8	 mov	 eax, DWORD PTR _aIndex$[ebp]
  00819	50		 push	 eax
  0081a	e8 00 00 00 00	 call	 ?gObjIsConnected@@YAHH@Z ; gObjIsConnected
  0081f	83 c4 04	 add	 esp, 4
  00822	83 f8 01	 cmp	 eax, 1
  00825	75 73		 jne	 SHORT $LN6@GDGuildCre

; 289  : 		{
; 290  : 			if ( szMaster[0] == gObj[aIndex].Name[0] )

  00827	0f be 45 e0	 movsx	 eax, BYTE PTR _szMaster$[ebp]
  0082b	8b 4d f8	 mov	 ecx, DWORD PTR _aIndex$[ebp]
  0082e	69 c9 38 2b 00
	00		 imul	 ecx, 11064		; 00002b38H
  00834	8b 15 00 00 00
	00		 mov	 edx, DWORD PTR ?gObj@@3PAUOBJECTSTRUCT@@A ; gObj
  0083a	0f be 4c 0a 77	 movsx	 ecx, BYTE PTR [edx+ecx+119]
  0083f	3b c1		 cmp	 eax, ecx
  00841	75 57		 jne	 SHORT $LN6@GDGuildCre

; 291  : 			{
; 292  : 				if ( strcmp(szMaster, gObj[aIndex].Name) == 0 )

  00843	8b 45 f8	 mov	 eax, DWORD PTR _aIndex$[ebp]
  00846	69 c0 38 2b 00
	00		 imul	 eax, 11064		; 00002b38H
  0084c	8b 0d 00 00 00
	00		 mov	 ecx, DWORD PTR ?gObj@@3PAUOBJECTSTRUCT@@A ; gObj
  00852	8d 54 01 77	 lea	 edx, DWORD PTR [ecx+eax+119]
  00856	52		 push	 edx
  00857	8d 45 e0	 lea	 eax, DWORD PTR _szMaster$[ebp]
  0085a	50		 push	 eax
  0085b	e8 00 00 00 00	 call	 _strcmp
  00860	83 c4 08	 add	 esp, 8
  00863	85 c0		 test	 eax, eax
  00865	75 33		 jne	 SHORT $LN6@GDGuildCre

; 293  : 				{
; 294  : 					pMsg.h.c = 0xC1;

  00867	c6 45 f0 c1	 mov	 BYTE PTR _pMsg$[ebp], 193 ; 000000c1H

; 295  : 					pMsg.h.headcode = 0x56;

  0086b	c6 45 f2 56	 mov	 BYTE PTR _pMsg$[ebp+2], 86 ; 00000056H

; 296  : 					pMsg.h.size = sizeof(pMsg);

  0086f	c6 45 f1 05	 mov	 BYTE PTR _pMsg$[ebp+1], 5

; 297  : 					pMsg.Result = lpMsg->Result;

  00873	8b 45 08	 mov	 eax, DWORD PTR _lpMsg$[ebp]
  00876	8a 48 03	 mov	 cl, BYTE PTR [eax+3]
  00879	88 4d f3	 mov	 BYTE PTR _pMsg$[ebp+3], cl

; 298  : 					pMsg.btGuildType = lpMsg->btGuildType;

  0087c	8b 45 08	 mov	 eax, DWORD PTR _lpMsg$[ebp]
  0087f	8a 48 42	 mov	 cl, BYTE PTR [eax+66]
  00882	88 4d f4	 mov	 BYTE PTR _pMsg$[ebp+4], cl

; 299  : 
; 300  : 					DataSend(aIndex, (LPBYTE)&pMsg, pMsg.h.size);

  00885	0f b6 45 f1	 movzx	 eax, BYTE PTR _pMsg$[ebp+1]
  00889	50		 push	 eax
  0088a	8d 4d f0	 lea	 ecx, DWORD PTR _pMsg$[ebp]
  0088d	51		 push	 ecx
  0088e	8b 55 f8	 mov	 edx, DWORD PTR _aIndex$[ebp]
  00891	52		 push	 edx
  00892	e8 00 00 00 00	 call	 ?DataSend@@YAHHPAEK@Z	; DataSend
  00897	83 c4 0c	 add	 esp, 12			; 0000000cH
$LN6@GDGuildCre:

; 301  : 				}
; 302  : 			}
; 303  : 		}
; 304  : 	}
; 305  : 
; 306  : 	if ( lpMsg->Result == 1 )

  0089a	8b 45 08	 mov	 eax, DWORD PTR _lpMsg$[ebp]
  0089d	0f b6 48 03	 movzx	 ecx, BYTE PTR [eax+3]
  008a1	83 f9 01	 cmp	 ecx, 1
  008a4	0f 85 4f 01 00
	00		 jne	 $LN9@GDGuildCre

; 307  : 	{
; 308  : 		lpNode = Guild.AddGuild(lpMsg->GuildNumber, szGuildName, lpMsg->Mark, szMaster, 0);

  008aa	6a 00		 push	 0
  008ac	8d 45 e0	 lea	 eax, DWORD PTR _szMaster$[ebp]
  008af	50		 push	 eax
  008b0	8b 4d 08	 mov	 ecx, DWORD PTR _lpMsg$[ebp]
  008b3	83 c1 22	 add	 ecx, 34			; 00000022H
  008b6	51		 push	 ecx
  008b7	8d 55 d4	 lea	 edx, DWORD PTR _szGuildName$[ebp]
  008ba	52		 push	 edx
  008bb	8b 45 08	 mov	 eax, DWORD PTR _lpMsg$[ebp]
  008be	8b 48 08	 mov	 ecx, DWORD PTR [eax+8]
  008c1	51		 push	 ecx
  008c2	b9 00 00 00 00	 mov	 ecx, OFFSET ?Guild@@3VCGuildClass@@A ; Guild
  008c7	e8 00 00 00 00	 call	 ?AddGuild@CGuildClass@@QAEPAU_GUILD_INFO_STRUCT@@HPADPAE0H@Z ; CGuildClass::AddGuild
  008cc	89 45 ec	 mov	 DWORD PTR _lpNode$[ebp], eax

; 309  : 
; 310  : 		if ( aIndex >= 0 && lpNode != NULL )

  008cf	83 7d f8 00	 cmp	 DWORD PTR _aIndex$[ebp], 0
  008d3	0f 8c 20 01 00
	00		 jl	 $LN9@GDGuildCre
  008d9	83 7d ec 00	 cmp	 DWORD PTR _lpNode$[ebp], 0
  008dd	0f 84 16 01 00
	00		 je	 $LN9@GDGuildCre

; 311  : 		{
; 312  : 			gObj[aIndex].lpGuild = lpNode;

  008e3	8b 45 f8	 mov	 eax, DWORD PTR _aIndex$[ebp]
  008e6	69 c0 38 2b 00
	00		 imul	 eax, 11064		; 00002b38H
  008ec	8b 0d 00 00 00
	00		 mov	 ecx, DWORD PTR ?gObj@@3PAUOBJECTSTRUCT@@A ; gObj
  008f2	8b 55 ec	 mov	 edx, DWORD PTR _lpNode$[ebp]
  008f5	89 94 01 38 04
	00 00		 mov	 DWORD PTR [ecx+eax+1080], edx

; 313  : 			gObj[aIndex].GuildNumber = lpMsg->GuildNumber;

  008fc	8b 45 f8	 mov	 eax, DWORD PTR _aIndex$[ebp]
  008ff	69 c0 38 2b 00
	00		 imul	 eax, 11064		; 00002b38H
  00905	8b 0d 00 00 00
	00		 mov	 ecx, DWORD PTR ?gObj@@3PAUOBJECTSTRUCT@@A ; gObj
  0090b	8b 55 08	 mov	 edx, DWORD PTR _lpMsg$[ebp]
  0090e	8b 52 08	 mov	 edx, DWORD PTR [edx+8]
  00911	89 94 01 34 04
	00 00		 mov	 DWORD PTR [ecx+eax+1076], edx

; 314  : 			gObj[aIndex].GuildStatus = G_MASTER;

  00918	8b 45 f8	 mov	 eax, DWORD PTR _aIndex$[ebp]
  0091b	69 c0 38 2b 00
	00		 imul	 eax, 11064		; 00002b38H
  00921	8b 0d 00 00 00
	00		 mov	 ecx, DWORD PTR ?gObj@@3PAUOBJECTSTRUCT@@A ; gObj
  00927	c7 84 01 48 04
	00 00 80 00 00
	00		 mov	 DWORD PTR [ecx+eax+1096], 128 ; 00000080H

; 315  : 			lpNode->iGuildRival = 0;

  00932	8b 45 ec	 mov	 eax, DWORD PTR _lpNode$[ebp]
  00935	c7 80 20 07 00
	00 00 00 00 00	 mov	 DWORD PTR [eax+1824], 0

; 316  : 			lpNode->iGuildUnion = 0;

  0093f	8b 45 ec	 mov	 eax, DWORD PTR _lpNode$[ebp]
  00942	c7 80 1c 07 00
	00 00 00 00 00	 mov	 DWORD PTR [eax+1820], 0

; 317  : 			lpNode->iTimeStamp = 0;

  0094c	8b 45 ec	 mov	 eax, DWORD PTR _lpNode$[ebp]
  0094f	c7 80 24 07 00
	00 00 00 00 00	 mov	 DWORD PTR [eax+1828], 0

; 318  : 			gObj[aIndex].iGuildUnionTimeStamp = 0;

  00959	8b 45 f8	 mov	 eax, DWORD PTR _aIndex$[ebp]
  0095c	69 c0 38 2b 00
	00		 imul	 eax, 11064		; 00002b38H
  00962	8b 0d 00 00 00
	00		 mov	 ecx, DWORD PTR ?gObj@@3PAUOBJECTSTRUCT@@A ; gObj
  00968	c7 84 01 4c 04
	00 00 00 00 00
	00		 mov	 DWORD PTR [ecx+eax+1100], 0

; 319  : 
; 320  : 			LogAddTD("[U.System] Guild is Created - Guild : %s / [%s][%s]",
; 321  : 				szGuildName, gObj[aIndex].AccountID, gObj[aIndex].Name);

  00973	8b 45 f8	 mov	 eax, DWORD PTR _aIndex$[ebp]
  00976	69 c0 38 2b 00
	00		 imul	 eax, 11064		; 00002b38H
  0097c	8b 0d 00 00 00
	00		 mov	 ecx, DWORD PTR ?gObj@@3PAUOBJECTSTRUCT@@A ; gObj
  00982	8d 54 01 77	 lea	 edx, DWORD PTR [ecx+eax+119]
  00986	52		 push	 edx
  00987	8b 45 f8	 mov	 eax, DWORD PTR _aIndex$[ebp]
  0098a	69 c0 38 2b 00
	00		 imul	 eax, 11064		; 00002b38H
  00990	8b 0d 00 00 00
	00		 mov	 ecx, DWORD PTR ?gObj@@3PAUOBJECTSTRUCT@@A ; gObj
  00996	8d 54 01 6c	 lea	 edx, DWORD PTR [ecx+eax+108]
  0099a	52		 push	 edx
  0099b	8d 45 d4	 lea	 eax, DWORD PTR _szGuildName$[ebp]
  0099e	50		 push	 eax
  0099f	68 00 00 00 00	 push	 OFFSET ??_C@_0DE@PMHJKKOP@?$FLU?4System?$FN?5Guild?5is?5Created?5?9?5Gu@
  009a4	ff 15 00 00 00
	00		 call	 DWORD PTR ?LogAddTD@@3P6AXPADZZA ; LogAddTD
  009aa	83 c4 10	 add	 esp, 16			; 00000010H

; 322  : 
; 323  : 			LogAdd(lMsg.Get(MSGGET(1, 177)), lpNode->WarState, lpNode->WarDeclareState, szGuildName);

  009ad	8d 45 d4	 lea	 eax, DWORD PTR _szGuildName$[ebp]
  009b0	50		 push	 eax
  009b1	8b 4d ec	 mov	 ecx, DWORD PTR _lpNode$[ebp]
  009b4	0f b6 91 90 05
	00 00		 movzx	 edx, BYTE PTR [ecx+1424]
  009bb	52		 push	 edx
  009bc	8b 45 ec	 mov	 eax, DWORD PTR _lpNode$[ebp]
  009bf	0f b6 88 91 05
	00 00		 movzx	 ecx, BYTE PTR [eax+1425]
  009c6	51		 push	 ecx
  009c7	68 b1 01 00 00	 push	 433			; 000001b1H
  009cc	b9 00 00 00 00	 mov	 ecx, OFFSET ?lMsg@@3VCMsg@@A ; lMsg
  009d1	e8 00 00 00 00	 call	 ?Get@CMsg@@QAEPADH@Z	; CMsg::Get
  009d6	50		 push	 eax
  009d7	ff 15 00 00 00
	00		 call	 DWORD PTR ?LogAdd@@3P6AXPADZZA ; LogAdd
  009dd	83 c4 10	 add	 esp, 16			; 00000010H

; 324  : 			::GCGuildViewportNowPaint(aIndex, szGuildName, lpMsg->Mark, TRUE);

  009e0	6a 01		 push	 1
  009e2	8b 45 08	 mov	 eax, DWORD PTR _lpMsg$[ebp]
  009e5	83 c0 22	 add	 eax, 34			; 00000022H
  009e8	50		 push	 eax
  009e9	8d 4d d4	 lea	 ecx, DWORD PTR _szGuildName$[ebp]
  009ec	51		 push	 ecx
  009ed	8b 55 f8	 mov	 edx, DWORD PTR _aIndex$[ebp]
  009f0	52		 push	 edx
  009f1	e8 00 00 00 00	 call	 ?GCGuildViewportNowPaint@@YAXHPADPAEH@Z ; GCGuildViewportNowPaint
  009f6	83 c4 10	 add	 esp, 16			; 00000010H
$LN9@GDGuildCre:

; 325  : 		}
; 326  : 	}
; 327  : }

  009f9	5f		 pop	 edi
  009fa	5e		 pop	 esi
  009fb	5b		 pop	 ebx
  009fc	8b 4d fc	 mov	 ecx, DWORD PTR __$ArrayPad$[ebp]
  009ff	33 cd		 xor	 ecx, ebp
  00a01	e8 00 00 00 00	 call	 @__security_check_cookie@4
  00a06	8b e5		 mov	 esp, ebp
  00a08	5d		 pop	 ebp
  00a09	c3		 ret	 0
?GDGuildCreateRecv@@YAXPAUSDHP_GUILDCREATE_RESULT@@@Z ENDP ; GDGuildCreateRecv
_TEXT	ENDS
PUBLIC	__$ArrayPad$
PUBLIC	?GDGuildDestroySend@@YAXHPAD0@Z			; GDGuildDestroySend
; Function compile flags: /Odtp /ZI
_TEXT	SEGMENT
_pMsg$ = -28						; size = 23
__$ArrayPad$ = -4					; size = 4
_aIndex$ = 8						; size = 4
_Name$ = 12						; size = 4
_Master$ = 16						; size = 4
?GDGuildDestroySend@@YAXHPAD0@Z PROC			; GDGuildDestroySend

; 339  : {

  00a10	55		 push	 ebp
  00a11	8b ec		 mov	 ebp, esp
  00a13	83 ec 5c	 sub	 esp, 92			; 0000005cH
  00a16	a1 00 00 00 00	 mov	 eax, DWORD PTR ___security_cookie
  00a1b	33 c5		 xor	 eax, ebp
  00a1d	89 45 fc	 mov	 DWORD PTR __$ArrayPad$[ebp], eax
  00a20	53		 push	 ebx
  00a21	56		 push	 esi
  00a22	57		 push	 edi

; 340  : 	SDHP_GUILDDESTROY pMsg;
; 341  : 
; 342  : 	pMsg.h.c = 0xC1;

  00a23	c6 45 e4 c1	 mov	 BYTE PTR _pMsg$[ebp], 193 ; 000000c1H

; 343  : 	pMsg.h.headcode = 0x31;

  00a27	c6 45 e6 31	 mov	 BYTE PTR _pMsg$[ebp+2], 49 ; 00000031H

; 344  : 	pMsg.h.size = sizeof(pMsg);

  00a2b	c6 45 e5 17	 mov	 BYTE PTR _pMsg$[ebp+1], 23 ; 00000017H

; 345  : 	pMsg.NumberH = SET_NUMBERH(aIndex);

  00a2f	8b 45 08	 mov	 eax, DWORD PTR _aIndex$[ebp]
  00a32	c1 e8 08	 shr	 eax, 8
  00a35	88 45 e7	 mov	 BYTE PTR _pMsg$[ebp+3], al

; 346  : 	pMsg.NumberL = SET_NUMBERL(aIndex);

  00a38	8b 45 08	 mov	 eax, DWORD PTR _aIndex$[ebp]
  00a3b	25 ff 00 00 00	 and	 eax, 255		; 000000ffH
  00a40	88 45 e8	 mov	 BYTE PTR _pMsg$[ebp+4], al

; 347  : 	memcpy(pMsg.Master, Master, sizeof(pMsg.Master));

  00a43	6a 0a		 push	 10			; 0000000aH
  00a45	8b 45 10	 mov	 eax, DWORD PTR _Master$[ebp]
  00a48	50		 push	 eax
  00a49	8d 4d f1	 lea	 ecx, DWORD PTR _pMsg$[ebp+13]
  00a4c	51		 push	 ecx
  00a4d	e8 00 00 00 00	 call	 _memcpy
  00a52	83 c4 0c	 add	 esp, 12			; 0000000cH

; 348  : 	memcpy(pMsg.GuildName, Name, sizeof(pMsg.GuildName));

  00a55	6a 08		 push	 8
  00a57	8b 45 0c	 mov	 eax, DWORD PTR _Name$[ebp]
  00a5a	50		 push	 eax
  00a5b	8d 4d e9	 lea	 ecx, DWORD PTR _pMsg$[ebp+5]
  00a5e	51		 push	 ecx
  00a5f	e8 00 00 00 00	 call	 _memcpy
  00a64	83 c4 0c	 add	 esp, 12			; 0000000cH

; 349  : 
; 350  : 	wsExDbCli.DataSend((char*)&pMsg, pMsg.h.size);

  00a67	0f b6 45 e5	 movzx	 eax, BYTE PTR _pMsg$[ebp+1]
  00a6b	50		 push	 eax
  00a6c	8d 4d e4	 lea	 ecx, DWORD PTR _pMsg$[ebp]
  00a6f	51		 push	 ecx
  00a70	b9 00 00 00 00	 mov	 ecx, OFFSET ?wsExDbCli@@3VwsJoinServerCli@@A ; wsExDbCli
  00a75	e8 00 00 00 00	 call	 ?DataSend@wsJoinServerCli@@QAEHPADH@Z ; wsJoinServerCli::DataSend

; 351  : }

  00a7a	5f		 pop	 edi
  00a7b	5e		 pop	 esi
  00a7c	5b		 pop	 ebx
  00a7d	8b 4d fc	 mov	 ecx, DWORD PTR __$ArrayPad$[ebp]
  00a80	33 cd		 xor	 ecx, ebp
  00a82	e8 00 00 00 00	 call	 @__security_check_cookie@4
  00a87	8b e5		 mov	 esp, ebp
  00a89	5d		 pop	 ebp
  00a8a	c3		 ret	 0
?GDGuildDestroySend@@YAXHPAD0@Z ENDP			; GDGuildDestroySend
_TEXT	ENDS
PUBLIC	__$ArrayPad$
EXTRN	?DeleteGuild@CGuildClass@@QAEHPAD0@Z:PROC	; CGuildClass::DeleteGuild
EXTRN	?DelUnion@TUnion@@QAEHH@Z:PROC			; TUnion::DelUnion
EXTRN	?UnionManager@@3VTUnion@@A:BYTE			; UnionManager
EXTRN	?gObjNotifyUpdateUnionV2@@YAXPAUOBJECTSTRUCT@@@Z:PROC ; gObjNotifyUpdateUnionV2
EXTRN	?gObjNotifyUpdateUnionV1@@YAXPAUOBJECTSTRUCT@@@Z:PROC ; gObjNotifyUpdateUnionV1
EXTRN	?SearchGuild_Number@CGuildClass@@QAEPAU_GUILD_INFO_STRUCT@@H@Z:PROC ; CGuildClass::SearchGuild_Number
EXTRN	?SearchGuild@CGuildClass@@QAEPAU_GUILD_INFO_STRUCT@@PAD@Z:PROC ; CGuildClass::SearchGuild
EXTRN	?GCGuildViewportDelNow@@YAXHH@Z:PROC		; GCGuildViewportDelNow
EXTRN	?GCResultSend@@YAXHEE@Z:PROC			; GCResultSend
EXTRN	?GDDelGuildWarehouseList@CGuildBank@@QAEXH@Z:PROC ; CGuildBank::GDDelGuildWarehouseList
EXTRN	?g_GuildBank@@3VCGuildBank@@A:BYTE		; g_GuildBank
; Function compile flags: /Odtp /ZI
_TEXT	SEGMENT
_lpObj$232066 = -52					; size = 4
_iGuildMemberIndex$232064 = -48				; size = 4
_n$232060 = -44						; size = 4
_lpRival$232058 = -40					; size = 4
_lpGuild$232056 = -36					; size = 4
_szGuildName$ = -32					; size = 9
_szMaster$ = -20					; size = 11
_aIndex$ = -8						; size = 4
__$ArrayPad$ = -4					; size = 4
_lpMsg$ = 8						; size = 4
?GDGuildDestroyRecv@@YAXPAUSDHP_GUILDDESTROY_RESULT@@@Z PROC ; GDGuildDestroyRecv

; 354  : {

  00a90	55		 push	 ebp
  00a91	8b ec		 mov	 ebp, esp
  00a93	83 ec 74	 sub	 esp, 116		; 00000074H
  00a96	a1 00 00 00 00	 mov	 eax, DWORD PTR ___security_cookie
  00a9b	33 c5		 xor	 eax, ebp
  00a9d	89 45 fc	 mov	 DWORD PTR __$ArrayPad$[ebp], eax
  00aa0	53		 push	 ebx
  00aa1	56		 push	 esi
  00aa2	57		 push	 edi

; 355  : 	int aIndex = -1;

  00aa3	c7 45 f8 ff ff
	ff ff		 mov	 DWORD PTR _aIndex$[ebp], -1

; 356  : 	char szMaster[MAX_ACCOUNT_LEN+1];
; 357  : 	char szGuildName[MAX_GUILD_LEN+1];
; 358  : 	szMaster[MAX_ACCOUNT_LEN] = 0;

  00aaa	c6 45 f6 00	 mov	 BYTE PTR _szMaster$[ebp+10], 0

; 359  : 	szGuildName[MAX_GUILD_LEN] = 0;

  00aae	c6 45 e8 00	 mov	 BYTE PTR _szGuildName$[ebp+8], 0

; 360  : 
; 361  : 	memcpy(szMaster, lpMsg->Master, MAX_ACCOUNT_LEN);

  00ab2	6a 0a		 push	 10			; 0000000aH
  00ab4	8b 45 08	 mov	 eax, DWORD PTR _lpMsg$[ebp]
  00ab7	83 c0 10	 add	 eax, 16			; 00000010H
  00aba	50		 push	 eax
  00abb	8d 4d ec	 lea	 ecx, DWORD PTR _szMaster$[ebp]
  00abe	51		 push	 ecx
  00abf	e8 00 00 00 00	 call	 _memcpy
  00ac4	83 c4 0c	 add	 esp, 12			; 0000000cH

; 362  : 	memcpy(szGuildName, lpMsg->GuildName, MAX_GUILD_LEN);

  00ac7	6a 08		 push	 8
  00ac9	8b 45 08	 mov	 eax, DWORD PTR _lpMsg$[ebp]
  00acc	83 c0 07	 add	 eax, 7
  00acf	50		 push	 eax
  00ad0	8d 4d e0	 lea	 ecx, DWORD PTR _szGuildName$[ebp]
  00ad3	51		 push	 ecx
  00ad4	e8 00 00 00 00	 call	 _memcpy
  00ad9	83 c4 0c	 add	 esp, 12			; 0000000cH

; 363  : 
; 364  : 	if ( lpMsg->Flag == 1 )

  00adc	8b 45 08	 mov	 eax, DWORD PTR _lpMsg$[ebp]
  00adf	0f b6 48 04	 movzx	 ecx, BYTE PTR [eax+4]
  00ae3	83 f9 01	 cmp	 ecx, 1
  00ae6	0f 85 ca 00 00
	00		 jne	 $LN16@GDGuildDes

; 365  : 	{
; 366  : 		aIndex = MAKE_NUMBERW(lpMsg->NumberH, lpMsg->NumberL);

  00aec	8b 45 08	 mov	 eax, DWORD PTR _lpMsg$[ebp]
  00aef	0f b6 48 06	 movzx	 ecx, BYTE PTR [eax+6]
  00af3	81 e1 ff 00 00
	00		 and	 ecx, 255		; 000000ffH
  00af9	0f b6 d1	 movzx	 edx, cl
  00afc	8b 45 08	 mov	 eax, DWORD PTR _lpMsg$[ebp]
  00aff	0f b6 48 05	 movzx	 ecx, BYTE PTR [eax+5]
  00b03	81 e1 ff 00 00
	00		 and	 ecx, 255		; 000000ffH
  00b09	0f b6 c1	 movzx	 eax, cl
  00b0c	c1 e0 08	 shl	 eax, 8
  00b0f	0b d0		 or	 edx, eax
  00b11	0f b7 ca	 movzx	 ecx, dx
  00b14	89 4d f8	 mov	 DWORD PTR _aIndex$[ebp], ecx

; 367  : 
; 368  : 		if ( gObjIsConnected(aIndex) == TRUE )

  00b17	8b 45 f8	 mov	 eax, DWORD PTR _aIndex$[ebp]
  00b1a	50		 push	 eax
  00b1b	e8 00 00 00 00	 call	 ?gObjIsConnected@@YAHH@Z ; gObjIsConnected
  00b20	83 c4 04	 add	 esp, 4
  00b23	83 f8 01	 cmp	 eax, 1
  00b26	0f 85 8a 00 00
	00		 jne	 $LN16@GDGuildDes

; 369  : 		{
; 370  : 			if ( szMaster[0] == gObj[aIndex].Name[0] )

  00b2c	0f be 45 ec	 movsx	 eax, BYTE PTR _szMaster$[ebp]
  00b30	8b 4d f8	 mov	 ecx, DWORD PTR _aIndex$[ebp]
  00b33	69 c9 38 2b 00
	00		 imul	 ecx, 11064		; 00002b38H
  00b39	8b 15 00 00 00
	00		 mov	 edx, DWORD PTR ?gObj@@3PAUOBJECTSTRUCT@@A ; gObj
  00b3f	0f be 4c 0a 77	 movsx	 ecx, BYTE PTR [edx+ecx+119]
  00b44	3b c1		 cmp	 eax, ecx
  00b46	75 6e		 jne	 SHORT $LN16@GDGuildDes

; 371  : 			{
; 372  : 				if ( strcmp(szMaster, gObj[aIndex].Name) == 0 )

  00b48	8b 45 f8	 mov	 eax, DWORD PTR _aIndex$[ebp]
  00b4b	69 c0 38 2b 00
	00		 imul	 eax, 11064		; 00002b38H
  00b51	8b 0d 00 00 00
	00		 mov	 ecx, DWORD PTR ?gObj@@3PAUOBJECTSTRUCT@@A ; gObj
  00b57	8d 54 01 77	 lea	 edx, DWORD PTR [ecx+eax+119]
  00b5b	52		 push	 edx
  00b5c	8d 45 ec	 lea	 eax, DWORD PTR _szMaster$[ebp]
  00b5f	50		 push	 eax
  00b60	e8 00 00 00 00	 call	 _strcmp
  00b65	83 c4 08	 add	 esp, 8
  00b68	85 c0		 test	 eax, eax
  00b6a	75 4a		 jne	 SHORT $LN16@GDGuildDes

; 373  : 				{
; 374  : #if(DEV_GUILDBANK)					
; 375  : 					g_GuildBank.GDDelGuildWarehouseList(aIndex);

  00b6c	8b 45 f8	 mov	 eax, DWORD PTR _aIndex$[ebp]
  00b6f	50		 push	 eax
  00b70	b9 00 00 00 00	 mov	 ecx, OFFSET ?g_GuildBank@@3VCGuildBank@@A ; g_GuildBank
  00b75	e8 00 00 00 00	 call	 ?GDDelGuildWarehouseList@CGuildBank@@QAEXH@Z ; CGuildBank::GDDelGuildWarehouseList

; 376  : #endif					
; 377  : 					GCResultSend(aIndex, 0x53, lpMsg->Result);

  00b7a	8b 45 08	 mov	 eax, DWORD PTR _lpMsg$[ebp]
  00b7d	0f b6 48 03	 movzx	 ecx, BYTE PTR [eax+3]
  00b81	51		 push	 ecx
  00b82	6a 53		 push	 83			; 00000053H
  00b84	8b 55 f8	 mov	 edx, DWORD PTR _aIndex$[ebp]
  00b87	52		 push	 edx
  00b88	e8 00 00 00 00	 call	 ?GCResultSend@@YAXHEE@Z	; GCResultSend
  00b8d	83 c4 0c	 add	 esp, 12			; 0000000cH

; 378  : 
; 379  : 					if ( lpMsg->Result == 1 || lpMsg->Result == 4 )

  00b90	8b 45 08	 mov	 eax, DWORD PTR _lpMsg$[ebp]
  00b93	0f b6 48 03	 movzx	 ecx, BYTE PTR [eax+3]
  00b97	83 f9 01	 cmp	 ecx, 1
  00b9a	74 0c		 je	 SHORT $LN11@GDGuildDes
  00b9c	8b 45 08	 mov	 eax, DWORD PTR _lpMsg$[ebp]
  00b9f	0f b6 48 03	 movzx	 ecx, BYTE PTR [eax+3]
  00ba3	83 f9 04	 cmp	 ecx, 4
  00ba6	75 0e		 jne	 SHORT $LN16@GDGuildDes
$LN11@GDGuildDes:

; 380  : 					{
; 381  : 						GCGuildViewportDelNow(aIndex, TRUE);

  00ba8	6a 01		 push	 1
  00baa	8b 45 f8	 mov	 eax, DWORD PTR _aIndex$[ebp]
  00bad	50		 push	 eax
  00bae	e8 00 00 00 00	 call	 ?GCGuildViewportDelNow@@YAXHH@Z ; GCGuildViewportDelNow
  00bb3	83 c4 08	 add	 esp, 8
$LN16@GDGuildDes:

; 382  : 					}
; 383  : 				}
; 384  : 			}
; 385  : 		}
; 386  : 	}
; 387  : 
; 388  : 	if ( lpMsg->Result == 1 || lpMsg->Result == 4)

  00bb6	8b 45 08	 mov	 eax, DWORD PTR _lpMsg$[ebp]
  00bb9	0f b6 48 03	 movzx	 ecx, BYTE PTR [eax+3]
  00bbd	83 f9 01	 cmp	 ecx, 1
  00bc0	74 10		 je	 SHORT $LN9@GDGuildDes
  00bc2	8b 45 08	 mov	 eax, DWORD PTR _lpMsg$[ebp]
  00bc5	0f b6 48 03	 movzx	 ecx, BYTE PTR [eax+3]
  00bc9	83 f9 04	 cmp	 ecx, 4
  00bcc	0f 85 bf 01 00
	00		 jne	 $LN17@GDGuildDes
$LN9@GDGuildDes:

; 389  : 	{
; 390  : 		_GUILD_INFO_STRUCT * lpGuild = Guild.SearchGuild(szGuildName);

  00bd2	8d 45 e0	 lea	 eax, DWORD PTR _szGuildName$[ebp]
  00bd5	50		 push	 eax
  00bd6	b9 00 00 00 00	 mov	 ecx, OFFSET ?Guild@@3VCGuildClass@@A ; Guild
  00bdb	e8 00 00 00 00	 call	 ?SearchGuild@CGuildClass@@QAEPAU_GUILD_INFO_STRUCT@@PAD@Z ; CGuildClass::SearchGuild
  00be0	89 45 dc	 mov	 DWORD PTR _lpGuild$232056[ebp], eax

; 391  : 
; 392  : 		if ( lpGuild == NULL )

  00be3	83 7d dc 00	 cmp	 DWORD PTR _lpGuild$232056[ebp], 0
  00be7	75 05		 jne	 SHORT $LN8@GDGuildDes

; 393  : 		{
; 394  : 			return;

  00be9	e9 a3 01 00 00	 jmp	 $LN17@GDGuildDes
$LN8@GDGuildDes:

; 395  : 		}
; 396  : 
; 397  : 		_GUILD_INFO_STRUCT * lpRival = Guild.SearchGuild_Number(lpGuild->iGuildRival);

  00bee	8b 45 dc	 mov	 eax, DWORD PTR _lpGuild$232056[ebp]
  00bf1	8b 88 20 07 00
	00		 mov	 ecx, DWORD PTR [eax+1824]
  00bf7	51		 push	 ecx
  00bf8	b9 00 00 00 00	 mov	 ecx, OFFSET ?Guild@@3VCGuildClass@@A ; Guild
  00bfd	e8 00 00 00 00	 call	 ?SearchGuild_Number@CGuildClass@@QAEPAU_GUILD_INFO_STRUCT@@H@Z ; CGuildClass::SearchGuild_Number
  00c02	89 45 d8	 mov	 DWORD PTR _lpRival$232058[ebp], eax

; 398  : 
; 399  : 		if ( lpRival != NULL )

  00c05	83 7d d8 00	 cmp	 DWORD PTR _lpRival$232058[ebp], 0
  00c09	74 17		 je	 SHORT $LN7@GDGuildDes

; 400  : 		{
; 401  : 			lpRival->iGuildRival = 0;

  00c0b	8b 45 d8	 mov	 eax, DWORD PTR _lpRival$232058[ebp]
  00c0e	c7 80 20 07 00
	00 00 00 00 00	 mov	 DWORD PTR [eax+1824], 0

; 402  : 			lpRival->szGuildRivalName[0] = 0;

  00c18	8b 45 d8	 mov	 eax, DWORD PTR _lpRival$232058[ebp]
  00c1b	c6 80 28 07 00
	00 00		 mov	 BYTE PTR [eax+1832], 0
$LN7@GDGuildDes:

; 403  : 		}
; 404  : 
; 405  : 		lpGuild->iGuildUnion = 0;

  00c22	8b 45 dc	 mov	 eax, DWORD PTR _lpGuild$232056[ebp]
  00c25	c7 80 1c 07 00
	00 00 00 00 00	 mov	 DWORD PTR [eax+1820], 0

; 406  : 		lpGuild->iGuildRival = 0;

  00c2f	8b 45 dc	 mov	 eax, DWORD PTR _lpGuild$232056[ebp]
  00c32	c7 80 20 07 00
	00 00 00 00 00	 mov	 DWORD PTR [eax+1824], 0

; 407  : 
; 408  : 		for ( int n=0;n<MAX_USER_GUILD;n++)

  00c3c	c7 45 d4 00 00
	00 00		 mov	 DWORD PTR _n$232060[ebp], 0
  00c43	eb 09		 jmp	 SHORT $LN6@GDGuildDes
$LN5@GDGuildDes:
  00c45	8b 45 d4	 mov	 eax, DWORD PTR _n$232060[ebp]
  00c48	83 c0 01	 add	 eax, 1
  00c4b	89 45 d4	 mov	 DWORD PTR _n$232060[ebp], eax
$LN6@GDGuildDes:
  00c4e	83 7d d4 50	 cmp	 DWORD PTR _n$232060[ebp], 80 ; 00000050H
  00c52	0f 8d f6 00 00
	00		 jge	 $LN4@GDGuildDes

; 409  : 		{
; 410  : 			int iGuildMemberIndex = lpGuild->Index[n];

  00c58	8b 45 d4	 mov	 eax, DWORD PTR _n$232060[ebp]
  00c5b	8b 4d dc	 mov	 ecx, DWORD PTR _lpGuild$232056[ebp]
  00c5e	0f bf 94 41 a0
	03 00 00	 movsx	 edx, WORD PTR [ecx+eax*2+928]
  00c66	89 55 d0	 mov	 DWORD PTR _iGuildMemberIndex$232064[ebp], edx

; 411  : 
; 412  : 			if ( lpGuild->Use[n] > 0 && iGuildMemberIndex != -1 )

  00c69	8b 45 dc	 mov	 eax, DWORD PTR _lpGuild$232056[ebp]
  00c6c	03 45 d4	 add	 eax, DWORD PTR _n$232060[ebp]
  00c6f	0f b6 88 40 04
	00 00		 movzx	 ecx, BYTE PTR [eax+1088]
  00c76	85 c9		 test	 ecx, ecx
  00c78	0f 8e cb 00 00
	00		 jle	 $LN3@GDGuildDes
  00c7e	83 7d d0 ff	 cmp	 DWORD PTR _iGuildMemberIndex$232064[ebp], -1
  00c82	0f 84 c1 00 00
	00		 je	 $LN3@GDGuildDes

; 413  : 			{
; 414  : 				LPOBJ lpObj = &gObj[iGuildMemberIndex];

  00c88	8b 45 d0	 mov	 eax, DWORD PTR _iGuildMemberIndex$232064[ebp]
  00c8b	69 c0 38 2b 00
	00		 imul	 eax, 11064		; 00002b38H
  00c91	03 05 00 00 00
	00		 add	 eax, DWORD PTR ?gObj@@3PAUOBJECTSTRUCT@@A ; gObj
  00c97	89 45 cc	 mov	 DWORD PTR _lpObj$232066[ebp], eax

; 415  : 				
; 416  : 				if ( lpObj == NULL )

  00c9a	75 02		 jne	 SHORT $LN2@GDGuildDes

; 417  : 				{
; 418  : 					continue;

  00c9c	eb a7		 jmp	 SHORT $LN5@GDGuildDes
$LN2@GDGuildDes:

; 419  : 				}
; 420  : 
; 421  : 				if ( gObjIsConnected(iGuildMemberIndex) == FALSE )

  00c9e	8b 45 d0	 mov	 eax, DWORD PTR _iGuildMemberIndex$232064[ebp]
  00ca1	50		 push	 eax
  00ca2	e8 00 00 00 00	 call	 ?gObjIsConnected@@YAHH@Z ; gObjIsConnected
  00ca7	83 c4 04	 add	 esp, 4
  00caa	85 c0		 test	 eax, eax
  00cac	75 02		 jne	 SHORT $LN1@GDGuildDes

; 422  : 				{
; 423  : 					continue;

  00cae	eb 95		 jmp	 SHORT $LN5@GDGuildDes
$LN1@GDGuildDes:

; 424  : 				}
; 425  : 
; 426  : 				gObjNotifyUpdateUnionV1(lpObj);

  00cb0	8b 45 cc	 mov	 eax, DWORD PTR _lpObj$232066[ebp]
  00cb3	50		 push	 eax
  00cb4	e8 00 00 00 00	 call	 ?gObjNotifyUpdateUnionV1@@YAXPAUOBJECTSTRUCT@@@Z ; gObjNotifyUpdateUnionV1
  00cb9	83 c4 04	 add	 esp, 4

; 427  : 				gObjNotifyUpdateUnionV2(lpObj);

  00cbc	8b 45 cc	 mov	 eax, DWORD PTR _lpObj$232066[ebp]
  00cbf	50		 push	 eax
  00cc0	e8 00 00 00 00	 call	 ?gObjNotifyUpdateUnionV2@@YAXPAUOBJECTSTRUCT@@@Z ; gObjNotifyUpdateUnionV2
  00cc5	83 c4 04	 add	 esp, 4

; 428  : 				lpObj->lpGuild = NULL;

  00cc8	8b 45 cc	 mov	 eax, DWORD PTR _lpObj$232066[ebp]
  00ccb	c7 80 38 04 00
	00 00 00 00 00	 mov	 DWORD PTR [eax+1080], 0

; 429  : 				lpObj->GuildNumber = 0;

  00cd5	8b 45 cc	 mov	 eax, DWORD PTR _lpObj$232066[ebp]
  00cd8	c7 80 34 04 00
	00 00 00 00 00	 mov	 DWORD PTR [eax+1076], 0

; 430  : 				lpObj->GuildStatus = -1;

  00ce2	8b 45 cc	 mov	 eax, DWORD PTR _lpObj$232066[ebp]
  00ce5	c7 80 48 04 00
	00 ff ff ff ff	 mov	 DWORD PTR [eax+1096], -1

; 431  : 				lpObj->iGuildUnionTimeStamp = 0;

  00cef	8b 45 cc	 mov	 eax, DWORD PTR _lpObj$232066[ebp]
  00cf2	c7 80 4c 04 00
	00 00 00 00 00	 mov	 DWORD PTR [eax+1100], 0

; 432  : 
; 433  : 				GCResultSend(n,0x53, 1);

  00cfc	6a 01		 push	 1
  00cfe	6a 53		 push	 83			; 00000053H
  00d00	8b 45 d4	 mov	 eax, DWORD PTR _n$232060[ebp]
  00d03	50		 push	 eax
  00d04	e8 00 00 00 00	 call	 ?GCResultSend@@YAXHEE@Z	; GCResultSend
  00d09	83 c4 0c	 add	 esp, 12			; 0000000cH

; 434  : 				GCGuildViewportDelNow(lpObj->m_Index, FALSE);

  00d0c	6a 00		 push	 0
  00d0e	8b 45 cc	 mov	 eax, DWORD PTR _lpObj$232066[ebp]
  00d11	8b 08		 mov	 ecx, DWORD PTR [eax]
  00d13	51		 push	 ecx
  00d14	e8 00 00 00 00	 call	 ?GCGuildViewportDelNow@@YAXHH@Z ; GCGuildViewportDelNow
  00d19	83 c4 08	 add	 esp, 8

; 435  : 
; 436  : 				LogAddTD(lMsg.Get(MSGGET(1, 178)), gObj[n].Name);

  00d1c	8b 45 d4	 mov	 eax, DWORD PTR _n$232060[ebp]
  00d1f	69 c0 38 2b 00
	00		 imul	 eax, 11064		; 00002b38H
  00d25	8b 0d 00 00 00
	00		 mov	 ecx, DWORD PTR ?gObj@@3PAUOBJECTSTRUCT@@A ; gObj
  00d2b	8d 54 01 77	 lea	 edx, DWORD PTR [ecx+eax+119]
  00d2f	52		 push	 edx
  00d30	68 b2 01 00 00	 push	 434			; 000001b2H
  00d35	b9 00 00 00 00	 mov	 ecx, OFFSET ?lMsg@@3VCMsg@@A ; lMsg
  00d3a	e8 00 00 00 00	 call	 ?Get@CMsg@@QAEPADH@Z	; CMsg::Get
  00d3f	50		 push	 eax
  00d40	ff 15 00 00 00
	00		 call	 DWORD PTR ?LogAddTD@@3P6AXPADZZA ; LogAddTD
  00d46	83 c4 08	 add	 esp, 8
$LN3@GDGuildDes:

; 437  : 			}
; 438  : 		}

  00d49	e9 f7 fe ff ff	 jmp	 $LN5@GDGuildDes
$LN4@GDGuildDes:

; 439  : 
; 440  : 		UnionManager.DelUnion(lpGuild->Number);

  00d4e	8b 45 dc	 mov	 eax, DWORD PTR _lpGuild$232056[ebp]
  00d51	8b 08		 mov	 ecx, DWORD PTR [eax]
  00d53	51		 push	 ecx
  00d54	b9 00 00 00 00	 mov	 ecx, OFFSET ?UnionManager@@3VTUnion@@A ; UnionManager
  00d59	e8 00 00 00 00	 call	 ?DelUnion@TUnion@@QAEHH@Z ; TUnion::DelUnion

; 441  : 		Guild.DeleteGuild(szGuildName, szMaster);

  00d5e	8d 45 ec	 lea	 eax, DWORD PTR _szMaster$[ebp]
  00d61	50		 push	 eax
  00d62	8d 4d e0	 lea	 ecx, DWORD PTR _szGuildName$[ebp]
  00d65	51		 push	 ecx
  00d66	b9 00 00 00 00	 mov	 ecx, OFFSET ?Guild@@3VCGuildClass@@A ; Guild
  00d6b	e8 00 00 00 00	 call	 ?DeleteGuild@CGuildClass@@QAEHPAD0@Z ; CGuildClass::DeleteGuild

; 442  : 
; 443  : 		LogAdd(lMsg.Get(MSGGET(1, 179)), szGuildName, szMaster);

  00d70	8d 45 ec	 lea	 eax, DWORD PTR _szMaster$[ebp]
  00d73	50		 push	 eax
  00d74	8d 4d e0	 lea	 ecx, DWORD PTR _szGuildName$[ebp]
  00d77	51		 push	 ecx
  00d78	68 b3 01 00 00	 push	 435			; 000001b3H
  00d7d	b9 00 00 00 00	 mov	 ecx, OFFSET ?lMsg@@3VCMsg@@A ; lMsg
  00d82	e8 00 00 00 00	 call	 ?Get@CMsg@@QAEPADH@Z	; CMsg::Get
  00d87	50		 push	 eax
  00d88	ff 15 00 00 00
	00		 call	 DWORD PTR ?LogAdd@@3P6AXPADZZA ; LogAdd
  00d8e	83 c4 0c	 add	 esp, 12			; 0000000cH
$LN17@GDGuildDes:

; 444  : 	}
; 445  : }

  00d91	5f		 pop	 edi
  00d92	5e		 pop	 esi
  00d93	5b		 pop	 ebx
  00d94	8b 4d fc	 mov	 ecx, DWORD PTR __$ArrayPad$[ebp]
  00d97	33 cd		 xor	 ecx, ebp
  00d99	e8 00 00 00 00	 call	 @__security_check_cookie@4
  00d9e	8b e5		 mov	 esp, ebp
  00da0	5d		 pop	 ebp
  00da1	c3		 ret	 0
?GDGuildDestroyRecv@@YAXPAUSDHP_GUILDDESTROY_RESULT@@@Z ENDP ; GDGuildDestroyRecv
_TEXT	ENDS
PUBLIC	__$ArrayPad$
PUBLIC	?GDGuildMemberAdd@@YAXHPAD0@Z			; GDGuildMemberAdd
; Function compile flags: /Odtp /ZI
_TEXT	SEGMENT
_pMsg$ = -32						; size = 25
__$ArrayPad$ = -4					; size = 4
_aIndex$ = 8						; size = 4
_Name$ = 12						; size = 4
_MemberId$ = 16						; size = 4
?GDGuildMemberAdd@@YAXHPAD0@Z PROC			; GDGuildMemberAdd

; 457  : {

  00db0	55		 push	 ebp
  00db1	8b ec		 mov	 ebp, esp
  00db3	83 ec 60	 sub	 esp, 96			; 00000060H
  00db6	a1 00 00 00 00	 mov	 eax, DWORD PTR ___security_cookie
  00dbb	33 c5		 xor	 eax, ebp
  00dbd	89 45 fc	 mov	 DWORD PTR __$ArrayPad$[ebp], eax
  00dc0	53		 push	 ebx
  00dc1	56		 push	 esi
  00dc2	57		 push	 edi

; 458  : 	SDHP_GUILDMEMBERADD pMsg;
; 459  : 
; 460  : 	pMsg.h.c = 0xC1;

  00dc3	c6 45 e0 c1	 mov	 BYTE PTR _pMsg$[ebp], 193 ; 000000c1H

; 461  : 	pMsg.h.headcode = 0x32;

  00dc7	c6 45 e2 32	 mov	 BYTE PTR _pMsg$[ebp+2], 50 ; 00000032H

; 462  : 	pMsg.h.size = sizeof(pMsg);

  00dcb	c6 45 e1 19	 mov	 BYTE PTR _pMsg$[ebp+1], 25 ; 00000019H

; 463  : 	pMsg.NumberH = SET_NUMBERH(aIndex);

  00dcf	8b 45 08	 mov	 eax, DWORD PTR _aIndex$[ebp]
  00dd2	c1 e8 08	 shr	 eax, 8
  00dd5	88 45 f7	 mov	 BYTE PTR _pMsg$[ebp+23], al

; 464  : 	pMsg.NumberL = SET_NUMBERL(aIndex);

  00dd8	8b 45 08	 mov	 eax, DWORD PTR _aIndex$[ebp]
  00ddb	25 ff 00 00 00	 and	 eax, 255		; 000000ffH
  00de0	88 45 f8	 mov	 BYTE PTR _pMsg$[ebp+24], al

; 465  : 	pMsg.MemberID[MAX_GUILD_LEN] = 0;

  00de3	c6 45 f4 00	 mov	 BYTE PTR _pMsg$[ebp+20], 0

; 466  : 	pMsg.GuildName[MAX_ACCOUNT_LEN] = 0;

  00de7	c6 45 ed 00	 mov	 BYTE PTR _pMsg$[ebp+13], 0

; 467  : 	memcpy(pMsg.MemberID, MemberId, MAX_ACCOUNT_LEN);

  00deb	6a 0a		 push	 10			; 0000000aH
  00ded	8b 45 10	 mov	 eax, DWORD PTR _MemberId$[ebp]
  00df0	50		 push	 eax
  00df1	8d 4d ec	 lea	 ecx, DWORD PTR _pMsg$[ebp+12]
  00df4	51		 push	 ecx
  00df5	e8 00 00 00 00	 call	 _memcpy
  00dfa	83 c4 0c	 add	 esp, 12			; 0000000cH

; 468  : 	memcpy(pMsg.GuildName, Name, MAX_GUILD_LEN);

  00dfd	6a 08		 push	 8
  00dff	8b 45 0c	 mov	 eax, DWORD PTR _Name$[ebp]
  00e02	50		 push	 eax
  00e03	8d 4d e3	 lea	 ecx, DWORD PTR _pMsg$[ebp+3]
  00e06	51		 push	 ecx
  00e07	e8 00 00 00 00	 call	 _memcpy
  00e0c	83 c4 0c	 add	 esp, 12			; 0000000cH

; 469  : 
; 470  : 	wsExDbCli.DataSend((char*)&pMsg, pMsg.h.size);

  00e0f	0f b6 45 e1	 movzx	 eax, BYTE PTR _pMsg$[ebp+1]
  00e13	50		 push	 eax
  00e14	8d 4d e0	 lea	 ecx, DWORD PTR _pMsg$[ebp]
  00e17	51		 push	 ecx
  00e18	b9 00 00 00 00	 mov	 ecx, OFFSET ?wsExDbCli@@3VwsJoinServerCli@@A ; wsExDbCli
  00e1d	e8 00 00 00 00	 call	 ?DataSend@wsJoinServerCli@@QAEHPADH@Z ; wsJoinServerCli::DataSend

; 471  : }

  00e22	5f		 pop	 edi
  00e23	5e		 pop	 esi
  00e24	5b		 pop	 ebx
  00e25	8b 4d fc	 mov	 ecx, DWORD PTR __$ArrayPad$[ebp]
  00e28	33 cd		 xor	 ecx, ebp
  00e2a	e8 00 00 00 00	 call	 @__security_check_cookie@4
  00e2f	8b e5		 mov	 esp, ebp
  00e31	5d		 pop	 ebp
  00e32	c3		 ret	 0
?GDGuildMemberAdd@@YAXHPAD0@Z ENDP			; GDGuildMemberAdd
_TEXT	ENDS
PUBLIC	__$ArrayPad$
EXTRN	?AddMember@CGuildClass@@QAEPAU_GUILD_INFO_STRUCT@@PAD0HHHH@Z:PROC ; CGuildClass::AddMember
; Function compile flags: /Odtp /ZI
_TEXT	SEGMENT
_szGuildName$ = -40					; size = 9
_szMember$ = -28					; size = 11
_HereUserIndex$ = -16					; size = 4
_aIndex$ = -12						; size = 4
_lpNode$ = -8						; size = 4
__$ArrayPad$ = -4					; size = 4
_lpMsg$ = 8						; size = 4
?GDGuildMemberAddResult@@YAXPAUSDHP_GUILDMEMBERADD_RESULT@@@Z PROC ; GDGuildMemberAddResult

; 474  : {

  00e40	55		 push	 ebp
  00e41	8b ec		 mov	 ebp, esp
  00e43	83 ec 68	 sub	 esp, 104		; 00000068H
  00e46	a1 00 00 00 00	 mov	 eax, DWORD PTR ___security_cookie
  00e4b	33 c5		 xor	 eax, ebp
  00e4d	89 45 fc	 mov	 DWORD PTR __$ArrayPad$[ebp], eax
  00e50	53		 push	 ebx
  00e51	56		 push	 esi
  00e52	57		 push	 edi

; 475  : 	_GUILD_INFO_STRUCT * lpNode;
; 476  : 	int aIndex = -1;

  00e53	c7 45 f4 ff ff
	ff ff		 mov	 DWORD PTR _aIndex$[ebp], -1

; 477  : 	int HereUserIndex=-1;

  00e5a	c7 45 f0 ff ff
	ff ff		 mov	 DWORD PTR _HereUserIndex$[ebp], -1

; 478  : 	char szMember[MAX_ACCOUNT_LEN+1];
; 479  : 	char szGuildName[MAX_GUILD_LEN+1];
; 480  : 	szMember[MAX_ACCOUNT_LEN] = 0;

  00e61	c6 45 ee 00	 mov	 BYTE PTR _szMember$[ebp+10], 0

; 481  : 	szGuildName[MAX_GUILD_LEN] = 0;

  00e65	c6 45 e0 00	 mov	 BYTE PTR _szGuildName$[ebp+8], 0

; 482  : 
; 483  : 	memcpy(szMember, lpMsg->MemberID, MAX_ACCOUNT_LEN);

  00e69	6a 0a		 push	 10			; 0000000aH
  00e6b	8b 45 08	 mov	 eax, DWORD PTR _lpMsg$[ebp]
  00e6e	83 c0 10	 add	 eax, 16			; 00000010H
  00e71	50		 push	 eax
  00e72	8d 4d e4	 lea	 ecx, DWORD PTR _szMember$[ebp]
  00e75	51		 push	 ecx
  00e76	e8 00 00 00 00	 call	 _memcpy
  00e7b	83 c4 0c	 add	 esp, 12			; 0000000cH

; 484  : 	memcpy(szGuildName, lpMsg->GuildName, MAX_GUILD_LEN);

  00e7e	6a 08		 push	 8
  00e80	8b 45 08	 mov	 eax, DWORD PTR _lpMsg$[ebp]
  00e83	83 c0 07	 add	 eax, 7
  00e86	50		 push	 eax
  00e87	8d 4d d8	 lea	 ecx, DWORD PTR _szGuildName$[ebp]
  00e8a	51		 push	 ecx
  00e8b	e8 00 00 00 00	 call	 _memcpy
  00e90	83 c4 0c	 add	 esp, 12			; 0000000cH

; 485  : 
; 486  : 	if ( lpMsg->Flag == 1 )

  00e93	8b 45 08	 mov	 eax, DWORD PTR _lpMsg$[ebp]
  00e96	0f b6 48 04	 movzx	 ecx, BYTE PTR [eax+4]
  00e9a	83 f9 01	 cmp	 ecx, 1
  00e9d	75 7c		 jne	 SHORT $LN5@GDGuildMem

; 487  : 	{
; 488  : 		aIndex = MAKE_NUMBERW(lpMsg->NumberH, lpMsg->NumberL);

  00e9f	8b 45 08	 mov	 eax, DWORD PTR _lpMsg$[ebp]
  00ea2	0f b6 48 06	 movzx	 ecx, BYTE PTR [eax+6]
  00ea6	81 e1 ff 00 00
	00		 and	 ecx, 255		; 000000ffH
  00eac	0f b6 d1	 movzx	 edx, cl
  00eaf	8b 45 08	 mov	 eax, DWORD PTR _lpMsg$[ebp]
  00eb2	0f b6 48 05	 movzx	 ecx, BYTE PTR [eax+5]
  00eb6	81 e1 ff 00 00
	00		 and	 ecx, 255		; 000000ffH
  00ebc	0f b6 c1	 movzx	 eax, cl
  00ebf	c1 e0 08	 shl	 eax, 8
  00ec2	0b d0		 or	 edx, eax
  00ec4	0f b7 ca	 movzx	 ecx, dx
  00ec7	89 4d f4	 mov	 DWORD PTR _aIndex$[ebp], ecx

; 489  : 
; 490  : 		if ( gObjIsConnected(aIndex) == TRUE )

  00eca	8b 45 f4	 mov	 eax, DWORD PTR _aIndex$[ebp]
  00ecd	50		 push	 eax
  00ece	e8 00 00 00 00	 call	 ?gObjIsConnected@@YAHH@Z ; gObjIsConnected
  00ed3	83 c4 04	 add	 esp, 4
  00ed6	83 f8 01	 cmp	 eax, 1
  00ed9	75 40		 jne	 SHORT $LN5@GDGuildMem

; 491  : 		{
; 492  : 			if ( strcmp(szMember, gObj[aIndex].Name) == 0 )

  00edb	8b 45 f4	 mov	 eax, DWORD PTR _aIndex$[ebp]
  00ede	69 c0 38 2b 00
	00		 imul	 eax, 11064		; 00002b38H
  00ee4	8b 0d 00 00 00
	00		 mov	 ecx, DWORD PTR ?gObj@@3PAUOBJECTSTRUCT@@A ; gObj
  00eea	8d 54 01 77	 lea	 edx, DWORD PTR [ecx+eax+119]
  00eee	52		 push	 edx
  00eef	8d 45 e4	 lea	 eax, DWORD PTR _szMember$[ebp]
  00ef2	50		 push	 eax
  00ef3	e8 00 00 00 00	 call	 _strcmp
  00ef8	83 c4 08	 add	 esp, 8
  00efb	85 c0		 test	 eax, eax
  00efd	75 1c		 jne	 SHORT $LN5@GDGuildMem

; 493  : 			{
; 494  : 				GCResultSend(aIndex, 0x51, lpMsg->Result);

  00eff	8b 45 08	 mov	 eax, DWORD PTR _lpMsg$[ebp]
  00f02	0f b6 48 03	 movzx	 ecx, BYTE PTR [eax+3]
  00f06	51		 push	 ecx
  00f07	6a 51		 push	 81			; 00000051H
  00f09	8b 55 f4	 mov	 edx, DWORD PTR _aIndex$[ebp]
  00f0c	52		 push	 edx
  00f0d	e8 00 00 00 00	 call	 ?GCResultSend@@YAXHEE@Z	; GCResultSend
  00f12	83 c4 0c	 add	 esp, 12			; 0000000cH

; 495  : 				HereUserIndex = aIndex;

  00f15	8b 45 f4	 mov	 eax, DWORD PTR _aIndex$[ebp]
  00f18	89 45 f0	 mov	 DWORD PTR _HereUserIndex$[ebp], eax
$LN5@GDGuildMem:

; 496  : 			}
; 497  : 		}
; 498  : 	}
; 499  : 
; 500  : 	if ( lpMsg->Result == 1 )

  00f1b	8b 45 08	 mov	 eax, DWORD PTR _lpMsg$[ebp]
  00f1e	0f b6 48 03	 movzx	 ecx, BYTE PTR [eax+3]
  00f22	83 f9 01	 cmp	 ecx, 1
  00f25	0f 85 cd 00 00
	00		 jne	 $LN6@GDGuildMem

; 501  : 	{
; 502  : 		lpNode = Guild.AddMember(szGuildName, szMember, HereUserIndex, -1, 0, lpMsg->pServer);

  00f2b	8b 45 08	 mov	 eax, DWORD PTR _lpMsg$[ebp]
  00f2e	0f bf 48 1c	 movsx	 ecx, WORD PTR [eax+28]
  00f32	51		 push	 ecx
  00f33	6a 00		 push	 0
  00f35	6a ff		 push	 -1
  00f37	8b 55 f0	 mov	 edx, DWORD PTR _HereUserIndex$[ebp]
  00f3a	52		 push	 edx
  00f3b	8d 45 e4	 lea	 eax, DWORD PTR _szMember$[ebp]
  00f3e	50		 push	 eax
  00f3f	8d 4d d8	 lea	 ecx, DWORD PTR _szGuildName$[ebp]
  00f42	51		 push	 ecx
  00f43	b9 00 00 00 00	 mov	 ecx, OFFSET ?Guild@@3VCGuildClass@@A ; Guild
  00f48	e8 00 00 00 00	 call	 ?AddMember@CGuildClass@@QAEPAU_GUILD_INFO_STRUCT@@PAD0HHHH@Z ; CGuildClass::AddMember
  00f4d	89 45 f8	 mov	 DWORD PTR _lpNode$[ebp], eax

; 503  : 
; 504  : 		if ( aIndex >= 0 && lpNode != NULL )

  00f50	83 7d f4 00	 cmp	 DWORD PTR _aIndex$[ebp], 0
  00f54	0f 8c 9e 00 00
	00		 jl	 $LN6@GDGuildMem
  00f5a	83 7d f8 00	 cmp	 DWORD PTR _lpNode$[ebp], 0
  00f5e	0f 84 94 00 00
	00		 je	 $LN6@GDGuildMem

; 505  : 		{
; 506  : 			gObj[aIndex].lpGuild = lpNode;

  00f64	8b 45 f4	 mov	 eax, DWORD PTR _aIndex$[ebp]
  00f67	69 c0 38 2b 00
	00		 imul	 eax, 11064		; 00002b38H
  00f6d	8b 0d 00 00 00
	00		 mov	 ecx, DWORD PTR ?gObj@@3PAUOBJECTSTRUCT@@A ; gObj
  00f73	8b 55 f8	 mov	 edx, DWORD PTR _lpNode$[ebp]
  00f76	89 94 01 38 04
	00 00		 mov	 DWORD PTR [ecx+eax+1080], edx

; 507  : 			gObj[aIndex].GuildStatus = 0;

  00f7d	8b 45 f4	 mov	 eax, DWORD PTR _aIndex$[ebp]
  00f80	69 c0 38 2b 00
	00		 imul	 eax, 11064		; 00002b38H
  00f86	8b 0d 00 00 00
	00		 mov	 ecx, DWORD PTR ?gObj@@3PAUOBJECTSTRUCT@@A ; gObj
  00f8c	c7 84 01 48 04
	00 00 00 00 00
	00		 mov	 DWORD PTR [ecx+eax+1096], 0

; 508  : 			gObj[aIndex].GuildNumber = lpNode->Number;

  00f97	8b 45 f4	 mov	 eax, DWORD PTR _aIndex$[ebp]
  00f9a	69 c0 38 2b 00
	00		 imul	 eax, 11064		; 00002b38H
  00fa0	8b 0d 00 00 00
	00		 mov	 ecx, DWORD PTR ?gObj@@3PAUOBJECTSTRUCT@@A ; gObj
  00fa6	8b 55 f8	 mov	 edx, DWORD PTR _lpNode$[ebp]
  00fa9	8b 12		 mov	 edx, DWORD PTR [edx]
  00fab	89 94 01 34 04
	00 00		 mov	 DWORD PTR [ecx+eax+1076], edx

; 509  : 			gObj[aIndex].iGuildUnionTimeStamp = 0;

  00fb2	8b 45 f4	 mov	 eax, DWORD PTR _aIndex$[ebp]
  00fb5	69 c0 38 2b 00
	00		 imul	 eax, 11064		; 00002b38H
  00fbb	8b 0d 00 00 00
	00		 mov	 ecx, DWORD PTR ?gObj@@3PAUOBJECTSTRUCT@@A ; gObj
  00fc1	c7 84 01 4c 04
	00 00 00 00 00
	00		 mov	 DWORD PTR [ecx+eax+1100], 0

; 510  : 			GCGuildViewportNowPaint(aIndex, szGuildName, gObj[aIndex].lpGuild->Mark, FALSE);

  00fcc	6a 00		 push	 0
  00fce	8b 45 f4	 mov	 eax, DWORD PTR _aIndex$[ebp]
  00fd1	69 c0 38 2b 00
	00		 imul	 eax, 11064		; 00002b38H
  00fd7	8b 0d 00 00 00
	00		 mov	 ecx, DWORD PTR ?gObj@@3PAUOBJECTSTRUCT@@A ; gObj
  00fdd	8b 94 01 38 04
	00 00		 mov	 edx, DWORD PTR [ecx+eax+1080]
  00fe4	83 c2 0d	 add	 edx, 13			; 0000000dH
  00fe7	52		 push	 edx
  00fe8	8d 45 d8	 lea	 eax, DWORD PTR _szGuildName$[ebp]
  00feb	50		 push	 eax
  00fec	8b 4d f4	 mov	 ecx, DWORD PTR _aIndex$[ebp]
  00fef	51		 push	 ecx
  00ff0	e8 00 00 00 00	 call	 ?GCGuildViewportNowPaint@@YAXHPADPAEH@Z ; GCGuildViewportNowPaint
  00ff5	83 c4 10	 add	 esp, 16			; 00000010H
$LN6@GDGuildMem:

; 511  : 		}
; 512  : 	}
; 513  : }

  00ff8	5f		 pop	 edi
  00ff9	5e		 pop	 esi
  00ffa	5b		 pop	 ebx
  00ffb	8b 4d fc	 mov	 ecx, DWORD PTR __$ArrayPad$[ebp]
  00ffe	33 cd		 xor	 ecx, ebp
  01000	e8 00 00 00 00	 call	 @__security_check_cookie@4
  01005	8b e5		 mov	 esp, ebp
  01007	5d		 pop	 ebp
  01008	c3		 ret	 0
?GDGuildMemberAddResult@@YAXPAUSDHP_GUILDMEMBERADD_RESULT@@@Z ENDP ; GDGuildMemberAddResult
_TEXT	ENDS
PUBLIC	__$ArrayPad$
PUBLIC	?GDGuildMemberDel@@YAXHPAD0@Z			; GDGuildMemberDel
; Function compile flags: /Odtp /ZI
_TEXT	SEGMENT
_pMsg$ = -28						; size = 23
__$ArrayPad$ = -4					; size = 4
_aIndex$ = 8						; size = 4
_Name$ = 12						; size = 4
_MemberId$ = 16						; size = 4
?GDGuildMemberDel@@YAXHPAD0@Z PROC			; GDGuildMemberDel

; 525  : {

  01010	55		 push	 ebp
  01011	8b ec		 mov	 ebp, esp
  01013	83 ec 5c	 sub	 esp, 92			; 0000005cH
  01016	a1 00 00 00 00	 mov	 eax, DWORD PTR ___security_cookie
  0101b	33 c5		 xor	 eax, ebp
  0101d	89 45 fc	 mov	 DWORD PTR __$ArrayPad$[ebp], eax
  01020	53		 push	 ebx
  01021	56		 push	 esi
  01022	57		 push	 edi

; 526  : 	SDHP_GUILDMEMBERDEL pMsg;
; 527  : 
; 528  : 	pMsg.h.c = 0xC1;

  01023	c6 45 e4 c1	 mov	 BYTE PTR _pMsg$[ebp], 193 ; 000000c1H

; 529  : 	pMsg.h.headcode = 0x33;

  01027	c6 45 e6 33	 mov	 BYTE PTR _pMsg$[ebp+2], 51 ; 00000033H

; 530  : 	pMsg.h.size = sizeof(pMsg);

  0102b	c6 45 e5 17	 mov	 BYTE PTR _pMsg$[ebp+1], 23 ; 00000017H

; 531  : 	pMsg.NumberH = SET_NUMBERH(aIndex);

  0102f	8b 45 08	 mov	 eax, DWORD PTR _aIndex$[ebp]
  01032	c1 e8 08	 shr	 eax, 8
  01035	88 45 e7	 mov	 BYTE PTR _pMsg$[ebp+3], al

; 532  : 	pMsg.NumberL = SET_NUMBERL(aIndex);

  01038	8b 45 08	 mov	 eax, DWORD PTR _aIndex$[ebp]
  0103b	25 ff 00 00 00	 and	 eax, 255		; 000000ffH
  01040	88 45 e8	 mov	 BYTE PTR _pMsg$[ebp+4], al

; 533  : 	memcpy(pMsg.MemberID, MemberId, MAX_ACCOUNT_LEN);

  01043	6a 0a		 push	 10			; 0000000aH
  01045	8b 45 10	 mov	 eax, DWORD PTR _MemberId$[ebp]
  01048	50		 push	 eax
  01049	8d 4d f1	 lea	 ecx, DWORD PTR _pMsg$[ebp+13]
  0104c	51		 push	 ecx
  0104d	e8 00 00 00 00	 call	 _memcpy
  01052	83 c4 0c	 add	 esp, 12			; 0000000cH

; 534  : 	memcpy(pMsg.GuildName, Name, MAX_GUILD_LEN);

  01055	6a 08		 push	 8
  01057	8b 45 0c	 mov	 eax, DWORD PTR _Name$[ebp]
  0105a	50		 push	 eax
  0105b	8d 4d e9	 lea	 ecx, DWORD PTR _pMsg$[ebp+5]
  0105e	51		 push	 ecx
  0105f	e8 00 00 00 00	 call	 _memcpy
  01064	83 c4 0c	 add	 esp, 12			; 0000000cH

; 535  : 
; 536  : 	wsExDbCli.DataSend((char*)&pMsg, pMsg.h.size);

  01067	0f b6 45 e5	 movzx	 eax, BYTE PTR _pMsg$[ebp+1]
  0106b	50		 push	 eax
  0106c	8d 4d e4	 lea	 ecx, DWORD PTR _pMsg$[ebp]
  0106f	51		 push	 ecx
  01070	b9 00 00 00 00	 mov	 ecx, OFFSET ?wsExDbCli@@3VwsJoinServerCli@@A ; wsExDbCli
  01075	e8 00 00 00 00	 call	 ?DataSend@wsJoinServerCli@@QAEHPADH@Z ; wsJoinServerCli::DataSend

; 537  : }

  0107a	5f		 pop	 edi
  0107b	5e		 pop	 esi
  0107c	5b		 pop	 ebx
  0107d	8b 4d fc	 mov	 ecx, DWORD PTR __$ArrayPad$[ebp]
  01080	33 cd		 xor	 ecx, ebp
  01082	e8 00 00 00 00	 call	 @__security_check_cookie@4
  01087	8b e5		 mov	 esp, ebp
  01089	5d		 pop	 ebp
  0108a	c3		 ret	 0
?GDGuildMemberDel@@YAXHPAD0@Z ENDP			; GDGuildMemberDel
_TEXT	ENDS
PUBLIC	__$ArrayPad$
EXTRN	?DelMember@CGuildClass@@QAEHPAD0@Z:PROC		; CGuildClass::DelMember
; Function compile flags: /Odtp /ZI
_TEXT	SEGMENT
_iMember$232148 = -36					; size = 4
_szGuildName$ = -32					; size = 9
_szMember$ = -20					; size = 11
_aIndex$ = -8						; size = 4
__$ArrayPad$ = -4					; size = 4
_lpMsg$ = 8						; size = 4
?GDGuildMemberDelResult@@YAXPAUSDHP_GUILDMEMBERDEL_RESULT@@@Z PROC ; GDGuildMemberDelResult

; 540  : {

  01090	55		 push	 ebp
  01091	8b ec		 mov	 ebp, esp
  01093	83 ec 64	 sub	 esp, 100		; 00000064H
  01096	a1 00 00 00 00	 mov	 eax, DWORD PTR ___security_cookie
  0109b	33 c5		 xor	 eax, ebp
  0109d	89 45 fc	 mov	 DWORD PTR __$ArrayPad$[ebp], eax
  010a0	53		 push	 ebx
  010a1	56		 push	 esi
  010a2	57		 push	 edi

; 541  : 	int aIndex = -1;

  010a3	c7 45 f8 ff ff
	ff ff		 mov	 DWORD PTR _aIndex$[ebp], -1

; 542  : 	char szMember[MAX_ACCOUNT_LEN+1];
; 543  : 	char szGuildName[MAX_GUILD_LEN+1];
; 544  : 	szMember[MAX_ACCOUNT_LEN] = 0;

  010aa	c6 45 f6 00	 mov	 BYTE PTR _szMember$[ebp+10], 0

; 545  : 	szGuildName[MAX_GUILD_LEN] = 0;

  010ae	c6 45 e8 00	 mov	 BYTE PTR _szGuildName$[ebp+8], 0

; 546  : 
; 547  : 	memcpy(szMember, lpMsg->MemberID, MAX_ACCOUNT_LEN);

  010b2	6a 0a		 push	 10			; 0000000aH
  010b4	8b 45 08	 mov	 eax, DWORD PTR _lpMsg$[ebp]
  010b7	83 c0 10	 add	 eax, 16			; 00000010H
  010ba	50		 push	 eax
  010bb	8d 4d ec	 lea	 ecx, DWORD PTR _szMember$[ebp]
  010be	51		 push	 ecx
  010bf	e8 00 00 00 00	 call	 _memcpy
  010c4	83 c4 0c	 add	 esp, 12			; 0000000cH

; 548  : 	memcpy(szGuildName, lpMsg->GuildName, MAX_GUILD_LEN);

  010c7	6a 08		 push	 8
  010c9	8b 45 08	 mov	 eax, DWORD PTR _lpMsg$[ebp]
  010cc	83 c0 07	 add	 eax, 7
  010cf	50		 push	 eax
  010d0	8d 4d e0	 lea	 ecx, DWORD PTR _szGuildName$[ebp]
  010d3	51		 push	 ecx
  010d4	e8 00 00 00 00	 call	 _memcpy
  010d9	83 c4 0c	 add	 esp, 12			; 0000000cH

; 549  : 
; 550  : 	if ( lpMsg->Flag == 1 )

  010dc	8b 45 08	 mov	 eax, DWORD PTR _lpMsg$[ebp]
  010df	0f b6 48 04	 movzx	 ecx, BYTE PTR [eax+4]
  010e3	83 f9 01	 cmp	 ecx, 1
  010e6	0f 85 e4 00 00
	00		 jne	 $LN15@GDGuildMem@2

; 551  : 	{
; 552  : 		aIndex = MAKE_NUMBERW(lpMsg->NumberH, lpMsg->NumberL);

  010ec	8b 45 08	 mov	 eax, DWORD PTR _lpMsg$[ebp]
  010ef	0f b6 48 06	 movzx	 ecx, BYTE PTR [eax+6]
  010f3	81 e1 ff 00 00
	00		 and	 ecx, 255		; 000000ffH
  010f9	0f b6 d1	 movzx	 edx, cl
  010fc	8b 45 08	 mov	 eax, DWORD PTR _lpMsg$[ebp]
  010ff	0f b6 48 05	 movzx	 ecx, BYTE PTR [eax+5]
  01103	81 e1 ff 00 00
	00		 and	 ecx, 255		; 000000ffH
  01109	0f b6 c1	 movzx	 eax, cl
  0110c	c1 e0 08	 shl	 eax, 8
  0110f	0b d0		 or	 edx, eax
  01111	0f b7 ca	 movzx	 ecx, dx
  01114	89 4d f8	 mov	 DWORD PTR _aIndex$[ebp], ecx

; 553  : 
; 554  : 		if ( gObjIsConnected(aIndex) == TRUE )

  01117	8b 45 f8	 mov	 eax, DWORD PTR _aIndex$[ebp]
  0111a	50		 push	 eax
  0111b	e8 00 00 00 00	 call	 ?gObjIsConnected@@YAHH@Z ; gObjIsConnected
  01120	83 c4 04	 add	 esp, 4
  01123	83 f8 01	 cmp	 eax, 1
  01126	75 7b		 jne	 SHORT $LN14@GDGuildMem@2

; 555  : 		{
; 556  : 			if ( strcmp(szMember, gObj[aIndex].Name) == 0 )

  01128	8b 45 f8	 mov	 eax, DWORD PTR _aIndex$[ebp]
  0112b	69 c0 38 2b 00
	00		 imul	 eax, 11064		; 00002b38H
  01131	8b 0d 00 00 00
	00		 mov	 ecx, DWORD PTR ?gObj@@3PAUOBJECTSTRUCT@@A ; gObj
  01137	8d 54 01 77	 lea	 edx, DWORD PTR [ecx+eax+119]
  0113b	52		 push	 edx
  0113c	8d 45 ec	 lea	 eax, DWORD PTR _szMember$[ebp]
  0113f	50		 push	 eax
  01140	e8 00 00 00 00	 call	 _strcmp
  01145	83 c4 08	 add	 esp, 8
  01148	85 c0		 test	 eax, eax
  0114a	75 45		 jne	 SHORT $LN13@GDGuildMem@2

; 557  : 			{
; 558  : 				GCResultSend(aIndex, 0x53, lpMsg->Result);

  0114c	8b 45 08	 mov	 eax, DWORD PTR _lpMsg$[ebp]
  0114f	0f b6 48 03	 movzx	 ecx, BYTE PTR [eax+3]
  01153	51		 push	 ecx
  01154	6a 53		 push	 83			; 00000053H
  01156	8b 55 f8	 mov	 edx, DWORD PTR _aIndex$[ebp]
  01159	52		 push	 edx
  0115a	e8 00 00 00 00	 call	 ?GCResultSend@@YAXHEE@Z	; GCResultSend
  0115f	83 c4 0c	 add	 esp, 12			; 0000000cH

; 559  : 				LogAdd(lMsg.Get(MSGGET(1, 180)), gObj[aIndex].Name);

  01162	8b 45 f8	 mov	 eax, DWORD PTR _aIndex$[ebp]
  01165	69 c0 38 2b 00
	00		 imul	 eax, 11064		; 00002b38H
  0116b	8b 0d 00 00 00
	00		 mov	 ecx, DWORD PTR ?gObj@@3PAUOBJECTSTRUCT@@A ; gObj
  01171	8d 54 01 77	 lea	 edx, DWORD PTR [ecx+eax+119]
  01175	52		 push	 edx
  01176	68 b4 01 00 00	 push	 436			; 000001b4H
  0117b	b9 00 00 00 00	 mov	 ecx, OFFSET ?lMsg@@3VCMsg@@A ; lMsg
  01180	e8 00 00 00 00	 call	 ?Get@CMsg@@QAEPADH@Z	; CMsg::Get
  01185	50		 push	 eax
  01186	ff 15 00 00 00
	00		 call	 DWORD PTR ?LogAdd@@3P6AXPADZZA ; LogAdd
  0118c	83 c4 08	 add	 esp, 8

; 560  : 			}
; 561  : 			else

  0118f	eb 10		 jmp	 SHORT $LN12@GDGuildMem@2
$LN13@GDGuildMem@2:

; 562  : 			{
; 563  : 				GCResultSend(aIndex, 0x53, 5);

  01191	6a 05		 push	 5
  01193	6a 53		 push	 83			; 00000053H
  01195	8b 45 f8	 mov	 eax, DWORD PTR _aIndex$[ebp]
  01198	50		 push	 eax
  01199	e8 00 00 00 00	 call	 ?GCResultSend@@YAXHEE@Z	; GCResultSend
  0119e	83 c4 0c	 add	 esp, 12			; 0000000cH
$LN12@GDGuildMem@2:

; 564  : 			}
; 565  : 		}
; 566  : 		else

  011a1	eb 2d		 jmp	 SHORT $LN15@GDGuildMem@2
$LN14@GDGuildMem@2:

; 567  : 		{
; 568  : 			LogAdd(lMsg.Get(MSGGET(1, 181)), gObj[aIndex].Name);

  011a3	8b 45 f8	 mov	 eax, DWORD PTR _aIndex$[ebp]
  011a6	69 c0 38 2b 00
	00		 imul	 eax, 11064		; 00002b38H
  011ac	8b 0d 00 00 00
	00		 mov	 ecx, DWORD PTR ?gObj@@3PAUOBJECTSTRUCT@@A ; gObj
  011b2	8d 54 01 77	 lea	 edx, DWORD PTR [ecx+eax+119]
  011b6	52		 push	 edx
  011b7	68 b5 01 00 00	 push	 437			; 000001b5H
  011bc	b9 00 00 00 00	 mov	 ecx, OFFSET ?lMsg@@3VCMsg@@A ; lMsg
  011c1	e8 00 00 00 00	 call	 ?Get@CMsg@@QAEPADH@Z	; CMsg::Get
  011c6	50		 push	 eax
  011c7	ff 15 00 00 00
	00		 call	 DWORD PTR ?LogAdd@@3P6AXPADZZA ; LogAdd
  011cd	83 c4 08	 add	 esp, 8
$LN15@GDGuildMem@2:

; 569  : 		}
; 570  : 	}
; 571  : 
; 572  : 	if ( lpMsg->Result == 1 )

  011d0	8b 45 08	 mov	 eax, DWORD PTR _lpMsg$[ebp]
  011d3	0f b6 48 03	 movzx	 ecx, BYTE PTR [eax+3]
  011d7	83 f9 01	 cmp	 ecx, 1
  011da	0f 85 89 01 00
	00		 jne	 $LN10@GDGuildMem@2

; 573  : 	{
; 574  : 		int iMember = 0;

  011e0	c7 45 dc 00 00
	00 00		 mov	 DWORD PTR _iMember$232148[ebp], 0
$LN9@GDGuildMem@2:

; 575  : 
; 576  : 		while ( true )

  011e7	b8 01 00 00 00	 mov	 eax, 1
  011ec	85 c0		 test	 eax, eax
  011ee	0f 84 61 01 00
	00		 je	 $LN8@GDGuildMem@2

; 577  : 		{
; 578  : 			if ( gObj[iMember].Connected > PLAYER_LOGGED)

  011f4	8b 45 dc	 mov	 eax, DWORD PTR _iMember$232148[ebp]
  011f7	69 c0 38 2b 00
	00		 imul	 eax, 11064		; 00002b38H
  011fd	8b 0d 00 00 00
	00		 mov	 ecx, DWORD PTR ?gObj@@3PAUOBJECTSTRUCT@@A ; gObj
  01203	83 7c 01 04 02	 cmp	 DWORD PTR [ecx+eax+4], 2
  01208	0f 8e 2c 01 00
	00		 jle	 $LN7@GDGuildMem@2

; 579  : 			{
; 580  : 				if ( gObj[iMember].GuildNumber > 0 )

  0120e	8b 45 dc	 mov	 eax, DWORD PTR _iMember$232148[ebp]
  01211	69 c0 38 2b 00
	00		 imul	 eax, 11064		; 00002b38H
  01217	8b 0d 00 00 00
	00		 mov	 ecx, DWORD PTR ?gObj@@3PAUOBJECTSTRUCT@@A ; gObj
  0121d	83 bc 01 34 04
	00 00 00	 cmp	 DWORD PTR [ecx+eax+1076], 0
  01225	0f 8e 0f 01 00
	00		 jle	 $LN7@GDGuildMem@2

; 581  : 				{
; 582  : 					if ( gObj[iMember].Name[0] == szMember[0] && gObj[iMember].Name[1] == szMember[1] )

  0122b	8b 45 dc	 mov	 eax, DWORD PTR _iMember$232148[ebp]
  0122e	69 c0 38 2b 00
	00		 imul	 eax, 11064		; 00002b38H
  01234	8b 0d 00 00 00
	00		 mov	 ecx, DWORD PTR ?gObj@@3PAUOBJECTSTRUCT@@A ; gObj
  0123a	0f be 54 01 77	 movsx	 edx, BYTE PTR [ecx+eax+119]
  0123f	0f be 45 ec	 movsx	 eax, BYTE PTR _szMember$[ebp]
  01243	3b d0		 cmp	 edx, eax
  01245	0f 85 ef 00 00
	00		 jne	 $LN7@GDGuildMem@2
  0124b	8b 45 dc	 mov	 eax, DWORD PTR _iMember$232148[ebp]
  0124e	69 c0 38 2b 00
	00		 imul	 eax, 11064		; 00002b38H
  01254	8b 0d 00 00 00
	00		 mov	 ecx, DWORD PTR ?gObj@@3PAUOBJECTSTRUCT@@A ; gObj
  0125a	0f be 54 01 78	 movsx	 edx, BYTE PTR [ecx+eax+120]
  0125f	0f be 45 ed	 movsx	 eax, BYTE PTR _szMember$[ebp+1]
  01263	3b d0		 cmp	 edx, eax
  01265	0f 85 cf 00 00
	00		 jne	 $LN7@GDGuildMem@2

; 583  : 					{
; 584  : 						if ( strcmp(gObj[iMember].Name, szMember) == 0 )

  0126b	8d 45 ec	 lea	 eax, DWORD PTR _szMember$[ebp]
  0126e	50		 push	 eax
  0126f	8b 4d dc	 mov	 ecx, DWORD PTR _iMember$232148[ebp]
  01272	69 c9 38 2b 00
	00		 imul	 ecx, 11064		; 00002b38H
  01278	8b 15 00 00 00
	00		 mov	 edx, DWORD PTR ?gObj@@3PAUOBJECTSTRUCT@@A ; gObj
  0127e	8d 44 0a 77	 lea	 eax, DWORD PTR [edx+ecx+119]
  01282	50		 push	 eax
  01283	e8 00 00 00 00	 call	 _strcmp
  01288	83 c4 08	 add	 esp, 8
  0128b	85 c0		 test	 eax, eax
  0128d	0f 85 a7 00 00
	00		 jne	 $LN7@GDGuildMem@2

; 585  : 						{
; 586  : 							GCGuildViewportDelNow(iMember, FALSE);

  01293	6a 00		 push	 0
  01295	8b 45 dc	 mov	 eax, DWORD PTR _iMember$232148[ebp]
  01298	50		 push	 eax
  01299	e8 00 00 00 00	 call	 ?GCGuildViewportDelNow@@YAXHH@Z ; GCGuildViewportDelNow
  0129e	83 c4 08	 add	 esp, 8

; 587  : 							gObj[iMember].lpGuild = NULL;

  012a1	8b 45 dc	 mov	 eax, DWORD PTR _iMember$232148[ebp]
  012a4	69 c0 38 2b 00
	00		 imul	 eax, 11064		; 00002b38H
  012aa	8b 0d 00 00 00
	00		 mov	 ecx, DWORD PTR ?gObj@@3PAUOBJECTSTRUCT@@A ; gObj
  012b0	c7 84 01 38 04
	00 00 00 00 00
	00		 mov	 DWORD PTR [ecx+eax+1080], 0

; 588  : 							gObj[iMember].GuildNumber = 0;

  012bb	8b 45 dc	 mov	 eax, DWORD PTR _iMember$232148[ebp]
  012be	69 c0 38 2b 00
	00		 imul	 eax, 11064		; 00002b38H
  012c4	8b 0d 00 00 00
	00		 mov	 ecx, DWORD PTR ?gObj@@3PAUOBJECTSTRUCT@@A ; gObj
  012ca	c7 84 01 34 04
	00 00 00 00 00
	00		 mov	 DWORD PTR [ecx+eax+1076], 0

; 589  : 							gObj[iMember].GuildStatus = -1;

  012d5	8b 45 dc	 mov	 eax, DWORD PTR _iMember$232148[ebp]
  012d8	69 c0 38 2b 00
	00		 imul	 eax, 11064		; 00002b38H
  012de	8b 0d 00 00 00
	00		 mov	 ecx, DWORD PTR ?gObj@@3PAUOBJECTSTRUCT@@A ; gObj
  012e4	c7 84 01 48 04
	00 00 ff ff ff
	ff		 mov	 DWORD PTR [ecx+eax+1096], -1

; 590  : 							gObjNotifyUpdateUnionV1(&gObj[iMember]);

  012ef	8b 45 dc	 mov	 eax, DWORD PTR _iMember$232148[ebp]
  012f2	69 c0 38 2b 00
	00		 imul	 eax, 11064		; 00002b38H
  012f8	03 05 00 00 00
	00		 add	 eax, DWORD PTR ?gObj@@3PAUOBJECTSTRUCT@@A ; gObj
  012fe	50		 push	 eax
  012ff	e8 00 00 00 00	 call	 ?gObjNotifyUpdateUnionV1@@YAXPAUOBJECTSTRUCT@@@Z ; gObjNotifyUpdateUnionV1
  01304	83 c4 04	 add	 esp, 4

; 591  : 
; 592  : 							// User is ejected from guild %d %s
; 593  : 							LogAdd(lMsg.Get(MSGGET(1, 182)), aIndex, gObj[iMember].Name);

  01307	8b 45 dc	 mov	 eax, DWORD PTR _iMember$232148[ebp]
  0130a	69 c0 38 2b 00
	00		 imul	 eax, 11064		; 00002b38H
  01310	8b 0d 00 00 00
	00		 mov	 ecx, DWORD PTR ?gObj@@3PAUOBJECTSTRUCT@@A ; gObj
  01316	8d 54 01 77	 lea	 edx, DWORD PTR [ecx+eax+119]
  0131a	52		 push	 edx
  0131b	8b 45 f8	 mov	 eax, DWORD PTR _aIndex$[ebp]
  0131e	50		 push	 eax
  0131f	68 b6 01 00 00	 push	 438			; 000001b6H
  01324	b9 00 00 00 00	 mov	 ecx, OFFSET ?lMsg@@3VCMsg@@A ; lMsg
  01329	e8 00 00 00 00	 call	 ?Get@CMsg@@QAEPADH@Z	; CMsg::Get
  0132e	50		 push	 eax
  0132f	ff 15 00 00 00
	00		 call	 DWORD PTR ?LogAdd@@3P6AXPADZZA ; LogAdd
  01335	83 c4 0c	 add	 esp, 12			; 0000000cH

; 594  : 							break;

  01338	eb 1b		 jmp	 SHORT $LN8@GDGuildMem@2
$LN7@GDGuildMem@2:

; 595  : 						}
; 596  : 					}
; 597  : 				}
; 598  : 			}
; 599  : 
; 600  : 			if ( iMember < OBJMAX-1 )

  0133a	81 7d dc 97 3a
	00 00		 cmp	 DWORD PTR _iMember$232148[ebp], 14999 ; 00003a97H
  01341	7d 0b		 jge	 SHORT $LN3@GDGuildMem@2

; 601  : 			{
; 602  : 				iMember++;

  01343	8b 45 dc	 mov	 eax, DWORD PTR _iMember$232148[ebp]
  01346	83 c0 01	 add	 eax, 1
  01349	89 45 dc	 mov	 DWORD PTR _iMember$232148[ebp], eax

; 603  : 			}
; 604  : 			else

  0134c	eb 02		 jmp	 SHORT $LN2@GDGuildMem@2
$LN3@GDGuildMem@2:

; 605  : 			{
; 606  : 				break;

  0134e	eb 05		 jmp	 SHORT $LN8@GDGuildMem@2
$LN2@GDGuildMem@2:

; 607  : 			}
; 608  : 		}

  01350	e9 92 fe ff ff	 jmp	 $LN9@GDGuildMem@2
$LN8@GDGuildMem@2:

; 609  : 
; 610  : 		Guild.DelMember(szGuildName, szMember);

  01355	8d 45 ec	 lea	 eax, DWORD PTR _szMember$[ebp]
  01358	50		 push	 eax
  01359	8d 4d e0	 lea	 ecx, DWORD PTR _szGuildName$[ebp]
  0135c	51		 push	 ecx
  0135d	b9 00 00 00 00	 mov	 ecx, OFFSET ?Guild@@3VCGuildClass@@A ; Guild
  01362	e8 00 00 00 00	 call	 ?DelMember@CGuildClass@@QAEHPAD0@Z ; CGuildClass::DelMember

; 611  : 	}
; 612  : 	else

  01367	eb 25		 jmp	 SHORT $LN16@GDGuildMem@2
$LN10@GDGuildMem@2:

; 613  : 	{
; 614  : 		LogAdd(lMsg.Get(MSGGET(1, 183)), szGuildName, lpMsg->Result);

  01369	8b 45 08	 mov	 eax, DWORD PTR _lpMsg$[ebp]
  0136c	0f b6 48 03	 movzx	 ecx, BYTE PTR [eax+3]
  01370	51		 push	 ecx
  01371	8d 55 e0	 lea	 edx, DWORD PTR _szGuildName$[ebp]
  01374	52		 push	 edx
  01375	68 b7 01 00 00	 push	 439			; 000001b7H
  0137a	b9 00 00 00 00	 mov	 ecx, OFFSET ?lMsg@@3VCMsg@@A ; lMsg
  0137f	e8 00 00 00 00	 call	 ?Get@CMsg@@QAEPADH@Z	; CMsg::Get
  01384	50		 push	 eax
  01385	ff 15 00 00 00
	00		 call	 DWORD PTR ?LogAdd@@3P6AXPADZZA ; LogAdd
  0138b	83 c4 0c	 add	 esp, 12			; 0000000cH
$LN16@GDGuildMem@2:

; 615  : 	}
; 616  : }

  0138e	5f		 pop	 edi
  0138f	5e		 pop	 esi
  01390	5b		 pop	 ebx
  01391	8b 4d fc	 mov	 ecx, DWORD PTR __$ArrayPad$[ebp]
  01394	33 cd		 xor	 ecx, ebp
  01396	e8 00 00 00 00	 call	 @__security_check_cookie@4
  0139b	8b e5		 mov	 esp, ebp
  0139d	5d		 pop	 ebp
  0139e	c3		 ret	 0
?GDGuildMemberDelResult@@YAXPAUSDHP_GUILDMEMBERDEL_RESULT@@@Z ENDP ; GDGuildMemberDelResult
_TEXT	ENDS
PUBLIC	__$ArrayPad$
PUBLIC	?GDGuildUpdate@@YAXPAD0QAEHH@Z			; GDGuildUpdate
; Function compile flags: /Odtp /ZI
_TEXT	SEGMENT
_pMsg$ = -68						; size = 64
__$ArrayPad$ = -4					; size = 4
_Name$ = 8						; size = 4
_Master$ = 12						; size = 4
_Mark$ = 16						; size = 4
_score$ = 20						; size = 4
_count$ = 24						; size = 4
?GDGuildUpdate@@YAXPAD0QAEHH@Z PROC			; GDGuildUpdate

; 619  : {

  013a0	55		 push	 ebp
  013a1	8b ec		 mov	 ebp, esp
  013a3	81 ec 84 00 00
	00		 sub	 esp, 132		; 00000084H
  013a9	a1 00 00 00 00	 mov	 eax, DWORD PTR ___security_cookie
  013ae	33 c5		 xor	 eax, ebp
  013b0	89 45 fc	 mov	 DWORD PTR __$ArrayPad$[ebp], eax
  013b3	53		 push	 ebx
  013b4	56		 push	 esi
  013b5	57		 push	 edi

; 620  : 	SDHP_GUILDUPDATE pMsg;
; 621  : 
; 622  : 	pMsg.h.c = 0xC1;

  013b6	c6 45 bc c1	 mov	 BYTE PTR _pMsg$[ebp], 193 ; 000000c1H

; 623  : 	pMsg.h.headcode = 0x34;

  013ba	c6 45 be 34	 mov	 BYTE PTR _pMsg$[ebp+2], 52 ; 00000034H

; 624  : 	pMsg.h.size = sizeof(pMsg);

  013be	c6 45 bd 40	 mov	 BYTE PTR _pMsg$[ebp+1], 64 ; 00000040H

; 625  : 	memcpy(pMsg.GuildName, Name, MAX_GUILD_LEN);

  013c2	6a 08		 push	 8
  013c4	8b 45 08	 mov	 eax, DWORD PTR _Name$[ebp]
  013c7	50		 push	 eax
  013c8	8d 4d bf	 lea	 ecx, DWORD PTR _pMsg$[ebp+3]
  013cb	51		 push	 ecx
  013cc	e8 00 00 00 00	 call	 _memcpy
  013d1	83 c4 0c	 add	 esp, 12			; 0000000cH

; 626  : 	memcpy(pMsg.Mark, Mark, sizeof(pMsg.Mark));

  013d4	6a 20		 push	 32			; 00000020H
  013d6	8b 45 10	 mov	 eax, DWORD PTR _Mark$[ebp]
  013d9	50		 push	 eax
  013da	8d 4d d3	 lea	 ecx, DWORD PTR _pMsg$[ebp+23]
  013dd	51		 push	 ecx
  013de	e8 00 00 00 00	 call	 _memcpy
  013e3	83 c4 0c	 add	 esp, 12			; 0000000cH

; 627  : 	memcpy(pMsg.Master, Master, MAX_ACCOUNT_LEN);

  013e6	6a 0a		 push	 10			; 0000000aH
  013e8	8b 45 0c	 mov	 eax, DWORD PTR _Master$[ebp]
  013eb	50		 push	 eax
  013ec	8d 4d c8	 lea	 ecx, DWORD PTR _pMsg$[ebp+12]
  013ef	51		 push	 ecx
  013f0	e8 00 00 00 00	 call	 _memcpy
  013f5	83 c4 0c	 add	 esp, 12			; 0000000cH

; 628  : 	pMsg.Score = score;

  013f8	8b 45 14	 mov	 eax, DWORD PTR _score$[ebp]
  013fb	89 45 f4	 mov	 DWORD PTR _pMsg$[ebp+56], eax

; 629  : 	pMsg.Count = count;

  013fe	8a 45 18	 mov	 al, BYTE PTR _count$[ebp]
  01401	88 45 f8	 mov	 BYTE PTR _pMsg$[ebp+60], al

; 630  : 
; 631  : 	wsExDbCli.DataSend((char*)&pMsg, pMsg.h.size);

  01404	0f b6 45 bd	 movzx	 eax, BYTE PTR _pMsg$[ebp+1]
  01408	50		 push	 eax
  01409	8d 4d bc	 lea	 ecx, DWORD PTR _pMsg$[ebp]
  0140c	51		 push	 ecx
  0140d	b9 00 00 00 00	 mov	 ecx, OFFSET ?wsExDbCli@@3VwsJoinServerCli@@A ; wsExDbCli
  01412	e8 00 00 00 00	 call	 ?DataSend@wsJoinServerCli@@QAEHPADH@Z ; wsJoinServerCli::DataSend

; 632  : }

  01417	5f		 pop	 edi
  01418	5e		 pop	 esi
  01419	5b		 pop	 ebx
  0141a	8b 4d fc	 mov	 ecx, DWORD PTR __$ArrayPad$[ebp]
  0141d	33 cd		 xor	 ecx, ebp
  0141f	e8 00 00 00 00	 call	 @__security_check_cookie@4
  01424	8b e5		 mov	 esp, ebp
  01426	5d		 pop	 ebp
  01427	c3		 ret	 0
?GDGuildUpdate@@YAXPAD0QAEHH@Z ENDP			; GDGuildUpdate
_TEXT	ENDS
PUBLIC	?GDGuildUpdateRecv@@YAXPAE@Z			; GDGuildUpdateRecv
; Function compile flags: /Odtp /ZI
_TEXT	SEGMENT
_lpMsg$ = 8						; size = 4
?GDGuildUpdateRecv@@YAXPAE@Z PROC			; GDGuildUpdateRecv

; 635  : {

  01430	55		 push	 ebp
  01431	8b ec		 mov	 ebp, esp
  01433	83 ec 40	 sub	 esp, 64			; 00000040H
  01436	53		 push	 ebx
  01437	56		 push	 esi
  01438	57		 push	 edi

; 636  : 	return;
; 637  : }

  01439	5f		 pop	 edi
  0143a	5e		 pop	 esi
  0143b	5b		 pop	 ebx
  0143c	8b e5		 mov	 esp, ebp
  0143e	5d		 pop	 ebp
  0143f	c3		 ret	 0
?GDGuildUpdateRecv@@YAXPAE@Z ENDP			; GDGuildUpdateRecv
_TEXT	ENDS
PUBLIC	?set@PBMSG_HEAD@@QAEXPAEEE@Z			; PBMSG_HEAD::set
PUBLIC	__$ArrayPad$
PUBLIC	?DGGuildMemberInfoRequest@@YAXH@Z		; DGGuildMemberInfoRequest
; Function compile flags: /Odtp /ZI
_TEXT	SEGMENT
_pMsg$ = -20						; size = 15
__$ArrayPad$ = -4					; size = 4
_aIndex$ = 8						; size = 4
?DGGuildMemberInfoRequest@@YAXH@Z PROC			; DGGuildMemberInfoRequest

; 648  : {

  01440	55		 push	 ebp
  01441	8b ec		 mov	 ebp, esp
  01443	83 ec 54	 sub	 esp, 84			; 00000054H
  01446	a1 00 00 00 00	 mov	 eax, DWORD PTR ___security_cookie
  0144b	33 c5		 xor	 eax, ebp
  0144d	89 45 fc	 mov	 DWORD PTR __$ArrayPad$[ebp], eax
  01450	53		 push	 ebx
  01451	56		 push	 esi
  01452	57		 push	 edi

; 649  : 	SDHP_GUILDMEMBER_INFO_REQUEST pMsg;
; 650  : 
; 651  : 	pMsg.h.set((LPBYTE)&pMsg, 0x35, sizeof(pMsg));

  01453	6a 0f		 push	 15			; 0000000fH
  01455	6a 35		 push	 53			; 00000035H
  01457	8d 45 ec	 lea	 eax, DWORD PTR _pMsg$[ebp]
  0145a	50		 push	 eax
  0145b	8d 4d ec	 lea	 ecx, DWORD PTR _pMsg$[ebp]
  0145e	e8 00 00 00 00	 call	 ?set@PBMSG_HEAD@@QAEXPAEEE@Z ; PBMSG_HEAD::set

; 652  : 	pMsg.NumberH = SET_NUMBERH(aIndex);

  01463	8b 45 08	 mov	 eax, DWORD PTR _aIndex$[ebp]
  01466	c1 e8 08	 shr	 eax, 8
  01469	88 45 ef	 mov	 BYTE PTR _pMsg$[ebp+3], al

; 653  : 	pMsg.NumberL = SET_NUMBERL(aIndex);

  0146c	8b 45 08	 mov	 eax, DWORD PTR _aIndex$[ebp]
  0146f	25 ff 00 00 00	 and	 eax, 255		; 000000ffH
  01474	88 45 f0	 mov	 BYTE PTR _pMsg$[ebp+4], al

; 654  : 	memcpy(pMsg.MemberID, gObj[aIndex].Name, sizeof(pMsg.MemberID));

  01477	6a 0a		 push	 10			; 0000000aH
  01479	8b 45 08	 mov	 eax, DWORD PTR _aIndex$[ebp]
  0147c	69 c0 38 2b 00
	00		 imul	 eax, 11064		; 00002b38H
  01482	8b 0d 00 00 00
	00		 mov	 ecx, DWORD PTR ?gObj@@3PAUOBJECTSTRUCT@@A ; gObj
  01488	8d 54 01 77	 lea	 edx, DWORD PTR [ecx+eax+119]
  0148c	52		 push	 edx
  0148d	8d 45 f1	 lea	 eax, DWORD PTR _pMsg$[ebp+5]
  01490	50		 push	 eax
  01491	e8 00 00 00 00	 call	 _memcpy
  01496	83 c4 0c	 add	 esp, 12			; 0000000cH

; 655  : 
; 656  : 	wsExDbCli.DataSend((char*)&pMsg, pMsg.h.size);

  01499	0f b6 45 ed	 movzx	 eax, BYTE PTR _pMsg$[ebp+1]
  0149d	50		 push	 eax
  0149e	8d 4d ec	 lea	 ecx, DWORD PTR _pMsg$[ebp]
  014a1	51		 push	 ecx
  014a2	b9 00 00 00 00	 mov	 ecx, OFFSET ?wsExDbCli@@3VwsJoinServerCli@@A ; wsExDbCli
  014a7	e8 00 00 00 00	 call	 ?DataSend@wsJoinServerCli@@QAEHPADH@Z ; wsJoinServerCli::DataSend

; 657  : }

  014ac	5f		 pop	 edi
  014ad	5e		 pop	 esi
  014ae	5b		 pop	 ebx
  014af	8b 4d fc	 mov	 ecx, DWORD PTR __$ArrayPad$[ebp]
  014b2	33 cd		 xor	 ecx, ebp
  014b4	e8 00 00 00 00	 call	 @__security_check_cookie@4
  014b9	8b e5		 mov	 esp, ebp
  014bb	5d		 pop	 ebp
  014bc	c3		 ret	 0
?DGGuildMemberInfoRequest@@YAXH@Z ENDP			; DGGuildMemberInfoRequest
; Function compile flags: /Odtp /ZI
; File d:\projects\exteam6.3\source\gameserver\include\prodef.h
_TEXT	ENDS
;	COMDAT ?set@PBMSG_HEAD@@QAEXPAEEE@Z
_TEXT	SEGMENT
_this$ = -4						; size = 4
_lpBuf$ = 8						; size = 4
_head$ = 12						; size = 1
_size$ = 16						; size = 1
?set@PBMSG_HEAD@@QAEXPAEEE@Z PROC			; PBMSG_HEAD::set, COMDAT
; _this$ = ecx

; 80   : 	{

  00000	55		 push	 ebp
  00001	8b ec		 mov	 ebp, esp
  00003	83 ec 44	 sub	 esp, 68			; 00000044H
  00006	53		 push	 ebx
  00007	56		 push	 esi
  00008	57		 push	 edi
  00009	89 4d fc	 mov	 DWORD PTR _this$[ebp], ecx

; 81   : 		lpBuf[0] = 0xC1;

  0000c	8b 45 08	 mov	 eax, DWORD PTR _lpBuf$[ebp]
  0000f	c6 00 c1	 mov	 BYTE PTR [eax], 193	; 000000c1H

; 82   : 		lpBuf[1] = size;

  00012	8b 45 08	 mov	 eax, DWORD PTR _lpBuf$[ebp]
  00015	8a 4d 10	 mov	 cl, BYTE PTR _size$[ebp]
  00018	88 48 01	 mov	 BYTE PTR [eax+1], cl

; 83   : 		lpBuf[2] = head;

  0001b	8b 45 08	 mov	 eax, DWORD PTR _lpBuf$[ebp]
  0001e	8a 4d 0c	 mov	 cl, BYTE PTR _head$[ebp]
  00021	88 48 02	 mov	 BYTE PTR [eax+2], cl

; 84   : 	};	// line : 22

  00024	5f		 pop	 edi
  00025	5e		 pop	 esi
  00026	5b		 pop	 ebx
  00027	8b e5		 mov	 esp, ebp
  00029	5d		 pop	 ebp
  0002a	c2 0c 00	 ret	 12			; 0000000cH
?set@PBMSG_HEAD@@QAEXPAEEE@Z ENDP			; PBMSG_HEAD::set
_TEXT	ENDS
PUBLIC	??_C@_0DK@MKLBBGMP@?$FLU?4System?$FN?$FLGuild?5Status?$FN?$FLInfo?$FN?5G@ ; `string'
PUBLIC	__$ArrayPad$
EXTRN	?SetServer@CGuildClass@@QAEHPAD0H@Z:PROC	; CGuildClass::SetServer
EXTRN	?GCGuildWarDeclare@@YAXHPAD@Z:PROC		; GCGuildWarDeclare
EXTRN	?GCGuildWarScore@@YAXH@Z:PROC			; GCGuildWarScore
EXTRN	?GCGuildNumber@CDungeonSiege@@QAEXH@Z:PROC	; CDungeonSiege::GCGuildNumber
EXTRN	?g_DungeonSiege@@3VCDungeonSiege@@A:BYTE	; g_DungeonSiege
EXTRN	?CheckCastleOwnerUnionMember@CCastleSiegeSync@@QAEHH@Z:PROC ; CCastleSiegeSync::CheckCastleOwnerUnionMember
EXTRN	?CheckCastleOwnerMember@CCastleSiegeSync@@QAEHH@Z:PROC ; CCastleSiegeSync::CheckCastleOwnerMember
EXTRN	?g_CastleSiegeSync@@3VCCastleSiegeSync@@A:BYTE	; g_CastleSiegeSync
EXTRN	?GCServerMsgStringSend@@YAXPADHE@Z:PROC		; GCServerMsgStringSend
EXTRN	_strlen:PROC
EXTRN	?ConnectUser@CGuildClass@@QAEHPAU_GUILD_INFO_STRUCT@@PAD1HH@Z:PROC ; CGuildClass::ConnectUser
EXTRN	?NotifySelfCsJoinSide@CCastleSiege@@QAEXH@Z:PROC ; CCastleSiege::NotifySelfCsJoinSide
EXTRN	?GetCsJoinSide@CCastleSiege@@QAEHPADPAEPA_N@Z:PROC ; CCastleSiege::GetCsJoinSide
EXTRN	?g_CastleSiege@@3VCCastleSiege@@A:BYTE		; g_CastleSiege
EXTRN	_memset:PROC
;	COMDAT ??_C@_0DK@MKLBBGMP@?$FLU?4System?$FN?$FLGuild?5Status?$FN?$FLInfo?$FN?5G@
; File d:\projects\exteam6.3\source\gameserver\gameserver\edsprotocol.cpp
CONST	SEGMENT
??_C@_0DK@MKLBBGMP@?$FLU?4System?$FN?$FLGuild?5Status?$FN?$FLInfo?$FN?5G@ DB '['
	DB	'U.System][Guild Status][Info] Guild : %s / [%s][%s] / %d', 00H ; `string'
; Function compile flags: /Odtp /ZI
CONST	ENDS
_TEXT	SEGMENT
_pGVCount$232229 = -572					; size = 5
_n$232206 = -564					; size = 4
_GuildUserOfs$ = -560					; size = 4
_GuildInfoOfs$ = -556					; size = 4
_szName$ = -552						; size = 11
_szGuildName$ = -540					; size = 9
_pMsg$ = -528						; size = 12
_GuildInfoBuf$ = -516					; size = 256
_GuildUserBuf$ = -260					; size = 256
__$ArrayPad$ = -4					; size = 4
_lpMsg$ = 8						; size = 4
?DGGuildMemberInfo@@YAXPAUSDHP_GUILDMEMBER_INFO@@@Z PROC ; DGGuildMemberInfo

; 660  : {

  014c0	55		 push	 ebp
  014c1	8b ec		 mov	 ebp, esp
  014c3	81 ec 7c 02 00
	00		 sub	 esp, 636		; 0000027cH
  014c9	a1 00 00 00 00	 mov	 eax, DWORD PTR ___security_cookie
  014ce	33 c5		 xor	 eax, ebp
  014d0	89 45 fc	 mov	 DWORD PTR __$ArrayPad$[ebp], eax
  014d3	53		 push	 ebx
  014d4	56		 push	 esi
  014d5	57		 push	 edi

; 661  : 	BYTE GuildUserBuf[256] = {0};

  014d6	c6 85 fc fe ff
	ff 00		 mov	 BYTE PTR _GuildUserBuf$[ebp], 0
  014dd	68 ff 00 00 00	 push	 255			; 000000ffH
  014e2	6a 00		 push	 0
  014e4	8d 85 fd fe ff
	ff		 lea	 eax, DWORD PTR _GuildUserBuf$[ebp+1]
  014ea	50		 push	 eax
  014eb	e8 00 00 00 00	 call	 _memset
  014f0	83 c4 0c	 add	 esp, 12			; 0000000cH

; 662  : 	BYTE GuildInfoBuf[256] = {0};

  014f3	c6 85 fc fd ff
	ff 00		 mov	 BYTE PTR _GuildInfoBuf$[ebp], 0
  014fa	68 ff 00 00 00	 push	 255			; 000000ffH
  014ff	6a 00		 push	 0
  01501	8d 85 fd fd ff
	ff		 lea	 eax, DWORD PTR _GuildInfoBuf$[ebp+1]
  01507	50		 push	 eax
  01508	e8 00 00 00 00	 call	 _memset
  0150d	83 c4 0c	 add	 esp, 12			; 0000000cH

; 663  : 	PMSG_SIMPLE_GUILDVIEWPORT pMsg;
; 664  : 	char szGuildName[MAX_GUILD_LEN+1];
; 665  : 	char szName[MAX_ACCOUNT_LEN+1];
; 666  : 	
; 667  : 	szGuildName[MAX_GUILD_LEN] = 0;

  01510	c6 85 ec fd ff
	ff 00		 mov	 BYTE PTR _szGuildName$[ebp+8], 0

; 668  : 	szName[MAX_ACCOUNT_LEN] = 0;

  01517	c6 85 e2 fd ff
	ff 00		 mov	 BYTE PTR _szName$[ebp+10], 0

; 669  : 	memcpy(szGuildName, lpMsg->GuildName, MAX_GUILD_LEN);

  0151e	6a 08		 push	 8
  01520	8b 45 08	 mov	 eax, DWORD PTR _lpMsg$[ebp]
  01523	83 c0 03	 add	 eax, 3
  01526	50		 push	 eax
  01527	8d 8d e4 fd ff
	ff		 lea	 ecx, DWORD PTR _szGuildName$[ebp]
  0152d	51		 push	 ecx
  0152e	e8 00 00 00 00	 call	 _memcpy
  01533	83 c4 0c	 add	 esp, 12			; 0000000cH

; 670  : 	memcpy(szName, lpMsg->MemberID, MAX_ACCOUNT_LEN);

  01536	6a 0a		 push	 10			; 0000000aH
  01538	8b 45 08	 mov	 eax, DWORD PTR _lpMsg$[ebp]
  0153b	83 c0 0c	 add	 eax, 12			; 0000000cH
  0153e	50		 push	 eax
  0153f	8d 8d d8 fd ff
	ff		 lea	 ecx, DWORD PTR _szName$[ebp]
  01545	51		 push	 ecx
  01546	e8 00 00 00 00	 call	 _memcpy
  0154b	83 c4 0c	 add	 esp, 12			; 0000000cH

; 671  : 
; 672  : 	int GuildInfoOfs = sizeof(PMSG_SIMPLE_GUILDVIEWPORT_COUNT);

  0154e	c7 85 d4 fd ff
	ff 05 00 00 00	 mov	 DWORD PTR _GuildInfoOfs$[ebp], 5

; 673  : 	int GuildUserOfs = sizeof(PMSG_SIMPLE_GUILDVIEWPORT_COUNT);

  01558	c7 85 d0 fd ff
	ff 05 00 00 00	 mov	 DWORD PTR _GuildUserOfs$[ebp], 5

; 674  : 
; 675  : 	for ( int n=OBJ_STARTUSERINDEX;n<OBJMAX;n++)

  01562	c7 85 cc fd ff
	ff b0 36 00 00	 mov	 DWORD PTR _n$232206[ebp], 14000 ; 000036b0H
  0156c	eb 0f		 jmp	 SHORT $LN16@DGGuildMem
$LN15@DGGuildMem:
  0156e	8b 85 cc fd ff
	ff		 mov	 eax, DWORD PTR _n$232206[ebp]
  01574	83 c0 01	 add	 eax, 1
  01577	89 85 cc fd ff
	ff		 mov	 DWORD PTR _n$232206[ebp], eax
$LN16@DGGuildMem:
  0157d	81 bd cc fd ff
	ff 98 3a 00 00	 cmp	 DWORD PTR _n$232206[ebp], 15000 ; 00003a98H
  01587	0f 8d 99 05 00
	00		 jge	 $LN14@DGGuildMem

; 676  : 	{
; 677  : 		if ( gObj[n].Connected > PLAYER_LOGGED )

  0158d	8b 85 cc fd ff
	ff		 mov	 eax, DWORD PTR _n$232206[ebp]
  01593	69 c0 38 2b 00
	00		 imul	 eax, 11064		; 00002b38H
  01599	8b 0d 00 00 00
	00		 mov	 ecx, DWORD PTR ?gObj@@3PAUOBJECTSTRUCT@@A ; gObj
  0159f	83 7c 01 04 02	 cmp	 DWORD PTR [ecx+eax+4], 2
  015a4	0f 8e 77 05 00
	00		 jle	 $LN13@DGGuildMem

; 678  : 		{
; 679  : 			if ( gObj[n].Name[0] == lpMsg->MemberID[0] )

  015aa	8b 85 cc fd ff
	ff		 mov	 eax, DWORD PTR _n$232206[ebp]
  015b0	69 c0 38 2b 00
	00		 imul	 eax, 11064		; 00002b38H
  015b6	8b 0d 00 00 00
	00		 mov	 ecx, DWORD PTR ?gObj@@3PAUOBJECTSTRUCT@@A ; gObj
  015bc	0f be 54 01 77	 movsx	 edx, BYTE PTR [ecx+eax+119]
  015c1	8b 45 08	 mov	 eax, DWORD PTR _lpMsg$[ebp]
  015c4	0f be 48 0c	 movsx	 ecx, BYTE PTR [eax+12]
  015c8	3b d1		 cmp	 edx, ecx
  015ca	0f 85 51 05 00
	00		 jne	 $LN13@DGGuildMem

; 680  : 			{
; 681  : 				if ( strcmp(lpMsg->MemberID, gObj[n].Name ) == 0 )

  015d0	8b 85 cc fd ff
	ff		 mov	 eax, DWORD PTR _n$232206[ebp]
  015d6	69 c0 38 2b 00
	00		 imul	 eax, 11064		; 00002b38H
  015dc	8b 0d 00 00 00
	00		 mov	 ecx, DWORD PTR ?gObj@@3PAUOBJECTSTRUCT@@A ; gObj
  015e2	8d 54 01 77	 lea	 edx, DWORD PTR [ecx+eax+119]
  015e6	52		 push	 edx
  015e7	8b 45 08	 mov	 eax, DWORD PTR _lpMsg$[ebp]
  015ea	83 c0 0c	 add	 eax, 12			; 0000000cH
  015ed	50		 push	 eax
  015ee	e8 00 00 00 00	 call	 _strcmp
  015f3	83 c4 08	 add	 esp, 8
  015f6	85 c0		 test	 eax, eax
  015f8	0f 85 23 05 00
	00		 jne	 $LN13@DGGuildMem

; 682  : 				{
; 683  : //#if(GS_CASTLE==1)
; 684  : 					szGuildName[8] = NULL;

  015fe	c6 85 ec fd ff
	ff 00		 mov	 BYTE PTR _szGuildName$[ebp+8], 0

; 685  : 					g_CastleSiege.GetCsJoinSide(szGuildName,&gObj[n].m_btCsJoinSide,&gObj[n].m_bCsGuildInvolved);

  01605	8b 85 cc fd ff
	ff		 mov	 eax, DWORD PTR _n$232206[ebp]
  0160b	69 c0 38 2b 00
	00		 imul	 eax, 11064		; 00002b38H
  01611	8b 0d 00 00 00
	00		 mov	 ecx, DWORD PTR ?gObj@@3PAUOBJECTSTRUCT@@A ; gObj
  01617	8d 94 01 03 1c
	00 00		 lea	 edx, DWORD PTR [ecx+eax+7171]
  0161e	52		 push	 edx
  0161f	8b 85 cc fd ff
	ff		 mov	 eax, DWORD PTR _n$232206[ebp]
  01625	69 c0 38 2b 00
	00		 imul	 eax, 11064		; 00002b38H
  0162b	8b 0d 00 00 00
	00		 mov	 ecx, DWORD PTR ?gObj@@3PAUOBJECTSTRUCT@@A ; gObj
  01631	8d 94 01 02 1c
	00 00		 lea	 edx, DWORD PTR [ecx+eax+7170]
  01638	52		 push	 edx
  01639	8d 85 e4 fd ff
	ff		 lea	 eax, DWORD PTR _szGuildName$[ebp]
  0163f	50		 push	 eax
  01640	b9 00 00 00 00	 mov	 ecx, OFFSET ?g_CastleSiege@@3VCCastleSiege@@A ; g_CastleSiege
  01645	e8 00 00 00 00	 call	 ?GetCsJoinSide@CCastleSiege@@QAEHPADPAEPA_N@Z ; CCastleSiege::GetCsJoinSide

; 686  : 					g_CastleSiege.NotifySelfCsJoinSide(n);

  0164a	8b 85 cc fd ff
	ff		 mov	 eax, DWORD PTR _n$232206[ebp]
  01650	50		 push	 eax
  01651	b9 00 00 00 00	 mov	 ecx, OFFSET ?g_CastleSiege@@3VCCastleSiege@@A ; g_CastleSiege
  01656	e8 00 00 00 00	 call	 ?NotifySelfCsJoinSide@CCastleSiege@@QAEXH@Z ; CCastleSiege::NotifySelfCsJoinSide

; 687  : //#endif
; 688  : 					strcpy(gObj[n].GuildName, szGuildName);

  0165b	8d 85 e4 fd ff
	ff		 lea	 eax, DWORD PTR _szGuildName$[ebp]
  01661	50		 push	 eax
  01662	8b 8d cc fd ff
	ff		 mov	 ecx, DWORD PTR _n$232206[ebp]
  01668	69 c9 38 2b 00
	00		 imul	 ecx, 11064		; 00002b38H
  0166e	8b 15 00 00 00
	00		 mov	 edx, DWORD PTR ?gObj@@3PAUOBJECTSTRUCT@@A ; gObj
  01674	8d 84 0a 3c 04
	00 00		 lea	 eax, DWORD PTR [edx+ecx+1084]
  0167b	50		 push	 eax
  0167c	e8 00 00 00 00	 call	 _strcpy
  01681	83 c4 08	 add	 esp, 8

; 689  : 					gObj[n].lpGuild = Guild.SearchGuild(gObj[n].GuildName);

  01684	8b 85 cc fd ff
	ff		 mov	 eax, DWORD PTR _n$232206[ebp]
  0168a	69 c0 38 2b 00
	00		 imul	 eax, 11064		; 00002b38H
  01690	8b 0d 00 00 00
	00		 mov	 ecx, DWORD PTR ?gObj@@3PAUOBJECTSTRUCT@@A ; gObj
  01696	8d 94 01 3c 04
	00 00		 lea	 edx, DWORD PTR [ecx+eax+1084]
  0169d	52		 push	 edx
  0169e	b9 00 00 00 00	 mov	 ecx, OFFSET ?Guild@@3VCGuildClass@@A ; Guild
  016a3	e8 00 00 00 00	 call	 ?SearchGuild@CGuildClass@@QAEPAU_GUILD_INFO_STRUCT@@PAD@Z ; CGuildClass::SearchGuild
  016a8	8b 8d cc fd ff
	ff		 mov	 ecx, DWORD PTR _n$232206[ebp]
  016ae	69 c9 38 2b 00
	00		 imul	 ecx, 11064		; 00002b38H
  016b4	8b 15 00 00 00
	00		 mov	 edx, DWORD PTR ?gObj@@3PAUOBJECTSTRUCT@@A ; gObj
  016ba	89 84 0a 38 04
	00 00		 mov	 DWORD PTR [edx+ecx+1080], eax

; 690  : 
; 691  : 					if ( gObj[n].lpGuild != NULL )

  016c1	8b 85 cc fd ff
	ff		 mov	 eax, DWORD PTR _n$232206[ebp]
  016c7	69 c0 38 2b 00
	00		 imul	 eax, 11064		; 00002b38H
  016cd	8b 0d 00 00 00
	00		 mov	 ecx, DWORD PTR ?gObj@@3PAUOBJECTSTRUCT@@A ; gObj
  016d3	83 bc 01 38 04
	00 00 00	 cmp	 DWORD PTR [ecx+eax+1080], 0
  016db	0f 84 f1 03 00
	00		 je	 $LN10@DGGuildMem

; 692  : 					{
; 693  : 						gObj[n].GuildStatus = lpMsg->btGuildStatus;

  016e1	8b 45 08	 mov	 eax, DWORD PTR _lpMsg$[ebp]
  016e4	0f b6 48 17	 movzx	 ecx, BYTE PTR [eax+23]
  016e8	8b 95 cc fd ff
	ff		 mov	 edx, DWORD PTR _n$232206[ebp]
  016ee	69 d2 38 2b 00
	00		 imul	 edx, 11064		; 00002b38H
  016f4	a1 00 00 00 00	 mov	 eax, DWORD PTR ?gObj@@3PAUOBJECTSTRUCT@@A ; gObj
  016f9	89 8c 10 48 04
	00 00		 mov	 DWORD PTR [eax+edx+1096], ecx

; 694  : 						gObj[n].GuildNumber = gObj[n].lpGuild->Number;

  01700	8b 85 cc fd ff
	ff		 mov	 eax, DWORD PTR _n$232206[ebp]
  01706	69 c0 38 2b 00
	00		 imul	 eax, 11064		; 00002b38H
  0170c	8b 0d 00 00 00
	00		 mov	 ecx, DWORD PTR ?gObj@@3PAUOBJECTSTRUCT@@A ; gObj
  01712	8b 94 01 38 04
	00 00		 mov	 edx, DWORD PTR [ecx+eax+1080]
  01719	8b 85 cc fd ff
	ff		 mov	 eax, DWORD PTR _n$232206[ebp]
  0171f	69 c0 38 2b 00
	00		 imul	 eax, 11064		; 00002b38H
  01725	8b 0d 00 00 00
	00		 mov	 ecx, DWORD PTR ?gObj@@3PAUOBJECTSTRUCT@@A ; gObj
  0172b	8b 12		 mov	 edx, DWORD PTR [edx]
  0172d	89 94 01 34 04
	00 00		 mov	 DWORD PTR [ecx+eax+1076], edx

; 695  : 						Guild.ConnectUser(gObj[n].lpGuild, lpMsg->GuildName, gObj[n].Name, n,  lpMsg->pServer);

  01734	8b 45 08	 mov	 eax, DWORD PTR _lpMsg$[ebp]
  01737	0f bf 48 1a	 movsx	 ecx, WORD PTR [eax+26]
  0173b	51		 push	 ecx
  0173c	8b 95 cc fd ff
	ff		 mov	 edx, DWORD PTR _n$232206[ebp]
  01742	52		 push	 edx
  01743	8b 85 cc fd ff
	ff		 mov	 eax, DWORD PTR _n$232206[ebp]
  01749	69 c0 38 2b 00
	00		 imul	 eax, 11064		; 00002b38H
  0174f	8b 0d 00 00 00
	00		 mov	 ecx, DWORD PTR ?gObj@@3PAUOBJECTSTRUCT@@A ; gObj
  01755	8d 54 01 77	 lea	 edx, DWORD PTR [ecx+eax+119]
  01759	52		 push	 edx
  0175a	8b 45 08	 mov	 eax, DWORD PTR _lpMsg$[ebp]
  0175d	83 c0 03	 add	 eax, 3
  01760	50		 push	 eax
  01761	8b 8d cc fd ff
	ff		 mov	 ecx, DWORD PTR _n$232206[ebp]
  01767	69 c9 38 2b 00
	00		 imul	 ecx, 11064		; 00002b38H
  0176d	8b 15 00 00 00
	00		 mov	 edx, DWORD PTR ?gObj@@3PAUOBJECTSTRUCT@@A ; gObj
  01773	8b 84 0a 38 04
	00 00		 mov	 eax, DWORD PTR [edx+ecx+1080]
  0177a	50		 push	 eax
  0177b	b9 00 00 00 00	 mov	 ecx, OFFSET ?Guild@@3VCGuildClass@@A ; Guild
  01780	e8 00 00 00 00	 call	 ?ConnectUser@CGuildClass@@QAEHPAU_GUILD_INFO_STRUCT@@PAD1HH@Z ; CGuildClass::ConnectUser

; 696  : 	
; 697  : 						if ( strlen(gObj[n].lpGuild->Notice) > 0 )

  01785	8b 85 cc fd ff
	ff		 mov	 eax, DWORD PTR _n$232206[ebp]
  0178b	69 c0 38 2b 00
	00		 imul	 eax, 11064		; 00002b38H
  01791	8b 0d 00 00 00
	00		 mov	 ecx, DWORD PTR ?gObj@@3PAUOBJECTSTRUCT@@A ; gObj
  01797	8b 94 01 38 04
	00 00		 mov	 edx, DWORD PTR [ecx+eax+1080]
  0179e	81 c2 9c 05 00
	00		 add	 edx, 1436		; 0000059cH
  017a4	52		 push	 edx
  017a5	e8 00 00 00 00	 call	 _strlen
  017aa	83 c4 04	 add	 esp, 4
  017ad	85 c0		 test	 eax, eax
  017af	76 30		 jbe	 SHORT $LN9@DGGuildMem

; 698  : 						{
; 699  : 							GCServerMsgStringSend(gObj[n].lpGuild->Notice, n, 2);

  017b1	6a 02		 push	 2
  017b3	8b 85 cc fd ff
	ff		 mov	 eax, DWORD PTR _n$232206[ebp]
  017b9	50		 push	 eax
  017ba	8b 8d cc fd ff
	ff		 mov	 ecx, DWORD PTR _n$232206[ebp]
  017c0	69 c9 38 2b 00
	00		 imul	 ecx, 11064		; 00002b38H
  017c6	8b 15 00 00 00
	00		 mov	 edx, DWORD PTR ?gObj@@3PAUOBJECTSTRUCT@@A ; gObj
  017cc	8b 84 0a 38 04
	00 00		 mov	 eax, DWORD PTR [edx+ecx+1080]
  017d3	05 9c 05 00 00	 add	 eax, 1436		; 0000059cH
  017d8	50		 push	 eax
  017d9	e8 00 00 00 00	 call	 ?GCServerMsgStringSend@@YAXPADHE@Z ; GCServerMsgStringSend
  017de	83 c4 0c	 add	 esp, 12			; 0000000cH
$LN9@DGGuildMem:

; 700  : 						}
; 701  : 
; 702  : 						LogAddTD("[U.System][Guild Status][Info] Guild : %s / [%s][%s] / %d", szGuildName, gObj[n].AccountID, szName, gObj[n].GuildStatus);

  017e1	8b 85 cc fd ff
	ff		 mov	 eax, DWORD PTR _n$232206[ebp]
  017e7	69 c0 38 2b 00
	00		 imul	 eax, 11064		; 00002b38H
  017ed	8b 0d 00 00 00
	00		 mov	 ecx, DWORD PTR ?gObj@@3PAUOBJECTSTRUCT@@A ; gObj
  017f3	8b 94 01 48 04
	00 00		 mov	 edx, DWORD PTR [ecx+eax+1096]
  017fa	52		 push	 edx
  017fb	8d 85 d8 fd ff
	ff		 lea	 eax, DWORD PTR _szName$[ebp]
  01801	50		 push	 eax
  01802	8b 8d cc fd ff
	ff		 mov	 ecx, DWORD PTR _n$232206[ebp]
  01808	69 c9 38 2b 00
	00		 imul	 ecx, 11064		; 00002b38H
  0180e	8b 15 00 00 00
	00		 mov	 edx, DWORD PTR ?gObj@@3PAUOBJECTSTRUCT@@A ; gObj
  01814	8d 44 0a 6c	 lea	 eax, DWORD PTR [edx+ecx+108]
  01818	50		 push	 eax
  01819	8d 8d e4 fd ff
	ff		 lea	 ecx, DWORD PTR _szGuildName$[ebp]
  0181f	51		 push	 ecx
  01820	68 00 00 00 00	 push	 OFFSET ??_C@_0DK@MKLBBGMP@?$FLU?4System?$FN?$FLGuild?5Status?$FN?$FLInfo?$FN?5G@
  01825	ff 15 00 00 00
	00		 call	 DWORD PTR ?LogAddTD@@3P6AXPADZZA ; LogAddTD
  0182b	83 c4 14	 add	 esp, 20			; 00000014H

; 703  : 
; 704  : 						LogAddTD(lMsg.Get(MSGGET(1, 184)), gObj[n].AccountID, szName, szGuildName);

  0182e	8d 85 e4 fd ff
	ff		 lea	 eax, DWORD PTR _szGuildName$[ebp]
  01834	50		 push	 eax
  01835	8d 8d d8 fd ff
	ff		 lea	 ecx, DWORD PTR _szName$[ebp]
  0183b	51		 push	 ecx
  0183c	8b 95 cc fd ff
	ff		 mov	 edx, DWORD PTR _n$232206[ebp]
  01842	69 d2 38 2b 00
	00		 imul	 edx, 11064		; 00002b38H
  01848	a1 00 00 00 00	 mov	 eax, DWORD PTR ?gObj@@3PAUOBJECTSTRUCT@@A ; gObj
  0184d	8d 4c 10 6c	 lea	 ecx, DWORD PTR [eax+edx+108]
  01851	51		 push	 ecx
  01852	68 b8 01 00 00	 push	 440			; 000001b8H
  01857	b9 00 00 00 00	 mov	 ecx, OFFSET ?lMsg@@3VCMsg@@A ; lMsg
  0185c	e8 00 00 00 00	 call	 ?Get@CMsg@@QAEPADH@Z	; CMsg::Get
  01861	50		 push	 eax
  01862	ff 15 00 00 00
	00		 call	 DWORD PTR ?LogAddTD@@3P6AXPADZZA ; LogAddTD
  01868	83 c4 10	 add	 esp, 16			; 00000010H

; 705  : 
; 706  : 						pMsg.GuildNumber = gObj[n].GuildNumber;

  0186b	8b 85 cc fd ff
	ff		 mov	 eax, DWORD PTR _n$232206[ebp]
  01871	69 c0 38 2b 00
	00		 imul	 eax, 11064		; 00002b38H
  01877	8b 0d 00 00 00
	00		 mov	 ecx, DWORD PTR ?gObj@@3PAUOBJECTSTRUCT@@A ; gObj
  0187d	8b 94 01 34 04
	00 00		 mov	 edx, DWORD PTR [ecx+eax+1076]
  01884	89 95 f0 fd ff
	ff		 mov	 DWORD PTR _pMsg$[ebp], edx

; 707  : 						pMsg.NumberH = SET_NUMBERH(n) & 0x7F;

  0188a	8b 85 cc fd ff
	ff		 mov	 eax, DWORD PTR _n$232206[ebp]
  01890	c1 e8 08	 shr	 eax, 8
  01893	0f b6 c8	 movzx	 ecx, al
  01896	83 e1 7f	 and	 ecx, 127		; 0000007fH
  01899	88 8d f7 fd ff
	ff		 mov	 BYTE PTR _pMsg$[ebp+7], cl

; 708  : 						pMsg.NumberL = SET_NUMBERL(n);

  0189f	8b 85 cc fd ff
	ff		 mov	 eax, DWORD PTR _n$232206[ebp]
  018a5	25 ff 00 00 00	 and	 eax, 255		; 000000ffH
  018aa	88 85 f8 fd ff
	ff		 mov	 BYTE PTR _pMsg$[ebp+8], al

; 709  : 
; 710  : 						if ( strcmp(gObj[n].lpGuild->Names[0], gObj[n].Name) == 0 ) // Case Guild Master

  018b0	8b 85 cc fd ff
	ff		 mov	 eax, DWORD PTR _n$232206[ebp]
  018b6	69 c0 38 2b 00
	00		 imul	 eax, 11064		; 00002b38H
  018bc	8b 0d 00 00 00
	00		 mov	 ecx, DWORD PTR ?gObj@@3PAUOBJECTSTRUCT@@A ; gObj
  018c2	8d 54 01 77	 lea	 edx, DWORD PTR [ecx+eax+119]
  018c6	52		 push	 edx
  018c7	8b 85 cc fd ff
	ff		 mov	 eax, DWORD PTR _n$232206[ebp]
  018cd	69 c0 38 2b 00
	00		 imul	 eax, 11064		; 00002b38H
  018d3	8b 0d 00 00 00
	00		 mov	 ecx, DWORD PTR ?gObj@@3PAUOBJECTSTRUCT@@A ; gObj
  018d9	8b 94 01 38 04
	00 00		 mov	 edx, DWORD PTR [ecx+eax+1080]
  018e0	83 c2 2f	 add	 edx, 47			; 0000002fH
  018e3	52		 push	 edx
  018e4	e8 00 00 00 00	 call	 _strcmp
  018e9	83 c4 08	 add	 esp, 8
  018ec	85 c0		 test	 eax, eax
  018ee	75 12		 jne	 SHORT $LN8@DGGuildMem

; 711  : 						{
; 712  : 							pMsg.NumberH |= 0x80;

  018f0	0f b6 85 f7 fd
	ff ff		 movzx	 eax, BYTE PTR _pMsg$[ebp+7]
  018f7	0d 80 00 00 00	 or	 eax, 128		; 00000080H
  018fc	88 85 f7 fd ff
	ff		 mov	 BYTE PTR _pMsg$[ebp+7], al
$LN8@DGGuildMem:

; 713  : 						}
; 714  : 
; 715  : 						pMsg.btGuildStatus = gObj[n].GuildStatus;

  01902	8b 85 cc fd ff
	ff		 mov	 eax, DWORD PTR _n$232206[ebp]
  01908	69 c0 38 2b 00
	00		 imul	 eax, 11064		; 00002b38H
  0190e	8b 0d 00 00 00
	00		 mov	 ecx, DWORD PTR ?gObj@@3PAUOBJECTSTRUCT@@A ; gObj
  01914	8a 94 01 48 04
	00 00		 mov	 dl, BYTE PTR [ecx+eax+1096]
  0191b	88 95 f4 fd ff
	ff		 mov	 BYTE PTR _pMsg$[ebp+4], dl

; 716  : 
; 717  : 						if ( gObj[n].lpGuild != NULL )

  01921	8b 85 cc fd ff
	ff		 mov	 eax, DWORD PTR _n$232206[ebp]
  01927	69 c0 38 2b 00
	00		 imul	 eax, 11064		; 00002b38H
  0192d	8b 0d 00 00 00
	00		 mov	 ecx, DWORD PTR ?gObj@@3PAUOBJECTSTRUCT@@A ; gObj
  01933	83 bc 01 38 04
	00 00 00	 cmp	 DWORD PTR [ecx+eax+1080], 0
  0193b	74 27		 je	 SHORT $LN7@DGGuildMem

; 718  : 						{
; 719  : 							pMsg.btGuildType = gObj[n].lpGuild->btGuildType;

  0193d	8b 85 cc fd ff
	ff		 mov	 eax, DWORD PTR _n$232206[ebp]
  01943	69 c0 38 2b 00
	00		 imul	 eax, 11064		; 00002b38H
  01949	8b 0d 00 00 00
	00		 mov	 ecx, DWORD PTR ?gObj@@3PAUOBJECTSTRUCT@@A ; gObj
  0194f	8b 94 01 38 04
	00 00		 mov	 edx, DWORD PTR [ecx+eax+1080]
  01956	8a 82 18 07 00
	00		 mov	 al, BYTE PTR [edx+1816]
  0195c	88 85 f5 fd ff
	ff		 mov	 BYTE PTR _pMsg$[ebp+5], al

; 720  : 						}
; 721  : 						else

  01962	eb 07		 jmp	 SHORT $LN6@DGGuildMem
$LN7@DGGuildMem:

; 722  : 						{
; 723  : 							pMsg.btGuildType = G_TYPE_NONE;

  01964	c6 85 f5 fd ff
	ff ff		 mov	 BYTE PTR _pMsg$[ebp+5], 255 ; 000000ffH
$LN6@DGGuildMem:

; 724  : 						}
; 725  : 
; 726  : 						//Season 4.5 Addon start
; 727  :                         if(g_CastleSiegeSync.CheckCastleOwnerMember(gObj[n].m_Index) == 1 ||
; 728  :                            g_CastleSiegeSync.CheckCastleOwnerUnionMember(gObj[n].m_Index) == 1)

  0196b	8b 85 cc fd ff
	ff		 mov	 eax, DWORD PTR _n$232206[ebp]
  01971	69 c0 38 2b 00
	00		 imul	 eax, 11064		; 00002b38H
  01977	8b 0d 00 00 00
	00		 mov	 ecx, DWORD PTR ?gObj@@3PAUOBJECTSTRUCT@@A ; gObj
  0197d	8b 14 01	 mov	 edx, DWORD PTR [ecx+eax]
  01980	52		 push	 edx
  01981	b9 00 00 00 00	 mov	 ecx, OFFSET ?g_CastleSiegeSync@@3VCCastleSiegeSync@@A ; g_CastleSiegeSync
  01986	e8 00 00 00 00	 call	 ?CheckCastleOwnerMember@CCastleSiegeSync@@QAEHH@Z ; CCastleSiegeSync::CheckCastleOwnerMember
  0198b	83 f8 01	 cmp	 eax, 1
  0198e	74 25		 je	 SHORT $LN4@DGGuildMem
  01990	8b 85 cc fd ff
	ff		 mov	 eax, DWORD PTR _n$232206[ebp]
  01996	69 c0 38 2b 00
	00		 imul	 eax, 11064		; 00002b38H
  0199c	8b 0d 00 00 00
	00		 mov	 ecx, DWORD PTR ?gObj@@3PAUOBJECTSTRUCT@@A ; gObj
  019a2	8b 14 01	 mov	 edx, DWORD PTR [ecx+eax]
  019a5	52		 push	 edx
  019a6	b9 00 00 00 00	 mov	 ecx, OFFSET ?g_CastleSiegeSync@@3VCCastleSiegeSync@@A ; g_CastleSiegeSync
  019ab	e8 00 00 00 00	 call	 ?CheckCastleOwnerUnionMember@CCastleSiegeSync@@QAEHH@Z ; CCastleSiegeSync::CheckCastleOwnerUnionMember
  019b0	83 f8 01	 cmp	 eax, 1
  019b3	75 09		 jne	 SHORT $LN5@DGGuildMem
$LN4@DGGuildMem:

; 729  :                         {
; 730  :                             pMsg.btOwnerStatus = 1;

  019b5	c6 85 f9 fd ff
	ff 01		 mov	 BYTE PTR _pMsg$[ebp+9], 1

; 731  :                         }
; 732  :                         else

  019bc	eb 07		 jmp	 SHORT $LN3@DGGuildMem
$LN5@DGGuildMem:

; 733  :                         {
; 734  :                             pMsg.btOwnerStatus = 0;

  019be	c6 85 f9 fd ff
	ff 00		 mov	 BYTE PTR _pMsg$[ebp+9], 0
$LN3@DGGuildMem:

; 735  :                         }
; 736  :                         //Season 4.5 Addon end
; 737  : 
; 738  : 						memcpy(&GuildInfoBuf[GuildInfoOfs], &pMsg, sizeof(PMSG_SIMPLE_GUILDVIEWPORT));

  019c5	6a 0c		 push	 12			; 0000000cH
  019c7	8d 85 f0 fd ff
	ff		 lea	 eax, DWORD PTR _pMsg$[ebp]
  019cd	50		 push	 eax
  019ce	8b 8d d4 fd ff
	ff		 mov	 ecx, DWORD PTR _GuildInfoOfs$[ebp]
  019d4	8d 94 0d fc fd
	ff ff		 lea	 edx, DWORD PTR _GuildInfoBuf$[ebp+ecx]
  019db	52		 push	 edx
  019dc	e8 00 00 00 00	 call	 _memcpy
  019e1	83 c4 0c	 add	 esp, 12			; 0000000cH

; 739  : 						GuildInfoOfs += sizeof(PMSG_SIMPLE_GUILDVIEWPORT);

  019e4	8b 85 d4 fd ff
	ff		 mov	 eax, DWORD PTR _GuildInfoOfs$[ebp]
  019ea	83 c0 0c	 add	 eax, 12			; 0000000cH
  019ed	89 85 d4 fd ff
	ff		 mov	 DWORD PTR _GuildInfoOfs$[ebp], eax

; 740  : 
; 741  : 						PMSG_SIMPLE_GUILDVIEWPORT_COUNT pGVCount;
; 742  : 						
; 743  : 						pGVCount.h.c = 0xC2;

  019f3	c6 85 c4 fd ff
	ff c2		 mov	 BYTE PTR _pGVCount$232229[ebp], 194 ; 000000c2H

; 744  : 						pGVCount.h.headcode = 0x65;

  019fa	c6 85 c7 fd ff
	ff 65		 mov	 BYTE PTR _pGVCount$232229[ebp+3], 101 ; 00000065H

; 745  : 						pGVCount.h.sizeH = SET_NUMBERH(GuildInfoOfs);

  01a01	8b 85 d4 fd ff
	ff		 mov	 eax, DWORD PTR _GuildInfoOfs$[ebp]
  01a07	c1 e8 08	 shr	 eax, 8
  01a0a	88 85 c5 fd ff
	ff		 mov	 BYTE PTR _pGVCount$232229[ebp+1], al

; 746  : 						pGVCount.h.sizeL = SET_NUMBERL(GuildInfoOfs);

  01a10	8b 85 d4 fd ff
	ff		 mov	 eax, DWORD PTR _GuildInfoOfs$[ebp]
  01a16	25 ff 00 00 00	 and	 eax, 255		; 000000ffH
  01a1b	88 85 c6 fd ff
	ff		 mov	 BYTE PTR _pGVCount$232229[ebp+2], al

; 747  : 						pGVCount.Count = 0x01;

  01a21	c6 85 c8 fd ff
	ff 01		 mov	 BYTE PTR _pGVCount$232229[ebp+4], 1

; 748  : 						memcpy(GuildInfoBuf, &pGVCount, sizeof(PMSG_SIMPLE_GUILDVIEWPORT_COUNT));

  01a28	6a 05		 push	 5
  01a2a	8d 85 c4 fd ff
	ff		 lea	 eax, DWORD PTR _pGVCount$232229[ebp]
  01a30	50		 push	 eax
  01a31	8d 8d fc fd ff
	ff		 lea	 ecx, DWORD PTR _GuildInfoBuf$[ebp]
  01a37	51		 push	 ecx
  01a38	e8 00 00 00 00	 call	 _memcpy
  01a3d	83 c4 0c	 add	 esp, 12			; 0000000cH

; 749  : 
; 750  : 						DataSend(n, (LPBYTE)GuildInfoBuf, GuildInfoOfs);

  01a40	8b 85 d4 fd ff
	ff		 mov	 eax, DWORD PTR _GuildInfoOfs$[ebp]
  01a46	50		 push	 eax
  01a47	8d 8d fc fd ff
	ff		 lea	 ecx, DWORD PTR _GuildInfoBuf$[ebp]
  01a4d	51		 push	 ecx
  01a4e	8b 95 cc fd ff
	ff		 mov	 edx, DWORD PTR _n$232206[ebp]
  01a54	52		 push	 edx
  01a55	e8 00 00 00 00	 call	 ?DataSend@@YAHHPAEK@Z	; DataSend
  01a5a	83 c4 0c	 add	 esp, 12			; 0000000cH

; 751  : #if(EVENT_DUNGEON_SIEGE)
; 752  : 						g_DungeonSiege.GCGuildNumber(n);

  01a5d	8b 85 cc fd ff
	ff		 mov	 eax, DWORD PTR _n$232206[ebp]
  01a63	50		 push	 eax
  01a64	b9 00 00 00 00	 mov	 ecx, OFFSET ?g_DungeonSiege@@3VCDungeonSiege@@A ; g_DungeonSiege
  01a69	e8 00 00 00 00	 call	 ?GCGuildNumber@CDungeonSiege@@QAEXH@Z ; CDungeonSiege::GCGuildNumber

; 753  : #endif
; 754  : 
; 755  : 						if ( gObj[n].lpGuild->WarState != 0 )

  01a6e	8b 85 cc fd ff
	ff		 mov	 eax, DWORD PTR _n$232206[ebp]
  01a74	69 c0 38 2b 00
	00		 imul	 eax, 11064		; 00002b38H
  01a7a	8b 0d 00 00 00
	00		 mov	 ecx, DWORD PTR ?gObj@@3PAUOBJECTSTRUCT@@A ; gObj
  01a80	8b 94 01 38 04
	00 00		 mov	 edx, DWORD PTR [ecx+eax+1080]
  01a87	0f b6 82 91 05
	00 00		 movzx	 eax, BYTE PTR [edx+1425]
  01a8e	85 c0		 test	 eax, eax
  01a90	74 3e		 je	 SHORT $LN2@DGGuildMem

; 756  : 						{
; 757  : 							GCGuildWarScore(n);

  01a92	8b 85 cc fd ff
	ff		 mov	 eax, DWORD PTR _n$232206[ebp]
  01a98	50		 push	 eax
  01a99	e8 00 00 00 00	 call	 ?GCGuildWarScore@@YAXH@Z ; GCGuildWarScore
  01a9e	83 c4 04	 add	 esp, 4

; 758  : 							GCGuildWarDeclare(n, gObj[n].lpGuild->TargetGuildName);

  01aa1	8b 85 cc fd ff
	ff		 mov	 eax, DWORD PTR _n$232206[ebp]
  01aa7	69 c0 38 2b 00
	00		 imul	 eax, 11064		; 00002b38H
  01aad	8b 0d 00 00 00
	00		 mov	 ecx, DWORD PTR ?gObj@@3PAUOBJECTSTRUCT@@A ; gObj
  01ab3	8b 94 01 38 04
	00 00		 mov	 edx, DWORD PTR [ecx+eax+1080]
  01aba	81 c2 e0 04 00
	00		 add	 edx, 1248		; 000004e0H
  01ac0	52		 push	 edx
  01ac1	8b 85 cc fd ff
	ff		 mov	 eax, DWORD PTR _n$232206[ebp]
  01ac7	50		 push	 eax
  01ac8	e8 00 00 00 00	 call	 ?GCGuildWarDeclare@@YAXHPAD@Z ; GCGuildWarDeclare
  01acd	83 c4 08	 add	 esp, 8
$LN2@DGGuildMem:

; 759  : 						}
; 760  : 					}
; 761  : 					else

  01ad0	eb 4d		 jmp	 SHORT $LN1@DGGuildMem
$LN10@DGGuildMem:

; 762  : 					{
; 763  : //#if(GS_CASTLE==1)
; 764  : 						gObj[n].m_btCsJoinSide = 0;

  01ad2	8b 85 cc fd ff
	ff		 mov	 eax, DWORD PTR _n$232206[ebp]
  01ad8	69 c0 38 2b 00
	00		 imul	 eax, 11064		; 00002b38H
  01ade	8b 0d 00 00 00
	00		 mov	 ecx, DWORD PTR ?gObj@@3PAUOBJECTSTRUCT@@A ; gObj
  01ae4	c6 84 01 02 1c
	00 00 00	 mov	 BYTE PTR [ecx+eax+7170], 0

; 765  : 						gObj[n].m_bCsGuildInvolved = 0;

  01aec	8b 85 cc fd ff
	ff		 mov	 eax, DWORD PTR _n$232206[ebp]
  01af2	69 c0 38 2b 00
	00		 imul	 eax, 11064		; 00002b38H
  01af8	8b 0d 00 00 00
	00		 mov	 ecx, DWORD PTR ?gObj@@3PAUOBJECTSTRUCT@@A ; gObj
  01afe	c6 84 01 03 1c
	00 00 00	 mov	 BYTE PTR [ecx+eax+7171], 0

; 766  : //#endif
; 767  : 						LogAddTD(lMsg.Get(MSGGET(1, 185)));

  01b06	68 b9 01 00 00	 push	 441			; 000001b9H
  01b0b	b9 00 00 00 00	 mov	 ecx, OFFSET ?lMsg@@3VCMsg@@A ; lMsg
  01b10	e8 00 00 00 00	 call	 ?Get@CMsg@@QAEPADH@Z	; CMsg::Get
  01b15	50		 push	 eax
  01b16	ff 15 00 00 00
	00		 call	 DWORD PTR ?LogAddTD@@3P6AXPADZZA ; LogAddTD
  01b1c	83 c4 04	 add	 esp, 4
$LN1@DGGuildMem:

; 768  : 					}
; 769  : 
; 770  : 					return;

  01b1f	eb 25		 jmp	 SHORT $LN17@DGGuildMem
$LN13@DGGuildMem:

; 771  : 				}
; 772  : 			}
; 773  : 		}
; 774  : 	}

  01b21	e9 48 fa ff ff	 jmp	 $LN15@DGGuildMem
$LN14@DGGuildMem:

; 775  : 
; 776  : 	Guild.SetServer(szGuildName, szName, lpMsg->pServer);

  01b26	8b 45 08	 mov	 eax, DWORD PTR _lpMsg$[ebp]
  01b29	0f bf 48 1a	 movsx	 ecx, WORD PTR [eax+26]
  01b2d	51		 push	 ecx
  01b2e	8d 95 d8 fd ff
	ff		 lea	 edx, DWORD PTR _szName$[ebp]
  01b34	52		 push	 edx
  01b35	8d 85 e4 fd ff
	ff		 lea	 eax, DWORD PTR _szGuildName$[ebp]
  01b3b	50		 push	 eax
  01b3c	b9 00 00 00 00	 mov	 ecx, OFFSET ?Guild@@3VCGuildClass@@A ; Guild
  01b41	e8 00 00 00 00	 call	 ?SetServer@CGuildClass@@QAEHPAD0H@Z ; CGuildClass::SetServer
$LN17@DGGuildMem:

; 777  : }

  01b46	5f		 pop	 edi
  01b47	5e		 pop	 esi
  01b48	5b		 pop	 ebx
  01b49	8b 4d fc	 mov	 ecx, DWORD PTR __$ArrayPad$[ebp]
  01b4c	33 cd		 xor	 ecx, ebp
  01b4e	e8 00 00 00 00	 call	 @__security_check_cookie@4
  01b53	8b e5		 mov	 esp, ebp
  01b55	5d		 pop	 ebp
  01b56	c3		 ret	 0
?DGGuildMemberInfo@@YAXPAUSDHP_GUILDMEMBER_INFO@@@Z ENDP ; DGGuildMemberInfo
_TEXT	ENDS
PUBLIC	__$ArrayPad$
EXTRN	?SetGuildType@CGuildClass@@QAEHPADH@Z:PROC	; CGuildClass::SetGuildType
; Function compile flags: /Odtp /ZI
_TEXT	SEGMENT
_n$232281 = -48						; size = 4
_lpGuild$ = -44						; size = 4
_szMasterName$ = -40					; size = 11
_szGuildName$ = -28					; size = 9
_lOfs$ = -16						; size = 4
_lpList$ = -12						; size = 4
_lpCount$ = -8						; size = 4
__$ArrayPad$ = -4					; size = 4
_lpData$ = 8						; size = 4
?DGGuildMasterListRecv@@YAXPAE@Z PROC			; DGGuildMasterListRecv

; 802  : {

  01b60	55		 push	 ebp
  01b61	8b ec		 mov	 ebp, esp
  01b63	83 ec 70	 sub	 esp, 112		; 00000070H
  01b66	a1 00 00 00 00	 mov	 eax, DWORD PTR ___security_cookie
  01b6b	33 c5		 xor	 eax, ebp
  01b6d	89 45 fc	 mov	 DWORD PTR __$ArrayPad$[ebp], eax
  01b70	53		 push	 ebx
  01b71	56		 push	 esi
  01b72	57		 push	 edi

; 803  : 	SDHP_GUILDALL_COUNT * lpCount;
; 804  : 	SDHP_GUILDALL * lpList;
; 805  : 	int lOfs = sizeof(SDHP_GUILDALL_COUNT);

  01b73	c7 45 f0 58 00
	00 00		 mov	 DWORD PTR _lOfs$[ebp], 88 ; 00000058H

; 806  : 	char szGuildName[MAX_GUILD_LEN+1];
; 807  : 	char szMasterName[MAX_ACCOUNT_LEN+1];
; 808  : 
; 809  : 	memset(szMasterName, 0, sizeof(szMasterName));

  01b7a	6a 0b		 push	 11			; 0000000bH
  01b7c	6a 00		 push	 0
  01b7e	8d 45 d8	 lea	 eax, DWORD PTR _szMasterName$[ebp]
  01b81	50		 push	 eax
  01b82	e8 00 00 00 00	 call	 _memset
  01b87	83 c4 0c	 add	 esp, 12			; 0000000cH

; 810  : 	memset(szGuildName, 0, sizeof(szGuildName));

  01b8a	6a 09		 push	 9
  01b8c	6a 00		 push	 0
  01b8e	8d 45 e4	 lea	 eax, DWORD PTR _szGuildName$[ebp]
  01b91	50		 push	 eax
  01b92	e8 00 00 00 00	 call	 _memset
  01b97	83 c4 0c	 add	 esp, 12			; 0000000cH

; 811  : 	lpCount = (SDHP_GUILDALL_COUNT *)lpData;

  01b9a	8b 45 08	 mov	 eax, DWORD PTR _lpData$[ebp]
  01b9d	89 45 f8	 mov	 DWORD PTR _lpCount$[ebp], eax

; 812  : 	memcpy(szGuildName, lpCount->GuildName, sizeof(lpCount->GuildName)-1);

  01ba0	6a 08		 push	 8
  01ba2	8b 45 f8	 mov	 eax, DWORD PTR _lpCount$[ebp]
  01ba5	83 c0 08	 add	 eax, 8
  01ba8	50		 push	 eax
  01ba9	8d 4d e4	 lea	 ecx, DWORD PTR _szGuildName$[ebp]
  01bac	51		 push	 ecx
  01bad	e8 00 00 00 00	 call	 _memcpy
  01bb2	83 c4 0c	 add	 esp, 12			; 0000000cH

; 813  : 	memcpy(szMasterName, lpCount->Master, sizeof(lpCount->Master)-1);

  01bb5	6a 0a		 push	 10			; 0000000aH
  01bb7	8b 45 f8	 mov	 eax, DWORD PTR _lpCount$[ebp]
  01bba	83 c0 11	 add	 eax, 17			; 00000011H
  01bbd	50		 push	 eax
  01bbe	8d 4d d8	 lea	 ecx, DWORD PTR _szMasterName$[ebp]
  01bc1	51		 push	 ecx
  01bc2	e8 00 00 00 00	 call	 _memcpy
  01bc7	83 c4 0c	 add	 esp, 12			; 0000000cH

; 814  : 
; 815  : 	if ( strlen(szGuildName) < 1 )

  01bca	8d 45 e4	 lea	 eax, DWORD PTR _szGuildName$[ebp]
  01bcd	50		 push	 eax
  01bce	e8 00 00 00 00	 call	 _strlen
  01bd3	83 c4 04	 add	 esp, 4
  01bd6	83 f8 01	 cmp	 eax, 1
  01bd9	73 05		 jae	 SHORT $LN7@DGGuildMas

; 816  : 	{
; 817  : 		return;

  01bdb	e9 17 01 00 00	 jmp	 $LN8@DGGuildMas
$LN7@DGGuildMas:

; 818  : 	}
; 819  : 
; 820  : 	if ( lpCount->Count < 1 )

  01be0	8b 45 f8	 mov	 eax, DWORD PTR _lpCount$[ebp]
  01be3	0f b6 48 55	 movzx	 ecx, BYTE PTR [eax+85]
  01be7	83 f9 01	 cmp	 ecx, 1
  01bea	7d 05		 jge	 SHORT $LN6@DGGuildMas

; 821  : 	{
; 822  : 		return;

  01bec	e9 06 01 00 00	 jmp	 $LN8@DGGuildMas
$LN6@DGGuildMas:

; 823  : 	}
; 824  : 
; 825  : 	Guild.AddGuild(lpCount->Number, szGuildName, lpCount->Mark, szMasterName, lpCount->score);

  01bf1	8b 45 f8	 mov	 eax, DWORD PTR _lpCount$[ebp]
  01bf4	8b 48 3c	 mov	 ecx, DWORD PTR [eax+60]
  01bf7	51		 push	 ecx
  01bf8	8d 55 d8	 lea	 edx, DWORD PTR _szMasterName$[ebp]
  01bfb	52		 push	 edx
  01bfc	8b 45 f8	 mov	 eax, DWORD PTR _lpCount$[ebp]
  01bff	83 c0 1c	 add	 eax, 28			; 0000001cH
  01c02	50		 push	 eax
  01c03	8d 4d e4	 lea	 ecx, DWORD PTR _szGuildName$[ebp]
  01c06	51		 push	 ecx
  01c07	8b 55 f8	 mov	 edx, DWORD PTR _lpCount$[ebp]
  01c0a	8b 42 04	 mov	 eax, DWORD PTR [edx+4]
  01c0d	50		 push	 eax
  01c0e	b9 00 00 00 00	 mov	 ecx, OFFSET ?Guild@@3VCGuildClass@@A ; Guild
  01c13	e8 00 00 00 00	 call	 ?AddGuild@CGuildClass@@QAEPAU_GUILD_INFO_STRUCT@@HPADPAE0H@Z ; CGuildClass::AddGuild

; 826  : 	Guild.SetGuildType(szGuildName, lpCount->btGuildType);

  01c18	8b 45 f8	 mov	 eax, DWORD PTR _lpCount$[ebp]
  01c1b	0f b6 48 40	 movzx	 ecx, BYTE PTR [eax+64]
  01c1f	51		 push	 ecx
  01c20	8d 55 e4	 lea	 edx, DWORD PTR _szGuildName$[ebp]
  01c23	52		 push	 edx
  01c24	b9 00 00 00 00	 mov	 ecx, OFFSET ?Guild@@3VCGuildClass@@A ; Guild
  01c29	e8 00 00 00 00	 call	 ?SetGuildType@CGuildClass@@QAEHPADH@Z ; CGuildClass::SetGuildType

; 827  : 
; 828  : 	_GUILD_INFO_STRUCT * lpGuild = Guild.SearchGuild_Number(lpCount->Number);

  01c2e	8b 45 f8	 mov	 eax, DWORD PTR _lpCount$[ebp]
  01c31	8b 48 04	 mov	 ecx, DWORD PTR [eax+4]
  01c34	51		 push	 ecx
  01c35	b9 00 00 00 00	 mov	 ecx, OFFSET ?Guild@@3VCGuildClass@@A ; Guild
  01c3a	e8 00 00 00 00	 call	 ?SearchGuild_Number@CGuildClass@@QAEPAU_GUILD_INFO_STRUCT@@H@Z ; CGuildClass::SearchGuild_Number
  01c3f	89 45 d4	 mov	 DWORD PTR _lpGuild$[ebp], eax

; 829  : 
; 830  : 	if ( lpGuild != NULL )

  01c42	83 7d d4 00	 cmp	 DWORD PTR _lpGuild$[ebp], 0
  01c46	74 39		 je	 SHORT $LN5@DGGuildMas

; 831  : 	{
; 832  : 		lpGuild->iGuildUnion = lpCount->iGuildUnion;

  01c48	8b 45 d4	 mov	 eax, DWORD PTR _lpGuild$[ebp]
  01c4b	8b 4d f8	 mov	 ecx, DWORD PTR _lpCount$[ebp]
  01c4e	8b 51 44	 mov	 edx, DWORD PTR [ecx+68]
  01c51	89 90 1c 07 00
	00		 mov	 DWORD PTR [eax+1820], edx

; 833  : 		lpGuild->iGuildRival = lpCount->iGuildRival;

  01c57	8b 45 d4	 mov	 eax, DWORD PTR _lpGuild$[ebp]
  01c5a	8b 4d f8	 mov	 ecx, DWORD PTR _lpCount$[ebp]
  01c5d	8b 51 48	 mov	 edx, DWORD PTR [ecx+72]
  01c60	89 90 20 07 00
	00		 mov	 DWORD PTR [eax+1824], edx

; 834  : 		memcpy(lpGuild->szGuildRivalName, lpCount->szGuildRivalName, sizeof(lpCount->szGuildRivalName)-1);

  01c66	6a 08		 push	 8
  01c68	8b 45 f8	 mov	 eax, DWORD PTR _lpCount$[ebp]
  01c6b	83 c0 4c	 add	 eax, 76			; 0000004cH
  01c6e	50		 push	 eax
  01c6f	8b 4d d4	 mov	 ecx, DWORD PTR _lpGuild$[ebp]
  01c72	81 c1 28 07 00
	00		 add	 ecx, 1832		; 00000728H
  01c78	51		 push	 ecx
  01c79	e8 00 00 00 00	 call	 _memcpy
  01c7e	83 c4 0c	 add	 esp, 12			; 0000000cH
$LN5@DGGuildMas:

; 835  : 	}
; 836  : 
; 837  : 	for ( int n=0;n<lpCount->Count;n++)

  01c81	c7 45 d0 00 00
	00 00		 mov	 DWORD PTR _n$232281[ebp], 0
  01c88	eb 09		 jmp	 SHORT $LN4@DGGuildMas
$LN3@DGGuildMas:
  01c8a	8b 45 d0	 mov	 eax, DWORD PTR _n$232281[ebp]
  01c8d	83 c0 01	 add	 eax, 1
  01c90	89 45 d0	 mov	 DWORD PTR _n$232281[ebp], eax
$LN4@DGGuildMas:
  01c93	8b 45 f8	 mov	 eax, DWORD PTR _lpCount$[ebp]
  01c96	0f b6 48 55	 movzx	 ecx, BYTE PTR [eax+85]
  01c9a	39 4d d0	 cmp	 DWORD PTR _n$232281[ebp], ecx
  01c9d	7d 58		 jge	 SHORT $LN8@DGGuildMas

; 838  : 	{
; 839  : 		lpList = (SDHP_GUILDALL *)&lpData[lOfs];

  01c9f	8b 45 08	 mov	 eax, DWORD PTR _lpData$[ebp]
  01ca2	03 45 f0	 add	 eax, DWORD PTR _lOfs$[ebp]
  01ca5	89 45 f4	 mov	 DWORD PTR _lpList$[ebp], eax

; 840  : 
; 841  : 		memcpy(szMasterName, lpList->MemberID, sizeof(lpList->MemberID)-1);

  01ca8	6a 0a		 push	 10			; 0000000aH
  01caa	8b 45 f4	 mov	 eax, DWORD PTR _lpList$[ebp]
  01cad	50		 push	 eax
  01cae	8d 4d d8	 lea	 ecx, DWORD PTR _szMasterName$[ebp]
  01cb1	51		 push	 ecx
  01cb2	e8 00 00 00 00	 call	 _memcpy
  01cb7	83 c4 0c	 add	 esp, 12			; 0000000cH

; 842  : 		
; 843  : 		if ( Guild.AddMember(szGuildName, szMasterName, -1, lpCount->Count,lpList->btGuildStatus, lpList->pServer) == FALSE )

  01cba	8b 45 f4	 mov	 eax, DWORD PTR _lpList$[ebp]
  01cbd	0f bf 48 0c	 movsx	 ecx, WORD PTR [eax+12]
  01cc1	51		 push	 ecx
  01cc2	8b 55 f4	 mov	 edx, DWORD PTR _lpList$[ebp]
  01cc5	0f b6 42 0b	 movzx	 eax, BYTE PTR [edx+11]
  01cc9	50		 push	 eax
  01cca	8b 4d f8	 mov	 ecx, DWORD PTR _lpCount$[ebp]
  01ccd	0f b6 51 55	 movzx	 edx, BYTE PTR [ecx+85]
  01cd1	52		 push	 edx
  01cd2	6a ff		 push	 -1
  01cd4	8d 45 d8	 lea	 eax, DWORD PTR _szMasterName$[ebp]
  01cd7	50		 push	 eax
  01cd8	8d 4d e4	 lea	 ecx, DWORD PTR _szGuildName$[ebp]
  01cdb	51		 push	 ecx
  01cdc	b9 00 00 00 00	 mov	 ecx, OFFSET ?Guild@@3VCGuildClass@@A ; Guild
  01ce1	e8 00 00 00 00	 call	 ?AddMember@CGuildClass@@QAEPAU_GUILD_INFO_STRUCT@@PAD0HHHH@Z ; CGuildClass::AddMember
  01ce6	85 c0		 test	 eax, eax
  01ce8	75 02		 jne	 SHORT $LN1@DGGuildMas

; 844  : 		{
; 845  : 			break;

  01cea	eb 0b		 jmp	 SHORT $LN8@DGGuildMas
$LN1@DGGuildMas:

; 846  : 		}
; 847  : 
; 848  : 		lOfs += sizeof(SDHP_GUILDALL);

  01cec	8b 45 f0	 mov	 eax, DWORD PTR _lOfs$[ebp]
  01cef	83 c0 0e	 add	 eax, 14			; 0000000eH
  01cf2	89 45 f0	 mov	 DWORD PTR _lOfs$[ebp], eax

; 849  : 	}

  01cf5	eb 93		 jmp	 SHORT $LN3@DGGuildMas
$LN8@DGGuildMas:

; 850  : }

  01cf7	5f		 pop	 edi
  01cf8	5e		 pop	 esi
  01cf9	5b		 pop	 ebx
  01cfa	8b 4d fc	 mov	 ecx, DWORD PTR __$ArrayPad$[ebp]
  01cfd	33 cd		 xor	 ecx, ebp
  01cff	e8 00 00 00 00	 call	 @__security_check_cookie@4
  01d04	8b e5		 mov	 esp, ebp
  01d06	5d		 pop	 ebp
  01d07	c3		 ret	 0
?DGGuildMasterListRecv@@YAXPAE@Z ENDP			; DGGuildMasterListRecv
_TEXT	ENDS
PUBLIC	__$ArrayPad$
PUBLIC	?DGGuildScoreUpdate@@YAXPADH@Z			; DGGuildScoreUpdate
; Function compile flags: /Odtp /ZI
_TEXT	SEGMENT
_pMsg$ = -20						; size = 16
__$ArrayPad$ = -4					; size = 4
_guildname$ = 8						; size = 4
_score$ = 12						; size = 4
?DGGuildScoreUpdate@@YAXPADH@Z PROC			; DGGuildScoreUpdate

; 853  : {

  01d10	55		 push	 ebp
  01d11	8b ec		 mov	 ebp, esp
  01d13	83 ec 54	 sub	 esp, 84			; 00000054H
  01d16	a1 00 00 00 00	 mov	 eax, DWORD PTR ___security_cookie
  01d1b	33 c5		 xor	 eax, ebp
  01d1d	89 45 fc	 mov	 DWORD PTR __$ArrayPad$[ebp], eax
  01d20	53		 push	 ebx
  01d21	56		 push	 esi
  01d22	57		 push	 edi

; 854  : 	SDHP_GUILDSCOREUPDATE pMsg;
; 855  : 
; 856  : 	pMsg.h.set((LPBYTE)&pMsg, 0x37, sizeof(SDHP_GUILDSCOREUPDATE));

  01d23	6a 10		 push	 16			; 00000010H
  01d25	6a 37		 push	 55			; 00000037H
  01d27	8d 45 ec	 lea	 eax, DWORD PTR _pMsg$[ebp]
  01d2a	50		 push	 eax
  01d2b	8d 4d ec	 lea	 ecx, DWORD PTR _pMsg$[ebp]
  01d2e	e8 00 00 00 00	 call	 ?set@PBMSG_HEAD@@QAEXPAEEE@Z ; PBMSG_HEAD::set

; 857  : 	pMsg.Score = score;

  01d33	8b 45 0c	 mov	 eax, DWORD PTR _score$[ebp]
  01d36	89 45 f8	 mov	 DWORD PTR _pMsg$[ebp+12], eax

; 858  : 	strcpy(pMsg.GuildName, guildname);

  01d39	8b 45 08	 mov	 eax, DWORD PTR _guildname$[ebp]
  01d3c	50		 push	 eax
  01d3d	8d 4d ef	 lea	 ecx, DWORD PTR _pMsg$[ebp+3]
  01d40	51		 push	 ecx
  01d41	e8 00 00 00 00	 call	 _strcpy
  01d46	83 c4 08	 add	 esp, 8

; 859  : 
; 860  : 	wsExDbCli.DataSend((char*)&pMsg, pMsg.h.size);

  01d49	0f b6 45 ed	 movzx	 eax, BYTE PTR _pMsg$[ebp+1]
  01d4d	50		 push	 eax
  01d4e	8d 4d ec	 lea	 ecx, DWORD PTR _pMsg$[ebp]
  01d51	51		 push	 ecx
  01d52	b9 00 00 00 00	 mov	 ecx, OFFSET ?wsExDbCli@@3VwsJoinServerCli@@A ; wsExDbCli
  01d57	e8 00 00 00 00	 call	 ?DataSend@wsJoinServerCli@@QAEHPADH@Z ; wsJoinServerCli::DataSend

; 861  : 
; 862  : 	LogAdd(lMsg.Get(MSGGET(1, 186)), guildname, score);

  01d5c	8b 45 0c	 mov	 eax, DWORD PTR _score$[ebp]
  01d5f	50		 push	 eax
  01d60	8b 4d 08	 mov	 ecx, DWORD PTR _guildname$[ebp]
  01d63	51		 push	 ecx
  01d64	68 ba 01 00 00	 push	 442			; 000001baH
  01d69	b9 00 00 00 00	 mov	 ecx, OFFSET ?lMsg@@3VCMsg@@A ; lMsg
  01d6e	e8 00 00 00 00	 call	 ?Get@CMsg@@QAEPADH@Z	; CMsg::Get
  01d73	50		 push	 eax
  01d74	ff 15 00 00 00
	00		 call	 DWORD PTR ?LogAdd@@3P6AXPADZZA ; LogAdd
  01d7a	83 c4 0c	 add	 esp, 12			; 0000000cH

; 863  : }

  01d7d	5f		 pop	 edi
  01d7e	5e		 pop	 esi
  01d7f	5b		 pop	 ebx
  01d80	8b 4d fc	 mov	 ecx, DWORD PTR __$ArrayPad$[ebp]
  01d83	33 cd		 xor	 ecx, ebp
  01d85	e8 00 00 00 00	 call	 @__security_check_cookie@4
  01d8a	8b e5		 mov	 esp, ebp
  01d8c	5d		 pop	 ebp
  01d8d	c3		 ret	 0
?DGGuildScoreUpdate@@YAXPADH@Z ENDP			; DGGuildScoreUpdate
; Function compile flags: /Odtp /ZI
_lpNode$ = -4						; size = 4
_lpMsg$ = 8						; size = 4
?GDGuildScoreUpdateRecv@@YAXPAUSDHP_GUILDSCOREUPDATE@@@Z PROC ; GDGuildScoreUpdateRecv

; 866  : {

  01d90	55		 push	 ebp
  01d91	8b ec		 mov	 ebp, esp
  01d93	83 ec 44	 sub	 esp, 68			; 00000044H
  01d96	53		 push	 ebx
  01d97	56		 push	 esi
  01d98	57		 push	 edi

; 867  : 	_GUILD_INFO_STRUCT * lpNode = Guild.SearchGuild(lpMsg->GuildName);

  01d99	8b 45 08	 mov	 eax, DWORD PTR _lpMsg$[ebp]
  01d9c	83 c0 03	 add	 eax, 3
  01d9f	50		 push	 eax
  01da0	b9 00 00 00 00	 mov	 ecx, OFFSET ?Guild@@3VCGuildClass@@A ; Guild
  01da5	e8 00 00 00 00	 call	 ?SearchGuild@CGuildClass@@QAEPAU_GUILD_INFO_STRUCT@@PAD@Z ; CGuildClass::SearchGuild
  01daa	89 45 fc	 mov	 DWORD PTR _lpNode$[ebp], eax

; 868  : 
; 869  : 	if ( lpNode == NULL )

  01dad	83 7d fc 00	 cmp	 DWORD PTR _lpNode$[ebp], 0
  01db1	75 02		 jne	 SHORT $LN1@GDGuildSco

; 870  : 	{
; 871  : 		return;

  01db3	eb 36		 jmp	 SHORT $LN2@GDGuildSco
$LN1@GDGuildSco:

; 872  : 	}
; 873  : 
; 874  : 	lpNode->TotalScore = lpMsg->Score;

  01db5	8b 45 fc	 mov	 eax, DWORD PTR _lpNode$[ebp]
  01db8	8b 4d 08	 mov	 ecx, DWORD PTR _lpMsg$[ebp]
  01dbb	8b 51 0c	 mov	 edx, DWORD PTR [ecx+12]
  01dbe	89 90 98 05 00
	00		 mov	 DWORD PTR [eax+1432], edx

; 875  : 	LogAdd(lMsg.Get(MSGGET(1, 187)), lpMsg->GuildName, lpMsg->Score);

  01dc4	8b 45 08	 mov	 eax, DWORD PTR _lpMsg$[ebp]
  01dc7	8b 48 0c	 mov	 ecx, DWORD PTR [eax+12]
  01dca	51		 push	 ecx
  01dcb	8b 55 08	 mov	 edx, DWORD PTR _lpMsg$[ebp]
  01dce	83 c2 03	 add	 edx, 3
  01dd1	52		 push	 edx
  01dd2	68 bb 01 00 00	 push	 443			; 000001bbH
  01dd7	b9 00 00 00 00	 mov	 ecx, OFFSET ?lMsg@@3VCMsg@@A ; lMsg
  01ddc	e8 00 00 00 00	 call	 ?Get@CMsg@@QAEPADH@Z	; CMsg::Get
  01de1	50		 push	 eax
  01de2	ff 15 00 00 00
	00		 call	 DWORD PTR ?LogAdd@@3P6AXPADZZA ; LogAdd
  01de8	83 c4 0c	 add	 esp, 12			; 0000000cH
$LN2@GDGuildSco:

; 876  : }

  01deb	5f		 pop	 edi
  01dec	5e		 pop	 esi
  01ded	5b		 pop	 ebx
  01dee	8b e5		 mov	 esp, ebp
  01df0	5d		 pop	 ebp
  01df1	c3		 ret	 0
?GDGuildScoreUpdateRecv@@YAXPAUSDHP_GUILDSCOREUPDATE@@@Z ENDP ; GDGuildScoreUpdateRecv
_TEXT	ENDS
PUBLIC	__$ArrayPad$
PUBLIC	?GDGuildNoticeSave@@YAXPAD0@Z			; GDGuildNoticeSave
; Function compile flags: /Odtp /ZI
_TEXT	SEGMENT
_len$ = -112						; size = 4
_pMsg$ = -108						; size = 101
__$ArrayPad$ = -4					; size = 4
_guild_name$ = 8					; size = 4
_guild_notice$ = 12					; size = 4
?GDGuildNoticeSave@@YAXPAD0@Z PROC			; GDGuildNoticeSave

; 879  : {

  01e00	55		 push	 ebp
  01e01	8b ec		 mov	 ebp, esp
  01e03	81 ec b0 00 00
	00		 sub	 esp, 176		; 000000b0H
  01e09	a1 00 00 00 00	 mov	 eax, DWORD PTR ___security_cookie
  01e0e	33 c5		 xor	 eax, ebp
  01e10	89 45 fc	 mov	 DWORD PTR __$ArrayPad$[ebp], eax
  01e13	53		 push	 ebx
  01e14	56		 push	 esi
  01e15	57		 push	 edi

; 880  : 	SDHP_GUILDNOTICE pMsg;
; 881  : 
; 882  : 	int len = strlen((char*)guild_notice);

  01e16	8b 45 0c	 mov	 eax, DWORD PTR _guild_notice$[ebp]
  01e19	50		 push	 eax
  01e1a	e8 00 00 00 00	 call	 _strlen
  01e1f	83 c4 04	 add	 esp, 4
  01e22	89 45 90	 mov	 DWORD PTR _len$[ebp], eax

; 883  : 
; 884  : 	if ( len < 1 )

  01e25	83 7d 90 01	 cmp	 DWORD PTR _len$[ebp], 1
  01e29	7d 02		 jge	 SHORT $LN2@GDGuildNot

; 885  : 	{
; 886  : 		return;

  01e2b	eb 47		 jmp	 SHORT $LN3@GDGuildNot
$LN2@GDGuildNot:

; 887  : 	}
; 888  : 
; 889  : 	if ( len > MAX_CHAT_LEN-2 )

  01e2d	83 7d 90 57	 cmp	 DWORD PTR _len$[ebp], 87 ; 00000057H
  01e31	7e 02		 jle	 SHORT $LN1@GDGuildNot

; 890  : 	{
; 891  : 		return;

  01e33	eb 3f		 jmp	 SHORT $LN3@GDGuildNot
$LN1@GDGuildNot:

; 892  : 	}
; 893  : 
; 894  : 	pMsg.h.c = 0xC1;

  01e35	c6 45 94 c1	 mov	 BYTE PTR _pMsg$[ebp], 193 ; 000000c1H

; 895  : 	pMsg.h.headcode = 0x38;

  01e39	c6 45 96 38	 mov	 BYTE PTR _pMsg$[ebp+2], 56 ; 00000038H

; 896  : 	pMsg.h.size = sizeof(SDHP_GUILDNOTICE);

  01e3d	c6 45 95 65	 mov	 BYTE PTR _pMsg$[ebp+1], 101 ; 00000065H

; 897  : 	strcpy(pMsg.GuildName, guild_name);

  01e41	8b 45 08	 mov	 eax, DWORD PTR _guild_name$[ebp]
  01e44	50		 push	 eax
  01e45	8d 4d 97	 lea	 ecx, DWORD PTR _pMsg$[ebp+3]
  01e48	51		 push	 ecx
  01e49	e8 00 00 00 00	 call	 _strcpy
  01e4e	83 c4 08	 add	 esp, 8

; 898  : 	//memcpy(pMsg.szGuildNotice, guild_notice, MAX_CHAT_LEN_OLD-1); //for fix some
; 899  : 	strcpy(pMsg.szGuildNotice, guild_notice);

  01e51	8b 45 0c	 mov	 eax, DWORD PTR _guild_notice$[ebp]
  01e54	50		 push	 eax
  01e55	8d 4d a0	 lea	 ecx, DWORD PTR _pMsg$[ebp+12]
  01e58	51		 push	 ecx
  01e59	e8 00 00 00 00	 call	 _strcpy
  01e5e	83 c4 08	 add	 esp, 8

; 900  : 
; 901  : 	wsExDbCli.DataSend((char*)&pMsg, pMsg.h.size);

  01e61	0f b6 45 95	 movzx	 eax, BYTE PTR _pMsg$[ebp+1]
  01e65	50		 push	 eax
  01e66	8d 4d 94	 lea	 ecx, DWORD PTR _pMsg$[ebp]
  01e69	51		 push	 ecx
  01e6a	b9 00 00 00 00	 mov	 ecx, OFFSET ?wsExDbCli@@3VwsJoinServerCli@@A ; wsExDbCli
  01e6f	e8 00 00 00 00	 call	 ?DataSend@wsJoinServerCli@@QAEHPADH@Z ; wsJoinServerCli::DataSend
$LN3@GDGuildNot:

; 902  : }

  01e74	5f		 pop	 edi
  01e75	5e		 pop	 esi
  01e76	5b		 pop	 ebx
  01e77	8b 4d fc	 mov	 ecx, DWORD PTR __$ArrayPad$[ebp]
  01e7a	33 cd		 xor	 ecx, ebp
  01e7c	e8 00 00 00 00	 call	 @__security_check_cookie@4
  01e81	8b e5		 mov	 esp, ebp
  01e83	5d		 pop	 ebp
  01e84	c3		 ret	 0
?GDGuildNoticeSave@@YAXPAD0@Z ENDP			; GDGuildNoticeSave
; Function compile flags: /Odtp /ZI
_n$232317 = -8						; size = 4
_lpNode$ = -4						; size = 4
_lpMsg$ = 8						; size = 4
?DGGuildNoticeRecv@@YAXPAUSDHP_GUILDNOTICE@@@Z PROC	; DGGuildNoticeRecv

; 905  : {

  01e90	55		 push	 ebp
  01e91	8b ec		 mov	 ebp, esp
  01e93	83 ec 48	 sub	 esp, 72			; 00000048H
  01e96	53		 push	 ebx
  01e97	56		 push	 esi
  01e98	57		 push	 edi

; 906  : 	_GUILD_INFO_STRUCT * lpNode = Guild.SearchGuild(lpMsg->GuildName);

  01e99	8b 45 08	 mov	 eax, DWORD PTR _lpMsg$[ebp]
  01e9c	83 c0 03	 add	 eax, 3
  01e9f	50		 push	 eax
  01ea0	b9 00 00 00 00	 mov	 ecx, OFFSET ?Guild@@3VCGuildClass@@A ; Guild
  01ea5	e8 00 00 00 00	 call	 ?SearchGuild@CGuildClass@@QAEPAU_GUILD_INFO_STRUCT@@PAD@Z ; CGuildClass::SearchGuild
  01eaa	89 45 fc	 mov	 DWORD PTR _lpNode$[ebp], eax

; 907  : 
; 908  : 	if ( lpNode == NULL )

  01ead	83 7d fc 00	 cmp	 DWORD PTR _lpNode$[ebp], 0
  01eb1	75 05		 jne	 SHORT $LN5@DGGuildNot@2

; 909  : 	{
; 910  : 		return;

  01eb3	e9 9d 00 00 00	 jmp	 $LN6@DGGuildNot@2
$LN5@DGGuildNot@2:

; 911  : 	}
; 912  : 
; 913  : 	strcpy(lpNode->Notice, lpMsg->szGuildNotice);

  01eb8	8b 45 08	 mov	 eax, DWORD PTR _lpMsg$[ebp]
  01ebb	83 c0 0c	 add	 eax, 12			; 0000000cH
  01ebe	50		 push	 eax
  01ebf	8b 4d fc	 mov	 ecx, DWORD PTR _lpNode$[ebp]
  01ec2	81 c1 9c 05 00
	00		 add	 ecx, 1436		; 0000059cH
  01ec8	51		 push	 ecx
  01ec9	e8 00 00 00 00	 call	 _strcpy
  01ece	83 c4 08	 add	 esp, 8

; 914  : 	LogAddTD(lMsg.Get(MSGGET(1, 188)), lpMsg->GuildName, lpMsg->szGuildNotice);

  01ed1	8b 45 08	 mov	 eax, DWORD PTR _lpMsg$[ebp]
  01ed4	83 c0 0c	 add	 eax, 12			; 0000000cH
  01ed7	50		 push	 eax
  01ed8	8b 4d 08	 mov	 ecx, DWORD PTR _lpMsg$[ebp]
  01edb	83 c1 03	 add	 ecx, 3
  01ede	51		 push	 ecx
  01edf	68 bc 01 00 00	 push	 444			; 000001bcH
  01ee4	b9 00 00 00 00	 mov	 ecx, OFFSET ?lMsg@@3VCMsg@@A ; lMsg
  01ee9	e8 00 00 00 00	 call	 ?Get@CMsg@@QAEPADH@Z	; CMsg::Get
  01eee	50		 push	 eax
  01eef	ff 15 00 00 00
	00		 call	 DWORD PTR ?LogAddTD@@3P6AXPADZZA ; LogAddTD
  01ef5	83 c4 0c	 add	 esp, 12			; 0000000cH

; 915  : 
; 916  : 	for ( int n=0;n<MAX_USER_GUILD;n++)

  01ef8	c7 45 f8 00 00
	00 00		 mov	 DWORD PTR _n$232317[ebp], 0
  01eff	eb 09		 jmp	 SHORT $LN4@DGGuildNot@2
$LN3@DGGuildNot@2:
  01f01	8b 45 f8	 mov	 eax, DWORD PTR _n$232317[ebp]
  01f04	83 c0 01	 add	 eax, 1
  01f07	89 45 f8	 mov	 DWORD PTR _n$232317[ebp], eax
$LN4@DGGuildNot@2:
  01f0a	83 7d f8 50	 cmp	 DWORD PTR _n$232317[ebp], 80 ; 00000050H
  01f0e	7d 45		 jge	 SHORT $LN6@DGGuildNot@2

; 917  : 	{
; 918  : 		if ( lpNode->Use[n] > 0 && lpNode->Index[n] >= 0 )

  01f10	8b 45 fc	 mov	 eax, DWORD PTR _lpNode$[ebp]
  01f13	03 45 f8	 add	 eax, DWORD PTR _n$232317[ebp]
  01f16	0f b6 88 40 04
	00 00		 movzx	 ecx, BYTE PTR [eax+1088]
  01f1d	85 c9		 test	 ecx, ecx
  01f1f	7e 32		 jle	 SHORT $LN1@DGGuildNot@2
  01f21	8b 45 f8	 mov	 eax, DWORD PTR _n$232317[ebp]
  01f24	8b 4d fc	 mov	 ecx, DWORD PTR _lpNode$[ebp]
  01f27	0f bf 94 41 a0
	03 00 00	 movsx	 edx, WORD PTR [ecx+eax*2+928]
  01f2f	85 d2		 test	 edx, edx
  01f31	7c 20		 jl	 SHORT $LN1@DGGuildNot@2

; 919  : 		{
; 920  : 			GCServerMsgStringSend(lpMsg->szGuildNotice, lpNode->Index[n], 2);

  01f33	6a 02		 push	 2
  01f35	8b 45 f8	 mov	 eax, DWORD PTR _n$232317[ebp]
  01f38	8b 4d fc	 mov	 ecx, DWORD PTR _lpNode$[ebp]
  01f3b	0f bf 94 41 a0
	03 00 00	 movsx	 edx, WORD PTR [ecx+eax*2+928]
  01f43	52		 push	 edx
  01f44	8b 45 08	 mov	 eax, DWORD PTR _lpMsg$[ebp]
  01f47	83 c0 0c	 add	 eax, 12			; 0000000cH
  01f4a	50		 push	 eax
  01f4b	e8 00 00 00 00	 call	 ?GCServerMsgStringSend@@YAXPADHE@Z ; GCServerMsgStringSend
  01f50	83 c4 0c	 add	 esp, 12			; 0000000cH
$LN1@DGGuildNot@2:

; 921  : 		}
; 922  : 	}

  01f53	eb ac		 jmp	 SHORT $LN3@DGGuildNot@2
$LN6@DGGuildNot@2:

; 923  : }

  01f55	5f		 pop	 edi
  01f56	5e		 pop	 esi
  01f57	5b		 pop	 ebx
  01f58	8b e5		 mov	 esp, ebp
  01f5a	5d		 pop	 ebp
  01f5b	c3		 ret	 0
?DGGuildNoticeRecv@@YAXPAUSDHP_GUILDNOTICE@@@Z ENDP	; DGGuildNoticeRecv
_TEXT	ENDS
PUBLIC	?DGGuildListRequest@@YAXXZ			; DGGuildListRequest
; Function compile flags: /Odtp /ZI
_TEXT	SEGMENT
_pMsg$ = -4						; size = 3
?DGGuildListRequest@@YAXXZ PROC				; DGGuildListRequest

; 931  : {

  01f60	55		 push	 ebp
  01f61	8b ec		 mov	 ebp, esp
  01f63	83 ec 44	 sub	 esp, 68			; 00000044H
  01f66	53		 push	 ebx
  01f67	56		 push	 esi
  01f68	57		 push	 edi

; 932  : 	SDHP_GUILDLISTREQUEST pMsg;
; 933  : 
; 934  : 	pMsg.h.set((LPBYTE)&pMsg, 0x40, sizeof(SDHP_GUILDLISTREQUEST));

  01f69	6a 03		 push	 3
  01f6b	6a 40		 push	 64			; 00000040H
  01f6d	8d 45 fc	 lea	 eax, DWORD PTR _pMsg$[ebp]
  01f70	50		 push	 eax
  01f71	8d 4d fc	 lea	 ecx, DWORD PTR _pMsg$[ebp]
  01f74	e8 00 00 00 00	 call	 ?set@PBMSG_HEAD@@QAEXPAEEE@Z ; PBMSG_HEAD::set

; 935  : 
; 936  : 	wsExDbCli.DataSend((char*)&pMsg, pMsg.h.size);

  01f79	0f b6 45 fd	 movzx	 eax, BYTE PTR _pMsg$[ebp+1]
  01f7d	50		 push	 eax
  01f7e	8d 4d fc	 lea	 ecx, DWORD PTR _pMsg$[ebp]
  01f81	51		 push	 ecx
  01f82	b9 00 00 00 00	 mov	 ecx, OFFSET ?wsExDbCli@@3VwsJoinServerCli@@A ; wsExDbCli
  01f87	e8 00 00 00 00	 call	 ?DataSend@wsJoinServerCli@@QAEHPADH@Z ; wsJoinServerCli::DataSend

; 937  : }

  01f8c	5f		 pop	 edi
  01f8d	5e		 pop	 esi
  01f8e	5b		 pop	 ebx
  01f8f	8b e5		 mov	 esp, ebp
  01f91	5d		 pop	 ebp
  01f92	c3		 ret	 0
?DGGuildListRequest@@YAXXZ ENDP				; DGGuildListRequest
_TEXT	ENDS
PUBLIC	??_C@_0O@BNCDNIJM@?$CF8s?5?$FL?$CFd?5?1?5?$CFd?$FN?$AA@ ; `string'
PUBLIC	__$ArrayPad$
EXTRN	__imp__SetDlgItemTextA@12:PROC
EXTRN	__imp__wsprintfA:PROC
EXTRN	__imp__SendMessageA@16:PROC
;	COMDAT ??_C@_0O@BNCDNIJM@?$CF8s?5?$FL?$CFd?5?1?5?$CFd?$FN?$AA@
CONST	SEGMENT
??_C@_0O@BNCDNIJM@?$CF8s?5?$FL?$CFd?5?1?5?$CFd?$FN?$AA@ DB '%8s [%d / %d]'
	DB	00H						; `string'
; Function compile flags: /Odtp /ZI
CONST	ENDS
_TEXT	SEGMENT
_szTemp$ = -260						; size = 256
__$ArrayPad$ = -4					; size = 4
_lpMsg$ = 8						; size = 4
?DGGuildList@@YAXPAUSDHP_GUILDCREATED@@@Z PROC		; DGGuildList

; 940  : {

  01fa0	55		 push	 ebp
  01fa1	8b ec		 mov	 ebp, esp
  01fa3	81 ec 44 01 00
	00		 sub	 esp, 324		; 00000144H
  01fa9	a1 00 00 00 00	 mov	 eax, DWORD PTR ___security_cookie
  01fae	33 c5		 xor	 eax, ebp
  01fb0	89 45 fc	 mov	 DWORD PTR __$ArrayPad$[ebp], eax
  01fb3	53		 push	 ebx
  01fb4	56		 push	 esi
  01fb5	57		 push	 edi

; 941  : 	char szTemp[256];
; 942  : 
; 943  : 	Guild.AddGuild(lpMsg->Number, lpMsg->GuildName, lpMsg->Mark, lpMsg->Master, lpMsg->score);

  01fb6	8b 45 08	 mov	 eax, DWORD PTR _lpMsg$[ebp]
  01fb9	8b 48 3c	 mov	 ecx, DWORD PTR [eax+60]
  01fbc	51		 push	 ecx
  01fbd	8b 55 08	 mov	 edx, DWORD PTR _lpMsg$[ebp]
  01fc0	83 c2 0f	 add	 edx, 15			; 0000000fH
  01fc3	52		 push	 edx
  01fc4	8b 45 08	 mov	 eax, DWORD PTR _lpMsg$[ebp]
  01fc7	83 c0 1a	 add	 eax, 26			; 0000001aH
  01fca	50		 push	 eax
  01fcb	8b 4d 08	 mov	 ecx, DWORD PTR _lpMsg$[ebp]
  01fce	83 c1 06	 add	 ecx, 6
  01fd1	51		 push	 ecx
  01fd2	8b 55 08	 mov	 edx, DWORD PTR _lpMsg$[ebp]
  01fd5	0f b7 42 04	 movzx	 eax, WORD PTR [edx+4]
  01fd9	50		 push	 eax
  01fda	b9 00 00 00 00	 mov	 ecx, OFFSET ?Guild@@3VCGuildClass@@A ; Guild
  01fdf	e8 00 00 00 00	 call	 ?AddGuild@CGuildClass@@QAEPAU_GUILD_INFO_STRUCT@@HPADPAE0H@Z ; CGuildClass::AddGuild

; 944  : 
; 945  : 	if ( GuildListhDlg != NULL )

  01fe4	83 3d 00 00 00
	00 00		 cmp	 DWORD PTR ?GuildListhDlg@@3PAUHWND__@@A, 0 ; GuildListhDlg
  01feb	74 69		 je	 SHORT $LN2@DGGuildLis

; 946  : 	{
; 947  : 		SendMessage(::GuildListhPrs, 0x402, gGuildListCount, 0);

  01fed	6a 00		 push	 0
  01fef	a1 00 00 00 00	 mov	 eax, DWORD PTR ?gGuildListCount@@3HA ; gGuildListCount
  01ff4	50		 push	 eax
  01ff5	68 02 04 00 00	 push	 1026			; 00000402H
  01ffa	8b 0d 00 00 00
	00		 mov	 ecx, DWORD PTR ?GuildListhPrs@@3PAUHWND__@@A ; GuildListhPrs
  02000	51		 push	 ecx
  02001	ff 15 00 00 00
	00		 call	 DWORD PTR __imp__SendMessageA@16

; 948  : 		gGuildListCount++;

  02007	a1 00 00 00 00	 mov	 eax, DWORD PTR ?gGuildListCount@@3HA ; gGuildListCount
  0200c	83 c0 01	 add	 eax, 1
  0200f	a3 00 00 00 00	 mov	 DWORD PTR ?gGuildListCount@@3HA, eax ; gGuildListCount

; 949  : 		wsprintf(szTemp, "%8s [%d / %d]", lpMsg->GuildName, gGuildListCount, gGuildListTotal);

  02014	a1 00 00 00 00	 mov	 eax, DWORD PTR ?gGuildListTotal@@3HA ; gGuildListTotal
  02019	50		 push	 eax
  0201a	8b 0d 00 00 00
	00		 mov	 ecx, DWORD PTR ?gGuildListCount@@3HA ; gGuildListCount
  02020	51		 push	 ecx
  02021	8b 55 08	 mov	 edx, DWORD PTR _lpMsg$[ebp]
  02024	83 c2 06	 add	 edx, 6
  02027	52		 push	 edx
  02028	68 00 00 00 00	 push	 OFFSET ??_C@_0O@BNCDNIJM@?$CF8s?5?$FL?$CFd?5?1?5?$CFd?$FN?$AA@
  0202d	8d 85 fc fe ff
	ff		 lea	 eax, DWORD PTR _szTemp$[ebp]
  02033	50		 push	 eax
  02034	ff 15 00 00 00
	00		 call	 DWORD PTR __imp__wsprintfA
  0203a	83 c4 14	 add	 esp, 20			; 00000014H

; 950  : 		SetDlgItemText(GuildListhDlg, IDS_CURRENT_GUILD_NAME, szTemp);

  0203d	8d 85 fc fe ff
	ff		 lea	 eax, DWORD PTR _szTemp$[ebp]
  02043	50		 push	 eax
  02044	68 e9 03 00 00	 push	 1001			; 000003e9H
  02049	8b 0d 00 00 00
	00		 mov	 ecx, DWORD PTR ?GuildListhDlg@@3PAUHWND__@@A ; GuildListhDlg
  0204f	51		 push	 ecx
  02050	ff 15 00 00 00
	00		 call	 DWORD PTR __imp__SetDlgItemTextA@12
$LN2@DGGuildLis:

; 951  : 	}
; 952  : }

  02056	5f		 pop	 edi
  02057	5e		 pop	 esi
  02058	5b		 pop	 ebx
  02059	8b 4d fc	 mov	 ecx, DWORD PTR __$ArrayPad$[ebp]
  0205c	33 cd		 xor	 ecx, ebp
  0205e	e8 00 00 00 00	 call	 @__security_check_cookie@4
  02063	8b e5		 mov	 esp, ebp
  02065	5d		 pop	 ebp
  02066	c3		 ret	 0
?DGGuildList@@YAXPAUSDHP_GUILDCREATED@@@Z ENDP		; DGGuildList
_TEXT	ENDS
PUBLIC	?GuildListDlgProc@@YGHPAUHWND__@@IIJ@Z		; GuildListDlgProc
EXTRN	__imp__EndDialog@8:PROC
; Function compile flags: /Odtp /ZI
_TEXT	SEGMENT
tv65 = -68						; size = 4
tv64 = -68						; size = 4
_hDlg$ = 8						; size = 4
_iMsg$ = 12						; size = 4
_wParam$ = 16						; size = 4
_lParam$ = 20						; size = 4
?GuildListDlgProc@@YGHPAUHWND__@@IIJ@Z PROC		; GuildListDlgProc

; 955  : {

  02070	55		 push	 ebp
  02071	8b ec		 mov	 ebp, esp
  02073	83 ec 44	 sub	 esp, 68			; 00000044H
  02076	53		 push	 ebx
  02077	56		 push	 esi
  02078	57		 push	 edi

; 956  : 	switch (iMsg)

  02079	8b 45 0c	 mov	 eax, DWORD PTR _iMsg$[ebp]
  0207c	89 45 bc	 mov	 DWORD PTR tv64[ebp], eax
  0207f	81 7d bc 11 01
	00 00		 cmp	 DWORD PTR tv64[ebp], 273 ; 00000111H
  02086	74 02		 je	 SHORT $LN4@GuildListD
  02088	eb 26		 jmp	 SHORT $LN5@GuildListD
$LN4@GuildListD:

; 957  : 	{
; 958  : 		case 273:
; 959  : 
; 960  : 			switch ( wParam )

  0208a	8b 45 10	 mov	 eax, DWORD PTR _wParam$[ebp]
  0208d	89 45 bc	 mov	 DWORD PTR tv65[ebp], eax
  02090	83 7d bc 02	 cmp	 DWORD PTR tv65[ebp], 2
  02094	74 02		 je	 SHORT $LN1@GuildListD
  02096	eb 18		 jmp	 SHORT $LN5@GuildListD
$LN1@GuildListD:

; 961  : 			{
; 962  : 				case 2:
; 963  : 					EndDialog(GuildListhDlg, 0);

  02098	6a 00		 push	 0
  0209a	a1 00 00 00 00	 mov	 eax, DWORD PTR ?GuildListhDlg@@3PAUHWND__@@A ; GuildListhDlg
  0209f	50		 push	 eax
  020a0	ff 15 00 00 00
	00		 call	 DWORD PTR __imp__EndDialog@8

; 964  : 					GuildListhDlg = NULL;

  020a6	c7 05 00 00 00
	00 00 00 00 00	 mov	 DWORD PTR ?GuildListhDlg@@3PAUHWND__@@A, 0 ; GuildListhDlg
$LN5@GuildListD:

; 965  : 					break;
; 966  : 			}
; 967  : 			break;
; 968  : 	}
; 969  : 
; 970  : 	return 0;

  020b0	33 c0		 xor	 eax, eax

; 971  : }

  020b2	5f		 pop	 edi
  020b3	5e		 pop	 esi
  020b4	5b		 pop	 ebx
  020b5	8b e5		 mov	 esp, ebp
  020b7	5d		 pop	 ebp
  020b8	c2 10 00	 ret	 16			; 00000010H
?GuildListDlgProc@@YGHPAUHWND__@@IIJ@Z ENDP		; GuildListDlgProc
_TEXT	ENDS
EXTRN	?GameServerInfoSendStart@@YAXXZ:PROC		; GameServerInfoSendStart
EXTRN	?GameServerInfoSendStop@@YAXXZ:PROC		; GameServerInfoSendStop
EXTRN	__imp__GetDlgItem@8:PROC
EXTRN	__imp__ShowWindow@8:PROC
EXTRN	__imp__CreateDialogParamA@20:PROC
EXTRN	?ghWnd@@3PAUHWND__@@A:DWORD			; ghWnd
EXTRN	__imp__IsWindow@4:PROC
; Function compile flags: /Odtp /ZI
_TEXT	SEGMENT
tv66 = -68						; size = 4
_lpMsg$ = 8						; size = 4
?DGGuildListState@@YAXPAUSDHP_GUILDLISTSTATE@@@Z PROC	; DGGuildListState

; 974  : {

  020c0	55		 push	 ebp
  020c1	8b ec		 mov	 ebp, esp
  020c3	83 ec 44	 sub	 esp, 68			; 00000044H
  020c6	53		 push	 ebx
  020c7	56		 push	 esi
  020c8	57		 push	 edi

; 975  : 	switch ( lpMsg->State )

  020c9	8b 45 08	 mov	 eax, DWORD PTR _lpMsg$[ebp]
  020cc	8a 48 03	 mov	 cl, BYTE PTR [eax+3]
  020cf	88 4d bc	 mov	 BYTE PTR tv66[ebp], cl
  020d2	80 7d bc 00	 cmp	 BYTE PTR tv66[ebp], 0
  020d6	74 0f		 je	 SHORT $LN4@DGGuildLis@2
  020d8	80 7d bc 01	 cmp	 BYTE PTR tv66[ebp], 1
  020dc	0f 84 b8 00 00
	00		 je	 $LN2@DGGuildLis@2
  020e2	e9 e0 00 00 00	 jmp	 $LN7@DGGuildLis@2
$LN4@DGGuildLis@2:

; 976  : 	{
; 977  : 		case 0:
; 978  : 			if ( IsWindow(GuildListhDlg) == FALSE )

  020e7	a1 00 00 00 00	 mov	 eax, DWORD PTR ?GuildListhDlg@@3PAUHWND__@@A ; GuildListhDlg
  020ec	50		 push	 eax
  020ed	ff 15 00 00 00
	00		 call	 DWORD PTR __imp__IsWindow@4
  020f3	85 c0		 test	 eax, eax
  020f5	0f 85 9d 00 00
	00		 jne	 $LN3@DGGuildLis@2

; 979  : 			{
; 980  : 				GuildListhDlg = CreateDialogParam(NULL, (LPCTSTR)IDD_GUILD_LIST_STATE, ghWnd, (DLGPROC)GuildListDlgProc, 0);

  020fb	6a 00		 push	 0
  020fd	68 00 00 00 00	 push	 OFFSET ?GuildListDlgProc@@YGHPAUHWND__@@IIJ@Z ; GuildListDlgProc
  02102	a1 00 00 00 00	 mov	 eax, DWORD PTR ?ghWnd@@3PAUHWND__@@A ; ghWnd
  02107	50		 push	 eax
  02108	68 8d 00 00 00	 push	 141			; 0000008dH
  0210d	6a 00		 push	 0
  0210f	ff 15 00 00 00
	00		 call	 DWORD PTR __imp__CreateDialogParamA@20
  02115	a3 00 00 00 00	 mov	 DWORD PTR ?GuildListhDlg@@3PAUHWND__@@A, eax ; GuildListhDlg

; 981  : 				ShowWindow(GuildListhDlg, SW_SHOW);

  0211a	6a 05		 push	 5
  0211c	a1 00 00 00 00	 mov	 eax, DWORD PTR ?GuildListhDlg@@3PAUHWND__@@A ; GuildListhDlg
  02121	50		 push	 eax
  02122	ff 15 00 00 00
	00		 call	 DWORD PTR __imp__ShowWindow@8

; 982  : 				GuildListhPrs = GetDlgItem(GuildListhDlg, IDP_PROGRESS_BAR);

  02128	68 e8 03 00 00	 push	 1000			; 000003e8H
  0212d	a1 00 00 00 00	 mov	 eax, DWORD PTR ?GuildListhDlg@@3PAUHWND__@@A ; GuildListhDlg
  02132	50		 push	 eax
  02133	ff 15 00 00 00
	00		 call	 DWORD PTR __imp__GetDlgItem@8
  02139	a3 00 00 00 00	 mov	 DWORD PTR ?GuildListhPrs@@3PAUHWND__@@A, eax ; GuildListhPrs

; 983  : 				SendMessage(GuildListhPrs, 0x401, 0, (((lpMsg->Count & 0xFFFF)&0xFFFF)<<16));

  0213e	8b 45 08	 mov	 eax, DWORD PTR _lpMsg$[ebp]
  02141	8b 48 04	 mov	 ecx, DWORD PTR [eax+4]
  02144	81 e1 ff ff 00
	00		 and	 ecx, 65535		; 0000ffffH
  0214a	81 e1 ff ff 00
	00		 and	 ecx, 65535		; 0000ffffH
  02150	c1 e1 10	 shl	 ecx, 16			; 00000010H
  02153	51		 push	 ecx
  02154	6a 00		 push	 0
  02156	68 01 04 00 00	 push	 1025			; 00000401H
  0215b	8b 15 00 00 00
	00		 mov	 edx, DWORD PTR ?GuildListhPrs@@3PAUHWND__@@A ; GuildListhPrs
  02161	52		 push	 edx
  02162	ff 15 00 00 00
	00		 call	 DWORD PTR __imp__SendMessageA@16

; 984  : 				gGuildListTotal = lpMsg->Count;

  02168	8b 45 08	 mov	 eax, DWORD PTR _lpMsg$[ebp]
  0216b	8b 48 04	 mov	 ecx, DWORD PTR [eax+4]
  0216e	89 0d 00 00 00
	00		 mov	 DWORD PTR ?gGuildListTotal@@3HA, ecx ; gGuildListTotal

; 985  : 				SendMessage(GuildListhPrs, 0x404, 1, 0);

  02174	6a 00		 push	 0
  02176	6a 01		 push	 1
  02178	68 04 04 00 00	 push	 1028			; 00000404H
  0217d	a1 00 00 00 00	 mov	 eax, DWORD PTR ?GuildListhPrs@@3PAUHWND__@@A ; GuildListhPrs
  02182	50		 push	 eax
  02183	ff 15 00 00 00
	00		 call	 DWORD PTR __imp__SendMessageA@16

; 986  : 				gGuildListCount = 0;

  02189	c7 05 00 00 00
	00 00 00 00 00	 mov	 DWORD PTR ?gGuildListCount@@3HA, 0 ; gGuildListCount

; 987  : 				GameServerInfoSendStop();

  02193	e8 00 00 00 00	 call	 ?GameServerInfoSendStop@@YAXXZ ; GameServerInfoSendStop
$LN3@DGGuildLis@2:

; 988  : 			}
; 989  : 			break;

  02198	eb 2d		 jmp	 SHORT $LN7@DGGuildLis@2
$LN2@DGGuildLis@2:

; 990  : 
; 991  : 		case 1:
; 992  : 			if ( IsWindow(GuildListhDlg) != FALSE )

  0219a	a1 00 00 00 00	 mov	 eax, DWORD PTR ?GuildListhDlg@@3PAUHWND__@@A ; GuildListhDlg
  0219f	50		 push	 eax
  021a0	ff 15 00 00 00
	00		 call	 DWORD PTR __imp__IsWindow@4
  021a6	85 c0		 test	 eax, eax
  021a8	74 1d		 je	 SHORT $LN7@DGGuildLis@2

; 993  : 			{
; 994  : 				EndDialog(GuildListhDlg, 0);

  021aa	6a 00		 push	 0
  021ac	a1 00 00 00 00	 mov	 eax, DWORD PTR ?GuildListhDlg@@3PAUHWND__@@A ; GuildListhDlg
  021b1	50		 push	 eax
  021b2	ff 15 00 00 00
	00		 call	 DWORD PTR __imp__EndDialog@8

; 995  : 				GameServerInfoSendStart();

  021b8	e8 00 00 00 00	 call	 ?GameServerInfoSendStart@@YAXXZ ; GameServerInfoSendStart

; 996  : 				GuildListhDlg = NULL;

  021bd	c7 05 00 00 00
	00 00 00 00 00	 mov	 DWORD PTR ?GuildListhDlg@@3PAUHWND__@@A, 0 ; GuildListhDlg
$LN7@DGGuildLis@2:

; 997  : 			}
; 998  : 			break;
; 999  : 	}
; 1000 : 
; 1001 : }

  021c7	5f		 pop	 edi
  021c8	5e		 pop	 esi
  021c9	5b		 pop	 ebx
  021ca	8b e5		 mov	 esp, ebp
  021cc	5d		 pop	 ebp
  021cd	c3		 ret	 0
?DGGuildListState@@YAXPAUSDHP_GUILDLISTSTATE@@@Z ENDP	; DGGuildListState
_TEXT	ENDS
PUBLIC	__$ArrayPad$
PUBLIC	?GDGuildServerGroupChattingSend@@YAXHPAUPMSG_CHATDATA@@@Z ; GDGuildServerGroupChattingSend
; Function compile flags: /Odtp /ZI
_TEXT	SEGMENT
_pMsg$ = -84						; size = 80
__$ArrayPad$ = -4					; size = 4
_iGuildNum$ = 8						; size = 4
_lpChatData$ = 12					; size = 4
?GDGuildServerGroupChattingSend@@YAXHPAUPMSG_CHATDATA@@@Z PROC ; GDGuildServerGroupChattingSend

; 1012 : {

  021d0	55		 push	 ebp
  021d1	8b ec		 mov	 ebp, esp
  021d3	81 ec 94 00 00
	00		 sub	 esp, 148		; 00000094H
  021d9	a1 00 00 00 00	 mov	 eax, DWORD PTR ___security_cookie
  021de	33 c5		 xor	 eax, ebp
  021e0	89 45 fc	 mov	 DWORD PTR __$ArrayPad$[ebp], eax
  021e3	53		 push	 ebx
  021e4	56		 push	 esi
  021e5	57		 push	 edi

; 1013 : 	EXSDHP_SERVERGROUP_GUILD_CHATTING_SEND pMsg = {0};

  021e6	c6 45 ac 00	 mov	 BYTE PTR _pMsg$[ebp], 0
  021ea	6a 4f		 push	 79			; 0000004fH
  021ec	6a 00		 push	 0
  021ee	8d 45 ad	 lea	 eax, DWORD PTR _pMsg$[ebp+1]
  021f1	50		 push	 eax
  021f2	e8 00 00 00 00	 call	 _memset
  021f7	83 c4 0c	 add	 esp, 12			; 0000000cH

; 1014 : 
; 1015 : 	pMsg.h.set((LPBYTE)&pMsg, 0x50, sizeof(EXSDHP_SERVERGROUP_GUILD_CHATTING_SEND));

  021fa	6a 50		 push	 80			; 00000050H
  021fc	6a 50		 push	 80			; 00000050H
  021fe	8d 45 ac	 lea	 eax, DWORD PTR _pMsg$[ebp]
  02201	50		 push	 eax
  02202	8d 4d ac	 lea	 ecx, DWORD PTR _pMsg$[ebp]
  02205	e8 00 00 00 00	 call	 ?set@PBMSG_HEAD@@QAEXPAEEE@Z ; PBMSG_HEAD::set

; 1016 : 	pMsg.iGuildNum = iGuildNum;

  0220a	8b 45 08	 mov	 eax, DWORD PTR _iGuildNum$[ebp]
  0220d	89 45 b0	 mov	 DWORD PTR _pMsg$[ebp+4], eax

; 1017 : 	memcpy(pMsg.szCharacterName, lpChatData->chatid, sizeof(pMsg.szCharacterName));

  02210	6a 0a		 push	 10			; 0000000aH
  02212	8b 45 0c	 mov	 eax, DWORD PTR _lpChatData$[ebp]
  02215	83 c0 03	 add	 eax, 3
  02218	50		 push	 eax
  02219	8d 4d b4	 lea	 ecx, DWORD PTR _pMsg$[ebp+8]
  0221c	51		 push	 ecx
  0221d	e8 00 00 00 00	 call	 _memcpy
  02222	83 c4 0c	 add	 esp, 12			; 0000000cH

; 1018 : 	memcpy(pMsg.szChattingMsg, lpChatData->chatmsg, sizeof(pMsg.szChattingMsg));

  02225	6a 3c		 push	 60			; 0000003cH
  02227	8b 45 0c	 mov	 eax, DWORD PTR _lpChatData$[ebp]
  0222a	83 c0 0d	 add	 eax, 13			; 0000000dH
  0222d	50		 push	 eax
  0222e	8d 4d be	 lea	 ecx, DWORD PTR _pMsg$[ebp+18]
  02231	51		 push	 ecx
  02232	e8 00 00 00 00	 call	 _memcpy
  02237	83 c4 0c	 add	 esp, 12			; 0000000cH

; 1019 : 
; 1020 : 	wsExDbCli.DataSend((char*)&pMsg, pMsg.h.size);

  0223a	0f b6 45 ad	 movzx	 eax, BYTE PTR _pMsg$[ebp+1]
  0223e	50		 push	 eax
  0223f	8d 4d ac	 lea	 ecx, DWORD PTR _pMsg$[ebp]
  02242	51		 push	 ecx
  02243	b9 00 00 00 00	 mov	 ecx, OFFSET ?wsExDbCli@@3VwsJoinServerCli@@A ; wsExDbCli
  02248	e8 00 00 00 00	 call	 ?DataSend@wsJoinServerCli@@QAEHPADH@Z ; wsJoinServerCli::DataSend

; 1021 : }

  0224d	5f		 pop	 edi
  0224e	5e		 pop	 esi
  0224f	5b		 pop	 ebx
  02250	8b 4d fc	 mov	 ecx, DWORD PTR __$ArrayPad$[ebp]
  02253	33 cd		 xor	 ecx, ebp
  02255	e8 00 00 00 00	 call	 @__security_check_cookie@4
  0225a	8b e5		 mov	 esp, ebp
  0225c	5d		 pop	 ebp
  0225d	c3		 ret	 0
?GDGuildServerGroupChattingSend@@YAXHPAUPMSG_CHATDATA@@@Z ENDP ; GDGuildServerGroupChattingSend
_TEXT	ENDS
PUBLIC	__$ArrayPad$
; Function compile flags: /Odtp /ZI
_TEXT	SEGMENT
_i$232399 = -120					; size = 4
_iUserIndex$ = -116					; size = 4
_lpGuildInfo$ = -112					; size = 4
_pMsg$ = -108						; size = 102
__$ArrayPad$ = -4					; size = 4
_lpMsg$ = 8						; size = 4
?DGGuildServerGroupChattingRecv@@YAXPAUEXSDHP_SERVERGROUP_GUILD_CHATTING_RECV@@@Z PROC ; DGGuildServerGroupChattingRecv

; 1024 : {

  02260	55		 push	 ebp
  02261	8b ec		 mov	 ebp, esp
  02263	81 ec b8 00 00
	00		 sub	 esp, 184		; 000000b8H
  02269	a1 00 00 00 00	 mov	 eax, DWORD PTR ___security_cookie
  0226e	33 c5		 xor	 eax, ebp
  02270	89 45 fc	 mov	 DWORD PTR __$ArrayPad$[ebp], eax
  02273	53		 push	 ebx
  02274	56		 push	 esi
  02275	57		 push	 edi

; 1025 : 	PMSG_CHATDATA pMsg ={0};

  02276	c6 45 94 00	 mov	 BYTE PTR _pMsg$[ebp], 0
  0227a	6a 65		 push	 101			; 00000065H
  0227c	6a 00		 push	 0
  0227e	8d 45 95	 lea	 eax, DWORD PTR _pMsg$[ebp+1]
  02281	50		 push	 eax
  02282	e8 00 00 00 00	 call	 _memset
  02287	83 c4 0c	 add	 esp, 12			; 0000000cH

; 1026 : 
; 1027 : 	pMsg.h.set((LPBYTE)&pMsg, 0x00, sizeof(pMsg));

  0228a	6a 66		 push	 102			; 00000066H
  0228c	6a 00		 push	 0
  0228e	8d 45 94	 lea	 eax, DWORD PTR _pMsg$[ebp]
  02291	50		 push	 eax
  02292	8d 4d 94	 lea	 ecx, DWORD PTR _pMsg$[ebp]
  02295	e8 00 00 00 00	 call	 ?set@PBMSG_HEAD@@QAEXPAEEE@Z ; PBMSG_HEAD::set

; 1028 : 	memcpy(pMsg.chatid, lpMsg->szCharacterName, sizeof(pMsg.chatid));

  0229a	6a 0a		 push	 10			; 0000000aH
  0229c	8b 45 08	 mov	 eax, DWORD PTR _lpMsg$[ebp]
  0229f	83 c0 08	 add	 eax, 8
  022a2	50		 push	 eax
  022a3	8d 4d 97	 lea	 ecx, DWORD PTR _pMsg$[ebp+3]
  022a6	51		 push	 ecx
  022a7	e8 00 00 00 00	 call	 _memcpy
  022ac	83 c4 0c	 add	 esp, 12			; 0000000cH

; 1029 : 	memcpy(pMsg.chatmsg, lpMsg->szChattingMsg, sizeof(pMsg.chatmsg));

  022af	6a 59		 push	 89			; 00000059H
  022b1	8b 45 08	 mov	 eax, DWORD PTR _lpMsg$[ebp]
  022b4	83 c0 12	 add	 eax, 18			; 00000012H
  022b7	50		 push	 eax
  022b8	8d 4d a1	 lea	 ecx, DWORD PTR _pMsg$[ebp+13]
  022bb	51		 push	 ecx
  022bc	e8 00 00 00 00	 call	 _memcpy
  022c1	83 c4 0c	 add	 esp, 12			; 0000000cH

; 1030 : 	_GUILD_INFO_STRUCT * lpGuildInfo = Guild.SearchGuild_Number(lpMsg->iGuildNum);

  022c4	8b 45 08	 mov	 eax, DWORD PTR _lpMsg$[ebp]
  022c7	8b 48 04	 mov	 ecx, DWORD PTR [eax+4]
  022ca	51		 push	 ecx
  022cb	b9 00 00 00 00	 mov	 ecx, OFFSET ?Guild@@3VCGuildClass@@A ; Guild
  022d0	e8 00 00 00 00	 call	 ?SearchGuild_Number@CGuildClass@@QAEPAU_GUILD_INFO_STRUCT@@H@Z ; CGuildClass::SearchGuild_Number
  022d5	89 45 90	 mov	 DWORD PTR _lpGuildInfo$[ebp], eax

; 1031 : 
; 1032 : 	if ( lpGuildInfo == NULL )

  022d8	83 7d 90 00	 cmp	 DWORD PTR _lpGuildInfo$[ebp], 0
  022dc	75 05		 jne	 SHORT $LN9@DGGuildSer

; 1033 : 		return;

  022de	e9 cc 00 00 00	 jmp	 $LN10@DGGuildSer
$LN9@DGGuildSer:

; 1034 : 
; 1035 : 	int iUserIndex = -1;

  022e3	c7 45 8c ff ff
	ff ff		 mov	 DWORD PTR _iUserIndex$[ebp], -1

; 1036 : 
; 1037 : 	if ( lpGuildInfo->Count >= 0 )

  022ea	8b 45 90	 mov	 eax, DWORD PTR _lpGuildInfo$[ebp]
  022ed	0f b6 48 2d	 movzx	 ecx, BYTE PTR [eax+45]
  022f1	85 c9		 test	 ecx, ecx
  022f3	0f 8c b6 00 00
	00		 jl	 $LN10@DGGuildSer

; 1038 : 	{
; 1039 : 		for ( int i=0;i<MAX_USER_GUILD;i++)

  022f9	c7 45 88 00 00
	00 00		 mov	 DWORD PTR _i$232399[ebp], 0
  02300	eb 09		 jmp	 SHORT $LN7@DGGuildSer
$LN6@DGGuildSer:
  02302	8b 45 88	 mov	 eax, DWORD PTR _i$232399[ebp]
  02305	83 c0 01	 add	 eax, 1
  02308	89 45 88	 mov	 DWORD PTR _i$232399[ebp], eax
$LN7@DGGuildSer:
  0230b	83 7d 88 50	 cmp	 DWORD PTR _i$232399[ebp], 80 ; 00000050H
  0230f	0f 8d 9a 00 00
	00		 jge	 $LN10@DGGuildSer

; 1040 : 		{
; 1041 : 			if ( lpGuildInfo->Use[i] != FALSE )

  02315	8b 45 90	 mov	 eax, DWORD PTR _lpGuildInfo$[ebp]
  02318	03 45 88	 add	 eax, DWORD PTR _i$232399[ebp]
  0231b	0f b6 88 40 04
	00 00		 movzx	 ecx, BYTE PTR [eax+1088]
  02322	85 c9		 test	 ecx, ecx
  02324	0f 84 80 00 00
	00		 je	 $LN4@DGGuildSer

; 1042 : 			{
; 1043 : 				iUserIndex = lpGuildInfo->Index[i];

  0232a	8b 45 88	 mov	 eax, DWORD PTR _i$232399[ebp]
  0232d	8b 4d 90	 mov	 ecx, DWORD PTR _lpGuildInfo$[ebp]
  02330	0f bf 94 41 a0
	03 00 00	 movsx	 edx, WORD PTR [ecx+eax*2+928]
  02338	89 55 8c	 mov	 DWORD PTR _iUserIndex$[ebp], edx

; 1044 : 
; 1045 : 				if ( iUserIndex >= 0 )

  0233b	83 7d 8c 00	 cmp	 DWORD PTR _iUserIndex$[ebp], 0
  0233f	7c 69		 jl	 SHORT $LN4@DGGuildSer

; 1046 : 				{
; 1047 : 					if ( lpGuildInfo->Names[i][0] == gObj[iUserIndex].Name[0] )

  02341	8b 45 88	 mov	 eax, DWORD PTR _i$232399[ebp]
  02344	6b c0 0b	 imul	 eax, 11			; 0000000bH
  02347	8b 4d 90	 mov	 ecx, DWORD PTR _lpGuildInfo$[ebp]
  0234a	0f be 54 01 2f	 movsx	 edx, BYTE PTR [ecx+eax+47]
  0234f	8b 45 8c	 mov	 eax, DWORD PTR _iUserIndex$[ebp]
  02352	69 c0 38 2b 00
	00		 imul	 eax, 11064		; 00002b38H
  02358	8b 0d 00 00 00
	00		 mov	 ecx, DWORD PTR ?gObj@@3PAUOBJECTSTRUCT@@A ; gObj
  0235e	0f be 44 01 77	 movsx	 eax, BYTE PTR [ecx+eax+119]
  02363	3b d0		 cmp	 edx, eax
  02365	75 43		 jne	 SHORT $LN4@DGGuildSer

; 1048 : 					{
; 1049 : 						if ( !strcmp(lpGuildInfo->Names[i], gObj[iUserIndex].Name ))

  02367	8b 45 8c	 mov	 eax, DWORD PTR _iUserIndex$[ebp]
  0236a	69 c0 38 2b 00
	00		 imul	 eax, 11064		; 00002b38H
  02370	8b 0d 00 00 00
	00		 mov	 ecx, DWORD PTR ?gObj@@3PAUOBJECTSTRUCT@@A ; gObj
  02376	8d 54 01 77	 lea	 edx, DWORD PTR [ecx+eax+119]
  0237a	52		 push	 edx
  0237b	8b 45 88	 mov	 eax, DWORD PTR _i$232399[ebp]
  0237e	6b c0 0b	 imul	 eax, 11			; 0000000bH
  02381	8b 4d 90	 mov	 ecx, DWORD PTR _lpGuildInfo$[ebp]
  02384	8d 54 01 2f	 lea	 edx, DWORD PTR [ecx+eax+47]
  02388	52		 push	 edx
  02389	e8 00 00 00 00	 call	 _strcmp
  0238e	83 c4 08	 add	 esp, 8
  02391	85 c0		 test	 eax, eax
  02393	75 15		 jne	 SHORT $LN4@DGGuildSer

; 1050 : 						{
; 1051 : 							DataSend(iUserIndex, (LPBYTE)&pMsg, pMsg.h.size);

  02395	0f b6 45 95	 movzx	 eax, BYTE PTR _pMsg$[ebp+1]
  02399	50		 push	 eax
  0239a	8d 4d 94	 lea	 ecx, DWORD PTR _pMsg$[ebp]
  0239d	51		 push	 ecx
  0239e	8b 55 8c	 mov	 edx, DWORD PTR _iUserIndex$[ebp]
  023a1	52		 push	 edx
  023a2	e8 00 00 00 00	 call	 ?DataSend@@YAHHPAEK@Z	; DataSend
  023a7	83 c4 0c	 add	 esp, 12			; 0000000cH
$LN4@DGGuildSer:

; 1052 : 						}
; 1053 : 					}
; 1054 : 				}
; 1055 : 			}
; 1056 : 		}

  023aa	e9 53 ff ff ff	 jmp	 $LN6@DGGuildSer
$LN10@DGGuildSer:

; 1057 : 	}
; 1058 : }

  023af	5f		 pop	 edi
  023b0	5e		 pop	 esi
  023b1	5b		 pop	 ebx
  023b2	8b 4d fc	 mov	 ecx, DWORD PTR __$ArrayPad$[ebp]
  023b5	33 cd		 xor	 ecx, ebp
  023b7	e8 00 00 00 00	 call	 @__security_check_cookie@4
  023bc	8b e5		 mov	 esp, ebp
  023be	5d		 pop	 ebp
  023bf	c3		 ret	 0
?DGGuildServerGroupChattingRecv@@YAXPAUEXSDHP_SERVERGROUP_GUILD_CHATTING_RECV@@@Z ENDP ; DGGuildServerGroupChattingRecv
_TEXT	ENDS
PUBLIC	__$ArrayPad$
PUBLIC	?GDUnionServerGroupChattingSend@@YAXHPAUPMSG_CHATDATA@@@Z ; GDUnionServerGroupChattingSend
; Function compile flags: /Odtp /ZI
_TEXT	SEGMENT
_pMsg$ = -84						; size = 80
__$ArrayPad$ = -4					; size = 4
_iUnionNum$ = 8						; size = 4
_lpChatData$ = 12					; size = 4
?GDUnionServerGroupChattingSend@@YAXHPAUPMSG_CHATDATA@@@Z PROC ; GDUnionServerGroupChattingSend

; 1069 : {

  023c0	55		 push	 ebp
  023c1	8b ec		 mov	 ebp, esp
  023c3	81 ec 94 00 00
	00		 sub	 esp, 148		; 00000094H
  023c9	a1 00 00 00 00	 mov	 eax, DWORD PTR ___security_cookie
  023ce	33 c5		 xor	 eax, ebp
  023d0	89 45 fc	 mov	 DWORD PTR __$ArrayPad$[ebp], eax
  023d3	53		 push	 ebx
  023d4	56		 push	 esi
  023d5	57		 push	 edi

; 1070 : 	EXSDHP_SERVERGROUP_UNION_CHATTING_SEND pMsg = {0};

  023d6	c6 45 ac 00	 mov	 BYTE PTR _pMsg$[ebp], 0
  023da	6a 4f		 push	 79			; 0000004fH
  023dc	6a 00		 push	 0
  023de	8d 45 ad	 lea	 eax, DWORD PTR _pMsg$[ebp+1]
  023e1	50		 push	 eax
  023e2	e8 00 00 00 00	 call	 _memset
  023e7	83 c4 0c	 add	 esp, 12			; 0000000cH

; 1071 : 
; 1072 : 	pMsg.h.set((LPBYTE)&pMsg, 0x51, sizeof(pMsg));

  023ea	6a 50		 push	 80			; 00000050H
  023ec	6a 51		 push	 81			; 00000051H
  023ee	8d 45 ac	 lea	 eax, DWORD PTR _pMsg$[ebp]
  023f1	50		 push	 eax
  023f2	8d 4d ac	 lea	 ecx, DWORD PTR _pMsg$[ebp]
  023f5	e8 00 00 00 00	 call	 ?set@PBMSG_HEAD@@QAEXPAEEE@Z ; PBMSG_HEAD::set

; 1073 : 	pMsg.iUnionNum = iUnionNum;

  023fa	8b 45 08	 mov	 eax, DWORD PTR _iUnionNum$[ebp]
  023fd	89 45 b0	 mov	 DWORD PTR _pMsg$[ebp+4], eax

; 1074 : 	memcpy(pMsg.szCharacterName, lpChatData->chatid, sizeof(pMsg.szCharacterName));

  02400	6a 0a		 push	 10			; 0000000aH
  02402	8b 45 0c	 mov	 eax, DWORD PTR _lpChatData$[ebp]
  02405	83 c0 03	 add	 eax, 3
  02408	50		 push	 eax
  02409	8d 4d b4	 lea	 ecx, DWORD PTR _pMsg$[ebp+8]
  0240c	51		 push	 ecx
  0240d	e8 00 00 00 00	 call	 _memcpy
  02412	83 c4 0c	 add	 esp, 12			; 0000000cH

; 1075 : 	memcpy(pMsg.szChattingMsg, lpChatData->chatmsg, sizeof(pMsg.szChattingMsg));

  02415	6a 3c		 push	 60			; 0000003cH
  02417	8b 45 0c	 mov	 eax, DWORD PTR _lpChatData$[ebp]
  0241a	83 c0 0d	 add	 eax, 13			; 0000000dH
  0241d	50		 push	 eax
  0241e	8d 4d be	 lea	 ecx, DWORD PTR _pMsg$[ebp+18]
  02421	51		 push	 ecx
  02422	e8 00 00 00 00	 call	 _memcpy
  02427	83 c4 0c	 add	 esp, 12			; 0000000cH

; 1076 : 
; 1077 : 	wsExDbCli.DataSend((char*)&pMsg, pMsg.h.size);

  0242a	0f b6 45 ad	 movzx	 eax, BYTE PTR _pMsg$[ebp+1]
  0242e	50		 push	 eax
  0242f	8d 4d ac	 lea	 ecx, DWORD PTR _pMsg$[ebp]
  02432	51		 push	 ecx
  02433	b9 00 00 00 00	 mov	 ecx, OFFSET ?wsExDbCli@@3VwsJoinServerCli@@A ; wsExDbCli
  02438	e8 00 00 00 00	 call	 ?DataSend@wsJoinServerCli@@QAEHPADH@Z ; wsJoinServerCli::DataSend

; 1078 : }

  0243d	5f		 pop	 edi
  0243e	5e		 pop	 esi
  0243f	5b		 pop	 ebx
  02440	8b 4d fc	 mov	 ecx, DWORD PTR __$ArrayPad$[ebp]
  02443	33 cd		 xor	 ecx, ebp
  02445	e8 00 00 00 00	 call	 @__security_check_cookie@4
  0244a	8b e5		 mov	 esp, ebp
  0244c	5d		 pop	 ebp
  0244d	c3		 ret	 0
?GDUnionServerGroupChattingSend@@YAXHPAUPMSG_CHATDATA@@@Z ENDP ; GDUnionServerGroupChattingSend
_TEXT	ENDS
PUBLIC	__$ArrayPad$
EXTRN	?GetGuildUnionMemberList@TUnion@@QAEHHAAHPAH@Z:PROC ; TUnion::GetGuildUnionMemberList
; Function compile flags: /Odtp /ZI
_TEXT	SEGMENT
_n$232442 = -532					; size = 4
_lpGuildInfo$232440 = -528				; size = 4
_i$232436 = -524					; size = 4
_iUserIndex$232435 = -520				; size = 4
_iGuildList$ = -516					; size = 400
_iGuildCount$ = -116					; size = 4
_iUnionNum$ = -112					; size = 4
_pMsg$ = -108						; size = 102
__$ArrayPad$ = -4					; size = 4
_lpMsg$ = 8						; size = 4
?DGUnionServerGroupChattingRecv@@YAXPAUEXSDHP_SERVERGROUP_UNION_CHATTING_RECV@@@Z PROC ; DGUnionServerGroupChattingRecv

; 1081 : {

  02450	55		 push	 ebp
  02451	8b ec		 mov	 ebp, esp
  02453	81 ec 54 02 00
	00		 sub	 esp, 596		; 00000254H
  02459	a1 00 00 00 00	 mov	 eax, DWORD PTR ___security_cookie
  0245e	33 c5		 xor	 eax, ebp
  02460	89 45 fc	 mov	 DWORD PTR __$ArrayPad$[ebp], eax
  02463	53		 push	 ebx
  02464	56		 push	 esi
  02465	57		 push	 edi

; 1082 : 	PMSG_CHATDATA pMsg ={0};

  02466	c6 45 94 00	 mov	 BYTE PTR _pMsg$[ebp], 0
  0246a	6a 65		 push	 101			; 00000065H
  0246c	6a 00		 push	 0
  0246e	8d 45 95	 lea	 eax, DWORD PTR _pMsg$[ebp+1]
  02471	50		 push	 eax
  02472	e8 00 00 00 00	 call	 _memset
  02477	83 c4 0c	 add	 esp, 12			; 0000000cH

; 1083 : 
; 1084 : 	pMsg.h.set((LPBYTE)&pMsg, 0x00, sizeof(pMsg));

  0247a	6a 66		 push	 102			; 00000066H
  0247c	6a 00		 push	 0
  0247e	8d 45 94	 lea	 eax, DWORD PTR _pMsg$[ebp]
  02481	50		 push	 eax
  02482	8d 4d 94	 lea	 ecx, DWORD PTR _pMsg$[ebp]
  02485	e8 00 00 00 00	 call	 ?set@PBMSG_HEAD@@QAEXPAEEE@Z ; PBMSG_HEAD::set

; 1085 : 	memcpy(pMsg.chatid, lpMsg->szCharacterName, sizeof(pMsg.chatid));

  0248a	6a 0a		 push	 10			; 0000000aH
  0248c	8b 45 08	 mov	 eax, DWORD PTR _lpMsg$[ebp]
  0248f	83 c0 08	 add	 eax, 8
  02492	50		 push	 eax
  02493	8d 4d 97	 lea	 ecx, DWORD PTR _pMsg$[ebp+3]
  02496	51		 push	 ecx
  02497	e8 00 00 00 00	 call	 _memcpy
  0249c	83 c4 0c	 add	 esp, 12			; 0000000cH

; 1086 : 	memcpy(pMsg.chatmsg, lpMsg->szChattingMsg, sizeof(pMsg.chatmsg));

  0249f	6a 59		 push	 89			; 00000059H
  024a1	8b 45 08	 mov	 eax, DWORD PTR _lpMsg$[ebp]
  024a4	83 c0 12	 add	 eax, 18			; 00000012H
  024a7	50		 push	 eax
  024a8	8d 4d a1	 lea	 ecx, DWORD PTR _pMsg$[ebp+13]
  024ab	51		 push	 ecx
  024ac	e8 00 00 00 00	 call	 _memcpy
  024b1	83 c4 0c	 add	 esp, 12			; 0000000cH

; 1087 : 	int iUnionNum = lpMsg->iUnionNum;

  024b4	8b 45 08	 mov	 eax, DWORD PTR _lpMsg$[ebp]
  024b7	8b 48 04	 mov	 ecx, DWORD PTR [eax+4]
  024ba	89 4d 90	 mov	 DWORD PTR _iUnionNum$[ebp], ecx

; 1088 : 	int iGuildCount =0;

  024bd	c7 45 8c 00 00
	00 00		 mov	 DWORD PTR _iGuildCount$[ebp], 0

; 1089 : 	int iGuildList[100] ={0};

  024c4	c7 85 fc fd ff
	ff 00 00 00 00	 mov	 DWORD PTR _iGuildList$[ebp], 0
  024ce	68 8c 01 00 00	 push	 396			; 0000018cH
  024d3	6a 00		 push	 0
  024d5	8d 85 00 fe ff
	ff		 lea	 eax, DWORD PTR _iGuildList$[ebp+4]
  024db	50		 push	 eax
  024dc	e8 00 00 00 00	 call	 _memset
  024e1	83 c4 0c	 add	 esp, 12			; 0000000cH

; 1090 : 
; 1091 : 	if ( UnionManager.GetGuildUnionMemberList(iUnionNum, iGuildCount, iGuildList) == TRUE)

  024e4	8d 85 fc fd ff
	ff		 lea	 eax, DWORD PTR _iGuildList$[ebp]
  024ea	50		 push	 eax
  024eb	8d 4d 8c	 lea	 ecx, DWORD PTR _iGuildCount$[ebp]
  024ee	51		 push	 ecx
  024ef	8b 55 90	 mov	 edx, DWORD PTR _iUnionNum$[ebp]
  024f2	52		 push	 edx
  024f3	b9 00 00 00 00	 mov	 ecx, OFFSET ?UnionManager@@3VTUnion@@A ; UnionManager
  024f8	e8 00 00 00 00	 call	 ?GetGuildUnionMemberList@TUnion@@QAEHHAAHPAH@Z ; TUnion::GetGuildUnionMemberList
  024fd	83 f8 01	 cmp	 eax, 1
  02500	0f 85 4b 01 00
	00		 jne	 $LN13@DGUnionSer

; 1092 : 	{
; 1093 : 		int iUserIndex = -1;

  02506	c7 85 f8 fd ff
	ff ff ff ff ff	 mov	 DWORD PTR _iUserIndex$232435[ebp], -1

; 1094 : 
; 1095 : 		for ( int i=0;i<iGuildCount;i++)

  02510	c7 85 f4 fd ff
	ff 00 00 00 00	 mov	 DWORD PTR _i$232436[ebp], 0
  0251a	eb 0f		 jmp	 SHORT $LN11@DGUnionSer
$LN10@DGUnionSer:
  0251c	8b 85 f4 fd ff
	ff		 mov	 eax, DWORD PTR _i$232436[ebp]
  02522	83 c0 01	 add	 eax, 1
  02525	89 85 f4 fd ff
	ff		 mov	 DWORD PTR _i$232436[ebp], eax
$LN11@DGUnionSer:
  0252b	8b 85 f4 fd ff
	ff		 mov	 eax, DWORD PTR _i$232436[ebp]
  02531	3b 45 8c	 cmp	 eax, DWORD PTR _iGuildCount$[ebp]
  02534	0f 8d 17 01 00
	00		 jge	 $LN13@DGUnionSer

; 1096 : 		{
; 1097 : 			_GUILD_INFO_STRUCT * lpGuildInfo = Guild.SearchGuild_Number(iGuildList[i]);

  0253a	8b 85 f4 fd ff
	ff		 mov	 eax, DWORD PTR _i$232436[ebp]
  02540	8b 8c 85 fc fd
	ff ff		 mov	 ecx, DWORD PTR _iGuildList$[ebp+eax*4]
  02547	51		 push	 ecx
  02548	b9 00 00 00 00	 mov	 ecx, OFFSET ?Guild@@3VCGuildClass@@A ; Guild
  0254d	e8 00 00 00 00	 call	 ?SearchGuild_Number@CGuildClass@@QAEPAU_GUILD_INFO_STRUCT@@H@Z ; CGuildClass::SearchGuild_Number
  02552	89 85 f0 fd ff
	ff		 mov	 DWORD PTR _lpGuildInfo$232440[ebp], eax

; 1098 : 
; 1099 : 			if ( lpGuildInfo == NULL )

  02558	83 bd f0 fd ff
	ff 00		 cmp	 DWORD PTR _lpGuildInfo$232440[ebp], 0
  0255f	75 02		 jne	 SHORT $LN8@DGUnionSer

; 1100 : 				continue;

  02561	eb b9		 jmp	 SHORT $LN10@DGUnionSer
$LN8@DGUnionSer:

; 1101 : 
; 1102 : 			for ( int n=0;n<MAX_USER_GUILD;n++)

  02563	c7 85 ec fd ff
	ff 00 00 00 00	 mov	 DWORD PTR _n$232442[ebp], 0
  0256d	eb 0f		 jmp	 SHORT $LN7@DGUnionSer
$LN6@DGUnionSer:
  0256f	8b 85 ec fd ff
	ff		 mov	 eax, DWORD PTR _n$232442[ebp]
  02575	83 c0 01	 add	 eax, 1
  02578	89 85 ec fd ff
	ff		 mov	 DWORD PTR _n$232442[ebp], eax
$LN7@DGUnionSer:
  0257e	83 bd ec fd ff
	ff 50		 cmp	 DWORD PTR _n$232442[ebp], 80 ; 00000050H
  02585	0f 8d c1 00 00
	00		 jge	 $LN5@DGUnionSer

; 1103 : 			{
; 1104 : 				if ( lpGuildInfo->Use[n] != FALSE )

  0258b	8b 85 f0 fd ff
	ff		 mov	 eax, DWORD PTR _lpGuildInfo$232440[ebp]
  02591	03 85 ec fd ff
	ff		 add	 eax, DWORD PTR _n$232442[ebp]
  02597	0f b6 88 40 04
	00 00		 movzx	 ecx, BYTE PTR [eax+1088]
  0259e	85 c9		 test	 ecx, ecx
  025a0	0f 84 a1 00 00
	00		 je	 $LN4@DGUnionSer

; 1105 : 				{
; 1106 : 					iUserIndex = lpGuildInfo->Index[n];

  025a6	8b 85 ec fd ff
	ff		 mov	 eax, DWORD PTR _n$232442[ebp]
  025ac	8b 8d f0 fd ff
	ff		 mov	 ecx, DWORD PTR _lpGuildInfo$232440[ebp]
  025b2	0f bf 94 41 a0
	03 00 00	 movsx	 edx, WORD PTR [ecx+eax*2+928]
  025ba	89 95 f8 fd ff
	ff		 mov	 DWORD PTR _iUserIndex$232435[ebp], edx

; 1107 : 
; 1108 : 					if ( iUserIndex >= 0 )

  025c0	83 bd f8 fd ff
	ff 00		 cmp	 DWORD PTR _iUserIndex$232435[ebp], 0
  025c7	7c 7e		 jl	 SHORT $LN4@DGUnionSer

; 1109 : 					{
; 1110 : 						if ( lpGuildInfo->Names[n][0] == gObj[iUserIndex].Name[0] )

  025c9	8b 85 ec fd ff
	ff		 mov	 eax, DWORD PTR _n$232442[ebp]
  025cf	6b c0 0b	 imul	 eax, 11			; 0000000bH
  025d2	8b 8d f0 fd ff
	ff		 mov	 ecx, DWORD PTR _lpGuildInfo$232440[ebp]
  025d8	0f be 54 01 2f	 movsx	 edx, BYTE PTR [ecx+eax+47]
  025dd	8b 85 f8 fd ff
	ff		 mov	 eax, DWORD PTR _iUserIndex$232435[ebp]
  025e3	69 c0 38 2b 00
	00		 imul	 eax, 11064		; 00002b38H
  025e9	8b 0d 00 00 00
	00		 mov	 ecx, DWORD PTR ?gObj@@3PAUOBJECTSTRUCT@@A ; gObj
  025ef	0f be 44 01 77	 movsx	 eax, BYTE PTR [ecx+eax+119]
  025f4	3b d0		 cmp	 edx, eax
  025f6	75 4f		 jne	 SHORT $LN4@DGUnionSer

; 1111 : 						{
; 1112 : 							if ( !strcmp(lpGuildInfo->Names[n], gObj[iUserIndex].Name ))

  025f8	8b 85 f8 fd ff
	ff		 mov	 eax, DWORD PTR _iUserIndex$232435[ebp]
  025fe	69 c0 38 2b 00
	00		 imul	 eax, 11064		; 00002b38H
  02604	8b 0d 00 00 00
	00		 mov	 ecx, DWORD PTR ?gObj@@3PAUOBJECTSTRUCT@@A ; gObj
  0260a	8d 54 01 77	 lea	 edx, DWORD PTR [ecx+eax+119]
  0260e	52		 push	 edx
  0260f	8b 85 ec fd ff
	ff		 mov	 eax, DWORD PTR _n$232442[ebp]
  02615	6b c0 0b	 imul	 eax, 11			; 0000000bH
  02618	8b 8d f0 fd ff
	ff		 mov	 ecx, DWORD PTR _lpGuildInfo$232440[ebp]
  0261e	8d 54 01 2f	 lea	 edx, DWORD PTR [ecx+eax+47]
  02622	52		 push	 edx
  02623	e8 00 00 00 00	 call	 _strcmp
  02628	83 c4 08	 add	 esp, 8
  0262b	85 c0		 test	 eax, eax
  0262d	75 18		 jne	 SHORT $LN4@DGUnionSer

; 1113 : 							{
; 1114 : 								DataSend(iUserIndex, (LPBYTE)&pMsg, pMsg.h.size);

  0262f	0f b6 45 95	 movzx	 eax, BYTE PTR _pMsg$[ebp+1]
  02633	50		 push	 eax
  02634	8d 4d 94	 lea	 ecx, DWORD PTR _pMsg$[ebp]
  02637	51		 push	 ecx
  02638	8b 95 f8 fd ff
	ff		 mov	 edx, DWORD PTR _iUserIndex$232435[ebp]
  0263e	52		 push	 edx
  0263f	e8 00 00 00 00	 call	 ?DataSend@@YAHHPAEK@Z	; DataSend
  02644	83 c4 0c	 add	 esp, 12			; 0000000cH
$LN4@DGUnionSer:

; 1115 : 							}
; 1116 : 						}
; 1117 : 					}
; 1118 : 				}
; 1119 : 			}

  02647	e9 23 ff ff ff	 jmp	 $LN6@DGUnionSer
$LN5@DGUnionSer:

; 1120 : 		}

  0264c	e9 cb fe ff ff	 jmp	 $LN10@DGUnionSer
$LN13@DGUnionSer:

; 1121 : 	}
; 1122 : }

  02651	5f		 pop	 edi
  02652	5e		 pop	 esi
  02653	5b		 pop	 ebx
  02654	8b 4d fc	 mov	 ecx, DWORD PTR __$ArrayPad$[ebp]
  02657	33 cd		 xor	 ecx, ebp
  02659	e8 00 00 00 00	 call	 @__security_check_cookie@4
  0265e	8b e5		 mov	 esp, ebp
  02660	5d		 pop	 ebp
  02661	c3		 ret	 0
?DGUnionServerGroupChattingRecv@@YAXPAUEXSDHP_SERVERGROUP_UNION_CHATTING_RECV@@@Z ENDP ; DGUnionServerGroupChattingRecv
_TEXT	ENDS
PUBLIC	__$ArrayPad$
PUBLIC	?GDGuildReqAssignStatus@@YAXHHPADH@Z		; GDGuildReqAssignStatus
; Function compile flags: /Odtp /ZI
_TEXT	SEGMENT
_pMsg$ = -32						; size = 28
__$ArrayPad$ = -4					; size = 4
_aIndex$ = 8						; size = 4
_iAssignType$ = 12					; size = 4
_szTagetName$ = 16					; size = 4
_iGuildStatus$ = 20					; size = 4
?GDGuildReqAssignStatus@@YAXHHPADH@Z PROC		; GDGuildReqAssignStatus

; 1135 : {

  02670	55		 push	 ebp
  02671	8b ec		 mov	 ebp, esp
  02673	83 ec 60	 sub	 esp, 96			; 00000060H
  02676	a1 00 00 00 00	 mov	 eax, DWORD PTR ___security_cookie
  0267b	33 c5		 xor	 eax, ebp
  0267d	89 45 fc	 mov	 DWORD PTR __$ArrayPad$[ebp], eax
  02680	53		 push	 ebx
  02681	56		 push	 esi
  02682	57		 push	 edi

; 1136 : 	EXSDHP_GUILD_ASSIGN_STATUS_REQ pMsg = {0};

  02683	c6 45 e0 00	 mov	 BYTE PTR _pMsg$[ebp], 0
  02687	33 c0		 xor	 eax, eax
  02689	89 45 e1	 mov	 DWORD PTR _pMsg$[ebp+1], eax
  0268c	89 45 e5	 mov	 DWORD PTR _pMsg$[ebp+5], eax
  0268f	89 45 e9	 mov	 DWORD PTR _pMsg$[ebp+9], eax
  02692	89 45 ed	 mov	 DWORD PTR _pMsg$[ebp+13], eax
  02695	89 45 f1	 mov	 DWORD PTR _pMsg$[ebp+17], eax
  02698	89 45 f5	 mov	 DWORD PTR _pMsg$[ebp+21], eax
  0269b	66 89 45 f9	 mov	 WORD PTR _pMsg$[ebp+25], ax
  0269f	88 45 fb	 mov	 BYTE PTR _pMsg$[ebp+27], al

; 1137 : 
; 1138 : 	pMsg.h.set((LPBYTE)&pMsg, 0xE1, sizeof(EXSDHP_GUILD_ASSIGN_STATUS_REQ));

  026a2	6a 1c		 push	 28			; 0000001cH
  026a4	68 e1 00 00 00	 push	 225			; 000000e1H
  026a9	8d 45 e0	 lea	 eax, DWORD PTR _pMsg$[ebp]
  026ac	50		 push	 eax
  026ad	8d 4d e0	 lea	 ecx, DWORD PTR _pMsg$[ebp]
  026b0	e8 00 00 00 00	 call	 ?set@PBMSG_HEAD@@QAEXPAEEE@Z ; PBMSG_HEAD::set

; 1139 : 	pMsg.btType = iAssignType;

  026b5	8a 45 0c	 mov	 al, BYTE PTR _iAssignType$[ebp]
  026b8	88 45 e6	 mov	 BYTE PTR _pMsg$[ebp+6], al

; 1140 : 	pMsg.btGuildStatus = iGuildStatus;

  026bb	8a 45 14	 mov	 al, BYTE PTR _iGuildStatus$[ebp]
  026be	88 45 e7	 mov	 BYTE PTR _pMsg$[ebp+7], al

; 1141 : 	pMsg.wUserIndex = aIndex;

  026c1	66 8b 45 08	 mov	 ax, WORD PTR _aIndex$[ebp]
  026c5	66 89 45 e4	 mov	 WORD PTR _pMsg$[ebp+4], ax

; 1142 : 	pMsg.szGuildName[MAX_GUILD_LEN] = 0;

  026c9	c6 45 f0 00	 mov	 BYTE PTR _pMsg$[ebp+16], 0

; 1143 : 	pMsg.szTargetName[MAX_ACCOUNT_LEN] = 0;

  026cd	c6 45 fb 00	 mov	 BYTE PTR _pMsg$[ebp+27], 0

; 1144 : 	memcpy(pMsg.szGuildName, gObj[aIndex].lpGuild->Name, MAX_GUILD_LEN);

  026d1	6a 08		 push	 8
  026d3	8b 45 08	 mov	 eax, DWORD PTR _aIndex$[ebp]
  026d6	69 c0 38 2b 00
	00		 imul	 eax, 11064		; 00002b38H
  026dc	8b 0d 00 00 00
	00		 mov	 ecx, DWORD PTR ?gObj@@3PAUOBJECTSTRUCT@@A ; gObj
  026e2	8b 94 01 38 04
	00 00		 mov	 edx, DWORD PTR [ecx+eax+1080]
  026e9	83 c2 04	 add	 edx, 4
  026ec	52		 push	 edx
  026ed	8d 45 e8	 lea	 eax, DWORD PTR _pMsg$[ebp+8]
  026f0	50		 push	 eax
  026f1	e8 00 00 00 00	 call	 _memcpy
  026f6	83 c4 0c	 add	 esp, 12			; 0000000cH

; 1145 : 	memcpy(pMsg.szTargetName, szTagetName, MAX_ACCOUNT_LEN);

  026f9	6a 0a		 push	 10			; 0000000aH
  026fb	8b 45 10	 mov	 eax, DWORD PTR _szTagetName$[ebp]
  026fe	50		 push	 eax
  026ff	8d 4d f1	 lea	 ecx, DWORD PTR _pMsg$[ebp+17]
  02702	51		 push	 ecx
  02703	e8 00 00 00 00	 call	 _memcpy
  02708	83 c4 0c	 add	 esp, 12			; 0000000cH

; 1146 : 
; 1147 : 	wsExDbCli.DataSend((char*)&pMsg, pMsg.h.size);

  0270b	0f b6 45 e1	 movzx	 eax, BYTE PTR _pMsg$[ebp+1]
  0270f	50		 push	 eax
  02710	8d 4d e0	 lea	 ecx, DWORD PTR _pMsg$[ebp]
  02713	51		 push	 ecx
  02714	b9 00 00 00 00	 mov	 ecx, OFFSET ?wsExDbCli@@3VwsJoinServerCli@@A ; wsExDbCli
  02719	e8 00 00 00 00	 call	 ?DataSend@wsJoinServerCli@@QAEHPADH@Z ; wsJoinServerCli::DataSend

; 1148 : }

  0271e	5f		 pop	 edi
  0271f	5e		 pop	 esi
  02720	5b		 pop	 ebx
  02721	8b 4d fc	 mov	 ecx, DWORD PTR __$ArrayPad$[ebp]
  02724	33 cd		 xor	 ecx, ebp
  02726	e8 00 00 00 00	 call	 @__security_check_cookie@4
  0272b	8b e5		 mov	 esp, ebp
  0272d	5d		 pop	 ebp
  0272e	c3		 ret	 0
?GDGuildReqAssignStatus@@YAXHHPADH@Z ENDP		; GDGuildReqAssignStatus
_TEXT	ENDS
PUBLIC	??_C@_0FA@EEENHOBM@?$FLU?4System?$FN?$FLGuild?5Status?$FN?$FLAssign?$FN@ ; `string'
PUBLIC	__$ArrayPad$
EXTRN	?SendToUser@TNotice@@QAAXHPADZZ:PROC		; TNotice::SendToUser
EXTRN	??0TNotice@@QAE@E@Z:PROC			; TNotice::TNotice
EXTRN	?SetGuildMemberStatus@CGuildClass@@QAEHPAD0H@Z:PROC ; CGuildClass::SetGuildMemberStatus
;	COMDAT ??_C@_0FA@EEENHOBM@?$FLU?4System?$FN?$FLGuild?5Status?$FN?$FLAssign?$FN@
CONST	SEGMENT
??_C@_0FA@EEENHOBM@?$FLU?4System?$FN?$FLGuild?5Status?$FN?$FLAssign?$FN@ DB '['
	DB	'U.System][Guild Status][Assign] Guild : ( %s ) Member : ( %s '
	DB	') Status : ( %d )', 00H			; `string'
; Function compile flags: /Odtp /ZI
CONST	ENDS
_TEXT	SEGMENT
__Notice$232506 = -580					; size = 272
_n$232501 = -308					; size = 4
_lpNode$232498 = -304					; size = 4
__Notice$232491 = -300					; size = 272
_i$232486 = -28						; size = 4
_pMsg$232480 = -24					; size = 15
_lpNode$232478 = -8					; size = 4
__$ArrayPad$ = -4					; size = 4
_lpMsg$ = 8						; size = 4
?DGGuildAnsAssignStatus@@YAXPAUEXSDHP_GUILD_ASSIGN_STATUS_RESULT@@@Z PROC ; DGGuildAnsAssignStatus

; 1151 : {

  02730	55		 push	 ebp
  02731	8b ec		 mov	 ebp, esp
  02733	81 ec 84 02 00
	00		 sub	 esp, 644		; 00000284H
  02739	a1 00 00 00 00	 mov	 eax, DWORD PTR ___security_cookie
  0273e	33 c5		 xor	 eax, ebp
  02740	89 45 fc	 mov	 DWORD PTR __$ArrayPad$[ebp], eax
  02743	53		 push	 ebx
  02744	56		 push	 esi
  02745	57		 push	 edi

; 1152 : 	if ( lpMsg->btFlag == 1 )

  02746	8b 45 08	 mov	 eax, DWORD PTR _lpMsg$[ebp]
  02749	0f b6 48 03	 movzx	 ecx, BYTE PTR [eax+3]
  0274d	83 f9 01	 cmp	 ecx, 1
  02750	0f 85 f1 01 00
	00		 jne	 $LN23@DGGuildAns

; 1153 : 	{
; 1154 : 		_GUILD_INFO_STRUCT * lpNode = Guild.SearchGuild(lpMsg->szGuildName);

  02756	8b 45 08	 mov	 eax, DWORD PTR _lpMsg$[ebp]
  02759	83 c0 09	 add	 eax, 9
  0275c	50		 push	 eax
  0275d	b9 00 00 00 00	 mov	 ecx, OFFSET ?Guild@@3VCGuildClass@@A ; Guild
  02762	e8 00 00 00 00	 call	 ?SearchGuild@CGuildClass@@QAEPAU_GUILD_INFO_STRUCT@@PAD@Z ; CGuildClass::SearchGuild
  02767	89 45 f8	 mov	 DWORD PTR _lpNode$232478[ebp], eax

; 1155 : 
; 1156 : 		if ( lpNode == NULL )

  0276a	83 7d f8 00	 cmp	 DWORD PTR _lpNode$232478[ebp], 0
  0276e	75 07		 jne	 SHORT $LN22@DGGuildAns

; 1157 : 		{
; 1158 : 			lpMsg->btResult = 0;

  02770	8b 45 08	 mov	 eax, DWORD PTR _lpMsg$[ebp]
  02773	c6 40 07 00	 mov	 BYTE PTR [eax+7], 0
$LN22@DGGuildAns:

; 1159 : 		}
; 1160 : 
; 1161 : 		PMSG_GUILD_ASSIGN_STATUS_RESULT pMsg = {0};

  02777	c6 45 e8 00	 mov	 BYTE PTR _pMsg$232480[ebp], 0
  0277b	33 c0		 xor	 eax, eax
  0277d	89 45 e9	 mov	 DWORD PTR _pMsg$232480[ebp+1], eax
  02780	89 45 ed	 mov	 DWORD PTR _pMsg$232480[ebp+5], eax
  02783	89 45 f1	 mov	 DWORD PTR _pMsg$232480[ebp+9], eax
  02786	66 89 45 f5	 mov	 WORD PTR _pMsg$232480[ebp+13], ax

; 1162 : 
; 1163 : 		pMsg.h.set((LPBYTE)&pMsg, 0xE1, sizeof(PMSG_GUILD_ASSIGN_STATUS_RESULT));

  0278a	6a 0f		 push	 15			; 0000000fH
  0278c	68 e1 00 00 00	 push	 225			; 000000e1H
  02791	8d 45 e8	 lea	 eax, DWORD PTR _pMsg$232480[ebp]
  02794	50		 push	 eax
  02795	8d 4d e8	 lea	 ecx, DWORD PTR _pMsg$232480[ebp]
  02798	e8 00 00 00 00	 call	 ?set@PBMSG_HEAD@@QAEXPAEEE@Z ; PBMSG_HEAD::set

; 1164 : 		pMsg.btType = lpMsg->btType;

  0279d	8b 45 08	 mov	 eax, DWORD PTR _lpMsg$[ebp]
  027a0	8a 48 06	 mov	 cl, BYTE PTR [eax+6]
  027a3	88 4d eb	 mov	 BYTE PTR _pMsg$232480[ebp+3], cl

; 1165 : 		pMsg.btResult = lpMsg->btResult;

  027a6	8b 45 08	 mov	 eax, DWORD PTR _lpMsg$[ebp]
  027a9	8a 48 07	 mov	 cl, BYTE PTR [eax+7]
  027ac	88 4d ec	 mov	 BYTE PTR _pMsg$232480[ebp+4], cl

; 1166 : 		memcpy(pMsg.szTagetName, lpMsg->szTargetName, sizeof(pMsg.szTagetName));

  027af	6a 0a		 push	 10			; 0000000aH
  027b1	8b 45 08	 mov	 eax, DWORD PTR _lpMsg$[ebp]
  027b4	83 c0 12	 add	 eax, 18			; 00000012H
  027b7	50		 push	 eax
  027b8	8d 4d ed	 lea	 ecx, DWORD PTR _pMsg$232480[ebp+5]
  027bb	51		 push	 ecx
  027bc	e8 00 00 00 00	 call	 _memcpy
  027c1	83 c4 0c	 add	 esp, 12			; 0000000cH

; 1167 : 
; 1168 : 		DataSend(lpMsg->wUserIndex, (LPBYTE)&pMsg, sizeof(pMsg));

  027c4	6a 0f		 push	 15			; 0000000fH
  027c6	8d 45 e8	 lea	 eax, DWORD PTR _pMsg$232480[ebp]
  027c9	50		 push	 eax
  027ca	8b 4d 08	 mov	 ecx, DWORD PTR _lpMsg$[ebp]
  027cd	0f b7 51 04	 movzx	 edx, WORD PTR [ecx+4]
  027d1	52		 push	 edx
  027d2	e8 00 00 00 00	 call	 ?DataSend@@YAHHPAEK@Z	; DataSend
  027d7	83 c4 0c	 add	 esp, 12			; 0000000cH

; 1169 : 
; 1170 : 		if ( lpMsg->btResult == 0 )

  027da	8b 45 08	 mov	 eax, DWORD PTR _lpMsg$[ebp]
  027dd	0f b6 48 07	 movzx	 ecx, BYTE PTR [eax+7]
  027e1	85 c9		 test	 ecx, ecx
  027e3	75 05		 jne	 SHORT $LN21@DGGuildAns

; 1171 : 		{
; 1172 : 			return;

  027e5	e9 26 03 00 00	 jmp	 $LN24@DGGuildAns
$LN21@DGGuildAns:

; 1173 : 		}
; 1174 : 
; 1175 : 		Guild.SetGuildMemberStatus(lpMsg->szGuildName, lpMsg->szTargetName, lpMsg->btGuildStatus);

  027ea	8b 45 08	 mov	 eax, DWORD PTR _lpMsg$[ebp]
  027ed	0f b6 48 08	 movzx	 ecx, BYTE PTR [eax+8]
  027f1	51		 push	 ecx
  027f2	8b 55 08	 mov	 edx, DWORD PTR _lpMsg$[ebp]
  027f5	83 c2 12	 add	 edx, 18			; 00000012H
  027f8	52		 push	 edx
  027f9	8b 45 08	 mov	 eax, DWORD PTR _lpMsg$[ebp]
  027fc	83 c0 09	 add	 eax, 9
  027ff	50		 push	 eax
  02800	b9 00 00 00 00	 mov	 ecx, OFFSET ?Guild@@3VCGuildClass@@A ; Guild
  02805	e8 00 00 00 00	 call	 ?SetGuildMemberStatus@CGuildClass@@QAEHPAD0H@Z ; CGuildClass::SetGuildMemberStatus

; 1176 : 
; 1177 : 		LogAddTD("[U.System][Guild Status][Assign] Guild : ( %s ) Member : ( %s ) Status : ( %d )", lpMsg->szGuildName, lpMsg->szTargetName, lpMsg->btGuildStatus);

  0280a	8b 45 08	 mov	 eax, DWORD PTR _lpMsg$[ebp]
  0280d	0f b6 48 08	 movzx	 ecx, BYTE PTR [eax+8]
  02811	51		 push	 ecx
  02812	8b 55 08	 mov	 edx, DWORD PTR _lpMsg$[ebp]
  02815	83 c2 12	 add	 edx, 18			; 00000012H
  02818	52		 push	 edx
  02819	8b 45 08	 mov	 eax, DWORD PTR _lpMsg$[ebp]
  0281c	83 c0 09	 add	 eax, 9
  0281f	50		 push	 eax
  02820	68 00 00 00 00	 push	 OFFSET ??_C@_0FA@EEENHOBM@?$FLU?4System?$FN?$FLGuild?5Status?$FN?$FLAssign?$FN@
  02825	ff 15 00 00 00
	00		 call	 DWORD PTR ?LogAddTD@@3P6AXPADZZA ; LogAddTD
  0282b	83 c4 10	 add	 esp, 16			; 00000010H

; 1178 : 
; 1179 : 		for ( int i=0;i<MAX_USER_GUILD;i++)

  0282e	c7 45 e4 00 00
	00 00		 mov	 DWORD PTR _i$232486[ebp], 0
  02835	eb 09		 jmp	 SHORT $LN20@DGGuildAns
$LN19@DGGuildAns:
  02837	8b 45 e4	 mov	 eax, DWORD PTR _i$232486[ebp]
  0283a	83 c0 01	 add	 eax, 1
  0283d	89 45 e4	 mov	 DWORD PTR _i$232486[ebp], eax
$LN20@DGGuildAns:
  02840	83 7d e4 50	 cmp	 DWORD PTR _i$232486[ebp], 80 ; 00000050H
  02844	0f 8d f8 00 00
	00		 jge	 $LN18@DGGuildAns

; 1180 : 		{
; 1181 : 			if ( lpNode->Use[i] > 0 && lpNode->Index[i] >= 0)

  0284a	8b 45 f8	 mov	 eax, DWORD PTR _lpNode$232478[ebp]
  0284d	03 45 e4	 add	 eax, DWORD PTR _i$232486[ebp]
  02850	0f b6 88 40 04
	00 00		 movzx	 ecx, BYTE PTR [eax+1088]
  02857	85 c9		 test	 ecx, ecx
  02859	0f 8e de 00 00
	00		 jle	 $LN17@DGGuildAns
  0285f	8b 45 e4	 mov	 eax, DWORD PTR _i$232486[ebp]
  02862	8b 4d f8	 mov	 ecx, DWORD PTR _lpNode$232478[ebp]
  02865	0f bf 94 41 a0
	03 00 00	 movsx	 edx, WORD PTR [ecx+eax*2+928]
  0286d	85 d2		 test	 edx, edx
  0286f	0f 8c c8 00 00
	00		 jl	 $LN17@DGGuildAns

; 1182 : 			{
; 1183 : 				TNotice _Notice(0);

  02875	6a 00		 push	 0
  02877	8d 8d d4 fe ff
	ff		 lea	 ecx, DWORD PTR __Notice$232491[ebp]
  0287d	e8 00 00 00 00	 call	 ??0TNotice@@QAE@E@Z	; TNotice::TNotice

; 1184 : 
; 1185 : 				if ( lpMsg->btGuildStatus == GUILD_ASSISTANT )

  02882	8b 45 08	 mov	 eax, DWORD PTR _lpMsg$[ebp]
  02885	0f b6 48 08	 movzx	 ecx, BYTE PTR [eax+8]
  02889	83 f9 40	 cmp	 ecx, 64			; 00000040H
  0288c	75 37		 jne	 SHORT $LN16@DGGuildAns

; 1186 : 				{
; 1187 : 					_Notice.SendToUser(lpNode->Index[i], lMsg.Get(MSGGET(6, 184)), lpMsg->szTargetName);

  0288e	8b 45 08	 mov	 eax, DWORD PTR _lpMsg$[ebp]
  02891	83 c0 12	 add	 eax, 18			; 00000012H
  02894	50		 push	 eax
  02895	68 b8 06 00 00	 push	 1720			; 000006b8H
  0289a	b9 00 00 00 00	 mov	 ecx, OFFSET ?lMsg@@3VCMsg@@A ; lMsg
  0289f	e8 00 00 00 00	 call	 ?Get@CMsg@@QAEPADH@Z	; CMsg::Get
  028a4	50		 push	 eax
  028a5	8b 4d e4	 mov	 ecx, DWORD PTR _i$232486[ebp]
  028a8	8b 55 f8	 mov	 edx, DWORD PTR _lpNode$232478[ebp]
  028ab	0f bf 84 4a a0
	03 00 00	 movsx	 eax, WORD PTR [edx+ecx*2+928]
  028b3	50		 push	 eax
  028b4	8d 8d d4 fe ff
	ff		 lea	 ecx, DWORD PTR __Notice$232491[ebp]
  028ba	51		 push	 ecx
  028bb	e8 00 00 00 00	 call	 ?SendToUser@TNotice@@QAAXHPADZZ ; TNotice::SendToUser
  028c0	83 c4 10	 add	 esp, 16			; 00000010H
  028c3	eb 78		 jmp	 SHORT $LN17@DGGuildAns
$LN16@DGGuildAns:

; 1188 : 				}
; 1189 : 				else if ( lpMsg->btGuildStatus == GUILD_BATTLE_MASTER )

  028c5	8b 45 08	 mov	 eax, DWORD PTR _lpMsg$[ebp]
  028c8	0f b6 48 08	 movzx	 ecx, BYTE PTR [eax+8]
  028cc	83 f9 20	 cmp	 ecx, 32			; 00000020H
  028cf	75 37		 jne	 SHORT $LN14@DGGuildAns

; 1190 : 				{
; 1191 : 					_Notice.SendToUser(lpNode->Index[i], lMsg.Get(MSGGET(6, 185)), lpMsg->szTargetName);

  028d1	8b 45 08	 mov	 eax, DWORD PTR _lpMsg$[ebp]
  028d4	83 c0 12	 add	 eax, 18			; 00000012H
  028d7	50		 push	 eax
  028d8	68 b9 06 00 00	 push	 1721			; 000006b9H
  028dd	b9 00 00 00 00	 mov	 ecx, OFFSET ?lMsg@@3VCMsg@@A ; lMsg
  028e2	e8 00 00 00 00	 call	 ?Get@CMsg@@QAEPADH@Z	; CMsg::Get
  028e7	50		 push	 eax
  028e8	8b 4d e4	 mov	 ecx, DWORD PTR _i$232486[ebp]
  028eb	8b 55 f8	 mov	 edx, DWORD PTR _lpNode$232478[ebp]
  028ee	0f bf 84 4a a0
	03 00 00	 movsx	 eax, WORD PTR [edx+ecx*2+928]
  028f6	50		 push	 eax
  028f7	8d 8d d4 fe ff
	ff		 lea	 ecx, DWORD PTR __Notice$232491[ebp]
  028fd	51		 push	 ecx
  028fe	e8 00 00 00 00	 call	 ?SendToUser@TNotice@@QAAXHPADZZ ; TNotice::SendToUser
  02903	83 c4 10	 add	 esp, 16			; 00000010H

; 1192 : 				}
; 1193 : 				else

  02906	eb 35		 jmp	 SHORT $LN17@DGGuildAns
$LN14@DGGuildAns:

; 1194 : 				{
; 1195 : 					_Notice.SendToUser(lpNode->Index[i], lMsg.Get(MSGGET(6, 186)), lpMsg->szTargetName);

  02908	8b 45 08	 mov	 eax, DWORD PTR _lpMsg$[ebp]
  0290b	83 c0 12	 add	 eax, 18			; 00000012H
  0290e	50		 push	 eax
  0290f	68 ba 06 00 00	 push	 1722			; 000006baH
  02914	b9 00 00 00 00	 mov	 ecx, OFFSET ?lMsg@@3VCMsg@@A ; lMsg
  02919	e8 00 00 00 00	 call	 ?Get@CMsg@@QAEPADH@Z	; CMsg::Get
  0291e	50		 push	 eax
  0291f	8b 4d e4	 mov	 ecx, DWORD PTR _i$232486[ebp]
  02922	8b 55 f8	 mov	 edx, DWORD PTR _lpNode$232478[ebp]
  02925	0f bf 84 4a a0
	03 00 00	 movsx	 eax, WORD PTR [edx+ecx*2+928]
  0292d	50		 push	 eax
  0292e	8d 8d d4 fe ff
	ff		 lea	 ecx, DWORD PTR __Notice$232491[ebp]
  02934	51		 push	 ecx
  02935	e8 00 00 00 00	 call	 ?SendToUser@TNotice@@QAAXHPADZZ ; TNotice::SendToUser
  0293a	83 c4 10	 add	 esp, 16			; 00000010H
$LN17@DGGuildAns:

; 1196 : 				}
; 1197 : 			}
; 1198 : 		}

  0293d	e9 f5 fe ff ff	 jmp	 $LN19@DGGuildAns
$LN18@DGGuildAns:

; 1199 : 	}
; 1200 : 	else if ( lpMsg->btFlag == 0 )

  02942	e9 c9 01 00 00	 jmp	 $LN24@DGGuildAns
$LN23@DGGuildAns:
  02947	8b 45 08	 mov	 eax, DWORD PTR _lpMsg$[ebp]
  0294a	0f b6 48 03	 movzx	 ecx, BYTE PTR [eax+3]
  0294e	85 c9		 test	 ecx, ecx
  02950	0f 85 ba 01 00
	00		 jne	 $LN24@DGGuildAns

; 1201 : 	{
; 1202 : 		_GUILD_INFO_STRUCT * lpNode = Guild.SearchGuild(lpMsg->szGuildName);

  02956	8b 45 08	 mov	 eax, DWORD PTR _lpMsg$[ebp]
  02959	83 c0 09	 add	 eax, 9
  0295c	50		 push	 eax
  0295d	b9 00 00 00 00	 mov	 ecx, OFFSET ?Guild@@3VCGuildClass@@A ; Guild
  02962	e8 00 00 00 00	 call	 ?SearchGuild@CGuildClass@@QAEPAU_GUILD_INFO_STRUCT@@PAD@Z ; CGuildClass::SearchGuild
  02967	89 85 d0 fe ff
	ff		 mov	 DWORD PTR _lpNode$232498[ebp], eax

; 1203 : 
; 1204 : 		if ( lpNode == NULL )

  0296d	83 bd d0 fe ff
	ff 00		 cmp	 DWORD PTR _lpNode$232498[ebp], 0
  02974	75 05		 jne	 SHORT $LN10@DGGuildAns

; 1205 : 		{
; 1206 : 			return;

  02976	e9 95 01 00 00	 jmp	 $LN24@DGGuildAns
$LN10@DGGuildAns:

; 1207 : 		}
; 1208 : 		
; 1209 : 		Guild.SetGuildMemberStatus(lpMsg->szGuildName, lpMsg->szTargetName, lpMsg->btGuildStatus);

  0297b	8b 45 08	 mov	 eax, DWORD PTR _lpMsg$[ebp]
  0297e	0f b6 48 08	 movzx	 ecx, BYTE PTR [eax+8]
  02982	51		 push	 ecx
  02983	8b 55 08	 mov	 edx, DWORD PTR _lpMsg$[ebp]
  02986	83 c2 12	 add	 edx, 18			; 00000012H
  02989	52		 push	 edx
  0298a	8b 45 08	 mov	 eax, DWORD PTR _lpMsg$[ebp]
  0298d	83 c0 09	 add	 eax, 9
  02990	50		 push	 eax
  02991	b9 00 00 00 00	 mov	 ecx, OFFSET ?Guild@@3VCGuildClass@@A ; Guild
  02996	e8 00 00 00 00	 call	 ?SetGuildMemberStatus@CGuildClass@@QAEHPAD0H@Z ; CGuildClass::SetGuildMemberStatus

; 1210 : 
; 1211 : 		LogAddTD("[U.System][Guild Status][Assign] Guild : ( %s ) Member : ( %s ) Status : ( %d )", lpMsg->szGuildName, lpMsg->szTargetName, lpMsg->btGuildStatus);

  0299b	8b 45 08	 mov	 eax, DWORD PTR _lpMsg$[ebp]
  0299e	0f b6 48 08	 movzx	 ecx, BYTE PTR [eax+8]
  029a2	51		 push	 ecx
  029a3	8b 55 08	 mov	 edx, DWORD PTR _lpMsg$[ebp]
  029a6	83 c2 12	 add	 edx, 18			; 00000012H
  029a9	52		 push	 edx
  029aa	8b 45 08	 mov	 eax, DWORD PTR _lpMsg$[ebp]
  029ad	83 c0 09	 add	 eax, 9
  029b0	50		 push	 eax
  029b1	68 00 00 00 00	 push	 OFFSET ??_C@_0FA@EEENHOBM@?$FLU?4System?$FN?$FLGuild?5Status?$FN?$FLAssign?$FN@
  029b6	ff 15 00 00 00
	00		 call	 DWORD PTR ?LogAddTD@@3P6AXPADZZA ; LogAddTD
  029bc	83 c4 10	 add	 esp, 16			; 00000010H

; 1212 : 		
; 1213 : 		if ( lpMsg->btResult == 0 )

  029bf	8b 45 08	 mov	 eax, DWORD PTR _lpMsg$[ebp]
  029c2	0f b6 48 07	 movzx	 ecx, BYTE PTR [eax+7]
  029c6	85 c9		 test	 ecx, ecx
  029c8	75 05		 jne	 SHORT $LN9@DGGuildAns

; 1214 : 		{
; 1215 : 			return;

  029ca	e9 41 01 00 00	 jmp	 $LN24@DGGuildAns
$LN9@DGGuildAns:

; 1216 : 		}
; 1217 : 
; 1218 : 		for ( int n=0;n<MAX_USER_GUILD;n++)

  029cf	c7 85 cc fe ff
	ff 00 00 00 00	 mov	 DWORD PTR _n$232501[ebp], 0
  029d9	eb 0f		 jmp	 SHORT $LN8@DGGuildAns
$LN7@DGGuildAns:
  029db	8b 85 cc fe ff
	ff		 mov	 eax, DWORD PTR _n$232501[ebp]
  029e1	83 c0 01	 add	 eax, 1
  029e4	89 85 cc fe ff
	ff		 mov	 DWORD PTR _n$232501[ebp], eax
$LN8@DGGuildAns:
  029ea	83 bd cc fe ff
	ff 50		 cmp	 DWORD PTR _n$232501[ebp], 80 ; 00000050H
  029f1	0f 8d 19 01 00
	00		 jge	 $LN24@DGGuildAns

; 1219 : 		{
; 1220 : 			if ( lpNode->Use[n] > 0 && lpNode->Index[n] >= 0)

  029f7	8b 85 d0 fe ff
	ff		 mov	 eax, DWORD PTR _lpNode$232498[ebp]
  029fd	03 85 cc fe ff
	ff		 add	 eax, DWORD PTR _n$232501[ebp]
  02a03	0f b6 88 40 04
	00 00		 movzx	 ecx, BYTE PTR [eax+1088]
  02a0a	85 c9		 test	 ecx, ecx
  02a0c	0f 8e f9 00 00
	00		 jle	 $LN5@DGGuildAns
  02a12	8b 85 cc fe ff
	ff		 mov	 eax, DWORD PTR _n$232501[ebp]
  02a18	8b 8d d0 fe ff
	ff		 mov	 ecx, DWORD PTR _lpNode$232498[ebp]
  02a1e	0f bf 94 41 a0
	03 00 00	 movsx	 edx, WORD PTR [ecx+eax*2+928]
  02a26	85 d2		 test	 edx, edx
  02a28	0f 8c dd 00 00
	00		 jl	 $LN5@DGGuildAns

; 1221 : 			{
; 1222 : 				TNotice _Notice(0);

  02a2e	6a 00		 push	 0
  02a30	8d 8d bc fd ff
	ff		 lea	 ecx, DWORD PTR __Notice$232506[ebp]
  02a36	e8 00 00 00 00	 call	 ??0TNotice@@QAE@E@Z	; TNotice::TNotice

; 1223 : 
; 1224 : 
; 1225 : 				if ( lpMsg->btGuildStatus == GUILD_ASSISTANT )

  02a3b	8b 45 08	 mov	 eax, DWORD PTR _lpMsg$[ebp]
  02a3e	0f b6 48 08	 movzx	 ecx, BYTE PTR [eax+8]
  02a42	83 f9 40	 cmp	 ecx, 64			; 00000040H
  02a45	75 40		 jne	 SHORT $LN4@DGGuildAns

; 1226 : 				{
; 1227 : 					_Notice.SendToUser(lpNode->Index[n], lMsg.Get(MSGGET(6, 184)), lpMsg->szTargetName);

  02a47	8b 45 08	 mov	 eax, DWORD PTR _lpMsg$[ebp]
  02a4a	83 c0 12	 add	 eax, 18			; 00000012H
  02a4d	50		 push	 eax
  02a4e	68 b8 06 00 00	 push	 1720			; 000006b8H
  02a53	b9 00 00 00 00	 mov	 ecx, OFFSET ?lMsg@@3VCMsg@@A ; lMsg
  02a58	e8 00 00 00 00	 call	 ?Get@CMsg@@QAEPADH@Z	; CMsg::Get
  02a5d	50		 push	 eax
  02a5e	8b 8d cc fe ff
	ff		 mov	 ecx, DWORD PTR _n$232501[ebp]
  02a64	8b 95 d0 fe ff
	ff		 mov	 edx, DWORD PTR _lpNode$232498[ebp]
  02a6a	0f bf 84 4a a0
	03 00 00	 movsx	 eax, WORD PTR [edx+ecx*2+928]
  02a72	50		 push	 eax
  02a73	8d 8d bc fd ff
	ff		 lea	 ecx, DWORD PTR __Notice$232506[ebp]
  02a79	51		 push	 ecx
  02a7a	e8 00 00 00 00	 call	 ?SendToUser@TNotice@@QAAXHPADZZ ; TNotice::SendToUser
  02a7f	83 c4 10	 add	 esp, 16			; 00000010H
  02a82	e9 84 00 00 00	 jmp	 $LN5@DGGuildAns
$LN4@DGGuildAns:

; 1228 : 				}
; 1229 : 				else if ( lpMsg->btGuildStatus == GUILD_BATTLE_MASTER )

  02a87	8b 45 08	 mov	 eax, DWORD PTR _lpMsg$[ebp]
  02a8a	0f b6 48 08	 movzx	 ecx, BYTE PTR [eax+8]
  02a8e	83 f9 20	 cmp	 ecx, 32			; 00000020H
  02a91	75 3d		 jne	 SHORT $LN2@DGGuildAns

; 1230 : 				{
; 1231 : 					_Notice.SendToUser(lpNode->Index[n], lMsg.Get(MSGGET(6, 185)), lpMsg->szTargetName);

  02a93	8b 45 08	 mov	 eax, DWORD PTR _lpMsg$[ebp]
  02a96	83 c0 12	 add	 eax, 18			; 00000012H
  02a99	50		 push	 eax
  02a9a	68 b9 06 00 00	 push	 1721			; 000006b9H
  02a9f	b9 00 00 00 00	 mov	 ecx, OFFSET ?lMsg@@3VCMsg@@A ; lMsg
  02aa4	e8 00 00 00 00	 call	 ?Get@CMsg@@QAEPADH@Z	; CMsg::Get
  02aa9	50		 push	 eax
  02aaa	8b 8d cc fe ff
	ff		 mov	 ecx, DWORD PTR _n$232501[ebp]
  02ab0	8b 95 d0 fe ff
	ff		 mov	 edx, DWORD PTR _lpNode$232498[ebp]
  02ab6	0f bf 84 4a a0
	03 00 00	 movsx	 eax, WORD PTR [edx+ecx*2+928]
  02abe	50		 push	 eax
  02abf	8d 8d bc fd ff
	ff		 lea	 ecx, DWORD PTR __Notice$232506[ebp]
  02ac5	51		 push	 ecx
  02ac6	e8 00 00 00 00	 call	 ?SendToUser@TNotice@@QAAXHPADZZ ; TNotice::SendToUser
  02acb	83 c4 10	 add	 esp, 16			; 00000010H

; 1232 : 				}
; 1233 : 				else

  02ace	eb 3b		 jmp	 SHORT $LN5@DGGuildAns
$LN2@DGGuildAns:

; 1234 : 				{
; 1235 : 					_Notice.SendToUser(lpNode->Index[n], lMsg.Get(MSGGET(6, 186)), lpMsg->szTargetName);

  02ad0	8b 45 08	 mov	 eax, DWORD PTR _lpMsg$[ebp]
  02ad3	83 c0 12	 add	 eax, 18			; 00000012H
  02ad6	50		 push	 eax
  02ad7	68 ba 06 00 00	 push	 1722			; 000006baH
  02adc	b9 00 00 00 00	 mov	 ecx, OFFSET ?lMsg@@3VCMsg@@A ; lMsg
  02ae1	e8 00 00 00 00	 call	 ?Get@CMsg@@QAEPADH@Z	; CMsg::Get
  02ae6	50		 push	 eax
  02ae7	8b 8d cc fe ff
	ff		 mov	 ecx, DWORD PTR _n$232501[ebp]
  02aed	8b 95 d0 fe ff
	ff		 mov	 edx, DWORD PTR _lpNode$232498[ebp]
  02af3	0f bf 84 4a a0
	03 00 00	 movsx	 eax, WORD PTR [edx+ecx*2+928]
  02afb	50		 push	 eax
  02afc	8d 8d bc fd ff
	ff		 lea	 ecx, DWORD PTR __Notice$232506[ebp]
  02b02	51		 push	 ecx
  02b03	e8 00 00 00 00	 call	 ?SendToUser@TNotice@@QAAXHPADZZ ; TNotice::SendToUser
  02b08	83 c4 10	 add	 esp, 16			; 00000010H
$LN5@DGGuildAns:

; 1236 : 				}
; 1237 : 			}
; 1238 : 		}

  02b0b	e9 cb fe ff ff	 jmp	 $LN7@DGGuildAns
$LN24@DGGuildAns:

; 1239 : 	}
; 1240 : }

  02b10	5f		 pop	 edi
  02b11	5e		 pop	 esi
  02b12	5b		 pop	 ebx
  02b13	8b 4d fc	 mov	 ecx, DWORD PTR __$ArrayPad$[ebp]
  02b16	33 cd		 xor	 ecx, ebp
  02b18	e8 00 00 00 00	 call	 @__security_check_cookie@4
  02b1d	8b e5		 mov	 esp, ebp
  02b1f	5d		 pop	 ebp
  02b20	c3		 ret	 0
?DGGuildAnsAssignStatus@@YAXPAUEXSDHP_GUILD_ASSIGN_STATUS_RESULT@@@Z ENDP ; DGGuildAnsAssignStatus
_TEXT	ENDS
PUBLIC	__$ArrayPad$
PUBLIC	?GDGuildReqAssignType@@YAXHH@Z			; GDGuildReqAssignType
; Function compile flags: /Odtp /ZI
_TEXT	SEGMENT
_pMsg$ = -20						; size = 16
__$ArrayPad$ = -4					; size = 4
_aIndex$ = 8						; size = 4
_iGuildType$ = 12					; size = 4
?GDGuildReqAssignType@@YAXHH@Z PROC			; GDGuildReqAssignType

; 1251 : {

  02b30	55		 push	 ebp
  02b31	8b ec		 mov	 ebp, esp
  02b33	83 ec 54	 sub	 esp, 84			; 00000054H
  02b36	a1 00 00 00 00	 mov	 eax, DWORD PTR ___security_cookie
  02b3b	33 c5		 xor	 eax, ebp
  02b3d	89 45 fc	 mov	 DWORD PTR __$ArrayPad$[ebp], eax
  02b40	53		 push	 ebx
  02b41	56		 push	 esi
  02b42	57		 push	 edi

; 1252 : 	EXSDHP_GUILD_ASSIGN_TYPE_REQ pMsg = {0};

  02b43	c6 45 ec 00	 mov	 BYTE PTR _pMsg$[ebp], 0
  02b47	33 c0		 xor	 eax, eax
  02b49	89 45 ed	 mov	 DWORD PTR _pMsg$[ebp+1], eax
  02b4c	89 45 f1	 mov	 DWORD PTR _pMsg$[ebp+5], eax
  02b4f	89 45 f5	 mov	 DWORD PTR _pMsg$[ebp+9], eax
  02b52	66 89 45 f9	 mov	 WORD PTR _pMsg$[ebp+13], ax
  02b56	88 45 fb	 mov	 BYTE PTR _pMsg$[ebp+15], al

; 1253 : 
; 1254 : 	pMsg.h.set((LPBYTE)&pMsg, 0xE2, sizeof(EXSDHP_GUILD_ASSIGN_TYPE_REQ));

  02b59	6a 10		 push	 16			; 00000010H
  02b5b	68 e2 00 00 00	 push	 226			; 000000e2H
  02b60	8d 45 ec	 lea	 eax, DWORD PTR _pMsg$[ebp]
  02b63	50		 push	 eax
  02b64	8d 4d ec	 lea	 ecx, DWORD PTR _pMsg$[ebp]
  02b67	e8 00 00 00 00	 call	 ?set@PBMSG_HEAD@@QAEXPAEEE@Z ; PBMSG_HEAD::set

; 1255 : 	pMsg.btGuildType = iGuildType;

  02b6c	8a 45 0c	 mov	 al, BYTE PTR _iGuildType$[ebp]
  02b6f	88 45 f2	 mov	 BYTE PTR _pMsg$[ebp+6], al

; 1256 : 	pMsg.wUserIndex = aIndex;

  02b72	66 8b 45 08	 mov	 ax, WORD PTR _aIndex$[ebp]
  02b76	66 89 45 f0	 mov	 WORD PTR _pMsg$[ebp+4], ax

; 1257 : 	pMsg.szGuildName[MAX_GUILD_LEN] = 0;

  02b7a	c6 45 fb 00	 mov	 BYTE PTR _pMsg$[ebp+15], 0

; 1258 : 	memcpy(pMsg.szGuildName, gObj[aIndex].lpGuild->Name, MAX_GUILD_LEN);

  02b7e	6a 08		 push	 8
  02b80	8b 45 08	 mov	 eax, DWORD PTR _aIndex$[ebp]
  02b83	69 c0 38 2b 00
	00		 imul	 eax, 11064		; 00002b38H
  02b89	8b 0d 00 00 00
	00		 mov	 ecx, DWORD PTR ?gObj@@3PAUOBJECTSTRUCT@@A ; gObj
  02b8f	8b 94 01 38 04
	00 00		 mov	 edx, DWORD PTR [ecx+eax+1080]
  02b96	83 c2 04	 add	 edx, 4
  02b99	52		 push	 edx
  02b9a	8d 45 f3	 lea	 eax, DWORD PTR _pMsg$[ebp+7]
  02b9d	50		 push	 eax
  02b9e	e8 00 00 00 00	 call	 _memcpy
  02ba3	83 c4 0c	 add	 esp, 12			; 0000000cH

; 1259 : 
; 1260 : 	wsExDbCli.DataSend((char*)&pMsg, pMsg.h.size);

  02ba6	0f b6 45 ed	 movzx	 eax, BYTE PTR _pMsg$[ebp+1]
  02baa	50		 push	 eax
  02bab	8d 4d ec	 lea	 ecx, DWORD PTR _pMsg$[ebp]
  02bae	51		 push	 ecx
  02baf	b9 00 00 00 00	 mov	 ecx, OFFSET ?wsExDbCli@@3VwsJoinServerCli@@A ; wsExDbCli
  02bb4	e8 00 00 00 00	 call	 ?DataSend@wsJoinServerCli@@QAEHPADH@Z ; wsJoinServerCli::DataSend

; 1261 : }

  02bb9	5f		 pop	 edi
  02bba	5e		 pop	 esi
  02bbb	5b		 pop	 ebx
  02bbc	8b 4d fc	 mov	 ecx, DWORD PTR __$ArrayPad$[ebp]
  02bbf	33 cd		 xor	 ecx, ebp
  02bc1	e8 00 00 00 00	 call	 @__security_check_cookie@4
  02bc6	8b e5		 mov	 esp, ebp
  02bc8	5d		 pop	 ebp
  02bc9	c3		 ret	 0
?GDGuildReqAssignType@@YAXHH@Z ENDP			; GDGuildReqAssignType
_TEXT	ENDS
PUBLIC	__$ArrayPad$
; Function compile flags: /Odtp /ZI
_TEXT	SEGMENT
__Notice$232573 = -572					; size = 272
_n$232568 = -300					; size = 4
_lpNode$232565 = -296					; size = 4
_pNotice$232562 = -292					; size = 272
_i$232557 = -20						; size = 4
_pMsg$232552 = -16					; size = 5
_lpNode$232550 = -8					; size = 4
__$ArrayPad$ = -4					; size = 4
_lpMsg$ = 8						; size = 4
?DGGuildAnsAssignType@@YAXPAUEXSDHP_GUILD_ASSIGN_TYPE_RESULT@@@Z PROC ; DGGuildAnsAssignType

; 1264 : {

  02bd0	55		 push	 ebp
  02bd1	8b ec		 mov	 ebp, esp
  02bd3	81 ec 7c 02 00
	00		 sub	 esp, 636		; 0000027cH
  02bd9	a1 00 00 00 00	 mov	 eax, DWORD PTR ___security_cookie
  02bde	33 c5		 xor	 eax, ebp
  02be0	89 45 fc	 mov	 DWORD PTR __$ArrayPad$[ebp], eax
  02be3	53		 push	 ebx
  02be4	56		 push	 esi
  02be5	57		 push	 edi

; 1265 : 	if ( lpMsg->btFlag == G_TYPE_GUARD )

  02be6	8b 45 08	 mov	 eax, DWORD PTR _lpMsg$[ebp]
  02be9	0f b6 48 03	 movzx	 ecx, BYTE PTR [eax+3]
  02bed	83 f9 01	 cmp	 ecx, 1
  02bf0	0f 85 1a 01 00
	00		 jne	 $LN15@DGGuildAns@2

; 1266 : 	{
; 1267 : 		_GUILD_INFO_STRUCT * lpNode = Guild.SearchGuild(lpMsg->szGuildName);

  02bf6	8b 45 08	 mov	 eax, DWORD PTR _lpMsg$[ebp]
  02bf9	83 c0 08	 add	 eax, 8
  02bfc	50		 push	 eax
  02bfd	b9 00 00 00 00	 mov	 ecx, OFFSET ?Guild@@3VCGuildClass@@A ; Guild
  02c02	e8 00 00 00 00	 call	 ?SearchGuild@CGuildClass@@QAEPAU_GUILD_INFO_STRUCT@@PAD@Z ; CGuildClass::SearchGuild
  02c07	89 45 f8	 mov	 DWORD PTR _lpNode$232550[ebp], eax

; 1268 : 
; 1269 : 		if ( lpNode == NULL )

  02c0a	83 7d f8 00	 cmp	 DWORD PTR _lpNode$232550[ebp], 0
  02c0e	75 07		 jne	 SHORT $LN14@DGGuildAns@2

; 1270 : 		{
; 1271 : 			lpMsg->btResult = 0;

  02c10	8b 45 08	 mov	 eax, DWORD PTR _lpMsg$[ebp]
  02c13	c6 40 07 00	 mov	 BYTE PTR [eax+7], 0
$LN14@DGGuildAns@2:

; 1272 : 		}
; 1273 : 
; 1274 : 		PMSG_GUILD_ASSIGN_TYPE_RESULT pMsg = {0};

  02c17	c6 45 f0 00	 mov	 BYTE PTR _pMsg$232552[ebp], 0
  02c1b	33 c0		 xor	 eax, eax
  02c1d	89 45 f1	 mov	 DWORD PTR _pMsg$232552[ebp+1], eax

; 1275 : 
; 1276 : 		pMsg.h.set((LPBYTE)&pMsg, 0xE2, sizeof(PMSG_GUILD_ASSIGN_TYPE_RESULT));

  02c20	6a 05		 push	 5
  02c22	68 e2 00 00 00	 push	 226			; 000000e2H
  02c27	8d 45 f0	 lea	 eax, DWORD PTR _pMsg$232552[ebp]
  02c2a	50		 push	 eax
  02c2b	8d 4d f0	 lea	 ecx, DWORD PTR _pMsg$232552[ebp]
  02c2e	e8 00 00 00 00	 call	 ?set@PBMSG_HEAD@@QAEXPAEEE@Z ; PBMSG_HEAD::set

; 1277 : 		pMsg.btGuildType = lpMsg->btGuildType;

  02c33	8b 45 08	 mov	 eax, DWORD PTR _lpMsg$[ebp]
  02c36	8a 48 06	 mov	 cl, BYTE PTR [eax+6]
  02c39	88 4d f3	 mov	 BYTE PTR _pMsg$232552[ebp+3], cl

; 1278 : 		pMsg.btResult = lpMsg->btResult;

  02c3c	8b 45 08	 mov	 eax, DWORD PTR _lpMsg$[ebp]
  02c3f	8a 48 07	 mov	 cl, BYTE PTR [eax+7]
  02c42	88 4d f4	 mov	 BYTE PTR _pMsg$232552[ebp+4], cl

; 1279 : 
; 1280 : 		DataSend(lpMsg->wUserIndex, (LPBYTE)&pMsg,sizeof(pMsg));

  02c45	6a 05		 push	 5
  02c47	8d 45 f0	 lea	 eax, DWORD PTR _pMsg$232552[ebp]
  02c4a	50		 push	 eax
  02c4b	8b 4d 08	 mov	 ecx, DWORD PTR _lpMsg$[ebp]
  02c4e	0f b7 51 04	 movzx	 edx, WORD PTR [ecx+4]
  02c52	52		 push	 edx
  02c53	e8 00 00 00 00	 call	 ?DataSend@@YAHHPAEK@Z	; DataSend
  02c58	83 c4 0c	 add	 esp, 12			; 0000000cH

; 1281 : 
; 1282 : 		if ( lpMsg->btResult == G_ERROR_NONE )

  02c5b	8b 45 08	 mov	 eax, DWORD PTR _lpMsg$[ebp]
  02c5e	0f b6 48 07	 movzx	 ecx, BYTE PTR [eax+7]
  02c62	85 c9		 test	 ecx, ecx
  02c64	75 05		 jne	 SHORT $LN13@DGGuildAns@2

; 1283 : 		{
; 1284 : 			return;

  02c66	e9 ae 01 00 00	 jmp	 $LN16@DGGuildAns@2
$LN13@DGGuildAns@2:

; 1285 : 		}
; 1286 : 
; 1287 : 		Guild.SetGuildType(lpMsg->szGuildName, lpMsg->btGuildType);

  02c6b	8b 45 08	 mov	 eax, DWORD PTR _lpMsg$[ebp]
  02c6e	0f b6 48 06	 movzx	 ecx, BYTE PTR [eax+6]
  02c72	51		 push	 ecx
  02c73	8b 55 08	 mov	 edx, DWORD PTR _lpMsg$[ebp]
  02c76	83 c2 08	 add	 edx, 8
  02c79	52		 push	 edx
  02c7a	b9 00 00 00 00	 mov	 ecx, OFFSET ?Guild@@3VCGuildClass@@A ; Guild
  02c7f	e8 00 00 00 00	 call	 ?SetGuildType@CGuildClass@@QAEHPADH@Z ; CGuildClass::SetGuildType

; 1288 : 
; 1289 : 		for ( int i=0;i<MAX_USER_GUILD;i++)

  02c84	c7 45 ec 00 00
	00 00		 mov	 DWORD PTR _i$232557[ebp], 0
  02c8b	eb 09		 jmp	 SHORT $LN12@DGGuildAns@2
$LN11@DGGuildAns@2:
  02c8d	8b 45 ec	 mov	 eax, DWORD PTR _i$232557[ebp]
  02c90	83 c0 01	 add	 eax, 1
  02c93	89 45 ec	 mov	 DWORD PTR _i$232557[ebp], eax
$LN12@DGGuildAns@2:
  02c96	83 7d ec 50	 cmp	 DWORD PTR _i$232557[ebp], 80 ; 00000050H
  02c9a	7d 6f		 jge	 SHORT $LN10@DGGuildAns@2

; 1290 : 		{
; 1291 : 			if ( lpNode->Use[i] > 0 && lpNode->Index[i] >= 0)

  02c9c	8b 45 f8	 mov	 eax, DWORD PTR _lpNode$232550[ebp]
  02c9f	03 45 ec	 add	 eax, DWORD PTR _i$232557[ebp]
  02ca2	0f b6 88 40 04
	00 00		 movzx	 ecx, BYTE PTR [eax+1088]
  02ca9	85 c9		 test	 ecx, ecx
  02cab	7e 5c		 jle	 SHORT $LN9@DGGuildAns@2
  02cad	8b 45 ec	 mov	 eax, DWORD PTR _i$232557[ebp]
  02cb0	8b 4d f8	 mov	 ecx, DWORD PTR _lpNode$232550[ebp]
  02cb3	0f bf 94 41 a0
	03 00 00	 movsx	 edx, WORD PTR [ecx+eax*2+928]
  02cbb	85 d2		 test	 edx, edx
  02cbd	7c 4a		 jl	 SHORT $LN9@DGGuildAns@2

; 1292 : 			{
; 1293 : 				TNotice pNotice(0);

  02cbf	6a 00		 push	 0
  02cc1	8d 8d dc fe ff
	ff		 lea	 ecx, DWORD PTR _pNotice$232562[ebp]
  02cc7	e8 00 00 00 00	 call	 ??0TNotice@@QAE@E@Z	; TNotice::TNotice

; 1294 : 				pNotice.SendToUser(lpNode->Index[i], lMsg.Get(MSGGET(6, 187)), lpMsg->szGuildName, lpMsg->btGuildType);

  02ccc	8b 45 08	 mov	 eax, DWORD PTR _lpMsg$[ebp]
  02ccf	0f b6 48 06	 movzx	 ecx, BYTE PTR [eax+6]
  02cd3	51		 push	 ecx
  02cd4	8b 55 08	 mov	 edx, DWORD PTR _lpMsg$[ebp]
  02cd7	83 c2 08	 add	 edx, 8
  02cda	52		 push	 edx
  02cdb	68 bb 06 00 00	 push	 1723			; 000006bbH
  02ce0	b9 00 00 00 00	 mov	 ecx, OFFSET ?lMsg@@3VCMsg@@A ; lMsg
  02ce5	e8 00 00 00 00	 call	 ?Get@CMsg@@QAEPADH@Z	; CMsg::Get
  02cea	50		 push	 eax
  02ceb	8b 45 ec	 mov	 eax, DWORD PTR _i$232557[ebp]
  02cee	8b 4d f8	 mov	 ecx, DWORD PTR _lpNode$232550[ebp]
  02cf1	0f bf 94 41 a0
	03 00 00	 movsx	 edx, WORD PTR [ecx+eax*2+928]
  02cf9	52		 push	 edx
  02cfa	8d 85 dc fe ff
	ff		 lea	 eax, DWORD PTR _pNotice$232562[ebp]
  02d00	50		 push	 eax
  02d01	e8 00 00 00 00	 call	 ?SendToUser@TNotice@@QAAXHPADZZ ; TNotice::SendToUser
  02d06	83 c4 14	 add	 esp, 20			; 00000014H
$LN9@DGGuildAns@2:

; 1295 : 			}
; 1296 : 		}

  02d09	eb 82		 jmp	 SHORT $LN11@DGGuildAns@2
$LN10@DGGuildAns@2:

; 1297 : 	}
; 1298 : 	else if ( lpMsg->btFlag == G_TYPE_COMMON )

  02d0b	e9 09 01 00 00	 jmp	 $LN16@DGGuildAns@2
$LN15@DGGuildAns@2:
  02d10	8b 45 08	 mov	 eax, DWORD PTR _lpMsg$[ebp]
  02d13	0f b6 48 03	 movzx	 ecx, BYTE PTR [eax+3]
  02d17	85 c9		 test	 ecx, ecx
  02d19	0f 85 fa 00 00
	00		 jne	 $LN16@DGGuildAns@2

; 1299 : 	{
; 1300 : 		_GUILD_INFO_STRUCT * lpNode = Guild.SearchGuild(lpMsg->szGuildName);

  02d1f	8b 45 08	 mov	 eax, DWORD PTR _lpMsg$[ebp]
  02d22	83 c0 08	 add	 eax, 8
  02d25	50		 push	 eax
  02d26	b9 00 00 00 00	 mov	 ecx, OFFSET ?Guild@@3VCGuildClass@@A ; Guild
  02d2b	e8 00 00 00 00	 call	 ?SearchGuild@CGuildClass@@QAEPAU_GUILD_INFO_STRUCT@@PAD@Z ; CGuildClass::SearchGuild
  02d30	89 85 d8 fe ff
	ff		 mov	 DWORD PTR _lpNode$232565[ebp], eax

; 1301 : 
; 1302 : 		if ( lpNode == NULL )

  02d36	83 bd d8 fe ff
	ff 00		 cmp	 DWORD PTR _lpNode$232565[ebp], 0
  02d3d	75 05		 jne	 SHORT $LN6@DGGuildAns@2

; 1303 : 		{
; 1304 : 			return;

  02d3f	e9 d5 00 00 00	 jmp	 $LN16@DGGuildAns@2
$LN6@DGGuildAns@2:

; 1305 : 		}
; 1306 : 
; 1307 : 		Guild.SetGuildType(lpMsg->szGuildName, lpMsg->btGuildType);

  02d44	8b 45 08	 mov	 eax, DWORD PTR _lpMsg$[ebp]
  02d47	0f b6 48 06	 movzx	 ecx, BYTE PTR [eax+6]
  02d4b	51		 push	 ecx
  02d4c	8b 55 08	 mov	 edx, DWORD PTR _lpMsg$[ebp]
  02d4f	83 c2 08	 add	 edx, 8
  02d52	52		 push	 edx
  02d53	b9 00 00 00 00	 mov	 ecx, OFFSET ?Guild@@3VCGuildClass@@A ; Guild
  02d58	e8 00 00 00 00	 call	 ?SetGuildType@CGuildClass@@QAEHPADH@Z ; CGuildClass::SetGuildType

; 1308 : 
; 1309 : 		if ( lpMsg->btResult == G_ERROR_NONE )

  02d5d	8b 45 08	 mov	 eax, DWORD PTR _lpMsg$[ebp]
  02d60	0f b6 48 07	 movzx	 ecx, BYTE PTR [eax+7]
  02d64	85 c9		 test	 ecx, ecx
  02d66	75 05		 jne	 SHORT $LN5@DGGuildAns@2

; 1310 : 		{
; 1311 : 			return;

  02d68	e9 ac 00 00 00	 jmp	 $LN16@DGGuildAns@2
$LN5@DGGuildAns@2:

; 1312 : 		}		
; 1313 : 		
; 1314 : 		for ( int n=0;n<MAX_USER_GUILD;n++)

  02d6d	c7 85 d4 fe ff
	ff 00 00 00 00	 mov	 DWORD PTR _n$232568[ebp], 0
  02d77	eb 0f		 jmp	 SHORT $LN4@DGGuildAns@2
$LN3@DGGuildAns@2:
  02d79	8b 85 d4 fe ff
	ff		 mov	 eax, DWORD PTR _n$232568[ebp]
  02d7f	83 c0 01	 add	 eax, 1
  02d82	89 85 d4 fe ff
	ff		 mov	 DWORD PTR _n$232568[ebp], eax
$LN4@DGGuildAns@2:
  02d88	83 bd d4 fe ff
	ff 50		 cmp	 DWORD PTR _n$232568[ebp], 80 ; 00000050H
  02d8f	0f 8d 84 00 00
	00		 jge	 $LN16@DGGuildAns@2

; 1315 : 		{
; 1316 : 			if ( lpNode->Use[n] > 0 && lpNode->Index[n] >= 0)

  02d95	8b 85 d8 fe ff
	ff		 mov	 eax, DWORD PTR _lpNode$232565[ebp]
  02d9b	03 85 d4 fe ff
	ff		 add	 eax, DWORD PTR _n$232568[ebp]
  02da1	0f b6 88 40 04
	00 00		 movzx	 ecx, BYTE PTR [eax+1088]
  02da8	85 c9		 test	 ecx, ecx
  02daa	7e 68		 jle	 SHORT $LN1@DGGuildAns@2
  02dac	8b 85 d4 fe ff
	ff		 mov	 eax, DWORD PTR _n$232568[ebp]
  02db2	8b 8d d8 fe ff
	ff		 mov	 ecx, DWORD PTR _lpNode$232565[ebp]
  02db8	0f bf 94 41 a0
	03 00 00	 movsx	 edx, WORD PTR [ecx+eax*2+928]
  02dc0	85 d2		 test	 edx, edx
  02dc2	7c 50		 jl	 SHORT $LN1@DGGuildAns@2

; 1317 : 			{
; 1318 : 				TNotice _Notice(0);

  02dc4	6a 00		 push	 0
  02dc6	8d 8d c4 fd ff
	ff		 lea	 ecx, DWORD PTR __Notice$232573[ebp]
  02dcc	e8 00 00 00 00	 call	 ??0TNotice@@QAE@E@Z	; TNotice::TNotice

; 1319 : 				_Notice.SendToUser(lpNode->Index[n], lMsg.Get(MSGGET(6, 187)), lpMsg->szGuildName, lpMsg->btGuildType);

  02dd1	8b 45 08	 mov	 eax, DWORD PTR _lpMsg$[ebp]
  02dd4	0f b6 48 06	 movzx	 ecx, BYTE PTR [eax+6]
  02dd8	51		 push	 ecx
  02dd9	8b 55 08	 mov	 edx, DWORD PTR _lpMsg$[ebp]
  02ddc	83 c2 08	 add	 edx, 8
  02ddf	52		 push	 edx
  02de0	68 bb 06 00 00	 push	 1723			; 000006bbH
  02de5	b9 00 00 00 00	 mov	 ecx, OFFSET ?lMsg@@3VCMsg@@A ; lMsg
  02dea	e8 00 00 00 00	 call	 ?Get@CMsg@@QAEPADH@Z	; CMsg::Get
  02def	50		 push	 eax
  02df0	8b 85 d4 fe ff
	ff		 mov	 eax, DWORD PTR _n$232568[ebp]
  02df6	8b 8d d8 fe ff
	ff		 mov	 ecx, DWORD PTR _lpNode$232565[ebp]
  02dfc	0f bf 94 41 a0
	03 00 00	 movsx	 edx, WORD PTR [ecx+eax*2+928]
  02e04	52		 push	 edx
  02e05	8d 85 c4 fd ff
	ff		 lea	 eax, DWORD PTR __Notice$232573[ebp]
  02e0b	50		 push	 eax
  02e0c	e8 00 00 00 00	 call	 ?SendToUser@TNotice@@QAAXHPADZZ ; TNotice::SendToUser
  02e11	83 c4 14	 add	 esp, 20			; 00000014H
$LN1@DGGuildAns@2:

; 1320 : 			}
; 1321 : 		}

  02e14	e9 60 ff ff ff	 jmp	 $LN3@DGGuildAns@2
$LN16@DGGuildAns@2:

; 1322 : 	}
; 1323 : }

  02e19	5f		 pop	 edi
  02e1a	5e		 pop	 esi
  02e1b	5b		 pop	 ebx
  02e1c	8b 4d fc	 mov	 ecx, DWORD PTR __$ArrayPad$[ebp]
  02e1f	33 cd		 xor	 ecx, ebp
  02e21	e8 00 00 00 00	 call	 @__security_check_cookie@4
  02e26	8b e5		 mov	 esp, ebp
  02e28	5d		 pop	 ebp
  02e29	c3		 ret	 0
?DGGuildAnsAssignType@@YAXPAUEXSDHP_GUILD_ASSIGN_TYPE_RESULT@@@Z ENDP ; DGGuildAnsAssignType
_TEXT	ENDS
PUBLIC	__$ArrayPad$
PUBLIC	?GDRelationShipReqJoin@@YAXHHH@Z		; GDRelationShipReqJoin
; Function compile flags: /Odtp /ZI
_TEXT	SEGMENT
_pMsg$ = -32						; size = 20
_lpTargetGuildInfo$ = -12				; size = 4
_lpGuildInfo$ = -8					; size = 4
__$ArrayPad$ = -4					; size = 4
_aIndex$ = 8						; size = 4
_iTargetUserIndex$ = 12					; size = 4
_iRelationShipType$ = 16				; size = 4
?GDRelationShipReqJoin@@YAXHHH@Z PROC			; GDRelationShipReqJoin

; 1336 : {

  02e30	55		 push	 ebp
  02e31	8b ec		 mov	 ebp, esp
  02e33	83 ec 60	 sub	 esp, 96			; 00000060H
  02e36	a1 00 00 00 00	 mov	 eax, DWORD PTR ___security_cookie
  02e3b	33 c5		 xor	 eax, ebp
  02e3d	89 45 fc	 mov	 DWORD PTR __$ArrayPad$[ebp], eax
  02e40	53		 push	 ebx
  02e41	56		 push	 esi
  02e42	57		 push	 edi

; 1337 : 	_GUILD_INFO_STRUCT * lpGuildInfo = gObj[aIndex].lpGuild;

  02e43	8b 45 08	 mov	 eax, DWORD PTR _aIndex$[ebp]
  02e46	69 c0 38 2b 00
	00		 imul	 eax, 11064		; 00002b38H
  02e4c	8b 0d 00 00 00
	00		 mov	 ecx, DWORD PTR ?gObj@@3PAUOBJECTSTRUCT@@A ; gObj
  02e52	8b 94 01 38 04
	00 00		 mov	 edx, DWORD PTR [ecx+eax+1080]
  02e59	89 55 f8	 mov	 DWORD PTR _lpGuildInfo$[ebp], edx

; 1338 : 	_GUILD_INFO_STRUCT * lpTargetGuildInfo = gObj[iTargetUserIndex].lpGuild;

  02e5c	8b 45 0c	 mov	 eax, DWORD PTR _iTargetUserIndex$[ebp]
  02e5f	69 c0 38 2b 00
	00		 imul	 eax, 11064		; 00002b38H
  02e65	8b 0d 00 00 00
	00		 mov	 ecx, DWORD PTR ?gObj@@3PAUOBJECTSTRUCT@@A ; gObj
  02e6b	8b 94 01 38 04
	00 00		 mov	 edx, DWORD PTR [ecx+eax+1080]
  02e72	89 55 f4	 mov	 DWORD PTR _lpTargetGuildInfo$[ebp], edx

; 1339 : 
; 1340 : 	if ( !lpGuildInfo || !lpTargetGuildInfo )

  02e75	83 7d f8 00	 cmp	 DWORD PTR _lpGuildInfo$[ebp], 0
  02e79	74 06		 je	 SHORT $LN1@GDRelation
  02e7b	83 7d f4 00	 cmp	 DWORD PTR _lpTargetGuildInfo$[ebp], 0
  02e7f	75 05		 jne	 SHORT $LN2@GDRelation
$LN1@GDRelation:

; 1341 : 	{
; 1342 : 		return;

  02e81	e9 8b 00 00 00	 jmp	 $LN3@GDRelation
$LN2@GDRelation:

; 1343 : 	}
; 1344 : 
; 1345 : 	EXSDHP_RELATIONSHIP_JOIN_REQ pMsg = {0};

  02e86	c6 45 e0 00	 mov	 BYTE PTR _pMsg$[ebp], 0
  02e8a	33 c0		 xor	 eax, eax
  02e8c	89 45 e1	 mov	 DWORD PTR _pMsg$[ebp+1], eax
  02e8f	89 45 e5	 mov	 DWORD PTR _pMsg$[ebp+5], eax
  02e92	89 45 e9	 mov	 DWORD PTR _pMsg$[ebp+9], eax
  02e95	89 45 ed	 mov	 DWORD PTR _pMsg$[ebp+13], eax
  02e98	66 89 45 f1	 mov	 WORD PTR _pMsg$[ebp+17], ax
  02e9c	88 45 f3	 mov	 BYTE PTR _pMsg$[ebp+19], al

; 1346 : 
; 1347 : 	pMsg.h.set((LPBYTE)&pMsg, 0xE5, sizeof(EXSDHP_RELATIONSHIP_JOIN_REQ));

  02e9f	6a 14		 push	 20			; 00000014H
  02ea1	68 e5 00 00 00	 push	 229			; 000000e5H
  02ea6	8d 45 e0	 lea	 eax, DWORD PTR _pMsg$[ebp]
  02ea9	50		 push	 eax
  02eaa	8d 4d e0	 lea	 ecx, DWORD PTR _pMsg$[ebp]
  02ead	e8 00 00 00 00	 call	 ?set@PBMSG_HEAD@@QAEXPAEEE@Z ; PBMSG_HEAD::set

; 1348 : 	pMsg.wRequestUserIndex = aIndex;

  02eb2	66 8b 45 08	 mov	 ax, WORD PTR _aIndex$[ebp]
  02eb6	66 89 45 e4	 mov	 WORD PTR _pMsg$[ebp+4], ax

; 1349 : 	pMsg.wTargetUserIndex = iTargetUserIndex;

  02eba	66 8b 45 0c	 mov	 ax, WORD PTR _iTargetUserIndex$[ebp]
  02ebe	66 89 45 e6	 mov	 WORD PTR _pMsg$[ebp+6], ax

; 1350 : 	pMsg.btRelationShipType = iRelationShipType;

  02ec2	8a 45 10	 mov	 al, BYTE PTR _iRelationShipType$[ebp]
  02ec5	88 45 e8	 mov	 BYTE PTR _pMsg$[ebp+8], al

; 1351 : 	pMsg.iRequestGuildNum = gObj[aIndex].lpGuild->Number;

  02ec8	8b 45 08	 mov	 eax, DWORD PTR _aIndex$[ebp]
  02ecb	69 c0 38 2b 00
	00		 imul	 eax, 11064		; 00002b38H
  02ed1	8b 0d 00 00 00
	00		 mov	 ecx, DWORD PTR ?gObj@@3PAUOBJECTSTRUCT@@A ; gObj
  02ed7	8b 94 01 38 04
	00 00		 mov	 edx, DWORD PTR [ecx+eax+1080]
  02ede	8b 02		 mov	 eax, DWORD PTR [edx]
  02ee0	89 45 ec	 mov	 DWORD PTR _pMsg$[ebp+12], eax

; 1352 : 	pMsg.iTargetGuildNum = gObj[iTargetUserIndex].lpGuild->Number;

  02ee3	8b 45 0c	 mov	 eax, DWORD PTR _iTargetUserIndex$[ebp]
  02ee6	69 c0 38 2b 00
	00		 imul	 eax, 11064		; 00002b38H
  02eec	8b 0d 00 00 00
	00		 mov	 ecx, DWORD PTR ?gObj@@3PAUOBJECTSTRUCT@@A ; gObj
  02ef2	8b 94 01 38 04
	00 00		 mov	 edx, DWORD PTR [ecx+eax+1080]
  02ef9	8b 02		 mov	 eax, DWORD PTR [edx]
  02efb	89 45 f0	 mov	 DWORD PTR _pMsg$[ebp+16], eax

; 1353 : 
; 1354 : 	wsExDbCli.DataSend((char*)&pMsg, pMsg.h.size);

  02efe	0f b6 45 e1	 movzx	 eax, BYTE PTR _pMsg$[ebp+1]
  02f02	50		 push	 eax
  02f03	8d 4d e0	 lea	 ecx, DWORD PTR _pMsg$[ebp]
  02f06	51		 push	 ecx
  02f07	b9 00 00 00 00	 mov	 ecx, OFFSET ?wsExDbCli@@3VwsJoinServerCli@@A ; wsExDbCli
  02f0c	e8 00 00 00 00	 call	 ?DataSend@wsJoinServerCli@@QAEHPADH@Z ; wsJoinServerCli::DataSend
$LN3@GDRelation:

; 1355 : }

  02f11	5f		 pop	 edi
  02f12	5e		 pop	 esi
  02f13	5b		 pop	 ebx
  02f14	8b 4d fc	 mov	 ecx, DWORD PTR __$ArrayPad$[ebp]
  02f17	33 cd		 xor	 ecx, ebp
  02f19	e8 00 00 00 00	 call	 @__security_check_cookie@4
  02f1e	8b e5		 mov	 esp, ebp
  02f20	5d		 pop	 ebp
  02f21	c3		 ret	 0
?GDRelationShipReqJoin@@YAXHHH@Z ENDP			; GDRelationShipReqJoin
_TEXT	ENDS
PUBLIC	??_C@_0CK@CDNGEFAB@?$FLU?4System?$FN?$FLRival?$FN?$FLJoin?$FN?5?$CI?5?5?$CFs?5?$CJ?5@ ; `string'
PUBLIC	?SetGuildRival@_GUILD_INFO_STRUCT@@QAEXH@Z	; _GUILD_INFO_STRUCT::SetGuildRival
PUBLIC	??_C@_0EN@PFEKLNHO@?$FLU?4System?$FN?$FLUnion?$FN?$FLJoin?$FN?5?$CI?5Union?5@ ; `string'
PUBLIC	?SetGuildUnion@_GUILD_INFO_STRUCT@@QAEXH@Z	; _GUILD_INFO_STRUCT::SetGuildUnion
PUBLIC	__$ArrayPad$
;	COMDAT ??_C@_0CK@CDNGEFAB@?$FLU?4System?$FN?$FLRival?$FN?$FLJoin?$FN?5?$CI?5?5?$CFs?5?$CJ?5@
CONST	SEGMENT
??_C@_0CK@CDNGEFAB@?$FLU?4System?$FN?$FLRival?$FN?$FLJoin?$FN?5?$CI?5?5?$CFs?5?$CJ?5@ DB '['
	DB	'U.System][Rival][Join] (  %s ) vs ( %s )', 00H ; `string'
CONST	ENDS
;	COMDAT ??_C@_0EN@PFEKLNHO@?$FLU?4System?$FN?$FLUnion?$FN?$FLJoin?$FN?5?$CI?5Union?5@
CONST	SEGMENT
??_C@_0EN@PFEKLNHO@?$FLU?4System?$FN?$FLUnion?$FN?$FLJoin?$FN?5?$CI?5Union?5@ DB '['
	DB	'U.System][Union][Join] ( Union Master Guild: %s ), (Union Mem'
	DB	'ber Guild: %s)', 00H			; `string'
; Function compile flags: /Odtp /ZI
CONST	ENDS
_TEXT	SEGMENT
__Notice$232651 = -572					; size = 272
_n$232645 = -300					; size = 4
__Notice$232641 = -296					; size = 272
_n$232635 = -24						; size = 4
_pMsg$232608 = -20					; size = 8
_lpTargetGuild$ = -12					; size = 4
_lpReqGuild$ = -8					; size = 4
__$ArrayPad$ = -4					; size = 4
_lpMsg$ = 8						; size = 4
?DGRelationShipAnsJoin@@YAXPAUEXSDHP_RELATIONSHIP_JOIN_RESULT@@@Z PROC ; DGRelationShipAnsJoin

; 1358 : {

  02f30	55		 push	 ebp
  02f31	8b ec		 mov	 ebp, esp
  02f33	81 ec 7c 02 00
	00		 sub	 esp, 636		; 0000027cH
  02f39	a1 00 00 00 00	 mov	 eax, DWORD PTR ___security_cookie
  02f3e	33 c5		 xor	 eax, ebp
  02f40	89 45 fc	 mov	 DWORD PTR __$ArrayPad$[ebp], eax
  02f43	53		 push	 ebx
  02f44	56		 push	 esi
  02f45	57		 push	 edi

; 1359 : 	_GUILD_INFO_STRUCT * lpReqGuild = Guild.SearchGuild_Number(lpMsg->iRequestGuildNum);

  02f46	8b 45 08	 mov	 eax, DWORD PTR _lpMsg$[ebp]
  02f49	8b 48 0c	 mov	 ecx, DWORD PTR [eax+12]
  02f4c	51		 push	 ecx
  02f4d	b9 00 00 00 00	 mov	 ecx, OFFSET ?Guild@@3VCGuildClass@@A ; Guild
  02f52	e8 00 00 00 00	 call	 ?SearchGuild_Number@CGuildClass@@QAEPAU_GUILD_INFO_STRUCT@@H@Z ; CGuildClass::SearchGuild_Number
  02f57	89 45 f8	 mov	 DWORD PTR _lpReqGuild$[ebp], eax

; 1360 : 	_GUILD_INFO_STRUCT * lpTargetGuild = Guild.SearchGuild_Number(lpMsg->iTargetGuildNum);

  02f5a	8b 45 08	 mov	 eax, DWORD PTR _lpMsg$[ebp]
  02f5d	8b 48 10	 mov	 ecx, DWORD PTR [eax+16]
  02f60	51		 push	 ecx
  02f61	b9 00 00 00 00	 mov	 ecx, OFFSET ?Guild@@3VCGuildClass@@A ; Guild
  02f66	e8 00 00 00 00	 call	 ?SearchGuild_Number@CGuildClass@@QAEPAU_GUILD_INFO_STRUCT@@H@Z ; CGuildClass::SearchGuild_Number
  02f6b	89 45 f4	 mov	 DWORD PTR _lpTargetGuild$[ebp], eax

; 1361 : 
; 1362 : 	if ( lpMsg->btFlag == 1 )

  02f6e	8b 45 08	 mov	 eax, DWORD PTR _lpMsg$[ebp]
  02f71	0f b6 48 03	 movzx	 ecx, BYTE PTR [eax+3]
  02f75	83 f9 01	 cmp	 ecx, 1
  02f78	0f 85 d0 00 00
	00		 jne	 $LN30@DGRelation

; 1363 : 	{
; 1364 : 		if ( !lpReqGuild || !lpTargetGuild )

  02f7e	83 7d f8 00	 cmp	 DWORD PTR _lpReqGuild$[ebp], 0
  02f82	74 06		 je	 SHORT $LN28@DGRelation
  02f84	83 7d f4 00	 cmp	 DWORD PTR _lpTargetGuild$[ebp], 0
  02f88	75 07		 jne	 SHORT $LN29@DGRelation
$LN28@DGRelation:

; 1365 : 		{
; 1366 : 			lpMsg->btResult = 0;

  02f8a	8b 45 08	 mov	 eax, DWORD PTR _lpMsg$[ebp]
  02f8d	c6 40 08 00	 mov	 BYTE PTR [eax+8], 0
$LN29@DGRelation:

; 1367 : 		}
; 1368 : 
; 1369 : 		PMSG_RELATIONSHIP_JOIN_BREAKOFF_ANS pMsg ={0};

  02f91	c6 45 ec 00	 mov	 BYTE PTR _pMsg$232608[ebp], 0
  02f95	33 c0		 xor	 eax, eax
  02f97	89 45 ed	 mov	 DWORD PTR _pMsg$232608[ebp+1], eax
  02f9a	66 89 45 f1	 mov	 WORD PTR _pMsg$232608[ebp+5], ax
  02f9e	88 45 f3	 mov	 BYTE PTR _pMsg$232608[ebp+7], al

; 1370 : 
; 1371 : 		pMsg.h.set((LPBYTE)&pMsg, 0xE6, sizeof(pMsg));

  02fa1	6a 08		 push	 8
  02fa3	68 e6 00 00 00	 push	 230			; 000000e6H
  02fa8	8d 45 ec	 lea	 eax, DWORD PTR _pMsg$232608[ebp]
  02fab	50		 push	 eax
  02fac	8d 4d ec	 lea	 ecx, DWORD PTR _pMsg$232608[ebp]
  02faf	e8 00 00 00 00	 call	 ?set@PBMSG_HEAD@@QAEXPAEEE@Z ; PBMSG_HEAD::set

; 1372 : 		pMsg.btResult = lpMsg->btResult;

  02fb4	8b 45 08	 mov	 eax, DWORD PTR _lpMsg$[ebp]
  02fb7	8a 48 08	 mov	 cl, BYTE PTR [eax+8]
  02fba	88 4d f1	 mov	 BYTE PTR _pMsg$232608[ebp+5], cl

; 1373 : 		pMsg.btRequestType = G_RELATION_OPERATION_JOIN;

  02fbd	c6 45 f0 01	 mov	 BYTE PTR _pMsg$232608[ebp+4], 1

; 1374 : 		pMsg.btRelationShipType = lpMsg->btRelationShipType;

  02fc1	8b 45 08	 mov	 eax, DWORD PTR _lpMsg$[ebp]
  02fc4	8a 48 09	 mov	 cl, BYTE PTR [eax+9]
  02fc7	88 4d ef	 mov	 BYTE PTR _pMsg$232608[ebp+3], cl

; 1375 : 		pMsg.btTargetUserIndexH = SET_NUMBERH(lpMsg->wTargetUserIndex);

  02fca	8b 45 08	 mov	 eax, DWORD PTR _lpMsg$[ebp]
  02fcd	0f b7 48 06	 movzx	 ecx, WORD PTR [eax+6]
  02fd1	c1 e9 08	 shr	 ecx, 8
  02fd4	88 4d f2	 mov	 BYTE PTR _pMsg$232608[ebp+6], cl

; 1376 : 		pMsg.btTargetUserIndexL = SET_NUMBERL(lpMsg->wTargetUserIndex);

  02fd7	8b 45 08	 mov	 eax, DWORD PTR _lpMsg$[ebp]
  02fda	0f b7 48 06	 movzx	 ecx, WORD PTR [eax+6]
  02fde	81 e1 ff 00 00
	00		 and	 ecx, 255		; 000000ffH
  02fe4	88 4d f3	 mov	 BYTE PTR _pMsg$232608[ebp+7], cl

; 1377 : 
; 1378 : 		DataSend(lpMsg->wRequestUserIndex, (LPBYTE)&pMsg, sizeof(pMsg));

  02fe7	6a 08		 push	 8
  02fe9	8d 45 ec	 lea	 eax, DWORD PTR _pMsg$232608[ebp]
  02fec	50		 push	 eax
  02fed	8b 4d 08	 mov	 ecx, DWORD PTR _lpMsg$[ebp]
  02ff0	0f b7 51 04	 movzx	 edx, WORD PTR [ecx+4]
  02ff4	52		 push	 edx
  02ff5	e8 00 00 00 00	 call	 ?DataSend@@YAHHPAEK@Z	; DataSend
  02ffa	83 c4 0c	 add	 esp, 12			; 0000000cH

; 1379 : 
; 1380 : 		pMsg.btTargetUserIndexH = SET_NUMBERH(lpMsg->wRequestUserIndex);

  02ffd	8b 45 08	 mov	 eax, DWORD PTR _lpMsg$[ebp]
  03000	0f b7 48 04	 movzx	 ecx, WORD PTR [eax+4]
  03004	c1 e9 08	 shr	 ecx, 8
  03007	88 4d f2	 mov	 BYTE PTR _pMsg$232608[ebp+6], cl

; 1381 : 		pMsg.btTargetUserIndexL = SET_NUMBERL(lpMsg->wRequestUserIndex);

  0300a	8b 45 08	 mov	 eax, DWORD PTR _lpMsg$[ebp]
  0300d	0f b7 48 04	 movzx	 ecx, WORD PTR [eax+4]
  03011	81 e1 ff 00 00
	00		 and	 ecx, 255		; 000000ffH
  03017	88 4d f3	 mov	 BYTE PTR _pMsg$232608[ebp+7], cl

; 1382 : 
; 1383 : 		DataSend(lpMsg->wTargetUserIndex, (LPBYTE)&pMsg, sizeof(pMsg));

  0301a	6a 08		 push	 8
  0301c	8d 45 ec	 lea	 eax, DWORD PTR _pMsg$232608[ebp]
  0301f	50		 push	 eax
  03020	8b 4d 08	 mov	 ecx, DWORD PTR _lpMsg$[ebp]
  03023	0f b7 51 06	 movzx	 edx, WORD PTR [ecx+6]
  03027	52		 push	 edx
  03028	e8 00 00 00 00	 call	 ?DataSend@@YAHHPAEK@Z	; DataSend
  0302d	83 c4 0c	 add	 esp, 12			; 0000000cH

; 1384 : 
; 1385 : 		if ( lpMsg->btResult == EX_RESULT_FAIL ||lpMsg->btResult == EX_RESULT_FAIL_FOR_CASTLE )

  03030	8b 45 08	 mov	 eax, DWORD PTR _lpMsg$[ebp]
  03033	0f b6 48 08	 movzx	 ecx, BYTE PTR [eax+8]
  03037	85 c9		 test	 ecx, ecx
  03039	74 0c		 je	 SHORT $LN26@DGRelation
  0303b	8b 45 08	 mov	 eax, DWORD PTR _lpMsg$[ebp]
  0303e	0f b6 48 08	 movzx	 ecx, BYTE PTR [eax+8]
  03042	83 f9 10	 cmp	 ecx, 16			; 00000010H
  03045	75 05		 jne	 SHORT $LN27@DGRelation
$LN26@DGRelation:

; 1386 : 			return;

  03047	e9 d3 02 00 00	 jmp	 $LN31@DGRelation
$LN27@DGRelation:

; 1387 : 
; 1388 : 	}

  0304c	eb 38		 jmp	 SHORT $LN25@DGRelation
$LN30@DGRelation:

; 1389 : 	else if ( lpMsg->btFlag == 0 )

  0304e	8b 45 08	 mov	 eax, DWORD PTR _lpMsg$[ebp]
  03051	0f b6 48 03	 movzx	 ecx, BYTE PTR [eax+3]
  03055	85 c9		 test	 ecx, ecx
  03057	75 2d		 jne	 SHORT $LN25@DGRelation

; 1390 : 	{
; 1391 : 		if ( !lpReqGuild || !lpTargetGuild )

  03059	83 7d f8 00	 cmp	 DWORD PTR _lpReqGuild$[ebp], 0
  0305d	74 06		 je	 SHORT $LN22@DGRelation
  0305f	83 7d f4 00	 cmp	 DWORD PTR _lpTargetGuild$[ebp], 0
  03063	75 05		 jne	 SHORT $LN23@DGRelation
$LN22@DGRelation:

; 1392 : 			return;

  03065	e9 b5 02 00 00	 jmp	 $LN31@DGRelation
$LN23@DGRelation:

; 1393 : 
