; Listing generated by Microsoft (R) Optimizing Compiler Version 16.00.40219.01 

	TITLE	D:\Projects\ExTeam6.3\Source\GameServer\GameServer\EledoradoEvent.cpp
	.686P
	.XMM
	include listing.inc
	.model	flat

INCLUDELIB LIBCMT
INCLUDELIB OLDNAMES

_DATA	SEGMENT
_g_iNpcUpDfLevel_CGATE DD 01H
	DD	02H
	DD	02dc6c0H
	DD	02H
	DD	03H
	DD	02dc6c0H
	DD	03H
	DD	04H
	DD	02dc6c0H
_g_iNpcUpDfLevel_CSTATUE DD 01H
	DD	03H
	DD	02dc6c0H
	DD	02H
	DD	05H
	DD	02dc6c0H
	DD	03H
	DD	07H
	DD	02dc6c0H
_g_iNpcUpMaxHP_CGATE DD 02625a0H
	DD	02H
	DD	0f4240H
	DD	03567e0H
	DD	03H
	DD	0f4240H
	DD	04f5880H
	DD	04H
	DD	0f4240H
_g_iNpcUpMaxHP_CSTATUE DD 02191c0H
	DD	03H
	DD	0f4240H
	DD	033e140H
	DD	05H
	DD	0f4240H
	DD	04c4b40H
	DD	07H
	DD	0f4240H
_g_iNpcUpRgLevel_CSTATUE DD 01H
	DD	03H
	DD	04c4b40H
	DD	02H
	DD	05H
	DD	04c4b40H
	DD	03H
	DD	07H
	DD	04c4b40H
_g_iCsUserReSpawnArea DD 023H
	DD	011H
	DD	090H
	DD	030H
	DD	04aH
	DD	090H
	DD	073H
	DD	09aH
	DD	023H
	DD	011H
	DD	090H
	DD	030H
_g_iNpcDefense_CGATE DD 064H
	DD	0b4H
	DD	012cH
	DD	0208H
_g_iNpcDefense_CSTATUE DD 050H
	DD	0b4H
	DD	0154H
	DD	0226H
_g_iCastleWallStepAxisY DD 071H
	DD	0a0H
	DD	0cbH
_DATA	ENDS
PUBLIC	??_H@YGXPAXIHP6EPAX0@Z@Z			; `vector constructor iterator'
; Function compile flags: /Odtp /ZI
;	COMDAT ??_H@YGXPAXIHP6EPAX0@Z@Z
_TEXT	SEGMENT
___t$ = 8						; size = 4
___s$ = 12						; size = 4
___n$ = 16						; size = 4
___f$ = 20						; size = 4
??_H@YGXPAXIHP6EPAX0@Z@Z PROC				; `vector constructor iterator', COMDAT
  00000	55		 push	 ebp
  00001	8b ec		 mov	 ebp, esp
  00003	83 ec 40	 sub	 esp, 64			; 00000040H
  00006	53		 push	 ebx
  00007	56		 push	 esi
  00008	57		 push	 edi
$LN2@vector:
  00009	8b 45 10	 mov	 eax, DWORD PTR ___n$[ebp]
  0000c	83 e8 01	 sub	 eax, 1
  0000f	89 45 10	 mov	 DWORD PTR ___n$[ebp], eax
  00012	78 11		 js	 SHORT $LN3@vector
  00014	8b 4d 08	 mov	 ecx, DWORD PTR ___t$[ebp]
  00017	ff 55 14	 call	 DWORD PTR ___f$[ebp]
  0001a	8b 45 08	 mov	 eax, DWORD PTR ___t$[ebp]
  0001d	03 45 0c	 add	 eax, DWORD PTR ___s$[ebp]
  00020	89 45 08	 mov	 DWORD PTR ___t$[ebp], eax
  00023	eb e4		 jmp	 SHORT $LN2@vector
$LN3@vector:
  00025	5f		 pop	 edi
  00026	5e		 pop	 esi
  00027	5b		 pop	 ebx
  00028	8b e5		 mov	 esp, ebp
  0002a	5d		 pop	 ebp
  0002b	c2 10 00	 ret	 16			; 00000010H
??_H@YGXPAXIHP6EPAX0@Z@Z ENDP				; `vector constructor iterator'
_TEXT	ENDS
PUBLIC	??_7CEledoradoEvent@@6B@			; CEledoradoEvent::`vftable'
PUBLIC	??0CEledoradoEvent@@QAE@XZ			; CEledoradoEvent::CEledoradoEvent
PUBLIC	??_R4CEledoradoEvent@@6B@			; CEledoradoEvent::`RTTI Complete Object Locator'
PUBLIC	??_R0?AVCEledoradoEvent@@@8			; CEledoradoEvent `RTTI Type Descriptor'
PUBLIC	??_R3CEledoradoEvent@@8				; CEledoradoEvent::`RTTI Class Hierarchy Descriptor'
PUBLIC	??_R2CEledoradoEvent@@8				; CEledoradoEvent::`RTTI Base Class Array'
PUBLIC	??_R1A@?0A@EA@CEledoradoEvent@@8		; CEledoradoEvent::`RTTI Base Class Descriptor at (0,-1,0,64)'
EXTRN	??_7type_info@@6B@:QWORD			; type_info::`vftable'
EXTRN	??_ECEledoradoEvent@@UAEPAXI@Z:PROC		; CEledoradoEvent::`vector deleting destructor'
;	COMDAT ??_R1A@?0A@EA@CEledoradoEvent@@8
; File d:\projects\exteam6.3\source\gameserver\gameserver\eledoradoevent.cpp
rdata$r	SEGMENT
??_R1A@?0A@EA@CEledoradoEvent@@8 DD FLAT:??_R0?AVCEledoradoEvent@@@8 ; CEledoradoEvent::`RTTI Base Class Descriptor at (0,-1,0,64)'
	DD	00H
	DD	00H
	DD	0ffffffffH
	DD	00H
	DD	040H
	DD	FLAT:??_R3CEledoradoEvent@@8
rdata$r	ENDS
;	COMDAT ??_R2CEledoradoEvent@@8
rdata$r	SEGMENT
??_R2CEledoradoEvent@@8 DD FLAT:??_R1A@?0A@EA@CEledoradoEvent@@8 ; CEledoradoEvent::`RTTI Base Class Array'
rdata$r	ENDS
;	COMDAT ??_R3CEledoradoEvent@@8
rdata$r	SEGMENT
??_R3CEledoradoEvent@@8 DD 00H				; CEledoradoEvent::`RTTI Class Hierarchy Descriptor'
	DD	00H
	DD	01H
	DD	FLAT:??_R2CEledoradoEvent@@8
rdata$r	ENDS
;	COMDAT ??_R0?AVCEledoradoEvent@@@8
_DATA	SEGMENT
??_R0?AVCEledoradoEvent@@@8 DD FLAT:??_7type_info@@6B@	; CEledoradoEvent `RTTI Type Descriptor'
	DD	00H
	DB	'.?AVCEledoradoEvent@@', 00H
_DATA	ENDS
;	COMDAT ??_R4CEledoradoEvent@@6B@
rdata$r	SEGMENT
??_R4CEledoradoEvent@@6B@ DD 00H			; CEledoradoEvent::`RTTI Complete Object Locator'
	DD	00H
	DD	00H
	DD	FLAT:??_R0?AVCEledoradoEvent@@@8
	DD	FLAT:??_R3CEledoradoEvent@@8
rdata$r	ENDS
;	COMDAT ??_7CEledoradoEvent@@6B@
CONST	SEGMENT
??_7CEledoradoEvent@@6B@ DD FLAT:??_R4CEledoradoEvent@@6B@ ; CEledoradoEvent::`vftable'
	DD	FLAT:??_ECEledoradoEvent@@UAEPAXI@Z
; Function compile flags: /Odtp /ZI
CONST	ENDS
_TEXT	SEGMENT
_this$ = -4						; size = 4
??0CEledoradoEvent@@QAE@XZ PROC				; CEledoradoEvent::CEledoradoEvent
; _this$ = ecx

; 14   : {

  00000	55		 push	 ebp
  00001	8b ec		 mov	 ebp, esp
  00003	83 ec 44	 sub	 esp, 68			; 00000044H
  00006	53		 push	 ebx
  00007	56		 push	 esi
  00008	57		 push	 edi
  00009	89 4d fc	 mov	 DWORD PTR _this$[ebp], ecx
  0000c	8b 45 fc	 mov	 eax, DWORD PTR _this$[ebp]
  0000f	c7 00 00 00 00
	00		 mov	 DWORD PTR [eax], OFFSET ??_7CEledoradoEvent@@6B@

; 15   : 	this->GoldGoblenEventStartTime = 0;

  00015	8b 45 fc	 mov	 eax, DWORD PTR _this$[ebp]
  00018	c7 40 08 00 00
	00 00		 mov	 DWORD PTR [eax+8], 0

; 16   : 	this->TitanEventStartTime = 0;

  0001f	8b 45 fc	 mov	 eax, DWORD PTR _this$[ebp]
  00022	c7 40 0c 00 00
	00 00		 mov	 DWORD PTR [eax+12], 0

; 17   : 	this->GoldDerconEventStartTime = 0;

  00029	8b 45 fc	 mov	 eax, DWORD PTR _this$[ebp]
  0002c	c7 40 10 00 00
	00 00		 mov	 DWORD PTR [eax+16], 0

; 18   : 	this->DevilLizardKingEventStartTime = 0;

  00033	8b 45 fc	 mov	 eax, DWORD PTR _this$[ebp]
  00036	c7 40 14 00 00
	00 00		 mov	 DWORD PTR [eax+20], 0

; 19   : 	this->KanturEventStartTime = 0;

  0003d	8b 45 fc	 mov	 eax, DWORD PTR _this$[ebp]
  00040	c7 40 18 00 00
	00 00		 mov	 DWORD PTR [eax+24], 0

; 20   : 	//Season 4.5 addon start
; 21   : 	this->GoldenRabbitRegenTime = 0;

  00047	8b 45 fc	 mov	 eax, DWORD PTR _this$[ebp]
  0004a	c7 40 1c 00 00
	00 00		 mov	 DWORD PTR [eax+28], 0

; 22   : 	this->GoldenDarkKnightRegenTime = 0;

  00051	8b 45 fc	 mov	 eax, DWORD PTR _this$[ebp]
  00054	c7 40 20 00 00
	00 00		 mov	 DWORD PTR [eax+32], 0

; 23   : 	this->GoldenDevilRegenTime = 0;

  0005b	8b 45 fc	 mov	 eax, DWORD PTR _this$[ebp]
  0005e	c7 40 24 00 00
	00 00		 mov	 DWORD PTR [eax+36], 0

; 24   : 	this->GoldenMonsterRegenTime = 0;

  00065	8b 45 fc	 mov	 eax, DWORD PTR _this$[ebp]
  00068	c7 40 28 00 00
	00 00		 mov	 DWORD PTR [eax+40], 0

; 25   : 	this->GoldenCrustRegenTime = 0;

  0006f	8b 45 fc	 mov	 eax, DWORD PTR _this$[ebp]
  00072	c7 40 2c 00 00
	00 00		 mov	 DWORD PTR [eax+44], 0

; 26   : 	this->GoldenSatirosRegenTime = 0;

  00079	8b 45 fc	 mov	 eax, DWORD PTR _this$[ebp]
  0007c	c7 40 30 00 00
	00 00		 mov	 DWORD PTR [eax+48], 0

; 27   : 	this->GoldenTwintailRegenTime = 0;

  00083	8b 45 fc	 mov	 eax, DWORD PTR _this$[ebp]
  00086	c7 40 34 00 00
	00 00		 mov	 DWORD PTR [eax+52], 0

; 28   : 	this->GoldenIronKnightRegenTime = 0;

  0008d	8b 45 fc	 mov	 eax, DWORD PTR _this$[ebp]
  00090	c7 40 38 00 00
	00 00		 mov	 DWORD PTR [eax+56], 0

; 29   : 	this->GoldenNeipinRegenTime = 0;

  00097	8b 45 fc	 mov	 eax, DWORD PTR _this$[ebp]
  0009a	c7 40 3c 00 00
	00 00		 mov	 DWORD PTR [eax+60], 0

; 30   : 	this->GoldenGreatDragonRegenTime = 0;

  000a1	8b 45 fc	 mov	 eax, DWORD PTR _this$[ebp]
  000a4	c7 40 40 00 00
	00 00		 mov	 DWORD PTR [eax+64], 0

; 31   : 	//Season 4.5 addon end
; 32   : 	this->m_BossGoldDerconMapNumber[0] = -1;

  000ab	8b 45 fc	 mov	 eax, DWORD PTR _this$[ebp]
  000ae	c7 40 6c ff ff
	ff ff		 mov	 DWORD PTR [eax+108], -1

; 33   : 	this->m_BossGoldDerconMapNumber[1] = -1;

  000b5	8b 45 fc	 mov	 eax, DWORD PTR _this$[ebp]
  000b8	c7 40 70 ff ff
	ff ff		 mov	 DWORD PTR [eax+112], -1

; 34   : 	this->m_BossGoldDerconMapNumber[2] = -1;

  000bf	8b 45 fc	 mov	 eax, DWORD PTR _this$[ebp]
  000c2	c7 40 74 ff ff
	ff ff		 mov	 DWORD PTR [eax+116], -1

; 35   : }

  000c9	8b 45 fc	 mov	 eax, DWORD PTR _this$[ebp]
  000cc	5f		 pop	 edi
  000cd	5e		 pop	 esi
  000ce	5b		 pop	 ebx
  000cf	8b e5		 mov	 esp, ebp
  000d1	5d		 pop	 ebp
  000d2	c3		 ret	 0
??0CEledoradoEvent@@QAE@XZ ENDP				; CEledoradoEvent::CEledoradoEvent
_TEXT	ENDS
PUBLIC	??1CEledoradoEvent@@UAE@XZ			; CEledoradoEvent::~CEledoradoEvent
EXTRN	??3@YAXPAX@Z:PROC				; operator delete
; Function compile flags: /Odtp /ZI
;	COMDAT ??_GCEledoradoEvent@@UAEPAXI@Z
_TEXT	SEGMENT
_this$ = -4						; size = 4
___flags$ = 8						; size = 4
??_GCEledoradoEvent@@UAEPAXI@Z PROC			; CEledoradoEvent::`scalar deleting destructor', COMDAT
; _this$ = ecx
  00000	55		 push	 ebp
  00001	8b ec		 mov	 ebp, esp
  00003	83 ec 44	 sub	 esp, 68			; 00000044H
  00006	53		 push	 ebx
  00007	56		 push	 esi
  00008	57		 push	 edi
  00009	89 4d fc	 mov	 DWORD PTR _this$[ebp], ecx
  0000c	8b 4d fc	 mov	 ecx, DWORD PTR _this$[ebp]
  0000f	e8 00 00 00 00	 call	 ??1CEledoradoEvent@@UAE@XZ ; CEledoradoEvent::~CEledoradoEvent
  00014	8b 45 08	 mov	 eax, DWORD PTR ___flags$[ebp]
  00017	83 e0 01	 and	 eax, 1
  0001a	74 0c		 je	 SHORT $LN1@scalar
  0001c	8b 45 fc	 mov	 eax, DWORD PTR _this$[ebp]
  0001f	50		 push	 eax
  00020	e8 00 00 00 00	 call	 ??3@YAXPAX@Z		; operator delete
  00025	83 c4 04	 add	 esp, 4
$LN1@scalar:
  00028	8b 45 fc	 mov	 eax, DWORD PTR _this$[ebp]
  0002b	5f		 pop	 edi
  0002c	5e		 pop	 esi
  0002d	5b		 pop	 ebx
  0002e	8b e5		 mov	 esp, ebp
  00030	5d		 pop	 ebp
  00031	c2 04 00	 ret	 4
??_GCEledoradoEvent@@UAEPAXI@Z ENDP			; CEledoradoEvent::`scalar deleting destructor'
; Function compile flags: /Odtp /ZI
_TEXT	ENDS
_TEXT	SEGMENT
_this$ = -4						; size = 4
??1CEledoradoEvent@@UAE@XZ PROC				; CEledoradoEvent::~CEledoradoEvent
; _this$ = ecx

; 38   : {

  000e0	55		 push	 ebp
  000e1	8b ec		 mov	 ebp, esp
  000e3	83 ec 44	 sub	 esp, 68			; 00000044H
  000e6	53		 push	 ebx
  000e7	56		 push	 esi
  000e8	57		 push	 edi
  000e9	89 4d fc	 mov	 DWORD PTR _this$[ebp], ecx
  000ec	8b 45 fc	 mov	 eax, DWORD PTR _this$[ebp]
  000ef	c7 00 00 00 00
	00		 mov	 DWORD PTR [eax], OFFSET ??_7CEledoradoEvent@@6B@

; 39   : 	return;
; 40   : }

  000f5	5f		 pop	 edi
  000f6	5e		 pop	 esi
  000f7	5b		 pop	 ebx
  000f8	8b e5		 mov	 esp, ebp
  000fa	5d		 pop	 ebp
  000fb	c3		 ret	 0
??1CEledoradoEvent@@UAE@XZ ENDP				; CEledoradoEvent::~CEledoradoEvent
_TEXT	ENDS
PUBLIC	?Init@CEledoradoEvent@@QAEXXZ			; CEledoradoEvent::Init
; Function compile flags: /Odtp /ZI
_TEXT	SEGMENT
_this$ = -4						; size = 4
?Init@CEledoradoEvent@@QAEXXZ PROC			; CEledoradoEvent::Init
; _this$ = ecx

; 43   : {

  00100	55		 push	 ebp
  00101	8b ec		 mov	 ebp, esp
  00103	83 ec 44	 sub	 esp, 68			; 00000044H
  00106	53		 push	 ebx
  00107	56		 push	 esi
  00108	57		 push	 edi
  00109	89 4d fc	 mov	 DWORD PTR _this$[ebp], ecx

; 44   : 	return;
; 45   : }

  0010c	5f		 pop	 edi
  0010d	5e		 pop	 esi
  0010e	5b		 pop	 ebx
  0010f	8b e5		 mov	 esp, ebp
  00111	5d		 pop	 ebp
  00112	c3		 ret	 0
?Init@CEledoradoEvent@@QAEXXZ ENDP			; CEledoradoEvent::Init
_TEXT	ENDS
PUBLIC	?SetEventState@CEledoradoEvent@@QAEXH@Z		; CEledoradoEvent::SetEventState
; Function compile flags: /Odtp /ZI
_TEXT	SEGMENT
_this$ = -4						; size = 4
_State$ = 8						; size = 4
?SetEventState@CEledoradoEvent@@QAEXH@Z PROC		; CEledoradoEvent::SetEventState
; _this$ = ecx

; 48   : {

  00120	55		 push	 ebp
  00121	8b ec		 mov	 ebp, esp
  00123	83 ec 44	 sub	 esp, 68			; 00000044H
  00126	53		 push	 ebx
  00127	56		 push	 esi
  00128	57		 push	 edi
  00129	89 4d fc	 mov	 DWORD PTR _this$[ebp], ecx

; 49   : 	this->EventState = State;

  0012c	8b 45 fc	 mov	 eax, DWORD PTR _this$[ebp]
  0012f	8b 4d 08	 mov	 ecx, DWORD PTR _State$[ebp]
  00132	89 48 04	 mov	 DWORD PTR [eax+4], ecx

; 50   : }

  00135	5f		 pop	 edi
  00136	5e		 pop	 esi
  00137	5b		 pop	 ebx
  00138	8b e5		 mov	 esp, ebp
  0013a	5d		 pop	 ebp
  0013b	c2 04 00	 ret	 4
?SetEventState@CEledoradoEvent@@QAEXH@Z ENDP		; CEledoradoEvent::SetEventState
_TEXT	ENDS
PUBLIC	?RegenGoldenGreatDragon@CEledoradoEvent@@QAEXXZ	; CEledoradoEvent::RegenGoldenGreatDragon
PUBLIC	?RegenGoldenNeipin@CEledoradoEvent@@QAEXXZ	; CEledoradoEvent::RegenGoldenNeipin
PUBLIC	?RegenGoldenIronKnight@CEledoradoEvent@@QAEXXZ	; CEledoradoEvent::RegenGoldenIronKnight
PUBLIC	?RegenGoldenTwintail@CEledoradoEvent@@QAEXXZ	; CEledoradoEvent::RegenGoldenTwintail
PUBLIC	?RegenGoldenSatiros@CEledoradoEvent@@QAEXXZ	; CEledoradoEvent::RegenGoldenSatiros
PUBLIC	?RegenGoldenCrust@CEledoradoEvent@@QAEXXZ	; CEledoradoEvent::RegenGoldenCrust
PUBLIC	?RegenGoldenMonster@CEledoradoEvent@@QAEXXZ	; CEledoradoEvent::RegenGoldenMonster
PUBLIC	?RegenGoldenDevil@CEledoradoEvent@@QAEXXZ	; CEledoradoEvent::RegenGoldenDevil
PUBLIC	?RegenGoldenDarkKnight@CEledoradoEvent@@QAEXXZ	; CEledoradoEvent::RegenGoldenDarkKnight
PUBLIC	?RegenGoldenRabbit@CEledoradoEvent@@QAEXXZ	; CEledoradoEvent::RegenGoldenRabbit
PUBLIC	?RegenKantur@CEledoradoEvent@@QAEXXZ		; CEledoradoEvent::RegenKantur
PUBLIC	?RegenDevilLizardKing@CEledoradoEvent@@QAEXXZ	; CEledoradoEvent::RegenDevilLizardKing
PUBLIC	?RegenGoldDercon@CEledoradoEvent@@QAEXXZ	; CEledoradoEvent::RegenGoldDercon
PUBLIC	?RegenTitan@CEledoradoEvent@@QAEXXZ		; CEledoradoEvent::RegenTitan
PUBLIC	?RegenGoldGoblen@CEledoradoEvent@@QAEXXZ	; CEledoradoEvent::RegenGoldGoblen
PUBLIC	?Run@CEledoradoEvent@@QAEXXZ			; CEledoradoEvent::Run
EXTRN	?gEledoradoGoldenGreatDragonRegenTime@@3HA:DWORD ; gEledoradoGoldenGreatDragonRegenTime
EXTRN	?gEledoradoGoldenNeipinRegenTime@@3HA:DWORD	; gEledoradoGoldenNeipinRegenTime
EXTRN	?gEledoradoGoldenIronKnightRegenTime@@3HA:DWORD	; gEledoradoGoldenIronKnightRegenTime
EXTRN	?gEledoradoGoldenTwintailRegenTime@@3HA:DWORD	; gEledoradoGoldenTwintailRegenTime
EXTRN	?gEledoradoGoldenSatirosRegenTime@@3HA:DWORD	; gEledoradoGoldenSatirosRegenTime
EXTRN	?gEledoradoGoldenCrustRegenTime@@3HA:DWORD	; gEledoradoGoldenCrustRegenTime
EXTRN	?gEledoradoGoldenMonsterRegenTime@@3HA:DWORD	; gEledoradoGoldenMonsterRegenTime
EXTRN	?gEledoradoGoldenDevilRegenTime@@3HA:DWORD	; gEledoradoGoldenDevilRegenTime
EXTRN	?gEledoradoGoldenDarkKnightRegenTime@@3HA:DWORD	; gEledoradoGoldenDarkKnightRegenTime
EXTRN	?gEledoradoGoldenRabbitRegenTime@@3HA:DWORD	; gEledoradoGoldenRabbitRegenTime
EXTRN	?gEledoradoDevilTantarosRegenTime@@3KA:DWORD	; gEledoradoDevilTantarosRegenTime
EXTRN	?gEledoradoDevilLizardKingRegenTime@@3KA:DWORD	; gEledoradoDevilLizardKingRegenTime
EXTRN	?gEledoradoGoldDerconRegenTime@@3KA:DWORD	; gEledoradoGoldDerconRegenTime
EXTRN	?gEledoradoTitanRegenTime@@3KA:DWORD		; gEledoradoTitanRegenTime
EXTRN	?gEledoradoGoldGoblenRegenTime@@3KA:DWORD	; gEledoradoGoldGoblenRegenTime
EXTRN	__imp__GetTickCount@0:PROC
; Function compile flags: /Odtp /ZI
_TEXT	SEGMENT
_Time$227632 = -24					; size = 4
_Time$227630 = -20					; size = 4
_ltime$227628 = -16					; size = 8
_today$227627 = -8					; size = 4
_this$ = -4						; size = 4
?Run@CEledoradoEvent@@QAEXXZ PROC			; CEledoradoEvent::Run
; _this$ = ecx

; 53   : {

  00140	55		 push	 ebp
  00141	8b ec		 mov	 ebp, esp
  00143	83 ec 58	 sub	 esp, 88			; 00000058H
  00146	53		 push	 ebx
  00147	56		 push	 esi
  00148	57		 push	 edi
  00149	89 4d fc	 mov	 DWORD PTR _this$[ebp], ecx

; 54   : 	if ( this->m_bMenualStart != FALSE )

  0014c	8b 45 fc	 mov	 eax, DWORD PTR _this$[ebp]
  0014f	83 78 68 00	 cmp	 DWORD PTR [eax+104], 0
  00153	74 05		 je	 SHORT $LN20@Run

; 55   : 	{
; 56   : 		return;

  00155	e9 dc 03 00 00	 jmp	 $LN21@Run
$LN20@Run:

; 57   : 	}
; 58   : 
; 59   : 	if ( this->EventState == 0 )

  0015a	8b 45 fc	 mov	 eax, DWORD PTR _this$[ebp]
  0015d	83 78 04 00	 cmp	 DWORD PTR [eax+4], 0
  00161	75 05		 jne	 SHORT $LN19@Run

; 60   : 	{
; 61   : 		return;

  00163	e9 ce 03 00 00	 jmp	 $LN21@Run
$LN19@Run:

; 62   : 	}
; 63   : 
; 64   : 	if ( this->GoldGoblenEventStartTime == 0 )

  00168	8b 45 fc	 mov	 eax, DWORD PTR _this$[ebp]
  0016b	83 78 08 00	 cmp	 DWORD PTR [eax+8], 0
  0016f	0f 85 42 01 00
	00		 jne	 $LN18@Run

; 65   : 	{
; 66   : 		tm * today;
; 67   : 		time_t ltime;
; 68   : 
; 69   : 		time(&ltime);

  00175	8d 45 f0	 lea	 eax, DWORD PTR _ltime$227628[ebp]
  00178	50		 push	 eax
  00179	e8 00 00 00 00	 call	 _time
  0017e	83 c4 04	 add	 esp, 4

; 70   : 		today = localtime(&ltime);

  00181	8d 45 f0	 lea	 eax, DWORD PTR _ltime$227628[ebp]
  00184	50		 push	 eax
  00185	e8 00 00 00 00	 call	 _localtime
  0018a	83 c4 04	 add	 esp, 4
  0018d	89 45 f8	 mov	 DWORD PTR _today$227627[ebp], eax

; 71   : 
; 72   : 		if ( today->tm_min >= 30 && today->tm_min  <= 35 )

  00190	8b 45 f8	 mov	 eax, DWORD PTR _today$227627[ebp]
  00193	83 78 04 1e	 cmp	 DWORD PTR [eax+4], 30	; 0000001eH
  00197	0f 8c 15 01 00
	00		 jl	 $LN17@Run
  0019d	8b 45 f8	 mov	 eax, DWORD PTR _today$227627[ebp]
  001a0	83 78 04 23	 cmp	 DWORD PTR [eax+4], 35	; 00000023H
  001a4	0f 8f 08 01 00
	00		 jg	 $LN17@Run

; 73   : 		{
; 74   : 			int Time = GetTickCount();

  001aa	ff 15 00 00 00
	00		 call	 DWORD PTR __imp__GetTickCount@0
  001b0	89 45 ec	 mov	 DWORD PTR _Time$227630[ebp], eax

; 75   : 
; 76   : 			this->GoldGoblenEventStartTime = Time;

  001b3	8b 45 fc	 mov	 eax, DWORD PTR _this$[ebp]
  001b6	8b 4d ec	 mov	 ecx, DWORD PTR _Time$227630[ebp]
  001b9	89 48 08	 mov	 DWORD PTR [eax+8], ecx

; 77   : 			this->RegenGoldGoblen();

  001bc	8b 4d fc	 mov	 ecx, DWORD PTR _this$[ebp]
  001bf	e8 00 00 00 00	 call	 ?RegenGoldGoblen@CEledoradoEvent@@QAEXXZ ; CEledoradoEvent::RegenGoldGoblen

; 78   : 
; 79   : 			this->TitanEventStartTime = Time;

  001c4	8b 45 fc	 mov	 eax, DWORD PTR _this$[ebp]
  001c7	8b 4d ec	 mov	 ecx, DWORD PTR _Time$227630[ebp]
  001ca	89 48 0c	 mov	 DWORD PTR [eax+12], ecx

; 80   : 			this->RegenTitan();

  001cd	8b 4d fc	 mov	 ecx, DWORD PTR _this$[ebp]
  001d0	e8 00 00 00 00	 call	 ?RegenTitan@CEledoradoEvent@@QAEXXZ ; CEledoradoEvent::RegenTitan

; 81   : 
; 82   : 			this->GoldDerconEventStartTime = Time;

  001d5	8b 45 fc	 mov	 eax, DWORD PTR _this$[ebp]
  001d8	8b 4d ec	 mov	 ecx, DWORD PTR _Time$227630[ebp]
  001db	89 48 10	 mov	 DWORD PTR [eax+16], ecx

; 83   : 			this->RegenGoldDercon();

  001de	8b 4d fc	 mov	 ecx, DWORD PTR _this$[ebp]
  001e1	e8 00 00 00 00	 call	 ?RegenGoldDercon@CEledoradoEvent@@QAEXXZ ; CEledoradoEvent::RegenGoldDercon

; 84   : 
; 85   : 			this->DevilLizardKingEventStartTime = Time;

  001e6	8b 45 fc	 mov	 eax, DWORD PTR _this$[ebp]
  001e9	8b 4d ec	 mov	 ecx, DWORD PTR _Time$227630[ebp]
  001ec	89 48 14	 mov	 DWORD PTR [eax+20], ecx

; 86   : 			this->RegenDevilLizardKing();

  001ef	8b 4d fc	 mov	 ecx, DWORD PTR _this$[ebp]
  001f2	e8 00 00 00 00	 call	 ?RegenDevilLizardKing@CEledoradoEvent@@QAEXXZ ; CEledoradoEvent::RegenDevilLizardKing

; 87   : 
; 88   : 			this->KanturEventStartTime = Time;

  001f7	8b 45 fc	 mov	 eax, DWORD PTR _this$[ebp]
  001fa	8b 4d ec	 mov	 ecx, DWORD PTR _Time$227630[ebp]
  001fd	89 48 18	 mov	 DWORD PTR [eax+24], ecx

; 89   : 			this->RegenKantur();

  00200	8b 4d fc	 mov	 ecx, DWORD PTR _this$[ebp]
  00203	e8 00 00 00 00	 call	 ?RegenKantur@CEledoradoEvent@@QAEXXZ ; CEledoradoEvent::RegenKantur

; 90   : 
; 91   : 			//Season 4.5 addon start
; 92   : 			this->GoldenRabbitRegenTime = Time;

  00208	8b 45 fc	 mov	 eax, DWORD PTR _this$[ebp]
  0020b	8b 4d ec	 mov	 ecx, DWORD PTR _Time$227630[ebp]
  0020e	89 48 1c	 mov	 DWORD PTR [eax+28], ecx

; 93   : 			this->RegenGoldenRabbit();

  00211	8b 4d fc	 mov	 ecx, DWORD PTR _this$[ebp]
  00214	e8 00 00 00 00	 call	 ?RegenGoldenRabbit@CEledoradoEvent@@QAEXXZ ; CEledoradoEvent::RegenGoldenRabbit

; 94   : 
; 95   : 			this->GoldenDarkKnightRegenTime = Time;

  00219	8b 45 fc	 mov	 eax, DWORD PTR _this$[ebp]
  0021c	8b 4d ec	 mov	 ecx, DWORD PTR _Time$227630[ebp]
  0021f	89 48 20	 mov	 DWORD PTR [eax+32], ecx

; 96   : 			this->RegenGoldenDarkKnight();

  00222	8b 4d fc	 mov	 ecx, DWORD PTR _this$[ebp]
  00225	e8 00 00 00 00	 call	 ?RegenGoldenDarkKnight@CEledoradoEvent@@QAEXXZ ; CEledoradoEvent::RegenGoldenDarkKnight

; 97   : 
; 98   : 			this->GoldenDevilRegenTime = Time;

  0022a	8b 45 fc	 mov	 eax, DWORD PTR _this$[ebp]
  0022d	8b 4d ec	 mov	 ecx, DWORD PTR _Time$227630[ebp]
  00230	89 48 24	 mov	 DWORD PTR [eax+36], ecx

; 99   : 			this->RegenGoldenDevil();

  00233	8b 4d fc	 mov	 ecx, DWORD PTR _this$[ebp]
  00236	e8 00 00 00 00	 call	 ?RegenGoldenDevil@CEledoradoEvent@@QAEXXZ ; CEledoradoEvent::RegenGoldenDevil

; 100  : 
; 101  : 			this->GoldenMonsterRegenTime = Time;

  0023b	8b 45 fc	 mov	 eax, DWORD PTR _this$[ebp]
  0023e	8b 4d ec	 mov	 ecx, DWORD PTR _Time$227630[ebp]
  00241	89 48 28	 mov	 DWORD PTR [eax+40], ecx

; 102  : 			this->RegenGoldenMonster();

  00244	8b 4d fc	 mov	 ecx, DWORD PTR _this$[ebp]
  00247	e8 00 00 00 00	 call	 ?RegenGoldenMonster@CEledoradoEvent@@QAEXXZ ; CEledoradoEvent::RegenGoldenMonster

; 103  : 
; 104  : 			this->GoldenCrustRegenTime = Time;

  0024c	8b 45 fc	 mov	 eax, DWORD PTR _this$[ebp]
  0024f	8b 4d ec	 mov	 ecx, DWORD PTR _Time$227630[ebp]
  00252	89 48 2c	 mov	 DWORD PTR [eax+44], ecx

; 105  : 			this->RegenGoldenCrust();

  00255	8b 4d fc	 mov	 ecx, DWORD PTR _this$[ebp]
  00258	e8 00 00 00 00	 call	 ?RegenGoldenCrust@CEledoradoEvent@@QAEXXZ ; CEledoradoEvent::RegenGoldenCrust

; 106  : 
; 107  : 			this->GoldenSatirosRegenTime = Time;

  0025d	8b 45 fc	 mov	 eax, DWORD PTR _this$[ebp]
  00260	8b 4d ec	 mov	 ecx, DWORD PTR _Time$227630[ebp]
  00263	89 48 30	 mov	 DWORD PTR [eax+48], ecx

; 108  : 			this->RegenGoldenSatiros();

  00266	8b 4d fc	 mov	 ecx, DWORD PTR _this$[ebp]
  00269	e8 00 00 00 00	 call	 ?RegenGoldenSatiros@CEledoradoEvent@@QAEXXZ ; CEledoradoEvent::RegenGoldenSatiros

; 109  : 
; 110  : 			this->GoldenTwintailRegenTime = Time;

  0026e	8b 45 fc	 mov	 eax, DWORD PTR _this$[ebp]
  00271	8b 4d ec	 mov	 ecx, DWORD PTR _Time$227630[ebp]
  00274	89 48 34	 mov	 DWORD PTR [eax+52], ecx

; 111  : 			this->RegenGoldenTwintail();

  00277	8b 4d fc	 mov	 ecx, DWORD PTR _this$[ebp]
  0027a	e8 00 00 00 00	 call	 ?RegenGoldenTwintail@CEledoradoEvent@@QAEXXZ ; CEledoradoEvent::RegenGoldenTwintail

; 112  : 
; 113  : 			this->GoldenIronKnightRegenTime = Time;

  0027f	8b 45 fc	 mov	 eax, DWORD PTR _this$[ebp]
  00282	8b 4d ec	 mov	 ecx, DWORD PTR _Time$227630[ebp]
  00285	89 48 38	 mov	 DWORD PTR [eax+56], ecx

; 114  : 			this->RegenGoldenIronKnight();

  00288	8b 4d fc	 mov	 ecx, DWORD PTR _this$[ebp]
  0028b	e8 00 00 00 00	 call	 ?RegenGoldenIronKnight@CEledoradoEvent@@QAEXXZ ; CEledoradoEvent::RegenGoldenIronKnight

; 115  : 
; 116  : 			this->GoldenNeipinRegenTime = Time;

  00290	8b 45 fc	 mov	 eax, DWORD PTR _this$[ebp]
  00293	8b 4d ec	 mov	 ecx, DWORD PTR _Time$227630[ebp]
  00296	89 48 3c	 mov	 DWORD PTR [eax+60], ecx

; 117  : 			this->RegenGoldenNeipin();

  00299	8b 4d fc	 mov	 ecx, DWORD PTR _this$[ebp]
  0029c	e8 00 00 00 00	 call	 ?RegenGoldenNeipin@CEledoradoEvent@@QAEXXZ ; CEledoradoEvent::RegenGoldenNeipin

; 118  : 
; 119  : 			this->GoldenGreatDragonRegenTime = Time;

  002a1	8b 45 fc	 mov	 eax, DWORD PTR _this$[ebp]
  002a4	8b 4d ec	 mov	 ecx, DWORD PTR _Time$227630[ebp]
  002a7	89 48 40	 mov	 DWORD PTR [eax+64], ecx

; 120  : 			this->RegenGoldenGreatDragon();

  002aa	8b 4d fc	 mov	 ecx, DWORD PTR _this$[ebp]
  002ad	e8 00 00 00 00	 call	 ?RegenGoldenGreatDragon@CEledoradoEvent@@QAEXXZ ; CEledoradoEvent::RegenGoldenGreatDragon
$LN17@Run:

; 121  : 
; 122  : 			//Season 4.5 addon end
; 123  : 		}
; 124  : 	}
; 125  : 	else

  002b2	e9 7f 02 00 00	 jmp	 $LN21@Run
$LN18@Run:

; 126  : 	{
; 127  : 		DWORD Time = GetTickCount();

  002b7	ff 15 00 00 00
	00		 call	 DWORD PTR __imp__GetTickCount@0
  002bd	89 45 e8	 mov	 DWORD PTR _Time$227632[ebp], eax

; 128  : 
; 129  : 		if ( ( Time - this->GoldGoblenEventStartTime ) > gEledoradoGoldGoblenRegenTime * 60000 )

  002c0	8b 45 fc	 mov	 eax, DWORD PTR _this$[ebp]
  002c3	8b 4d e8	 mov	 ecx, DWORD PTR _Time$227632[ebp]
  002c6	2b 48 08	 sub	 ecx, DWORD PTR [eax+8]
  002c9	8b 15 00 00 00
	00		 mov	 edx, DWORD PTR ?gEledoradoGoldGoblenRegenTime@@3KA ; gEledoradoGoldGoblenRegenTime
  002cf	69 d2 60 ea 00
	00		 imul	 edx, 60000		; 0000ea60H
  002d5	3b ca		 cmp	 ecx, edx
  002d7	76 11		 jbe	 SHORT $LN15@Run

; 130  : 		{
; 131  : 			this->GoldGoblenEventStartTime = Time;

  002d9	8b 45 fc	 mov	 eax, DWORD PTR _this$[ebp]
  002dc	8b 4d e8	 mov	 ecx, DWORD PTR _Time$227632[ebp]
  002df	89 48 08	 mov	 DWORD PTR [eax+8], ecx

; 132  : 			this->RegenGoldGoblen();

  002e2	8b 4d fc	 mov	 ecx, DWORD PTR _this$[ebp]
  002e5	e8 00 00 00 00	 call	 ?RegenGoldGoblen@CEledoradoEvent@@QAEXXZ ; CEledoradoEvent::RegenGoldGoblen
$LN15@Run:

; 133  : 		}
; 134  : 
; 135  : 		if ( ( Time - this->TitanEventStartTime ) > gEledoradoTitanRegenTime * 60000 )

  002ea	8b 45 fc	 mov	 eax, DWORD PTR _this$[ebp]
  002ed	8b 4d e8	 mov	 ecx, DWORD PTR _Time$227632[ebp]
  002f0	2b 48 0c	 sub	 ecx, DWORD PTR [eax+12]
  002f3	8b 15 00 00 00
	00		 mov	 edx, DWORD PTR ?gEledoradoTitanRegenTime@@3KA ; gEledoradoTitanRegenTime
  002f9	69 d2 60 ea 00
	00		 imul	 edx, 60000		; 0000ea60H
  002ff	3b ca		 cmp	 ecx, edx
  00301	76 11		 jbe	 SHORT $LN14@Run

; 136  : 		{
; 137  : 			this->TitanEventStartTime = Time;

  00303	8b 45 fc	 mov	 eax, DWORD PTR _this$[ebp]
  00306	8b 4d e8	 mov	 ecx, DWORD PTR _Time$227632[ebp]
  00309	89 48 0c	 mov	 DWORD PTR [eax+12], ecx

; 138  : 			this->RegenTitan();

  0030c	8b 4d fc	 mov	 ecx, DWORD PTR _this$[ebp]
  0030f	e8 00 00 00 00	 call	 ?RegenTitan@CEledoradoEvent@@QAEXXZ ; CEledoradoEvent::RegenTitan
$LN14@Run:

; 139  : 		}
; 140  : 
; 141  : 		if ( ( Time - this->GoldDerconEventStartTime ) > gEledoradoGoldDerconRegenTime * 60000 )

  00314	8b 45 fc	 mov	 eax, DWORD PTR _this$[ebp]
  00317	8b 4d e8	 mov	 ecx, DWORD PTR _Time$227632[ebp]
  0031a	2b 48 10	 sub	 ecx, DWORD PTR [eax+16]
  0031d	8b 15 00 00 00
	00		 mov	 edx, DWORD PTR ?gEledoradoGoldDerconRegenTime@@3KA ; gEledoradoGoldDerconRegenTime
  00323	69 d2 60 ea 00
	00		 imul	 edx, 60000		; 0000ea60H
  00329	3b ca		 cmp	 ecx, edx
  0032b	76 11		 jbe	 SHORT $LN13@Run

; 142  : 		{
; 143  : 			this->GoldDerconEventStartTime = Time;

  0032d	8b 45 fc	 mov	 eax, DWORD PTR _this$[ebp]
  00330	8b 4d e8	 mov	 ecx, DWORD PTR _Time$227632[ebp]
  00333	89 48 10	 mov	 DWORD PTR [eax+16], ecx

; 144  : 			this->RegenGoldDercon();

  00336	8b 4d fc	 mov	 ecx, DWORD PTR _this$[ebp]
  00339	e8 00 00 00 00	 call	 ?RegenGoldDercon@CEledoradoEvent@@QAEXXZ ; CEledoradoEvent::RegenGoldDercon
$LN13@Run:

; 145  : 		}
; 146  : 
; 147  : 		if ( ( Time - this->DevilLizardKingEventStartTime ) > gEledoradoDevilLizardKingRegenTime * 60000 )

  0033e	8b 45 fc	 mov	 eax, DWORD PTR _this$[ebp]
  00341	8b 4d e8	 mov	 ecx, DWORD PTR _Time$227632[ebp]
  00344	2b 48 14	 sub	 ecx, DWORD PTR [eax+20]
  00347	8b 15 00 00 00
	00		 mov	 edx, DWORD PTR ?gEledoradoDevilLizardKingRegenTime@@3KA ; gEledoradoDevilLizardKingRegenTime
  0034d	69 d2 60 ea 00
	00		 imul	 edx, 60000		; 0000ea60H
  00353	3b ca		 cmp	 ecx, edx
  00355	76 11		 jbe	 SHORT $LN12@Run

; 148  : 		{
; 149  : 			this->DevilLizardKingEventStartTime = Time;

  00357	8b 45 fc	 mov	 eax, DWORD PTR _this$[ebp]
  0035a	8b 4d e8	 mov	 ecx, DWORD PTR _Time$227632[ebp]
  0035d	89 48 14	 mov	 DWORD PTR [eax+20], ecx

; 150  : 			this->RegenDevilLizardKing();

  00360	8b 4d fc	 mov	 ecx, DWORD PTR _this$[ebp]
  00363	e8 00 00 00 00	 call	 ?RegenDevilLizardKing@CEledoradoEvent@@QAEXXZ ; CEledoradoEvent::RegenDevilLizardKing
$LN12@Run:

; 151  : 		}
; 152  : 
; 153  : 		if ( ( Time - this->KanturEventStartTime ) > gEledoradoDevilTantarosRegenTime * 60000 )

  00368	8b 45 fc	 mov	 eax, DWORD PTR _this$[ebp]
  0036b	8b 4d e8	 mov	 ecx, DWORD PTR _Time$227632[ebp]
  0036e	2b 48 18	 sub	 ecx, DWORD PTR [eax+24]
  00371	8b 15 00 00 00
	00		 mov	 edx, DWORD PTR ?gEledoradoDevilTantarosRegenTime@@3KA ; gEledoradoDevilTantarosRegenTime
  00377	69 d2 60 ea 00
	00		 imul	 edx, 60000		; 0000ea60H
  0037d	3b ca		 cmp	 ecx, edx
  0037f	76 11		 jbe	 SHORT $LN11@Run

; 154  : 		{
; 155  : 			this->KanturEventStartTime = Time;

  00381	8b 45 fc	 mov	 eax, DWORD PTR _this$[ebp]
  00384	8b 4d e8	 mov	 ecx, DWORD PTR _Time$227632[ebp]
  00387	89 48 18	 mov	 DWORD PTR [eax+24], ecx

; 156  : 			this->RegenKantur();

  0038a	8b 4d fc	 mov	 ecx, DWORD PTR _this$[ebp]
  0038d	e8 00 00 00 00	 call	 ?RegenKantur@CEledoradoEvent@@QAEXXZ ; CEledoradoEvent::RegenKantur
$LN11@Run:

; 157  : 		}
; 158  : 
; 159  : 		//Season 4.5 addon start
; 160  : 		if ( ( Time - this->GoldenRabbitRegenTime ) > gEledoradoGoldenRabbitRegenTime * 60000 )

  00392	8b 45 fc	 mov	 eax, DWORD PTR _this$[ebp]
  00395	8b 4d e8	 mov	 ecx, DWORD PTR _Time$227632[ebp]
  00398	2b 48 1c	 sub	 ecx, DWORD PTR [eax+28]
  0039b	8b 15 00 00 00
	00		 mov	 edx, DWORD PTR ?gEledoradoGoldenRabbitRegenTime@@3HA ; gEledoradoGoldenRabbitRegenTime
  003a1	69 d2 60 ea 00
	00		 imul	 edx, 60000		; 0000ea60H
  003a7	3b ca		 cmp	 ecx, edx
  003a9	76 11		 jbe	 SHORT $LN10@Run

; 161  : 		{
; 162  : 			this->GoldenRabbitRegenTime = Time;

  003ab	8b 45 fc	 mov	 eax, DWORD PTR _this$[ebp]
  003ae	8b 4d e8	 mov	 ecx, DWORD PTR _Time$227632[ebp]
  003b1	89 48 1c	 mov	 DWORD PTR [eax+28], ecx

; 163  : 			this->RegenGoldenRabbit();

  003b4	8b 4d fc	 mov	 ecx, DWORD PTR _this$[ebp]
  003b7	e8 00 00 00 00	 call	 ?RegenGoldenRabbit@CEledoradoEvent@@QAEXXZ ; CEledoradoEvent::RegenGoldenRabbit
$LN10@Run:

; 164  : 		}
; 165  : 
; 166  : 		if ( ( Time - this->GoldenDarkKnightRegenTime ) > gEledoradoGoldenDarkKnightRegenTime * 60000 )

  003bc	8b 45 fc	 mov	 eax, DWORD PTR _this$[ebp]
  003bf	8b 4d e8	 mov	 ecx, DWORD PTR _Time$227632[ebp]
  003c2	2b 48 20	 sub	 ecx, DWORD PTR [eax+32]
  003c5	8b 15 00 00 00
	00		 mov	 edx, DWORD PTR ?gEledoradoGoldenDarkKnightRegenTime@@3HA ; gEledoradoGoldenDarkKnightRegenTime
  003cb	69 d2 60 ea 00
	00		 imul	 edx, 60000		; 0000ea60H
  003d1	3b ca		 cmp	 ecx, edx
  003d3	76 11		 jbe	 SHORT $LN9@Run

; 167  : 		{
; 168  : 			this->GoldenDarkKnightRegenTime = Time;

  003d5	8b 45 fc	 mov	 eax, DWORD PTR _this$[ebp]
  003d8	8b 4d e8	 mov	 ecx, DWORD PTR _Time$227632[ebp]
  003db	89 48 20	 mov	 DWORD PTR [eax+32], ecx

; 169  : 			this->RegenGoldenDarkKnight();

  003de	8b 4d fc	 mov	 ecx, DWORD PTR _this$[ebp]
  003e1	e8 00 00 00 00	 call	 ?RegenGoldenDarkKnight@CEledoradoEvent@@QAEXXZ ; CEledoradoEvent::RegenGoldenDarkKnight
$LN9@Run:

; 170  : 		}
; 171  : 
; 172  : 		if ( ( Time - this->GoldenDevilRegenTime ) > gEledoradoGoldenDevilRegenTime * 60000 )

  003e6	8b 45 fc	 mov	 eax, DWORD PTR _this$[ebp]
  003e9	8b 4d e8	 mov	 ecx, DWORD PTR _Time$227632[ebp]
  003ec	2b 48 24	 sub	 ecx, DWORD PTR [eax+36]
  003ef	8b 15 00 00 00
	00		 mov	 edx, DWORD PTR ?gEledoradoGoldenDevilRegenTime@@3HA ; gEledoradoGoldenDevilRegenTime
  003f5	69 d2 60 ea 00
	00		 imul	 edx, 60000		; 0000ea60H
  003fb	3b ca		 cmp	 ecx, edx
  003fd	76 11		 jbe	 SHORT $LN8@Run

; 173  : 		{
; 174  : 			this->GoldenDevilRegenTime = Time;

  003ff	8b 45 fc	 mov	 eax, DWORD PTR _this$[ebp]
  00402	8b 4d e8	 mov	 ecx, DWORD PTR _Time$227632[ebp]
  00405	89 48 24	 mov	 DWORD PTR [eax+36], ecx

; 175  : 			this->RegenGoldenDevil();

  00408	8b 4d fc	 mov	 ecx, DWORD PTR _this$[ebp]
  0040b	e8 00 00 00 00	 call	 ?RegenGoldenDevil@CEledoradoEvent@@QAEXXZ ; CEledoradoEvent::RegenGoldenDevil
$LN8@Run:

; 176  : 		}
; 177  : 
; 178  : 		if ( ( Time - this->GoldenMonsterRegenTime ) > gEledoradoGoldenMonsterRegenTime * 60000 )

  00410	8b 45 fc	 mov	 eax, DWORD PTR _this$[ebp]
  00413	8b 4d e8	 mov	 ecx, DWORD PTR _Time$227632[ebp]
  00416	2b 48 28	 sub	 ecx, DWORD PTR [eax+40]
  00419	8b 15 00 00 00
	00		 mov	 edx, DWORD PTR ?gEledoradoGoldenMonsterRegenTime@@3HA ; gEledoradoGoldenMonsterRegenTime
  0041f	69 d2 60 ea 00
	00		 imul	 edx, 60000		; 0000ea60H
  00425	3b ca		 cmp	 ecx, edx
  00427	76 11		 jbe	 SHORT $LN7@Run

; 179  : 		{
; 180  : 			this->GoldenMonsterRegenTime = Time;

  00429	8b 45 fc	 mov	 eax, DWORD PTR _this$[ebp]
  0042c	8b 4d e8	 mov	 ecx, DWORD PTR _Time$227632[ebp]
  0042f	89 48 28	 mov	 DWORD PTR [eax+40], ecx

; 181  : 			this->RegenGoldenMonster();

  00432	8b 4d fc	 mov	 ecx, DWORD PTR _this$[ebp]
  00435	e8 00 00 00 00	 call	 ?RegenGoldenMonster@CEledoradoEvent@@QAEXXZ ; CEledoradoEvent::RegenGoldenMonster
$LN7@Run:

; 182  : 		}
; 183  : 
; 184  : 		if ( ( Time - this->GoldenCrustRegenTime ) > gEledoradoGoldenCrustRegenTime * 60000 )

  0043a	8b 45 fc	 mov	 eax, DWORD PTR _this$[ebp]
  0043d	8b 4d e8	 mov	 ecx, DWORD PTR _Time$227632[ebp]
  00440	2b 48 2c	 sub	 ecx, DWORD PTR [eax+44]
  00443	8b 15 00 00 00
	00		 mov	 edx, DWORD PTR ?gEledoradoGoldenCrustRegenTime@@3HA ; gEledoradoGoldenCrustRegenTime
  00449	69 d2 60 ea 00
	00		 imul	 edx, 60000		; 0000ea60H
  0044f	3b ca		 cmp	 ecx, edx
  00451	76 11		 jbe	 SHORT $LN6@Run

; 185  : 		{
; 186  : 			this->GoldenCrustRegenTime = Time;

  00453	8b 45 fc	 mov	 eax, DWORD PTR _this$[ebp]
  00456	8b 4d e8	 mov	 ecx, DWORD PTR _Time$227632[ebp]
  00459	89 48 2c	 mov	 DWORD PTR [eax+44], ecx

; 187  : 			this->RegenGoldenCrust();

  0045c	8b 4d fc	 mov	 ecx, DWORD PTR _this$[ebp]
  0045f	e8 00 00 00 00	 call	 ?RegenGoldenCrust@CEledoradoEvent@@QAEXXZ ; CEledoradoEvent::RegenGoldenCrust
$LN6@Run:

; 188  : 		}
; 189  : 
; 190  : 		if ( ( Time - this->GoldenSatirosRegenTime ) > gEledoradoGoldenSatirosRegenTime * 60000 )

  00464	8b 45 fc	 mov	 eax, DWORD PTR _this$[ebp]
  00467	8b 4d e8	 mov	 ecx, DWORD PTR _Time$227632[ebp]
  0046a	2b 48 30	 sub	 ecx, DWORD PTR [eax+48]
  0046d	8b 15 00 00 00
	00		 mov	 edx, DWORD PTR ?gEledoradoGoldenSatirosRegenTime@@3HA ; gEledoradoGoldenSatirosRegenTime
  00473	69 d2 60 ea 00
	00		 imul	 edx, 60000		; 0000ea60H
  00479	3b ca		 cmp	 ecx, edx
  0047b	76 11		 jbe	 SHORT $LN5@Run

; 191  : 		{
; 192  : 			this->GoldenSatirosRegenTime = Time;

  0047d	8b 45 fc	 mov	 eax, DWORD PTR _this$[ebp]
  00480	8b 4d e8	 mov	 ecx, DWORD PTR _Time$227632[ebp]
  00483	89 48 30	 mov	 DWORD PTR [eax+48], ecx

; 193  : 			this->RegenGoldenSatiros();

  00486	8b 4d fc	 mov	 ecx, DWORD PTR _this$[ebp]
  00489	e8 00 00 00 00	 call	 ?RegenGoldenSatiros@CEledoradoEvent@@QAEXXZ ; CEledoradoEvent::RegenGoldenSatiros
$LN5@Run:

; 194  : 		}
; 195  : 
; 196  : 		if ( ( Time - this->GoldenTwintailRegenTime ) > gEledoradoGoldenTwintailRegenTime * 60000 )

  0048e	8b 45 fc	 mov	 eax, DWORD PTR _this$[ebp]
  00491	8b 4d e8	 mov	 ecx, DWORD PTR _Time$227632[ebp]
  00494	2b 48 34	 sub	 ecx, DWORD PTR [eax+52]
  00497	8b 15 00 00 00
	00		 mov	 edx, DWORD PTR ?gEledoradoGoldenTwintailRegenTime@@3HA ; gEledoradoGoldenTwintailRegenTime
  0049d	69 d2 60 ea 00
	00		 imul	 edx, 60000		; 0000ea60H
  004a3	3b ca		 cmp	 ecx, edx
  004a5	76 11		 jbe	 SHORT $LN4@Run

; 197  : 		{
; 198  : 			this->GoldenTwintailRegenTime = Time;

  004a7	8b 45 fc	 mov	 eax, DWORD PTR _this$[ebp]
  004aa	8b 4d e8	 mov	 ecx, DWORD PTR _Time$227632[ebp]
  004ad	89 48 34	 mov	 DWORD PTR [eax+52], ecx

; 199  : 			this->RegenGoldenTwintail();

  004b0	8b 4d fc	 mov	 ecx, DWORD PTR _this$[ebp]
  004b3	e8 00 00 00 00	 call	 ?RegenGoldenTwintail@CEledoradoEvent@@QAEXXZ ; CEledoradoEvent::RegenGoldenTwintail
$LN4@Run:

; 200  : 		}
; 201  : 
; 202  : 		if ( ( Time - this->GoldenIronKnightRegenTime ) > gEledoradoGoldenIronKnightRegenTime * 60000 )

  004b8	8b 45 fc	 mov	 eax, DWORD PTR _this$[ebp]
  004bb	8b 4d e8	 mov	 ecx, DWORD PTR _Time$227632[ebp]
  004be	2b 48 38	 sub	 ecx, DWORD PTR [eax+56]
  004c1	8b 15 00 00 00
	00		 mov	 edx, DWORD PTR ?gEledoradoGoldenIronKnightRegenTime@@3HA ; gEledoradoGoldenIronKnightRegenTime
  004c7	69 d2 60 ea 00
	00		 imul	 edx, 60000		; 0000ea60H
  004cd	3b ca		 cmp	 ecx, edx
  004cf	76 11		 jbe	 SHORT $LN3@Run

; 203  : 		{
; 204  : 			this->GoldenIronKnightRegenTime = Time;

  004d1	8b 45 fc	 mov	 eax, DWORD PTR _this$[ebp]
  004d4	8b 4d e8	 mov	 ecx, DWORD PTR _Time$227632[ebp]
  004d7	89 48 38	 mov	 DWORD PTR [eax+56], ecx

; 205  : 			this->RegenGoldenIronKnight();

  004da	8b 4d fc	 mov	 ecx, DWORD PTR _this$[ebp]
  004dd	e8 00 00 00 00	 call	 ?RegenGoldenIronKnight@CEledoradoEvent@@QAEXXZ ; CEledoradoEvent::RegenGoldenIronKnight
$LN3@Run:

; 206  : 		}
; 207  : 
; 208  : 		if ( ( Time - this->GoldenNeipinRegenTime ) > gEledoradoGoldenNeipinRegenTime * 60000 )

  004e2	8b 45 fc	 mov	 eax, DWORD PTR _this$[ebp]
  004e5	8b 4d e8	 mov	 ecx, DWORD PTR _Time$227632[ebp]
  004e8	2b 48 3c	 sub	 ecx, DWORD PTR [eax+60]
  004eb	8b 15 00 00 00
	00		 mov	 edx, DWORD PTR ?gEledoradoGoldenNeipinRegenTime@@3HA ; gEledoradoGoldenNeipinRegenTime
  004f1	69 d2 60 ea 00
	00		 imul	 edx, 60000		; 0000ea60H
  004f7	3b ca		 cmp	 ecx, edx
  004f9	76 11		 jbe	 SHORT $LN2@Run

; 209  : 		{
; 210  : 			this->GoldenNeipinRegenTime = Time;

  004fb	8b 45 fc	 mov	 eax, DWORD PTR _this$[ebp]
  004fe	8b 4d e8	 mov	 ecx, DWORD PTR _Time$227632[ebp]
  00501	89 48 3c	 mov	 DWORD PTR [eax+60], ecx

; 211  : 			this->RegenGoldenNeipin();

  00504	8b 4d fc	 mov	 ecx, DWORD PTR _this$[ebp]
  00507	e8 00 00 00 00	 call	 ?RegenGoldenNeipin@CEledoradoEvent@@QAEXXZ ; CEledoradoEvent::RegenGoldenNeipin
$LN2@Run:

; 212  : 		}
; 213  : 
; 214  : 		if ( ( Time - this->GoldenGreatDragonRegenTime ) > gEledoradoGoldenGreatDragonRegenTime * 60000 )

  0050c	8b 45 fc	 mov	 eax, DWORD PTR _this$[ebp]
  0050f	8b 4d e8	 mov	 ecx, DWORD PTR _Time$227632[ebp]
  00512	2b 48 40	 sub	 ecx, DWORD PTR [eax+64]
  00515	8b 15 00 00 00
	00		 mov	 edx, DWORD PTR ?gEledoradoGoldenGreatDragonRegenTime@@3HA ; gEledoradoGoldenGreatDragonRegenTime
  0051b	69 d2 60 ea 00
	00		 imul	 edx, 60000		; 0000ea60H
  00521	3b ca		 cmp	 ecx, edx
  00523	76 11		 jbe	 SHORT $LN21@Run

; 215  : 		{
; 216  : 			this->GoldenGreatDragonRegenTime = Time;

  00525	8b 45 fc	 mov	 eax, DWORD PTR _this$[ebp]
  00528	8b 4d e8	 mov	 ecx, DWORD PTR _Time$227632[ebp]
  0052b	89 48 40	 mov	 DWORD PTR [eax+64], ecx

; 217  : 			this->RegenGoldenGreatDragon();

  0052e	8b 4d fc	 mov	 ecx, DWORD PTR _this$[ebp]
  00531	e8 00 00 00 00	 call	 ?RegenGoldenGreatDragon@CEledoradoEvent@@QAEXXZ ; CEledoradoEvent::RegenGoldenGreatDragon
$LN21@Run:

; 218  : 		}
; 219  : 
; 220  : 		//Season 4.5 addon end
; 221  : 	}
; 222  : }

  00536	5f		 pop	 edi
  00537	5e		 pop	 esi
  00538	5b		 pop	 ebx
  00539	8b e5		 mov	 esp, ebp
  0053b	5d		 pop	 ebp
  0053c	c3		 ret	 0
?Run@CEledoradoEvent@@QAEXXZ ENDP			; CEledoradoEvent::Run
_TEXT	ENDS
EXTRN	__localtime64:PROC
; Function compile flags: /Odtp /ZI
; File d:\microsoft visual studio 10.0\vc\include\time.inl
_TEXT	SEGMENT
__Time$ = 8						; size = 4
_localtime PROC

; 113  : {

  00540	55		 push	 ebp
  00541	8b ec		 mov	 ebp, esp
  00543	83 ec 40	 sub	 esp, 64			; 00000040H
  00546	53		 push	 ebx
  00547	56		 push	 esi
  00548	57		 push	 edi

; 114  : #pragma warning( push )
; 115  : #pragma warning( disable : 4996 )
; 116  :     return _localtime64(_Time);

  00549	8b 45 08	 mov	 eax, DWORD PTR __Time$[ebp]
  0054c	50		 push	 eax
  0054d	e8 00 00 00 00	 call	 __localtime64
  00552	83 c4 04	 add	 esp, 4

; 117  : #pragma warning( pop )
; 118  : }

  00555	5f		 pop	 edi
  00556	5e		 pop	 esi
  00557	5b		 pop	 ebx
  00558	8b e5		 mov	 esp, ebp
  0055a	5d		 pop	 ebp
  0055b	c3		 ret	 0
_localtime ENDP
_TEXT	ENDS
EXTRN	__time64:PROC
; Function compile flags: /Odtp /ZI
_TEXT	SEGMENT
__Time$ = 8						; size = 4
_time	PROC

; 132  : {

  00560	55		 push	 ebp
  00561	8b ec		 mov	 ebp, esp
  00563	83 ec 40	 sub	 esp, 64			; 00000040H
  00566	53		 push	 ebx
  00567	56		 push	 esi
  00568	57		 push	 edi

; 133  :     return _time64(_Time);

  00569	8b 45 08	 mov	 eax, DWORD PTR __Time$[ebp]
  0056c	50		 push	 eax
  0056d	e8 00 00 00 00	 call	 __time64
  00572	83 c4 04	 add	 esp, 4

; 134  : }

  00575	5f		 pop	 edi
  00576	5e		 pop	 esi
  00577	5b		 pop	 ebx
  00578	8b e5		 mov	 esp, ebp
  0057a	5d		 pop	 ebp
  0057b	c3		 ret	 0
_time	ENDP
_TEXT	ENDS
PUBLIC	??_C@_0BM@CBOPIOL@Make?5GoldGoblen?5?3?5?$CFd?0?5?$CFd?0?$CFd?$AA@ ; `string'
EXTRN	?LogAddTD@@3P6AXPADZZA:DWORD			; LogAddTD
EXTRN	?GetBoxPosition@CMonsterSetBase@@QAEHHHHHHAAF0@Z:PROC ; CMonsterSetBase::GetBoxPosition
EXTRN	?gMSetBase@@3VCMonsterSetBase@@A:BYTE		; gMSetBase
EXTRN	?gObj@@3PAUOBJECTSTRUCT@@A:DWORD		; gObj
EXTRN	__fltused:DWORD
;	COMDAT ??_C@_0BM@CBOPIOL@Make?5GoldGoblen?5?3?5?$CFd?0?5?$CFd?0?$CFd?$AA@
; File d:\projects\exteam6.3\source\gameserver\gameserver\eledoradoevent.cpp
CONST	SEGMENT
??_C@_0BM@CBOPIOL@Make?5GoldGoblen?5?3?5?$CFd?0?5?$CFd?0?$CFd?$AA@ DB 'Ma'
	DB	'ke GoldGoblen : %d, %d,%d', 00H		; `string'
; Function compile flags: /Odtp /ZI
CONST	ENDS
_TEXT	SEGMENT
_MapNumber$ = -12					; size = 4
_n$ = -8						; size = 4
_this$ = -4						; size = 4
?RegenGoldGoblen@CEledoradoEvent@@QAEXXZ PROC		; CEledoradoEvent::RegenGoldGoblen
; _this$ = ecx

; 225  : {

  00580	55		 push	 ebp
  00581	8b ec		 mov	 ebp, esp
  00583	83 ec 4c	 sub	 esp, 76			; 0000004cH
  00586	53		 push	 ebx
  00587	56		 push	 esi
  00588	57		 push	 edi
  00589	89 4d fc	 mov	 DWORD PTR _this$[ebp], ecx

; 226  : 	int n=0;

  0058c	c7 45 f8 00 00
	00 00		 mov	 DWORD PTR _n$[ebp], 0

; 227  : 	int MapNumber;
; 228  : 
; 229  : 	for (n=0;n<OBJ_MAXMONSTER;n++)

  00593	c7 45 f8 00 00
	00 00		 mov	 DWORD PTR _n$[ebp], 0
  0059a	eb 09		 jmp	 SHORT $LN6@RegenGoldG
$LN5@RegenGoldG:
  0059c	8b 45 f8	 mov	 eax, DWORD PTR _n$[ebp]
  0059f	83 c0 01	 add	 eax, 1
  005a2	89 45 f8	 mov	 DWORD PTR _n$[ebp], eax
$LN6@RegenGoldG:
  005a5	81 7d f8 c8 32
	00 00		 cmp	 DWORD PTR _n$[ebp], 13000 ; 000032c8H
  005ac	0f 8d 5b 02 00
	00		 jge	 $LN4@RegenGoldG

; 230  : 	{
; 231  : 		if ( gObj[n].Class == 78 )

  005b2	8b 45 f8	 mov	 eax, DWORD PTR _n$[ebp]
  005b5	69 c0 38 2b 00
	00		 imul	 eax, 11064		; 00002b38H
  005bb	8b 0d 00 00 00
	00		 mov	 ecx, DWORD PTR ?gObj@@3PAUOBJECTSTRUCT@@A ; gObj
  005c1	0f b7 94 01 b8
	00 00 00	 movzx	 edx, WORD PTR [ecx+eax+184]
  005c9	83 fa 4e	 cmp	 edx, 78			; 0000004eH
  005cc	0f 85 36 02 00
	00		 jne	 $LN3@RegenGoldG

; 232  : 		{
; 233  : 			gObj[n].Live = TRUE;

  005d2	8b 45 f8	 mov	 eax, DWORD PTR _n$[ebp]
  005d5	69 c0 38 2b 00
	00		 imul	 eax, 11064		; 00002b38H
  005db	8b 0d 00 00 00
	00		 mov	 ecx, DWORD PTR ?gObj@@3PAUOBJECTSTRUCT@@A ; gObj
  005e1	c6 44 01 6a 01	 mov	 BYTE PTR [ecx+eax+106], 1

; 234  : 			MapNumber = 3;

  005e6	c7 45 f4 03 00
	00 00		 mov	 DWORD PTR _MapNumber$[ebp], 3

; 235  : 			gObj[n].MapNumber = MapNumber;

  005ed	8b 45 f8	 mov	 eax, DWORD PTR _n$[ebp]
  005f0	69 c0 38 2b 00
	00		 imul	 eax, 11064		; 00002b38H
  005f6	8b 0d 00 00 00
	00		 mov	 ecx, DWORD PTR ?gObj@@3PAUOBJECTSTRUCT@@A ; gObj
  005fc	8a 55 f4	 mov	 dl, BYTE PTR _MapNumber$[ebp]
  005ff	88 94 01 49 01
	00 00		 mov	 BYTE PTR [ecx+eax+329], dl
$LN2@RegenGoldG:

; 236  : 
; 237  : 			while ( gMSetBase.GetBoxPosition(MapNumber, 50, 50, 200, 200, gObj[n].X, gObj[n].Y) == 0 )

  00606	8b 45 f8	 mov	 eax, DWORD PTR _n$[ebp]
  00609	69 c0 38 2b 00
	00		 imul	 eax, 11064		; 00002b38H
  0060f	8b 0d 00 00 00
	00		 mov	 ecx, DWORD PTR ?gObj@@3PAUOBJECTSTRUCT@@A ; gObj
  00615	8d 94 01 46 01
	00 00		 lea	 edx, DWORD PTR [ecx+eax+326]
  0061c	52		 push	 edx
  0061d	8b 45 f8	 mov	 eax, DWORD PTR _n$[ebp]
  00620	69 c0 38 2b 00
	00		 imul	 eax, 11064		; 00002b38H
  00626	8b 0d 00 00 00
	00		 mov	 ecx, DWORD PTR ?gObj@@3PAUOBJECTSTRUCT@@A ; gObj
  0062c	8d 94 01 44 01
	00 00		 lea	 edx, DWORD PTR [ecx+eax+324]
  00633	52		 push	 edx
  00634	68 c8 00 00 00	 push	 200			; 000000c8H
  00639	68 c8 00 00 00	 push	 200			; 000000c8H
  0063e	6a 32		 push	 50			; 00000032H
  00640	6a 32		 push	 50			; 00000032H
  00642	8b 45 f4	 mov	 eax, DWORD PTR _MapNumber$[ebp]
  00645	50		 push	 eax
  00646	b9 00 00 00 00	 mov	 ecx, OFFSET ?gMSetBase@@3VCMonsterSetBase@@A ; gMSetBase
  0064b	e8 00 00 00 00	 call	 ?GetBoxPosition@CMonsterSetBase@@QAEHHHHHHAAF0@Z ; CMonsterSetBase::GetBoxPosition
  00650	85 c0		 test	 eax, eax
  00652	75 02		 jne	 SHORT $LN1@RegenGoldG

; 238  : 			{
; 239  : 
; 240  : 			}

  00654	eb b0		 jmp	 SHORT $LN2@RegenGoldG
$LN1@RegenGoldG:

; 241  : 
; 242  : 			gObj[n].Life = gObj[n].MaxLife;

  00656	8b 45 f8	 mov	 eax, DWORD PTR _n$[ebp]
  00659	69 c0 38 2b 00
	00		 imul	 eax, 11064		; 00002b38H
  0065f	8b 4d f8	 mov	 ecx, DWORD PTR _n$[ebp]
  00662	69 c9 38 2b 00
	00		 imul	 ecx, 11064		; 00002b38H
  00668	8b 15 00 00 00
	00		 mov	 edx, DWORD PTR ?gObj@@3PAUOBJECTSTRUCT@@A ; gObj
  0066e	8b 35 00 00 00
	00		 mov	 esi, DWORD PTR ?gObj@@3PAUOBJECTSTRUCT@@A ; gObj
  00674	d9 84 06 00 01
	00 00		 fld	 DWORD PTR [esi+eax+256]
  0067b	d9 9c 0a fc 00
	00 00		 fstp	 DWORD PTR [edx+ecx+252]

; 243  : 			gObj[n].TX = gObj[n].X;

  00682	8b 45 f8	 mov	 eax, DWORD PTR _n$[ebp]
  00685	69 c0 38 2b 00
	00		 imul	 eax, 11064		; 00002b38H
  0068b	8b 4d f8	 mov	 ecx, DWORD PTR _n$[ebp]
  0068e	69 c9 38 2b 00
	00		 imul	 ecx, 11064		; 00002b38H
  00694	8b 15 00 00 00
	00		 mov	 edx, DWORD PTR ?gObj@@3PAUOBJECTSTRUCT@@A ; gObj
  0069a	8b 35 00 00 00
	00		 mov	 esi, DWORD PTR ?gObj@@3PAUOBJECTSTRUCT@@A ; gObj
  006a0	66 8b 84 06 44
	01 00 00	 mov	 ax, WORD PTR [esi+eax+324]
  006a8	66 89 84 0a 7c
	01 00 00	 mov	 WORD PTR [edx+ecx+380], ax

; 244  : 			gObj[n].TY = gObj[n].Y;

  006b0	8b 45 f8	 mov	 eax, DWORD PTR _n$[ebp]
  006b3	69 c0 38 2b 00
	00		 imul	 eax, 11064		; 00002b38H
  006b9	8b 4d f8	 mov	 ecx, DWORD PTR _n$[ebp]
  006bc	69 c9 38 2b 00
	00		 imul	 ecx, 11064		; 00002b38H
  006c2	8b 15 00 00 00
	00		 mov	 edx, DWORD PTR ?gObj@@3PAUOBJECTSTRUCT@@A ; gObj
  006c8	8b 35 00 00 00
	00		 mov	 esi, DWORD PTR ?gObj@@3PAUOBJECTSTRUCT@@A ; gObj
  006ce	66 8b 84 06 46
	01 00 00	 mov	 ax, WORD PTR [esi+eax+326]
  006d6	66 89 84 0a 7e
	01 00 00	 mov	 WORD PTR [edx+ecx+382], ax

; 245  : 			gObj[n].MTX = gObj[n].X;

  006de	8b 45 f8	 mov	 eax, DWORD PTR _n$[ebp]
  006e1	69 c0 38 2b 00
	00		 imul	 eax, 11064		; 00002b38H
  006e7	8b 4d f8	 mov	 ecx, DWORD PTR _n$[ebp]
  006ea	69 c9 38 2b 00
	00		 imul	 ecx, 11064		; 00002b38H
  006f0	8b 15 00 00 00
	00		 mov	 edx, DWORD PTR ?gObj@@3PAUOBJECTSTRUCT@@A ; gObj
  006f6	8b 35 00 00 00
	00		 mov	 esi, DWORD PTR ?gObj@@3PAUOBJECTSTRUCT@@A ; gObj
  006fc	66 8b 84 06 44
	01 00 00	 mov	 ax, WORD PTR [esi+eax+324]
  00704	66 89 84 0a 80
	01 00 00	 mov	 WORD PTR [edx+ecx+384], ax

; 246  : 			gObj[n].MTY = gObj[n].Y;

  0070c	8b 45 f8	 mov	 eax, DWORD PTR _n$[ebp]
  0070f	69 c0 38 2b 00
	00		 imul	 eax, 11064		; 00002b38H
  00715	8b 4d f8	 mov	 ecx, DWORD PTR _n$[ebp]
  00718	69 c9 38 2b 00
	00		 imul	 ecx, 11064		; 00002b38H
  0071e	8b 15 00 00 00
	00		 mov	 edx, DWORD PTR ?gObj@@3PAUOBJECTSTRUCT@@A ; gObj
  00724	8b 35 00 00 00
	00		 mov	 esi, DWORD PTR ?gObj@@3PAUOBJECTSTRUCT@@A ; gObj
  0072a	66 8b 84 06 46
	01 00 00	 mov	 ax, WORD PTR [esi+eax+326]
  00732	66 89 84 0a 82
	01 00 00	 mov	 WORD PTR [edx+ecx+386], ax

; 247  : 			gObj[n].StartX = gObj[n].X;

  0073a	8b 45 f8	 mov	 eax, DWORD PTR _n$[ebp]
  0073d	69 c0 38 2b 00
	00		 imul	 eax, 11064		; 00002b38H
  00743	8b 4d f8	 mov	 ecx, DWORD PTR _n$[ebp]
  00746	69 c9 38 2b 00
	00		 imul	 ecx, 11064		; 00002b38H
  0074c	8b 15 00 00 00
	00		 mov	 edx, DWORD PTR ?gObj@@3PAUOBJECTSTRUCT@@A ; gObj
  00752	8b 35 00 00 00
	00		 mov	 esi, DWORD PTR ?gObj@@3PAUOBJECTSTRUCT@@A ; gObj
  00758	8a 84 06 44 01
	00 00		 mov	 al, BYTE PTR [esi+eax+324]
  0075f	88 84 0a 76 01
	00 00		 mov	 BYTE PTR [edx+ecx+374], al

; 248  : 			gObj[n].StartY = gObj[n].Y;

  00766	8b 45 f8	 mov	 eax, DWORD PTR _n$[ebp]
  00769	69 c0 38 2b 00
	00		 imul	 eax, 11064		; 00002b38H
  0076f	8b 4d f8	 mov	 ecx, DWORD PTR _n$[ebp]
  00772	69 c9 38 2b 00
	00		 imul	 ecx, 11064		; 00002b38H
  00778	8b 15 00 00 00
	00		 mov	 edx, DWORD PTR ?gObj@@3PAUOBJECTSTRUCT@@A ; gObj
  0077e	8b 35 00 00 00
	00		 mov	 esi, DWORD PTR ?gObj@@3PAUOBJECTSTRUCT@@A ; gObj
  00784	8a 84 06 46 01
	00 00		 mov	 al, BYTE PTR [esi+eax+326]
  0078b	88 84 0a 77 01
	00 00		 mov	 BYTE PTR [edx+ecx+375], al

; 249  : 			gObj[n].m_State = 1;

  00792	8b 45 f8	 mov	 eax, DWORD PTR _n$[ebp]
  00795	69 c0 38 2b 00
	00		 imul	 eax, 11064		; 00002b38H
  0079b	8b 0d 00 00 00
	00		 mov	 ecx, DWORD PTR ?gObj@@3PAUOBJECTSTRUCT@@A ; gObj
  007a1	c7 84 01 20 02
	00 00 01 00 00
	00		 mov	 DWORD PTR [ecx+eax+544], 1

; 250  : 			gObj[n].PathCount = 0;

  007ac	8b 45 f8	 mov	 eax, DWORD PTR _n$[ebp]
  007af	69 c0 38 2b 00
	00		 imul	 eax, 11064		; 00002b38H
  007b5	8b 0d 00 00 00
	00		 mov	 ecx, DWORD PTR ?gObj@@3PAUOBJECTSTRUCT@@A ; gObj
  007bb	c7 84 01 84 01
	00 00 00 00 00
	00		 mov	 DWORD PTR [ecx+eax+388], 0

; 251  : 
; 252  : 			LogAddTD("Make GoldGoblen : %d, %d,%d",	MapNumber, gObj[n].X, gObj[n].Y);

  007c6	8b 45 f8	 mov	 eax, DWORD PTR _n$[ebp]
  007c9	69 c0 38 2b 00
	00		 imul	 eax, 11064		; 00002b38H
  007cf	8b 0d 00 00 00
	00		 mov	 ecx, DWORD PTR ?gObj@@3PAUOBJECTSTRUCT@@A ; gObj
  007d5	0f bf 94 01 46
	01 00 00	 movsx	 edx, WORD PTR [ecx+eax+326]
  007dd	52		 push	 edx
  007de	8b 45 f8	 mov	 eax, DWORD PTR _n$[ebp]
  007e1	69 c0 38 2b 00
	00		 imul	 eax, 11064		; 00002b38H
  007e7	8b 0d 00 00 00
	00		 mov	 ecx, DWORD PTR ?gObj@@3PAUOBJECTSTRUCT@@A ; gObj
  007ed	0f bf 94 01 44
	01 00 00	 movsx	 edx, WORD PTR [ecx+eax+324]
  007f5	52		 push	 edx
  007f6	8b 45 f4	 mov	 eax, DWORD PTR _MapNumber$[ebp]
  007f9	50		 push	 eax
  007fa	68 00 00 00 00	 push	 OFFSET ??_C@_0BM@CBOPIOL@Make?5GoldGoblen?5?3?5?$CFd?0?5?$CFd?0?$CFd?$AA@
  007ff	ff 15 00 00 00
	00		 call	 DWORD PTR ?LogAddTD@@3P6AXPADZZA ; LogAddTD
  00805	83 c4 10	 add	 esp, 16			; 00000010H
$LN3@RegenGoldG:

; 253  : 		}
; 254  : 	}

  00808	e9 8f fd ff ff	 jmp	 $LN5@RegenGoldG
$LN4@RegenGoldG:

; 255  : }

  0080d	5f		 pop	 edi
  0080e	5e		 pop	 esi
  0080f	5b		 pop	 ebx
  00810	8b e5		 mov	 esp, ebp
  00812	5d		 pop	 ebp
  00813	c3		 ret	 0
?RegenGoldGoblen@CEledoradoEvent@@QAEXXZ ENDP		; CEledoradoEvent::RegenGoldGoblen
_TEXT	ENDS
PUBLIC	??_C@_0BM@BOFIHGJ@Make?5GoldTaitan?5?3?5?$CFd?0?5?$CFd?0?$CFd?$AA@ ; `string'
;	COMDAT ??_C@_0BM@BOFIHGJ@Make?5GoldTaitan?5?3?5?$CFd?0?5?$CFd?0?$CFd?$AA@
CONST	SEGMENT
??_C@_0BM@BOFIHGJ@Make?5GoldTaitan?5?3?5?$CFd?0?5?$CFd?0?$CFd?$AA@ DB 'Ma'
	DB	'ke GoldTaitan : %d, %d,%d', 00H		; `string'
; Function compile flags: /Odtp /ZI
CONST	ENDS
_TEXT	SEGMENT
_MapNumber$ = -12					; size = 4
_n$ = -8						; size = 4
_this$ = -4						; size = 4
?RegenTitan@CEledoradoEvent@@QAEXXZ PROC		; CEledoradoEvent::RegenTitan
; _this$ = ecx

; 258  : {

  00820	55		 push	 ebp
  00821	8b ec		 mov	 ebp, esp
  00823	83 ec 4c	 sub	 esp, 76			; 0000004cH
  00826	53		 push	 ebx
  00827	56		 push	 esi
  00828	57		 push	 edi
  00829	89 4d fc	 mov	 DWORD PTR _this$[ebp], ecx

; 259  : 	int n=0;

  0082c	c7 45 f8 00 00
	00 00		 mov	 DWORD PTR _n$[ebp], 0

; 260  : 	int MapNumber;
; 261  : 
; 262  : 	for (n=0;n<OBJ_MAXMONSTER;n++)

  00833	c7 45 f8 00 00
	00 00		 mov	 DWORD PTR _n$[ebp], 0
  0083a	eb 09		 jmp	 SHORT $LN8@RegenTitan
$LN7@RegenTitan:
  0083c	8b 45 f8	 mov	 eax, DWORD PTR _n$[ebp]
  0083f	83 c0 01	 add	 eax, 1
  00842	89 45 f8	 mov	 DWORD PTR _n$[ebp], eax
$LN8@RegenTitan:
  00845	81 7d f8 c8 32
	00 00		 cmp	 DWORD PTR _n$[ebp], 13000 ; 000032c8H
  0084c	0f 8d e1 04 00
	00		 jge	 $LN6@RegenTitan

; 263  : 	{
; 264  : 		if ( gObj[n].Class == 53 )

  00852	8b 45 f8	 mov	 eax, DWORD PTR _n$[ebp]
  00855	69 c0 38 2b 00
	00		 imul	 eax, 11064		; 00002b38H
  0085b	8b 0d 00 00 00
	00		 mov	 ecx, DWORD PTR ?gObj@@3PAUOBJECTSTRUCT@@A ; gObj
  00861	0f b7 94 01 b8
	00 00 00	 movzx	 edx, WORD PTR [ecx+eax+184]
  00869	83 fa 35	 cmp	 edx, 53			; 00000035H
  0086c	0f 85 92 02 00
	00		 jne	 $LN5@RegenTitan

; 265  : 		{
; 266  : 			gObj[n].Live = TRUE;

  00872	8b 45 f8	 mov	 eax, DWORD PTR _n$[ebp]
  00875	69 c0 38 2b 00
	00		 imul	 eax, 11064		; 00002b38H
  0087b	8b 0d 00 00 00
	00		 mov	 ecx, DWORD PTR ?gObj@@3PAUOBJECTSTRUCT@@A ; gObj
  00881	c6 44 01 6a 01	 mov	 BYTE PTR [ecx+eax+106], 1

; 267  : 			MapNumber = 2;

  00886	c7 45 f4 02 00
	00 00		 mov	 DWORD PTR _MapNumber$[ebp], 2

; 268  : 			gObj[n].MapNumber = MapNumber;

  0088d	8b 45 f8	 mov	 eax, DWORD PTR _n$[ebp]
  00890	69 c0 38 2b 00
	00		 imul	 eax, 11064		; 00002b38H
  00896	8b 0d 00 00 00
	00		 mov	 ecx, DWORD PTR ?gObj@@3PAUOBJECTSTRUCT@@A ; gObj
  0089c	8a 55 f4	 mov	 dl, BYTE PTR _MapNumber$[ebp]
  0089f	88 94 01 49 01
	00 00		 mov	 BYTE PTR [ecx+eax+329], dl
$LN4@RegenTitan:

; 269  : 
; 270  : 			while ( gMSetBase.GetBoxPosition(MapNumber, 50, 50, 200, 200, gObj[n].X, gObj[n].Y) == 0 )

  008a6	8b 45 f8	 mov	 eax, DWORD PTR _n$[ebp]
  008a9	69 c0 38 2b 00
	00		 imul	 eax, 11064		; 00002b38H
  008af	8b 0d 00 00 00
	00		 mov	 ecx, DWORD PTR ?gObj@@3PAUOBJECTSTRUCT@@A ; gObj
  008b5	8d 94 01 46 01
	00 00		 lea	 edx, DWORD PTR [ecx+eax+326]
  008bc	52		 push	 edx
  008bd	8b 45 f8	 mov	 eax, DWORD PTR _n$[ebp]
  008c0	69 c0 38 2b 00
	00		 imul	 eax, 11064		; 00002b38H
  008c6	8b 0d 00 00 00
	00		 mov	 ecx, DWORD PTR ?gObj@@3PAUOBJECTSTRUCT@@A ; gObj
  008cc	8d 94 01 44 01
	00 00		 lea	 edx, DWORD PTR [ecx+eax+324]
  008d3	52		 push	 edx
  008d4	68 c8 00 00 00	 push	 200			; 000000c8H
  008d9	68 c8 00 00 00	 push	 200			; 000000c8H
  008de	6a 32		 push	 50			; 00000032H
  008e0	6a 32		 push	 50			; 00000032H
  008e2	8b 45 f4	 mov	 eax, DWORD PTR _MapNumber$[ebp]
  008e5	50		 push	 eax
  008e6	b9 00 00 00 00	 mov	 ecx, OFFSET ?gMSetBase@@3VCMonsterSetBase@@A ; gMSetBase
  008eb	e8 00 00 00 00	 call	 ?GetBoxPosition@CMonsterSetBase@@QAEHHHHHHAAF0@Z ; CMonsterSetBase::GetBoxPosition
  008f0	85 c0		 test	 eax, eax
  008f2	75 02		 jne	 SHORT $LN3@RegenTitan

; 271  : 			{
; 272  : 
; 273  : 			}

  008f4	eb b0		 jmp	 SHORT $LN4@RegenTitan
$LN3@RegenTitan:

; 274  : 
; 275  : 			this->m_BossTitanMapNumber = gObj[n].MapNumber;

  008f6	8b 45 f8	 mov	 eax, DWORD PTR _n$[ebp]
  008f9	69 c0 38 2b 00
	00		 imul	 eax, 11064		; 00002b38H
  008ff	8b 0d 00 00 00
	00		 mov	 ecx, DWORD PTR ?gObj@@3PAUOBJECTSTRUCT@@A ; gObj
  00905	0f b6 94 01 49
	01 00 00	 movzx	 edx, BYTE PTR [ecx+eax+329]
  0090d	8b 45 fc	 mov	 eax, DWORD PTR _this$[ebp]
  00910	89 50 44	 mov	 DWORD PTR [eax+68], edx

; 276  : 			this->m_BossTitanMapX = gObj[n].X;

  00913	8b 45 f8	 mov	 eax, DWORD PTR _n$[ebp]
  00916	69 c0 38 2b 00
	00		 imul	 eax, 11064		; 00002b38H
  0091c	8b 0d 00 00 00
	00		 mov	 ecx, DWORD PTR ?gObj@@3PAUOBJECTSTRUCT@@A ; gObj
  00922	0f bf 94 01 44
	01 00 00	 movsx	 edx, WORD PTR [ecx+eax+324]
  0092a	8b 45 fc	 mov	 eax, DWORD PTR _this$[ebp]
  0092d	89 50 48	 mov	 DWORD PTR [eax+72], edx

; 277  : 			this->m_BossTitanMapY = gObj[n].Y;

  00930	8b 45 f8	 mov	 eax, DWORD PTR _n$[ebp]
  00933	69 c0 38 2b 00
	00		 imul	 eax, 11064		; 00002b38H
  00939	8b 0d 00 00 00
	00		 mov	 ecx, DWORD PTR ?gObj@@3PAUOBJECTSTRUCT@@A ; gObj
  0093f	0f bf 94 01 46
	01 00 00	 movsx	 edx, WORD PTR [ecx+eax+326]
  00947	8b 45 fc	 mov	 eax, DWORD PTR _this$[ebp]
  0094a	89 50 4c	 mov	 DWORD PTR [eax+76], edx

; 278  : 
; 279  : 			gObj[n].Life = gObj[n].MaxLife;

  0094d	8b 45 f8	 mov	 eax, DWORD PTR _n$[ebp]
  00950	69 c0 38 2b 00
	00		 imul	 eax, 11064		; 00002b38H
  00956	8b 4d f8	 mov	 ecx, DWORD PTR _n$[ebp]
  00959	69 c9 38 2b 00
	00		 imul	 ecx, 11064		; 00002b38H
  0095f	8b 15 00 00 00
	00		 mov	 edx, DWORD PTR ?gObj@@3PAUOBJECTSTRUCT@@A ; gObj
  00965	8b 35 00 00 00
	00		 mov	 esi, DWORD PTR ?gObj@@3PAUOBJECTSTRUCT@@A ; gObj
  0096b	d9 84 06 00 01
	00 00		 fld	 DWORD PTR [esi+eax+256]
  00972	d9 9c 0a fc 00
	00 00		 fstp	 DWORD PTR [edx+ecx+252]

; 280  : 			gObj[n].TX = gObj[n].X;

  00979	8b 45 f8	 mov	 eax, DWORD PTR _n$[ebp]
  0097c	69 c0 38 2b 00
	00		 imul	 eax, 11064		; 00002b38H
  00982	8b 4d f8	 mov	 ecx, DWORD PTR _n$[ebp]
  00985	69 c9 38 2b 00
	00		 imul	 ecx, 11064		; 00002b38H
  0098b	8b 15 00 00 00
	00		 mov	 edx, DWORD PTR ?gObj@@3PAUOBJECTSTRUCT@@A ; gObj
  00991	8b 35 00 00 00
	00		 mov	 esi, DWORD PTR ?gObj@@3PAUOBJECTSTRUCT@@A ; gObj
  00997	66 8b 84 06 44
	01 00 00	 mov	 ax, WORD PTR [esi+eax+324]
  0099f	66 89 84 0a 7c
	01 00 00	 mov	 WORD PTR [edx+ecx+380], ax

; 281  : 			gObj[n].TY = gObj[n].Y;

  009a7	8b 45 f8	 mov	 eax, DWORD PTR _n$[ebp]
  009aa	69 c0 38 2b 00
	00		 imul	 eax, 11064		; 00002b38H
  009b0	8b 4d f8	 mov	 ecx, DWORD PTR _n$[ebp]
  009b3	69 c9 38 2b 00
	00		 imul	 ecx, 11064		; 00002b38H
  009b9	8b 15 00 00 00
	00		 mov	 edx, DWORD PTR ?gObj@@3PAUOBJECTSTRUCT@@A ; gObj
  009bf	8b 35 00 00 00
	00		 mov	 esi, DWORD PTR ?gObj@@3PAUOBJECTSTRUCT@@A ; gObj
  009c5	66 8b 84 06 46
	01 00 00	 mov	 ax, WORD PTR [esi+eax+326]
  009cd	66 89 84 0a 7e
	01 00 00	 mov	 WORD PTR [edx+ecx+382], ax

; 282  : 			gObj[n].MTX = gObj[n].X;

  009d5	8b 45 f8	 mov	 eax, DWORD PTR _n$[ebp]
  009d8	69 c0 38 2b 00
	00		 imul	 eax, 11064		; 00002b38H
  009de	8b 4d f8	 mov	 ecx, DWORD PTR _n$[ebp]
  009e1	69 c9 38 2b 00
	00		 imul	 ecx, 11064		; 00002b38H
  009e7	8b 15 00 00 00
	00		 mov	 edx, DWORD PTR ?gObj@@3PAUOBJECTSTRUCT@@A ; gObj
  009ed	8b 35 00 00 00
	00		 mov	 esi, DWORD PTR ?gObj@@3PAUOBJECTSTRUCT@@A ; gObj
  009f3	66 8b 84 06 44
	01 00 00	 mov	 ax, WORD PTR [esi+eax+324]
  009fb	66 89 84 0a 80
	01 00 00	 mov	 WORD PTR [edx+ecx+384], ax

; 283  : 			gObj[n].MTY = gObj[n].Y;

  00a03	8b 45 f8	 mov	 eax, DWORD PTR _n$[ebp]
  00a06	69 c0 38 2b 00
	00		 imul	 eax, 11064		; 00002b38H
  00a0c	8b 4d f8	 mov	 ecx, DWORD PTR _n$[ebp]
  00a0f	69 c9 38 2b 00
	00		 imul	 ecx, 11064		; 00002b38H
  00a15	8b 15 00 00 00
	00		 mov	 edx, DWORD PTR ?gObj@@3PAUOBJECTSTRUCT@@A ; gObj
  00a1b	8b 35 00 00 00
	00		 mov	 esi, DWORD PTR ?gObj@@3PAUOBJECTSTRUCT@@A ; gObj
  00a21	66 8b 84 06 46
	01 00 00	 mov	 ax, WORD PTR [esi+eax+326]
  00a29	66 89 84 0a 82
	01 00 00	 mov	 WORD PTR [edx+ecx+386], ax

; 284  : 			gObj[n].StartX = gObj[n].X;

  00a31	8b 45 f8	 mov	 eax, DWORD PTR _n$[ebp]
  00a34	69 c0 38 2b 00
	00		 imul	 eax, 11064		; 00002b38H
  00a3a	8b 4d f8	 mov	 ecx, DWORD PTR _n$[ebp]
  00a3d	69 c9 38 2b 00
	00		 imul	 ecx, 11064		; 00002b38H
  00a43	8b 15 00 00 00
	00		 mov	 edx, DWORD PTR ?gObj@@3PAUOBJECTSTRUCT@@A ; gObj
  00a49	8b 35 00 00 00
	00		 mov	 esi, DWORD PTR ?gObj@@3PAUOBJECTSTRUCT@@A ; gObj
  00a4f	8a 84 06 44 01
	00 00		 mov	 al, BYTE PTR [esi+eax+324]
  00a56	88 84 0a 76 01
	00 00		 mov	 BYTE PTR [edx+ecx+374], al

; 285  : 			gObj[n].StartY = gObj[n].Y;

  00a5d	8b 45 f8	 mov	 eax, DWORD PTR _n$[ebp]
  00a60	69 c0 38 2b 00
	00		 imul	 eax, 11064		; 00002b38H
  00a66	8b 4d f8	 mov	 ecx, DWORD PTR _n$[ebp]
  00a69	69 c9 38 2b 00
	00		 imul	 ecx, 11064		; 00002b38H
  00a6f	8b 15 00 00 00
	00		 mov	 edx, DWORD PTR ?gObj@@3PAUOBJECTSTRUCT@@A ; gObj
  00a75	8b 35 00 00 00
	00		 mov	 esi, DWORD PTR ?gObj@@3PAUOBJECTSTRUCT@@A ; gObj
  00a7b	8a 84 06 46 01
	00 00		 mov	 al, BYTE PTR [esi+eax+326]
  00a82	88 84 0a 77 01
	00 00		 mov	 BYTE PTR [edx+ecx+375], al

; 286  : 			gObj[n].m_State = 1;

  00a89	8b 45 f8	 mov	 eax, DWORD PTR _n$[ebp]
  00a8c	69 c0 38 2b 00
	00		 imul	 eax, 11064		; 00002b38H
  00a92	8b 0d 00 00 00
	00		 mov	 ecx, DWORD PTR ?gObj@@3PAUOBJECTSTRUCT@@A ; gObj
  00a98	c7 84 01 20 02
	00 00 01 00 00
	00		 mov	 DWORD PTR [ecx+eax+544], 1

; 287  : 			gObj[n].PathCount = 0;

  00aa3	8b 45 f8	 mov	 eax, DWORD PTR _n$[ebp]
  00aa6	69 c0 38 2b 00
	00		 imul	 eax, 11064		; 00002b38H
  00aac	8b 0d 00 00 00
	00		 mov	 ecx, DWORD PTR ?gObj@@3PAUOBJECTSTRUCT@@A ; gObj
  00ab2	c7 84 01 84 01
	00 00 00 00 00
	00		 mov	 DWORD PTR [ecx+eax+388], 0

; 288  : 
; 289  : 			LogAddTD("Make GoldTaitan : %d, %d,%d",	MapNumber, gObj[n].X, gObj[n].Y);

  00abd	8b 45 f8	 mov	 eax, DWORD PTR _n$[ebp]
  00ac0	69 c0 38 2b 00
	00		 imul	 eax, 11064		; 00002b38H
  00ac6	8b 0d 00 00 00
	00		 mov	 ecx, DWORD PTR ?gObj@@3PAUOBJECTSTRUCT@@A ; gObj
  00acc	0f bf 94 01 46
	01 00 00	 movsx	 edx, WORD PTR [ecx+eax+326]
  00ad4	52		 push	 edx
  00ad5	8b 45 f8	 mov	 eax, DWORD PTR _n$[ebp]
  00ad8	69 c0 38 2b 00
	00		 imul	 eax, 11064		; 00002b38H
  00ade	8b 0d 00 00 00
	00		 mov	 ecx, DWORD PTR ?gObj@@3PAUOBJECTSTRUCT@@A ; gObj
  00ae4	0f bf 94 01 44
	01 00 00	 movsx	 edx, WORD PTR [ecx+eax+324]
  00aec	52		 push	 edx
  00aed	8b 45 f4	 mov	 eax, DWORD PTR _MapNumber$[ebp]
  00af0	50		 push	 eax
  00af1	68 00 00 00 00	 push	 OFFSET ??_C@_0BM@BOFIHGJ@Make?5GoldTaitan?5?3?5?$CFd?0?5?$CFd?0?$CFd?$AA@
  00af6	ff 15 00 00 00
	00		 call	 DWORD PTR ?LogAddTD@@3P6AXPADZZA ; LogAddTD
  00afc	83 c4 10	 add	 esp, 16			; 00000010H
  00aff	e9 2a 02 00 00	 jmp	 $LN1@RegenTitan
$LN5@RegenTitan:

; 290  : 		}
; 291  : 		else if ( gObj[n].Class == 54 )

  00b04	8b 45 f8	 mov	 eax, DWORD PTR _n$[ebp]
  00b07	69 c0 38 2b 00
	00		 imul	 eax, 11064		; 00002b38H
  00b0d	8b 0d 00 00 00
	00		 mov	 ecx, DWORD PTR ?gObj@@3PAUOBJECTSTRUCT@@A ; gObj
  00b13	0f b7 94 01 b8
	00 00 00	 movzx	 edx, WORD PTR [ecx+eax+184]
  00b1b	83 fa 36	 cmp	 edx, 54			; 00000036H
  00b1e	0f 85 0a 02 00
	00		 jne	 $LN1@RegenTitan

; 292  : 		{
; 293  : 			gObj[n].Live = TRUE;

  00b24	8b 45 f8	 mov	 eax, DWORD PTR _n$[ebp]
  00b27	69 c0 38 2b 00
	00		 imul	 eax, 11064		; 00002b38H
  00b2d	8b 0d 00 00 00
	00		 mov	 ecx, DWORD PTR ?gObj@@3PAUOBJECTSTRUCT@@A ; gObj
  00b33	c6 44 01 6a 01	 mov	 BYTE PTR [ecx+eax+106], 1

; 294  : 			MapNumber = this->m_BossTitanMapNumber;

  00b38	8b 45 fc	 mov	 eax, DWORD PTR _this$[ebp]
  00b3b	8b 48 44	 mov	 ecx, DWORD PTR [eax+68]
  00b3e	89 4d f4	 mov	 DWORD PTR _MapNumber$[ebp], ecx

; 295  : 			gObj[n].MapNumber = MapNumber;

  00b41	8b 45 f8	 mov	 eax, DWORD PTR _n$[ebp]
  00b44	69 c0 38 2b 00
	00		 imul	 eax, 11064		; 00002b38H
  00b4a	8b 0d 00 00 00
	00		 mov	 ecx, DWORD PTR ?gObj@@3PAUOBJECTSTRUCT@@A ; gObj
  00b50	8a 55 f4	 mov	 dl, BYTE PTR _MapNumber$[ebp]
  00b53	88 94 01 49 01
	00 00		 mov	 BYTE PTR [ecx+eax+329], dl

; 296  : 
; 297  : 			gMSetBase.GetBoxPosition(MapNumber, this->m_BossTitanMapX-4, this->m_BossTitanMapY-4,this->m_BossTitanMapX+4, this->m_BossTitanMapY+4, gObj[n].X, gObj[n].Y);

  00b5a	8b 45 f8	 mov	 eax, DWORD PTR _n$[ebp]
  00b5d	69 c0 38 2b 00
	00		 imul	 eax, 11064		; 00002b38H
  00b63	8b 0d 00 00 00
	00		 mov	 ecx, DWORD PTR ?gObj@@3PAUOBJECTSTRUCT@@A ; gObj
  00b69	8d 94 01 46 01
	00 00		 lea	 edx, DWORD PTR [ecx+eax+326]
  00b70	52		 push	 edx
  00b71	8b 45 f8	 mov	 eax, DWORD PTR _n$[ebp]
  00b74	69 c0 38 2b 00
	00		 imul	 eax, 11064		; 00002b38H
  00b7a	8b 0d 00 00 00
	00		 mov	 ecx, DWORD PTR ?gObj@@3PAUOBJECTSTRUCT@@A ; gObj
  00b80	8d 94 01 44 01
	00 00		 lea	 edx, DWORD PTR [ecx+eax+324]
  00b87	52		 push	 edx
  00b88	8b 45 fc	 mov	 eax, DWORD PTR _this$[ebp]
  00b8b	8b 48 4c	 mov	 ecx, DWORD PTR [eax+76]
  00b8e	83 c1 04	 add	 ecx, 4
  00b91	51		 push	 ecx
  00b92	8b 55 fc	 mov	 edx, DWORD PTR _this$[ebp]
  00b95	8b 42 48	 mov	 eax, DWORD PTR [edx+72]
  00b98	83 c0 04	 add	 eax, 4
  00b9b	50		 push	 eax
  00b9c	8b 4d fc	 mov	 ecx, DWORD PTR _this$[ebp]
  00b9f	8b 51 4c	 mov	 edx, DWORD PTR [ecx+76]
  00ba2	83 ea 04	 sub	 edx, 4
  00ba5	52		 push	 edx
  00ba6	8b 45 fc	 mov	 eax, DWORD PTR _this$[ebp]
  00ba9	8b 48 48	 mov	 ecx, DWORD PTR [eax+72]
  00bac	83 e9 04	 sub	 ecx, 4
  00baf	51		 push	 ecx
  00bb0	8b 55 f4	 mov	 edx, DWORD PTR _MapNumber$[ebp]
  00bb3	52		 push	 edx
  00bb4	b9 00 00 00 00	 mov	 ecx, OFFSET ?gMSetBase@@3VCMonsterSetBase@@A ; gMSetBase
  00bb9	e8 00 00 00 00	 call	 ?GetBoxPosition@CMonsterSetBase@@QAEHHHHHHAAF0@Z ; CMonsterSetBase::GetBoxPosition

; 298  : 
; 299  : 			gObj[n].Life = gObj[n].MaxLife;

  00bbe	8b 45 f8	 mov	 eax, DWORD PTR _n$[ebp]
  00bc1	69 c0 38 2b 00
	00		 imul	 eax, 11064		; 00002b38H
  00bc7	8b 4d f8	 mov	 ecx, DWORD PTR _n$[ebp]
  00bca	69 c9 38 2b 00
	00		 imul	 ecx, 11064		; 00002b38H
  00bd0	8b 15 00 00 00
	00		 mov	 edx, DWORD PTR ?gObj@@3PAUOBJECTSTRUCT@@A ; gObj
  00bd6	8b 35 00 00 00
	00		 mov	 esi, DWORD PTR ?gObj@@3PAUOBJECTSTRUCT@@A ; gObj
  00bdc	d9 84 06 00 01
	00 00		 fld	 DWORD PTR [esi+eax+256]
  00be3	d9 9c 0a fc 00
	00 00		 fstp	 DWORD PTR [edx+ecx+252]

; 300  : 			gObj[n].TX = gObj[n].X;

  00bea	8b 45 f8	 mov	 eax, DWORD PTR _n$[ebp]
  00bed	69 c0 38 2b 00
	00		 imul	 eax, 11064		; 00002b38H
  00bf3	8b 4d f8	 mov	 ecx, DWORD PTR _n$[ebp]
  00bf6	69 c9 38 2b 00
	00		 imul	 ecx, 11064		; 00002b38H
  00bfc	8b 15 00 00 00
	00		 mov	 edx, DWORD PTR ?gObj@@3PAUOBJECTSTRUCT@@A ; gObj
  00c02	8b 35 00 00 00
	00		 mov	 esi, DWORD PTR ?gObj@@3PAUOBJECTSTRUCT@@A ; gObj
  00c08	66 8b 84 06 44
	01 00 00	 mov	 ax, WORD PTR [esi+eax+324]
  00c10	66 89 84 0a 7c
	01 00 00	 mov	 WORD PTR [edx+ecx+380], ax

; 301  : 			gObj[n].TY = gObj[n].Y;

  00c18	8b 45 f8	 mov	 eax, DWORD PTR _n$[ebp]
  00c1b	69 c0 38 2b 00
	00		 imul	 eax, 11064		; 00002b38H
  00c21	8b 4d f8	 mov	 ecx, DWORD PTR _n$[ebp]
  00c24	69 c9 38 2b 00
	00		 imul	 ecx, 11064		; 00002b38H
  00c2a	8b 15 00 00 00
	00		 mov	 edx, DWORD PTR ?gObj@@3PAUOBJECTSTRUCT@@A ; gObj
  00c30	8b 35 00 00 00
	00		 mov	 esi, DWORD PTR ?gObj@@3PAUOBJECTSTRUCT@@A ; gObj
  00c36	66 8b 84 06 46
	01 00 00	 mov	 ax, WORD PTR [esi+eax+326]
  00c3e	66 89 84 0a 7e
	01 00 00	 mov	 WORD PTR [edx+ecx+382], ax

; 302  : 			gObj[n].MTX = gObj[n].X;

  00c46	8b 45 f8	 mov	 eax, DWORD PTR _n$[ebp]
  00c49	69 c0 38 2b 00
	00		 imul	 eax, 11064		; 00002b38H
  00c4f	8b 4d f8	 mov	 ecx, DWORD PTR _n$[ebp]
  00c52	69 c9 38 2b 00
	00		 imul	 ecx, 11064		; 00002b38H
  00c58	8b 15 00 00 00
	00		 mov	 edx, DWORD PTR ?gObj@@3PAUOBJECTSTRUCT@@A ; gObj
  00c5e	8b 35 00 00 00
	00		 mov	 esi, DWORD PTR ?gObj@@3PAUOBJECTSTRUCT@@A ; gObj
  00c64	66 8b 84 06 44
	01 00 00	 mov	 ax, WORD PTR [esi+eax+324]
  00c6c	66 89 84 0a 80
	01 00 00	 mov	 WORD PTR [edx+ecx+384], ax

; 303  : 			gObj[n].MTY = gObj[n].Y;

  00c74	8b 45 f8	 mov	 eax, DWORD PTR _n$[ebp]
  00c77	69 c0 38 2b 00
	00		 imul	 eax, 11064		; 00002b38H
  00c7d	8b 4d f8	 mov	 ecx, DWORD PTR _n$[ebp]
  00c80	69 c9 38 2b 00
	00		 imul	 ecx, 11064		; 00002b38H
  00c86	8b 15 00 00 00
	00		 mov	 edx, DWORD PTR ?gObj@@3PAUOBJECTSTRUCT@@A ; gObj
  00c8c	8b 35 00 00 00
	00		 mov	 esi, DWORD PTR ?gObj@@3PAUOBJECTSTRUCT@@A ; gObj
  00c92	66 8b 84 06 46
	01 00 00	 mov	 ax, WORD PTR [esi+eax+326]
  00c9a	66 89 84 0a 82
	01 00 00	 mov	 WORD PTR [edx+ecx+386], ax

; 304  : 			gObj[n].StartX = gObj[n].X;

  00ca2	8b 45 f8	 mov	 eax, DWORD PTR _n$[ebp]
  00ca5	69 c0 38 2b 00
	00		 imul	 eax, 11064		; 00002b38H
  00cab	8b 4d f8	 mov	 ecx, DWORD PTR _n$[ebp]
  00cae	69 c9 38 2b 00
	00		 imul	 ecx, 11064		; 00002b38H
  00cb4	8b 15 00 00 00
	00		 mov	 edx, DWORD PTR ?gObj@@3PAUOBJECTSTRUCT@@A ; gObj
  00cba	8b 35 00 00 00
	00		 mov	 esi, DWORD PTR ?gObj@@3PAUOBJECTSTRUCT@@A ; gObj
  00cc0	8a 84 06 44 01
	00 00		 mov	 al, BYTE PTR [esi+eax+324]
  00cc7	88 84 0a 76 01
	00 00		 mov	 BYTE PTR [edx+ecx+374], al

; 305  : 			gObj[n].StartY = gObj[n].Y;

  00cce	8b 45 f8	 mov	 eax, DWORD PTR _n$[ebp]
  00cd1	69 c0 38 2b 00
	00		 imul	 eax, 11064		; 00002b38H
  00cd7	8b 4d f8	 mov	 ecx, DWORD PTR _n$[ebp]
  00cda	69 c9 38 2b 00
	00		 imul	 ecx, 11064		; 00002b38H
  00ce0	8b 15 00 00 00
	00		 mov	 edx, DWORD PTR ?gObj@@3PAUOBJECTSTRUCT@@A ; gObj
  00ce6	8b 35 00 00 00
	00		 mov	 esi, DWORD PTR ?gObj@@3PAUOBJECTSTRUCT@@A ; gObj
  00cec	8a 84 06 46 01
	00 00		 mov	 al, BYTE PTR [esi+eax+326]
  00cf3	88 84 0a 77 01
	00 00		 mov	 BYTE PTR [edx+ecx+375], al

; 306  : 			gObj[n].m_State = 1;

  00cfa	8b 45 f8	 mov	 eax, DWORD PTR _n$[ebp]
  00cfd	69 c0 38 2b 00
	00		 imul	 eax, 11064		; 00002b38H
  00d03	8b 0d 00 00 00
	00		 mov	 ecx, DWORD PTR ?gObj@@3PAUOBJECTSTRUCT@@A ; gObj
  00d09	c7 84 01 20 02
	00 00 01 00 00
	00		 mov	 DWORD PTR [ecx+eax+544], 1

; 307  : 			gObj[n].PathCount = 0;

  00d14	8b 45 f8	 mov	 eax, DWORD PTR _n$[ebp]
  00d17	69 c0 38 2b 00
	00		 imul	 eax, 11064		; 00002b38H
  00d1d	8b 0d 00 00 00
	00		 mov	 ecx, DWORD PTR ?gObj@@3PAUOBJECTSTRUCT@@A ; gObj
  00d23	c7 84 01 84 01
	00 00 00 00 00
	00		 mov	 DWORD PTR [ecx+eax+388], 0
$LN1@RegenTitan:

; 308  : 		}
; 309  : 	}

  00d2e	e9 09 fb ff ff	 jmp	 $LN7@RegenTitan
$LN6@RegenTitan:

; 310  : }

  00d33	5f		 pop	 edi
  00d34	5e		 pop	 esi
  00d35	5b		 pop	 ebx
  00d36	8b e5		 mov	 esp, ebp
  00d38	5d		 pop	 ebp
  00d39	c3		 ret	 0
?RegenTitan@CEledoradoEvent@@QAEXXZ ENDP		; CEledoradoEvent::RegenTitan
_TEXT	ENDS
PUBLIC	??_C@_01CLKCMJKC@?5?$AA@			; `string'
PUBLIC	??_C@_0BM@ENHJDIJM@Make?5GoldDercon?5?3?5?$CFd?0?5?$CFd?0?$CFd?$AA@ ; `string'
PUBLIC	?CheckGoldDercon@CEledoradoEvent@@QAEXH@Z	; CEledoradoEvent::CheckGoldDercon
PUBLIC	__$ArrayPad$
EXTRN	_strcat:PROC
EXTRN	?Get@CMsg@@QAEPADH@Z:PROC			; CMsg::Get
EXTRN	?lMsg@@3VCMsg@@A:BYTE				; lMsg
EXTRN	_strcpy:PROC
EXTRN	_rand:PROC
EXTRN	___security_cookie:DWORD
EXTRN	@__security_check_cookie@4:PROC
;	COMDAT ??_C@_01CLKCMJKC@?5?$AA@
CONST	SEGMENT
??_C@_01CLKCMJKC@?5?$AA@ DB ' ', 00H			; `string'
CONST	ENDS
;	COMDAT ??_C@_0BM@ENHJDIJM@Make?5GoldDercon?5?3?5?$CFd?0?5?$CFd?0?$CFd?$AA@
CONST	SEGMENT
??_C@_0BM@ENHJDIJM@Make?5GoldDercon?5?3?5?$CFd?0?5?$CFd?0?$CFd?$AA@ DB 'M'
	DB	'ake GoldDercon : %d, %d,%d', 00H		; `string'
; Function compile flags: /Odtp /ZI
CONST	ENDS
_TEXT	SEGMENT
tv193 = -356						; size = 4
_szTemp$227695 = -288					; size = 256
_count$ = -32						; size = 4
_SelMap$ = -28						; size = 4
_Map$ = -24						; size = 8
_MapNumber$ = -16					; size = 4
_n$ = -12						; size = 4
_this$ = -8						; size = 4
__$ArrayPad$ = -4					; size = 4
?RegenGoldDercon@CEledoradoEvent@@QAEXXZ PROC		; CEledoradoEvent::RegenGoldDercon
; _this$ = ecx

; 313  : {

  00d40	55		 push	 ebp
  00d41	8b ec		 mov	 ebp, esp
  00d43	81 ec 64 01 00
	00		 sub	 esp, 356		; 00000164H
  00d49	a1 00 00 00 00	 mov	 eax, DWORD PTR ___security_cookie
  00d4e	33 c5		 xor	 eax, ebp
  00d50	89 45 fc	 mov	 DWORD PTR __$ArrayPad$[ebp], eax
  00d53	53		 push	 ebx
  00d54	56		 push	 esi
  00d55	57		 push	 edi
  00d56	89 4d f8	 mov	 DWORD PTR _this$[ebp], ecx

; 314  : 	int n=0;

  00d59	c7 45 f4 00 00
	00 00		 mov	 DWORD PTR _n$[ebp], 0

; 315  : 	int MapNumber=-1;

  00d60	c7 45 f0 ff ff
	ff ff		 mov	 DWORD PTR _MapNumber$[ebp], -1

; 316  : 	int Map[2]={0,4};

  00d67	c7 45 e8 00 00
	00 00		 mov	 DWORD PTR _Map$[ebp], 0
  00d6e	c7 45 ec 04 00
	00 00		 mov	 DWORD PTR _Map$[ebp+4], 4

; 317  : 	int SelMap = -1;

  00d75	c7 45 e4 ff ff
	ff ff		 mov	 DWORD PTR _SelMap$[ebp], -1

; 318  : 	int count = 0;

  00d7c	c7 45 e0 00 00
	00 00		 mov	 DWORD PTR _count$[ebp], 0

; 319  : 
; 320  : 	this->CheckGoldDercon(MapNumber);

  00d83	8b 45 f0	 mov	 eax, DWORD PTR _MapNumber$[ebp]
  00d86	50		 push	 eax
  00d87	8b 4d f8	 mov	 ecx, DWORD PTR _this$[ebp]
  00d8a	e8 00 00 00 00	 call	 ?CheckGoldDercon@CEledoradoEvent@@QAEXH@Z ; CEledoradoEvent::CheckGoldDercon

; 321  : 
; 322  : 	for (n=0;n<OBJ_MAXMONSTER;n++)

  00d8f	c7 45 f4 00 00
	00 00		 mov	 DWORD PTR _n$[ebp], 0
  00d96	eb 09		 jmp	 SHORT $LN14@RegenGoldD
$LN13@RegenGoldD:
  00d98	8b 45 f4	 mov	 eax, DWORD PTR _n$[ebp]
  00d9b	83 c0 01	 add	 eax, 1
  00d9e	89 45 f4	 mov	 DWORD PTR _n$[ebp], eax
$LN14@RegenGoldD:
  00da1	81 7d f4 c8 32
	00 00		 cmp	 DWORD PTR _n$[ebp], 13000 ; 000032c8H
  00da8	0f 8d 73 03 00
	00		 jge	 $LN12@RegenGoldD

; 323  : 	{
; 324  : 		if ( gObj[n].Class == 79 )

  00dae	8b 45 f4	 mov	 eax, DWORD PTR _n$[ebp]
  00db1	69 c0 38 2b 00
	00		 imul	 eax, 11064		; 00002b38H
  00db7	8b 0d 00 00 00
	00		 mov	 ecx, DWORD PTR ?gObj@@3PAUOBJECTSTRUCT@@A ; gObj
  00dbd	0f b7 94 01 b8
	00 00 00	 movzx	 edx, WORD PTR [ecx+eax+184]
  00dc5	83 fa 4f	 cmp	 edx, 79			; 0000004fH
  00dc8	0f 85 4e 03 00
	00		 jne	 $LN11@RegenGoldD

; 325  : 		{
; 326  : 			gObj[n].Live = TRUE;

  00dce	8b 45 f4	 mov	 eax, DWORD PTR _n$[ebp]
  00dd1	69 c0 38 2b 00
	00		 imul	 eax, 11064		; 00002b38H
  00dd7	8b 0d 00 00 00
	00		 mov	 ecx, DWORD PTR ?gObj@@3PAUOBJECTSTRUCT@@A ; gObj
  00ddd	c6 44 01 6a 01	 mov	 BYTE PTR [ecx+eax+106], 1

; 327  : 
; 328  : 			if ( SelMap == -1 )	

  00de2	83 7d e4 ff	 cmp	 DWORD PTR _SelMap$[ebp], -1
  00de6	75 1a		 jne	 SHORT $LN10@RegenGoldD

; 329  : 			{
; 330  : 				MapNumber = Map[rand()%2];

  00de8	e8 00 00 00 00	 call	 _rand
  00ded	25 01 00 00 80	 and	 eax, -2147483647	; 80000001H
  00df2	79 05		 jns	 SHORT $LN17@RegenGoldD
  00df4	48		 dec	 eax
  00df5	83 c8 fe	 or	 eax, -2			; fffffffeH
  00df8	40		 inc	 eax
$LN17@RegenGoldD:
  00df9	8b 44 85 e8	 mov	 eax, DWORD PTR _Map$[ebp+eax*4]
  00dfd	89 45 f0	 mov	 DWORD PTR _MapNumber$[ebp], eax

; 331  : 			}
; 332  : 			else

  00e00	eb 06		 jmp	 SHORT $LN9@RegenGoldD
$LN10@RegenGoldD:

; 333  : 			{
; 334  : 				MapNumber = SelMap;

  00e02	8b 45 e4	 mov	 eax, DWORD PTR _SelMap$[ebp]
  00e05	89 45 f0	 mov	 DWORD PTR _MapNumber$[ebp], eax
$LN9@RegenGoldD:

; 335  : 			}
; 336  : 
; 337  : 			gObj[n].MapNumber = MapNumber;

  00e08	8b 45 f4	 mov	 eax, DWORD PTR _n$[ebp]
  00e0b	69 c0 38 2b 00
	00		 imul	 eax, 11064		; 00002b38H
  00e11	8b 0d 00 00 00
	00		 mov	 ecx, DWORD PTR ?gObj@@3PAUOBJECTSTRUCT@@A ; gObj
  00e17	8a 55 f0	 mov	 dl, BYTE PTR _MapNumber$[ebp]
  00e1a	88 94 01 49 01
	00 00		 mov	 BYTE PTR [ecx+eax+329], dl
$LN8@RegenGoldD:

; 338  : 
; 339  : 			while ( gMSetBase.GetBoxPosition(MapNumber, 80, 80, 170, 170, gObj[n].X, gObj[n].Y) == 0 )

  00e21	8b 45 f4	 mov	 eax, DWORD PTR _n$[ebp]
  00e24	69 c0 38 2b 00
	00		 imul	 eax, 11064		; 00002b38H
  00e2a	8b 0d 00 00 00
	00		 mov	 ecx, DWORD PTR ?gObj@@3PAUOBJECTSTRUCT@@A ; gObj
  00e30	8d 94 01 46 01
	00 00		 lea	 edx, DWORD PTR [ecx+eax+326]
  00e37	52		 push	 edx
  00e38	8b 45 f4	 mov	 eax, DWORD PTR _n$[ebp]
  00e3b	69 c0 38 2b 00
	00		 imul	 eax, 11064		; 00002b38H
  00e41	8b 0d 00 00 00
	00		 mov	 ecx, DWORD PTR ?gObj@@3PAUOBJECTSTRUCT@@A ; gObj
  00e47	8d 94 01 44 01
	00 00		 lea	 edx, DWORD PTR [ecx+eax+324]
  00e4e	52		 push	 edx
  00e4f	68 aa 00 00 00	 push	 170			; 000000aaH
  00e54	68 aa 00 00 00	 push	 170			; 000000aaH
  00e59	6a 50		 push	 80			; 00000050H
  00e5b	6a 50		 push	 80			; 00000050H
  00e5d	8b 45 f0	 mov	 eax, DWORD PTR _MapNumber$[ebp]
  00e60	50		 push	 eax
  00e61	b9 00 00 00 00	 mov	 ecx, OFFSET ?gMSetBase@@3VCMonsterSetBase@@A ; gMSetBase
  00e66	e8 00 00 00 00	 call	 ?GetBoxPosition@CMonsterSetBase@@QAEHHHHHHAAF0@Z ; CMonsterSetBase::GetBoxPosition
  00e6b	85 c0		 test	 eax, eax
  00e6d	75 02		 jne	 SHORT $LN7@RegenGoldD

; 340  : 			{
; 341  : 
; 342  : 			}

  00e6f	eb b0		 jmp	 SHORT $LN8@RegenGoldD
$LN7@RegenGoldD:

; 343  : 
; 344  : 			gObj[n].Life = gObj[n].MaxLife;

  00e71	8b 45 f4	 mov	 eax, DWORD PTR _n$[ebp]
  00e74	69 c0 38 2b 00
	00		 imul	 eax, 11064		; 00002b38H
  00e7a	8b 4d f4	 mov	 ecx, DWORD PTR _n$[ebp]
  00e7d	69 c9 38 2b 00
	00		 imul	 ecx, 11064		; 00002b38H
  00e83	8b 15 00 00 00
	00		 mov	 edx, DWORD PTR ?gObj@@3PAUOBJECTSTRUCT@@A ; gObj
  00e89	8b 35 00 00 00
	00		 mov	 esi, DWORD PTR ?gObj@@3PAUOBJECTSTRUCT@@A ; gObj
  00e8f	d9 84 06 00 01
	00 00		 fld	 DWORD PTR [esi+eax+256]
  00e96	d9 9c 0a fc 00
	00 00		 fstp	 DWORD PTR [edx+ecx+252]

; 345  : 			gObj[n].TX = gObj[n].X;

  00e9d	8b 45 f4	 mov	 eax, DWORD PTR _n$[ebp]
  00ea0	69 c0 38 2b 00
	00		 imul	 eax, 11064		; 00002b38H
  00ea6	8b 4d f4	 mov	 ecx, DWORD PTR _n$[ebp]
  00ea9	69 c9 38 2b 00
	00		 imul	 ecx, 11064		; 00002b38H
  00eaf	8b 15 00 00 00
	00		 mov	 edx, DWORD PTR ?gObj@@3PAUOBJECTSTRUCT@@A ; gObj
  00eb5	8b 35 00 00 00
	00		 mov	 esi, DWORD PTR ?gObj@@3PAUOBJECTSTRUCT@@A ; gObj
  00ebb	66 8b 84 06 44
	01 00 00	 mov	 ax, WORD PTR [esi+eax+324]
  00ec3	66 89 84 0a 7c
	01 00 00	 mov	 WORD PTR [edx+ecx+380], ax

; 346  : 			gObj[n].TY = gObj[n].Y;

  00ecb	8b 45 f4	 mov	 eax, DWORD PTR _n$[ebp]
  00ece	69 c0 38 2b 00
	00		 imul	 eax, 11064		; 00002b38H
  00ed4	8b 4d f4	 mov	 ecx, DWORD PTR _n$[ebp]
  00ed7	69 c9 38 2b 00
	00		 imul	 ecx, 11064		; 00002b38H
  00edd	8b 15 00 00 00
	00		 mov	 edx, DWORD PTR ?gObj@@3PAUOBJECTSTRUCT@@A ; gObj
  00ee3	8b 35 00 00 00
	00		 mov	 esi, DWORD PTR ?gObj@@3PAUOBJECTSTRUCT@@A ; gObj
  00ee9	66 8b 84 06 46
	01 00 00	 mov	 ax, WORD PTR [esi+eax+326]
  00ef1	66 89 84 0a 7e
	01 00 00	 mov	 WORD PTR [edx+ecx+382], ax

; 347  : 			gObj[n].MTX = gObj[n].X;

  00ef9	8b 45 f4	 mov	 eax, DWORD PTR _n$[ebp]
  00efc	69 c0 38 2b 00
	00		 imul	 eax, 11064		; 00002b38H
  00f02	8b 4d f4	 mov	 ecx, DWORD PTR _n$[ebp]
  00f05	69 c9 38 2b 00
	00		 imul	 ecx, 11064		; 00002b38H
  00f0b	8b 15 00 00 00
	00		 mov	 edx, DWORD PTR ?gObj@@3PAUOBJECTSTRUCT@@A ; gObj
  00f11	8b 35 00 00 00
	00		 mov	 esi, DWORD PTR ?gObj@@3PAUOBJECTSTRUCT@@A ; gObj
  00f17	66 8b 84 06 44
	01 00 00	 mov	 ax, WORD PTR [esi+eax+324]
  00f1f	66 89 84 0a 80
	01 00 00	 mov	 WORD PTR [edx+ecx+384], ax

; 348  : 			gObj[n].MTY = gObj[n].Y;

  00f27	8b 45 f4	 mov	 eax, DWORD PTR _n$[ebp]
  00f2a	69 c0 38 2b 00
	00		 imul	 eax, 11064		; 00002b38H
  00f30	8b 4d f4	 mov	 ecx, DWORD PTR _n$[ebp]
  00f33	69 c9 38 2b 00
	00		 imul	 ecx, 11064		; 00002b38H
  00f39	8b 15 00 00 00
	00		 mov	 edx, DWORD PTR ?gObj@@3PAUOBJECTSTRUCT@@A ; gObj
  00f3f	8b 35 00 00 00
	00		 mov	 esi, DWORD PTR ?gObj@@3PAUOBJECTSTRUCT@@A ; gObj
  00f45	66 8b 84 06 46
	01 00 00	 mov	 ax, WORD PTR [esi+eax+326]
  00f4d	66 89 84 0a 82
	01 00 00	 mov	 WORD PTR [edx+ecx+386], ax

; 349  : 			gObj[n].StartX = gObj[n].X;

  00f55	8b 45 f4	 mov	 eax, DWORD PTR _n$[ebp]
  00f58	69 c0 38 2b 00
	00		 imul	 eax, 11064		; 00002b38H
  00f5e	8b 4d f4	 mov	 ecx, DWORD PTR _n$[ebp]
  00f61	69 c9 38 2b 00
	00		 imul	 ecx, 11064		; 00002b38H
  00f67	8b 15 00 00 00
	00		 mov	 edx, DWORD PTR ?gObj@@3PAUOBJECTSTRUCT@@A ; gObj
  00f6d	8b 35 00 00 00
	00		 mov	 esi, DWORD PTR ?gObj@@3PAUOBJECTSTRUCT@@A ; gObj
  00f73	8a 84 06 44 01
	00 00		 mov	 al, BYTE PTR [esi+eax+324]
  00f7a	88 84 0a 76 01
	00 00		 mov	 BYTE PTR [edx+ecx+374], al

; 350  : 			gObj[n].StartY = gObj[n].Y;

  00f81	8b 45 f4	 mov	 eax, DWORD PTR _n$[ebp]
  00f84	69 c0 38 2b 00
	00		 imul	 eax, 11064		; 00002b38H
  00f8a	8b 4d f4	 mov	 ecx, DWORD PTR _n$[ebp]
  00f8d	69 c9 38 2b 00
	00		 imul	 ecx, 11064		; 00002b38H
  00f93	8b 15 00 00 00
	00		 mov	 edx, DWORD PTR ?gObj@@3PAUOBJECTSTRUCT@@A ; gObj
  00f99	8b 35 00 00 00
	00		 mov	 esi, DWORD PTR ?gObj@@3PAUOBJECTSTRUCT@@A ; gObj
  00f9f	8a 84 06 46 01
	00 00		 mov	 al, BYTE PTR [esi+eax+326]
  00fa6	88 84 0a 77 01
	00 00		 mov	 BYTE PTR [edx+ecx+375], al

; 351  : 			gObj[n].m_State = 1;

  00fad	8b 45 f4	 mov	 eax, DWORD PTR _n$[ebp]
  00fb0	69 c0 38 2b 00
	00		 imul	 eax, 11064		; 00002b38H
  00fb6	8b 0d 00 00 00
	00		 mov	 ecx, DWORD PTR ?gObj@@3PAUOBJECTSTRUCT@@A ; gObj
  00fbc	c7 84 01 20 02
	00 00 01 00 00
	00		 mov	 DWORD PTR [ecx+eax+544], 1

; 352  : 			gObj[n].PathCount = 0;

  00fc7	8b 45 f4	 mov	 eax, DWORD PTR _n$[ebp]
  00fca	69 c0 38 2b 00
	00		 imul	 eax, 11064		; 00002b38H
  00fd0	8b 0d 00 00 00
	00		 mov	 ecx, DWORD PTR ?gObj@@3PAUOBJECTSTRUCT@@A ; gObj
  00fd6	c7 84 01 84 01
	00 00 00 00 00
	00		 mov	 DWORD PTR [ecx+eax+388], 0

; 353  : 
; 354  : 			LogAddTD("Make GoldDercon : %d, %d,%d",	MapNumber, gObj[n].X, gObj[n].Y);

  00fe1	8b 45 f4	 mov	 eax, DWORD PTR _n$[ebp]
  00fe4	69 c0 38 2b 00
	00		 imul	 eax, 11064		; 00002b38H
  00fea	8b 0d 00 00 00
	00		 mov	 ecx, DWORD PTR ?gObj@@3PAUOBJECTSTRUCT@@A ; gObj
  00ff0	0f bf 94 01 46
	01 00 00	 movsx	 edx, WORD PTR [ecx+eax+326]
  00ff8	52		 push	 edx
  00ff9	8b 45 f4	 mov	 eax, DWORD PTR _n$[ebp]
  00ffc	69 c0 38 2b 00
	00		 imul	 eax, 11064		; 00002b38H
  01002	8b 0d 00 00 00
	00		 mov	 ecx, DWORD PTR ?gObj@@3PAUOBJECTSTRUCT@@A ; gObj
  01008	0f bf 94 01 44
	01 00 00	 movsx	 edx, WORD PTR [ecx+eax+324]
  01010	52		 push	 edx
  01011	8b 45 f0	 mov	 eax, DWORD PTR _MapNumber$[ebp]
  01014	50		 push	 eax
  01015	68 00 00 00 00	 push	 OFFSET ??_C@_0BM@ENHJDIJM@Make?5GoldDercon?5?3?5?$CFd?0?5?$CFd?0?$CFd?$AA@
  0101a	ff 15 00 00 00
	00		 call	 DWORD PTR ?LogAddTD@@3P6AXPADZZA ; LogAddTD
  01020	83 c4 10	 add	 esp, 16			; 00000010H

; 355  : 
; 356  : 			if ( SelMap == -1 )

  01023	83 7d e4 ff	 cmp	 DWORD PTR _SelMap$[ebp], -1
  01027	0f 85 ba 00 00
	00		 jne	 $LN6@RegenGoldD

; 357  : 			{
; 358  : 				char szTemp[256];
; 359  : 				strcpy(szTemp, " ");

  0102d	68 00 00 00 00	 push	 OFFSET ??_C@_01CLKCMJKC@?5?$AA@
  01032	8d 85 e0 fe ff
	ff		 lea	 eax, DWORD PTR _szTemp$227695[ebp]
  01038	50		 push	 eax
  01039	e8 00 00 00 00	 call	 _strcpy
  0103e	83 c4 08	 add	 esp, 8

; 360  : 
; 361  : 				switch ( MapNumber )

  01041	8b 45 f0	 mov	 eax, DWORD PTR _MapNumber$[ebp]
  01044	89 85 9c fe ff
	ff		 mov	 DWORD PTR tv193[ebp], eax
  0104a	83 bd 9c fe ff
	ff 00		 cmp	 DWORD PTR tv193[ebp], 0
  01051	74 14		 je	 SHORT $LN3@RegenGoldD
  01053	83 bd 9c fe ff
	ff 02		 cmp	 DWORD PTR tv193[ebp], 2
  0105a	74 2c		 je	 SHORT $LN2@RegenGoldD
  0105c	83 bd 9c fe ff
	ff 03		 cmp	 DWORD PTR tv193[ebp], 3
  01063	74 44		 je	 SHORT $LN1@RegenGoldD
  01065	eb 61		 jmp	 SHORT $LN4@RegenGoldD
$LN3@RegenGoldD:

; 362  : 				{
; 363  : 					case 0:
; 364  : 						strcat(szTemp, lMsg.Get(MSGGET(7, 208)));

  01067	68 d0 07 00 00	 push	 2000			; 000007d0H
  0106c	b9 00 00 00 00	 mov	 ecx, OFFSET ?lMsg@@3VCMsg@@A ; lMsg
  01071	e8 00 00 00 00	 call	 ?Get@CMsg@@QAEPADH@Z	; CMsg::Get
  01076	50		 push	 eax
  01077	8d 85 e0 fe ff
	ff		 lea	 eax, DWORD PTR _szTemp$227695[ebp]
  0107d	50		 push	 eax
  0107e	e8 00 00 00 00	 call	 _strcat
  01083	83 c4 08	 add	 esp, 8

; 365  : 						break;

  01086	eb 40		 jmp	 SHORT $LN4@RegenGoldD
$LN2@RegenGoldD:

; 366  : 					case 2:
; 367  : 						strcat(szTemp, lMsg.Get(MSGGET(7, 210)));

  01088	68 d2 07 00 00	 push	 2002			; 000007d2H
  0108d	b9 00 00 00 00	 mov	 ecx, OFFSET ?lMsg@@3VCMsg@@A ; lMsg
  01092	e8 00 00 00 00	 call	 ?Get@CMsg@@QAEPADH@Z	; CMsg::Get
  01097	50		 push	 eax
  01098	8d 85 e0 fe ff
	ff		 lea	 eax, DWORD PTR _szTemp$227695[ebp]
  0109e	50		 push	 eax
  0109f	e8 00 00 00 00	 call	 _strcat
  010a4	83 c4 08	 add	 esp, 8

; 368  : 						break;

  010a7	eb 1f		 jmp	 SHORT $LN4@RegenGoldD
$LN1@RegenGoldD:

; 369  : 					case 3:
; 370  : 						strcat(szTemp, lMsg.Get(MSGGET(7, 211)));

  010a9	68 d3 07 00 00	 push	 2003			; 000007d3H
  010ae	b9 00 00 00 00	 mov	 ecx, OFFSET ?lMsg@@3VCMsg@@A ; lMsg
  010b3	e8 00 00 00 00	 call	 ?Get@CMsg@@QAEPADH@Z	; CMsg::Get
  010b8	50		 push	 eax
  010b9	8d 85 e0 fe ff
	ff		 lea	 eax, DWORD PTR _szTemp$227695[ebp]
  010bf	50		 push	 eax
  010c0	e8 00 00 00 00	 call	 _strcat
  010c5	83 c4 08	 add	 esp, 8
$LN4@RegenGoldD:

; 371  : 						break;
; 372  : 				}
; 373  : 
; 374  : 				strcat(szTemp, lMsg.Get(MSGGET(4, 134)));

  010c8	68 86 04 00 00	 push	 1158			; 00000486H
  010cd	b9 00 00 00 00	 mov	 ecx, OFFSET ?lMsg@@3VCMsg@@A ; lMsg
  010d2	e8 00 00 00 00	 call	 ?Get@CMsg@@QAEPADH@Z	; CMsg::Get
  010d7	50		 push	 eax
  010d8	8d 85 e0 fe ff
	ff		 lea	 eax, DWORD PTR _szTemp$227695[ebp]
  010de	50		 push	 eax
  010df	e8 00 00 00 00	 call	 _strcat
  010e4	83 c4 08	 add	 esp, 8
$LN6@RegenGoldD:

; 375  : 			}
; 376  : 
; 377  : 			this->m_BossGoldDerconMapNumber[count] = MapNumber;

  010e7	8b 45 e0	 mov	 eax, DWORD PTR _count$[ebp]
  010ea	8b 4d f8	 mov	 ecx, DWORD PTR _this$[ebp]
  010ed	8b 55 f0	 mov	 edx, DWORD PTR _MapNumber$[ebp]
  010f0	89 54 81 6c	 mov	 DWORD PTR [ecx+eax*4+108], edx

; 378  : 			gObj[n].m_BossGoldDerconMapNumber = count;

  010f4	8b 45 f4	 mov	 eax, DWORD PTR _n$[ebp]
  010f7	69 c0 38 2b 00
	00		 imul	 eax, 11064		; 00002b38H
  010fd	8b 0d 00 00 00
	00		 mov	 ecx, DWORD PTR ?gObj@@3PAUOBJECTSTRUCT@@A ; gObj
  01103	8a 55 e0	 mov	 dl, BYTE PTR _count$[ebp]
  01106	88 94 01 e4 10
	00 00		 mov	 BYTE PTR [ecx+eax+4324], dl

; 379  : 			count++;

  0110d	8b 45 e0	 mov	 eax, DWORD PTR _count$[ebp]
  01110	83 c0 01	 add	 eax, 1
  01113	89 45 e0	 mov	 DWORD PTR _count$[ebp], eax

; 380  : 			SelMap = MapNumber;

  01116	8b 45 f0	 mov	 eax, DWORD PTR _MapNumber$[ebp]
  01119	89 45 e4	 mov	 DWORD PTR _SelMap$[ebp], eax
$LN11@RegenGoldD:

; 381  : 		}
; 382  : 	}

  0111c	e9 77 fc ff ff	 jmp	 $LN13@RegenGoldD
$LN12@RegenGoldD:

; 383  : 
; 384  : 	this->CheckGoldDercon(MapNumber);

  01121	8b 45 f0	 mov	 eax, DWORD PTR _MapNumber$[ebp]
  01124	50		 push	 eax
  01125	8b 4d f8	 mov	 ecx, DWORD PTR _this$[ebp]
  01128	e8 00 00 00 00	 call	 ?CheckGoldDercon@CEledoradoEvent@@QAEXH@Z ; CEledoradoEvent::CheckGoldDercon

; 385  : }

  0112d	5f		 pop	 edi
  0112e	5e		 pop	 esi
  0112f	5b		 pop	 ebx
  01130	8b 4d fc	 mov	 ecx, DWORD PTR __$ArrayPad$[ebp]
  01133	33 cd		 xor	 ecx, ebp
  01135	e8 00 00 00 00	 call	 @__security_check_cookie@4
  0113a	8b e5		 mov	 esp, ebp
  0113c	5d		 pop	 ebp
  0113d	c3		 ret	 0
?RegenGoldDercon@CEledoradoEvent@@QAEXXZ ENDP		; CEledoradoEvent::RegenGoldDercon
_TEXT	ENDS
PUBLIC	??_C@_0BP@HMGNFLDB@Make?5GoldLizarKing?5?3?5?$CFd?0?5?$CFd?0?$CFd?$AA@ ; `string'
;	COMDAT ??_C@_0BP@HMGNFLDB@Make?5GoldLizarKing?5?3?5?$CFd?0?5?$CFd?0?$CFd?$AA@
CONST	SEGMENT
??_C@_0BP@HMGNFLDB@Make?5GoldLizarKing?5?3?5?$CFd?0?5?$CFd?0?$CFd?$AA@ DB 'M'
	DB	'ake GoldLizarKing : %d, %d,%d', 00H		; `string'
; Function compile flags: /Odtp /ZI
CONST	ENDS
_TEXT	SEGMENT
_MapNumber$ = -12					; size = 4
_n$ = -8						; size = 4
_this$ = -4						; size = 4
?RegenDevilLizardKing@CEledoradoEvent@@QAEXXZ PROC	; CEledoradoEvent::RegenDevilLizardKing
; _this$ = ecx

; 390  : {

  01140	55		 push	 ebp
  01141	8b ec		 mov	 ebp, esp
  01143	83 ec 4c	 sub	 esp, 76			; 0000004cH
  01146	53		 push	 ebx
  01147	56		 push	 esi
  01148	57		 push	 edi
  01149	89 4d fc	 mov	 DWORD PTR _this$[ebp], ecx

; 391  : 	int n=0;

  0114c	c7 45 f8 00 00
	00 00		 mov	 DWORD PTR _n$[ebp], 0

; 392  : 	int MapNumber;
; 393  : 
; 394  : 	for (n=0;n<OBJ_MAXMONSTER;n++)

  01153	c7 45 f8 00 00
	00 00		 mov	 DWORD PTR _n$[ebp], 0
  0115a	eb 09		 jmp	 SHORT $LN10@RegenDevil
$LN9@RegenDevil:
  0115c	8b 45 f8	 mov	 eax, DWORD PTR _n$[ebp]
  0115f	83 c0 01	 add	 eax, 1
  01162	89 45 f8	 mov	 DWORD PTR _n$[ebp], eax
$LN10@RegenDevil:
  01165	81 7d f8 c8 32
	00 00		 cmp	 DWORD PTR _n$[ebp], 13000 ; 000032c8H
  0116c	0f 8d cd 04 00
	00		 jge	 $LN8@RegenDevil

; 395  : 	{
; 396  : 		MapNumber = 7;

  01172	c7 45 f4 07 00
	00 00		 mov	 DWORD PTR _MapNumber$[ebp], 7

; 397  : 
; 398  : 		if ( gObj[n].Class == 80 )

  01179	8b 45 f8	 mov	 eax, DWORD PTR _n$[ebp]
  0117c	69 c0 38 2b 00
	00		 imul	 eax, 11064		; 00002b38H
  01182	8b 0d 00 00 00
	00		 mov	 ecx, DWORD PTR ?gObj@@3PAUOBJECTSTRUCT@@A ; gObj
  01188	0f b7 94 01 b8
	00 00 00	 movzx	 edx, WORD PTR [ecx+eax+184]
  01190	83 fa 50	 cmp	 edx, 80			; 00000050H
  01193	0f 85 8b 02 00
	00		 jne	 $LN7@RegenDevil

; 399  : 		{
; 400  : 			gObj[n].Live = TRUE;

  01199	8b 45 f8	 mov	 eax, DWORD PTR _n$[ebp]
  0119c	69 c0 38 2b 00
	00		 imul	 eax, 11064		; 00002b38H
  011a2	8b 0d 00 00 00
	00		 mov	 ecx, DWORD PTR ?gObj@@3PAUOBJECTSTRUCT@@A ; gObj
  011a8	c6 44 01 6a 01	 mov	 BYTE PTR [ecx+eax+106], 1

; 401  : 			gObj[n].MapNumber = MapNumber;

  011ad	8b 45 f8	 mov	 eax, DWORD PTR _n$[ebp]
  011b0	69 c0 38 2b 00
	00		 imul	 eax, 11064		; 00002b38H
  011b6	8b 0d 00 00 00
	00		 mov	 ecx, DWORD PTR ?gObj@@3PAUOBJECTSTRUCT@@A ; gObj
  011bc	8a 55 f4	 mov	 dl, BYTE PTR _MapNumber$[ebp]
  011bf	88 94 01 49 01
	00 00		 mov	 BYTE PTR [ecx+eax+329], dl
$LN6@RegenDevil:

; 402  : 
; 403  : 			while ( gMSetBase.GetBoxPosition(MapNumber, 50, 50, 200, 200, gObj[n].X, gObj[n].Y) == 0 )

  011c6	8b 45 f8	 mov	 eax, DWORD PTR _n$[ebp]
  011c9	69 c0 38 2b 00
	00		 imul	 eax, 11064		; 00002b38H
  011cf	8b 0d 00 00 00
	00		 mov	 ecx, DWORD PTR ?gObj@@3PAUOBJECTSTRUCT@@A ; gObj
  011d5	8d 94 01 46 01
	00 00		 lea	 edx, DWORD PTR [ecx+eax+326]
  011dc	52		 push	 edx
  011dd	8b 45 f8	 mov	 eax, DWORD PTR _n$[ebp]
  011e0	69 c0 38 2b 00
	00		 imul	 eax, 11064		; 00002b38H
  011e6	8b 0d 00 00 00
	00		 mov	 ecx, DWORD PTR ?gObj@@3PAUOBJECTSTRUCT@@A ; gObj
  011ec	8d 94 01 44 01
	00 00		 lea	 edx, DWORD PTR [ecx+eax+324]
  011f3	52		 push	 edx
  011f4	68 c8 00 00 00	 push	 200			; 000000c8H
  011f9	68 c8 00 00 00	 push	 200			; 000000c8H
  011fe	6a 32		 push	 50			; 00000032H
  01200	6a 32		 push	 50			; 00000032H
  01202	8b 45 f4	 mov	 eax, DWORD PTR _MapNumber$[ebp]
  01205	50		 push	 eax
  01206	b9 00 00 00 00	 mov	 ecx, OFFSET ?gMSetBase@@3VCMonsterSetBase@@A ; gMSetBase
  0120b	e8 00 00 00 00	 call	 ?GetBoxPosition@CMonsterSetBase@@QAEHHHHHHAAF0@Z ; CMonsterSetBase::GetBoxPosition
  01210	85 c0		 test	 eax, eax
  01212	75 02		 jne	 SHORT $LN5@RegenDevil

; 404  : 			{
; 405  : 
; 406  : 			}

  01214	eb b0		 jmp	 SHORT $LN6@RegenDevil
$LN5@RegenDevil:

; 407  : 
; 408  : 			this->m_BossDevilLizardKingMapNumber = gObj[n].MapNumber;

  01216	8b 45 f8	 mov	 eax, DWORD PTR _n$[ebp]
  01219	69 c0 38 2b 00
	00		 imul	 eax, 11064		; 00002b38H
  0121f	8b 0d 00 00 00
	00		 mov	 ecx, DWORD PTR ?gObj@@3PAUOBJECTSTRUCT@@A ; gObj
  01225	0f b6 94 01 49
	01 00 00	 movzx	 edx, BYTE PTR [ecx+eax+329]
  0122d	8b 45 fc	 mov	 eax, DWORD PTR _this$[ebp]
  01230	89 50 50	 mov	 DWORD PTR [eax+80], edx

; 409  : 			this->m_BossDevilLizardKingMapX = gObj[n].X;

  01233	8b 45 f8	 mov	 eax, DWORD PTR _n$[ebp]
  01236	69 c0 38 2b 00
	00		 imul	 eax, 11064		; 00002b38H
  0123c	8b 0d 00 00 00
	00		 mov	 ecx, DWORD PTR ?gObj@@3PAUOBJECTSTRUCT@@A ; gObj
  01242	0f bf 94 01 44
	01 00 00	 movsx	 edx, WORD PTR [ecx+eax+324]
  0124a	8b 45 fc	 mov	 eax, DWORD PTR _this$[ebp]
  0124d	89 50 54	 mov	 DWORD PTR [eax+84], edx

; 410  : 			this->m_BossDevilLizardKingMapY = gObj[n].Y;

  01250	8b 45 f8	 mov	 eax, DWORD PTR _n$[ebp]
  01253	69 c0 38 2b 00
	00		 imul	 eax, 11064		; 00002b38H
  01259	8b 0d 00 00 00
	00		 mov	 ecx, DWORD PTR ?gObj@@3PAUOBJECTSTRUCT@@A ; gObj
  0125f	0f bf 94 01 46
	01 00 00	 movsx	 edx, WORD PTR [ecx+eax+326]
  01267	8b 45 fc	 mov	 eax, DWORD PTR _this$[ebp]
  0126a	89 50 58	 mov	 DWORD PTR [eax+88], edx

; 411  : 
; 412  : 			gObj[n].Life = gObj[n].MaxLife;

  0126d	8b 45 f8	 mov	 eax, DWORD PTR _n$[ebp]
  01270	69 c0 38 2b 00
	00		 imul	 eax, 11064		; 00002b38H
  01276	8b 4d f8	 mov	 ecx, DWORD PTR _n$[ebp]
  01279	69 c9 38 2b 00
	00		 imul	 ecx, 11064		; 00002b38H
  0127f	8b 15 00 00 00
	00		 mov	 edx, DWORD PTR ?gObj@@3PAUOBJECTSTRUCT@@A ; gObj
  01285	8b 35 00 00 00
	00		 mov	 esi, DWORD PTR ?gObj@@3PAUOBJECTSTRUCT@@A ; gObj
  0128b	d9 84 06 00 01
	00 00		 fld	 DWORD PTR [esi+eax+256]
  01292	d9 9c 0a fc 00
	00 00		 fstp	 DWORD PTR [edx+ecx+252]

; 413  : 			gObj[n].TX = gObj[n].X;

  01299	8b 45 f8	 mov	 eax, DWORD PTR _n$[ebp]
  0129c	69 c0 38 2b 00
	00		 imul	 eax, 11064		; 00002b38H
  012a2	8b 4d f8	 mov	 ecx, DWORD PTR _n$[ebp]
  012a5	69 c9 38 2b 00
	00		 imul	 ecx, 11064		; 00002b38H
  012ab	8b 15 00 00 00
	00		 mov	 edx, DWORD PTR ?gObj@@3PAUOBJECTSTRUCT@@A ; gObj
  012b1	8b 35 00 00 00
	00		 mov	 esi, DWORD PTR ?gObj@@3PAUOBJECTSTRUCT@@A ; gObj
  012b7	66 8b 84 06 44
	01 00 00	 mov	 ax, WORD PTR [esi+eax+324]
  012bf	66 89 84 0a 7c
	01 00 00	 mov	 WORD PTR [edx+ecx+380], ax

; 414  : 			gObj[n].TY = gObj[n].Y;

  012c7	8b 45 f8	 mov	 eax, DWORD PTR _n$[ebp]
  012ca	69 c0 38 2b 00
	00		 imul	 eax, 11064		; 00002b38H
  012d0	8b 4d f8	 mov	 ecx, DWORD PTR _n$[ebp]
  012d3	69 c9 38 2b 00
	00		 imul	 ecx, 11064		; 00002b38H
  012d9	8b 15 00 00 00
	00		 mov	 edx, DWORD PTR ?gObj@@3PAUOBJECTSTRUCT@@A ; gObj
  012df	8b 35 00 00 00
	00		 mov	 esi, DWORD PTR ?gObj@@3PAUOBJECTSTRUCT@@A ; gObj
  012e5	66 8b 84 06 46
	01 00 00	 mov	 ax, WORD PTR [esi+eax+326]
  012ed	66 89 84 0a 7e
	01 00 00	 mov	 WORD PTR [edx+ecx+382], ax

; 415  : 			gObj[n].MTX = gObj[n].X;

  012f5	8b 45 f8	 mov	 eax, DWORD PTR _n$[ebp]
  012f8	69 c0 38 2b 00
	00		 imul	 eax, 11064		; 00002b38H
  012fe	8b 4d f8	 mov	 ecx, DWORD PTR _n$[ebp]
  01301	69 c9 38 2b 00
	00		 imul	 ecx, 11064		; 00002b38H
  01307	8b 15 00 00 00
	00		 mov	 edx, DWORD PTR ?gObj@@3PAUOBJECTSTRUCT@@A ; gObj
  0130d	8b 35 00 00 00
	00		 mov	 esi, DWORD PTR ?gObj@@3PAUOBJECTSTRUCT@@A ; gObj
  01313	66 8b 84 06 44
	01 00 00	 mov	 ax, WORD PTR [esi+eax+324]
  0131b	66 89 84 0a 80
	01 00 00	 mov	 WORD PTR [edx+ecx+384], ax

; 416  : 			gObj[n].MTY = gObj[n].Y;

  01323	8b 45 f8	 mov	 eax, DWORD PTR _n$[ebp]
  01326	69 c0 38 2b 00
	00		 imul	 eax, 11064		; 00002b38H
  0132c	8b 4d f8	 mov	 ecx, DWORD PTR _n$[ebp]
  0132f	69 c9 38 2b 00
	00		 imul	 ecx, 11064		; 00002b38H
  01335	8b 15 00 00 00
	00		 mov	 edx, DWORD PTR ?gObj@@3PAUOBJECTSTRUCT@@A ; gObj
  0133b	8b 35 00 00 00
	00		 mov	 esi, DWORD PTR ?gObj@@3PAUOBJECTSTRUCT@@A ; gObj
  01341	66 8b 84 06 46
	01 00 00	 mov	 ax, WORD PTR [esi+eax+326]
  01349	66 89 84 0a 82
	01 00 00	 mov	 WORD PTR [edx+ecx+386], ax

; 417  : 			gObj[n].StartX = gObj[n].X;

  01351	8b 45 f8	 mov	 eax, DWORD PTR _n$[ebp]
  01354	69 c0 38 2b 00
	00		 imul	 eax, 11064		; 00002b38H
  0135a	8b 4d f8	 mov	 ecx, DWORD PTR _n$[ebp]
  0135d	69 c9 38 2b 00
	00		 imul	 ecx, 11064		; 00002b38H
  01363	8b 15 00 00 00
	00		 mov	 edx, DWORD PTR ?gObj@@3PAUOBJECTSTRUCT@@A ; gObj
  01369	8b 35 00 00 00
	00		 mov	 esi, DWORD PTR ?gObj@@3PAUOBJECTSTRUCT@@A ; gObj
  0136f	8a 84 06 44 01
	00 00		 mov	 al, BYTE PTR [esi+eax+324]
  01376	88 84 0a 76 01
	00 00		 mov	 BYTE PTR [edx+ecx+374], al

; 418  : 			gObj[n].StartY = gObj[n].Y;

  0137d	8b 45 f8	 mov	 eax, DWORD PTR _n$[ebp]
  01380	69 c0 38 2b 00
	00		 imul	 eax, 11064		; 00002b38H
  01386	8b 4d f8	 mov	 ecx, DWORD PTR _n$[ebp]
  01389	69 c9 38 2b 00
	00		 imul	 ecx, 11064		; 00002b38H
  0138f	8b 15 00 00 00
	00		 mov	 edx, DWORD PTR ?gObj@@3PAUOBJECTSTRUCT@@A ; gObj
  01395	8b 35 00 00 00
	00		 mov	 esi, DWORD PTR ?gObj@@3PAUOBJECTSTRUCT@@A ; gObj
  0139b	8a 84 06 46 01
	00 00		 mov	 al, BYTE PTR [esi+eax+326]
  013a2	88 84 0a 77 01
	00 00		 mov	 BYTE PTR [edx+ecx+375], al

; 419  : 			gObj[n].m_State = 1;

  013a9	8b 45 f8	 mov	 eax, DWORD PTR _n$[ebp]
  013ac	69 c0 38 2b 00
	00		 imul	 eax, 11064		; 00002b38H
  013b2	8b 0d 00 00 00
	00		 mov	 ecx, DWORD PTR ?gObj@@3PAUOBJECTSTRUCT@@A ; gObj
  013b8	c7 84 01 20 02
	00 00 01 00 00
	00		 mov	 DWORD PTR [ecx+eax+544], 1

; 420  : 			gObj[n].PathCount = 0;

  013c3	8b 45 f8	 mov	 eax, DWORD PTR _n$[ebp]
  013c6	69 c0 38 2b 00
	00		 imul	 eax, 11064		; 00002b38H
  013cc	8b 0d 00 00 00
	00		 mov	 ecx, DWORD PTR ?gObj@@3PAUOBJECTSTRUCT@@A ; gObj
  013d2	c7 84 01 84 01
	00 00 00 00 00
	00		 mov	 DWORD PTR [ecx+eax+388], 0

; 421  : 
; 422  : 			LogAddTD("Make GoldLizarKing : %d, %d,%d", MapNumber, gObj[n].X, gObj[n].Y);

  013dd	8b 45 f8	 mov	 eax, DWORD PTR _n$[ebp]
  013e0	69 c0 38 2b 00
	00		 imul	 eax, 11064		; 00002b38H
  013e6	8b 0d 00 00 00
	00		 mov	 ecx, DWORD PTR ?gObj@@3PAUOBJECTSTRUCT@@A ; gObj
  013ec	0f bf 94 01 46
	01 00 00	 movsx	 edx, WORD PTR [ecx+eax+326]
  013f4	52		 push	 edx
  013f5	8b 45 f8	 mov	 eax, DWORD PTR _n$[ebp]
  013f8	69 c0 38 2b 00
	00		 imul	 eax, 11064		; 00002b38H
  013fe	8b 0d 00 00 00
	00		 mov	 ecx, DWORD PTR ?gObj@@3PAUOBJECTSTRUCT@@A ; gObj
  01404	0f bf 94 01 44
	01 00 00	 movsx	 edx, WORD PTR [ecx+eax+324]
  0140c	52		 push	 edx
  0140d	8b 45 f4	 mov	 eax, DWORD PTR _MapNumber$[ebp]
  01410	50		 push	 eax
  01411	68 00 00 00 00	 push	 OFFSET ??_C@_0BP@HMGNFLDB@Make?5GoldLizarKing?5?3?5?$CFd?0?5?$CFd?0?$CFd?$AA@
  01416	ff 15 00 00 00
	00		 call	 DWORD PTR ?LogAddTD@@3P6AXPADZZA ; LogAddTD
  0141c	83 c4 10	 add	 esp, 16			; 00000010H
  0141f	e9 16 02 00 00	 jmp	 $LN3@RegenDevil
$LN7@RegenDevil:

; 423  : 		}
; 424  : 		else if ( gObj[n].Class == 81 )

  01424	8b 45 f8	 mov	 eax, DWORD PTR _n$[ebp]
  01427	69 c0 38 2b 00
	00		 imul	 eax, 11064		; 00002b38H
  0142d	8b 0d 00 00 00
	00		 mov	 ecx, DWORD PTR ?gObj@@3PAUOBJECTSTRUCT@@A ; gObj
  01433	0f b7 94 01 b8
	00 00 00	 movzx	 edx, WORD PTR [ecx+eax+184]
  0143b	83 fa 51	 cmp	 edx, 81			; 00000051H
  0143e	0f 85 f6 01 00
	00		 jne	 $LN3@RegenDevil

; 425  : 		{
; 426  : 			gObj[n].Live = TRUE;

  01444	8b 45 f8	 mov	 eax, DWORD PTR _n$[ebp]
  01447	69 c0 38 2b 00
	00		 imul	 eax, 11064		; 00002b38H
  0144d	8b 0d 00 00 00
	00		 mov	 ecx, DWORD PTR ?gObj@@3PAUOBJECTSTRUCT@@A ; gObj
  01453	c6 44 01 6a 01	 mov	 BYTE PTR [ecx+eax+106], 1

; 427  : 			MapNumber = this->m_BossDevilLizardKingMapNumber;

  01458	8b 45 fc	 mov	 eax, DWORD PTR _this$[ebp]
  0145b	8b 48 50	 mov	 ecx, DWORD PTR [eax+80]
  0145e	89 4d f4	 mov	 DWORD PTR _MapNumber$[ebp], ecx

; 428  : 			gObj[n].MapNumber = MapNumber;

  01461	8b 45 f8	 mov	 eax, DWORD PTR _n$[ebp]
  01464	69 c0 38 2b 00
	00		 imul	 eax, 11064		; 00002b38H
  0146a	8b 0d 00 00 00
	00		 mov	 ecx, DWORD PTR ?gObj@@3PAUOBJECTSTRUCT@@A ; gObj
  01470	8a 55 f4	 mov	 dl, BYTE PTR _MapNumber$[ebp]
  01473	88 94 01 49 01
	00 00		 mov	 BYTE PTR [ecx+eax+329], dl
$LN2@RegenDevil:

; 429  : 
; 430  : 			while ( gMSetBase.GetBoxPosition(MapNumber, 15, 50, 250, 200, gObj[n].X, gObj[n].Y) == 0 )//NEW changed

  0147a	8b 45 f8	 mov	 eax, DWORD PTR _n$[ebp]
  0147d	69 c0 38 2b 00
	00		 imul	 eax, 11064		; 00002b38H
  01483	8b 0d 00 00 00
	00		 mov	 ecx, DWORD PTR ?gObj@@3PAUOBJECTSTRUCT@@A ; gObj
  01489	8d 94 01 46 01
	00 00		 lea	 edx, DWORD PTR [ecx+eax+326]
  01490	52		 push	 edx
  01491	8b 45 f8	 mov	 eax, DWORD PTR _n$[ebp]
  01494	69 c0 38 2b 00
	00		 imul	 eax, 11064		; 00002b38H
  0149a	8b 0d 00 00 00
	00		 mov	 ecx, DWORD PTR ?gObj@@3PAUOBJECTSTRUCT@@A ; gObj
  014a0	8d 94 01 44 01
	00 00		 lea	 edx, DWORD PTR [ecx+eax+324]
  014a7	52		 push	 edx
  014a8	68 c8 00 00 00	 push	 200			; 000000c8H
  014ad	68 fa 00 00 00	 push	 250			; 000000faH
  014b2	6a 32		 push	 50			; 00000032H
  014b4	6a 0f		 push	 15			; 0000000fH
  014b6	8b 45 f4	 mov	 eax, DWORD PTR _MapNumber$[ebp]
  014b9	50		 push	 eax
  014ba	b9 00 00 00 00	 mov	 ecx, OFFSET ?gMSetBase@@3VCMonsterSetBase@@A ; gMSetBase
  014bf	e8 00 00 00 00	 call	 ?GetBoxPosition@CMonsterSetBase@@QAEHHHHHHAAF0@Z ; CMonsterSetBase::GetBoxPosition
  014c4	85 c0		 test	 eax, eax
  014c6	75 02		 jne	 SHORT $LN1@RegenDevil

; 431  : 			{
; 432  : 
; 433  : 			}

  014c8	eb b0		 jmp	 SHORT $LN2@RegenDevil
$LN1@RegenDevil:

; 434  : 
; 435  : 			gObj[n].Life = gObj[n].MaxLife;

  014ca	8b 45 f8	 mov	 eax, DWORD PTR _n$[ebp]
  014cd	69 c0 38 2b 00
	00		 imul	 eax, 11064		; 00002b38H
  014d3	8b 4d f8	 mov	 ecx, DWORD PTR _n$[ebp]
  014d6	69 c9 38 2b 00
	00		 imul	 ecx, 11064		; 00002b38H
  014dc	8b 15 00 00 00
	00		 mov	 edx, DWORD PTR ?gObj@@3PAUOBJECTSTRUCT@@A ; gObj
  014e2	8b 35 00 00 00
	00		 mov	 esi, DWORD PTR ?gObj@@3PAUOBJECTSTRUCT@@A ; gObj
  014e8	d9 84 06 00 01
	00 00		 fld	 DWORD PTR [esi+eax+256]
  014ef	d9 9c 0a fc 00
	00 00		 fstp	 DWORD PTR [edx+ecx+252]

; 436  : 			gObj[n].TX = gObj[n].X;

  014f6	8b 45 f8	 mov	 eax, DWORD PTR _n$[ebp]
  014f9	69 c0 38 2b 00
	00		 imul	 eax, 11064		; 00002b38H
  014ff	8b 4d f8	 mov	 ecx, DWORD PTR _n$[ebp]
  01502	69 c9 38 2b 00
	00		 imul	 ecx, 11064		; 00002b38H
  01508	8b 15 00 00 00
	00		 mov	 edx, DWORD PTR ?gObj@@3PAUOBJECTSTRUCT@@A ; gObj
  0150e	8b 35 00 00 00
	00		 mov	 esi, DWORD PTR ?gObj@@3PAUOBJECTSTRUCT@@A ; gObj
  01514	66 8b 84 06 44
	01 00 00	 mov	 ax, WORD PTR [esi+eax+324]
  0151c	66 89 84 0a 7c
	01 00 00	 mov	 WORD PTR [edx+ecx+380], ax

; 437  : 			gObj[n].TY = gObj[n].Y;

  01524	8b 45 f8	 mov	 eax, DWORD PTR _n$[ebp]
  01527	69 c0 38 2b 00
	00		 imul	 eax, 11064		; 00002b38H
  0152d	8b 4d f8	 mov	 ecx, DWORD PTR _n$[ebp]
  01530	69 c9 38 2b 00
	00		 imul	 ecx, 11064		; 00002b38H
  01536	8b 15 00 00 00
	00		 mov	 edx, DWORD PTR ?gObj@@3PAUOBJECTSTRUCT@@A ; gObj
  0153c	8b 35 00 00 00
	00		 mov	 esi, DWORD PTR ?gObj@@3PAUOBJECTSTRUCT@@A ; gObj
  01542	66 8b 84 06 46
	01 00 00	 mov	 ax, WORD PTR [esi+eax+326]
  0154a	66 89 84 0a 7e
	01 00 00	 mov	 WORD PTR [edx+ecx+382], ax

; 438  : 			gObj[n].MTX = gObj[n].X;

  01552	8b 45 f8	 mov	 eax, DWORD PTR _n$[ebp]
  01555	69 c0 38 2b 00
	00		 imul	 eax, 11064		; 00002b38H
  0155b	8b 4d f8	 mov	 ecx, DWORD PTR _n$[ebp]
  0155e	69 c9 38 2b 00
	00		 imul	 ecx, 11064		; 00002b38H
  01564	8b 15 00 00 00
	00		 mov	 edx, DWORD PTR ?gObj@@3PAUOBJECTSTRUCT@@A ; gObj
  0156a	8b 35 00 00 00
	00		 mov	 esi, DWORD PTR ?gObj@@3PAUOBJECTSTRUCT@@A ; gObj
  01570	66 8b 84 06 44
	01 00 00	 mov	 ax, WORD PTR [esi+eax+324]
  01578	66 89 84 0a 80
	01 00 00	 mov	 WORD PTR [edx+ecx+384], ax

; 439  : 			gObj[n].MTY = gObj[n].Y;

  01580	8b 45 f8	 mov	 eax, DWORD PTR _n$[ebp]
  01583	69 c0 38 2b 00
	00		 imul	 eax, 11064		; 00002b38H
  01589	8b 4d f8	 mov	 ecx, DWORD PTR _n$[ebp]
  0158c	69 c9 38 2b 00
	00		 imul	 ecx, 11064		; 00002b38H
  01592	8b 15 00 00 00
	00		 mov	 edx, DWORD PTR ?gObj@@3PAUOBJECTSTRUCT@@A ; gObj
  01598	8b 35 00 00 00
	00		 mov	 esi, DWORD PTR ?gObj@@3PAUOBJECTSTRUCT@@A ; gObj
  0159e	66 8b 84 06 46
	01 00 00	 mov	 ax, WORD PTR [esi+eax+326]
  015a6	66 89 84 0a 82
	01 00 00	 mov	 WORD PTR [edx+ecx+386], ax

; 440  : 			gObj[n].StartX = gObj[n].X;

  015ae	8b 45 f8	 mov	 eax, DWORD PTR _n$[ebp]
  015b1	69 c0 38 2b 00
	00		 imul	 eax, 11064		; 00002b38H
  015b7	8b 4d f8	 mov	 ecx, DWORD PTR _n$[ebp]
  015ba	69 c9 38 2b 00
	00		 imul	 ecx, 11064		; 00002b38H
  015c0	8b 15 00 00 00
	00		 mov	 edx, DWORD PTR ?gObj@@3PAUOBJECTSTRUCT@@A ; gObj
  015c6	8b 35 00 00 00
	00		 mov	 esi, DWORD PTR ?gObj@@3PAUOBJECTSTRUCT@@A ; gObj
  015cc	8a 84 06 44 01
	00 00		 mov	 al, BYTE PTR [esi+eax+324]
  015d3	88 84 0a 76 01
	00 00		 mov	 BYTE PTR [edx+ecx+374], al

; 441  : 			gObj[n].StartY = gObj[n].Y;

  015da	8b 45 f8	 mov	 eax, DWORD PTR _n$[ebp]
  015dd	69 c0 38 2b 00
	00		 imul	 eax, 11064		; 00002b38H
  015e3	8b 4d f8	 mov	 ecx, DWORD PTR _n$[ebp]
  015e6	69 c9 38 2b 00
	00		 imul	 ecx, 11064		; 00002b38H
  015ec	8b 15 00 00 00
	00		 mov	 edx, DWORD PTR ?gObj@@3PAUOBJECTSTRUCT@@A ; gObj
  015f2	8b 35 00 00 00
	00		 mov	 esi, DWORD PTR ?gObj@@3PAUOBJECTSTRUCT@@A ; gObj
  015f8	8a 84 06 46 01
	00 00		 mov	 al, BYTE PTR [esi+eax+326]
  015ff	88 84 0a 77 01
	00 00		 mov	 BYTE PTR [edx+ecx+375], al

; 442  : 			gObj[n].m_State = 1;

  01606	8b 45 f8	 mov	 eax, DWORD PTR _n$[ebp]
  01609	69 c0 38 2b 00
	00		 imul	 eax, 11064		; 00002b38H
  0160f	8b 0d 00 00 00
	00		 mov	 ecx, DWORD PTR ?gObj@@3PAUOBJECTSTRUCT@@A ; gObj
  01615	c7 84 01 20 02
	00 00 01 00 00
	00		 mov	 DWORD PTR [ecx+eax+544], 1

; 443  : 			gObj[n].PathCount = 0;

  01620	8b 45 f8	 mov	 eax, DWORD PTR _n$[ebp]
  01623	69 c0 38 2b 00
	00		 imul	 eax, 11064		; 00002b38H
  01629	8b 0d 00 00 00
	00		 mov	 ecx, DWORD PTR ?gObj@@3PAUOBJECTSTRUCT@@A ; gObj
  0162f	c7 84 01 84 01
	00 00 00 00 00
	00		 mov	 DWORD PTR [ecx+eax+388], 0
$LN3@RegenDevil:

; 444  : 		}
; 445  : 	}

  0163a	e9 1d fb ff ff	 jmp	 $LN9@RegenDevil
$LN8@RegenDevil:

; 446  : }

  0163f	5f		 pop	 edi
  01640	5e		 pop	 esi
  01641	5b		 pop	 ebx
  01642	8b e5		 mov	 esp, ebp
  01644	5d		 pop	 ebp
  01645	c3		 ret	 0
?RegenDevilLizardKing@CEledoradoEvent@@QAEXXZ ENDP	; CEledoradoEvent::RegenDevilLizardKing
_TEXT	ENDS
PUBLIC	??_C@_0BO@HFHPKCLG@Make?5GoldTantarus?5?3?5?$CFd?0?5?$CFd?0?$CFd?$AA@ ; `string'
EXTRN	?gObjClearStandardBuffEffect@@YAEPAUOBJECTSTRUCT@@H@Z:PROC ; gObjClearStandardBuffEffect
;	COMDAT ??_C@_0BO@HFHPKCLG@Make?5GoldTantarus?5?3?5?$CFd?0?5?$CFd?0?$CFd?$AA@
CONST	SEGMENT
??_C@_0BO@HFHPKCLG@Make?5GoldTantarus?5?3?5?$CFd?0?5?$CFd?0?$CFd?$AA@ DB 'M'
	DB	'ake GoldTantarus : %d, %d,%d', 00H		; `string'
; Function compile flags: /Odtp /ZI
CONST	ENDS
_TEXT	SEGMENT
_MapNumber$ = -12					; size = 4
_n$ = -8						; size = 4
_this$ = -4						; size = 4
?RegenKantur@CEledoradoEvent@@QAEXXZ PROC		; CEledoradoEvent::RegenKantur
; _this$ = ecx

; 449  : {

  01650	55		 push	 ebp
  01651	8b ec		 mov	 ebp, esp
  01653	83 ec 4c	 sub	 esp, 76			; 0000004cH
  01656	53		 push	 ebx
  01657	56		 push	 esi
  01658	57		 push	 edi
  01659	89 4d fc	 mov	 DWORD PTR _this$[ebp], ecx

; 450  : 	int n=0;

  0165c	c7 45 f8 00 00
	00 00		 mov	 DWORD PTR _n$[ebp], 0

; 451  : 	int MapNumber;
; 452  : 
; 453  : 	for (n=0;n<OBJ_MAXMONSTER;n++)

  01663	c7 45 f8 00 00
	00 00		 mov	 DWORD PTR _n$[ebp], 0
  0166a	eb 09		 jmp	 SHORT $LN8@RegenKantu
$LN7@RegenKantu:
  0166c	8b 45 f8	 mov	 eax, DWORD PTR _n$[ebp]
  0166f	83 c0 01	 add	 eax, 1
  01672	89 45 f8	 mov	 DWORD PTR _n$[ebp], eax
$LN8@RegenKantu:
  01675	81 7d f8 c8 32
	00 00		 cmp	 DWORD PTR _n$[ebp], 13000 ; 000032c8H
  0167c	0f 8d 29 05 00
	00		 jge	 $LN6@RegenKantu

; 454  : 	{
; 455  : 		if ( gObj[n].Class == 82 )

  01682	8b 45 f8	 mov	 eax, DWORD PTR _n$[ebp]
  01685	69 c0 38 2b 00
	00		 imul	 eax, 11064		; 00002b38H
  0168b	8b 0d 00 00 00
	00		 mov	 ecx, DWORD PTR ?gObj@@3PAUOBJECTSTRUCT@@A ; gObj
  01691	0f b7 94 01 b8
	00 00 00	 movzx	 edx, WORD PTR [ecx+eax+184]
  01699	83 fa 52	 cmp	 edx, 82			; 00000052H
  0169c	0f 85 da 02 00
	00		 jne	 $LN5@RegenKantu

; 456  : 		{
; 457  : 			gObj[n].Live = TRUE;

  016a2	8b 45 f8	 mov	 eax, DWORD PTR _n$[ebp]
  016a5	69 c0 38 2b 00
	00		 imul	 eax, 11064		; 00002b38H
  016ab	8b 0d 00 00 00
	00		 mov	 ecx, DWORD PTR ?gObj@@3PAUOBJECTSTRUCT@@A ; gObj
  016b1	c6 44 01 6a 01	 mov	 BYTE PTR [ecx+eax+106], 1

; 458  : 			MapNumber = 8;

  016b6	c7 45 f4 08 00
	00 00		 mov	 DWORD PTR _MapNumber$[ebp], 8

; 459  : 			gObj[n].MapNumber = MapNumber;

  016bd	8b 45 f8	 mov	 eax, DWORD PTR _n$[ebp]
  016c0	69 c0 38 2b 00
	00		 imul	 eax, 11064		; 00002b38H
  016c6	8b 0d 00 00 00
	00		 mov	 ecx, DWORD PTR ?gObj@@3PAUOBJECTSTRUCT@@A ; gObj
  016cc	8a 55 f4	 mov	 dl, BYTE PTR _MapNumber$[ebp]
  016cf	88 94 01 49 01
	00 00		 mov	 BYTE PTR [ecx+eax+329], dl
$LN4@RegenKantu:

; 460  : 
; 461  : 			while ( gMSetBase.GetBoxPosition(MapNumber, 50, 50, 200, 200, gObj[n].X, gObj[n].Y) == 0 )

  016d6	8b 45 f8	 mov	 eax, DWORD PTR _n$[ebp]
  016d9	69 c0 38 2b 00
	00		 imul	 eax, 11064		; 00002b38H
  016df	8b 0d 00 00 00
	00		 mov	 ecx, DWORD PTR ?gObj@@3PAUOBJECTSTRUCT@@A ; gObj
  016e5	8d 94 01 46 01
	00 00		 lea	 edx, DWORD PTR [ecx+eax+326]
  016ec	52		 push	 edx
  016ed	8b 45 f8	 mov	 eax, DWORD PTR _n$[ebp]
  016f0	69 c0 38 2b 00
	00		 imul	 eax, 11064		; 00002b38H
  016f6	8b 0d 00 00 00
	00		 mov	 ecx, DWORD PTR ?gObj@@3PAUOBJECTSTRUCT@@A ; gObj
  016fc	8d 94 01 44 01
	00 00		 lea	 edx, DWORD PTR [ecx+eax+324]
  01703	52		 push	 edx
  01704	68 c8 00 00 00	 push	 200			; 000000c8H
  01709	68 c8 00 00 00	 push	 200			; 000000c8H
  0170e	6a 32		 push	 50			; 00000032H
  01710	6a 32		 push	 50			; 00000032H
  01712	8b 45 f4	 mov	 eax, DWORD PTR _MapNumber$[ebp]
  01715	50		 push	 eax
  01716	b9 00 00 00 00	 mov	 ecx, OFFSET ?gMSetBase@@3VCMonsterSetBase@@A ; gMSetBase
  0171b	e8 00 00 00 00	 call	 ?GetBoxPosition@CMonsterSetBase@@QAEHHHHHHAAF0@Z ; CMonsterSetBase::GetBoxPosition
  01720	85 c0		 test	 eax, eax
  01722	75 02		 jne	 SHORT $LN3@RegenKantu

; 462  : 			{
; 463  : 
; 464  : 			}

  01724	eb b0		 jmp	 SHORT $LN4@RegenKantu
$LN3@RegenKantu:

; 465  : 
; 466  : 			this->m_BossKanturMapNumber = gObj[n].MapNumber;

  01726	8b 45 f8	 mov	 eax, DWORD PTR _n$[ebp]
  01729	69 c0 38 2b 00
	00		 imul	 eax, 11064		; 00002b38H
  0172f	8b 0d 00 00 00
	00		 mov	 ecx, DWORD PTR ?gObj@@3PAUOBJECTSTRUCT@@A ; gObj
  01735	0f b6 94 01 49
	01 00 00	 movzx	 edx, BYTE PTR [ecx+eax+329]
  0173d	8b 45 fc	 mov	 eax, DWORD PTR _this$[ebp]
  01740	89 50 5c	 mov	 DWORD PTR [eax+92], edx

; 467  : 			this->m_BossKanturMapX = gObj[n].X;

  01743	8b 45 f8	 mov	 eax, DWORD PTR _n$[ebp]
  01746	69 c0 38 2b 00
	00		 imul	 eax, 11064		; 00002b38H
  0174c	8b 0d 00 00 00
	00		 mov	 ecx, DWORD PTR ?gObj@@3PAUOBJECTSTRUCT@@A ; gObj
  01752	0f bf 94 01 44
	01 00 00	 movsx	 edx, WORD PTR [ecx+eax+324]
  0175a	8b 45 fc	 mov	 eax, DWORD PTR _this$[ebp]
  0175d	89 50 60	 mov	 DWORD PTR [eax+96], edx

; 468  : 			this->m_BossKanturMapY = gObj[n].Y;

  01760	8b 45 f8	 mov	 eax, DWORD PTR _n$[ebp]
  01763	69 c0 38 2b 00
	00		 imul	 eax, 11064		; 00002b38H
  01769	8b 0d 00 00 00
	00		 mov	 ecx, DWORD PTR ?gObj@@3PAUOBJECTSTRUCT@@A ; gObj
  0176f	0f bf 94 01 46
	01 00 00	 movsx	 edx, WORD PTR [ecx+eax+326]
  01777	8b 45 fc	 mov	 eax, DWORD PTR _this$[ebp]
  0177a	89 50 64	 mov	 DWORD PTR [eax+100], edx

; 469  : 
; 470  : 			gObj[n].Life = gObj[n].MaxLife;

  0177d	8b 45 f8	 mov	 eax, DWORD PTR _n$[ebp]
  01780	69 c0 38 2b 00
	00		 imul	 eax, 11064		; 00002b38H
  01786	8b 4d f8	 mov	 ecx, DWORD PTR _n$[ebp]
  01789	69 c9 38 2b 00
	00		 imul	 ecx, 11064		; 00002b38H
  0178f	8b 15 00 00 00
	00		 mov	 edx, DWORD PTR ?gObj@@3PAUOBJECTSTRUCT@@A ; gObj
  01795	8b 35 00 00 00
	00		 mov	 esi, DWORD PTR ?gObj@@3PAUOBJECTSTRUCT@@A ; gObj
  0179b	d9 84 06 00 01
	00 00		 fld	 DWORD PTR [esi+eax+256]
  017a2	d9 9c 0a fc 00
	00 00		 fstp	 DWORD PTR [edx+ecx+252]

; 471  : 			gObj[n].TX = gObj[n].X;

  017a9	8b 45 f8	 mov	 eax, DWORD PTR _n$[ebp]
  017ac	69 c0 38 2b 00
	00		 imul	 eax, 11064		; 00002b38H
  017b2	8b 4d f8	 mov	 ecx, DWORD PTR _n$[ebp]
  017b5	69 c9 38 2b 00
	00		 imul	 ecx, 11064		; 00002b38H
  017bb	8b 15 00 00 00
	00		 mov	 edx, DWORD PTR ?gObj@@3PAUOBJECTSTRUCT@@A ; gObj
  017c1	8b 35 00 00 00
	00		 mov	 esi, DWORD PTR ?gObj@@3PAUOBJECTSTRUCT@@A ; gObj
  017c7	66 8b 84 06 44
	01 00 00	 mov	 ax, WORD PTR [esi+eax+324]
  017cf	66 89 84 0a 7c
	01 00 00	 mov	 WORD PTR [edx+ecx+380], ax

; 472  : 			gObj[n].TY = gObj[n].Y;

  017d7	8b 45 f8	 mov	 eax, DWORD PTR _n$[ebp]
  017da	69 c0 38 2b 00
	00		 imul	 eax, 11064		; 00002b38H
  017e0	8b 4d f8	 mov	 ecx, DWORD PTR _n$[ebp]
  017e3	69 c9 38 2b 00
	00		 imul	 ecx, 11064		; 00002b38H
  017e9	8b 15 00 00 00
	00		 mov	 edx, DWORD PTR ?gObj@@3PAUOBJECTSTRUCT@@A ; gObj
  017ef	8b 35 00 00 00
	00		 mov	 esi, DWORD PTR ?gObj@@3PAUOBJECTSTRUCT@@A ; gObj
  017f5	66 8b 84 06 46
	01 00 00	 mov	 ax, WORD PTR [esi+eax+326]
  017fd	66 89 84 0a 7e
	01 00 00	 mov	 WORD PTR [edx+ecx+382], ax

; 473  : 			gObj[n].MTX = gObj[n].X;

  01805	8b 45 f8	 mov	 eax, DWORD PTR _n$[ebp]
  01808	69 c0 38 2b 00
	00		 imul	 eax, 11064		; 00002b38H
  0180e	8b 4d f8	 mov	 ecx, DWORD PTR _n$[ebp]
  01811	69 c9 38 2b 00
	00		 imul	 ecx, 11064		; 00002b38H
  01817	8b 15 00 00 00
	00		 mov	 edx, DWORD PTR ?gObj@@3PAUOBJECTSTRUCT@@A ; gObj
  0181d	8b 35 00 00 00
	00		 mov	 esi, DWORD PTR ?gObj@@3PAUOBJECTSTRUCT@@A ; gObj
  01823	66 8b 84 06 44
	01 00 00	 mov	 ax, WORD PTR [esi+eax+324]
  0182b	66 89 84 0a 80
	01 00 00	 mov	 WORD PTR [edx+ecx+384], ax

; 474  : 			gObj[n].MTY = gObj[n].Y;

  01833	8b 45 f8	 mov	 eax, DWORD PTR _n$[ebp]
  01836	69 c0 38 2b 00
	00		 imul	 eax, 11064		; 00002b38H
  0183c	8b 4d f8	 mov	 ecx, DWORD PTR _n$[ebp]
  0183f	69 c9 38 2b 00
	00		 imul	 ecx, 11064		; 00002b38H
  01845	8b 15 00 00 00
	00		 mov	 edx, DWORD PTR ?gObj@@3PAUOBJECTSTRUCT@@A ; gObj
  0184b	8b 35 00 00 00
	00		 mov	 esi, DWORD PTR ?gObj@@3PAUOBJECTSTRUCT@@A ; gObj
  01851	66 8b 84 06 46
	01 00 00	 mov	 ax, WORD PTR [esi+eax+326]
  01859	66 89 84 0a 82
	01 00 00	 mov	 WORD PTR [edx+ecx+386], ax

; 475  : 			gObj[n].StartX = gObj[n].X;

  01861	8b 45 f8	 mov	 eax, DWORD PTR _n$[ebp]
  01864	69 c0 38 2b 00
	00		 imul	 eax, 11064		; 00002b38H
  0186a	8b 4d f8	 mov	 ecx, DWORD PTR _n$[ebp]
  0186d	69 c9 38 2b 00
	00		 imul	 ecx, 11064		; 00002b38H
  01873	8b 15 00 00 00
	00		 mov	 edx, DWORD PTR ?gObj@@3PAUOBJECTSTRUCT@@A ; gObj
  01879	8b 35 00 00 00
	00		 mov	 esi, DWORD PTR ?gObj@@3PAUOBJECTSTRUCT@@A ; gObj
  0187f	8a 84 06 44 01
	00 00		 mov	 al, BYTE PTR [esi+eax+324]
  01886	88 84 0a 76 01
	00 00		 mov	 BYTE PTR [edx+ecx+374], al

; 476  : 			gObj[n].StartY = gObj[n].Y;

  0188d	8b 45 f8	 mov	 eax, DWORD PTR _n$[ebp]
  01890	69 c0 38 2b 00
	00		 imul	 eax, 11064		; 00002b38H
  01896	8b 4d f8	 mov	 ecx, DWORD PTR _n$[ebp]
  01899	69 c9 38 2b 00
	00		 imul	 ecx, 11064		; 00002b38H
  0189f	8b 15 00 00 00
	00		 mov	 edx, DWORD PTR ?gObj@@3PAUOBJECTSTRUCT@@A ; gObj
  018a5	8b 35 00 00 00
	00		 mov	 esi, DWORD PTR ?gObj@@3PAUOBJECTSTRUCT@@A ; gObj
  018ab	8a 84 06 46 01
	00 00		 mov	 al, BYTE PTR [esi+eax+326]
  018b2	88 84 0a 77 01
	00 00		 mov	 BYTE PTR [edx+ecx+375], al

; 477  : 
; 478  : 			gObjClearStandardBuffEffect(&gObj[n], AT_MONSTER_GENERAL);

  018b9	6a 01		 push	 1
  018bb	8b 45 f8	 mov	 eax, DWORD PTR _n$[ebp]
  018be	69 c0 38 2b 00
	00		 imul	 eax, 11064		; 00002b38H
  018c4	03 05 00 00 00
	00		 add	 eax, DWORD PTR ?gObj@@3PAUOBJECTSTRUCT@@A ; gObj
  018ca	50		 push	 eax
  018cb	e8 00 00 00 00	 call	 ?gObjClearStandardBuffEffect@@YAEPAUOBJECTSTRUCT@@H@Z ; gObjClearStandardBuffEffect
  018d0	83 c4 08	 add	 esp, 8

; 479  : 
; 480  : 			gObj[n].m_ViewState = 0;

  018d3	8b 45 f8	 mov	 eax, DWORD PTR _n$[ebp]
  018d6	69 c0 38 2b 00
	00		 imul	 eax, 11064		; 00002b38H
  018dc	8b 0d 00 00 00
	00		 mov	 ecx, DWORD PTR ?gObj@@3PAUOBJECTSTRUCT@@A ; gObj
  018e2	c6 84 01 26 02
	00 00 00	 mov	 BYTE PTR [ecx+eax+550], 0

; 481  : 			gObj[n].Teleport = 0;

  018ea	8b 45 f8	 mov	 eax, DWORD PTR _n$[ebp]
  018ed	69 c0 38 2b 00
	00		 imul	 eax, 11064		; 00002b38H
  018f3	8b 0d 00 00 00
	00		 mov	 ecx, DWORD PTR ?gObj@@3PAUOBJECTSTRUCT@@A ; gObj
  018f9	c6 84 01 a0 03
	00 00 00	 mov	 BYTE PTR [ecx+eax+928], 0

; 482  : 			gObj[n].m_State = 1;

  01901	8b 45 f8	 mov	 eax, DWORD PTR _n$[ebp]
  01904	69 c0 38 2b 00
	00		 imul	 eax, 11064		; 00002b38H
  0190a	8b 0d 00 00 00
	00		 mov	 ecx, DWORD PTR ?gObj@@3PAUOBJECTSTRUCT@@A ; gObj
  01910	c7 84 01 20 02
	00 00 01 00 00
	00		 mov	 DWORD PTR [ecx+eax+544], 1

; 483  : 			gObj[n].PathCount = 0;

  0191b	8b 45 f8	 mov	 eax, DWORD PTR _n$[ebp]
  0191e	69 c0 38 2b 00
	00		 imul	 eax, 11064		; 00002b38H
  01924	8b 0d 00 00 00
	00		 mov	 ecx, DWORD PTR ?gObj@@3PAUOBJECTSTRUCT@@A ; gObj
  0192a	c7 84 01 84 01
	00 00 00 00 00
	00		 mov	 DWORD PTR [ecx+eax+388], 0

; 484  : 
; 485  : 			LogAddTD("Make GoldTantarus : %d, %d,%d", MapNumber, gObj[n].X, gObj[n].Y);

  01935	8b 45 f8	 mov	 eax, DWORD PTR _n$[ebp]
  01938	69 c0 38 2b 00
	00		 imul	 eax, 11064		; 00002b38H
  0193e	8b 0d 00 00 00
	00		 mov	 ecx, DWORD PTR ?gObj@@3PAUOBJECTSTRUCT@@A ; gObj
  01944	0f bf 94 01 46
	01 00 00	 movsx	 edx, WORD PTR [ecx+eax+326]
  0194c	52		 push	 edx
  0194d	8b 45 f8	 mov	 eax, DWORD PTR _n$[ebp]
  01950	69 c0 38 2b 00
	00		 imul	 eax, 11064		; 00002b38H
  01956	8b 0d 00 00 00
	00		 mov	 ecx, DWORD PTR ?gObj@@3PAUOBJECTSTRUCT@@A ; gObj
  0195c	0f bf 94 01 44
	01 00 00	 movsx	 edx, WORD PTR [ecx+eax+324]
  01964	52		 push	 edx
  01965	8b 45 f4	 mov	 eax, DWORD PTR _MapNumber$[ebp]
  01968	50		 push	 eax
  01969	68 00 00 00 00	 push	 OFFSET ??_C@_0BO@HFHPKCLG@Make?5GoldTantarus?5?3?5?$CFd?0?5?$CFd?0?$CFd?$AA@
  0196e	ff 15 00 00 00
	00		 call	 DWORD PTR ?LogAddTD@@3P6AXPADZZA ; LogAddTD
  01974	83 c4 10	 add	 esp, 16			; 00000010H
  01977	e9 2a 02 00 00	 jmp	 $LN1@RegenKantu
$LN5@RegenKantu:

; 486  : 		}
; 487  : 		else if ( gObj[n].Class == 83 )

  0197c	8b 45 f8	 mov	 eax, DWORD PTR _n$[ebp]
  0197f	69 c0 38 2b 00
	00		 imul	 eax, 11064		; 00002b38H
  01985	8b 0d 00 00 00
	00		 mov	 ecx, DWORD PTR ?gObj@@3PAUOBJECTSTRUCT@@A ; gObj
  0198b	0f b7 94 01 b8
	00 00 00	 movzx	 edx, WORD PTR [ecx+eax+184]
  01993	83 fa 53	 cmp	 edx, 83			; 00000053H
  01996	0f 85 0a 02 00
	00		 jne	 $LN1@RegenKantu

; 488  : 		{
; 489  : 			gObj[n].Live = TRUE;

  0199c	8b 45 f8	 mov	 eax, DWORD PTR _n$[ebp]
  0199f	69 c0 38 2b 00
	00		 imul	 eax, 11064		; 00002b38H
  019a5	8b 0d 00 00 00
	00		 mov	 ecx, DWORD PTR ?gObj@@3PAUOBJECTSTRUCT@@A ; gObj
  019ab	c6 44 01 6a 01	 mov	 BYTE PTR [ecx+eax+106], 1

; 490  : 			MapNumber = this->m_BossKanturMapNumber;

  019b0	8b 45 fc	 mov	 eax, DWORD PTR _this$[ebp]
  019b3	8b 48 5c	 mov	 ecx, DWORD PTR [eax+92]
  019b6	89 4d f4	 mov	 DWORD PTR _MapNumber$[ebp], ecx

; 491  : 			gObj[n].MapNumber = MapNumber;

  019b9	8b 45 f8	 mov	 eax, DWORD PTR _n$[ebp]
  019bc	69 c0 38 2b 00
	00		 imul	 eax, 11064		; 00002b38H
  019c2	8b 0d 00 00 00
	00		 mov	 ecx, DWORD PTR ?gObj@@3PAUOBJECTSTRUCT@@A ; gObj
  019c8	8a 55 f4	 mov	 dl, BYTE PTR _MapNumber$[ebp]
  019cb	88 94 01 49 01
	00 00		 mov	 BYTE PTR [ecx+eax+329], dl

; 492  : 
; 493  : 			gMSetBase.GetBoxPosition(MapNumber, this->m_BossKanturMapX-10, this->m_BossKanturMapY-10, this->m_BossKanturMapX+10, this->m_BossKanturMapY+10, gObj[n].X, gObj[n].Y);

  019d2	8b 45 f8	 mov	 eax, DWORD PTR _n$[ebp]
  019d5	69 c0 38 2b 00
	00		 imul	 eax, 11064		; 00002b38H
  019db	8b 0d 00 00 00
	00		 mov	 ecx, DWORD PTR ?gObj@@3PAUOBJECTSTRUCT@@A ; gObj
  019e1	8d 94 01 46 01
	00 00		 lea	 edx, DWORD PTR [ecx+eax+326]
  019e8	52		 push	 edx
  019e9	8b 45 f8	 mov	 eax, DWORD PTR _n$[ebp]
  019ec	69 c0 38 2b 00
	00		 imul	 eax, 11064		; 00002b38H
  019f2	8b 0d 00 00 00
	00		 mov	 ecx, DWORD PTR ?gObj@@3PAUOBJECTSTRUCT@@A ; gObj
  019f8	8d 94 01 44 01
	00 00		 lea	 edx, DWORD PTR [ecx+eax+324]
  019ff	52		 push	 edx
  01a00	8b 45 fc	 mov	 eax, DWORD PTR _this$[ebp]
  01a03	8b 48 64	 mov	 ecx, DWORD PTR [eax+100]
  01a06	83 c1 0a	 add	 ecx, 10			; 0000000aH
  01a09	51		 push	 ecx
  01a0a	8b 55 fc	 mov	 edx, DWORD PTR _this$[ebp]
  01a0d	8b 42 60	 mov	 eax, DWORD PTR [edx+96]
  01a10	83 c0 0a	 add	 eax, 10			; 0000000aH
  01a13	50		 push	 eax
  01a14	8b 4d fc	 mov	 ecx, DWORD PTR _this$[ebp]
  01a17	8b 51 64	 mov	 edx, DWORD PTR [ecx+100]
  01a1a	83 ea 0a	 sub	 edx, 10			; 0000000aH
  01a1d	52		 push	 edx
  01a1e	8b 45 fc	 mov	 eax, DWORD PTR _this$[ebp]
  01a21	8b 48 60	 mov	 ecx, DWORD PTR [eax+96]
  01a24	83 e9 0a	 sub	 ecx, 10			; 0000000aH
  01a27	51		 push	 ecx
  01a28	8b 55 f4	 mov	 edx, DWORD PTR _MapNumber$[ebp]
  01a2b	52		 push	 edx
  01a2c	b9 00 00 00 00	 mov	 ecx, OFFSET ?gMSetBase@@3VCMonsterSetBase@@A ; gMSetBase
  01a31	e8 00 00 00 00	 call	 ?GetBoxPosition@CMonsterSetBase@@QAEHHHHHHAAF0@Z ; CMonsterSetBase::GetBoxPosition

; 494  : 
; 495  : 			gObj[n].Life = gObj[n].MaxLife;

  01a36	8b 45 f8	 mov	 eax, DWORD PTR _n$[ebp]
  01a39	69 c0 38 2b 00
	00		 imul	 eax, 11064		; 00002b38H
  01a3f	8b 4d f8	 mov	 ecx, DWORD PTR _n$[ebp]
  01a42	69 c9 38 2b 00
	00		 imul	 ecx, 11064		; 00002b38H
  01a48	8b 15 00 00 00
	00		 mov	 edx, DWORD PTR ?gObj@@3PAUOBJECTSTRUCT@@A ; gObj
  01a4e	8b 35 00 00 00
	00		 mov	 esi, DWORD PTR ?gObj@@3PAUOBJECTSTRUCT@@A ; gObj
  01a54	d9 84 06 00 01
	00 00		 fld	 DWORD PTR [esi+eax+256]
  01a5b	d9 9c 0a fc 00
	00 00		 fstp	 DWORD PTR [edx+ecx+252]

; 496  : 			gObj[n].TX = gObj[n].X;

  01a62	8b 45 f8	 mov	 eax, DWORD PTR _n$[ebp]
  01a65	69 c0 38 2b 00
	00		 imul	 eax, 11064		; 00002b38H
  01a6b	8b 4d f8	 mov	 ecx, DWORD PTR _n$[ebp]
  01a6e	69 c9 38 2b 00
	00		 imul	 ecx, 11064		; 00002b38H
  01a74	8b 15 00 00 00
	00		 mov	 edx, DWORD PTR ?gObj@@3PAUOBJECTSTRUCT@@A ; gObj
  01a7a	8b 35 00 00 00
	00		 mov	 esi, DWORD PTR ?gObj@@3PAUOBJECTSTRUCT@@A ; gObj
  01a80	66 8b 84 06 44
	01 00 00	 mov	 ax, WORD PTR [esi+eax+324]
  01a88	66 89 84 0a 7c
	01 00 00	 mov	 WORD PTR [edx+ecx+380], ax

; 497  : 			gObj[n].TY = gObj[n].Y;

  01a90	8b 45 f8	 mov	 eax, DWORD PTR _n$[ebp]
  01a93	69 c0 38 2b 00
	00		 imul	 eax, 11064		; 00002b38H
  01a99	8b 4d f8	 mov	 ecx, DWORD PTR _n$[ebp]
  01a9c	69 c9 38 2b 00
	00		 imul	 ecx, 11064		; 00002b38H
  01aa2	8b 15 00 00 00
	00		 mov	 edx, DWORD PTR ?gObj@@3PAUOBJECTSTRUCT@@A ; gObj
  01aa8	8b 35 00 00 00
	00		 mov	 esi, DWORD PTR ?gObj@@3PAUOBJECTSTRUCT@@A ; gObj
  01aae	66 8b 84 06 46
	01 00 00	 mov	 ax, WORD PTR [esi+eax+326]
  01ab6	66 89 84 0a 7e
	01 00 00	 mov	 WORD PTR [edx+ecx+382], ax

; 498  : 			gObj[n].MTX = gObj[n].X;

  01abe	8b 45 f8	 mov	 eax, DWORD PTR _n$[ebp]
  01ac1	69 c0 38 2b 00
	00		 imul	 eax, 11064		; 00002b38H
  01ac7	8b 4d f8	 mov	 ecx, DWORD PTR _n$[ebp]
  01aca	69 c9 38 2b 00
	00		 imul	 ecx, 11064		; 00002b38H
  01ad0	8b 15 00 00 00
	00		 mov	 edx, DWORD PTR ?gObj@@3PAUOBJECTSTRUCT@@A ; gObj
  01ad6	8b 35 00 00 00
	00		 mov	 esi, DWORD PTR ?gObj@@3PAUOBJECTSTRUCT@@A ; gObj
  01adc	66 8b 84 06 44
	01 00 00	 mov	 ax, WORD PTR [esi+eax+324]
  01ae4	66 89 84 0a 80
	01 00 00	 mov	 WORD PTR [edx+ecx+384], ax

; 499  : 			gObj[n].MTY = gObj[n].Y;

  01aec	8b 45 f8	 mov	 eax, DWORD PTR _n$[ebp]
  01aef	69 c0 38 2b 00
	00		 imul	 eax, 11064		; 00002b38H
  01af5	8b 4d f8	 mov	 ecx, DWORD PTR _n$[ebp]
  01af8	69 c9 38 2b 00
	00		 imul	 ecx, 11064		; 00002b38H
  01afe	8b 15 00 00 00
	00		 mov	 edx, DWORD PTR ?gObj@@3PAUOBJECTSTRUCT@@A ; gObj
  01b04	8b 35 00 00 00
	00		 mov	 esi, DWORD PTR ?gObj@@3PAUOBJECTSTRUCT@@A ; gObj
  01b0a	66 8b 84 06 46
	01 00 00	 mov	 ax, WORD PTR [esi+eax+326]
  01b12	66 89 84 0a 82
	01 00 00	 mov	 WORD PTR [edx+ecx+386], ax

; 500  : 			gObj[n].StartX = gObj[n].X;

  01b1a	8b 45 f8	 mov	 eax, DWORD PTR _n$[ebp]
  01b1d	69 c0 38 2b 00
	00		 imul	 eax, 11064		; 00002b38H
  01b23	8b 4d f8	 mov	 ecx, DWORD PTR _n$[ebp]
  01b26	69 c9 38 2b 00
	00		 imul	 ecx, 11064		; 00002b38H
  01b2c	8b 15 00 00 00
	00		 mov	 edx, DWORD PTR ?gObj@@3PAUOBJECTSTRUCT@@A ; gObj
  01b32	8b 35 00 00 00
	00		 mov	 esi, DWORD PTR ?gObj@@3PAUOBJECTSTRUCT@@A ; gObj
  01b38	8a 84 06 44 01
	00 00		 mov	 al, BYTE PTR [esi+eax+324]
  01b3f	88 84 0a 76 01
	00 00		 mov	 BYTE PTR [edx+ecx+374], al

; 501  : 			gObj[n].StartY = gObj[n].Y;

  01b46	8b 45 f8	 mov	 eax, DWORD PTR _n$[ebp]
  01b49	69 c0 38 2b 00
	00		 imul	 eax, 11064		; 00002b38H
  01b4f	8b 4d f8	 mov	 ecx, DWORD PTR _n$[ebp]
  01b52	69 c9 38 2b 00
	00		 imul	 ecx, 11064		; 00002b38H
  01b58	8b 15 00 00 00
	00		 mov	 edx, DWORD PTR ?gObj@@3PAUOBJECTSTRUCT@@A ; gObj
  01b5e	8b 35 00 00 00
	00		 mov	 esi, DWORD PTR ?gObj@@3PAUOBJECTSTRUCT@@A ; gObj
  01b64	8a 84 06 46 01
	00 00		 mov	 al, BYTE PTR [esi+eax+326]
  01b6b	88 84 0a 77 01
	00 00		 mov	 BYTE PTR [edx+ecx+375], al

; 502  : 			gObj[n].m_State = 1;

  01b72	8b 45 f8	 mov	 eax, DWORD PTR _n$[ebp]
  01b75	69 c0 38 2b 00
	00		 imul	 eax, 11064		; 00002b38H
  01b7b	8b 0d 00 00 00
	00		 mov	 ecx, DWORD PTR ?gObj@@3PAUOBJECTSTRUCT@@A ; gObj
  01b81	c7 84 01 20 02
	00 00 01 00 00
	00		 mov	 DWORD PTR [ecx+eax+544], 1

; 503  : 			gObj[n].PathCount = 0;

  01b8c	8b 45 f8	 mov	 eax, DWORD PTR _n$[ebp]
  01b8f	69 c0 38 2b 00
	00		 imul	 eax, 11064		; 00002b38H
  01b95	8b 0d 00 00 00
	00		 mov	 ecx, DWORD PTR ?gObj@@3PAUOBJECTSTRUCT@@A ; gObj
  01b9b	c7 84 01 84 01
	00 00 00 00 00
	00		 mov	 DWORD PTR [ecx+eax+388], 0
$LN1@RegenKantu:

; 504  : 		}
; 505  : 	}

  01ba6	e9 c1 fa ff ff	 jmp	 $LN7@RegenKantu
$LN6@RegenKantu:

; 506  : }

  01bab	5f		 pop	 edi
  01bac	5e		 pop	 esi
  01bad	5b		 pop	 ebx
  01bae	8b e5		 mov	 esp, ebp
  01bb0	5d		 pop	 ebp
  01bb1	c3		 ret	 0
?RegenKantur@CEledoradoEvent@@QAEXXZ ENDP		; CEledoradoEvent::RegenKantur
_TEXT	ENDS
EXTRN	?GCMapEventStateSend@@YAXHEE@Z:PROC		; GCMapEventStateSend
; Function compile flags: /Odtp /ZI
_TEXT	SEGMENT
_i$227744 = -16						; size = 4
_EventClearMapNumber$ = -12				; size = 4
_EventOn$ = -8						; size = 4
_this$ = -4						; size = 4
_MapNumber$ = 8						; size = 4
?CheckGoldDercon@CEledoradoEvent@@QAEXH@Z PROC		; CEledoradoEvent::CheckGoldDercon
; _this$ = ecx

; 509  : {

  01bc0	55		 push	 ebp
  01bc1	8b ec		 mov	 ebp, esp
  01bc3	83 ec 50	 sub	 esp, 80			; 00000050H
  01bc6	53		 push	 ebx
  01bc7	56		 push	 esi
  01bc8	57		 push	 edi
  01bc9	89 4d fc	 mov	 DWORD PTR _this$[ebp], ecx

; 510  : 	if ( this->EventState == 0 )

  01bcc	8b 45 fc	 mov	 eax, DWORD PTR _this$[ebp]
  01bcf	83 78 04 00	 cmp	 DWORD PTR [eax+4], 0
  01bd3	75 05		 jne	 SHORT $LN10@CheckGoldD

; 511  : 		return;

  01bd5	e9 98 00 00 00	 jmp	 $LN11@CheckGoldD
$LN10@CheckGoldD:

; 512  : 
; 513  : 	BOOL EventOn = FALSE;

  01bda	c7 45 f8 00 00
	00 00		 mov	 DWORD PTR _EventOn$[ebp], 0

; 514  : 	int EventClearMapNumber = -1;

  01be1	c7 45 f4 ff ff
	ff ff		 mov	 DWORD PTR _EventClearMapNumber$[ebp], -1

; 515  : 
; 516  : 	for ( int i=0;i<3;i++)

  01be8	c7 45 f0 00 00
	00 00		 mov	 DWORD PTR _i$227744[ebp], 0
  01bef	eb 09		 jmp	 SHORT $LN9@CheckGoldD
$LN8@CheckGoldD:
  01bf1	8b 45 f0	 mov	 eax, DWORD PTR _i$227744[ebp]
  01bf4	83 c0 01	 add	 eax, 1
  01bf7	89 45 f0	 mov	 DWORD PTR _i$227744[ebp], eax
$LN9@CheckGoldD:
  01bfa	83 7d f0 03	 cmp	 DWORD PTR _i$227744[ebp], 3
  01bfe	7d 34		 jge	 SHORT $LN7@CheckGoldD

; 517  : 	{
; 518  : 		if ( this->m_BossGoldDerconMapNumber[i] != -1 )

  01c00	8b 45 f0	 mov	 eax, DWORD PTR _i$227744[ebp]
  01c03	8b 4d fc	 mov	 ecx, DWORD PTR _this$[ebp]
  01c06	83 7c 81 6c ff	 cmp	 DWORD PTR [ecx+eax*4+108], -1
  01c0b	74 25		 je	 SHORT $LN6@CheckGoldD

; 519  : 		{
; 520  : 			if ( this->m_BossGoldDerconMapNumber[i] == MapNumber )

  01c0d	8b 45 f0	 mov	 eax, DWORD PTR _i$227744[ebp]
  01c10	8b 4d fc	 mov	 ecx, DWORD PTR _this$[ebp]
  01c13	8b 54 81 6c	 mov	 edx, DWORD PTR [ecx+eax*4+108]
  01c17	3b 55 08	 cmp	 edx, DWORD PTR _MapNumber$[ebp]
  01c1a	75 09		 jne	 SHORT $LN5@CheckGoldD

; 521  : 			{
; 522  : 				EventOn = TRUE;

  01c1c	c7 45 f8 01 00
	00 00		 mov	 DWORD PTR _EventOn$[ebp], 1

; 523  : 			}
; 524  : 			else

  01c23	eb 0d		 jmp	 SHORT $LN6@CheckGoldD
$LN5@CheckGoldD:

; 525  : 			{
; 526  : 				EventClearMapNumber = this->m_BossGoldDerconMapNumber[i];

  01c25	8b 45 f0	 mov	 eax, DWORD PTR _i$227744[ebp]
  01c28	8b 4d fc	 mov	 ecx, DWORD PTR _this$[ebp]
  01c2b	8b 54 81 6c	 mov	 edx, DWORD PTR [ecx+eax*4+108]
  01c2f	89 55 f4	 mov	 DWORD PTR _EventClearMapNumber$[ebp], edx
$LN6@CheckGoldD:

; 527  : 			}
; 528  : 		}
; 529  : 	}

  01c32	eb bd		 jmp	 SHORT $LN8@CheckGoldD
$LN7@CheckGoldD:

; 530  : 
; 531  : 	if ( EventClearMapNumber != -1 )

  01c34	83 7d f4 ff	 cmp	 DWORD PTR _EventClearMapNumber$[ebp], -1
  01c38	74 10		 je	 SHORT $LN3@CheckGoldD

; 532  : 	{
; 533  : 		GCMapEventStateSend(EventClearMapNumber, 0, 3);

  01c3a	6a 03		 push	 3
  01c3c	6a 00		 push	 0
  01c3e	8b 45 f4	 mov	 eax, DWORD PTR _EventClearMapNumber$[ebp]
  01c41	50		 push	 eax
  01c42	e8 00 00 00 00	 call	 ?GCMapEventStateSend@@YAXHEE@Z ; GCMapEventStateSend
  01c47	83 c4 0c	 add	 esp, 12			; 0000000cH
$LN3@CheckGoldD:

; 534  : 	}
; 535  : 
; 536  : 	if ( EventOn != FALSE )

  01c4a	83 7d f8 00	 cmp	 DWORD PTR _EventOn$[ebp], 0
  01c4e	74 12		 je	 SHORT $LN2@CheckGoldD

; 537  : 	{
; 538  : 		GCMapEventStateSend(MapNumber, 1, 3);

  01c50	6a 03		 push	 3
  01c52	6a 01		 push	 1
  01c54	8b 45 08	 mov	 eax, DWORD PTR _MapNumber$[ebp]
  01c57	50		 push	 eax
  01c58	e8 00 00 00 00	 call	 ?GCMapEventStateSend@@YAXHEE@Z ; GCMapEventStateSend
  01c5d	83 c4 0c	 add	 esp, 12			; 0000000cH

; 539  : 	}
; 540  : 	else

  01c60	eb 10		 jmp	 SHORT $LN11@CheckGoldD
$LN2@CheckGoldD:

; 541  : 	{
; 542  : 		GCMapEventStateSend(MapNumber, 0, 3);

  01c62	6a 03		 push	 3
  01c64	6a 00		 push	 0
  01c66	8b 45 08	 mov	 eax, DWORD PTR _MapNumber$[ebp]
  01c69	50		 push	 eax
  01c6a	e8 00 00 00 00	 call	 ?GCMapEventStateSend@@YAXHEE@Z ; GCMapEventStateSend
  01c6f	83 c4 0c	 add	 esp, 12			; 0000000cH
$LN11@CheckGoldD:

; 543  : 	}
; 544  : }

  01c72	5f		 pop	 edi
  01c73	5e		 pop	 esi
  01c74	5b		 pop	 ebx
  01c75	8b e5		 mov	 esp, ebp
  01c77	5d		 pop	 ebp
  01c78	c2 04 00	 ret	 4
?CheckGoldDercon@CEledoradoEvent@@QAEXH@Z ENDP		; CEledoradoEvent::CheckGoldDercon
_TEXT	ENDS
PUBLIC	??_C@_0DF@GIAPPI@?$KB?$NL?$KB?$NM?$FLEvent?5Management?$FN?5?$FLStart?$FN?5E@ ; `string'
PUBLIC	??_C@_0BH@EKPIIKHD@Golden?5Dragon?5Invasion?$AA@ ; `string'
PUBLIC	?SetMenualStart@CEledoradoEvent@@QAEXH@Z	; CEledoradoEvent::SetMenualStart
PUBLIC	?Start_Menual@CEledoradoEvent@@QAEXXZ		; CEledoradoEvent::Start_Menual
EXTRN	?MessaageAllGlobal@@YAXPADZZ:PROC		; MessaageAllGlobal
;	COMDAT ??_C@_0DF@GIAPPI@?$KB?$NL?$KB?$NM?$FLEvent?5Management?$FN?5?$FLStart?$FN?5E@
CONST	SEGMENT
??_C@_0DF@GIAPPI@?$KB?$NL?$KB?$NM?$FLEvent?5Management?$FN?5?$FLStart?$FN?5E@ DB 0a1H
	DB	0dbH, 0a1H, 0dcH, '[Event Management] [Start] EledoradoEvent E'
	DB	'vent!', 00H					; `string'
CONST	ENDS
;	COMDAT ??_C@_0BH@EKPIIKHD@Golden?5Dragon?5Invasion?$AA@
CONST	SEGMENT
??_C@_0BH@EKPIIKHD@Golden?5Dragon?5Invasion?$AA@ DB 'Golden Dragon Invasi'
	DB	'on', 00H					; `string'
; Function compile flags: /Odtp /ZI
CONST	ENDS
_TEXT	SEGMENT
_TickCount$ = -8					; size = 4
_this$ = -4						; size = 4
?Start_Menual@CEledoradoEvent@@QAEXXZ PROC		; CEledoradoEvent::Start_Menual
; _this$ = ecx

; 547  : {

  01c80	55		 push	 ebp
  01c81	8b ec		 mov	 ebp, esp
  01c83	83 ec 48	 sub	 esp, 72			; 00000048H
  01c86	53		 push	 ebx
  01c87	56		 push	 esi
  01c88	57		 push	 edi
  01c89	89 4d fc	 mov	 DWORD PTR _this$[ebp], ecx

; 548  : 	this->SetMenualStart(TRUE);

  01c8c	6a 01		 push	 1
  01c8e	8b 4d fc	 mov	 ecx, DWORD PTR _this$[ebp]
  01c91	e8 00 00 00 00	 call	 ?SetMenualStart@CEledoradoEvent@@QAEXH@Z ; CEledoradoEvent::SetMenualStart

; 549  : 	MessaageAllGlobal("Golden Dragon Invasion");

  01c96	68 00 00 00 00	 push	 OFFSET ??_C@_0BH@EKPIIKHD@Golden?5Dragon?5Invasion?$AA@
  01c9b	e8 00 00 00 00	 call	 ?MessaageAllGlobal@@YAXPADZZ ; MessaageAllGlobal
  01ca0	83 c4 04	 add	 esp, 4

; 550  : 	LogAddTD("[Event Management] [Start] EledoradoEvent Event!");

  01ca3	68 00 00 00 00	 push	 OFFSET ??_C@_0DF@GIAPPI@?$KB?$NL?$KB?$NM?$FLEvent?5Management?$FN?5?$FLStart?$FN?5E@
  01ca8	ff 15 00 00 00
	00		 call	 DWORD PTR ?LogAddTD@@3P6AXPADZZA ; LogAddTD
  01cae	83 c4 04	 add	 esp, 4

; 551  : 
; 552  : 	DWORD TickCount = GetTickCount();

  01cb1	ff 15 00 00 00
	00		 call	 DWORD PTR __imp__GetTickCount@0
  01cb7	89 45 f8	 mov	 DWORD PTR _TickCount$[ebp], eax

; 553  : 
; 554  : 	this->GoldGoblenEventStartTime = TickCount;

  01cba	8b 45 fc	 mov	 eax, DWORD PTR _this$[ebp]
  01cbd	8b 4d f8	 mov	 ecx, DWORD PTR _TickCount$[ebp]
  01cc0	89 48 08	 mov	 DWORD PTR [eax+8], ecx

; 555  : 	this->RegenGoldGoblen();

  01cc3	8b 4d fc	 mov	 ecx, DWORD PTR _this$[ebp]
  01cc6	e8 00 00 00 00	 call	 ?RegenGoldGoblen@CEledoradoEvent@@QAEXXZ ; CEledoradoEvent::RegenGoldGoblen

; 556  : 
; 557  : 	this->TitanEventStartTime = TickCount;

  01ccb	8b 45 fc	 mov	 eax, DWORD PTR _this$[ebp]
  01cce	8b 4d f8	 mov	 ecx, DWORD PTR _TickCount$[ebp]
  01cd1	89 48 0c	 mov	 DWORD PTR [eax+12], ecx

; 558  : 	this->RegenTitan();

  01cd4	8b 4d fc	 mov	 ecx, DWORD PTR _this$[ebp]
  01cd7	e8 00 00 00 00	 call	 ?RegenTitan@CEledoradoEvent@@QAEXXZ ; CEledoradoEvent::RegenTitan

; 559  : 
; 560  : 	this->GoldDerconEventStartTime = TickCount;

  01cdc	8b 45 fc	 mov	 eax, DWORD PTR _this$[ebp]
  01cdf	8b 4d f8	 mov	 ecx, DWORD PTR _TickCount$[ebp]
  01ce2	89 48 10	 mov	 DWORD PTR [eax+16], ecx

; 561  : 	this->RegenGoldDercon();

  01ce5	8b 4d fc	 mov	 ecx, DWORD PTR _this$[ebp]
  01ce8	e8 00 00 00 00	 call	 ?RegenGoldDercon@CEledoradoEvent@@QAEXXZ ; CEledoradoEvent::RegenGoldDercon

; 562  : 
; 563  : 	this->DevilLizardKingEventStartTime = TickCount;

  01ced	8b 45 fc	 mov	 eax, DWORD PTR _this$[ebp]
  01cf0	8b 4d f8	 mov	 ecx, DWORD PTR _TickCount$[ebp]
  01cf3	89 48 14	 mov	 DWORD PTR [eax+20], ecx

; 564  : 	this->RegenDevilLizardKing();

  01cf6	8b 4d fc	 mov	 ecx, DWORD PTR _this$[ebp]
  01cf9	e8 00 00 00 00	 call	 ?RegenDevilLizardKing@CEledoradoEvent@@QAEXXZ ; CEledoradoEvent::RegenDevilLizardKing

; 565  : 
; 566  : 	this->KanturEventStartTime = TickCount;

  01cfe	8b 45 fc	 mov	 eax, DWORD PTR _this$[ebp]
  01d01	8b 4d f8	 mov	 ecx, DWORD PTR _TickCount$[ebp]
  01d04	89 48 18	 mov	 DWORD PTR [eax+24], ecx

; 567  : 	this->RegenKantur();

  01d07	8b 4d fc	 mov	 ecx, DWORD PTR _this$[ebp]
  01d0a	e8 00 00 00 00	 call	 ?RegenKantur@CEledoradoEvent@@QAEXXZ ; CEledoradoEvent::RegenKantur

; 568  : 
; 569  : 	//Season 4.5 addon start
; 570  : 	this->GoldenRabbitRegenTime = TickCount;

  01d0f	8b 45 fc	 mov	 eax, DWORD PTR _this$[ebp]
  01d12	8b 4d f8	 mov	 ecx, DWORD PTR _TickCount$[ebp]
  01d15	89 48 1c	 mov	 DWORD PTR [eax+28], ecx

; 571  : 	this->RegenGoldenRabbit();

  01d18	8b 4d fc	 mov	 ecx, DWORD PTR _this$[ebp]
  01d1b	e8 00 00 00 00	 call	 ?RegenGoldenRabbit@CEledoradoEvent@@QAEXXZ ; CEledoradoEvent::RegenGoldenRabbit

; 572  : 
; 573  : 	this->GoldenDarkKnightRegenTime = TickCount;

  01d20	8b 45 fc	 mov	 eax, DWORD PTR _this$[ebp]
  01d23	8b 4d f8	 mov	 ecx, DWORD PTR _TickCount$[ebp]
  01d26	89 48 20	 mov	 DWORD PTR [eax+32], ecx

; 574  : 	this->RegenGoldenDarkKnight();

  01d29	8b 4d fc	 mov	 ecx, DWORD PTR _this$[ebp]
  01d2c	e8 00 00 00 00	 call	 ?RegenGoldenDarkKnight@CEledoradoEvent@@QAEXXZ ; CEledoradoEvent::RegenGoldenDarkKnight

; 575  : 
; 576  : 	this->GoldenDevilRegenTime = TickCount;

  01d31	8b 45 fc	 mov	 eax, DWORD PTR _this$[ebp]
  01d34	8b 4d f8	 mov	 ecx, DWORD PTR _TickCount$[ebp]
  01d37	89 48 24	 mov	 DWORD PTR [eax+36], ecx

; 577  : 	this->RegenGoldenDevil();

  01d3a	8b 4d fc	 mov	 ecx, DWORD PTR _this$[ebp]
  01d3d	e8 00 00 00 00	 call	 ?RegenGoldenDevil@CEledoradoEvent@@QAEXXZ ; CEledoradoEvent::RegenGoldenDevil

; 578  : 
; 579  : 	this->GoldenMonsterRegenTime = TickCount;

  01d42	8b 45 fc	 mov	 eax, DWORD PTR _this$[ebp]
  01d45	8b 4d f8	 mov	 ecx, DWORD PTR _TickCount$[ebp]
  01d48	89 48 28	 mov	 DWORD PTR [eax+40], ecx

; 580  : 	this->RegenGoldenMonster();

  01d4b	8b 4d fc	 mov	 ecx, DWORD PTR _this$[ebp]
  01d4e	e8 00 00 00 00	 call	 ?RegenGoldenMonster@CEledoradoEvent@@QAEXXZ ; CEledoradoEvent::RegenGoldenMonster

; 581  : 
; 582  : 	this->GoldenCrustRegenTime = TickCount;

  01d53	8b 45 fc	 mov	 eax, DWORD PTR _this$[ebp]
  01d56	8b 4d f8	 mov	 ecx, DWORD PTR _TickCount$[ebp]
  01d59	89 48 2c	 mov	 DWORD PTR [eax+44], ecx

; 583  : 	this->RegenGoldenCrust();

  01d5c	8b 4d fc	 mov	 ecx, DWORD PTR _this$[ebp]
  01d5f	e8 00 00 00 00	 call	 ?RegenGoldenCrust@CEledoradoEvent@@QAEXXZ ; CEledoradoEvent::RegenGoldenCrust

; 584  : 
; 585  : 	this->GoldenSatirosRegenTime = TickCount;

  01d64	8b 45 fc	 mov	 eax, DWORD PTR _this$[ebp]
  01d67	8b 4d f8	 mov	 ecx, DWORD PTR _TickCount$[ebp]
  01d6a	89 48 30	 mov	 DWORD PTR [eax+48], ecx

; 586  : 	this->RegenGoldenSatiros();

  01d6d	8b 4d fc	 mov	 ecx, DWORD PTR _this$[ebp]
  01d70	e8 00 00 00 00	 call	 ?RegenGoldenSatiros@CEledoradoEvent@@QAEXXZ ; CEledoradoEvent::RegenGoldenSatiros

; 587  : 
; 588  : 	this->GoldenTwintailRegenTime = TickCount;

  01d75	8b 45 fc	 mov	 eax, DWORD PTR _this$[ebp]
  01d78	8b 4d f8	 mov	 ecx, DWORD PTR _TickCount$[ebp]
  01d7b	89 48 34	 mov	 DWORD PTR [eax+52], ecx

; 589  : 	this->RegenGoldenTwintail();

  01d7e	8b 4d fc	 mov	 ecx, DWORD PTR _this$[ebp]
  01d81	e8 00 00 00 00	 call	 ?RegenGoldenTwintail@CEledoradoEvent@@QAEXXZ ; CEledoradoEvent::RegenGoldenTwintail

; 590  : 
; 591  : 	this->GoldenIronKnightRegenTime = TickCount;

  01d86	8b 45 fc	 mov	 eax, DWORD PTR _this$[ebp]
  01d89	8b 4d f8	 mov	 ecx, DWORD PTR _TickCount$[ebp]
  01d8c	89 48 38	 mov	 DWORD PTR [eax+56], ecx

; 592  : 	this->RegenGoldenIronKnight();

  01d8f	8b 4d fc	 mov	 ecx, DWORD PTR _this$[ebp]
  01d92	e8 00 00 00 00	 call	 ?RegenGoldenIronKnight@CEledoradoEvent@@QAEXXZ ; CEledoradoEvent::RegenGoldenIronKnight

; 593  : 
; 594  : 	this->GoldenNeipinRegenTime = TickCount;

  01d97	8b 45 fc	 mov	 eax, DWORD PTR _this$[ebp]
  01d9a	8b 4d f8	 mov	 ecx, DWORD PTR _TickCount$[ebp]
  01d9d	89 48 3c	 mov	 DWORD PTR [eax+60], ecx

; 595  : 	this->RegenGoldenNeipin();

  01da0	8b 4d fc	 mov	 ecx, DWORD PTR _this$[ebp]
  01da3	e8 00 00 00 00	 call	 ?RegenGoldenNeipin@CEledoradoEvent@@QAEXXZ ; CEledoradoEvent::RegenGoldenNeipin

; 596  : 
; 597  : 	this->GoldenGreatDragonRegenTime = TickCount;

  01da8	8b 45 fc	 mov	 eax, DWORD PTR _this$[ebp]
  01dab	8b 4d f8	 mov	 ecx, DWORD PTR _TickCount$[ebp]
  01dae	89 48 40	 mov	 DWORD PTR [eax+64], ecx

; 598  : 	this->RegenGoldenGreatDragon();

  01db1	8b 4d fc	 mov	 ecx, DWORD PTR _this$[ebp]
  01db4	e8 00 00 00 00	 call	 ?RegenGoldenGreatDragon@CEledoradoEvent@@QAEXXZ ; CEledoradoEvent::RegenGoldenGreatDragon

; 599  : }

  01db9	5f		 pop	 edi
  01dba	5e		 pop	 esi
  01dbb	5b		 pop	 ebx
  01dbc	8b e5		 mov	 esp, ebp
  01dbe	5d		 pop	 ebp
  01dbf	c3		 ret	 0
?Start_Menual@CEledoradoEvent@@QAEXXZ ENDP		; CEledoradoEvent::Start_Menual
; Function compile flags: /Odtp /ZI
; File d:\projects\exteam6.3\source\gameserver\gameserver\eledoradoevent.h
_TEXT	ENDS
;	COMDAT ?SetMenualStart@CEledoradoEvent@@QAEXH@Z
_TEXT	SEGMENT
_this$ = -4						; size = 4
_bMenualStart$ = 8					; size = 4
?SetMenualStart@CEledoradoEvent@@QAEXH@Z PROC		; CEledoradoEvent::SetMenualStart, COMDAT
; _this$ = ecx

; 37   : 	void SetMenualStart(BOOL bMenualStart){this->m_bMenualStart = bMenualStart;}	// line : 57

  00000	55		 push	 ebp
  00001	8b ec		 mov	 ebp, esp
  00003	83 ec 44	 sub	 esp, 68			; 00000044H
  00006	53		 push	 ebx
  00007	56		 push	 esi
  00008	57		 push	 edi
  00009	89 4d fc	 mov	 DWORD PTR _this$[ebp], ecx
  0000c	8b 45 fc	 mov	 eax, DWORD PTR _this$[ebp]
  0000f	8b 4d 08	 mov	 ecx, DWORD PTR _bMenualStart$[ebp]
  00012	89 48 68	 mov	 DWORD PTR [eax+104], ecx
  00015	5f		 pop	 edi
  00016	5e		 pop	 esi
  00017	5b		 pop	 ebx
  00018	8b e5		 mov	 esp, ebp
  0001a	5d		 pop	 ebp
  0001b	c2 04 00	 ret	 4
?SetMenualStart@CEledoradoEvent@@QAEXH@Z ENDP		; CEledoradoEvent::SetMenualStart
_TEXT	ENDS
PUBLIC	?End_Menual@CEledoradoEvent@@QAEXXZ		; CEledoradoEvent::End_Menual
; Function compile flags: /Odtp /ZI
; File d:\projects\exteam6.3\source\gameserver\gameserver\eledoradoevent.cpp
_TEXT	SEGMENT
_this$ = -4						; size = 4
?End_Menual@CEledoradoEvent@@QAEXXZ PROC		; CEledoradoEvent::End_Menual
; _this$ = ecx

; 602  : {

  01dc0	55		 push	 ebp
  01dc1	8b ec		 mov	 ebp, esp
  01dc3	83 ec 44	 sub	 esp, 68			; 00000044H
  01dc6	53		 push	 ebx
  01dc7	56		 push	 esi
  01dc8	57		 push	 edi
  01dc9	89 4d fc	 mov	 DWORD PTR _this$[ebp], ecx

; 603  : 	this->SetMenualStart(FALSE);

  01dcc	6a 00		 push	 0
  01dce	8b 4d fc	 mov	 ecx, DWORD PTR _this$[ebp]
  01dd1	e8 00 00 00 00	 call	 ?SetMenualStart@CEledoradoEvent@@QAEXH@Z ; CEledoradoEvent::SetMenualStart

; 604  : }

  01dd6	5f		 pop	 edi
  01dd7	5e		 pop	 esi
  01dd8	5b		 pop	 ebx
  01dd9	8b e5		 mov	 esp, ebp
  01ddb	5d		 pop	 ebp
  01ddc	c3		 ret	 0
?End_Menual@CEledoradoEvent@@QAEXXZ ENDP		; CEledoradoEvent::End_Menual
; Function compile flags: /Odtp /ZI
_n$ = -8						; size = 4
_this$ = -4						; size = 4
?RegenGoldenRabbit@CEledoradoEvent@@QAEXXZ PROC		; CEledoradoEvent::RegenGoldenRabbit
; _this$ = ecx

; 608  : {

  01de0	55		 push	 ebp
  01de1	8b ec		 mov	 ebp, esp
  01de3	83 ec 4c	 sub	 esp, 76			; 0000004cH
  01de6	53		 push	 ebx
  01de7	56		 push	 esi
  01de8	57		 push	 edi
  01de9	89 4d fc	 mov	 DWORD PTR _this$[ebp], ecx

; 609  : 	int n=0;

  01dec	c7 45 f8 00 00
	00 00		 mov	 DWORD PTR _n$[ebp], 0

; 610  : 	int MapNumber;
; 611  : 
; 612  : 	//for (n=0;n<OBJ_MAXMONSTER;n++)
; 613  : 	//{
; 614  : 	//	if ( gObj[n].Class == 492 )	//502	1	"Golden Strange Rabbit"
; 615  : 	//	{
; 616  : 	//		gObj[n].Live = TRUE;
; 617  : 	//		MapNumber = MAP_INDEX_ELBELAND;
; 618  : 	//		gObj[n].MapNumber = MapNumber;
; 619  : 
; 620  : 	//		while ( gMSetBase.GetBoxPosition(MapNumber, 1, 1, 255, 255, gObj[n].X, gObj[n].Y) == 0 )
; 621  : 	//		{
; 622  : 
; 623  : 	//		}
; 624  : 
; 625  : 	//		gObj[n].Life = gObj[n].MaxLife;
; 626  : 	//		gObj[n].TX = gObj[n].X;
; 627  : 	//		gObj[n].TY = gObj[n].Y;
; 628  : 	//		gObj[n].MTX = gObj[n].X;
; 629  : 	//		gObj[n].MTY = gObj[n].Y;
; 630  : 	//		gObj[n].StartX = gObj[n].X;
; 631  : 	//		gObj[n].StartY = gObj[n].Y;
; 632  : 
; 633  : 
; 634  : 	//		gObj[n].m_State = 1;
; 635  : 	//		gObj[n].PathCount = 0;
; 636  : 
; 637  : 	//		LogAddTD("Make Golden rabbit : %d, %d,%d",
; 638  : 	//			MapNumber, gObj[n].X, gObj[n].Y);
; 639  : 	//	}
; 640  : 	//}
; 641  : }

  01df3	5f		 pop	 edi
  01df4	5e		 pop	 esi
  01df5	5b		 pop	 ebx
  01df6	8b e5		 mov	 esp, ebp
  01df8	5d		 pop	 ebp
  01df9	c3		 ret	 0
?RegenGoldenRabbit@CEledoradoEvent@@QAEXXZ ENDP		; CEledoradoEvent::RegenGoldenRabbit
_TEXT	ENDS
PUBLIC	??_C@_0CD@LGNFBEEH@Make?5Golden?5DarkKnight?5?3?5?$CFd?0?5?$CFd?0@ ; `string'
;	COMDAT ??_C@_0CD@LGNFBEEH@Make?5Golden?5DarkKnight?5?3?5?$CFd?0?5?$CFd?0@
CONST	SEGMENT
??_C@_0CD@LGNFBEEH@Make?5Golden?5DarkKnight?5?3?5?$CFd?0?5?$CFd?0@ DB 'Ma'
	DB	'ke Golden DarkKnight : %d, %d,%d', 00H	; `string'
; Function compile flags: /Odtp /ZI
CONST	ENDS
_TEXT	SEGMENT
_MapNumber$ = -12					; size = 4
_n$ = -8						; size = 4
_this$ = -4						; size = 4
?RegenGoldenDarkKnight@CEledoradoEvent@@QAEXXZ PROC	; CEledoradoEvent::RegenGoldenDarkKnight
; _this$ = ecx

; 644  : {

  01e00	55		 push	 ebp
  01e01	8b ec		 mov	 ebp, esp
  01e03	83 ec 4c	 sub	 esp, 76			; 0000004cH
  01e06	53		 push	 ebx
  01e07	56		 push	 esi
  01e08	57		 push	 edi
  01e09	89 4d fc	 mov	 DWORD PTR _this$[ebp], ecx

; 645  : 	int n=0;

  01e0c	c7 45 f8 00 00
	00 00		 mov	 DWORD PTR _n$[ebp], 0

; 646  : 	int MapNumber;
; 647  : 
; 648  : 	for (n=0;n<OBJ_MAXMONSTER;n++)

  01e13	c7 45 f8 00 00
	00 00		 mov	 DWORD PTR _n$[ebp], 0
  01e1a	eb 09		 jmp	 SHORT $LN6@RegenGolde
$LN5@RegenGolde:
  01e1c	8b 45 f8	 mov	 eax, DWORD PTR _n$[ebp]
  01e1f	83 c0 01	 add	 eax, 1
  01e22	89 45 f8	 mov	 DWORD PTR _n$[ebp], eax
$LN6@RegenGolde:
  01e25	81 7d f8 c8 32
	00 00		 cmp	 DWORD PTR _n$[ebp], 13000 ; 000032c8H
  01e2c	0f 8d 5e 02 00
	00		 jge	 $LN4@RegenGolde

; 649  : 	{
; 650  : 		if ( gObj[n].Class == 493 )	// 

  01e32	8b 45 f8	 mov	 eax, DWORD PTR _n$[ebp]
  01e35	69 c0 38 2b 00
	00		 imul	 eax, 11064		; 00002b38H
  01e3b	8b 0d 00 00 00
	00		 mov	 ecx, DWORD PTR ?gObj@@3PAUOBJECTSTRUCT@@A ; gObj
  01e41	0f b7 94 01 b8
	00 00 00	 movzx	 edx, WORD PTR [ecx+eax+184]
  01e49	81 fa ed 01 00
	00		 cmp	 edx, 493		; 000001edH
  01e4f	0f 85 36 02 00
	00		 jne	 $LN3@RegenGolde

; 651  : 		{
; 652  : 			gObj[n].Live = TRUE;

  01e55	8b 45 f8	 mov	 eax, DWORD PTR _n$[ebp]
  01e58	69 c0 38 2b 00
	00		 imul	 eax, 11064		; 00002b38H
  01e5e	8b 0d 00 00 00
	00		 mov	 ecx, DWORD PTR ?gObj@@3PAUOBJECTSTRUCT@@A ; gObj
  01e64	c6 44 01 6a 01	 mov	 BYTE PTR [ecx+eax+106], 1

; 653  : 			MapNumber = MAP_INDEX_DUNGEON;

  01e69	c7 45 f4 01 00
	00 00		 mov	 DWORD PTR _MapNumber$[ebp], 1

; 654  : 			gObj[n].MapNumber = MapNumber;

  01e70	8b 45 f8	 mov	 eax, DWORD PTR _n$[ebp]
  01e73	69 c0 38 2b 00
	00		 imul	 eax, 11064		; 00002b38H
  01e79	8b 0d 00 00 00
	00		 mov	 ecx, DWORD PTR ?gObj@@3PAUOBJECTSTRUCT@@A ; gObj
  01e7f	8a 55 f4	 mov	 dl, BYTE PTR _MapNumber$[ebp]
  01e82	88 94 01 49 01
	00 00		 mov	 BYTE PTR [ecx+eax+329], dl
$LN2@RegenGolde:

; 655  : 
; 656  : 			while ( gMSetBase.GetBoxPosition(MapNumber, 1, 1, 255, 255, gObj[n].X, gObj[n].Y) == 0 )

  01e89	8b 45 f8	 mov	 eax, DWORD PTR _n$[ebp]
  01e8c	69 c0 38 2b 00
	00		 imul	 eax, 11064		; 00002b38H
  01e92	8b 0d 00 00 00
	00		 mov	 ecx, DWORD PTR ?gObj@@3PAUOBJECTSTRUCT@@A ; gObj
  01e98	8d 94 01 46 01
	00 00		 lea	 edx, DWORD PTR [ecx+eax+326]
  01e9f	52		 push	 edx
  01ea0	8b 45 f8	 mov	 eax, DWORD PTR _n$[ebp]
  01ea3	69 c0 38 2b 00
	00		 imul	 eax, 11064		; 00002b38H
  01ea9	8b 0d 00 00 00
	00		 mov	 ecx, DWORD PTR ?gObj@@3PAUOBJECTSTRUCT@@A ; gObj
  01eaf	8d 94 01 44 01
	00 00		 lea	 edx, DWORD PTR [ecx+eax+324]
  01eb6	52		 push	 edx
  01eb7	68 ff 00 00 00	 push	 255			; 000000ffH
  01ebc	68 ff 00 00 00	 push	 255			; 000000ffH
  01ec1	6a 01		 push	 1
  01ec3	6a 01		 push	 1
  01ec5	8b 45 f4	 mov	 eax, DWORD PTR _MapNumber$[ebp]
  01ec8	50		 push	 eax
  01ec9	b9 00 00 00 00	 mov	 ecx, OFFSET ?gMSetBase@@3VCMonsterSetBase@@A ; gMSetBase
  01ece	e8 00 00 00 00	 call	 ?GetBoxPosition@CMonsterSetBase@@QAEHHHHHHAAF0@Z ; CMonsterSetBase::GetBoxPosition
  01ed3	85 c0		 test	 eax, eax
  01ed5	75 02		 jne	 SHORT $LN1@RegenGolde

; 657  : 			{
; 658  : 
; 659  : 			}

  01ed7	eb b0		 jmp	 SHORT $LN2@RegenGolde
$LN1@RegenGolde:

; 660  : 
; 661  : 			gObj[n].Life = gObj[n].MaxLife;

  01ed9	8b 45 f8	 mov	 eax, DWORD PTR _n$[ebp]
  01edc	69 c0 38 2b 00
	00		 imul	 eax, 11064		; 00002b38H
  01ee2	8b 4d f8	 mov	 ecx, DWORD PTR _n$[ebp]
  01ee5	69 c9 38 2b 00
	00		 imul	 ecx, 11064		; 00002b38H
  01eeb	8b 15 00 00 00
	00		 mov	 edx, DWORD PTR ?gObj@@3PAUOBJECTSTRUCT@@A ; gObj
  01ef1	8b 35 00 00 00
	00		 mov	 esi, DWORD PTR ?gObj@@3PAUOBJECTSTRUCT@@A ; gObj
  01ef7	d9 84 06 00 01
	00 00		 fld	 DWORD PTR [esi+eax+256]
  01efe	d9 9c 0a fc 00
	00 00		 fstp	 DWORD PTR [edx+ecx+252]

; 662  : 			gObj[n].TX = gObj[n].X;

  01f05	8b 45 f8	 mov	 eax, DWORD PTR _n$[ebp]
  01f08	69 c0 38 2b 00
	00		 imul	 eax, 11064		; 00002b38H
  01f0e	8b 4d f8	 mov	 ecx, DWORD PTR _n$[ebp]
  01f11	69 c9 38 2b 00
	00		 imul	 ecx, 11064		; 00002b38H
  01f17	8b 15 00 00 00
	00		 mov	 edx, DWORD PTR ?gObj@@3PAUOBJECTSTRUCT@@A ; gObj
  01f1d	8b 35 00 00 00
	00		 mov	 esi, DWORD PTR ?gObj@@3PAUOBJECTSTRUCT@@A ; gObj
  01f23	66 8b 84 06 44
	01 00 00	 mov	 ax, WORD PTR [esi+eax+324]
  01f2b	66 89 84 0a 7c
	01 00 00	 mov	 WORD PTR [edx+ecx+380], ax

; 663  : 			gObj[n].TY = gObj[n].Y;

  01f33	8b 45 f8	 mov	 eax, DWORD PTR _n$[ebp]
  01f36	69 c0 38 2b 00
	00		 imul	 eax, 11064		; 00002b38H
  01f3c	8b 4d f8	 mov	 ecx, DWORD PTR _n$[ebp]
  01f3f	69 c9 38 2b 00
	00		 imul	 ecx, 11064		; 00002b38H
  01f45	8b 15 00 00 00
	00		 mov	 edx, DWORD PTR ?gObj@@3PAUOBJECTSTRUCT@@A ; gObj
  01f4b	8b 35 00 00 00
	00		 mov	 esi, DWORD PTR ?gObj@@3PAUOBJECTSTRUCT@@A ; gObj
  01f51	66 8b 84 06 46
	01 00 00	 mov	 ax, WORD PTR [esi+eax+326]
  01f59	66 89 84 0a 7e
	01 00 00	 mov	 WORD PTR [edx+ecx+382], ax

; 664  : 			gObj[n].MTX = gObj[n].X;

  01f61	8b 45 f8	 mov	 eax, DWORD PTR _n$[ebp]
  01f64	69 c0 38 2b 00
	00		 imul	 eax, 11064		; 00002b38H
  01f6a	8b 4d f8	 mov	 ecx, DWORD PTR _n$[ebp]
  01f6d	69 c9 38 2b 00
	00		 imul	 ecx, 11064		; 00002b38H
  01f73	8b 15 00 00 00
	00		 mov	 edx, DWORD PTR ?gObj@@3PAUOBJECTSTRUCT@@A ; gObj
  01f79	8b 35 00 00 00
	00		 mov	 esi, DWORD PTR ?gObj@@3PAUOBJECTSTRUCT@@A ; gObj
  01f7f	66 8b 84 06 44
	01 00 00	 mov	 ax, WORD PTR [esi+eax+324]
  01f87	66 89 84 0a 80
	01 00 00	 mov	 WORD PTR [edx+ecx+384], ax

; 665  : 			gObj[n].MTY = gObj[n].Y;

  01f8f	8b 45 f8	 mov	 eax, DWORD PTR _n$[ebp]
  01f92	69 c0 38 2b 00
	00		 imul	 eax, 11064		; 00002b38H
  01f98	8b 4d f8	 mov	 ecx, DWORD PTR _n$[ebp]
  01f9b	69 c9 38 2b 00
	00		 imul	 ecx, 11064		; 00002b38H
  01fa1	8b 15 00 00 00
	00		 mov	 edx, DWORD PTR ?gObj@@3PAUOBJECTSTRUCT@@A ; gObj
  01fa7	8b 35 00 00 00
	00		 mov	 esi, DWORD PTR ?gObj@@3PAUOBJECTSTRUCT@@A ; gObj
  01fad	66 8b 84 06 46
	01 00 00	 mov	 ax, WORD PTR [esi+eax+326]
  01fb5	66 89 84 0a 82
	01 00 00	 mov	 WORD PTR [edx+ecx+386], ax

; 666  : 			gObj[n].StartX = gObj[n].X;

  01fbd	8b 45 f8	 mov	 eax, DWORD PTR _n$[ebp]
  01fc0	69 c0 38 2b 00
	00		 imul	 eax, 11064		; 00002b38H
  01fc6	8b 4d f8	 mov	 ecx, DWORD PTR _n$[ebp]
  01fc9	69 c9 38 2b 00
	00		 imul	 ecx, 11064		; 00002b38H
  01fcf	8b 15 00 00 00
	00		 mov	 edx, DWORD PTR ?gObj@@3PAUOBJECTSTRUCT@@A ; gObj
  01fd5	8b 35 00 00 00
	00		 mov	 esi, DWORD PTR ?gObj@@3PAUOBJECTSTRUCT@@A ; gObj
  01fdb	8a 84 06 44 01
	00 00		 mov	 al, BYTE PTR [esi+eax+324]
  01fe2	88 84 0a 76 01
	00 00		 mov	 BYTE PTR [edx+ecx+374], al

; 667  : 			gObj[n].StartY = gObj[n].Y;

  01fe9	8b 45 f8	 mov	 eax, DWORD PTR _n$[ebp]
  01fec	69 c0 38 2b 00
	00		 imul	 eax, 11064		; 00002b38H
  01ff2	8b 4d f8	 mov	 ecx, DWORD PTR _n$[ebp]
  01ff5	69 c9 38 2b 00
	00		 imul	 ecx, 11064		; 00002b38H
  01ffb	8b 15 00 00 00
	00		 mov	 edx, DWORD PTR ?gObj@@3PAUOBJECTSTRUCT@@A ; gObj
  02001	8b 35 00 00 00
	00		 mov	 esi, DWORD PTR ?gObj@@3PAUOBJECTSTRUCT@@A ; gObj
  02007	8a 84 06 46 01
	00 00		 mov	 al, BYTE PTR [esi+eax+326]
  0200e	88 84 0a 77 01
	00 00		 mov	 BYTE PTR [edx+ecx+375], al

; 668  : 
; 669  : 
; 670  : 			gObj[n].m_State = 1;

  02015	8b 45 f8	 mov	 eax, DWORD PTR _n$[ebp]
  02018	69 c0 38 2b 00
	00		 imul	 eax, 11064		; 00002b38H
  0201e	8b 0d 00 00 00
	00		 mov	 ecx, DWORD PTR ?gObj@@3PAUOBJECTSTRUCT@@A ; gObj
  02024	c7 84 01 20 02
	00 00 01 00 00
	00		 mov	 DWORD PTR [ecx+eax+544], 1

; 671  : 			gObj[n].PathCount = 0;

  0202f	8b 45 f8	 mov	 eax, DWORD PTR _n$[ebp]
  02032	69 c0 38 2b 00
	00		 imul	 eax, 11064		; 00002b38H
  02038	8b 0d 00 00 00
	00		 mov	 ecx, DWORD PTR ?gObj@@3PAUOBJECTSTRUCT@@A ; gObj
  0203e	c7 84 01 84 01
	00 00 00 00 00
	00		 mov	 DWORD PTR [ecx+eax+388], 0

; 672  : 
; 673  : 			LogAddTD("Make Golden DarkKnight : %d, %d,%d",
; 674  : 				MapNumber, gObj[n].X, gObj[n].Y);

  02049	8b 45 f8	 mov	 eax, DWORD PTR _n$[ebp]
  0204c	69 c0 38 2b 00
	00		 imul	 eax, 11064		; 00002b38H
  02052	8b 0d 00 00 00
	00		 mov	 ecx, DWORD PTR ?gObj@@3PAUOBJECTSTRUCT@@A ; gObj
  02058	0f bf 94 01 46
	01 00 00	 movsx	 edx, WORD PTR [ecx+eax+326]
  02060	52		 push	 edx
  02061	8b 45 f8	 mov	 eax, DWORD PTR _n$[ebp]
  02064	69 c0 38 2b 00
	00		 imul	 eax, 11064		; 00002b38H
  0206a	8b 0d 00 00 00
	00		 mov	 ecx, DWORD PTR ?gObj@@3PAUOBJECTSTRUCT@@A ; gObj
  02070	0f bf 94 01 44
	01 00 00	 movsx	 edx, WORD PTR [ecx+eax+324]
  02078	52		 push	 edx
  02079	8b 45 f4	 mov	 eax, DWORD PTR _MapNumber$[ebp]
  0207c	50		 push	 eax
  0207d	68 00 00 00 00	 push	 OFFSET ??_C@_0CD@LGNFBEEH@Make?5Golden?5DarkKnight?5?3?5?$CFd?0?5?$CFd?0@
  02082	ff 15 00 00 00
	00		 call	 DWORD PTR ?LogAddTD@@3P6AXPADZZA ; LogAddTD
  02088	83 c4 10	 add	 esp, 16			; 00000010H
$LN3@RegenGolde:

; 675  : 		}
; 676  : 	}

  0208b	e9 8c fd ff ff	 jmp	 $LN5@RegenGolde
$LN4@RegenGolde:

; 677  : }

  02090	5f		 pop	 edi
  02091	5e		 pop	 esi
  02092	5b		 pop	 ebx
  02093	8b e5		 mov	 esp, ebp
  02095	5d		 pop	 ebp
  02096	c3		 ret	 0
?RegenGoldenDarkKnight@CEledoradoEvent@@QAEXXZ ENDP	; CEledoradoEvent::RegenGoldenDarkKnight
_TEXT	ENDS
PUBLIC	??_C@_0BO@HGAOKNNC@Make?5Golden?5Devil?5?3?5?$CFd?0?5?$CFd?0?$CFd?$AA@ ; `string'
;	COMDAT ??_C@_0BO@HGAOKNNC@Make?5Golden?5Devil?5?3?5?$CFd?0?5?$CFd?0?$CFd?$AA@
CONST	SEGMENT
??_C@_0BO@HGAOKNNC@Make?5Golden?5Devil?5?3?5?$CFd?0?5?$CFd?0?$CFd?$AA@ DB 'M'
	DB	'ake Golden Devil : %d, %d,%d', 00H		; `string'
; Function compile flags: /Odtp /ZI
CONST	ENDS
_TEXT	SEGMENT
_MapNumber$ = -12					; size = 4
_n$ = -8						; size = 4
_this$ = -4						; size = 4
?RegenGoldenDevil@CEledoradoEvent@@QAEXXZ PROC		; CEledoradoEvent::RegenGoldenDevil
; _this$ = ecx

; 680  : {

  020a0	55		 push	 ebp
  020a1	8b ec		 mov	 ebp, esp
  020a3	83 ec 4c	 sub	 esp, 76			; 0000004cH
  020a6	53		 push	 ebx
  020a7	56		 push	 esi
  020a8	57		 push	 edi
  020a9	89 4d fc	 mov	 DWORD PTR _this$[ebp], ecx

; 681  : 	int n=0;

  020ac	c7 45 f8 00 00
	00 00		 mov	 DWORD PTR _n$[ebp], 0

; 682  : 	int MapNumber;
; 683  : 
; 684  : 	for (n=0;n<OBJ_MAXMONSTER;n++)

  020b3	c7 45 f8 00 00
	00 00		 mov	 DWORD PTR _n$[ebp], 0
  020ba	eb 09		 jmp	 SHORT $LN6@RegenGolde@2
$LN5@RegenGolde@2:
  020bc	8b 45 f8	 mov	 eax, DWORD PTR _n$[ebp]
  020bf	83 c0 01	 add	 eax, 1
  020c2	89 45 f8	 mov	 DWORD PTR _n$[ebp], eax
$LN6@RegenGolde@2:
  020c5	81 7d f8 c8 32
	00 00		 cmp	 DWORD PTR _n$[ebp], 13000 ; 000032c8H
  020cc	0f 8d 5e 02 00
	00		 jge	 $LN4@RegenGolde@2

; 685  : 	{
; 686  : 		if ( gObj[n].Class == 494 )	// 

  020d2	8b 45 f8	 mov	 eax, DWORD PTR _n$[ebp]
  020d5	69 c0 38 2b 00
	00		 imul	 eax, 11064		; 00002b38H
  020db	8b 0d 00 00 00
	00		 mov	 ecx, DWORD PTR ?gObj@@3PAUOBJECTSTRUCT@@A ; gObj
  020e1	0f b7 94 01 b8
	00 00 00	 movzx	 edx, WORD PTR [ecx+eax+184]
  020e9	81 fa ee 01 00
	00		 cmp	 edx, 494		; 000001eeH
  020ef	0f 85 36 02 00
	00		 jne	 $LN3@RegenGolde@2

; 687  : 		{
; 688  : 			gObj[n].Live = TRUE;

  020f5	8b 45 f8	 mov	 eax, DWORD PTR _n$[ebp]
  020f8	69 c0 38 2b 00
	00		 imul	 eax, 11064		; 00002b38H
  020fe	8b 0d 00 00 00
	00		 mov	 ecx, DWORD PTR ?gObj@@3PAUOBJECTSTRUCT@@A ; gObj
  02104	c6 44 01 6a 01	 mov	 BYTE PTR [ecx+eax+106], 1

; 689  : 			MapNumber = MAP_INDEX_LOSTTOWER;

  02109	c7 45 f4 04 00
	00 00		 mov	 DWORD PTR _MapNumber$[ebp], 4

; 690  : 			gObj[n].MapNumber = MapNumber;

  02110	8b 45 f8	 mov	 eax, DWORD PTR _n$[ebp]
  02113	69 c0 38 2b 00
	00		 imul	 eax, 11064		; 00002b38H
  02119	8b 0d 00 00 00
	00		 mov	 ecx, DWORD PTR ?gObj@@3PAUOBJECTSTRUCT@@A ; gObj
  0211f	8a 55 f4	 mov	 dl, BYTE PTR _MapNumber$[ebp]
  02122	88 94 01 49 01
	00 00		 mov	 BYTE PTR [ecx+eax+329], dl
$LN2@RegenGolde@2:

; 691  : 
; 692  : 			while ( gMSetBase.GetBoxPosition(MapNumber, 1, 1, 255, 255, gObj[n].X, gObj[n].Y) == 0 )

  02129	8b 45 f8	 mov	 eax, DWORD PTR _n$[ebp]
  0212c	69 c0 38 2b 00
	00		 imul	 eax, 11064		; 00002b38H
  02132	8b 0d 00 00 00
	00		 mov	 ecx, DWORD PTR ?gObj@@3PAUOBJECTSTRUCT@@A ; gObj
  02138	8d 94 01 46 01
	00 00		 lea	 edx, DWORD PTR [ecx+eax+326]
  0213f	52		 push	 edx
  02140	8b 45 f8	 mov	 eax, DWORD PTR _n$[ebp]
  02143	69 c0 38 2b 00
	00		 imul	 eax, 11064		; 00002b38H
  02149	8b 0d 00 00 00
	00		 mov	 ecx, DWORD PTR ?gObj@@3PAUOBJECTSTRUCT@@A ; gObj
  0214f	8d 94 01 44 01
	00 00		 lea	 edx, DWORD PTR [ecx+eax+324]
  02156	52		 push	 edx
  02157	68 ff 00 00 00	 push	 255			; 000000ffH
  0215c	68 ff 00 00 00	 push	 255			; 000000ffH
  02161	6a 01		 push	 1
  02163	6a 01		 push	 1
  02165	8b 45 f4	 mov	 eax, DWORD PTR _MapNumber$[ebp]
  02168	50		 push	 eax
  02169	b9 00 00 00 00	 mov	 ecx, OFFSET ?gMSetBase@@3VCMonsterSetBase@@A ; gMSetBase
  0216e	e8 00 00 00 00	 call	 ?GetBoxPosition@CMonsterSetBase@@QAEHHHHHHAAF0@Z ; CMonsterSetBase::GetBoxPosition
  02173	85 c0		 test	 eax, eax
  02175	75 02		 jne	 SHORT $LN1@RegenGolde@2

; 693  : 			{
; 694  : 
; 695  : 			}

  02177	eb b0		 jmp	 SHORT $LN2@RegenGolde@2
$LN1@RegenGolde@2:

; 696  : 
; 697  : 			gObj[n].Life = gObj[n].MaxLife;

  02179	8b 45 f8	 mov	 eax, DWORD PTR _n$[ebp]
  0217c	69 c0 38 2b 00
	00		 imul	 eax, 11064		; 00002b38H
  02182	8b 4d f8	 mov	 ecx, DWORD PTR _n$[ebp]
  02185	69 c9 38 2b 00
	00		 imul	 ecx, 11064		; 00002b38H
  0218b	8b 15 00 00 00
	00		 mov	 edx, DWORD PTR ?gObj@@3PAUOBJECTSTRUCT@@A ; gObj
  02191	8b 35 00 00 00
	00		 mov	 esi, DWORD PTR ?gObj@@3PAUOBJECTSTRUCT@@A ; gObj
  02197	d9 84 06 00 01
	00 00		 fld	 DWORD PTR [esi+eax+256]
  0219e	d9 9c 0a fc 00
	00 00		 fstp	 DWORD PTR [edx+ecx+252]

; 698  : 			gObj[n].TX = gObj[n].X;

  021a5	8b 45 f8	 mov	 eax, DWORD PTR _n$[ebp]
  021a8	69 c0 38 2b 00
	00		 imul	 eax, 11064		; 00002b38H
  021ae	8b 4d f8	 mov	 ecx, DWORD PTR _n$[ebp]
  021b1	69 c9 38 2b 00
	00		 imul	 ecx, 11064		; 00002b38H
  021b7	8b 15 00 00 00
	00		 mov	 edx, DWORD PTR ?gObj@@3PAUOBJECTSTRUCT@@A ; gObj
  021bd	8b 35 00 00 00
	00		 mov	 esi, DWORD PTR ?gObj@@3PAUOBJECTSTRUCT@@A ; gObj
  021c3	66 8b 84 06 44
	01 00 00	 mov	 ax, WORD PTR [esi+eax+324]
  021cb	66 89 84 0a 7c
	01 00 00	 mov	 WORD PTR [edx+ecx+380], ax

; 699  : 			gObj[n].TY = gObj[n].Y;

  021d3	8b 45 f8	 mov	 eax, DWORD PTR _n$[ebp]
  021d6	69 c0 38 2b 00
	00		 imul	 eax, 11064		; 00002b38H
  021dc	8b 4d f8	 mov	 ecx, DWORD PTR _n$[ebp]
  021df	69 c9 38 2b 00
	00		 imul	 ecx, 11064		; 00002b38H
  021e5	8b 15 00 00 00
	00		 mov	 edx, DWORD PTR ?gObj@@3PAUOBJECTSTRUCT@@A ; gObj
  021eb	8b 35 00 00 00
	00		 mov	 esi, DWORD PTR ?gObj@@3PAUOBJECTSTRUCT@@A ; gObj
  021f1	66 8b 84 06 46
	01 00 00	 mov	 ax, WORD PTR [esi+eax+326]
  021f9	66 89 84 0a 7e
	01 00 00	 mov	 WORD PTR [edx+ecx+382], ax

; 700  : 			gObj[n].MTX = gObj[n].X;

  02201	8b 45 f8	 mov	 eax, DWORD PTR _n$[ebp]
  02204	69 c0 38 2b 00
	00		 imul	 eax, 11064		; 00002b38H
  0220a	8b 4d f8	 mov	 ecx, DWORD PTR _n$[ebp]
  0220d	69 c9 38 2b 00
	00		 imul	 ecx, 11064		; 00002b38H
  02213	8b 15 00 00 00
	00		 mov	 edx, DWORD PTR ?gObj@@3PAUOBJECTSTRUCT@@A ; gObj
  02219	8b 35 00 00 00
	00		 mov	 esi, DWORD PTR ?gObj@@3PAUOBJECTSTRUCT@@A ; gObj
  0221f	66 8b 84 06 44
	01 00 00	 mov	 ax, WORD PTR [esi+eax+324]
  02227	66 89 84 0a 80
	01 00 00	 mov	 WORD PTR [edx+ecx+384], ax

; 701  : 			gObj[n].MTY = gObj[n].Y;

  0222f	8b 45 f8	 mov	 eax, DWORD PTR _n$[ebp]
  02232	69 c0 38 2b 00
	00		 imul	 eax, 11064		; 00002b38H
  02238	8b 4d f8	 mov	 ecx, DWORD PTR _n$[ebp]
  0223b	69 c9 38 2b 00
	00		 imul	 ecx, 11064		; 00002b38H
  02241	8b 15 00 00 00
	00		 mov	 edx, DWORD PTR ?gObj@@3PAUOBJECTSTRUCT@@A ; gObj
  02247	8b 35 00 00 00
	00		 mov	 esi, DWORD PTR ?gObj@@3PAUOBJECTSTRUCT@@A ; gObj
  0224d	66 8b 84 06 46
	01 00 00	 mov	 ax, WORD PTR [esi+eax+326]
  02255	66 89 84 0a 82
	01 00 00	 mov	 WORD PTR [edx+ecx+386], ax

; 702  : 			gObj[n].StartX = gObj[n].X;

  0225d	8b 45 f8	 mov	 eax, DWORD PTR _n$[ebp]
  02260	69 c0 38 2b 00
	00		 imul	 eax, 11064		; 00002b38H
  02266	8b 4d f8	 mov	 ecx, DWORD PTR _n$[ebp]
  02269	69 c9 38 2b 00
	00		 imul	 ecx, 11064		; 00002b38H
  0226f	8b 15 00 00 00
	00		 mov	 edx, DWORD PTR ?gObj@@3PAUOBJECTSTRUCT@@A ; gObj
  02275	8b 35 00 00 00
	00		 mov	 esi, DWORD PTR ?gObj@@3PAUOBJECTSTRUCT@@A ; gObj
  0227b	8a 84 06 44 01
	00 00		 mov	 al, BYTE PTR [esi+eax+324]
  02282	88 84 0a 76 01
	00 00		 mov	 BYTE PTR [edx+ecx+374], al

; 703  : 			gObj[n].StartY = gObj[n].Y;

  02289	8b 45 f8	 mov	 eax, DWORD PTR _n$[ebp]
  0228c	69 c0 38 2b 00
	00		 imul	 eax, 11064		; 00002b38H
  02292	8b 4d f8	 mov	 ecx, DWORD PTR _n$[ebp]
  02295	69 c9 38 2b 00
	00		 imul	 ecx, 11064		; 00002b38H
  0229b	8b 15 00 00 00
	00		 mov	 edx, DWORD PTR ?gObj@@3PAUOBJECTSTRUCT@@A ; gObj
  022a1	8b 35 00 00 00
	00		 mov	 esi, DWORD PTR ?gObj@@3PAUOBJECTSTRUCT@@A ; gObj
  022a7	8a 84 06 46 01
	00 00		 mov	 al, BYTE PTR [esi+eax+326]
  022ae	88 84 0a 77 01
	00 00		 mov	 BYTE PTR [edx+ecx+375], al

; 704  : 
; 705  : 
; 706  : 			gObj[n].m_State = 1;

  022b5	8b 45 f8	 mov	 eax, DWORD PTR _n$[ebp]
  022b8	69 c0 38 2b 00
	00		 imul	 eax, 11064		; 00002b38H
  022be	8b 0d 00 00 00
	00		 mov	 ecx, DWORD PTR ?gObj@@3PAUOBJECTSTRUCT@@A ; gObj
  022c4	c7 84 01 20 02
	00 00 01 00 00
	00		 mov	 DWORD PTR [ecx+eax+544], 1

; 707  : 			gObj[n].PathCount = 0;

  022cf	8b 45 f8	 mov	 eax, DWORD PTR _n$[ebp]
  022d2	69 c0 38 2b 00
	00		 imul	 eax, 11064		; 00002b38H
  022d8	8b 0d 00 00 00
	00		 mov	 ecx, DWORD PTR ?gObj@@3PAUOBJECTSTRUCT@@A ; gObj
  022de	c7 84 01 84 01
	00 00 00 00 00
	00		 mov	 DWORD PTR [ecx+eax+388], 0

; 708  : 
; 709  : 			LogAddTD("Make Golden Devil : %d, %d,%d",
; 710  : 				MapNumber, gObj[n].X, gObj[n].Y);

  022e9	8b 45 f8	 mov	 eax, DWORD PTR _n$[ebp]
  022ec	69 c0 38 2b 00
	00		 imul	 eax, 11064		; 00002b38H
  022f2	8b 0d 00 00 00
	00		 mov	 ecx, DWORD PTR ?gObj@@3PAUOBJECTSTRUCT@@A ; gObj
  022f8	0f bf 94 01 46
	01 00 00	 movsx	 edx, WORD PTR [ecx+eax+326]
  02300	52		 push	 edx
  02301	8b 45 f8	 mov	 eax, DWORD PTR _n$[ebp]
  02304	69 c0 38 2b 00
	00		 imul	 eax, 11064		; 00002b38H
  0230a	8b 0d 00 00 00
	00		 mov	 ecx, DWORD PTR ?gObj@@3PAUOBJECTSTRUCT@@A ; gObj
  02310	0f bf 94 01 44
	01 00 00	 movsx	 edx, WORD PTR [ecx+eax+324]
  02318	52		 push	 edx
  02319	8b 45 f4	 mov	 eax, DWORD PTR _MapNumber$[ebp]
  0231c	50		 push	 eax
  0231d	68 00 00 00 00	 push	 OFFSET ??_C@_0BO@HGAOKNNC@Make?5Golden?5Devil?5?3?5?$CFd?0?5?$CFd?0?$CFd?$AA@
  02322	ff 15 00 00 00
	00		 call	 DWORD PTR ?LogAddTD@@3P6AXPADZZA ; LogAddTD
  02328	83 c4 10	 add	 esp, 16			; 00000010H
$LN3@RegenGolde@2:

; 711  : 		}
; 712  : 	}

  0232b	e9 8c fd ff ff	 jmp	 $LN5@RegenGolde@2
$LN4@RegenGolde@2:

; 713  : }

  02330	5f		 pop	 edi
  02331	5e		 pop	 esi
  02332	5b		 pop	 ebx
  02333	8b e5		 mov	 esp, ebp
  02335	5d		 pop	 ebp
  02336	c3		 ret	 0
?RegenGoldenDevil@CEledoradoEvent@@QAEXXZ ENDP		; CEledoradoEvent::RegenGoldenDevil
; Function compile flags: /Odtp /ZI
_MapNumber$ = -12					; size = 4
_n$ = -8						; size = 4
_this$ = -4						; size = 4
?RegenGoldenMonster@CEledoradoEvent@@QAEXXZ PROC	; CEledoradoEvent::RegenGoldenMonster
; _this$ = ecx

; 716  : {

  02340	55		 push	 ebp
  02341	8b ec		 mov	 ebp, esp
  02343	83 ec 4c	 sub	 esp, 76			; 0000004cH
  02346	53		 push	 ebx
  02347	56		 push	 esi
  02348	57		 push	 edi
  02349	89 4d fc	 mov	 DWORD PTR _this$[ebp], ecx

; 717  : 	int n=0;

  0234c	c7 45 f8 00 00
	00 00		 mov	 DWORD PTR _n$[ebp], 0

; 718  : 	int MapNumber;
; 719  : 
; 720  : 	for (n=0;n<OBJ_MAXMONSTER;n++)

  02353	c7 45 f8 00 00
	00 00		 mov	 DWORD PTR _n$[ebp], 0
  0235a	eb 09		 jmp	 SHORT $LN6@RegenGolde@3
$LN5@RegenGolde@3:
  0235c	8b 45 f8	 mov	 eax, DWORD PTR _n$[ebp]
  0235f	83 c0 01	 add	 eax, 1
  02362	89 45 f8	 mov	 DWORD PTR _n$[ebp], eax
$LN6@RegenGolde@3:
  02365	81 7d f8 c8 32
	00 00		 cmp	 DWORD PTR _n$[ebp], 13000 ; 000032c8H
  0236c	0f 8d 5e 02 00
	00		 jge	 $LN4@RegenGolde@3

; 721  : 	{
; 722  : 		if ( gObj[n].Class == 495 )	// 

  02372	8b 45 f8	 mov	 eax, DWORD PTR _n$[ebp]
  02375	69 c0 38 2b 00
	00		 imul	 eax, 11064		; 00002b38H
  0237b	8b 0d 00 00 00
	00		 mov	 ecx, DWORD PTR ?gObj@@3PAUOBJECTSTRUCT@@A ; gObj
  02381	0f b7 94 01 b8
	00 00 00	 movzx	 edx, WORD PTR [ecx+eax+184]
  02389	81 fa ef 01 00
	00		 cmp	 edx, 495		; 000001efH
  0238f	0f 85 36 02 00
	00		 jne	 $LN3@RegenGolde@3

; 723  : 		{
; 724  : 			gObj[n].Live = TRUE;

  02395	8b 45 f8	 mov	 eax, DWORD PTR _n$[ebp]
  02398	69 c0 38 2b 00
	00		 imul	 eax, 11064		; 00002b38H
  0239e	8b 0d 00 00 00
	00		 mov	 ecx, DWORD PTR ?gObj@@3PAUOBJECTSTRUCT@@A ; gObj
  023a4	c6 44 01 6a 01	 mov	 BYTE PTR [ecx+eax+106], 1

; 725  : 			MapNumber = MAP_INDEX_AIDA;

  023a9	c7 45 f4 21 00
	00 00		 mov	 DWORD PTR _MapNumber$[ebp], 33 ; 00000021H

; 726  : 			gObj[n].MapNumber = MapNumber;

  023b0	8b 45 f8	 mov	 eax, DWORD PTR _n$[ebp]
  023b3	69 c0 38 2b 00
	00		 imul	 eax, 11064		; 00002b38H
  023b9	8b 0d 00 00 00
	00		 mov	 ecx, DWORD PTR ?gObj@@3PAUOBJECTSTRUCT@@A ; gObj
  023bf	8a 55 f4	 mov	 dl, BYTE PTR _MapNumber$[ebp]
  023c2	88 94 01 49 01
	00 00		 mov	 BYTE PTR [ecx+eax+329], dl
$LN2@RegenGolde@3:

; 727  : 
; 728  : 			while ( gMSetBase.GetBoxPosition(MapNumber, 1, 1, 255, 255, gObj[n].X, gObj[n].Y) == 0 )

  023c9	8b 45 f8	 mov	 eax, DWORD PTR _n$[ebp]
  023cc	69 c0 38 2b 00
	00		 imul	 eax, 11064		; 00002b38H
  023d2	8b 0d 00 00 00
	00		 mov	 ecx, DWORD PTR ?gObj@@3PAUOBJECTSTRUCT@@A ; gObj
  023d8	8d 94 01 46 01
	00 00		 lea	 edx, DWORD PTR [ecx+eax+326]
  023df	52		 push	 edx
  023e0	8b 45 f8	 mov	 eax, DWORD PTR _n$[ebp]
  023e3	69 c0 38 2b 00
	00		 imul	 eax, 11064		; 00002b38H
  023e9	8b 0d 00 00 00
	00		 mov	 ecx, DWORD PTR ?gObj@@3PAUOBJECTSTRUCT@@A ; gObj
  023ef	8d 94 01 44 01
	00 00		 lea	 edx, DWORD PTR [ecx+eax+324]
  023f6	52		 push	 edx
  023f7	68 ff 00 00 00	 push	 255			; 000000ffH
  023fc	68 ff 00 00 00	 push	 255			; 000000ffH
  02401	6a 01		 push	 1
  02403	6a 01		 push	 1
  02405	8b 45 f4	 mov	 eax, DWORD PTR _MapNumber$[ebp]
  02408	50		 push	 eax
  02409	b9 00 00 00 00	 mov	 ecx, OFFSET ?gMSetBase@@3VCMonsterSetBase@@A ; gMSetBase
  0240e	e8 00 00 00 00	 call	 ?GetBoxPosition@CMonsterSetBase@@QAEHHHHHHAAF0@Z ; CMonsterSetBase::GetBoxPosition
  02413	85 c0		 test	 eax, eax
  02415	75 02		 jne	 SHORT $LN1@RegenGolde@3

; 729  : 			{
; 730  : 
; 731  : 			}

  02417	eb b0		 jmp	 SHORT $LN2@RegenGolde@3
$LN1@RegenGolde@3:

; 732  : 
; 733  : 			gObj[n].Life = gObj[n].MaxLife;

  02419	8b 45 f8	 mov	 eax, DWORD PTR _n$[ebp]
  0241c	69 c0 38 2b 00
	00		 imul	 eax, 11064		; 00002b38H
  02422	8b 4d f8	 mov	 ecx, DWORD PTR _n$[ebp]
  02425	69 c9 38 2b 00
	00		 imul	 ecx, 11064		; 00002b38H
  0242b	8b 15 00 00 00
	00		 mov	 edx, DWORD PTR ?gObj@@3PAUOBJECTSTRUCT@@A ; gObj
  02431	8b 35 00 00 00
	00		 mov	 esi, DWORD PTR ?gObj@@3PAUOBJECTSTRUCT@@A ; gObj
  02437	d9 84 06 00 01
	00 00		 fld	 DWORD PTR [esi+eax+256]
  0243e	d9 9c 0a fc 00
	00 00		 fstp	 DWORD PTR [edx+ecx+252]

; 734  : 			gObj[n].TX = gObj[n].X;

  02445	8b 45 f8	 mov	 eax, DWORD PTR _n$[ebp]
  02448	69 c0 38 2b 00
	00		 imul	 eax, 11064		; 00002b38H
  0244e	8b 4d f8	 mov	 ecx, DWORD PTR _n$[ebp]
  02451	69 c9 38 2b 00
	00		 imul	 ecx, 11064		; 00002b38H
  02457	8b 15 00 00 00
	00		 mov	 edx, DWORD PTR ?gObj@@3PAUOBJECTSTRUCT@@A ; gObj
  0245d	8b 35 00 00 00
	00		 mov	 esi, DWORD PTR ?gObj@@3PAUOBJECTSTRUCT@@A ; gObj
  02463	66 8b 84 06 44
	01 00 00	 mov	 ax, WORD PTR [esi+eax+324]
  0246b	66 89 84 0a 7c
	01 00 00	 mov	 WORD PTR [edx+ecx+380], ax

; 735  : 			gObj[n].TY = gObj[n].Y;

  02473	8b 45 f8	 mov	 eax, DWORD PTR _n$[ebp]
  02476	69 c0 38 2b 00
	00		 imul	 eax, 11064		; 00002b38H
  0247c	8b 4d f8	 mov	 ecx, DWORD PTR _n$[ebp]
  0247f	69 c9 38 2b 00
	00		 imul	 ecx, 11064		; 00002b38H
  02485	8b 15 00 00 00
	00		 mov	 edx, DWORD PTR ?gObj@@3PAUOBJECTSTRUCT@@A ; gObj
  0248b	8b 35 00 00 00
	00		 mov	 esi, DWORD PTR ?gObj@@3PAUOBJECTSTRUCT@@A ; gObj
  02491	66 8b 84 06 46
	01 00 00	 mov	 ax, WORD PTR [esi+eax+326]
  02499	66 89 84 0a 7e
	01 00 00	 mov	 WORD PTR [edx+ecx+382], ax

; 736  : 			gObj[n].MTX = gObj[n].X;

  024a1	8b 45 f8	 mov	 eax, DWORD PTR _n$[ebp]
  024a4	69 c0 38 2b 00
	00		 imul	 eax, 11064		; 00002b38H
  024aa	8b 4d f8	 mov	 ecx, DWORD PTR _n$[ebp]
  024ad	69 c9 38 2b 00
	00		 imul	 ecx, 11064		; 00002b38H
  024b3	8b 15 00 00 00
	00		 mov	 edx, DWORD PTR ?gObj@@3PAUOBJECTSTRUCT@@A ; gObj
  024b9	8b 35 00 00 00
	00		 mov	 esi, DWORD PTR ?gObj@@3PAUOBJECTSTRUCT@@A ; gObj
  024bf	66 8b 84 06 44
	01 00 00	 mov	 ax, WORD PTR [esi+eax+324]
  024c7	66 89 84 0a 80
	01 00 00	 mov	 WORD PTR [edx+ecx+384], ax

; 737  : 			gObj[n].MTY = gObj[n].Y;

  024cf	8b 45 f8	 mov	 eax, DWORD PTR _n$[ebp]
  024d2	69 c0 38 2b 00
	00		 imul	 eax, 11064		; 00002b38H
  024d8	8b 4d f8	 mov	 ecx, DWORD PTR _n$[ebp]
  024db	69 c9 38 2b 00
	00		 imul	 ecx, 11064		; 00002b38H
  024e1	8b 15 00 00 00
	00		 mov	 edx, DWORD PTR ?gObj@@3PAUOBJECTSTRUCT@@A ; gObj
  024e7	8b 35 00 00 00
	00		 mov	 esi, DWORD PTR ?gObj@@3PAUOBJECTSTRUCT@@A ; gObj
  024ed	66 8b 84 06 46
	01 00 00	 mov	 ax, WORD PTR [esi+eax+326]
  024f5	66 89 84 0a 82
	01 00 00	 mov	 WORD PTR [edx+ecx+386], ax

; 738  : 			gObj[n].StartX = gObj[n].X;

  024fd	8b 45 f8	 mov	 eax, DWORD PTR _n$[ebp]
  02500	69 c0 38 2b 00
	00		 imul	 eax, 11064		; 00002b38H
  02506	8b 4d f8	 mov	 ecx, DWORD PTR _n$[ebp]
  02509	69 c9 38 2b 00
	00		 imul	 ecx, 11064		; 00002b38H
  0250f	8b 15 00 00 00
	00		 mov	 edx, DWORD PTR ?gObj@@3PAUOBJECTSTRUCT@@A ; gObj
  02515	8b 35 00 00 00
	00		 mov	 esi, DWORD PTR ?gObj@@3PAUOBJECTSTRUCT@@A ; gObj
  0251b	8a 84 06 44 01
	00 00		 mov	 al, BYTE PTR [esi+eax+324]
  02522	88 84 0a 76 01
	00 00		 mov	 BYTE PTR [edx+ecx+374], al

; 739  : 			gObj[n].StartY = gObj[n].Y;

  02529	8b 45 f8	 mov	 eax, DWORD PTR _n$[ebp]
  0252c	69 c0 38 2b 00
	00		 imul	 eax, 11064		; 00002b38H
  02532	8b 4d f8	 mov	 ecx, DWORD PTR _n$[ebp]
  02535	69 c9 38 2b 00
	00		 imul	 ecx, 11064		; 00002b38H
  0253b	8b 15 00 00 00
	00		 mov	 edx, DWORD PTR ?gObj@@3PAUOBJECTSTRUCT@@A ; gObj
  02541	8b 35 00 00 00
	00		 mov	 esi, DWORD PTR ?gObj@@3PAUOBJECTSTRUCT@@A ; gObj
  02547	8a 84 06 46 01
	00 00		 mov	 al, BYTE PTR [esi+eax+326]
  0254e	88 84 0a 77 01
	00 00		 mov	 BYTE PTR [edx+ecx+375], al

; 740  : 
; 741  : 
; 742  : 			gObj[n].m_State = 1;

  02555	8b 45 f8	 mov	 eax, DWORD PTR _n$[ebp]
  02558	69 c0 38 2b 00
	00		 imul	 eax, 11064		; 00002b38H
  0255e	8b 0d 00 00 00
	00		 mov	 ecx, DWORD PTR ?gObj@@3PAUOBJECTSTRUCT@@A ; gObj
  02564	c7 84 01 20 02
	00 00 01 00 00
	00		 mov	 DWORD PTR [ecx+eax+544], 1

; 743  : 			gObj[n].PathCount = 0;

  0256f	8b 45 f8	 mov	 eax, DWORD PTR _n$[ebp]
  02572	69 c0 38 2b 00
	00		 imul	 eax, 11064		; 00002b38H
  02578	8b 0d 00 00 00
	00		 mov	 ecx, DWORD PTR ?gObj@@3PAUOBJECTSTRUCT@@A ; gObj
  0257e	c7 84 01 84 01
	00 00 00 00 00
	00		 mov	 DWORD PTR [ecx+eax+388], 0

; 744  : 
; 745  : 			LogAddTD("Make Golden DarkKnight : %d, %d,%d",
; 746  : 				MapNumber, gObj[n].X, gObj[n].Y);

  02589	8b 45 f8	 mov	 eax, DWORD PTR _n$[ebp]
  0258c	69 c0 38 2b 00
	00		 imul	 eax, 11064		; 00002b38H
  02592	8b 0d 00 00 00
	00		 mov	 ecx, DWORD PTR ?gObj@@3PAUOBJECTSTRUCT@@A ; gObj
  02598	0f bf 94 01 46
	01 00 00	 movsx	 edx, WORD PTR [ecx+eax+326]
  025a0	52		 push	 edx
  025a1	8b 45 f8	 mov	 eax, DWORD PTR _n$[ebp]
  025a4	69 c0 38 2b 00
	00		 imul	 eax, 11064		; 00002b38H
  025aa	8b 0d 00 00 00
	00		 mov	 ecx, DWORD PTR ?gObj@@3PAUOBJECTSTRUCT@@A ; gObj
  025b0	0f bf 94 01 44
	01 00 00	 movsx	 edx, WORD PTR [ecx+eax+324]
  025b8	52		 push	 edx
  025b9	8b 45 f4	 mov	 eax, DWORD PTR _MapNumber$[ebp]
  025bc	50		 push	 eax
  025bd	68 00 00 00 00	 push	 OFFSET ??_C@_0CD@LGNFBEEH@Make?5Golden?5DarkKnight?5?3?5?$CFd?0?5?$CFd?0@
  025c2	ff 15 00 00 00
	00		 call	 DWORD PTR ?LogAddTD@@3P6AXPADZZA ; LogAddTD
  025c8	83 c4 10	 add	 esp, 16			; 00000010H
$LN3@RegenGolde@3:

; 747  : 		}
; 748  : 	}

  025cb	e9 8c fd ff ff	 jmp	 $LN5@RegenGolde@3
$LN4@RegenGolde@3:

; 749  : }

  025d0	5f		 pop	 edi
  025d1	5e		 pop	 esi
  025d2	5b		 pop	 ebx
  025d3	8b e5		 mov	 esp, ebp
  025d5	5d		 pop	 ebp
  025d6	c3		 ret	 0
?RegenGoldenMonster@CEledoradoEvent@@QAEXXZ ENDP	; CEledoradoEvent::RegenGoldenMonster
_TEXT	ENDS
PUBLIC	??_C@_0BO@PPKNDGHB@Make?5Golden?5Crust?5?3?5?$CFd?0?5?$CFd?0?$CFd?$AA@ ; `string'
;	COMDAT ??_C@_0BO@PPKNDGHB@Make?5Golden?5Crust?5?3?5?$CFd?0?5?$CFd?0?$CFd?$AA@
CONST	SEGMENT
??_C@_0BO@PPKNDGHB@Make?5Golden?5Crust?5?3?5?$CFd?0?5?$CFd?0?$CFd?$AA@ DB 'M'
	DB	'ake Golden Crust : %d, %d,%d', 00H		; `string'
; Function compile flags: /Odtp /ZI
CONST	ENDS
_TEXT	SEGMENT
_MapNumber$ = -12					; size = 4
_n$ = -8						; size = 4
_this$ = -4						; size = 4
?RegenGoldenCrust@CEledoradoEvent@@QAEXXZ PROC		; CEledoradoEvent::RegenGoldenCrust
; _this$ = ecx

; 752  : {

  025e0	55		 push	 ebp
  025e1	8b ec		 mov	 ebp, esp
  025e3	83 ec 4c	 sub	 esp, 76			; 0000004cH
  025e6	53		 push	 ebx
  025e7	56		 push	 esi
  025e8	57		 push	 edi
  025e9	89 4d fc	 mov	 DWORD PTR _this$[ebp], ecx

; 753  : 	int n=0;

  025ec	c7 45 f8 00 00
	00 00		 mov	 DWORD PTR _n$[ebp], 0

; 754  : 	int MapNumber;
; 755  : 
; 756  : 	for (n=0;n<OBJ_MAXMONSTER;n++)

  025f3	c7 45 f8 00 00
	00 00		 mov	 DWORD PTR _n$[ebp], 0
  025fa	eb 09		 jmp	 SHORT $LN6@RegenGolde@4
$LN5@RegenGolde@4:
  025fc	8b 45 f8	 mov	 eax, DWORD PTR _n$[ebp]
  025ff	83 c0 01	 add	 eax, 1
  02602	89 45 f8	 mov	 DWORD PTR _n$[ebp], eax
$LN6@RegenGolde@4:
  02605	81 7d f8 c8 32
	00 00		 cmp	 DWORD PTR _n$[ebp], 13000 ; 000032c8H
  0260c	0f 8d 5e 02 00
	00		 jge	 $LN4@RegenGolde@4

; 757  : 	{
; 758  : 		if ( gObj[n].Class == 496 )	// 

  02612	8b 45 f8	 mov	 eax, DWORD PTR _n$[ebp]
  02615	69 c0 38 2b 00
	00		 imul	 eax, 11064		; 00002b38H
  0261b	8b 0d 00 00 00
	00		 mov	 ecx, DWORD PTR ?gObj@@3PAUOBJECTSTRUCT@@A ; gObj
  02621	0f b7 94 01 b8
	00 00 00	 movzx	 edx, WORD PTR [ecx+eax+184]
  02629	81 fa f0 01 00
	00		 cmp	 edx, 496		; 000001f0H
  0262f	0f 85 36 02 00
	00		 jne	 $LN3@RegenGolde@4

; 759  : 		{
; 760  : 			gObj[n].Live = TRUE;

  02635	8b 45 f8	 mov	 eax, DWORD PTR _n$[ebp]
  02638	69 c0 38 2b 00
	00		 imul	 eax, 11064		; 00002b38H
  0263e	8b 0d 00 00 00
	00		 mov	 ecx, DWORD PTR ?gObj@@3PAUOBJECTSTRUCT@@A ; gObj
  02644	c6 44 01 6a 01	 mov	 BYTE PTR [ecx+eax+106], 1

; 761  : 			MapNumber = MAP_INDEX_ICARUS;

  02649	c7 45 f4 0a 00
	00 00		 mov	 DWORD PTR _MapNumber$[ebp], 10 ; 0000000aH

; 762  : 			gObj[n].MapNumber = MapNumber;

  02650	8b 45 f8	 mov	 eax, DWORD PTR _n$[ebp]
  02653	69 c0 38 2b 00
	00		 imul	 eax, 11064		; 00002b38H
  02659	8b 0d 00 00 00
	00		 mov	 ecx, DWORD PTR ?gObj@@3PAUOBJECTSTRUCT@@A ; gObj
  0265f	8a 55 f4	 mov	 dl, BYTE PTR _MapNumber$[ebp]
  02662	88 94 01 49 01
	00 00		 mov	 BYTE PTR [ecx+eax+329], dl
$LN2@RegenGolde@4:

; 763  : 
; 764  : 			while ( gMSetBase.GetBoxPosition(MapNumber, 1, 1, 255, 255, gObj[n].X, gObj[n].Y) == 0 )

  02669	8b 45 f8	 mov	 eax, DWORD PTR _n$[ebp]
  0266c	69 c0 38 2b 00
	00		 imul	 eax, 11064		; 00002b38H
  02672	8b 0d 00 00 00
	00		 mov	 ecx, DWORD PTR ?gObj@@3PAUOBJECTSTRUCT@@A ; gObj
  02678	8d 94 01 46 01
	00 00		 lea	 edx, DWORD PTR [ecx+eax+326]
  0267f	52		 push	 edx
  02680	8b 45 f8	 mov	 eax, DWORD PTR _n$[ebp]
  02683	69 c0 38 2b 00
	00		 imul	 eax, 11064		; 00002b38H
  02689	8b 0d 00 00 00
	00		 mov	 ecx, DWORD PTR ?gObj@@3PAUOBJECTSTRUCT@@A ; gObj
  0268f	8d 94 01 44 01
	00 00		 lea	 edx, DWORD PTR [ecx+eax+324]
  02696	52		 push	 edx
  02697	68 ff 00 00 00	 push	 255			; 000000ffH
  0269c	68 ff 00 00 00	 push	 255			; 000000ffH
  026a1	6a 01		 push	 1
  026a3	6a 01		 push	 1
  026a5	8b 45 f4	 mov	 eax, DWORD PTR _MapNumber$[ebp]
  026a8	50		 push	 eax
  026a9	b9 00 00 00 00	 mov	 ecx, OFFSET ?gMSetBase@@3VCMonsterSetBase@@A ; gMSetBase
  026ae	e8 00 00 00 00	 call	 ?GetBoxPosition@CMonsterSetBase@@QAEHHHHHHAAF0@Z ; CMonsterSetBase::GetBoxPosition
  026b3	85 c0		 test	 eax, eax
  026b5	75 02		 jne	 SHORT $LN1@RegenGolde@4

; 765  : 			{
; 766  : 
; 767  : 			}

  026b7	eb b0		 jmp	 SHORT $LN2@RegenGolde@4
$LN1@RegenGolde@4:

; 768  : 
; 769  : 			gObj[n].Life = gObj[n].MaxLife;

  026b9	8b 45 f8	 mov	 eax, DWORD PTR _n$[ebp]
  026bc	69 c0 38 2b 00
	00		 imul	 eax, 11064		; 00002b38H
  026c2	8b 4d f8	 mov	 ecx, DWORD PTR _n$[ebp]
  026c5	69 c9 38 2b 00
	00		 imul	 ecx, 11064		; 00002b38H
  026cb	8b 15 00 00 00
	00		 mov	 edx, DWORD PTR ?gObj@@3PAUOBJECTSTRUCT@@A ; gObj
  026d1	8b 35 00 00 00
	00		 mov	 esi, DWORD PTR ?gObj@@3PAUOBJECTSTRUCT@@A ; gObj
  026d7	d9 84 06 00 01
	00 00		 fld	 DWORD PTR [esi+eax+256]
  026de	d9 9c 0a fc 00
	00 00		 fstp	 DWORD PTR [edx+ecx+252]

; 770  : 			gObj[n].TX = gObj[n].X;

  026e5	8b 45 f8	 mov	 eax, DWORD PTR _n$[ebp]
  026e8	69 c0 38 2b 00
	00		 imul	 eax, 11064		; 00002b38H
  026ee	8b 4d f8	 mov	 ecx, DWORD PTR _n$[ebp]
  026f1	69 c9 38 2b 00
	00		 imul	 ecx, 11064		; 00002b38H
  026f7	8b 15 00 00 00
	00		 mov	 edx, DWORD PTR ?gObj@@3PAUOBJECTSTRUCT@@A ; gObj
  026fd	8b 35 00 00 00
	00		 mov	 esi, DWORD PTR ?gObj@@3PAUOBJECTSTRUCT@@A ; gObj
  02703	66 8b 84 06 44
	01 00 00	 mov	 ax, WORD PTR [esi+eax+324]
  0270b	66 89 84 0a 7c
	01 00 00	 mov	 WORD PTR [edx+ecx+380], ax

; 771  : 			gObj[n].TY = gObj[n].Y;

  02713	8b 45 f8	 mov	 eax, DWORD PTR _n$[ebp]
  02716	69 c0 38 2b 00
	00		 imul	 eax, 11064		; 00002b38H
  0271c	8b 4d f8	 mov	 ecx, DWORD PTR _n$[ebp]
  0271f	69 c9 38 2b 00
	00		 imul	 ecx, 11064		; 00002b38H
  02725	8b 15 00 00 00
	00		 mov	 edx, DWORD PTR ?gObj@@3PAUOBJECTSTRUCT@@A ; gObj
  0272b	8b 35 00 00 00
	00		 mov	 esi, DWORD PTR ?gObj@@3PAUOBJECTSTRUCT@@A ; gObj
  02731	66 8b 84 06 46
	01 00 00	 mov	 ax, WORD PTR [esi+eax+326]
  02739	66 89 84 0a 7e
	01 00 00	 mov	 WORD PTR [edx+ecx+382], ax

; 772  : 			gObj[n].MTX = gObj[n].X;

  02741	8b 45 f8	 mov	 eax, DWORD PTR _n$[ebp]
  02744	69 c0 38 2b 00
	00		 imul	 eax, 11064		; 00002b38H
  0274a	8b 4d f8	 mov	 ecx, DWORD PTR _n$[ebp]
  0274d	69 c9 38 2b 00
	00		 imul	 ecx, 11064		; 00002b38H
  02753	8b 15 00 00 00
	00		 mov	 edx, DWORD PTR ?gObj@@3PAUOBJECTSTRUCT@@A ; gObj
  02759	8b 35 00 00 00
	00		 mov	 esi, DWORD PTR ?gObj@@3PAUOBJECTSTRUCT@@A ; gObj
  0275f	66 8b 84 06 44
	01 00 00	 mov	 ax, WORD PTR [esi+eax+324]
  02767	66 89 84 0a 80
	01 00 00	 mov	 WORD PTR [edx+ecx+384], ax

; 773  : 			gObj[n].MTY = gObj[n].Y;

  0276f	8b 45 f8	 mov	 eax, DWORD PTR _n$[ebp]
  02772	69 c0 38 2b 00
	00		 imul	 eax, 11064		; 00002b38H
  02778	8b 4d f8	 mov	 ecx, DWORD PTR _n$[ebp]
  0277b	69 c9 38 2b 00
	00		 imul	 ecx, 11064		; 00002b38H
  02781	8b 15 00 00 00
	00		 mov	 edx, DWORD PTR ?gObj@@3PAUOBJECTSTRUCT@@A ; gObj
  02787	8b 35 00 00 00
	00		 mov	 esi, DWORD PTR ?gObj@@3PAUOBJECTSTRUCT@@A ; gObj
  0278d	66 8b 84 06 46
	01 00 00	 mov	 ax, WORD PTR [esi+eax+326]
  02795	66 89 84 0a 82
	01 00 00	 mov	 WORD PTR [edx+ecx+386], ax

; 774  : 			gObj[n].StartX = gObj[n].X;

  0279d	8b 45 f8	 mov	 eax, DWORD PTR _n$[ebp]
  027a0	69 c0 38 2b 00
	00		 imul	 eax, 11064		; 00002b38H
  027a6	8b 4d f8	 mov	 ecx, DWORD PTR _n$[ebp]
  027a9	69 c9 38 2b 00
	00		 imul	 ecx, 11064		; 00002b38H
  027af	8b 15 00 00 00
	00		 mov	 edx, DWORD PTR ?gObj@@3PAUOBJECTSTRUCT@@A ; gObj
  027b5	8b 35 00 00 00
	00		 mov	 esi, DWORD PTR ?gObj@@3PAUOBJECTSTRUCT@@A ; gObj
  027bb	8a 84 06 44 01
	00 00		 mov	 al, BYTE PTR [esi+eax+324]
  027c2	88 84 0a 76 01
	00 00		 mov	 BYTE PTR [edx+ecx+374], al

; 775  : 			gObj[n].StartY = gObj[n].Y;

  027c9	8b 45 f8	 mov	 eax, DWORD PTR _n$[ebp]
  027cc	69 c0 38 2b 00
	00		 imul	 eax, 11064		; 00002b38H
  027d2	8b 4d f8	 mov	 ecx, DWORD PTR _n$[ebp]
  027d5	69 c9 38 2b 00
	00		 imul	 ecx, 11064		; 00002b38H
  027db	8b 15 00 00 00
	00		 mov	 edx, DWORD PTR ?gObj@@3PAUOBJECTSTRUCT@@A ; gObj
  027e1	8b 35 00 00 00
	00		 mov	 esi, DWORD PTR ?gObj@@3PAUOBJECTSTRUCT@@A ; gObj
  027e7	8a 84 06 46 01
	00 00		 mov	 al, BYTE PTR [esi+eax+326]
  027ee	88 84 0a 77 01
	00 00		 mov	 BYTE PTR [edx+ecx+375], al

; 776  : 
; 777  : 
; 778  : 			gObj[n].m_State = 1;

  027f5	8b 45 f8	 mov	 eax, DWORD PTR _n$[ebp]
  027f8	69 c0 38 2b 00
	00		 imul	 eax, 11064		; 00002b38H
  027fe	8b 0d 00 00 00
	00		 mov	 ecx, DWORD PTR ?gObj@@3PAUOBJECTSTRUCT@@A ; gObj
  02804	c7 84 01 20 02
	00 00 01 00 00
	00		 mov	 DWORD PTR [ecx+eax+544], 1

; 779  : 			gObj[n].PathCount = 0;

  0280f	8b 45 f8	 mov	 eax, DWORD PTR _n$[ebp]
  02812	69 c0 38 2b 00
	00		 imul	 eax, 11064		; 00002b38H
  02818	8b 0d 00 00 00
	00		 mov	 ecx, DWORD PTR ?gObj@@3PAUOBJECTSTRUCT@@A ; gObj
  0281e	c7 84 01 84 01
	00 00 00 00 00
	00		 mov	 DWORD PTR [ecx+eax+388], 0

; 780  : 
; 781  : 			LogAddTD("Make Golden Crust : %d, %d,%d",
; 782  : 				MapNumber, gObj[n].X, gObj[n].Y);

  02829	8b 45 f8	 mov	 eax, DWORD PTR _n$[ebp]
  0282c	69 c0 38 2b 00
	00		 imul	 eax, 11064		; 00002b38H
  02832	8b 0d 00 00 00
	00		 mov	 ecx, DWORD PTR ?gObj@@3PAUOBJECTSTRUCT@@A ; gObj
  02838	0f bf 94 01 46
	01 00 00	 movsx	 edx, WORD PTR [ecx+eax+326]
  02840	52		 push	 edx
  02841	8b 45 f8	 mov	 eax, DWORD PTR _n$[ebp]
  02844	69 c0 38 2b 00
	00		 imul	 eax, 11064		; 00002b38H
  0284a	8b 0d 00 00 00
	00		 mov	 ecx, DWORD PTR ?gObj@@3PAUOBJECTSTRUCT@@A ; gObj
  02850	0f bf 94 01 44
	01 00 00	 movsx	 edx, WORD PTR [ecx+eax+324]
  02858	52		 push	 edx
  02859	8b 45 f4	 mov	 eax, DWORD PTR _MapNumber$[ebp]
  0285c	50		 push	 eax
  0285d	68 00 00 00 00	 push	 OFFSET ??_C@_0BO@PPKNDGHB@Make?5Golden?5Crust?5?3?5?$CFd?0?5?$CFd?0?$CFd?$AA@
  02862	ff 15 00 00 00
	00		 call	 DWORD PTR ?LogAddTD@@3P6AXPADZZA ; LogAddTD
  02868	83 c4 10	 add	 esp, 16			; 00000010H
$LN3@RegenGolde@4:

; 783  : 		}
; 784  : 	}

  0286b	e9 8c fd ff ff	 jmp	 $LN5@RegenGolde@4
$LN4@RegenGolde@4:

; 785  : }

  02870	5f		 pop	 edi
  02871	5e		 pop	 esi
  02872	5b		 pop	 ebx
  02873	8b e5		 mov	 esp, ebp
  02875	5d		 pop	 ebp
  02876	c3		 ret	 0
?RegenGoldenCrust@CEledoradoEvent@@QAEXXZ ENDP		; CEledoradoEvent::RegenGoldenCrust
_TEXT	ENDS
PUBLIC	??_C@_0CA@KKDIEMFO@Make?5Golden?5Satiros?5?3?5?$CFd?0?5?$CFd?0?$CFd?$AA@ ; `string'
;	COMDAT ??_C@_0CA@KKDIEMFO@Make?5Golden?5Satiros?5?3?5?$CFd?0?5?$CFd?0?$CFd?$AA@
CONST	SEGMENT
??_C@_0CA@KKDIEMFO@Make?5Golden?5Satiros?5?3?5?$CFd?0?5?$CFd?0?$CFd?$AA@ DB 'M'
	DB	'ake Golden Satiros : %d, %d,%d', 00H	; `string'
; Function compile flags: /Odtp /ZI
CONST	ENDS
_TEXT	SEGMENT
_MapNumber$ = -12					; size = 4
_n$ = -8						; size = 4
_this$ = -4						; size = 4
?RegenGoldenSatiros@CEledoradoEvent@@QAEXXZ PROC	; CEledoradoEvent::RegenGoldenSatiros
; _this$ = ecx

; 788  : {

  02880	55		 push	 ebp
  02881	8b ec		 mov	 ebp, esp
  02883	83 ec 4c	 sub	 esp, 76			; 0000004cH
  02886	53		 push	 ebx
  02887	56		 push	 esi
  02888	57		 push	 edi
  02889	89 4d fc	 mov	 DWORD PTR _this$[ebp], ecx

; 789  : 	int n=0;

  0288c	c7 45 f8 00 00
	00 00		 mov	 DWORD PTR _n$[ebp], 0

; 790  : 	int MapNumber;
; 791  : 
; 792  : 	for (n=0;n<OBJ_MAXMONSTER;n++)

  02893	c7 45 f8 00 00
	00 00		 mov	 DWORD PTR _n$[ebp], 0
  0289a	eb 09		 jmp	 SHORT $LN6@RegenGolde@5
$LN5@RegenGolde@5:
  0289c	8b 45 f8	 mov	 eax, DWORD PTR _n$[ebp]
  0289f	83 c0 01	 add	 eax, 1
  028a2	89 45 f8	 mov	 DWORD PTR _n$[ebp], eax
$LN6@RegenGolde@5:
  028a5	81 7d f8 c8 32
	00 00		 cmp	 DWORD PTR _n$[ebp], 13000 ; 000032c8H
  028ac	0f 8d 5e 02 00
	00		 jge	 $LN4@RegenGolde@5

; 793  : 	{
; 794  : 		if ( gObj[n].Class == 497 )	// 

  028b2	8b 45 f8	 mov	 eax, DWORD PTR _n$[ebp]
  028b5	69 c0 38 2b 00
	00		 imul	 eax, 11064		; 00002b38H
  028bb	8b 0d 00 00 00
	00		 mov	 ecx, DWORD PTR ?gObj@@3PAUOBJECTSTRUCT@@A ; gObj
  028c1	0f b7 94 01 b8
	00 00 00	 movzx	 edx, WORD PTR [ecx+eax+184]
  028c9	81 fa f1 01 00
	00		 cmp	 edx, 497		; 000001f1H
  028cf	0f 85 36 02 00
	00		 jne	 $LN3@RegenGolde@5

; 795  : 		{
; 796  : 			gObj[n].Live = TRUE;

  028d5	8b 45 f8	 mov	 eax, DWORD PTR _n$[ebp]
  028d8	69 c0 38 2b 00
	00		 imul	 eax, 11064		; 00002b38H
  028de	8b 0d 00 00 00
	00		 mov	 ecx, DWORD PTR ?gObj@@3PAUOBJECTSTRUCT@@A ; gObj
  028e4	c6 44 01 6a 01	 mov	 BYTE PTR [ecx+eax+106], 1

; 797  : 			MapNumber = MAP_INDEX_KANTURU1;

  028e9	c7 45 f4 25 00
	00 00		 mov	 DWORD PTR _MapNumber$[ebp], 37 ; 00000025H

; 798  : 			gObj[n].MapNumber = MapNumber;

  028f0	8b 45 f8	 mov	 eax, DWORD PTR _n$[ebp]
  028f3	69 c0 38 2b 00
	00		 imul	 eax, 11064		; 00002b38H
  028f9	8b 0d 00 00 00
	00		 mov	 ecx, DWORD PTR ?gObj@@3PAUOBJECTSTRUCT@@A ; gObj
  028ff	8a 55 f4	 mov	 dl, BYTE PTR _MapNumber$[ebp]
  02902	88 94 01 49 01
	00 00		 mov	 BYTE PTR [ecx+eax+329], dl
$LN2@RegenGolde@5:

; 799  : 
; 800  : 			while ( gMSetBase.GetBoxPosition(MapNumber, 1, 1, 255, 255, gObj[n].X, gObj[n].Y) == 0 )

  02909	8b 45 f8	 mov	 eax, DWORD PTR _n$[ebp]
  0290c	69 c0 38 2b 00
	00		 imul	 eax, 11064		; 00002b38H
  02912	8b 0d 00 00 00
	00		 mov	 ecx, DWORD PTR ?gObj@@3PAUOBJECTSTRUCT@@A ; gObj
  02918	8d 94 01 46 01
	00 00		 lea	 edx, DWORD PTR [ecx+eax+326]
  0291f	52		 push	 edx
  02920	8b 45 f8	 mov	 eax, DWORD PTR _n$[ebp]
  02923	69 c0 38 2b 00
	00		 imul	 eax, 11064		; 00002b38H
  02929	8b 0d 00 00 00
	00		 mov	 ecx, DWORD PTR ?gObj@@3PAUOBJECTSTRUCT@@A ; gObj
  0292f	8d 94 01 44 01
	00 00		 lea	 edx, DWORD PTR [ecx+eax+324]
  02936	52		 push	 edx
  02937	68 ff 00 00 00	 push	 255			; 000000ffH
  0293c	68 ff 00 00 00	 push	 255			; 000000ffH
  02941	6a 01		 push	 1
  02943	6a 01		 push	 1
  02945	8b 45 f4	 mov	 eax, DWORD PTR _MapNumber$[ebp]
  02948	50		 push	 eax
  02949	b9 00 00 00 00	 mov	 ecx, OFFSET ?gMSetBase@@3VCMonsterSetBase@@A ; gMSetBase
  0294e	e8 00 00 00 00	 call	 ?GetBoxPosition@CMonsterSetBase@@QAEHHHHHHAAF0@Z ; CMonsterSetBase::GetBoxPosition
  02953	85 c0		 test	 eax, eax
  02955	75 02		 jne	 SHORT $LN1@RegenGolde@5

; 801  : 			{
; 802  : 
; 803  : 			}

  02957	eb b0		 jmp	 SHORT $LN2@RegenGolde@5
$LN1@RegenGolde@5:

; 804  : 
; 805  : 			gObj[n].Life = gObj[n].MaxLife;

  02959	8b 45 f8	 mov	 eax, DWORD PTR _n$[ebp]
  0295c	69 c0 38 2b 00
	00		 imul	 eax, 11064		; 00002b38H
  02962	8b 4d f8	 mov	 ecx, DWORD PTR _n$[ebp]
  02965	69 c9 38 2b 00
	00		 imul	 ecx, 11064		; 00002b38H
  0296b	8b 15 00 00 00
	00		 mov	 edx, DWORD PTR ?gObj@@3PAUOBJECTSTRUCT@@A ; gObj
  02971	8b 35 00 00 00
	00		 mov	 esi, DWORD PTR ?gObj@@3PAUOBJECTSTRUCT@@A ; gObj
  02977	d9 84 06 00 01
	00 00		 fld	 DWORD PTR [esi+eax+256]
  0297e	d9 9c 0a fc 00
	00 00		 fstp	 DWORD PTR [edx+ecx+252]

; 806  : 			gObj[n].TX = gObj[n].X;

  02985	8b 45 f8	 mov	 eax, DWORD PTR _n$[ebp]
  02988	69 c0 38 2b 00
	00		 imul	 eax, 11064		; 00002b38H
  0298e	8b 4d f8	 mov	 ecx, DWORD PTR _n$[ebp]
  02991	69 c9 38 2b 00
	00		 imul	 ecx, 11064		; 00002b38H
  02997	8b 15 00 00 00
	00		 mov	 edx, DWORD PTR ?gObj@@3PAUOBJECTSTRUCT@@A ; gObj
  0299d	8b 35 00 00 00
	00		 mov	 esi, DWORD PTR ?gObj@@3PAUOBJECTSTRUCT@@A ; gObj
  029a3	66 8b 84 06 44
	01 00 00	 mov	 ax, WORD PTR [esi+eax+324]
  029ab	66 89 84 0a 7c
	01 00 00	 mov	 WORD PTR [edx+ecx+380], ax

; 807  : 			gObj[n].TY = gObj[n].Y;

  029b3	8b 45 f8	 mov	 eax, DWORD PTR _n$[ebp]
  029b6	69 c0 38 2b 00
	00		 imul	 eax, 11064		; 00002b38H
  029bc	8b 4d f8	 mov	 ecx, DWORD PTR _n$[ebp]
  029bf	69 c9 38 2b 00
	00		 imul	 ecx, 11064		; 00002b38H
  029c5	8b 15 00 00 00
	00		 mov	 edx, DWORD PTR ?gObj@@3PAUOBJECTSTRUCT@@A ; gObj
  029cb	8b 35 00 00 00
	00		 mov	 esi, DWORD PTR ?gObj@@3PAUOBJECTSTRUCT@@A ; gObj
  029d1	66 8b 84 06 46
	01 00 00	 mov	 ax, WORD PTR [esi+eax+326]
  029d9	66 89 84 0a 7e
	01 00 00	 mov	 WORD PTR [edx+ecx+382], ax

; 808  : 			gObj[n].MTX = gObj[n].X;

  029e1	8b 45 f8	 mov	 eax, DWORD PTR _n$[ebp]
  029e4	69 c0 38 2b 00
	00		 imul	 eax, 11064		; 00002b38H
  029ea	8b 4d f8	 mov	 ecx, DWORD PTR _n$[ebp]
  029ed	69 c9 38 2b 00
	00		 imul	 ecx, 11064		; 00002b38H
  029f3	8b 15 00 00 00
	00		 mov	 edx, DWORD PTR ?gObj@@3PAUOBJECTSTRUCT@@A ; gObj
  029f9	8b 35 00 00 00
	00		 mov	 esi, DWORD PTR ?gObj@@3PAUOBJECTSTRUCT@@A ; gObj
  029ff	66 8b 84 06 44
	01 00 00	 mov	 ax, WORD PTR [esi+eax+324]
  02a07	66 89 84 0a 80
	01 00 00	 mov	 WORD PTR [edx+ecx+384], ax

; 809  : 			gObj[n].MTY = gObj[n].Y;

  02a0f	8b 45 f8	 mov	 eax, DWORD PTR _n$[ebp]
  02a12	69 c0 38 2b 00
	00		 imul	 eax, 11064		; 00002b38H
  02a18	8b 4d f8	 mov	 ecx, DWORD PTR _n$[ebp]
  02a1b	69 c9 38 2b 00
	00		 imul	 ecx, 11064		; 00002b38H
  02a21	8b 15 00 00 00
	00		 mov	 edx, DWORD PTR ?gObj@@3PAUOBJECTSTRUCT@@A ; gObj
  02a27	8b 35 00 00 00
	00		 mov	 esi, DWORD PTR ?gObj@@3PAUOBJECTSTRUCT@@A ; gObj
  02a2d	66 8b 84 06 46
	01 00 00	 mov	 ax, WORD PTR [esi+eax+326]
  02a35	66 89 84 0a 82
	01 00 00	 mov	 WORD PTR [edx+ecx+386], ax

; 810  : 			gObj[n].StartX = gObj[n].X;

  02a3d	8b 45 f8	 mov	 eax, DWORD PTR _n$[ebp]
  02a40	69 c0 38 2b 00
	00		 imul	 eax, 11064		; 00002b38H
  02a46	8b 4d f8	 mov	 ecx, DWORD PTR _n$[ebp]
  02a49	69 c9 38 2b 00
	00		 imul	 ecx, 11064		; 00002b38H
  02a4f	8b 15 00 00 00
	00		 mov	 edx, DWORD PTR ?gObj@@3PAUOBJECTSTRUCT@@A ; gObj
  02a55	8b 35 00 00 00
	00		 mov	 esi, DWORD PTR ?gObj@@3PAUOBJECTSTRUCT@@A ; gObj
  02a5b	8a 84 06 44 01
	00 00		 mov	 al, BYTE PTR [esi+eax+324]
  02a62	88 84 0a 76 01
	00 00		 mov	 BYTE PTR [edx+ecx+374], al

; 811  : 			gObj[n].StartY = gObj[n].Y;

  02a69	8b 45 f8	 mov	 eax, DWORD PTR _n$[ebp]
  02a6c	69 c0 38 2b 00
	00		 imul	 eax, 11064		; 00002b38H
  02a72	8b 4d f8	 mov	 ecx, DWORD PTR _n$[ebp]
  02a75	69 c9 38 2b 00
	00		 imul	 ecx, 11064		; 00002b38H
  02a7b	8b 15 00 00 00
	00		 mov	 edx, DWORD PTR ?gObj@@3PAUOBJECTSTRUCT@@A ; gObj
  02a81	8b 35 00 00 00
	00		 mov	 esi, DWORD PTR ?gObj@@3PAUOBJECTSTRUCT@@A ; gObj
  02a87	8a 84 06 46 01
	00 00		 mov	 al, BYTE PTR [esi+eax+326]
  02a8e	88 84 0a 77 01
	00 00		 mov	 BYTE PTR [edx+ecx+375], al

; 812  : 
; 813  : 
; 814  : 			gObj[n].m_State = 1;

  02a95	8b 45 f8	 mov	 eax, DWORD PTR _n$[ebp]
  02a98	69 c0 38 2b 00
	00		 imul	 eax, 11064		; 00002b38H
  02a9e	8b 0d 00 00 00
	00		 mov	 ecx, DWORD PTR ?gObj@@3PAUOBJECTSTRUCT@@A ; gObj
  02aa4	c7 84 01 20 02
	00 00 01 00 00
	00		 mov	 DWORD PTR [ecx+eax+544], 1

; 815  : 			gObj[n].PathCount = 0;

  02aaf	8b 45 f8	 mov	 eax, DWORD PTR _n$[ebp]
  02ab2	69 c0 38 2b 00
	00		 imul	 eax, 11064		; 00002b38H
  02ab8	8b 0d 00 00 00
	00		 mov	 ecx, DWORD PTR ?gObj@@3PAUOBJECTSTRUCT@@A ; gObj
  02abe	c7 84 01 84 01
	00 00 00 00 00
	00		 mov	 DWORD PTR [ecx+eax+388], 0

; 816  : 
; 817  : 			LogAddTD("Make Golden Satiros : %d, %d,%d",
; 818  : 				MapNumber, gObj[n].X, gObj[n].Y);

  02ac9	8b 45 f8	 mov	 eax, DWORD PTR _n$[ebp]
  02acc	69 c0 38 2b 00
	00		 imul	 eax, 11064		; 00002b38H
  02ad2	8b 0d 00 00 00
	00		 mov	 ecx, DWORD PTR ?gObj@@3PAUOBJECTSTRUCT@@A ; gObj
  02ad8	0f bf 94 01 46
	01 00 00	 movsx	 edx, WORD PTR [ecx+eax+326]
  02ae0	52		 push	 edx
  02ae1	8b 45 f8	 mov	 eax, DWORD PTR _n$[ebp]
  02ae4	69 c0 38 2b 00
	00		 imul	 eax, 11064		; 00002b38H
  02aea	8b 0d 00 00 00
	00		 mov	 ecx, DWORD PTR ?gObj@@3PAUOBJECTSTRUCT@@A ; gObj
  02af0	0f bf 94 01 44
	01 00 00	 movsx	 edx, WORD PTR [ecx+eax+324]
  02af8	52		 push	 edx
  02af9	8b 45 f4	 mov	 eax, DWORD PTR _MapNumber$[ebp]
  02afc	50		 push	 eax
  02afd	68 00 00 00 00	 push	 OFFSET ??_C@_0CA@KKDIEMFO@Make?5Golden?5Satiros?5?3?5?$CFd?0?5?$CFd?0?$CFd?$AA@
  02b02	ff 15 00 00 00
	00		 call	 DWORD PTR ?LogAddTD@@3P6AXPADZZA ; LogAddTD
  02b08	83 c4 10	 add	 esp, 16			; 00000010H
$LN3@RegenGolde@5:

; 819  : 		}
; 820  : 	}

  02b0b	e9 8c fd ff ff	 jmp	 $LN5@RegenGolde@5
$LN4@RegenGolde@5:

; 821  : }

  02b10	5f		 pop	 edi
  02b11	5e		 pop	 esi
  02b12	5b		 pop	 ebx
  02b13	8b e5		 mov	 esp, ebp
  02b15	5d		 pop	 ebp
  02b16	c3		 ret	 0
?RegenGoldenSatiros@CEledoradoEvent@@QAEXXZ ENDP	; CEledoradoEvent::RegenGoldenSatiros
_TEXT	ENDS
PUBLIC	??_C@_0CB@CCGIMCLF@Make?5Golden?5Twintail?5?3?5?$CFd?0?5?$CFd?0?$CFd@ ; `string'
;	COMDAT ??_C@_0CB@CCGIMCLF@Make?5Golden?5Twintail?5?3?5?$CFd?0?5?$CFd?0?$CFd@
CONST	SEGMENT
??_C@_0CB@CCGIMCLF@Make?5Golden?5Twintail?5?3?5?$CFd?0?5?$CFd?0?$CFd@ DB 'M'
	DB	'ake Golden Twintail : %d, %d,%d', 00H	; `string'
; Function compile flags: /Odtp /ZI
CONST	ENDS
_TEXT	SEGMENT
_MapNumber$ = -12					; size = 4
_n$ = -8						; size = 4
_this$ = -4						; size = 4
?RegenGoldenTwintail@CEledoradoEvent@@QAEXXZ PROC	; CEledoradoEvent::RegenGoldenTwintail
; _this$ = ecx

; 824  : {

  02b20	55		 push	 ebp
  02b21	8b ec		 mov	 ebp, esp
  02b23	83 ec 4c	 sub	 esp, 76			; 0000004cH
  02b26	53		 push	 ebx
  02b27	56		 push	 esi
  02b28	57		 push	 edi
  02b29	89 4d fc	 mov	 DWORD PTR _this$[ebp], ecx

; 825  : 	int n=0;

  02b2c	c7 45 f8 00 00
	00 00		 mov	 DWORD PTR _n$[ebp], 0

; 826  : 	int MapNumber;
; 827  : 
; 828  : 	for (n=0;n<OBJ_MAXMONSTER;n++)

  02b33	c7 45 f8 00 00
	00 00		 mov	 DWORD PTR _n$[ebp], 0
  02b3a	eb 09		 jmp	 SHORT $LN6@RegenGolde@6
$LN5@RegenGolde@6:
  02b3c	8b 45 f8	 mov	 eax, DWORD PTR _n$[ebp]
  02b3f	83 c0 01	 add	 eax, 1
  02b42	89 45 f8	 mov	 DWORD PTR _n$[ebp], eax
$LN6@RegenGolde@6:
  02b45	81 7d f8 c8 32
	00 00		 cmp	 DWORD PTR _n$[ebp], 13000 ; 000032c8H
  02b4c	0f 8d 5e 02 00
	00		 jge	 $LN4@RegenGolde@6

; 829  : 	{
; 830  : 		if ( gObj[n].Class == 498 )	// 

  02b52	8b 45 f8	 mov	 eax, DWORD PTR _n$[ebp]
  02b55	69 c0 38 2b 00
	00		 imul	 eax, 11064		; 00002b38H
  02b5b	8b 0d 00 00 00
	00		 mov	 ecx, DWORD PTR ?gObj@@3PAUOBJECTSTRUCT@@A ; gObj
  02b61	0f b7 94 01 b8
	00 00 00	 movzx	 edx, WORD PTR [ecx+eax+184]
  02b69	81 fa f2 01 00
	00		 cmp	 edx, 498		; 000001f2H
  02b6f	0f 85 36 02 00
	00		 jne	 $LN3@RegenGolde@6

; 831  : 		{
; 832  : 			gObj[n].Live = TRUE;

  02b75	8b 45 f8	 mov	 eax, DWORD PTR _n$[ebp]
  02b78	69 c0 38 2b 00
	00		 imul	 eax, 11064		; 00002b38H
  02b7e	8b 0d 00 00 00
	00		 mov	 ecx, DWORD PTR ?gObj@@3PAUOBJECTSTRUCT@@A ; gObj
  02b84	c6 44 01 6a 01	 mov	 BYTE PTR [ecx+eax+106], 1

; 833  : 			MapNumber = MAP_INDEX_KANTURU2;

  02b89	c7 45 f4 26 00
	00 00		 mov	 DWORD PTR _MapNumber$[ebp], 38 ; 00000026H

; 834  : 			gObj[n].MapNumber = MapNumber;

  02b90	8b 45 f8	 mov	 eax, DWORD PTR _n$[ebp]
  02b93	69 c0 38 2b 00
	00		 imul	 eax, 11064		; 00002b38H
  02b99	8b 0d 00 00 00
	00		 mov	 ecx, DWORD PTR ?gObj@@3PAUOBJECTSTRUCT@@A ; gObj
  02b9f	8a 55 f4	 mov	 dl, BYTE PTR _MapNumber$[ebp]
  02ba2	88 94 01 49 01
	00 00		 mov	 BYTE PTR [ecx+eax+329], dl
$LN2@RegenGolde@6:

; 835  : 
; 836  : 			while ( gMSetBase.GetBoxPosition(MapNumber, 1, 1, 255, 255, gObj[n].X, gObj[n].Y) == 0 )

  02ba9	8b 45 f8	 mov	 eax, DWORD PTR _n$[ebp]
  02bac	69 c0 38 2b 00
	00		 imul	 eax, 11064		; 00002b38H
  02bb2	8b 0d 00 00 00
	00		 mov	 ecx, DWORD PTR ?gObj@@3PAUOBJECTSTRUCT@@A ; gObj
  02bb8	8d 94 01 46 01
	00 00		 lea	 edx, DWORD PTR [ecx+eax+326]
  02bbf	52		 push	 edx
  02bc0	8b 45 f8	 mov	 eax, DWORD PTR _n$[ebp]
  02bc3	69 c0 38 2b 00
	00		 imul	 eax, 11064		; 00002b38H
  02bc9	8b 0d 00 00 00
	00		 mov	 ecx, DWORD PTR ?gObj@@3PAUOBJECTSTRUCT@@A ; gObj
  02bcf	8d 94 01 44 01
	00 00		 lea	 edx, DWORD PTR [ecx+eax+324]
  02bd6	52		 push	 edx
  02bd7	68 ff 00 00 00	 push	 255			; 000000ffH
  02bdc	68 ff 00 00 00	 push	 255			; 000000ffH
  02be1	6a 01		 push	 1
  02be3	6a 01		 push	 1
  02be5	8b 45 f4	 mov	 eax, DWORD PTR _MapNumber$[ebp]
  02be8	50		 push	 eax
  02be9	b9 00 00 00 00	 mov	 ecx, OFFSET ?gMSetBase@@3VCMonsterSetBase@@A ; gMSetBase
  02bee	e8 00 00 00 00	 call	 ?GetBoxPosition@CMonsterSetBase@@QAEHHHHHHAAF0@Z ; CMonsterSetBase::GetBoxPosition
  02bf3	85 c0		 test	 eax, eax
  02bf5	75 02		 jne	 SHORT $LN1@RegenGolde@6

; 837  : 			{
; 838  : 
; 839  : 			}

  02bf7	eb b0		 jmp	 SHORT $LN2@RegenGolde@6
$LN1@RegenGolde@6:

; 840  : 
; 841  : 			gObj[n].Life = gObj[n].MaxLife;

  02bf9	8b 45 f8	 mov	 eax, DWORD PTR _n$[ebp]
  02bfc	69 c0 38 2b 00
	00		 imul	 eax, 11064		; 00002b38H
  02c02	8b 4d f8	 mov	 ecx, DWORD PTR _n$[ebp]
  02c05	69 c9 38 2b 00
	00		 imul	 ecx, 11064		; 00002b38H
  02c0b	8b 15 00 00 00
	00		 mov	 edx, DWORD PTR ?gObj@@3PAUOBJECTSTRUCT@@A ; gObj
  02c11	8b 35 00 00 00
	00		 mov	 esi, DWORD PTR ?gObj@@3PAUOBJECTSTRUCT@@A ; gObj
  02c17	d9 84 06 00 01
	00 00		 fld	 DWORD PTR [esi+eax+256]
  02c1e	d9 9c 0a fc 00
	00 00		 fstp	 DWORD PTR [edx+ecx+252]

; 842  : 			gObj[n].TX = gObj[n].X;

  02c25	8b 45 f8	 mov	 eax, DWORD PTR _n$[ebp]
  02c28	69 c0 38 2b 00
	00		 imul	 eax, 11064		; 00002b38H
  02c2e	8b 4d f8	 mov	 ecx, DWORD PTR _n$[ebp]
  02c31	69 c9 38 2b 00
	00		 imul	 ecx, 11064		; 00002b38H
  02c37	8b 15 00 00 00
	00		 mov	 edx, DWORD PTR ?gObj@@3PAUOBJECTSTRUCT@@A ; gObj
  02c3d	8b 35 00 00 00
	00		 mov	 esi, DWORD PTR ?gObj@@3PAUOBJECTSTRUCT@@A ; gObj
  02c43	66 8b 84 06 44
	01 00 00	 mov	 ax, WORD PTR [esi+eax+324]
  02c4b	66 89 84 0a 7c
	01 00 00	 mov	 WORD PTR [edx+ecx+380], ax

; 843  : 			gObj[n].TY = gObj[n].Y;

  02c53	8b 45 f8	 mov	 eax, DWORD PTR _n$[ebp]
  02c56	69 c0 38 2b 00
	00		 imul	 eax, 11064		; 00002b38H
  02c5c	8b 4d f8	 mov	 ecx, DWORD PTR _n$[ebp]
  02c5f	69 c9 38 2b 00
	00		 imul	 ecx, 11064		; 00002b38H
  02c65	8b 15 00 00 00
	00		 mov	 edx, DWORD PTR ?gObj@@3PAUOBJECTSTRUCT@@A ; gObj
  02c6b	8b 35 00 00 00
	00		 mov	 esi, DWORD PTR ?gObj@@3PAUOBJECTSTRUCT@@A ; gObj
  02c71	66 8b 84 06 46
	01 00 00	 mov	 ax, WORD PTR [esi+eax+326]
  02c79	66 89 84 0a 7e
	01 00 00	 mov	 WORD PTR [edx+ecx+382], ax

; 844  : 			gObj[n].MTX = gObj[n].X;

  02c81	8b 45 f8	 mov	 eax, DWORD PTR _n$[ebp]
  02c84	69 c0 38 2b 00
	00		 imul	 eax, 11064		; 00002b38H
  02c8a	8b 4d f8	 mov	 ecx, DWORD PTR _n$[ebp]
  02c8d	69 c9 38 2b 00
	00		 imul	 ecx, 11064		; 00002b38H
  02c93	8b 15 00 00 00
	00		 mov	 edx, DWORD PTR ?gObj@@3PAUOBJECTSTRUCT@@A ; gObj
  02c99	8b 35 00 00 00
	00		 mov	 esi, DWORD PTR ?gObj@@3PAUOBJECTSTRUCT@@A ; gObj
  02c9f	66 8b 84 06 44
	01 00 00	 mov	 ax, WORD PTR [esi+eax+324]
  02ca7	66 89 84 0a 80
	01 00 00	 mov	 WORD PTR [edx+ecx+384], ax

; 845  : 			gObj[n].MTY = gObj[n].Y;

  02caf	8b 45 f8	 mov	 eax, DWORD PTR _n$[ebp]
  02cb2	69 c0 38 2b 00
	00		 imul	 eax, 11064		; 00002b38H
  02cb8	8b 4d f8	 mov	 ecx, DWORD PTR _n$[ebp]
  02cbb	69 c9 38 2b 00
	00		 imul	 ecx, 11064		; 00002b38H
  02cc1	8b 15 00 00 00
	00		 mov	 edx, DWORD PTR ?gObj@@3PAUOBJECTSTRUCT@@A ; gObj
  02cc7	8b 35 00 00 00
	00		 mov	 esi, DWORD PTR ?gObj@@3PAUOBJECTSTRUCT@@A ; gObj
  02ccd	66 8b 84 06 46
	01 00 00	 mov	 ax, WORD PTR [esi+eax+326]
  02cd5	66 89 84 0a 82
	01 00 00	 mov	 WORD PTR [edx+ecx+386], ax

; 846  : 			gObj[n].StartX = gObj[n].X;

  02cdd	8b 45 f8	 mov	 eax, DWORD PTR _n$[ebp]
  02ce0	69 c0 38 2b 00
	00		 imul	 eax, 11064		; 00002b38H
  02ce6	8b 4d f8	 mov	 ecx, DWORD PTR _n$[ebp]
  02ce9	69 c9 38 2b 00
	00		 imul	 ecx, 11064		; 00002b38H
  02cef	8b 15 00 00 00
	00		 mov	 edx, DWORD PTR ?gObj@@3PAUOBJECTSTRUCT@@A ; gObj
  02cf5	8b 35 00 00 00
	00		 mov	 esi, DWORD PTR ?gObj@@3PAUOBJECTSTRUCT@@A ; gObj
  02cfb	8a 84 06 44 01
	00 00		 mov	 al, BYTE PTR [esi+eax+324]
  02d02	88 84 0a 76 01
	00 00		 mov	 BYTE PTR [edx+ecx+374], al

; 847  : 			gObj[n].StartY = gObj[n].Y;

  02d09	8b 45 f8	 mov	 eax, DWORD PTR _n$[ebp]
  02d0c	69 c0 38 2b 00
	00		 imul	 eax, 11064		; 00002b38H
  02d12	8b 4d f8	 mov	 ecx, DWORD PTR _n$[ebp]
  02d15	69 c9 38 2b 00
	00		 imul	 ecx, 11064		; 00002b38H
  02d1b	8b 15 00 00 00
	00		 mov	 edx, DWORD PTR ?gObj@@3PAUOBJECTSTRUCT@@A ; gObj
  02d21	8b 35 00 00 00
	00		 mov	 esi, DWORD PTR ?gObj@@3PAUOBJECTSTRUCT@@A ; gObj
  02d27	8a 84 06 46 01
	00 00		 mov	 al, BYTE PTR [esi+eax+326]
  02d2e	88 84 0a 77 01
	00 00		 mov	 BYTE PTR [edx+ecx+375], al

; 848  : 
; 849  : 
; 850  : 			gObj[n].m_State = 1;

  02d35	8b 45 f8	 mov	 eax, DWORD PTR _n$[ebp]
  02d38	69 c0 38 2b 00
	00		 imul	 eax, 11064		; 00002b38H
  02d3e	8b 0d 00 00 00
	00		 mov	 ecx, DWORD PTR ?gObj@@3PAUOBJECTSTRUCT@@A ; gObj
  02d44	c7 84 01 20 02
	00 00 01 00 00
	00		 mov	 DWORD PTR [ecx+eax+544], 1

; 851  : 			gObj[n].PathCount = 0;

  02d4f	8b 45 f8	 mov	 eax, DWORD PTR _n$[ebp]
  02d52	69 c0 38 2b 00
	00		 imul	 eax, 11064		; 00002b38H
  02d58	8b 0d 00 00 00
	00		 mov	 ecx, DWORD PTR ?gObj@@3PAUOBJECTSTRUCT@@A ; gObj
  02d5e	c7 84 01 84 01
	00 00 00 00 00
	00		 mov	 DWORD PTR [ecx+eax+388], 0

; 852  : 
; 853  : 			LogAddTD("Make Golden Twintail : %d, %d,%d",
; 854  : 				MapNumber, gObj[n].X, gObj[n].Y);

  02d69	8b 45 f8	 mov	 eax, DWORD PTR _n$[ebp]
  02d6c	69 c0 38 2b 00
	00		 imul	 eax, 11064		; 00002b38H
  02d72	8b 0d 00 00 00
	00		 mov	 ecx, DWORD PTR ?gObj@@3PAUOBJECTSTRUCT@@A ; gObj
  02d78	0f bf 94 01 46
	01 00 00	 movsx	 edx, WORD PTR [ecx+eax+326]
  02d80	52		 push	 edx
  02d81	8b 45 f8	 mov	 eax, DWORD PTR _n$[ebp]
  02d84	69 c0 38 2b 00
	00		 imul	 eax, 11064		; 00002b38H
  02d8a	8b 0d 00 00 00
	00		 mov	 ecx, DWORD PTR ?gObj@@3PAUOBJECTSTRUCT@@A ; gObj
  02d90	0f bf 94 01 44
	01 00 00	 movsx	 edx, WORD PTR [ecx+eax+324]
  02d98	52		 push	 edx
  02d99	8b 45 f4	 mov	 eax, DWORD PTR _MapNumber$[ebp]
  02d9c	50		 push	 eax
  02d9d	68 00 00 00 00	 push	 OFFSET ??_C@_0CB@CCGIMCLF@Make?5Golden?5Twintail?5?3?5?$CFd?0?5?$CFd?0?$CFd@
  02da2	ff 15 00 00 00
	00		 call	 DWORD PTR ?LogAddTD@@3P6AXPADZZA ; LogAddTD
  02da8	83 c4 10	 add	 esp, 16			; 00000010H
$LN3@RegenGolde@6:

; 855  : 		}
; 856  : 	}

  02dab	e9 8c fd ff ff	 jmp	 $LN5@RegenGolde@6
$LN4@RegenGolde@6:

; 857  : }

  02db0	5f		 pop	 edi
  02db1	5e		 pop	 esi
  02db2	5b		 pop	 ebx
  02db3	8b e5		 mov	 esp, ebp
  02db5	5d		 pop	 ebp
  02db6	c3		 ret	 0
?RegenGoldenTwintail@CEledoradoEvent@@QAEXXZ ENDP	; CEledoradoEvent::RegenGoldenTwintail
_TEXT	ENDS
PUBLIC	??_C@_0CD@HFHDLHIH@Make?5Golden?5IronKnight?5?3?5?$CFd?0?5?$CFd?0@ ; `string'
;	COMDAT ??_C@_0CD@HFHDLHIH@Make?5Golden?5IronKnight?5?3?5?$CFd?0?5?$CFd?0@
CONST	SEGMENT
??_C@_0CD@HFHDLHIH@Make?5Golden?5IronKnight?5?3?5?$CFd?0?5?$CFd?0@ DB 'Ma'
	DB	'ke Golden IronKnight : %d, %d,%d', 00H	; `string'
; Function compile flags: /Odtp /ZI
CONST	ENDS
_TEXT	SEGMENT
_MapNumber$ = -12					; size = 4
_n$ = -8						; size = 4
_this$ = -4						; size = 4
?RegenGoldenIronKnight@CEledoradoEvent@@QAEXXZ PROC	; CEledoradoEvent::RegenGoldenIronKnight
; _this$ = ecx

; 860  : {

  02dc0	55		 push	 ebp
  02dc1	8b ec		 mov	 ebp, esp
  02dc3	83 ec 4c	 sub	 esp, 76			; 0000004cH
  02dc6	53		 push	 ebx
  02dc7	56		 push	 esi
  02dc8	57		 push	 edi
  02dc9	89 4d fc	 mov	 DWORD PTR _this$[ebp], ecx

; 861  : 	int n=0;

  02dcc	c7 45 f8 00 00
	00 00		 mov	 DWORD PTR _n$[ebp], 0

; 862  : 	int MapNumber;
; 863  : 
; 864  : 	for (n=0;n<OBJ_MAXMONSTER;n++)

  02dd3	c7 45 f8 00 00
	00 00		 mov	 DWORD PTR _n$[ebp], 0
  02dda	eb 09		 jmp	 SHORT $LN6@RegenGolde@7
$LN5@RegenGolde@7:
  02ddc	8b 45 f8	 mov	 eax, DWORD PTR _n$[ebp]
  02ddf	83 c0 01	 add	 eax, 1
  02de2	89 45 f8	 mov	 DWORD PTR _n$[ebp], eax
$LN6@RegenGolde@7:
  02de5	81 7d f8 c8 32
	00 00		 cmp	 DWORD PTR _n$[ebp], 13000 ; 000032c8H
  02dec	0f 8d 5e 02 00
	00		 jge	 $LN4@RegenGolde@7

; 865  : 	{
; 866  : 		if ( gObj[n].Class == 499 )	// 

  02df2	8b 45 f8	 mov	 eax, DWORD PTR _n$[ebp]
  02df5	69 c0 38 2b 00
	00		 imul	 eax, 11064		; 00002b38H
  02dfb	8b 0d 00 00 00
	00		 mov	 ecx, DWORD PTR ?gObj@@3PAUOBJECTSTRUCT@@A ; gObj
  02e01	0f b7 94 01 b8
	00 00 00	 movzx	 edx, WORD PTR [ecx+eax+184]
  02e09	81 fa f3 01 00
	00		 cmp	 edx, 499		; 000001f3H
  02e0f	0f 85 36 02 00
	00		 jne	 $LN3@RegenGolde@7

; 867  : 		{
; 868  : 			gObj[n].Live = TRUE;

  02e15	8b 45 f8	 mov	 eax, DWORD PTR _n$[ebp]
  02e18	69 c0 38 2b 00
	00		 imul	 eax, 11064		; 00002b38H
  02e1e	8b 0d 00 00 00
	00		 mov	 ecx, DWORD PTR ?gObj@@3PAUOBJECTSTRUCT@@A ; gObj
  02e24	c6 44 01 6a 01	 mov	 BYTE PTR [ecx+eax+106], 1

; 869  : 			MapNumber = MAP_INDEX_RAKLION;

  02e29	c7 45 f4 39 00
	00 00		 mov	 DWORD PTR _MapNumber$[ebp], 57 ; 00000039H

; 870  : 			gObj[n].MapNumber = MapNumber;

  02e30	8b 45 f8	 mov	 eax, DWORD PTR _n$[ebp]
  02e33	69 c0 38 2b 00
	00		 imul	 eax, 11064		; 00002b38H
  02e39	8b 0d 00 00 00
	00		 mov	 ecx, DWORD PTR ?gObj@@3PAUOBJECTSTRUCT@@A ; gObj
  02e3f	8a 55 f4	 mov	 dl, BYTE PTR _MapNumber$[ebp]
  02e42	88 94 01 49 01
	00 00		 mov	 BYTE PTR [ecx+eax+329], dl
$LN2@RegenGolde@7:

; 871  : 
; 872  : 			while ( gMSetBase.GetBoxPosition(MapNumber, 1, 1, 255, 255, gObj[n].X, gObj[n].Y) == 0 )

  02e49	8b 45 f8	 mov	 eax, DWORD PTR _n$[ebp]
  02e4c	69 c0 38 2b 00
	00		 imul	 eax, 11064		; 00002b38H
  02e52	8b 0d 00 00 00
	00		 mov	 ecx, DWORD PTR ?gObj@@3PAUOBJECTSTRUCT@@A ; gObj
  02e58	8d 94 01 46 01
	00 00		 lea	 edx, DWORD PTR [ecx+eax+326]
  02e5f	52		 push	 edx
  02e60	8b 45 f8	 mov	 eax, DWORD PTR _n$[ebp]
  02e63	69 c0 38 2b 00
	00		 imul	 eax, 11064		; 00002b38H
  02e69	8b 0d 00 00 00
	00		 mov	 ecx, DWORD PTR ?gObj@@3PAUOBJECTSTRUCT@@A ; gObj
  02e6f	8d 94 01 44 01
	00 00		 lea	 edx, DWORD PTR [ecx+eax+324]
  02e76	52		 push	 edx
  02e77	68 ff 00 00 00	 push	 255			; 000000ffH
  02e7c	68 ff 00 00 00	 push	 255			; 000000ffH
  02e81	6a 01		 push	 1
  02e83	6a 01		 push	 1
  02e85	8b 45 f4	 mov	 eax, DWORD PTR _MapNumber$[ebp]
  02e88	50		 push	 eax
  02e89	b9 00 00 00 00	 mov	 ecx, OFFSET ?gMSetBase@@3VCMonsterSetBase@@A ; gMSetBase
  02e8e	e8 00 00 00 00	 call	 ?GetBoxPosition@CMonsterSetBase@@QAEHHHHHHAAF0@Z ; CMonsterSetBase::GetBoxPosition
  02e93	85 c0		 test	 eax, eax
  02e95	75 02		 jne	 SHORT $LN1@RegenGolde@7

; 873  : 			{
; 874  : 
; 875  : 			}

  02e97	eb b0		 jmp	 SHORT $LN2@RegenGolde@7
$LN1@RegenGolde@7:

; 876  : 
; 877  : 			gObj[n].Life = gObj[n].MaxLife;

  02e99	8b 45 f8	 mov	 eax, DWORD PTR _n$[ebp]
  02e9c	69 c0 38 2b 00
	00		 imul	 eax, 11064		; 00002b38H
  02ea2	8b 4d f8	 mov	 ecx, DWORD PTR _n$[ebp]
  02ea5	69 c9 38 2b 00
	00		 imul	 ecx, 11064		; 00002b38H
  02eab	8b 15 00 00 00
	00		 mov	 edx, DWORD PTR ?gObj@@3PAUOBJECTSTRUCT@@A ; gObj
  02eb1	8b 35 00 00 00
	00		 mov	 esi, DWORD PTR ?gObj@@3PAUOBJECTSTRUCT@@A ; gObj
  02eb7	d9 84 06 00 01
	00 00		 fld	 DWORD PTR [esi+eax+256]
  02ebe	d9 9c 0a fc 00
	00 00		 fstp	 DWORD PTR [edx+ecx+252]

; 878  : 			gObj[n].TX = gObj[n].X;

  02ec5	8b 45 f8	 mov	 eax, DWORD PTR _n$[ebp]
  02ec8	69 c0 38 2b 00
	00		 imul	 eax, 11064		; 00002b38H
  02ece	8b 4d f8	 mov	 ecx, DWORD PTR _n$[ebp]
  02ed1	69 c9 38 2b 00
	00		 imul	 ecx, 11064		; 00002b38H
  02ed7	8b 15 00 00 00
	00		 mov	 edx, DWORD PTR ?gObj@@3PAUOBJECTSTRUCT@@A ; gObj
  02edd	8b 35 00 00 00
	00		 mov	 esi, DWORD PTR ?gObj@@3PAUOBJECTSTRUCT@@A ; gObj
  02ee3	66 8b 84 06 44
	01 00 00	 mov	 ax, WORD PTR [esi+eax+324]
  02eeb	66 89 84 0a 7c
	01 00 00	 mov	 WORD PTR [edx+ecx+380], ax

; 879  : 			gObj[n].TY = gObj[n].Y;

  02ef3	8b 45 f8	 mov	 eax, DWORD PTR _n$[ebp]
  02ef6	69 c0 38 2b 00
	00		 imul	 eax, 11064		; 00002b38H
  02efc	8b 4d f8	 mov	 ecx, DWORD PTR _n$[ebp]
  02eff	69 c9 38 2b 00
	00		 imul	 ecx, 11064		; 00002b38H
  02f05	8b 15 00 00 00
	00		 mov	 edx, DWORD PTR ?gObj@@3PAUOBJECTSTRUCT@@A ; gObj
  02f0b	8b 35 00 00 00
	00		 mov	 esi, DWORD PTR ?gObj@@3PAUOBJECTSTRUCT@@A ; gObj
  02f11	66 8b 84 06 46
	01 00 00	 mov	 ax, WORD PTR [esi+eax+326]
  02f19	66 89 84 0a 7e
	01 00 00	 mov	 WORD PTR [edx+ecx+382], ax

; 880  : 			gObj[n].MTX = gObj[n].X;

  02f21	8b 45 f8	 mov	 eax, DWORD PTR _n$[ebp]
  02f24	69 c0 38 2b 00
	00		 imul	 eax, 11064		; 00002b38H
  02f2a	8b 4d f8	 mov	 ecx, DWORD PTR _n$[ebp]
  02f2d	69 c9 38 2b 00
	00		 imul	 ecx, 11064		; 00002b38H
  02f33	8b 15 00 00 00
	00		 mov	 edx, DWORD PTR ?gObj@@3PAUOBJECTSTRUCT@@A ; gObj
  02f39	8b 35 00 00 00
	00		 mov	 esi, DWORD PTR ?gObj@@3PAUOBJECTSTRUCT@@A ; gObj
  02f3f	66 8b 84 06 44
	01 00 00	 mov	 ax, WORD PTR [esi+eax+324]
  02f47	66 89 84 0a 80
	01 00 00	 mov	 WORD PTR [edx+ecx+384], ax

; 881  : 			gObj[n].MTY = gObj[n].Y;

  02f4f	8b 45 f8	 mov	 eax, DWORD PTR _n$[ebp]
  02f52	69 c0 38 2b 00
	00		 imul	 eax, 11064		; 00002b38H
  02f58	8b 4d f8	 mov	 ecx, DWORD PTR _n$[ebp]
  02f5b	69 c9 38 2b 00
	00		 imul	 ecx, 11064		; 00002b38H
  02f61	8b 15 00 00 00
	00		 mov	 edx, DWORD PTR ?gObj@@3PAUOBJECTSTRUCT@@A ; gObj
  02f67	8b 35 00 00 00
	00		 mov	 esi, DWORD PTR ?gObj@@3PAUOBJECTSTRUCT@@A ; gObj
  02f6d	66 8b 84 06 46
	01 00 00	 mov	 ax, WORD PTR [esi+eax+326]
  02f75	66 89 84 0a 82
	01 00 00	 mov	 WORD PTR [edx+ecx+386], ax

; 882  : 			gObj[n].StartX = gObj[n].X;

  02f7d	8b 45 f8	 mov	 eax, DWORD PTR _n$[ebp]
  02f80	69 c0 38 2b 00
	00		 imul	 eax, 11064		; 00002b38H
  02f86	8b 4d f8	 mov	 ecx, DWORD PTR _n$[ebp]
  02f89	69 c9 38 2b 00
	00		 imul	 ecx, 11064		; 00002b38H
  02f8f	8b 15 00 00 00
	00		 mov	 edx, DWORD PTR ?gObj@@3PAUOBJECTSTRUCT@@A ; gObj
  02f95	8b 35 00 00 00
	00		 mov	 esi, DWORD PTR ?gObj@@3PAUOBJECTSTRUCT@@A ; gObj
  02f9b	8a 84 06 44 01
	00 00		 mov	 al, BYTE PTR [esi+eax+324]
  02fa2	88 84 0a 76 01
	00 00		 mov	 BYTE PTR [edx+ecx+374], al

; 883  : 			gObj[n].StartY = gObj[n].Y;

  02fa9	8b 45 f8	 mov	 eax, DWORD PTR _n$[ebp]
  02fac	69 c0 38 2b 00
	00		 imul	 eax, 11064		; 00002b38H
  02fb2	8b 4d f8	 mov	 ecx, DWORD PTR _n$[ebp]
  02fb5	69 c9 38 2b 00
	00		 imul	 ecx, 11064		; 00002b38H
  02fbb	8b 15 00 00 00
	00		 mov	 edx, DWORD PTR ?gObj@@3PAUOBJECTSTRUCT@@A ; gObj
  02fc1	8b 35 00 00 00
	00		 mov	 esi, DWORD PTR ?gObj@@3PAUOBJECTSTRUCT@@A ; gObj
  02fc7	8a 84 06 46 01
	00 00		 mov	 al, BYTE PTR [esi+eax+326]
  02fce	88 84 0a 77 01
	00 00		 mov	 BYTE PTR [edx+ecx+375], al

; 884  : 
; 885  : 
; 886  : 			gObj[n].m_State = 1;

  02fd5	8b 45 f8	 mov	 eax, DWORD PTR _n$[ebp]
  02fd8	69 c0 38 2b 00
	00		 imul	 eax, 11064		; 00002b38H
  02fde	8b 0d 00 00 00
	00		 mov	 ecx, DWORD PTR ?gObj@@3PAUOBJECTSTRUCT@@A ; gObj
  02fe4	c7 84 01 20 02
	00 00 01 00 00
	00		 mov	 DWORD PTR [ecx+eax+544], 1

; 887  : 			gObj[n].PathCount = 0;

  02fef	8b 45 f8	 mov	 eax, DWORD PTR _n$[ebp]
  02ff2	69 c0 38 2b 00
	00		 imul	 eax, 11064		; 00002b38H
  02ff8	8b 0d 00 00 00
	00		 mov	 ecx, DWORD PTR ?gObj@@3PAUOBJECTSTRUCT@@A ; gObj
  02ffe	c7 84 01 84 01
	00 00 00 00 00
	00		 mov	 DWORD PTR [ecx+eax+388], 0

; 888  : 
; 889  : 			LogAddTD("Make Golden IronKnight : %d, %d,%d",
; 890  : 				MapNumber, gObj[n].X, gObj[n].Y);

  03009	8b 45 f8	 mov	 eax, DWORD PTR _n$[ebp]
  0300c	69 c0 38 2b 00
	00		 imul	 eax, 11064		; 00002b38H
  03012	8b 0d 00 00 00
	00		 mov	 ecx, DWORD PTR ?gObj@@3PAUOBJECTSTRUCT@@A ; gObj
  03018	0f bf 94 01 46
	01 00 00	 movsx	 edx, WORD PTR [ecx+eax+326]
  03020	52		 push	 edx
  03021	8b 45 f8	 mov	 eax, DWORD PTR _n$[ebp]
  03024	69 c0 38 2b 00
	00		 imul	 eax, 11064		; 00002b38H
  0302a	8b 0d 00 00 00
	00		 mov	 ecx, DWORD PTR ?gObj@@3PAUOBJECTSTRUCT@@A ; gObj
  03030	0f bf 94 01 44
	01 00 00	 movsx	 edx, WORD PTR [ecx+eax+324]
  03038	52		 push	 edx
  03039	8b 45 f4	 mov	 eax, DWORD PTR _MapNumber$[ebp]
  0303c	50		 push	 eax
  0303d	68 00 00 00 00	 push	 OFFSET ??_C@_0CD@HFHDLHIH@Make?5Golden?5IronKnight?5?3?5?$CFd?0?5?$CFd?0@
  03042	ff 15 00 00 00
	00		 call	 DWORD PTR ?LogAddTD@@3P6AXPADZZA ; LogAddTD
  03048	83 c4 10	 add	 esp, 16			; 00000010H
$LN3@RegenGolde@7:

; 891  : 		}
; 892  : 	}

  0304b	e9 8c fd ff ff	 jmp	 $LN5@RegenGolde@7
$LN4@RegenGolde@7:

; 893  : }

  03050	5f		 pop	 edi
  03051	5e		 pop	 esi
  03052	5b		 pop	 ebx
  03053	8b e5		 mov	 esp, ebp
  03055	5d		 pop	 ebp
  03056	c3		 ret	 0
?RegenGoldenIronKnight@CEledoradoEvent@@QAEXXZ ENDP	; CEledoradoEvent::RegenGoldenIronKnight
_TEXT	ENDS
PUBLIC	??_C@_0BP@OPFHHCOG@Make?5Golden?5Neipin?5?3?5?$CFd?0?5?$CFd?0?$CFd?$AA@ ; `string'
;	COMDAT ??_C@_0BP@OPFHHCOG@Make?5Golden?5Neipin?5?3?5?$CFd?0?5?$CFd?0?$CFd?$AA@
CONST	SEGMENT
??_C@_0BP@OPFHHCOG@Make?5Golden?5Neipin?5?3?5?$CFd?0?5?$CFd?0?$CFd?$AA@ DB 'M'
	DB	'ake Golden Neipin : %d, %d,%d', 00H		; `string'
; Function compile flags: /Odtp /ZI
CONST	ENDS
_TEXT	SEGMENT
_MapNumber$ = -12					; size = 4
_n$ = -8						; size = 4
_this$ = -4						; size = 4
?RegenGoldenNeipin@CEledoradoEvent@@QAEXXZ PROC		; CEledoradoEvent::RegenGoldenNeipin
; _this$ = ecx

; 896  : {

  03060	55		 push	 ebp
  03061	8b ec		 mov	 ebp, esp
  03063	83 ec 4c	 sub	 esp, 76			; 0000004cH
  03066	53		 push	 ebx
  03067	56		 push	 esi
  03068	57		 push	 edi
  03069	89 4d fc	 mov	 DWORD PTR _this$[ebp], ecx

; 897  : 	int n=0;

  0306c	c7 45 f8 00 00
	00 00		 mov	 DWORD PTR _n$[ebp], 0

; 898  : 	int MapNumber;
; 899  : 
; 900  : 	for (n=0;n<OBJ_MAXMONSTER;n++)

  03073	c7 45 f8 00 00
	00 00		 mov	 DWORD PTR _n$[ebp], 0
  0307a	eb 09		 jmp	 SHORT $LN6@RegenGolde@8
$LN5@RegenGolde@8:
  0307c	8b 45 f8	 mov	 eax, DWORD PTR _n$[ebp]
  0307f	83 c0 01	 add	 eax, 1
  03082	89 45 f8	 mov	 DWORD PTR _n$[ebp], eax
$LN6@RegenGolde@8:
  03085	81 7d f8 c8 32
	00 00		 cmp	 DWORD PTR _n$[ebp], 13000 ; 000032c8H
  0308c	0f 8d 5e 02 00
	00		 jge	 $LN4@RegenGolde@8

; 901  : 	{
; 902  : 		if ( gObj[n].Class == 500 )	// 

  03092	8b 45 f8	 mov	 eax, DWORD PTR _n$[ebp]
  03095	69 c0 38 2b 00
	00		 imul	 eax, 11064		; 00002b38H
  0309b	8b 0d 00 00 00
	00		 mov	 ecx, DWORD PTR ?gObj@@3PAUOBJECTSTRUCT@@A ; gObj
  030a1	0f b7 94 01 b8
	00 00 00	 movzx	 edx, WORD PTR [ecx+eax+184]
  030a9	81 fa f4 01 00
	00		 cmp	 edx, 500		; 000001f4H
  030af	0f 85 36 02 00
	00		 jne	 $LN3@RegenGolde@8

; 903  : 		{
; 904  : 			gObj[n].Live = TRUE;

  030b5	8b 45 f8	 mov	 eax, DWORD PTR _n$[ebp]
  030b8	69 c0 38 2b 00
	00		 imul	 eax, 11064		; 00002b38H
  030be	8b 0d 00 00 00
	00		 mov	 ecx, DWORD PTR ?gObj@@3PAUOBJECTSTRUCT@@A ; gObj
  030c4	c6 44 01 6a 01	 mov	 BYTE PTR [ecx+eax+106], 1

; 905  : 			MapNumber = MAP_INDEX_SWAMPOFCALMNESS;

  030c9	c7 45 f4 38 00
	00 00		 mov	 DWORD PTR _MapNumber$[ebp], 56 ; 00000038H

; 906  : 			gObj[n].MapNumber = MapNumber;

  030d0	8b 45 f8	 mov	 eax, DWORD PTR _n$[ebp]
  030d3	69 c0 38 2b 00
	00		 imul	 eax, 11064		; 00002b38H
  030d9	8b 0d 00 00 00
	00		 mov	 ecx, DWORD PTR ?gObj@@3PAUOBJECTSTRUCT@@A ; gObj
  030df	8a 55 f4	 mov	 dl, BYTE PTR _MapNumber$[ebp]
  030e2	88 94 01 49 01
	00 00		 mov	 BYTE PTR [ecx+eax+329], dl
$LN2@RegenGolde@8:

; 907  : 
; 908  : 			while ( gMSetBase.GetBoxPosition(MapNumber, 1, 1, 255, 255, gObj[n].X, gObj[n].Y) == 0 )

  030e9	8b 45 f8	 mov	 eax, DWORD PTR _n$[ebp]
  030ec	69 c0 38 2b 00
	00		 imul	 eax, 11064		; 00002b38H
  030f2	8b 0d 00 00 00
	00		 mov	 ecx, DWORD PTR ?gObj@@3PAUOBJECTSTRUCT@@A ; gObj
  030f8	8d 94 01 46 01
	00 00		 lea	 edx, DWORD PTR [ecx+eax+326]
  030ff	52		 push	 edx
  03100	8b 45 f8	 mov	 eax, DWORD PTR _n$[ebp]
  03103	69 c0 38 2b 00
	00		 imul	 eax, 11064		; 00002b38H
  03109	8b 0d 00 00 00
	00		 mov	 ecx, DWORD PTR ?gObj@@3PAUOBJECTSTRUCT@@A ; gObj
  0310f	8d 94 01 44 01
	00 00		 lea	 edx, DWORD PTR [ecx+eax+324]
  03116	52		 push	 edx
  03117	68 ff 00 00 00	 push	 255			; 000000ffH
  0311c	68 ff 00 00 00	 push	 255			; 000000ffH
  03121	6a 01		 push	 1
  03123	6a 01		 push	 1
  03125	8b 45 f4	 mov	 eax, DWORD PTR _MapNumber$[ebp]
  03128	50		 push	 eax
  03129	b9 00 00 00 00	 mov	 ecx, OFFSET ?gMSetBase@@3VCMonsterSetBase@@A ; gMSetBase
  0312e	e8 00 00 00 00	 call	 ?GetBoxPosition@CMonsterSetBase@@QAEHHHHHHAAF0@Z ; CMonsterSetBase::GetBoxPosition
  03133	85 c0		 test	 eax, eax
  03135	75 02		 jne	 SHORT $LN1@RegenGolde@8

; 909  : 			{
; 910  : 
; 911  : 			}

  03137	eb b0		 jmp	 SHORT $LN2@RegenGolde@8
$LN1@RegenGolde@8:

; 912  : 
; 913  : 			gObj[n].Life = gObj[n].MaxLife;

  03139	8b 45 f8	 mov	 eax, DWORD PTR _n$[ebp]
  0313c	69 c0 38 2b 00
	00		 imul	 eax, 11064		; 00002b38H
  03142	8b 4d f8	 mov	 ecx, DWORD PTR _n$[ebp]
  03145	69 c9 38 2b 00
	00		 imul	 ecx, 11064		; 00002b38H
  0314b	8b 15 00 00 00
	00		 mov	 edx, DWORD PTR ?gObj@@3PAUOBJECTSTRUCT@@A ; gObj
  03151	8b 35 00 00 00
	00		 mov	 esi, DWORD PTR ?gObj@@3PAUOBJECTSTRUCT@@A ; gObj
  03157	d9 84 06 00 01
	00 00		 fld	 DWORD PTR [esi+eax+256]
  0315e	d9 9c 0a fc 00
	00 00		 fstp	 DWORD PTR [edx+ecx+252]

; 914  : 			gObj[n].TX = gObj[n].X;

  03165	8b 45 f8	 mov	 eax, DWORD PTR _n$[ebp]
  03168	69 c0 38 2b 00
	00		 imul	 eax, 11064		; 00002b38H
  0316e	8b 4d f8	 mov	 ecx, DWORD PTR _n$[ebp]
  03171	69 c9 38 2b 00
	00		 imul	 ecx, 11064		; 00002b38H
  03177	8b 15 00 00 00
	00		 mov	 edx, DWORD PTR ?gObj@@3PAUOBJECTSTRUCT@@A ; gObj
  0317d	8b 35 00 00 00
	00		 mov	 esi, DWORD PTR ?gObj@@3PAUOBJECTSTRUCT@@A ; gObj
  03183	66 8b 84 06 44
	01 00 00	 mov	 ax, WORD PTR [esi+eax+324]
  0318b	66 89 84 0a 7c
	01 00 00	 mov	 WORD PTR [edx+ecx+380], ax

; 915  : 			gObj[n].TY = gObj[n].Y;

  03193	8b 45 f8	 mov	 eax, DWORD PTR _n$[ebp]
  03196	69 c0 38 2b 00
	00		 imul	 eax, 11064		; 00002b38H
  0319c	8b 4d f8	 mov	 ecx, DWORD PTR _n$[ebp]
  0319f	69 c9 38 2b 00
	00		 imul	 ecx, 11064		; 00002b38H
  031a5	8b 15 00 00 00
	00		 mov	 edx, DWORD PTR ?gObj@@3PAUOBJECTSTRUCT@@A ; gObj
  031ab	8b 35 00 00 00
	00		 mov	 esi, DWORD PTR ?gObj@@3PAUOBJECTSTRUCT@@A ; gObj
  031b1	66 8b 84 06 46
	01 00 00	 mov	 ax, WORD PTR [esi+eax+326]
  031b9	66 89 84 0a 7e
	01 00 00	 mov	 WORD PTR [edx+ecx+382], ax

; 916  : 			gObj[n].MTX = gObj[n].X;

  031c1	8b 45 f8	 mov	 eax, DWORD PTR _n$[ebp]
  031c4	69 c0 38 2b 00
	00		 imul	 eax, 11064		; 00002b38H
  031ca	8b 4d f8	 mov	 ecx, DWORD PTR _n$[ebp]
  031cd	69 c9 38 2b 00
	00		 imul	 ecx, 11064		; 00002b38H
  031d3	8b 15 00 00 00
	00		 mov	 edx, DWORD PTR ?gObj@@3PAUOBJECTSTRUCT@@A ; gObj
  031d9	8b 35 00 00 00
	00		 mov	 esi, DWORD PTR ?gObj@@3PAUOBJECTSTRUCT@@A ; gObj
  031df	66 8b 84 06 44
	01 00 00	 mov	 ax, WORD PTR [esi+eax+324]
  031e7	66 89 84 0a 80
	01 00 00	 mov	 WORD PTR [edx+ecx+384], ax

; 917  : 			gObj[n].MTY = gObj[n].Y;

  031ef	8b 45 f8	 mov	 eax, DWORD PTR _n$[ebp]
  031f2	69 c0 38 2b 00
	00		 imul	 eax, 11064		; 00002b38H
  031f8	8b 4d f8	 mov	 ecx, DWORD PTR _n$[ebp]
  031fb	69 c9 38 2b 00
	00		 imul	 ecx, 11064		; 00002b38H
  03201	8b 15 00 00 00
	00		 mov	 edx, DWORD PTR ?gObj@@3PAUOBJECTSTRUCT@@A ; gObj
  03207	8b 35 00 00 00
	00		 mov	 esi, DWORD PTR ?gObj@@3PAUOBJECTSTRUCT@@A ; gObj
  0320d	66 8b 84 06 46
	01 00 00	 mov	 ax, WORD PTR [esi+eax+326]
  03215	66 89 84 0a 82
	01 00 00	 mov	 WORD PTR [edx+ecx+386], ax

; 918  : 			gObj[n].StartX = gObj[n].X;

  0321d	8b 45 f8	 mov	 eax, DWORD PTR _n$[ebp]
  03220	69 c0 38 2b 00
	00		 imul	 eax, 11064		; 00002b38H
  03226	8b 4d f8	 mov	 ecx, DWORD PTR _n$[ebp]
  03229	69 c9 38 2b 00
	00		 imul	 ecx, 11064		; 00002b38H
  0322f	8b 15 00 00 00
	00		 mov	 edx, DWORD PTR ?gObj@@3PAUOBJECTSTRUCT@@A ; gObj
  03235	8b 35 00 00 00
	00		 mov	 esi, DWORD PTR ?gObj@@3PAUOBJECTSTRUCT@@A ; gObj
  0323b	8a 84 06 44 01
	00 00		 mov	 al, BYTE PTR [esi+eax+324]
  03242	88 84 0a 76 01
	00 00		 mov	 BYTE PTR [edx+ecx+374], al

; 919  : 			gObj[n].StartY = gObj[n].Y;

  03249	8b 45 f8	 mov	 eax, DWORD PTR _n$[ebp]
  0324c	69 c0 38 2b 00
	00		 imul	 eax, 11064		; 00002b38H
  03252	8b 4d f8	 mov	 ecx, DWORD PTR _n$[ebp]
  03255	69 c9 38 2b 00
	00		 imul	 ecx, 11064		; 00002b38H
  0325b	8b 15 00 00 00
	00		 mov	 edx, DWORD PTR ?gObj@@3PAUOBJECTSTRUCT@@A ; gObj
  03261	8b 35 00 00 00
	00		 mov	 esi, DWORD PTR ?gObj@@3PAUOBJECTSTRUCT@@A ; gObj
  03267	8a 84 06 46 01
	00 00		 mov	 al, BYTE PTR [esi+eax+326]
  0326e	88 84 0a 77 01
	00 00		 mov	 BYTE PTR [edx+ecx+375], al

; 920  : 
; 921  : 
; 922  : 			gObj[n].m_State = 1;

  03275	8b 45 f8	 mov	 eax, DWORD PTR _n$[ebp]
  03278	69 c0 38 2b 00
	00		 imul	 eax, 11064		; 00002b38H
  0327e	8b 0d 00 00 00
	00		 mov	 ecx, DWORD PTR ?gObj@@3PAUOBJECTSTRUCT@@A ; gObj
  03284	c7 84 01 20 02
	00 00 01 00 00
	00		 mov	 DWORD PTR [ecx+eax+544], 1

; 923  : 			gObj[n].PathCount = 0;

  0328f	8b 45 f8	 mov	 eax, DWORD PTR _n$[ebp]
  03292	69 c0 38 2b 00
	00		 imul	 eax, 11064		; 00002b38H
  03298	8b 0d 00 00 00
	00		 mov	 ecx, DWORD PTR ?gObj@@3PAUOBJECTSTRUCT@@A ; gObj
  0329e	c7 84 01 84 01
	00 00 00 00 00
	00		 mov	 DWORD PTR [ecx+eax+388], 0

; 924  : 
; 925  : 			LogAddTD("Make Golden Neipin : %d, %d,%d",
; 926  : 				MapNumber, gObj[n].X, gObj[n].Y);

  032a9	8b 45 f8	 mov	 eax, DWORD PTR _n$[ebp]
  032ac	69 c0 38 2b 00
	00		 imul	 eax, 11064		; 00002b38H
  032b2	8b 0d 00 00 00
	00		 mov	 ecx, DWORD PTR ?gObj@@3PAUOBJECTSTRUCT@@A ; gObj
  032b8	0f bf 94 01 46
	01 00 00	 movsx	 edx, WORD PTR [ecx+eax+326]
  032c0	52		 push	 edx
  032c1	8b 45 f8	 mov	 eax, DWORD PTR _n$[ebp]
  032c4	69 c0 38 2b 00
	00		 imul	 eax, 11064		; 00002b38H
  032ca	8b 0d 00 00 00
	00		 mov	 ecx, DWORD PTR ?gObj@@3PAUOBJECTSTRUCT@@A ; gObj
  032d0	0f bf 94 01 44
	01 00 00	 movsx	 edx, WORD PTR [ecx+eax+324]
  032d8	52		 push	 edx
  032d9	8b 45 f4	 mov	 eax, DWORD PTR _MapNumber$[ebp]
  032dc	50		 push	 eax
  032dd	68 00 00 00 00	 push	 OFFSET ??_C@_0BP@OPFHHCOG@Make?5Golden?5Neipin?5?3?5?$CFd?0?5?$CFd?0?$CFd?$AA@
  032e2	ff 15 00 00 00
	00		 call	 DWORD PTR ?LogAddTD@@3P6AXPADZZA ; LogAddTD
  032e8	83 c4 10	 add	 esp, 16			; 00000010H
$LN3@RegenGolde@8:

; 927  : 		}
; 928  : 	}

  032eb	e9 8c fd ff ff	 jmp	 $LN5@RegenGolde@8
$LN4@RegenGolde@8:

; 929  : }

  032f0	5f		 pop	 edi
  032f1	5e		 pop	 esi
  032f2	5b		 pop	 ebx
  032f3	8b e5		 mov	 esp, ebp
  032f5	5d		 pop	 ebp
  032f6	c3		 ret	 0
?RegenGoldenNeipin@CEledoradoEvent@@QAEXXZ ENDP		; CEledoradoEvent::RegenGoldenNeipin
_TEXT	ENDS
PUBLIC	??_C@_0CF@NFLGABAN@Make?5Golden?5Great?5Dragon?5?3?5?$CFd?0?5?$CF@ ; `string'
;	COMDAT ??_C@_0CF@NFLGABAN@Make?5Golden?5Great?5Dragon?5?3?5?$CFd?0?5?$CF@
CONST	SEGMENT
??_C@_0CF@NFLGABAN@Make?5Golden?5Great?5Dragon?5?3?5?$CFd?0?5?$CF@ DB 'Ma'
	DB	'ke Golden Great Dragon : %d, %d,%d', 00H	; `string'
; Function compile flags: /Odtp /ZI
CONST	ENDS
_TEXT	SEGMENT
_Map$ = -20						; size = 8
_MapNumber$ = -12					; size = 4
_n$ = -8						; size = 4
_this$ = -4						; size = 4
?RegenGoldenGreatDragon@CEledoradoEvent@@QAEXXZ PROC	; CEledoradoEvent::RegenGoldenGreatDragon
; _this$ = ecx

; 932  : {

  03300	55		 push	 ebp
  03301	8b ec		 mov	 ebp, esp
  03303	83 ec 54	 sub	 esp, 84			; 00000054H
  03306	53		 push	 ebx
  03307	56		 push	 esi
  03308	57		 push	 edi
  03309	89 4d fc	 mov	 DWORD PTR _this$[ebp], ecx

; 933  : 	int n=0;

  0330c	c7 45 f8 00 00
	00 00		 mov	 DWORD PTR _n$[ebp], 0

; 934  : 	int MapNumber;
; 935  : 	int Map[2] = {MAP_INDEX_KANTURU1,MAP_INDEX_RAKLION};

  03313	c7 45 ec 25 00
	00 00		 mov	 DWORD PTR _Map$[ebp], 37 ; 00000025H
  0331a	c7 45 f0 39 00
	00 00		 mov	 DWORD PTR _Map$[ebp+4], 57 ; 00000039H

; 936  : 
; 937  : 	for (n=0;n<OBJ_MAXMONSTER;n++)

  03321	c7 45 f8 00 00
	00 00		 mov	 DWORD PTR _n$[ebp], 0
  03328	eb 09		 jmp	 SHORT $LN6@RegenGolde@9
$LN5@RegenGolde@9:
  0332a	8b 45 f8	 mov	 eax, DWORD PTR _n$[ebp]
  0332d	83 c0 01	 add	 eax, 1
  03330	89 45 f8	 mov	 DWORD PTR _n$[ebp], eax
$LN6@RegenGolde@9:
  03333	81 7d f8 c8 32
	00 00		 cmp	 DWORD PTR _n$[ebp], 13000 ; 000032c8H
  0333a	0f 8d 6f 02 00
	00		 jge	 $LN4@RegenGolde@9

; 938  : 	{
; 939  : 		if ( gObj[n].Class == 501 )	// 

  03340	8b 45 f8	 mov	 eax, DWORD PTR _n$[ebp]
  03343	69 c0 38 2b 00
	00		 imul	 eax, 11064		; 00002b38H
  03349	8b 0d 00 00 00
	00		 mov	 ecx, DWORD PTR ?gObj@@3PAUOBJECTSTRUCT@@A ; gObj
  0334f	0f b7 94 01 b8
	00 00 00	 movzx	 edx, WORD PTR [ecx+eax+184]
  03357	81 fa f5 01 00
	00		 cmp	 edx, 501		; 000001f5H
  0335d	0f 85 47 02 00
	00		 jne	 $LN3@RegenGolde@9

; 940  : 		{
; 941  : 			gObj[n].Live = TRUE;

  03363	8b 45 f8	 mov	 eax, DWORD PTR _n$[ebp]
  03366	69 c0 38 2b 00
	00		 imul	 eax, 11064		; 00002b38H
  0336c	8b 0d 00 00 00
	00		 mov	 ecx, DWORD PTR ?gObj@@3PAUOBJECTSTRUCT@@A ; gObj
  03372	c6 44 01 6a 01	 mov	 BYTE PTR [ecx+eax+106], 1

; 942  : 			MapNumber = Map[rand()%2];

  03377	e8 00 00 00 00	 call	 _rand
  0337c	25 01 00 00 80	 and	 eax, -2147483647	; 80000001H
  03381	79 05		 jns	 SHORT $LN9@RegenGolde@9
  03383	48		 dec	 eax
  03384	83 c8 fe	 or	 eax, -2			; fffffffeH
  03387	40		 inc	 eax
$LN9@RegenGolde@9:
  03388	8b 44 85 ec	 mov	 eax, DWORD PTR _Map$[ebp+eax*4]
  0338c	89 45 f4	 mov	 DWORD PTR _MapNumber$[ebp], eax

; 943  : 			gObj[n].MapNumber = MapNumber;

  0338f	8b 45 f8	 mov	 eax, DWORD PTR _n$[ebp]
  03392	69 c0 38 2b 00
	00		 imul	 eax, 11064		; 00002b38H
  03398	8b 0d 00 00 00
	00		 mov	 ecx, DWORD PTR ?gObj@@3PAUOBJECTSTRUCT@@A ; gObj
  0339e	8a 55 f4	 mov	 dl, BYTE PTR _MapNumber$[ebp]
  033a1	88 94 01 49 01
	00 00		 mov	 BYTE PTR [ecx+eax+329], dl
$LN2@RegenGolde@9:

; 944  : 
; 945  : 			while ( gMSetBase.GetBoxPosition(MapNumber, 1, 1, 255, 255, gObj[n].X, gObj[n].Y) == 0 )

  033a8	8b 45 f8	 mov	 eax, DWORD PTR _n$[ebp]
  033ab	69 c0 38 2b 00
	00		 imul	 eax, 11064		; 00002b38H
  033b1	8b 0d 00 00 00
	00		 mov	 ecx, DWORD PTR ?gObj@@3PAUOBJECTSTRUCT@@A ; gObj
  033b7	8d 94 01 46 01
	00 00		 lea	 edx, DWORD PTR [ecx+eax+326]
  033be	52		 push	 edx
  033bf	8b 45 f8	 mov	 eax, DWORD PTR _n$[ebp]
  033c2	69 c0 38 2b 00
	00		 imul	 eax, 11064		; 00002b38H
  033c8	8b 0d 00 00 00
	00		 mov	 ecx, DWORD PTR ?gObj@@3PAUOBJECTSTRUCT@@A ; gObj
  033ce	8d 94 01 44 01
	00 00		 lea	 edx, DWORD PTR [ecx+eax+324]
  033d5	52		 push	 edx
  033d6	68 ff 00 00 00	 push	 255			; 000000ffH
  033db	68 ff 00 00 00	 push	 255			; 000000ffH
  033e0	6a 01		 push	 1
  033e2	6a 01		 push	 1
  033e4	8b 45 f4	 mov	 eax, DWORD PTR _MapNumber$[ebp]
  033e7	50		 push	 eax
  033e8	b9 00 00 00 00	 mov	 ecx, OFFSET ?gMSetBase@@3VCMonsterSetBase@@A ; gMSetBase
  033ed	e8 00 00 00 00	 call	 ?GetBoxPosition@CMonsterSetBase@@QAEHHHHHHAAF0@Z ; CMonsterSetBase::GetBoxPosition
  033f2	85 c0		 test	 eax, eax
  033f4	75 02		 jne	 SHORT $LN1@RegenGolde@9

; 946  : 			{
; 947  : 
; 948  : 			}

  033f6	eb b0		 jmp	 SHORT $LN2@RegenGolde@9
$LN1@RegenGolde@9:

; 949  : 
; 950  : 			gObj[n].Life = gObj[n].MaxLife;

  033f8	8b 45 f8	 mov	 eax, DWORD PTR _n$[ebp]
  033fb	69 c0 38 2b 00
	00		 imul	 eax, 11064		; 00002b38H
  03401	8b 4d f8	 mov	 ecx, DWORD PTR _n$[ebp]
  03404	69 c9 38 2b 00
	00		 imul	 ecx, 11064		; 00002b38H
  0340a	8b 15 00 00 00
	00		 mov	 edx, DWORD PTR ?gObj@@3PAUOBJECTSTRUCT@@A ; gObj
  03410	8b 35 00 00 00
	00		 mov	 esi, DWORD PTR ?gObj@@3PAUOBJECTSTRUCT@@A ; gObj
  03416	d9 84 06 00 01
	00 00		 fld	 DWORD PTR [esi+eax+256]
  0341d	d9 9c 0a fc 00
	00 00		 fstp	 DWORD PTR [edx+ecx+252]

; 951  : 			gObj[n].TX = gObj[n].X;

  03424	8b 45 f8	 mov	 eax, DWORD PTR _n$[ebp]
  03427	69 c0 38 2b 00
	00		 imul	 eax, 11064		; 00002b38H
  0342d	8b 4d f8	 mov	 ecx, DWORD PTR _n$[ebp]
  03430	69 c9 38 2b 00
	00		 imul	 ecx, 11064		; 00002b38H
  03436	8b 15 00 00 00
	00		 mov	 edx, DWORD PTR ?gObj@@3PAUOBJECTSTRUCT@@A ; gObj
  0343c	8b 35 00 00 00
	00		 mov	 esi, DWORD PTR ?gObj@@3PAUOBJECTSTRUCT@@A ; gObj
  03442	66 8b 84 06 44
	01 00 00	 mov	 ax, WORD PTR [esi+eax+324]
  0344a	66 89 84 0a 7c
	01 00 00	 mov	 WORD PTR [edx+ecx+380], ax

; 952  : 			gObj[n].TY = gObj[n].Y;

  03452	8b 45 f8	 mov	 eax, DWORD PTR _n$[ebp]
  03455	69 c0 38 2b 00
	00		 imul	 eax, 11064		; 00002b38H
  0345b	8b 4d f8	 mov	 ecx, DWORD PTR _n$[ebp]
  0345e	69 c9 38 2b 00
	00		 imul	 ecx, 11064		; 00002b38H
  03464	8b 15 00 00 00
	00		 mov	 edx, DWORD PTR ?gObj@@3PAUOBJECTSTRUCT@@A ; gObj
  0346a	8b 35 00 00 00
	00		 mov	 esi, DWORD PTR ?gObj@@3PAUOBJECTSTRUCT@@A ; gObj
  03470	66 8b 84 06 46
	01 00 00	 mov	 ax, WORD PTR [esi+eax+326]
  03478	66 89 84 0a 7e
	01 00 00	 mov	 WORD PTR [edx+ecx+382], ax

; 953  : 			gObj[n].MTX = gObj[n].X;

  03480	8b 45 f8	 mov	 eax, DWORD PTR _n$[ebp]
  03483	69 c0 38 2b 00
	00		 imul	 eax, 11064		; 00002b38H
  03489	8b 4d f8	 mov	 ecx, DWORD PTR _n$[ebp]
  0348c	69 c9 38 2b 00
	00		 imul	 ecx, 11064		; 00002b38H
  03492	8b 15 00 00 00
	00		 mov	 edx, DWORD PTR ?gObj@@3PAUOBJECTSTRUCT@@A ; gObj
  03498	8b 35 00 00 00
	00		 mov	 esi, DWORD PTR ?gObj@@3PAUOBJECTSTRUCT@@A ; gObj
  0349e	66 8b 84 06 44
	01 00 00	 mov	 ax, WORD PTR [esi+eax+324]
  034a6	66 89 84 0a 80
	01 00 00	 mov	 WORD PTR [edx+ecx+384], ax

; 954  : 			gObj[n].MTY = gObj[n].Y;

  034ae	8b 45 f8	 mov	 eax, DWORD PTR _n$[ebp]
  034b1	69 c0 38 2b 00
	00		 imul	 eax, 11064		; 00002b38H
  034b7	8b 4d f8	 mov	 ecx, DWORD PTR _n$[ebp]
  034ba	69 c9 38 2b 00
	00		 imul	 ecx, 11064		; 00002b38H
  034c0	8b 15 00 00 00
	00		 mov	 edx, DWORD PTR ?gObj@@3PAUOBJECTSTRUCT@@A ; gObj
  034c6	8b 35 00 00 00
	00		 mov	 esi, DWORD PTR ?gObj@@3PAUOBJECTSTRUCT@@A ; gObj
  034cc	66 8b 84 06 46
	01 00 00	 mov	 ax, WORD PTR [esi+eax+326]
  034d4	66 89 84 0a 82
	01 00 00	 mov	 WORD PTR [edx+ecx+386], ax

; 955  : 			gObj[n].StartX = gObj[n].X;

  034dc	8b 45 f8	 mov	 eax, DWORD PTR _n$[ebp]
  034df	69 c0 38 2b 00
	00		 imul	 eax, 11064		; 00002b38H
  034e5	8b 4d f8	 mov	 ecx, DWORD PTR _n$[ebp]
  034e8	69 c9 38 2b 00
	00		 imul	 ecx, 11064		; 00002b38H
  034ee	8b 15 00 00 00
	00		 mov	 edx, DWORD PTR ?gObj@@3PAUOBJECTSTRUCT@@A ; gObj
  034f4	8b 35 00 00 00
	00		 mov	 esi, DWORD PTR ?gObj@@3PAUOBJECTSTRUCT@@A ; gObj
  034fa	8a 84 06 44 01
	00 00		 mov	 al, BYTE PTR [esi+eax+324]
  03501	88 84 0a 76 01
	00 00		 mov	 BYTE PTR [edx+ecx+374], al

; 956  : 			gObj[n].StartY = gObj[n].Y;

  03508	8b 45 f8	 mov	 eax, DWORD PTR _n$[ebp]
  0350b	69 c0 38 2b 00
	00		 imul	 eax, 11064		; 00002b38H
  03511	8b 4d f8	 mov	 ecx, DWORD PTR _n$[ebp]
  03514	69 c9 38 2b 00
	00		 imul	 ecx, 11064		; 00002b38H
  0351a	8b 15 00 00 00
	00		 mov	 edx, DWORD PTR ?gObj@@3PAUOBJECTSTRUCT@@A ; gObj
  03520	8b 35 00 00 00
	00		 mov	 esi, DWORD PTR ?gObj@@3PAUOBJECTSTRUCT@@A ; gObj
  03526	8a 84 06 46 01
	00 00		 mov	 al, BYTE PTR [esi+eax+326]
  0352d	88 84 0a 77 01
	00 00		 mov	 BYTE PTR [edx+ecx+375], al

; 957  : 
; 958  : 
; 959  : 			gObj[n].m_State = 1;

  03534	8b 45 f8	 mov	 eax, DWORD PTR _n$[ebp]
  03537	69 c0 38 2b 00
	00		 imul	 eax, 11064		; 00002b38H
  0353d	8b 0d 00 00 00
	00		 mov	 ecx, DWORD PTR ?gObj@@3PAUOBJECTSTRUCT@@A ; gObj
  03543	c7 84 01 20 02
	00 00 01 00 00
	00		 mov	 DWORD PTR [ecx+eax+544], 1

; 960  : 			gObj[n].PathCount = 0;

  0354e	8b 45 f8	 mov	 eax, DWORD PTR _n$[ebp]
  03551	69 c0 38 2b 00
	00		 imul	 eax, 11064		; 00002b38H
  03557	8b 0d 00 00 00
	00		 mov	 ecx, DWORD PTR ?gObj@@3PAUOBJECTSTRUCT@@A ; gObj
  0355d	c7 84 01 84 01
	00 00 00 00 00
	00		 mov	 DWORD PTR [ecx+eax+388], 0

; 961  : 
; 962  : 			LogAddTD("Make Golden Great Dragon : %d, %d,%d",
; 963  : 				MapNumber, gObj[n].X, gObj[n].Y);

  03568	8b 45 f8	 mov	 eax, DWORD PTR _n$[ebp]
  0356b	69 c0 38 2b 00
	00		 imul	 eax, 11064		; 00002b38H
  03571	8b 0d 00 00 00
	00		 mov	 ecx, DWORD PTR ?gObj@@3PAUOBJECTSTRUCT@@A ; gObj
  03577	0f bf 94 01 46
	01 00 00	 movsx	 edx, WORD PTR [ecx+eax+326]
  0357f	52		 push	 edx
  03580	8b 45 f8	 mov	 eax, DWORD PTR _n$[ebp]
  03583	69 c0 38 2b 00
	00		 imul	 eax, 11064		; 00002b38H
  03589	8b 0d 00 00 00
	00		 mov	 ecx, DWORD PTR ?gObj@@3PAUOBJECTSTRUCT@@A ; gObj
  0358f	0f bf 94 01 44
	01 00 00	 movsx	 edx, WORD PTR [ecx+eax+324]
  03597	52		 push	 edx
  03598	8b 45 f4	 mov	 eax, DWORD PTR _MapNumber$[ebp]
  0359b	50		 push	 eax
  0359c	68 00 00 00 00	 push	 OFFSET ??_C@_0CF@NFLGABAN@Make?5Golden?5Great?5Dragon?5?3?5?$CFd?0?5?$CF@
  035a1	ff 15 00 00 00
	00		 call	 DWORD PTR ?LogAddTD@@3P6AXPADZZA ; LogAddTD
  035a7	83 c4 10	 add	 esp, 16			; 00000010H
$LN3@RegenGolde@9:

; 964  : 		}
; 965  : 	}

  035aa	e9 7b fd ff ff	 jmp	 $LN5@RegenGolde@9
$LN4@RegenGolde@9:

; 966  : }

  035af	5f		 pop	 edi
  035b0	5e		 pop	 esi
  035b1	5b		 pop	 ebx
  035b2	8b e5		 mov	 esp, ebp
  035b4	5d		 pop	 ebp
  035b5	c3		 ret	 0
?RegenGoldenGreatDragon@CEledoradoEvent@@QAEXXZ ENDP	; CEledoradoEvent::RegenGoldenGreatDragon
_TEXT	ENDS
EXTRN	_atexit:PROC
; Function compile flags: /Odtp /ZI
;	COMDAT ??__EgEledoradoEvent@@YAXXZ
text$yc	SEGMENT
??__EgEledoradoEvent@@YAXXZ PROC			; `dynamic initializer for 'gEledoradoEvent'', COMDAT

; 11   : CEledoradoEvent gEledoradoEvent;

  00000	55		 push	 ebp
  00001	8b ec		 mov	 ebp, esp
  00003	83 ec 40	 sub	 esp, 64			; 00000040H
  00006	53		 push	 ebx
  00007	56		 push	 esi
  00008	57		 push	 edi
  00009	b9 00 00 00 00	 mov	 ecx, OFFSET ?gEledoradoEvent@@3VCEledoradoEvent@@A ; gEledoradoEvent
  0000e	e8 00 00 00 00	 call	 ??0CEledoradoEvent@@QAE@XZ ; CEledoradoEvent::CEledoradoEvent
  00013	68 00 00 00 00	 push	 OFFSET ??__FgEledoradoEvent@@YAXXZ ; `dynamic atexit destructor for 'gEledoradoEvent''
  00018	e8 00 00 00 00	 call	 _atexit
  0001d	83 c4 04	 add	 esp, 4
  00020	5f		 pop	 edi
  00021	5e		 pop	 esi
  00022	5b		 pop	 ebx
  00023	8b e5		 mov	 esp, ebp
  00025	5d		 pop	 ebp
  00026	c3		 ret	 0
??__EgEledoradoEvent@@YAXXZ ENDP			; `dynamic initializer for 'gEledoradoEvent''
; Function compile flags: /Odtp /ZI
text$yc	ENDS
;	COMDAT ??__FgEledoradoEvent@@YAXXZ
text$yd	SEGMENT
??__FgEledoradoEvent@@YAXXZ PROC			; `dynamic atexit destructor for 'gEledoradoEvent'', COMDAT
  00000	55		 push	 ebp
  00001	8b ec		 mov	 ebp, esp
  00003	83 ec 40	 sub	 esp, 64			; 00000040H
  00006	53		 push	 ebx
  00007	56		 push	 esi
  00008	57		 push	 edi
  00009	b9 00 00 00 00	 mov	 ecx, OFFSET ?gEledoradoEvent@@3VCEledoradoEvent@@A ; gEledoradoEvent
  0000e	e8 00 00 00 00	 call	 ??1CEledoradoEvent@@UAE@XZ ; CEledoradoEvent::~CEledoradoEvent
  00013	5f		 pop	 edi
  00014	5e		 pop	 esi
  00015	5b		 pop	 ebx
  00016	8b e5		 mov	 esp, ebp
  00018	5d		 pop	 ebp
  00019	c3		 ret	 0
??__FgEledoradoEvent@@YAXXZ ENDP			; `dynamic atexit destructor for 'gEledoradoEvent''
text$yd	ENDS
PUBLIC	?gEledoradoEvent@@3VCEledoradoEvent@@A		; gEledoradoEvent
_BSS	SEGMENT
?gEledoradoEvent@@3VCEledoradoEvent@@A DB 078H DUP (?)	; gEledoradoEvent
_BSS	ENDS
CRT$XCU	SEGMENT
_gEledoradoEvent$initializer$ DD FLAT:??__EgEledoradoEvent@@YAXXZ
CRT$XCU	ENDS
END
