; Listing generated by Microsoft (R) Optimizing Compiler Version 16.00.40219.01 

	TITLE	D:\Projects\ExTeam6.3\Source\GameServer\GameServer\Event.cpp
	.686P
	.XMM
	include listing.inc
	.model	flat

INCLUDELIB LIBCMT
INCLUDELIB OLDNAMES

PUBLIC	?pEventObj@@3PAUOBJECTSTRUCT@@A			; pEventObj
PUBLIC	?g_sz2ANV_GIFT_NAME@@3PAY0EA@DA			; g_sz2ANV_GIFT_NAME
PUBLIC	?g_bRingEventItemTextLoad@@3HA			; g_bRingEventItemTextLoad
_BSS	SEGMENT
?pEventObj@@3PAUOBJECTSTRUCT@@A DD 01H DUP (?)		; pEventObj
?g_sz2ANV_GIFT_NAME@@3PAY0EA@DA DB 0c80H DUP (?)	; g_sz2ANV_GIFT_NAME
?g_bRingEventItemTextLoad@@3HA DD 01H DUP (?)		; g_bRingEventItemTextLoad
_BSS	ENDS
CONST	SEGMENT
_g_szRingEventOfflineGift DB '100', 0b5H, 0b7H, ' ', 0b9H, 0c2H, 0b9H, 0ddH
	DB	0c1H, 0f6H, 00H
	ORG $+19
	DB	'10', 0b5H, 0b7H, ' ', 0b9H, 0c2H, 0b9H, 0ddH, 0c1H, 0f6H
	DB	00H
	ORG $+20
	DB	'5', 0b5H, 0b7H, ' ', 0b9H, 0c2H, 0b9H, 0ddH, 0c1H, 0f6H, 00H
	ORG $+21
	DB	'2', 0b5H, 0b7H, ' ', 0b9H, 0c2H, 0b9H, 0ddH, 0c1H, 0f6H, 00H
	ORG $+21
CONST	ENDS
_DATA	SEGMENT
_g_iNpcUpDfLevel_CGATE DD 01H
	DD	02H
	DD	02dc6c0H
	DD	02H
	DD	03H
	DD	02dc6c0H
	DD	03H
	DD	04H
	DD	02dc6c0H
_g_iNpcUpDfLevel_CSTATUE DD 01H
	DD	03H
	DD	02dc6c0H
	DD	02H
	DD	05H
	DD	02dc6c0H
	DD	03H
	DD	07H
	DD	02dc6c0H
_g_iNpcUpMaxHP_CGATE DD 02625a0H
	DD	02H
	DD	0f4240H
	DD	03567e0H
	DD	03H
	DD	0f4240H
	DD	04f5880H
	DD	04H
	DD	0f4240H
_g_iNpcUpMaxHP_CSTATUE DD 02191c0H
	DD	03H
	DD	0f4240H
	DD	033e140H
	DD	05H
	DD	0f4240H
	DD	04c4b40H
	DD	07H
	DD	0f4240H
_g_iNpcUpRgLevel_CSTATUE DD 01H
	DD	03H
	DD	04c4b40H
	DD	02H
	DD	05H
	DD	04c4b40H
	DD	03H
	DD	07H
	DD	04c4b40H
_g_iCsUserReSpawnArea DD 023H
	DD	011H
	DD	090H
	DD	030H
	DD	04aH
	DD	090H
	DD	073H
	DD	09aH
	DD	023H
	DD	011H
	DD	090H
	DD	030H
_g_iNpcDefense_CGATE DD 064H
	DD	0b4H
	DD	012cH
	DD	0208H
_g_iNpcDefense_CSTATUE DD 050H
	DD	0b4H
	DD	0154H
	DD	0226H
_g_iCastleWallStepAxisY DD 071H
	DD	0a0H
	DD	0cbH
_DATA	ENDS
PUBLIC	??_H@YGXPAXIHP6EPAX0@Z@Z			; `vector constructor iterator'
; Function compile flags: /Odtp /ZI
;	COMDAT ??_H@YGXPAXIHP6EPAX0@Z@Z
_TEXT	SEGMENT
___t$ = 8						; size = 4
___s$ = 12						; size = 4
___n$ = 16						; size = 4
___f$ = 20						; size = 4
??_H@YGXPAXIHP6EPAX0@Z@Z PROC				; `vector constructor iterator', COMDAT
  00000	55		 push	 ebp
  00001	8b ec		 mov	 ebp, esp
  00003	83 ec 40	 sub	 esp, 64			; 00000040H
  00006	53		 push	 ebx
  00007	56		 push	 esi
  00008	57		 push	 edi
$LN2@vector:
  00009	8b 45 10	 mov	 eax, DWORD PTR ___n$[ebp]
  0000c	83 e8 01	 sub	 eax, 1
  0000f	89 45 10	 mov	 DWORD PTR ___n$[ebp], eax
  00012	78 11		 js	 SHORT $LN3@vector
  00014	8b 4d 08	 mov	 ecx, DWORD PTR ___t$[ebp]
  00017	ff 55 14	 call	 DWORD PTR ___f$[ebp]
  0001a	8b 45 08	 mov	 eax, DWORD PTR ___t$[ebp]
  0001d	03 45 0c	 add	 eax, DWORD PTR ___s$[ebp]
  00020	89 45 08	 mov	 DWORD PTR ___t$[ebp], eax
  00023	eb e4		 jmp	 SHORT $LN2@vector
$LN3@vector:
  00025	5f		 pop	 edi
  00026	5e		 pop	 esi
  00027	5b		 pop	 ebx
  00028	8b e5		 mov	 esp, ebp
  0002a	5d		 pop	 ebp
  0002b	c2 10 00	 ret	 16			; 00000010H
??_H@YGXPAXIHP6EPAX0@Z@Z ENDP				; `vector constructor iterator'
_TEXT	ENDS
PUBLIC	?EGAnsRegLuckyCoinItemPositionResult@@YAXPAUPMSG_ANS_LUCKYCOIN_REGCOUNT_RESULT@@@Z ; EGAnsRegLuckyCoinItemPositionResult
PUBLIC	?EGAnsRegLuckyCoinItemResult@@YAXPAUPMSG_ANS_LUCKYCOIN_REGCOUNT_RESULT@@@Z ; EGAnsRegLuckyCoinItemResult
PUBLIC	?EGAnsRegXMasSetPayItemResult@@YAXPAUPMSG_XMAS_PAY_ITEM_RESULT@@@Z ; EGAnsRegXMasSetPayItemResult
PUBLIC	?EGAnsRegXMasGetPayItemResult@@YAXPAUPMSG_XMAS_PAY_ITEM_RESULT@@@Z ; EGAnsRegXMasGetPayItemResult
PUBLIC	?EGAnsRegHTOfflineGift@@YAXPAUPMSG_ANS_REG_HT_OFFLINE_GIFT@@@Z ; EGAnsRegHTOfflineGift
PUBLIC	?EGAnsRegDLOfflineGift@@YAXPAUPMSG_ANS_REG_DL_OFFLINE_GIFT@@@Z ; EGAnsRegDLOfflineGift
PUBLIC	?EGAnsRegCCOfflineGift@@YAXPAUPMSG_ANS_REG_CC_OFFLINE_GIFT@@@Z ; EGAnsRegCCOfflineGift
PUBLIC	?EGRecvRegRingGift@@YAXPAUPMSG_ANS_REG_RINGGIFT@@@Z ; EGRecvRegRingGift
PUBLIC	?EGRecv2AnvRegSerial@@YAXPAUPMSG_ANS_2ANIV_SERIAL@@@Z ; EGRecv2AnvRegSerial
PUBLIC	?EGRecvChangeStones@@YAXPAUPMSG_ANS_RESET_EVENTCHIP@@@Z ; EGRecvChangeStones
PUBLIC	?EGRecvDeleteStone@@YAXPAUPMSG_ANS_DELETE_STONES@@@Z ; EGRecvDeleteStone
PUBLIC	?EGRecvRegStone@@YAXPAUPMSG_ANS_REGISTER_STONES@@@Z ; EGRecvRegStone
PUBLIC	?EGRecvStoneInfo@@YAXPAUPMSG_ANS_VIEW_STONES@@@Z ; EGRecvStoneInfo
PUBLIC	?EGRecvChangeRena@@YAXPAUPMSG_ANS_RESET_EVENTCHIP@@@Z ; EGRecvChangeRena
PUBLIC	?EGRecvRegMutoNum@@YAXPAUPMSG_ANS_REGISTER_MUTONUM@@@Z ; EGRecvRegMutoNum
PUBLIC	?EGResultRegEventChip@@YAXPAUPMSG_ANS_REGISTER_EVENTCHIP@@@Z ; EGResultRegEventChip
PUBLIC	?EGRecvEventChipInfo@@YAXPAUPMSG_ANS_VIEW_EC_MN@@@Z ; EGRecvEventChipInfo
PUBLIC	?EventChipEventProtocolCore@@YAXEPAEH@Z		; EventChipEventProtocolCore
; Function compile flags: /Odtp /ZI
; File d:\projects\exteam6.3\source\gameserver\gameserver\event.cpp
_TEXT	SEGMENT
tv65 = -68						; size = 4
_protoNum$ = 8						; size = 1
_aRecv$ = 12						; size = 4
_aLen$ = 16						; size = 4
?EventChipEventProtocolCore@@YAXEPAEH@Z PROC		; EventChipEventProtocolCore

; 18   : {

  00000	55		 push	 ebp
  00001	8b ec		 mov	 ebp, esp
  00003	83 ec 44	 sub	 esp, 68			; 00000044H
  00006	53		 push	 ebx
  00007	56		 push	 esi
  00008	57		 push	 edi

; 19   : 	switch ( protoNum )

  00009	0f b6 45 08	 movzx	 eax, BYTE PTR _protoNum$[ebp]
  0000d	89 45 bc	 mov	 DWORD PTR tv65[ebp], eax
  00010	8b 4d bc	 mov	 ecx, DWORD PTR tv65[ebp]
  00013	83 e9 01	 sub	 ecx, 1
  00016	89 4d bc	 mov	 DWORD PTR tv65[ebp], ecx
  00019	83 7d bc 33	 cmp	 DWORD PTR tv65[ebp], 51	; 00000033H
  0001d	0f 87 1d 01 00
	00		 ja	 $LN24@EventChipE
  00023	8b 55 bc	 mov	 edx, DWORD PTR tv65[ebp]
  00026	0f b6 82 00 00
	00 00		 movzx	 eax, BYTE PTR $LN26@EventChipE[edx]
  0002d	ff 24 85 00 00
	00 00		 jmp	 DWORD PTR $LN27@EventChipE[eax*4]
$LN21@EventChipE:

; 20   : 	{
; 21   : 		case 0x01:
; 22   : 			EGRecvEventChipInfo((PMSG_ANS_VIEW_EC_MN *)aRecv);

  00034	8b 45 0c	 mov	 eax, DWORD PTR _aRecv$[ebp]
  00037	50		 push	 eax
  00038	e8 00 00 00 00	 call	 ?EGRecvEventChipInfo@@YAXPAUPMSG_ANS_VIEW_EC_MN@@@Z ; EGRecvEventChipInfo
  0003d	83 c4 04	 add	 esp, 4

; 23   : 			break;

  00040	e9 fb 00 00 00	 jmp	 $LN24@EventChipE
$LN20@EventChipE:

; 24   : 		case 0x02:
; 25   : 			EGResultRegEventChip((PMSG_ANS_REGISTER_EVENTCHIP *)aRecv);

  00045	8b 45 0c	 mov	 eax, DWORD PTR _aRecv$[ebp]
  00048	50		 push	 eax
  00049	e8 00 00 00 00	 call	 ?EGResultRegEventChip@@YAXPAUPMSG_ANS_REGISTER_EVENTCHIP@@@Z ; EGResultRegEventChip
  0004e	83 c4 04	 add	 esp, 4

; 26   : 			break;

  00051	e9 ea 00 00 00	 jmp	 $LN24@EventChipE
$LN19@EventChipE:

; 27   : 		case 0x03:
; 28   : 			EGRecvRegMutoNum((PMSG_ANS_REGISTER_MUTONUM *)aRecv);

  00056	8b 45 0c	 mov	 eax, DWORD PTR _aRecv$[ebp]
  00059	50		 push	 eax
  0005a	e8 00 00 00 00	 call	 ?EGRecvRegMutoNum@@YAXPAUPMSG_ANS_REGISTER_MUTONUM@@@Z ; EGRecvRegMutoNum
  0005f	83 c4 04	 add	 esp, 4

; 29   : 			break;

  00062	e9 d9 00 00 00	 jmp	 $LN24@EventChipE
$LN18@EventChipE:

; 30   : 		case 0x04:
; 31   : 			EGRecvChangeRena((PMSG_ANS_RESET_EVENTCHIP *)aRecv);

  00067	8b 45 0c	 mov	 eax, DWORD PTR _aRecv$[ebp]
  0006a	50		 push	 eax
  0006b	e8 00 00 00 00	 call	 ?EGRecvChangeRena@@YAXPAUPMSG_ANS_RESET_EVENTCHIP@@@Z ; EGRecvChangeRena
  00070	83 c4 04	 add	 esp, 4

; 32   : 			break;

  00073	e9 c8 00 00 00	 jmp	 $LN24@EventChipE
$LN17@EventChipE:

; 33   : 		case 0x05:
; 34   : 			EGRecvStoneInfo((PMSG_ANS_VIEW_STONES *)aRecv);

  00078	8b 45 0c	 mov	 eax, DWORD PTR _aRecv$[ebp]
  0007b	50		 push	 eax
  0007c	e8 00 00 00 00	 call	 ?EGRecvStoneInfo@@YAXPAUPMSG_ANS_VIEW_STONES@@@Z ; EGRecvStoneInfo
  00081	83 c4 04	 add	 esp, 4

; 35   : 			break;

  00084	e9 b7 00 00 00	 jmp	 $LN24@EventChipE
$LN16@EventChipE:

; 36   : 		case 0x06:
; 37   : 			EGRecvRegStone((PMSG_ANS_REGISTER_STONES *)aRecv);

  00089	8b 45 0c	 mov	 eax, DWORD PTR _aRecv$[ebp]
  0008c	50		 push	 eax
  0008d	e8 00 00 00 00	 call	 ?EGRecvRegStone@@YAXPAUPMSG_ANS_REGISTER_STONES@@@Z ; EGRecvRegStone
  00092	83 c4 04	 add	 esp, 4

; 38   : 			break;

  00095	e9 a6 00 00 00	 jmp	 $LN24@EventChipE
$LN15@EventChipE:

; 39   : 		case 0x07:
; 40   : 			EGRecvDeleteStone((PMSG_ANS_DELETE_STONES *)aRecv);

  0009a	8b 45 0c	 mov	 eax, DWORD PTR _aRecv$[ebp]
  0009d	50		 push	 eax
  0009e	e8 00 00 00 00	 call	 ?EGRecvDeleteStone@@YAXPAUPMSG_ANS_DELETE_STONES@@@Z ; EGRecvDeleteStone
  000a3	83 c4 04	 add	 esp, 4

; 41   : 			break;

  000a6	e9 95 00 00 00	 jmp	 $LN24@EventChipE
$LN14@EventChipE:

; 42   : 		case 0x09:
; 43   : 			EGRecvChangeStones((PMSG_ANS_RESET_EVENTCHIP *)aRecv);

  000ab	8b 45 0c	 mov	 eax, DWORD PTR _aRecv$[ebp]
  000ae	50		 push	 eax
  000af	e8 00 00 00 00	 call	 ?EGRecvChangeStones@@YAXPAUPMSG_ANS_RESET_EVENTCHIP@@@Z ; EGRecvChangeStones
  000b4	83 c4 04	 add	 esp, 4

; 44   : 			break;

  000b7	e9 84 00 00 00	 jmp	 $LN24@EventChipE
$LN13@EventChipE:

; 45   : 		case 0x08:
; 46   : 			EGRecv2AnvRegSerial((PMSG_ANS_2ANIV_SERIAL *)aRecv);

  000bc	8b 45 0c	 mov	 eax, DWORD PTR _aRecv$[ebp]
  000bf	50		 push	 eax
  000c0	e8 00 00 00 00	 call	 ?EGRecv2AnvRegSerial@@YAXPAUPMSG_ANS_2ANIV_SERIAL@@@Z ; EGRecv2AnvRegSerial
  000c5	83 c4 04	 add	 esp, 4

; 47   : 			break;

  000c8	eb 76		 jmp	 SHORT $LN24@EventChipE
$LN12@EventChipE:

; 48   : 		case 0x10:
; 49   : 			EGRecvRegRingGift((PMSG_ANS_REG_RINGGIFT *)aRecv);

  000ca	8b 45 0c	 mov	 eax, DWORD PTR _aRecv$[ebp]
  000cd	50		 push	 eax
  000ce	e8 00 00 00 00	 call	 ?EGRecvRegRingGift@@YAXPAUPMSG_ANS_REG_RINGGIFT@@@Z ; EGRecvRegRingGift
  000d3	83 c4 04	 add	 esp, 4

; 50   : 			break;

  000d6	eb 68		 jmp	 SHORT $LN24@EventChipE
$LN11@EventChipE:

; 51   : 		case 0x15:
; 52   : 			EGAnsRegCCOfflineGift((PMSG_ANS_REG_CC_OFFLINE_GIFT *)aRecv);

  000d8	8b 45 0c	 mov	 eax, DWORD PTR _aRecv$[ebp]
  000db	50		 push	 eax
  000dc	e8 00 00 00 00	 call	 ?EGAnsRegCCOfflineGift@@YAXPAUPMSG_ANS_REG_CC_OFFLINE_GIFT@@@Z ; EGAnsRegCCOfflineGift
  000e1	83 c4 04	 add	 esp, 4

; 53   : 			break;

  000e4	eb 5a		 jmp	 SHORT $LN24@EventChipE
$LN10@EventChipE:

; 54   : 		case 0x16:
; 55   : 			EGAnsRegDLOfflineGift((PMSG_ANS_REG_DL_OFFLINE_GIFT *)aRecv);

  000e6	8b 45 0c	 mov	 eax, DWORD PTR _aRecv$[ebp]
  000e9	50		 push	 eax
  000ea	e8 00 00 00 00	 call	 ?EGAnsRegDLOfflineGift@@YAXPAUPMSG_ANS_REG_DL_OFFLINE_GIFT@@@Z ; EGAnsRegDLOfflineGift
  000ef	83 c4 04	 add	 esp, 4

; 56   : 			break;

  000f2	eb 4c		 jmp	 SHORT $LN24@EventChipE
$LN9@EventChipE:

; 57   : 		case 0x17:
; 58   : 			EGAnsRegHTOfflineGift((PMSG_ANS_REG_HT_OFFLINE_GIFT *)aRecv);

  000f4	8b 45 0c	 mov	 eax, DWORD PTR _aRecv$[ebp]
  000f7	50		 push	 eax
  000f8	e8 00 00 00 00	 call	 ?EGAnsRegHTOfflineGift@@YAXPAUPMSG_ANS_REG_HT_OFFLINE_GIFT@@@Z ; EGAnsRegHTOfflineGift
  000fd	83 c4 04	 add	 esp, 4

; 59   : 			break;

  00100	eb 3e		 jmp	 SHORT $LN24@EventChipE

; 60   : 		case 0x23: //season4.5 add-on start
; 61   : #if(PC_BANG_POINT_SYSTEM==1)
; 62   : 			g_PCBangPointSystem.EGAnsPcBangPointInfo((PMSG_ANS_REG_PC_POINT *)aRecv);
; 63   : #endif
; 64   : 			break;

  00102	eb 3c		 jmp	 SHORT $LN24@EventChipE

; 65   : 		case 0x24:
; 66   : #if(PC_BANG_POINT_SYSTEM==1)
; 67   : 			g_PCBangPointSystem.EGAnsUserFirstPcBangUpdatePoint((PMSG_ANS_REG_PC_POINT *)aRecv);
; 68   : #endif
; 69   : 			break;

  00104	eb 3a		 jmp	 SHORT $LN24@EventChipE

; 70   : 		case 0x29:
; 71   : #if(PC_BANG_POINT_SYSTEM==1)
; 72   : 			g_PCBangPointSystem.EGAnsUpdatePcBangResetPointInfo((PMSG_ANS_REG_PC_POINT *)aRecv);
; 73   : #endif
; 74   : 			break;

  00106	eb 38		 jmp	 SHORT $LN24@EventChipE

; 75   : 		case 0x30:
; 76   : #if(PC_BANG_POINT_SYSTEM==1)
; 77   : 			g_PCBangPointSystem.EGAnsUserPcBangUpdatePoint((PMSG_ANS_REG_PC_POINT *)aRecv);
; 78   : #endif
; 79   : 			break;

  00108	eb 36		 jmp	 SHORT $LN24@EventChipE
$LN4@EventChipE:

; 80   : 		case 0x31:
; 81   : 			EGAnsRegXMasGetPayItemResult((PMSG_XMAS_PAY_ITEM_RESULT *)aRecv);

  0010a	8b 45 0c	 mov	 eax, DWORD PTR _aRecv$[ebp]
  0010d	50		 push	 eax
  0010e	e8 00 00 00 00	 call	 ?EGAnsRegXMasGetPayItemResult@@YAXPAUPMSG_XMAS_PAY_ITEM_RESULT@@@Z ; EGAnsRegXMasGetPayItemResult
  00113	83 c4 04	 add	 esp, 4

; 82   : 			break;

  00116	eb 28		 jmp	 SHORT $LN24@EventChipE
$LN3@EventChipE:

; 83   : 		case 0x32:
; 84   : 			EGAnsRegXMasSetPayItemResult((PMSG_XMAS_PAY_ITEM_RESULT *)aRecv);

  00118	8b 45 0c	 mov	 eax, DWORD PTR _aRecv$[ebp]
  0011b	50		 push	 eax
  0011c	e8 00 00 00 00	 call	 ?EGAnsRegXMasSetPayItemResult@@YAXPAUPMSG_XMAS_PAY_ITEM_RESULT@@@Z ; EGAnsRegXMasSetPayItemResult
  00121	83 c4 04	 add	 esp, 4

; 85   : 			break;

  00124	eb 1a		 jmp	 SHORT $LN24@EventChipE
$LN2@EventChipE:

; 86   : 		case 0x33:
; 87   : 			EGAnsRegLuckyCoinItemResult((PMSG_ANS_LUCKYCOIN_REGCOUNT_RESULT *)aRecv);

  00126	8b 45 0c	 mov	 eax, DWORD PTR _aRecv$[ebp]
  00129	50		 push	 eax
  0012a	e8 00 00 00 00	 call	 ?EGAnsRegLuckyCoinItemResult@@YAXPAUPMSG_ANS_LUCKYCOIN_REGCOUNT_RESULT@@@Z ; EGAnsRegLuckyCoinItemResult
  0012f	83 c4 04	 add	 esp, 4

; 88   : 			break;

  00132	eb 0c		 jmp	 SHORT $LN24@EventChipE
$LN1@EventChipE:

; 89   : 		case 0x34:
; 90   : 			EGAnsRegLuckyCoinItemPositionResult((PMSG_ANS_LUCKYCOIN_REGCOUNT_RESULT *)aRecv);

  00134	8b 45 0c	 mov	 eax, DWORD PTR _aRecv$[ebp]
  00137	50		 push	 eax
  00138	e8 00 00 00 00	 call	 ?EGAnsRegLuckyCoinItemPositionResult@@YAXPAUPMSG_ANS_LUCKYCOIN_REGCOUNT_RESULT@@@Z ; EGAnsRegLuckyCoinItemPositionResult
  0013d	83 c4 04	 add	 esp, 4
$LN24@EventChipE:

; 91   : 			break;//season4.5 add-on end
; 92   : 	}
; 93   : }

  00140	5f		 pop	 edi
  00141	5e		 pop	 esi
  00142	5b		 pop	 ebx
  00143	8b e5		 mov	 esp, ebp
  00145	5d		 pop	 ebp
  00146	c3		 ret	 0
  00147	90		 npad	 1
$LN27@EventChipE:
  00148	00 00 00 00	 DD	 $LN21@EventChipE
  0014c	00 00 00 00	 DD	 $LN20@EventChipE
  00150	00 00 00 00	 DD	 $LN19@EventChipE
  00154	00 00 00 00	 DD	 $LN18@EventChipE
  00158	00 00 00 00	 DD	 $LN17@EventChipE
  0015c	00 00 00 00	 DD	 $LN16@EventChipE
  00160	00 00 00 00	 DD	 $LN15@EventChipE
  00164	00 00 00 00	 DD	 $LN13@EventChipE
  00168	00 00 00 00	 DD	 $LN14@EventChipE
  0016c	00 00 00 00	 DD	 $LN12@EventChipE
  00170	00 00 00 00	 DD	 $LN11@EventChipE
  00174	00 00 00 00	 DD	 $LN10@EventChipE
  00178	00 00 00 00	 DD	 $LN9@EventChipE
  0017c	00 00 00 00	 DD	 $LN4@EventChipE
  00180	00 00 00 00	 DD	 $LN3@EventChipE
  00184	00 00 00 00	 DD	 $LN2@EventChipE
  00188	00 00 00 00	 DD	 $LN1@EventChipE
  0018c	00 00 00 00	 DD	 $LN24@EventChipE
$LN26@EventChipE:
  00190	00		 DB	 0
  00191	01		 DB	 1
  00192	02		 DB	 2
  00193	03		 DB	 3
  00194	04		 DB	 4
  00195	05		 DB	 5
  00196	06		 DB	 6
  00197	07		 DB	 7
  00198	08		 DB	 8
  00199	11		 DB	 17			; 00000011H
  0019a	11		 DB	 17			; 00000011H
  0019b	11		 DB	 17			; 00000011H
  0019c	11		 DB	 17			; 00000011H
  0019d	11		 DB	 17			; 00000011H
  0019e	11		 DB	 17			; 00000011H
  0019f	09		 DB	 9
  001a0	11		 DB	 17			; 00000011H
  001a1	11		 DB	 17			; 00000011H
  001a2	11		 DB	 17			; 00000011H
  001a3	11		 DB	 17			; 00000011H
  001a4	0a		 DB	 10			; 0000000aH
  001a5	0b		 DB	 11			; 0000000bH
  001a6	0c		 DB	 12			; 0000000cH
  001a7	11		 DB	 17			; 00000011H
  001a8	11		 DB	 17			; 00000011H
  001a9	11		 DB	 17			; 00000011H
  001aa	11		 DB	 17			; 00000011H
  001ab	11		 DB	 17			; 00000011H
  001ac	11		 DB	 17			; 00000011H
  001ad	11		 DB	 17			; 00000011H
  001ae	11		 DB	 17			; 00000011H
  001af	11		 DB	 17			; 00000011H
  001b0	11		 DB	 17			; 00000011H
  001b1	11		 DB	 17			; 00000011H
  001b2	11		 DB	 17			; 00000011H
  001b3	11		 DB	 17			; 00000011H
  001b4	11		 DB	 17			; 00000011H
  001b5	11		 DB	 17			; 00000011H
  001b6	11		 DB	 17			; 00000011H
  001b7	11		 DB	 17			; 00000011H
  001b8	11		 DB	 17			; 00000011H
  001b9	11		 DB	 17			; 00000011H
  001ba	11		 DB	 17			; 00000011H
  001bb	11		 DB	 17			; 00000011H
  001bc	11		 DB	 17			; 00000011H
  001bd	11		 DB	 17			; 00000011H
  001be	11		 DB	 17			; 00000011H
  001bf	11		 DB	 17			; 00000011H
  001c0	0d		 DB	 13			; 0000000dH
  001c1	0e		 DB	 14			; 0000000eH
  001c2	0f		 DB	 15			; 0000000fH
  001c3	10		 DB	 16			; 00000010H
?EventChipEventProtocolCore@@YAXEPAEH@Z ENDP		; EventChipEventProtocolCore
_TEXT	ENDS
PUBLIC	??_C@_0CB@JKOKDAGE@Can?5not?5connect?5EventChip?5Server@ ; `string'
PUBLIC	?DataSendEventChip@@YAXPADH@Z			; DataSendEventChip
EXTRN	?DataSend@wsJoinServerCli@@QAEHPADH@Z:PROC	; wsJoinServerCli::DataSend
EXTRN	?LogAddTD@@3P6AXPADZZA:DWORD			; LogAddTD
EXTRN	?GMEventChipServerConnect@@YAHPADK@Z:PROC	; GMEventChipServerConnect
EXTRN	?gEventChipServerIp@@3PADA:BYTE			; gEventChipServerIp
EXTRN	?CreateSocket@MyWinsockBase@@QAEHPAUHWND__@@@Z:PROC ; MyWinsockBase::CreateSocket
EXTRN	?ghWnd@@3PAUHWND__@@A:DWORD			; ghWnd
EXTRN	?Close@MyWinsockBase@@QAEHXZ:PROC		; MyWinsockBase::Close
EXTRN	?wsEvenChipServerCli@@3VwsJoinServerCli@@A:BYTE	; wsEvenChipServerCli
EXTRN	?EventChipServerConnect@@3HA:DWORD		; EventChipServerConnect
EXTRN	?IsEventChipServerConnected@@3HA:DWORD		; IsEventChipServerConnected
;	COMDAT ??_C@_0CB@JKOKDAGE@Can?5not?5connect?5EventChip?5Server@
CONST	SEGMENT
??_C@_0CB@JKOKDAGE@Can?5not?5connect?5EventChip?5Server@ DB 'Can not conn'
	DB	'ect EventChip Server', 00H			; `string'
; Function compile flags: /Odtp /ZI
CONST	ENDS
_TEXT	SEGMENT
_pMsg$ = 8						; size = 4
_size$ = 12						; size = 4
?DataSendEventChip@@YAXPADH@Z PROC			; DataSendEventChip

; 96   : {

  001d0	55		 push	 ebp
  001d1	8b ec		 mov	 ebp, esp
  001d3	83 ec 40	 sub	 esp, 64			; 00000040H
  001d6	53		 push	 ebx
  001d7	56		 push	 esi
  001d8	57		 push	 edi

; 97   : 	if ( IsEventChipServerConnected == FALSE && ::EventChipServerConnect != FALSE )

  001d9	83 3d 00 00 00
	00 00		 cmp	 DWORD PTR ?IsEventChipServerConnected@@3HA, 0 ; IsEventChipServerConnected
  001e0	75 5d		 jne	 SHORT $LN3@DataSendEv
  001e2	83 3d 00 00 00
	00 00		 cmp	 DWORD PTR ?EventChipServerConnect@@3HA, 0 ; EventChipServerConnect
  001e9	74 54		 je	 SHORT $LN3@DataSendEv

; 98   : 	{
; 99   : 		wsEvenChipServerCli.Close();

  001eb	b9 04 00 00 00	 mov	 ecx, OFFSET ?wsEvenChipServerCli@@3VwsJoinServerCli@@A+4
  001f0	e8 00 00 00 00	 call	 ?Close@MyWinsockBase@@QAEHXZ ; MyWinsockBase::Close

; 100  : 		wsEvenChipServerCli.CreateSocket(ghWnd);

  001f5	a1 00 00 00 00	 mov	 eax, DWORD PTR ?ghWnd@@3PAUHWND__@@A ; ghWnd
  001fa	50		 push	 eax
  001fb	b9 04 00 00 00	 mov	 ecx, OFFSET ?wsEvenChipServerCli@@3VwsJoinServerCli@@A+4
  00200	e8 00 00 00 00	 call	 ?CreateSocket@MyWinsockBase@@QAEHPAUHWND__@@@Z ; MyWinsockBase::CreateSocket

; 101  : 		if ( GMEventChipServerConnect(::gEventChipServerIp, WM_GM_EVENTCHIP_CLIENT_MSG_PROC) == FALSE )

  00205	68 0d 04 00 00	 push	 1037			; 0000040dH
  0020a	68 00 00 00 00	 push	 OFFSET ?gEventChipServerIp@@3PADA ; gEventChipServerIp
  0020f	e8 00 00 00 00	 call	 ?GMEventChipServerConnect@@YAHPADK@Z ; GMEventChipServerConnect
  00214	83 c4 08	 add	 esp, 8
  00217	85 c0		 test	 eax, eax
  00219	75 1a		 jne	 SHORT $LN2@DataSendEv

; 102  : 		{
; 103  : 			IsEventChipServerConnected = FALSE;

  0021b	c7 05 00 00 00
	00 00 00 00 00	 mov	 DWORD PTR ?IsEventChipServerConnected@@3HA, 0 ; IsEventChipServerConnected

; 104  : 			LogAddTD("Can not connect EventChip Server");

  00225	68 00 00 00 00	 push	 OFFSET ??_C@_0CB@JKOKDAGE@Can?5not?5connect?5EventChip?5Server@
  0022a	ff 15 00 00 00
	00		 call	 DWORD PTR ?LogAddTD@@3P6AXPADZZA ; LogAddTD
  00230	83 c4 04	 add	 esp, 4

; 105  : 
; 106  : 			return;

  00233	eb 2e		 jmp	 SHORT $LN4@DataSendEv
$LN2@DataSendEv:

; 107  : 		}
; 108  : 
; 109  : 		::IsEventChipServerConnected = TRUE;

  00235	c7 05 00 00 00
	00 01 00 00 00	 mov	 DWORD PTR ?IsEventChipServerConnected@@3HA, 1 ; IsEventChipServerConnected
$LN3@DataSendEv:

; 110  : 
; 111  : 	}
; 112  : 
; 113  : 	if ( ::IsEventChipServerConnected != FALSE && ::EventChipServerConnect != FALSE )

  0023f	83 3d 00 00 00
	00 00		 cmp	 DWORD PTR ?IsEventChipServerConnected@@3HA, 0 ; IsEventChipServerConnected
  00246	74 1b		 je	 SHORT $LN4@DataSendEv
  00248	83 3d 00 00 00
	00 00		 cmp	 DWORD PTR ?EventChipServerConnect@@3HA, 0 ; EventChipServerConnect
  0024f	74 12		 je	 SHORT $LN4@DataSendEv

; 114  : 	{
; 115  : 		::wsEvenChipServerCli.DataSend((char *)pMsg, size);

  00251	8b 45 0c	 mov	 eax, DWORD PTR _size$[ebp]
  00254	50		 push	 eax
  00255	8b 4d 08	 mov	 ecx, DWORD PTR _pMsg$[ebp]
  00258	51		 push	 ecx
  00259	b9 00 00 00 00	 mov	 ecx, OFFSET ?wsEvenChipServerCli@@3VwsJoinServerCli@@A ; wsEvenChipServerCli
  0025e	e8 00 00 00 00	 call	 ?DataSend@wsJoinServerCli@@QAEHPADH@Z ; wsJoinServerCli::DataSend
$LN4@DataSendEv:

; 116  : 	}
; 117  : }

  00263	5f		 pop	 edi
  00264	5e		 pop	 esi
  00265	5b		 pop	 ebx
  00266	8b e5		 mov	 esp, ebp
  00268	5d		 pop	 ebp
  00269	c3		 ret	 0
?DataSendEventChip@@YAXPADH@Z ENDP			; DataSendEventChip
_TEXT	ENDS
PUBLIC	?EledoradoBoxOpenEven@@YAXPAUOBJECTSTRUCT@@HHH@Z ; EledoradoBoxOpenEven
EXTRN	?DropItem@CProbabilityItemBag@@QAEHHEEE@Z:PROC	; CProbabilityItemBag::DropItem
EXTRN	?KanturItemBag@@3PAVCProbabilityItemBag@@A:DWORD ; KanturItemBag
EXTRN	?DevilLizardKingItemBag@@3PAVCProbabilityItemBag@@A:DWORD ; DevilLizardKingItemBag
EXTRN	?GoldDerconItemBag@@3PAVCProbabilityItemBag@@A:DWORD ; GoldDerconItemBag
EXTRN	?TitanItemBag@@3PAVCProbabilityItemBag@@A:DWORD	; TitanItemBag
EXTRN	?GoldGoblenItemBag@@3PAVCProbabilityItemBag@@A:DWORD ; GoldGoblenItemBag
; Function compile flags: /Odtp /ZI
_TEXT	SEGMENT
tv64 = -72						; size = 4
_EledoradoBox$ = -4					; size = 4
_lpObj$ = 8						; size = 4
_boxtype$ = 12						; size = 4
_addlevel$ = 16						; size = 4
_money$ = 20						; size = 4
?EledoradoBoxOpenEven@@YAXPAUOBJECTSTRUCT@@HHH@Z PROC	; EledoradoBoxOpenEven

; 120  : {

  00270	55		 push	 ebp
  00271	8b ec		 mov	 ebp, esp
  00273	83 ec 48	 sub	 esp, 72			; 00000048H
  00276	53		 push	 ebx
  00277	56		 push	 esi
  00278	57		 push	 edi

; 121  : 	CProbabilityItemBag * EledoradoBox = NULL;

  00279	c7 45 fc 00 00
	00 00		 mov	 DWORD PTR _EledoradoBox$[ebp], 0

; 122  : 
; 123  : 	switch ( boxtype )

  00280	8b 45 0c	 mov	 eax, DWORD PTR _boxtype$[ebp]
  00283	89 45 b8	 mov	 DWORD PTR tv64[ebp], eax
  00286	8b 4d b8	 mov	 ecx, DWORD PTR tv64[ebp]
  00289	83 e9 08	 sub	 ecx, 8
  0028c	89 4d b8	 mov	 DWORD PTR tv64[ebp], ecx
  0028f	83 7d b8 04	 cmp	 DWORD PTR tv64[ebp], 4
  00293	77 3a		 ja	 SHORT $LN7@EledoradoB
  00295	8b 55 b8	 mov	 edx, DWORD PTR tv64[ebp]
  00298	ff 24 95 00 00
	00 00		 jmp	 DWORD PTR $LN11@EledoradoB[edx*4]
$LN6@EledoradoB:

; 124  : 	{
; 125  : 		case 8:
; 126  : 			EledoradoBox = ::GoldGoblenItemBag;

  0029f	a1 00 00 00 00	 mov	 eax, DWORD PTR ?GoldGoblenItemBag@@3PAVCProbabilityItemBag@@A ; GoldGoblenItemBag
  002a4	89 45 fc	 mov	 DWORD PTR _EledoradoBox$[ebp], eax

; 127  : 			break;

  002a7	eb 26		 jmp	 SHORT $LN7@EledoradoB
$LN5@EledoradoB:

; 128  : 		case 9:
; 129  : 			EledoradoBox = ::TitanItemBag;

  002a9	a1 00 00 00 00	 mov	 eax, DWORD PTR ?TitanItemBag@@3PAVCProbabilityItemBag@@A ; TitanItemBag
  002ae	89 45 fc	 mov	 DWORD PTR _EledoradoBox$[ebp], eax

; 130  : 			break;

  002b1	eb 1c		 jmp	 SHORT $LN7@EledoradoB
$LN4@EledoradoB:

; 131  : 		case 10:
; 132  : 			EledoradoBox = ::GoldDerconItemBag;

  002b3	a1 00 00 00 00	 mov	 eax, DWORD PTR ?GoldDerconItemBag@@3PAVCProbabilityItemBag@@A ; GoldDerconItemBag
  002b8	89 45 fc	 mov	 DWORD PTR _EledoradoBox$[ebp], eax

; 133  : 			break;

  002bb	eb 12		 jmp	 SHORT $LN7@EledoradoB
$LN3@EledoradoB:

; 134  : 		case 11:
; 135  : 			EledoradoBox = ::DevilLizardKingItemBag;

  002bd	a1 00 00 00 00	 mov	 eax, DWORD PTR ?DevilLizardKingItemBag@@3PAVCProbabilityItemBag@@A ; DevilLizardKingItemBag
  002c2	89 45 fc	 mov	 DWORD PTR _EledoradoBox$[ebp], eax

; 136  : 			break;

  002c5	eb 08		 jmp	 SHORT $LN7@EledoradoB
$LN2@EledoradoB:

; 137  : 		case 12:
; 138  : 			EledoradoBox = ::KanturItemBag;

  002c7	a1 00 00 00 00	 mov	 eax, DWORD PTR ?KanturItemBag@@3PAVCProbabilityItemBag@@A ; KanturItemBag
  002cc	89 45 fc	 mov	 DWORD PTR _EledoradoBox$[ebp], eax
$LN7@EledoradoB:

; 139  : 			break;
; 140  : 	}
; 141  : 
; 142  : 	if ( EledoradoBox == NULL )

  002cf	83 7d fc 00	 cmp	 DWORD PTR _EledoradoBox$[ebp], 0
  002d3	75 02		 jne	 SHORT $LN1@EledoradoB

; 143  : 	{
; 144  : 		return;

  002d5	eb 2f		 jmp	 SHORT $LN9@EledoradoB
$LN1@EledoradoB:

; 145  : 	}
; 146  : 
; 147  : 	EledoradoBox->DropItem(lpObj->m_Index,lpObj->MapNumber,lpObj->X, lpObj->Y);

  002d7	8b 45 08	 mov	 eax, DWORD PTR _lpObj$[ebp]
  002da	0f b6 88 46 01
	00 00		 movzx	 ecx, BYTE PTR [eax+326]
  002e1	51		 push	 ecx
  002e2	8b 55 08	 mov	 edx, DWORD PTR _lpObj$[ebp]
  002e5	0f b6 82 44 01
	00 00		 movzx	 eax, BYTE PTR [edx+324]
  002ec	50		 push	 eax
  002ed	8b 4d 08	 mov	 ecx, DWORD PTR _lpObj$[ebp]
  002f0	0f b6 91 49 01
	00 00		 movzx	 edx, BYTE PTR [ecx+329]
  002f7	52		 push	 edx
  002f8	8b 45 08	 mov	 eax, DWORD PTR _lpObj$[ebp]
  002fb	8b 08		 mov	 ecx, DWORD PTR [eax]
  002fd	51		 push	 ecx
  002fe	8b 4d fc	 mov	 ecx, DWORD PTR _EledoradoBox$[ebp]
  00301	e8 00 00 00 00	 call	 ?DropItem@CProbabilityItemBag@@QAEHHEEE@Z ; CProbabilityItemBag::DropItem
$LN9@EledoradoB:

; 148  : }

  00306	5f		 pop	 edi
  00307	5e		 pop	 esi
  00308	5b		 pop	 ebx
  00309	8b e5		 mov	 esp, ebp
  0030b	5d		 pop	 ebp
  0030c	c3		 ret	 0
  0030d	8d 49 00	 npad	 3
$LN11@EledoradoB:
  00310	00 00 00 00	 DD	 $LN6@EledoradoB
  00314	00 00 00 00	 DD	 $LN5@EledoradoB
  00318	00 00 00 00	 DD	 $LN4@EledoradoB
  0031c	00 00 00 00	 DD	 $LN3@EledoradoB
  00320	00 00 00 00	 DD	 $LN2@EledoradoB
?EledoradoBoxOpenEven@@YAXPAUOBJECTSTRUCT@@HHH@Z ENDP	; EledoradoBoxOpenEven
_TEXT	ENDS
PUBLIC	??_C@_0GG@LLIIPLAL@?$FL?$CFs?$FN?$FL?$CFs?$FN?$FLLucky?5Box?5Item?5Drop?$FN?$FLEv@ ; `string'
PUBLIC	__real@00000000
PUBLIC	?GetBagCount@CItemBag@@QAEHXZ			; CItemBag::GetBagCount
PUBLIC	??_C@_0BO@CCIJBOCK@EventChip?5Event?5ItemDrop?5Rena?$AA@ ; `string'
PUBLIC	__real@437f0000
PUBLIC	__$ArrayPad$
PUBLIC	?EventChipOpenEven@@YAXPAUOBJECTSTRUCT@@@Z	; EventChipOpenEven
EXTRN	?MoneyItemDrop@MapClass@@QAEHHHH@Z:PROC		; MapClass::MoneyItemDrop
EXTRN	?MapC@@3PAVMapClass@@A:BYTE			; MapC
EXTRN	?GetName@CItem@@QAEPADXZ:PROC			; CItem::GetName
EXTRN	?Convert@CItem@@QAEXHEEEEEEPAEEEE@Z:PROC	; CItem::Convert
EXTRN	??0CItem@@QAE@XZ:PROC				; CItem::CItem
EXTRN	?DataSend@@YAHHPAEK@Z:PROC			; DataSend
EXTRN	?MsgSendV2@@YAXPAUOBJECTSTRUCT@@PAEH@Z:PROC	; MsgSendV2
EXTRN	?PHeadSubSetB@@YAXPAEEEH@Z:PROC			; PHeadSubSetB
EXTRN	?g_ItemDropRateForBoxOfGold@@3HA:DWORD		; g_ItemDropRateForBoxOfGold
EXTRN	?LuckboxItemBag@@3PAVCItemBag@@A:DWORD		; LuckboxItemBag
EXTRN	?LogAdd@@3P6AXPADZZA:DWORD			; LogAdd
EXTRN	?ItemSerialCreateSend@@YAXHEEEHEEEEEHEE@Z:PROC	; ItemSerialCreateSend
EXTRN	?ItemGetNumberMake@@YAHHH@Z:PROC		; ItemGetNumberMake
EXTRN	?g_EventChipDropRateForBoxOfGold@@3HA:DWORD	; g_EventChipDropRateForBoxOfGold
EXTRN	_rand:PROC
EXTRN	___security_cookie:DWORD
EXTRN	__fltused:DWORD
EXTRN	@__security_check_cookie@4:PROC
;	COMDAT ??_C@_0GG@LLIIPLAL@?$FL?$CFs?$FN?$FL?$CFs?$FN?$FLLucky?5Box?5Item?5Drop?$FN?$FLEv@
CONST	SEGMENT
??_C@_0GG@LLIIPLAL@?$FL?$CFs?$FN?$FL?$CFs?$FN?$FLLucky?5Box?5Item?5Drop?$FN?$FLEv@ DB '['
	DB	'%s][%s][Lucky Box Item Drop][Event Chip] : (%d)(X:%d/Y:%d) It'
	DB	'em:%s(%d) Level:%d Op1:%d Op2:%d Op3:%d', 00H ; `string'
CONST	ENDS
;	COMDAT __real@00000000
CONST	SEGMENT
__real@00000000 DD 000000000r			; 0
CONST	ENDS
;	COMDAT ??_C@_0BO@CCIJBOCK@EventChip?5Event?5ItemDrop?5Rena?$AA@
CONST	SEGMENT
??_C@_0BO@CCIJBOCK@EventChip?5Event?5ItemDrop?5Rena?$AA@ DB 'EventChip Ev'
	DB	'ent ItemDrop Rena', 00H			; `string'
CONST	ENDS
;	COMDAT __real@437f0000
CONST	SEGMENT
__real@437f0000 DD 0437f0000r			; 255
; Function compile flags: /Odtp /ZI
CONST	ENDS
_TEXT	SEGMENT
tv387 = -340						; size = 4
tv307 = -340						; size = 4
tv385 = -336						; size = 4
tv305 = -336						; size = 4
tv382 = -330						; size = 2
tv302 = -330						; size = 2
_NewItem$233298 = -264					; size = 212
_pMsg$233294 = -52					; size = 7
_ExOption$ = -44					; size = 4
_DropItemNum$ = -40					; size = 4
_Option3$ = -36						; size = 4
_Option2$ = -32						; size = 4
_Option1$ = -28						; size = 4
_y$ = -24						; size = 4
_x$ = -20						; size = 4
_level$ = -16						; size = 4
_type$ = -12						; size = 4
_dur$ = -8						; size = 4
__$ArrayPad$ = -4					; size = 4
_lpObj$ = 8						; size = 4
?EventChipOpenEven@@YAXPAUOBJECTSTRUCT@@@Z PROC		; EventChipOpenEven

; 151  : {

  00330	55		 push	 ebp
  00331	8b ec		 mov	 ebp, esp
  00333	81 ec 54 01 00
	00		 sub	 esp, 340		; 00000154H
  00339	a1 00 00 00 00	 mov	 eax, DWORD PTR ___security_cookie
  0033e	33 c5		 xor	 eax, ebp
  00340	89 45 fc	 mov	 DWORD PTR __$ArrayPad$[ebp], eax
  00343	53		 push	 ebx
  00344	56		 push	 esi
  00345	57		 push	 edi

; 152  : 	float dur;
; 153  : 	int type;
; 154  : 	int level;
; 155  : 	int x;
; 156  : 	int y;
; 157  : 	int Option1 = 0;

  00346	c7 45 e4 00 00
	00 00		 mov	 DWORD PTR _Option1$[ebp], 0

; 158  : 	int Option2 = 0;

  0034d	c7 45 e0 00 00
	00 00		 mov	 DWORD PTR _Option2$[ebp], 0

; 159  : 	int Option3 = 0;

  00354	c7 45 dc 00 00
	00 00		 mov	 DWORD PTR _Option3$[ebp], 0

; 160  : 	int DropItemNum;
; 161  : 	int ExOption = 0;

  0035b	c7 45 d4 00 00
	00 00		 mov	 DWORD PTR _ExOption$[ebp], 0

; 162  : 
; 163  : 	if ( (rand()%100) < ::g_EventChipDropRateForBoxOfGold )

  00362	e8 00 00 00 00	 call	 _rand
  00367	99		 cdq
  00368	b9 64 00 00 00	 mov	 ecx, 100		; 00000064H
  0036d	f7 f9		 idiv	 ecx
  0036f	3b 15 00 00 00
	00		 cmp	 edx, DWORD PTR ?g_EventChipDropRateForBoxOfGold@@3HA ; g_EventChipDropRateForBoxOfGold
  00375	0f 8d c6 00 00
	00		 jge	 $LN14@EventChipO

; 164  : 	{
; 165  : 		dur = 255.0f;

  0037b	d9 05 00 00 00
	00		 fld	 DWORD PTR __real@437f0000
  00381	d9 5d f8	 fstp	 DWORD PTR _dur$[ebp]

; 166  : 		x = lpObj->X;

  00384	8b 45 08	 mov	 eax, DWORD PTR _lpObj$[ebp]
  00387	0f bf 88 44 01
	00 00		 movsx	 ecx, WORD PTR [eax+324]
  0038e	89 4d ec	 mov	 DWORD PTR _x$[ebp], ecx

; 167  : 		y = lpObj->Y;

  00391	8b 45 08	 mov	 eax, DWORD PTR _lpObj$[ebp]
  00394	0f bf 88 46 01
	00 00		 movsx	 ecx, WORD PTR [eax+326]
  0039b	89 4d e8	 mov	 DWORD PTR _y$[ebp], ecx

; 168  : 		level = 0;

  0039e	c7 45 f0 00 00
	00 00		 mov	 DWORD PTR _level$[ebp], 0

; 169  : 		type = ItemGetNumberMake(14, 21);

  003a5	6a 15		 push	 21			; 00000015H
  003a7	6a 0e		 push	 14			; 0000000eH
  003a9	e8 00 00 00 00	 call	 ?ItemGetNumberMake@@YAHHH@Z ; ItemGetNumberMake
  003ae	83 c4 08	 add	 esp, 8
  003b1	89 45 f4	 mov	 DWORD PTR _type$[ebp], eax

; 170  : 		::ItemSerialCreateSend(lpObj->m_Index, (BYTE)lpObj->MapNumber, (BYTE)x, (BYTE)y, type, (BYTE)level, (BYTE)dur, (BYTE)Option1, (BYTE)Option2, (BYTE)Option3, lpObj->m_Index, 0, 0);

  003b4	6a 00		 push	 0
  003b6	6a 00		 push	 0
  003b8	8b 45 08	 mov	 eax, DWORD PTR _lpObj$[ebp]
  003bb	8b 08		 mov	 ecx, DWORD PTR [eax]
  003bd	51		 push	 ecx
  003be	0f b6 55 dc	 movzx	 edx, BYTE PTR _Option3$[ebp]
  003c2	52		 push	 edx
  003c3	0f b6 45 e0	 movzx	 eax, BYTE PTR _Option2$[ebp]
  003c7	50		 push	 eax
  003c8	0f b6 4d e4	 movzx	 ecx, BYTE PTR _Option1$[ebp]
  003cc	51		 push	 ecx
  003cd	d9 45 f8	 fld	 DWORD PTR _dur$[ebp]
  003d0	d9 bd b6 fe ff
	ff		 fnstcw	 WORD PTR tv302[ebp]
  003d6	0f b7 85 b6 fe
	ff ff		 movzx	 eax, WORD PTR tv302[ebp]
  003dd	0d 00 0c 00 00	 or	 eax, 3072		; 00000c00H
  003e2	89 85 b0 fe ff
	ff		 mov	 DWORD PTR tv305[ebp], eax
  003e8	d9 ad b0 fe ff
	ff		 fldcw	 WORD PTR tv305[ebp]
  003ee	db 9d ac fe ff
	ff		 fistp	 DWORD PTR tv307[ebp]
  003f4	d9 ad b6 fe ff
	ff		 fldcw	 WORD PTR tv302[ebp]
  003fa	0f b6 95 ac fe
	ff ff		 movzx	 edx, BYTE PTR tv307[ebp]
  00401	52		 push	 edx
  00402	0f b6 45 f0	 movzx	 eax, BYTE PTR _level$[ebp]
  00406	50		 push	 eax
  00407	8b 4d f4	 mov	 ecx, DWORD PTR _type$[ebp]
  0040a	51		 push	 ecx
  0040b	0f b6 55 e8	 movzx	 edx, BYTE PTR _y$[ebp]
  0040f	52		 push	 edx
  00410	0f b6 45 ec	 movzx	 eax, BYTE PTR _x$[ebp]
  00414	50		 push	 eax
  00415	8b 4d 08	 mov	 ecx, DWORD PTR _lpObj$[ebp]
  00418	0f b6 91 49 01
	00 00		 movzx	 edx, BYTE PTR [ecx+329]
  0041f	52		 push	 edx
  00420	8b 45 08	 mov	 eax, DWORD PTR _lpObj$[ebp]
  00423	8b 08		 mov	 ecx, DWORD PTR [eax]
  00425	51		 push	 ecx
  00426	e8 00 00 00 00	 call	 ?ItemSerialCreateSend@@YAXHEEEHEEEEEHEE@Z ; ItemSerialCreateSend
  0042b	83 c4 34	 add	 esp, 52			; 00000034H

; 171  : 		LogAdd("EventChip Event ItemDrop Rena");

  0042e	68 00 00 00 00	 push	 OFFSET ??_C@_0BO@CCIJBOCK@EventChip?5Event?5ItemDrop?5Rena?$AA@
  00433	ff 15 00 00 00
	00		 call	 DWORD PTR ?LogAdd@@3P6AXPADZZA ; LogAdd
  00439	83 c4 04	 add	 esp, 4

; 172  : 
; 173  : 		return;

  0043c	e9 ab 04 00 00	 jmp	 $LN15@EventChipO
$LN14@EventChipO:

; 174  : 	}
; 175  : 
; 176  : 	if ( LuckboxItemBag == NULL )

  00441	83 3d 00 00 00
	00 00		 cmp	 DWORD PTR ?LuckboxItemBag@@3PAVCItemBag@@A, 0 ; LuckboxItemBag
  00448	75 05		 jne	 SHORT $LN13@EventChipO

; 177  : 	{
; 178  : 		return;

  0044a	e9 9d 04 00 00	 jmp	 $LN15@EventChipO
$LN13@EventChipO:

; 179  : 	}
; 180  : 
; 181  : 	if ( LuckboxItemBag->GetBagCount() > 0 )

  0044f	8b 0d 00 00 00
	00		 mov	 ecx, DWORD PTR ?LuckboxItemBag@@3PAVCItemBag@@A ; LuckboxItemBag
  00455	e8 00 00 00 00	 call	 ?GetBagCount@CItemBag@@QAEHXZ ; CItemBag::GetBagCount
  0045a	85 c0		 test	 eax, eax
  0045c	0f 8e 48 04 00
	00		 jle	 $LN11@EventChipO

; 182  : 	{
; 183  : 		if ( (rand()%20) < ::g_ItemDropRateForBoxOfGold )

  00462	e8 00 00 00 00	 call	 _rand
  00467	99		 cdq
  00468	b9 14 00 00 00	 mov	 ecx, 20			; 00000014H
  0046d	f7 f9		 idiv	 ecx
  0046f	3b 15 00 00 00
	00		 cmp	 edx, DWORD PTR ?g_ItemDropRateForBoxOfGold@@3HA ; g_ItemDropRateForBoxOfGold
  00475	0f 8d 2f 04 00
	00		 jge	 $LN11@EventChipO

; 184  : 		{
; 185  : 			DropItemNum = rand() % LuckboxItemBag->GetBagCount();

  0047b	e8 00 00 00 00	 call	 _rand
  00480	8b f0		 mov	 esi, eax
  00482	8b 0d 00 00 00
	00		 mov	 ecx, DWORD PTR ?LuckboxItemBag@@3PAVCItemBag@@A ; LuckboxItemBag
  00488	e8 00 00 00 00	 call	 ?GetBagCount@CItemBag@@QAEHXZ ; CItemBag::GetBagCount
  0048d	8b c8		 mov	 ecx, eax
  0048f	8b c6		 mov	 eax, esi
  00491	99		 cdq
  00492	f7 f9		 idiv	 ecx
  00494	89 55 d8	 mov	 DWORD PTR _DropItemNum$[ebp], edx

; 186  : 			dur = 0;

  00497	d9 ee		 fldz
  00499	d9 5d f8	 fstp	 DWORD PTR _dur$[ebp]

; 187  : 			x = lpObj->X;

  0049c	8b 45 08	 mov	 eax, DWORD PTR _lpObj$[ebp]
  0049f	0f bf 88 44 01
	00 00		 movsx	 ecx, WORD PTR [eax+324]
  004a6	89 4d ec	 mov	 DWORD PTR _x$[ebp], ecx

; 188  : 			y = lpObj->Y;

  004a9	8b 45 08	 mov	 eax, DWORD PTR _lpObj$[ebp]
  004ac	0f bf 88 46 01
	00 00		 movsx	 ecx, WORD PTR [eax+326]
  004b3	89 4d e8	 mov	 DWORD PTR _y$[ebp], ecx

; 189  : 			level = LuckboxItemBag->GetLevel(DropItemNum) + rand() % 2;

  004b6	8b 45 d8	 mov	 eax, DWORD PTR _DropItemNum$[ebp]
  004b9	50		 push	 eax
  004ba	8b 0d 00 00 00
	00		 mov	 ecx, DWORD PTR ?LuckboxItemBag@@3PAVCItemBag@@A ; LuckboxItemBag
  004c0	8b 11		 mov	 edx, DWORD PTR [ecx]
  004c2	8b 0d 00 00 00
	00		 mov	 ecx, DWORD PTR ?LuckboxItemBag@@3PAVCItemBag@@A ; LuckboxItemBag
  004c8	8b 42 14	 mov	 eax, DWORD PTR [edx+20]
  004cb	ff d0		 call	 eax
  004cd	0f b6 f0	 movzx	 esi, al
  004d0	e8 00 00 00 00	 call	 _rand
  004d5	25 01 00 00 80	 and	 eax, -2147483647	; 80000001H
  004da	79 05		 jns	 SHORT $LN17@EventChipO
  004dc	48		 dec	 eax
  004dd	83 c8 fe	 or	 eax, -2			; fffffffeH
  004e0	40		 inc	 eax
$LN17@EventChipO:
  004e1	03 f0		 add	 esi, eax
  004e3	89 75 f0	 mov	 DWORD PTR _level$[ebp], esi

; 190  : 
; 191  : 			type = ItemGetNumberMake(LuckboxItemBag->GetType(DropItemNum), LuckboxItemBag->GetIndex(DropItemNum));

  004e6	8b 45 d8	 mov	 eax, DWORD PTR _DropItemNum$[ebp]
  004e9	50		 push	 eax
  004ea	8b 0d 00 00 00
	00		 mov	 ecx, DWORD PTR ?LuckboxItemBag@@3PAVCItemBag@@A ; LuckboxItemBag
  004f0	8b 11		 mov	 edx, DWORD PTR [ecx]
  004f2	8b 0d 00 00 00
	00		 mov	 ecx, DWORD PTR ?LuckboxItemBag@@3PAVCItemBag@@A ; LuckboxItemBag
  004f8	8b 42 10	 mov	 eax, DWORD PTR [edx+16]
  004fb	ff d0		 call	 eax
  004fd	0f b6 c8	 movzx	 ecx, al
  00500	51		 push	 ecx
  00501	8b 55 d8	 mov	 edx, DWORD PTR _DropItemNum$[ebp]
  00504	52		 push	 edx
  00505	a1 00 00 00 00	 mov	 eax, DWORD PTR ?LuckboxItemBag@@3PAVCItemBag@@A ; LuckboxItemBag
  0050a	8b 10		 mov	 edx, DWORD PTR [eax]
  0050c	8b 0d 00 00 00
	00		 mov	 ecx, DWORD PTR ?LuckboxItemBag@@3PAVCItemBag@@A ; LuckboxItemBag
  00512	8b 42 0c	 mov	 eax, DWORD PTR [edx+12]
  00515	ff d0		 call	 eax
  00517	0f b6 c8	 movzx	 ecx, al
  0051a	51		 push	 ecx
  0051b	e8 00 00 00 00	 call	 ?ItemGetNumberMake@@YAHHH@Z ; ItemGetNumberMake
  00520	83 c4 08	 add	 esp, 8
  00523	89 45 f4	 mov	 DWORD PTR _type$[ebp], eax

; 192  : 
; 193  : 			Option1 = rand() % 2;

  00526	e8 00 00 00 00	 call	 _rand
  0052b	25 01 00 00 80	 and	 eax, -2147483647	; 80000001H
  00530	79 05		 jns	 SHORT $LN18@EventChipO
  00532	48		 dec	 eax
  00533	83 c8 fe	 or	 eax, -2			; fffffffeH
  00536	40		 inc	 eax
$LN18@EventChipO:
  00537	89 45 e4	 mov	 DWORD PTR _Option1$[ebp], eax

; 194  : 			Option2 = rand() % 2;

  0053a	e8 00 00 00 00	 call	 _rand
  0053f	25 01 00 00 80	 and	 eax, -2147483647	; 80000001H
  00544	79 05		 jns	 SHORT $LN19@EventChipO
  00546	48		 dec	 eax
  00547	83 c8 fe	 or	 eax, -2			; fffffffeH
  0054a	40		 inc	 eax
$LN19@EventChipO:
  0054b	89 45 e0	 mov	 DWORD PTR _Option2$[ebp], eax

; 195  : 
; 196  : 			if ( Option2 == 0 || Option1  == 0 )

  0054e	83 7d e0 00	 cmp	 DWORD PTR _Option2$[ebp], 0
  00552	74 06		 je	 SHORT $LN9@EventChipO
  00554	83 7d e4 00	 cmp	 DWORD PTR _Option1$[ebp], 0
  00558	75 2b		 jne	 SHORT $LN7@EventChipO
$LN9@EventChipO:

; 197  : 			{
; 198  : 				if ( (rand() % 5 ) < 1 )

  0055a	e8 00 00 00 00	 call	 _rand
  0055f	99		 cdq
  00560	b9 05 00 00 00	 mov	 ecx, 5
  00565	f7 f9		 idiv	 ecx
  00567	83 fa 01	 cmp	 edx, 1
  0056a	7d 09		 jge	 SHORT $LN8@EventChipO

; 199  : 				{
; 200  : 					Option3 = 3;

  0056c	c7 45 dc 03 00
	00 00		 mov	 DWORD PTR _Option3$[ebp], 3

; 201  : 				}
; 202  : 				else

  00573	eb 10		 jmp	 SHORT $LN7@EventChipO
$LN8@EventChipO:

; 203  : 				{
; 204  : 					Option3 = rand() % 3;

  00575	e8 00 00 00 00	 call	 _rand
  0057a	99		 cdq
  0057b	b9 03 00 00 00	 mov	 ecx, 3
  00580	f7 f9		 idiv	 ecx
  00582	89 55 dc	 mov	 DWORD PTR _Option3$[ebp], edx
$LN7@EventChipO:

; 205  : 				}
; 206  : 			}
; 207  : 
; 208  : 			if ( type == ITEMGET(12,15) ||
; 209  : 				 type == ITEMGET(14,13) ||
; 210  : 				 type == ITEMGET(14,14) ||
; 211  : 				 type == ITEMGET(14,14) ||
; 212  : 				 type == ITEMGET(14,16)	||
; 213  : 				 type == ITEMGET(14,22)	||
; 214  : 				 type == ITEMGET(14,31)	||
; 215  : 				 type == ITEMGET(14,41)	||
; 216  : 				 type == ITEMGET(14,42)	||
; 217  : 				 type == ITEMGET(14,180)||
; 218  : 				 type == ITEMGET(14,181)||
; 219  : 				 type == ITEMGET(14,182)||
; 220  : 				 type == ITEMGET(14,183)||
; 221  : 				 type == ITEMGET(14,184)||
; 222  : 				 type == ITEMGET(14,185)||
; 223  : 				 type == ITEMGET(14,186)||
; 224  : 				 type == ITEMGET(14,187)||
; 225  : 				 type == ITEMGET(14,190)||
; 226  : 				 type == ITEMGET(14,43) ||
; 227  : 				 type == ITEMGET(14,44) )

  00585	81 7d f4 0f 18
	00 00		 cmp	 DWORD PTR _type$[ebp], 6159 ; 0000180fH
  0058c	0f 84 bb 00 00
	00		 je	 $LN5@EventChipO
  00592	81 7d f4 0d 1c
	00 00		 cmp	 DWORD PTR _type$[ebp], 7181 ; 00001c0dH
  00599	0f 84 ae 00 00
	00		 je	 $LN5@EventChipO
  0059f	81 7d f4 0e 1c
	00 00		 cmp	 DWORD PTR _type$[ebp], 7182 ; 00001c0eH
  005a6	0f 84 a1 00 00
	00		 je	 $LN5@EventChipO
  005ac	81 7d f4 0e 1c
	00 00		 cmp	 DWORD PTR _type$[ebp], 7182 ; 00001c0eH
  005b3	0f 84 94 00 00
	00		 je	 $LN5@EventChipO
  005b9	81 7d f4 10 1c
	00 00		 cmp	 DWORD PTR _type$[ebp], 7184 ; 00001c10H
  005c0	0f 84 87 00 00
	00		 je	 $LN5@EventChipO
  005c6	81 7d f4 16 1c
	00 00		 cmp	 DWORD PTR _type$[ebp], 7190 ; 00001c16H
  005cd	74 7e		 je	 SHORT $LN5@EventChipO
  005cf	81 7d f4 1f 1c
	00 00		 cmp	 DWORD PTR _type$[ebp], 7199 ; 00001c1fH
  005d6	74 75		 je	 SHORT $LN5@EventChipO
  005d8	81 7d f4 29 1c
	00 00		 cmp	 DWORD PTR _type$[ebp], 7209 ; 00001c29H
  005df	74 6c		 je	 SHORT $LN5@EventChipO
  005e1	81 7d f4 2a 1c
	00 00		 cmp	 DWORD PTR _type$[ebp], 7210 ; 00001c2aH
  005e8	74 63		 je	 SHORT $LN5@EventChipO
  005ea	81 7d f4 b4 1c
	00 00		 cmp	 DWORD PTR _type$[ebp], 7348 ; 00001cb4H
  005f1	74 5a		 je	 SHORT $LN5@EventChipO
  005f3	81 7d f4 b5 1c
	00 00		 cmp	 DWORD PTR _type$[ebp], 7349 ; 00001cb5H
  005fa	74 51		 je	 SHORT $LN5@EventChipO
  005fc	81 7d f4 b6 1c
	00 00		 cmp	 DWORD PTR _type$[ebp], 7350 ; 00001cb6H
  00603	74 48		 je	 SHORT $LN5@EventChipO
  00605	81 7d f4 b7 1c
	00 00		 cmp	 DWORD PTR _type$[ebp], 7351 ; 00001cb7H
  0060c	74 3f		 je	 SHORT $LN5@EventChipO
  0060e	81 7d f4 b8 1c
	00 00		 cmp	 DWORD PTR _type$[ebp], 7352 ; 00001cb8H
  00615	74 36		 je	 SHORT $LN5@EventChipO
  00617	81 7d f4 b9 1c
	00 00		 cmp	 DWORD PTR _type$[ebp], 7353 ; 00001cb9H
  0061e	74 2d		 je	 SHORT $LN5@EventChipO
  00620	81 7d f4 ba 1c
	00 00		 cmp	 DWORD PTR _type$[ebp], 7354 ; 00001cbaH
  00627	74 24		 je	 SHORT $LN5@EventChipO
  00629	81 7d f4 bb 1c
	00 00		 cmp	 DWORD PTR _type$[ebp], 7355 ; 00001cbbH
  00630	74 1b		 je	 SHORT $LN5@EventChipO
  00632	81 7d f4 be 1c
	00 00		 cmp	 DWORD PTR _type$[ebp], 7358 ; 00001cbeH
  00639	74 12		 je	 SHORT $LN5@EventChipO
  0063b	81 7d f4 2b 1c
	00 00		 cmp	 DWORD PTR _type$[ebp], 7211 ; 00001c2bH
  00642	74 09		 je	 SHORT $LN5@EventChipO
  00644	81 7d f4 2c 1c
	00 00		 cmp	 DWORD PTR _type$[ebp], 7212 ; 00001c2cH
  0064b	75 23		 jne	 SHORT $LN6@EventChipO
$LN5@EventChipO:

; 228  : 			{
; 229  : 				Option1 = 0;

  0064d	c7 45 e4 00 00
	00 00		 mov	 DWORD PTR _Option1$[ebp], 0

; 230  : 				Option2 = 0;

  00654	c7 45 e0 00 00
	00 00		 mov	 DWORD PTR _Option2$[ebp], 0

; 231  : 				Option3 = 0;

  0065b	c7 45 dc 00 00
	00 00		 mov	 DWORD PTR _Option3$[ebp], 0

; 232  : 				level = 0;

  00662	c7 45 f0 00 00
	00 00		 mov	 DWORD PTR _level$[ebp], 0

; 233  : 				ExOption = 0;

  00669	c7 45 d4 00 00
	00 00		 mov	 DWORD PTR _ExOption$[ebp], 0
$LN6@EventChipO:

; 234  : 			}
; 235  : 
; 236  : 			if ( type == ITEMGET(12,30)	||
; 237  : 				 type == ITEMGET(12,31)	||
; 238  : 				 type == ITEMGET(12,136)||
; 239  : 				 type == ITEMGET(12,137)||
; 240  : 				 type == ITEMGET(12,138)||
; 241  : 				 type == ITEMGET(12,139)||
; 242  : 				 type == ITEMGET(12,140)||
; 243  : 				 type == ITEMGET(12,141)||
; 244  : 				 type == ITEMGET(12,142)||
; 245  : 				 type == ITEMGET(12,143))

  00670	81 7d f4 1e 18
	00 00		 cmp	 DWORD PTR _type$[ebp], 6174 ; 0000181eH
  00677	74 51		 je	 SHORT $LN3@EventChipO
  00679	81 7d f4 1f 18
	00 00		 cmp	 DWORD PTR _type$[ebp], 6175 ; 0000181fH
  00680	74 48		 je	 SHORT $LN3@EventChipO
  00682	81 7d f4 88 18
	00 00		 cmp	 DWORD PTR _type$[ebp], 6280 ; 00001888H
  00689	74 3f		 je	 SHORT $LN3@EventChipO
  0068b	81 7d f4 89 18
	00 00		 cmp	 DWORD PTR _type$[ebp], 6281 ; 00001889H
  00692	74 36		 je	 SHORT $LN3@EventChipO
  00694	81 7d f4 8a 18
	00 00		 cmp	 DWORD PTR _type$[ebp], 6282 ; 0000188aH
  0069b	74 2d		 je	 SHORT $LN3@EventChipO
  0069d	81 7d f4 8b 18
	00 00		 cmp	 DWORD PTR _type$[ebp], 6283 ; 0000188bH
  006a4	74 24		 je	 SHORT $LN3@EventChipO
  006a6	81 7d f4 8c 18
	00 00		 cmp	 DWORD PTR _type$[ebp], 6284 ; 0000188cH
  006ad	74 1b		 je	 SHORT $LN3@EventChipO
  006af	81 7d f4 8d 18
	00 00		 cmp	 DWORD PTR _type$[ebp], 6285 ; 0000188dH
  006b6	74 12		 je	 SHORT $LN3@EventChipO
  006b8	81 7d f4 8e 18
	00 00		 cmp	 DWORD PTR _type$[ebp], 6286 ; 0000188eH
  006bf	74 09		 je	 SHORT $LN3@EventChipO
  006c1	81 7d f4 8f 18
	00 00		 cmp	 DWORD PTR _type$[ebp], 6287 ; 0000188fH
  006c8	75 39		 jne	 SHORT $LN4@EventChipO
$LN3@EventChipO:

; 246  : 			{
; 247  : 				Option1 = 0;

  006ca	c7 45 e4 00 00
	00 00		 mov	 DWORD PTR _Option1$[ebp], 0

; 248  : 				Option2 = 0;

  006d1	c7 45 e0 00 00
	00 00		 mov	 DWORD PTR _Option2$[ebp], 0

; 249  : 				Option3 = 0;

  006d8	c7 45 dc 00 00
	00 00		 mov	 DWORD PTR _Option3$[ebp], 0

; 250  : 				level = LuckboxItemBag->GetLevel(DropItemNum);

  006df	8b 45 d8	 mov	 eax, DWORD PTR _DropItemNum$[ebp]
  006e2	50		 push	 eax
  006e3	8b 0d 00 00 00
	00		 mov	 ecx, DWORD PTR ?LuckboxItemBag@@3PAVCItemBag@@A ; LuckboxItemBag
  006e9	8b 11		 mov	 edx, DWORD PTR [ecx]
  006eb	8b 0d 00 00 00
	00		 mov	 ecx, DWORD PTR ?LuckboxItemBag@@3PAVCItemBag@@A ; LuckboxItemBag
  006f1	8b 42 14	 mov	 eax, DWORD PTR [edx+20]
  006f4	ff d0		 call	 eax
  006f6	0f b6 c8	 movzx	 ecx, al
  006f9	89 4d f0	 mov	 DWORD PTR _level$[ebp], ecx

; 251  : 				ExOption = 0;

  006fc	c7 45 d4 00 00
	00 00		 mov	 DWORD PTR _ExOption$[ebp], 0
$LN4@EventChipO:

; 252  : 			}
; 253  : 
; 254  : 			if ( type == ITEMGET(13,0) ||
; 255  : 				 type == ITEMGET(13,1) ||
; 256  : 				 type == ITEMGET(13,2) ||
; 257  : 				 type == ITEMGET(13,8) ||
; 258  : 				 type == ITEMGET(13,9) ||
; 259  : 				 type == ITEMGET(13,12) ||
; 260  : 				 type == ITEMGET(13,13) )

  00703	81 7d f4 00 1a
	00 00		 cmp	 DWORD PTR _type$[ebp], 6656 ; 00001a00H
  0070a	74 36		 je	 SHORT $LN1@EventChipO
  0070c	81 7d f4 01 1a
	00 00		 cmp	 DWORD PTR _type$[ebp], 6657 ; 00001a01H
  00713	74 2d		 je	 SHORT $LN1@EventChipO
  00715	81 7d f4 02 1a
	00 00		 cmp	 DWORD PTR _type$[ebp], 6658 ; 00001a02H
  0071c	74 24		 je	 SHORT $LN1@EventChipO
  0071e	81 7d f4 08 1a
	00 00		 cmp	 DWORD PTR _type$[ebp], 6664 ; 00001a08H
  00725	74 1b		 je	 SHORT $LN1@EventChipO
  00727	81 7d f4 09 1a
	00 00		 cmp	 DWORD PTR _type$[ebp], 6665 ; 00001a09H
  0072e	74 12		 je	 SHORT $LN1@EventChipO
  00730	81 7d f4 0c 1a
	00 00		 cmp	 DWORD PTR _type$[ebp], 6668 ; 00001a0cH
  00737	74 09		 je	 SHORT $LN1@EventChipO
  00739	81 7d f4 0d 1a
	00 00		 cmp	 DWORD PTR _type$[ebp], 6669 ; 00001a0dH
  00740	75 07		 jne	 SHORT $LN2@EventChipO
$LN1@EventChipO:

; 261  : 			{
; 262  : 				level = 0;

  00742	c7 45 f0 00 00
	00 00		 mov	 DWORD PTR _level$[ebp], 0
$LN2@EventChipO:

; 263  : 			}
; 264  : 
; 265  : 			ItemSerialCreateSend(lpObj->m_Index, (BYTE)lpObj->MapNumber, (BYTE)x, (BYTE)y,
; 266  : 				type, (BYTE)level, (BYTE)dur, (BYTE)Option1, (BYTE)Option2, (BYTE)Option3, lpObj->m_Index, (BYTE)ExOption, 0);

  00749	6a 00		 push	 0
  0074b	0f b6 45 d4	 movzx	 eax, BYTE PTR _ExOption$[ebp]
  0074f	50		 push	 eax
  00750	8b 4d 08	 mov	 ecx, DWORD PTR _lpObj$[ebp]
  00753	8b 11		 mov	 edx, DWORD PTR [ecx]
  00755	52		 push	 edx
  00756	0f b6 45 dc	 movzx	 eax, BYTE PTR _Option3$[ebp]
  0075a	50		 push	 eax
  0075b	0f b6 4d e0	 movzx	 ecx, BYTE PTR _Option2$[ebp]
  0075f	51		 push	 ecx
  00760	0f b6 55 e4	 movzx	 edx, BYTE PTR _Option1$[ebp]
  00764	52		 push	 edx
  00765	d9 45 f8	 fld	 DWORD PTR _dur$[ebp]
  00768	d9 bd b6 fe ff
	ff		 fnstcw	 WORD PTR tv382[ebp]
  0076e	0f b7 85 b6 fe
	ff ff		 movzx	 eax, WORD PTR tv382[ebp]
  00775	0d 00 0c 00 00	 or	 eax, 3072		; 00000c00H
  0077a	89 85 b0 fe ff
	ff		 mov	 DWORD PTR tv385[ebp], eax
  00780	d9 ad b0 fe ff
	ff		 fldcw	 WORD PTR tv385[ebp]
  00786	db 9d ac fe ff
	ff		 fistp	 DWORD PTR tv387[ebp]
  0078c	d9 ad b6 fe ff
	ff		 fldcw	 WORD PTR tv382[ebp]
  00792	0f b6 85 ac fe
	ff ff		 movzx	 eax, BYTE PTR tv387[ebp]
  00799	50		 push	 eax
  0079a	0f b6 4d f0	 movzx	 ecx, BYTE PTR _level$[ebp]
  0079e	51		 push	 ecx
  0079f	8b 55 f4	 mov	 edx, DWORD PTR _type$[ebp]
  007a2	52		 push	 edx
  007a3	0f b6 45 e8	 movzx	 eax, BYTE PTR _y$[ebp]
  007a7	50		 push	 eax
  007a8	0f b6 4d ec	 movzx	 ecx, BYTE PTR _x$[ebp]
  007ac	51		 push	 ecx
  007ad	8b 55 08	 mov	 edx, DWORD PTR _lpObj$[ebp]
  007b0	0f b6 82 49 01
	00 00		 movzx	 eax, BYTE PTR [edx+329]
  007b7	50		 push	 eax
  007b8	8b 4d 08	 mov	 ecx, DWORD PTR _lpObj$[ebp]
  007bb	8b 11		 mov	 edx, DWORD PTR [ecx]
  007bd	52		 push	 edx
  007be	e8 00 00 00 00	 call	 ?ItemSerialCreateSend@@YAXHEEEHEEEEEHEE@Z ; ItemSerialCreateSend
  007c3	83 c4 34	 add	 esp, 52			; 00000034H

; 267  : 
; 268  : 			PMSG_SERVERCMD pMsg;
; 269  : 
; 270  : 			PHeadSubSetB((LPBYTE)&pMsg, 0xF3, 0x40, sizeof(pMsg));

  007c6	6a 07		 push	 7
  007c8	6a 40		 push	 64			; 00000040H
  007ca	68 f3 00 00 00	 push	 243			; 000000f3H
  007cf	8d 45 cc	 lea	 eax, DWORD PTR _pMsg$233294[ebp]
  007d2	50		 push	 eax
  007d3	e8 00 00 00 00	 call	 ?PHeadSubSetB@@YAXPAEEEH@Z ; PHeadSubSetB
  007d8	83 c4 10	 add	 esp, 16			; 00000010H

; 271  : 			pMsg.CmdType = 2;

  007db	c6 45 d0 02	 mov	 BYTE PTR _pMsg$233294[ebp+4], 2

; 272  : 			pMsg.X = x;

  007df	8a 45 ec	 mov	 al, BYTE PTR _x$[ebp]
  007e2	88 45 d1	 mov	 BYTE PTR _pMsg$233294[ebp+5], al

; 273  : 			pMsg.Y = y;

  007e5	8a 45 e8	 mov	 al, BYTE PTR _y$[ebp]
  007e8	88 45 d2	 mov	 BYTE PTR _pMsg$233294[ebp+6], al

; 274  : 
; 275  : 			MsgSendV2(lpObj, (LPBYTE)&pMsg, sizeof(pMsg));

  007eb	6a 07		 push	 7
  007ed	8d 45 cc	 lea	 eax, DWORD PTR _pMsg$233294[ebp]
  007f0	50		 push	 eax
  007f1	8b 4d 08	 mov	 ecx, DWORD PTR _lpObj$[ebp]
  007f4	51		 push	 ecx
  007f5	e8 00 00 00 00	 call	 ?MsgSendV2@@YAXPAUOBJECTSTRUCT@@PAEH@Z ; MsgSendV2
  007fa	83 c4 0c	 add	 esp, 12			; 0000000cH

; 276  : 			DataSend(lpObj->m_Index, (LPBYTE)&pMsg, sizeof(pMsg));

  007fd	6a 07		 push	 7
  007ff	8d 45 cc	 lea	 eax, DWORD PTR _pMsg$233294[ebp]
  00802	50		 push	 eax
  00803	8b 4d 08	 mov	 ecx, DWORD PTR _lpObj$[ebp]
  00806	8b 11		 mov	 edx, DWORD PTR [ecx]
  00808	52		 push	 edx
  00809	e8 00 00 00 00	 call	 ?DataSend@@YAHHPAEK@Z	; DataSend
  0080e	83 c4 0c	 add	 esp, 12			; 0000000cH

; 277  : 
; 278  : 			CItem NewItem;

  00811	8d 8d f8 fe ff
	ff		 lea	 ecx, DWORD PTR _NewItem$233298[ebp]
  00817	e8 00 00 00 00	 call	 ??0CItem@@QAE@XZ	; CItem::CItem

; 279  : 			NewItem.Convert(type, Option1, Option2, Option3, 0, 1, 0, NULL, 0xFF, 0, CURRENT_DB_VERSION);

  0081c	6a 03		 push	 3
  0081e	6a 00		 push	 0
  00820	68 ff 00 00 00	 push	 255			; 000000ffH
  00825	6a 00		 push	 0
  00827	6a 00		 push	 0
  00829	6a 01		 push	 1
  0082b	6a 00		 push	 0
  0082d	0f b6 45 dc	 movzx	 eax, BYTE PTR _Option3$[ebp]
  00831	50		 push	 eax
  00832	0f b6 4d e0	 movzx	 ecx, BYTE PTR _Option2$[ebp]
  00836	51		 push	 ecx
  00837	0f b6 55 e4	 movzx	 edx, BYTE PTR _Option1$[ebp]
  0083b	52		 push	 edx
  0083c	8b 45 f4	 mov	 eax, DWORD PTR _type$[ebp]
  0083f	50		 push	 eax
  00840	8d 8d f8 fe ff
	ff		 lea	 ecx, DWORD PTR _NewItem$233298[ebp]
  00846	e8 00 00 00 00	 call	 ?Convert@CItem@@QAEXHEEEEEEPAEEEE@Z ; CItem::Convert

; 280  : 
; 281  : 			LogAddTD("[%s][%s][Lucky Box Item Drop][Event Chip] : (%d)(X:%d/Y:%d) Item:%s(%d) Level:%d Op1:%d Op2:%d Op3:%d",
; 282  : 				lpObj->AccountID, lpObj->Name, lpObj->MapNumber, lpObj->X, lpObj->Y, NewItem.GetName(),
; 283  : 				type, level, Option1, Option2, Option3);

  0084b	8b 45 dc	 mov	 eax, DWORD PTR _Option3$[ebp]
  0084e	50		 push	 eax
  0084f	8b 4d e0	 mov	 ecx, DWORD PTR _Option2$[ebp]
  00852	51		 push	 ecx
  00853	8b 55 e4	 mov	 edx, DWORD PTR _Option1$[ebp]
  00856	52		 push	 edx
  00857	8b 45 f0	 mov	 eax, DWORD PTR _level$[ebp]
  0085a	50		 push	 eax
  0085b	8b 4d f4	 mov	 ecx, DWORD PTR _type$[ebp]
  0085e	51		 push	 ecx
  0085f	8d 8d f8 fe ff
	ff		 lea	 ecx, DWORD PTR _NewItem$233298[ebp]
  00865	e8 00 00 00 00	 call	 ?GetName@CItem@@QAEPADXZ ; CItem::GetName
  0086a	50		 push	 eax
  0086b	8b 55 08	 mov	 edx, DWORD PTR _lpObj$[ebp]
  0086e	0f bf 82 46 01
	00 00		 movsx	 eax, WORD PTR [edx+326]
  00875	50		 push	 eax
  00876	8b 4d 08	 mov	 ecx, DWORD PTR _lpObj$[ebp]
  00879	0f bf 91 44 01
	00 00		 movsx	 edx, WORD PTR [ecx+324]
  00880	52		 push	 edx
  00881	8b 45 08	 mov	 eax, DWORD PTR _lpObj$[ebp]
  00884	0f b6 88 49 01
	00 00		 movzx	 ecx, BYTE PTR [eax+329]
  0088b	51		 push	 ecx
  0088c	8b 55 08	 mov	 edx, DWORD PTR _lpObj$[ebp]
  0088f	83 c2 77	 add	 edx, 119		; 00000077H
  00892	52		 push	 edx
  00893	8b 45 08	 mov	 eax, DWORD PTR _lpObj$[ebp]
  00896	83 c0 6c	 add	 eax, 108		; 0000006cH
  00899	50		 push	 eax
  0089a	68 00 00 00 00	 push	 OFFSET ??_C@_0GG@LLIIPLAL@?$FL?$CFs?$FN?$FL?$CFs?$FN?$FLLucky?5Box?5Item?5Drop?$FN?$FLEv@
  0089f	ff 15 00 00 00
	00		 call	 DWORD PTR ?LogAddTD@@3P6AXPADZZA ; LogAddTD
  008a5	83 c4 30	 add	 esp, 48			; 00000030H

; 284  : 
; 285  : 			return;

  008a8	eb 42		 jmp	 SHORT $LN15@EventChipO
$LN11@EventChipO:

; 286  : 
; 287  : 
; 288  : 		}
; 289  : 	}
; 290  : 
; 291  : 	x = lpObj->X;

  008aa	8b 45 08	 mov	 eax, DWORD PTR _lpObj$[ebp]
  008ad	0f bf 88 44 01
	00 00		 movsx	 ecx, WORD PTR [eax+324]
  008b4	89 4d ec	 mov	 DWORD PTR _x$[ebp], ecx

; 292  : 	y = lpObj->Y;

  008b7	8b 45 08	 mov	 eax, DWORD PTR _lpObj$[ebp]
  008ba	0f bf 88 46 01
	00 00		 movsx	 ecx, WORD PTR [eax+326]
  008c1	89 4d e8	 mov	 DWORD PTR _y$[ebp], ecx

; 293  : 	MapC[lpObj->MapNumber].MoneyItemDrop(1000, x, y);

  008c4	8b 45 e8	 mov	 eax, DWORD PTR _y$[ebp]
  008c7	50		 push	 eax
  008c8	8b 4d ec	 mov	 ecx, DWORD PTR _x$[ebp]
  008cb	51		 push	 ecx
  008cc	68 e8 03 00 00	 push	 1000			; 000003e8H
  008d1	8b 55 08	 mov	 edx, DWORD PTR _lpObj$[ebp]
  008d4	0f b6 8a 49 01
	00 00		 movzx	 ecx, BYTE PTR [edx+329]
  008db	69 c9 b8 3d 05
	00		 imul	 ecx, 343480		; 00053db8H
  008e1	81 c1 00 00 00
	00		 add	 ecx, OFFSET ?MapC@@3PAVMapClass@@A ; MapC
  008e7	e8 00 00 00 00	 call	 ?MoneyItemDrop@MapClass@@QAEHHHH@Z ; MapClass::MoneyItemDrop
$LN15@EventChipO:

; 294  : }

  008ec	5f		 pop	 edi
  008ed	5e		 pop	 esi
  008ee	5b		 pop	 ebx
  008ef	8b 4d fc	 mov	 ecx, DWORD PTR __$ArrayPad$[ebp]
  008f2	33 cd		 xor	 ecx, ebp
  008f4	e8 00 00 00 00	 call	 @__security_check_cookie@4
  008f9	8b e5		 mov	 esp, ebp
  008fb	5d		 pop	 ebp
  008fc	c3		 ret	 0
?EventChipOpenEven@@YAXPAUOBJECTSTRUCT@@@Z ENDP		; EventChipOpenEven
; Function compile flags: /Odtp /ZI
; File d:\projects\exteam6.3\source\gameserver\gameserver\itembag.h
_TEXT	ENDS
;	COMDAT ?GetBagCount@CItemBag@@QAEHXZ
_TEXT	SEGMENT
_this$ = -4						; size = 4
?GetBagCount@CItemBag@@QAEHXZ PROC			; CItemBag::GetBagCount, COMDAT
; _this$ = ecx

; 47   : 	{

  00000	55		 push	 ebp
  00001	8b ec		 mov	 ebp, esp
  00003	83 ec 44	 sub	 esp, 68			; 00000044H
  00006	53		 push	 ebx
  00007	56		 push	 esi
  00008	57		 push	 edi
  00009	89 4d fc	 mov	 DWORD PTR _this$[ebp], ecx

; 48   : 		return this->BagObjectCount;

  0000c	8b 45 fc	 mov	 eax, DWORD PTR _this$[ebp]
  0000f	8b 80 88 03 00
	00		 mov	 eax, DWORD PTR [eax+904]

; 49   : 	};	// line : 64

  00015	5f		 pop	 edi
  00016	5e		 pop	 esi
  00017	5b		 pop	 ebx
  00018	8b e5		 mov	 esp, ebp
  0001a	5d		 pop	 ebp
  0001b	c3		 ret	 0
?GetBagCount@CItemBag@@QAEHXZ ENDP			; CItemBag::GetBagCount
_TEXT	ENDS
PUBLIC	??_C@_0GG@JMHMGOHL@?$FL?$CFs?$FN?$FL?$CFs?$FN?$FLLucky?5Box?5Item?5Drop?$FN?$FLGo@ ; `string'
PUBLIC	__$ArrayPad$
PUBLIC	?GoldMedalOpenEven@@YAXPAUOBJECTSTRUCT@@@Z	; GoldMedalOpenEven
EXTRN	?g_ItemDropRateForGoldMedal@@3HA:DWORD		; g_ItemDropRateForGoldMedal
EXTRN	?GoldMedalItemBag@@3PAVCItemBag@@A:DWORD	; GoldMedalItemBag
;	COMDAT ??_C@_0GG@JMHMGOHL@?$FL?$CFs?$FN?$FL?$CFs?$FN?$FLLucky?5Box?5Item?5Drop?$FN?$FLGo@
; File d:\projects\exteam6.3\source\gameserver\gameserver\event.cpp
CONST	SEGMENT
??_C@_0GG@JMHMGOHL@?$FL?$CFs?$FN?$FL?$CFs?$FN?$FLLucky?5Box?5Item?5Drop?$FN?$FLGo@ DB '['
	DB	'%s][%s][Lucky Box Item Drop][Gold Medal] : (%d)(X:%d/Y:%d) It'
	DB	'em:%s(%d) Level:%d Op1:%d Op2:%d Op3:%d', 00H ; `string'
; Function compile flags: /Odtp /ZI
CONST	ENDS
_TEXT	SEGMENT
tv322 = -340						; size = 4
tv320 = -336						; size = 4
tv317 = -330						; size = 2
_EventItem$233339 = -264				; size = 212
_ServerCmd$233335 = -52					; size = 7
_ExOption$ = -44					; size = 4
_DropItemNum$ = -40					; size = 4
_Option3$ = -36						; size = 4
_Option2$ = -32						; size = 4
_Option1$ = -28						; size = 4
_y$ = -24						; size = 4
_x$ = -20						; size = 4
_level$ = -16						; size = 4
_type$ = -12						; size = 4
_dur$ = -8						; size = 4
__$ArrayPad$ = -4					; size = 4
_lpObj$ = 8						; size = 4
?GoldMedalOpenEven@@YAXPAUOBJECTSTRUCT@@@Z PROC		; GoldMedalOpenEven

; 297  : {

  00900	55		 push	 ebp
  00901	8b ec		 mov	 ebp, esp
  00903	81 ec 54 01 00
	00		 sub	 esp, 340		; 00000154H
  00909	a1 00 00 00 00	 mov	 eax, DWORD PTR ___security_cookie
  0090e	33 c5		 xor	 eax, ebp
  00910	89 45 fc	 mov	 DWORD PTR __$ArrayPad$[ebp], eax
  00913	53		 push	 ebx
  00914	56		 push	 esi
  00915	57		 push	 edi

; 298  : 	float dur;
; 299  : 	int type;
; 300  : 	int level;
; 301  : 	int x;
; 302  : 	int y;
; 303  : 	int Option1=0;

  00916	c7 45 e4 00 00
	00 00		 mov	 DWORD PTR _Option1$[ebp], 0

; 304  : 	int Option2=0;

  0091d	c7 45 e0 00 00
	00 00		 mov	 DWORD PTR _Option2$[ebp], 0

; 305  : 	int Option3=0;

  00924	c7 45 dc 00 00
	00 00		 mov	 DWORD PTR _Option3$[ebp], 0

; 306  : 	int DropItemNum;
; 307  : 	int ExOption=0;

  0092b	c7 45 d4 00 00
	00 00		 mov	 DWORD PTR _ExOption$[ebp], 0

; 308  : 
; 309  : 	if ( !GoldMedalItemBag )

  00932	83 3d 00 00 00
	00 00		 cmp	 DWORD PTR ?GoldMedalItemBag@@3PAVCItemBag@@A, 0 ; GoldMedalItemBag
  00939	75 05		 jne	 SHORT $LN13@GoldMedalO

; 310  : 		return;

  0093b	e9 9d 04 00 00	 jmp	 $LN14@GoldMedalO
$LN13@GoldMedalO:

; 311  : 
; 312  : 	if ( GoldMedalItemBag->GetBagCount() > 0 )

  00940	8b 0d 00 00 00
	00		 mov	 ecx, DWORD PTR ?GoldMedalItemBag@@3PAVCItemBag@@A ; GoldMedalItemBag
  00946	e8 00 00 00 00	 call	 ?GetBagCount@CItemBag@@QAEHXZ ; CItemBag::GetBagCount
  0094b	85 c0		 test	 eax, eax
  0094d	0f 8e 48 04 00
	00		 jle	 $LN11@GoldMedalO

; 313  : 	{
; 314  : 		if ( (rand()%20) < g_ItemDropRateForGoldMedal )

  00953	e8 00 00 00 00	 call	 _rand
  00958	99		 cdq
  00959	b9 14 00 00 00	 mov	 ecx, 20			; 00000014H
  0095e	f7 f9		 idiv	 ecx
  00960	3b 15 00 00 00
	00		 cmp	 edx, DWORD PTR ?g_ItemDropRateForGoldMedal@@3HA ; g_ItemDropRateForGoldMedal
  00966	0f 8d 2f 04 00
	00		 jge	 $LN11@GoldMedalO

; 315  : 		{
; 316  : 			DropItemNum = rand()%GoldMedalItemBag->GetBagCount();

  0096c	e8 00 00 00 00	 call	 _rand
  00971	8b f0		 mov	 esi, eax
  00973	8b 0d 00 00 00
	00		 mov	 ecx, DWORD PTR ?GoldMedalItemBag@@3PAVCItemBag@@A ; GoldMedalItemBag
  00979	e8 00 00 00 00	 call	 ?GetBagCount@CItemBag@@QAEHXZ ; CItemBag::GetBagCount
  0097e	8b c8		 mov	 ecx, eax
  00980	8b c6		 mov	 eax, esi
  00982	99		 cdq
  00983	f7 f9		 idiv	 ecx
  00985	89 55 d8	 mov	 DWORD PTR _DropItemNum$[ebp], edx

; 317  : 			dur=0;

  00988	d9 ee		 fldz
  0098a	d9 5d f8	 fstp	 DWORD PTR _dur$[ebp]

; 318  : 			x = lpObj->X;

  0098d	8b 45 08	 mov	 eax, DWORD PTR _lpObj$[ebp]
  00990	0f bf 88 44 01
	00 00		 movsx	 ecx, WORD PTR [eax+324]
  00997	89 4d ec	 mov	 DWORD PTR _x$[ebp], ecx

; 319  : 			y = lpObj->Y;

  0099a	8b 45 08	 mov	 eax, DWORD PTR _lpObj$[ebp]
  0099d	0f bf 88 46 01
	00 00		 movsx	 ecx, WORD PTR [eax+326]
  009a4	89 4d e8	 mov	 DWORD PTR _y$[ebp], ecx

; 320  : 			level = GoldMedalItemBag->GetLevel(DropItemNum) + rand()%4;

  009a7	8b 45 d8	 mov	 eax, DWORD PTR _DropItemNum$[ebp]
  009aa	50		 push	 eax
  009ab	8b 0d 00 00 00
	00		 mov	 ecx, DWORD PTR ?GoldMedalItemBag@@3PAVCItemBag@@A ; GoldMedalItemBag
  009b1	8b 11		 mov	 edx, DWORD PTR [ecx]
  009b3	8b 0d 00 00 00
	00		 mov	 ecx, DWORD PTR ?GoldMedalItemBag@@3PAVCItemBag@@A ; GoldMedalItemBag
  009b9	8b 42 14	 mov	 eax, DWORD PTR [edx+20]
  009bc	ff d0		 call	 eax
  009be	0f b6 f0	 movzx	 esi, al
  009c1	e8 00 00 00 00	 call	 _rand
  009c6	25 03 00 00 80	 and	 eax, -2147483645	; 80000003H
  009cb	79 05		 jns	 SHORT $LN16@GoldMedalO
  009cd	48		 dec	 eax
  009ce	83 c8 fc	 or	 eax, -4			; fffffffcH
  009d1	40		 inc	 eax
$LN16@GoldMedalO:
  009d2	03 f0		 add	 esi, eax
  009d4	89 75 f0	 mov	 DWORD PTR _level$[ebp], esi

; 321  : 			type = ItemGetNumberMake(GoldMedalItemBag->GetType(DropItemNum), GoldMedalItemBag->GetIndex(DropItemNum));

  009d7	8b 45 d8	 mov	 eax, DWORD PTR _DropItemNum$[ebp]
  009da	50		 push	 eax
  009db	8b 0d 00 00 00
	00		 mov	 ecx, DWORD PTR ?GoldMedalItemBag@@3PAVCItemBag@@A ; GoldMedalItemBag
  009e1	8b 11		 mov	 edx, DWORD PTR [ecx]
  009e3	8b 0d 00 00 00
	00		 mov	 ecx, DWORD PTR ?GoldMedalItemBag@@3PAVCItemBag@@A ; GoldMedalItemBag
  009e9	8b 42 10	 mov	 eax, DWORD PTR [edx+16]
  009ec	ff d0		 call	 eax
  009ee	0f b6 c8	 movzx	 ecx, al
  009f1	51		 push	 ecx
  009f2	8b 55 d8	 mov	 edx, DWORD PTR _DropItemNum$[ebp]
  009f5	52		 push	 edx
  009f6	a1 00 00 00 00	 mov	 eax, DWORD PTR ?GoldMedalItemBag@@3PAVCItemBag@@A ; GoldMedalItemBag
  009fb	8b 10		 mov	 edx, DWORD PTR [eax]
  009fd	8b 0d 00 00 00
	00		 mov	 ecx, DWORD PTR ?GoldMedalItemBag@@3PAVCItemBag@@A ; GoldMedalItemBag
  00a03	8b 42 0c	 mov	 eax, DWORD PTR [edx+12]
  00a06	ff d0		 call	 eax
  00a08	0f b6 c8	 movzx	 ecx, al
  00a0b	51		 push	 ecx
  00a0c	e8 00 00 00 00	 call	 ?ItemGetNumberMake@@YAHHH@Z ; ItemGetNumberMake
  00a11	83 c4 08	 add	 esp, 8
  00a14	89 45 f4	 mov	 DWORD PTR _type$[ebp], eax

; 322  : 			Option1 = rand()%2;

  00a17	e8 00 00 00 00	 call	 _rand
  00a1c	25 01 00 00 80	 and	 eax, -2147483647	; 80000001H
  00a21	79 05		 jns	 SHORT $LN17@GoldMedalO
  00a23	48		 dec	 eax
  00a24	83 c8 fe	 or	 eax, -2			; fffffffeH
  00a27	40		 inc	 eax
$LN17@GoldMedalO:
  00a28	89 45 e4	 mov	 DWORD PTR _Option1$[ebp], eax

; 323  : 			Option2 = rand()%2;

  00a2b	e8 00 00 00 00	 call	 _rand
  00a30	25 01 00 00 80	 and	 eax, -2147483647	; 80000001H
  00a35	79 05		 jns	 SHORT $LN18@GoldMedalO
  00a37	48		 dec	 eax
  00a38	83 c8 fe	 or	 eax, -2			; fffffffeH
  00a3b	40		 inc	 eax
$LN18@GoldMedalO:
  00a3c	89 45 e0	 mov	 DWORD PTR _Option2$[ebp], eax

; 324  : 
; 325  : 			if ( !Option2 || !Option1 )

  00a3f	83 7d e0 00	 cmp	 DWORD PTR _Option2$[ebp], 0
  00a43	74 06		 je	 SHORT $LN9@GoldMedalO
  00a45	83 7d e4 00	 cmp	 DWORD PTR _Option1$[ebp], 0
  00a49	75 2b		 jne	 SHORT $LN7@GoldMedalO
$LN9@GoldMedalO:

; 326  : 			{
; 327  : 				if ( (rand()%5) <1 )

  00a4b	e8 00 00 00 00	 call	 _rand
  00a50	99		 cdq
  00a51	b9 05 00 00 00	 mov	 ecx, 5
  00a56	f7 f9		 idiv	 ecx
  00a58	83 fa 01	 cmp	 edx, 1
  00a5b	7d 09		 jge	 SHORT $LN8@GoldMedalO

; 328  : 					Option3 = 3;

  00a5d	c7 45 dc 03 00
	00 00		 mov	 DWORD PTR _Option3$[ebp], 3

; 329  : 				else

  00a64	eb 10		 jmp	 SHORT $LN7@GoldMedalO
$LN8@GoldMedalO:

; 330  : 					Option3 = rand()%3;

  00a66	e8 00 00 00 00	 call	 _rand
  00a6b	99		 cdq
  00a6c	b9 03 00 00 00	 mov	 ecx, 3
  00a71	f7 f9		 idiv	 ecx
  00a73	89 55 dc	 mov	 DWORD PTR _Option3$[ebp], edx
$LN7@GoldMedalO:

; 331  : 			}
; 332  : 
; 333  : 			if ( type == ITEMGET(12,15) ||
; 334  : 				 type == ITEMGET(14,13) ||
; 335  : 				 type == ITEMGET(14,14) ||
; 336  : 				 type == ITEMGET(14,14) ||
; 337  : 				 type == ITEMGET(14,16)	||
; 338  : 				 type == ITEMGET(14,22)	||
; 339  : 				 type == ITEMGET(14,31)	||
; 340  : 				 type == ITEMGET(14,41)	||
; 341  : 				 type == ITEMGET(14,42)	||
; 342  : 				 type == ITEMGET(14,180)||
; 343  : 				 type == ITEMGET(14,181)||
; 344  : 				 type == ITEMGET(14,182)||
; 345  : 				 type == ITEMGET(14,183)||
; 346  : 				 type == ITEMGET(14,184)||
; 347  : 				 type == ITEMGET(14,185)||
; 348  : 				 type == ITEMGET(14,186)||
; 349  : 				 type == ITEMGET(14,187)||
; 350  : 				 type == ITEMGET(14,190)||
; 351  : 				 type == ITEMGET(14,43) ||
; 352  : 				 type == ITEMGET(14,44) )

  00a76	81 7d f4 0f 18
	00 00		 cmp	 DWORD PTR _type$[ebp], 6159 ; 0000180fH
  00a7d	0f 84 bb 00 00
	00		 je	 $LN5@GoldMedalO
  00a83	81 7d f4 0d 1c
	00 00		 cmp	 DWORD PTR _type$[ebp], 7181 ; 00001c0dH
  00a8a	0f 84 ae 00 00
	00		 je	 $LN5@GoldMedalO
  00a90	81 7d f4 0e 1c
	00 00		 cmp	 DWORD PTR _type$[ebp], 7182 ; 00001c0eH
  00a97	0f 84 a1 00 00
	00		 je	 $LN5@GoldMedalO
  00a9d	81 7d f4 0e 1c
	00 00		 cmp	 DWORD PTR _type$[ebp], 7182 ; 00001c0eH
  00aa4	0f 84 94 00 00
	00		 je	 $LN5@GoldMedalO
  00aaa	81 7d f4 10 1c
	00 00		 cmp	 DWORD PTR _type$[ebp], 7184 ; 00001c10H
  00ab1	0f 84 87 00 00
	00		 je	 $LN5@GoldMedalO
  00ab7	81 7d f4 16 1c
	00 00		 cmp	 DWORD PTR _type$[ebp], 7190 ; 00001c16H
  00abe	74 7e		 je	 SHORT $LN5@GoldMedalO
  00ac0	81 7d f4 1f 1c
	00 00		 cmp	 DWORD PTR _type$[ebp], 7199 ; 00001c1fH
  00ac7	74 75		 je	 SHORT $LN5@GoldMedalO
  00ac9	81 7d f4 29 1c
	00 00		 cmp	 DWORD PTR _type$[ebp], 7209 ; 00001c29H
  00ad0	74 6c		 je	 SHORT $LN5@GoldMedalO
  00ad2	81 7d f4 2a 1c
	00 00		 cmp	 DWORD PTR _type$[ebp], 7210 ; 00001c2aH
  00ad9	74 63		 je	 SHORT $LN5@GoldMedalO
  00adb	81 7d f4 b4 1c
	00 00		 cmp	 DWORD PTR _type$[ebp], 7348 ; 00001cb4H
  00ae2	74 5a		 je	 SHORT $LN5@GoldMedalO
  00ae4	81 7d f4 b5 1c
	00 00		 cmp	 DWORD PTR _type$[ebp], 7349 ; 00001cb5H
  00aeb	74 51		 je	 SHORT $LN5@GoldMedalO
  00aed	81 7d f4 b6 1c
	00 00		 cmp	 DWORD PTR _type$[ebp], 7350 ; 00001cb6H
  00af4	74 48		 je	 SHORT $LN5@GoldMedalO
  00af6	81 7d f4 b7 1c
	00 00		 cmp	 DWORD PTR _type$[ebp], 7351 ; 00001cb7H
  00afd	74 3f		 je	 SHORT $LN5@GoldMedalO
  00aff	81 7d f4 b8 1c
	00 00		 cmp	 DWORD PTR _type$[ebp], 7352 ; 00001cb8H
  00b06	74 36		 je	 SHORT $LN5@GoldMedalO
  00b08	81 7d f4 b9 1c
	00 00		 cmp	 DWORD PTR _type$[ebp], 7353 ; 00001cb9H
  00b0f	74 2d		 je	 SHORT $LN5@GoldMedalO
  00b11	81 7d f4 ba 1c
	00 00		 cmp	 DWORD PTR _type$[ebp], 7354 ; 00001cbaH
  00b18	74 24		 je	 SHORT $LN5@GoldMedalO
  00b1a	81 7d f4 bb 1c
	00 00		 cmp	 DWORD PTR _type$[ebp], 7355 ; 00001cbbH
  00b21	74 1b		 je	 SHORT $LN5@GoldMedalO
  00b23	81 7d f4 be 1c
	00 00		 cmp	 DWORD PTR _type$[ebp], 7358 ; 00001cbeH
  00b2a	74 12		 je	 SHORT $LN5@GoldMedalO
  00b2c	81 7d f4 2b 1c
	00 00		 cmp	 DWORD PTR _type$[ebp], 7211 ; 00001c2bH
  00b33	74 09		 je	 SHORT $LN5@GoldMedalO
  00b35	81 7d f4 2c 1c
	00 00		 cmp	 DWORD PTR _type$[ebp], 7212 ; 00001c2cH
  00b3c	75 23		 jne	 SHORT $LN6@GoldMedalO
$LN5@GoldMedalO:

; 353  : 			{
; 354  : 				Option1 = 0;

  00b3e	c7 45 e4 00 00
	00 00		 mov	 DWORD PTR _Option1$[ebp], 0

; 355  : 				Option2 = 0;

  00b45	c7 45 e0 00 00
	00 00		 mov	 DWORD PTR _Option2$[ebp], 0

; 356  : 				Option3 = 0;

  00b4c	c7 45 dc 00 00
	00 00		 mov	 DWORD PTR _Option3$[ebp], 0

; 357  : 				level = 0;

  00b53	c7 45 f0 00 00
	00 00		 mov	 DWORD PTR _level$[ebp], 0

; 358  : 				ExOption = 0;

  00b5a	c7 45 d4 00 00
	00 00		 mov	 DWORD PTR _ExOption$[ebp], 0
$LN6@GoldMedalO:

; 359  : 			}
; 360  : 
; 361  : 			if ( type == ITEMGET(12,30)	||
; 362  : 				 type == ITEMGET(12,31)	||
; 363  : 				 type == ITEMGET(12,136)||
; 364  : 				 type == ITEMGET(12,137)||
; 365  : 				 type == ITEMGET(12,138)||
; 366  : 				 type == ITEMGET(12,139)||
; 367  : 				 type == ITEMGET(12,140)||
; 368  : 				 type == ITEMGET(12,141)||
; 369  : 				 type == ITEMGET(12,142)||
; 370  : 				 type == ITEMGET(12,143))

  00b61	81 7d f4 1e 18
	00 00		 cmp	 DWORD PTR _type$[ebp], 6174 ; 0000181eH
  00b68	74 51		 je	 SHORT $LN3@GoldMedalO
  00b6a	81 7d f4 1f 18
	00 00		 cmp	 DWORD PTR _type$[ebp], 6175 ; 0000181fH
  00b71	74 48		 je	 SHORT $LN3@GoldMedalO
  00b73	81 7d f4 88 18
	00 00		 cmp	 DWORD PTR _type$[ebp], 6280 ; 00001888H
  00b7a	74 3f		 je	 SHORT $LN3@GoldMedalO
  00b7c	81 7d f4 89 18
	00 00		 cmp	 DWORD PTR _type$[ebp], 6281 ; 00001889H
  00b83	74 36		 je	 SHORT $LN3@GoldMedalO
  00b85	81 7d f4 8a 18
	00 00		 cmp	 DWORD PTR _type$[ebp], 6282 ; 0000188aH
  00b8c	74 2d		 je	 SHORT $LN3@GoldMedalO
  00b8e	81 7d f4 8b 18
	00 00		 cmp	 DWORD PTR _type$[ebp], 6283 ; 0000188bH
  00b95	74 24		 je	 SHORT $LN3@GoldMedalO
  00b97	81 7d f4 8c 18
	00 00		 cmp	 DWORD PTR _type$[ebp], 6284 ; 0000188cH
  00b9e	74 1b		 je	 SHORT $LN3@GoldMedalO
  00ba0	81 7d f4 8d 18
	00 00		 cmp	 DWORD PTR _type$[ebp], 6285 ; 0000188dH
  00ba7	74 12		 je	 SHORT $LN3@GoldMedalO
  00ba9	81 7d f4 8e 18
	00 00		 cmp	 DWORD PTR _type$[ebp], 6286 ; 0000188eH
  00bb0	74 09		 je	 SHORT $LN3@GoldMedalO
  00bb2	81 7d f4 8f 18
	00 00		 cmp	 DWORD PTR _type$[ebp], 6287 ; 0000188fH
  00bb9	75 39		 jne	 SHORT $LN4@GoldMedalO
$LN3@GoldMedalO:

; 371  : 			{
; 372  : 				Option1 = 0;

  00bbb	c7 45 e4 00 00
	00 00		 mov	 DWORD PTR _Option1$[ebp], 0

; 373  : 				Option2 = 0;

  00bc2	c7 45 e0 00 00
	00 00		 mov	 DWORD PTR _Option2$[ebp], 0

; 374  : 				Option3 = 0;

  00bc9	c7 45 dc 00 00
	00 00		 mov	 DWORD PTR _Option3$[ebp], 0

; 375  : 				level = GoldMedalItemBag->GetLevel(DropItemNum);

  00bd0	8b 45 d8	 mov	 eax, DWORD PTR _DropItemNum$[ebp]
  00bd3	50		 push	 eax
  00bd4	8b 0d 00 00 00
	00		 mov	 ecx, DWORD PTR ?GoldMedalItemBag@@3PAVCItemBag@@A ; GoldMedalItemBag
  00bda	8b 11		 mov	 edx, DWORD PTR [ecx]
  00bdc	8b 0d 00 00 00
	00		 mov	 ecx, DWORD PTR ?GoldMedalItemBag@@3PAVCItemBag@@A ; GoldMedalItemBag
  00be2	8b 42 14	 mov	 eax, DWORD PTR [edx+20]
  00be5	ff d0		 call	 eax
  00be7	0f b6 c8	 movzx	 ecx, al
  00bea	89 4d f0	 mov	 DWORD PTR _level$[ebp], ecx

; 376  : 				ExOption = 0;

  00bed	c7 45 d4 00 00
	00 00		 mov	 DWORD PTR _ExOption$[ebp], 0
$LN4@GoldMedalO:

; 377  : 			}
; 378  : 
; 379  : 			if ( type == ITEMGET(13,0) ||
; 380  : 				 type == ITEMGET(13,1) ||
; 381  : 				 type == ITEMGET(13,2) ||
; 382  : 				 type == ITEMGET(13,8) ||
; 383  : 				 type == ITEMGET(13,9) ||
; 384  : 				 type == ITEMGET(13,12) ||
; 385  : 				 type == ITEMGET(13,13) )

  00bf4	81 7d f4 00 1a
	00 00		 cmp	 DWORD PTR _type$[ebp], 6656 ; 00001a00H
  00bfb	74 36		 je	 SHORT $LN1@GoldMedalO
  00bfd	81 7d f4 01 1a
	00 00		 cmp	 DWORD PTR _type$[ebp], 6657 ; 00001a01H
  00c04	74 2d		 je	 SHORT $LN1@GoldMedalO
  00c06	81 7d f4 02 1a
	00 00		 cmp	 DWORD PTR _type$[ebp], 6658 ; 00001a02H
  00c0d	74 24		 je	 SHORT $LN1@GoldMedalO
  00c0f	81 7d f4 08 1a
	00 00		 cmp	 DWORD PTR _type$[ebp], 6664 ; 00001a08H
  00c16	74 1b		 je	 SHORT $LN1@GoldMedalO
  00c18	81 7d f4 09 1a
	00 00		 cmp	 DWORD PTR _type$[ebp], 6665 ; 00001a09H
  00c1f	74 12		 je	 SHORT $LN1@GoldMedalO
  00c21	81 7d f4 0c 1a
	00 00		 cmp	 DWORD PTR _type$[ebp], 6668 ; 00001a0cH
  00c28	74 09		 je	 SHORT $LN1@GoldMedalO
  00c2a	81 7d f4 0d 1a
	00 00		 cmp	 DWORD PTR _type$[ebp], 6669 ; 00001a0dH
  00c31	75 07		 jne	 SHORT $LN2@GoldMedalO
$LN1@GoldMedalO:

; 386  : 			{
; 387  : 				level = 0;

  00c33	c7 45 f0 00 00
	00 00		 mov	 DWORD PTR _level$[ebp], 0
$LN2@GoldMedalO:

; 388  : 			}
; 389  : 
; 390  : 			ItemSerialCreateSend(lpObj->m_Index, (BYTE)lpObj->MapNumber, (BYTE)x, (BYTE)y, type, (BYTE)level, (BYTE)dur,
; 391  : 				(BYTE)Option1, (BYTE)Option2, (BYTE)Option3, lpObj->m_Index, (BYTE)ExOption, 0);

  00c3a	6a 00		 push	 0
  00c3c	0f b6 45 d4	 movzx	 eax, BYTE PTR _ExOption$[ebp]
  00c40	50		 push	 eax
  00c41	8b 4d 08	 mov	 ecx, DWORD PTR _lpObj$[ebp]
  00c44	8b 11		 mov	 edx, DWORD PTR [ecx]
  00c46	52		 push	 edx
  00c47	0f b6 45 dc	 movzx	 eax, BYTE PTR _Option3$[ebp]
  00c4b	50		 push	 eax
  00c4c	0f b6 4d e0	 movzx	 ecx, BYTE PTR _Option2$[ebp]
  00c50	51		 push	 ecx
  00c51	0f b6 55 e4	 movzx	 edx, BYTE PTR _Option1$[ebp]
  00c55	52		 push	 edx
  00c56	d9 45 f8	 fld	 DWORD PTR _dur$[ebp]
  00c59	d9 bd b6 fe ff
	ff		 fnstcw	 WORD PTR tv317[ebp]
  00c5f	0f b7 85 b6 fe
	ff ff		 movzx	 eax, WORD PTR tv317[ebp]
  00c66	0d 00 0c 00 00	 or	 eax, 3072		; 00000c00H
  00c6b	89 85 b0 fe ff
	ff		 mov	 DWORD PTR tv320[ebp], eax
  00c71	d9 ad b0 fe ff
	ff		 fldcw	 WORD PTR tv320[ebp]
  00c77	db 9d ac fe ff
	ff		 fistp	 DWORD PTR tv322[ebp]
  00c7d	d9 ad b6 fe ff
	ff		 fldcw	 WORD PTR tv317[ebp]
  00c83	0f b6 85 ac fe
	ff ff		 movzx	 eax, BYTE PTR tv322[ebp]
  00c8a	50		 push	 eax
  00c8b	0f b6 4d f0	 movzx	 ecx, BYTE PTR _level$[ebp]
  00c8f	51		 push	 ecx
  00c90	8b 55 f4	 mov	 edx, DWORD PTR _type$[ebp]
  00c93	52		 push	 edx
  00c94	0f b6 45 e8	 movzx	 eax, BYTE PTR _y$[ebp]
  00c98	50		 push	 eax
  00c99	0f b6 4d ec	 movzx	 ecx, BYTE PTR _x$[ebp]
  00c9d	51		 push	 ecx
  00c9e	8b 55 08	 mov	 edx, DWORD PTR _lpObj$[ebp]
  00ca1	0f b6 82 49 01
	00 00		 movzx	 eax, BYTE PTR [edx+329]
  00ca8	50		 push	 eax
  00ca9	8b 4d 08	 mov	 ecx, DWORD PTR _lpObj$[ebp]
  00cac	8b 11		 mov	 edx, DWORD PTR [ecx]
  00cae	52		 push	 edx
  00caf	e8 00 00 00 00	 call	 ?ItemSerialCreateSend@@YAXHEEEHEEEEEHEE@Z ; ItemSerialCreateSend
  00cb4	83 c4 34	 add	 esp, 52			; 00000034H

; 392  : 
; 393  : 			PMSG_SERVERCMD ServerCmd;
; 394  : 
; 395  : 			PHeadSubSetB((LPBYTE)&ServerCmd, 0xF3, 0x40, sizeof(ServerCmd));

  00cb7	6a 07		 push	 7
  00cb9	6a 40		 push	 64			; 00000040H
  00cbb	68 f3 00 00 00	 push	 243			; 000000f3H
  00cc0	8d 45 cc	 lea	 eax, DWORD PTR _ServerCmd$233335[ebp]
  00cc3	50		 push	 eax
  00cc4	e8 00 00 00 00	 call	 ?PHeadSubSetB@@YAXPAEEEH@Z ; PHeadSubSetB
  00cc9	83 c4 10	 add	 esp, 16			; 00000010H

; 396  : 			ServerCmd.CmdType = 2;

  00ccc	c6 45 d0 02	 mov	 BYTE PTR _ServerCmd$233335[ebp+4], 2

; 397  : 			ServerCmd.X = x;

  00cd0	8a 45 ec	 mov	 al, BYTE PTR _x$[ebp]
  00cd3	88 45 d1	 mov	 BYTE PTR _ServerCmd$233335[ebp+5], al

; 398  : 			ServerCmd.Y = y;

  00cd6	8a 45 e8	 mov	 al, BYTE PTR _y$[ebp]
  00cd9	88 45 d2	 mov	 BYTE PTR _ServerCmd$233335[ebp+6], al

; 399  : 
; 400  : 			MsgSendV2(lpObj, (LPBYTE)&ServerCmd, sizeof(ServerCmd));

  00cdc	6a 07		 push	 7
  00cde	8d 45 cc	 lea	 eax, DWORD PTR _ServerCmd$233335[ebp]
  00ce1	50		 push	 eax
  00ce2	8b 4d 08	 mov	 ecx, DWORD PTR _lpObj$[ebp]
  00ce5	51		 push	 ecx
  00ce6	e8 00 00 00 00	 call	 ?MsgSendV2@@YAXPAUOBJECTSTRUCT@@PAEH@Z ; MsgSendV2
  00ceb	83 c4 0c	 add	 esp, 12			; 0000000cH

; 401  : 			DataSend(lpObj->m_Index, (LPBYTE)&ServerCmd, sizeof(ServerCmd));

  00cee	6a 07		 push	 7
  00cf0	8d 45 cc	 lea	 eax, DWORD PTR _ServerCmd$233335[ebp]
  00cf3	50		 push	 eax
  00cf4	8b 4d 08	 mov	 ecx, DWORD PTR _lpObj$[ebp]
  00cf7	8b 11		 mov	 edx, DWORD PTR [ecx]
  00cf9	52		 push	 edx
  00cfa	e8 00 00 00 00	 call	 ?DataSend@@YAHHPAEK@Z	; DataSend
  00cff	83 c4 0c	 add	 esp, 12			; 0000000cH

; 402  : 
; 403  : 			CItem EventItem;

  00d02	8d 8d f8 fe ff
	ff		 lea	 ecx, DWORD PTR _EventItem$233339[ebp]
  00d08	e8 00 00 00 00	 call	 ??0CItem@@QAE@XZ	; CItem::CItem

; 404  : 
; 405  : 			EventItem.Convert(type, Option1, Option2, Option3, 0, 1, 0, NULL, 0xFF, 0, 3);

  00d0d	6a 03		 push	 3
  00d0f	6a 00		 push	 0
  00d11	68 ff 00 00 00	 push	 255			; 000000ffH
  00d16	6a 00		 push	 0
  00d18	6a 00		 push	 0
  00d1a	6a 01		 push	 1
  00d1c	6a 00		 push	 0
  00d1e	0f b6 45 dc	 movzx	 eax, BYTE PTR _Option3$[ebp]
  00d22	50		 push	 eax
  00d23	0f b6 4d e0	 movzx	 ecx, BYTE PTR _Option2$[ebp]
  00d27	51		 push	 ecx
  00d28	0f b6 55 e4	 movzx	 edx, BYTE PTR _Option1$[ebp]
  00d2c	52		 push	 edx
  00d2d	8b 45 f4	 mov	 eax, DWORD PTR _type$[ebp]
  00d30	50		 push	 eax
  00d31	8d 8d f8 fe ff
	ff		 lea	 ecx, DWORD PTR _EventItem$233339[ebp]
  00d37	e8 00 00 00 00	 call	 ?Convert@CItem@@QAEXHEEEEEEPAEEEE@Z ; CItem::Convert

; 406  : 
; 407  : 			LogAddTD("[%s][%s][Lucky Box Item Drop][Gold Medal] : (%d)(X:%d/Y:%d) Item:%s(%d) Level:%d Op1:%d Op2:%d Op3:%d",
; 408  : 				lpObj->AccountID, lpObj->Name, lpObj->MapNumber, lpObj->X, lpObj->Y, EventItem.GetName(),
; 409  : 				type, level, Option1, Option2, Option3);

  00d3c	8b 45 dc	 mov	 eax, DWORD PTR _Option3$[ebp]
  00d3f	50		 push	 eax
  00d40	8b 4d e0	 mov	 ecx, DWORD PTR _Option2$[ebp]
  00d43	51		 push	 ecx
  00d44	8b 55 e4	 mov	 edx, DWORD PTR _Option1$[ebp]
  00d47	52		 push	 edx
  00d48	8b 45 f0	 mov	 eax, DWORD PTR _level$[ebp]
  00d4b	50		 push	 eax
  00d4c	8b 4d f4	 mov	 ecx, DWORD PTR _type$[ebp]
  00d4f	51		 push	 ecx
  00d50	8d 8d f8 fe ff
	ff		 lea	 ecx, DWORD PTR _EventItem$233339[ebp]
  00d56	e8 00 00 00 00	 call	 ?GetName@CItem@@QAEPADXZ ; CItem::GetName
  00d5b	50		 push	 eax
  00d5c	8b 55 08	 mov	 edx, DWORD PTR _lpObj$[ebp]
  00d5f	0f bf 82 46 01
	00 00		 movsx	 eax, WORD PTR [edx+326]
  00d66	50		 push	 eax
  00d67	8b 4d 08	 mov	 ecx, DWORD PTR _lpObj$[ebp]
  00d6a	0f bf 91 44 01
	00 00		 movsx	 edx, WORD PTR [ecx+324]
  00d71	52		 push	 edx
  00d72	8b 45 08	 mov	 eax, DWORD PTR _lpObj$[ebp]
  00d75	0f b6 88 49 01
	00 00		 movzx	 ecx, BYTE PTR [eax+329]
  00d7c	51		 push	 ecx
  00d7d	8b 55 08	 mov	 edx, DWORD PTR _lpObj$[ebp]
  00d80	83 c2 77	 add	 edx, 119		; 00000077H
  00d83	52		 push	 edx
  00d84	8b 45 08	 mov	 eax, DWORD PTR _lpObj$[ebp]
  00d87	83 c0 6c	 add	 eax, 108		; 0000006cH
  00d8a	50		 push	 eax
  00d8b	68 00 00 00 00	 push	 OFFSET ??_C@_0GG@JMHMGOHL@?$FL?$CFs?$FN?$FL?$CFs?$FN?$FLLucky?5Box?5Item?5Drop?$FN?$FLGo@
  00d90	ff 15 00 00 00
	00		 call	 DWORD PTR ?LogAddTD@@3P6AXPADZZA ; LogAddTD
  00d96	83 c4 30	 add	 esp, 48			; 00000030H

; 410  : 
; 411  : 			return;

  00d99	eb 42		 jmp	 SHORT $LN14@GoldMedalO
$LN11@GoldMedalO:

; 412  : 		}
; 413  : 	}
; 414  : 
; 415  : 	x = lpObj->X;

  00d9b	8b 45 08	 mov	 eax, DWORD PTR _lpObj$[ebp]
  00d9e	0f bf 88 44 01
	00 00		 movsx	 ecx, WORD PTR [eax+324]
  00da5	89 4d ec	 mov	 DWORD PTR _x$[ebp], ecx

; 416  : 	y = lpObj->Y;

  00da8	8b 45 08	 mov	 eax, DWORD PTR _lpObj$[ebp]
  00dab	0f bf 88 46 01
	00 00		 movsx	 ecx, WORD PTR [eax+326]
  00db2	89 4d e8	 mov	 DWORD PTR _y$[ebp], ecx

; 417  : 	MapC[lpObj->MapNumber].MoneyItemDrop(100000, x, y);

  00db5	8b 45 e8	 mov	 eax, DWORD PTR _y$[ebp]
  00db8	50		 push	 eax
  00db9	8b 4d ec	 mov	 ecx, DWORD PTR _x$[ebp]
  00dbc	51		 push	 ecx
  00dbd	68 a0 86 01 00	 push	 100000			; 000186a0H
  00dc2	8b 55 08	 mov	 edx, DWORD PTR _lpObj$[ebp]
  00dc5	0f b6 8a 49 01
	00 00		 movzx	 ecx, BYTE PTR [edx+329]
  00dcc	69 c9 b8 3d 05
	00		 imul	 ecx, 343480		; 00053db8H
  00dd2	81 c1 00 00 00
	00		 add	 ecx, OFFSET ?MapC@@3PAVMapClass@@A ; MapC
  00dd8	e8 00 00 00 00	 call	 ?MoneyItemDrop@MapClass@@QAEHHHH@Z ; MapClass::MoneyItemDrop
$LN14@GoldMedalO:

; 418  : }

  00ddd	5f		 pop	 edi
  00dde	5e		 pop	 esi
  00ddf	5b		 pop	 ebx
  00de0	8b 4d fc	 mov	 ecx, DWORD PTR __$ArrayPad$[ebp]
  00de3	33 cd		 xor	 ecx, ebp
  00de5	e8 00 00 00 00	 call	 @__security_check_cookie@4
  00dea	8b e5		 mov	 esp, ebp
  00dec	5d		 pop	 ebp
  00ded	c3		 ret	 0
?GoldMedalOpenEven@@YAXPAUOBJECTSTRUCT@@@Z ENDP		; GoldMedalOpenEven
_TEXT	ENDS
PUBLIC	??_C@_0GI@IEKACMEE@?$FL?$CFs?$FN?$FL?$CFs?$FN?$FLLucky?5Box?5Item?5Drop?$FN?$FLSi@ ; `string'
PUBLIC	__$ArrayPad$
PUBLIC	?SilverMedalOpenEven@@YAXPAUOBJECTSTRUCT@@@Z	; SilverMedalOpenEven
EXTRN	?g_ItemDropRateForSilverMedal@@3HA:DWORD	; g_ItemDropRateForSilverMedal
EXTRN	?SilverMedalItemBag@@3PAVCItemBag@@A:DWORD	; SilverMedalItemBag
;	COMDAT ??_C@_0GI@IEKACMEE@?$FL?$CFs?$FN?$FL?$CFs?$FN?$FLLucky?5Box?5Item?5Drop?$FN?$FLSi@
CONST	SEGMENT
??_C@_0GI@IEKACMEE@?$FL?$CFs?$FN?$FL?$CFs?$FN?$FLLucky?5Box?5Item?5Drop?$FN?$FLSi@ DB '['
	DB	'%s][%s][Lucky Box Item Drop][Silver Medal] : (%d)(X:%d/Y:%d) '
	DB	'Item:%s(%d) Level:%d Op1:%d Op2:%d Op3:%d', 00H ; `string'
; Function compile flags: /Odtp /ZI
CONST	ENDS
_TEXT	SEGMENT
tv322 = -340						; size = 4
tv320 = -336						; size = 4
tv317 = -330						; size = 2
_EventItem$233379 = -264				; size = 212
_ServerCmd$233375 = -52					; size = 7
_ExOption$ = -44					; size = 4
_DropItemNum$ = -40					; size = 4
_Option3$ = -36						; size = 4
_Option2$ = -32						; size = 4
_Option1$ = -28						; size = 4
_y$ = -24						; size = 4
_x$ = -20						; size = 4
_level$ = -16						; size = 4
_type$ = -12						; size = 4
_dur$ = -8						; size = 4
__$ArrayPad$ = -4					; size = 4
_lpObj$ = 8						; size = 4
?SilverMedalOpenEven@@YAXPAUOBJECTSTRUCT@@@Z PROC	; SilverMedalOpenEven

; 421  : {

  00df0	55		 push	 ebp
  00df1	8b ec		 mov	 ebp, esp
  00df3	81 ec 54 01 00
	00		 sub	 esp, 340		; 00000154H
  00df9	a1 00 00 00 00	 mov	 eax, DWORD PTR ___security_cookie
  00dfe	33 c5		 xor	 eax, ebp
  00e00	89 45 fc	 mov	 DWORD PTR __$ArrayPad$[ebp], eax
  00e03	53		 push	 ebx
  00e04	56		 push	 esi
  00e05	57		 push	 edi

; 422  : 	float dur;
; 423  : 	int type;
; 424  : 	int level;
; 425  : 	int x;
; 426  : 	int y;
; 427  : 	int Option1=0;

  00e06	c7 45 e4 00 00
	00 00		 mov	 DWORD PTR _Option1$[ebp], 0

; 428  : 	int Option2=0;

  00e0d	c7 45 e0 00 00
	00 00		 mov	 DWORD PTR _Option2$[ebp], 0

; 429  : 	int Option3=0;

  00e14	c7 45 dc 00 00
	00 00		 mov	 DWORD PTR _Option3$[ebp], 0

; 430  : 	int DropItemNum;
; 431  : 	int ExOption=0;

  00e1b	c7 45 d4 00 00
	00 00		 mov	 DWORD PTR _ExOption$[ebp], 0

; 432  : 
; 433  : 	if ( !SilverMedalItemBag )

  00e22	83 3d 00 00 00
	00 00		 cmp	 DWORD PTR ?SilverMedalItemBag@@3PAVCItemBag@@A, 0 ; SilverMedalItemBag
  00e29	75 05		 jne	 SHORT $LN13@SilverMeda

; 434  : 		return;

  00e2b	e9 9a 04 00 00	 jmp	 $LN14@SilverMeda
$LN13@SilverMeda:

; 435  : 
; 436  : 	if ( SilverMedalItemBag->GetBagCount() > 0 )

  00e30	8b 0d 00 00 00
	00		 mov	 ecx, DWORD PTR ?SilverMedalItemBag@@3PAVCItemBag@@A ; SilverMedalItemBag
  00e36	e8 00 00 00 00	 call	 ?GetBagCount@CItemBag@@QAEHXZ ; CItemBag::GetBagCount
  00e3b	85 c0		 test	 eax, eax
  00e3d	0f 8e 45 04 00
	00		 jle	 $LN11@SilverMeda

; 437  : 	{
; 438  : 		if ( (rand()%20) < g_ItemDropRateForSilverMedal )

  00e43	e8 00 00 00 00	 call	 _rand
  00e48	99		 cdq
  00e49	b9 14 00 00 00	 mov	 ecx, 20			; 00000014H
  00e4e	f7 f9		 idiv	 ecx
  00e50	3b 15 00 00 00
	00		 cmp	 edx, DWORD PTR ?g_ItemDropRateForSilverMedal@@3HA ; g_ItemDropRateForSilverMedal
  00e56	0f 8d 2c 04 00
	00		 jge	 $LN11@SilverMeda

; 439  : 		{
; 440  : 			DropItemNum = rand()%SilverMedalItemBag->GetBagCount();

  00e5c	e8 00 00 00 00	 call	 _rand
  00e61	8b f0		 mov	 esi, eax
  00e63	8b 0d 00 00 00
	00		 mov	 ecx, DWORD PTR ?SilverMedalItemBag@@3PAVCItemBag@@A ; SilverMedalItemBag
  00e69	e8 00 00 00 00	 call	 ?GetBagCount@CItemBag@@QAEHXZ ; CItemBag::GetBagCount
  00e6e	8b c8		 mov	 ecx, eax
  00e70	8b c6		 mov	 eax, esi
  00e72	99		 cdq
  00e73	f7 f9		 idiv	 ecx
  00e75	89 55 d8	 mov	 DWORD PTR _DropItemNum$[ebp], edx

; 441  : 			dur=0;

  00e78	d9 ee		 fldz
  00e7a	d9 5d f8	 fstp	 DWORD PTR _dur$[ebp]

; 442  : 			x = lpObj->X;

  00e7d	8b 45 08	 mov	 eax, DWORD PTR _lpObj$[ebp]
  00e80	0f bf 88 44 01
	00 00		 movsx	 ecx, WORD PTR [eax+324]
  00e87	89 4d ec	 mov	 DWORD PTR _x$[ebp], ecx

; 443  : 			y = lpObj->Y;

  00e8a	8b 45 08	 mov	 eax, DWORD PTR _lpObj$[ebp]
  00e8d	0f bf 88 46 01
	00 00		 movsx	 ecx, WORD PTR [eax+326]
  00e94	89 4d e8	 mov	 DWORD PTR _y$[ebp], ecx

; 444  : 			level = SilverMedalItemBag->GetLevel(DropItemNum) + rand()%4;

  00e97	8b 45 d8	 mov	 eax, DWORD PTR _DropItemNum$[ebp]
  00e9a	50		 push	 eax
  00e9b	8b 0d 00 00 00
	00		 mov	 ecx, DWORD PTR ?SilverMedalItemBag@@3PAVCItemBag@@A ; SilverMedalItemBag
  00ea1	8b 11		 mov	 edx, DWORD PTR [ecx]
  00ea3	8b 0d 00 00 00
	00		 mov	 ecx, DWORD PTR ?SilverMedalItemBag@@3PAVCItemBag@@A ; SilverMedalItemBag
  00ea9	8b 42 14	 mov	 eax, DWORD PTR [edx+20]
  00eac	ff d0		 call	 eax
  00eae	0f b6 f0	 movzx	 esi, al
  00eb1	e8 00 00 00 00	 call	 _rand
  00eb6	25 03 00 00 80	 and	 eax, -2147483645	; 80000003H
  00ebb	79 05		 jns	 SHORT $LN16@SilverMeda
  00ebd	48		 dec	 eax
  00ebe	83 c8 fc	 or	 eax, -4			; fffffffcH
  00ec1	40		 inc	 eax
$LN16@SilverMeda:
  00ec2	03 f0		 add	 esi, eax
  00ec4	89 75 f0	 mov	 DWORD PTR _level$[ebp], esi

; 445  : 			type = ItemGetNumberMake(SilverMedalItemBag->GetType(DropItemNum), SilverMedalItemBag->GetIndex(DropItemNum));

  00ec7	8b 45 d8	 mov	 eax, DWORD PTR _DropItemNum$[ebp]
  00eca	50		 push	 eax
  00ecb	8b 0d 00 00 00
	00		 mov	 ecx, DWORD PTR ?SilverMedalItemBag@@3PAVCItemBag@@A ; SilverMedalItemBag
  00ed1	8b 11		 mov	 edx, DWORD PTR [ecx]
  00ed3	8b 0d 00 00 00
	00		 mov	 ecx, DWORD PTR ?SilverMedalItemBag@@3PAVCItemBag@@A ; SilverMedalItemBag
  00ed9	8b 42 10	 mov	 eax, DWORD PTR [edx+16]
  00edc	ff d0		 call	 eax
  00ede	0f b6 c8	 movzx	 ecx, al
  00ee1	51		 push	 ecx
  00ee2	8b 55 d8	 mov	 edx, DWORD PTR _DropItemNum$[ebp]
  00ee5	52		 push	 edx
  00ee6	a1 00 00 00 00	 mov	 eax, DWORD PTR ?SilverMedalItemBag@@3PAVCItemBag@@A ; SilverMedalItemBag
  00eeb	8b 10		 mov	 edx, DWORD PTR [eax]
  00eed	8b 0d 00 00 00
	00		 mov	 ecx, DWORD PTR ?SilverMedalItemBag@@3PAVCItemBag@@A ; SilverMedalItemBag
  00ef3	8b 42 0c	 mov	 eax, DWORD PTR [edx+12]
  00ef6	ff d0		 call	 eax
  00ef8	0f b6 c8	 movzx	 ecx, al
  00efb	51		 push	 ecx
  00efc	e8 00 00 00 00	 call	 ?ItemGetNumberMake@@YAHHH@Z ; ItemGetNumberMake
  00f01	83 c4 08	 add	 esp, 8
  00f04	89 45 f4	 mov	 DWORD PTR _type$[ebp], eax

; 446  : 			Option1 = rand()%2;

  00f07	e8 00 00 00 00	 call	 _rand
  00f0c	25 01 00 00 80	 and	 eax, -2147483647	; 80000001H
  00f11	79 05		 jns	 SHORT $LN17@SilverMeda
  00f13	48		 dec	 eax
  00f14	83 c8 fe	 or	 eax, -2			; fffffffeH
  00f17	40		 inc	 eax
$LN17@SilverMeda:
  00f18	89 45 e4	 mov	 DWORD PTR _Option1$[ebp], eax

; 447  : 			Option2 = rand()%2;

  00f1b	e8 00 00 00 00	 call	 _rand
  00f20	25 01 00 00 80	 and	 eax, -2147483647	; 80000001H
  00f25	79 05		 jns	 SHORT $LN18@SilverMeda
  00f27	48		 dec	 eax
  00f28	83 c8 fe	 or	 eax, -2			; fffffffeH
  00f2b	40		 inc	 eax
$LN18@SilverMeda:
  00f2c	89 45 e0	 mov	 DWORD PTR _Option2$[ebp], eax

; 448  : 
; 449  : 			if ( !Option2 || !Option1 )

  00f2f	83 7d e0 00	 cmp	 DWORD PTR _Option2$[ebp], 0
  00f33	74 06		 je	 SHORT $LN9@SilverMeda
  00f35	83 7d e4 00	 cmp	 DWORD PTR _Option1$[ebp], 0
  00f39	75 2b		 jne	 SHORT $LN7@SilverMeda
$LN9@SilverMeda:

; 450  : 			{
; 451  : 				if ( (rand()%5) <1 )

  00f3b	e8 00 00 00 00	 call	 _rand
  00f40	99		 cdq
  00f41	b9 05 00 00 00	 mov	 ecx, 5
  00f46	f7 f9		 idiv	 ecx
  00f48	83 fa 01	 cmp	 edx, 1
  00f4b	7d 09		 jge	 SHORT $LN8@SilverMeda

; 452  : 					Option3 = 3;

  00f4d	c7 45 dc 03 00
	00 00		 mov	 DWORD PTR _Option3$[ebp], 3

; 453  : 				else

  00f54	eb 10		 jmp	 SHORT $LN7@SilverMeda
$LN8@SilverMeda:

; 454  : 					Option3 = rand()%3;

  00f56	e8 00 00 00 00	 call	 _rand
  00f5b	99		 cdq
  00f5c	b9 03 00 00 00	 mov	 ecx, 3
  00f61	f7 f9		 idiv	 ecx
  00f63	89 55 dc	 mov	 DWORD PTR _Option3$[ebp], edx
$LN7@SilverMeda:

; 455  : 			}
; 456  : 
; 457  : 			if ( type == ITEMGET(12,15) ||
; 458  : 				 type == ITEMGET(14,13) ||
; 459  : 				 type == ITEMGET(14,14) ||
; 460  : 				 type == ITEMGET(14,14) ||
; 461  : 				 type == ITEMGET(14,16)	||
; 462  : 				 type == ITEMGET(14,22)	||
; 463  : 				 type == ITEMGET(14,31)	||
; 464  : 				 type == ITEMGET(14,41)	||
; 465  : 				 type == ITEMGET(14,42)	||
; 466  : 				 type == ITEMGET(14,180)||
; 467  : 				 type == ITEMGET(14,181)||
; 468  : 				 type == ITEMGET(14,182)||
; 469  : 				 type == ITEMGET(14,183)||
; 470  : 				 type == ITEMGET(14,184)||
; 471  : 				 type == ITEMGET(14,185)||
; 472  : 				 type == ITEMGET(14,186)||
; 473  : 				 type == ITEMGET(14,187)||
; 474  : 				 type == ITEMGET(14,190)||
; 475  : 				 type == ITEMGET(14,43) ||
; 476  : 				 type == ITEMGET(14,44) )

  00f66	81 7d f4 0f 18
	00 00		 cmp	 DWORD PTR _type$[ebp], 6159 ; 0000180fH
  00f6d	0f 84 bb 00 00
	00		 je	 $LN5@SilverMeda
  00f73	81 7d f4 0d 1c
	00 00		 cmp	 DWORD PTR _type$[ebp], 7181 ; 00001c0dH
  00f7a	0f 84 ae 00 00
	00		 je	 $LN5@SilverMeda
  00f80	81 7d f4 0e 1c
	00 00		 cmp	 DWORD PTR _type$[ebp], 7182 ; 00001c0eH
  00f87	0f 84 a1 00 00
	00		 je	 $LN5@SilverMeda
  00f8d	81 7d f4 0e 1c
	00 00		 cmp	 DWORD PTR _type$[ebp], 7182 ; 00001c0eH
  00f94	0f 84 94 00 00
	00		 je	 $LN5@SilverMeda
  00f9a	81 7d f4 10 1c
	00 00		 cmp	 DWORD PTR _type$[ebp], 7184 ; 00001c10H
  00fa1	0f 84 87 00 00
	00		 je	 $LN5@SilverMeda
  00fa7	81 7d f4 16 1c
	00 00		 cmp	 DWORD PTR _type$[ebp], 7190 ; 00001c16H
  00fae	74 7e		 je	 SHORT $LN5@SilverMeda
  00fb0	81 7d f4 1f 1c
	00 00		 cmp	 DWORD PTR _type$[ebp], 7199 ; 00001c1fH
  00fb7	74 75		 je	 SHORT $LN5@SilverMeda
  00fb9	81 7d f4 29 1c
	00 00		 cmp	 DWORD PTR _type$[ebp], 7209 ; 00001c29H
  00fc0	74 6c		 je	 SHORT $LN5@SilverMeda
  00fc2	81 7d f4 2a 1c
	00 00		 cmp	 DWORD PTR _type$[ebp], 7210 ; 00001c2aH
  00fc9	74 63		 je	 SHORT $LN5@SilverMeda
  00fcb	81 7d f4 b4 1c
	00 00		 cmp	 DWORD PTR _type$[ebp], 7348 ; 00001cb4H
  00fd2	74 5a		 je	 SHORT $LN5@SilverMeda
  00fd4	81 7d f4 b5 1c
	00 00		 cmp	 DWORD PTR _type$[ebp], 7349 ; 00001cb5H
  00fdb	74 51		 je	 SHORT $LN5@SilverMeda
  00fdd	81 7d f4 b6 1c
	00 00		 cmp	 DWORD PTR _type$[ebp], 7350 ; 00001cb6H
  00fe4	74 48		 je	 SHORT $LN5@SilverMeda
  00fe6	81 7d f4 b7 1c
	00 00		 cmp	 DWORD PTR _type$[ebp], 7351 ; 00001cb7H
  00fed	74 3f		 je	 SHORT $LN5@SilverMeda
  00fef	81 7d f4 b8 1c
	00 00		 cmp	 DWORD PTR _type$[ebp], 7352 ; 00001cb8H
  00ff6	74 36		 je	 SHORT $LN5@SilverMeda
  00ff8	81 7d f4 b9 1c
	00 00		 cmp	 DWORD PTR _type$[ebp], 7353 ; 00001cb9H
  00fff	74 2d		 je	 SHORT $LN5@SilverMeda
  01001	81 7d f4 ba 1c
	00 00		 cmp	 DWORD PTR _type$[ebp], 7354 ; 00001cbaH
  01008	74 24		 je	 SHORT $LN5@SilverMeda
  0100a	81 7d f4 bb 1c
	00 00		 cmp	 DWORD PTR _type$[ebp], 7355 ; 00001cbbH
  01011	74 1b		 je	 SHORT $LN5@SilverMeda
  01013	81 7d f4 be 1c
	00 00		 cmp	 DWORD PTR _type$[ebp], 7358 ; 00001cbeH
  0101a	74 12		 je	 SHORT $LN5@SilverMeda
  0101c	81 7d f4 2b 1c
	00 00		 cmp	 DWORD PTR _type$[ebp], 7211 ; 00001c2bH
  01023	74 09		 je	 SHORT $LN5@SilverMeda
  01025	81 7d f4 2c 1c
	00 00		 cmp	 DWORD PTR _type$[ebp], 7212 ; 00001c2cH
  0102c	75 23		 jne	 SHORT $LN6@SilverMeda
$LN5@SilverMeda:

; 477  : 			{
; 478  : 				Option1 = 0;

  0102e	c7 45 e4 00 00
	00 00		 mov	 DWORD PTR _Option1$[ebp], 0

; 479  : 				Option2 = 0;

  01035	c7 45 e0 00 00
	00 00		 mov	 DWORD PTR _Option2$[ebp], 0

; 480  : 				Option3 = 0;

  0103c	c7 45 dc 00 00
	00 00		 mov	 DWORD PTR _Option3$[ebp], 0

; 481  : 				level = 0;

  01043	c7 45 f0 00 00
	00 00		 mov	 DWORD PTR _level$[ebp], 0

; 482  : 				ExOption = 0;

  0104a	c7 45 d4 00 00
	00 00		 mov	 DWORD PTR _ExOption$[ebp], 0
$LN6@SilverMeda:

; 483  : 			}
; 484  : 
; 485  : 			if ( type == ITEMGET(12,30)	||
; 486  : 				 type == ITEMGET(12,31)	||
; 487  : 				 type == ITEMGET(12,136)||
; 488  : 				 type == ITEMGET(12,137)||
; 489  : 				 type == ITEMGET(12,138)||
; 490  : 				 type == ITEMGET(12,139)||
; 491  : 				 type == ITEMGET(12,140)||
; 492  : 				 type == ITEMGET(12,141)||
; 493  : 				 type == ITEMGET(12,142)||
; 494  : 				 type == ITEMGET(12,143))

  01051	81 7d f4 1e 18
	00 00		 cmp	 DWORD PTR _type$[ebp], 6174 ; 0000181eH
  01058	74 51		 je	 SHORT $LN3@SilverMeda
  0105a	81 7d f4 1f 18
	00 00		 cmp	 DWORD PTR _type$[ebp], 6175 ; 0000181fH
  01061	74 48		 je	 SHORT $LN3@SilverMeda
  01063	81 7d f4 88 18
	00 00		 cmp	 DWORD PTR _type$[ebp], 6280 ; 00001888H
  0106a	74 3f		 je	 SHORT $LN3@SilverMeda
  0106c	81 7d f4 89 18
	00 00		 cmp	 DWORD PTR _type$[ebp], 6281 ; 00001889H
  01073	74 36		 je	 SHORT $LN3@SilverMeda
  01075	81 7d f4 8a 18
	00 00		 cmp	 DWORD PTR _type$[ebp], 6282 ; 0000188aH
  0107c	74 2d		 je	 SHORT $LN3@SilverMeda
  0107e	81 7d f4 8b 18
	00 00		 cmp	 DWORD PTR _type$[ebp], 6283 ; 0000188bH
  01085	74 24		 je	 SHORT $LN3@SilverMeda
  01087	81 7d f4 8c 18
	00 00		 cmp	 DWORD PTR _type$[ebp], 6284 ; 0000188cH
  0108e	74 1b		 je	 SHORT $LN3@SilverMeda
  01090	81 7d f4 8d 18
	00 00		 cmp	 DWORD PTR _type$[ebp], 6285 ; 0000188dH
  01097	74 12		 je	 SHORT $LN3@SilverMeda
  01099	81 7d f4 8e 18
	00 00		 cmp	 DWORD PTR _type$[ebp], 6286 ; 0000188eH
  010a0	74 09		 je	 SHORT $LN3@SilverMeda
  010a2	81 7d f4 8f 18
	00 00		 cmp	 DWORD PTR _type$[ebp], 6287 ; 0000188fH
  010a9	75 39		 jne	 SHORT $LN4@SilverMeda
$LN3@SilverMeda:

; 495  : 			{
; 496  : 				Option1 = 0;

  010ab	c7 45 e4 00 00
	00 00		 mov	 DWORD PTR _Option1$[ebp], 0

; 497  : 				Option2 = 0;

  010b2	c7 45 e0 00 00
	00 00		 mov	 DWORD PTR _Option2$[ebp], 0

; 498  : 				Option3 = 0;

  010b9	c7 45 dc 00 00
	00 00		 mov	 DWORD PTR _Option3$[ebp], 0

; 499  : 				level = SilverMedalItemBag->GetLevel(DropItemNum);

  010c0	8b 45 d8	 mov	 eax, DWORD PTR _DropItemNum$[ebp]
  010c3	50		 push	 eax
  010c4	8b 0d 00 00 00
	00		 mov	 ecx, DWORD PTR ?SilverMedalItemBag@@3PAVCItemBag@@A ; SilverMedalItemBag
  010ca	8b 11		 mov	 edx, DWORD PTR [ecx]
  010cc	8b 0d 00 00 00
	00		 mov	 ecx, DWORD PTR ?SilverMedalItemBag@@3PAVCItemBag@@A ; SilverMedalItemBag
  010d2	8b 42 14	 mov	 eax, DWORD PTR [edx+20]
  010d5	ff d0		 call	 eax
  010d7	0f b6 c8	 movzx	 ecx, al
  010da	89 4d f0	 mov	 DWORD PTR _level$[ebp], ecx

; 500  : 				ExOption = 0;

  010dd	c7 45 d4 00 00
	00 00		 mov	 DWORD PTR _ExOption$[ebp], 0
$LN4@SilverMeda:

; 501  : 			}
; 502  : 
; 503  : 			if ( type == ITEMGET(13,0) ||
; 504  : 				 type == ITEMGET(13,1) ||
; 505  : 				 type == ITEMGET(13,2) ||
; 506  : 				 type == ITEMGET(13,8) ||
; 507  : 				 type == ITEMGET(13,9) ||
; 508  : 				 type == ITEMGET(13,12) ||
; 509  : 				 type == ITEMGET(13,13) )

  010e4	81 7d f4 00 1a
	00 00		 cmp	 DWORD PTR _type$[ebp], 6656 ; 00001a00H
  010eb	74 36		 je	 SHORT $LN1@SilverMeda
  010ed	81 7d f4 01 1a
	00 00		 cmp	 DWORD PTR _type$[ebp], 6657 ; 00001a01H
  010f4	74 2d		 je	 SHORT $LN1@SilverMeda
  010f6	81 7d f4 02 1a
	00 00		 cmp	 DWORD PTR _type$[ebp], 6658 ; 00001a02H
  010fd	74 24		 je	 SHORT $LN1@SilverMeda
  010ff	81 7d f4 08 1a
	00 00		 cmp	 DWORD PTR _type$[ebp], 6664 ; 00001a08H
  01106	74 1b		 je	 SHORT $LN1@SilverMeda
  01108	81 7d f4 09 1a
	00 00		 cmp	 DWORD PTR _type$[ebp], 6665 ; 00001a09H
  0110f	74 12		 je	 SHORT $LN1@SilverMeda
  01111	81 7d f4 0c 1a
	00 00		 cmp	 DWORD PTR _type$[ebp], 6668 ; 00001a0cH
  01118	74 09		 je	 SHORT $LN1@SilverMeda
  0111a	81 7d f4 0d 1a
	00 00		 cmp	 DWORD PTR _type$[ebp], 6669 ; 00001a0dH
  01121	75 07		 jne	 SHORT $LN2@SilverMeda
$LN1@SilverMeda:

; 510  : 			{
; 511  : 				level = 0;

  01123	c7 45 f0 00 00
	00 00		 mov	 DWORD PTR _level$[ebp], 0
$LN2@SilverMeda:

; 512  : 			}
; 513  : 
; 514  : 			ItemSerialCreateSend(lpObj->m_Index, (BYTE)lpObj->MapNumber, (BYTE)x, (BYTE)y, type, (BYTE)level, (BYTE)dur,
; 515  : 				(BYTE)Option1, (BYTE)Option2, (BYTE)Option3, lpObj->m_Index, 0, 0);

  0112a	6a 00		 push	 0
  0112c	6a 00		 push	 0
  0112e	8b 45 08	 mov	 eax, DWORD PTR _lpObj$[ebp]
  01131	8b 08		 mov	 ecx, DWORD PTR [eax]
  01133	51		 push	 ecx
  01134	0f b6 55 dc	 movzx	 edx, BYTE PTR _Option3$[ebp]
  01138	52		 push	 edx
  01139	0f b6 45 e0	 movzx	 eax, BYTE PTR _Option2$[ebp]
  0113d	50		 push	 eax
  0113e	0f b6 4d e4	 movzx	 ecx, BYTE PTR _Option1$[ebp]
  01142	51		 push	 ecx
  01143	d9 45 f8	 fld	 DWORD PTR _dur$[ebp]
  01146	d9 bd b6 fe ff
	ff		 fnstcw	 WORD PTR tv317[ebp]
  0114c	0f b7 85 b6 fe
	ff ff		 movzx	 eax, WORD PTR tv317[ebp]
  01153	0d 00 0c 00 00	 or	 eax, 3072		; 00000c00H
  01158	89 85 b0 fe ff
	ff		 mov	 DWORD PTR tv320[ebp], eax
  0115e	d9 ad b0 fe ff
	ff		 fldcw	 WORD PTR tv320[ebp]
  01164	db 9d ac fe ff
	ff		 fistp	 DWORD PTR tv322[ebp]
  0116a	d9 ad b6 fe ff
	ff		 fldcw	 WORD PTR tv317[ebp]
  01170	0f b6 95 ac fe
	ff ff		 movzx	 edx, BYTE PTR tv322[ebp]
  01177	52		 push	 edx
  01178	0f b6 45 f0	 movzx	 eax, BYTE PTR _level$[ebp]
  0117c	50		 push	 eax
  0117d	8b 4d f4	 mov	 ecx, DWORD PTR _type$[ebp]
  01180	51		 push	 ecx
  01181	0f b6 55 e8	 movzx	 edx, BYTE PTR _y$[ebp]
  01185	52		 push	 edx
  01186	0f b6 45 ec	 movzx	 eax, BYTE PTR _x$[ebp]
  0118a	50		 push	 eax
  0118b	8b 4d 08	 mov	 ecx, DWORD PTR _lpObj$[ebp]
  0118e	0f b6 91 49 01
	00 00		 movzx	 edx, BYTE PTR [ecx+329]
  01195	52		 push	 edx
  01196	8b 45 08	 mov	 eax, DWORD PTR _lpObj$[ebp]
  01199	8b 08		 mov	 ecx, DWORD PTR [eax]
  0119b	51		 push	 ecx
  0119c	e8 00 00 00 00	 call	 ?ItemSerialCreateSend@@YAXHEEEHEEEEEHEE@Z ; ItemSerialCreateSend
  011a1	83 c4 34	 add	 esp, 52			; 00000034H

; 516  : 
; 517  : 			PMSG_SERVERCMD ServerCmd;
; 518  : 
; 519  : 			PHeadSubSetB((LPBYTE)&ServerCmd, 0xF3, 0x40, sizeof(ServerCmd));

  011a4	6a 07		 push	 7
  011a6	6a 40		 push	 64			; 00000040H
  011a8	68 f3 00 00 00	 push	 243			; 000000f3H
  011ad	8d 45 cc	 lea	 eax, DWORD PTR _ServerCmd$233375[ebp]
  011b0	50		 push	 eax
  011b1	e8 00 00 00 00	 call	 ?PHeadSubSetB@@YAXPAEEEH@Z ; PHeadSubSetB
  011b6	83 c4 10	 add	 esp, 16			; 00000010H

; 520  : 			ServerCmd.CmdType = 2;

  011b9	c6 45 d0 02	 mov	 BYTE PTR _ServerCmd$233375[ebp+4], 2

; 521  : 			ServerCmd.X = x;

  011bd	8a 45 ec	 mov	 al, BYTE PTR _x$[ebp]
  011c0	88 45 d1	 mov	 BYTE PTR _ServerCmd$233375[ebp+5], al

; 522  : 			ServerCmd.Y = y;

  011c3	8a 45 e8	 mov	 al, BYTE PTR _y$[ebp]
  011c6	88 45 d2	 mov	 BYTE PTR _ServerCmd$233375[ebp+6], al

; 523  : 
; 524  : 			MsgSendV2(lpObj, (LPBYTE)&ServerCmd, sizeof(ServerCmd));

  011c9	6a 07		 push	 7
  011cb	8d 45 cc	 lea	 eax, DWORD PTR _ServerCmd$233375[ebp]
  011ce	50		 push	 eax
  011cf	8b 4d 08	 mov	 ecx, DWORD PTR _lpObj$[ebp]
  011d2	51		 push	 ecx
  011d3	e8 00 00 00 00	 call	 ?MsgSendV2@@YAXPAUOBJECTSTRUCT@@PAEH@Z ; MsgSendV2
  011d8	83 c4 0c	 add	 esp, 12			; 0000000cH

; 525  : 			DataSend(lpObj->m_Index, (LPBYTE)&ServerCmd, sizeof(ServerCmd));

  011db	6a 07		 push	 7
  011dd	8d 45 cc	 lea	 eax, DWORD PTR _ServerCmd$233375[ebp]
  011e0	50		 push	 eax
  011e1	8b 4d 08	 mov	 ecx, DWORD PTR _lpObj$[ebp]
  011e4	8b 11		 mov	 edx, DWORD PTR [ecx]
  011e6	52		 push	 edx
  011e7	e8 00 00 00 00	 call	 ?DataSend@@YAHHPAEK@Z	; DataSend
  011ec	83 c4 0c	 add	 esp, 12			; 0000000cH

; 526  : 
; 527  : 			CItem EventItem;

  011ef	8d 8d f8 fe ff
	ff		 lea	 ecx, DWORD PTR _EventItem$233379[ebp]
  011f5	e8 00 00 00 00	 call	 ??0CItem@@QAE@XZ	; CItem::CItem

; 528  : 
; 529  : 			EventItem.Convert(type, Option1, Option2, Option3, 0, 1, 0, NULL, 0xFF, 0, 3);

  011fa	6a 03		 push	 3
  011fc	6a 00		 push	 0
  011fe	68 ff 00 00 00	 push	 255			; 000000ffH
  01203	6a 00		 push	 0
  01205	6a 00		 push	 0
  01207	6a 01		 push	 1
  01209	6a 00		 push	 0
  0120b	0f b6 45 dc	 movzx	 eax, BYTE PTR _Option3$[ebp]
  0120f	50		 push	 eax
  01210	0f b6 4d e0	 movzx	 ecx, BYTE PTR _Option2$[ebp]
  01214	51		 push	 ecx
  01215	0f b6 55 e4	 movzx	 edx, BYTE PTR _Option1$[ebp]
  01219	52		 push	 edx
  0121a	8b 45 f4	 mov	 eax, DWORD PTR _type$[ebp]
  0121d	50		 push	 eax
  0121e	8d 8d f8 fe ff
	ff		 lea	 ecx, DWORD PTR _EventItem$233379[ebp]
  01224	e8 00 00 00 00	 call	 ?Convert@CItem@@QAEXHEEEEEEPAEEEE@Z ; CItem::Convert

; 530  : 
; 531  : 			LogAddTD("[%s][%s][Lucky Box Item Drop][Silver Medal] : (%d)(X:%d/Y:%d) Item:%s(%d) Level:%d Op1:%d Op2:%d Op3:%d",
; 532  : 				lpObj->AccountID, lpObj->Name, lpObj->MapNumber, lpObj->X, lpObj->Y, EventItem.GetName(),
; 533  : 				type, level, Option1, Option2, Option3);

  01229	8b 45 dc	 mov	 eax, DWORD PTR _Option3$[ebp]
  0122c	50		 push	 eax
  0122d	8b 4d e0	 mov	 ecx, DWORD PTR _Option2$[ebp]
  01230	51		 push	 ecx
  01231	8b 55 e4	 mov	 edx, DWORD PTR _Option1$[ebp]
  01234	52		 push	 edx
  01235	8b 45 f0	 mov	 eax, DWORD PTR _level$[ebp]
  01238	50		 push	 eax
  01239	8b 4d f4	 mov	 ecx, DWORD PTR _type$[ebp]
  0123c	51		 push	 ecx
  0123d	8d 8d f8 fe ff
	ff		 lea	 ecx, DWORD PTR _EventItem$233379[ebp]
  01243	e8 00 00 00 00	 call	 ?GetName@CItem@@QAEPADXZ ; CItem::GetName
  01248	50		 push	 eax
  01249	8b 55 08	 mov	 edx, DWORD PTR _lpObj$[ebp]
  0124c	0f bf 82 46 01
	00 00		 movsx	 eax, WORD PTR [edx+326]
  01253	50		 push	 eax
  01254	8b 4d 08	 mov	 ecx, DWORD PTR _lpObj$[ebp]
  01257	0f bf 91 44 01
	00 00		 movsx	 edx, WORD PTR [ecx+324]
  0125e	52		 push	 edx
  0125f	8b 45 08	 mov	 eax, DWORD PTR _lpObj$[ebp]
  01262	0f b6 88 49 01
	00 00		 movzx	 ecx, BYTE PTR [eax+329]
  01269	51		 push	 ecx
  0126a	8b 55 08	 mov	 edx, DWORD PTR _lpObj$[ebp]
  0126d	83 c2 77	 add	 edx, 119		; 00000077H
  01270	52		 push	 edx
  01271	8b 45 08	 mov	 eax, DWORD PTR _lpObj$[ebp]
  01274	83 c0 6c	 add	 eax, 108		; 0000006cH
  01277	50		 push	 eax
  01278	68 00 00 00 00	 push	 OFFSET ??_C@_0GI@IEKACMEE@?$FL?$CFs?$FN?$FL?$CFs?$FN?$FLLucky?5Box?5Item?5Drop?$FN?$FLSi@
  0127d	ff 15 00 00 00
	00		 call	 DWORD PTR ?LogAddTD@@3P6AXPADZZA ; LogAddTD
  01283	83 c4 30	 add	 esp, 48			; 00000030H

; 534  : 
; 535  : 			return;

  01286	eb 42		 jmp	 SHORT $LN14@SilverMeda
$LN11@SilverMeda:

; 536  : 		}
; 537  : 	}
; 538  : 
; 539  : 	x = lpObj->X;

  01288	8b 45 08	 mov	 eax, DWORD PTR _lpObj$[ebp]
  0128b	0f bf 88 44 01
	00 00		 movsx	 ecx, WORD PTR [eax+324]
  01292	89 4d ec	 mov	 DWORD PTR _x$[ebp], ecx

; 540  : 	y = lpObj->Y;

  01295	8b 45 08	 mov	 eax, DWORD PTR _lpObj$[ebp]
  01298	0f bf 88 46 01
	00 00		 movsx	 ecx, WORD PTR [eax+326]
  0129f	89 4d e8	 mov	 DWORD PTR _y$[ebp], ecx

; 541  : 	MapC[lpObj->MapNumber].MoneyItemDrop(100000, x, y);

  012a2	8b 45 e8	 mov	 eax, DWORD PTR _y$[ebp]
  012a5	50		 push	 eax
  012a6	8b 4d ec	 mov	 ecx, DWORD PTR _x$[ebp]
  012a9	51		 push	 ecx
  012aa	68 a0 86 01 00	 push	 100000			; 000186a0H
  012af	8b 55 08	 mov	 edx, DWORD PTR _lpObj$[ebp]
  012b2	0f b6 8a 49 01
	00 00		 movzx	 ecx, BYTE PTR [edx+329]
  012b9	69 c9 b8 3d 05
	00		 imul	 ecx, 343480		; 00053db8H
  012bf	81 c1 00 00 00
	00		 add	 ecx, OFFSET ?MapC@@3PAVMapClass@@A ; MapC
  012c5	e8 00 00 00 00	 call	 ?MoneyItemDrop@MapClass@@QAEHHHH@Z ; MapClass::MoneyItemDrop
$LN14@SilverMeda:

; 542  : }

  012ca	5f		 pop	 edi
  012cb	5e		 pop	 esi
  012cc	5b		 pop	 ebx
  012cd	8b 4d fc	 mov	 ecx, DWORD PTR __$ArrayPad$[ebp]
  012d0	33 cd		 xor	 ecx, ebp
  012d2	e8 00 00 00 00	 call	 @__security_check_cookie@4
  012d7	8b e5		 mov	 esp, ebp
  012d9	5d		 pop	 ebp
  012da	c3		 ret	 0
?SilverMedalOpenEven@@YAXPAUOBJECTSTRUCT@@@Z ENDP	; SilverMedalOpenEven
_TEXT	ENDS
PUBLIC	??_C@_0GJ@EIOJOOBH@?$FL?$CFs?$FN?$FL?$CFs?$FN?$FLLucky?5Box?5Item?5Drop?$FN?$FLHe@ ; `string'
PUBLIC	__$ArrayPad$
PUBLIC	?HeartOfLoveOpenEven@@YAXPAUOBJECTSTRUCT@@@Z	; HeartOfLoveOpenEven
EXTRN	?gLanguage@@3HA:DWORD				; gLanguage
EXTRN	?g_ItemDropRateForgHeartOfLove@@3HA:DWORD	; g_ItemDropRateForgHeartOfLove
EXTRN	?HeartOfLoveItemBag@@3PAVCItemBag@@A:DWORD	; HeartOfLoveItemBag
;	COMDAT ??_C@_0GJ@EIOJOOBH@?$FL?$CFs?$FN?$FL?$CFs?$FN?$FLLucky?5Box?5Item?5Drop?$FN?$FLHe@
CONST	SEGMENT
??_C@_0GJ@EIOJOOBH@?$FL?$CFs?$FN?$FL?$CFs?$FN?$FLLucky?5Box?5Item?5Drop?$FN?$FLHe@ DB '['
	DB	'%s][%s][Lucky Box Item Drop][Heart Of Love] : (%d)(X:%d/Y:%d)'
	DB	' Item:%s(%d) Level:%d Op1:%d Op2:%d Op3:%d', 00H ; `string'
; Function compile flags: /Odtp /ZI
CONST	ENDS
_TEXT	SEGMENT
tv343 = -336						; size = 4
tv341 = -332						; size = 4
tv338 = -326						; size = 2
_EventItem$233420 = -260				; size = 212
_ServerCmd$233416 = -48					; size = 7
_DropItemNum$ = -40					; size = 4
_Option3$ = -36						; size = 4
_Option2$ = -32						; size = 4
_Option1$ = -28						; size = 4
_y$ = -24						; size = 4
_x$ = -20						; size = 4
_level$ = -16						; size = 4
_type$ = -12						; size = 4
_dur$ = -8						; size = 4
__$ArrayPad$ = -4					; size = 4
_lpObj$ = 8						; size = 4
?HeartOfLoveOpenEven@@YAXPAUOBJECTSTRUCT@@@Z PROC	; HeartOfLoveOpenEven

; 548  : {

  012e0	55		 push	 ebp
  012e1	8b ec		 mov	 ebp, esp
  012e3	81 ec 50 01 00
	00		 sub	 esp, 336		; 00000150H
  012e9	a1 00 00 00 00	 mov	 eax, DWORD PTR ___security_cookie
  012ee	33 c5		 xor	 eax, ebp
  012f0	89 45 fc	 mov	 DWORD PTR __$ArrayPad$[ebp], eax
  012f3	53		 push	 ebx
  012f4	56		 push	 esi
  012f5	57		 push	 edi

; 549  : 	float dur;
; 550  : 	int type;
; 551  : 	int level;
; 552  : 	int x;
; 553  : 	int y;
; 554  : 	int Option1=0;

  012f6	c7 45 e4 00 00
	00 00		 mov	 DWORD PTR _Option1$[ebp], 0

; 555  : 	int Option2=0;

  012fd	c7 45 e0 00 00
	00 00		 mov	 DWORD PTR _Option2$[ebp], 0

; 556  : 	int Option3=0;

  01304	c7 45 dc 00 00
	00 00		 mov	 DWORD PTR _Option3$[ebp], 0

; 557  : 	int DropItemNum;
; 558  : 
; 559  : 	if ( !HeartOfLoveItemBag )

  0130b	83 3d 00 00 00
	00 00		 cmp	 DWORD PTR ?HeartOfLoveItemBag@@3PAVCItemBag@@A, 0 ; HeartOfLoveItemBag
  01312	75 05		 jne	 SHORT $LN15@HeartOfLov

; 560  : 		return;

  01314	e9 c3 04 00 00	 jmp	 $LN16@HeartOfLov
$LN15@HeartOfLov:

; 561  : 
; 562  : 	if ( HeartOfLoveItemBag->GetBagCount() > 0 )

  01319	8b 0d 00 00 00
	00		 mov	 ecx, DWORD PTR ?HeartOfLoveItemBag@@3PAVCItemBag@@A ; HeartOfLoveItemBag
  0131f	e8 00 00 00 00	 call	 ?GetBagCount@CItemBag@@QAEHXZ ; CItemBag::GetBagCount
  01324	85 c0		 test	 eax, eax
  01326	0f 8e 6e 04 00
	00		 jle	 $LN13@HeartOfLov

; 563  : 	{
; 564  : 		if ( (rand()%20) < g_ItemDropRateForgHeartOfLove )

  0132c	e8 00 00 00 00	 call	 _rand
  01331	99		 cdq
  01332	b9 14 00 00 00	 mov	 ecx, 20			; 00000014H
  01337	f7 f9		 idiv	 ecx
  01339	3b 15 00 00 00
	00		 cmp	 edx, DWORD PTR ?g_ItemDropRateForgHeartOfLove@@3HA ; g_ItemDropRateForgHeartOfLove
  0133f	0f 8d 55 04 00
	00		 jge	 $LN13@HeartOfLov

; 565  : 		{
; 566  : 			DropItemNum = rand()%HeartOfLoveItemBag->GetBagCount();

  01345	e8 00 00 00 00	 call	 _rand
  0134a	8b f0		 mov	 esi, eax
  0134c	8b 0d 00 00 00
	00		 mov	 ecx, DWORD PTR ?HeartOfLoveItemBag@@3PAVCItemBag@@A ; HeartOfLoveItemBag
  01352	e8 00 00 00 00	 call	 ?GetBagCount@CItemBag@@QAEHXZ ; CItemBag::GetBagCount
  01357	8b c8		 mov	 ecx, eax
  01359	8b c6		 mov	 eax, esi
  0135b	99		 cdq
  0135c	f7 f9		 idiv	 ecx
  0135e	89 55 d8	 mov	 DWORD PTR _DropItemNum$[ebp], edx

; 567  : 			dur=0;

  01361	d9 ee		 fldz
  01363	d9 5d f8	 fstp	 DWORD PTR _dur$[ebp]

; 568  : 			x = lpObj->X;

  01366	8b 45 08	 mov	 eax, DWORD PTR _lpObj$[ebp]
  01369	0f bf 88 44 01
	00 00		 movsx	 ecx, WORD PTR [eax+324]
  01370	89 4d ec	 mov	 DWORD PTR _x$[ebp], ecx

; 569  : 			y = lpObj->Y;

  01373	8b 45 08	 mov	 eax, DWORD PTR _lpObj$[ebp]
  01376	0f bf 88 46 01
	00 00		 movsx	 ecx, WORD PTR [eax+326]
  0137d	89 4d e8	 mov	 DWORD PTR _y$[ebp], ecx

; 570  : 
; 571  : 			if ( gLanguage == 0 )

  01380	83 3d 00 00 00
	00 00		 cmp	 DWORD PTR ?gLanguage@@3HA, 0 ; gLanguage
  01387	75 32		 jne	 SHORT $LN12@HeartOfLov

; 572  : 			{
; 573  : 				level = HeartOfLoveItemBag->GetLevel(DropItemNum) + rand()%2;

  01389	8b 45 d8	 mov	 eax, DWORD PTR _DropItemNum$[ebp]
  0138c	50		 push	 eax
  0138d	8b 0d 00 00 00
	00		 mov	 ecx, DWORD PTR ?HeartOfLoveItemBag@@3PAVCItemBag@@A ; HeartOfLoveItemBag
  01393	8b 11		 mov	 edx, DWORD PTR [ecx]
  01395	8b 0d 00 00 00
	00		 mov	 ecx, DWORD PTR ?HeartOfLoveItemBag@@3PAVCItemBag@@A ; HeartOfLoveItemBag
  0139b	8b 42 14	 mov	 eax, DWORD PTR [edx+20]
  0139e	ff d0		 call	 eax
  013a0	0f b6 f0	 movzx	 esi, al
  013a3	e8 00 00 00 00	 call	 _rand
  013a8	25 01 00 00 80	 and	 eax, -2147483647	; 80000001H
  013ad	79 05		 jns	 SHORT $LN18@HeartOfLov
  013af	48		 dec	 eax
  013b0	83 c8 fe	 or	 eax, -2			; fffffffeH
  013b3	40		 inc	 eax
$LN18@HeartOfLov:
  013b4	03 f0		 add	 esi, eax
  013b6	89 75 f0	 mov	 DWORD PTR _level$[ebp], esi

; 574  : 			}
; 575  : 			else

  013b9	eb 2c		 jmp	 SHORT $LN11@HeartOfLov
$LN12@HeartOfLov:

; 576  : 			{
; 577  : 				level = HeartOfLoveItemBag->GetLevel(DropItemNum) + rand()%5;

  013bb	8b 45 d8	 mov	 eax, DWORD PTR _DropItemNum$[ebp]
  013be	50		 push	 eax
  013bf	8b 0d 00 00 00
	00		 mov	 ecx, DWORD PTR ?HeartOfLoveItemBag@@3PAVCItemBag@@A ; HeartOfLoveItemBag
  013c5	8b 11		 mov	 edx, DWORD PTR [ecx]
  013c7	8b 0d 00 00 00
	00		 mov	 ecx, DWORD PTR ?HeartOfLoveItemBag@@3PAVCItemBag@@A ; HeartOfLoveItemBag
  013cd	8b 42 14	 mov	 eax, DWORD PTR [edx+20]
  013d0	ff d0		 call	 eax
  013d2	0f b6 f0	 movzx	 esi, al
  013d5	e8 00 00 00 00	 call	 _rand
  013da	99		 cdq
  013db	b9 05 00 00 00	 mov	 ecx, 5
  013e0	f7 f9		 idiv	 ecx
  013e2	03 f2		 add	 esi, edx
  013e4	89 75 f0	 mov	 DWORD PTR _level$[ebp], esi
$LN11@HeartOfLov:

; 578  : 			}
; 579  : 
; 580  : 			type = ItemGetNumberMake(HeartOfLoveItemBag->GetType(DropItemNum), HeartOfLoveItemBag->GetIndex(DropItemNum));

  013e7	8b 45 d8	 mov	 eax, DWORD PTR _DropItemNum$[ebp]
  013ea	50		 push	 eax
  013eb	8b 0d 00 00 00
	00		 mov	 ecx, DWORD PTR ?HeartOfLoveItemBag@@3PAVCItemBag@@A ; HeartOfLoveItemBag
  013f1	8b 11		 mov	 edx, DWORD PTR [ecx]
  013f3	8b 0d 00 00 00
	00		 mov	 ecx, DWORD PTR ?HeartOfLoveItemBag@@3PAVCItemBag@@A ; HeartOfLoveItemBag
  013f9	8b 42 10	 mov	 eax, DWORD PTR [edx+16]
  013fc	ff d0		 call	 eax
  013fe	0f b6 c8	 movzx	 ecx, al
  01401	51		 push	 ecx
  01402	8b 55 d8	 mov	 edx, DWORD PTR _DropItemNum$[ebp]
  01405	52		 push	 edx
  01406	a1 00 00 00 00	 mov	 eax, DWORD PTR ?HeartOfLoveItemBag@@3PAVCItemBag@@A ; HeartOfLoveItemBag
  0140b	8b 10		 mov	 edx, DWORD PTR [eax]
  0140d	8b 0d 00 00 00
	00		 mov	 ecx, DWORD PTR ?HeartOfLoveItemBag@@3PAVCItemBag@@A ; HeartOfLoveItemBag
  01413	8b 42 0c	 mov	 eax, DWORD PTR [edx+12]
  01416	ff d0		 call	 eax
  01418	0f b6 c8	 movzx	 ecx, al
  0141b	51		 push	 ecx
  0141c	e8 00 00 00 00	 call	 ?ItemGetNumberMake@@YAHHH@Z ; ItemGetNumberMake
  01421	83 c4 08	 add	 esp, 8
  01424	89 45 f4	 mov	 DWORD PTR _type$[ebp], eax

; 581  : 			Option1 = rand()%2;

  01427	e8 00 00 00 00	 call	 _rand
  0142c	25 01 00 00 80	 and	 eax, -2147483647	; 80000001H
  01431	79 05		 jns	 SHORT $LN19@HeartOfLov
  01433	48		 dec	 eax
  01434	83 c8 fe	 or	 eax, -2			; fffffffeH
  01437	40		 inc	 eax
$LN19@HeartOfLov:
  01438	89 45 e4	 mov	 DWORD PTR _Option1$[ebp], eax

; 582  : 			Option2 = rand()%2;

  0143b	e8 00 00 00 00	 call	 _rand
  01440	25 01 00 00 80	 and	 eax, -2147483647	; 80000001H
  01445	79 05		 jns	 SHORT $LN20@HeartOfLov
  01447	48		 dec	 eax
  01448	83 c8 fe	 or	 eax, -2			; fffffffeH
  0144b	40		 inc	 eax
$LN20@HeartOfLov:
  0144c	89 45 e0	 mov	 DWORD PTR _Option2$[ebp], eax

; 583  : 
; 584  : 			if ( !Option2 || !Option1 )

  0144f	83 7d e0 00	 cmp	 DWORD PTR _Option2$[ebp], 0
  01453	74 06		 je	 SHORT $LN9@HeartOfLov
  01455	83 7d e4 00	 cmp	 DWORD PTR _Option1$[ebp], 0
  01459	75 2b		 jne	 SHORT $LN7@HeartOfLov
$LN9@HeartOfLov:

; 585  : 			{
; 586  : 				if ( (rand()%5) <1 )

  0145b	e8 00 00 00 00	 call	 _rand
  01460	99		 cdq
  01461	b9 05 00 00 00	 mov	 ecx, 5
  01466	f7 f9		 idiv	 ecx
  01468	83 fa 01	 cmp	 edx, 1
  0146b	7d 09		 jge	 SHORT $LN8@HeartOfLov

; 587  : 					Option3 = 3;

  0146d	c7 45 dc 03 00
	00 00		 mov	 DWORD PTR _Option3$[ebp], 3

; 588  : 				else

  01474	eb 10		 jmp	 SHORT $LN7@HeartOfLov
$LN8@HeartOfLov:

; 589  : 					Option3 = rand()%3;

  01476	e8 00 00 00 00	 call	 _rand
  0147b	99		 cdq
  0147c	b9 03 00 00 00	 mov	 ecx, 3
  01481	f7 f9		 idiv	 ecx
  01483	89 55 dc	 mov	 DWORD PTR _Option3$[ebp], edx
$LN7@HeartOfLov:

; 590  : 			}
; 591  : 
; 592  : 			if ( type == ITEMGET(12,15) ||
; 593  : 				 type == ITEMGET(14,13) ||
; 594  : 				 type == ITEMGET(14,14) ||
; 595  : 				 type == ITEMGET(14,14) ||
; 596  : 				 type == ITEMGET(14,16)	||
; 597  : 				 type == ITEMGET(14,22)	||
; 598  : 				 type == ITEMGET(14,31)	||
; 599  : 				 type == ITEMGET(14,41)	||
; 600  : 				 type == ITEMGET(14,42)	||
; 601  : 				 type == ITEMGET(14,180)||
; 602  : 				 type == ITEMGET(14,181)||
; 603  : 				 type == ITEMGET(14,182)||
; 604  : 				 type == ITEMGET(14,183)||
; 605  : 				 type == ITEMGET(14,184)||
; 606  : 				 type == ITEMGET(14,185)||
; 607  : 				 type == ITEMGET(14,186)||
; 608  : 				 type == ITEMGET(14,187)||
; 609  : 				 type == ITEMGET(14,190)||
; 610  : 				 type == ITEMGET(14,43) ||
; 611  : 				 type == ITEMGET(14,44) )

  01486	81 7d f4 0f 18
	00 00		 cmp	 DWORD PTR _type$[ebp], 6159 ; 0000180fH
  0148d	0f 84 bb 00 00
	00		 je	 $LN5@HeartOfLov
  01493	81 7d f4 0d 1c
	00 00		 cmp	 DWORD PTR _type$[ebp], 7181 ; 00001c0dH
  0149a	0f 84 ae 00 00
	00		 je	 $LN5@HeartOfLov
  014a0	81 7d f4 0e 1c
	00 00		 cmp	 DWORD PTR _type$[ebp], 7182 ; 00001c0eH
  014a7	0f 84 a1 00 00
	00		 je	 $LN5@HeartOfLov
  014ad	81 7d f4 0e 1c
	00 00		 cmp	 DWORD PTR _type$[ebp], 7182 ; 00001c0eH
  014b4	0f 84 94 00 00
	00		 je	 $LN5@HeartOfLov
  014ba	81 7d f4 10 1c
	00 00		 cmp	 DWORD PTR _type$[ebp], 7184 ; 00001c10H
  014c1	0f 84 87 00 00
	00		 je	 $LN5@HeartOfLov
  014c7	81 7d f4 16 1c
	00 00		 cmp	 DWORD PTR _type$[ebp], 7190 ; 00001c16H
  014ce	74 7e		 je	 SHORT $LN5@HeartOfLov
  014d0	81 7d f4 1f 1c
	00 00		 cmp	 DWORD PTR _type$[ebp], 7199 ; 00001c1fH
  014d7	74 75		 je	 SHORT $LN5@HeartOfLov
  014d9	81 7d f4 29 1c
	00 00		 cmp	 DWORD PTR _type$[ebp], 7209 ; 00001c29H
  014e0	74 6c		 je	 SHORT $LN5@HeartOfLov
  014e2	81 7d f4 2a 1c
	00 00		 cmp	 DWORD PTR _type$[ebp], 7210 ; 00001c2aH
  014e9	74 63		 je	 SHORT $LN5@HeartOfLov
  014eb	81 7d f4 b4 1c
	00 00		 cmp	 DWORD PTR _type$[ebp], 7348 ; 00001cb4H
  014f2	74 5a		 je	 SHORT $LN5@HeartOfLov
  014f4	81 7d f4 b5 1c
	00 00		 cmp	 DWORD PTR _type$[ebp], 7349 ; 00001cb5H
  014fb	74 51		 je	 SHORT $LN5@HeartOfLov
  014fd	81 7d f4 b6 1c
	00 00		 cmp	 DWORD PTR _type$[ebp], 7350 ; 00001cb6H
  01504	74 48		 je	 SHORT $LN5@HeartOfLov
  01506	81 7d f4 b7 1c
	00 00		 cmp	 DWORD PTR _type$[ebp], 7351 ; 00001cb7H
  0150d	74 3f		 je	 SHORT $LN5@HeartOfLov
  0150f	81 7d f4 b8 1c
	00 00		 cmp	 DWORD PTR _type$[ebp], 7352 ; 00001cb8H
  01516	74 36		 je	 SHORT $LN5@HeartOfLov
  01518	81 7d f4 b9 1c
	00 00		 cmp	 DWORD PTR _type$[ebp], 7353 ; 00001cb9H
  0151f	74 2d		 je	 SHORT $LN5@HeartOfLov
  01521	81 7d f4 ba 1c
	00 00		 cmp	 DWORD PTR _type$[ebp], 7354 ; 00001cbaH
  01528	74 24		 je	 SHORT $LN5@HeartOfLov
  0152a	81 7d f4 bb 1c
	00 00		 cmp	 DWORD PTR _type$[ebp], 7355 ; 00001cbbH
  01531	74 1b		 je	 SHORT $LN5@HeartOfLov
  01533	81 7d f4 be 1c
	00 00		 cmp	 DWORD PTR _type$[ebp], 7358 ; 00001cbeH
  0153a	74 12		 je	 SHORT $LN5@HeartOfLov
  0153c	81 7d f4 2b 1c
	00 00		 cmp	 DWORD PTR _type$[ebp], 7211 ; 00001c2bH
  01543	74 09		 je	 SHORT $LN5@HeartOfLov
  01545	81 7d f4 2c 1c
	00 00		 cmp	 DWORD PTR _type$[ebp], 7212 ; 00001c2cH
  0154c	75 1c		 jne	 SHORT $LN6@HeartOfLov
$LN5@HeartOfLov:

; 612  : 			{
; 613  : 				Option1 = 0;

  0154e	c7 45 e4 00 00
	00 00		 mov	 DWORD PTR _Option1$[ebp], 0

; 614  : 				Option2 = 0;

  01555	c7 45 e0 00 00
	00 00		 mov	 DWORD PTR _Option2$[ebp], 0

; 615  : 				Option3 = 0;

  0155c	c7 45 dc 00 00
	00 00		 mov	 DWORD PTR _Option3$[ebp], 0

; 616  : 				level = 0;

  01563	c7 45 f0 00 00
	00 00		 mov	 DWORD PTR _level$[ebp], 0
$LN6@HeartOfLov:

; 617  : 			}
; 618  : 
; 619  : 			if ( type == ITEMGET(12,30)	||
; 620  : 				 type == ITEMGET(12,31)	||
; 621  : 				 type == ITEMGET(12,136)||
; 622  : 				 type == ITEMGET(12,137)||
; 623  : 				 type == ITEMGET(12,138)||
; 624  : 				 type == ITEMGET(12,139)||
; 625  : 				 type == ITEMGET(12,140)||
; 626  : 				 type == ITEMGET(12,141)||
; 627  : 				 type == ITEMGET(12,142)||
; 628  : 				 type == ITEMGET(12,143))

  0156a	81 7d f4 1e 18
	00 00		 cmp	 DWORD PTR _type$[ebp], 6174 ; 0000181eH
  01571	74 51		 je	 SHORT $LN3@HeartOfLov
  01573	81 7d f4 1f 18
	00 00		 cmp	 DWORD PTR _type$[ebp], 6175 ; 0000181fH
  0157a	74 48		 je	 SHORT $LN3@HeartOfLov
  0157c	81 7d f4 88 18
	00 00		 cmp	 DWORD PTR _type$[ebp], 6280 ; 00001888H
  01583	74 3f		 je	 SHORT $LN3@HeartOfLov
  01585	81 7d f4 89 18
	00 00		 cmp	 DWORD PTR _type$[ebp], 6281 ; 00001889H
  0158c	74 36		 je	 SHORT $LN3@HeartOfLov
  0158e	81 7d f4 8a 18
	00 00		 cmp	 DWORD PTR _type$[ebp], 6282 ; 0000188aH
  01595	74 2d		 je	 SHORT $LN3@HeartOfLov
  01597	81 7d f4 8b 18
	00 00		 cmp	 DWORD PTR _type$[ebp], 6283 ; 0000188bH
  0159e	74 24		 je	 SHORT $LN3@HeartOfLov
  015a0	81 7d f4 8c 18
	00 00		 cmp	 DWORD PTR _type$[ebp], 6284 ; 0000188cH
  015a7	74 1b		 je	 SHORT $LN3@HeartOfLov
  015a9	81 7d f4 8d 18
	00 00		 cmp	 DWORD PTR _type$[ebp], 6285 ; 0000188dH
  015b0	74 12		 je	 SHORT $LN3@HeartOfLov
  015b2	81 7d f4 8e 18
	00 00		 cmp	 DWORD PTR _type$[ebp], 6286 ; 0000188eH
  015b9	74 09		 je	 SHORT $LN3@HeartOfLov
  015bb	81 7d f4 8f 18
	00 00		 cmp	 DWORD PTR _type$[ebp], 6287 ; 0000188fH
  015c2	75 32		 jne	 SHORT $LN4@HeartOfLov
$LN3@HeartOfLov:

; 629  : 			{
; 630  : 				Option1 = 0;

  015c4	c7 45 e4 00 00
	00 00		 mov	 DWORD PTR _Option1$[ebp], 0

; 631  : 				Option2 = 0;

  015cb	c7 45 e0 00 00
	00 00		 mov	 DWORD PTR _Option2$[ebp], 0

; 632  : 				Option3 = 0;

  015d2	c7 45 dc 00 00
	00 00		 mov	 DWORD PTR _Option3$[ebp], 0

; 633  : 				level = HeartOfLoveItemBag->GetLevel(DropItemNum);

  015d9	8b 45 d8	 mov	 eax, DWORD PTR _DropItemNum$[ebp]
  015dc	50		 push	 eax
  015dd	8b 0d 00 00 00
	00		 mov	 ecx, DWORD PTR ?HeartOfLoveItemBag@@3PAVCItemBag@@A ; HeartOfLoveItemBag
  015e3	8b 11		 mov	 edx, DWORD PTR [ecx]
  015e5	8b 0d 00 00 00
	00		 mov	 ecx, DWORD PTR ?HeartOfLoveItemBag@@3PAVCItemBag@@A ; HeartOfLoveItemBag
  015eb	8b 42 14	 mov	 eax, DWORD PTR [edx+20]
  015ee	ff d0		 call	 eax
  015f0	0f b6 c8	 movzx	 ecx, al
  015f3	89 4d f0	 mov	 DWORD PTR _level$[ebp], ecx
$LN4@HeartOfLov:

; 634  : 			}
; 635  : 
; 636  : 			if ( type == ITEMGET(13,0) ||
; 637  : 				 type == ITEMGET(13,1) ||
; 638  : 				 type == ITEMGET(13,2) ||
; 639  : 				 type == ITEMGET(13,8) ||
; 640  : 				 type == ITEMGET(13,9) ||
; 641  : 				 type == ITEMGET(13,12) ||
; 642  : 				 type == ITEMGET(13,13) )

  015f6	81 7d f4 00 1a
	00 00		 cmp	 DWORD PTR _type$[ebp], 6656 ; 00001a00H
  015fd	74 36		 je	 SHORT $LN1@HeartOfLov
  015ff	81 7d f4 01 1a
	00 00		 cmp	 DWORD PTR _type$[ebp], 6657 ; 00001a01H
  01606	74 2d		 je	 SHORT $LN1@HeartOfLov
  01608	81 7d f4 02 1a
	00 00		 cmp	 DWORD PTR _type$[ebp], 6658 ; 00001a02H
  0160f	74 24		 je	 SHORT $LN1@HeartOfLov
  01611	81 7d f4 08 1a
	00 00		 cmp	 DWORD PTR _type$[ebp], 6664 ; 00001a08H
  01618	74 1b		 je	 SHORT $LN1@HeartOfLov
  0161a	81 7d f4 09 1a
	00 00		 cmp	 DWORD PTR _type$[ebp], 6665 ; 00001a09H
  01621	74 12		 je	 SHORT $LN1@HeartOfLov
  01623	81 7d f4 0c 1a
	00 00		 cmp	 DWORD PTR _type$[ebp], 6668 ; 00001a0cH
  0162a	74 09		 je	 SHORT $LN1@HeartOfLov
  0162c	81 7d f4 0d 1a
	00 00		 cmp	 DWORD PTR _type$[ebp], 6669 ; 00001a0dH
  01633	75 07		 jne	 SHORT $LN2@HeartOfLov
$LN1@HeartOfLov:

; 643  : 			{
; 644  : 				level = 0;

  01635	c7 45 f0 00 00
	00 00		 mov	 DWORD PTR _level$[ebp], 0
$LN2@HeartOfLov:

; 645  : 			}
; 646  : 
; 647  : 			ItemSerialCreateSend(lpObj->m_Index, (BYTE)lpObj->MapNumber, (BYTE)x, (BYTE)y, type, (BYTE)level, (BYTE)dur,
; 648  : 				(BYTE)Option1, (BYTE)Option2, (BYTE)Option3, lpObj->m_Index, 0, 0);

  0163c	6a 00		 push	 0
  0163e	6a 00		 push	 0
  01640	8b 45 08	 mov	 eax, DWORD PTR _lpObj$[ebp]
  01643	8b 08		 mov	 ecx, DWORD PTR [eax]
  01645	51		 push	 ecx
  01646	0f b6 55 dc	 movzx	 edx, BYTE PTR _Option3$[ebp]
  0164a	52		 push	 edx
  0164b	0f b6 45 e0	 movzx	 eax, BYTE PTR _Option2$[ebp]
  0164f	50		 push	 eax
  01650	0f b6 4d e4	 movzx	 ecx, BYTE PTR _Option1$[ebp]
  01654	51		 push	 ecx
  01655	d9 45 f8	 fld	 DWORD PTR _dur$[ebp]
  01658	d9 bd ba fe ff
	ff		 fnstcw	 WORD PTR tv338[ebp]
  0165e	0f b7 85 ba fe
	ff ff		 movzx	 eax, WORD PTR tv338[ebp]
  01665	0d 00 0c 00 00	 or	 eax, 3072		; 00000c00H
  0166a	89 85 b4 fe ff
	ff		 mov	 DWORD PTR tv341[ebp], eax
  01670	d9 ad b4 fe ff
	ff		 fldcw	 WORD PTR tv341[ebp]
  01676	db 9d b0 fe ff
	ff		 fistp	 DWORD PTR tv343[ebp]
  0167c	d9 ad ba fe ff
	ff		 fldcw	 WORD PTR tv338[ebp]
  01682	0f b6 95 b0 fe
	ff ff		 movzx	 edx, BYTE PTR tv343[ebp]
  01689	52		 push	 edx
  0168a	0f b6 45 f0	 movzx	 eax, BYTE PTR _level$[ebp]
  0168e	50		 push	 eax
  0168f	8b 4d f4	 mov	 ecx, DWORD PTR _type$[ebp]
  01692	51		 push	 ecx
  01693	0f b6 55 e8	 movzx	 edx, BYTE PTR _y$[ebp]
  01697	52		 push	 edx
  01698	0f b6 45 ec	 movzx	 eax, BYTE PTR _x$[ebp]
  0169c	50		 push	 eax
  0169d	8b 4d 08	 mov	 ecx, DWORD PTR _lpObj$[ebp]
  016a0	0f b6 91 49 01
	00 00		 movzx	 edx, BYTE PTR [ecx+329]
  016a7	52		 push	 edx
  016a8	8b 45 08	 mov	 eax, DWORD PTR _lpObj$[ebp]
  016ab	8b 08		 mov	 ecx, DWORD PTR [eax]
  016ad	51		 push	 ecx
  016ae	e8 00 00 00 00	 call	 ?ItemSerialCreateSend@@YAXHEEEHEEEEEHEE@Z ; ItemSerialCreateSend
  016b3	83 c4 34	 add	 esp, 52			; 00000034H

; 649  : 
; 650  : 			PMSG_SERVERCMD ServerCmd;
; 651  : 
; 652  : 			PHeadSubSetB((LPBYTE)&ServerCmd, 0xF3, 0x40, sizeof(ServerCmd));

  016b6	6a 07		 push	 7
  016b8	6a 40		 push	 64			; 00000040H
  016ba	68 f3 00 00 00	 push	 243			; 000000f3H
  016bf	8d 45 d0	 lea	 eax, DWORD PTR _ServerCmd$233416[ebp]
  016c2	50		 push	 eax
  016c3	e8 00 00 00 00	 call	 ?PHeadSubSetB@@YAXPAEEEH@Z ; PHeadSubSetB
  016c8	83 c4 10	 add	 esp, 16			; 00000010H

; 653  : 			ServerCmd.CmdType = 0;

  016cb	c6 45 d4 00	 mov	 BYTE PTR _ServerCmd$233416[ebp+4], 0

; 654  : 			ServerCmd.X = x;

  016cf	8a 45 ec	 mov	 al, BYTE PTR _x$[ebp]
  016d2	88 45 d5	 mov	 BYTE PTR _ServerCmd$233416[ebp+5], al

; 655  : 			ServerCmd.Y = y;

  016d5	8a 45 e8	 mov	 al, BYTE PTR _y$[ebp]
  016d8	88 45 d6	 mov	 BYTE PTR _ServerCmd$233416[ebp+6], al

; 656  : 
; 657  : 			MsgSendV2(lpObj, (LPBYTE)&ServerCmd, sizeof(ServerCmd));

  016db	6a 07		 push	 7
  016dd	8d 45 d0	 lea	 eax, DWORD PTR _ServerCmd$233416[ebp]
  016e0	50		 push	 eax
  016e1	8b 4d 08	 mov	 ecx, DWORD PTR _lpObj$[ebp]
  016e4	51		 push	 ecx
  016e5	e8 00 00 00 00	 call	 ?MsgSendV2@@YAXPAUOBJECTSTRUCT@@PAEH@Z ; MsgSendV2
  016ea	83 c4 0c	 add	 esp, 12			; 0000000cH

; 658  : 			DataSend(lpObj->m_Index, (LPBYTE)&ServerCmd, sizeof(ServerCmd));

  016ed	6a 07		 push	 7
  016ef	8d 45 d0	 lea	 eax, DWORD PTR _ServerCmd$233416[ebp]
  016f2	50		 push	 eax
  016f3	8b 4d 08	 mov	 ecx, DWORD PTR _lpObj$[ebp]
  016f6	8b 11		 mov	 edx, DWORD PTR [ecx]
  016f8	52		 push	 edx
  016f9	e8 00 00 00 00	 call	 ?DataSend@@YAHHPAEK@Z	; DataSend
  016fe	83 c4 0c	 add	 esp, 12			; 0000000cH

; 659  : 
; 660  : 			CItem EventItem;

  01701	8d 8d fc fe ff
	ff		 lea	 ecx, DWORD PTR _EventItem$233420[ebp]
  01707	e8 00 00 00 00	 call	 ??0CItem@@QAE@XZ	; CItem::CItem

; 661  : 
; 662  : 			EventItem.Convert(type, Option1, Option2, Option3, 0, 1, 0, NULL, 0xFF, 0, 3);

  0170c	6a 03		 push	 3
  0170e	6a 00		 push	 0
  01710	68 ff 00 00 00	 push	 255			; 000000ffH
  01715	6a 00		 push	 0
  01717	6a 00		 push	 0
  01719	6a 01		 push	 1
  0171b	6a 00		 push	 0
  0171d	0f b6 45 dc	 movzx	 eax, BYTE PTR _Option3$[ebp]
  01721	50		 push	 eax
  01722	0f b6 4d e0	 movzx	 ecx, BYTE PTR _Option2$[ebp]
  01726	51		 push	 ecx
  01727	0f b6 55 e4	 movzx	 edx, BYTE PTR _Option1$[ebp]
  0172b	52		 push	 edx
  0172c	8b 45 f4	 mov	 eax, DWORD PTR _type$[ebp]
  0172f	50		 push	 eax
  01730	8d 8d fc fe ff
	ff		 lea	 ecx, DWORD PTR _EventItem$233420[ebp]
  01736	e8 00 00 00 00	 call	 ?Convert@CItem@@QAEXHEEEEEEPAEEEE@Z ; CItem::Convert

; 663  : 
; 664  : 			LogAddTD("[%s][%s][Lucky Box Item Drop][Heart Of Love] : (%d)(X:%d/Y:%d) Item:%s(%d) Level:%d Op1:%d Op2:%d Op3:%d",
; 665  : 				lpObj->AccountID, lpObj->Name, lpObj->MapNumber, lpObj->X, lpObj->Y, EventItem.GetName(),
; 666  : 				type, level, Option1, Option2, Option3);

  0173b	8b 45 dc	 mov	 eax, DWORD PTR _Option3$[ebp]
  0173e	50		 push	 eax
  0173f	8b 4d e0	 mov	 ecx, DWORD PTR _Option2$[ebp]
  01742	51		 push	 ecx
  01743	8b 55 e4	 mov	 edx, DWORD PTR _Option1$[ebp]
  01746	52		 push	 edx
  01747	8b 45 f0	 mov	 eax, DWORD PTR _level$[ebp]
  0174a	50		 push	 eax
  0174b	8b 4d f4	 mov	 ecx, DWORD PTR _type$[ebp]
  0174e	51		 push	 ecx
  0174f	8d 8d fc fe ff
	ff		 lea	 ecx, DWORD PTR _EventItem$233420[ebp]
  01755	e8 00 00 00 00	 call	 ?GetName@CItem@@QAEPADXZ ; CItem::GetName
  0175a	50		 push	 eax
  0175b	8b 55 08	 mov	 edx, DWORD PTR _lpObj$[ebp]
  0175e	0f bf 82 46 01
	00 00		 movsx	 eax, WORD PTR [edx+326]
  01765	50		 push	 eax
  01766	8b 4d 08	 mov	 ecx, DWORD PTR _lpObj$[ebp]
  01769	0f bf 91 44 01
	00 00		 movsx	 edx, WORD PTR [ecx+324]
  01770	52		 push	 edx
  01771	8b 45 08	 mov	 eax, DWORD PTR _lpObj$[ebp]
  01774	0f b6 88 49 01
	00 00		 movzx	 ecx, BYTE PTR [eax+329]
  0177b	51		 push	 ecx
  0177c	8b 55 08	 mov	 edx, DWORD PTR _lpObj$[ebp]
  0177f	83 c2 77	 add	 edx, 119		; 00000077H
  01782	52		 push	 edx
  01783	8b 45 08	 mov	 eax, DWORD PTR _lpObj$[ebp]
  01786	83 c0 6c	 add	 eax, 108		; 0000006cH
  01789	50		 push	 eax
  0178a	68 00 00 00 00	 push	 OFFSET ??_C@_0GJ@EIOJOOBH@?$FL?$CFs?$FN?$FL?$CFs?$FN?$FLLucky?5Box?5Item?5Drop?$FN?$FLHe@
  0178f	ff 15 00 00 00
	00		 call	 DWORD PTR ?LogAddTD@@3P6AXPADZZA ; LogAddTD
  01795	83 c4 30	 add	 esp, 48			; 00000030H

; 667  : 
; 668  : 			return;

  01798	eb 42		 jmp	 SHORT $LN16@HeartOfLov
$LN13@HeartOfLov:

; 669  : 		}
; 670  : 	}
; 671  : 
; 672  : 	x = lpObj->X;

  0179a	8b 45 08	 mov	 eax, DWORD PTR _lpObj$[ebp]
  0179d	0f bf 88 44 01
	00 00		 movsx	 ecx, WORD PTR [eax+324]
  017a4	89 4d ec	 mov	 DWORD PTR _x$[ebp], ecx

; 673  : 	y = lpObj->Y;

  017a7	8b 45 08	 mov	 eax, DWORD PTR _lpObj$[ebp]
  017aa	0f bf 88 46 01
	00 00		 movsx	 ecx, WORD PTR [eax+326]
  017b1	89 4d e8	 mov	 DWORD PTR _y$[ebp], ecx

; 674  : 	MapC[lpObj->MapNumber].MoneyItemDrop(1004, x, y);

  017b4	8b 45 e8	 mov	 eax, DWORD PTR _y$[ebp]
  017b7	50		 push	 eax
  017b8	8b 4d ec	 mov	 ecx, DWORD PTR _x$[ebp]
  017bb	51		 push	 ecx
  017bc	68 ec 03 00 00	 push	 1004			; 000003ecH
  017c1	8b 55 08	 mov	 edx, DWORD PTR _lpObj$[ebp]
  017c4	0f b6 8a 49 01
	00 00		 movzx	 ecx, BYTE PTR [edx+329]
  017cb	69 c9 b8 3d 05
	00		 imul	 ecx, 343480		; 00053db8H
  017d1	81 c1 00 00 00
	00		 add	 ecx, OFFSET ?MapC@@3PAVMapClass@@A ; MapC
  017d7	e8 00 00 00 00	 call	 ?MoneyItemDrop@MapClass@@QAEHHHH@Z ; MapClass::MoneyItemDrop
$LN16@HeartOfLov:

; 675  : }

  017dc	5f		 pop	 edi
  017dd	5e		 pop	 esi
  017de	5b		 pop	 ebx
  017df	8b 4d fc	 mov	 ecx, DWORD PTR __$ArrayPad$[ebp]
  017e2	33 cd		 xor	 ecx, ebp
  017e4	e8 00 00 00 00	 call	 @__security_check_cookie@4
  017e9	8b e5		 mov	 esp, ebp
  017eb	5d		 pop	 ebp
  017ec	c3		 ret	 0
?HeartOfLoveOpenEven@@YAXPAUOBJECTSTRUCT@@@Z ENDP	; HeartOfLoveOpenEven
_TEXT	ENDS
PUBLIC	??_C@_0GI@FPPGAGOE@?$FL?$CFs?$FN?$FL?$CFs?$FN?$FLLucky?5Box?5Item?5Drop?$FN?$FLFi@ ; `string'
PUBLIC	__$ArrayPad$
PUBLIC	?FireCrackerOpenEven@@YAXPAUOBJECTSTRUCT@@@Z	; FireCrackerOpenEven
EXTRN	?g_ItemDropRateForgFireCracker@@3HA:DWORD	; g_ItemDropRateForgFireCracker
EXTRN	?FireCrackerItemBag@@3PAVCItemBag@@A:DWORD	; FireCrackerItemBag
EXTRN	?gOnlyFireCrackerEffectUse@@3HA:DWORD		; gOnlyFireCrackerEffectUse
;	COMDAT ??_C@_0GI@FPPGAGOE@?$FL?$CFs?$FN?$FL?$CFs?$FN?$FLLucky?5Box?5Item?5Drop?$FN?$FLFi@
CONST	SEGMENT
??_C@_0GI@FPPGAGOE@?$FL?$CFs?$FN?$FL?$CFs?$FN?$FLLucky?5Box?5Item?5Drop?$FN?$FLFi@ DB '['
	DB	'%s][%s][Lucky Box Item Drop][Fire Cracker] : (%d)(X:%d/Y:%d) '
	DB	'Item:%s(%d) Level:%d Op1:%d Op2:%d Op3:%d', 00H ; `string'
; Function compile flags: /Odtp /ZI
CONST	ENDS
_TEXT	SEGMENT
tv398 = -344						; size = 4
tv396 = -340						; size = 4
tv393 = -334						; size = 2
_EventItem$233466 = -268				; size = 212
_ServerCmd$233462 = -56					; size = 7
_ServerCmd$233435 = -48					; size = 7
_DropItemNum$ = -40					; size = 4
_Option3$ = -36						; size = 4
_Option2$ = -32						; size = 4
_Option1$ = -28						; size = 4
_y$ = -24						; size = 4
_x$ = -20						; size = 4
_level$ = -16						; size = 4
_type$ = -12						; size = 4
_dur$ = -8						; size = 4
__$ArrayPad$ = -4					; size = 4
_lpObj$ = 8						; size = 4
?FireCrackerOpenEven@@YAXPAUOBJECTSTRUCT@@@Z PROC	; FireCrackerOpenEven

; 678  : {

  017f0	55		 push	 ebp
  017f1	8b ec		 mov	 ebp, esp
  017f3	81 ec 58 01 00
	00		 sub	 esp, 344		; 00000158H
  017f9	a1 00 00 00 00	 mov	 eax, DWORD PTR ___security_cookie
  017fe	33 c5		 xor	 eax, ebp
  01800	89 45 fc	 mov	 DWORD PTR __$ArrayPad$[ebp], eax
  01803	53		 push	 ebx
  01804	56		 push	 esi
  01805	57		 push	 edi

; 679  : 	float dur;
; 680  : 	int type;
; 681  : 	int level;
; 682  : 	int x;
; 683  : 	int y;
; 684  : 	int Option1=0;

  01806	c7 45 e4 00 00
	00 00		 mov	 DWORD PTR _Option1$[ebp], 0

; 685  : 	int Option2=0;

  0180d	c7 45 e0 00 00
	00 00		 mov	 DWORD PTR _Option2$[ebp], 0

; 686  : 	int Option3=0;

  01814	c7 45 dc 00 00
	00 00		 mov	 DWORD PTR _Option3$[ebp], 0

; 687  : 	int DropItemNum;
; 688  : 
; 689  : 	if ( gOnlyFireCrackerEffectUse )

  0181b	83 3d 00 00 00
	00 00		 cmp	 DWORD PTR ?gOnlyFireCrackerEffectUse@@3HA, 0 ; gOnlyFireCrackerEffectUse
  01822	74 5c		 je	 SHORT $LN16@FireCracke

; 690  : 	{
; 691  : 		PMSG_SERVERCMD ServerCmd;
; 692  : 
; 693  : 		PHeadSubSetB((LPBYTE)&ServerCmd, 0xF3, 0x40, sizeof(ServerCmd));

  01824	6a 07		 push	 7
  01826	6a 40		 push	 64			; 00000040H
  01828	68 f3 00 00 00	 push	 243			; 000000f3H
  0182d	8d 45 d0	 lea	 eax, DWORD PTR _ServerCmd$233435[ebp]
  01830	50		 push	 eax
  01831	e8 00 00 00 00	 call	 ?PHeadSubSetB@@YAXPAEEEH@Z ; PHeadSubSetB
  01836	83 c4 10	 add	 esp, 16			; 00000010H

; 694  : 		ServerCmd.CmdType = 0;

  01839	c6 45 d4 00	 mov	 BYTE PTR _ServerCmd$233435[ebp+4], 0

; 695  : 		ServerCmd.X = lpObj->X;

  0183d	8b 45 08	 mov	 eax, DWORD PTR _lpObj$[ebp]
  01840	8a 88 44 01 00
	00		 mov	 cl, BYTE PTR [eax+324]
  01846	88 4d d5	 mov	 BYTE PTR _ServerCmd$233435[ebp+5], cl

; 696  : 		ServerCmd.Y = lpObj->Y;

  01849	8b 45 08	 mov	 eax, DWORD PTR _lpObj$[ebp]
  0184c	8a 88 46 01 00
	00		 mov	 cl, BYTE PTR [eax+326]
  01852	88 4d d6	 mov	 BYTE PTR _ServerCmd$233435[ebp+6], cl

; 697  : 
; 698  : 		MsgSendV2(lpObj, (LPBYTE)&ServerCmd, sizeof(ServerCmd));

  01855	6a 07		 push	 7
  01857	8d 45 d0	 lea	 eax, DWORD PTR _ServerCmd$233435[ebp]
  0185a	50		 push	 eax
  0185b	8b 4d 08	 mov	 ecx, DWORD PTR _lpObj$[ebp]
  0185e	51		 push	 ecx
  0185f	e8 00 00 00 00	 call	 ?MsgSendV2@@YAXPAUOBJECTSTRUCT@@PAEH@Z ; MsgSendV2
  01864	83 c4 0c	 add	 esp, 12			; 0000000cH

; 699  : 		DataSend(lpObj->m_Index, (LPBYTE)&ServerCmd, sizeof(ServerCmd));

  01867	6a 07		 push	 7
  01869	8d 45 d0	 lea	 eax, DWORD PTR _ServerCmd$233435[ebp]
  0186c	50		 push	 eax
  0186d	8b 4d 08	 mov	 ecx, DWORD PTR _lpObj$[ebp]
  01870	8b 11		 mov	 edx, DWORD PTR [ecx]
  01872	52		 push	 edx
  01873	e8 00 00 00 00	 call	 ?DataSend@@YAHHPAEK@Z	; DataSend
  01878	83 c4 0c	 add	 esp, 12			; 0000000cH

; 700  : 
; 701  : 		return;

  0187b	e9 d1 04 00 00	 jmp	 $LN17@FireCracke
$LN16@FireCracke:

; 702  : 	}
; 703  : 
; 704  : 	if ( !FireCrackerItemBag )

  01880	83 3d 00 00 00
	00 00		 cmp	 DWORD PTR ?FireCrackerItemBag@@3PAVCItemBag@@A, 0 ; FireCrackerItemBag
  01887	75 05		 jne	 SHORT $LN15@FireCracke

; 705  : 		return;

  01889	e9 c3 04 00 00	 jmp	 $LN17@FireCracke
$LN15@FireCracke:

; 706  : 
; 707  : 	if ( FireCrackerItemBag->GetBagCount() > 0 )

  0188e	8b 0d 00 00 00
	00		 mov	 ecx, DWORD PTR ?FireCrackerItemBag@@3PAVCItemBag@@A ; FireCrackerItemBag
  01894	e8 00 00 00 00	 call	 ?GetBagCount@CItemBag@@QAEHXZ ; CItemBag::GetBagCount
  01899	85 c0		 test	 eax, eax
  0189b	0f 8e 6e 04 00
	00		 jle	 $LN13@FireCracke

; 708  : 	{
; 709  : 		if ( (rand()%10) < g_ItemDropRateForgFireCracker )

  018a1	e8 00 00 00 00	 call	 _rand
  018a6	99		 cdq
  018a7	b9 0a 00 00 00	 mov	 ecx, 10			; 0000000aH
  018ac	f7 f9		 idiv	 ecx
  018ae	3b 15 00 00 00
	00		 cmp	 edx, DWORD PTR ?g_ItemDropRateForgFireCracker@@3HA ; g_ItemDropRateForgFireCracker
  018b4	0f 8d 55 04 00
	00		 jge	 $LN13@FireCracke

; 710  : 		{
; 711  : 			DropItemNum = rand()%FireCrackerItemBag->GetBagCount();

  018ba	e8 00 00 00 00	 call	 _rand
  018bf	8b f0		 mov	 esi, eax
  018c1	8b 0d 00 00 00
	00		 mov	 ecx, DWORD PTR ?FireCrackerItemBag@@3PAVCItemBag@@A ; FireCrackerItemBag
  018c7	e8 00 00 00 00	 call	 ?GetBagCount@CItemBag@@QAEHXZ ; CItemBag::GetBagCount
  018cc	8b c8		 mov	 ecx, eax
  018ce	8b c6		 mov	 eax, esi
  018d0	99		 cdq
  018d1	f7 f9		 idiv	 ecx
  018d3	89 55 d8	 mov	 DWORD PTR _DropItemNum$[ebp], edx

; 712  : 			dur=0;

  018d6	d9 ee		 fldz
  018d8	d9 5d f8	 fstp	 DWORD PTR _dur$[ebp]

; 713  : 			x = lpObj->X;

  018db	8b 45 08	 mov	 eax, DWORD PTR _lpObj$[ebp]
  018de	0f bf 88 44 01
	00 00		 movsx	 ecx, WORD PTR [eax+324]
  018e5	89 4d ec	 mov	 DWORD PTR _x$[ebp], ecx

; 714  : 			y = lpObj->Y;

  018e8	8b 45 08	 mov	 eax, DWORD PTR _lpObj$[ebp]
  018eb	0f bf 88 46 01
	00 00		 movsx	 ecx, WORD PTR [eax+326]
  018f2	89 4d e8	 mov	 DWORD PTR _y$[ebp], ecx

; 715  : 			
; 716  : 			if ( gLanguage == 0 )

  018f5	83 3d 00 00 00
	00 00		 cmp	 DWORD PTR ?gLanguage@@3HA, 0 ; gLanguage
  018fc	75 32		 jne	 SHORT $LN12@FireCracke

; 717  : 			{
; 718  : 				level = FireCrackerItemBag->GetLevel(DropItemNum) + rand()%2;

  018fe	8b 45 d8	 mov	 eax, DWORD PTR _DropItemNum$[ebp]
  01901	50		 push	 eax
  01902	8b 0d 00 00 00
	00		 mov	 ecx, DWORD PTR ?FireCrackerItemBag@@3PAVCItemBag@@A ; FireCrackerItemBag
  01908	8b 11		 mov	 edx, DWORD PTR [ecx]
  0190a	8b 0d 00 00 00
	00		 mov	 ecx, DWORD PTR ?FireCrackerItemBag@@3PAVCItemBag@@A ; FireCrackerItemBag
  01910	8b 42 14	 mov	 eax, DWORD PTR [edx+20]
  01913	ff d0		 call	 eax
  01915	0f b6 f0	 movzx	 esi, al
  01918	e8 00 00 00 00	 call	 _rand
  0191d	25 01 00 00 80	 and	 eax, -2147483647	; 80000001H
  01922	79 05		 jns	 SHORT $LN19@FireCracke
  01924	48		 dec	 eax
  01925	83 c8 fe	 or	 eax, -2			; fffffffeH
  01928	40		 inc	 eax
$LN19@FireCracke:
  01929	03 f0		 add	 esi, eax
  0192b	89 75 f0	 mov	 DWORD PTR _level$[ebp], esi

; 719  : 			}
; 720  : 			else

  0192e	eb 2c		 jmp	 SHORT $LN11@FireCracke
$LN12@FireCracke:

; 721  : 			{
; 722  : 				level = FireCrackerItemBag->GetLevel(DropItemNum) + rand()%5;

  01930	8b 45 d8	 mov	 eax, DWORD PTR _DropItemNum$[ebp]
  01933	50		 push	 eax
  01934	8b 0d 00 00 00
	00		 mov	 ecx, DWORD PTR ?FireCrackerItemBag@@3PAVCItemBag@@A ; FireCrackerItemBag
  0193a	8b 11		 mov	 edx, DWORD PTR [ecx]
  0193c	8b 0d 00 00 00
	00		 mov	 ecx, DWORD PTR ?FireCrackerItemBag@@3PAVCItemBag@@A ; FireCrackerItemBag
  01942	8b 42 14	 mov	 eax, DWORD PTR [edx+20]
  01945	ff d0		 call	 eax
  01947	0f b6 f0	 movzx	 esi, al
  0194a	e8 00 00 00 00	 call	 _rand
  0194f	99		 cdq
  01950	b9 05 00 00 00	 mov	 ecx, 5
  01955	f7 f9		 idiv	 ecx
  01957	03 f2		 add	 esi, edx
  01959	89 75 f0	 mov	 DWORD PTR _level$[ebp], esi
$LN11@FireCracke:

; 723  : 			}
; 724  : 			
; 725  : 			type = ItemGetNumberMake(FireCrackerItemBag->GetType(DropItemNum), FireCrackerItemBag->GetIndex(DropItemNum));

  0195c	8b 45 d8	 mov	 eax, DWORD PTR _DropItemNum$[ebp]
  0195f	50		 push	 eax
  01960	8b 0d 00 00 00
	00		 mov	 ecx, DWORD PTR ?FireCrackerItemBag@@3PAVCItemBag@@A ; FireCrackerItemBag
  01966	8b 11		 mov	 edx, DWORD PTR [ecx]
  01968	8b 0d 00 00 00
	00		 mov	 ecx, DWORD PTR ?FireCrackerItemBag@@3PAVCItemBag@@A ; FireCrackerItemBag
  0196e	8b 42 10	 mov	 eax, DWORD PTR [edx+16]
  01971	ff d0		 call	 eax
  01973	0f b6 c8	 movzx	 ecx, al
  01976	51		 push	 ecx
  01977	8b 55 d8	 mov	 edx, DWORD PTR _DropItemNum$[ebp]
  0197a	52		 push	 edx
  0197b	a1 00 00 00 00	 mov	 eax, DWORD PTR ?FireCrackerItemBag@@3PAVCItemBag@@A ; FireCrackerItemBag
  01980	8b 10		 mov	 edx, DWORD PTR [eax]
  01982	8b 0d 00 00 00
	00		 mov	 ecx, DWORD PTR ?FireCrackerItemBag@@3PAVCItemBag@@A ; FireCrackerItemBag
  01988	8b 42 0c	 mov	 eax, DWORD PTR [edx+12]
  0198b	ff d0		 call	 eax
  0198d	0f b6 c8	 movzx	 ecx, al
  01990	51		 push	 ecx
  01991	e8 00 00 00 00	 call	 ?ItemGetNumberMake@@YAHHH@Z ; ItemGetNumberMake
  01996	83 c4 08	 add	 esp, 8
  01999	89 45 f4	 mov	 DWORD PTR _type$[ebp], eax

; 726  : 			Option1 = rand()%2;

  0199c	e8 00 00 00 00	 call	 _rand
  019a1	25 01 00 00 80	 and	 eax, -2147483647	; 80000001H
  019a6	79 05		 jns	 SHORT $LN20@FireCracke
  019a8	48		 dec	 eax
  019a9	83 c8 fe	 or	 eax, -2			; fffffffeH
  019ac	40		 inc	 eax
$LN20@FireCracke:
  019ad	89 45 e4	 mov	 DWORD PTR _Option1$[ebp], eax

; 727  : 			Option2 = rand()%2;

  019b0	e8 00 00 00 00	 call	 _rand
  019b5	25 01 00 00 80	 and	 eax, -2147483647	; 80000001H
  019ba	79 05		 jns	 SHORT $LN21@FireCracke
  019bc	48		 dec	 eax
  019bd	83 c8 fe	 or	 eax, -2			; fffffffeH
  019c0	40		 inc	 eax
$LN21@FireCracke:
  019c1	89 45 e0	 mov	 DWORD PTR _Option2$[ebp], eax

; 728  : 
; 729  : 			if ( !Option2 || !Option1 )

  019c4	83 7d e0 00	 cmp	 DWORD PTR _Option2$[ebp], 0
  019c8	74 06		 je	 SHORT $LN9@FireCracke
  019ca	83 7d e4 00	 cmp	 DWORD PTR _Option1$[ebp], 0
  019ce	75 2b		 jne	 SHORT $LN7@FireCracke
$LN9@FireCracke:

; 730  : 			{
; 731  : 				if ( (rand()%5) <1 )

  019d0	e8 00 00 00 00	 call	 _rand
  019d5	99		 cdq
  019d6	b9 05 00 00 00	 mov	 ecx, 5
  019db	f7 f9		 idiv	 ecx
  019dd	83 fa 01	 cmp	 edx, 1
  019e0	7d 09		 jge	 SHORT $LN8@FireCracke

; 732  : 					Option3 = 3;

  019e2	c7 45 dc 03 00
	00 00		 mov	 DWORD PTR _Option3$[ebp], 3

; 733  : 				else

  019e9	eb 10		 jmp	 SHORT $LN7@FireCracke
$LN8@FireCracke:

; 734  : 					Option3 = rand()%3;

  019eb	e8 00 00 00 00	 call	 _rand
  019f0	99		 cdq
  019f1	b9 03 00 00 00	 mov	 ecx, 3
  019f6	f7 f9		 idiv	 ecx
  019f8	89 55 dc	 mov	 DWORD PTR _Option3$[ebp], edx
$LN7@FireCracke:

; 735  : 			}
; 736  : 
; 737  : 			if ( type == ITEMGET(12,15) ||
; 738  : 				 type == ITEMGET(14,13) ||
; 739  : 				 type == ITEMGET(14,14) ||
; 740  : 				 type == ITEMGET(14,14) ||
; 741  : 				 type == ITEMGET(14,16)	||
; 742  : 				 type == ITEMGET(14,22)	||
; 743  : 				 type == ITEMGET(14,31)	||
; 744  : 				 type == ITEMGET(14,41)	||
; 745  : 				 type == ITEMGET(14,42)	||
; 746  : 				 type == ITEMGET(14,180)||
; 747  : 				 type == ITEMGET(14,181)||
; 748  : 				 type == ITEMGET(14,182)||
; 749  : 				 type == ITEMGET(14,183)||
; 750  : 				 type == ITEMGET(14,184)||
; 751  : 				 type == ITEMGET(14,185)||
; 752  : 				 type == ITEMGET(14,186)||
; 753  : 				 type == ITEMGET(14,187)||
; 754  : 				 type == ITEMGET(14,190)||
; 755  : 				 type == ITEMGET(14,43) ||
; 756  : 				 type == ITEMGET(14,44) )

  019fb	81 7d f4 0f 18
	00 00		 cmp	 DWORD PTR _type$[ebp], 6159 ; 0000180fH
  01a02	0f 84 bb 00 00
	00		 je	 $LN5@FireCracke
  01a08	81 7d f4 0d 1c
	00 00		 cmp	 DWORD PTR _type$[ebp], 7181 ; 00001c0dH
  01a0f	0f 84 ae 00 00
	00		 je	 $LN5@FireCracke
  01a15	81 7d f4 0e 1c
	00 00		 cmp	 DWORD PTR _type$[ebp], 7182 ; 00001c0eH
  01a1c	0f 84 a1 00 00
	00		 je	 $LN5@FireCracke
  01a22	81 7d f4 0e 1c
	00 00		 cmp	 DWORD PTR _type$[ebp], 7182 ; 00001c0eH
  01a29	0f 84 94 00 00
	00		 je	 $LN5@FireCracke
  01a2f	81 7d f4 10 1c
	00 00		 cmp	 DWORD PTR _type$[ebp], 7184 ; 00001c10H
  01a36	0f 84 87 00 00
	00		 je	 $LN5@FireCracke
  01a3c	81 7d f4 16 1c
	00 00		 cmp	 DWORD PTR _type$[ebp], 7190 ; 00001c16H
  01a43	74 7e		 je	 SHORT $LN5@FireCracke
  01a45	81 7d f4 1f 1c
	00 00		 cmp	 DWORD PTR _type$[ebp], 7199 ; 00001c1fH
  01a4c	74 75		 je	 SHORT $LN5@FireCracke
  01a4e	81 7d f4 29 1c
	00 00		 cmp	 DWORD PTR _type$[ebp], 7209 ; 00001c29H
  01a55	74 6c		 je	 SHORT $LN5@FireCracke
  01a57	81 7d f4 2a 1c
	00 00		 cmp	 DWORD PTR _type$[ebp], 7210 ; 00001c2aH
  01a5e	74 63		 je	 SHORT $LN5@FireCracke
  01a60	81 7d f4 b4 1c
	00 00		 cmp	 DWORD PTR _type$[ebp], 7348 ; 00001cb4H
  01a67	74 5a		 je	 SHORT $LN5@FireCracke
  01a69	81 7d f4 b5 1c
	00 00		 cmp	 DWORD PTR _type$[ebp], 7349 ; 00001cb5H
  01a70	74 51		 je	 SHORT $LN5@FireCracke
  01a72	81 7d f4 b6 1c
	00 00		 cmp	 DWORD PTR _type$[ebp], 7350 ; 00001cb6H
  01a79	74 48		 je	 SHORT $LN5@FireCracke
  01a7b	81 7d f4 b7 1c
	00 00		 cmp	 DWORD PTR _type$[ebp], 7351 ; 00001cb7H
  01a82	74 3f		 je	 SHORT $LN5@FireCracke
  01a84	81 7d f4 b8 1c
	00 00		 cmp	 DWORD PTR _type$[ebp], 7352 ; 00001cb8H
  01a8b	74 36		 je	 SHORT $LN5@FireCracke
  01a8d	81 7d f4 b9 1c
	00 00		 cmp	 DWORD PTR _type$[ebp], 7353 ; 00001cb9H
  01a94	74 2d		 je	 SHORT $LN5@FireCracke
  01a96	81 7d f4 ba 1c
	00 00		 cmp	 DWORD PTR _type$[ebp], 7354 ; 00001cbaH
  01a9d	74 24		 je	 SHORT $LN5@FireCracke
  01a9f	81 7d f4 bb 1c
	00 00		 cmp	 DWORD PTR _type$[ebp], 7355 ; 00001cbbH
  01aa6	74 1b		 je	 SHORT $LN5@FireCracke
  01aa8	81 7d f4 be 1c
	00 00		 cmp	 DWORD PTR _type$[ebp], 7358 ; 00001cbeH
  01aaf	74 12		 je	 SHORT $LN5@FireCracke
  01ab1	81 7d f4 2b 1c
	00 00		 cmp	 DWORD PTR _type$[ebp], 7211 ; 00001c2bH
  01ab8	74 09		 je	 SHORT $LN5@FireCracke
  01aba	81 7d f4 2c 1c
	00 00		 cmp	 DWORD PTR _type$[ebp], 7212 ; 00001c2cH
  01ac1	75 1c		 jne	 SHORT $LN6@FireCracke
$LN5@FireCracke:

; 757  : 			{
; 758  : 				Option1 = 0;

  01ac3	c7 45 e4 00 00
	00 00		 mov	 DWORD PTR _Option1$[ebp], 0

; 759  : 				Option2 = 0;

  01aca	c7 45 e0 00 00
	00 00		 mov	 DWORD PTR _Option2$[ebp], 0

; 760  : 				Option3 = 0;

  01ad1	c7 45 dc 00 00
	00 00		 mov	 DWORD PTR _Option3$[ebp], 0

; 761  : 				level = 0;

  01ad8	c7 45 f0 00 00
	00 00		 mov	 DWORD PTR _level$[ebp], 0
$LN6@FireCracke:

; 762  : 			}
; 763  : 
; 764  : 			if ( type == ITEMGET(12,30)	||
; 765  : 				 type == ITEMGET(12,31)	||
; 766  : 				 type == ITEMGET(12,136)||
; 767  : 				 type == ITEMGET(12,137)||
; 768  : 				 type == ITEMGET(12,138)||
; 769  : 				 type == ITEMGET(12,139)||
; 770  : 				 type == ITEMGET(12,140)||
; 771  : 				 type == ITEMGET(12,141)||
; 772  : 				 type == ITEMGET(12,142)||
; 773  : 				 type == ITEMGET(12,143))

  01adf	81 7d f4 1e 18
	00 00		 cmp	 DWORD PTR _type$[ebp], 6174 ; 0000181eH
  01ae6	74 51		 je	 SHORT $LN3@FireCracke
  01ae8	81 7d f4 1f 18
	00 00		 cmp	 DWORD PTR _type$[ebp], 6175 ; 0000181fH
  01aef	74 48		 je	 SHORT $LN3@FireCracke
  01af1	81 7d f4 88 18
	00 00		 cmp	 DWORD PTR _type$[ebp], 6280 ; 00001888H
  01af8	74 3f		 je	 SHORT $LN3@FireCracke
  01afa	81 7d f4 89 18
	00 00		 cmp	 DWORD PTR _type$[ebp], 6281 ; 00001889H
  01b01	74 36		 je	 SHORT $LN3@FireCracke
  01b03	81 7d f4 8a 18
	00 00		 cmp	 DWORD PTR _type$[ebp], 6282 ; 0000188aH
  01b0a	74 2d		 je	 SHORT $LN3@FireCracke
  01b0c	81 7d f4 8b 18
	00 00		 cmp	 DWORD PTR _type$[ebp], 6283 ; 0000188bH
  01b13	74 24		 je	 SHORT $LN3@FireCracke
  01b15	81 7d f4 8c 18
	00 00		 cmp	 DWORD PTR _type$[ebp], 6284 ; 0000188cH
  01b1c	74 1b		 je	 SHORT $LN3@FireCracke
  01b1e	81 7d f4 8d 18
	00 00		 cmp	 DWORD PTR _type$[ebp], 6285 ; 0000188dH
  01b25	74 12		 je	 SHORT $LN3@FireCracke
  01b27	81 7d f4 8e 18
	00 00		 cmp	 DWORD PTR _type$[ebp], 6286 ; 0000188eH
  01b2e	74 09		 je	 SHORT $LN3@FireCracke
  01b30	81 7d f4 8f 18
	00 00		 cmp	 DWORD PTR _type$[ebp], 6287 ; 0000188fH
  01b37	75 32		 jne	 SHORT $LN4@FireCracke
$LN3@FireCracke:

; 774  : 			{
; 775  : 				Option1 = 0;

  01b39	c7 45 e4 00 00
	00 00		 mov	 DWORD PTR _Option1$[ebp], 0

; 776  : 				Option2 = 0;

  01b40	c7 45 e0 00 00
	00 00		 mov	 DWORD PTR _Option2$[ebp], 0

; 777  : 				Option3 = 0;

  01b47	c7 45 dc 00 00
	00 00		 mov	 DWORD PTR _Option3$[ebp], 0

; 778  : 				level = FireCrackerItemBag->GetLevel(DropItemNum);

  01b4e	8b 45 d8	 mov	 eax, DWORD PTR _DropItemNum$[ebp]
  01b51	50		 push	 eax
  01b52	8b 0d 00 00 00
	00		 mov	 ecx, DWORD PTR ?FireCrackerItemBag@@3PAVCItemBag@@A ; FireCrackerItemBag
  01b58	8b 11		 mov	 edx, DWORD PTR [ecx]
  01b5a	8b 0d 00 00 00
	00		 mov	 ecx, DWORD PTR ?FireCrackerItemBag@@3PAVCItemBag@@A ; FireCrackerItemBag
  01b60	8b 42 14	 mov	 eax, DWORD PTR [edx+20]
  01b63	ff d0		 call	 eax
  01b65	0f b6 c8	 movzx	 ecx, al
  01b68	89 4d f0	 mov	 DWORD PTR _level$[ebp], ecx
$LN4@FireCracke:

; 779  : 			}
; 780  : 
; 781  : 			if ( type == ITEMGET(13,0) ||
; 782  : 				 type == ITEMGET(13,1) ||
; 783  : 				 type == ITEMGET(13,2) ||
; 784  : 				 type == ITEMGET(13,8) ||
; 785  : 				 type == ITEMGET(13,9) ||
; 786  : 				 type == ITEMGET(13,12) ||
; 787  : 				 type == ITEMGET(13,13) )

  01b6b	81 7d f4 00 1a
	00 00		 cmp	 DWORD PTR _type$[ebp], 6656 ; 00001a00H
  01b72	74 36		 je	 SHORT $LN1@FireCracke
  01b74	81 7d f4 01 1a
	00 00		 cmp	 DWORD PTR _type$[ebp], 6657 ; 00001a01H
  01b7b	74 2d		 je	 SHORT $LN1@FireCracke
  01b7d	81 7d f4 02 1a
	00 00		 cmp	 DWORD PTR _type$[ebp], 6658 ; 00001a02H
  01b84	74 24		 je	 SHORT $LN1@FireCracke
  01b86	81 7d f4 08 1a
	00 00		 cmp	 DWORD PTR _type$[ebp], 6664 ; 00001a08H
  01b8d	74 1b		 je	 SHORT $LN1@FireCracke
  01b8f	81 7d f4 09 1a
	00 00		 cmp	 DWORD PTR _type$[ebp], 6665 ; 00001a09H
  01b96	74 12		 je	 SHORT $LN1@FireCracke
  01b98	81 7d f4 0c 1a
	00 00		 cmp	 DWORD PTR _type$[ebp], 6668 ; 00001a0cH
  01b9f	74 09		 je	 SHORT $LN1@FireCracke
  01ba1	81 7d f4 0d 1a
	00 00		 cmp	 DWORD PTR _type$[ebp], 6669 ; 00001a0dH
  01ba8	75 07		 jne	 SHORT $LN2@FireCracke
$LN1@FireCracke:

; 788  : 			{
; 789  : 				level = 0;

  01baa	c7 45 f0 00 00
	00 00		 mov	 DWORD PTR _level$[ebp], 0
$LN2@FireCracke:

; 790  : 			}
; 791  : 
; 792  : 			ItemSerialCreateSend(lpObj->m_Index, (BYTE)lpObj->MapNumber, (BYTE)x, (BYTE)y, type, (BYTE)level, (BYTE)dur,
; 793  : 				(BYTE)Option1, (BYTE)Option2, (BYTE)Option3, lpObj->m_Index, 0, 0);

  01bb1	6a 00		 push	 0
  01bb3	6a 00		 push	 0
  01bb5	8b 45 08	 mov	 eax, DWORD PTR _lpObj$[ebp]
  01bb8	8b 08		 mov	 ecx, DWORD PTR [eax]
  01bba	51		 push	 ecx
  01bbb	0f b6 55 dc	 movzx	 edx, BYTE PTR _Option3$[ebp]
  01bbf	52		 push	 edx
  01bc0	0f b6 45 e0	 movzx	 eax, BYTE PTR _Option2$[ebp]
  01bc4	50		 push	 eax
  01bc5	0f b6 4d e4	 movzx	 ecx, BYTE PTR _Option1$[ebp]
  01bc9	51		 push	 ecx
  01bca	d9 45 f8	 fld	 DWORD PTR _dur$[ebp]
  01bcd	d9 bd b2 fe ff
	ff		 fnstcw	 WORD PTR tv393[ebp]
  01bd3	0f b7 85 b2 fe
	ff ff		 movzx	 eax, WORD PTR tv393[ebp]
  01bda	0d 00 0c 00 00	 or	 eax, 3072		; 00000c00H
  01bdf	89 85 ac fe ff
	ff		 mov	 DWORD PTR tv396[ebp], eax
  01be5	d9 ad ac fe ff
	ff		 fldcw	 WORD PTR tv396[ebp]
  01beb	db 9d a8 fe ff
	ff		 fistp	 DWORD PTR tv398[ebp]
  01bf1	d9 ad b2 fe ff
	ff		 fldcw	 WORD PTR tv393[ebp]
  01bf7	0f b6 95 a8 fe
	ff ff		 movzx	 edx, BYTE PTR tv398[ebp]
  01bfe	52		 push	 edx
  01bff	0f b6 45 f0	 movzx	 eax, BYTE PTR _level$[ebp]
  01c03	50		 push	 eax
  01c04	8b 4d f4	 mov	 ecx, DWORD PTR _type$[ebp]
  01c07	51		 push	 ecx
  01c08	0f b6 55 e8	 movzx	 edx, BYTE PTR _y$[ebp]
  01c0c	52		 push	 edx
  01c0d	0f b6 45 ec	 movzx	 eax, BYTE PTR _x$[ebp]
  01c11	50		 push	 eax
  01c12	8b 4d 08	 mov	 ecx, DWORD PTR _lpObj$[ebp]
  01c15	0f b6 91 49 01
	00 00		 movzx	 edx, BYTE PTR [ecx+329]
  01c1c	52		 push	 edx
  01c1d	8b 45 08	 mov	 eax, DWORD PTR _lpObj$[ebp]
  01c20	8b 08		 mov	 ecx, DWORD PTR [eax]
  01c22	51		 push	 ecx
  01c23	e8 00 00 00 00	 call	 ?ItemSerialCreateSend@@YAXHEEEHEEEEEHEE@Z ; ItemSerialCreateSend
  01c28	83 c4 34	 add	 esp, 52			; 00000034H

; 794  : 
; 795  : 			PMSG_SERVERCMD ServerCmd;
; 796  : 
; 797  : 			PHeadSubSetB((LPBYTE)&ServerCmd, 0xF3, 0x40, sizeof(ServerCmd));

  01c2b	6a 07		 push	 7
  01c2d	6a 40		 push	 64			; 00000040H
  01c2f	68 f3 00 00 00	 push	 243			; 000000f3H
  01c34	8d 45 c8	 lea	 eax, DWORD PTR _ServerCmd$233462[ebp]
  01c37	50		 push	 eax
  01c38	e8 00 00 00 00	 call	 ?PHeadSubSetB@@YAXPAEEEH@Z ; PHeadSubSetB
  01c3d	83 c4 10	 add	 esp, 16			; 00000010H

; 798  : 			ServerCmd.CmdType = 0;

  01c40	c6 45 cc 00	 mov	 BYTE PTR _ServerCmd$233462[ebp+4], 0

; 799  : 			ServerCmd.X = x;

  01c44	8a 45 ec	 mov	 al, BYTE PTR _x$[ebp]
  01c47	88 45 cd	 mov	 BYTE PTR _ServerCmd$233462[ebp+5], al

; 800  : 			ServerCmd.Y = y;

  01c4a	8a 45 e8	 mov	 al, BYTE PTR _y$[ebp]
  01c4d	88 45 ce	 mov	 BYTE PTR _ServerCmd$233462[ebp+6], al

; 801  : 
; 802  : 			MsgSendV2(lpObj, (LPBYTE)&ServerCmd, sizeof(ServerCmd));

  01c50	6a 07		 push	 7
  01c52	8d 45 c8	 lea	 eax, DWORD PTR _ServerCmd$233462[ebp]
  01c55	50		 push	 eax
  01c56	8b 4d 08	 mov	 ecx, DWORD PTR _lpObj$[ebp]
  01c59	51		 push	 ecx
  01c5a	e8 00 00 00 00	 call	 ?MsgSendV2@@YAXPAUOBJECTSTRUCT@@PAEH@Z ; MsgSendV2
  01c5f	83 c4 0c	 add	 esp, 12			; 0000000cH

; 803  : 			DataSend(lpObj->m_Index, (LPBYTE)&ServerCmd, sizeof(ServerCmd));

  01c62	6a 07		 push	 7
  01c64	8d 45 c8	 lea	 eax, DWORD PTR _ServerCmd$233462[ebp]
  01c67	50		 push	 eax
  01c68	8b 4d 08	 mov	 ecx, DWORD PTR _lpObj$[ebp]
  01c6b	8b 11		 mov	 edx, DWORD PTR [ecx]
  01c6d	52		 push	 edx
  01c6e	e8 00 00 00 00	 call	 ?DataSend@@YAHHPAEK@Z	; DataSend
  01c73	83 c4 0c	 add	 esp, 12			; 0000000cH

; 804  : 
; 805  : 			CItem EventItem;

  01c76	8d 8d f4 fe ff
	ff		 lea	 ecx, DWORD PTR _EventItem$233466[ebp]
  01c7c	e8 00 00 00 00	 call	 ??0CItem@@QAE@XZ	; CItem::CItem

; 806  : 
; 807  : 			EventItem.Convert(type, Option1, Option2, Option3, 0, 1, 0, NULL, 0xFF, 0, 3);

  01c81	6a 03		 push	 3
  01c83	6a 00		 push	 0
  01c85	68 ff 00 00 00	 push	 255			; 000000ffH
  01c8a	6a 00		 push	 0
  01c8c	6a 00		 push	 0
  01c8e	6a 01		 push	 1
  01c90	6a 00		 push	 0
  01c92	0f b6 45 dc	 movzx	 eax, BYTE PTR _Option3$[ebp]
  01c96	50		 push	 eax
  01c97	0f b6 4d e0	 movzx	 ecx, BYTE PTR _Option2$[ebp]
  01c9b	51		 push	 ecx
  01c9c	0f b6 55 e4	 movzx	 edx, BYTE PTR _Option1$[ebp]
  01ca0	52		 push	 edx
  01ca1	8b 45 f4	 mov	 eax, DWORD PTR _type$[ebp]
  01ca4	50		 push	 eax
  01ca5	8d 8d f4 fe ff
	ff		 lea	 ecx, DWORD PTR _EventItem$233466[ebp]
  01cab	e8 00 00 00 00	 call	 ?Convert@CItem@@QAEXHEEEEEEPAEEEE@Z ; CItem::Convert

; 808  : 
; 809  : 			LogAddTD("[%s][%s][Lucky Box Item Drop][Fire Cracker] : (%d)(X:%d/Y:%d) Item:%s(%d) Level:%d Op1:%d Op2:%d Op3:%d",
; 810  : 				lpObj->AccountID, lpObj->Name, lpObj->MapNumber, lpObj->X, lpObj->Y, EventItem.GetName(),
; 811  : 				type, level, Option1, Option2, Option3);

  01cb0	8b 45 dc	 mov	 eax, DWORD PTR _Option3$[ebp]
  01cb3	50		 push	 eax
  01cb4	8b 4d e0	 mov	 ecx, DWORD PTR _Option2$[ebp]
  01cb7	51		 push	 ecx
  01cb8	8b 55 e4	 mov	 edx, DWORD PTR _Option1$[ebp]
  01cbb	52		 push	 edx
  01cbc	8b 45 f0	 mov	 eax, DWORD PTR _level$[ebp]
  01cbf	50		 push	 eax
  01cc0	8b 4d f4	 mov	 ecx, DWORD PTR _type$[ebp]
  01cc3	51		 push	 ecx
  01cc4	8d 8d f4 fe ff
	ff		 lea	 ecx, DWORD PTR _EventItem$233466[ebp]
  01cca	e8 00 00 00 00	 call	 ?GetName@CItem@@QAEPADXZ ; CItem::GetName
  01ccf	50		 push	 eax
  01cd0	8b 55 08	 mov	 edx, DWORD PTR _lpObj$[ebp]
  01cd3	0f bf 82 46 01
	00 00		 movsx	 eax, WORD PTR [edx+326]
  01cda	50		 push	 eax
  01cdb	8b 4d 08	 mov	 ecx, DWORD PTR _lpObj$[ebp]
  01cde	0f bf 91 44 01
	00 00		 movsx	 edx, WORD PTR [ecx+324]
  01ce5	52		 push	 edx
  01ce6	8b 45 08	 mov	 eax, DWORD PTR _lpObj$[ebp]
  01ce9	0f b6 88 49 01
	00 00		 movzx	 ecx, BYTE PTR [eax+329]
  01cf0	51		 push	 ecx
  01cf1	8b 55 08	 mov	 edx, DWORD PTR _lpObj$[ebp]
  01cf4	83 c2 77	 add	 edx, 119		; 00000077H
  01cf7	52		 push	 edx
  01cf8	8b 45 08	 mov	 eax, DWORD PTR _lpObj$[ebp]
  01cfb	83 c0 6c	 add	 eax, 108		; 0000006cH
  01cfe	50		 push	 eax
  01cff	68 00 00 00 00	 push	 OFFSET ??_C@_0GI@FPPGAGOE@?$FL?$CFs?$FN?$FL?$CFs?$FN?$FLLucky?5Box?5Item?5Drop?$FN?$FLFi@
  01d04	ff 15 00 00 00
	00		 call	 DWORD PTR ?LogAddTD@@3P6AXPADZZA ; LogAddTD
  01d0a	83 c4 30	 add	 esp, 48			; 00000030H

; 812  : 
; 813  : 			return;

  01d0d	eb 42		 jmp	 SHORT $LN17@FireCracke
$LN13@FireCracke:

; 814  : 		}
; 815  : 	}
; 816  : 
; 817  : 	x = lpObj->X;

  01d0f	8b 45 08	 mov	 eax, DWORD PTR _lpObj$[ebp]
  01d12	0f bf 88 44 01
	00 00		 movsx	 ecx, WORD PTR [eax+324]
  01d19	89 4d ec	 mov	 DWORD PTR _x$[ebp], ecx

; 818  : 	y = lpObj->Y;

  01d1c	8b 45 08	 mov	 eax, DWORD PTR _lpObj$[ebp]
  01d1f	0f bf 88 46 01
	00 00		 movsx	 ecx, WORD PTR [eax+326]
  01d26	89 4d e8	 mov	 DWORD PTR _y$[ebp], ecx

; 819  : 	MapC[lpObj->MapNumber].MoneyItemDrop(2004, x, y);

  01d29	8b 45 e8	 mov	 eax, DWORD PTR _y$[ebp]
  01d2c	50		 push	 eax
  01d2d	8b 4d ec	 mov	 ecx, DWORD PTR _x$[ebp]
  01d30	51		 push	 ecx
  01d31	68 d4 07 00 00	 push	 2004			; 000007d4H
  01d36	8b 55 08	 mov	 edx, DWORD PTR _lpObj$[ebp]
  01d39	0f b6 8a 49 01
	00 00		 movzx	 ecx, BYTE PTR [edx+329]
  01d40	69 c9 b8 3d 05
	00		 imul	 ecx, 343480		; 00053db8H
  01d46	81 c1 00 00 00
	00		 add	 ecx, OFFSET ?MapC@@3PAVMapClass@@A ; MapC
  01d4c	e8 00 00 00 00	 call	 ?MoneyItemDrop@MapClass@@QAEHHHH@Z ; MapClass::MoneyItemDrop
$LN17@FireCracke:

; 820  : }

  01d51	5f		 pop	 edi
  01d52	5e		 pop	 esi
  01d53	5b		 pop	 ebx
  01d54	8b 4d fc	 mov	 ecx, DWORD PTR __$ArrayPad$[ebp]
  01d57	33 cd		 xor	 ecx, ebp
  01d59	e8 00 00 00 00	 call	 @__security_check_cookie@4
  01d5e	8b e5		 mov	 esp, ebp
  01d60	5d		 pop	 ebp
  01d61	c3		 ret	 0
?FireCrackerOpenEven@@YAXPAUOBJECTSTRUCT@@@Z ENDP	; FireCrackerOpenEven
_TEXT	ENDS
PUBLIC	?StarOfXMasOpenEven@@YAXPAUOBJECTSTRUCT@@@Z	; StarOfXMasOpenEven
EXTRN	?DropItem@CItemBagEx@@QAEHH@Z:PROC		; CItemBagEx::DropItem
EXTRN	?StarOfXMasItemBag@@3PAVCItemBagEx@@A:DWORD	; StarOfXMasItemBag
; Function compile flags: /Odtp /ZI
_TEXT	SEGMENT
_lpObj$ = 8						; size = 4
?StarOfXMasOpenEven@@YAXPAUOBJECTSTRUCT@@@Z PROC	; StarOfXMasOpenEven

; 823  : {

  01d70	55		 push	 ebp
  01d71	8b ec		 mov	 ebp, esp
  01d73	83 ec 40	 sub	 esp, 64			; 00000040H
  01d76	53		 push	 ebx
  01d77	56		 push	 esi
  01d78	57		 push	 edi

; 824  : 	StarOfXMasItemBag->DropItem(lpObj->m_Index);

  01d79	8b 45 08	 mov	 eax, DWORD PTR _lpObj$[ebp]
  01d7c	8b 08		 mov	 ecx, DWORD PTR [eax]
  01d7e	51		 push	 ecx
  01d7f	8b 0d 00 00 00
	00		 mov	 ecx, DWORD PTR ?StarOfXMasItemBag@@3PAVCItemBagEx@@A ; StarOfXMasItemBag
  01d85	e8 00 00 00 00	 call	 ?DropItem@CItemBagEx@@QAEHH@Z ; CItemBagEx::DropItem

; 825  : }

  01d8a	5f		 pop	 edi
  01d8b	5e		 pop	 esi
  01d8c	5b		 pop	 ebx
  01d8d	8b e5		 mov	 esp, ebp
  01d8f	5d		 pop	 ebp
  01d90	c3		 ret	 0
?StarOfXMasOpenEven@@YAXPAUOBJECTSTRUCT@@@Z ENDP	; StarOfXMasOpenEven
_TEXT	ENDS
PUBLIC	??_C@_0FD@OFINJAAJ@?$FL?$CFs?$FN?$FL?$CFs?$FN?$FLRing?5Event?$FN?$CI?$CFd?0?$CFd?0?$CFd?$CJ?5I@ ; `string'
PUBLIC	__$ArrayPad$
PUBLIC	?RingEventItemBoxOpen@@YAXPAUOBJECTSTRUCT@@@Z	; RingEventItemBoxOpen
EXTRN	?RingEventItemBag@@3PAVCItemBag@@A:DWORD	; RingEventItemBag
;	COMDAT ??_C@_0FD@OFINJAAJ@?$FL?$CFs?$FN?$FL?$CFs?$FN?$FLRing?5Event?$FN?$CI?$CFd?0?$CFd?0?$CFd?$CJ?5I@
CONST	SEGMENT
??_C@_0FD@OFINJAAJ@?$FL?$CFs?$FN?$FL?$CFs?$FN?$FLRing?5Event?$FN?$CI?$CFd?0?$CFd?0?$CFd?$CJ?5I@ DB '['
	DB	'%s][%s][Ring Event](%d,%d,%d) ItemDrop : Item:%s %d Level:%d '
	DB	'op1:%d op2:%d op3:%d', 00H			; `string'
; Function compile flags: /Odtp /ZI
CONST	ENDS
_TEXT	SEGMENT
tv300 = -332						; size = 4
tv298 = -328						; size = 4
tv295 = -322						; size = 2
_EventItem$233508 = -256				; size = 212
_rnd$233485 = -44					; size = 4
_DropItemNum$ = -40					; size = 4
_Option3$ = -36						; size = 4
_Option2$ = -32						; size = 4
_Option1$ = -28						; size = 4
_y$ = -24						; size = 4
_x$ = -20						; size = 4
_level$ = -16						; size = 4
_type$ = -12						; size = 4
_dur$ = -8						; size = 4
__$ArrayPad$ = -4					; size = 4
_lpObj$ = 8						; size = 4
?RingEventItemBoxOpen@@YAXPAUOBJECTSTRUCT@@@Z PROC	; RingEventItemBoxOpen

; 828  : {

  01da0	55		 push	 ebp
  01da1	8b ec		 mov	 ebp, esp
  01da3	81 ec 4c 01 00
	00		 sub	 esp, 332		; 0000014cH
  01da9	a1 00 00 00 00	 mov	 eax, DWORD PTR ___security_cookie
  01dae	33 c5		 xor	 eax, ebp
  01db0	89 45 fc	 mov	 DWORD PTR __$ArrayPad$[ebp], eax
  01db3	53		 push	 ebx
  01db4	56		 push	 esi
  01db5	57		 push	 edi

; 829  : 	float dur;
; 830  : 	int type;
; 831  : 	int level;
; 832  : 	int x;
; 833  : 	int y;
; 834  : 	int Option1=0;

  01db6	c7 45 e4 00 00
	00 00		 mov	 DWORD PTR _Option1$[ebp], 0

; 835  : 	int Option2=0;

  01dbd	c7 45 e0 00 00
	00 00		 mov	 DWORD PTR _Option2$[ebp], 0

; 836  : 	int Option3=0;

  01dc4	c7 45 dc 00 00
	00 00		 mov	 DWORD PTR _Option3$[ebp], 0

; 837  : 	int DropItemNum;
; 838  : 
; 839  : 	if ( RingEventItemBag->GetBagCount() > 0 )

  01dcb	8b 0d 00 00 00
	00		 mov	 ecx, DWORD PTR ?RingEventItemBag@@3PAVCItemBag@@A ; RingEventItemBag
  01dd1	e8 00 00 00 00	 call	 ?GetBagCount@CItemBag@@QAEHXZ ; CItemBag::GetBagCount
  01dd6	85 c0		 test	 eax, eax
  01dd8	0f 8e e4 03 00
	00		 jle	 $LN15@RingEventI

; 840  : 	{
; 841  : 		if ( (rand()%10) < 9 )

  01dde	e8 00 00 00 00	 call	 _rand
  01de3	99		 cdq
  01de4	b9 0a 00 00 00	 mov	 ecx, 10			; 0000000aH
  01de9	f7 f9		 idiv	 ecx
  01deb	83 fa 09	 cmp	 edx, 9
  01dee	0f 8d ce 03 00
	00		 jge	 $LN15@RingEventI

; 842  : 		{
; 843  : 			DropItemNum = rand()%RingEventItemBag->GetBagCount();

  01df4	e8 00 00 00 00	 call	 _rand
  01df9	8b f0		 mov	 esi, eax
  01dfb	8b 0d 00 00 00
	00		 mov	 ecx, DWORD PTR ?RingEventItemBag@@3PAVCItemBag@@A ; RingEventItemBag
  01e01	e8 00 00 00 00	 call	 ?GetBagCount@CItemBag@@QAEHXZ ; CItemBag::GetBagCount
  01e06	8b c8		 mov	 ecx, eax
  01e08	8b c6		 mov	 eax, esi
  01e0a	99		 cdq
  01e0b	f7 f9		 idiv	 ecx
  01e0d	89 55 d8	 mov	 DWORD PTR _DropItemNum$[ebp], edx

; 844  : 			dur=0;

  01e10	d9 ee		 fldz
  01e12	d9 5d f8	 fstp	 DWORD PTR _dur$[ebp]

; 845  : 			x = lpObj->X;

  01e15	8b 45 08	 mov	 eax, DWORD PTR _lpObj$[ebp]
  01e18	0f bf 88 44 01
	00 00		 movsx	 ecx, WORD PTR [eax+324]
  01e1f	89 4d ec	 mov	 DWORD PTR _x$[ebp], ecx

; 846  : 			y = lpObj->Y;

  01e22	8b 45 08	 mov	 eax, DWORD PTR _lpObj$[ebp]
  01e25	0f bf 88 46 01
	00 00		 movsx	 ecx, WORD PTR [eax+326]
  01e2c	89 4d e8	 mov	 DWORD PTR _y$[ebp], ecx

; 847  : 
; 848  : 			int rnd = rand() % 100;

  01e2f	e8 00 00 00 00	 call	 _rand
  01e34	99		 cdq
  01e35	b9 64 00 00 00	 mov	 ecx, 100		; 00000064H
  01e3a	f7 f9		 idiv	 ecx
  01e3c	89 55 d4	 mov	 DWORD PTR _rnd$233485[ebp], edx

; 849  : 
; 850  : 			if ( rnd < 5 )

  01e3f	83 7d d4 05	 cmp	 DWORD PTR _rnd$233485[ebp], 5
  01e43	7d 09		 jge	 SHORT $LN14@RingEventI

; 851  : 				level = 9;

  01e45	c7 45 f0 09 00
	00 00		 mov	 DWORD PTR _level$[ebp], 9
  01e4c	eb 25		 jmp	 SHORT $LN9@RingEventI
$LN14@RingEventI:

; 852  : 			else if ( rnd < 20 )

  01e4e	83 7d d4 14	 cmp	 DWORD PTR _rnd$233485[ebp], 20 ; 00000014H
  01e52	7d 09		 jge	 SHORT $LN12@RingEventI

; 853  : 				level = 8;

  01e54	c7 45 f0 08 00
	00 00		 mov	 DWORD PTR _level$[ebp], 8
  01e5b	eb 16		 jmp	 SHORT $LN9@RingEventI
$LN12@RingEventI:

; 854  : 			else if ( rnd < 50 )

  01e5d	83 7d d4 32	 cmp	 DWORD PTR _rnd$233485[ebp], 50 ; 00000032H
  01e61	7d 09		 jge	 SHORT $LN10@RingEventI

; 855  : 				level = 7;

  01e63	c7 45 f0 07 00
	00 00		 mov	 DWORD PTR _level$[ebp], 7

; 856  : 			else 

  01e6a	eb 07		 jmp	 SHORT $LN9@RingEventI
$LN10@RingEventI:

; 857  : 				level = 6;

  01e6c	c7 45 f0 06 00
	00 00		 mov	 DWORD PTR _level$[ebp], 6
$LN9@RingEventI:

; 858  : 
; 859  : 			type = ItemGetNumberMake(RingEventItemBag->GetType(DropItemNum), RingEventItemBag->GetIndex(DropItemNum));

  01e73	8b 45 d8	 mov	 eax, DWORD PTR _DropItemNum$[ebp]
  01e76	50		 push	 eax
  01e77	8b 0d 00 00 00
	00		 mov	 ecx, DWORD PTR ?RingEventItemBag@@3PAVCItemBag@@A ; RingEventItemBag
  01e7d	8b 11		 mov	 edx, DWORD PTR [ecx]
  01e7f	8b 0d 00 00 00
	00		 mov	 ecx, DWORD PTR ?RingEventItemBag@@3PAVCItemBag@@A ; RingEventItemBag
  01e85	8b 42 10	 mov	 eax, DWORD PTR [edx+16]
  01e88	ff d0		 call	 eax
  01e8a	0f b6 c8	 movzx	 ecx, al
  01e8d	51		 push	 ecx
  01e8e	8b 55 d8	 mov	 edx, DWORD PTR _DropItemNum$[ebp]
  01e91	52		 push	 edx
  01e92	a1 00 00 00 00	 mov	 eax, DWORD PTR ?RingEventItemBag@@3PAVCItemBag@@A ; RingEventItemBag
  01e97	8b 10		 mov	 edx, DWORD PTR [eax]
  01e99	8b 0d 00 00 00
	00		 mov	 ecx, DWORD PTR ?RingEventItemBag@@3PAVCItemBag@@A ; RingEventItemBag
  01e9f	8b 42 0c	 mov	 eax, DWORD PTR [edx+12]
  01ea2	ff d0		 call	 eax
  01ea4	0f b6 c8	 movzx	 ecx, al
  01ea7	51		 push	 ecx
  01ea8	e8 00 00 00 00	 call	 ?ItemGetNumberMake@@YAHHH@Z ; ItemGetNumberMake
  01ead	83 c4 08	 add	 esp, 8
  01eb0	89 45 f4	 mov	 DWORD PTR _type$[ebp], eax

; 860  : 			Option1 = 1;

  01eb3	c7 45 e4 01 00
	00 00		 mov	 DWORD PTR _Option1$[ebp], 1

; 861  : 			Option2 = rand()%2;

  01eba	e8 00 00 00 00	 call	 _rand
  01ebf	25 01 00 00 80	 and	 eax, -2147483647	; 80000001H
  01ec4	79 05		 jns	 SHORT $LN19@RingEventI
  01ec6	48		 dec	 eax
  01ec7	83 c8 fe	 or	 eax, -2			; fffffffeH
  01eca	40		 inc	 eax
$LN19@RingEventI:
  01ecb	89 45 e0	 mov	 DWORD PTR _Option2$[ebp], eax

; 862  : 
; 863  : 			if ( (rand()%5) <1 )

  01ece	e8 00 00 00 00	 call	 _rand
  01ed3	99		 cdq
  01ed4	b9 05 00 00 00	 mov	 ecx, 5
  01ed9	f7 f9		 idiv	 ecx
  01edb	83 fa 01	 cmp	 edx, 1
  01ede	7d 09		 jge	 SHORT $LN8@RingEventI

; 864  : 				Option3 = 3;

  01ee0	c7 45 dc 03 00
	00 00		 mov	 DWORD PTR _Option3$[ebp], 3

; 865  : 			else

  01ee7	eb 10		 jmp	 SHORT $LN7@RingEventI
$LN8@RingEventI:

; 866  : 				Option3 = rand()%3;

  01ee9	e8 00 00 00 00	 call	 _rand
  01eee	99		 cdq
  01eef	b9 03 00 00 00	 mov	 ecx, 3
  01ef4	f7 f9		 idiv	 ecx
  01ef6	89 55 dc	 mov	 DWORD PTR _Option3$[ebp], edx
$LN7@RingEventI:

; 867  : 
; 868  : 			if ( type == ITEMGET(12,15) ||
; 869  : 				 type == ITEMGET(14,13) ||
; 870  : 				 type == ITEMGET(14,14) ||
; 871  : 				 type == ITEMGET(14,14) ||
; 872  : 				 type == ITEMGET(14,16)	||
; 873  : 				 type == ITEMGET(14,22)	||
; 874  : 				 type == ITEMGET(14,31)	||
; 875  : 				 type == ITEMGET(14,41)	||
; 876  : 				 type == ITEMGET(14,42)	||
; 877  : 				 type == ITEMGET(14,180)||
; 878  : 				 type == ITEMGET(14,181)||
; 879  : 				 type == ITEMGET(14,182)||
; 880  : 				 type == ITEMGET(14,183)||
; 881  : 				 type == ITEMGET(14,184)||
; 882  : 				 type == ITEMGET(14,185)||
; 883  : 				 type == ITEMGET(14,186)||
; 884  : 				 type == ITEMGET(14,187)||
; 885  : 				 type == ITEMGET(14,190)||
; 886  : 				 type == ITEMGET(14,43) ||
; 887  : 				 type == ITEMGET(14,44) )

  01ef9	81 7d f4 0f 18
	00 00		 cmp	 DWORD PTR _type$[ebp], 6159 ; 0000180fH
  01f00	0f 84 bb 00 00
	00		 je	 $LN5@RingEventI
  01f06	81 7d f4 0d 1c
	00 00		 cmp	 DWORD PTR _type$[ebp], 7181 ; 00001c0dH
  01f0d	0f 84 ae 00 00
	00		 je	 $LN5@RingEventI
  01f13	81 7d f4 0e 1c
	00 00		 cmp	 DWORD PTR _type$[ebp], 7182 ; 00001c0eH
  01f1a	0f 84 a1 00 00
	00		 je	 $LN5@RingEventI
  01f20	81 7d f4 0e 1c
	00 00		 cmp	 DWORD PTR _type$[ebp], 7182 ; 00001c0eH
  01f27	0f 84 94 00 00
	00		 je	 $LN5@RingEventI
  01f2d	81 7d f4 10 1c
	00 00		 cmp	 DWORD PTR _type$[ebp], 7184 ; 00001c10H
  01f34	0f 84 87 00 00
	00		 je	 $LN5@RingEventI
  01f3a	81 7d f4 16 1c
	00 00		 cmp	 DWORD PTR _type$[ebp], 7190 ; 00001c16H
  01f41	74 7e		 je	 SHORT $LN5@RingEventI
  01f43	81 7d f4 1f 1c
	00 00		 cmp	 DWORD PTR _type$[ebp], 7199 ; 00001c1fH
  01f4a	74 75		 je	 SHORT $LN5@RingEventI
  01f4c	81 7d f4 29 1c
	00 00		 cmp	 DWORD PTR _type$[ebp], 7209 ; 00001c29H
  01f53	74 6c		 je	 SHORT $LN5@RingEventI
  01f55	81 7d f4 2a 1c
	00 00		 cmp	 DWORD PTR _type$[ebp], 7210 ; 00001c2aH
  01f5c	74 63		 je	 SHORT $LN5@RingEventI
  01f5e	81 7d f4 b4 1c
	00 00		 cmp	 DWORD PTR _type$[ebp], 7348 ; 00001cb4H
  01f65	74 5a		 je	 SHORT $LN5@RingEventI
  01f67	81 7d f4 b5 1c
	00 00		 cmp	 DWORD PTR _type$[ebp], 7349 ; 00001cb5H
  01f6e	74 51		 je	 SHORT $LN5@RingEventI
  01f70	81 7d f4 b6 1c
	00 00		 cmp	 DWORD PTR _type$[ebp], 7350 ; 00001cb6H
  01f77	74 48		 je	 SHORT $LN5@RingEventI
  01f79	81 7d f4 b7 1c
	00 00		 cmp	 DWORD PTR _type$[ebp], 7351 ; 00001cb7H
  01f80	74 3f		 je	 SHORT $LN5@RingEventI
  01f82	81 7d f4 b8 1c
	00 00		 cmp	 DWORD PTR _type$[ebp], 7352 ; 00001cb8H
  01f89	74 36		 je	 SHORT $LN5@RingEventI
  01f8b	81 7d f4 b9 1c
	00 00		 cmp	 DWORD PTR _type$[ebp], 7353 ; 00001cb9H
  01f92	74 2d		 je	 SHORT $LN5@RingEventI
  01f94	81 7d f4 ba 1c
	00 00		 cmp	 DWORD PTR _type$[ebp], 7354 ; 00001cbaH
  01f9b	74 24		 je	 SHORT $LN5@RingEventI
  01f9d	81 7d f4 bb 1c
	00 00		 cmp	 DWORD PTR _type$[ebp], 7355 ; 00001cbbH
  01fa4	74 1b		 je	 SHORT $LN5@RingEventI
  01fa6	81 7d f4 be 1c
	00 00		 cmp	 DWORD PTR _type$[ebp], 7358 ; 00001cbeH
  01fad	74 12		 je	 SHORT $LN5@RingEventI
  01faf	81 7d f4 2b 1c
	00 00		 cmp	 DWORD PTR _type$[ebp], 7211 ; 00001c2bH
  01fb6	74 09		 je	 SHORT $LN5@RingEventI
  01fb8	81 7d f4 2c 1c
	00 00		 cmp	 DWORD PTR _type$[ebp], 7212 ; 00001c2cH
  01fbf	75 1c		 jne	 SHORT $LN6@RingEventI
$LN5@RingEventI:

; 888  : 			{
; 889  : 				Option1 = 0;

  01fc1	c7 45 e4 00 00
	00 00		 mov	 DWORD PTR _Option1$[ebp], 0

; 890  : 				Option2 = 0;

  01fc8	c7 45 e0 00 00
	00 00		 mov	 DWORD PTR _Option2$[ebp], 0

; 891  : 				Option3 = 0;

  01fcf	c7 45 dc 00 00
	00 00		 mov	 DWORD PTR _Option3$[ebp], 0

; 892  : 				level = 0;

  01fd6	c7 45 f0 00 00
	00 00		 mov	 DWORD PTR _level$[ebp], 0
$LN6@RingEventI:

; 893  : 			}
; 894  : 
; 895  : 			if ( type == ITEMGET(12,30)	||
; 896  : 				 type == ITEMGET(12,31)	||
; 897  : 				 type == ITEMGET(12,136)||
; 898  : 				 type == ITEMGET(12,137)||
; 899  : 				 type == ITEMGET(12,138)||
; 900  : 				 type == ITEMGET(12,139)||
; 901  : 				 type == ITEMGET(12,140)||
; 902  : 				 type == ITEMGET(12,141)||
; 903  : 				 type == ITEMGET(12,142)||
; 904  : 				 type == ITEMGET(12,143))

  01fdd	81 7d f4 1e 18
	00 00		 cmp	 DWORD PTR _type$[ebp], 6174 ; 0000181eH
  01fe4	74 51		 je	 SHORT $LN3@RingEventI
  01fe6	81 7d f4 1f 18
	00 00		 cmp	 DWORD PTR _type$[ebp], 6175 ; 0000181fH
  01fed	74 48		 je	 SHORT $LN3@RingEventI
  01fef	81 7d f4 88 18
	00 00		 cmp	 DWORD PTR _type$[ebp], 6280 ; 00001888H
  01ff6	74 3f		 je	 SHORT $LN3@RingEventI
  01ff8	81 7d f4 89 18
	00 00		 cmp	 DWORD PTR _type$[ebp], 6281 ; 00001889H
  01fff	74 36		 je	 SHORT $LN3@RingEventI
  02001	81 7d f4 8a 18
	00 00		 cmp	 DWORD PTR _type$[ebp], 6282 ; 0000188aH
  02008	74 2d		 je	 SHORT $LN3@RingEventI
  0200a	81 7d f4 8b 18
	00 00		 cmp	 DWORD PTR _type$[ebp], 6283 ; 0000188bH
  02011	74 24		 je	 SHORT $LN3@RingEventI
  02013	81 7d f4 8c 18
	00 00		 cmp	 DWORD PTR _type$[ebp], 6284 ; 0000188cH
  0201a	74 1b		 je	 SHORT $LN3@RingEventI
  0201c	81 7d f4 8d 18
	00 00		 cmp	 DWORD PTR _type$[ebp], 6285 ; 0000188dH
  02023	74 12		 je	 SHORT $LN3@RingEventI
  02025	81 7d f4 8e 18
	00 00		 cmp	 DWORD PTR _type$[ebp], 6286 ; 0000188eH
  0202c	74 09		 je	 SHORT $LN3@RingEventI
  0202e	81 7d f4 8f 18
	00 00		 cmp	 DWORD PTR _type$[ebp], 6287 ; 0000188fH
  02035	75 32		 jne	 SHORT $LN4@RingEventI
$LN3@RingEventI:

; 905  : 			{
; 906  : 				Option1 = 0;

  02037	c7 45 e4 00 00
	00 00		 mov	 DWORD PTR _Option1$[ebp], 0

; 907  : 				Option2 = 0;

  0203e	c7 45 e0 00 00
	00 00		 mov	 DWORD PTR _Option2$[ebp], 0

; 908  : 				Option3 = 0;

  02045	c7 45 dc 00 00
	00 00		 mov	 DWORD PTR _Option3$[ebp], 0

; 909  : 				level = RingEventItemBag->GetLevel(DropItemNum);

  0204c	8b 45 d8	 mov	 eax, DWORD PTR _DropItemNum$[ebp]
  0204f	50		 push	 eax
  02050	8b 0d 00 00 00
	00		 mov	 ecx, DWORD PTR ?RingEventItemBag@@3PAVCItemBag@@A ; RingEventItemBag
  02056	8b 11		 mov	 edx, DWORD PTR [ecx]
  02058	8b 0d 00 00 00
	00		 mov	 ecx, DWORD PTR ?RingEventItemBag@@3PAVCItemBag@@A ; RingEventItemBag
  0205e	8b 42 14	 mov	 eax, DWORD PTR [edx+20]
  02061	ff d0		 call	 eax
  02063	0f b6 c8	 movzx	 ecx, al
  02066	89 4d f0	 mov	 DWORD PTR _level$[ebp], ecx
$LN4@RingEventI:

; 910  : 			}
; 911  : 
; 912  : 			if ( type == ITEMGET(13,0) ||
; 913  : 				 type == ITEMGET(13,1) ||
; 914  : 				 type == ITEMGET(13,2) ||
; 915  : 				 type == ITEMGET(13,8) ||
; 916  : 				 type == ITEMGET(13,9) ||
; 917  : 				 type == ITEMGET(13,12) ||
; 918  : 				 type == ITEMGET(13,13) )

  02069	81 7d f4 00 1a
	00 00		 cmp	 DWORD PTR _type$[ebp], 6656 ; 00001a00H
  02070	74 36		 je	 SHORT $LN1@RingEventI
  02072	81 7d f4 01 1a
	00 00		 cmp	 DWORD PTR _type$[ebp], 6657 ; 00001a01H
  02079	74 2d		 je	 SHORT $LN1@RingEventI
  0207b	81 7d f4 02 1a
	00 00		 cmp	 DWORD PTR _type$[ebp], 6658 ; 00001a02H
  02082	74 24		 je	 SHORT $LN1@RingEventI
  02084	81 7d f4 08 1a
	00 00		 cmp	 DWORD PTR _type$[ebp], 6664 ; 00001a08H
  0208b	74 1b		 je	 SHORT $LN1@RingEventI
  0208d	81 7d f4 09 1a
	00 00		 cmp	 DWORD PTR _type$[ebp], 6665 ; 00001a09H
  02094	74 12		 je	 SHORT $LN1@RingEventI
  02096	81 7d f4 0c 1a
	00 00		 cmp	 DWORD PTR _type$[ebp], 6668 ; 00001a0cH
  0209d	74 09		 je	 SHORT $LN1@RingEventI
  0209f	81 7d f4 0d 1a
	00 00		 cmp	 DWORD PTR _type$[ebp], 6669 ; 00001a0dH
  020a6	75 07		 jne	 SHORT $LN2@RingEventI
$LN1@RingEventI:

; 919  : 			{
; 920  : 				level = 0;

  020a8	c7 45 f0 00 00
	00 00		 mov	 DWORD PTR _level$[ebp], 0
$LN2@RingEventI:

; 921  : 			}
; 922  : 
; 923  : 			ItemSerialCreateSend(lpObj->m_Index, (BYTE)lpObj->MapNumber, (BYTE)x, (BYTE)y, type, (BYTE)level, (BYTE)dur,
; 924  : 				(BYTE)Option1, (BYTE)Option2, (BYTE)Option3, lpObj->m_Index, 0, 0);

  020af	6a 00		 push	 0
  020b1	6a 00		 push	 0
  020b3	8b 45 08	 mov	 eax, DWORD PTR _lpObj$[ebp]
  020b6	8b 08		 mov	 ecx, DWORD PTR [eax]
  020b8	51		 push	 ecx
  020b9	0f b6 55 dc	 movzx	 edx, BYTE PTR _Option3$[ebp]
  020bd	52		 push	 edx
  020be	0f b6 45 e0	 movzx	 eax, BYTE PTR _Option2$[ebp]
  020c2	50		 push	 eax
  020c3	0f b6 4d e4	 movzx	 ecx, BYTE PTR _Option1$[ebp]
  020c7	51		 push	 ecx
  020c8	d9 45 f8	 fld	 DWORD PTR _dur$[ebp]
  020cb	d9 bd be fe ff
	ff		 fnstcw	 WORD PTR tv295[ebp]
  020d1	0f b7 85 be fe
	ff ff		 movzx	 eax, WORD PTR tv295[ebp]
  020d8	0d 00 0c 00 00	 or	 eax, 3072		; 00000c00H
  020dd	89 85 b8 fe ff
	ff		 mov	 DWORD PTR tv298[ebp], eax
  020e3	d9 ad b8 fe ff
	ff		 fldcw	 WORD PTR tv298[ebp]
  020e9	db 9d b4 fe ff
	ff		 fistp	 DWORD PTR tv300[ebp]
  020ef	d9 ad be fe ff
	ff		 fldcw	 WORD PTR tv295[ebp]
  020f5	0f b6 95 b4 fe
	ff ff		 movzx	 edx, BYTE PTR tv300[ebp]
  020fc	52		 push	 edx
  020fd	0f b6 45 f0	 movzx	 eax, BYTE PTR _level$[ebp]
  02101	50		 push	 eax
  02102	8b 4d f4	 mov	 ecx, DWORD PTR _type$[ebp]
  02105	51		 push	 ecx
  02106	0f b6 55 e8	 movzx	 edx, BYTE PTR _y$[ebp]
  0210a	52		 push	 edx
  0210b	0f b6 45 ec	 movzx	 eax, BYTE PTR _x$[ebp]
  0210f	50		 push	 eax
  02110	8b 4d 08	 mov	 ecx, DWORD PTR _lpObj$[ebp]
  02113	0f b6 91 49 01
	00 00		 movzx	 edx, BYTE PTR [ecx+329]
  0211a	52		 push	 edx
  0211b	8b 45 08	 mov	 eax, DWORD PTR _lpObj$[ebp]
  0211e	8b 08		 mov	 ecx, DWORD PTR [eax]
  02120	51		 push	 ecx
  02121	e8 00 00 00 00	 call	 ?ItemSerialCreateSend@@YAXHEEEHEEEEEHEE@Z ; ItemSerialCreateSend
  02126	83 c4 34	 add	 esp, 52			; 00000034H

; 925  : 
; 926  : 			CItem EventItem;

  02129	8d 8d 00 ff ff
	ff		 lea	 ecx, DWORD PTR _EventItem$233508[ebp]
  0212f	e8 00 00 00 00	 call	 ??0CItem@@QAE@XZ	; CItem::CItem

; 927  : 
; 928  : 			EventItem.Convert(type, Option1, Option2, Option3, 0, 1, 0, NULL, 0xFF, 0, 3);

  02134	6a 03		 push	 3
  02136	6a 00		 push	 0
  02138	68 ff 00 00 00	 push	 255			; 000000ffH
  0213d	6a 00		 push	 0
  0213f	6a 00		 push	 0
  02141	6a 01		 push	 1
  02143	6a 00		 push	 0
  02145	0f b6 45 dc	 movzx	 eax, BYTE PTR _Option3$[ebp]
  02149	50		 push	 eax
  0214a	0f b6 4d e0	 movzx	 ecx, BYTE PTR _Option2$[ebp]
  0214e	51		 push	 ecx
  0214f	0f b6 55 e4	 movzx	 edx, BYTE PTR _Option1$[ebp]
  02153	52		 push	 edx
  02154	8b 45 f4	 mov	 eax, DWORD PTR _type$[ebp]
  02157	50		 push	 eax
  02158	8d 8d 00 ff ff
	ff		 lea	 ecx, DWORD PTR _EventItem$233508[ebp]
  0215e	e8 00 00 00 00	 call	 ?Convert@CItem@@QAEXHEEEEEEPAEEEE@Z ; CItem::Convert

; 929  : 
; 930  : 			LogAddTD("[%s][%s][Ring Event](%d,%d,%d) ItemDrop : Item:%s %d Level:%d op1:%d op2:%d op3:%d",
; 931  : 				lpObj->AccountID, lpObj->Name, lpObj->MapNumber, lpObj->X, lpObj->Y, EventItem.GetName(),
; 932  : 				type, level, Option1, Option2, Option3);

  02163	8b 45 dc	 mov	 eax, DWORD PTR _Option3$[ebp]
  02166	50		 push	 eax
  02167	8b 4d e0	 mov	 ecx, DWORD PTR _Option2$[ebp]
  0216a	51		 push	 ecx
  0216b	8b 55 e4	 mov	 edx, DWORD PTR _Option1$[ebp]
  0216e	52		 push	 edx
  0216f	8b 45 f0	 mov	 eax, DWORD PTR _level$[ebp]
  02172	50		 push	 eax
  02173	8b 4d f4	 mov	 ecx, DWORD PTR _type$[ebp]
  02176	51		 push	 ecx
  02177	8d 8d 00 ff ff
	ff		 lea	 ecx, DWORD PTR _EventItem$233508[ebp]
  0217d	e8 00 00 00 00	 call	 ?GetName@CItem@@QAEPADXZ ; CItem::GetName
  02182	50		 push	 eax
  02183	8b 55 08	 mov	 edx, DWORD PTR _lpObj$[ebp]
  02186	0f bf 82 46 01
	00 00		 movsx	 eax, WORD PTR [edx+326]
  0218d	50		 push	 eax
  0218e	8b 4d 08	 mov	 ecx, DWORD PTR _lpObj$[ebp]
  02191	0f bf 91 44 01
	00 00		 movsx	 edx, WORD PTR [ecx+324]
  02198	52		 push	 edx
  02199	8b 45 08	 mov	 eax, DWORD PTR _lpObj$[ebp]
  0219c	0f b6 88 49 01
	00 00		 movzx	 ecx, BYTE PTR [eax+329]
  021a3	51		 push	 ecx
  021a4	8b 55 08	 mov	 edx, DWORD PTR _lpObj$[ebp]
  021a7	83 c2 77	 add	 edx, 119		; 00000077H
  021aa	52		 push	 edx
  021ab	8b 45 08	 mov	 eax, DWORD PTR _lpObj$[ebp]
  021ae	83 c0 6c	 add	 eax, 108		; 0000006cH
  021b1	50		 push	 eax
  021b2	68 00 00 00 00	 push	 OFFSET ??_C@_0FD@OFINJAAJ@?$FL?$CFs?$FN?$FL?$CFs?$FN?$FLRing?5Event?$FN?$CI?$CFd?0?$CFd?0?$CFd?$CJ?5I@
  021b7	ff 15 00 00 00
	00		 call	 DWORD PTR ?LogAddTD@@3P6AXPADZZA ; LogAddTD
  021bd	83 c4 30	 add	 esp, 48			; 00000030H

; 933  : 
; 934  : 			return;

  021c0	eb 42		 jmp	 SHORT $LN17@RingEventI
$LN15@RingEventI:

; 935  : 		}
; 936  : 	}
; 937  : 
; 938  : 	x = lpObj->X;

  021c2	8b 45 08	 mov	 eax, DWORD PTR _lpObj$[ebp]
  021c5	0f bf 88 44 01
	00 00		 movsx	 ecx, WORD PTR [eax+324]
  021cc	89 4d ec	 mov	 DWORD PTR _x$[ebp], ecx

; 939  : 	y = lpObj->Y;

  021cf	8b 45 08	 mov	 eax, DWORD PTR _lpObj$[ebp]
  021d2	0f bf 88 46 01
	00 00		 movsx	 ecx, WORD PTR [eax+326]
  021d9	89 4d e8	 mov	 DWORD PTR _y$[ebp], ecx

; 940  : 	MapC[lpObj->MapNumber].MoneyItemDrop(100000, x, y);

  021dc	8b 45 e8	 mov	 eax, DWORD PTR _y$[ebp]
  021df	50		 push	 eax
  021e0	8b 4d ec	 mov	 ecx, DWORD PTR _x$[ebp]
  021e3	51		 push	 ecx
  021e4	68 a0 86 01 00	 push	 100000			; 000186a0H
  021e9	8b 55 08	 mov	 edx, DWORD PTR _lpObj$[ebp]
  021ec	0f b6 8a 49 01
	00 00		 movzx	 ecx, BYTE PTR [edx+329]
  021f3	69 c9 b8 3d 05
	00		 imul	 ecx, 343480		; 00053db8H
  021f9	81 c1 00 00 00
	00		 add	 ecx, OFFSET ?MapC@@3PAVMapClass@@A ; MapC
  021ff	e8 00 00 00 00	 call	 ?MoneyItemDrop@MapClass@@QAEHHHH@Z ; MapClass::MoneyItemDrop
$LN17@RingEventI:

; 941  : }

  02204	5f		 pop	 edi
  02205	5e		 pop	 esi
  02206	5b		 pop	 ebx
  02207	8b 4d fc	 mov	 ecx, DWORD PTR __$ArrayPad$[ebp]
  0220a	33 cd		 xor	 ecx, ebp
  0220c	e8 00 00 00 00	 call	 @__security_check_cookie@4
  02211	8b e5		 mov	 esp, ebp
  02213	5d		 pop	 ebp
  02214	c3		 ret	 0
?RingEventItemBoxOpen@@YAXPAUOBJECTSTRUCT@@@Z ENDP	; RingEventItemBoxOpen
_TEXT	ENDS
PUBLIC	??_C@_0FO@DJNJBHEF@?$FL?$CFs?$FN?$FL?$CFs?$FN?$FLFriendShip?5Ring?5Event?$FN?$CI@ ; `string'
PUBLIC	__$ArrayPad$
PUBLIC	?FriendShipItemBoxOpen@@YAXPAUOBJECTSTRUCT@@@Z	; FriendShipItemBoxOpen
EXTRN	?FriendShipItemBag@@3PAVCItemBag@@A:DWORD	; FriendShipItemBag
;	COMDAT ??_C@_0FO@DJNJBHEF@?$FL?$CFs?$FN?$FL?$CFs?$FN?$FLFriendShip?5Ring?5Event?$FN?$CI@
CONST	SEGMENT
??_C@_0FO@DJNJBHEF@?$FL?$CFs?$FN?$FL?$CFs?$FN?$FLFriendShip?5Ring?5Event?$FN?$CI@ DB '['
	DB	'%s][%s][FriendShip Ring Event](%d,%d,%d) ItemDrop : Item:%s %'
	DB	'd Level:%d op1:%d op2:%d op3:%d', 00H	; `string'
; Function compile flags: /Odtp /ZI
CONST	ENDS
_TEXT	SEGMENT
tv290 = -328						; size = 4
tv288 = -324						; size = 4
tv285 = -318						; size = 2
_EventItem$233540 = -252				; size = 212
_DropItemNum$ = -40					; size = 4
_Option3$ = -36						; size = 4
_Option2$ = -32						; size = 4
_Option1$ = -28						; size = 4
_y$ = -24						; size = 4
_x$ = -20						; size = 4
_level$ = -16						; size = 4
_type$ = -12						; size = 4
_dur$ = -8						; size = 4
__$ArrayPad$ = -4					; size = 4
_lpObj$ = 8						; size = 4
?FriendShipItemBoxOpen@@YAXPAUOBJECTSTRUCT@@@Z PROC	; FriendShipItemBoxOpen

; 944  : {

  02220	55		 push	 ebp
  02221	8b ec		 mov	 ebp, esp
  02223	81 ec 48 01 00
	00		 sub	 esp, 328		; 00000148H
  02229	a1 00 00 00 00	 mov	 eax, DWORD PTR ___security_cookie
  0222e	33 c5		 xor	 eax, ebp
  02230	89 45 fc	 mov	 DWORD PTR __$ArrayPad$[ebp], eax
  02233	53		 push	 ebx
  02234	56		 push	 esi
  02235	57		 push	 edi

; 945  : 	float dur;
; 946  : 	int type;
; 947  : 	int level;
; 948  : 	int x;
; 949  : 	int y;
; 950  : 	int Option1=0;

  02236	c7 45 e4 00 00
	00 00		 mov	 DWORD PTR _Option1$[ebp], 0

; 951  : 	int Option2=0;

  0223d	c7 45 e0 00 00
	00 00		 mov	 DWORD PTR _Option2$[ebp], 0

; 952  : 	int Option3=0;

  02244	c7 45 dc 00 00
	00 00		 mov	 DWORD PTR _Option3$[ebp], 0

; 953  : 	int DropItemNum;
; 954  : 
; 955  : 	if ( FriendShipItemBag->GetBagCount() > 0 ) //season 3.0 fixed

  0224b	8b 0d 00 00 00
	00		 mov	 ecx, DWORD PTR ?FriendShipItemBag@@3PAVCItemBag@@A ; FriendShipItemBag
  02251	e8 00 00 00 00	 call	 ?GetBagCount@CItemBag@@QAEHXZ ; CItemBag::GetBagCount
  02256	85 c0		 test	 eax, eax
  02258	0f 8e c1 03 00
	00		 jle	 $LN9@FriendShip

; 956  : 	{
; 957  : 		if ( true )

  0225e	b8 01 00 00 00	 mov	 eax, 1
  02263	85 c0		 test	 eax, eax
  02265	0f 84 b4 03 00
	00		 je	 $LN9@FriendShip

; 958  : 		{
; 959  : 			DropItemNum = rand()%FriendShipItemBag->GetBagCount(); //season 3.0 fixed

  0226b	e8 00 00 00 00	 call	 _rand
  02270	8b f0		 mov	 esi, eax
  02272	8b 0d 00 00 00
	00		 mov	 ecx, DWORD PTR ?FriendShipItemBag@@3PAVCItemBag@@A ; FriendShipItemBag
  02278	e8 00 00 00 00	 call	 ?GetBagCount@CItemBag@@QAEHXZ ; CItemBag::GetBagCount
  0227d	8b c8		 mov	 ecx, eax
  0227f	8b c6		 mov	 eax, esi
  02281	99		 cdq
  02282	f7 f9		 idiv	 ecx
  02284	89 55 d8	 mov	 DWORD PTR _DropItemNum$[ebp], edx

; 960  : 			dur=0;

  02287	d9 ee		 fldz
  02289	d9 5d f8	 fstp	 DWORD PTR _dur$[ebp]

; 961  : 			x = lpObj->X;

  0228c	8b 45 08	 mov	 eax, DWORD PTR _lpObj$[ebp]
  0228f	0f bf 88 44 01
	00 00		 movsx	 ecx, WORD PTR [eax+324]
  02296	89 4d ec	 mov	 DWORD PTR _x$[ebp], ecx

; 962  : 			y = lpObj->Y;

  02299	8b 45 08	 mov	 eax, DWORD PTR _lpObj$[ebp]
  0229c	0f bf 88 46 01
	00 00		 movsx	 ecx, WORD PTR [eax+326]
  022a3	89 4d e8	 mov	 DWORD PTR _y$[ebp], ecx

; 963  : 
; 964  : 			level = FriendShipItemBag->GetLevel(DropItemNum) + rand()%3; //season 3.0 fixed and changed

  022a6	8b 45 d8	 mov	 eax, DWORD PTR _DropItemNum$[ebp]
  022a9	50		 push	 eax
  022aa	8b 0d 00 00 00
	00		 mov	 ecx, DWORD PTR ?FriendShipItemBag@@3PAVCItemBag@@A ; FriendShipItemBag
  022b0	8b 11		 mov	 edx, DWORD PTR [ecx]
  022b2	8b 0d 00 00 00
	00		 mov	 ecx, DWORD PTR ?FriendShipItemBag@@3PAVCItemBag@@A ; FriendShipItemBag
  022b8	8b 42 14	 mov	 eax, DWORD PTR [edx+20]
  022bb	ff d0		 call	 eax
  022bd	0f b6 f0	 movzx	 esi, al
  022c0	e8 00 00 00 00	 call	 _rand
  022c5	99		 cdq
  022c6	b9 03 00 00 00	 mov	 ecx, 3
  022cb	f7 f9		 idiv	 ecx
  022cd	03 f2		 add	 esi, edx
  022cf	89 75 f0	 mov	 DWORD PTR _level$[ebp], esi

; 965  : 
; 966  : 			type = ItemGetNumberMake(FriendShipItemBag->GetType(DropItemNum), FriendShipItemBag->GetIndex(DropItemNum)); //season 3.0 fixed

  022d2	8b 45 d8	 mov	 eax, DWORD PTR _DropItemNum$[ebp]
  022d5	50		 push	 eax
  022d6	8b 0d 00 00 00
	00		 mov	 ecx, DWORD PTR ?FriendShipItemBag@@3PAVCItemBag@@A ; FriendShipItemBag
  022dc	8b 11		 mov	 edx, DWORD PTR [ecx]
  022de	8b 0d 00 00 00
	00		 mov	 ecx, DWORD PTR ?FriendShipItemBag@@3PAVCItemBag@@A ; FriendShipItemBag
  022e4	8b 42 10	 mov	 eax, DWORD PTR [edx+16]
  022e7	ff d0		 call	 eax
  022e9	0f b6 c8	 movzx	 ecx, al
  022ec	51		 push	 ecx
  022ed	8b 55 d8	 mov	 edx, DWORD PTR _DropItemNum$[ebp]
  022f0	52		 push	 edx
  022f1	a1 00 00 00 00	 mov	 eax, DWORD PTR ?FriendShipItemBag@@3PAVCItemBag@@A ; FriendShipItemBag
  022f6	8b 10		 mov	 edx, DWORD PTR [eax]
  022f8	8b 0d 00 00 00
	00		 mov	 ecx, DWORD PTR ?FriendShipItemBag@@3PAVCItemBag@@A ; FriendShipItemBag
  022fe	8b 42 0c	 mov	 eax, DWORD PTR [edx+12]
  02301	ff d0		 call	 eax
  02303	0f b6 c8	 movzx	 ecx, al
  02306	51		 push	 ecx
  02307	e8 00 00 00 00	 call	 ?ItemGetNumberMake@@YAHHH@Z ; ItemGetNumberMake
  0230c	83 c4 08	 add	 esp, 8
  0230f	89 45 f4	 mov	 DWORD PTR _type$[ebp], eax

; 967  : 			Option1 = 1;

  02312	c7 45 e4 01 00
	00 00		 mov	 DWORD PTR _Option1$[ebp], 1

; 968  : 			Option2 = rand()%2;

  02319	e8 00 00 00 00	 call	 _rand
  0231e	25 01 00 00 80	 and	 eax, -2147483647	; 80000001H
  02323	79 05		 jns	 SHORT $LN13@FriendShip
  02325	48		 dec	 eax
  02326	83 c8 fe	 or	 eax, -2			; fffffffeH
  02329	40		 inc	 eax
$LN13@FriendShip:
  0232a	89 45 e0	 mov	 DWORD PTR _Option2$[ebp], eax

; 969  : 
; 970  : 			if ( (rand()%5) <1 )

  0232d	e8 00 00 00 00	 call	 _rand
  02332	99		 cdq
  02333	b9 05 00 00 00	 mov	 ecx, 5
  02338	f7 f9		 idiv	 ecx
  0233a	83 fa 01	 cmp	 edx, 1
  0233d	7d 09		 jge	 SHORT $LN8@FriendShip

; 971  : 				Option3 = 3;

  0233f	c7 45 dc 03 00
	00 00		 mov	 DWORD PTR _Option3$[ebp], 3

; 972  : 			else

  02346	eb 10		 jmp	 SHORT $LN7@FriendShip
$LN8@FriendShip:

; 973  : 				Option3 = rand()%3;

  02348	e8 00 00 00 00	 call	 _rand
  0234d	99		 cdq
  0234e	b9 03 00 00 00	 mov	 ecx, 3
  02353	f7 f9		 idiv	 ecx
  02355	89 55 dc	 mov	 DWORD PTR _Option3$[ebp], edx
$LN7@FriendShip:

; 974  : 
; 975  : 			if ( type == ITEMGET(12,15) ||
; 976  : 				 type == ITEMGET(14,13) ||
; 977  : 				 type == ITEMGET(14,14) ||
; 978  : 				 type == ITEMGET(14,14) ||
; 979  : 				 type == ITEMGET(14,16)	||
; 980  : 				 type == ITEMGET(14,22)	||
; 981  : 				 type == ITEMGET(14,31)	||
; 982  : 				 type == ITEMGET(14,41)	||
; 983  : 				 type == ITEMGET(14,42)	||
; 984  : 				 type == ITEMGET(14,180)||
; 985  : 				 type == ITEMGET(14,181)||
; 986  : 				 type == ITEMGET(14,182)||
; 987  : 				 type == ITEMGET(14,183)||
; 988  : 				 type == ITEMGET(14,184)||
; 989  : 				 type == ITEMGET(14,185)||
; 990  : 				 type == ITEMGET(14,186)||
; 991  : 				 type == ITEMGET(14,187)||
; 992  : 				 type == ITEMGET(14,190)||
; 993  : 				 type == ITEMGET(14,43) ||
; 994  : 				 type == ITEMGET(14,44) )

  02358	81 7d f4 0f 18
	00 00		 cmp	 DWORD PTR _type$[ebp], 6159 ; 0000180fH
  0235f	0f 84 bb 00 00
	00		 je	 $LN5@FriendShip
  02365	81 7d f4 0d 1c
	00 00		 cmp	 DWORD PTR _type$[ebp], 7181 ; 00001c0dH
  0236c	0f 84 ae 00 00
	00		 je	 $LN5@FriendShip
  02372	81 7d f4 0e 1c
	00 00		 cmp	 DWORD PTR _type$[ebp], 7182 ; 00001c0eH
  02379	0f 84 a1 00 00
	00		 je	 $LN5@FriendShip
  0237f	81 7d f4 0e 1c
	00 00		 cmp	 DWORD PTR _type$[ebp], 7182 ; 00001c0eH
  02386	0f 84 94 00 00
	00		 je	 $LN5@FriendShip
  0238c	81 7d f4 10 1c
	00 00		 cmp	 DWORD PTR _type$[ebp], 7184 ; 00001c10H
  02393	0f 84 87 00 00
	00		 je	 $LN5@FriendShip
  02399	81 7d f4 16 1c
	00 00		 cmp	 DWORD PTR _type$[ebp], 7190 ; 00001c16H
  023a0	74 7e		 je	 SHORT $LN5@FriendShip
  023a2	81 7d f4 1f 1c
	00 00		 cmp	 DWORD PTR _type$[ebp], 7199 ; 00001c1fH
  023a9	74 75		 je	 SHORT $LN5@FriendShip
  023ab	81 7d f4 29 1c
	00 00		 cmp	 DWORD PTR _type$[ebp], 7209 ; 00001c29H
  023b2	74 6c		 je	 SHORT $LN5@FriendShip
  023b4	81 7d f4 2a 1c
	00 00		 cmp	 DWORD PTR _type$[ebp], 7210 ; 00001c2aH
  023bb	74 63		 je	 SHORT $LN5@FriendShip
  023bd	81 7d f4 b4 1c
	00 00		 cmp	 DWORD PTR _type$[ebp], 7348 ; 00001cb4H
  023c4	74 5a		 je	 SHORT $LN5@FriendShip
  023c6	81 7d f4 b5 1c
	00 00		 cmp	 DWORD PTR _type$[ebp], 7349 ; 00001cb5H
  023cd	74 51		 je	 SHORT $LN5@FriendShip
  023cf	81 7d f4 b6 1c
	00 00		 cmp	 DWORD PTR _type$[ebp], 7350 ; 00001cb6H
  023d6	74 48		 je	 SHORT $LN5@FriendShip
  023d8	81 7d f4 b7 1c
	00 00		 cmp	 DWORD PTR _type$[ebp], 7351 ; 00001cb7H
  023df	74 3f		 je	 SHORT $LN5@FriendShip
  023e1	81 7d f4 b8 1c
	00 00		 cmp	 DWORD PTR _type$[ebp], 7352 ; 00001cb8H
  023e8	74 36		 je	 SHORT $LN5@FriendShip
  023ea	81 7d f4 b9 1c
	00 00		 cmp	 DWORD PTR _type$[ebp], 7353 ; 00001cb9H
  023f1	74 2d		 je	 SHORT $LN5@FriendShip
  023f3	81 7d f4 ba 1c
	00 00		 cmp	 DWORD PTR _type$[ebp], 7354 ; 00001cbaH
  023fa	74 24		 je	 SHORT $LN5@FriendShip
  023fc	81 7d f4 bb 1c
	00 00		 cmp	 DWORD PTR _type$[ebp], 7355 ; 00001cbbH
  02403	74 1b		 je	 SHORT $LN5@FriendShip
  02405	81 7d f4 be 1c
	00 00		 cmp	 DWORD PTR _type$[ebp], 7358 ; 00001cbeH
  0240c	74 12		 je	 SHORT $LN5@FriendShip
  0240e	81 7d f4 2b 1c
	00 00		 cmp	 DWORD PTR _type$[ebp], 7211 ; 00001c2bH
  02415	74 09		 je	 SHORT $LN5@FriendShip
  02417	81 7d f4 2c 1c
	00 00		 cmp	 DWORD PTR _type$[ebp], 7212 ; 00001c2cH
  0241e	75 1c		 jne	 SHORT $LN6@FriendShip
$LN5@FriendShip:

; 995  : 			{
; 996  : 				Option1 = 0;

  02420	c7 45 e4 00 00
	00 00		 mov	 DWORD PTR _Option1$[ebp], 0

; 997  : 				Option2 = 0;

  02427	c7 45 e0 00 00
	00 00		 mov	 DWORD PTR _Option2$[ebp], 0

; 998  : 				Option3 = 0;

  0242e	c7 45 dc 00 00
	00 00		 mov	 DWORD PTR _Option3$[ebp], 0

; 999  : 				level = 0;

  02435	c7 45 f0 00 00
	00 00		 mov	 DWORD PTR _level$[ebp], 0
$LN6@FriendShip:

; 1000 : 			}
; 1001 : 
; 1002 : 			if ( type == ITEMGET(12,30)	||
; 1003 : 				 type == ITEMGET(12,31)	||
; 1004 : 				 type == ITEMGET(12,136)||
; 1005 : 				 type == ITEMGET(12,137)||
; 1006 : 				 type == ITEMGET(12,138)||
; 1007 : 				 type == ITEMGET(12,139)||
; 1008 : 				 type == ITEMGET(12,140)||
; 1009 : 				 type == ITEMGET(12,141)||
; 1010 : 				 type == ITEMGET(12,142)||
; 1011 : 				 type == ITEMGET(12,143))

  0243c	81 7d f4 1e 18
	00 00		 cmp	 DWORD PTR _type$[ebp], 6174 ; 0000181eH
  02443	74 51		 je	 SHORT $LN3@FriendShip
  02445	81 7d f4 1f 18
	00 00		 cmp	 DWORD PTR _type$[ebp], 6175 ; 0000181fH
  0244c	74 48		 je	 SHORT $LN3@FriendShip
  0244e	81 7d f4 88 18
	00 00		 cmp	 DWORD PTR _type$[ebp], 6280 ; 00001888H
  02455	74 3f		 je	 SHORT $LN3@FriendShip
  02457	81 7d f4 89 18
	00 00		 cmp	 DWORD PTR _type$[ebp], 6281 ; 00001889H
  0245e	74 36		 je	 SHORT $LN3@FriendShip
  02460	81 7d f4 8a 18
	00 00		 cmp	 DWORD PTR _type$[ebp], 6282 ; 0000188aH
  02467	74 2d		 je	 SHORT $LN3@FriendShip
  02469	81 7d f4 8b 18
	00 00		 cmp	 DWORD PTR _type$[ebp], 6283 ; 0000188bH
  02470	74 24		 je	 SHORT $LN3@FriendShip
  02472	81 7d f4 8c 18
	00 00		 cmp	 DWORD PTR _type$[ebp], 6284 ; 0000188cH
  02479	74 1b		 je	 SHORT $LN3@FriendShip
  0247b	81 7d f4 8d 18
	00 00		 cmp	 DWORD PTR _type$[ebp], 6285 ; 0000188dH
  02482	74 12		 je	 SHORT $LN3@FriendShip
  02484	81 7d f4 8e 18
	00 00		 cmp	 DWORD PTR _type$[ebp], 6286 ; 0000188eH
  0248b	74 09		 je	 SHORT $LN3@FriendShip
  0248d	81 7d f4 8f 18
	00 00		 cmp	 DWORD PTR _type$[ebp], 6287 ; 0000188fH
  02494	75 32		 jne	 SHORT $LN4@FriendShip
$LN3@FriendShip:

; 1012 : 			{
; 1013 : 				Option1 = 0;

  02496	c7 45 e4 00 00
	00 00		 mov	 DWORD PTR _Option1$[ebp], 0

; 1014 : 				Option2 = 0;

  0249d	c7 45 e0 00 00
	00 00		 mov	 DWORD PTR _Option2$[ebp], 0

; 1015 : 				Option3 = 0;

  024a4	c7 45 dc 00 00
	00 00		 mov	 DWORD PTR _Option3$[ebp], 0

; 1016 : 				level = FriendShipItemBag->GetLevel(DropItemNum);

  024ab	8b 45 d8	 mov	 eax, DWORD PTR _DropItemNum$[ebp]
  024ae	50		 push	 eax
  024af	8b 0d 00 00 00
	00		 mov	 ecx, DWORD PTR ?FriendShipItemBag@@3PAVCItemBag@@A ; FriendShipItemBag
  024b5	8b 11		 mov	 edx, DWORD PTR [ecx]
  024b7	8b 0d 00 00 00
	00		 mov	 ecx, DWORD PTR ?FriendShipItemBag@@3PAVCItemBag@@A ; FriendShipItemBag
  024bd	8b 42 14	 mov	 eax, DWORD PTR [edx+20]
  024c0	ff d0		 call	 eax
  024c2	0f b6 c8	 movzx	 ecx, al
  024c5	89 4d f0	 mov	 DWORD PTR _level$[ebp], ecx
$LN4@FriendShip:

; 1017 : 			}
; 1018 : 
; 1019 : 			if ( type == ITEMGET(13,0) ||
; 1020 : 				 type == ITEMGET(13,1) ||
; 1021 : 				 type == ITEMGET(13,2) ||
; 1022 : 				 type == ITEMGET(13,8) ||
; 1023 : 				 type == ITEMGET(13,9) ||
; 1024 : 				 type == ITEMGET(13,12) ||
; 1025 : 				 type == ITEMGET(13,13) )

  024c8	81 7d f4 00 1a
	00 00		 cmp	 DWORD PTR _type$[ebp], 6656 ; 00001a00H
  024cf	74 36		 je	 SHORT $LN1@FriendShip
  024d1	81 7d f4 01 1a
	00 00		 cmp	 DWORD PTR _type$[ebp], 6657 ; 00001a01H
  024d8	74 2d		 je	 SHORT $LN1@FriendShip
  024da	81 7d f4 02 1a
	00 00		 cmp	 DWORD PTR _type$[ebp], 6658 ; 00001a02H
  024e1	74 24		 je	 SHORT $LN1@FriendShip
  024e3	81 7d f4 08 1a
	00 00		 cmp	 DWORD PTR _type$[ebp], 6664 ; 00001a08H
  024ea	74 1b		 je	 SHORT $LN1@FriendShip
  024ec	81 7d f4 09 1a
	00 00		 cmp	 DWORD PTR _type$[ebp], 6665 ; 00001a09H
  024f3	74 12		 je	 SHORT $LN1@FriendShip
  024f5	81 7d f4 0c 1a
	00 00		 cmp	 DWORD PTR _type$[ebp], 6668 ; 00001a0cH
  024fc	74 09		 je	 SHORT $LN1@FriendShip
  024fe	81 7d f4 0d 1a
	00 00		 cmp	 DWORD PTR _type$[ebp], 6669 ; 00001a0dH
  02505	75 07		 jne	 SHORT $LN2@FriendShip
$LN1@FriendShip:

; 1026 : 			{
; 1027 : 				level = 0;

  02507	c7 45 f0 00 00
	00 00		 mov	 DWORD PTR _level$[ebp], 0
$LN2@FriendShip:

; 1028 : 			}
; 1029 : 
; 1030 : 			ItemSerialCreateSend(lpObj->m_Index, (BYTE)lpObj->MapNumber, (BYTE)x, (BYTE)y, type, (BYTE)level, (BYTE)dur, (BYTE)Option1, (BYTE)Option2, (BYTE)Option3, lpObj->m_Index, 0, 0);

  0250e	6a 00		 push	 0
  02510	6a 00		 push	 0
  02512	8b 45 08	 mov	 eax, DWORD PTR _lpObj$[ebp]
  02515	8b 08		 mov	 ecx, DWORD PTR [eax]
  02517	51		 push	 ecx
  02518	0f b6 55 dc	 movzx	 edx, BYTE PTR _Option3$[ebp]
  0251c	52		 push	 edx
  0251d	0f b6 45 e0	 movzx	 eax, BYTE PTR _Option2$[ebp]
  02521	50		 push	 eax
  02522	0f b6 4d e4	 movzx	 ecx, BYTE PTR _Option1$[ebp]
  02526	51		 push	 ecx
  02527	d9 45 f8	 fld	 DWORD PTR _dur$[ebp]
  0252a	d9 bd c2 fe ff
	ff		 fnstcw	 WORD PTR tv285[ebp]
  02530	0f b7 85 c2 fe
	ff ff		 movzx	 eax, WORD PTR tv285[ebp]
  02537	0d 00 0c 00 00	 or	 eax, 3072		; 00000c00H
  0253c	89 85 bc fe ff
	ff		 mov	 DWORD PTR tv288[ebp], eax
  02542	d9 ad bc fe ff
	ff		 fldcw	 WORD PTR tv288[ebp]
  02548	db 9d b8 fe ff
	ff		 fistp	 DWORD PTR tv290[ebp]
  0254e	d9 ad c2 fe ff
	ff		 fldcw	 WORD PTR tv285[ebp]
  02554	0f b6 95 b8 fe
	ff ff		 movzx	 edx, BYTE PTR tv290[ebp]
  0255b	52		 push	 edx
  0255c	0f b6 45 f0	 movzx	 eax, BYTE PTR _level$[ebp]
  02560	50		 push	 eax
  02561	8b 4d f4	 mov	 ecx, DWORD PTR _type$[ebp]
  02564	51		 push	 ecx
  02565	0f b6 55 e8	 movzx	 edx, BYTE PTR _y$[ebp]
  02569	52		 push	 edx
  0256a	0f b6 45 ec	 movzx	 eax, BYTE PTR _x$[ebp]
  0256e	50		 push	 eax
  0256f	8b 4d 08	 mov	 ecx, DWORD PTR _lpObj$[ebp]
  02572	0f b6 91 49 01
	00 00		 movzx	 edx, BYTE PTR [ecx+329]
  02579	52		 push	 edx
  0257a	8b 45 08	 mov	 eax, DWORD PTR _lpObj$[ebp]
  0257d	8b 08		 mov	 ecx, DWORD PTR [eax]
  0257f	51		 push	 ecx
  02580	e8 00 00 00 00	 call	 ?ItemSerialCreateSend@@YAXHEEEHEEEEEHEE@Z ; ItemSerialCreateSend
  02585	83 c4 34	 add	 esp, 52			; 00000034H

; 1031 : 
; 1032 : 			CItem EventItem;

  02588	8d 8d 04 ff ff
	ff		 lea	 ecx, DWORD PTR _EventItem$233540[ebp]
  0258e	e8 00 00 00 00	 call	 ??0CItem@@QAE@XZ	; CItem::CItem

; 1033 : 
; 1034 : 			EventItem.Convert(type, Option1, Option2, Option3, 0, 1, 0, NULL, 0xFF, 0, 3);

  02593	6a 03		 push	 3
  02595	6a 00		 push	 0
  02597	68 ff 00 00 00	 push	 255			; 000000ffH
  0259c	6a 00		 push	 0
  0259e	6a 00		 push	 0
  025a0	6a 01		 push	 1
  025a2	6a 00		 push	 0
  025a4	0f b6 45 dc	 movzx	 eax, BYTE PTR _Option3$[ebp]
  025a8	50		 push	 eax
  025a9	0f b6 4d e0	 movzx	 ecx, BYTE PTR _Option2$[ebp]
  025ad	51		 push	 ecx
  025ae	0f b6 55 e4	 movzx	 edx, BYTE PTR _Option1$[ebp]
  025b2	52		 push	 edx
  025b3	8b 45 f4	 mov	 eax, DWORD PTR _type$[ebp]
  025b6	50		 push	 eax
  025b7	8d 8d 04 ff ff
	ff		 lea	 ecx, DWORD PTR _EventItem$233540[ebp]
  025bd	e8 00 00 00 00	 call	 ?Convert@CItem@@QAEXHEEEEEEPAEEEE@Z ; CItem::Convert

; 1035 : 
; 1036 : 			LogAddTD("[%s][%s][FriendShip Ring Event](%d,%d,%d) ItemDrop : Item:%s %d Level:%d op1:%d op2:%d op3:%d", lpObj->AccountID, lpObj->Name, lpObj->MapNumber, lpObj->X, lpObj->Y, EventItem.GetName(), type, level, Option1, Option2, Option3);

  025c2	8b 45 dc	 mov	 eax, DWORD PTR _Option3$[ebp]
  025c5	50		 push	 eax
  025c6	8b 4d e0	 mov	 ecx, DWORD PTR _Option2$[ebp]
  025c9	51		 push	 ecx
  025ca	8b 55 e4	 mov	 edx, DWORD PTR _Option1$[ebp]
  025cd	52		 push	 edx
  025ce	8b 45 f0	 mov	 eax, DWORD PTR _level$[ebp]
  025d1	50		 push	 eax
  025d2	8b 4d f4	 mov	 ecx, DWORD PTR _type$[ebp]
  025d5	51		 push	 ecx
  025d6	8d 8d 04 ff ff
	ff		 lea	 ecx, DWORD PTR _EventItem$233540[ebp]
  025dc	e8 00 00 00 00	 call	 ?GetName@CItem@@QAEPADXZ ; CItem::GetName
  025e1	50		 push	 eax
  025e2	8b 55 08	 mov	 edx, DWORD PTR _lpObj$[ebp]
  025e5	0f bf 82 46 01
	00 00		 movsx	 eax, WORD PTR [edx+326]
  025ec	50		 push	 eax
  025ed	8b 4d 08	 mov	 ecx, DWORD PTR _lpObj$[ebp]
  025f0	0f bf 91 44 01
	00 00		 movsx	 edx, WORD PTR [ecx+324]
  025f7	52		 push	 edx
  025f8	8b 45 08	 mov	 eax, DWORD PTR _lpObj$[ebp]
  025fb	0f b6 88 49 01
	00 00		 movzx	 ecx, BYTE PTR [eax+329]
  02602	51		 push	 ecx
  02603	8b 55 08	 mov	 edx, DWORD PTR _lpObj$[ebp]
  02606	83 c2 77	 add	 edx, 119		; 00000077H
  02609	52		 push	 edx
  0260a	8b 45 08	 mov	 eax, DWORD PTR _lpObj$[ebp]
  0260d	83 c0 6c	 add	 eax, 108		; 0000006cH
  02610	50		 push	 eax
  02611	68 00 00 00 00	 push	 OFFSET ??_C@_0FO@DJNJBHEF@?$FL?$CFs?$FN?$FL?$CFs?$FN?$FLFriendShip?5Ring?5Event?$FN?$CI@
  02616	ff 15 00 00 00
	00		 call	 DWORD PTR ?LogAddTD@@3P6AXPADZZA ; LogAddTD
  0261c	83 c4 30	 add	 esp, 48			; 00000030H
$LN9@FriendShip:

; 1037 : 			return;
; 1038 : 		}
; 1039 : 	}
; 1040 : }

  0261f	5f		 pop	 edi
  02620	5e		 pop	 esi
  02621	5b		 pop	 ebx
  02622	8b 4d fc	 mov	 ecx, DWORD PTR __$ArrayPad$[ebp]
  02625	33 cd		 xor	 ecx, ebp
  02627	e8 00 00 00 00	 call	 @__security_check_cookie@4
  0262c	8b e5		 mov	 esp, ebp
  0262e	5d		 pop	 ebp
  0262f	c3		 ret	 0
?FriendShipItemBoxOpen@@YAXPAUOBJECTSTRUCT@@@Z ENDP	; FriendShipItemBoxOpen
_TEXT	ENDS
PUBLIC	??_C@_0GK@MCOFOKEO@?$FL?$CFs?$FN?$FL?$CFs?$FN?$FLLucky?5Box?5Item?5Drop?$FN?$FLDa@ ; `string'
PUBLIC	?EGReqRegDLOfflineGift@@YAXH@Z			; EGReqRegDLOfflineGift
PUBLIC	__$ArrayPad$
PUBLIC	?DarkLordHeartItemBoxOpen@@YAXPAUOBJECTSTRUCT@@@Z ; DarkLordHeartItemBoxOpen
EXTRN	?DarkLordHeartItemBag@@3PAVCItemBag@@A:DWORD	; DarkLordHeartItemBag
EXTRN	?g_iDarkLordHeartOffEventRate@@3HA:DWORD	; g_iDarkLordHeartOffEventRate
;	COMDAT ??_C@_0GK@MCOFOKEO@?$FL?$CFs?$FN?$FL?$CFs?$FN?$FLLucky?5Box?5Item?5Drop?$FN?$FLDa@
CONST	SEGMENT
??_C@_0GK@MCOFOKEO@?$FL?$CFs?$FN?$FL?$CFs?$FN?$FLLucky?5Box?5Item?5Drop?$FN?$FLDa@ DB '['
	DB	'%s][%s][Lucky Box Item Drop][Darklord Heart] : (%d)(X:%d/Y:%d'
	DB	') Item:%s(%d) Level:%d Op1:%d Op2:%d Op3:%d', 00H ; `string'
; Function compile flags: /Odtp /ZI
CONST	ENDS
_TEXT	SEGMENT
tv344 = -336						; size = 4
tv342 = -332						; size = 4
tv339 = -326						; size = 2
_EventItem$233582 = -260				; size = 212
_rnd$233561 = -48					; size = 4
_DropItemRate$ = -44					; size = 4
_DropItemNum$ = -40					; size = 4
_Option3$ = -36						; size = 4
_Option2$ = -32						; size = 4
_Option1$ = -28						; size = 4
_y$ = -24						; size = 4
_x$ = -20						; size = 4
_level$ = -16						; size = 4
_type$ = -12						; size = 4
_dur$ = -8						; size = 4
__$ArrayPad$ = -4					; size = 4
_lpObj$ = 8						; size = 4
?DarkLordHeartItemBoxOpen@@YAXPAUOBJECTSTRUCT@@@Z PROC	; DarkLordHeartItemBoxOpen

; 1043 : {

  02630	55		 push	 ebp
  02631	8b ec		 mov	 ebp, esp
  02633	81 ec 50 01 00
	00		 sub	 esp, 336		; 00000150H
  02639	a1 00 00 00 00	 mov	 eax, DWORD PTR ___security_cookie
  0263e	33 c5		 xor	 eax, ebp
  02640	89 45 fc	 mov	 DWORD PTR __$ArrayPad$[ebp], eax
  02643	53		 push	 ebx
  02644	56		 push	 esi
  02645	57		 push	 edi

; 1044 : 	float dur;
; 1045 : 	int type;
; 1046 : 	int level;
; 1047 : 	int x;
; 1048 : 	int y;
; 1049 : 	int Option1=0;

  02646	c7 45 e4 00 00
	00 00		 mov	 DWORD PTR _Option1$[ebp], 0

; 1050 : 	int Option2=0;

  0264d	c7 45 e0 00 00
	00 00		 mov	 DWORD PTR _Option2$[ebp], 0

; 1051 : 	int Option3=0;

  02654	c7 45 dc 00 00
	00 00		 mov	 DWORD PTR _Option3$[ebp], 0

; 1052 : 	int DropItemNum;
; 1053 : 	int DropItemRate = 0;

  0265b	c7 45 d4 00 00
	00 00		 mov	 DWORD PTR _DropItemRate$[ebp], 0

; 1054 : 
; 1055 : 	if ( ((DWORD)rand()%60000) < (DWORD)g_iDarkLordHeartOffEventRate )	

  02662	e8 00 00 00 00	 call	 _rand
  02667	33 d2		 xor	 edx, edx
  02669	b9 60 ea 00 00	 mov	 ecx, 60000		; 0000ea60H
  0266e	f7 f1		 div	 ecx
  02670	3b 15 00 00 00
	00		 cmp	 edx, DWORD PTR ?g_iDarkLordHeartOffEventRate@@3HA ; g_iDarkLordHeartOffEventRate
  02676	73 22		 jae	 SHORT $LN16@DarkLordHe

; 1056 : 	{
; 1057 : 		if ( lpObj->Level > 100 )

  02678	8b 45 08	 mov	 eax, DWORD PTR _lpObj$[ebp]
  0267b	0f bf 88 be 00
	00 00		 movsx	 ecx, WORD PTR [eax+190]
  02682	83 f9 64	 cmp	 ecx, 100		; 00000064H
  02685	7e 05		 jle	 SHORT $LN15@DarkLordHe

; 1058 : 		{
; 1059 : 			return;

  02687	e9 7e 04 00 00	 jmp	 $LN17@DarkLordHe
$LN15@DarkLordHe:

; 1060 : 		}
; 1061 : 
; 1062 : 		EGReqRegDLOfflineGift(lpObj->m_Index);

  0268c	8b 45 08	 mov	 eax, DWORD PTR _lpObj$[ebp]
  0268f	8b 08		 mov	 ecx, DWORD PTR [eax]
  02691	51		 push	 ecx
  02692	e8 00 00 00 00	 call	 ?EGReqRegDLOfflineGift@@YAXH@Z ; EGReqRegDLOfflineGift
  02697	83 c4 04	 add	 esp, 4
$LN16@DarkLordHe:

; 1063 : 	}
; 1064 : 	
; 1065 : 	if ( DarkLordHeartItemBag->GetBagCount() > 0 )

  0269a	8b 0d 00 00 00
	00		 mov	 ecx, DWORD PTR ?DarkLordHeartItemBag@@3PAVCItemBag@@A ; DarkLordHeartItemBag
  026a0	e8 00 00 00 00	 call	 ?GetBagCount@CItemBag@@QAEHXZ ; CItemBag::GetBagCount
  026a5	85 c0		 test	 eax, eax
  026a7	0f 8e 1b 04 00
	00		 jle	 $LN13@DarkLordHe

; 1066 : 	{
; 1067 : 	
; 1068 : 		DropItemNum = rand()%DarkLordHeartItemBag->GetBagCount();

  026ad	e8 00 00 00 00	 call	 _rand
  026b2	8b f0		 mov	 esi, eax
  026b4	8b 0d 00 00 00
	00		 mov	 ecx, DWORD PTR ?DarkLordHeartItemBag@@3PAVCItemBag@@A ; DarkLordHeartItemBag
  026ba	e8 00 00 00 00	 call	 ?GetBagCount@CItemBag@@QAEHXZ ; CItemBag::GetBagCount
  026bf	8b c8		 mov	 ecx, eax
  026c1	8b c6		 mov	 eax, esi
  026c3	99		 cdq
  026c4	f7 f9		 idiv	 ecx
  026c6	89 55 d8	 mov	 DWORD PTR _DropItemNum$[ebp], edx

; 1069 : 		DropItemRate = DarkLordHeartItemBag->GetOp1(DropItemNum);

  026c9	8b 45 d8	 mov	 eax, DWORD PTR _DropItemNum$[ebp]
  026cc	50		 push	 eax
  026cd	8b 0d 00 00 00
	00		 mov	 ecx, DWORD PTR ?DarkLordHeartItemBag@@3PAVCItemBag@@A ; DarkLordHeartItemBag
  026d3	8b 11		 mov	 edx, DWORD PTR [ecx]
  026d5	8b 0d 00 00 00
	00		 mov	 ecx, DWORD PTR ?DarkLordHeartItemBag@@3PAVCItemBag@@A ; DarkLordHeartItemBag
  026db	8b 42 18	 mov	 eax, DWORD PTR [edx+24]
  026de	ff d0		 call	 eax
  026e0	0f b6 c8	 movzx	 ecx, al
  026e3	89 4d d4	 mov	 DWORD PTR _DropItemRate$[ebp], ecx

; 1070 : 
; 1071 : 		if ( (rand()%100) < DropItemRate && lpObj->Level <= 100 )

  026e6	e8 00 00 00 00	 call	 _rand
  026eb	99		 cdq
  026ec	b9 64 00 00 00	 mov	 ecx, 100		; 00000064H
  026f1	f7 f9		 idiv	 ecx
  026f3	3b 55 d4	 cmp	 edx, DWORD PTR _DropItemRate$[ebp]
  026f6	0f 8d cc 03 00
	00		 jge	 $LN13@DarkLordHe
  026fc	8b 45 08	 mov	 eax, DWORD PTR _lpObj$[ebp]
  026ff	0f bf 88 be 00
	00 00		 movsx	 ecx, WORD PTR [eax+190]
  02706	83 f9 64	 cmp	 ecx, 100		; 00000064H
  02709	0f 8f b9 03 00
	00		 jg	 $LN13@DarkLordHe

; 1072 : 		{
; 1073 : 			level = DarkLordHeartItemBag->GetLevel(DropItemNum);

  0270f	8b 45 d8	 mov	 eax, DWORD PTR _DropItemNum$[ebp]
  02712	50		 push	 eax
  02713	8b 0d 00 00 00
	00		 mov	 ecx, DWORD PTR ?DarkLordHeartItemBag@@3PAVCItemBag@@A ; DarkLordHeartItemBag
  02719	8b 11		 mov	 edx, DWORD PTR [ecx]
  0271b	8b 0d 00 00 00
	00		 mov	 ecx, DWORD PTR ?DarkLordHeartItemBag@@3PAVCItemBag@@A ; DarkLordHeartItemBag
  02721	8b 42 14	 mov	 eax, DWORD PTR [edx+20]
  02724	ff d0		 call	 eax
  02726	0f b6 c8	 movzx	 ecx, al
  02729	89 4d f0	 mov	 DWORD PTR _level$[ebp], ecx

; 1074 : 			dur=0;

  0272c	d9 ee		 fldz
  0272e	d9 5d f8	 fstp	 DWORD PTR _dur$[ebp]

; 1075 : 			x = lpObj->X;

  02731	8b 45 08	 mov	 eax, DWORD PTR _lpObj$[ebp]
  02734	0f bf 88 44 01
	00 00		 movsx	 ecx, WORD PTR [eax+324]
  0273b	89 4d ec	 mov	 DWORD PTR _x$[ebp], ecx

; 1076 : 			y = lpObj->Y;

  0273e	8b 45 08	 mov	 eax, DWORD PTR _lpObj$[ebp]
  02741	0f bf 88 46 01
	00 00		 movsx	 ecx, WORD PTR [eax+326]
  02748	89 4d e8	 mov	 DWORD PTR _y$[ebp], ecx

; 1077 : 			
; 1078 : 			type = ItemGetNumberMake(DarkLordHeartItemBag->GetType(DropItemNum), DarkLordHeartItemBag->GetIndex(DropItemNum));

  0274b	8b 45 d8	 mov	 eax, DWORD PTR _DropItemNum$[ebp]
  0274e	50		 push	 eax
  0274f	8b 0d 00 00 00
	00		 mov	 ecx, DWORD PTR ?DarkLordHeartItemBag@@3PAVCItemBag@@A ; DarkLordHeartItemBag
  02755	8b 11		 mov	 edx, DWORD PTR [ecx]
  02757	8b 0d 00 00 00
	00		 mov	 ecx, DWORD PTR ?DarkLordHeartItemBag@@3PAVCItemBag@@A ; DarkLordHeartItemBag
  0275d	8b 42 10	 mov	 eax, DWORD PTR [edx+16]
  02760	ff d0		 call	 eax
  02762	0f b6 c8	 movzx	 ecx, al
  02765	51		 push	 ecx
  02766	8b 55 d8	 mov	 edx, DWORD PTR _DropItemNum$[ebp]
  02769	52		 push	 edx
  0276a	a1 00 00 00 00	 mov	 eax, DWORD PTR ?DarkLordHeartItemBag@@3PAVCItemBag@@A ; DarkLordHeartItemBag
  0276f	8b 10		 mov	 edx, DWORD PTR [eax]
  02771	8b 0d 00 00 00
	00		 mov	 ecx, DWORD PTR ?DarkLordHeartItemBag@@3PAVCItemBag@@A ; DarkLordHeartItemBag
  02777	8b 42 0c	 mov	 eax, DWORD PTR [edx+12]
  0277a	ff d0		 call	 eax
  0277c	0f b6 c8	 movzx	 ecx, al
  0277f	51		 push	 ecx
  02780	e8 00 00 00 00	 call	 ?ItemGetNumberMake@@YAHHH@Z ; ItemGetNumberMake
  02785	83 c4 08	 add	 esp, 8
  02788	89 45 f4	 mov	 DWORD PTR _type$[ebp], eax

; 1079 : 			Option1 = ((rand()%100)>=70)?0:1;

  0278b	e8 00 00 00 00	 call	 _rand
  02790	99		 cdq
  02791	b9 64 00 00 00	 mov	 ecx, 100		; 00000064H
  02796	f7 f9		 idiv	 ecx
  02798	33 c0		 xor	 eax, eax
  0279a	83 fa 46	 cmp	 edx, 70			; 00000046H
  0279d	0f 9c c0	 setl	 al
  027a0	89 45 e4	 mov	 DWORD PTR _Option1$[ebp], eax

; 1080 : 			Option2 = ((rand()%100)>=10)?0:1;

  027a3	e8 00 00 00 00	 call	 _rand
  027a8	99		 cdq
  027a9	b9 64 00 00 00	 mov	 ecx, 100		; 00000064H
  027ae	f7 f9		 idiv	 ecx
  027b0	33 c0		 xor	 eax, eax
  027b2	83 fa 0a	 cmp	 edx, 10			; 0000000aH
  027b5	0f 9c c0	 setl	 al
  027b8	89 45 e0	 mov	 DWORD PTR _Option2$[ebp], eax

; 1081 : 			int rnd = rand()%20;

  027bb	e8 00 00 00 00	 call	 _rand
  027c0	99		 cdq
  027c1	b9 14 00 00 00	 mov	 ecx, 20			; 00000014H
  027c6	f7 f9		 idiv	 ecx
  027c8	89 55 d0	 mov	 DWORD PTR _rnd$233561[ebp], edx

; 1082 : 
; 1083 : 			if ( rnd < 1 )

  027cb	83 7d d0 01	 cmp	 DWORD PTR _rnd$233561[ebp], 1
  027cf	7d 09		 jge	 SHORT $LN12@DarkLordHe

; 1084 : 				Option3 = 3;

  027d1	c7 45 dc 03 00
	00 00		 mov	 DWORD PTR _Option3$[ebp], 3
  027d8	eb 25		 jmp	 SHORT $LN7@DarkLordHe
$LN12@DarkLordHe:

; 1085 : 			else if ( rnd < 5 )

  027da	83 7d d0 05	 cmp	 DWORD PTR _rnd$233561[ebp], 5
  027de	7d 09		 jge	 SHORT $LN10@DarkLordHe

; 1086 : 				Option3 = 2;

  027e0	c7 45 dc 02 00
	00 00		 mov	 DWORD PTR _Option3$[ebp], 2
  027e7	eb 16		 jmp	 SHORT $LN7@DarkLordHe
$LN10@DarkLordHe:

; 1087 : 			else if ( rnd < 9 )

  027e9	83 7d d0 09	 cmp	 DWORD PTR _rnd$233561[ebp], 9
  027ed	7d 09		 jge	 SHORT $LN8@DarkLordHe

; 1088 : 				Option3 = 1;

  027ef	c7 45 dc 01 00
	00 00		 mov	 DWORD PTR _Option3$[ebp], 1

; 1089 : 			else

  027f6	eb 07		 jmp	 SHORT $LN7@DarkLordHe
$LN8@DarkLordHe:

; 1090 : 				Option3 = 0;

  027f8	c7 45 dc 00 00
	00 00		 mov	 DWORD PTR _Option3$[ebp], 0
$LN7@DarkLordHe:

; 1091 : 
; 1092 : 			if ( type == ITEMGET(12,15) ||
; 1093 : 				 type == ITEMGET(14,13) ||
; 1094 : 				 type == ITEMGET(14,14) ||
; 1095 : 				 type == ITEMGET(14,14) ||
; 1096 : 				 type == ITEMGET(14,16)	||
; 1097 : 				 type == ITEMGET(14,22)	||
; 1098 : 				 type == ITEMGET(14,31)	||
; 1099 : 				 type == ITEMGET(14,41)	||
; 1100 : 				 type == ITEMGET(14,42)	||
; 1101 : 				 type == ITEMGET(14,180)||
; 1102 : 				 type == ITEMGET(14,181)||
; 1103 : 				 type == ITEMGET(14,182)||
; 1104 : 				 type == ITEMGET(14,183)||
; 1105 : 				 type == ITEMGET(14,184)||
; 1106 : 				 type == ITEMGET(14,185)||
; 1107 : 				 type == ITEMGET(14,186)||
; 1108 : 				 type == ITEMGET(14,187)||
; 1109 : 				 type == ITEMGET(14,190)||
; 1110 : 				 type == ITEMGET(14,43) ||
; 1111 : 				 type == ITEMGET(14,44) )

  027ff	81 7d f4 0f 18
	00 00		 cmp	 DWORD PTR _type$[ebp], 6159 ; 0000180fH
  02806	0f 84 bb 00 00
	00		 je	 $LN5@DarkLordHe
  0280c	81 7d f4 0d 1c
	00 00		 cmp	 DWORD PTR _type$[ebp], 7181 ; 00001c0dH
  02813	0f 84 ae 00 00
	00		 je	 $LN5@DarkLordHe
  02819	81 7d f4 0e 1c
	00 00		 cmp	 DWORD PTR _type$[ebp], 7182 ; 00001c0eH
  02820	0f 84 a1 00 00
	00		 je	 $LN5@DarkLordHe
  02826	81 7d f4 0e 1c
	00 00		 cmp	 DWORD PTR _type$[ebp], 7182 ; 00001c0eH
  0282d	0f 84 94 00 00
	00		 je	 $LN5@DarkLordHe
  02833	81 7d f4 10 1c
	00 00		 cmp	 DWORD PTR _type$[ebp], 7184 ; 00001c10H
  0283a	0f 84 87 00 00
	00		 je	 $LN5@DarkLordHe
  02840	81 7d f4 16 1c
	00 00		 cmp	 DWORD PTR _type$[ebp], 7190 ; 00001c16H
  02847	74 7e		 je	 SHORT $LN5@DarkLordHe
  02849	81 7d f4 1f 1c
	00 00		 cmp	 DWORD PTR _type$[ebp], 7199 ; 00001c1fH
  02850	74 75		 je	 SHORT $LN5@DarkLordHe
  02852	81 7d f4 29 1c
	00 00		 cmp	 DWORD PTR _type$[ebp], 7209 ; 00001c29H
  02859	74 6c		 je	 SHORT $LN5@DarkLordHe
  0285b	81 7d f4 2a 1c
	00 00		 cmp	 DWORD PTR _type$[ebp], 7210 ; 00001c2aH
  02862	74 63		 je	 SHORT $LN5@DarkLordHe
  02864	81 7d f4 b4 1c
	00 00		 cmp	 DWORD PTR _type$[ebp], 7348 ; 00001cb4H
  0286b	74 5a		 je	 SHORT $LN5@DarkLordHe
  0286d	81 7d f4 b5 1c
	00 00		 cmp	 DWORD PTR _type$[ebp], 7349 ; 00001cb5H
  02874	74 51		 je	 SHORT $LN5@DarkLordHe
  02876	81 7d f4 b6 1c
	00 00		 cmp	 DWORD PTR _type$[ebp], 7350 ; 00001cb6H
  0287d	74 48		 je	 SHORT $LN5@DarkLordHe
  0287f	81 7d f4 b7 1c
	00 00		 cmp	 DWORD PTR _type$[ebp], 7351 ; 00001cb7H
  02886	74 3f		 je	 SHORT $LN5@DarkLordHe
  02888	81 7d f4 b8 1c
	00 00		 cmp	 DWORD PTR _type$[ebp], 7352 ; 00001cb8H
  0288f	74 36		 je	 SHORT $LN5@DarkLordHe
  02891	81 7d f4 b9 1c
	00 00		 cmp	 DWORD PTR _type$[ebp], 7353 ; 00001cb9H
  02898	74 2d		 je	 SHORT $LN5@DarkLordHe
  0289a	81 7d f4 ba 1c
	00 00		 cmp	 DWORD PTR _type$[ebp], 7354 ; 00001cbaH
  028a1	74 24		 je	 SHORT $LN5@DarkLordHe
  028a3	81 7d f4 bb 1c
	00 00		 cmp	 DWORD PTR _type$[ebp], 7355 ; 00001cbbH
  028aa	74 1b		 je	 SHORT $LN5@DarkLordHe
  028ac	81 7d f4 be 1c
	00 00		 cmp	 DWORD PTR _type$[ebp], 7358 ; 00001cbeH
  028b3	74 12		 je	 SHORT $LN5@DarkLordHe
  028b5	81 7d f4 2b 1c
	00 00		 cmp	 DWORD PTR _type$[ebp], 7211 ; 00001c2bH
  028bc	74 09		 je	 SHORT $LN5@DarkLordHe
  028be	81 7d f4 2c 1c
	00 00		 cmp	 DWORD PTR _type$[ebp], 7212 ; 00001c2cH
  028c5	75 1c		 jne	 SHORT $LN6@DarkLordHe
$LN5@DarkLordHe:

; 1112 : 			{
; 1113 : 				Option1 = 0;

  028c7	c7 45 e4 00 00
	00 00		 mov	 DWORD PTR _Option1$[ebp], 0

; 1114 : 				Option2 = 0;

  028ce	c7 45 e0 00 00
	00 00		 mov	 DWORD PTR _Option2$[ebp], 0

; 1115 : 				Option3 = 0;

  028d5	c7 45 dc 00 00
	00 00		 mov	 DWORD PTR _Option3$[ebp], 0

; 1116 : 				level = 0;

  028dc	c7 45 f0 00 00
	00 00		 mov	 DWORD PTR _level$[ebp], 0
$LN6@DarkLordHe:

; 1117 : 			}
; 1118 : 
; 1119 : 			if ( type == ITEMGET(12,30)	||
; 1120 : 				 type == ITEMGET(12,31)	||
; 1121 : 				 type == ITEMGET(12,136)||
; 1122 : 				 type == ITEMGET(12,137)||
; 1123 : 				 type == ITEMGET(12,138)||
; 1124 : 				 type == ITEMGET(12,139)||
; 1125 : 				 type == ITEMGET(12,140)||
; 1126 : 				 type == ITEMGET(12,141)||
; 1127 : 				 type == ITEMGET(12,142)||
; 1128 : 				 type == ITEMGET(12,143))

  028e3	81 7d f4 1e 18
	00 00		 cmp	 DWORD PTR _type$[ebp], 6174 ; 0000181eH
  028ea	74 51		 je	 SHORT $LN3@DarkLordHe
  028ec	81 7d f4 1f 18
	00 00		 cmp	 DWORD PTR _type$[ebp], 6175 ; 0000181fH
  028f3	74 48		 je	 SHORT $LN3@DarkLordHe
  028f5	81 7d f4 88 18
	00 00		 cmp	 DWORD PTR _type$[ebp], 6280 ; 00001888H
  028fc	74 3f		 je	 SHORT $LN3@DarkLordHe
  028fe	81 7d f4 89 18
	00 00		 cmp	 DWORD PTR _type$[ebp], 6281 ; 00001889H
  02905	74 36		 je	 SHORT $LN3@DarkLordHe
  02907	81 7d f4 8a 18
	00 00		 cmp	 DWORD PTR _type$[ebp], 6282 ; 0000188aH
  0290e	74 2d		 je	 SHORT $LN3@DarkLordHe
  02910	81 7d f4 8b 18
	00 00		 cmp	 DWORD PTR _type$[ebp], 6283 ; 0000188bH
  02917	74 24		 je	 SHORT $LN3@DarkLordHe
  02919	81 7d f4 8c 18
	00 00		 cmp	 DWORD PTR _type$[ebp], 6284 ; 0000188cH
  02920	74 1b		 je	 SHORT $LN3@DarkLordHe
  02922	81 7d f4 8d 18
	00 00		 cmp	 DWORD PTR _type$[ebp], 6285 ; 0000188dH
  02929	74 12		 je	 SHORT $LN3@DarkLordHe
  0292b	81 7d f4 8e 18
	00 00		 cmp	 DWORD PTR _type$[ebp], 6286 ; 0000188eH
  02932	74 09		 je	 SHORT $LN3@DarkLordHe
  02934	81 7d f4 8f 18
	00 00		 cmp	 DWORD PTR _type$[ebp], 6287 ; 0000188fH
  0293b	75 32		 jne	 SHORT $LN4@DarkLordHe
$LN3@DarkLordHe:

; 1129 : 			{
; 1130 : 				Option1 = 0;

  0293d	c7 45 e4 00 00
	00 00		 mov	 DWORD PTR _Option1$[ebp], 0

; 1131 : 				Option2 = 0;

  02944	c7 45 e0 00 00
	00 00		 mov	 DWORD PTR _Option2$[ebp], 0

; 1132 : 				Option3 = 0;

  0294b	c7 45 dc 00 00
	00 00		 mov	 DWORD PTR _Option3$[ebp], 0

; 1133 : 				level = DarkLordHeartItemBag->GetLevel(DropItemNum);

  02952	8b 45 d8	 mov	 eax, DWORD PTR _DropItemNum$[ebp]
  02955	50		 push	 eax
  02956	8b 0d 00 00 00
	00		 mov	 ecx, DWORD PTR ?DarkLordHeartItemBag@@3PAVCItemBag@@A ; DarkLordHeartItemBag
  0295c	8b 11		 mov	 edx, DWORD PTR [ecx]
  0295e	8b 0d 00 00 00
	00		 mov	 ecx, DWORD PTR ?DarkLordHeartItemBag@@3PAVCItemBag@@A ; DarkLordHeartItemBag
  02964	8b 42 14	 mov	 eax, DWORD PTR [edx+20]
  02967	ff d0		 call	 eax
  02969	0f b6 c8	 movzx	 ecx, al
  0296c	89 4d f0	 mov	 DWORD PTR _level$[ebp], ecx
$LN4@DarkLordHe:

; 1134 : 			}
; 1135 : 
; 1136 : 			if ( type == ITEMGET(13,0) ||
; 1137 : 				 type == ITEMGET(13,1) ||
; 1138 : 				 type == ITEMGET(13,2) ||
; 1139 : 				 type == ITEMGET(13,8) ||
; 1140 : 				 type == ITEMGET(13,9) ||
; 1141 : 				 type == ITEMGET(13,12) ||
; 1142 : 				 type == ITEMGET(13,13) )

  0296f	81 7d f4 00 1a
	00 00		 cmp	 DWORD PTR _type$[ebp], 6656 ; 00001a00H
  02976	74 36		 je	 SHORT $LN1@DarkLordHe
  02978	81 7d f4 01 1a
	00 00		 cmp	 DWORD PTR _type$[ebp], 6657 ; 00001a01H
  0297f	74 2d		 je	 SHORT $LN1@DarkLordHe
  02981	81 7d f4 02 1a
	00 00		 cmp	 DWORD PTR _type$[ebp], 6658 ; 00001a02H
  02988	74 24		 je	 SHORT $LN1@DarkLordHe
  0298a	81 7d f4 08 1a
	00 00		 cmp	 DWORD PTR _type$[ebp], 6664 ; 00001a08H
  02991	74 1b		 je	 SHORT $LN1@DarkLordHe
  02993	81 7d f4 09 1a
	00 00		 cmp	 DWORD PTR _type$[ebp], 6665 ; 00001a09H
  0299a	74 12		 je	 SHORT $LN1@DarkLordHe
  0299c	81 7d f4 0c 1a
	00 00		 cmp	 DWORD PTR _type$[ebp], 6668 ; 00001a0cH
  029a3	74 09		 je	 SHORT $LN1@DarkLordHe
  029a5	81 7d f4 0d 1a
	00 00		 cmp	 DWORD PTR _type$[ebp], 6669 ; 00001a0dH
  029ac	75 07		 jne	 SHORT $LN2@DarkLordHe
$LN1@DarkLordHe:

; 1143 : 			{
; 1144 : 				level = 0;

  029ae	c7 45 f0 00 00
	00 00		 mov	 DWORD PTR _level$[ebp], 0
$LN2@DarkLordHe:

; 1145 : 			}
; 1146 : 
; 1147 : 			ItemSerialCreateSend(lpObj->m_Index, (BYTE)lpObj->MapNumber, (BYTE)x, (BYTE)y, type, (BYTE)level, (BYTE)dur,
; 1148 : 				(BYTE)Option1, (BYTE)Option2, (BYTE)Option3, lpObj->m_Index, 0, 0);

  029b5	6a 00		 push	 0
  029b7	6a 00		 push	 0
  029b9	8b 45 08	 mov	 eax, DWORD PTR _lpObj$[ebp]
  029bc	8b 08		 mov	 ecx, DWORD PTR [eax]
  029be	51		 push	 ecx
  029bf	0f b6 55 dc	 movzx	 edx, BYTE PTR _Option3$[ebp]
  029c3	52		 push	 edx
  029c4	0f b6 45 e0	 movzx	 eax, BYTE PTR _Option2$[ebp]
  029c8	50		 push	 eax
  029c9	0f b6 4d e4	 movzx	 ecx, BYTE PTR _Option1$[ebp]
  029cd	51		 push	 ecx
  029ce	d9 45 f8	 fld	 DWORD PTR _dur$[ebp]
  029d1	d9 bd ba fe ff
	ff		 fnstcw	 WORD PTR tv339[ebp]
  029d7	0f b7 85 ba fe
	ff ff		 movzx	 eax, WORD PTR tv339[ebp]
  029de	0d 00 0c 00 00	 or	 eax, 3072		; 00000c00H
  029e3	89 85 b4 fe ff
	ff		 mov	 DWORD PTR tv342[ebp], eax
  029e9	d9 ad b4 fe ff
	ff		 fldcw	 WORD PTR tv342[ebp]
  029ef	db 9d b0 fe ff
	ff		 fistp	 DWORD PTR tv344[ebp]
  029f5	d9 ad ba fe ff
	ff		 fldcw	 WORD PTR tv339[ebp]
  029fb	0f b6 95 b0 fe
	ff ff		 movzx	 edx, BYTE PTR tv344[ebp]
  02a02	52		 push	 edx
  02a03	0f b6 45 f0	 movzx	 eax, BYTE PTR _level$[ebp]
  02a07	50		 push	 eax
  02a08	8b 4d f4	 mov	 ecx, DWORD PTR _type$[ebp]
  02a0b	51		 push	 ecx
  02a0c	0f b6 55 e8	 movzx	 edx, BYTE PTR _y$[ebp]
  02a10	52		 push	 edx
  02a11	0f b6 45 ec	 movzx	 eax, BYTE PTR _x$[ebp]
  02a15	50		 push	 eax
  02a16	8b 4d 08	 mov	 ecx, DWORD PTR _lpObj$[ebp]
  02a19	0f b6 91 49 01
	00 00		 movzx	 edx, BYTE PTR [ecx+329]
  02a20	52		 push	 edx
  02a21	8b 45 08	 mov	 eax, DWORD PTR _lpObj$[ebp]
  02a24	8b 08		 mov	 ecx, DWORD PTR [eax]
  02a26	51		 push	 ecx
  02a27	e8 00 00 00 00	 call	 ?ItemSerialCreateSend@@YAXHEEEHEEEEEHEE@Z ; ItemSerialCreateSend
  02a2c	83 c4 34	 add	 esp, 52			; 00000034H

; 1149 : 
; 1150 : 			CItem EventItem;

  02a2f	8d 8d fc fe ff
	ff		 lea	 ecx, DWORD PTR _EventItem$233582[ebp]
  02a35	e8 00 00 00 00	 call	 ??0CItem@@QAE@XZ	; CItem::CItem

; 1151 : 
; 1152 : 			EventItem.Convert(type, Option1, Option2, Option3, 0, 1, 0, NULL, 0xFF, 0, 3);

  02a3a	6a 03		 push	 3
  02a3c	6a 00		 push	 0
  02a3e	68 ff 00 00 00	 push	 255			; 000000ffH
  02a43	6a 00		 push	 0
  02a45	6a 00		 push	 0
  02a47	6a 01		 push	 1
  02a49	6a 00		 push	 0
  02a4b	0f b6 45 dc	 movzx	 eax, BYTE PTR _Option3$[ebp]
  02a4f	50		 push	 eax
  02a50	0f b6 4d e0	 movzx	 ecx, BYTE PTR _Option2$[ebp]
  02a54	51		 push	 ecx
  02a55	0f b6 55 e4	 movzx	 edx, BYTE PTR _Option1$[ebp]
  02a59	52		 push	 edx
  02a5a	8b 45 f4	 mov	 eax, DWORD PTR _type$[ebp]
  02a5d	50		 push	 eax
  02a5e	8d 8d fc fe ff
	ff		 lea	 ecx, DWORD PTR _EventItem$233582[ebp]
  02a64	e8 00 00 00 00	 call	 ?Convert@CItem@@QAEXHEEEEEEPAEEEE@Z ; CItem::Convert

; 1153 : 
; 1154 : 			LogAddTD("[%s][%s][Lucky Box Item Drop][Darklord Heart] : (%d)(X:%d/Y:%d) Item:%s(%d) Level:%d Op1:%d Op2:%d Op3:%d",
; 1155 : 				lpObj->AccountID, lpObj->Name, lpObj->MapNumber, lpObj->X, lpObj->Y, EventItem.GetName(),
; 1156 : 				type, level, Option1, Option2, Option3);

  02a69	8b 45 dc	 mov	 eax, DWORD PTR _Option3$[ebp]
  02a6c	50		 push	 eax
  02a6d	8b 4d e0	 mov	 ecx, DWORD PTR _Option2$[ebp]
  02a70	51		 push	 ecx
  02a71	8b 55 e4	 mov	 edx, DWORD PTR _Option1$[ebp]
  02a74	52		 push	 edx
  02a75	8b 45 f0	 mov	 eax, DWORD PTR _level$[ebp]
  02a78	50		 push	 eax
  02a79	8b 4d f4	 mov	 ecx, DWORD PTR _type$[ebp]
  02a7c	51		 push	 ecx
  02a7d	8d 8d fc fe ff
	ff		 lea	 ecx, DWORD PTR _EventItem$233582[ebp]
  02a83	e8 00 00 00 00	 call	 ?GetName@CItem@@QAEPADXZ ; CItem::GetName
  02a88	50		 push	 eax
  02a89	8b 55 08	 mov	 edx, DWORD PTR _lpObj$[ebp]
  02a8c	0f bf 82 46 01
	00 00		 movsx	 eax, WORD PTR [edx+326]
  02a93	50		 push	 eax
  02a94	8b 4d 08	 mov	 ecx, DWORD PTR _lpObj$[ebp]
  02a97	0f bf 91 44 01
	00 00		 movsx	 edx, WORD PTR [ecx+324]
  02a9e	52		 push	 edx
  02a9f	8b 45 08	 mov	 eax, DWORD PTR _lpObj$[ebp]
  02aa2	0f b6 88 49 01
	00 00		 movzx	 ecx, BYTE PTR [eax+329]
  02aa9	51		 push	 ecx
  02aaa	8b 55 08	 mov	 edx, DWORD PTR _lpObj$[ebp]
  02aad	83 c2 77	 add	 edx, 119		; 00000077H
  02ab0	52		 push	 edx
  02ab1	8b 45 08	 mov	 eax, DWORD PTR _lpObj$[ebp]
  02ab4	83 c0 6c	 add	 eax, 108		; 0000006cH
  02ab7	50		 push	 eax
  02ab8	68 00 00 00 00	 push	 OFFSET ??_C@_0GK@MCOFOKEO@?$FL?$CFs?$FN?$FL?$CFs?$FN?$FLLucky?5Box?5Item?5Drop?$FN?$FLDa@
  02abd	ff 15 00 00 00
	00		 call	 DWORD PTR ?LogAddTD@@3P6AXPADZZA ; LogAddTD
  02ac3	83 c4 30	 add	 esp, 48			; 00000030H

; 1157 : 
; 1158 : 			return;

  02ac6	eb 42		 jmp	 SHORT $LN17@DarkLordHe
$LN13@DarkLordHe:

; 1159 : 		}
; 1160 : 	}
; 1161 : 
; 1162 : 	x = lpObj->X;

  02ac8	8b 45 08	 mov	 eax, DWORD PTR _lpObj$[ebp]
  02acb	0f bf 88 44 01
	00 00		 movsx	 ecx, WORD PTR [eax+324]
  02ad2	89 4d ec	 mov	 DWORD PTR _x$[ebp], ecx

; 1163 : 	y = lpObj->Y;

  02ad5	8b 45 08	 mov	 eax, DWORD PTR _lpObj$[ebp]
  02ad8	0f bf 88 46 01
	00 00		 movsx	 ecx, WORD PTR [eax+326]
  02adf	89 4d e8	 mov	 DWORD PTR _y$[ebp], ecx

; 1164 : 	MapC[lpObj->MapNumber].MoneyItemDrop(10000, x, y);

  02ae2	8b 45 e8	 mov	 eax, DWORD PTR _y$[ebp]
  02ae5	50		 push	 eax
  02ae6	8b 4d ec	 mov	 ecx, DWORD PTR _x$[ebp]
  02ae9	51		 push	 ecx
  02aea	68 10 27 00 00	 push	 10000			; 00002710H
  02aef	8b 55 08	 mov	 edx, DWORD PTR _lpObj$[ebp]
  02af2	0f b6 8a 49 01
	00 00		 movzx	 ecx, BYTE PTR [edx+329]
  02af9	69 c9 b8 3d 05
	00		 imul	 ecx, 343480		; 00053db8H
  02aff	81 c1 00 00 00
	00		 add	 ecx, OFFSET ?MapC@@3PAVMapClass@@A ; MapC
  02b05	e8 00 00 00 00	 call	 ?MoneyItemDrop@MapClass@@QAEHHHH@Z ; MapClass::MoneyItemDrop
$LN17@DarkLordHe:

; 1165 : }

  02b0a	5f		 pop	 edi
  02b0b	5e		 pop	 esi
  02b0c	5b		 pop	 ebx
  02b0d	8b 4d fc	 mov	 ecx, DWORD PTR __$ArrayPad$[ebp]
  02b10	33 cd		 xor	 ecx, ebp
  02b12	e8 00 00 00 00	 call	 @__security_check_cookie@4
  02b17	8b e5		 mov	 esp, ebp
  02b19	5d		 pop	 ebp
  02b1a	c3		 ret	 0
?DarkLordHeartItemBoxOpen@@YAXPAUOBJECTSTRUCT@@@Z ENDP	; DarkLordHeartItemBoxOpen
_TEXT	ENDS
PUBLIC	??_C@_0EF@GOCIBGLO@?$FLHidden?5TreasureBox?5Event?$FN?5?$FL?$CFs?$FN?$FL@ ; `string'
PUBLIC	??_C@_0IE@EJGNIEKI@?$FLHidden?5TreasureBox?5Event?$FN?5?$FL?$CFs?$FN?$FL@ ; `string'
PUBLIC	??_C@_0EC@IBKHHAK@?$FLHidden?5TreasureBox?5Event?$FN?5?$FL?$CFs?$FN?$FL@ ; `string'
PUBLIC	__$ArrayPad$
PUBLIC	?HiddenTreasureBoxItemBoxOpen@@YAXPAUOBJECTSTRUCT@@@Z ; HiddenTreasureBoxItemBoxOpen
EXTRN	?ItemAttribute@@3PAUITEM_ATTRIBUTE@@A:BYTE	; ItemAttribute
EXTRN	?ItemIsBufExOption@@YAXPAEPAVCItem@@@Z:PROC	; ItemIsBufExOption
EXTRN	?NewOptionRand@@YAEH@Z:PROC			; NewOptionRand
EXTRN	?GetMinLevel@CItemBagEx@@QAEEH@Z:PROC		; CItemBagEx::GetMinLevel
EXTRN	?PickItem@CItemBagEx@@QAEHAAVCItem@@AAH@Z:PROC	; CItemBagEx::PickItem
EXTRN	?HiddenTreasureBoxItemBag@@3PAVCItemBagEx@@A:DWORD ; HiddenTreasureBoxItemBag
;	COMDAT ??_C@_0EF@GOCIBGLO@?$FLHidden?5TreasureBox?5Event?$FN?5?$FL?$CFs?$FN?$FL@
CONST	SEGMENT
??_C@_0EF@GOCIBGLO@?$FLHidden?5TreasureBox?5Event?$FN?5?$FL?$CFs?$FN?$FL@ DB '['
	DB	'Hidden TreasureBox Event] [%s][%s] Event ZenDrop : %d : (%d)('
	DB	'%d/%d)', 00H				; `string'
CONST	ENDS
;	COMDAT ??_C@_0IE@EJGNIEKI@?$FLHidden?5TreasureBox?5Event?$FN?5?$FL?$CFs?$FN?$FL@
CONST	SEGMENT
??_C@_0IE@EJGNIEKI@?$FLHidden?5TreasureBox?5Event?$FN?5?$FL?$CFs?$FN?$FL@ DB '['
	DB	'Hidden TreasureBox Event] [%s][%s] Event ItemDrop : (%d)(%d/%'
	DB	'd) Item:(%s)%d Level:%d op1:%d op2:%d op3:%d exop:[%d,%d,%d,%'
	DB	'd,%d,%d]', 00H				; `string'
CONST	ENDS
;	COMDAT ??_C@_0EC@IBKHHAK@?$FLHidden?5TreasureBox?5Event?$FN?5?$FL?$CFs?$FN?$FL@
CONST	SEGMENT
??_C@_0EC@IBKHHAK@?$FLHidden?5TreasureBox?5Event?$FN?5?$FL?$CFs?$FN?$FL@ DB '['
	DB	'Hidden TreasureBox Event] [%s][%s] Item Pick Failed - Data Er'
	DB	'ror', 00H					; `string'
; Function compile flags: /Odtp /ZI
CONST	ENDS
_TEXT	SEGMENT
tv283 = -312						; size = 4
tv281 = -308						; size = 4
tv278 = -302						; size = 2
_money$233611 = -236					; size = 4
_NewOption$233608 = -232				; size = 8
_iItemSuccessRate$ = -224				; size = 4
_nItemIndex$ = -220					; size = 4
_objTempItem$ = -216					; size = 212
__$ArrayPad$ = -4					; size = 4
_lpObj$ = 8						; size = 4
?HiddenTreasureBoxItemBoxOpen@@YAXPAUOBJECTSTRUCT@@@Z PROC ; HiddenTreasureBoxItemBoxOpen

; 1171 : {

  02b20	55		 push	 ebp
  02b21	8b ec		 mov	 ebp, esp
  02b23	81 ec 38 01 00
	00		 sub	 esp, 312		; 00000138H
  02b29	a1 00 00 00 00	 mov	 eax, DWORD PTR ___security_cookie
  02b2e	33 c5		 xor	 eax, ebp
  02b30	89 45 fc	 mov	 DWORD PTR __$ArrayPad$[ebp], eax
  02b33	53		 push	 ebx
  02b34	56		 push	 esi
  02b35	57		 push	 edi

; 1172 : 	CItem objTempItem;

  02b36	8d 8d 28 ff ff
	ff		 lea	 ecx, DWORD PTR _objTempItem$[ebp]
  02b3c	e8 00 00 00 00	 call	 ??0CItem@@QAE@XZ	; CItem::CItem

; 1173 : 	int nItemIndex;
; 1174 : 
; 1175 : 	if ( HiddenTreasureBoxItemBag->PickItem(objTempItem, nItemIndex) == FALSE )

  02b41	8d 85 24 ff ff
	ff		 lea	 eax, DWORD PTR _nItemIndex$[ebp]
  02b47	50		 push	 eax
  02b48	8d 8d 28 ff ff
	ff		 lea	 ecx, DWORD PTR _objTempItem$[ebp]
  02b4e	51		 push	 ecx
  02b4f	8b 0d 00 00 00
	00		 mov	 ecx, DWORD PTR ?HiddenTreasureBoxItemBag@@3PAVCItemBagEx@@A ; HiddenTreasureBoxItemBag
  02b55	e8 00 00 00 00	 call	 ?PickItem@CItemBagEx@@QAEHAAVCItem@@AAH@Z ; CItemBagEx::PickItem
  02b5a	85 c0		 test	 eax, eax
  02b5c	75 57		 jne	 SHORT $LN9@HiddenTrea

; 1176 : 	{
; 1177 : 		LogAddTD("[Hidden TreasureBox Event] [%s][%s] Item Pick Failed - Data Error",
; 1178 : 			lpObj->AccountID, lpObj->Name);

  02b5e	8b 45 08	 mov	 eax, DWORD PTR _lpObj$[ebp]
  02b61	83 c0 77	 add	 eax, 119		; 00000077H
  02b64	50		 push	 eax
  02b65	8b 4d 08	 mov	 ecx, DWORD PTR _lpObj$[ebp]
  02b68	83 c1 6c	 add	 ecx, 108		; 0000006cH
  02b6b	51		 push	 ecx
  02b6c	68 00 00 00 00	 push	 OFFSET ??_C@_0EC@IBKHHAK@?$FLHidden?5TreasureBox?5Event?$FN?5?$FL?$CFs?$FN?$FL@
  02b71	ff 15 00 00 00
	00		 call	 DWORD PTR ?LogAddTD@@3P6AXPADZZA ; LogAddTD
  02b77	83 c4 0c	 add	 esp, 12			; 0000000cH

; 1179 : 
; 1180 : 		MapC[lpObj->MapNumber].MoneyItemDrop(200000, lpObj->X, lpObj->Y);

  02b7a	8b 45 08	 mov	 eax, DWORD PTR _lpObj$[ebp]
  02b7d	0f bf 88 46 01
	00 00		 movsx	 ecx, WORD PTR [eax+326]
  02b84	51		 push	 ecx
  02b85	8b 55 08	 mov	 edx, DWORD PTR _lpObj$[ebp]
  02b88	0f bf 82 44 01
	00 00		 movsx	 eax, WORD PTR [edx+324]
  02b8f	50		 push	 eax
  02b90	68 40 0d 03 00	 push	 200000			; 00030d40H
  02b95	8b 4d 08	 mov	 ecx, DWORD PTR _lpObj$[ebp]
  02b98	0f b6 89 49 01
	00 00		 movzx	 ecx, BYTE PTR [ecx+329]
  02b9f	69 c9 b8 3d 05
	00		 imul	 ecx, 343480		; 00053db8H
  02ba5	81 c1 00 00 00
	00		 add	 ecx, OFFSET ?MapC@@3PAVMapClass@@A ; MapC
  02bab	e8 00 00 00 00	 call	 ?MoneyItemDrop@MapClass@@QAEHHHH@Z ; MapClass::MoneyItemDrop

; 1181 : 		return;

  02bb0	e9 99 02 00 00	 jmp	 $LN10@HiddenTrea
$LN9@HiddenTrea:

; 1182 : 	}
; 1183 : 
; 1184 : 	int iItemSuccessRate = HiddenTreasureBoxItemBag->GetMinLevel(nItemIndex);

  02bb5	8b 85 24 ff ff
	ff		 mov	 eax, DWORD PTR _nItemIndex$[ebp]
  02bbb	50		 push	 eax
  02bbc	8b 0d 00 00 00
	00		 mov	 ecx, DWORD PTR ?HiddenTreasureBoxItemBag@@3PAVCItemBagEx@@A ; HiddenTreasureBoxItemBag
  02bc2	e8 00 00 00 00	 call	 ?GetMinLevel@CItemBagEx@@QAEEH@Z ; CItemBagEx::GetMinLevel
  02bc7	0f b6 c8	 movzx	 ecx, al
  02bca	89 8d 20 ff ff
	ff		 mov	 DWORD PTR _iItemSuccessRate$[ebp], ecx

; 1185 : 
; 1186 : 	if ( (rand()%100) < iItemSuccessRate )

  02bd0	e8 00 00 00 00	 call	 _rand
  02bd5	99		 cdq
  02bd6	b9 64 00 00 00	 mov	 ecx, 100		; 00000064H
  02bdb	f7 f9		 idiv	 ecx
  02bdd	3b 95 20 ff ff
	ff		 cmp	 edx, DWORD PTR _iItemSuccessRate$[ebp]
  02be3	0f 8d df 01 00
	00		 jge	 $LN8@HiddenTrea

; 1187 : 	{
; 1188 : 		objTempItem.m_Level = 0;

  02be9	33 c0		 xor	 eax, eax
  02beb	66 89 85 30 ff
	ff ff		 mov	 WORD PTR _objTempItem$[ebp+8], ax

; 1189 : 
; 1190 : 		if ( objTempItem.m_Option1 )

  02bf2	0f b6 45 bc	 movzx	 eax, BYTE PTR _objTempItem$[ebp+148]
  02bf6	85 c0		 test	 eax, eax
  02bf8	74 14		 je	 SHORT $LN7@HiddenTrea

; 1191 : 			objTempItem.m_Option1 = rand()%2;

  02bfa	e8 00 00 00 00	 call	 _rand
  02bff	25 01 00 00 80	 and	 eax, -2147483647	; 80000001H
  02c04	79 05		 jns	 SHORT $LN12@HiddenTrea
  02c06	48		 dec	 eax
  02c07	83 c8 fe	 or	 eax, -2			; fffffffeH
  02c0a	40		 inc	 eax
$LN12@HiddenTrea:
  02c0b	88 45 bc	 mov	 BYTE PTR _objTempItem$[ebp+148], al
$LN7@HiddenTrea:

; 1192 : 
; 1193 : 		if ( objTempItem.m_Option2 )

  02c0e	0f b6 45 bd	 movzx	 eax, BYTE PTR _objTempItem$[ebp+149]
  02c12	85 c0		 test	 eax, eax
  02c14	74 14		 je	 SHORT $LN6@HiddenTrea

; 1194 : 			objTempItem.m_Option2 = rand()%2;

  02c16	e8 00 00 00 00	 call	 _rand
  02c1b	25 01 00 00 80	 and	 eax, -2147483647	; 80000001H
  02c20	79 05		 jns	 SHORT $LN13@HiddenTrea
  02c22	48		 dec	 eax
  02c23	83 c8 fe	 or	 eax, -2			; fffffffeH
  02c26	40		 inc	 eax
$LN13@HiddenTrea:
  02c27	88 45 bd	 mov	 BYTE PTR _objTempItem$[ebp+149], al
$LN6@HiddenTrea:

; 1195 : 
; 1196 : 		if ( objTempItem.m_Option3 )

  02c2a	0f b6 45 be	 movzx	 eax, BYTE PTR _objTempItem$[ebp+150]
  02c2e	85 c0		 test	 eax, eax
  02c30	74 28		 je	 SHORT $LN3@HiddenTrea

; 1197 : 			if ( (rand()%5) <1 )

  02c32	e8 00 00 00 00	 call	 _rand
  02c37	99		 cdq
  02c38	b9 05 00 00 00	 mov	 ecx, 5
  02c3d	f7 f9		 idiv	 ecx
  02c3f	83 fa 01	 cmp	 edx, 1
  02c42	7d 06		 jge	 SHORT $LN4@HiddenTrea

; 1198 : 				objTempItem.m_Option3 = 3;

  02c44	c6 45 be 03	 mov	 BYTE PTR _objTempItem$[ebp+150], 3

; 1199 : 			else

  02c48	eb 10		 jmp	 SHORT $LN3@HiddenTrea
$LN4@HiddenTrea:

; 1200 : 				objTempItem.m_Option3 = rand()%3;

  02c4a	e8 00 00 00 00	 call	 _rand
  02c4f	99		 cdq
  02c50	b9 03 00 00 00	 mov	 ecx, 3
  02c55	f7 f9		 idiv	 ecx
  02c57	88 55 be	 mov	 BYTE PTR _objTempItem$[ebp+150], dl
$LN3@HiddenTrea:

; 1201 : 
; 1202 : 		if ( objTempItem.m_NewOption )

  02c5a	0f b6 45 bf	 movzx	 eax, BYTE PTR _objTempItem$[ebp+151]
  02c5e	85 c0		 test	 eax, eax
  02c60	74 1b		 je	 SHORT $LN2@HiddenTrea

; 1203 : 		{
; 1204 : 			objTempItem.m_NewOption = NewOptionRand(objTempItem.m_Level);

  02c62	0f bf 85 30 ff
	ff ff		 movsx	 eax, WORD PTR _objTempItem$[ebp+8]
  02c69	50		 push	 eax
  02c6a	e8 00 00 00 00	 call	 ?NewOptionRand@@YAEH@Z	; NewOptionRand
  02c6f	83 c4 04	 add	 esp, 4
  02c72	88 45 bf	 mov	 BYTE PTR _objTempItem$[ebp+151], al

; 1205 : 			objTempItem.m_Option1 = 1;

  02c75	c6 45 bc 01	 mov	 BYTE PTR _objTempItem$[ebp+148], 1

; 1206 : 			objTempItem.m_Option2 = 0;

  02c79	c6 45 bd 00	 mov	 BYTE PTR _objTempItem$[ebp+149], 0
$LN2@HiddenTrea:

; 1207 : 		}
; 1208 : 
; 1209 : 
; 1210 : 		ItemSerialCreateSend(lpObj->m_Index, (BYTE)lpObj->MapNumber, (BYTE)lpObj->X, (BYTE)lpObj->Y, objTempItem.m_Type, (BYTE)objTempItem.m_Level, (BYTE)objTempItem.m_Durability,
; 1211 : 			(BYTE)objTempItem.m_Option1, (BYTE)objTempItem.m_Option2, (BYTE)objTempItem.m_Option3, lpObj->m_Index, (BYTE)objTempItem.m_NewOption, 0);

  02c7d	6a 00		 push	 0
  02c7f	0f b6 45 bf	 movzx	 eax, BYTE PTR _objTempItem$[ebp+151]
  02c83	50		 push	 eax
  02c84	8b 4d 08	 mov	 ecx, DWORD PTR _lpObj$[ebp]
  02c87	8b 11		 mov	 edx, DWORD PTR [ecx]
  02c89	52		 push	 edx
  02c8a	0f b6 45 be	 movzx	 eax, BYTE PTR _objTempItem$[ebp+150]
  02c8e	50		 push	 eax
  02c8f	0f b6 4d bd	 movzx	 ecx, BYTE PTR _objTempItem$[ebp+149]
  02c93	51		 push	 ecx
  02c94	0f b6 55 bc	 movzx	 edx, BYTE PTR _objTempItem$[ebp+148]
  02c98	52		 push	 edx
  02c99	d9 85 4c ff ff
	ff		 fld	 DWORD PTR _objTempItem$[ebp+36]
  02c9f	d9 bd d2 fe ff
	ff		 fnstcw	 WORD PTR tv278[ebp]
  02ca5	0f b7 85 d2 fe
	ff ff		 movzx	 eax, WORD PTR tv278[ebp]
  02cac	0d 00 0c 00 00	 or	 eax, 3072		; 00000c00H
  02cb1	89 85 cc fe ff
	ff		 mov	 DWORD PTR tv281[ebp], eax
  02cb7	d9 ad cc fe ff
	ff		 fldcw	 WORD PTR tv281[ebp]
  02cbd	db 9d c8 fe ff
	ff		 fistp	 DWORD PTR tv283[ebp]
  02cc3	d9 ad d2 fe ff
	ff		 fldcw	 WORD PTR tv278[ebp]
  02cc9	0f b6 85 c8 fe
	ff ff		 movzx	 eax, BYTE PTR tv283[ebp]
  02cd0	50		 push	 eax
  02cd1	0f b6 8d 30 ff
	ff ff		 movzx	 ecx, BYTE PTR _objTempItem$[ebp+8]
  02cd8	51		 push	 ecx
  02cd9	0f bf 95 2e ff
	ff ff		 movsx	 edx, WORD PTR _objTempItem$[ebp+6]
  02ce0	52		 push	 edx
  02ce1	8b 45 08	 mov	 eax, DWORD PTR _lpObj$[ebp]
  02ce4	0f b6 88 46 01
	00 00		 movzx	 ecx, BYTE PTR [eax+326]
  02ceb	51		 push	 ecx
  02cec	8b 55 08	 mov	 edx, DWORD PTR _lpObj$[ebp]
  02cef	0f b6 82 44 01
	00 00		 movzx	 eax, BYTE PTR [edx+324]
  02cf6	50		 push	 eax
  02cf7	8b 4d 08	 mov	 ecx, DWORD PTR _lpObj$[ebp]
  02cfa	0f b6 91 49 01
	00 00		 movzx	 edx, BYTE PTR [ecx+329]
  02d01	52		 push	 edx
  02d02	8b 45 08	 mov	 eax, DWORD PTR _lpObj$[ebp]
  02d05	8b 08		 mov	 ecx, DWORD PTR [eax]
  02d07	51		 push	 ecx
  02d08	e8 00 00 00 00	 call	 ?ItemSerialCreateSend@@YAXHEEEHEEEEEHEE@Z ; ItemSerialCreateSend
  02d0d	83 c4 34	 add	 esp, 52			; 00000034H

; 1212 : 
; 1213 : 		BYTE NewOption[MAX_EXOPTION_SIZE];
; 1214 : 		ItemIsBufExOption(NewOption, &objTempItem);

  02d10	8d 85 28 ff ff
	ff		 lea	 eax, DWORD PTR _objTempItem$[ebp]
  02d16	50		 push	 eax
  02d17	8d 8d 18 ff ff
	ff		 lea	 ecx, DWORD PTR _NewOption$233608[ebp]
  02d1d	51		 push	 ecx
  02d1e	e8 00 00 00 00	 call	 ?ItemIsBufExOption@@YAXPAEPAVCItem@@@Z ; ItemIsBufExOption
  02d23	83 c4 08	 add	 esp, 8

; 1215 : 
; 1216 : 		LogAddTD("[Hidden TreasureBox Event] [%s][%s] Event ItemDrop : (%d)(%d/%d) Item:(%s)%d Level:%d op1:%d op2:%d op3:%d exop:[%d,%d,%d,%d,%d,%d]",
; 1217 : 			lpObj->AccountID, lpObj->Name, lpObj->MapNumber, lpObj->X, lpObj->Y,
; 1218 : 			ItemAttribute[objTempItem.m_Type].Name, objTempItem.m_Type,
; 1219 : 			objTempItem.m_Level, objTempItem.m_Option1, objTempItem.m_Option2,
; 1220 : 			objTempItem.m_Option3, NewOption[0], NewOption[1], NewOption[2], NewOption[3], NewOption[4], NewOption[5]);

  02d26	0f b6 85 1d ff
	ff ff		 movzx	 eax, BYTE PTR _NewOption$233608[ebp+5]
  02d2d	50		 push	 eax
  02d2e	0f b6 8d 1c ff
	ff ff		 movzx	 ecx, BYTE PTR _NewOption$233608[ebp+4]
  02d35	51		 push	 ecx
  02d36	0f b6 95 1b ff
	ff ff		 movzx	 edx, BYTE PTR _NewOption$233608[ebp+3]
  02d3d	52		 push	 edx
  02d3e	0f b6 85 1a ff
	ff ff		 movzx	 eax, BYTE PTR _NewOption$233608[ebp+2]
  02d45	50		 push	 eax
  02d46	0f b6 8d 19 ff
	ff ff		 movzx	 ecx, BYTE PTR _NewOption$233608[ebp+1]
  02d4d	51		 push	 ecx
  02d4e	0f b6 95 18 ff
	ff ff		 movzx	 edx, BYTE PTR _NewOption$233608[ebp]
  02d55	52		 push	 edx
  02d56	0f b6 45 be	 movzx	 eax, BYTE PTR _objTempItem$[ebp+150]
  02d5a	50		 push	 eax
  02d5b	0f b6 4d bd	 movzx	 ecx, BYTE PTR _objTempItem$[ebp+149]
  02d5f	51		 push	 ecx
  02d60	0f b6 55 bc	 movzx	 edx, BYTE PTR _objTempItem$[ebp+148]
  02d64	52		 push	 edx
  02d65	0f bf 85 30 ff
	ff ff		 movsx	 eax, WORD PTR _objTempItem$[ebp+8]
  02d6c	50		 push	 eax
  02d6d	0f bf 8d 2e ff
	ff ff		 movsx	 ecx, WORD PTR _objTempItem$[ebp+6]
  02d74	51		 push	 ecx
  02d75	0f bf 95 2e ff
	ff ff		 movsx	 edx, WORD PTR _objTempItem$[ebp+6]
  02d7c	6b d2 70	 imul	 edx, 112		; 00000070H
  02d7f	81 c2 00 00 00
	00		 add	 edx, OFFSET ?ItemAttribute@@3PAUITEM_ATTRIBUTE@@A ; ItemAttribute
  02d85	52		 push	 edx
  02d86	8b 45 08	 mov	 eax, DWORD PTR _lpObj$[ebp]
  02d89	0f bf 88 46 01
	00 00		 movsx	 ecx, WORD PTR [eax+326]
  02d90	51		 push	 ecx
  02d91	8b 55 08	 mov	 edx, DWORD PTR _lpObj$[ebp]
  02d94	0f bf 82 44 01
	00 00		 movsx	 eax, WORD PTR [edx+324]
  02d9b	50		 push	 eax
  02d9c	8b 4d 08	 mov	 ecx, DWORD PTR _lpObj$[ebp]
  02d9f	0f b6 91 49 01
	00 00		 movzx	 edx, BYTE PTR [ecx+329]
  02da6	52		 push	 edx
  02da7	8b 45 08	 mov	 eax, DWORD PTR _lpObj$[ebp]
  02daa	83 c0 77	 add	 eax, 119		; 00000077H
  02dad	50		 push	 eax
  02dae	8b 4d 08	 mov	 ecx, DWORD PTR _lpObj$[ebp]
  02db1	83 c1 6c	 add	 ecx, 108		; 0000006cH
  02db4	51		 push	 ecx
  02db5	68 00 00 00 00	 push	 OFFSET ??_C@_0IE@EJGNIEKI@?$FLHidden?5TreasureBox?5Event?$FN?5?$FL?$CFs?$FN?$FL@
  02dba	ff 15 00 00 00
	00		 call	 DWORD PTR ?LogAddTD@@3P6AXPADZZA ; LogAddTD
  02dc0	83 c4 48	 add	 esp, 72			; 00000048H

; 1221 : 	}
; 1222 : 	else

  02dc3	e9 86 00 00 00	 jmp	 $LN1@HiddenTrea
$LN8@HiddenTrea:

; 1223 : 	{
; 1224 : 		int money = 200000;

  02dc8	c7 85 14 ff ff
	ff 40 0d 03 00	 mov	 DWORD PTR _money$233611[ebp], 200000 ; 00030d40H

; 1225 : 		MapC[lpObj->MapNumber].MoneyItemDrop(money, lpObj->X, lpObj->Y);

  02dd2	8b 45 08	 mov	 eax, DWORD PTR _lpObj$[ebp]
  02dd5	0f bf 88 46 01
	00 00		 movsx	 ecx, WORD PTR [eax+326]
  02ddc	51		 push	 ecx
  02ddd	8b 55 08	 mov	 edx, DWORD PTR _lpObj$[ebp]
  02de0	0f bf 82 44 01
	00 00		 movsx	 eax, WORD PTR [edx+324]
  02de7	50		 push	 eax
  02de8	8b 8d 14 ff ff
	ff		 mov	 ecx, DWORD PTR _money$233611[ebp]
  02dee	51		 push	 ecx
  02def	8b 55 08	 mov	 edx, DWORD PTR _lpObj$[ebp]
  02df2	0f b6 8a 49 01
	00 00		 movzx	 ecx, BYTE PTR [edx+329]
  02df9	69 c9 b8 3d 05
	00		 imul	 ecx, 343480		; 00053db8H
  02dff	81 c1 00 00 00
	00		 add	 ecx, OFFSET ?MapC@@3PAVMapClass@@A ; MapC
  02e05	e8 00 00 00 00	 call	 ?MoneyItemDrop@MapClass@@QAEHHHH@Z ; MapClass::MoneyItemDrop

; 1226 : 
; 1227 : 		LogAddTD("[Hidden TreasureBox Event] [%s][%s] Event ZenDrop : %d : (%d)(%d/%d)",
; 1228 : 			lpObj->AccountID, lpObj->Name, money, lpObj->MapNumber, lpObj->X, lpObj->Y);

  02e0a	8b 45 08	 mov	 eax, DWORD PTR _lpObj$[ebp]
  02e0d	0f bf 88 46 01
	00 00		 movsx	 ecx, WORD PTR [eax+326]
  02e14	51		 push	 ecx
  02e15	8b 55 08	 mov	 edx, DWORD PTR _lpObj$[ebp]
  02e18	0f bf 82 44 01
	00 00		 movsx	 eax, WORD PTR [edx+324]
  02e1f	50		 push	 eax
  02e20	8b 4d 08	 mov	 ecx, DWORD PTR _lpObj$[ebp]
  02e23	0f b6 91 49 01
	00 00		 movzx	 edx, BYTE PTR [ecx+329]
  02e2a	52		 push	 edx
  02e2b	8b 85 14 ff ff
	ff		 mov	 eax, DWORD PTR _money$233611[ebp]
  02e31	50		 push	 eax
  02e32	8b 4d 08	 mov	 ecx, DWORD PTR _lpObj$[ebp]
  02e35	83 c1 77	 add	 ecx, 119		; 00000077H
  02e38	51		 push	 ecx
  02e39	8b 55 08	 mov	 edx, DWORD PTR _lpObj$[ebp]
  02e3c	83 c2 6c	 add	 edx, 108		; 0000006cH
  02e3f	52		 push	 edx
  02e40	68 00 00 00 00	 push	 OFFSET ??_C@_0EF@GOCIBGLO@?$FLHidden?5TreasureBox?5Event?$FN?5?$FL?$CFs?$FN?$FL@
  02e45	ff 15 00 00 00
	00		 call	 DWORD PTR ?LogAddTD@@3P6AXPADZZA ; LogAddTD
  02e4b	83 c4 1c	 add	 esp, 28			; 0000001cH
$LN1@HiddenTrea:
$LN10@HiddenTrea:

; 1229 : 	}
; 1230 : }

  02e4e	5f		 pop	 edi
  02e4f	5e		 pop	 esi
  02e50	5b		 pop	 ebx
  02e51	8b 4d fc	 mov	 ecx, DWORD PTR __$ArrayPad$[ebp]
  02e54	33 cd		 xor	 ecx, ebp
  02e56	e8 00 00 00 00	 call	 @__security_check_cookie@4
  02e5b	8b e5		 mov	 esp, ebp
  02e5d	5d		 pop	 ebp
  02e5e	c3		 ret	 0
?HiddenTreasureBoxItemBoxOpen@@YAXPAUOBJECTSTRUCT@@@Z ENDP ; HiddenTreasureBoxItemBoxOpen
_TEXT	ENDS
PUBLIC	?RedRibbonBoxOpen@@YAXPAUOBJECTSTRUCT@@@Z	; RedRibbonBoxOpen
EXTRN	?DropRedRibbonBoxEventItem@CItemBagEx@@QAEHH@Z:PROC ; CItemBagEx::DropRedRibbonBoxEventItem
EXTRN	?RedRibbonBoxEventItemBag@@3PAVCItemBagEx@@A:DWORD ; RedRibbonBoxEventItemBag
; Function compile flags: /Odtp /ZI
_TEXT	SEGMENT
_lpObj$ = 8						; size = 4
?RedRibbonBoxOpen@@YAXPAUOBJECTSTRUCT@@@Z PROC		; RedRibbonBoxOpen

; 1234 : {

  02e60	55		 push	 ebp
  02e61	8b ec		 mov	 ebp, esp
  02e63	83 ec 40	 sub	 esp, 64			; 00000040H
  02e66	53		 push	 ebx
  02e67	56		 push	 esi
  02e68	57		 push	 edi

; 1235 : 	RedRibbonBoxEventItemBag->DropRedRibbonBoxEventItem(lpObj->m_Index);

  02e69	8b 45 08	 mov	 eax, DWORD PTR _lpObj$[ebp]
  02e6c	8b 08		 mov	 ecx, DWORD PTR [eax]
  02e6e	51		 push	 ecx
  02e6f	8b 0d 00 00 00
	00		 mov	 ecx, DWORD PTR ?RedRibbonBoxEventItemBag@@3PAVCItemBagEx@@A ; RedRibbonBoxEventItemBag
  02e75	e8 00 00 00 00	 call	 ?DropRedRibbonBoxEventItem@CItemBagEx@@QAEHH@Z ; CItemBagEx::DropRedRibbonBoxEventItem

; 1236 : }

  02e7a	5f		 pop	 edi
  02e7b	5e		 pop	 esi
  02e7c	5b		 pop	 ebx
  02e7d	8b e5		 mov	 esp, ebp
  02e7f	5d		 pop	 ebp
  02e80	c3		 ret	 0
?RedRibbonBoxOpen@@YAXPAUOBJECTSTRUCT@@@Z ENDP		; RedRibbonBoxOpen
_TEXT	ENDS
PUBLIC	?GreenRibbonBoxOpen@@YAXPAUOBJECTSTRUCT@@@Z	; GreenRibbonBoxOpen
EXTRN	?DropGreenRibbonBoxEventItem@CItemBagEx@@QAEHH@Z:PROC ; CItemBagEx::DropGreenRibbonBoxEventItem
EXTRN	?GreenRibbonBoxEventItemBag@@3PAVCItemBagEx@@A:DWORD ; GreenRibbonBoxEventItemBag
; Function compile flags: /Odtp /ZI
_TEXT	SEGMENT
_lpObj$ = 8						; size = 4
?GreenRibbonBoxOpen@@YAXPAUOBJECTSTRUCT@@@Z PROC	; GreenRibbonBoxOpen

; 1240 : {

  02e90	55		 push	 ebp
  02e91	8b ec		 mov	 ebp, esp
  02e93	83 ec 40	 sub	 esp, 64			; 00000040H
  02e96	53		 push	 ebx
  02e97	56		 push	 esi
  02e98	57		 push	 edi

; 1241 : 	GreenRibbonBoxEventItemBag->DropGreenRibbonBoxEventItem(lpObj->m_Index);

  02e99	8b 45 08	 mov	 eax, DWORD PTR _lpObj$[ebp]
  02e9c	8b 08		 mov	 ecx, DWORD PTR [eax]
  02e9e	51		 push	 ecx
  02e9f	8b 0d 00 00 00
	00		 mov	 ecx, DWORD PTR ?GreenRibbonBoxEventItemBag@@3PAVCItemBagEx@@A ; GreenRibbonBoxEventItemBag
  02ea5	e8 00 00 00 00	 call	 ?DropGreenRibbonBoxEventItem@CItemBagEx@@QAEHH@Z ; CItemBagEx::DropGreenRibbonBoxEventItem

; 1242 : }

  02eaa	5f		 pop	 edi
  02eab	5e		 pop	 esi
  02eac	5b		 pop	 ebx
  02ead	8b e5		 mov	 esp, ebp
  02eaf	5d		 pop	 ebp
  02eb0	c3		 ret	 0
?GreenRibbonBoxOpen@@YAXPAUOBJECTSTRUCT@@@Z ENDP	; GreenRibbonBoxOpen
_TEXT	ENDS
PUBLIC	?BlueRibbonBoxOpen@@YAXPAUOBJECTSTRUCT@@@Z	; BlueRibbonBoxOpen
EXTRN	?DropBlueRibbonBoxEventItem@CItemBagEx@@QAEHH@Z:PROC ; CItemBagEx::DropBlueRibbonBoxEventItem
EXTRN	?BlueRibbonBoxEventItemBag@@3PAVCItemBagEx@@A:DWORD ; BlueRibbonBoxEventItemBag
; Function compile flags: /Odtp /ZI
_TEXT	SEGMENT
_lpObj$ = 8						; size = 4
?BlueRibbonBoxOpen@@YAXPAUOBJECTSTRUCT@@@Z PROC		; BlueRibbonBoxOpen

; 1246 : {

  02ec0	55		 push	 ebp
  02ec1	8b ec		 mov	 ebp, esp
  02ec3	83 ec 40	 sub	 esp, 64			; 00000040H
  02ec6	53		 push	 ebx
  02ec7	56		 push	 esi
  02ec8	57		 push	 edi

; 1247 : 	BlueRibbonBoxEventItemBag->DropBlueRibbonBoxEventItem(lpObj->m_Index);

  02ec9	8b 45 08	 mov	 eax, DWORD PTR _lpObj$[ebp]
  02ecc	8b 08		 mov	 ecx, DWORD PTR [eax]
  02ece	51		 push	 ecx
  02ecf	8b 0d 00 00 00
	00		 mov	 ecx, DWORD PTR ?BlueRibbonBoxEventItemBag@@3PAVCItemBagEx@@A ; BlueRibbonBoxEventItemBag
  02ed5	e8 00 00 00 00	 call	 ?DropBlueRibbonBoxEventItem@CItemBagEx@@QAEHH@Z ; CItemBagEx::DropBlueRibbonBoxEventItem

; 1248 : }

  02eda	5f		 pop	 edi
  02edb	5e		 pop	 esi
  02edc	5b		 pop	 ebx
  02edd	8b e5		 mov	 esp, ebp
  02edf	5d		 pop	 ebp
  02ee0	c3		 ret	 0
?BlueRibbonBoxOpen@@YAXPAUOBJECTSTRUCT@@@Z ENDP		; BlueRibbonBoxOpen
_TEXT	ENDS
PUBLIC	?PinkChocolateBoxOpen@@YAXPAUOBJECTSTRUCT@@@Z	; PinkChocolateBoxOpen
EXTRN	?DropPinkChocolateBoxEventItem@CItemBagEx@@QAEHH@Z:PROC ; CItemBagEx::DropPinkChocolateBoxEventItem
EXTRN	?PinkChocolateBoxEventItemBag@@3PAVCItemBagEx@@A:DWORD ; PinkChocolateBoxEventItemBag
; Function compile flags: /Odtp /ZI
_TEXT	SEGMENT
_lpObj$ = 8						; size = 4
?PinkChocolateBoxOpen@@YAXPAUOBJECTSTRUCT@@@Z PROC	; PinkChocolateBoxOpen

; 1252 : {

  02ef0	55		 push	 ebp
  02ef1	8b ec		 mov	 ebp, esp
  02ef3	83 ec 40	 sub	 esp, 64			; 00000040H
  02ef6	53		 push	 ebx
  02ef7	56		 push	 esi
  02ef8	57		 push	 edi

; 1253 : 	PinkChocolateBoxEventItemBag->DropPinkChocolateBoxEventItem(lpObj->m_Index);

  02ef9	8b 45 08	 mov	 eax, DWORD PTR _lpObj$[ebp]
  02efc	8b 08		 mov	 ecx, DWORD PTR [eax]
  02efe	51		 push	 ecx
  02eff	8b 0d 00 00 00
	00		 mov	 ecx, DWORD PTR ?PinkChocolateBoxEventItemBag@@3PAVCItemBagEx@@A ; PinkChocolateBoxEventItemBag
  02f05	e8 00 00 00 00	 call	 ?DropPinkChocolateBoxEventItem@CItemBagEx@@QAEHH@Z ; CItemBagEx::DropPinkChocolateBoxEventItem

; 1254 : }

  02f0a	5f		 pop	 edi
  02f0b	5e		 pop	 esi
  02f0c	5b		 pop	 ebx
  02f0d	8b e5		 mov	 esp, ebp
  02f0f	5d		 pop	 ebp
  02f10	c3		 ret	 0
?PinkChocolateBoxOpen@@YAXPAUOBJECTSTRUCT@@@Z ENDP	; PinkChocolateBoxOpen
_TEXT	ENDS
PUBLIC	?RedChocolateBoxOpen@@YAXPAUOBJECTSTRUCT@@@Z	; RedChocolateBoxOpen
EXTRN	?DropRedChocolateBoxEventItem@CItemBagEx@@QAEHH@Z:PROC ; CItemBagEx::DropRedChocolateBoxEventItem
EXTRN	?RedChocolateBoxEventItemBag@@3PAVCItemBagEx@@A:DWORD ; RedChocolateBoxEventItemBag
; Function compile flags: /Odtp /ZI
_TEXT	SEGMENT
_lpObj$ = 8						; size = 4
?RedChocolateBoxOpen@@YAXPAUOBJECTSTRUCT@@@Z PROC	; RedChocolateBoxOpen

; 1258 : {

  02f20	55		 push	 ebp
  02f21	8b ec		 mov	 ebp, esp
  02f23	83 ec 40	 sub	 esp, 64			; 00000040H
  02f26	53		 push	 ebx
  02f27	56		 push	 esi
  02f28	57		 push	 edi

; 1259 : 	RedChocolateBoxEventItemBag->DropRedChocolateBoxEventItem(lpObj->m_Index);

  02f29	8b 45 08	 mov	 eax, DWORD PTR _lpObj$[ebp]
  02f2c	8b 08		 mov	 ecx, DWORD PTR [eax]
  02f2e	51		 push	 ecx
  02f2f	8b 0d 00 00 00
	00		 mov	 ecx, DWORD PTR ?RedChocolateBoxEventItemBag@@3PAVCItemBagEx@@A ; RedChocolateBoxEventItemBag
  02f35	e8 00 00 00 00	 call	 ?DropRedChocolateBoxEventItem@CItemBagEx@@QAEHH@Z ; CItemBagEx::DropRedChocolateBoxEventItem

; 1260 : }

  02f3a	5f		 pop	 edi
  02f3b	5e		 pop	 esi
  02f3c	5b		 pop	 ebx
  02f3d	8b e5		 mov	 esp, ebp
  02f3f	5d		 pop	 ebp
  02f40	c3		 ret	 0
?RedChocolateBoxOpen@@YAXPAUOBJECTSTRUCT@@@Z ENDP	; RedChocolateBoxOpen
_TEXT	ENDS
PUBLIC	?BlueChocolateBoxOpen@@YAXPAUOBJECTSTRUCT@@@Z	; BlueChocolateBoxOpen
EXTRN	?DropBlueChocolateBoxEventItem@CItemBagEx@@QAEHH@Z:PROC ; CItemBagEx::DropBlueChocolateBoxEventItem
EXTRN	?BlueChocolateBoxEventItemBag@@3PAVCItemBagEx@@A:DWORD ; BlueChocolateBoxEventItemBag
; Function compile flags: /Odtp /ZI
_TEXT	SEGMENT
_lpObj$ = 8						; size = 4
?BlueChocolateBoxOpen@@YAXPAUOBJECTSTRUCT@@@Z PROC	; BlueChocolateBoxOpen

; 1264 : {

  02f50	55		 push	 ebp
  02f51	8b ec		 mov	 ebp, esp
  02f53	83 ec 40	 sub	 esp, 64			; 00000040H
  02f56	53		 push	 ebx
  02f57	56		 push	 esi
  02f58	57		 push	 edi

; 1265 : 	BlueChocolateBoxEventItemBag->DropBlueChocolateBoxEventItem(lpObj->m_Index);

  02f59	8b 45 08	 mov	 eax, DWORD PTR _lpObj$[ebp]
  02f5c	8b 08		 mov	 ecx, DWORD PTR [eax]
  02f5e	51		 push	 ecx
  02f5f	8b 0d 00 00 00
	00		 mov	 ecx, DWORD PTR ?BlueChocolateBoxEventItemBag@@3PAVCItemBagEx@@A ; BlueChocolateBoxEventItemBag
  02f65	e8 00 00 00 00	 call	 ?DropBlueChocolateBoxEventItem@CItemBagEx@@QAEHH@Z ; CItemBagEx::DropBlueChocolateBoxEventItem

; 1266 : }

  02f6a	5f		 pop	 edi
  02f6b	5e		 pop	 esi
  02f6c	5b		 pop	 ebx
  02f6d	8b e5		 mov	 esp, ebp
  02f6f	5d		 pop	 ebp
  02f70	c3		 ret	 0
?BlueChocolateBoxOpen@@YAXPAUOBJECTSTRUCT@@@Z ENDP	; BlueChocolateBoxOpen
_TEXT	ENDS
PUBLIC	?LightPurpleCandyBoxOpen@@YAXPAUOBJECTSTRUCT@@@Z ; LightPurpleCandyBoxOpen
EXTRN	?DropLightPurpleCandyBoxEventItem@CItemBagEx@@QAEHH@Z:PROC ; CItemBagEx::DropLightPurpleCandyBoxEventItem
EXTRN	?LightPurpleCandyBoxEventItemBag@@3PAVCItemBagEx@@A:DWORD ; LightPurpleCandyBoxEventItemBag
; Function compile flags: /Odtp /ZI
_TEXT	SEGMENT
_lpObj$ = 8						; size = 4
?LightPurpleCandyBoxOpen@@YAXPAUOBJECTSTRUCT@@@Z PROC	; LightPurpleCandyBoxOpen

; 1270 : {

  02f80	55		 push	 ebp
  02f81	8b ec		 mov	 ebp, esp
  02f83	83 ec 40	 sub	 esp, 64			; 00000040H
  02f86	53		 push	 ebx
  02f87	56		 push	 esi
  02f88	57		 push	 edi

; 1271 : 	LightPurpleCandyBoxEventItemBag->DropLightPurpleCandyBoxEventItem(lpObj->m_Index);

  02f89	8b 45 08	 mov	 eax, DWORD PTR _lpObj$[ebp]
  02f8c	8b 08		 mov	 ecx, DWORD PTR [eax]
  02f8e	51		 push	 ecx
  02f8f	8b 0d 00 00 00
	00		 mov	 ecx, DWORD PTR ?LightPurpleCandyBoxEventItemBag@@3PAVCItemBagEx@@A ; LightPurpleCandyBoxEventItemBag
  02f95	e8 00 00 00 00	 call	 ?DropLightPurpleCandyBoxEventItem@CItemBagEx@@QAEHH@Z ; CItemBagEx::DropLightPurpleCandyBoxEventItem

; 1272 : }

  02f9a	5f		 pop	 edi
  02f9b	5e		 pop	 esi
  02f9c	5b		 pop	 ebx
  02f9d	8b e5		 mov	 esp, ebp
  02f9f	5d		 pop	 ebp
  02fa0	c3		 ret	 0
?LightPurpleCandyBoxOpen@@YAXPAUOBJECTSTRUCT@@@Z ENDP	; LightPurpleCandyBoxOpen
_TEXT	ENDS
PUBLIC	?VermilionCandyBoxOpen@@YAXPAUOBJECTSTRUCT@@@Z	; VermilionCandyBoxOpen
EXTRN	?DropVermilionCandyBoxEventItem@CItemBagEx@@QAEHH@Z:PROC ; CItemBagEx::DropVermilionCandyBoxEventItem
EXTRN	?VermilionCandyBoxEventItemBag@@3PAVCItemBagEx@@A:DWORD ; VermilionCandyBoxEventItemBag
; Function compile flags: /Odtp /ZI
_TEXT	SEGMENT
_lpObj$ = 8						; size = 4
?VermilionCandyBoxOpen@@YAXPAUOBJECTSTRUCT@@@Z PROC	; VermilionCandyBoxOpen

; 1276 : {

  02fb0	55		 push	 ebp
  02fb1	8b ec		 mov	 ebp, esp
  02fb3	83 ec 40	 sub	 esp, 64			; 00000040H
  02fb6	53		 push	 ebx
  02fb7	56		 push	 esi
  02fb8	57		 push	 edi

; 1277 : 	VermilionCandyBoxEventItemBag->DropVermilionCandyBoxEventItem(lpObj->m_Index);

  02fb9	8b 45 08	 mov	 eax, DWORD PTR _lpObj$[ebp]
  02fbc	8b 08		 mov	 ecx, DWORD PTR [eax]
  02fbe	51		 push	 ecx
  02fbf	8b 0d 00 00 00
	00		 mov	 ecx, DWORD PTR ?VermilionCandyBoxEventItemBag@@3PAVCItemBagEx@@A ; VermilionCandyBoxEventItemBag
  02fc5	e8 00 00 00 00	 call	 ?DropVermilionCandyBoxEventItem@CItemBagEx@@QAEHH@Z ; CItemBagEx::DropVermilionCandyBoxEventItem

; 1278 : }

  02fca	5f		 pop	 edi
  02fcb	5e		 pop	 esi
  02fcc	5b		 pop	 ebx
  02fcd	8b e5		 mov	 esp, ebp
  02fcf	5d		 pop	 ebp
  02fd0	c3		 ret	 0
?VermilionCandyBoxOpen@@YAXPAUOBJECTSTRUCT@@@Z ENDP	; VermilionCandyBoxOpen
_TEXT	ENDS
PUBLIC	?DeepBlueCandyBoxOpen@@YAXPAUOBJECTSTRUCT@@@Z	; DeepBlueCandyBoxOpen
EXTRN	?DropDeepBlueCandyBoxEventItem@CItemBagEx@@QAEHH@Z:PROC ; CItemBagEx::DropDeepBlueCandyBoxEventItem
EXTRN	?DeepBlueCandyBoxEventItemBag@@3PAVCItemBagEx@@A:DWORD ; DeepBlueCandyBoxEventItemBag
; Function compile flags: /Odtp /ZI
_TEXT	SEGMENT
_lpObj$ = 8						; size = 4
?DeepBlueCandyBoxOpen@@YAXPAUOBJECTSTRUCT@@@Z PROC	; DeepBlueCandyBoxOpen

; 1282 : {

  02fe0	55		 push	 ebp
  02fe1	8b ec		 mov	 ebp, esp
  02fe3	83 ec 40	 sub	 esp, 64			; 00000040H
  02fe6	53		 push	 ebx
  02fe7	56		 push	 esi
  02fe8	57		 push	 edi

; 1283 : 	DeepBlueCandyBoxEventItemBag->DropDeepBlueCandyBoxEventItem(lpObj->m_Index);

  02fe9	8b 45 08	 mov	 eax, DWORD PTR _lpObj$[ebp]
  02fec	8b 08		 mov	 ecx, DWORD PTR [eax]
  02fee	51		 push	 ecx
  02fef	8b 0d 00 00 00
	00		 mov	 ecx, DWORD PTR ?DeepBlueCandyBoxEventItemBag@@3PAVCItemBagEx@@A ; DeepBlueCandyBoxEventItemBag
  02ff5	e8 00 00 00 00	 call	 ?DropDeepBlueCandyBoxEventItem@CItemBagEx@@QAEHH@Z ; CItemBagEx::DropDeepBlueCandyBoxEventItem

; 1284 : }

  02ffa	5f		 pop	 edi
  02ffb	5e		 pop	 esi
  02ffc	5b		 pop	 ebx
  02ffd	8b e5		 mov	 esp, ebp
  02fff	5d		 pop	 ebp
  03000	c3		 ret	 0
?DeepBlueCandyBoxOpen@@YAXPAUOBJECTSTRUCT@@@Z ENDP	; DeepBlueCandyBoxOpen
_TEXT	ENDS
PUBLIC	?KundunEventItemBoxOpen@@YAXPAUOBJECTSTRUCT@@EEE@Z ; KundunEventItemBoxOpen
EXTRN	?DropKundunEventItem@CItemBagEx@@QAEHHEEE@Z:PROC ; CItemBagEx::DropKundunEventItem
EXTRN	?KundunEventItemBag@@3PAVCItemBagEx@@A:DWORD	; KundunEventItemBag
; Function compile flags: /Odtp /ZI
_TEXT	SEGMENT
_lpObj$ = 8						; size = 4
_btMapNumber$ = 12					; size = 1
_cX$ = 16						; size = 1
_cY$ = 20						; size = 1
?KundunEventItemBoxOpen@@YAXPAUOBJECTSTRUCT@@EEE@Z PROC	; KundunEventItemBoxOpen

; 1288 : {

  03010	55		 push	 ebp
  03011	8b ec		 mov	 ebp, esp
  03013	83 ec 40	 sub	 esp, 64			; 00000040H
  03016	53		 push	 ebx
  03017	56		 push	 esi
  03018	57		 push	 edi

; 1289 : 	KundunEventItemBag->DropKundunEventItem(lpObj->m_Index, btMapNumber, cX, cY);

  03019	0f b6 45 14	 movzx	 eax, BYTE PTR _cY$[ebp]
  0301d	50		 push	 eax
  0301e	0f b6 4d 10	 movzx	 ecx, BYTE PTR _cX$[ebp]
  03022	51		 push	 ecx
  03023	0f b6 55 0c	 movzx	 edx, BYTE PTR _btMapNumber$[ebp]
  03027	52		 push	 edx
  03028	8b 45 08	 mov	 eax, DWORD PTR _lpObj$[ebp]
  0302b	8b 08		 mov	 ecx, DWORD PTR [eax]
  0302d	51		 push	 ecx
  0302e	8b 0d 00 00 00
	00		 mov	 ecx, DWORD PTR ?KundunEventItemBag@@3PAVCItemBagEx@@A ; KundunEventItemBag
  03034	e8 00 00 00 00	 call	 ?DropKundunEventItem@CItemBagEx@@QAEHHEEE@Z ; CItemBagEx::DropKundunEventItem

; 1290 : }

  03039	5f		 pop	 edi
  0303a	5e		 pop	 esi
  0303b	5b		 pop	 ebx
  0303c	8b e5		 mov	 esp, ebp
  0303e	5d		 pop	 ebp
  0303f	c3		 ret	 0
?KundunEventItemBoxOpen@@YAXPAUOBJECTSTRUCT@@EEE@Z ENDP	; KundunEventItemBoxOpen
_TEXT	ENDS
PUBLIC	?HallowinDayEventItemBoxOpen@@YAXPAUOBJECTSTRUCT@@@Z ; HallowinDayEventItemBoxOpen
EXTRN	?DropHallowinEventItem@CItemBagEx@@QAEHPAUOBJECTSTRUCT@@@Z:PROC ; CItemBagEx::DropHallowinEventItem
EXTRN	?HallowinDayEventItemBag@@3PAVCItemBagEx@@A:DWORD ; HallowinDayEventItemBag
; Function compile flags: /Odtp /ZI
_TEXT	SEGMENT
_lpObj$ = 8						; size = 4
?HallowinDayEventItemBoxOpen@@YAXPAUOBJECTSTRUCT@@@Z PROC ; HallowinDayEventItemBoxOpen

; 1294 : {

  03040	55		 push	 ebp
  03041	8b ec		 mov	 ebp, esp
  03043	83 ec 40	 sub	 esp, 64			; 00000040H
  03046	53		 push	 ebx
  03047	56		 push	 esi
  03048	57		 push	 edi

; 1295 : 	HallowinDayEventItemBag->DropHallowinEventItem(lpObj);

  03049	8b 45 08	 mov	 eax, DWORD PTR _lpObj$[ebp]
  0304c	50		 push	 eax
  0304d	8b 0d 00 00 00
	00		 mov	 ecx, DWORD PTR ?HallowinDayEventItemBag@@3PAVCItemBagEx@@A ; HallowinDayEventItemBag
  03053	e8 00 00 00 00	 call	 ?DropHallowinEventItem@CItemBagEx@@QAEHPAUOBJECTSTRUCT@@@Z ; CItemBagEx::DropHallowinEventItem

; 1296 : }

  03058	5f		 pop	 edi
  03059	5e		 pop	 esi
  0305a	5b		 pop	 ebx
  0305b	8b e5		 mov	 esp, ebp
  0305d	5d		 pop	 ebp
  0305e	c3		 ret	 0
?HallowinDayEventItemBoxOpen@@YAXPAUOBJECTSTRUCT@@@Z ENDP ; HallowinDayEventItemBoxOpen
_TEXT	ENDS
PUBLIC	?ChristmasStarDrop@@YAXPAUOBJECTSTRUCT@@@Z	; ChristmasStarDrop
; Function compile flags: /Odtp /ZI
_TEXT	SEGMENT
_ServerCmd$ = -8					; size = 7
_lpObj$ = 8						; size = 4
?ChristmasStarDrop@@YAXPAUOBJECTSTRUCT@@@Z PROC		; ChristmasStarDrop

; 1300 : {

  03060	55		 push	 ebp
  03061	8b ec		 mov	 ebp, esp
  03063	83 ec 48	 sub	 esp, 72			; 00000048H
  03066	53		 push	 ebx
  03067	56		 push	 esi
  03068	57		 push	 edi

; 1301 : 	PMSG_SERVERCMD ServerCmd;
; 1302 : 
; 1303 : 	PHeadSubSetB((LPBYTE)&ServerCmd, 0xF3, 0x40, sizeof(ServerCmd));

  03069	6a 07		 push	 7
  0306b	6a 40		 push	 64			; 00000040H
  0306d	68 f3 00 00 00	 push	 243			; 000000f3H
  03072	8d 45 f8	 lea	 eax, DWORD PTR _ServerCmd$[ebp]
  03075	50		 push	 eax
  03076	e8 00 00 00 00	 call	 ?PHeadSubSetB@@YAXPAEEEH@Z ; PHeadSubSetB
  0307b	83 c4 10	 add	 esp, 16			; 00000010H

; 1304 : 	ServerCmd.CmdType = 0;

  0307e	c6 45 fc 00	 mov	 BYTE PTR _ServerCmd$[ebp+4], 0

; 1305 : 	ServerCmd.X = lpObj->X;

  03082	8b 45 08	 mov	 eax, DWORD PTR _lpObj$[ebp]
  03085	8a 88 44 01 00
	00		 mov	 cl, BYTE PTR [eax+324]
  0308b	88 4d fd	 mov	 BYTE PTR _ServerCmd$[ebp+5], cl

; 1306 : 	ServerCmd.Y = lpObj->Y;

  0308e	8b 45 08	 mov	 eax, DWORD PTR _lpObj$[ebp]
  03091	8a 88 46 01 00
	00		 mov	 cl, BYTE PTR [eax+326]
  03097	88 4d fe	 mov	 BYTE PTR _ServerCmd$[ebp+6], cl

; 1307 : 	MsgSendV2(lpObj, (LPBYTE)&ServerCmd, sizeof(ServerCmd));

  0309a	6a 07		 push	 7
  0309c	8d 45 f8	 lea	 eax, DWORD PTR _ServerCmd$[ebp]
  0309f	50		 push	 eax
  030a0	8b 4d 08	 mov	 ecx, DWORD PTR _lpObj$[ebp]
  030a3	51		 push	 ecx
  030a4	e8 00 00 00 00	 call	 ?MsgSendV2@@YAXPAUOBJECTSTRUCT@@PAEH@Z ; MsgSendV2
  030a9	83 c4 0c	 add	 esp, 12			; 0000000cH

; 1308 : 	DataSend(lpObj->m_Index, (LPBYTE)&ServerCmd, sizeof(ServerCmd));

  030ac	6a 07		 push	 7
  030ae	8d 45 f8	 lea	 eax, DWORD PTR _ServerCmd$[ebp]
  030b1	50		 push	 eax
  030b2	8b 4d 08	 mov	 ecx, DWORD PTR _lpObj$[ebp]
  030b5	8b 11		 mov	 edx, DWORD PTR [ecx]
  030b7	52		 push	 edx
  030b8	e8 00 00 00 00	 call	 ?DataSend@@YAHHPAEK@Z	; DataSend
  030bd	83 c4 0c	 add	 esp, 12			; 0000000cH

; 1309 : }

  030c0	5f		 pop	 edi
  030c1	5e		 pop	 esi
  030c2	5b		 pop	 ebx
  030c3	8b e5		 mov	 esp, ebp
  030c5	5d		 pop	 ebp
  030c6	c3		 ret	 0
?ChristmasStarDrop@@YAXPAUOBJECTSTRUCT@@@Z ENDP		; ChristmasStarDrop
_TEXT	ENDS
PUBLIC	?ChristmasFireCrackDrop@@YAXPAUOBJECTSTRUCT@@@Z	; ChristmasFireCrackDrop
; Function compile flags: /Odtp /ZI
_TEXT	SEGMENT
_ServerCmd$ = -8					; size = 7
_lpObj$ = 8						; size = 4
?ChristmasFireCrackDrop@@YAXPAUOBJECTSTRUCT@@@Z PROC	; ChristmasFireCrackDrop

; 1312 : {

  030d0	55		 push	 ebp
  030d1	8b ec		 mov	 ebp, esp
  030d3	83 ec 48	 sub	 esp, 72			; 00000048H
  030d6	53		 push	 ebx
  030d7	56		 push	 esi
  030d8	57		 push	 edi

; 1313 : 	PMSG_SERVERCMD ServerCmd;
; 1314 : 
; 1315 : 	PHeadSubSetB((LPBYTE)&ServerCmd, 0xF3, 0x40, sizeof(ServerCmd));

  030d9	6a 07		 push	 7
  030db	6a 40		 push	 64			; 00000040H
  030dd	68 f3 00 00 00	 push	 243			; 000000f3H
  030e2	8d 45 f8	 lea	 eax, DWORD PTR _ServerCmd$[ebp]
  030e5	50		 push	 eax
  030e6	e8 00 00 00 00	 call	 ?PHeadSubSetB@@YAXPAEEEH@Z ; PHeadSubSetB
  030eb	83 c4 10	 add	 esp, 16			; 00000010H

; 1316 : 	ServerCmd.CmdType = 59;

  030ee	c6 45 fc 3b	 mov	 BYTE PTR _ServerCmd$[ebp+4], 59 ; 0000003bH

; 1317 : 	ServerCmd.X = lpObj->X;

  030f2	8b 45 08	 mov	 eax, DWORD PTR _lpObj$[ebp]
  030f5	8a 88 44 01 00
	00		 mov	 cl, BYTE PTR [eax+324]
  030fb	88 4d fd	 mov	 BYTE PTR _ServerCmd$[ebp+5], cl

; 1318 : 	ServerCmd.Y = lpObj->Y;

  030fe	8b 45 08	 mov	 eax, DWORD PTR _lpObj$[ebp]
  03101	8a 88 46 01 00
	00		 mov	 cl, BYTE PTR [eax+326]
  03107	88 4d fe	 mov	 BYTE PTR _ServerCmd$[ebp+6], cl

; 1319 : 	MsgSendV2(lpObj, (LPBYTE)&ServerCmd, sizeof(ServerCmd));

  0310a	6a 07		 push	 7
  0310c	8d 45 f8	 lea	 eax, DWORD PTR _ServerCmd$[ebp]
  0310f	50		 push	 eax
  03110	8b 4d 08	 mov	 ecx, DWORD PTR _lpObj$[ebp]
  03113	51		 push	 ecx
  03114	e8 00 00 00 00	 call	 ?MsgSendV2@@YAXPAUOBJECTSTRUCT@@PAEH@Z ; MsgSendV2
  03119	83 c4 0c	 add	 esp, 12			; 0000000cH

; 1320 : 	DataSend(lpObj->m_Index, (LPBYTE)&ServerCmd, sizeof(ServerCmd));

  0311c	6a 07		 push	 7
  0311e	8d 45 f8	 lea	 eax, DWORD PTR _ServerCmd$[ebp]
  03121	50		 push	 eax
  03122	8b 4d 08	 mov	 ecx, DWORD PTR _lpObj$[ebp]
  03125	8b 11		 mov	 edx, DWORD PTR [ecx]
  03127	52		 push	 edx
  03128	e8 00 00 00 00	 call	 ?DataSend@@YAHHPAEK@Z	; DataSend
  0312d	83 c4 0c	 add	 esp, 12			; 0000000cH

; 1321 : }

  03130	5f		 pop	 edi
  03131	5e		 pop	 esi
  03132	5b		 pop	 ebx
  03133	8b e5		 mov	 esp, ebp
  03135	5d		 pop	 ebp
  03136	c3		 ret	 0
?ChristmasFireCrackDrop@@YAXPAUOBJECTSTRUCT@@@Z ENDP	; ChristmasFireCrackDrop
_TEXT	ENDS
PUBLIC	?CherryBlossomEventItemBoxOpen@@YAXPAUOBJECTSTRUCT@@EEE@Z ; CherryBlossomEventItemBoxOpen
EXTRN	?DropItem@CProbabilityItemBag@@QAEHHEEEPAH@Z:PROC ; CProbabilityItemBag::DropItem
EXTRN	?CherryBlossom1@@3PAVCProbabilityItemBag@@A:DWORD ; CherryBlossom1
; Function compile flags: /Odtp /ZI
_TEXT	SEGMENT
_ServerCmd$233670 = -8					; size = 7
_lpObj$ = 8						; size = 4
_btMapNumber$ = 12					; size = 1
_cX$ = 16						; size = 1
_cY$ = 20						; size = 1
?CherryBlossomEventItemBoxOpen@@YAXPAUOBJECTSTRUCT@@EEE@Z PROC ; CherryBlossomEventItemBoxOpen

; 1324 : {

  03140	55		 push	 ebp
  03141	8b ec		 mov	 ebp, esp
  03143	83 ec 48	 sub	 esp, 72			; 00000048H
  03146	53		 push	 ebx
  03147	56		 push	 esi
  03148	57		 push	 edi

; 1325 : 	if(CherryBlossom1->DropItem(lpObj->m_Index, btMapNumber, cX, cY, 0) != 0)

  03149	6a 00		 push	 0
