; Listing generated by Microsoft (R) Optimizing Compiler Version 16.00.40219.01 

	TITLE	D:\Projects\ExTeam6.3\Source\GameServer\GameServer\EventManagement.cpp
	.686P
	.XMM
	include listing.inc
	.model	flat

INCLUDELIB LIBCMT
INCLUDELIB OLDNAMES

PUBLIC	??_H@YGXPAXIHP6EPAX0@Z@Z			; `vector constructor iterator'
; Function compile flags: /Odtp /ZI
;	COMDAT ??_H@YGXPAXIHP6EPAX0@Z@Z
_TEXT	SEGMENT
___t$ = 8						; size = 4
___s$ = 12						; size = 4
___n$ = 16						; size = 4
___f$ = 20						; size = 4
??_H@YGXPAXIHP6EPAX0@Z@Z PROC				; `vector constructor iterator', COMDAT
  00000	55		 push	 ebp
  00001	8b ec		 mov	 ebp, esp
  00003	83 ec 40	 sub	 esp, 64			; 00000040H
  00006	53		 push	 ebx
  00007	56		 push	 esi
  00008	57		 push	 edi
$LN2@vector:
  00009	8b 45 10	 mov	 eax, DWORD PTR ___n$[ebp]
  0000c	83 e8 01	 sub	 eax, 1
  0000f	89 45 10	 mov	 DWORD PTR ___n$[ebp], eax
  00012	78 11		 js	 SHORT $LN3@vector
  00014	8b 4d 08	 mov	 ecx, DWORD PTR ___t$[ebp]
  00017	ff 55 14	 call	 DWORD PTR ___f$[ebp]
  0001a	8b 45 08	 mov	 eax, DWORD PTR ___t$[ebp]
  0001d	03 45 0c	 add	 eax, DWORD PTR ___s$[ebp]
  00020	89 45 08	 mov	 DWORD PTR ___t$[ebp], eax
  00023	eb e4		 jmp	 SHORT $LN2@vector
$LN3@vector:
  00025	5f		 pop	 edi
  00026	5e		 pop	 esi
  00027	5b		 pop	 ebx
  00028	8b e5		 mov	 esp, ebp
  0002a	5d		 pop	 ebp
  0002b	c2 10 00	 ret	 16			; 00000010H
??_H@YGXPAXIHP6EPAX0@Z@Z ENDP				; `vector constructor iterator'
_TEXT	ENDS
PUBLIC	??1?$map@HPAXU?$less@H@std@@V?$allocator@U?$pair@$$CBHPAX@std@@@2@@std@@QAE@XZ ; std::map<int,void *,std::less<int>,std::allocator<std::pair<int const ,void *> > >::~map<int,void *,std::less<int>,std::allocator<std::pair<int const ,void *> > >
PUBLIC	??1?$vector@UEVENT_ID_TIME@@V?$allocator@UEVENT_ID_TIME@@@std@@@std@@QAE@XZ ; std::vector<EVENT_ID_TIME,std::allocator<EVENT_ID_TIME> >::~vector<EVENT_ID_TIME,std::allocator<EVENT_ID_TIME> >
PUBLIC	?Clear@CEventManagement@@QAEXXZ			; CEventManagement::Clear
PUBLIC	??0?$map@HPAXU?$less@H@std@@V?$allocator@U?$pair@$$CBHPAX@std@@@2@@std@@QAE@XZ ; std::map<int,void *,std::less<int>,std::allocator<std::pair<int const ,void *> > >::map<int,void *,std::less<int>,std::allocator<std::pair<int const ,void *> > >
PUBLIC	??0?$vector@UEVENT_ID_TIME@@V?$allocator@UEVENT_ID_TIME@@@std@@@std@@QAE@XZ ; std::vector<EVENT_ID_TIME,std::allocator<EVENT_ID_TIME> >::vector<EVENT_ID_TIME,std::allocator<EVENT_ID_TIME> >
PUBLIC	??_7CEventManagement@@6B@			; CEventManagement::`vftable'
PUBLIC	??0CEventManagement@@QAE@XZ			; CEventManagement::CEventManagement
PUBLIC	??_R4CEventManagement@@6B@			; CEventManagement::`RTTI Complete Object Locator'
PUBLIC	??_R0?AVCEventManagement@@@8			; CEventManagement `RTTI Type Descriptor'
PUBLIC	??_R3CEventManagement@@8			; CEventManagement::`RTTI Class Hierarchy Descriptor'
PUBLIC	??_R2CEventManagement@@8			; CEventManagement::`RTTI Base Class Array'
PUBLIC	??_R1A@?0A@EA@CEventManagement@@8		; CEventManagement::`RTTI Base Class Descriptor at (0,-1,0,64)'
EXTRN	___security_cookie:DWORD
EXTRN	___CxxFrameHandler3:PROC
EXTRN	@__security_check_cookie@4:PROC
EXTRN	??_7type_info@@6B@:QWORD			; type_info::`vftable'
EXTRN	??_ECEventManagement@@UAEPAXI@Z:PROC		; CEventManagement::`vector deleting destructor'
;	COMDAT ??_R1A@?0A@EA@CEventManagement@@8
; File d:\projects\exteam6.3\source\gameserver\gameserver\eventmanagement.cpp
rdata$r	SEGMENT
??_R1A@?0A@EA@CEventManagement@@8 DD FLAT:??_R0?AVCEventManagement@@@8 ; CEventManagement::`RTTI Base Class Descriptor at (0,-1,0,64)'
	DD	00H
	DD	00H
	DD	0ffffffffH
	DD	00H
	DD	040H
	DD	FLAT:??_R3CEventManagement@@8
rdata$r	ENDS
;	COMDAT ??_R2CEventManagement@@8
rdata$r	SEGMENT
??_R2CEventManagement@@8 DD FLAT:??_R1A@?0A@EA@CEventManagement@@8 ; CEventManagement::`RTTI Base Class Array'
rdata$r	ENDS
;	COMDAT ??_R3CEventManagement@@8
rdata$r	SEGMENT
??_R3CEventManagement@@8 DD 00H				; CEventManagement::`RTTI Class Hierarchy Descriptor'
	DD	00H
	DD	01H
	DD	FLAT:??_R2CEventManagement@@8
rdata$r	ENDS
;	COMDAT ??_R0?AVCEventManagement@@@8
_DATA	SEGMENT
??_R0?AVCEventManagement@@@8 DD FLAT:??_7type_info@@6B@	; CEventManagement `RTTI Type Descriptor'
	DD	00H
	DB	'.?AVCEventManagement@@', 00H
_DATA	ENDS
;	COMDAT ??_R4CEventManagement@@6B@
rdata$r	SEGMENT
??_R4CEventManagement@@6B@ DD 00H			; CEventManagement::`RTTI Complete Object Locator'
	DD	00H
	DD	00H
	DD	FLAT:??_R0?AVCEventManagement@@@8
	DD	FLAT:??_R3CEventManagement@@8
rdata$r	ENDS
;	COMDAT ??_7CEventManagement@@6B@
CONST	SEGMENT
??_7CEventManagement@@6B@ DD FLAT:??_R4CEventManagement@@6B@ ; CEventManagement::`vftable'
	DD	FLAT:??_ECEventManagement@@UAEPAXI@Z
CONST	ENDS
xdata$x	SEGMENT
__unwindtable$??0CEventManagement@@QAE@XZ DD 0ffffffffH
	DD	FLAT:__unwindfunclet$??0CEventManagement@@QAE@XZ$0
	DD	00H
	DD	FLAT:__unwindfunclet$??0CEventManagement@@QAE@XZ$1
__ehfuncinfo$??0CEventManagement@@QAE@XZ DD 019930522H
	DD	02H
	DD	FLAT:__unwindtable$??0CEventManagement@@QAE@XZ
	DD	2 DUP(00H)
	DD	2 DUP(00H)
	DD	00H
	DD	01H
; Function compile flags: /Odtp /ZI
xdata$x	ENDS
_TEXT	SEGMENT
_this$ = -16						; size = 4
__$EHRec$ = -12						; size = 12
??0CEventManagement@@QAE@XZ PROC			; CEventManagement::CEventManagement
; _this$ = ecx

; 16   : {

  00000	55		 push	 ebp
  00001	8b ec		 mov	 ebp, esp
  00003	6a ff		 push	 -1
  00005	68 00 00 00 00	 push	 __ehhandler$??0CEventManagement@@QAE@XZ
  0000a	64 a1 00 00 00
	00		 mov	 eax, DWORD PTR fs:0
  00010	50		 push	 eax
  00011	83 ec 44	 sub	 esp, 68			; 00000044H
  00014	53		 push	 ebx
  00015	56		 push	 esi
  00016	57		 push	 edi
  00017	a1 00 00 00 00	 mov	 eax, DWORD PTR ___security_cookie
  0001c	33 c5		 xor	 eax, ebp
  0001e	50		 push	 eax
  0001f	8d 45 f4	 lea	 eax, DWORD PTR __$EHRec$[ebp]
  00022	64 a3 00 00 00
	00		 mov	 DWORD PTR fs:0, eax
  00028	89 4d f0	 mov	 DWORD PTR _this$[ebp], ecx
  0002b	8b 45 f0	 mov	 eax, DWORD PTR _this$[ebp]
  0002e	c7 00 00 00 00
	00		 mov	 DWORD PTR [eax], OFFSET ??_7CEventManagement@@6B@
  00034	8b 4d f0	 mov	 ecx, DWORD PTR _this$[ebp]
  00037	83 c1 0c	 add	 ecx, 12			; 0000000cH
  0003a	e8 00 00 00 00	 call	 ??0?$vector@UEVENT_ID_TIME@@V?$allocator@UEVENT_ID_TIME@@@std@@@std@@QAE@XZ ; std::vector<EVENT_ID_TIME,std::allocator<EVENT_ID_TIME> >::vector<EVENT_ID_TIME,std::allocator<EVENT_ID_TIME> >
  0003f	c7 45 fc 00 00
	00 00		 mov	 DWORD PTR __$EHRec$[ebp+8], 0
  00046	8b 4d f0	 mov	 ecx, DWORD PTR _this$[ebp]
  00049	83 c1 1c	 add	 ecx, 28			; 0000001cH
  0004c	e8 00 00 00 00	 call	 ??0?$map@HPAXU?$less@H@std@@V?$allocator@U?$pair@$$CBHPAX@std@@@2@@std@@QAE@XZ ; std::map<int,void *,std::less<int>,std::allocator<std::pair<int const ,void *> > >::map<int,void *,std::less<int>,std::allocator<std::pair<int const ,void *> > >
  00051	c6 45 fc 01	 mov	 BYTE PTR __$EHRec$[ebp+8], 1

; 17   : 	this->m_bEventStart = false;

  00055	8b 45 f0	 mov	 eax, DWORD PTR _this$[ebp]
  00058	c7 40 04 00 00
	00 00		 mov	 DWORD PTR [eax+4], 0

; 18   : 	this->m_bHasData = false;

  0005f	8b 45 f0	 mov	 eax, DWORD PTR _this$[ebp]
  00062	c7 40 08 00 00
	00 00		 mov	 DWORD PTR [eax+8], 0

; 19   : 	this->Clear();

  00069	8b 4d f0	 mov	 ecx, DWORD PTR _this$[ebp]
  0006c	e8 00 00 00 00	 call	 ?Clear@CEventManagement@@QAEXXZ ; CEventManagement::Clear

; 20   : }

  00071	c7 45 fc ff ff
	ff ff		 mov	 DWORD PTR __$EHRec$[ebp+8], -1
  00078	8b 45 f0	 mov	 eax, DWORD PTR _this$[ebp]
  0007b	8b 4d f4	 mov	 ecx, DWORD PTR __$EHRec$[ebp]
  0007e	64 89 0d 00 00
	00 00		 mov	 DWORD PTR fs:0, ecx
  00085	59		 pop	 ecx
  00086	5f		 pop	 edi
  00087	5e		 pop	 esi
  00088	5b		 pop	 ebx
  00089	8b e5		 mov	 esp, ebp
  0008b	5d		 pop	 ebp
  0008c	c3		 ret	 0
_TEXT	ENDS
text$x	SEGMENT
__unwindfunclet$??0CEventManagement@@QAE@XZ$0:
  00000	8b 4d f0	 mov	 ecx, DWORD PTR _this$[ebp]
  00003	83 c1 0c	 add	 ecx, 12			; 0000000cH
  00006	e9 00 00 00 00	 jmp	 ??1?$vector@UEVENT_ID_TIME@@V?$allocator@UEVENT_ID_TIME@@@std@@@std@@QAE@XZ ; std::vector<EVENT_ID_TIME,std::allocator<EVENT_ID_TIME> >::~vector<EVENT_ID_TIME,std::allocator<EVENT_ID_TIME> >
__unwindfunclet$??0CEventManagement@@QAE@XZ$1:
  0000b	8b 4d f0	 mov	 ecx, DWORD PTR _this$[ebp]
  0000e	83 c1 1c	 add	 ecx, 28			; 0000001cH
  00011	e9 00 00 00 00	 jmp	 ??1?$map@HPAXU?$less@H@std@@V?$allocator@U?$pair@$$CBHPAX@std@@@2@@std@@QAE@XZ
__ehhandler$??0CEventManagement@@QAE@XZ:
  00016	8b 54 24 08	 mov	 edx, DWORD PTR [esp+8]
  0001a	8d 42 0c	 lea	 eax, DWORD PTR [edx+12]
  0001d	8b 4a ac	 mov	 ecx, DWORD PTR [edx-84]
  00020	33 c8		 xor	 ecx, eax
  00022	e8 00 00 00 00	 call	 @__security_check_cookie@4
  00027	b8 00 00 00 00	 mov	 eax, OFFSET __ehfuncinfo$??0CEventManagement@@QAE@XZ
  0002c	e9 00 00 00 00	 jmp	 ___CxxFrameHandler3
text$x	ENDS
??0CEventManagement@@QAE@XZ ENDP			; CEventManagement::CEventManagement
PUBLIC	??1CEventManagement@@UAE@XZ			; CEventManagement::~CEventManagement
EXTRN	??3@YAXPAX@Z:PROC				; operator delete
; Function compile flags: /Odtp /ZI
;	COMDAT ??_GCEventManagement@@UAEPAXI@Z
_TEXT	SEGMENT
_this$ = -4						; size = 4
___flags$ = 8						; size = 4
??_GCEventManagement@@UAEPAXI@Z PROC			; CEventManagement::`scalar deleting destructor', COMDAT
; _this$ = ecx
  00000	55		 push	 ebp
  00001	8b ec		 mov	 ebp, esp
  00003	83 ec 44	 sub	 esp, 68			; 00000044H
  00006	53		 push	 ebx
  00007	56		 push	 esi
  00008	57		 push	 edi
  00009	89 4d fc	 mov	 DWORD PTR _this$[ebp], ecx
  0000c	8b 4d fc	 mov	 ecx, DWORD PTR _this$[ebp]
  0000f	e8 00 00 00 00	 call	 ??1CEventManagement@@UAE@XZ ; CEventManagement::~CEventManagement
  00014	8b 45 08	 mov	 eax, DWORD PTR ___flags$[ebp]
  00017	83 e0 01	 and	 eax, 1
  0001a	74 0c		 je	 SHORT $LN1@scalar
  0001c	8b 45 fc	 mov	 eax, DWORD PTR _this$[ebp]
  0001f	50		 push	 eax
  00020	e8 00 00 00 00	 call	 ??3@YAXPAX@Z		; operator delete
  00025	83 c4 04	 add	 esp, 4
$LN1@scalar:
  00028	8b 45 fc	 mov	 eax, DWORD PTR _this$[ebp]
  0002b	5f		 pop	 edi
  0002c	5e		 pop	 esi
  0002d	5b		 pop	 ebx
  0002e	8b e5		 mov	 esp, ebp
  00030	5d		 pop	 ebp
  00031	c2 04 00	 ret	 4
??_GCEventManagement@@UAEPAXI@Z ENDP			; CEventManagement::`scalar deleting destructor'
_TEXT	ENDS
PUBLIC	??1?$_Tree@V?$_Tmap_traits@HPAXU?$less@H@std@@V?$allocator@U?$pair@$$CBHPAX@std@@@2@$0A@@std@@@std@@QAE@XZ ; std::_Tree<std::_Tmap_traits<int,void *,std::less<int>,std::allocator<std::pair<int const ,void *> >,0> >::~_Tree<std::_Tmap_traits<int,void *,std::less<int>,std::allocator<std::pair<int const ,void *> >,0> >
; Function compile flags: /Odtp /ZI
;	COMDAT ??1?$map@HPAXU?$less@H@std@@V?$allocator@U?$pair@$$CBHPAX@std@@@2@@std@@QAE@XZ
_TEXT	SEGMENT
_this$ = -4						; size = 4
??1?$map@HPAXU?$less@H@std@@V?$allocator@U?$pair@$$CBHPAX@std@@@2@@std@@QAE@XZ PROC ; std::map<int,void *,std::less<int>,std::allocator<std::pair<int const ,void *> > >::~map<int,void *,std::less<int>,std::allocator<std::pair<int const ,void *> > >, COMDAT
; _this$ = ecx
  00000	55		 push	 ebp
  00001	8b ec		 mov	 ebp, esp
  00003	83 ec 44	 sub	 esp, 68			; 00000044H
  00006	53		 push	 ebx
  00007	56		 push	 esi
  00008	57		 push	 edi
  00009	89 4d fc	 mov	 DWORD PTR _this$[ebp], ecx
  0000c	8b 4d fc	 mov	 ecx, DWORD PTR _this$[ebp]
  0000f	e8 00 00 00 00	 call	 ??1?$_Tree@V?$_Tmap_traits@HPAXU?$less@H@std@@V?$allocator@U?$pair@$$CBHPAX@std@@@2@$0A@@std@@@std@@QAE@XZ ; std::_Tree<std::_Tmap_traits<int,void *,std::less<int>,std::allocator<std::pair<int const ,void *> >,0> >::~_Tree<std::_Tmap_traits<int,void *,std::less<int>,std::allocator<std::pair<int const ,void *> >,0> >
  00014	5f		 pop	 edi
  00015	5e		 pop	 esi
  00016	5b		 pop	 ebx
  00017	8b e5		 mov	 esp, ebp
  00019	5d		 pop	 ebp
  0001a	c3		 ret	 0
??1?$map@HPAXU?$less@H@std@@V?$allocator@U?$pair@$$CBHPAX@std@@@2@@std@@QAE@XZ ENDP ; std::map<int,void *,std::less<int>,std::allocator<std::pair<int const ,void *> > >::~map<int,void *,std::less<int>,std::allocator<std::pair<int const ,void *> > >
_TEXT	ENDS
xdata$x	SEGMENT
__unwindtable$??1CEventManagement@@UAE@XZ DD 0ffffffffH
	DD	FLAT:__unwindfunclet$??1CEventManagement@@UAE@XZ$0
__ehfuncinfo$??1CEventManagement@@UAE@XZ DD 019930522H
	DD	01H
	DD	FLAT:__unwindtable$??1CEventManagement@@UAE@XZ
	DD	2 DUP(00H)
	DD	2 DUP(00H)
	DD	00H
	DD	01H
; Function compile flags: /Odtp /ZI
xdata$x	ENDS
_TEXT	SEGMENT
_this$ = -16						; size = 4
__$EHRec$ = -12						; size = 12
??1CEventManagement@@UAE@XZ PROC			; CEventManagement::~CEventManagement
; _this$ = ecx

; 23   : {

  00090	55		 push	 ebp
  00091	8b ec		 mov	 ebp, esp
  00093	6a ff		 push	 -1
  00095	68 00 00 00 00	 push	 __ehhandler$??1CEventManagement@@UAE@XZ
  0009a	64 a1 00 00 00
	00		 mov	 eax, DWORD PTR fs:0
  000a0	50		 push	 eax
  000a1	83 ec 44	 sub	 esp, 68			; 00000044H
  000a4	53		 push	 ebx
  000a5	56		 push	 esi
  000a6	57		 push	 edi
  000a7	a1 00 00 00 00	 mov	 eax, DWORD PTR ___security_cookie
  000ac	33 c5		 xor	 eax, ebp
  000ae	50		 push	 eax
  000af	8d 45 f4	 lea	 eax, DWORD PTR __$EHRec$[ebp]
  000b2	64 a3 00 00 00
	00		 mov	 DWORD PTR fs:0, eax
  000b8	89 4d f0	 mov	 DWORD PTR _this$[ebp], ecx
  000bb	8b 45 f0	 mov	 eax, DWORD PTR _this$[ebp]
  000be	c7 00 00 00 00
	00		 mov	 DWORD PTR [eax], OFFSET ??_7CEventManagement@@6B@
  000c4	c7 45 fc 00 00
	00 00		 mov	 DWORD PTR __$EHRec$[ebp+8], 0

; 24   : 	return;
; 25   : }

  000cb	8b 4d f0	 mov	 ecx, DWORD PTR _this$[ebp]
  000ce	83 c1 1c	 add	 ecx, 28			; 0000001cH
  000d1	e8 00 00 00 00	 call	 ??1?$map@HPAXU?$less@H@std@@V?$allocator@U?$pair@$$CBHPAX@std@@@2@@std@@QAE@XZ
  000d6	c7 45 fc ff ff
	ff ff		 mov	 DWORD PTR __$EHRec$[ebp+8], -1
  000dd	8b 4d f0	 mov	 ecx, DWORD PTR _this$[ebp]
  000e0	83 c1 0c	 add	 ecx, 12			; 0000000cH
  000e3	e8 00 00 00 00	 call	 ??1?$vector@UEVENT_ID_TIME@@V?$allocator@UEVENT_ID_TIME@@@std@@@std@@QAE@XZ ; std::vector<EVENT_ID_TIME,std::allocator<EVENT_ID_TIME> >::~vector<EVENT_ID_TIME,std::allocator<EVENT_ID_TIME> >
  000e8	8b 4d f4	 mov	 ecx, DWORD PTR __$EHRec$[ebp]
  000eb	64 89 0d 00 00
	00 00		 mov	 DWORD PTR fs:0, ecx
  000f2	59		 pop	 ecx
  000f3	5f		 pop	 edi
  000f4	5e		 pop	 esi
  000f5	5b		 pop	 ebx
  000f6	8b e5		 mov	 esp, ebp
  000f8	5d		 pop	 ebp
  000f9	c3		 ret	 0
_TEXT	ENDS
text$x	SEGMENT
__unwindfunclet$??1CEventManagement@@UAE@XZ$0:
  00031	8b 4d f0	 mov	 ecx, DWORD PTR _this$[ebp]
  00034	83 c1 0c	 add	 ecx, 12			; 0000000cH
  00037	e9 00 00 00 00	 jmp	 ??1?$vector@UEVENT_ID_TIME@@V?$allocator@UEVENT_ID_TIME@@@std@@@std@@QAE@XZ ; std::vector<EVENT_ID_TIME,std::allocator<EVENT_ID_TIME> >::~vector<EVENT_ID_TIME,std::allocator<EVENT_ID_TIME> >
__ehhandler$??1CEventManagement@@UAE@XZ:
  0003c	8b 54 24 08	 mov	 edx, DWORD PTR [esp+8]
  00040	8d 42 0c	 lea	 eax, DWORD PTR [edx+12]
  00043	8b 4a ac	 mov	 ecx, DWORD PTR [edx-84]
  00046	33 c8		 xor	 ecx, eax
  00048	e8 00 00 00 00	 call	 @__security_check_cookie@4
  0004d	b8 00 00 00 00	 mov	 eax, OFFSET __ehfuncinfo$??1CEventManagement@@UAE@XZ
  00052	e9 00 00 00 00	 jmp	 ___CxxFrameHandler3
text$x	ENDS
??1CEventManagement@@UAE@XZ ENDP			; CEventManagement::~CEventManagement
PUBLIC	?clear@?$_Tree@V?$_Tmap_traits@HPAXU?$less@H@std@@V?$allocator@U?$pair@$$CBHPAX@std@@@2@$0A@@std@@@std@@QAEXXZ ; std::_Tree<std::_Tmap_traits<int,void *,std::less<int>,std::allocator<std::pair<int const ,void *> >,0> >::clear
PUBLIC	?clear@?$vector@UEVENT_ID_TIME@@V?$allocator@UEVENT_ID_TIME@@@std@@@std@@QAEXXZ ; std::vector<EVENT_ID_TIME,std::allocator<EVENT_ID_TIME> >::clear
; Function compile flags: /Odtp /ZI
_TEXT	SEGMENT
_this$ = -4						; size = 4
?Clear@CEventManagement@@QAEXXZ PROC			; CEventManagement::Clear
; _this$ = ecx

; 28   : {

  00100	55		 push	 ebp
  00101	8b ec		 mov	 ebp, esp
  00103	83 ec 44	 sub	 esp, 68			; 00000044H
  00106	53		 push	 ebx
  00107	56		 push	 esi
  00108	57		 push	 edi
  00109	89 4d fc	 mov	 DWORD PTR _this$[ebp], ecx

; 29   : 	this->m_vtEventTime.clear();

  0010c	8b 4d fc	 mov	 ecx, DWORD PTR _this$[ebp]
  0010f	83 c1 0c	 add	 ecx, 12			; 0000000cH
  00112	e8 00 00 00 00	 call	 ?clear@?$vector@UEVENT_ID_TIME@@V?$allocator@UEVENT_ID_TIME@@@std@@@std@@QAEXXZ ; std::vector<EVENT_ID_TIME,std::allocator<EVENT_ID_TIME> >::clear

; 30   : 	this->m_mapEventObj.clear();

  00117	8b 4d fc	 mov	 ecx, DWORD PTR _this$[ebp]
  0011a	83 c1 1c	 add	 ecx, 28			; 0000001cH
  0011d	e8 00 00 00 00	 call	 ?clear@?$_Tree@V?$_Tmap_traits@HPAXU?$less@H@std@@V?$allocator@U?$pair@$$CBHPAX@std@@@2@$0A@@std@@@std@@QAEXXZ ; std::_Tree<std::_Tmap_traits<int,void *,std::less<int>,std::allocator<std::pair<int const ,void *> >,0> >::clear

; 31   : 	this->m_wToday_Year = 0;

  00122	33 c0		 xor	 eax, eax
  00124	8b 4d fc	 mov	 ecx, DWORD PTR _this$[ebp]
  00127	66 89 41 2c	 mov	 WORD PTR [ecx+44], ax

; 32   : 	this->m_wToday_Month = 0;

  0012b	33 c0		 xor	 eax, eax
  0012d	8b 4d fc	 mov	 ecx, DWORD PTR _this$[ebp]
  00130	66 89 41 2e	 mov	 WORD PTR [ecx+46], ax

; 33   : 	this->m_wToday_Day = 0;

  00134	33 c0		 xor	 eax, eax
  00136	8b 4d fc	 mov	 ecx, DWORD PTR _this$[ebp]
  00139	66 89 41 30	 mov	 WORD PTR [ecx+48], ax

; 34   : }

  0013d	5f		 pop	 edi
  0013e	5e		 pop	 esi
  0013f	5b		 pop	 ebx
  00140	8b e5		 mov	 esp, ebp
  00142	5d		 pop	 ebp
  00143	c3		 ret	 0
?Clear@CEventManagement@@QAEXXZ ENDP			; CEventManagement::Clear
_TEXT	ENDS
PUBLIC	?SetMenualStart@CRingAttackEvent@@QAEXH@Z	; CRingAttackEvent::SetMenualStart
PUBLIC	?SetMenualStart@CEledoradoEvent@@QAEXH@Z	; CEledoradoEvent::SetMenualStart
PUBLIC	?SetMenualStart@CAttackEvent@@QAEXH@Z		; CAttackEvent::SetMenualStart
PUBLIC	??D?$_Vector_iterator@V?$_Vector_val@UEVENT_ID_TIME@@V?$allocator@UEVENT_ID_TIME@@@std@@@std@@@std@@QBEAAUEVENT_ID_TIME@@XZ ; std::_Vector_iterator<std::_Vector_val<EVENT_ID_TIME,std::allocator<EVENT_ID_TIME> > >::operator*
PUBLIC	??9?$_Vector_const_iterator@V?$_Vector_val@UEVENT_ID_TIME@@V?$allocator@UEVENT_ID_TIME@@@std@@@std@@@std@@QBE_NABV01@@Z ; std::_Vector_const_iterator<std::_Vector_val<EVENT_ID_TIME,std::allocator<EVENT_ID_TIME> > >::operator!=
PUBLIC	?end@?$vector@UEVENT_ID_TIME@@V?$allocator@UEVENT_ID_TIME@@@std@@@std@@QAE?AV?$_Vector_iterator@V?$_Vector_val@UEVENT_ID_TIME@@V?$allocator@UEVENT_ID_TIME@@@std@@@std@@@2@XZ ; std::vector<EVENT_ID_TIME,std::allocator<EVENT_ID_TIME> >::end
PUBLIC	??E?$_Vector_iterator@V?$_Vector_val@UEVENT_ID_TIME@@V?$allocator@UEVENT_ID_TIME@@@std@@@std@@@std@@QAE?AV01@H@Z ; std::_Vector_iterator<std::_Vector_val<EVENT_ID_TIME,std::allocator<EVENT_ID_TIME> > >::operator++
PUBLIC	?begin@?$vector@UEVENT_ID_TIME@@V?$allocator@UEVENT_ID_TIME@@@std@@@std@@QAE?AV?$_Vector_iterator@V?$_Vector_val@UEVENT_ID_TIME@@V?$allocator@UEVENT_ID_TIME@@@std@@@std@@@2@XZ ; std::vector<EVENT_ID_TIME,std::allocator<EVENT_ID_TIME> >::begin
PUBLIC	?SetMenualStart@CDragonEvent@@QAEXH@Z		; CDragonEvent::SetMenualStart
PUBLIC	??C?$_Tree_iterator@V?$_Tree_val@V?$_Tmap_traits@HPAXU?$less@H@std@@V?$allocator@U?$pair@$$CBHPAX@std@@@2@$0A@@std@@@std@@@std@@QBEPAU?$pair@$$CBHPAX@1@XZ ; std::_Tree_iterator<std::_Tree_val<std::_Tmap_traits<int,void *,std::less<int>,std::allocator<std::pair<int const ,void *> >,0> > >::operator->
PUBLIC	??9?$_Tree_const_iterator@V?$_Tree_val@V?$_Tmap_traits@HPAXU?$less@H@std@@V?$allocator@U?$pair@$$CBHPAX@std@@@2@$0A@@std@@@std@@@std@@QBE_NABV01@@Z ; std::_Tree_const_iterator<std::_Tree_val<std::_Tmap_traits<int,void *,std::less<int>,std::allocator<std::pair<int const ,void *> >,0> > >::operator!=
PUBLIC	?end@?$_Tree@V?$_Tmap_traits@HPAXU?$less@H@std@@V?$allocator@U?$pair@$$CBHPAX@std@@@2@$0A@@std@@@std@@QAE?AV?$_Tree_iterator@V?$_Tree_val@V?$_Tmap_traits@HPAXU?$less@H@std@@V?$allocator@U?$pair@$$CBHPAX@std@@@2@$0A@@std@@@std@@@2@XZ ; std::_Tree<std::_Tmap_traits<int,void *,std::less<int>,std::allocator<std::pair<int const ,void *> >,0> >::end
PUBLIC	?find@?$_Tree@V?$_Tmap_traits@HPAXU?$less@H@std@@V?$allocator@U?$pair@$$CBHPAX@std@@@2@$0A@@std@@@std@@QAE?AV?$_Tree_iterator@V?$_Tree_val@V?$_Tmap_traits@HPAXU?$less@H@std@@V?$allocator@U?$pair@$$CBHPAX@std@@@2@$0A@@std@@@std@@@2@ABH@Z ; std::_Tree<std::_Tmap_traits<int,void *,std::less<int>,std::allocator<std::pair<int const ,void *> >,0> >::find
PUBLIC	??0?$_Tree_iterator@V?$_Tree_val@V?$_Tmap_traits@HPAXU?$less@H@std@@V?$allocator@U?$pair@$$CBHPAX@std@@@2@$0A@@std@@@std@@@std@@QAE@XZ ; std::_Tree_iterator<std::_Tree_val<std::_Tmap_traits<int,void *,std::less<int>,std::allocator<std::pair<int const ,void *> >,0> > >::_Tree_iterator<std::_Tree_val<std::_Tmap_traits<int,void *,std::less<int>,std::allocator<std::pair<int const ,void *> >,0> > >
PUBLIC	__$ArrayPad$
PUBLIC	?Init@CEventManagement@@QAEXH@Z			; CEventManagement::Init
EXTRN	__imp__GetLocalTime@4:PROC
; Function compile flags: /Odtp /ZI
_TEXT	SEGMENT
$T227190 = -316						; size = 4
$T227191 = -312						; size = 4
$T227192 = -308						; size = 4
$T227193 = -304						; size = 4
$T227194 = -300						; size = 4
$T227195 = -296						; size = 4
$T227196 = -292						; size = 4
$T227197 = -288						; size = 4
$T227198 = -284						; size = 4
$T227199 = -280						; size = 4
$T227200 = -276						; size = 4
$T227201 = -272						; size = 4
$T227202 = -268						; size = 4
$T227203 = -264						; size = 4
$T227204 = -260						; size = 4
$T227205 = -256						; size = 4
$T227206 = -252						; size = 4
$T227207 = -248						; size = 4
$T227208 = -244						; size = 4
$T227209 = -240						; size = 4
$T227210 = -236						; size = 4
$T227211 = -232						; size = 4
$T227212 = -228						; size = 4
$T227213 = -224						; size = 4
$T227214 = -220						; size = 4
$T227215 = -216						; size = 4
$T227216 = -212						; size = 4
$T227217 = -208						; size = 4
$T227218 = -204						; size = 4
$T227219 = -200						; size = 4
$T227220 = -196						; size = 4
$T227221 = -192						; size = 4
$T227222 = -188						; size = 4
$T227223 = -184						; size = 4
$T227224 = -180						; size = 4
$T227225 = -176						; size = 4
$T227226 = -172						; size = 4
$T227227 = -168						; size = 4
$T227228 = -164						; size = 4
$T227229 = -160						; size = 4
_lpEvent$224114 = -92					; size = 4
_lpEvent$224108 = -88					; size = 4
_lpEvent$224102 = -84					; size = 4
_lpEvent$224096 = -80					; size = 4
_lpEvent$224090 = -76					; size = 4
__Itor$224085 = -72					; size = 4
_it$224063 = -68					; size = 4
_lpEvent$224057 = -64					; size = 4
_it$224045 = -60					; size = 4
_lpEvent$224039 = -56					; size = 4
_it$224027 = -52					; size = 4
_lpEvent$224021 = -48					; size = 4
_it$224009 = -44					; size = 4
_lpEvent$224003 = -40					; size = 4
_it$223975 = -36					; size = 4
_lpEvent$223693 = -32					; size = 4
__Itor$223672 = -28					; size = 4
_sysTime$223522 = -24					; size = 16
_this$ = -8						; size = 4
__$ArrayPad$ = -4					; size = 4
_bEventStart$ = 8					; size = 4
?Init@CEventManagement@@QAEXH@Z PROC			; CEventManagement::Init
; _this$ = ecx

; 37   : {

  00150	55		 push	 ebp
  00151	8b ec		 mov	 ebp, esp
  00153	81 ec 3c 01 00
	00		 sub	 esp, 316		; 0000013cH
  00159	a1 00 00 00 00	 mov	 eax, DWORD PTR ___security_cookie
  0015e	33 c5		 xor	 eax, ebp
  00160	89 45 fc	 mov	 DWORD PTR __$ArrayPad$[ebp], eax
  00163	53		 push	 ebx
  00164	56		 push	 esi
  00165	57		 push	 edi
  00166	89 4d f8	 mov	 DWORD PTR _this$[ebp], ecx

; 38   : 	this->m_bEventStart = bEventStart;

  00169	8b 45 f8	 mov	 eax, DWORD PTR _this$[ebp]
  0016c	8b 4d 08	 mov	 ecx, DWORD PTR _bEventStart$[ebp]
  0016f	89 48 04	 mov	 DWORD PTR [eax+4], ecx

; 39   : 
; 40   : 	if ( this->m_bHasData != false && this->m_bEventStart != false )

  00172	8b 45 f8	 mov	 eax, DWORD PTR _this$[ebp]
  00175	83 78 08 00	 cmp	 DWORD PTR [eax+8], 0
  00179	0f 84 0a 04 00
	00		 je	 $LN32@Init
  0017f	8b 45 f8	 mov	 eax, DWORD PTR _this$[ebp]
  00182	83 78 04 00	 cmp	 DWORD PTR [eax+4], 0
  00186	0f 84 fd 03 00
	00		 je	 $LN32@Init

; 41   : 	{
; 42   : 		SYSTEMTIME sysTime;
; 43   : 
; 44   : 		GetLocalTime(&sysTime);

  0018c	8d 45 e8	 lea	 eax, DWORD PTR _sysTime$223522[ebp]
  0018f	50		 push	 eax
  00190	ff 15 00 00 00
	00		 call	 DWORD PTR __imp__GetLocalTime@4

; 45   : 		this->m_wToday_Year = sysTime.wYear;

  00196	8b 45 f8	 mov	 eax, DWORD PTR _this$[ebp]
  00199	66 8b 4d e8	 mov	 cx, WORD PTR _sysTime$223522[ebp]
  0019d	66 89 48 2c	 mov	 WORD PTR [eax+44], cx

; 46   : 		this->m_wToday_Month = sysTime.wMonth;

  001a1	8b 45 f8	 mov	 eax, DWORD PTR _this$[ebp]
  001a4	66 8b 4d ea	 mov	 cx, WORD PTR _sysTime$223522[ebp+2]
  001a8	66 89 48 2e	 mov	 WORD PTR [eax+46], cx

; 47   : 		this->m_wToday_Day = sysTime.wDay;

  001ac	8b 45 f8	 mov	 eax, DWORD PTR _this$[ebp]
  001af	66 8b 4d ee	 mov	 cx, WORD PTR _sysTime$223522[ebp+6]
  001b3	66 89 48 30	 mov	 WORD PTR [eax+48], cx

; 48   : 
; 49   : 		std::map<int, void *>::iterator _Itor;

  001b7	8d 4d e4	 lea	 ecx, DWORD PTR __Itor$223672[ebp]
  001ba	e8 00 00 00 00	 call	 ??0?$_Tree_iterator@V?$_Tree_val@V?$_Tmap_traits@HPAXU?$less@H@std@@V?$allocator@U?$pair@$$CBHPAX@std@@@2@$0A@@std@@@std@@@std@@QAE@XZ ; std::_Tree_iterator<std::_Tree_val<std::_Tmap_traits<int,void *,std::less<int>,std::allocator<std::pair<int const ,void *> >,0> > >::_Tree_iterator<std::_Tree_val<std::_Tmap_traits<int,void *,std::less<int>,std::allocator<std::pair<int const ,void *> >,0> > >

; 50   : 		
; 51   : 		_Itor = this->m_mapEventObj.find(EVENT_ID_DRAGONHERD);

  001bf	c7 85 c4 fe ff
	ff 00 00 00 00	 mov	 DWORD PTR $T227190[ebp], 0
  001c9	8d 85 c4 fe ff
	ff		 lea	 eax, DWORD PTR $T227190[ebp]
  001cf	50		 push	 eax
  001d0	8d 8d c8 fe ff
	ff		 lea	 ecx, DWORD PTR $T227191[ebp]
  001d6	51		 push	 ecx
  001d7	8b 4d f8	 mov	 ecx, DWORD PTR _this$[ebp]
  001da	83 c1 1c	 add	 ecx, 28			; 0000001cH
  001dd	e8 00 00 00 00	 call	 ?find@?$_Tree@V?$_Tmap_traits@HPAXU?$less@H@std@@V?$allocator@U?$pair@$$CBHPAX@std@@@2@$0A@@std@@@std@@QAE?AV?$_Tree_iterator@V?$_Tree_val@V?$_Tmap_traits@HPAXU?$less@H@std@@V?$allocator@U?$pair@$$CBHPAX@std@@@2@$0A@@std@@@std@@@2@ABH@Z ; std::_Tree<std::_Tmap_traits<int,void *,std::less<int>,std::allocator<std::pair<int const ,void *> >,0> >::find
  001e2	8b 10		 mov	 edx, DWORD PTR [eax]
  001e4	89 55 e4	 mov	 DWORD PTR __Itor$223672[ebp], edx

; 52   : 
; 53   : 		if ( _Itor != this->m_mapEventObj.end() )

  001e7	8d 85 cc fe ff
	ff		 lea	 eax, DWORD PTR $T227192[ebp]
  001ed	50		 push	 eax
  001ee	8b 4d f8	 mov	 ecx, DWORD PTR _this$[ebp]
  001f1	83 c1 1c	 add	 ecx, 28			; 0000001cH
  001f4	e8 00 00 00 00	 call	 ?end@?$_Tree@V?$_Tmap_traits@HPAXU?$less@H@std@@V?$allocator@U?$pair@$$CBHPAX@std@@@2@$0A@@std@@@std@@QAE?AV?$_Tree_iterator@V?$_Tree_val@V?$_Tmap_traits@HPAXU?$less@H@std@@V?$allocator@U?$pair@$$CBHPAX@std@@@2@$0A@@std@@@std@@@2@XZ ; std::_Tree<std::_Tmap_traits<int,void *,std::less<int>,std::allocator<std::pair<int const ,void *> >,0> >::end
  001f9	50		 push	 eax
  001fa	8d 4d e4	 lea	 ecx, DWORD PTR __Itor$223672[ebp]
  001fd	e8 00 00 00 00	 call	 ??9?$_Tree_const_iterator@V?$_Tree_val@V?$_Tmap_traits@HPAXU?$less@H@std@@V?$allocator@U?$pair@$$CBHPAX@std@@@2@$0A@@std@@@std@@@std@@QBE_NABV01@@Z ; std::_Tree_const_iterator<std::_Tree_val<std::_Tmap_traits<int,void *,std::less<int>,std::allocator<std::pair<int const ,void *> >,0> > >::operator!=
  00202	0f b6 c8	 movzx	 ecx, al
  00205	85 c9		 test	 ecx, ecx
  00207	74 75		 je	 SHORT $LN31@Init

; 54   : 		{
; 55   : 			CDragonEvent * lpEvent = (CDragonEvent *)_Itor->second;

  00209	8d 4d e4	 lea	 ecx, DWORD PTR __Itor$223672[ebp]
  0020c	e8 00 00 00 00	 call	 ??C?$_Tree_iterator@V?$_Tree_val@V?$_Tmap_traits@HPAXU?$less@H@std@@V?$allocator@U?$pair@$$CBHPAX@std@@@2@$0A@@std@@@std@@@std@@QBEPAU?$pair@$$CBHPAX@1@XZ ; std::_Tree_iterator<std::_Tree_val<std::_Tmap_traits<int,void *,std::less<int>,std::allocator<std::pair<int const ,void *> >,0> > >::operator->
  00211	8b 40 04	 mov	 eax, DWORD PTR [eax+4]
  00214	89 45 e0	 mov	 DWORD PTR _lpEvent$223693[ebp], eax

; 56   : 			lpEvent->SetMenualStart(FALSE);

  00217	6a 00		 push	 0
  00219	8b 4d e0	 mov	 ecx, DWORD PTR _lpEvent$223693[ebp]
  0021c	e8 00 00 00 00	 call	 ?SetMenualStart@CDragonEvent@@QAEXH@Z ; CDragonEvent::SetMenualStart

; 57   : 
; 58   : 			for (std::vector<EVENT_ID_TIME>::iterator it = this->m_vtEventTime.begin() ; it != this->m_vtEventTime.end(); it++)

  00221	8d 45 dc	 lea	 eax, DWORD PTR _it$223975[ebp]
  00224	50		 push	 eax
  00225	8b 4d f8	 mov	 ecx, DWORD PTR _this$[ebp]
  00228	83 c1 0c	 add	 ecx, 12			; 0000000cH
  0022b	e8 00 00 00 00	 call	 ?begin@?$vector@UEVENT_ID_TIME@@V?$allocator@UEVENT_ID_TIME@@@std@@@std@@QAE?AV?$_Vector_iterator@V?$_Vector_val@UEVENT_ID_TIME@@V?$allocator@UEVENT_ID_TIME@@@std@@@std@@@2@XZ ; std::vector<EVENT_ID_TIME,std::allocator<EVENT_ID_TIME> >::begin
  00230	eb 11		 jmp	 SHORT $LN30@Init
$LN29@Init:
  00232	6a 00		 push	 0
  00234	8d 85 d0 fe ff
	ff		 lea	 eax, DWORD PTR $T227193[ebp]
  0023a	50		 push	 eax
  0023b	8d 4d dc	 lea	 ecx, DWORD PTR _it$223975[ebp]
  0023e	e8 00 00 00 00	 call	 ??E?$_Vector_iterator@V?$_Vector_val@UEVENT_ID_TIME@@V?$allocator@UEVENT_ID_TIME@@@std@@@std@@@std@@QAE?AV01@H@Z ; std::_Vector_iterator<std::_Vector_val<EVENT_ID_TIME,std::allocator<EVENT_ID_TIME> > >::operator++
$LN30@Init:
  00243	8d 85 d4 fe ff
	ff		 lea	 eax, DWORD PTR $T227194[ebp]
  00249	50		 push	 eax
  0024a	8b 4d f8	 mov	 ecx, DWORD PTR _this$[ebp]
  0024d	83 c1 0c	 add	 ecx, 12			; 0000000cH
  00250	e8 00 00 00 00	 call	 ?end@?$vector@UEVENT_ID_TIME@@V?$allocator@UEVENT_ID_TIME@@@std@@@std@@QAE?AV?$_Vector_iterator@V?$_Vector_val@UEVENT_ID_TIME@@V?$allocator@UEVENT_ID_TIME@@@std@@@std@@@2@XZ ; std::vector<EVENT_ID_TIME,std::allocator<EVENT_ID_TIME> >::end
  00255	50		 push	 eax
  00256	8d 4d dc	 lea	 ecx, DWORD PTR _it$223975[ebp]
  00259	e8 00 00 00 00	 call	 ??9?$_Vector_const_iterator@V?$_Vector_val@UEVENT_ID_TIME@@V?$allocator@UEVENT_ID_TIME@@@std@@@std@@@std@@QBE_NABV01@@Z ; std::_Vector_const_iterator<std::_Vector_val<EVENT_ID_TIME,std::allocator<EVENT_ID_TIME> > >::operator!=
  0025e	0f b6 c8	 movzx	 ecx, al
  00261	85 c9		 test	 ecx, ecx
  00263	74 19		 je	 SHORT $LN31@Init

; 59   : 			{
; 60   : 				if ( (*(it)).m_eEventKind == EVENT_ID_DRAGONHERD )

  00265	8d 4d dc	 lea	 ecx, DWORD PTR _it$223975[ebp]
  00268	e8 00 00 00 00	 call	 ??D?$_Vector_iterator@V?$_Vector_val@UEVENT_ID_TIME@@V?$allocator@UEVENT_ID_TIME@@@std@@@std@@@std@@QBEAAUEVENT_ID_TIME@@XZ ; std::_Vector_iterator<std::_Vector_val<EVENT_ID_TIME,std::allocator<EVENT_ID_TIME> > >::operator*
  0026d	83 38 00	 cmp	 DWORD PTR [eax], 0
  00270	75 0a		 jne	 SHORT $LN27@Init

; 61   : 				{
; 62   : 					lpEvent->SetMenualStart(TRUE);

  00272	6a 01		 push	 1
  00274	8b 4d e0	 mov	 ecx, DWORD PTR _lpEvent$223693[ebp]
  00277	e8 00 00 00 00	 call	 ?SetMenualStart@CDragonEvent@@QAEXH@Z ; CDragonEvent::SetMenualStart
$LN27@Init:

; 63   : 				}
; 64   : 			}

  0027c	eb b4		 jmp	 SHORT $LN29@Init
$LN31@Init:

; 65   : 		}
; 66   : 
; 67   : 		_Itor = this->m_mapEventObj.find(EVENT_ID_UNDERTROOP);

  0027e	c7 85 d8 fe ff
	ff 01 00 00 00	 mov	 DWORD PTR $T227195[ebp], 1
  00288	8d 85 d8 fe ff
	ff		 lea	 eax, DWORD PTR $T227195[ebp]
  0028e	50		 push	 eax
  0028f	8d 8d dc fe ff
	ff		 lea	 ecx, DWORD PTR $T227196[ebp]
  00295	51		 push	 ecx
  00296	8b 4d f8	 mov	 ecx, DWORD PTR _this$[ebp]
  00299	83 c1 1c	 add	 ecx, 28			; 0000001cH
  0029c	e8 00 00 00 00	 call	 ?find@?$_Tree@V?$_Tmap_traits@HPAXU?$less@H@std@@V?$allocator@U?$pair@$$CBHPAX@std@@@2@$0A@@std@@@std@@QAE?AV?$_Tree_iterator@V?$_Tree_val@V?$_Tmap_traits@HPAXU?$less@H@std@@V?$allocator@U?$pair@$$CBHPAX@std@@@2@$0A@@std@@@std@@@2@ABH@Z ; std::_Tree<std::_Tmap_traits<int,void *,std::less<int>,std::allocator<std::pair<int const ,void *> >,0> >::find
  002a1	8b 10		 mov	 edx, DWORD PTR [eax]
  002a3	89 55 e4	 mov	 DWORD PTR __Itor$223672[ebp], edx

; 68   : 
; 69   : 		if ( _Itor != this->m_mapEventObj.end() )

  002a6	8d 85 e0 fe ff
	ff		 lea	 eax, DWORD PTR $T227197[ebp]
  002ac	50		 push	 eax
  002ad	8b 4d f8	 mov	 ecx, DWORD PTR _this$[ebp]
  002b0	83 c1 1c	 add	 ecx, 28			; 0000001cH
  002b3	e8 00 00 00 00	 call	 ?end@?$_Tree@V?$_Tmap_traits@HPAXU?$less@H@std@@V?$allocator@U?$pair@$$CBHPAX@std@@@2@$0A@@std@@@std@@QAE?AV?$_Tree_iterator@V?$_Tree_val@V?$_Tmap_traits@HPAXU?$less@H@std@@V?$allocator@U?$pair@$$CBHPAX@std@@@2@$0A@@std@@@std@@@2@XZ ; std::_Tree<std::_Tmap_traits<int,void *,std::less<int>,std::allocator<std::pair<int const ,void *> >,0> >::end
  002b8	50		 push	 eax
  002b9	8d 4d e4	 lea	 ecx, DWORD PTR __Itor$223672[ebp]
  002bc	e8 00 00 00 00	 call	 ??9?$_Tree_const_iterator@V?$_Tree_val@V?$_Tmap_traits@HPAXU?$less@H@std@@V?$allocator@U?$pair@$$CBHPAX@std@@@2@$0A@@std@@@std@@@std@@QBE_NABV01@@Z ; std::_Tree_const_iterator<std::_Tree_val<std::_Tmap_traits<int,void *,std::less<int>,std::allocator<std::pair<int const ,void *> >,0> > >::operator!=
  002c1	0f b6 c8	 movzx	 ecx, al
  002c4	85 c9		 test	 ecx, ecx
  002c6	74 75		 je	 SHORT $LN26@Init

; 70   : 		{
; 71   : 			CAttackEvent * lpEvent = (CAttackEvent *)_Itor->second;

  002c8	8d 4d e4	 lea	 ecx, DWORD PTR __Itor$223672[ebp]
  002cb	e8 00 00 00 00	 call	 ??C?$_Tree_iterator@V?$_Tree_val@V?$_Tmap_traits@HPAXU?$less@H@std@@V?$allocator@U?$pair@$$CBHPAX@std@@@2@$0A@@std@@@std@@@std@@QBEPAU?$pair@$$CBHPAX@1@XZ ; std::_Tree_iterator<std::_Tree_val<std::_Tmap_traits<int,void *,std::less<int>,std::allocator<std::pair<int const ,void *> >,0> > >::operator->
  002d0	8b 40 04	 mov	 eax, DWORD PTR [eax+4]
  002d3	89 45 d8	 mov	 DWORD PTR _lpEvent$224003[ebp], eax

; 72   : 			lpEvent->SetMenualStart(FALSE);

  002d6	6a 00		 push	 0
  002d8	8b 4d d8	 mov	 ecx, DWORD PTR _lpEvent$224003[ebp]
  002db	e8 00 00 00 00	 call	 ?SetMenualStart@CAttackEvent@@QAEXH@Z ; CAttackEvent::SetMenualStart

; 73   : 
; 74   : 			for (std::vector<EVENT_ID_TIME>::iterator it = this->m_vtEventTime.begin() ; it != this->m_vtEventTime.end(); it++)

  002e0	8d 45 d4	 lea	 eax, DWORD PTR _it$224009[ebp]
  002e3	50		 push	 eax
  002e4	8b 4d f8	 mov	 ecx, DWORD PTR _this$[ebp]
  002e7	83 c1 0c	 add	 ecx, 12			; 0000000cH
  002ea	e8 00 00 00 00	 call	 ?begin@?$vector@UEVENT_ID_TIME@@V?$allocator@UEVENT_ID_TIME@@@std@@@std@@QAE?AV?$_Vector_iterator@V?$_Vector_val@UEVENT_ID_TIME@@V?$allocator@UEVENT_ID_TIME@@@std@@@std@@@2@XZ ; std::vector<EVENT_ID_TIME,std::allocator<EVENT_ID_TIME> >::begin
  002ef	eb 11		 jmp	 SHORT $LN25@Init
$LN24@Init:
  002f1	6a 00		 push	 0
  002f3	8d 85 e4 fe ff
	ff		 lea	 eax, DWORD PTR $T227198[ebp]
  002f9	50		 push	 eax
  002fa	8d 4d d4	 lea	 ecx, DWORD PTR _it$224009[ebp]
  002fd	e8 00 00 00 00	 call	 ??E?$_Vector_iterator@V?$_Vector_val@UEVENT_ID_TIME@@V?$allocator@UEVENT_ID_TIME@@@std@@@std@@@std@@QAE?AV01@H@Z ; std::_Vector_iterator<std::_Vector_val<EVENT_ID_TIME,std::allocator<EVENT_ID_TIME> > >::operator++
$LN25@Init:
  00302	8d 85 e8 fe ff
	ff		 lea	 eax, DWORD PTR $T227199[ebp]
  00308	50		 push	 eax
  00309	8b 4d f8	 mov	 ecx, DWORD PTR _this$[ebp]
  0030c	83 c1 0c	 add	 ecx, 12			; 0000000cH
  0030f	e8 00 00 00 00	 call	 ?end@?$vector@UEVENT_ID_TIME@@V?$allocator@UEVENT_ID_TIME@@@std@@@std@@QAE?AV?$_Vector_iterator@V?$_Vector_val@UEVENT_ID_TIME@@V?$allocator@UEVENT_ID_TIME@@@std@@@std@@@2@XZ ; std::vector<EVENT_ID_TIME,std::allocator<EVENT_ID_TIME> >::end
  00314	50		 push	 eax
  00315	8d 4d d4	 lea	 ecx, DWORD PTR _it$224009[ebp]
  00318	e8 00 00 00 00	 call	 ??9?$_Vector_const_iterator@V?$_Vector_val@UEVENT_ID_TIME@@V?$allocator@UEVENT_ID_TIME@@@std@@@std@@@std@@QBE_NABV01@@Z ; std::_Vector_const_iterator<std::_Vector_val<EVENT_ID_TIME,std::allocator<EVENT_ID_TIME> > >::operator!=
  0031d	0f b6 c8	 movzx	 ecx, al
  00320	85 c9		 test	 ecx, ecx
  00322	74 19		 je	 SHORT $LN26@Init

; 75   : 			{
; 76   : 				if ( (*(it)).m_eEventKind == EVENT_ID_UNDERTROOP )

  00324	8d 4d d4	 lea	 ecx, DWORD PTR _it$224009[ebp]
  00327	e8 00 00 00 00	 call	 ??D?$_Vector_iterator@V?$_Vector_val@UEVENT_ID_TIME@@V?$allocator@UEVENT_ID_TIME@@@std@@@std@@@std@@QBEAAUEVENT_ID_TIME@@XZ ; std::_Vector_iterator<std::_Vector_val<EVENT_ID_TIME,std::allocator<EVENT_ID_TIME> > >::operator*
  0032c	83 38 01	 cmp	 DWORD PTR [eax], 1
  0032f	75 0a		 jne	 SHORT $LN22@Init

; 77   : 				{
; 78   : 					lpEvent->SetMenualStart(TRUE);

  00331	6a 01		 push	 1
  00333	8b 4d d8	 mov	 ecx, DWORD PTR _lpEvent$224003[ebp]
  00336	e8 00 00 00 00	 call	 ?SetMenualStart@CAttackEvent@@QAEXH@Z ; CAttackEvent::SetMenualStart
$LN22@Init:

; 79   : 				}
; 80   : 			}

  0033b	eb b4		 jmp	 SHORT $LN24@Init
$LN26@Init:

; 81   : 		}
; 82   : 
; 83   : 		_Itor = this->m_mapEventObj.find(EVENT_ID_ELDORADO);

  0033d	c7 85 ec fe ff
	ff 02 00 00 00	 mov	 DWORD PTR $T227200[ebp], 2
  00347	8d 85 ec fe ff
	ff		 lea	 eax, DWORD PTR $T227200[ebp]
  0034d	50		 push	 eax
  0034e	8d 8d f0 fe ff
	ff		 lea	 ecx, DWORD PTR $T227201[ebp]
  00354	51		 push	 ecx
  00355	8b 4d f8	 mov	 ecx, DWORD PTR _this$[ebp]
  00358	83 c1 1c	 add	 ecx, 28			; 0000001cH
  0035b	e8 00 00 00 00	 call	 ?find@?$_Tree@V?$_Tmap_traits@HPAXU?$less@H@std@@V?$allocator@U?$pair@$$CBHPAX@std@@@2@$0A@@std@@@std@@QAE?AV?$_Tree_iterator@V?$_Tree_val@V?$_Tmap_traits@HPAXU?$less@H@std@@V?$allocator@U?$pair@$$CBHPAX@std@@@2@$0A@@std@@@std@@@2@ABH@Z ; std::_Tree<std::_Tmap_traits<int,void *,std::less<int>,std::allocator<std::pair<int const ,void *> >,0> >::find
  00360	8b 10		 mov	 edx, DWORD PTR [eax]
  00362	89 55 e4	 mov	 DWORD PTR __Itor$223672[ebp], edx

; 84   : 
; 85   : 		if ( _Itor != this->m_mapEventObj.end() )

  00365	8d 85 f4 fe ff
	ff		 lea	 eax, DWORD PTR $T227202[ebp]
  0036b	50		 push	 eax
  0036c	8b 4d f8	 mov	 ecx, DWORD PTR _this$[ebp]
  0036f	83 c1 1c	 add	 ecx, 28			; 0000001cH
  00372	e8 00 00 00 00	 call	 ?end@?$_Tree@V?$_Tmap_traits@HPAXU?$less@H@std@@V?$allocator@U?$pair@$$CBHPAX@std@@@2@$0A@@std@@@std@@QAE?AV?$_Tree_iterator@V?$_Tree_val@V?$_Tmap_traits@HPAXU?$less@H@std@@V?$allocator@U?$pair@$$CBHPAX@std@@@2@$0A@@std@@@std@@@2@XZ ; std::_Tree<std::_Tmap_traits<int,void *,std::less<int>,std::allocator<std::pair<int const ,void *> >,0> >::end
  00377	50		 push	 eax
  00378	8d 4d e4	 lea	 ecx, DWORD PTR __Itor$223672[ebp]
  0037b	e8 00 00 00 00	 call	 ??9?$_Tree_const_iterator@V?$_Tree_val@V?$_Tmap_traits@HPAXU?$less@H@std@@V?$allocator@U?$pair@$$CBHPAX@std@@@2@$0A@@std@@@std@@@std@@QBE_NABV01@@Z ; std::_Tree_const_iterator<std::_Tree_val<std::_Tmap_traits<int,void *,std::less<int>,std::allocator<std::pair<int const ,void *> >,0> > >::operator!=
  00380	0f b6 c8	 movzx	 ecx, al
  00383	85 c9		 test	 ecx, ecx
  00385	74 75		 je	 SHORT $LN21@Init

; 86   : 		{
; 87   : 			CEledoradoEvent * lpEvent = (CEledoradoEvent *)_Itor->second;

  00387	8d 4d e4	 lea	 ecx, DWORD PTR __Itor$223672[ebp]
  0038a	e8 00 00 00 00	 call	 ??C?$_Tree_iterator@V?$_Tree_val@V?$_Tmap_traits@HPAXU?$less@H@std@@V?$allocator@U?$pair@$$CBHPAX@std@@@2@$0A@@std@@@std@@@std@@QBEPAU?$pair@$$CBHPAX@1@XZ ; std::_Tree_iterator<std::_Tree_val<std::_Tmap_traits<int,void *,std::less<int>,std::allocator<std::pair<int const ,void *> >,0> > >::operator->
  0038f	8b 40 04	 mov	 eax, DWORD PTR [eax+4]
  00392	89 45 d0	 mov	 DWORD PTR _lpEvent$224021[ebp], eax

; 88   : 			lpEvent->SetMenualStart(FALSE);

  00395	6a 00		 push	 0
  00397	8b 4d d0	 mov	 ecx, DWORD PTR _lpEvent$224021[ebp]
  0039a	e8 00 00 00 00	 call	 ?SetMenualStart@CEledoradoEvent@@QAEXH@Z ; CEledoradoEvent::SetMenualStart

; 89   : 
; 90   : 			for (std::vector<EVENT_ID_TIME>::iterator it = this->m_vtEventTime.begin() ; it != this->m_vtEventTime.end(); it++)

  0039f	8d 45 cc	 lea	 eax, DWORD PTR _it$224027[ebp]
  003a2	50		 push	 eax
  003a3	8b 4d f8	 mov	 ecx, DWORD PTR _this$[ebp]
  003a6	83 c1 0c	 add	 ecx, 12			; 0000000cH
  003a9	e8 00 00 00 00	 call	 ?begin@?$vector@UEVENT_ID_TIME@@V?$allocator@UEVENT_ID_TIME@@@std@@@std@@QAE?AV?$_Vector_iterator@V?$_Vector_val@UEVENT_ID_TIME@@V?$allocator@UEVENT_ID_TIME@@@std@@@std@@@2@XZ ; std::vector<EVENT_ID_TIME,std::allocator<EVENT_ID_TIME> >::begin
  003ae	eb 11		 jmp	 SHORT $LN20@Init
$LN19@Init:
  003b0	6a 00		 push	 0
  003b2	8d 85 f8 fe ff
	ff		 lea	 eax, DWORD PTR $T227203[ebp]
  003b8	50		 push	 eax
  003b9	8d 4d cc	 lea	 ecx, DWORD PTR _it$224027[ebp]
  003bc	e8 00 00 00 00	 call	 ??E?$_Vector_iterator@V?$_Vector_val@UEVENT_ID_TIME@@V?$allocator@UEVENT_ID_TIME@@@std@@@std@@@std@@QAE?AV01@H@Z ; std::_Vector_iterator<std::_Vector_val<EVENT_ID_TIME,std::allocator<EVENT_ID_TIME> > >::operator++
$LN20@Init:
  003c1	8d 85 fc fe ff
	ff		 lea	 eax, DWORD PTR $T227204[ebp]
  003c7	50		 push	 eax
  003c8	8b 4d f8	 mov	 ecx, DWORD PTR _this$[ebp]
  003cb	83 c1 0c	 add	 ecx, 12			; 0000000cH
  003ce	e8 00 00 00 00	 call	 ?end@?$vector@UEVENT_ID_TIME@@V?$allocator@UEVENT_ID_TIME@@@std@@@std@@QAE?AV?$_Vector_iterator@V?$_Vector_val@UEVENT_ID_TIME@@V?$allocator@UEVENT_ID_TIME@@@std@@@std@@@2@XZ ; std::vector<EVENT_ID_TIME,std::allocator<EVENT_ID_TIME> >::end
  003d3	50		 push	 eax
  003d4	8d 4d cc	 lea	 ecx, DWORD PTR _it$224027[ebp]
  003d7	e8 00 00 00 00	 call	 ??9?$_Vector_const_iterator@V?$_Vector_val@UEVENT_ID_TIME@@V?$allocator@UEVENT_ID_TIME@@@std@@@std@@@std@@QBE_NABV01@@Z ; std::_Vector_const_iterator<std::_Vector_val<EVENT_ID_TIME,std::allocator<EVENT_ID_TIME> > >::operator!=
  003dc	0f b6 c8	 movzx	 ecx, al
  003df	85 c9		 test	 ecx, ecx
  003e1	74 19		 je	 SHORT $LN21@Init

; 91   : 			{
; 92   : 				if ( (*(it)).m_eEventKind == EVENT_ID_ELDORADO )

  003e3	8d 4d cc	 lea	 ecx, DWORD PTR _it$224027[ebp]
  003e6	e8 00 00 00 00	 call	 ??D?$_Vector_iterator@V?$_Vector_val@UEVENT_ID_TIME@@V?$allocator@UEVENT_ID_TIME@@@std@@@std@@@std@@QBEAAUEVENT_ID_TIME@@XZ ; std::_Vector_iterator<std::_Vector_val<EVENT_ID_TIME,std::allocator<EVENT_ID_TIME> > >::operator*
  003eb	83 38 02	 cmp	 DWORD PTR [eax], 2
  003ee	75 0a		 jne	 SHORT $LN17@Init

; 93   : 				{
; 94   : 					lpEvent->SetMenualStart(TRUE);

  003f0	6a 01		 push	 1
  003f2	8b 4d d0	 mov	 ecx, DWORD PTR _lpEvent$224021[ebp]
  003f5	e8 00 00 00 00	 call	 ?SetMenualStart@CEledoradoEvent@@QAEXH@Z ; CEledoradoEvent::SetMenualStart
$LN17@Init:

; 95   : 				}
; 96   : 			}

  003fa	eb b4		 jmp	 SHORT $LN19@Init
$LN21@Init:

; 97   : 		}
; 98   : 
; 99   : 
; 100  : 		_Itor = this->m_mapEventObj.find(EVENT_ID_WHITEMAGE);

  003fc	c7 85 00 ff ff
	ff 03 00 00 00	 mov	 DWORD PTR $T227205[ebp], 3
  00406	8d 85 00 ff ff
	ff		 lea	 eax, DWORD PTR $T227205[ebp]
  0040c	50		 push	 eax
  0040d	8d 8d 04 ff ff
	ff		 lea	 ecx, DWORD PTR $T227206[ebp]
  00413	51		 push	 ecx
  00414	8b 4d f8	 mov	 ecx, DWORD PTR _this$[ebp]
  00417	83 c1 1c	 add	 ecx, 28			; 0000001cH
  0041a	e8 00 00 00 00	 call	 ?find@?$_Tree@V?$_Tmap_traits@HPAXU?$less@H@std@@V?$allocator@U?$pair@$$CBHPAX@std@@@2@$0A@@std@@@std@@QAE?AV?$_Tree_iterator@V?$_Tree_val@V?$_Tmap_traits@HPAXU?$less@H@std@@V?$allocator@U?$pair@$$CBHPAX@std@@@2@$0A@@std@@@std@@@2@ABH@Z ; std::_Tree<std::_Tmap_traits<int,void *,std::less<int>,std::allocator<std::pair<int const ,void *> >,0> >::find
  0041f	8b 10		 mov	 edx, DWORD PTR [eax]
  00421	89 55 e4	 mov	 DWORD PTR __Itor$223672[ebp], edx

; 101  : 
; 102  : 		if ( _Itor != this->m_mapEventObj.end() )

  00424	8d 85 08 ff ff
	ff		 lea	 eax, DWORD PTR $T227207[ebp]
  0042a	50		 push	 eax
  0042b	8b 4d f8	 mov	 ecx, DWORD PTR _this$[ebp]
  0042e	83 c1 1c	 add	 ecx, 28			; 0000001cH
  00431	e8 00 00 00 00	 call	 ?end@?$_Tree@V?$_Tmap_traits@HPAXU?$less@H@std@@V?$allocator@U?$pair@$$CBHPAX@std@@@2@$0A@@std@@@std@@QAE?AV?$_Tree_iterator@V?$_Tree_val@V?$_Tmap_traits@HPAXU?$less@H@std@@V?$allocator@U?$pair@$$CBHPAX@std@@@2@$0A@@std@@@std@@@2@XZ ; std::_Tree<std::_Tmap_traits<int,void *,std::less<int>,std::allocator<std::pair<int const ,void *> >,0> >::end
  00436	50		 push	 eax
  00437	8d 4d e4	 lea	 ecx, DWORD PTR __Itor$223672[ebp]
  0043a	e8 00 00 00 00	 call	 ??9?$_Tree_const_iterator@V?$_Tree_val@V?$_Tmap_traits@HPAXU?$less@H@std@@V?$allocator@U?$pair@$$CBHPAX@std@@@2@$0A@@std@@@std@@@std@@QBE_NABV01@@Z ; std::_Tree_const_iterator<std::_Tree_val<std::_Tmap_traits<int,void *,std::less<int>,std::allocator<std::pair<int const ,void *> >,0> > >::operator!=
  0043f	0f b6 c8	 movzx	 ecx, al
  00442	85 c9		 test	 ecx, ecx
  00444	74 75		 je	 SHORT $LN16@Init

; 103  : 		{
; 104  : 			CRingAttackEvent * lpEvent = (CRingAttackEvent *)_Itor->second;

  00446	8d 4d e4	 lea	 ecx, DWORD PTR __Itor$223672[ebp]
  00449	e8 00 00 00 00	 call	 ??C?$_Tree_iterator@V?$_Tree_val@V?$_Tmap_traits@HPAXU?$less@H@std@@V?$allocator@U?$pair@$$CBHPAX@std@@@2@$0A@@std@@@std@@@std@@QBEPAU?$pair@$$CBHPAX@1@XZ ; std::_Tree_iterator<std::_Tree_val<std::_Tmap_traits<int,void *,std::less<int>,std::allocator<std::pair<int const ,void *> >,0> > >::operator->
  0044e	8b 40 04	 mov	 eax, DWORD PTR [eax+4]
  00451	89 45 c8	 mov	 DWORD PTR _lpEvent$224039[ebp], eax

; 105  : 			lpEvent->SetMenualStart(FALSE);

  00454	6a 00		 push	 0
  00456	8b 4d c8	 mov	 ecx, DWORD PTR _lpEvent$224039[ebp]
  00459	e8 00 00 00 00	 call	 ?SetMenualStart@CRingAttackEvent@@QAEXH@Z ; CRingAttackEvent::SetMenualStart

; 106  : 
; 107  : 			for (std::vector<EVENT_ID_TIME>::iterator it = this->m_vtEventTime.begin() ; it != this->m_vtEventTime.end(); it++)

  0045e	8d 45 c4	 lea	 eax, DWORD PTR _it$224045[ebp]
  00461	50		 push	 eax
  00462	8b 4d f8	 mov	 ecx, DWORD PTR _this$[ebp]
  00465	83 c1 0c	 add	 ecx, 12			; 0000000cH
  00468	e8 00 00 00 00	 call	 ?begin@?$vector@UEVENT_ID_TIME@@V?$allocator@UEVENT_ID_TIME@@@std@@@std@@QAE?AV?$_Vector_iterator@V?$_Vector_val@UEVENT_ID_TIME@@V?$allocator@UEVENT_ID_TIME@@@std@@@std@@@2@XZ ; std::vector<EVENT_ID_TIME,std::allocator<EVENT_ID_TIME> >::begin
  0046d	eb 11		 jmp	 SHORT $LN15@Init
$LN14@Init:
  0046f	6a 00		 push	 0
  00471	8d 85 0c ff ff
	ff		 lea	 eax, DWORD PTR $T227208[ebp]
  00477	50		 push	 eax
  00478	8d 4d c4	 lea	 ecx, DWORD PTR _it$224045[ebp]
  0047b	e8 00 00 00 00	 call	 ??E?$_Vector_iterator@V?$_Vector_val@UEVENT_ID_TIME@@V?$allocator@UEVENT_ID_TIME@@@std@@@std@@@std@@QAE?AV01@H@Z ; std::_Vector_iterator<std::_Vector_val<EVENT_ID_TIME,std::allocator<EVENT_ID_TIME> > >::operator++
$LN15@Init:
  00480	8d 85 10 ff ff
	ff		 lea	 eax, DWORD PTR $T227209[ebp]
  00486	50		 push	 eax
  00487	8b 4d f8	 mov	 ecx, DWORD PTR _this$[ebp]
  0048a	83 c1 0c	 add	 ecx, 12			; 0000000cH
  0048d	e8 00 00 00 00	 call	 ?end@?$vector@UEVENT_ID_TIME@@V?$allocator@UEVENT_ID_TIME@@@std@@@std@@QAE?AV?$_Vector_iterator@V?$_Vector_val@UEVENT_ID_TIME@@V?$allocator@UEVENT_ID_TIME@@@std@@@std@@@2@XZ ; std::vector<EVENT_ID_TIME,std::allocator<EVENT_ID_TIME> >::end
  00492	50		 push	 eax
  00493	8d 4d c4	 lea	 ecx, DWORD PTR _it$224045[ebp]
  00496	e8 00 00 00 00	 call	 ??9?$_Vector_const_iterator@V?$_Vector_val@UEVENT_ID_TIME@@V?$allocator@UEVENT_ID_TIME@@@std@@@std@@@std@@QBE_NABV01@@Z ; std::_Vector_const_iterator<std::_Vector_val<EVENT_ID_TIME,std::allocator<EVENT_ID_TIME> > >::operator!=
  0049b	0f b6 c8	 movzx	 ecx, al
  0049e	85 c9		 test	 ecx, ecx
  004a0	74 19		 je	 SHORT $LN16@Init

; 108  : 			{
; 109  : 				if ( (*(it)).m_eEventKind == EVENT_ID_ELDORADO ) //wtf?

  004a2	8d 4d c4	 lea	 ecx, DWORD PTR _it$224045[ebp]
  004a5	e8 00 00 00 00	 call	 ??D?$_Vector_iterator@V?$_Vector_val@UEVENT_ID_TIME@@V?$allocator@UEVENT_ID_TIME@@@std@@@std@@@std@@QBEAAUEVENT_ID_TIME@@XZ ; std::_Vector_iterator<std::_Vector_val<EVENT_ID_TIME,std::allocator<EVENT_ID_TIME> > >::operator*
  004aa	83 38 02	 cmp	 DWORD PTR [eax], 2
  004ad	75 0a		 jne	 SHORT $LN12@Init

; 110  : 				{
; 111  : 					lpEvent->SetMenualStart(TRUE);

  004af	6a 01		 push	 1
  004b1	8b 4d c8	 mov	 ecx, DWORD PTR _lpEvent$224039[ebp]
  004b4	e8 00 00 00 00	 call	 ?SetMenualStart@CRingAttackEvent@@QAEXH@Z ; CRingAttackEvent::SetMenualStart
$LN12@Init:

; 112  : 				}
; 113  : 			}

  004b9	eb b4		 jmp	 SHORT $LN14@Init
$LN16@Init:

; 114  : 		}
; 115  : 
; 116  : 		//Season 4.5 addon
; 117  : 		_Itor = this->m_mapEventObj.find(EVENT_ID_XMASATTACK);

  004bb	c7 85 14 ff ff
	ff 04 00 00 00	 mov	 DWORD PTR $T227210[ebp], 4
  004c5	8d 85 14 ff ff
	ff		 lea	 eax, DWORD PTR $T227210[ebp]
  004cb	50		 push	 eax
  004cc	8d 8d 18 ff ff
	ff		 lea	 ecx, DWORD PTR $T227211[ebp]
  004d2	51		 push	 ecx
  004d3	8b 4d f8	 mov	 ecx, DWORD PTR _this$[ebp]
  004d6	83 c1 1c	 add	 ecx, 28			; 0000001cH
  004d9	e8 00 00 00 00	 call	 ?find@?$_Tree@V?$_Tmap_traits@HPAXU?$less@H@std@@V?$allocator@U?$pair@$$CBHPAX@std@@@2@$0A@@std@@@std@@QAE?AV?$_Tree_iterator@V?$_Tree_val@V?$_Tmap_traits@HPAXU?$less@H@std@@V?$allocator@U?$pair@$$CBHPAX@std@@@2@$0A@@std@@@std@@@2@ABH@Z ; std::_Tree<std::_Tmap_traits<int,void *,std::less<int>,std::allocator<std::pair<int const ,void *> >,0> >::find
  004de	8b 10		 mov	 edx, DWORD PTR [eax]
  004e0	89 55 e4	 mov	 DWORD PTR __Itor$223672[ebp], edx

; 118  : 
; 119  : 		if ( _Itor != this->m_mapEventObj.end() )

  004e3	8d 85 1c ff ff
	ff		 lea	 eax, DWORD PTR $T227212[ebp]
  004e9	50		 push	 eax
  004ea	8b 4d f8	 mov	 ecx, DWORD PTR _this$[ebp]
  004ed	83 c1 1c	 add	 ecx, 28			; 0000001cH
  004f0	e8 00 00 00 00	 call	 ?end@?$_Tree@V?$_Tmap_traits@HPAXU?$less@H@std@@V?$allocator@U?$pair@$$CBHPAX@std@@@2@$0A@@std@@@std@@QAE?AV?$_Tree_iterator@V?$_Tree_val@V?$_Tmap_traits@HPAXU?$less@H@std@@V?$allocator@U?$pair@$$CBHPAX@std@@@2@$0A@@std@@@std@@@2@XZ ; std::_Tree<std::_Tmap_traits<int,void *,std::less<int>,std::allocator<std::pair<int const ,void *> >,0> >::end
  004f5	50		 push	 eax
  004f6	8d 4d e4	 lea	 ecx, DWORD PTR __Itor$223672[ebp]
  004f9	e8 00 00 00 00	 call	 ??9?$_Tree_const_iterator@V?$_Tree_val@V?$_Tmap_traits@HPAXU?$less@H@std@@V?$allocator@U?$pair@$$CBHPAX@std@@@2@$0A@@std@@@std@@@std@@QBE_NABV01@@Z ; std::_Tree_const_iterator<std::_Tree_val<std::_Tmap_traits<int,void *,std::less<int>,std::allocator<std::pair<int const ,void *> >,0> > >::operator!=
  004fe	0f b6 c8	 movzx	 ecx, al
  00501	85 c9		 test	 ecx, ecx
  00503	74 7f		 je	 SHORT $LN11@Init

; 120  : 		{
; 121  : 			CXMasAttackEvent * lpEvent = (CXMasAttackEvent *)_Itor->second;

  00505	8d 4d e4	 lea	 ecx, DWORD PTR __Itor$223672[ebp]
  00508	e8 00 00 00 00	 call	 ??C?$_Tree_iterator@V?$_Tree_val@V?$_Tmap_traits@HPAXU?$less@H@std@@V?$allocator@U?$pair@$$CBHPAX@std@@@2@$0A@@std@@@std@@@std@@QBEPAU?$pair@$$CBHPAX@1@XZ ; std::_Tree_iterator<std::_Tree_val<std::_Tmap_traits<int,void *,std::less<int>,std::allocator<std::pair<int const ,void *> >,0> > >::operator->
  0050d	8b 40 04	 mov	 eax, DWORD PTR [eax+4]
  00510	89 45 c0	 mov	 DWORD PTR _lpEvent$224057[ebp], eax

; 122  : 			
; 123  : 			lpEvent->SetMenualStart(FALSE);

  00513	6a 00		 push	 0
  00515	8b 45 c0	 mov	 eax, DWORD PTR _lpEvent$224057[ebp]
  00518	8b 10		 mov	 edx, DWORD PTR [eax]
  0051a	8b 4d c0	 mov	 ecx, DWORD PTR _lpEvent$224057[ebp]
  0051d	8b 42 14	 mov	 eax, DWORD PTR [edx+20]
  00520	ff d0		 call	 eax

; 124  : 
; 125  : 			for (std::vector<EVENT_ID_TIME>::iterator it = this->m_vtEventTime.begin() ; it != this->m_vtEventTime.end(); it++)

  00522	8d 45 bc	 lea	 eax, DWORD PTR _it$224063[ebp]
  00525	50		 push	 eax
  00526	8b 4d f8	 mov	 ecx, DWORD PTR _this$[ebp]
  00529	83 c1 0c	 add	 ecx, 12			; 0000000cH
  0052c	e8 00 00 00 00	 call	 ?begin@?$vector@UEVENT_ID_TIME@@V?$allocator@UEVENT_ID_TIME@@@std@@@std@@QAE?AV?$_Vector_iterator@V?$_Vector_val@UEVENT_ID_TIME@@V?$allocator@UEVENT_ID_TIME@@@std@@@std@@@2@XZ ; std::vector<EVENT_ID_TIME,std::allocator<EVENT_ID_TIME> >::begin
  00531	eb 11		 jmp	 SHORT $LN10@Init
$LN9@Init:
  00533	6a 00		 push	 0
  00535	8d 85 20 ff ff
	ff		 lea	 eax, DWORD PTR $T227213[ebp]
  0053b	50		 push	 eax
  0053c	8d 4d bc	 lea	 ecx, DWORD PTR _it$224063[ebp]
  0053f	e8 00 00 00 00	 call	 ??E?$_Vector_iterator@V?$_Vector_val@UEVENT_ID_TIME@@V?$allocator@UEVENT_ID_TIME@@@std@@@std@@@std@@QAE?AV01@H@Z ; std::_Vector_iterator<std::_Vector_val<EVENT_ID_TIME,std::allocator<EVENT_ID_TIME> > >::operator++
$LN10@Init:
  00544	8d 85 24 ff ff
	ff		 lea	 eax, DWORD PTR $T227214[ebp]
  0054a	50		 push	 eax
  0054b	8b 4d f8	 mov	 ecx, DWORD PTR _this$[ebp]
  0054e	83 c1 0c	 add	 ecx, 12			; 0000000cH
  00551	e8 00 00 00 00	 call	 ?end@?$vector@UEVENT_ID_TIME@@V?$allocator@UEVENT_ID_TIME@@@std@@@std@@QAE?AV?$_Vector_iterator@V?$_Vector_val@UEVENT_ID_TIME@@V?$allocator@UEVENT_ID_TIME@@@std@@@std@@@2@XZ ; std::vector<EVENT_ID_TIME,std::allocator<EVENT_ID_TIME> >::end
  00556	50		 push	 eax
  00557	8d 4d bc	 lea	 ecx, DWORD PTR _it$224063[ebp]
  0055a	e8 00 00 00 00	 call	 ??9?$_Vector_const_iterator@V?$_Vector_val@UEVENT_ID_TIME@@V?$allocator@UEVENT_ID_TIME@@@std@@@std@@@std@@QBE_NABV01@@Z ; std::_Vector_const_iterator<std::_Vector_val<EVENT_ID_TIME,std::allocator<EVENT_ID_TIME> > >::operator!=
  0055f	0f b6 c8	 movzx	 ecx, al
  00562	85 c9		 test	 ecx, ecx
  00564	74 1e		 je	 SHORT $LN11@Init

; 126  : 			{
; 127  : 				if ( (*(it)).m_eEventKind == EVENT_ID_XMASATTACK )

  00566	8d 4d bc	 lea	 ecx, DWORD PTR _it$224063[ebp]
  00569	e8 00 00 00 00	 call	 ??D?$_Vector_iterator@V?$_Vector_val@UEVENT_ID_TIME@@V?$allocator@UEVENT_ID_TIME@@@std@@@std@@@std@@QBEAAUEVENT_ID_TIME@@XZ ; std::_Vector_iterator<std::_Vector_val<EVENT_ID_TIME,std::allocator<EVENT_ID_TIME> > >::operator*
  0056e	83 38 04	 cmp	 DWORD PTR [eax], 4
  00571	75 0f		 jne	 SHORT $LN7@Init

; 128  : 				{
; 129  : 					lpEvent->SetMenualStart(TRUE);

  00573	6a 01		 push	 1
  00575	8b 45 c0	 mov	 eax, DWORD PTR _lpEvent$224057[ebp]
  00578	8b 10		 mov	 edx, DWORD PTR [eax]
  0057a	8b 4d c0	 mov	 ecx, DWORD PTR _lpEvent$224057[ebp]
  0057d	8b 42 14	 mov	 eax, DWORD PTR [edx+20]
  00580	ff d0		 call	 eax
$LN7@Init:

; 130  : 				}
; 131  : 			}

  00582	eb af		 jmp	 SHORT $LN9@Init
$LN11@Init:

; 132  : 		}
; 133  : 
; 134  : 	}
; 135  : 	else

  00584	e9 f7 01 00 00	 jmp	 $LN33@Init
$LN32@Init:

; 136  : 	{
; 137  : 		std::map<int, void *>::iterator _Itor;

  00589	8d 4d b8	 lea	 ecx, DWORD PTR __Itor$224085[ebp]
  0058c	e8 00 00 00 00	 call	 ??0?$_Tree_iterator@V?$_Tree_val@V?$_Tmap_traits@HPAXU?$less@H@std@@V?$allocator@U?$pair@$$CBHPAX@std@@@2@$0A@@std@@@std@@@std@@QAE@XZ ; std::_Tree_iterator<std::_Tree_val<std::_Tmap_traits<int,void *,std::less<int>,std::allocator<std::pair<int const ,void *> >,0> > >::_Tree_iterator<std::_Tree_val<std::_Tmap_traits<int,void *,std::less<int>,std::allocator<std::pair<int const ,void *> >,0> > >

; 138  : 		
; 139  : 		_Itor = this->m_mapEventObj.find(EVENT_ID_DRAGONHERD);

  00591	c7 85 28 ff ff
	ff 00 00 00 00	 mov	 DWORD PTR $T227215[ebp], 0
  0059b	8d 85 28 ff ff
	ff		 lea	 eax, DWORD PTR $T227215[ebp]
  005a1	50		 push	 eax
  005a2	8d 8d 2c ff ff
	ff		 lea	 ecx, DWORD PTR $T227216[ebp]
  005a8	51		 push	 ecx
  005a9	8b 4d f8	 mov	 ecx, DWORD PTR _this$[ebp]
  005ac	83 c1 1c	 add	 ecx, 28			; 0000001cH
  005af	e8 00 00 00 00	 call	 ?find@?$_Tree@V?$_Tmap_traits@HPAXU?$less@H@std@@V?$allocator@U?$pair@$$CBHPAX@std@@@2@$0A@@std@@@std@@QAE?AV?$_Tree_iterator@V?$_Tree_val@V?$_Tmap_traits@HPAXU?$less@H@std@@V?$allocator@U?$pair@$$CBHPAX@std@@@2@$0A@@std@@@std@@@2@ABH@Z ; std::_Tree<std::_Tmap_traits<int,void *,std::less<int>,std::allocator<std::pair<int const ,void *> >,0> >::find
  005b4	8b 10		 mov	 edx, DWORD PTR [eax]
  005b6	89 55 b8	 mov	 DWORD PTR __Itor$224085[ebp], edx

; 140  : 		
; 141  : 		if ( _Itor != this->m_mapEventObj.end() )

  005b9	8d 85 30 ff ff
	ff		 lea	 eax, DWORD PTR $T227217[ebp]
  005bf	50		 push	 eax
  005c0	8b 4d f8	 mov	 ecx, DWORD PTR _this$[ebp]
  005c3	83 c1 1c	 add	 ecx, 28			; 0000001cH
  005c6	e8 00 00 00 00	 call	 ?end@?$_Tree@V?$_Tmap_traits@HPAXU?$less@H@std@@V?$allocator@U?$pair@$$CBHPAX@std@@@2@$0A@@std@@@std@@QAE?AV?$_Tree_iterator@V?$_Tree_val@V?$_Tmap_traits@HPAXU?$less@H@std@@V?$allocator@U?$pair@$$CBHPAX@std@@@2@$0A@@std@@@std@@@2@XZ ; std::_Tree<std::_Tmap_traits<int,void *,std::less<int>,std::allocator<std::pair<int const ,void *> >,0> >::end
  005cb	50		 push	 eax
  005cc	8d 4d b8	 lea	 ecx, DWORD PTR __Itor$224085[ebp]
  005cf	e8 00 00 00 00	 call	 ??9?$_Tree_const_iterator@V?$_Tree_val@V?$_Tmap_traits@HPAXU?$less@H@std@@V?$allocator@U?$pair@$$CBHPAX@std@@@2@$0A@@std@@@std@@@std@@QBE_NABV01@@Z ; std::_Tree_const_iterator<std::_Tree_val<std::_Tmap_traits<int,void *,std::less<int>,std::allocator<std::pair<int const ,void *> >,0> > >::operator!=
  005d4	0f b6 c8	 movzx	 ecx, al
  005d7	85 c9		 test	 ecx, ecx
  005d9	74 18		 je	 SHORT $LN5@Init

; 142  : 		{
; 143  : 			CDragonEvent * lpEvent = (CDragonEvent *)_Itor->second;

  005db	8d 4d b8	 lea	 ecx, DWORD PTR __Itor$224085[ebp]
  005de	e8 00 00 00 00	 call	 ??C?$_Tree_iterator@V?$_Tree_val@V?$_Tmap_traits@HPAXU?$less@H@std@@V?$allocator@U?$pair@$$CBHPAX@std@@@2@$0A@@std@@@std@@@std@@QBEPAU?$pair@$$CBHPAX@1@XZ ; std::_Tree_iterator<std::_Tree_val<std::_Tmap_traits<int,void *,std::less<int>,std::allocator<std::pair<int const ,void *> >,0> > >::operator->
  005e3	8b 40 04	 mov	 eax, DWORD PTR [eax+4]
  005e6	89 45 b4	 mov	 DWORD PTR _lpEvent$224090[ebp], eax

; 144  : 			lpEvent->SetMenualStart(FALSE);

  005e9	6a 00		 push	 0
  005eb	8b 4d b4	 mov	 ecx, DWORD PTR _lpEvent$224090[ebp]
  005ee	e8 00 00 00 00	 call	 ?SetMenualStart@CDragonEvent@@QAEXH@Z ; CDragonEvent::SetMenualStart
$LN5@Init:

; 145  : 		}
; 146  : 
; 147  : 	
; 148  : 		_Itor = this->m_mapEventObj.find(EVENT_ID_UNDERTROOP);

  005f3	c7 85 34 ff ff
	ff 01 00 00 00	 mov	 DWORD PTR $T227218[ebp], 1
  005fd	8d 85 34 ff ff
	ff		 lea	 eax, DWORD PTR $T227218[ebp]
  00603	50		 push	 eax
  00604	8d 8d 38 ff ff
	ff		 lea	 ecx, DWORD PTR $T227219[ebp]
  0060a	51		 push	 ecx
  0060b	8b 4d f8	 mov	 ecx, DWORD PTR _this$[ebp]
  0060e	83 c1 1c	 add	 ecx, 28			; 0000001cH
  00611	e8 00 00 00 00	 call	 ?find@?$_Tree@V?$_Tmap_traits@HPAXU?$less@H@std@@V?$allocator@U?$pair@$$CBHPAX@std@@@2@$0A@@std@@@std@@QAE?AV?$_Tree_iterator@V?$_Tree_val@V?$_Tmap_traits@HPAXU?$less@H@std@@V?$allocator@U?$pair@$$CBHPAX@std@@@2@$0A@@std@@@std@@@2@ABH@Z ; std::_Tree<std::_Tmap_traits<int,void *,std::less<int>,std::allocator<std::pair<int const ,void *> >,0> >::find
  00616	8b 10		 mov	 edx, DWORD PTR [eax]
  00618	89 55 b8	 mov	 DWORD PTR __Itor$224085[ebp], edx

; 149  : 		
; 150  : 		if ( _Itor != this->m_mapEventObj.end() )

  0061b	8d 85 3c ff ff
	ff		 lea	 eax, DWORD PTR $T227220[ebp]
  00621	50		 push	 eax
  00622	8b 4d f8	 mov	 ecx, DWORD PTR _this$[ebp]
  00625	83 c1 1c	 add	 ecx, 28			; 0000001cH
  00628	e8 00 00 00 00	 call	 ?end@?$_Tree@V?$_Tmap_traits@HPAXU?$less@H@std@@V?$allocator@U?$pair@$$CBHPAX@std@@@2@$0A@@std@@@std@@QAE?AV?$_Tree_iterator@V?$_Tree_val@V?$_Tmap_traits@HPAXU?$less@H@std@@V?$allocator@U?$pair@$$CBHPAX@std@@@2@$0A@@std@@@std@@@2@XZ ; std::_Tree<std::_Tmap_traits<int,void *,std::less<int>,std::allocator<std::pair<int const ,void *> >,0> >::end
  0062d	50		 push	 eax
  0062e	8d 4d b8	 lea	 ecx, DWORD PTR __Itor$224085[ebp]
  00631	e8 00 00 00 00	 call	 ??9?$_Tree_const_iterator@V?$_Tree_val@V?$_Tmap_traits@HPAXU?$less@H@std@@V?$allocator@U?$pair@$$CBHPAX@std@@@2@$0A@@std@@@std@@@std@@QBE_NABV01@@Z ; std::_Tree_const_iterator<std::_Tree_val<std::_Tmap_traits<int,void *,std::less<int>,std::allocator<std::pair<int const ,void *> >,0> > >::operator!=
  00636	0f b6 c8	 movzx	 ecx, al
  00639	85 c9		 test	 ecx, ecx
  0063b	74 18		 je	 SHORT $LN4@Init

; 151  : 		{
; 152  : 			CAttackEvent * lpEvent = (CAttackEvent *)_Itor->second;

  0063d	8d 4d b8	 lea	 ecx, DWORD PTR __Itor$224085[ebp]
  00640	e8 00 00 00 00	 call	 ??C?$_Tree_iterator@V?$_Tree_val@V?$_Tmap_traits@HPAXU?$less@H@std@@V?$allocator@U?$pair@$$CBHPAX@std@@@2@$0A@@std@@@std@@@std@@QBEPAU?$pair@$$CBHPAX@1@XZ ; std::_Tree_iterator<std::_Tree_val<std::_Tmap_traits<int,void *,std::less<int>,std::allocator<std::pair<int const ,void *> >,0> > >::operator->
  00645	8b 40 04	 mov	 eax, DWORD PTR [eax+4]
  00648	89 45 b0	 mov	 DWORD PTR _lpEvent$224096[ebp], eax

; 153  : 			lpEvent->SetMenualStart(FALSE);

  0064b	6a 00		 push	 0
  0064d	8b 4d b0	 mov	 ecx, DWORD PTR _lpEvent$224096[ebp]
  00650	e8 00 00 00 00	 call	 ?SetMenualStart@CAttackEvent@@QAEXH@Z ; CAttackEvent::SetMenualStart
$LN4@Init:

; 154  : 		}
; 155  : 
; 156  : 		_Itor = this->m_mapEventObj.find(EVENT_ID_ELDORADO);

  00655	c7 85 40 ff ff
	ff 02 00 00 00	 mov	 DWORD PTR $T227221[ebp], 2
  0065f	8d 85 40 ff ff
	ff		 lea	 eax, DWORD PTR $T227221[ebp]
  00665	50		 push	 eax
  00666	8d 8d 44 ff ff
	ff		 lea	 ecx, DWORD PTR $T227222[ebp]
  0066c	51		 push	 ecx
  0066d	8b 4d f8	 mov	 ecx, DWORD PTR _this$[ebp]
  00670	83 c1 1c	 add	 ecx, 28			; 0000001cH
  00673	e8 00 00 00 00	 call	 ?find@?$_Tree@V?$_Tmap_traits@HPAXU?$less@H@std@@V?$allocator@U?$pair@$$CBHPAX@std@@@2@$0A@@std@@@std@@QAE?AV?$_Tree_iterator@V?$_Tree_val@V?$_Tmap_traits@HPAXU?$less@H@std@@V?$allocator@U?$pair@$$CBHPAX@std@@@2@$0A@@std@@@std@@@2@ABH@Z ; std::_Tree<std::_Tmap_traits<int,void *,std::less<int>,std::allocator<std::pair<int const ,void *> >,0> >::find
  00678	8b 10		 mov	 edx, DWORD PTR [eax]
  0067a	89 55 b8	 mov	 DWORD PTR __Itor$224085[ebp], edx

; 157  : 		
; 158  : 		if ( _Itor != this->m_mapEventObj.end() )

  0067d	8d 85 48 ff ff
	ff		 lea	 eax, DWORD PTR $T227223[ebp]
  00683	50		 push	 eax
  00684	8b 4d f8	 mov	 ecx, DWORD PTR _this$[ebp]
  00687	83 c1 1c	 add	 ecx, 28			; 0000001cH
  0068a	e8 00 00 00 00	 call	 ?end@?$_Tree@V?$_Tmap_traits@HPAXU?$less@H@std@@V?$allocator@U?$pair@$$CBHPAX@std@@@2@$0A@@std@@@std@@QAE?AV?$_Tree_iterator@V?$_Tree_val@V?$_Tmap_traits@HPAXU?$less@H@std@@V?$allocator@U?$pair@$$CBHPAX@std@@@2@$0A@@std@@@std@@@2@XZ ; std::_Tree<std::_Tmap_traits<int,void *,std::less<int>,std::allocator<std::pair<int const ,void *> >,0> >::end
  0068f	50		 push	 eax
  00690	8d 4d b8	 lea	 ecx, DWORD PTR __Itor$224085[ebp]
  00693	e8 00 00 00 00	 call	 ??9?$_Tree_const_iterator@V?$_Tree_val@V?$_Tmap_traits@HPAXU?$less@H@std@@V?$allocator@U?$pair@$$CBHPAX@std@@@2@$0A@@std@@@std@@@std@@QBE_NABV01@@Z ; std::_Tree_const_iterator<std::_Tree_val<std::_Tmap_traits<int,void *,std::less<int>,std::allocator<std::pair<int const ,void *> >,0> > >::operator!=
  00698	0f b6 c8	 movzx	 ecx, al
  0069b	85 c9		 test	 ecx, ecx
  0069d	74 18		 je	 SHORT $LN3@Init

; 159  : 		{
; 160  : 			CEledoradoEvent * lpEvent = (CEledoradoEvent *)_Itor->second;

  0069f	8d 4d b8	 lea	 ecx, DWORD PTR __Itor$224085[ebp]
  006a2	e8 00 00 00 00	 call	 ??C?$_Tree_iterator@V?$_Tree_val@V?$_Tmap_traits@HPAXU?$less@H@std@@V?$allocator@U?$pair@$$CBHPAX@std@@@2@$0A@@std@@@std@@@std@@QBEPAU?$pair@$$CBHPAX@1@XZ ; std::_Tree_iterator<std::_Tree_val<std::_Tmap_traits<int,void *,std::less<int>,std::allocator<std::pair<int const ,void *> >,0> > >::operator->
  006a7	8b 40 04	 mov	 eax, DWORD PTR [eax+4]
  006aa	89 45 ac	 mov	 DWORD PTR _lpEvent$224102[ebp], eax

; 161  : 			lpEvent->SetMenualStart(FALSE);

  006ad	6a 00		 push	 0
  006af	8b 4d ac	 mov	 ecx, DWORD PTR _lpEvent$224102[ebp]
  006b2	e8 00 00 00 00	 call	 ?SetMenualStart@CEledoradoEvent@@QAEXH@Z ; CEledoradoEvent::SetMenualStart
$LN3@Init:

; 162  : 		}
; 163  : 
; 164  : 		_Itor = this->m_mapEventObj.find(EVENT_ID_WHITEMAGE);

  006b7	c7 85 4c ff ff
	ff 03 00 00 00	 mov	 DWORD PTR $T227224[ebp], 3
  006c1	8d 85 4c ff ff
	ff		 lea	 eax, DWORD PTR $T227224[ebp]
  006c7	50		 push	 eax
  006c8	8d 8d 50 ff ff
	ff		 lea	 ecx, DWORD PTR $T227225[ebp]
  006ce	51		 push	 ecx
  006cf	8b 4d f8	 mov	 ecx, DWORD PTR _this$[ebp]
  006d2	83 c1 1c	 add	 ecx, 28			; 0000001cH
  006d5	e8 00 00 00 00	 call	 ?find@?$_Tree@V?$_Tmap_traits@HPAXU?$less@H@std@@V?$allocator@U?$pair@$$CBHPAX@std@@@2@$0A@@std@@@std@@QAE?AV?$_Tree_iterator@V?$_Tree_val@V?$_Tmap_traits@HPAXU?$less@H@std@@V?$allocator@U?$pair@$$CBHPAX@std@@@2@$0A@@std@@@std@@@2@ABH@Z ; std::_Tree<std::_Tmap_traits<int,void *,std::less<int>,std::allocator<std::pair<int const ,void *> >,0> >::find
  006da	8b 10		 mov	 edx, DWORD PTR [eax]
  006dc	89 55 b8	 mov	 DWORD PTR __Itor$224085[ebp], edx

; 165  : 		
; 166  : 		if ( _Itor != this->m_mapEventObj.end() )

  006df	8d 85 54 ff ff
	ff		 lea	 eax, DWORD PTR $T227226[ebp]
  006e5	50		 push	 eax
  006e6	8b 4d f8	 mov	 ecx, DWORD PTR _this$[ebp]
  006e9	83 c1 1c	 add	 ecx, 28			; 0000001cH
  006ec	e8 00 00 00 00	 call	 ?end@?$_Tree@V?$_Tmap_traits@HPAXU?$less@H@std@@V?$allocator@U?$pair@$$CBHPAX@std@@@2@$0A@@std@@@std@@QAE?AV?$_Tree_iterator@V?$_Tree_val@V?$_Tmap_traits@HPAXU?$less@H@std@@V?$allocator@U?$pair@$$CBHPAX@std@@@2@$0A@@std@@@std@@@2@XZ ; std::_Tree<std::_Tmap_traits<int,void *,std::less<int>,std::allocator<std::pair<int const ,void *> >,0> >::end
  006f1	50		 push	 eax
  006f2	8d 4d b8	 lea	 ecx, DWORD PTR __Itor$224085[ebp]
  006f5	e8 00 00 00 00	 call	 ??9?$_Tree_const_iterator@V?$_Tree_val@V?$_Tmap_traits@HPAXU?$less@H@std@@V?$allocator@U?$pair@$$CBHPAX@std@@@2@$0A@@std@@@std@@@std@@QBE_NABV01@@Z ; std::_Tree_const_iterator<std::_Tree_val<std::_Tmap_traits<int,void *,std::less<int>,std::allocator<std::pair<int const ,void *> >,0> > >::operator!=
  006fa	0f b6 c8	 movzx	 ecx, al
  006fd	85 c9		 test	 ecx, ecx
  006ff	74 18		 je	 SHORT $LN2@Init

; 167  : 		{
; 168  : 			CRingAttackEvent * lpEvent = (CRingAttackEvent *)_Itor->second;

  00701	8d 4d b8	 lea	 ecx, DWORD PTR __Itor$224085[ebp]
  00704	e8 00 00 00 00	 call	 ??C?$_Tree_iterator@V?$_Tree_val@V?$_Tmap_traits@HPAXU?$less@H@std@@V?$allocator@U?$pair@$$CBHPAX@std@@@2@$0A@@std@@@std@@@std@@QBEPAU?$pair@$$CBHPAX@1@XZ ; std::_Tree_iterator<std::_Tree_val<std::_Tmap_traits<int,void *,std::less<int>,std::allocator<std::pair<int const ,void *> >,0> > >::operator->
  00709	8b 40 04	 mov	 eax, DWORD PTR [eax+4]
  0070c	89 45 a8	 mov	 DWORD PTR _lpEvent$224108[ebp], eax

; 169  : 			lpEvent->SetMenualStart(FALSE);

  0070f	6a 00		 push	 0
  00711	8b 4d a8	 mov	 ecx, DWORD PTR _lpEvent$224108[ebp]
  00714	e8 00 00 00 00	 call	 ?SetMenualStart@CRingAttackEvent@@QAEXH@Z ; CRingAttackEvent::SetMenualStart
$LN2@Init:

; 170  : 		}
; 171  : 
; 172  : 		//Season 4.5 addon
; 173  : 		_Itor = this->m_mapEventObj.find(EVENT_ID_XMASATTACK);

  00719	c7 85 58 ff ff
	ff 04 00 00 00	 mov	 DWORD PTR $T227227[ebp], 4
  00723	8d 85 58 ff ff
	ff		 lea	 eax, DWORD PTR $T227227[ebp]
  00729	50		 push	 eax
  0072a	8d 8d 5c ff ff
	ff		 lea	 ecx, DWORD PTR $T227228[ebp]
  00730	51		 push	 ecx
  00731	8b 4d f8	 mov	 ecx, DWORD PTR _this$[ebp]
  00734	83 c1 1c	 add	 ecx, 28			; 0000001cH
  00737	e8 00 00 00 00	 call	 ?find@?$_Tree@V?$_Tmap_traits@HPAXU?$less@H@std@@V?$allocator@U?$pair@$$CBHPAX@std@@@2@$0A@@std@@@std@@QAE?AV?$_Tree_iterator@V?$_Tree_val@V?$_Tmap_traits@HPAXU?$less@H@std@@V?$allocator@U?$pair@$$CBHPAX@std@@@2@$0A@@std@@@std@@@2@ABH@Z ; std::_Tree<std::_Tmap_traits<int,void *,std::less<int>,std::allocator<std::pair<int const ,void *> >,0> >::find
  0073c	8b 10		 mov	 edx, DWORD PTR [eax]
  0073e	89 55 b8	 mov	 DWORD PTR __Itor$224085[ebp], edx

; 174  : 		
; 175  : 		if ( _Itor != this->m_mapEventObj.end() )

  00741	8d 85 60 ff ff
	ff		 lea	 eax, DWORD PTR $T227229[ebp]
  00747	50		 push	 eax
  00748	8b 4d f8	 mov	 ecx, DWORD PTR _this$[ebp]
  0074b	83 c1 1c	 add	 ecx, 28			; 0000001cH
  0074e	e8 00 00 00 00	 call	 ?end@?$_Tree@V?$_Tmap_traits@HPAXU?$less@H@std@@V?$allocator@U?$pair@$$CBHPAX@std@@@2@$0A@@std@@@std@@QAE?AV?$_Tree_iterator@V?$_Tree_val@V?$_Tmap_traits@HPAXU?$less@H@std@@V?$allocator@U?$pair@$$CBHPAX@std@@@2@$0A@@std@@@std@@@2@XZ ; std::_Tree<std::_Tmap_traits<int,void *,std::less<int>,std::allocator<std::pair<int const ,void *> >,0> >::end
  00753	50		 push	 eax
  00754	8d 4d b8	 lea	 ecx, DWORD PTR __Itor$224085[ebp]
  00757	e8 00 00 00 00	 call	 ??9?$_Tree_const_iterator@V?$_Tree_val@V?$_Tmap_traits@HPAXU?$less@H@std@@V?$allocator@U?$pair@$$CBHPAX@std@@@2@$0A@@std@@@std@@@std@@QBE_NABV01@@Z ; std::_Tree_const_iterator<std::_Tree_val<std::_Tmap_traits<int,void *,std::less<int>,std::allocator<std::pair<int const ,void *> >,0> > >::operator!=
  0075c	0f b6 c8	 movzx	 ecx, al
  0075f	85 c9		 test	 ecx, ecx
  00761	74 1d		 je	 SHORT $LN33@Init

; 176  : 		{
; 177  : 			CXMasAttackEvent * lpEvent = (CXMasAttackEvent *)_Itor->second;

  00763	8d 4d b8	 lea	 ecx, DWORD PTR __Itor$224085[ebp]
  00766	e8 00 00 00 00	 call	 ??C?$_Tree_iterator@V?$_Tree_val@V?$_Tmap_traits@HPAXU?$less@H@std@@V?$allocator@U?$pair@$$CBHPAX@std@@@2@$0A@@std@@@std@@@std@@QBEPAU?$pair@$$CBHPAX@1@XZ ; std::_Tree_iterator<std::_Tree_val<std::_Tmap_traits<int,void *,std::less<int>,std::allocator<std::pair<int const ,void *> >,0> > >::operator->
  0076b	8b 40 04	 mov	 eax, DWORD PTR [eax+4]
  0076e	89 45 a4	 mov	 DWORD PTR _lpEvent$224114[ebp], eax

; 178  : 			lpEvent->SetMenualStart(FALSE);

  00771	6a 00		 push	 0
  00773	8b 45 a4	 mov	 eax, DWORD PTR _lpEvent$224114[ebp]
  00776	8b 10		 mov	 edx, DWORD PTR [eax]
  00778	8b 4d a4	 mov	 ecx, DWORD PTR _lpEvent$224114[ebp]
  0077b	8b 42 14	 mov	 eax, DWORD PTR [edx+20]
  0077e	ff d0		 call	 eax
$LN33@Init:

; 179  : 		}
; 180  : 	}
; 181  : }

  00780	5f		 pop	 edi
  00781	5e		 pop	 esi
  00782	5b		 pop	 ebx
  00783	8b 4d fc	 mov	 ecx, DWORD PTR __$ArrayPad$[ebp]
  00786	33 cd		 xor	 ecx, ebp
  00788	e8 00 00 00 00	 call	 @__security_check_cookie@4
  0078d	8b e5		 mov	 esp, ebp
  0078f	5d		 pop	 ebp
  00790	c2 04 00	 ret	 4
?Init@CEventManagement@@QAEXH@Z ENDP			; CEventManagement::Init
; Function compile flags: /Odtp /ZI
; File d:\projects\exteam6.3\source\gameserver\gameserver\dragonevent.h
_TEXT	ENDS
;	COMDAT ?SetMenualStart@CDragonEvent@@QAEXH@Z
_TEXT	SEGMENT
_this$ = -4						; size = 4
_bMenualStart$ = 8					; size = 4
?SetMenualStart@CDragonEvent@@QAEXH@Z PROC		; CDragonEvent::SetMenualStart, COMDAT
; _this$ = ecx

; 23   : 	void SetMenualStart(BOOL bMenualStart){this->m_bMenualStart = bMenualStart;}

  00000	55		 push	 ebp
  00001	8b ec		 mov	 ebp, esp
  00003	83 ec 44	 sub	 esp, 68			; 00000044H
  00006	53		 push	 ebx
  00007	56		 push	 esi
  00008	57		 push	 edi
  00009	89 4d fc	 mov	 DWORD PTR _this$[ebp], ecx
  0000c	8b 45 fc	 mov	 eax, DWORD PTR _this$[ebp]
  0000f	8b 4d 08	 mov	 ecx, DWORD PTR _bMenualStart$[ebp]
  00012	89 48 10	 mov	 DWORD PTR [eax+16], ecx
  00015	5f		 pop	 edi
  00016	5e		 pop	 esi
  00017	5b		 pop	 ebx
  00018	8b e5		 mov	 esp, ebp
  0001a	5d		 pop	 ebp
  0001b	c2 04 00	 ret	 4
?SetMenualStart@CDragonEvent@@QAEXH@Z ENDP		; CDragonEvent::SetMenualStart
; Function compile flags: /Odtp /ZI
; File d:\projects\exteam6.3\source\gameserver\gameserver\attackevent.h
_TEXT	ENDS
;	COMDAT ?SetMenualStart@CAttackEvent@@QAEXH@Z
_TEXT	SEGMENT
_this$ = -4						; size = 4
_bMenualStart$ = 8					; size = 4
?SetMenualStart@CAttackEvent@@QAEXH@Z PROC		; CAttackEvent::SetMenualStart, COMDAT
; _this$ = ecx

; 22   : 	void SetMenualStart(BOOL bMenualStart){this->m_bMenualStart = bMenualStart;};

  00000	55		 push	 ebp
  00001	8b ec		 mov	 ebp, esp
  00003	83 ec 44	 sub	 esp, 68			; 00000044H
  00006	53		 push	 ebx
  00007	56		 push	 esi
  00008	57		 push	 edi
  00009	89 4d fc	 mov	 DWORD PTR _this$[ebp], ecx
  0000c	8b 45 fc	 mov	 eax, DWORD PTR _this$[ebp]
  0000f	8b 4d 08	 mov	 ecx, DWORD PTR _bMenualStart$[ebp]
  00012	89 48 28	 mov	 DWORD PTR [eax+40], ecx
  00015	5f		 pop	 edi
  00016	5e		 pop	 esi
  00017	5b		 pop	 ebx
  00018	8b e5		 mov	 esp, ebp
  0001a	5d		 pop	 ebp
  0001b	c2 04 00	 ret	 4
?SetMenualStart@CAttackEvent@@QAEXH@Z ENDP		; CAttackEvent::SetMenualStart
; Function compile flags: /Odtp /ZI
; File d:\projects\exteam6.3\source\gameserver\gameserver\eledoradoevent.h
_TEXT	ENDS
;	COMDAT ?SetMenualStart@CEledoradoEvent@@QAEXH@Z
_TEXT	SEGMENT
_this$ = -4						; size = 4
_bMenualStart$ = 8					; size = 4
?SetMenualStart@CEledoradoEvent@@QAEXH@Z PROC		; CEledoradoEvent::SetMenualStart, COMDAT
; _this$ = ecx

; 37   : 	void SetMenualStart(BOOL bMenualStart){this->m_bMenualStart = bMenualStart;}	// line : 57

  00000	55		 push	 ebp
  00001	8b ec		 mov	 ebp, esp
  00003	83 ec 44	 sub	 esp, 68			; 00000044H
  00006	53		 push	 ebx
  00007	56		 push	 esi
  00008	57		 push	 edi
  00009	89 4d fc	 mov	 DWORD PTR _this$[ebp], ecx
  0000c	8b 45 fc	 mov	 eax, DWORD PTR _this$[ebp]
  0000f	8b 4d 08	 mov	 ecx, DWORD PTR _bMenualStart$[ebp]
  00012	89 48 68	 mov	 DWORD PTR [eax+104], ecx
  00015	5f		 pop	 edi
  00016	5e		 pop	 esi
  00017	5b		 pop	 ebx
  00018	8b e5		 mov	 esp, ebp
  0001a	5d		 pop	 ebp
  0001b	c2 04 00	 ret	 4
?SetMenualStart@CEledoradoEvent@@QAEXH@Z ENDP		; CEledoradoEvent::SetMenualStart
; Function compile flags: /Odtp /ZI
; File d:\projects\exteam6.3\source\gameserver\gameserver\ringattackevent.h
_TEXT	ENDS
;	COMDAT ?SetMenualStart@CRingAttackEvent@@QAEXH@Z
_TEXT	SEGMENT
_this$ = -4						; size = 4
_bMenualStart$ = 8					; size = 4
?SetMenualStart@CRingAttackEvent@@QAEXH@Z PROC		; CRingAttackEvent::SetMenualStart, COMDAT
; _this$ = ecx

; 71   : 	void SetMenualStart(BOOL bMenualStart){this->m_bMenualStart = bMenualStart;}

  00000	55		 push	 ebp
  00001	8b ec		 mov	 ebp, esp
  00003	83 ec 44	 sub	 esp, 68			; 00000044H
  00006	53		 push	 ebx
  00007	56		 push	 esi
  00008	57		 push	 edi
  00009	89 4d fc	 mov	 DWORD PTR _this$[ebp], ecx
  0000c	8b 45 fc	 mov	 eax, DWORD PTR _this$[ebp]
  0000f	8b 4d 08	 mov	 ecx, DWORD PTR _bMenualStart$[ebp]
  00012	89 88 54 01 00
	00		 mov	 DWORD PTR [eax+340], ecx
  00018	5f		 pop	 edi
  00019	5e		 pop	 esi
  0001a	5b		 pop	 ebx
  0001b	8b e5		 mov	 esp, ebp
  0001d	5d		 pop	 ebp
  0001e	c2 04 00	 ret	 4
?SetMenualStart@CRingAttackEvent@@QAEXH@Z ENDP		; CRingAttackEvent::SetMenualStart
_TEXT	ENDS
PUBLIC	?StartEvent@CEventManagement@@QAEXH@Z		; CEventManagement::StartEvent
PUBLIC	??_C@_0DP@MCJNEPAH@?$KB?$NL?$KB?$NM?$FLEvent?5Management?$FN?5?$MA?L?$LK?$KF?F?$KO?$LN?C?$MA@ ; `string'
PUBLIC	??_C@_0DD@KCCAIPNL@?$KB?$NL?$KB?$NM?$FLEvent?5Management?$FN?5?$LD?$KP?B?$KF?5?$LK?$KP?$LA?f@ ; `string'
PUBLIC	??0?$_Vector_iterator@V?$_Vector_val@UEVENT_ID_TIME@@V?$allocator@UEVENT_ID_TIME@@@std@@@std@@@std@@QAE@XZ ; std::_Vector_iterator<std::_Vector_val<EVENT_ID_TIME,std::allocator<EVENT_ID_TIME> > >::_Vector_iterator<std::_Vector_val<EVENT_ID_TIME,std::allocator<EVENT_ID_TIME> > >
PUBLIC	?empty@?$vector@UEVENT_ID_TIME@@V?$allocator@UEVENT_ID_TIME@@@std@@@std@@QBE_NXZ ; std::vector<EVENT_ID_TIME,std::allocator<EVENT_ID_TIME> >::empty
PUBLIC	__$ArrayPad$
PUBLIC	?Run@CEventManagement@@QAEXXZ			; CEventManagement::Run
EXTRN	?LogAddTD@@3P6AXPADZZA:DWORD			; LogAddTD
;	COMDAT ??_C@_0DP@MCJNEPAH@?$KB?$NL?$KB?$NM?$FLEvent?5Management?$FN?5?$MA?L?$LK?$KF?F?$KO?$LN?C?$MA@
; File d:\projects\exteam6.3\source\gameserver\gameserver\eventmanagement.cpp
CONST	SEGMENT
??_C@_0DP@MCJNEPAH@?$KB?$NL?$KB?$NM?$FLEvent?5Management?$FN?5?$MA?L?$LK?$KF?F?$KO?$LN?C?$MA@ DB 0a1H
	DB	0dbH, 0a1H, 0dcH, '[Event Management] ', 0c0H, 0ccH, 0baH, 0a5H
	DB	0c6H, 0aeH, 0bdH, 0c3H, 0c0H, 0dbH, 0c7H, 0d4H, '. (%d) %02d %'
	DB	'02d (state=%d)', 00H			; `string'
CONST	ENDS
;	COMDAT ??_C@_0DD@KCCAIPNL@?$KB?$NL?$KB?$NM?$FLEvent?5Management?$FN?5?$LD?$KP?B?$KF?5?$LK?$KP?$LA?f@
CONST	SEGMENT
??_C@_0DD@KCCAIPNL@?$KB?$NL?$KB?$NM?$FLEvent?5Management?$FN?5?$LD?$KP?B?$KF?5?$LK?$KP?$LA?f@ DB 0a1H
	DB	0dbH, 0a1H, 0dcH, '[Event Management] ', 0b3H, 0afH, 0c2H, 0a5H
	DB	' ', 0baH, 0afH, 0b0H, 0e6H, 0b5H, 0caH, '. %02d %02d %02d', 00H ; `string'
; Function compile flags: /Odtp /ZI
CONST	ENDS
_TEXT	SEGMENT
$T227240 = -116						; size = 4
$T227241 = -112						; size = 4
$T227242 = -108						; size = 4
$T227243 = -104						; size = 4
$T227244 = -100						; size = 4
$T227245 = -96						; size = 4
_it$ = -28						; size = 4
_sysTime$ = -24						; size = 16
_this$ = -8						; size = 4
__$ArrayPad$ = -4					; size = 4
?Run@CEventManagement@@QAEXXZ PROC			; CEventManagement::Run
; _this$ = ecx

; 184  : {

  007a0	55		 push	 ebp
  007a1	8b ec		 mov	 ebp, esp
  007a3	83 ec 74	 sub	 esp, 116		; 00000074H
  007a6	a1 00 00 00 00	 mov	 eax, DWORD PTR ___security_cookie
  007ab	33 c5		 xor	 eax, ebp
  007ad	89 45 fc	 mov	 DWORD PTR __$ArrayPad$[ebp], eax
  007b0	53		 push	 ebx
  007b1	56		 push	 esi
  007b2	57		 push	 edi
  007b3	89 4d f8	 mov	 DWORD PTR _this$[ebp], ecx

; 185  : 	if ( this->m_bEventStart == false || this->m_bHasData == false || this->m_vtEventTime.empty() != FALSE )

  007b6	8b 45 f8	 mov	 eax, DWORD PTR _this$[ebp]
  007b9	83 78 04 00	 cmp	 DWORD PTR [eax+4], 0
  007bd	74 1b		 je	 SHORT $LN10@Run
  007bf	8b 45 f8	 mov	 eax, DWORD PTR _this$[ebp]
  007c2	83 78 08 00	 cmp	 DWORD PTR [eax+8], 0
  007c6	74 12		 je	 SHORT $LN10@Run
  007c8	8b 4d f8	 mov	 ecx, DWORD PTR _this$[ebp]
  007cb	83 c1 0c	 add	 ecx, 12			; 0000000cH
  007ce	e8 00 00 00 00	 call	 ?empty@?$vector@UEVENT_ID_TIME@@V?$allocator@UEVENT_ID_TIME@@@std@@@std@@QBE_NXZ ; std::vector<EVENT_ID_TIME,std::allocator<EVENT_ID_TIME> >::empty
  007d3	0f b6 c0	 movzx	 eax, al
  007d6	85 c0		 test	 eax, eax
  007d8	74 05		 je	 SHORT $LN11@Run
$LN10@Run:

; 186  : 	{
; 187  : 		return;

  007da	e9 af 01 00 00	 jmp	 $LN12@Run
$LN11@Run:

; 188  : 	}
; 189  : 
; 190  : 	SYSTEMTIME sysTime;
; 191  : 	std::vector<EVENT_ID_TIME>::iterator it;

  007df	8d 4d e4	 lea	 ecx, DWORD PTR _it$[ebp]
  007e2	e8 00 00 00 00	 call	 ??0?$_Vector_iterator@V?$_Vector_val@UEVENT_ID_TIME@@V?$allocator@UEVENT_ID_TIME@@@std@@@std@@@std@@QAE@XZ ; std::_Vector_iterator<std::_Vector_val<EVENT_ID_TIME,std::allocator<EVENT_ID_TIME> > >::_Vector_iterator<std::_Vector_val<EVENT_ID_TIME,std::allocator<EVENT_ID_TIME> > >

; 192  : 
; 193  : 	GetLocalTime(&sysTime);

  007e7	8d 45 e8	 lea	 eax, DWORD PTR _sysTime$[ebp]
  007ea	50		 push	 eax
  007eb	ff 15 00 00 00
	00		 call	 DWORD PTR __imp__GetLocalTime@4

; 194  : 
; 195  : 	if ( this->m_wToday_Year != sysTime.wYear || this->m_wToday_Month != sysTime.wMonth || this->m_wToday_Day != sysTime.wDay )

  007f1	8b 45 f8	 mov	 eax, DWORD PTR _this$[ebp]
  007f4	0f b7 48 2c	 movzx	 ecx, WORD PTR [eax+44]
  007f8	0f b7 55 e8	 movzx	 edx, WORD PTR _sysTime$[ebp]
  007fc	3b ca		 cmp	 ecx, edx
  007fe	75 22		 jne	 SHORT $LN8@Run
  00800	8b 45 f8	 mov	 eax, DWORD PTR _this$[ebp]
  00803	0f b7 48 2e	 movzx	 ecx, WORD PTR [eax+46]
  00807	0f b7 55 ea	 movzx	 edx, WORD PTR _sysTime$[ebp+2]
  0080b	3b ca		 cmp	 ecx, edx
  0080d	75 13		 jne	 SHORT $LN8@Run
  0080f	8b 45 f8	 mov	 eax, DWORD PTR _this$[ebp]
  00812	0f b7 48 30	 movzx	 ecx, WORD PTR [eax+48]
  00816	0f b7 55 ee	 movzx	 edx, WORD PTR _sysTime$[ebp+6]
  0081a	3b ca		 cmp	 ecx, edx
  0081c	0f 84 98 00 00
	00		 je	 $LN9@Run
$LN8@Run:

; 196  : 	{
; 197  : 		for ( it = this->m_vtEventTime.begin() ; it != this->m_vtEventTime.end() ; it++ )

  00822	8d 45 8c	 lea	 eax, DWORD PTR $T227240[ebp]
  00825	50		 push	 eax
  00826	8b 4d f8	 mov	 ecx, DWORD PTR _this$[ebp]
  00829	83 c1 0c	 add	 ecx, 12			; 0000000cH
  0082c	e8 00 00 00 00	 call	 ?begin@?$vector@UEVENT_ID_TIME@@V?$allocator@UEVENT_ID_TIME@@@std@@@std@@QAE?AV?$_Vector_iterator@V?$_Vector_val@UEVENT_ID_TIME@@V?$allocator@UEVENT_ID_TIME@@@std@@@std@@@2@XZ ; std::vector<EVENT_ID_TIME,std::allocator<EVENT_ID_TIME> >::begin
  00831	8b 08		 mov	 ecx, DWORD PTR [eax]
  00833	89 4d e4	 mov	 DWORD PTR _it$[ebp], ecx
  00836	eb 0e		 jmp	 SHORT $LN7@Run
$LN6@Run:
  00838	6a 00		 push	 0
  0083a	8d 45 90	 lea	 eax, DWORD PTR $T227241[ebp]
  0083d	50		 push	 eax
  0083e	8d 4d e4	 lea	 ecx, DWORD PTR _it$[ebp]
  00841	e8 00 00 00 00	 call	 ??E?$_Vector_iterator@V?$_Vector_val@UEVENT_ID_TIME@@V?$allocator@UEVENT_ID_TIME@@@std@@@std@@@std@@QAE?AV01@H@Z ; std::_Vector_iterator<std::_Vector_val<EVENT_ID_TIME,std::allocator<EVENT_ID_TIME> > >::operator++
$LN7@Run:
  00846	8d 45 94	 lea	 eax, DWORD PTR $T227242[ebp]
  00849	50		 push	 eax
  0084a	8b 4d f8	 mov	 ecx, DWORD PTR _this$[ebp]
  0084d	83 c1 0c	 add	 ecx, 12			; 0000000cH
  00850	e8 00 00 00 00	 call	 ?end@?$vector@UEVENT_ID_TIME@@V?$allocator@UEVENT_ID_TIME@@@std@@@std@@QAE?AV?$_Vector_iterator@V?$_Vector_val@UEVENT_ID_TIME@@V?$allocator@UEVENT_ID_TIME@@@std@@@std@@@2@XZ ; std::vector<EVENT_ID_TIME,std::allocator<EVENT_ID_TIME> >::end
  00855	50		 push	 eax
  00856	8d 4d e4	 lea	 ecx, DWORD PTR _it$[ebp]
  00859	e8 00 00 00 00	 call	 ??9?$_Vector_const_iterator@V?$_Vector_val@UEVENT_ID_TIME@@V?$allocator@UEVENT_ID_TIME@@@std@@@std@@@std@@QBE_NABV01@@Z ; std::_Vector_const_iterator<std::_Vector_val<EVENT_ID_TIME,std::allocator<EVENT_ID_TIME> > >::operator!=
  0085e	0f b6 c8	 movzx	 ecx, al
  00861	85 c9		 test	 ecx, ecx
  00863	74 0e		 je	 SHORT $LN5@Run

; 198  : 		{
; 199  : 			(*(it)).m_bEventStarted = false;

  00865	8d 4d e4	 lea	 ecx, DWORD PTR _it$[ebp]
  00868	e8 00 00 00 00	 call	 ??D?$_Vector_iterator@V?$_Vector_val@UEVENT_ID_TIME@@V?$allocator@UEVENT_ID_TIME@@@std@@@std@@@std@@QBEAAUEVENT_ID_TIME@@XZ ; std::_Vector_iterator<std::_Vector_val<EVENT_ID_TIME,std::allocator<EVENT_ID_TIME> > >::operator*
  0086d	c6 40 0c 00	 mov	 BYTE PTR [eax+12], 0

; 200  : 		}

  00871	eb c5		 jmp	 SHORT $LN6@Run
$LN5@Run:

; 201  : 
; 202  : 		LogAddTD("[Event Management]  . %02d %02d %02d", this->m_wToday_Year, this->m_wToday_Month, this->m_wToday_Day);

  00873	8b 45 f8	 mov	 eax, DWORD PTR _this$[ebp]
  00876	0f b7 48 30	 movzx	 ecx, WORD PTR [eax+48]
  0087a	51		 push	 ecx
  0087b	8b 55 f8	 mov	 edx, DWORD PTR _this$[ebp]
  0087e	0f b7 42 2e	 movzx	 eax, WORD PTR [edx+46]
  00882	50		 push	 eax
  00883	8b 4d f8	 mov	 ecx, DWORD PTR _this$[ebp]
  00886	0f b7 51 2c	 movzx	 edx, WORD PTR [ecx+44]
  0088a	52		 push	 edx
  0088b	68 00 00 00 00	 push	 OFFSET ??_C@_0DD@KCCAIPNL@?$KB?$NL?$KB?$NM?$FLEvent?5Management?$FN?5?$LD?$KP?B?$KF?5?$LK?$KP?$LA?f@
  00890	ff 15 00 00 00
	00		 call	 DWORD PTR ?LogAddTD@@3P6AXPADZZA ; LogAddTD
  00896	83 c4 10	 add	 esp, 16			; 00000010H

; 203  : 
; 204  : 		this->m_wToday_Year = sysTime.wYear;

  00899	8b 45 f8	 mov	 eax, DWORD PTR _this$[ebp]
  0089c	66 8b 4d e8	 mov	 cx, WORD PTR _sysTime$[ebp]
  008a0	66 89 48 2c	 mov	 WORD PTR [eax+44], cx

; 205  : 		this->m_wToday_Month = sysTime.wMonth;

  008a4	8b 45 f8	 mov	 eax, DWORD PTR _this$[ebp]
  008a7	66 8b 4d ea	 mov	 cx, WORD PTR _sysTime$[ebp+2]
  008ab	66 89 48 2e	 mov	 WORD PTR [eax+46], cx

; 206  : 		this->m_wToday_Day = sysTime.wDay;

  008af	8b 45 f8	 mov	 eax, DWORD PTR _this$[ebp]
  008b2	66 8b 4d ee	 mov	 cx, WORD PTR _sysTime$[ebp+6]
  008b6	66 89 48 30	 mov	 WORD PTR [eax+48], cx
$LN9@Run:

; 207  : 	}
; 208  : 
; 209  : 	for ( it = this->m_vtEventTime.begin() ; it != this->m_vtEventTime.end() ; it++ )

  008ba	8d 45 98	 lea	 eax, DWORD PTR $T227243[ebp]
  008bd	50		 push	 eax
  008be	8b 4d f8	 mov	 ecx, DWORD PTR _this$[ebp]
  008c1	83 c1 0c	 add	 ecx, 12			; 0000000cH
  008c4	e8 00 00 00 00	 call	 ?begin@?$vector@UEVENT_ID_TIME@@V?$allocator@UEVENT_ID_TIME@@@std@@@std@@QAE?AV?$_Vector_iterator@V?$_Vector_val@UEVENT_ID_TIME@@V?$allocator@UEVENT_ID_TIME@@@std@@@std@@@2@XZ ; std::vector<EVENT_ID_TIME,std::allocator<EVENT_ID_TIME> >::begin
  008c9	8b 08		 mov	 ecx, DWORD PTR [eax]
  008cb	89 4d e4	 mov	 DWORD PTR _it$[ebp], ecx
  008ce	eb 0e		 jmp	 SHORT $LN4@Run
$LN3@Run:
  008d0	6a 00		 push	 0
  008d2	8d 45 9c	 lea	 eax, DWORD PTR $T227244[ebp]
  008d5	50		 push	 eax
  008d6	8d 4d e4	 lea	 ecx, DWORD PTR _it$[ebp]
  008d9	e8 00 00 00 00	 call	 ??E?$_Vector_iterator@V?$_Vector_val@UEVENT_ID_TIME@@V?$allocator@UEVENT_ID_TIME@@@std@@@std@@@std@@QAE?AV01@H@Z ; std::_Vector_iterator<std::_Vector_val<EVENT_ID_TIME,std::allocator<EVENT_ID_TIME> > >::operator++
$LN4@Run:
  008de	8d 45 a0	 lea	 eax, DWORD PTR $T227245[ebp]
  008e1	50		 push	 eax
  008e2	8b 4d f8	 mov	 ecx, DWORD PTR _this$[ebp]
  008e5	83 c1 0c	 add	 ecx, 12			; 0000000cH
  008e8	e8 00 00 00 00	 call	 ?end@?$vector@UEVENT_ID_TIME@@V?$allocator@UEVENT_ID_TIME@@@std@@@std@@QAE?AV?$_Vector_iterator@V?$_Vector_val@UEVENT_ID_TIME@@V?$allocator@UEVENT_ID_TIME@@@std@@@std@@@2@XZ ; std::vector<EVENT_ID_TIME,std::allocator<EVENT_ID_TIME> >::end
  008ed	50		 push	 eax
  008ee	8d 4d e4	 lea	 ecx, DWORD PTR _it$[ebp]
  008f1	e8 00 00 00 00	 call	 ??9?$_Vector_const_iterator@V?$_Vector_val@UEVENT_ID_TIME@@V?$allocator@UEVENT_ID_TIME@@@std@@@std@@@std@@QBE_NABV01@@Z ; std::_Vector_const_iterator<std::_Vector_val<EVENT_ID_TIME,std::allocator<EVENT_ID_TIME> > >::operator!=
  008f6	0f b6 c8	 movzx	 ecx, al
  008f9	85 c9		 test	 ecx, ecx
  008fb	0f 84 8d 00 00
	00		 je	 $LN12@Run

; 210  : 	{
; 211  : 		if ( sysTime.wHour == (*(it)).m_iHour && sysTime.wMinute == (*(it)).m_iMinute && (*(it)).m_bEventStarted == false )

  00901	0f b7 75 f0	 movzx	 esi, WORD PTR _sysTime$[ebp+8]
  00905	8d 4d e4	 lea	 ecx, DWORD PTR _it$[ebp]
  00908	e8 00 00 00 00	 call	 ??D?$_Vector_iterator@V?$_Vector_val@UEVENT_ID_TIME@@V?$allocator@UEVENT_ID_TIME@@@std@@@std@@@std@@QBEAAUEVENT_ID_TIME@@XZ ; std::_Vector_iterator<std::_Vector_val<EVENT_ID_TIME,std::allocator<EVENT_ID_TIME> > >::operator*
  0090d	3b 70 04	 cmp	 esi, DWORD PTR [eax+4]
  00910	75 77		 jne	 SHORT $LN1@Run
  00912	0f b7 75 f2	 movzx	 esi, WORD PTR _sysTime$[ebp+10]
  00916	8d 4d e4	 lea	 ecx, DWORD PTR _it$[ebp]
  00919	e8 00 00 00 00	 call	 ??D?$_Vector_iterator@V?$_Vector_val@UEVENT_ID_TIME@@V?$allocator@UEVENT_ID_TIME@@@std@@@std@@@std@@QBEAAUEVENT_ID_TIME@@XZ ; std::_Vector_iterator<std::_Vector_val<EVENT_ID_TIME,std::allocator<EVENT_ID_TIME> > >::operator*
  0091e	3b 70 08	 cmp	 esi, DWORD PTR [eax+8]
  00921	75 66		 jne	 SHORT $LN1@Run
  00923	8d 4d e4	 lea	 ecx, DWORD PTR _it$[ebp]
  00926	e8 00 00 00 00	 call	 ??D?$_Vector_iterator@V?$_Vector_val@UEVENT_ID_TIME@@V?$allocator@UEVENT_ID_TIME@@@std@@@std@@@std@@QBEAAUEVENT_ID_TIME@@XZ ; std::_Vector_iterator<std::_Vector_val<EVENT_ID_TIME,std::allocator<EVENT_ID_TIME> > >::operator*
  0092b	0f b6 40 0c	 movzx	 eax, BYTE PTR [eax+12]
  0092f	85 c0		 test	 eax, eax
  00931	75 56		 jne	 SHORT $LN1@Run

; 212  : 		{
; 213  : 			LogAddTD("[Event Management] . (%d) %02d %02d (state=%d)", (*(it)).m_eEventKind , (*(it)).m_iHour, sysTime.wMinute , (*(it)).m_bEventStarted);

  00933	8d 4d e4	 lea	 ecx, DWORD PTR _it$[ebp]
  00936	e8 00 00 00 00	 call	 ??D?$_Vector_iterator@V?$_Vector_val@UEVENT_ID_TIME@@V?$allocator@UEVENT_ID_TIME@@@std@@@std@@@std@@QBEAAUEVENT_ID_TIME@@XZ ; std::_Vector_iterator<std::_Vector_val<EVENT_ID_TIME,std::allocator<EVENT_ID_TIME> > >::operator*
  0093b	0f b6 40 0c	 movzx	 eax, BYTE PTR [eax+12]
  0093f	50		 push	 eax
  00940	0f b7 4d f2	 movzx	 ecx, WORD PTR _sysTime$[ebp+10]
  00944	51		 push	 ecx
  00945	8d 4d e4	 lea	 ecx, DWORD PTR _it$[ebp]
  00948	e8 00 00 00 00	 call	 ??D?$_Vector_iterator@V?$_Vector_val@UEVENT_ID_TIME@@V?$allocator@UEVENT_ID_TIME@@@std@@@std@@@std@@QBEAAUEVENT_ID_TIME@@XZ ; std::_Vector_iterator<std::_Vector_val<EVENT_ID_TIME,std::allocator<EVENT_ID_TIME> > >::operator*
  0094d	8b 50 04	 mov	 edx, DWORD PTR [eax+4]
  00950	52		 push	 edx
  00951	8d 4d e4	 lea	 ecx, DWORD PTR _it$[ebp]
  00954	e8 00 00 00 00	 call	 ??D?$_Vector_iterator@V?$_Vector_val@UEVENT_ID_TIME@@V?$allocator@UEVENT_ID_TIME@@@std@@@std@@@std@@QBEAAUEVENT_ID_TIME@@XZ ; std::_Vector_iterator<std::_Vector_val<EVENT_ID_TIME,std::allocator<EVENT_ID_TIME> > >::operator*
  00959	8b 00		 mov	 eax, DWORD PTR [eax]
  0095b	50		 push	 eax
  0095c	68 00 00 00 00	 push	 OFFSET ??_C@_0DP@MCJNEPAH@?$KB?$NL?$KB?$NM?$FLEvent?5Management?$FN?5?$MA?L?$LK?$KF?F?$KO?$LN?C?$MA@
  00961	ff 15 00 00 00
	00		 call	 DWORD PTR ?LogAddTD@@3P6AXPADZZA ; LogAddTD
  00967	83 c4 14	 add	 esp, 20			; 00000014H

; 214  : 
; 215  : 			(*(it)).m_bEventStarted = true;

  0096a	8d 4d e4	 lea	 ecx, DWORD PTR _it$[ebp]
  0096d	e8 00 00 00 00	 call	 ??D?$_Vector_iterator@V?$_Vector_val@UEVENT_ID_TIME@@V?$allocator@UEVENT_ID_TIME@@@std@@@std@@@std@@QBEAAUEVENT_ID_TIME@@XZ ; std::_Vector_iterator<std::_Vector_val<EVENT_ID_TIME,std::allocator<EVENT_ID_TIME> > >::operator*
  00972	c6 40 0c 01	 mov	 BYTE PTR [eax+12], 1

; 216  : 			this->StartEvent((*(it)).m_eEventKind);

  00976	8d 4d e4	 lea	 ecx, DWORD PTR _it$[ebp]
  00979	e8 00 00 00 00	 call	 ??D?$_Vector_iterator@V?$_Vector_val@UEVENT_ID_TIME@@V?$allocator@UEVENT_ID_TIME@@@std@@@std@@@std@@QBEAAUEVENT_ID_TIME@@XZ ; std::_Vector_iterator<std::_Vector_val<EVENT_ID_TIME,std::allocator<EVENT_ID_TIME> > >::operator*
  0097e	8b 00		 mov	 eax, DWORD PTR [eax]
  00980	50		 push	 eax
  00981	8b 4d f8	 mov	 ecx, DWORD PTR _this$[ebp]
  00984	e8 00 00 00 00	 call	 ?StartEvent@CEventManagement@@QAEXH@Z ; CEventManagement::StartEvent
$LN1@Run:

; 217  : 		}
; 218  : 	}

  00989	e9 42 ff ff ff	 jmp	 $LN3@Run
$LN12@Run:

; 219  : }

  0098e	5f		 pop	 edi
  0098f	5e		 pop	 esi
  00990	5b		 pop	 ebx
  00991	8b 4d fc	 mov	 ecx, DWORD PTR __$ArrayPad$[ebp]
  00994	33 cd		 xor	 ecx, ebp
  00996	e8 00 00 00 00	 call	 @__security_check_cookie@4
  0099b	8b e5		 mov	 esp, ebp
  0099d	5d		 pop	 ebp
  0099e	c3		 ret	 0
?Run@CEventManagement@@QAEXXZ ENDP			; CEventManagement::Run
_TEXT	ENDS
EXTRN	?Start_Menual@CRingAttackEvent@@QAEXXZ:PROC	; CRingAttackEvent::Start_Menual
EXTRN	?Start_Menual@CEledoradoEvent@@QAEXXZ:PROC	; CEledoradoEvent::Start_Menual
EXTRN	?Start_Menual@CAttackEvent@@QAEXXZ:PROC		; CAttackEvent::Start_Menual
EXTRN	?Start_Menual@CDragonEvent@@QAEXXZ:PROC		; CDragonEvent::Start_Menual
; Function compile flags: /Odtp /ZI
_TEXT	SEGMENT
tv64 = -152						; size = 4
$T227247 = -148						; size = 4
$T227248 = -144						; size = 4
$T227249 = -140						; size = 4
$T227250 = -136						; size = 4
$T227251 = -132						; size = 4
$T227252 = -128						; size = 4
$T227253 = -124						; size = 4
$T227254 = -120						; size = 4
$T227255 = -116						; size = 4
$T227256 = -112						; size = 4
_lpEvent$224255 = -44					; size = 4
__Itor$224250 = -40					; size = 4
_lpEvent$224234 = -36					; size = 4
__Itor$224229 = -32					; size = 4
_lpEvent$224213 = -28					; size = 4
__Itor$224208 = -24					; size = 4
_lpEvent$224192 = -20					; size = 4
__Itor$224187 = -16					; size = 4
_lpEvent$224171 = -12					; size = 4
__Itor$224166 = -8					; size = 4
_this$ = -4						; size = 4
_eEventKind$ = 8					; size = 4
?StartEvent@CEventManagement@@QAEXH@Z PROC		; CEventManagement::StartEvent
; _this$ = ecx

; 222  : {

  009a0	55		 push	 ebp
  009a1	8b ec		 mov	 ebp, esp
  009a3	81 ec 98 00 00
	00		 sub	 esp, 152		; 00000098H
  009a9	53		 push	 ebx
  009aa	56		 push	 esi
  009ab	57		 push	 edi
  009ac	89 4d fc	 mov	 DWORD PTR _this$[ebp], ecx

; 223  : 	switch ( eEventKind )

  009af	8b 45 08	 mov	 eax, DWORD PTR _eEventKind$[ebp]
  009b2	89 85 68 ff ff
	ff		 mov	 DWORD PTR tv64[ebp], eax
  009b8	83 bd 68 ff ff
	ff 04		 cmp	 DWORD PTR tv64[ebp], 4
  009bf	0f 87 c6 01 00
	00		 ja	 $LN13@StartEvent
  009c5	8b 8d 68 ff ff
	ff		 mov	 ecx, DWORD PTR tv64[ebp]
  009cb	ff 24 8d 00 00
	00 00		 jmp	 DWORD PTR $LN15@StartEvent[ecx*4]
$LN10@StartEvent:

; 224  : 	{
; 225  : 		case EVENT_ID_DRAGONHERD:
; 226  : 			{
; 227  : 				std::map<int, void *>::iterator _Itor = this->m_mapEventObj.find(EVENT_ID_DRAGONHERD);

  009d2	c7 85 6c ff ff
	ff 00 00 00 00	 mov	 DWORD PTR $T227247[ebp], 0
  009dc	8d 85 6c ff ff
	ff		 lea	 eax, DWORD PTR $T227247[ebp]
  009e2	50		 push	 eax
  009e3	8d 4d f8	 lea	 ecx, DWORD PTR __Itor$224166[ebp]
  009e6	51		 push	 ecx
  009e7	8b 4d fc	 mov	 ecx, DWORD PTR _this$[ebp]
  009ea	83 c1 1c	 add	 ecx, 28			; 0000001cH
  009ed	e8 00 00 00 00	 call	 ?find@?$_Tree@V?$_Tmap_traits@HPAXU?$less@H@std@@V?$allocator@U?$pair@$$CBHPAX@std@@@2@$0A@@std@@@std@@QAE?AV?$_Tree_iterator@V?$_Tree_val@V?$_Tmap_traits@HPAXU?$less@H@std@@V?$allocator@U?$pair@$$CBHPAX@std@@@2@$0A@@std@@@std@@@2@ABH@Z ; std::_Tree<std::_Tmap_traits<int,void *,std::less<int>,std::allocator<std::pair<int const ,void *> >,0> >::find

; 228  : 
; 229  : 				if ( _Itor != this->m_mapEventObj.end() )

  009f2	8d 85 70 ff ff
	ff		 lea	 eax, DWORD PTR $T227248[ebp]
  009f8	50		 push	 eax
  009f9	8b 4d fc	 mov	 ecx, DWORD PTR _this$[ebp]
  009fc	83 c1 1c	 add	 ecx, 28			; 0000001cH
  009ff	e8 00 00 00 00	 call	 ?end@?$_Tree@V?$_Tmap_traits@HPAXU?$less@H@std@@V?$allocator@U?$pair@$$CBHPAX@std@@@2@$0A@@std@@@std@@QAE?AV?$_Tree_iterator@V?$_Tree_val@V?$_Tmap_traits@HPAXU?$less@H@std@@V?$allocator@U?$pair@$$CBHPAX@std@@@2@$0A@@std@@@std@@@2@XZ ; std::_Tree<std::_Tmap_traits<int,void *,std::less<int>,std::allocator<std::pair<int const ,void *> >,0> >::end
  00a04	50		 push	 eax
  00a05	8d 4d f8	 lea	 ecx, DWORD PTR __Itor$224166[ebp]
  00a08	e8 00 00 00 00	 call	 ??9?$_Tree_const_iterator@V?$_Tree_val@V?$_Tmap_traits@HPAXU?$less@H@std@@V?$allocator@U?$pair@$$CBHPAX@std@@@2@$0A@@std@@@std@@@std@@QBE_NABV01@@Z ; std::_Tree_const_iterator<std::_Tree_val<std::_Tmap_traits<int,void *,std::less<int>,std::allocator<std::pair<int const ,void *> >,0> > >::operator!=
  00a0d	0f b6 c8	 movzx	 ecx, al
  00a10	85 c9		 test	 ecx, ecx
  00a12	74 16		 je	 SHORT $LN9@StartEvent

; 230  : 				{
; 231  : 					CDragonEvent * lpEvent = (CDragonEvent *)_Itor->second;

  00a14	8d 4d f8	 lea	 ecx, DWORD PTR __Itor$224166[ebp]
  00a17	e8 00 00 00 00	 call	 ??C?$_Tree_iterator@V?$_Tree_val@V?$_Tmap_traits@HPAXU?$less@H@std@@V?$allocator@U?$pair@$$CBHPAX@std@@@2@$0A@@std@@@std@@@std@@QBEPAU?$pair@$$CBHPAX@1@XZ ; std::_Tree_iterator<std::_Tree_val<std::_Tmap_traits<int,void *,std::less<int>,std::allocator<std::pair<int const ,void *> >,0> > >::operator->
  00a1c	8b 40 04	 mov	 eax, DWORD PTR [eax+4]
  00a1f	89 45 f4	 mov	 DWORD PTR _lpEvent$224171[ebp], eax

; 232  : 					lpEvent->Start_Menual();

  00a22	8b 4d f4	 mov	 ecx, DWORD PTR _lpEvent$224171[ebp]
  00a25	e8 00 00 00 00	 call	 ?Start_Menual@CDragonEvent@@QAEXXZ ; CDragonEvent::Start_Menual
$LN9@StartEvent:

; 233  : 				}
; 234  : 			}
; 235  : 			break;

  00a2a	e9 5c 01 00 00	 jmp	 $LN13@StartEvent
$LN8@StartEvent:

; 236  : 
; 237  : 		case EVENT_ID_UNDERTROOP:
; 238  : 			{
; 239  : 				std::map<int, void *>::iterator _Itor = this->m_mapEventObj.find(EVENT_ID_UNDERTROOP);

  00a2f	c7 85 74 ff ff
	ff 01 00 00 00	 mov	 DWORD PTR $T227249[ebp], 1
  00a39	8d 85 74 ff ff
	ff		 lea	 eax, DWORD PTR $T227249[ebp]
  00a3f	50		 push	 eax
  00a40	8d 4d f0	 lea	 ecx, DWORD PTR __Itor$224187[ebp]
  00a43	51		 push	 ecx
  00a44	8b 4d fc	 mov	 ecx, DWORD PTR _this$[ebp]
  00a47	83 c1 1c	 add	 ecx, 28			; 0000001cH
  00a4a	e8 00 00 00 00	 call	 ?find@?$_Tree@V?$_Tmap_traits@HPAXU?$less@H@std@@V?$allocator@U?$pair@$$CBHPAX@std@@@2@$0A@@std@@@std@@QAE?AV?$_Tree_iterator@V?$_Tree_val@V?$_Tmap_traits@HPAXU?$less@H@std@@V?$allocator@U?$pair@$$CBHPAX@std@@@2@$0A@@std@@@std@@@2@ABH@Z ; std::_Tree<std::_Tmap_traits<int,void *,std::less<int>,std::allocator<std::pair<int const ,void *> >,0> >::find

; 240  : 
; 241  : 				if ( _Itor != this->m_mapEventObj.end() )

  00a4f	8d 85 78 ff ff
	ff		 lea	 eax, DWORD PTR $T227250[ebp]
  00a55	50		 push	 eax
  00a56	8b 4d fc	 mov	 ecx, DWORD PTR _this$[ebp]
  00a59	83 c1 1c	 add	 ecx, 28			; 0000001cH
  00a5c	e8 00 00 00 00	 call	 ?end@?$_Tree@V?$_Tmap_traits@HPAXU?$less@H@std@@V?$allocator@U?$pair@$$CBHPAX@std@@@2@$0A@@std@@@std@@QAE?AV?$_Tree_iterator@V?$_Tree_val@V?$_Tmap_traits@HPAXU?$less@H@std@@V?$allocator@U?$pair@$$CBHPAX@std@@@2@$0A@@std@@@std@@@2@XZ ; std::_Tree<std::_Tmap_traits<int,void *,std::less<int>,std::allocator<std::pair<int const ,void *> >,0> >::end
  00a61	50		 push	 eax
  00a62	8d 4d f0	 lea	 ecx, DWORD PTR __Itor$224187[ebp]
  00a65	e8 00 00 00 00	 call	 ??9?$_Tree_const_iterator@V?$_Tree_val@V?$_Tmap_traits@HPAXU?$less@H@std@@V?$allocator@U?$pair@$$CBHPAX@std@@@2@$0A@@std@@@std@@@std@@QBE_NABV01@@Z ; std::_Tree_const_iterator<std::_Tree_val<std::_Tmap_traits<int,void *,std::less<int>,std::allocator<std::pair<int const ,void *> >,0> > >::operator!=
  00a6a	0f b6 c8	 movzx	 ecx, al
  00a6d	85 c9		 test	 ecx, ecx
  00a6f	74 16		 je	 SHORT $LN7@StartEvent

; 242  : 				{
; 243  : 					CAttackEvent * lpEvent = (CAttackEvent *)_Itor->second;

  00a71	8d 4d f0	 lea	 ecx, DWORD PTR __Itor$224187[ebp]
  00a74	e8 00 00 00 00	 call	 ??C?$_Tree_iterator@V?$_Tree_val@V?$_Tmap_traits@HPAXU?$less@H@std@@V?$allocator@U?$pair@$$CBHPAX@std@@@2@$0A@@std@@@std@@@std@@QBEPAU?$pair@$$CBHPAX@1@XZ ; std::_Tree_iterator<std::_Tree_val<std::_Tmap_traits<int,void *,std::less<int>,std::allocator<std::pair<int const ,void *> >,0> > >::operator->
  00a79	8b 40 04	 mov	 eax, DWORD PTR [eax+4]
  00a7c	89 45 ec	 mov	 DWORD PTR _lpEvent$224192[ebp], eax

; 244  : 					lpEvent->Start_Menual();

  00a7f	8b 4d ec	 mov	 ecx, DWORD PTR _lpEvent$224192[ebp]
  00a82	e8 00 00 00 00	 call	 ?Start_Menual@CAttackEvent@@QAEXXZ ; CAttackEvent::Start_Menual
$LN7@StartEvent:

; 245  : 				}
; 246  : 			}
; 247  : 			break;

  00a87	e9 ff 00 00 00	 jmp	 $LN13@StartEvent
$LN6@StartEvent:

; 248  : 
; 249  : 		case EVENT_ID_ELDORADO:
; 250  : 			{
; 251  : 				std::map<int, void *>::iterator _Itor = this->m_mapEventObj.find(EVENT_ID_ELDORADO);

  00a8c	c7 85 7c ff ff
	ff 02 00 00 00	 mov	 DWORD PTR $T227251[ebp], 2
  00a96	8d 85 7c ff ff
	ff		 lea	 eax, DWORD PTR $T227251[ebp]
  00a9c	50		 push	 eax
  00a9d	8d 4d e8	 lea	 ecx, DWORD PTR __Itor$224208[ebp]
  00aa0	51		 push	 ecx
  00aa1	8b 4d fc	 mov	 ecx, DWORD PTR _this$[ebp]
  00aa4	83 c1 1c	 add	 ecx, 28			; 0000001cH
  00aa7	e8 00 00 00 00	 call	 ?find@?$_Tree@V?$_Tmap_traits@HPAXU?$less@H@std@@V?$allocator@U?$pair@$$CBHPAX@std@@@2@$0A@@std@@@std@@QAE?AV?$_Tree_iterator@V?$_Tree_val@V?$_Tmap_traits@HPAXU?$less@H@std@@V?$allocator@U?$pair@$$CBHPAX@std@@@2@$0A@@std@@@std@@@2@ABH@Z ; std::_Tree<std::_Tmap_traits<int,void *,std::less<int>,std::allocator<std::pair<int const ,void *> >,0> >::find

; 252  : 
; 253  : 				if ( _Itor != this->m_mapEventObj.end() )

  00aac	8d 45 80	 lea	 eax, DWORD PTR $T227252[ebp]
  00aaf	50		 push	 eax
  00ab0	8b 4d fc	 mov	 ecx, DWORD PTR _this$[ebp]
  00ab3	83 c1 1c	 add	 ecx, 28			; 0000001cH
  00ab6	e8 00 00 00 00	 call	 ?end@?$_Tree@V?$_Tmap_traits@HPAXU?$less@H@std@@V?$allocator@U?$pair@$$CBHPAX@std@@@2@$0A@@std@@@std@@QAE?AV?$_Tree_iterator@V?$_Tree_val@V?$_Tmap_traits@HPAXU?$less@H@std@@V?$allocator@U?$pair@$$CBHPAX@std@@@2@$0A@@std@@@std@@@2@XZ ; std::_Tree<std::_Tmap_traits<int,void *,std::less<int>,std::allocator<std::pair<int const ,void *> >,0> >::end
  00abb	50		 push	 eax
  00abc	8d 4d e8	 lea	 ecx, DWORD PTR __Itor$224208[ebp]
  00abf	e8 00 00 00 00	 call	 ??9?$_Tree_const_iterator@V?$_Tree_val@V?$_Tmap_traits@HPAXU?$less@H@std@@V?$allocator@U?$pair@$$CBHPAX@std@@@2@$0A@@std@@@std@@@std@@QBE_NABV01@@Z ; std::_Tree_const_iterator<std::_Tree_val<std::_Tmap_traits<int,void *,std::less<int>,std::allocator<std::pair<int const ,void *> >,0> > >::operator!=
  00ac4	0f b6 c8	 movzx	 ecx, al
  00ac7	85 c9		 test	 ecx, ecx
  00ac9	74 16		 je	 SHORT $LN5@StartEvent

; 254  : 				{
; 255  : 					CEledoradoEvent * lpEvent = (CEledoradoEvent *)_Itor->second;

  00acb	8d 4d e8	 lea	 ecx, DWORD PTR __Itor$224208[ebp]
  00ace	e8 00 00 00 00	 call	 ??C?$_Tree_iterator@V?$_Tree_val@V?$_Tmap_traits@HPAXU?$less@H@std@@V?$allocator@U?$pair@$$CBHPAX@std@@@2@$0A@@std@@@std@@@std@@QBEPAU?$pair@$$CBHPAX@1@XZ ; std::_Tree_iterator<std::_Tree_val<std::_Tmap_traits<int,void *,std::less<int>,std::allocator<std::pair<int const ,void *> >,0> > >::operator->
  00ad3	8b 40 04	 mov	 eax, DWORD PTR [eax+4]
  00ad6	89 45 e4	 mov	 DWORD PTR _lpEvent$224213[ebp], eax

; 256  : 					lpEvent->Start_Menual();

  00ad9	8b 4d e4	 mov	 ecx, DWORD PTR _lpEvent$224213[ebp]
  00adc	e8 00 00 00 00	 call	 ?Start_Menual@CEledoradoEvent@@QAEXXZ ; CEledoradoEvent::Start_Menual
$LN5@StartEvent:

; 257  : 				}
; 258  : 			}
; 259  : 			break;

  00ae1	e9 a5 00 00 00	 jmp	 $LN13@StartEvent
$LN4@StartEvent:

; 260  : 
; 261  : 		case EVENT_ID_WHITEMAGE:
; 262  : 			{
; 263  : 				std::map<int, void *>::iterator _Itor = this->m_mapEventObj.find(EVENT_ID_WHITEMAGE);

  00ae6	c7 45 84 03 00
	00 00		 mov	 DWORD PTR $T227253[ebp], 3
  00aed	8d 45 84	 lea	 eax, DWORD PTR $T227253[ebp]
  00af0	50		 push	 eax
  00af1	8d 4d e0	 lea	 ecx, DWORD PTR __Itor$224229[ebp]
  00af4	51		 push	 ecx
  00af5	8b 4d fc	 mov	 ecx, DWORD PTR _this$[ebp]
  00af8	83 c1 1c	 add	 ecx, 28			; 0000001cH
  00afb	e8 00 00 00 00	 call	 ?find@?$_Tree@V?$_Tmap_traits@HPAXU?$less@H@std@@V?$allocator@U?$pair@$$CBHPAX@std@@@2@$0A@@std@@@std@@QAE?AV?$_Tree_iterator@V?$_Tree_val@V?$_Tmap_traits@HPAXU?$less@H@std@@V?$allocator@U?$pair@$$CBHPAX@std@@@2@$0A@@std@@@std@@@2@ABH@Z ; std::_Tree<std::_Tmap_traits<int,void *,std::less<int>,std::allocator<std::pair<int const ,void *> >,0> >::find

; 264  : 
; 265  : 				if ( _Itor != this->m_mapEventObj.end() )

  00b00	8d 45 88	 lea	 eax, DWORD PTR $T227254[ebp]
  00b03	50		 push	 eax
  00b04	8b 4d fc	 mov	 ecx, DWORD PTR _this$[ebp]
  00b07	83 c1 1c	 add	 ecx, 28			; 0000001cH
  00b0a	e8 00 00 00 00	 call	 ?end@?$_Tree@V?$_Tmap_traits@HPAXU?$less@H@std@@V?$allocator@U?$pair@$$CBHPAX@std@@@2@$0A@@std@@@std@@QAE?AV?$_Tree_iterator@V?$_Tree_val@V?$_Tmap_traits@HPAXU?$less@H@std@@V?$allocator@U?$pair@$$CBHPAX@std@@@2@$0A@@std@@@std@@@2@XZ ; std::_Tree<std::_Tmap_traits<int,void *,std::less<int>,std::allocator<std::pair<int const ,void *> >,0> >::end
  00b0f	50		 push	 eax
  00b10	8d 4d e0	 lea	 ecx, DWORD PTR __Itor$224229[ebp]
  00b13	e8 00 00 00 00	 call	 ??9?$_Tree_const_iterator@V?$_Tree_val@V?$_Tmap_traits@HPAXU?$less@H@std@@V?$allocator@U?$pair@$$CBHPAX@std@@@2@$0A@@std@@@std@@@std@@QBE_NABV01@@Z ; std::_Tree_const_iterator<std::_Tree_val<std::_Tmap_traits<int,void *,std::less<int>,std::allocator<std::pair<int const ,void *> >,0> > >::operator!=
  00b18	0f b6 c8	 movzx	 ecx, al
  00b1b	85 c9		 test	 ecx, ecx
  00b1d	74 16		 je	 SHORT $LN3@StartEvent

; 266  : 				{
; 267  : 					CRingAttackEvent * lpEvent = (CRingAttackEvent *)_Itor->second;

  00b1f	8d 4d e0	 lea	 ecx, DWORD PTR __Itor$224229[ebp]
  00b22	e8 00 00 00 00	 call	 ??C?$_Tree_iterator@V?$_Tree_val@V?$_Tmap_traits@HPAXU?$less@H@std@@V?$allocator@U?$pair@$$CBHPAX@std@@@2@$0A@@std@@@std@@@std@@QBEPAU?$pair@$$CBHPAX@1@XZ ; std::_Tree_iterator<std::_Tree_val<std::_Tmap_traits<int,void *,std::less<int>,std::allocator<std::pair<int const ,void *> >,0> > >::operator->
  00b27	8b 40 04	 mov	 eax, DWORD PTR [eax+4]
  00b2a	89 45 dc	 mov	 DWORD PTR _lpEvent$224234[ebp], eax

; 268  : 					lpEvent->Start_Menual();

  00b2d	8b 4d dc	 mov	 ecx, DWORD PTR _lpEvent$224234[ebp]
  00b30	e8 00 00 00 00	 call	 ?Start_Menual@CRingAttackEvent@@QAEXXZ ; CRingAttackEvent::Start_Menual
$LN3@StartEvent:

; 269  : 				}
; 270  : 			}
; 271  : 			break;

  00b35	eb 54		 jmp	 SHORT $LN13@StartEvent
$LN2@StartEvent:

; 272  : 
; 273  : 		case EVENT_ID_XMASATTACK:
; 274  : 			{
; 275  : 				std::map<int, void *>::iterator _Itor = this->m_mapEventObj.find(EVENT_ID_XMASATTACK);

  00b37	c7 45 8c 04 00
	00 00		 mov	 DWORD PTR $T227255[ebp], 4
  00b3e	8d 45 8c	 lea	 eax, DWORD PTR $T227255[ebp]
  00b41	50		 push	 eax
  00b42	8d 4d d8	 lea	 ecx, DWORD PTR __Itor$224250[ebp]
  00b45	51		 push	 ecx
  00b46	8b 4d fc	 mov	 ecx, DWORD PTR _this$[ebp]
  00b49	83 c1 1c	 add	 ecx, 28			; 0000001cH
  00b4c	e8 00 00 00 00	 call	 ?find@?$_Tree@V?$_Tmap_traits@HPAXU?$less@H@std@@V?$allocator@U?$pair@$$CBHPAX@std@@@2@$0A@@std@@@std@@QAE?AV?$_Tree_iterator@V?$_Tree_val@V?$_Tmap_traits@HPAXU?$less@H@std@@V?$allocator@U?$pair@$$CBHPAX@std@@@2@$0A@@std@@@std@@@2@ABH@Z ; std::_Tree<std::_Tmap_traits<int,void *,std::less<int>,std::allocator<std::pair<int const ,void *> >,0> >::find

; 276  : 
; 277  : 				if ( _Itor != this->m_mapEventObj.end() )

  00b51	8d 45 90	 lea	 eax, DWORD PTR $T227256[ebp]
  00b54	50		 push	 eax
  00b55	8b 4d fc	 mov	 ecx, DWORD PTR _this$[ebp]
  00b58	83 c1 1c	 add	 ecx, 28			; 0000001cH
  00b5b	e8 00 00 00 00	 call	 ?end@?$_Tree@V?$_Tmap_traits@HPAXU?$less@H@std@@V?$allocator@U?$pair@$$CBHPAX@std@@@2@$0A@@std@@@std@@QAE?AV?$_Tree_iterator@V?$_Tree_val@V?$_Tmap_traits@HPAXU?$less@H@std@@V?$allocator@U?$pair@$$CBHPAX@std@@@2@$0A@@std@@@std@@@2@XZ ; std::_Tree<std::_Tmap_traits<int,void *,std::less<int>,std::allocator<std::pair<int const ,void *> >,0> >::end
  00b60	50		 push	 eax
  00b61	8d 4d d8	 lea	 ecx, DWORD PTR __Itor$224250[ebp]
  00b64	e8 00 00 00 00	 call	 ??9?$_Tree_const_iterator@V?$_Tree_val@V?$_Tmap_traits@HPAXU?$less@H@std@@V?$allocator@U?$pair@$$CBHPAX@std@@@2@$0A@@std@@@std@@@std@@QBE_NABV01@@Z ; std::_Tree_const_iterator<std::_Tree_val<std::_Tmap_traits<int,void *,std::less<int>,std::allocator<std::pair<int const ,void *> >,0> > >::operator!=
  00b69	0f b6 c8	 movzx	 ecx, al
  00b6c	85 c9		 test	 ecx, ecx
  00b6e	74 1b		 je	 SHORT $LN13@StartEvent

; 278  : 				{
; 279  : 					CXMasAttackEvent * lpEvent = (CXMasAttackEvent *)_Itor->second;

  00b70	8d 4d d8	 lea	 ecx, DWORD PTR __Itor$224250[ebp]
  00b73	e8 00 00 00 00	 call	 ??C?$_Tree_iterator@V?$_Tree_val@V?$_Tmap_traits@HPAXU?$less@H@std@@V?$allocator@U?$pair@$$CBHPAX@std@@@2@$0A@@std@@@std@@@std@@QBEPAU?$pair@$$CBHPAX@1@XZ ; std::_Tree_iterator<std::_Tree_val<std::_Tmap_traits<int,void *,std::less<int>,std::allocator<std::pair<int const ,void *> >,0> > >::operator->
  00b78	8b 40 04	 mov	 eax, DWORD PTR [eax+4]
  00b7b	89 45 d4	 mov	 DWORD PTR _lpEvent$224255[ebp], eax

; 280  : 					lpEvent->Start_Menual();

  00b7e	8b 45 d4	 mov	 eax, DWORD PTR _lpEvent$224255[ebp]
  00b81	8b 10		 mov	 edx, DWORD PTR [eax]
  00b83	8b 4d d4	 mov	 ecx, DWORD PTR _lpEvent$224255[ebp]
  00b86	8b 42 18	 mov	 eax, DWORD PTR [edx+24]
  00b89	ff d0		 call	 eax
$LN13@StartEvent:

; 281  : 				}
; 282  : 			}
; 283  : 			break;
; 284  : 	}
; 285  : }

  00b8b	5f		 pop	 edi
  00b8c	5e		 pop	 esi
  00b8d	5b		 pop	 ebx
  00b8e	8b e5		 mov	 esp, ebp
  00b90	5d		 pop	 ebp
  00b91	c2 04 00	 ret	 4
$LN15@StartEvent:
  00b94	00 00 00 00	 DD	 $LN10@StartEvent
  00b98	00 00 00 00	 DD	 $LN8@StartEvent
  00b9c	00 00 00 00	 DD	 $LN6@StartEvent
  00ba0	00 00 00 00	 DD	 $LN4@StartEvent
  00ba4	00 00 00 00	 DD	 $LN2@StartEvent
?StartEvent@CEventManagement@@QAEXH@Z ENDP		; CEventManagement::StartEvent
_TEXT	ENDS
PUBLIC	??_C@_0BF@ENKDDIBD@?$FLDOTH?$FN?5?$CFs?5file?5load?$CB?$AA@ ; `string'
PUBLIC	?push_back@?$vector@UEVENT_ID_TIME@@V?$allocator@UEVENT_ID_TIME@@@std@@@std@@QAEXABUEVENT_ID_TIME@@@Z ; std::vector<EVENT_ID_TIME,std::allocator<EVENT_ID_TIME> >::push_back
PUBLIC	??_C@_03JBJLGPFL@end?$AA@			; `string'
PUBLIC	??_C@_0CA@JEMAOPLJ@?$FLDOTH?$FN?5Info?5file?5Load?5Fail?5?$FL?$CFs?$FN?$AA@ ; `string'
PUBLIC	??_C@_01KDCPPGHE@r?$AA@				; `string'
PUBLIC	__$ArrayPad$
PUBLIC	?Load@CEventManagement@@QAE_NPAD@Z		; CEventManagement::Load
EXTRN	?LogAdd@@3P6AXPADZZA:DWORD			; LogAdd
EXTRN	_fclose:PROC
EXTRN	_strcmp:PROC
EXTRN	?MsgBox@@YAXPADZZ:PROC				; MsgBox
EXTRN	_fopen:PROC
EXTRN	__ftol2_sse:PROC
_BSS	SEGMENT
_TokenString DB	064H DUP (?)
_TokenNumber DD	01H DUP (?)
_SMDFile DD	01H DUP (?)
_BSS	ENDS
;	COMDAT ??_C@_0BF@ENKDDIBD@?$FLDOTH?$FN?5?$CFs?5file?5load?$CB?$AA@
CONST	SEGMENT
??_C@_0BF@ENKDDIBD@?$FLDOTH?$FN?5?$CFs?5file?5load?$CB?$AA@ DB '[DOTH] %s'
	DB	' file load!', 00H				; `string'
CONST	ENDS
;	COMDAT ??_C@_03JBJLGPFL@end?$AA@
CONST	SEGMENT
??_C@_03JBJLGPFL@end?$AA@ DB 'end', 00H			; `string'
CONST	ENDS
;	COMDAT ??_C@_0CA@JEMAOPLJ@?$FLDOTH?$FN?5Info?5file?5Load?5Fail?5?$FL?$CFs?$FN?$AA@
CONST	SEGMENT
??_C@_0CA@JEMAOPLJ@?$FLDOTH?$FN?5Info?5file?5Load?5Fail?5?$FL?$CFs?$FN?$AA@ DB '['
	DB	'DOTH] Info file Load Fail [%s]', 00H	; `string'
CONST	ENDS
;	COMDAT ??_C@_01KDCPPGHE@r?$AA@
CONST	SEGMENT
??_C@_01KDCPPGHE@r?$AA@ DB 'r', 00H			; `string'
; Function compile flags: /Odtp /ZI
CONST	ENDS
_TEXT	SEGMENT
_EIT$224277 = -32					; size = 16
_type$ = -16						; size = 4
_Token$ = -12						; size = 4
_this$ = -8						; size = 4
__$ArrayPad$ = -4					; size = 4
_lpszFileName$ = 8					; size = 4
?Load@CEventManagement@@QAE_NPAD@Z PROC			; CEventManagement::Load
; _this$ = ecx

; 288  : {

  00bb0	55		 push	 ebp
  00bb1	8b ec		 mov	 ebp, esp
  00bb3	83 ec 60	 sub	 esp, 96			; 00000060H
  00bb6	a1 00 00 00 00	 mov	 eax, DWORD PTR ___security_cookie
  00bbb	33 c5		 xor	 eax, ebp
  00bbd	89 45 fc	 mov	 DWORD PTR __$ArrayPad$[ebp], eax
  00bc0	53		 push	 ebx
  00bc1	56		 push	 esi
  00bc2	57		 push	 edi
  00bc3	89 4d f8	 mov	 DWORD PTR _this$[ebp], ecx

; 289  : 	this->m_bHasData = false;

  00bc6	8b 45 f8	 mov	 eax, DWORD PTR _this$[ebp]
  00bc9	c7 40 08 00 00
	00 00		 mov	 DWORD PTR [eax+8], 0

; 290  : 	this->Clear();

  00bd0	8b 4d f8	 mov	 ecx, DWORD PTR _this$[ebp]
  00bd3	e8 00 00 00 00	 call	 ?Clear@CEventManagement@@QAEXXZ ; CEventManagement::Clear

; 291  : 
; 292  : 	SMDFile = fopen(lpszFileName, "r");

  00bd8	68 00 00 00 00	 push	 OFFSET ??_C@_01KDCPPGHE@r?$AA@
  00bdd	8b 45 08	 mov	 eax, DWORD PTR _lpszFileName$[ebp]
  00be0	50		 push	 eax
  00be1	e8 00 00 00 00	 call	 _fopen
  00be6	83 c4 08	 add	 esp, 8
  00be9	a3 00 00 00 00	 mov	 DWORD PTR _SMDFile, eax

; 293  : 
; 294  : 	if ( SMDFile == NULL )

  00bee	83 3d 00 00 00
	00 00		 cmp	 DWORD PTR _SMDFile, 0
  00bf5	75 18		 jne	 SHORT $LN8@Load

; 295  : 	{
; 296  : 		MsgBox("[DOTH] Info file Load Fail [%s]", lpszFileName);

  00bf7	8b 45 08	 mov	 eax, DWORD PTR _lpszFileName$[ebp]
  00bfa	50		 push	 eax
  00bfb	68 00 00 00 00	 push	 OFFSET ??_C@_0CA@JEMAOPLJ@?$FLDOTH?$FN?5Info?5file?5Load?5Fail?5?$FL?$CFs?$FN?$AA@
  00c00	e8 00 00 00 00	 call	 ?MsgBox@@YAXPADZZ	; MsgBox
  00c05	83 c4 08	 add	 esp, 8

; 297  : 
; 298  : 		return false;

  00c08	32 c0		 xor	 al, al
  00c0a	e9 e4 00 00 00	 jmp	 $LN9@Load
$LN8@Load:

; 299  : 	}
; 300  : 
; 301  : 	int Token;
; 302  : 	int type = -1;

  00c0f	c7 45 f0 ff ff
	ff ff		 mov	 DWORD PTR _type$[ebp], -1
$LN7@Load:

; 303  : 
; 304  : 	while ( true )

  00c16	b8 01 00 00 00	 mov	 eax, 1
  00c1b	85 c0		 test	 eax, eax
  00c1d	0f 84 a4 00 00
	00		 je	 $LN6@Load

; 305  : 	{
; 306  : 		Token = GetToken();

  00c23	e8 00 00 00 00	 call	 ?GetToken@@YA?AW4SMDToken@@XZ ; GetToken
  00c28	89 45 f4	 mov	 DWORD PTR _Token$[ebp], eax

; 307  : 
; 308  : 		if ( Token == 2 )

  00c2b	83 7d f4 02	 cmp	 DWORD PTR _Token$[ebp], 2
  00c2f	75 05		 jne	 SHORT $LN5@Load

; 309  : 		{
; 310  : 			break;

  00c31	e9 91 00 00 00	 jmp	 $LN6@Load
$LN5@Load:

; 311  : 		}
; 312  : 
; 313  : 		type = (int)TokenNumber;

  00c36	d9 05 00 00 00
	00		 fld	 DWORD PTR _TokenNumber
  00c3c	e8 00 00 00 00	 call	 __ftol2_sse
  00c41	89 45 f0	 mov	 DWORD PTR _type$[ebp], eax
$LN4@Load:

; 314  : 
; 315  : 		while ( true )

  00c44	b8 01 00 00 00	 mov	 eax, 1
  00c49	85 c0		 test	 eax, eax
  00c4b	74 75		 je	 SHORT $LN3@Load

; 316  : 		{
; 317  : 			if ( type == 0 )

  00c4d	83 7d f0 00	 cmp	 DWORD PTR _type$[ebp], 0
  00c51	75 6d		 jne	 SHORT $LN2@Load

; 318  : 			{
; 319  : 				Token = GetToken();

  00c53	e8 00 00 00 00	 call	 ?GetToken@@YA?AW4SMDToken@@XZ ; GetToken
  00c58	89 45 f4	 mov	 DWORD PTR _Token$[ebp], eax

; 320  : 
; 321  : 				if ( strcmp("end", TokenString) == 0 )

  00c5b	68 00 00 00 00	 push	 OFFSET _TokenString
  00c60	68 00 00 00 00	 push	 OFFSET ??_C@_03JBJLGPFL@end?$AA@
  00c65	e8 00 00 00 00	 call	 _strcmp
  00c6a	83 c4 08	 add	 esp, 8
  00c6d	85 c0		 test	 eax, eax
  00c6f	75 02		 jne	 SHORT $LN1@Load

; 322  : 				{
; 323  : 					break;

  00c71	eb 4f		 jmp	 SHORT $LN3@Load
$LN1@Load:

; 324  : 				}
; 325  : 
; 326  : 				EVENT_ID_TIME EIT;
; 327  : 
; 328  : 				EIT.m_eEventKind = (int)TokenNumber;

  00c73	d9 05 00 00 00
	00		 fld	 DWORD PTR _TokenNumber
  00c79	e8 00 00 00 00	 call	 __ftol2_sse
  00c7e	89 45 e0	 mov	 DWORD PTR _EIT$224277[ebp], eax

; 329  : 
; 330  : 				Token = GetToken();

  00c81	e8 00 00 00 00	 call	 ?GetToken@@YA?AW4SMDToken@@XZ ; GetToken
  00c86	89 45 f4	 mov	 DWORD PTR _Token$[ebp], eax

; 331  : 				EIT.m_iHour = (int)TokenNumber;

  00c89	d9 05 00 00 00
	00		 fld	 DWORD PTR _TokenNumber
  00c8f	e8 00 00 00 00	 call	 __ftol2_sse
  00c94	89 45 e4	 mov	 DWORD PTR _EIT$224277[ebp+4], eax

; 332  : 
; 333  : 				Token = GetToken();

  00c97	e8 00 00 00 00	 call	 ?GetToken@@YA?AW4SMDToken@@XZ ; GetToken
  00c9c	89 45 f4	 mov	 DWORD PTR _Token$[ebp], eax

; 334  : 				EIT.m_iMinute = (int)TokenNumber;

  00c9f	d9 05 00 00 00
	00		 fld	 DWORD PTR _TokenNumber
  00ca5	e8 00 00 00 00	 call	 __ftol2_sse
  00caa	89 45 e8	 mov	 DWORD PTR _EIT$224277[ebp+8], eax

; 335  : 
; 336  : 				EIT.m_bEventStarted = false;

  00cad	c6 45 ec 00	 mov	 BYTE PTR _EIT$224277[ebp+12], 0

; 337  : 
; 338  : 				this->m_vtEventTime.push_back(EIT);

  00cb1	8d 45 e0	 lea	 eax, DWORD PTR _EIT$224277[ebp]
  00cb4	50		 push	 eax
  00cb5	8b 4d f8	 mov	 ecx, DWORD PTR _this$[ebp]
  00cb8	83 c1 0c	 add	 ecx, 12			; 0000000cH
  00cbb	e8 00 00 00 00	 call	 ?push_back@?$vector@UEVENT_ID_TIME@@V?$allocator@UEVENT_ID_TIME@@@std@@@std@@QAEXABUEVENT_ID_TIME@@@Z ; std::vector<EVENT_ID_TIME,std::allocator<EVENT_ID_TIME> >::push_back
$LN2@Load:

; 339  : 			}
; 340  : 		}

  00cc0	eb 82		 jmp	 SHORT $LN4@Load
$LN3@Load:

; 341  : 	}

  00cc2	e9 4f ff ff ff	 jmp	 $LN7@Load
$LN6@Load:

; 342  : 
; 343  : 	fclose(SMDFile);

  00cc7	a1 00 00 00 00	 mov	 eax, DWORD PTR _SMDFile
  00ccc	50		 push	 eax
  00ccd	e8 00 00 00 00	 call	 _fclose
  00cd2	83 c4 04	 add	 esp, 4

; 344  : 	LogAdd("[DOTH] %s file load!", lpszFileName);

  00cd5	8b 45 08	 mov	 eax, DWORD PTR _lpszFileName$[ebp]
  00cd8	50		 push	 eax
  00cd9	68 00 00 00 00	 push	 OFFSET ??_C@_0BF@ENKDDIBD@?$FLDOTH?$FN?5?$CFs?5file?5load?$CB?$AA@
  00cde	ff 15 00 00 00
	00		 call	 DWORD PTR ?LogAdd@@3P6AXPADZZA ; LogAdd
  00ce4	83 c4 08	 add	 esp, 8

; 345  : 
; 346  : 	this->m_bHasData = true;

  00ce7	8b 45 f8	 mov	 eax, DWORD PTR _this$[ebp]
  00cea	c7 40 08 01 00
	00 00		 mov	 DWORD PTR [eax+8], 1

; 347  : 
; 348  : 	return true;

  00cf1	b0 01		 mov	 al, 1
$LN9@Load:

; 349  : }

  00cf3	5f		 pop	 edi
  00cf4	5e		 pop	 esi
  00cf5	5b		 pop	 ebx
  00cf6	8b 4d fc	 mov	 ecx, DWORD PTR __$ArrayPad$[ebp]
  00cf9	33 cd		 xor	 ecx, ebp
  00cfb	e8 00 00 00 00	 call	 @__security_check_cookie@4
  00d00	8b e5		 mov	 esp, ebp
  00d02	5d		 pop	 ebp
  00d03	c2 04 00	 ret	 4
?Load@CEventManagement@@QAE_NPAD@Z ENDP			; CEventManagement::Load
_TEXT	ENDS
PUBLIC	__$ArrayPad$
EXTRN	_isalnum:PROC
EXTRN	_isalpha:PROC
EXTRN	_atof:PROC
EXTRN	_isdigit:PROC
EXTRN	_getc:PROC
EXTRN	_ungetc:PROC
EXTRN	_isspace:PROC
EXTRN	_fgetc:PROC
EXTRN	__fltused:DWORD
_BSS	SEGMENT
_CurrentToken DD 01H DUP (?)
; Function compile flags: /Odtp /ZI
; File d:\projects\exteam6.3\source\gameserver\include\readscript.h
_BSS	ENDS
_TEXT	SEGMENT
tv90 = -180						; size = 4
_TempString$ = -112					; size = 100
_p$ = -12						; size = 4
_ch$ = -5						; size = 1
__$ArrayPad$ = -4					; size = 4
?GetToken@@YA?AW4SMDToken@@XZ PROC			; GetToken

; 24   : {

  00d10	55		 push	 ebp
  00d11	8b ec		 mov	 ebp, esp
  00d13	81 ec b4 00 00
	00		 sub	 esp, 180		; 000000b4H
  00d19	a1 00 00 00 00	 mov	 eax, DWORD PTR ___security_cookie
  00d1e	33 c5		 xor	 eax, ebp
  00d20	89 45 fc	 mov	 DWORD PTR __$ArrayPad$[ebp], eax
  00d23	53		 push	 ebx
  00d24	56		 push	 esi
  00d25	57		 push	 edi

; 25   : 	char ch;
; 26   : 	char* p;
; 27   : 	char TempString[100];
; 28   : 
; 29   : 	TokenString[0]=0;

  00d26	c6 05 00 00 00
	00 00		 mov	 BYTE PTR _TokenString, 0
$LN31@GetToken:

; 30   : 
; 31   : 	do
; 32   : 	{
; 33   : 		if ((ch=fgetc(SMDFile)) == -1)

  00d2d	a1 00 00 00 00	 mov	 eax, DWORD PTR _SMDFile
  00d32	50		 push	 eax
  00d33	e8 00 00 00 00	 call	 _fgetc
  00d38	83 c4 04	 add	 esp, 4
  00d3b	88 45 fb	 mov	 BYTE PTR _ch$[ebp], al
  00d3e	0f be 4d fb	 movsx	 ecx, BYTE PTR _ch$[ebp]
  00d42	83 f9 ff	 cmp	 ecx, -1
  00d45	75 0c		 jne	 SHORT $LN28@GetToken

; 34   : 		{
; 35   : 			return END;	// End of FILE (EOF)

  00d47	b8 02 00 00 00	 mov	 eax, 2
  00d4c	e9 f7 02 00 00	 jmp	 $LN32@GetToken

; 36   : 		}
; 37   : 		else

  00d51	eb 5b		 jmp	 SHORT $LN22@GetToken
$LN28@GetToken:

; 38   : 		{	
; 39   : 			if (ch=='/')		// this is /

  00d53	0f be 45 fb	 movsx	 eax, BYTE PTR _ch$[ebp]
  00d57	83 f8 2f	 cmp	 eax, 47			; 0000002fH
  00d5a	75 52		 jne	 SHORT $LN22@GetToken

; 40   : 			{
; 41   : 				if((ch=fgetc(SMDFile)) == '/')

  00d5c	a1 00 00 00 00	 mov	 eax, DWORD PTR _SMDFile
  00d61	50		 push	 eax
  00d62	e8 00 00 00 00	 call	 _fgetc
  00d67	83 c4 04	 add	 esp, 4
  00d6a	88 45 fb	 mov	 BYTE PTR _ch$[ebp], al
  00d6d	0f be 4d fb	 movsx	 ecx, BYTE PTR _ch$[ebp]
  00d71	83 f9 2f	 cmp	 ecx, 47			; 0000002fH
  00d74	75 38		 jne	 SHORT $LN22@GetToken
$LN24@GetToken:

; 42   : 				{
; 43   : 					while ((ch != '\n') && (ch != -1))	// End of Line (EOL)

  00d76	0f be 45 fb	 movsx	 eax, BYTE PTR _ch$[ebp]
  00d7a	83 f8 0a	 cmp	 eax, 10			; 0000000aH
  00d7d	74 1c		 je	 SHORT $LN23@GetToken
  00d7f	0f be 45 fb	 movsx	 eax, BYTE PTR _ch$[ebp]
  00d83	83 f8 ff	 cmp	 eax, -1
  00d86	74 13		 je	 SHORT $LN23@GetToken

; 44   : 					{
; 45   : 						ch=fgetc(SMDFile);

  00d88	a1 00 00 00 00	 mov	 eax, DWORD PTR _SMDFile
  00d8d	50		 push	 eax
  00d8e	e8 00 00 00 00	 call	 _fgetc
  00d93	83 c4 04	 add	 esp, 4
  00d96	88 45 fb	 mov	 BYTE PTR _ch$[ebp], al

; 46   : 					}

  00d99	eb db		 jmp	 SHORT $LN24@GetToken
$LN23@GetToken:

; 47   : 	
; 48   : 					if (ch == -1)

  00d9b	0f be 45 fb	 movsx	 eax, BYTE PTR _ch$[ebp]
  00d9f	83 f8 ff	 cmp	 eax, -1
  00da2	75 0a		 jne	 SHORT $LN22@GetToken

; 49   : 					{
; 50   : 						return END;	// End of FILE

  00da4	b8 02 00 00 00	 mov	 eax, 2
  00da9	e9 9a 02 00 00	 jmp	 $LN32@GetToken
$LN22@GetToken:

; 51   : 					}
; 52   : 				}
; 53   : 			}
; 54   : 		}
; 55   : 	}
; 56   : 	while (isspace(ch) != 0);

  00dae	0f be 45 fb	 movsx	 eax, BYTE PTR _ch$[ebp]
  00db2	50		 push	 eax
  00db3	e8 00 00 00 00	 call	 _isspace
  00db8	83 c4 04	 add	 esp, 4
  00dbb	85 c0		 test	 eax, eax
  00dbd	0f 85 6a ff ff
	ff		 jne	 $LN31@GetToken

; 57   : 
; 58   : 	
; 59   : 	switch(ch)

  00dc3	0f be 45 fb	 movsx	 eax, BYTE PTR _ch$[ebp]
  00dc7	89 85 4c ff ff
	ff		 mov	 DWORD PTR tv90[ebp], eax
  00dcd	8b 8d 4c ff ff
	ff		 mov	 ecx, DWORD PTR tv90[ebp]
  00dd3	83 e9 22	 sub	 ecx, 34			; 00000022H
  00dd6	89 8d 4c ff ff
	ff		 mov	 DWORD PTR tv90[ebp], ecx
  00ddc	83 bd 4c ff ff
	ff 5b		 cmp	 DWORD PTR tv90[ebp], 91	; 0000005bH
  00de3	0f 87 a3 01 00
	00		 ja	 $LN6@GetToken
  00de9	8b 95 4c ff ff
	ff		 mov	 edx, DWORD PTR tv90[ebp]
  00def	0f b6 82 00 00
	00 00		 movzx	 eax, BYTE PTR $LN34@GetToken[edx]
  00df6	ff 24 85 00 00
	00 00		 jmp	 DWORD PTR $LN35@GetToken[eax*4]
$LN19@GetToken:

; 60   : 	{
; 61   : 
; 62   : 	case 0x23:	// #
; 63   : 		return CurrentToken=COMMAND;

  00dfd	c7 05 00 00 00
	00 23 00 00 00	 mov	 DWORD PTR _CurrentToken, 35 ; 00000023H
  00e07	a1 00 00 00 00	 mov	 eax, DWORD PTR _CurrentToken
  00e0c	e9 37 02 00 00	 jmp	 $LN32@GetToken

; 64   : 		break;

  00e11	e9 30 02 00 00	 jmp	 $LN20@GetToken
$LN18@GetToken:

; 65   : 	
; 66   : 	case 0x3B:	// ;
; 67   : 		return CurrentToken=SEMICOLON;

  00e16	c7 05 00 00 00
	00 3b 00 00 00	 mov	 DWORD PTR _CurrentToken, 59 ; 0000003bH
  00e20	a1 00 00 00 00	 mov	 eax, DWORD PTR _CurrentToken
  00e25	e9 1e 02 00 00	 jmp	 $LN32@GetToken

; 68   : 		break;

  00e2a	e9 17 02 00 00	 jmp	 $LN20@GetToken
$LN17@GetToken:

; 69   : 	
; 70   : 	case 0x2C:	// ,
; 71   : 
; 72   : 		return CurrentToken=COMMA;

  00e2f	c7 05 00 00 00
	00 2c 00 00 00	 mov	 DWORD PTR _CurrentToken, 44 ; 0000002cH
  00e39	a1 00 00 00 00	 mov	 eax, DWORD PTR _CurrentToken
  00e3e	e9 05 02 00 00	 jmp	 $LN32@GetToken

; 73   : 		break;

  00e43	e9 fe 01 00 00	 jmp	 $LN20@GetToken
$LN16@GetToken:

; 74   : 	
; 75   : 	case 0x7B:	// {
; 76   : 		return CurrentToken = LP;

  00e48	c7 05 00 00 00
	00 7b 00 00 00	 mov	 DWORD PTR _CurrentToken, 123 ; 0000007bH
  00e52	a1 00 00 00 00	 mov	 eax, DWORD PTR _CurrentToken
  00e57	e9 ec 01 00 00	 jmp	 $LN32@GetToken

; 77   : 		break;

  00e5c	e9 e5 01 00 00	 jmp	 $LN20@GetToken
$LN15@GetToken:

; 78   : 
; 79   : 	case 0x7D:	// }
; 80   : 		return CurrentToken = RP;

  00e61	c7 05 00 00 00
	00 7d 00 00 00	 mov	 DWORD PTR _CurrentToken, 125 ; 0000007dH
  00e6b	a1 00 00 00 00	 mov	 eax, DWORD PTR _CurrentToken
  00e70	e9 d3 01 00 00	 jmp	 $LN32@GetToken

; 81   : 		break;

  00e75	e9 cc 01 00 00	 jmp	 $LN20@GetToken
$LN14@GetToken:

; 82   : 	// Nice Index Table :)	by Deathway
; 83   : 	// Numbers Case
; 84   : 	case 0x2D:	//-
; 85   : 	case 0x2E:	//.
; 86   : 	case '0':	//0
; 87   : 	case '1':	//1
; 88   : 	case '2':	//2
; 89   : 	case '3':	//3
; 90   : 	case '4':	//4		
; 91   : 	case '5':	//5
; 92   : 	case '6':	//6
; 93   : 	case '7':	//7
; 94   : 	case '8':	//8
; 95   : 	case '9':	//9
; 96   : 		ungetc(ch, SMDFile);

  00e7a	a1 00 00 00 00	 mov	 eax, DWORD PTR _SMDFile
  00e7f	50		 push	 eax
  00e80	0f be 4d fb	 movsx	 ecx, BYTE PTR _ch$[ebp]
  00e84	51		 push	 ecx
  00e85	e8 00 00 00 00	 call	 _ungetc
  00e8a	83 c4 08	 add	 esp, 8

; 97   : 		p = TempString;

  00e8d	8d 45 90	 lea	 eax, DWORD PTR _TempString$[ebp]
  00e90	89 45 f4	 mov	 DWORD PTR _p$[ebp], eax
$LN13@GetToken:

; 98   : 		
; 99   : 		while (((ch=getc(SMDFile)) != -1) && ((ch == 0x2E) || (isdigit(ch) != 0) || (ch == 0x2D)))  // 2e '.'  2D '-'

  00e93	a1 00 00 00 00	 mov	 eax, DWORD PTR _SMDFile
  00e98	50		 push	 eax
  00e99	e8 00 00 00 00	 call	 _getc
  00e9e	83 c4 04	 add	 esp, 4
  00ea1	88 45 fb	 mov	 BYTE PTR _ch$[ebp], al
  00ea4	0f be 4d fb	 movsx	 ecx, BYTE PTR _ch$[ebp]
  00ea8	83 f9 ff	 cmp	 ecx, -1
  00eab	74 36		 je	 SHORT $LN12@GetToken
  00ead	0f be 45 fb	 movsx	 eax, BYTE PTR _ch$[ebp]
  00eb1	83 f8 2e	 cmp	 eax, 46			; 0000002eH
  00eb4	74 1a		 je	 SHORT $LN11@GetToken
  00eb6	0f be 45 fb	 movsx	 eax, BYTE PTR _ch$[ebp]
  00eba	50		 push	 eax
  00ebb	e8 00 00 00 00	 call	 _isdigit
  00ec0	83 c4 04	 add	 esp, 4
  00ec3	85 c0		 test	 eax, eax
  00ec5	75 09		 jne	 SHORT $LN11@GetToken
  00ec7	0f be 45 fb	 movsx	 eax, BYTE PTR _ch$[ebp]
  00ecb	83 f8 2d	 cmp	 eax, 45			; 0000002dH
  00ece	75 13		 jne	 SHORT $LN12@GetToken
$LN11@GetToken:

; 100  : 		{
; 101  : 			*p = ch;	// Construct a String

  00ed0	8b 45 f4	 mov	 eax, DWORD PTR _p$[ebp]
  00ed3	8a 4d fb	 mov	 cl, BYTE PTR _ch$[ebp]
  00ed6	88 08		 mov	 BYTE PTR [eax], cl

; 102  : 			p++;

  00ed8	8b 45 f4	 mov	 eax, DWORD PTR _p$[ebp]
  00edb	83 c0 01	 add	 eax, 1
  00ede	89 45 f4	 mov	 DWORD PTR _p$[ebp], eax

; 103  : 		}		

  00ee1	eb b0		 jmp	 SHORT $LN13@GetToken
$LN12@GetToken:

; 104  : 		*p = 0;

  00ee3	8b 45 f4	 mov	 eax, DWORD PTR _p$[ebp]
  00ee6	c6 00 00	 mov	 BYTE PTR [eax], 0

; 105  : 		TokenNumber = atof( TempString);	// Select the first Byte as Main ID

  00ee9	8d 45 90	 lea	 eax, DWORD PTR _TempString$[ebp]
  00eec	50		 push	 eax
  00eed	e8 00 00 00 00	 call	 _atof
  00ef2	83 c4 04	 add	 esp, 4
  00ef5	d9 1d 00 00 00
	00		 fstp	 DWORD PTR _TokenNumber

; 106  : 		return CurrentToken  = NUMBER ;

  00efb	c7 05 00 00 00
	00 01 00 00 00	 mov	 DWORD PTR _CurrentToken, 1
  00f05	a1 00 00 00 00	 mov	 eax, DWORD PTR _CurrentToken
  00f0a	e9 39 01 00 00	 jmp	 $LN32@GetToken

; 107  : 		break;

  00f0f	e9 32 01 00 00	 jmp	 $LN20@GetToken
$LN10@GetToken:

; 108  : 
; 109  : 	case '\"':	// "	String Case
; 110  : 		p=&TokenString[0];

  00f14	c7 45 f4 00 00
	00 00		 mov	 DWORD PTR _p$[ebp], OFFSET _TokenString
$LN9@GetToken:

; 111  : 		
; 112  : 		while (((ch=getc(SMDFile)) != -1 ) && (ch != 0x22))	// nice

  00f1b	a1 00 00 00 00	 mov	 eax, DWORD PTR _SMDFile
  00f20	50		 push	 eax
  00f21	e8 00 00 00 00	 call	 _getc
  00f26	83 c4 04	 add	 esp, 4
  00f29	88 45 fb	 mov	 BYTE PTR _ch$[ebp], al
  00f2c	0f be 4d fb	 movsx	 ecx, BYTE PTR _ch$[ebp]
  00f30	83 f9 ff	 cmp	 ecx, -1
  00f33	74 1c		 je	 SHORT $LN8@GetToken
  00f35	0f be 45 fb	 movsx	 eax, BYTE PTR _ch$[ebp]
  00f39	83 f8 22	 cmp	 eax, 34			; 00000022H
  00f3c	74 13		 je	 SHORT $LN8@GetToken

; 113  : 		{
; 114  : 			*p = ch;

  00f3e	8b 45 f4	 mov	 eax, DWORD PTR _p$[ebp]
  00f41	8a 4d fb	 mov	 cl, BYTE PTR _ch$[ebp]
  00f44	88 08		 mov	 BYTE PTR [eax], cl

; 115  : 			p++;

  00f46	8b 45 f4	 mov	 eax, DWORD PTR _p$[ebp]
  00f49	83 c0 01	 add	 eax, 1
  00f4c	89 45 f4	 mov	 DWORD PTR _p$[ebp], eax

; 116  : 		}

  00f4f	eb ca		 jmp	 SHORT $LN9@GetToken
$LN8@GetToken:

; 117  : 		if (ch != 0x22 )

  00f51	0f be 45 fb	 movsx	 eax, BYTE PTR _ch$[ebp]
  00f55	83 f8 22	 cmp	 eax, 34			; 00000022H
  00f58	74 13		 je	 SHORT $LN7@GetToken

; 118  : 		{
; 119  : 			ungetc(ch, SMDFile);

  00f5a	a1 00 00 00 00	 mov	 eax, DWORD PTR _SMDFile
  00f5f	50		 push	 eax
  00f60	0f be 4d fb	 movsx	 ecx, BYTE PTR _ch$[ebp]
  00f64	51		 push	 ecx
  00f65	e8 00 00 00 00	 call	 _ungetc
  00f6a	83 c4 08	 add	 esp, 8
$LN7@GetToken:

; 120  : 		}
; 121  : 		*p = 0;

  00f6d	8b 45 f4	 mov	 eax, DWORD PTR _p$[ebp]
  00f70	c6 00 00	 mov	 BYTE PTR [eax], 0

; 122  : 		return CurrentToken = NAME;

  00f73	c7 05 00 00 00
	00 00 00 00 00	 mov	 DWORD PTR _CurrentToken, 0
  00f7d	a1 00 00 00 00	 mov	 eax, DWORD PTR _CurrentToken
  00f82	e9 c1 00 00 00	 jmp	 $LN32@GetToken

; 123  : 		break;

  00f87	e9 ba 00 00 00	 jmp	 $LN20@GetToken
$LN6@GetToken:

; 124  : 
; 125  : 	default:	// Others
; 126  : 		if (isalpha(ch))

  00f8c	0f be 45 fb	 movsx	 eax, BYTE PTR _ch$[ebp]
  00f90	50		 push	 eax
  00f91	e8 00 00 00 00	 call	 _isalpha
  00f96	83 c4 04	 add	 esp, 4
  00f99	85 c0		 test	 eax, eax
  00f9b	0f 84 94 00 00
	00		 je	 $LN5@GetToken

; 127  : 		{
; 128  : 			p=&TokenString[0];

  00fa1	c7 45 f4 00 00
	00 00		 mov	 DWORD PTR _p$[ebp], OFFSET _TokenString

; 129  : 			*p=ch;

  00fa8	8b 45 f4	 mov	 eax, DWORD PTR _p$[ebp]
  00fab	8a 4d fb	 mov	 cl, BYTE PTR _ch$[ebp]
  00fae	88 08		 mov	 BYTE PTR [eax], cl

; 130  : 			p++;

  00fb0	8b 45 f4	 mov	 eax, DWORD PTR _p$[ebp]
  00fb3	83 c0 01	 add	 eax, 1
  00fb6	89 45 f4	 mov	 DWORD PTR _p$[ebp], eax
$LN4@GetToken:

; 131  : 
; 132  : 			while ( ((ch=getc(SMDFile)) != -1) && ( (ch == 0x2E) || (ch == 0x5F) || (isalnum(ch) != 0) ) )

  00fb9	a1 00 00 00 00	 mov	 eax, DWORD PTR _SMDFile
  00fbe	50		 push	 eax
  00fbf	e8 00 00 00 00	 call	 _getc
  00fc4	83 c4 04	 add	 esp, 4
  00fc7	88 45 fb	 mov	 BYTE PTR _ch$[ebp], al
  00fca	0f be 4d fb	 movsx	 ecx, BYTE PTR _ch$[ebp]
  00fce	83 f9 ff	 cmp	 ecx, -1
  00fd1	74 36		 je	 SHORT $LN3@GetToken
  00fd3	0f be 45 fb	 movsx	 eax, BYTE PTR _ch$[ebp]
  00fd7	83 f8 2e	 cmp	 eax, 46			; 0000002eH
  00fda	74 1a		 je	 SHORT $LN2@GetToken
  00fdc	0f be 45 fb	 movsx	 eax, BYTE PTR _ch$[ebp]
  00fe0	83 f8 5f	 cmp	 eax, 95			; 0000005fH
  00fe3	74 11		 je	 SHORT $LN2@GetToken
  00fe5	0f be 45 fb	 movsx	 eax, BYTE PTR _ch$[ebp]
  00fe9	50		 push	 eax
  00fea	e8 00 00 00 00	 call	 _isalnum
  00fef	83 c4 04	 add	 esp, 4
  00ff2	85 c0		 test	 eax, eax
  00ff4	74 13		 je	 SHORT $LN3@GetToken
$LN2@GetToken:

; 133  : 			{
; 134  : 				*p=ch;

  00ff6	8b 45 f4	 mov	 eax, DWORD PTR _p$[ebp]
  00ff9	8a 4d fb	 mov	 cl, BYTE PTR _ch$[ebp]
  00ffc	88 08		 mov	 BYTE PTR [eax], cl

; 135  : 				p++;

  00ffe	8b 45 f4	 mov	 eax, DWORD PTR _p$[ebp]
  01001	83 c0 01	 add	 eax, 1
  01004	89 45 f4	 mov	 DWORD PTR _p$[ebp], eax

; 136  : 				
; 137  : 			}

  01007	eb b0		 jmp	 SHORT $LN4@GetToken
$LN3@GetToken:

; 138  : 
; 139  : 			ungetc(ch, SMDFile);

  01009	a1 00 00 00 00	 mov	 eax, DWORD PTR _SMDFile
  0100e	50		 push	 eax
  0100f	0f be 4d fb	 movsx	 ecx, BYTE PTR _ch$[ebp]
  01013	51		 push	 ecx
  01014	e8 00 00 00 00	 call	 _ungetc
  01019	83 c4 08	 add	 esp, 8

; 140  : 			*p=0;

  0101c	8b 45 f4	 mov	 eax, DWORD PTR _p$[ebp]
  0101f	c6 00 00	 mov	 BYTE PTR [eax], 0

; 141  : 			CurrentToken=NAME;

  01022	c7 05 00 00 00
	00 00 00 00 00	 mov	 DWORD PTR _CurrentToken, 0

; 142  : 			return CurrentToken;

  0102c	a1 00 00 00 00	 mov	 eax, DWORD PTR _CurrentToken
  01031	eb 15		 jmp	 SHORT $LN32@GetToken

; 143  : 		}
; 144  : 		else

  01033	eb 11		 jmp	 SHORT $LN1@GetToken
$LN5@GetToken:

; 145  : 		{
; 146  : 			return CurrentToken = SMD_ERROR; // '<'

  01035	c7 05 00 00 00
	00 3c 00 00 00	 mov	 DWORD PTR _CurrentToken, 60 ; 0000003cH
  0103f	a1 00 00 00 00	 mov	 eax, DWORD PTR _CurrentToken
  01044	eb 02		 jmp	 SHORT $LN32@GetToken
$LN1@GetToken:
$LN20@GetToken:

; 147  : 		}
; 148  : 		break;
; 149  : 
; 150  : 	}
; 151  : 
; 152  : 	return NAME;

  01046	33 c0		 xor	 eax, eax
$LN32@GetToken:

; 153  : }

  01048	5f		 pop	 edi
  01049	5e		 pop	 esi
  0104a	5b		 pop	 ebx
  0104b	8b 4d fc	 mov	 ecx, DWORD PTR __$ArrayPad$[ebp]
  0104e	33 cd		 xor	 ecx, ebp
  01050	e8 00 00 00 00	 call	 @__security_check_cookie@4
  01055	8b e5		 mov	 esp, ebp
  01057	5d		 pop	 ebp
  01058	c3		 ret	 0
  01059	8d 49 00	 npad	 3
$LN35@GetToken:
  0105c	00 00 00 00	 DD	 $LN10@GetToken
  01060	00 00 00 00	 DD	 $LN19@GetToken
  01064	00 00 00 00	 DD	 $LN17@GetToken
  01068	00 00 00 00	 DD	 $LN14@GetToken
  0106c	00 00 00 00	 DD	 $LN18@GetToken
  01070	00 00 00 00	 DD	 $LN16@GetToken
  01074	00 00 00 00	 DD	 $LN15@GetToken
  01078	00 00 00 00	 DD	 $LN6@GetToken
$LN34@GetToken:
  0107c	00		 DB	 0
  0107d	01		 DB	 1
  0107e	07		 DB	 7
  0107f	07		 DB	 7
  01080	07		 DB	 7
  01081	07		 DB	 7
  01082	07		 DB	 7
  01083	07		 DB	 7
  01084	07		 DB	 7
  01085	07		 DB	 7
  01086	02		 DB	 2
  01087	03		 DB	 3
  01088	03		 DB	 3
  01089	07		 DB	 7
  0108a	03		 DB	 3
  0108b	03		 DB	 3
  0108c	03		 DB	 3
  0108d	03		 DB	 3
  0108e	03		 DB	 3
  0108f	03		 DB	 3
  01090	03		 DB	 3
  01091	03		 DB	 3
  01092	03		 DB	 3
  01093	03		 DB	 3
  01094	07		 DB	 7
  01095	04		 DB	 4
  01096	07		 DB	 7
  01097	07		 DB	 7
  01098	07		 DB	 7
  01099	07		 DB	 7
  0109a	07		 DB	 7
  0109b	07		 DB	 7
  0109c	07		 DB	 7
  0109d	07		 DB	 7
  0109e	07		 DB	 7
  0109f	07		 DB	 7
  010a0	07		 DB	 7
  010a1	07		 DB	 7
  010a2	07		 DB	 7
  010a3	07		 DB	 7
  010a4	07		 DB	 7
  010a5	07		 DB	 7
  010a6	07		 DB	 7
  010a7	07		 DB	 7
  010a8	07		 DB	 7
  010a9	07		 DB	 7
  010aa	07		 DB	 7
  010ab	07		 DB	 7
  010ac	07		 DB	 7
  010ad	07		 DB	 7
  010ae	07		 DB	 7
  010af	07		 DB	 7
  010b0	07		 DB	 7
  010b1	07		 DB	 7
  010b2	07		 DB	 7
  010b3	07		 DB	 7
  010b4	07		 DB	 7
  010b5	07		 DB	 7
  010b6	07		 DB	 7
  010b7	07		 DB	 7
  010b8	07		 DB	 7
  010b9	07		 DB	 7
  010ba	07		 DB	 7
  010bb	07		 DB	 7
  010bc	07		 DB	 7
  010bd	07		 DB	 7
  010be	07		 DB	 7
  010bf	07		 DB	 7
  010c0	07		 DB	 7
  010c1	07		 DB	 7
  010c2	07		 DB	 7
  010c3	07		 DB	 7
  010c4	07		 DB	 7
  010c5	07		 DB	 7
  010c6	07		 DB	 7
  010c7	07		 DB	 7
  010c8	07		 DB	 7
  010c9	07		 DB	 7
  010ca	07		 DB	 7
  010cb	07		 DB	 7
  010cc	07		 DB	 7
  010cd	07		 DB	 7
  010ce	07		 DB	 7
  010cf	07		 DB	 7
  010d0	07		 DB	 7
  010d1	07		 DB	 7
  010d2	07		 DB	 7
  010d3	07		 DB	 7
  010d4	07		 DB	 7
  010d5	05		 DB	 5
  010d6	07		 DB	 7
  010d7	06		 DB	 6
?GetToken@@YA?AW4SMDToken@@XZ ENDP			; GetToken
_TEXT	ENDS
PUBLIC	??$insert@U?$pair@HPAX@std@@@?$_Tree@V?$_Tmap_traits@HPAXU?$less@H@std@@V?$allocator@U?$pair@$$CBHPAX@std@@@2@$0A@@std@@@std@@QAE?AU?$pair@V?$_Tree_iterator@V?$_Tree_val@V?$_Tmap_traits@HPAXU?$less@H@std@@V?$allocator@U?$pair@$$CBHPAX@std@@@2@$0A@@std@@@std@@@std@@_N@1@$$QAU?$pair@HPAX@1@@Z ; std::_Tree<std::_Tmap_traits<int,void *,std::less<int>,std::allocator<std::pair<int const ,void *> >,0> >::insert<std::pair<int,void *> >
PUBLIC	??$?0AAHAAPAX@?$pair@HPAX@std@@QAE@AAHAAPAX@Z	; std::pair<int,void *>::pair<int,void *><int &,void * &>
PUBLIC	?RegEvent@CEventManagement@@QAEXHPAX@Z		; CEventManagement::RegEvent
; Function compile flags: /Odtp /ZI
; File d:\projects\exteam6.3\source\gameserver\gameserver\eventmanagement.cpp
_TEXT	SEGMENT
$T227267 = -84						; size = 8
$T227268 = -76						; size = 8
_this$ = -4						; size = 4
_eEventKind$ = 8					; size = 4
_lpEventObj$ = 12					; size = 4
?RegEvent@CEventManagement@@QAEXHPAX@Z PROC		; CEventManagement::RegEvent
; _this$ = ecx

; 352  : {

  010e0	55		 push	 ebp
  010e1	8b ec		 mov	 ebp, esp
  010e3	83 ec 54	 sub	 esp, 84			; 00000054H
  010e6	53		 push	 ebx
  010e7	56		 push	 esi
  010e8	57		 push	 edi
  010e9	89 4d fc	 mov	 DWORD PTR _this$[ebp], ecx

; 353  : 	this->m_mapEventObj.insert( std::pair<int, void *>(eEventKind, lpEventObj) );

  010ec	8d 45 0c	 lea	 eax, DWORD PTR _lpEventObj$[ebp]
  010ef	50		 push	 eax
  010f0	8d 4d 08	 lea	 ecx, DWORD PTR _eEventKind$[ebp]
  010f3	51		 push	 ecx
  010f4	8d 4d ac	 lea	 ecx, DWORD PTR $T227267[ebp]
  010f7	e8 00 00 00 00	 call	 ??$?0AAHAAPAX@?$pair@HPAX@std@@QAE@AAHAAPAX@Z ; std::pair<int,void *>::pair<int,void *><int &,void * &>
  010fc	50		 push	 eax
  010fd	8d 55 b4	 lea	 edx, DWORD PTR $T227268[ebp]
  01100	52		 push	 edx
  01101	8b 4d fc	 mov	 ecx, DWORD PTR _this$[ebp]
  01104	83 c1 1c	 add	 ecx, 28			; 0000001cH
  01107	e8 00 00 00 00	 call	 ??$insert@U?$pair@HPAX@std@@@?$_Tree@V?$_Tmap_traits@HPAXU?$less@H@std@@V?$allocator@U?$pair@$$CBHPAX@std@@@2@$0A@@std@@@std@@QAE?AU?$pair@V?$_Tree_iterator@V?$_Tree_val@V?$_Tmap_traits@HPAXU?$less@H@std@@V?$allocator@U?$pair@$$CBHPAX@std@@@2@$0A@@std@@@std@@@std@@_N@1@$$QAU?$pair@HPAX@1@@Z ; std::_Tree<std::_Tmap_traits<int,void *,std::less<int>,std::allocator<std::pair<int const ,void *> >,0> >::insert<std::pair<int,void *> >

; 354  : }

  0110c	5f		 pop	 edi
  0110d	5e		 pop	 esi
  0110e	5b		 pop	 ebx
  0110f	8b e5		 mov	 esp, ebp
  01111	5d		 pop	 ebp
  01112	c2 08 00	 ret	 8
?RegEvent@CEventManagement@@QAEXHPAX@Z ENDP		; CEventManagement::RegEvent
_TEXT	ENDS
PUBLIC	??0?$vector@UEVENT_ID_ITEM_LIST@@V?$allocator@UEVENT_ID_ITEM_LIST@@@std@@@std@@QAE@XZ ; std::vector<EVENT_ID_ITEM_LIST,std::allocator<EVENT_ID_ITEM_LIST> >::vector<EVENT_ID_ITEM_LIST,std::allocator<EVENT_ID_ITEM_LIST> >
PUBLIC	??0CEventItemList@@QAE@XZ			; CEventItemList::CEventItemList
; Function compile flags: /Odtp /ZI
_TEXT	SEGMENT
_this$ = -4						; size = 4
??0CEventItemList@@QAE@XZ PROC				; CEventItemList::CEventItemList
; _this$ = ecx

; 357  : {

  01120	55		 push	 ebp
  01121	8b ec		 mov	 ebp, esp
  01123	83 ec 44	 sub	 esp, 68			; 00000044H
  01126	53		 push	 ebx
  01127	56		 push	 esi
  01128	57		 push	 edi
  01129	89 4d fc	 mov	 DWORD PTR _this$[ebp], ecx
  0112c	8b 4d fc	 mov	 ecx, DWORD PTR _this$[ebp]
  0112f	e8 00 00 00 00	 call	 ??0?$vector@UEVENT_ID_ITEM_LIST@@V?$allocator@UEVENT_ID_ITEM_LIST@@@std@@@std@@QAE@XZ ; std::vector<EVENT_ID_ITEM_LIST,std::allocator<EVENT_ID_ITEM_LIST> >::vector<EVENT_ID_ITEM_LIST,std::allocator<EVENT_ID_ITEM_LIST> >

; 358  : 	//empty
; 359  : }

  01134	8b 45 fc	 mov	 eax, DWORD PTR _this$[ebp]
  01137	5f		 pop	 edi
  01138	5e		 pop	 esi
  01139	5b		 pop	 ebx
  0113a	8b e5		 mov	 esp, ebp
  0113c	5d		 pop	 ebp
  0113d	c3		 ret	 0
??0CEventItemList@@QAE@XZ ENDP				; CEventItemList::CEventItemList
_TEXT	ENDS
PUBLIC	??1?$vector@UEVENT_ID_ITEM_LIST@@V?$allocator@UEVENT_ID_ITEM_LIST@@@std@@@std@@QAE@XZ ; std::vector<EVENT_ID_ITEM_LIST,std::allocator<EVENT_ID_ITEM_LIST> >::~vector<EVENT_ID_ITEM_LIST,std::allocator<EVENT_ID_ITEM_LIST> >
PUBLIC	?clear@?$vector@UEVENT_ID_ITEM_LIST@@V?$allocator@UEVENT_ID_ITEM_LIST@@@std@@@std@@QAEXXZ ; std::vector<EVENT_ID_ITEM_LIST,std::allocator<EVENT_ID_ITEM_LIST> >::clear
PUBLIC	??1CEventItemList@@QAE@XZ			; CEventItemList::~CEventItemList
xdata$x	SEGMENT
__unwindtable$??1CEventItemList@@QAE@XZ DD 0ffffffffH
	DD	FLAT:__unwindfunclet$??1CEventItemList@@QAE@XZ$0
__ehfuncinfo$??1CEventItemList@@QAE@XZ DD 019930522H
	DD	01H
	DD	FLAT:__unwindtable$??1CEventItemList@@QAE@XZ
	DD	2 DUP(00H)
	DD	2 DUP(00H)
	DD	00H
	DD	01H
; Function compile flags: /Odtp /ZI
xdata$x	ENDS
_TEXT	SEGMENT
_this$ = -16						; size = 4
__$EHRec$ = -12						; size = 12
??1CEventItemList@@QAE@XZ PROC				; CEventItemList::~CEventItemList
; _this$ = ecx

; 362  : {

  01140	55		 push	 ebp
  01141	8b ec		 mov	 ebp, esp
  01143	6a ff		 push	 -1
  01145	68 00 00 00 00	 push	 __ehhandler$??1CEventItemList@@QAE@XZ
  0114a	64 a1 00 00 00
	00		 mov	 eax, DWORD PTR fs:0
  01150	50		 push	 eax
  01151	83 ec 44	 sub	 esp, 68			; 00000044H
  01154	53		 push	 ebx
  01155	56		 push	 esi
  01156	57		 push	 edi
  01157	a1 00 00 00 00	 mov	 eax, DWORD PTR ___security_cookie
  0115c	33 c5		 xor	 eax, ebp
  0115e	50		 push	 eax
  0115f	8d 45 f4	 lea	 eax, DWORD PTR __$EHRec$[ebp]
  01162	64 a3 00 00 00
	00		 mov	 DWORD PTR fs:0, eax
  01168	89 4d f0	 mov	 DWORD PTR _this$[ebp], ecx
  0116b	c7 45 fc 00 00
	00 00		 mov	 DWORD PTR __$EHRec$[ebp+8], 0

; 363  : 	this->m_vtEventItemList.clear();

  01172	8b 4d f0	 mov	 ecx, DWORD PTR _this$[ebp]
  01175	e8 00 00 00 00	 call	 ?clear@?$vector@UEVENT_ID_ITEM_LIST@@V?$allocator@UEVENT_ID_ITEM_LIST@@@std@@@std@@QAEXXZ ; std::vector<EVENT_ID_ITEM_LIST,std::allocator<EVENT_ID_ITEM_LIST> >::clear

; 364  : }

  0117a	c7 45 fc ff ff
	ff ff		 mov	 DWORD PTR __$EHRec$[ebp+8], -1
  01181	8b 4d f0	 mov	 ecx, DWORD PTR _this$[ebp]
  01184	e8 00 00 00 00	 call	 ??1?$vector@UEVENT_ID_ITEM_LIST@@V?$allocator@UEVENT_ID_ITEM_LIST@@@std@@@std@@QAE@XZ ; std::vector<EVENT_ID_ITEM_LIST,std::allocator<EVENT_ID_ITEM_LIST> >::~vector<EVENT_ID_ITEM_LIST,std::allocator<EVENT_ID_ITEM_LIST> >
  01189	8b 4d f4	 mov	 ecx, DWORD PTR __$EHRec$[ebp]
  0118c	64 89 0d 00 00
	00 00		 mov	 DWORD PTR fs:0, ecx
  01193	59		 pop	 ecx
  01194	5f		 pop	 edi
  01195	5e		 pop	 esi
  01196	5b		 pop	 ebx
  01197	8b e5		 mov	 esp, ebp
  01199	5d		 pop	 ebp
  0119a	c3		 ret	 0
_TEXT	ENDS
text$x	SEGMENT
__unwindfunclet$??1CEventItemList@@QAE@XZ$0:
  00057	8b 4d f0	 mov	 ecx, DWORD PTR _this$[ebp]
  0005a	e9 00 00 00 00	 jmp	 ??1?$vector@UEVENT_ID_ITEM_LIST@@V?$allocator@UEVENT_ID_ITEM_LIST@@@std@@@std@@QAE@XZ ; std::vector<EVENT_ID_ITEM_LIST,std::allocator<EVENT_ID_ITEM_LIST> >::~vector<EVENT_ID_ITEM_LIST,std::allocator<EVENT_ID_ITEM_LIST> >
__ehhandler$??1CEventItemList@@QAE@XZ:
  0005f	8b 54 24 08	 mov	 edx, DWORD PTR [esp+8]
  00063	8d 42 0c	 lea	 eax, DWORD PTR [edx+12]
  00066	8b 4a ac	 mov	 ecx, DWORD PTR [edx-84]
  00069	33 c8		 xor	 ecx, eax
  0006b	e8 00 00 00 00	 call	 @__security_check_cookie@4
  00070	b8 00 00 00 00	 mov	 eax, OFFSET __ehfuncinfo$??1CEventItemList@@QAE@XZ
  00075	e9 00 00 00 00	 jmp	 ___CxxFrameHandler3
text$x	ENDS
??1CEventItemList@@QAE@XZ ENDP				; CEventItemList::~CEventItemList
PUBLIC	?push_back@?$vector@UEVENT_ID_ITEM_LIST@@V?$allocator@UEVENT_ID_ITEM_LIST@@@std@@@std@@QAEXABUEVENT_ID_ITEM_LIST@@@Z ; std::vector<EVENT_ID_ITEM_LIST,std::allocator<EVENT_ID_ITEM_LIST> >::push_back
PUBLIC	??_C@_0DI@CLECOPAG@?$FLEventItemList?4txt?$FN?5?9?5File?5load?5@ ; `string'
PUBLIC	??_C@_00CNPNBAHC@?$AA@				; `string'
PUBLIC	?Load@CEventItemList@@QAEHPAD@Z			; CEventItemList::Load
;	COMDAT ??_C@_0DI@CLECOPAG@?$FLEventItemList?4txt?$FN?5?9?5File?5load?5@
CONST	SEGMENT
??_C@_0DI@CLECOPAG@?$FLEventItemList?4txt?$FN?5?9?5File?5load?5@ DB '[Eve'
	DB	'ntItemList.txt] - File load error : File Name Error', 00H ; `string'
CONST	ENDS
;	COMDAT ??_C@_00CNPNBAHC@?$AA@
CONST	SEGMENT
??_C@_00CNPNBAHC@?$AA@ DB 00H				; `string'
; Function compile flags: /Odtp /ZI
CONST	ENDS
_TEXT	SEGMENT
tv190 = -96						; size = 4
tv181 = -96						; size = 4
tv172 = -96						; size = 4
tv163 = -96						; size = 4
tv154 = -96						; size = 4
tv188 = -92						; size = 4
tv179 = -92						; size = 4
tv170 = -92						; size = 4
tv161 = -92						; size = 4
tv152 = -92						; size = 4
tv185 = -86						; size = 2
tv176 = -86						; size = 2
tv167 = -86						; size = 2
tv158 = -86						; size = 2
tv149 = -86						; size = 2
_EIIL$224633 = -20					; size = 5
_type$ = -12						; size = 4
_Token$ = -8						; size = 4
_this$ = -4						; size = 4
_lpszFileName$ = 8					; size = 4
?Load@CEventItemList@@QAEHPAD@Z PROC			; CEventItemList::Load
; _this$ = ecx

; 367  : {

  011a0	55		 push	 ebp
  011a1	8b ec		 mov	 ebp, esp
  011a3	83 ec 60	 sub	 esp, 96			; 00000060H
  011a6	53		 push	 ebx
  011a7	56		 push	 esi
  011a8	57		 push	 edi
  011a9	89 4d fc	 mov	 DWORD PTR _this$[ebp], ecx

; 368  : 	if ( lpszFileName == NULL || !strcmp(lpszFileName, ""))

  011ac	83 7d 08 00	 cmp	 DWORD PTR _lpszFileName$[ebp], 0
  011b0	74 15		 je	 SHORT $LN9@Load@2
  011b2	68 00 00 00 00	 push	 OFFSET ??_C@_00CNPNBAHC@?$AA@
  011b7	8b 45 08	 mov	 eax, DWORD PTR _lpszFileName$[ebp]
  011ba	50		 push	 eax
  011bb	e8 00 00 00 00	 call	 _strcmp
  011c0	83 c4 08	 add	 esp, 8
  011c3	85 c0		 test	 eax, eax
  011c5	75 15		 jne	 SHORT $LN10@Load@2
$LN9@Load@2:

; 369  : 	{
; 370  : 		LogAddTD("[EventItemList.txt] - File load error : File Name Error");

  011c7	68 00 00 00 00	 push	 OFFSET ??_C@_0DI@CLECOPAG@?$FLEventItemList?4txt?$FN?5?9?5File?5load?5@
  011cc	ff 15 00 00 00
	00		 call	 DWORD PTR ?LogAddTD@@3P6AXPADZZA ; LogAddTD
  011d2	83 c4 04	 add	 esp, 4

; 371  : 		return FALSE;

  011d5	33 c0		 xor	 eax, eax
  011d7	e9 a3 01 00 00	 jmp	 $LN11@Load@2
$LN10@Load@2:

; 372  : 	}
; 373  : 
; 374  : 	SMDFile = fopen(lpszFileName, "r");

  011dc	68 00 00 00 00	 push	 OFFSET ??_C@_01KDCPPGHE@r?$AA@
  011e1	8b 45 08	 mov	 eax, DWORD PTR _lpszFileName$[ebp]
  011e4	50		 push	 eax
  011e5	e8 00 00 00 00	 call	 _fopen
  011ea	83 c4 08	 add	 esp, 8
  011ed	a3 00 00 00 00	 mov	 DWORD PTR _SMDFile, eax

; 375  : 
; 376  : 	if ( SMDFile == NULL )

  011f2	83 3d 00 00 00
	00 00		 cmp	 DWORD PTR _SMDFile, 0
  011f9	75 18		 jne	 SHORT $LN8@Load@2

; 377  : 	{
; 378  : 		MsgBox("[DOTH] Info file Load Fail [%s]", lpszFileName);

  011fb	8b 45 08	 mov	 eax, DWORD PTR _lpszFileName$[ebp]
  011fe	50		 push	 eax
  011ff	68 00 00 00 00	 push	 OFFSET ??_C@_0CA@JEMAOPLJ@?$FLDOTH?$FN?5Info?5file?5Load?5Fail?5?$FL?$CFs?$FN?$AA@
  01204	e8 00 00 00 00	 call	 ?MsgBox@@YAXPADZZ	; MsgBox
  01209	83 c4 08	 add	 esp, 8

; 379  : 
; 380  : 		return FALSE;

  0120c	33 c0		 xor	 eax, eax
  0120e	e9 6c 01 00 00	 jmp	 $LN11@Load@2
$LN8@Load@2:

; 381  : 	}
; 382  : 
; 383  : 	int Token;
; 384  : 	int type = -1;

  01213	c7 45 f4 ff ff
	ff ff		 mov	 DWORD PTR _type$[ebp], -1
$LN7@Load@2:

; 385  : 
; 386  : 	while ( true )

  0121a	b8 01 00 00 00	 mov	 eax, 1
  0121f	85 c0		 test	 eax, eax
  01221	0f 84 45 01 00
	00		 je	 $LN6@Load@2

; 387  : 	{
; 388  : 		Token = GetToken();

  01227	e8 00 00 00 00	 call	 ?GetToken@@YA?AW4SMDToken@@XZ ; GetToken
  0122c	89 45 f8	 mov	 DWORD PTR _Token$[ebp], eax

; 389  : 
; 390  : 		if ( Token == 2 )

  0122f	83 7d f8 02	 cmp	 DWORD PTR _Token$[ebp], 2
  01233	75 05		 jne	 SHORT $LN5@Load@2

; 391  : 		{
; 392  : 			break;

  01235	e9 32 01 00 00	 jmp	 $LN6@Load@2
$LN5@Load@2:

; 393  : 		}
; 394  : 
; 395  : 		type = (int)TokenNumber;

  0123a	d9 05 00 00 00
	00		 fld	 DWORD PTR _TokenNumber
  01240	e8 00 00 00 00	 call	 __ftol2_sse
  01245	89 45 f4	 mov	 DWORD PTR _type$[ebp], eax
$LN4@Load@2:

; 396  : 
; 397  : 		while ( true )

  01248	b8 01 00 00 00	 mov	 eax, 1
  0124d	85 c0		 test	 eax, eax
  0124f	0f 84 12 01 00
	00		 je	 $LN3@Load@2

; 398  : 		{
; 399  : 			if ( type == 0 )

  01255	83 7d f4 00	 cmp	 DWORD PTR _type$[ebp], 0
  01259	0f 85 03 01 00
	00		 jne	 $LN2@Load@2

; 400  : 			{
; 401  : 				Token = GetToken();

  0125f	e8 00 00 00 00	 call	 ?GetToken@@YA?AW4SMDToken@@XZ ; GetToken
  01264	89 45 f8	 mov	 DWORD PTR _Token$[ebp], eax

; 402  : 
; 403  : 				if ( strcmp("end", TokenString) == 0 )

  01267	68 00 00 00 00	 push	 OFFSET _TokenString
  0126c	68 00 00 00 00	 push	 OFFSET ??_C@_03JBJLGPFL@end?$AA@
  01271	e8 00 00 00 00	 call	 _strcmp
  01276	83 c4 08	 add	 esp, 8
  01279	85 c0		 test	 eax, eax
  0127b	75 05		 jne	 SHORT $LN1@Load@2

; 404  : 				{
; 405  : 					break;

  0127d	e9 e5 00 00 00	 jmp	 $LN3@Load@2
$LN1@Load@2:

; 406  : 				}
; 407  : 
; 408  : 				EVENT_ID_ITEM_LIST EIIL;
; 409  : 
; 410  : 				EIIL.m_btSection = (BYTE)TokenNumber;

  01282	d9 05 00 00 00
	00		 fld	 DWORD PTR _TokenNumber
  01288	d9 7d aa	 fnstcw	 WORD PTR tv149[ebp]
  0128b	0f b7 45 aa	 movzx	 eax, WORD PTR tv149[ebp]
  0128f	0d 00 0c 00 00	 or	 eax, 3072		; 00000c00H
  01294	89 45 a4	 mov	 DWORD PTR tv152[ebp], eax
  01297	d9 6d a4	 fldcw	 WORD PTR tv152[ebp]
  0129a	db 5d a0	 fistp	 DWORD PTR tv154[ebp]
  0129d	d9 6d aa	 fldcw	 WORD PTR tv149[ebp]
  012a0	8a 45 a0	 mov	 al, BYTE PTR tv154[ebp]
  012a3	88 45 ec	 mov	 BYTE PTR _EIIL$224633[ebp], al

; 411  : 
; 412  : 				Token = GetToken();

  012a6	e8 00 00 00 00	 call	 ?GetToken@@YA?AW4SMDToken@@XZ ; GetToken
  012ab	89 45 f8	 mov	 DWORD PTR _Token$[ebp], eax

; 413  : 				EIIL.m_btType = (BYTE)TokenNumber;

  012ae	d9 05 00 00 00
	00		 fld	 DWORD PTR _TokenNumber
  012b4	d9 7d aa	 fnstcw	 WORD PTR tv158[ebp]
  012b7	0f b7 45 aa	 movzx	 eax, WORD PTR tv158[ebp]
  012bb	0d 00 0c 00 00	 or	 eax, 3072		; 00000c00H
  012c0	89 45 a4	 mov	 DWORD PTR tv161[ebp], eax
  012c3	d9 6d a4	 fldcw	 WORD PTR tv161[ebp]
  012c6	db 5d a0	 fistp	 DWORD PTR tv163[ebp]
  012c9	d9 6d aa	 fldcw	 WORD PTR tv158[ebp]
  012cc	8a 45 a0	 mov	 al, BYTE PTR tv163[ebp]
  012cf	88 45 ed	 mov	 BYTE PTR _EIIL$224633[ebp+1], al

; 414  : 
; 415  : 				Token = GetToken();

  012d2	e8 00 00 00 00	 call	 ?GetToken@@YA?AW4SMDToken@@XZ ; GetToken
  012d7	89 45 f8	 mov	 DWORD PTR _Token$[ebp], eax

; 416  : 				EIIL.m_btIndex = (BYTE)TokenNumber;

  012da	d9 05 00 00 00
	00		 fld	 DWORD PTR _TokenNumber
  012e0	d9 7d aa	 fnstcw	 WORD PTR tv167[ebp]
  012e3	0f b7 45 aa	 movzx	 eax, WORD PTR tv167[ebp]
  012e7	0d 00 0c 00 00	 or	 eax, 3072		; 00000c00H
  012ec	89 45 a4	 mov	 DWORD PTR tv170[ebp], eax
  012ef	d9 6d a4	 fldcw	 WORD PTR tv170[ebp]
  012f2	db 5d a0	 fistp	 DWORD PTR tv172[ebp]
  012f5	d9 6d aa	 fldcw	 WORD PTR tv167[ebp]
  012f8	8a 45 a0	 mov	 al, BYTE PTR tv172[ebp]
  012fb	88 45 ee	 mov	 BYTE PTR _EIIL$224633[ebp+2], al

; 417  : 
; 418  : 				Token = GetToken();

  012fe	e8 00 00 00 00	 call	 ?GetToken@@YA?AW4SMDToken@@XZ ; GetToken
  01303	89 45 f8	 mov	 DWORD PTR _Token$[ebp], eax

; 419  : 				EIIL.m_btLevel = (BYTE)TokenNumber;

  01306	d9 05 00 00 00
	00		 fld	 DWORD PTR _TokenNumber
  0130c	d9 7d aa	 fnstcw	 WORD PTR tv176[ebp]
  0130f	0f b7 45 aa	 movzx	 eax, WORD PTR tv176[ebp]
  01313	0d 00 0c 00 00	 or	 eax, 3072		; 00000c00H
  01318	89 45 a4	 mov	 DWORD PTR tv179[ebp], eax
  0131b	d9 6d a4	 fldcw	 WORD PTR tv179[ebp]
  0131e	db 5d a0	 fistp	 DWORD PTR tv181[ebp]
  01321	d9 6d aa	 fldcw	 WORD PTR tv176[ebp]
  01324	8a 45 a0	 mov	 al, BYTE PTR tv181[ebp]
  01327	88 45 ef	 mov	 BYTE PTR _EIIL$224633[ebp+3], al

; 420  : 
; 421  : 				Token = GetToken();

  0132a	e8 00 00 00 00	 call	 ?GetToken@@YA?AW4SMDToken@@XZ ; GetToken
  0132f	89 45 f8	 mov	 DWORD PTR _Token$[ebp], eax

; 422  : 				EIIL.m_btDur = (BYTE)TokenNumber;

  01332	d9 05 00 00 00
	00		 fld	 DWORD PTR _TokenNumber
  01338	d9 7d aa	 fnstcw	 WORD PTR tv185[ebp]
  0133b	0f b7 45 aa	 movzx	 eax, WORD PTR tv185[ebp]
  0133f	0d 00 0c 00 00	 or	 eax, 3072		; 00000c00H
  01344	89 45 a4	 mov	 DWORD PTR tv188[ebp], eax
  01347	d9 6d a4	 fldcw	 WORD PTR tv188[ebp]
  0134a	db 5d a0	 fistp	 DWORD PTR tv190[ebp]
  0134d	d9 6d aa	 fldcw	 WORD PTR tv185[ebp]
  01350	8a 45 a0	 mov	 al, BYTE PTR tv190[ebp]
  01353	88 45 f0	 mov	 BYTE PTR _EIIL$224633[ebp+4], al

; 423  : 
; 424  : 				this->m_vtEventItemList.push_back(EIIL);

  01356	8d 45 ec	 lea	 eax, DWORD PTR _EIIL$224633[ebp]
  01359	50		 push	 eax
  0135a	8b 4d fc	 mov	 ecx, DWORD PTR _this$[ebp]
  0135d	e8 00 00 00 00	 call	 ?push_back@?$vector@UEVENT_ID_ITEM_LIST@@V?$allocator@UEVENT_ID_ITEM_LIST@@@std@@@std@@QAEXABUEVENT_ID_ITEM_LIST@@@Z ; std::vector<EVENT_ID_ITEM_LIST,std::allocator<EVENT_ID_ITEM_LIST> >::push_back
$LN2@Load@2:

; 425  : 			}
; 426  : 		}

  01362	e9 e1 fe ff ff	 jmp	 $LN4@Load@2
$LN3@Load@2:

; 427  : 	}

  01367	e9 ae fe ff ff	 jmp	 $LN7@Load@2
$LN6@Load@2:

; 428  : 
; 429  : 	fclose(SMDFile);

  0136c	a1 00 00 00 00	 mov	 eax, DWORD PTR _SMDFile
  01371	50		 push	 eax
  01372	e8 00 00 00 00	 call	 _fclose
  01377	83 c4 04	 add	 esp, 4

; 430  : 	return TRUE;

  0137a	b8 01 00 00 00	 mov	 eax, 1
$LN11@Load@2:

; 431  : }

  0137f	5f		 pop	 edi
  01380	5e		 pop	 esi
  01381	5b		 pop	 ebx
  01382	8b e5		 mov	 esp, ebp
  01384	5d		 pop	 ebp
  01385	c2 04 00	 ret	 4
?Load@CEventItemList@@QAEHPAD@Z ENDP			; CEventItemList::Load
_TEXT	ENDS
PUBLIC	??D?$_Vector_iterator@V?$_Vector_val@UEVENT_ID_ITEM_LIST@@V?$allocator@UEVENT_ID_ITEM_LIST@@@std@@@std@@@std@@QBEAAUEVENT_ID_ITEM_LIST@@XZ ; std::_Vector_iterator<std::_Vector_val<EVENT_ID_ITEM_LIST,std::allocator<EVENT_ID_ITEM_LIST> > >::operator*
PUBLIC	??9?$_Vector_const_iterator@V?$_Vector_val@UEVENT_ID_ITEM_LIST@@V?$allocator@UEVENT_ID_ITEM_LIST@@@std@@@std@@@std@@QBE_NABV01@@Z ; std::_Vector_const_iterator<std::_Vector_val<EVENT_ID_ITEM_LIST,std::allocator<EVENT_ID_ITEM_LIST> > >::operator!=
PUBLIC	?end@?$vector@UEVENT_ID_ITEM_LIST@@V?$allocator@UEVENT_ID_ITEM_LIST@@@std@@@std@@QAE?AV?$_Vector_iterator@V?$_Vector_val@UEVENT_ID_ITEM_LIST@@V?$allocator@UEVENT_ID_ITEM_LIST@@@std@@@std@@@2@XZ ; std::vector<EVENT_ID_ITEM_LIST,std::allocator<EVENT_ID_ITEM_LIST> >::end
PUBLIC	??E?$_Vector_iterator@V?$_Vector_val@UEVENT_ID_ITEM_LIST@@V?$allocator@UEVENT_ID_ITEM_LIST@@@std@@@std@@@std@@QAEAAV01@XZ ; std::_Vector_iterator<std::_Vector_val<EVENT_ID_ITEM_LIST,std::allocator<EVENT_ID_ITEM_LIST> > >::operator++
PUBLIC	?begin@?$vector@UEVENT_ID_ITEM_LIST@@V?$allocator@UEVENT_ID_ITEM_LIST@@@std@@@std@@QAE?AV?$_Vector_iterator@V?$_Vector_val@UEVENT_ID_ITEM_LIST@@V?$allocator@UEVENT_ID_ITEM_LIST@@@std@@@std@@@2@XZ ; std::vector<EVENT_ID_ITEM_LIST,std::allocator<EVENT_ID_ITEM_LIST> >::begin
PUBLIC	??0?$_Vector_iterator@V?$_Vector_val@UEVENT_ID_ITEM_LIST@@V?$allocator@UEVENT_ID_ITEM_LIST@@@std@@@std@@@std@@QAE@XZ ; std::_Vector_iterator<std::_Vector_val<EVENT_ID_ITEM_LIST,std::allocator<EVENT_ID_ITEM_LIST> > >::_Vector_iterator<std::_Vector_val<EVENT_ID_ITEM_LIST,std::allocator<EVENT_ID_ITEM_LIST> > >
PUBLIC	?SortItem@CEventItemList@@QAEHEPAE0@Z		; CEventItemList::SortItem
EXTRN	?ItemGetNumberMake@@YAHHH@Z:PROC		; ItemGetNumberMake
; Function compile flags: /Odtp /ZI
_TEXT	SEGMENT
$T227279 = -84						; size = 4
$T227280 = -80						; size = 4
_btType$224799 = -10					; size = 1
_btIndex$224798 = -9					; size = 1
_it$ = -8						; size = 4
_this$ = -4						; size = 4
_giftsection$ = 8					; size = 1
_level$ = 12						; size = 4
_dur$ = 16						; size = 4
?SortItem@CEventItemList@@QAEHEPAE0@Z PROC		; CEventItemList::SortItem
; _this$ = ecx

; 434  : {

  01390	55		 push	 ebp
  01391	8b ec		 mov	 ebp, esp
  01393	83 ec 54	 sub	 esp, 84			; 00000054H
  01396	53		 push	 ebx
  01397	56		 push	 esi
  01398	57		 push	 edi
  01399	89 4d fc	 mov	 DWORD PTR _this$[ebp], ecx

; 435  : 	std::vector<EVENT_ID_ITEM_LIST>::iterator it;

  0139c	8d 4d f8	 lea	 ecx, DWORD PTR _it$[ebp]
  0139f	e8 00 00 00 00	 call	 ??0?$_Vector_iterator@V?$_Vector_val@UEVENT_ID_ITEM_LIST@@V?$allocator@UEVENT_ID_ITEM_LIST@@@std@@@std@@@std@@QAE@XZ ; std::_Vector_iterator<std::_Vector_val<EVENT_ID_ITEM_LIST,std::allocator<EVENT_ID_ITEM_LIST> > >::_Vector_iterator<std::_Vector_val<EVENT_ID_ITEM_LIST,std::allocator<EVENT_ID_ITEM_LIST> > >

; 436  : 
; 437  : 	for(it = this->m_vtEventItemList.begin(); it != this->m_vtEventItemList.end(); ++it)

  013a4	8d 45 ac	 lea	 eax, DWORD PTR $T227279[ebp]
  013a7	50		 push	 eax
  013a8	8b 4d fc	 mov	 ecx, DWORD PTR _this$[ebp]
  013ab	e8 00 00 00 00	 call	 ?begin@?$vector@UEVENT_ID_ITEM_LIST@@V?$allocator@UEVENT_ID_ITEM_LIST@@@std@@@std@@QAE?AV?$_Vector_iterator@V?$_Vector_val@UEVENT_ID_ITEM_LIST@@V?$allocator@UEVENT_ID_ITEM_LIST@@@std@@@std@@@2@XZ ; std::vector<EVENT_ID_ITEM_LIST,std::allocator<EVENT_ID_ITEM_LIST> >::begin
  013b0	8b 08		 mov	 ecx, DWORD PTR [eax]
  013b2	89 4d f8	 mov	 DWORD PTR _it$[ebp], ecx
  013b5	eb 08		 jmp	 SHORT $LN4@SortItem
$LN3@SortItem:
  013b7	8d 4d f8	 lea	 ecx, DWORD PTR _it$[ebp]
  013ba	e8 00 00 00 00	 call	 ??E?$_Vector_iterator@V?$_Vector_val@UEVENT_ID_ITEM_LIST@@V?$allocator@UEVENT_ID_ITEM_LIST@@@std@@@std@@@std@@QAEAAV01@XZ ; std::_Vector_iterator<std::_Vector_val<EVENT_ID_ITEM_LIST,std::allocator<EVENT_ID_ITEM_LIST> > >::operator++
$LN4@SortItem:
  013bf	8d 45 b0	 lea	 eax, DWORD PTR $T227280[ebp]
  013c2	50		 push	 eax
  013c3	8b 4d fc	 mov	 ecx, DWORD PTR _this$[ebp]
  013c6	e8 00 00 00 00	 call	 ?end@?$vector@UEVENT_ID_ITEM_LIST@@V?$allocator@UEVENT_ID_ITEM_LIST@@@std@@@std@@QAE?AV?$_Vector_iterator@V?$_Vector_val@UEVENT_ID_ITEM_LIST@@V?$allocator@UEVENT_ID_ITEM_LIST@@@std@@@std@@@2@XZ ; std::vector<EVENT_ID_ITEM_LIST,std::allocator<EVENT_ID_ITEM_LIST> >::end
  013cb	50		 push	 eax
  013cc	8d 4d f8	 lea	 ecx, DWORD PTR _it$[ebp]
  013cf	e8 00 00 00 00	 call	 ??9?$_Vector_const_iterator@V?$_Vector_val@UEVENT_ID_ITEM_LIST@@V?$allocator@UEVENT_ID_ITEM_LIST@@@std@@@std@@@std@@QBE_NABV01@@Z ; std::_Vector_const_iterator<std::_Vector_val<EVENT_ID_ITEM_LIST,std::allocator<EVENT_ID_ITEM_LIST> > >::operator!=
  013d4	0f b6 c8	 movzx	 ecx, al
  013d7	85 c9		 test	 ecx, ecx
  013d9	74 68		 je	 SHORT $LN2@SortItem

; 438  : 	{
; 439  : 		if( (*it).m_btSection == giftsection)

  013db	8d 4d f8	 lea	 ecx, DWORD PTR _it$[ebp]
  013de	e8 00 00 00 00	 call	 ??D?$_Vector_iterator@V?$_Vector_val@UEVENT_ID_ITEM_LIST@@V?$allocator@UEVENT_ID_ITEM_LIST@@@std@@@std@@@std@@QBEAAUEVENT_ID_ITEM_LIST@@XZ ; std::_Vector_iterator<std::_Vector_val<EVENT_ID_ITEM_LIST,std::allocator<EVENT_ID_ITEM_LIST> > >::operator*
  013e3	0f b6 00	 movzx	 eax, BYTE PTR [eax]
  013e6	0f b6 4d 08	 movzx	 ecx, BYTE PTR _giftsection$[ebp]
  013ea	3b c1		 cmp	 eax, ecx
  013ec	75 50		 jne	 SHORT $LN1@SortItem

; 440  : 		{
; 441  : 			BYTE btIndex = (*it).m_btIndex;

  013ee	8d 4d f8	 lea	 ecx, DWORD PTR _it$[ebp]
  013f1	e8 00 00 00 00	 call	 ??D?$_Vector_iterator@V?$_Vector_val@UEVENT_ID_ITEM_LIST@@V?$allocator@UEVENT_ID_ITEM_LIST@@@std@@@std@@@std@@QBEAAUEVENT_ID_ITEM_LIST@@XZ ; std::_Vector_iterator<std::_Vector_val<EVENT_ID_ITEM_LIST,std::allocator<EVENT_ID_ITEM_LIST> > >::operator*
  013f6	8a 40 02	 mov	 al, BYTE PTR [eax+2]
  013f9	88 45 f7	 mov	 BYTE PTR _btIndex$224798[ebp], al

; 442  : 			BYTE btType = (*it).m_btType;

  013fc	8d 4d f8	 lea	 ecx, DWORD PTR _it$[ebp]
  013ff	e8 00 00 00 00	 call	 ??D?$_Vector_iterator@V?$_Vector_val@UEVENT_ID_ITEM_LIST@@V?$allocator@UEVENT_ID_ITEM_LIST@@@std@@@std@@@std@@QBEAAUEVENT_ID_ITEM_LIST@@XZ ; std::_Vector_iterator<std::_Vector_val<EVENT_ID_ITEM_LIST,std::allocator<EVENT_ID_ITEM_LIST> > >::operator*
  01404	8a 40 01	 mov	 al, BYTE PTR [eax+1]
  01407	88 45 f6	 mov	 BYTE PTR _btType$224799[ebp], al

; 443  : 			
; 444  : 			*level = (*it).m_btLevel;

  0140a	8d 4d f8	 lea	 ecx, DWORD PTR _it$[ebp]
  0140d	e8 00 00 00 00	 call	 ??D?$_Vector_iterator@V?$_Vector_val@UEVENT_ID_ITEM_LIST@@V?$allocator@UEVENT_ID_ITEM_LIST@@@std@@@std@@@std@@QBEAAUEVENT_ID_ITEM_LIST@@XZ ; std::_Vector_iterator<std::_Vector_val<EVENT_ID_ITEM_LIST,std::allocator<EVENT_ID_ITEM_LIST> > >::operator*
  01412	8b 4d 0c	 mov	 ecx, DWORD PTR _level$[ebp]
  01415	8a 50 03	 mov	 dl, BYTE PTR [eax+3]
  01418	88 11		 mov	 BYTE PTR [ecx], dl

; 445  : 			*dur = (*it).m_btDur;

  0141a	8d 4d f8	 lea	 ecx, DWORD PTR _it$[ebp]
  0141d	e8 00 00 00 00	 call	 ??D?$_Vector_iterator@V?$_Vector_val@UEVENT_ID_ITEM_LIST@@V?$allocator@UEVENT_ID_ITEM_LIST@@@std@@@std@@@std@@QBEAAUEVENT_ID_ITEM_LIST@@XZ ; std::_Vector_iterator<std::_Vector_val<EVENT_ID_ITEM_LIST,std::allocator<EVENT_ID_ITEM_LIST> > >::operator*
  01422	8b 4d 10	 mov	 ecx, DWORD PTR _dur$[ebp]
  01425	8a 50 04	 mov	 dl, BYTE PTR [eax+4]
  01428	88 11		 mov	 BYTE PTR [ecx], dl

; 446  : 			
; 447  : 			return ItemGetNumberMake(btType, btIndex);

  0142a	0f b6 45 f7	 movzx	 eax, BYTE PTR _btIndex$224798[ebp]
  0142e	50		 push	 eax
  0142f	0f b6 4d f6	 movzx	 ecx, BYTE PTR _btType$224799[ebp]
  01433	51		 push	 ecx
  01434	e8 00 00 00 00	 call	 ?ItemGetNumberMake@@YAHHH@Z ; ItemGetNumberMake
  01439	83 c4 08	 add	 esp, 8
  0143c	eb 08		 jmp	 SHORT $LN5@SortItem
$LN1@SortItem:

; 448  : 		}
; 449  : 	}

  0143e	e9 74 ff ff ff	 jmp	 $LN3@SortItem
$LN2@SortItem:

; 450  : 	return -1;

  01443	83 c8 ff	 or	 eax, -1
$LN5@SortItem:

; 451  : }

  01446	5f		 pop	 edi
  01447	5e		 pop	 esi
  01448	5b		 pop	 ebx
  01449	8b e5		 mov	 esp, ebp
  0144b	5d		 pop	 ebp
  0144c	c2 0c 00	 ret	 12			; 0000000cH
?SortItem@CEventItemList@@QAEHEPAE0@Z ENDP		; CEventItemList::SortItem
_TEXT	ENDS
PUBLIC	??0?$_Vector_val@UEVENT_ID_TIME@@V?$allocator@UEVENT_ID_TIME@@@std@@@std@@QAE@V?$allocator@UEVENT_ID_TIME@@@1@@Z ; std::_Vector_val<EVENT_ID_TIME,std::allocator<EVENT_ID_TIME> >::_Vector_val<EVENT_ID_TIME,std::allocator<EVENT_ID_TIME> >
PUBLIC	??0?$allocator@UEVENT_ID_TIME@@@std@@QAE@XZ	; std::allocator<EVENT_ID_TIME>::allocator<EVENT_ID_TIME>
; Function compile flags: /Odtp /ZI
; File d:\microsoft visual studio 10.0\vc\include\vector
;	COMDAT ??0?$vector@UEVENT_ID_TIME@@V?$allocator@UEVENT_ID_TIME@@@std@@@std@@QAE@XZ
_TEXT	SEGMENT
$T227282 = -72						; size = 4
_this$ = -4						; size = 4
??0?$vector@UEVENT_ID_TIME@@V?$allocator@UEVENT_ID_TIME@@@std@@@std@@QAE@XZ PROC ; std::vector<EVENT_ID_TIME,std::allocator<EVENT_ID_TIME> >::vector<EVENT_ID_TIME,std::allocator<EVENT_ID_TIME> >, COMDAT
; _this$ = ecx

; 507  : 		{	// construct empty vector

  00000	55		 push	 ebp
  00001	8b ec		 mov	 ebp, esp
  00003	83 ec 48	 sub	 esp, 72			; 00000048H
  00006	53		 push	 ebx
  00007	56		 push	 esi
  00008	57		 push	 edi
  00009	89 4d fc	 mov	 DWORD PTR _this$[ebp], ecx
  0000c	51		 push	 ecx
  0000d	8b cc		 mov	 ecx, esp
  0000f	89 65 b8	 mov	 DWORD PTR $T227282[ebp], esp
  00012	e8 00 00 00 00	 call	 ??0?$allocator@UEVENT_ID_TIME@@@std@@QAE@XZ ; std::allocator<EVENT_ID_TIME>::allocator<EVENT_ID_TIME>
  00017	8b 4d fc	 mov	 ecx, DWORD PTR _this$[ebp]
  0001a	e8 00 00 00 00	 call	 ??0?$_Vector_val@UEVENT_ID_TIME@@V?$allocator@UEVENT_ID_TIME@@@std@@@std@@QAE@V?$allocator@UEVENT_ID_TIME@@@1@@Z ; std::_Vector_val<EVENT_ID_TIME,std::allocator<EVENT_ID_TIME> >::_Vector_val<EVENT_ID_TIME,std::allocator<EVENT_ID_TIME> >

; 508  : 		}

  0001f	8b 45 fc	 mov	 eax, DWORD PTR _this$[ebp]
  00022	5f		 pop	 edi
  00023	5e		 pop	 esi
  00024	5b		 pop	 ebx
  00025	8b e5		 mov	 esp, ebp
  00027	5d		 pop	 ebp
  00028	c3		 ret	 0
??0?$vector@UEVENT_ID_TIME@@V?$allocator@UEVENT_ID_TIME@@@std@@@std@@QAE@XZ ENDP ; std::vector<EVENT_ID_TIME,std::allocator<EVENT_ID_TIME> >::vector<EVENT_ID_TIME,std::allocator<EVENT_ID_TIME> >
_TEXT	ENDS
PUBLIC	??1?$_Vector_val@UEVENT_ID_TIME@@V?$allocator@UEVENT_ID_TIME@@@std@@@std@@QAE@XZ ; std::_Vector_val<EVENT_ID_TIME,std::allocator<EVENT_ID_TIME> >::~_Vector_val<EVENT_ID_TIME,std::allocator<EVENT_ID_TIME> >
PUBLIC	?_Tidy@?$vector@UEVENT_ID_TIME@@V?$allocator@UEVENT_ID_TIME@@@std@@@std@@IAEXXZ ; std::vector<EVENT_ID_TIME,std::allocator<EVENT_ID_TIME> >::_Tidy
;	COMDAT xdata$x
xdata$x	SEGMENT
__unwindtable$??1?$vector@UEVENT_ID_TIME@@V?$allocator@UEVENT_ID_TIME@@@std@@@std@@QAE@XZ DD 0ffffffffH
	DD	FLAT:__unwindfunclet$??1?$vector@UEVENT_ID_TIME@@V?$allocator@UEVENT_ID_TIME@@@std@@@std@@QAE@XZ$0
__ehfuncinfo$??1?$vector@UEVENT_ID_TIME@@V?$allocator@UEVENT_ID_TIME@@@std@@@std@@QAE@XZ DD 019930522H
	DD	01H
	DD	FLAT:__unwindtable$??1?$vector@UEVENT_ID_TIME@@V?$allocator@UEVENT_ID_TIME@@@std@@@std@@QAE@XZ
	DD	2 DUP(00H)
	DD	2 DUP(00H)
	DD	00H
	DD	01H
; Function compile flags: /Odtp /ZI
xdata$x	ENDS
;	COMDAT ??1?$vector@UEVENT_ID_TIME@@V?$allocator@UEVENT_ID_TIME@@@std@@@std@@QAE@XZ
_TEXT	SEGMENT
_this$ = -16						; size = 4
__$EHRec$ = -12						; size = 12
??1?$vector@UEVENT_ID_TIME@@V?$allocator@UEVENT_ID_TIME@@@std@@@std@@QAE@XZ PROC ; std::vector<EVENT_ID_TIME,std::allocator<EVENT_ID_TIME> >::~vector<EVENT_ID_TIME,std::allocator<EVENT_ID_TIME> >, COMDAT
; _this$ = ecx

; 704  : 		{	// destroy the object

  00000	55		 push	 ebp
  00001	8b ec		 mov	 ebp, esp
  00003	6a ff		 push	 -1
  00005	68 00 00 00 00	 push	 __ehhandler$??1?$vector@UEVENT_ID_TIME@@V?$allocator@UEVENT_ID_TIME@@@std@@@std@@QAE@XZ
  0000a	64 a1 00 00 00
	00		 mov	 eax, DWORD PTR fs:0
  00010	50		 push	 eax
  00011	83 ec 44	 sub	 esp, 68			; 00000044H
  00014	53		 push	 ebx
  00015	56		 push	 esi
  00016	57		 push	 edi
  00017	a1 00 00 00 00	 mov	 eax, DWORD PTR ___security_cookie
  0001c	33 c5		 xor	 eax, ebp
  0001e	50		 push	 eax
  0001f	8d 45 f4	 lea	 eax, DWORD PTR __$EHRec$[ebp]
  00022	64 a3 00 00 00
	00		 mov	 DWORD PTR fs:0, eax
  00028	89 4d f0	 mov	 DWORD PTR _this$[ebp], ecx
  0002b	c7 45 fc 00 00
	00 00		 mov	 DWORD PTR __$EHRec$[ebp+8], 0

; 705  : 		_Tidy();

  00032	8b 4d f0	 mov	 ecx, DWORD PTR _this$[ebp]
  00035	e8 00 00 00 00	 call	 ?_Tidy@?$vector@UEVENT_ID_TIME@@V?$allocator@UEVENT_ID_TIME@@@std@@@std@@IAEXXZ ; std::vector<EVENT_ID_TIME,std::allocator<EVENT_ID_TIME> >::_Tidy

; 706  : 		}

  0003a	c7 45 fc ff ff
	ff ff		 mov	 DWORD PTR __$EHRec$[ebp+8], -1
  00041	8b 4d f0	 mov	 ecx, DWORD PTR _this$[ebp]
  00044	e8 00 00 00 00	 call	 ??1?$_Vector_val@UEVENT_ID_TIME@@V?$allocator@UEVENT_ID_TIME@@@std@@@std@@QAE@XZ ; std::_Vector_val<EVENT_ID_TIME,std::allocator<EVENT_ID_TIME> >::~_Vector_val<EVENT_ID_TIME,std::allocator<EVENT_ID_TIME> >
  00049	8b 4d f4	 mov	 ecx, DWORD PTR __$EHRec$[ebp]
  0004c	64 89 0d 00 00
	00 00		 mov	 DWORD PTR fs:0, ecx
  00053	59		 pop	 ecx
  00054	5f		 pop	 edi
  00055	5e		 pop	 esi
  00056	5b		 pop	 ebx
  00057	8b e5		 mov	 esp, ebp
  00059	5d		 pop	 ebp
  0005a	c3		 ret	 0
_TEXT	ENDS
;	COMDAT text$x
text$x	SEGMENT
__unwindfunclet$??1?$vector@UEVENT_ID_TIME@@V?$allocator@UEVENT_ID_TIME@@@std@@@std@@QAE@XZ$0:
  00000	8b 4d f0	 mov	 ecx, DWORD PTR _this$[ebp]
  00003	e9 00 00 00 00	 jmp	 ??1?$_Vector_val@UEVENT_ID_TIME@@V?$allocator@UEVENT_ID_TIME@@@std@@@std@@QAE@XZ ; std::_Vector_val<EVENT_ID_TIME,std::allocator<EVENT_ID_TIME> >::~_Vector_val<EVENT_ID_TIME,std::allocator<EVENT_ID_TIME> >
__ehhandler$??1?$vector@UEVENT_ID_TIME@@V?$allocator@UEVENT_ID_TIME@@@std@@@std@@QAE@XZ:
  00008	8b 54 24 08	 mov	 edx, DWORD PTR [esp+8]
  0000c	8d 42 0c	 lea	 eax, DWORD PTR [edx+12]
  0000f	8b 4a ac	 mov	 ecx, DWORD PTR [edx-84]
  00012	33 c8		 xor	 ecx, eax
  00014	e8 00 00 00 00	 call	 @__security_check_cookie@4
  00019	b8 00 00 00 00	 mov	 eax, OFFSET __ehfuncinfo$??1?$vector@UEVENT_ID_TIME@@V?$allocator@UEVENT_ID_TIME@@@std@@@std@@QAE@XZ
  0001e	e9 00 00 00 00	 jmp	 ___CxxFrameHandler3
text$x	ENDS
??1?$vector@UEVENT_ID_TIME@@V?$allocator@UEVENT_ID_TIME@@@std@@@std@@QAE@XZ ENDP ; std::vector<EVENT_ID_TIME,std::allocator<EVENT_ID_TIME> >::~vector<EVENT_ID_TIME,std::allocator<EVENT_ID_TIME> >
PUBLIC	??0?$_Vector_iterator@V?$_Vector_val@UEVENT_ID_TIME@@V?$allocator@UEVENT_ID_TIME@@@std@@@std@@@std@@QAE@PAUEVENT_ID_TIME@@PBU_Container_base0@1@@Z ; std::_Vector_iterator<std::_Vector_val<EVENT_ID_TIME,std::allocator<EVENT_ID_TIME> > >::_Vector_iterator<std::_Vector_val<EVENT_ID_TIME,std::allocator<EVENT_ID_TIME> > >
; Function compile flags: /Odtp /ZI
;	COMDAT ?begin@?$vector@UEVENT_ID_TIME@@V?$allocator@UEVENT_ID_TIME@@@std@@@std@@QAE?AV?$_Vector_iterator@V?$_Vector_val@UEVENT_ID_TIME@@V?$allocator@UEVENT_ID_TIME@@@std@@@std@@@2@XZ
_TEXT	SEGMENT
_this$ = -4						; size = 4
___$ReturnUdt$ = 8					; size = 4
?begin@?$vector@UEVENT_ID_TIME@@V?$allocator@UEVENT_ID_TIME@@@std@@@std@@QAE?AV?$_Vector_iterator@V?$_Vector_val@UEVENT_ID_TIME@@V?$allocator@UEVENT_ID_TIME@@@std@@@std@@@2@XZ PROC ; std::vector<EVENT_ID_TIME,std::allocator<EVENT_ID_TIME> >::begin, COMDAT
; _this$ = ecx

; 781  : 		{	// return iterator for beginning of mutable sequence

  00000	55		 push	 ebp
  00001	8b ec		 mov	 ebp, esp
  00003	83 ec 44	 sub	 esp, 68			; 00000044H
  00006	53		 push	 ebx
  00007	56		 push	 esi
  00008	57		 push	 edi
  00009	89 4d fc	 mov	 DWORD PTR _this$[ebp], ecx

; 782  : 		return (iterator(this->_Myfirst, this));

  0000c	8b 45 fc	 mov	 eax, DWORD PTR _this$[ebp]
  0000f	50		 push	 eax
  00010	8b 4d fc	 mov	 ecx, DWORD PTR _this$[ebp]
  00013	8b 11		 mov	 edx, DWORD PTR [ecx]
  00015	52		 push	 edx
  00016	8b 4d 08	 mov	 ecx, DWORD PTR ___$ReturnUdt$[ebp]
  00019	e8 00 00 00 00	 call	 ??0?$_Vector_iterator@V?$_Vector_val@UEVENT_ID_TIME@@V?$allocator@UEVENT_ID_TIME@@@std@@@std@@@std@@QAE@PAUEVENT_ID_TIME@@PBU_Container_base0@1@@Z ; std::_Vector_iterator<std::_Vector_val<EVENT_ID_TIME,std::allocator<EVENT_ID_TIME> > >::_Vector_iterator<std::_Vector_val<EVENT_ID_TIME,std::allocator<EVENT_ID_TIME> > >
  0001e	8b 45 08	 mov	 eax, DWORD PTR ___$ReturnUdt$[ebp]

; 783  : 		}

  00021	5f		 pop	 edi
  00022	5e		 pop	 esi
  00023	5b		 pop	 ebx
  00024	8b e5		 mov	 esp, ebp
  00026	5d		 pop	 ebp
  00027	c2 04 00	 ret	 4
?begin@?$vector@UEVENT_ID_TIME@@V?$allocator@UEVENT_ID_TIME@@@std@@@std@@QAE?AV?$_Vector_iterator@V?$_Vector_val@UEVENT_ID_TIME@@V?$allocator@UEVENT_ID_TIME@@@std@@@std@@@2@XZ ENDP ; std::vector<EVENT_ID_TIME,std::allocator<EVENT_ID_TIME> >::begin
; Function compile flags: /Odtp /ZI
_TEXT	ENDS
;	COMDAT ?end@?$vector@UEVENT_ID_TIME@@V?$allocator@UEVENT_ID_TIME@@@std@@@std@@QAE?AV?$_Vector_iterator@V?$_Vector_val@UEVENT_ID_TIME@@V?$allocator@UEVENT_ID_TIME@@@std@@@std@@@2@XZ
_TEXT	SEGMENT
_this$ = -4						; size = 4
___$ReturnUdt$ = 8					; size = 4
?end@?$vector@UEVENT_ID_TIME@@V?$allocator@UEVENT_ID_TIME@@@std@@@std@@QAE?AV?$_Vector_iterator@V?$_Vector_val@UEVENT_ID_TIME@@V?$allocator@UEVENT_ID_TIME@@@std@@@std@@@2@XZ PROC ; std::vector<EVENT_ID_TIME,std::allocator<EVENT_ID_TIME> >::end, COMDAT
; _this$ = ecx

; 791  : 		{	// return iterator for end of mutable sequence

  00000	55		 push	 ebp
  00001	8b ec		 mov	 ebp, esp
  00003	83 ec 44	 sub	 esp, 68			; 00000044H
  00006	53		 push	 ebx
  00007	56		 push	 esi
  00008	57		 push	 edi
  00009	89 4d fc	 mov	 DWORD PTR _this$[ebp], ecx

; 792  : 		return (iterator(this->_Mylast, this));

  0000c	8b 45 fc	 mov	 eax, DWORD PTR _this$[ebp]
  0000f	50		 push	 eax
  00010	8b 4d fc	 mov	 ecx, DWORD PTR _this$[ebp]
  00013	8b 51 04	 mov	 edx, DWORD PTR [ecx+4]
  00016	52		 push	 edx
  00017	8b 4d 08	 mov	 ecx, DWORD PTR ___$ReturnUdt$[ebp]
  0001a	e8 00 00 00 00	 call	 ??0?$_Vector_iterator@V?$_Vector_val@UEVENT_ID_TIME@@V?$allocator@UEVENT_ID_TIME@@@std@@@std@@@std@@QAE@PAUEVENT_ID_TIME@@PBU_Container_base0@1@@Z ; std::_Vector_iterator<std::_Vector_val<EVENT_ID_TIME,std::allocator<EVENT_ID_TIME> > >::_Vector_iterator<std::_Vector_val<EVENT_ID_TIME,std::allocator<EVENT_ID_TIME> > >
  0001f	8b 45 08	 mov	 eax, DWORD PTR ___$ReturnUdt$[ebp]

; 793  : 		}

  00022	5f		 pop	 edi
  00023	5e		 pop	 esi
  00024	5b		 pop	 ebx
  00025	8b e5		 mov	 esp, ebp
  00027	5d		 pop	 ebp
  00028	c2 04 00	 ret	 4
?end@?$vector@UEVENT_ID_TIME@@V?$allocator@UEVENT_ID_TIME@@@std@@@std@@QAE?AV?$_Vector_iterator@V?$_Vector_val@UEVENT_ID_TIME@@V?$allocator@UEVENT_ID_TIME@@@std@@@std@@@2@XZ ENDP ; std::vector<EVENT_ID_TIME,std::allocator<EVENT_ID_TIME> >::end
; Function compile flags: /Odtp /ZI
_TEXT	ENDS
;	COMDAT ?empty@?$vector@UEVENT_ID_TIME@@V?$allocator@UEVENT_ID_TIME@@@std@@@std@@QBE_NXZ
_TEXT	SEGMENT
_this$ = -4						; size = 4
?empty@?$vector@UEVENT_ID_TIME@@V?$allocator@UEVENT_ID_TIME@@@std@@@std@@QBE_NXZ PROC ; std::vector<EVENT_ID_TIME,std::allocator<EVENT_ID_TIME> >::empty, COMDAT
; _this$ = ecx

; 888  : 		{	// test if sequence is empty

  00000	55		 push	 ebp
  00001	8b ec		 mov	 ebp, esp
  00003	83 ec 44	 sub	 esp, 68			; 00000044H
  00006	53		 push	 ebx
  00007	56		 push	 esi
  00008	57		 push	 edi
  00009	89 4d fc	 mov	 DWORD PTR _this$[ebp], ecx

; 889  : 		return (this->_Myfirst == this->_Mylast);

  0000c	8b 45 fc	 mov	 eax, DWORD PTR _this$[ebp]
  0000f	8b 4d fc	 mov	 ecx, DWORD PTR _this$[ebp]
  00012	8b 10		 mov	 edx, DWORD PTR [eax]
  00014	33 c0		 xor	 eax, eax
  00016	3b 51 04	 cmp	 edx, DWORD PTR [ecx+4]
  00019	0f 94 c0	 sete	 al

; 890  : 		}

  0001c	5f		 pop	 edi
  0001d	5e		 pop	 esi
  0001e	5b		 pop	 ebx
  0001f	8b e5		 mov	 esp, ebp
  00021	5d		 pop	 ebp
  00022	c3		 ret	 0
?empty@?$vector@UEVENT_ID_TIME@@V?$allocator@UEVENT_ID_TIME@@@std@@@std@@QBE_NXZ ENDP ; std::vector<EVENT_ID_TIME,std::allocator<EVENT_ID_TIME> >::empty
_TEXT	ENDS
PUBLIC	??$_Cons_val@V?$allocator@UEVENT_ID_TIME@@@std@@UEVENT_ID_TIME@@ABU3@@std@@YAXAAV?$allocator@UEVENT_ID_TIME@@@0@PAUEVENT_ID_TIME@@ABU2@@Z ; std::_Cons_val<std::allocator<EVENT_ID_TIME>,EVENT_ID_TIME,EVENT_ID_TIME const &>
PUBLIC	??$_Cons_val@V?$allocator@UEVENT_ID_TIME@@@std@@UEVENT_ID_TIME@@AAU3@@std@@YAXAAV?$allocator@UEVENT_ID_TIME@@@0@PAUEVENT_ID_TIME@@AAU2@@Z ; std::_Cons_val<std::allocator<EVENT_ID_TIME>,EVENT_ID_TIME,EVENT_ID_TIME &>
PUBLIC	?_Orphan_range@?$vector@UEVENT_ID_TIME@@V?$allocator@UEVENT_ID_TIME@@@std@@@std@@IBEXPAUEVENT_ID_TIME@@0@Z ; std::vector<EVENT_ID_TIME,std::allocator<EVENT_ID_TIME> >::_Orphan_range
PUBLIC	?_Reserve@?$vector@UEVENT_ID_TIME@@V?$allocator@UEVENT_ID_TIME@@@std@@@std@@IAEXI@Z ; std::vector<EVENT_ID_TIME,std::allocator<EVENT_ID_TIME> >::_Reserve
PUBLIC	?_Inside@?$vector@UEVENT_ID_TIME@@V?$allocator@UEVENT_ID_TIME@@@std@@@std@@IBE_NPBUEVENT_ID_TIME@@@Z ; std::vector<EVENT_ID_TIME,std::allocator<EVENT_ID_TIME> >::_Inside
PUBLIC	??$addressof@$$CBUEVENT_ID_TIME@@@std@@YAPBUEVENT_ID_TIME@@ABU1@@Z ; std::addressof<EVENT_ID_TIME const >
; Function compile flags: /Odtp /ZI
;	COMDAT ?push_back@?$vector@UEVENT_ID_TIME@@V?$allocator@UEVENT_ID_TIME@@@std@@@std@@QAEXABUEVENT_ID_TIME@@@Z
_TEXT	SEGMENT
__Idx$224829 = -8					; size = 4
_this$ = -4						; size = 4
__Val$ = 8						; size = 4
?push_back@?$vector@UEVENT_ID_TIME@@V?$allocator@UEVENT_ID_TIME@@@std@@@std@@QAEXABUEVENT_ID_TIME@@@Z PROC ; std::vector<EVENT_ID_TIME,std::allocator<EVENT_ID_TIME> >::push_back, COMDAT
; _this$ = ecx

; 976  : 		{	// insert element at end

  00000	55		 push	 ebp
  00001	8b ec		 mov	 ebp, esp
  00003	83 ec 48	 sub	 esp, 72			; 00000048H
  00006	53		 push	 ebx
  00007	56		 push	 esi
  00008	57		 push	 edi
  00009	89 4d fc	 mov	 DWORD PTR _this$[ebp], ecx

; 977  : 		if (_Inside(_STD addressof(_Val)))

  0000c	8b 45 08	 mov	 eax, DWORD PTR __Val$[ebp]
  0000f	50		 push	 eax
  00010	e8 00 00 00 00	 call	 ??$addressof@$$CBUEVENT_ID_TIME@@@std@@YAPBUEVENT_ID_TIME@@ABU1@@Z ; std::addressof<EVENT_ID_TIME const >
  00015	83 c4 04	 add	 esp, 4
  00018	50		 push	 eax
  00019	8b 4d fc	 mov	 ecx, DWORD PTR _this$[ebp]
  0001c	e8 00 00 00 00	 call	 ?_Inside@?$vector@UEVENT_ID_TIME@@V?$allocator@UEVENT_ID_TIME@@@std@@@std@@IBE_NPBUEVENT_ID_TIME@@@Z ; std::vector<EVENT_ID_TIME,std::allocator<EVENT_ID_TIME> >::_Inside
  00021	0f b6 c8	 movzx	 ecx, al
  00024	85 c9		 test	 ecx, ecx
  00026	74 78		 je	 SHORT $LN4@push_back

; 978  : 			{	// push back an element
; 979  : 			size_type _Idx = _STD addressof(_Val) - this->_Myfirst;

  00028	8b 45 08	 mov	 eax, DWORD PTR __Val$[ebp]
  0002b	50		 push	 eax
  0002c	e8 00 00 00 00	 call	 ??$addressof@$$CBUEVENT_ID_TIME@@@std@@YAPBUEVENT_ID_TIME@@ABU1@@Z ; std::addressof<EVENT_ID_TIME const >
  00031	83 c4 04	 add	 esp, 4
  00034	8b 4d fc	 mov	 ecx, DWORD PTR _this$[ebp]
  00037	2b 01		 sub	 eax, DWORD PTR [ecx]
  00039	c1 f8 04	 sar	 eax, 4
  0003c	89 45 f8	 mov	 DWORD PTR __Idx$224829[ebp], eax

; 980  : 			if (this->_Mylast == this->_Myend)

  0003f	8b 45 fc	 mov	 eax, DWORD PTR _this$[ebp]
  00042	8b 4d fc	 mov	 ecx, DWORD PTR _this$[ebp]
  00045	8b 50 04	 mov	 edx, DWORD PTR [eax+4]
  00048	3b 51 08	 cmp	 edx, DWORD PTR [ecx+8]
  0004b	75 0a		 jne	 SHORT $LN3@push_back

; 981  : 				_Reserve(1);

  0004d	6a 01		 push	 1
  0004f	8b 4d fc	 mov	 ecx, DWORD PTR _this$[ebp]
  00052	e8 00 00 00 00	 call	 ?_Reserve@?$vector@UEVENT_ID_TIME@@V?$allocator@UEVENT_ID_TIME@@@std@@@std@@IAEXI@Z ; std::vector<EVENT_ID_TIME,std::allocator<EVENT_ID_TIME> >::_Reserve
$LN3@push_back:

; 982  : 			_Orphan_range(this->_Mylast, this->_Mylast);

  00057	8b 45 fc	 mov	 eax, DWORD PTR _this$[ebp]
  0005a	8b 48 04	 mov	 ecx, DWORD PTR [eax+4]
  0005d	51		 push	 ecx
  0005e	8b 55 fc	 mov	 edx, DWORD PTR _this$[ebp]
  00061	8b 42 04	 mov	 eax, DWORD PTR [edx+4]
  00064	50		 push	 eax
  00065	8b 4d fc	 mov	 ecx, DWORD PTR _this$[ebp]
  00068	e8 00 00 00 00	 call	 ?_Orphan_range@?$vector@UEVENT_ID_TIME@@V?$allocator@UEVENT_ID_TIME@@@std@@@std@@IBEXPAUEVENT_ID_TIME@@0@Z ; std::vector<EVENT_ID_TIME,std::allocator<EVENT_ID_TIME> >::_Orphan_range

; 983  : 			_Cons_val(this->_Alval,
; 984  : 				this->_Mylast,
; 985  : 				this->_Myfirst[_Idx]);

  0006d	8b 45 f8	 mov	 eax, DWORD PTR __Idx$224829[ebp]
  00070	c1 e0 04	 shl	 eax, 4
  00073	8b 4d fc	 mov	 ecx, DWORD PTR _this$[ebp]
  00076	03 01		 add	 eax, DWORD PTR [ecx]
  00078	50		 push	 eax
  00079	8b 55 fc	 mov	 edx, DWORD PTR _this$[ebp]
  0007c	8b 42 04	 mov	 eax, DWORD PTR [edx+4]
  0007f	50		 push	 eax
  00080	8b 4d fc	 mov	 ecx, DWORD PTR _this$[ebp]
  00083	83 c1 0c	 add	 ecx, 12			; 0000000cH
  00086	51		 push	 ecx
  00087	e8 00 00 00 00	 call	 ??$_Cons_val@V?$allocator@UEVENT_ID_TIME@@@std@@UEVENT_ID_TIME@@AAU3@@std@@YAXAAV?$allocator@UEVENT_ID_TIME@@@0@PAUEVENT_ID_TIME@@AAU2@@Z ; std::_Cons_val<std::allocator<EVENT_ID_TIME>,EVENT_ID_TIME,EVENT_ID_TIME &>
  0008c	83 c4 0c	 add	 esp, 12			; 0000000cH

; 986  : 			++this->_Mylast;

  0008f	8b 45 fc	 mov	 eax, DWORD PTR _this$[ebp]
  00092	8b 48 04	 mov	 ecx, DWORD PTR [eax+4]
  00095	83 c1 10	 add	 ecx, 16			; 00000010H
  00098	8b 55 fc	 mov	 edx, DWORD PTR _this$[ebp]
  0009b	89 4a 04	 mov	 DWORD PTR [edx+4], ecx

; 987  : 			}
; 988  : 		else

  0009e	eb 57		 jmp	 SHORT $LN5@push_back
$LN4@push_back:

; 989  : 			{	// push back a non-element
; 990  : 			if (this->_Mylast == this->_Myend)

  000a0	8b 45 fc	 mov	 eax, DWORD PTR _this$[ebp]
  000a3	8b 4d fc	 mov	 ecx, DWORD PTR _this$[ebp]
  000a6	8b 50 04	 mov	 edx, DWORD PTR [eax+4]
  000a9	3b 51 08	 cmp	 edx, DWORD PTR [ecx+8]
  000ac	75 0a		 jne	 SHORT $LN1@push_back

; 991  : 				_Reserve(1);

  000ae	6a 01		 push	 1
  000b0	8b 4d fc	 mov	 ecx, DWORD PTR _this$[ebp]
  000b3	e8 00 00 00 00	 call	 ?_Reserve@?$vector@UEVENT_ID_TIME@@V?$allocator@UEVENT_ID_TIME@@@std@@@std@@IAEXI@Z ; std::vector<EVENT_ID_TIME,std::allocator<EVENT_ID_TIME> >::_Reserve
$LN1@push_back:

; 992  : 			_Orphan_range(this->_Mylast, this->_Mylast);

  000b8	8b 45 fc	 mov	 eax, DWORD PTR _this$[ebp]
  000bb	8b 48 04	 mov	 ecx, DWORD PTR [eax+4]
  000be	51		 push	 ecx
  000bf	8b 55 fc	 mov	 edx, DWORD PTR _this$[ebp]
  000c2	8b 42 04	 mov	 eax, DWORD PTR [edx+4]
  000c5	50		 push	 eax
  000c6	8b 4d fc	 mov	 ecx, DWORD PTR _this$[ebp]
  000c9	e8 00 00 00 00	 call	 ?_Orphan_range@?$vector@UEVENT_ID_TIME@@V?$allocator@UEVENT_ID_TIME@@@std@@@std@@IBEXPAUEVENT_ID_TIME@@0@Z ; std::vector<EVENT_ID_TIME,std::allocator<EVENT_ID_TIME> >::_Orphan_range

; 993  : 			_Cons_val(this->_Alval,
; 994  : 				this->_Mylast,
; 995  : 				_Val);

  000ce	8b 45 08	 mov	 eax, DWORD PTR __Val$[ebp]
  000d1	50		 push	 eax
  000d2	8b 4d fc	 mov	 ecx, DWORD PTR _this$[ebp]
  000d5	8b 51 04	 mov	 edx, DWORD PTR [ecx+4]
  000d8	52		 push	 edx
  000d9	8b 45 fc	 mov	 eax, DWORD PTR _this$[ebp]
  000dc	83 c0 0c	 add	 eax, 12			; 0000000cH
  000df	50		 push	 eax
  000e0	e8 00 00 00 00	 call	 ??$_Cons_val@V?$allocator@UEVENT_ID_TIME@@@std@@UEVENT_ID_TIME@@ABU3@@std@@YAXAAV?$allocator@UEVENT_ID_TIME@@@0@PAUEVENT_ID_TIME@@ABU2@@Z ; std::_Cons_val<std::allocator<EVENT_ID_TIME>,EVENT_ID_TIME,EVENT_ID_TIME const &>
  000e5	83 c4 0c	 add	 esp, 12			; 0000000cH

; 996  : 			++this->_Mylast;

  000e8	8b 45 fc	 mov	 eax, DWORD PTR _this$[ebp]
  000eb	8b 48 04	 mov	 ecx, DWORD PTR [eax+4]
  000ee	83 c1 10	 add	 ecx, 16			; 00000010H
  000f1	8b 55 fc	 mov	 edx, DWORD PTR _this$[ebp]
  000f4	89 4a 04	 mov	 DWORD PTR [edx+4], ecx
$LN5@push_back:

; 997  : 			}
; 998  : 		}

  000f7	5f		 pop	 edi
  000f8	5e		 pop	 esi
  000f9	5b		 pop	 ebx
  000fa	8b e5		 mov	 esp, ebp
  000fc	5d		 pop	 ebp
  000fd	c2 04 00	 ret	 4
?push_back@?$vector@UEVENT_ID_TIME@@V?$allocator@UEVENT_ID_TIME@@@std@@@std@@QAEXABUEVENT_ID_TIME@@@Z ENDP ; std::vector<EVENT_ID_TIME,std::allocator<EVENT_ID_TIME> >::push_back
_TEXT	ENDS
PUBLIC	?erase@?$vector@UEVENT_ID_TIME@@V?$allocator@UEVENT_ID_TIME@@@std@@@std@@QAE?AV?$_Vector_iterator@V?$_Vector_val@UEVENT_ID_TIME@@V?$allocator@UEVENT_ID_TIME@@@std@@@std@@@2@V?$_Vector_const_iterator@V?$_Vector_val@UEVENT_ID_TIME@@V?$allocator@UEVENT_ID_TIME@@@std@@@std@@@2@0@Z ; std::vector<EVENT_ID_TIME,std::allocator<EVENT_ID_TIME> >::erase
; Function compile flags: /Odtp /ZI
;	COMDAT ?clear@?$vector@UEVENT_ID_TIME@@V?$allocator@UEVENT_ID_TIME@@@std@@@std@@QAEXXZ
_TEXT	SEGMENT
$T227303 = -88						; size = 4
$T227304 = -84						; size = 4
$T227305 = -80						; size = 4
$T227306 = -76						; size = 4
$T227307 = -72						; size = 4
_this$ = -4						; size = 4
?clear@?$vector@UEVENT_ID_TIME@@V?$allocator@UEVENT_ID_TIME@@@std@@@std@@QAEXXZ PROC ; std::vector<EVENT_ID_TIME,std::allocator<EVENT_ID_TIME> >::clear, COMDAT
; _this$ = ecx

; 1217 : 		{	// erase all

  00000	55		 push	 ebp
  00001	8b ec		 mov	 ebp, esp
  00003	83 ec 58	 sub	 esp, 88			; 00000058H
  00006	53		 push	 ebx
  00007	56		 push	 esi
  00008	57		 push	 edi
  00009	89 4d fc	 mov	 DWORD PTR _this$[ebp], ecx

; 1218 : 		erase(begin(), end());

  0000c	8d 45 ac	 lea	 eax, DWORD PTR $T227304[ebp]
  0000f	50		 push	 eax
  00010	8b 4d fc	 mov	 ecx, DWORD PTR _this$[ebp]
  00013	e8 00 00 00 00	 call	 ?end@?$vector@UEVENT_ID_TIME@@V?$allocator@UEVENT_ID_TIME@@@std@@@std@@QAE?AV?$_Vector_iterator@V?$_Vector_val@UEVENT_ID_TIME@@V?$allocator@UEVENT_ID_TIME@@@std@@@std@@@2@XZ ; std::vector<EVENT_ID_TIME,std::allocator<EVENT_ID_TIME> >::end
  00018	8b 08		 mov	 ecx, DWORD PTR [eax]
  0001a	89 4d a8	 mov	 DWORD PTR $T227303[ebp], ecx
  0001d	8d 55 b4	 lea	 edx, DWORD PTR $T227306[ebp]
  00020	52		 push	 edx
  00021	8b 4d fc	 mov	 ecx, DWORD PTR _this$[ebp]
  00024	e8 00 00 00 00	 call	 ?begin@?$vector@UEVENT_ID_TIME@@V?$allocator@UEVENT_ID_TIME@@@std@@@std@@QAE?AV?$_Vector_iterator@V?$_Vector_val@UEVENT_ID_TIME@@V?$allocator@UEVENT_ID_TIME@@@std@@@std@@@2@XZ ; std::vector<EVENT_ID_TIME,std::allocator<EVENT_ID_TIME> >::begin
  00029	8b 00		 mov	 eax, DWORD PTR [eax]
  0002b	89 45 b0	 mov	 DWORD PTR $T227305[ebp], eax
  0002e	8b 4d a8	 mov	 ecx, DWORD PTR $T227303[ebp]
  00031	51		 push	 ecx
  00032	8b 55 b0	 mov	 edx, DWORD PTR $T227305[ebp]
  00035	52		 push	 edx
  00036	8d 45 b8	 lea	 eax, DWORD PTR $T227307[ebp]
  00039	50		 push	 eax
  0003a	8b 4d fc	 mov	 ecx, DWORD PTR _this$[ebp]
  0003d	e8 00 00 00 00	 call	 ?erase@?$vector@UEVENT_ID_TIME@@V?$allocator@UEVENT_ID_TIME@@@std@@@std@@QAE?AV?$_Vector_iterator@V?$_Vector_val@UEVENT_ID_TIME@@V?$allocator@UEVENT_ID_TIME@@@std@@@std@@@2@V?$_Vector_const_iterator@V?$_Vector_val@UEVENT_ID_TIME@@V?$allocator@UEVENT_ID_TIME@@@std@@@std@@@2@0@Z ; std::vector<EVENT_ID_TIME,std::allocator<EVENT_ID_TIME> >::erase

; 1219 : 		}

  00042	5f		 pop	 edi
  00043	5e		 pop	 esi
  00044	5b		 pop	 ebx
  00045	8b e5		 mov	 esp, ebp
  00047	5d		 pop	 ebp
  00048	c3		 ret	 0
?clear@?$vector@UEVENT_ID_TIME@@V?$allocator@UEVENT_ID_TIME@@@std@@@std@@QAEXXZ ENDP ; std::vector<EVENT_ID_TIME,std::allocator<EVENT_ID_TIME> >::clear
_TEXT	ENDS
PUBLIC	??0?$_Tree@V?$_Tmap_traits@HPAXU?$less@H@std@@V?$allocator@U?$pair@$$CBHPAX@std@@@2@$0A@@std@@@std@@QAE@ABU?$less@H@1@ABV?$allocator@U?$pair@$$CBHPAX@std@@@1@@Z ; std::_Tree<std::_Tmap_traits<int,void *,std::less<int>,std::allocator<std::pair<int const ,void *> >,0> >::_Tree<std::_Tmap_traits<int,void *,std::less<int>,std::allocator<std::pair<int const ,void *> >,0> >
PUBLIC	??0?$allocator@U?$pair@$$CBHPAX@std@@@std@@QAE@XZ ; std::allocator<std::pair<int const ,void *> >::allocator<std::pair<int const ,void *> >
; Function compile flags: /Odtp /ZI
; File d:\microsoft visual studio 10.0\vc\include\map
;	COMDAT ??0?$map@HPAXU?$less@H@std@@V?$allocator@U?$pair@$$CBHPAX@std@@@2@@std@@QAE@XZ
_TEXT	SEGMENT
$T227310 = -70						; size = 1
$T227311 = -69						; size = 1
_this$ = -4						; size = 4
??0?$map@HPAXU?$less@H@std@@V?$allocator@U?$pair@$$CBHPAX@std@@@2@@std@@QAE@XZ PROC ; std::map<int,void *,std::less<int>,std::allocator<std::pair<int const ,void *> > >::map<int,void *,std::less<int>,std::allocator<std::pair<int const ,void *> > >, COMDAT
; _this$ = ecx

; 106  : 		{	// construct empty map from defaults

  00000	55		 push	 ebp
  00001	8b ec		 mov	 ebp, esp
  00003	83 ec 48	 sub	 esp, 72			; 00000048H
  00006	53		 push	 ebx
  00007	56		 push	 esi
  00008	57		 push	 edi
  00009	89 4d fc	 mov	 DWORD PTR _this$[ebp], ecx
  0000c	8d 4d ba	 lea	 ecx, DWORD PTR $T227310[ebp]
  0000f	e8 00 00 00 00	 call	 ??0?$allocator@U?$pair@$$CBHPAX@std@@@std@@QAE@XZ ; std::allocator<std::pair<int const ,void *> >::allocator<std::pair<int const ,void *> >
  00014	50		 push	 eax
  00015	8d 45 bb	 lea	 eax, DWORD PTR $T227311[ebp]
  00018	50		 push	 eax
  00019	8b 4d fc	 mov	 ecx, DWORD PTR _this$[ebp]
  0001c	e8 00 00 00 00	 call	 ??0?$_Tree@V?$_Tmap_traits@HPAXU?$less@H@std@@V?$allocator@U?$pair@$$CBHPAX@std@@@2@$0A@@std@@@std@@QAE@ABU?$less@H@1@ABV?$allocator@U?$pair@$$CBHPAX@std@@@1@@Z ; std::_Tree<std::_Tmap_traits<int,void *,std::less<int>,std::allocator<std::pair<int const ,void *> >,0> >::_Tree<std::_Tmap_traits<int,void *,std::less<int>,std::allocator<std::pair<int const ,void *> >,0> >

; 107  : 		}

  00021	8b 45 fc	 mov	 eax, DWORD PTR _this$[ebp]
  00024	5f		 pop	 edi
  00025	5e		 pop	 esi
  00026	5b		 pop	 ebx
  00027	8b e5		 mov	 esp, ebp
  00029	5d		 pop	 ebp
  0002a	c3		 ret	 0
??0?$map@HPAXU?$less@H@std@@V?$allocator@U?$pair@$$CBHPAX@std@@@2@@std@@QAE@XZ ENDP ; std::map<int,void *,std::less<int>,std::allocator<std::pair<int const ,void *> > >::map<int,void *,std::less<int>,std::allocator<std::pair<int const ,void *> > >
_TEXT	ENDS
PUBLIC	??1?$_Tree_val@V?$_Tmap_traits@HPAXU?$less@H@std@@V?$allocator@U?$pair@$$CBHPAX@std@@@2@$0A@@std@@@std@@QAE@XZ ; std::_Tree_val<std::_Tmap_traits<int,void *,std::less<int>,std::allocator<std::pair<int const ,void *> >,0> >::~_Tree_val<std::_Tmap_traits<int,void *,std::less<int>,std::allocator<std::pair<int const ,void *> >,0> >
PUBLIC	?_Tidy@?$_Tree@V?$_Tmap_traits@HPAXU?$less@H@std@@V?$allocator@U?$pair@$$CBHPAX@std@@@2@$0A@@std@@@std@@IAEXXZ ; std::_Tree<std::_Tmap_traits<int,void *,std::less<int>,std::allocator<std::pair<int const ,void *> >,0> >::_Tidy
;	COMDAT xdata$x
; File d:\microsoft visual studio 10.0\vc\include\xtree
xdata$x	SEGMENT
__unwindtable$??1?$_Tree@V?$_Tmap_traits@HPAXU?$less@H@std@@V?$allocator@U?$pair@$$CBHPAX@std@@@2@$0A@@std@@@std@@QAE@XZ DD 0ffffffffH
	DD	FLAT:__unwindfunclet$??1?$_Tree@V?$_Tmap_traits@HPAXU?$less@H@std@@V?$allocator@U?$pair@$$CBHPAX@std@@@2@$0A@@std@@@std@@QAE@XZ$0
__ehfuncinfo$??1?$_Tree@V?$_Tmap_traits@HPAXU?$less@H@std@@V?$allocator@U?$pair@$$CBHPAX@std@@@2@$0A@@std@@@std@@QAE@XZ DD 019930522H
	DD	01H
	DD	FLAT:__unwindtable$??1?$_Tree@V?$_Tmap_traits@HPAXU?$less@H@std@@V?$allocator@U?$pair@$$CBHPAX@std@@@2@$0A@@std@@@std@@QAE@XZ
	DD	2 DUP(00H)
	DD	2 DUP(00H)
	DD	00H
	DD	01H
; Function compile flags: /Odtp /ZI
xdata$x	ENDS
;	COMDAT ??1?$_Tree@V?$_Tmap_traits@HPAXU?$less@H@std@@V?$allocator@U?$pair@$$CBHPAX@std@@@2@$0A@@std@@@std@@QAE@XZ
_TEXT	SEGMENT
_this$ = -16						; size = 4
__$EHRec$ = -12						; size = 12
??1?$_Tree@V?$_Tmap_traits@HPAXU?$less@H@std@@V?$allocator@U?$pair@$$CBHPAX@std@@@2@$0A@@std@@@std@@QAE@XZ PROC ; std::_Tree<std::_Tmap_traits<int,void *,std::less<int>,std::allocator<std::pair<int const ,void *> >,0> >::~_Tree<std::_Tmap_traits<int,void *,std::less<int>,std::allocator<std::pair<int const ,void *> >,0> >, COMDAT
; _this$ = ecx

; 790  : 		{	// destroy tree

  00000	55		 push	 ebp
  00001	8b ec		 mov	 ebp, esp
  00003	6a ff		 push	 -1
  00005	68 00 00 00 00	 push	 __ehhandler$??1?$_Tree@V?$_Tmap_traits@HPAXU?$less@H@std@@V?$allocator@U?$pair@$$CBHPAX@std@@@2@$0A@@std@@@std@@QAE@XZ
  0000a	64 a1 00 00 00
	00		 mov	 eax, DWORD PTR fs:0
  00010	50		 push	 eax
  00011	83 ec 44	 sub	 esp, 68			; 00000044H
  00014	53		 push	 ebx
  00015	56		 push	 esi
  00016	57		 push	 edi
  00017	a1 00 00 00 00	 mov	 eax, DWORD PTR ___security_cookie
  0001c	33 c5		 xor	 eax, ebp
  0001e	50		 push	 eax
  0001f	8d 45 f4	 lea	 eax, DWORD PTR __$EHRec$[ebp]
  00022	64 a3 00 00 00
	00		 mov	 DWORD PTR fs:0, eax
  00028	89 4d f0	 mov	 DWORD PTR _this$[ebp], ecx
  0002b	c7 45 fc 00 00
	00 00		 mov	 DWORD PTR __$EHRec$[ebp+8], 0

; 791  : 		_Tidy();

  00032	8b 4d f0	 mov	 ecx, DWORD PTR _this$[ebp]
  00035	e8 00 00 00 00	 call	 ?_Tidy@?$_Tree@V?$_Tmap_traits@HPAXU?$less@H@std@@V?$allocator@U?$pair@$$CBHPAX@std@@@2@$0A@@std@@@std@@IAEXXZ ; std::_Tree<std::_Tmap_traits<int,void *,std::less<int>,std::allocator<std::pair<int const ,void *> >,0> >::_Tidy

; 792  : 		}

  0003a	c7 45 fc ff ff
	ff ff		 mov	 DWORD PTR __$EHRec$[ebp+8], -1
  00041	8b 4d f0	 mov	 ecx, DWORD PTR _this$[ebp]
  00044	e8 00 00 00 00	 call	 ??1?$_Tree_val@V?$_Tmap_traits@HPAXU?$less@H@std@@V?$allocator@U?$pair@$$CBHPAX@std@@@2@$0A@@std@@@std@@QAE@XZ ; std::_Tree_val<std::_Tmap_traits<int,void *,std::less<int>,std::allocator<std::pair<int const ,void *> >,0> >::~_Tree_val<std::_Tmap_traits<int,void *,std::less<int>,std::allocator<std::pair<int const ,void *> >,0> >
  00049	8b 4d f4	 mov	 ecx, DWORD PTR __$EHRec$[ebp]
  0004c	64 89 0d 00 00
	00 00		 mov	 DWORD PTR fs:0, ecx
  00053	59		 pop	 ecx
  00054	5f		 pop	 edi
  00055	5e		 pop	 esi
  00056	5b		 pop	 ebx
  00057	8b e5		 mov	 esp, ebp
  00059	5d		 pop	 ebp
  0005a	c3		 ret	 0
_TEXT	ENDS
;	COMDAT text$x
text$x	SEGMENT
__unwindfunclet$??1?$_Tree@V?$_Tmap_traits@HPAXU?$less@H@std@@V?$allocator@U?$pair@$$CBHPAX@std@@@2@$0A@@std@@@std@@QAE@XZ$0:
  00000	8b 4d f0	 mov	 ecx, DWORD PTR _this$[ebp]
  00003	e9 00 00 00 00	 jmp	 ??1?$_Tree_val@V?$_Tmap_traits@HPAXU?$less@H@std@@V?$allocator@U?$pair@$$CBHPAX@std@@@2@$0A@@std@@@std@@QAE@XZ ; std::_Tree_val<std::_Tmap_traits<int,void *,std::less<int>,std::allocator<std::pair<int const ,void *> >,0> >::~_Tree_val<std::_Tmap_traits<int,void *,std::less<int>,std::allocator<std::pair<int const ,void *> >,0> >
__ehhandler$??1?$_Tree@V?$_Tmap_traits@HPAXU?$less@H@std@@V?$allocator@U?$pair@$$CBHPAX@std@@@2@$0A@@std@@@std@@QAE@XZ:
  00008	8b 54 24 08	 mov	 edx, DWORD PTR [esp+8]
  0000c	8d 42 0c	 lea	 eax, DWORD PTR [edx+12]
  0000f	8b 4a ac	 mov	 ecx, DWORD PTR [edx-84]
  00012	33 c8		 xor	 ecx, eax
  00014	e8 00 00 00 00	 call	 @__security_check_cookie@4
  00019	b8 00 00 00 00	 mov	 eax, OFFSET __ehfuncinfo$??1?$_Tree@V?$_Tmap_traits@HPAXU?$less@H@std@@V?$allocator@U?$pair@$$CBHPAX@std@@@2@$0A@@std@@@std@@QAE@XZ
  0001e	e9 00 00 00 00	 jmp	 ___CxxFrameHandler3
text$x	ENDS
??1?$_Tree@V?$_Tmap_traits@HPAXU?$less@H@std@@V?$allocator@U?$pair@$$CBHPAX@std@@@2@$0A@@std@@@std@@QAE@XZ ENDP ; std::_Tree<std::_Tmap_traits<int,void *,std::less<int>,std::allocator<std::pair<int const ,void *> >,0> >::~_Tree<std::_Tmap_traits<int,void *,std::less<int>,std::allocator<std::pair<int const ,void *> >,0> >
PUBLIC	??0?$_Tree_iterator@V?$_Tree_val@V?$_Tmap_traits@HPAXU?$less@H@std@@V?$allocator@U?$pair@$$CBHPAX@std@@@2@$0A@@std@@@std@@@std@@QAE@PAU_Node@?$_Tree_nod@V?$_Tmap_traits@HPAXU?$less@H@std@@V?$allocator@U?$pair@$$CBHPAX@std@@@2@$0A@@std@@@1@PBV?$_Tree_val@V?$_Tmap_traits@HPAXU?$less@H@std@@V?$allocator@U?$pair@$$CBHPAX@std@@@2@$0A@@std@@@1@@Z ; std::_Tree_iterator<std::_Tree_val<std::_Tmap_traits<int,void *,std::less<int>,std::allocator<std::pair<int const ,void *> >,0> > >::_Tree_iterator<std::_Tree_val<std::_Tmap_traits<int,void *,std::less<int>,std::allocator<std::pair<int const ,void *> >,0> > >
; Function compile flags: /Odtp /ZI
;	COMDAT ?end@?$_Tree@V?$_Tmap_traits@HPAXU?$less@H@std@@V?$allocator@U?$pair@$$CBHPAX@std@@@2@$0A@@std@@@std@@QAE?AV?$_Tree_iterator@V?$_Tree_val@V?$_Tmap_traits@HPAXU?$less@H@std@@V?$allocator@U?$pair@$$CBHPAX@std@@@2@$0A@@std@@@std@@@2@XZ
_TEXT	SEGMENT
_this$ = -4						; size = 4
___$ReturnUdt$ = 8					; size = 4
?end@?$_Tree@V?$_Tmap_traits@HPAXU?$less@H@std@@V?$allocator@U?$pair@$$CBHPAX@std@@@2@$0A@@std@@@std@@QAE?AV?$_Tree_iterator@V?$_Tree_val@V?$_Tmap_traits@HPAXU?$less@H@std@@V?$allocator@U?$pair@$$CBHPAX@std@@@2@$0A@@std@@@std@@@2@XZ PROC ; std::_Tree<std::_Tmap_traits<int,void *,std::less<int>,std::allocator<std::pair<int const ,void *> >,0> >::end, COMDAT
; _this$ = ecx

; 816  : 		{	// return iterator for end of mutable sequence

  00000	55		 push	 ebp
  00001	8b ec		 mov	 ebp, esp
  00003	83 ec 44	 sub	 esp, 68			; 00000044H
  00006	53		 push	 ebx
  00007	56		 push	 esi
  00008	57		 push	 edi
  00009	89 4d fc	 mov	 DWORD PTR _this$[ebp], ecx

; 817  : 		return (iterator(this->_Myhead, this));

  0000c	8b 45 fc	 mov	 eax, DWORD PTR _this$[ebp]
  0000f	50		 push	 eax
  00010	8b 4d fc	 mov	 ecx, DWORD PTR _this$[ebp]
  00013	8b 51 04	 mov	 edx, DWORD PTR [ecx+4]
  00016	52		 push	 edx
  00017	8b 4d 08	 mov	 ecx, DWORD PTR ___$ReturnUdt$[ebp]
  0001a	e8 00 00 00 00	 call	 ??0?$_Tree_iterator@V?$_Tree_val@V?$_Tmap_traits@HPAXU?$less@H@std@@V?$allocator@U?$pair@$$CBHPAX@std@@@2@$0A@@std@@@std@@@std@@QAE@PAU_Node@?$_Tree_nod@V?$_Tmap_traits@HPAXU?$less@H@std@@V?$allocator@U?$pair@$$CBHPAX@std@@@2@$0A@@std@@@1@PBV?$_Tree_val@V?$_Tmap_traits@HPAXU?$less@H@std@@V?$allocator@U?$pair@$$CBHPAX@std@@@2@$0A@@std@@@1@@Z ; std::_Tree_iterator<std::_Tree_val<std::_Tmap_traits<int,void *,std::less<int>,std::allocator<std::pair<int const ,void *> >,0> > >::_Tree_iterator<std::_Tree_val<std::_Tmap_traits<int,void *,std::less<int>,std::allocator<std::pair<int const ,void *> >,0> > >
  0001f	8b 45 08	 mov	 eax, DWORD PTR ___$ReturnUdt$[ebp]

; 818  : 		}

  00022	5f		 pop	 edi
  00023	5e		 pop	 esi
  00024	5b		 pop	 ebx
  00025	8b e5		 mov	 esp, ebp
  00027	5d		 pop	 ebp
  00028	c2 04 00	 ret	 4
?end@?$_Tree@V?$_Tmap_traits@HPAXU?$less@H@std@@V?$allocator@U?$pair@$$CBHPAX@std@@@2@$0A@@std@@@std@@QAE?AV?$_Tree_iterator@V?$_Tree_val@V?$_Tmap_traits@HPAXU?$less@H@std@@V?$allocator@U?$pair@$$CBHPAX@std@@@2@$0A@@std@@@std@@@2@XZ ENDP ; std::_Tree<std::_Tmap_traits<int,void *,std::less<int>,std::allocator<std::pair<int const ,void *> >,0> >::end
_TEXT	ENDS
PUBLIC	?_Rmost@?$_Tree@V?$_Tmap_traits@HPAXU?$less@H@std@@V?$allocator@U?$pair@$$CBHPAX@std@@@2@$0A@@std@@@std@@IBEAAPAU_Node@?$_Tree_nod@V?$_Tmap_traits@HPAXU?$less@H@std@@V?$allocator@U?$pair@$$CBHPAX@std@@@2@$0A@@std@@@2@XZ ; std::_Tree<std::_Tmap_traits<int,void *,std::less<int>,std::allocator<std::pair<int const ,void *> >,0> >::_Rmost
PUBLIC	?_Lmost@?$_Tree@V?$_Tmap_traits@HPAXU?$less@H@std@@V?$allocator@U?$pair@$$CBHPAX@std@@@2@$0A@@std@@@std@@IBEAAPAU_Node@?$_Tree_nod@V?$_Tmap_traits@HPAXU?$less@H@std@@V?$allocator@U?$pair@$$CBHPAX@std@@@2@$0A@@std@@@2@XZ ; std::_Tree<std::_Tmap_traits<int,void *,std::less<int>,std::allocator<std::pair<int const ,void *> >,0> >::_Lmost
PUBLIC	?_Erase@?$_Tree@V?$_Tmap_traits@HPAXU?$less@H@std@@V?$allocator@U?$pair@$$CBHPAX@std@@@2@$0A@@std@@@std@@IAEXPAU_Node@?$_Tree_nod@V?$_Tmap_traits@HPAXU?$less@H@std@@V?$allocator@U?$pair@$$CBHPAX@std@@@2@$0A@@std@@@2@@Z ; std::_Tree<std::_Tmap_traits<int,void *,std::less<int>,std::allocator<std::pair<int const ,void *> >,0> >::_Erase
PUBLIC	?_Root@?$_Tree@V?$_Tmap_traits@HPAXU?$less@H@std@@V?$allocator@U?$pair@$$CBHPAX@std@@@2@$0A@@std@@@std@@IBEAAPAU_Node@?$_Tree_nod@V?$_Tmap_traits@HPAXU?$less@H@std@@V?$allocator@U?$pair@$$CBHPAX@std@@@2@$0A@@std@@@2@XZ ; std::_Tree<std::_Tmap_traits<int,void *,std::less<int>,std::allocator<std::pair<int const ,void *> >,0> >::_Root
; Function compile flags: /Odtp /ZI
;	COMDAT ?clear@?$_Tree@V?$_Tmap_traits@HPAXU?$less@H@std@@V?$allocator@U?$pair@$$CBHPAX@std@@@2@$0A@@std@@@std@@QAEXXZ
_TEXT	SEGMENT
_this$ = -4						; size = 4
?clear@?$_Tree@V?$_Tmap_traits@HPAXU?$less@H@std@@V?$allocator@U?$pair@$$CBHPAX@std@@@2@$0A@@std@@@std@@QAEXXZ PROC ; std::_Tree<std::_Tmap_traits<int,void *,std::less<int>,std::allocator<std::pair<int const ,void *> >,0> >::clear, COMDAT
; _this$ = ecx

; 1410 : 		{	// erase all

  00000	55		 push	 ebp
  00001	8b ec		 mov	 ebp, esp
  00003	83 ec 44	 sub	 esp, 68			; 00000044H
  00006	53		 push	 ebx
  00007	56		 push	 esi
  00008	57		 push	 edi
  00009	89 4d fc	 mov	 DWORD PTR _this$[ebp], ecx

; 1411 :  #if _ITERATOR_DEBUG_LEVEL == 2
; 1412 : 		this->_Orphan_ptr(*this, 0);
; 1413 :  #endif /* _ITERATOR_DEBUG_LEVEL == 2 */
; 1414 : 
; 1415 : 		_Erase(_Root());

  0000c	8b 4d fc	 mov	 ecx, DWORD PTR _this$[ebp]
  0000f	e8 00 00 00 00	 call	 ?_Root@?$_Tree@V?$_Tmap_traits@HPAXU?$less@H@std@@V?$allocator@U?$pair@$$CBHPAX@std@@@2@$0A@@std@@@std@@IBEAAPAU_Node@?$_Tree_nod@V?$_Tmap_traits@HPAXU?$less@H@std@@V?$allocator@U?$pair@$$CBHPAX@std@@@2@$0A@@std@@@2@XZ ; std::_Tree<std::_Tmap_traits<int,void *,std::less<int>,std::allocator<std::pair<int const ,void *> >,0> >::_Root
  00014	8b 00		 mov	 eax, DWORD PTR [eax]
  00016	50		 push	 eax
  00017	8b 4d fc	 mov	 ecx, DWORD PTR _this$[ebp]
  0001a	e8 00 00 00 00	 call	 ?_Erase@?$_Tree@V?$_Tmap_traits@HPAXU?$less@H@std@@V?$allocator@U?$pair@$$CBHPAX@std@@@2@$0A@@std@@@std@@IAEXPAU_Node@?$_Tree_nod@V?$_Tmap_traits@HPAXU?$less@H@std@@V?$allocator@U?$pair@$$CBHPAX@std@@@2@$0A@@std@@@2@@Z ; std::_Tree<std::_Tmap_traits<int,void *,std::less<int>,std::allocator<std::pair<int const ,void *> >,0> >::_Erase

; 1416 : 		_Root() = this->_Myhead;

  0001f	8b 4d fc	 mov	 ecx, DWORD PTR _this$[ebp]
  00022	e8 00 00 00 00	 call	 ?_Root@?$_Tree@V?$_Tmap_traits@HPAXU?$less@H@std@@V?$allocator@U?$pair@$$CBHPAX@std@@@2@$0A@@std@@@std@@IBEAAPAU_Node@?$_Tree_nod@V?$_Tmap_traits@HPAXU?$less@H@std@@V?$allocator@U?$pair@$$CBHPAX@std@@@2@$0A@@std@@@2@XZ ; std::_Tree<std::_Tmap_traits<int,void *,std::less<int>,std::allocator<std::pair<int const ,void *> >,0> >::_Root
  00027	8b 4d fc	 mov	 ecx, DWORD PTR _this$[ebp]
  0002a	8b 51 04	 mov	 edx, DWORD PTR [ecx+4]
  0002d	89 10		 mov	 DWORD PTR [eax], edx

; 1417 : 		_Lmost() = this->_Myhead;

  0002f	8b 4d fc	 mov	 ecx, DWORD PTR _this$[ebp]
  00032	e8 00 00 00 00	 call	 ?_Lmost@?$_Tree@V?$_Tmap_traits@HPAXU?$less@H@std@@V?$allocator@U?$pair@$$CBHPAX@std@@@2@$0A@@std@@@std@@IBEAAPAU_Node@?$_Tree_nod@V?$_Tmap_traits@HPAXU?$less@H@std@@V?$allocator@U?$pair@$$CBHPAX@std@@@2@$0A@@std@@@2@XZ ; std::_Tree<std::_Tmap_traits<int,void *,std::less<int>,std::allocator<std::pair<int const ,void *> >,0> >::_Lmost
  00037	8b 4d fc	 mov	 ecx, DWORD PTR _this$[ebp]
  0003a	8b 51 04	 mov	 edx, DWORD PTR [ecx+4]
  0003d	89 10		 mov	 DWORD PTR [eax], edx

; 1418 : 		_Rmost() = this->_Myhead;

  0003f	8b 4d fc	 mov	 ecx, DWORD PTR _this$[ebp]
  00042	e8 00 00 00 00	 call	 ?_Rmost@?$_Tree@V?$_Tmap_traits@HPAXU?$less@H@std@@V?$allocator@U?$pair@$$CBHPAX@std@@@2@$0A@@std@@@std@@IBEAAPAU_Node@?$_Tree_nod@V?$_Tmap_traits@HPAXU?$less@H@std@@V?$allocator@U?$pair@$$CBHPAX@std@@@2@$0A@@std@@@2@XZ ; std::_Tree<std::_Tmap_traits<int,void *,std::less<int>,std::allocator<std::pair<int const ,void *> >,0> >::_Rmost
  00047	8b 4d fc	 mov	 ecx, DWORD PTR _this$[ebp]
  0004a	8b 51 04	 mov	 edx, DWORD PTR [ecx+4]
  0004d	89 10		 mov	 DWORD PTR [eax], edx

; 1419 : 		this->_Mysize = 0;

  0004f	8b 45 fc	 mov	 eax, DWORD PTR _this$[ebp]
  00052	c7 40 08 00 00
	00 00		 mov	 DWORD PTR [eax+8], 0

; 1420 : 		}

  00059	5f		 pop	 edi
  0005a	5e		 pop	 esi
  0005b	5b		 pop	 ebx
  0005c	8b e5		 mov	 esp, ebp
  0005e	5d		 pop	 ebp
  0005f	c3		 ret	 0
?clear@?$_Tree@V?$_Tmap_traits@HPAXU?$less@H@std@@V?$allocator@U?$pair@$$CBHPAX@std@@@2@$0A@@std@@@std@@QAEXXZ ENDP ; std::_Tree<std::_Tmap_traits<int,void *,std::less<int>,std::allocator<std::pair<int const ,void *> >,0> >::clear
_TEXT	ENDS
PUBLIC	??R?$less@H@std@@QBE_NABH0@Z			; std::less<int>::operator()
PUBLIC	?_Key@?$_Tree_val@V?$_Tmap_traits@HPAXU?$less@H@std@@V?$allocator@U?$pair@$$CBHPAX@std@@@2@$0A@@std@@@std@@SAAAHPAU_Node@?$_Tree_nod@V?$_Tmap_traits@HPAXU?$less@H@std@@V?$allocator@U?$pair@$$CBHPAX@std@@@2@$0A@@std@@@2@@Z ; std::_Tree_val<std::_Tmap_traits<int,void *,std::less<int>,std::allocator<std::pair<int const ,void *> >,0> >::_Key
PUBLIC	?_Mynode@?$_Tree_unchecked_const_iterator@V?$_Tree_val@V?$_Tmap_traits@HPAXU?$less@H@std@@V?$allocator@U?$pair@$$CBHPAX@std@@@2@$0A@@std@@@std@@U_Iterator_base0@2@@std@@QBEPAU_Node@?$_Tree_nod@V?$_Tmap_traits@HPAXU?$less@H@std@@V?$allocator@U?$pair@$$CBHPAX@std@@@2@$0A@@std@@@2@XZ ; std::_Tree_unchecked_const_iterator<std::_Tree_val<std::_Tmap_traits<int,void *,std::less<int>,std::allocator<std::pair<int const ,void *> >,0> >,std::_Iterator_base0>::_Mynode
PUBLIC	??8?$_Tree_const_iterator@V?$_Tree_val@V?$_Tmap_traits@HPAXU?$less@H@std@@V?$allocator@U?$pair@$$CBHPAX@std@@@2@$0A@@std@@@std@@@std@@QBE_NABV01@@Z ; std::_Tree_const_iterator<std::_Tree_val<std::_Tmap_traits<int,void *,std::less<int>,std::allocator<std::pair<int const ,void *> >,0> > >::operator==
PUBLIC	?lower_bound@?$_Tree@V?$_Tmap_traits@HPAXU?$less@H@std@@V?$allocator@U?$pair@$$CBHPAX@std@@@2@$0A@@std@@@std@@QAE?AV?$_Tree_iterator@V?$_Tree_val@V?$_Tmap_traits@HPAXU?$less@H@std@@V?$allocator@U?$pair@$$CBHPAX@std@@@2@$0A@@std@@@std@@@2@ABH@Z ; std::_Tree<std::_Tmap_traits<int,void *,std::less<int>,std::allocator<std::pair<int const ,void *> >,0> >::lower_bound
; Function compile flags: /Odtp /ZI
;	COMDAT ?find@?$_Tree@V?$_Tmap_traits@HPAXU?$less@H@std@@V?$allocator@U?$pair@$$CBHPAX@std@@@2@$0A@@std@@@std@@QAE?AV?$_Tree_iterator@V?$_Tree_val@V?$_Tmap_traits@HPAXU?$less@H@std@@V?$allocator@U?$pair@$$CBHPAX@std@@@2@$0A@@std@@@std@@@2@ABH@Z
_TEXT	SEGMENT
tv137 = -88						; size = 4
$T227328 = -84						; size = 4
$T227329 = -80						; size = 4
$T227331 = -76						; size = 4
__Where$ = -8						; size = 4
_this$ = -4						; size = 4
___$ReturnUdt$ = 8					; size = 4
__Keyval$ = 12						; size = 4
?find@?$_Tree@V?$_Tmap_traits@HPAXU?$less@H@std@@V?$allocator@U?$pair@$$CBHPAX@std@@@2@$0A@@std@@@std@@QAE?AV?$_Tree_iterator@V?$_Tree_val@V?$_Tmap_traits@HPAXU?$less@H@std@@V?$allocator@U?$pair@$$CBHPAX@std@@@2@$0A@@std@@@std@@@2@ABH@Z PROC ; std::_Tree<std::_Tmap_traits<int,void *,std::less<int>,std::allocator<std::pair<int const ,void *> >,0> >::find, COMDAT
; _this$ = ecx

; 1423 : 		{	// find an element in mutable sequence that matches _Keyval

  00000	55		 push	 ebp
  00001	8b ec		 mov	 ebp, esp
  00003	83 ec 58	 sub	 esp, 88			; 00000058H
  00006	53		 push	 ebx
  00007	56		 push	 esi
  00008	57		 push	 edi
  00009	89 4d fc	 mov	 DWORD PTR _this$[ebp], ecx

; 1424 : 		iterator _Where = lower_bound(_Keyval);

  0000c	8b 45 0c	 mov	 eax, DWORD PTR __Keyval$[ebp]
  0000f	50		 push	 eax
  00010	8d 4d f8	 lea	 ecx, DWORD PTR __Where$[ebp]
  00013	51		 push	 ecx
  00014	8b 4d fc	 mov	 ecx, DWORD PTR _this$[ebp]
  00017	e8 00 00 00 00	 call	 ?lower_bound@?$_Tree@V?$_Tmap_traits@HPAXU?$less@H@std@@V?$allocator@U?$pair@$$CBHPAX@std@@@2@$0A@@std@@@std@@QAE?AV?$_Tree_iterator@V?$_Tree_val@V?$_Tmap_traits@HPAXU?$less@H@std@@V?$allocator@U?$pair@$$CBHPAX@std@@@2@$0A@@std@@@std@@@2@ABH@Z ; std::_Tree<std::_Tmap_traits<int,void *,std::less<int>,std::allocator<std::pair<int const ,void *> >,0> >::lower_bound

; 1425 : 		return (_Where == end()
; 1426 : 			|| _DEBUG_LT_PRED(this->comp,
; 1427 : 				_Keyval, this->_Key(_Where._Mynode()))
; 1428 : 					? end() : _Where);

  0001c	8d 45 b0	 lea	 eax, DWORD PTR $T227329[ebp]
  0001f	50		 push	 eax
  00020	8b 4d fc	 mov	 ecx, DWORD PTR _this$[ebp]
  00023	e8 00 00 00 00	 call	 ?end@?$_Tree@V?$_Tmap_traits@HPAXU?$less@H@std@@V?$allocator@U?$pair@$$CBHPAX@std@@@2@$0A@@std@@@std@@QAE?AV?$_Tree_iterator@V?$_Tree_val@V?$_Tmap_traits@HPAXU?$less@H@std@@V?$allocator@U?$pair@$$CBHPAX@std@@@2@$0A@@std@@@std@@@2@XZ ; std::_Tree<std::_Tmap_traits<int,void *,std::less<int>,std::allocator<std::pair<int const ,void *> >,0> >::end
  00028	50		 push	 eax
  00029	8d 4d f8	 lea	 ecx, DWORD PTR __Where$[ebp]
  0002c	e8 00 00 00 00	 call	 ??8?$_Tree_const_iterator@V?$_Tree_val@V?$_Tmap_traits@HPAXU?$less@H@std@@V?$allocator@U?$pair@$$CBHPAX@std@@@2@$0A@@std@@@std@@@std@@QBE_NABV01@@Z ; std::_Tree_const_iterator<std::_Tree_val<std::_Tmap_traits<int,void *,std::less<int>,std::allocator<std::pair<int const ,void *> >,0> > >::operator==
  00031	0f b6 c8	 movzx	 ecx, al
  00034	85 c9		 test	 ecx, ecx
  00036	75 2d		 jne	 SHORT $LN3@find
  00038	8d 4d f8	 lea	 ecx, DWORD PTR __Where$[ebp]
  0003b	e8 00 00 00 00	 call	 ?_Mynode@?$_Tree_unchecked_const_iterator@V?$_Tree_val@V?$_Tmap_traits@HPAXU?$less@H@std@@V?$allocator@U?$pair@$$CBHPAX@std@@@2@$0A@@std@@@std@@U_Iterator_base0@2@@std@@QBEPAU_Node@?$_Tree_nod@V?$_Tmap_traits@HPAXU?$less@H@std@@V?$allocator@U?$pair@$$CBHPAX@std@@@2@$0A@@std@@@2@XZ ; std::_Tree_unchecked_const_iterator<std::_Tree_val<std::_Tmap_traits<int,void *,std::less<int>,std::allocator<std::pair<int const ,void *> >,0> >,std::_Iterator_base0>::_Mynode
  00040	50		 push	 eax
  00041	e8 00 00 00 00	 call	 ?_Key@?$_Tree_val@V?$_Tmap_traits@HPAXU?$less@H@std@@V?$allocator@U?$pair@$$CBHPAX@std@@@2@$0A@@std@@@std@@SAAAHPAU_Node@?$_Tree_nod@V?$_Tmap_traits@HPAXU?$less@H@std@@V?$allocator@U?$pair@$$CBHPAX@std@@@2@$0A@@std@@@2@@Z ; std::_Tree_val<std::_Tmap_traits<int,void *,std::less<int>,std::allocator<std::pair<int const ,void *> >,0> >::_Key
  00046	83 c4 04	 add	 esp, 4
  00049	50		 push	 eax
  0004a	8b 55 0c	 mov	 edx, DWORD PTR __Keyval$[ebp]
  0004d	52		 push	 edx
  0004e	8b 4d fc	 mov	 ecx, DWORD PTR _this$[ebp]
  00051	e8 00 00 00 00	 call	 ??R?$less@H@std@@QBE_NABH0@Z ; std::less<int>::operator()
  00056	0f b6 c0	 movzx	 eax, al
  00059	85 c0		 test	 eax, eax
  0005b	75 08		 jne	 SHORT $LN3@find
  0005d	8d 4d f8	 lea	 ecx, DWORD PTR __Where$[ebp]
  00060	89 4d a8	 mov	 DWORD PTR tv137[ebp], ecx
  00063	eb 0f		 jmp	 SHORT $LN4@find
$LN3@find:
  00065	8d 55 b4	 lea	 edx, DWORD PTR $T227331[ebp]
  00068	52		 push	 edx
  00069	8b 4d fc	 mov	 ecx, DWORD PTR _this$[ebp]
  0006c	e8 00 00 00 00	 call	 ?end@?$_Tree@V?$_Tmap_traits@HPAXU?$less@H@std@@V?$allocator@U?$pair@$$CBHPAX@std@@@2@$0A@@std@@@std@@QAE?AV?$_Tree_iterator@V?$_Tree_val@V?$_Tmap_traits@HPAXU?$less@H@std@@V?$allocator@U?$pair@$$CBHPAX@std@@@2@$0A@@std@@@std@@@2@XZ ; std::_Tree<std::_Tmap_traits<int,void *,std::less<int>,std::allocator<std::pair<int const ,void *> >,0> >::end
  00071	89 45 a8	 mov	 DWORD PTR tv137[ebp], eax
$LN4@find:
  00074	8b 45 a8	 mov	 eax, DWORD PTR tv137[ebp]
  00077	89 45 ac	 mov	 DWORD PTR $T227328[ebp], eax
  0007a	8b 4d ac	 mov	 ecx, DWORD PTR $T227328[ebp]
  0007d	8b 11		 mov	 edx, DWORD PTR [ecx]
  0007f	8b 45 08	 mov	 eax, DWORD PTR ___$ReturnUdt$[ebp]
  00082	89 10		 mov	 DWORD PTR [eax], edx
  00084	8b 45 08	 mov	 eax, DWORD PTR ___$ReturnUdt$[ebp]

; 1429 : 		}

  00087	5f		 pop	 edi
  00088	5e		 pop	 esi
  00089	5b		 pop	 ebx
  0008a	8b e5		 mov	 esp, ebp
  0008c	5d		 pop	 ebp
  0008d	c2 08 00	 ret	 8
?find@?$_Tree@V?$_Tmap_traits@HPAXU?$less@H@std@@V?$allocator@U?$pair@$$CBHPAX@std@@@2@$0A@@std@@@std@@QAE?AV?$_Tree_iterator@V?$_Tree_val@V?$_Tmap_traits@HPAXU?$less@H@std@@V?$allocator@U?$pair@$$CBHPAX@std@@@2@$0A@@std@@@std@@@2@ABH@Z ENDP ; std::_Tree<std::_Tmap_traits<int,void *,std::less<int>,std::allocator<std::pair<int const ,void *> >,0> >::find
_TEXT	ENDS
PUBLIC	??0?$_Vector_val@UEVENT_ID_ITEM_LIST@@V?$allocator@UEVENT_ID_ITEM_LIST@@@std@@@std@@QAE@V?$allocator@UEVENT_ID_ITEM_LIST@@@1@@Z ; std::_Vector_val<EVENT_ID_ITEM_LIST,std::allocator<EVENT_ID_ITEM_LIST> >::_Vector_val<EVENT_ID_ITEM_LIST,std::allocator<EVENT_ID_ITEM_LIST> >
PUBLIC	??0?$allocator@UEVENT_ID_ITEM_LIST@@@std@@QAE@XZ ; std::allocator<EVENT_ID_ITEM_LIST>::allocator<EVENT_ID_ITEM_LIST>
; Function compile flags: /Odtp /ZI
; File d:\microsoft visual studio 10.0\vc\include\vector
;	COMDAT ??0?$vector@UEVENT_ID_ITEM_LIST@@V?$allocator@UEVENT_ID_ITEM_LIST@@@std@@@std@@QAE@XZ
_TEXT	SEGMENT
$T227335 = -72						; size = 4
_this$ = -4						; size = 4
??0?$vector@UEVENT_ID_ITEM_LIST@@V?$allocator@UEVENT_ID_ITEM_LIST@@@std@@@std@@QAE@XZ PROC ; std::vector<EVENT_ID_ITEM_LIST,std::allocator<EVENT_ID_ITEM_LIST> >::vector<EVENT_ID_ITEM_LIST,std::allocator<EVENT_ID_ITEM_LIST> >, COMDAT
; _this$ = ecx

; 507  : 		{	// construct empty vector

  00000	55		 push	 ebp
  00001	8b ec		 mov	 ebp, esp
  00003	83 ec 48	 sub	 esp, 72			; 00000048H
  00006	53		 push	 ebx
  00007	56		 push	 esi
  00008	57		 push	 edi
  00009	89 4d fc	 mov	 DWORD PTR _this$[ebp], ecx
  0000c	51		 push	 ecx
  0000d	8b cc		 mov	 ecx, esp
  0000f	89 65 b8	 mov	 DWORD PTR $T227335[ebp], esp
  00012	e8 00 00 00 00	 call	 ??0?$allocator@UEVENT_ID_ITEM_LIST@@@std@@QAE@XZ ; std::allocator<EVENT_ID_ITEM_LIST>::allocator<EVENT_ID_ITEM_LIST>
  00017	8b 4d fc	 mov	 ecx, DWORD PTR _this$[ebp]
  0001a	e8 00 00 00 00	 call	 ??0?$_Vector_val@UEVENT_ID_ITEM_LIST@@V?$allocator@UEVENT_ID_ITEM_LIST@@@std@@@std@@QAE@V?$allocator@UEVENT_ID_ITEM_LIST@@@1@@Z ; std::_Vector_val<EVENT_ID_ITEM_LIST,std::allocator<EVENT_ID_ITEM_LIST> >::_Vector_val<EVENT_ID_ITEM_LIST,std::allocator<EVENT_ID_ITEM_LIST> >

; 508  : 		}

  0001f	8b 45 fc	 mov	 eax, DWORD PTR _this$[ebp]
  00022	5f		 pop	 edi
  00023	5e		 pop	 esi
  00024	5b		 pop	 ebx
  00025	8b e5		 mov	 esp, ebp
  00027	5d		 pop	 ebp
  00028	c3		 ret	 0
??0?$vector@UEVENT_ID_ITEM_LIST@@V?$allocator@UEVENT_ID_ITEM_LIST@@@std@@@std@@QAE@XZ ENDP ; std::vector<EVENT_ID_ITEM_LIST,std::allocator<EVENT_ID_ITEM_LIST> >::vector<EVENT_ID_ITEM_LIST,std::allocator<EVENT_ID_ITEM_LIST> >
_TEXT	ENDS
PUBLIC	??1?$_Vector_val@UEVENT_ID_ITEM_LIST@@V?$allocator@UEVENT_ID_ITEM_LIST@@@std@@@std@@QAE@XZ ; std::_Vector_val<EVENT_ID_ITEM_LIST,std::allocator<EVENT_ID_ITEM_LIST> >::~_Vector_val<EVENT_ID_ITEM_LIST,std::allocator<EVENT_ID_ITEM_LIST> >
PUBLIC	?_Tidy@?$vector@UEVENT_ID_ITEM_LIST@@V?$allocator@UEVENT_ID_ITEM_LIST@@@std@@@std@@IAEXXZ ; std::vector<EVENT_ID_ITEM_LIST,std::allocator<EVENT_ID_ITEM_LIST> >::_Tidy
;	COMDAT xdata$x
xdata$x	SEGMENT
__unwindtable$??1?$vector@UEVENT_ID_ITEM_LIST@@V?$allocator@UEVENT_ID_ITEM_LIST@@@std@@@std@@QAE@XZ DD 0ffffffffH
	DD	FLAT:__unwindfunclet$??1?$vector@UEVENT_ID_ITEM_LIST@@V?$allocator@UEVENT_ID_ITEM_LIST@@@std@@@std@@QAE@XZ$0
__ehfuncinfo$??1?$vector@UEVENT_ID_ITEM_LIST@@V?$allocator@UEVENT_ID_ITEM_LIST@@@std@@@std@@QAE@XZ DD 019930522H
	DD	01H
	DD	FLAT:__unwindtable$??1?$vector@UEVENT_ID_ITEM_LIST@@V?$allocator@UEVENT_ID_ITEM_LIST@@@std@@@std@@QAE@XZ
	DD	2 DUP(00H)
	DD	2 DUP(00H)
	DD	00H
	DD	01H
; Function compile flags: /Odtp /ZI
xdata$x	ENDS
;	COMDAT ??1?$vector@UEVENT_ID_ITEM_LIST@@V?$allocator@UEVENT_ID_ITEM_LIST@@@std@@@std@@QAE@XZ
_TEXT	SEGMENT
_this$ = -16						; size = 4
__$EHRec$ = -12						; size = 12
??1?$vector@UEVENT_ID_ITEM_LIST@@V?$allocator@UEVENT_ID_ITEM_LIST@@@std@@@std@@QAE@XZ PROC ; std::vector<EVENT_ID_ITEM_LIST,std::allocator<EVENT_ID_ITEM_LIST> >::~vector<EVENT_ID_ITEM_LIST,std::allocator<EVENT_ID_ITEM_LIST> >, COMDAT
; _this$ = ecx

; 704  : 		{	// destroy the object

  00000	55		 push	 ebp
  00001	8b ec		 mov	 ebp, esp
  00003	6a ff		 push	 -1
  00005	68 00 00 00 00	 push	 __ehhandler$??1?$vector@UEVENT_ID_ITEM_LIST@@V?$allocator@UEVENT_ID_ITEM_LIST@@@std@@@std@@QAE@XZ
  0000a	64 a1 00 00 00
	00		 mov	 eax, DWORD PTR fs:0
  00010	50		 push	 eax
  00011	83 ec 44	 sub	 esp, 68			; 00000044H
  00014	53		 push	 ebx
  00015	56		 push	 esi
  00016	57		 push	 edi
  00017	a1 00 00 00 00	 mov	 eax, DWORD PTR ___security_cookie
  0001c	33 c5		 xor	 eax, ebp
  0001e	50		 push	 eax
  0001f	8d 45 f4	 lea	 eax, DWORD PTR __$EHRec$[ebp]
  00022	64 a3 00 00 00
	00		 mov	 DWORD PTR fs:0, eax
  00028	89 4d f0	 mov	 DWORD PTR _this$[ebp], ecx
  0002b	c7 45 fc 00 00
	00 00		 mov	 DWORD PTR __$EHRec$[ebp+8], 0

; 705  : 		_Tidy();

  00032	8b 4d f0	 mov	 ecx, DWORD PTR _this$[ebp]
  00035	e8 00 00 00 00	 call	 ?_Tidy@?$vector@UEVENT_ID_ITEM_LIST@@V?$allocator@UEVENT_ID_ITEM_LIST@@@std@@@std@@IAEXXZ ; std::vector<EVENT_ID_ITEM_LIST,std::allocator<EVENT_ID_ITEM_LIST> >::_Tidy

; 706  : 		}

  0003a	c7 45 fc ff ff
	ff ff		 mov	 DWORD PTR __$EHRec$[ebp+8], -1
  00041	8b 4d f0	 mov	 ecx, DWORD PTR _this$[ebp]
  00044	e8 00 00 00 00	 call	 ??1?$_Vector_val@UEVENT_ID_ITEM_LIST@@V?$allocator@UEVENT_ID_ITEM_LIST@@@std@@@std@@QAE@XZ ; std::_Vector_val<EVENT_ID_ITEM_LIST,std::allocator<EVENT_ID_ITEM_LIST> >::~_Vector_val<EVENT_ID_ITEM_LIST,std::allocator<EVENT_ID_ITEM_LIST> >
  00049	8b 4d f4	 mov	 ecx, DWORD PTR __$EHRec$[ebp]
  0004c	64 89 0d 00 00
	00 00		 mov	 DWORD PTR fs:0, ecx
  00053	59		 pop	 ecx
  00054	5f		 pop	 edi
  00055	5e		 pop	 esi
  00056	5b		 pop	 ebx
  00057	8b e5		 mov	 esp, ebp
  00059	5d		 pop	 ebp
  0005a	c3		 ret	 0
_TEXT	ENDS
;	COMDAT text$x
text$x	SEGMENT
__unwindfunclet$??1?$vector@UEVENT_ID_ITEM_LIST@@V?$allocator@UEVENT_ID_ITEM_LIST@@@std@@@std@@QAE@XZ$0:
  00000	8b 4d f0	 mov	 ecx, DWORD PTR _this$[ebp]
  00003	e9 00 00 00 00	 jmp	 ??1?$_Vector_val@UEVENT_ID_ITEM_LIST@@V?$allocator@UEVENT_ID_ITEM_LIST@@@std@@@std@@QAE@XZ ; std::_Vector_val<EVENT_ID_ITEM_LIST,std::allocator<EVENT_ID_ITEM_LIST> >::~_Vector_val<EVENT_ID_ITEM_LIST,std::allocator<EVENT_ID_ITEM_LIST> >
__ehhandler$??1?$vector@UEVENT_ID_ITEM_LIST@@V?$allocator@UEVENT_ID_ITEM_LIST@@@std@@@std@@QAE@XZ:
  00008	8b 54 24 08	 mov	 edx, DWORD PTR [esp+8]
  0000c	8d 42 0c	 lea	 eax, DWORD PTR [edx+12]
  0000f	8b 4a ac	 mov	 ecx, DWORD PTR [edx-84]
  00012	33 c8		 xor	 ecx, eax
  00014	e8 00 00 00 00	 call	 @__security_check_cookie@4
  00019	b8 00 00 00 00	 mov	 eax, OFFSET __ehfuncinfo$??1?$vector@UEVENT_ID_ITEM_LIST@@V?$allocator@UEVENT_ID_ITEM_LIST@@@std@@@std@@QAE@XZ
  0001e	e9 00 00 00 00	 jmp	 ___CxxFrameHandler3
text$x	ENDS
??1?$vector@UEVENT_ID_ITEM_LIST@@V?$allocator@UEVENT_ID_ITEM_LIST@@@std@@@std@@QAE@XZ ENDP ; std::vector<EVENT_ID_ITEM_LIST,std::allocator<EVENT_ID_ITEM_LIST> >::~vector<EVENT_ID_ITEM_LIST,std::allocator<EVENT_ID_ITEM_LIST> >
PUBLIC	??0?$_Vector_iterator@V?$_Vector_val@UEVENT_ID_ITEM_LIST@@V?$allocator@UEVENT_ID_ITEM_LIST@@@std@@@std@@@std@@QAE@PAUEVENT_ID_ITEM_LIST@@PBU_Container_base0@1@@Z ; std::_Vector_iterator<std::_Vector_val<EVENT_ID_ITEM_LIST,std::allocator<EVENT_ID_ITEM_LIST> > >::_Vector_iterator<std::_Vector_val<EVENT_ID_ITEM_LIST,std::allocator<EVENT_ID_ITEM_LIST> > >
; Function compile flags: /Odtp /ZI
;	COMDAT ?begin@?$vector@UEVENT_ID_ITEM_LIST@@V?$allocator@UEVENT_ID_ITEM_LIST@@@std@@@std@@QAE?AV?$_Vector_iterator@V?$_Vector_val@UEVENT_ID_ITEM_LIST@@V?$allocator@UEVENT_ID_ITEM_LIST@@@std@@@std@@@2@XZ
_TEXT	SEGMENT
_this$ = -4						; size = 4
___$ReturnUdt$ = 8					; size = 4
?begin@?$vector@UEVENT_ID_ITEM_LIST@@V?$allocator@UEVENT_ID_ITEM_LIST@@@std@@@std@@QAE?AV?$_Vector_iterator@V?$_Vector_val@UEVENT_ID_ITEM_LIST@@V?$allocator@UEVENT_ID_ITEM_LIST@@@std@@@std@@@2@XZ PROC ; std::vector<EVENT_ID_ITEM_LIST,std::allocator<EVENT_ID_ITEM_LIST> >::begin, COMDAT
; _this$ = ecx

; 781  : 		{	// return iterator for beginning of mutable sequence

  00000	55		 push	 ebp
  00001	8b ec		 mov	 ebp, esp
  00003	83 ec 44	 sub	 esp, 68			; 00000044H
  00006	53		 push	 ebx
  00007	56		 push	 esi
  00008	57		 push	 edi
  00009	89 4d fc	 mov	 DWORD PTR _this$[ebp], ecx

; 782  : 		return (iterator(this->_Myfirst, this));

  0000c	8b 45 fc	 mov	 eax, DWORD PTR _this$[ebp]
  0000f	50		 push	 eax
  00010	8b 4d fc	 mov	 ecx, DWORD PTR _this$[ebp]
  00013	8b 11		 mov	 edx, DWORD PTR [ecx]
  00015	52		 push	 edx
  00016	8b 4d 08	 mov	 ecx, DWORD PTR ___$ReturnUdt$[ebp]
  00019	e8 00 00 00 00	 call	 ??0?$_Vector_iterator@V?$_Vector_val@UEVENT_ID_ITEM_LIST@@V?$allocator@UEVENT_ID_ITEM_LIST@@@std@@@std@@@std@@QAE@PAUEVENT_ID_ITEM_LIST@@PBU_Container_base0@1@@Z ; std::_Vector_iterator<std::_Vector_val<EVENT_ID_ITEM_LIST,std::allocator<EVENT_ID_ITEM_LIST> > >::_Vector_iterator<std::_Vector_val<EVENT_ID_ITEM_LIST,std::allocator<EVENT_ID_ITEM_LIST> > >
  0001e	8b 45 08	 mov	 eax, DWORD PTR ___$ReturnUdt$[ebp]

; 783  : 		}

  00021	5f		 pop	 edi
  00022	5e		 pop	 esi
  00023	5b		 pop	 ebx
  00024	8b e5		 mov	 esp, ebp
  00026	5d		 pop	 ebp
  00027	c2 04 00	 ret	 4
?begin@?$vector@UEVENT_ID_ITEM_LIST@@V?$allocator@UEVENT_ID_ITEM_LIST@@@std@@@std@@QAE?AV?$_Vector_iterator@V?$_Vector_val@UEVENT_ID_ITEM_LIST@@V?$allocator@UEVENT_ID_ITEM_LIST@@@std@@@std@@@2@XZ ENDP ; std::vector<EVENT_ID_ITEM_LIST,std::allocator<EVENT_ID_ITEM_LIST> >::begin
; Function compile flags: /Odtp /ZI
_TEXT	ENDS
;	COMDAT ?end@?$vector@UEVENT_ID_ITEM_LIST@@V?$allocator@UEVENT_ID_ITEM_LIST@@@std@@@std@@QAE?AV?$_Vector_iterator@V?$_Vector_val@UEVENT_ID_ITEM_LIST@@V?$allocator@UEVENT_ID_ITEM_LIST@@@std@@@std@@@2@XZ
_TEXT	SEGMENT
_this$ = -4						; size = 4
___$ReturnUdt$ = 8					; size = 4
?end@?$vector@UEVENT_ID_ITEM_LIST@@V?$allocator@UEVENT_ID_ITEM_LIST@@@std@@@std@@QAE?AV?$_Vector_iterator@V?$_Vector_val@UEVENT_ID_ITEM_LIST@@V?$allocator@UEVENT_ID_ITEM_LIST@@@std@@@std@@@2@XZ PROC ; std::vector<EVENT_ID_ITEM_LIST,std::allocator<EVENT_ID_ITEM_LIST> >::end, COMDAT
; _this$ = ecx

; 791  : 		{	// return iterator for end of mutable sequence

  00000	55		 push	 ebp
  00001	8b ec		 mov	 ebp, esp
  00003	83 ec 44	 sub	 esp, 68			; 00000044H
  00006	53		 push	 ebx
  00007	56		 push	 esi
  00008	57		 push	 edi
  00009	89 4d fc	 mov	 DWORD PTR _this$[ebp], ecx

; 792  : 		return (iterator(this->_Mylast, this));

  0000c	8b 45 fc	 mov	 eax, DWORD PTR _this$[ebp]
  0000f	50		 push	 eax
  00010	8b 4d fc	 mov	 ecx, DWORD PTR _this$[ebp]
  00013	8b 51 04	 mov	 edx, DWORD PTR [ecx+4]
  00016	52		 push	 edx
  00017	8b 4d 08	 mov	 ecx, DWORD PTR ___$ReturnUdt$[ebp]
  0001a	e8 00 00 00 00	 call	 ??0?$_Vector_iterator@V?$_Vector_val@UEVENT_ID_ITEM_LIST@@V?$allocator@UEVENT_ID_ITEM_LIST@@@std@@@std@@@std@@QAE@PAUEVENT_ID_ITEM_LIST@@PBU_Container_base0@1@@Z ; std::_Vector_iterator<std::_Vector_val<EVENT_ID_ITEM_LIST,std::allocator<EVENT_ID_ITEM_LIST> > >::_Vector_iterator<std::_Vector_val<EVENT_ID_ITEM_LIST,std::allocator<EVENT_ID_ITEM_LIST> > >
  0001f	8b 45 08	 mov	 eax, DWORD PTR ___$ReturnUdt$[ebp]

; 793  : 		}

  00022	5f		 pop	 edi
  00023	5e		 pop	 esi
  00024	5b		 pop	 ebx
  00025	8b e5		 mov	 esp, ebp
  00027	5d		 pop	 ebp
  00028	c2 04 00	 ret	 4
?end@?$vector@UEVENT_ID_ITEM_LIST@@V?$allocator@UEVENT_ID_ITEM_LIST@@@std@@@std@@QAE?AV?$_Vector_iterator@V?$_Vector_val@UEVENT_ID_ITEM_LIST@@V?$allocator@UEVENT_ID_ITEM_LIST@@@std@@@std@@@2@XZ ENDP ; std::vector<EVENT_ID_ITEM_LIST,std::allocator<EVENT_ID_ITEM_LIST> >::end
_TEXT	ENDS
PUBLIC	??$_Cons_val@V?$allocator@UEVENT_ID_ITEM_LIST@@@std@@UEVENT_ID_ITEM_LIST@@ABU3@@std@@YAXAAV?$allocator@UEVENT_ID_ITEM_LIST@@@0@PAUEVENT_ID_ITEM_LIST@@ABU2@@Z ; std::_Cons_val<std::allocator<EVENT_ID_ITEM_LIST>,EVENT_ID_ITEM_LIST,EVENT_ID_ITEM_LIST const &>
PUBLIC	??$_Cons_val@V?$allocator@UEVENT_ID_ITEM_LIST@@@std@@UEVENT_ID_ITEM_LIST@@AAU3@@std@@YAXAAV?$allocator@UEVENT_ID_ITEM_LIST@@@0@PAUEVENT_ID_ITEM_LIST@@AAU2@@Z ; std::_Cons_val<std::allocator<EVENT_ID_ITEM_LIST>,EVENT_ID_ITEM_LIST,EVENT_ID_ITEM_LIST &>
PUBLIC	?_Orphan_range@?$vector@UEVENT_ID_ITEM_LIST@@V?$allocator@UEVENT_ID_ITEM_LIST@@@std@@@std@@IBEXPAUEVENT_ID_ITEM_LIST@@0@Z ; std::vector<EVENT_ID_ITEM_LIST,std::allocator<EVENT_ID_ITEM_LIST> >::_Orphan_range
PUBLIC	?_Reserve@?$vector@UEVENT_ID_ITEM_LIST@@V?$allocator@UEVENT_ID_ITEM_LIST@@@std@@@std@@IAEXI@Z ; std::vector<EVENT_ID_ITEM_LIST,std::allocator<EVENT_ID_ITEM_LIST> >::_Reserve
PUBLIC	?_Inside@?$vector@UEVENT_ID_ITEM_LIST@@V?$allocator@UEVENT_ID_ITEM_LIST@@@std@@@std@@IBE_NPBUEVENT_ID_ITEM_LIST@@@Z ; std::vector<EVENT_ID_ITEM_LIST,std::allocator<EVENT_ID_ITEM_LIST> >::_Inside
PUBLIC	??$addressof@$$CBUEVENT_ID_ITEM_LIST@@@std@@YAPBUEVENT_ID_ITEM_LIST@@ABU1@@Z ; std::addressof<EVENT_ID_ITEM_LIST const >
; Function compile flags: /Odtp /ZI
;	COMDAT ?push_back@?$vector@UEVENT_ID_ITEM_LIST@@V?$allocator@UEVENT_ID_ITEM_LIST@@@std@@@std@@QAEXABUEVENT_ID_ITEM_LIST@@@Z
_TEXT	SEGMENT
__Idx$224903 = -8					; size = 4
_this$ = -4						; size = 4
__Val$ = 8						; size = 4
?push_back@?$vector@UEVENT_ID_ITEM_LIST@@V?$allocator@UEVENT_ID_ITEM_LIST@@@std@@@std@@QAEXABUEVENT_ID_ITEM_LIST@@@Z PROC ; std::vector<EVENT_ID_ITEM_LIST,std::allocator<EVENT_ID_ITEM_LIST> >::push_back, COMDAT
; _this$ = ecx

; 976  : 		{	// insert element at end

  00000	55		 push	 ebp
  00001	8b ec		 mov	 ebp, esp
  00003	83 ec 48	 sub	 esp, 72			; 00000048H
  00006	53		 push	 ebx
  00007	56		 push	 esi
  00008	57		 push	 edi
  00009	89 4d fc	 mov	 DWORD PTR _this$[ebp], ecx

; 977  : 		if (_Inside(_STD addressof(_Val)))

  0000c	8b 45 08	 mov	 eax, DWORD PTR __Val$[ebp]
  0000f	50		 push	 eax
  00010	e8 00 00 00 00	 call	 ??$addressof@$$CBUEVENT_ID_ITEM_LIST@@@std@@YAPBUEVENT_ID_ITEM_LIST@@ABU1@@Z ; std::addressof<EVENT_ID_ITEM_LIST const >
  00015	83 c4 04	 add	 esp, 4
  00018	50		 push	 eax
  00019	8b 4d fc	 mov	 ecx, DWORD PTR _this$[ebp]
  0001c	e8 00 00 00 00	 call	 ?_Inside@?$vector@UEVENT_ID_ITEM_LIST@@V?$allocator@UEVENT_ID_ITEM_LIST@@@std@@@std@@IBE_NPBUEVENT_ID_ITEM_LIST@@@Z ; std::vector<EVENT_ID_ITEM_LIST,std::allocator<EVENT_ID_ITEM_LIST> >::_Inside
  00021	0f b6 c8	 movzx	 ecx, al
  00024	85 c9		 test	 ecx, ecx
  00026	74 7d		 je	 SHORT $LN4@push_back@2

; 978  : 			{	// push back an element
; 979  : 			size_type _Idx = _STD addressof(_Val) - this->_Myfirst;

  00028	8b 45 08	 mov	 eax, DWORD PTR __Val$[ebp]
  0002b	50		 push	 eax
  0002c	e8 00 00 00 00	 call	 ??$addressof@$$CBUEVENT_ID_ITEM_LIST@@@std@@YAPBUEVENT_ID_ITEM_LIST@@ABU1@@Z ; std::addressof<EVENT_ID_ITEM_LIST const >
  00031	83 c4 04	 add	 esp, 4
  00034	8b 4d fc	 mov	 ecx, DWORD PTR _this$[ebp]
  00037	2b 01		 sub	 eax, DWORD PTR [ecx]
  00039	99		 cdq
  0003a	b9 05 00 00 00	 mov	 ecx, 5
  0003f	f7 f9		 idiv	 ecx
  00041	89 45 f8	 mov	 DWORD PTR __Idx$224903[ebp], eax

; 980  : 			if (this->_Mylast == this->_Myend)

  00044	8b 45 fc	 mov	 eax, DWORD PTR _this$[ebp]
  00047	8b 4d fc	 mov	 ecx, DWORD PTR _this$[ebp]
  0004a	8b 50 04	 mov	 edx, DWORD PTR [eax+4]
  0004d	3b 51 08	 cmp	 edx, DWORD PTR [ecx+8]
  00050	75 0a		 jne	 SHORT $LN3@push_back@2

; 981  : 				_Reserve(1);

  00052	6a 01		 push	 1
  00054	8b 4d fc	 mov	 ecx, DWORD PTR _this$[ebp]
  00057	e8 00 00 00 00	 call	 ?_Reserve@?$vector@UEVENT_ID_ITEM_LIST@@V?$allocator@UEVENT_ID_ITEM_LIST@@@std@@@std@@IAEXI@Z ; std::vector<EVENT_ID_ITEM_LIST,std::allocator<EVENT_ID_ITEM_LIST> >::_Reserve
$LN3@push_back@2:

; 982  : 			_Orphan_range(this->_Mylast, this->_Mylast);

  0005c	8b 45 fc	 mov	 eax, DWORD PTR _this$[ebp]
  0005f	8b 48 04	 mov	 ecx, DWORD PTR [eax+4]
  00062	51		 push	 ecx
  00063	8b 55 fc	 mov	 edx, DWORD PTR _this$[ebp]
  00066	8b 42 04	 mov	 eax, DWORD PTR [edx+4]
  00069	50		 push	 eax
  0006a	8b 4d fc	 mov	 ecx, DWORD PTR _this$[ebp]
  0006d	e8 00 00 00 00	 call	 ?_Orphan_range@?$vector@UEVENT_ID_ITEM_LIST@@V?$allocator@UEVENT_ID_ITEM_LIST@@@std@@@std@@IBEXPAUEVENT_ID_ITEM_LIST@@0@Z ; std::vector<EVENT_ID_ITEM_LIST,std::allocator<EVENT_ID_ITEM_LIST> >::_Orphan_range

; 983  : 			_Cons_val(this->_Alval,
; 984  : 				this->_Mylast,
; 985  : 				this->_Myfirst[_Idx]);

  00072	8b 45 f8	 mov	 eax, DWORD PTR __Idx$224903[ebp]
  00075	6b c0 05	 imul	 eax, 5
  00078	8b 4d fc	 mov	 ecx, DWORD PTR _this$[ebp]
  0007b	03 01		 add	 eax, DWORD PTR [ecx]
  0007d	50		 push	 eax
  0007e	8b 55 fc	 mov	 edx, DWORD PTR _this$[ebp]
  00081	8b 42 04	 mov	 eax, DWORD PTR [edx+4]
  00084	50		 push	 eax
  00085	8b 4d fc	 mov	 ecx, DWORD PTR _this$[ebp]
  00088	83 c1 0c	 add	 ecx, 12			; 0000000cH
  0008b	51		 push	 ecx
  0008c	e8 00 00 00 00	 call	 ??$_Cons_val@V?$allocator@UEVENT_ID_ITEM_LIST@@@std@@UEVENT_ID_ITEM_LIST@@AAU3@@std@@YAXAAV?$allocator@UEVENT_ID_ITEM_LIST@@@0@PAUEVENT_ID_ITEM_LIST@@AAU2@@Z ; std::_Cons_val<std::allocator<EVENT_ID_ITEM_LIST>,EVENT_ID_ITEM_LIST,EVENT_ID_ITEM_LIST &>
  00091	83 c4 0c	 add	 esp, 12			; 0000000cH

; 986  : 			++this->_Mylast;

  00094	8b 45 fc	 mov	 eax, DWORD PTR _this$[ebp]
  00097	8b 48 04	 mov	 ecx, DWORD PTR [eax+4]
  0009a	83 c1 05	 add	 ecx, 5
  0009d	8b 55 fc	 mov	 edx, DWORD PTR _this$[ebp]
  000a0	89 4a 04	 mov	 DWORD PTR [edx+4], ecx

; 987  : 			}
; 988  : 		else

  000a3	eb 57		 jmp	 SHORT $LN5@push_back@2
$LN4@push_back@2:

; 989  : 			{	// push back a non-element
; 990  : 			if (this->_Mylast == this->_Myend)

  000a5	8b 45 fc	 mov	 eax, DWORD PTR _this$[ebp]
  000a8	8b 4d fc	 mov	 ecx, DWORD PTR _this$[ebp]
  000ab	8b 50 04	 mov	 edx, DWORD PTR [eax+4]
  000ae	3b 51 08	 cmp	 edx, DWORD PTR [ecx+8]
  000b1	75 0a		 jne	 SHORT $LN1@push_back@2

; 991  : 				_Reserve(1);

  000b3	6a 01		 push	 1
  000b5	8b 4d fc	 mov	 ecx, DWORD PTR _this$[ebp]
  000b8	e8 00 00 00 00	 call	 ?_Reserve@?$vector@UEVENT_ID_ITEM_LIST@@V?$allocator@UEVENT_ID_ITEM_LIST@@@std@@@std@@IAEXI@Z ; std::vector<EVENT_ID_ITEM_LIST,std::allocator<EVENT_ID_ITEM_LIST> >::_Reserve
$LN1@push_back@2:

; 992  : 			_Orphan_range(this->_Mylast, this->_Mylast);

  000bd	8b 45 fc	 mov	 eax, DWORD PTR _this$[ebp]
  000c0	8b 48 04	 mov	 ecx, DWORD PTR [eax+4]
  000c3	51		 push	 ecx
  000c4	8b 55 fc	 mov	 edx, DWORD PTR _this$[ebp]
  000c7	8b 42 04	 mov	 eax, DWORD PTR [edx+4]
  000ca	50		 push	 eax
  000cb	8b 4d fc	 mov	 ecx, DWORD PTR _this$[ebp]
  000ce	e8 00 00 00 00	 call	 ?_Orphan_range@?$vector@UEVENT_ID_ITEM_LIST@@V?$allocator@UEVENT_ID_ITEM_LIST@@@std@@@std@@IBEXPAUEVENT_ID_ITEM_LIST@@0@Z ; std::vector<EVENT_ID_ITEM_LIST,std::allocator<EVENT_ID_ITEM_LIST> >::_Orphan_range

; 993  : 			_Cons_val(this->_Alval,
; 994  : 				this->_Mylast,
; 995  : 				_Val);

  000d3	8b 45 08	 mov	 eax, DWORD PTR __Val$[ebp]
  000d6	50		 push	 eax
  000d7	8b 4d fc	 mov	 ecx, DWORD PTR _this$[ebp]
  000da	8b 51 04	 mov	 edx, DWORD PTR [ecx+4]
  000dd	52		 push	 edx
  000de	8b 45 fc	 mov	 eax, DWORD PTR _this$[ebp]
  000e1	83 c0 0c	 add	 eax, 12			; 0000000cH
  000e4	50		 push	 eax
  000e5	e8 00 00 00 00	 call	 ??$_Cons_val@V?$allocator@UEVENT_ID_ITEM_LIST@@@std@@UEVENT_ID_ITEM_LIST@@ABU3@@std@@YAXAAV?$allocator@UEVENT_ID_ITEM_LIST@@@0@PAUEVENT_ID_ITEM_LIST@@ABU2@@Z ; std::_Cons_val<std::allocator<EVENT_ID_ITEM_LIST>,EVENT_ID_ITEM_LIST,EVENT_ID_ITEM_LIST const &>
  000ea	83 c4 0c	 add	 esp, 12			; 0000000cH

; 996  : 			++this->_Mylast;

  000ed	8b 45 fc	 mov	 eax, DWORD PTR _this$[ebp]
  000f0	8b 48 04	 mov	 ecx, DWORD PTR [eax+4]
  000f3	83 c1 05	 add	 ecx, 5
  000f6	8b 55 fc	 mov	 edx, DWORD PTR _this$[ebp]
  000f9	89 4a 04	 mov	 DWORD PTR [edx+4], ecx
$LN5@push_back@2:

; 997  : 			}
; 998  : 		}

  000fc	5f		 pop	 edi
  000fd	5e		 pop	 esi
  000fe	5b		 pop	 ebx
  000ff	8b e5		 mov	 esp, ebp
  00101	5d		 pop	 ebp
  00102	c2 04 00	 ret	 4
?push_back@?$vector@UEVENT_ID_ITEM_LIST@@V?$allocator@UEVENT_ID_ITEM_LIST@@@std@@@std@@QAEXABUEVENT_ID_ITEM_LIST@@@Z ENDP ; std::vector<EVENT_ID_ITEM_LIST,std::allocator<EVENT_ID_ITEM_LIST> >::push_back
_TEXT	ENDS
PUBLIC	?erase@?$vector@UEVENT_ID_ITEM_LIST@@V?$allocator@UEVENT_ID_ITEM_LIST@@@std@@@std@@QAE?AV?$_Vector_iterator@V?$_Vector_val@UEVENT_ID_ITEM_LIST@@V?$allocator@UEVENT_ID_ITEM_LIST@@@std@@@std@@@2@V?$_Vector_const_iterator@V?$_Vector_val@UEVENT_ID_ITEM_LIST@@V?$allocator@UEVENT_ID_ITEM_LIST@@@std@@@std@@@2@0@Z ; std::vector<EVENT_ID_ITEM_LIST,std::allocator<EVENT_ID_ITEM_LIST> >::erase
; Function compile flags: /Odtp /ZI
;	COMDAT ?clear@?$vector@UEVENT_ID_ITEM_LIST@@V?$allocator@UEVENT_ID_ITEM_LIST@@@std@@@std@@QAEXXZ
_TEXT	SEGMENT
$T227354 = -88						; size = 4
$T227355 = -84						; size = 4
$T227356 = -80						; size = 4
$T227357 = -76						; size = 4
$T227358 = -72						; size = 4
_this$ = -4						; size = 4
?clear@?$vector@UEVENT_ID_ITEM_LIST@@V?$allocator@UEVENT_ID_ITEM_LIST@@@std@@@std@@QAEXXZ PROC ; std::vector<EVENT_ID_ITEM_LIST,std::allocator<EVENT_ID_ITEM_LIST> >::clear, COMDAT
; _this$ = ecx

; 1217 : 		{	// erase all

  00000	55		 push	 ebp
  00001	8b ec		 mov	 ebp, esp
  00003	83 ec 58	 sub	 esp, 88			; 00000058H
  00006	53		 push	 ebx
  00007	56		 push	 esi
  00008	57		 push	 edi
  00009	89 4d fc	 mov	 DWORD PTR _this$[ebp], ecx

; 1218 : 		erase(begin(), end());

  0000c	8d 45 ac	 lea	 eax, DWORD PTR $T227355[ebp]
  0000f	50		 push	 eax
  00010	8b 4d fc	 mov	 ecx, DWORD PTR _this$[ebp]
  00013	e8 00 00 00 00	 call	 ?end@?$vector@UEVENT_ID_ITEM_LIST@@V?$allocator@UEVENT_ID_ITEM_LIST@@@std@@@std@@QAE?AV?$_Vector_iterator@V?$_Vector_val@UEVENT_ID_ITEM_LIST@@V?$allocator@UEVENT_ID_ITEM_LIST@@@std@@@std@@@2@XZ ; std::vector<EVENT_ID_ITEM_LIST,std::allocator<EVENT_ID_ITEM_LIST> >::end
  00018	8b 08		 mov	 ecx, DWORD PTR [eax]
  0001a	89 4d a8	 mov	 DWORD PTR $T227354[ebp], ecx
  0001d	8d 55 b4	 lea	 edx, DWORD PTR $T227357[ebp]
  00020	52		 push	 edx
  00021	8b 4d fc	 mov	 ecx, DWORD PTR _this$[ebp]
  00024	e8 00 00 00 00	 call	 ?begin@?$vector@UEVENT_ID_ITEM_LIST@@V?$allocator@UEVENT_ID_ITEM_LIST@@@std@@@std@@QAE?AV?$_Vector_iterator@V?$_Vector_val@UEVENT_ID_ITEM_LIST@@V?$allocator@UEVENT_ID_ITEM_LIST@@@std@@@std@@@2@XZ ; std::vector<EVENT_ID_ITEM_LIST,std::allocator<EVENT_ID_ITEM_LIST> >::begin
  00029	8b 00		 mov	 eax, DWORD PTR [eax]
  0002b	89 45 b0	 mov	 DWORD PTR $T227356[ebp], eax
  0002e	8b 4d a8	 mov	 ecx, DWORD PTR $T227354[ebp]
  00031	51		 push	 ecx
  00032	8b 55 b0	 mov	 edx, DWORD PTR $T227356[ebp]
  00035	52		 push	 edx
  00036	8d 45 b8	 lea	 eax, DWORD PTR $T227358[ebp]
  00039	50		 push	 eax
  0003a	8b 4d fc	 mov	 ecx, DWORD PTR _this$[ebp]
  0003d	e8 00 00 00 00	 call	 ?erase@?$vector@UEVENT_ID_ITEM_LIST@@V?$allocator@UEVENT_ID_ITEM_LIST@@@std@@@std@@QAE?AV?$_Vector_iterator@V?$_Vector_val@UEVENT_ID_ITEM_LIST@@V?$allocator@UEVENT_ID_ITEM_LIST@@@std@@@std@@@2@V?$_Vector_const_iterator@V?$_Vector_val@UEVENT_ID_ITEM_LIST@@V?$allocator@UEVENT_ID_ITEM_LIST@@@std@@@std@@@2@0@Z ; std::vector<EVENT_ID_ITEM_LIST,std::allocator<EVENT_ID_ITEM_LIST> >::erase

; 1219 : 		}

  00042	5f		 pop	 edi
  00043	5e		 pop	 esi
  00044	5b		 pop	 ebx
  00045	8b e5		 mov	 esp, ebp
  00047	5d		 pop	 ebp
  00048	c3		 ret	 0
?clear@?$vector@UEVENT_ID_ITEM_LIST@@V?$allocator@UEVENT_ID_ITEM_LIST@@@std@@@std@@QAEXXZ ENDP ; std::vector<EVENT_ID_ITEM_LIST,std::allocator<EVENT_ID_ITEM_LIST> >::clear
_TEXT	ENDS
PUBLIC	??0?$_Tree_const_iterator@V?$_Tree_val@V?$_Tmap_traits@HPAXU?$less@H@std@@V?$allocator@U?$pair@$$CBHPAX@std@@@2@$0A@@std@@@std@@@std@@QAE@XZ ; std::_Tree_const_iterator<std::_Tree_val<std::_Tmap_traits<int,void *,std::less<int>,std::allocator<std::pair<int const ,void *> >,0> > >::_Tree_const_iterator<std::_Tree_val<std::_Tmap_traits<int,void *,std::less<int>,std::allocator<std::pair<int const ,void *> >,0> > >
; Function compile flags: /Odtp /ZI
; File d:\microsoft visual studio 10.0\vc\include\xtree
;	COMDAT ??0?$_Tree_iterator@V?$_Tree_val@V?$_Tmap_traits@HPAXU?$less@H@std@@V?$allocator@U?$pair@$$CBHPAX@std@@@2@$0A@@std@@@std@@@std@@QAE@XZ
_TEXT	SEGMENT
_this$ = -4						; size = 4
??0?$_Tree_iterator@V?$_Tree_val@V?$_Tmap_traits@HPAXU?$less@H@std@@V?$allocator@U?$pair@$$CBHPAX@std@@@2@$0A@@std@@@std@@@std@@QAE@XZ PROC ; std::_Tree_iterator<std::_Tree_val<std::_Tmap_traits<int,void *,std::less<int>,std::allocator<std::pair<int const ,void *> >,0> > >::_Tree_iterator<std::_Tree_val<std::_Tmap_traits<int,void *,std::less<int>,std::allocator<std::pair<int const ,void *> >,0> > >, COMDAT
; _this$ = ecx

; 372  : 	_Tree_iterator()

  00000	55		 push	 ebp
  00001	8b ec		 mov	 ebp, esp
  00003	83 ec 44	 sub	 esp, 68			; 00000044H
  00006	53		 push	 ebx
  00007	56		 push	 esi
  00008	57		 push	 edi
  00009	89 4d fc	 mov	 DWORD PTR _this$[ebp], ecx
  0000c	8b 4d fc	 mov	 ecx, DWORD PTR _this$[ebp]
  0000f	e8 00 00 00 00	 call	 ??0?$_Tree_const_iterator@V?$_Tree_val@V?$_Tmap_traits@HPAXU?$less@H@std@@V?$allocator@U?$pair@$$CBHPAX@std@@@2@$0A@@std@@@std@@@std@@QAE@XZ ; std::_Tree_const_iterator<std::_Tree_val<std::_Tmap_traits<int,void *,std::less<int>,std::allocator<std::pair<int const ,void *> >,0> > >::_Tree_const_iterator<std::_Tree_val<std::_Tmap_traits<int,void *,std::less<int>,std::allocator<std::pair<int const ,void *> >,0> > >

; 373  : 		{	// construct with null node
; 374  : 		}

  00014	8b 45 fc	 mov	 eax, DWORD PTR _this$[ebp]
  00017	5f		 pop	 edi
  00018	5e		 pop	 esi
  00019	5b		 pop	 ebx
  0001a	8b e5		 mov	 esp, ebp
  0001c	5d		 pop	 ebp
  0001d	c3		 ret	 0
??0?$_Tree_iterator@V?$_Tree_val@V?$_Tmap_traits@HPAXU?$less@H@std@@V?$allocator@U?$pair@$$CBHPAX@std@@@2@$0A@@std@@@std@@@std@@QAE@XZ ENDP ; std::_Tree_iterator<std::_Tree_val<std::_Tmap_traits<int,void *,std::less<int>,std::allocator<std::pair<int const ,void *> >,0> > >::_Tree_iterator<std::_Tree_val<std::_Tmap_traits<int,void *,std::less<int>,std::allocator<std::pair<int const ,void *> >,0> > >
_TEXT	ENDS
PUBLIC	??D?$_Tree_iterator@V?$_Tree_val@V?$_Tmap_traits@HPAXU?$less@H@std@@V?$allocator@U?$pair@$$CBHPAX@std@@@2@$0A@@std@@@std@@@std@@QBEAAU?$pair@$$CBHPAX@1@XZ ; std::_Tree_iterator<std::_Tree_val<std::_Tmap_traits<int,void *,std::less<int>,std::allocator<std::pair<int const ,void *> >,0> > >::operator*
; Function compile flags: /Odtp /ZI
;	COMDAT ??C?$_Tree_iterator@V?$_Tree_val@V?$_Tmap_traits@HPAXU?$less@H@std@@V?$allocator@U?$pair@$$CBHPAX@std@@@2@$0A@@std@@@std@@@std@@QBEPAU?$pair@$$CBHPAX@1@XZ
_TEXT	SEGMENT
_this$ = -4						; size = 4
??C?$_Tree_iterator@V?$_Tree_val@V?$_Tmap_traits@HPAXU?$less@H@std@@V?$allocator@U?$pair@$$CBHPAX@std@@@2@$0A@@std@@@std@@@std@@QBEPAU?$pair@$$CBHPAX@1@XZ PROC ; std::_Tree_iterator<std::_Tree_val<std::_Tmap_traits<int,void *,std::less<int>,std::allocator<std::pair<int const ,void *> >,0> > >::operator->, COMDAT
; _this$ = ecx

; 400  : 		{	// return pointer to class object

  00000	55		 push	 ebp
  00001	8b ec		 mov	 ebp, esp
  00003	83 ec 44	 sub	 esp, 68			; 00000044H
  00006	53		 push	 ebx
  00007	56		 push	 esi
  00008	57		 push	 edi
  00009	89 4d fc	 mov	 DWORD PTR _this$[ebp], ecx

; 401  : 		return (&**this);

  0000c	8b 4d fc	 mov	 ecx, DWORD PTR _this$[ebp]
  0000f	e8 00 00 00 00	 call	 ??D?$_Tree_iterator@V?$_Tree_val@V?$_Tmap_traits@HPAXU?$less@H@std@@V?$allocator@U?$pair@$$CBHPAX@std@@@2@$0A@@std@@@std@@@std@@QBEAAU?$pair@$$CBHPAX@1@XZ ; std::_Tree_iterator<std::_Tree_val<std::_Tmap_traits<int,void *,std::less<int>,std::allocator<std::pair<int const ,void *> >,0> > >::operator*

; 402  : 		}

  00014	5f		 pop	 edi
  00015	5e		 pop	 esi
  00016	5b		 pop	 ebx
  00017	8b e5		 mov	 esp, ebp
  00019	5d		 pop	 ebp
  0001a	c3		 ret	 0
??C?$_Tree_iterator@V?$_Tree_val@V?$_Tmap_traits@HPAXU?$less@H@std@@V?$allocator@U?$pair@$$CBHPAX@std@@@2@$0A@@std@@@std@@@std@@QBEPAU?$pair@$$CBHPAX@1@XZ ENDP ; std::_Tree_iterator<std::_Tree_val<std::_Tmap_traits<int,void *,std::less<int>,std::allocator<std::pair<int const ,void *> >,0> > >::operator->
; Function compile flags: /Odtp /ZI
_TEXT	ENDS
;	COMDAT ??9?$_Tree_const_iterator@V?$_Tree_val@V?$_Tmap_traits@HPAXU?$less@H@std@@V?$allocator@U?$pair@$$CBHPAX@std@@@2@$0A@@std@@@std@@@std@@QBE_NABV01@@Z
_TEXT	SEGMENT
_this$ = -4						; size = 4
__Right$ = 8						; size = 4
??9?$_Tree_const_iterator@V?$_Tree_val@V?$_Tmap_traits@HPAXU?$less@H@std@@V?$allocator@U?$pair@$$CBHPAX@std@@@2@$0A@@std@@@std@@@std@@QBE_NABV01@@Z PROC ; std::_Tree_const_iterator<std::_Tree_val<std::_Tmap_traits<int,void *,std::less<int>,std::allocator<std::pair<int const ,void *> >,0> > >::operator!=, COMDAT
; _this$ = ecx

; 334  : 		{	// test for iterator inequality

  00000	55		 push	 ebp
  00001	8b ec		 mov	 ebp, esp
  00003	83 ec 44	 sub	 esp, 68			; 00000044H
  00006	53		 push	 ebx
  00007	56		 push	 esi
  00008	57		 push	 edi
  00009	89 4d fc	 mov	 DWORD PTR _this$[ebp], ecx

; 335  : 		return (!(*this == _Right));

  0000c	8b 45 08	 mov	 eax, DWORD PTR __Right$[ebp]
  0000f	50		 push	 eax
  00010	8b 4d fc	 mov	 ecx, DWORD PTR _this$[ebp]
  00013	e8 00 00 00 00	 call	 ??8?$_Tree_const_iterator@V?$_Tree_val@V?$_Tmap_traits@HPAXU?$less@H@std@@V?$allocator@U?$pair@$$CBHPAX@std@@@2@$0A@@std@@@std@@@std@@QBE_NABV01@@Z ; std::_Tree_const_iterator<std::_Tree_val<std::_Tmap_traits<int,void *,std::less<int>,std::allocator<std::pair<int const ,void *> >,0> > >::operator==
  00018	0f b6 c0	 movzx	 eax, al
  0001b	f7 d8		 neg	 eax
  0001d	1b c0		 sbb	 eax, eax
  0001f	83 c0 01	 add	 eax, 1

; 336  : 		}

  00022	5f		 pop	 edi
  00023	5e		 pop	 esi
  00024	5b		 pop	 ebx
  00025	8b e5		 mov	 esp, ebp
  00027	5d		 pop	 ebp
  00028	c2 04 00	 ret	 4
??9?$_Tree_const_iterator@V?$_Tree_val@V?$_Tmap_traits@HPAXU?$less@H@std@@V?$allocator@U?$pair@$$CBHPAX@std@@@2@$0A@@std@@@std@@@std@@QBE_NABV01@@Z ENDP ; std::_Tree_const_iterator<std::_Tree_val<std::_Tmap_traits<int,void *,std::less<int>,std::allocator<std::pair<int const ,void *> >,0> > >::operator!=
_TEXT	ENDS
PUBLIC	??0?$_Vector_const_iterator@V?$_Vector_val@UEVENT_ID_TIME@@V?$allocator@UEVENT_ID_TIME@@@std@@@std@@@std@@QAE@XZ ; std::_Vector_const_iterator<std::_Vector_val<EVENT_ID_TIME,std::allocator<EVENT_ID_TIME> > >::_Vector_const_iterator<std::_Vector_val<EVENT_ID_TIME,std::allocator<EVENT_ID_TIME> > >
; Function compile flags: /Odtp /ZI
; File d:\microsoft visual studio 10.0\vc\include\vector
;	COMDAT ??0?$_Vector_iterator@V?$_Vector_val@UEVENT_ID_TIME@@V?$allocator@UEVENT_ID_TIME@@@std@@@std@@@std@@QAE@XZ
_TEXT	SEGMENT
_this$ = -4						; size = 4
??0?$_Vector_iterator@V?$_Vector_val@UEVENT_ID_TIME@@V?$allocator@UEVENT_ID_TIME@@@std@@@std@@@std@@QAE@XZ PROC ; std::_Vector_iterator<std::_Vector_val<EVENT_ID_TIME,std::allocator<EVENT_ID_TIME> > >::_Vector_iterator<std::_Vector_val<EVENT_ID_TIME,std::allocator<EVENT_ID_TIME> > >, COMDAT
; _this$ = ecx

; 298  : 	_Vector_iterator()

  00000	55		 push	 ebp
  00001	8b ec		 mov	 ebp, esp
  00003	83 ec 44	 sub	 esp, 68			; 00000044H
  00006	53		 push	 ebx
  00007	56		 push	 esi
  00008	57		 push	 edi
  00009	89 4d fc	 mov	 DWORD PTR _this$[ebp], ecx
  0000c	8b 4d fc	 mov	 ecx, DWORD PTR _this$[ebp]
  0000f	e8 00 00 00 00	 call	 ??0?$_Vector_const_iterator@V?$_Vector_val@UEVENT_ID_TIME@@V?$allocator@UEVENT_ID_TIME@@@std@@@std@@@std@@QAE@XZ ; std::_Vector_const_iterator<std::_Vector_val<EVENT_ID_TIME,std::allocator<EVENT_ID_TIME> > >::_Vector_const_iterator<std::_Vector_val<EVENT_ID_TIME,std::allocator<EVENT_ID_TIME> > >

; 299  : 		{	// construct with null vector pointer
; 300  : 		}

  00014	8b 45 fc	 mov	 eax, DWORD PTR _this$[ebp]
  00017	5f		 pop	 edi
  00018	5e		 pop	 esi
  00019	5b		 pop	 ebx
  0001a	8b e5		 mov	 esp, ebp
  0001c	5d		 pop	 ebp
  0001d	c3		 ret	 0
??0?$_Vector_iterator@V?$_Vector_val@UEVENT_ID_TIME@@V?$allocator@UEVENT_ID_TIME@@@std@@@std@@@std@@QAE@XZ ENDP ; std::_Vector_iterator<std::_Vector_val<EVENT_ID_TIME,std::allocator<EVENT_ID_TIME> > >::_Vector_iterator<std::_Vector_val<EVENT_ID_TIME,std::allocator<EVENT_ID_TIME> > >
_TEXT	ENDS
PUBLIC	??D?$_Vector_const_iterator@V?$_Vector_val@UEVENT_ID_TIME@@V?$allocator@UEVENT_ID_TIME@@@std@@@std@@@std@@QBEABUEVENT_ID_TIME@@XZ ; std::_Vector_const_iterator<std::_Vector_val<EVENT_ID_TIME,std::allocator<EVENT_ID_TIME> > >::operator*
; Function compile flags: /Odtp /ZI
;	COMDAT ??D?$_Vector_iterator@V?$_Vector_val@UEVENT_ID_TIME@@V?$allocator@UEVENT_ID_TIME@@@std@@@std@@@std@@QBEAAUEVENT_ID_TIME@@XZ
_TEXT	SEGMENT
_this$ = -4						; size = 4
??D?$_Vector_iterator@V?$_Vector_val@UEVENT_ID_TIME@@V?$allocator@UEVENT_ID_TIME@@@std@@@std@@@std@@QBEAAUEVENT_ID_TIME@@XZ PROC ; std::_Vector_iterator<std::_Vector_val<EVENT_ID_TIME,std::allocator<EVENT_ID_TIME> > >::operator*, COMDAT
; _this$ = ecx

; 321  : 		{	// return designated object

  00000	55		 push	 ebp
  00001	8b ec		 mov	 ebp, esp
  00003	83 ec 44	 sub	 esp, 68			; 00000044H
  00006	53		 push	 ebx
  00007	56		 push	 esi
  00008	57		 push	 edi
  00009	89 4d fc	 mov	 DWORD PTR _this$[ebp], ecx

; 322  : 		return ((reference)**(_Mybase *)this);

  0000c	8b 4d fc	 mov	 ecx, DWORD PTR _this$[ebp]
  0000f	e8 00 00 00 00	 call	 ??D?$_Vector_const_iterator@V?$_Vector_val@UEVENT_ID_TIME@@V?$allocator@UEVENT_ID_TIME@@@std@@@std@@@std@@QBEABUEVENT_ID_TIME@@XZ ; std::_Vector_const_iterator<std::_Vector_val<EVENT_ID_TIME,std::allocator<EVENT_ID_TIME> > >::operator*

; 323  : 		}

  00014	5f		 pop	 edi
  00015	5e		 pop	 esi
  00016	5b		 pop	 ebx
  00017	8b e5		 mov	 esp, ebp
  00019	5d		 pop	 ebp
  0001a	c3		 ret	 0
??D?$_Vector_iterator@V?$_Vector_val@UEVENT_ID_TIME@@V?$allocator@UEVENT_ID_TIME@@@std@@@std@@@std@@QBEAAUEVENT_ID_TIME@@XZ ENDP ; std::_Vector_iterator<std::_Vector_val<EVENT_ID_TIME,std::allocator<EVENT_ID_TIME> > >::operator*
_TEXT	ENDS
PUBLIC	??E?$_Vector_iterator@V?$_Vector_val@UEVENT_ID_TIME@@V?$allocator@UEVENT_ID_TIME@@@std@@@std@@@std@@QAEAAV01@XZ ; std::_Vector_iterator<std::_Vector_val<EVENT_ID_TIME,std::allocator<EVENT_ID_TIME> > >::operator++
; Function compile flags: /Odtp /ZI
;	COMDAT ??E?$_Vector_iterator@V?$_Vector_val@UEVENT_ID_TIME@@V?$allocator@UEVENT_ID_TIME@@@std@@@std@@@std@@QAE?AV01@H@Z
_TEXT	SEGMENT
__Tmp$ = -8						; size = 4
_this$ = -4						; size = 4
___$ReturnUdt$ = 8					; size = 4
___formal$ = 12						; size = 4
??E?$_Vector_iterator@V?$_Vector_val@UEVENT_ID_TIME@@V?$allocator@UEVENT_ID_TIME@@@std@@@std@@@std@@QAE?AV01@H@Z PROC ; std::_Vector_iterator<std::_Vector_val<EVENT_ID_TIME,std::allocator<EVENT_ID_TIME> > >::operator++, COMDAT
; _this$ = ecx

; 337  : 		{	// postincrement

  00000	55		 push	 ebp
  00001	8b ec		 mov	 ebp, esp
  00003	83 ec 48	 sub	 esp, 72			; 00000048H
  00006	53		 push	 ebx
  00007	56		 push	 esi
  00008	57		 push	 edi
  00009	89 4d fc	 mov	 DWORD PTR _this$[ebp], ecx

; 338  : 		_Myiter _Tmp = *this;

  0000c	8b 45 fc	 mov	 eax, DWORD PTR _this$[ebp]
  0000f	8b 08		 mov	 ecx, DWORD PTR [eax]
  00011	89 4d f8	 mov	 DWORD PTR __Tmp$[ebp], ecx

; 339  : 		++*this;

  00014	8b 4d fc	 mov	 ecx, DWORD PTR _this$[ebp]
  00017	e8 00 00 00 00	 call	 ??E?$_Vector_iterator@V?$_Vector_val@UEVENT_ID_TIME@@V?$allocator@UEVENT_ID_TIME@@@std@@@std@@@std@@QAEAAV01@XZ ; std::_Vector_iterator<std::_Vector_val<EVENT_ID_TIME,std::allocator<EVENT_ID_TIME> > >::operator++

; 340  : 		return (_Tmp);

  0001c	8b 45 08	 mov	 eax, DWORD PTR ___$ReturnUdt$[ebp]
  0001f	8b 4d f8	 mov	 ecx, DWORD PTR __Tmp$[ebp]
  00022	89 08		 mov	 DWORD PTR [eax], ecx
  00024	8b 45 08	 mov	 eax, DWORD PTR ___$ReturnUdt$[ebp]

; 341  : 		}

  00027	5f		 pop	 edi
  00028	5e		 pop	 esi
  00029	5b		 pop	 ebx
  0002a	8b e5		 mov	 esp, ebp
  0002c	5d		 pop	 ebp
  0002d	c2 08 00	 ret	 8
??E?$_Vector_iterator@V?$_Vector_val@UEVENT_ID_TIME@@V?$allocator@UEVENT_ID_TIME@@@std@@@std@@@std@@QAE?AV01@H@Z ENDP ; std::_Vector_iterator<std::_Vector_val<EVENT_ID_TIME,std::allocator<EVENT_ID_TIME> > >::operator++
_TEXT	ENDS
PUBLIC	??8?$_Vector_const_iterator@V?$_Vector_val@UEVENT_ID_TIME@@V?$allocator@UEVENT_ID_TIME@@@std@@@std@@@std@@QBE_NABV01@@Z ; std::_Vector_const_iterator<std::_Vector_val<EVENT_ID_TIME,std::allocator<EVENT_ID_TIME> > >::operator==
; Function compile flags: /Odtp /ZI
;	COMDAT ??9?$_Vector_const_iterator@V?$_Vector_val@UEVENT_ID_TIME@@V?$allocator@UEVENT_ID_TIME@@@std@@@std@@@std@@QBE_NABV01@@Z
_TEXT	SEGMENT
_this$ = -4						; size = 4
__Right$ = 8						; size = 4
??9?$_Vector_const_iterator@V?$_Vector_val@UEVENT_ID_TIME@@V?$allocator@UEVENT_ID_TIME@@@std@@@std@@@std@@QBE_NABV01@@Z PROC ; std::_Vector_const_iterator<std::_Vector_val<EVENT_ID_TIME,std::allocator<EVENT_ID_TIME> > >::operator!=, COMDAT
; _this$ = ecx

; 207  : 		{	// test for iterator inequality

  00000	55		 push	 ebp
  00001	8b ec		 mov	 ebp, esp
  00003	83 ec 44	 sub	 esp, 68			; 00000044H
  00006	53		 push	 ebx
  00007	56		 push	 esi
  00008	57		 push	 edi
  00009	89 4d fc	 mov	 DWORD PTR _this$[ebp], ecx

; 208  : 		return (!(*this == _Right));

  0000c	8b 45 08	 mov	 eax, DWORD PTR __Right$[ebp]
  0000f	50		 push	 eax
  00010	8b 4d fc	 mov	 ecx, DWORD PTR _this$[ebp]
  00013	e8 00 00 00 00	 call	 ??8?$_Vector_const_iterator@V?$_Vector_val@UEVENT_ID_TIME@@V?$allocator@UEVENT_ID_TIME@@@std@@@std@@@std@@QBE_NABV01@@Z ; std::_Vector_const_iterator<std::_Vector_val<EVENT_ID_TIME,std::allocator<EVENT_ID_TIME> > >::operator==
  00018	0f b6 c0	 movzx	 eax, al
  0001b	f7 d8		 neg	 eax
  0001d	1b c0		 sbb	 eax, eax
  0001f	83 c0 01	 add	 eax, 1

; 209  : 		}

  00022	5f		 pop	 edi
  00023	5e		 pop	 esi
  00024	5b		 pop	 ebx
  00025	8b e5		 mov	 esp, ebp
  00027	5d		 pop	 ebp
  00028	c2 04 00	 ret	 4
??9?$_Vector_const_iterator@V?$_Vector_val@UEVENT_ID_TIME@@V?$allocator@UEVENT_ID_TIME@@@std@@@std@@@std@@QBE_NABV01@@Z ENDP ; std::_Vector_const_iterator<std::_Vector_val<EVENT_ID_TIME,std::allocator<EVENT_ID_TIME> > >::operator!=
_TEXT	ENDS
PUBLIC	??0?$_Vector_const_iterator@V?$_Vector_val@UEVENT_ID_ITEM_LIST@@V?$allocator@UEVENT_ID_ITEM_LIST@@@std@@@std@@@std@@QAE@XZ ; std::_Vector_const_iterator<std::_Vector_val<EVENT_ID_ITEM_LIST,std::allocator<EVENT_ID_ITEM_LIST> > >::_Vector_const_iterator<std::_Vector_val<EVENT_ID_ITEM_LIST,std::allocator<EVENT_ID_ITEM_LIST> > >
; Function compile flags: /Odtp /ZI
;	COMDAT ??0?$_Vector_iterator@V?$_Vector_val@UEVENT_ID_ITEM_LIST@@V?$allocator@UEVENT_ID_ITEM_LIST@@@std@@@std@@@std@@QAE@XZ
_TEXT	SEGMENT
_this$ = -4						; size = 4
??0?$_Vector_iterator@V?$_Vector_val@UEVENT_ID_ITEM_LIST@@V?$allocator@UEVENT_ID_ITEM_LIST@@@std@@@std@@@std@@QAE@XZ PROC ; std::_Vector_iterator<std::_Vector_val<EVENT_ID_ITEM_LIST,std::allocator<EVENT_ID_ITEM_LIST> > >::_Vector_iterator<std::_Vector_val<EVENT_ID_ITEM_LIST,std::allocator<EVENT_ID_ITEM_LIST> > >, COMDAT
; _this$ = ecx

; 298  : 	_Vector_iterator()

  00000	55		 push	 ebp
  00001	8b ec		 mov	 ebp, esp
  00003	83 ec 44	 sub	 esp, 68			; 00000044H
  00006	53		 push	 ebx
  00007	56		 push	 esi
  00008	57		 push	 edi
  00009	89 4d fc	 mov	 DWORD PTR _this$[ebp], ecx
  0000c	8b 4d fc	 mov	 ecx, DWORD PTR _this$[ebp]
  0000f	e8 00 00 00 00	 call	 ??0?$_Vector_const_iterator@V?$_Vector_val@UEVENT_ID_ITEM_LIST@@V?$allocator@UEVENT_ID_ITEM_LIST@@@std@@@std@@@std@@QAE@XZ ; std::_Vector_const_iterator<std::_Vector_val<EVENT_ID_ITEM_LIST,std::allocator<EVENT_ID_ITEM_LIST> > >::_Vector_const_iterator<std::_Vector_val<EVENT_ID_ITEM_LIST,std::allocator<EVENT_ID_ITEM_LIST> > >

; 299  : 		{	// construct with null vector pointer
; 300  : 		}

  00014	8b 45 fc	 mov	 eax, DWORD PTR _this$[ebp]
  00017	5f		 pop	 edi
  00018	5e		 pop	 esi
  00019	5b		 pop	 ebx
  0001a	8b e5		 mov	 esp, ebp
  0001c	5d		 pop	 ebp
  0001d	c3		 ret	 0
??0?$_Vector_iterator@V?$_Vector_val@UEVENT_ID_ITEM_LIST@@V?$allocator@UEVENT_ID_ITEM_LIST@@@std@@@std@@@std@@QAE@XZ ENDP ; std::_Vector_iterator<std::_Vector_val<EVENT_ID_ITEM_LIST,std::allocator<EVENT_ID_ITEM_LIST> > >::_Vector_iterator<std::_Vector_val<EVENT_ID_ITEM_LIST,std::allocator<EVENT_ID_ITEM_LIST> > >
_TEXT	ENDS
PUBLIC	??D?$_Vector_const_iterator@V?$_Vector_val@UEVENT_ID_ITEM_LIST@@V?$allocator@UEVENT_ID_ITEM_LIST@@@std@@@std@@@std@@QBEABUEVENT_ID_ITEM_LIST@@XZ ; std::_Vector_const_iterator<std::_Vector_val<EVENT_ID_ITEM_LIST,std::allocator<EVENT_ID_ITEM_LIST> > >::operator*
; Function compile flags: /Odtp /ZI
;	COMDAT ??D?$_Vector_iterator@V?$_Vector_val@UEVENT_ID_ITEM_LIST@@V?$allocator@UEVENT_ID_ITEM_LIST@@@std@@@std@@@std@@QBEAAUEVENT_ID_ITEM_LIST@@XZ
_TEXT	SEGMENT
_this$ = -4						; size = 4
??D?$_Vector_iterator@V?$_Vector_val@UEVENT_ID_ITEM_LIST@@V?$allocator@UEVENT_ID_ITEM_LIST@@@std@@@std@@@std@@QBEAAUEVENT_ID_ITEM_LIST@@XZ PROC ; std::_Vector_iterator<std::_Vector_val<EVENT_ID_ITEM_LIST,std::allocator<EVENT_ID_ITEM_LIST> > >::operator*, COMDAT
; _this$ = ecx

; 321  : 		{	// return designated object

  00000	55		 push	 ebp
  00001	8b ec		 mov	 ebp, esp
  00003	83 ec 44	 sub	 esp, 68			; 00000044H
  00006	53		 push	 ebx
  00007	56		 push	 esi
  00008	57		 push	 edi
  00009	89 4d fc	 mov	 DWORD PTR _this$[ebp], ecx

; 322  : 		return ((reference)**(_Mybase *)this);

  0000c	8b 4d fc	 mov	 ecx, DWORD PTR _this$[ebp]
  0000f	e8 00 00 00 00	 call	 ??D?$_Vector_const_iterator@V?$_Vector_val@UEVENT_ID_ITEM_LIST@@V?$allocator@UEVENT_ID_ITEM_LIST@@@std@@@std@@@std@@QBEABUEVENT_ID_ITEM_LIST@@XZ ; std::_Vector_const_iterator<std::_Vector_val<EVENT_ID_ITEM_LIST,std::allocator<EVENT_ID_ITEM_LIST> > >::operator*

; 323  : 		}

  00014	5f		 pop	 edi
  00015	5e		 pop	 esi
  00016	5b		 pop	 ebx
  00017	8b e5		 mov	 esp, ebp
  00019	5d		 pop	 ebp
  0001a	c3		 ret	 0
??D?$_Vector_iterator@V?$_Vector_val@UEVENT_ID_ITEM_LIST@@V?$allocator@UEVENT_ID_ITEM_LIST@@@std@@@std@@@std@@QBEAAUEVENT_ID_ITEM_LIST@@XZ ENDP ; std::_Vector_iterator<std::_Vector_val<EVENT_ID_ITEM_LIST,std::allocator<EVENT_ID_ITEM_LIST> > >::operator*
_TEXT	ENDS
PUBLIC	??E?$_Vector_const_iterator@V?$_Vector_val@UEVENT_ID_ITEM_LIST@@V?$allocator@UEVENT_ID_ITEM_LIST@@@std@@@std@@@std@@QAEAAV01@XZ ; std::_Vector_const_iterator<std::_Vector_val<EVENT_ID_ITEM_LIST,std::allocator<EVENT_ID_ITEM_LIST> > >::operator++
; Function compile flags: /Odtp /ZI
;	COMDAT ??E?$_Vector_iterator@V?$_Vector_val@UEVENT_ID_ITEM_LIST@@V?$allocator@UEVENT_ID_ITEM_LIST@@@std@@@std@@@std@@QAEAAV01@XZ
_TEXT	SEGMENT
_this$ = -4						; size = 4
??E?$_Vector_iterator@V?$_Vector_val@UEVENT_ID_ITEM_LIST@@V?$allocator@UEVENT_ID_ITEM_LIST@@@std@@@std@@@std@@QAEAAV01@XZ PROC ; std::_Vector_iterator<std::_Vector_val<EVENT_ID_ITEM_LIST,std::allocator<EVENT_ID_ITEM_LIST> > >::operator++, COMDAT
; _this$ = ecx

; 331  : 		{	// preincrement

  00000	55		 push	 ebp
  00001	8b ec		 mov	 ebp, esp
  00003	83 ec 44	 sub	 esp, 68			; 00000044H
  00006	53		 push	 ebx
  00007	56		 push	 esi
  00008	57		 push	 edi
  00009	89 4d fc	 mov	 DWORD PTR _this$[ebp], ecx

; 332  : 		++*(_Mybase *)this;

  0000c	8b 4d fc	 mov	 ecx, DWORD PTR _this$[ebp]
  0000f	e8 00 00 00 00	 call	 ??E?$_Vector_const_iterator@V?$_Vector_val@UEVENT_ID_ITEM_LIST@@V?$allocator@UEVENT_ID_ITEM_LIST@@@std@@@std@@@std@@QAEAAV01@XZ ; std::_Vector_const_iterator<std::_Vector_val<EVENT_ID_ITEM_LIST,std::allocator<EVENT_ID_ITEM_LIST> > >::operator++

; 333  : 		return (*this);

  00014	8b 45 fc	 mov	 eax, DWORD PTR _this$[ebp]

; 334  : 		}

  00017	5f		 pop	 edi
  00018	5e		 pop	 esi
  00019	5b		 pop	 ebx
  0001a	8b e5		 mov	 esp, ebp
  0001c	5d		 pop	 ebp
  0001d	c3		 ret	 0
??E?$_Vector_iterator@V?$_Vector_val@UEVENT_ID_ITEM_LIST@@V?$allocator@UEVENT_ID_ITEM_LIST@@@std@@@std@@@std@@QAEAAV01@XZ ENDP ; std::_Vector_iterator<std::_Vector_val<EVENT_ID_ITEM_LIST,std::allocator<EVENT_ID_ITEM_LIST> > >::operator++
_TEXT	ENDS
PUBLIC	??8?$_Vector_const_iterator@V?$_Vector_val@UEVENT_ID_ITEM_LIST@@V?$allocator@UEVENT_ID_ITEM_LIST@@@std@@@std@@@std@@QBE_NABV01@@Z ; std::_Vector_const_iterator<std::_Vector_val<EVENT_ID_ITEM_LIST,std::allocator<EVENT_ID_ITEM_LIST> > >::operator==
; Function compile flags: /Odtp /ZI
;	COMDAT ??9?$_Vector_const_iterator@V?$_Vector_val@UEVENT_ID_ITEM_LIST@@V?$allocator@UEVENT_ID_ITEM_LIST@@@std@@@std@@@std@@QBE_NABV01@@Z
_TEXT	SEGMENT
_this$ = -4						; size = 4
__Right$ = 8						; size = 4
??9?$_Vector_const_iterator@V?$_Vector_val@UEVENT_ID_ITEM_LIST@@V?$allocator@UEVENT_ID_ITEM_LIST@@@std@@@std@@@std@@QBE_NABV01@@Z PROC ; std::_Vector_const_iterator<std::_Vector_val<EVENT_ID_ITEM_LIST,std::allocator<EVENT_ID_ITEM_LIST> > >::operator!=, COMDAT
; _this$ = ecx

; 207  : 		{	// test for iterator inequality

  00000	55		 push	 ebp
  00001	8b ec		 mov	 ebp, esp
  00003	83 ec 44	 sub	 esp, 68			; 00000044H
  00006	53		 push	 ebx
  00007	56		 push	 esi
  00008	57		 push	 edi
  00009	89 4d fc	 mov	 DWORD PTR _this$[ebp], ecx

; 208  : 		return (!(*this == _Right));

  0000c	8b 45 08	 mov	 eax, DWORD PTR __Right$[ebp]
  0000f	50		 push	 eax
  00010	8b 4d fc	 mov	 ecx, DWORD PTR _this$[ebp]
  00013	e8 00 00 00 00	 call	 ??8?$_Vector_const_iterator@V?$_Vector_val@UEVENT_ID_ITEM_LIST@@V?$allocator@UEVENT_ID_ITEM_LIST@@@std@@@std@@@std@@QBE_NABV01@@Z ; std::_Vector_const_iterator<std::_Vector_val<EVENT_ID_ITEM_LIST,std::allocator<EVENT_ID_ITEM_LIST> > >::operator==
  00018	0f b6 c0	 movzx	 eax, al
  0001b	f7 d8		 neg	 eax
  0001d	1b c0		 sbb	 eax, eax
  0001f	83 c0 01	 add	 eax, 1

; 209  : 		}

  00022	5f		 pop	 edi
  00023	5e		 pop	 esi
  00024	5b		 pop	 ebx
  00025	8b e5		 mov	 esp, ebp
  00027	5d		 pop	 ebp
  00028	c2 04 00	 ret	 4
??9?$_Vector_const_iterator@V?$_Vector_val@UEVENT_ID_ITEM_LIST@@V?$allocator@UEVENT_ID_ITEM_LIST@@@std@@@std@@@std@@QBE_NABV01@@Z ENDP ; std::_Vector_const_iterator<std::_Vector_val<EVENT_ID_ITEM_LIST,std::allocator<EVENT_ID_ITEM_LIST> > >::operator!=
_TEXT	ENDS
PUBLIC	?_Destroy@?$vector@UEVENT_ID_TIME@@V?$allocator@UEVENT_ID_TIME@@@std@@@std@@IAEXPAUEVENT_ID_TIME@@0@Z ; std::vector<EVENT_ID_TIME,std::allocator<EVENT_ID_TIME> >::_Destroy
PUBLIC	??$_Move@PAUEVENT_ID_TIME@@PAU1@@std@@YAPAUEVENT_ID_TIME@@PAU1@00@Z ; std::_Move<EVENT_ID_TIME *,EVENT_ID_TIME *>
PUBLIC	?_Make_iter@?$vector@UEVENT_ID_TIME@@V?$allocator@UEVENT_ID_TIME@@@std@@@std@@QBE?AV?$_Vector_iterator@V?$_Vector_val@UEVENT_ID_TIME@@V?$allocator@UEVENT_ID_TIME@@@std@@@std@@@2@V?$_Vector_const_iterator@V?$_Vector_val@UEVENT_ID_TIME@@V?$allocator@UEVENT_ID_TIME@@@std@@@std@@@2@@Z ; std::vector<EVENT_ID_TIME,std::allocator<EVENT_ID_TIME> >::_Make_iter
; Function compile flags: /Odtp /ZI
;	COMDAT ?erase@?$vector@UEVENT_ID_TIME@@V?$allocator@UEVENT_ID_TIME@@@std@@@std@@QAE?AV?$_Vector_iterator@V?$_Vector_val@UEVENT_ID_TIME@@V?$allocator@UEVENT_ID_TIME@@@std@@@std@@@2@V?$_Vector_const_iterator@V?$_Vector_val@UEVENT_ID_TIME@@V?$allocator@UEVENT_ID_TIME@@@std@@@std@@@2@0@Z
_TEXT	SEGMENT
$T227383 = -84						; size = 4
__Ptr$225015 = -16					; size = 4
__Last$ = -12						; size = 4
__First$ = -8						; size = 4
_this$ = -4						; size = 4
___$ReturnUdt$ = 8					; size = 4
__First_arg$ = 12					; size = 4
__Last_arg$ = 16					; size = 4
?erase@?$vector@UEVENT_ID_TIME@@V?$allocator@UEVENT_ID_TIME@@@std@@@std@@QAE?AV?$_Vector_iterator@V?$_Vector_val@UEVENT_ID_TIME@@V?$allocator@UEVENT_ID_TIME@@@std@@@std@@@2@V?$_Vector_const_iterator@V?$_Vector_val@UEVENT_ID_TIME@@V?$allocator@UEVENT_ID_TIME@@@std@@@std@@@2@0@Z PROC ; std::vector<EVENT_ID_TIME,std::allocator<EVENT_ID_TIME> >::erase, COMDAT
; _this$ = ecx

; 1190 : 		{	// erase [_First, _Last)

  00000	55		 push	 ebp
  00001	8b ec		 mov	 ebp, esp
  00003	83 ec 54	 sub	 esp, 84			; 00000054H
  00006	53		 push	 ebx
  00007	56		 push	 esi
  00008	57		 push	 edi
  00009	89 4d fc	 mov	 DWORD PTR _this$[ebp], ecx

; 1191 : 		iterator _First = _Make_iter(_First_arg);

  0000c	8b 45 0c	 mov	 eax, DWORD PTR __First_arg$[ebp]
  0000f	50		 push	 eax
  00010	8d 4d f8	 lea	 ecx, DWORD PTR __First$[ebp]
  00013	51		 push	 ecx
  00014	8b 4d fc	 mov	 ecx, DWORD PTR _this$[ebp]
  00017	e8 00 00 00 00	 call	 ?_Make_iter@?$vector@UEVENT_ID_TIME@@V?$allocator@UEVENT_ID_TIME@@@std@@@std@@QBE?AV?$_Vector_iterator@V?$_Vector_val@UEVENT_ID_TIME@@V?$allocator@UEVENT_ID_TIME@@@std@@@std@@@2@V?$_Vector_const_iterator@V?$_Vector_val@UEVENT_ID_TIME@@V?$allocator@UEVENT_ID_TIME@@@std@@@std@@@2@@Z ; std::vector<EVENT_ID_TIME,std::allocator<EVENT_ID_TIME> >::_Make_iter

; 1192 : 		iterator _Last = _Make_iter(_Last_arg);

  0001c	8b 45 10	 mov	 eax, DWORD PTR __Last_arg$[ebp]
  0001f	50		 push	 eax
  00020	8d 4d f4	 lea	 ecx, DWORD PTR __Last$[ebp]
  00023	51		 push	 ecx
  00024	8b 4d fc	 mov	 ecx, DWORD PTR _this$[ebp]
  00027	e8 00 00 00 00	 call	 ?_Make_iter@?$vector@UEVENT_ID_TIME@@V?$allocator@UEVENT_ID_TIME@@@std@@@std@@QBE?AV?$_Vector_iterator@V?$_Vector_val@UEVENT_ID_TIME@@V?$allocator@UEVENT_ID_TIME@@@std@@@std@@@2@V?$_Vector_const_iterator@V?$_Vector_val@UEVENT_ID_TIME@@V?$allocator@UEVENT_ID_TIME@@@std@@@std@@@2@@Z ; std::vector<EVENT_ID_TIME,std::allocator<EVENT_ID_TIME> >::_Make_iter

; 1193 : 
; 1194 : 		if (_First != _Last)

  0002c	8d 45 f4	 lea	 eax, DWORD PTR __Last$[ebp]
  0002f	50		 push	 eax
  00030	8d 4d f8	 lea	 ecx, DWORD PTR __First$[ebp]
  00033	e8 00 00 00 00	 call	 ??9?$_Vector_const_iterator@V?$_Vector_val@UEVENT_ID_TIME@@V?$allocator@UEVENT_ID_TIME@@@std@@@std@@@std@@QBE_NABV01@@Z ; std::_Vector_const_iterator<std::_Vector_val<EVENT_ID_TIME,std::allocator<EVENT_ID_TIME> > >::operator!=
  00038	0f b6 c8	 movzx	 ecx, al
  0003b	85 c9		 test	 ecx, ecx
  0003d	74 36		 je	 SHORT $LN1@erase

; 1195 : 			{	// worth doing, copy down over hole
; 1196 :  #if _ITERATOR_DEBUG_LEVEL == 2
; 1197 : 			if (_Last < _First || _VICONT(_First) != this
; 1198 : 				|| _VIPTR(_First) < this->_Myfirst
; 1199 : 				|| this->_Mylast < _VIPTR(_Last))
; 1200 : 				_DEBUG_ERROR("vector erase iterator outside range");
; 1201 : 			pointer _Ptr = _Move(_VIPTR(_Last), this->_Mylast,
; 1202 : 				_VIPTR(_First));
; 1203 : 			_Orphan_range(_VIPTR(_First), this->_Mylast);
; 1204 : 
; 1205 :  #else /* _ITERATOR_DEBUG_LEVEL == 2 */
; 1206 : 			pointer _Ptr = _Move(_VIPTR(_Last), this->_Mylast,
; 1207 : 				_VIPTR(_First));

