; Listing generated by Microsoft (R) Optimizing Compiler Version 16.00.40219.01 

	TITLE	D:\Projects\ExTeam6.3\Source\GameServer\GameServer\ExLicense.cpp
	.686P
	.XMM
	include listing.inc
	.model	flat

INCLUDELIB LIBCMT
INCLUDELIB OLDNAMES

_DATA	SEGMENT
_g_iNpcUpDfLevel_CGATE DD 01H
	DD	02H
	DD	02dc6c0H
	DD	02H
	DD	03H
	DD	02dc6c0H
	DD	03H
	DD	04H
	DD	02dc6c0H
_g_iNpcUpDfLevel_CSTATUE DD 01H
	DD	03H
	DD	02dc6c0H
	DD	02H
	DD	05H
	DD	02dc6c0H
	DD	03H
	DD	07H
	DD	02dc6c0H
_g_iNpcUpMaxHP_CGATE DD 02625a0H
	DD	02H
	DD	0f4240H
	DD	03567e0H
	DD	03H
	DD	0f4240H
	DD	04f5880H
	DD	04H
	DD	0f4240H
_g_iNpcUpMaxHP_CSTATUE DD 02191c0H
	DD	03H
	DD	0f4240H
	DD	033e140H
	DD	05H
	DD	0f4240H
	DD	04c4b40H
	DD	07H
	DD	0f4240H
_g_iNpcUpRgLevel_CSTATUE DD 01H
	DD	03H
	DD	04c4b40H
	DD	02H
	DD	05H
	DD	04c4b40H
	DD	03H
	DD	07H
	DD	04c4b40H
_g_iCsUserReSpawnArea DD 023H
	DD	011H
	DD	090H
	DD	030H
	DD	04aH
	DD	090H
	DD	073H
	DD	09aH
	DD	023H
	DD	011H
	DD	090H
	DD	030H
_g_iNpcDefense_CGATE DD 064H
	DD	0b4H
	DD	012cH
	DD	0208H
_g_iNpcDefense_CSTATUE DD 050H
	DD	0b4H
	DD	0154H
	DD	0226H
_g_iCastleWallStepAxisY DD 071H
	DD	0a0H
	DD	0cbH
_DATA	ENDS
PUBLIC	??_H@YGXPAXIHP6EPAX0@Z@Z			; `vector constructor iterator'
; Function compile flags: /Odtp /ZI /ZX
;	COMDAT ??_H@YGXPAXIHP6EPAX0@Z@Z
_TEXT	SEGMENT
___t$ = 8						; size = 4
___s$ = 12						; size = 4
___n$ = 16						; size = 4
___f$ = 20						; size = 4
??_H@YGXPAXIHP6EPAX0@Z@Z PROC				; `vector constructor iterator', COMDAT
  00000	55		 push	 ebp
  00001	8b ec		 mov	 ebp, esp
  00003	83 ec 40	 sub	 esp, 64			; 00000040H
  00006	53		 push	 ebx
  00007	56		 push	 esi
  00008	57		 push	 edi
$LN2@vector:
  00009	8b 45 10	 mov	 eax, DWORD PTR ___n$[ebp]
  0000c	83 e8 01	 sub	 eax, 1
  0000f	89 45 10	 mov	 DWORD PTR ___n$[ebp], eax
  00012	78 11		 js	 SHORT $LN3@vector
  00014	8b 4d 08	 mov	 ecx, DWORD PTR ___t$[ebp]
  00017	ff 55 14	 call	 DWORD PTR ___f$[ebp]
  0001a	8b 45 08	 mov	 eax, DWORD PTR ___t$[ebp]
  0001d	03 45 0c	 add	 eax, DWORD PTR ___s$[ebp]
  00020	89 45 08	 mov	 DWORD PTR ___t$[ebp], eax
  00023	eb e4		 jmp	 SHORT $LN2@vector
$LN3@vector:
  00025	5f		 pop	 edi
  00026	5e		 pop	 esi
  00027	5b		 pop	 ebx
  00028	8b e5		 mov	 esp, ebp
  0002a	5d		 pop	 ebp
  0002b	c2 10 00	 ret	 16			; 00000010H
??_H@YGXPAXIHP6EPAX0@Z@Z ENDP				; `vector constructor iterator'
_TEXT	ENDS
PUBLIC	?Init@CExLicense@@QAEXXZ			; CExLicense::Init
PUBLIC	??0LICENSE_DATA@@QAE@XZ				; LICENSE_DATA::LICENSE_DATA
PUBLIC	??0CExLicense@@QAE@XZ				; CExLicense::CExLicense
; Function compile flags: /Odtp /ZI /ZX
; File d:\projects\exteam6.3\source\gameserver\gameserver\exlicense.cpp
;	COMDAT ??0CExLicense@@QAE@XZ
_TEXT	SEGMENT
_this$ = -4						; size = 4
??0CExLicense@@QAE@XZ PROC				; CExLicense::CExLicense, COMDAT
; _this$ = ecx

; 16   : {

  00000	55		 push	 ebp
  00001	8b ec		 mov	 ebp, esp
  00003	83 ec 44	 sub	 esp, 68			; 00000044H
  00006	53		 push	 ebx
  00007	56		 push	 esi
  00008	57		 push	 edi
  00009	89 4d fc	 mov	 DWORD PTR _this$[ebp], ecx
  0000c	8b 4d fc	 mov	 ecx, DWORD PTR _this$[ebp]
  0000f	83 c1 78	 add	 ecx, 120		; 00000078H
  00012	e8 00 00 00 00	 call	 ??0LICENSE_DATA@@QAE@XZ	; LICENSE_DATA::LICENSE_DATA
  00017	68 00 00 00 00	 push	 OFFSET ??0LICENSE_DATA@@QAE@XZ ; LICENSE_DATA::LICENSE_DATA
  0001c	68 c8 00 00 00	 push	 200			; 000000c8H
  00021	6a 78		 push	 120			; 00000078H
  00023	8b 45 fc	 mov	 eax, DWORD PTR _this$[ebp]
  00026	05 f0 00 00 00	 add	 eax, 240		; 000000f0H
  0002b	50		 push	 eax
  0002c	e8 00 00 00 00	 call	 ??_H@YGXPAXIHP6EPAX0@Z@Z

; 17   : 	VMBEGIN
; 18   : 	this->Init();

  00031	8b 4d fc	 mov	 ecx, DWORD PTR _this$[ebp]
  00034	e8 00 00 00 00	 call	 ?Init@CExLicense@@QAEXXZ ; CExLicense::Init

; 19   : 	VMEND
; 20   : }

  00039	8b 45 fc	 mov	 eax, DWORD PTR _this$[ebp]
  0003c	5f		 pop	 edi
  0003d	5e		 pop	 esi
  0003e	5b		 pop	 ebx
  0003f	8b e5		 mov	 esp, ebp
  00041	5d		 pop	 ebp
  00042	c3		 ret	 0
??0CExLicense@@QAE@XZ ENDP				; CExLicense::CExLicense
_TEXT	ENDS
EXTRN	_memset:PROC
; Function compile flags: /Odtp /ZI /ZX
; File d:\projects\exteam6.3\source\gameserver\gameserver\exlicense.h
;	COMDAT ??0LICENSE_DATA@@QAE@XZ
_TEXT	SEGMENT
_this$ = -4						; size = 4
??0LICENSE_DATA@@QAE@XZ PROC				; LICENSE_DATA::LICENSE_DATA, COMDAT
; _this$ = ecx

; 155  : 	LICENSE_DATA()

  00000	55		 push	 ebp
  00001	8b ec		 mov	 ebp, esp
  00003	83 ec 44	 sub	 esp, 68			; 00000044H
  00006	53		 push	 ebx
  00007	56		 push	 esi
  00008	57		 push	 edi
  00009	89 4d fc	 mov	 DWORD PTR _this$[ebp], ecx

; 156  : 	{
; 157  : 		ZeroMemory(this->Login, sizeof(this->Login));

  0000c	6a 19		 push	 25			; 00000019H
  0000e	6a 00		 push	 0
  00010	8b 45 fc	 mov	 eax, DWORD PTR _this$[ebp]
  00013	50		 push	 eax
  00014	e8 00 00 00 00	 call	 _memset
  00019	83 c4 0c	 add	 esp, 12			; 0000000cH

; 158  : 		ZeroMemory(this->Password, sizeof(this->Password));

  0001c	6a 0a		 push	 10			; 0000000aH
  0001e	6a 00		 push	 0
  00020	8b 45 fc	 mov	 eax, DWORD PTR _this$[ebp]
  00023	83 c0 19	 add	 eax, 25			; 00000019H
  00026	50		 push	 eax
  00027	e8 00 00 00 00	 call	 _memset
  0002c	83 c4 0c	 add	 esp, 12			; 0000000cH

; 159  : 		ZeroMemory(this->mac, sizeof(this->mac));

  0002f	6a 12		 push	 18			; 00000012H
  00031	6a 00		 push	 0
  00033	8b 45 fc	 mov	 eax, DWORD PTR _this$[ebp]
  00036	83 c0 28	 add	 eax, 40			; 00000028H
  00039	50		 push	 eax
  0003a	e8 00 00 00 00	 call	 _memset
  0003f	83 c4 0c	 add	 esp, 12			; 0000000cH

; 160  : 		ZeroMemory(this->ip, sizeof(this->ip));

  00042	6a 10		 push	 16			; 00000010H
  00044	6a 00		 push	 0
  00046	8b 45 fc	 mov	 eax, DWORD PTR _this$[ebp]
  00049	83 c0 3a	 add	 eax, 58			; 0000003aH
  0004c	50		 push	 eax
  0004d	e8 00 00 00 00	 call	 _memset
  00052	83 c4 0c	 add	 esp, 12			; 0000000cH

; 161  : 		this->hwid					= 0;

  00055	8b 45 fc	 mov	 eax, DWORD PTR _this$[ebp]
  00058	c7 40 24 00 00
	00 00		 mov	 DWORD PTR [eax+36], 0

; 162  : 		this->Credit				= 0;

  0005f	8b 45 fc	 mov	 eax, DWORD PTR _this$[ebp]
  00062	c7 40 4c 00 00
	00 00		 mov	 DWORD PTR [eax+76], 0

; 163  : 		this->Baned					= false;

  00069	8b 45 fc	 mov	 eax, DWORD PTR _this$[ebp]
  0006c	c6 40 50 00	 mov	 BYTE PTR [eax+80], 0

; 164  : 		this->Rage					= false;

  00070	8b 45 fc	 mov	 eax, DWORD PTR _this$[ebp]
  00073	c6 40 51 00	 mov	 BYTE PTR [eax+81], 0

; 165  : 		this->WinQuest				= false;

  00077	8b 45 fc	 mov	 eax, DWORD PTR _this$[ebp]
  0007a	c6 40 52 00	 mov	 BYTE PTR [eax+82], 0

; 166  : 		this->BloodHound			= false;

  0007e	8b 45 fc	 mov	 eax, DWORD PTR _this$[ebp]
  00081	c6 40 53 00	 mov	 BYTE PTR [eax+83], 0

; 167  : 		this->MonsterQuest			= false;

  00085	8b 45 fc	 mov	 eax, DWORD PTR _this$[ebp]
  00088	c6 40 54 00	 mov	 BYTE PTR [eax+84], 0

; 168  : 		this->TvTEvent				= false;

  0008c	8b 45 fc	 mov	 eax, DWORD PTR _this$[ebp]
  0008f	c6 40 55 00	 mov	 BYTE PTR [eax+85], 0

; 169  : 		this->GrandHero				= false;

  00093	8b 45 fc	 mov	 eax, DWORD PTR _this$[ebp]
  00096	c6 40 56 00	 mov	 BYTE PTR [eax+86], 0

; 170  : 		this->PartySystem			= false;

  0009a	8b 45 fc	 mov	 eax, DWORD PTR _this$[ebp]
  0009d	c6 40 57 00	 mov	 BYTE PTR [eax+87], 0

; 171  : 		this->Brotherhood			= false;

  000a1	8b 45 fc	 mov	 eax, DWORD PTR _this$[ebp]
  000a4	c6 40 58 00	 mov	 BYTE PTR [eax+88], 0

; 172  : 		this->PartySearch			= false;

  000a8	8b 45 fc	 mov	 eax, DWORD PTR _this$[ebp]
  000ab	c6 40 59 00	 mov	 BYTE PTR [eax+89], 0

; 173  : 		this->ChatLog				= false;

  000af	8b 45 fc	 mov	 eax, DWORD PTR _this$[ebp]
  000b2	c6 40 5a 00	 mov	 BYTE PTR [eax+90], 0

; 174  : 		this->GM_Manager			= false;

  000b6	8b 45 fc	 mov	 eax, DWORD PTR _this$[ebp]
  000b9	c6 40 5b 00	 mov	 BYTE PTR [eax+91], 0

; 175  : 		this->PerosnalStoreEx		= false;

  000bd	8b 45 fc	 mov	 eax, DWORD PTR _this$[ebp]
  000c0	c6 40 5c 00	 mov	 BYTE PTR [eax+92], 0

; 176  : 		this->PandoraEvent			= false;

  000c4	8b 45 fc	 mov	 eax, DWORD PTR _this$[ebp]
  000c7	c6 40 5d 00	 mov	 BYTE PTR [eax+93], 0

; 177  : 		this->AntiCheatPlus			= false;

  000cb	8b 45 fc	 mov	 eax, DWORD PTR _this$[ebp]
  000ce	c6 40 5e 00	 mov	 BYTE PTR [eax+94], 0

; 178  : 		this->ComboCustom			= false;

  000d2	8b 45 fc	 mov	 eax, DWORD PTR _this$[ebp]
  000d5	c6 40 60 00	 mov	 BYTE PTR [eax+96], 0

; 179  : 		this->NpcBuffer				= false;

  000d9	8b 45 fc	 mov	 eax, DWORD PTR _this$[ebp]
  000dc	c6 40 61 00	 mov	 BYTE PTR [eax+97], 0

; 180  : 		this->BMQuest				= false;

  000e0	8b 45 fc	 mov	 eax, DWORD PTR _this$[ebp]
  000e3	c6 40 62 00	 mov	 BYTE PTR [eax+98], 0

; 181  : 		this->LoraBattle			= false;

  000e7	8b 45 fc	 mov	 eax, DWORD PTR _this$[ebp]
  000ea	c6 40 63 00	 mov	 BYTE PTR [eax+99], 0

; 182  : 		this->Smithy				= false;

  000ee	8b 45 fc	 mov	 eax, DWORD PTR _this$[ebp]
  000f1	c6 40 64 00	 mov	 BYTE PTR [eax+100], 0

; 183  : 		this->Monster				= false;

  000f5	8b 45 fc	 mov	 eax, DWORD PTR _this$[ebp]
  000f8	c6 40 65 00	 mov	 BYTE PTR [eax+101], 0

; 184  : 		this->ItemSmokeEffect		= false;

  000fc	8b 45 fc	 mov	 eax, DWORD PTR _this$[ebp]
  000ff	c6 40 66 00	 mov	 BYTE PTR [eax+102], 0

; 185  : 		this->GrandDinamicExp       = false;

  00103	8b 45 fc	 mov	 eax, DWORD PTR _this$[ebp]
  00106	c6 40 67 00	 mov	 BYTE PTR [eax+103], 0

; 186  : 		this->PartySave				= false;

  0010a	8b 45 fc	 mov	 eax, DWORD PTR _this$[ebp]
  0010d	c6 40 68 00	 mov	 BYTE PTR [eax+104], 0

; 187  : 		this->DisableMasterTree		= false;

  00111	8b 45 fc	 mov	 eax, DWORD PTR _this$[ebp]
  00114	c6 40 69 00	 mov	 BYTE PTR [eax+105], 0

; 188  : 		this->OfflineMode			= false;

  00118	8b 45 fc	 mov	 eax, DWORD PTR _this$[ebp]
  0011b	c6 40 6a 00	 mov	 BYTE PTR [eax+106], 0

; 189  : 		this->Marriage				= false;

  0011f	8b 45 fc	 mov	 eax, DWORD PTR _this$[ebp]
  00122	c6 40 6b 00	 mov	 BYTE PTR [eax+107], 0

; 190  : 		this->MonsterAttackLife		= false;

  00126	8b 45 fc	 mov	 eax, DWORD PTR _this$[ebp]
  00129	c6 40 6c 00	 mov	 BYTE PTR [eax+108], 0

; 191  : 		this->bRankItem				= false;

  0012d	8b 45 fc	 mov	 eax, DWORD PTR _this$[ebp]
  00130	c6 40 6d 00	 mov	 BYTE PTR [eax+109], 0

; 192  : 		this->RestoreOffMode		= false;

  00134	8b 45 fc	 mov	 eax, DWORD PTR _this$[ebp]
  00137	c6 40 6e 00	 mov	 BYTE PTR [eax+110], 0

; 193  : 		this->MapQuest				= false;

  0013b	8b 45 fc	 mov	 eax, DWORD PTR _this$[ebp]
  0013e	c6 40 6f 00	 mov	 BYTE PTR [eax+111], 0

; 194  : 		this->bTeamVsTeam2			= false;

  00142	8b 45 fc	 mov	 eax, DWORD PTR _this$[ebp]
  00145	c6 40 70 00	 mov	 BYTE PTR [eax+112], 0

; 195  : 		this->bAchievements			= false;

  00149	8b 45 fc	 mov	 eax, DWORD PTR _this$[ebp]
  0014c	c6 40 71 00	 mov	 BYTE PTR [eax+113], 0

; 196  : 		this->PremiumEx				= false;

  00150	8b 45 fc	 mov	 eax, DWORD PTR _this$[ebp]
  00153	c6 40 72 00	 mov	 BYTE PTR [eax+114], 0

; 197  : 		this->AccSecurity			= false;

  00157	8b 45 fc	 mov	 eax, DWORD PTR _this$[ebp]
  0015a	c6 40 73 00	 mov	 BYTE PTR [eax+115], 0

; 198  : 		this->CraftQuestSystem		= false;

  0015e	8b 45 fc	 mov	 eax, DWORD PTR _this$[ebp]
  00161	c6 40 74 00	 mov	 BYTE PTR [eax+116], 0

; 199  : 		this->PickUpItemInfo		= false;

  00165	8b 45 fc	 mov	 eax, DWORD PTR _this$[ebp]
  00168	c6 40 75 00	 mov	 BYTE PTR [eax+117], 0

; 200  : 		this->ReferralSystem		= false;

  0016c	8b 45 fc	 mov	 eax, DWORD PTR _this$[ebp]
  0016f	c6 40 76 00	 mov	 BYTE PTR [eax+118], 0

; 201  : 	}

  00173	8b 45 fc	 mov	 eax, DWORD PTR _this$[ebp]
  00176	5f		 pop	 edi
  00177	5e		 pop	 esi
  00178	5b		 pop	 ebx
  00179	8b e5		 mov	 esp, ebp
  0017b	5d		 pop	 ebp
  0017c	c3		 ret	 0
??0LICENSE_DATA@@QAE@XZ ENDP				; LICENSE_DATA::LICENSE_DATA
_TEXT	ENDS
PUBLIC	??1CExLicense@@QAE@XZ				; CExLicense::~CExLicense
; Function compile flags: /Odtp /ZI /ZX
; File d:\projects\exteam6.3\source\gameserver\gameserver\exlicense.cpp
;	COMDAT ??1CExLicense@@QAE@XZ
_TEXT	SEGMENT
_this$ = -4						; size = 4
??1CExLicense@@QAE@XZ PROC				; CExLicense::~CExLicense, COMDAT
; _this$ = ecx

; 23   : {

  00000	55		 push	 ebp
  00001	8b ec		 mov	 ebp, esp
  00003	83 ec 44	 sub	 esp, 68			; 00000044H
  00006	53		 push	 ebx
  00007	56		 push	 esi
  00008	57		 push	 edi
  00009	89 4d fc	 mov	 DWORD PTR _this$[ebp], ecx

; 24   : }

  0000c	5f		 pop	 edi
  0000d	5e		 pop	 esi
  0000e	5b		 pop	 ebx
  0000f	8b e5		 mov	 esp, ebp
  00011	5d		 pop	 ebp
  00012	c3		 ret	 0
??1CExLicense@@QAE@XZ ENDP				; CExLicense::~CExLicense
; Function compile flags: /Odtp /ZI /ZX
_TEXT	ENDS
;	COMDAT ?Init@CExLicense@@QAEXXZ
_TEXT	SEGMENT
_this$ = -4						; size = 4
?Init@CExLicense@@QAEXXZ PROC				; CExLicense::Init, COMDAT
; _this$ = ecx

; 27   : {

  00000	55		 push	 ebp
  00001	8b ec		 mov	 ebp, esp
  00003	83 ec 44	 sub	 esp, 68			; 00000044H
  00006	53		 push	 ebx
  00007	56		 push	 esi
  00008	57		 push	 edi
  00009	89 4d fc	 mov	 DWORD PTR _this$[ebp], ecx

; 28   : 	VMBEGIN
; 29   : 	this->m_Enable = true;

  0000c	8b 45 fc	 mov	 eax, DWORD PTR _this$[ebp]
  0000f	c6 40 01 01	 mov	 BYTE PTR [eax+1], 1

; 30   : 	this->ActiveUser = -1;

  00013	83 c8 ff	 or	 eax, -1
  00016	8b 4d fc	 mov	 ecx, DWORD PTR _this$[ebp]
  00019	66 89 41 02	 mov	 WORD PTR [ecx+2], ax

; 31   : 	this->Exit = false;

  0001d	8b 45 fc	 mov	 eax, DWORD PTR _this$[ebp]
  00020	c6 40 04 00	 mov	 BYTE PTR [eax+4], 0

; 32   : 	this->ExitTime = 0;

  00024	8b 45 fc	 mov	 eax, DWORD PTR _this$[ebp]
  00027	c7 40 08 00 00
	00 00		 mov	 DWORD PTR [eax+8], 0

; 33   : 	this->NewVersion = false;

  0002e	8b 45 fc	 mov	 eax, DWORD PTR _this$[ebp]
  00031	c6 40 0c 00	 mov	 BYTE PTR [eax+12], 0

; 34   : 	this->DrawVersion = false;

  00035	8b 45 fc	 mov	 eax, DWORD PTR _this$[ebp]
  00038	c6 40 0d 00	 mov	 BYTE PTR [eax+13], 0

; 35   : 	this->m_WaitLicense = false;

  0003c	8b 45 fc	 mov	 eax, DWORD PTR _this$[ebp]
  0003f	c6 00 00	 mov	 BYTE PTR [eax], 0

; 36   : 	ZeroMemory(this->VersionNum,sizeof(this->VersionNum));

  00042	6a 32		 push	 50			; 00000032H
  00044	6a 00		 push	 0
  00046	8b 45 fc	 mov	 eax, DWORD PTR _this$[ebp]
  00049	83 c0 0e	 add	 eax, 14			; 0000000eH
  0004c	50		 push	 eax
  0004d	e8 00 00 00 00	 call	 _memset
  00052	83 c4 0c	 add	 esp, 12			; 0000000cH

; 37   : 	ZeroMemory(this->VersionDate,sizeof(this->VersionDate));

  00055	6a 32		 push	 50			; 00000032H
  00057	6a 00		 push	 0
  00059	8b 45 fc	 mov	 eax, DWORD PTR _this$[ebp]
  0005c	83 c0 40	 add	 eax, 64			; 00000040H
  0005f	50		 push	 eax
  00060	e8 00 00 00 00	 call	 _memset
  00065	83 c4 0c	 add	 esp, 12			; 0000000cH

; 38   : 	this->TextXoR[0] = 0x03;

  00068	8b 45 fc	 mov	 eax, DWORD PTR _this$[ebp]
  0006b	c6 40 72 03	 mov	 BYTE PTR [eax+114], 3

; 39   : 	this->TextXoR[1] = 0x05;

  0006f	8b 45 fc	 mov	 eax, DWORD PTR _this$[ebp]
  00072	c6 40 73 05	 mov	 BYTE PTR [eax+115], 5

; 40   : 	this->TextXoR[2] = 0x08;

  00076	8b 45 fc	 mov	 eax, DWORD PTR _this$[ebp]
  00079	c6 40 74 08	 mov	 BYTE PTR [eax+116], 8

; 41   : 	VMEND
; 42   : }

  0007d	5f		 pop	 edi
  0007e	5e		 pop	 esi
  0007f	5b		 pop	 ebx
  00080	8b e5		 mov	 esp, ebp
  00082	5d		 pop	 ebp
  00083	c3		 ret	 0
?Init@CExLicense@@QAEXXZ ENDP				; CExLicense::Init
_TEXT	ENDS
PUBLIC	?CheckLicense@CExLicense@@QAEXXZ		; CExLicense::CheckLicense
PUBLIC	?AddList@CExLicense@@QAEXXZ			; CExLicense::AddList
PUBLIC	?Load@CExLicense@@QAEXXZ			; CExLicense::Load
; Function compile flags: /Odtp /ZI /ZX
;	COMDAT ?Load@CExLicense@@QAEXXZ
_TEXT	SEGMENT
_this$ = -4						; size = 4
?Load@CExLicense@@QAEXXZ PROC				; CExLicense::Load, COMDAT
; _this$ = ecx

; 45   : {

  00000	55		 push	 ebp
  00001	8b ec		 mov	 ebp, esp
  00003	83 ec 44	 sub	 esp, 68			; 00000044H
  00006	53		 push	 ebx
  00007	56		 push	 esi
  00008	57		 push	 edi
  00009	89 4d fc	 mov	 DWORD PTR _this$[ebp], ecx

; 46   : 	VMBEGIN
; 47   : 	this->Init();

  0000c	8b 4d fc	 mov	 ecx, DWORD PTR _this$[ebp]
  0000f	e8 00 00 00 00	 call	 ?Init@CExLicense@@QAEXXZ ; CExLicense::Init

; 48   : 
; 49   : 	if(!this->m_Enable)

  00014	8b 45 fc	 mov	 eax, DWORD PTR _this$[ebp]
  00017	0f b6 48 01	 movzx	 ecx, BYTE PTR [eax+1]
  0001b	85 c9		 test	 ecx, ecx
  0001d	75 02		 jne	 SHORT $LN1@Load

; 50   : 	{
; 51   : 		return;

  0001f	eb 10		 jmp	 SHORT $LN2@Load
$LN1@Load:

; 52   : 	}
; 53   : 
; 54   : #if(EXLICENSE_SERVER)
; 55   : 	g_ExLicenseClient.Start();
; 56   : 
; 57   : 	int i = 0;
; 58   : 
; 59   : 	while(!g_ExLicense.m_WaitLicense)
; 60   : 	{
; 61   : 		if(i == 10)
; 62   : 		{
; 63   : 			ExitProcess(0);
; 64   : 		}
; 65   : 		i++;
; 66   : 		Sleep(1000);
; 67   : 	}
; 68   : #else
; 69   : 	this->AddList();

  00021	8b 4d fc	 mov	 ecx, DWORD PTR _this$[ebp]
  00024	e8 00 00 00 00	 call	 ?AddList@CExLicense@@QAEXXZ ; CExLicense::AddList

; 70   : 	this->CheckLicense();

  00029	8b 4d fc	 mov	 ecx, DWORD PTR _this$[ebp]
  0002c	e8 00 00 00 00	 call	 ?CheckLicense@CExLicense@@QAEXXZ ; CExLicense::CheckLicense
$LN2@Load:

; 71   : #endif
; 72   : 
; 73   : 
; 74   : 	   VMEND
; 75   : }

  00031	5f		 pop	 edi
  00032	5e		 pop	 esi
  00033	5b		 pop	 ebx
  00034	8b e5		 mov	 esp, ebp
  00036	5d		 pop	 ebp
  00037	c3		 ret	 0
?Load@CExLicense@@QAEXXZ ENDP				; CExLicense::Load
_TEXT	ENDS
PUBLIC	??_C@_0BC@MJGDIIP@00?915?95D?905?984?9FA?$AA@	; `string'
PUBLIC	??_C@_07IBLKGLGK@NSGames?$AA@			; `string'
PUBLIC	??_C@_0BC@MFOBODIL@02?90E?95D?900?93E?958?$AA@	; `string'
PUBLIC	??_C@_07EDGICHLJ@WarBorn?$AA@			; `string'
PUBLIC	??_C@_0BC@BKBJDNHK@00?915?95D?904?9F0?9D3?$AA@	; `string'
PUBLIC	??_C@_09JABDAIBF@eternalmu?$AA@			; `string'
PUBLIC	??_C@_0BC@HFJPNNME@02?90E?95D?900?93E?94F?$AA@	; `string'
PUBLIC	??_C@_06IAEIGBCI@mu4you?$AA@			; `string'
PUBLIC	??_C@_0BC@JBPNBCHA@02?911?95D?900?96B?9C4?$AA@	; `string'
PUBLIC	??_C@_05GBKOADG@MegaM?$AA@			; `string'
PUBLIC	??_C@_0M@JAOCFDKO@UpdateDebug?$AA@		; `string'
PUBLIC	??_C@_0N@HBPLJJOE@ProtectDebug?$AA@		; `string'
PUBLIC	??_C@_07JLEKCBMA@HomeLan?$AA@			; `string'
PUBLIC	??_C@_0BC@PDOAKHIO@02?912?95D?900?945?9DF?$AA@	; `string'
PUBLIC	??_C@_08GLLNHAIO@muheroia?$AA@			; `string'
PUBLIC	??_C@_0BC@PNPLLFGH@A4?9BF?901?923?98E?9D3?$AA@	; `string'
PUBLIC	??_C@_05KLCPPPH@ArcMu?$AA@			; `string'
PUBLIC	??_C@_07POKHNJJH@MuRelic?$AA@			; `string'
PUBLIC	??_C@_07CGJKJLEH@GloryMU?$AA@			; `string'
PUBLIC	??_C@_0BC@NDFIENCO@A6?9A1?904?98F?97C?9F2?$AA@	; `string'
PUBLIC	??_C@_0BC@KDCDCIGI@97?967?923?965?95A?90A?$AA@	; `string'
PUBLIC	??_C@_06FFKGKCBJ@DrXAOS?$AA@			; `string'
PUBLIC	??_C@_0BC@GMOMIGMA@02?905?95D?9CD?904?973?$AA@	; `string'
PUBLIC	??_C@_06CELJADEO@RevoMU?$AA@			; `string'
PUBLIC	??_C@_0BC@IGAMMAKI@00?901?95D?9D7?904?9C1?$AA@	; `string'
PUBLIC	??_C@_08MLNFFKLL@TGBA_LLC?$AA@			; `string'
PUBLIC	??_C@_0BC@MMDNDOFE@00?915?95D?91E?917?905?$AA@	; `string'
PUBLIC	??_C@_0P@NNDEBNIG@RafaelLorenzet?$AA@		; `string'
PUBLIC	??_C@_0BC@NGKMICPN@02?912?95D?900?945?990?$AA@	; `string'
PUBLIC	??_C@_08ECPAOEKJ@Escalate?$AA@			; `string'
PUBLIC	??_C@_0BC@CFLFIKCB@74?9D4?935?9FE?9B7?924?$AA@	; `string'
PUBLIC	??_C@_07NCLLHBFE@Almdar2?$AA@			; `string'
PUBLIC	??_C@_0BC@DHOALJDL@02?927?9D6?900?902?90D?$AA@	; `string'
PUBLIC	??_C@_07IMCFKMAL@AlterMU?$AA@			; `string'
PUBLIC	??_C@_0BC@NILJJNGM@00?950?956?904?983?904?$AA@	; `string'
PUBLIC	??_C@_0M@DGODHKFP@MatiasLeiva?$AA@		; `string'
PUBLIC	??_C@_06KGEGJNGH@masonX?$AA@			; `string'
PUBLIC	??_C@_0BC@IGHPDPED@00?915?95D?900?9F1?99E?$AA@	; `string'
PUBLIC	??_C@_06HNLNINMN@EpicMU?$AA@			; `string'
PUBLIC	??_C@_0BC@CJOLMMDO@00?90C?929?9A1?90B?93E?$AA@	; `string'
PUBLIC	??_C@_0L@BEJPBOMJ@thinnakorn?$AA@		; `string'
PUBLIC	??_C@_06HOCDPIKG@Almdar?$AA@			; `string'
PUBLIC	??_C@_08EJJHPIDO@Sentinel?$AA@			; `string'
PUBLIC	??_C@_0BC@FNJBNPPL@02?900?900?938?940?923?$AA@	; `string'
PUBLIC	??_C@_05PBPDPMJH@Stone?$AA@			; `string'
PUBLIC	??_C@_07OOBBHDME@MU2Play?$AA@			; `string'
PUBLIC	??_C@_0O@IFBPLBBM@bassreflexive?$AA@		; `string'
PUBLIC	??_C@_07BHGJDKOF@Eduardo?$AA@			; `string'
PUBLIC	??_C@_0BC@LMHCKMCN@A9?940?937?9E5?91B?98D?$AA@	; `string'
PUBLIC	??_C@_0N@KGBKHIAJ@MedoniAndrei?$AA@		; `string'
PUBLIC	??_C@_06GLNALPLK@Artem2?$AA@			; `string'
PUBLIC	??_C@_0BC@PLNCIHJC@D5?9C5?9AC?9A8?9EF?9C1?$AA@	; `string'
PUBLIC	??_C@_05HDDJBPNA@Artem?$AA@			; `string'
PUBLIC	??_C@_0BC@PIGEOJDP@0C?98B?9FD?9E3?998?905?$AA@	; `string'
PUBLIC	??_C@_04INGAGJAF@DICE?$AA@			; `string'
PUBLIC	??_C@_0N@DLCGCAMJ@MMProduction?$AA@		; `string'
PUBLIC	??_C@_06IDJMJNGD@Matias?$AA@			; `string'
PUBLIC	??_C@_0N@BNPEMOPD@SILVER_Local?$AA@		; `string'
PUBLIC	??_C@_0N@HJACENNP@maksim844495?$AA@		; `string'
PUBLIC	??_C@_07CPNOKJCH@Emanuel?$AA@			; `string'
PUBLIC	??_C@_0BB@LLHDAOFG@ConflictNoCustom?$AA@	; `string'
PUBLIC	??_C@_08OBJGEGGG@NoCustom?$AA@			; `string'
PUBLIC	??_C@_0L@GGEJJKBH@Selfmylife?$AA@		; `string'
PUBLIC	??_C@_0L@KLOBFJGO@ulasevich2?$AA@		; `string'
PUBLIC	??_C@_06FEDJGBKC@Pavel2?$AA@			; `string'
PUBLIC	??_C@_06PGBDFIHL@Gredy2?$AA@			; `string'
PUBLIC	??_C@_0L@GICEBPFC@GredyLocal?$AA@		; `string'
PUBLIC	??_C@_05GCKJHBFF@Gredy?$AA@			; `string'
PUBLIC	??_C@_08HKCMCAEE@testuser?$AA@			; `string'
PUBLIC	??_C@_06JGINLIFN@snaker?$AA@			; `string'
PUBLIC	??_C@_06PADEEIIM@Local3?$AA@			; `string'
PUBLIC	??_C@_06PBFOFDJF@lexbzk?$AA@			; `string'
PUBLIC	??_C@_0N@BCOPIGFB@PrideMuLocal?$AA@		; `string'
PUBLIC	??_C@_0P@KIIPBKHG@DavitRazmadze3?$AA@		; `string'
PUBLIC	??_C@_0P@LBJECLDH@DavitRazmadze2?$AA@		; `string'
PUBLIC	??_C@_06OJCPHJMN@Local2?$AA@			; `string'
PUBLIC	??_C@_0BC@LEDNONFN@00?925?922?9C2?9E0?9AF?$AA@	; `string'
PUBLIC	??_C@_09PILDGGKP@ulasevich?$AA@			; `string'
PUBLIC	??_C@_07GAMONHNE@Vadim_2?$AA@			; `string'
PUBLIC	??_C@_08FBDBDCDG@zerocool?$AA@			; `string'
PUBLIC	??_C@_07GKBNPIPP@Gints_2?$AA@			; `string'
PUBLIC	??_C@_09NJLHKBKI@Semushkin?$AA@			; `string'
PUBLIC	??_C@_0L@FHOCBAOK@Cherkashin?$AA@		; `string'
PUBLIC	??_C@_07NBLHAJFM@PrideMu?$AA@			; `string'
PUBLIC	??_C@_05CPOBNKHG@Pavel?$AA@			; `string'
PUBLIC	??_C@_06KMNNACKD@Encode?$AA@			; `string'
PUBLIC	??_C@_07NIDCDHPH@Daboy_2?$AA@			; `string'
PUBLIC	??_C@_07PDBPGEDE@Daboy_1?$AA@			; `string'
PUBLIC	??_C@_05FBEJNIK@spoke?$AA@			; `string'
PUBLIC	??_C@_06BBKAJNHI@lemiks?$AA@			; `string'
PUBLIC	??_C@_0BC@HJAFONKM@00?90C?929?969?96F?9EA?$AA@	; `string'
PUBLIC	??_C@_0O@FHBFECLL@DavitRazmadze?$AA@		; `string'
PUBLIC	??_C@_05BDKJGOFK@Vadim?$AA@			; `string'
PUBLIC	??_C@_0BC@BHGKHLPO@00?90C?929?947?97B?990?$AA@	; `string'
PUBLIC	??_C@_07HBKMBCMF@SILVER2?$AA@			; `string'
PUBLIC	??_C@_07FKIBEBAG@SILVER1?$AA@			; `string'
PUBLIC	??_C@_0N@OCAFKJBG@MarksSevcuks?$AA@		; `string'
PUBLIC	??_C@_07GAFEABAB@SaneaMD?$AA@			; `string'
PUBLIC	??_C@_05EEFBBLDN@Gints?$AA@			; `string'
PUBLIC	??_C@_07OPLAHNDK@exgames?$AA@			; `string'
PUBLIC	??_C@_03KHOBLPBG@t34?$AA@			; `string'
PUBLIC	??_C@_06EGEBLFBO@drynea?$AA@			; `string'
PUBLIC	??_C@_0BC@KHFNDHBO@00?9D8?961?918?9B0?9EA?$AA@	; `string'
PUBLIC	??_C@_05IEALKJIG@Local?$AA@			; `string'
EXTRN	_strcpy:PROC
;	COMDAT ??_C@_0BC@MJGDIIP@00?915?95D?905?984?9FA?$AA@
CONST	SEGMENT
??_C@_0BC@MJGDIIP@00?915?95D?905?984?9FA?$AA@ DB '00-15-5D-05-84-FA', 00H ; `string'
CONST	ENDS
;	COMDAT ??_C@_07IBLKGLGK@NSGames?$AA@
CONST	SEGMENT
??_C@_07IBLKGLGK@NSGames?$AA@ DB 'NSGames', 00H		; `string'
CONST	ENDS
;	COMDAT ??_C@_0BC@MFOBODIL@02?90E?95D?900?93E?958?$AA@
CONST	SEGMENT
??_C@_0BC@MFOBODIL@02?90E?95D?900?93E?958?$AA@ DB '02-0E-5D-00-3E-58', 00H ; `string'
CONST	ENDS
;	COMDAT ??_C@_07EDGICHLJ@WarBorn?$AA@
CONST	SEGMENT
??_C@_07EDGICHLJ@WarBorn?$AA@ DB 'WarBorn', 00H		; `string'
CONST	ENDS
;	COMDAT ??_C@_0BC@BKBJDNHK@00?915?95D?904?9F0?9D3?$AA@
CONST	SEGMENT
??_C@_0BC@BKBJDNHK@00?915?95D?904?9F0?9D3?$AA@ DB '00-15-5D-04-F0-D3', 00H ; `string'
CONST	ENDS
;	COMDAT ??_C@_09JABDAIBF@eternalmu?$AA@
CONST	SEGMENT
??_C@_09JABDAIBF@eternalmu?$AA@ DB 'eternalmu', 00H	; `string'
CONST	ENDS
;	COMDAT ??_C@_0BC@HFJPNNME@02?90E?95D?900?93E?94F?$AA@
CONST	SEGMENT
??_C@_0BC@HFJPNNME@02?90E?95D?900?93E?94F?$AA@ DB '02-0E-5D-00-3E-4F', 00H ; `string'
CONST	ENDS
;	COMDAT ??_C@_06IAEIGBCI@mu4you?$AA@
CONST	SEGMENT
??_C@_06IAEIGBCI@mu4you?$AA@ DB 'mu4you', 00H		; `string'
CONST	ENDS
;	COMDAT ??_C@_0BC@JBPNBCHA@02?911?95D?900?96B?9C4?$AA@
CONST	SEGMENT
??_C@_0BC@JBPNBCHA@02?911?95D?900?96B?9C4?$AA@ DB '02-11-5D-00-6B-C4', 00H ; `string'
CONST	ENDS
;	COMDAT ??_C@_05GBKOADG@MegaM?$AA@
CONST	SEGMENT
??_C@_05GBKOADG@MegaM?$AA@ DB 'MegaM', 00H		; `string'
CONST	ENDS
;	COMDAT ??_C@_0M@JAOCFDKO@UpdateDebug?$AA@
CONST	SEGMENT
??_C@_0M@JAOCFDKO@UpdateDebug?$AA@ DB 'UpdateDebug', 00H ; `string'
CONST	ENDS
;	COMDAT ??_C@_0N@HBPLJJOE@ProtectDebug?$AA@
CONST	SEGMENT
??_C@_0N@HBPLJJOE@ProtectDebug?$AA@ DB 'ProtectDebug', 00H ; `string'
CONST	ENDS
;	COMDAT ??_C@_07JLEKCBMA@HomeLan?$AA@
CONST	SEGMENT
??_C@_07JLEKCBMA@HomeLan?$AA@ DB 'HomeLan', 00H		; `string'
CONST	ENDS
;	COMDAT ??_C@_0BC@PDOAKHIO@02?912?95D?900?945?9DF?$AA@
CONST	SEGMENT
??_C@_0BC@PDOAKHIO@02?912?95D?900?945?9DF?$AA@ DB '02-12-5D-00-45-DF', 00H ; `string'
CONST	ENDS
;	COMDAT ??_C@_08GLLNHAIO@muheroia?$AA@
CONST	SEGMENT
??_C@_08GLLNHAIO@muheroia?$AA@ DB 'muheroia', 00H	; `string'
CONST	ENDS
;	COMDAT ??_C@_0BC@PNPLLFGH@A4?9BF?901?923?98E?9D3?$AA@
CONST	SEGMENT
??_C@_0BC@PNPLLFGH@A4?9BF?901?923?98E?9D3?$AA@ DB 'A4-BF-01-23-8E-D3', 00H ; `string'
CONST	ENDS
;	COMDAT ??_C@_05KLCPPPH@ArcMu?$AA@
CONST	SEGMENT
??_C@_05KLCPPPH@ArcMu?$AA@ DB 'ArcMu', 00H		; `string'
CONST	ENDS
;	COMDAT ??_C@_07POKHNJJH@MuRelic?$AA@
CONST	SEGMENT
??_C@_07POKHNJJH@MuRelic?$AA@ DB 'MuRelic', 00H		; `string'
CONST	ENDS
;	COMDAT ??_C@_07CGJKJLEH@GloryMU?$AA@
CONST	SEGMENT
??_C@_07CGJKJLEH@GloryMU?$AA@ DB 'GloryMU', 00H		; `string'
CONST	ENDS
;	COMDAT ??_C@_0BC@NDFIENCO@A6?9A1?904?98F?97C?9F2?$AA@
CONST	SEGMENT
??_C@_0BC@NDFIENCO@A6?9A1?904?98F?97C?9F2?$AA@ DB 'A6-A1-04-8F-7C-F2', 00H ; `string'
CONST	ENDS
;	COMDAT ??_C@_0BC@KDCDCIGI@97?967?923?965?95A?90A?$AA@
CONST	SEGMENT
??_C@_0BC@KDCDCIGI@97?967?923?965?95A?90A?$AA@ DB '97-67-23-65-5A-0A', 00H ; `string'
CONST	ENDS
;	COMDAT ??_C@_06FFKGKCBJ@DrXAOS?$AA@
CONST	SEGMENT
??_C@_06FFKGKCBJ@DrXAOS?$AA@ DB 'DrXAOS', 00H		; `string'
CONST	ENDS
;	COMDAT ??_C@_0BC@GMOMIGMA@02?905?95D?9CD?904?973?$AA@
CONST	SEGMENT
??_C@_0BC@GMOMIGMA@02?905?95D?9CD?904?973?$AA@ DB '02-05-5D-CD-04-73', 00H ; `string'
CONST	ENDS
;	COMDAT ??_C@_06CELJADEO@RevoMU?$AA@
CONST	SEGMENT
??_C@_06CELJADEO@RevoMU?$AA@ DB 'RevoMU', 00H		; `string'
CONST	ENDS
;	COMDAT ??_C@_0BC@IGAMMAKI@00?901?95D?9D7?904?9C1?$AA@
CONST	SEGMENT
??_C@_0BC@IGAMMAKI@00?901?95D?9D7?904?9C1?$AA@ DB '00-01-5D-D7-04-C1', 00H ; `string'
CONST	ENDS
;	COMDAT ??_C@_08MLNFFKLL@TGBA_LLC?$AA@
CONST	SEGMENT
??_C@_08MLNFFKLL@TGBA_LLC?$AA@ DB 'TGBA_LLC', 00H	; `string'
CONST	ENDS
;	COMDAT ??_C@_0BC@MMDNDOFE@00?915?95D?91E?917?905?$AA@
CONST	SEGMENT
??_C@_0BC@MMDNDOFE@00?915?95D?91E?917?905?$AA@ DB '00-15-5D-1E-17-05', 00H ; `string'
CONST	ENDS
;	COMDAT ??_C@_0P@NNDEBNIG@RafaelLorenzet?$AA@
CONST	SEGMENT
??_C@_0P@NNDEBNIG@RafaelLorenzet?$AA@ DB 'RafaelLorenzet', 00H ; `string'
CONST	ENDS
;	COMDAT ??_C@_0BC@NGKMICPN@02?912?95D?900?945?990?$AA@
CONST	SEGMENT
??_C@_0BC@NGKMICPN@02?912?95D?900?945?990?$AA@ DB '02-12-5D-00-45-90', 00H ; `string'
CONST	ENDS
;	COMDAT ??_C@_08ECPAOEKJ@Escalate?$AA@
CONST	SEGMENT
??_C@_08ECPAOEKJ@Escalate?$AA@ DB 'Escalate', 00H	; `string'
CONST	ENDS
;	COMDAT ??_C@_0BC@CFLFIKCB@74?9D4?935?9FE?9B7?924?$AA@
CONST	SEGMENT
??_C@_0BC@CFLFIKCB@74?9D4?935?9FE?9B7?924?$AA@ DB '74-D4-35-FE-B7-24', 00H ; `string'
CONST	ENDS
;	COMDAT ??_C@_07NCLLHBFE@Almdar2?$AA@
CONST	SEGMENT
??_C@_07NCLLHBFE@Almdar2?$AA@ DB 'Almdar2', 00H		; `string'
CONST	ENDS
;	COMDAT ??_C@_0BC@DHOALJDL@02?927?9D6?900?902?90D?$AA@
CONST	SEGMENT
??_C@_0BC@DHOALJDL@02?927?9D6?900?902?90D?$AA@ DB '02-27-D6-00-02-0D', 00H ; `string'
CONST	ENDS
;	COMDAT ??_C@_07IMCFKMAL@AlterMU?$AA@
CONST	SEGMENT
??_C@_07IMCFKMAL@AlterMU?$AA@ DB 'AlterMU', 00H		; `string'
CONST	ENDS
;	COMDAT ??_C@_0BC@NILJJNGM@00?950?956?904?983?904?$AA@
CONST	SEGMENT
??_C@_0BC@NILJJNGM@00?950?956?904?983?904?$AA@ DB '00-50-56-04-83-04', 00H ; `string'
CONST	ENDS
;	COMDAT ??_C@_0M@DGODHKFP@MatiasLeiva?$AA@
CONST	SEGMENT
??_C@_0M@DGODHKFP@MatiasLeiva?$AA@ DB 'MatiasLeiva', 00H ; `string'
CONST	ENDS
;	COMDAT ??_C@_06KGEGJNGH@masonX?$AA@
CONST	SEGMENT
??_C@_06KGEGJNGH@masonX?$AA@ DB 'masonX', 00H		; `string'
CONST	ENDS
;	COMDAT ??_C@_0BC@IGHPDPED@00?915?95D?900?9F1?99E?$AA@
CONST	SEGMENT
??_C@_0BC@IGHPDPED@00?915?95D?900?9F1?99E?$AA@ DB '00-15-5D-00-F1-9E', 00H ; `string'
CONST	ENDS
;	COMDAT ??_C@_06HNLNINMN@EpicMU?$AA@
CONST	SEGMENT
??_C@_06HNLNINMN@EpicMU?$AA@ DB 'EpicMU', 00H		; `string'
CONST	ENDS
;	COMDAT ??_C@_0BC@CJOLMMDO@00?90C?929?9A1?90B?93E?$AA@
CONST	SEGMENT
??_C@_0BC@CJOLMMDO@00?90C?929?9A1?90B?93E?$AA@ DB '00-0C-29-A1-0B-3E', 00H ; `string'
CONST	ENDS
;	COMDAT ??_C@_0L@BEJPBOMJ@thinnakorn?$AA@
CONST	SEGMENT
??_C@_0L@BEJPBOMJ@thinnakorn?$AA@ DB 'thinnakorn', 00H	; `string'
CONST	ENDS
;	COMDAT ??_C@_06HOCDPIKG@Almdar?$AA@
CONST	SEGMENT
??_C@_06HOCDPIKG@Almdar?$AA@ DB 'Almdar', 00H		; `string'
CONST	ENDS
;	COMDAT ??_C@_08EJJHPIDO@Sentinel?$AA@
CONST	SEGMENT
??_C@_08EJJHPIDO@Sentinel?$AA@ DB 'Sentinel', 00H	; `string'
CONST	ENDS
;	COMDAT ??_C@_0BC@FNJBNPPL@02?900?900?938?940?923?$AA@
CONST	SEGMENT
??_C@_0BC@FNJBNPPL@02?900?900?938?940?923?$AA@ DB '02-00-00-38-40-23', 00H ; `string'
CONST	ENDS
;	COMDAT ??_C@_05PBPDPMJH@Stone?$AA@
CONST	SEGMENT
??_C@_05PBPDPMJH@Stone?$AA@ DB 'Stone', 00H		; `string'
CONST	ENDS
;	COMDAT ??_C@_07OOBBHDME@MU2Play?$AA@
CONST	SEGMENT
??_C@_07OOBBHDME@MU2Play?$AA@ DB 'MU2Play', 00H		; `string'
CONST	ENDS
;	COMDAT ??_C@_0O@IFBPLBBM@bassreflexive?$AA@
CONST	SEGMENT
??_C@_0O@IFBPLBBM@bassreflexive?$AA@ DB 'bassreflexive', 00H ; `string'
CONST	ENDS
;	COMDAT ??_C@_07BHGJDKOF@Eduardo?$AA@
CONST	SEGMENT
??_C@_07BHGJDKOF@Eduardo?$AA@ DB 'Eduardo', 00H		; `string'
CONST	ENDS
;	COMDAT ??_C@_0BC@LMHCKMCN@A9?940?937?9E5?91B?98D?$AA@
CONST	SEGMENT
??_C@_0BC@LMHCKMCN@A9?940?937?9E5?91B?98D?$AA@ DB 'A9-40-37-E5-1B-8D', 00H ; `string'
CONST	ENDS
;	COMDAT ??_C@_0N@KGBKHIAJ@MedoniAndrei?$AA@
CONST	SEGMENT
??_C@_0N@KGBKHIAJ@MedoniAndrei?$AA@ DB 'MedoniAndrei', 00H ; `string'
CONST	ENDS
;	COMDAT ??_C@_06GLNALPLK@Artem2?$AA@
CONST	SEGMENT
??_C@_06GLNALPLK@Artem2?$AA@ DB 'Artem2', 00H		; `string'
CONST	ENDS
;	COMDAT ??_C@_0BC@PLNCIHJC@D5?9C5?9AC?9A8?9EF?9C1?$AA@
CONST	SEGMENT
??_C@_0BC@PLNCIHJC@D5?9C5?9AC?9A8?9EF?9C1?$AA@ DB 'D5-C5-AC-A8-EF-C1', 00H ; `string'
CONST	ENDS
;	COMDAT ??_C@_05HDDJBPNA@Artem?$AA@
CONST	SEGMENT
??_C@_05HDDJBPNA@Artem?$AA@ DB 'Artem', 00H		; `string'
CONST	ENDS
;	COMDAT ??_C@_0BC@PIGEOJDP@0C?98B?9FD?9E3?998?905?$AA@
CONST	SEGMENT
??_C@_0BC@PIGEOJDP@0C?98B?9FD?9E3?998?905?$AA@ DB '0C-8B-FD-E3-98-05', 00H ; `string'
CONST	ENDS
;	COMDAT ??_C@_04INGAGJAF@DICE?$AA@
CONST	SEGMENT
??_C@_04INGAGJAF@DICE?$AA@ DB 'DICE', 00H		; `string'
CONST	ENDS
;	COMDAT ??_C@_0N@DLCGCAMJ@MMProduction?$AA@
CONST	SEGMENT
??_C@_0N@DLCGCAMJ@MMProduction?$AA@ DB 'MMProduction', 00H ; `string'
CONST	ENDS
;	COMDAT ??_C@_06IDJMJNGD@Matias?$AA@
CONST	SEGMENT
??_C@_06IDJMJNGD@Matias?$AA@ DB 'Matias', 00H		; `string'
CONST	ENDS
;	COMDAT ??_C@_0N@BNPEMOPD@SILVER_Local?$AA@
CONST	SEGMENT
??_C@_0N@BNPEMOPD@SILVER_Local?$AA@ DB 'SILVER_Local', 00H ; `string'
CONST	ENDS
;	COMDAT ??_C@_0N@HJACENNP@maksim844495?$AA@
CONST	SEGMENT
??_C@_0N@HJACENNP@maksim844495?$AA@ DB 'maksim844495', 00H ; `string'
CONST	ENDS
;	COMDAT ??_C@_07CPNOKJCH@Emanuel?$AA@
CONST	SEGMENT
??_C@_07CPNOKJCH@Emanuel?$AA@ DB 'Emanuel', 00H		; `string'
CONST	ENDS
;	COMDAT ??_C@_0BB@LLHDAOFG@ConflictNoCustom?$AA@
CONST	SEGMENT
??_C@_0BB@LLHDAOFG@ConflictNoCustom?$AA@ DB 'ConflictNoCustom', 00H ; `string'
CONST	ENDS
;	COMDAT ??_C@_08OBJGEGGG@NoCustom?$AA@
CONST	SEGMENT
??_C@_08OBJGEGGG@NoCustom?$AA@ DB 'NoCustom', 00H	; `string'
CONST	ENDS
;	COMDAT ??_C@_0L@GGEJJKBH@Selfmylife?$AA@
CONST	SEGMENT
??_C@_0L@GGEJJKBH@Selfmylife?$AA@ DB 'Selfmylife', 00H	; `string'
CONST	ENDS
;	COMDAT ??_C@_0L@KLOBFJGO@ulasevich2?$AA@
CONST	SEGMENT
??_C@_0L@KLOBFJGO@ulasevich2?$AA@ DB 'ulasevich2', 00H	; `string'
CONST	ENDS
;	COMDAT ??_C@_06FEDJGBKC@Pavel2?$AA@
CONST	SEGMENT
??_C@_06FEDJGBKC@Pavel2?$AA@ DB 'Pavel2', 00H		; `string'
CONST	ENDS
;	COMDAT ??_C@_06PGBDFIHL@Gredy2?$AA@
CONST	SEGMENT
??_C@_06PGBDFIHL@Gredy2?$AA@ DB 'Gredy2', 00H		; `string'
CONST	ENDS
;	COMDAT ??_C@_0L@GICEBPFC@GredyLocal?$AA@
CONST	SEGMENT
??_C@_0L@GICEBPFC@GredyLocal?$AA@ DB 'GredyLocal', 00H	; `string'
CONST	ENDS
;	COMDAT ??_C@_05GCKJHBFF@Gredy?$AA@
CONST	SEGMENT
??_C@_05GCKJHBFF@Gredy?$AA@ DB 'Gredy', 00H		; `string'
CONST	ENDS
;	COMDAT ??_C@_08HKCMCAEE@testuser?$AA@
CONST	SEGMENT
??_C@_08HKCMCAEE@testuser?$AA@ DB 'testuser', 00H	; `string'
CONST	ENDS
;	COMDAT ??_C@_06JGINLIFN@snaker?$AA@
CONST	SEGMENT
??_C@_06JGINLIFN@snaker?$AA@ DB 'snaker', 00H		; `string'
CONST	ENDS
;	COMDAT ??_C@_06PADEEIIM@Local3?$AA@
CONST	SEGMENT
??_C@_06PADEEIIM@Local3?$AA@ DB 'Local3', 00H		; `string'
CONST	ENDS
;	COMDAT ??_C@_06PBFOFDJF@lexbzk?$AA@
CONST	SEGMENT
??_C@_06PBFOFDJF@lexbzk?$AA@ DB 'lexbzk', 00H		; `string'
CONST	ENDS
;	COMDAT ??_C@_0N@BCOPIGFB@PrideMuLocal?$AA@
CONST	SEGMENT
??_C@_0N@BCOPIGFB@PrideMuLocal?$AA@ DB 'PrideMuLocal', 00H ; `string'
CONST	ENDS
;	COMDAT ??_C@_0P@KIIPBKHG@DavitRazmadze3?$AA@
CONST	SEGMENT
??_C@_0P@KIIPBKHG@DavitRazmadze3?$AA@ DB 'DavitRazmadze3', 00H ; `string'
CONST	ENDS
;	COMDAT ??_C@_0P@LBJECLDH@DavitRazmadze2?$AA@
CONST	SEGMENT
??_C@_0P@LBJECLDH@DavitRazmadze2?$AA@ DB 'DavitRazmadze2', 00H ; `string'
CONST	ENDS
;	COMDAT ??_C@_06OJCPHJMN@Local2?$AA@
CONST	SEGMENT
??_C@_06OJCPHJMN@Local2?$AA@ DB 'Local2', 00H		; `string'
CONST	ENDS
;	COMDAT ??_C@_0BC@LEDNONFN@00?925?922?9C2?9E0?9AF?$AA@
CONST	SEGMENT
??_C@_0BC@LEDNONFN@00?925?922?9C2?9E0?9AF?$AA@ DB '00-25-22-C2-E0-AF', 00H ; `string'
CONST	ENDS
;	COMDAT ??_C@_09PILDGGKP@ulasevich?$AA@
CONST	SEGMENT
??_C@_09PILDGGKP@ulasevich?$AA@ DB 'ulasevich', 00H	; `string'
CONST	ENDS
;	COMDAT ??_C@_07GAMONHNE@Vadim_2?$AA@
CONST	SEGMENT
??_C@_07GAMONHNE@Vadim_2?$AA@ DB 'Vadim_2', 00H		; `string'
CONST	ENDS
;	COMDAT ??_C@_08FBDBDCDG@zerocool?$AA@
CONST	SEGMENT
??_C@_08FBDBDCDG@zerocool?$AA@ DB 'zerocool', 00H	; `string'
CONST	ENDS
;	COMDAT ??_C@_07GKBNPIPP@Gints_2?$AA@
CONST	SEGMENT
??_C@_07GKBNPIPP@Gints_2?$AA@ DB 'Gints_2', 00H		; `string'
CONST	ENDS
;	COMDAT ??_C@_09NJLHKBKI@Semushkin?$AA@
CONST	SEGMENT
??_C@_09NJLHKBKI@Semushkin?$AA@ DB 'Semushkin', 00H	; `string'
CONST	ENDS
;	COMDAT ??_C@_0L@FHOCBAOK@Cherkashin?$AA@
CONST	SEGMENT
??_C@_0L@FHOCBAOK@Cherkashin?$AA@ DB 'Cherkashin', 00H	; `string'
CONST	ENDS
;	COMDAT ??_C@_07NBLHAJFM@PrideMu?$AA@
CONST	SEGMENT
??_C@_07NBLHAJFM@PrideMu?$AA@ DB 'PrideMu', 00H		; `string'
CONST	ENDS
;	COMDAT ??_C@_05CPOBNKHG@Pavel?$AA@
CONST	SEGMENT
??_C@_05CPOBNKHG@Pavel?$AA@ DB 'Pavel', 00H		; `string'
CONST	ENDS
;	COMDAT ??_C@_06KMNNACKD@Encode?$AA@
CONST	SEGMENT
??_C@_06KMNNACKD@Encode?$AA@ DB 'Encode', 00H		; `string'
CONST	ENDS
;	COMDAT ??_C@_07NIDCDHPH@Daboy_2?$AA@
CONST	SEGMENT
??_C@_07NIDCDHPH@Daboy_2?$AA@ DB 'Daboy_2', 00H		; `string'
CONST	ENDS
;	COMDAT ??_C@_07PDBPGEDE@Daboy_1?$AA@
CONST	SEGMENT
??_C@_07PDBPGEDE@Daboy_1?$AA@ DB 'Daboy_1', 00H		; `string'
CONST	ENDS
;	COMDAT ??_C@_05FBEJNIK@spoke?$AA@
CONST	SEGMENT
??_C@_05FBEJNIK@spoke?$AA@ DB 'spoke', 00H		; `string'
CONST	ENDS
;	COMDAT ??_C@_06BBKAJNHI@lemiks?$AA@
CONST	SEGMENT
??_C@_06BBKAJNHI@lemiks?$AA@ DB 'lemiks', 00H		; `string'
CONST	ENDS
;	COMDAT ??_C@_0BC@HJAFONKM@00?90C?929?969?96F?9EA?$AA@
CONST	SEGMENT
??_C@_0BC@HJAFONKM@00?90C?929?969?96F?9EA?$AA@ DB '00-0C-29-69-6F-EA', 00H ; `string'
CONST	ENDS
;	COMDAT ??_C@_0O@FHBFECLL@DavitRazmadze?$AA@
CONST	SEGMENT
??_C@_0O@FHBFECLL@DavitRazmadze?$AA@ DB 'DavitRazmadze', 00H ; `string'
CONST	ENDS
;	COMDAT ??_C@_05BDKJGOFK@Vadim?$AA@
CONST	SEGMENT
??_C@_05BDKJGOFK@Vadim?$AA@ DB 'Vadim', 00H		; `string'
CONST	ENDS
;	COMDAT ??_C@_0BC@BHGKHLPO@00?90C?929?947?97B?990?$AA@
CONST	SEGMENT
??_C@_0BC@BHGKHLPO@00?90C?929?947?97B?990?$AA@ DB '00-0C-29-47-7B-90', 00H ; `string'
CONST	ENDS
;	COMDAT ??_C@_07HBKMBCMF@SILVER2?$AA@
CONST	SEGMENT
??_C@_07HBKMBCMF@SILVER2?$AA@ DB 'SILVER2', 00H		; `string'
CONST	ENDS
;	COMDAT ??_C@_07FKIBEBAG@SILVER1?$AA@
CONST	SEGMENT
??_C@_07FKIBEBAG@SILVER1?$AA@ DB 'SILVER1', 00H		; `string'
CONST	ENDS
;	COMDAT ??_C@_0N@OCAFKJBG@MarksSevcuks?$AA@
CONST	SEGMENT
??_C@_0N@OCAFKJBG@MarksSevcuks?$AA@ DB 'MarksSevcuks', 00H ; `string'
CONST	ENDS
;	COMDAT ??_C@_07GAFEABAB@SaneaMD?$AA@
CONST	SEGMENT
??_C@_07GAFEABAB@SaneaMD?$AA@ DB 'SaneaMD', 00H		; `string'
CONST	ENDS
;	COMDAT ??_C@_05EEFBBLDN@Gints?$AA@
CONST	SEGMENT
??_C@_05EEFBBLDN@Gints?$AA@ DB 'Gints', 00H		; `string'
CONST	ENDS
;	COMDAT ??_C@_07OPLAHNDK@exgames?$AA@
CONST	SEGMENT
??_C@_07OPLAHNDK@exgames?$AA@ DB 'exgames', 00H		; `string'
CONST	ENDS
;	COMDAT ??_C@_03KHOBLPBG@t34?$AA@
CONST	SEGMENT
??_C@_03KHOBLPBG@t34?$AA@ DB 't34', 00H			; `string'
CONST	ENDS
;	COMDAT ??_C@_06EGEBLFBO@drynea?$AA@
CONST	SEGMENT
??_C@_06EGEBLFBO@drynea?$AA@ DB 'drynea', 00H		; `string'
CONST	ENDS
;	COMDAT ??_C@_0BC@KHFNDHBO@00?9D8?961?918?9B0?9EA?$AA@
CONST	SEGMENT
??_C@_0BC@KHFNDHBO@00?9D8?961?918?9B0?9EA?$AA@ DB '00-D8-61-18-B0-EA', 00H ; `string'
CONST	ENDS
;	COMDAT ??_C@_05IEALKJIG@Local?$AA@
CONST	SEGMENT
??_C@_05IEALKJIG@Local?$AA@ DB 'Local', 00H		; `string'
; Function compile flags: /Odtp /ZI /ZX
CONST	ENDS
;	COMDAT ?AddList@CExLicense@@QAEXXZ
_TEXT	SEGMENT
_i$230664 = -8						; size = 4
_this$ = -4						; size = 4
?AddList@CExLicense@@QAEXXZ PROC			; CExLicense::AddList, COMDAT
; _this$ = ecx

; 79   : {

  00000	55		 push	 ebp
  00001	8b ec		 mov	 ebp, esp
  00003	83 ec 48	 sub	 esp, 72			; 00000048H
  00006	53		 push	 ebx
  00007	56		 push	 esi
  00008	57		 push	 edi
  00009	89 4d fc	 mov	 DWORD PTR _this$[ebp], ecx

; 80   : 	if(!this->m_Enable)

  0000c	8b 45 fc	 mov	 eax, DWORD PTR _this$[ebp]
  0000f	0f b6 48 01	 movzx	 ecx, BYTE PTR [eax+1]
  00013	85 c9		 test	 ecx, ecx
  00015	75 05		 jne	 SHORT $LN4@AddList

; 81   : 	{
; 82   : 		return;

  00017	e9 45 29 00 00	 jmp	 $LN5@AddList
$LN4@AddList:

; 83   : 	}
; 84   : 
; 85   : 	for(int i = 0; i < TOTAL_CLIENT; i++)

  0001c	c7 45 f8 00 00
	00 00		 mov	 DWORD PTR _i$230664[ebp], 0
  00023	eb 09		 jmp	 SHORT $LN3@AddList
$LN2@AddList:
  00025	8b 45 f8	 mov	 eax, DWORD PTR _i$230664[ebp]
  00028	83 c0 01	 add	 eax, 1
  0002b	89 45 f8	 mov	 DWORD PTR _i$230664[ebp], eax
$LN3@AddList:
  0002e	81 7d f8 c8 00
	00 00		 cmp	 DWORD PTR _i$230664[ebp], 200 ; 000000c8H
  00035	0f 8d ed 02 00
	00		 jge	 $LN1@AddList

; 86   : 	{
; 87   : 		ZeroMemory(this->List[i].Login, sizeof(this->List[i].Login));

  0003b	6a 19		 push	 25			; 00000019H
  0003d	6a 00		 push	 0
  0003f	8b 45 f8	 mov	 eax, DWORD PTR _i$230664[ebp]
  00042	6b c0 78	 imul	 eax, 120		; 00000078H
  00045	8b 4d fc	 mov	 ecx, DWORD PTR _this$[ebp]
  00048	8d 94 01 f0 00
	00 00		 lea	 edx, DWORD PTR [ecx+eax+240]
  0004f	52		 push	 edx
  00050	e8 00 00 00 00	 call	 _memset
  00055	83 c4 0c	 add	 esp, 12			; 0000000cH

; 88   : 		ZeroMemory(this->List[i].Password, sizeof(this->List[i].Password));

  00058	6a 0a		 push	 10			; 0000000aH
  0005a	6a 00		 push	 0
  0005c	8b 45 f8	 mov	 eax, DWORD PTR _i$230664[ebp]
  0005f	6b c0 78	 imul	 eax, 120		; 00000078H
  00062	8b 4d fc	 mov	 ecx, DWORD PTR _this$[ebp]
  00065	8d 94 01 09 01
	00 00		 lea	 edx, DWORD PTR [ecx+eax+265]
  0006c	52		 push	 edx
  0006d	e8 00 00 00 00	 call	 _memset
  00072	83 c4 0c	 add	 esp, 12			; 0000000cH

; 89   : 		this->List[i].hwid				= 0;

  00075	8b 45 f8	 mov	 eax, DWORD PTR _i$230664[ebp]
  00078	6b c0 78	 imul	 eax, 120		; 00000078H
  0007b	8b 4d fc	 mov	 ecx, DWORD PTR _this$[ebp]
  0007e	c7 84 01 14 01
	00 00 00 00 00
	00		 mov	 DWORD PTR [ecx+eax+276], 0

; 90   : 		this->List[i].mac[0]		= NULL;

  00089	8b 45 f8	 mov	 eax, DWORD PTR _i$230664[ebp]
  0008c	6b c0 78	 imul	 eax, 120		; 00000078H
  0008f	8b 4d fc	 mov	 ecx, DWORD PTR _this$[ebp]
  00092	c6 84 01 18 01
	00 00 00	 mov	 BYTE PTR [ecx+eax+280], 0

; 91   : 		this->List[i].Credit				= 0;

  0009a	8b 45 f8	 mov	 eax, DWORD PTR _i$230664[ebp]
  0009d	6b c0 78	 imul	 eax, 120		; 00000078H
  000a0	8b 4d fc	 mov	 ecx, DWORD PTR _this$[ebp]
  000a3	c7 84 01 3c 01
	00 00 00 00 00
	00		 mov	 DWORD PTR [ecx+eax+316], 0

; 92   : 		this->List[i].Baned					= false;

  000ae	8b 45 f8	 mov	 eax, DWORD PTR _i$230664[ebp]
  000b1	6b c0 78	 imul	 eax, 120		; 00000078H
  000b4	8b 4d fc	 mov	 ecx, DWORD PTR _this$[ebp]
  000b7	c6 84 01 40 01
	00 00 00	 mov	 BYTE PTR [ecx+eax+320], 0

; 93   : 		this->List[i].Rage					= false;

  000bf	8b 45 f8	 mov	 eax, DWORD PTR _i$230664[ebp]
  000c2	6b c0 78	 imul	 eax, 120		; 00000078H
  000c5	8b 4d fc	 mov	 ecx, DWORD PTR _this$[ebp]
  000c8	c6 84 01 41 01
	00 00 00	 mov	 BYTE PTR [ecx+eax+321], 0

; 94   : 		this->List[i].WinQuest				= false;

  000d0	8b 45 f8	 mov	 eax, DWORD PTR _i$230664[ebp]
  000d3	6b c0 78	 imul	 eax, 120		; 00000078H
  000d6	8b 4d fc	 mov	 ecx, DWORD PTR _this$[ebp]
  000d9	c6 84 01 42 01
	00 00 00	 mov	 BYTE PTR [ecx+eax+322], 0

; 95   : 		this->List[i].BloodHound			= false;

  000e1	8b 45 f8	 mov	 eax, DWORD PTR _i$230664[ebp]
  000e4	6b c0 78	 imul	 eax, 120		; 00000078H
  000e7	8b 4d fc	 mov	 ecx, DWORD PTR _this$[ebp]
  000ea	c6 84 01 43 01
	00 00 00	 mov	 BYTE PTR [ecx+eax+323], 0

; 96   : 		this->List[i].MonsterQuest			= false;

  000f2	8b 45 f8	 mov	 eax, DWORD PTR _i$230664[ebp]
  000f5	6b c0 78	 imul	 eax, 120		; 00000078H
  000f8	8b 4d fc	 mov	 ecx, DWORD PTR _this$[ebp]
  000fb	c6 84 01 44 01
	00 00 00	 mov	 BYTE PTR [ecx+eax+324], 0

; 97   : 		this->List[i].TvTEvent				= false;

  00103	8b 45 f8	 mov	 eax, DWORD PTR _i$230664[ebp]
  00106	6b c0 78	 imul	 eax, 120		; 00000078H
  00109	8b 4d fc	 mov	 ecx, DWORD PTR _this$[ebp]
  0010c	c6 84 01 45 01
	00 00 00	 mov	 BYTE PTR [ecx+eax+325], 0

; 98   : 		this->List[i].GrandHero				= false;

  00114	8b 45 f8	 mov	 eax, DWORD PTR _i$230664[ebp]
  00117	6b c0 78	 imul	 eax, 120		; 00000078H
  0011a	8b 4d fc	 mov	 ecx, DWORD PTR _this$[ebp]
  0011d	c6 84 01 46 01
	00 00 00	 mov	 BYTE PTR [ecx+eax+326], 0

; 99   : 		this->List[i].PartySystem			= false;

  00125	8b 45 f8	 mov	 eax, DWORD PTR _i$230664[ebp]
  00128	6b c0 78	 imul	 eax, 120		; 00000078H
  0012b	8b 4d fc	 mov	 ecx, DWORD PTR _this$[ebp]
  0012e	c6 84 01 47 01
	00 00 00	 mov	 BYTE PTR [ecx+eax+327], 0

; 100  : 		this->List[i].Brotherhood			= false;

  00136	8b 45 f8	 mov	 eax, DWORD PTR _i$230664[ebp]
  00139	6b c0 78	 imul	 eax, 120		; 00000078H
  0013c	8b 4d fc	 mov	 ecx, DWORD PTR _this$[ebp]
  0013f	c6 84 01 48 01
	00 00 00	 mov	 BYTE PTR [ecx+eax+328], 0

; 101  : 		this->List[i].PartySearch			= false;

  00147	8b 45 f8	 mov	 eax, DWORD PTR _i$230664[ebp]
  0014a	6b c0 78	 imul	 eax, 120		; 00000078H
  0014d	8b 4d fc	 mov	 ecx, DWORD PTR _this$[ebp]
  00150	c6 84 01 49 01
	00 00 00	 mov	 BYTE PTR [ecx+eax+329], 0

; 102  : 		this->List[i].ChatLog				= false;

  00158	8b 45 f8	 mov	 eax, DWORD PTR _i$230664[ebp]
  0015b	6b c0 78	 imul	 eax, 120		; 00000078H
  0015e	8b 4d fc	 mov	 ecx, DWORD PTR _this$[ebp]
  00161	c6 84 01 4a 01
	00 00 00	 mov	 BYTE PTR [ecx+eax+330], 0

; 103  : 		this->List[i].GM_Manager			= false;

  00169	8b 45 f8	 mov	 eax, DWORD PTR _i$230664[ebp]
  0016c	6b c0 78	 imul	 eax, 120		; 00000078H
  0016f	8b 4d fc	 mov	 ecx, DWORD PTR _this$[ebp]
  00172	c6 84 01 4b 01
	00 00 00	 mov	 BYTE PTR [ecx+eax+331], 0

; 104  : 		this->List[i].PerosnalStoreEx		= false;

  0017a	8b 45 f8	 mov	 eax, DWORD PTR _i$230664[ebp]
  0017d	6b c0 78	 imul	 eax, 120		; 00000078H
  00180	8b 4d fc	 mov	 ecx, DWORD PTR _this$[ebp]
  00183	c6 84 01 4c 01
	00 00 00	 mov	 BYTE PTR [ecx+eax+332], 0

; 105  : 		this->List[i].PandoraEvent			= false;

  0018b	8b 45 f8	 mov	 eax, DWORD PTR _i$230664[ebp]
  0018e	6b c0 78	 imul	 eax, 120		; 00000078H
  00191	8b 4d fc	 mov	 ecx, DWORD PTR _this$[ebp]
  00194	c6 84 01 4d 01
	00 00 00	 mov	 BYTE PTR [ecx+eax+333], 0

; 106  : 		this->List[i].AntiCheatPlus			= false;

  0019c	8b 45 f8	 mov	 eax, DWORD PTR _i$230664[ebp]
  0019f	6b c0 78	 imul	 eax, 120		; 00000078H
  001a2	8b 4d fc	 mov	 ecx, DWORD PTR _this$[ebp]
  001a5	c6 84 01 4e 01
	00 00 00	 mov	 BYTE PTR [ecx+eax+334], 0

; 107  : 		this->List[i].ComboCustom			= false;

  001ad	8b 45 f8	 mov	 eax, DWORD PTR _i$230664[ebp]
  001b0	6b c0 78	 imul	 eax, 120		; 00000078H
  001b3	8b 4d fc	 mov	 ecx, DWORD PTR _this$[ebp]
  001b6	c6 84 01 50 01
	00 00 00	 mov	 BYTE PTR [ecx+eax+336], 0

; 108  : 		this->List[i].NpcBuffer				= false;

  001be	8b 45 f8	 mov	 eax, DWORD PTR _i$230664[ebp]
  001c1	6b c0 78	 imul	 eax, 120		; 00000078H
  001c4	8b 4d fc	 mov	 ecx, DWORD PTR _this$[ebp]
  001c7	c6 84 01 51 01
	00 00 00	 mov	 BYTE PTR [ecx+eax+337], 0

; 109  : 		this->List[i].BMQuest				= false;

  001cf	8b 45 f8	 mov	 eax, DWORD PTR _i$230664[ebp]
  001d2	6b c0 78	 imul	 eax, 120		; 00000078H
  001d5	8b 4d fc	 mov	 ecx, DWORD PTR _this$[ebp]
  001d8	c6 84 01 52 01
	00 00 00	 mov	 BYTE PTR [ecx+eax+338], 0

; 110  : 		this->List[i].LoraBattle			= false;

  001e0	8b 45 f8	 mov	 eax, DWORD PTR _i$230664[ebp]
  001e3	6b c0 78	 imul	 eax, 120		; 00000078H
  001e6	8b 4d fc	 mov	 ecx, DWORD PTR _this$[ebp]
  001e9	c6 84 01 53 01
	00 00 00	 mov	 BYTE PTR [ecx+eax+339], 0

; 111  : 		this->List[i].Smithy				= false;

  001f1	8b 45 f8	 mov	 eax, DWORD PTR _i$230664[ebp]
  001f4	6b c0 78	 imul	 eax, 120		; 00000078H
  001f7	8b 4d fc	 mov	 ecx, DWORD PTR _this$[ebp]
  001fa	c6 84 01 54 01
	00 00 00	 mov	 BYTE PTR [ecx+eax+340], 0

; 112  : 		this->List[i].Monster				= false;

  00202	8b 45 f8	 mov	 eax, DWORD PTR _i$230664[ebp]
  00205	6b c0 78	 imul	 eax, 120		; 00000078H
  00208	8b 4d fc	 mov	 ecx, DWORD PTR _this$[ebp]
  0020b	c6 84 01 55 01
	00 00 00	 mov	 BYTE PTR [ecx+eax+341], 0

; 113  : 		this->List[i].ItemSmokeEffect		= false;

  00213	8b 45 f8	 mov	 eax, DWORD PTR _i$230664[ebp]
  00216	6b c0 78	 imul	 eax, 120		; 00000078H
  00219	8b 4d fc	 mov	 ecx, DWORD PTR _this$[ebp]
  0021c	c6 84 01 56 01
	00 00 00	 mov	 BYTE PTR [ecx+eax+342], 0

; 114  : 		this->List[i].GrandDinamicExp       = false;

  00224	8b 45 f8	 mov	 eax, DWORD PTR _i$230664[ebp]
  00227	6b c0 78	 imul	 eax, 120		; 00000078H
  0022a	8b 4d fc	 mov	 ecx, DWORD PTR _this$[ebp]
  0022d	c6 84 01 57 01
	00 00 00	 mov	 BYTE PTR [ecx+eax+343], 0

; 115  : 		this->List[i].PartySave				= false;

  00235	8b 45 f8	 mov	 eax, DWORD PTR _i$230664[ebp]
  00238	6b c0 78	 imul	 eax, 120		; 00000078H
  0023b	8b 4d fc	 mov	 ecx, DWORD PTR _this$[ebp]
  0023e	c6 84 01 58 01
	00 00 00	 mov	 BYTE PTR [ecx+eax+344], 0

; 116  : 		this->List[i].DisableMasterTree		= false;

  00246	8b 45 f8	 mov	 eax, DWORD PTR _i$230664[ebp]
  00249	6b c0 78	 imul	 eax, 120		; 00000078H
  0024c	8b 4d fc	 mov	 ecx, DWORD PTR _this$[ebp]
  0024f	c6 84 01 59 01
	00 00 00	 mov	 BYTE PTR [ecx+eax+345], 0

; 117  : 		this->List[i].OfflineMode			= false;

  00257	8b 45 f8	 mov	 eax, DWORD PTR _i$230664[ebp]
  0025a	6b c0 78	 imul	 eax, 120		; 00000078H
  0025d	8b 4d fc	 mov	 ecx, DWORD PTR _this$[ebp]
  00260	c6 84 01 5a 01
	00 00 00	 mov	 BYTE PTR [ecx+eax+346], 0

; 118  : 		this->List[i].Marriage				= false;

  00268	8b 45 f8	 mov	 eax, DWORD PTR _i$230664[ebp]
  0026b	6b c0 78	 imul	 eax, 120		; 00000078H
  0026e	8b 4d fc	 mov	 ecx, DWORD PTR _this$[ebp]
  00271	c6 84 01 5b 01
	00 00 00	 mov	 BYTE PTR [ecx+eax+347], 0

; 119  : 		this->List[i].bRankItem				= false;

  00279	8b 45 f8	 mov	 eax, DWORD PTR _i$230664[ebp]
  0027c	6b c0 78	 imul	 eax, 120		; 00000078H
  0027f	8b 4d fc	 mov	 ecx, DWORD PTR _this$[ebp]
  00282	c6 84 01 5d 01
	00 00 00	 mov	 BYTE PTR [ecx+eax+349], 0

; 120  : 		this->List[i].RestoreOffMode		= false;

  0028a	8b 45 f8	 mov	 eax, DWORD PTR _i$230664[ebp]
  0028d	6b c0 78	 imul	 eax, 120		; 00000078H
  00290	8b 4d fc	 mov	 ecx, DWORD PTR _this$[ebp]
  00293	c6 84 01 5e 01
	00 00 00	 mov	 BYTE PTR [ecx+eax+350], 0

; 121  : 		this->List[i].MapQuest				= false;

  0029b	8b 45 f8	 mov	 eax, DWORD PTR _i$230664[ebp]
  0029e	6b c0 78	 imul	 eax, 120		; 00000078H
  002a1	8b 4d fc	 mov	 ecx, DWORD PTR _this$[ebp]
  002a4	c6 84 01 5f 01
	00 00 00	 mov	 BYTE PTR [ecx+eax+351], 0

; 122  : 		this->List[i].bTeamVsTeam2          = false;

  002ac	8b 45 f8	 mov	 eax, DWORD PTR _i$230664[ebp]
  002af	6b c0 78	 imul	 eax, 120		; 00000078H
  002b2	8b 4d fc	 mov	 ecx, DWORD PTR _this$[ebp]
  002b5	c6 84 01 60 01
	00 00 00	 mov	 BYTE PTR [ecx+eax+352], 0

; 123  : 		this->List[i].bAchievements			= false;

  002bd	8b 45 f8	 mov	 eax, DWORD PTR _i$230664[ebp]
  002c0	6b c0 78	 imul	 eax, 120		; 00000078H
  002c3	8b 4d fc	 mov	 ecx, DWORD PTR _this$[ebp]
  002c6	c6 84 01 61 01
	00 00 00	 mov	 BYTE PTR [ecx+eax+353], 0

; 124  : 		this->List[i].PremiumEx				= false;

  002ce	8b 45 f8	 mov	 eax, DWORD PTR _i$230664[ebp]
  002d1	6b c0 78	 imul	 eax, 120		; 00000078H
  002d4	8b 4d fc	 mov	 ecx, DWORD PTR _this$[ebp]
  002d7	c6 84 01 62 01
	00 00 00	 mov	 BYTE PTR [ecx+eax+354], 0

; 125  : 		this->List[i].AccSecurity			= false;

  002df	8b 45 f8	 mov	 eax, DWORD PTR _i$230664[ebp]
  002e2	6b c0 78	 imul	 eax, 120		; 00000078H
  002e5	8b 4d fc	 mov	 ecx, DWORD PTR _this$[ebp]
  002e8	c6 84 01 63 01
	00 00 00	 mov	 BYTE PTR [ecx+eax+355], 0

; 126  : 		this->List[i].CraftQuestSystem		= false;

  002f0	8b 45 f8	 mov	 eax, DWORD PTR _i$230664[ebp]
  002f3	6b c0 78	 imul	 eax, 120		; 00000078H
  002f6	8b 4d fc	 mov	 ecx, DWORD PTR _this$[ebp]
  002f9	c6 84 01 64 01
	00 00 00	 mov	 BYTE PTR [ecx+eax+356], 0

; 127  : 		this->List[i].PickUpItemInfo		= false;

  00301	8b 45 f8	 mov	 eax, DWORD PTR _i$230664[ebp]
  00304	6b c0 78	 imul	 eax, 120		; 00000078H
  00307	8b 4d fc	 mov	 ecx, DWORD PTR _this$[ebp]
  0030a	c6 84 01 65 01
	00 00 00	 mov	 BYTE PTR [ecx+eax+357], 0

; 128  : 		this->List[i].ReferralSystem		= false;

  00312	8b 45 f8	 mov	 eax, DWORD PTR _i$230664[ebp]
  00315	6b c0 78	 imul	 eax, 120		; 00000078H
  00318	8b 4d fc	 mov	 ecx, DWORD PTR _this$[ebp]
  0031b	c6 84 01 66 01
	00 00 00	 mov	 BYTE PTR [ecx+eax+358], 0

; 129  : 	}

  00323	e9 fd fc ff ff	 jmp	 $LN2@AddList
$LN1@AddList:

; 130  : 
; 131  : 		strcpy(this->List[eExUB::Local].Login,			"Local");

  00328	68 00 00 00 00	 push	 OFFSET ??_C@_05IEALKJIG@Local?$AA@
  0032d	8b 45 fc	 mov	 eax, DWORD PTR _this$[ebp]
  00330	05 f0 00 00 00	 add	 eax, 240		; 000000f0H
  00335	50		 push	 eax
  00336	e8 00 00 00 00	 call	 _strcpy
  0033b	83 c4 08	 add	 esp, 8

; 132  : 	this->List[eExUB::Local].hwid					= 2349491840;	// Rusek Local;147494269;Rusek VPS;3595081207

  0033e	8b 45 fc	 mov	 eax, DWORD PTR _this$[ebp]
  00341	c7 80 14 01 00
	00 80 66 0a 8c	 mov	 DWORD PTR [eax+276], -1945475456 ; 8c0a6680H

; 133  : 	strcpy(this->List[eExUB::Local].mac,			"00-D8-61-18-B0-EA"); // Rusek Local;08-00-27-15-15-AD;Rusek VPS;00-25-22-A8-A2-9E

  0034b	68 00 00 00 00	 push	 OFFSET ??_C@_0BC@KHFNDHBO@00?9D8?961?918?9B0?9EA?$AA@
  00350	8b 45 fc	 mov	 eax, DWORD PTR _this$[ebp]
  00353	05 18 01 00 00	 add	 eax, 280		; 00000118H
  00358	50		 push	 eax
  00359	e8 00 00 00 00	 call	 _strcpy
  0035e	83 c4 08	 add	 esp, 8

; 134  : 		this->List[eExUB::Local].Rage					= true;

  00361	8b 45 fc	 mov	 eax, DWORD PTR _this$[ebp]
  00364	c6 80 41 01 00
	00 01		 mov	 BYTE PTR [eax+321], 1

; 135  : 		this->List[eExUB::Local].WinQuest				= true;

  0036b	8b 45 fc	 mov	 eax, DWORD PTR _this$[ebp]
  0036e	c6 80 42 01 00
	00 01		 mov	 BYTE PTR [eax+322], 1

; 136  : 		this->List[eExUB::Local].BloodHound				= true;

  00375	8b 45 fc	 mov	 eax, DWORD PTR _this$[ebp]
  00378	c6 80 43 01 00
	00 01		 mov	 BYTE PTR [eax+323], 1

; 137  : 		this->List[eExUB::Local].MonsterQuest			= true;

  0037f	8b 45 fc	 mov	 eax, DWORD PTR _this$[ebp]
  00382	c6 80 44 01 00
	00 01		 mov	 BYTE PTR [eax+324], 1

; 138  : 		this->List[eExUB::Local].TvTEvent				= true;

  00389	8b 45 fc	 mov	 eax, DWORD PTR _this$[ebp]
  0038c	c6 80 45 01 00
	00 01		 mov	 BYTE PTR [eax+325], 1

; 139  : 		this->List[eExUB::Local].GrandHero				= true;

  00393	8b 45 fc	 mov	 eax, DWORD PTR _this$[ebp]
  00396	c6 80 46 01 00
	00 01		 mov	 BYTE PTR [eax+326], 1

; 140  : 		this->List[eExUB::Local].PartySystem			= true;

  0039d	8b 45 fc	 mov	 eax, DWORD PTR _this$[ebp]
  003a0	c6 80 47 01 00
	00 01		 mov	 BYTE PTR [eax+327], 1

; 141  : 		this->List[eExUB::Local].Brotherhood			= true;

  003a7	8b 45 fc	 mov	 eax, DWORD PTR _this$[ebp]
  003aa	c6 80 48 01 00
	00 01		 mov	 BYTE PTR [eax+328], 1

; 142  : 		this->List[eExUB::Local].PartySearch			= true;

  003b1	8b 45 fc	 mov	 eax, DWORD PTR _this$[ebp]
  003b4	c6 80 49 01 00
	00 01		 mov	 BYTE PTR [eax+329], 1

; 143  : 		this->List[eExUB::Local].ChatLog				= true;

  003bb	8b 45 fc	 mov	 eax, DWORD PTR _this$[ebp]
  003be	c6 80 4a 01 00
	00 01		 mov	 BYTE PTR [eax+330], 1

; 144  : 		this->List[eExUB::Local].GM_Manager				= true;

  003c5	8b 45 fc	 mov	 eax, DWORD PTR _this$[ebp]
  003c8	c6 80 4b 01 00
	00 01		 mov	 BYTE PTR [eax+331], 1

; 145  : 		this->List[eExUB::Local].PerosnalStoreEx		= true;

  003cf	8b 45 fc	 mov	 eax, DWORD PTR _this$[ebp]
  003d2	c6 80 4c 01 00
	00 01		 mov	 BYTE PTR [eax+332], 1

; 146  : 		this->List[eExUB::Local].PandoraEvent			= true;

  003d9	8b 45 fc	 mov	 eax, DWORD PTR _this$[ebp]
  003dc	c6 80 4d 01 00
	00 01		 mov	 BYTE PTR [eax+333], 1

; 147  : 		this->List[eExUB::Local].AntiCheatPlus			= true;

  003e3	8b 45 fc	 mov	 eax, DWORD PTR _this$[ebp]
  003e6	c6 80 4e 01 00
	00 01		 mov	 BYTE PTR [eax+334], 1

; 148  : 		this->List[eExUB::Local].ComboCustom			= true;

  003ed	8b 45 fc	 mov	 eax, DWORD PTR _this$[ebp]
  003f0	c6 80 50 01 00
	00 01		 mov	 BYTE PTR [eax+336], 1

; 149  : 		this->List[eExUB::Local].NpcBuffer				= true;

  003f7	8b 45 fc	 mov	 eax, DWORD PTR _this$[ebp]
  003fa	c6 80 51 01 00
	00 01		 mov	 BYTE PTR [eax+337], 1

; 150  : 		this->List[eExUB::Local].BMQuest				= true;

  00401	8b 45 fc	 mov	 eax, DWORD PTR _this$[ebp]
  00404	c6 80 52 01 00
	00 01		 mov	 BYTE PTR [eax+338], 1

; 151  : 		this->List[eExUB::Local].LoraBattle				= true;

  0040b	8b 45 fc	 mov	 eax, DWORD PTR _this$[ebp]
  0040e	c6 80 53 01 00
	00 01		 mov	 BYTE PTR [eax+339], 1

; 152  : 		this->List[eExUB::Local].Smithy					= true;

  00415	8b 45 fc	 mov	 eax, DWORD PTR _this$[ebp]
  00418	c6 80 54 01 00
	00 01		 mov	 BYTE PTR [eax+340], 1

; 153  : 		this->List[eExUB::Local].Monster				= true;

  0041f	8b 45 fc	 mov	 eax, DWORD PTR _this$[ebp]
  00422	c6 80 55 01 00
	00 01		 mov	 BYTE PTR [eax+341], 1

; 154  : 		this->List[eExUB::Local].ItemSmokeEffect		= true;

  00429	8b 45 fc	 mov	 eax, DWORD PTR _this$[ebp]
  0042c	c6 80 56 01 00
	00 01		 mov	 BYTE PTR [eax+342], 1

; 155  : 		this->List[eExUB::Local].GrandDinamicExp		= true;

  00433	8b 45 fc	 mov	 eax, DWORD PTR _this$[ebp]
  00436	c6 80 57 01 00
	00 01		 mov	 BYTE PTR [eax+343], 1

; 156  : 		this->List[eExUB::Local].PartySave				= true;

  0043d	8b 45 fc	 mov	 eax, DWORD PTR _this$[ebp]
  00440	c6 80 58 01 00
	00 01		 mov	 BYTE PTR [eax+344], 1

; 157  : 		this->List[eExUB::Local].DisableMasterTree		= true;

  00447	8b 45 fc	 mov	 eax, DWORD PTR _this$[ebp]
  0044a	c6 80 59 01 00
	00 01		 mov	 BYTE PTR [eax+345], 1

; 158  : 		this->List[eExUB::Local].OfflineMode			= true;

  00451	8b 45 fc	 mov	 eax, DWORD PTR _this$[ebp]
  00454	c6 80 5a 01 00
	00 01		 mov	 BYTE PTR [eax+346], 1

; 159  : 		this->List[eExUB::Local].Marriage				= true;

  0045b	8b 45 fc	 mov	 eax, DWORD PTR _this$[ebp]
  0045e	c6 80 5b 01 00
	00 01		 mov	 BYTE PTR [eax+347], 1

; 160  : 		this->List[eExUB::Local].bRankItem				= true;

  00465	8b 45 fc	 mov	 eax, DWORD PTR _this$[ebp]
  00468	c6 80 5d 01 00
	00 01		 mov	 BYTE PTR [eax+349], 1

; 161  : 		this->List[eExUB::Local].RestoreOffMode			= true;

  0046f	8b 45 fc	 mov	 eax, DWORD PTR _this$[ebp]
  00472	c6 80 5e 01 00
	00 01		 mov	 BYTE PTR [eax+350], 1

; 162  : 		this->List[eExUB::Local].MapQuest				= true;

  00479	8b 45 fc	 mov	 eax, DWORD PTR _this$[ebp]
  0047c	c6 80 5f 01 00
	00 01		 mov	 BYTE PTR [eax+351], 1

; 163  : 		this->List[eExUB::Local].bTeamVsTeam2			= true;

  00483	8b 45 fc	 mov	 eax, DWORD PTR _this$[ebp]
  00486	c6 80 60 01 00
	00 01		 mov	 BYTE PTR [eax+352], 1

; 164  : 		this->List[eExUB::Local].bAchievements			= true;

  0048d	8b 45 fc	 mov	 eax, DWORD PTR _this$[ebp]
  00490	c6 80 61 01 00
	00 01		 mov	 BYTE PTR [eax+353], 1

; 165  : 		this->List[eExUB::Local].PremiumEx				= true;

  00497	8b 45 fc	 mov	 eax, DWORD PTR _this$[ebp]
  0049a	c6 80 62 01 00
	00 01		 mov	 BYTE PTR [eax+354], 1

; 166  : 		this->List[eExUB::Local].AccSecurity			= true;

  004a1	8b 45 fc	 mov	 eax, DWORD PTR _this$[ebp]
  004a4	c6 80 63 01 00
	00 01		 mov	 BYTE PTR [eax+355], 1

; 167  : 		this->List[eExUB::Local].CraftQuestSystem		= true;

  004ab	8b 45 fc	 mov	 eax, DWORD PTR _this$[ebp]
  004ae	c6 80 64 01 00
	00 01		 mov	 BYTE PTR [eax+356], 1

; 168  : 		this->List[eExUB::Local].PickUpItemInfo			= true;

  004b5	8b 45 fc	 mov	 eax, DWORD PTR _this$[ebp]
  004b8	c6 80 65 01 00
	00 01		 mov	 BYTE PTR [eax+357], 1

; 169  : 		this->List[eExUB::Local].ReferralSystem			= true;

  004bf	8b 45 fc	 mov	 eax, DWORD PTR _this$[ebp]
  004c2	c6 80 66 01 00
	00 01		 mov	 BYTE PTR [eax+358], 1

; 170  : 	// ----
; 171  : 	strcpy(this->List[eExUB::drynea].Login,			"drynea");

  004c9	68 00 00 00 00	 push	 OFFSET ??_C@_06EGEBLFBO@drynea?$AA@
  004ce	8b 45 fc	 mov	 eax, DWORD PTR _this$[ebp]
  004d1	05 68 01 00 00	 add	 eax, 360		; 00000168H
  004d6	50		 push	 eax
  004d7	e8 00 00 00 00	 call	 _strcpy
  004dc	83 c4 08	 add	 esp, 8

; 172  : 	this->List[eExUB::drynea].hwid				= 1922075450;

  004df	8b 45 fc	 mov	 eax, DWORD PTR _this$[ebp]
  004e2	c7 80 8c 01 00
	00 3a 8b 90 72	 mov	 DWORD PTR [eax+396], 1922075450 ; 72908b3aH

; 173  : 	this->List[eExUB::drynea].Rage					= true;

  004ec	8b 45 fc	 mov	 eax, DWORD PTR _this$[ebp]
  004ef	c6 80 b9 01 00
	00 01		 mov	 BYTE PTR [eax+441], 1

; 174  : 	this->List[eExUB::drynea].TvTEvent				= true;

  004f6	8b 45 fc	 mov	 eax, DWORD PTR _this$[ebp]
  004f9	c6 80 bd 01 00
	00 01		 mov	 BYTE PTR [eax+445], 1

; 175  : 	this->List[eExUB::drynea].Monster				= true;

  00500	8b 45 fc	 mov	 eax, DWORD PTR _this$[ebp]
  00503	c6 80 cd 01 00
	00 01		 mov	 BYTE PTR [eax+461], 1

; 176  : 	this->List[eExUB::drynea].ItemSmokeEffect		= true;

  0050a	8b 45 fc	 mov	 eax, DWORD PTR _this$[ebp]
  0050d	c6 80 ce 01 00
	00 01		 mov	 BYTE PTR [eax+462], 1

; 177  : 	// ----
; 178  : 	strcpy(this->List[eExUB::t34].Login,			"t34");

  00514	68 00 00 00 00	 push	 OFFSET ??_C@_03KHOBLPBG@t34?$AA@
  00519	8b 45 fc	 mov	 eax, DWORD PTR _this$[ebp]
  0051c	05 e0 01 00 00	 add	 eax, 480		; 000001e0H
  00521	50		 push	 eax
  00522	e8 00 00 00 00	 call	 _strcpy
  00527	83 c4 08	 add	 esp, 8

; 179  : 	this->List[eExUB::t34].hwid					= 1352569343;

  0052a	8b 45 fc	 mov	 eax, DWORD PTR _this$[ebp]
  0052d	c7 80 04 02 00
	00 ff 91 9e 50	 mov	 DWORD PTR [eax+516], 1352569343 ; 509e91ffH

; 180  : 	// ----
; 181  : 	strcpy(this->List[eExUB::exgames].Login,		"exgames");

  00537	68 00 00 00 00	 push	 OFFSET ??_C@_07OPLAHNDK@exgames?$AA@
  0053c	8b 45 fc	 mov	 eax, DWORD PTR _this$[ebp]
  0053f	05 58 02 00 00	 add	 eax, 600		; 00000258H
  00544	50		 push	 eax
  00545	e8 00 00 00 00	 call	 _strcpy
  0054a	83 c4 08	 add	 esp, 8

; 182  : 	this->List[eExUB::exgames].hwid				= 183346987;

  0054d	8b 45 fc	 mov	 eax, DWORD PTR _this$[ebp]
  00550	c7 80 7c 02 00
	00 2b a7 ed 0a	 mov	 DWORD PTR [eax+636], 183346987 ; 0aeda72bH

; 183  : 	this->List[eExUB::exgames].Rage					= true;

  0055a	8b 45 fc	 mov	 eax, DWORD PTR _this$[ebp]
  0055d	c6 80 a9 02 00
	00 01		 mov	 BYTE PTR [eax+681], 1

; 184  : 	// ----
; 185  : 	strcpy(this->List[eExUB::Gints].Login,			"Gints");

  00564	68 00 00 00 00	 push	 OFFSET ??_C@_05EEFBBLDN@Gints?$AA@
  00569	8b 45 fc	 mov	 eax, DWORD PTR _this$[ebp]
  0056c	05 d0 02 00 00	 add	 eax, 720		; 000002d0H
  00571	50		 push	 eax
  00572	e8 00 00 00 00	 call	 _strcpy
  00577	83 c4 08	 add	 esp, 8

; 186  : 	this->List[eExUB::Gints].hwid					= 524162253;//524162253;

  0057a	8b 45 fc	 mov	 eax, DWORD PTR _this$[ebp]
  0057d	c7 80 f4 02 00
	00 cd 14 3e 1f	 mov	 DWORD PTR [eax+756], 524162253 ; 1f3e14cdH

; 187  : 	this->List[eExUB::Gints].Rage					= true;

  00587	8b 45 fc	 mov	 eax, DWORD PTR _this$[ebp]
  0058a	c6 80 21 03 00
	00 01		 mov	 BYTE PTR [eax+801], 1

; 188  : 	this->List[eExUB::Gints].PartySystem			= true;

  00591	8b 45 fc	 mov	 eax, DWORD PTR _this$[ebp]
  00594	c6 80 27 03 00
	00 01		 mov	 BYTE PTR [eax+807], 1

; 189  : 	this->List[eExUB::Gints].MonsterQuest			= true;

  0059b	8b 45 fc	 mov	 eax, DWORD PTR _this$[ebp]
  0059e	c6 80 24 03 00
	00 01		 mov	 BYTE PTR [eax+804], 1

; 190  : 	this->List[eExUB::Gints].AntiCheatPlus			= true;

  005a5	8b 45 fc	 mov	 eax, DWORD PTR _this$[ebp]
  005a8	c6 80 2e 03 00
	00 01		 mov	 BYTE PTR [eax+814], 1

; 191  : 	this->List[eExUB::Gints].ComboCustom			= true;

  005af	8b 45 fc	 mov	 eax, DWORD PTR _this$[ebp]
  005b2	c6 80 30 03 00
	00 01		 mov	 BYTE PTR [eax+816], 1

; 192  : 	this->List[eExUB::Gints].Brotherhood			= true;

  005b9	8b 45 fc	 mov	 eax, DWORD PTR _this$[ebp]
  005bc	c6 80 28 03 00
	00 01		 mov	 BYTE PTR [eax+808], 1

; 193  : 	this->List[eExUB::Gints].NpcBuffer				= true;

  005c3	8b 45 fc	 mov	 eax, DWORD PTR _this$[ebp]
  005c6	c6 80 31 03 00
	00 01		 mov	 BYTE PTR [eax+817], 1

; 194  : 	this->List[eExUB::Gints].Monster				= true;

  005cd	8b 45 fc	 mov	 eax, DWORD PTR _this$[ebp]
  005d0	c6 80 35 03 00
	00 01		 mov	 BYTE PTR [eax+821], 1

; 195  : 	this->List[eExUB::Gints].ItemSmokeEffect		= true;

  005d7	8b 45 fc	 mov	 eax, DWORD PTR _this$[ebp]
  005da	c6 80 36 03 00
	00 01		 mov	 BYTE PTR [eax+822], 1

; 196  : 	// ----
; 197  : 	strcpy(this->List[eExUB::SaneaMD].Login,		"SaneaMD");

  005e1	68 00 00 00 00	 push	 OFFSET ??_C@_07GAFEABAB@SaneaMD?$AA@
  005e6	8b 45 fc	 mov	 eax, DWORD PTR _this$[ebp]
  005e9	05 48 03 00 00	 add	 eax, 840		; 00000348H
  005ee	50		 push	 eax
  005ef	e8 00 00 00 00	 call	 _strcpy
  005f4	83 c4 08	 add	 esp, 8

; 198  : 	this->List[eExUB::SaneaMD].hwid				= 807882591;//3859230483;

  005f7	8b 45 fc	 mov	 eax, DWORD PTR _this$[ebp]
  005fa	c7 80 6c 03 00
	00 5f 4f 27 30	 mov	 DWORD PTR [eax+876], 807882591 ; 30274f5fH

; 199  : 	this->List[eExUB::SaneaMD].Rage					= true;

  00604	8b 45 fc	 mov	 eax, DWORD PTR _this$[ebp]
  00607	c6 80 99 03 00
	00 01		 mov	 BYTE PTR [eax+921], 1

; 200  : 	// ----
; 201  : 	strcpy(this->List[eExUB::MarksSevcuks].Login,	"MarksSevcuks");

  0060e	68 00 00 00 00	 push	 OFFSET ??_C@_0N@OCAFKJBG@MarksSevcuks?$AA@
  00613	8b 45 fc	 mov	 eax, DWORD PTR _this$[ebp]
  00616	05 c0 03 00 00	 add	 eax, 960		; 000003c0H
  0061b	50		 push	 eax
  0061c	e8 00 00 00 00	 call	 _strcpy
  00621	83 c4 08	 add	 esp, 8

; 202  : 	this->List[eExUB::MarksSevcuks].hwid			= 3760116472;

  00624	8b 45 fc	 mov	 eax, DWORD PTR _this$[ebp]
  00627	c7 80 e4 03 00
	00 f8 d2 1e e0	 mov	 DWORD PTR [eax+996], -534850824 ; e01ed2f8H

; 203  : 	// ----
; 204  : 	strcpy(this->List[eExUB::SILVER1].Login,		"SILVER1");

  00631	68 00 00 00 00	 push	 OFFSET ??_C@_07FKIBEBAG@SILVER1?$AA@
  00636	8b 45 fc	 mov	 eax, DWORD PTR _this$[ebp]
  00639	05 38 04 00 00	 add	 eax, 1080		; 00000438H
  0063e	50		 push	 eax
  0063f	e8 00 00 00 00	 call	 _strcpy
  00644	83 c4 08	 add	 esp, 8

; 205  : 	this->List[eExUB::SILVER1].hwid					= 2162254266; // 3237505581;

  00647	8b 45 fc	 mov	 eax, DWORD PTR _this$[ebp]
  0064a	c7 80 5c 04 00
	00 ba 61 e1 80	 mov	 DWORD PTR [eax+1116], -2132713030 ; 80e161baH

; 206  : 	this->List[eExUB::SILVER1].Rage					= true;

  00654	8b 45 fc	 mov	 eax, DWORD PTR _this$[ebp]
  00657	c6 80 89 04 00
	00 01		 mov	 BYTE PTR [eax+1161], 1

; 207  : 	this->List[eExUB::SILVER1].TvTEvent				= true;

  0065e	8b 45 fc	 mov	 eax, DWORD PTR _this$[ebp]
  00661	c6 80 8d 04 00
	00 01		 mov	 BYTE PTR [eax+1165], 1

; 208  : 	this->List[eExUB::SILVER1].Brotherhood			= true;

  00668	8b 45 fc	 mov	 eax, DWORD PTR _this$[ebp]
  0066b	c6 80 90 04 00
	00 01		 mov	 BYTE PTR [eax+1168], 1

; 209  : 	this->List[eExUB::SILVER1].PartySearch			= true;

  00672	8b 45 fc	 mov	 eax, DWORD PTR _this$[ebp]
  00675	c6 80 91 04 00
	00 01		 mov	 BYTE PTR [eax+1169], 1

; 210  : 	this->List[eExUB::SILVER1].PartySystem			= true;

  0067c	8b 45 fc	 mov	 eax, DWORD PTR _this$[ebp]
  0067f	c6 80 8f 04 00
	00 01		 mov	 BYTE PTR [eax+1167], 1

; 211  : 	this->List[eExUB::SILVER1].ChatLog				= true;

  00686	8b 45 fc	 mov	 eax, DWORD PTR _this$[ebp]
  00689	c6 80 92 04 00
	00 01		 mov	 BYTE PTR [eax+1170], 1

; 212  : 	this->List[eExUB::SILVER1].GM_Manager			= true;

  00690	8b 45 fc	 mov	 eax, DWORD PTR _this$[ebp]
  00693	c6 80 93 04 00
	00 01		 mov	 BYTE PTR [eax+1171], 1

; 213  : 	this->List[eExUB::SILVER1].PerosnalStoreEx		= true;

  0069a	8b 45 fc	 mov	 eax, DWORD PTR _this$[ebp]
  0069d	c6 80 94 04 00
	00 01		 mov	 BYTE PTR [eax+1172], 1

; 214  : 	this->List[eExUB::SILVER1].PartySave			= true;

  006a4	8b 45 fc	 mov	 eax, DWORD PTR _this$[ebp]
  006a7	c6 80 a0 04 00
	00 01		 mov	 BYTE PTR [eax+1184], 1

; 215  : 	this->List[eExUB::SILVER1].Smithy				= true;

  006ae	8b 45 fc	 mov	 eax, DWORD PTR _this$[ebp]
  006b1	c6 80 9c 04 00
	00 01		 mov	 BYTE PTR [eax+1180], 1

; 216  : 	this->List[eExUB::SILVER1].OfflineMode			= true;

  006b8	8b 45 fc	 mov	 eax, DWORD PTR _this$[ebp]
  006bb	c6 80 a2 04 00
	00 01		 mov	 BYTE PTR [eax+1186], 1

; 217  : 	this->List[eExUB::SILVER1].bRankItem			= true;

  006c2	8b 45 fc	 mov	 eax, DWORD PTR _this$[ebp]
  006c5	c6 80 a5 04 00
	00 01		 mov	 BYTE PTR [eax+1189], 1

; 218  : 	this->List[eExUB::SILVER1].bAchievements		= true;

  006cc	8b 45 fc	 mov	 eax, DWORD PTR _this$[ebp]
  006cf	c6 80 a9 04 00
	00 01		 mov	 BYTE PTR [eax+1193], 1

; 219  : 	this->List[eExUB::SILVER1].bTeamVsTeam2			= true;

  006d6	8b 45 fc	 mov	 eax, DWORD PTR _this$[ebp]
  006d9	c6 80 a8 04 00
	00 01		 mov	 BYTE PTR [eax+1192], 1

; 220  : 	this->List[eExUB::SILVER1].GrandDinamicExp		= true;

  006e0	8b 45 fc	 mov	 eax, DWORD PTR _this$[ebp]
  006e3	c6 80 9f 04 00
	00 01		 mov	 BYTE PTR [eax+1183], 1

; 221  : 	this->List[eExUB::SILVER1].RestoreOffMode		= true;

  006ea	8b 45 fc	 mov	 eax, DWORD PTR _this$[ebp]
  006ed	c6 80 a6 04 00
	00 01		 mov	 BYTE PTR [eax+1190], 1

; 222  : 	this->List[eExUB::SILVER1].PremiumEx			= true;

  006f4	8b 45 fc	 mov	 eax, DWORD PTR _this$[ebp]
  006f7	c6 80 aa 04 00
	00 01		 mov	 BYTE PTR [eax+1194], 1

; 223  : 	// ----
; 224  : 	strcpy(this->List[eExUB::SILVER2].Login,		"SILVER2");

  006fe	68 00 00 00 00	 push	 OFFSET ??_C@_07HBKMBCMF@SILVER2?$AA@
  00703	8b 45 fc	 mov	 eax, DWORD PTR _this$[ebp]
  00706	05 b0 04 00 00	 add	 eax, 1200		; 000004b0H
  0070b	50		 push	 eax
  0070c	e8 00 00 00 00	 call	 _strcpy
  00711	83 c4 08	 add	 esp, 8

; 225  : 	//this->List[eExUB::SILVER2].hwid					= 2502590384;	
; 226  : 	this->List[eExUB::SILVER2].hwid					= 2082356317;	

  00714	8b 45 fc	 mov	 eax, DWORD PTR _this$[ebp]
  00717	c7 80 d4 04 00
	00 5d 3c 1e 7c	 mov	 DWORD PTR [eax+1236], 2082356317 ; 7c1e3c5dH

; 227  : 	strcpy(this->List[eExUB::SILVER2].mac,		"00-0C-29-47-7B-90");

  00721	68 00 00 00 00	 push	 OFFSET ??_C@_0BC@BHGKHLPO@00?90C?929?947?97B?990?$AA@
  00726	8b 45 fc	 mov	 eax, DWORD PTR _this$[ebp]
  00729	05 d8 04 00 00	 add	 eax, 1240		; 000004d8H
  0072e	50		 push	 eax
  0072f	e8 00 00 00 00	 call	 _strcpy
  00734	83 c4 08	 add	 esp, 8

; 228  : 	this->List[eExUB::SILVER2].Rage					= true;

  00737	8b 45 fc	 mov	 eax, DWORD PTR _this$[ebp]
  0073a	c6 80 01 05 00
	00 01		 mov	 BYTE PTR [eax+1281], 1

; 229  : 	this->List[eExUB::SILVER2].TvTEvent				= true;

  00741	8b 45 fc	 mov	 eax, DWORD PTR _this$[ebp]
  00744	c6 80 05 05 00
	00 01		 mov	 BYTE PTR [eax+1285], 1

; 230  : 	this->List[eExUB::SILVER2].Brotherhood			= true;

  0074b	8b 45 fc	 mov	 eax, DWORD PTR _this$[ebp]
  0074e	c6 80 08 05 00
	00 01		 mov	 BYTE PTR [eax+1288], 1

; 231  : 	this->List[eExUB::SILVER2].PartySearch			= true;

  00755	8b 45 fc	 mov	 eax, DWORD PTR _this$[ebp]
  00758	c6 80 09 05 00
	00 01		 mov	 BYTE PTR [eax+1289], 1

; 232  : 	this->List[eExUB::SILVER2].PartySystem			= true;

  0075f	8b 45 fc	 mov	 eax, DWORD PTR _this$[ebp]
  00762	c6 80 07 05 00
	00 01		 mov	 BYTE PTR [eax+1287], 1

; 233  : 	this->List[eExUB::SILVER2].ChatLog				= true;

  00769	8b 45 fc	 mov	 eax, DWORD PTR _this$[ebp]
  0076c	c6 80 0a 05 00
	00 01		 mov	 BYTE PTR [eax+1290], 1

; 234  : 	this->List[eExUB::SILVER2].GM_Manager			= true;

  00773	8b 45 fc	 mov	 eax, DWORD PTR _this$[ebp]
  00776	c6 80 0b 05 00
	00 01		 mov	 BYTE PTR [eax+1291], 1

; 235  : 	this->List[eExUB::SILVER2].PerosnalStoreEx		= true;

  0077d	8b 45 fc	 mov	 eax, DWORD PTR _this$[ebp]
  00780	c6 80 0c 05 00
	00 01		 mov	 BYTE PTR [eax+1292], 1

; 236  : 	this->List[eExUB::SILVER2].PartySave			= true;

  00787	8b 45 fc	 mov	 eax, DWORD PTR _this$[ebp]
  0078a	c6 80 18 05 00
	00 01		 mov	 BYTE PTR [eax+1304], 1

; 237  : 	this->List[eExUB::SILVER2].Smithy				= true;

  00791	8b 45 fc	 mov	 eax, DWORD PTR _this$[ebp]
  00794	c6 80 14 05 00
	00 01		 mov	 BYTE PTR [eax+1300], 1

; 238  : 	this->List[eExUB::SILVER2].OfflineMode			= true;

  0079b	8b 45 fc	 mov	 eax, DWORD PTR _this$[ebp]
  0079e	c6 80 1a 05 00
	00 01		 mov	 BYTE PTR [eax+1306], 1

; 239  : 	this->List[eExUB::SILVER2].bRankItem			= true;

  007a5	8b 45 fc	 mov	 eax, DWORD PTR _this$[ebp]
  007a8	c6 80 1d 05 00
	00 01		 mov	 BYTE PTR [eax+1309], 1

; 240  : 	this->List[eExUB::SILVER2].bAchievements		= true;

  007af	8b 45 fc	 mov	 eax, DWORD PTR _this$[ebp]
  007b2	c6 80 21 05 00
	00 01		 mov	 BYTE PTR [eax+1313], 1

; 241  : 	this->List[eExUB::SILVER2].bTeamVsTeam2			= true;

  007b9	8b 45 fc	 mov	 eax, DWORD PTR _this$[ebp]
  007bc	c6 80 20 05 00
	00 01		 mov	 BYTE PTR [eax+1312], 1

; 242  : 	this->List[eExUB::SILVER2].GrandDinamicExp		= true;

  007c3	8b 45 fc	 mov	 eax, DWORD PTR _this$[ebp]
  007c6	c6 80 17 05 00
	00 01		 mov	 BYTE PTR [eax+1303], 1

; 243  : 	this->List[eExUB::SILVER2].RestoreOffMode		= true;

  007cd	8b 45 fc	 mov	 eax, DWORD PTR _this$[ebp]
  007d0	c6 80 1e 05 00
	00 01		 mov	 BYTE PTR [eax+1310], 1

; 244  : 	this->List[eExUB::SILVER2].PremiumEx			= true;

  007d7	8b 45 fc	 mov	 eax, DWORD PTR _this$[ebp]
  007da	c6 80 22 05 00
	00 01		 mov	 BYTE PTR [eax+1314], 1

; 245  : 	// ----
; 246  : 	strcpy(this->List[eExUB::Vadim].Login,			"Vadim");

  007e1	68 00 00 00 00	 push	 OFFSET ??_C@_05BDKJGOFK@Vadim?$AA@
  007e6	8b 45 fc	 mov	 eax, DWORD PTR _this$[ebp]
  007e9	05 28 05 00 00	 add	 eax, 1320		; 00000528H
  007ee	50		 push	 eax
  007ef	e8 00 00 00 00	 call	 _strcpy
  007f4	83 c4 08	 add	 esp, 8

; 247  : 	this->List[eExUB::Vadim].hwid					= 99415930;

  007f7	8b 45 fc	 mov	 eax, DWORD PTR _this$[ebp]
  007fa	c7 80 4c 05 00
	00 7a f7 ec 05	 mov	 DWORD PTR [eax+1356], 99415930 ; 05ecf77aH

; 248  : 	this->List[eExUB::Vadim].Rage					= true;

  00804	8b 45 fc	 mov	 eax, DWORD PTR _this$[ebp]
  00807	c6 80 79 05 00
	00 01		 mov	 BYTE PTR [eax+1401], 1

; 249  : 	// ----
; 250  : 	strcpy(this->List[eExUB::DavitRazmadze].Login, "DavitRazmadze");

  0080e	68 00 00 00 00	 push	 OFFSET ??_C@_0O@FHBFECLL@DavitRazmadze?$AA@
  00813	8b 45 fc	 mov	 eax, DWORD PTR _this$[ebp]
  00816	05 a0 05 00 00	 add	 eax, 1440		; 000005a0H
  0081b	50		 push	 eax
  0081c	e8 00 00 00 00	 call	 _strcpy
  00821	83 c4 08	 add	 esp, 8

; 251  : 	this->List[eExUB::DavitRazmadze].hwid			= 620282224;//2494879713;

  00824	8b 45 fc	 mov	 eax, DWORD PTR _this$[ebp]
  00827	c7 80 c4 05 00
	00 70 c1 f8 24	 mov	 DWORD PTR [eax+1476], 620282224 ; 24f8c170H

; 252  : 	strcpy(this->List[eExUB::thinnakorn].mac,		"00-0C-29-69-6F-EA");

  00831	68 00 00 00 00	 push	 OFFSET ??_C@_0BC@HJAFONKM@00?90C?929?969?96F?9EA?$AA@
  00836	8b 45 fc	 mov	 eax, DWORD PTR _this$[ebp]
  00839	05 48 1c 00 00	 add	 eax, 7240		; 00001c48H
  0083e	50		 push	 eax
  0083f	e8 00 00 00 00	 call	 _strcpy
  00844	83 c4 08	 add	 esp, 8

; 253  : 	this->List[eExUB::DavitRazmadze].ItemSmokeEffect		= true;

  00847	8b 45 fc	 mov	 eax, DWORD PTR _this$[ebp]
  0084a	c6 80 06 06 00
	00 01		 mov	 BYTE PTR [eax+1542], 1

; 254  : 	this->List[eExUB::DavitRazmadze].Monster		= true;

  00851	8b 45 fc	 mov	 eax, DWORD PTR _this$[ebp]
  00854	c6 80 05 06 00
	00 01		 mov	 BYTE PTR [eax+1541], 1

; 255  : 	this->List[eExUB::DavitRazmadze].AntiCheatPlus		= true;

  0085b	8b 45 fc	 mov	 eax, DWORD PTR _this$[ebp]
  0085e	c6 80 fe 05 00
	00 01		 mov	 BYTE PTR [eax+1534], 1

; 256  : 	this->List[eExUB::DavitRazmadze].TvTEvent		= true;

  00865	8b 45 fc	 mov	 eax, DWORD PTR _this$[ebp]
  00868	c6 80 f5 05 00
	00 01		 mov	 BYTE PTR [eax+1525], 1

; 257  : 	this->List[eExUB::DavitRazmadze].bAchievements		= true;

  0086f	8b 45 fc	 mov	 eax, DWORD PTR _this$[ebp]
  00872	c6 80 11 06 00
	00 01		 mov	 BYTE PTR [eax+1553], 1

; 258  : 	// ----
; 259  : 	strcpy(this->List[eExUB::lemiks].Login,			"lemiks");

  00879	68 00 00 00 00	 push	 OFFSET ??_C@_06BBKAJNHI@lemiks?$AA@
  0087e	8b 45 fc	 mov	 eax, DWORD PTR _this$[ebp]
  00881	05 18 06 00 00	 add	 eax, 1560		; 00000618H
  00886	50		 push	 eax
  00887	e8 00 00 00 00	 call	 _strcpy
  0088c	83 c4 08	 add	 esp, 8

; 260  : 	this->List[eExUB::lemiks].hwid				= 3029767103;

  0088f	8b 45 fc	 mov	 eax, DWORD PTR _this$[ebp]
  00892	c7 80 3c 06 00
	00 bf 93 96 b4	 mov	 DWORD PTR [eax+1596], -1265200193 ; b49693bfH

; 261  : 	this->List[eExUB::lemiks].GrandHero				= true;

  0089c	8b 45 fc	 mov	 eax, DWORD PTR _this$[ebp]
  0089f	c6 80 6e 06 00
	00 01		 mov	 BYTE PTR [eax+1646], 1

; 262  : 	this->List[eExUB::lemiks].Brotherhood			= true;

  008a6	8b 45 fc	 mov	 eax, DWORD PTR _this$[ebp]
  008a9	c6 80 70 06 00
	00 01		 mov	 BYTE PTR [eax+1648], 1

; 263  : 	this->List[eExUB::lemiks].Monster				= true;

  008b0	8b 45 fc	 mov	 eax, DWORD PTR _this$[ebp]
  008b3	c6 80 7d 06 00
	00 01		 mov	 BYTE PTR [eax+1661], 1

; 264  : 	this->List[eExUB::lemiks].ItemSmokeEffect		= true;

  008ba	8b 45 fc	 mov	 eax, DWORD PTR _this$[ebp]
  008bd	c6 80 7e 06 00
	00 01		 mov	 BYTE PTR [eax+1662], 1

; 265  : 	this->List[eExUB::lemiks].MonsterAttackLife		= true;

  008c4	8b 45 fc	 mov	 eax, DWORD PTR _this$[ebp]
  008c7	c6 80 84 06 00
	00 01		 mov	 BYTE PTR [eax+1668], 1

; 266  : 	this->List[eExUB::lemiks].GrandDinamicExp		= true;

  008ce	8b 45 fc	 mov	 eax, DWORD PTR _this$[ebp]
  008d1	c6 80 7f 06 00
	00 01		 mov	 BYTE PTR [eax+1663], 1

; 267  : 	// ----
; 268  : 	strcpy(this->List[eExUB::spoke].Login,			"spoke");

  008d8	68 00 00 00 00	 push	 OFFSET ??_C@_05FBEJNIK@spoke?$AA@
  008dd	8b 45 fc	 mov	 eax, DWORD PTR _this$[ebp]
  008e0	05 90 06 00 00	 add	 eax, 1680		; 00000690H
  008e5	50		 push	 eax
  008e6	e8 00 00 00 00	 call	 _strcpy
  008eb	83 c4 08	 add	 esp, 8

; 269  : 	this->List[eExUB::spoke].hwid					= 2461314075;

  008ee	8b 45 fc	 mov	 eax, DWORD PTR _this$[ebp]
  008f1	c7 80 b4 06 00
	00 1b ac b4 92	 mov	 DWORD PTR [eax+1716], -1833653221 ; 92b4ac1bH

; 270  : 	this->List[eExUB::spoke].Monster				= true;

  008fb	8b 45 fc	 mov	 eax, DWORD PTR _this$[ebp]
  008fe	c6 80 f5 06 00
	00 01		 mov	 BYTE PTR [eax+1781], 1

; 271  : 	// ----
; 272  : 	strcpy(this->List[eExUB::Daboy_1].Login,		"Daboy_1");

  00905	68 00 00 00 00	 push	 OFFSET ??_C@_07PDBPGEDE@Daboy_1?$AA@
  0090a	8b 45 fc	 mov	 eax, DWORD PTR _this$[ebp]
  0090d	05 08 07 00 00	 add	 eax, 1800		; 00000708H
  00912	50		 push	 eax
  00913	e8 00 00 00 00	 call	 _strcpy
  00918	83 c4 08	 add	 esp, 8

; 273  : 	this->List[eExUB::Daboy_1].hwid				= 1081550485;

  0091b	8b 45 fc	 mov	 eax, DWORD PTR _this$[ebp]
  0091e	c7 80 2c 07 00
	00 95 26 77 40	 mov	 DWORD PTR [eax+1836], 1081550485 ; 40772695H

; 274  : 	// ----
; 275  : 	strcpy(this->List[eExUB::Daboy_2].Login,		"Daboy_2");

  00928	68 00 00 00 00	 push	 OFFSET ??_C@_07NIDCDHPH@Daboy_2?$AA@
  0092d	8b 45 fc	 mov	 eax, DWORD PTR _this$[ebp]
  00930	05 80 07 00 00	 add	 eax, 1920		; 00000780H
  00935	50		 push	 eax
  00936	e8 00 00 00 00	 call	 _strcpy
  0093b	83 c4 08	 add	 esp, 8

; 276  : 	this->List[eExUB::Daboy_2].hwid				= 3102437392;

  0093e	8b 45 fc	 mov	 eax, DWORD PTR _this$[ebp]
  00941	c7 80 a4 07 00
	00 10 70 eb b8	 mov	 DWORD PTR [eax+1956], -1192529904 ; b8eb7010H

; 277  : 	// ----
; 278  : 	strcpy(this->List[eExUB::Encode].Login,			"Encode");

  0094b	68 00 00 00 00	 push	 OFFSET ??_C@_06KMNNACKD@Encode?$AA@
  00950	8b 45 fc	 mov	 eax, DWORD PTR _this$[ebp]
  00953	05 f8 07 00 00	 add	 eax, 2040		; 000007f8H
  00958	50		 push	 eax
  00959	e8 00 00 00 00	 call	 _strcpy
  0095e	83 c4 08	 add	 esp, 8

; 279  : 	this->List[eExUB::Encode].hwid				= 2664824880;

  00961	8b 45 fc	 mov	 eax, DWORD PTR _this$[ebp]
  00964	c7 80 1c 08 00
	00 30 00 d6 9e	 mov	 DWORD PTR [eax+2076], -1630142416 ; 9ed60030H

; 280  : 	// ----
; 281  : 	strcpy(this->List[eExUB::Pavel].Login,			"Pavel");

  0096e	68 00 00 00 00	 push	 OFFSET ??_C@_05CPOBNKHG@Pavel?$AA@
  00973	8b 45 fc	 mov	 eax, DWORD PTR _this$[ebp]
  00976	05 70 08 00 00	 add	 eax, 2160		; 00000870H
  0097b	50		 push	 eax
  0097c	e8 00 00 00 00	 call	 _strcpy
  00981	83 c4 08	 add	 esp, 8

; 282  : 	this->List[eExUB::Pavel].hwid					= 1745027016;

  00984	8b 45 fc	 mov	 eax, DWORD PTR _this$[ebp]
  00987	c7 80 94 08 00
	00 c8 ff 02 68	 mov	 DWORD PTR [eax+2196], 1745027016 ; 6802ffc8H

; 283  : 	// ----
; 284  : 	strcpy(this->List[eExUB::PrideMu].Login,		"PrideMu");

  00991	68 00 00 00 00	 push	 OFFSET ??_C@_07NBLHAJFM@PrideMu?$AA@
  00996	8b 45 fc	 mov	 eax, DWORD PTR _this$[ebp]
  00999	05 e8 08 00 00	 add	 eax, 2280		; 000008e8H
  0099e	50		 push	 eax
  0099f	e8 00 00 00 00	 call	 _strcpy
  009a4	83 c4 08	 add	 esp, 8

; 285  : 	this->List[eExUB::PrideMu].hwid				= 1;	//136373629

  009a7	8b 45 fc	 mov	 eax, DWORD PTR _this$[ebp]
  009aa	c7 80 0c 09 00
	00 01 00 00 00	 mov	 DWORD PTR [eax+2316], 1

; 286  : 	//List[eExUB::PrideMu].Rage						= true;
; 287  : 	//List[eExUB::PrideMu].MonsterQuest				= true;
; 288  : 	//List[eExUB::PrideMu].TvTEvent					= true;
; 289  : 	//List[eExUB::PrideMu].GrandHero				= true;
; 290  : 	this->List[eExUB::PrideMu].Monster				= true;

  009b4	8b 45 fc	 mov	 eax, DWORD PTR _this$[ebp]
  009b7	c6 80 4d 09 00
	00 01		 mov	 BYTE PTR [eax+2381], 1

; 291  : 	this->List[eExUB::PrideMu].ItemSmokeEffect		= true;

  009be	8b 45 fc	 mov	 eax, DWORD PTR _this$[ebp]
  009c1	c6 80 4e 09 00
	00 01		 mov	 BYTE PTR [eax+2382], 1

; 292  : 	// ----
; 293  : 	strcpy(this->List[eExUB::Cherkashin].Login,		"Cherkashin");

  009c8	68 00 00 00 00	 push	 OFFSET ??_C@_0L@FHOCBAOK@Cherkashin?$AA@
  009cd	8b 45 fc	 mov	 eax, DWORD PTR _this$[ebp]
  009d0	05 60 09 00 00	 add	 eax, 2400		; 00000960H
  009d5	50		 push	 eax
  009d6	e8 00 00 00 00	 call	 _strcpy
  009db	83 c4 08	 add	 esp, 8

; 294  : 	this->List[eExUB::Cherkashin].hwid			= 3422826830;

  009de	8b 45 fc	 mov	 eax, DWORD PTR _this$[ebp]
  009e1	c7 80 84 09 00
	00 4e 31 04 cc	 mov	 DWORD PTR [eax+2436], -872140466 ; cc04314eH

; 295  : 	this->List[eExUB::Cherkashin].Monster			= true;

  009eb	8b 45 fc	 mov	 eax, DWORD PTR _this$[ebp]
  009ee	c6 80 c5 09 00
	00 01		 mov	 BYTE PTR [eax+2501], 1

; 296  : 	// ----
; 297  : 	strcpy(this->List[eExUB::Semushkin].Login,		"Semushkin");

  009f5	68 00 00 00 00	 push	 OFFSET ??_C@_09NJLHKBKI@Semushkin?$AA@
  009fa	8b 45 fc	 mov	 eax, DWORD PTR _this$[ebp]
  009fd	05 d8 09 00 00	 add	 eax, 2520		; 000009d8H
  00a02	50		 push	 eax
  00a03	e8 00 00 00 00	 call	 _strcpy
  00a08	83 c4 08	 add	 esp, 8

; 298  : 	this->List[eExUB::Semushkin].hwid				= 2149325968;

  00a0b	8b 45 fc	 mov	 eax, DWORD PTR _this$[ebp]
  00a0e	c7 80 fc 09 00
	00 90 1c 1c 80	 mov	 DWORD PTR [eax+2556], -2145641328 ; 801c1c90H

; 299  : 	// ----
; 300  : 	strcpy(this->List[eExUB::Gints_2].Login,		"Gints_2");

  00a18	68 00 00 00 00	 push	 OFFSET ??_C@_07GKBNPIPP@Gints_2?$AA@
  00a1d	8b 45 fc	 mov	 eax, DWORD PTR _this$[ebp]
  00a20	05 50 0a 00 00	 add	 eax, 2640		; 00000a50H
  00a25	50		 push	 eax
  00a26	e8 00 00 00 00	 call	 _strcpy
  00a2b	83 c4 08	 add	 esp, 8

; 301  : 	this->List[eExUB::Gints_2].hwid				= 2556587903;

  00a2e	8b 45 fc	 mov	 eax, DWORD PTR _this$[ebp]
  00a31	c7 80 74 0a 00
	00 7f 6f 62 98	 mov	 DWORD PTR [eax+2676], -1738379393 ; 98626f7fH

; 302  : 	this->List[eExUB::Gints_2].Rage					= true;

  00a3b	8b 45 fc	 mov	 eax, DWORD PTR _this$[ebp]
  00a3e	c6 80 a1 0a 00
	00 01		 mov	 BYTE PTR [eax+2721], 1

; 303  : 	this->List[eExUB::Gints_2].GrandHero			= true;

  00a45	8b 45 fc	 mov	 eax, DWORD PTR _this$[ebp]
  00a48	c6 80 a6 0a 00
	00 01		 mov	 BYTE PTR [eax+2726], 1

; 304  : 	this->List[eExUB::Gints_2].PartySystem			= true;

  00a4f	8b 45 fc	 mov	 eax, DWORD PTR _this$[ebp]
  00a52	c6 80 a7 0a 00
	00 01		 mov	 BYTE PTR [eax+2727], 1

; 305  : 	this->List[eExUB::Gints_2].MonsterQuest			= true;

  00a59	8b 45 fc	 mov	 eax, DWORD PTR _this$[ebp]
  00a5c	c6 80 a4 0a 00
	00 01		 mov	 BYTE PTR [eax+2724], 1

; 306  : 	this->List[eExUB::Gints_2].AntiCheatPlus		= true;

  00a63	8b 45 fc	 mov	 eax, DWORD PTR _this$[ebp]
  00a66	c6 80 ae 0a 00
	00 01		 mov	 BYTE PTR [eax+2734], 1

; 307  : 	this->List[eExUB::Gints_2].ComboCustom			= true;

  00a6d	8b 45 fc	 mov	 eax, DWORD PTR _this$[ebp]
  00a70	c6 80 b0 0a 00
	00 01		 mov	 BYTE PTR [eax+2736], 1

; 308  : 	this->List[eExUB::Gints_2].Brotherhood			= true;

  00a77	8b 45 fc	 mov	 eax, DWORD PTR _this$[ebp]
  00a7a	c6 80 a8 0a 00
	00 01		 mov	 BYTE PTR [eax+2728], 1

; 309  : 	this->List[eExUB::Gints_2].NpcBuffer			= true;

  00a81	8b 45 fc	 mov	 eax, DWORD PTR _this$[ebp]
  00a84	c6 80 b1 0a 00
	00 01		 mov	 BYTE PTR [eax+2737], 1

; 310  : 	this->List[eExUB::Gints_2].Monster				= true;

  00a8b	8b 45 fc	 mov	 eax, DWORD PTR _this$[ebp]
  00a8e	c6 80 b5 0a 00
	00 01		 mov	 BYTE PTR [eax+2741], 1

; 311  : 	this->List[eExUB::Gints_2].ItemSmokeEffect		= true;

  00a95	8b 45 fc	 mov	 eax, DWORD PTR _this$[ebp]
  00a98	c6 80 b6 0a 00
	00 01		 mov	 BYTE PTR [eax+2742], 1

; 312  : 	// ----
; 313  : 	strcpy(this->List[eExUB::zerocool].Login,		"zerocool");

  00a9f	68 00 00 00 00	 push	 OFFSET ??_C@_08FBDBDCDG@zerocool?$AA@
  00aa4	8b 45 fc	 mov	 eax, DWORD PTR _this$[ebp]
  00aa7	05 c8 0a 00 00	 add	 eax, 2760		; 00000ac8H
  00aac	50		 push	 eax
  00aad	e8 00 00 00 00	 call	 _strcpy
  00ab2	83 c4 08	 add	 esp, 8

; 314  : 	this->List[eExUB::zerocool].hwid				= 3358746164;

  00ab5	8b 45 fc	 mov	 eax, DWORD PTR _this$[ebp]
  00ab8	c7 80 ec 0a 00
	00 34 66 32 c8	 mov	 DWORD PTR [eax+2796], -936221132 ; c8326634H

; 315  : 	// ----
; 316  : 	strcpy(this->List[eExUB::Vadim_2].Login,		"Vadim_2");

  00ac2	68 00 00 00 00	 push	 OFFSET ??_C@_07GAMONHNE@Vadim_2?$AA@
  00ac7	8b 45 fc	 mov	 eax, DWORD PTR _this$[ebp]
  00aca	05 40 0b 00 00	 add	 eax, 2880		; 00000b40H
  00acf	50		 push	 eax
  00ad0	e8 00 00 00 00	 call	 _strcpy
  00ad5	83 c4 08	 add	 esp, 8

; 317  : 	this->List[eExUB::Vadim_2].hwid				= 1684392689;

  00ad8	8b 45 fc	 mov	 eax, DWORD PTR _this$[ebp]
  00adb	c7 80 64 0b 00
	00 f1 ca 65 64	 mov	 DWORD PTR [eax+2916], 1684392689 ; 6465caf1H

; 318  : 	// ----
; 319  : 	strcpy(this->List[eExUB::ulasevich].Login,		"ulasevich");

  00ae5	68 00 00 00 00	 push	 OFFSET ??_C@_09PILDGGKP@ulasevich?$AA@
  00aea	8b 45 fc	 mov	 eax, DWORD PTR _this$[ebp]
  00aed	05 b8 0b 00 00	 add	 eax, 3000		; 00000bb8H
  00af2	50		 push	 eax
  00af3	e8 00 00 00 00	 call	 _strcpy
  00af8	83 c4 08	 add	 esp, 8

; 320  : 	this->List[eExUB::ulasevich].hwid				= 471417973;// 3632441894;

  00afb	8b 45 fc	 mov	 eax, DWORD PTR _this$[ebp]
  00afe	c7 80 dc 0b 00
	00 75 44 19 1c	 mov	 DWORD PTR [eax+3036], 471417973 ; 1c194475H

; 321  : 	strcpy(this->List[eExUB::Artem].mac,			"00-25-22-C2-E0-AF");

  00b08	68 00 00 00 00	 push	 OFFSET ??_C@_0BC@LEDNONFN@00?925?922?9C2?9E0?9AF?$AA@
  00b0d	8b 45 fc	 mov	 eax, DWORD PTR _this$[ebp]
  00b10	05 98 17 00 00	 add	 eax, 6040		; 00001798H
  00b15	50		 push	 eax
  00b16	e8 00 00 00 00	 call	 _strcpy
  00b1b	83 c4 08	 add	 esp, 8

; 322  : 	this->List[eExUB::ulasevich].BloodHound			= true;

  00b1e	8b 45 fc	 mov	 eax, DWORD PTR _this$[ebp]
  00b21	c6 80 0b 0c 00
	00 01		 mov	 BYTE PTR [eax+3083], 1

; 323  : 	this->List[eExUB::ulasevich].Rage				= true;

  00b28	8b 45 fc	 mov	 eax, DWORD PTR _this$[ebp]
  00b2b	c6 80 09 0c 00
	00 01		 mov	 BYTE PTR [eax+3081], 1

; 324  : 	this->List[eExUB::ulasevich].MonsterQuest		= true;

  00b32	8b 45 fc	 mov	 eax, DWORD PTR _this$[ebp]
  00b35	c6 80 0c 0c 00
	00 01		 mov	 BYTE PTR [eax+3084], 1

; 325  : 	this->List[eExUB::ulasevich].Brotherhood		= true;

  00b3c	8b 45 fc	 mov	 eax, DWORD PTR _this$[ebp]
  00b3f	c6 80 10 0c 00
	00 01		 mov	 BYTE PTR [eax+3088], 1

; 326  : 	this->List[eExUB::ulasevich].AntiCheatPlus		= true;

  00b46	8b 45 fc	 mov	 eax, DWORD PTR _this$[ebp]
  00b49	c6 80 16 0c 00
	00 01		 mov	 BYTE PTR [eax+3094], 1

; 327  : 	this->List[eExUB::ulasevich].BMQuest			= true;

  00b50	8b 45 fc	 mov	 eax, DWORD PTR _this$[ebp]
  00b53	c6 80 1a 0c 00
	00 01		 mov	 BYTE PTR [eax+3098], 1

; 328  : 	this->List[eExUB::ulasevich].PandoraEvent		= true;

  00b5a	8b 45 fc	 mov	 eax, DWORD PTR _this$[ebp]
  00b5d	c6 80 15 0c 00
	00 01		 mov	 BYTE PTR [eax+3093], 1

; 329  : 	this->List[eExUB::ulasevich].bRankItem			= true;

  00b64	8b 45 fc	 mov	 eax, DWORD PTR _this$[ebp]
  00b67	c6 80 25 0c 00
	00 01		 mov	 BYTE PTR [eax+3109], 1

; 330  : 	this->List[eExUB::ulasevich].PremiumEx			= true;

  00b6e	8b 45 fc	 mov	 eax, DWORD PTR _this$[ebp]
  00b71	c6 80 2a 0c 00
	00 01		 mov	 BYTE PTR [eax+3114], 1

; 331  : 	this->List[eExUB::ulasevich].Smithy				= true;

  00b78	8b 45 fc	 mov	 eax, DWORD PTR _this$[ebp]
  00b7b	c6 80 1c 0c 00
	00 01		 mov	 BYTE PTR [eax+3100], 1

; 332  : 	this->List[eExUB::ulasevich].OfflineMode		= true;

  00b82	8b 45 fc	 mov	 eax, DWORD PTR _this$[ebp]
  00b85	c6 80 22 0c 00
	00 01		 mov	 BYTE PTR [eax+3106], 1

; 333  : 	this->List[eExUB::ulasevich].PerosnalStoreEx	= true;

  00b8c	8b 45 fc	 mov	 eax, DWORD PTR _this$[ebp]
  00b8f	c6 80 14 0c 00
	00 01		 mov	 BYTE PTR [eax+3092], 1

; 334  : 	// ----
; 335  : 	strcpy(this->List[eExUB::Local2].Login,			"Local2");

  00b96	68 00 00 00 00	 push	 OFFSET ??_C@_06OJCPHJMN@Local2?$AA@
  00b9b	8b 45 fc	 mov	 eax, DWORD PTR _this$[ebp]
  00b9e	05 30 0c 00 00	 add	 eax, 3120		; 00000c30H
  00ba3	50		 push	 eax
  00ba4	e8 00 00 00 00	 call	 _strcpy
  00ba9	83 c4 08	 add	 esp, 8

; 336  : 	this->List[eExUB::Local2].hwid					= 3962621275;

  00bac	8b 45 fc	 mov	 eax, DWORD PTR _this$[ebp]
  00baf	c7 80 54 0c 00
	00 5b cd 30 ec	 mov	 DWORD PTR [eax+3156], -332346021 ; ec30cd5bH

; 337  : 	this->List[eExUB::Local2].Rage					= true;

  00bb9	8b 45 fc	 mov	 eax, DWORD PTR _this$[ebp]
  00bbc	c6 80 81 0c 00
	00 01		 mov	 BYTE PTR [eax+3201], 1

; 338  : 	this->List[eExUB::Local2].BloodHound			= true;

  00bc3	8b 45 fc	 mov	 eax, DWORD PTR _this$[ebp]
  00bc6	c6 80 83 0c 00
	00 01		 mov	 BYTE PTR [eax+3203], 1

; 339  : 	this->List[eExUB::Local2].MonsterQuest			= true;

  00bcd	8b 45 fc	 mov	 eax, DWORD PTR _this$[ebp]
  00bd0	c6 80 84 0c 00
	00 01		 mov	 BYTE PTR [eax+3204], 1

; 340  : 	this->List[eExUB::Local2].TvTEvent				= true;

  00bd7	8b 45 fc	 mov	 eax, DWORD PTR _this$[ebp]
  00bda	c6 80 85 0c 00
	00 01		 mov	 BYTE PTR [eax+3205], 1

; 341  : 	this->List[eExUB::Local2].GrandHero				= true;

  00be1	8b 45 fc	 mov	 eax, DWORD PTR _this$[ebp]
  00be4	c6 80 86 0c 00
	00 01		 mov	 BYTE PTR [eax+3206], 1

; 342  : 	// ----
; 343  : 	strcpy(this->List[eExUB::DavitRazmadze2].Login, "DavitRazmadze2");

  00beb	68 00 00 00 00	 push	 OFFSET ??_C@_0P@LBJECLDH@DavitRazmadze2?$AA@
  00bf0	8b 45 fc	 mov	 eax, DWORD PTR _this$[ebp]
  00bf3	05 a8 0c 00 00	 add	 eax, 3240		; 00000ca8H
  00bf8	50		 push	 eax
  00bf9	e8 00 00 00 00	 call	 _strcpy
  00bfe	83 c4 08	 add	 esp, 8

; 344  : 	this->List[eExUB::DavitRazmadze2].hwid		= 3496675938;

  00c01	8b 45 fc	 mov	 eax, DWORD PTR _this$[ebp]
  00c04	c7 80 cc 0c 00
	00 62 0a 6b d0	 mov	 DWORD PTR [eax+3276], -798291358 ; d06b0a62H

; 345  : 	this->List[eExUB::DavitRazmadze2].ItemSmokeEffect		= true;

  00c0e	8b 45 fc	 mov	 eax, DWORD PTR _this$[ebp]
  00c11	c6 80 0e 0d 00
	00 01		 mov	 BYTE PTR [eax+3342], 1

; 346  : 	this->List[eExUB::DavitRazmadze2].Monster		= true;

  00c18	8b 45 fc	 mov	 eax, DWORD PTR _this$[ebp]
  00c1b	c6 80 0d 0d 00
	00 01		 mov	 BYTE PTR [eax+3341], 1

; 347  : 	this->List[eExUB::DavitRazmadze2].AntiCheatPlus		= true;

  00c22	8b 45 fc	 mov	 eax, DWORD PTR _this$[ebp]
  00c25	c6 80 06 0d 00
	00 01		 mov	 BYTE PTR [eax+3334], 1

; 348  : 	this->List[eExUB::DavitRazmadze2].TvTEvent		= true;

  00c2c	8b 45 fc	 mov	 eax, DWORD PTR _this$[ebp]
  00c2f	c6 80 fd 0c 00
	00 01		 mov	 BYTE PTR [eax+3325], 1

; 349  : 	this->List[eExUB::DavitRazmadze2].bAchievements		= true;

  00c36	8b 45 fc	 mov	 eax, DWORD PTR _this$[ebp]
  00c39	c6 80 19 0d 00
	00 01		 mov	 BYTE PTR [eax+3353], 1

; 350  : 	// ----
; 351  : 	strcpy(this->List[eExUB::DavitRazmadze3].Login, "DavitRazmadze3");

  00c40	68 00 00 00 00	 push	 OFFSET ??_C@_0P@KIIPBKHG@DavitRazmadze3?$AA@
  00c45	8b 45 fc	 mov	 eax, DWORD PTR _this$[ebp]
  00c48	05 88 0e 00 00	 add	 eax, 3720		; 00000e88H
  00c4d	50		 push	 eax
  00c4e	e8 00 00 00 00	 call	 _strcpy
  00c53	83 c4 08	 add	 esp, 8

; 352  : 	this->List[eExUB::DavitRazmadze3].hwid		= 2361010737;

  00c56	8b 45 fc	 mov	 eax, DWORD PTR _this$[ebp]
  00c59	c7 80 ac 0e 00
	00 31 2a ba 8c	 mov	 DWORD PTR [eax+3756], -1933956559 ; 8cba2a31H

; 353  : 	this->List[eExUB::DavitRazmadze3].ItemSmokeEffect		= true;

  00c63	8b 45 fc	 mov	 eax, DWORD PTR _this$[ebp]
  00c66	c6 80 ee 0e 00
	00 01		 mov	 BYTE PTR [eax+3822], 1

; 354  : 	this->List[eExUB::DavitRazmadze3].Monster		= true;

  00c6d	8b 45 fc	 mov	 eax, DWORD PTR _this$[ebp]
  00c70	c6 80 ed 0e 00
	00 01		 mov	 BYTE PTR [eax+3821], 1

; 355  : 	this->List[eExUB::DavitRazmadze3].AntiCheatPlus		= true;

  00c77	8b 45 fc	 mov	 eax, DWORD PTR _this$[ebp]
  00c7a	c6 80 e6 0e 00
	00 01		 mov	 BYTE PTR [eax+3814], 1

; 356  : 	this->List[eExUB::DavitRazmadze3].TvTEvent		= true;

  00c81	8b 45 fc	 mov	 eax, DWORD PTR _this$[ebp]
  00c84	c6 80 dd 0e 00
	00 01		 mov	 BYTE PTR [eax+3805], 1

; 357  : 	this->List[eExUB::DavitRazmadze3].bAchievements		= true;

  00c8b	8b 45 fc	 mov	 eax, DWORD PTR _this$[ebp]
  00c8e	c6 80 f9 0e 00
	00 01		 mov	 BYTE PTR [eax+3833], 1

; 358  : 	// ----
; 359  : 	strcpy(this->List[eExUB::PrideMuLocal].Login,	"PrideMuLocal");

  00c95	68 00 00 00 00	 push	 OFFSET ??_C@_0N@BCOPIGFB@PrideMuLocal?$AA@
  00c9a	8b 45 fc	 mov	 eax, DWORD PTR _this$[ebp]
  00c9d	05 20 0d 00 00	 add	 eax, 3360		; 00000d20H
  00ca2	50		 push	 eax
  00ca3	e8 00 00 00 00	 call	 _strcpy
  00ca8	83 c4 08	 add	 esp, 8

; 360  : 	this->List[eExUB::PrideMuLocal].hwid			= 102821109;

  00cab	8b 45 fc	 mov	 eax, DWORD PTR _this$[ebp]
  00cae	c7 80 44 0d 00
	00 f5 ec 20 06	 mov	 DWORD PTR [eax+3396], 102821109 ; 0620ecf5H

; 361  : 	this->List[eExUB::PrideMuLocal].Rage			= true;

  00cb8	8b 45 fc	 mov	 eax, DWORD PTR _this$[ebp]
  00cbb	c6 80 71 0d 00
	00 01		 mov	 BYTE PTR [eax+3441], 1

; 362  : 	this->List[eExUB::PrideMuLocal].MonsterQuest	= true;

  00cc2	8b 45 fc	 mov	 eax, DWORD PTR _this$[ebp]
  00cc5	c6 80 74 0d 00
	00 01		 mov	 BYTE PTR [eax+3444], 1

; 363  : 	this->List[eExUB::PrideMuLocal].TvTEvent		= true;

  00ccc	8b 45 fc	 mov	 eax, DWORD PTR _this$[ebp]
  00ccf	c6 80 75 0d 00
	00 01		 mov	 BYTE PTR [eax+3445], 1

; 364  : 	this->List[eExUB::PrideMuLocal].GrandHero		= true;

  00cd6	8b 45 fc	 mov	 eax, DWORD PTR _this$[ebp]
  00cd9	c6 80 76 0d 00
	00 01		 mov	 BYTE PTR [eax+3446], 1

; 365  : 	this->List[eExUB::PrideMuLocal].Monster			= true;

  00ce0	8b 45 fc	 mov	 eax, DWORD PTR _this$[ebp]
  00ce3	c6 80 85 0d 00
	00 01		 mov	 BYTE PTR [eax+3461], 1

; 366  : 	this->List[eExUB::PrideMuLocal].ItemSmokeEffect	= true;

  00cea	8b 45 fc	 mov	 eax, DWORD PTR _this$[ebp]
  00ced	c6 80 86 0d 00
	00 01		 mov	 BYTE PTR [eax+3462], 1

; 367  : 	// ----
; 368  : 	strcpy(this->List[eExUB::lexbzk].Login,			"lexbzk");

  00cf4	68 00 00 00 00	 push	 OFFSET ??_C@_06PBFOFDJF@lexbzk?$AA@
  00cf9	8b 45 fc	 mov	 eax, DWORD PTR _this$[ebp]
  00cfc	05 98 0d 00 00	 add	 eax, 3480		; 00000d98H
  00d01	50		 push	 eax
  00d02	e8 00 00 00 00	 call	 _strcpy
  00d07	83 c4 08	 add	 esp, 8

; 369  : 	this->List[eExUB::lexbzk].hwid				= 308214326;

  00d0a	8b 45 fc	 mov	 eax, DWORD PTR _this$[ebp]
  00d0d	c7 80 bc 0d 00
	00 36 fa 5e 12	 mov	 DWORD PTR [eax+3516], 308214326 ; 125efa36H

; 370  : 	// ----
; 371  : 	strcpy(this->List[eExUB::Local3].Login,			"Local3");

  00d17	68 00 00 00 00	 push	 OFFSET ??_C@_06PADEEIIM@Local3?$AA@
  00d1c	8b 45 fc	 mov	 eax, DWORD PTR _this$[ebp]
  00d1f	05 10 0e 00 00	 add	 eax, 3600		; 00000e10H
  00d24	50		 push	 eax
  00d25	e8 00 00 00 00	 call	 _strcpy
  00d2a	83 c4 08	 add	 esp, 8

; 372  : 	this->List[eExUB::Local3].hwid				= 1518866620;

  00d2d	8b 45 fc	 mov	 eax, DWORD PTR _this$[ebp]
  00d30	c7 80 34 0e 00
	00 bc 10 88 5a	 mov	 DWORD PTR [eax+3636], 1518866620 ; 5a8810bcH

; 373  : 	this->List[eExUB::Local3].Rage					= true;

  00d3a	8b 45 fc	 mov	 eax, DWORD PTR _this$[ebp]
  00d3d	c6 80 61 0e 00
	00 01		 mov	 BYTE PTR [eax+3681], 1

; 374  : 	this->List[eExUB::Local3].MonsterQuest			= true;

  00d44	8b 45 fc	 mov	 eax, DWORD PTR _this$[ebp]
  00d47	c6 80 64 0e 00
	00 01		 mov	 BYTE PTR [eax+3684], 1

; 375  : 	this->List[eExUB::Local3].TvTEvent				= true;

  00d4e	8b 45 fc	 mov	 eax, DWORD PTR _this$[ebp]
  00d51	c6 80 65 0e 00
	00 01		 mov	 BYTE PTR [eax+3685], 1

; 376  : 	this->List[eExUB::Local3].GrandHero				= true;

  00d58	8b 45 fc	 mov	 eax, DWORD PTR _this$[ebp]
  00d5b	c6 80 66 0e 00
	00 01		 mov	 BYTE PTR [eax+3686], 1

; 377  : 	// ----
; 378  : 	//strcpy(this->List[eExUB::DavitRazmadze3].Login, "DavitRazmadze3");
; 379  : 	//this->List[eExUB::DavitRazmadze3].hwid		= 370104553;
; 380  : 	//this->List[eExUB::DavitRazmadze3].Monster		= true;
; 381  : 	//this->List[eExUB::DavitRazmadze3].AntiCheatPlus		= true;
; 382  : 	// ----
; 383  : 	strcpy(this->List[eExUB::snaker].Login,			"snaker");

  00d62	68 00 00 00 00	 push	 OFFSET ??_C@_06JGINLIFN@snaker?$AA@
  00d67	8b 45 fc	 mov	 eax, DWORD PTR _this$[ebp]
  00d6a	05 00 0f 00 00	 add	 eax, 3840		; 00000f00H
  00d6f	50		 push	 eax
  00d70	e8 00 00 00 00	 call	 _strcpy
  00d75	83 c4 08	 add	 esp, 8

; 384  : 	this->List[eExUB::snaker].hwid				= 4230177721;

  00d78	8b 45 fc	 mov	 eax, DWORD PTR _this$[ebp]
  00d7b	c7 80 24 0f 00
	00 b9 63 23 fc	 mov	 DWORD PTR [eax+3876], -64789575 ; fc2363b9H

; 385  : 	this->List[eExUB::snaker].Rage					= true;

  00d85	8b 45 fc	 mov	 eax, DWORD PTR _this$[ebp]
  00d88	c6 80 51 0f 00
	00 01		 mov	 BYTE PTR [eax+3921], 1

; 386  : 	this->List[eExUB::snaker].MonsterQuest			= true;

  00d8f	8b 45 fc	 mov	 eax, DWORD PTR _this$[ebp]
  00d92	c6 80 54 0f 00
	00 01		 mov	 BYTE PTR [eax+3924], 1

; 387  : 	this->List[eExUB::snaker].TvTEvent				= true;

  00d99	8b 45 fc	 mov	 eax, DWORD PTR _this$[ebp]
  00d9c	c6 80 55 0f 00
	00 01		 mov	 BYTE PTR [eax+3925], 1

; 388  : 	this->List[eExUB::snaker].GrandHero				= true;

  00da3	8b 45 fc	 mov	 eax, DWORD PTR _this$[ebp]
  00da6	c6 80 56 0f 00
	00 01		 mov	 BYTE PTR [eax+3926], 1

; 389  : 	this->List[eExUB::snaker].Monster				= true;

  00dad	8b 45 fc	 mov	 eax, DWORD PTR _this$[ebp]
  00db0	c6 80 65 0f 00
	00 01		 mov	 BYTE PTR [eax+3941], 1

; 390  : 	this->List[eExUB::snaker].ItemSmokeEffect		= true;

  00db7	8b 45 fc	 mov	 eax, DWORD PTR _this$[ebp]
  00dba	c6 80 66 0f 00
	00 01		 mov	 BYTE PTR [eax+3942], 1

; 391  : 	// ----
; 392  : 	strcpy(this->List[eExUB::testuser].Login,		"testuser");

  00dc1	68 00 00 00 00	 push	 OFFSET ??_C@_08HKCMCAEE@testuser?$AA@
  00dc6	8b 45 fc	 mov	 eax, DWORD PTR _this$[ebp]
  00dc9	05 78 0f 00 00	 add	 eax, 3960		; 00000f78H
  00dce	50		 push	 eax
  00dcf	e8 00 00 00 00	 call	 _strcpy
  00dd4	83 c4 08	 add	 esp, 8

; 393  : 	this->List[eExUB::testuser].hwid				= 3834831223;

  00dd7	8b 45 fc	 mov	 eax, DWORD PTR _this$[ebp]
  00dda	c7 80 9c 0f 00
	00 77 e1 92 e4	 mov	 DWORD PTR [eax+3996], -460136073 ; e492e177H

; 394  : 	// ----
; 395  : 	strcpy(this->List[eExUB::Gredy].Login,			"Gredy");

  00de4	68 00 00 00 00	 push	 OFFSET ??_C@_05GCKJHBFF@Gredy?$AA@
  00de9	8b 45 fc	 mov	 eax, DWORD PTR _this$[ebp]
  00dec	05 f0 0f 00 00	 add	 eax, 4080		; 00000ff0H
  00df1	50		 push	 eax
  00df2	e8 00 00 00 00	 call	 _strcpy
  00df7	83 c4 08	 add	 esp, 8

; 396  : 	this->List[eExUB::Gredy].hwid					= 1009564418;	//1009564418

  00dfa	8b 45 fc	 mov	 eax, DWORD PTR _this$[ebp]
  00dfd	c7 80 14 10 00
	00 02 bb 2c 3c	 mov	 DWORD PTR [eax+4116], 1009564418 ; 3c2cbb02H

; 397  : 	this->List[eExUB::Gredy].TvTEvent				= true;

  00e07	8b 45 fc	 mov	 eax, DWORD PTR _this$[ebp]
  00e0a	c6 80 45 10 00
	00 01		 mov	 BYTE PTR [eax+4165], 1

; 398  : 	this->List[eExUB::Gredy].PerosnalStoreEx		= true;

  00e11	8b 45 fc	 mov	 eax, DWORD PTR _this$[ebp]
  00e14	c6 80 4c 10 00
	00 01		 mov	 BYTE PTR [eax+4172], 1

; 399  : 	this->List[eExUB::Gredy].GM_Manager				= true;

  00e1b	8b 45 fc	 mov	 eax, DWORD PTR _this$[ebp]
  00e1e	c6 80 4b 10 00
	00 01		 mov	 BYTE PTR [eax+4171], 1

; 400  : 	this->List[eExUB::Gredy].AntiCheatPlus			= true;

  00e25	8b 45 fc	 mov	 eax, DWORD PTR _this$[ebp]
  00e28	c6 80 4e 10 00
	00 01		 mov	 BYTE PTR [eax+4174], 1

; 401  : 	this->List[eExUB::Gredy].SpotReturn				= true;

  00e2f	8b 45 fc	 mov	 eax, DWORD PTR _this$[ebp]
  00e32	c6 80 4f 10 00
	00 01		 mov	 BYTE PTR [eax+4175], 1

; 402  : 	this->List[eExUB::Gredy].PandoraEvent			= true;

  00e39	8b 45 fc	 mov	 eax, DWORD PTR _this$[ebp]
  00e3c	c6 80 4d 10 00
	00 01		 mov	 BYTE PTR [eax+4173], 1

; 403  : 	this->List[eExUB::Gredy].LoraBattle				= true;

  00e43	8b 45 fc	 mov	 eax, DWORD PTR _this$[ebp]
  00e46	c6 80 53 10 00
	00 01		 mov	 BYTE PTR [eax+4179], 1

; 404  : 	this->List[eExUB::Gredy].Smithy					= true;

  00e4d	8b 45 fc	 mov	 eax, DWORD PTR _this$[ebp]
  00e50	c6 80 54 10 00
	00 01		 mov	 BYTE PTR [eax+4180], 1

; 405  : 	this->List[eExUB::Gredy].GrandDinamicExp		= true;

  00e57	8b 45 fc	 mov	 eax, DWORD PTR _this$[ebp]
  00e5a	c6 80 57 10 00
	00 01		 mov	 BYTE PTR [eax+4183], 1

; 406  : 	//this->List[eExUB::Gredy].DisableMasterTree		= true;
; 407  : 	this->List[eExUB::Gredy].Rage					= true;

  00e61	8b 45 fc	 mov	 eax, DWORD PTR _this$[ebp]
  00e64	c6 80 41 10 00
	00 01		 mov	 BYTE PTR [eax+4161], 1

; 408  : 	this->List[eExUB::Gredy].OfflineMode			= true;

  00e6b	8b 45 fc	 mov	 eax, DWORD PTR _this$[ebp]
  00e6e	c6 80 5a 10 00
	00 01		 mov	 BYTE PTR [eax+4186], 1

; 409  : 	this->List[eExUB::Gredy].Monster				= true;

  00e75	8b 45 fc	 mov	 eax, DWORD PTR _this$[ebp]
  00e78	c6 80 55 10 00
	00 01		 mov	 BYTE PTR [eax+4181], 1

; 410  : 	this->List[eExUB::Gredy].Marriage				= true;

  00e7f	8b 45 fc	 mov	 eax, DWORD PTR _this$[ebp]
  00e82	c6 80 5b 10 00
	00 01		 mov	 BYTE PTR [eax+4187], 1

; 411  : 	this->List[eExUB::Gredy].NpcBuffer				= true;

  00e89	8b 45 fc	 mov	 eax, DWORD PTR _this$[ebp]
  00e8c	c6 80 51 10 00
	00 01		 mov	 BYTE PTR [eax+4177], 1

; 412  : 	this->List[eExUB::Gredy].bRankItem				= true;

  00e93	8b 45 fc	 mov	 eax, DWORD PTR _this$[ebp]
  00e96	c6 80 5d 10 00
	00 01		 mov	 BYTE PTR [eax+4189], 1

; 413  : 	this->List[eExUB::Gredy].RestoreOffMode			= true;

  00e9d	8b 45 fc	 mov	 eax, DWORD PTR _this$[ebp]
  00ea0	c6 80 5e 10 00
	00 01		 mov	 BYTE PTR [eax+4190], 1

; 414  : 	this->List[eExUB::Gredy].PartySave				= true;

  00ea7	8b 45 fc	 mov	 eax, DWORD PTR _this$[ebp]
  00eaa	c6 80 58 10 00
	00 01		 mov	 BYTE PTR [eax+4184], 1

; 415  : 	this->List[eExUB::Gredy].PartySearch			= true;

  00eb1	8b 45 fc	 mov	 eax, DWORD PTR _this$[ebp]
  00eb4	c6 80 49 10 00
	00 01		 mov	 BYTE PTR [eax+4169], 1

; 416  : 	this->List[eExUB::Gredy].GrandHero				= true;

  00ebb	8b 45 fc	 mov	 eax, DWORD PTR _this$[ebp]
  00ebe	c6 80 46 10 00
	00 01		 mov	 BYTE PTR [eax+4166], 1

; 417  : 	this->List[eExUB::Gredy].MonsterQuest			= true;

  00ec5	8b 45 fc	 mov	 eax, DWORD PTR _this$[ebp]
  00ec8	c6 80 44 10 00
	00 01		 mov	 BYTE PTR [eax+4164], 1

; 418  : 	this->List[eExUB::Gredy].MapQuest				= true;

  00ecf	8b 45 fc	 mov	 eax, DWORD PTR _this$[ebp]
  00ed2	c6 80 5f 10 00
	00 01		 mov	 BYTE PTR [eax+4191], 1

; 419  : 	this->List[eExUB::Gredy].bAchievements			= true;

  00ed9	8b 45 fc	 mov	 eax, DWORD PTR _this$[ebp]
  00edc	c6 80 61 10 00
	00 01		 mov	 BYTE PTR [eax+4193], 1

; 420  : 	this->List[eExUB::Gredy].PremiumEx				= true;

  00ee3	8b 45 fc	 mov	 eax, DWORD PTR _this$[ebp]
  00ee6	c6 80 62 10 00
	00 01		 mov	 BYTE PTR [eax+4194], 1

; 421  : 	this->List[eExUB::Gredy].PartySystem			= true;

  00eed	8b 45 fc	 mov	 eax, DWORD PTR _this$[ebp]
  00ef0	c6 80 47 10 00
	00 01		 mov	 BYTE PTR [eax+4167], 1

; 422  : 	this->List[eExUB::Gredy].bTeamVsTeam2			= true;

  00ef7	8b 45 fc	 mov	 eax, DWORD PTR _this$[ebp]
  00efa	c6 80 60 10 00
	00 01		 mov	 BYTE PTR [eax+4192], 1

; 423  : 	this->List[eExUB::Gredy].ItemSmokeEffect		= true;

  00f01	8b 45 fc	 mov	 eax, DWORD PTR _this$[ebp]
  00f04	c6 80 56 10 00
	00 01		 mov	 BYTE PTR [eax+4182], 1

; 424  : 	this->List[eExUB::Gredy].AccSecurity			= true;

  00f0b	8b 45 fc	 mov	 eax, DWORD PTR _this$[ebp]
  00f0e	c6 80 63 10 00
	00 01		 mov	 BYTE PTR [eax+4195], 1

; 425  : 	this->List[eExUB::Gredy].CraftQuestSystem		= true;

  00f15	8b 45 fc	 mov	 eax, DWORD PTR _this$[ebp]
  00f18	c6 80 64 10 00
	00 01		 mov	 BYTE PTR [eax+4196], 1

; 426  : 	// ----
; 427  : 	strcpy(this->List[eExUB::GredyLocal].Login,		"GredyLocal");

  00f1f	68 00 00 00 00	 push	 OFFSET ??_C@_0L@GICEBPFC@GredyLocal?$AA@
  00f24	8b 45 fc	 mov	 eax, DWORD PTR _this$[ebp]
  00f27	05 68 10 00 00	 add	 eax, 4200		; 00001068H
  00f2c	50		 push	 eax
  00f2d	e8 00 00 00 00	 call	 _strcpy
  00f32	83 c4 08	 add	 esp, 8

; 428  : 	this->List[eExUB::GredyLocal].hwid				= 443216415;

  00f35	8b 45 fc	 mov	 eax, DWORD PTR _this$[ebp]
  00f38	c7 80 8c 10 00
	00 1f f2 6a 1a	 mov	 DWORD PTR [eax+4236], 443216415 ; 1a6af21fH

; 429  : 	this->List[eExUB::GredyLocal].TvTEvent			= true;

  00f42	8b 45 fc	 mov	 eax, DWORD PTR _this$[ebp]
  00f45	c6 80 bd 10 00
	00 01		 mov	 BYTE PTR [eax+4285], 1

; 430  : 	this->List[eExUB::GredyLocal].PerosnalStoreEx	= true;

  00f4c	8b 45 fc	 mov	 eax, DWORD PTR _this$[ebp]
  00f4f	c6 80 c4 10 00
	00 01		 mov	 BYTE PTR [eax+4292], 1

; 431  : 	this->List[eExUB::GredyLocal].GM_Manager		= true;

  00f56	8b 45 fc	 mov	 eax, DWORD PTR _this$[ebp]
  00f59	c6 80 c3 10 00
	00 01		 mov	 BYTE PTR [eax+4291], 1

; 432  : 	this->List[eExUB::GredyLocal].AntiCheatPlus		= true;

  00f60	8b 45 fc	 mov	 eax, DWORD PTR _this$[ebp]
  00f63	c6 80 c6 10 00
	00 01		 mov	 BYTE PTR [eax+4294], 1

; 433  : 	this->List[eExUB::GredyLocal].SpotReturn		= true;

  00f6a	8b 45 fc	 mov	 eax, DWORD PTR _this$[ebp]
  00f6d	c6 80 c7 10 00
	00 01		 mov	 BYTE PTR [eax+4295], 1

; 434  : 	this->List[eExUB::GredyLocal].PandoraEvent		= true;

  00f74	8b 45 fc	 mov	 eax, DWORD PTR _this$[ebp]
  00f77	c6 80 c5 10 00
	00 01		 mov	 BYTE PTR [eax+4293], 1

; 435  : 	this->List[eExUB::GredyLocal].LoraBattle		= true;

  00f7e	8b 45 fc	 mov	 eax, DWORD PTR _this$[ebp]
  00f81	c6 80 cb 10 00
	00 01		 mov	 BYTE PTR [eax+4299], 1

; 436  : 	this->List[eExUB::GredyLocal].Smithy			= true;

  00f88	8b 45 fc	 mov	 eax, DWORD PTR _this$[ebp]
  00f8b	c6 80 cc 10 00
	00 01		 mov	 BYTE PTR [eax+4300], 1

; 437  : 	this->List[eExUB::GredyLocal].GrandDinamicExp	= true;

  00f92	8b 45 fc	 mov	 eax, DWORD PTR _this$[ebp]
  00f95	c6 80 cf 10 00
	00 01		 mov	 BYTE PTR [eax+4303], 1

; 438  : 	//this->List[eExUB::GredyLocal].DisableMasterTree	= true;
; 439  : 	this->List[eExUB::GredyLocal].Rage				= true;

  00f9c	8b 45 fc	 mov	 eax, DWORD PTR _this$[ebp]
  00f9f	c6 80 b9 10 00
	00 01		 mov	 BYTE PTR [eax+4281], 1

; 440  : 	this->List[eExUB::GredyLocal].OfflineMode		= true;

  00fa6	8b 45 fc	 mov	 eax, DWORD PTR _this$[ebp]
  00fa9	c6 80 d2 10 00
	00 01		 mov	 BYTE PTR [eax+4306], 1

; 441  : 	this->List[eExUB::GredyLocal].Monster			= true;

  00fb0	8b 45 fc	 mov	 eax, DWORD PTR _this$[ebp]
  00fb3	c6 80 cd 10 00
	00 01		 mov	 BYTE PTR [eax+4301], 1

; 442  : 	this->List[eExUB::GredyLocal].Marriage			= true;

  00fba	8b 45 fc	 mov	 eax, DWORD PTR _this$[ebp]
  00fbd	c6 80 d3 10 00
	00 01		 mov	 BYTE PTR [eax+4307], 1

; 443  : 	this->List[eExUB::GredyLocal].NpcBuffer			= true;

  00fc4	8b 45 fc	 mov	 eax, DWORD PTR _this$[ebp]
  00fc7	c6 80 c9 10 00
	00 01		 mov	 BYTE PTR [eax+4297], 1

; 444  : 	this->List[eExUB::GredyLocal].bRankItem			= true;

  00fce	8b 45 fc	 mov	 eax, DWORD PTR _this$[ebp]
  00fd1	c6 80 d5 10 00
	00 01		 mov	 BYTE PTR [eax+4309], 1

; 445  : 	this->List[eExUB::GredyLocal].RestoreOffMode	= true;

  00fd8	8b 45 fc	 mov	 eax, DWORD PTR _this$[ebp]
  00fdb	c6 80 d6 10 00
	00 01		 mov	 BYTE PTR [eax+4310], 1

; 446  : 	this->List[eExUB::GredyLocal].PartySave			= true;

  00fe2	8b 45 fc	 mov	 eax, DWORD PTR _this$[ebp]
  00fe5	c6 80 d0 10 00
	00 01		 mov	 BYTE PTR [eax+4304], 1

; 447  : 	this->List[eExUB::GredyLocal].PartySearch		= true;

  00fec	8b 45 fc	 mov	 eax, DWORD PTR _this$[ebp]
  00fef	c6 80 c1 10 00
	00 01		 mov	 BYTE PTR [eax+4289], 1

; 448  : 	this->List[eExUB::GredyLocal].GrandHero			= true;

  00ff6	8b 45 fc	 mov	 eax, DWORD PTR _this$[ebp]
  00ff9	c6 80 be 10 00
	00 01		 mov	 BYTE PTR [eax+4286], 1

; 449  : 	this->List[eExUB::GredyLocal].MonsterQuest		= true;

  01000	8b 45 fc	 mov	 eax, DWORD PTR _this$[ebp]
  01003	c6 80 bc 10 00
	00 01		 mov	 BYTE PTR [eax+4284], 1

; 450  : 	this->List[eExUB::GredyLocal].MapQuest			= true;

  0100a	8b 45 fc	 mov	 eax, DWORD PTR _this$[ebp]
  0100d	c6 80 d7 10 00
	00 01		 mov	 BYTE PTR [eax+4311], 1

; 451  : 	this->List[eExUB::GredyLocal].bAchievements		= true;

  01014	8b 45 fc	 mov	 eax, DWORD PTR _this$[ebp]
  01017	c6 80 d9 10 00
	00 01		 mov	 BYTE PTR [eax+4313], 1

; 452  : 	this->List[eExUB::GredyLocal].PremiumEx			= true;

  0101e	8b 45 fc	 mov	 eax, DWORD PTR _this$[ebp]
  01021	c6 80 da 10 00
	00 01		 mov	 BYTE PTR [eax+4314], 1

; 453  : 	this->List[eExUB::GredyLocal].PartySystem		= true;

  01028	8b 45 fc	 mov	 eax, DWORD PTR _this$[ebp]
  0102b	c6 80 bf 10 00
	00 01		 mov	 BYTE PTR [eax+4287], 1

; 454  : 	this->List[eExUB::GredyLocal].bTeamVsTeam2		= true;

  01032	8b 45 fc	 mov	 eax, DWORD PTR _this$[ebp]
  01035	c6 80 d8 10 00
	00 01		 mov	 BYTE PTR [eax+4312], 1

; 455  : 	this->List[eExUB::GredyLocal].ItemSmokeEffect	= true;

  0103c	8b 45 fc	 mov	 eax, DWORD PTR _this$[ebp]
  0103f	c6 80 ce 10 00
	00 01		 mov	 BYTE PTR [eax+4302], 1

; 456  : 	this->List[eExUB::GredyLocal].AccSecurity		= true;

  01046	8b 45 fc	 mov	 eax, DWORD PTR _this$[ebp]
  01049	c6 80 db 10 00
	00 01		 mov	 BYTE PTR [eax+4315], 1

; 457  : 	this->List[eExUB::GredyLocal].CraftQuestSystem	= true;

  01050	8b 45 fc	 mov	 eax, DWORD PTR _this$[ebp]
  01053	c6 80 dc 10 00
	00 01		 mov	 BYTE PTR [eax+4316], 1

; 458  : 	// ----
; 459  : 	strcpy(this->List[eExUB::Gredy2].Login,			"Gredy2");

  0105a	68 00 00 00 00	 push	 OFFSET ??_C@_06PGBDFIHL@Gredy2?$AA@
  0105f	8b 45 fc	 mov	 eax, DWORD PTR _this$[ebp]
  01062	05 e0 10 00 00	 add	 eax, 4320		; 000010e0H
  01067	50		 push	 eax
  01068	e8 00 00 00 00	 call	 _strcpy
  0106d	83 c4 08	 add	 esp, 8

; 460  : 	this->List[eExUB::Gredy2].hwid					= 3761286172;	// 1309694294;

  01070	8b 45 fc	 mov	 eax, DWORD PTR _this$[ebp]
  01073	c7 80 04 11 00
	00 1c ac 30 e0	 mov	 DWORD PTR [eax+4356], -533681124 ; e030ac1cH

; 461  : 	this->List[eExUB::Gredy2].TvTEvent				= true;

  0107d	8b 45 fc	 mov	 eax, DWORD PTR _this$[ebp]
  01080	c6 80 35 11 00
	00 01		 mov	 BYTE PTR [eax+4405], 1

; 462  : 	this->List[eExUB::Gredy2].PerosnalStoreEx		= true;

  01087	8b 45 fc	 mov	 eax, DWORD PTR _this$[ebp]
  0108a	c6 80 3c 11 00
	00 01		 mov	 BYTE PTR [eax+4412], 1

; 463  : 	this->List[eExUB::Gredy2].GM_Manager			= true;

  01091	8b 45 fc	 mov	 eax, DWORD PTR _this$[ebp]
  01094	c6 80 3b 11 00
	00 01		 mov	 BYTE PTR [eax+4411], 1

; 464  : 	this->List[eExUB::Gredy2].AntiCheatPlus			= true;

  0109b	8b 45 fc	 mov	 eax, DWORD PTR _this$[ebp]
  0109e	c6 80 3e 11 00
	00 01		 mov	 BYTE PTR [eax+4414], 1

; 465  : 	this->List[eExUB::Gredy2].SpotReturn			= true;

  010a5	8b 45 fc	 mov	 eax, DWORD PTR _this$[ebp]
  010a8	c6 80 3f 11 00
	00 01		 mov	 BYTE PTR [eax+4415], 1

; 466  : 	this->List[eExUB::Gredy2].PandoraEvent			= true;

  010af	8b 45 fc	 mov	 eax, DWORD PTR _this$[ebp]
  010b2	c6 80 3d 11 00
	00 01		 mov	 BYTE PTR [eax+4413], 1

; 467  : 	this->List[eExUB::Gredy2].LoraBattle			= true;

  010b9	8b 45 fc	 mov	 eax, DWORD PTR _this$[ebp]
  010bc	c6 80 43 11 00
	00 01		 mov	 BYTE PTR [eax+4419], 1

; 468  : 	this->List[eExUB::Gredy2].Smithy				= true;

  010c3	8b 45 fc	 mov	 eax, DWORD PTR _this$[ebp]
  010c6	c6 80 44 11 00
	00 01		 mov	 BYTE PTR [eax+4420], 1

; 469  : 	this->List[eExUB::Gredy2].GrandDinamicExp		= true;

  010cd	8b 45 fc	 mov	 eax, DWORD PTR _this$[ebp]
  010d0	c6 80 47 11 00
	00 01		 mov	 BYTE PTR [eax+4423], 1

; 470  : 	//this->List[eExUB::Gredy2].DisableMasterTree		= true;
; 471  : 	this->List[eExUB::Gredy2].Rage					= true;

  010d7	8b 45 fc	 mov	 eax, DWORD PTR _this$[ebp]
  010da	c6 80 31 11 00
	00 01		 mov	 BYTE PTR [eax+4401], 1

; 472  : 	this->List[eExUB::Gredy2].OfflineMode			= true;

  010e1	8b 45 fc	 mov	 eax, DWORD PTR _this$[ebp]
  010e4	c6 80 4a 11 00
	00 01		 mov	 BYTE PTR [eax+4426], 1

; 473  : 	this->List[eExUB::Gredy2].Monster				= true;

  010eb	8b 45 fc	 mov	 eax, DWORD PTR _this$[ebp]
  010ee	c6 80 45 11 00
	00 01		 mov	 BYTE PTR [eax+4421], 1

; 474  : 	this->List[eExUB::Gredy2].Marriage				= true;

  010f5	8b 45 fc	 mov	 eax, DWORD PTR _this$[ebp]
  010f8	c6 80 4b 11 00
	00 01		 mov	 BYTE PTR [eax+4427], 1

; 475  : 	this->List[eExUB::Gredy2].NpcBuffer				= true;

  010ff	8b 45 fc	 mov	 eax, DWORD PTR _this$[ebp]
  01102	c6 80 41 11 00
	00 01		 mov	 BYTE PTR [eax+4417], 1

; 476  : 	this->List[eExUB::Gredy2].bRankItem				= true;

  01109	8b 45 fc	 mov	 eax, DWORD PTR _this$[ebp]
  0110c	c6 80 4d 11 00
	00 01		 mov	 BYTE PTR [eax+4429], 1

; 477  : 	this->List[eExUB::Gredy2].RestoreOffMode		= true;

  01113	8b 45 fc	 mov	 eax, DWORD PTR _this$[ebp]
  01116	c6 80 4e 11 00
	00 01		 mov	 BYTE PTR [eax+4430], 1

; 478  : 	this->List[eExUB::Gredy2].PartySave				= true;

  0111d	8b 45 fc	 mov	 eax, DWORD PTR _this$[ebp]
  01120	c6 80 48 11 00
	00 01		 mov	 BYTE PTR [eax+4424], 1

; 479  : 	this->List[eExUB::Gredy2].PartySearch			= true;

  01127	8b 45 fc	 mov	 eax, DWORD PTR _this$[ebp]
  0112a	c6 80 39 11 00
	00 01		 mov	 BYTE PTR [eax+4409], 1

; 480  : 	this->List[eExUB::Gredy2].GrandHero				= true;

  01131	8b 45 fc	 mov	 eax, DWORD PTR _this$[ebp]
  01134	c6 80 36 11 00
	00 01		 mov	 BYTE PTR [eax+4406], 1

; 481  : 	this->List[eExUB::Gredy2].MonsterQuest			= true;

  0113b	8b 45 fc	 mov	 eax, DWORD PTR _this$[ebp]
  0113e	c6 80 34 11 00
	00 01		 mov	 BYTE PTR [eax+4404], 1

; 482  : 	this->List[eExUB::Gredy2].MapQuest				= true;

  01145	8b 45 fc	 mov	 eax, DWORD PTR _this$[ebp]
  01148	c6 80 4f 11 00
	00 01		 mov	 BYTE PTR [eax+4431], 1

; 483  : 	this->List[eExUB::Gredy2].bAchievements			= true;

  0114f	8b 45 fc	 mov	 eax, DWORD PTR _this$[ebp]
  01152	c6 80 51 11 00
	00 01		 mov	 BYTE PTR [eax+4433], 1

; 484  : 	this->List[eExUB::Gredy2].PremiumEx				= true;

  01159	8b 45 fc	 mov	 eax, DWORD PTR _this$[ebp]
  0115c	c6 80 52 11 00
	00 01		 mov	 BYTE PTR [eax+4434], 1

; 485  : 	this->List[eExUB::Gredy2].PartySystem			= true;

  01163	8b 45 fc	 mov	 eax, DWORD PTR _this$[ebp]
  01166	c6 80 37 11 00
	00 01		 mov	 BYTE PTR [eax+4407], 1

; 486  : 	this->List[eExUB::Gredy2].bTeamVsTeam2			= true;

  0116d	8b 45 fc	 mov	 eax, DWORD PTR _this$[ebp]
  01170	c6 80 50 11 00
	00 01		 mov	 BYTE PTR [eax+4432], 1

; 487  : 	this->List[eExUB::Gredy2].ItemSmokeEffect		= true;

  01177	8b 45 fc	 mov	 eax, DWORD PTR _this$[ebp]
  0117a	c6 80 46 11 00
	00 01		 mov	 BYTE PTR [eax+4422], 1

; 488  : 	this->List[eExUB::Gredy2].AccSecurity			= true;

  01181	8b 45 fc	 mov	 eax, DWORD PTR _this$[ebp]
  01184	c6 80 53 11 00
	00 01		 mov	 BYTE PTR [eax+4435], 1

; 489  : 	this->List[eExUB::Gredy2].CraftQuestSystem		= true;

  0118b	8b 45 fc	 mov	 eax, DWORD PTR _this$[ebp]
  0118e	c6 80 54 11 00
	00 01		 mov	 BYTE PTR [eax+4436], 1

; 490  : 	// ----
; 491  : 	strcpy(this->List[eExUB::Pavel2].Login,			"Pavel2");

  01195	68 00 00 00 00	 push	 OFFSET ??_C@_06FEDJGBKC@Pavel2?$AA@
  0119a	8b 45 fc	 mov	 eax, DWORD PTR _this$[ebp]
  0119d	05 58 11 00 00	 add	 eax, 4440		; 00001158H
  011a2	50		 push	 eax
  011a3	e8 00 00 00 00	 call	 _strcpy
  011a8	83 c4 08	 add	 esp, 8

; 492  : 	this->List[eExUB::Pavel2].hwid					= 2691024834;

  011ab	8b 45 fc	 mov	 eax, DWORD PTR _this$[ebp]
  011ae	c7 80 7c 11 00
	00 c2 c7 65 a0	 mov	 DWORD PTR [eax+4476], -1603942462 ; a065c7c2H

; 493  : 	// ----
; 494  : 	strcpy(this->List[eExUB::ulasevich2].Login,		"ulasevich2");

  011b8	68 00 00 00 00	 push	 OFFSET ??_C@_0L@KLOBFJGO@ulasevich2?$AA@
  011bd	8b 45 fc	 mov	 eax, DWORD PTR _this$[ebp]
  011c0	05 d0 11 00 00	 add	 eax, 4560		; 000011d0H
  011c5	50		 push	 eax
  011c6	e8 00 00 00 00	 call	 _strcpy
  011cb	83 c4 08	 add	 esp, 8

; 495  : 	this->List[eExUB::ulasevich2].hwid				= 71422912;

  011ce	8b 45 fc	 mov	 eax, DWORD PTR _this$[ebp]
  011d1	c7 80 f4 11 00
	00 c0 d3 41 04	 mov	 DWORD PTR [eax+4596], 71422912 ; 0441d3c0H

; 496  : 	this->List[eExUB::ulasevich2].BloodHound		= true;

  011db	8b 45 fc	 mov	 eax, DWORD PTR _this$[ebp]
  011de	c6 80 23 12 00
	00 01		 mov	 BYTE PTR [eax+4643], 1

; 497  : 	this->List[eExUB::ulasevich2].Rage				= true;

  011e5	8b 45 fc	 mov	 eax, DWORD PTR _this$[ebp]
  011e8	c6 80 21 12 00
	00 01		 mov	 BYTE PTR [eax+4641], 1

; 498  : 	this->List[eExUB::ulasevich2].MonsterQuest		= true;

  011ef	8b 45 fc	 mov	 eax, DWORD PTR _this$[ebp]
  011f2	c6 80 24 12 00
	00 01		 mov	 BYTE PTR [eax+4644], 1

; 499  : 	this->List[eExUB::ulasevich2].Brotherhood		= true;

  011f9	8b 45 fc	 mov	 eax, DWORD PTR _this$[ebp]
  011fc	c6 80 28 12 00
	00 01		 mov	 BYTE PTR [eax+4648], 1

; 500  : 	this->List[eExUB::ulasevich2].AntiCheatPlus		= true;

  01203	8b 45 fc	 mov	 eax, DWORD PTR _this$[ebp]
  01206	c6 80 2e 12 00
	00 01		 mov	 BYTE PTR [eax+4654], 1

; 501  : 	this->List[eExUB::ulasevich2].BMQuest			= true;

  0120d	8b 45 fc	 mov	 eax, DWORD PTR _this$[ebp]
  01210	c6 80 32 12 00
	00 01		 mov	 BYTE PTR [eax+4658], 1

; 502  : 	this->List[eExUB::ulasevich2].PandoraEvent		= true;

  01217	8b 45 fc	 mov	 eax, DWORD PTR _this$[ebp]
  0121a	c6 80 2d 12 00
	00 01		 mov	 BYTE PTR [eax+4653], 1

; 503  : 	this->List[eExUB::ulasevich2].bRankItem			= true;

  01221	8b 45 fc	 mov	 eax, DWORD PTR _this$[ebp]
  01224	c6 80 3d 12 00
	00 01		 mov	 BYTE PTR [eax+4669], 1

; 504  : 	this->List[eExUB::ulasevich2].PremiumEx			= true;

  0122b	8b 45 fc	 mov	 eax, DWORD PTR _this$[ebp]
  0122e	c6 80 42 12 00
	00 01		 mov	 BYTE PTR [eax+4674], 1

; 505  : 	this->List[eExUB::ulasevich2].Smithy			= true;

  01235	8b 45 fc	 mov	 eax, DWORD PTR _this$[ebp]
  01238	c6 80 34 12 00
	00 01		 mov	 BYTE PTR [eax+4660], 1

; 506  : 	this->List[eExUB::ulasevich2].OfflineMode		= true;

  0123f	8b 45 fc	 mov	 eax, DWORD PTR _this$[ebp]
  01242	c6 80 3a 12 00
	00 01		 mov	 BYTE PTR [eax+4666], 1

; 507  : 	this->List[eExUB::ulasevich2].PerosnalStoreEx	= true;

  01249	8b 45 fc	 mov	 eax, DWORD PTR _this$[ebp]
  0124c	c6 80 2c 12 00
	00 01		 mov	 BYTE PTR [eax+4652], 1

; 508  : 	// ----
; 509  : 	//strcpy(this->List[eExUB::feqan].Login,			"feqan");
; 510  : 	//this->List[eExUB::feqan].hwid					= 1521036435;
; 511  : 	//this->List[eExUB::feqan].PartySystem			= true;
; 512  : 	// ----
; 513  : 	strcpy(this->List[eExUB::Selfmylife].Login,		"Selfmylife");

  01253	68 00 00 00 00	 push	 OFFSET ??_C@_0L@GGEJJKBH@Selfmylife?$AA@
  01258	8b 45 fc	 mov	 eax, DWORD PTR _this$[ebp]
  0125b	05 c0 12 00 00	 add	 eax, 4800		; 000012c0H
  01260	50		 push	 eax
  01261	e8 00 00 00 00	 call	 _strcpy
  01266	83 c4 08	 add	 esp, 8

; 514  : 	this->List[eExUB::Selfmylife].hwid			= 3296873814;

  01269	8b 45 fc	 mov	 eax, DWORD PTR _this$[ebp]
  0126c	c7 80 e4 12 00
	00 56 4d 82 c4	 mov	 DWORD PTR [eax+4836], -998093482 ; c4824d56H

; 515  : 	// ----
; 516  : 	strcpy(this->List[eExUB::NoCustom].Login,		"NoCustom");

  01276	68 00 00 00 00	 push	 OFFSET ??_C@_08OBJGEGGG@NoCustom?$AA@
  0127b	8b 45 fc	 mov	 eax, DWORD PTR _this$[ebp]
  0127e	05 38 13 00 00	 add	 eax, 4920		; 00001338H
  01283	50		 push	 eax
  01284	e8 00 00 00 00	 call	 _strcpy
  01289	83 c4 08	 add	 esp, 8

; 517  : 	this->List[eExUB::NoCustom].hwid				= 1188528199;

  0128c	8b 45 fc	 mov	 eax, DWORD PTR _this$[ebp]
  0128f	c7 80 5c 13 00
	00 47 80 d7 46	 mov	 DWORD PTR [eax+4956], 1188528199 ; 46d78047H

; 518  : 	// ----
; 519  : 	strcpy(this->List[eExUB::ConflictNoCustom].Login,"ConflictNoCustom");

  01299	68 00 00 00 00	 push	 OFFSET ??_C@_0BB@LLHDAOFG@ConflictNoCustom?$AA@
  0129e	8b 45 fc	 mov	 eax, DWORD PTR _this$[ebp]
  012a1	05 b0 13 00 00	 add	 eax, 5040		; 000013b0H
  012a6	50		 push	 eax
  012a7	e8 00 00 00 00	 call	 _strcpy
  012ac	83 c4 08	 add	 esp, 8

; 520  : 	this->List[eExUB::ConflictNoCustom].hwid		= 2492754898;

  012af	8b 45 fc	 mov	 eax, DWORD PTR _this$[ebp]
  012b2	c7 80 d4 13 00
	00 d2 6b 94 94	 mov	 DWORD PTR [eax+5076], -1802212398 ; 94946bd2H

; 521  : 	this->List[eExUB::ConflictNoCustom].TvTEvent	= true;

  012bc	8b 45 fc	 mov	 eax, DWORD PTR _this$[ebp]
  012bf	c6 80 05 14 00
	00 01		 mov	 BYTE PTR [eax+5125], 1

; 522  : 	this->List[eExUB::ConflictNoCustom].PandoraEvent= true;

  012c6	8b 45 fc	 mov	 eax, DWORD PTR _this$[ebp]
  012c9	c6 80 0d 14 00
	00 01		 mov	 BYTE PTR [eax+5133], 1

; 523  : 	// ----
; 524  : 	strcpy(List[eExUB::Emanuel].Login,				"Emanuel");

  012d0	68 00 00 00 00	 push	 OFFSET ??_C@_07CPNOKJCH@Emanuel?$AA@
  012d5	8b 45 fc	 mov	 eax, DWORD PTR _this$[ebp]
  012d8	05 28 14 00 00	 add	 eax, 5160		; 00001428H
  012dd	50		 push	 eax
  012de	e8 00 00 00 00	 call	 _strcpy
  012e3	83 c4 08	 add	 esp, 8

; 525  : 	List[eExUB::Emanuel].hwid						= 4196649766;

  012e6	8b 45 fc	 mov	 eax, DWORD PTR _this$[ebp]
  012e9	c7 80 4c 14 00
	00 26 cb 23 fa	 mov	 DWORD PTR [eax+5196], -98317530 ; fa23cb26H

; 526  : 	// ----
; 527  : 	strcpy(this->List[eExUB::maksim844495].Login,	"maksim844495");

  012f3	68 00 00 00 00	 push	 OFFSET ??_C@_0N@HJACENNP@maksim844495?$AA@
  012f8	8b 45 fc	 mov	 eax, DWORD PTR _this$[ebp]
  012fb	05 a0 14 00 00	 add	 eax, 5280		; 000014a0H
  01300	50		 push	 eax
  01301	e8 00 00 00 00	 call	 _strcpy
  01306	83 c4 08	 add	 esp, 8

; 528  : 	this->List[eExUB::maksim844495].hwid			= 136373629;

  01309	8b 45 fc	 mov	 eax, DWORD PTR _this$[ebp]
  0130c	c7 80 c4 14 00
	00 7d e5 20 08	 mov	 DWORD PTR [eax+5316], 136373629 ; 0820e57dH

; 529  : 	this->List[eExUB::maksim844495].AntiCheatPlus	= true;

  01316	8b 45 fc	 mov	 eax, DWORD PTR _this$[ebp]
  01319	c6 80 fe 14 00
	00 01		 mov	 BYTE PTR [eax+5374], 1

; 530  : 	// ----
; 531  : 	strcpy(this->List[eExUB::SILVER_Local].Login,		"SILVER_Local");

  01320	68 00 00 00 00	 push	 OFFSET ??_C@_0N@BNPEMOPD@SILVER_Local?$AA@
  01325	8b 45 fc	 mov	 eax, DWORD PTR _this$[ebp]
  01328	05 18 15 00 00	 add	 eax, 5400		; 00001518H
  0132d	50		 push	 eax
  0132e	e8 00 00 00 00	 call	 _strcpy
  01333	83 c4 08	 add	 esp, 8

; 532  : 	this->List[eExUB::SILVER_Local].hwid				= 0;	// 3237505581;

  01336	8b 45 fc	 mov	 eax, DWORD PTR _this$[ebp]
  01339	c7 80 3c 15 00
	00 00 00 00 00	 mov	 DWORD PTR [eax+5436], 0

; 533  : 	this->List[eExUB::SILVER_Local].Rage				= true;

  01343	8b 45 fc	 mov	 eax, DWORD PTR _this$[ebp]
  01346	c6 80 69 15 00
	00 01		 mov	 BYTE PTR [eax+5481], 1

; 534  : 	this->List[eExUB::SILVER_Local].TvTEvent			= true;

  0134d	8b 45 fc	 mov	 eax, DWORD PTR _this$[ebp]
  01350	c6 80 6d 15 00
	00 01		 mov	 BYTE PTR [eax+5485], 1

; 535  : 	this->List[eExUB::SILVER_Local].Brotherhood			= true;

  01357	8b 45 fc	 mov	 eax, DWORD PTR _this$[ebp]
  0135a	c6 80 70 15 00
	00 01		 mov	 BYTE PTR [eax+5488], 1

; 536  : 	this->List[eExUB::SILVER_Local].PartySearch			= true;

  01361	8b 45 fc	 mov	 eax, DWORD PTR _this$[ebp]
  01364	c6 80 71 15 00
	00 01		 mov	 BYTE PTR [eax+5489], 1

; 537  : 	this->List[eExUB::SILVER_Local].PartySystem			= true;

  0136b	8b 45 fc	 mov	 eax, DWORD PTR _this$[ebp]
  0136e	c6 80 6f 15 00
	00 01		 mov	 BYTE PTR [eax+5487], 1

; 538  : 	this->List[eExUB::SILVER_Local].ChatLog				= true;

  01375	8b 45 fc	 mov	 eax, DWORD PTR _this$[ebp]
  01378	c6 80 72 15 00
	00 01		 mov	 BYTE PTR [eax+5490], 1

; 539  : 	this->List[eExUB::SILVER_Local].GM_Manager			= true;

  0137f	8b 45 fc	 mov	 eax, DWORD PTR _this$[ebp]
  01382	c6 80 73 15 00
	00 01		 mov	 BYTE PTR [eax+5491], 1

; 540  : 	this->List[eExUB::SILVER_Local].PerosnalStoreEx		= true;

  01389	8b 45 fc	 mov	 eax, DWORD PTR _this$[ebp]
  0138c	c6 80 74 15 00
	00 01		 mov	 BYTE PTR [eax+5492], 1

; 541  : 	this->List[eExUB::SILVER_Local].PartySave			= true;

  01393	8b 45 fc	 mov	 eax, DWORD PTR _this$[ebp]
  01396	c6 80 80 15 00
	00 01		 mov	 BYTE PTR [eax+5504], 1

; 542  : 	this->List[eExUB::SILVER_Local].Smithy				= true;

  0139d	8b 45 fc	 mov	 eax, DWORD PTR _this$[ebp]
  013a0	c6 80 7c 15 00
	00 01		 mov	 BYTE PTR [eax+5500], 1

; 543  : 	this->List[eExUB::SILVER_Local].OfflineMode			= true;

  013a7	8b 45 fc	 mov	 eax, DWORD PTR _this$[ebp]
  013aa	c6 80 82 15 00
	00 01		 mov	 BYTE PTR [eax+5506], 1

; 544  : 	this->List[eExUB::SILVER_Local].bAchievements		= true;

  013b1	8b 45 fc	 mov	 eax, DWORD PTR _this$[ebp]
  013b4	c6 80 89 15 00
	00 01		 mov	 BYTE PTR [eax+5513], 1

; 545  : 	this->List[eExUB::SILVER_Local].GrandDinamicExp		= true;

  013bb	8b 45 fc	 mov	 eax, DWORD PTR _this$[ebp]
  013be	c6 80 7f 15 00
	00 01		 mov	 BYTE PTR [eax+5503], 1

; 546  : 	this->List[eExUB::SILVER_Local].RestoreOffMode		= true;

  013c5	8b 45 fc	 mov	 eax, DWORD PTR _this$[ebp]
  013c8	c6 80 86 15 00
	00 01		 mov	 BYTE PTR [eax+5510], 1

; 547  : 
; 548  : 
; 549  : 	// ----
; 550  : 	strcpy(this->List[eExUB::Matias].Login,				"Matias");

  013cf	68 00 00 00 00	 push	 OFFSET ??_C@_06IDJMJNGD@Matias?$AA@
  013d4	8b 45 fc	 mov	 eax, DWORD PTR _this$[ebp]
  013d7	05 90 15 00 00	 add	 eax, 5520		; 00001590H
  013dc	50		 push	 eax
  013dd	e8 00 00 00 00	 call	 _strcpy
  013e2	83 c4 08	 add	 esp, 8

; 551  : 	this->List[eExUB::Matias].hwid					= 1578038406;

  013e5	8b 45 fc	 mov	 eax, DWORD PTR _this$[ebp]
  013e8	c7 80 b4 15 00
	00 86 f4 0e 5e	 mov	 DWORD PTR [eax+5556], 1578038406 ; 5e0ef486H

; 552  : 	// ----
; 553  : 	strcpy(this->List[eExUB::MMProduction].Login,		"MMProduction");

  013f2	68 00 00 00 00	 push	 OFFSET ??_C@_0N@DLCGCAMJ@MMProduction?$AA@
  013f7	8b 45 fc	 mov	 eax, DWORD PTR _this$[ebp]
  013fa	05 08 16 00 00	 add	 eax, 5640		; 00001608H
  013ff	50		 push	 eax
  01400	e8 00 00 00 00	 call	 _strcpy
  01405	83 c4 08	 add	 esp, 8

; 554  : 	this->List[eExUB::MMProduction].hwid				=	NULL;	//	37123;	<<-- License double disable

  01408	8b 45 fc	 mov	 eax, DWORD PTR _this$[ebp]
  0140b	c7 80 2c 16 00
	00 00 00 00 00	 mov	 DWORD PTR [eax+5676], 0

; 555  : 	
; 556  : 	//strcpy(this->List[eExUB::absolute].Login,			"absolute");
; 557  : 	//this->List[eExUB::absolute].hwid					= 2349598538;	//1578038406;
; 558  : 	//strcpy(this->List[eExUB::absolute].mac,	"00-15-5D-22-70-34");
; 559  : 	//this->List[eExUB::absolute].PartySearch				= true;
; 560  : 	//this->List[eExUB::absolute].PartySystem				= true;
; 561  : 	//this->List[eExUB::absolute].ChatLog					= true;
; 562  : 	//this->List[eExUB::absolute].GrandHero				= true;
; 563  : 	//this->List[eExUB::absolute].GM_Manager				= true;
; 564  : 	//this->List[eExUB::absolute].PerosnalStoreEx			= true;
; 565  : 	//this->List[eExUB::absolute].AntiCheatPlus			= true;
; 566  : 	////this->List[eExUB::absolute].Smithy				= true;
; 567  : 	//this->List[eExUB::absolute].Monster					= true;
; 568  : 	//this->List[eExUB::absolute].ItemSmokeEffect			= true;
; 569  : 	//this->List[eExUB::absolute].PartySave				= true;
; 570  : 	//this->List[eExUB::absolute].OfflineMode				= true;
; 571  : 
; 572  : 	strcpy(this->List[eExUB::DICE].Login,			"DICE");

  01415	68 00 00 00 00	 push	 OFFSET ??_C@_04INGAGJAF@DICE?$AA@
  0141a	8b 45 fc	 mov	 eax, DWORD PTR _this$[ebp]
  0141d	05 f8 16 00 00	 add	 eax, 5880		; 000016f8H
  01422	50		 push	 eax
  01423	e8 00 00 00 00	 call	 _strcpy
  01428	83 c4 08	 add	 esp, 8

; 573  : 	this->List[eExUB::DICE].hwid					= 2730446961;	// 2730446961;	//1578038406;

  0142b	8b 45 fc	 mov	 eax, DWORD PTR _this$[ebp]
  0142e	c7 80 1c 17 00
	00 71 50 bf a2	 mov	 DWORD PTR [eax+5916], -1564520335 ; a2bf5071H

; 574  : 	strcpy(this->List[eExUB::DICE].mac,		"0C-8B-FD-E3-98-05");

  01438	68 00 00 00 00	 push	 OFFSET ??_C@_0BC@PIGEOJDP@0C?98B?9FD?9E3?998?905?$AA@
  0143d	8b 45 fc	 mov	 eax, DWORD PTR _this$[ebp]
  01440	05 20 17 00 00	 add	 eax, 5920		; 00001720H
  01445	50		 push	 eax
  01446	e8 00 00 00 00	 call	 _strcpy
  0144b	83 c4 08	 add	 esp, 8

; 575  : 
; 576  : 	strcpy(this->List[eExUB::Artem].Login,			"Artem");

  0144e	68 00 00 00 00	 push	 OFFSET ??_C@_05HDDJBPNA@Artem?$AA@
  01453	8b 45 fc	 mov	 eax, DWORD PTR _this$[ebp]
  01456	05 70 17 00 00	 add	 eax, 6000		; 00001770H
  0145b	50		 push	 eax
  0145c	e8 00 00 00 00	 call	 _strcpy
  01461	83 c4 08	 add	 esp, 8

; 577  : 	this->List[eExUB::Artem].hwid					= 1111188280;	//	 2529125018;	// |D5-C5-AC-A8-EF-C1    

  01464	8b 45 fc	 mov	 eax, DWORD PTR _this$[ebp]
  01467	c7 80 94 17 00
	00 38 63 3b 42	 mov	 DWORD PTR [eax+6036], 1111188280 ; 423b6338H

; 578  : 	strcpy(this->List[eExUB::Artem].mac,			"D5-C5-AC-A8-EF-C1");

  01471	68 00 00 00 00	 push	 OFFSET ??_C@_0BC@PLNCIHJC@D5?9C5?9AC?9A8?9EF?9C1?$AA@
  01476	8b 45 fc	 mov	 eax, DWORD PTR _this$[ebp]
  01479	05 98 17 00 00	 add	 eax, 6040		; 00001798H
  0147e	50		 push	 eax
  0147f	e8 00 00 00 00	 call	 _strcpy
  01484	83 c4 08	 add	 esp, 8

; 579  : 	this->List[eExUB::Artem].TvTEvent				= true;

  01487	8b 45 fc	 mov	 eax, DWORD PTR _this$[ebp]
  0148a	c6 80 c5 17 00
	00 01		 mov	 BYTE PTR [eax+6085], 1

; 580  : 	this->List[eExUB::Artem].PerosnalStoreEx		= true;

  01491	8b 45 fc	 mov	 eax, DWORD PTR _this$[ebp]
  01494	c6 80 cc 17 00
	00 01		 mov	 BYTE PTR [eax+6092], 1

; 581  : 	this->List[eExUB::Artem].GM_Manager				= true;

  0149b	8b 45 fc	 mov	 eax, DWORD PTR _this$[ebp]
  0149e	c6 80 cb 17 00
	00 01		 mov	 BYTE PTR [eax+6091], 1

; 582  : 	this->List[eExUB::Artem].AntiCheatPlus			= true;

  014a5	8b 45 fc	 mov	 eax, DWORD PTR _this$[ebp]
  014a8	c6 80 ce 17 00
	00 01		 mov	 BYTE PTR [eax+6094], 1

; 583  : 	this->List[eExUB::Artem].SpotReturn				= true;

  014af	8b 45 fc	 mov	 eax, DWORD PTR _this$[ebp]
  014b2	c6 80 cf 17 00
	00 01		 mov	 BYTE PTR [eax+6095], 1

; 584  : 	this->List[eExUB::Artem].PandoraEvent			= true;

  014b9	8b 45 fc	 mov	 eax, DWORD PTR _this$[ebp]
  014bc	c6 80 cd 17 00
	00 01		 mov	 BYTE PTR [eax+6093], 1

; 585  : 	this->List[eExUB::Artem].LoraBattle				= true;

  014c3	8b 45 fc	 mov	 eax, DWORD PTR _this$[ebp]
  014c6	c6 80 d3 17 00
	00 01		 mov	 BYTE PTR [eax+6099], 1

; 586  : 	this->List[eExUB::Artem].Smithy					= true;

  014cd	8b 45 fc	 mov	 eax, DWORD PTR _this$[ebp]
  014d0	c6 80 d4 17 00
	00 01		 mov	 BYTE PTR [eax+6100], 1

; 587  : 	this->List[eExUB::Artem].GrandDinamicExp		= true;

  014d7	8b 45 fc	 mov	 eax, DWORD PTR _this$[ebp]
  014da	c6 80 d7 17 00
	00 01		 mov	 BYTE PTR [eax+6103], 1

; 588  : 	this->List[eExUB::Artem].DisableMasterTree		= true;

  014e1	8b 45 fc	 mov	 eax, DWORD PTR _this$[ebp]
  014e4	c6 80 d9 17 00
	00 01		 mov	 BYTE PTR [eax+6105], 1

; 589  : 	this->List[eExUB::Artem].Rage					= true;

  014eb	8b 45 fc	 mov	 eax, DWORD PTR _this$[ebp]
  014ee	c6 80 c1 17 00
	00 01		 mov	 BYTE PTR [eax+6081], 1

; 590  : 	this->List[eExUB::Artem].OfflineMode			= true;

  014f5	8b 45 fc	 mov	 eax, DWORD PTR _this$[ebp]
  014f8	c6 80 da 17 00
	00 01		 mov	 BYTE PTR [eax+6106], 1

; 591  : 	this->List[eExUB::Artem].Monster				= true;

  014ff	8b 45 fc	 mov	 eax, DWORD PTR _this$[ebp]
  01502	c6 80 d5 17 00
	00 01		 mov	 BYTE PTR [eax+6101], 1

; 592  : 	this->List[eExUB::Artem].Marriage				= true;

  01509	8b 45 fc	 mov	 eax, DWORD PTR _this$[ebp]
  0150c	c6 80 db 17 00
	00 01		 mov	 BYTE PTR [eax+6107], 1

; 593  : 	this->List[eExUB::Artem].PartySave				= true;

  01513	8b 45 fc	 mov	 eax, DWORD PTR _this$[ebp]
  01516	c6 80 d8 17 00
	00 01		 mov	 BYTE PTR [eax+6104], 1

; 594  : 	this->List[eExUB::Artem].bTeamVsTeam2			= true;

  0151d	8b 45 fc	 mov	 eax, DWORD PTR _this$[ebp]
  01520	c6 80 e0 17 00
	00 01		 mov	 BYTE PTR [eax+6112], 1

; 595  : 	this->List[eExUB::Artem].bRankItem				= true;

  01527	8b 45 fc	 mov	 eax, DWORD PTR _this$[ebp]
  0152a	c6 80 dd 17 00
	00 01		 mov	 BYTE PTR [eax+6109], 1

; 596  : 	this->List[eExUB::Artem].MonsterAttackLife		= true;

  01531	8b 45 fc	 mov	 eax, DWORD PTR _this$[ebp]
  01534	c6 80 dc 17 00
	00 01		 mov	 BYTE PTR [eax+6108], 1

; 597  : 	this->List[eExUB::Artem].RestoreOffMode			= true;

  0153b	8b 45 fc	 mov	 eax, DWORD PTR _this$[ebp]
  0153e	c6 80 de 17 00
	00 01		 mov	 BYTE PTR [eax+6110], 1

; 598  : 	this->List[eExUB::Artem].PartySearch			= true;

  01545	8b 45 fc	 mov	 eax, DWORD PTR _this$[ebp]
  01548	c6 80 c9 17 00
	00 01		 mov	 BYTE PTR [eax+6089], 1

; 599  : 	this->List[eExUB::Artem].bAchievements			= true;

  0154f	8b 45 fc	 mov	 eax, DWORD PTR _this$[ebp]
  01552	c6 80 e1 17 00
	00 01		 mov	 BYTE PTR [eax+6113], 1

; 600  : 	this->List[eExUB::Artem].MonsterQuest			= true;

  01559	8b 45 fc	 mov	 eax, DWORD PTR _this$[ebp]
  0155c	c6 80 c4 17 00
	00 01		 mov	 BYTE PTR [eax+6084], 1

; 601  : 	this->List[eExUB::Artem].PremiumEx				= true;

  01563	8b 45 fc	 mov	 eax, DWORD PTR _this$[ebp]
  01566	c6 80 e2 17 00
	00 01		 mov	 BYTE PTR [eax+6114], 1

; 602  : 	this->List[eExUB::Artem].PartySystem			= true;

  0156d	8b 45 fc	 mov	 eax, DWORD PTR _this$[ebp]
  01570	c6 80 c7 17 00
	00 01		 mov	 BYTE PTR [eax+6087], 1

; 603  : 	this->List[eExUB::Artem].Marriage				= true;

  01577	8b 45 fc	 mov	 eax, DWORD PTR _this$[ebp]
  0157a	c6 80 db 17 00
	00 01		 mov	 BYTE PTR [eax+6107], 1

; 604  : 	this->List[eExUB::Artem].AccSecurity			= true;

  01581	8b 45 fc	 mov	 eax, DWORD PTR _this$[ebp]
  01584	c6 80 e3 17 00
	00 01		 mov	 BYTE PTR [eax+6115], 1

; 605  : 	this->List[eExUB::Artem].ReferralSystem			= true;

  0158b	8b 45 fc	 mov	 eax, DWORD PTR _this$[ebp]
  0158e	c6 80 e6 17 00
	00 01		 mov	 BYTE PTR [eax+6118], 1

; 606  : 	this->List[eExUB::Artem].NpcBuffer				= true;

  01595	8b 45 fc	 mov	 eax, DWORD PTR _this$[ebp]
  01598	c6 80 d1 17 00
	00 01		 mov	 BYTE PTR [eax+6097], 1

; 607  : 
; 608  : 	strcpy(this->List[eExUB::Artem2].Login,			"Artem2");

  0159f	68 00 00 00 00	 push	 OFFSET ??_C@_06GLNALPLK@Artem2?$AA@
  015a4	8b 45 fc	 mov	 eax, DWORD PTR _this$[ebp]
  015a7	05 e8 17 00 00	 add	 eax, 6120		; 000017e8H
  015ac	50		 push	 eax
  015ad	e8 00 00 00 00	 call	 _strcpy
  015b2	83 c4 08	 add	 esp, 8

; 609  : 	this->List[eExUB::Artem2].hwid					= 37123;	//37123

  015b5	8b 45 fc	 mov	 eax, DWORD PTR _this$[ebp]
  015b8	c7 80 0c 18 00
	00 03 91 00 00	 mov	 DWORD PTR [eax+6156], 37123 ; 00009103H

; 610  : 	//strcpy(this->List[eExUB::Artem2].mac,			"FD-50-78-1A-FE-13");
; 611  : 	this->List[eExUB::Artem2].TvTEvent				= true;

  015c2	8b 45 fc	 mov	 eax, DWORD PTR _this$[ebp]
  015c5	c6 80 3d 18 00
	00 01		 mov	 BYTE PTR [eax+6205], 1

; 612  : 	this->List[eExUB::Artem2].PerosnalStoreEx		= true;

  015cc	8b 45 fc	 mov	 eax, DWORD PTR _this$[ebp]
  015cf	c6 80 44 18 00
	00 01		 mov	 BYTE PTR [eax+6212], 1

; 613  : 	this->List[eExUB::Artem2].GM_Manager			= true;

  015d6	8b 45 fc	 mov	 eax, DWORD PTR _this$[ebp]
  015d9	c6 80 43 18 00
	00 01		 mov	 BYTE PTR [eax+6211], 1

; 614  : 	this->List[eExUB::Artem2].AntiCheatPlus			= true;

  015e0	8b 45 fc	 mov	 eax, DWORD PTR _this$[ebp]
  015e3	c6 80 46 18 00
	00 01		 mov	 BYTE PTR [eax+6214], 1

; 615  : 	this->List[eExUB::Artem2].SpotReturn			= true;

  015ea	8b 45 fc	 mov	 eax, DWORD PTR _this$[ebp]
  015ed	c6 80 47 18 00
	00 01		 mov	 BYTE PTR [eax+6215], 1

; 616  : 	this->List[eExUB::Artem2].PandoraEvent			= true;

  015f4	8b 45 fc	 mov	 eax, DWORD PTR _this$[ebp]
  015f7	c6 80 45 18 00
	00 01		 mov	 BYTE PTR [eax+6213], 1

; 617  : 	this->List[eExUB::Artem2].LoraBattle			= true;

  015fe	8b 45 fc	 mov	 eax, DWORD PTR _this$[ebp]
  01601	c6 80 4b 18 00
	00 01		 mov	 BYTE PTR [eax+6219], 1

; 618  : 	this->List[eExUB::Artem2].Smithy				= true;

  01608	8b 45 fc	 mov	 eax, DWORD PTR _this$[ebp]
  0160b	c6 80 4c 18 00
	00 01		 mov	 BYTE PTR [eax+6220], 1

; 619  : 	this->List[eExUB::Artem2].GrandDinamicExp		= true;

  01612	8b 45 fc	 mov	 eax, DWORD PTR _this$[ebp]
  01615	c6 80 4f 18 00
	00 01		 mov	 BYTE PTR [eax+6223], 1

; 620  : 	this->List[eExUB::Artem2].DisableMasterTree		= true;

  0161c	8b 45 fc	 mov	 eax, DWORD PTR _this$[ebp]
  0161f	c6 80 51 18 00
	00 01		 mov	 BYTE PTR [eax+6225], 1

; 621  : 	this->List[eExUB::Artem2].Rage					= true;

  01626	8b 45 fc	 mov	 eax, DWORD PTR _this$[ebp]
  01629	c6 80 39 18 00
	00 01		 mov	 BYTE PTR [eax+6201], 1

; 622  : 	this->List[eExUB::Artem2].OfflineMode			= true;

  01630	8b 45 fc	 mov	 eax, DWORD PTR _this$[ebp]
  01633	c6 80 52 18 00
	00 01		 mov	 BYTE PTR [eax+6226], 1

; 623  : 	this->List[eExUB::Artem2].Monster				= true;

  0163a	8b 45 fc	 mov	 eax, DWORD PTR _this$[ebp]
  0163d	c6 80 4d 18 00
	00 01		 mov	 BYTE PTR [eax+6221], 1

; 624  : 	this->List[eExUB::Artem2].Marriage				= true;

  01644	8b 45 fc	 mov	 eax, DWORD PTR _this$[ebp]
  01647	c6 80 53 18 00
	00 01		 mov	 BYTE PTR [eax+6227], 1

; 625  : 	this->List[eExUB::Artem2].PartySave				= true;

  0164e	8b 45 fc	 mov	 eax, DWORD PTR _this$[ebp]
  01651	c6 80 50 18 00
	00 01		 mov	 BYTE PTR [eax+6224], 1

; 626  : 	this->List[eExUB::Artem2].bTeamVsTeam2			= true;

  01658	8b 45 fc	 mov	 eax, DWORD PTR _this$[ebp]
  0165b	c6 80 58 18 00
	00 01		 mov	 BYTE PTR [eax+6232], 1

; 627  : 	this->List[eExUB::Artem2].bRankItem				= true;

  01662	8b 45 fc	 mov	 eax, DWORD PTR _this$[ebp]
  01665	c6 80 55 18 00
	00 01		 mov	 BYTE PTR [eax+6229], 1

; 628  : 	this->List[eExUB::Artem2].MonsterAttackLife		= true;

  0166c	8b 45 fc	 mov	 eax, DWORD PTR _this$[ebp]
  0166f	c6 80 54 18 00
	00 01		 mov	 BYTE PTR [eax+6228], 1

; 629  : 	this->List[eExUB::Artem2].RestoreOffMode		= true;

  01676	8b 45 fc	 mov	 eax, DWORD PTR _this$[ebp]
  01679	c6 80 56 18 00
	00 01		 mov	 BYTE PTR [eax+6230], 1

; 630  : 	this->List[eExUB::Artem2].PartySearch			= true;

  01680	8b 45 fc	 mov	 eax, DWORD PTR _this$[ebp]
  01683	c6 80 41 18 00
	00 01		 mov	 BYTE PTR [eax+6209], 1

; 631  : 	this->List[eExUB::Artem2].bAchievements			= true;

  0168a	8b 45 fc	 mov	 eax, DWORD PTR _this$[ebp]
  0168d	c6 80 59 18 00
	00 01		 mov	 BYTE PTR [eax+6233], 1

; 632  : 	this->List[eExUB::Artem2].MonsterQuest			= true;

  01694	8b 45 fc	 mov	 eax, DWORD PTR _this$[ebp]
  01697	c6 80 3c 18 00
	00 01		 mov	 BYTE PTR [eax+6204], 1

; 633  : 	this->List[eExUB::Artem2].PremiumEx				= true;

  0169e	8b 45 fc	 mov	 eax, DWORD PTR _this$[ebp]
  016a1	c6 80 5a 18 00
	00 01		 mov	 BYTE PTR [eax+6234], 1

; 634  : 	this->List[eExUB::Artem2].PartySystem			= true;

  016a8	8b 45 fc	 mov	 eax, DWORD PTR _this$[ebp]
  016ab	c6 80 3f 18 00
	00 01		 mov	 BYTE PTR [eax+6207], 1

; 635  : 	this->List[eExUB::Artem2].Marriage				= true;

  016b2	8b 45 fc	 mov	 eax, DWORD PTR _this$[ebp]
  016b5	c6 80 53 18 00
	00 01		 mov	 BYTE PTR [eax+6227], 1

; 636  : 	this->List[eExUB::Artem2].AccSecurity			= true;

  016bc	8b 45 fc	 mov	 eax, DWORD PTR _this$[ebp]
  016bf	c6 80 5b 18 00
	00 01		 mov	 BYTE PTR [eax+6235], 1

; 637  : 	this->List[eExUB::Artem2].ReferralSystem		= true;

  016c6	8b 45 fc	 mov	 eax, DWORD PTR _this$[ebp]
  016c9	c6 80 5e 18 00
	00 01		 mov	 BYTE PTR [eax+6238], 1

; 638  : 	this->List[eExUB::Artem2].NpcBuffer				= true;

  016d0	8b 45 fc	 mov	 eax, DWORD PTR _this$[ebp]
  016d3	c6 80 49 18 00
	00 01		 mov	 BYTE PTR [eax+6217], 1

; 639  : 
; 640  : 
; 641  : 	strcpy(this->List[eExUB::MedoniAndrei].Login,	"MedoniAndrei");

  016da	68 00 00 00 00	 push	 OFFSET ??_C@_0N@KGBKHIAJ@MedoniAndrei?$AA@
  016df	8b 45 fc	 mov	 eax, DWORD PTR _this$[ebp]
  016e2	05 60 18 00 00	 add	 eax, 6240		; 00001860H
  016e7	50		 push	 eax
  016e8	e8 00 00 00 00	 call	 _strcpy
  016ed	83 c4 08	 add	 esp, 8

; 642  : 	this->List[eExUB::MedoniAndrei].hwid			= 2630807982;// 2262655649;	//3760173629

  016f0	8b 45 fc	 mov	 eax, DWORD PTR _this$[ebp]
  016f3	c7 80 84 18 00
	00 ae f1 ce 9c	 mov	 DWORD PTR [eax+6276], -1664159314 ; 9ccef1aeH

; 643  : 	strcpy(this->List[eExUB::MedoniAndrei].mac,		"A9-40-37-E5-1B-8D");

  016fd	68 00 00 00 00	 push	 OFFSET ??_C@_0BC@LMHCKMCN@A9?940?937?9E5?91B?98D?$AA@
  01702	8b 45 fc	 mov	 eax, DWORD PTR _this$[ebp]
  01705	05 88 18 00 00	 add	 eax, 6280		; 00001888H
  0170a	50		 push	 eax
  0170b	e8 00 00 00 00	 call	 _strcpy
  01710	83 c4 08	 add	 esp, 8

; 644  : 	this->List[eExUB::MedoniAndrei].OfflineMode     = true;

  01713	8b 45 fc	 mov	 eax, DWORD PTR _this$[ebp]
  01716	c6 80 ca 18 00
	00 01		 mov	 BYTE PTR [eax+6346], 1

; 645  : 	this->List[eExUB::MedoniAndrei].PerosnalStoreEx	= true;

  0171d	8b 45 fc	 mov	 eax, DWORD PTR _this$[ebp]
  01720	c6 80 bc 18 00
	00 01		 mov	 BYTE PTR [eax+6332], 1

; 646  : 	this->List[eExUB::MedoniAndrei].Monster			= true;

  01727	8b 45 fc	 mov	 eax, DWORD PTR _this$[ebp]
  0172a	c6 80 c5 18 00
	00 01		 mov	 BYTE PTR [eax+6341], 1

; 647  : 	this->List[eExUB::MedoniAndrei].MonsterAttackLife = true;

  01731	8b 45 fc	 mov	 eax, DWORD PTR _this$[ebp]
  01734	c6 80 cc 18 00
	00 01		 mov	 BYTE PTR [eax+6348], 1

; 648  : 	this->List[eExUB::MedoniAndrei].Brotherhood		= true;

  0173b	8b 45 fc	 mov	 eax, DWORD PTR _this$[ebp]
  0173e	c6 80 b8 18 00
	00 01		 mov	 BYTE PTR [eax+6328], 1

; 649  : 	this->List[eExUB::MedoniAndrei].AntiCheatPlus	= true;

  01745	8b 45 fc	 mov	 eax, DWORD PTR _this$[ebp]
  01748	c6 80 be 18 00
	00 01		 mov	 BYTE PTR [eax+6334], 1

; 650  : 	this->List[eExUB::MedoniAndrei].TvTEvent		= true;

  0174f	8b 45 fc	 mov	 eax, DWORD PTR _this$[ebp]
  01752	c6 80 b5 18 00
	00 01		 mov	 BYTE PTR [eax+6325], 1

; 651  : 	this->List[eExUB::MedoniAndrei].ItemSmokeEffect	= true;

  01759	8b 45 fc	 mov	 eax, DWORD PTR _this$[ebp]
  0175c	c6 80 c6 18 00
	00 01		 mov	 BYTE PTR [eax+6342], 1

; 652  : 	//this->List[eExUB::MedoniAndrei].Rage			= true;
; 653  : 	this->List[eExUB::MedoniAndrei].bTeamVsTeam2	= true;

  01763	8b 45 fc	 mov	 eax, DWORD PTR _this$[ebp]
  01766	c6 80 d0 18 00
	00 01		 mov	 BYTE PTR [eax+6352], 1

; 654  : 	this->List[eExUB::MedoniAndrei].bRankItem		= true;

  0176d	8b 45 fc	 mov	 eax, DWORD PTR _this$[ebp]
  01770	c6 80 cd 18 00
	00 01		 mov	 BYTE PTR [eax+6349], 1

; 655  : 	this->List[eExUB::MedoniAndrei].PremiumEx		= true;

  01777	8b 45 fc	 mov	 eax, DWORD PTR _this$[ebp]
  0177a	c6 80 d2 18 00
	00 01		 mov	 BYTE PTR [eax+6354], 1

; 656  : 	this->List[eExUB::MedoniAndrei].AccSecurity		= true;

  01781	8b 45 fc	 mov	 eax, DWORD PTR _this$[ebp]
  01784	c6 80 d3 18 00
	00 01		 mov	 BYTE PTR [eax+6355], 1

; 657  : 	this->List[eExUB::MedoniAndrei].PartySearch		= true;

  0178b	8b 45 fc	 mov	 eax, DWORD PTR _this$[ebp]
  0178e	c6 80 b9 18 00
	00 01		 mov	 BYTE PTR [eax+6329], 1

; 658  : 	this->List[eExUB::MedoniAndrei].ReferralSystem  = true;

  01795	8b 45 fc	 mov	 eax, DWORD PTR _this$[ebp]
  01798	c6 80 d6 18 00
	00 01		 mov	 BYTE PTR [eax+6358], 1

; 659  : 	this->List[eExUB::MedoniAndrei].GrandDinamicExp = true;

  0179f	8b 45 fc	 mov	 eax, DWORD PTR _this$[ebp]
  017a2	c6 80 c7 18 00
	00 01		 mov	 BYTE PTR [eax+6343], 1

; 660  : 	this->List[eExUB::MedoniAndrei].PartySave		= true;

  017a9	8b 45 fc	 mov	 eax, DWORD PTR _this$[ebp]
  017ac	c6 80 c8 18 00
	00 01		 mov	 BYTE PTR [eax+6344], 1

; 661  : 	this->List[eExUB::MedoniAndrei].CraftQuestSystem = true;

  017b3	8b 45 fc	 mov	 eax, DWORD PTR _this$[ebp]
  017b6	c6 80 d4 18 00
	00 01		 mov	 BYTE PTR [eax+6356], 1

; 662  : 	this->List[eExUB::MedoniAndrei].PickUpItemInfo = true;

  017bd	8b 45 fc	 mov	 eax, DWORD PTR _this$[ebp]
  017c0	c6 80 d5 18 00
	00 01		 mov	 BYTE PTR [eax+6357], 1

; 663  : 
; 664  : 	//strcpy(this->List[eExUB::SirJ].Login,	"SirJ");
; 665  : 	//this->List[eExUB::SirJ].hwid			= 2349598538;
; 666  : 
; 667  : 	strcpy(this->List[eExUB::Eduardo].Login,	"Eduardo");

  017c7	68 00 00 00 00	 push	 OFFSET ??_C@_07BHGJDKOF@Eduardo?$AA@
  017cc	8b 45 fc	 mov	 eax, DWORD PTR _this$[ebp]
  017cf	05 50 19 00 00	 add	 eax, 6480		; 00001950H
  017d4	50		 push	 eax
  017d5	e8 00 00 00 00	 call	 _strcpy
  017da	83 c4 08	 add	 esp, 8

; 668  : 	this->List[eExUB::Eduardo].hwid				= 3489763032;

  017dd	8b 45 fc	 mov	 eax, DWORD PTR _this$[ebp]
  017e0	c7 80 74 19 00
	00 d8 8e 01 d0	 mov	 DWORD PTR [eax+6516], -805204264 ; d0018ed8H

; 669  : 	this->List[eExUB::Eduardo].AntiCheatPlus	= true;

  017ea	8b 45 fc	 mov	 eax, DWORD PTR _this$[ebp]
  017ed	c6 80 ae 19 00
	00 01		 mov	 BYTE PTR [eax+6574], 1

; 670  : 	this->List[eExUB::Eduardo].NpcBuffer		= true;

  017f4	8b 45 fc	 mov	 eax, DWORD PTR _this$[ebp]
  017f7	c6 80 b1 19 00
	00 01		 mov	 BYTE PTR [eax+6577], 1

; 671  : 
; 672  : 	strcpy(this->List[eExUB::bassreflexive].Login,	"bassreflexive");

  017fe	68 00 00 00 00	 push	 OFFSET ??_C@_0O@IFBPLBBM@bassreflexive?$AA@
  01803	8b 45 fc	 mov	 eax, DWORD PTR _this$[ebp]
  01806	05 c8 19 00 00	 add	 eax, 6600		; 000019c8H
  0180b	50		 push	 eax
  0180c	e8 00 00 00 00	 call	 _strcpy
  01811	83 c4 08	 add	 esp, 8

; 673  : 	this->List[eExUB::bassreflexive].hwid			= 176480702;// 3825993254;

  01814	8b 45 fc	 mov	 eax, DWORD PTR _this$[ebp]
  01817	c7 80 ec 19 00
	00 be e1 84 0a	 mov	 DWORD PTR [eax+6636], 176480702 ; 0a84e1beH

; 674  : 	this->List[eExUB::bassreflexive].PerosnalStoreEx	= true;

  01821	8b 45 fc	 mov	 eax, DWORD PTR _this$[ebp]
  01824	c6 80 24 1a 00
	00 01		 mov	 BYTE PTR [eax+6692], 1

; 675  : 	this->List[eExUB::bassreflexive].OfflineMode	= true;

  0182b	8b 45 fc	 mov	 eax, DWORD PTR _this$[ebp]
  0182e	c6 80 32 1a 00
	00 01		 mov	 BYTE PTR [eax+6706], 1

; 676  : 	this->List[eExUB::bassreflexive].Rage		= true;

  01835	8b 45 fc	 mov	 eax, DWORD PTR _this$[ebp]
  01838	c6 80 19 1a 00
	00 01		 mov	 BYTE PTR [eax+6681], 1

; 677  : 
; 678  : 	strcpy(this->List[eExUB::MU2Play].Login,			"MU2Play");

  0183f	68 00 00 00 00	 push	 OFFSET ??_C@_07OOBBHDME@MU2Play?$AA@
  01844	8b 45 fc	 mov	 eax, DWORD PTR _this$[ebp]
  01847	05 40 1a 00 00	 add	 eax, 6720		; 00001a40H
  0184c	50		 push	 eax
  0184d	e8 00 00 00 00	 call	 _strcpy
  01852	83 c4 08	 add	 esp, 8

; 679  : 	//this->List[eExUB::MU2Play].hwid						= 3324969216;	// 3324969216;	//2349598538;
; 680  : 	//strcpy(this->List[eExUB::MU2Play].mac,				"02-19-5D-22-71-D1");
; 681  : 	this->List[eExUB::MU2Play].PartySearch				= true;

  01855	8b 45 fc	 mov	 eax, DWORD PTR _this$[ebp]
  01858	c6 80 99 1a 00
	00 01		 mov	 BYTE PTR [eax+6809], 1

; 682  : 	this->List[eExUB::MU2Play].PartySystem				= true;

  0185f	8b 45 fc	 mov	 eax, DWORD PTR _this$[ebp]
  01862	c6 80 97 1a 00
	00 01		 mov	 BYTE PTR [eax+6807], 1

; 683  : 	this->List[eExUB::MU2Play].GM_Manager				= true;

  01869	8b 45 fc	 mov	 eax, DWORD PTR _this$[ebp]
  0186c	c6 80 9b 1a 00
	00 01		 mov	 BYTE PTR [eax+6811], 1

; 684  : 	this->List[eExUB::MU2Play].PerosnalStoreEx			= true;

  01873	8b 45 fc	 mov	 eax, DWORD PTR _this$[ebp]
  01876	c6 80 9c 1a 00
	00 01		 mov	 BYTE PTR [eax+6812], 1

; 685  : 	this->List[eExUB::MU2Play].AntiCheatPlus			= true;

  0187d	8b 45 fc	 mov	 eax, DWORD PTR _this$[ebp]
  01880	c6 80 9e 1a 00
	00 01		 mov	 BYTE PTR [eax+6814], 1

; 686  : 	this->List[eExUB::MU2Play].Rage						= true;

  01887	8b 45 fc	 mov	 eax, DWORD PTR _this$[ebp]
  0188a	c6 80 91 1a 00
	00 01		 mov	 BYTE PTR [eax+6801], 1

; 687  : 	this->List[eExUB::MU2Play].Monster					= true;

  01891	8b 45 fc	 mov	 eax, DWORD PTR _this$[ebp]
  01894	c6 80 a5 1a 00
	00 01		 mov	 BYTE PTR [eax+6821], 1

; 688  : 	this->List[eExUB::MU2Play].PartySave				= true;

  0189b	8b 45 fc	 mov	 eax, DWORD PTR _this$[ebp]
  0189e	c6 80 a8 1a 00
	00 01		 mov	 BYTE PTR [eax+6824], 1

; 689  : 	this->List[eExUB::MU2Play].OfflineMode				= true;

  018a5	8b 45 fc	 mov	 eax, DWORD PTR _this$[ebp]
  018a8	c6 80 aa 1a 00
	00 01		 mov	 BYTE PTR [eax+6826], 1

; 690  : 	this->List[eExUB::MU2Play].bRankItem				= true;

  018af	8b 45 fc	 mov	 eax, DWORD PTR _this$[ebp]
  018b2	c6 80 ad 1a 00
	00 01		 mov	 BYTE PTR [eax+6829], 1

; 691  : 	this->List[eExUB::MU2Play].MonsterAttackLife		= true;

  018b9	8b 45 fc	 mov	 eax, DWORD PTR _this$[ebp]
  018bc	c6 80 ac 1a 00
	00 01		 mov	 BYTE PTR [eax+6828], 1

; 692  : 	this->List[eExUB::MU2Play].GrandDinamicExp			= true;

  018c3	8b 45 fc	 mov	 eax, DWORD PTR _this$[ebp]
  018c6	c6 80 a7 1a 00
	00 01		 mov	 BYTE PTR [eax+6823], 1

; 693  : 	this->List[eExUB::MU2Play].RestoreOffMode			= true;

  018cd	8b 45 fc	 mov	 eax, DWORD PTR _this$[ebp]
  018d0	c6 80 ae 1a 00
	00 01		 mov	 BYTE PTR [eax+6830], 1

; 694  : 	this->List[eExUB::MU2Play].bTeamVsTeam2				= true;

  018d7	8b 45 fc	 mov	 eax, DWORD PTR _this$[ebp]
  018da	c6 80 b0 1a 00
	00 01		 mov	 BYTE PTR [eax+6832], 1

; 695  : 
; 696  : 	strcpy(this->List[eExUB::Stone].Login,	"Stone");

  018e1	68 00 00 00 00	 push	 OFFSET ??_C@_05PBPDPMJH@Stone?$AA@
  018e6	8b 45 fc	 mov	 eax, DWORD PTR _this$[ebp]
  018e9	05 b8 1a 00 00	 add	 eax, 6840		; 00001ab8H
  018ee	50		 push	 eax
  018ef	e8 00 00 00 00	 call	 _strcpy
  018f4	83 c4 08	 add	 esp, 8

; 697  : 	this->List[eExUB::Stone].hwid			= 2628301467;	//370104553;

  018f7	8b 45 fc	 mov	 eax, DWORD PTR _this$[ebp]
  018fa	c7 80 dc 1a 00
	00 9b b2 a8 9c	 mov	 DWORD PTR [eax+6876], -1666665829 ; 9ca8b29bH

; 698  : 	strcpy(this->List[eExUB::Stone].mac,				"02-00-00-38-40-23");

  01904	68 00 00 00 00	 push	 OFFSET ??_C@_0BC@FNJBNPPL@02?900?900?938?940?923?$AA@
  01909	8b 45 fc	 mov	 eax, DWORD PTR _this$[ebp]
  0190c	05 e0 1a 00 00	 add	 eax, 6880		; 00001ae0H
  01911	50		 push	 eax
  01912	e8 00 00 00 00	 call	 _strcpy
  01917	83 c4 08	 add	 esp, 8

; 699  : 	this->List[eExUB::Stone].bTeamVsTeam2				= true;

  0191a	8b 45 fc	 mov	 eax, DWORD PTR _this$[ebp]
  0191d	c6 80 28 1b 00
	00 01		 mov	 BYTE PTR [eax+6952], 1

; 700  : 
; 701  : 	strcpy(this->List[eExUB::Sentinel].Login,			"Sentinel");

  01924	68 00 00 00 00	 push	 OFFSET ??_C@_08EJJHPIDO@Sentinel?$AA@
  01929	8b 45 fc	 mov	 eax, DWORD PTR _this$[ebp]
  0192c	05 30 1b 00 00	 add	 eax, 6960		; 00001b30H
  01931	50		 push	 eax
  01932	e8 00 00 00 00	 call	 _strcpy
  01937	83 c4 08	 add	 esp, 8

; 702  : 	this->List[eExUB::Sentinel].hwid					= 1521036435;

  0193a	8b 45 fc	 mov	 eax, DWORD PTR _this$[ebp]
  0193d	c7 80 54 1b 00
	00 93 2c a9 5a	 mov	 DWORD PTR [eax+6996], 1521036435 ; 5aa92c93H

; 703  : 	this->List[eExUB::Sentinel].PartySearch				= true;

  01947	8b 45 fc	 mov	 eax, DWORD PTR _this$[ebp]
  0194a	c6 80 89 1b 00
	00 01		 mov	 BYTE PTR [eax+7049], 1

; 704  : 	this->List[eExUB::Sentinel].PartySystem				= true;

  01951	8b 45 fc	 mov	 eax, DWORD PTR _this$[ebp]
  01954	c6 80 87 1b 00
	00 01		 mov	 BYTE PTR [eax+7047], 1

; 705  : 	this->List[eExUB::Sentinel].ChatLog					= true;

  0195b	8b 45 fc	 mov	 eax, DWORD PTR _this$[ebp]
  0195e	c6 80 8a 1b 00
	00 01		 mov	 BYTE PTR [eax+7050], 1

; 706  : 	this->List[eExUB::Sentinel].GM_Manager				= true;

  01965	8b 45 fc	 mov	 eax, DWORD PTR _this$[ebp]
  01968	c6 80 8b 1b 00
	00 01		 mov	 BYTE PTR [eax+7051], 1

; 707  : 	this->List[eExUB::Sentinel].PerosnalStoreEx			= true;

  0196f	8b 45 fc	 mov	 eax, DWORD PTR _this$[ebp]
  01972	c6 80 8c 1b 00
	00 01		 mov	 BYTE PTR [eax+7052], 1

; 708  : 	this->List[eExUB::Sentinel].AntiCheatPlus			= true;

  01979	8b 45 fc	 mov	 eax, DWORD PTR _this$[ebp]
  0197c	c6 80 8e 1b 00
	00 01		 mov	 BYTE PTR [eax+7054], 1

; 709  : 	this->List[eExUB::Sentinel].Rage					= true;

  01983	8b 45 fc	 mov	 eax, DWORD PTR _this$[ebp]
  01986	c6 80 81 1b 00
	00 01		 mov	 BYTE PTR [eax+7041], 1

; 710  : 	this->List[eExUB::Sentinel].Monster					= true;

  0198d	8b 45 fc	 mov	 eax, DWORD PTR _this$[ebp]
  01990	c6 80 95 1b 00
	00 01		 mov	 BYTE PTR [eax+7061], 1

; 711  : 	this->List[eExUB::Sentinel].ItemSmokeEffect			= true;

  01997	8b 45 fc	 mov	 eax, DWORD PTR _this$[ebp]
  0199a	c6 80 96 1b 00
	00 01		 mov	 BYTE PTR [eax+7062], 1

; 712  : 	this->List[eExUB::Sentinel].PartySave				= true;

  019a1	8b 45 fc	 mov	 eax, DWORD PTR _this$[ebp]
  019a4	c6 80 98 1b 00
	00 01		 mov	 BYTE PTR [eax+7064], 1

; 713  : 	this->List[eExUB::Sentinel].OfflineMode				= true;

  019ab	8b 45 fc	 mov	 eax, DWORD PTR _this$[ebp]
  019ae	c6 80 9a 1b 00
	00 01		 mov	 BYTE PTR [eax+7066], 1

; 714  : 	this->List[eExUB::Sentinel].bRankItem				= true;

  019b5	8b 45 fc	 mov	 eax, DWORD PTR _this$[ebp]
  019b8	c6 80 9d 1b 00
	00 01		 mov	 BYTE PTR [eax+7069], 1

; 715  : 	this->List[eExUB::Sentinel].MonsterAttackLife		= true;

  019bf	8b 45 fc	 mov	 eax, DWORD PTR _this$[ebp]
  019c2	c6 80 9c 1b 00
	00 01		 mov	 BYTE PTR [eax+7068], 1

; 716  : 	this->List[eExUB::Sentinel].GrandDinamicExp			= true;

  019c9	8b 45 fc	 mov	 eax, DWORD PTR _this$[ebp]
  019cc	c6 80 97 1b 00
	00 01		 mov	 BYTE PTR [eax+7063], 1

; 717  : 	this->List[eExUB::Sentinel].RestoreOffMode			= true;

  019d3	8b 45 fc	 mov	 eax, DWORD PTR _this$[ebp]
  019d6	c6 80 9e 1b 00
	00 01		 mov	 BYTE PTR [eax+7070], 1

; 718  : 	this->List[eExUB::Sentinel].GrandHero				= true;

  019dd	8b 45 fc	 mov	 eax, DWORD PTR _this$[ebp]
  019e0	c6 80 86 1b 00
	00 01		 mov	 BYTE PTR [eax+7046], 1

; 719  : 	this->List[eExUB::Sentinel].bTeamVsTeam2			= true;

  019e7	8b 45 fc	 mov	 eax, DWORD PTR _this$[ebp]
  019ea	c6 80 a0 1b 00
	00 01		 mov	 BYTE PTR [eax+7072], 1

; 720  : 
; 721  : 	strcpy(this->List[eExUB::Almdar].Login,				"Almdar");

  019f1	68 00 00 00 00	 push	 OFFSET ??_C@_06HOCDPIKG@Almdar?$AA@
  019f6	8b 45 fc	 mov	 eax, DWORD PTR _this$[ebp]
  019f9	05 a8 1b 00 00	 add	 eax, 7080		; 00001ba8H
  019fe	50		 push	 eax
  019ff	e8 00 00 00 00	 call	 _strcpy
  01a04	83 c4 08	 add	 esp, 8

; 722  : 	this->List[eExUB::Almdar].hwid						= 2764084540;	//2764084540

  01a07	8b 45 fc	 mov	 eax, DWORD PTR _this$[ebp]
  01a0a	c7 80 cc 1b 00
	00 3c 95 c0 a4	 mov	 DWORD PTR [eax+7116], -1530882756 ; a4c0953cH

; 723  : 	this->List[eExUB::Almdar].AntiCheatPlus				= true;

  01a14	8b 45 fc	 mov	 eax, DWORD PTR _this$[ebp]
  01a17	c6 80 06 1c 00
	00 01		 mov	 BYTE PTR [eax+7174], 1

; 724  : 	this->List[eExUB::Almdar].PerosnalStoreEx			= true;

  01a1e	8b 45 fc	 mov	 eax, DWORD PTR _this$[ebp]
  01a21	c6 80 04 1c 00
	00 01		 mov	 BYTE PTR [eax+7172], 1

; 725  : 	this->List[eExUB::Almdar].GM_Manager				= true;

  01a28	8b 45 fc	 mov	 eax, DWORD PTR _this$[ebp]
  01a2b	c6 80 03 1c 00
	00 01		 mov	 BYTE PTR [eax+7171], 1

; 726  : 
; 727  : 	strcpy(this->List[eExUB::thinnakorn].Login,			"thinnakorn");

  01a32	68 00 00 00 00	 push	 OFFSET ??_C@_0L@BEJPBOMJ@thinnakorn?$AA@
  01a37	8b 45 fc	 mov	 eax, DWORD PTR _this$[ebp]
  01a3a	05 20 1c 00 00	 add	 eax, 7200		; 00001c20H
  01a3f	50		 push	 eax
  01a40	e8 00 00 00 00	 call	 _strcpy
  01a45	83 c4 08	 add	 esp, 8

; 728  : 	this->List[eExUB::thinnakorn].hwid					= 2756002743;

  01a48	8b 45 fc	 mov	 eax, DWORD PTR _this$[ebp]
  01a4b	c7 80 44 1c 00
	00 b7 43 45 a4	 mov	 DWORD PTR [eax+7236], -1538964553 ; a44543b7H

; 729  : 	strcpy(this->List[eExUB::thinnakorn].mac,			"00-0C-29-A1-0B-3E");

  01a55	68 00 00 00 00	 push	 OFFSET ??_C@_0BC@CJOLMMDO@00?90C?929?9A1?90B?93E?$AA@
  01a5a	8b 45 fc	 mov	 eax, DWORD PTR _this$[ebp]
  01a5d	05 48 1c 00 00	 add	 eax, 7240		; 00001c48H
  01a62	50		 push	 eax
  01a63	e8 00 00 00 00	 call	 _strcpy
  01a68	83 c4 08	 add	 esp, 8

; 730  : 	this->List[eExUB::thinnakorn].AntiCheatPlus			= true;

  01a6b	8b 45 fc	 mov	 eax, DWORD PTR _this$[ebp]
  01a6e	c6 80 7e 1c 00
	00 01		 mov	 BYTE PTR [eax+7294], 1

; 731  : 	this->List[eExUB::thinnakorn].Rage					= true;

  01a75	8b 45 fc	 mov	 eax, DWORD PTR _this$[ebp]
  01a78	c6 80 71 1c 00
	00 01		 mov	 BYTE PTR [eax+7281], 1

; 732  : 	this->List[eExUB::thinnakorn].Smithy				= true;

  01a7f	8b 45 fc	 mov	 eax, DWORD PTR _this$[ebp]
  01a82	c6 80 84 1c 00
	00 01		 mov	 BYTE PTR [eax+7300], 1

; 733  : 	this->List[eExUB::thinnakorn].OfflineMode			= true;

  01a89	8b 45 fc	 mov	 eax, DWORD PTR _this$[ebp]
  01a8c	c6 80 8a 1c 00
	00 01		 mov	 BYTE PTR [eax+7306], 1

; 734  : 	this->List[eExUB::thinnakorn].ComboCustom			= true;

  01a93	8b 45 fc	 mov	 eax, DWORD PTR _this$[ebp]
  01a96	c6 80 80 1c 00
	00 01		 mov	 BYTE PTR [eax+7296], 1

; 735  : 
; 736  : 	strcpy(this->List[eExUB::EpicMU].Login,				"EpicMU");

  01a9d	68 00 00 00 00	 push	 OFFSET ??_C@_06HNLNINMN@EpicMU?$AA@
  01aa2	8b 45 fc	 mov	 eax, DWORD PTR _this$[ebp]
  01aa5	05 98 1c 00 00	 add	 eax, 7320		; 00001c98H
  01aaa	50		 push	 eax
  01aab	e8 00 00 00 00	 call	 _strcpy
  01ab0	83 c4 08	 add	 esp, 8

; 737  : 	this->List[eExUB::EpicMU].hwid						= 2633646976;	// 2633646976;// 2633646976;

  01ab3	8b 45 fc	 mov	 eax, DWORD PTR _this$[ebp]
  01ab6	c7 80 bc 1c 00
	00 80 43 fa 9c	 mov	 DWORD PTR [eax+7356], -1661320320 ; 9cfa4380H

; 738  : 	strcpy(this->List[eExUB::EpicMU].mac,				"00-15-5D-00-F1-9E");

  01ac0	68 00 00 00 00	 push	 OFFSET ??_C@_0BC@IGHPDPED@00?915?95D?900?9F1?99E?$AA@
  01ac5	8b 45 fc	 mov	 eax, DWORD PTR _this$[ebp]
  01ac8	05 c0 1c 00 00	 add	 eax, 7360		; 00001cc0H
  01acd	50		 push	 eax
  01ace	e8 00 00 00 00	 call	 _strcpy
  01ad3	83 c4 08	 add	 esp, 8

; 739  : 	this->List[eExUB::EpicMU].Rage						= true;

  01ad6	8b 45 fc	 mov	 eax, DWORD PTR _this$[ebp]
  01ad9	c6 80 e9 1c 00
	00 01		 mov	 BYTE PTR [eax+7401], 1

; 740  : 	this->List[eExUB::EpicMU].PartySystem				= true;

  01ae0	8b 45 fc	 mov	 eax, DWORD PTR _this$[ebp]
  01ae3	c6 80 ef 1c 00
	00 01		 mov	 BYTE PTR [eax+7407], 1

; 741  : 	this->List[eExUB::EpicMU].PartySearch				= true;

  01aea	8b 45 fc	 mov	 eax, DWORD PTR _this$[ebp]
  01aed	c6 80 f1 1c 00
	00 01		 mov	 BYTE PTR [eax+7409], 1

; 742  : 	this->List[eExUB::EpicMU].ChatLog					= true;

  01af4	8b 45 fc	 mov	 eax, DWORD PTR _this$[ebp]
  01af7	c6 80 f2 1c 00
	00 01		 mov	 BYTE PTR [eax+7410], 1

; 743  : 	this->List[eExUB::EpicMU].GM_Manager				= true;

  01afe	8b 45 fc	 mov	 eax, DWORD PTR _this$[ebp]
  01b01	c6 80 f3 1c 00
	00 01		 mov	 BYTE PTR [eax+7411], 1

; 744  : 	this->List[eExUB::EpicMU].PerosnalStoreEx			= true;

  01b08	8b 45 fc	 mov	 eax, DWORD PTR _this$[ebp]
  01b0b	c6 80 f4 1c 00
	00 01		 mov	 BYTE PTR [eax+7412], 1

; 745  : 	this->List[eExUB::EpicMU].AntiCheatPlus				= true;

  01b12	8b 45 fc	 mov	 eax, DWORD PTR _this$[ebp]
  01b15	c6 80 f6 1c 00
	00 01		 mov	 BYTE PTR [eax+7414], 1

; 746  : 	this->List[eExUB::EpicMU].LoraBattle				= true;

  01b1c	8b 45 fc	 mov	 eax, DWORD PTR _this$[ebp]
  01b1f	c6 80 fb 1c 00
	00 01		 mov	 BYTE PTR [eax+7419], 1

; 747  : 	this->List[eExUB::EpicMU].Monster					= true;

  01b26	8b 45 fc	 mov	 eax, DWORD PTR _this$[ebp]
  01b29	c6 80 fd 1c 00
	00 01		 mov	 BYTE PTR [eax+7421], 1

; 748  : 	this->List[eExUB::EpicMU].ItemSmokeEffect			= true;

  01b30	8b 45 fc	 mov	 eax, DWORD PTR _this$[ebp]
  01b33	c6 80 fe 1c 00
	00 01		 mov	 BYTE PTR [eax+7422], 1

; 749  : 	this->List[eExUB::EpicMU].PartySave					= true;

  01b3a	8b 45 fc	 mov	 eax, DWORD PTR _this$[ebp]
  01b3d	c6 80 00 1d 00
	00 01		 mov	 BYTE PTR [eax+7424], 1

; 750  : 	//this->List[eExUB::EpicMU].DisableMasterTree			= true;
; 751  : 	this->List[eExUB::EpicMU].OfflineMode				= true;

  01b44	8b 45 fc	 mov	 eax, DWORD PTR _this$[ebp]
  01b47	c6 80 02 1d 00
	00 01		 mov	 BYTE PTR [eax+7426], 1

; 752  : 	this->List[eExUB::EpicMU].MonsterAttackLife			= true;

  01b4e	8b 45 fc	 mov	 eax, DWORD PTR _this$[ebp]
  01b51	c6 80 04 1d 00
	00 01		 mov	 BYTE PTR [eax+7428], 1

; 753  : 	this->List[eExUB::EpicMU].bRankItem					= true;

  01b58	8b 45 fc	 mov	 eax, DWORD PTR _this$[ebp]
  01b5b	c6 80 05 1d 00
	00 01		 mov	 BYTE PTR [eax+7429], 1

; 754  : 	this->List[eExUB::EpicMU].RestoreOffMode			= true;

  01b62	8b 45 fc	 mov	 eax, DWORD PTR _this$[ebp]
  01b65	c6 80 06 1d 00
	00 01		 mov	 BYTE PTR [eax+7430], 1

; 755  : 	this->List[eExUB::EpicMU].bTeamVsTeam2				= true;

  01b6c	8b 45 fc	 mov	 eax, DWORD PTR _this$[ebp]
  01b6f	c6 80 08 1d 00
	00 01		 mov	 BYTE PTR [eax+7432], 1

; 756  : 	this->List[eExUB::EpicMU].bAchievements				= true;

  01b76	8b 45 fc	 mov	 eax, DWORD PTR _this$[ebp]
  01b79	c6 80 09 1d 00
	00 01		 mov	 BYTE PTR [eax+7433], 1

; 757  : 	this->List[eExUB::EpicMU].MonsterQuest				= true;

  01b80	8b 45 fc	 mov	 eax, DWORD PTR _this$[ebp]
  01b83	c6 80 ec 1c 00
	00 01		 mov	 BYTE PTR [eax+7404], 1

; 758  : 	this->List[eExUB::EpicMU].PremiumEx					= true;

  01b8a	8b 45 fc	 mov	 eax, DWORD PTR _this$[ebp]
  01b8d	c6 80 0a 1d 00
	00 01		 mov	 BYTE PTR [eax+7434], 1

; 759  : 	this->List[eExUB::EpicMU].BMQuest					= true;

  01b94	8b 45 fc	 mov	 eax, DWORD PTR _this$[ebp]
  01b97	c6 80 fa 1c 00
	00 01		 mov	 BYTE PTR [eax+7418], 1

; 760  : 	this->List[eExUB::EpicMU].Brotherhood				= true;

  01b9e	8b 45 fc	 mov	 eax, DWORD PTR _this$[ebp]
  01ba1	c6 80 f0 1c 00
	00 01		 mov	 BYTE PTR [eax+7408], 1

; 761  : 	this->List[eExUB::EpicMU].Rage						= true;

  01ba8	8b 45 fc	 mov	 eax, DWORD PTR _this$[ebp]
  01bab	c6 80 e9 1c 00
	00 01		 mov	 BYTE PTR [eax+7401], 1

; 762  : 	this->List[eExUB::EpicMU].Marriage					= true;

  01bb2	8b 45 fc	 mov	 eax, DWORD PTR _this$[ebp]
  01bb5	c6 80 03 1d 00
	00 01		 mov	 BYTE PTR [eax+7427], 1

; 763  : 	this->List[eExUB::EpicMU].Smithy					= true;

  01bbc	8b 45 fc	 mov	 eax, DWORD PTR _this$[ebp]
  01bbf	c6 80 fc 1c 00
	00 01		 mov	 BYTE PTR [eax+7420], 1

; 764  : 
; 765  : 	strcpy(this->List[eExUB::masonX].Login,				"masonX");

  01bc6	68 00 00 00 00	 push	 OFFSET ??_C@_06KGEGJNGH@masonX?$AA@
  01bcb	8b 45 fc	 mov	 eax, DWORD PTR _this$[ebp]
  01bce	05 10 1d 00 00	 add	 eax, 7440		; 00001d10H
  01bd3	50		 push	 eax
  01bd4	e8 00 00 00 00	 call	 _strcpy
  01bd9	83 c4 08	 add	 esp, 8

; 766  : 	this->List[eExUB::masonX].hwid						= 1356980851;

  01bdc	8b 45 fc	 mov	 eax, DWORD PTR _this$[ebp]
  01bdf	c7 80 34 1d 00
	00 73 e2 e1 50	 mov	 DWORD PTR [eax+7476], 1356980851 ; 50e1e273H

; 767  : 	//strcpy(this->List[eExUB::masonX].mac,			"DF-FE-FA-BB-AE-58");
; 768  : 	this->List[eExUB::masonX].PartySystem				= true;

  01be9	8b 45 fc	 mov	 eax, DWORD PTR _this$[ebp]
  01bec	c6 80 67 1d 00
	00 01		 mov	 BYTE PTR [eax+7527], 1

; 769  : 	this->List[eExUB::masonX].PerosnalStoreEx				= true;

  01bf3	8b 45 fc	 mov	 eax, DWORD PTR _this$[ebp]
  01bf6	c6 80 6c 1d 00
	00 01		 mov	 BYTE PTR [eax+7532], 1

; 770  : 	this->List[eExUB::masonX].PartySearch				= true;

  01bfd	8b 45 fc	 mov	 eax, DWORD PTR _this$[ebp]
  01c00	c6 80 69 1d 00
	00 01		 mov	 BYTE PTR [eax+7529], 1

; 771  : 	this->List[eExUB::masonX].PremiumEx				= true;

  01c07	8b 45 fc	 mov	 eax, DWORD PTR _this$[ebp]
  01c0a	c6 80 82 1d 00
	00 01		 mov	 BYTE PTR [eax+7554], 1

; 772  : 
; 773  : 	strcpy(this->List[eExUB::MatiasLeiva].Login,		"MatiasLeiva");

  01c11	68 00 00 00 00	 push	 OFFSET ??_C@_0M@DGODHKFP@MatiasLeiva?$AA@
  01c16	8b 45 fc	 mov	 eax, DWORD PTR _this$[ebp]
  01c19	05 88 1d 00 00	 add	 eax, 7560		; 00001d88H
  01c1e	50		 push	 eax
  01c1f	e8 00 00 00 00	 call	 _strcpy
  01c24	83 c4 08	 add	 esp, 8

; 774  : 	this->List[eExUB::MatiasLeiva].hwid					= 3028269993;

  01c27	8b 45 fc	 mov	 eax, DWORD PTR _this$[ebp]
  01c2a	c7 80 ac 1d 00
	00 a9 bb 7f b4	 mov	 DWORD PTR [eax+7596], -1266697303 ; b47fbba9H

; 775  : 	strcpy(this->List[eExUB::MatiasLeiva].mac,			"00-50-56-04-83-04");

  01c34	68 00 00 00 00	 push	 OFFSET ??_C@_0BC@NILJJNGM@00?950?956?904?983?904?$AA@
  01c39	8b 45 fc	 mov	 eax, DWORD PTR _this$[ebp]
  01c3c	05 b0 1d 00 00	 add	 eax, 7600		; 00001db0H
  01c41	50		 push	 eax
  01c42	e8 00 00 00 00	 call	 _strcpy
  01c47	83 c4 08	 add	 esp, 8

; 776  : 	
; 777  : 	strcpy(this->List[eExUB::AlterMU].Login,		"AlterMU");

  01c4a	68 00 00 00 00	 push	 OFFSET ??_C@_07IMCFKMAL@AlterMU?$AA@
  01c4f	8b 45 fc	 mov	 eax, DWORD PTR _this$[ebp]
  01c52	05 00 1e 00 00	 add	 eax, 7680		; 00001e00H
  01c57	50		 push	 eax
  01c58	e8 00 00 00 00	 call	 _strcpy
  01c5d	83 c4 08	 add	 esp, 8

; 778  : 	this->List[eExUB::AlterMU].hwid					= 3324969216;

  01c60	8b 45 fc	 mov	 eax, DWORD PTR _this$[ebp]
  01c63	c7 80 24 1e 00
	00 00 01 2f c6	 mov	 DWORD PTR [eax+7716], -969998080 ; c62f0100H

; 779  : 	strcpy(this->List[eExUB::AlterMU].mac,			"02-27-D6-00-02-0D");

  01c6d	68 00 00 00 00	 push	 OFFSET ??_C@_0BC@DHOALJDL@02?927?9D6?900?902?90D?$AA@
  01c72	8b 45 fc	 mov	 eax, DWORD PTR _this$[ebp]
  01c75	05 28 1e 00 00	 add	 eax, 7720		; 00001e28H
  01c7a	50		 push	 eax
  01c7b	e8 00 00 00 00	 call	 _strcpy
  01c80	83 c4 08	 add	 esp, 8

; 780  : 	this->List[eExUB::AlterMU].PartySystem				= true;

  01c83	8b 45 fc	 mov	 eax, DWORD PTR _this$[ebp]
  01c86	c6 80 57 1e 00
	00 01		 mov	 BYTE PTR [eax+7767], 1

; 781  : 	this->List[eExUB::AlterMU].PartySearch				= true;

  01c8d	8b 45 fc	 mov	 eax, DWORD PTR _this$[ebp]
  01c90	c6 80 59 1e 00
	00 01		 mov	 BYTE PTR [eax+7769], 1

; 782  : 	this->List[eExUB::AlterMU].ChatLog					= true;

  01c97	8b 45 fc	 mov	 eax, DWORD PTR _this$[ebp]
  01c9a	c6 80 5a 1e 00
	00 01		 mov	 BYTE PTR [eax+7770], 1

; 783  : 	this->List[eExUB::AlterMU].GM_Manager				= true;

  01ca1	8b 45 fc	 mov	 eax, DWORD PTR _this$[ebp]
  01ca4	c6 80 5b 1e 00
	00 01		 mov	 BYTE PTR [eax+7771], 1

; 784  : 	this->List[eExUB::AlterMU].PerosnalStoreEx			= true;

  01cab	8b 45 fc	 mov	 eax, DWORD PTR _this$[ebp]
  01cae	c6 80 5c 1e 00
	00 01		 mov	 BYTE PTR [eax+7772], 1

; 785  : 	this->List[eExUB::AlterMU].AntiCheatPlus			= true;

  01cb5	8b 45 fc	 mov	 eax, DWORD PTR _this$[ebp]
  01cb8	c6 80 5e 1e 00
	00 01		 mov	 BYTE PTR [eax+7774], 1

; 786  : 	this->List[eExUB::AlterMU].Monster					= true;

  01cbf	8b 45 fc	 mov	 eax, DWORD PTR _this$[ebp]
  01cc2	c6 80 65 1e 00
	00 01		 mov	 BYTE PTR [eax+7781], 1

; 787  : 	this->List[eExUB::AlterMU].ItemSmokeEffect			= true;

  01cc9	8b 45 fc	 mov	 eax, DWORD PTR _this$[ebp]
  01ccc	c6 80 66 1e 00
	00 01		 mov	 BYTE PTR [eax+7782], 1

; 788  : 	this->List[eExUB::AlterMU].PartySave				= true;

  01cd3	8b 45 fc	 mov	 eax, DWORD PTR _this$[ebp]
  01cd6	c6 80 68 1e 00
	00 01		 mov	 BYTE PTR [eax+7784], 1

; 789  : 	this->List[eExUB::AlterMU].DisableMasterTree		= true;

  01cdd	8b 45 fc	 mov	 eax, DWORD PTR _this$[ebp]
  01ce0	c6 80 69 1e 00
	00 01		 mov	 BYTE PTR [eax+7785], 1

; 790  : 	this->List[eExUB::AlterMU].OfflineMode				= true;

  01ce7	8b 45 fc	 mov	 eax, DWORD PTR _this$[ebp]
  01cea	c6 80 6a 1e 00
	00 01		 mov	 BYTE PTR [eax+7786], 1

; 791  : 	this->List[eExUB::AlterMU].MonsterAttackLife		= true;

  01cf1	8b 45 fc	 mov	 eax, DWORD PTR _this$[ebp]
  01cf4	c6 80 6c 1e 00
	00 01		 mov	 BYTE PTR [eax+7788], 1

; 792  : 	this->List[eExUB::AlterMU].RestoreOffMode			= true;

  01cfb	8b 45 fc	 mov	 eax, DWORD PTR _this$[ebp]
  01cfe	c6 80 6e 1e 00
	00 01		 mov	 BYTE PTR [eax+7790], 1

; 793  : 	this->List[eExUB::AlterMU].bAchievements			= true;	

  01d05	8b 45 fc	 mov	 eax, DWORD PTR _this$[ebp]
  01d08	c6 80 71 1e 00
	00 01		 mov	 BYTE PTR [eax+7793], 1

; 794  : 	this->List[eExUB::AlterMU].GrandHero				= true;	

  01d0f	8b 45 fc	 mov	 eax, DWORD PTR _this$[ebp]
  01d12	c6 80 56 1e 00
	00 01		 mov	 BYTE PTR [eax+7766], 1

; 795  : 
; 796  : 	strcpy(this->List[eExUB::Almdar2].Login,			"Almdar2");

  01d19	68 00 00 00 00	 push	 OFFSET ??_C@_07NCLLHBFE@Almdar2?$AA@
  01d1e	8b 45 fc	 mov	 eax, DWORD PTR _this$[ebp]
  01d21	05 78 1e 00 00	 add	 eax, 7800		; 00001e78H
  01d26	50		 push	 eax
  01d27	e8 00 00 00 00	 call	 _strcpy
  01d2c	83 c4 08	 add	 esp, 8

; 797  : 	this->List[eExUB::Almdar2].hwid						= 2756002743;	//2764084540

  01d2f	8b 45 fc	 mov	 eax, DWORD PTR _this$[ebp]
  01d32	c7 80 9c 1e 00
	00 b7 43 45 a4	 mov	 DWORD PTR [eax+7836], -1538964553 ; a44543b7H

; 798  : 	strcpy(this->List[eExUB::Almdar2].mac,				"74-D4-35-FE-B7-24");

  01d3c	68 00 00 00 00	 push	 OFFSET ??_C@_0BC@CFLFIKCB@74?9D4?935?9FE?9B7?924?$AA@
  01d41	8b 45 fc	 mov	 eax, DWORD PTR _this$[ebp]
  01d44	05 a0 1e 00 00	 add	 eax, 7840		; 00001ea0H
  01d49	50		 push	 eax
  01d4a	e8 00 00 00 00	 call	 _strcpy
  01d4f	83 c4 08	 add	 esp, 8

; 799  : 	this->List[eExUB::Almdar2].AntiCheatPlus			= true;

  01d52	8b 45 fc	 mov	 eax, DWORD PTR _this$[ebp]
  01d55	c6 80 d6 1e 00
	00 01		 mov	 BYTE PTR [eax+7894], 1

; 800  : 	this->List[eExUB::Almdar2].PerosnalStoreEx			= true;

  01d5c	8b 45 fc	 mov	 eax, DWORD PTR _this$[ebp]
  01d5f	c6 80 d4 1e 00
	00 01		 mov	 BYTE PTR [eax+7892], 1

; 801  : 	this->List[eExUB::Almdar2].GM_Manager				= true;

  01d66	8b 45 fc	 mov	 eax, DWORD PTR _this$[ebp]
  01d69	c6 80 d3 1e 00
	00 01		 mov	 BYTE PTR [eax+7891], 1

; 802  : 	//1087360052
; 803  : 
; 804  : 	strcpy(this->List[eExUB::Escalate].Login,			"Escalate");

  01d70	68 00 00 00 00	 push	 OFFSET ??_C@_08ECPAOEKJ@Escalate?$AA@
  01d75	8b 45 fc	 mov	 eax, DWORD PTR _this$[ebp]
  01d78	05 f0 1e 00 00	 add	 eax, 7920		; 00001ef0H
  01d7d	50		 push	 eax
  01d7e	e8 00 00 00 00	 call	 _strcpy
  01d83	83 c4 08	 add	 esp, 8

; 805  : 	this->List[eExUB::Escalate].hwid					= 3302700294;	//2633646976;

  01d86	8b 45 fc	 mov	 eax, DWORD PTR _this$[ebp]
  01d89	c7 80 14 1f 00
	00 06 35 db c4	 mov	 DWORD PTR [eax+7956], -992267002 ; c4db3506H

; 806  : 	strcpy(this->List[eExUB::Escalate].mac,				"02-12-5D-00-45-90");

  01d93	68 00 00 00 00	 push	 OFFSET ??_C@_0BC@NGKMICPN@02?912?95D?900?945?990?$AA@
  01d98	8b 45 fc	 mov	 eax, DWORD PTR _this$[ebp]
  01d9b	05 18 1f 00 00	 add	 eax, 7960		; 00001f18H
  01da0	50		 push	 eax
  01da1	e8 00 00 00 00	 call	 _strcpy
  01da6	83 c4 08	 add	 esp, 8

; 807  : 	this->List[eExUB::Escalate].PartySearch				= true;

  01da9	8b 45 fc	 mov	 eax, DWORD PTR _this$[ebp]
  01dac	c6 80 49 1f 00
	00 01		 mov	 BYTE PTR [eax+8009], 1

; 808  : 	this->List[eExUB::Escalate].PartySystem				= true;

  01db3	8b 45 fc	 mov	 eax, DWORD PTR _this$[ebp]
  01db6	c6 80 47 1f 00
	00 01		 mov	 BYTE PTR [eax+8007], 1

; 809  : 	this->List[eExUB::Escalate].GM_Manager				= true;

  01dbd	8b 45 fc	 mov	 eax, DWORD PTR _this$[ebp]
  01dc0	c6 80 4b 1f 00
	00 01		 mov	 BYTE PTR [eax+8011], 1

; 810  : 	this->List[eExUB::Escalate].PerosnalStoreEx			= true;

  01dc7	8b 45 fc	 mov	 eax, DWORD PTR _this$[ebp]
  01dca	c6 80 4c 1f 00
	00 01		 mov	 BYTE PTR [eax+8012], 1

; 811  : 	this->List[eExUB::Escalate].AntiCheatPlus			= true;

  01dd1	8b 45 fc	 mov	 eax, DWORD PTR _this$[ebp]
  01dd4	c6 80 4e 1f 00
	00 01		 mov	 BYTE PTR [eax+8014], 1

; 812  : 	this->List[eExUB::Escalate].Rage					= true;

  01ddb	8b 45 fc	 mov	 eax, DWORD PTR _this$[ebp]
  01dde	c6 80 41 1f 00
	00 01		 mov	 BYTE PTR [eax+8001], 1

; 813  : 	this->List[eExUB::Escalate].Monster					= true;

  01de5	8b 45 fc	 mov	 eax, DWORD PTR _this$[ebp]
  01de8	c6 80 55 1f 00
	00 01		 mov	 BYTE PTR [eax+8021], 1

; 814  : 	this->List[eExUB::Escalate].PartySave				= true;

  01def	8b 45 fc	 mov	 eax, DWORD PTR _this$[ebp]
  01df2	c6 80 58 1f 00
	00 01		 mov	 BYTE PTR [eax+8024], 1

; 815  : 	this->List[eExUB::Escalate].OfflineMode				= true;

  01df9	8b 45 fc	 mov	 eax, DWORD PTR _this$[ebp]
  01dfc	c6 80 5a 1f 00
	00 01		 mov	 BYTE PTR [eax+8026], 1

; 816  : 	this->List[eExUB::Escalate].bRankItem				= true;

  01e03	8b 45 fc	 mov	 eax, DWORD PTR _this$[ebp]
  01e06	c6 80 5d 1f 00
	00 01		 mov	 BYTE PTR [eax+8029], 1

; 817  : 	this->List[eExUB::Escalate].MonsterAttackLife		= true;

  01e0d	8b 45 fc	 mov	 eax, DWORD PTR _this$[ebp]
  01e10	c6 80 5c 1f 00
	00 01		 mov	 BYTE PTR [eax+8028], 1

; 818  : 	this->List[eExUB::Escalate].GrandDinamicExp			= true;

  01e17	8b 45 fc	 mov	 eax, DWORD PTR _this$[ebp]
  01e1a	c6 80 57 1f 00
	00 01		 mov	 BYTE PTR [eax+8023], 1

; 819  : 	this->List[eExUB::Escalate].RestoreOffMode			= true;

  01e21	8b 45 fc	 mov	 eax, DWORD PTR _this$[ebp]
  01e24	c6 80 5e 1f 00
	00 01		 mov	 BYTE PTR [eax+8030], 1

; 820  : 	this->List[eExUB::Escalate].bTeamVsTeam2			= true;

  01e2b	8b 45 fc	 mov	 eax, DWORD PTR _this$[ebp]
  01e2e	c6 80 60 1f 00
	00 01		 mov	 BYTE PTR [eax+8032], 1

; 821  : 	this->List[eExUB::Escalate].LoraBattle				= true;	//OK

  01e35	8b 45 fc	 mov	 eax, DWORD PTR _this$[ebp]
  01e38	c6 80 53 1f 00
	00 01		 mov	 BYTE PTR [eax+8019], 1

; 822  : 	//this->List[eExUB::Escalate].Smithy					= true;	//OK
; 823  : 	this->List[eExUB::Escalate].ItemSmokeEffect			= true;	//OK

  01e3f	8b 45 fc	 mov	 eax, DWORD PTR _this$[ebp]
  01e42	c6 80 56 1f 00
	00 01		 mov	 BYTE PTR [eax+8022], 1

; 824  : 	this->List[eExUB::Escalate].PandoraEvent			= true;	//OK

  01e49	8b 45 fc	 mov	 eax, DWORD PTR _this$[ebp]
  01e4c	c6 80 4d 1f 00
	00 01		 mov	 BYTE PTR [eax+8013], 1

; 825  : 	this->List[eExUB::Escalate].OfflineMode				= true;

  01e53	8b 45 fc	 mov	 eax, DWORD PTR _this$[ebp]
  01e56	c6 80 5a 1f 00
	00 01		 mov	 BYTE PTR [eax+8026], 1

; 826  : 	this->List[eExUB::Escalate].bAchievements			= true;

  01e5d	8b 45 fc	 mov	 eax, DWORD PTR _this$[ebp]
  01e60	c6 80 61 1f 00
	00 01		 mov	 BYTE PTR [eax+8033], 1

; 827  : 	this->List[eExUB::Escalate].AccSecurity				= true;

  01e67	8b 45 fc	 mov	 eax, DWORD PTR _this$[ebp]
  01e6a	c6 80 63 1f 00
	00 01		 mov	 BYTE PTR [eax+8035], 1

; 828  : 	this->List[eExUB::Escalate].PremiumEx				= true;

  01e71	8b 45 fc	 mov	 eax, DWORD PTR _this$[ebp]
  01e74	c6 80 62 1f 00
	00 01		 mov	 BYTE PTR [eax+8034], 1

; 829  : 	this->List[eExUB::Escalate].ComboCustom				= true;

  01e7b	8b 45 fc	 mov	 eax, DWORD PTR _this$[ebp]
  01e7e	c6 80 50 1f 00
	00 01		 mov	 BYTE PTR [eax+8016], 1

; 830  : 
; 831  : 	strcpy(this->List[eExUB::RafaelLorenzet].Login,		"RafaelLorenzet");

  01e85	68 00 00 00 00	 push	 OFFSET ??_C@_0P@NNDEBNIG@RafaelLorenzet?$AA@
  01e8a	8b 45 fc	 mov	 eax, DWORD PTR _this$[ebp]
  01e8d	05 68 1f 00 00	 add	 eax, 8040		; 00001f68H
  01e92	50		 push	 eax
  01e93	e8 00 00 00 00	 call	 _strcpy
  01e98	83 c4 08	 add	 esp, 8

; 832  : 	this->List[eExUB::RafaelLorenzet].hwid				= 2282774568;	//2633646976;

  01e9b	8b 45 fc	 mov	 eax, DWORD PTR _this$[ebp]
  01e9e	c7 80 8c 1f 00
	00 28 60 10 88	 mov	 DWORD PTR [eax+8076], -2012192728 ; 88106028H

; 833  : 	strcpy(this->List[eExUB::RafaelLorenzet].mac,		"00-15-5D-1E-17-05");

  01ea8	68 00 00 00 00	 push	 OFFSET ??_C@_0BC@MMDNDOFE@00?915?95D?91E?917?905?$AA@
  01ead	8b 45 fc	 mov	 eax, DWORD PTR _this$[ebp]
  01eb0	05 90 1f 00 00	 add	 eax, 8080		; 00001f90H
  01eb5	50		 push	 eax
  01eb6	e8 00 00 00 00	 call	 _strcpy
  01ebb	83 c4 08	 add	 esp, 8

; 834  : 
; 835  : 	strcpy(this->List[eExUB::TGBA_LLC].Login,			"TGBA_LLC");

  01ebe	68 00 00 00 00	 push	 OFFSET ??_C@_08MLNFFKLL@TGBA_LLC?$AA@
  01ec3	8b 45 fc	 mov	 eax, DWORD PTR _this$[ebp]
  01ec6	05 e0 1f 00 00	 add	 eax, 8160		; 00001fe0H
  01ecb	50		 push	 eax
  01ecc	e8 00 00 00 00	 call	 _strcpy
  01ed1	83 c4 08	 add	 esp, 8

; 836  : 	this->List[eExUB::TGBA_LLC].hwid					= 3324969216;	//2633646976;

  01ed4	8b 45 fc	 mov	 eax, DWORD PTR _this$[ebp]
  01ed7	c7 80 04 20 00
	00 00 01 2f c6	 mov	 DWORD PTR [eax+8196], -969998080 ; c62f0100H

; 837  : 	strcpy(this->List[eExUB::TGBA_LLC].mac,				"00-01-5D-D7-04-C1");

  01ee1	68 00 00 00 00	 push	 OFFSET ??_C@_0BC@IGAMMAKI@00?901?95D?9D7?904?9C1?$AA@
  01ee6	8b 45 fc	 mov	 eax, DWORD PTR _this$[ebp]
  01ee9	05 08 20 00 00	 add	 eax, 8200		; 00002008H
  01eee	50		 push	 eax
  01eef	e8 00 00 00 00	 call	 _strcpy
  01ef4	83 c4 08	 add	 esp, 8

; 838  : 	this->List[eExUB::TGBA_LLC].Monster					= true;

  01ef7	8b 45 fc	 mov	 eax, DWORD PTR _this$[ebp]
  01efa	c6 80 45 20 00
	00 01		 mov	 BYTE PTR [eax+8261], 1

; 839  : 	this->List[eExUB::TGBA_LLC].bAchievements			= true;

  01f01	8b 45 fc	 mov	 eax, DWORD PTR _this$[ebp]
  01f04	c6 80 51 20 00
	00 01		 mov	 BYTE PTR [eax+8273], 1

; 840  : 	this->List[eExUB::TGBA_LLC].MonsterQuest			= true;

  01f0b	8b 45 fc	 mov	 eax, DWORD PTR _this$[ebp]
  01f0e	c6 80 34 20 00
	00 01		 mov	 BYTE PTR [eax+8244], 1

; 841  : 	
; 842  : 	strcpy(this->List[eExUB::RevoMU].Login,				"RevoMU");

  01f15	68 00 00 00 00	 push	 OFFSET ??_C@_06CELJADEO@RevoMU?$AA@
  01f1a	8b 45 fc	 mov	 eax, DWORD PTR _this$[ebp]
  01f1d	05 58 20 00 00	 add	 eax, 8280		; 00002058H
  01f22	50		 push	 eax
  01f23	e8 00 00 00 00	 call	 _strcpy
  01f28	83 c4 08	 add	 esp, 8

; 843  : 	//this->List[eExUB::RevoMU].hwid						= 1918130772;
; 844  : 	this->List[eExUB::RevoMU].hwid						= 3324969216;	//3324969216;	// 1918130772;

  01f2b	8b 45 fc	 mov	 eax, DWORD PTR _this$[ebp]
  01f2e	c7 80 7c 20 00
	00 00 01 2f c6	 mov	 DWORD PTR [eax+8316], -969998080 ; c62f0100H

; 845  : 	strcpy(this->List[eExUB::RevoMU].mac,				"02-05-5D-CD-04-73");

  01f38	68 00 00 00 00	 push	 OFFSET ??_C@_0BC@GMOMIGMA@02?905?95D?9CD?904?973?$AA@
  01f3d	8b 45 fc	 mov	 eax, DWORD PTR _this$[ebp]
  01f40	05 80 20 00 00	 add	 eax, 8320		; 00002080H
  01f45	50		 push	 eax
  01f46	e8 00 00 00 00	 call	 _strcpy
  01f4b	83 c4 08	 add	 esp, 8

; 846  : 	this->List[eExUB::RevoMU].bAchievements				= true;

  01f4e	8b 45 fc	 mov	 eax, DWORD PTR _this$[ebp]
  01f51	c6 80 c9 20 00
	00 01		 mov	 BYTE PTR [eax+8393], 1

; 847  : 	this->List[eExUB::RevoMU].OfflineMode				= true;

  01f58	8b 45 fc	 mov	 eax, DWORD PTR _this$[ebp]
  01f5b	c6 80 c2 20 00
	00 01		 mov	 BYTE PTR [eax+8386], 1

; 848  : 	this->List[eExUB::RevoMU].PerosnalStoreEx			= true;

  01f62	8b 45 fc	 mov	 eax, DWORD PTR _this$[ebp]
  01f65	c6 80 b4 20 00
	00 01		 mov	 BYTE PTR [eax+8372], 1

; 849  : 	this->List[eExUB::RevoMU].PartySystem				= true;

  01f6c	8b 45 fc	 mov	 eax, DWORD PTR _this$[ebp]
  01f6f	c6 80 af 20 00
	00 01		 mov	 BYTE PTR [eax+8367], 1

; 850  : 	this->List[eExUB::RevoMU].PartySearch				= true;

  01f76	8b 45 fc	 mov	 eax, DWORD PTR _this$[ebp]
  01f79	c6 80 b1 20 00
	00 01		 mov	 BYTE PTR [eax+8369], 1

; 851  : 	this->List[eExUB::RevoMU].ChatLog					= true;

  01f80	8b 45 fc	 mov	 eax, DWORD PTR _this$[ebp]
  01f83	c6 80 b2 20 00
	00 01		 mov	 BYTE PTR [eax+8370], 1

; 852  : 	this->List[eExUB::RevoMU].GM_Manager				= true;

  01f8a	8b 45 fc	 mov	 eax, DWORD PTR _this$[ebp]
  01f8d	c6 80 b3 20 00
	00 01		 mov	 BYTE PTR [eax+8371], 1

; 853  : 	this->List[eExUB::RevoMU].PartySave					= true;

  01f94	8b 45 fc	 mov	 eax, DWORD PTR _this$[ebp]
  01f97	c6 80 c0 20 00
	00 01		 mov	 BYTE PTR [eax+8384], 1

; 854  : 	this->List[eExUB::RevoMU].RestoreOffMode			= true;

  01f9e	8b 45 fc	 mov	 eax, DWORD PTR _this$[ebp]
  01fa1	c6 80 c6 20 00
	00 01		 mov	 BYTE PTR [eax+8390], 1

; 855  : 	this->List[eExUB::RevoMU].PremiumEx					= true;

  01fa8	8b 45 fc	 mov	 eax, DWORD PTR _this$[ebp]
  01fab	c6 80 ca 20 00
	00 01		 mov	 BYTE PTR [eax+8394], 1

; 856  : 	this->List[eExUB::RevoMU].AccSecurity				= true;

  01fb2	8b 45 fc	 mov	 eax, DWORD PTR _this$[ebp]
  01fb5	c6 80 cb 20 00
	00 01		 mov	 BYTE PTR [eax+8395], 1

; 857  : 	this->List[eExUB::RevoMU].MonsterQuest				= true;

  01fbc	8b 45 fc	 mov	 eax, DWORD PTR _this$[ebp]
  01fbf	c6 80 ac 20 00
	00 01		 mov	 BYTE PTR [eax+8364], 1

; 858  : 
; 859  : 	strcpy(this->List[eExUB::DrXAOS].Login,				"DrXAOS");

  01fc6	68 00 00 00 00	 push	 OFFSET ??_C@_06FFKGKCBJ@DrXAOS?$AA@
  01fcb	8b 45 fc	 mov	 eax, DWORD PTR _this$[ebp]
  01fce	05 d0 20 00 00	 add	 eax, 8400		; 000020d0H
  01fd3	50		 push	 eax
  01fd4	e8 00 00 00 00	 call	 _strcpy
  01fd9	83 c4 08	 add	 esp, 8

; 860  : 	this->List[eExUB::DrXAOS].hwid						= 2153285885;

  01fdc	8b 45 fc	 mov	 eax, DWORD PTR _this$[ebp]
  01fdf	c7 80 f4 20 00
	00 fd 88 58 80	 mov	 DWORD PTR [eax+8436], -2141681411 ; 805888fdH

; 861  : 	strcpy(this->List[eExUB::DrXAOS].mac,				"97-67-23-65-5A-0A");

  01fe9	68 00 00 00 00	 push	 OFFSET ??_C@_0BC@KDCDCIGI@97?967?923?965?95A?90A?$AA@
  01fee	8b 45 fc	 mov	 eax, DWORD PTR _this$[ebp]
  01ff1	05 f8 20 00 00	 add	 eax, 8440		; 000020f8H
  01ff6	50		 push	 eax
  01ff7	e8 00 00 00 00	 call	 _strcpy
  01ffc	83 c4 08	 add	 esp, 8

; 862  : 
; 863  : 	strcpy(this->List[eExUB::masonX2].Login,				"masonX");

  01fff	68 00 00 00 00	 push	 OFFSET ??_C@_06KGEGJNGH@masonX?$AA@
  02004	8b 45 fc	 mov	 eax, DWORD PTR _this$[ebp]
  02007	05 48 21 00 00	 add	 eax, 8520		; 00002148H
  0200c	50		 push	 eax
  0200d	e8 00 00 00 00	 call	 _strcpy
  02012	83 c4 08	 add	 esp, 8

; 864  : 	this->List[eExUB::masonX2].hwid						= 473466670;

  02015	8b 45 fc	 mov	 eax, DWORD PTR _this$[ebp]
  02018	c7 80 6c 21 00
	00 2e 87 38 1c	 mov	 DWORD PTR [eax+8556], 473466670 ; 1c38872eH

; 865  : 	strcpy(this->List[eExUB::masonX2].mac,				"A6-A1-04-8F-7C-F2");

  02022	68 00 00 00 00	 push	 OFFSET ??_C@_0BC@NDFIENCO@A6?9A1?904?98F?97C?9F2?$AA@
  02027	8b 45 fc	 mov	 eax, DWORD PTR _this$[ebp]
  0202a	05 70 21 00 00	 add	 eax, 8560		; 00002170H
  0202f	50		 push	 eax
  02030	e8 00 00 00 00	 call	 _strcpy
  02035	83 c4 08	 add	 esp, 8

; 866  : 	this->List[eExUB::masonX2].PartySystem				= true;

  02038	8b 45 fc	 mov	 eax, DWORD PTR _this$[ebp]
  0203b	c6 80 9f 21 00
	00 01		 mov	 BYTE PTR [eax+8607], 1

; 867  : 	this->List[eExUB::masonX2].PerosnalStoreEx			= true;

  02042	8b 45 fc	 mov	 eax, DWORD PTR _this$[ebp]
  02045	c6 80 a4 21 00
	00 01		 mov	 BYTE PTR [eax+8612], 1

; 868  : 	this->List[eExUB::masonX2].PartySearch				= true;

  0204c	8b 45 fc	 mov	 eax, DWORD PTR _this$[ebp]
  0204f	c6 80 a1 21 00
	00 01		 mov	 BYTE PTR [eax+8609], 1

; 869  : 	this->List[eExUB::masonX2].PremiumEx				= true;

  02056	8b 45 fc	 mov	 eax, DWORD PTR _this$[ebp]
  02059	c6 80 ba 21 00
	00 01		 mov	 BYTE PTR [eax+8634], 1

; 870  : 
; 871  : 	strcpy(this->List[eExUB::GloryMU].Login,				"GloryMU");

  02060	68 00 00 00 00	 push	 OFFSET ??_C@_07CGJKJLEH@GloryMU?$AA@
  02065	8b 45 fc	 mov	 eax, DWORD PTR _this$[ebp]
  02068	05 c0 21 00 00	 add	 eax, 8640		; 000021c0H
  0206d	50		 push	 eax
  0206e	e8 00 00 00 00	 call	 _strcpy
  02073	83 c4 08	 add	 esp, 8

; 872  : 	//this->List[eExUB::GloryMU].hwid						= 3302700294;
; 873  : 	//strcpy(this->List[eExUB::GloryMU].mac,			"02-0E-5D-00-3E-4F");
; 874  : 	this->List[eExUB::GloryMU].GrandHero				= true;

  02076	8b 45 fc	 mov	 eax, DWORD PTR _this$[ebp]
  02079	c6 80 16 22 00
	00 01		 mov	 BYTE PTR [eax+8726], 1

; 875  : 	this->List[eExUB::GloryMU].PartySystem				= true;

  02080	8b 45 fc	 mov	 eax, DWORD PTR _this$[ebp]
  02083	c6 80 17 22 00
	00 01		 mov	 BYTE PTR [eax+8727], 1

; 876  : 	this->List[eExUB::GloryMU].PartySearch				= true;

  0208a	8b 45 fc	 mov	 eax, DWORD PTR _this$[ebp]
  0208d	c6 80 19 22 00
	00 01		 mov	 BYTE PTR [eax+8729], 1

; 877  : 	this->List[eExUB::GloryMU].ChatLog					= true;

  02094	8b 45 fc	 mov	 eax, DWORD PTR _this$[ebp]
  02097	c6 80 1a 22 00
	00 01		 mov	 BYTE PTR [eax+8730], 1

; 878  : 	this->List[eExUB::GloryMU].GM_Manager				= true;

  0209e	8b 45 fc	 mov	 eax, DWORD PTR _this$[ebp]
  020a1	c6 80 1b 22 00
	00 01		 mov	 BYTE PTR [eax+8731], 1

; 879  : 	this->List[eExUB::GloryMU].PerosnalStoreEx			= true;

  020a8	8b 45 fc	 mov	 eax, DWORD PTR _this$[ebp]
  020ab	c6 80 1c 22 00
	00 01		 mov	 BYTE PTR [eax+8732], 1

; 880  : 	this->List[eExUB::GloryMU].ComboCustom				= false;

  020b2	8b 45 fc	 mov	 eax, DWORD PTR _this$[ebp]
  020b5	c6 80 20 22 00
	00 00		 mov	 BYTE PTR [eax+8736], 0

; 881  : 	this->List[eExUB::GloryMU].NpcBuffer				= false;

  020bc	8b 45 fc	 mov	 eax, DWORD PTR _this$[ebp]
  020bf	c6 80 21 22 00
	00 00		 mov	 BYTE PTR [eax+8737], 0

; 882  : 	this->List[eExUB::GloryMU].LoraBattle				= true;

  020c6	8b 45 fc	 mov	 eax, DWORD PTR _this$[ebp]
  020c9	c6 80 23 22 00
	00 01		 mov	 BYTE PTR [eax+8739], 1

; 883  : 	this->List[eExUB::GloryMU].Smithy					= true;

  020d0	8b 45 fc	 mov	 eax, DWORD PTR _this$[ebp]
  020d3	c6 80 24 22 00
	00 01		 mov	 BYTE PTR [eax+8740], 1

; 884  : 	this->List[eExUB::GloryMU].Monster					= true;

  020da	8b 45 fc	 mov	 eax, DWORD PTR _this$[ebp]
  020dd	c6 80 25 22 00
	00 01		 mov	 BYTE PTR [eax+8741], 1

; 885  : 	this->List[eExUB::GloryMU].ItemSmokeEffect			= true;

  020e4	8b 45 fc	 mov	 eax, DWORD PTR _this$[ebp]
  020e7	c6 80 26 22 00
	00 01		 mov	 BYTE PTR [eax+8742], 1

; 886  : 	this->List[eExUB::GloryMU].GrandDinamicExp			= true;

  020ee	8b 45 fc	 mov	 eax, DWORD PTR _this$[ebp]
  020f1	c6 80 27 22 00
	00 01		 mov	 BYTE PTR [eax+8743], 1

; 887  : 	this->List[eExUB::GloryMU].PartySave				= true;

  020f8	8b 45 fc	 mov	 eax, DWORD PTR _this$[ebp]
  020fb	c6 80 28 22 00
	00 01		 mov	 BYTE PTR [eax+8744], 1

; 888  : 	this->List[eExUB::GloryMU].DisableMasterTree		= true;

  02102	8b 45 fc	 mov	 eax, DWORD PTR _this$[ebp]
  02105	c6 80 29 22 00
	00 01		 mov	 BYTE PTR [eax+8745], 1

; 889  : 	this->List[eExUB::GloryMU].OfflineMode				= true;

  0210c	8b 45 fc	 mov	 eax, DWORD PTR _this$[ebp]
  0210f	c6 80 2a 22 00
	00 01		 mov	 BYTE PTR [eax+8746], 1

; 890  : 	this->List[eExUB::GloryMU].bRankItem				= false;

  02116	8b 45 fc	 mov	 eax, DWORD PTR _this$[ebp]
  02119	c6 80 2d 22 00
	00 00		 mov	 BYTE PTR [eax+8749], 0

; 891  : 	this->List[eExUB::GloryMU].RestoreOffMode			= true;

  02120	8b 45 fc	 mov	 eax, DWORD PTR _this$[ebp]
  02123	c6 80 2e 22 00
	00 01		 mov	 BYTE PTR [eax+8750], 1

; 892  : 	this->List[eExUB::GloryMU].bTeamVsTeam2				= false;

  0212a	8b 45 fc	 mov	 eax, DWORD PTR _this$[ebp]
  0212d	c6 80 30 22 00
	00 00		 mov	 BYTE PTR [eax+8752], 0

; 893  : 	this->List[eExUB::GloryMU].bAchievements			= true;

  02134	8b 45 fc	 mov	 eax, DWORD PTR _this$[ebp]
  02137	c6 80 31 22 00
	00 01		 mov	 BYTE PTR [eax+8753], 1

; 894  : 	this->List[eExUB::GloryMU].PremiumEx				= true;

  0213e	8b 45 fc	 mov	 eax, DWORD PTR _this$[ebp]
  02141	c6 80 32 22 00
	00 01		 mov	 BYTE PTR [eax+8754], 1

; 895  : 	this->List[eExUB::GloryMU].AccSecurity				= true;

  02148	8b 45 fc	 mov	 eax, DWORD PTR _this$[ebp]
  0214b	c6 80 33 22 00
	00 01		 mov	 BYTE PTR [eax+8755], 1

; 896  : 	this->List[eExUB::GloryMU].CraftQuestSystem			= true;

  02152	8b 45 fc	 mov	 eax, DWORD PTR _this$[ebp]
  02155	c6 80 34 22 00
	00 01		 mov	 BYTE PTR [eax+8756], 1

; 897  : 	this->List[eExUB::GloryMU].PickUpItemInfo			= false;

  0215c	8b 45 fc	 mov	 eax, DWORD PTR _this$[ebp]
  0215f	c6 80 35 22 00
	00 00		 mov	 BYTE PTR [eax+8757], 0

; 898  : 	this->List[eExUB::GloryMU].ReferralSystem			= 0;

  02166	8b 45 fc	 mov	 eax, DWORD PTR _this$[ebp]
  02169	c6 80 36 22 00
	00 00		 mov	 BYTE PTR [eax+8758], 0

; 899  : 
; 900  : 	strcpy(this->List[eExUB::MuRelic].Login,				"MuRelic");	//vlad vlad

  02170	68 00 00 00 00	 push	 OFFSET ??_C@_07POKHNJJH@MuRelic?$AA@
  02175	8b 45 fc	 mov	 eax, DWORD PTR _this$[ebp]
  02178	05 38 22 00 00	 add	 eax, 8760		; 00002238H
  0217d	50		 push	 eax
  0217e	e8 00 00 00 00	 call	 _strcpy
  02183	83 c4 08	 add	 esp, 8

; 901  : 	this->List[eExUB::MuRelic].hwid						= 0;

  02186	8b 45 fc	 mov	 eax, DWORD PTR _this$[ebp]
  02189	c7 80 5c 22 00
	00 00 00 00 00	 mov	 DWORD PTR [eax+8796], 0

; 902  : 	//strcpy(this->List[eExUB::MuRelic].mac,			"00-15-5D-06-41-F8");
; 903  : 	this->List[eExUB::MuRelic].GrandHero				= true;

  02193	8b 45 fc	 mov	 eax, DWORD PTR _this$[ebp]
  02196	c6 80 8e 22 00
	00 01		 mov	 BYTE PTR [eax+8846], 1

; 904  : 
; 905  : 	strcpy(this->List[eExUB::ArcMu].Login,				"ArcMu");

  0219d	68 00 00 00 00	 push	 OFFSET ??_C@_05KLCPPPH@ArcMu?$AA@
  021a2	8b 45 fc	 mov	 eax, DWORD PTR _this$[ebp]
  021a5	05 b0 22 00 00	 add	 eax, 8880		; 000022b0H
  021aa	50		 push	 eax
  021ab	e8 00 00 00 00	 call	 _strcpy
  021b0	83 c4 08	 add	 esp, 8

; 906  : 	this->List[eExUB::ArcMu].hwid						= 697983919;

  021b3	8b 45 fc	 mov	 eax, DWORD PTR _this$[ebp]
  021b6	c7 80 d4 22 00
	00 af 63 9a 29	 mov	 DWORD PTR [eax+8916], 697983919 ; 299a63afH

; 907  : 	strcpy(this->List[eExUB::ArcMu].mac,				"A4-BF-01-23-8E-D3");

  021c0	68 00 00 00 00	 push	 OFFSET ??_C@_0BC@PNPLLFGH@A4?9BF?901?923?98E?9D3?$AA@
  021c5	8b 45 fc	 mov	 eax, DWORD PTR _this$[ebp]
  021c8	05 d8 22 00 00	 add	 eax, 8920		; 000022d8H
  021cd	50		 push	 eax
  021ce	e8 00 00 00 00	 call	 _strcpy
  021d3	83 c4 08	 add	 esp, 8

; 908  : 	this->List[eExUB::ArcMu].Rage						= true;

  021d6	8b 45 fc	 mov	 eax, DWORD PTR _this$[ebp]
  021d9	c6 80 01 23 00
	00 01		 mov	 BYTE PTR [eax+8961], 1

; 909  : 	this->List[eExUB::ArcMu].Monster					= true;

  021e0	8b 45 fc	 mov	 eax, DWORD PTR _this$[ebp]
  021e3	c6 80 15 23 00
	00 01		 mov	 BYTE PTR [eax+8981], 1

; 910  : 	this->List[eExUB::ArcMu].ItemSmokeEffect			= true;

  021ea	8b 45 fc	 mov	 eax, DWORD PTR _this$[ebp]
  021ed	c6 80 16 23 00
	00 01		 mov	 BYTE PTR [eax+8982], 1

; 911  : 	this->List[eExUB::ArcMu].MonsterQuest				= true;//

  021f4	8b 45 fc	 mov	 eax, DWORD PTR _this$[ebp]
  021f7	c6 80 04 23 00
	00 01		 mov	 BYTE PTR [eax+8964], 1

; 912  : 	this->List[eExUB::ArcMu].GrandHero					= true;

  021fe	8b 45 fc	 mov	 eax, DWORD PTR _this$[ebp]
  02201	c6 80 06 23 00
	00 01		 mov	 BYTE PTR [eax+8966], 1

; 913  : 	this->List[eExUB::ArcMu].TvTEvent					= true;

  02208	8b 45 fc	 mov	 eax, DWORD PTR _this$[ebp]
  0220b	c6 80 05 23 00
	00 01		 mov	 BYTE PTR [eax+8965], 1

; 914  : 	this->List[eExUB::ArcMu].PartySystem				= true;

  02212	8b 45 fc	 mov	 eax, DWORD PTR _this$[ebp]
  02215	c6 80 07 23 00
	00 01		 mov	 BYTE PTR [eax+8967], 1

; 915  : 	this->List[eExUB::ArcMu].Brotherhood				= false;

  0221c	8b 45 fc	 mov	 eax, DWORD PTR _this$[ebp]
  0221f	c6 80 08 23 00
	00 00		 mov	 BYTE PTR [eax+8968], 0

; 916  : 	this->List[eExUB::ArcMu].PartySearch				= true;

  02226	8b 45 fc	 mov	 eax, DWORD PTR _this$[ebp]
  02229	c6 80 09 23 00
	00 01		 mov	 BYTE PTR [eax+8969], 1

; 917  : 	this->List[eExUB::ArcMu].PerosnalStoreEx			= true;

  02230	8b 45 fc	 mov	 eax, DWORD PTR _this$[ebp]
  02233	c6 80 0c 23 00
	00 01		 mov	 BYTE PTR [eax+8972], 1

; 918  : 	this->List[eExUB::ArcMu].CraftQuestSystem			= true;

  0223a	8b 45 fc	 mov	 eax, DWORD PTR _this$[ebp]
  0223d	c6 80 24 23 00
	00 01		 mov	 BYTE PTR [eax+8996], 1

; 919  : 	this->List[eExUB::ArcMu].NpcBuffer					= true;

  02244	8b 45 fc	 mov	 eax, DWORD PTR _this$[ebp]
  02247	c6 80 11 23 00
	00 01		 mov	 BYTE PTR [eax+8977], 1

; 920  : 	this->List[eExUB::ArcMu].ComboCustom				= false;

  0224e	8b 45 fc	 mov	 eax, DWORD PTR _this$[ebp]
  02251	c6 80 10 23 00
	00 00		 mov	 BYTE PTR [eax+8976], 0

; 921  : 	this->List[eExUB::ArcMu].MonsterAttackLife			= true;

  02258	8b 45 fc	 mov	 eax, DWORD PTR _this$[ebp]
  0225b	c6 80 1c 23 00
	00 01		 mov	 BYTE PTR [eax+8988], 1

; 922  : 	this->List[eExUB::ArcMu].PandoraEvent				= true;

  02262	8b 45 fc	 mov	 eax, DWORD PTR _this$[ebp]
  02265	c6 80 0d 23 00
	00 01		 mov	 BYTE PTR [eax+8973], 1

; 923  : 	this->List[eExUB::ArcMu].Smithy						= true;

  0226c	8b 45 fc	 mov	 eax, DWORD PTR _this$[ebp]
  0226f	c6 80 14 23 00
	00 01		 mov	 BYTE PTR [eax+8980], 1

; 924  : 	this->List[eExUB::ArcMu].bRankItem					= true;

  02276	8b 45 fc	 mov	 eax, DWORD PTR _this$[ebp]
  02279	c6 80 1d 23 00
	00 01		 mov	 BYTE PTR [eax+8989], 1

; 925  : 	this->List[eExUB::ArcMu].bAchievements				= true;

  02280	8b 45 fc	 mov	 eax, DWORD PTR _this$[ebp]
  02283	c6 80 21 23 00
	00 01		 mov	 BYTE PTR [eax+8993], 1

; 926  : 	this->List[eExUB::ArcMu].RestoreOffMode				= true;

  0228a	8b 45 fc	 mov	 eax, DWORD PTR _this$[ebp]
  0228d	c6 80 1e 23 00
	00 01		 mov	 BYTE PTR [eax+8990], 1

; 927  : 	this->List[eExUB::ArcMu].AccSecurity				= true;

  02294	8b 45 fc	 mov	 eax, DWORD PTR _this$[ebp]
  02297	c6 80 23 23 00
	00 01		 mov	 BYTE PTR [eax+8995], 1

; 928  : 
; 929  : #if(LICENSE_ARCMU)
; 930  : 	this->List[eExUB::ArcMu].bTeamVsTeam2				= true;
; 931  : 	this->List[eExUB::ArcMu].LoraBattle					= true;
; 932  : 	this->List[eExUB::ArcMu].GM_Manager					= true;
; 933  : 	this->List[eExUB::ArcMu].MapQuest					= true;
; 934  : 	this->List[eExUB::ArcMu].PremiumEx					= true;
; 935  : 	this->List[eExUB::ArcMu].BloodHound					= true;
; 936  : 	this->List[eExUB::ArcMu].Brotherhood				= true;
; 937  : 	this->List[eExUB::ArcMu].Marriage					= true;
; 938  : 	this->List[eExUB::ArcMu].PartySave					= true;
; 939  : 	this->List[eExUB::ArcMu].OfflineMode				= true;
; 940  : #endif
; 941  : 
; 942  : 	strcpy(this->List[eExUB::muheroia].Login,				"muheroia");

  0229e	68 00 00 00 00	 push	 OFFSET ??_C@_08GLLNHAIO@muheroia?$AA@
  022a3	8b 45 fc	 mov	 eax, DWORD PTR _this$[ebp]
  022a6	05 28 23 00 00	 add	 eax, 9000		; 00002328H
  022ab	50		 push	 eax
  022ac	e8 00 00 00 00	 call	 _strcpy
  022b1	83 c4 08	 add	 esp, 8

; 943  : 	this->List[eExUB::muheroia].hwid						= 3302700294;

  022b4	8b 45 fc	 mov	 eax, DWORD PTR _this$[ebp]
  022b7	c7 80 4c 23 00
	00 06 35 db c4	 mov	 DWORD PTR [eax+9036], -992267002 ; c4db3506H

; 944  : 	strcpy(this->List[eExUB::muheroia].mac,			"02-12-5D-00-45-DF");

  022c1	68 00 00 00 00	 push	 OFFSET ??_C@_0BC@PDOAKHIO@02?912?95D?900?945?9DF?$AA@
  022c6	8b 45 fc	 mov	 eax, DWORD PTR _this$[ebp]
  022c9	05 50 23 00 00	 add	 eax, 9040		; 00002350H
  022ce	50		 push	 eax
  022cf	e8 00 00 00 00	 call	 _strcpy
  022d4	83 c4 08	 add	 esp, 8

; 945  : 
; 946  : 	strcpy(this->List[eExUB::HomeLan].Login,				"HomeLan");

  022d7	68 00 00 00 00	 push	 OFFSET ??_C@_07JLEKCBMA@HomeLan?$AA@
  022dc	8b 45 fc	 mov	 eax, DWORD PTR _this$[ebp]
  022df	05 a0 23 00 00	 add	 eax, 9120		; 000023a0H
  022e4	50		 push	 eax
  022e5	e8 00 00 00 00	 call	 _strcpy
  022ea	83 c4 08	 add	 esp, 8

; 947  : 	//this->List[eExUB::HomeLan].hwid						= 3302700294;
; 948  : 	//strcpy(this->List[eExUB::HomeLan].mac,			"02-12-5D-00-45-DF");
; 949  : 
; 950  : 	strcpy(this->List[eExUB::ProtectDebug].Login,				"ProtectDebug");

  022ed	68 00 00 00 00	 push	 OFFSET ??_C@_0N@HBPLJJOE@ProtectDebug?$AA@
  022f2	8b 45 fc	 mov	 eax, DWORD PTR _this$[ebp]
  022f5	05 18 24 00 00	 add	 eax, 9240		; 00002418H
  022fa	50		 push	 eax
  022fb	e8 00 00 00 00	 call	 _strcpy
  02300	83 c4 08	 add	 esp, 8

; 951  : 	//this->List[eExUB::ProtectDebug].hwid						= ProtectDebug;
; 952  : 	//strcpy(this->List[eExUB::ProtectDebug].mac,			"02-12-5D-00-45-DF");
; 953  : 	this->List[eExUB::ProtectDebug].OfflineMode				= true;

  02303	8b 45 fc	 mov	 eax, DWORD PTR _this$[ebp]
  02306	c6 80 82 24 00
	00 01		 mov	 BYTE PTR [eax+9346], 1

; 954  : 	this->List[eExUB::ProtectDebug].RestoreOffMode			= true;

  0230d	8b 45 fc	 mov	 eax, DWORD PTR _this$[ebp]
  02310	c6 80 86 24 00
	00 01		 mov	 BYTE PTR [eax+9350], 1

; 955  : 	this->List[eExUB::ProtectDebug].PerosnalStoreEx			= true;

  02317	8b 45 fc	 mov	 eax, DWORD PTR _this$[ebp]
  0231a	c6 80 74 24 00
	00 01		 mov	 BYTE PTR [eax+9332], 1

; 956  : 
; 957  : 	strcpy(this->List[eExUB::UpdateDebug].Login,		"UpdateDebug");

  02321	68 00 00 00 00	 push	 OFFSET ??_C@_0M@JAOCFDKO@UpdateDebug?$AA@
  02326	8b 45 fc	 mov	 eax, DWORD PTR _this$[ebp]
  02329	05 90 24 00 00	 add	 eax, 9360		; 00002490H
  0232e	50		 push	 eax
  0232f	e8 00 00 00 00	 call	 _strcpy
  02334	83 c4 08	 add	 esp, 8

; 958  : 	//this->List[eExUB::UpdateDebug].hwid					= 0;
; 959  : 	//strcpy(this->List[eExUB::UpdateDebug].mac,			"60-A4-4C-2B-45-03");
; 960  : 	this->List[eExUB::UpdateDebug].Credit				= 0;

  02337	8b 45 fc	 mov	 eax, DWORD PTR _this$[ebp]
  0233a	c7 80 dc 24 00
	00 00 00 00 00	 mov	 DWORD PTR [eax+9436], 0

; 961  : 	this->List[eExUB::UpdateDebug].Baned				= false;

  02344	8b 45 fc	 mov	 eax, DWORD PTR _this$[ebp]
  02347	c6 80 e0 24 00
	00 00		 mov	 BYTE PTR [eax+9440], 0

; 962  : 	this->List[eExUB::UpdateDebug].Rage					= true;

  0234e	8b 45 fc	 mov	 eax, DWORD PTR _this$[ebp]
  02351	c6 80 e1 24 00
	00 01		 mov	 BYTE PTR [eax+9441], 1

; 963  : 	this->List[eExUB::UpdateDebug].WinQuest				= 0;

  02358	8b 45 fc	 mov	 eax, DWORD PTR _this$[ebp]
  0235b	c6 80 e2 24 00
	00 00		 mov	 BYTE PTR [eax+9442], 0

; 964  : 	this->List[eExUB::UpdateDebug].BloodHound			= true;

  02362	8b 45 fc	 mov	 eax, DWORD PTR _this$[ebp]
  02365	c6 80 e3 24 00
	00 01		 mov	 BYTE PTR [eax+9443], 1

; 965  : 	this->List[eExUB::UpdateDebug].MonsterQuest			= true;

  0236c	8b 45 fc	 mov	 eax, DWORD PTR _this$[ebp]
  0236f	c6 80 e4 24 00
	00 01		 mov	 BYTE PTR [eax+9444], 1

; 966  : 	this->List[eExUB::UpdateDebug].TvTEvent				= true;

  02376	8b 45 fc	 mov	 eax, DWORD PTR _this$[ebp]
  02379	c6 80 e5 24 00
	00 01		 mov	 BYTE PTR [eax+9445], 1

; 967  : 	this->List[eExUB::UpdateDebug].GrandHero			= true;

  02380	8b 45 fc	 mov	 eax, DWORD PTR _this$[ebp]
  02383	c6 80 e6 24 00
	00 01		 mov	 BYTE PTR [eax+9446], 1

; 968  : 	this->List[eExUB::UpdateDebug].PartySystem			= true;

  0238a	8b 45 fc	 mov	 eax, DWORD PTR _this$[ebp]
  0238d	c6 80 e7 24 00
	00 01		 mov	 BYTE PTR [eax+9447], 1

; 969  : 	this->List[eExUB::UpdateDebug].Brotherhood			= true;

  02394	8b 45 fc	 mov	 eax, DWORD PTR _this$[ebp]
  02397	c6 80 e8 24 00
	00 01		 mov	 BYTE PTR [eax+9448], 1

; 970  : 	this->List[eExUB::UpdateDebug].PartySearch			= true;

  0239e	8b 45 fc	 mov	 eax, DWORD PTR _this$[ebp]
  023a1	c6 80 e9 24 00
	00 01		 mov	 BYTE PTR [eax+9449], 1

; 971  : 	this->List[eExUB::UpdateDebug].ChatLog				= true;

  023a8	8b 45 fc	 mov	 eax, DWORD PTR _this$[ebp]
  023ab	c6 80 ea 24 00
	00 01		 mov	 BYTE PTR [eax+9450], 1

; 972  : 	this->List[eExUB::UpdateDebug].GM_Manager			= true;

  023b2	8b 45 fc	 mov	 eax, DWORD PTR _this$[ebp]
  023b5	c6 80 eb 24 00
	00 01		 mov	 BYTE PTR [eax+9451], 1

; 973  : 	this->List[eExUB::UpdateDebug].PerosnalStoreEx		= true;

  023bc	8b 45 fc	 mov	 eax, DWORD PTR _this$[ebp]
  023bf	c6 80 ec 24 00
	00 01		 mov	 BYTE PTR [eax+9452], 1

; 974  : 	this->List[eExUB::UpdateDebug].PandoraEvent			= true;

  023c6	8b 45 fc	 mov	 eax, DWORD PTR _this$[ebp]
  023c9	c6 80 ed 24 00
	00 01		 mov	 BYTE PTR [eax+9453], 1

; 975  : 	this->List[eExUB::UpdateDebug].AntiCheatPlus		= true;

  023d0	8b 45 fc	 mov	 eax, DWORD PTR _this$[ebp]
  023d3	c6 80 ee 24 00
	00 01		 mov	 BYTE PTR [eax+9454], 1

; 976  : 	this->List[eExUB::UpdateDebug].ComboCustom			= true;

  023da	8b 45 fc	 mov	 eax, DWORD PTR _this$[ebp]
  023dd	c6 80 f0 24 00
	00 01		 mov	 BYTE PTR [eax+9456], 1

; 977  : 	this->List[eExUB::UpdateDebug].NpcBuffer			= true;

  023e4	8b 45 fc	 mov	 eax, DWORD PTR _this$[ebp]
  023e7	c6 80 f1 24 00
	00 01		 mov	 BYTE PTR [eax+9457], 1

; 978  : 	this->List[eExUB::UpdateDebug].BMQuest				= true;

  023ee	8b 45 fc	 mov	 eax, DWORD PTR _this$[ebp]
  023f1	c6 80 f2 24 00
	00 01		 mov	 BYTE PTR [eax+9458], 1

; 979  : 	this->List[eExUB::UpdateDebug].LoraBattle			= true;

  023f8	8b 45 fc	 mov	 eax, DWORD PTR _this$[ebp]
  023fb	c6 80 f3 24 00
	00 01		 mov	 BYTE PTR [eax+9459], 1

; 980  : 	this->List[eExUB::UpdateDebug].Smithy				= true;

  02402	8b 45 fc	 mov	 eax, DWORD PTR _this$[ebp]
  02405	c6 80 f4 24 00
	00 01		 mov	 BYTE PTR [eax+9460], 1

; 981  : 	this->List[eExUB::UpdateDebug].Monster				= true;

  0240c	8b 45 fc	 mov	 eax, DWORD PTR _this$[ebp]
  0240f	c6 80 f5 24 00
	00 01		 mov	 BYTE PTR [eax+9461], 1

; 982  : 	this->List[eExUB::UpdateDebug].ItemSmokeEffect		= true;

  02416	8b 45 fc	 mov	 eax, DWORD PTR _this$[ebp]
  02419	c6 80 f6 24 00
	00 01		 mov	 BYTE PTR [eax+9462], 1

; 983  : 	this->List[eExUB::UpdateDebug].GrandDinamicExp      = true;

  02420	8b 45 fc	 mov	 eax, DWORD PTR _this$[ebp]
  02423	c6 80 f7 24 00
	00 01		 mov	 BYTE PTR [eax+9463], 1

; 984  : 	this->List[eExUB::UpdateDebug].PartySave			= true;

  0242a	8b 45 fc	 mov	 eax, DWORD PTR _this$[ebp]
  0242d	c6 80 f8 24 00
	00 01		 mov	 BYTE PTR [eax+9464], 1

; 985  : 	this->List[eExUB::UpdateDebug].DisableMasterTree	= true;

  02434	8b 45 fc	 mov	 eax, DWORD PTR _this$[ebp]
  02437	c6 80 f9 24 00
	00 01		 mov	 BYTE PTR [eax+9465], 1

; 986  : 	this->List[eExUB::UpdateDebug].OfflineMode			= true;

  0243e	8b 45 fc	 mov	 eax, DWORD PTR _this$[ebp]
  02441	c6 80 fa 24 00
	00 01		 mov	 BYTE PTR [eax+9466], 1

; 987  : 	this->List[eExUB::UpdateDebug].Marriage				= true;

  02448	8b 45 fc	 mov	 eax, DWORD PTR _this$[ebp]
  0244b	c6 80 fb 24 00
	00 01		 mov	 BYTE PTR [eax+9467], 1

; 988  : 	this->List[eExUB::UpdateDebug].bRankItem			= true;

  02452	8b 45 fc	 mov	 eax, DWORD PTR _this$[ebp]
  02455	c6 80 fd 24 00
	00 01		 mov	 BYTE PTR [eax+9469], 1

; 989  : 	this->List[eExUB::UpdateDebug].RestoreOffMode		= true;

  0245c	8b 45 fc	 mov	 eax, DWORD PTR _this$[ebp]
  0245f	c6 80 fe 24 00
	00 01		 mov	 BYTE PTR [eax+9470], 1

; 990  : 	this->List[eExUB::UpdateDebug].MapQuest				= true;

  02466	8b 45 fc	 mov	 eax, DWORD PTR _this$[ebp]
  02469	c6 80 ff 24 00
	00 01		 mov	 BYTE PTR [eax+9471], 1

; 991  : 	this->List[eExUB::UpdateDebug].bTeamVsTeam2         = true;

  02470	8b 45 fc	 mov	 eax, DWORD PTR _this$[ebp]
  02473	c6 80 00 25 00
	00 01		 mov	 BYTE PTR [eax+9472], 1

; 992  : 	this->List[eExUB::UpdateDebug].bAchievements		= true;

  0247a	8b 45 fc	 mov	 eax, DWORD PTR _this$[ebp]
  0247d	c6 80 01 25 00
	00 01		 mov	 BYTE PTR [eax+9473], 1

; 993  : 	this->List[eExUB::UpdateDebug].PremiumEx			= true;

  02484	8b 45 fc	 mov	 eax, DWORD PTR _this$[ebp]
  02487	c6 80 02 25 00
	00 01		 mov	 BYTE PTR [eax+9474], 1

; 994  : 	this->List[eExUB::UpdateDebug].AccSecurity			= true;

  0248e	8b 45 fc	 mov	 eax, DWORD PTR _this$[ebp]
  02491	c6 80 03 25 00
	00 01		 mov	 BYTE PTR [eax+9475], 1

; 995  : 	this->List[eExUB::UpdateDebug].CraftQuestSystem		= true;

  02498	8b 45 fc	 mov	 eax, DWORD PTR _this$[ebp]
  0249b	c6 80 04 25 00
	00 01		 mov	 BYTE PTR [eax+9476], 1

; 996  : 	this->List[eExUB::UpdateDebug].PickUpItemInfo		= true;

  024a2	8b 45 fc	 mov	 eax, DWORD PTR _this$[ebp]
  024a5	c6 80 05 25 00
	00 01		 mov	 BYTE PTR [eax+9477], 1

; 997  : 	this->List[eExUB::UpdateDebug].ReferralSystem		= true;

  024ac	8b 45 fc	 mov	 eax, DWORD PTR _this$[ebp]
  024af	c6 80 06 25 00
	00 01		 mov	 BYTE PTR [eax+9478], 1

; 998  : 	
; 999  : 	strcpy(this->List[eExUB::MegaM].Login,		"MegaM");

  024b6	68 00 00 00 00	 push	 OFFSET ??_C@_05GBKOADG@MegaM?$AA@
  024bb	8b 45 fc	 mov	 eax, DWORD PTR _this$[ebp]
  024be	05 08 25 00 00	 add	 eax, 9480		; 00002508H
  024c3	50		 push	 eax
  024c4	e8 00 00 00 00	 call	 _strcpy
  024c9	83 c4 08	 add	 esp, 8

; 1000 : 	this->List[eExUB::MegaM].hwid					= 3226014109;

  024cc	8b 45 fc	 mov	 eax, DWORD PTR _this$[ebp]
  024cf	c7 80 2c 25 00
	00 9d 11 49 c0	 mov	 DWORD PTR [eax+9516], -1068953187 ; c049119dH

; 1001 : 	strcpy(this->List[eExUB::MegaM].mac,			"02-11-5D-00-6B-C4");

  024d9	68 00 00 00 00	 push	 OFFSET ??_C@_0BC@JBPNBCHA@02?911?95D?900?96B?9C4?$AA@
  024de	8b 45 fc	 mov	 eax, DWORD PTR _this$[ebp]
  024e1	05 30 25 00 00	 add	 eax, 9520		; 00002530H
  024e6	50		 push	 eax
  024e7	e8 00 00 00 00	 call	 _strcpy
  024ec	83 c4 08	 add	 esp, 8

; 1002 : 	this->List[eExUB::MegaM].MonsterQuest			= true;

  024ef	8b 45 fc	 mov	 eax, DWORD PTR _this$[ebp]
  024f2	c6 80 5c 25 00
	00 01		 mov	 BYTE PTR [eax+9564], 1

; 1003 : 	this->List[eExUB::MegaM].bTeamVsTeam2			= true;

  024f9	8b 45 fc	 mov	 eax, DWORD PTR _this$[ebp]
  024fc	c6 80 78 25 00
	00 01		 mov	 BYTE PTR [eax+9592], 1

; 1004 : 
; 1005 : 	strcpy(this->List[eExUB::mu4you].Login,			"mu4you");

  02503	68 00 00 00 00	 push	 OFFSET ??_C@_06IAEIGBCI@mu4you?$AA@
  02508	8b 45 fc	 mov	 eax, DWORD PTR _this$[ebp]
  0250b	05 80 25 00 00	 add	 eax, 9600		; 00002580H
  02510	50		 push	 eax
  02511	e8 00 00 00 00	 call	 _strcpy
  02516	83 c4 08	 add	 esp, 8

; 1006 : 	this->List[eExUB::mu4you].hwid					= 3302700294;

  02519	8b 45 fc	 mov	 eax, DWORD PTR _this$[ebp]
  0251c	c7 80 a4 25 00
	00 06 35 db c4	 mov	 DWORD PTR [eax+9636], -992267002 ; c4db3506H

; 1007 : 	strcpy(this->List[eExUB::mu4you].mac,			"02-0E-5D-00-3E-4F");

  02526	68 00 00 00 00	 push	 OFFSET ??_C@_0BC@HFJPNNME@02?90E?95D?900?93E?94F?$AA@
  0252b	8b 45 fc	 mov	 eax, DWORD PTR _this$[ebp]
  0252e	05 a8 25 00 00	 add	 eax, 9640		; 000025a8H
  02533	50		 push	 eax
  02534	e8 00 00 00 00	 call	 _strcpy
  02539	83 c4 08	 add	 esp, 8

; 1008 : 	this->List[eExUB::mu4you].PartySearch			= true;

  0253c	8b 45 fc	 mov	 eax, DWORD PTR _this$[ebp]
  0253f	c6 80 d9 25 00
	00 01		 mov	 BYTE PTR [eax+9689], 1

; 1009 : 	this->List[eExUB::mu4you].PartySystem			= true;

  02546	8b 45 fc	 mov	 eax, DWORD PTR _this$[ebp]
  02549	c6 80 d7 25 00
	00 01		 mov	 BYTE PTR [eax+9687], 1

; 1010 : 	this->List[eExUB::mu4you].GM_Manager			= true;

  02550	8b 45 fc	 mov	 eax, DWORD PTR _this$[ebp]
  02553	c6 80 db 25 00
	00 01		 mov	 BYTE PTR [eax+9691], 1

; 1011 : 	this->List[eExUB::mu4you].PerosnalStoreEx		= true;

  0255a	8b 45 fc	 mov	 eax, DWORD PTR _this$[ebp]
  0255d	c6 80 dc 25 00
	00 01		 mov	 BYTE PTR [eax+9692], 1

; 1012 : 	this->List[eExUB::mu4you].AntiCheatPlus			= true;

  02564	8b 45 fc	 mov	 eax, DWORD PTR _this$[ebp]
  02567	c6 80 de 25 00
	00 01		 mov	 BYTE PTR [eax+9694], 1

; 1013 : 	this->List[eExUB::mu4you].Rage					= true;

  0256e	8b 45 fc	 mov	 eax, DWORD PTR _this$[ebp]
  02571	c6 80 d1 25 00
	00 01		 mov	 BYTE PTR [eax+9681], 1

; 1014 : 	this->List[eExUB::mu4you].Monster				= true;

  02578	8b 45 fc	 mov	 eax, DWORD PTR _this$[ebp]
  0257b	c6 80 e5 25 00
	00 01		 mov	 BYTE PTR [eax+9701], 1

; 1015 : 	this->List[eExUB::mu4you].PartySave				= true;

  02582	8b 45 fc	 mov	 eax, DWORD PTR _this$[ebp]
  02585	c6 80 e8 25 00
	00 01		 mov	 BYTE PTR [eax+9704], 1

; 1016 : 	this->List[eExUB::mu4you].OfflineMode			= true;

  0258c	8b 45 fc	 mov	 eax, DWORD PTR _this$[ebp]
  0258f	c6 80 ea 25 00
	00 01		 mov	 BYTE PTR [eax+9706], 1

; 1017 : 	this->List[eExUB::mu4you].bRankItem				= true;

  02596	8b 45 fc	 mov	 eax, DWORD PTR _this$[ebp]
  02599	c6 80 ed 25 00
	00 01		 mov	 BYTE PTR [eax+9709], 1

; 1018 : 	this->List[eExUB::mu4you].MonsterAttackLife		= true;

  025a0	8b 45 fc	 mov	 eax, DWORD PTR _this$[ebp]
  025a3	c6 80 ec 25 00
	00 01		 mov	 BYTE PTR [eax+9708], 1

; 1019 : 	this->List[eExUB::mu4you].GrandDinamicExp		= true;

  025aa	8b 45 fc	 mov	 eax, DWORD PTR _this$[ebp]
  025ad	c6 80 e7 25 00
	00 01		 mov	 BYTE PTR [eax+9703], 1

; 1020 : 	this->List[eExUB::mu4you].RestoreOffMode		= true;

  025b4	8b 45 fc	 mov	 eax, DWORD PTR _this$[ebp]
  025b7	c6 80 ee 25 00
	00 01		 mov	 BYTE PTR [eax+9710], 1

; 1021 : 	this->List[eExUB::mu4you].bTeamVsTeam2			= true;

  025be	8b 45 fc	 mov	 eax, DWORD PTR _this$[ebp]
  025c1	c6 80 f0 25 00
	00 01		 mov	 BYTE PTR [eax+9712], 1

; 1022 : 	this->List[eExUB::mu4you].LoraBattle			= true;

  025c8	8b 45 fc	 mov	 eax, DWORD PTR _this$[ebp]
  025cb	c6 80 e3 25 00
	00 01		 mov	 BYTE PTR [eax+9699], 1

; 1023 : 	this->List[eExUB::mu4you].ItemSmokeEffect		= true;

  025d2	8b 45 fc	 mov	 eax, DWORD PTR _this$[ebp]
  025d5	c6 80 e6 25 00
	00 01		 mov	 BYTE PTR [eax+9702], 1

; 1024 : 	this->List[eExUB::mu4you].PandoraEvent			= true;

  025dc	8b 45 fc	 mov	 eax, DWORD PTR _this$[ebp]
  025df	c6 80 dd 25 00
	00 01		 mov	 BYTE PTR [eax+9693], 1

; 1025 : 	this->List[eExUB::mu4you].OfflineMode			= true;

  025e6	8b 45 fc	 mov	 eax, DWORD PTR _this$[ebp]
  025e9	c6 80 ea 25 00
	00 01		 mov	 BYTE PTR [eax+9706], 1

; 1026 : 	this->List[eExUB::mu4you].bAchievements			= true;

  025f0	8b 45 fc	 mov	 eax, DWORD PTR _this$[ebp]
  025f3	c6 80 f1 25 00
	00 01		 mov	 BYTE PTR [eax+9713], 1

; 1027 : 	this->List[eExUB::mu4you].AccSecurity			= true;

  025fa	8b 45 fc	 mov	 eax, DWORD PTR _this$[ebp]
  025fd	c6 80 f3 25 00
	00 01		 mov	 BYTE PTR [eax+9715], 1

; 1028 : 	this->List[eExUB::mu4you].PremiumEx				= true;

  02604	8b 45 fc	 mov	 eax, DWORD PTR _this$[ebp]
  02607	c6 80 f2 25 00
	00 01		 mov	 BYTE PTR [eax+9714], 1

; 1029 : 	this->List[eExUB::mu4you].ComboCustom			= true;

  0260e	8b 45 fc	 mov	 eax, DWORD PTR _this$[ebp]
  02611	c6 80 e0 25 00
	00 01		 mov	 BYTE PTR [eax+9696], 1

; 1030 : 
; 1031 : 	strcpy(this->List[eExUB::eternalmu].Login,			"eternalmu");

  02618	68 00 00 00 00	 push	 OFFSET ??_C@_09JABDAIBF@eternalmu?$AA@
  0261d	8b 45 fc	 mov	 eax, DWORD PTR _this$[ebp]
  02620	05 f8 25 00 00	 add	 eax, 9720		; 000025f8H
  02625	50		 push	 eax
  02626	e8 00 00 00 00	 call	 _strcpy
  0262b	83 c4 08	 add	 esp, 8

; 1032 : 	this->List[eExUB::eternalmu].hwid					= 3302700294;

  0262e	8b 45 fc	 mov	 eax, DWORD PTR _this$[ebp]
  02631	c7 80 1c 26 00
	00 06 35 db c4	 mov	 DWORD PTR [eax+9756], -992267002 ; c4db3506H

; 1033 : 	strcpy(this->List[eExUB::eternalmu].mac,		"00-15-5D-04-F0-D3");

  0263b	68 00 00 00 00	 push	 OFFSET ??_C@_0BC@BKBJDNHK@00?915?95D?904?9F0?9D3?$AA@
  02640	8b 45 fc	 mov	 eax, DWORD PTR _this$[ebp]
  02643	05 20 26 00 00	 add	 eax, 9760		; 00002620H
  02648	50		 push	 eax
  02649	e8 00 00 00 00	 call	 _strcpy
  0264e	83 c4 08	 add	 esp, 8

; 1034 : 	this->List[eExUB::eternalmu].PartySearch				= true;

  02651	8b 45 fc	 mov	 eax, DWORD PTR _this$[ebp]
  02654	c6 80 51 26 00
	00 01		 mov	 BYTE PTR [eax+9809], 1

; 1035 : 	this->List[eExUB::eternalmu].PartySystem				= true;

  0265b	8b 45 fc	 mov	 eax, DWORD PTR _this$[ebp]
  0265e	c6 80 4f 26 00
	00 01		 mov	 BYTE PTR [eax+9807], 1

; 1036 : 	this->List[eExUB::eternalmu].GM_Manager				= true;

  02665	8b 45 fc	 mov	 eax, DWORD PTR _this$[ebp]
  02668	c6 80 53 26 00
	00 01		 mov	 BYTE PTR [eax+9811], 1

; 1037 : 	this->List[eExUB::eternalmu].PerosnalStoreEx			= true;

  0266f	8b 45 fc	 mov	 eax, DWORD PTR _this$[ebp]
  02672	c6 80 54 26 00
	00 01		 mov	 BYTE PTR [eax+9812], 1

; 1038 : 	this->List[eExUB::eternalmu].AntiCheatPlus			= true;

  02679	8b 45 fc	 mov	 eax, DWORD PTR _this$[ebp]
  0267c	c6 80 56 26 00
	00 01		 mov	 BYTE PTR [eax+9814], 1

; 1039 : 	this->List[eExUB::eternalmu].Rage					= true;

  02683	8b 45 fc	 mov	 eax, DWORD PTR _this$[ebp]
  02686	c6 80 49 26 00
	00 01		 mov	 BYTE PTR [eax+9801], 1

; 1040 : 	this->List[eExUB::eternalmu].Monster					= true;

  0268d	8b 45 fc	 mov	 eax, DWORD PTR _this$[ebp]
  02690	c6 80 5d 26 00
	00 01		 mov	 BYTE PTR [eax+9821], 1

; 1041 : 	this->List[eExUB::eternalmu].PartySave				= true;

  02697	8b 45 fc	 mov	 eax, DWORD PTR _this$[ebp]
  0269a	c6 80 60 26 00
	00 01		 mov	 BYTE PTR [eax+9824], 1

; 1042 : 	this->List[eExUB::eternalmu].OfflineMode				= true;

  026a1	8b 45 fc	 mov	 eax, DWORD PTR _this$[ebp]
  026a4	c6 80 62 26 00
	00 01		 mov	 BYTE PTR [eax+9826], 1

; 1043 : 	this->List[eExUB::eternalmu].bRankItem				= true;

  026ab	8b 45 fc	 mov	 eax, DWORD PTR _this$[ebp]
  026ae	c6 80 65 26 00
	00 01		 mov	 BYTE PTR [eax+9829], 1

; 1044 : 	this->List[eExUB::eternalmu].MonsterAttackLife		= true;

  026b5	8b 45 fc	 mov	 eax, DWORD PTR _this$[ebp]
  026b8	c6 80 64 26 00
	00 01		 mov	 BYTE PTR [eax+9828], 1

; 1045 : 	this->List[eExUB::eternalmu].GrandDinamicExp			= true;

  026bf	8b 45 fc	 mov	 eax, DWORD PTR _this$[ebp]
  026c2	c6 80 5f 26 00
	00 01		 mov	 BYTE PTR [eax+9823], 1

; 1046 : 	this->List[eExUB::eternalmu].RestoreOffMode			= true;

  026c9	8b 45 fc	 mov	 eax, DWORD PTR _this$[ebp]
  026cc	c6 80 66 26 00
	00 01		 mov	 BYTE PTR [eax+9830], 1

; 1047 : 	this->List[eExUB::eternalmu].bTeamVsTeam2			= true;

  026d3	8b 45 fc	 mov	 eax, DWORD PTR _this$[ebp]
  026d6	c6 80 68 26 00
	00 01		 mov	 BYTE PTR [eax+9832], 1

; 1048 : 	this->List[eExUB::eternalmu].LoraBattle				= true;	//OK

  026dd	8b 45 fc	 mov	 eax, DWORD PTR _this$[ebp]
  026e0	c6 80 5b 26 00
	00 01		 mov	 BYTE PTR [eax+9819], 1

; 1049 : 	//this->List[eExUB::eternalmu].Smithy					= true;	//OK
; 1050 : 	this->List[eExUB::eternalmu].ItemSmokeEffect			= true;	//OK

  026e7	8b 45 fc	 mov	 eax, DWORD PTR _this$[ebp]
  026ea	c6 80 5e 26 00
	00 01		 mov	 BYTE PTR [eax+9822], 1

; 1051 : 	this->List[eExUB::eternalmu].PandoraEvent			= true;	//OK

  026f1	8b 45 fc	 mov	 eax, DWORD PTR _this$[ebp]
  026f4	c6 80 55 26 00
	00 01		 mov	 BYTE PTR [eax+9813], 1

; 1052 : 	this->List[eExUB::eternalmu].OfflineMode				= true;

  026fb	8b 45 fc	 mov	 eax, DWORD PTR _this$[ebp]
  026fe	c6 80 62 26 00
	00 01		 mov	 BYTE PTR [eax+9826], 1

; 1053 : 	this->List[eExUB::eternalmu].bAchievements			= true;

  02705	8b 45 fc	 mov	 eax, DWORD PTR _this$[ebp]
  02708	c6 80 69 26 00
	00 01		 mov	 BYTE PTR [eax+9833], 1

; 1054 : 	this->List[eExUB::eternalmu].AccSecurity				= true;

  0270f	8b 45 fc	 mov	 eax, DWORD PTR _this$[ebp]
  02712	c6 80 6b 26 00
	00 01		 mov	 BYTE PTR [eax+9835], 1

; 1055 : 	this->List[eExUB::eternalmu].PremiumEx				= true;

  02719	8b 45 fc	 mov	 eax, DWORD PTR _this$[ebp]
  0271c	c6 80 6a 26 00
	00 01		 mov	 BYTE PTR [eax+9834], 1

; 1056 : 	this->List[eExUB::eternalmu].ComboCustom				= true;

  02723	8b 45 fc	 mov	 eax, DWORD PTR _this$[ebp]
  02726	c6 80 58 26 00
	00 01		 mov	 BYTE PTR [eax+9816], 1

; 1057 : 
; 1058 : 	strcpy(this->List[eExUB::WarBorn].Login,			"WarBorn");

  0272d	68 00 00 00 00	 push	 OFFSET ??_C@_07EDGICHLJ@WarBorn?$AA@
  02732	8b 45 fc	 mov	 eax, DWORD PTR _this$[ebp]
  02735	05 70 26 00 00	 add	 eax, 9840		; 00002670H
  0273a	50		 push	 eax
  0273b	e8 00 00 00 00	 call	 _strcpy
  02740	83 c4 08	 add	 esp, 8

; 1059 : 	this->List[eExUB::WarBorn].hwid					= 3971232786;

  02743	8b 45 fc	 mov	 eax, DWORD PTR _this$[ebp]
  02746	c7 80 94 26 00
	00 12 34 b4 ec	 mov	 DWORD PTR [eax+9876], -323734510 ; ecb43412H

; 1060 : 	strcpy(this->List[eExUB::WarBorn].mac,			"02-0E-5D-00-3E-58");

  02750	68 00 00 00 00	 push	 OFFSET ??_C@_0BC@MFOBODIL@02?90E?95D?900?93E?958?$AA@
  02755	8b 45 fc	 mov	 eax, DWORD PTR _this$[ebp]
  02758	05 98 26 00 00	 add	 eax, 9880		; 00002698H
  0275d	50		 push	 eax
  0275e	e8 00 00 00 00	 call	 _strcpy
  02763	83 c4 08	 add	 esp, 8

; 1061 : 	this->List[eExUB::WarBorn].PartySearch			= true;

  02766	8b 45 fc	 mov	 eax, DWORD PTR _this$[ebp]
  02769	c6 80 c9 26 00
	00 01		 mov	 BYTE PTR [eax+9929], 1

; 1062 : 	this->List[eExUB::WarBorn].PartySystem			= true;

  02770	8b 45 fc	 mov	 eax, DWORD PTR _this$[ebp]
  02773	c6 80 c7 26 00
	00 01		 mov	 BYTE PTR [eax+9927], 1

; 1063 : 	this->List[eExUB::WarBorn].GM_Manager			= true;

  0277a	8b 45 fc	 mov	 eax, DWORD PTR _this$[ebp]
  0277d	c6 80 cb 26 00
	00 01		 mov	 BYTE PTR [eax+9931], 1

; 1064 : 	this->List[eExUB::WarBorn].PerosnalStoreEx		= true;

  02784	8b 45 fc	 mov	 eax, DWORD PTR _this$[ebp]
  02787	c6 80 cc 26 00
	00 01		 mov	 BYTE PTR [eax+9932], 1

; 1065 : 	this->List[eExUB::WarBorn].AntiCheatPlus		= true;

  0278e	8b 45 fc	 mov	 eax, DWORD PTR _this$[ebp]
  02791	c6 80 ce 26 00
	00 01		 mov	 BYTE PTR [eax+9934], 1

; 1066 : 	this->List[eExUB::WarBorn].Rage					= true;

  02798	8b 45 fc	 mov	 eax, DWORD PTR _this$[ebp]
  0279b	c6 80 c1 26 00
	00 01		 mov	 BYTE PTR [eax+9921], 1

; 1067 : 	this->List[eExUB::WarBorn].Monster				= true;

  027a2	8b 45 fc	 mov	 eax, DWORD PTR _this$[ebp]
  027a5	c6 80 d5 26 00
	00 01		 mov	 BYTE PTR [eax+9941], 1

; 1068 : 	this->List[eExUB::WarBorn].PartySave			= true;

  027ac	8b 45 fc	 mov	 eax, DWORD PTR _this$[ebp]
  027af	c6 80 d8 26 00
	00 01		 mov	 BYTE PTR [eax+9944], 1

; 1069 : 	this->List[eExUB::WarBorn].OfflineMode			= true;

  027b6	8b 45 fc	 mov	 eax, DWORD PTR _this$[ebp]
  027b9	c6 80 da 26 00
	00 01		 mov	 BYTE PTR [eax+9946], 1

; 1070 : 	this->List[eExUB::WarBorn].bRankItem			= true;

  027c0	8b 45 fc	 mov	 eax, DWORD PTR _this$[ebp]
  027c3	c6 80 dd 26 00
	00 01		 mov	 BYTE PTR [eax+9949], 1

; 1071 : 	this->List[eExUB::WarBorn].MonsterAttackLife	= true;

  027ca	8b 45 fc	 mov	 eax, DWORD PTR _this$[ebp]
  027cd	c6 80 dc 26 00
	00 01		 mov	 BYTE PTR [eax+9948], 1

; 1072 : 	this->List[eExUB::WarBorn].GrandDinamicExp		= true;

  027d4	8b 45 fc	 mov	 eax, DWORD PTR _this$[ebp]
  027d7	c6 80 d7 26 00
	00 01		 mov	 BYTE PTR [eax+9943], 1

; 1073 : 	this->List[eExUB::WarBorn].RestoreOffMode		= true;

  027de	8b 45 fc	 mov	 eax, DWORD PTR _this$[ebp]
  027e1	c6 80 de 26 00
	00 01		 mov	 BYTE PTR [eax+9950], 1

; 1074 : 	this->List[eExUB::WarBorn].bTeamVsTeam2			= true;

  027e8	8b 45 fc	 mov	 eax, DWORD PTR _this$[ebp]
  027eb	c6 80 e0 26 00
	00 01		 mov	 BYTE PTR [eax+9952], 1

; 1075 : 	this->List[eExUB::WarBorn].LoraBattle			= true;

  027f2	8b 45 fc	 mov	 eax, DWORD PTR _this$[ebp]
  027f5	c6 80 d3 26 00
	00 01		 mov	 BYTE PTR [eax+9939], 1

; 1076 : 	this->List[eExUB::WarBorn].ItemSmokeEffect		= true;

  027fc	8b 45 fc	 mov	 eax, DWORD PTR _this$[ebp]
  027ff	c6 80 d6 26 00
	00 01		 mov	 BYTE PTR [eax+9942], 1

; 1077 : 	this->List[eExUB::WarBorn].PandoraEvent			= true;

  02806	8b 45 fc	 mov	 eax, DWORD PTR _this$[ebp]
  02809	c6 80 cd 26 00
	00 01		 mov	 BYTE PTR [eax+9933], 1

; 1078 : 	this->List[eExUB::WarBorn].OfflineMode			= true;

  02810	8b 45 fc	 mov	 eax, DWORD PTR _this$[ebp]
  02813	c6 80 da 26 00
	00 01		 mov	 BYTE PTR [eax+9946], 1

; 1079 : 	this->List[eExUB::WarBorn].bAchievements		= true;

  0281a	8b 45 fc	 mov	 eax, DWORD PTR _this$[ebp]
  0281d	c6 80 e1 26 00
	00 01		 mov	 BYTE PTR [eax+9953], 1

; 1080 : 	this->List[eExUB::WarBorn].AccSecurity			= true;

  02824	8b 45 fc	 mov	 eax, DWORD PTR _this$[ebp]
  02827	c6 80 e3 26 00
	00 01		 mov	 BYTE PTR [eax+9955], 1

; 1081 : 	this->List[eExUB::WarBorn].PremiumEx			= true;

  0282e	8b 45 fc	 mov	 eax, DWORD PTR _this$[ebp]
  02831	c6 80 e2 26 00
	00 01		 mov	 BYTE PTR [eax+9954], 1

; 1082 : 	this->List[eExUB::WarBorn].ComboCustom			= true;

  02838	8b 45 fc	 mov	 eax, DWORD PTR _this$[ebp]
  0283b	c6 80 d0 26 00
	00 01		 mov	 BYTE PTR [eax+9936], 1

; 1083 : 
; 1084 : 	strcpy(this->List[eExUB::NSGames].Login,			"NSGames");

  02842	68 00 00 00 00	 push	 OFFSET ??_C@_07IBLKGLGK@NSGames?$AA@
  02847	8b 45 fc	 mov	 eax, DWORD PTR _this$[ebp]
  0284a	05 e8 26 00 00	 add	 eax, 9960		; 000026e8H
  0284f	50		 push	 eax
  02850	e8 00 00 00 00	 call	 _strcpy
  02855	83 c4 08	 add	 esp, 8

; 1085 : 	this->List[eExUB::NSGames].hwid					= 3971232786;

  02858	8b 45 fc	 mov	 eax, DWORD PTR _this$[ebp]
  0285b	c7 80 0c 27 00
	00 12 34 b4 ec	 mov	 DWORD PTR [eax+9996], -323734510 ; ecb43412H

; 1086 : 	strcpy(this->List[eExUB::NSGames].mac,			"00-15-5D-05-84-FA");

  02865	68 00 00 00 00	 push	 OFFSET ??_C@_0BC@MJGDIIP@00?915?95D?905?984?9FA?$AA@
  0286a	8b 45 fc	 mov	 eax, DWORD PTR _this$[ebp]
  0286d	05 10 27 00 00	 add	 eax, 10000		; 00002710H
  02872	50		 push	 eax
  02873	e8 00 00 00 00	 call	 _strcpy
  02878	83 c4 08	 add	 esp, 8

; 1087 : 	this->List[eExUB::NSGames].PartySearch			= true;

  0287b	8b 45 fc	 mov	 eax, DWORD PTR _this$[ebp]
  0287e	c6 80 41 27 00
	00 01		 mov	 BYTE PTR [eax+10049], 1

; 1088 : 	this->List[eExUB::NSGames].PartySystem			= true;

  02885	8b 45 fc	 mov	 eax, DWORD PTR _this$[ebp]
  02888	c6 80 3f 27 00
	00 01		 mov	 BYTE PTR [eax+10047], 1

; 1089 : 	this->List[eExUB::NSGames].GM_Manager			= true;

  0288f	8b 45 fc	 mov	 eax, DWORD PTR _this$[ebp]
  02892	c6 80 43 27 00
	00 01		 mov	 BYTE PTR [eax+10051], 1

; 1090 : 	this->List[eExUB::NSGames].PerosnalStoreEx		= true;

  02899	8b 45 fc	 mov	 eax, DWORD PTR _this$[ebp]
  0289c	c6 80 44 27 00
	00 01		 mov	 BYTE PTR [eax+10052], 1

; 1091 : 	this->List[eExUB::NSGames].AntiCheatPlus			= true;

  028a3	8b 45 fc	 mov	 eax, DWORD PTR _this$[ebp]
  028a6	c6 80 46 27 00
	00 01		 mov	 BYTE PTR [eax+10054], 1

; 1092 : 	this->List[eExUB::NSGames].Rage					= true;

  028ad	8b 45 fc	 mov	 eax, DWORD PTR _this$[ebp]
  028b0	c6 80 39 27 00
	00 01		 mov	 BYTE PTR [eax+10041], 1

; 1093 : 	this->List[eExUB::NSGames].Monster				= true;

  028b7	8b 45 fc	 mov	 eax, DWORD PTR _this$[ebp]
  028ba	c6 80 4d 27 00
	00 01		 mov	 BYTE PTR [eax+10061], 1

; 1094 : 	this->List[eExUB::NSGames].PartySave				= true;

  028c1	8b 45 fc	 mov	 eax, DWORD PTR _this$[ebp]
  028c4	c6 80 50 27 00
	00 01		 mov	 BYTE PTR [eax+10064], 1

; 1095 : 	this->List[eExUB::NSGames].OfflineMode			= true;

  028cb	8b 45 fc	 mov	 eax, DWORD PTR _this$[ebp]
  028ce	c6 80 52 27 00
	00 01		 mov	 BYTE PTR [eax+10066], 1

; 1096 : 	this->List[eExUB::NSGames].bRankItem				= true;

  028d5	8b 45 fc	 mov	 eax, DWORD PTR _this$[ebp]
  028d8	c6 80 55 27 00
	00 01		 mov	 BYTE PTR [eax+10069], 1

; 1097 : 	this->List[eExUB::NSGames].MonsterAttackLife		= true;

  028df	8b 45 fc	 mov	 eax, DWORD PTR _this$[ebp]
  028e2	c6 80 54 27 00
	00 01		 mov	 BYTE PTR [eax+10068], 1

; 1098 : 	this->List[eExUB::NSGames].GrandDinamicExp		= true;

  028e9	8b 45 fc	 mov	 eax, DWORD PTR _this$[ebp]
  028ec	c6 80 4f 27 00
	00 01		 mov	 BYTE PTR [eax+10063], 1

; 1099 : 	this->List[eExUB::NSGames].RestoreOffMode		= true;

  028f3	8b 45 fc	 mov	 eax, DWORD PTR _this$[ebp]
  028f6	c6 80 56 27 00
	00 01		 mov	 BYTE PTR [eax+10070], 1

; 1100 : 	this->List[eExUB::NSGames].bTeamVsTeam2			= true;

  028fd	8b 45 fc	 mov	 eax, DWORD PTR _this$[ebp]
  02900	c6 80 58 27 00
	00 01		 mov	 BYTE PTR [eax+10072], 1

; 1101 : 	this->List[eExUB::NSGames].LoraBattle			= true;

  02907	8b 45 fc	 mov	 eax, DWORD PTR _this$[ebp]
  0290a	c6 80 4b 27 00
	00 01		 mov	 BYTE PTR [eax+10059], 1

; 1102 : 	this->List[eExUB::NSGames].ItemSmokeEffect		= true;

  02911	8b 45 fc	 mov	 eax, DWORD PTR _this$[ebp]
  02914	c6 80 4e 27 00
	00 01		 mov	 BYTE PTR [eax+10062], 1

; 1103 : 	this->List[eExUB::NSGames].PandoraEvent			= true;

  0291b	8b 45 fc	 mov	 eax, DWORD PTR _this$[ebp]
  0291e	c6 80 45 27 00
	00 01		 mov	 BYTE PTR [eax+10053], 1

; 1104 : 	this->List[eExUB::NSGames].OfflineMode			= true;

  02925	8b 45 fc	 mov	 eax, DWORD PTR _this$[ebp]
  02928	c6 80 52 27 00
	00 01		 mov	 BYTE PTR [eax+10066], 1

; 1105 : 	this->List[eExUB::NSGames].bAchievements			= true;

  0292f	8b 45 fc	 mov	 eax, DWORD PTR _this$[ebp]
  02932	c6 80 59 27 00
	00 01		 mov	 BYTE PTR [eax+10073], 1

; 1106 : 	this->List[eExUB::NSGames].AccSecurity			= true;

  02939	8b 45 fc	 mov	 eax, DWORD PTR _this$[ebp]
  0293c	c6 80 5b 27 00
	00 01		 mov	 BYTE PTR [eax+10075], 1

; 1107 : 	this->List[eExUB::NSGames].PremiumEx				= true;

  02943	8b 45 fc	 mov	 eax, DWORD PTR _this$[ebp]
  02946	c6 80 5a 27 00
	00 01		 mov	 BYTE PTR [eax+10074], 1

; 1108 : 	this->List[eExUB::NSGames].ComboCustom			= true;

  0294d	8b 45 fc	 mov	 eax, DWORD PTR _this$[ebp]
  02950	c6 80 48 27 00
	00 01		 mov	 BYTE PTR [eax+10056], 1

; 1109 : 	this->List[eExUB::NSGames].DisableMasterTree			= true;

  02957	8b 45 fc	 mov	 eax, DWORD PTR _this$[ebp]
  0295a	c6 80 51 27 00
	00 01		 mov	 BYTE PTR [eax+10065], 1
$LN5@AddList:

; 1110 : }

  02961	5f		 pop	 edi
  02962	5e		 pop	 esi
  02963	5b		 pop	 ebx
  02964	8b e5		 mov	 esp, ebp
  02966	5d		 pop	 ebp
  02967	c3		 ret	 0
?AddList@CExLicense@@QAEXXZ ENDP			; CExLicense::AddList
_TEXT	ENDS
PUBLIC	?GetDecText@CExLicense@@QAEPADPAD@Z		; CExLicense::GetDecText
PUBLIC	??_C@_03BEHNONBN@?$GA?$DPT?$AA@			; `string'
PUBLIC	??_C@_0BO@GHBLPFMO@?$CF02X?9?$CF02X?9?$CF02X?9?$CF02X?9?$CF02X?9?$CF02X?$AA@ ; `string'
PUBLIC	__$ArrayPad$
EXTRN	_memcpy:PROC
EXTRN	__imp__GetVolumeInformationA@32:PROC
EXTRN	__imp__ExitProcess@4:PROC
EXTRN	_strcmp:PROC
EXTRN	_sprintf:PROC
EXTRN	__imp__UuidCreateSequential@4:PROC
EXTRN	___security_cookie:DWORD
EXTRN	@__security_check_cookie@4:PROC
;	COMDAT ??_C@_03BEHNONBN@?$GA?$DPT?$AA@
CONST	SEGMENT
??_C@_03BEHNONBN@?$GA?$DPT?$AA@ DB '`?T', 00H		; `string'
CONST	ENDS
;	COMDAT ??_C@_0BO@GHBLPFMO@?$CF02X?9?$CF02X?9?$CF02X?9?$CF02X?9?$CF02X?9?$CF02X?$AA@
CONST	SEGMENT
??_C@_0BO@GHBLPFMO@?$CF02X?9?$CF02X?9?$CF02X?9?$CF02X?9?$CF02X?9?$CF02X?$AA@ DB '%'
	DB	'02X-%02X-%02X-%02X-%02X-%02X', 00H		; `string'
; Function compile flags: /Odtp /ZI /ZX
CONST	ENDS
;	COMDAT ?CheckLicense@CExLicense@@QAEXXZ
_TEXT	SEGMENT
_i$230794 = -72						; size = 4
_HDDKEY$230792 = -68					; size = 4
_i$230784 = -64						; size = 4
_szMac$ = -60						; size = 18
_i$230778 = -40						; size = 4
_uuid$ = -36						; size = 16
_MACData$ = -20						; size = 6
_Result$ = -9						; size = 1
_this$ = -8						; size = 4
__$ArrayPad$ = -4					; size = 4
?CheckLicense@CExLicense@@QAEXXZ PROC			; CExLicense::CheckLicense, COMDAT
; _this$ = ecx

; 1113 : {

  00000	55		 push	 ebp
  00001	8b ec		 mov	 ebp, esp
  00003	81 ec 88 00 00
	00		 sub	 esp, 136		; 00000088H
  00009	a1 00 00 00 00	 mov	 eax, DWORD PTR ___security_cookie
  0000e	33 c5		 xor	 eax, ebp
  00010	89 45 fc	 mov	 DWORD PTR __$ArrayPad$[ebp], eax
  00013	53		 push	 ebx
  00014	56		 push	 esi
  00015	57		 push	 edi
  00016	89 4d f8	 mov	 DWORD PTR _this$[ebp], ecx

; 1114 : #if(_DISABLE_LICENSE)
; 1115 : 	return;

  00019	e9 ae 01 00 00	 jmp	 $LN18@CheckLicen

; 1116 : #endif
; 1117 : #if(EXLICENSE_SELECT)
; 1118 : 	this->SelectLicense(eExUB::NSGames);
; 1119 : 	//this->SelectLicense(eExUB::eternalmu);
; 1120 : 	return;
; 1121 : #endif
; 1122 : 
; 1123 : #if(THINNAKORN_MAC)
; 1124 : 	strcpy(this->user.Login,		"AllCustom");
; 1125 : 	strcpy(this->user.Password,		"");
; 1126 : 	this->user.hwid					= 0;
; 1127 : 	this->user.mac[0]				= NULL;
; 1128 : 	this->user.Credit				= 0;
; 1129 : 	this->user.Baned					= true;
; 1130 : 	this->user.Rage					= true;
; 1131 : 	this->user.WinQuest				= true;
; 1132 : 	this->user.BloodHound				= true;
; 1133 : 	this->user.MonsterQuest			= true;
; 1134 : 	this->user.TvTEvent				= true;
; 1135 : 	this->user.GrandHero				= true;
; 1136 : 	this->user.PartySystem			= true;
; 1137 : 	this->user.Brotherhood			= true;
; 1138 : 	this->user.PartySearch			= true;
; 1139 : 	this->user.ChatLog				= true;
; 1140 : 	this->user.GM_Manager				= true;
; 1141 : 	this->user.PerosnalStoreEx		= true;
; 1142 : 	this->user.PandoraEvent			= true;
; 1143 : 	this->user.AntiCheatPlus			= true;
; 1144 : 	this->user.ComboCustom			= true;
; 1145 : 	this->user.NpcBuffer				= true;
; 1146 : 	this->user.BMQuest				= true;
; 1147 : 	this->user.LoraBattle				= true;
; 1148 : 	this->user.Smithy					= true;
; 1149 : 	this->user.Monster				= true;
; 1150 : 	this->user.ItemSmokeEffect		= true;
; 1151 : 	this->user.GrandDinamicExp		= true;
; 1152 : 	this->user.PartySave			= true;
; 1153 : 	this->user.DisableMasterTree	= true;
; 1154 : 	this->user.OfflineMode			= true;
; 1155 : 	this->user.Marriage				= true;
; 1156 : 	this->user.bRankItem			= true;
; 1157 : 	this->user.RestoreOffMode		= true;
; 1158 : 	this->user.MapQuest				= true;
; 1159 : 	this->user.bTeamVsTeam2			= true;
; 1160 : 	this->user.bAchievements		= true;
; 1161 : 	this->user.PremiumEx			= true;
; 1162 : 	this->user.AccSecurity			= true;
; 1163 : 	this->user.CraftQuestSystem		= true;
; 1164 : 	this->user.PickUpItemInfo		= true;
; 1165 : 	this->user.ReferralSystem		= true;
; 1166 : 
; 1167 : 	return;
; 1168 : #endif
; 1169 : 
; 1170 : #if(LICENSE_EVOMU)
; 1171 : 	this->ActiveUser = eExUB::Gredy;
; 1172 : 	memcpy(&this->user, &this->List[this->ActiveUser], sizeof(g_ExLicense.user));
; 1173 : 	return;
; 1174 : #endif
; 1175 : 
; 1176 : 
; 1177 : 	VMBEGIN
; 1178 : 
; 1179 : 	bool Result = false; 

  0001e	c6 45 f7 00	 mov	 BYTE PTR _Result$[ebp], 0

; 1180 : 
; 1181 : 	unsigned char MACData[6];
; 1182 : 	UUID uuid;
; 1183 : 	UuidCreateSequential(&uuid);

  00022	8d 45 dc	 lea	 eax, DWORD PTR _uuid$[ebp]
  00025	50		 push	 eax
  00026	ff 15 00 00 00
	00		 call	 DWORD PTR __imp__UuidCreateSequential@4

; 1184 : 
; 1185 : 	for(int i = 2; i < 8; i++)

  0002c	c7 45 d8 02 00
	00 00		 mov	 DWORD PTR _i$230778[ebp], 2
  00033	eb 09		 jmp	 SHORT $LN16@CheckLicen
$LN15@CheckLicen:
  00035	8b 45 d8	 mov	 eax, DWORD PTR _i$230778[ebp]
  00038	83 c0 01	 add	 eax, 1
  0003b	89 45 d8	 mov	 DWORD PTR _i$230778[ebp], eax
$LN16@CheckLicen:
  0003e	83 7d d8 08	 cmp	 DWORD PTR _i$230778[ebp], 8
  00042	7d 10		 jge	 SHORT $LN14@CheckLicen

; 1186 : 	{
; 1187 : 		MACData[i-2] = uuid.Data4[i];

  00044	8b 45 d8	 mov	 eax, DWORD PTR _i$230778[ebp]
  00047	8b 4d d8	 mov	 ecx, DWORD PTR _i$230778[ebp]
  0004a	8a 54 0d e4	 mov	 dl, BYTE PTR _uuid$[ebp+ecx+8]
  0004e	88 54 05 ea	 mov	 BYTE PTR _MACData$[ebp+eax-2], dl

; 1188 : 	}

  00052	eb e1		 jmp	 SHORT $LN15@CheckLicen
$LN14@CheckLicen:

; 1189 : 
; 1190 : 	char szMac[18];
; 1191 : 	sprintf(szMac, "%02X-%02X-%02X-%02X-%02X-%02X", MACData[0], MACData[1], MACData[2], MACData[3], MACData[4], MACData[5]);

  00054	0f b6 45 f1	 movzx	 eax, BYTE PTR _MACData$[ebp+5]
  00058	50		 push	 eax
  00059	0f b6 4d f0	 movzx	 ecx, BYTE PTR _MACData$[ebp+4]
  0005d	51		 push	 ecx
  0005e	0f b6 55 ef	 movzx	 edx, BYTE PTR _MACData$[ebp+3]
  00062	52		 push	 edx
  00063	0f b6 45 ee	 movzx	 eax, BYTE PTR _MACData$[ebp+2]
  00067	50		 push	 eax
  00068	0f b6 4d ed	 movzx	 ecx, BYTE PTR _MACData$[ebp+1]
  0006c	51		 push	 ecx
  0006d	0f b6 55 ec	 movzx	 edx, BYTE PTR _MACData$[ebp]
  00071	52		 push	 edx
  00072	68 00 00 00 00	 push	 OFFSET ??_C@_0BO@GHBLPFMO@?$CF02X?9?$CF02X?9?$CF02X?9?$CF02X?9?$CF02X?9?$CF02X?$AA@
  00077	8d 45 c4	 lea	 eax, DWORD PTR _szMac$[ebp]
  0007a	50		 push	 eax
  0007b	e8 00 00 00 00	 call	 _sprintf
  00080	83 c4 20	 add	 esp, 32			; 00000020H

; 1192 : 
; 1193 : 	for(int i = 0; i < TOTAL_CLIENT; i++)

  00083	c7 45 c0 00 00
	00 00		 mov	 DWORD PTR _i$230784[ebp], 0
  0008a	eb 09		 jmp	 SHORT $LN13@CheckLicen
$LN12@CheckLicen:
  0008c	8b 45 c0	 mov	 eax, DWORD PTR _i$230784[ebp]
  0008f	83 c0 01	 add	 eax, 1
  00092	89 45 c0	 mov	 DWORD PTR _i$230784[ebp], eax
$LN13@CheckLicen:
  00095	81 7d c0 c8 00
	00 00		 cmp	 DWORD PTR _i$230784[ebp], 200 ; 000000c8H
  0009c	7d 66		 jge	 SHORT $LN11@CheckLicen

; 1194 : 	{
; 1195 : 		if(this->List[i].mac[0] != NULL)

  0009e	8b 45 c0	 mov	 eax, DWORD PTR _i$230784[ebp]
  000a1	6b c0 78	 imul	 eax, 120		; 00000078H
  000a4	8b 4d f8	 mov	 ecx, DWORD PTR _this$[ebp]
  000a7	0f be 94 01 18
	01 00 00	 movsx	 edx, BYTE PTR [ecx+eax+280]
  000af	85 d2		 test	 edx, edx
  000b1	74 4f		 je	 SHORT $LN10@CheckLicen

; 1196 : 		{
; 1197 : 			if(!strcmp(this->List[i].mac, szMac))

  000b3	8d 45 c4	 lea	 eax, DWORD PTR _szMac$[ebp]
  000b6	50		 push	 eax
  000b7	8b 4d c0	 mov	 ecx, DWORD PTR _i$230784[ebp]
  000ba	6b c9 78	 imul	 ecx, 120		; 00000078H
  000bd	8b 55 f8	 mov	 edx, DWORD PTR _this$[ebp]
  000c0	8d 84 0a 18 01
	00 00		 lea	 eax, DWORD PTR [edx+ecx+280]
  000c7	50		 push	 eax
  000c8	e8 00 00 00 00	 call	 _strcmp
  000cd	83 c4 08	 add	 esp, 8
  000d0	85 c0		 test	 eax, eax
  000d2	75 2e		 jne	 SHORT $LN10@CheckLicen

; 1198 : 			{
; 1199 : 				if(this->List[i].Baned)

  000d4	8b 45 c0	 mov	 eax, DWORD PTR _i$230784[ebp]
  000d7	6b c0 78	 imul	 eax, 120		; 00000078H
  000da	8b 4d f8	 mov	 ecx, DWORD PTR _this$[ebp]
  000dd	0f b6 94 01 40
	01 00 00	 movzx	 edx, BYTE PTR [ecx+eax+320]
  000e5	85 d2		 test	 edx, edx
  000e7	74 08		 je	 SHORT $LN8@CheckLicen

; 1200 : 				{
; 1201 : 					ExitProcess(0);

  000e9	6a 00		 push	 0
  000eb	ff 15 00 00 00
	00		 call	 DWORD PTR __imp__ExitProcess@4
$LN8@CheckLicen:

; 1202 : 				}
; 1203 : 				this->ActiveUser = i;

  000f1	8b 45 f8	 mov	 eax, DWORD PTR _this$[ebp]
  000f4	66 8b 4d c0	 mov	 cx, WORD PTR _i$230784[ebp]
  000f8	66 89 48 02	 mov	 WORD PTR [eax+2], cx

; 1204 : 				Result = true;

  000fc	c6 45 f7 01	 mov	 BYTE PTR _Result$[ebp], 1

; 1205 : 				break;

  00100	eb 02		 jmp	 SHORT $LN11@CheckLicen
$LN10@CheckLicen:

; 1206 : 			}
; 1207 : 		}
; 1208 : 	}

  00102	eb 88		 jmp	 SHORT $LN12@CheckLicen
$LN11@CheckLicen:

; 1209 : 
; 1210 : 	if(Result == false)

  00104	0f b6 45 f7	 movzx	 eax, BYTE PTR _Result$[ebp]
  00108	85 c0		 test	 eax, eax
  0010a	0f 85 84 00 00
	00		 jne	 $LN7@CheckLicen

; 1211 : 	{
; 1212 : 		unsigned long HDDKEY;
; 1213 : 		GetVolumeInformationA(this->GetDecText(DISK_DIR),0,0,&HDDKEY,0,0,0,0); 

  00110	6a 00		 push	 0
  00112	6a 00		 push	 0
  00114	6a 00		 push	 0
  00116	6a 00		 push	 0
  00118	8d 45 bc	 lea	 eax, DWORD PTR _HDDKEY$230792[ebp]
  0011b	50		 push	 eax
  0011c	6a 00		 push	 0
  0011e	6a 00		 push	 0
  00120	68 00 00 00 00	 push	 OFFSET ??_C@_03BEHNONBN@?$GA?$DPT?$AA@
  00125	8b 4d f8	 mov	 ecx, DWORD PTR _this$[ebp]
  00128	e8 00 00 00 00	 call	 ?GetDecText@CExLicense@@QAEPADPAD@Z ; CExLicense::GetDecText
  0012d	50		 push	 eax
  0012e	ff 15 00 00 00
	00		 call	 DWORD PTR __imp__GetVolumeInformationA@32

; 1214 : 
; 1215 : 		for(int i = 0; i < TOTAL_CLIENT; i++)

  00134	c7 45 b8 00 00
	00 00		 mov	 DWORD PTR _i$230794[ebp], 0
  0013b	eb 09		 jmp	 SHORT $LN6@CheckLicen
$LN5@CheckLicen:
  0013d	8b 45 b8	 mov	 eax, DWORD PTR _i$230794[ebp]
  00140	83 c0 01	 add	 eax, 1
  00143	89 45 b8	 mov	 DWORD PTR _i$230794[ebp], eax
$LN6@CheckLicen:
  00146	81 7d b8 c8 00
	00 00		 cmp	 DWORD PTR _i$230794[ebp], 200 ; 000000c8H
  0014d	7d 45		 jge	 SHORT $LN7@CheckLicen

; 1216 : 		{
; 1217 : 			if(HDDKEY == this->List[i].hwid)

  0014f	8b 45 b8	 mov	 eax, DWORD PTR _i$230794[ebp]
  00152	6b c0 78	 imul	 eax, 120		; 00000078H
  00155	8b 4d f8	 mov	 ecx, DWORD PTR _this$[ebp]
  00158	8b 55 bc	 mov	 edx, DWORD PTR _HDDKEY$230792[ebp]
  0015b	3b 94 01 14 01
	00 00		 cmp	 edx, DWORD PTR [ecx+eax+276]
  00162	75 2e		 jne	 SHORT $LN3@CheckLicen

; 1218 : 			{
; 1219 : 				if(this->List[i].Baned)

  00164	8b 45 b8	 mov	 eax, DWORD PTR _i$230794[ebp]
  00167	6b c0 78	 imul	 eax, 120		; 00000078H
  0016a	8b 4d f8	 mov	 ecx, DWORD PTR _this$[ebp]
  0016d	0f b6 94 01 40
	01 00 00	 movzx	 edx, BYTE PTR [ecx+eax+320]
  00175	85 d2		 test	 edx, edx
  00177	74 08		 je	 SHORT $LN2@CheckLicen

; 1220 : 				{
; 1221 : 					ExitProcess(0);

  00179	6a 00		 push	 0
  0017b	ff 15 00 00 00
	00		 call	 DWORD PTR __imp__ExitProcess@4
$LN2@CheckLicen:

; 1222 : 				}
; 1223 : 				this->ActiveUser = i;

  00181	8b 45 f8	 mov	 eax, DWORD PTR _this$[ebp]
  00184	66 8b 4d b8	 mov	 cx, WORD PTR _i$230794[ebp]
  00188	66 89 48 02	 mov	 WORD PTR [eax+2], cx

; 1224 : 				Result = true;

  0018c	c6 45 f7 01	 mov	 BYTE PTR _Result$[ebp], 1

; 1225 : 				break;

  00190	eb 02		 jmp	 SHORT $LN7@CheckLicen
$LN3@CheckLicen:

; 1226 : 			}
; 1227 : 		}

  00192	eb a9		 jmp	 SHORT $LN5@CheckLicen
$LN7@CheckLicen:

; 1228 : 	}
; 1229 : 
; 1230 : 	if(!Result)

  00194	0f b6 45 f7	 movzx	 eax, BYTE PTR _Result$[ebp]
  00198	85 c0		 test	 eax, eax
  0019a	75 0a		 jne	 SHORT $LN1@CheckLicen

; 1231 : 	{
; 1232 : 		ExitProcess(0);

  0019c	6a 00		 push	 0
  0019e	ff 15 00 00 00
	00		 call	 DWORD PTR __imp__ExitProcess@4

; 1233 : 		return;

  001a4	eb 26		 jmp	 SHORT $LN18@CheckLicen
$LN1@CheckLicen:

; 1234 : 	}
; 1235 : 
; 1236 : 	memcpy(&this->user, &this->List[this->ActiveUser], sizeof(g_ExLicense.user));

  001a6	6a 78		 push	 120			; 00000078H
  001a8	8b 45 f8	 mov	 eax, DWORD PTR _this$[ebp]
  001ab	0f bf 48 02	 movsx	 ecx, WORD PTR [eax+2]
  001af	6b c9 78	 imul	 ecx, 120		; 00000078H
  001b2	8b 55 f8	 mov	 edx, DWORD PTR _this$[ebp]
  001b5	8d 84 0a f0 00
	00 00		 lea	 eax, DWORD PTR [edx+ecx+240]
  001bc	50		 push	 eax
  001bd	8b 4d f8	 mov	 ecx, DWORD PTR _this$[ebp]
  001c0	83 c1 78	 add	 ecx, 120		; 00000078H
  001c3	51		 push	 ecx
  001c4	e8 00 00 00 00	 call	 _memcpy
  001c9	83 c4 0c	 add	 esp, 12			; 0000000cH
$LN18@CheckLicen:

; 1237 : 	VMEND
; 1238 : }

  001cc	5f		 pop	 edi
  001cd	5e		 pop	 esi
  001ce	5b		 pop	 ebx
  001cf	8b 4d fc	 mov	 ecx, DWORD PTR __$ArrayPad$[ebp]
  001d2	33 cd		 xor	 ecx, ebp
  001d4	e8 00 00 00 00	 call	 @__security_check_cookie@4
  001d9	8b e5		 mov	 esp, ebp
  001db	5d		 pop	 ebp
  001dc	c3		 ret	 0
?CheckLicense@CExLicense@@QAEXXZ ENDP			; CExLicense::CheckLicense
_TEXT	ENDS
PUBLIC	?CheckUser@CExLicense@@QAE_NH@Z			; CExLicense::CheckUser
; Function compile flags: /Odtp /ZI /ZX
;	COMDAT ?CheckUser@CExLicense@@QAE_NH@Z
_TEXT	SEGMENT
_this$ = -4						; size = 4
_NeedUser$ = 8						; size = 4
?CheckUser@CExLicense@@QAE_NH@Z PROC			; CExLicense::CheckUser, COMDAT
; _this$ = ecx

; 1242 : {

  00000	55		 push	 ebp
  00001	8b ec		 mov	 ebp, esp
  00003	83 ec 44	 sub	 esp, 68			; 00000044H
  00006	53		 push	 ebx
  00007	56		 push	 esi
  00008	57		 push	 edi
  00009	89 4d fc	 mov	 DWORD PTR _this$[ebp], ecx

; 1243 : 	if(this->ActiveUser == NeedUser)

  0000c	8b 45 fc	 mov	 eax, DWORD PTR _this$[ebp]
  0000f	0f bf 48 02	 movsx	 ecx, WORD PTR [eax+2]
  00013	3b 4d 08	 cmp	 ecx, DWORD PTR _NeedUser$[ebp]
  00016	75 04		 jne	 SHORT $LN1@CheckUser

; 1244 : 	{
; 1245 : 		return true;

  00018	b0 01		 mov	 al, 1
  0001a	eb 02		 jmp	 SHORT $LN2@CheckUser
$LN1@CheckUser:

; 1246 : 	}
; 1247 : 	return false;

  0001c	32 c0		 xor	 al, al
$LN2@CheckUser:

; 1248 : }

  0001e	5f		 pop	 edi
  0001f	5e		 pop	 esi
  00020	5b		 pop	 ebx
  00021	8b e5		 mov	 esp, ebp
  00023	5d		 pop	 ebp
  00024	c2 04 00	 ret	 4
?CheckUser@CExLicense@@QAE_NH@Z ENDP			; CExLicense::CheckUser
_TEXT	ENDS
PUBLIC	?set@PBMSG_HEAD2@@QAEXPAEEEE@Z			; PBMSG_HEAD2::set
PUBLIC	??0PMSG_LICENSE_DATA@@QAE@XZ			; PMSG_LICENSE_DATA::PMSG_LICENSE_DATA
PUBLIC	__$ArrayPad$
PUBLIC	?GCLicenseUser@CExLicense@@QAEXH@Z		; CExLicense::GCLicenseUser
EXTRN	?GC_SettingsSend@CUserConfig@@QAEXH@Z:PROC	; CUserConfig::GC_SettingsSend
EXTRN	?g_UserConfig@@3VCUserConfig@@A:BYTE		; g_UserConfig
EXTRN	?DataSend@@YAHHPAEK@Z:PROC			; DataSend
EXTRN	?g_PersonalShopEx@@3VPersonalShopEx@@A:BYTE	; g_PersonalShopEx
EXTRN	?g_MaxPartyMember@@3HA:DWORD			; g_MaxPartyMember
; Function compile flags: /Odtp /ZI /ZX
;	COMDAT ?GCLicenseUser@CExLicense@@QAEXH@Z
_TEXT	SEGMENT
_rSend$ = -144						; size = 136
_this$ = -8						; size = 4
__$ArrayPad$ = -4					; size = 4
_aIndex$ = 8						; size = 4
?GCLicenseUser@CExLicense@@QAEXH@Z PROC			; CExLicense::GCLicenseUser, COMDAT
; _this$ = ecx

; 1251 : {

  00000	55		 push	 ebp
  00001	8b ec		 mov	 ebp, esp
  00003	81 ec d0 00 00
	00		 sub	 esp, 208		; 000000d0H
  00009	a1 00 00 00 00	 mov	 eax, DWORD PTR ___security_cookie
  0000e	33 c5		 xor	 eax, ebp
  00010	89 45 fc	 mov	 DWORD PTR __$ArrayPad$[ebp], eax
  00013	53		 push	 ebx
  00014	56		 push	 esi
  00015	57		 push	 edi
  00016	89 4d f8	 mov	 DWORD PTR _this$[ebp], ecx

; 1252 : 	VMBEGIN
; 1253 : 	PMSG_LICENSE_DATA rSend;

  00019	8d 8d 70 ff ff
	ff		 lea	 ecx, DWORD PTR _rSend$[ebp]
  0001f	e8 00 00 00 00	 call	 ??0PMSG_LICENSE_DATA@@QAE@XZ

; 1254 : 	rSend.h.set((LPBYTE)&rSend, 0xFB, 17, sizeof(rSend));

  00024	68 88 00 00 00	 push	 136			; 00000088H
  00029	6a 11		 push	 17			; 00000011H
  0002b	68 fb 00 00 00	 push	 251			; 000000fbH
  00030	8d 85 70 ff ff
	ff		 lea	 eax, DWORD PTR _rSend$[ebp]
  00036	50		 push	 eax
  00037	8d 8d 70 ff ff
	ff		 lea	 ecx, DWORD PTR _rSend$[ebp]
  0003d	e8 00 00 00 00	 call	 ?set@PBMSG_HEAD2@@QAEXPAEEEE@Z ; PBMSG_HEAD2::set

; 1255 : 	rSend.LicenseUser = this->ActiveUser;

  00042	8b 45 f8	 mov	 eax, DWORD PTR _this$[ebp]
  00045	66 8b 48 02	 mov	 cx, WORD PTR [eax+2]
  00049	66 89 8d 74 ff
	ff ff		 mov	 WORD PTR _rSend$[ebp+4], cx

; 1256 : 	memcpy(&rSend.base, &this->user, sizeof(g_ExLicense.user));

  00050	6a 78		 push	 120			; 00000078H
  00052	8b 45 f8	 mov	 eax, DWORD PTR _this$[ebp]
  00055	83 c0 78	 add	 eax, 120		; 00000078H
  00058	50		 push	 eax
  00059	8d 8d 78 ff ff
	ff		 lea	 ecx, DWORD PTR _rSend$[ebp+8]
  0005f	51		 push	 ecx
  00060	e8 00 00 00 00	 call	 _memcpy
  00065	83 c4 0c	 add	 esp, 12			; 0000000cH

; 1257 : 	rSend.config.MaxPartyUser = g_MaxPartyMember;

  00068	a0 00 00 00 00	 mov	 al, BYTE PTR ?g_MaxPartyMember@@3HA
  0006d	88 45 f0	 mov	 BYTE PTR _rSend$[ebp+128], al

; 1258 : 	rSend.config.PersonalEnable = g_PersonalShopEx.Enable;

  00070	a0 00 00 00 00	 mov	 al, BYTE PTR ?g_PersonalShopEx@@3VPersonalShopEx@@A
  00075	88 45 f1	 mov	 BYTE PTR _rSend$[ebp+129], al

; 1259 : 	rSend.config.PersonalBonus = g_PersonalShopEx.BonusPrice;

  00078	a0 14 00 00 00	 mov	 al, BYTE PTR ?g_PersonalShopEx@@3VPersonalShopEx@@A+20
  0007d	88 45 f2	 mov	 BYTE PTR _rSend$[ebp+130], al

; 1260 : 	rSend.config.PersonalCredit = g_PersonalShopEx.CreditPrice;

  00080	a0 18 00 00 00	 mov	 al, BYTE PTR ?g_PersonalShopEx@@3VPersonalShopEx@@A+24
  00085	88 45 f4	 mov	 BYTE PTR _rSend$[ebp+132], al

; 1261 : 	DataSend(aIndex,(LPBYTE)&rSend,sizeof(rSend));

  00088	68 88 00 00 00	 push	 136			; 00000088H
  0008d	8d 85 70 ff ff
	ff		 lea	 eax, DWORD PTR _rSend$[ebp]
  00093	50		 push	 eax
  00094	8b 4d 08	 mov	 ecx, DWORD PTR _aIndex$[ebp]
  00097	51		 push	 ecx
  00098	e8 00 00 00 00	 call	 ?DataSend@@YAHHPAEK@Z	; DataSend
  0009d	83 c4 0c	 add	 esp, 12			; 0000000cH

; 1262 : 	g_UserConfig.GC_SettingsSend(aIndex);

  000a0	8b 45 08	 mov	 eax, DWORD PTR _aIndex$[ebp]
  000a3	50		 push	 eax
  000a4	b9 00 00 00 00	 mov	 ecx, OFFSET ?g_UserConfig@@3VCUserConfig@@A ; g_UserConfig
  000a9	e8 00 00 00 00	 call	 ?GC_SettingsSend@CUserConfig@@QAEXH@Z ; CUserConfig::GC_SettingsSend

; 1263 : 	VMEND
; 1264 : }

  000ae	5f		 pop	 edi
  000af	5e		 pop	 esi
  000b0	5b		 pop	 ebx
  000b1	8b 4d fc	 mov	 ecx, DWORD PTR __$ArrayPad$[ebp]
  000b4	33 cd		 xor	 ecx, ebp
  000b6	e8 00 00 00 00	 call	 @__security_check_cookie@4
  000bb	8b e5		 mov	 esp, ebp
  000bd	5d		 pop	 ebp
  000be	c2 04 00	 ret	 4
?GCLicenseUser@CExLicense@@QAEXH@Z ENDP			; CExLicense::GCLicenseUser
; Function compile flags: /Odtp /ZI /ZX
; File d:\projects\exteam6.3\source\gameserver\include\prodef.h
_TEXT	ENDS
;	COMDAT ?set@PBMSG_HEAD2@@QAEXPAEEEE@Z
_TEXT	SEGMENT
_this$ = -4						; size = 4
_lpBuf$ = 8						; size = 4
_head$ = 12						; size = 1
_sub$ = 16						; size = 1
_size$ = 20						; size = 1
?set@PBMSG_HEAD2@@QAEXPAEEEE@Z PROC			; PBMSG_HEAD2::set, COMDAT
; _this$ = ecx

; 104  : 	{

  00000	55		 push	 ebp
  00001	8b ec		 mov	 ebp, esp
  00003	83 ec 44	 sub	 esp, 68			; 00000044H
  00006	53		 push	 ebx
  00007	56		 push	 esi
  00008	57		 push	 edi
  00009	89 4d fc	 mov	 DWORD PTR _this$[ebp], ecx

; 105  : 		lpBuf[0] = 0xC1;

  0000c	8b 45 08	 mov	 eax, DWORD PTR _lpBuf$[ebp]
  0000f	c6 00 c1	 mov	 BYTE PTR [eax], 193	; 000000c1H

; 106  : 		lpBuf[1] = size;

  00012	8b 45 08	 mov	 eax, DWORD PTR _lpBuf$[ebp]
  00015	8a 4d 14	 mov	 cl, BYTE PTR _size$[ebp]
  00018	88 48 01	 mov	 BYTE PTR [eax+1], cl

; 107  : 		lpBuf[2] = head;

  0001b	8b 45 08	 mov	 eax, DWORD PTR _lpBuf$[ebp]
  0001e	8a 4d 0c	 mov	 cl, BYTE PTR _head$[ebp]
  00021	88 48 02	 mov	 BYTE PTR [eax+2], cl

; 108  : 		lpBuf[3] = sub;

  00024	8b 45 08	 mov	 eax, DWORD PTR _lpBuf$[ebp]
  00027	8a 4d 10	 mov	 cl, BYTE PTR _sub$[ebp]
  0002a	88 48 03	 mov	 BYTE PTR [eax+3], cl

; 109  : 	};

  0002d	5f		 pop	 edi
  0002e	5e		 pop	 esi
  0002f	5b		 pop	 ebx
  00030	8b e5		 mov	 esp, ebp
  00032	5d		 pop	 ebp
  00033	c2 10 00	 ret	 16			; 00000010H
?set@PBMSG_HEAD2@@QAEXPAEEEE@Z ENDP			; PBMSG_HEAD2::set
_TEXT	ENDS
PUBLIC	??0CUSTOM_CONFIG@@QAE@XZ			; CUSTOM_CONFIG::CUSTOM_CONFIG
; Function compile flags: /Odtp /ZI /ZX
;	COMDAT ??0PMSG_LICENSE_DATA@@QAE@XZ
_TEXT	SEGMENT
_this$ = -4						; size = 4
??0PMSG_LICENSE_DATA@@QAE@XZ PROC			; PMSG_LICENSE_DATA::PMSG_LICENSE_DATA, COMDAT
; _this$ = ecx
  00000	55		 push	 ebp
  00001	8b ec		 mov	 ebp, esp
  00003	83 ec 44	 sub	 esp, 68			; 00000044H
  00006	53		 push	 ebx
  00007	56		 push	 esi
  00008	57		 push	 edi
  00009	89 4d fc	 mov	 DWORD PTR _this$[ebp], ecx
  0000c	8b 4d fc	 mov	 ecx, DWORD PTR _this$[ebp]
  0000f	83 c1 08	 add	 ecx, 8
  00012	e8 00 00 00 00	 call	 ??0LICENSE_DATA@@QAE@XZ	; LICENSE_DATA::LICENSE_DATA
  00017	8b 4d fc	 mov	 ecx, DWORD PTR _this$[ebp]
  0001a	81 c1 80 00 00
	00		 add	 ecx, 128		; 00000080H
  00020	e8 00 00 00 00	 call	 ??0CUSTOM_CONFIG@@QAE@XZ ; CUSTOM_CONFIG::CUSTOM_CONFIG
  00025	8b 45 fc	 mov	 eax, DWORD PTR _this$[ebp]
  00028	5f		 pop	 edi
  00029	5e		 pop	 esi
  0002a	5b		 pop	 ebx
  0002b	8b e5		 mov	 esp, ebp
  0002d	5d		 pop	 ebp
  0002e	c3		 ret	 0
??0PMSG_LICENSE_DATA@@QAE@XZ ENDP			; PMSG_LICENSE_DATA::PMSG_LICENSE_DATA
; Function compile flags: /Odtp /ZI /ZX
; File d:\projects\exteam6.3\source\gameserver\gameserver\exlicense.h
_TEXT	ENDS
;	COMDAT ??0CUSTOM_CONFIG@@QAE@XZ
_TEXT	SEGMENT
_this$ = -4						; size = 4
??0CUSTOM_CONFIG@@QAE@XZ PROC				; CUSTOM_CONFIG::CUSTOM_CONFIG, COMDAT
; _this$ = ecx

; 211  : 	CUSTOM_CONFIG()

  00000	55		 push	 ebp
  00001	8b ec		 mov	 ebp, esp
  00003	83 ec 44	 sub	 esp, 68			; 00000044H
  00006	53		 push	 ebx
  00007	56		 push	 esi
  00008	57		 push	 edi
  00009	89 4d fc	 mov	 DWORD PTR _this$[ebp], ecx

; 212  : 	{
; 213  : 		this->MaxPartyUser = 5;

  0000c	8b 45 fc	 mov	 eax, DWORD PTR _this$[ebp]
  0000f	c6 00 05	 mov	 BYTE PTR [eax], 5

; 214  : 		this->PersonalEnable = false;

  00012	8b 45 fc	 mov	 eax, DWORD PTR _this$[ebp]
  00015	c6 40 01 00	 mov	 BYTE PTR [eax+1], 0

; 215  : 		this->PersonalBonus = false;

  00019	8b 45 fc	 mov	 eax, DWORD PTR _this$[ebp]
  0001c	c6 40 02 00	 mov	 BYTE PTR [eax+2], 0

; 216  : 		this->Gens = false;

  00020	8b 45 fc	 mov	 eax, DWORD PTR _this$[ebp]
  00023	c6 40 03 00	 mov	 BYTE PTR [eax+3], 0

; 217  : 		this->PersonalCredit = false;

  00027	8b 45 fc	 mov	 eax, DWORD PTR _this$[ebp]
  0002a	c6 40 04 00	 mov	 BYTE PTR [eax+4], 0

; 218  : 	}

  0002e	8b 45 fc	 mov	 eax, DWORD PTR _this$[ebp]
  00031	5f		 pop	 edi
  00032	5e		 pop	 esi
  00033	5b		 pop	 ebx
  00034	8b e5		 mov	 esp, ebp
  00036	5d		 pop	 ebp
  00037	c3		 ret	 0
??0CUSTOM_CONFIG@@QAE@XZ ENDP				; CUSTOM_CONFIG::CUSTOM_CONFIG
_TEXT	ENDS
PUBLIC	__$ArrayPad$
PUBLIC	?GDLicenseUser@CExLicense@@QAEXXZ		; CExLicense::GDLicenseUser
EXTRN	?Send@DBSockMng@@QAEHPADH@Z:PROC		; DBSockMng::Send
EXTRN	?cDBSMng@@3VDBSockMng@@A:BYTE			; cDBSMng
EXTRN	?gGENS@@3HA:DWORD				; gGENS
; Function compile flags: /Odtp /ZI /ZX
; File d:\projects\exteam6.3\source\gameserver\gameserver\exlicense.cpp
;	COMDAT ?GDLicenseUser@CExLicense@@QAEXXZ
_TEXT	SEGMENT
_rSend$ = -144						; size = 136
_this$ = -8						; size = 4
__$ArrayPad$ = -4					; size = 4
?GDLicenseUser@CExLicense@@QAEXXZ PROC			; CExLicense::GDLicenseUser, COMDAT
; _this$ = ecx

; 1268 : {

  00000	55		 push	 ebp
  00001	8b ec		 mov	 ebp, esp
  00003	81 ec d0 00 00
	00		 sub	 esp, 208		; 000000d0H
  00009	a1 00 00 00 00	 mov	 eax, DWORD PTR ___security_cookie
  0000e	33 c5		 xor	 eax, ebp
  00010	89 45 fc	 mov	 DWORD PTR __$ArrayPad$[ebp], eax
  00013	53		 push	 ebx
  00014	56		 push	 esi
  00015	57		 push	 edi
  00016	89 4d f8	 mov	 DWORD PTR _this$[ebp], ecx

; 1269 : 	VMBEGIN
; 1270 : 	PMSG_LICENSE_DATA rSend;

  00019	8d 8d 70 ff ff
	ff		 lea	 ecx, DWORD PTR _rSend$[ebp]
  0001f	e8 00 00 00 00	 call	 ??0PMSG_LICENSE_DATA@@QAE@XZ

; 1271 : 	rSend.h.set((LPBYTE)&rSend, 0xE3, 0x00, sizeof(rSend));

  00024	68 88 00 00 00	 push	 136			; 00000088H
  00029	6a 00		 push	 0
  0002b	68 e3 00 00 00	 push	 227			; 000000e3H
  00030	8d 85 70 ff ff
	ff		 lea	 eax, DWORD PTR _rSend$[ebp]
  00036	50		 push	 eax
  00037	8d 8d 70 ff ff
	ff		 lea	 ecx, DWORD PTR _rSend$[ebp]
  0003d	e8 00 00 00 00	 call	 ?set@PBMSG_HEAD2@@QAEXPAEEEE@Z ; PBMSG_HEAD2::set

; 1272 : 	rSend.LicenseUser = this->ActiveUser;

  00042	8b 45 f8	 mov	 eax, DWORD PTR _this$[ebp]
  00045	66 8b 48 02	 mov	 cx, WORD PTR [eax+2]
  00049	66 89 8d 74 ff
	ff ff		 mov	 WORD PTR _rSend$[ebp+4], cx

; 1273 : 	rSend.base = this->user;

  00050	8b 75 f8	 mov	 esi, DWORD PTR _this$[ebp]
  00053	83 c6 78	 add	 esi, 120		; 00000078H
  00056	b9 1e 00 00 00	 mov	 ecx, 30			; 0000001eH
  0005b	8d bd 78 ff ff
	ff		 lea	 edi, DWORD PTR _rSend$[ebp+8]
  00061	f3 a5		 rep movsd

; 1274 : 	rSend.config.Gens = gGENS;

  00063	83 3d 00 00 00
	00 00		 cmp	 DWORD PTR ?gGENS@@3HA, 0 ; gGENS
  0006a	0f 95 c0	 setne	 al
  0006d	88 45 f3	 mov	 BYTE PTR _rSend$[ebp+131], al

; 1275 : 	cDBSMng.Send((char*)&rSend, sizeof(rSend));

  00070	68 88 00 00 00	 push	 136			; 00000088H
  00075	8d 85 70 ff ff
	ff		 lea	 eax, DWORD PTR _rSend$[ebp]
  0007b	50		 push	 eax
  0007c	b9 00 00 00 00	 mov	 ecx, OFFSET ?cDBSMng@@3VDBSockMng@@A ; cDBSMng
  00081	e8 00 00 00 00	 call	 ?Send@DBSockMng@@QAEHPADH@Z ; DBSockMng::Send

; 1276 : 	VMEND
; 1277 : }

  00086	5f		 pop	 edi
  00087	5e		 pop	 esi
  00088	5b		 pop	 ebx
  00089	8b 4d fc	 mov	 ecx, DWORD PTR __$ArrayPad$[ebp]
  0008c	33 cd		 xor	 ecx, ebp
  0008e	e8 00 00 00 00	 call	 @__security_check_cookie@4
  00093	8b e5		 mov	 esp, ebp
  00095	5d		 pop	 ebp
  00096	c3		 ret	 0
?GDLicenseUser@CExLicense@@QAEXXZ ENDP			; CExLicense::GDLicenseUser
_TEXT	ENDS
EXTRN	??_U@YAPAXI@Z:PROC				; operator new[]
EXTRN	_strlen:PROC
; Function compile flags: /Odtp /ZI /ZX
;	COMDAT ?GetDecText@CExLicense@@QAEPADPAD@Z
_TEXT	SEGMENT
$T231089 = -84						; size = 4
_i$230829 = -16						; size = 4
_Line$ = -12						; size = 4
_len$ = -8						; size = 4
_this$ = -4						; size = 4
_EncodeChar$ = 8					; size = 4
?GetDecText@CExLicense@@QAEPADPAD@Z PROC		; CExLicense::GetDecText, COMDAT
; _this$ = ecx

; 1280 : {

  00000	55		 push	 ebp
  00001	8b ec		 mov	 ebp, esp
  00003	83 ec 54	 sub	 esp, 84			; 00000054H
  00006	53		 push	 ebx
  00007	56		 push	 esi
  00008	57		 push	 edi
  00009	89 4d fc	 mov	 DWORD PTR _this$[ebp], ecx

; 1281 : 	int len = strlen(EncodeChar);	

  0000c	8b 45 08	 mov	 eax, DWORD PTR _EncodeChar$[ebp]
  0000f	50		 push	 eax
  00010	e8 00 00 00 00	 call	 _strlen
  00015	83 c4 04	 add	 esp, 4
  00018	89 45 f8	 mov	 DWORD PTR _len$[ebp], eax

; 1282 : 	char* Line = new char[len+1];

  0001b	8b 45 f8	 mov	 eax, DWORD PTR _len$[ebp]
  0001e	83 c0 01	 add	 eax, 1
  00021	50		 push	 eax
  00022	e8 00 00 00 00	 call	 ??_U@YAPAXI@Z		; operator new[]
  00027	83 c4 04	 add	 esp, 4
  0002a	89 45 ac	 mov	 DWORD PTR $T231089[ebp], eax
  0002d	8b 4d ac	 mov	 ecx, DWORD PTR $T231089[ebp]
  00030	89 4d f4	 mov	 DWORD PTR _Line$[ebp], ecx

; 1283 : 	for(int i = 0; i < len; i++)

  00033	c7 45 f0 00 00
	00 00		 mov	 DWORD PTR _i$230829[ebp], 0
  0003a	eb 09		 jmp	 SHORT $LN3@GetDecText
$LN2@GetDecText:
  0003c	8b 45 f0	 mov	 eax, DWORD PTR _i$230829[ebp]
  0003f	83 c0 01	 add	 eax, 1
  00042	89 45 f0	 mov	 DWORD PTR _i$230829[ebp], eax
$LN3@GetDecText:
  00045	8b 45 f0	 mov	 eax, DWORD PTR _i$230829[ebp]
  00048	3b 45 f8	 cmp	 eax, DWORD PTR _len$[ebp]
  0004b	7d 28		 jge	 SHORT $LN1@GetDecText

; 1284 : 	{
; 1285 : 		Line[i] = char(EncodeChar[i] ^ this->TextXoR[i % 3]);

  0004d	8b 45 08	 mov	 eax, DWORD PTR _EncodeChar$[ebp]
  00050	03 45 f0	 add	 eax, DWORD PTR _i$230829[ebp]
  00053	0f be 08	 movsx	 ecx, BYTE PTR [eax]
  00056	8b 45 f0	 mov	 eax, DWORD PTR _i$230829[ebp]
  00059	99		 cdq
  0005a	be 03 00 00 00	 mov	 esi, 3
  0005f	f7 fe		 idiv	 esi
  00061	8b 45 fc	 mov	 eax, DWORD PTR _this$[ebp]
  00064	0f b6 54 10 72	 movzx	 edx, BYTE PTR [eax+edx+114]
  00069	33 ca		 xor	 ecx, edx
  0006b	8b 45 f4	 mov	 eax, DWORD PTR _Line$[ebp]
  0006e	03 45 f0	 add	 eax, DWORD PTR _i$230829[ebp]
  00071	88 08		 mov	 BYTE PTR [eax], cl

; 1286 : 	}

  00073	eb c7		 jmp	 SHORT $LN2@GetDecText
$LN1@GetDecText:

; 1287 : 	Line[len] = 0;

  00075	8b 45 f4	 mov	 eax, DWORD PTR _Line$[ebp]
  00078	03 45 f8	 add	 eax, DWORD PTR _len$[ebp]
  0007b	c6 00 00	 mov	 BYTE PTR [eax], 0

; 1288 : 	return Line;

  0007e	8b 45 f4	 mov	 eax, DWORD PTR _Line$[ebp]

; 1289 : }

  00081	5f		 pop	 edi
  00082	5e		 pop	 esi
  00083	5b		 pop	 ebx
  00084	8b e5		 mov	 esp, ebp
  00086	5d		 pop	 ebp
  00087	c2 04 00	 ret	 4
?GetDecText@CExLicense@@QAEPADPAD@Z ENDP		; CExLicense::GetDecText
_TEXT	ENDS
PUBLIC	?SelectLicense@CExLicense@@QAEXH@Z		; CExLicense::SelectLicense
; Function compile flags: /Odtp /ZI /ZX
;	COMDAT ?SelectLicense@CExLicense@@QAEXH@Z
_TEXT	SEGMENT
_this$ = -4						; size = 4
_UserID$ = 8						; size = 4
?SelectLicense@CExLicense@@QAEXH@Z PROC			; CExLicense::SelectLicense, COMDAT
; _this$ = ecx

; 1292 : {

  00000	55		 push	 ebp
  00001	8b ec		 mov	 ebp, esp
  00003	83 ec 44	 sub	 esp, 68			; 00000044H
  00006	53		 push	 ebx
  00007	56		 push	 esi
  00008	57		 push	 edi
  00009	89 4d fc	 mov	 DWORD PTR _this$[ebp], ecx

; 1293 : 	this->ActiveUser = UserID;

  0000c	8b 45 fc	 mov	 eax, DWORD PTR _this$[ebp]
  0000f	66 8b 4d 08	 mov	 cx, WORD PTR _UserID$[ebp]
  00013	66 89 48 02	 mov	 WORD PTR [eax+2], cx

; 1294 : 	memcpy(&this->user, &this->List[UserID], sizeof(this->user));

  00017	6a 78		 push	 120			; 00000078H
  00019	8b 45 08	 mov	 eax, DWORD PTR _UserID$[ebp]
  0001c	6b c0 78	 imul	 eax, 120		; 00000078H
  0001f	8b 4d fc	 mov	 ecx, DWORD PTR _this$[ebp]
  00022	8d 94 01 f0 00
	00 00		 lea	 edx, DWORD PTR [ecx+eax+240]
  00029	52		 push	 edx
  0002a	8b 45 fc	 mov	 eax, DWORD PTR _this$[ebp]
  0002d	83 c0 78	 add	 eax, 120		; 00000078H
  00030	50		 push	 eax
  00031	e8 00 00 00 00	 call	 _memcpy
  00036	83 c4 0c	 add	 esp, 12			; 0000000cH

; 1295 : 	return;
; 1296 : }

  00039	5f		 pop	 edi
  0003a	5e		 pop	 esi
  0003b	5b		 pop	 ebx
  0003c	8b e5		 mov	 esp, ebp
  0003e	5d		 pop	 ebp
  0003f	c2 04 00	 ret	 4
?SelectLicense@CExLicense@@QAEXH@Z ENDP			; CExLicense::SelectLicense
_TEXT	ENDS
PUBLIC	??_C@_07NBCGADJA@Unknown?$AA@			; `string'
PUBLIC	?GetLicenseName@CExLicense@@QAEPADXZ		; CExLicense::GetLicenseName
;	COMDAT ??_C@_07NBCGADJA@Unknown?$AA@
CONST	SEGMENT
??_C@_07NBCGADJA@Unknown?$AA@ DB 'Unknown', 00H		; `string'
; Function compile flags: /Odtp /ZI /ZX
CONST	ENDS
;	COMDAT ?GetLicenseName@CExLicense@@QAEPADXZ
_TEXT	SEGMENT
_this$ = -4						; size = 4
?GetLicenseName@CExLicense@@QAEPADXZ PROC		; CExLicense::GetLicenseName, COMDAT
; _this$ = ecx

; 1299 : {

  00000	55		 push	 ebp
  00001	8b ec		 mov	 ebp, esp
  00003	83 ec 44	 sub	 esp, 68			; 00000044H
  00006	53		 push	 ebx
  00007	56		 push	 esi
  00008	57		 push	 edi
  00009	89 4d fc	 mov	 DWORD PTR _this$[ebp], ecx

; 1300 : 	if(this->ActiveUser == -1)

  0000c	8b 45 fc	 mov	 eax, DWORD PTR _this$[ebp]
  0000f	0f bf 48 02	 movsx	 ecx, WORD PTR [eax+2]
  00013	83 f9 ff	 cmp	 ecx, -1
  00016	75 07		 jne	 SHORT $LN1@GetLicense

; 1301 : 	{
; 1302 : 		return "Unknown";

  00018	b8 00 00 00 00	 mov	 eax, OFFSET ??_C@_07NBCGADJA@Unknown?$AA@
  0001d	eb 06		 jmp	 SHORT $LN2@GetLicense
$LN1@GetLicense:

; 1303 : 	}
; 1304 : 
; 1305 : 	return this->user.Login;

  0001f	8b 45 fc	 mov	 eax, DWORD PTR _this$[ebp]
  00022	83 c0 78	 add	 eax, 120		; 00000078H
$LN2@GetLicense:

; 1306 : }

  00025	5f		 pop	 edi
  00026	5e		 pop	 esi
  00027	5b		 pop	 ebx
  00028	8b e5		 mov	 esp, ebp
  0002a	5d		 pop	 ebp
  0002b	c3		 ret	 0
?GetLicenseName@CExLicense@@QAEPADXZ ENDP		; CExLicense::GetLicenseName
_TEXT	ENDS
EXTRN	_atexit:PROC
; Function compile flags: /Odtp /ZI /ZX
;	COMDAT ??__Eg_ExLicense@@YAXXZ
text$yc	SEGMENT
??__Eg_ExLicense@@YAXXZ PROC				; `dynamic initializer for 'g_ExLicense'', COMDAT

; 13   : CExLicense g_ExLicense;

  00000	55		 push	 ebp
  00001	8b ec		 mov	 ebp, esp
  00003	83 ec 40	 sub	 esp, 64			; 00000040H
  00006	53		 push	 ebx
  00007	56		 push	 esi
  00008	57		 push	 edi
  00009	b9 00 00 00 00	 mov	 ecx, OFFSET ?g_ExLicense@@3VCExLicense@@A ; g_ExLicense
  0000e	e8 00 00 00 00	 call	 ??0CExLicense@@QAE@XZ	; CExLicense::CExLicense
  00013	68 00 00 00 00	 push	 OFFSET ??__Fg_ExLicense@@YAXXZ ; `dynamic atexit destructor for 'g_ExLicense''
  00018	e8 00 00 00 00	 call	 _atexit
  0001d	83 c4 04	 add	 esp, 4
  00020	5f		 pop	 edi
  00021	5e		 pop	 esi
  00022	5b		 pop	 ebx
  00023	8b e5		 mov	 esp, ebp
  00025	5d		 pop	 ebp
  00026	c3		 ret	 0
??__Eg_ExLicense@@YAXXZ ENDP				; `dynamic initializer for 'g_ExLicense''
; Function compile flags: /Odtp /ZI /ZX
text$yc	ENDS
;	COMDAT ??__Fg_ExLicense@@YAXXZ
text$yd	SEGMENT
??__Fg_ExLicense@@YAXXZ PROC				; `dynamic atexit destructor for 'g_ExLicense'', COMDAT
  00000	55		 push	 ebp
  00001	8b ec		 mov	 ebp, esp
  00003	83 ec 40	 sub	 esp, 64			; 00000040H
  00006	53		 push	 ebx
  00007	56		 push	 esi
  00008	57		 push	 edi
