; Listing generated by Microsoft (R) Optimizing Compiler Version 16.00.40219.01 

	TITLE	D:\Projects\ExTeam6.3\Source\GameServer\GameServer\ExText.cpp
	.686P
	.XMM
	include listing.inc
	.model	flat

INCLUDELIB LIBCMT
INCLUDELIB OLDNAMES

_DATA	SEGMENT
_g_iNpcUpDfLevel_CGATE DD 01H
	DD	02H
	DD	02dc6c0H
	DD	02H
	DD	03H
	DD	02dc6c0H
	DD	03H
	DD	04H
	DD	02dc6c0H
_g_iNpcUpDfLevel_CSTATUE DD 01H
	DD	03H
	DD	02dc6c0H
	DD	02H
	DD	05H
	DD	02dc6c0H
	DD	03H
	DD	07H
	DD	02dc6c0H
_g_iNpcUpMaxHP_CGATE DD 02625a0H
	DD	02H
	DD	0f4240H
	DD	03567e0H
	DD	03H
	DD	0f4240H
	DD	04f5880H
	DD	04H
	DD	0f4240H
_g_iNpcUpMaxHP_CSTATUE DD 02191c0H
	DD	03H
	DD	0f4240H
	DD	033e140H
	DD	05H
	DD	0f4240H
	DD	04c4b40H
	DD	07H
	DD	0f4240H
_g_iNpcUpRgLevel_CSTATUE DD 01H
	DD	03H
	DD	04c4b40H
	DD	02H
	DD	05H
	DD	04c4b40H
	DD	03H
	DD	07H
	DD	04c4b40H
_g_iCsUserReSpawnArea DD 023H
	DD	011H
	DD	090H
	DD	030H
	DD	04aH
	DD	090H
	DD	073H
	DD	09aH
	DD	023H
	DD	011H
	DD	090H
	DD	030H
_g_iNpcDefense_CGATE DD 064H
	DD	0b4H
	DD	012cH
	DD	0208H
_g_iNpcDefense_CSTATUE DD 050H
	DD	0b4H
	DD	0154H
	DD	0226H
_g_iCastleWallStepAxisY DD 071H
	DD	0a0H
	DD	0cbH
_DATA	ENDS
PUBLIC	??_H@YGXPAXIHP6EPAX0@Z@Z			; `vector constructor iterator'
; Function compile flags: /Odtp /ZI
;	COMDAT ??_H@YGXPAXIHP6EPAX0@Z@Z
_TEXT	SEGMENT
___t$ = 8						; size = 4
___s$ = 12						; size = 4
___n$ = 16						; size = 4
___f$ = 20						; size = 4
??_H@YGXPAXIHP6EPAX0@Z@Z PROC				; `vector constructor iterator', COMDAT
  00000	55		 push	 ebp
  00001	8b ec		 mov	 ebp, esp
  00003	83 ec 40	 sub	 esp, 64			; 00000040H
  00006	53		 push	 ebx
  00007	56		 push	 esi
  00008	57		 push	 edi
$LN2@vector:
  00009	8b 45 10	 mov	 eax, DWORD PTR ___n$[ebp]
  0000c	83 e8 01	 sub	 eax, 1
  0000f	89 45 10	 mov	 DWORD PTR ___n$[ebp], eax
  00012	78 11		 js	 SHORT $LN3@vector
  00014	8b 4d 08	 mov	 ecx, DWORD PTR ___t$[ebp]
  00017	ff 55 14	 call	 DWORD PTR ___f$[ebp]
  0001a	8b 45 08	 mov	 eax, DWORD PTR ___t$[ebp]
  0001d	03 45 0c	 add	 eax, DWORD PTR ___s$[ebp]
  00020	89 45 08	 mov	 DWORD PTR ___t$[ebp], eax
  00023	eb e4		 jmp	 SHORT $LN2@vector
$LN3@vector:
  00025	5f		 pop	 edi
  00026	5e		 pop	 esi
  00027	5b		 pop	 ebx
  00028	8b e5		 mov	 esp, ebp
  0002a	5d		 pop	 ebp
  0002b	c2 10 00	 ret	 16			; 00000010H
??_H@YGXPAXIHP6EPAX0@Z@Z ENDP				; `vector constructor iterator'
_TEXT	ENDS
PUBLIC	?Init@CExText@@QAEXXZ				; CExText::Init
PUBLIC	??0CExText@@QAE@XZ				; CExText::CExText
; Function compile flags: /Odtp /ZI
; File d:\projects\exteam6.3\source\gameserver\gameserver\extext.cpp
_TEXT	SEGMENT
_this$ = -4						; size = 4
??0CExText@@QAE@XZ PROC					; CExText::CExText
; _this$ = ecx

; 10   : {

  00000	55		 push	 ebp
  00001	8b ec		 mov	 ebp, esp
  00003	83 ec 44	 sub	 esp, 68			; 00000044H
  00006	53		 push	 ebx
  00007	56		 push	 esi
  00008	57		 push	 edi
  00009	89 4d fc	 mov	 DWORD PTR _this$[ebp], ecx

; 11   : 	this->Init();

  0000c	8b 4d fc	 mov	 ecx, DWORD PTR _this$[ebp]
  0000f	e8 00 00 00 00	 call	 ?Init@CExText@@QAEXXZ	; CExText::Init

; 12   : }

  00014	8b 45 fc	 mov	 eax, DWORD PTR _this$[ebp]
  00017	5f		 pop	 edi
  00018	5e		 pop	 esi
  00019	5b		 pop	 ebx
  0001a	8b e5		 mov	 esp, ebp
  0001c	5d		 pop	 ebp
  0001d	c3		 ret	 0
??0CExText@@QAE@XZ ENDP					; CExText::CExText
_TEXT	ENDS
PUBLIC	??1CExText@@QAE@XZ				; CExText::~CExText
; Function compile flags: /Odtp /ZI
_TEXT	SEGMENT
_this$ = -4						; size = 4
??1CExText@@QAE@XZ PROC					; CExText::~CExText
; _this$ = ecx

; 15   : {

  00020	55		 push	 ebp
  00021	8b ec		 mov	 ebp, esp
  00023	83 ec 44	 sub	 esp, 68			; 00000044H
  00026	53		 push	 ebx
  00027	56		 push	 esi
  00028	57		 push	 edi
  00029	89 4d fc	 mov	 DWORD PTR _this$[ebp], ecx

; 16   : }

  0002c	5f		 pop	 edi
  0002d	5e		 pop	 esi
  0002e	5b		 pop	 ebx
  0002f	8b e5		 mov	 esp, ebp
  00031	5d		 pop	 ebp
  00032	c3		 ret	 0
??1CExText@@QAE@XZ ENDP					; CExText::~CExText
_TEXT	ENDS
EXTRN	_memset:PROC
; Function compile flags: /Odtp /ZI
_TEXT	SEGMENT
_this$ = -4						; size = 4
?Init@CExText@@QAEXXZ PROC				; CExText::Init
; _this$ = ecx

; 19   : {

  00040	55		 push	 ebp
  00041	8b ec		 mov	 ebp, esp
  00043	83 ec 44	 sub	 esp, 68			; 00000044H
  00046	53		 push	 ebx
  00047	56		 push	 esi
  00048	57		 push	 edi
  00049	89 4d fc	 mov	 DWORD PTR _this$[ebp], ecx

; 20   : 	memset(this->m_Path, 0, sizeof(this->m_Text));

  0004c	68 00 fa 00 00	 push	 64000			; 0000fa00H
  00051	6a 00		 push	 0
  00053	8b 45 fc	 mov	 eax, DWORD PTR _this$[ebp]
  00056	50		 push	 eax
  00057	e8 00 00 00 00	 call	 _memset
  0005c	83 c4 0c	 add	 esp, 12			; 0000000cH

; 21   : 	memset(this->m_Text, 0, sizeof(this->m_Text));

  0005f	68 00 fa 00 00	 push	 64000			; 0000fa00H
  00064	6a 00		 push	 0
  00066	8b 45 fc	 mov	 eax, DWORD PTR _this$[ebp]
  00069	05 80 00 00 00	 add	 eax, 128		; 00000080H
  0006e	50		 push	 eax
  0006f	e8 00 00 00 00	 call	 _memset
  00074	83 c4 0c	 add	 esp, 12			; 0000000cH

; 22   : }

  00077	5f		 pop	 edi
  00078	5e		 pop	 esi
  00079	5b		 pop	 ebx
  0007a	8b e5		 mov	 esp, ebp
  0007c	5d		 pop	 ebp
  0007d	c3		 ret	 0
?Init@CExText@@QAEXXZ ENDP				; CExText::Init
_TEXT	ENDS
PUBLIC	?LoadText@CExText@@QAEXXZ			; CExText::LoadText
PUBLIC	?Read@CExText@@QAEXPAD@Z			; CExText::Read
PUBLIC	??_C@_0BD@FALIBFGO@ExData?2ExTextS?4dat?$AA@	; `string'
PUBLIC	?Load@CExText@@QAEXXZ				; CExText::Load
EXTRN	?GetNewPath@CDirPath@@QAEPADPAD@Z:PROC		; CDirPath::GetNewPath
EXTRN	?gDirPath@@3VCDirPath@@A:BYTE			; gDirPath
;	COMDAT ??_C@_0BD@FALIBFGO@ExData?2ExTextS?4dat?$AA@
CONST	SEGMENT
??_C@_0BD@FALIBFGO@ExData?2ExTextS?4dat?$AA@ DB 'ExData\ExTextS.dat', 00H ; `string'
; Function compile flags: /Odtp /ZI
CONST	ENDS
_TEXT	SEGMENT
_this$ = -4						; size = 4
?Load@CExText@@QAEXXZ PROC				; CExText::Load
; _this$ = ecx

; 25   : {

  00080	55		 push	 ebp
  00081	8b ec		 mov	 ebp, esp
  00083	83 ec 44	 sub	 esp, 68			; 00000044H
  00086	53		 push	 ebx
  00087	56		 push	 esi
  00088	57		 push	 edi
  00089	89 4d fc	 mov	 DWORD PTR _this$[ebp], ecx

; 26   : 	this->Init();

  0008c	8b 4d fc	 mov	 ecx, DWORD PTR _this$[ebp]
  0008f	e8 00 00 00 00	 call	 ?Init@CExText@@QAEXXZ	; CExText::Init

; 27   : 	this->Read(gDirPath.GetNewPath("ExData\\ExTextS.dat"));

  00094	68 00 00 00 00	 push	 OFFSET ??_C@_0BD@FALIBFGO@ExData?2ExTextS?4dat?$AA@
  00099	b9 00 00 00 00	 mov	 ecx, OFFSET ?gDirPath@@3VCDirPath@@A ; gDirPath
  0009e	e8 00 00 00 00	 call	 ?GetNewPath@CDirPath@@QAEPADPAD@Z ; CDirPath::GetNewPath
  000a3	50		 push	 eax
  000a4	8b 4d fc	 mov	 ecx, DWORD PTR _this$[ebp]
  000a7	e8 00 00 00 00	 call	 ?Read@CExText@@QAEXPAD@Z ; CExText::Read

; 28   : 	this->LoadText();

  000ac	8b 4d fc	 mov	 ecx, DWORD PTR _this$[ebp]
  000af	e8 00 00 00 00	 call	 ?LoadText@CExText@@QAEXXZ ; CExText::LoadText

; 29   : }

  000b4	5f		 pop	 edi
  000b5	5e		 pop	 esi
  000b6	5b		 pop	 ebx
  000b7	8b e5		 mov	 esp, ebp
  000b9	5d		 pop	 ebp
  000ba	c3		 ret	 0
?Load@CExText@@QAEXXZ ENDP				; CExText::Load
_TEXT	ENDS
EXTRN	_memcpy:PROC
; Function compile flags: /Odtp /ZI
_TEXT	SEGMENT
_this$ = -4						; size = 4
_filename$ = 8						; size = 4
?Read@CExText@@QAEXPAD@Z PROC				; CExText::Read
; _this$ = ecx

; 32   : {

  000c0	55		 push	 ebp
  000c1	8b ec		 mov	 ebp, esp
  000c3	83 ec 44	 sub	 esp, 68			; 00000044H
  000c6	53		 push	 ebx
  000c7	56		 push	 esi
  000c8	57		 push	 edi
  000c9	89 4d fc	 mov	 DWORD PTR _this$[ebp], ecx

; 33   : 	memcpy(this->m_Path, filename, sizeof(this->m_Path));

  000cc	68 80 00 00 00	 push	 128			; 00000080H
  000d1	8b 45 08	 mov	 eax, DWORD PTR _filename$[ebp]
  000d4	50		 push	 eax
  000d5	8b 4d fc	 mov	 ecx, DWORD PTR _this$[ebp]
  000d8	51		 push	 ecx
  000d9	e8 00 00 00 00	 call	 _memcpy
  000de	83 c4 0c	 add	 esp, 12			; 0000000cH

; 34   : }

  000e1	5f		 pop	 edi
  000e2	5e		 pop	 esi
  000e3	5b		 pop	 ebx
  000e4	8b e5		 mov	 esp, ebp
  000e6	5d		 pop	 ebp
  000e7	c2 04 00	 ret	 4
?Read@CExText@@QAEXPAD@Z ENDP				; CExText::Read
_TEXT	ENDS
PUBLIC	??_C@_0BB@KBHFEEDO@?$FLMax?5GReset?$FN?3?5?$CFd?$AA@ ; `string'
PUBLIC	??_C@_0BA@MEJNHEPC@?$FLMax?5Reset?$FN?3?5?$CFd?$AA@ ; `string'
PUBLIC	??_C@_0BC@MBMKDKDE@?$FLNeed?5Goblin?$FN?3?5?$CFd?$AA@ ; `string'
PUBLIC	??_C@_0BC@MKENDDB@?$FLNeed?5WCoinP?$FN?3?5?$CFd?$AA@ ; `string'
PUBLIC	??_C@_0BC@FKJCFFGC@?$FLNeed?5WCoinC?$FN?3?5?$CFd?$AA@ ; `string'
PUBLIC	??_C@_0BC@JNHOMOOP@?$FLNeed?5ExCred?$FN?3?5?$CFd?$AA@ ; `string'
PUBLIC	??_C@_0P@JOEEOEIN@?$FLNeed?5Zen?$FN?3?5?$CFd?$AA@ ; `string'
PUBLIC	??_C@_0BH@KHMLGCFI@?$FLNeed?5Premium?$FN?3?5Status?$AA@ ; `string'
PUBLIC	??_C@_0BP@KMDIOMJA@?$FLNeed?5Premium?$FN?3?5Status?5?$CFd?5rank?$AA@ ; `string'
PUBLIC	??_C@_0BC@CHJAHMDJ@?$FLNeed?5GReset?$FN?3?5?$CFd?$AA@ ; `string'
PUBLIC	??_C@_0BB@PCHHKHCC@?$FLNeed?5Reset?$FN?3?5?$CFd?$AA@ ; `string'
PUBLIC	??_C@_0BB@BAFBNPAJ@?$FLNeed?5Level?$FN?3?5?$CFd?$AA@ ; `string'
PUBLIC	??_C@_0BG@EEMGHGE@?$FLDrop?5Event?$FN?5Started?$CB?$AA@ ; `string'
PUBLIC	??_C@_09FMDNBLPI@No?5Jewels?$AA@		; `string'
PUBLIC	??_C@_0BI@HBMDNHJN@?$EA?$FLPREMIUM?$FN?5Time?5is?5over?$AA@ ; `string'
PUBLIC	??_C@_0BD@KMCMCOAB@?$EA?$FLPREMIUM?$FN?5Min?3?5?$CFd?$AA@ ; `string'
PUBLIC	??_C@_0BK@NBMNNEF@?$EA?$FLPREMIUM?$FN?5Defence?3?5?$CL?$CFd?$CF?$CF?$AA@ ; `string'
PUBLIC	??_C@_0CA@BMNDND@?$EA?$FLPREMIUM?$FN?5Wizard?5Damage?3?5?$CL?$CFd?$CF?$CF?$AA@ ; `string'
PUBLIC	??_C@_0BJ@HMOBPEHA@?$EA?$FLPREMIUM?$FN?5Damage?3?5?$CL?$CFd?$CF?$CF?$AA@ ; `string'
PUBLIC	??_C@_0BL@NDFEDM@?$EA?$FLPREMIUM?$FN?5Drop?5Zen?3?5?$CL?$CFd?$CF?$CF?$AA@ ; `string'
PUBLIC	??_C@_0BN@JJILFFBN@?$EA?$FLPREMIUM?$FN?5Experience?3?5?$CL?$CFd?$CF?$CF?$AA@ ; `string'
PUBLIC	??_C@_06JOGMAFMB@GM?5Map?$AA@			; `string'
PUBLIC	??_C@_0CE@IDHHPCBO@?$FLOffExp?$FN?5Works?5just?5outside?5of?5t@ ; `string'
PUBLIC	??_C@_0BI@CGJMHIKF@?$FLOffExp?$FN?5Need?5?$CFd?5Goblin?$AA@ ; `string'
PUBLIC	??_C@_0BI@LKOIBIFN@?$FLOffExp?$FN?5Need?5?$CFd?5WCoinP?$AA@ ; `string'
PUBLIC	??_C@_0BI@NLAHFJMP@?$FLOffExp?$FN?5Need?5?$CFd?5WCoinC?$AA@ ; `string'
PUBLIC	??_C@_0BI@KKCCEDNH@?$FLOffExp?$FN?5Need?5?$CFd?5Credit?$AA@ ; `string'
PUBLIC	??_C@_0BF@MAMJKDIJ@?$FLOffExp?$FN?5Need?5?$CFd?5Zen?$AA@ ; `string'
PUBLIC	??_C@_0BB@BDLKINPJ@?$FLBuy?$FN?5?$CFd?5Credits?$AA@ ; `string'
PUBLIC	??_C@_0P@HJIHFOLJ@?$FLBuy?$FN?5?$CFd?5Wcoin?$AA@ ; `string'
PUBLIC	??_C@_0BG@FKEOOLNJ@?$FLBuy?$FN?5Need?5?$CFd?5Credits?$AA@ ; `string'
PUBLIC	??_C@_0BE@EOJKDIHI@?$FLBuy?$FN?5Need?5?$CFd?5Bonus?$AA@ ; `string'
PUBLIC	??_C@_09FLDHBEND@Karutan?52?$AA@		; `string'
PUBLIC	??_C@_07OCAFKKPM@Karutan?$AA@			; `string'
PUBLIC	??_C@_0N@PNCDMAOA@Loren?5Market?$AA@		; `string'
PUBLIC	??_C@_0L@HHAFLHHC@Imperial?54?$AA@		; `string'
PUBLIC	??_C@_0L@DIEECBLF@Imperial?53?$AA@		; `string'
PUBLIC	??_C@_0L@CBFPBAPE@Imperial?52?$AA@		; `string'
PUBLIC	??_C@_0L@KHCEDDH@Imperial?51?$AA@		; `string'
PUBLIC	??_C@_0O@KEFHLJKC@Double?5Goer?54?$AA@		; `string'
PUBLIC	??_C@_0O@OLBGCPGF@Double?5Goer?53?$AA@		; `string'
PUBLIC	??_C@_0O@PCANBOCE@Double?5Goer?52?$AA@		; `string'
PUBLIC	??_C@_0O@NJCAENOH@Double?5Goer?51?$AA@		; `string'
PUBLIC	??_C@_0M@EAGBBPA@Vulcan?5Room?$AA@		; `string'
PUBLIC	??_C@_06LOEDEFOB@Vulcan?$AA@			; `string'
PUBLIC	??_C@_0L@NJMBKLOB@Santa?5Town?$AA@		; `string'
PUBLIC	??_C@_0N@KEHJEJIE@Raklion?5Boss?$AA@		; `string'
PUBLIC	??_C@_07GADFIEBE@Raklion?$AA@			; `string'
PUBLIC	??_C@_0BC@BMNEEACA@Swamp?5Of?5Calmness?$AA@	; `string'
PUBLIC	??_C@_0P@DAEACODP@Devil?5Squere?57?$AA@		; `string'
PUBLIC	??_C@_0P@KDANNKKM@Chaos?5Castle?57?$AA@		; `string'
PUBLIC	??_C@_0P@PJOJEPGI@Blood?5Castle?58?$AA@		; `string'
PUBLIC	??_C@_07OBGILBCL@Elblend?$AA@			; `string'
PUBLIC	??_C@_0BC@CIODICBO@Illusion?5Temple?56?$AA@	; `string'
PUBLIC	??_C@_0BC@DMONBNN@Illusion?5Temple?55?$AA@	; `string'
PUBLIC	??_C@_0BC@BKNFOAJM@Illusion?5Temple?54?$AA@	; `string'
PUBLIC	??_C@_0BC@FFJEHGFL@Illusion?5Temple?53?$AA@	; `string'
PUBLIC	??_C@_0BC@EMIPEHBK@Illusion?5Temple?52?$AA@	; `string'
PUBLIC	??_C@_0BC@GHKCBENJ@Illusion?5Temple?51?$AA@	; `string'
PUBLIC	??_C@_0O@PEMOBAPG@Balgas?5Refuge?$AA@		; `string'
PUBLIC	??_C@_0O@FHBIHDBH@Balgas?5Baraks?$AA@		; `string'
PUBLIC	??_C@_0N@BKFGNFED@Kanturu?5Boss?$AA@		; `string'
PUBLIC	??_C@_0O@PBLCAFMO@Kanturu?5Relic?$AA@		; `string'
PUBLIC	??_C@_07KEJLPAHK@Kanturu?$AA@			; `string'
PUBLIC	??_C@_08HAOPGLOD@Kalima?57?$AA@			; `string'
PUBLIC	??_C@_08PFNMNIFL@Cry?5Wolf?$AA@			; `string'
PUBLIC	??_C@_04CJFIPIII@Aida?$AA@			; `string'
PUBLIC	??_C@_0O@PCDCCCEO@Land?5Of?5Trial?$AA@		; `string'
PUBLIC	??_C@_06NHLAJDOI@Castle?$AA@			; `string'
PUBLIC	??_C@_08GJPEFKKC@Kalima?56?$AA@			; `string'
PUBLIC	??_C@_08ECNJAJGB@Kalima?55?$AA@			; `string'
PUBLIC	??_C@_08FLMCDICA@Kalima?54?$AA@			; `string'
PUBLIC	??_C@_08BEIDKOOH@Kalima?53?$AA@			; `string'
PUBLIC	??_C@_08NJIJPKG@Kalima?52?$AA@			; `string'
PUBLIC	??_C@_08CGLFMMGF@Kalima?51?$AA@			; `string'
PUBLIC	??_C@_0P@LKBGOLON@Chaos?5Castle?56?$AA@		; `string'
PUBLIC	??_C@_0P@JBDLLICO@Chaos?5Castle?55?$AA@		; `string'
PUBLIC	??_C@_0P@IICAIJGP@Chaos?5Castle?54?$AA@		; `string'
PUBLIC	??_C@_0P@MHGBBPKI@Chaos?5Castle?53?$AA@		; `string'
PUBLIC	??_C@_0P@NOHKCOOJ@Chaos?5Castle?52?$AA@		; `string'
PUBLIC	??_C@_0P@PFFHHNCK@Chaos?5Castle?51?$AA@		; `string'
PUBLIC	??_C@_0P@HOHBFDKH@Blood?5Castle?57?$AA@		; `string'
PUBLIC	??_C@_0P@GHGKGCOG@Blood?5Castle?56?$AA@		; `string'
PUBLIC	??_C@_0P@EMEHDBCF@Blood?5Castle?55?$AA@		; `string'
PUBLIC	??_C@_0P@FFFMAAGE@Blood?5Castle?54?$AA@		; `string'
PUBLIC	??_C@_0P@BKBNJGKD@Blood?5Castle?53?$AA@		; `string'
PUBLIC	??_C@_0P@DAGKHOC@Blood?5Castle?52?$AA@		; `string'
PUBLIC	??_C@_0P@CICLPECB@Blood?5Castle?51?$AA@		; `string'
PUBLIC	??_C@_06OCMNLLL@Icarus?$AA@			; `string'
PUBLIC	??_C@_0M@DFALAJPK@DevilSquare?$AA@		; `string'
PUBLIC	??_C@_06KLPPBFEJ@Tarkan?$AA@			; `string'
PUBLIC	??_C@_06IJFPNHKO@Atlans?$AA@			; `string'
PUBLIC	??_C@_05DLHMIPMH@Arena?$AA@			; `string'
PUBLIC	??_C@_09IFBHMHO@LostTower?$AA@			; `string'
PUBLIC	??_C@_05JKNLBHIC@Noria?$AA@			; `string'
PUBLIC	??_C@_06PHFFMJMG@Devias?$AA@			; `string'
PUBLIC	??_C@_07CELLBLHP@Dungeon?$AA@			; `string'
PUBLIC	??_C@_08DPCEMNDG@Lorencia?$AA@			; `string'
PUBLIC	??_C@_0BK@BDHNBLOG@?$FLJewelsBank?$FN?5Recv?5?$CFd?5Life?$AA@ ; `string'
PUBLIC	??_C@_0BI@MHFJLCGA@?$FLJewelsBank?$FN?5No?5?$CFd?5Life?$AA@ ; `string'
PUBLIC	??_C@_0BK@BLAEOCAJ@?$FLJewelsBank?$FN?5Recv?5?$CFd?5Soul?$AA@ ; `string'
PUBLIC	??_C@_0BI@MPCAELIP@?$FLJewelsBank?$FN?5No?5?$CFd?5Soul?$AA@ ; `string'
PUBLIC	??_C@_0BL@LFJMIOEP@?$FLJewelsBank?$FN?5Recv?5?$CFd?5Bless?$AA@ ; `string'
PUBLIC	??_C@_0BJ@LBJDIMPD@?$FLJewelsBank?$FN?5No?5?$CFd?5Bless?$AA@ ; `string'
PUBLIC	??_C@_0BL@BBBODGGJ@?$FLJewelsBank?$FN?5Recv?5?$CFd?5Chaos?$AA@ ; `string'
PUBLIC	??_C@_0BK@KJOAAKB@?$FLJewelsBank?$FN?5Inventory?5?$CFd?$AA@ ; `string'
PUBLIC	??_C@_0BJ@BFBBDENF@?$FLJewelsBank?$FN?5No?5?$CFd?5Chaos?$AA@ ; `string'
PUBLIC	??_C@_0BK@CGCENOLB@?$FLJewelsBank?$FN?5Send?5?$CFd?5Life?$AA@ ; `string'
PUBLIC	??_C@_0BK@PGCOJPFB@?$FLJewelsBank?$FN?5Need?5?$CFd?5Life?$AA@ ; `string'
PUBLIC	??_C@_0BK@COFNCHFO@?$FLJewelsBank?$FN?5Send?5?$CFd?5Soul?$AA@ ; `string'
PUBLIC	??_C@_0BK@POFHGGLO@?$FLJewelsBank?$FN?5Need?5?$CFd?5Soul?$AA@ ; `string'
PUBLIC	??_C@_0BL@EAKGBDNN@?$FLJewelsBank?$FN?5Send?5?$CFd?5Bless?$AA@ ; `string'
PUBLIC	??_C@_0BL@OAHMPLOE@?$FLJewelsBank?$FN?5Need?5?$CFd?5Bless?$AA@ ; `string'
PUBLIC	??_C@_0BL@OECEKLPL@?$FLJewelsBank?$FN?5Send?5?$CFd?5Chaos?$AA@ ; `string'
PUBLIC	??_C@_0BL@EEPOEDMC@?$FLJewelsBank?$FN?5Need?5?$CFd?5Chaos?$AA@ ; `string'
PUBLIC	??_C@_0O@IMAIFDDM@?1recvlifebank?$AA@		; `string'
PUBLIC	??_C@_0O@EICHAAIA@?1recvsoulbank?$AA@		; `string'
PUBLIC	??_C@_0P@KGLHGEAA@?1recvblessbank?$AA@		; `string'
PUBLIC	??_C@_0P@DAKNKGHC@?1recvchaosbank?$AA@		; `string'
PUBLIC	??_C@_0O@LJFBJGGL@?1sendlifebank?$AA@		; `string'
PUBLIC	??_C@_0O@HNHOMFNH@?1sendsoulbank?$AA@		; `string'
PUBLIC	??_C@_0P@FDINPJJC@?1sendblessbank?$AA@		; `string'
PUBLIC	??_C@_0P@MFJHDLOA@?1sendchaosbank?$AA@		; `string'
PUBLIC	??_C@_08DFICILBJ@?1offlife?$AA@			; `string'
PUBLIC	??_C@_08DNPLHCPG@?1offsoul?$AA@			; `string'
PUBLIC	??_C@_09JILIJOFC@?1offbless?$AA@		; `string'
PUBLIC	??_C@_09DMDKCGHE@?1offchaos?$AA@		; `string'
PUBLIC	??_C@_0L@BMECOBJ@?1offgoblin?$AA@		; `string'
PUBLIC	??_C@_0L@PJIGPHF@?1offwcoinp?$AA@		; `string'
PUBLIC	??_C@_0L@GOHHCOOH@?1offwcoinc?$AA@		; `string'
PUBLIC	??_C@_0L@INHKBFGL@?1offcredit?$AA@		; `string'
PUBLIC	??_C@_07LOEKANNA@?1offzen?$AA@			; `string'
PUBLIC	??_C@_0BG@HHGJIIOJ@?$FLPkClear?$FN?5Need?5?$CFd?5Zen?$AA@ ; `string'
PUBLIC	??_C@_0BI@KLKJIHEI@?$FLPkClear?$FN?5Need?5?$CFd?5Level?$AA@ ; `string'
PUBLIC	??_C@_0BE@BKBFMADO@?$FLAdd?$FN?5Need?5?$CFd?5level?$AA@ ; `string'
PUBLIC	??_C@_0BC@GEGHIIJH@?$FLAdd?$FN?5Need?5?$CFd?5zen?$AA@ ; `string'
PUBLIC	??_C@_0BP@LBHMNDCK@?$FLChange?5Class?$FN?3?5Need?5?$CFd?5Credit?$AA@ ; `string'
PUBLIC	??_C@_0CJ@LADKEPDC@?$FLChange?5Class?$FN?3?5You?5need?5Empty?5I@ ; `string'
PUBLIC	??_C@_0CD@KGGNMMG@?$FLCredit?5Donate?$FN?3?5Sell?5?$CF?42f?5Credi@ ; `string'
PUBLIC	??_C@_0CE@GBGJMDIH@?$FLCredit?5Donate?$FN?3?5Buy?3?5?$CFs?0?5Price?3@ ; `string'
PUBLIC	??_C@_0CB@OOHAKKEO@?$FLCredit?5Donate?$FN?3?5Need?5?$CFd?5Credits@ ; `string'
PUBLIC	??_C@_0DN@GJKGEGIC@?$FLCredit?5Donate?$FN?3?5Need?5to?5make?5sp@ ; `string'
PUBLIC	??_C@_0CE@FPHGEDKP@?$FLCredit?5Donate?$FN?3Buy?5Premium?5Need@ ; `string'
PUBLIC	??_C@_0CD@OPBOIPPI@?$FLCredit?5Donate?$FN?3Buy?5Goblin?5Need?5@ ; `string'
PUBLIC	??_C@_0CL@DPCNHNIA@?$FLCredit?5Donate?$FN?3Buy?5Goblin?5Multi@ ; `string'
PUBLIC	??_C@_0CF@IBIBCJGE@?$FLCredit?5Donate?$FN?3Buy?5Wcoin?$CIP?$CJ?5Nee@ ; `string'
PUBLIC	??_C@_0CN@KJELFHNA@?$FLCredit?5Donate?$FN?3Buy?5Wcoin?$CIP?$CJ?5Mul@ ; `string'
PUBLIC	??_C@_0CC@KIFIBJEP@?$FLCredit?5Donate?$FN?3Buy?5Wcoin?5Need?5?$CF@ ; `string'
PUBLIC	??_C@_0CK@FMNEIMBA@?$FLCredit?5Donate?$FN?3Buy?5Wcoin?5Multip@ ; `string'
PUBLIC	??_C@_0CD@MKHEPPBN@?$FLMonster?5Bonus?$FN?3?5?$CL?$CFd?5Goblin?5Poin@ ; `string'
PUBLIC	??_C@_0BM@OBHKPNPP@?$FLMonster?5Bonus?$FN?3?5?$CL?$CFd?5WcoinP?$AA@ ; `string'
PUBLIC	??_C@_0BM@IAJFLMGN@?$FLMonster?5Bonus?$FN?3?5?$CL?$CFd?5WcoinC?$AA@ ; `string'
PUBLIC	??_C@_0BN@OLDBCGLM@?$FLMonster?5Bonus?$FN?3?5?$CL?$CFd?5Credits?$AA@ ; `string'
PUBLIC	??_C@_0BJ@FNBNDKKL@?$EA?$FL?$CFs?$FN?3?5Goblin?5Points?5?$CFd?$CB?$AA@ ; `string'
PUBLIC	??_C@_0BC@DIEIONHB@?$EA?$FL?$CFs?$FN?3?5WCoinP?5?$CFd?$CB?$AA@ ; `string'
PUBLIC	??_C@_0BC@LNAKJNEE@?$EA?$FL?$CFs?$FN?3?5WCoinC?5?$CFd?$CB?$AA@ ; `string'
PUBLIC	??_C@_0BC@IGDJKEDP@?$EA?$FL?$CFs?$FN?3?5ExCred?5?$CFd?$CB?$AA@ ; `string'
PUBLIC	??_C@_0BG@MANINCDG@?$EA?$FL?$CFs?$FN?3?5FreePoints?5?$CFd?$CB?$AA@ ; `string'
PUBLIC	??_C@_0BN@LLEFKEPK@?$EA?$FL?$CFs?$FN?3?5Mission?5accomplished?$CB?$AA@ ; `string'
PUBLIC	??_C@_0BD@DALIAMPI@?$EA?$FL?$CFs?$FN?3?5Mission?3?5?$CFd?$AA@ ; `string'
PUBLIC	??_C@_0BK@GLEDHAJM@?$FLHappy?5Hour?$FN?5Event?5Close?$CB?$AA@ ; `string'
PUBLIC	??_C@_0CJ@MDEEPFFJ@?$FLHappy?5Hour?$FN?5Exp?3?5?$CL?$CFd?$CF?$CF?$CF?$CF?5Drop?3?5@ ; `string'
PUBLIC	??_C@_0BM@JPLLBIDJ@?$FLHappy?5Hour?$FN?5Event?5Started?$CB?$AA@ ; `string'
PUBLIC	??_C@_0BC@FHHCMEHD@?$FLEvangelion?$FN?5End?$CB?$AA@ ; `string'
PUBLIC	??_C@_0BK@NFIPBKLM@?$FLEvangelion?$FN?5In?5Lorencia?$CB?$AA@ ; `string'
PUBLIC	??_C@_0BM@BFEGMEHA@?$FLEvangelion?$FN?5Devias?5Win?5?$CFs?$CB?$AA@ ; `string'
PUBLIC	??_C@_0BI@OBOMMEGL@?$FLEvangelion?$FN?5In?5Devias?$CB?$AA@ ; `string'
PUBLIC	??_C@_0BL@DFMNOIC@?$FLEvangelion?$FN?5Noria?5Win?5?$CFs?$CB?$AA@ ; `string'
PUBLIC	??_C@_0BH@NGNDIGCL@?$FLEvangelion?$FN?5In?5Noria?$CB?$AA@ ; `string'
PUBLIC	??_C@_0BO@JENKFAJA@?$FLEvangelion?$FN?5Lorencia?5Win?5?$CFs?$CB?$AA@ ; `string'
PUBLIC	??_C@_0BM@CGIKKGMH@?$HO?$FLCredit?$FN?3?5Online?5Bonus?3?5?$CFd?$AA@ ; `string'
PUBLIC	??_C@_0BM@JNEHDAID@?$HO?$FLGoblin?$FN?3?5Online?5Bonus?3?5?$CFd?$AA@ ; `string'
PUBLIC	??_C@_0BM@JLLGHFCO@?$HO?$FLWCoinP?$FN?3?5Online?5Bonus?3?5?$CFd?$AA@ ; `string'
PUBLIC	??_C@_0BM@KLEMOFCB@?$HO?$FLWCoinC?$FN?3?5Online?5Bonus?3?5?$CFd?$AA@ ; `string'
PUBLIC	??_C@_0BG@GJDHCBJN@?$FLBuy?$FN?5Price?5?$CFd?5Goblin?$AA@ ; `string'
PUBLIC	??_C@_0BF@OIGNJAK@?$FLBuy?$FN?5Need?5?$CFd?5Goblin?$AA@ ; `string'
PUBLIC	??_C@_0BF@JCPCLJPC@?$FLBuy?$FN?5Need?5?$CFd?5WCoinP?$AA@ ; `string'
PUBLIC	??_C@_0BG@JEKMAAPH@?$FLBuy?$FN?5Price?5?$CFd?5WCoinC?$AA@ ; `string'
PUBLIC	??_C@_0BF@PDBNPIGA@?$FLBuy?$FN?5Need?5?$CFd?5WCoinC?$AA@ ; `string'
PUBLIC	??_C@_0BG@OFIJBKOP@?$FLBuy?$FN?5Price?5?$CFd?5Credit?$AA@ ; `string'
PUBLIC	??_C@_0BF@ICDIOCHI@?$FLBuy?$FN?5Need?5?$CFd?5Credit?$AA@ ; `string'
PUBLIC	??_C@_0BC@GHOMDOGB@?$FLBuy?$FN?5Need?5?$CFd?5Zen?$AA@ ; `string'
PUBLIC	??_C@_0BF@BBLCPHHL@Max?5Zen?5In?5Inventory?$AA@	; `string'
PUBLIC	??_C@_0BL@DLGFFCMG@In?5?$CFs?5Max?5Zen?5In?5Inventory?$AA@ ; `string'
PUBLIC	??_C@_0BN@EKEIPIHO@?$FLOffTrade?$FN?5Need?5?$CFd?5Life?5Bank?$AA@ ; `string'
PUBLIC	??_C@_0BN@IIFLCIIK@?$FLOffTrade?$FN?5Need?5?$CFd?5Soul?5Bank?$AA@ ; `string'
PUBLIC	??_C@_0BO@IJDAJIJG@?$FLOffTrade?$FN?5Need?5?$CFd?5Bless?5Bank?$AA@ ; `string'
PUBLIC	??_C@_0BO@DHKNJCEE@?$FLOffTrade?$FN?5Need?5?$CFd?5Chaos?5Bank?$AA@ ; `string'
PUBLIC	??_C@_0BK@DKJMKJFO@?$FLOffTrade?$FN?5Need?5?$CFd?5WCoinG?$AA@ ; `string'
PUBLIC	??_C@_0BK@DPBPCNMI@?$FLOffTrade?$FN?5Need?5?$CFd?5WCoinP?$AA@ ; `string'
PUBLIC	??_C@_0BK@FOPAGMFK@?$FLOffTrade?$FN?5Need?5?$CFd?5WCoinC?$AA@ ; `string'
PUBLIC	??_C@_0BL@NCOFGJCD@?$FLOffTrade?$FN?5Need?5?$CFd?5PcPoint?$AA@ ; `string'
PUBLIC	??_C@_0CC@LHBNDNI@?$FLOffTrade?$FN?5work?5only?5special?5map@ ; `string'
PUBLIC	??_C@_0BF@MIALOGLA@?$FL?$CFs?$FN?$FL?$CFs?$FN?5Loren?5?$CFd?5?$CFd?$AA@ ; `string'
PUBLIC	??_C@_0BH@LBAPANHP@?$FL?$CFs?$FN?$FL?$CFs?$FN?5Emblend?5?$CFd?5?$CFd?$AA@ ; `string'
PUBLIC	??_C@_0BF@BLCEJJJH@?$FL?$CFs?$FN?$FL?$CFs?$FN?5Noria?5?$CFd?5?$CFd?$AA@ ; `string'
PUBLIC	??_C@_0BG@KJDAJKBP@?$FL?$CFs?$FN?$FL?$CFs?$FN?5Devias?5?$CFd?5?$CFd?$AA@ ; `string'
PUBLIC	??_C@_0BI@MAEGLEHI@?$FL?$CFs?$FN?$FL?$CFs?$FN?5Lorencia?5?$CFd?5?$CFd?$AA@ ; `string'
PUBLIC	??_C@_0BA@GPOPIKKI@?4?3?3LIFE?5SHOP?3?3?4?$AA@	; `string'
PUBLIC	??_C@_0BA@NIKENFKH@?4?3?3SOUL?5SHOP?3?3?4?$AA@	; `string'
PUBLIC	??_C@_0BB@DOAHPBOB@?4?3?3BLESS?5SHOP?3?3?4?$AA@	; `string'
PUBLIC	??_C@_0BB@MEFLBHHC@?4?3?3CHAOS?5SHOP?3?3?4?$AA@	; `string'
PUBLIC	??_C@_0BC@ECPKDNH@?4?3?3GOBLIN?5SHOP?3?3?4?$AA@	; `string'
PUBLIC	??_C@_0BE@BFOPECO@?4?3?3WCOIN?$CIP?$CJ?5SHOP?3?3?4?$AA@ ; `string'
PUBLIC	??_C@_0BB@IPFIAIKD@?4?3?3WCOIN?5SHOP?3?3?4?$AA@	; `string'
PUBLIC	??_C@_0BC@BEOIOLAE@?4?3?3CREDIT?5SHOP?3?3?4?$AA@ ; `string'
PUBLIC	??_C@_0P@KNLBLEED@?4?3?3ZEN?5SHOP?3?3?4?$AA@	; `string'
PUBLIC	??_C@_0CH@IHHOOGEB@?$FLOffline?5Trade?$FN?5work?5only?5specia@ ; `string'
PUBLIC	??_C@_0BL@FNOCMMHI@?$FLOffTrade?$FN?$FL?$CFs?$FN?5Loren?5?$CFd?5?$CFd?$AA@ ; `string'
PUBLIC	??_C@_0BN@GJJHAMAG@?$FLOffTrade?$FN?$FL?$CFs?$FN?5Emblend?5?$CFd?5?$CFd?$AA@ ; `string'
PUBLIC	??_C@_0BL@IOMNLDFP@?$FLOffTrade?$FN?$FL?$CFs?$FN?5Noria?5?$CFd?5?$CFd?$AA@ ; `string'
PUBLIC	??_C@_0BM@DMBKDJLH@?$FLOffTrade?$FN?$FL?$CFs?$FN?5Devias?5?$CFd?5?$CFd?$AA@ ; `string'
PUBLIC	??_C@_0BO@OJEHOFOB@?$FLOffTrade?$FN?$FL?$CFs?$FN?5Lorencia?5?$CFd?5?$CFd?$AA@ ; `string'
PUBLIC	??_C@_0BK@JCDLIHIH@?$FLOffTrade?$FN?5Need?5Open?5Shop?$AA@ ; `string'
PUBLIC	??_C@_0CH@JMGBEBME@?$FLOffTrade?$FN?5Disable?5in?5Castle?5sie@ ; `string'
PUBLIC	??_C@_0BD@IPGMBHGD@?$FLOfflineTrade?$FN?$FL?$CFs?$FN?$AA@ ; `string'
PUBLIC	??_C@_0CL@IJMEMPLE@?$FLOffTrade?$FN?5OffTrade?5work?5only?5Lo@ ; `string'
PUBLIC	??_C@_0CK@NAELDEKN@?$FLOfflineMode?$FN?5Disable?5in?5Castle?5@ ; `string'
PUBLIC	??_C@_0BO@CLFENIBF@?$FLJewels?$FN?5Item?5Exellent?5Status?$AA@ ; `string'
PUBLIC	??_C@_0BM@OMDDMGGO@?$FLJewels?$FN?5No?5Use?5Item?5Socket?$AA@ ; `string'
PUBLIC	??_C@_0BO@JJNPMFLC@?$FLJewels?$FN?5Max?5Socket?5option?5?$CFd?$AA@ ; `string'
PUBLIC	??_C@_0BF@JOAPLKJN@?$FLJewels?$FN?5Item?5is?5PvP?$AA@ ; `string'
PUBLIC	??_C@_0BJ@HIDKABDK@?$FLJewels?$FN?5No?5Use?5Item?5PvP?$AA@ ; `string'
PUBLIC	??_C@_0BM@OHHBFMIC@?$FLJewels?$FN?5Max?5Option?5to?5Item?$AA@ ; `string'
PUBLIC	??_C@_0BI@LGBBPIKN@?$FLJewels?$FN?5Item?5is?5Ancent?$AA@ ; `string'
PUBLIC	??_C@_0BM@DLKEAAPO@?$FLJewels?$FN?5No?5Use?5Item?5Ancent?$AA@ ; `string'
PUBLIC	??_C@_0BF@JAODIPNO@?$FLJewels?$FN?5No?5use?5item?$AA@ ; `string'
PUBLIC	??_C@_0BO@OEOJOBIJ@?$FLJewels?$FN?5Item?5Exellent?5status?$AA@ ; `string'
PUBLIC	??_C@_0BL@NKONFKM@?$FLJewels?$FN?5No?5use?5item?5Level?$AA@ ; `string'
PUBLIC	??_C@_0BL@JLMMBGJC@?$FLJewels?$FN?5Min?5Level?5Item?5?$CFd?$AA@ ; `string'
PUBLIC	??_C@_0BL@MIGKAOHG@?$FLJewels?$FN?5Max?5Level?5Item?5?$CFd?$AA@ ; `string'
PUBLIC	??_C@_0BL@EABJKCPD@?$FLJewels?$FN?5No?5use?5item?5skill?$AA@ ; `string'
PUBLIC	??_C@_0BM@OPNKJJKH@?$FLJewels?$FN?5Is?5Weapon?5to?5Skill?$AA@ ; `string'
PUBLIC	??_C@_0BK@JCANILHH@?$FLJewels?$FN?5No?5use?5item?5luck?$AA@ ; `string'
PUBLIC	??_C@_0BI@BNEAPBOP@?$FLJewels?$FN?5Is?5Set?5to?5Luck?$AA@ ; `string'
PUBLIC	??_C@_0BN@GPPEHKBE@?$FLJewels?$FN?5Need?5Item?5Accessory?$AA@ ; `string'
PUBLIC	??_C@_0BL@INEMADPH@?$FLJewels?$FN?5Min?5Item?5Level?5?$CFd?$AA@ ; `string'
PUBLIC	??_C@_0BL@NOOKBLBD@?$FLJewels?$FN?5Max?5Item?5Level?5?$CFd?$AA@ ; `string'
PUBLIC	??_C@_0CD@CKINFCHP@?$FLJewels?$FN?5Need?5Item?5Exellent?5Stat@ ; `string'
PUBLIC	??_C@_0CA@GHJGABEM@?$FLJewels?$FN?5Max?5?$CFd?5Exellent?5Option?$AA@ ; `string'
PUBLIC	??_C@_0CN@NMLOMMO@?$FLGReset?$FN?3?5You?5need?5Empty?5Invento@ ; `string'
PUBLIC	??_C@_0CK@FCBCNAMG@?$FLGReset?$FN?3?5You?5need?5above?5?$CFd?5Zen?5@ ; `string'
PUBLIC	??_C@_0CM@HPMBDCHP@?$FLGReset?$FN?3?5You?5need?5above?5?$CFd?5Leve@ ; `string'
PUBLIC	??_C@_0CM@DHNDAPCF@?$FLGReset?$FN?3?5You?5need?5above?5?$CFd?5Rese@ ; `string'
PUBLIC	??_C@_0BN@NFJAONJC@?$FLGReset?$FN?3?5Max?5Grand?5Reset?5?$CFd?$AA@ ; `string'
PUBLIC	??_C@_0BM@CCOFCGNI@?$FLGReset?$FN?3?5Interface?5Disable?$AA@ ; `string'
PUBLIC	??_C@_0BO@PEPJHIDK@?$FLGReset?$FN?3?5Started?5In?5Lorencia?$AA@ ; `string'
PUBLIC	??_C@_0BN@LOHKEBON@?$FLReset?$FN?3?5Need?5Reset?5Items?5?$CFd?$AA@ ; `string'
PUBLIC	??_C@_0CL@HNIKKPDH@?$FLReset?$FN?3?5You?5need?5Empty?5Inventor@ ; `string'
PUBLIC	??_C@_0CI@KOEBMPOL@?$FLReset?$FN?3?5You?5need?5above?5?$CFd?5Zen?5t@ ; `string'
PUBLIC	??_C@_0CM@EPGGAPLD@?$FLReset?$FN?3?5You?5need?5above?5?$CFd?5Credi@ ; `string'
PUBLIC	??_C@_0CK@JCAEKBGA@?$FLReset?$FN?3?5You?5need?5above?5?$CFd?5Wcoin@ ; `string'
PUBLIC	??_C@_0CK@JOKEILBF@?$FLReset?$FN?3?5You?5need?5above?5?$CFd?5Level@ ; `string'
PUBLIC	??_C@_0BG@BDFKKKDA@?$FLReset?$FN?3?5Max?5Reset?5?$CFd?$AA@ ; `string'
PUBLIC	??_C@_0BL@DMAJGMEH@?$FLReset?$FN?3?5Interface?5Disable?$AA@ ; `string'
PUBLIC	??_C@_0BH@KMBFHLHL@?$FLReset?$FN?3?5Started?5In?5?$CFs?$AA@ ; `string'
PUBLIC	??_C@_0N@LNMNJIEC@?$FLOnline?$FN?3?5?$CFd?$AA@	; `string'
PUBLIC	??_C@_0N@MAIJFPGO@?$FLGReset?$FN?3?5?$CFd?$AA@	; `string'
PUBLIC	?SetText@CExText@@QAEXHPAD@Z			; CExText::SetText
PUBLIC	??_C@_0M@FDHJPHCM@?$FLReset?$FN?3?5?$CFd?$AA@	; `string'
;	COMDAT ??_C@_0BB@KBHFEEDO@?$FLMax?5GReset?$FN?3?5?$CFd?$AA@
CONST	SEGMENT
??_C@_0BB@KBHFEEDO@?$FLMax?5GReset?$FN?3?5?$CFd?$AA@ DB '[Max GReset]: %d'
	DB	00H						; `string'
CONST	ENDS
;	COMDAT ??_C@_0BA@MEJNHEPC@?$FLMax?5Reset?$FN?3?5?$CFd?$AA@
CONST	SEGMENT
??_C@_0BA@MEJNHEPC@?$FLMax?5Reset?$FN?3?5?$CFd?$AA@ DB '[Max Reset]: %d', 00H ; `string'
CONST	ENDS
;	COMDAT ??_C@_0BC@MBMKDKDE@?$FLNeed?5Goblin?$FN?3?5?$CFd?$AA@
CONST	SEGMENT
??_C@_0BC@MBMKDKDE@?$FLNeed?5Goblin?$FN?3?5?$CFd?$AA@ DB '[Need Goblin]: '
	DB	'%d', 00H					; `string'
CONST	ENDS
;	COMDAT ??_C@_0BC@MKENDDB@?$FLNeed?5WCoinP?$FN?3?5?$CFd?$AA@
CONST	SEGMENT
??_C@_0BC@MKENDDB@?$FLNeed?5WCoinP?$FN?3?5?$CFd?$AA@ DB '[Need WCoinP]: %'
	DB	'd', 00H					; `string'
CONST	ENDS
;	COMDAT ??_C@_0BC@FKJCFFGC@?$FLNeed?5WCoinC?$FN?3?5?$CFd?$AA@
CONST	SEGMENT
??_C@_0BC@FKJCFFGC@?$FLNeed?5WCoinC?$FN?3?5?$CFd?$AA@ DB '[Need WCoinC]: '
	DB	'%d', 00H					; `string'
CONST	ENDS
;	COMDAT ??_C@_0BC@JNHOMOOP@?$FLNeed?5ExCred?$FN?3?5?$CFd?$AA@
CONST	SEGMENT
??_C@_0BC@JNHOMOOP@?$FLNeed?5ExCred?$FN?3?5?$CFd?$AA@ DB '[Need ExCred]: '
	DB	'%d', 00H					; `string'
CONST	ENDS
;	COMDAT ??_C@_0P@JOEEOEIN@?$FLNeed?5Zen?$FN?3?5?$CFd?$AA@
CONST	SEGMENT
??_C@_0P@JOEEOEIN@?$FLNeed?5Zen?$FN?3?5?$CFd?$AA@ DB '[Need Zen]: %d', 00H ; `string'
CONST	ENDS
;	COMDAT ??_C@_0BH@KHMLGCFI@?$FLNeed?5Premium?$FN?3?5Status?$AA@
CONST	SEGMENT
??_C@_0BH@KHMLGCFI@?$FLNeed?5Premium?$FN?3?5Status?$AA@ DB '[Need Premium'
	DB	']: Status', 00H				; `string'
CONST	ENDS
;	COMDAT ??_C@_0BP@KMDIOMJA@?$FLNeed?5Premium?$FN?3?5Status?5?$CFd?5rank?$AA@
CONST	SEGMENT
??_C@_0BP@KMDIOMJA@?$FLNeed?5Premium?$FN?3?5Status?5?$CFd?5rank?$AA@ DB '['
	DB	'Need Premium]: Status %d rank', 00H		; `string'
CONST	ENDS
;	COMDAT ??_C@_0BC@CHJAHMDJ@?$FLNeed?5GReset?$FN?3?5?$CFd?$AA@
CONST	SEGMENT
??_C@_0BC@CHJAHMDJ@?$FLNeed?5GReset?$FN?3?5?$CFd?$AA@ DB '[Need GReset]: '
	DB	'%d', 00H					; `string'
CONST	ENDS
;	COMDAT ??_C@_0BB@PCHHKHCC@?$FLNeed?5Reset?$FN?3?5?$CFd?$AA@
CONST	SEGMENT
??_C@_0BB@PCHHKHCC@?$FLNeed?5Reset?$FN?3?5?$CFd?$AA@ DB '[Need Reset]: %d'
	DB	00H						; `string'
CONST	ENDS
;	COMDAT ??_C@_0BB@BAFBNPAJ@?$FLNeed?5Level?$FN?3?5?$CFd?$AA@
CONST	SEGMENT
??_C@_0BB@BAFBNPAJ@?$FLNeed?5Level?$FN?3?5?$CFd?$AA@ DB '[Need Level]: %d'
	DB	00H						; `string'
CONST	ENDS
;	COMDAT ??_C@_0BG@EEMGHGE@?$FLDrop?5Event?$FN?5Started?$CB?$AA@
CONST	SEGMENT
??_C@_0BG@EEMGHGE@?$FLDrop?5Event?$FN?5Started?$CB?$AA@ DB '[Drop Event] '
	DB	'Started!', 00H				; `string'
CONST	ENDS
;	COMDAT ??_C@_09FMDNBLPI@No?5Jewels?$AA@
CONST	SEGMENT
??_C@_09FMDNBLPI@No?5Jewels?$AA@ DB 'No Jewels', 00H	; `string'
CONST	ENDS
;	COMDAT ??_C@_0BI@HBMDNHJN@?$EA?$FLPREMIUM?$FN?5Time?5is?5over?$AA@
CONST	SEGMENT
??_C@_0BI@HBMDNHJN@?$EA?$FLPREMIUM?$FN?5Time?5is?5over?$AA@ DB '@[PREMIUM'
	DB	'] Time is over', 00H			; `string'
CONST	ENDS
;	COMDAT ??_C@_0BD@KMCMCOAB@?$EA?$FLPREMIUM?$FN?5Min?3?5?$CFd?$AA@
CONST	SEGMENT
??_C@_0BD@KMCMCOAB@?$EA?$FLPREMIUM?$FN?5Min?3?5?$CFd?$AA@ DB '@[PREMIUM] '
	DB	'Min: %d', 00H				; `string'
CONST	ENDS
;	COMDAT ??_C@_0BK@NBMNNEF@?$EA?$FLPREMIUM?$FN?5Defence?3?5?$CL?$CFd?$CF?$CF?$AA@
CONST	SEGMENT
??_C@_0BK@NBMNNEF@?$EA?$FLPREMIUM?$FN?5Defence?3?5?$CL?$CFd?$CF?$CF?$AA@ DB '@'
	DB	'[PREMIUM] Defence: +%d%%', 00H		; `string'
CONST	ENDS
;	COMDAT ??_C@_0CA@BMNDND@?$EA?$FLPREMIUM?$FN?5Wizard?5Damage?3?5?$CL?$CFd?$CF?$CF?$AA@
CONST	SEGMENT
??_C@_0CA@BMNDND@?$EA?$FLPREMIUM?$FN?5Wizard?5Damage?3?5?$CL?$CFd?$CF?$CF?$AA@ DB '@'
	DB	'[PREMIUM] Wizard Damage: +%d%%', 00H	; `string'
CONST	ENDS
;	COMDAT ??_C@_0BJ@HMOBPEHA@?$EA?$FLPREMIUM?$FN?5Damage?3?5?$CL?$CFd?$CF?$CF?$AA@
CONST	SEGMENT
??_C@_0BJ@HMOBPEHA@?$EA?$FLPREMIUM?$FN?5Damage?3?5?$CL?$CFd?$CF?$CF?$AA@ DB '@'
	DB	'[PREMIUM] Damage: +%d%%', 00H		; `string'
CONST	ENDS
;	COMDAT ??_C@_0BL@NDFEDM@?$EA?$FLPREMIUM?$FN?5Drop?5Zen?3?5?$CL?$CFd?$CF?$CF?$AA@
CONST	SEGMENT
??_C@_0BL@NDFEDM@?$EA?$FLPREMIUM?$FN?5Drop?5Zen?3?5?$CL?$CFd?$CF?$CF?$AA@ DB '@'
	DB	'[PREMIUM] Drop Zen: +%d%%', 00H		; `string'
CONST	ENDS
;	COMDAT ??_C@_0BN@JJILFFBN@?$EA?$FLPREMIUM?$FN?5Experience?3?5?$CL?$CFd?$CF?$CF?$AA@
CONST	SEGMENT
??_C@_0BN@JJILFFBN@?$EA?$FLPREMIUM?$FN?5Experience?3?5?$CL?$CFd?$CF?$CF?$AA@ DB '@'
	DB	'[PREMIUM] Experience: +%d%%', 00H		; `string'
CONST	ENDS
;	COMDAT ??_C@_06JOGMAFMB@GM?5Map?$AA@
CONST	SEGMENT
??_C@_06JOGMAFMB@GM?5Map?$AA@ DB 'GM Map', 00H		; `string'
CONST	ENDS
;	COMDAT ??_C@_0CE@IDHHPCBO@?$FLOffExp?$FN?5Works?5just?5outside?5of?5t@
CONST	SEGMENT
??_C@_0CE@IDHHPCBO@?$FLOffExp?$FN?5Works?5just?5outside?5of?5t@ DB '[OffE'
	DB	'xp] Works just outside of town', 00H	; `string'
CONST	ENDS
;	COMDAT ??_C@_0BI@CGJMHIKF@?$FLOffExp?$FN?5Need?5?$CFd?5Goblin?$AA@
CONST	SEGMENT
??_C@_0BI@CGJMHIKF@?$FLOffExp?$FN?5Need?5?$CFd?5Goblin?$AA@ DB '[OffExp] '
	DB	'Need %d Goblin', 00H			; `string'
CONST	ENDS
;	COMDAT ??_C@_0BI@LKOIBIFN@?$FLOffExp?$FN?5Need?5?$CFd?5WCoinP?$AA@
CONST	SEGMENT
??_C@_0BI@LKOIBIFN@?$FLOffExp?$FN?5Need?5?$CFd?5WCoinP?$AA@ DB '[OffExp] '
	DB	'Need %d WCoinP', 00H			; `string'
CONST	ENDS
;	COMDAT ??_C@_0BI@NLAHFJMP@?$FLOffExp?$FN?5Need?5?$CFd?5WCoinC?$AA@
CONST	SEGMENT
??_C@_0BI@NLAHFJMP@?$FLOffExp?$FN?5Need?5?$CFd?5WCoinC?$AA@ DB '[OffExp] '
	DB	'Need %d WCoinC', 00H			; `string'
CONST	ENDS
;	COMDAT ??_C@_0BI@KKCCEDNH@?$FLOffExp?$FN?5Need?5?$CFd?5Credit?$AA@
CONST	SEGMENT
??_C@_0BI@KKCCEDNH@?$FLOffExp?$FN?5Need?5?$CFd?5Credit?$AA@ DB '[OffExp] '
	DB	'Need %d Credit', 00H			; `string'
CONST	ENDS
;	COMDAT ??_C@_0BF@MAMJKDIJ@?$FLOffExp?$FN?5Need?5?$CFd?5Zen?$AA@
CONST	SEGMENT
??_C@_0BF@MAMJKDIJ@?$FLOffExp?$FN?5Need?5?$CFd?5Zen?$AA@ DB '[OffExp] Nee'
	DB	'd %d Zen', 00H				; `string'
CONST	ENDS
;	COMDAT ??_C@_0BB@BDLKINPJ@?$FLBuy?$FN?5?$CFd?5Credits?$AA@
CONST	SEGMENT
??_C@_0BB@BDLKINPJ@?$FLBuy?$FN?5?$CFd?5Credits?$AA@ DB '[Buy] %d Credits', 00H ; `string'
CONST	ENDS
;	COMDAT ??_C@_0P@HJIHFOLJ@?$FLBuy?$FN?5?$CFd?5Wcoin?$AA@
CONST	SEGMENT
??_C@_0P@HJIHFOLJ@?$FLBuy?$FN?5?$CFd?5Wcoin?$AA@ DB '[Buy] %d Wcoin', 00H ; `string'
CONST	ENDS
;	COMDAT ??_C@_0BG@FKEOOLNJ@?$FLBuy?$FN?5Need?5?$CFd?5Credits?$AA@
CONST	SEGMENT
??_C@_0BG@FKEOOLNJ@?$FLBuy?$FN?5Need?5?$CFd?5Credits?$AA@ DB '[Buy] Need '
	DB	'%d Credits', 00H				; `string'
CONST	ENDS
;	COMDAT ??_C@_0BE@EOJKDIHI@?$FLBuy?$FN?5Need?5?$CFd?5Bonus?$AA@
CONST	SEGMENT
??_C@_0BE@EOJKDIHI@?$FLBuy?$FN?5Need?5?$CFd?5Bonus?$AA@ DB '[Buy] Need %d'
	DB	' Bonus', 00H				; `string'
CONST	ENDS
;	COMDAT ??_C@_09FLDHBEND@Karutan?52?$AA@
CONST	SEGMENT
??_C@_09FLDHBEND@Karutan?52?$AA@ DB 'Karutan 2', 00H	; `string'
CONST	ENDS
;	COMDAT ??_C@_07OCAFKKPM@Karutan?$AA@
CONST	SEGMENT
??_C@_07OCAFKKPM@Karutan?$AA@ DB 'Karutan', 00H		; `string'
CONST	ENDS
;	COMDAT ??_C@_0N@PNCDMAOA@Loren?5Market?$AA@
CONST	SEGMENT
??_C@_0N@PNCDMAOA@Loren?5Market?$AA@ DB 'Loren Market', 00H ; `string'
CONST	ENDS
;	COMDAT ??_C@_0L@HHAFLHHC@Imperial?54?$AA@
CONST	SEGMENT
??_C@_0L@HHAFLHHC@Imperial?54?$AA@ DB 'Imperial 4', 00H	; `string'
CONST	ENDS
;	COMDAT ??_C@_0L@DIEECBLF@Imperial?53?$AA@
CONST	SEGMENT
??_C@_0L@DIEECBLF@Imperial?53?$AA@ DB 'Imperial 3', 00H	; `string'
CONST	ENDS
;	COMDAT ??_C@_0L@CBFPBAPE@Imperial?52?$AA@
CONST	SEGMENT
??_C@_0L@CBFPBAPE@Imperial?52?$AA@ DB 'Imperial 2', 00H	; `string'
CONST	ENDS
;	COMDAT ??_C@_0L@KHCEDDH@Imperial?51?$AA@
CONST	SEGMENT
??_C@_0L@KHCEDDH@Imperial?51?$AA@ DB 'Imperial 1', 00H	; `string'
CONST	ENDS
;	COMDAT ??_C@_0O@KEFHLJKC@Double?5Goer?54?$AA@
CONST	SEGMENT
??_C@_0O@KEFHLJKC@Double?5Goer?54?$AA@ DB 'Double Goer 4', 00H ; `string'
CONST	ENDS
;	COMDAT ??_C@_0O@OLBGCPGF@Double?5Goer?53?$AA@
CONST	SEGMENT
??_C@_0O@OLBGCPGF@Double?5Goer?53?$AA@ DB 'Double Goer 3', 00H ; `string'
CONST	ENDS
;	COMDAT ??_C@_0O@PCANBOCE@Double?5Goer?52?$AA@
CONST	SEGMENT
??_C@_0O@PCANBOCE@Double?5Goer?52?$AA@ DB 'Double Goer 2', 00H ; `string'
CONST	ENDS
;	COMDAT ??_C@_0O@NJCAENOH@Double?5Goer?51?$AA@
CONST	SEGMENT
??_C@_0O@NJCAENOH@Double?5Goer?51?$AA@ DB 'Double Goer 1', 00H ; `string'
CONST	ENDS
;	COMDAT ??_C@_0M@EAGBBPA@Vulcan?5Room?$AA@
CONST	SEGMENT
??_C@_0M@EAGBBPA@Vulcan?5Room?$AA@ DB 'Vulcan Room', 00H ; `string'
CONST	ENDS
;	COMDAT ??_C@_06LOEDEFOB@Vulcan?$AA@
CONST	SEGMENT
??_C@_06LOEDEFOB@Vulcan?$AA@ DB 'Vulcan', 00H		; `string'
CONST	ENDS
;	COMDAT ??_C@_0L@NJMBKLOB@Santa?5Town?$AA@
CONST	SEGMENT
??_C@_0L@NJMBKLOB@Santa?5Town?$AA@ DB 'Santa Town', 00H	; `string'
CONST	ENDS
;	COMDAT ??_C@_0N@KEHJEJIE@Raklion?5Boss?$AA@
CONST	SEGMENT
??_C@_0N@KEHJEJIE@Raklion?5Boss?$AA@ DB 'Raklion Boss', 00H ; `string'
CONST	ENDS
;	COMDAT ??_C@_07GADFIEBE@Raklion?$AA@
CONST	SEGMENT
??_C@_07GADFIEBE@Raklion?$AA@ DB 'Raklion', 00H		; `string'
CONST	ENDS
;	COMDAT ??_C@_0BC@BMNEEACA@Swamp?5Of?5Calmness?$AA@
CONST	SEGMENT
??_C@_0BC@BMNEEACA@Swamp?5Of?5Calmness?$AA@ DB 'Swamp Of Calmness', 00H ; `string'
CONST	ENDS
;	COMDAT ??_C@_0P@DAEACODP@Devil?5Squere?57?$AA@
CONST	SEGMENT
??_C@_0P@DAEACODP@Devil?5Squere?57?$AA@ DB 'Devil Squere 7', 00H ; `string'
CONST	ENDS
;	COMDAT ??_C@_0P@KDANNKKM@Chaos?5Castle?57?$AA@
CONST	SEGMENT
??_C@_0P@KDANNKKM@Chaos?5Castle?57?$AA@ DB 'Chaos Castle 7', 00H ; `string'
CONST	ENDS
;	COMDAT ??_C@_0P@PJOJEPGI@Blood?5Castle?58?$AA@
CONST	SEGMENT
??_C@_0P@PJOJEPGI@Blood?5Castle?58?$AA@ DB 'Blood Castle 8', 00H ; `string'
CONST	ENDS
;	COMDAT ??_C@_07OBGILBCL@Elblend?$AA@
CONST	SEGMENT
??_C@_07OBGILBCL@Elblend?$AA@ DB 'Elblend', 00H		; `string'
CONST	ENDS
;	COMDAT ??_C@_0BC@CIODICBO@Illusion?5Temple?56?$AA@
CONST	SEGMENT
??_C@_0BC@CIODICBO@Illusion?5Temple?56?$AA@ DB 'Illusion Temple 6', 00H ; `string'
CONST	ENDS
;	COMDAT ??_C@_0BC@DMONBNN@Illusion?5Temple?55?$AA@
CONST	SEGMENT
??_C@_0BC@DMONBNN@Illusion?5Temple?55?$AA@ DB 'Illusion Temple 5', 00H ; `string'
CONST	ENDS
;	COMDAT ??_C@_0BC@BKNFOAJM@Illusion?5Temple?54?$AA@
CONST	SEGMENT
??_C@_0BC@BKNFOAJM@Illusion?5Temple?54?$AA@ DB 'Illusion Temple 4', 00H ; `string'
CONST	ENDS
;	COMDAT ??_C@_0BC@FFJEHGFL@Illusion?5Temple?53?$AA@
CONST	SEGMENT
??_C@_0BC@FFJEHGFL@Illusion?5Temple?53?$AA@ DB 'Illusion Temple 3', 00H ; `string'
CONST	ENDS
;	COMDAT ??_C@_0BC@EMIPEHBK@Illusion?5Temple?52?$AA@
CONST	SEGMENT
??_C@_0BC@EMIPEHBK@Illusion?5Temple?52?$AA@ DB 'Illusion Temple 2', 00H ; `string'
CONST	ENDS
;	COMDAT ??_C@_0BC@GHKCBENJ@Illusion?5Temple?51?$AA@
CONST	SEGMENT
??_C@_0BC@GHKCBENJ@Illusion?5Temple?51?$AA@ DB 'Illusion Temple 1', 00H ; `string'
CONST	ENDS
;	COMDAT ??_C@_0O@PEMOBAPG@Balgas?5Refuge?$AA@
CONST	SEGMENT
??_C@_0O@PEMOBAPG@Balgas?5Refuge?$AA@ DB 'Balgas Refuge', 00H ; `string'
CONST	ENDS
;	COMDAT ??_C@_0O@FHBIHDBH@Balgas?5Baraks?$AA@
CONST	SEGMENT
??_C@_0O@FHBIHDBH@Balgas?5Baraks?$AA@ DB 'Balgas Baraks', 00H ; `string'
CONST	ENDS
;	COMDAT ??_C@_0N@BKFGNFED@Kanturu?5Boss?$AA@
CONST	SEGMENT
??_C@_0N@BKFGNFED@Kanturu?5Boss?$AA@ DB 'Kanturu Boss', 00H ; `string'
CONST	ENDS
;	COMDAT ??_C@_0O@PBLCAFMO@Kanturu?5Relic?$AA@
CONST	SEGMENT
??_C@_0O@PBLCAFMO@Kanturu?5Relic?$AA@ DB 'Kanturu Relic', 00H ; `string'
CONST	ENDS
;	COMDAT ??_C@_07KEJLPAHK@Kanturu?$AA@
CONST	SEGMENT
??_C@_07KEJLPAHK@Kanturu?$AA@ DB 'Kanturu', 00H		; `string'
CONST	ENDS
;	COMDAT ??_C@_08HAOPGLOD@Kalima?57?$AA@
CONST	SEGMENT
??_C@_08HAOPGLOD@Kalima?57?$AA@ DB 'Kalima 7', 00H	; `string'
CONST	ENDS
;	COMDAT ??_C@_08PFNMNIFL@Cry?5Wolf?$AA@
CONST	SEGMENT
??_C@_08PFNMNIFL@Cry?5Wolf?$AA@ DB 'Cry Wolf', 00H	; `string'
CONST	ENDS
;	COMDAT ??_C@_04CJFIPIII@Aida?$AA@
CONST	SEGMENT
??_C@_04CJFIPIII@Aida?$AA@ DB 'Aida', 00H		; `string'
CONST	ENDS
;	COMDAT ??_C@_0O@PCDCCCEO@Land?5Of?5Trial?$AA@
CONST	SEGMENT
??_C@_0O@PCDCCCEO@Land?5Of?5Trial?$AA@ DB 'Land Of Trial', 00H ; `string'
CONST	ENDS
;	COMDAT ??_C@_06NHLAJDOI@Castle?$AA@
CONST	SEGMENT
??_C@_06NHLAJDOI@Castle?$AA@ DB 'Castle', 00H		; `string'
CONST	ENDS
;	COMDAT ??_C@_08GJPEFKKC@Kalima?56?$AA@
CONST	SEGMENT
??_C@_08GJPEFKKC@Kalima?56?$AA@ DB 'Kalima 6', 00H	; `string'
CONST	ENDS
;	COMDAT ??_C@_08ECNJAJGB@Kalima?55?$AA@
CONST	SEGMENT
??_C@_08ECNJAJGB@Kalima?55?$AA@ DB 'Kalima 5', 00H	; `string'
CONST	ENDS
;	COMDAT ??_C@_08FLMCDICA@Kalima?54?$AA@
CONST	SEGMENT
??_C@_08FLMCDICA@Kalima?54?$AA@ DB 'Kalima 4', 00H	; `string'
CONST	ENDS
;	COMDAT ??_C@_08BEIDKOOH@Kalima?53?$AA@
CONST	SEGMENT
??_C@_08BEIDKOOH@Kalima?53?$AA@ DB 'Kalima 3', 00H	; `string'
CONST	ENDS
;	COMDAT ??_C@_08NJIJPKG@Kalima?52?$AA@
CONST	SEGMENT
??_C@_08NJIJPKG@Kalima?52?$AA@ DB 'Kalima 2', 00H	; `string'
CONST	ENDS
;	COMDAT ??_C@_08CGLFMMGF@Kalima?51?$AA@
CONST	SEGMENT
??_C@_08CGLFMMGF@Kalima?51?$AA@ DB 'Kalima 1', 00H	; `string'
CONST	ENDS
;	COMDAT ??_C@_0P@LKBGOLON@Chaos?5Castle?56?$AA@
CONST	SEGMENT
??_C@_0P@LKBGOLON@Chaos?5Castle?56?$AA@ DB 'Chaos Castle 6', 00H ; `string'
CONST	ENDS
;	COMDAT ??_C@_0P@JBDLLICO@Chaos?5Castle?55?$AA@
CONST	SEGMENT
??_C@_0P@JBDLLICO@Chaos?5Castle?55?$AA@ DB 'Chaos Castle 5', 00H ; `string'
CONST	ENDS
;	COMDAT ??_C@_0P@IICAIJGP@Chaos?5Castle?54?$AA@
CONST	SEGMENT
??_C@_0P@IICAIJGP@Chaos?5Castle?54?$AA@ DB 'Chaos Castle 4', 00H ; `string'
CONST	ENDS
;	COMDAT ??_C@_0P@MHGBBPKI@Chaos?5Castle?53?$AA@
CONST	SEGMENT
??_C@_0P@MHGBBPKI@Chaos?5Castle?53?$AA@ DB 'Chaos Castle 3', 00H ; `string'
CONST	ENDS
;	COMDAT ??_C@_0P@NOHKCOOJ@Chaos?5Castle?52?$AA@
CONST	SEGMENT
??_C@_0P@NOHKCOOJ@Chaos?5Castle?52?$AA@ DB 'Chaos Castle 2', 00H ; `string'
CONST	ENDS
;	COMDAT ??_C@_0P@PFFHHNCK@Chaos?5Castle?51?$AA@
CONST	SEGMENT
??_C@_0P@PFFHHNCK@Chaos?5Castle?51?$AA@ DB 'Chaos Castle 1', 00H ; `string'
CONST	ENDS
;	COMDAT ??_C@_0P@HOHBFDKH@Blood?5Castle?57?$AA@
CONST	SEGMENT
??_C@_0P@HOHBFDKH@Blood?5Castle?57?$AA@ DB 'Blood Castle 7', 00H ; `string'
CONST	ENDS
;	COMDAT ??_C@_0P@GHGKGCOG@Blood?5Castle?56?$AA@
CONST	SEGMENT
??_C@_0P@GHGKGCOG@Blood?5Castle?56?$AA@ DB 'Blood Castle 6', 00H ; `string'
CONST	ENDS
;	COMDAT ??_C@_0P@EMEHDBCF@Blood?5Castle?55?$AA@
CONST	SEGMENT
??_C@_0P@EMEHDBCF@Blood?5Castle?55?$AA@ DB 'Blood Castle 5', 00H ; `string'
CONST	ENDS
;	COMDAT ??_C@_0P@FFFMAAGE@Blood?5Castle?54?$AA@
CONST	SEGMENT
??_C@_0P@FFFMAAGE@Blood?5Castle?54?$AA@ DB 'Blood Castle 4', 00H ; `string'
CONST	ENDS
;	COMDAT ??_C@_0P@BKBNJGKD@Blood?5Castle?53?$AA@
CONST	SEGMENT
??_C@_0P@BKBNJGKD@Blood?5Castle?53?$AA@ DB 'Blood Castle 3', 00H ; `string'
CONST	ENDS
;	COMDAT ??_C@_0P@DAGKHOC@Blood?5Castle?52?$AA@
CONST	SEGMENT
??_C@_0P@DAGKHOC@Blood?5Castle?52?$AA@ DB 'Blood Castle 2', 00H ; `string'
CONST	ENDS
;	COMDAT ??_C@_0P@CICLPECB@Blood?5Castle?51?$AA@
CONST	SEGMENT
??_C@_0P@CICLPECB@Blood?5Castle?51?$AA@ DB 'Blood Castle 1', 00H ; `string'
CONST	ENDS
;	COMDAT ??_C@_06OCMNLLL@Icarus?$AA@
CONST	SEGMENT
??_C@_06OCMNLLL@Icarus?$AA@ DB 'Icarus', 00H		; `string'
CONST	ENDS
;	COMDAT ??_C@_0M@DFALAJPK@DevilSquare?$AA@
CONST	SEGMENT
??_C@_0M@DFALAJPK@DevilSquare?$AA@ DB 'DevilSquare', 00H ; `string'
CONST	ENDS
;	COMDAT ??_C@_06KLPPBFEJ@Tarkan?$AA@
CONST	SEGMENT
??_C@_06KLPPBFEJ@Tarkan?$AA@ DB 'Tarkan', 00H		; `string'
CONST	ENDS
;	COMDAT ??_C@_06IJFPNHKO@Atlans?$AA@
CONST	SEGMENT
??_C@_06IJFPNHKO@Atlans?$AA@ DB 'Atlans', 00H		; `string'
CONST	ENDS
;	COMDAT ??_C@_05DLHMIPMH@Arena?$AA@
CONST	SEGMENT
??_C@_05DLHMIPMH@Arena?$AA@ DB 'Arena', 00H		; `string'
CONST	ENDS
;	COMDAT ??_C@_09IFBHMHO@LostTower?$AA@
CONST	SEGMENT
??_C@_09IFBHMHO@LostTower?$AA@ DB 'LostTower', 00H	; `string'
CONST	ENDS
;	COMDAT ??_C@_05JKNLBHIC@Noria?$AA@
CONST	SEGMENT
??_C@_05JKNLBHIC@Noria?$AA@ DB 'Noria', 00H		; `string'
CONST	ENDS
;	COMDAT ??_C@_06PHFFMJMG@Devias?$AA@
CONST	SEGMENT
??_C@_06PHFFMJMG@Devias?$AA@ DB 'Devias', 00H		; `string'
CONST	ENDS
;	COMDAT ??_C@_07CELLBLHP@Dungeon?$AA@
CONST	SEGMENT
??_C@_07CELLBLHP@Dungeon?$AA@ DB 'Dungeon', 00H		; `string'
CONST	ENDS
;	COMDAT ??_C@_08DPCEMNDG@Lorencia?$AA@
CONST	SEGMENT
??_C@_08DPCEMNDG@Lorencia?$AA@ DB 'Lorencia', 00H	; `string'
CONST	ENDS
;	COMDAT ??_C@_0BK@BDHNBLOG@?$FLJewelsBank?$FN?5Recv?5?$CFd?5Life?$AA@
CONST	SEGMENT
??_C@_0BK@BDHNBLOG@?$FLJewelsBank?$FN?5Recv?5?$CFd?5Life?$AA@ DB '[Jewels'
	DB	'Bank] Recv %d Life', 00H			; `string'
CONST	ENDS
;	COMDAT ??_C@_0BI@MHFJLCGA@?$FLJewelsBank?$FN?5No?5?$CFd?5Life?$AA@
CONST	SEGMENT
??_C@_0BI@MHFJLCGA@?$FLJewelsBank?$FN?5No?5?$CFd?5Life?$AA@ DB '[JewelsBa'
	DB	'nk] No %d Life', 00H			; `string'
CONST	ENDS
;	COMDAT ??_C@_0BK@BLAEOCAJ@?$FLJewelsBank?$FN?5Recv?5?$CFd?5Soul?$AA@
CONST	SEGMENT
??_C@_0BK@BLAEOCAJ@?$FLJewelsBank?$FN?5Recv?5?$CFd?5Soul?$AA@ DB '[Jewels'
	DB	'Bank] Recv %d Soul', 00H			; `string'
CONST	ENDS
;	COMDAT ??_C@_0BI@MPCAELIP@?$FLJewelsBank?$FN?5No?5?$CFd?5Soul?$AA@
CONST	SEGMENT
??_C@_0BI@MPCAELIP@?$FLJewelsBank?$FN?5No?5?$CFd?5Soul?$AA@ DB '[JewelsBa'
	DB	'nk] No %d Soul', 00H			; `string'
CONST	ENDS
;	COMDAT ??_C@_0BL@LFJMIOEP@?$FLJewelsBank?$FN?5Recv?5?$CFd?5Bless?$AA@
CONST	SEGMENT
??_C@_0BL@LFJMIOEP@?$FLJewelsBank?$FN?5Recv?5?$CFd?5Bless?$AA@ DB '[Jewel'
	DB	'sBank] Recv %d Bless', 00H			; `string'
CONST	ENDS
;	COMDAT ??_C@_0BJ@LBJDIMPD@?$FLJewelsBank?$FN?5No?5?$CFd?5Bless?$AA@
CONST	SEGMENT
??_C@_0BJ@LBJDIMPD@?$FLJewelsBank?$FN?5No?5?$CFd?5Bless?$AA@ DB '[JewelsB'
	DB	'ank] No %d Bless', 00H			; `string'
CONST	ENDS
;	COMDAT ??_C@_0BL@BBBODGGJ@?$FLJewelsBank?$FN?5Recv?5?$CFd?5Chaos?$AA@
CONST	SEGMENT
??_C@_0BL@BBBODGGJ@?$FLJewelsBank?$FN?5Recv?5?$CFd?5Chaos?$AA@ DB '[Jewel'
	DB	'sBank] Recv %d Chaos', 00H			; `string'
CONST	ENDS
;	COMDAT ??_C@_0BK@KJOAAKB@?$FLJewelsBank?$FN?5Inventory?5?$CFd?$AA@
CONST	SEGMENT
??_C@_0BK@KJOAAKB@?$FLJewelsBank?$FN?5Inventory?5?$CFd?$AA@ DB '[JewelsBa'
	DB	'nk] Inventory %d', 00H			; `string'
CONST	ENDS
;	COMDAT ??_C@_0BJ@BFBBDENF@?$FLJewelsBank?$FN?5No?5?$CFd?5Chaos?$AA@
CONST	SEGMENT
??_C@_0BJ@BFBBDENF@?$FLJewelsBank?$FN?5No?5?$CFd?5Chaos?$AA@ DB '[JewelsB'
	DB	'ank] No %d Chaos', 00H			; `string'
CONST	ENDS
;	COMDAT ??_C@_0BK@CGCENOLB@?$FLJewelsBank?$FN?5Send?5?$CFd?5Life?$AA@
CONST	SEGMENT
??_C@_0BK@CGCENOLB@?$FLJewelsBank?$FN?5Send?5?$CFd?5Life?$AA@ DB '[Jewels'
	DB	'Bank] Send %d Life', 00H			; `string'
CONST	ENDS
;	COMDAT ??_C@_0BK@PGCOJPFB@?$FLJewelsBank?$FN?5Need?5?$CFd?5Life?$AA@
CONST	SEGMENT
??_C@_0BK@PGCOJPFB@?$FLJewelsBank?$FN?5Need?5?$CFd?5Life?$AA@ DB '[Jewels'
	DB	'Bank] Need %d Life', 00H			; `string'
CONST	ENDS
;	COMDAT ??_C@_0BK@COFNCHFO@?$FLJewelsBank?$FN?5Send?5?$CFd?5Soul?$AA@
CONST	SEGMENT
??_C@_0BK@COFNCHFO@?$FLJewelsBank?$FN?5Send?5?$CFd?5Soul?$AA@ DB '[Jewels'
	DB	'Bank] Send %d Soul', 00H			; `string'
CONST	ENDS
;	COMDAT ??_C@_0BK@POFHGGLO@?$FLJewelsBank?$FN?5Need?5?$CFd?5Soul?$AA@
CONST	SEGMENT
??_C@_0BK@POFHGGLO@?$FLJewelsBank?$FN?5Need?5?$CFd?5Soul?$AA@ DB '[Jewels'
	DB	'Bank] Need %d Soul', 00H			; `string'
CONST	ENDS
;	COMDAT ??_C@_0BL@EAKGBDNN@?$FLJewelsBank?$FN?5Send?5?$CFd?5Bless?$AA@
CONST	SEGMENT
??_C@_0BL@EAKGBDNN@?$FLJewelsBank?$FN?5Send?5?$CFd?5Bless?$AA@ DB '[Jewel'
	DB	'sBank] Send %d Bless', 00H			; `string'
CONST	ENDS
;	COMDAT ??_C@_0BL@OAHMPLOE@?$FLJewelsBank?$FN?5Need?5?$CFd?5Bless?$AA@
CONST	SEGMENT
??_C@_0BL@OAHMPLOE@?$FLJewelsBank?$FN?5Need?5?$CFd?5Bless?$AA@ DB '[Jewel'
	DB	'sBank] Need %d Bless', 00H			; `string'
CONST	ENDS
;	COMDAT ??_C@_0BL@OECEKLPL@?$FLJewelsBank?$FN?5Send?5?$CFd?5Chaos?$AA@
CONST	SEGMENT
??_C@_0BL@OECEKLPL@?$FLJewelsBank?$FN?5Send?5?$CFd?5Chaos?$AA@ DB '[Jewel'
	DB	'sBank] Send %d Chaos', 00H			; `string'
CONST	ENDS
;	COMDAT ??_C@_0BL@EEPOEDMC@?$FLJewelsBank?$FN?5Need?5?$CFd?5Chaos?$AA@
CONST	SEGMENT
??_C@_0BL@EEPOEDMC@?$FLJewelsBank?$FN?5Need?5?$CFd?5Chaos?$AA@ DB '[Jewel'
	DB	'sBank] Need %d Chaos', 00H			; `string'
CONST	ENDS
;	COMDAT ??_C@_0O@IMAIFDDM@?1recvlifebank?$AA@
CONST	SEGMENT
??_C@_0O@IMAIFDDM@?1recvlifebank?$AA@ DB '/recvlifebank', 00H ; `string'
CONST	ENDS
;	COMDAT ??_C@_0O@EICHAAIA@?1recvsoulbank?$AA@
CONST	SEGMENT
??_C@_0O@EICHAAIA@?1recvsoulbank?$AA@ DB '/recvsoulbank', 00H ; `string'
CONST	ENDS
;	COMDAT ??_C@_0P@KGLHGEAA@?1recvblessbank?$AA@
CONST	SEGMENT
??_C@_0P@KGLHGEAA@?1recvblessbank?$AA@ DB '/recvblessbank', 00H ; `string'
CONST	ENDS
;	COMDAT ??_C@_0P@DAKNKGHC@?1recvchaosbank?$AA@
CONST	SEGMENT
??_C@_0P@DAKNKGHC@?1recvchaosbank?$AA@ DB '/recvchaosbank', 00H ; `string'
CONST	ENDS
;	COMDAT ??_C@_0O@LJFBJGGL@?1sendlifebank?$AA@
CONST	SEGMENT
??_C@_0O@LJFBJGGL@?1sendlifebank?$AA@ DB '/sendlifebank', 00H ; `string'
CONST	ENDS
;	COMDAT ??_C@_0O@HNHOMFNH@?1sendsoulbank?$AA@
CONST	SEGMENT
??_C@_0O@HNHOMFNH@?1sendsoulbank?$AA@ DB '/sendsoulbank', 00H ; `string'
CONST	ENDS
;	COMDAT ??_C@_0P@FDINPJJC@?1sendblessbank?$AA@
CONST	SEGMENT
??_C@_0P@FDINPJJC@?1sendblessbank?$AA@ DB '/sendblessbank', 00H ; `string'
CONST	ENDS
;	COMDAT ??_C@_0P@MFJHDLOA@?1sendchaosbank?$AA@
CONST	SEGMENT
??_C@_0P@MFJHDLOA@?1sendchaosbank?$AA@ DB '/sendchaosbank', 00H ; `string'
CONST	ENDS
;	COMDAT ??_C@_08DFICILBJ@?1offlife?$AA@
CONST	SEGMENT
??_C@_08DFICILBJ@?1offlife?$AA@ DB '/offlife', 00H	; `string'
CONST	ENDS
;	COMDAT ??_C@_08DNPLHCPG@?1offsoul?$AA@
CONST	SEGMENT
??_C@_08DNPLHCPG@?1offsoul?$AA@ DB '/offsoul', 00H	; `string'
CONST	ENDS
;	COMDAT ??_C@_09JILIJOFC@?1offbless?$AA@
CONST	SEGMENT
??_C@_09JILIJOFC@?1offbless?$AA@ DB '/offbless', 00H	; `string'
CONST	ENDS
;	COMDAT ??_C@_09DMDKCGHE@?1offchaos?$AA@
CONST	SEGMENT
??_C@_09DMDKCGHE@?1offchaos?$AA@ DB '/offchaos', 00H	; `string'
CONST	ENDS
;	COMDAT ??_C@_0L@BMECOBJ@?1offgoblin?$AA@
CONST	SEGMENT
??_C@_0L@BMECOBJ@?1offgoblin?$AA@ DB '/offgoblin', 00H	; `string'
CONST	ENDS
;	COMDAT ??_C@_0L@PJIGPHF@?1offwcoinp?$AA@
CONST	SEGMENT
??_C@_0L@PJIGPHF@?1offwcoinp?$AA@ DB '/offwcoinp', 00H	; `string'
CONST	ENDS
;	COMDAT ??_C@_0L@GOHHCOOH@?1offwcoinc?$AA@
CONST	SEGMENT
??_C@_0L@GOHHCOOH@?1offwcoinc?$AA@ DB '/offwcoinc', 00H	; `string'
CONST	ENDS
;	COMDAT ??_C@_0L@INHKBFGL@?1offcredit?$AA@
CONST	SEGMENT
??_C@_0L@INHKBFGL@?1offcredit?$AA@ DB '/offcredit', 00H	; `string'
CONST	ENDS
;	COMDAT ??_C@_07LOEKANNA@?1offzen?$AA@
CONST	SEGMENT
??_C@_07LOEKANNA@?1offzen?$AA@ DB '/offzen', 00H	; `string'
CONST	ENDS
;	COMDAT ??_C@_0BG@HHGJIIOJ@?$FLPkClear?$FN?5Need?5?$CFd?5Zen?$AA@
CONST	SEGMENT
??_C@_0BG@HHGJIIOJ@?$FLPkClear?$FN?5Need?5?$CFd?5Zen?$AA@ DB '[PkClear] N'
	DB	'eed %d Zen', 00H				; `string'
CONST	ENDS
;	COMDAT ??_C@_0BI@KLKJIHEI@?$FLPkClear?$FN?5Need?5?$CFd?5Level?$AA@
CONST	SEGMENT
??_C@_0BI@KLKJIHEI@?$FLPkClear?$FN?5Need?5?$CFd?5Level?$AA@ DB '[PkClear]'
	DB	' Need %d Level', 00H			; `string'
CONST	ENDS
;	COMDAT ??_C@_0BE@BKBFMADO@?$FLAdd?$FN?5Need?5?$CFd?5level?$AA@
CONST	SEGMENT
??_C@_0BE@BKBFMADO@?$FLAdd?$FN?5Need?5?$CFd?5level?$AA@ DB '[Add] Need %d'
	DB	' level', 00H				; `string'
CONST	ENDS
;	COMDAT ??_C@_0BC@GEGHIIJH@?$FLAdd?$FN?5Need?5?$CFd?5zen?$AA@
CONST	SEGMENT
??_C@_0BC@GEGHIIJH@?$FLAdd?$FN?5Need?5?$CFd?5zen?$AA@ DB '[Add] Need %d z'
	DB	'en', 00H					; `string'
CONST	ENDS
;	COMDAT ??_C@_0BP@LBHMNDCK@?$FLChange?5Class?$FN?3?5Need?5?$CFd?5Credit?$AA@
CONST	SEGMENT
??_C@_0BP@LBHMNDCK@?$FLChange?5Class?$FN?3?5Need?5?$CFd?5Credit?$AA@ DB '['
	DB	'Change Class]: Need %d Credit', 00H		; `string'
CONST	ENDS
;	COMDAT ??_C@_0CJ@LADKEPDC@?$FLChange?5Class?$FN?3?5You?5need?5Empty?5I@
CONST	SEGMENT
??_C@_0CJ@LADKEPDC@?$FLChange?5Class?$FN?3?5You?5need?5Empty?5I@ DB '[Cha'
	DB	'nge Class]: You need Empty Inventory', 00H	; `string'
CONST	ENDS
;	COMDAT ??_C@_0CD@KGGNMMG@?$FLCredit?5Donate?$FN?3?5Sell?5?$CF?42f?5Credi@
CONST	SEGMENT
??_C@_0CD@KGGNMMG@?$FLCredit?5Donate?$FN?3?5Sell?5?$CF?42f?5Credi@ DB '[C'
	DB	'redit Donate]: Sell %.2f Credits', 00H	; `string'
CONST	ENDS
;	COMDAT ??_C@_0CE@GBGJMDIH@?$FLCredit?5Donate?$FN?3?5Buy?3?5?$CFs?0?5Price?3@
CONST	SEGMENT
??_C@_0CE@GBGJMDIH@?$FLCredit?5Donate?$FN?3?5Buy?3?5?$CFs?0?5Price?3@ DB '['
	DB	'Credit Donate]: Buy: %s, Price: %d', 00H	; `string'
CONST	ENDS
;	COMDAT ??_C@_0CB@OOHAKKEO@?$FLCredit?5Donate?$FN?3?5Need?5?$CFd?5Credits@
CONST	SEGMENT
??_C@_0CB@OOHAKKEO@?$FLCredit?5Donate?$FN?3?5Need?5?$CFd?5Credits@ DB '[C'
	DB	'redit Donate]: Need %d Credits', 00H	; `string'
CONST	ENDS
;	COMDAT ??_C@_0DN@GJKGEGIC@?$FLCredit?5Donate?$FN?3?5Need?5to?5make?5sp@
CONST	SEGMENT
??_C@_0DN@GJKGEGIC@?$FLCredit?5Donate?$FN?3?5Need?5to?5make?5sp@ DB '[Cre'
	DB	'dit Donate]: Need to make space in the inventory (%dx%d)', 00H ; `string'
CONST	ENDS
;	COMDAT ??_C@_0CE@FPHGEDKP@?$FLCredit?5Donate?$FN?3Buy?5Premium?5Need@
CONST	SEGMENT
??_C@_0CE@FPHGEDKP@?$FLCredit?5Donate?$FN?3Buy?5Premium?5Need@ DB '[Credi'
	DB	't Donate]:Buy Premium Need %d', 00H		; `string'
CONST	ENDS
;	COMDAT ??_C@_0CD@OPBOIPPI@?$FLCredit?5Donate?$FN?3Buy?5Goblin?5Need?5@
CONST	SEGMENT
??_C@_0CD@OPBOIPPI@?$FLCredit?5Donate?$FN?3Buy?5Goblin?5Need?5@ DB '[Cred'
	DB	'it Donate]:Buy Goblin Need %d', 00H		; `string'
CONST	ENDS
;	COMDAT ??_C@_0CL@DPCNHNIA@?$FLCredit?5Donate?$FN?3Buy?5Goblin?5Multi@
CONST	SEGMENT
??_C@_0CL@DPCNHNIA@?$FLCredit?5Donate?$FN?3Buy?5Goblin?5Multi@ DB '[Credi'
	DB	't Donate]:Buy Goblin Multiple of 100', 00H	; `string'
CONST	ENDS
;	COMDAT ??_C@_0CF@IBIBCJGE@?$FLCredit?5Donate?$FN?3Buy?5Wcoin?$CIP?$CJ?5Nee@
CONST	SEGMENT
??_C@_0CF@IBIBCJGE@?$FLCredit?5Donate?$FN?3Buy?5Wcoin?$CIP?$CJ?5Nee@ DB '['
	DB	'Credit Donate]:Buy Wcoin(P) Need %d', 00H	; `string'
CONST	ENDS
;	COMDAT ??_C@_0CN@KJELFHNA@?$FLCredit?5Donate?$FN?3Buy?5Wcoin?$CIP?$CJ?5Mul@
CONST	SEGMENT
??_C@_0CN@KJELFHNA@?$FLCredit?5Donate?$FN?3Buy?5Wcoin?$CIP?$CJ?5Mul@ DB '['
	DB	'Credit Donate]:Buy Wcoin(P) Multiple of 100', 00H ; `string'
CONST	ENDS
;	COMDAT ??_C@_0CC@KIFIBJEP@?$FLCredit?5Donate?$FN?3Buy?5Wcoin?5Need?5?$CF@
CONST	SEGMENT
??_C@_0CC@KIFIBJEP@?$FLCredit?5Donate?$FN?3Buy?5Wcoin?5Need?5?$CF@ DB '[C'
	DB	'redit Donate]:Buy Wcoin Need %d', 00H	; `string'
CONST	ENDS
;	COMDAT ??_C@_0CK@FMNEIMBA@?$FLCredit?5Donate?$FN?3Buy?5Wcoin?5Multip@
CONST	SEGMENT
??_C@_0CK@FMNEIMBA@?$FLCredit?5Donate?$FN?3Buy?5Wcoin?5Multip@ DB '[Credi'
	DB	't Donate]:Buy Wcoin Multiple of 100', 00H	; `string'
CONST	ENDS
;	COMDAT ??_C@_0CD@MKHEPPBN@?$FLMonster?5Bonus?$FN?3?5?$CL?$CFd?5Goblin?5Poin@
CONST	SEGMENT
??_C@_0CD@MKHEPPBN@?$FLMonster?5Bonus?$FN?3?5?$CL?$CFd?5Goblin?5Poin@ DB '['
	DB	'Monster Bonus]: +%d Goblin Points', 00H	; `string'
CONST	ENDS
;	COMDAT ??_C@_0BM@OBHKPNPP@?$FLMonster?5Bonus?$FN?3?5?$CL?$CFd?5WcoinP?$AA@
CONST	SEGMENT
??_C@_0BM@OBHKPNPP@?$FLMonster?5Bonus?$FN?3?5?$CL?$CFd?5WcoinP?$AA@ DB '['
	DB	'Monster Bonus]: +%d WcoinP', 00H		; `string'
CONST	ENDS
;	COMDAT ??_C@_0BM@IAJFLMGN@?$FLMonster?5Bonus?$FN?3?5?$CL?$CFd?5WcoinC?$AA@
CONST	SEGMENT
??_C@_0BM@IAJFLMGN@?$FLMonster?5Bonus?$FN?3?5?$CL?$CFd?5WcoinC?$AA@ DB '['
	DB	'Monster Bonus]: +%d WcoinC', 00H		; `string'
CONST	ENDS
;	COMDAT ??_C@_0BN@OLDBCGLM@?$FLMonster?5Bonus?$FN?3?5?$CL?$CFd?5Credits?$AA@
CONST	SEGMENT
??_C@_0BN@OLDBCGLM@?$FLMonster?5Bonus?$FN?3?5?$CL?$CFd?5Credits?$AA@ DB '['
	DB	'Monster Bonus]: +%d Credits', 00H		; `string'
CONST	ENDS
;	COMDAT ??_C@_0BJ@FNBNDKKL@?$EA?$FL?$CFs?$FN?3?5Goblin?5Points?5?$CFd?$CB?$AA@
CONST	SEGMENT
??_C@_0BJ@FNBNDKKL@?$EA?$FL?$CFs?$FN?3?5Goblin?5Points?5?$CFd?$CB?$AA@ DB '@'
	DB	'[%s]: Goblin Points %d!', 00H		; `string'
CONST	ENDS
;	COMDAT ??_C@_0BC@DIEIONHB@?$EA?$FL?$CFs?$FN?3?5WCoinP?5?$CFd?$CB?$AA@
CONST	SEGMENT
??_C@_0BC@DIEIONHB@?$EA?$FL?$CFs?$FN?3?5WCoinP?5?$CFd?$CB?$AA@ DB '@[%s]:'
	DB	' WCoinP %d!', 00H				; `string'
CONST	ENDS
;	COMDAT ??_C@_0BC@LNAKJNEE@?$EA?$FL?$CFs?$FN?3?5WCoinC?5?$CFd?$CB?$AA@
CONST	SEGMENT
??_C@_0BC@LNAKJNEE@?$EA?$FL?$CFs?$FN?3?5WCoinC?5?$CFd?$CB?$AA@ DB '@[%s]:'
	DB	' WCoinC %d!', 00H				; `string'
CONST	ENDS
;	COMDAT ??_C@_0BC@IGDJKEDP@?$EA?$FL?$CFs?$FN?3?5ExCred?5?$CFd?$CB?$AA@
CONST	SEGMENT
??_C@_0BC@IGDJKEDP@?$EA?$FL?$CFs?$FN?3?5ExCred?5?$CFd?$CB?$AA@ DB '@[%s]:'
	DB	' ExCred %d!', 00H				; `string'
CONST	ENDS
;	COMDAT ??_C@_0BG@MANINCDG@?$EA?$FL?$CFs?$FN?3?5FreePoints?5?$CFd?$CB?$AA@
CONST	SEGMENT
??_C@_0BG@MANINCDG@?$EA?$FL?$CFs?$FN?3?5FreePoints?5?$CFd?$CB?$AA@ DB '@['
	DB	'%s]: FreePoints %d!', 00H			; `string'
CONST	ENDS
;	COMDAT ??_C@_0BN@LLEFKEPK@?$EA?$FL?$CFs?$FN?3?5Mission?5accomplished?$CB?$AA@
CONST	SEGMENT
??_C@_0BN@LLEFKEPK@?$EA?$FL?$CFs?$FN?3?5Mission?5accomplished?$CB?$AA@ DB '@'
	DB	'[%s]: Mission accomplished!', 00H		; `string'
CONST	ENDS
;	COMDAT ??_C@_0BD@DALIAMPI@?$EA?$FL?$CFs?$FN?3?5Mission?3?5?$CFd?$AA@
CONST	SEGMENT
??_C@_0BD@DALIAMPI@?$EA?$FL?$CFs?$FN?3?5Mission?3?5?$CFd?$AA@ DB '@[%s]: '
	DB	'Mission: %d', 00H				; `string'
CONST	ENDS
;	COMDAT ??_C@_0BK@GLEDHAJM@?$FLHappy?5Hour?$FN?5Event?5Close?$CB?$AA@
CONST	SEGMENT
??_C@_0BK@GLEDHAJM@?$FLHappy?5Hour?$FN?5Event?5Close?$CB?$AA@ DB '[Happy '
	DB	'Hour] Event Close!', 00H			; `string'
CONST	ENDS
;	COMDAT ??_C@_0CJ@MDEEPFFJ@?$FLHappy?5Hour?$FN?5Exp?3?5?$CL?$CFd?$CF?$CF?$CF?$CF?5Drop?3?5@
CONST	SEGMENT
??_C@_0CJ@MDEEPFFJ@?$FLHappy?5Hour?$FN?5Exp?3?5?$CL?$CFd?$CF?$CF?$CF?$CF?5Drop?3?5@ DB '['
	DB	'Happy Hour] Exp: +%d%%%% Drop: +%d%%%%%', 00H ; `string'
CONST	ENDS
;	COMDAT ??_C@_0BM@JPLLBIDJ@?$FLHappy?5Hour?$FN?5Event?5Started?$CB?$AA@
CONST	SEGMENT
??_C@_0BM@JPLLBIDJ@?$FLHappy?5Hour?$FN?5Event?5Started?$CB?$AA@ DB '[Happ'
	DB	'y Hour] Event Started!', 00H		; `string'
CONST	ENDS
;	COMDAT ??_C@_0BC@FHHCMEHD@?$FLEvangelion?$FN?5End?$CB?$AA@
CONST	SEGMENT
??_C@_0BC@FHHCMEHD@?$FLEvangelion?$FN?5End?$CB?$AA@ DB '[Evangelion] End!'
	DB	00H						; `string'
CONST	ENDS
;	COMDAT ??_C@_0BK@NFIPBKLM@?$FLEvangelion?$FN?5In?5Lorencia?$CB?$AA@
CONST	SEGMENT
??_C@_0BK@NFIPBKLM@?$FLEvangelion?$FN?5In?5Lorencia?$CB?$AA@ DB '[Evangel'
	DB	'ion] In Lorencia!', 00H			; `string'
CONST	ENDS
;	COMDAT ??_C@_0BM@BFEGMEHA@?$FLEvangelion?$FN?5Devias?5Win?5?$CFs?$CB?$AA@
CONST	SEGMENT
??_C@_0BM@BFEGMEHA@?$FLEvangelion?$FN?5Devias?5Win?5?$CFs?$CB?$AA@ DB '[E'
	DB	'vangelion] Devias Win %s!', 00H		; `string'
CONST	ENDS
;	COMDAT ??_C@_0BI@OBOMMEGL@?$FLEvangelion?$FN?5In?5Devias?$CB?$AA@
CONST	SEGMENT
??_C@_0BI@OBOMMEGL@?$FLEvangelion?$FN?5In?5Devias?$CB?$AA@ DB '[Evangelio'
	DB	'n] In Devias!', 00H				; `string'
CONST	ENDS
;	COMDAT ??_C@_0BL@DFMNOIC@?$FLEvangelion?$FN?5Noria?5Win?5?$CFs?$CB?$AA@
CONST	SEGMENT
??_C@_0BL@DFMNOIC@?$FLEvangelion?$FN?5Noria?5Win?5?$CFs?$CB?$AA@ DB '[Eva'
	DB	'ngelion] Noria Win %s!', 00H		; `string'
CONST	ENDS
;	COMDAT ??_C@_0BH@NGNDIGCL@?$FLEvangelion?$FN?5In?5Noria?$CB?$AA@
CONST	SEGMENT
??_C@_0BH@NGNDIGCL@?$FLEvangelion?$FN?5In?5Noria?$CB?$AA@ DB '[Evangelion'
	DB	'] In Noria!', 00H				; `string'
CONST	ENDS
;	COMDAT ??_C@_0BO@JENKFAJA@?$FLEvangelion?$FN?5Lorencia?5Win?5?$CFs?$CB?$AA@
CONST	SEGMENT
??_C@_0BO@JENKFAJA@?$FLEvangelion?$FN?5Lorencia?5Win?5?$CFs?$CB?$AA@ DB '['
	DB	'Evangelion] Lorencia Win %s!', 00H		; `string'
CONST	ENDS
;	COMDAT ??_C@_0BM@CGIKKGMH@?$HO?$FLCredit?$FN?3?5Online?5Bonus?3?5?$CFd?$AA@
CONST	SEGMENT
??_C@_0BM@CGIKKGMH@?$HO?$FLCredit?$FN?3?5Online?5Bonus?3?5?$CFd?$AA@ DB '~'
	DB	'[Credit]: Online Bonus: %d', 00H		; `string'
CONST	ENDS
;	COMDAT ??_C@_0BM@JNEHDAID@?$HO?$FLGoblin?$FN?3?5Online?5Bonus?3?5?$CFd?$AA@
CONST	SEGMENT
??_C@_0BM@JNEHDAID@?$HO?$FLGoblin?$FN?3?5Online?5Bonus?3?5?$CFd?$AA@ DB '~'
	DB	'[Goblin]: Online Bonus: %d', 00H		; `string'
CONST	ENDS
;	COMDAT ??_C@_0BM@JLLGHFCO@?$HO?$FLWCoinP?$FN?3?5Online?5Bonus?3?5?$CFd?$AA@
CONST	SEGMENT
??_C@_0BM@JLLGHFCO@?$HO?$FLWCoinP?$FN?3?5Online?5Bonus?3?5?$CFd?$AA@ DB '~'
	DB	'[WCoinP]: Online Bonus: %d', 00H		; `string'
CONST	ENDS
;	COMDAT ??_C@_0BM@KLEMOFCB@?$HO?$FLWCoinC?$FN?3?5Online?5Bonus?3?5?$CFd?$AA@
CONST	SEGMENT
??_C@_0BM@KLEMOFCB@?$HO?$FLWCoinC?$FN?3?5Online?5Bonus?3?5?$CFd?$AA@ DB '~'
	DB	'[WCoinC]: Online Bonus: %d', 00H		; `string'
CONST	ENDS
;	COMDAT ??_C@_0BG@GJDHCBJN@?$FLBuy?$FN?5Price?5?$CFd?5Goblin?$AA@
CONST	SEGMENT
??_C@_0BG@GJDHCBJN@?$FLBuy?$FN?5Price?5?$CFd?5Goblin?$AA@ DB '[Buy] Price'
	DB	' %d Goblin', 00H				; `string'
CONST	ENDS
;	COMDAT ??_C@_0BF@OIGNJAK@?$FLBuy?$FN?5Need?5?$CFd?5Goblin?$AA@
CONST	SEGMENT
??_C@_0BF@OIGNJAK@?$FLBuy?$FN?5Need?5?$CFd?5Goblin?$AA@ DB '[Buy] Need %d'
	DB	' Goblin', 00H				; `string'
CONST	ENDS
;	COMDAT ??_C@_0BF@JCPCLJPC@?$FLBuy?$FN?5Need?5?$CFd?5WCoinP?$AA@
CONST	SEGMENT
??_C@_0BF@JCPCLJPC@?$FLBuy?$FN?5Need?5?$CFd?5WCoinP?$AA@ DB '[Buy] Need %'
	DB	'd WCoinP', 00H				; `string'
CONST	ENDS
;	COMDAT ??_C@_0BG@JEKMAAPH@?$FLBuy?$FN?5Price?5?$CFd?5WCoinC?$AA@
CONST	SEGMENT
??_C@_0BG@JEKMAAPH@?$FLBuy?$FN?5Price?5?$CFd?5WCoinC?$AA@ DB '[Buy] Price'
	DB	' %d WCoinC', 00H				; `string'
CONST	ENDS
;	COMDAT ??_C@_0BF@PDBNPIGA@?$FLBuy?$FN?5Need?5?$CFd?5WCoinC?$AA@
CONST	SEGMENT
??_C@_0BF@PDBNPIGA@?$FLBuy?$FN?5Need?5?$CFd?5WCoinC?$AA@ DB '[Buy] Need %'
	DB	'd WCoinC', 00H				; `string'
CONST	ENDS
;	COMDAT ??_C@_0BG@OFIJBKOP@?$FLBuy?$FN?5Price?5?$CFd?5Credit?$AA@
CONST	SEGMENT
??_C@_0BG@OFIJBKOP@?$FLBuy?$FN?5Price?5?$CFd?5Credit?$AA@ DB '[Buy] Price'
	DB	' %d Credit', 00H				; `string'
CONST	ENDS
;	COMDAT ??_C@_0BF@ICDIOCHI@?$FLBuy?$FN?5Need?5?$CFd?5Credit?$AA@
CONST	SEGMENT
??_C@_0BF@ICDIOCHI@?$FLBuy?$FN?5Need?5?$CFd?5Credit?$AA@ DB '[Buy] Need %'
	DB	'd Credit', 00H				; `string'
CONST	ENDS
;	COMDAT ??_C@_0BC@GHOMDOGB@?$FLBuy?$FN?5Need?5?$CFd?5Zen?$AA@
CONST	SEGMENT
??_C@_0BC@GHOMDOGB@?$FLBuy?$FN?5Need?5?$CFd?5Zen?$AA@ DB '[Buy] Need %d Z'
	DB	'en', 00H					; `string'
CONST	ENDS
;	COMDAT ??_C@_0BF@BBLCPHHL@Max?5Zen?5In?5Inventory?$AA@
CONST	SEGMENT
??_C@_0BF@BBLCPHHL@Max?5Zen?5In?5Inventory?$AA@ DB 'Max Zen In Inventory', 00H ; `string'
CONST	ENDS
;	COMDAT ??_C@_0BL@DLGFFCMG@In?5?$CFs?5Max?5Zen?5In?5Inventory?$AA@
CONST	SEGMENT
??_C@_0BL@DLGFFCMG@In?5?$CFs?5Max?5Zen?5In?5Inventory?$AA@ DB 'In %s Max '
	DB	'Zen In Inventory', 00H			; `string'
CONST	ENDS
;	COMDAT ??_C@_0BN@EKEIPIHO@?$FLOffTrade?$FN?5Need?5?$CFd?5Life?5Bank?$AA@
CONST	SEGMENT
??_C@_0BN@EKEIPIHO@?$FLOffTrade?$FN?5Need?5?$CFd?5Life?5Bank?$AA@ DB '[Of'
	DB	'fTrade] Need %d Life Bank', 00H		; `string'
CONST	ENDS
;	COMDAT ??_C@_0BN@IIFLCIIK@?$FLOffTrade?$FN?5Need?5?$CFd?5Soul?5Bank?$AA@
CONST	SEGMENT
??_C@_0BN@IIFLCIIK@?$FLOffTrade?$FN?5Need?5?$CFd?5Soul?5Bank?$AA@ DB '[Of'
	DB	'fTrade] Need %d Soul Bank', 00H		; `string'
CONST	ENDS
;	COMDAT ??_C@_0BO@IJDAJIJG@?$FLOffTrade?$FN?5Need?5?$CFd?5Bless?5Bank?$AA@
CONST	SEGMENT
??_C@_0BO@IJDAJIJG@?$FLOffTrade?$FN?5Need?5?$CFd?5Bless?5Bank?$AA@ DB '[O'
	DB	'ffTrade] Need %d Bless Bank', 00H		; `string'
CONST	ENDS
;	COMDAT ??_C@_0BO@DHKNJCEE@?$FLOffTrade?$FN?5Need?5?$CFd?5Chaos?5Bank?$AA@
CONST	SEGMENT
??_C@_0BO@DHKNJCEE@?$FLOffTrade?$FN?5Need?5?$CFd?5Chaos?5Bank?$AA@ DB '[O'
	DB	'ffTrade] Need %d Chaos Bank', 00H		; `string'
CONST	ENDS
;	COMDAT ??_C@_0BK@DKJMKJFO@?$FLOffTrade?$FN?5Need?5?$CFd?5WCoinG?$AA@
CONST	SEGMENT
??_C@_0BK@DKJMKJFO@?$FLOffTrade?$FN?5Need?5?$CFd?5WCoinG?$AA@ DB '[OffTra'
	DB	'de] Need %d WCoinG', 00H			; `string'
CONST	ENDS
;	COMDAT ??_C@_0BK@DPBPCNMI@?$FLOffTrade?$FN?5Need?5?$CFd?5WCoinP?$AA@
CONST	SEGMENT
??_C@_0BK@DPBPCNMI@?$FLOffTrade?$FN?5Need?5?$CFd?5WCoinP?$AA@ DB '[OffTra'
	DB	'de] Need %d WCoinP', 00H			; `string'
CONST	ENDS
;	COMDAT ??_C@_0BK@FOPAGMFK@?$FLOffTrade?$FN?5Need?5?$CFd?5WCoinC?$AA@
CONST	SEGMENT
??_C@_0BK@FOPAGMFK@?$FLOffTrade?$FN?5Need?5?$CFd?5WCoinC?$AA@ DB '[OffTra'
	DB	'de] Need %d WCoinC', 00H			; `string'
CONST	ENDS
;	COMDAT ??_C@_0BL@NCOFGJCD@?$FLOffTrade?$FN?5Need?5?$CFd?5PcPoint?$AA@
CONST	SEGMENT
??_C@_0BL@NCOFGJCD@?$FLOffTrade?$FN?5Need?5?$CFd?5PcPoint?$AA@ DB '[OffTr'
	DB	'ade] Need %d PcPoint', 00H			; `string'
CONST	ENDS
;	COMDAT ??_C@_0CC@LHBNDNI@?$FLOffTrade?$FN?5work?5only?5special?5map@
CONST	SEGMENT
??_C@_0CC@LHBNDNI@?$FLOffTrade?$FN?5work?5only?5special?5map@ DB '[OffTra'
	DB	'de] work only special maps', 00H		; `string'
CONST	ENDS
;	COMDAT ??_C@_0BF@MIALOGLA@?$FL?$CFs?$FN?$FL?$CFs?$FN?5Loren?5?$CFd?5?$CFd?$AA@
CONST	SEGMENT
??_C@_0BF@MIALOGLA@?$FL?$CFs?$FN?$FL?$CFs?$FN?5Loren?5?$CFd?5?$CFd?$AA@ DB '['
	DB	'%s][%s] Loren %d %d', 00H			; `string'
CONST	ENDS
;	COMDAT ??_C@_0BH@LBAPANHP@?$FL?$CFs?$FN?$FL?$CFs?$FN?5Emblend?5?$CFd?5?$CFd?$AA@
CONST	SEGMENT
??_C@_0BH@LBAPANHP@?$FL?$CFs?$FN?$FL?$CFs?$FN?5Emblend?5?$CFd?5?$CFd?$AA@ DB '['
	DB	'%s][%s] Emblend %d %d', 00H			; `string'
CONST	ENDS
;	COMDAT ??_C@_0BF@BLCEJJJH@?$FL?$CFs?$FN?$FL?$CFs?$FN?5Noria?5?$CFd?5?$CFd?$AA@
CONST	SEGMENT
??_C@_0BF@BLCEJJJH@?$FL?$CFs?$FN?$FL?$CFs?$FN?5Noria?5?$CFd?5?$CFd?$AA@ DB '['
	DB	'%s][%s] Noria %d %d', 00H			; `string'
CONST	ENDS
;	COMDAT ??_C@_0BG@KJDAJKBP@?$FL?$CFs?$FN?$FL?$CFs?$FN?5Devias?5?$CFd?5?$CFd?$AA@
CONST	SEGMENT
??_C@_0BG@KJDAJKBP@?$FL?$CFs?$FN?$FL?$CFs?$FN?5Devias?5?$CFd?5?$CFd?$AA@ DB '['
	DB	'%s][%s] Devias %d %d', 00H			; `string'
CONST	ENDS
;	COMDAT ??_C@_0BI@MAEGLEHI@?$FL?$CFs?$FN?$FL?$CFs?$FN?5Lorencia?5?$CFd?5?$CFd?$AA@
CONST	SEGMENT
??_C@_0BI@MAEGLEHI@?$FL?$CFs?$FN?$FL?$CFs?$FN?5Lorencia?5?$CFd?5?$CFd?$AA@ DB '['
	DB	'%s][%s] Lorencia %d %d', 00H		; `string'
CONST	ENDS
;	COMDAT ??_C@_0BA@GPOPIKKI@?4?3?3LIFE?5SHOP?3?3?4?$AA@
CONST	SEGMENT
??_C@_0BA@GPOPIKKI@?4?3?3LIFE?5SHOP?3?3?4?$AA@ DB '.::LIFE SHOP::.', 00H ; `string'
CONST	ENDS
;	COMDAT ??_C@_0BA@NIKENFKH@?4?3?3SOUL?5SHOP?3?3?4?$AA@
CONST	SEGMENT
??_C@_0BA@NIKENFKH@?4?3?3SOUL?5SHOP?3?3?4?$AA@ DB '.::SOUL SHOP::.', 00H ; `string'
CONST	ENDS
;	COMDAT ??_C@_0BB@DOAHPBOB@?4?3?3BLESS?5SHOP?3?3?4?$AA@
CONST	SEGMENT
??_C@_0BB@DOAHPBOB@?4?3?3BLESS?5SHOP?3?3?4?$AA@ DB '.::BLESS SHOP::.', 00H ; `string'
CONST	ENDS
;	COMDAT ??_C@_0BB@MEFLBHHC@?4?3?3CHAOS?5SHOP?3?3?4?$AA@
CONST	SEGMENT
??_C@_0BB@MEFLBHHC@?4?3?3CHAOS?5SHOP?3?3?4?$AA@ DB '.::CHAOS SHOP::.', 00H ; `string'
CONST	ENDS
;	COMDAT ??_C@_0BC@ECPKDNH@?4?3?3GOBLIN?5SHOP?3?3?4?$AA@
CONST	SEGMENT
??_C@_0BC@ECPKDNH@?4?3?3GOBLIN?5SHOP?3?3?4?$AA@ DB '.::GOBLIN SHOP::.', 00H ; `string'
CONST	ENDS
;	COMDAT ??_C@_0BE@BFOPECO@?4?3?3WCOIN?$CIP?$CJ?5SHOP?3?3?4?$AA@
CONST	SEGMENT
??_C@_0BE@BFOPECO@?4?3?3WCOIN?$CIP?$CJ?5SHOP?3?3?4?$AA@ DB '.::WCOIN(P) S'
	DB	'HOP::.', 00H				; `string'
CONST	ENDS
;	COMDAT ??_C@_0BB@IPFIAIKD@?4?3?3WCOIN?5SHOP?3?3?4?$AA@
CONST	SEGMENT
??_C@_0BB@IPFIAIKD@?4?3?3WCOIN?5SHOP?3?3?4?$AA@ DB '.::WCOIN SHOP::.', 00H ; `string'
CONST	ENDS
;	COMDAT ??_C@_0BC@BEOIOLAE@?4?3?3CREDIT?5SHOP?3?3?4?$AA@
CONST	SEGMENT
??_C@_0BC@BEOIOLAE@?4?3?3CREDIT?5SHOP?3?3?4?$AA@ DB '.::CREDIT SHOP::.', 00H ; `string'
CONST	ENDS
;	COMDAT ??_C@_0P@KNLBLEED@?4?3?3ZEN?5SHOP?3?3?4?$AA@
CONST	SEGMENT
??_C@_0P@KNLBLEED@?4?3?3ZEN?5SHOP?3?3?4?$AA@ DB '.::ZEN SHOP::.', 00H ; `string'
CONST	ENDS
;	COMDAT ??_C@_0CH@IHHOOGEB@?$FLOffline?5Trade?$FN?5work?5only?5specia@
CONST	SEGMENT
??_C@_0CH@IHHOOGEB@?$FLOffline?5Trade?$FN?5work?5only?5specia@ DB '[Offli'
	DB	'ne Trade] work only special maps', 00H	; `string'
CONST	ENDS
;	COMDAT ??_C@_0BL@FNOCMMHI@?$FLOffTrade?$FN?$FL?$CFs?$FN?5Loren?5?$CFd?5?$CFd?$AA@
CONST	SEGMENT
??_C@_0BL@FNOCMMHI@?$FLOffTrade?$FN?$FL?$CFs?$FN?5Loren?5?$CFd?5?$CFd?$AA@ DB '['
	DB	'OffTrade][%s] Loren %d %d', 00H		; `string'
CONST	ENDS
;	COMDAT ??_C@_0BN@GJJHAMAG@?$FLOffTrade?$FN?$FL?$CFs?$FN?5Emblend?5?$CFd?5?$CFd?$AA@
CONST	SEGMENT
??_C@_0BN@GJJHAMAG@?$FLOffTrade?$FN?$FL?$CFs?$FN?5Emblend?5?$CFd?5?$CFd?$AA@ DB '['
	DB	'OffTrade][%s] Emblend %d %d', 00H		; `string'
CONST	ENDS
;	COMDAT ??_C@_0BL@IOMNLDFP@?$FLOffTrade?$FN?$FL?$CFs?$FN?5Noria?5?$CFd?5?$CFd?$AA@
CONST	SEGMENT
??_C@_0BL@IOMNLDFP@?$FLOffTrade?$FN?$FL?$CFs?$FN?5Noria?5?$CFd?5?$CFd?$AA@ DB '['
	DB	'OffTrade][%s] Noria %d %d', 00H		; `string'
CONST	ENDS
;	COMDAT ??_C@_0BM@DMBKDJLH@?$FLOffTrade?$FN?$FL?$CFs?$FN?5Devias?5?$CFd?5?$CFd?$AA@
CONST	SEGMENT
??_C@_0BM@DMBKDJLH@?$FLOffTrade?$FN?$FL?$CFs?$FN?5Devias?5?$CFd?5?$CFd?$AA@ DB '['
	DB	'OffTrade][%s] Devias %d %d', 00H		; `string'
CONST	ENDS
;	COMDAT ??_C@_0BO@OJEHOFOB@?$FLOffTrade?$FN?$FL?$CFs?$FN?5Lorencia?5?$CFd?5?$CFd?$AA@
CONST	SEGMENT
??_C@_0BO@OJEHOFOB@?$FLOffTrade?$FN?$FL?$CFs?$FN?5Lorencia?5?$CFd?5?$CFd?$AA@ DB '['
	DB	'OffTrade][%s] Lorencia %d %d', 00H		; `string'
CONST	ENDS
;	COMDAT ??_C@_0BK@JCDLIHIH@?$FLOffTrade?$FN?5Need?5Open?5Shop?$AA@
CONST	SEGMENT
??_C@_0BK@JCDLIHIH@?$FLOffTrade?$FN?5Need?5Open?5Shop?$AA@ DB '[OffTrade]'
	DB	' Need Open Shop', 00H			; `string'
CONST	ENDS
;	COMDAT ??_C@_0CH@JMGBEBME@?$FLOffTrade?$FN?5Disable?5in?5Castle?5sie@
CONST	SEGMENT
??_C@_0CH@JMGBEBME@?$FLOffTrade?$FN?5Disable?5in?5Castle?5sie@ DB '[OffTr'
	DB	'ade] Disable in Castle siege map', 00H	; `string'
CONST	ENDS
;	COMDAT ??_C@_0BD@IPGMBHGD@?$FLOfflineTrade?$FN?$FL?$CFs?$FN?$AA@
CONST	SEGMENT
??_C@_0BD@IPGMBHGD@?$FLOfflineTrade?$FN?$FL?$CFs?$FN?$AA@ DB '[OfflineTra'
	DB	'de][%s]', 00H				; `string'
CONST	ENDS
;	COMDAT ??_C@_0CL@IJMEMPLE@?$FLOffTrade?$FN?5OffTrade?5work?5only?5Lo@
CONST	SEGMENT
??_C@_0CL@IJMEMPLE@?$FLOffTrade?$FN?5OffTrade?5work?5only?5Lo@ DB '[OffTr'
	DB	'ade] OffTrade work only Loren Market', 00H	; `string'
CONST	ENDS
;	COMDAT ??_C@_0CK@NAELDEKN@?$FLOfflineMode?$FN?5Disable?5in?5Castle?5@
CONST	SEGMENT
??_C@_0CK@NAELDEKN@?$FLOfflineMode?$FN?5Disable?5in?5Castle?5@ DB '[Offli'
	DB	'neMode] Disable in Castle siege map', 00H	; `string'
CONST	ENDS
;	COMDAT ??_C@_0BO@CLFENIBF@?$FLJewels?$FN?5Item?5Exellent?5Status?$AA@
CONST	SEGMENT
??_C@_0BO@CLFENIBF@?$FLJewels?$FN?5Item?5Exellent?5Status?$AA@ DB '[Jewel'
	DB	's] Item Exellent Status', 00H		; `string'
CONST	ENDS
;	COMDAT ??_C@_0BM@OMDDMGGO@?$FLJewels?$FN?5No?5Use?5Item?5Socket?$AA@
CONST	SEGMENT
??_C@_0BM@OMDDMGGO@?$FLJewels?$FN?5No?5Use?5Item?5Socket?$AA@ DB '[Jewels'
	DB	'] No Use Item Socket', 00H			; `string'
CONST	ENDS
;	COMDAT ??_C@_0BO@JJNPMFLC@?$FLJewels?$FN?5Max?5Socket?5option?5?$CFd?$AA@
CONST	SEGMENT
??_C@_0BO@JJNPMFLC@?$FLJewels?$FN?5Max?5Socket?5option?5?$CFd?$AA@ DB '[J'
	DB	'ewels] Max Socket option %d', 00H		; `string'
CONST	ENDS
;	COMDAT ??_C@_0BF@JOAPLKJN@?$FLJewels?$FN?5Item?5is?5PvP?$AA@
CONST	SEGMENT
??_C@_0BF@JOAPLKJN@?$FLJewels?$FN?5Item?5is?5PvP?$AA@ DB '[Jewels] Item i'
	DB	's PvP', 00H					; `string'
CONST	ENDS
;	COMDAT ??_C@_0BJ@HIDKABDK@?$FLJewels?$FN?5No?5Use?5Item?5PvP?$AA@
CONST	SEGMENT
??_C@_0BJ@HIDKABDK@?$FLJewels?$FN?5No?5Use?5Item?5PvP?$AA@ DB '[Jewels] N'
	DB	'o Use Item PvP', 00H			; `string'
CONST	ENDS
;	COMDAT ??_C@_0BM@OHHBFMIC@?$FLJewels?$FN?5Max?5Option?5to?5Item?$AA@
CONST	SEGMENT
??_C@_0BM@OHHBFMIC@?$FLJewels?$FN?5Max?5Option?5to?5Item?$AA@ DB '[Jewels'
	DB	'] Max Option to Item', 00H			; `string'
CONST	ENDS
;	COMDAT ??_C@_0BI@LGBBPIKN@?$FLJewels?$FN?5Item?5is?5Ancent?$AA@
CONST	SEGMENT
??_C@_0BI@LGBBPIKN@?$FLJewels?$FN?5Item?5is?5Ancent?$AA@ DB '[Jewels] Ite'
	DB	'm is Ancent', 00H				; `string'
CONST	ENDS
;	COMDAT ??_C@_0BM@DLKEAAPO@?$FLJewels?$FN?5No?5Use?5Item?5Ancent?$AA@
CONST	SEGMENT
??_C@_0BM@DLKEAAPO@?$FLJewels?$FN?5No?5Use?5Item?5Ancent?$AA@ DB '[Jewels'
	DB	'] No Use Item Ancent', 00H			; `string'
CONST	ENDS
;	COMDAT ??_C@_0BF@JAODIPNO@?$FLJewels?$FN?5No?5use?5item?$AA@
CONST	SEGMENT
??_C@_0BF@JAODIPNO@?$FLJewels?$FN?5No?5use?5item?$AA@ DB '[Jewels] No use'
	DB	' item', 00H					; `string'
CONST	ENDS
;	COMDAT ??_C@_0BO@OEOJOBIJ@?$FLJewels?$FN?5Item?5Exellent?5status?$AA@
CONST	SEGMENT
??_C@_0BO@OEOJOBIJ@?$FLJewels?$FN?5Item?5Exellent?5status?$AA@ DB '[Jewel'
	DB	's] Item Exellent status', 00H		; `string'
CONST	ENDS
;	COMDAT ??_C@_0BL@NKONFKM@?$FLJewels?$FN?5No?5use?5item?5Level?$AA@
CONST	SEGMENT
??_C@_0BL@NKONFKM@?$FLJewels?$FN?5No?5use?5item?5Level?$AA@ DB '[Jewels] '
	DB	'No use item Level', 00H			; `string'
CONST	ENDS
;	COMDAT ??_C@_0BL@JLMMBGJC@?$FLJewels?$FN?5Min?5Level?5Item?5?$CFd?$AA@
CONST	SEGMENT
??_C@_0BL@JLMMBGJC@?$FLJewels?$FN?5Min?5Level?5Item?5?$CFd?$AA@ DB '[Jewe'
	DB	'ls] Min Level Item %d', 00H			; `string'
CONST	ENDS
;	COMDAT ??_C@_0BL@MIGKAOHG@?$FLJewels?$FN?5Max?5Level?5Item?5?$CFd?$AA@
CONST	SEGMENT
??_C@_0BL@MIGKAOHG@?$FLJewels?$FN?5Max?5Level?5Item?5?$CFd?$AA@ DB '[Jewe'
	DB	'ls] Max Level Item %d', 00H			; `string'
CONST	ENDS
;	COMDAT ??_C@_0BL@EABJKCPD@?$FLJewels?$FN?5No?5use?5item?5skill?$AA@
CONST	SEGMENT
??_C@_0BL@EABJKCPD@?$FLJewels?$FN?5No?5use?5item?5skill?$AA@ DB '[Jewels]'
	DB	' No use item skill', 00H			; `string'
CONST	ENDS
;	COMDAT ??_C@_0BM@OPNKJJKH@?$FLJewels?$FN?5Is?5Weapon?5to?5Skill?$AA@
CONST	SEGMENT
??_C@_0BM@OPNKJJKH@?$FLJewels?$FN?5Is?5Weapon?5to?5Skill?$AA@ DB '[Jewels'
	DB	'] Is Weapon to Skill', 00H			; `string'
CONST	ENDS
;	COMDAT ??_C@_0BK@JCANILHH@?$FLJewels?$FN?5No?5use?5item?5luck?$AA@
CONST	SEGMENT
??_C@_0BK@JCANILHH@?$FLJewels?$FN?5No?5use?5item?5luck?$AA@ DB '[Jewels] '
	DB	'No use item luck', 00H			; `string'
CONST	ENDS
;	COMDAT ??_C@_0BI@BNEAPBOP@?$FLJewels?$FN?5Is?5Set?5to?5Luck?$AA@
CONST	SEGMENT
??_C@_0BI@BNEAPBOP@?$FLJewels?$FN?5Is?5Set?5to?5Luck?$AA@ DB '[Jewels] Is'
	DB	' Set to Luck', 00H				; `string'
CONST	ENDS
;	COMDAT ??_C@_0BN@GPPEHKBE@?$FLJewels?$FN?5Need?5Item?5Accessory?$AA@
CONST	SEGMENT
??_C@_0BN@GPPEHKBE@?$FLJewels?$FN?5Need?5Item?5Accessory?$AA@ DB '[Jewels'
	DB	'] Need Item Accessory', 00H			; `string'
CONST	ENDS
;	COMDAT ??_C@_0BL@INEMADPH@?$FLJewels?$FN?5Min?5Item?5Level?5?$CFd?$AA@
CONST	SEGMENT
??_C@_0BL@INEMADPH@?$FLJewels?$FN?5Min?5Item?5Level?5?$CFd?$AA@ DB '[Jewe'
	DB	'ls] Min Item Level %d', 00H			; `string'
CONST	ENDS
;	COMDAT ??_C@_0BL@NOOKBLBD@?$FLJewels?$FN?5Max?5Item?5Level?5?$CFd?$AA@
CONST	SEGMENT
??_C@_0BL@NOOKBLBD@?$FLJewels?$FN?5Max?5Item?5Level?5?$CFd?$AA@ DB '[Jewe'
	DB	'ls] Max Item Level %d', 00H			; `string'
CONST	ENDS
;	COMDAT ??_C@_0CD@CKINFCHP@?$FLJewels?$FN?5Need?5Item?5Exellent?5Stat@
CONST	SEGMENT
??_C@_0CD@CKINFCHP@?$FLJewels?$FN?5Need?5Item?5Exellent?5Stat@ DB '[Jewel'
	DB	's] Need Item Exellent Status', 00H		; `string'
CONST	ENDS
;	COMDAT ??_C@_0CA@GHJGABEM@?$FLJewels?$FN?5Max?5?$CFd?5Exellent?5Option?$AA@
CONST	SEGMENT
??_C@_0CA@GHJGABEM@?$FLJewels?$FN?5Max?5?$CFd?5Exellent?5Option?$AA@ DB '['
	DB	'Jewels] Max %d Exellent Option', 00H	; `string'
CONST	ENDS
;	COMDAT ??_C@_0CN@NMLOMMO@?$FLGReset?$FN?3?5You?5need?5Empty?5Invento@
CONST	SEGMENT
??_C@_0CN@NMLOMMO@?$FLGReset?$FN?3?5You?5need?5Empty?5Invento@ DB '[GRese'
	DB	't]: You need Empty Inventory to GReset', 00H ; `string'
CONST	ENDS
;	COMDAT ??_C@_0CK@FCBCNAMG@?$FLGReset?$FN?3?5You?5need?5above?5?$CFd?5Zen?5@
CONST	SEGMENT
??_C@_0CK@FCBCNAMG@?$FLGReset?$FN?3?5You?5need?5above?5?$CFd?5Zen?5@ DB '['
	DB	'GReset]: You need above %d Zen to GReset', 00H ; `string'
CONST	ENDS
;	COMDAT ??_C@_0CM@HPMBDCHP@?$FLGReset?$FN?3?5You?5need?5above?5?$CFd?5Leve@
CONST	SEGMENT
??_C@_0CM@HPMBDCHP@?$FLGReset?$FN?3?5You?5need?5above?5?$CFd?5Leve@ DB '['
	DB	'GReset]: You need above %d Level to GReset', 00H ; `string'
CONST	ENDS
;	COMDAT ??_C@_0CM@DHNDAPCF@?$FLGReset?$FN?3?5You?5need?5above?5?$CFd?5Rese@
CONST	SEGMENT
??_C@_0CM@DHNDAPCF@?$FLGReset?$FN?3?5You?5need?5above?5?$CFd?5Rese@ DB '['
	DB	'GReset]: You need above %d Reset to GReset', 00H ; `string'
CONST	ENDS
;	COMDAT ??_C@_0BN@NFJAONJC@?$FLGReset?$FN?3?5Max?5Grand?5Reset?5?$CFd?$AA@
CONST	SEGMENT
??_C@_0BN@NFJAONJC@?$FLGReset?$FN?3?5Max?5Grand?5Reset?5?$CFd?$AA@ DB '[G'
	DB	'Reset]: Max Grand Reset %d', 00H		; `string'
CONST	ENDS
;	COMDAT ??_C@_0BM@CCOFCGNI@?$FLGReset?$FN?3?5Interface?5Disable?$AA@
CONST	SEGMENT
??_C@_0BM@CCOFCGNI@?$FLGReset?$FN?3?5Interface?5Disable?$AA@ DB '[GReset]'
	DB	': Interface Disable', 00H			; `string'
CONST	ENDS
;	COMDAT ??_C@_0BO@PEPJHIDK@?$FLGReset?$FN?3?5Started?5In?5Lorencia?$AA@
CONST	SEGMENT
??_C@_0BO@PEPJHIDK@?$FLGReset?$FN?3?5Started?5In?5Lorencia?$AA@ DB '[GRes'
	DB	'et]: Started In Lorencia', 00H		; `string'
CONST	ENDS
;	COMDAT ??_C@_0BN@LOHKEBON@?$FLReset?$FN?3?5Need?5Reset?5Items?5?$CFd?$AA@
CONST	SEGMENT
??_C@_0BN@LOHKEBON@?$FLReset?$FN?3?5Need?5Reset?5Items?5?$CFd?$AA@ DB '[R'
	DB	'eset]: Need Reset Items %d', 00H		; `string'
CONST	ENDS
;	COMDAT ??_C@_0CL@HNIKKPDH@?$FLReset?$FN?3?5You?5need?5Empty?5Inventor@
CONST	SEGMENT
??_C@_0CL@HNIKKPDH@?$FLReset?$FN?3?5You?5need?5Empty?5Inventor@ DB '[Rese'
	DB	't]: You need Empty Inventory to Reset', 00H	; `string'
CONST	ENDS
;	COMDAT ??_C@_0CI@KOEBMPOL@?$FLReset?$FN?3?5You?5need?5above?5?$CFd?5Zen?5t@
CONST	SEGMENT
??_C@_0CI@KOEBMPOL@?$FLReset?$FN?3?5You?5need?5above?5?$CFd?5Zen?5t@ DB '['
	DB	'Reset]: You need above %d Zen to Reset', 00H ; `string'
CONST	ENDS
;	COMDAT ??_C@_0CM@EPGGAPLD@?$FLReset?$FN?3?5You?5need?5above?5?$CFd?5Credi@
CONST	SEGMENT
??_C@_0CM@EPGGAPLD@?$FLReset?$FN?3?5You?5need?5above?5?$CFd?5Credi@ DB '['
	DB	'Reset]: You need above %d Credits to Reset', 00H ; `string'
CONST	ENDS
;	COMDAT ??_C@_0CK@JCAEKBGA@?$FLReset?$FN?3?5You?5need?5above?5?$CFd?5Wcoin@
CONST	SEGMENT
??_C@_0CK@JCAEKBGA@?$FLReset?$FN?3?5You?5need?5above?5?$CFd?5Wcoin@ DB '['
	DB	'Reset]: You need above %d Wcoin to Reset', 00H ; `string'
CONST	ENDS
;	COMDAT ??_C@_0CK@JOKEILBF@?$FLReset?$FN?3?5You?5need?5above?5?$CFd?5Level@
CONST	SEGMENT
??_C@_0CK@JOKEILBF@?$FLReset?$FN?3?5You?5need?5above?5?$CFd?5Level@ DB '['
	DB	'Reset]: You need above %d Level to Reset', 00H ; `string'
CONST	ENDS
;	COMDAT ??_C@_0BG@BDFKKKDA@?$FLReset?$FN?3?5Max?5Reset?5?$CFd?$AA@
CONST	SEGMENT
??_C@_0BG@BDFKKKDA@?$FLReset?$FN?3?5Max?5Reset?5?$CFd?$AA@ DB '[Reset]: M'
	DB	'ax Reset %d', 00H				; `string'
CONST	ENDS
;	COMDAT ??_C@_0BL@DMAJGMEH@?$FLReset?$FN?3?5Interface?5Disable?$AA@
CONST	SEGMENT
??_C@_0BL@DMAJGMEH@?$FLReset?$FN?3?5Interface?5Disable?$AA@ DB '[Reset]: '
	DB	'Interface Disable', 00H			; `string'
CONST	ENDS
;	COMDAT ??_C@_0BH@KMBFHLHL@?$FLReset?$FN?3?5Started?5In?5?$CFs?$AA@
CONST	SEGMENT
??_C@_0BH@KMBFHLHL@?$FLReset?$FN?3?5Started?5In?5?$CFs?$AA@ DB '[Reset]: '
	DB	'Started In %s', 00H				; `string'
CONST	ENDS
;	COMDAT ??_C@_0N@LNMNJIEC@?$FLOnline?$FN?3?5?$CFd?$AA@
CONST	SEGMENT
??_C@_0N@LNMNJIEC@?$FLOnline?$FN?3?5?$CFd?$AA@ DB '[Online]: %d', 00H ; `string'
CONST	ENDS
;	COMDAT ??_C@_0N@MAIJFPGO@?$FLGReset?$FN?3?5?$CFd?$AA@
CONST	SEGMENT
??_C@_0N@MAIJFPGO@?$FLGReset?$FN?3?5?$CFd?$AA@ DB '[GReset]: %d', 00H ; `string'
CONST	ENDS
;	COMDAT ??_C@_0M@FDHJPHCM@?$FLReset?$FN?3?5?$CFd?$AA@
CONST	SEGMENT
??_C@_0M@FDHJPHCM@?$FLReset?$FN?3?5?$CFd?$AA@ DB '[Reset]: %d', 00H ; `string'
; Function compile flags: /Odtp /ZI
CONST	ENDS
_TEXT	SEGMENT
_this$ = -4						; size = 4
?LoadText@CExText@@QAEXXZ PROC				; CExText::LoadText
; _this$ = ecx

; 37   : {

  000f0	55		 push	 ebp
  000f1	8b ec		 mov	 ebp, esp
  000f3	83 ec 44	 sub	 esp, 68			; 00000044H
  000f6	53		 push	 ebx
  000f7	56		 push	 esi
  000f8	57		 push	 edi
  000f9	89 4d fc	 mov	 DWORD PTR _this$[ebp], ecx

; 38   : 	this->SetText(0, "[Reset]: %d");

  000fc	68 00 00 00 00	 push	 OFFSET ??_C@_0M@FDHJPHCM@?$FLReset?$FN?3?5?$CFd?$AA@
  00101	6a 00		 push	 0
  00103	8b 4d fc	 mov	 ecx, DWORD PTR _this$[ebp]
  00106	e8 00 00 00 00	 call	 ?SetText@CExText@@QAEXHPAD@Z ; CExText::SetText

; 39   : 	this->SetText(1, "[GReset]: %d");

  0010b	68 00 00 00 00	 push	 OFFSET ??_C@_0N@MAIJFPGO@?$FLGReset?$FN?3?5?$CFd?$AA@
  00110	6a 01		 push	 1
  00112	8b 4d fc	 mov	 ecx, DWORD PTR _this$[ebp]
  00115	e8 00 00 00 00	 call	 ?SetText@CExText@@QAEXHPAD@Z ; CExText::SetText

; 40   : 	this->SetText(2, "[Online]: %d");

  0011a	68 00 00 00 00	 push	 OFFSET ??_C@_0N@LNMNJIEC@?$FLOnline?$FN?3?5?$CFd?$AA@
  0011f	6a 02		 push	 2
  00121	8b 4d fc	 mov	 ecx, DWORD PTR _this$[ebp]
  00124	e8 00 00 00 00	 call	 ?SetText@CExText@@QAEXHPAD@Z ; CExText::SetText

; 41   : 	this->SetText(3, "[Reset]: Started In %s");

  00129	68 00 00 00 00	 push	 OFFSET ??_C@_0BH@KMBFHLHL@?$FLReset?$FN?3?5Started?5In?5?$CFs?$AA@
  0012e	6a 03		 push	 3
  00130	8b 4d fc	 mov	 ecx, DWORD PTR _this$[ebp]
  00133	e8 00 00 00 00	 call	 ?SetText@CExText@@QAEXHPAD@Z ; CExText::SetText

; 42   : 	this->SetText(4, "[Reset]: Interface Disable");

  00138	68 00 00 00 00	 push	 OFFSET ??_C@_0BL@DMAJGMEH@?$FLReset?$FN?3?5Interface?5Disable?$AA@
  0013d	6a 04		 push	 4
  0013f	8b 4d fc	 mov	 ecx, DWORD PTR _this$[ebp]
  00142	e8 00 00 00 00	 call	 ?SetText@CExText@@QAEXHPAD@Z ; CExText::SetText

; 43   : 	this->SetText(5, "[Reset]: Max Reset %d");

  00147	68 00 00 00 00	 push	 OFFSET ??_C@_0BG@BDFKKKDA@?$FLReset?$FN?3?5Max?5Reset?5?$CFd?$AA@
  0014c	6a 05		 push	 5
  0014e	8b 4d fc	 mov	 ecx, DWORD PTR _this$[ebp]
  00151	e8 00 00 00 00	 call	 ?SetText@CExText@@QAEXHPAD@Z ; CExText::SetText

; 44   : 	this->SetText(6, "[Reset]: You need above %d Level to Reset");

  00156	68 00 00 00 00	 push	 OFFSET ??_C@_0CK@JOKEILBF@?$FLReset?$FN?3?5You?5need?5above?5?$CFd?5Level@
  0015b	6a 06		 push	 6
  0015d	8b 4d fc	 mov	 ecx, DWORD PTR _this$[ebp]
  00160	e8 00 00 00 00	 call	 ?SetText@CExText@@QAEXHPAD@Z ; CExText::SetText

; 45   : 	this->SetText(7, "[Reset]: You need above %d Wcoin to Reset");

  00165	68 00 00 00 00	 push	 OFFSET ??_C@_0CK@JCAEKBGA@?$FLReset?$FN?3?5You?5need?5above?5?$CFd?5Wcoin@
  0016a	6a 07		 push	 7
  0016c	8b 4d fc	 mov	 ecx, DWORD PTR _this$[ebp]
  0016f	e8 00 00 00 00	 call	 ?SetText@CExText@@QAEXHPAD@Z ; CExText::SetText

; 46   : 	this->SetText(8, "[Reset]: You need above %d Credits to Reset");

  00174	68 00 00 00 00	 push	 OFFSET ??_C@_0CM@EPGGAPLD@?$FLReset?$FN?3?5You?5need?5above?5?$CFd?5Credi@
  00179	6a 08		 push	 8
  0017b	8b 4d fc	 mov	 ecx, DWORD PTR _this$[ebp]
  0017e	e8 00 00 00 00	 call	 ?SetText@CExText@@QAEXHPAD@Z ; CExText::SetText

; 47   : 	this->SetText(9, "[Reset]: You need above %d Zen to Reset");

  00183	68 00 00 00 00	 push	 OFFSET ??_C@_0CI@KOEBMPOL@?$FLReset?$FN?3?5You?5need?5above?5?$CFd?5Zen?5t@
  00188	6a 09		 push	 9
  0018a	8b 4d fc	 mov	 ecx, DWORD PTR _this$[ebp]
  0018d	e8 00 00 00 00	 call	 ?SetText@CExText@@QAEXHPAD@Z ; CExText::SetText

; 48   : 	this->SetText(10, "[Reset]: You need Empty Inventory to Reset");

  00192	68 00 00 00 00	 push	 OFFSET ??_C@_0CL@HNIKKPDH@?$FLReset?$FN?3?5You?5need?5Empty?5Inventor@
  00197	6a 0a		 push	 10			; 0000000aH
  00199	8b 4d fc	 mov	 ecx, DWORD PTR _this$[ebp]
  0019c	e8 00 00 00 00	 call	 ?SetText@CExText@@QAEXHPAD@Z ; CExText::SetText

; 49   : 	this->SetText(11, "[Reset]: Need Reset Items %d");

  001a1	68 00 00 00 00	 push	 OFFSET ??_C@_0BN@LOHKEBON@?$FLReset?$FN?3?5Need?5Reset?5Items?5?$CFd?$AA@
  001a6	6a 0b		 push	 11			; 0000000bH
  001a8	8b 4d fc	 mov	 ecx, DWORD PTR _this$[ebp]
  001ab	e8 00 00 00 00	 call	 ?SetText@CExText@@QAEXHPAD@Z ; CExText::SetText

; 50   : 	this->SetText(12, "[GReset]: Started In Lorencia");

  001b0	68 00 00 00 00	 push	 OFFSET ??_C@_0BO@PEPJHIDK@?$FLGReset?$FN?3?5Started?5In?5Lorencia?$AA@
  001b5	6a 0c		 push	 12			; 0000000cH
  001b7	8b 4d fc	 mov	 ecx, DWORD PTR _this$[ebp]
  001ba	e8 00 00 00 00	 call	 ?SetText@CExText@@QAEXHPAD@Z ; CExText::SetText

; 51   : 	this->SetText(13, "[GReset]: Interface Disable");

  001bf	68 00 00 00 00	 push	 OFFSET ??_C@_0BM@CCOFCGNI@?$FLGReset?$FN?3?5Interface?5Disable?$AA@
  001c4	6a 0d		 push	 13			; 0000000dH
  001c6	8b 4d fc	 mov	 ecx, DWORD PTR _this$[ebp]
  001c9	e8 00 00 00 00	 call	 ?SetText@CExText@@QAEXHPAD@Z ; CExText::SetText

; 52   : 	this->SetText(14, "[GReset]: Max Grand Reset %d");

  001ce	68 00 00 00 00	 push	 OFFSET ??_C@_0BN@NFJAONJC@?$FLGReset?$FN?3?5Max?5Grand?5Reset?5?$CFd?$AA@
  001d3	6a 0e		 push	 14			; 0000000eH
  001d5	8b 4d fc	 mov	 ecx, DWORD PTR _this$[ebp]
  001d8	e8 00 00 00 00	 call	 ?SetText@CExText@@QAEXHPAD@Z ; CExText::SetText

; 53   : 	this->SetText(15, "[GReset]: You need above %d Reset to GReset");

  001dd	68 00 00 00 00	 push	 OFFSET ??_C@_0CM@DHNDAPCF@?$FLGReset?$FN?3?5You?5need?5above?5?$CFd?5Rese@
  001e2	6a 0f		 push	 15			; 0000000fH
  001e4	8b 4d fc	 mov	 ecx, DWORD PTR _this$[ebp]
  001e7	e8 00 00 00 00	 call	 ?SetText@CExText@@QAEXHPAD@Z ; CExText::SetText

; 54   : 	this->SetText(16, "[GReset]: You need above %d Level to GReset");

  001ec	68 00 00 00 00	 push	 OFFSET ??_C@_0CM@HPMBDCHP@?$FLGReset?$FN?3?5You?5need?5above?5?$CFd?5Leve@
  001f1	6a 10		 push	 16			; 00000010H
  001f3	8b 4d fc	 mov	 ecx, DWORD PTR _this$[ebp]
  001f6	e8 00 00 00 00	 call	 ?SetText@CExText@@QAEXHPAD@Z ; CExText::SetText

; 55   : 	this->SetText(17, "[GReset]: You need above %d Zen to GReset");

  001fb	68 00 00 00 00	 push	 OFFSET ??_C@_0CK@FCBCNAMG@?$FLGReset?$FN?3?5You?5need?5above?5?$CFd?5Zen?5@
  00200	6a 11		 push	 17			; 00000011H
  00202	8b 4d fc	 mov	 ecx, DWORD PTR _this$[ebp]
  00205	e8 00 00 00 00	 call	 ?SetText@CExText@@QAEXHPAD@Z ; CExText::SetText

; 56   : 	this->SetText(18, "[GReset]: You need Empty Inventory to GReset");

  0020a	68 00 00 00 00	 push	 OFFSET ??_C@_0CN@NMLOMMO@?$FLGReset?$FN?3?5You?5need?5Empty?5Invento@
  0020f	6a 12		 push	 18			; 00000012H
  00211	8b 4d fc	 mov	 ecx, DWORD PTR _this$[ebp]
  00214	e8 00 00 00 00	 call	 ?SetText@CExText@@QAEXHPAD@Z ; CExText::SetText

; 57   : 	this->SetText(19, "[Jewels] Max %d Exellent Option");

  00219	68 00 00 00 00	 push	 OFFSET ??_C@_0CA@GHJGABEM@?$FLJewels?$FN?5Max?5?$CFd?5Exellent?5Option?$AA@
  0021e	6a 13		 push	 19			; 00000013H
  00220	8b 4d fc	 mov	 ecx, DWORD PTR _this$[ebp]
  00223	e8 00 00 00 00	 call	 ?SetText@CExText@@QAEXHPAD@Z ; CExText::SetText

; 58   : 	this->SetText(20, "[Jewels] Need Item Exellent Status");

  00228	68 00 00 00 00	 push	 OFFSET ??_C@_0CD@CKINFCHP@?$FLJewels?$FN?5Need?5Item?5Exellent?5Stat@
  0022d	6a 14		 push	 20			; 00000014H
  0022f	8b 4d fc	 mov	 ecx, DWORD PTR _this$[ebp]
  00232	e8 00 00 00 00	 call	 ?SetText@CExText@@QAEXHPAD@Z ; CExText::SetText

; 59   : 	this->SetText(21, "[Jewels] Max Item Level %d");

  00237	68 00 00 00 00	 push	 OFFSET ??_C@_0BL@NOOKBLBD@?$FLJewels?$FN?5Max?5Item?5Level?5?$CFd?$AA@
  0023c	6a 15		 push	 21			; 00000015H
  0023e	8b 4d fc	 mov	 ecx, DWORD PTR _this$[ebp]
  00241	e8 00 00 00 00	 call	 ?SetText@CExText@@QAEXHPAD@Z ; CExText::SetText

; 60   : 	this->SetText(22, "[Jewels] Min Item Level %d");

  00246	68 00 00 00 00	 push	 OFFSET ??_C@_0BL@INEMADPH@?$FLJewels?$FN?5Min?5Item?5Level?5?$CFd?$AA@
  0024b	6a 16		 push	 22			; 00000016H
  0024d	8b 4d fc	 mov	 ecx, DWORD PTR _this$[ebp]
  00250	e8 00 00 00 00	 call	 ?SetText@CExText@@QAEXHPAD@Z ; CExText::SetText

; 61   : 	this->SetText(23, "[Jewels] Need Item Accessory");

  00255	68 00 00 00 00	 push	 OFFSET ??_C@_0BN@GPPEHKBE@?$FLJewels?$FN?5Need?5Item?5Accessory?$AA@
  0025a	6a 17		 push	 23			; 00000017H
  0025c	8b 4d fc	 mov	 ecx, DWORD PTR _this$[ebp]
  0025f	e8 00 00 00 00	 call	 ?SetText@CExText@@QAEXHPAD@Z ; CExText::SetText

; 62   : 	this->SetText(24, "[Jewels] Is Set to Luck");

  00264	68 00 00 00 00	 push	 OFFSET ??_C@_0BI@BNEAPBOP@?$FLJewels?$FN?5Is?5Set?5to?5Luck?$AA@
  00269	6a 18		 push	 24			; 00000018H
  0026b	8b 4d fc	 mov	 ecx, DWORD PTR _this$[ebp]
  0026e	e8 00 00 00 00	 call	 ?SetText@CExText@@QAEXHPAD@Z ; CExText::SetText

; 63   : 	this->SetText(25, "[Jewels] No use item luck");

  00273	68 00 00 00 00	 push	 OFFSET ??_C@_0BK@JCANILHH@?$FLJewels?$FN?5No?5use?5item?5luck?$AA@
  00278	6a 19		 push	 25			; 00000019H
  0027a	8b 4d fc	 mov	 ecx, DWORD PTR _this$[ebp]
  0027d	e8 00 00 00 00	 call	 ?SetText@CExText@@QAEXHPAD@Z ; CExText::SetText

; 64   : 	this->SetText(26, "[Jewels] Is Weapon to Skill");

  00282	68 00 00 00 00	 push	 OFFSET ??_C@_0BM@OPNKJJKH@?$FLJewels?$FN?5Is?5Weapon?5to?5Skill?$AA@
  00287	6a 1a		 push	 26			; 0000001aH
  00289	8b 4d fc	 mov	 ecx, DWORD PTR _this$[ebp]
  0028c	e8 00 00 00 00	 call	 ?SetText@CExText@@QAEXHPAD@Z ; CExText::SetText

; 65   : 	this->SetText(27, "[Jewels] No use item skill");

  00291	68 00 00 00 00	 push	 OFFSET ??_C@_0BL@EABJKCPD@?$FLJewels?$FN?5No?5use?5item?5skill?$AA@
  00296	6a 1b		 push	 27			; 0000001bH
  00298	8b 4d fc	 mov	 ecx, DWORD PTR _this$[ebp]
  0029b	e8 00 00 00 00	 call	 ?SetText@CExText@@QAEXHPAD@Z ; CExText::SetText

; 66   : 	this->SetText(28, "[Jewels] Max Level Item %d");

  002a0	68 00 00 00 00	 push	 OFFSET ??_C@_0BL@MIGKAOHG@?$FLJewels?$FN?5Max?5Level?5Item?5?$CFd?$AA@
  002a5	6a 1c		 push	 28			; 0000001cH
  002a7	8b 4d fc	 mov	 ecx, DWORD PTR _this$[ebp]
  002aa	e8 00 00 00 00	 call	 ?SetText@CExText@@QAEXHPAD@Z ; CExText::SetText

; 67   : 	this->SetText(29, "[Jewels] Min Level Item %d");

  002af	68 00 00 00 00	 push	 OFFSET ??_C@_0BL@JLMMBGJC@?$FLJewels?$FN?5Min?5Level?5Item?5?$CFd?$AA@
  002b4	6a 1d		 push	 29			; 0000001dH
  002b6	8b 4d fc	 mov	 ecx, DWORD PTR _this$[ebp]
  002b9	e8 00 00 00 00	 call	 ?SetText@CExText@@QAEXHPAD@Z ; CExText::SetText

; 68   : 	this->SetText(30, "[Jewels] No use item Level");

  002be	68 00 00 00 00	 push	 OFFSET ??_C@_0BL@NKONFKM@?$FLJewels?$FN?5No?5use?5item?5Level?$AA@
  002c3	6a 1e		 push	 30			; 0000001eH
  002c5	8b 4d fc	 mov	 ecx, DWORD PTR _this$[ebp]
  002c8	e8 00 00 00 00	 call	 ?SetText@CExText@@QAEXHPAD@Z ; CExText::SetText

; 69   : 	this->SetText(31, "[Jewels] Item Exellent status");

  002cd	68 00 00 00 00	 push	 OFFSET ??_C@_0BO@OEOJOBIJ@?$FLJewels?$FN?5Item?5Exellent?5status?$AA@
  002d2	6a 1f		 push	 31			; 0000001fH
  002d4	8b 4d fc	 mov	 ecx, DWORD PTR _this$[ebp]
  002d7	e8 00 00 00 00	 call	 ?SetText@CExText@@QAEXHPAD@Z ; CExText::SetText

; 70   : 	this->SetText(32, "[Jewels] No use item");

  002dc	68 00 00 00 00	 push	 OFFSET ??_C@_0BF@JAODIPNO@?$FLJewels?$FN?5No?5use?5item?$AA@
  002e1	6a 20		 push	 32			; 00000020H
  002e3	8b 4d fc	 mov	 ecx, DWORD PTR _this$[ebp]
  002e6	e8 00 00 00 00	 call	 ?SetText@CExText@@QAEXHPAD@Z ; CExText::SetText

; 71   : 	this->SetText(33, "[Jewels] No Use Item Ancent");

  002eb	68 00 00 00 00	 push	 OFFSET ??_C@_0BM@DLKEAAPO@?$FLJewels?$FN?5No?5Use?5Item?5Ancent?$AA@
  002f0	6a 21		 push	 33			; 00000021H
  002f2	8b 4d fc	 mov	 ecx, DWORD PTR _this$[ebp]
  002f5	e8 00 00 00 00	 call	 ?SetText@CExText@@QAEXHPAD@Z ; CExText::SetText

; 72   : 	this->SetText(34, "[Jewels] Item is Ancent");

  002fa	68 00 00 00 00	 push	 OFFSET ??_C@_0BI@LGBBPIKN@?$FLJewels?$FN?5Item?5is?5Ancent?$AA@
  002ff	6a 22		 push	 34			; 00000022H
  00301	8b 4d fc	 mov	 ecx, DWORD PTR _this$[ebp]
  00304	e8 00 00 00 00	 call	 ?SetText@CExText@@QAEXHPAD@Z ; CExText::SetText

; 73   : 	this->SetText(35, "[Jewels] Max Option to Item");

  00309	68 00 00 00 00	 push	 OFFSET ??_C@_0BM@OHHBFMIC@?$FLJewels?$FN?5Max?5Option?5to?5Item?$AA@
  0030e	6a 23		 push	 35			; 00000023H
  00310	8b 4d fc	 mov	 ecx, DWORD PTR _this$[ebp]
  00313	e8 00 00 00 00	 call	 ?SetText@CExText@@QAEXHPAD@Z ; CExText::SetText

; 74   : 	this->SetText(36, "[Jewels] No Use Item PvP");

  00318	68 00 00 00 00	 push	 OFFSET ??_C@_0BJ@HIDKABDK@?$FLJewels?$FN?5No?5Use?5Item?5PvP?$AA@
  0031d	6a 24		 push	 36			; 00000024H
  0031f	8b 4d fc	 mov	 ecx, DWORD PTR _this$[ebp]
  00322	e8 00 00 00 00	 call	 ?SetText@CExText@@QAEXHPAD@Z ; CExText::SetText

; 75   : 	this->SetText(37, "[Jewels] Item is PvP");

  00327	68 00 00 00 00	 push	 OFFSET ??_C@_0BF@JOAPLKJN@?$FLJewels?$FN?5Item?5is?5PvP?$AA@
  0032c	6a 25		 push	 37			; 00000025H
  0032e	8b 4d fc	 mov	 ecx, DWORD PTR _this$[ebp]
  00331	e8 00 00 00 00	 call	 ?SetText@CExText@@QAEXHPAD@Z ; CExText::SetText

; 76   : 	this->SetText(38, "[Jewels] Max Socket option %d");

  00336	68 00 00 00 00	 push	 OFFSET ??_C@_0BO@JJNPMFLC@?$FLJewels?$FN?5Max?5Socket?5option?5?$CFd?$AA@
  0033b	6a 26		 push	 38			; 00000026H
  0033d	8b 4d fc	 mov	 ecx, DWORD PTR _this$[ebp]
  00340	e8 00 00 00 00	 call	 ?SetText@CExText@@QAEXHPAD@Z ; CExText::SetText

; 77   : 	this->SetText(39, "[Jewels] No Use Item Socket");

  00345	68 00 00 00 00	 push	 OFFSET ??_C@_0BM@OMDDMGGO@?$FLJewels?$FN?5No?5Use?5Item?5Socket?$AA@
  0034a	6a 27		 push	 39			; 00000027H
  0034c	8b 4d fc	 mov	 ecx, DWORD PTR _this$[ebp]
  0034f	e8 00 00 00 00	 call	 ?SetText@CExText@@QAEXHPAD@Z ; CExText::SetText

; 78   : 	this->SetText(40, "[Jewels] Max %d Exellent Option");

  00354	68 00 00 00 00	 push	 OFFSET ??_C@_0CA@GHJGABEM@?$FLJewels?$FN?5Max?5?$CFd?5Exellent?5Option?$AA@
  00359	6a 28		 push	 40			; 00000028H
  0035b	8b 4d fc	 mov	 ecx, DWORD PTR _this$[ebp]
  0035e	e8 00 00 00 00	 call	 ?SetText@CExText@@QAEXHPAD@Z ; CExText::SetText

; 79   : 	this->SetText(41, "[Jewels] Item Exellent Status");

  00363	68 00 00 00 00	 push	 OFFSET ??_C@_0BO@CLFENIBF@?$FLJewels?$FN?5Item?5Exellent?5Status?$AA@
  00368	6a 29		 push	 41			; 00000029H
  0036a	8b 4d fc	 mov	 ecx, DWORD PTR _this$[ebp]
  0036d	e8 00 00 00 00	 call	 ?SetText@CExText@@QAEXHPAD@Z ; CExText::SetText

; 80   : 	this->SetText(42, "[OfflineMode] Disable in Castle siege map");

  00372	68 00 00 00 00	 push	 OFFSET ??_C@_0CK@NAELDEKN@?$FLOfflineMode?$FN?5Disable?5in?5Castle?5@
  00377	6a 2a		 push	 42			; 0000002aH
  00379	8b 4d fc	 mov	 ecx, DWORD PTR _this$[ebp]
  0037c	e8 00 00 00 00	 call	 ?SetText@CExText@@QAEXHPAD@Z ; CExText::SetText

; 81   : 	this->SetText(43, "[OffTrade] OffTrade work only Loren Market");

  00381	68 00 00 00 00	 push	 OFFSET ??_C@_0CL@IJMEMPLE@?$FLOffTrade?$FN?5OffTrade?5work?5only?5Lo@
  00386	6a 2b		 push	 43			; 0000002bH
  00388	8b 4d fc	 mov	 ecx, DWORD PTR _this$[ebp]
  0038b	e8 00 00 00 00	 call	 ?SetText@CExText@@QAEXHPAD@Z ; CExText::SetText

; 82   : 	this->SetText(44,"[OfflineTrade][%s]");

  00390	68 00 00 00 00	 push	 OFFSET ??_C@_0BD@IPGMBHGD@?$FLOfflineTrade?$FN?$FL?$CFs?$FN?$AA@
  00395	6a 2c		 push	 44			; 0000002cH
  00397	8b 4d fc	 mov	 ecx, DWORD PTR _this$[ebp]
  0039a	e8 00 00 00 00	 call	 ?SetText@CExText@@QAEXHPAD@Z ; CExText::SetText

; 83   : 	this->SetText(45, "[OffTrade] OffTrade work only Loren Market");

  0039f	68 00 00 00 00	 push	 OFFSET ??_C@_0CL@IJMEMPLE@?$FLOffTrade?$FN?5OffTrade?5work?5only?5Lo@
  003a4	6a 2d		 push	 45			; 0000002dH
  003a6	8b 4d fc	 mov	 ecx, DWORD PTR _this$[ebp]
  003a9	e8 00 00 00 00	 call	 ?SetText@CExText@@QAEXHPAD@Z ; CExText::SetText

; 84   : 	this->SetText(46, "[OffTrade] Disable in Castle siege map");

  003ae	68 00 00 00 00	 push	 OFFSET ??_C@_0CH@JMGBEBME@?$FLOffTrade?$FN?5Disable?5in?5Castle?5sie@
  003b3	6a 2e		 push	 46			; 0000002eH
  003b5	8b 4d fc	 mov	 ecx, DWORD PTR _this$[ebp]
  003b8	e8 00 00 00 00	 call	 ?SetText@CExText@@QAEXHPAD@Z ; CExText::SetText

; 85   : 	this->SetText(47, "[OffTrade] Need Open Shop");

  003bd	68 00 00 00 00	 push	 OFFSET ??_C@_0BK@JCDLIHIH@?$FLOffTrade?$FN?5Need?5Open?5Shop?$AA@
  003c2	6a 2f		 push	 47			; 0000002fH
  003c4	8b 4d fc	 mov	 ecx, DWORD PTR _this$[ebp]
  003c7	e8 00 00 00 00	 call	 ?SetText@CExText@@QAEXHPAD@Z ; CExText::SetText

; 86   : 	this->SetText(48, "[OffTrade][%s] Lorencia %d %d");

  003cc	68 00 00 00 00	 push	 OFFSET ??_C@_0BO@OJEHOFOB@?$FLOffTrade?$FN?$FL?$CFs?$FN?5Lorencia?5?$CFd?5?$CFd?$AA@
  003d1	6a 30		 push	 48			; 00000030H
  003d3	8b 4d fc	 mov	 ecx, DWORD PTR _this$[ebp]
  003d6	e8 00 00 00 00	 call	 ?SetText@CExText@@QAEXHPAD@Z ; CExText::SetText

; 87   : 	this->SetText(49, "[OffTrade][%s] Devias %d %d");

  003db	68 00 00 00 00	 push	 OFFSET ??_C@_0BM@DMBKDJLH@?$FLOffTrade?$FN?$FL?$CFs?$FN?5Devias?5?$CFd?5?$CFd?$AA@
  003e0	6a 31		 push	 49			; 00000031H
  003e2	8b 4d fc	 mov	 ecx, DWORD PTR _this$[ebp]
  003e5	e8 00 00 00 00	 call	 ?SetText@CExText@@QAEXHPAD@Z ; CExText::SetText

; 88   : 	this->SetText(50, "[OffTrade][%s] Noria %d %d");

  003ea	68 00 00 00 00	 push	 OFFSET ??_C@_0BL@IOMNLDFP@?$FLOffTrade?$FN?$FL?$CFs?$FN?5Noria?5?$CFd?5?$CFd?$AA@
  003ef	6a 32		 push	 50			; 00000032H
  003f1	8b 4d fc	 mov	 ecx, DWORD PTR _this$[ebp]
  003f4	e8 00 00 00 00	 call	 ?SetText@CExText@@QAEXHPAD@Z ; CExText::SetText

; 89   : 	this->SetText(51, "[OffTrade][%s] Emblend %d %d");

  003f9	68 00 00 00 00	 push	 OFFSET ??_C@_0BN@GJJHAMAG@?$FLOffTrade?$FN?$FL?$CFs?$FN?5Emblend?5?$CFd?5?$CFd?$AA@
  003fe	6a 33		 push	 51			; 00000033H
  00400	8b 4d fc	 mov	 ecx, DWORD PTR _this$[ebp]
  00403	e8 00 00 00 00	 call	 ?SetText@CExText@@QAEXHPAD@Z ; CExText::SetText

; 90   : 	this->SetText(52, "[OffTrade][%s] Loren %d %d");

  00408	68 00 00 00 00	 push	 OFFSET ??_C@_0BL@FNOCMMHI@?$FLOffTrade?$FN?$FL?$CFs?$FN?5Loren?5?$CFd?5?$CFd?$AA@
  0040d	6a 34		 push	 52			; 00000034H
  0040f	8b 4d fc	 mov	 ecx, DWORD PTR _this$[ebp]
  00412	e8 00 00 00 00	 call	 ?SetText@CExText@@QAEXHPAD@Z ; CExText::SetText

; 91   : 	this->SetText(53, "[Offline Trade] work only special maps");

  00417	68 00 00 00 00	 push	 OFFSET ??_C@_0CH@IHHOOGEB@?$FLOffline?5Trade?$FN?5work?5only?5specia@
  0041c	6a 35		 push	 53			; 00000035H
  0041e	8b 4d fc	 mov	 ecx, DWORD PTR _this$[ebp]
  00421	e8 00 00 00 00	 call	 ?SetText@CExText@@QAEXHPAD@Z ; CExText::SetText

; 92   : 	this->SetText(54, ".::ZEN SHOP::.");

  00426	68 00 00 00 00	 push	 OFFSET ??_C@_0P@KNLBLEED@?4?3?3ZEN?5SHOP?3?3?4?$AA@
  0042b	6a 36		 push	 54			; 00000036H
  0042d	8b 4d fc	 mov	 ecx, DWORD PTR _this$[ebp]
  00430	e8 00 00 00 00	 call	 ?SetText@CExText@@QAEXHPAD@Z ; CExText::SetText

; 93   : 	this->SetText(55, ".::CREDIT SHOP::.");

  00435	68 00 00 00 00	 push	 OFFSET ??_C@_0BC@BEOIOLAE@?4?3?3CREDIT?5SHOP?3?3?4?$AA@
  0043a	6a 37		 push	 55			; 00000037H
  0043c	8b 4d fc	 mov	 ecx, DWORD PTR _this$[ebp]
  0043f	e8 00 00 00 00	 call	 ?SetText@CExText@@QAEXHPAD@Z ; CExText::SetText

; 94   : 	this->SetText(56, ".::WCOIN SHOP::.");

  00444	68 00 00 00 00	 push	 OFFSET ??_C@_0BB@IPFIAIKD@?4?3?3WCOIN?5SHOP?3?3?4?$AA@
  00449	6a 38		 push	 56			; 00000038H
  0044b	8b 4d fc	 mov	 ecx, DWORD PTR _this$[ebp]
  0044e	e8 00 00 00 00	 call	 ?SetText@CExText@@QAEXHPAD@Z ; CExText::SetText

; 95   : 	this->SetText(57, ".::WCOIN(P) SHOP::.");

  00453	68 00 00 00 00	 push	 OFFSET ??_C@_0BE@BFOPECO@?4?3?3WCOIN?$CIP?$CJ?5SHOP?3?3?4?$AA@
  00458	6a 39		 push	 57			; 00000039H
  0045a	8b 4d fc	 mov	 ecx, DWORD PTR _this$[ebp]
  0045d	e8 00 00 00 00	 call	 ?SetText@CExText@@QAEXHPAD@Z ; CExText::SetText

; 96   : 	this->SetText(58, ".::GOBLIN SHOP::.");

  00462	68 00 00 00 00	 push	 OFFSET ??_C@_0BC@ECPKDNH@?4?3?3GOBLIN?5SHOP?3?3?4?$AA@
  00467	6a 3a		 push	 58			; 0000003aH
  00469	8b 4d fc	 mov	 ecx, DWORD PTR _this$[ebp]
  0046c	e8 00 00 00 00	 call	 ?SetText@CExText@@QAEXHPAD@Z ; CExText::SetText

; 97   : 	this->SetText(59, ".::CHAOS SHOP::.");

  00471	68 00 00 00 00	 push	 OFFSET ??_C@_0BB@MEFLBHHC@?4?3?3CHAOS?5SHOP?3?3?4?$AA@
  00476	6a 3b		 push	 59			; 0000003bH
  00478	8b 4d fc	 mov	 ecx, DWORD PTR _this$[ebp]
  0047b	e8 00 00 00 00	 call	 ?SetText@CExText@@QAEXHPAD@Z ; CExText::SetText

; 98   : 	this->SetText(60, ".::BLESS SHOP::.");

  00480	68 00 00 00 00	 push	 OFFSET ??_C@_0BB@DOAHPBOB@?4?3?3BLESS?5SHOP?3?3?4?$AA@
  00485	6a 3c		 push	 60			; 0000003cH
  00487	8b 4d fc	 mov	 ecx, DWORD PTR _this$[ebp]
  0048a	e8 00 00 00 00	 call	 ?SetText@CExText@@QAEXHPAD@Z ; CExText::SetText

; 99   : 	this->SetText(61, ".::SOUL SHOP::.");

  0048f	68 00 00 00 00	 push	 OFFSET ??_C@_0BA@NIKENFKH@?4?3?3SOUL?5SHOP?3?3?4?$AA@
  00494	6a 3d		 push	 61			; 0000003dH
  00496	8b 4d fc	 mov	 ecx, DWORD PTR _this$[ebp]
  00499	e8 00 00 00 00	 call	 ?SetText@CExText@@QAEXHPAD@Z ; CExText::SetText

; 100  : 	this->SetText(62, ".::LIFE SHOP::.");

  0049e	68 00 00 00 00	 push	 OFFSET ??_C@_0BA@GPOPIKKI@?4?3?3LIFE?5SHOP?3?3?4?$AA@
  004a3	6a 3e		 push	 62			; 0000003eH
  004a5	8b 4d fc	 mov	 ecx, DWORD PTR _this$[ebp]
  004a8	e8 00 00 00 00	 call	 ?SetText@CExText@@QAEXHPAD@Z ; CExText::SetText

; 101  : 	this->SetText(63, "[%s][%s] Lorencia %d %d");

  004ad	68 00 00 00 00	 push	 OFFSET ??_C@_0BI@MAEGLEHI@?$FL?$CFs?$FN?$FL?$CFs?$FN?5Lorencia?5?$CFd?5?$CFd?$AA@
  004b2	6a 3f		 push	 63			; 0000003fH
  004b4	8b 4d fc	 mov	 ecx, DWORD PTR _this$[ebp]
  004b7	e8 00 00 00 00	 call	 ?SetText@CExText@@QAEXHPAD@Z ; CExText::SetText

; 102  : 	this->SetText(64, "[%s][%s] Devias %d %d");

  004bc	68 00 00 00 00	 push	 OFFSET ??_C@_0BG@KJDAJKBP@?$FL?$CFs?$FN?$FL?$CFs?$FN?5Devias?5?$CFd?5?$CFd?$AA@
  004c1	6a 40		 push	 64			; 00000040H
  004c3	8b 4d fc	 mov	 ecx, DWORD PTR _this$[ebp]
  004c6	e8 00 00 00 00	 call	 ?SetText@CExText@@QAEXHPAD@Z ; CExText::SetText

; 103  : 	this->SetText(65, "[%s][%s] Noria %d %d");

  004cb	68 00 00 00 00	 push	 OFFSET ??_C@_0BF@BLCEJJJH@?$FL?$CFs?$FN?$FL?$CFs?$FN?5Noria?5?$CFd?5?$CFd?$AA@
  004d0	6a 41		 push	 65			; 00000041H
  004d2	8b 4d fc	 mov	 ecx, DWORD PTR _this$[ebp]
  004d5	e8 00 00 00 00	 call	 ?SetText@CExText@@QAEXHPAD@Z ; CExText::SetText

; 104  : 	this->SetText(66, "[%s][%s] Emblend %d %d");

  004da	68 00 00 00 00	 push	 OFFSET ??_C@_0BH@LBAPANHP@?$FL?$CFs?$FN?$FL?$CFs?$FN?5Emblend?5?$CFd?5?$CFd?$AA@
  004df	6a 42		 push	 66			; 00000042H
  004e1	8b 4d fc	 mov	 ecx, DWORD PTR _this$[ebp]
  004e4	e8 00 00 00 00	 call	 ?SetText@CExText@@QAEXHPAD@Z ; CExText::SetText

; 105  : 	this->SetText(67, "[%s][%s] Loren %d %d");

  004e9	68 00 00 00 00	 push	 OFFSET ??_C@_0BF@MIALOGLA@?$FL?$CFs?$FN?$FL?$CFs?$FN?5Loren?5?$CFd?5?$CFd?$AA@
  004ee	6a 43		 push	 67			; 00000043H
  004f0	8b 4d fc	 mov	 ecx, DWORD PTR _this$[ebp]
  004f3	e8 00 00 00 00	 call	 ?SetText@CExText@@QAEXHPAD@Z ; CExText::SetText

; 106  : 	this->SetText(68, "[OffTrade] work only special maps");

  004f8	68 00 00 00 00	 push	 OFFSET ??_C@_0CC@LHBNDNI@?$FLOffTrade?$FN?5work?5only?5special?5map@
  004fd	6a 44		 push	 68			; 00000044H
  004ff	8b 4d fc	 mov	 ecx, DWORD PTR _this$[ebp]
  00502	e8 00 00 00 00	 call	 ?SetText@CExText@@QAEXHPAD@Z ; CExText::SetText

; 107  : 	this->SetText(69, "[OffTrade] Need %d PcPoint");

  00507	68 00 00 00 00	 push	 OFFSET ??_C@_0BL@NCOFGJCD@?$FLOffTrade?$FN?5Need?5?$CFd?5PcPoint?$AA@
  0050c	6a 45		 push	 69			; 00000045H
  0050e	8b 4d fc	 mov	 ecx, DWORD PTR _this$[ebp]
  00511	e8 00 00 00 00	 call	 ?SetText@CExText@@QAEXHPAD@Z ; CExText::SetText

; 108  : 	this->SetText(70, "[OffTrade] Need %d WCoinC");

  00516	68 00 00 00 00	 push	 OFFSET ??_C@_0BK@FOPAGMFK@?$FLOffTrade?$FN?5Need?5?$CFd?5WCoinC?$AA@
  0051b	6a 46		 push	 70			; 00000046H
  0051d	8b 4d fc	 mov	 ecx, DWORD PTR _this$[ebp]
  00520	e8 00 00 00 00	 call	 ?SetText@CExText@@QAEXHPAD@Z ; CExText::SetText

; 109  : 	this->SetText(71, "[OffTrade] Need %d WCoinP");

  00525	68 00 00 00 00	 push	 OFFSET ??_C@_0BK@DPBPCNMI@?$FLOffTrade?$FN?5Need?5?$CFd?5WCoinP?$AA@
  0052a	6a 47		 push	 71			; 00000047H
  0052c	8b 4d fc	 mov	 ecx, DWORD PTR _this$[ebp]
  0052f	e8 00 00 00 00	 call	 ?SetText@CExText@@QAEXHPAD@Z ; CExText::SetText

; 110  : 	this->SetText(72, "[OffTrade] Need %d WCoinG");

  00534	68 00 00 00 00	 push	 OFFSET ??_C@_0BK@DKJMKJFO@?$FLOffTrade?$FN?5Need?5?$CFd?5WCoinG?$AA@
  00539	6a 48		 push	 72			; 00000048H
  0053b	8b 4d fc	 mov	 ecx, DWORD PTR _this$[ebp]
  0053e	e8 00 00 00 00	 call	 ?SetText@CExText@@QAEXHPAD@Z ; CExText::SetText

; 111  : 	this->SetText(73, "[OffTrade] Need %d Chaos Bank");

  00543	68 00 00 00 00	 push	 OFFSET ??_C@_0BO@DHKNJCEE@?$FLOffTrade?$FN?5Need?5?$CFd?5Chaos?5Bank?$AA@
  00548	6a 49		 push	 73			; 00000049H
  0054a	8b 4d fc	 mov	 ecx, DWORD PTR _this$[ebp]
  0054d	e8 00 00 00 00	 call	 ?SetText@CExText@@QAEXHPAD@Z ; CExText::SetText

; 112  : 	this->SetText(74, "[OffTrade] Need %d Bless Bank");

  00552	68 00 00 00 00	 push	 OFFSET ??_C@_0BO@IJDAJIJG@?$FLOffTrade?$FN?5Need?5?$CFd?5Bless?5Bank?$AA@
  00557	6a 4a		 push	 74			; 0000004aH
  00559	8b 4d fc	 mov	 ecx, DWORD PTR _this$[ebp]
  0055c	e8 00 00 00 00	 call	 ?SetText@CExText@@QAEXHPAD@Z ; CExText::SetText

; 113  : 	this->SetText(75, "[OffTrade] Need %d Soul Bank");

  00561	68 00 00 00 00	 push	 OFFSET ??_C@_0BN@IIFLCIIK@?$FLOffTrade?$FN?5Need?5?$CFd?5Soul?5Bank?$AA@
  00566	6a 4b		 push	 75			; 0000004bH
  00568	8b 4d fc	 mov	 ecx, DWORD PTR _this$[ebp]
  0056b	e8 00 00 00 00	 call	 ?SetText@CExText@@QAEXHPAD@Z ; CExText::SetText

; 114  : 	this->SetText(76, "[OffTrade] Need %d Life Bank");

  00570	68 00 00 00 00	 push	 OFFSET ??_C@_0BN@EKEIPIHO@?$FLOffTrade?$FN?5Need?5?$CFd?5Life?5Bank?$AA@
  00575	6a 4c		 push	 76			; 0000004cH
  00577	8b 4d fc	 mov	 ecx, DWORD PTR _this$[ebp]
  0057a	e8 00 00 00 00	 call	 ?SetText@CExText@@QAEXHPAD@Z ; CExText::SetText

; 115  : 	this->SetText(77, "In %s Max Zen In Inventory");

  0057f	68 00 00 00 00	 push	 OFFSET ??_C@_0BL@DLGFFCMG@In?5?$CFs?5Max?5Zen?5In?5Inventory?$AA@
  00584	6a 4d		 push	 77			; 0000004dH
  00586	8b 4d fc	 mov	 ecx, DWORD PTR _this$[ebp]
  00589	e8 00 00 00 00	 call	 ?SetText@CExText@@QAEXHPAD@Z ; CExText::SetText

; 116  : 	this->SetText(78, "Max Zen In Inventory");

  0058e	68 00 00 00 00	 push	 OFFSET ??_C@_0BF@BBLCPHHL@Max?5Zen?5In?5Inventory?$AA@
  00593	6a 4e		 push	 78			; 0000004eH
  00595	8b 4d fc	 mov	 ecx, DWORD PTR _this$[ebp]
  00598	e8 00 00 00 00	 call	 ?SetText@CExText@@QAEXHPAD@Z ; CExText::SetText

; 117  : 	this->SetText(79, "[Buy] Need %d Zen");

  0059d	68 00 00 00 00	 push	 OFFSET ??_C@_0BC@GHOMDOGB@?$FLBuy?$FN?5Need?5?$CFd?5Zen?$AA@
  005a2	6a 4f		 push	 79			; 0000004fH
  005a4	8b 4d fc	 mov	 ecx, DWORD PTR _this$[ebp]
  005a7	e8 00 00 00 00	 call	 ?SetText@CExText@@QAEXHPAD@Z ; CExText::SetText

; 118  : 	this->SetText(80, "[Buy] Need %d Credit");

  005ac	68 00 00 00 00	 push	 OFFSET ??_C@_0BF@ICDIOCHI@?$FLBuy?$FN?5Need?5?$CFd?5Credit?$AA@
  005b1	6a 50		 push	 80			; 00000050H
  005b3	8b 4d fc	 mov	 ecx, DWORD PTR _this$[ebp]
  005b6	e8 00 00 00 00	 call	 ?SetText@CExText@@QAEXHPAD@Z ; CExText::SetText

; 119  : 	this->SetText(81, "[Buy] Price %d Credit");

  005bb	68 00 00 00 00	 push	 OFFSET ??_C@_0BG@OFIJBKOP@?$FLBuy?$FN?5Price?5?$CFd?5Credit?$AA@
  005c0	6a 51		 push	 81			; 00000051H
  005c2	8b 4d fc	 mov	 ecx, DWORD PTR _this$[ebp]
  005c5	e8 00 00 00 00	 call	 ?SetText@CExText@@QAEXHPAD@Z ; CExText::SetText

; 120  : 	this->SetText(82, "[Buy] Need %d WCoinC");

  005ca	68 00 00 00 00	 push	 OFFSET ??_C@_0BF@PDBNPIGA@?$FLBuy?$FN?5Need?5?$CFd?5WCoinC?$AA@
  005cf	6a 52		 push	 82			; 00000052H
  005d1	8b 4d fc	 mov	 ecx, DWORD PTR _this$[ebp]
  005d4	e8 00 00 00 00	 call	 ?SetText@CExText@@QAEXHPAD@Z ; CExText::SetText

; 121  : 	this->SetText(83, "[Buy] Price %d WCoinC");

  005d9	68 00 00 00 00	 push	 OFFSET ??_C@_0BG@JEKMAAPH@?$FLBuy?$FN?5Price?5?$CFd?5WCoinC?$AA@
  005de	6a 53		 push	 83			; 00000053H
  005e0	8b 4d fc	 mov	 ecx, DWORD PTR _this$[ebp]
  005e3	e8 00 00 00 00	 call	 ?SetText@CExText@@QAEXHPAD@Z ; CExText::SetText

; 122  : 	this->SetText(84, "[Buy] Need %d WCoinP");

  005e8	68 00 00 00 00	 push	 OFFSET ??_C@_0BF@JCPCLJPC@?$FLBuy?$FN?5Need?5?$CFd?5WCoinP?$AA@
  005ed	6a 54		 push	 84			; 00000054H
  005ef	8b 4d fc	 mov	 ecx, DWORD PTR _this$[ebp]
  005f2	e8 00 00 00 00	 call	 ?SetText@CExText@@QAEXHPAD@Z ; CExText::SetText

; 123  : 	this->SetText(85, "[Buy] Need %d WCoinP");

  005f7	68 00 00 00 00	 push	 OFFSET ??_C@_0BF@JCPCLJPC@?$FLBuy?$FN?5Need?5?$CFd?5WCoinP?$AA@
  005fc	6a 55		 push	 85			; 00000055H
  005fe	8b 4d fc	 mov	 ecx, DWORD PTR _this$[ebp]
  00601	e8 00 00 00 00	 call	 ?SetText@CExText@@QAEXHPAD@Z ; CExText::SetText

; 124  : 	this->SetText(86, "[Buy] Need %d Goblin");

  00606	68 00 00 00 00	 push	 OFFSET ??_C@_0BF@OIGNJAK@?$FLBuy?$FN?5Need?5?$CFd?5Goblin?$AA@
  0060b	6a 56		 push	 86			; 00000056H
  0060d	8b 4d fc	 mov	 ecx, DWORD PTR _this$[ebp]
  00610	e8 00 00 00 00	 call	 ?SetText@CExText@@QAEXHPAD@Z ; CExText::SetText

; 125  : 	this->SetText(87, "[Buy] Price %d Goblin");

  00615	68 00 00 00 00	 push	 OFFSET ??_C@_0BG@GJDHCBJN@?$FLBuy?$FN?5Price?5?$CFd?5Goblin?$AA@
  0061a	6a 57		 push	 87			; 00000057H
  0061c	8b 4d fc	 mov	 ecx, DWORD PTR _this$[ebp]
  0061f	e8 00 00 00 00	 call	 ?SetText@CExText@@QAEXHPAD@Z ; CExText::SetText

; 126  : 	this->SetText(88, "~[WCoinC]: Online Bonus: %d");

  00624	68 00 00 00 00	 push	 OFFSET ??_C@_0BM@KLEMOFCB@?$HO?$FLWCoinC?$FN?3?5Online?5Bonus?3?5?$CFd?$AA@
  00629	6a 58		 push	 88			; 00000058H
  0062b	8b 4d fc	 mov	 ecx, DWORD PTR _this$[ebp]
  0062e	e8 00 00 00 00	 call	 ?SetText@CExText@@QAEXHPAD@Z ; CExText::SetText

; 127  : 	this->SetText(89, "~[WCoinP]: Online Bonus: %d");

  00633	68 00 00 00 00	 push	 OFFSET ??_C@_0BM@JLLGHFCO@?$HO?$FLWCoinP?$FN?3?5Online?5Bonus?3?5?$CFd?$AA@
  00638	6a 59		 push	 89			; 00000059H
  0063a	8b 4d fc	 mov	 ecx, DWORD PTR _this$[ebp]
  0063d	e8 00 00 00 00	 call	 ?SetText@CExText@@QAEXHPAD@Z ; CExText::SetText

; 128  : 	this->SetText(90, "~[Goblin]: Online Bonus: %d");

  00642	68 00 00 00 00	 push	 OFFSET ??_C@_0BM@JNEHDAID@?$HO?$FLGoblin?$FN?3?5Online?5Bonus?3?5?$CFd?$AA@
  00647	6a 5a		 push	 90			; 0000005aH
  00649	8b 4d fc	 mov	 ecx, DWORD PTR _this$[ebp]
  0064c	e8 00 00 00 00	 call	 ?SetText@CExText@@QAEXHPAD@Z ; CExText::SetText

; 129  : 	this->SetText(91, "~[Credit]: Online Bonus: %d");

  00651	68 00 00 00 00	 push	 OFFSET ??_C@_0BM@CGIKKGMH@?$HO?$FLCredit?$FN?3?5Online?5Bonus?3?5?$CFd?$AA@
  00656	6a 5b		 push	 91			; 0000005bH
  00658	8b 4d fc	 mov	 ecx, DWORD PTR _this$[ebp]
  0065b	e8 00 00 00 00	 call	 ?SetText@CExText@@QAEXHPAD@Z ; CExText::SetText

; 130  : 	this->SetText(92, "[Evangelion] Lorencia Win %s!");

  00660	68 00 00 00 00	 push	 OFFSET ??_C@_0BO@JENKFAJA@?$FLEvangelion?$FN?5Lorencia?5Win?5?$CFs?$CB?$AA@
  00665	6a 5c		 push	 92			; 0000005cH
  00667	8b 4d fc	 mov	 ecx, DWORD PTR _this$[ebp]
  0066a	e8 00 00 00 00	 call	 ?SetText@CExText@@QAEXHPAD@Z ; CExText::SetText

; 131  : 	this->SetText(93, "[Evangelion] In Noria!");

  0066f	68 00 00 00 00	 push	 OFFSET ??_C@_0BH@NGNDIGCL@?$FLEvangelion?$FN?5In?5Noria?$CB?$AA@
  00674	6a 5d		 push	 93			; 0000005dH
  00676	8b 4d fc	 mov	 ecx, DWORD PTR _this$[ebp]
  00679	e8 00 00 00 00	 call	 ?SetText@CExText@@QAEXHPAD@Z ; CExText::SetText

; 132  : 	this->SetText(94, "[Evangelion] Noria Win %s!");

  0067e	68 00 00 00 00	 push	 OFFSET ??_C@_0BL@DFMNOIC@?$FLEvangelion?$FN?5Noria?5Win?5?$CFs?$CB?$AA@
  00683	6a 5e		 push	 94			; 0000005eH
  00685	8b 4d fc	 mov	 ecx, DWORD PTR _this$[ebp]
  00688	e8 00 00 00 00	 call	 ?SetText@CExText@@QAEXHPAD@Z ; CExText::SetText

; 133  : 	this->SetText(95, "[Evangelion] In Devias!");

  0068d	68 00 00 00 00	 push	 OFFSET ??_C@_0BI@OBOMMEGL@?$FLEvangelion?$FN?5In?5Devias?$CB?$AA@
  00692	6a 5f		 push	 95			; 0000005fH
  00694	8b 4d fc	 mov	 ecx, DWORD PTR _this$[ebp]
  00697	e8 00 00 00 00	 call	 ?SetText@CExText@@QAEXHPAD@Z ; CExText::SetText

; 134  : 	this->SetText(96, "[Evangelion] Devias Win %s!");

  0069c	68 00 00 00 00	 push	 OFFSET ??_C@_0BM@BFEGMEHA@?$FLEvangelion?$FN?5Devias?5Win?5?$CFs?$CB?$AA@
  006a1	6a 60		 push	 96			; 00000060H
  006a3	8b 4d fc	 mov	 ecx, DWORD PTR _this$[ebp]
  006a6	e8 00 00 00 00	 call	 ?SetText@CExText@@QAEXHPAD@Z ; CExText::SetText

; 135  : 	this->SetText(97, "[Evangelion] In Lorencia!");

  006ab	68 00 00 00 00	 push	 OFFSET ??_C@_0BK@NFIPBKLM@?$FLEvangelion?$FN?5In?5Lorencia?$CB?$AA@
  006b0	6a 61		 push	 97			; 00000061H
  006b2	8b 4d fc	 mov	 ecx, DWORD PTR _this$[ebp]
  006b5	e8 00 00 00 00	 call	 ?SetText@CExText@@QAEXHPAD@Z ; CExText::SetText

; 136  : 	this->SetText(98, "[Evangelion] End!");

  006ba	68 00 00 00 00	 push	 OFFSET ??_C@_0BC@FHHCMEHD@?$FLEvangelion?$FN?5End?$CB?$AA@
  006bf	6a 62		 push	 98			; 00000062H
  006c1	8b 4d fc	 mov	 ecx, DWORD PTR _this$[ebp]
  006c4	e8 00 00 00 00	 call	 ?SetText@CExText@@QAEXHPAD@Z ; CExText::SetText

; 137  : 	this->SetText(99, "[Happy Hour] Event Started!");

  006c9	68 00 00 00 00	 push	 OFFSET ??_C@_0BM@JPLLBIDJ@?$FLHappy?5Hour?$FN?5Event?5Started?$CB?$AA@
  006ce	6a 63		 push	 99			; 00000063H
  006d0	8b 4d fc	 mov	 ecx, DWORD PTR _this$[ebp]
  006d3	e8 00 00 00 00	 call	 ?SetText@CExText@@QAEXHPAD@Z ; CExText::SetText

; 138  : 	this->SetText(100, "[Happy Hour] Exp: +%d%%%% Drop: +%d%%%%%");

  006d8	68 00 00 00 00	 push	 OFFSET ??_C@_0CJ@MDEEPFFJ@?$FLHappy?5Hour?$FN?5Exp?3?5?$CL?$CFd?$CF?$CF?$CF?$CF?5Drop?3?5@
  006dd	6a 64		 push	 100			; 00000064H
  006df	8b 4d fc	 mov	 ecx, DWORD PTR _this$[ebp]
  006e2	e8 00 00 00 00	 call	 ?SetText@CExText@@QAEXHPAD@Z ; CExText::SetText

; 139  : 	this->SetText(101, "[Happy Hour] Event Close!");

  006e7	68 00 00 00 00	 push	 OFFSET ??_C@_0BK@GLEDHAJM@?$FLHappy?5Hour?$FN?5Event?5Close?$CB?$AA@
  006ec	6a 65		 push	 101			; 00000065H
  006ee	8b 4d fc	 mov	 ecx, DWORD PTR _this$[ebp]
  006f1	e8 00 00 00 00	 call	 ?SetText@CExText@@QAEXHPAD@Z ; CExText::SetText

; 140  : 	this->SetText(102, "@[%s]: Mission: %d");

  006f6	68 00 00 00 00	 push	 OFFSET ??_C@_0BD@DALIAMPI@?$EA?$FL?$CFs?$FN?3?5Mission?3?5?$CFd?$AA@
  006fb	6a 66		 push	 102			; 00000066H
  006fd	8b 4d fc	 mov	 ecx, DWORD PTR _this$[ebp]
  00700	e8 00 00 00 00	 call	 ?SetText@CExText@@QAEXHPAD@Z ; CExText::SetText

; 141  : 	this->SetText(103, "@[%s]: Mission accomplished!");

  00705	68 00 00 00 00	 push	 OFFSET ??_C@_0BN@LLEFKEPK@?$EA?$FL?$CFs?$FN?3?5Mission?5accomplished?$CB?$AA@
  0070a	6a 67		 push	 103			; 00000067H
  0070c	8b 4d fc	 mov	 ecx, DWORD PTR _this$[ebp]
  0070f	e8 00 00 00 00	 call	 ?SetText@CExText@@QAEXHPAD@Z ; CExText::SetText

; 142  : 	this->SetText(104, "@[%s]: FreePoints %d!");

  00714	68 00 00 00 00	 push	 OFFSET ??_C@_0BG@MANINCDG@?$EA?$FL?$CFs?$FN?3?5FreePoints?5?$CFd?$CB?$AA@
  00719	6a 68		 push	 104			; 00000068H
  0071b	8b 4d fc	 mov	 ecx, DWORD PTR _this$[ebp]
  0071e	e8 00 00 00 00	 call	 ?SetText@CExText@@QAEXHPAD@Z ; CExText::SetText

; 143  : 	this->SetText(105, "@[%s]: ExCred %d!");

  00723	68 00 00 00 00	 push	 OFFSET ??_C@_0BC@IGDJKEDP@?$EA?$FL?$CFs?$FN?3?5ExCred?5?$CFd?$CB?$AA@
  00728	6a 69		 push	 105			; 00000069H
  0072a	8b 4d fc	 mov	 ecx, DWORD PTR _this$[ebp]
  0072d	e8 00 00 00 00	 call	 ?SetText@CExText@@QAEXHPAD@Z ; CExText::SetText

; 144  : 	this->SetText(106, "@[%s]: WCoinC %d!");

  00732	68 00 00 00 00	 push	 OFFSET ??_C@_0BC@LNAKJNEE@?$EA?$FL?$CFs?$FN?3?5WCoinC?5?$CFd?$CB?$AA@
  00737	6a 6a		 push	 106			; 0000006aH
  00739	8b 4d fc	 mov	 ecx, DWORD PTR _this$[ebp]
  0073c	e8 00 00 00 00	 call	 ?SetText@CExText@@QAEXHPAD@Z ; CExText::SetText

; 145  : 	this->SetText(107, "@[%s]: WCoinP %d!");

  00741	68 00 00 00 00	 push	 OFFSET ??_C@_0BC@DIEIONHB@?$EA?$FL?$CFs?$FN?3?5WCoinP?5?$CFd?$CB?$AA@
  00746	6a 6b		 push	 107			; 0000006bH
  00748	8b 4d fc	 mov	 ecx, DWORD PTR _this$[ebp]
  0074b	e8 00 00 00 00	 call	 ?SetText@CExText@@QAEXHPAD@Z ; CExText::SetText

; 146  : 	this->SetText(108, "@[%s]: Goblin Points %d!");

  00750	68 00 00 00 00	 push	 OFFSET ??_C@_0BJ@FNBNDKKL@?$EA?$FL?$CFs?$FN?3?5Goblin?5Points?5?$CFd?$CB?$AA@
  00755	6a 6c		 push	 108			; 0000006cH
  00757	8b 4d fc	 mov	 ecx, DWORD PTR _this$[ebp]
  0075a	e8 00 00 00 00	 call	 ?SetText@CExText@@QAEXHPAD@Z ; CExText::SetText

; 147  : 	this->SetText(109, "[Monster Bonus]: +%d Credits");

  0075f	68 00 00 00 00	 push	 OFFSET ??_C@_0BN@OLDBCGLM@?$FLMonster?5Bonus?$FN?3?5?$CL?$CFd?5Credits?$AA@
  00764	6a 6d		 push	 109			; 0000006dH
  00766	8b 4d fc	 mov	 ecx, DWORD PTR _this$[ebp]
  00769	e8 00 00 00 00	 call	 ?SetText@CExText@@QAEXHPAD@Z ; CExText::SetText

; 148  : 	this->SetText(110, "[Monster Bonus]: +%d WcoinC");

  0076e	68 00 00 00 00	 push	 OFFSET ??_C@_0BM@IAJFLMGN@?$FLMonster?5Bonus?$FN?3?5?$CL?$CFd?5WcoinC?$AA@
  00773	6a 6e		 push	 110			; 0000006eH
  00775	8b 4d fc	 mov	 ecx, DWORD PTR _this$[ebp]
  00778	e8 00 00 00 00	 call	 ?SetText@CExText@@QAEXHPAD@Z ; CExText::SetText

; 149  : 	this->SetText(111, "[Monster Bonus]: +%d WcoinP");

  0077d	68 00 00 00 00	 push	 OFFSET ??_C@_0BM@OBHKPNPP@?$FLMonster?5Bonus?$FN?3?5?$CL?$CFd?5WcoinP?$AA@
  00782	6a 6f		 push	 111			; 0000006fH
  00784	8b 4d fc	 mov	 ecx, DWORD PTR _this$[ebp]
  00787	e8 00 00 00 00	 call	 ?SetText@CExText@@QAEXHPAD@Z ; CExText::SetText

; 150  : 	this->SetText(112, "[Monster Bonus]: +%d Goblin Points");

  0078c	68 00 00 00 00	 push	 OFFSET ??_C@_0CD@MKHEPPBN@?$FLMonster?5Bonus?$FN?3?5?$CL?$CFd?5Goblin?5Poin@
  00791	6a 70		 push	 112			; 00000070H
  00793	8b 4d fc	 mov	 ecx, DWORD PTR _this$[ebp]
  00796	e8 00 00 00 00	 call	 ?SetText@CExText@@QAEXHPAD@Z ; CExText::SetText

; 151  : 	this->SetText(113, "[Credit Donate]:Buy Wcoin Multiple of 100");

  0079b	68 00 00 00 00	 push	 OFFSET ??_C@_0CK@FMNEIMBA@?$FLCredit?5Donate?$FN?3Buy?5Wcoin?5Multip@
  007a0	6a 71		 push	 113			; 00000071H
  007a2	8b 4d fc	 mov	 ecx, DWORD PTR _this$[ebp]
  007a5	e8 00 00 00 00	 call	 ?SetText@CExText@@QAEXHPAD@Z ; CExText::SetText

; 152  : 	this->SetText(114, "[Credit Donate]:Buy Wcoin Need %d");

  007aa	68 00 00 00 00	 push	 OFFSET ??_C@_0CC@KIFIBJEP@?$FLCredit?5Donate?$FN?3Buy?5Wcoin?5Need?5?$CF@
  007af	6a 72		 push	 114			; 00000072H
  007b1	8b 4d fc	 mov	 ecx, DWORD PTR _this$[ebp]
  007b4	e8 00 00 00 00	 call	 ?SetText@CExText@@QAEXHPAD@Z ; CExText::SetText

; 153  : 	this->SetText(115, "[Credit Donate]:Buy Wcoin(P) Multiple of 100");

  007b9	68 00 00 00 00	 push	 OFFSET ??_C@_0CN@KJELFHNA@?$FLCredit?5Donate?$FN?3Buy?5Wcoin?$CIP?$CJ?5Mul@
  007be	6a 73		 push	 115			; 00000073H
  007c0	8b 4d fc	 mov	 ecx, DWORD PTR _this$[ebp]
  007c3	e8 00 00 00 00	 call	 ?SetText@CExText@@QAEXHPAD@Z ; CExText::SetText

; 154  : 	this->SetText(116, "[Credit Donate]:Buy Wcoin(P) Need %d");

  007c8	68 00 00 00 00	 push	 OFFSET ??_C@_0CF@IBIBCJGE@?$FLCredit?5Donate?$FN?3Buy?5Wcoin?$CIP?$CJ?5Nee@
  007cd	6a 74		 push	 116			; 00000074H
  007cf	8b 4d fc	 mov	 ecx, DWORD PTR _this$[ebp]
  007d2	e8 00 00 00 00	 call	 ?SetText@CExText@@QAEXHPAD@Z ; CExText::SetText

; 155  : 	this->SetText(117, "[Credit Donate]:Buy Goblin Multiple of 100");

  007d7	68 00 00 00 00	 push	 OFFSET ??_C@_0CL@DPCNHNIA@?$FLCredit?5Donate?$FN?3Buy?5Goblin?5Multi@
  007dc	6a 75		 push	 117			; 00000075H
  007de	8b 4d fc	 mov	 ecx, DWORD PTR _this$[ebp]
  007e1	e8 00 00 00 00	 call	 ?SetText@CExText@@QAEXHPAD@Z ; CExText::SetText

; 156  : 	this->SetText(118, "[Credit Donate]:Buy Goblin Need %d");

  007e6	68 00 00 00 00	 push	 OFFSET ??_C@_0CD@OPBOIPPI@?$FLCredit?5Donate?$FN?3Buy?5Goblin?5Need?5@
  007eb	6a 76		 push	 118			; 00000076H
  007ed	8b 4d fc	 mov	 ecx, DWORD PTR _this$[ebp]
  007f0	e8 00 00 00 00	 call	 ?SetText@CExText@@QAEXHPAD@Z ; CExText::SetText

; 157  : 	this->SetText(119, "[Credit Donate]:Buy Premium Need %d");

  007f5	68 00 00 00 00	 push	 OFFSET ??_C@_0CE@FPHGEDKP@?$FLCredit?5Donate?$FN?3Buy?5Premium?5Need@
  007fa	6a 77		 push	 119			; 00000077H
  007fc	8b 4d fc	 mov	 ecx, DWORD PTR _this$[ebp]
  007ff	e8 00 00 00 00	 call	 ?SetText@CExText@@QAEXHPAD@Z ; CExText::SetText

; 158  : 	this->SetText(120, "[Credit Donate]: Need to make space in the inventory (%dx%d)");

  00804	68 00 00 00 00	 push	 OFFSET ??_C@_0DN@GJKGEGIC@?$FLCredit?5Donate?$FN?3?5Need?5to?5make?5sp@
  00809	6a 78		 push	 120			; 00000078H
  0080b	8b 4d fc	 mov	 ecx, DWORD PTR _this$[ebp]
  0080e	e8 00 00 00 00	 call	 ?SetText@CExText@@QAEXHPAD@Z ; CExText::SetText

; 159  : 	this->SetText(121, "[Credit Donate]: Need %d Credits");

  00813	68 00 00 00 00	 push	 OFFSET ??_C@_0CB@OOHAKKEO@?$FLCredit?5Donate?$FN?3?5Need?5?$CFd?5Credits@
  00818	6a 79		 push	 121			; 00000079H
  0081a	8b 4d fc	 mov	 ecx, DWORD PTR _this$[ebp]
  0081d	e8 00 00 00 00	 call	 ?SetText@CExText@@QAEXHPAD@Z ; CExText::SetText

; 160  : 	this->SetText(122, "[Credit Donate]: Buy: %s, Price: %d");

  00822	68 00 00 00 00	 push	 OFFSET ??_C@_0CE@GBGJMDIH@?$FLCredit?5Donate?$FN?3?5Buy?3?5?$CFs?0?5Price?3@
  00827	6a 7a		 push	 122			; 0000007aH
  00829	8b 4d fc	 mov	 ecx, DWORD PTR _this$[ebp]
  0082c	e8 00 00 00 00	 call	 ?SetText@CExText@@QAEXHPAD@Z ; CExText::SetText

; 161  : 	this->SetText(123, "[Credit Donate]: Sell %.2f Credits");

  00831	68 00 00 00 00	 push	 OFFSET ??_C@_0CD@KGGNMMG@?$FLCredit?5Donate?$FN?3?5Sell?5?$CF?42f?5Credi@
  00836	6a 7b		 push	 123			; 0000007bH
  00838	8b 4d fc	 mov	 ecx, DWORD PTR _this$[ebp]
  0083b	e8 00 00 00 00	 call	 ?SetText@CExText@@QAEXHPAD@Z ; CExText::SetText

; 162  : 	this->SetText(124, "[Change Class]: You need Empty Inventory");

  00840	68 00 00 00 00	 push	 OFFSET ??_C@_0CJ@LADKEPDC@?$FLChange?5Class?$FN?3?5You?5need?5Empty?5I@
  00845	6a 7c		 push	 124			; 0000007cH
  00847	8b 4d fc	 mov	 ecx, DWORD PTR _this$[ebp]
  0084a	e8 00 00 00 00	 call	 ?SetText@CExText@@QAEXHPAD@Z ; CExText::SetText

; 163  : 	this->SetText(125, "[Change Class]: Need %d Credit");

  0084f	68 00 00 00 00	 push	 OFFSET ??_C@_0BP@LBHMNDCK@?$FLChange?5Class?$FN?3?5Need?5?$CFd?5Credit?$AA@
  00854	6a 7d		 push	 125			; 0000007dH
  00856	8b 4d fc	 mov	 ecx, DWORD PTR _this$[ebp]
  00859	e8 00 00 00 00	 call	 ?SetText@CExText@@QAEXHPAD@Z ; CExText::SetText

; 164  : 	this->SetText(126, "[Add] Need %d zen");

  0085e	68 00 00 00 00	 push	 OFFSET ??_C@_0BC@GEGHIIJH@?$FLAdd?$FN?5Need?5?$CFd?5zen?$AA@
  00863	6a 7e		 push	 126			; 0000007eH
  00865	8b 4d fc	 mov	 ecx, DWORD PTR _this$[ebp]
  00868	e8 00 00 00 00	 call	 ?SetText@CExText@@QAEXHPAD@Z ; CExText::SetText

; 165  : 	this->SetText(127, "[Add] Need %d level");

  0086d	68 00 00 00 00	 push	 OFFSET ??_C@_0BE@BKBFMADO@?$FLAdd?$FN?5Need?5?$CFd?5level?$AA@
  00872	6a 7f		 push	 127			; 0000007fH
  00874	8b 4d fc	 mov	 ecx, DWORD PTR _this$[ebp]
  00877	e8 00 00 00 00	 call	 ?SetText@CExText@@QAEXHPAD@Z ; CExText::SetText

; 166  : 	this->SetText(128, "[PkClear] Need %d Level");

  0087c	68 00 00 00 00	 push	 OFFSET ??_C@_0BI@KLKJIHEI@?$FLPkClear?$FN?5Need?5?$CFd?5Level?$AA@
  00881	68 80 00 00 00	 push	 128			; 00000080H
  00886	8b 4d fc	 mov	 ecx, DWORD PTR _this$[ebp]
  00889	e8 00 00 00 00	 call	 ?SetText@CExText@@QAEXHPAD@Z ; CExText::SetText

; 167  : 	this->SetText(129, "[PkClear] Need %d Zen");

  0088e	68 00 00 00 00	 push	 OFFSET ??_C@_0BG@HHGJIIOJ@?$FLPkClear?$FN?5Need?5?$CFd?5Zen?$AA@
  00893	68 81 00 00 00	 push	 129			; 00000081H
  00898	8b 4d fc	 mov	 ecx, DWORD PTR _this$[ebp]
  0089b	e8 00 00 00 00	 call	 ?SetText@CExText@@QAEXHPAD@Z ; CExText::SetText

; 168  : 	this->SetText(130, "/offzen");

  008a0	68 00 00 00 00	 push	 OFFSET ??_C@_07LOEKANNA@?1offzen?$AA@
  008a5	68 82 00 00 00	 push	 130			; 00000082H
  008aa	8b 4d fc	 mov	 ecx, DWORD PTR _this$[ebp]
  008ad	e8 00 00 00 00	 call	 ?SetText@CExText@@QAEXHPAD@Z ; CExText::SetText

; 169  : 	this->SetText(131, "/offcredit");

  008b2	68 00 00 00 00	 push	 OFFSET ??_C@_0L@INHKBFGL@?1offcredit?$AA@
  008b7	68 83 00 00 00	 push	 131			; 00000083H
  008bc	8b 4d fc	 mov	 ecx, DWORD PTR _this$[ebp]
  008bf	e8 00 00 00 00	 call	 ?SetText@CExText@@QAEXHPAD@Z ; CExText::SetText

; 170  : 	this->SetText(132, "/offwcoinc");

  008c4	68 00 00 00 00	 push	 OFFSET ??_C@_0L@GOHHCOOH@?1offwcoinc?$AA@
  008c9	68 84 00 00 00	 push	 132			; 00000084H
  008ce	8b 4d fc	 mov	 ecx, DWORD PTR _this$[ebp]
  008d1	e8 00 00 00 00	 call	 ?SetText@CExText@@QAEXHPAD@Z ; CExText::SetText

; 171  : 	this->SetText(133, "/offwcoinp");

  008d6	68 00 00 00 00	 push	 OFFSET ??_C@_0L@PJIGPHF@?1offwcoinp?$AA@
  008db	68 85 00 00 00	 push	 133			; 00000085H
  008e0	8b 4d fc	 mov	 ecx, DWORD PTR _this$[ebp]
  008e3	e8 00 00 00 00	 call	 ?SetText@CExText@@QAEXHPAD@Z ; CExText::SetText

; 172  : 	this->SetText(134, "/offgoblin");

  008e8	68 00 00 00 00	 push	 OFFSET ??_C@_0L@BMECOBJ@?1offgoblin?$AA@
  008ed	68 86 00 00 00	 push	 134			; 00000086H
  008f2	8b 4d fc	 mov	 ecx, DWORD PTR _this$[ebp]
  008f5	e8 00 00 00 00	 call	 ?SetText@CExText@@QAEXHPAD@Z ; CExText::SetText

; 173  : 	this->SetText(135, "/offchaos");

  008fa	68 00 00 00 00	 push	 OFFSET ??_C@_09DMDKCGHE@?1offchaos?$AA@
  008ff	68 87 00 00 00	 push	 135			; 00000087H
  00904	8b 4d fc	 mov	 ecx, DWORD PTR _this$[ebp]
  00907	e8 00 00 00 00	 call	 ?SetText@CExText@@QAEXHPAD@Z ; CExText::SetText

; 174  : 	this->SetText(136, "/offbless");

  0090c	68 00 00 00 00	 push	 OFFSET ??_C@_09JILIJOFC@?1offbless?$AA@
  00911	68 88 00 00 00	 push	 136			; 00000088H
  00916	8b 4d fc	 mov	 ecx, DWORD PTR _this$[ebp]
  00919	e8 00 00 00 00	 call	 ?SetText@CExText@@QAEXHPAD@Z ; CExText::SetText

; 175  : 	this->SetText(137, "/offsoul");

  0091e	68 00 00 00 00	 push	 OFFSET ??_C@_08DNPLHCPG@?1offsoul?$AA@
  00923	68 89 00 00 00	 push	 137			; 00000089H
  00928	8b 4d fc	 mov	 ecx, DWORD PTR _this$[ebp]
  0092b	e8 00 00 00 00	 call	 ?SetText@CExText@@QAEXHPAD@Z ; CExText::SetText

; 176  : 	this->SetText(138, "/offlife");

  00930	68 00 00 00 00	 push	 OFFSET ??_C@_08DFICILBJ@?1offlife?$AA@
  00935	68 8a 00 00 00	 push	 138			; 0000008aH
  0093a	8b 4d fc	 mov	 ecx, DWORD PTR _this$[ebp]
  0093d	e8 00 00 00 00	 call	 ?SetText@CExText@@QAEXHPAD@Z ; CExText::SetText

; 177  : 	this->SetText(139, "/sendchaosbank");

  00942	68 00 00 00 00	 push	 OFFSET ??_C@_0P@MFJHDLOA@?1sendchaosbank?$AA@
  00947	68 8b 00 00 00	 push	 139			; 0000008bH
  0094c	8b 4d fc	 mov	 ecx, DWORD PTR _this$[ebp]
  0094f	e8 00 00 00 00	 call	 ?SetText@CExText@@QAEXHPAD@Z ; CExText::SetText

; 178  : 	this->SetText(140, "/sendblessbank");

  00954	68 00 00 00 00	 push	 OFFSET ??_C@_0P@FDINPJJC@?1sendblessbank?$AA@
  00959	68 8c 00 00 00	 push	 140			; 0000008cH
  0095e	8b 4d fc	 mov	 ecx, DWORD PTR _this$[ebp]
  00961	e8 00 00 00 00	 call	 ?SetText@CExText@@QAEXHPAD@Z ; CExText::SetText

; 179  : 	this->SetText(141, "/sendsoulbank");

  00966	68 00 00 00 00	 push	 OFFSET ??_C@_0O@HNHOMFNH@?1sendsoulbank?$AA@
  0096b	68 8d 00 00 00	 push	 141			; 0000008dH
  00970	8b 4d fc	 mov	 ecx, DWORD PTR _this$[ebp]
  00973	e8 00 00 00 00	 call	 ?SetText@CExText@@QAEXHPAD@Z ; CExText::SetText

; 180  : 	this->SetText(142, "/sendlifebank");

  00978	68 00 00 00 00	 push	 OFFSET ??_C@_0O@LJFBJGGL@?1sendlifebank?$AA@
  0097d	68 8e 00 00 00	 push	 142			; 0000008eH
  00982	8b 4d fc	 mov	 ecx, DWORD PTR _this$[ebp]
  00985	e8 00 00 00 00	 call	 ?SetText@CExText@@QAEXHPAD@Z ; CExText::SetText

; 181  : 	this->SetText(143, "/recvchaosbank");

  0098a	68 00 00 00 00	 push	 OFFSET ??_C@_0P@DAKNKGHC@?1recvchaosbank?$AA@
  0098f	68 8f 00 00 00	 push	 143			; 0000008fH
  00994	8b 4d fc	 mov	 ecx, DWORD PTR _this$[ebp]
  00997	e8 00 00 00 00	 call	 ?SetText@CExText@@QAEXHPAD@Z ; CExText::SetText

; 182  : 	this->SetText(144, "/recvblessbank");

  0099c	68 00 00 00 00	 push	 OFFSET ??_C@_0P@KGLHGEAA@?1recvblessbank?$AA@
  009a1	68 90 00 00 00	 push	 144			; 00000090H
  009a6	8b 4d fc	 mov	 ecx, DWORD PTR _this$[ebp]
  009a9	e8 00 00 00 00	 call	 ?SetText@CExText@@QAEXHPAD@Z ; CExText::SetText

; 183  : 	this->SetText(145, "/recvsoulbank");

  009ae	68 00 00 00 00	 push	 OFFSET ??_C@_0O@EICHAAIA@?1recvsoulbank?$AA@
  009b3	68 91 00 00 00	 push	 145			; 00000091H
  009b8	8b 4d fc	 mov	 ecx, DWORD PTR _this$[ebp]
  009bb	e8 00 00 00 00	 call	 ?SetText@CExText@@QAEXHPAD@Z ; CExText::SetText

; 184  : 	this->SetText(146, "/recvlifebank");

  009c0	68 00 00 00 00	 push	 OFFSET ??_C@_0O@IMAIFDDM@?1recvlifebank?$AA@
  009c5	68 92 00 00 00	 push	 146			; 00000092H
  009ca	8b 4d fc	 mov	 ecx, DWORD PTR _this$[ebp]
  009cd	e8 00 00 00 00	 call	 ?SetText@CExText@@QAEXHPAD@Z ; CExText::SetText

; 185  : 	this->SetText(147, "[JewelsBank] Need %d Chaos");

  009d2	68 00 00 00 00	 push	 OFFSET ??_C@_0BL@EEPOEDMC@?$FLJewelsBank?$FN?5Need?5?$CFd?5Chaos?$AA@
  009d7	68 93 00 00 00	 push	 147			; 00000093H
  009dc	8b 4d fc	 mov	 ecx, DWORD PTR _this$[ebp]
  009df	e8 00 00 00 00	 call	 ?SetText@CExText@@QAEXHPAD@Z ; CExText::SetText

; 186  : 	this->SetText(148, "[JewelsBank] Send %d Chaos");

  009e4	68 00 00 00 00	 push	 OFFSET ??_C@_0BL@OECEKLPL@?$FLJewelsBank?$FN?5Send?5?$CFd?5Chaos?$AA@
  009e9	68 94 00 00 00	 push	 148			; 00000094H
  009ee	8b 4d fc	 mov	 ecx, DWORD PTR _this$[ebp]
  009f1	e8 00 00 00 00	 call	 ?SetText@CExText@@QAEXHPAD@Z ; CExText::SetText

; 187  : 	this->SetText(149, "[JewelsBank] Need %d Bless");

  009f6	68 00 00 00 00	 push	 OFFSET ??_C@_0BL@OAHMPLOE@?$FLJewelsBank?$FN?5Need?5?$CFd?5Bless?$AA@
  009fb	68 95 00 00 00	 push	 149			; 00000095H
  00a00	8b 4d fc	 mov	 ecx, DWORD PTR _this$[ebp]
  00a03	e8 00 00 00 00	 call	 ?SetText@CExText@@QAEXHPAD@Z ; CExText::SetText

; 188  : 	this->SetText(150, "[JewelsBank] Send %d Bless");

  00a08	68 00 00 00 00	 push	 OFFSET ??_C@_0BL@EAKGBDNN@?$FLJewelsBank?$FN?5Send?5?$CFd?5Bless?$AA@
  00a0d	68 96 00 00 00	 push	 150			; 00000096H
  00a12	8b 4d fc	 mov	 ecx, DWORD PTR _this$[ebp]
  00a15	e8 00 00 00 00	 call	 ?SetText@CExText@@QAEXHPAD@Z ; CExText::SetText

; 189  : 	this->SetText(151, "[JewelsBank] Need %d Soul");

  00a1a	68 00 00 00 00	 push	 OFFSET ??_C@_0BK@POFHGGLO@?$FLJewelsBank?$FN?5Need?5?$CFd?5Soul?$AA@
  00a1f	68 97 00 00 00	 push	 151			; 00000097H
  00a24	8b 4d fc	 mov	 ecx, DWORD PTR _this$[ebp]
  00a27	e8 00 00 00 00	 call	 ?SetText@CExText@@QAEXHPAD@Z ; CExText::SetText

; 190  : 	this->SetText(152, "[JewelsBank] Send %d Soul");

  00a2c	68 00 00 00 00	 push	 OFFSET ??_C@_0BK@COFNCHFO@?$FLJewelsBank?$FN?5Send?5?$CFd?5Soul?$AA@
  00a31	68 98 00 00 00	 push	 152			; 00000098H
  00a36	8b 4d fc	 mov	 ecx, DWORD PTR _this$[ebp]
  00a39	e8 00 00 00 00	 call	 ?SetText@CExText@@QAEXHPAD@Z ; CExText::SetText

; 191  : 	this->SetText(153, "[JewelsBank] Need %d Life");

  00a3e	68 00 00 00 00	 push	 OFFSET ??_C@_0BK@PGCOJPFB@?$FLJewelsBank?$FN?5Need?5?$CFd?5Life?$AA@
  00a43	68 99 00 00 00	 push	 153			; 00000099H
  00a48	8b 4d fc	 mov	 ecx, DWORD PTR _this$[ebp]
  00a4b	e8 00 00 00 00	 call	 ?SetText@CExText@@QAEXHPAD@Z ; CExText::SetText

; 192  : 	this->SetText(154, "[JewelsBank] Send %d Life");

  00a50	68 00 00 00 00	 push	 OFFSET ??_C@_0BK@CGCENOLB@?$FLJewelsBank?$FN?5Send?5?$CFd?5Life?$AA@
  00a55	68 9a 00 00 00	 push	 154			; 0000009aH
  00a5a	8b 4d fc	 mov	 ecx, DWORD PTR _this$[ebp]
  00a5d	e8 00 00 00 00	 call	 ?SetText@CExText@@QAEXHPAD@Z ; CExText::SetText

; 193  : 	this->SetText(155, "[JewelsBank] No %d Chaos");

  00a62	68 00 00 00 00	 push	 OFFSET ??_C@_0BJ@BFBBDENF@?$FLJewelsBank?$FN?5No?5?$CFd?5Chaos?$AA@
  00a67	68 9b 00 00 00	 push	 155			; 0000009bH
  00a6c	8b 4d fc	 mov	 ecx, DWORD PTR _this$[ebp]
  00a6f	e8 00 00 00 00	 call	 ?SetText@CExText@@QAEXHPAD@Z ; CExText::SetText

; 194  : 	this->SetText(156, "[JewelsBank] Inventory %d");

  00a74	68 00 00 00 00	 push	 OFFSET ??_C@_0BK@KJOAAKB@?$FLJewelsBank?$FN?5Inventory?5?$CFd?$AA@
  00a79	68 9c 00 00 00	 push	 156			; 0000009cH
  00a7e	8b 4d fc	 mov	 ecx, DWORD PTR _this$[ebp]
  00a81	e8 00 00 00 00	 call	 ?SetText@CExText@@QAEXHPAD@Z ; CExText::SetText

; 195  : 	this->SetText(157, "[JewelsBank] Recv %d Chaos");

  00a86	68 00 00 00 00	 push	 OFFSET ??_C@_0BL@BBBODGGJ@?$FLJewelsBank?$FN?5Recv?5?$CFd?5Chaos?$AA@
  00a8b	68 9d 00 00 00	 push	 157			; 0000009dH
  00a90	8b 4d fc	 mov	 ecx, DWORD PTR _this$[ebp]
  00a93	e8 00 00 00 00	 call	 ?SetText@CExText@@QAEXHPAD@Z ; CExText::SetText

; 196  : 	this->SetText(158, "[JewelsBank] No %d Bless");

  00a98	68 00 00 00 00	 push	 OFFSET ??_C@_0BJ@LBJDIMPD@?$FLJewelsBank?$FN?5No?5?$CFd?5Bless?$AA@
  00a9d	68 9e 00 00 00	 push	 158			; 0000009eH
  00aa2	8b 4d fc	 mov	 ecx, DWORD PTR _this$[ebp]
  00aa5	e8 00 00 00 00	 call	 ?SetText@CExText@@QAEXHPAD@Z ; CExText::SetText

; 197  : 	this->SetText(159, "[JewelsBank] Recv %d Bless");

  00aaa	68 00 00 00 00	 push	 OFFSET ??_C@_0BL@LFJMIOEP@?$FLJewelsBank?$FN?5Recv?5?$CFd?5Bless?$AA@
  00aaf	68 9f 00 00 00	 push	 159			; 0000009fH
  00ab4	8b 4d fc	 mov	 ecx, DWORD PTR _this$[ebp]
  00ab7	e8 00 00 00 00	 call	 ?SetText@CExText@@QAEXHPAD@Z ; CExText::SetText

; 198  : 	this->SetText(160, "[JewelsBank] No %d Soul");

  00abc	68 00 00 00 00	 push	 OFFSET ??_C@_0BI@MPCAELIP@?$FLJewelsBank?$FN?5No?5?$CFd?5Soul?$AA@
  00ac1	68 a0 00 00 00	 push	 160			; 000000a0H
  00ac6	8b 4d fc	 mov	 ecx, DWORD PTR _this$[ebp]
  00ac9	e8 00 00 00 00	 call	 ?SetText@CExText@@QAEXHPAD@Z ; CExText::SetText

; 199  : 	this->SetText(161, "[JewelsBank] Recv %d Soul");

  00ace	68 00 00 00 00	 push	 OFFSET ??_C@_0BK@BLAEOCAJ@?$FLJewelsBank?$FN?5Recv?5?$CFd?5Soul?$AA@
  00ad3	68 a1 00 00 00	 push	 161			; 000000a1H
  00ad8	8b 4d fc	 mov	 ecx, DWORD PTR _this$[ebp]
  00adb	e8 00 00 00 00	 call	 ?SetText@CExText@@QAEXHPAD@Z ; CExText::SetText

; 200  : 	this->SetText(162, "[JewelsBank] No %d Life");

  00ae0	68 00 00 00 00	 push	 OFFSET ??_C@_0BI@MHFJLCGA@?$FLJewelsBank?$FN?5No?5?$CFd?5Life?$AA@
  00ae5	68 a2 00 00 00	 push	 162			; 000000a2H
  00aea	8b 4d fc	 mov	 ecx, DWORD PTR _this$[ebp]
  00aed	e8 00 00 00 00	 call	 ?SetText@CExText@@QAEXHPAD@Z ; CExText::SetText

; 201  : 	this->SetText(163, "[JewelsBank] Recv %d Life");

  00af2	68 00 00 00 00	 push	 OFFSET ??_C@_0BK@BDHNBLOG@?$FLJewelsBank?$FN?5Recv?5?$CFd?5Life?$AA@
  00af7	68 a3 00 00 00	 push	 163			; 000000a3H
  00afc	8b 4d fc	 mov	 ecx, DWORD PTR _this$[ebp]
  00aff	e8 00 00 00 00	 call	 ?SetText@CExText@@QAEXHPAD@Z ; CExText::SetText

; 202  : 	this->SetText(164, "Lorencia");

  00b04	68 00 00 00 00	 push	 OFFSET ??_C@_08DPCEMNDG@Lorencia?$AA@
  00b09	68 a4 00 00 00	 push	 164			; 000000a4H
  00b0e	8b 4d fc	 mov	 ecx, DWORD PTR _this$[ebp]
  00b11	e8 00 00 00 00	 call	 ?SetText@CExText@@QAEXHPAD@Z ; CExText::SetText

; 203  : 	this->SetText(165, "Dungeon");

  00b16	68 00 00 00 00	 push	 OFFSET ??_C@_07CELLBLHP@Dungeon?$AA@
  00b1b	68 a5 00 00 00	 push	 165			; 000000a5H
  00b20	8b 4d fc	 mov	 ecx, DWORD PTR _this$[ebp]
  00b23	e8 00 00 00 00	 call	 ?SetText@CExText@@QAEXHPAD@Z ; CExText::SetText

; 204  : 	this->SetText(166, "Devias");

  00b28	68 00 00 00 00	 push	 OFFSET ??_C@_06PHFFMJMG@Devias?$AA@
  00b2d	68 a6 00 00 00	 push	 166			; 000000a6H
  00b32	8b 4d fc	 mov	 ecx, DWORD PTR _this$[ebp]
  00b35	e8 00 00 00 00	 call	 ?SetText@CExText@@QAEXHPAD@Z ; CExText::SetText

; 205  : 	this->SetText(167, "Noria");

  00b3a	68 00 00 00 00	 push	 OFFSET ??_C@_05JKNLBHIC@Noria?$AA@
  00b3f	68 a7 00 00 00	 push	 167			; 000000a7H
  00b44	8b 4d fc	 mov	 ecx, DWORD PTR _this$[ebp]
  00b47	e8 00 00 00 00	 call	 ?SetText@CExText@@QAEXHPAD@Z ; CExText::SetText

; 206  : 	this->SetText(168, "LostTower");

  00b4c	68 00 00 00 00	 push	 OFFSET ??_C@_09IFBHMHO@LostTower?$AA@
  00b51	68 a8 00 00 00	 push	 168			; 000000a8H
  00b56	8b 4d fc	 mov	 ecx, DWORD PTR _this$[ebp]
  00b59	e8 00 00 00 00	 call	 ?SetText@CExText@@QAEXHPAD@Z ; CExText::SetText

; 207  : 	this->SetText(169, "Arena");

  00b5e	68 00 00 00 00	 push	 OFFSET ??_C@_05DLHMIPMH@Arena?$AA@
  00b63	68 a9 00 00 00	 push	 169			; 000000a9H
  00b68	8b 4d fc	 mov	 ecx, DWORD PTR _this$[ebp]
  00b6b	e8 00 00 00 00	 call	 ?SetText@CExText@@QAEXHPAD@Z ; CExText::SetText

; 208  : 	this->SetText(170, "Atlans");

  00b70	68 00 00 00 00	 push	 OFFSET ??_C@_06IJFPNHKO@Atlans?$AA@
  00b75	68 aa 00 00 00	 push	 170			; 000000aaH
  00b7a	8b 4d fc	 mov	 ecx, DWORD PTR _this$[ebp]
  00b7d	e8 00 00 00 00	 call	 ?SetText@CExText@@QAEXHPAD@Z ; CExText::SetText

; 209  : 	this->SetText(171, "Tarkan");

  00b82	68 00 00 00 00	 push	 OFFSET ??_C@_06KLPPBFEJ@Tarkan?$AA@
  00b87	68 ab 00 00 00	 push	 171			; 000000abH
  00b8c	8b 4d fc	 mov	 ecx, DWORD PTR _this$[ebp]
  00b8f	e8 00 00 00 00	 call	 ?SetText@CExText@@QAEXHPAD@Z ; CExText::SetText

; 210  : 	this->SetText(172, "DevilSquare");

  00b94	68 00 00 00 00	 push	 OFFSET ??_C@_0M@DFALAJPK@DevilSquare?$AA@
  00b99	68 ac 00 00 00	 push	 172			; 000000acH
  00b9e	8b 4d fc	 mov	 ecx, DWORD PTR _this$[ebp]
  00ba1	e8 00 00 00 00	 call	 ?SetText@CExText@@QAEXHPAD@Z ; CExText::SetText

; 211  : 	this->SetText(173, "Icarus");

  00ba6	68 00 00 00 00	 push	 OFFSET ??_C@_06OCMNLLL@Icarus?$AA@
  00bab	68 ad 00 00 00	 push	 173			; 000000adH
  00bb0	8b 4d fc	 mov	 ecx, DWORD PTR _this$[ebp]
  00bb3	e8 00 00 00 00	 call	 ?SetText@CExText@@QAEXHPAD@Z ; CExText::SetText

; 212  : 	this->SetText(174, "Blood Castle 1");

  00bb8	68 00 00 00 00	 push	 OFFSET ??_C@_0P@CICLPECB@Blood?5Castle?51?$AA@
  00bbd	68 ae 00 00 00	 push	 174			; 000000aeH
  00bc2	8b 4d fc	 mov	 ecx, DWORD PTR _this$[ebp]
  00bc5	e8 00 00 00 00	 call	 ?SetText@CExText@@QAEXHPAD@Z ; CExText::SetText

; 213  : 	this->SetText(175, "Blood Castle 2");

  00bca	68 00 00 00 00	 push	 OFFSET ??_C@_0P@DAGKHOC@Blood?5Castle?52?$AA@
  00bcf	68 af 00 00 00	 push	 175			; 000000afH
  00bd4	8b 4d fc	 mov	 ecx, DWORD PTR _this$[ebp]
  00bd7	e8 00 00 00 00	 call	 ?SetText@CExText@@QAEXHPAD@Z ; CExText::SetText

; 214  : 	this->SetText(176, "Blood Castle 3");

  00bdc	68 00 00 00 00	 push	 OFFSET ??_C@_0P@BKBNJGKD@Blood?5Castle?53?$AA@
  00be1	68 b0 00 00 00	 push	 176			; 000000b0H
  00be6	8b 4d fc	 mov	 ecx, DWORD PTR _this$[ebp]
  00be9	e8 00 00 00 00	 call	 ?SetText@CExText@@QAEXHPAD@Z ; CExText::SetText

; 215  : 	this->SetText(177, "Blood Castle 4");

  00bee	68 00 00 00 00	 push	 OFFSET ??_C@_0P@FFFMAAGE@Blood?5Castle?54?$AA@
  00bf3	68 b1 00 00 00	 push	 177			; 000000b1H
  00bf8	8b 4d fc	 mov	 ecx, DWORD PTR _this$[ebp]
  00bfb	e8 00 00 00 00	 call	 ?SetText@CExText@@QAEXHPAD@Z ; CExText::SetText

; 216  : 	this->SetText(178, "Blood Castle 5");

  00c00	68 00 00 00 00	 push	 OFFSET ??_C@_0P@EMEHDBCF@Blood?5Castle?55?$AA@
  00c05	68 b2 00 00 00	 push	 178			; 000000b2H
  00c0a	8b 4d fc	 mov	 ecx, DWORD PTR _this$[ebp]
  00c0d	e8 00 00 00 00	 call	 ?SetText@CExText@@QAEXHPAD@Z ; CExText::SetText

; 217  : 	this->SetText(179, "Blood Castle 6");

  00c12	68 00 00 00 00	 push	 OFFSET ??_C@_0P@GHGKGCOG@Blood?5Castle?56?$AA@
  00c17	68 b3 00 00 00	 push	 179			; 000000b3H
  00c1c	8b 4d fc	 mov	 ecx, DWORD PTR _this$[ebp]
  00c1f	e8 00 00 00 00	 call	 ?SetText@CExText@@QAEXHPAD@Z ; CExText::SetText

; 218  : 	this->SetText(180, "Blood Castle 7");

  00c24	68 00 00 00 00	 push	 OFFSET ??_C@_0P@HOHBFDKH@Blood?5Castle?57?$AA@
  00c29	68 b4 00 00 00	 push	 180			; 000000b4H
  00c2e	8b 4d fc	 mov	 ecx, DWORD PTR _this$[ebp]
  00c31	e8 00 00 00 00	 call	 ?SetText@CExText@@QAEXHPAD@Z ; CExText::SetText

; 219  : 	this->SetText(181, "Chaos Castle 1");

  00c36	68 00 00 00 00	 push	 OFFSET ??_C@_0P@PFFHHNCK@Chaos?5Castle?51?$AA@
  00c3b	68 b5 00 00 00	 push	 181			; 000000b5H
  00c40	8b 4d fc	 mov	 ecx, DWORD PTR _this$[ebp]
  00c43	e8 00 00 00 00	 call	 ?SetText@CExText@@QAEXHPAD@Z ; CExText::SetText

; 220  : 	this->SetText(182, "Chaos Castle 2");

  00c48	68 00 00 00 00	 push	 OFFSET ??_C@_0P@NOHKCOOJ@Chaos?5Castle?52?$AA@
  00c4d	68 b6 00 00 00	 push	 182			; 000000b6H
  00c52	8b 4d fc	 mov	 ecx, DWORD PTR _this$[ebp]
  00c55	e8 00 00 00 00	 call	 ?SetText@CExText@@QAEXHPAD@Z ; CExText::SetText

; 221  : 	this->SetText(183, "Chaos Castle 3");

  00c5a	68 00 00 00 00	 push	 OFFSET ??_C@_0P@MHGBBPKI@Chaos?5Castle?53?$AA@
  00c5f	68 b7 00 00 00	 push	 183			; 000000b7H
  00c64	8b 4d fc	 mov	 ecx, DWORD PTR _this$[ebp]
  00c67	e8 00 00 00 00	 call	 ?SetText@CExText@@QAEXHPAD@Z ; CExText::SetText

; 222  : 	this->SetText(184, "Chaos Castle 4");

  00c6c	68 00 00 00 00	 push	 OFFSET ??_C@_0P@IICAIJGP@Chaos?5Castle?54?$AA@
  00c71	68 b8 00 00 00	 push	 184			; 000000b8H
  00c76	8b 4d fc	 mov	 ecx, DWORD PTR _this$[ebp]
  00c79	e8 00 00 00 00	 call	 ?SetText@CExText@@QAEXHPAD@Z ; CExText::SetText

; 223  : 	this->SetText(185, "Chaos Castle 5");

  00c7e	68 00 00 00 00	 push	 OFFSET ??_C@_0P@JBDLLICO@Chaos?5Castle?55?$AA@
  00c83	68 b9 00 00 00	 push	 185			; 000000b9H
  00c88	8b 4d fc	 mov	 ecx, DWORD PTR _this$[ebp]
  00c8b	e8 00 00 00 00	 call	 ?SetText@CExText@@QAEXHPAD@Z ; CExText::SetText

; 224  : 	this->SetText(186, "Chaos Castle 6");

  00c90	68 00 00 00 00	 push	 OFFSET ??_C@_0P@LKBGOLON@Chaos?5Castle?56?$AA@
  00c95	68 ba 00 00 00	 push	 186			; 000000baH
  00c9a	8b 4d fc	 mov	 ecx, DWORD PTR _this$[ebp]
  00c9d	e8 00 00 00 00	 call	 ?SetText@CExText@@QAEXHPAD@Z ; CExText::SetText

; 225  : 	this->SetText(187, "Kalima 1");

  00ca2	68 00 00 00 00	 push	 OFFSET ??_C@_08CGLFMMGF@Kalima?51?$AA@
  00ca7	68 bb 00 00 00	 push	 187			; 000000bbH
  00cac	8b 4d fc	 mov	 ecx, DWORD PTR _this$[ebp]
  00caf	e8 00 00 00 00	 call	 ?SetText@CExText@@QAEXHPAD@Z ; CExText::SetText

; 226  : 	this->SetText(188, "Kalima 2");

  00cb4	68 00 00 00 00	 push	 OFFSET ??_C@_08NJIJPKG@Kalima?52?$AA@
  00cb9	68 bc 00 00 00	 push	 188			; 000000bcH
  00cbe	8b 4d fc	 mov	 ecx, DWORD PTR _this$[ebp]
  00cc1	e8 00 00 00 00	 call	 ?SetText@CExText@@QAEXHPAD@Z ; CExText::SetText

; 227  : 	this->SetText(189, "Kalima 3");

  00cc6	68 00 00 00 00	 push	 OFFSET ??_C@_08BEIDKOOH@Kalima?53?$AA@
  00ccb	68 bd 00 00 00	 push	 189			; 000000bdH
  00cd0	8b 4d fc	 mov	 ecx, DWORD PTR _this$[ebp]
  00cd3	e8 00 00 00 00	 call	 ?SetText@CExText@@QAEXHPAD@Z ; CExText::SetText

; 228  : 	this->SetText(190, "Kalima 4");

  00cd8	68 00 00 00 00	 push	 OFFSET ??_C@_08FLMCDICA@Kalima?54?$AA@
  00cdd	68 be 00 00 00	 push	 190			; 000000beH
  00ce2	8b 4d fc	 mov	 ecx, DWORD PTR _this$[ebp]
  00ce5	e8 00 00 00 00	 call	 ?SetText@CExText@@QAEXHPAD@Z ; CExText::SetText

; 229  : 	this->SetText(191, "Kalima 5");

  00cea	68 00 00 00 00	 push	 OFFSET ??_C@_08ECNJAJGB@Kalima?55?$AA@
  00cef	68 bf 00 00 00	 push	 191			; 000000bfH
  00cf4	8b 4d fc	 mov	 ecx, DWORD PTR _this$[ebp]
  00cf7	e8 00 00 00 00	 call	 ?SetText@CExText@@QAEXHPAD@Z ; CExText::SetText

; 230  : 	this->SetText(192, "Kalima 6");

  00cfc	68 00 00 00 00	 push	 OFFSET ??_C@_08GJPEFKKC@Kalima?56?$AA@
  00d01	68 c0 00 00 00	 push	 192			; 000000c0H
  00d06	8b 4d fc	 mov	 ecx, DWORD PTR _this$[ebp]
  00d09	e8 00 00 00 00	 call	 ?SetText@CExText@@QAEXHPAD@Z ; CExText::SetText

; 231  : 	this->SetText(193, "Castle");

  00d0e	68 00 00 00 00	 push	 OFFSET ??_C@_06NHLAJDOI@Castle?$AA@
  00d13	68 c1 00 00 00	 push	 193			; 000000c1H
  00d18	8b 4d fc	 mov	 ecx, DWORD PTR _this$[ebp]
  00d1b	e8 00 00 00 00	 call	 ?SetText@CExText@@QAEXHPAD@Z ; CExText::SetText

; 232  : 	this->SetText(194, "Land Of Trial");

  00d20	68 00 00 00 00	 push	 OFFSET ??_C@_0O@PCDCCCEO@Land?5Of?5Trial?$AA@
  00d25	68 c2 00 00 00	 push	 194			; 000000c2H
  00d2a	8b 4d fc	 mov	 ecx, DWORD PTR _this$[ebp]
  00d2d	e8 00 00 00 00	 call	 ?SetText@CExText@@QAEXHPAD@Z ; CExText::SetText

; 233  : 	this->SetText(195, "Aida");

  00d32	68 00 00 00 00	 push	 OFFSET ??_C@_04CJFIPIII@Aida?$AA@
  00d37	68 c3 00 00 00	 push	 195			; 000000c3H
  00d3c	8b 4d fc	 mov	 ecx, DWORD PTR _this$[ebp]
  00d3f	e8 00 00 00 00	 call	 ?SetText@CExText@@QAEXHPAD@Z ; CExText::SetText

; 234  : 	this->SetText(196, "Cry Wolf");

  00d44	68 00 00 00 00	 push	 OFFSET ??_C@_08PFNMNIFL@Cry?5Wolf?$AA@
  00d49	68 c4 00 00 00	 push	 196			; 000000c4H
  00d4e	8b 4d fc	 mov	 ecx, DWORD PTR _this$[ebp]
  00d51	e8 00 00 00 00	 call	 ?SetText@CExText@@QAEXHPAD@Z ; CExText::SetText

; 235  : 	this->SetText(197, "Cry Wolf");

  00d56	68 00 00 00 00	 push	 OFFSET ??_C@_08PFNMNIFL@Cry?5Wolf?$AA@
  00d5b	68 c5 00 00 00	 push	 197			; 000000c5H
  00d60	8b 4d fc	 mov	 ecx, DWORD PTR _this$[ebp]
  00d63	e8 00 00 00 00	 call	 ?SetText@CExText@@QAEXHPAD@Z ; CExText::SetText

; 236  : 	this->SetText(198, "Kalima 7");

  00d68	68 00 00 00 00	 push	 OFFSET ??_C@_08HAOPGLOD@Kalima?57?$AA@
  00d6d	68 c6 00 00 00	 push	 198			; 000000c6H
  00d72	8b 4d fc	 mov	 ecx, DWORD PTR _this$[ebp]
  00d75	e8 00 00 00 00	 call	 ?SetText@CExText@@QAEXHPAD@Z ; CExText::SetText

; 237  : 	this->SetText(199, "Kanturu");

  00d7a	68 00 00 00 00	 push	 OFFSET ??_C@_07KEJLPAHK@Kanturu?$AA@
  00d7f	68 c7 00 00 00	 push	 199			; 000000c7H
  00d84	8b 4d fc	 mov	 ecx, DWORD PTR _this$[ebp]
  00d87	e8 00 00 00 00	 call	 ?SetText@CExText@@QAEXHPAD@Z ; CExText::SetText

; 238  : 	this->SetText(200, "Kanturu Relic");

  00d8c	68 00 00 00 00	 push	 OFFSET ??_C@_0O@PBLCAFMO@Kanturu?5Relic?$AA@
  00d91	68 c8 00 00 00	 push	 200			; 000000c8H
  00d96	8b 4d fc	 mov	 ecx, DWORD PTR _this$[ebp]
  00d99	e8 00 00 00 00	 call	 ?SetText@CExText@@QAEXHPAD@Z ; CExText::SetText

; 239  : 	this->SetText(201, "Kanturu Boss");

  00d9e	68 00 00 00 00	 push	 OFFSET ??_C@_0N@BKFGNFED@Kanturu?5Boss?$AA@
  00da3	68 c9 00 00 00	 push	 201			; 000000c9H
  00da8	8b 4d fc	 mov	 ecx, DWORD PTR _this$[ebp]
  00dab	e8 00 00 00 00	 call	 ?SetText@CExText@@QAEXHPAD@Z ; CExText::SetText

; 240  : 	this->SetText(202, "Balgas Baraks");

  00db0	68 00 00 00 00	 push	 OFFSET ??_C@_0O@FHBIHDBH@Balgas?5Baraks?$AA@
  00db5	68 ca 00 00 00	 push	 202			; 000000caH
  00dba	8b 4d fc	 mov	 ecx, DWORD PTR _this$[ebp]
  00dbd	e8 00 00 00 00	 call	 ?SetText@CExText@@QAEXHPAD@Z ; CExText::SetText

; 241  : 	this->SetText(203, "Balgas Refuge");

  00dc2	68 00 00 00 00	 push	 OFFSET ??_C@_0O@PEMOBAPG@Balgas?5Refuge?$AA@
  00dc7	68 cb 00 00 00	 push	 203			; 000000cbH
  00dcc	8b 4d fc	 mov	 ecx, DWORD PTR _this$[ebp]
  00dcf	e8 00 00 00 00	 call	 ?SetText@CExText@@QAEXHPAD@Z ; CExText::SetText

; 242  : 	this->SetText(204, "Illusion Temple 1");

  00dd4	68 00 00 00 00	 push	 OFFSET ??_C@_0BC@GHKCBENJ@Illusion?5Temple?51?$AA@
  00dd9	68 cc 00 00 00	 push	 204			; 000000ccH
  00dde	8b 4d fc	 mov	 ecx, DWORD PTR _this$[ebp]
  00de1	e8 00 00 00 00	 call	 ?SetText@CExText@@QAEXHPAD@Z ; CExText::SetText

; 243  : 	this->SetText(205, "Illusion Temple 2");

  00de6	68 00 00 00 00	 push	 OFFSET ??_C@_0BC@EMIPEHBK@Illusion?5Temple?52?$AA@
  00deb	68 cd 00 00 00	 push	 205			; 000000cdH
  00df0	8b 4d fc	 mov	 ecx, DWORD PTR _this$[ebp]
  00df3	e8 00 00 00 00	 call	 ?SetText@CExText@@QAEXHPAD@Z ; CExText::SetText

; 244  : 	this->SetText(206, "Illusion Temple 3");

  00df8	68 00 00 00 00	 push	 OFFSET ??_C@_0BC@FFJEHGFL@Illusion?5Temple?53?$AA@
  00dfd	68 ce 00 00 00	 push	 206			; 000000ceH
  00e02	8b 4d fc	 mov	 ecx, DWORD PTR _this$[ebp]
  00e05	e8 00 00 00 00	 call	 ?SetText@CExText@@QAEXHPAD@Z ; CExText::SetText

; 245  : 	this->SetText(207, "Illusion Temple 4");

  00e0a	68 00 00 00 00	 push	 OFFSET ??_C@_0BC@BKNFOAJM@Illusion?5Temple?54?$AA@
  00e0f	68 cf 00 00 00	 push	 207			; 000000cfH
  00e14	8b 4d fc	 mov	 ecx, DWORD PTR _this$[ebp]
  00e17	e8 00 00 00 00	 call	 ?SetText@CExText@@QAEXHPAD@Z ; CExText::SetText

; 246  : 	this->SetText(208, "Illusion Temple 5");

  00e1c	68 00 00 00 00	 push	 OFFSET ??_C@_0BC@DMONBNN@Illusion?5Temple?55?$AA@
  00e21	68 d0 00 00 00	 push	 208			; 000000d0H
  00e26	8b 4d fc	 mov	 ecx, DWORD PTR _this$[ebp]
  00e29	e8 00 00 00 00	 call	 ?SetText@CExText@@QAEXHPAD@Z ; CExText::SetText

; 247  : 	this->SetText(209, "Illusion Temple 6");

  00e2e	68 00 00 00 00	 push	 OFFSET ??_C@_0BC@CIODICBO@Illusion?5Temple?56?$AA@
  00e33	68 d1 00 00 00	 push	 209			; 000000d1H
  00e38	8b 4d fc	 mov	 ecx, DWORD PTR _this$[ebp]
  00e3b	e8 00 00 00 00	 call	 ?SetText@CExText@@QAEXHPAD@Z ; CExText::SetText

; 248  : 	this->SetText(210, "Elblend");

  00e40	68 00 00 00 00	 push	 OFFSET ??_C@_07OBGILBCL@Elblend?$AA@
  00e45	68 d2 00 00 00	 push	 210			; 000000d2H
  00e4a	8b 4d fc	 mov	 ecx, DWORD PTR _this$[ebp]
  00e4d	e8 00 00 00 00	 call	 ?SetText@CExText@@QAEXHPAD@Z ; CExText::SetText

; 249  : 	this->SetText(211, "Blood Castle 8");

  00e52	68 00 00 00 00	 push	 OFFSET ??_C@_0P@PJOJEPGI@Blood?5Castle?58?$AA@
  00e57	68 d3 00 00 00	 push	 211			; 000000d3H
  00e5c	8b 4d fc	 mov	 ecx, DWORD PTR _this$[ebp]
  00e5f	e8 00 00 00 00	 call	 ?SetText@CExText@@QAEXHPAD@Z ; CExText::SetText

; 250  : 	this->SetText(212, "Chaos Castle 7");

  00e64	68 00 00 00 00	 push	 OFFSET ??_C@_0P@KDANNKKM@Chaos?5Castle?57?$AA@
  00e69	68 d4 00 00 00	 push	 212			; 000000d4H
  00e6e	8b 4d fc	 mov	 ecx, DWORD PTR _this$[ebp]
  00e71	e8 00 00 00 00	 call	 ?SetText@CExText@@QAEXHPAD@Z ; CExText::SetText

; 251  : 	this->SetText(213, "Devil Squere 7");

  00e76	68 00 00 00 00	 push	 OFFSET ??_C@_0P@DAEACODP@Devil?5Squere?57?$AA@
  00e7b	68 d5 00 00 00	 push	 213			; 000000d5H
  00e80	8b 4d fc	 mov	 ecx, DWORD PTR _this$[ebp]
  00e83	e8 00 00 00 00	 call	 ?SetText@CExText@@QAEXHPAD@Z ; CExText::SetText

; 252  : 	this->SetText(214, "Swamp Of Calmness");

  00e88	68 00 00 00 00	 push	 OFFSET ??_C@_0BC@BMNEEACA@Swamp?5Of?5Calmness?$AA@
  00e8d	68 d6 00 00 00	 push	 214			; 000000d6H
  00e92	8b 4d fc	 mov	 ecx, DWORD PTR _this$[ebp]
  00e95	e8 00 00 00 00	 call	 ?SetText@CExText@@QAEXHPAD@Z ; CExText::SetText

; 253  : 	this->SetText(215, "Raklion");

  00e9a	68 00 00 00 00	 push	 OFFSET ??_C@_07GADFIEBE@Raklion?$AA@
  00e9f	68 d7 00 00 00	 push	 215			; 000000d7H
  00ea4	8b 4d fc	 mov	 ecx, DWORD PTR _this$[ebp]
  00ea7	e8 00 00 00 00	 call	 ?SetText@CExText@@QAEXHPAD@Z ; CExText::SetText

; 254  : 	this->SetText(216, "Raklion Boss");

  00eac	68 00 00 00 00	 push	 OFFSET ??_C@_0N@KEHJEJIE@Raklion?5Boss?$AA@
  00eb1	68 d8 00 00 00	 push	 216			; 000000d8H
  00eb6	8b 4d fc	 mov	 ecx, DWORD PTR _this$[ebp]
  00eb9	e8 00 00 00 00	 call	 ?SetText@CExText@@QAEXHPAD@Z ; CExText::SetText

; 255  : 	this->SetText(217, "Santa Town");

  00ebe	68 00 00 00 00	 push	 OFFSET ??_C@_0L@NJMBKLOB@Santa?5Town?$AA@
  00ec3	68 d9 00 00 00	 push	 217			; 000000d9H
  00ec8	8b 4d fc	 mov	 ecx, DWORD PTR _this$[ebp]
  00ecb	e8 00 00 00 00	 call	 ?SetText@CExText@@QAEXHPAD@Z ; CExText::SetText

; 256  : 	this->SetText(218, "Vulcan");

  00ed0	68 00 00 00 00	 push	 OFFSET ??_C@_06LOEDEFOB@Vulcan?$AA@
  00ed5	68 da 00 00 00	 push	 218			; 000000daH
  00eda	8b 4d fc	 mov	 ecx, DWORD PTR _this$[ebp]
  00edd	e8 00 00 00 00	 call	 ?SetText@CExText@@QAEXHPAD@Z ; CExText::SetText

; 257  : 	this->SetText(219, "Vulcan Room");

  00ee2	68 00 00 00 00	 push	 OFFSET ??_C@_0M@EAGBBPA@Vulcan?5Room?$AA@
  00ee7	68 db 00 00 00	 push	 219			; 000000dbH
  00eec	8b 4d fc	 mov	 ecx, DWORD PTR _this$[ebp]
  00eef	e8 00 00 00 00	 call	 ?SetText@CExText@@QAEXHPAD@Z ; CExText::SetText

; 258  : 	this->SetText(220, "Double Goer 1");

  00ef4	68 00 00 00 00	 push	 OFFSET ??_C@_0O@NJCAENOH@Double?5Goer?51?$AA@
  00ef9	68 dc 00 00 00	 push	 220			; 000000dcH
  00efe	8b 4d fc	 mov	 ecx, DWORD PTR _this$[ebp]
  00f01	e8 00 00 00 00	 call	 ?SetText@CExText@@QAEXHPAD@Z ; CExText::SetText

; 259  : 	this->SetText(221, "Double Goer 2");

  00f06	68 00 00 00 00	 push	 OFFSET ??_C@_0O@PCANBOCE@Double?5Goer?52?$AA@
  00f0b	68 dd 00 00 00	 push	 221			; 000000ddH
  00f10	8b 4d fc	 mov	 ecx, DWORD PTR _this$[ebp]
  00f13	e8 00 00 00 00	 call	 ?SetText@CExText@@QAEXHPAD@Z ; CExText::SetText

; 260  : 	this->SetText(222, "Double Goer 3");

  00f18	68 00 00 00 00	 push	 OFFSET ??_C@_0O@OLBGCPGF@Double?5Goer?53?$AA@
  00f1d	68 de 00 00 00	 push	 222			; 000000deH
  00f22	8b 4d fc	 mov	 ecx, DWORD PTR _this$[ebp]
  00f25	e8 00 00 00 00	 call	 ?SetText@CExText@@QAEXHPAD@Z ; CExText::SetText

; 261  : 	this->SetText(223, "Double Goer 4");

  00f2a	68 00 00 00 00	 push	 OFFSET ??_C@_0O@KEFHLJKC@Double?5Goer?54?$AA@
  00f2f	68 df 00 00 00	 push	 223			; 000000dfH
  00f34	8b 4d fc	 mov	 ecx, DWORD PTR _this$[ebp]
  00f37	e8 00 00 00 00	 call	 ?SetText@CExText@@QAEXHPAD@Z ; CExText::SetText

; 262  : 	this->SetText(224, "Imperial 1");

  00f3c	68 00 00 00 00	 push	 OFFSET ??_C@_0L@KHCEDDH@Imperial?51?$AA@
  00f41	68 e0 00 00 00	 push	 224			; 000000e0H
  00f46	8b 4d fc	 mov	 ecx, DWORD PTR _this$[ebp]
  00f49	e8 00 00 00 00	 call	 ?SetText@CExText@@QAEXHPAD@Z ; CExText::SetText

; 263  : 	this->SetText(225, "Imperial 2");

  00f4e	68 00 00 00 00	 push	 OFFSET ??_C@_0L@CBFPBAPE@Imperial?52?$AA@
  00f53	68 e1 00 00 00	 push	 225			; 000000e1H
  00f58	8b 4d fc	 mov	 ecx, DWORD PTR _this$[ebp]
  00f5b	e8 00 00 00 00	 call	 ?SetText@CExText@@QAEXHPAD@Z ; CExText::SetText

; 264  : 	this->SetText(226, "Imperial 3");

  00f60	68 00 00 00 00	 push	 OFFSET ??_C@_0L@DIEECBLF@Imperial?53?$AA@
  00f65	68 e2 00 00 00	 push	 226			; 000000e2H
  00f6a	8b 4d fc	 mov	 ecx, DWORD PTR _this$[ebp]
  00f6d	e8 00 00 00 00	 call	 ?SetText@CExText@@QAEXHPAD@Z ; CExText::SetText

; 265  : 	this->SetText(227, "Imperial 4");

  00f72	68 00 00 00 00	 push	 OFFSET ??_C@_0L@HHAFLHHC@Imperial?54?$AA@
  00f77	68 e3 00 00 00	 push	 227			; 000000e3H
  00f7c	8b 4d fc	 mov	 ecx, DWORD PTR _this$[ebp]
  00f7f	e8 00 00 00 00	 call	 ?SetText@CExText@@QAEXHPAD@Z ; CExText::SetText

; 266  : 	this->SetText(228, "Loren Market");

  00f84	68 00 00 00 00	 push	 OFFSET ??_C@_0N@PNCDMAOA@Loren?5Market?$AA@
  00f89	68 e4 00 00 00	 push	 228			; 000000e4H
  00f8e	8b 4d fc	 mov	 ecx, DWORD PTR _this$[ebp]
  00f91	e8 00 00 00 00	 call	 ?SetText@CExText@@QAEXHPAD@Z ; CExText::SetText

; 267  : 	this->SetText(229, "Karutan");

  00f96	68 00 00 00 00	 push	 OFFSET ??_C@_07OCAFKKPM@Karutan?$AA@
  00f9b	68 e5 00 00 00	 push	 229			; 000000e5H
  00fa0	8b 4d fc	 mov	 ecx, DWORD PTR _this$[ebp]
  00fa3	e8 00 00 00 00	 call	 ?SetText@CExText@@QAEXHPAD@Z ; CExText::SetText

; 268  : 	this->SetText(230, "Karutan 2");

  00fa8	68 00 00 00 00	 push	 OFFSET ??_C@_09FLDHBEND@Karutan?52?$AA@
  00fad	68 e6 00 00 00	 push	 230			; 000000e6H
  00fb2	8b 4d fc	 mov	 ecx, DWORD PTR _this$[ebp]
  00fb5	e8 00 00 00 00	 call	 ?SetText@CExText@@QAEXHPAD@Z ; CExText::SetText

; 269  : 	this->SetText(231, "[Buy] Need %d Zen");

  00fba	68 00 00 00 00	 push	 OFFSET ??_C@_0BC@GHOMDOGB@?$FLBuy?$FN?5Need?5?$CFd?5Zen?$AA@
  00fbf	68 e7 00 00 00	 push	 231			; 000000e7H
  00fc4	8b 4d fc	 mov	 ecx, DWORD PTR _this$[ebp]
  00fc7	e8 00 00 00 00	 call	 ?SetText@CExText@@QAEXHPAD@Z ; CExText::SetText

; 270  : 	this->SetText(232, "[Buy] Need %d Bonus");

  00fcc	68 00 00 00 00	 push	 OFFSET ??_C@_0BE@EOJKDIHI@?$FLBuy?$FN?5Need?5?$CFd?5Bonus?$AA@
  00fd1	68 e8 00 00 00	 push	 232			; 000000e8H
  00fd6	8b 4d fc	 mov	 ecx, DWORD PTR _this$[ebp]
  00fd9	e8 00 00 00 00	 call	 ?SetText@CExText@@QAEXHPAD@Z ; CExText::SetText

; 271  : 	this->SetText(233, "[Buy] Need %d Credits");

  00fde	68 00 00 00 00	 push	 OFFSET ??_C@_0BG@FKEOOLNJ@?$FLBuy?$FN?5Need?5?$CFd?5Credits?$AA@
  00fe3	68 e9 00 00 00	 push	 233			; 000000e9H
  00fe8	8b 4d fc	 mov	 ecx, DWORD PTR _this$[ebp]
  00feb	e8 00 00 00 00	 call	 ?SetText@CExText@@QAEXHPAD@Z ; CExText::SetText

; 272  : 	this->SetText(234, "[Buy] Need %d Zen");

  00ff0	68 00 00 00 00	 push	 OFFSET ??_C@_0BC@GHOMDOGB@?$FLBuy?$FN?5Need?5?$CFd?5Zen?$AA@
  00ff5	68 ea 00 00 00	 push	 234			; 000000eaH
  00ffa	8b 4d fc	 mov	 ecx, DWORD PTR _this$[ebp]
  00ffd	e8 00 00 00 00	 call	 ?SetText@CExText@@QAEXHPAD@Z ; CExText::SetText

; 273  : 	this->SetText(235, "[Buy] Need %d Bonus");

  01002	68 00 00 00 00	 push	 OFFSET ??_C@_0BE@EOJKDIHI@?$FLBuy?$FN?5Need?5?$CFd?5Bonus?$AA@
  01007	68 eb 00 00 00	 push	 235			; 000000ebH
  0100c	8b 4d fc	 mov	 ecx, DWORD PTR _this$[ebp]
  0100f	e8 00 00 00 00	 call	 ?SetText@CExText@@QAEXHPAD@Z ; CExText::SetText

; 274  : 	this->SetText(236, "[Buy] %d Wcoin");

  01014	68 00 00 00 00	 push	 OFFSET ??_C@_0P@HJIHFOLJ@?$FLBuy?$FN?5?$CFd?5Wcoin?$AA@
  01019	68 ec 00 00 00	 push	 236			; 000000ecH
  0101e	8b 4d fc	 mov	 ecx, DWORD PTR _this$[ebp]
  01021	e8 00 00 00 00	 call	 ?SetText@CExText@@QAEXHPAD@Z ; CExText::SetText

; 275  : 	this->SetText(237, "[Buy] Need %d Credits");

  01026	68 00 00 00 00	 push	 OFFSET ??_C@_0BG@FKEOOLNJ@?$FLBuy?$FN?5Need?5?$CFd?5Credits?$AA@
  0102b	68 ed 00 00 00	 push	 237			; 000000edH
  01030	8b 4d fc	 mov	 ecx, DWORD PTR _this$[ebp]
  01033	e8 00 00 00 00	 call	 ?SetText@CExText@@QAEXHPAD@Z ; CExText::SetText

; 276  : 	this->SetText(238, "[Buy] %d Credits");

  01038	68 00 00 00 00	 push	 OFFSET ??_C@_0BB@BDLKINPJ@?$FLBuy?$FN?5?$CFd?5Credits?$AA@
  0103d	68 ee 00 00 00	 push	 238			; 000000eeH
  01042	8b 4d fc	 mov	 ecx, DWORD PTR _this$[ebp]
  01045	e8 00 00 00 00	 call	 ?SetText@CExText@@QAEXHPAD@Z ; CExText::SetText

; 277  : 	this->SetText(239, "[OffExp] Need %d Zen");

  0104a	68 00 00 00 00	 push	 OFFSET ??_C@_0BF@MAMJKDIJ@?$FLOffExp?$FN?5Need?5?$CFd?5Zen?$AA@
  0104f	68 ef 00 00 00	 push	 239			; 000000efH
  01054	8b 4d fc	 mov	 ecx, DWORD PTR _this$[ebp]
  01057	e8 00 00 00 00	 call	 ?SetText@CExText@@QAEXHPAD@Z ; CExText::SetText

; 278  : 	this->SetText(240, "[OffExp] Need %d Credit");

  0105c	68 00 00 00 00	 push	 OFFSET ??_C@_0BI@KKCCEDNH@?$FLOffExp?$FN?5Need?5?$CFd?5Credit?$AA@
  01061	68 f0 00 00 00	 push	 240			; 000000f0H
  01066	8b 4d fc	 mov	 ecx, DWORD PTR _this$[ebp]
  01069	e8 00 00 00 00	 call	 ?SetText@CExText@@QAEXHPAD@Z ; CExText::SetText

; 279  : 	this->SetText(241, "[OffExp] Need %d WCoinC");

  0106e	68 00 00 00 00	 push	 OFFSET ??_C@_0BI@NLAHFJMP@?$FLOffExp?$FN?5Need?5?$CFd?5WCoinC?$AA@
  01073	68 f1 00 00 00	 push	 241			; 000000f1H
  01078	8b 4d fc	 mov	 ecx, DWORD PTR _this$[ebp]
  0107b	e8 00 00 00 00	 call	 ?SetText@CExText@@QAEXHPAD@Z ; CExText::SetText

; 280  : 	this->SetText(242, "[OffExp] Need %d WCoinP");

  01080	68 00 00 00 00	 push	 OFFSET ??_C@_0BI@LKOIBIFN@?$FLOffExp?$FN?5Need?5?$CFd?5WCoinP?$AA@
  01085	68 f2 00 00 00	 push	 242			; 000000f2H
  0108a	8b 4d fc	 mov	 ecx, DWORD PTR _this$[ebp]
  0108d	e8 00 00 00 00	 call	 ?SetText@CExText@@QAEXHPAD@Z ; CExText::SetText

; 281  : 	this->SetText(243, "[OffExp] Need %d Goblin");

  01092	68 00 00 00 00	 push	 OFFSET ??_C@_0BI@CGJMHIKF@?$FLOffExp?$FN?5Need?5?$CFd?5Goblin?$AA@
  01097	68 f3 00 00 00	 push	 243			; 000000f3H
  0109c	8b 4d fc	 mov	 ecx, DWORD PTR _this$[ebp]
  0109f	e8 00 00 00 00	 call	 ?SetText@CExText@@QAEXHPAD@Z ; CExText::SetText

; 282  : 	this->SetText(244, "[OffExp] Works just outside of town");

  010a4	68 00 00 00 00	 push	 OFFSET ??_C@_0CE@IDHHPCBO@?$FLOffExp?$FN?5Works?5just?5outside?5of?5t@
  010a9	68 f4 00 00 00	 push	 244			; 000000f4H
  010ae	8b 4d fc	 mov	 ecx, DWORD PTR _this$[ebp]
  010b1	e8 00 00 00 00	 call	 ?SetText@CExText@@QAEXHPAD@Z ; CExText::SetText

; 283  : 	this->SetText(245, "GM Map");

  010b6	68 00 00 00 00	 push	 OFFSET ??_C@_06JOGMAFMB@GM?5Map?$AA@
  010bb	68 f5 00 00 00	 push	 245			; 000000f5H
  010c0	8b 4d fc	 mov	 ecx, DWORD PTR _this$[ebp]
  010c3	e8 00 00 00 00	 call	 ?SetText@CExText@@QAEXHPAD@Z ; CExText::SetText

; 284  : 	this->SetText(246, "@[PREMIUM] Experience: +%d%%");

  010c8	68 00 00 00 00	 push	 OFFSET ??_C@_0BN@JJILFFBN@?$EA?$FLPREMIUM?$FN?5Experience?3?5?$CL?$CFd?$CF?$CF?$AA@
  010cd	68 f6 00 00 00	 push	 246			; 000000f6H
  010d2	8b 4d fc	 mov	 ecx, DWORD PTR _this$[ebp]
  010d5	e8 00 00 00 00	 call	 ?SetText@CExText@@QAEXHPAD@Z ; CExText::SetText

; 285  : 	this->SetText(247, "@[PREMIUM] Drop Zen: +%d%%");

  010da	68 00 00 00 00	 push	 OFFSET ??_C@_0BL@NDFEDM@?$EA?$FLPREMIUM?$FN?5Drop?5Zen?3?5?$CL?$CFd?$CF?$CF?$AA@
  010df	68 f7 00 00 00	 push	 247			; 000000f7H
  010e4	8b 4d fc	 mov	 ecx, DWORD PTR _this$[ebp]
  010e7	e8 00 00 00 00	 call	 ?SetText@CExText@@QAEXHPAD@Z ; CExText::SetText

; 286  : 	this->SetText(248, "@[PREMIUM] Damage: +%d%%");

  010ec	68 00 00 00 00	 push	 OFFSET ??_C@_0BJ@HMOBPEHA@?$EA?$FLPREMIUM?$FN?5Damage?3?5?$CL?$CFd?$CF?$CF?$AA@
  010f1	68 f8 00 00 00	 push	 248			; 000000f8H
  010f6	8b 4d fc	 mov	 ecx, DWORD PTR _this$[ebp]
  010f9	e8 00 00 00 00	 call	 ?SetText@CExText@@QAEXHPAD@Z ; CExText::SetText

; 287  : 	this->SetText(249, "@[PREMIUM] Wizard Damage: +%d%%");

  010fe	68 00 00 00 00	 push	 OFFSET ??_C@_0CA@BMNDND@?$EA?$FLPREMIUM?$FN?5Wizard?5Damage?3?5?$CL?$CFd?$CF?$CF?$AA@
  01103	68 f9 00 00 00	 push	 249			; 000000f9H
  01108	8b 4d fc	 mov	 ecx, DWORD PTR _this$[ebp]
  0110b	e8 00 00 00 00	 call	 ?SetText@CExText@@QAEXHPAD@Z ; CExText::SetText

; 288  : 	this->SetText(250, "@[PREMIUM] Defence: +%d%%");

  01110	68 00 00 00 00	 push	 OFFSET ??_C@_0BK@NBMNNEF@?$EA?$FLPREMIUM?$FN?5Defence?3?5?$CL?$CFd?$CF?$CF?$AA@
  01115	68 fa 00 00 00	 push	 250			; 000000faH
  0111a	8b 4d fc	 mov	 ecx, DWORD PTR _this$[ebp]
  0111d	e8 00 00 00 00	 call	 ?SetText@CExText@@QAEXHPAD@Z ; CExText::SetText

; 289  : 	this->SetText(251, "@[PREMIUM] Min: %d");

  01122	68 00 00 00 00	 push	 OFFSET ??_C@_0BD@KMCMCOAB@?$EA?$FLPREMIUM?$FN?5Min?3?5?$CFd?$AA@
  01127	68 fb 00 00 00	 push	 251			; 000000fbH
  0112c	8b 4d fc	 mov	 ecx, DWORD PTR _this$[ebp]
  0112f	e8 00 00 00 00	 call	 ?SetText@CExText@@QAEXHPAD@Z ; CExText::SetText

; 290  : 	this->SetText(252, "@[PREMIUM] Time is over");

  01134	68 00 00 00 00	 push	 OFFSET ??_C@_0BI@HBMDNHJN@?$EA?$FLPREMIUM?$FN?5Time?5is?5over?$AA@
  01139	68 fc 00 00 00	 push	 252			; 000000fcH
  0113e	8b 4d fc	 mov	 ecx, DWORD PTR _this$[ebp]
  01141	e8 00 00 00 00	 call	 ?SetText@CExText@@QAEXHPAD@Z ; CExText::SetText

; 291  : 	this->SetText(253, "No Jewels");

  01146	68 00 00 00 00	 push	 OFFSET ??_C@_09FMDNBLPI@No?5Jewels?$AA@
  0114b	68 fd 00 00 00	 push	 253			; 000000fdH
  01150	8b 4d fc	 mov	 ecx, DWORD PTR _this$[ebp]
  01153	e8 00 00 00 00	 call	 ?SetText@CExText@@QAEXHPAD@Z ; CExText::SetText

; 292  : 	this->SetText(254, "[Drop Event] Started!");

  01158	68 00 00 00 00	 push	 OFFSET ??_C@_0BG@EEMGHGE@?$FLDrop?5Event?$FN?5Started?$CB?$AA@
  0115d	68 fe 00 00 00	 push	 254			; 000000feH
  01162	8b 4d fc	 mov	 ecx, DWORD PTR _this$[ebp]
  01165	e8 00 00 00 00	 call	 ?SetText@CExText@@QAEXHPAD@Z ; CExText::SetText

; 293  : 
; 294  : 	this->SetText(255, "[Need Level]: %d");

  0116a	68 00 00 00 00	 push	 OFFSET ??_C@_0BB@BAFBNPAJ@?$FLNeed?5Level?$FN?3?5?$CFd?$AA@
  0116f	68 ff 00 00 00	 push	 255			; 000000ffH
  01174	8b 4d fc	 mov	 ecx, DWORD PTR _this$[ebp]
  01177	e8 00 00 00 00	 call	 ?SetText@CExText@@QAEXHPAD@Z ; CExText::SetText

; 295  : 	this->SetText(256, "[Need Reset]: %d");

  0117c	68 00 00 00 00	 push	 OFFSET ??_C@_0BB@PCHHKHCC@?$FLNeed?5Reset?$FN?3?5?$CFd?$AA@
  01181	68 00 01 00 00	 push	 256			; 00000100H
  01186	8b 4d fc	 mov	 ecx, DWORD PTR _this$[ebp]
  01189	e8 00 00 00 00	 call	 ?SetText@CExText@@QAEXHPAD@Z ; CExText::SetText

; 296  : 	this->SetText(257, "[Need GReset]: %d");

  0118e	68 00 00 00 00	 push	 OFFSET ??_C@_0BC@CHJAHMDJ@?$FLNeed?5GReset?$FN?3?5?$CFd?$AA@
  01193	68 01 01 00 00	 push	 257			; 00000101H
  01198	8b 4d fc	 mov	 ecx, DWORD PTR _this$[ebp]
  0119b	e8 00 00 00 00	 call	 ?SetText@CExText@@QAEXHPAD@Z ; CExText::SetText

; 297  : 	this->SetText(258, "[Need Premium]: Status %d rank");

  011a0	68 00 00 00 00	 push	 OFFSET ??_C@_0BP@KMDIOMJA@?$FLNeed?5Premium?$FN?3?5Status?5?$CFd?5rank?$AA@
  011a5	68 02 01 00 00	 push	 258			; 00000102H
  011aa	8b 4d fc	 mov	 ecx, DWORD PTR _this$[ebp]
  011ad	e8 00 00 00 00	 call	 ?SetText@CExText@@QAEXHPAD@Z ; CExText::SetText

; 298  : 	this->SetText(259, "[Need Premium]: Status");

  011b2	68 00 00 00 00	 push	 OFFSET ??_C@_0BH@KHMLGCFI@?$FLNeed?5Premium?$FN?3?5Status?$AA@
  011b7	68 03 01 00 00	 push	 259			; 00000103H
  011bc	8b 4d fc	 mov	 ecx, DWORD PTR _this$[ebp]
  011bf	e8 00 00 00 00	 call	 ?SetText@CExText@@QAEXHPAD@Z ; CExText::SetText

; 299  : 	this->SetText(260, "[Need Zen]: %d");

  011c4	68 00 00 00 00	 push	 OFFSET ??_C@_0P@JOEEOEIN@?$FLNeed?5Zen?$FN?3?5?$CFd?$AA@
  011c9	68 04 01 00 00	 push	 260			; 00000104H
  011ce	8b 4d fc	 mov	 ecx, DWORD PTR _this$[ebp]
  011d1	e8 00 00 00 00	 call	 ?SetText@CExText@@QAEXHPAD@Z ; CExText::SetText

; 300  : 	this->SetText(261, "[Need ExCred]: %d");

  011d6	68 00 00 00 00	 push	 OFFSET ??_C@_0BC@JNHOMOOP@?$FLNeed?5ExCred?$FN?3?5?$CFd?$AA@
  011db	68 05 01 00 00	 push	 261			; 00000105H
  011e0	8b 4d fc	 mov	 ecx, DWORD PTR _this$[ebp]
  011e3	e8 00 00 00 00	 call	 ?SetText@CExText@@QAEXHPAD@Z ; CExText::SetText

; 301  : 	this->SetText(262, "[Need WCoinC]: %d");

  011e8	68 00 00 00 00	 push	 OFFSET ??_C@_0BC@FKJCFFGC@?$FLNeed?5WCoinC?$FN?3?5?$CFd?$AA@
  011ed	68 06 01 00 00	 push	 262			; 00000106H
  011f2	8b 4d fc	 mov	 ecx, DWORD PTR _this$[ebp]
  011f5	e8 00 00 00 00	 call	 ?SetText@CExText@@QAEXHPAD@Z ; CExText::SetText

; 302  : 	this->SetText(263, "[Need WCoinP]: %d");

  011fa	68 00 00 00 00	 push	 OFFSET ??_C@_0BC@MKENDDB@?$FLNeed?5WCoinP?$FN?3?5?$CFd?$AA@
  011ff	68 07 01 00 00	 push	 263			; 00000107H
  01204	8b 4d fc	 mov	 ecx, DWORD PTR _this$[ebp]
  01207	e8 00 00 00 00	 call	 ?SetText@CExText@@QAEXHPAD@Z ; CExText::SetText

; 303  : 	this->SetText(264, "[Need Goblin]: %d");

  0120c	68 00 00 00 00	 push	 OFFSET ??_C@_0BC@MBMKDKDE@?$FLNeed?5Goblin?$FN?3?5?$CFd?$AA@
  01211	68 08 01 00 00	 push	 264			; 00000108H
  01216	8b 4d fc	 mov	 ecx, DWORD PTR _this$[ebp]
  01219	e8 00 00 00 00	 call	 ?SetText@CExText@@QAEXHPAD@Z ; CExText::SetText

; 304  : 	this->SetText(265, "[Max Reset]: %d");

  0121e	68 00 00 00 00	 push	 OFFSET ??_C@_0BA@MEJNHEPC@?$FLMax?5Reset?$FN?3?5?$CFd?$AA@
  01223	68 09 01 00 00	 push	 265			; 00000109H
  01228	8b 4d fc	 mov	 ecx, DWORD PTR _this$[ebp]
  0122b	e8 00 00 00 00	 call	 ?SetText@CExText@@QAEXHPAD@Z ; CExText::SetText

; 305  : 	this->SetText(266, "[Max GReset]: %d");

  01230	68 00 00 00 00	 push	 OFFSET ??_C@_0BB@KBHFEEDO@?$FLMax?5GReset?$FN?3?5?$CFd?$AA@
  01235	68 0a 01 00 00	 push	 266			; 0000010aH
  0123a	8b 4d fc	 mov	 ecx, DWORD PTR _this$[ebp]
  0123d	e8 00 00 00 00	 call	 ?SetText@CExText@@QAEXHPAD@Z ; CExText::SetText

; 306  : 	
; 307  : }

  01242	5f		 pop	 edi
  01243	5e		 pop	 esi
  01244	5b		 pop	 ebx
  01245	8b e5		 mov	 esp, ebp
  01247	5d		 pop	 ebp
  01248	c3		 ret	 0
?LoadText@CExText@@QAEXXZ ENDP				; CExText::LoadText
_TEXT	ENDS
PUBLIC	??_C@_06MLPMCPDE@ExTeam?$AA@			; `string'
PUBLIC	??_C@_06PPNIMFKB@Text?$CFd?$AA@			; `string'
PUBLIC	__$ArrayPad$
EXTRN	__imp__GetPrivateProfileStringA@24:PROC
EXTRN	_sprintf:PROC
EXTRN	___security_cookie:DWORD
EXTRN	@__security_check_cookie@4:PROC
EXTRN	_memset:PROC
;	COMDAT ??_C@_06MLPMCPDE@ExTeam?$AA@
CONST	SEGMENT
??_C@_06MLPMCPDE@ExTeam?$AA@ DB 'ExTeam', 00H		; `string'
CONST	ENDS
;	COMDAT ??_C@_06PPNIMFKB@Text?$CFd?$AA@
CONST	SEGMENT
??_C@_06PPNIMFKB@Text?$CFd?$AA@ DB 'Text%d', 00H	; `string'
; Function compile flags: /Odtp /ZI
CONST	ENDS
_TEXT	SEGMENT
_szTextNumber$ = -264					; size = 256
_this$ = -8						; size = 4
__$ArrayPad$ = -4					; size = 4
_number$ = 8						; size = 4
_Text$ = 12						; size = 4
?SetText@CExText@@QAEXHPAD@Z PROC			; CExText::SetText
; _this$ = ecx

; 310  : {

  01250	55		 push	 ebp
  01251	8b ec		 mov	 ebp, esp
  01253	81 ec 48 01 00
	00		 sub	 esp, 328		; 00000148H
  01259	a1 00 00 00 00	 mov	 eax, DWORD PTR ___security_cookie
  0125e	33 c5		 xor	 eax, ebp
  01260	89 45 fc	 mov	 DWORD PTR __$ArrayPad$[ebp], eax
  01263	53		 push	 ebx
  01264	56		 push	 esi
  01265	57		 push	 edi
  01266	89 4d f8	 mov	 DWORD PTR _this$[ebp], ecx

; 311  : 	if(number < 0 || number >= MAX_EXTEXT)

  01269	83 7d 08 00	 cmp	 DWORD PTR _number$[ebp], 0
  0126d	7c 09		 jl	 SHORT $LN1@SetText
  0126f	81 7d 08 f4 01
	00 00		 cmp	 DWORD PTR _number$[ebp], 500 ; 000001f4H
  01276	7c 02		 jl	 SHORT $LN2@SetText
$LN1@SetText:

; 312  : 	{
; 313  : 		return;

  01278	eb 65		 jmp	 SHORT $LN3@SetText
$LN2@SetText:

; 314  : 	}
; 315  : 
; 316  : 	char szTextNumber[256] = { 0 };

  0127a	c6 85 f8 fe ff
	ff 00		 mov	 BYTE PTR _szTextNumber$[ebp], 0
  01281	68 ff 00 00 00	 push	 255			; 000000ffH
  01286	6a 00		 push	 0
  01288	8d 85 f9 fe ff
	ff		 lea	 eax, DWORD PTR _szTextNumber$[ebp+1]
  0128e	50		 push	 eax
  0128f	e8 00 00 00 00	 call	 _memset
  01294	83 c4 0c	 add	 esp, 12			; 0000000cH

; 317  : 	sprintf(szTextNumber, "Text%d", number);

  01297	8b 45 08	 mov	 eax, DWORD PTR _number$[ebp]
  0129a	50		 push	 eax
  0129b	68 00 00 00 00	 push	 OFFSET ??_C@_06PPNIMFKB@Text?$CFd?$AA@
  012a0	8d 8d f8 fe ff
	ff		 lea	 ecx, DWORD PTR _szTextNumber$[ebp]
  012a6	51		 push	 ecx
  012a7	e8 00 00 00 00	 call	 _sprintf
  012ac	83 c4 0c	 add	 esp, 12			; 0000000cH

; 318  : 	GetPrivateProfileString("ExTeam", szTextNumber, Text, this->m_Text[number], 128, this->m_Path);

  012af	8b 45 f8	 mov	 eax, DWORD PTR _this$[ebp]
  012b2	50		 push	 eax
  012b3	68 80 00 00 00	 push	 128			; 00000080H
  012b8	8b 4d 08	 mov	 ecx, DWORD PTR _number$[ebp]
  012bb	c1 e1 07	 shl	 ecx, 7
  012be	8b 55 f8	 mov	 edx, DWORD PTR _this$[ebp]
  012c1	8d 84 0a 80 00
	00 00		 lea	 eax, DWORD PTR [edx+ecx+128]
  012c8	50		 push	 eax
  012c9	8b 4d 0c	 mov	 ecx, DWORD PTR _Text$[ebp]
  012cc	51		 push	 ecx
  012cd	8d 95 f8 fe ff
	ff		 lea	 edx, DWORD PTR _szTextNumber$[ebp]
  012d3	52		 push	 edx
  012d4	68 00 00 00 00	 push	 OFFSET ??_C@_06MLPMCPDE@ExTeam?$AA@
  012d9	ff 15 00 00 00
	00		 call	 DWORD PTR __imp__GetPrivateProfileStringA@24
$LN3@SetText:

; 319  : }

  012df	5f		 pop	 edi
  012e0	5e		 pop	 esi
  012e1	5b		 pop	 ebx
  012e2	8b 4d fc	 mov	 ecx, DWORD PTR __$ArrayPad$[ebp]
  012e5	33 cd		 xor	 ecx, ebp
  012e7	e8 00 00 00 00	 call	 @__security_check_cookie@4
  012ec	8b e5		 mov	 esp, ebp
  012ee	5d		 pop	 ebp
  012ef	c2 08 00	 ret	 8
?SetText@CExText@@QAEXHPAD@Z ENDP			; CExText::SetText
_TEXT	ENDS
PUBLIC	??_C@_05NAOIJFC@Error?$AA@			; `string'
PUBLIC	?GetText@CExText@@QAEPADH@Z			; CExText::GetText
;	COMDAT ??_C@_05NAOIJFC@Error?$AA@
CONST	SEGMENT
??_C@_05NAOIJFC@Error?$AA@ DB 'Error', 00H		; `string'
; Function compile flags: /Odtp /ZI
CONST	ENDS
_TEXT	SEGMENT
_this$ = -4						; size = 4
_number$ = 8						; size = 4
?GetText@CExText@@QAEPADH@Z PROC			; CExText::GetText
; _this$ = ecx

; 322  : {

  01300	55		 push	 ebp
  01301	8b ec		 mov	 ebp, esp
  01303	83 ec 44	 sub	 esp, 68			; 00000044H
  01306	53		 push	 ebx
  01307	56		 push	 esi
  01308	57		 push	 edi
  01309	89 4d fc	 mov	 DWORD PTR _this$[ebp], ecx

; 323  : 	if(number < 0 || number >= MAX_EXTEXT)

  0130c	83 7d 08 00	 cmp	 DWORD PTR _number$[ebp], 0
  01310	7c 09		 jl	 SHORT $LN1@GetText
  01312	81 7d 08 f4 01
	00 00		 cmp	 DWORD PTR _number$[ebp], 500 ; 000001f4H
  01319	7c 07		 jl	 SHORT $LN2@GetText
$LN1@GetText:

; 324  : 	{
; 325  : 		return "Error";

  0131b	b8 00 00 00 00	 mov	 eax, OFFSET ??_C@_05NAOIJFC@Error?$AA@
  01320	eb 10		 jmp	 SHORT $LN3@GetText
$LN2@GetText:

; 326  : 	}
; 327  : 
; 328  : 	return this->m_Text[number];

  01322	8b 45 08	 mov	 eax, DWORD PTR _number$[ebp]
  01325	c1 e0 07	 shl	 eax, 7
  01328	8b 4d fc	 mov	 ecx, DWORD PTR _this$[ebp]
  0132b	8d 84 01 80 00
	00 00		 lea	 eax, DWORD PTR [ecx+eax+128]
$LN3@GetText:

; 329  : }

  01332	5f		 pop	 edi
  01333	5e		 pop	 esi
  01334	5b		 pop	 ebx
  01335	8b e5		 mov	 esp, ebp
  01337	5d		 pop	 ebp
  01338	c2 04 00	 ret	 4
?GetText@CExText@@QAEPADH@Z ENDP			; CExText::GetText
_TEXT	ENDS
EXTRN	_atexit:PROC
; Function compile flags: /Odtp /ZI
;	COMDAT ??__Eg_ExText@@YAXXZ
text$yc	SEGMENT
??__Eg_ExText@@YAXXZ PROC				; `dynamic initializer for 'g_ExText'', COMDAT

; 7    : CExText g_ExText;

  00000	55		 push	 ebp
  00001	8b ec		 mov	 ebp, esp
  00003	83 ec 40	 sub	 esp, 64			; 00000040H
  00006	53		 push	 ebx
  00007	56		 push	 esi
  00008	57		 push	 edi
  00009	b9 00 00 00 00	 mov	 ecx, OFFSET ?g_ExText@@3VCExText@@A ; g_ExText
  0000e	e8 00 00 00 00	 call	 ??0CExText@@QAE@XZ	; CExText::CExText
  00013	68 00 00 00 00	 push	 OFFSET ??__Fg_ExText@@YAXXZ ; `dynamic atexit destructor for 'g_ExText''
  00018	e8 00 00 00 00	 call	 _atexit
  0001d	83 c4 04	 add	 esp, 4
  00020	5f		 pop	 edi
  00021	5e		 pop	 esi
  00022	5b		 pop	 ebx
  00023	8b e5		 mov	 esp, ebp
  00025	5d		 pop	 ebp
  00026	c3		 ret	 0
??__Eg_ExText@@YAXXZ ENDP				; `dynamic initializer for 'g_ExText''
; Function compile flags: /Odtp /ZI
text$yc	ENDS
;	COMDAT ??__Fg_ExText@@YAXXZ
text$yd	SEGMENT
??__Fg_ExText@@YAXXZ PROC				; `dynamic atexit destructor for 'g_ExText'', COMDAT
  00000	55		 push	 ebp
  00001	8b ec		 mov	 ebp, esp
  00003	83 ec 40	 sub	 esp, 64			; 00000040H
  00006	53		 push	 ebx
  00007	56		 push	 esi
  00008	57		 push	 edi
  00009	b9 00 00 00 00	 mov	 ecx, OFFSET ?g_ExText@@3VCExText@@A ; g_ExText
  0000e	e8 00 00 00 00	 call	 ??1CExText@@QAE@XZ	; CExText::~CExText
  00013	5f		 pop	 edi
  00014	5e		 pop	 esi
  00015	5b		 pop	 ebx
  00016	8b e5		 mov	 esp, ebp
  00018	5d		 pop	 ebp
  00019	c3		 ret	 0
??__Fg_ExText@@YAXXZ ENDP				; `dynamic atexit destructor for 'g_ExText''
text$yd	ENDS
PUBLIC	?g_ExText@@3VCExText@@A				; g_ExText
_BSS	SEGMENT
?g_ExText@@3VCExText@@A DB 0fa80H DUP (?)		; g_ExText
_BSS	ENDS
CRT$XCU	SEGMENT
_g_ExText$initializer$ DD FLAT:??__Eg_ExText@@YAXXZ
CRT$XCU	ENDS
END
