; Listing generated by Microsoft (R) Optimizing Compiler Version 16.00.40219.01 

	TITLE	D:\Projects\ExTeam6.3\Source\GameServer\GameServer\ExUser.cpp
	.686P
	.XMM
	include listing.inc
	.model	flat

INCLUDELIB LIBCMT
INCLUDELIB OLDNAMES

_DATA	SEGMENT
_g_iNpcUpDfLevel_CGATE DD 01H
	DD	02H
	DD	02dc6c0H
	DD	02H
	DD	03H
	DD	02dc6c0H
	DD	03H
	DD	04H
	DD	02dc6c0H
_g_iNpcUpDfLevel_CSTATUE DD 01H
	DD	03H
	DD	02dc6c0H
	DD	02H
	DD	05H
	DD	02dc6c0H
	DD	03H
	DD	07H
	DD	02dc6c0H
_g_iNpcUpMaxHP_CGATE DD 02625a0H
	DD	02H
	DD	0f4240H
	DD	03567e0H
	DD	03H
	DD	0f4240H
	DD	04f5880H
	DD	04H
	DD	0f4240H
_g_iNpcUpMaxHP_CSTATUE DD 02191c0H
	DD	03H
	DD	0f4240H
	DD	033e140H
	DD	05H
	DD	0f4240H
	DD	04c4b40H
	DD	07H
	DD	0f4240H
_g_iNpcUpRgLevel_CSTATUE DD 01H
	DD	03H
	DD	04c4b40H
	DD	02H
	DD	05H
	DD	04c4b40H
	DD	03H
	DD	07H
	DD	04c4b40H
_g_iCsUserReSpawnArea DD 023H
	DD	011H
	DD	090H
	DD	030H
	DD	04aH
	DD	090H
	DD	073H
	DD	09aH
	DD	023H
	DD	011H
	DD	090H
	DD	030H
_g_iNpcDefense_CGATE DD 064H
	DD	0b4H
	DD	012cH
	DD	0208H
_g_iNpcDefense_CSTATUE DD 050H
	DD	0b4H
	DD	0154H
	DD	0226H
_g_iCastleWallStepAxisY DD 071H
	DD	0a0H
	DD	0cbH
_DATA	ENDS
PUBLIC	??_H@YGXPAXIHP6EPAX0@Z@Z			; `vector constructor iterator'
; Function compile flags: /Odtp /ZI
;	COMDAT ??_H@YGXPAXIHP6EPAX0@Z@Z
_TEXT	SEGMENT
___t$ = 8						; size = 4
___s$ = 12						; size = 4
___n$ = 16						; size = 4
___f$ = 20						; size = 4
??_H@YGXPAXIHP6EPAX0@Z@Z PROC				; `vector constructor iterator', COMDAT
  00000	55		 push	 ebp
  00001	8b ec		 mov	 ebp, esp
  00003	83 ec 40	 sub	 esp, 64			; 00000040H
  00006	53		 push	 ebx
  00007	56		 push	 esi
  00008	57		 push	 edi
$LN2@vector:
  00009	8b 45 10	 mov	 eax, DWORD PTR ___n$[ebp]
  0000c	83 e8 01	 sub	 eax, 1
  0000f	89 45 10	 mov	 DWORD PTR ___n$[ebp], eax
  00012	78 11		 js	 SHORT $LN3@vector
  00014	8b 4d 08	 mov	 ecx, DWORD PTR ___t$[ebp]
  00017	ff 55 14	 call	 DWORD PTR ___f$[ebp]
  0001a	8b 45 08	 mov	 eax, DWORD PTR ___t$[ebp]
  0001d	03 45 0c	 add	 eax, DWORD PTR ___s$[ebp]
  00020	89 45 08	 mov	 DWORD PTR ___t$[ebp], eax
  00023	eb e4		 jmp	 SHORT $LN2@vector
$LN3@vector:
  00025	5f		 pop	 edi
  00026	5e		 pop	 esi
  00027	5b		 pop	 ebx
  00028	8b e5		 mov	 esp, ebp
  0002a	5d		 pop	 ebp
  0002b	c2 10 00	 ret	 16			; 00000010H
??_H@YGXPAXIHP6EPAX0@Z@Z ENDP				; `vector constructor iterator'
_TEXT	ENDS
PUBLIC	?set@PBMSG_HEAD2@@QAEXPAEEEE@Z			; PBMSG_HEAD2::set
PUBLIC	__$ArrayPad$
PUBLIC	?ExUserDataSend@@YAXH@Z				; ExUserDataSend
EXTRN	?DataSend@@YAHHPAEK@Z:PROC			; DataSend
EXTRN	?gObj@@3PAUOBJECTSTRUCT@@A:DWORD		; gObj
EXTRN	___security_cookie:DWORD
EXTRN	__fltused:DWORD
EXTRN	@__security_check_cookie@4:PROC
EXTRN	__ftol2_sse:PROC
; Function compile flags: /Odtp /ZI
; File d:\projects\exteam6.3\source\gameserver\gameserver\exuser.cpp
_TEXT	SEGMENT
_lpObj$ = -88						; size = 4
_rSend$ = -84						; size = 80
__$ArrayPad$ = -4					; size = 4
_aIndex$ = 8						; size = 4
?ExUserDataSend@@YAXH@Z PROC				; ExUserDataSend

; 28   : {

  00000	55		 push	 ebp
  00001	8b ec		 mov	 ebp, esp
  00003	81 ec 98 00 00
	00		 sub	 esp, 152		; 00000098H
  00009	a1 00 00 00 00	 mov	 eax, DWORD PTR ___security_cookie
  0000e	33 c5		 xor	 eax, ebp
  00010	89 45 fc	 mov	 DWORD PTR __$ArrayPad$[ebp], eax
  00013	53		 push	 ebx
  00014	56		 push	 esi
  00015	57		 push	 edi

; 29   : 	EXINFO_UPDATE rSend;
; 30   : 	LPOBJ lpObj =&gObj[aIndex];

  00016	8b 45 08	 mov	 eax, DWORD PTR _aIndex$[ebp]
  00019	69 c0 38 2b 00
	00		 imul	 eax, 11064		; 00002b38H
  0001f	03 05 00 00 00
	00		 add	 eax, DWORD PTR ?gObj@@3PAUOBJECTSTRUCT@@A ; gObj
  00025	89 45 a8	 mov	 DWORD PTR _lpObj$[ebp], eax

; 31   : 	rSend.h.set((LPBYTE)&rSend, 0xFB, 14, sizeof(rSend));

  00028	6a 50		 push	 80			; 00000050H
  0002a	6a 0e		 push	 14			; 0000000eH
  0002c	68 fb 00 00 00	 push	 251			; 000000fbH
  00031	8d 45 ac	 lea	 eax, DWORD PTR _rSend$[ebp]
  00034	50		 push	 eax
  00035	8d 4d ac	 lea	 ecx, DWORD PTR _rSend$[ebp]
  00038	e8 00 00 00 00	 call	 ?set@PBMSG_HEAD2@@QAEXPAEEEE@Z ; PBMSG_HEAD2::set

; 32   : 	rSend.PremiumTime = lpObj->PremiumTime;

  0003d	8b 45 a8	 mov	 eax, DWORD PTR _lpObj$[ebp]
  00040	8b 88 b8 22 00
	00		 mov	 ecx, DWORD PTR [eax+8888]
  00046	89 4d b0	 mov	 DWORD PTR _rSend$[ebp+4], ecx

; 33   : 	rSend.Chaos = lpObj->ChaosBank;

  00049	8b 45 a8	 mov	 eax, DWORD PTR _lpObj$[ebp]
  0004c	8b 88 e0 27 00
	00		 mov	 ecx, DWORD PTR [eax+10208]
  00052	89 4d b4	 mov	 DWORD PTR _rSend$[ebp+8], ecx

; 34   : 	rSend.Bless = lpObj->BlessBank;

  00055	8b 45 a8	 mov	 eax, DWORD PTR _lpObj$[ebp]
  00058	8b 88 e4 27 00
	00		 mov	 ecx, DWORD PTR [eax+10212]
  0005e	89 4d b8	 mov	 DWORD PTR _rSend$[ebp+12], ecx

; 35   : 	rSend.Soul = lpObj->SoulBank;

  00061	8b 45 a8	 mov	 eax, DWORD PTR _lpObj$[ebp]
  00064	8b 88 e8 27 00
	00		 mov	 ecx, DWORD PTR [eax+10216]
  0006a	89 4d bc	 mov	 DWORD PTR _rSend$[ebp+16], ecx

; 36   : 	rSend.Life = lpObj->LifeBank;

  0006d	8b 45 a8	 mov	 eax, DWORD PTR _lpObj$[ebp]
  00070	8b 88 ec 27 00
	00		 mov	 ecx, DWORD PTR [eax+10220]
  00076	89 4d c0	 mov	 DWORD PTR _rSend$[ebp+20], ecx

; 37   : 	rSend.ExCred = lpObj->ExCred;

  00079	8b 45 a8	 mov	 eax, DWORD PTR _lpObj$[ebp]
  0007c	d9 80 a8 22 00
	00		 fld	 DWORD PTR [eax+8872]
  00082	d9 5d c4	 fstp	 DWORD PTR _rSend$[ebp+24]

; 38   : 	rSend.Zen = lpObj->Zen;

  00085	8b 45 a8	 mov	 eax, DWORD PTR _lpObj$[ebp]
  00088	8b 88 10 28 00
	00		 mov	 ecx, DWORD PTR [eax+10256]
  0008e	89 4d c8	 mov	 DWORD PTR _rSend$[ebp+28], ecx

; 39   : 
; 40   : 	rSend.WCoinC = (int)lpObj->GameShop.WCoinC;

  00091	8b 45 a8	 mov	 eax, DWORD PTR _lpObj$[ebp]
  00094	dd 80 00 23 00
	00		 fld	 QWORD PTR [eax+8960]
  0009a	e8 00 00 00 00	 call	 __ftol2_sse
  0009f	89 45 cc	 mov	 DWORD PTR _rSend$[ebp+32], eax

; 41   : 	rSend.WCoinP = (int)lpObj->GameShop.WCoinP;

  000a2	8b 45 a8	 mov	 eax, DWORD PTR _lpObj$[ebp]
  000a5	dd 80 f8 22 00
	00		 fld	 QWORD PTR [eax+8952]
  000ab	e8 00 00 00 00	 call	 __ftol2_sse
  000b0	89 45 d0	 mov	 DWORD PTR _rSend$[ebp+36], eax

; 42   : 	rSend.WCoinG = (int)lpObj->GameShop.GoblinPoint;

  000b3	8b 45 a8	 mov	 eax, DWORD PTR _lpObj$[ebp]
  000b6	dd 80 08 23 00
	00		 fld	 QWORD PTR [eax+8968]
  000bc	e8 00 00 00 00	 call	 __ftol2_sse
  000c1	89 45 d4	 mov	 DWORD PTR _rSend$[ebp+40], eax

; 43   : 
; 44   : 	rSend.CreateonBank = lpObj->CreateonBank;

  000c4	8b 45 a8	 mov	 eax, DWORD PTR _lpObj$[ebp]
  000c7	8b 88 f0 27 00
	00		 mov	 ecx, DWORD PTR [eax+10224]
  000cd	89 4d d8	 mov	 DWORD PTR _rSend$[ebp+44], ecx

; 45   : 
; 46   : 	rSend.PremiumType = lpObj->PremiumTimeType;

  000d0	8b 45 a8	 mov	 eax, DWORD PTR _lpObj$[ebp]
  000d3	8b 88 bc 22 00
	00		 mov	 ecx, DWORD PTR [eax+8892]
  000d9	89 4d dc	 mov	 DWORD PTR _rSend$[ebp+48], ecx

; 47   : 	rSend.DonateCredit = lpObj->m_iDonateCredit;

  000dc	8b 45 a8	 mov	 eax, DWORD PTR _lpObj$[ebp]
  000df	8b 88 18 2b 00
	00		 mov	 ecx, DWORD PTR [eax+11032]
  000e5	89 4d e0	 mov	 DWORD PTR _rSend$[ebp+52], ecx

; 48   : 
; 49   : 	rSend.GuardianBank = lpObj->GuardianBank;

  000e8	8b 45 a8	 mov	 eax, DWORD PTR _lpObj$[ebp]
  000eb	8b 88 f4 27 00
	00		 mov	 ecx, DWORD PTR [eax+10228]
  000f1	89 4d e4	 mov	 DWORD PTR _rSend$[ebp+56], ecx

; 50   : 	rSend.HarmonyBank = lpObj->HarmonyBank;

  000f4	8b 45 a8	 mov	 eax, DWORD PTR _lpObj$[ebp]
  000f7	8b 88 f8 27 00
	00		 mov	 ecx, DWORD PTR [eax+10232]
  000fd	89 4d e8	 mov	 DWORD PTR _rSend$[ebp+60], ecx

; 51   : 	rSend.LowStoneBank = lpObj->LowStoneBank;

  00100	8b 45 a8	 mov	 eax, DWORD PTR _lpObj$[ebp]
  00103	8b 88 fc 27 00
	00		 mov	 ecx, DWORD PTR [eax+10236]
  00109	89 4d ec	 mov	 DWORD PTR _rSend$[ebp+64], ecx

; 52   : 	rSend.HighStoneBank = lpObj->HighStoneBank;

  0010c	8b 45 a8	 mov	 eax, DWORD PTR _lpObj$[ebp]
  0010f	8b 88 00 28 00
	00		 mov	 ecx, DWORD PTR [eax+10240]
  00115	89 4d f0	 mov	 DWORD PTR _rSend$[ebp+68], ecx

; 53   : 	rSend.GemStoneBank = lpObj->GemStoneBank;

  00118	8b 45 a8	 mov	 eax, DWORD PTR _lpObj$[ebp]
  0011b	8b 88 04 28 00
	00		 mov	 ecx, DWORD PTR [eax+10244]
  00121	89 4d f4	 mov	 DWORD PTR _rSend$[ebp+72], ecx

; 54   : 
; 55   : 	rSend.PCPoint = lpObj->PCPoint;

  00124	8b 45 a8	 mov	 eax, DWORD PTR _lpObj$[ebp]
  00127	8b 88 88 22 00
	00		 mov	 ecx, DWORD PTR [eax+8840]
  0012d	89 4d f8	 mov	 DWORD PTR _rSend$[ebp+76], ecx

; 56   : 
; 57   : 	DataSend(aIndex,(LPBYTE)&rSend,sizeof(rSend));

  00130	6a 50		 push	 80			; 00000050H
  00132	8d 45 ac	 lea	 eax, DWORD PTR _rSend$[ebp]
  00135	50		 push	 eax
  00136	8b 4d 08	 mov	 ecx, DWORD PTR _aIndex$[ebp]
  00139	51		 push	 ecx
  0013a	e8 00 00 00 00	 call	 ?DataSend@@YAHHPAEK@Z	; DataSend
  0013f	83 c4 0c	 add	 esp, 12			; 0000000cH

; 58   : }

  00142	5f		 pop	 edi
  00143	5e		 pop	 esi
  00144	5b		 pop	 ebx
  00145	8b 4d fc	 mov	 ecx, DWORD PTR __$ArrayPad$[ebp]
  00148	33 cd		 xor	 ecx, ebp
  0014a	e8 00 00 00 00	 call	 @__security_check_cookie@4
  0014f	8b e5		 mov	 esp, ebp
  00151	5d		 pop	 ebp
  00152	c3		 ret	 0
?ExUserDataSend@@YAXH@Z ENDP				; ExUserDataSend
; Function compile flags: /Odtp /ZI
; File d:\projects\exteam6.3\source\gameserver\include\prodef.h
_TEXT	ENDS
;	COMDAT ?set@PBMSG_HEAD2@@QAEXPAEEEE@Z
_TEXT	SEGMENT
_this$ = -4						; size = 4
_lpBuf$ = 8						; size = 4
_head$ = 12						; size = 1
_sub$ = 16						; size = 1
_size$ = 20						; size = 1
?set@PBMSG_HEAD2@@QAEXPAEEEE@Z PROC			; PBMSG_HEAD2::set, COMDAT
; _this$ = ecx

; 104  : 	{

  00000	55		 push	 ebp
  00001	8b ec		 mov	 ebp, esp
  00003	83 ec 44	 sub	 esp, 68			; 00000044H
  00006	53		 push	 ebx
  00007	56		 push	 esi
  00008	57		 push	 edi
  00009	89 4d fc	 mov	 DWORD PTR _this$[ebp], ecx

; 105  : 		lpBuf[0] = 0xC1;

  0000c	8b 45 08	 mov	 eax, DWORD PTR _lpBuf$[ebp]
  0000f	c6 00 c1	 mov	 BYTE PTR [eax], 193	; 000000c1H

; 106  : 		lpBuf[1] = size;

  00012	8b 45 08	 mov	 eax, DWORD PTR _lpBuf$[ebp]
  00015	8a 4d 14	 mov	 cl, BYTE PTR _size$[ebp]
  00018	88 48 01	 mov	 BYTE PTR [eax+1], cl

; 107  : 		lpBuf[2] = head;

  0001b	8b 45 08	 mov	 eax, DWORD PTR _lpBuf$[ebp]
  0001e	8a 4d 0c	 mov	 cl, BYTE PTR _head$[ebp]
  00021	88 48 02	 mov	 BYTE PTR [eax+2], cl

; 108  : 		lpBuf[3] = sub;

  00024	8b 45 08	 mov	 eax, DWORD PTR _lpBuf$[ebp]
  00027	8a 4d 10	 mov	 cl, BYTE PTR _sub$[ebp]
  0002a	88 48 03	 mov	 BYTE PTR [eax+3], cl

; 109  : 	};

  0002d	5f		 pop	 edi
  0002e	5e		 pop	 esi
  0002f	5b		 pop	 ebx
  00030	8b e5		 mov	 esp, ebp
  00032	5d		 pop	 ebp
  00033	c2 10 00	 ret	 16			; 00000010H
?set@PBMSG_HEAD2@@QAEXPAEEEE@Z ENDP			; PBMSG_HEAD2::set
_TEXT	ENDS
PUBLIC	__$ArrayPad$
PUBLIC	?ExUserVieweport@@YAXH@Z			; ExUserVieweport
EXTRN	?GetAttr@CMonsterAttr@@QAEPAUMONSTER_ATTRIBUTE@@H@Z:PROC ; CMonsterAttr::GetAttr
EXTRN	?gMAttr@@3VCMonsterAttr@@A:BYTE			; gMAttr
EXTRN	_memcpy:PROC
EXTRN	?CheckUser@CExLicense@@QAE_NH@Z:PROC		; CExLicense::CheckUser
EXTRN	?g_ExLicense@@3VCExLicense@@A:BYTE		; g_ExLicense
EXTRN	?gObjCheckViewport@@YAHHHH@Z:PROC		; gObjCheckViewport
EXTRN	?ExConfig@@3VcExConfigs@@A:BYTE			; ExConfig
EXTRN	__chkstk:PROC
; Function compile flags: /Odtp /ZI
; File d:\projects\exteam6.3\source\gameserver\gameserver\exuser.cpp
_TEXT	SEGMENT
tv298 = -5168						; size = 8
tv288 = -5168						; size = 8
tv296 = -5160						; size = 4
tv286 = -5160						; size = 4
tv69 = -5156						; size = 4
tv293 = -5154						; size = 2
tv283 = -5154						; size = 2
_lpMonsterAttr$234360 = -5088				; size = 4
_Vp$234351 = -5084					; size = 60
_lpTempObj$234344 = -5024				; size = 4
_n$234340 = -5020					; size = 4
_lpObj$ = -5016						; size = 4
_icount$ = -5009					; size = 1
_datasize$ = -5008					; size = 4
_SendBuff$ = -5004					; size = 5000
__$ArrayPad$ = -4					; size = 4
_aIndex$ = 8						; size = 4
?ExUserVieweport@@YAXH@Z PROC				; ExUserVieweport

; 117  : {

  00160	55		 push	 ebp
  00161	8b ec		 mov	 ebp, esp
  00163	b8 30 14 00 00	 mov	 eax, 5168		; 00001430H
  00168	e8 00 00 00 00	 call	 __chkstk
  0016d	a1 00 00 00 00	 mov	 eax, DWORD PTR ___security_cookie
  00172	33 c5		 xor	 eax, ebp
  00174	89 45 fc	 mov	 DWORD PTR __$ArrayPad$[ebp], eax
  00177	53		 push	 ebx
  00178	56		 push	 esi
  00179	57		 push	 edi

; 118  : #ifdef HPBAR_UPDATE
; 119  : 
; 120  : 	if(!ExConfig.ExCustom.EnableHPBar)

  0017a	0f b6 05 0c 00
	00 00		 movzx	 eax, BYTE PTR ?ExConfig@@3VcExConfigs@@A+12
  00181	85 c0		 test	 eax, eax
  00183	75 05		 jne	 SHORT $LN21@ExUserView

; 121  : 	{
; 122  : 		return;

  00185	e9 98 04 00 00	 jmp	 $LN22@ExUserView
$LN21@ExUserView:

; 123  : 	}
; 124  : 
; 125  : 	BYTE SendBuff[5000];
; 126  : 	int datasize = 6;//6

  0018a	c7 85 70 ec ff
	ff 06 00 00 00	 mov	 DWORD PTR _datasize$[ebp], 6

; 127  : 	BYTE icount = 0;

  00194	c6 85 6f ec ff
	ff 00		 mov	 BYTE PTR _icount$[ebp], 0

; 128  : 
; 129  : 	if(OBJMAX_RANGE(aIndex) == 0)

  0019b	83 7d 08 00	 cmp	 DWORD PTR _aIndex$[ebp], 0
  0019f	7d 0c		 jge	 SHORT $LN24@ExUserView
  001a1	c7 85 dc eb ff
	ff 00 00 00 00	 mov	 DWORD PTR tv69[ebp], 0
  001ab	eb 12		 jmp	 SHORT $LN25@ExUserView
$LN24@ExUserView:
  001ad	33 c0		 xor	 eax, eax
  001af	81 7d 08 97 3a
	00 00		 cmp	 DWORD PTR _aIndex$[ebp], 14999 ; 00003a97H
  001b6	0f 9e c0	 setle	 al
  001b9	89 85 dc eb ff
	ff		 mov	 DWORD PTR tv69[ebp], eax
$LN25@ExUserView:
  001bf	83 bd dc eb ff
	ff 00		 cmp	 DWORD PTR tv69[ebp], 0
  001c6	75 05		 jne	 SHORT $LN20@ExUserView

; 130  : 	{
; 131  : 		return;

  001c8	e9 55 04 00 00	 jmp	 $LN22@ExUserView
$LN20@ExUserView:

; 132  : 	}
; 133  : 
; 134  : 	LPOBJ lpObj = &gObj[aIndex];

  001cd	8b 45 08	 mov	 eax, DWORD PTR _aIndex$[ebp]
  001d0	69 c0 38 2b 00
	00		 imul	 eax, 11064		; 00002b38H
  001d6	03 05 00 00 00
	00		 add	 eax, DWORD PTR ?gObj@@3PAUOBJECTSTRUCT@@A ; gObj
  001dc	89 85 68 ec ff
	ff		 mov	 DWORD PTR _lpObj$[ebp], eax

; 135  : 
; 136  : 	if(lpObj->Connected < PLAYER_PLAYING)

  001e2	8b 85 68 ec ff
	ff		 mov	 eax, DWORD PTR _lpObj$[ebp]
  001e8	83 78 04 03	 cmp	 DWORD PTR [eax+4], 3
  001ec	7d 05		 jge	 SHORT $LN19@ExUserView

; 137  : 	{
; 138  : 		return;

  001ee	e9 2f 04 00 00	 jmp	 $LN22@ExUserView
$LN19@ExUserView:

; 139  : 	}
; 140  : 
; 141  : 
; 142  : #if(OFFLINE_MODE == TRUE)
; 143  : 		if(lpObj->m_OfflineMode == true)

  001f3	8b 85 68 ec ff
	ff		 mov	 eax, DWORD PTR _lpObj$[ebp]
  001f9	0f b6 88 d4 28
	00 00		 movzx	 ecx, BYTE PTR [eax+10452]
  00200	83 f9 01	 cmp	 ecx, 1
  00203	75 05		 jne	 SHORT $LN18@ExUserView

; 144  : 		{
; 145  : 			return;

  00205	e9 18 04 00 00	 jmp	 $LN22@ExUserView
$LN18@ExUserView:

; 146  : 		}
; 147  : #endif
; 148  : 
; 149  : 	if(lpObj->OffExp != 0) return;

  0020a	8b 85 68 ec ff
	ff		 mov	 eax, DWORD PTR _lpObj$[ebp]
  00210	83 b8 98 22 00
	00 00		 cmp	 DWORD PTR [eax+8856], 0
  00217	74 05		 je	 SHORT $LN17@ExUserView
  00219	e9 04 04 00 00	 jmp	 $LN22@ExUserView
$LN17@ExUserView:

; 150  : 	if(lpObj->OffTrade != 0) return;

  0021e	8b 85 68 ec ff
	ff		 mov	 eax, DWORD PTR _lpObj$[ebp]
  00224	83 b8 ac 22 00
	00 00		 cmp	 DWORD PTR [eax+8876], 0
  0022b	74 05		 je	 SHORT $LN16@ExUserView
  0022d	e9 f0 03 00 00	 jmp	 $LN22@ExUserView
$LN16@ExUserView:

; 151  : 
; 152  : 
; 153  : 
; 154  : 	//CGExUserHpBar exSend;
; 155  : 	//int SizeSend = 0;
; 156  : 	//memset(&exSend,-1,sizeof(exSend));
; 157  : 	//PHeadSetW((LPBYTE)&exSend, 0xFA, sizeof(exSend));	
; 158  : 	//PHeadSubSetW((LPBYTE)&exSend, 0xFA, 0x01, sizeof(exSend));
; 159  : 	//SizeSend += 4 + 4;
; 160  : 	//int count = 0;
; 161  : 
; 162  : 	//exSend.MaxCount = 0;
; 163  : 
; 164  : 	for(int n = 0; n < OBJMAX; n++)

  00232	c7 85 64 ec ff
	ff 00 00 00 00	 mov	 DWORD PTR _n$234340[ebp], 0
  0023c	eb 0f		 jmp	 SHORT $LN15@ExUserView
$LN14@ExUserView:
  0023e	8b 85 64 ec ff
	ff		 mov	 eax, DWORD PTR _n$234340[ebp]
  00244	83 c0 01	 add	 eax, 1
  00247	89 85 64 ec ff
	ff		 mov	 DWORD PTR _n$234340[ebp], eax
$LN15@ExUserView:
  0024d	81 bd 64 ec ff
	ff 98 3a 00 00	 cmp	 DWORD PTR _n$234340[ebp], 15000 ; 00003a98H
  00257	0f 8d 5f 03 00
	00		 jge	 $LN13@ExUserView

; 165  : 	{
; 166  : 		LPOBJ lpTempObj = &gObj[n];

  0025d	8b 85 64 ec ff
	ff		 mov	 eax, DWORD PTR _n$234340[ebp]
  00263	69 c0 38 2b 00
	00		 imul	 eax, 11064		; 00002b38H
  00269	03 05 00 00 00
	00		 add	 eax, DWORD PTR ?gObj@@3PAUOBJECTSTRUCT@@A ; gObj
  0026f	89 85 60 ec ff
	ff		 mov	 DWORD PTR _lpTempObj$234344[ebp], eax

; 167  : 
; 168  : 		if(lpTempObj->Connected == PLAYER_PLAYING)

  00275	8b 85 60 ec ff
	ff		 mov	 eax, DWORD PTR _lpTempObj$234344[ebp]
  0027b	83 78 04 03	 cmp	 DWORD PTR [eax+4], 3
  0027f	0f 85 32 03 00
	00		 jne	 $LN2@ExUserView

; 169  : 		{
; 170  : 			if(lpTempObj->m_State == 1 || lpTempObj->m_State == 2)

  00285	8b 85 60 ec ff
	ff		 mov	 eax, DWORD PTR _lpTempObj$234344[ebp]
  0028b	83 b8 20 02 00
	00 01		 cmp	 DWORD PTR [eax+544], 1
  00292	74 13		 je	 SHORT $LN10@ExUserView
  00294	8b 85 60 ec ff
	ff		 mov	 eax, DWORD PTR _lpTempObj$234344[ebp]
  0029a	83 b8 20 02 00
	00 02		 cmp	 DWORD PTR [eax+544], 2
  002a1	0f 85 10 03 00
	00		 jne	 $LN2@ExUserView
$LN10@ExUserView:

; 171  : 			{
; 172  : 				if(lpObj->MapNumber == lpTempObj->MapNumber)

  002a7	8b 85 68 ec ff
	ff		 mov	 eax, DWORD PTR _lpObj$[ebp]
  002ad	0f b6 88 49 01
	00 00		 movzx	 ecx, BYTE PTR [eax+329]
  002b4	8b 95 60 ec ff
	ff		 mov	 edx, DWORD PTR _lpTempObj$234344[ebp]
  002ba	0f b6 82 49 01
	00 00		 movzx	 eax, BYTE PTR [edx+329]
  002c1	3b c8		 cmp	 ecx, eax
  002c3	0f 85 ee 02 00
	00		 jne	 $LN2@ExUserView

; 173  : 				{
; 174  : 					if(gObjCheckViewport(aIndex,lpTempObj->X,lpTempObj->Y) == 1)

  002c9	8b 85 60 ec ff
	ff		 mov	 eax, DWORD PTR _lpTempObj$234344[ebp]
  002cf	0f bf 88 46 01
	00 00		 movsx	 ecx, WORD PTR [eax+326]
  002d6	51		 push	 ecx
  002d7	8b 95 60 ec ff
	ff		 mov	 edx, DWORD PTR _lpTempObj$234344[ebp]
  002dd	0f bf 82 44 01
	00 00		 movsx	 eax, WORD PTR [edx+324]
  002e4	50		 push	 eax
  002e5	8b 4d 08	 mov	 ecx, DWORD PTR _aIndex$[ebp]
  002e8	51		 push	 ecx
  002e9	e8 00 00 00 00	 call	 ?gObjCheckViewport@@YAHHHH@Z ; gObjCheckViewport
  002ee	83 c4 0c	 add	 esp, 12			; 0000000cH
  002f1	83 f8 01	 cmp	 eax, 1
  002f4	0f 85 bd 02 00
	00		 jne	 $LN2@ExUserView

; 175  : 					{
; 176  : 						if(lpTempObj->Type != OBJ_MONSTER && lpTempObj->Type != OBJ_USER) continue;

  002fa	8b 85 60 ec ff
	ff		 mov	 eax, DWORD PTR _lpTempObj$234344[ebp]
  00300	0f b7 48 68	 movzx	 ecx, WORD PTR [eax+104]
  00304	83 f9 02	 cmp	 ecx, 2
  00307	74 14		 je	 SHORT $LN7@ExUserView
  00309	8b 85 60 ec ff
	ff		 mov	 eax, DWORD PTR _lpTempObj$234344[ebp]
  0030f	0f b7 48 68	 movzx	 ecx, WORD PTR [eax+104]
  00313	83 f9 01	 cmp	 ecx, 1
  00316	74 05		 je	 SHORT $LN7@ExUserView
  00318	e9 21 ff ff ff	 jmp	 $LN14@ExUserView
$LN7@ExUserView:

; 177  : 
; 178  : 						VieweCharEx Vp;
; 179  : 
; 180  : 						Vp.aIndex = n;

  0031d	66 8b 85 64 ec
	ff ff		 mov	 ax, WORD PTR _n$234340[ebp]
  00324	66 89 85 24 ec
	ff ff		 mov	 WORD PTR _Vp$234351[ebp], ax

; 181  : 						Vp.Life = (DWORD)gObj[n].Life;

  0032b	8b 85 64 ec ff
	ff		 mov	 eax, DWORD PTR _n$234340[ebp]
  00331	69 c0 38 2b 00
	00		 imul	 eax, 11064		; 00002b38H
  00337	8b 0d 00 00 00
	00		 mov	 ecx, DWORD PTR ?gObj@@3PAUOBJECTSTRUCT@@A ; gObj
  0033d	d9 84 01 fc 00
	00 00		 fld	 DWORD PTR [ecx+eax+252]
  00344	d9 bd de eb ff
	ff		 fnstcw	 WORD PTR tv283[ebp]
  0034a	0f b7 85 de eb
	ff ff		 movzx	 eax, WORD PTR tv283[ebp]
  00351	0d 00 0c 00 00	 or	 eax, 3072		; 00000c00H
  00356	89 85 d8 eb ff
	ff		 mov	 DWORD PTR tv286[ebp], eax
  0035c	d9 ad d8 eb ff
	ff		 fldcw	 WORD PTR tv286[ebp]
  00362	df bd d0 eb ff
	ff		 fistp	 QWORD PTR tv288[ebp]
  00368	d9 ad de eb ff
	ff		 fldcw	 WORD PTR tv283[ebp]
  0036e	8b 95 d0 eb ff
	ff		 mov	 edx, DWORD PTR tv288[ebp]
  00374	89 95 28 ec ff
	ff		 mov	 DWORD PTR _Vp$234351[ebp+4], edx

; 182  : 						Vp.MaxLife = (DWORD)gObj[n].MaxLife + gObj[n].AddLife;

  0037a	8b 85 64 ec ff
	ff		 mov	 eax, DWORD PTR _n$234340[ebp]
  00380	69 c0 38 2b 00
	00		 imul	 eax, 11064		; 00002b38H
  00386	8b 0d 00 00 00
	00		 mov	 ecx, DWORD PTR ?gObj@@3PAUOBJECTSTRUCT@@A ; gObj
  0038c	d9 84 01 00 01
	00 00		 fld	 DWORD PTR [ecx+eax+256]
  00393	d9 bd de eb ff
	ff		 fnstcw	 WORD PTR tv293[ebp]
  00399	0f b7 85 de eb
	ff ff		 movzx	 eax, WORD PTR tv293[ebp]
  003a0	0d 00 0c 00 00	 or	 eax, 3072		; 00000c00H
  003a5	89 85 d8 eb ff
	ff		 mov	 DWORD PTR tv296[ebp], eax
  003ab	d9 ad d8 eb ff
	ff		 fldcw	 WORD PTR tv296[ebp]
  003b1	df bd d0 eb ff
	ff		 fistp	 QWORD PTR tv298[ebp]
  003b7	d9 ad de eb ff
	ff		 fldcw	 WORD PTR tv293[ebp]
  003bd	8b 95 d0 eb ff
	ff		 mov	 edx, DWORD PTR tv298[ebp]
  003c3	8b 85 64 ec ff
	ff		 mov	 eax, DWORD PTR _n$234340[ebp]
  003c9	69 c0 38 2b 00
	00		 imul	 eax, 11064		; 00002b38H
  003cf	8b 0d 00 00 00
	00		 mov	 ecx, DWORD PTR ?gObj@@3PAUOBJECTSTRUCT@@A ; gObj
  003d5	03 94 01 4c 01
	00 00		 add	 edx, DWORD PTR [ecx+eax+332]
  003dc	89 95 2c ec ff
	ff		 mov	 DWORD PTR _Vp$234351[ebp+8], edx

; 183  : 						Vp.SD = (DWORD)gObj[n].iShield;

  003e2	8b 85 64 ec ff
	ff		 mov	 eax, DWORD PTR _n$234340[ebp]
  003e8	69 c0 38 2b 00
	00		 imul	 eax, 11064		; 00002b38H
  003ee	8b 0d 00 00 00
	00		 mov	 ecx, DWORD PTR ?gObj@@3PAUOBJECTSTRUCT@@A ; gObj
  003f4	8b 94 01 54 01
	00 00		 mov	 edx, DWORD PTR [ecx+eax+340]
  003fb	89 95 30 ec ff
	ff		 mov	 DWORD PTR _Vp$234351[ebp+12], edx

; 184  : 						Vp.MaxSD = (DWORD)gObj[n].iMaxShield + gObj[n].iAddShield;

  00401	8b 85 64 ec ff
	ff		 mov	 eax, DWORD PTR _n$234340[ebp]
  00407	69 c0 38 2b 00
	00		 imul	 eax, 11064		; 00002b38H
  0040d	8b 8d 64 ec ff
	ff		 mov	 ecx, DWORD PTR _n$234340[ebp]
  00413	69 c9 38 2b 00
	00		 imul	 ecx, 11064		; 00002b38H
  00419	8b 15 00 00 00
	00		 mov	 edx, DWORD PTR ?gObj@@3PAUOBJECTSTRUCT@@A ; gObj
  0041f	8b 84 02 58 01
	00 00		 mov	 eax, DWORD PTR [edx+eax+344]
  00426	8b 15 00 00 00
	00		 mov	 edx, DWORD PTR ?gObj@@3PAUOBJECTSTRUCT@@A ; gObj
  0042c	03 84 0a 5c 01
	00 00		 add	 eax, DWORD PTR [edx+ecx+348]
  00433	89 85 34 ec ff
	ff		 mov	 DWORD PTR _Vp$234351[ebp+16], eax

; 185  : 						Vp.Level = lpTempObj->Level;

  00439	8b 85 60 ec ff
	ff		 mov	 eax, DWORD PTR _lpTempObj$234344[ebp]
  0043f	66 8b 88 be 00
	00 00		 mov	 cx, WORD PTR [eax+190]
  00446	66 89 8d 38 ec
	ff ff		 mov	 WORD PTR _Vp$234351[ebp+20], cx

; 186  : 						Vp.Reset = lpTempObj->Reset;

  0044d	8b 85 60 ec ff
	ff		 mov	 eax, DWORD PTR _lpTempObj$234344[ebp]
  00453	66 8b 88 90 22
	00 00		 mov	 cx, WORD PTR [eax+8848]
  0045a	66 89 8d 3a ec
	ff ff		 mov	 WORD PTR _Vp$234351[ebp+22], cx

; 187  : 						Vp.GrandReset = lpTempObj->GReset;

  00461	8b 85 60 ec ff
	ff		 mov	 eax, DWORD PTR _lpTempObj$234344[ebp]
  00467	66 8b 88 94 22
	00 00		 mov	 cx, WORD PTR [eax+8852]
  0046e	66 89 8d 3c ec
	ff ff		 mov	 WORD PTR _Vp$234351[ebp+24], cx

; 188  : 						Vp.Defence = lpTempObj->m_Defense;		

  00475	8b 85 60 ec ff
	ff		 mov	 eax, DWORD PTR _lpTempObj$234344[ebp]
  0047b	66 8b 88 94 04
	00 00		 mov	 cx, WORD PTR [eax+1172]
  00482	66 89 8d 3e ec
	ff ff		 mov	 WORD PTR _Vp$234351[ebp+26], cx

; 189  : 						Vp.Class = lpTempObj->Class;	

  00489	8b 85 60 ec ff
	ff		 mov	 eax, DWORD PTR _lpTempObj$234344[ebp]
  0048f	66 8b 88 b8 00
	00 00		 mov	 cx, WORD PTR [eax+184]
  00496	66 89 8d 40 ec
	ff ff		 mov	 WORD PTR _Vp$234351[ebp+28], cx

; 190  : 						Vp.AutoParty = lpTempObj->AutoPt;	

  0049d	8b 85 60 ec ff
	ff		 mov	 eax, DWORD PTR _lpTempObj$234344[ebp]
  004a3	66 8b 88 0c 28
	00 00		 mov	 cx, WORD PTR [eax+10252]
  004aa	66 89 8d 42 ec
	ff ff		 mov	 WORD PTR _Vp$234351[ebp+30], cx

; 191  : #ifdef PREM_TYPE
; 192  : 						if(g_ExLicense.CheckUser(eExUB::ulasevich) || g_ExLicense.CheckUser(eExUB::ulasevich2))

  004b1	6a 17		 push	 23			; 00000017H
  004b3	b9 00 00 00 00	 mov	 ecx, OFFSET ?g_ExLicense@@3VCExLicense@@A ; g_ExLicense
  004b8	e8 00 00 00 00	 call	 ?CheckUser@CExLicense@@QAE_NH@Z ; CExLicense::CheckUser
  004bd	0f b6 c0	 movzx	 eax, al
  004c0	85 c0		 test	 eax, eax
  004c2	75 13		 jne	 SHORT $LN5@ExUserView
  004c4	6a 24		 push	 36			; 00000024H
  004c6	b9 00 00 00 00	 mov	 ecx, OFFSET ?g_ExLicense@@3VCExLicense@@A ; g_ExLicense
  004cb	e8 00 00 00 00	 call	 ?CheckUser@CExLicense@@QAE_NH@Z ; CExLicense::CheckUser
  004d0	0f b6 c0	 movzx	 eax, al
  004d3	85 c0		 test	 eax, eax
  004d5	74 12		 je	 SHORT $LN6@ExUserView
$LN5@ExUserView:

; 193  : 						{
; 194  : 							Vp.PremType = lpTempObj->PremiumTimeType;

  004d7	8b 85 60 ec ff
	ff		 mov	 eax, DWORD PTR _lpTempObj$234344[ebp]
  004dd	8b 88 bc 22 00
	00		 mov	 ecx, DWORD PTR [eax+8892]
  004e3	89 8d 44 ec ff
	ff		 mov	 DWORD PTR _Vp$234351[ebp+32], ecx
$LN6@ExUserView:

; 195  : 						}
; 196  : #endif
; 197  : #if(EVENT_TEAM_VS_TEAM)
; 198  : 						Vp.TvTTeam = lpTempObj->m_TvTTeam;

  004e9	8b 85 60 ec ff
	ff		 mov	 eax, DWORD PTR _lpTempObj$234344[ebp]
  004ef	8a 88 14 29 00
	00		 mov	 cl, BYTE PTR [eax+10516]
  004f5	88 8d 48 ec ff
	ff		 mov	 BYTE PTR _Vp$234351[ebp+36], cl

; 199  : #endif
; 200  : #ifdef VIEW_MONSTER
; 201  : 						if(lpTempObj->Type == OBJ_USER)

  004fb	8b 85 60 ec ff
	ff		 mov	 eax, DWORD PTR _lpTempObj$234344[ebp]
  00501	0f b7 48 68	 movzx	 ecx, WORD PTR [eax+104]
  00505	83 f9 01	 cmp	 ecx, 1
  00508	75 2a		 jne	 SHORT $LN4@ExUserView

; 202  : 						{
; 203  : 							memcpy(Vp.Name, gObj[n].Name, sizeof(Vp.Name));

  0050a	6a 14		 push	 20			; 00000014H
  0050c	8b 85 64 ec ff
	ff		 mov	 eax, DWORD PTR _n$234340[ebp]
  00512	69 c0 38 2b 00
	00		 imul	 eax, 11064		; 00002b38H
  00518	8b 0d 00 00 00
	00		 mov	 ecx, DWORD PTR ?gObj@@3PAUOBJECTSTRUCT@@A ; gObj
  0051e	8d 54 01 77	 lea	 edx, DWORD PTR [ecx+eax+119]
  00522	52		 push	 edx
  00523	8d 85 49 ec ff
	ff		 lea	 eax, DWORD PTR _Vp$234351[ebp+37]
  00529	50		 push	 eax
  0052a	e8 00 00 00 00	 call	 _memcpy
  0052f	83 c4 0c	 add	 esp, 12			; 0000000cH

; 204  : 						}
; 205  : 						else

  00532	eb 39		 jmp	 SHORT $LN3@ExUserView
$LN4@ExUserView:

; 206  : 						{
; 207  : 							LPMONSTER_ATTRIBUTE lpMonsterAttr = gMAttr.GetAttr(lpTempObj->Class);

  00534	8b 85 60 ec ff
	ff		 mov	 eax, DWORD PTR _lpTempObj$234344[ebp]
  0053a	0f b7 88 b8 00
	00 00		 movzx	 ecx, WORD PTR [eax+184]
  00541	51		 push	 ecx
  00542	b9 00 00 00 00	 mov	 ecx, OFFSET ?gMAttr@@3VCMonsterAttr@@A ; gMAttr
  00547	e8 00 00 00 00	 call	 ?GetAttr@CMonsterAttr@@QAEPAUMONSTER_ATTRIBUTE@@H@Z ; CMonsterAttr::GetAttr
  0054c	89 85 20 ec ff
	ff		 mov	 DWORD PTR _lpMonsterAttr$234360[ebp], eax

; 208  : 							memcpy(Vp.Name, lpMonsterAttr->m_Name, sizeof(Vp.Name));

  00552	6a 14		 push	 20			; 00000014H
  00554	8b 85 20 ec ff
	ff		 mov	 eax, DWORD PTR _lpMonsterAttr$234360[ebp]
  0055a	83 c0 08	 add	 eax, 8
  0055d	50		 push	 eax
  0055e	8d 8d 49 ec ff
	ff		 lea	 ecx, DWORD PTR _Vp$234351[ebp+37]
  00564	51		 push	 ecx
  00565	e8 00 00 00 00	 call	 _memcpy
  0056a	83 c4 0c	 add	 esp, 12			; 0000000cH
$LN3@ExUserView:

; 209  : 						}				
; 210  : #endif
; 211  : 						memcpy(&SendBuff[datasize],&Vp,sizeof(Vp));

  0056d	6a 3c		 push	 60			; 0000003cH
  0056f	8d 85 24 ec ff
	ff		 lea	 eax, DWORD PTR _Vp$234351[ebp]
  00575	50		 push	 eax
  00576	8b 8d 70 ec ff
	ff		 mov	 ecx, DWORD PTR _datasize$[ebp]
  0057c	8d 94 0d 74 ec
	ff ff		 lea	 edx, DWORD PTR _SendBuff$[ebp+ecx]
  00583	52		 push	 edx
  00584	e8 00 00 00 00	 call	 _memcpy
  00589	83 c4 0c	 add	 esp, 12			; 0000000cH

; 212  : 						datasize += sizeof(Vp);

  0058c	8b 85 70 ec ff
	ff		 mov	 eax, DWORD PTR _datasize$[ebp]
  00592	83 c0 3c	 add	 eax, 60			; 0000003cH
  00595	89 85 70 ec ff
	ff		 mov	 DWORD PTR _datasize$[ebp], eax

; 213  : 
; 214  : 						icount++;

  0059b	8a 85 6f ec ff
	ff		 mov	 al, BYTE PTR _icount$[ebp]
  005a1	04 01		 add	 al, 1
  005a3	88 85 6f ec ff
	ff		 mov	 BYTE PTR _icount$[ebp], al

; 215  : #ifdef VIEW_MONSTER
; 216  : 						if(icount == 75-1) break;

  005a9	0f b6 85 6f ec
	ff ff		 movzx	 eax, BYTE PTR _icount$[ebp]
  005b0	83 f8 4a	 cmp	 eax, 74			; 0000004aH
  005b3	75 02		 jne	 SHORT $LN2@ExUserView
  005b5	eb 05		 jmp	 SHORT $LN13@ExUserView
$LN2@ExUserView:

; 217  : #else
; 218  : 						if(icount == 75-1) break;
; 219  : #endif
; 220  : 					}
; 221  : 				}
; 222  : 			}
; 223  : 		}
; 224  : 	}

  005b7	e9 82 fc ff ff	 jmp	 $LN14@ExUserView
$LN13@ExUserView:

; 225  : 
; 226  : 	//SendBuff[0]=0xC2;	// packet header
; 227  : 	//SendBuff[1]=SET_NUMBERH(datasize);
; 228  : 	//SendBuff[2]=SET_NUMBERL(datasize);
; 229  : 	//SendBuff[3]=0xFA;
; 230  : 	//SendBuff[4]=0x01;
; 231  : 	//SendBuff[5]=count;
; 232  : 
; 233  : 	if(icount > 0)

  005bc	0f b6 85 6f ec
	ff ff		 movzx	 eax, BYTE PTR _icount$[ebp]
  005c3	85 c0		 test	 eax, eax
  005c5	7e 5b		 jle	 SHORT $LN1@ExUserView

; 234  : 	{
; 235  : 		//EX_USER_COUNT pCount;
; 236  : 		//PHeadSubSetW((LPBYTE)&pCount, 0xFA, 0x01, sizeof(datasize));
; 237  : 		//pCount.count = icount;
; 238  : 		//memcpy(SendBuff,&pCount,sizeof(pCount));
; 239  : 
; 240  : 		SendBuff[0]=0xC2;	// packet header

  005c7	c6 85 74 ec ff
	ff c2		 mov	 BYTE PTR _SendBuff$[ebp], 194 ; 000000c2H

; 241  : 		SendBuff[1]=SET_NUMBERH(datasize);

  005ce	8b 85 70 ec ff
	ff		 mov	 eax, DWORD PTR _datasize$[ebp]
  005d4	c1 e8 08	 shr	 eax, 8
  005d7	88 85 75 ec ff
	ff		 mov	 BYTE PTR _SendBuff$[ebp+1], al

; 242  : 		SendBuff[2]=SET_NUMBERL(datasize);

  005dd	8b 85 70 ec ff
	ff		 mov	 eax, DWORD PTR _datasize$[ebp]
  005e3	25 ff 00 00 00	 and	 eax, 255		; 000000ffH
  005e8	88 85 76 ec ff
	ff		 mov	 BYTE PTR _SendBuff$[ebp+2], al

; 243  : 		SendBuff[3]=0xFA;

  005ee	c6 85 77 ec ff
	ff fa		 mov	 BYTE PTR _SendBuff$[ebp+3], 250 ; 000000faH

; 244  : 		SendBuff[4]=0x01;

  005f5	c6 85 78 ec ff
	ff 01		 mov	 BYTE PTR _SendBuff$[ebp+4], 1

; 245  : 		SendBuff[5]=icount;

  005fc	8a 85 6f ec ff
	ff		 mov	 al, BYTE PTR _icount$[ebp]
  00602	88 85 79 ec ff
	ff		 mov	 BYTE PTR _SendBuff$[ebp+5], al

; 246  : 
; 247  : 		//LogAddC(2,"datasize: %d",datasize);
; 248  : 
; 249  : 		DataSend(aIndex,SendBuff,datasize);

  00608	8b 85 70 ec ff
	ff		 mov	 eax, DWORD PTR _datasize$[ebp]
  0060e	50		 push	 eax
  0060f	8d 8d 74 ec ff
	ff		 lea	 ecx, DWORD PTR _SendBuff$[ebp]
  00615	51		 push	 ecx
  00616	8b 55 08	 mov	 edx, DWORD PTR _aIndex$[ebp]
  00619	52		 push	 edx
  0061a	e8 00 00 00 00	 call	 ?DataSend@@YAHHPAEK@Z	; DataSend
  0061f	83 c4 0c	 add	 esp, 12			; 0000000cH
$LN1@ExUserView:
$LN22@ExUserView:

; 250  : 	}
; 251  : 
; 252  : #else
; 253  : 
; 254  : 	if(OBJMAX_RANGE(aIndex) == 0)
; 255  : 	{
; 256  : 		return;
; 257  : 	}
; 258  : 
; 259  : 	LPOBJ lpObj = &gObj[aIndex];
; 260  : 
; 261  : 	if(lpObj->Connected < PLAYER_PLAYING)
; 262  : 	{
; 263  : 		return;
; 264  : 	}
; 265  : 
; 266  : 	if(lpObj->OffExp != 0) return;
; 267  : 	if(lpObj->OffTrade != 0) return;
; 268  : 
; 269  : 	CGExUserHpBar exSend;
; 270  : 	//int SizeSend = 0;
; 271  : 	memset(&exSend,-1,sizeof(exSend));
; 272  : 	//PHeadSetW((LPBYTE)&exSend, 0xFA, sizeof(exSend));	
; 273  : 	PHeadSubSetW((LPBYTE)&exSend, 0xFA, 0x01, sizeof(exSend));
; 274  : 	//SizeSend += 4 + 4;
; 275  : 	int count = 0;
; 276  : 
; 277  : 	//exSend.MaxCount = 0;
; 278  : 
; 279  : 	for(int n = 0; n < OBJMAX; n++)
; 280  : 	{
; 281  : 		LPOBJ lpTempObj = &gObj[n];
; 282  : 
; 283  : 		if(lpTempObj->Connected == PLAYER_PLAYING)
; 284  : 		{
; 285  : 			if(lpTempObj->m_State == 1 || lpTempObj->m_State == 2)
; 286  : 			{
; 287  : 				if(lpObj->MapNumber == lpTempObj->MapNumber)
; 288  : 				{
; 289  : 					if(gObjCheckViewport(aIndex,lpTempObj->X,lpTempObj->Y) == 1)
; 290  : 					{
; 291  : 						if(lpTempObj->Type != OBJ_MONSTER && lpTempObj->Type != OBJ_USER) continue;
; 292  : 
; 293  : 						exSend.Vp[count].aIndex = n;
; 294  : 						exSend.Vp[count].Life = (DWORD)gObj[n].Life;
; 295  : 						exSend.Vp[count].MaxLife = (DWORD)gObj[n].MaxLife + gObj[n].AddLife;
; 296  : 						exSend.Vp[count].SD = (DWORD)gObj[n].iShield;
; 297  : 						exSend.Vp[count].MaxSD = (DWORD)gObj[n].iMaxShield + gObj[n].iAddShield;
; 298  : 						exSend.Vp[count].Level = lpTempObj->Level;
; 299  : 						exSend.Vp[count].Reset = lpTempObj->Reset;
; 300  : 						exSend.Vp[count].GrandReset = lpTempObj->GReset;
; 301  : 						exSend.Vp[count].Defence = lpTempObj->m_Defense;		
; 302  : 						exSend.Vp[count].Class = lpTempObj->Class;	
; 303  : 						exSend.Vp[count].AutoParty = lpTempObj->AutoPt;	
; 304  : 
; 305  : 
; 306  : #ifdef VIEW_MONSTER
; 307  : 							strcpy(exSend.Vp[count].Name,gObj[n].Name);
; 308  : 							//lpMonsterAttr = gMAttr.GetAttr(MonsterClass);
; 309  : #endif
; 310  : 						count++;
; 311  : 
; 312  : 						//exSend.MaxCount++;
; 313  : 
; 314  : 						//SizeSend += 30;
; 315  : #ifdef VIEW_MONSTER
; 316  : 						if(count == 75-1) break;
; 317  : #else
; 318  : 						if(count == 75-1) break;
; 319  : #endif
; 320  : 					}
; 321  : 				}
; 322  : 			}
; 323  : 		}
; 324  : 	}
; 325  : 
; 326  : 	//LogAddC(2,"OldSizeSend: %d | NewSizeSend: %d",sizeof(exSend),SizeSend);
; 327  : 
; 328  : 	//PHeadSubSetW((LPBYTE)&exSend, 0xFA, 0x01, SizeSend);
; 329  : 	DataSend(aIndex,(LPBYTE)&exSend,sizeof(exSend));
; 330  : 	//DataSend(aIndex,(LPBYTE)&exSend,SizeSend);
; 331  : #endif
; 332  : }

  00622	5f		 pop	 edi
  00623	5e		 pop	 esi
  00624	5b		 pop	 ebx
  00625	8b 4d fc	 mov	 ecx, DWORD PTR __$ArrayPad$[ebp]
  00628	33 cd		 xor	 ecx, ebp
  0062a	e8 00 00 00 00	 call	 @__security_check_cookie@4
  0062f	8b e5		 mov	 esp, ebp
  00631	5d		 pop	 ebp
  00632	c3		 ret	 0
?ExUserVieweport@@YAXH@Z ENDP				; ExUserVieweport
_TEXT	ENDS
PUBLIC	__$ArrayPad$
PUBLIC	?ResetSystemGC_CharUpdate@@YAXPAUOBJECTSTRUCT@@@Z ; ResetSystemGC_CharUpdate
; Function compile flags: /Odtp /ZI
_TEXT	SEGMENT
_pSend$ = -40						; size = 36
__$ArrayPad$ = -4					; size = 4
_lpUser$ = 8						; size = 4
?ResetSystemGC_CharUpdate@@YAXPAUOBJECTSTRUCT@@@Z PROC	; ResetSystemGC_CharUpdate

; 354  : {

  00640	55		 push	 ebp
  00641	8b ec		 mov	 ebp, esp
  00643	83 ec 68	 sub	 esp, 104		; 00000068H
  00646	a1 00 00 00 00	 mov	 eax, DWORD PTR ___security_cookie
  0064b	33 c5		 xor	 eax, ebp
  0064d	89 45 fc	 mov	 DWORD PTR __$ArrayPad$[ebp], eax
  00650	53		 push	 ebx
  00651	56		 push	 esi
  00652	57		 push	 edi

; 355  : 	GC_RESET_CHAR_UPDATE pSend;
; 356  : 
; 357  : 	pSend.h.set((LPBYTE)&pSend, 0xFB, 0x05, sizeof(pSend));

  00653	6a 24		 push	 36			; 00000024H
  00655	6a 05		 push	 5
  00657	68 fb 00 00 00	 push	 251			; 000000fbH
  0065c	8d 45 d8	 lea	 eax, DWORD PTR _pSend$[ebp]
  0065f	50		 push	 eax
  00660	8d 4d d8	 lea	 ecx, DWORD PTR _pSend$[ebp]
  00663	e8 00 00 00 00	 call	 ?set@PBMSG_HEAD2@@QAEXPAEEEE@Z ; PBMSG_HEAD2::set

; 358  : 
; 359  : 	pSend.Level = lpUser->Level;

  00668	8b 45 08	 mov	 eax, DWORD PTR _lpUser$[ebp]
  0066b	66 8b 88 be 00
	00 00		 mov	 cx, WORD PTR [eax+190]
  00672	66 89 4d dc	 mov	 WORD PTR _pSend$[ebp+4], cx

; 360  : 	pSend.Exp = lpUser->Experience;

  00676	8b 45 08	 mov	 eax, DWORD PTR _lpUser$[ebp]
  00679	8b 88 c8 00 00
	00		 mov	 ecx, DWORD PTR [eax+200]
  0067f	89 4d e0	 mov	 DWORD PTR _pSend$[ebp+8], ecx

; 361  : 	pSend.MaxExp = lpUser->NextExp;

  00682	8b 45 08	 mov	 eax, DWORD PTR _lpUser$[ebp]
  00685	8b 88 cc 00 00
	00		 mov	 ecx, DWORD PTR [eax+204]
  0068b	89 4d e4	 mov	 DWORD PTR _pSend$[ebp+12], ecx

; 362  : 	pSend.Str = lpUser->Strength;

  0068e	8b 45 08	 mov	 eax, DWORD PTR _lpUser$[ebp]
  00691	66 8b 88 f4 00
	00 00		 mov	 cx, WORD PTR [eax+244]
  00698	66 89 4d e8	 mov	 WORD PTR _pSend$[ebp+16], cx

; 363  : 	pSend.Agi = lpUser->Dexterity;

  0069c	8b 45 08	 mov	 eax, DWORD PTR _lpUser$[ebp]
  0069f	66 8b 88 f6 00
	00 00		 mov	 cx, WORD PTR [eax+246]
  006a6	66 89 4d ea	 mov	 WORD PTR _pSend$[ebp+18], cx

; 364  : 	pSend.Vit = lpUser->Vitality;

  006aa	8b 45 08	 mov	 eax, DWORD PTR _lpUser$[ebp]
  006ad	66 8b 88 f8 00
	00 00		 mov	 cx, WORD PTR [eax+248]
  006b4	66 89 4d ec	 mov	 WORD PTR _pSend$[ebp+20], cx

; 365  : 	pSend.Ene = lpUser->Energy;

  006b8	8b 45 08	 mov	 eax, DWORD PTR _lpUser$[ebp]
  006bb	66 8b 88 fa 00
	00 00		 mov	 cx, WORD PTR [eax+250]
  006c2	66 89 4d ee	 mov	 WORD PTR _pSend$[ebp+22], cx

; 366  : 	pSend.Cmd = lpUser->Leadership;

  006c6	8b 45 08	 mov	 eax, DWORD PTR _lpUser$[ebp]
  006c9	66 8b 88 18 01
	00 00		 mov	 cx, WORD PTR [eax+280]
  006d0	66 89 4d f0	 mov	 WORD PTR _pSend$[ebp+24], cx

; 367  : 	pSend.UpPoint = lpUser->LevelUpPoint;

  006d4	8b 45 08	 mov	 eax, DWORD PTR _lpUser$[ebp]
  006d7	8b 88 c0 00 00
	00		 mov	 ecx, DWORD PTR [eax+192]
  006dd	89 4d f4	 mov	 DWORD PTR _pSend$[ebp+28], ecx

; 368  : 	pSend.Reset = lpUser->Reset;

  006e0	8b 45 08	 mov	 eax, DWORD PTR _lpUser$[ebp]
  006e3	66 8b 88 90 22
	00 00		 mov	 cx, WORD PTR [eax+8848]
  006ea	66 89 4d f8	 mov	 WORD PTR _pSend$[ebp+32], cx

; 369  : 	pSend.Grand = lpUser->GReset;

  006ee	8b 45 08	 mov	 eax, DWORD PTR _lpUser$[ebp]
  006f1	66 8b 88 94 22
	00 00		 mov	 cx, WORD PTR [eax+8852]
  006f8	66 89 4d fa	 mov	 WORD PTR _pSend$[ebp+34], cx

; 370  : 
; 371  : 	DataSend(lpUser->m_Index, (LPBYTE)&pSend, pSend.h.size);

  006fc	0f b6 45 d9	 movzx	 eax, BYTE PTR _pSend$[ebp+1]
  00700	50		 push	 eax
  00701	8d 4d d8	 lea	 ecx, DWORD PTR _pSend$[ebp]
  00704	51		 push	 ecx
  00705	8b 55 08	 mov	 edx, DWORD PTR _lpUser$[ebp]
  00708	8b 02		 mov	 eax, DWORD PTR [edx]
  0070a	50		 push	 eax
  0070b	e8 00 00 00 00	 call	 ?DataSend@@YAHHPAEK@Z	; DataSend
  00710	83 c4 0c	 add	 esp, 12			; 0000000cH

; 372  : }

  00713	5f		 pop	 edi
  00714	5e		 pop	 esi
  00715	5b		 pop	 ebx
  00716	8b 4d fc	 mov	 ecx, DWORD PTR __$ArrayPad$[ebp]
  00719	33 cd		 xor	 ecx, ebp
  0071b	e8 00 00 00 00	 call	 @__security_check_cookie@4
  00720	8b e5		 mov	 esp, ebp
  00722	5d		 pop	 ebp
  00723	c3		 ret	 0
?ResetSystemGC_CharUpdate@@YAXPAUOBJECTSTRUCT@@@Z ENDP	; ResetSystemGC_CharUpdate
_TEXT	ENDS
PUBLIC	??_C@_0O@CKAEPJAF@error?5?3?5?$CFs?5?$CFd?$AA@	; `string'
PUBLIC	??_C@_0DO@JCDPNHJI@d?3?2projects?2exteam6?43?2source?2gam@ ; `string'
PUBLIC	?__LINE__Var@?1??ExUserInSafeZone@@YA_NH@Z@4JA	; `ExUserInSafeZone'::`2'::__LINE__Var
PUBLIC	?ExUserInSafeZone@@YA_NH@Z			; ExUserInSafeZone
EXTRN	?GetAttr@MapClass@@QAEEHH@Z:PROC		; MapClass::GetAttr
EXTRN	?MapC@@3PAVMapClass@@A:BYTE			; MapC
EXTRN	?LogAdd@@3P6AXPADZZA:DWORD			; LogAdd
;	COMDAT ??_C@_0O@CKAEPJAF@error?5?3?5?$CFs?5?$CFd?$AA@
CONST	SEGMENT
??_C@_0O@CKAEPJAF@error?5?3?5?$CFs?5?$CFd?$AA@ DB 'error : %s %d', 00H ; `string'
CONST	ENDS
;	COMDAT ??_C@_0DO@JCDPNHJI@d?3?2projects?2exteam6?43?2source?2gam@
CONST	SEGMENT
??_C@_0DO@JCDPNHJI@d?3?2projects?2exteam6?43?2source?2gam@ DB 'd:\project'
	DB	's\exteam6.3\source\gameserver\gameserver\exuser.cpp', 00H ; `string'
CONST	ENDS
;	COMDAT ?__LINE__Var@?1??ExUserInSafeZone@@YA_NH@Z@4JA
_DATA	SEGMENT
?__LINE__Var@?1??ExUserInSafeZone@@YA_NH@Z@4JA DD 0177H	; `ExUserInSafeZone'::`2'::__LINE__Var
; Function compile flags: /Odtp /ZI
_DATA	ENDS
_TEXT	SEGMENT
tv82 = -80						; size = 4
tv67 = -80						; size = 4
_attr$ = -9						; size = 1
_map$ = -8						; size = 4
_lpUser$ = -4						; size = 4
_aIndex$ = 8						; size = 4
?ExUserInSafeZone@@YA_NH@Z PROC				; ExUserInSafeZone

; 375  : {

  00730	55		 push	 ebp
  00731	8b ec		 mov	 ebp, esp
  00733	83 ec 50	 sub	 esp, 80			; 00000050H
  00736	53		 push	 ebx
  00737	56		 push	 esi
  00738	57		 push	 edi

; 376  : 	if ( OBJMAX_RANGE(aIndex) == FALSE )

  00739	83 7d 08 00	 cmp	 DWORD PTR _aIndex$[ebp], 0
  0073d	7d 09		 jge	 SHORT $LN7@ExUserInSa
  0073f	c7 45 b0 00 00
	00 00		 mov	 DWORD PTR tv67[ebp], 0
  00746	eb 0f		 jmp	 SHORT $LN8@ExUserInSa
$LN7@ExUserInSa:
  00748	33 c0		 xor	 eax, eax
  0074a	81 7d 08 97 3a
	00 00		 cmp	 DWORD PTR _aIndex$[ebp], 14999 ; 00003a97H
  00751	0f 9e c0	 setle	 al
  00754	89 45 b0	 mov	 DWORD PTR tv67[ebp], eax
$LN8@ExUserInSa:
  00757	83 7d b0 00	 cmp	 DWORD PTR tv67[ebp], 0
  0075b	75 23		 jne	 SHORT $LN4@ExUserInSa

; 377  : 	{
; 378  : 		LogAdd("error : %s %d", __FILE__, __LINE__ );

  0075d	a1 00 00 00 00	 mov	 eax, DWORD PTR ?__LINE__Var@?1??ExUserInSafeZone@@YA_NH@Z@4JA
  00762	83 c0 03	 add	 eax, 3
  00765	50		 push	 eax
  00766	68 00 00 00 00	 push	 OFFSET ??_C@_0DO@JCDPNHJI@d?3?2projects?2exteam6?43?2source?2gam@
  0076b	68 00 00 00 00	 push	 OFFSET ??_C@_0O@CKAEPJAF@error?5?3?5?$CFs?5?$CFd?$AA@
  00770	ff 15 00 00 00
	00		 call	 DWORD PTR ?LogAdd@@3P6AXPADZZA ; LogAdd
  00776	83 c4 0c	 add	 esp, 12			; 0000000cH

; 379  : 		return false;

  00779	32 c0		 xor	 al, al
  0077b	e9 8d 00 00 00	 jmp	 $LN5@ExUserInSa
$LN4@ExUserInSa:

; 380  : 	}
; 381  : 
; 382  : 	LPOBJ lpUser = &gObj[aIndex];

  00780	8b 45 08	 mov	 eax, DWORD PTR _aIndex$[ebp]
  00783	69 c0 38 2b 00
	00		 imul	 eax, 11064		; 00002b38H
  00789	03 05 00 00 00
	00		 add	 eax, DWORD PTR ?gObj@@3PAUOBJECTSTRUCT@@A ; gObj
  0078f	89 45 fc	 mov	 DWORD PTR _lpUser$[ebp], eax

; 383  : 
; 384  : 	if(lpUser->Connected < PLAYER_PLAYING)

  00792	8b 45 fc	 mov	 eax, DWORD PTR _lpUser$[ebp]
  00795	83 78 04 03	 cmp	 DWORD PTR [eax+4], 3
  00799	7d 04		 jge	 SHORT $LN3@ExUserInSa

; 385  : 	{
; 386  : 		return false;

  0079b	32 c0		 xor	 al, al
  0079d	eb 6e		 jmp	 SHORT $LN5@ExUserInSa
$LN3@ExUserInSa:

; 387  : 	}
; 388  : 
; 389  : 	int map = lpUser->MapNumber;

  0079f	8b 45 fc	 mov	 eax, DWORD PTR _lpUser$[ebp]
  007a2	0f b6 88 49 01
	00 00		 movzx	 ecx, BYTE PTR [eax+329]
  007a9	89 4d f8	 mov	 DWORD PTR _map$[ebp], ecx

; 390  : 
; 391  : 	if(MAX_MAP_RANGE(map) == FALSE)

  007ac	83 7d f8 00	 cmp	 DWORD PTR _map$[ebp], 0
  007b0	7d 09		 jge	 SHORT $LN9@ExUserInSa
  007b2	c7 45 b0 00 00
	00 00		 mov	 DWORD PTR tv82[ebp], 0
  007b9	eb 0c		 jmp	 SHORT $LN10@ExUserInSa
$LN9@ExUserInSa:
  007bb	33 c0		 xor	 eax, eax
  007bd	83 7d f8 59	 cmp	 DWORD PTR _map$[ebp], 89 ; 00000059H
  007c1	0f 9e c0	 setle	 al
  007c4	89 45 b0	 mov	 DWORD PTR tv82[ebp], eax
$LN10@ExUserInSa:
  007c7	83 7d b0 00	 cmp	 DWORD PTR tv82[ebp], 0
  007cb	75 04		 jne	 SHORT $LN2@ExUserInSa

; 392  : 	{
; 393  : 		return false;

  007cd	32 c0		 xor	 al, al
  007cf	eb 3c		 jmp	 SHORT $LN5@ExUserInSa
$LN2@ExUserInSa:

; 394  : 	}
; 395  : 
; 396  : 	BYTE attr = MapC[map].GetAttr(lpUser->X, lpUser->Y);

  007d1	8b 45 fc	 mov	 eax, DWORD PTR _lpUser$[ebp]
  007d4	0f bf 88 46 01
	00 00		 movsx	 ecx, WORD PTR [eax+326]
  007db	51		 push	 ecx
  007dc	8b 55 fc	 mov	 edx, DWORD PTR _lpUser$[ebp]
  007df	0f bf 82 44 01
	00 00		 movsx	 eax, WORD PTR [edx+324]
  007e6	50		 push	 eax
  007e7	8b 4d f8	 mov	 ecx, DWORD PTR _map$[ebp]
  007ea	69 c9 b8 3d 05
	00		 imul	 ecx, 343480		; 00053db8H
  007f0	81 c1 00 00 00
	00		 add	 ecx, OFFSET ?MapC@@3PAVMapClass@@A ; MapC
  007f6	e8 00 00 00 00	 call	 ?GetAttr@MapClass@@QAEEHH@Z ; MapClass::GetAttr
  007fb	88 45 f7	 mov	 BYTE PTR _attr$[ebp], al

; 397  : 
; 398  : 	if ( (attr&1) == 1 )

  007fe	0f b6 45 f7	 movzx	 eax, BYTE PTR _attr$[ebp]
  00802	83 e0 01	 and	 eax, 1
  00805	74 04		 je	 SHORT $LN1@ExUserInSa

; 399  : 	{
; 400  : 		return true;

  00807	b0 01		 mov	 al, 1
  00809	eb 02		 jmp	 SHORT $LN5@ExUserInSa
$LN1@ExUserInSa:

; 401  : 	}
; 402  : 
; 403  : 	return false;

  0080b	32 c0		 xor	 al, al
$LN5@ExUserInSa:

; 404  : }

  0080d	5f		 pop	 edi
  0080e	5e		 pop	 esi
  0080f	5b		 pop	 ebx
  00810	8b e5		 mov	 esp, ebp
  00812	5d		 pop	 ebp
  00813	c3		 ret	 0
?ExUserInSafeZone@@YA_NH@Z ENDP				; ExUserInSafeZone
_TEXT	ENDS
PUBLIC	??0ÑExUser@@QAE@XZ				; ÑExUser::ÑExUser
; Function compile flags: /Odtp /ZI
_TEXT	SEGMENT
_this$ = -4						; size = 4
??0ÑExUser@@QAE@XZ PROC					; ÑExUser::ÑExUser
; _this$ = ecx

; 411  : {

  00820	55		 push	 ebp
  00821	8b ec		 mov	 ebp, esp
  00823	83 ec 44	 sub	 esp, 68			; 00000044H
  00826	53		 push	 ebx
  00827	56		 push	 esi
  00828	57		 push	 edi
  00829	89 4d fc	 mov	 DWORD PTR _this$[ebp], ecx

; 412  : 	
; 413  : }

  0082c	8b 45 fc	 mov	 eax, DWORD PTR _this$[ebp]
  0082f	5f		 pop	 edi
  00830	5e		 pop	 esi
  00831	5b		 pop	 ebx
  00832	8b e5		 mov	 esp, ebp
  00834	5d		 pop	 ebp
  00835	c3		 ret	 0
??0ÑExUser@@QAE@XZ ENDP					; ÑExUser::ÑExUser
_TEXT	ENDS
PUBLIC	??1ÑExUser@@QAE@XZ				; ÑExUser::~ÑExUser
; Function compile flags: /Odtp /ZI
_TEXT	SEGMENT
_this$ = -4						; size = 4
??1ÑExUser@@QAE@XZ PROC					; ÑExUser::~ÑExUser
; _this$ = ecx

; 417  : {

  00840	55		 push	 ebp
  00841	8b ec		 mov	 ebp, esp
  00843	83 ec 44	 sub	 esp, 68			; 00000044H
  00846	53		 push	 ebx
  00847	56		 push	 esi
  00848	57		 push	 edi
  00849	89 4d fc	 mov	 DWORD PTR _this$[ebp], ecx

; 418  : }

  0084c	5f		 pop	 edi
  0084d	5e		 pop	 esi
  0084e	5b		 pop	 ebx
  0084f	8b e5		 mov	 esp, ebp
  00851	5d		 pop	 ebp
  00852	c3		 ret	 0
??1ÑExUser@@QAE@XZ ENDP					; ÑExUser::~ÑExUser
_TEXT	ENDS
PUBLIC	?Load@ÑExUser@@QAEXXZ				; ÑExUser::Load
EXTRN	?g_UserConfig@@3VCUserConfig@@A:BYTE		; g_UserConfig
; Function compile flags: /Odtp /ZI
_TEXT	SEGMENT
_this$ = -4						; size = 4
?Load@ÑExUser@@QAEXXZ PROC				; ÑExUser::Load
; _this$ = ecx

; 422  : {

  00860	55		 push	 ebp
  00861	8b ec		 mov	 ebp, esp
  00863	83 ec 44	 sub	 esp, 68			; 00000044H
  00866	53		 push	 ebx
  00867	56		 push	 esi
  00868	57		 push	 edi
  00869	89 4d fc	 mov	 DWORD PTR _this$[ebp], ecx

; 423  : 	this->m_bActiveAutoHP = false;

  0086c	8b 45 fc	 mov	 eax, DWORD PTR _this$[ebp]
  0086f	c6 40 08 00	 mov	 BYTE PTR [eax+8], 0

; 424  : 
; 425  : 	if(g_ExLicense.CheckUser(eExUB::Gredy) || g_ExLicense.CheckUser(eExUB::GredyLocal) || g_ExLicense.CheckUser(eExUB::Gredy2))

  00873	6a 20		 push	 32			; 00000020H
  00875	b9 00 00 00 00	 mov	 ecx, OFFSET ?g_ExLicense@@3VCExLicense@@A ; g_ExLicense
  0087a	e8 00 00 00 00	 call	 ?CheckUser@CExLicense@@QAE_NH@Z ; CExLicense::CheckUser
  0087f	0f b6 c0	 movzx	 eax, al
  00882	85 c0		 test	 eax, eax
  00884	75 26		 jne	 SHORT $LN4@Load
  00886	6a 21		 push	 33			; 00000021H
  00888	b9 00 00 00 00	 mov	 ecx, OFFSET ?g_ExLicense@@3VCExLicense@@A ; g_ExLicense
  0088d	e8 00 00 00 00	 call	 ?CheckUser@CExLicense@@QAE_NH@Z ; CExLicense::CheckUser
  00892	0f b6 c0	 movzx	 eax, al
  00895	85 c0		 test	 eax, eax
  00897	75 13		 jne	 SHORT $LN4@Load
  00899	6a 22		 push	 34			; 00000022H
  0089b	b9 00 00 00 00	 mov	 ecx, OFFSET ?g_ExLicense@@3VCExLicense@@A ; g_ExLicense
  008a0	e8 00 00 00 00	 call	 ?CheckUser@CExLicense@@QAE_NH@Z ; CExLicense::CheckUser
  008a5	0f b6 c0	 movzx	 eax, al
  008a8	85 c0		 test	 eax, eax
  008aa	74 10		 je	 SHORT $LN5@Load
$LN4@Load:

; 426  : 	{
; 427  : 		if(g_UserConfig.m_EvoMU.HPAutoClicker)

  008ac	83 3d 24 00 00
	00 00		 cmp	 DWORD PTR ?g_UserConfig@@3VCUserConfig@@A+36, 0
  008b3	74 07		 je	 SHORT $LN5@Load

; 428  : 		{
; 429  : 			this->m_bActiveAutoHP = true;

  008b5	8b 45 fc	 mov	 eax, DWORD PTR _this$[ebp]
  008b8	c6 40 08 01	 mov	 BYTE PTR [eax+8], 1
$LN5@Load:

; 430  : 		}
; 431  : 	}
; 432  : 	
; 433  : 	#if(DEV_PLAYERINFO)
; 434  : 	this->EnableInfoPlayer = true;
; 435  : 	#endif
; 436  : 
; 437  : 	#if(DEV_DAMAGE_TABLE)
; 438  : 	this->EnableTable = false;

  008bc	8b 45 fc	 mov	 eax, DWORD PTR _this$[ebp]
  008bf	c6 40 09 00	 mov	 BYTE PTR [eax+9], 0

; 439  : 
; 440  : 	if(g_ExLicense.CheckUser(eExUB::Local) || g_ExLicense.CheckUser(eExUB::NSGames) || g_ExLicense.CheckUser(eExUB::eternalmu))

  008c3	6a 00		 push	 0
  008c5	b9 00 00 00 00	 mov	 ecx, OFFSET ?g_ExLicense@@3VCExLicense@@A ; g_ExLicense
  008ca	e8 00 00 00 00	 call	 ?CheckUser@CExLicense@@QAE_NH@Z ; CExLicense::CheckUser
  008cf	0f b6 c0	 movzx	 eax, al
  008d2	85 c0		 test	 eax, eax
  008d4	75 26		 jne	 SHORT $LN1@Load
  008d6	6a 51		 push	 81			; 00000051H
  008d8	b9 00 00 00 00	 mov	 ecx, OFFSET ?g_ExLicense@@3VCExLicense@@A ; g_ExLicense
  008dd	e8 00 00 00 00	 call	 ?CheckUser@CExLicense@@QAE_NH@Z ; CExLicense::CheckUser
  008e2	0f b6 c0	 movzx	 eax, al
  008e5	85 c0		 test	 eax, eax
  008e7	75 13		 jne	 SHORT $LN1@Load
  008e9	6a 4f		 push	 79			; 0000004fH
  008eb	b9 00 00 00 00	 mov	 ecx, OFFSET ?g_ExLicense@@3VCExLicense@@A ; g_ExLicense
  008f0	e8 00 00 00 00	 call	 ?CheckUser@CExLicense@@QAE_NH@Z ; CExLicense::CheckUser
  008f5	0f b6 c0	 movzx	 eax, al
  008f8	85 c0		 test	 eax, eax
  008fa	74 07		 je	 SHORT $LN6@Load
$LN1@Load:

; 441  : 	{
; 442  : 		this->EnableTable = true;

  008fc	8b 45 fc	 mov	 eax, DWORD PTR _this$[ebp]
  008ff	c6 40 09 01	 mov	 BYTE PTR [eax+9], 1
$LN6@Load:

; 443  : 	}
; 444  : 	#endif
; 445  : 
; 446  : }

  00903	5f		 pop	 edi
  00904	5e		 pop	 esi
  00905	5b		 pop	 ebx
  00906	8b e5		 mov	 esp, ebp
  00908	5d		 pop	 ebp
  00909	c3		 ret	 0
?Load@ÑExUser@@QAEXXZ ENDP				; ÑExUser::Load
_TEXT	ENDS
PUBLIC	?__LINE__Var@?1??InSafeZone@ÑExUser@@QAE_NH@Z@4JA ; `ÑExUser::InSafeZone'::`2'::__LINE__Var
PUBLIC	?InSafeZone@ÑExUser@@QAE_NH@Z			; ÑExUser::InSafeZone
;	COMDAT ?__LINE__Var@?1??InSafeZone@ÑExUser@@QAE_NH@Z@4JA
_DATA	SEGMENT
?__LINE__Var@?1??InSafeZone@ÑExUser@@QAE_NH@Z@4JA DD 01c2H ; `ÑExUser::InSafeZone'::`2'::__LINE__Var
; Function compile flags: /Odtp /ZI
_DATA	ENDS
_TEXT	SEGMENT
tv82 = -84						; size = 4
tv67 = -84						; size = 4
_attr$ = -13						; size = 1
_map$ = -12						; size = 4
_lpUser$ = -8						; size = 4
_this$ = -4						; size = 4
_aIndex$ = 8						; size = 4
?InSafeZone@ÑExUser@@QAE_NH@Z PROC			; ÑExUser::InSafeZone
; _this$ = ecx

; 450  : {

  00910	55		 push	 ebp
  00911	8b ec		 mov	 ebp, esp
  00913	83 ec 54	 sub	 esp, 84			; 00000054H
  00916	53		 push	 ebx
  00917	56		 push	 esi
  00918	57		 push	 edi
  00919	89 4d fc	 mov	 DWORD PTR _this$[ebp], ecx

; 451  : 	if ( OBJMAX_RANGE(aIndex) == FALSE )

  0091c	83 7d 08 00	 cmp	 DWORD PTR _aIndex$[ebp], 0
  00920	7d 09		 jge	 SHORT $LN7@InSafeZone
  00922	c7 45 ac 00 00
	00 00		 mov	 DWORD PTR tv67[ebp], 0
  00929	eb 0f		 jmp	 SHORT $LN8@InSafeZone
$LN7@InSafeZone:
  0092b	33 c0		 xor	 eax, eax
  0092d	81 7d 08 97 3a
	00 00		 cmp	 DWORD PTR _aIndex$[ebp], 14999 ; 00003a97H
  00934	0f 9e c0	 setle	 al
  00937	89 45 ac	 mov	 DWORD PTR tv67[ebp], eax
$LN8@InSafeZone:
  0093a	83 7d ac 00	 cmp	 DWORD PTR tv67[ebp], 0
  0093e	75 23		 jne	 SHORT $LN4@InSafeZone

; 452  : 	{
; 453  : 		LogAdd("error : %s %d", __FILE__, __LINE__ );

  00940	a1 00 00 00 00	 mov	 eax, DWORD PTR ?__LINE__Var@?1??InSafeZone@ÑExUser@@QAE_NH@Z@4JA
  00945	83 c0 03	 add	 eax, 3
  00948	50		 push	 eax
  00949	68 00 00 00 00	 push	 OFFSET ??_C@_0DO@JCDPNHJI@d?3?2projects?2exteam6?43?2source?2gam@
  0094e	68 00 00 00 00	 push	 OFFSET ??_C@_0O@CKAEPJAF@error?5?3?5?$CFs?5?$CFd?$AA@
  00953	ff 15 00 00 00
	00		 call	 DWORD PTR ?LogAdd@@3P6AXPADZZA ; LogAdd
  00959	83 c4 0c	 add	 esp, 12			; 0000000cH

; 454  : 		return false;

  0095c	32 c0		 xor	 al, al
  0095e	e9 8d 00 00 00	 jmp	 $LN5@InSafeZone
$LN4@InSafeZone:

; 455  : 	}
; 456  : 
; 457  : 	LPOBJ lpUser = &gObj[aIndex];

  00963	8b 45 08	 mov	 eax, DWORD PTR _aIndex$[ebp]
  00966	69 c0 38 2b 00
	00		 imul	 eax, 11064		; 00002b38H
  0096c	03 05 00 00 00
	00		 add	 eax, DWORD PTR ?gObj@@3PAUOBJECTSTRUCT@@A ; gObj
  00972	89 45 f8	 mov	 DWORD PTR _lpUser$[ebp], eax

; 458  : 
; 459  : 	if(lpUser->Connected < PLAYER_PLAYING)

  00975	8b 45 f8	 mov	 eax, DWORD PTR _lpUser$[ebp]
  00978	83 78 04 03	 cmp	 DWORD PTR [eax+4], 3
  0097c	7d 04		 jge	 SHORT $LN3@InSafeZone

; 460  : 	{
; 461  : 		return false;

  0097e	32 c0		 xor	 al, al
  00980	eb 6e		 jmp	 SHORT $LN5@InSafeZone
$LN3@InSafeZone:

; 462  : 	}
; 463  : 
; 464  : 	int map = lpUser->MapNumber;

  00982	8b 45 f8	 mov	 eax, DWORD PTR _lpUser$[ebp]
  00985	0f b6 88 49 01
	00 00		 movzx	 ecx, BYTE PTR [eax+329]
  0098c	89 4d f4	 mov	 DWORD PTR _map$[ebp], ecx

; 465  : 
; 466  : 	if(MAX_MAP_RANGE(map) == FALSE)

  0098f	83 7d f4 00	 cmp	 DWORD PTR _map$[ebp], 0
  00993	7d 09		 jge	 SHORT $LN9@InSafeZone
  00995	c7 45 ac 00 00
	00 00		 mov	 DWORD PTR tv82[ebp], 0
  0099c	eb 0c		 jmp	 SHORT $LN10@InSafeZone
$LN9@InSafeZone:
  0099e	33 c0		 xor	 eax, eax
  009a0	83 7d f4 59	 cmp	 DWORD PTR _map$[ebp], 89 ; 00000059H
  009a4	0f 9e c0	 setle	 al
  009a7	89 45 ac	 mov	 DWORD PTR tv82[ebp], eax
$LN10@InSafeZone:
  009aa	83 7d ac 00	 cmp	 DWORD PTR tv82[ebp], 0
  009ae	75 04		 jne	 SHORT $LN2@InSafeZone

; 467  : 	{
; 468  : 		return false;

  009b0	32 c0		 xor	 al, al
  009b2	eb 3c		 jmp	 SHORT $LN5@InSafeZone
$LN2@InSafeZone:

; 469  : 	}
; 470  : 
; 471  : 	BYTE attr = MapC[map].GetAttr(lpUser->X, lpUser->Y);

  009b4	8b 45 f8	 mov	 eax, DWORD PTR _lpUser$[ebp]
  009b7	0f bf 88 46 01
	00 00		 movsx	 ecx, WORD PTR [eax+326]
  009be	51		 push	 ecx
  009bf	8b 55 f8	 mov	 edx, DWORD PTR _lpUser$[ebp]
  009c2	0f bf 82 44 01
	00 00		 movsx	 eax, WORD PTR [edx+324]
  009c9	50		 push	 eax
  009ca	8b 4d f4	 mov	 ecx, DWORD PTR _map$[ebp]
  009cd	69 c9 b8 3d 05
	00		 imul	 ecx, 343480		; 00053db8H
  009d3	81 c1 00 00 00
	00		 add	 ecx, OFFSET ?MapC@@3PAVMapClass@@A ; MapC
  009d9	e8 00 00 00 00	 call	 ?GetAttr@MapClass@@QAEEHH@Z ; MapClass::GetAttr
  009de	88 45 f3	 mov	 BYTE PTR _attr$[ebp], al

; 472  : 
; 473  : 	if ( (attr&1) == 1 )

  009e1	0f b6 45 f3	 movzx	 eax, BYTE PTR _attr$[ebp]
  009e5	83 e0 01	 and	 eax, 1
  009e8	74 04		 je	 SHORT $LN1@InSafeZone

; 474  : 	{
; 475  : 		return true;

  009ea	b0 01		 mov	 al, 1
  009ec	eb 02		 jmp	 SHORT $LN5@InSafeZone
$LN1@InSafeZone:

; 476  : 	}
; 477  : 
; 478  : 	return false;

  009ee	32 c0		 xor	 al, al
$LN5@InSafeZone:

; 479  : }

  009f0	5f		 pop	 edi
  009f1	5e		 pop	 esi
  009f2	5b		 pop	 ebx
  009f3	8b e5		 mov	 esp, ebp
  009f5	5d		 pop	 ebp
  009f6	c2 04 00	 ret	 4
?InSafeZone@ÑExUser@@QAE_NH@Z ENDP			; ÑExUser::InSafeZone
_TEXT	ENDS
PUBLIC	?CheckAlliancePlayer@ÑExUser@@QAE_NHH@Z		; ÑExUser::CheckAlliancePlayer
EXTRN	?SearchUnion@TUnion@@QAEPAVTUnionInfo@@H@Z:PROC	; TUnion::SearchUnion
EXTRN	?UnionManager@@3VTUnion@@A:BYTE			; UnionManager
EXTRN	_strcmp:PROC
; Function compile flags: /Odtp /ZI
_TEXT	SEGMENT
tv72 = -96						; size = 4
tv67 = -96						; size = 4
_pUnionTarget$ = -28					; size = 4
_pUnionUser$ = -24					; size = 4
_lpGuildTarget$ = -20					; size = 4
_lpGuildUser$ = -16					; size = 4
_lpTarget$ = -12					; size = 4
_lpUser$ = -8						; size = 4
_this$ = -4						; size = 4
_aIndex$ = 8						; size = 4
_aTarget$ = 12						; size = 4
?CheckAlliancePlayer@ÑExUser@@QAE_NHH@Z PROC		; ÑExUser::CheckAlliancePlayer
; _this$ = ecx

; 483  : {

  00a00	55		 push	 ebp
  00a01	8b ec		 mov	 ebp, esp
  00a03	83 ec 60	 sub	 esp, 96			; 00000060H
  00a06	53		 push	 ebx
  00a07	56		 push	 esi
  00a08	57		 push	 edi
  00a09	89 4d fc	 mov	 DWORD PTR _this$[ebp], ecx

; 484  : 	if (!OBJMAX_RANGE(aIndex) || !OBJMAX_RANGE(aTarget))

  00a0c	83 7d 08 00	 cmp	 DWORD PTR _aIndex$[ebp], 0
  00a10	7d 09		 jge	 SHORT $LN13@CheckAllia
  00a12	c7 45 a0 00 00
	00 00		 mov	 DWORD PTR tv67[ebp], 0
  00a19	eb 0f		 jmp	 SHORT $LN14@CheckAllia
$LN13@CheckAllia:
  00a1b	33 c0		 xor	 eax, eax
  00a1d	81 7d 08 97 3a
	00 00		 cmp	 DWORD PTR _aIndex$[ebp], 14999 ; 00003a97H
  00a24	0f 9e c0	 setle	 al
  00a27	89 45 a0	 mov	 DWORD PTR tv67[ebp], eax
$LN14@CheckAllia:
  00a2a	83 7d a0 00	 cmp	 DWORD PTR tv67[ebp], 0
  00a2e	74 24		 je	 SHORT $LN9@CheckAllia
  00a30	83 7d 0c 00	 cmp	 DWORD PTR _aTarget$[ebp], 0
  00a34	7d 09		 jge	 SHORT $LN15@CheckAllia
  00a36	c7 45 a0 00 00
	00 00		 mov	 DWORD PTR tv72[ebp], 0
  00a3d	eb 0f		 jmp	 SHORT $LN16@CheckAllia
$LN15@CheckAllia:
  00a3f	33 c0		 xor	 eax, eax
  00a41	81 7d 0c 97 3a
	00 00		 cmp	 DWORD PTR _aTarget$[ebp], 14999 ; 00003a97H
  00a48	0f 9e c0	 setle	 al
  00a4b	89 45 a0	 mov	 DWORD PTR tv72[ebp], eax
$LN16@CheckAllia:
  00a4e	83 7d a0 00	 cmp	 DWORD PTR tv72[ebp], 0
  00a52	75 07		 jne	 SHORT $LN10@CheckAllia
$LN9@CheckAllia:

; 485  : 	{
; 486  : 		return false;

  00a54	32 c0		 xor	 al, al
  00a56	e9 e1 00 00 00	 jmp	 $LN11@CheckAllia
$LN10@CheckAllia:

; 487  : 	}
; 488  : 
; 489  : 	LPOBJ lpUser = &gObj[aIndex];

  00a5b	8b 45 08	 mov	 eax, DWORD PTR _aIndex$[ebp]
  00a5e	69 c0 38 2b 00
	00		 imul	 eax, 11064		; 00002b38H
  00a64	03 05 00 00 00
	00		 add	 eax, DWORD PTR ?gObj@@3PAUOBJECTSTRUCT@@A ; gObj
  00a6a	89 45 f8	 mov	 DWORD PTR _lpUser$[ebp], eax

; 490  : 	LPOBJ lpTarget = &gObj[aTarget];

  00a6d	8b 45 0c	 mov	 eax, DWORD PTR _aTarget$[ebp]
  00a70	69 c0 38 2b 00
	00		 imul	 eax, 11064		; 00002b38H
  00a76	03 05 00 00 00
	00		 add	 eax, DWORD PTR ?gObj@@3PAUOBJECTSTRUCT@@A ; gObj
  00a7c	89 45 f4	 mov	 DWORD PTR _lpTarget$[ebp], eax

; 491  : 
; 492  : 	if(lpUser->Connected < PLAYER_PLAYING || lpTarget->Connected < PLAYER_PLAYING)

  00a7f	8b 45 f8	 mov	 eax, DWORD PTR _lpUser$[ebp]
  00a82	83 78 04 03	 cmp	 DWORD PTR [eax+4], 3
  00a86	7c 09		 jl	 SHORT $LN7@CheckAllia
  00a88	8b 45 f4	 mov	 eax, DWORD PTR _lpTarget$[ebp]
  00a8b	83 78 04 03	 cmp	 DWORD PTR [eax+4], 3
  00a8f	7d 07		 jge	 SHORT $LN8@CheckAllia
$LN7@CheckAllia:

; 493  : 	{
; 494  : 		return false;

  00a91	32 c0		 xor	 al, al
  00a93	e9 a4 00 00 00	 jmp	 $LN11@CheckAllia
$LN8@CheckAllia:

; 495  : 	}
; 496  : 
; 497  : 	_GUILD_INFO_STRUCT * lpGuildUser = lpUser->lpGuild;

  00a98	8b 45 f8	 mov	 eax, DWORD PTR _lpUser$[ebp]
  00a9b	8b 88 38 04 00
	00		 mov	 ecx, DWORD PTR [eax+1080]
  00aa1	89 4d f0	 mov	 DWORD PTR _lpGuildUser$[ebp], ecx

; 498  : 	_GUILD_INFO_STRUCT * lpGuildTarget = lpTarget->lpGuild;

  00aa4	8b 45 f4	 mov	 eax, DWORD PTR _lpTarget$[ebp]
  00aa7	8b 88 38 04 00
	00		 mov	 ecx, DWORD PTR [eax+1080]
  00aad	89 4d ec	 mov	 DWORD PTR _lpGuildTarget$[ebp], ecx

; 499  : 
; 500  : 	if(!lpGuildUser || !lpGuildTarget)

  00ab0	83 7d f0 00	 cmp	 DWORD PTR _lpGuildUser$[ebp], 0
  00ab4	74 06		 je	 SHORT $LN5@CheckAllia
  00ab6	83 7d ec 00	 cmp	 DWORD PTR _lpGuildTarget$[ebp], 0
  00aba	75 04		 jne	 SHORT $LN6@CheckAllia
$LN5@CheckAllia:

; 501  : 	{
; 502  : 		return false;

  00abc	32 c0		 xor	 al, al
  00abe	eb 7c		 jmp	 SHORT $LN11@CheckAllia
$LN6@CheckAllia:

; 503  : 	}
; 504  : 
; 505  : 	if(!strcmp(lpGuildUser->Name, lpGuildTarget->Name))

  00ac0	8b 45 ec	 mov	 eax, DWORD PTR _lpGuildTarget$[ebp]
  00ac3	83 c0 04	 add	 eax, 4
  00ac6	50		 push	 eax
  00ac7	8b 4d f0	 mov	 ecx, DWORD PTR _lpGuildUser$[ebp]
  00aca	83 c1 04	 add	 ecx, 4
  00acd	51		 push	 ecx
  00ace	e8 00 00 00 00	 call	 _strcmp
  00ad3	83 c4 08	 add	 esp, 8
  00ad6	85 c0		 test	 eax, eax
  00ad8	75 04		 jne	 SHORT $LN4@CheckAllia

; 506  : 	{
; 507  : 		return true;

  00ada	b0 01		 mov	 al, 1
  00adc	eb 5e		 jmp	 SHORT $LN11@CheckAllia
$LN4@CheckAllia:

; 508  : 	}
; 509  : 
; 510  : 	TUnionInfo * pUnionUser = UnionManager.SearchUnion(lpGuildUser->iGuildUnion);

  00ade	8b 45 f0	 mov	 eax, DWORD PTR _lpGuildUser$[ebp]
  00ae1	8b 88 1c 07 00
	00		 mov	 ecx, DWORD PTR [eax+1820]
  00ae7	51		 push	 ecx
  00ae8	b9 00 00 00 00	 mov	 ecx, OFFSET ?UnionManager@@3VTUnion@@A ; UnionManager
  00aed	e8 00 00 00 00	 call	 ?SearchUnion@TUnion@@QAEPAVTUnionInfo@@H@Z ; TUnion::SearchUnion
  00af2	89 45 e8	 mov	 DWORD PTR _pUnionUser$[ebp], eax

; 511  : 	TUnionInfo * pUnionTarget = UnionManager.SearchUnion(lpGuildTarget->iGuildUnion);

  00af5	8b 45 ec	 mov	 eax, DWORD PTR _lpGuildTarget$[ebp]
  00af8	8b 88 1c 07 00
	00		 mov	 ecx, DWORD PTR [eax+1820]
  00afe	51		 push	 ecx
  00aff	b9 00 00 00 00	 mov	 ecx, OFFSET ?UnionManager@@3VTUnion@@A ; UnionManager
  00b04	e8 00 00 00 00	 call	 ?SearchUnion@TUnion@@QAEPAVTUnionInfo@@H@Z ; TUnion::SearchUnion
  00b09	89 45 e4	 mov	 DWORD PTR _pUnionTarget$[ebp], eax

; 512  : 
; 513  : 	if(!pUnionUser || !pUnionTarget)

  00b0c	83 7d e8 00	 cmp	 DWORD PTR _pUnionUser$[ebp], 0
  00b10	74 06		 je	 SHORT $LN2@CheckAllia
  00b12	83 7d e4 00	 cmp	 DWORD PTR _pUnionTarget$[ebp], 0
  00b16	75 04		 jne	 SHORT $LN3@CheckAllia
$LN2@CheckAllia:

; 514  : 	{
; 515  : 		return false;

  00b18	32 c0		 xor	 al, al
  00b1a	eb 20		 jmp	 SHORT $LN11@CheckAllia
$LN3@CheckAllia:

; 516  : 	}
; 517  : 
; 518  : 	if(!strcmp(pUnionUser->m_szMasterGuild, pUnionTarget->m_szMasterGuild))

  00b1c	8b 45 e4	 mov	 eax, DWORD PTR _pUnionTarget$[ebp]
  00b1f	83 c0 10	 add	 eax, 16			; 00000010H
  00b22	50		 push	 eax
  00b23	8b 4d e8	 mov	 ecx, DWORD PTR _pUnionUser$[ebp]
  00b26	83 c1 10	 add	 ecx, 16			; 00000010H
  00b29	51		 push	 ecx
  00b2a	e8 00 00 00 00	 call	 _strcmp
  00b2f	83 c4 08	 add	 esp, 8
  00b32	85 c0		 test	 eax, eax
  00b34	75 04		 jne	 SHORT $LN1@CheckAllia

; 519  : 	{
; 520  : 		return true;

  00b36	b0 01		 mov	 al, 1
  00b38	eb 02		 jmp	 SHORT $LN11@CheckAllia
$LN1@CheckAllia:

; 521  : 	}
; 522  : 
; 523  : 	return false;

  00b3a	32 c0		 xor	 al, al
$LN11@CheckAllia:

; 524  : }

  00b3c	5f		 pop	 edi
  00b3d	5e		 pop	 esi
  00b3e	5b		 pop	 ebx
  00b3f	8b e5		 mov	 esp, ebp
  00b41	5d		 pop	 ebp
  00b42	c2 08 00	 ret	 8
?CheckAlliancePlayer@ÑExUser@@QAE_NHH@Z ENDP		; ÑExUser::CheckAlliancePlayer
_TEXT	ENDS
PUBLIC	?ResetPointSend@ÑExUser@@QAEXH@Z		; ÑExUser::ResetPointSend
PUBLIC	?__LINE__Var@?1??GCDataClient@ÑExUser@@QAEXH@Z@4JA ; `ÑExUser::GCDataClient'::`2'::__LINE__Var
PUBLIC	?GCDataClient@ÑExUser@@QAEXH@Z			; ÑExUser::GCDataClient
EXTRN	?GC_Config@PremiumSystemEx@@QAEXH@Z:PROC	; PremiumSystemEx::GC_Config
EXTRN	?g_PremiumSystemEx@@3VPremiumSystemEx@@A:BYTE	; g_PremiumSystemEx
EXTRN	?GCChangeClassConfig@cCreditDonate@@QAEXH@Z:PROC ; cCreditDonate::GCChangeClassConfig
EXTRN	?gCreditDonate@@3VcCreditDonate@@A:BYTE		; gCreditDonate
EXTRN	?GCRankList@ItemRank@@QAEXH@Z:PROC		; ItemRank::GCRankList
EXTRN	?GCRankData@ItemRank@@QAEXH@Z:PROC		; ItemRank::GCRankData
EXTRN	?GCRankInit@ItemRank@@QAEXH@Z:PROC		; ItemRank::GCRankInit
EXTRN	?g_ItemRank@@3VItemRank@@A:BYTE			; g_ItemRank
;	COMDAT ?__LINE__Var@?1??GCDataClient@ÑExUser@@QAEXH@Z@4JA
_DATA	SEGMENT
?__LINE__Var@?1??GCDataClient@ÑExUser@@QAEXH@Z@4JA DD 020fH ; `ÑExUser::GCDataClient'::`2'::__LINE__Var
; Function compile flags: /Odtp /ZI
_DATA	ENDS
_TEXT	SEGMENT
tv67 = -72						; size = 4
_this$ = -4						; size = 4
_aIndex$ = 8						; size = 4
?GCDataClient@ÑExUser@@QAEXH@Z PROC			; ÑExUser::GCDataClient
; _this$ = ecx

; 527  : {

  00b50	55		 push	 ebp
  00b51	8b ec		 mov	 ebp, esp
  00b53	83 ec 48	 sub	 esp, 72			; 00000048H
  00b56	53		 push	 ebx
  00b57	56		 push	 esi
  00b58	57		 push	 edi
  00b59	89 4d fc	 mov	 DWORD PTR _this$[ebp], ecx

; 528  : 	if (!OBJMAX_RANGE(aIndex))

  00b5c	83 7d 08 00	 cmp	 DWORD PTR _aIndex$[ebp], 0
  00b60	7d 09		 jge	 SHORT $LN4@GCDataClie
  00b62	c7 45 b8 00 00
	00 00		 mov	 DWORD PTR tv67[ebp], 0
  00b69	eb 0f		 jmp	 SHORT $LN5@GCDataClie
$LN4@GCDataClie:
  00b6b	33 c0		 xor	 eax, eax
  00b6d	81 7d 08 97 3a
	00 00		 cmp	 DWORD PTR _aIndex$[ebp], 14999 ; 00003a97H
  00b74	0f 9e c0	 setle	 al
  00b77	89 45 b8	 mov	 DWORD PTR tv67[ebp], eax
$LN5@GCDataClie:
  00b7a	83 7d b8 00	 cmp	 DWORD PTR tv67[ebp], 0
  00b7e	75 1e		 jne	 SHORT $LN1@GCDataClie

; 529  : 	{
; 530  : 		LogAdd("error : %s %d", __FILE__, __LINE__ );

  00b80	a1 00 00 00 00	 mov	 eax, DWORD PTR ?__LINE__Var@?1??GCDataClient@ÑExUser@@QAEXH@Z@4JA
  00b85	83 c0 03	 add	 eax, 3
  00b88	50		 push	 eax
  00b89	68 00 00 00 00	 push	 OFFSET ??_C@_0DO@JCDPNHJI@d?3?2projects?2exteam6?43?2source?2gam@
  00b8e	68 00 00 00 00	 push	 OFFSET ??_C@_0O@CKAEPJAF@error?5?3?5?$CFs?5?$CFd?$AA@
  00b93	ff 15 00 00 00
	00		 call	 DWORD PTR ?LogAdd@@3P6AXPADZZA ; LogAdd
  00b99	83 c4 0c	 add	 esp, 12			; 0000000cH

; 531  : 		return;

  00b9c	eb 54		 jmp	 SHORT $LN2@GCDataClie
$LN1@GCDataClie:

; 532  : 	}
; 533  : 
; 534  : #if(CUSTOM_ITEM_RANK==TRUE)
; 535  : 	g_ItemRank.GCRankInit(aIndex);

  00b9e	8b 45 08	 mov	 eax, DWORD PTR _aIndex$[ebp]
  00ba1	50		 push	 eax
  00ba2	b9 00 00 00 00	 mov	 ecx, OFFSET ?g_ItemRank@@3VItemRank@@A ; g_ItemRank
  00ba7	e8 00 00 00 00	 call	 ?GCRankInit@ItemRank@@QAEXH@Z ; ItemRank::GCRankInit

; 536  : 	g_ItemRank.GCRankData(aIndex);

  00bac	8b 45 08	 mov	 eax, DWORD PTR _aIndex$[ebp]
  00baf	50		 push	 eax
  00bb0	b9 00 00 00 00	 mov	 ecx, OFFSET ?g_ItemRank@@3VItemRank@@A ; g_ItemRank
  00bb5	e8 00 00 00 00	 call	 ?GCRankData@ItemRank@@QAEXH@Z ; ItemRank::GCRankData

; 537  : 	g_ItemRank.GCRankList(aIndex);

  00bba	8b 45 08	 mov	 eax, DWORD PTR _aIndex$[ebp]
  00bbd	50		 push	 eax
  00bbe	b9 00 00 00 00	 mov	 ecx, OFFSET ?g_ItemRank@@3VItemRank@@A ; g_ItemRank
  00bc3	e8 00 00 00 00	 call	 ?GCRankList@ItemRank@@QAEXH@Z ; ItemRank::GCRankList

; 538  : #endif
; 539  : #if(OFFLINE_MODE == TRUE)
; 540  : 	//g_OfflineMode.GCConfigSend(aIndex);
; 541  : #endif
; 542  : #if(CUSTOM_ADD_POINTS==TRUE)
; 543  : 	g_ExUser.ResetPointSend(aIndex);

  00bc8	8b 45 08	 mov	 eax, DWORD PTR _aIndex$[ebp]
  00bcb	50		 push	 eax
  00bcc	b9 00 00 00 00	 mov	 ecx, OFFSET ?g_ExUser@@3VÑExUser@@A ; g_ExUser
  00bd1	e8 00 00 00 00	 call	 ?ResetPointSend@ÑExUser@@QAEXH@Z ; ÑExUser::ResetPointSend

; 544  : #endif
; 545  : 	gCreditDonate.GCChangeClassConfig(aIndex);

  00bd6	8b 45 08	 mov	 eax, DWORD PTR _aIndex$[ebp]
  00bd9	50		 push	 eax
  00bda	b9 00 00 00 00	 mov	 ecx, OFFSET ?gCreditDonate@@3VcCreditDonate@@A ; gCreditDonate
  00bdf	e8 00 00 00 00	 call	 ?GCChangeClassConfig@cCreditDonate@@QAEXH@Z ; cCreditDonate::GCChangeClassConfig

; 546  : 	g_PremiumSystemEx.GC_Config(aIndex);

  00be4	8b 45 08	 mov	 eax, DWORD PTR _aIndex$[ebp]
  00be7	50		 push	 eax
  00be8	b9 00 00 00 00	 mov	 ecx, OFFSET ?g_PremiumSystemEx@@3VPremiumSystemEx@@A ; g_PremiumSystemEx
  00bed	e8 00 00 00 00	 call	 ?GC_Config@PremiumSystemEx@@QAEXH@Z ; PremiumSystemEx::GC_Config
$LN2@GCDataClie:

; 547  : }

  00bf2	5f		 pop	 edi
  00bf3	5e		 pop	 esi
  00bf4	5b		 pop	 ebx
  00bf5	8b e5		 mov	 esp, ebp
  00bf7	5d		 pop	 ebp
  00bf8	c2 04 00	 ret	 4
?GCDataClient@ÑExUser@@QAEXH@Z ENDP			; ÑExUser::GCDataClient
_TEXT	ENDS
PUBLIC	??_C@_0BO@LGAPNCOI@?$FLAddPoints?$FN?5Total?5Point?5Error?$AA@ ; `string'
PUBLIC	?__LINE__Var@?1??CGAddPoints@ÑExUser@@QAEXHPAUPMSG_ADD_POINTS@@@Z@4JA ; `ÑExUser::CGAddPoints'::`2'::__LINE__Var
PUBLIC	?CGAddPoints@ÑExUser@@QAEXHPAUPMSG_ADD_POINTS@@@Z ; ÑExUser::CGAddPoints
EXTRN	?UpdateCharInfo@@YAXH@Z:PROC			; UpdateCharInfo
EXTRN	?gObjCalCharacter@@YAXH@Z:PROC			; gObjCalCharacter
EXTRN	?DCInfo@@3Vclassdef@@A:BYTE			; DCInfo
EXTRN	?MsgOutput@@YAXHPADZZ:PROC			; MsgOutput
;	COMDAT ??_C@_0BO@LGAPNCOI@?$FLAddPoints?$FN?5Total?5Point?5Error?$AA@
CONST	SEGMENT
??_C@_0BO@LGAPNCOI@?$FLAddPoints?$FN?5Total?5Point?5Error?$AA@ DB '[AddPo'
	DB	'ints] Total Point Error', 00H		; `string'
CONST	ENDS
;	COMDAT ?__LINE__Var@?1??CGAddPoints@ÑExUser@@QAEXHPAUPMSG_ADD_POINTS@@@Z@4JA
_DATA	SEGMENT
?__LINE__Var@?1??CGAddPoints@ÑExUser@@QAEXHPAUPMSG_ADD_POINTS@@@Z@4JA DD 0227H ; `ÑExUser::CGAddPoints'::`2'::__LINE__Var
; Function compile flags: /Odtp /ZI
_DATA	ENDS
_TEXT	SEGMENT
tv468 = -84						; size = 4
tv454 = -84						; size = 4
tv440 = -84						; size = 4
tv426 = -84						; size = 4
tv463 = -80						; size = 4
tv449 = -80						; size = 4
tv435 = -80						; size = 4
tv421 = -80						; size = 4
tv67 = -80						; size = 4
_TotalCheck$ = -12					; size = 4
_lpUser$ = -8						; size = 4
_this$ = -4						; size = 4
_aIndex$ = 8						; size = 4
_aRecv$ = 12						; size = 4
?CGAddPoints@ÑExUser@@QAEXHPAUPMSG_ADD_POINTS@@@Z PROC	; ÑExUser::CGAddPoints
; _this$ = ecx

; 551  : {

  00c00	55		 push	 ebp
  00c01	8b ec		 mov	 ebp, esp
  00c03	83 ec 54	 sub	 esp, 84			; 00000054H
  00c06	53		 push	 ebx
  00c07	56		 push	 esi
  00c08	57		 push	 edi
  00c09	89 4d fc	 mov	 DWORD PTR _this$[ebp], ecx

; 552  : 	if ( OBJMAX_RANGE(aIndex) == FALSE )

  00c0c	83 7d 08 00	 cmp	 DWORD PTR _aIndex$[ebp], 0
  00c10	7d 09		 jge	 SHORT $LN12@CGAddPoint
  00c12	c7 45 b0 00 00
	00 00		 mov	 DWORD PTR tv67[ebp], 0
  00c19	eb 0f		 jmp	 SHORT $LN13@CGAddPoint
$LN12@CGAddPoint:
  00c1b	33 c0		 xor	 eax, eax
  00c1d	81 7d 08 97 3a
	00 00		 cmp	 DWORD PTR _aIndex$[ebp], 14999 ; 00003a97H
  00c24	0f 9e c0	 setle	 al
  00c27	89 45 b0	 mov	 DWORD PTR tv67[ebp], eax
$LN13@CGAddPoint:
  00c2a	83 7d b0 00	 cmp	 DWORD PTR tv67[ebp], 0
  00c2e	75 21		 jne	 SHORT $LN9@CGAddPoint

; 553  : 	{
; 554  : 		LogAdd("error : %s %d", __FILE__, __LINE__ );

  00c30	a1 00 00 00 00	 mov	 eax, DWORD PTR ?__LINE__Var@?1??CGAddPoints@ÑExUser@@QAEXHPAUPMSG_ADD_POINTS@@@Z@4JA
  00c35	83 c0 03	 add	 eax, 3
  00c38	50		 push	 eax
  00c39	68 00 00 00 00	 push	 OFFSET ??_C@_0DO@JCDPNHJI@d?3?2projects?2exteam6?43?2source?2gam@
  00c3e	68 00 00 00 00	 push	 OFFSET ??_C@_0O@CKAEPJAF@error?5?3?5?$CFs?5?$CFd?$AA@
  00c43	ff 15 00 00 00
	00		 call	 DWORD PTR ?LogAdd@@3P6AXPADZZA ; LogAdd
  00c49	83 c4 0c	 add	 esp, 12			; 0000000cH

; 555  : 		return;

  00c4c	e9 31 04 00 00	 jmp	 $LN10@CGAddPoint
$LN9@CGAddPoint:

; 556  : 	}
; 557  : 
; 558  : 	LPOBJ lpUser = &gObj[aIndex];

  00c51	8b 45 08	 mov	 eax, DWORD PTR _aIndex$[ebp]
  00c54	69 c0 38 2b 00
	00		 imul	 eax, 11064		; 00002b38H
  00c5a	03 05 00 00 00
	00		 add	 eax, DWORD PTR ?gObj@@3PAUOBJECTSTRUCT@@A ; gObj
  00c60	89 45 f8	 mov	 DWORD PTR _lpUser$[ebp], eax

; 559  : 
; 560  : 	if(lpUser->Connected < PLAYER_PLAYING)

  00c63	8b 45 f8	 mov	 eax, DWORD PTR _lpUser$[ebp]
  00c66	83 78 04 03	 cmp	 DWORD PTR [eax+4], 3
  00c6a	7d 05		 jge	 SHORT $LN8@CGAddPoint

; 561  : 	{
; 562  : 		return;

  00c6c	e9 11 04 00 00	 jmp	 $LN10@CGAddPoint
$LN8@CGAddPoint:

; 563  : 	}
; 564  : 
; 565  : 	if(lpUser->Type != OBJ_USER)

  00c71	8b 45 f8	 mov	 eax, DWORD PTR _lpUser$[ebp]
  00c74	0f b7 48 68	 movzx	 ecx, WORD PTR [eax+104]
  00c78	83 f9 01	 cmp	 ecx, 1
  00c7b	74 05		 je	 SHORT $LN7@CGAddPoint

; 566  : 	{
; 567  : 		return;

  00c7d	e9 00 04 00 00	 jmp	 $LN10@CGAddPoint
$LN7@CGAddPoint:

; 568  : 	}
; 569  : 
; 570  : 	if(lpUser->Strength + aRecv->Strength > ExConfig.Character.MaxStats)

  00c82	8b 45 f8	 mov	 eax, DWORD PTR _lpUser$[ebp]
  00c85	0f b7 88 f4 00
	00 00		 movzx	 ecx, WORD PTR [eax+244]
  00c8c	8b 55 0c	 mov	 edx, DWORD PTR _aRecv$[ebp]
  00c8f	0f b7 42 04	 movzx	 eax, WORD PTR [edx+4]
  00c93	03 c8		 add	 ecx, eax
  00c95	3b 0d 50 01 00
	00		 cmp	 ecx, DWORD PTR ?ExConfig@@3VcExConfigs@@A+336
  00c9b	7e 05		 jle	 SHORT $LN6@CGAddPoint

; 571  : 	{
; 572  : 		return;

  00c9d	e9 e0 03 00 00	 jmp	 $LN10@CGAddPoint
$LN6@CGAddPoint:

; 573  : 	}
; 574  : 	if(lpUser->Dexterity + aRecv->Dexterity > ExConfig.Character.MaxStats)

  00ca2	8b 45 f8	 mov	 eax, DWORD PTR _lpUser$[ebp]
  00ca5	0f b7 88 f6 00
	00 00		 movzx	 ecx, WORD PTR [eax+246]
  00cac	8b 55 0c	 mov	 edx, DWORD PTR _aRecv$[ebp]
  00caf	0f b7 42 06	 movzx	 eax, WORD PTR [edx+6]
  00cb3	03 c8		 add	 ecx, eax
  00cb5	3b 0d 50 01 00
	00		 cmp	 ecx, DWORD PTR ?ExConfig@@3VcExConfigs@@A+336
  00cbb	7e 05		 jle	 SHORT $LN5@CGAddPoint

; 575  : 	{
; 576  : 		return;

  00cbd	e9 c0 03 00 00	 jmp	 $LN10@CGAddPoint
$LN5@CGAddPoint:

; 577  : 	}
; 578  : 	if(lpUser->Vitality + aRecv->Vitality > ExConfig.Character.MaxStats)

  00cc2	8b 45 f8	 mov	 eax, DWORD PTR _lpUser$[ebp]
  00cc5	0f b7 88 f8 00
	00 00		 movzx	 ecx, WORD PTR [eax+248]
  00ccc	8b 55 0c	 mov	 edx, DWORD PTR _aRecv$[ebp]
  00ccf	0f b7 42 08	 movzx	 eax, WORD PTR [edx+8]
  00cd3	03 c8		 add	 ecx, eax
  00cd5	3b 0d 50 01 00
	00		 cmp	 ecx, DWORD PTR ?ExConfig@@3VcExConfigs@@A+336
  00cdb	7e 05		 jle	 SHORT $LN4@CGAddPoint

; 579  : 	{
; 580  : 		return;

  00cdd	e9 a0 03 00 00	 jmp	 $LN10@CGAddPoint
$LN4@CGAddPoint:

; 581  : 	}
; 582  : 	if(lpUser->Energy + aRecv->Energy > ExConfig.Character.MaxStats)

  00ce2	8b 45 f8	 mov	 eax, DWORD PTR _lpUser$[ebp]
  00ce5	0f b7 88 fa 00
	00 00		 movzx	 ecx, WORD PTR [eax+250]
  00cec	8b 55 0c	 mov	 edx, DWORD PTR _aRecv$[ebp]
  00cef	0f b7 42 0a	 movzx	 eax, WORD PTR [edx+10]
  00cf3	03 c8		 add	 ecx, eax
  00cf5	3b 0d 50 01 00
	00		 cmp	 ecx, DWORD PTR ?ExConfig@@3VcExConfigs@@A+336
  00cfb	7e 05		 jle	 SHORT $LN3@CGAddPoint

; 583  : 	{
; 584  : 		return;

  00cfd	e9 80 03 00 00	 jmp	 $LN10@CGAddPoint
$LN3@CGAddPoint:

; 585  : 	}
; 586  : 	if(lpUser->Leadership + aRecv->Leadership > ExConfig.Character.MaxStats)

  00d02	8b 45 f8	 mov	 eax, DWORD PTR _lpUser$[ebp]
  00d05	0f b7 88 18 01
	00 00		 movzx	 ecx, WORD PTR [eax+280]
  00d0c	8b 55 0c	 mov	 edx, DWORD PTR _aRecv$[ebp]
  00d0f	0f b7 42 0c	 movzx	 eax, WORD PTR [edx+12]
  00d13	03 c8		 add	 ecx, eax
  00d15	3b 0d 50 01 00
	00		 cmp	 ecx, DWORD PTR ?ExConfig@@3VcExConfigs@@A+336
  00d1b	7e 05		 jle	 SHORT $LN2@CGAddPoint

; 587  : 	{
; 588  : 		return;

  00d1d	e9 60 03 00 00	 jmp	 $LN10@CGAddPoint
$LN2@CGAddPoint:

; 589  : 	}
; 590  : 
; 591  : 	int TotalCheck = aRecv->Strength + aRecv->Dexterity + aRecv->Vitality + aRecv->Energy + aRecv->Leadership;

  00d22	8b 45 0c	 mov	 eax, DWORD PTR _aRecv$[ebp]
  00d25	0f b7 48 04	 movzx	 ecx, WORD PTR [eax+4]
  00d29	8b 55 0c	 mov	 edx, DWORD PTR _aRecv$[ebp]
  00d2c	0f b7 42 06	 movzx	 eax, WORD PTR [edx+6]
  00d30	03 c8		 add	 ecx, eax
  00d32	8b 55 0c	 mov	 edx, DWORD PTR _aRecv$[ebp]
  00d35	0f b7 42 08	 movzx	 eax, WORD PTR [edx+8]
  00d39	03 c8		 add	 ecx, eax
  00d3b	8b 55 0c	 mov	 edx, DWORD PTR _aRecv$[ebp]
  00d3e	0f b7 42 0a	 movzx	 eax, WORD PTR [edx+10]
  00d42	03 c8		 add	 ecx, eax
  00d44	8b 55 0c	 mov	 edx, DWORD PTR _aRecv$[ebp]
  00d47	0f b7 42 0c	 movzx	 eax, WORD PTR [edx+12]
  00d4b	03 c8		 add	 ecx, eax
  00d4d	89 4d f4	 mov	 DWORD PTR _TotalCheck$[ebp], ecx

; 592  : 
; 593  : 	if(TotalCheck > lpUser->LevelUpPoint)

  00d50	8b 45 f8	 mov	 eax, DWORD PTR _lpUser$[ebp]
  00d53	8b 4d f4	 mov	 ecx, DWORD PTR _TotalCheck$[ebp]
  00d56	3b 88 c0 00 00
	00		 cmp	 ecx, DWORD PTR [eax+192]
  00d5c	7e 16		 jle	 SHORT $LN1@CGAddPoint

; 594  : 	{
; 595  : 		MsgOutput(aIndex, "[AddPoints] Total Point Error");

  00d5e	68 00 00 00 00	 push	 OFFSET ??_C@_0BO@LGAPNCOI@?$FLAddPoints?$FN?5Total?5Point?5Error?$AA@
  00d63	8b 45 08	 mov	 eax, DWORD PTR _aIndex$[ebp]
  00d66	50		 push	 eax
  00d67	e8 00 00 00 00	 call	 ?MsgOutput@@YAXHPADZZ	; MsgOutput
  00d6c	83 c4 08	 add	 esp, 8

; 596  : 		return;

  00d6f	e9 0e 03 00 00	 jmp	 $LN10@CGAddPoint
$LN1@CGAddPoint:

; 597  : 	}
; 598  : 
; 599  : 	lpUser->Strength		+= aRecv->Strength;

  00d74	8b 45 0c	 mov	 eax, DWORD PTR _aRecv$[ebp]
  00d77	0f b7 48 04	 movzx	 ecx, WORD PTR [eax+4]
  00d7b	8b 55 f8	 mov	 edx, DWORD PTR _lpUser$[ebp]
  00d7e	0f b7 82 f4 00
	00 00		 movzx	 eax, WORD PTR [edx+244]
  00d85	03 c1		 add	 eax, ecx
  00d87	8b 4d f8	 mov	 ecx, DWORD PTR _lpUser$[ebp]
  00d8a	66 89 81 f4 00
	00 00		 mov	 WORD PTR [ecx+244], ax

; 600  : 	lpUser->Dexterity		+= aRecv->Dexterity;

  00d91	8b 45 0c	 mov	 eax, DWORD PTR _aRecv$[ebp]
  00d94	0f b7 48 06	 movzx	 ecx, WORD PTR [eax+6]
  00d98	8b 55 f8	 mov	 edx, DWORD PTR _lpUser$[ebp]
  00d9b	0f b7 82 f6 00
	00 00		 movzx	 eax, WORD PTR [edx+246]
  00da2	03 c1		 add	 eax, ecx
  00da4	8b 4d f8	 mov	 ecx, DWORD PTR _lpUser$[ebp]
  00da7	66 89 81 f6 00
	00 00		 mov	 WORD PTR [ecx+246], ax

; 601  : 	lpUser->Vitality		+= aRecv->Vitality;

  00dae	8b 45 0c	 mov	 eax, DWORD PTR _aRecv$[ebp]
  00db1	0f b7 48 08	 movzx	 ecx, WORD PTR [eax+8]
  00db5	8b 55 f8	 mov	 edx, DWORD PTR _lpUser$[ebp]
  00db8	0f b7 82 f8 00
	00 00		 movzx	 eax, WORD PTR [edx+248]
  00dbf	03 c1		 add	 eax, ecx
  00dc1	8b 4d f8	 mov	 ecx, DWORD PTR _lpUser$[ebp]
  00dc4	66 89 81 f8 00
	00 00		 mov	 WORD PTR [ecx+248], ax

; 602  : 	lpUser->Energy			+= aRecv->Energy;

  00dcb	8b 45 0c	 mov	 eax, DWORD PTR _aRecv$[ebp]
  00dce	0f b7 48 0a	 movzx	 ecx, WORD PTR [eax+10]
  00dd2	8b 55 f8	 mov	 edx, DWORD PTR _lpUser$[ebp]
  00dd5	0f b7 82 fa 00
	00 00		 movzx	 eax, WORD PTR [edx+250]
  00ddc	03 c1		 add	 eax, ecx
  00dde	8b 4d f8	 mov	 ecx, DWORD PTR _lpUser$[ebp]
  00de1	66 89 81 fa 00
	00 00		 mov	 WORD PTR [ecx+250], ax

; 603  : 	lpUser->Leadership		+= aRecv->Leadership;

  00de8	8b 45 0c	 mov	 eax, DWORD PTR _aRecv$[ebp]
  00deb	0f b7 48 0c	 movzx	 ecx, WORD PTR [eax+12]
  00def	8b 55 f8	 mov	 edx, DWORD PTR _lpUser$[ebp]
  00df2	0f b7 82 18 01
	00 00		 movzx	 eax, WORD PTR [edx+280]
  00df9	03 c1		 add	 eax, ecx
  00dfb	8b 4d f8	 mov	 ecx, DWORD PTR _lpUser$[ebp]
  00dfe	66 89 81 18 01
	00 00		 mov	 WORD PTR [ecx+280], ax

; 604  : 	lpUser->LevelUpPoint	-= TotalCheck;

  00e05	8b 45 f8	 mov	 eax, DWORD PTR _lpUser$[ebp]
  00e08	8b 88 c0 00 00
	00		 mov	 ecx, DWORD PTR [eax+192]
  00e0e	2b 4d f4	 sub	 ecx, DWORD PTR _TotalCheck$[ebp]
  00e11	8b 55 f8	 mov	 edx, DWORD PTR _lpUser$[ebp]
  00e14	89 8a c0 00 00
	00		 mov	 DWORD PTR [edx+192], ecx

; 605  : 
; 606  : 	lpUser->Life = DCInfo.DefClass[lpUser->Class].Life + (lpUser->Level + lpUser->MLevel - 1) * DCInfo.DefClass[lpUser->Class].LevelLife  + ((lpUser->Vitality - DCInfo.DefClass[lpUser->Class].Vitality ) * DCInfo.DefClass[lpUser->Class].VitalityToLife);

  00e1a	8b 45 f8	 mov	 eax, DWORD PTR _lpUser$[ebp]
  00e1d	0f b7 88 b8 00
	00 00		 movzx	 ecx, WORD PTR [eax+184]
  00e24	69 c9 c8 0b 00
	00		 imul	 ecx, 3016		; 00000bc8H
  00e2a	8b 55 f8	 mov	 edx, DWORD PTR _lpUser$[ebp]
  00e2d	0f bf 82 be 00
	00 00		 movsx	 eax, WORD PTR [edx+190]
  00e34	8b 55 f8	 mov	 edx, DWORD PTR _lpUser$[ebp]
  00e37	0f bf 92 d0 00
	00 00		 movsx	 edx, WORD PTR [edx+208]
  00e3e	8d 44 10 ff	 lea	 eax, DWORD PTR [eax+edx-1]
  00e42	89 45 b0	 mov	 DWORD PTR tv421[ebp], eax
  00e45	db 45 b0	 fild	 DWORD PTR tv421[ebp]
  00e48	8b 55 f8	 mov	 edx, DWORD PTR _lpUser$[ebp]
  00e4b	0f b7 82 b8 00
	00 00		 movzx	 eax, WORD PTR [edx+184]
  00e52	69 c0 c8 0b 00
	00		 imul	 eax, 3016		; 00000bc8H
  00e58	d8 88 10 00 00
	00		 fmul	 DWORD PTR ?DCInfo@@3Vclassdef@@A[eax+16]
  00e5e	d8 81 14 00 00
	00		 fadd	 DWORD PTR ?DCInfo@@3Vclassdef@@A[ecx+20]
  00e64	8b 4d f8	 mov	 ecx, DWORD PTR _lpUser$[ebp]
  00e67	0f b7 91 f8 00
	00 00		 movzx	 edx, WORD PTR [ecx+248]
  00e6e	8b 45 f8	 mov	 eax, DWORD PTR _lpUser$[ebp]
  00e71	0f b7 88 b8 00
	00 00		 movzx	 ecx, WORD PTR [eax+184]
  00e78	69 c9 c8 0b 00
	00		 imul	 ecx, 3016		; 00000bc8H
  00e7e	0f b7 81 0c 00
	00 00		 movzx	 eax, WORD PTR ?DCInfo@@3Vclassdef@@A[ecx+12]
  00e85	2b d0		 sub	 edx, eax
  00e87	89 55 ac	 mov	 DWORD PTR tv426[ebp], edx
  00e8a	db 45 ac	 fild	 DWORD PTR tv426[ebp]
  00e8d	8b 4d f8	 mov	 ecx, DWORD PTR _lpUser$[ebp]
  00e90	0f b7 91 b8 00
	00 00		 movzx	 edx, WORD PTR [ecx+184]
  00e97	69 d2 c8 0b 00
	00		 imul	 edx, 3016		; 00000bc8H
  00e9d	d8 8a 28 00 00
	00		 fmul	 DWORD PTR ?DCInfo@@3Vclassdef@@A[edx+40]
  00ea3	de c1		 faddp	 ST(1), ST(0)
  00ea5	8b 45 f8	 mov	 eax, DWORD PTR _lpUser$[ebp]
  00ea8	d9 98 fc 00 00
	00		 fstp	 DWORD PTR [eax+252]

; 607  : 	lpUser->Mana = DCInfo.DefClass[lpUser->Class].Mana + (lpUser->Level + lpUser->MLevel - 1) * DCInfo.DefClass[lpUser->Class].LevelMana  + ((lpUser->Energy - DCInfo.DefClass[lpUser->Class].Energy ) * DCInfo.DefClass[lpUser->Class].EnergyToMana);

  00eae	8b 45 f8	 mov	 eax, DWORD PTR _lpUser$[ebp]
  00eb1	0f b7 88 b8 00
	00 00		 movzx	 ecx, WORD PTR [eax+184]
  00eb8	69 c9 c8 0b 00
	00		 imul	 ecx, 3016		; 00000bc8H
  00ebe	8b 55 f8	 mov	 edx, DWORD PTR _lpUser$[ebp]
  00ec1	0f bf 82 be 00
	00 00		 movsx	 eax, WORD PTR [edx+190]
  00ec8	8b 55 f8	 mov	 edx, DWORD PTR _lpUser$[ebp]
  00ecb	0f bf 92 d0 00
	00 00		 movsx	 edx, WORD PTR [edx+208]
  00ed2	8d 44 10 ff	 lea	 eax, DWORD PTR [eax+edx-1]
  00ed6	89 45 b0	 mov	 DWORD PTR tv435[ebp], eax
  00ed9	db 45 b0	 fild	 DWORD PTR tv435[ebp]
  00edc	8b 55 f8	 mov	 edx, DWORD PTR _lpUser$[ebp]
  00edf	0f b7 82 b8 00
	00 00		 movzx	 eax, WORD PTR [edx+184]
  00ee6	69 c0 c8 0b 00
	00		 imul	 eax, 3016		; 00000bc8H
  00eec	d8 88 1c 00 00
	00		 fmul	 DWORD PTR ?DCInfo@@3Vclassdef@@A[eax+28]
  00ef2	d8 81 20 00 00
	00		 fadd	 DWORD PTR ?DCInfo@@3Vclassdef@@A[ecx+32]
  00ef8	8b 4d f8	 mov	 ecx, DWORD PTR _lpUser$[ebp]
  00efb	0f b7 91 fa 00
	00 00		 movzx	 edx, WORD PTR [ecx+250]
  00f02	8b 45 f8	 mov	 eax, DWORD PTR _lpUser$[ebp]
  00f05	0f b7 88 b8 00
	00 00		 movzx	 ecx, WORD PTR [eax+184]
  00f0c	69 c9 c8 0b 00
	00		 imul	 ecx, 3016		; 00000bc8H
  00f12	0f b7 81 0e 00
	00 00		 movzx	 eax, WORD PTR ?DCInfo@@3Vclassdef@@A[ecx+14]
  00f19	2b d0		 sub	 edx, eax
  00f1b	89 55 ac	 mov	 DWORD PTR tv440[ebp], edx
  00f1e	db 45 ac	 fild	 DWORD PTR tv440[ebp]
  00f21	8b 4d f8	 mov	 ecx, DWORD PTR _lpUser$[ebp]
  00f24	0f b7 91 b8 00
	00 00		 movzx	 edx, WORD PTR [ecx+184]
  00f2b	69 d2 c8 0b 00
	00		 imul	 edx, 3016		; 00000bc8H
  00f31	d8 8a 2c 00 00
	00		 fmul	 DWORD PTR ?DCInfo@@3Vclassdef@@A[edx+44]
  00f37	de c1		 faddp	 ST(1), ST(0)
  00f39	8b 45 f8	 mov	 eax, DWORD PTR _lpUser$[ebp]
  00f3c	d9 98 10 01 00
	00		 fstp	 DWORD PTR [eax+272]

; 608  : 
; 609  : 	lpUser->MaxLife = DCInfo.DefClass[lpUser->Class].Life + (lpUser->Level + lpUser->MLevel - 1) * DCInfo.DefClass[lpUser->Class].LevelLife  + ((lpUser->Vitality - DCInfo.DefClass[lpUser->Class].Vitality ) * DCInfo.DefClass[lpUser->Class].VitalityToLife);

  00f42	8b 45 f8	 mov	 eax, DWORD PTR _lpUser$[ebp]
  00f45	0f b7 88 b8 00
	00 00		 movzx	 ecx, WORD PTR [eax+184]
  00f4c	69 c9 c8 0b 00
	00		 imul	 ecx, 3016		; 00000bc8H
  00f52	8b 55 f8	 mov	 edx, DWORD PTR _lpUser$[ebp]
  00f55	0f bf 82 be 00
	00 00		 movsx	 eax, WORD PTR [edx+190]
  00f5c	8b 55 f8	 mov	 edx, DWORD PTR _lpUser$[ebp]
  00f5f	0f bf 92 d0 00
	00 00		 movsx	 edx, WORD PTR [edx+208]
  00f66	8d 44 10 ff	 lea	 eax, DWORD PTR [eax+edx-1]
  00f6a	89 45 b0	 mov	 DWORD PTR tv449[ebp], eax
  00f6d	db 45 b0	 fild	 DWORD PTR tv449[ebp]
  00f70	8b 55 f8	 mov	 edx, DWORD PTR _lpUser$[ebp]
  00f73	0f b7 82 b8 00
	00 00		 movzx	 eax, WORD PTR [edx+184]
  00f7a	69 c0 c8 0b 00
	00		 imul	 eax, 3016		; 00000bc8H
  00f80	d8 88 10 00 00
	00		 fmul	 DWORD PTR ?DCInfo@@3Vclassdef@@A[eax+16]
  00f86	d8 81 14 00 00
	00		 fadd	 DWORD PTR ?DCInfo@@3Vclassdef@@A[ecx+20]
  00f8c	8b 4d f8	 mov	 ecx, DWORD PTR _lpUser$[ebp]
  00f8f	0f b7 91 f8 00
	00 00		 movzx	 edx, WORD PTR [ecx+248]
  00f96	8b 45 f8	 mov	 eax, DWORD PTR _lpUser$[ebp]
  00f99	0f b7 88 b8 00
	00 00		 movzx	 ecx, WORD PTR [eax+184]
  00fa0	69 c9 c8 0b 00
	00		 imul	 ecx, 3016		; 00000bc8H
  00fa6	0f b7 81 0c 00
	00 00		 movzx	 eax, WORD PTR ?DCInfo@@3Vclassdef@@A[ecx+12]
  00fad	2b d0		 sub	 edx, eax
  00faf	89 55 ac	 mov	 DWORD PTR tv454[ebp], edx
  00fb2	db 45 ac	 fild	 DWORD PTR tv454[ebp]
  00fb5	8b 4d f8	 mov	 ecx, DWORD PTR _lpUser$[ebp]
  00fb8	0f b7 91 b8 00
	00 00		 movzx	 edx, WORD PTR [ecx+184]
  00fbf	69 d2 c8 0b 00
	00		 imul	 edx, 3016		; 00000bc8H
  00fc5	d8 8a 28 00 00
	00		 fmul	 DWORD PTR ?DCInfo@@3Vclassdef@@A[edx+40]
  00fcb	de c1		 faddp	 ST(1), ST(0)
  00fcd	8b 45 f8	 mov	 eax, DWORD PTR _lpUser$[ebp]
  00fd0	d9 98 00 01 00
	00		 fstp	 DWORD PTR [eax+256]

; 610  : 	lpUser->MaxMana = DCInfo.DefClass[lpUser->Class].Mana + (lpUser->Level + lpUser->MLevel - 1) * DCInfo.DefClass[lpUser->Class].LevelMana  + ((lpUser->Energy - DCInfo.DefClass[lpUser->Class].Energy ) * DCInfo.DefClass[lpUser->Class].EnergyToMana);

  00fd6	8b 45 f8	 mov	 eax, DWORD PTR _lpUser$[ebp]
  00fd9	0f b7 88 b8 00
	00 00		 movzx	 ecx, WORD PTR [eax+184]
  00fe0	69 c9 c8 0b 00
	00		 imul	 ecx, 3016		; 00000bc8H
  00fe6	8b 55 f8	 mov	 edx, DWORD PTR _lpUser$[ebp]
  00fe9	0f bf 82 be 00
	00 00		 movsx	 eax, WORD PTR [edx+190]
  00ff0	8b 55 f8	 mov	 edx, DWORD PTR _lpUser$[ebp]
  00ff3	0f bf 92 d0 00
	00 00		 movsx	 edx, WORD PTR [edx+208]
  00ffa	8d 44 10 ff	 lea	 eax, DWORD PTR [eax+edx-1]
  00ffe	89 45 b0	 mov	 DWORD PTR tv463[ebp], eax
  01001	db 45 b0	 fild	 DWORD PTR tv463[ebp]
  01004	8b 55 f8	 mov	 edx, DWORD PTR _lpUser$[ebp]
  01007	0f b7 82 b8 00
	00 00		 movzx	 eax, WORD PTR [edx+184]
  0100e	69 c0 c8 0b 00
	00		 imul	 eax, 3016		; 00000bc8H
  01014	d8 88 1c 00 00
	00		 fmul	 DWORD PTR ?DCInfo@@3Vclassdef@@A[eax+28]
  0101a	d8 81 20 00 00
	00		 fadd	 DWORD PTR ?DCInfo@@3Vclassdef@@A[ecx+32]
  01020	8b 4d f8	 mov	 ecx, DWORD PTR _lpUser$[ebp]
  01023	0f b7 91 fa 00
	00 00		 movzx	 edx, WORD PTR [ecx+250]
  0102a	8b 45 f8	 mov	 eax, DWORD PTR _lpUser$[ebp]
  0102d	0f b7 88 b8 00
	00 00		 movzx	 ecx, WORD PTR [eax+184]
  01034	69 c9 c8 0b 00
	00		 imul	 ecx, 3016		; 00000bc8H
  0103a	0f b7 81 0e 00
	00 00		 movzx	 eax, WORD PTR ?DCInfo@@3Vclassdef@@A[ecx+14]
  01041	2b d0		 sub	 edx, eax
  01043	89 55 ac	 mov	 DWORD PTR tv468[ebp], edx
  01046	db 45 ac	 fild	 DWORD PTR tv468[ebp]
  01049	8b 4d f8	 mov	 ecx, DWORD PTR _lpUser$[ebp]
  0104c	0f b7 91 b8 00
	00 00		 movzx	 edx, WORD PTR [ecx+184]
  01053	69 d2 c8 0b 00
	00		 imul	 edx, 3016		; 00000bc8H
  01059	d8 8a 2c 00 00
	00		 fmul	 DWORD PTR ?DCInfo@@3Vclassdef@@A[edx+44]
  0105f	de c1		 faddp	 ST(1), ST(0)
  01061	8b 45 f8	 mov	 eax, DWORD PTR _lpUser$[ebp]
  01064	d9 98 14 01 00
	00		 fstp	 DWORD PTR [eax+276]

; 611  : 
; 612  : 
; 613  : 	gObjCalCharacter(aIndex);

  0106a	8b 45 08	 mov	 eax, DWORD PTR _aIndex$[ebp]
  0106d	50		 push	 eax
  0106e	e8 00 00 00 00	 call	 ?gObjCalCharacter@@YAXH@Z ; gObjCalCharacter
  01073	83 c4 04	 add	 esp, 4

; 614  : 
; 615  : 	UpdateCharInfo(aIndex);

  01076	8b 45 08	 mov	 eax, DWORD PTR _aIndex$[ebp]
  01079	50		 push	 eax
  0107a	e8 00 00 00 00	 call	 ?UpdateCharInfo@@YAXH@Z	; UpdateCharInfo
  0107f	83 c4 04	 add	 esp, 4
$LN10@CGAddPoint:

; 616  : }

  01082	5f		 pop	 edi
  01083	5e		 pop	 esi
  01084	5b		 pop	 ebx
  01085	8b e5		 mov	 esp, ebp
  01087	5d		 pop	 ebp
  01088	c2 08 00	 ret	 8
?CGAddPoints@ÑExUser@@QAEXHPAUPMSG_ADD_POINTS@@@Z ENDP	; ÑExUser::CGAddPoints
_TEXT	ENDS
PUBLIC	?__LINE__Var@?1??CGResetPoints@ÑExUser@@QAEXHPAUPMSG_ADD_POINTSRESET@@@Z@4JA ; `ÑExUser::CGResetPoints'::`2'::__LINE__Var
PUBLIC	?CGResetPoints@ÑExUser@@QAEXHPAUPMSG_ADD_POINTSRESET@@@Z ; ÑExUser::CGResetPoints
EXTRN	?GCManaSend@@YAXHHEEH@Z:PROC			; GCManaSend
EXTRN	?GCReFillSend@@YAXHHEEH@Z:PROC			; GCReFillSend
EXTRN	?gObjCalcMaxLifePower@@YAXH@Z:PROC		; gObjCalcMaxLifePower
EXTRN	?gObjSetBP@@YAXH@Z:PROC				; gObjSetBP
EXTRN	?GDSaveUserInfo@GameShop@@QAEXH@Z:PROC		; GameShop::GDSaveUserInfo
EXTRN	?gGameShop@@3VGameShop@@A:BYTE			; gGameShop
;	COMDAT ?__LINE__Var@?1??CGResetPoints@ÑExUser@@QAEXHPAUPMSG_ADD_POINTSRESET@@@Z@4JA
_DATA	SEGMENT
?__LINE__Var@?1??CGResetPoints@ÑExUser@@QAEXHPAUPMSG_ADD_POINTSRESET@@@Z@4JA DD 026dH ; `ÑExUser::CGResetPoints'::`2'::__LINE__Var
; Function compile flags: /Odtp /ZI
_DATA	ENDS
_TEXT	SEGMENT
tv702 = -84						; size = 4
tv688 = -84						; size = 4
tv674 = -84						; size = 4
tv660 = -84						; size = 4
tv697 = -80						; size = 4
tv683 = -80						; size = 4
tv669 = -80						; size = 4
tv655 = -80						; size = 4
tv195 = -80						; size = 4
_TotalPoint$ = -12					; size = 4
_lpUser$ = -8						; size = 4
_this$ = -4						; size = 4
_aIndex$ = 8						; size = 4
_aRecv$ = 12						; size = 4
?CGResetPoints@ÑExUser@@QAEXHPAUPMSG_ADD_POINTSRESET@@@Z PROC ; ÑExUser::CGResetPoints
; _this$ = ecx

; 621  : {

  01090	55		 push	 ebp
  01091	8b ec		 mov	 ebp, esp
  01093	83 ec 54	 sub	 esp, 84			; 00000054H
  01096	53		 push	 ebx
  01097	56		 push	 esi
  01098	57		 push	 edi
  01099	89 4d fc	 mov	 DWORD PTR _this$[ebp], ecx

; 622  : #if(ADD_ADD_RESETPOINT==0)
; 623  : 	return;
; 624  : #endif
; 625  : 
; 626  : 	if( !g_ExLicense.CheckUser(eExUB::Local) && 
; 627  : 		!g_ExLicense.CheckUser(eExUB::Gredy) &&
; 628  : 		!g_ExLicense.CheckUser(eExUB::Gredy2) && 
; 629  : 		!g_ExLicense.CheckUser(eExUB::MU2Play) &&
; 630  : 		!g_ExLicense.CheckUser(eExUB::GredyLocal) &&
; 631  : 		!g_ExLicense.CheckUser(eExUB::SILVER1) &&
; 632  : 		!g_ExLicense.CheckUser(eExUB::SILVER2) &&
; 633  : 		!g_ExLicense.CheckUser(eExUB::EpicMU) &&
; 634  : 		!THINNAKORN_MAC &&
; 635  : 		!g_ExLicense.CheckUser(eExUB::Escalate)&&
; 636  : 		!g_ExLicense.CheckUser(eExUB::eternalmu)&&
; 637  : 		!g_ExLicense.CheckUser(eExUB::Artem) &&
; 638  : 		!g_ExLicense.CheckUser(eExUB::Artem2) &&
; 639  : 		!g_ExLicense.CheckUser(eExUB::RevoMU)&&
; 640  : 		!g_ExLicense.CheckUser(eExUB::masonX)&&
; 641  : 		!g_ExLicense.CheckUser(eExUB::ArcMu) &&
; 642  : 		!g_ExLicense.CheckUser(eExUB::GloryMU) &&
; 643  : 		!g_ExLicense.CheckUser(eExUB::MedoniAndrei) &&
; 644  : 		!g_ExLicense.CheckUser(eExUB::mu4you) &&
; 645  : 		!g_ExLicense.CheckUser(eExUB::NSGames))

  0109c	6a 00		 push	 0
  0109e	b9 00 00 00 00	 mov	 ecx, OFFSET ?g_ExLicense@@3VCExLicense@@A ; g_ExLicense
  010a3	e8 00 00 00 00	 call	 ?CheckUser@CExLicense@@QAE_NH@Z ; CExLicense::CheckUser
  010a8	0f b6 c0	 movzx	 eax, al
  010ab	85 c0		 test	 eax, eax
  010ad	0f 85 94 01 00
	00		 jne	 $LN11@CGResetPoi
  010b3	6a 20		 push	 32			; 00000020H
  010b5	b9 00 00 00 00	 mov	 ecx, OFFSET ?g_ExLicense@@3VCExLicense@@A ; g_ExLicense
  010ba	e8 00 00 00 00	 call	 ?CheckUser@CExLicense@@QAE_NH@Z ; CExLicense::CheckUser
  010bf	0f b6 c0	 movzx	 eax, al
  010c2	85 c0		 test	 eax, eax
  010c4	0f 85 7d 01 00
	00		 jne	 $LN11@CGResetPoi
  010ca	6a 22		 push	 34			; 00000022H
  010cc	b9 00 00 00 00	 mov	 ecx, OFFSET ?g_ExLicense@@3VCExLicense@@A ; g_ExLicense
  010d1	e8 00 00 00 00	 call	 ?CheckUser@CExLicense@@QAE_NH@Z ; CExLicense::CheckUser
  010d6	0f b6 c0	 movzx	 eax, al
  010d9	85 c0		 test	 eax, eax
  010db	0f 85 66 01 00
	00		 jne	 $LN11@CGResetPoi
  010e1	6a 36		 push	 54			; 00000036H
  010e3	b9 00 00 00 00	 mov	 ecx, OFFSET ?g_ExLicense@@3VCExLicense@@A ; g_ExLicense
  010e8	e8 00 00 00 00	 call	 ?CheckUser@CExLicense@@QAE_NH@Z ; CExLicense::CheckUser
  010ed	0f b6 c0	 movzx	 eax, al
  010f0	85 c0		 test	 eax, eax
  010f2	0f 85 4f 01 00
	00		 jne	 $LN11@CGResetPoi
  010f8	6a 21		 push	 33			; 00000021H
  010fa	b9 00 00 00 00	 mov	 ecx, OFFSET ?g_ExLicense@@3VCExLicense@@A ; g_ExLicense
  010ff	e8 00 00 00 00	 call	 ?CheckUser@CExLicense@@QAE_NH@Z ; CExLicense::CheckUser
  01104	0f b6 c0	 movzx	 eax, al
  01107	85 c0		 test	 eax, eax
  01109	0f 85 38 01 00
	00		 jne	 $LN11@CGResetPoi
  0110f	6a 07		 push	 7
  01111	b9 00 00 00 00	 mov	 ecx, OFFSET ?g_ExLicense@@3VCExLicense@@A ; g_ExLicense
  01116	e8 00 00 00 00	 call	 ?CheckUser@CExLicense@@QAE_NH@Z ; CExLicense::CheckUser
  0111b	0f b6 c0	 movzx	 eax, al
  0111e	85 c0		 test	 eax, eax
  01120	0f 85 21 01 00
	00		 jne	 $LN11@CGResetPoi
  01126	6a 08		 push	 8
  01128	b9 00 00 00 00	 mov	 ecx, OFFSET ?g_ExLicense@@3VCExLicense@@A ; g_ExLicense
  0112d	e8 00 00 00 00	 call	 ?CheckUser@CExLicense@@QAE_NH@Z ; CExLicense::CheckUser
  01132	0f b6 c0	 movzx	 eax, al
  01135	85 c0		 test	 eax, eax
  01137	0f 85 0a 01 00
	00		 jne	 $LN11@CGResetPoi
  0113d	6a 3b		 push	 59			; 0000003bH
  0113f	b9 00 00 00 00	 mov	 ecx, OFFSET ?g_ExLicense@@3VCExLicense@@A ; g_ExLicense
  01144	e8 00 00 00 00	 call	 ?CheckUser@CExLicense@@QAE_NH@Z ; CExLicense::CheckUser
  01149	0f b6 c0	 movzx	 eax, al
  0114c	85 c0		 test	 eax, eax
  0114e	0f 85 f3 00 00
	00		 jne	 $LN11@CGResetPoi
  01154	b8 01 00 00 00	 mov	 eax, 1
  01159	85 c0		 test	 eax, eax
  0115b	0f 84 e6 00 00
	00		 je	 $LN11@CGResetPoi
  01161	6a 40		 push	 64			; 00000040H
  01163	b9 00 00 00 00	 mov	 ecx, OFFSET ?g_ExLicense@@3VCExLicense@@A ; g_ExLicense
  01168	e8 00 00 00 00	 call	 ?CheckUser@CExLicense@@QAE_NH@Z ; CExLicense::CheckUser
  0116d	0f b6 c0	 movzx	 eax, al
  01170	85 c0		 test	 eax, eax
  01172	0f 85 cf 00 00
	00		 jne	 $LN11@CGResetPoi
  01178	6a 4f		 push	 79			; 0000004fH
  0117a	b9 00 00 00 00	 mov	 ecx, OFFSET ?g_ExLicense@@3VCExLicense@@A ; g_ExLicense
  0117f	e8 00 00 00 00	 call	 ?CheckUser@CExLicense@@QAE_NH@Z ; CExLicense::CheckUser
  01184	0f b6 c0	 movzx	 eax, al
  01187	85 c0		 test	 eax, eax
  01189	0f 85 b8 00 00
	00		 jne	 $LN11@CGResetPoi
  0118f	6a 30		 push	 48			; 00000030H
  01191	b9 00 00 00 00	 mov	 ecx, OFFSET ?g_ExLicense@@3VCExLicense@@A ; g_ExLicense
  01196	e8 00 00 00 00	 call	 ?CheckUser@CExLicense@@QAE_NH@Z ; CExLicense::CheckUser
  0119b	0f b6 c0	 movzx	 eax, al
  0119e	85 c0		 test	 eax, eax
  011a0	0f 85 a1 00 00
	00		 jne	 $LN11@CGResetPoi
  011a6	6a 31		 push	 49			; 00000031H
  011a8	b9 00 00 00 00	 mov	 ecx, OFFSET ?g_ExLicense@@3VCExLicense@@A ; g_ExLicense
  011ad	e8 00 00 00 00	 call	 ?CheckUser@CExLicense@@QAE_NH@Z ; CExLicense::CheckUser
  011b2	0f b6 c0	 movzx	 eax, al
  011b5	85 c0		 test	 eax, eax
  011b7	0f 85 8a 00 00
	00		 jne	 $LN11@CGResetPoi
  011bd	6a 43		 push	 67			; 00000043H
  011bf	b9 00 00 00 00	 mov	 ecx, OFFSET ?g_ExLicense@@3VCExLicense@@A ; g_ExLicense
  011c4	e8 00 00 00 00	 call	 ?CheckUser@CExLicense@@QAE_NH@Z ; CExLicense::CheckUser
  011c9	0f b6 c0	 movzx	 eax, al
  011cc	85 c0		 test	 eax, eax
  011ce	75 77		 jne	 SHORT $LN11@CGResetPoi
  011d0	6a 3c		 push	 60			; 0000003cH
  011d2	b9 00 00 00 00	 mov	 ecx, OFFSET ?g_ExLicense@@3VCExLicense@@A ; g_ExLicense
  011d7	e8 00 00 00 00	 call	 ?CheckUser@CExLicense@@QAE_NH@Z ; CExLicense::CheckUser
  011dc	0f b6 c0	 movzx	 eax, al
  011df	85 c0		 test	 eax, eax
  011e1	75 64		 jne	 SHORT $LN11@CGResetPoi
  011e3	6a 48		 push	 72			; 00000048H
  011e5	b9 00 00 00 00	 mov	 ecx, OFFSET ?g_ExLicense@@3VCExLicense@@A ; g_ExLicense
  011ea	e8 00 00 00 00	 call	 ?CheckUser@CExLicense@@QAE_NH@Z ; CExLicense::CheckUser
  011ef	0f b6 c0	 movzx	 eax, al
  011f2	85 c0		 test	 eax, eax
  011f4	75 51		 jne	 SHORT $LN11@CGResetPoi
  011f6	6a 46		 push	 70			; 00000046H
  011f8	b9 00 00 00 00	 mov	 ecx, OFFSET ?g_ExLicense@@3VCExLicense@@A ; g_ExLicense
  011fd	e8 00 00 00 00	 call	 ?CheckUser@CExLicense@@QAE_NH@Z ; CExLicense::CheckUser
  01202	0f b6 c0	 movzx	 eax, al
  01205	85 c0		 test	 eax, eax
  01207	75 3e		 jne	 SHORT $LN11@CGResetPoi
  01209	6a 32		 push	 50			; 00000032H
  0120b	b9 00 00 00 00	 mov	 ecx, OFFSET ?g_ExLicense@@3VCExLicense@@A ; g_ExLicense
  01210	e8 00 00 00 00	 call	 ?CheckUser@CExLicense@@QAE_NH@Z ; CExLicense::CheckUser
  01215	0f b6 c0	 movzx	 eax, al
  01218	85 c0		 test	 eax, eax
  0121a	75 2b		 jne	 SHORT $LN11@CGResetPoi
  0121c	6a 4e		 push	 78			; 0000004eH
  0121e	b9 00 00 00 00	 mov	 ecx, OFFSET ?g_ExLicense@@3VCExLicense@@A ; g_ExLicense
  01223	e8 00 00 00 00	 call	 ?CheckUser@CExLicense@@QAE_NH@Z ; CExLicense::CheckUser
  01228	0f b6 c0	 movzx	 eax, al
  0122b	85 c0		 test	 eax, eax
  0122d	75 18		 jne	 SHORT $LN11@CGResetPoi
  0122f	6a 51		 push	 81			; 00000051H
  01231	b9 00 00 00 00	 mov	 ecx, OFFSET ?g_ExLicense@@3VCExLicense@@A ; g_ExLicense
  01236	e8 00 00 00 00	 call	 ?CheckUser@CExLicense@@QAE_NH@Z ; CExLicense::CheckUser
  0123b	0f b6 c0	 movzx	 eax, al
  0123e	85 c0		 test	 eax, eax
  01240	75 05		 jne	 SHORT $LN11@CGResetPoi

; 646  : 	{
; 647  : 		return;

  01242	e9 4f 06 00 00	 jmp	 $LN12@CGResetPoi
$LN11@CGResetPoi:

; 648  : 	}
; 649  : 
; 650  : 	if ( OBJMAX_RANGE(aIndex) == FALSE )

  01247	83 7d 08 00	 cmp	 DWORD PTR _aIndex$[ebp], 0
  0124b	7d 09		 jge	 SHORT $LN14@CGResetPoi
  0124d	c7 45 b0 00 00
	00 00		 mov	 DWORD PTR tv195[ebp], 0
  01254	eb 0f		 jmp	 SHORT $LN15@CGResetPoi
$LN14@CGResetPoi:
  01256	33 c0		 xor	 eax, eax
  01258	81 7d 08 97 3a
	00 00		 cmp	 DWORD PTR _aIndex$[ebp], 14999 ; 00003a97H
  0125f	0f 9e c0	 setle	 al
  01262	89 45 b0	 mov	 DWORD PTR tv195[ebp], eax
$LN15@CGResetPoi:
  01265	83 7d b0 00	 cmp	 DWORD PTR tv195[ebp], 0
  01269	75 21		 jne	 SHORT $LN10@CGResetPoi

; 651  : 	{
; 652  : 		LogAdd("error : %s %d", __FILE__, __LINE__ );

  0126b	a1 00 00 00 00	 mov	 eax, DWORD PTR ?__LINE__Var@?1??CGResetPoints@ÑExUser@@QAEXHPAUPMSG_ADD_POINTSRESET@@@Z@4JA
  01270	83 c0 1f	 add	 eax, 31			; 0000001fH
  01273	50		 push	 eax
  01274	68 00 00 00 00	 push	 OFFSET ??_C@_0DO@JCDPNHJI@d?3?2projects?2exteam6?43?2source?2gam@
  01279	68 00 00 00 00	 push	 OFFSET ??_C@_0O@CKAEPJAF@error?5?3?5?$CFs?5?$CFd?$AA@
  0127e	ff 15 00 00 00
	00		 call	 DWORD PTR ?LogAdd@@3P6AXPADZZA ; LogAdd
  01284	83 c4 0c	 add	 esp, 12			; 0000000cH

; 653  : 		return;

  01287	e9 0a 06 00 00	 jmp	 $LN12@CGResetPoi
$LN10@CGResetPoi:

; 654  : 	}
; 655  : 
; 656  : 	LPOBJ lpUser = &gObj[aIndex];

  0128c	8b 45 08	 mov	 eax, DWORD PTR _aIndex$[ebp]
  0128f	69 c0 38 2b 00
	00		 imul	 eax, 11064		; 00002b38H
  01295	03 05 00 00 00
	00		 add	 eax, DWORD PTR ?gObj@@3PAUOBJECTSTRUCT@@A ; gObj
  0129b	89 45 f8	 mov	 DWORD PTR _lpUser$[ebp], eax

; 657  : 
; 658  : 	if(lpUser->Connected < PLAYER_PLAYING)

  0129e	8b 45 f8	 mov	 eax, DWORD PTR _lpUser$[ebp]
  012a1	83 78 04 03	 cmp	 DWORD PTR [eax+4], 3
  012a5	7d 05		 jge	 SHORT $LN9@CGResetPoi

; 659  : 	{
; 660  : 		return;

  012a7	e9 ea 05 00 00	 jmp	 $LN12@CGResetPoi
$LN9@CGResetPoi:

; 661  : 	}
; 662  : 
; 663  : 	if(lpUser->Type != OBJ_USER)

  012ac	8b 45 f8	 mov	 eax, DWORD PTR _lpUser$[ebp]
  012af	0f b7 48 68	 movzx	 ecx, WORD PTR [eax+104]
  012b3	83 f9 01	 cmp	 ecx, 1
  012b6	74 05		 je	 SHORT $LN8@CGResetPoi

; 664  : 	{
; 665  : 		return;

  012b8	e9 d9 05 00 00	 jmp	 $LN12@CGResetPoi
$LN8@CGResetPoi:

; 666  : 	}
; 667  : 
; 668  : 	if(!aRecv->Result)

  012bd	8b 45 0c	 mov	 eax, DWORD PTR _aRecv$[ebp]
  012c0	0f b6 48 04	 movzx	 ecx, BYTE PTR [eax+4]
  012c4	85 c9		 test	 ecx, ecx
  012c6	75 69		 jne	 SHORT $LN7@CGResetPoi

; 669  : 	{
; 670  : 		if(g_ExLicense.CheckUser(eExUB::SILVER1) || g_ExLicense.CheckUser(eExUB::SILVER2))

  012c8	6a 07		 push	 7
  012ca	b9 00 00 00 00	 mov	 ecx, OFFSET ?g_ExLicense@@3VCExLicense@@A ; g_ExLicense
  012cf	e8 00 00 00 00	 call	 ?CheckUser@CExLicense@@QAE_NH@Z ; CExLicense::CheckUser
  012d4	0f b6 c0	 movzx	 eax, al
  012d7	85 c0		 test	 eax, eax
  012d9	75 13		 jne	 SHORT $LN5@CGResetPoi
  012db	6a 08		 push	 8
  012dd	b9 00 00 00 00	 mov	 ecx, OFFSET ?g_ExLicense@@3VCExLicense@@A ; g_ExLicense
  012e2	e8 00 00 00 00	 call	 ?CheckUser@CExLicense@@QAE_NH@Z ; CExLicense::CheckUser
  012e7	0f b6 c0	 movzx	 eax, al
  012ea	85 c0		 test	 eax, eax
  012ec	74 02		 je	 SHORT $LN6@CGResetPoi
$LN5@CGResetPoi:

; 671  : 		{
; 672  : 			/*if(lpUser->PremiumTime > 0)
; 673  : 			{
; 674  : 			}
; 675  : 			else
; 676  : 			{
; 677  : 				return;
; 678  : 			}*/
; 679  : 		}
; 680  : 		else

  012ee	eb 3f		 jmp	 SHORT $LN4@CGResetPoi
$LN6@CGResetPoi:

; 681  : 		{
; 682  : 			if(this->ResetStatsPriceWCoin > lpUser->GameShop.WCoinC)

  012f0	8b 45 fc	 mov	 eax, DWORD PTR _this$[ebp]
  012f3	db 00		 fild	 DWORD PTR [eax]
  012f5	8b 4d f8	 mov	 ecx, DWORD PTR _lpUser$[ebp]
  012f8	dc 99 00 23 00
	00		 fcomp	 QWORD PTR [ecx+8960]
  012fe	df e0		 fnstsw	 ax
  01300	f6 c4 41	 test	 ah, 65			; 00000041H
  01303	75 05		 jne	 SHORT $LN3@CGResetPoi

; 683  : 			{
; 684  : 				return;

  01305	e9 8c 05 00 00	 jmp	 $LN12@CGResetPoi
$LN3@CGResetPoi:

; 685  : 			}
; 686  : 			lpUser->GameShop.WCoinC -= this->ResetStatsPriceWCoin;	

  0130a	8b 45 fc	 mov	 eax, DWORD PTR _this$[ebp]
  0130d	db 00		 fild	 DWORD PTR [eax]
  0130f	8b 4d f8	 mov	 ecx, DWORD PTR _lpUser$[ebp]
  01312	dc a9 00 23 00
	00		 fsubr	 QWORD PTR [ecx+8960]
  01318	8b 55 f8	 mov	 edx, DWORD PTR _lpUser$[ebp]
  0131b	dd 9a 00 23 00
	00		 fstp	 QWORD PTR [edx+8960]

; 687  : 			gGameShop.GDSaveUserInfo(aIndex);

  01321	8b 45 08	 mov	 eax, DWORD PTR _aIndex$[ebp]
  01324	50		 push	 eax
  01325	b9 00 00 00 00	 mov	 ecx, OFFSET ?gGameShop@@3VGameShop@@A ; gGameShop
  0132a	e8 00 00 00 00	 call	 ?GDSaveUserInfo@GameShop@@QAEXH@Z ; GameShop::GDSaveUserInfo
$LN4@CGResetPoi:

; 688  : 		}
; 689  : 	}
; 690  : 	else

  0132f	eb 35		 jmp	 SHORT $LN2@CGResetPoi
$LN7@CGResetPoi:

; 691  : 	{
; 692  : 		if(this->ResetStatsPriceCredit > lpUser->ExCred)

  01331	8b 45 fc	 mov	 eax, DWORD PTR _this$[ebp]
  01334	db 40 04	 fild	 DWORD PTR [eax+4]
  01337	8b 4d f8	 mov	 ecx, DWORD PTR _lpUser$[ebp]
  0133a	d9 81 a8 22 00
	00		 fld	 DWORD PTR [ecx+8872]
  01340	de d9		 fcompp
  01342	df e0		 fnstsw	 ax
  01344	f6 c4 05	 test	 ah, 5
  01347	7a 05		 jp	 SHORT $LN1@CGResetPoi

; 693  : 		{
; 694  : 			return;

  01349	e9 48 05 00 00	 jmp	 $LN12@CGResetPoi
$LN1@CGResetPoi:

; 695  : 		}
; 696  : 		lpUser->ExCred -= this->ResetStatsPriceCredit;

  0134e	8b 45 fc	 mov	 eax, DWORD PTR _this$[ebp]
  01351	db 40 04	 fild	 DWORD PTR [eax+4]
  01354	8b 4d f8	 mov	 ecx, DWORD PTR _lpUser$[ebp]
  01357	d8 a9 a8 22 00
	00		 fsubr	 DWORD PTR [ecx+8872]
  0135d	8b 55 f8	 mov	 edx, DWORD PTR _lpUser$[ebp]
  01360	d9 9a a8 22 00
	00		 fstp	 DWORD PTR [edx+8872]
$LN2@CGResetPoi:

; 697  : 	}
; 698  : 
; 699  : 	ExUserDataSend(aIndex);

  01366	8b 45 08	 mov	 eax, DWORD PTR _aIndex$[ebp]
  01369	50		 push	 eax
  0136a	e8 00 00 00 00	 call	 ?ExUserDataSend@@YAXH@Z	; ExUserDataSend
  0136f	83 c4 04	 add	 esp, 4

; 700  : 
; 701  : 	int TotalPoint = lpUser->Strength + lpUser->Dexterity + lpUser->Vitality + lpUser->Energy + lpUser->Leadership + lpUser->LevelUpPoint;

  01372	8b 45 f8	 mov	 eax, DWORD PTR _lpUser$[ebp]
  01375	0f b7 88 f4 00
	00 00		 movzx	 ecx, WORD PTR [eax+244]
  0137c	8b 55 f8	 mov	 edx, DWORD PTR _lpUser$[ebp]
  0137f	0f b7 82 f6 00
	00 00		 movzx	 eax, WORD PTR [edx+246]
  01386	03 c8		 add	 ecx, eax
  01388	8b 55 f8	 mov	 edx, DWORD PTR _lpUser$[ebp]
  0138b	0f b7 82 f8 00
	00 00		 movzx	 eax, WORD PTR [edx+248]
  01392	03 c8		 add	 ecx, eax
  01394	8b 55 f8	 mov	 edx, DWORD PTR _lpUser$[ebp]
  01397	0f b7 82 fa 00
	00 00		 movzx	 eax, WORD PTR [edx+250]
  0139e	03 c8		 add	 ecx, eax
  013a0	8b 55 f8	 mov	 edx, DWORD PTR _lpUser$[ebp]
  013a3	0f b7 82 18 01
	00 00		 movzx	 eax, WORD PTR [edx+280]
  013aa	03 c8		 add	 ecx, eax
  013ac	8b 55 f8	 mov	 edx, DWORD PTR _lpUser$[ebp]
  013af	03 8a c0 00 00
	00		 add	 ecx, DWORD PTR [edx+192]
  013b5	89 4d f4	 mov	 DWORD PTR _TotalPoint$[ebp], ecx

; 702  : 
; 703  : 	TotalPoint -= DCInfo.DefClass[lpUser->Class].Strength;

  013b8	8b 45 f8	 mov	 eax, DWORD PTR _lpUser$[ebp]
  013bb	0f b7 88 b8 00
	00 00		 movzx	 ecx, WORD PTR [eax+184]
  013c2	69 c9 c8 0b 00
	00		 imul	 ecx, 3016		; 00000bc8H
  013c8	0f b7 91 08 00
	00 00		 movzx	 edx, WORD PTR ?DCInfo@@3Vclassdef@@A[ecx+8]
  013cf	8b 45 f4	 mov	 eax, DWORD PTR _TotalPoint$[ebp]
  013d2	2b c2		 sub	 eax, edx
  013d4	89 45 f4	 mov	 DWORD PTR _TotalPoint$[ebp], eax

; 704  : 	TotalPoint -= DCInfo.DefClass[lpUser->Class].Dexterity;

  013d7	8b 45 f8	 mov	 eax, DWORD PTR _lpUser$[ebp]
  013da	0f b7 88 b8 00
	00 00		 movzx	 ecx, WORD PTR [eax+184]
  013e1	69 c9 c8 0b 00
	00		 imul	 ecx, 3016		; 00000bc8H
  013e7	0f b7 91 0a 00
	00 00		 movzx	 edx, WORD PTR ?DCInfo@@3Vclassdef@@A[ecx+10]
  013ee	8b 45 f4	 mov	 eax, DWORD PTR _TotalPoint$[ebp]
  013f1	2b c2		 sub	 eax, edx
  013f3	89 45 f4	 mov	 DWORD PTR _TotalPoint$[ebp], eax

; 705  : 	TotalPoint -= DCInfo.DefClass[lpUser->Class].Energy;

  013f6	8b 45 f8	 mov	 eax, DWORD PTR _lpUser$[ebp]
  013f9	0f b7 88 b8 00
	00 00		 movzx	 ecx, WORD PTR [eax+184]
  01400	69 c9 c8 0b 00
	00		 imul	 ecx, 3016		; 00000bc8H
  01406	0f b7 91 0e 00
	00 00		 movzx	 edx, WORD PTR ?DCInfo@@3Vclassdef@@A[ecx+14]
  0140d	8b 45 f4	 mov	 eax, DWORD PTR _TotalPoint$[ebp]
  01410	2b c2		 sub	 eax, edx
  01412	89 45 f4	 mov	 DWORD PTR _TotalPoint$[ebp], eax

; 706  : 	TotalPoint -= DCInfo.DefClass[lpUser->Class].Vitality;

  01415	8b 45 f8	 mov	 eax, DWORD PTR _lpUser$[ebp]
  01418	0f b7 88 b8 00
	00 00		 movzx	 ecx, WORD PTR [eax+184]
  0141f	69 c9 c8 0b 00
	00		 imul	 ecx, 3016		; 00000bc8H
  01425	0f b7 91 0c 00
	00 00		 movzx	 edx, WORD PTR ?DCInfo@@3Vclassdef@@A[ecx+12]
  0142c	8b 45 f4	 mov	 eax, DWORD PTR _TotalPoint$[ebp]
  0142f	2b c2		 sub	 eax, edx
  01431	89 45 f4	 mov	 DWORD PTR _TotalPoint$[ebp], eax

; 707  : 	TotalPoint -= DCInfo.DefClass[lpUser->Class].Leadership;

  01434	8b 45 f8	 mov	 eax, DWORD PTR _lpUser$[ebp]
  01437	0f b7 88 b8 00
	00 00		 movzx	 ecx, WORD PTR [eax+184]
  0143e	69 c9 c8 0b 00
	00		 imul	 ecx, 3016		; 00000bc8H
  01444	0f b7 91 c8 0b
	00 00		 movzx	 edx, WORD PTR ?DCInfo@@3Vclassdef@@A[ecx+3016]
  0144b	8b 45 f4	 mov	 eax, DWORD PTR _TotalPoint$[ebp]
  0144e	2b c2		 sub	 eax, edx
  01450	89 45 f4	 mov	 DWORD PTR _TotalPoint$[ebp], eax

; 708  : 
; 709  : 	lpUser->Strength = DCInfo.DefClass[lpUser->Class].Strength;

  01453	8b 45 f8	 mov	 eax, DWORD PTR _lpUser$[ebp]
  01456	0f b7 88 b8 00
	00 00		 movzx	 ecx, WORD PTR [eax+184]
  0145d	69 c9 c8 0b 00
	00		 imul	 ecx, 3016		; 00000bc8H
  01463	8b 55 f8	 mov	 edx, DWORD PTR _lpUser$[ebp]
  01466	66 8b 81 08 00
	00 00		 mov	 ax, WORD PTR ?DCInfo@@3Vclassdef@@A[ecx+8]
  0146d	66 89 82 f4 00
	00 00		 mov	 WORD PTR [edx+244], ax

; 710  : 	lpUser->Dexterity = DCInfo.DefClass[lpUser->Class].Dexterity;

  01474	8b 45 f8	 mov	 eax, DWORD PTR _lpUser$[ebp]
  01477	0f b7 88 b8 00
	00 00		 movzx	 ecx, WORD PTR [eax+184]
  0147e	69 c9 c8 0b 00
	00		 imul	 ecx, 3016		; 00000bc8H
  01484	8b 55 f8	 mov	 edx, DWORD PTR _lpUser$[ebp]
  01487	66 8b 81 0a 00
	00 00		 mov	 ax, WORD PTR ?DCInfo@@3Vclassdef@@A[ecx+10]
  0148e	66 89 82 f6 00
	00 00		 mov	 WORD PTR [edx+246], ax

; 711  : 	lpUser->Energy = DCInfo.DefClass[lpUser->Class].Energy;

  01495	8b 45 f8	 mov	 eax, DWORD PTR _lpUser$[ebp]
  01498	0f b7 88 b8 00
	00 00		 movzx	 ecx, WORD PTR [eax+184]
  0149f	69 c9 c8 0b 00
	00		 imul	 ecx, 3016		; 00000bc8H
  014a5	8b 55 f8	 mov	 edx, DWORD PTR _lpUser$[ebp]
  014a8	66 8b 81 0e 00
	00 00		 mov	 ax, WORD PTR ?DCInfo@@3Vclassdef@@A[ecx+14]
  014af	66 89 82 fa 00
	00 00		 mov	 WORD PTR [edx+250], ax

; 712  : 	lpUser->Vitality = DCInfo.DefClass[lpUser->Class].Vitality;

  014b6	8b 45 f8	 mov	 eax, DWORD PTR _lpUser$[ebp]
  014b9	0f b7 88 b8 00
	00 00		 movzx	 ecx, WORD PTR [eax+184]
  014c0	69 c9 c8 0b 00
	00		 imul	 ecx, 3016		; 00000bc8H
  014c6	8b 55 f8	 mov	 edx, DWORD PTR _lpUser$[ebp]
  014c9	66 8b 81 0c 00
	00 00		 mov	 ax, WORD PTR ?DCInfo@@3Vclassdef@@A[ecx+12]
  014d0	66 89 82 f8 00
	00 00		 mov	 WORD PTR [edx+248], ax

; 713  : 	lpUser->Leadership = DCInfo.DefClass[lpUser->Class].Leadership;

  014d7	8b 45 f8	 mov	 eax, DWORD PTR _lpUser$[ebp]
  014da	0f b7 88 b8 00
	00 00		 movzx	 ecx, WORD PTR [eax+184]
  014e1	69 c9 c8 0b 00
	00		 imul	 ecx, 3016		; 00000bc8H
  014e7	8b 55 f8	 mov	 edx, DWORD PTR _lpUser$[ebp]
  014ea	66 8b 81 c8 0b
	00 00		 mov	 ax, WORD PTR ?DCInfo@@3Vclassdef@@A[ecx+3016]
  014f1	66 89 82 18 01
	00 00		 mov	 WORD PTR [edx+280], ax

; 714  : 
; 715  : 	lpUser->LevelUpPoint = TotalPoint;

  014f8	8b 45 f8	 mov	 eax, DWORD PTR _lpUser$[ebp]
  014fb	8b 4d f4	 mov	 ecx, DWORD PTR _TotalPoint$[ebp]
  014fe	89 88 c0 00 00
	00		 mov	 DWORD PTR [eax+192], ecx

; 716  : 
; 717  : 	lpUser->Life = DCInfo.DefClass[lpUser->Class].Life + (lpUser->Level + lpUser->MLevel - 1) * DCInfo.DefClass[lpUser->Class].LevelLife  + ((lpUser->Vitality - DCInfo.DefClass[lpUser->Class].Vitality ) * DCInfo.DefClass[lpUser->Class].VitalityToLife);

  01504	8b 45 f8	 mov	 eax, DWORD PTR _lpUser$[ebp]
  01507	0f b7 88 b8 00
	00 00		 movzx	 ecx, WORD PTR [eax+184]
  0150e	69 c9 c8 0b 00
	00		 imul	 ecx, 3016		; 00000bc8H
  01514	8b 55 f8	 mov	 edx, DWORD PTR _lpUser$[ebp]
  01517	0f bf 82 be 00
	00 00		 movsx	 eax, WORD PTR [edx+190]
  0151e	8b 55 f8	 mov	 edx, DWORD PTR _lpUser$[ebp]
  01521	0f bf 92 d0 00
	00 00		 movsx	 edx, WORD PTR [edx+208]
  01528	8d 44 10 ff	 lea	 eax, DWORD PTR [eax+edx-1]
  0152c	89 45 b0	 mov	 DWORD PTR tv655[ebp], eax
  0152f	db 45 b0	 fild	 DWORD PTR tv655[ebp]
  01532	8b 55 f8	 mov	 edx, DWORD PTR _lpUser$[ebp]
  01535	0f b7 82 b8 00
	00 00		 movzx	 eax, WORD PTR [edx+184]
  0153c	69 c0 c8 0b 00
	00		 imul	 eax, 3016		; 00000bc8H
  01542	d8 88 10 00 00
	00		 fmul	 DWORD PTR ?DCInfo@@3Vclassdef@@A[eax+16]
  01548	d8 81 14 00 00
	00		 fadd	 DWORD PTR ?DCInfo@@3Vclassdef@@A[ecx+20]
  0154e	8b 4d f8	 mov	 ecx, DWORD PTR _lpUser$[ebp]
  01551	0f b7 91 f8 00
	00 00		 movzx	 edx, WORD PTR [ecx+248]
  01558	8b 45 f8	 mov	 eax, DWORD PTR _lpUser$[ebp]
  0155b	0f b7 88 b8 00
	00 00		 movzx	 ecx, WORD PTR [eax+184]
  01562	69 c9 c8 0b 00
	00		 imul	 ecx, 3016		; 00000bc8H
  01568	0f b7 81 0c 00
	00 00		 movzx	 eax, WORD PTR ?DCInfo@@3Vclassdef@@A[ecx+12]
  0156f	2b d0		 sub	 edx, eax
  01571	89 55 ac	 mov	 DWORD PTR tv660[ebp], edx
  01574	db 45 ac	 fild	 DWORD PTR tv660[ebp]
  01577	8b 4d f8	 mov	 ecx, DWORD PTR _lpUser$[ebp]
  0157a	0f b7 91 b8 00
	00 00		 movzx	 edx, WORD PTR [ecx+184]
  01581	69 d2 c8 0b 00
	00		 imul	 edx, 3016		; 00000bc8H
  01587	d8 8a 28 00 00
	00		 fmul	 DWORD PTR ?DCInfo@@3Vclassdef@@A[edx+40]
  0158d	de c1		 faddp	 ST(1), ST(0)
  0158f	8b 45 f8	 mov	 eax, DWORD PTR _lpUser$[ebp]
  01592	d9 98 fc 00 00
	00		 fstp	 DWORD PTR [eax+252]

; 718  : 	lpUser->Mana = DCInfo.DefClass[lpUser->Class].Mana + (lpUser->Level + lpUser->MLevel - 1) * DCInfo.DefClass[lpUser->Class].LevelMana  + ((lpUser->Energy - DCInfo.DefClass[lpUser->Class].Energy ) * DCInfo.DefClass[lpUser->Class].EnergyToMana);

  01598	8b 45 f8	 mov	 eax, DWORD PTR _lpUser$[ebp]
  0159b	0f b7 88 b8 00
	00 00		 movzx	 ecx, WORD PTR [eax+184]
  015a2	69 c9 c8 0b 00
	00		 imul	 ecx, 3016		; 00000bc8H
  015a8	8b 55 f8	 mov	 edx, DWORD PTR _lpUser$[ebp]
  015ab	0f bf 82 be 00
	00 00		 movsx	 eax, WORD PTR [edx+190]
  015b2	8b 55 f8	 mov	 edx, DWORD PTR _lpUser$[ebp]
  015b5	0f bf 92 d0 00
	00 00		 movsx	 edx, WORD PTR [edx+208]
  015bc	8d 44 10 ff	 lea	 eax, DWORD PTR [eax+edx-1]
  015c0	89 45 b0	 mov	 DWORD PTR tv669[ebp], eax
  015c3	db 45 b0	 fild	 DWORD PTR tv669[ebp]
  015c6	8b 55 f8	 mov	 edx, DWORD PTR _lpUser$[ebp]
  015c9	0f b7 82 b8 00
	00 00		 movzx	 eax, WORD PTR [edx+184]
  015d0	69 c0 c8 0b 00
	00		 imul	 eax, 3016		; 00000bc8H
  015d6	d8 88 1c 00 00
	00		 fmul	 DWORD PTR ?DCInfo@@3Vclassdef@@A[eax+28]
  015dc	d8 81 20 00 00
	00		 fadd	 DWORD PTR ?DCInfo@@3Vclassdef@@A[ecx+32]
  015e2	8b 4d f8	 mov	 ecx, DWORD PTR _lpUser$[ebp]
  015e5	0f b7 91 fa 00
	00 00		 movzx	 edx, WORD PTR [ecx+250]
  015ec	8b 45 f8	 mov	 eax, DWORD PTR _lpUser$[ebp]
  015ef	0f b7 88 b8 00
	00 00		 movzx	 ecx, WORD PTR [eax+184]
  015f6	69 c9 c8 0b 00
	00		 imul	 ecx, 3016		; 00000bc8H
  015fc	0f b7 81 0e 00
	00 00		 movzx	 eax, WORD PTR ?DCInfo@@3Vclassdef@@A[ecx+14]
  01603	2b d0		 sub	 edx, eax
  01605	89 55 ac	 mov	 DWORD PTR tv674[ebp], edx
  01608	db 45 ac	 fild	 DWORD PTR tv674[ebp]
  0160b	8b 4d f8	 mov	 ecx, DWORD PTR _lpUser$[ebp]
  0160e	0f b7 91 b8 00
	00 00		 movzx	 edx, WORD PTR [ecx+184]
  01615	69 d2 c8 0b 00
	00		 imul	 edx, 3016		; 00000bc8H
  0161b	d8 8a 2c 00 00
	00		 fmul	 DWORD PTR ?DCInfo@@3Vclassdef@@A[edx+44]
  01621	de c1		 faddp	 ST(1), ST(0)
  01623	8b 45 f8	 mov	 eax, DWORD PTR _lpUser$[ebp]
  01626	d9 98 10 01 00
	00		 fstp	 DWORD PTR [eax+272]

; 719  : 
; 720  : 	lpUser->MaxLife = DCInfo.DefClass[lpUser->Class].Life + (lpUser->Level + lpUser->MLevel - 1) * DCInfo.DefClass[lpUser->Class].LevelLife  + ((lpUser->Vitality - DCInfo.DefClass[lpUser->Class].Vitality ) * DCInfo.DefClass[lpUser->Class].VitalityToLife);

  0162c	8b 45 f8	 mov	 eax, DWORD PTR _lpUser$[ebp]
  0162f	0f b7 88 b8 00
	00 00		 movzx	 ecx, WORD PTR [eax+184]
  01636	69 c9 c8 0b 00
	00		 imul	 ecx, 3016		; 00000bc8H
  0163c	8b 55 f8	 mov	 edx, DWORD PTR _lpUser$[ebp]
  0163f	0f bf 82 be 00
	00 00		 movsx	 eax, WORD PTR [edx+190]
  01646	8b 55 f8	 mov	 edx, DWORD PTR _lpUser$[ebp]
  01649	0f bf 92 d0 00
	00 00		 movsx	 edx, WORD PTR [edx+208]
  01650	8d 44 10 ff	 lea	 eax, DWORD PTR [eax+edx-1]
  01654	89 45 b0	 mov	 DWORD PTR tv683[ebp], eax
  01657	db 45 b0	 fild	 DWORD PTR tv683[ebp]
  0165a	8b 55 f8	 mov	 edx, DWORD PTR _lpUser$[ebp]
  0165d	0f b7 82 b8 00
	00 00		 movzx	 eax, WORD PTR [edx+184]
  01664	69 c0 c8 0b 00
	00		 imul	 eax, 3016		; 00000bc8H
  0166a	d8 88 10 00 00
	00		 fmul	 DWORD PTR ?DCInfo@@3Vclassdef@@A[eax+16]
  01670	d8 81 14 00 00
	00		 fadd	 DWORD PTR ?DCInfo@@3Vclassdef@@A[ecx+20]
  01676	8b 4d f8	 mov	 ecx, DWORD PTR _lpUser$[ebp]
  01679	0f b7 91 f8 00
	00 00		 movzx	 edx, WORD PTR [ecx+248]
  01680	8b 45 f8	 mov	 eax, DWORD PTR _lpUser$[ebp]
  01683	0f b7 88 b8 00
	00 00		 movzx	 ecx, WORD PTR [eax+184]
  0168a	69 c9 c8 0b 00
	00		 imul	 ecx, 3016		; 00000bc8H
  01690	0f b7 81 0c 00
	00 00		 movzx	 eax, WORD PTR ?DCInfo@@3Vclassdef@@A[ecx+12]
  01697	2b d0		 sub	 edx, eax
  01699	89 55 ac	 mov	 DWORD PTR tv688[ebp], edx
  0169c	db 45 ac	 fild	 DWORD PTR tv688[ebp]
  0169f	8b 4d f8	 mov	 ecx, DWORD PTR _lpUser$[ebp]
  016a2	0f b7 91 b8 00
	00 00		 movzx	 edx, WORD PTR [ecx+184]
  016a9	69 d2 c8 0b 00
	00		 imul	 edx, 3016		; 00000bc8H
  016af	d8 8a 28 00 00
	00		 fmul	 DWORD PTR ?DCInfo@@3Vclassdef@@A[edx+40]
  016b5	de c1		 faddp	 ST(1), ST(0)
  016b7	8b 45 f8	 mov	 eax, DWORD PTR _lpUser$[ebp]
  016ba	d9 98 00 01 00
	00		 fstp	 DWORD PTR [eax+256]

; 721  : 	lpUser->MaxMana = DCInfo.DefClass[lpUser->Class].Mana + (lpUser->Level + lpUser->MLevel - 1) * DCInfo.DefClass[lpUser->Class].LevelMana  + ((lpUser->Energy - DCInfo.DefClass[lpUser->Class].Energy ) * DCInfo.DefClass[lpUser->Class].EnergyToMana);

  016c0	8b 45 f8	 mov	 eax, DWORD PTR _lpUser$[ebp]
  016c3	0f b7 88 b8 00
	00 00		 movzx	 ecx, WORD PTR [eax+184]
  016ca	69 c9 c8 0b 00
	00		 imul	 ecx, 3016		; 00000bc8H
  016d0	8b 55 f8	 mov	 edx, DWORD PTR _lpUser$[ebp]
  016d3	0f bf 82 be 00
	00 00		 movsx	 eax, WORD PTR [edx+190]
  016da	8b 55 f8	 mov	 edx, DWORD PTR _lpUser$[ebp]
  016dd	0f bf 92 d0 00
	00 00		 movsx	 edx, WORD PTR [edx+208]
  016e4	8d 44 10 ff	 lea	 eax, DWORD PTR [eax+edx-1]
  016e8	89 45 b0	 mov	 DWORD PTR tv697[ebp], eax
  016eb	db 45 b0	 fild	 DWORD PTR tv697[ebp]
  016ee	8b 55 f8	 mov	 edx, DWORD PTR _lpUser$[ebp]
  016f1	0f b7 82 b8 00
	00 00		 movzx	 eax, WORD PTR [edx+184]
  016f8	69 c0 c8 0b 00
	00		 imul	 eax, 3016		; 00000bc8H
  016fe	d8 88 1c 00 00
	00		 fmul	 DWORD PTR ?DCInfo@@3Vclassdef@@A[eax+28]
  01704	d8 81 20 00 00
	00		 fadd	 DWORD PTR ?DCInfo@@3Vclassdef@@A[ecx+32]
  0170a	8b 4d f8	 mov	 ecx, DWORD PTR _lpUser$[ebp]
  0170d	0f b7 91 fa 00
	00 00		 movzx	 edx, WORD PTR [ecx+250]
  01714	8b 45 f8	 mov	 eax, DWORD PTR _lpUser$[ebp]
  01717	0f b7 88 b8 00
	00 00		 movzx	 ecx, WORD PTR [eax+184]
  0171e	69 c9 c8 0b 00
	00		 imul	 ecx, 3016		; 00000bc8H
  01724	0f b7 81 0e 00
	00 00		 movzx	 eax, WORD PTR ?DCInfo@@3Vclassdef@@A[ecx+14]
  0172b	2b d0		 sub	 edx, eax
  0172d	89 55 ac	 mov	 DWORD PTR tv702[ebp], edx
  01730	db 45 ac	 fild	 DWORD PTR tv702[ebp]
  01733	8b 4d f8	 mov	 ecx, DWORD PTR _lpUser$[ebp]
  01736	0f b7 91 b8 00
	00 00		 movzx	 edx, WORD PTR [ecx+184]
  0173d	69 d2 c8 0b 00
	00		 imul	 edx, 3016		; 00000bc8H
  01743	d8 8a 2c 00 00
	00		 fmul	 DWORD PTR ?DCInfo@@3Vclassdef@@A[edx+44]
  01749	de c1		 faddp	 ST(1), ST(0)
  0174b	8b 45 f8	 mov	 eax, DWORD PTR _lpUser$[ebp]
  0174e	d9 98 14 01 00
	00		 fstp	 DWORD PTR [eax+276]

; 722  : 
; 723  : 	lpUser->VitalityToLife = DCInfo.DefClass[lpUser->Class].VitalityToLife;

  01754	8b 45 f8	 mov	 eax, DWORD PTR _lpUser$[ebp]
  01757	0f b7 88 b8 00
	00 00		 movzx	 ecx, WORD PTR [eax+184]
  0175e	69 c9 c8 0b 00
	00		 imul	 ecx, 3016		; 00000bc8H
  01764	8b 55 f8	 mov	 edx, DWORD PTR _lpUser$[ebp]
  01767	d9 81 28 00 00
	00		 fld	 DWORD PTR ?DCInfo@@3Vclassdef@@A[ecx+40]
  0176d	d9 9a 34 01 00
	00		 fstp	 DWORD PTR [edx+308]

; 724  : 	lpUser->EnergyToMana = DCInfo.DefClass[lpUser->Class].EnergyToMana;

  01773	8b 45 f8	 mov	 eax, DWORD PTR _lpUser$[ebp]
  01776	0f b7 88 b8 00
	00 00		 movzx	 ecx, WORD PTR [eax+184]
  0177d	69 c9 c8 0b 00
	00		 imul	 ecx, 3016		; 00000bc8H
  01783	8b 55 f8	 mov	 edx, DWORD PTR _lpUser$[ebp]
  01786	d9 81 2c 00 00
	00		 fld	 DWORD PTR ?DCInfo@@3Vclassdef@@A[ecx+44]
  0178c	d9 9a 38 01 00
	00		 fstp	 DWORD PTR [edx+312]

; 725  : 
; 726  : 
; 727  : 	::gObjSetBP(aIndex);

  01792	8b 45 08	 mov	 eax, DWORD PTR _aIndex$[ebp]
  01795	50		 push	 eax
  01796	e8 00 00 00 00	 call	 ?gObjSetBP@@YAXH@Z	; gObjSetBP
  0179b	83 c4 04	 add	 esp, 4

; 728  : 	::gObjCalcMaxLifePower(aIndex);

  0179e	8b 45 08	 mov	 eax, DWORD PTR _aIndex$[ebp]
  017a1	50		 push	 eax
  017a2	e8 00 00 00 00	 call	 ?gObjCalcMaxLifePower@@YAXH@Z ; gObjCalcMaxLifePower
  017a7	83 c4 04	 add	 esp, 4

; 729  : 	GCReFillSend(aIndex, (int)lpUser->MaxLife + lpUser->AddLife, 0xFE, 0, lpUser->iMaxShield + lpUser->iAddShield);

  017aa	8b 45 f8	 mov	 eax, DWORD PTR _lpUser$[ebp]
  017ad	8b 88 58 01 00
	00		 mov	 ecx, DWORD PTR [eax+344]
  017b3	8b 55 f8	 mov	 edx, DWORD PTR _lpUser$[ebp]
  017b6	03 8a 5c 01 00
	00		 add	 ecx, DWORD PTR [edx+348]
  017bc	51		 push	 ecx
  017bd	6a 00		 push	 0
  017bf	68 fe 00 00 00	 push	 254			; 000000feH
  017c4	8b 45 f8	 mov	 eax, DWORD PTR _lpUser$[ebp]
  017c7	d9 80 00 01 00
	00		 fld	 DWORD PTR [eax+256]
  017cd	e8 00 00 00 00	 call	 __ftol2_sse
  017d2	8b 4d f8	 mov	 ecx, DWORD PTR _lpUser$[ebp]
  017d5	03 81 4c 01 00
	00		 add	 eax, DWORD PTR [ecx+332]
  017db	50		 push	 eax
  017dc	8b 55 08	 mov	 edx, DWORD PTR _aIndex$[ebp]
  017df	52		 push	 edx
  017e0	e8 00 00 00 00	 call	 ?GCReFillSend@@YAXHHEEH@Z ; GCReFillSend
  017e5	83 c4 14	 add	 esp, 20			; 00000014H

; 730  : 	GCReFillSend(aIndex, (int)lpUser->Life, 0xFF, 0, lpUser->iShield);

  017e8	8b 45 f8	 mov	 eax, DWORD PTR _lpUser$[ebp]
  017eb	8b 88 54 01 00
	00		 mov	 ecx, DWORD PTR [eax+340]
  017f1	51		 push	 ecx
  017f2	6a 00		 push	 0
  017f4	68 ff 00 00 00	 push	 255			; 000000ffH
  017f9	8b 55 f8	 mov	 edx, DWORD PTR _lpUser$[ebp]
  017fc	d9 82 fc 00 00
	00		 fld	 DWORD PTR [edx+252]
  01802	e8 00 00 00 00	 call	 __ftol2_sse
  01807	50		 push	 eax
  01808	8b 45 08	 mov	 eax, DWORD PTR _aIndex$[ebp]
  0180b	50		 push	 eax
  0180c	e8 00 00 00 00	 call	 ?GCReFillSend@@YAXHHEEH@Z ; GCReFillSend
  01811	83 c4 14	 add	 esp, 20			; 00000014H

; 731  : 	GCManaSend(aIndex,(int)lpUser->MaxMana + lpUser->AddMana, 0xFE, 0, lpUser->MaxBP + lpUser->AddBP);

  01814	8b 45 f8	 mov	 eax, DWORD PTR _lpUser$[ebp]
  01817	8b 88 2c 01 00
	00		 mov	 ecx, DWORD PTR [eax+300]
  0181d	8b 55 f8	 mov	 edx, DWORD PTR _lpUser$[ebp]
  01820	03 8a 30 01 00
	00		 add	 ecx, DWORD PTR [edx+304]
  01826	51		 push	 ecx
  01827	6a 00		 push	 0
  01829	68 fe 00 00 00	 push	 254			; 000000feH
  0182e	8b 45 f8	 mov	 eax, DWORD PTR _lpUser$[ebp]
  01831	d9 80 14 01 00
	00		 fld	 DWORD PTR [eax+276]
  01837	e8 00 00 00 00	 call	 __ftol2_sse
  0183c	8b 4d f8	 mov	 ecx, DWORD PTR _lpUser$[ebp]
  0183f	03 81 50 01 00
	00		 add	 eax, DWORD PTR [ecx+336]
  01845	50		 push	 eax
  01846	8b 55 08	 mov	 edx, DWORD PTR _aIndex$[ebp]
  01849	52		 push	 edx
  0184a	e8 00 00 00 00	 call	 ?GCManaSend@@YAXHHEEH@Z	; GCManaSend
  0184f	83 c4 14	 add	 esp, 20			; 00000014H

; 732  : 	GCManaSend(aIndex, (int)lpUser->Mana, 0xFF, 0, lpUser->BP);

  01852	8b 45 f8	 mov	 eax, DWORD PTR _lpUser$[ebp]
  01855	8b 88 28 01 00
	00		 mov	 ecx, DWORD PTR [eax+296]
  0185b	51		 push	 ecx
  0185c	6a 00		 push	 0
  0185e	68 ff 00 00 00	 push	 255			; 000000ffH
  01863	8b 55 f8	 mov	 edx, DWORD PTR _lpUser$[ebp]
  01866	d9 82 10 01 00
	00		 fld	 DWORD PTR [edx+272]
  0186c	e8 00 00 00 00	 call	 __ftol2_sse
  01871	50		 push	 eax
  01872	8b 45 08	 mov	 eax, DWORD PTR _aIndex$[ebp]
  01875	50		 push	 eax
  01876	e8 00 00 00 00	 call	 ?GCManaSend@@YAXHHEEH@Z	; GCManaSend
  0187b	83 c4 14	 add	 esp, 20			; 00000014H

; 733  : 	UpdateCharInfo(aIndex);

  0187e	8b 45 08	 mov	 eax, DWORD PTR _aIndex$[ebp]
  01881	50		 push	 eax
  01882	e8 00 00 00 00	 call	 ?UpdateCharInfo@@YAXH@Z	; UpdateCharInfo
  01887	83 c4 04	 add	 esp, 4

; 734  : 	gObjCalCharacter(aIndex);

  0188a	8b 45 08	 mov	 eax, DWORD PTR _aIndex$[ebp]
  0188d	50		 push	 eax
  0188e	e8 00 00 00 00	 call	 ?gObjCalCharacter@@YAXH@Z ; gObjCalCharacter
  01893	83 c4 04	 add	 esp, 4
$LN12@CGResetPoi:

; 735  : }

  01896	5f		 pop	 edi
  01897	5e		 pop	 esi
  01898	5b		 pop	 ebx
  01899	8b e5		 mov	 esp, ebp
  0189b	5d		 pop	 ebp
  0189c	c2 08 00	 ret	 8
?CGResetPoints@ÑExUser@@QAEXHPAUPMSG_ADD_POINTSRESET@@@Z ENDP ; ÑExUser::CGResetPoints
_TEXT	ENDS
PUBLIC	??_C@_0BG@IOJCDDID@ResetStatsPriceCredit?$AA@	; `string'
PUBLIC	??_C@_06MLPMCPDE@ExTeam?$AA@			; `string'
PUBLIC	??_C@_0BF@FHJGPLPD@ResetStatsPriceWCoin?$AA@	; `string'
PUBLIC	??_C@_0BG@CKONHJCD@ExData?2ResetStats?4ini?$AA@	; `string'
PUBLIC	?ResetPointsLoad@ÑExUser@@QAEXXZ		; ÑExUser::ResetPointsLoad
EXTRN	__imp__GetPrivateProfileIntA@16:PROC
EXTRN	?GetNewPath@CDirPath@@QAEPADPAD@Z:PROC		; CDirPath::GetNewPath
EXTRN	?gDirPath@@3VCDirPath@@A:BYTE			; gDirPath
;	COMDAT ??_C@_0BG@IOJCDDID@ResetStatsPriceCredit?$AA@
CONST	SEGMENT
??_C@_0BG@IOJCDDID@ResetStatsPriceCredit?$AA@ DB 'ResetStatsPriceCredit', 00H ; `string'
CONST	ENDS
;	COMDAT ??_C@_06MLPMCPDE@ExTeam?$AA@
CONST	SEGMENT
??_C@_06MLPMCPDE@ExTeam?$AA@ DB 'ExTeam', 00H		; `string'
CONST	ENDS
;	COMDAT ??_C@_0BF@FHJGPLPD@ResetStatsPriceWCoin?$AA@
CONST	SEGMENT
??_C@_0BF@FHJGPLPD@ResetStatsPriceWCoin?$AA@ DB 'ResetStatsPriceWCoin', 00H ; `string'
CONST	ENDS
;	COMDAT ??_C@_0BG@CKONHJCD@ExData?2ResetStats?4ini?$AA@
CONST	SEGMENT
??_C@_0BG@CKONHJCD@ExData?2ResetStats?4ini?$AA@ DB 'ExData\ResetStats.ini'
	DB	00H						; `string'
; Function compile flags: /Odtp /ZI
CONST	ENDS
_TEXT	SEGMENT
_this$ = -4						; size = 4
?ResetPointsLoad@ÑExUser@@QAEXXZ PROC			; ÑExUser::ResetPointsLoad
; _this$ = ecx

; 738  : {

  018a0	55		 push	 ebp
  018a1	8b ec		 mov	 ebp, esp
  018a3	83 ec 44	 sub	 esp, 68			; 00000044H
  018a6	53		 push	 ebx
  018a7	56		 push	 esi
  018a8	57		 push	 edi
  018a9	89 4d fc	 mov	 DWORD PTR _this$[ebp], ecx

; 739  : 	this->ResetStatsPriceWCoin = GetPrivateProfileInt("ExTeam", "ResetStatsPriceWCoin", 0, gDirPath.GetNewPath("ExData\\ResetStats.ini"));;

  018ac	68 00 00 00 00	 push	 OFFSET ??_C@_0BG@CKONHJCD@ExData?2ResetStats?4ini?$AA@
  018b1	b9 00 00 00 00	 mov	 ecx, OFFSET ?gDirPath@@3VCDirPath@@A ; gDirPath
  018b6	e8 00 00 00 00	 call	 ?GetNewPath@CDirPath@@QAEPADPAD@Z ; CDirPath::GetNewPath
  018bb	50		 push	 eax
  018bc	6a 00		 push	 0
  018be	68 00 00 00 00	 push	 OFFSET ??_C@_0BF@FHJGPLPD@ResetStatsPriceWCoin?$AA@
  018c3	68 00 00 00 00	 push	 OFFSET ??_C@_06MLPMCPDE@ExTeam?$AA@
  018c8	ff 15 00 00 00
	00		 call	 DWORD PTR __imp__GetPrivateProfileIntA@16
  018ce	8b 4d fc	 mov	 ecx, DWORD PTR _this$[ebp]
  018d1	89 01		 mov	 DWORD PTR [ecx], eax

; 740  : 	this->ResetStatsPriceCredit = GetPrivateProfileInt("ExTeam", "ResetStatsPriceCredit", 0, gDirPath.GetNewPath("ExData\\ResetStats.ini"));;

  018d3	68 00 00 00 00	 push	 OFFSET ??_C@_0BG@CKONHJCD@ExData?2ResetStats?4ini?$AA@
  018d8	b9 00 00 00 00	 mov	 ecx, OFFSET ?gDirPath@@3VCDirPath@@A ; gDirPath
  018dd	e8 00 00 00 00	 call	 ?GetNewPath@CDirPath@@QAEPADPAD@Z ; CDirPath::GetNewPath
  018e2	50		 push	 eax
  018e3	6a 00		 push	 0
  018e5	68 00 00 00 00	 push	 OFFSET ??_C@_0BG@IOJCDDID@ResetStatsPriceCredit?$AA@
  018ea	68 00 00 00 00	 push	 OFFSET ??_C@_06MLPMCPDE@ExTeam?$AA@
  018ef	ff 15 00 00 00
	00		 call	 DWORD PTR __imp__GetPrivateProfileIntA@16
  018f5	8b 4d fc	 mov	 ecx, DWORD PTR _this$[ebp]
  018f8	89 41 04	 mov	 DWORD PTR [ecx+4], eax

; 741  : }

  018fb	5f		 pop	 edi
  018fc	5e		 pop	 esi
  018fd	5b		 pop	 ebx
  018fe	8b e5		 mov	 esp, ebp
  01900	5d		 pop	 ebp
  01901	c3		 ret	 0
?ResetPointsLoad@ÑExUser@@QAEXXZ ENDP			; ÑExUser::ResetPointsLoad
_TEXT	ENDS
PUBLIC	__$ArrayPad$
; Function compile flags: /Odtp /ZI
_TEXT	SEGMENT
tv195 = -88						; size = 4
_pMsg$ = -20						; size = 12
_this$ = -8						; size = 4
__$ArrayPad$ = -4					; size = 4
_aIndex$ = 8						; size = 4
?ResetPointSend@ÑExUser@@QAEXH@Z PROC			; ÑExUser::ResetPointSend
; _this$ = ecx

; 744  : {

  01910	55		 push	 ebp
  01911	8b ec		 mov	 ebp, esp
  01913	83 ec 58	 sub	 esp, 88			; 00000058H
  01916	a1 00 00 00 00	 mov	 eax, DWORD PTR ___security_cookie
  0191b	33 c5		 xor	 eax, ebp
  0191d	89 45 fc	 mov	 DWORD PTR __$ArrayPad$[ebp], eax
  01920	53		 push	 ebx
  01921	56		 push	 esi
  01922	57		 push	 edi
  01923	89 4d f8	 mov	 DWORD PTR _this$[ebp], ecx

; 745  : #if(ADD_ADD_RESETPOINT==0)
; 746  : 	return;
; 747  : #endif
; 748  : 
; 749  : 	if( !g_ExLicense.CheckUser(eExUB::Local) && 
; 750  : 		!g_ExLicense.CheckUser(eExUB::Gredy) &&
; 751  : 		!g_ExLicense.CheckUser(eExUB::Gredy2) && 
; 752  : 		!g_ExLicense.CheckUser(eExUB::MU2Play) &&
; 753  : 		!g_ExLicense.CheckUser(eExUB::GredyLocal) &&
; 754  : 		!g_ExLicense.CheckUser(eExUB::SILVER1) &&
; 755  : 		!g_ExLicense.CheckUser(eExUB::SILVER2) &&
; 756  : 		!g_ExLicense.CheckUser(eExUB::EpicMU) &&
; 757  : 		!THINNAKORN_MAC &&
; 758  : 		!g_ExLicense.CheckUser(eExUB::Escalate)&&
; 759  : 		!g_ExLicense.CheckUser(eExUB::eternalmu)&&
; 760  : 		!g_ExLicense.CheckUser(eExUB::Artem)&&
; 761  : 		!g_ExLicense.CheckUser(eExUB::Artem2)&&
; 762  : 		!g_ExLicense.CheckUser(eExUB::RevoMU)&&
; 763  : 		!g_ExLicense.CheckUser(eExUB::masonX)&&
; 764  : 		!g_ExLicense.CheckUser(eExUB::ArcMu) &&
; 765  : 		!g_ExLicense.CheckUser(eExUB::GloryMU) &&
; 766  : 		!g_ExLicense.CheckUser(eExUB::MedoniAndrei) &&
; 767  : 		!g_ExLicense.CheckUser(eExUB::mu4you) &&
; 768  : 		!g_ExLicense.CheckUser(eExUB::NSGames) )

  01926	6a 00		 push	 0
  01928	b9 00 00 00 00	 mov	 ecx, OFFSET ?g_ExLicense@@3VCExLicense@@A ; g_ExLicense
  0192d	e8 00 00 00 00	 call	 ?CheckUser@CExLicense@@QAE_NH@Z ; CExLicense::CheckUser
  01932	0f b6 c0	 movzx	 eax, al
  01935	85 c0		 test	 eax, eax
  01937	0f 85 91 01 00
	00		 jne	 $LN2@ResetPoint
  0193d	6a 20		 push	 32			; 00000020H
  0193f	b9 00 00 00 00	 mov	 ecx, OFFSET ?g_ExLicense@@3VCExLicense@@A ; g_ExLicense
  01944	e8 00 00 00 00	 call	 ?CheckUser@CExLicense@@QAE_NH@Z ; CExLicense::CheckUser
  01949	0f b6 c0	 movzx	 eax, al
  0194c	85 c0		 test	 eax, eax
  0194e	0f 85 7a 01 00
	00		 jne	 $LN2@ResetPoint
  01954	6a 22		 push	 34			; 00000022H
  01956	b9 00 00 00 00	 mov	 ecx, OFFSET ?g_ExLicense@@3VCExLicense@@A ; g_ExLicense
  0195b	e8 00 00 00 00	 call	 ?CheckUser@CExLicense@@QAE_NH@Z ; CExLicense::CheckUser
  01960	0f b6 c0	 movzx	 eax, al
  01963	85 c0		 test	 eax, eax
  01965	0f 85 63 01 00
	00		 jne	 $LN2@ResetPoint
  0196b	6a 36		 push	 54			; 00000036H
  0196d	b9 00 00 00 00	 mov	 ecx, OFFSET ?g_ExLicense@@3VCExLicense@@A ; g_ExLicense
  01972	e8 00 00 00 00	 call	 ?CheckUser@CExLicense@@QAE_NH@Z ; CExLicense::CheckUser
  01977	0f b6 c0	 movzx	 eax, al
  0197a	85 c0		 test	 eax, eax
  0197c	0f 85 4c 01 00
	00		 jne	 $LN2@ResetPoint
  01982	6a 21		 push	 33			; 00000021H
  01984	b9 00 00 00 00	 mov	 ecx, OFFSET ?g_ExLicense@@3VCExLicense@@A ; g_ExLicense
  01989	e8 00 00 00 00	 call	 ?CheckUser@CExLicense@@QAE_NH@Z ; CExLicense::CheckUser
  0198e	0f b6 c0	 movzx	 eax, al
  01991	85 c0		 test	 eax, eax
  01993	0f 85 35 01 00
	00		 jne	 $LN2@ResetPoint
  01999	6a 07		 push	 7
  0199b	b9 00 00 00 00	 mov	 ecx, OFFSET ?g_ExLicense@@3VCExLicense@@A ; g_ExLicense
  019a0	e8 00 00 00 00	 call	 ?CheckUser@CExLicense@@QAE_NH@Z ; CExLicense::CheckUser
  019a5	0f b6 c0	 movzx	 eax, al
  019a8	85 c0		 test	 eax, eax
  019aa	0f 85 1e 01 00
	00		 jne	 $LN2@ResetPoint
  019b0	6a 08		 push	 8
  019b2	b9 00 00 00 00	 mov	 ecx, OFFSET ?g_ExLicense@@3VCExLicense@@A ; g_ExLicense
  019b7	e8 00 00 00 00	 call	 ?CheckUser@CExLicense@@QAE_NH@Z ; CExLicense::CheckUser
  019bc	0f b6 c0	 movzx	 eax, al
  019bf	85 c0		 test	 eax, eax
  019c1	0f 85 07 01 00
	00		 jne	 $LN2@ResetPoint
  019c7	6a 3b		 push	 59			; 0000003bH
  019c9	b9 00 00 00 00	 mov	 ecx, OFFSET ?g_ExLicense@@3VCExLicense@@A ; g_ExLicense
  019ce	e8 00 00 00 00	 call	 ?CheckUser@CExLicense@@QAE_NH@Z ; CExLicense::CheckUser
  019d3	0f b6 c0	 movzx	 eax, al
  019d6	85 c0		 test	 eax, eax
  019d8	0f 85 f0 00 00
	00		 jne	 $LN2@ResetPoint
  019de	b8 01 00 00 00	 mov	 eax, 1
  019e3	85 c0		 test	 eax, eax
  019e5	0f 84 e3 00 00
	00		 je	 $LN2@ResetPoint
  019eb	6a 40		 push	 64			; 00000040H
  019ed	b9 00 00 00 00	 mov	 ecx, OFFSET ?g_ExLicense@@3VCExLicense@@A ; g_ExLicense
  019f2	e8 00 00 00 00	 call	 ?CheckUser@CExLicense@@QAE_NH@Z ; CExLicense::CheckUser
  019f7	0f b6 c0	 movzx	 eax, al
  019fa	85 c0		 test	 eax, eax
  019fc	0f 85 cc 00 00
	00		 jne	 $LN2@ResetPoint
  01a02	6a 4f		 push	 79			; 0000004fH
  01a04	b9 00 00 00 00	 mov	 ecx, OFFSET ?g_ExLicense@@3VCExLicense@@A ; g_ExLicense
  01a09	e8 00 00 00 00	 call	 ?CheckUser@CExLicense@@QAE_NH@Z ; CExLicense::CheckUser
  01a0e	0f b6 c0	 movzx	 eax, al
  01a11	85 c0		 test	 eax, eax
  01a13	0f 85 b5 00 00
	00		 jne	 $LN2@ResetPoint
  01a19	6a 30		 push	 48			; 00000030H
  01a1b	b9 00 00 00 00	 mov	 ecx, OFFSET ?g_ExLicense@@3VCExLicense@@A ; g_ExLicense
  01a20	e8 00 00 00 00	 call	 ?CheckUser@CExLicense@@QAE_NH@Z ; CExLicense::CheckUser
  01a25	0f b6 c0	 movzx	 eax, al
  01a28	85 c0		 test	 eax, eax
  01a2a	0f 85 9e 00 00
	00		 jne	 $LN2@ResetPoint
  01a30	6a 31		 push	 49			; 00000031H
  01a32	b9 00 00 00 00	 mov	 ecx, OFFSET ?g_ExLicense@@3VCExLicense@@A ; g_ExLicense
  01a37	e8 00 00 00 00	 call	 ?CheckUser@CExLicense@@QAE_NH@Z ; CExLicense::CheckUser
  01a3c	0f b6 c0	 movzx	 eax, al
  01a3f	85 c0		 test	 eax, eax
  01a41	0f 85 87 00 00
	00		 jne	 $LN2@ResetPoint
  01a47	6a 43		 push	 67			; 00000043H
  01a49	b9 00 00 00 00	 mov	 ecx, OFFSET ?g_ExLicense@@3VCExLicense@@A ; g_ExLicense
  01a4e	e8 00 00 00 00	 call	 ?CheckUser@CExLicense@@QAE_NH@Z ; CExLicense::CheckUser
  01a53	0f b6 c0	 movzx	 eax, al
  01a56	85 c0		 test	 eax, eax
  01a58	75 74		 jne	 SHORT $LN2@ResetPoint
  01a5a	6a 3c		 push	 60			; 0000003cH
  01a5c	b9 00 00 00 00	 mov	 ecx, OFFSET ?g_ExLicense@@3VCExLicense@@A ; g_ExLicense
  01a61	e8 00 00 00 00	 call	 ?CheckUser@CExLicense@@QAE_NH@Z ; CExLicense::CheckUser
  01a66	0f b6 c0	 movzx	 eax, al
  01a69	85 c0		 test	 eax, eax
  01a6b	75 61		 jne	 SHORT $LN2@ResetPoint
  01a6d	6a 48		 push	 72			; 00000048H
  01a6f	b9 00 00 00 00	 mov	 ecx, OFFSET ?g_ExLicense@@3VCExLicense@@A ; g_ExLicense
  01a74	e8 00 00 00 00	 call	 ?CheckUser@CExLicense@@QAE_NH@Z ; CExLicense::CheckUser
  01a79	0f b6 c0	 movzx	 eax, al
  01a7c	85 c0		 test	 eax, eax
  01a7e	75 4e		 jne	 SHORT $LN2@ResetPoint
  01a80	6a 46		 push	 70			; 00000046H
  01a82	b9 00 00 00 00	 mov	 ecx, OFFSET ?g_ExLicense@@3VCExLicense@@A ; g_ExLicense
  01a87	e8 00 00 00 00	 call	 ?CheckUser@CExLicense@@QAE_NH@Z ; CExLicense::CheckUser
  01a8c	0f b6 c0	 movzx	 eax, al
  01a8f	85 c0		 test	 eax, eax
  01a91	75 3b		 jne	 SHORT $LN2@ResetPoint
  01a93	6a 32		 push	 50			; 00000032H
  01a95	b9 00 00 00 00	 mov	 ecx, OFFSET ?g_ExLicense@@3VCExLicense@@A ; g_ExLicense
  01a9a	e8 00 00 00 00	 call	 ?CheckUser@CExLicense@@QAE_NH@Z ; CExLicense::CheckUser
  01a9f	0f b6 c0	 movzx	 eax, al
  01aa2	85 c0		 test	 eax, eax
  01aa4	75 28		 jne	 SHORT $LN2@ResetPoint
  01aa6	6a 4e		 push	 78			; 0000004eH
  01aa8	b9 00 00 00 00	 mov	 ecx, OFFSET ?g_ExLicense@@3VCExLicense@@A ; g_ExLicense
  01aad	e8 00 00 00 00	 call	 ?CheckUser@CExLicense@@QAE_NH@Z ; CExLicense::CheckUser
  01ab2	0f b6 c0	 movzx	 eax, al
  01ab5	85 c0		 test	 eax, eax
  01ab7	75 15		 jne	 SHORT $LN2@ResetPoint
  01ab9	6a 51		 push	 81			; 00000051H
  01abb	b9 00 00 00 00	 mov	 ecx, OFFSET ?g_ExLicense@@3VCExLicense@@A ; g_ExLicense
  01ac0	e8 00 00 00 00	 call	 ?CheckUser@CExLicense@@QAE_NH@Z ; CExLicense::CheckUser
  01ac5	0f b6 c0	 movzx	 eax, al
  01ac8	85 c0		 test	 eax, eax
  01aca	75 02		 jne	 SHORT $LN2@ResetPoint

; 769  : 	{
; 770  : 		return;

  01acc	eb 61		 jmp	 SHORT $LN3@ResetPoint
$LN2@ResetPoint:

; 771  : 	}
; 772  : 
; 773  : 	if(!OBJMAX_RANGE(aIndex))

  01ace	83 7d 08 00	 cmp	 DWORD PTR _aIndex$[ebp], 0
  01ad2	7d 09		 jge	 SHORT $LN5@ResetPoint
  01ad4	c7 45 a8 00 00
	00 00		 mov	 DWORD PTR tv195[ebp], 0
  01adb	eb 0f		 jmp	 SHORT $LN6@ResetPoint
$LN5@ResetPoint:
  01add	33 c0		 xor	 eax, eax
  01adf	81 7d 08 97 3a
	00 00		 cmp	 DWORD PTR _aIndex$[ebp], 14999 ; 00003a97H
  01ae6	0f 9e c0	 setle	 al
  01ae9	89 45 a8	 mov	 DWORD PTR tv195[ebp], eax
$LN6@ResetPoint:
  01aec	83 7d a8 00	 cmp	 DWORD PTR tv195[ebp], 0
  01af0	75 02		 jne	 SHORT $LN1@ResetPoint

; 774  : 	{
; 775  : 		return;

  01af2	eb 3b		 jmp	 SHORT $LN3@ResetPoint
$LN1@ResetPoint:

; 776  : 	}
; 777  : 
; 778  : 	GC_RESET_POINT_CFG pMsg;
; 779  : 	pMsg.h.set((LPBYTE)&pMsg, 0xFB, 0x27, sizeof(pMsg));

  01af4	6a 0c		 push	 12			; 0000000cH
  01af6	6a 27		 push	 39			; 00000027H
  01af8	68 fb 00 00 00	 push	 251			; 000000fbH
  01afd	8d 45 ec	 lea	 eax, DWORD PTR _pMsg$[ebp]
  01b00	50		 push	 eax
  01b01	8d 4d ec	 lea	 ecx, DWORD PTR _pMsg$[ebp]
  01b04	e8 00 00 00 00	 call	 ?set@PBMSG_HEAD2@@QAEXPAEEEE@Z ; PBMSG_HEAD2::set

; 780  : 	pMsg.iResetStatsPriceBonus = this->ResetStatsPriceWCoin;

  01b09	8b 45 f8	 mov	 eax, DWORD PTR _this$[ebp]
  01b0c	8b 08		 mov	 ecx, DWORD PTR [eax]
  01b0e	89 4d f0	 mov	 DWORD PTR _pMsg$[ebp+4], ecx

; 781  : 	pMsg.iResetStatsPriceCredit = this->ResetStatsPriceCredit;

  01b11	8b 45 f8	 mov	 eax, DWORD PTR _this$[ebp]
  01b14	8b 48 04	 mov	 ecx, DWORD PTR [eax+4]
  01b17	89 4d f4	 mov	 DWORD PTR _pMsg$[ebp+8], ecx

; 782  : 	DataSend(aIndex, (LPBYTE)&pMsg, pMsg.h.size);	

  01b1a	0f b6 45 ed	 movzx	 eax, BYTE PTR _pMsg$[ebp+1]
  01b1e	50		 push	 eax
  01b1f	8d 4d ec	 lea	 ecx, DWORD PTR _pMsg$[ebp]
  01b22	51		 push	 ecx
  01b23	8b 55 08	 mov	 edx, DWORD PTR _aIndex$[ebp]
  01b26	52		 push	 edx
  01b27	e8 00 00 00 00	 call	 ?DataSend@@YAHHPAEK@Z	; DataSend
  01b2c	83 c4 0c	 add	 esp, 12			; 0000000cH
$LN3@ResetPoint:

; 783  : }

  01b2f	5f		 pop	 edi
  01b30	5e		 pop	 esi
  01b31	5b		 pop	 ebx
  01b32	8b 4d fc	 mov	 ecx, DWORD PTR __$ArrayPad$[ebp]
  01b35	33 cd		 xor	 ecx, ebp
  01b37	e8 00 00 00 00	 call	 @__security_check_cookie@4
  01b3c	8b e5		 mov	 esp, ebp
  01b3e	5d		 pop	 ebp
  01b3f	c2 04 00	 ret	 4
?ResetPointSend@ÑExUser@@QAEXH@Z ENDP			; ÑExUser::ResetPointSend
_TEXT	ENDS
PUBLIC	__$ArrayPad$
PUBLIC	?GCServerTime@ÑExUser@@QAEXXZ			; ÑExUser::GCServerTime
EXTRN	__imp__GetLocalTime@4:PROC
; Function compile flags: /Odtp /ZI
_TEXT	SEGMENT
_pMsg$234514 = -44					; size = 10
_lpUser$234512 = -32					; size = 4
_aIndex$234508 = -28					; size = 4
_sysTime$ = -24						; size = 16
_this$ = -8						; size = 4
__$ArrayPad$ = -4					; size = 4
?GCServerTime@ÑExUser@@QAEXXZ PROC			; ÑExUser::GCServerTime
; _this$ = ecx

; 788  : {

  01b50	55		 push	 ebp
  01b51	8b ec		 mov	 ebp, esp
  01b53	83 ec 6c	 sub	 esp, 108		; 0000006cH
  01b56	a1 00 00 00 00	 mov	 eax, DWORD PTR ___security_cookie
  01b5b	33 c5		 xor	 eax, ebp
  01b5d	89 45 fc	 mov	 DWORD PTR __$ArrayPad$[ebp], eax
  01b60	53		 push	 ebx
  01b61	56		 push	 esi
  01b62	57		 push	 edi
  01b63	89 4d f8	 mov	 DWORD PTR _this$[ebp], ecx

; 789  : 	if(!g_ExLicense.CheckUser(eExUB::Local) && 
; 790  : 	   !g_ExLicense.CheckUser(eExUB::Gredy) &&
; 791  : 	   !g_ExLicense.CheckUser(eExUB::Gredy2) && 
; 792  : 	   !g_ExLicense.CheckUser(eExUB::GredyLocal) &&
; 793  : 	   !g_ExLicense.CheckUser(eExUB::Artem) &&
; 794  : 	   !g_ExLicense.CheckUser(eExUB::Stone) &&
; 795  : 	   !g_ExLicense.CheckUser(eExUB::Artem2)&&
; 796  : 	   !g_ExLicense.CheckUser(eExUB::RevoMU))

  01b66	6a 00		 push	 0
  01b68	b9 00 00 00 00	 mov	 ecx, OFFSET ?g_ExLicense@@3VCExLicense@@A ; g_ExLicense
  01b6d	e8 00 00 00 00	 call	 ?CheckUser@CExLicense@@QAE_NH@Z ; CExLicense::CheckUser
  01b72	0f b6 c0	 movzx	 eax, al
  01b75	85 c0		 test	 eax, eax
  01b77	0f 85 8a 00 00
	00		 jne	 $LN5@GCServerTi
  01b7d	6a 20		 push	 32			; 00000020H
  01b7f	b9 00 00 00 00	 mov	 ecx, OFFSET ?g_ExLicense@@3VCExLicense@@A ; g_ExLicense
  01b84	e8 00 00 00 00	 call	 ?CheckUser@CExLicense@@QAE_NH@Z ; CExLicense::CheckUser
  01b89	0f b6 c0	 movzx	 eax, al
  01b8c	85 c0		 test	 eax, eax
  01b8e	75 77		 jne	 SHORT $LN5@GCServerTi
  01b90	6a 22		 push	 34			; 00000022H
  01b92	b9 00 00 00 00	 mov	 ecx, OFFSET ?g_ExLicense@@3VCExLicense@@A ; g_ExLicense
  01b97	e8 00 00 00 00	 call	 ?CheckUser@CExLicense@@QAE_NH@Z ; CExLicense::CheckUser
  01b9c	0f b6 c0	 movzx	 eax, al
  01b9f	85 c0		 test	 eax, eax
  01ba1	75 64		 jne	 SHORT $LN5@GCServerTi
  01ba3	6a 21		 push	 33			; 00000021H
  01ba5	b9 00 00 00 00	 mov	 ecx, OFFSET ?g_ExLicense@@3VCExLicense@@A ; g_ExLicense
  01baa	e8 00 00 00 00	 call	 ?CheckUser@CExLicense@@QAE_NH@Z ; CExLicense::CheckUser
  01baf	0f b6 c0	 movzx	 eax, al
  01bb2	85 c0		 test	 eax, eax
  01bb4	75 51		 jne	 SHORT $LN5@GCServerTi
  01bb6	6a 30		 push	 48			; 00000030H
  01bb8	b9 00 00 00 00	 mov	 ecx, OFFSET ?g_ExLicense@@3VCExLicense@@A ; g_ExLicense
  01bbd	e8 00 00 00 00	 call	 ?CheckUser@CExLicense@@QAE_NH@Z ; CExLicense::CheckUser
  01bc2	0f b6 c0	 movzx	 eax, al
  01bc5	85 c0		 test	 eax, eax
  01bc7	75 3e		 jne	 SHORT $LN5@GCServerTi
  01bc9	6a 37		 push	 55			; 00000037H
  01bcb	b9 00 00 00 00	 mov	 ecx, OFFSET ?g_ExLicense@@3VCExLicense@@A ; g_ExLicense
  01bd0	e8 00 00 00 00	 call	 ?CheckUser@CExLicense@@QAE_NH@Z ; CExLicense::CheckUser
  01bd5	0f b6 c0	 movzx	 eax, al
  01bd8	85 c0		 test	 eax, eax
  01bda	75 2b		 jne	 SHORT $LN5@GCServerTi
  01bdc	6a 31		 push	 49			; 00000031H
  01bde	b9 00 00 00 00	 mov	 ecx, OFFSET ?g_ExLicense@@3VCExLicense@@A ; g_ExLicense
  01be3	e8 00 00 00 00	 call	 ?CheckUser@CExLicense@@QAE_NH@Z ; CExLicense::CheckUser
  01be8	0f b6 c0	 movzx	 eax, al
  01beb	85 c0		 test	 eax, eax
  01bed	75 18		 jne	 SHORT $LN5@GCServerTi
  01bef	6a 43		 push	 67			; 00000043H
  01bf1	b9 00 00 00 00	 mov	 ecx, OFFSET ?g_ExLicense@@3VCExLicense@@A ; g_ExLicense
  01bf6	e8 00 00 00 00	 call	 ?CheckUser@CExLicense@@QAE_NH@Z ; CExLicense::CheckUser
  01bfb	0f b6 c0	 movzx	 eax, al
  01bfe	85 c0		 test	 eax, eax
  01c00	75 05		 jne	 SHORT $LN5@GCServerTi

; 797  : 	{
; 798  : 		return;

  01c02	e9 86 00 00 00	 jmp	 $LN6@GCServerTi
$LN5@GCServerTi:

; 799  : 	}
; 800  : 
; 801  : 	SYSTEMTIME sysTime;
; 802  : 	GetLocalTime(&sysTime);

  01c07	8d 45 e8	 lea	 eax, DWORD PTR _sysTime$[ebp]
  01c0a	50		 push	 eax
  01c0b	ff 15 00 00 00
	00		 call	 DWORD PTR __imp__GetLocalTime@4

; 803  : 
; 804  : 	for(int aIndex = OBJ_STARTUSERINDEX; aIndex < OBJMAX; aIndex++)

  01c11	c7 45 e4 b0 36
	00 00		 mov	 DWORD PTR _aIndex$234508[ebp], 14000 ; 000036b0H
  01c18	eb 09		 jmp	 SHORT $LN4@GCServerTi
$LN3@GCServerTi:
  01c1a	8b 45 e4	 mov	 eax, DWORD PTR _aIndex$234508[ebp]
  01c1d	83 c0 01	 add	 eax, 1
  01c20	89 45 e4	 mov	 DWORD PTR _aIndex$234508[ebp], eax
$LN4@GCServerTi:
  01c23	81 7d e4 98 3a
	00 00		 cmp	 DWORD PTR _aIndex$234508[ebp], 15000 ; 00003a98H
  01c2a	7d 61		 jge	 SHORT $LN6@GCServerTi

; 805  : 	{
; 806  : 		LPOBJ lpUser = &gObj[aIndex];

  01c2c	8b 45 e4	 mov	 eax, DWORD PTR _aIndex$234508[ebp]
  01c2f	69 c0 38 2b 00
	00		 imul	 eax, 11064		; 00002b38H
  01c35	03 05 00 00 00
	00		 add	 eax, DWORD PTR ?gObj@@3PAUOBJECTSTRUCT@@A ; gObj
  01c3b	89 45 e0	 mov	 DWORD PTR _lpUser$234512[ebp], eax

; 807  : 
; 808  : 		if(lpUser->Connected < PLAYER_PLAYING)

  01c3e	8b 45 e0	 mov	 eax, DWORD PTR _lpUser$234512[ebp]
  01c41	83 78 04 03	 cmp	 DWORD PTR [eax+4], 3
  01c45	7d 02		 jge	 SHORT $LN1@GCServerTi

; 809  : 		{
; 810  : 			continue;

  01c47	eb d1		 jmp	 SHORT $LN3@GCServerTi
$LN1@GCServerTi:

; 811  : 		}
; 812  : 
; 813  : 		PMSG_SERVER_TIME pMsg;
; 814  : 		pMsg.h.set((LPBYTE)&pMsg, 0xFB, 0x70, sizeof(pMsg));

  01c49	6a 0a		 push	 10			; 0000000aH
  01c4b	6a 70		 push	 112			; 00000070H
  01c4d	68 fb 00 00 00	 push	 251			; 000000fbH
  01c52	8d 45 d4	 lea	 eax, DWORD PTR _pMsg$234514[ebp]
  01c55	50		 push	 eax
  01c56	8d 4d d4	 lea	 ecx, DWORD PTR _pMsg$234514[ebp]
  01c59	e8 00 00 00 00	 call	 ?set@PBMSG_HEAD2@@QAEXPAEEEE@Z ; PBMSG_HEAD2::set

; 815  : 		pMsg.Hour = sysTime.wHour;

  01c5e	66 8b 45 f0	 mov	 ax, WORD PTR _sysTime$[ebp+8]
  01c62	66 89 45 d8	 mov	 WORD PTR _pMsg$234514[ebp+4], ax

; 816  : 		pMsg.Minute = sysTime.wMinute;

  01c66	66 8b 45 f2	 mov	 ax, WORD PTR _sysTime$[ebp+10]
  01c6a	66 89 45 da	 mov	 WORD PTR _pMsg$234514[ebp+6], ax

; 817  : 		pMsg.Second = sysTime.wSecond;

  01c6e	66 8b 45 f4	 mov	 ax, WORD PTR _sysTime$[ebp+12]
  01c72	66 89 45 dc	 mov	 WORD PTR _pMsg$234514[ebp+8], ax

; 818  : 		DataSend(aIndex, (LPBYTE)&pMsg, pMsg.h.size);	

  01c76	0f b6 45 d5	 movzx	 eax, BYTE PTR _pMsg$234514[ebp+1]
  01c7a	50		 push	 eax
  01c7b	8d 4d d4	 lea	 ecx, DWORD PTR _pMsg$234514[ebp]
  01c7e	51		 push	 ecx
  01c7f	8b 55 e4	 mov	 edx, DWORD PTR _aIndex$234508[ebp]
  01c82	52		 push	 edx
  01c83	e8 00 00 00 00	 call	 ?DataSend@@YAHHPAEK@Z	; DataSend
  01c88	83 c4 0c	 add	 esp, 12			; 0000000cH

; 819  : 	}

  01c8b	eb 8d		 jmp	 SHORT $LN3@GCServerTi
$LN6@GCServerTi:

; 820  : }

  01c8d	5f		 pop	 edi
  01c8e	5e		 pop	 esi
  01c8f	5b		 pop	 ebx
  01c90	8b 4d fc	 mov	 ecx, DWORD PTR __$ArrayPad$[ebp]
  01c93	33 cd		 xor	 ecx, ebp
  01c95	e8 00 00 00 00	 call	 @__security_check_cookie@4
  01c9a	8b e5		 mov	 esp, ebp
  01c9c	5d		 pop	 ebp
  01c9d	c3		 ret	 0
?GCServerTime@ÑExUser@@QAEXXZ ENDP			; ÑExUser::GCServerTime
_TEXT	ENDS
PUBLIC	?TickCountClientDataSend@ÑExUser@@QAEXXZ	; ÑExUser::TickCountClientDataSend
EXTRN	?TeleportMap@CMapQuest@@QAEXHH@Z:PROC		; CMapQuest::TeleportMap
EXTRN	?g_MapQuest@@3VCMapQuest@@A:BYTE		; g_MapQuest
EXTRN	?GCConfig@OfflineMode@@QAEXH@Z:PROC		; OfflineMode::GCConfig
EXTRN	?g_OfflineMode@@3VOfflineMode@@A:BYTE		; g_OfflineMode
EXTRN	?RageConnect@cSystemOfRage@@QAEXH@Z:PROC	; cSystemOfRage::RageConnect
EXTRN	?gSystemOfRage@@3VcSystemOfRage@@A:BYTE		; gSystemOfRage
EXTRN	?GCIemSend@CSmithy@@QAEXH@Z:PROC		; CSmithy::GCIemSend
EXTRN	?g_Smithy@@3VCSmithy@@A:BYTE			; g_Smithy
EXTRN	?CheckMaxWindow@AntiCheatPlus@@QAEXH@Z:PROC	; AntiCheatPlus::CheckMaxWindow
EXTRN	?CheckMultiWindow@AntiCheatPlus@@QAEXH@Z:PROC	; AntiCheatPlus::CheckMultiWindow
EXTRN	?GC_Cheat@AntiCheatPlus@@QAEXH@Z:PROC		; AntiCheatPlus::GC_Cheat
EXTRN	?g_AntiCheatPlus@@3VAntiCheatPlus@@A:BYTE	; g_AntiCheatPlus
EXTRN	?SendUser@cRanking@@QAEXH@Z:PROC		; cRanking::SendUser
EXTRN	?gRanking@@3VcRanking@@A:BYTE			; gRanking
EXTRN	?PlayerCalculator@cWingsDamage@@QAEXH@Z:PROC	; cWingsDamage::PlayerCalculator
EXTRN	?gWingsDamage@@3VcWingsDamage@@A:BYTE		; gWingsDamage
EXTRN	?GCSettingsData@CAchievements@@QAEXH@Z:PROC	; CAchievements::GCSettingsData
EXTRN	?g_Achievements@@3VCAchievements@@A:BYTE	; g_Achievements
EXTRN	?DB_Load@CExGDManager@@QAEXH@Z:PROC		; CExGDManager::DB_Load
EXTRN	?g_ExGDManager@@3VCExGDManager@@A:BYTE		; g_ExGDManager
EXTRN	__imp__GetTickCount@0:PROC
; Function compile flags: /Odtp /ZI
_TEXT	SEGMENT
tv79 = -84						; size = 4
_dwDelay$234528 = -16					; size = 4
_lpUser$234524 = -12					; size = 4
_aIndex$234520 = -8					; size = 4
_this$ = -4						; size = 4
?TickCountClientDataSend@ÑExUser@@QAEXXZ PROC		; ÑExUser::TickCountClientDataSend
; _this$ = ecx

; 824  : {

  01ca0	55		 push	 ebp
  01ca1	8b ec		 mov	 ebp, esp
  01ca3	83 ec 54	 sub	 esp, 84			; 00000054H
  01ca6	53		 push	 ebx
  01ca7	56		 push	 esi
  01ca8	57		 push	 edi
  01ca9	89 4d fc	 mov	 DWORD PTR _this$[ebp], ecx

; 825  : 	for(int aIndex = OBJ_STARTUSERINDEX; aIndex < OBJMAX; aIndex++)

  01cac	c7 45 f8 b0 36
	00 00		 mov	 DWORD PTR _aIndex$234520[ebp], 14000 ; 000036b0H
  01cb3	eb 09		 jmp	 SHORT $LN21@TickCountC
$LN20@TickCountC:
  01cb5	8b 45 f8	 mov	 eax, DWORD PTR _aIndex$234520[ebp]
  01cb8	83 c0 01	 add	 eax, 1
  01cbb	89 45 f8	 mov	 DWORD PTR _aIndex$234520[ebp], eax
$LN21@TickCountC:
  01cbe	81 7d f8 98 3a
	00 00		 cmp	 DWORD PTR _aIndex$234520[ebp], 15000 ; 00003a98H
  01cc5	0f 8d 89 01 00
	00		 jge	 $LN22@TickCountC

; 826  : 	{
; 827  : 		LPOBJ lpUser = &gObj[aIndex];

  01ccb	8b 45 f8	 mov	 eax, DWORD PTR _aIndex$234520[ebp]
  01cce	69 c0 38 2b 00
	00		 imul	 eax, 11064		; 00002b38H
  01cd4	03 05 00 00 00
	00		 add	 eax, DWORD PTR ?gObj@@3PAUOBJECTSTRUCT@@A ; gObj
  01cda	89 45 f4	 mov	 DWORD PTR _lpUser$234524[ebp], eax

; 828  : 
; 829  : 		if(lpUser->Connected < PLAYER_PLAYING)

  01cdd	8b 45 f4	 mov	 eax, DWORD PTR _lpUser$234524[ebp]
  01ce0	83 78 04 03	 cmp	 DWORD PTR [eax+4], 3
  01ce4	7d 02		 jge	 SHORT $LN18@TickCountC

; 830  : 		{
; 831  : 			continue;

  01ce6	eb cd		 jmp	 SHORT $LN20@TickCountC
$LN18@TickCountC:

; 832  : 		}
; 833  : 
; 834  : 		if(lpUser->m_iLoadConfigNumber <= 0 || lpUser->m_iLoadConfigNumber  > 10)

  01ce8	8b 45 f4	 mov	 eax, DWORD PTR _lpUser$234524[ebp]
  01ceb	83 b8 d4 2a 00
	00 00		 cmp	 DWORD PTR [eax+10964], 0
  01cf2	7e 0c		 jle	 SHORT $LN16@TickCountC
  01cf4	8b 45 f4	 mov	 eax, DWORD PTR _lpUser$234524[ebp]
  01cf7	83 b8 d4 2a 00
	00 0a		 cmp	 DWORD PTR [eax+10964], 10 ; 0000000aH
  01cfe	7e 02		 jle	 SHORT $LN17@TickCountC
$LN16@TickCountC:

; 835  : 		{
; 836  : 			continue;

  01d00	eb b3		 jmp	 SHORT $LN20@TickCountC
$LN17@TickCountC:

; 837  : 		}
; 838  : 
; 839  : 		DWORD dwDelay = (GetTickCount() - lpUser->m_iLoadConfigTickCount);

  01d02	ff 15 00 00 00
	00		 call	 DWORD PTR __imp__GetTickCount@0
  01d08	8b 4d f4	 mov	 ecx, DWORD PTR _lpUser$234524[ebp]
  01d0b	2b 81 d8 2a 00
	00		 sub	 eax, DWORD PTR [ecx+10968]
  01d11	89 45 f0	 mov	 DWORD PTR _dwDelay$234528[ebp], eax

; 840  : 
; 841  : 		if(dwDelay < 1000)

  01d14	81 7d f0 e8 03
	00 00		 cmp	 DWORD PTR _dwDelay$234528[ebp], 1000 ; 000003e8H
  01d1b	73 02		 jae	 SHORT $LN15@TickCountC

; 842  : 		{
; 843  : 			continue;

  01d1d	eb 96		 jmp	 SHORT $LN20@TickCountC
$LN15@TickCountC:

; 844  : 		}
; 845  : 
; 846  : 		switch(lpUser->m_iLoadConfigNumber)

  01d1f	8b 45 f4	 mov	 eax, DWORD PTR _lpUser$234524[ebp]
  01d22	8b 88 d4 2a 00
	00		 mov	 ecx, DWORD PTR [eax+10964]
  01d28	89 4d ac	 mov	 DWORD PTR tv79[ebp], ecx
  01d2b	8b 55 ac	 mov	 edx, DWORD PTR tv79[ebp]
  01d2e	83 ea 01	 sub	 edx, 1
  01d31	89 55 ac	 mov	 DWORD PTR tv79[ebp], edx
  01d34	83 7d ac 09	 cmp	 DWORD PTR tv79[ebp], 9
  01d38	0f 87 ed 00 00
	00		 ja	 $LN13@TickCountC
  01d3e	8b 45 ac	 mov	 eax, DWORD PTR tv79[ebp]
  01d41	ff 24 85 00 00
	00 00		 jmp	 DWORD PTR $LN24@TickCountC[eax*4]
$LN12@TickCountC:

; 847  : 		{
; 848  : 		case 1:
; 849  : 			g_ExGDManager.DB_Load(aIndex);

  01d48	8b 45 f8	 mov	 eax, DWORD PTR _aIndex$234520[ebp]
  01d4b	50		 push	 eax
  01d4c	b9 00 00 00 00	 mov	 ecx, OFFSET ?g_ExGDManager@@3VCExGDManager@@A ; g_ExGDManager
  01d51	e8 00 00 00 00	 call	 ?DB_Load@CExGDManager@@QAEXH@Z ; CExGDManager::DB_Load

; 850  : 			break;

  01d56	e9 d0 00 00 00	 jmp	 $LN13@TickCountC
$LN11@TickCountC:

; 851  : 		case 2:
; 852  : 			#if(SYSTEM_ACHIEVEMENTS)
; 853  : 			g_Achievements.GCSettingsData(aIndex);

  01d5b	8b 45 f8	 mov	 eax, DWORD PTR _aIndex$234520[ebp]
  01d5e	50		 push	 eax
  01d5f	b9 00 00 00 00	 mov	 ecx, OFFSET ?g_Achievements@@3VCAchievements@@A ; g_Achievements
  01d64	e8 00 00 00 00	 call	 ?GCSettingsData@CAchievements@@QAEXH@Z ; CAchievements::GCSettingsData

; 854  : 			#endif
; 855  : 			break;

  01d69	e9 bd 00 00 00	 jmp	 $LN13@TickCountC
$LN10@TickCountC:

; 856  : 		case 3:
; 857  : 			this->GCDataClient(aIndex);

  01d6e	8b 45 f8	 mov	 eax, DWORD PTR _aIndex$234520[ebp]
  01d71	50		 push	 eax
  01d72	8b 4d fc	 mov	 ecx, DWORD PTR _this$[ebp]
  01d75	e8 00 00 00 00	 call	 ?GCDataClient@ÑExUser@@QAEXH@Z ; ÑExUser::GCDataClient
$LN9@TickCountC:

; 858  : 		case 4:
; 859  : 			gWingsDamage.PlayerCalculator(aIndex);

  01d7a	8b 45 f8	 mov	 eax, DWORD PTR _aIndex$234520[ebp]
  01d7d	50		 push	 eax
  01d7e	b9 00 00 00 00	 mov	 ecx, OFFSET ?gWingsDamage@@3VcWingsDamage@@A ; gWingsDamage
  01d83	e8 00 00 00 00	 call	 ?PlayerCalculator@cWingsDamage@@QAEXH@Z ; cWingsDamage::PlayerCalculator

; 860  : 			break;

  01d88	e9 9e 00 00 00	 jmp	 $LN13@TickCountC
$LN8@TickCountC:

; 861  : 		case 5:
; 862  : 			gRanking.SendUser(aIndex);

  01d8d	8b 45 f8	 mov	 eax, DWORD PTR _aIndex$234520[ebp]
  01d90	50		 push	 eax
  01d91	b9 00 00 00 00	 mov	 ecx, OFFSET ?gRanking@@3VcRanking@@A ; gRanking
  01d96	e8 00 00 00 00	 call	 ?SendUser@cRanking@@QAEXH@Z ; cRanking::SendUser

; 863  : 			break;

  01d9b	e9 8b 00 00 00	 jmp	 $LN13@TickCountC
$LN7@TickCountC:

; 864  : 		case 6:
; 865  : 			{
; 866  : 				#if(ANTI_CHEAT_PLUS==TRUE)
; 867  : 				g_AntiCheatPlus.GC_Cheat(aIndex);

  01da0	8b 45 f8	 mov	 eax, DWORD PTR _aIndex$234520[ebp]
  01da3	50		 push	 eax
  01da4	b9 00 00 00 00	 mov	 ecx, OFFSET ?g_AntiCheatPlus@@3VAntiCheatPlus@@A ; g_AntiCheatPlus
  01da9	e8 00 00 00 00	 call	 ?GC_Cheat@AntiCheatPlus@@QAEXH@Z ; AntiCheatPlus::GC_Cheat

; 868  : 				g_AntiCheatPlus.CheckMultiWindow(aIndex);

  01dae	8b 45 f8	 mov	 eax, DWORD PTR _aIndex$234520[ebp]
  01db1	50		 push	 eax
  01db2	b9 00 00 00 00	 mov	 ecx, OFFSET ?g_AntiCheatPlus@@3VAntiCheatPlus@@A ; g_AntiCheatPlus
  01db7	e8 00 00 00 00	 call	 ?CheckMultiWindow@AntiCheatPlus@@QAEXH@Z ; AntiCheatPlus::CheckMultiWindow

; 869  : 				g_AntiCheatPlus.CheckMaxWindow(aIndex);

  01dbc	8b 45 f8	 mov	 eax, DWORD PTR _aIndex$234520[ebp]
  01dbf	50		 push	 eax
  01dc0	b9 00 00 00 00	 mov	 ecx, OFFSET ?g_AntiCheatPlus@@3VAntiCheatPlus@@A ; g_AntiCheatPlus
  01dc5	e8 00 00 00 00	 call	 ?CheckMaxWindow@AntiCheatPlus@@QAEXH@Z ; AntiCheatPlus::CheckMaxWindow

; 870  : 				#endif
; 871  : 			}
; 872  : 			break;

  01dca	eb 5f		 jmp	 SHORT $LN13@TickCountC
$LN6@TickCountC:

; 873  : 		case 7:
; 874  : 			#if(CUSTOM_SMITHY == TRUE)
; 875  : 			g_Smithy.GCIemSend(aIndex);

  01dcc	8b 45 f8	 mov	 eax, DWORD PTR _aIndex$234520[ebp]
  01dcf	50		 push	 eax
  01dd0	b9 00 00 00 00	 mov	 ecx, OFFSET ?g_Smithy@@3VCSmithy@@A ; g_Smithy
  01dd5	e8 00 00 00 00	 call	 ?GCIemSend@CSmithy@@QAEXH@Z ; CSmithy::GCIemSend

; 876  : 			#endif
; 877  : 			break;

  01dda	eb 4f		 jmp	 SHORT $LN13@TickCountC
$LN5@TickCountC:

; 878  : 		case 8:
; 879  : 			{
; 880  : 				if(g_ExLicense.user.Rage)

  01ddc	0f b6 05 c9 00
	00 00		 movzx	 eax, BYTE PTR ?g_ExLicense@@3VCExLicense@@A+201
  01de3	85 c0		 test	 eax, eax
  01de5	74 0e		 je	 SHORT $LN4@TickCountC

; 881  : 				{
; 882  : 					gSystemOfRage.RageConnect(aIndex);

  01de7	8b 45 f8	 mov	 eax, DWORD PTR _aIndex$234520[ebp]
  01dea	50		 push	 eax
  01deb	b9 00 00 00 00	 mov	 ecx, OFFSET ?gSystemOfRage@@3VcSystemOfRage@@A ; gSystemOfRage
  01df0	e8 00 00 00 00	 call	 ?RageConnect@cSystemOfRage@@QAEXH@Z ; cSystemOfRage::RageConnect
$LN4@TickCountC:

; 883  : 				}
; 884  : 			}
; 885  : 			break;

  01df5	eb 34		 jmp	 SHORT $LN13@TickCountC
$LN3@TickCountC:

; 886  : 		case 9:
; 887  : 			{
; 888  : 				#if(OFFLINE_MODE==TRUE)
; 889  : 				if(g_ExLicense.user.OfflineMode)

  01df7	0f b6 05 e2 00
	00 00		 movzx	 eax, BYTE PTR ?g_ExLicense@@3VCExLicense@@A+226
  01dfe	85 c0		 test	 eax, eax
  01e00	74 0e		 je	 SHORT $LN2@TickCountC

; 890  : 				{
; 891  : 					g_OfflineMode.GCConfig(aIndex);

  01e02	8b 45 f8	 mov	 eax, DWORD PTR _aIndex$234520[ebp]
  01e05	50		 push	 eax
  01e06	b9 00 00 00 00	 mov	 ecx, OFFSET ?g_OfflineMode@@3VOfflineMode@@A ; g_OfflineMode
  01e0b	e8 00 00 00 00	 call	 ?GCConfig@OfflineMode@@QAEXH@Z ; OfflineMode::GCConfig
$LN2@TickCountC:

; 892  : 				}
; 893  : 				#endif
; 894  : 			}
; 895  : 			break;

  01e10	eb 19		 jmp	 SHORT $LN13@TickCountC
$LN1@TickCountC:

; 896  : 		case 10:
; 897  : 			#if(CUSTOM_MAPQUEST)
; 898  : 			g_MapQuest.TeleportMap(aIndex, lpUser->MapNumber);

  01e12	8b 45 f4	 mov	 eax, DWORD PTR _lpUser$234524[ebp]
  01e15	0f b6 88 49 01
	00 00		 movzx	 ecx, BYTE PTR [eax+329]
  01e1c	51		 push	 ecx
  01e1d	8b 55 f8	 mov	 edx, DWORD PTR _aIndex$234520[ebp]
  01e20	52		 push	 edx
  01e21	b9 00 00 00 00	 mov	 ecx, OFFSET ?g_MapQuest@@3VCMapQuest@@A ; g_MapQuest
  01e26	e8 00 00 00 00	 call	 ?TeleportMap@CMapQuest@@QAEXHH@Z ; CMapQuest::TeleportMap
$LN13@TickCountC:

; 899  : 			#endif
; 900  : 			break;
; 901  : 		}
; 902  : 
; 903  : 		lpUser->m_iLoadConfigNumber++;

  01e2b	8b 45 f4	 mov	 eax, DWORD PTR _lpUser$234524[ebp]
  01e2e	8b 88 d4 2a 00
	00		 mov	 ecx, DWORD PTR [eax+10964]
  01e34	83 c1 01	 add	 ecx, 1
  01e37	8b 55 f4	 mov	 edx, DWORD PTR _lpUser$234524[ebp]
  01e3a	89 8a d4 2a 00
	00		 mov	 DWORD PTR [edx+10964], ecx

; 904  : 		lpUser->m_iLoadConfigTickCount = GetTickCount();

  01e40	ff 15 00 00 00
	00		 call	 DWORD PTR __imp__GetTickCount@0
  01e46	8b 4d f4	 mov	 ecx, DWORD PTR _lpUser$234524[ebp]
  01e49	89 81 d8 2a 00
	00		 mov	 DWORD PTR [ecx+10968], eax

; 905  : 	}

  01e4f	e9 61 fe ff ff	 jmp	 $LN20@TickCountC
$LN22@TickCountC:

; 906  : }

  01e54	5f		 pop	 edi
  01e55	5e		 pop	 esi
  01e56	5b		 pop	 ebx
  01e57	8b e5		 mov	 esp, ebp
  01e59	5d		 pop	 ebp
  01e5a	c3		 ret	 0
  01e5b	90		 npad	 1
$LN24@TickCountC:
  01e5c	00 00 00 00	 DD	 $LN12@TickCountC
  01e60	00 00 00 00	 DD	 $LN11@TickCountC
  01e64	00 00 00 00	 DD	 $LN10@TickCountC
  01e68	00 00 00 00	 DD	 $LN9@TickCountC
  01e6c	00 00 00 00	 DD	 $LN8@TickCountC
  01e70	00 00 00 00	 DD	 $LN7@TickCountC
  01e74	00 00 00 00	 DD	 $LN6@TickCountC
  01e78	00 00 00 00	 DD	 $LN5@TickCountC
  01e7c	00 00 00 00	 DD	 $LN3@TickCountC
  01e80	00 00 00 00	 DD	 $LN1@TickCountC
?TickCountClientDataSend@ÑExUser@@QAEXXZ ENDP		; ÑExUser::TickCountClientDataSend
_TEXT	ENDS
PUBLIC	__real@3ff0000000000000
PUBLIC	?AutoHPClick@ÑExUser@@QAEXXZ			; ÑExUser::AutoHPClick
EXTRN	?GCInventoryItemDeleteSend@@YAXHEE@Z:PROC	; GCInventoryItemDeleteSend
EXTRN	?Clear@CItem@@QAEXXZ:PROC			; CItem::Clear
EXTRN	?gObjInventoryItemSet@@YAXHHE@Z:PROC		; gObjInventoryItemSet
EXTRN	?GCItemDurSend@@YAXHEEE@Z:PROC			; GCItemDurSend
EXTRN	?IsItem@CItem@@QAEHXZ:PROC			; CItem::IsItem
;	COMDAT __real@3ff0000000000000
CONST	SEGMENT
__real@3ff0000000000000 DQ 03ff0000000000000r	; 1
; Function compile flags: /Odtp /ZI
CONST	ENDS
_TEXT	SEGMENT
tv407 = -100						; size = 4
tv405 = -96						; size = 4
tv151 = -92						; size = 4
tv402 = -90						; size = 2
_iHP$234566 = -24					; size = 4
_n$234559 = -20						; size = 4
_count$234558 = -16					; size = 4
_lpUser$234554 = -12					; size = 4
_aIndex$234550 = -8					; size = 4
_this$ = -4						; size = 4
?AutoHPClick@ÑExUser@@QAEXXZ PROC			; ÑExUser::AutoHPClick
; _this$ = ecx

; 909  : {

  01e90	55		 push	 ebp
  01e91	8b ec		 mov	 ebp, esp
  01e93	83 ec 64	 sub	 esp, 100		; 00000064H
  01e96	53		 push	 ebx
  01e97	56		 push	 esi
  01e98	57		 push	 edi
  01e99	89 4d fc	 mov	 DWORD PTR _this$[ebp], ecx

; 910  : 	if(!this->m_bActiveAutoHP)

  01e9c	8b 45 fc	 mov	 eax, DWORD PTR _this$[ebp]
  01e9f	0f b6 48 08	 movzx	 ecx, BYTE PTR [eax+8]
  01ea3	85 c9		 test	 ecx, ecx
  01ea5	75 05		 jne	 SHORT $LN22@AutoHPClic

; 911  : 	{
; 912  : 		return;

  01ea7	e9 c0 03 00 00	 jmp	 $LN23@AutoHPClic
$LN22@AutoHPClic:

; 913  : 	}
; 914  : 
; 915  : 	for(int aIndex = OBJ_STARTUSERINDEX; aIndex < OBJMAX; aIndex++)

  01eac	c7 45 f8 b0 36
	00 00		 mov	 DWORD PTR _aIndex$234550[ebp], 14000 ; 000036b0H
  01eb3	eb 09		 jmp	 SHORT $LN21@AutoHPClic
$LN20@AutoHPClic:
  01eb5	8b 45 f8	 mov	 eax, DWORD PTR _aIndex$234550[ebp]
  01eb8	83 c0 01	 add	 eax, 1
  01ebb	89 45 f8	 mov	 DWORD PTR _aIndex$234550[ebp], eax
$LN21@AutoHPClic:
  01ebe	81 7d f8 98 3a
	00 00		 cmp	 DWORD PTR _aIndex$234550[ebp], 15000 ; 00003a98H
  01ec5	0f 8d a1 03 00
	00		 jge	 $LN19@AutoHPClic

; 916  : 	{
; 917  : 		LPOBJ lpUser = &gObj[aIndex];

  01ecb	8b 45 f8	 mov	 eax, DWORD PTR _aIndex$234550[ebp]
  01ece	69 c0 38 2b 00
	00		 imul	 eax, 11064		; 00002b38H
  01ed4	03 05 00 00 00
	00		 add	 eax, DWORD PTR ?gObj@@3PAUOBJECTSTRUCT@@A ; gObj
  01eda	89 45 f4	 mov	 DWORD PTR _lpUser$234554[ebp], eax

; 918  : 
; 919  : 		if(lpUser->Connected < PLAYER_PLAYING)

  01edd	8b 45 f4	 mov	 eax, DWORD PTR _lpUser$234554[ebp]
  01ee0	83 78 04 03	 cmp	 DWORD PTR [eax+4], 3
  01ee4	7d 02		 jge	 SHORT $LN18@AutoHPClic

; 920  : 		{
; 921  : 			continue;

  01ee6	eb cd		 jmp	 SHORT $LN20@AutoHPClic
$LN18@AutoHPClic:

; 922  : 		}
; 923  : 
; 924  : 		if(lpUser->m_bAutoHP)

  01ee8	8b 45 f4	 mov	 eax, DWORD PTR _lpUser$234554[ebp]
  01eeb	0f b6 88 e4 2a
	00 00		 movzx	 ecx, BYTE PTR [eax+10980]
  01ef2	85 c9		 test	 ecx, ecx
  01ef4	0f 84 6d 03 00
	00		 je	 $LN13@AutoHPClic

; 925  : 		{
; 926  : 			if((GetTickCount() - gObj[aIndex].m_PotionTick) < ExConfig.CommonServer.PotionDelay)

  01efa	ff 15 00 00 00
	00		 call	 DWORD PTR __imp__GetTickCount@0
  01f00	8b 4d f8	 mov	 ecx, DWORD PTR _aIndex$234550[ebp]
  01f03	69 c9 38 2b 00
	00		 imul	 ecx, 11064		; 00002b38H
  01f09	8b 15 00 00 00
	00		 mov	 edx, DWORD PTR ?gObj@@3PAUOBJECTSTRUCT@@A ; gObj
  01f0f	2b 84 0a 0c 29
	00 00		 sub	 eax, DWORD PTR [edx+ecx+10508]
  01f16	3b 05 28 01 00
	00		 cmp	 eax, DWORD PTR ?ExConfig@@3VcExConfigs@@A+296
  01f1c	73 02		 jae	 SHORT $LN16@AutoHPClic

; 927  : 			{
; 928  : 				continue;

  01f1e	eb 95		 jmp	 SHORT $LN20@AutoHPClic
$LN16@AutoHPClic:

; 929  : 			}
; 930  : 
; 931  : 			int count = 0;

  01f20	c7 45 f0 00 00
	00 00		 mov	 DWORD PTR _count$234558[ebp], 0

; 932  : 	
; 933  : 			for(int n = 0; n < MAIN_INVENTORY_SIZE; n++)

  01f27	c7 45 ec 00 00
	00 00		 mov	 DWORD PTR _n$234559[ebp], 0
  01f2e	eb 09		 jmp	 SHORT $LN15@AutoHPClic
$LN14@AutoHPClic:
  01f30	8b 45 ec	 mov	 eax, DWORD PTR _n$234559[ebp]
  01f33	83 c0 01	 add	 eax, 1
  01f36	89 45 ec	 mov	 DWORD PTR _n$234559[ebp], eax
$LN15@AutoHPClic:
  01f39	81 7d ec cc 00
	00 00		 cmp	 DWORD PTR _n$234559[ebp], 204 ; 000000ccH
  01f40	0f 8d 21 03 00
	00		 jge	 $LN13@AutoHPClic

; 934  : 			{
; 935  : 				if(lpUser->pInventory[n].IsItem() == TRUE)

  01f46	8b 4d ec	 mov	 ecx, DWORD PTR _n$234559[ebp]
  01f49	69 c9 d4 00 00
	00		 imul	 ecx, 212		; 000000d4H
  01f4f	8b 45 f4	 mov	 eax, DWORD PTR _lpUser$234554[ebp]
  01f52	03 88 24 0e 00
	00		 add	 ecx, DWORD PTR [eax+3620]
  01f58	e8 00 00 00 00	 call	 ?IsItem@CItem@@QAEHXZ	; CItem::IsItem
  01f5d	83 f8 01	 cmp	 eax, 1
  01f60	0f 85 fc 02 00
	00		 jne	 $LN11@AutoHPClic

; 936  : 				{
; 937  : 					if( lpUser->pInventory[n].m_Type == ITEMGET(14,0) || 
; 938  : 						lpUser->pInventory[n].m_Type == ITEMGET(14,1) || 
; 939  : 						lpUser->pInventory[n].m_Type == ITEMGET(14,2) || 
; 940  : 						lpUser->pInventory[n].m_Type == ITEMGET(14,3) )

  01f66	8b 45 ec	 mov	 eax, DWORD PTR _n$234559[ebp]
  01f69	69 c0 d4 00 00
	00		 imul	 eax, 212		; 000000d4H
  01f6f	8b 4d f4	 mov	 ecx, DWORD PTR _lpUser$234554[ebp]
  01f72	8b 91 24 0e 00
	00		 mov	 edx, DWORD PTR [ecx+3620]
  01f78	0f bf 44 02 06	 movsx	 eax, WORD PTR [edx+eax+6]
  01f7d	3d 00 1c 00 00	 cmp	 eax, 7168		; 00001c00H
  01f82	74 5e		 je	 SHORT $LN10@AutoHPClic
  01f84	8b 45 ec	 mov	 eax, DWORD PTR _n$234559[ebp]
  01f87	69 c0 d4 00 00
	00		 imul	 eax, 212		; 000000d4H
  01f8d	8b 4d f4	 mov	 ecx, DWORD PTR _lpUser$234554[ebp]
  01f90	8b 91 24 0e 00
	00		 mov	 edx, DWORD PTR [ecx+3620]
  01f96	0f bf 44 02 06	 movsx	 eax, WORD PTR [edx+eax+6]
  01f9b	3d 01 1c 00 00	 cmp	 eax, 7169		; 00001c01H
  01fa0	74 40		 je	 SHORT $LN10@AutoHPClic
  01fa2	8b 45 ec	 mov	 eax, DWORD PTR _n$234559[ebp]
  01fa5	69 c0 d4 00 00
	00		 imul	 eax, 212		; 000000d4H
  01fab	8b 4d f4	 mov	 ecx, DWORD PTR _lpUser$234554[ebp]
  01fae	8b 91 24 0e 00
	00		 mov	 edx, DWORD PTR [ecx+3620]
  01fb4	0f bf 44 02 06	 movsx	 eax, WORD PTR [edx+eax+6]
  01fb9	3d 02 1c 00 00	 cmp	 eax, 7170		; 00001c02H
  01fbe	74 22		 je	 SHORT $LN10@AutoHPClic
  01fc0	8b 45 ec	 mov	 eax, DWORD PTR _n$234559[ebp]
  01fc3	69 c0 d4 00 00
	00		 imul	 eax, 212		; 000000d4H
  01fc9	8b 4d f4	 mov	 ecx, DWORD PTR _lpUser$234554[ebp]
  01fcc	8b 91 24 0e 00
	00		 mov	 edx, DWORD PTR [ecx+3620]
  01fd2	0f bf 44 02 06	 movsx	 eax, WORD PTR [edx+eax+6]
  01fd7	3d 03 1c 00 00	 cmp	 eax, 7171		; 00001c03H
  01fdc	0f 85 80 02 00
	00		 jne	 $LN11@AutoHPClic
$LN10@AutoHPClic:

; 941  : 					{
; 942  : 						int iHP = 0;

  01fe2	c7 45 e8 00 00
	00 00		 mov	 DWORD PTR _iHP$234566[ebp], 0

; 943  : 
; 944  : 						switch(lpUser->pInventory[n].m_Type)

  01fe9	8b 45 ec	 mov	 eax, DWORD PTR _n$234559[ebp]
  01fec	69 c0 d4 00 00
	00		 imul	 eax, 212		; 000000d4H
  01ff2	8b 4d f4	 mov	 ecx, DWORD PTR _lpUser$234554[ebp]
  01ff5	8b 91 24 0e 00
	00		 mov	 edx, DWORD PTR [ecx+3620]
  01ffb	0f bf 44 02 06	 movsx	 eax, WORD PTR [edx+eax+6]
  02000	89 45 a4	 mov	 DWORD PTR tv151[ebp], eax
  02003	8b 4d a4	 mov	 ecx, DWORD PTR tv151[ebp]
  02006	81 e9 00 1c 00
	00		 sub	 ecx, 7168		; 00001c00H
  0200c	89 4d a4	 mov	 DWORD PTR tv151[ebp], ecx
  0200f	83 7d a4 03	 cmp	 DWORD PTR tv151[ebp], 3
  02013	0f 87 b0 00 00
	00		 ja	 $LN8@AutoHPClic
  02019	8b 55 a4	 mov	 edx, DWORD PTR tv151[ebp]
  0201c	ff 24 95 00 00
	00 00		 jmp	 DWORD PTR $LN25@AutoHPClic[edx*4]
$LN7@AutoHPClic:

; 945  : 						{
; 946  : 						case ITEMGET(14,0):
; 947  : 							iHP += ((int)(lpUser->MaxLife + lpUser->AddLife)) * 10 / 100; 

  02023	8b 45 f4	 mov	 eax, DWORD PTR _lpUser$234554[ebp]
  02026	db 80 4c 01 00
	00		 fild	 DWORD PTR [eax+332]
  0202c	8b 4d f4	 mov	 ecx, DWORD PTR _lpUser$234554[ebp]
  0202f	d8 81 00 01 00
	00		 fadd	 DWORD PTR [ecx+256]
  02035	e8 00 00 00 00	 call	 __ftol2_sse
  0203a	6b c0 0a	 imul	 eax, 10			; 0000000aH
  0203d	99		 cdq
  0203e	b9 64 00 00 00	 mov	 ecx, 100		; 00000064H
  02043	f7 f9		 idiv	 ecx
  02045	03 45 e8	 add	 eax, DWORD PTR _iHP$234566[ebp]
  02048	89 45 e8	 mov	 DWORD PTR _iHP$234566[ebp], eax

; 948  : 							break;

  0204b	eb 7c		 jmp	 SHORT $LN8@AutoHPClic
$LN6@AutoHPClic:

; 949  : 						case ITEMGET(14,1):
; 950  : 							iHP += ((int)(lpUser->MaxLife + lpUser->AddLife)) * 20 / 100; 

  0204d	8b 45 f4	 mov	 eax, DWORD PTR _lpUser$234554[ebp]
  02050	db 80 4c 01 00
	00		 fild	 DWORD PTR [eax+332]
  02056	8b 4d f4	 mov	 ecx, DWORD PTR _lpUser$234554[ebp]
  02059	d8 81 00 01 00
	00		 fadd	 DWORD PTR [ecx+256]
  0205f	e8 00 00 00 00	 call	 __ftol2_sse
  02064	6b c0 14	 imul	 eax, 20			; 00000014H
  02067	99		 cdq
  02068	b9 64 00 00 00	 mov	 ecx, 100		; 00000064H
  0206d	f7 f9		 idiv	 ecx
  0206f	03 45 e8	 add	 eax, DWORD PTR _iHP$234566[ebp]
  02072	89 45 e8	 mov	 DWORD PTR _iHP$234566[ebp], eax

; 951  : 							break;

  02075	eb 52		 jmp	 SHORT $LN8@AutoHPClic
$LN5@AutoHPClic:

; 952  : 						case ITEMGET(14,2):
; 953  : 							iHP += ((int)(lpUser->MaxLife + lpUser->AddLife)) * 30 / 100; 

  02077	8b 45 f4	 mov	 eax, DWORD PTR _lpUser$234554[ebp]
  0207a	db 80 4c 01 00
	00		 fild	 DWORD PTR [eax+332]
  02080	8b 4d f4	 mov	 ecx, DWORD PTR _lpUser$234554[ebp]
  02083	d8 81 00 01 00
	00		 fadd	 DWORD PTR [ecx+256]
  02089	e8 00 00 00 00	 call	 __ftol2_sse
  0208e	6b c0 1e	 imul	 eax, 30			; 0000001eH
  02091	99		 cdq
  02092	b9 64 00 00 00	 mov	 ecx, 100		; 00000064H
  02097	f7 f9		 idiv	 ecx
  02099	03 45 e8	 add	 eax, DWORD PTR _iHP$234566[ebp]
  0209c	89 45 e8	 mov	 DWORD PTR _iHP$234566[ebp], eax

; 954  : 							break;

  0209f	eb 28		 jmp	 SHORT $LN8@AutoHPClic
$LN4@AutoHPClic:

; 955  : 						case ITEMGET(14,3):
; 956  : 							iHP += ((int)(lpUser->MaxLife + lpUser->AddLife)) * 40 / 100; 

  020a1	8b 45 f4	 mov	 eax, DWORD PTR _lpUser$234554[ebp]
  020a4	db 80 4c 01 00
	00		 fild	 DWORD PTR [eax+332]
  020aa	8b 4d f4	 mov	 ecx, DWORD PTR _lpUser$234554[ebp]
  020ad	d8 81 00 01 00
	00		 fadd	 DWORD PTR [ecx+256]
  020b3	e8 00 00 00 00	 call	 __ftol2_sse
  020b8	6b c0 28	 imul	 eax, 40			; 00000028H
  020bb	99		 cdq
  020bc	b9 64 00 00 00	 mov	 ecx, 100		; 00000064H
  020c1	f7 f9		 idiv	 ecx
  020c3	03 45 e8	 add	 eax, DWORD PTR _iHP$234566[ebp]
  020c6	89 45 e8	 mov	 DWORD PTR _iHP$234566[ebp], eax
$LN8@AutoHPClic:

; 957  : 							break;
; 958  : 						}			
; 959  : 
; 960  : 						lpUser->Life += iHP;

  020c9	db 45 e8	 fild	 DWORD PTR _iHP$234566[ebp]
  020cc	8b 45 f4	 mov	 eax, DWORD PTR _lpUser$234554[ebp]
  020cf	d8 80 fc 00 00
	00		 fadd	 DWORD PTR [eax+252]
  020d5	8b 4d f4	 mov	 ecx, DWORD PTR _lpUser$234554[ebp]
  020d8	d9 99 fc 00 00
	00		 fstp	 DWORD PTR [ecx+252]

; 961  : 
; 962  : 						if(lpUser->Life > (lpUser->MaxLife + lpUser->AddLife - 1.0f))

  020de	8b 45 f4	 mov	 eax, DWORD PTR _lpUser$234554[ebp]
  020e1	db 80 4c 01 00
	00		 fild	 DWORD PTR [eax+332]
  020e7	8b 4d f4	 mov	 ecx, DWORD PTR _lpUser$234554[ebp]
  020ea	d8 81 00 01 00
	00		 fadd	 DWORD PTR [ecx+256]
  020f0	dc 25 00 00 00
	00		 fsub	 QWORD PTR __real@3ff0000000000000
  020f6	8b 55 f4	 mov	 edx, DWORD PTR _lpUser$234554[ebp]
  020f9	d9 82 fc 00 00
	00		 fld	 DWORD PTR [edx+252]
  020ff	de d9		 fcompp
  02101	df e0		 fnstsw	 ax
  02103	f6 c4 41	 test	 ah, 65			; 00000041H
  02106	75 1b		 jne	 SHORT $LN3@AutoHPClic

; 963  : 						{
; 964  : 							lpUser->Life = lpUser->MaxLife + lpUser->AddLife;

  02108	8b 45 f4	 mov	 eax, DWORD PTR _lpUser$234554[ebp]
  0210b	db 80 4c 01 00
	00		 fild	 DWORD PTR [eax+332]
  02111	8b 4d f4	 mov	 ecx, DWORD PTR _lpUser$234554[ebp]
  02114	d8 81 00 01 00
	00		 fadd	 DWORD PTR [ecx+256]
  0211a	8b 55 f4	 mov	 edx, DWORD PTR _lpUser$234554[ebp]
  0211d	d9 9a fc 00 00
	00		 fstp	 DWORD PTR [edx+252]
$LN3@AutoHPClic:

; 965  : 						}
; 966  : 
; 967  : 						GCReFillSend(aIndex, (int)gObj[aIndex].Life, 0xFF, 0, (int)gObj[aIndex].iShield);

  02123	8b 45 f8	 mov	 eax, DWORD PTR _aIndex$234550[ebp]
  02126	69 c0 38 2b 00
	00		 imul	 eax, 11064		; 00002b38H
  0212c	8b 0d 00 00 00
	00		 mov	 ecx, DWORD PTR ?gObj@@3PAUOBJECTSTRUCT@@A ; gObj
  02132	8b 94 01 54 01
	00 00		 mov	 edx, DWORD PTR [ecx+eax+340]
  02139	52		 push	 edx
  0213a	6a 00		 push	 0
  0213c	68 ff 00 00 00	 push	 255			; 000000ffH
  02141	8b 45 f8	 mov	 eax, DWORD PTR _aIndex$234550[ebp]
  02144	69 c0 38 2b 00
	00		 imul	 eax, 11064		; 00002b38H
  0214a	8b 0d 00 00 00
	00		 mov	 ecx, DWORD PTR ?gObj@@3PAUOBJECTSTRUCT@@A ; gObj
  02150	d9 84 01 fc 00
	00 00		 fld	 DWORD PTR [ecx+eax+252]
  02157	e8 00 00 00 00	 call	 __ftol2_sse
  0215c	50		 push	 eax
  0215d	8b 55 f8	 mov	 edx, DWORD PTR _aIndex$234550[ebp]
  02160	52		 push	 edx
  02161	e8 00 00 00 00	 call	 ?GCReFillSend@@YAXHHEEH@Z ; GCReFillSend
  02166	83 c4 14	 add	 esp, 20			; 00000014H

; 968  : 
; 969  : 						if((int)lpUser->pInventory[n].m_Durability > 1)

  02169	8b 45 ec	 mov	 eax, DWORD PTR _n$234559[ebp]
  0216c	69 c0 d4 00 00
	00		 imul	 eax, 212		; 000000d4H
  02172	8b 4d f4	 mov	 ecx, DWORD PTR _lpUser$234554[ebp]
  02175	8b 91 24 0e 00
	00		 mov	 edx, DWORD PTR [ecx+3620]
  0217b	d9 44 02 24	 fld	 DWORD PTR [edx+eax+36]
  0217f	e8 00 00 00 00	 call	 __ftol2_sse
  02184	83 f8 01	 cmp	 eax, 1
  02187	7e 7c		 jle	 SHORT $LN2@AutoHPClic

; 970  : 						{
; 971  : 							lpUser->pInventory[n].m_Durability--;

  02189	8b 45 ec	 mov	 eax, DWORD PTR _n$234559[ebp]
  0218c	69 c0 d4 00 00
	00		 imul	 eax, 212		; 000000d4H
  02192	8b 4d f4	 mov	 ecx, DWORD PTR _lpUser$234554[ebp]
  02195	8b 91 24 0e 00
	00		 mov	 edx, DWORD PTR [ecx+3620]
  0219b	d9 44 02 24	 fld	 DWORD PTR [edx+eax+36]
  0219f	dc 25 00 00 00
	00		 fsub	 QWORD PTR __real@3ff0000000000000
  021a5	8b 45 ec	 mov	 eax, DWORD PTR _n$234559[ebp]
  021a8	69 c0 d4 00 00
	00		 imul	 eax, 212		; 000000d4H
  021ae	8b 4d f4	 mov	 ecx, DWORD PTR _lpUser$234554[ebp]
  021b1	8b 91 24 0e 00
	00		 mov	 edx, DWORD PTR [ecx+3620]
  021b7	d9 5c 02 24	 fstp	 DWORD PTR [edx+eax+36]

; 972  : 							GCItemDurSend(lpUser->m_Index, (BYTE)n, (BYTE)lpUser->pInventory[n].m_Durability, 1);

  021bb	6a 01		 push	 1
  021bd	8b 45 ec	 mov	 eax, DWORD PTR _n$234559[ebp]
  021c0	69 c0 d4 00 00
	00		 imul	 eax, 212		; 000000d4H
  021c6	8b 4d f4	 mov	 ecx, DWORD PTR _lpUser$234554[ebp]
  021c9	8b 91 24 0e 00
	00		 mov	 edx, DWORD PTR [ecx+3620]
  021cf	d9 44 02 24	 fld	 DWORD PTR [edx+eax+36]
  021d3	d9 7d a6	 fnstcw	 WORD PTR tv402[ebp]
  021d6	0f b7 45 a6	 movzx	 eax, WORD PTR tv402[ebp]
  021da	0d 00 0c 00 00	 or	 eax, 3072		; 00000c00H
  021df	89 45 a0	 mov	 DWORD PTR tv405[ebp], eax
  021e2	d9 6d a0	 fldcw	 WORD PTR tv405[ebp]
  021e5	db 5d 9c	 fistp	 DWORD PTR tv407[ebp]
  021e8	d9 6d a6	 fldcw	 WORD PTR tv402[ebp]
  021eb	0f b6 45 9c	 movzx	 eax, BYTE PTR tv407[ebp]
  021ef	50		 push	 eax
  021f0	0f b6 4d ec	 movzx	 ecx, BYTE PTR _n$234559[ebp]
  021f4	51		 push	 ecx
  021f5	8b 55 f4	 mov	 edx, DWORD PTR _lpUser$234554[ebp]
  021f8	8b 02		 mov	 eax, DWORD PTR [edx]
  021fa	50		 push	 eax
  021fb	e8 00 00 00 00	 call	 ?GCItemDurSend@@YAXHEEE@Z ; GCItemDurSend
  02200	83 c4 10	 add	 esp, 16			; 00000010H

; 973  : 						}
; 974  : 						else

  02203	eb 4c		 jmp	 SHORT $LN1@AutoHPClic
$LN2@AutoHPClic:

; 975  : 						{
; 976  : 							gObjInventoryItemSet(aIndex, n, -1);

  02205	68 ff 00 00 00	 push	 255			; 000000ffH
  0220a	8b 45 ec	 mov	 eax, DWORD PTR _n$234559[ebp]
  0220d	50		 push	 eax
  0220e	8b 4d f8	 mov	 ecx, DWORD PTR _aIndex$234550[ebp]
  02211	51		 push	 ecx
  02212	e8 00 00 00 00	 call	 ?gObjInventoryItemSet@@YAXHHE@Z ; gObjInventoryItemSet
  02217	83 c4 0c	 add	 esp, 12			; 0000000cH

; 977  : 							gObj[aIndex].pInventory[n].Clear();

  0221a	8b 45 f8	 mov	 eax, DWORD PTR _aIndex$234550[ebp]
  0221d	69 c0 38 2b 00
	00		 imul	 eax, 11064		; 00002b38H
  02223	8b 4d ec	 mov	 ecx, DWORD PTR _n$234559[ebp]
  02226	69 c9 d4 00 00
	00		 imul	 ecx, 212		; 000000d4H
  0222c	8b 15 00 00 00
	00		 mov	 edx, DWORD PTR ?gObj@@3PAUOBJECTSTRUCT@@A ; gObj
  02232	03 8c 02 24 0e
	00 00		 add	 ecx, DWORD PTR [edx+eax+3620]
  02239	e8 00 00 00 00	 call	 ?Clear@CItem@@QAEXXZ	; CItem::Clear

; 978  : 							GCInventoryItemDeleteSend(aIndex, n, 1);

  0223e	6a 01		 push	 1
  02240	0f b6 45 ec	 movzx	 eax, BYTE PTR _n$234559[ebp]
  02244	50		 push	 eax
  02245	8b 4d f8	 mov	 ecx, DWORD PTR _aIndex$234550[ebp]
  02248	51		 push	 ecx
  02249	e8 00 00 00 00	 call	 ?GCInventoryItemDeleteSend@@YAXHEE@Z ; GCInventoryItemDeleteSend
  0224e	83 c4 0c	 add	 esp, 12			; 0000000cH
$LN1@AutoHPClic:

; 979  : 						}
; 980  : 
; 981  : 						lpUser->m_PotionTick = GetTickCount();

  02251	ff 15 00 00 00
	00		 call	 DWORD PTR __imp__GetTickCount@0
  02257	8b 4d f4	 mov	 ecx, DWORD PTR _lpUser$234554[ebp]
  0225a	89 81 0c 29 00
	00		 mov	 DWORD PTR [ecx+10508], eax

; 982  : 
; 983  : 						break;

  02260	eb 05		 jmp	 SHORT $LN13@AutoHPClic
$LN11@AutoHPClic:

; 984  : 					}
; 985  : 				}
; 986  : 			}

  02262	e9 c9 fc ff ff	 jmp	 $LN14@AutoHPClic
$LN13@AutoHPClic:

; 987  : 		}
; 988  : 	}

  02267	e9 49 fc ff ff	 jmp	 $LN20@AutoHPClic
$LN19@AutoHPClic:
$LN23@AutoHPClic:

; 989  : }

  0226c	5f		 pop	 edi
  0226d	5e		 pop	 esi
  0226e	5b		 pop	 ebx
  0226f	8b e5		 mov	 esp, ebp
  02271	5d		 pop	 ebp
  02272	c3		 ret	 0
  02273	90		 npad	 1
$LN25@AutoHPClic:
  02274	00 00 00 00	 DD	 $LN7@AutoHPClic
  02278	00 00 00 00	 DD	 $LN6@AutoHPClic
  0227c	00 00 00 00	 DD	 $LN5@AutoHPClic
  02280	00 00 00 00	 DD	 $LN4@AutoHPClic
?AutoHPClick@ÑExUser@@QAEXXZ ENDP			; ÑExUser::AutoHPClick
_TEXT	ENDS
PUBLIC	?CG_RecvAutoHPClicker@ÑExUser@@QAEXPAUPMSG_PROTOCOL_RESULT@@H@Z ; ÑExUser::CG_RecvAutoHPClicker
; Function compile flags: /Odtp /ZI
_TEXT	SEGMENT
tv70 = -76						; size = 4
_lpUser$ = -8						; size = 4
_this$ = -4						; size = 4
_lpMsg$ = 8						; size = 4
_aIndex$ = 12						; size = 4
?CG_RecvAutoHPClicker@ÑExUser@@QAEXPAUPMSG_PROTOCOL_RESULT@@H@Z PROC ; ÑExUser::CG_RecvAutoHPClicker
; _this$ = ecx

; 992  : {

  02290	55		 push	 ebp
  02291	8b ec		 mov	 ebp, esp
  02293	83 ec 4c	 sub	 esp, 76			; 0000004cH
  02296	53		 push	 ebx
  02297	56		 push	 esi
  02298	57		 push	 edi
  02299	89 4d fc	 mov	 DWORD PTR _this$[ebp], ecx

; 993  : 	if(!this->m_bActiveAutoHP)

  0229c	8b 45 fc	 mov	 eax, DWORD PTR _this$[ebp]
  0229f	0f b6 48 08	 movzx	 ecx, BYTE PTR [eax+8]
  022a3	85 c9		 test	 ecx, ecx
  022a5	75 02		 jne	 SHORT $LN3@CG_RecvAut

; 994  : 	{
; 995  : 		return;

  022a7	eb 53		 jmp	 SHORT $LN4@CG_RecvAut
$LN3@CG_RecvAut:

; 996  : 	}
; 997  : 
; 998  : 	if(!OBJMAX_RANGE(aIndex))

  022a9	83 7d 0c 00	 cmp	 DWORD PTR _aIndex$[ebp], 0
  022ad	7d 09		 jge	 SHORT $LN6@CG_RecvAut
  022af	c7 45 b4 00 00
	00 00		 mov	 DWORD PTR tv70[ebp], 0
  022b6	eb 0f		 jmp	 SHORT $LN7@CG_RecvAut
$LN6@CG_RecvAut:
  022b8	33 c0		 xor	 eax, eax
  022ba	81 7d 0c 97 3a
	00 00		 cmp	 DWORD PTR _aIndex$[ebp], 14999 ; 00003a97H
  022c1	0f 9e c0	 setle	 al
  022c4	89 45 b4	 mov	 DWORD PTR tv70[ebp], eax
$LN7@CG_RecvAut:
  022c7	83 7d b4 00	 cmp	 DWORD PTR tv70[ebp], 0
  022cb	75 02		 jne	 SHORT $LN2@CG_RecvAut

; 999  : 	{
; 1000 : 		return;

  022cd	eb 2d		 jmp	 SHORT $LN4@CG_RecvAut
$LN2@CG_RecvAut:

; 1001 : 	}
; 1002 : 
; 1003 : 	if(!lpMsg)

  022cf	83 7d 08 00	 cmp	 DWORD PTR _lpMsg$[ebp], 0
  022d3	75 02		 jne	 SHORT $LN1@CG_RecvAut

; 1004 : 	{
; 1005 : 		return;

  022d5	eb 25		 jmp	 SHORT $LN4@CG_RecvAut
$LN1@CG_RecvAut:

; 1006 : 	}
; 1007 : 
; 1008 : 	LPOBJ lpUser = &gObj[aIndex];

  022d7	8b 45 0c	 mov	 eax, DWORD PTR _aIndex$[ebp]
  022da	69 c0 38 2b 00
	00		 imul	 eax, 11064		; 00002b38H
  022e0	03 05 00 00 00
	00		 add	 eax, DWORD PTR ?gObj@@3PAUOBJECTSTRUCT@@A ; gObj
  022e6	89 45 f8	 mov	 DWORD PTR _lpUser$[ebp], eax

; 1009 : 
; 1010 : 	lpUser->m_bAutoHP = (bool)lpMsg->Result;

  022e9	8b 45 08	 mov	 eax, DWORD PTR _lpMsg$[ebp]
  022ec	83 78 04 00	 cmp	 DWORD PTR [eax+4], 0
  022f0	0f 95 c1	 setne	 cl
  022f3	8b 55 f8	 mov	 edx, DWORD PTR _lpUser$[ebp]
  022f6	88 8a e4 2a 00
	00		 mov	 BYTE PTR [edx+10980], cl
$LN4@CG_RecvAut:

; 1011 : }

  022fc	5f		 pop	 edi
  022fd	5e		 pop	 esi
  022fe	5b		 pop	 ebx
  022ff	8b e5		 mov	 esp, ebp
  02301	5d		 pop	 ebp
  02302	c2 08 00	 ret	 8
?CG_RecvAutoHPClicker@ÑExUser@@QAEXPAUPMSG_PROTOCOL_RESULT@@H@Z ENDP ; ÑExUser::CG_RecvAutoHPClicker
_TEXT	ENDS
PUBLIC	??_C@_0BA@PBFANPGB@Killer?5Name?3?5?$CFs?$AA@	; `string'
PUBLIC	__$ArrayPad$
PUBLIC	?PlayerKillInfoMail@ÑExUser@@QAEXHH@Z		; ÑExUser::PlayerKillInfoMail
EXTRN	?FriendMemoSendEx@@YAXPAUPMSG_FRIEND_MEMO@@H@Z:PROC ; FriendMemoSendEx
EXTRN	_strlen:PROC
EXTRN	_memset:PROC
EXTRN	_sprintf:PROC
;	COMDAT ??_C@_0BA@PBFANPGB@Killer?5Name?3?5?$CFs?$AA@
CONST	SEGMENT
??_C@_0BA@PBFANPGB@Killer?5Name?3?5?$CFs?$AA@ DB 'Killer Name: %s', 00H ; `string'
; Function compile flags: /Odtp /ZI
CONST	ENDS
_TEXT	SEGMENT
tv139 = -1200						; size = 4
tv134 = -1200						; size = 4
_pMsg$ = -1132						; size = 1084
_szKillerName$ = -48					; size = 32
_lpTarget$ = -16					; size = 4
_lpUser$ = -12						; size = 4
_this$ = -8						; size = 4
__$ArrayPad$ = -4					; size = 4
_aIndex$ = 8						; size = 4
_aTargetIndex$ = 12					; size = 4
?PlayerKillInfoMail@ÑExUser@@QAEXHH@Z PROC		; ÑExUser::PlayerKillInfoMail
; _this$ = ecx

; 1014 : {

  02310	55		 push	 ebp
  02311	8b ec		 mov	 ebp, esp
  02313	81 ec b0 04 00
	00		 sub	 esp, 1200		; 000004b0H
  02319	a1 00 00 00 00	 mov	 eax, DWORD PTR ___security_cookie
  0231e	33 c5		 xor	 eax, ebp
  02320	89 45 fc	 mov	 DWORD PTR __$ArrayPad$[ebp], eax
  02323	53		 push	 ebx
  02324	56		 push	 esi
  02325	57		 push	 edi
  02326	89 4d f8	 mov	 DWORD PTR _this$[ebp], ecx

; 1015 : 	if( !g_ExLicense.CheckUser(eExUB::MedoniAndrei) && 
; 1016 : 		!g_ExLicense.CheckUser(eExUB::Local) &&
; 1017 : 	    !g_ExLicense.CheckUser(eExUB::Gredy) &&
; 1018 : 	    !g_ExLicense.CheckUser(eExUB::Gredy2) && 
; 1019 : 	    !g_ExLicense.CheckUser(eExUB::GredyLocal)&&
; 1020 : 	    !g_ExLicense.CheckUser(eExUB::Artem) &&
; 1021 : 	    !g_ExLicense.CheckUser(eExUB::Artem2) )

  02329	6a 32		 push	 50			; 00000032H
  0232b	b9 00 00 00 00	 mov	 ecx, OFFSET ?g_ExLicense@@3VCExLicense@@A ; g_ExLicense
  02330	e8 00 00 00 00	 call	 ?CheckUser@CExLicense@@QAE_NH@Z ; CExLicense::CheckUser
  02335	0f b6 c0	 movzx	 eax, al
  02338	85 c0		 test	 eax, eax
  0233a	75 77		 jne	 SHORT $LN6@PlayerKill
  0233c	6a 00		 push	 0
  0233e	b9 00 00 00 00	 mov	 ecx, OFFSET ?g_ExLicense@@3VCExLicense@@A ; g_ExLicense
  02343	e8 00 00 00 00	 call	 ?CheckUser@CExLicense@@QAE_NH@Z ; CExLicense::CheckUser
  02348	0f b6 c0	 movzx	 eax, al
  0234b	85 c0		 test	 eax, eax
  0234d	75 64		 jne	 SHORT $LN6@PlayerKill
  0234f	6a 20		 push	 32			; 00000020H
  02351	b9 00 00 00 00	 mov	 ecx, OFFSET ?g_ExLicense@@3VCExLicense@@A ; g_ExLicense
  02356	e8 00 00 00 00	 call	 ?CheckUser@CExLicense@@QAE_NH@Z ; CExLicense::CheckUser
  0235b	0f b6 c0	 movzx	 eax, al
  0235e	85 c0		 test	 eax, eax
  02360	75 51		 jne	 SHORT $LN6@PlayerKill
  02362	6a 22		 push	 34			; 00000022H
  02364	b9 00 00 00 00	 mov	 ecx, OFFSET ?g_ExLicense@@3VCExLicense@@A ; g_ExLicense
  02369	e8 00 00 00 00	 call	 ?CheckUser@CExLicense@@QAE_NH@Z ; CExLicense::CheckUser
  0236e	0f b6 c0	 movzx	 eax, al
  02371	85 c0		 test	 eax, eax
  02373	75 3e		 jne	 SHORT $LN6@PlayerKill
  02375	6a 21		 push	 33			; 00000021H
  02377	b9 00 00 00 00	 mov	 ecx, OFFSET ?g_ExLicense@@3VCExLicense@@A ; g_ExLicense
  0237c	e8 00 00 00 00	 call	 ?CheckUser@CExLicense@@QAE_NH@Z ; CExLicense::CheckUser
  02381	0f b6 c0	 movzx	 eax, al
  02384	85 c0		 test	 eax, eax
  02386	75 2b		 jne	 SHORT $LN6@PlayerKill
  02388	6a 30		 push	 48			; 00000030H
  0238a	b9 00 00 00 00	 mov	 ecx, OFFSET ?g_ExLicense@@3VCExLicense@@A ; g_ExLicense
  0238f	e8 00 00 00 00	 call	 ?CheckUser@CExLicense@@QAE_NH@Z ; CExLicense::CheckUser
  02394	0f b6 c0	 movzx	 eax, al
  02397	85 c0		 test	 eax, eax
  02399	75 18		 jne	 SHORT $LN6@PlayerKill
  0239b	6a 31		 push	 49			; 00000031H
  0239d	b9 00 00 00 00	 mov	 ecx, OFFSET ?g_ExLicense@@3VCExLicense@@A ; g_ExLicense
  023a2	e8 00 00 00 00	 call	 ?CheckUser@CExLicense@@QAE_NH@Z ; CExLicense::CheckUser
  023a7	0f b6 c0	 movzx	 eax, al
  023aa	85 c0		 test	 eax, eax
  023ac	75 05		 jne	 SHORT $LN6@PlayerKill

; 1022 : 	{
; 1023 : 		return;

  023ae	e9 88 01 00 00	 jmp	 $LN7@PlayerKill
$LN6@PlayerKill:

; 1024 : 	}
; 1025 : 
; 1026 : 	if(!OBJMAX_RANGE(aIndex) || !OBJMAX_RANGE(aTargetIndex))

  023b3	83 7d 08 00	 cmp	 DWORD PTR _aIndex$[ebp], 0
  023b7	7d 0c		 jge	 SHORT $LN9@PlayerKill
  023b9	c7 85 50 fb ff
	ff 00 00 00 00	 mov	 DWORD PTR tv134[ebp], 0
  023c3	eb 12		 jmp	 SHORT $LN10@PlayerKill
$LN9@PlayerKill:
  023c5	33 c0		 xor	 eax, eax
  023c7	81 7d 08 97 3a
	00 00		 cmp	 DWORD PTR _aIndex$[ebp], 14999 ; 00003a97H
  023ce	0f 9e c0	 setle	 al
  023d1	89 85 50 fb ff
	ff		 mov	 DWORD PTR tv134[ebp], eax
$LN10@PlayerKill:
  023d7	83 bd 50 fb ff
	ff 00		 cmp	 DWORD PTR tv134[ebp], 0
  023de	74 2d		 je	 SHORT $LN4@PlayerKill
  023e0	83 7d 0c 00	 cmp	 DWORD PTR _aTargetIndex$[ebp], 0
  023e4	7d 0c		 jge	 SHORT $LN11@PlayerKill
  023e6	c7 85 50 fb ff
	ff 00 00 00 00	 mov	 DWORD PTR tv139[ebp], 0
  023f0	eb 12		 jmp	 SHORT $LN12@PlayerKill
$LN11@PlayerKill:
  023f2	33 c0		 xor	 eax, eax
  023f4	81 7d 0c 97 3a
	00 00		 cmp	 DWORD PTR _aTargetIndex$[ebp], 14999 ; 00003a97H
  023fb	0f 9e c0	 setle	 al
  023fe	89 85 50 fb ff
	ff		 mov	 DWORD PTR tv139[ebp], eax
$LN12@PlayerKill:
  02404	83 bd 50 fb ff
	ff 00		 cmp	 DWORD PTR tv139[ebp], 0
  0240b	75 05		 jne	 SHORT $LN5@PlayerKill
$LN4@PlayerKill:

; 1027 : 	{
; 1028 : 		return;

  0240d	e9 29 01 00 00	 jmp	 $LN7@PlayerKill
$LN5@PlayerKill:

; 1029 : 	}
; 1030 : 
; 1031 : 	LPOBJ lpUser = &gObj[aIndex];

  02412	8b 45 08	 mov	 eax, DWORD PTR _aIndex$[ebp]
  02415	69 c0 38 2b 00
	00		 imul	 eax, 11064		; 00002b38H
  0241b	03 05 00 00 00
	00		 add	 eax, DWORD PTR ?gObj@@3PAUOBJECTSTRUCT@@A ; gObj
  02421	89 45 f4	 mov	 DWORD PTR _lpUser$[ebp], eax

; 1032 : 	LPOBJ lpTarget = &gObj[aTargetIndex];

  02424	8b 45 0c	 mov	 eax, DWORD PTR _aTargetIndex$[ebp]
  02427	69 c0 38 2b 00
	00		 imul	 eax, 11064		; 00002b38H
  0242d	03 05 00 00 00
	00		 add	 eax, DWORD PTR ?gObj@@3PAUOBJECTSTRUCT@@A ; gObj
  02433	89 45 f0	 mov	 DWORD PTR _lpTarget$[ebp], eax

; 1033 : 
; 1034 : 	if(g_ExLicense.CheckUser(eExUB::Gredy) || g_ExLicense.CheckUser(eExUB::Gredy2) || g_ExLicense.CheckUser(eExUB::GredyLocal))

  02436	6a 20		 push	 32			; 00000020H
  02438	b9 00 00 00 00	 mov	 ecx, OFFSET ?g_ExLicense@@3VCExLicense@@A ; g_ExLicense
  0243d	e8 00 00 00 00	 call	 ?CheckUser@CExLicense@@QAE_NH@Z ; CExLicense::CheckUser
  02442	0f b6 c0	 movzx	 eax, al
  02445	85 c0		 test	 eax, eax
  02447	75 26		 jne	 SHORT $LN2@PlayerKill
  02449	6a 22		 push	 34			; 00000022H
  0244b	b9 00 00 00 00	 mov	 ecx, OFFSET ?g_ExLicense@@3VCExLicense@@A ; g_ExLicense
  02450	e8 00 00 00 00	 call	 ?CheckUser@CExLicense@@QAE_NH@Z ; CExLicense::CheckUser
  02455	0f b6 c0	 movzx	 eax, al
  02458	85 c0		 test	 eax, eax
  0245a	75 13		 jne	 SHORT $LN2@PlayerKill
  0245c	6a 21		 push	 33			; 00000021H
  0245e	b9 00 00 00 00	 mov	 ecx, OFFSET ?g_ExLicense@@3VCExLicense@@A ; g_ExLicense
  02463	e8 00 00 00 00	 call	 ?CheckUser@CExLicense@@QAE_NH@Z ; CExLicense::CheckUser
  02468	0f b6 c0	 movzx	 eax, al
  0246b	85 c0		 test	 eax, eax
  0246d	74 13		 je	 SHORT $LN3@PlayerKill
$LN2@PlayerKill:

; 1035 : 	{
; 1036 : 		if(!lpUser->m_OfflineMode)

  0246f	8b 45 f4	 mov	 eax, DWORD PTR _lpUser$[ebp]
  02472	0f b6 88 d4 28
	00 00		 movzx	 ecx, BYTE PTR [eax+10452]
  02479	85 c9		 test	 ecx, ecx
  0247b	75 05		 jne	 SHORT $LN3@PlayerKill

; 1037 : 		{
; 1038 : 			return;

  0247d	e9 b9 00 00 00	 jmp	 $LN7@PlayerKill
$LN3@PlayerKill:

; 1039 : 		}
; 1040 : 	}
; 1041 : 
; 1042 : 	char szKillerName[32];
; 1043 : 	sprintf(szKillerName, "Killer Name: %s", lpTarget->Name);

  02482	8b 45 f0	 mov	 eax, DWORD PTR _lpTarget$[ebp]
  02485	83 c0 77	 add	 eax, 119		; 00000077H
  02488	50		 push	 eax
  02489	68 00 00 00 00	 push	 OFFSET ??_C@_0BA@PBFANPGB@Killer?5Name?3?5?$CFs?$AA@
  0248e	8d 4d d0	 lea	 ecx, DWORD PTR _szKillerName$[ebp]
  02491	51		 push	 ecx
  02492	e8 00 00 00 00	 call	 _sprintf
  02497	83 c4 0c	 add	 esp, 12			; 0000000cH

; 1044 : 
; 1045 : 	PMSG_FRIEND_MEMO pMsg;
; 1046 : 	memset(&pMsg, 0, sizeof(pMsg));

  0249a	68 3c 04 00 00	 push	 1084			; 0000043cH
  0249f	6a 00		 push	 0
  024a1	8d 85 94 fb ff
	ff		 lea	 eax, DWORD PTR _pMsg$[ebp]
  024a7	50		 push	 eax
  024a8	e8 00 00 00 00	 call	 _memset
  024ad	83 c4 0c	 add	 esp, 12			; 0000000cH

; 1047 : 	pMsg.WindowGuid = 0;

  024b0	c7 85 98 fb ff
	ff 00 00 00 00	 mov	 DWORD PTR _pMsg$[ebp+4], 0

; 1048 : 	pMsg.Action = 0;

  024ba	c6 85 e3 fb ff
	ff 00		 mov	 BYTE PTR _pMsg$[ebp+79], 0

; 1049 : 	pMsg.Dir = lpTarget->Dir;

  024c1	8b 45 f0	 mov	 eax, DWORD PTR _lpTarget$[ebp]
  024c4	8a 88 48 01 00
	00		 mov	 cl, BYTE PTR [eax+328]
  024ca	88 8d e2 fb ff
	ff		 mov	 BYTE PTR _pMsg$[ebp+78], cl

; 1050 : 	memcpy(pMsg.Name, lpUser->Name, sizeof(pMsg.Name));

  024d0	6a 0a		 push	 10			; 0000000aH
  024d2	8b 45 f4	 mov	 eax, DWORD PTR _lpUser$[ebp]
  024d5	83 c0 77	 add	 eax, 119		; 00000077H
  024d8	50		 push	 eax
  024d9	8d 8d 9c fb ff
	ff		 lea	 ecx, DWORD PTR _pMsg$[ebp+8]
  024df	51		 push	 ecx
  024e0	e8 00 00 00 00	 call	 _memcpy
  024e5	83 c4 0c	 add	 esp, 12			; 0000000cH

; 1051 : 	memcpy(pMsg.Subject, szKillerName, sizeof(pMsg.Subject));

  024e8	6a 20		 push	 32			; 00000020H
  024ea	8d 45 d0	 lea	 eax, DWORD PTR _szKillerName$[ebp]
  024ed	50		 push	 eax
  024ee	8d 8d a6 fb ff
	ff		 lea	 ecx, DWORD PTR _pMsg$[ebp+18]
  024f4	51		 push	 ecx
  024f5	e8 00 00 00 00	 call	 _memcpy
  024fa	83 c4 0c	 add	 esp, 12			; 0000000cH

; 1052 : 	//memset(pMsg.Memo, 0, sizeof(pMsg.Memo));
; 1053 : 	//pMsg.MemoSize = 0;
; 1054 : 	memcpy(pMsg.Memo, szKillerName, sizeof(pMsg.Memo));

  024fd	68 e8 03 00 00	 push	 1000			; 000003e8H
  02502	8d 45 d0	 lea	 eax, DWORD PTR _szKillerName$[ebp]
  02505	50		 push	 eax
  02506	8d 8d e6 fb ff
	ff		 lea	 ecx, DWORD PTR _pMsg$[ebp+82]
  0250c	51		 push	 ecx
  0250d	e8 00 00 00 00	 call	 _memcpy
  02512	83 c4 0c	 add	 esp, 12			; 0000000cH

; 1055 : 	pMsg.MemoSize = strlen(szKillerName);

  02515	8d 45 d0	 lea	 eax, DWORD PTR _szKillerName$[ebp]
  02518	50		 push	 eax
  02519	e8 00 00 00 00	 call	 _strlen
  0251e	83 c4 04	 add	 esp, 4
  02521	66 89 85 e4 fb
	ff ff		 mov	 WORD PTR _pMsg$[ebp+80], ax

; 1056 : 	FriendMemoSendEx(&pMsg, aIndex);

  02528	8b 45 08	 mov	 eax, DWORD PTR _aIndex$[ebp]
  0252b	50		 push	 eax
  0252c	8d 8d 94 fb ff
	ff		 lea	 ecx, DWORD PTR _pMsg$[ebp]
  02532	51		 push	 ecx
  02533	e8 00 00 00 00	 call	 ?FriendMemoSendEx@@YAXPAUPMSG_FRIEND_MEMO@@H@Z ; FriendMemoSendEx
  02538	83 c4 08	 add	 esp, 8
$LN7@PlayerKill:

; 1057 : }

  0253b	5f		 pop	 edi
  0253c	5e		 pop	 esi
  0253d	5b		 pop	 ebx
  0253e	8b 4d fc	 mov	 ecx, DWORD PTR __$ArrayPad$[ebp]
  02541	33 cd		 xor	 ecx, ebp
  02543	e8 00 00 00 00	 call	 @__security_check_cookie@4
  02548	8b e5		 mov	 esp, ebp
  0254a	5d		 pop	 ebp
  0254b	c2 08 00	 ret	 8
?PlayerKillInfoMail@ÑExUser@@QAEXHH@Z ENDP		; ÑExUser::PlayerKillInfoMail
_TEXT	ENDS
PUBLIC	__$ArrayPad$
PUBLIC	?PartyMiniMapInfo@ÑExUser@@QAEXXZ		; ÑExUser::PartyMiniMapInfo
EXTRN	?gObjIsConnected@@YAHH@Z:PROC			; gObjIsConnected
EXTRN	?GetCount@PartyClass@@QAEHH@Z:PROC		; PartyClass::GetCount
EXTRN	?gParty@@3VPartyClass@@A:BYTE			; gParty
; Function compile flags: /Odtp /ZI
_TEXT	SEGMENT
_lpPartyUser$234634 = -176				; size = 4
_iPartyUser$234632 = -172				; size = 4
_i$234628 = -168					; size = 4
_n$234627 = -164					; size = 4
_pMsg$234625 = -160					; size = 140
_iPartyNumber$234623 = -20				; size = 4
_lpUser$234620 = -16					; size = 4
_aIndex$234616 = -12					; size = 4
_this$ = -8						; size = 4
__$ArrayPad$ = -4					; size = 4
?PartyMiniMapInfo@ÑExUser@@QAEXXZ PROC			; ÑExUser::PartyMiniMapInfo
; _this$ = ecx

; 1060 : {

  02550	55		 push	 ebp
  02551	8b ec		 mov	 ebp, esp
  02553	81 ec f0 00 00
	00		 sub	 esp, 240		; 000000f0H
  02559	a1 00 00 00 00	 mov	 eax, DWORD PTR ___security_cookie
  0255e	33 c5		 xor	 eax, ebp
  02560	89 45 fc	 mov	 DWORD PTR __$ArrayPad$[ebp], eax
  02563	53		 push	 ebx
  02564	56		 push	 esi
  02565	57		 push	 edi
  02566	89 4d f8	 mov	 DWORD PTR _this$[ebp], ecx

; 1061 : #if(CUSTOM_MINIMAP_PARTY)
; 1062 : 
; 1063 : 	for(int aIndex = OBJ_STARTUSERINDEX; aIndex < OBJMAX; aIndex++)

  02569	c7 45 f4 b0 36
	00 00		 mov	 DWORD PTR _aIndex$234616[ebp], 14000 ; 000036b0H
  02570	eb 09		 jmp	 SHORT $LN11@PartyMiniM
$LN10@PartyMiniM:
  02572	8b 45 f4	 mov	 eax, DWORD PTR _aIndex$234616[ebp]
  02575	83 c0 01	 add	 eax, 1
  02578	89 45 f4	 mov	 DWORD PTR _aIndex$234616[ebp], eax
$LN11@PartyMiniM:
  0257b	81 7d f4 98 3a
	00 00		 cmp	 DWORD PTR _aIndex$234616[ebp], 15000 ; 00003a98H
  02582	0f 8d be 01 00
	00		 jge	 $LN12@PartyMiniM

; 1064 : 	{
; 1065 : 		LPOBJ lpUser = &gObj[aIndex];

  02588	8b 45 f4	 mov	 eax, DWORD PTR _aIndex$234616[ebp]
  0258b	69 c0 38 2b 00
	00		 imul	 eax, 11064		; 00002b38H
  02591	03 05 00 00 00
	00		 add	 eax, DWORD PTR ?gObj@@3PAUOBJECTSTRUCT@@A ; gObj
  02597	89 45 f0	 mov	 DWORD PTR _lpUser$234620[ebp], eax

; 1066 : 
; 1067 : 		if(lpUser->Connected < PLAYER_PLAYING)

  0259a	8b 45 f0	 mov	 eax, DWORD PTR _lpUser$234620[ebp]
  0259d	83 78 04 03	 cmp	 DWORD PTR [eax+4], 3
  025a1	7d 02		 jge	 SHORT $LN8@PartyMiniM

; 1068 : 		{
; 1069 : 			continue;

  025a3	eb cd		 jmp	 SHORT $LN10@PartyMiniM
$LN8@PartyMiniM:

; 1070 : 		}
; 1071 : 
; 1072 : 		if(!lpUser->m_MiniMap)

  025a5	8b 45 f0	 mov	 eax, DWORD PTR _lpUser$234620[ebp]
  025a8	0f b6 88 24 2b
	00 00		 movzx	 ecx, BYTE PTR [eax+11044]
  025af	85 c9		 test	 ecx, ecx
  025b1	75 02		 jne	 SHORT $LN7@PartyMiniM

; 1073 : 		{
; 1074 : 			continue;

  025b3	eb bd		 jmp	 SHORT $LN10@PartyMiniM
$LN7@PartyMiniM:

; 1075 : 		}
; 1076 : 
; 1077 : 		int iPartyNumber = lpUser->PartyNumber;

  025b5	8b 45 f0	 mov	 eax, DWORD PTR _lpUser$234620[ebp]
  025b8	8b 88 2c 04 00
	00		 mov	 ecx, DWORD PTR [eax+1068]
  025be	89 4d ec	 mov	 DWORD PTR _iPartyNumber$234623[ebp], ecx

; 1078 : 
; 1079 : 		if(iPartyNumber >= 0)

  025c1	83 7d ec 00	 cmp	 DWORD PTR _iPartyNumber$234623[ebp], 0
  025c5	0f 8c 76 01 00
	00		 jl	 $LN6@PartyMiniM

; 1080 : 		{
; 1081 : 			PMSG_PARTY_MINIMAP pMsg;
; 1082 : 			pMsg.h.set((LPBYTE)&pMsg, 0xFB, 0xD5, sizeof(pMsg));

  025cb	68 8c 00 00 00	 push	 140			; 0000008cH
  025d0	68 d5 00 00 00	 push	 213			; 000000d5H
  025d5	68 fb 00 00 00	 push	 251			; 000000fbH
  025da	8d 85 60 ff ff
	ff		 lea	 eax, DWORD PTR _pMsg$234625[ebp]
  025e0	50		 push	 eax
  025e1	8d 8d 60 ff ff
	ff		 lea	 ecx, DWORD PTR _pMsg$234625[ebp]
  025e7	e8 00 00 00 00	 call	 ?set@PBMSG_HEAD2@@QAEXPAEEEE@Z ; PBMSG_HEAD2::set

; 1083 : 			pMsg.Count = gParty.GetCount(iPartyNumber);

  025ec	8b 45 ec	 mov	 eax, DWORD PTR _iPartyNumber$234623[ebp]
  025ef	50		 push	 eax
  025f0	b9 00 00 00 00	 mov	 ecx, OFFSET ?gParty@@3VPartyClass@@A ; gParty
  025f5	e8 00 00 00 00	 call	 ?GetCount@PartyClass@@QAEHH@Z ; PartyClass::GetCount
  025fa	89 85 64 ff ff
	ff		 mov	 DWORD PTR _pMsg$234625[ebp+4], eax

; 1084 : 
; 1085 : 			int n = 0;

  02600	c7 85 5c ff ff
	ff 00 00 00 00	 mov	 DWORD PTR _n$234627[ebp], 0

; 1086 : 
; 1087 : 			for(int i = 0; i < MAX_USER_IN_PARTY; i++ )

  0260a	c7 85 58 ff ff
	ff 00 00 00 00	 mov	 DWORD PTR _i$234628[ebp], 0
  02614	eb 0f		 jmp	 SHORT $LN5@PartyMiniM
$LN4@PartyMiniM:
  02616	8b 85 58 ff ff
	ff		 mov	 eax, DWORD PTR _i$234628[ebp]
  0261c	83 c0 01	 add	 eax, 1
  0261f	89 85 58 ff ff
	ff		 mov	 DWORD PTR _i$234628[ebp], eax
$LN5@PartyMiniM:
  02625	83 bd 58 ff ff
	ff 0a		 cmp	 DWORD PTR _i$234628[ebp], 10 ; 0000000aH
  0262c	0f 8d f4 00 00
	00		 jge	 $LN3@PartyMiniM

; 1088 : 			{
; 1089 : 				int iPartyUser = gParty.m_PartyS[iPartyNumber].Number[i];

  02632	8b 45 ec	 mov	 eax, DWORD PTR _iPartyNumber$234623[ebp]
  02635	6b c0 6c	 imul	 eax, 108		; 0000006cH
  02638	8b 8d 58 ff ff
	ff		 mov	 ecx, DWORD PTR _i$234628[ebp]
  0263e	8b 94 88 0c 00
	00 00		 mov	 edx, DWORD PTR ?gParty@@3VPartyClass@@A[eax+ecx*4+12]
  02645	89 95 54 ff ff
	ff		 mov	 DWORD PTR _iPartyUser$234632[ebp], edx

; 1090 : 
; 1091 : 				if(gObjIsConnected(iPartyUser))

  0264b	8b 85 54 ff ff
	ff		 mov	 eax, DWORD PTR _iPartyUser$234632[ebp]
  02651	50		 push	 eax
  02652	e8 00 00 00 00	 call	 ?gObjIsConnected@@YAHH@Z ; gObjIsConnected
  02657	83 c4 04	 add	 esp, 4
  0265a	85 c0		 test	 eax, eax
  0265c	0f 84 bf 00 00
	00		 je	 $LN2@PartyMiniM

; 1092 : 				{
; 1093 : 					LPOBJ lpPartyUser = &gObj[iPartyUser];

  02662	8b 85 54 ff ff
	ff		 mov	 eax, DWORD PTR _iPartyUser$234632[ebp]
  02668	69 c0 38 2b 00
	00		 imul	 eax, 11064		; 00002b38H
  0266e	03 05 00 00 00
	00		 add	 eax, DWORD PTR ?gObj@@3PAUOBJECTSTRUCT@@A ; gObj
  02674	89 85 50 ff ff
	ff		 mov	 DWORD PTR _lpPartyUser$234634[ebp], eax

; 1094 : 
; 1095 : 					if(lpUser->MapNumber == lpPartyUser->MapNumber)

  0267a	8b 45 f0	 mov	 eax, DWORD PTR _lpUser$234620[ebp]
  0267d	0f b6 88 49 01
	00 00		 movzx	 ecx, BYTE PTR [eax+329]
  02684	8b 95 50 ff ff
	ff		 mov	 edx, DWORD PTR _lpPartyUser$234634[ebp]
  0268a	0f b6 82 49 01
	00 00		 movzx	 eax, BYTE PTR [edx+329]
  02691	3b c8		 cmp	 ecx, eax
  02693	0f 85 88 00 00
	00		 jne	 $LN2@PartyMiniM

; 1096 : 					{
; 1097 : 						memcpy(pMsg.Data[n].Name, lpPartyUser->Name, sizeof(pMsg.Data[i].Name));

  02699	6a 0a		 push	 10			; 0000000aH
  0269b	8b 85 50 ff ff
	ff		 mov	 eax, DWORD PTR _lpPartyUser$234634[ebp]
  026a1	83 c0 77	 add	 eax, 119		; 00000077H
  026a4	50		 push	 eax
  026a5	8b 8d 5c ff ff
	ff		 mov	 ecx, DWORD PTR _n$234627[ebp]
  026ab	6b c9 0d	 imul	 ecx, 13			; 0000000dH
  026ae	8d 94 0d 68 ff
	ff ff		 lea	 edx, DWORD PTR _pMsg$234625[ebp+ecx+8]
  026b5	52		 push	 edx
  026b6	e8 00 00 00 00	 call	 _memcpy
  026bb	83 c4 0c	 add	 esp, 12			; 0000000cH

; 1098 : 						pMsg.Data[n].Map = lpPartyUser->MapNumber;

  026be	8b 85 5c ff ff
	ff		 mov	 eax, DWORD PTR _n$234627[ebp]
  026c4	6b c0 0d	 imul	 eax, 13			; 0000000dH
  026c7	8b 8d 50 ff ff
	ff		 mov	 ecx, DWORD PTR _lpPartyUser$234634[ebp]
  026cd	8a 91 49 01 00
	00		 mov	 dl, BYTE PTR [ecx+329]
  026d3	88 94 05 72 ff
	ff ff		 mov	 BYTE PTR _pMsg$234625[ebp+eax+18], dl

; 1099 : 						pMsg.Data[n].X = lpPartyUser->X;

  026da	8b 85 5c ff ff
	ff		 mov	 eax, DWORD PTR _n$234627[ebp]
  026e0	6b c0 0d	 imul	 eax, 13			; 0000000dH
  026e3	8b 8d 50 ff ff
	ff		 mov	 ecx, DWORD PTR _lpPartyUser$234634[ebp]
  026e9	8a 91 44 01 00
	00		 mov	 dl, BYTE PTR [ecx+324]
  026ef	88 94 05 73 ff
	ff ff		 mov	 BYTE PTR _pMsg$234625[ebp+eax+19], dl

; 1100 : 						pMsg.Data[n].Y = lpPartyUser->Y;

  026f6	8b 85 5c ff ff
	ff		 mov	 eax, DWORD PTR _n$234627[ebp]
  026fc	6b c0 0d	 imul	 eax, 13			; 0000000dH
  026ff	8b 8d 50 ff ff
	ff		 mov	 ecx, DWORD PTR _lpPartyUser$234634[ebp]
  02705	8a 91 46 01 00
	00		 mov	 dl, BYTE PTR [ecx+326]
  0270b	88 94 05 74 ff
	ff ff		 mov	 BYTE PTR _pMsg$234625[ebp+eax+20], dl

; 1101 : 
; 1102 : 						n++;

  02712	8b 85 5c ff ff
	ff		 mov	 eax, DWORD PTR _n$234627[ebp]
  02718	83 c0 01	 add	 eax, 1
  0271b	89 85 5c ff ff
	ff		 mov	 DWORD PTR _n$234627[ebp], eax
$LN2@PartyMiniM:

; 1103 : 					}
; 1104 : 				}
; 1105 : 			}

  02721	e9 f0 fe ff ff	 jmp	 $LN4@PartyMiniM
$LN3@PartyMiniM:

; 1106 : 
; 1107 : 			DataSend(aIndex, (LPBYTE)&pMsg, pMsg.h.size);	

  02726	0f b6 85 61 ff
	ff ff		 movzx	 eax, BYTE PTR _pMsg$234625[ebp+1]
  0272d	50		 push	 eax
  0272e	8d 8d 60 ff ff
	ff		 lea	 ecx, DWORD PTR _pMsg$234625[ebp]
  02734	51		 push	 ecx
  02735	8b 55 f4	 mov	 edx, DWORD PTR _aIndex$234616[ebp]
  02738	52		 push	 edx
  02739	e8 00 00 00 00	 call	 ?DataSend@@YAHHPAEK@Z	; DataSend
  0273e	83 c4 0c	 add	 esp, 12			; 0000000cH
$LN6@PartyMiniM:

; 1108 : 		}
; 1109 : 		
; 1110 : 	}

  02741	e9 2c fe ff ff	 jmp	 $LN10@PartyMiniM
$LN12@PartyMiniM:

; 1111 : #endif
; 1112 : }

  02746	5f		 pop	 edi
  02747	5e		 pop	 esi
  02748	5b		 pop	 ebx
  02749	8b 4d fc	 mov	 ecx, DWORD PTR __$ArrayPad$[ebp]
  0274c	33 cd		 xor	 ecx, ebp
  0274e	e8 00 00 00 00	 call	 @__security_check_cookie@4
  02753	8b e5		 mov	 esp, ebp
  02755	5d		 pop	 ebp
  02756	c3		 ret	 0
?PartyMiniMapInfo@ÑExUser@@QAEXXZ ENDP			; ÑExUser::PartyMiniMapInfo
_TEXT	ENDS
PUBLIC	?CGCtrlKey@ÑExUser@@QAEXHPAUPMSG_CONTROLLER_CTRL@@@Z ; ÑExUser::CGCtrlKey
; Function compile flags: /Odtp /ZI
_TEXT	SEGMENT
tv77 = -76						; size = 4
_lpUser$ = -8						; size = 4
_this$ = -4						; size = 4
_aIndex$ = 8						; size = 4
_aRecv$ = 12						; size = 4
?CGCtrlKey@ÑExUser@@QAEXHPAUPMSG_CONTROLLER_CTRL@@@Z PROC ; ÑExUser::CGCtrlKey
; _this$ = ecx

; 1116 : {

  02760	55		 push	 ebp
  02761	8b ec		 mov	 ebp, esp
  02763	83 ec 4c	 sub	 esp, 76			; 0000004cH
  02766	53		 push	 ebx
  02767	56		 push	 esi
  02768	57		 push	 edi
  02769	89 4d fc	 mov	 DWORD PTR _this$[ebp], ecx

; 1117 : 	if(!g_ExLicense.CheckUser(eExUB::Local) &&
; 1118 : 	   !g_ExLicense.CheckUser(eExUB::ArcMu))

  0276c	6a 00		 push	 0
  0276e	b9 00 00 00 00	 mov	 ecx, OFFSET ?g_ExLicense@@3VCExLicense@@A ; g_ExLicense
  02773	e8 00 00 00 00	 call	 ?CheckUser@CExLicense@@QAE_NH@Z ; CExLicense::CheckUser
  02778	0f b6 c0	 movzx	 eax, al
  0277b	85 c0		 test	 eax, eax
  0277d	75 15		 jne	 SHORT $LN3@CGCtrlKey
  0277f	6a 48		 push	 72			; 00000048H
  02781	b9 00 00 00 00	 mov	 ecx, OFFSET ?g_ExLicense@@3VCExLicense@@A ; g_ExLicense
  02786	e8 00 00 00 00	 call	 ?CheckUser@CExLicense@@QAE_NH@Z ; CExLicense::CheckUser
  0278b	0f b6 c0	 movzx	 eax, al
  0278e	85 c0		 test	 eax, eax
  02790	75 02		 jne	 SHORT $LN3@CGCtrlKey

; 1119 : 	{
; 1120 : 		return;

  02792	eb 56		 jmp	 SHORT $LN4@CGCtrlKey
$LN3@CGCtrlKey:

; 1121 : 	}
; 1122 : 
; 1123 : 	if (!OBJMAX_RANGE(aIndex))

  02794	83 7d 08 00	 cmp	 DWORD PTR _aIndex$[ebp], 0
  02798	7d 09		 jge	 SHORT $LN6@CGCtrlKey
  0279a	c7 45 b4 00 00
	00 00		 mov	 DWORD PTR tv77[ebp], 0
  027a1	eb 0f		 jmp	 SHORT $LN7@CGCtrlKey
$LN6@CGCtrlKey:
  027a3	33 c0		 xor	 eax, eax
  027a5	81 7d 08 97 3a
	00 00		 cmp	 DWORD PTR _aIndex$[ebp], 14999 ; 00003a97H
  027ac	0f 9e c0	 setle	 al
  027af	89 45 b4	 mov	 DWORD PTR tv77[ebp], eax
$LN7@CGCtrlKey:
  027b2	83 7d b4 00	 cmp	 DWORD PTR tv77[ebp], 0
  027b6	75 02		 jne	 SHORT $LN2@CGCtrlKey

; 1124 : 	{
; 1125 : 		return;

  027b8	eb 30		 jmp	 SHORT $LN4@CGCtrlKey
$LN2@CGCtrlKey:

; 1126 : 	}
; 1127 : 
; 1128 : 	LPOBJ lpUser = &gObj[aIndex];

  027ba	8b 45 08	 mov	 eax, DWORD PTR _aIndex$[ebp]
  027bd	69 c0 38 2b 00
	00		 imul	 eax, 11064		; 00002b38H
  027c3	03 05 00 00 00
	00		 add	 eax, DWORD PTR ?gObj@@3PAUOBJECTSTRUCT@@A ; gObj
  027c9	89 45 f8	 mov	 DWORD PTR _lpUser$[ebp], eax

; 1129 : 
; 1130 : 	if(lpUser->Connected < PLAYER_PLAYING)

  027cc	8b 45 f8	 mov	 eax, DWORD PTR _lpUser$[ebp]
  027cf	83 78 04 03	 cmp	 DWORD PTR [eax+4], 3
  027d3	7d 02		 jge	 SHORT $LN1@CGCtrlKey

; 1131 : 	{
; 1132 : 		return;

  027d5	eb 13		 jmp	 SHORT $LN4@CGCtrlKey
$LN1@CGCtrlKey:

; 1133 : 	}
; 1134 : 
; 1135 : 	lpUser->CtrlKey = aRecv->CtrlKey;

  027d7	8b 45 0c	 mov	 eax, DWORD PTR _aRecv$[ebp]
  027da	80 78 04 00	 cmp	 BYTE PTR [eax+4], 0
  027de	0f 95 c1	 setne	 cl
  027e1	8b 55 f8	 mov	 edx, DWORD PTR _lpUser$[ebp]
  027e4	88 8a 1c 2b 00
	00		 mov	 BYTE PTR [edx+11036], cl
$LN4@CGCtrlKey:

; 1136 : 	//LogAddC(2, "Ctrl: %d", lpUser->CtrlKey);
; 1137 : }

  027ea	5f		 pop	 edi
  027eb	5e		 pop	 esi
  027ec	5b		 pop	 ebx
  027ed	8b e5		 mov	 esp, ebp
  027ef	5d		 pop	 ebp
  027f0	c2 08 00	 ret	 8
?CGCtrlKey@ÑExUser@@QAEXHPAUPMSG_CONTROLLER_CTRL@@@Z ENDP ; ÑExUser::CGCtrlKey
_TEXT	ENDS
PUBLIC	?RecvConfig@ÑExUser@@QAEXPAUCG_MINIMAP_PARTY@@H@Z ; ÑExUser::RecvConfig
; Function compile flags: /Odtp /ZI
_TEXT	SEGMENT
tv67 = -76						; size = 4
_lpUser$ = -8						; size = 4
_this$ = -4						; size = 4
_lpMsg$ = 8						; size = 4
_aIndex$ = 12						; size = 4
?RecvConfig@ÑExUser@@QAEXPAUCG_MINIMAP_PARTY@@H@Z PROC	; ÑExUser::RecvConfig
; _this$ = ecx

; 1141 : {

  02800	55		 push	 ebp
  02801	8b ec		 mov	 ebp, esp
  02803	83 ec 4c	 sub	 esp, 76			; 0000004cH
  02806	53		 push	 ebx
  02807	56		 push	 esi
  02808	57		 push	 edi
  02809	89 4d fc	 mov	 DWORD PTR _this$[ebp], ecx

; 1142 : 	if (!OBJMAX_RANGE(aIndex))

  0280c	83 7d 0c 00	 cmp	 DWORD PTR _aIndex$[ebp], 0
  02810	7d 09		 jge	 SHORT $LN5@RecvConfig
  02812	c7 45 b4 00 00
	00 00		 mov	 DWORD PTR tv67[ebp], 0
  02819	eb 0f		 jmp	 SHORT $LN6@RecvConfig
$LN5@RecvConfig:
  0281b	33 c0		 xor	 eax, eax
  0281d	81 7d 0c 97 3a
	00 00		 cmp	 DWORD PTR _aIndex$[ebp], 14999 ; 00003a97H
  02824	0f 9e c0	 setle	 al
  02827	89 45 b4	 mov	 DWORD PTR tv67[ebp], eax
$LN6@RecvConfig:
  0282a	83 7d b4 00	 cmp	 DWORD PTR tv67[ebp], 0
  0282e	75 02		 jne	 SHORT $LN2@RecvConfig

; 1143 : 	{
; 1144 : 		return;

  02830	eb 2c		 jmp	 SHORT $LN3@RecvConfig
$LN2@RecvConfig:

; 1145 : 	}
; 1146 : 
; 1147 : 	LPOBJ lpUser = &gObj[aIndex];

  02832	8b 45 0c	 mov	 eax, DWORD PTR _aIndex$[ebp]
  02835	69 c0 38 2b 00
	00		 imul	 eax, 11064		; 00002b38H
  0283b	03 05 00 00 00
	00		 add	 eax, DWORD PTR ?gObj@@3PAUOBJECTSTRUCT@@A ; gObj
  02841	89 45 f8	 mov	 DWORD PTR _lpUser$[ebp], eax

; 1148 : 
; 1149 : 	if(lpUser->Connected < PLAYER_PLAYING)

  02844	8b 45 f8	 mov	 eax, DWORD PTR _lpUser$[ebp]
  02847	83 78 04 03	 cmp	 DWORD PTR [eax+4], 3
  0284b	7d 02		 jge	 SHORT $LN1@RecvConfig

; 1150 : 	{
; 1151 : 		return;

  0284d	eb 0f		 jmp	 SHORT $LN3@RecvConfig
$LN1@RecvConfig:

; 1152 : 	}
; 1153 : 
; 1154 : 	lpUser->m_MiniMap = lpMsg->MiniMap;

  0284f	8b 45 f8	 mov	 eax, DWORD PTR _lpUser$[ebp]
  02852	8b 4d 08	 mov	 ecx, DWORD PTR _lpMsg$[ebp]
  02855	8a 51 04	 mov	 dl, BYTE PTR [ecx+4]
  02858	88 90 24 2b 00
	00		 mov	 BYTE PTR [eax+11044], dl
$LN3@RecvConfig:

; 1155 : }

  0285e	5f		 pop	 edi
  0285f	5e		 pop	 esi
  02860	5b		 pop	 ebx
  02861	8b e5		 mov	 esp, ebp
  02863	5d		 pop	 ebp
  02864	c2 08 00	 ret	 8
?RecvConfig@ÑExUser@@QAEXPAUCG_MINIMAP_PARTY@@H@Z ENDP	; ÑExUser::RecvConfig
_TEXT	ENDS
PUBLIC	?GCDamageTable@ÑExUser@@QAEXH@Z			; ÑExUser::GCDamageTable
PUBLIC	?ResetDamageTable@ÑExUser@@QAEXXZ		; ÑExUser::ResetDamageTable
; Function compile flags: /Odtp /ZI
_TEXT	SEGMENT
_lpUser$234662 = -12					; size = 4
_aIndex$234658 = -8					; size = 4
_this$ = -4						; size = 4
?ResetDamageTable@ÑExUser@@QAEXXZ PROC			; ÑExUser::ResetDamageTable
; _this$ = ecx

; 1198 : {

  02870	55		 push	 ebp
  02871	8b ec		 mov	 ebp, esp
  02873	83 ec 4c	 sub	 esp, 76			; 0000004cH
  02876	53		 push	 ebx
  02877	56		 push	 esi
  02878	57		 push	 edi
  02879	89 4d fc	 mov	 DWORD PTR _this$[ebp], ecx

; 1199 : 	if(!this->EnableTable)

  0287c	8b 45 fc	 mov	 eax, DWORD PTR _this$[ebp]
  0287f	0f b6 48 09	 movzx	 ecx, BYTE PTR [eax+9]
  02883	85 c9		 test	 ecx, ecx
  02885	75 02		 jne	 SHORT $LN5@ResetDamag

; 1200 : 	{
; 1201 : 		return;

  02887	eb 6d		 jmp	 SHORT $LN6@ResetDamag
$LN5@ResetDamag:

; 1202 : 	}
; 1203 : 
; 1204 : 	for(int aIndex = OBJ_STARTUSERINDEX; aIndex < OBJMAX; aIndex++)

  02889	c7 45 f8 b0 36
	00 00		 mov	 DWORD PTR _aIndex$234658[ebp], 14000 ; 000036b0H
  02890	eb 09		 jmp	 SHORT $LN4@ResetDamag
$LN3@ResetDamag:
  02892	8b 45 f8	 mov	 eax, DWORD PTR _aIndex$234658[ebp]
  02895	83 c0 01	 add	 eax, 1
  02898	89 45 f8	 mov	 DWORD PTR _aIndex$234658[ebp], eax
$LN4@ResetDamag:
  0289b	81 7d f8 98 3a
	00 00		 cmp	 DWORD PTR _aIndex$234658[ebp], 15000 ; 00003a98H
  028a2	7d 52		 jge	 SHORT $LN6@ResetDamag

; 1205 : 	{
; 1206 : 		LPOBJ lpUser = &gObj[aIndex];

  028a4	8b 45 f8	 mov	 eax, DWORD PTR _aIndex$234658[ebp]
  028a7	69 c0 38 2b 00
	00		 imul	 eax, 11064		; 00002b38H
  028ad	03 05 00 00 00
	00		 add	 eax, DWORD PTR ?gObj@@3PAUOBJECTSTRUCT@@A ; gObj
  028b3	89 45 f4	 mov	 DWORD PTR _lpUser$234662[ebp], eax

; 1207 : 
; 1208 : 		if(lpUser->Connected != PLAYER_PLAYING)

  028b6	8b 45 f4	 mov	 eax, DWORD PTR _lpUser$234662[ebp]
  028b9	83 78 04 03	 cmp	 DWORD PTR [eax+4], 3
  028bd	74 02		 je	 SHORT $LN1@ResetDamag

; 1209 : 		{
; 1210 : 			continue;

  028bf	eb d1		 jmp	 SHORT $LN3@ResetDamag
$LN1@ResetDamag:

; 1211 : 		}
; 1212 : 
; 1213 : 		lpUser->m_SecondDamage = 0;

  028c1	8b 45 f4	 mov	 eax, DWORD PTR _lpUser$234662[ebp]
  028c4	c7 80 28 2b 00
	00 00 00 00 00	 mov	 DWORD PTR [eax+11048], 0

; 1214 : 		lpUser->m_SecondDefence = 0;

  028ce	8b 45 f4	 mov	 eax, DWORD PTR _lpUser$234662[ebp]
  028d1	c7 80 2c 2b 00
	00 00 00 00 00	 mov	 DWORD PTR [eax+11052], 0

; 1215 : 		lpUser->m_SecondReflect = 0;

  028db	8b 45 f4	 mov	 eax, DWORD PTR _lpUser$234662[ebp]
  028de	c7 80 30 2b 00
	00 00 00 00 00	 mov	 DWORD PTR [eax+11056], 0

; 1216 : 
; 1217 : 		this->GCDamageTable(aIndex);

  028e8	8b 45 f8	 mov	 eax, DWORD PTR _aIndex$234658[ebp]
  028eb	50		 push	 eax
  028ec	8b 4d fc	 mov	 ecx, DWORD PTR _this$[ebp]
  028ef	e8 00 00 00 00	 call	 ?GCDamageTable@ÑExUser@@QAEXH@Z ; ÑExUser::GCDamageTable

; 1218 : 	}

  028f4	eb 9c		 jmp	 SHORT $LN3@ResetDamag
$LN6@ResetDamag:

; 1219 : }

  028f6	5f		 pop	 edi
  028f7	5e		 pop	 esi
  028f8	5b		 pop	 ebx
  028f9	8b e5		 mov	 esp, ebp
  028fb	5d		 pop	 ebp
  028fc	c3		 ret	 0
?ResetDamageTable@ÑExUser@@QAEXXZ ENDP			; ÑExUser::ResetDamageTable
_TEXT	ENDS
PUBLIC	__$ArrayPad$
; Function compile flags: /Odtp /ZI
_TEXT	SEGMENT
_pMsg$ = -28						; size = 16
_lpUser$ = -12						; size = 4
_this$ = -8						; size = 4
__$ArrayPad$ = -4					; size = 4
_aIndex$ = 8						; size = 4
?GCDamageTable@ÑExUser@@QAEXH@Z PROC			; ÑExUser::GCDamageTable
; _this$ = ecx

; 1222 : {

  02900	55		 push	 ebp
  02901	8b ec		 mov	 ebp, esp
  02903	83 ec 5c	 sub	 esp, 92			; 0000005cH
  02906	a1 00 00 00 00	 mov	 eax, DWORD PTR ___security_cookie
  0290b	33 c5		 xor	 eax, ebp
  0290d	89 45 fc	 mov	 DWORD PTR __$ArrayPad$[ebp], eax
  02910	53		 push	 ebx
  02911	56		 push	 esi
  02912	57		 push	 edi
  02913	89 4d f8	 mov	 DWORD PTR _this$[ebp], ecx

; 1223 : 	LPOBJ lpUser = &gObj[aIndex];

  02916	8b 45 08	 mov	 eax, DWORD PTR _aIndex$[ebp]
  02919	69 c0 38 2b 00
	00		 imul	 eax, 11064		; 00002b38H
  0291f	03 05 00 00 00
	00		 add	 eax, DWORD PTR ?gObj@@3PAUOBJECTSTRUCT@@A ; gObj
  02925	89 45 f4	 mov	 DWORD PTR _lpUser$[ebp], eax

; 1224 : 
; 1225 : 	PMSG_DAMAGE_TABLE pMsg;
; 1226 : 	pMsg.h.set((LPBYTE)&pMsg, 0xFB, 0xDC, sizeof(pMsg));//////////////////////

  02928	6a 10		 push	 16			; 00000010H
  0292a	68 dc 00 00 00	 push	 220			; 000000dcH
  0292f	68 fb 00 00 00	 push	 251			; 000000fbH
  02934	8d 45 e4	 lea	 eax, DWORD PTR _pMsg$[ebp]
  02937	50		 push	 eax
  02938	8d 4d e4	 lea	 ecx, DWORD PTR _pMsg$[ebp]
  0293b	e8 00 00 00 00	 call	 ?set@PBMSG_HEAD2@@QAEXPAEEEE@Z ; PBMSG_HEAD2::set

; 1227 : 	pMsg.SecondDamage = lpUser->m_SecondDamage;

  02940	8b 45 f4	 mov	 eax, DWORD PTR _lpUser$[ebp]
  02943	8b 88 28 2b 00
	00		 mov	 ecx, DWORD PTR [eax+11048]
  02949	89 4d e8	 mov	 DWORD PTR _pMsg$[ebp+4], ecx

; 1228 : 	pMsg.SecondDefence = lpUser->m_SecondDefence;

  0294c	8b 45 f4	 mov	 eax, DWORD PTR _lpUser$[ebp]
  0294f	8b 88 2c 2b 00
	00		 mov	 ecx, DWORD PTR [eax+11052]
  02955	89 4d ec	 mov	 DWORD PTR _pMsg$[ebp+8], ecx

; 1229 : 	pMsg.SecondReflect = lpUser->m_SecondReflect;

  02958	8b 45 f4	 mov	 eax, DWORD PTR _lpUser$[ebp]
  0295b	8b 88 30 2b 00
	00		 mov	 ecx, DWORD PTR [eax+11056]
  02961	89 4d f0	 mov	 DWORD PTR _pMsg$[ebp+12], ecx

; 1230 : 	DataSend(aIndex, (LPBYTE)&pMsg, pMsg.h.size);

  02964	0f b6 45 e5	 movzx	 eax, BYTE PTR _pMsg$[ebp+1]
  02968	50		 push	 eax
  02969	8d 4d e4	 lea	 ecx, DWORD PTR _pMsg$[ebp]
  0296c	51		 push	 ecx
  0296d	8b 55 08	 mov	 edx, DWORD PTR _aIndex$[ebp]
  02970	52		 push	 edx
  02971	e8 00 00 00 00	 call	 ?DataSend@@YAHHPAEK@Z	; DataSend
  02976	83 c4 0c	 add	 esp, 12			; 0000000cH

; 1231 : }

  02979	5f		 pop	 edi
  0297a	5e		 pop	 esi
  0297b	5b		 pop	 ebx
  0297c	8b 4d fc	 mov	 ecx, DWORD PTR __$ArrayPad$[ebp]
  0297f	33 cd		 xor	 ecx, ebp
  02981	e8 00 00 00 00	 call	 @__security_check_cookie@4
  02986	8b e5		 mov	 esp, ebp
  02988	5d		 pop	 ebp
  02989	c2 04 00	 ret	 4
?GCDamageTable@ÑExUser@@QAEXH@Z ENDP			; ÑExUser::GCDamageTable
_TEXT	ENDS
EXTRN	_atexit:PROC
; Function compile flags: /Odtp /ZI
;	COMDAT ??__Eg_ExUser@@YAXXZ
text$yc	SEGMENT
??__Eg_ExUser@@YAXXZ PROC				; `dynamic initializer for 'g_ExUser'', COMDAT

; 407  : ÑExUser g_ExUser;

  00000	55		 push	 ebp
  00001	8b ec		 mov	 ebp, esp
  00003	83 ec 40	 sub	 esp, 64			; 00000040H
  00006	53		 push	 ebx
  00007	56		 push	 esi
  00008	57		 push	 edi
  00009	b9 00 00 00 00	 mov	 ecx, OFFSET ?g_ExUser@@3VÑExUser@@A ; g_ExUser
  0000e	e8 00 00 00 00	 call	 ??0ÑExUser@@QAE@XZ	; ÑExUser::ÑExUser
  00013	68 00 00 00 00	 push	 OFFSET ??__Fg_ExUser@@YAXXZ ; `dynamic atexit destructor for 'g_ExUser''
  00018	e8 00 00 00 00	 call	 _atexit
  0001d	83 c4 04	 add	 esp, 4
  00020	5f		 pop	 edi
  00021	5e		 pop	 esi
  00022	5b		 pop	 ebx
  00023	8b e5		 mov	 esp, ebp
  00025	5d		 pop	 ebp
  00026	c3		 ret	 0
??__Eg_ExUser@@YAXXZ ENDP				; `dynamic initializer for 'g_ExUser''
; Function compile flags: /Odtp /ZI
text$yc	ENDS
;	COMDAT ??__Fg_ExUser@@YAXXZ
text$yd	SEGMENT
??__Fg_ExUser@@YAXXZ PROC				; `dynamic atexit destructor for 'g_ExUser'', COMDAT
  00000	55		 push	 ebp
  00001	8b ec		 mov	 ebp, esp
  00003	83 ec 40	 sub	 esp, 64			; 00000040H
  00006	53		 push	 ebx
  00007	56		 push	 esi
  00008	57		 push	 edi
  00009	b9 00 00 00 00	 mov	 ecx, OFFSET ?g_ExUser@@3VÑExUser@@A ; g_ExUser
  0000e	e8 00 00 00 00	 call	 ??1ÑExUser@@QAE@XZ	; ÑExUser::~ÑExUser
  00013	5f		 pop	 edi
  00014	5e		 pop	 esi
  00015	5b		 pop	 ebx
  00016	8b e5		 mov	 esp, ebp
  00018	5d		 pop	 ebp
  00019	c3		 ret	 0
??__Fg_ExUser@@YAXXZ ENDP				; `dynamic atexit destructor for 'g_ExUser''
text$yd	ENDS
PUBLIC	?g_ExUser@@3VÑExUser@@A				; g_ExUser
_BSS	SEGMENT
?g_ExUser@@3VÑExUser@@A DB 0cH DUP (?)			; g_ExUser
_BSS	ENDS
CRT$XCU	SEGMENT
_g_ExUser$initializer$ DD FLAT:??__Eg_ExUser@@YAXXZ
CRT$XCU	ENDS
END
