; Listing generated by Microsoft (R) Optimizing Compiler Version 16.00.40219.01 

	TITLE	D:\Projects\ExTeam6.3\Source\GameServer\GameServer\ExWinQuestSystem.cpp
	.686P
	.XMM
	include listing.inc
	.model	flat

INCLUDELIB LIBCMT
INCLUDELIB OLDNAMES

_DATA	SEGMENT
_g_iNpcUpDfLevel_CGATE DD 01H
	DD	02H
	DD	02dc6c0H
	DD	02H
	DD	03H
	DD	02dc6c0H
	DD	03H
	DD	04H
	DD	02dc6c0H
_g_iNpcUpDfLevel_CSTATUE DD 01H
	DD	03H
	DD	02dc6c0H
	DD	02H
	DD	05H
	DD	02dc6c0H
	DD	03H
	DD	07H
	DD	02dc6c0H
_g_iNpcUpMaxHP_CGATE DD 02625a0H
	DD	02H
	DD	0f4240H
	DD	03567e0H
	DD	03H
	DD	0f4240H
	DD	04f5880H
	DD	04H
	DD	0f4240H
_g_iNpcUpMaxHP_CSTATUE DD 02191c0H
	DD	03H
	DD	0f4240H
	DD	033e140H
	DD	05H
	DD	0f4240H
	DD	04c4b40H
	DD	07H
	DD	0f4240H
_g_iNpcUpRgLevel_CSTATUE DD 01H
	DD	03H
	DD	04c4b40H
	DD	02H
	DD	05H
	DD	04c4b40H
	DD	03H
	DD	07H
	DD	04c4b40H
_g_iCsUserReSpawnArea DD 023H
	DD	011H
	DD	090H
	DD	030H
	DD	04aH
	DD	090H
	DD	073H
	DD	09aH
	DD	023H
	DD	011H
	DD	090H
	DD	030H
_g_iNpcDefense_CGATE DD 064H
	DD	0b4H
	DD	012cH
	DD	0208H
_g_iNpcDefense_CSTATUE DD 050H
	DD	0b4H
	DD	0154H
	DD	0226H
_g_iCastleWallStepAxisY DD 071H
	DD	0a0H
	DD	0cbH
_DATA	ENDS
PUBLIC	??_H@YGXPAXIHP6EPAX0@Z@Z			; `vector constructor iterator'
; Function compile flags: /Odtp /ZI
;	COMDAT ??_H@YGXPAXIHP6EPAX0@Z@Z
_TEXT	SEGMENT
___t$ = 8						; size = 4
___s$ = 12						; size = 4
___n$ = 16						; size = 4
___f$ = 20						; size = 4
??_H@YGXPAXIHP6EPAX0@Z@Z PROC				; `vector constructor iterator', COMDAT
  00000	55		 push	 ebp
  00001	8b ec		 mov	 ebp, esp
  00003	83 ec 40	 sub	 esp, 64			; 00000040H
  00006	53		 push	 ebx
  00007	56		 push	 esi
  00008	57		 push	 edi
$LN2@vector:
  00009	8b 45 10	 mov	 eax, DWORD PTR ___n$[ebp]
  0000c	83 e8 01	 sub	 eax, 1
  0000f	89 45 10	 mov	 DWORD PTR ___n$[ebp], eax
  00012	78 11		 js	 SHORT $LN3@vector
  00014	8b 4d 08	 mov	 ecx, DWORD PTR ___t$[ebp]
  00017	ff 55 14	 call	 DWORD PTR ___f$[ebp]
  0001a	8b 45 08	 mov	 eax, DWORD PTR ___t$[ebp]
  0001d	03 45 0c	 add	 eax, DWORD PTR ___s$[ebp]
  00020	89 45 08	 mov	 DWORD PTR ___t$[ebp], eax
  00023	eb e4		 jmp	 SHORT $LN2@vector
$LN3@vector:
  00025	5f		 pop	 edi
  00026	5e		 pop	 esi
  00027	5b		 pop	 ebx
  00028	8b e5		 mov	 esp, ebp
  0002a	5d		 pop	 ebp
  0002b	c2 10 00	 ret	 16			; 00000010H
??_H@YGXPAXIHP6EPAX0@Z@Z ENDP				; `vector constructor iterator'
_TEXT	ENDS
PUBLIC	?Init@ExWinQuestSystem@@QAEXXZ			; ExWinQuestSystem::Init
PUBLIC	??0ExWinQuestSystem@@QAE@XZ			; ExWinQuestSystem::ExWinQuestSystem
; Function compile flags: /Odtp /ZI
; File d:\projects\exteam6.3\source\gameserver\gameserver\exwinquestsystem.cpp
_TEXT	SEGMENT
_this$ = -4						; size = 4
??0ExWinQuestSystem@@QAE@XZ PROC			; ExWinQuestSystem::ExWinQuestSystem
; _this$ = ecx

; 22   : {

  00000	55		 push	 ebp
  00001	8b ec		 mov	 ebp, esp
  00003	83 ec 44	 sub	 esp, 68			; 00000044H
  00006	53		 push	 ebx
  00007	56		 push	 esi
  00008	57		 push	 edi
  00009	89 4d fc	 mov	 DWORD PTR _this$[ebp], ecx

; 23   : 	this->Init();

  0000c	8b 4d fc	 mov	 ecx, DWORD PTR _this$[ebp]
  0000f	e8 00 00 00 00	 call	 ?Init@ExWinQuestSystem@@QAEXXZ ; ExWinQuestSystem::Init

; 24   : }

  00014	8b 45 fc	 mov	 eax, DWORD PTR _this$[ebp]
  00017	5f		 pop	 edi
  00018	5e		 pop	 esi
  00019	5b		 pop	 ebx
  0001a	8b e5		 mov	 esp, ebp
  0001c	5d		 pop	 ebp
  0001d	c3		 ret	 0
??0ExWinQuestSystem@@QAE@XZ ENDP			; ExWinQuestSystem::ExWinQuestSystem
_TEXT	ENDS
PUBLIC	??1ExWinQuestSystem@@QAE@XZ			; ExWinQuestSystem::~ExWinQuestSystem
; Function compile flags: /Odtp /ZI
_TEXT	SEGMENT
_this$ = -4						; size = 4
??1ExWinQuestSystem@@QAE@XZ PROC			; ExWinQuestSystem::~ExWinQuestSystem
; _this$ = ecx

; 28   : {

  00020	55		 push	 ebp
  00021	8b ec		 mov	 ebp, esp
  00023	83 ec 44	 sub	 esp, 68			; 00000044H
  00026	53		 push	 ebx
  00027	56		 push	 esi
  00028	57		 push	 edi
  00029	89 4d fc	 mov	 DWORD PTR _this$[ebp], ecx

; 29   : 	// ----
; 30   : }

  0002c	5f		 pop	 edi
  0002d	5e		 pop	 esi
  0002e	5b		 pop	 ebx
  0002f	8b e5		 mov	 esp, ebp
  00031	5d		 pop	 ebp
  00032	c3		 ret	 0
??1ExWinQuestSystem@@QAE@XZ ENDP			; ExWinQuestSystem::~ExWinQuestSystem
_TEXT	ENDS
EXTRN	_memset:PROC
; Function compile flags: /Odtp /ZI
_TEXT	SEGMENT
_this$ = -4						; size = 4
?Init@ExWinQuestSystem@@QAEXXZ PROC			; ExWinQuestSystem::Init
; _this$ = ecx

; 34   : {

  00040	55		 push	 ebp
  00041	8b ec		 mov	 ebp, esp
  00043	83 ec 44	 sub	 esp, 68			; 00000044H
  00046	53		 push	 ebx
  00047	56		 push	 esi
  00048	57		 push	 edi
  00049	89 4d fc	 mov	 DWORD PTR _this$[ebp], ecx

; 35   : 	ZeroMemory(&this->ewdata,sizeof(this->ewdata));

  0004c	68 40 48 0e 00	 push	 936000			; 000e4840H
  00051	6a 00		 push	 0
  00053	8b 45 fc	 mov	 eax, DWORD PTR _this$[ebp]
  00056	83 c0 14	 add	 eax, 20			; 00000014H
  00059	50		 push	 eax
  0005a	e8 00 00 00 00	 call	 _memset
  0005f	83 c4 0c	 add	 esp, 12			; 0000000cH

; 36   : 
; 37   : 	this->Enable = false;

  00062	8b 45 fc	 mov	 eax, DWORD PTR _this$[ebp]
  00065	c6 00 00	 mov	 BYTE PTR [eax], 0

; 38   : 	this->NPC_Class = 0;

  00068	8b 45 fc	 mov	 eax, DWORD PTR _this$[ebp]
  0006b	c7 40 04 00 00
	00 00		 mov	 DWORD PTR [eax+4], 0

; 39   : 	this->NPC_Map = 0;

  00072	8b 45 fc	 mov	 eax, DWORD PTR _this$[ebp]
  00075	c7 40 08 00 00
	00 00		 mov	 DWORD PTR [eax+8], 0

; 40   : 	this->NPC_X = 0;

  0007c	8b 45 fc	 mov	 eax, DWORD PTR _this$[ebp]
  0007f	c7 40 0c 00 00
	00 00		 mov	 DWORD PTR [eax+12], 0

; 41   : 	this->NPC_Y = 0;

  00086	8b 45 fc	 mov	 eax, DWORD PTR _this$[ebp]
  00089	c7 40 10 00 00
	00 00		 mov	 DWORD PTR [eax+16], 0

; 42   : 	this->iDropLoaded = 0;

  00090	8b 45 fc	 mov	 eax, DWORD PTR _this$[ebp]
  00093	c7 80 60 61 0e
	00 00 00 00 00	 mov	 DWORD PTR [eax+942432], 0

; 43   : }

  0009d	5f		 pop	 edi
  0009e	5e		 pop	 esi
  0009f	5b		 pop	 ebx
  000a0	8b e5		 mov	 esp, ebp
  000a2	5d		 pop	 ebp
  000a3	c3		 ret	 0
?Init@ExWinQuestSystem@@QAEXXZ ENDP			; ExWinQuestSystem::Init
_TEXT	ENDS
PUBLIC	?ReadDrop@ExWinQuestSystem@@QAEXPAD@Z		; ExWinQuestSystem::ReadDrop
PUBLIC	??_C@_0CF@ELDHHMJG@ExData?2ExWinQuest?2ExWinQuestDrop@ ; `string'
PUBLIC	?ReadQuest@ExWinQuestSystem@@QAEXHPAD@Z		; ExWinQuestSystem::ReadQuest
PUBLIC	??_C@_0CM@OJNBMMCK@ExData?2ExWinQuest?2ExWinQuestData@ ; `string'
PUBLIC	?Read@ExWinQuestSystem@@QAEXPAD@Z		; ExWinQuestSystem::Read
PUBLIC	??_C@_0CH@LMCDMDIE@ExData?2ExWinQuest?2ExWinQuestSyst@ ; `string'
PUBLIC	?Load@ExWinQuestSystem@@QAEXXZ			; ExWinQuestSystem::Load
EXTRN	?GetNewPath@CDirPath@@QAEPADPAD@Z:PROC		; CDirPath::GetNewPath
EXTRN	?gDirPath@@3VCDirPath@@A:BYTE			; gDirPath
;	COMDAT ??_C@_0CF@ELDHHMJG@ExData?2ExWinQuest?2ExWinQuestDrop@
CONST	SEGMENT
??_C@_0CF@ELDHHMJG@ExData?2ExWinQuest?2ExWinQuestDrop@ DB 'ExData\ExWinQu'
	DB	'est\ExWinQuestDrop.ini', 00H		; `string'
CONST	ENDS
;	COMDAT ??_C@_0CM@OJNBMMCK@ExData?2ExWinQuest?2ExWinQuestData@
CONST	SEGMENT
??_C@_0CM@OJNBMMCK@ExData?2ExWinQuest?2ExWinQuestData@ DB 'ExData\ExWinQu'
	DB	'est\ExWinQuestData_unique.ini', 00H		; `string'
CONST	ENDS
;	COMDAT ??_C@_0CH@LMCDMDIE@ExData?2ExWinQuest?2ExWinQuestSyst@
CONST	SEGMENT
??_C@_0CH@LMCDMDIE@ExData?2ExWinQuest?2ExWinQuestSyst@ DB 'ExData\ExWinQu'
	DB	'est\ExWinQuestSystem.ini', 00H		; `string'
; Function compile flags: /Odtp /ZI
CONST	ENDS
_TEXT	SEGMENT
_this$ = -4						; size = 4
?Load@ExWinQuestSystem@@QAEXXZ PROC			; ExWinQuestSystem::Load
; _this$ = ecx

; 47   : {

  000b0	55		 push	 ebp
  000b1	8b ec		 mov	 ebp, esp
  000b3	83 ec 44	 sub	 esp, 68			; 00000044H
  000b6	53		 push	 ebx
  000b7	56		 push	 esi
  000b8	57		 push	 edi
  000b9	89 4d fc	 mov	 DWORD PTR _this$[ebp], ecx

; 48   : 	this->Init();

  000bc	8b 4d fc	 mov	 ecx, DWORD PTR _this$[ebp]
  000bf	e8 00 00 00 00	 call	 ?Init@ExWinQuestSystem@@QAEXXZ ; ExWinQuestSystem::Init

; 49   : 
; 50   : 	//if(!g_ExLicense.user.CraftQuestSystem)
; 51   : 	//{
; 52   : 	//	return;
; 53   : 	//}
; 54   : 
; 55   : 	this->Read(gDirPath.GetNewPath("ExData\\ExWinQuest\\ExWinQuestSystem.ini"));

  000c4	68 00 00 00 00	 push	 OFFSET ??_C@_0CH@LMCDMDIE@ExData?2ExWinQuest?2ExWinQuestSyst@
  000c9	b9 00 00 00 00	 mov	 ecx, OFFSET ?gDirPath@@3VCDirPath@@A ; gDirPath
  000ce	e8 00 00 00 00	 call	 ?GetNewPath@CDirPath@@QAEPADPAD@Z ; CDirPath::GetNewPath
  000d3	50		 push	 eax
  000d4	8b 4d fc	 mov	 ecx, DWORD PTR _this$[ebp]
  000d7	e8 00 00 00 00	 call	 ?Read@ExWinQuestSystem@@QAEXPAD@Z ; ExWinQuestSystem::Read

; 56   : 	this->ReadQuest(0, gDirPath.GetNewPath("ExData\\ExWinQuest\\ExWinQuestData_unique.ini"));

  000dc	68 00 00 00 00	 push	 OFFSET ??_C@_0CM@OJNBMMCK@ExData?2ExWinQuest?2ExWinQuestData@
  000e1	b9 00 00 00 00	 mov	 ecx, OFFSET ?gDirPath@@3VCDirPath@@A ; gDirPath
  000e6	e8 00 00 00 00	 call	 ?GetNewPath@CDirPath@@QAEPADPAD@Z ; CDirPath::GetNewPath
  000eb	50		 push	 eax
  000ec	6a 00		 push	 0
  000ee	8b 4d fc	 mov	 ecx, DWORD PTR _this$[ebp]
  000f1	e8 00 00 00 00	 call	 ?ReadQuest@ExWinQuestSystem@@QAEXHPAD@Z ; ExWinQuestSystem::ReadQuest

; 57   : 	//this->ReadQuest(1, gDirPath.GetNewPath("ExData\\ExWinQuest\\ExWinQuestData_daily.ini"));
; 58   : 	//this->ReadQuest(2, gDirPath.GetNewPath("ExData\\ExWinQuest\\ExWinQuestData_3.ini"));
; 59   : 	this->ReadDrop(gDirPath.GetNewPath("ExData\\ExWinQuest\\ExWinQuestDrop.ini"));

  000f6	68 00 00 00 00	 push	 OFFSET ??_C@_0CF@ELDHHMJG@ExData?2ExWinQuest?2ExWinQuestDrop@
  000fb	b9 00 00 00 00	 mov	 ecx, OFFSET ?gDirPath@@3VCDirPath@@A ; gDirPath
  00100	e8 00 00 00 00	 call	 ?GetNewPath@CDirPath@@QAEPADPAD@Z ; CDirPath::GetNewPath
  00105	50		 push	 eax
  00106	8b 4d fc	 mov	 ecx, DWORD PTR _this$[ebp]
  00109	e8 00 00 00 00	 call	 ?ReadDrop@ExWinQuestSystem@@QAEXPAD@Z ; ExWinQuestSystem::ReadDrop

; 60   : }

  0010e	5f		 pop	 edi
  0010f	5e		 pop	 esi
  00110	5b		 pop	 ebx
  00111	8b e5		 mov	 esp, ebp
  00113	5d		 pop	 ebp
  00114	c3		 ret	 0
?Load@ExWinQuestSystem@@QAEXXZ ENDP			; ExWinQuestSystem::Load
_TEXT	ENDS
PUBLIC	??_C@_05MGEEICMI@NPC_Y?$AA@			; `string'
PUBLIC	??_C@_05NPFPLDIJ@NPC_X?$AA@			; `string'
PUBLIC	??_C@_07LJMEGBCH@NPC_Map?$AA@			; `string'
PUBLIC	??_C@_09JIOKDDGI@NPC_Class?$AA@			; `string'
PUBLIC	??_C@_06MLPMCPDE@ExTeam?$AA@			; `string'
PUBLIC	??_C@_06CKGENIKG@Enable?$AA@			; `string'
EXTRN	__imp__GetPrivateProfileIntA@16:PROC
;	COMDAT ??_C@_05MGEEICMI@NPC_Y?$AA@
CONST	SEGMENT
??_C@_05MGEEICMI@NPC_Y?$AA@ DB 'NPC_Y', 00H		; `string'
CONST	ENDS
;	COMDAT ??_C@_05NPFPLDIJ@NPC_X?$AA@
CONST	SEGMENT
??_C@_05NPFPLDIJ@NPC_X?$AA@ DB 'NPC_X', 00H		; `string'
CONST	ENDS
;	COMDAT ??_C@_07LJMEGBCH@NPC_Map?$AA@
CONST	SEGMENT
??_C@_07LJMEGBCH@NPC_Map?$AA@ DB 'NPC_Map', 00H		; `string'
CONST	ENDS
;	COMDAT ??_C@_09JIOKDDGI@NPC_Class?$AA@
CONST	SEGMENT
??_C@_09JIOKDDGI@NPC_Class?$AA@ DB 'NPC_Class', 00H	; `string'
CONST	ENDS
;	COMDAT ??_C@_06MLPMCPDE@ExTeam?$AA@
CONST	SEGMENT
??_C@_06MLPMCPDE@ExTeam?$AA@ DB 'ExTeam', 00H		; `string'
CONST	ENDS
;	COMDAT ??_C@_06CKGENIKG@Enable?$AA@
CONST	SEGMENT
??_C@_06CKGENIKG@Enable?$AA@ DB 'Enable', 00H		; `string'
; Function compile flags: /Odtp /ZI
CONST	ENDS
_TEXT	SEGMENT
_this$ = -4						; size = 4
_File$ = 8						; size = 4
?Read@ExWinQuestSystem@@QAEXPAD@Z PROC			; ExWinQuestSystem::Read
; _this$ = ecx

; 64   : {

  00120	55		 push	 ebp
  00121	8b ec		 mov	 ebp, esp
  00123	83 ec 44	 sub	 esp, 68			; 00000044H
  00126	53		 push	 ebx
  00127	56		 push	 esi
  00128	57		 push	 edi
  00129	89 4d fc	 mov	 DWORD PTR _this$[ebp], ecx

; 65   : 	this->Enable = GetPrivateProfileInt("ExTeam", "Enable", 0, File);

  0012c	8b 45 08	 mov	 eax, DWORD PTR _File$[ebp]
  0012f	50		 push	 eax
  00130	6a 00		 push	 0
  00132	68 00 00 00 00	 push	 OFFSET ??_C@_06CKGENIKG@Enable?$AA@
  00137	68 00 00 00 00	 push	 OFFSET ??_C@_06MLPMCPDE@ExTeam?$AA@
  0013c	ff 15 00 00 00
	00		 call	 DWORD PTR __imp__GetPrivateProfileIntA@16
  00142	85 c0		 test	 eax, eax
  00144	0f 95 c1	 setne	 cl
  00147	8b 55 fc	 mov	 edx, DWORD PTR _this$[ebp]
  0014a	88 0a		 mov	 BYTE PTR [edx], cl

; 66   : 	this->NPC_Class = GetPrivateProfileInt("ExTeam", "NPC_Class", 0, File);

  0014c	8b 45 08	 mov	 eax, DWORD PTR _File$[ebp]
  0014f	50		 push	 eax
  00150	6a 00		 push	 0
  00152	68 00 00 00 00	 push	 OFFSET ??_C@_09JIOKDDGI@NPC_Class?$AA@
  00157	68 00 00 00 00	 push	 OFFSET ??_C@_06MLPMCPDE@ExTeam?$AA@
  0015c	ff 15 00 00 00
	00		 call	 DWORD PTR __imp__GetPrivateProfileIntA@16
  00162	8b 4d fc	 mov	 ecx, DWORD PTR _this$[ebp]
  00165	89 41 04	 mov	 DWORD PTR [ecx+4], eax

; 67   : 	this->NPC_Map = GetPrivateProfileInt("ExTeam", "NPC_Map", 0, File);

  00168	8b 45 08	 mov	 eax, DWORD PTR _File$[ebp]
  0016b	50		 push	 eax
  0016c	6a 00		 push	 0
  0016e	68 00 00 00 00	 push	 OFFSET ??_C@_07LJMEGBCH@NPC_Map?$AA@
  00173	68 00 00 00 00	 push	 OFFSET ??_C@_06MLPMCPDE@ExTeam?$AA@
  00178	ff 15 00 00 00
	00		 call	 DWORD PTR __imp__GetPrivateProfileIntA@16
  0017e	8b 4d fc	 mov	 ecx, DWORD PTR _this$[ebp]
  00181	89 41 08	 mov	 DWORD PTR [ecx+8], eax

; 68   : 	this->NPC_X = GetPrivateProfileInt("ExTeam", "NPC_X", 0, File);

  00184	8b 45 08	 mov	 eax, DWORD PTR _File$[ebp]
  00187	50		 push	 eax
  00188	6a 00		 push	 0
  0018a	68 00 00 00 00	 push	 OFFSET ??_C@_05NPFPLDIJ@NPC_X?$AA@
  0018f	68 00 00 00 00	 push	 OFFSET ??_C@_06MLPMCPDE@ExTeam?$AA@
  00194	ff 15 00 00 00
	00		 call	 DWORD PTR __imp__GetPrivateProfileIntA@16
  0019a	8b 4d fc	 mov	 ecx, DWORD PTR _this$[ebp]
  0019d	89 41 0c	 mov	 DWORD PTR [ecx+12], eax

; 69   : 	this->NPC_Y = GetPrivateProfileInt("ExTeam", "NPC_Y", 0, File);

  001a0	8b 45 08	 mov	 eax, DWORD PTR _File$[ebp]
  001a3	50		 push	 eax
  001a4	6a 00		 push	 0
  001a6	68 00 00 00 00	 push	 OFFSET ??_C@_05MGEEICMI@NPC_Y?$AA@
  001ab	68 00 00 00 00	 push	 OFFSET ??_C@_06MLPMCPDE@ExTeam?$AA@
  001b0	ff 15 00 00 00
	00		 call	 DWORD PTR __imp__GetPrivateProfileIntA@16
  001b6	8b 4d fc	 mov	 ecx, DWORD PTR _this$[ebp]
  001b9	89 41 10	 mov	 DWORD PTR [ecx+16], eax

; 70   : }

  001bc	5f		 pop	 edi
  001bd	5e		 pop	 esi
  001be	5b		 pop	 ebx
  001bf	8b e5		 mov	 esp, ebp
  001c1	5d		 pop	 ebp
  001c2	c2 04 00	 ret	 4
?Read@ExWinQuestSystem@@QAEXPAD@Z ENDP			; ExWinQuestSystem::Read
_TEXT	ENDS
PUBLIC	??_C@_0DL@FANLEOEH@?$FLExWinQuestSystem?$FN?$FLReadQuestEx?$FN?5@ ; `string'
PUBLIC	??_C@_03JBJLGPFL@end?$AA@			; `string'
PUBLIC	??_C@_01KDCPPGHE@r?$AA@				; `string'
EXTRN	?LogAddTD@@3P6AXPADZZA:DWORD			; LogAddTD
EXTRN	_fclose:PROC
EXTRN	_strcmp:PROC
EXTRN	_strncpy:PROC
EXTRN	?MsgBox@@YAXPADZZ:PROC				; MsgBox
EXTRN	?Get@CMsg@@QAEPADH@Z:PROC			; CMsg::Get
EXTRN	?lMsg@@3VCMsg@@A:BYTE				; lMsg
EXTRN	_fopen:PROC
EXTRN	__ftol2_sse:PROC
_BSS	SEGMENT
_TokenString DB	064H DUP (?)
_TokenNumber DD	01H DUP (?)
_SMDFile DD	01H DUP (?)
_BSS	ENDS
;	COMDAT ??_C@_0DL@FANLEOEH@?$FLExWinQuestSystem?$FN?$FLReadQuestEx?$FN?5@
CONST	SEGMENT
??_C@_0DL@FANLEOEH@?$FLExWinQuestSystem?$FN?$FLReadQuestEx?$FN?5@ DB '[Ex'
	DB	'WinQuestSystem][ReadQuestEx] [%d] Item loaded from list', 00H ; `string'
CONST	ENDS
;	COMDAT ??_C@_03JBJLGPFL@end?$AA@
CONST	SEGMENT
??_C@_03JBJLGPFL@end?$AA@ DB 'end', 00H			; `string'
CONST	ENDS
;	COMDAT ??_C@_01KDCPPGHE@r?$AA@
CONST	SEGMENT
??_C@_01KDCPPGHE@r?$AA@ DB 'r', 00H			; `string'
; Function compile flags: /Odtp /ZI
CONST	ENDS
_TEXT	SEGMENT
_r$229005 = -20						; size = 4
_m$228996 = -16						; size = 4
_n$ = -12						; size = 4
_Token$ = -8						; size = 4
_this$ = -4						; size = 4
_a$ = 8							; size = 4
_File$ = 12						; size = 4
?ReadQuest@ExWinQuestSystem@@QAEXHPAD@Z PROC		; ExWinQuestSystem::ReadQuest
; _this$ = ecx

; 74   : {

  001d0	55		 push	 ebp
  001d1	8b ec		 mov	 ebp, esp
  001d3	83 ec 54	 sub	 esp, 84			; 00000054H
  001d6	53		 push	 ebx
  001d7	56		 push	 esi
  001d8	57		 push	 edi
  001d9	89 4d fc	 mov	 DWORD PTR _this$[ebp], ecx

; 75   : 	int Token;
; 76   : 
; 77   : 	SMDFile = fopen(File, "r");

  001dc	68 00 00 00 00	 push	 OFFSET ??_C@_01KDCPPGHE@r?$AA@
  001e1	8b 45 0c	 mov	 eax, DWORD PTR _File$[ebp]
  001e4	50		 push	 eax
  001e5	e8 00 00 00 00	 call	 _fopen
  001ea	83 c4 08	 add	 esp, 8
  001ed	a3 00 00 00 00	 mov	 DWORD PTR _SMDFile, eax

; 78   : 
; 79   : 	if( SMDFile == NULL )

  001f2	83 3d 00 00 00
	00 00		 cmp	 DWORD PTR _SMDFile, 0
  001f9	75 1e		 jne	 SHORT $LN19@ReadQuest

; 80   : 	{
; 81   : 		MsgBox(lMsg.Get(MSGGET(0, 112)), File);

  001fb	8b 45 0c	 mov	 eax, DWORD PTR _File$[ebp]
  001fe	50		 push	 eax
  001ff	6a 70		 push	 112			; 00000070H
  00201	b9 00 00 00 00	 mov	 ecx, OFFSET ?lMsg@@3VCMsg@@A ; lMsg
  00206	e8 00 00 00 00	 call	 ?Get@CMsg@@QAEPADH@Z	; CMsg::Get
  0020b	50		 push	 eax
  0020c	e8 00 00 00 00	 call	 ?MsgBox@@YAXPADZZ	; MsgBox
  00211	83 c4 08	 add	 esp, 8

; 82   : 		return;

  00214	e9 57 06 00 00	 jmp	 $LN20@ReadQuest
$LN19@ReadQuest:

; 83   : 	}
; 84   : 
; 85   : 	int n = 0;

  00219	c7 45 f4 00 00
	00 00		 mov	 DWORD PTR _n$[ebp], 0
$LN22@ReadQuest:

; 86   : 
; 87   : 	while(true) 

  00220	b8 01 00 00 00	 mov	 eax, 1
  00225	85 c0		 test	 eax, eax
  00227	0f 84 09 06 00
	00		 je	 $LN17@ReadQuest

; 88   : 	{
; 89   : 		Token = GetToken();

  0022d	e8 00 00 00 00	 call	 ?GetToken@@YA?AW4SMDToken@@XZ ; GetToken
  00232	89 45 f8	 mov	 DWORD PTR _Token$[ebp], eax

; 90   : 
; 91   : 		if( Token == END)

  00235	83 7d f8 02	 cmp	 DWORD PTR _Token$[ebp], 2
  00239	75 05		 jne	 SHORT $LN16@ReadQuest

; 92   : 		{
; 93   : 			break;

  0023b	e9 f6 05 00 00	 jmp	 $LN17@ReadQuest
$LN16@ReadQuest:

; 94   : 		}
; 95   : 
; 96   : 		if( Token != NUMBER )

  00240	83 7d f8 01	 cmp	 DWORD PTR _Token$[ebp], 1
  00244	74 02		 je	 SHORT $LN15@ReadQuest

; 97   : 		{
; 98   : 			continue;

  00246	eb d8		 jmp	 SHORT $LN22@ReadQuest
$LN15@ReadQuest:

; 99   : 		}
; 100  : 		
; 101  : 		this->ewdata[a][n].NeedLevel = TokenNumber;

  00248	d9 05 00 00 00
	00		 fld	 DWORD PTR _TokenNumber
  0024e	e8 00 00 00 00	 call	 __ftol2_sse
  00253	8b 4d 08	 mov	 ecx, DWORD PTR _a$[ebp]
  00256	69 c9 c0 c2 04
	00		 imul	 ecx, 312000		; 0004c2c0H
  0025c	8b 55 fc	 mov	 edx, DWORD PTR _this$[ebp]
  0025f	8d 4c 0a 14	 lea	 ecx, DWORD PTR [edx+ecx+20]
  00263	8b 55 f4	 mov	 edx, DWORD PTR _n$[ebp]
  00266	69 d2 38 01 00
	00		 imul	 edx, 312		; 00000138H
  0026c	89 44 11 1c	 mov	 DWORD PTR [ecx+edx+28], eax

; 102  : 
; 103  : 		Token = GetToken();

  00270	e8 00 00 00 00	 call	 ?GetToken@@YA?AW4SMDToken@@XZ ; GetToken
  00275	89 45 f8	 mov	 DWORD PTR _Token$[ebp], eax

; 104  : 		this->ewdata[a][n].NeedReset = TokenNumber;

  00278	d9 05 00 00 00
	00		 fld	 DWORD PTR _TokenNumber
  0027e	e8 00 00 00 00	 call	 __ftol2_sse
  00283	8b 4d 08	 mov	 ecx, DWORD PTR _a$[ebp]
  00286	69 c9 c0 c2 04
	00		 imul	 ecx, 312000		; 0004c2c0H
  0028c	8b 55 fc	 mov	 edx, DWORD PTR _this$[ebp]
  0028f	8d 4c 0a 14	 lea	 ecx, DWORD PTR [edx+ecx+20]
  00293	8b 55 f4	 mov	 edx, DWORD PTR _n$[ebp]
  00296	69 d2 38 01 00
	00		 imul	 edx, 312		; 00000138H
  0029c	89 44 11 20	 mov	 DWORD PTR [ecx+edx+32], eax

; 105  : 
; 106  : 		Token = GetToken();

  002a0	e8 00 00 00 00	 call	 ?GetToken@@YA?AW4SMDToken@@XZ ; GetToken
  002a5	89 45 f8	 mov	 DWORD PTR _Token$[ebp], eax

; 107  : 		this->ewdata[a][n].NeedGrand = TokenNumber;

  002a8	d9 05 00 00 00
	00		 fld	 DWORD PTR _TokenNumber
  002ae	e8 00 00 00 00	 call	 __ftol2_sse
  002b3	8b 4d 08	 mov	 ecx, DWORD PTR _a$[ebp]
  002b6	69 c9 c0 c2 04
	00		 imul	 ecx, 312000		; 0004c2c0H
  002bc	8b 55 fc	 mov	 edx, DWORD PTR _this$[ebp]
  002bf	8d 4c 0a 14	 lea	 ecx, DWORD PTR [edx+ecx+20]
  002c3	8b 55 f4	 mov	 edx, DWORD PTR _n$[ebp]
  002c6	69 d2 38 01 00
	00		 imul	 edx, 312		; 00000138H
  002cc	89 44 11 24	 mov	 DWORD PTR [ecx+edx+36], eax

; 108  : 
; 109  : 		Token = GetToken();

  002d0	e8 00 00 00 00	 call	 ?GetToken@@YA?AW4SMDToken@@XZ ; GetToken
  002d5	89 45 f8	 mov	 DWORD PTR _Token$[ebp], eax

; 110  : 		strncpy(this->ewdata[a][n].NameQuest, TokenString, 25);

  002d8	6a 19		 push	 25			; 00000019H
  002da	68 00 00 00 00	 push	 OFFSET _TokenString
  002df	8b 45 08	 mov	 eax, DWORD PTR _a$[ebp]
  002e2	69 c0 c0 c2 04
	00		 imul	 eax, 312000		; 0004c2c0H
  002e8	8b 4d fc	 mov	 ecx, DWORD PTR _this$[ebp]
  002eb	8d 54 01 14	 lea	 edx, DWORD PTR [ecx+eax+20]
  002ef	8b 45 f4	 mov	 eax, DWORD PTR _n$[ebp]
  002f2	69 c0 38 01 00
	00		 imul	 eax, 312		; 00000138H
  002f8	03 d0		 add	 edx, eax
  002fa	52		 push	 edx
  002fb	e8 00 00 00 00	 call	 _strncpy
  00300	83 c4 0c	 add	 esp, 12			; 0000000cH

; 111  : 
; 112  : 		Token = GetToken();

  00303	e8 00 00 00 00	 call	 ?GetToken@@YA?AW4SMDToken@@XZ ; GetToken
  00308	89 45 f8	 mov	 DWORD PTR _Token$[ebp], eax

; 113  : 		this->ewdata[a][n].AllowDW = (BOOL)TokenNumber;

  0030b	d9 05 00 00 00
	00		 fld	 DWORD PTR _TokenNumber
  00311	e8 00 00 00 00	 call	 __ftol2_sse
  00316	8b 4d 08	 mov	 ecx, DWORD PTR _a$[ebp]
  00319	69 c9 c0 c2 04
	00		 imul	 ecx, 312000		; 0004c2c0H
  0031f	8b 55 fc	 mov	 edx, DWORD PTR _this$[ebp]
  00322	8d 4c 0a 14	 lea	 ecx, DWORD PTR [edx+ecx+20]
  00326	8b 55 f4	 mov	 edx, DWORD PTR _n$[ebp]
  00329	69 d2 38 01 00
	00		 imul	 edx, 312		; 00000138H
  0032f	89 44 11 28	 mov	 DWORD PTR [ecx+edx+40], eax

; 114  : 
; 115  : 		Token = GetToken();

  00333	e8 00 00 00 00	 call	 ?GetToken@@YA?AW4SMDToken@@XZ ; GetToken
  00338	89 45 f8	 mov	 DWORD PTR _Token$[ebp], eax

; 116  : 		this->ewdata[a][n].AllowDK = (BOOL)TokenNumber;

  0033b	d9 05 00 00 00
	00		 fld	 DWORD PTR _TokenNumber
  00341	e8 00 00 00 00	 call	 __ftol2_sse
  00346	8b 4d 08	 mov	 ecx, DWORD PTR _a$[ebp]
  00349	69 c9 c0 c2 04
	00		 imul	 ecx, 312000		; 0004c2c0H
  0034f	8b 55 fc	 mov	 edx, DWORD PTR _this$[ebp]
  00352	8d 4c 0a 14	 lea	 ecx, DWORD PTR [edx+ecx+20]
  00356	8b 55 f4	 mov	 edx, DWORD PTR _n$[ebp]
  00359	69 d2 38 01 00
	00		 imul	 edx, 312		; 00000138H
  0035f	89 44 11 2c	 mov	 DWORD PTR [ecx+edx+44], eax

; 117  : 
; 118  : 		Token = GetToken();

  00363	e8 00 00 00 00	 call	 ?GetToken@@YA?AW4SMDToken@@XZ ; GetToken
  00368	89 45 f8	 mov	 DWORD PTR _Token$[ebp], eax

; 119  : 		this->ewdata[a][n].AllowELF = (BOOL)TokenNumber;

  0036b	d9 05 00 00 00
	00		 fld	 DWORD PTR _TokenNumber
  00371	e8 00 00 00 00	 call	 __ftol2_sse
  00376	8b 4d 08	 mov	 ecx, DWORD PTR _a$[ebp]
  00379	69 c9 c0 c2 04
	00		 imul	 ecx, 312000		; 0004c2c0H
  0037f	8b 55 fc	 mov	 edx, DWORD PTR _this$[ebp]
  00382	8d 4c 0a 14	 lea	 ecx, DWORD PTR [edx+ecx+20]
  00386	8b 55 f4	 mov	 edx, DWORD PTR _n$[ebp]
  00389	69 d2 38 01 00
	00		 imul	 edx, 312		; 00000138H
  0038f	89 44 11 30	 mov	 DWORD PTR [ecx+edx+48], eax

; 120  : 
; 121  : 		Token = GetToken();

  00393	e8 00 00 00 00	 call	 ?GetToken@@YA?AW4SMDToken@@XZ ; GetToken
  00398	89 45 f8	 mov	 DWORD PTR _Token$[ebp], eax

; 122  : 		this->ewdata[a][n].AllowSUM = (BOOL)TokenNumber;

  0039b	d9 05 00 00 00
	00		 fld	 DWORD PTR _TokenNumber
  003a1	e8 00 00 00 00	 call	 __ftol2_sse
  003a6	8b 4d 08	 mov	 ecx, DWORD PTR _a$[ebp]
  003a9	69 c9 c0 c2 04
	00		 imul	 ecx, 312000		; 0004c2c0H
  003af	8b 55 fc	 mov	 edx, DWORD PTR _this$[ebp]
  003b2	8d 4c 0a 14	 lea	 ecx, DWORD PTR [edx+ecx+20]
  003b6	8b 55 f4	 mov	 edx, DWORD PTR _n$[ebp]
  003b9	69 d2 38 01 00
	00		 imul	 edx, 312		; 00000138H
  003bf	89 44 11 34	 mov	 DWORD PTR [ecx+edx+52], eax

; 123  : 
; 124  : 		Token = GetToken();

  003c3	e8 00 00 00 00	 call	 ?GetToken@@YA?AW4SMDToken@@XZ ; GetToken
  003c8	89 45 f8	 mov	 DWORD PTR _Token$[ebp], eax

; 125  : 		this->ewdata[a][n].AllowMG = (BOOL)TokenNumber;

  003cb	d9 05 00 00 00
	00		 fld	 DWORD PTR _TokenNumber
  003d1	e8 00 00 00 00	 call	 __ftol2_sse
  003d6	8b 4d 08	 mov	 ecx, DWORD PTR _a$[ebp]
  003d9	69 c9 c0 c2 04
	00		 imul	 ecx, 312000		; 0004c2c0H
  003df	8b 55 fc	 mov	 edx, DWORD PTR _this$[ebp]
  003e2	8d 4c 0a 14	 lea	 ecx, DWORD PTR [edx+ecx+20]
  003e6	8b 55 f4	 mov	 edx, DWORD PTR _n$[ebp]
  003e9	69 d2 38 01 00
	00		 imul	 edx, 312		; 00000138H
  003ef	89 44 11 38	 mov	 DWORD PTR [ecx+edx+56], eax

; 126  : 
; 127  : 		Token = GetToken();

  003f3	e8 00 00 00 00	 call	 ?GetToken@@YA?AW4SMDToken@@XZ ; GetToken
  003f8	89 45 f8	 mov	 DWORD PTR _Token$[ebp], eax

; 128  : 		this->ewdata[a][n].AllowDL = (BOOL)TokenNumber;

  003fb	d9 05 00 00 00
	00		 fld	 DWORD PTR _TokenNumber
  00401	e8 00 00 00 00	 call	 __ftol2_sse
  00406	8b 4d 08	 mov	 ecx, DWORD PTR _a$[ebp]
  00409	69 c9 c0 c2 04
	00		 imul	 ecx, 312000		; 0004c2c0H
  0040f	8b 55 fc	 mov	 edx, DWORD PTR _this$[ebp]
  00412	8d 4c 0a 14	 lea	 ecx, DWORD PTR [edx+ecx+20]
  00416	8b 55 f4	 mov	 edx, DWORD PTR _n$[ebp]
  00419	69 d2 38 01 00
	00		 imul	 edx, 312		; 00000138H
  0041f	89 44 11 3c	 mov	 DWORD PTR [ecx+edx+60], eax

; 129  : 
; 130  : 		Token = GetToken();

  00423	e8 00 00 00 00	 call	 ?GetToken@@YA?AW4SMDToken@@XZ ; GetToken
  00428	89 45 f8	 mov	 DWORD PTR _Token$[ebp], eax

; 131  : 		this->ewdata[a][n].AllowRF = (BOOL)TokenNumber;

  0042b	d9 05 00 00 00
	00		 fld	 DWORD PTR _TokenNumber
  00431	e8 00 00 00 00	 call	 __ftol2_sse
  00436	8b 4d 08	 mov	 ecx, DWORD PTR _a$[ebp]
  00439	69 c9 c0 c2 04
	00		 imul	 ecx, 312000		; 0004c2c0H
  0043f	8b 55 fc	 mov	 edx, DWORD PTR _this$[ebp]
  00442	8d 4c 0a 14	 lea	 ecx, DWORD PTR [edx+ecx+20]
  00446	8b 55 f4	 mov	 edx, DWORD PTR _n$[ebp]
  00449	69 d2 38 01 00
	00		 imul	 edx, 312		; 00000138H
  0044f	89 44 11 40	 mov	 DWORD PTR [ecx+edx+64], eax

; 132  : 
; 133  : 		Token = GetToken();

  00453	e8 00 00 00 00	 call	 ?GetToken@@YA?AW4SMDToken@@XZ ; GetToken
  00458	89 45 f8	 mov	 DWORD PTR _Token$[ebp], eax

; 134  : 		this->ewdata[a][n].Map = (int)TokenNumber;

  0045b	d9 05 00 00 00
	00		 fld	 DWORD PTR _TokenNumber
  00461	e8 00 00 00 00	 call	 __ftol2_sse
  00466	8b 4d 08	 mov	 ecx, DWORD PTR _a$[ebp]
  00469	69 c9 c0 c2 04
	00		 imul	 ecx, 312000		; 0004c2c0H
  0046f	8b 55 fc	 mov	 edx, DWORD PTR _this$[ebp]
  00472	8d 4c 0a 14	 lea	 ecx, DWORD PTR [edx+ecx+20]
  00476	8b 55 f4	 mov	 edx, DWORD PTR _n$[ebp]
  00479	69 d2 38 01 00
	00		 imul	 edx, 312		; 00000138H
  0047f	89 44 11 44	 mov	 DWORD PTR [ecx+edx+68], eax

; 135  : 
; 136  : 		for(int m = 0; m < EW_MAX_MISSION; m++)

  00483	c7 45 f0 00 00
	00 00		 mov	 DWORD PTR _m$228996[ebp], 0
  0048a	eb 09		 jmp	 SHORT $LN14@ReadQuest
$LN13@ReadQuest:
  0048c	8b 45 f0	 mov	 eax, DWORD PTR _m$228996[ebp]
  0048f	83 c0 01	 add	 eax, 1
  00492	89 45 f0	 mov	 DWORD PTR _m$228996[ebp], eax
$LN14@ReadQuest:
  00495	83 7d f0 05	 cmp	 DWORD PTR _m$228996[ebp], 5
  00499	0f 8d 22 02 00
	00		 jge	 $LN12@ReadQuest

; 137  : 		{
; 138  : 			Token = GetToken();

  0049f	e8 00 00 00 00	 call	 ?GetToken@@YA?AW4SMDToken@@XZ ; GetToken
  004a4	89 45 f8	 mov	 DWORD PTR _Token$[ebp], eax

; 139  : 
; 140  : 			if (Token == END)

  004a7	83 7d f8 02	 cmp	 DWORD PTR _Token$[ebp], 2
  004ab	75 07		 jne	 SHORT $LN11@ReadQuest

; 141  : 			{
; 142  : 				break;

  004ad	e9 0f 02 00 00	 jmp	 $LN12@ReadQuest
  004b2	eb 21		 jmp	 SHORT $LN8@ReadQuest
$LN11@ReadQuest:

; 143  : 			}
; 144  : 			else if ( Token == 0 )

  004b4	83 7d f8 00	 cmp	 DWORD PTR _Token$[ebp], 0
  004b8	75 1b		 jne	 SHORT $LN8@ReadQuest

; 145  : 			{
; 146  : 				if ( strcmp("end", TokenString) == 0 )

  004ba	68 00 00 00 00	 push	 OFFSET _TokenString
  004bf	68 00 00 00 00	 push	 OFFSET ??_C@_03JBJLGPFL@end?$AA@
  004c4	e8 00 00 00 00	 call	 _strcmp
  004c9	83 c4 08	 add	 esp, 8
  004cc	85 c0		 test	 eax, eax
  004ce	75 05		 jne	 SHORT $LN8@ReadQuest

; 147  : 				{
; 148  : 					break;

  004d0	e9 ec 01 00 00	 jmp	 $LN12@ReadQuest
$LN8@ReadQuest:

; 149  : 				}
; 150  : 			}
; 151  : 
; 152  : 			this->ewdata[a][n].MissionType[m]		= TokenNumber;

  004d5	d9 05 00 00 00
	00		 fld	 DWORD PTR _TokenNumber
  004db	e8 00 00 00 00	 call	 __ftol2_sse
  004e0	8b 4d 08	 mov	 ecx, DWORD PTR _a$[ebp]
  004e3	69 c9 c0 c2 04
	00		 imul	 ecx, 312000		; 0004c2c0H
  004e9	8b 55 fc	 mov	 edx, DWORD PTR _this$[ebp]
  004ec	8d 4c 0a 14	 lea	 ecx, DWORD PTR [edx+ecx+20]
  004f0	8b 55 f4	 mov	 edx, DWORD PTR _n$[ebp]
  004f3	69 d2 38 01 00
	00		 imul	 edx, 312		; 00000138H
  004f9	03 ca		 add	 ecx, edx
  004fb	8b 55 f0	 mov	 edx, DWORD PTR _m$228996[ebp]
  004fe	89 44 91 48	 mov	 DWORD PTR [ecx+edx*4+72], eax

; 153  : 
; 154  : 			Token = GetToken();

  00502	e8 00 00 00 00	 call	 ?GetToken@@YA?AW4SMDToken@@XZ ; GetToken
  00507	89 45 f8	 mov	 DWORD PTR _Token$[ebp], eax

; 155  : 			this->ewdata[a][n].MissionID[m]			= TokenNumber;

  0050a	d9 05 00 00 00
	00		 fld	 DWORD PTR _TokenNumber
  00510	e8 00 00 00 00	 call	 __ftol2_sse
  00515	8b 4d 08	 mov	 ecx, DWORD PTR _a$[ebp]
  00518	69 c9 c0 c2 04
	00		 imul	 ecx, 312000		; 0004c2c0H
  0051e	8b 55 fc	 mov	 edx, DWORD PTR _this$[ebp]
  00521	8d 4c 0a 14	 lea	 ecx, DWORD PTR [edx+ecx+20]
  00525	8b 55 f4	 mov	 edx, DWORD PTR _n$[ebp]
  00528	69 d2 38 01 00
	00		 imul	 edx, 312		; 00000138H
  0052e	03 ca		 add	 ecx, edx
  00530	8b 55 f0	 mov	 edx, DWORD PTR _m$228996[ebp]
  00533	89 44 91 5c	 mov	 DWORD PTR [ecx+edx*4+92], eax

; 156  : 
; 157  : 			Token = GetToken();

  00537	e8 00 00 00 00	 call	 ?GetToken@@YA?AW4SMDToken@@XZ ; GetToken
  0053c	89 45 f8	 mov	 DWORD PTR _Token$[ebp], eax

; 158  : 			this->ewdata[a][n].MissionIndex[m]		= TokenNumber;

  0053f	d9 05 00 00 00
	00		 fld	 DWORD PTR _TokenNumber
  00545	e8 00 00 00 00	 call	 __ftol2_sse
  0054a	8b 4d 08	 mov	 ecx, DWORD PTR _a$[ebp]
  0054d	69 c9 c0 c2 04
	00		 imul	 ecx, 312000		; 0004c2c0H
  00553	8b 55 fc	 mov	 edx, DWORD PTR _this$[ebp]
  00556	8d 4c 0a 14	 lea	 ecx, DWORD PTR [edx+ecx+20]
  0055a	8b 55 f4	 mov	 edx, DWORD PTR _n$[ebp]
  0055d	69 d2 38 01 00
	00		 imul	 edx, 312		; 00000138H
  00563	03 ca		 add	 ecx, edx
  00565	8b 55 f0	 mov	 edx, DWORD PTR _m$228996[ebp]
  00568	89 44 91 70	 mov	 DWORD PTR [ecx+edx*4+112], eax

; 159  : 
; 160  : 			Token = GetToken();

  0056c	e8 00 00 00 00	 call	 ?GetToken@@YA?AW4SMDToken@@XZ ; GetToken
  00571	89 45 f8	 mov	 DWORD PTR _Token$[ebp], eax

; 161  : 			this->ewdata[a][n].MissionLevel[m]		= TokenNumber;

  00574	d9 05 00 00 00
	00		 fld	 DWORD PTR _TokenNumber
  0057a	e8 00 00 00 00	 call	 __ftol2_sse
  0057f	8b 4d 08	 mov	 ecx, DWORD PTR _a$[ebp]
  00582	69 c9 c0 c2 04
	00		 imul	 ecx, 312000		; 0004c2c0H
  00588	8b 55 fc	 mov	 edx, DWORD PTR _this$[ebp]
  0058b	8d 4c 0a 14	 lea	 ecx, DWORD PTR [edx+ecx+20]
  0058f	8b 55 f4	 mov	 edx, DWORD PTR _n$[ebp]
  00592	69 d2 38 01 00
	00		 imul	 edx, 312		; 00000138H
  00598	03 ca		 add	 ecx, edx
  0059a	8b 55 f0	 mov	 edx, DWORD PTR _m$228996[ebp]
  0059d	89 84 91 84 00
	00 00		 mov	 DWORD PTR [ecx+edx*4+132], eax

; 162  : 
; 163  : 			Token = GetToken();

  005a4	e8 00 00 00 00	 call	 ?GetToken@@YA?AW4SMDToken@@XZ ; GetToken
  005a9	89 45 f8	 mov	 DWORD PTR _Token$[ebp], eax

; 164  : 			this->ewdata[a][n].MissionLuck[m]		= TokenNumber;

  005ac	d9 05 00 00 00
	00		 fld	 DWORD PTR _TokenNumber
  005b2	e8 00 00 00 00	 call	 __ftol2_sse
  005b7	8b 4d 08	 mov	 ecx, DWORD PTR _a$[ebp]
  005ba	69 c9 c0 c2 04
	00		 imul	 ecx, 312000		; 0004c2c0H
  005c0	8b 55 fc	 mov	 edx, DWORD PTR _this$[ebp]
  005c3	8d 4c 0a 14	 lea	 ecx, DWORD PTR [edx+ecx+20]
  005c7	8b 55 f4	 mov	 edx, DWORD PTR _n$[ebp]
  005ca	69 d2 38 01 00
	00		 imul	 edx, 312		; 00000138H
  005d0	03 ca		 add	 ecx, edx
  005d2	8b 55 f0	 mov	 edx, DWORD PTR _m$228996[ebp]
  005d5	89 84 91 98 00
	00 00		 mov	 DWORD PTR [ecx+edx*4+152], eax

; 165  : 
; 166  : 			Token = GetToken();

  005dc	e8 00 00 00 00	 call	 ?GetToken@@YA?AW4SMDToken@@XZ ; GetToken
  005e1	89 45 f8	 mov	 DWORD PTR _Token$[ebp], eax

; 167  : 			this->ewdata[a][n].MissionOpt[m]		= TokenNumber;

  005e4	d9 05 00 00 00
	00		 fld	 DWORD PTR _TokenNumber
  005ea	e8 00 00 00 00	 call	 __ftol2_sse
  005ef	8b 4d 08	 mov	 ecx, DWORD PTR _a$[ebp]
  005f2	69 c9 c0 c2 04
	00		 imul	 ecx, 312000		; 0004c2c0H
  005f8	8b 55 fc	 mov	 edx, DWORD PTR _this$[ebp]
  005fb	8d 4c 0a 14	 lea	 ecx, DWORD PTR [edx+ecx+20]
  005ff	8b 55 f4	 mov	 edx, DWORD PTR _n$[ebp]
  00602	69 d2 38 01 00
	00		 imul	 edx, 312		; 00000138H
  00608	03 ca		 add	 ecx, edx
  0060a	8b 55 f0	 mov	 edx, DWORD PTR _m$228996[ebp]
  0060d	89 84 91 ac 00
	00 00		 mov	 DWORD PTR [ecx+edx*4+172], eax

; 168  : 
; 169  : 			Token = GetToken();

  00614	e8 00 00 00 00	 call	 ?GetToken@@YA?AW4SMDToken@@XZ ; GetToken
  00619	89 45 f8	 mov	 DWORD PTR _Token$[ebp], eax

; 170  : 			this->ewdata[a][n].MissionExl[m]		= TokenNumber;

  0061c	d9 05 00 00 00
	00		 fld	 DWORD PTR _TokenNumber
  00622	e8 00 00 00 00	 call	 __ftol2_sse
  00627	8b 4d 08	 mov	 ecx, DWORD PTR _a$[ebp]
  0062a	69 c9 c0 c2 04
	00		 imul	 ecx, 312000		; 0004c2c0H
  00630	8b 55 fc	 mov	 edx, DWORD PTR _this$[ebp]
  00633	8d 4c 0a 14	 lea	 ecx, DWORD PTR [edx+ecx+20]
  00637	8b 55 f4	 mov	 edx, DWORD PTR _n$[ebp]
  0063a	69 d2 38 01 00
	00		 imul	 edx, 312		; 00000138H
  00640	03 ca		 add	 ecx, edx
  00642	8b 55 f0	 mov	 edx, DWORD PTR _m$228996[ebp]
  00645	89 84 91 c0 00
	00 00		 mov	 DWORD PTR [ecx+edx*4+192], eax

; 171  : 
; 172  : 			Token = GetToken();

  0064c	e8 00 00 00 00	 call	 ?GetToken@@YA?AW4SMDToken@@XZ ; GetToken
  00651	89 45 f8	 mov	 DWORD PTR _Token$[ebp], eax

; 173  : 			this->ewdata[a][n].MissionProcent[m]	= TokenNumber;

  00654	d9 05 00 00 00
	00		 fld	 DWORD PTR _TokenNumber
  0065a	e8 00 00 00 00	 call	 __ftol2_sse
  0065f	8b 4d 08	 mov	 ecx, DWORD PTR _a$[ebp]
  00662	69 c9 c0 c2 04
	00		 imul	 ecx, 312000		; 0004c2c0H
  00668	8b 55 fc	 mov	 edx, DWORD PTR _this$[ebp]
  0066b	8d 4c 0a 14	 lea	 ecx, DWORD PTR [edx+ecx+20]
  0066f	8b 55 f4	 mov	 edx, DWORD PTR _n$[ebp]
  00672	69 d2 38 01 00
	00		 imul	 edx, 312		; 00000138H
  00678	03 ca		 add	 ecx, edx
  0067a	8b 55 f0	 mov	 edx, DWORD PTR _m$228996[ebp]
  0067d	89 84 91 e8 00
	00 00		 mov	 DWORD PTR [ecx+edx*4+232], eax

; 174  : 
; 175  : 			Token = GetToken();

  00684	e8 00 00 00 00	 call	 ?GetToken@@YA?AW4SMDToken@@XZ ; GetToken
  00689	89 45 f8	 mov	 DWORD PTR _Token$[ebp], eax

; 176  : 			this->ewdata[a][n].MissionCount[m]		= TokenNumber;

  0068c	d9 05 00 00 00
	00		 fld	 DWORD PTR _TokenNumber
  00692	e8 00 00 00 00	 call	 __ftol2_sse
  00697	8b 4d 08	 mov	 ecx, DWORD PTR _a$[ebp]
  0069a	69 c9 c0 c2 04
	00		 imul	 ecx, 312000		; 0004c2c0H
  006a0	8b 55 fc	 mov	 edx, DWORD PTR _this$[ebp]
  006a3	8d 4c 0a 14	 lea	 ecx, DWORD PTR [edx+ecx+20]
  006a7	8b 55 f4	 mov	 edx, DWORD PTR _n$[ebp]
  006aa	69 d2 38 01 00
	00		 imul	 edx, 312		; 00000138H
  006b0	03 ca		 add	 ecx, edx
  006b2	8b 55 f0	 mov	 edx, DWORD PTR _m$228996[ebp]
  006b5	89 84 91 d4 00
	00 00		 mov	 DWORD PTR [ecx+edx*4+212], eax

; 177  : 		}

  006bc	e9 cb fd ff ff	 jmp	 $LN13@ReadQuest
$LN12@ReadQuest:

; 178  : 
; 179  : 		for(int r = 0; r < EW_MAX_REWARD; r++)

  006c1	c7 45 ec 00 00
	00 00		 mov	 DWORD PTR _r$229005[ebp], 0
  006c8	eb 09		 jmp	 SHORT $LN7@ReadQuest
$LN6@ReadQuest:
  006ca	8b 45 ec	 mov	 eax, DWORD PTR _r$229005[ebp]
  006cd	83 c0 01	 add	 eax, 1
  006d0	89 45 ec	 mov	 DWORD PTR _r$229005[ebp], eax
$LN7@ReadQuest:
  006d3	83 7d ec 03	 cmp	 DWORD PTR _r$229005[ebp], 3
  006d7	0f 8d 4b 01 00
	00		 jge	 $LN5@ReadQuest

; 180  : 		{
; 181  : 			Token = GetToken();

  006dd	e8 00 00 00 00	 call	 ?GetToken@@YA?AW4SMDToken@@XZ ; GetToken
  006e2	89 45 f8	 mov	 DWORD PTR _Token$[ebp], eax

; 182  : 
; 183  : 			if (Token == END)

  006e5	83 7d f8 02	 cmp	 DWORD PTR _Token$[ebp], 2
  006e9	75 07		 jne	 SHORT $LN4@ReadQuest

; 184  : 			{
; 185  : 				break;

  006eb	e9 38 01 00 00	 jmp	 $LN5@ReadQuest
  006f0	eb 21		 jmp	 SHORT $LN1@ReadQuest
$LN4@ReadQuest:

; 186  : 			}
; 187  : 			else if ( Token == 0 )

  006f2	83 7d f8 00	 cmp	 DWORD PTR _Token$[ebp], 0
  006f6	75 1b		 jne	 SHORT $LN1@ReadQuest

; 188  : 			{
; 189  : 				if ( strcmp("end", TokenString) == 0 )

  006f8	68 00 00 00 00	 push	 OFFSET _TokenString
  006fd	68 00 00 00 00	 push	 OFFSET ??_C@_03JBJLGPFL@end?$AA@
  00702	e8 00 00 00 00	 call	 _strcmp
  00707	83 c4 08	 add	 esp, 8
  0070a	85 c0		 test	 eax, eax
  0070c	75 05		 jne	 SHORT $LN1@ReadQuest

; 190  : 				{
; 191  : 					break;

  0070e	e9 15 01 00 00	 jmp	 $LN5@ReadQuest
$LN1@ReadQuest:

; 192  : 				}
; 193  : 			}
; 194  : 
; 195  : 			this->ewdata[a][n].RewardType[r]		= TokenNumber;

  00713	d9 05 00 00 00
	00		 fld	 DWORD PTR _TokenNumber
  00719	e8 00 00 00 00	 call	 __ftol2_sse
  0071e	8b 4d 08	 mov	 ecx, DWORD PTR _a$[ebp]
  00721	69 c9 c0 c2 04
	00		 imul	 ecx, 312000		; 0004c2c0H
  00727	8b 55 fc	 mov	 edx, DWORD PTR _this$[ebp]
  0072a	8d 4c 0a 14	 lea	 ecx, DWORD PTR [edx+ecx+20]
  0072e	8b 55 f4	 mov	 edx, DWORD PTR _n$[ebp]
  00731	69 d2 38 01 00
	00		 imul	 edx, 312		; 00000138H
  00737	03 ca		 add	 ecx, edx
  00739	8b 55 ec	 mov	 edx, DWORD PTR _r$229005[ebp]
  0073c	89 84 91 fc 00
	00 00		 mov	 DWORD PTR [ecx+edx*4+252], eax

; 196  : 
; 197  : 			Token = GetToken();

  00743	e8 00 00 00 00	 call	 ?GetToken@@YA?AW4SMDToken@@XZ ; GetToken
  00748	89 45 f8	 mov	 DWORD PTR _Token$[ebp], eax

; 198  : 			this->ewdata[a][n].RewardItemType[r]	= TokenNumber;

  0074b	d9 05 00 00 00
	00		 fld	 DWORD PTR _TokenNumber
  00751	e8 00 00 00 00	 call	 __ftol2_sse
  00756	8b 4d 08	 mov	 ecx, DWORD PTR _a$[ebp]
  00759	69 c9 c0 c2 04
	00		 imul	 ecx, 312000		; 0004c2c0H
  0075f	8b 55 fc	 mov	 edx, DWORD PTR _this$[ebp]
  00762	8d 4c 0a 14	 lea	 ecx, DWORD PTR [edx+ecx+20]
  00766	8b 55 f4	 mov	 edx, DWORD PTR _n$[ebp]
  00769	69 d2 38 01 00
	00		 imul	 edx, 312		; 00000138H
  0076f	03 ca		 add	 ecx, edx
  00771	8b 55 ec	 mov	 edx, DWORD PTR _r$229005[ebp]
  00774	89 84 91 14 01
	00 00		 mov	 DWORD PTR [ecx+edx*4+276], eax

; 199  : 
; 200  : 			Token = GetToken();

  0077b	e8 00 00 00 00	 call	 ?GetToken@@YA?AW4SMDToken@@XZ ; GetToken
  00780	89 45 f8	 mov	 DWORD PTR _Token$[ebp], eax

; 201  : 			this->ewdata[a][n].RewardItemIndex[r]	= TokenNumber;

  00783	d9 05 00 00 00
	00		 fld	 DWORD PTR _TokenNumber
  00789	e8 00 00 00 00	 call	 __ftol2_sse
  0078e	8b 4d 08	 mov	 ecx, DWORD PTR _a$[ebp]
  00791	69 c9 c0 c2 04
	00		 imul	 ecx, 312000		; 0004c2c0H
  00797	8b 55 fc	 mov	 edx, DWORD PTR _this$[ebp]
  0079a	8d 4c 0a 14	 lea	 ecx, DWORD PTR [edx+ecx+20]
  0079e	8b 55 f4	 mov	 edx, DWORD PTR _n$[ebp]
  007a1	69 d2 38 01 00
	00		 imul	 edx, 312		; 00000138H
  007a7	03 ca		 add	 ecx, edx
  007a9	8b 55 ec	 mov	 edx, DWORD PTR _r$229005[ebp]
  007ac	89 84 91 20 01
	00 00		 mov	 DWORD PTR [ecx+edx*4+288], eax

; 202  : 
; 203  : 			Token = GetToken();

  007b3	e8 00 00 00 00	 call	 ?GetToken@@YA?AW4SMDToken@@XZ ; GetToken
  007b8	89 45 f8	 mov	 DWORD PTR _Token$[ebp], eax

; 204  : 			this->ewdata[a][n].RewardItemLevel[r]	= TokenNumber;

  007bb	d9 05 00 00 00
	00		 fld	 DWORD PTR _TokenNumber
  007c1	e8 00 00 00 00	 call	 __ftol2_sse
  007c6	8b 4d 08	 mov	 ecx, DWORD PTR _a$[ebp]
  007c9	69 c9 c0 c2 04
	00		 imul	 ecx, 312000		; 0004c2c0H
  007cf	8b 55 fc	 mov	 edx, DWORD PTR _this$[ebp]
  007d2	8d 4c 0a 14	 lea	 ecx, DWORD PTR [edx+ecx+20]
  007d6	8b 55 f4	 mov	 edx, DWORD PTR _n$[ebp]
  007d9	69 d2 38 01 00
	00		 imul	 edx, 312		; 00000138H
  007df	03 ca		 add	 ecx, edx
  007e1	8b 55 ec	 mov	 edx, DWORD PTR _r$229005[ebp]
  007e4	89 84 91 2c 01
	00 00		 mov	 DWORD PTR [ecx+edx*4+300], eax

; 205  : 
; 206  : 			Token = GetToken();

  007eb	e8 00 00 00 00	 call	 ?GetToken@@YA?AW4SMDToken@@XZ ; GetToken
  007f0	89 45 f8	 mov	 DWORD PTR _Token$[ebp], eax

; 207  : 			this->ewdata[a][n].RewardCount[r]		= TokenNumber;

  007f3	d9 05 00 00 00
	00		 fld	 DWORD PTR _TokenNumber
  007f9	e8 00 00 00 00	 call	 __ftol2_sse
  007fe	8b 4d 08	 mov	 ecx, DWORD PTR _a$[ebp]
  00801	69 c9 c0 c2 04
	00		 imul	 ecx, 312000		; 0004c2c0H
  00807	8b 55 fc	 mov	 edx, DWORD PTR _this$[ebp]
  0080a	8d 4c 0a 14	 lea	 ecx, DWORD PTR [edx+ecx+20]
  0080e	8b 55 f4	 mov	 edx, DWORD PTR _n$[ebp]
  00811	69 d2 38 01 00
	00		 imul	 edx, 312		; 00000138H
  00817	03 ca		 add	 ecx, edx
  00819	8b 55 ec	 mov	 edx, DWORD PTR _r$229005[ebp]
  0081c	89 84 91 08 01
	00 00		 mov	 DWORD PTR [ecx+edx*4+264], eax

; 208  : 		}

  00823	e9 a2 fe ff ff	 jmp	 $LN6@ReadQuest
$LN5@ReadQuest:

; 209  : 
; 210  : 		n++;

  00828	8b 45 f4	 mov	 eax, DWORD PTR _n$[ebp]
  0082b	83 c0 01	 add	 eax, 1
  0082e	89 45 f4	 mov	 DWORD PTR _n$[ebp], eax

; 211  : 	}

  00831	e9 ea f9 ff ff	 jmp	 $LN22@ReadQuest
$LN17@ReadQuest:

; 212  : 
; 213  : 	this->iLoaded[a] = n;

  00836	8b 45 08	 mov	 eax, DWORD PTR _a$[ebp]
  00839	8b 4d fc	 mov	 ecx, DWORD PTR _this$[ebp]
  0083c	8b 55 f4	 mov	 edx, DWORD PTR _n$[ebp]
  0083f	89 94 81 54 61
	0e 00		 mov	 DWORD PTR [ecx+eax*4+942420], edx

; 214  : 	fclose(SMDFile);	

  00846	a1 00 00 00 00	 mov	 eax, DWORD PTR _SMDFile
  0084b	50		 push	 eax
  0084c	e8 00 00 00 00	 call	 _fclose
  00851	83 c4 04	 add	 esp, 4

; 215  : 	LogAddTD("[ExWinQuestSystem][ReadQuestEx] [%d] Item loaded from list", this->iLoaded[a]);

  00854	8b 45 08	 mov	 eax, DWORD PTR _a$[ebp]
  00857	8b 4d fc	 mov	 ecx, DWORD PTR _this$[ebp]
  0085a	8b 94 81 54 61
	0e 00		 mov	 edx, DWORD PTR [ecx+eax*4+942420]
  00861	52		 push	 edx
  00862	68 00 00 00 00	 push	 OFFSET ??_C@_0DL@FANLEOEH@?$FLExWinQuestSystem?$FN?$FLReadQuestEx?$FN?5@
  00867	ff 15 00 00 00
	00		 call	 DWORD PTR ?LogAddTD@@3P6AXPADZZA ; LogAddTD
  0086d	83 c4 08	 add	 esp, 8
$LN20@ReadQuest:

; 216  : }

  00870	5f		 pop	 edi
  00871	5e		 pop	 esi
  00872	5b		 pop	 ebx
  00873	8b e5		 mov	 esp, ebp
  00875	5d		 pop	 ebp
  00876	c2 08 00	 ret	 8
?ReadQuest@ExWinQuestSystem@@QAEXHPAD@Z ENDP		; ExWinQuestSystem::ReadQuest
_TEXT	ENDS
PUBLIC	__$ArrayPad$
EXTRN	_isalnum:PROC
EXTRN	_isalpha:PROC
EXTRN	_atof:PROC
EXTRN	_isdigit:PROC
EXTRN	_getc:PROC
EXTRN	_ungetc:PROC
EXTRN	_isspace:PROC
EXTRN	_fgetc:PROC
EXTRN	___security_cookie:DWORD
EXTRN	__fltused:DWORD
EXTRN	@__security_check_cookie@4:PROC
_BSS	SEGMENT
_CurrentToken DD 01H DUP (?)
; Function compile flags: /Odtp /ZI
; File d:\projects\exteam6.3\source\gameserver\include\readscript.h
_BSS	ENDS
_TEXT	SEGMENT
tv90 = -180						; size = 4
_TempString$ = -112					; size = 100
_p$ = -12						; size = 4
_ch$ = -5						; size = 1
__$ArrayPad$ = -4					; size = 4
?GetToken@@YA?AW4SMDToken@@XZ PROC			; GetToken

; 24   : {

  00880	55		 push	 ebp
  00881	8b ec		 mov	 ebp, esp
  00883	81 ec b4 00 00
	00		 sub	 esp, 180		; 000000b4H
  00889	a1 00 00 00 00	 mov	 eax, DWORD PTR ___security_cookie
  0088e	33 c5		 xor	 eax, ebp
  00890	89 45 fc	 mov	 DWORD PTR __$ArrayPad$[ebp], eax
  00893	53		 push	 ebx
  00894	56		 push	 esi
  00895	57		 push	 edi

; 25   : 	char ch;
; 26   : 	char* p;
; 27   : 	char TempString[100];
; 28   : 
; 29   : 	TokenString[0]=0;

  00896	c6 05 00 00 00
	00 00		 mov	 BYTE PTR _TokenString, 0
$LN31@GetToken:

; 30   : 
; 31   : 	do
; 32   : 	{
; 33   : 		if ((ch=fgetc(SMDFile)) == -1)

  0089d	a1 00 00 00 00	 mov	 eax, DWORD PTR _SMDFile
  008a2	50		 push	 eax
  008a3	e8 00 00 00 00	 call	 _fgetc
  008a8	83 c4 04	 add	 esp, 4
  008ab	88 45 fb	 mov	 BYTE PTR _ch$[ebp], al
  008ae	0f be 4d fb	 movsx	 ecx, BYTE PTR _ch$[ebp]
  008b2	83 f9 ff	 cmp	 ecx, -1
  008b5	75 0c		 jne	 SHORT $LN28@GetToken

; 34   : 		{
; 35   : 			return END;	// End of FILE (EOF)

  008b7	b8 02 00 00 00	 mov	 eax, 2
  008bc	e9 f7 02 00 00	 jmp	 $LN32@GetToken

; 36   : 		}
; 37   : 		else

  008c1	eb 5b		 jmp	 SHORT $LN22@GetToken
$LN28@GetToken:

; 38   : 		{	
; 39   : 			if (ch=='/')		// this is /

  008c3	0f be 45 fb	 movsx	 eax, BYTE PTR _ch$[ebp]
  008c7	83 f8 2f	 cmp	 eax, 47			; 0000002fH
  008ca	75 52		 jne	 SHORT $LN22@GetToken

; 40   : 			{
; 41   : 				if((ch=fgetc(SMDFile)) == '/')

  008cc	a1 00 00 00 00	 mov	 eax, DWORD PTR _SMDFile
  008d1	50		 push	 eax
  008d2	e8 00 00 00 00	 call	 _fgetc
  008d7	83 c4 04	 add	 esp, 4
  008da	88 45 fb	 mov	 BYTE PTR _ch$[ebp], al
  008dd	0f be 4d fb	 movsx	 ecx, BYTE PTR _ch$[ebp]
  008e1	83 f9 2f	 cmp	 ecx, 47			; 0000002fH
  008e4	75 38		 jne	 SHORT $LN22@GetToken
$LN24@GetToken:

; 42   : 				{
; 43   : 					while ((ch != '\n') && (ch != -1))	// End of Line (EOL)

  008e6	0f be 45 fb	 movsx	 eax, BYTE PTR _ch$[ebp]
  008ea	83 f8 0a	 cmp	 eax, 10			; 0000000aH
  008ed	74 1c		 je	 SHORT $LN23@GetToken
  008ef	0f be 45 fb	 movsx	 eax, BYTE PTR _ch$[ebp]
  008f3	83 f8 ff	 cmp	 eax, -1
  008f6	74 13		 je	 SHORT $LN23@GetToken

; 44   : 					{
; 45   : 						ch=fgetc(SMDFile);

  008f8	a1 00 00 00 00	 mov	 eax, DWORD PTR _SMDFile
  008fd	50		 push	 eax
  008fe	e8 00 00 00 00	 call	 _fgetc
  00903	83 c4 04	 add	 esp, 4
  00906	88 45 fb	 mov	 BYTE PTR _ch$[ebp], al

; 46   : 					}

  00909	eb db		 jmp	 SHORT $LN24@GetToken
$LN23@GetToken:

; 47   : 	
; 48   : 					if (ch == -1)

  0090b	0f be 45 fb	 movsx	 eax, BYTE PTR _ch$[ebp]
  0090f	83 f8 ff	 cmp	 eax, -1
  00912	75 0a		 jne	 SHORT $LN22@GetToken

; 49   : 					{
; 50   : 						return END;	// End of FILE

  00914	b8 02 00 00 00	 mov	 eax, 2
  00919	e9 9a 02 00 00	 jmp	 $LN32@GetToken
$LN22@GetToken:

; 51   : 					}
; 52   : 				}
; 53   : 			}
; 54   : 		}
; 55   : 	}
; 56   : 	while (isspace(ch) != 0);

  0091e	0f be 45 fb	 movsx	 eax, BYTE PTR _ch$[ebp]
  00922	50		 push	 eax
  00923	e8 00 00 00 00	 call	 _isspace
  00928	83 c4 04	 add	 esp, 4
  0092b	85 c0		 test	 eax, eax
  0092d	0f 85 6a ff ff
	ff		 jne	 $LN31@GetToken

; 57   : 
; 58   : 	
; 59   : 	switch(ch)

  00933	0f be 45 fb	 movsx	 eax, BYTE PTR _ch$[ebp]
  00937	89 85 4c ff ff
	ff		 mov	 DWORD PTR tv90[ebp], eax
  0093d	8b 8d 4c ff ff
	ff		 mov	 ecx, DWORD PTR tv90[ebp]
  00943	83 e9 22	 sub	 ecx, 34			; 00000022H
  00946	89 8d 4c ff ff
	ff		 mov	 DWORD PTR tv90[ebp], ecx
  0094c	83 bd 4c ff ff
	ff 5b		 cmp	 DWORD PTR tv90[ebp], 91	; 0000005bH
  00953	0f 87 a3 01 00
	00		 ja	 $LN6@GetToken
  00959	8b 95 4c ff ff
	ff		 mov	 edx, DWORD PTR tv90[ebp]
  0095f	0f b6 82 00 00
	00 00		 movzx	 eax, BYTE PTR $LN34@GetToken[edx]
  00966	ff 24 85 00 00
	00 00		 jmp	 DWORD PTR $LN35@GetToken[eax*4]
$LN19@GetToken:

; 60   : 	{
; 61   : 
; 62   : 	case 0x23:	// #
; 63   : 		return CurrentToken=COMMAND;

  0096d	c7 05 00 00 00
	00 23 00 00 00	 mov	 DWORD PTR _CurrentToken, 35 ; 00000023H
  00977	a1 00 00 00 00	 mov	 eax, DWORD PTR _CurrentToken
  0097c	e9 37 02 00 00	 jmp	 $LN32@GetToken

; 64   : 		break;

  00981	e9 30 02 00 00	 jmp	 $LN20@GetToken
$LN18@GetToken:

; 65   : 	
; 66   : 	case 0x3B:	// ;
; 67   : 		return CurrentToken=SEMICOLON;

  00986	c7 05 00 00 00
	00 3b 00 00 00	 mov	 DWORD PTR _CurrentToken, 59 ; 0000003bH
  00990	a1 00 00 00 00	 mov	 eax, DWORD PTR _CurrentToken
  00995	e9 1e 02 00 00	 jmp	 $LN32@GetToken

; 68   : 		break;

  0099a	e9 17 02 00 00	 jmp	 $LN20@GetToken
$LN17@GetToken:

; 69   : 	
; 70   : 	case 0x2C:	// ,
; 71   : 
; 72   : 		return CurrentToken=COMMA;

  0099f	c7 05 00 00 00
	00 2c 00 00 00	 mov	 DWORD PTR _CurrentToken, 44 ; 0000002cH
  009a9	a1 00 00 00 00	 mov	 eax, DWORD PTR _CurrentToken
  009ae	e9 05 02 00 00	 jmp	 $LN32@GetToken

; 73   : 		break;

  009b3	e9 fe 01 00 00	 jmp	 $LN20@GetToken
$LN16@GetToken:

; 74   : 	
; 75   : 	case 0x7B:	// {
; 76   : 		return CurrentToken = LP;

  009b8	c7 05 00 00 00
	00 7b 00 00 00	 mov	 DWORD PTR _CurrentToken, 123 ; 0000007bH
  009c2	a1 00 00 00 00	 mov	 eax, DWORD PTR _CurrentToken
  009c7	e9 ec 01 00 00	 jmp	 $LN32@GetToken

; 77   : 		break;

  009cc	e9 e5 01 00 00	 jmp	 $LN20@GetToken
$LN15@GetToken:

; 78   : 
; 79   : 	case 0x7D:	// }
; 80   : 		return CurrentToken = RP;

  009d1	c7 05 00 00 00
	00 7d 00 00 00	 mov	 DWORD PTR _CurrentToken, 125 ; 0000007dH
  009db	a1 00 00 00 00	 mov	 eax, DWORD PTR _CurrentToken
  009e0	e9 d3 01 00 00	 jmp	 $LN32@GetToken

; 81   : 		break;

  009e5	e9 cc 01 00 00	 jmp	 $LN20@GetToken
$LN14@GetToken:

; 82   : 	// Nice Index Table :)	by Deathway
; 83   : 	// Numbers Case
; 84   : 	case 0x2D:	//-
; 85   : 	case 0x2E:	//.
; 86   : 	case '0':	//0
; 87   : 	case '1':	//1
; 88   : 	case '2':	//2
; 89   : 	case '3':	//3
; 90   : 	case '4':	//4		
; 91   : 	case '5':	//5
; 92   : 	case '6':	//6
; 93   : 	case '7':	//7
; 94   : 	case '8':	//8
; 95   : 	case '9':	//9
; 96   : 		ungetc(ch, SMDFile);

  009ea	a1 00 00 00 00	 mov	 eax, DWORD PTR _SMDFile
  009ef	50		 push	 eax
  009f0	0f be 4d fb	 movsx	 ecx, BYTE PTR _ch$[ebp]
  009f4	51		 push	 ecx
  009f5	e8 00 00 00 00	 call	 _ungetc
  009fa	83 c4 08	 add	 esp, 8

; 97   : 		p = TempString;

  009fd	8d 45 90	 lea	 eax, DWORD PTR _TempString$[ebp]
  00a00	89 45 f4	 mov	 DWORD PTR _p$[ebp], eax
$LN13@GetToken:

; 98   : 		
; 99   : 		while (((ch=getc(SMDFile)) != -1) && ((ch == 0x2E) || (isdigit(ch) != 0) || (ch == 0x2D)))  // 2e '.'  2D '-'

  00a03	a1 00 00 00 00	 mov	 eax, DWORD PTR _SMDFile
  00a08	50		 push	 eax
  00a09	e8 00 00 00 00	 call	 _getc
  00a0e	83 c4 04	 add	 esp, 4
  00a11	88 45 fb	 mov	 BYTE PTR _ch$[ebp], al
  00a14	0f be 4d fb	 movsx	 ecx, BYTE PTR _ch$[ebp]
  00a18	83 f9 ff	 cmp	 ecx, -1
  00a1b	74 36		 je	 SHORT $LN12@GetToken
  00a1d	0f be 45 fb	 movsx	 eax, BYTE PTR _ch$[ebp]
  00a21	83 f8 2e	 cmp	 eax, 46			; 0000002eH
  00a24	74 1a		 je	 SHORT $LN11@GetToken
  00a26	0f be 45 fb	 movsx	 eax, BYTE PTR _ch$[ebp]
  00a2a	50		 push	 eax
  00a2b	e8 00 00 00 00	 call	 _isdigit
  00a30	83 c4 04	 add	 esp, 4
  00a33	85 c0		 test	 eax, eax
  00a35	75 09		 jne	 SHORT $LN11@GetToken
  00a37	0f be 45 fb	 movsx	 eax, BYTE PTR _ch$[ebp]
  00a3b	83 f8 2d	 cmp	 eax, 45			; 0000002dH
  00a3e	75 13		 jne	 SHORT $LN12@GetToken
$LN11@GetToken:

; 100  : 		{
; 101  : 			*p = ch;	// Construct a String

  00a40	8b 45 f4	 mov	 eax, DWORD PTR _p$[ebp]
  00a43	8a 4d fb	 mov	 cl, BYTE PTR _ch$[ebp]
  00a46	88 08		 mov	 BYTE PTR [eax], cl

; 102  : 			p++;

  00a48	8b 45 f4	 mov	 eax, DWORD PTR _p$[ebp]
  00a4b	83 c0 01	 add	 eax, 1
  00a4e	89 45 f4	 mov	 DWORD PTR _p$[ebp], eax

; 103  : 		}		

  00a51	eb b0		 jmp	 SHORT $LN13@GetToken
$LN12@GetToken:

; 104  : 		*p = 0;

  00a53	8b 45 f4	 mov	 eax, DWORD PTR _p$[ebp]
  00a56	c6 00 00	 mov	 BYTE PTR [eax], 0

; 105  : 		TokenNumber = atof( TempString);	// Select the first Byte as Main ID

  00a59	8d 45 90	 lea	 eax, DWORD PTR _TempString$[ebp]
  00a5c	50		 push	 eax
  00a5d	e8 00 00 00 00	 call	 _atof
  00a62	83 c4 04	 add	 esp, 4
  00a65	d9 1d 00 00 00
	00		 fstp	 DWORD PTR _TokenNumber

; 106  : 		return CurrentToken  = NUMBER ;

  00a6b	c7 05 00 00 00
	00 01 00 00 00	 mov	 DWORD PTR _CurrentToken, 1
  00a75	a1 00 00 00 00	 mov	 eax, DWORD PTR _CurrentToken
  00a7a	e9 39 01 00 00	 jmp	 $LN32@GetToken

; 107  : 		break;

  00a7f	e9 32 01 00 00	 jmp	 $LN20@GetToken
$LN10@GetToken:

; 108  : 
; 109  : 	case '\"':	// "	String Case
; 110  : 		p=&TokenString[0];

  00a84	c7 45 f4 00 00
	00 00		 mov	 DWORD PTR _p$[ebp], OFFSET _TokenString
$LN9@GetToken:

; 111  : 		
; 112  : 		while (((ch=getc(SMDFile)) != -1 ) && (ch != 0x22))	// nice

  00a8b	a1 00 00 00 00	 mov	 eax, DWORD PTR _SMDFile
  00a90	50		 push	 eax
  00a91	e8 00 00 00 00	 call	 _getc
  00a96	83 c4 04	 add	 esp, 4
  00a99	88 45 fb	 mov	 BYTE PTR _ch$[ebp], al
  00a9c	0f be 4d fb	 movsx	 ecx, BYTE PTR _ch$[ebp]
  00aa0	83 f9 ff	 cmp	 ecx, -1
  00aa3	74 1c		 je	 SHORT $LN8@GetToken
  00aa5	0f be 45 fb	 movsx	 eax, BYTE PTR _ch$[ebp]
  00aa9	83 f8 22	 cmp	 eax, 34			; 00000022H
  00aac	74 13		 je	 SHORT $LN8@GetToken

; 113  : 		{
; 114  : 			*p = ch;

  00aae	8b 45 f4	 mov	 eax, DWORD PTR _p$[ebp]
  00ab1	8a 4d fb	 mov	 cl, BYTE PTR _ch$[ebp]
  00ab4	88 08		 mov	 BYTE PTR [eax], cl

; 115  : 			p++;

  00ab6	8b 45 f4	 mov	 eax, DWORD PTR _p$[ebp]
  00ab9	83 c0 01	 add	 eax, 1
  00abc	89 45 f4	 mov	 DWORD PTR _p$[ebp], eax

; 116  : 		}

  00abf	eb ca		 jmp	 SHORT $LN9@GetToken
$LN8@GetToken:

; 117  : 		if (ch != 0x22 )

  00ac1	0f be 45 fb	 movsx	 eax, BYTE PTR _ch$[ebp]
  00ac5	83 f8 22	 cmp	 eax, 34			; 00000022H
  00ac8	74 13		 je	 SHORT $LN7@GetToken

; 118  : 		{
; 119  : 			ungetc(ch, SMDFile);

  00aca	a1 00 00 00 00	 mov	 eax, DWORD PTR _SMDFile
  00acf	50		 push	 eax
  00ad0	0f be 4d fb	 movsx	 ecx, BYTE PTR _ch$[ebp]
  00ad4	51		 push	 ecx
  00ad5	e8 00 00 00 00	 call	 _ungetc
  00ada	83 c4 08	 add	 esp, 8
$LN7@GetToken:

; 120  : 		}
; 121  : 		*p = 0;

  00add	8b 45 f4	 mov	 eax, DWORD PTR _p$[ebp]
  00ae0	c6 00 00	 mov	 BYTE PTR [eax], 0

; 122  : 		return CurrentToken = NAME;

  00ae3	c7 05 00 00 00
	00 00 00 00 00	 mov	 DWORD PTR _CurrentToken, 0
  00aed	a1 00 00 00 00	 mov	 eax, DWORD PTR _CurrentToken
  00af2	e9 c1 00 00 00	 jmp	 $LN32@GetToken

; 123  : 		break;

  00af7	e9 ba 00 00 00	 jmp	 $LN20@GetToken
$LN6@GetToken:

; 124  : 
; 125  : 	default:	// Others
; 126  : 		if (isalpha(ch))

  00afc	0f be 45 fb	 movsx	 eax, BYTE PTR _ch$[ebp]
  00b00	50		 push	 eax
  00b01	e8 00 00 00 00	 call	 _isalpha
  00b06	83 c4 04	 add	 esp, 4
  00b09	85 c0		 test	 eax, eax
  00b0b	0f 84 94 00 00
	00		 je	 $LN5@GetToken

; 127  : 		{
; 128  : 			p=&TokenString[0];

  00b11	c7 45 f4 00 00
	00 00		 mov	 DWORD PTR _p$[ebp], OFFSET _TokenString

; 129  : 			*p=ch;

  00b18	8b 45 f4	 mov	 eax, DWORD PTR _p$[ebp]
  00b1b	8a 4d fb	 mov	 cl, BYTE PTR _ch$[ebp]
  00b1e	88 08		 mov	 BYTE PTR [eax], cl

; 130  : 			p++;

  00b20	8b 45 f4	 mov	 eax, DWORD PTR _p$[ebp]
  00b23	83 c0 01	 add	 eax, 1
  00b26	89 45 f4	 mov	 DWORD PTR _p$[ebp], eax
$LN4@GetToken:

; 131  : 
; 132  : 			while ( ((ch=getc(SMDFile)) != -1) && ( (ch == 0x2E) || (ch == 0x5F) || (isalnum(ch) != 0) ) )

  00b29	a1 00 00 00 00	 mov	 eax, DWORD PTR _SMDFile
  00b2e	50		 push	 eax
  00b2f	e8 00 00 00 00	 call	 _getc
  00b34	83 c4 04	 add	 esp, 4
  00b37	88 45 fb	 mov	 BYTE PTR _ch$[ebp], al
  00b3a	0f be 4d fb	 movsx	 ecx, BYTE PTR _ch$[ebp]
  00b3e	83 f9 ff	 cmp	 ecx, -1
  00b41	74 36		 je	 SHORT $LN3@GetToken
  00b43	0f be 45 fb	 movsx	 eax, BYTE PTR _ch$[ebp]
  00b47	83 f8 2e	 cmp	 eax, 46			; 0000002eH
  00b4a	74 1a		 je	 SHORT $LN2@GetToken
  00b4c	0f be 45 fb	 movsx	 eax, BYTE PTR _ch$[ebp]
  00b50	83 f8 5f	 cmp	 eax, 95			; 0000005fH
  00b53	74 11		 je	 SHORT $LN2@GetToken
  00b55	0f be 45 fb	 movsx	 eax, BYTE PTR _ch$[ebp]
  00b59	50		 push	 eax
  00b5a	e8 00 00 00 00	 call	 _isalnum
  00b5f	83 c4 04	 add	 esp, 4
  00b62	85 c0		 test	 eax, eax
  00b64	74 13		 je	 SHORT $LN3@GetToken
$LN2@GetToken:

; 133  : 			{
; 134  : 				*p=ch;

  00b66	8b 45 f4	 mov	 eax, DWORD PTR _p$[ebp]
  00b69	8a 4d fb	 mov	 cl, BYTE PTR _ch$[ebp]
  00b6c	88 08		 mov	 BYTE PTR [eax], cl

; 135  : 				p++;

  00b6e	8b 45 f4	 mov	 eax, DWORD PTR _p$[ebp]
  00b71	83 c0 01	 add	 eax, 1
  00b74	89 45 f4	 mov	 DWORD PTR _p$[ebp], eax

; 136  : 				
; 137  : 			}

  00b77	eb b0		 jmp	 SHORT $LN4@GetToken
$LN3@GetToken:

; 138  : 
; 139  : 			ungetc(ch, SMDFile);

  00b79	a1 00 00 00 00	 mov	 eax, DWORD PTR _SMDFile
  00b7e	50		 push	 eax
  00b7f	0f be 4d fb	 movsx	 ecx, BYTE PTR _ch$[ebp]
  00b83	51		 push	 ecx
  00b84	e8 00 00 00 00	 call	 _ungetc
  00b89	83 c4 08	 add	 esp, 8

; 140  : 			*p=0;

  00b8c	8b 45 f4	 mov	 eax, DWORD PTR _p$[ebp]
  00b8f	c6 00 00	 mov	 BYTE PTR [eax], 0

; 141  : 			CurrentToken=NAME;

  00b92	c7 05 00 00 00
	00 00 00 00 00	 mov	 DWORD PTR _CurrentToken, 0

; 142  : 			return CurrentToken;

  00b9c	a1 00 00 00 00	 mov	 eax, DWORD PTR _CurrentToken
  00ba1	eb 15		 jmp	 SHORT $LN32@GetToken

; 143  : 		}
; 144  : 		else

  00ba3	eb 11		 jmp	 SHORT $LN1@GetToken
$LN5@GetToken:

; 145  : 		{
; 146  : 			return CurrentToken = SMD_ERROR; // '<'

  00ba5	c7 05 00 00 00
	00 3c 00 00 00	 mov	 DWORD PTR _CurrentToken, 60 ; 0000003cH
  00baf	a1 00 00 00 00	 mov	 eax, DWORD PTR _CurrentToken
  00bb4	eb 02		 jmp	 SHORT $LN32@GetToken
$LN1@GetToken:
$LN20@GetToken:

; 147  : 		}
; 148  : 		break;
; 149  : 
; 150  : 	}
; 151  : 
; 152  : 	return NAME;

  00bb6	33 c0		 xor	 eax, eax
$LN32@GetToken:

; 153  : }

  00bb8	5f		 pop	 edi
  00bb9	5e		 pop	 esi
  00bba	5b		 pop	 ebx
  00bbb	8b 4d fc	 mov	 ecx, DWORD PTR __$ArrayPad$[ebp]
  00bbe	33 cd		 xor	 ecx, ebp
  00bc0	e8 00 00 00 00	 call	 @__security_check_cookie@4
  00bc5	8b e5		 mov	 esp, ebp
  00bc7	5d		 pop	 ebp
  00bc8	c3		 ret	 0
  00bc9	8d 49 00	 npad	 3
$LN35@GetToken:
  00bcc	00 00 00 00	 DD	 $LN10@GetToken
  00bd0	00 00 00 00	 DD	 $LN19@GetToken
  00bd4	00 00 00 00	 DD	 $LN17@GetToken
  00bd8	00 00 00 00	 DD	 $LN14@GetToken
  00bdc	00 00 00 00	 DD	 $LN18@GetToken
  00be0	00 00 00 00	 DD	 $LN16@GetToken
  00be4	00 00 00 00	 DD	 $LN15@GetToken
  00be8	00 00 00 00	 DD	 $LN6@GetToken
$LN34@GetToken:
  00bec	00		 DB	 0
  00bed	01		 DB	 1
  00bee	07		 DB	 7
  00bef	07		 DB	 7
  00bf0	07		 DB	 7
  00bf1	07		 DB	 7
  00bf2	07		 DB	 7
  00bf3	07		 DB	 7
  00bf4	07		 DB	 7
  00bf5	07		 DB	 7
  00bf6	02		 DB	 2
  00bf7	03		 DB	 3
  00bf8	03		 DB	 3
  00bf9	07		 DB	 7
  00bfa	03		 DB	 3
  00bfb	03		 DB	 3
  00bfc	03		 DB	 3
  00bfd	03		 DB	 3
  00bfe	03		 DB	 3
  00bff	03		 DB	 3
  00c00	03		 DB	 3
  00c01	03		 DB	 3
  00c02	03		 DB	 3
  00c03	03		 DB	 3
  00c04	07		 DB	 7
  00c05	04		 DB	 4
  00c06	07		 DB	 7
  00c07	07		 DB	 7
  00c08	07		 DB	 7
  00c09	07		 DB	 7
  00c0a	07		 DB	 7
  00c0b	07		 DB	 7
  00c0c	07		 DB	 7
  00c0d	07		 DB	 7
  00c0e	07		 DB	 7
  00c0f	07		 DB	 7
  00c10	07		 DB	 7
  00c11	07		 DB	 7
  00c12	07		 DB	 7
  00c13	07		 DB	 7
  00c14	07		 DB	 7
  00c15	07		 DB	 7
  00c16	07		 DB	 7
  00c17	07		 DB	 7
  00c18	07		 DB	 7
  00c19	07		 DB	 7
  00c1a	07		 DB	 7
  00c1b	07		 DB	 7
  00c1c	07		 DB	 7
  00c1d	07		 DB	 7
  00c1e	07		 DB	 7
  00c1f	07		 DB	 7
  00c20	07		 DB	 7
  00c21	07		 DB	 7
  00c22	07		 DB	 7
  00c23	07		 DB	 7
  00c24	07		 DB	 7
  00c25	07		 DB	 7
  00c26	07		 DB	 7
  00c27	07		 DB	 7
  00c28	07		 DB	 7
  00c29	07		 DB	 7
  00c2a	07		 DB	 7
  00c2b	07		 DB	 7
  00c2c	07		 DB	 7
  00c2d	07		 DB	 7
  00c2e	07		 DB	 7
  00c2f	07		 DB	 7
  00c30	07		 DB	 7
  00c31	07		 DB	 7
  00c32	07		 DB	 7
  00c33	07		 DB	 7
  00c34	07		 DB	 7
  00c35	07		 DB	 7
  00c36	07		 DB	 7
  00c37	07		 DB	 7
  00c38	07		 DB	 7
  00c39	07		 DB	 7
  00c3a	07		 DB	 7
  00c3b	07		 DB	 7
  00c3c	07		 DB	 7
  00c3d	07		 DB	 7
  00c3e	07		 DB	 7
  00c3f	07		 DB	 7
  00c40	07		 DB	 7
  00c41	07		 DB	 7
  00c42	07		 DB	 7
  00c43	07		 DB	 7
  00c44	07		 DB	 7
  00c45	05		 DB	 5
  00c46	07		 DB	 7
  00c47	06		 DB	 6
?GetToken@@YA?AW4SMDToken@@XZ ENDP			; GetToken
_TEXT	ENDS
PUBLIC	??_C@_0DI@ICACCBKE@?$FLExWinQuestSystem?$FN?$FLReadDrop?$FN?5?$FL?$CFd@ ; `string'
EXTRN	?LogAdd@@3P6AXPADZZA:DWORD			; LogAdd
;	COMDAT ??_C@_0DI@ICACCBKE@?$FLExWinQuestSystem?$FN?$FLReadDrop?$FN?5?$FL?$CFd@
; File d:\projects\exteam6.3\source\gameserver\gameserver\exwinquestsystem.cpp
CONST	SEGMENT
??_C@_0DI@ICACCBKE@?$FLExWinQuestSystem?$FN?$FLReadDrop?$FN?5?$FL?$CFd@ DB '['
	DB	'ExWinQuestSystem][ReadDrop] [%d] Item loaded from list', 00H ; `string'
; Function compile flags: /Odtp /ZI
CONST	ENDS
_TEXT	SEGMENT
_Token$229022 = -8					; size = 4
_this$ = -4						; size = 4
_File$ = 8						; size = 4
?ReadDrop@ExWinQuestSystem@@QAEXPAD@Z PROC		; ExWinQuestSystem::ReadDrop
; _this$ = ecx

; 220  : {

  00c50	55		 push	 ebp
  00c51	8b ec		 mov	 ebp, esp
  00c53	83 ec 48	 sub	 esp, 72			; 00000048H
  00c56	53		 push	 ebx
  00c57	56		 push	 esi
  00c58	57		 push	 edi
  00c59	89 4d fc	 mov	 DWORD PTR _this$[ebp], ecx

; 221  : 	SMDFile = fopen(File, "r");

  00c5c	68 00 00 00 00	 push	 OFFSET ??_C@_01KDCPPGHE@r?$AA@
  00c61	8b 45 08	 mov	 eax, DWORD PTR _File$[ebp]
  00c64	50		 push	 eax
  00c65	e8 00 00 00 00	 call	 _fopen
  00c6a	83 c4 08	 add	 esp, 8
  00c6d	a3 00 00 00 00	 mov	 DWORD PTR _SMDFile, eax

; 222  : 
; 223  : 	if( SMDFile == NULL )

  00c72	83 3d 00 00 00
	00 00		 cmp	 DWORD PTR _SMDFile, 0
  00c79	75 22		 jne	 SHORT $LN4@ReadDrop

; 224  : 	{
; 225  : 		LogAdd(lMsg.Get(MSGGET(1, 198)), File);

  00c7b	8b 45 08	 mov	 eax, DWORD PTR _File$[ebp]
  00c7e	50		 push	 eax
  00c7f	68 c6 01 00 00	 push	 454			; 000001c6H
  00c84	b9 00 00 00 00	 mov	 ecx, OFFSET ?lMsg@@3VCMsg@@A ; lMsg
  00c89	e8 00 00 00 00	 call	 ?Get@CMsg@@QAEPADH@Z	; CMsg::Get
  00c8e	50		 push	 eax
  00c8f	ff 15 00 00 00
	00		 call	 DWORD PTR ?LogAdd@@3P6AXPADZZA ; LogAdd
  00c95	83 c4 08	 add	 esp, 8

; 226  : 		return;

  00c98	e9 80 02 00 00	 jmp	 $LN5@ReadDrop
$LN4@ReadDrop:

; 227  : 	}
; 228  : 
; 229  : 	while(true)

  00c9d	b8 01 00 00 00	 mov	 eax, 1
  00ca2	85 c0		 test	 eax, eax
  00ca4	0f 84 4d 02 00
	00		 je	 $LN2@ReadDrop

; 230  : 	{
; 231  : 		SMDToken Token = GetToken();

  00caa	e8 00 00 00 00	 call	 ?GetToken@@YA?AW4SMDToken@@XZ ; GetToken
  00caf	89 45 f8	 mov	 DWORD PTR _Token$229022[ebp], eax

; 232  : 
; 233  : 		if( Token == END )

  00cb2	83 7d f8 02	 cmp	 DWORD PTR _Token$229022[ebp], 2
  00cb6	75 05		 jne	 SHORT $LN1@ReadDrop

; 234  : 		{
; 235  : 			break;

  00cb8	e9 3a 02 00 00	 jmp	 $LN2@ReadDrop
$LN1@ReadDrop:

; 236  : 		}
; 237  : 
; 238  : 		this->m_Drop[this->iDropLoaded].iAct				= TokenNumber;

  00cbd	d9 05 00 00 00
	00		 fld	 DWORD PTR _TokenNumber
  00cc3	e8 00 00 00 00	 call	 __ftol2_sse
  00cc8	8b 4d fc	 mov	 ecx, DWORD PTR _this$[ebp]
  00ccb	8b 91 60 61 0e
	00		 mov	 edx, DWORD PTR [ecx+942432]
  00cd1	c1 e2 06	 shl	 edx, 6
  00cd4	8b 4d fc	 mov	 ecx, DWORD PTR _this$[ebp]
  00cd7	89 84 11 54 48
	0e 00		 mov	 DWORD PTR [ecx+edx+936020], eax

; 239  : 
; 240  : 		GetToken();

  00cde	e8 00 00 00 00	 call	 ?GetToken@@YA?AW4SMDToken@@XZ ; GetToken

; 241  : 		this->m_Drop[this->iDropLoaded].iNeedQuest			= TokenNumber;

  00ce3	d9 05 00 00 00
	00		 fld	 DWORD PTR _TokenNumber
  00ce9	e8 00 00 00 00	 call	 __ftol2_sse
  00cee	8b 4d fc	 mov	 ecx, DWORD PTR _this$[ebp]
  00cf1	8b 91 60 61 0e
	00		 mov	 edx, DWORD PTR [ecx+942432]
  00cf7	c1 e2 06	 shl	 edx, 6
  00cfa	8b 4d fc	 mov	 ecx, DWORD PTR _this$[ebp]
  00cfd	89 84 11 58 48
	0e 00		 mov	 DWORD PTR [ecx+edx+936024], eax

; 242  : 
; 243  : 		GetToken();

  00d04	e8 00 00 00 00	 call	 ?GetToken@@YA?AW4SMDToken@@XZ ; GetToken

; 244  : 		this->m_Drop[this->iDropLoaded].ItemType			= TokenNumber;

  00d09	d9 05 00 00 00
	00		 fld	 DWORD PTR _TokenNumber
  00d0f	e8 00 00 00 00	 call	 __ftol2_sse
  00d14	8b 4d fc	 mov	 ecx, DWORD PTR _this$[ebp]
  00d17	8b 91 60 61 0e
	00		 mov	 edx, DWORD PTR [ecx+942432]
  00d1d	c1 e2 06	 shl	 edx, 6
  00d20	8b 4d fc	 mov	 ecx, DWORD PTR _this$[ebp]
  00d23	89 84 11 5c 48
	0e 00		 mov	 DWORD PTR [ecx+edx+936028], eax

; 245  : 
; 246  : 		GetToken();

  00d2a	e8 00 00 00 00	 call	 ?GetToken@@YA?AW4SMDToken@@XZ ; GetToken

; 247  : 		this->m_Drop[this->iDropLoaded].ItemIndex			= TokenNumber;

  00d2f	d9 05 00 00 00
	00		 fld	 DWORD PTR _TokenNumber
  00d35	e8 00 00 00 00	 call	 __ftol2_sse
  00d3a	8b 4d fc	 mov	 ecx, DWORD PTR _this$[ebp]
  00d3d	8b 91 60 61 0e
	00		 mov	 edx, DWORD PTR [ecx+942432]
  00d43	c1 e2 06	 shl	 edx, 6
  00d46	8b 4d fc	 mov	 ecx, DWORD PTR _this$[ebp]
  00d49	89 84 11 60 48
	0e 00		 mov	 DWORD PTR [ecx+edx+936032], eax

; 248  : 
; 249  : 		GetToken();

  00d50	e8 00 00 00 00	 call	 ?GetToken@@YA?AW4SMDToken@@XZ ; GetToken

; 250  : 		this->m_Drop[this->iDropLoaded].ItemMinLevel		= TokenNumber;

  00d55	d9 05 00 00 00
	00		 fld	 DWORD PTR _TokenNumber
  00d5b	e8 00 00 00 00	 call	 __ftol2_sse
  00d60	8b 4d fc	 mov	 ecx, DWORD PTR _this$[ebp]
  00d63	8b 91 60 61 0e
	00		 mov	 edx, DWORD PTR [ecx+942432]
  00d69	c1 e2 06	 shl	 edx, 6
  00d6c	8b 4d fc	 mov	 ecx, DWORD PTR _this$[ebp]
  00d6f	89 84 11 64 48
	0e 00		 mov	 DWORD PTR [ecx+edx+936036], eax

; 251  : 
; 252  : 		GetToken();

  00d76	e8 00 00 00 00	 call	 ?GetToken@@YA?AW4SMDToken@@XZ ; GetToken

; 253  : 		this->m_Drop[this->iDropLoaded].ItemMaxLevel		= TokenNumber;

  00d7b	d9 05 00 00 00
	00		 fld	 DWORD PTR _TokenNumber
  00d81	e8 00 00 00 00	 call	 __ftol2_sse
  00d86	8b 4d fc	 mov	 ecx, DWORD PTR _this$[ebp]
  00d89	8b 91 60 61 0e
	00		 mov	 edx, DWORD PTR [ecx+942432]
  00d8f	c1 e2 06	 shl	 edx, 6
  00d92	8b 4d fc	 mov	 ecx, DWORD PTR _this$[ebp]
  00d95	89 84 11 68 48
	0e 00		 mov	 DWORD PTR [ecx+edx+936040], eax

; 254  : 
; 255  : 		GetToken();

  00d9c	e8 00 00 00 00	 call	 ?GetToken@@YA?AW4SMDToken@@XZ ; GetToken

; 256  : 		this->m_Drop[this->iDropLoaded].ItemMaxOption		= TokenNumber;

  00da1	d9 05 00 00 00
	00		 fld	 DWORD PTR _TokenNumber
  00da7	e8 00 00 00 00	 call	 __ftol2_sse
  00dac	8b 4d fc	 mov	 ecx, DWORD PTR _this$[ebp]
  00daf	8b 91 60 61 0e
	00		 mov	 edx, DWORD PTR [ecx+942432]
  00db5	c1 e2 06	 shl	 edx, 6
  00db8	8b 4d fc	 mov	 ecx, DWORD PTR _this$[ebp]
  00dbb	89 84 11 6c 48
	0e 00		 mov	 DWORD PTR [ecx+edx+936044], eax

; 257  : 
; 258  : 		GetToken();

  00dc2	e8 00 00 00 00	 call	 ?GetToken@@YA?AW4SMDToken@@XZ ; GetToken

; 259  : 		this->m_Drop[this->iDropLoaded].ItemLuck			= TokenNumber;

  00dc7	d9 05 00 00 00
	00		 fld	 DWORD PTR _TokenNumber
  00dcd	e8 00 00 00 00	 call	 __ftol2_sse
  00dd2	8b 4d fc	 mov	 ecx, DWORD PTR _this$[ebp]
  00dd5	8b 91 60 61 0e
	00		 mov	 edx, DWORD PTR [ecx+942432]
  00ddb	c1 e2 06	 shl	 edx, 6
  00dde	8b 4d fc	 mov	 ecx, DWORD PTR _this$[ebp]
  00de1	89 84 11 70 48
	0e 00		 mov	 DWORD PTR [ecx+edx+936048], eax

; 260  : 
; 261  : 		GetToken();

  00de8	e8 00 00 00 00	 call	 ?GetToken@@YA?AW4SMDToken@@XZ ; GetToken

; 262  : 		this->m_Drop[this->iDropLoaded].ItemSkill			= TokenNumber;

  00ded	d9 05 00 00 00
	00		 fld	 DWORD PTR _TokenNumber
  00df3	e8 00 00 00 00	 call	 __ftol2_sse
  00df8	8b 4d fc	 mov	 ecx, DWORD PTR _this$[ebp]
  00dfb	8b 91 60 61 0e
	00		 mov	 edx, DWORD PTR [ecx+942432]
  00e01	c1 e2 06	 shl	 edx, 6
  00e04	8b 4d fc	 mov	 ecx, DWORD PTR _this$[ebp]
  00e07	89 84 11 74 48
	0e 00		 mov	 DWORD PTR [ecx+edx+936052], eax

; 263  : 
; 264  : 		GetToken();

  00e0e	e8 00 00 00 00	 call	 ?GetToken@@YA?AW4SMDToken@@XZ ; GetToken

; 265  : 		this->m_Drop[this->iDropLoaded].ItemExcellent		= TokenNumber;

  00e13	d9 05 00 00 00
	00		 fld	 DWORD PTR _TokenNumber
  00e19	e8 00 00 00 00	 call	 __ftol2_sse
  00e1e	8b 4d fc	 mov	 ecx, DWORD PTR _this$[ebp]
  00e21	8b 91 60 61 0e
	00		 mov	 edx, DWORD PTR [ecx+942432]
  00e27	c1 e2 06	 shl	 edx, 6
  00e2a	8b 4d fc	 mov	 ecx, DWORD PTR _this$[ebp]
  00e2d	89 84 11 78 48
	0e 00		 mov	 DWORD PTR [ecx+edx+936056], eax

; 266  : 
; 267  : 		GetToken();

  00e34	e8 00 00 00 00	 call	 ?GetToken@@YA?AW4SMDToken@@XZ ; GetToken

; 268  : 		this->m_Drop[this->iDropLoaded].ItemDur				= TokenNumber;

  00e39	d9 05 00 00 00
	00		 fld	 DWORD PTR _TokenNumber
  00e3f	e8 00 00 00 00	 call	 __ftol2_sse
  00e44	8b 4d fc	 mov	 ecx, DWORD PTR _this$[ebp]
  00e47	8b 91 60 61 0e
	00		 mov	 edx, DWORD PTR [ecx+942432]
  00e4d	c1 e2 06	 shl	 edx, 6
  00e50	8b 4d fc	 mov	 ecx, DWORD PTR _this$[ebp]
  00e53	89 84 11 80 48
	0e 00		 mov	 DWORD PTR [ecx+edx+936064], eax

; 269  : 
; 270  : 		GetToken();

  00e5a	e8 00 00 00 00	 call	 ?GetToken@@YA?AW4SMDToken@@XZ ; GetToken

; 271  : 		this->m_Drop[this->iDropLoaded].ItemDropRate		= TokenNumber;

  00e5f	d9 05 00 00 00
	00		 fld	 DWORD PTR _TokenNumber
  00e65	e8 00 00 00 00	 call	 __ftol2_sse
  00e6a	8b 4d fc	 mov	 ecx, DWORD PTR _this$[ebp]
  00e6d	8b 91 60 61 0e
	00		 mov	 edx, DWORD PTR [ecx+942432]
  00e73	c1 e2 06	 shl	 edx, 6
  00e76	8b 4d fc	 mov	 ecx, DWORD PTR _this$[ebp]
  00e79	89 84 11 84 48
	0e 00		 mov	 DWORD PTR [ecx+edx+936068], eax

; 272  : 
; 273  : 		GetToken();

  00e80	e8 00 00 00 00	 call	 ?GetToken@@YA?AW4SMDToken@@XZ ; GetToken

; 274  : 		this->m_Drop[this->iDropLoaded].MonsterMinLevel		= TokenNumber;

  00e85	d9 05 00 00 00
	00		 fld	 DWORD PTR _TokenNumber
  00e8b	e8 00 00 00 00	 call	 __ftol2_sse
  00e90	8b 4d fc	 mov	 ecx, DWORD PTR _this$[ebp]
  00e93	8b 91 60 61 0e
	00		 mov	 edx, DWORD PTR [ecx+942432]
  00e99	c1 e2 06	 shl	 edx, 6
  00e9c	8b 4d fc	 mov	 ecx, DWORD PTR _this$[ebp]
  00e9f	89 84 11 88 48
	0e 00		 mov	 DWORD PTR [ecx+edx+936072], eax

; 275  : 
; 276  : 		GetToken();

  00ea6	e8 00 00 00 00	 call	 ?GetToken@@YA?AW4SMDToken@@XZ ; GetToken

; 277  : 		this->m_Drop[this->iDropLoaded].MonsterMaxLevel		= TokenNumber;

  00eab	d9 05 00 00 00
	00		 fld	 DWORD PTR _TokenNumber
  00eb1	e8 00 00 00 00	 call	 __ftol2_sse
  00eb6	8b 4d fc	 mov	 ecx, DWORD PTR _this$[ebp]
  00eb9	8b 91 60 61 0e
	00		 mov	 edx, DWORD PTR [ecx+942432]
  00ebf	c1 e2 06	 shl	 edx, 6
  00ec2	8b 4d fc	 mov	 ecx, DWORD PTR _this$[ebp]
  00ec5	89 84 11 8c 48
	0e 00		 mov	 DWORD PTR [ecx+edx+936076], eax

; 278  : 
; 279  : 		GetToken();

  00ecc	e8 00 00 00 00	 call	 ?GetToken@@YA?AW4SMDToken@@XZ ; GetToken

; 280  : 		this->m_Drop[this->iDropLoaded].MonsterMap			= TokenNumber;

  00ed1	d9 05 00 00 00
	00		 fld	 DWORD PTR _TokenNumber
  00ed7	e8 00 00 00 00	 call	 __ftol2_sse
  00edc	8b 4d fc	 mov	 ecx, DWORD PTR _this$[ebp]
  00edf	8b 91 60 61 0e
	00		 mov	 edx, DWORD PTR [ecx+942432]
  00ee5	c1 e2 06	 shl	 edx, 6
  00ee8	8b 4d fc	 mov	 ecx, DWORD PTR _this$[ebp]
  00eeb	89 84 11 90 48
	0e 00		 mov	 DWORD PTR [ecx+edx+936080], eax

; 281  : 	}

  00ef2	e9 a6 fd ff ff	 jmp	 $LN4@ReadDrop
$LN2@ReadDrop:

; 282  : 	// ----
; 283  : 	fclose(SMDFile);

  00ef7	a1 00 00 00 00	 mov	 eax, DWORD PTR _SMDFile
  00efc	50		 push	 eax
  00efd	e8 00 00 00 00	 call	 _fclose
  00f02	83 c4 04	 add	 esp, 4

; 284  : 	LogAddTD("[ExWinQuestSystem][ReadDrop] [%d] Item loaded from list", this->iDropLoaded);

  00f05	8b 45 fc	 mov	 eax, DWORD PTR _this$[ebp]
  00f08	8b 88 60 61 0e
	00		 mov	 ecx, DWORD PTR [eax+942432]
  00f0e	51		 push	 ecx
  00f0f	68 00 00 00 00	 push	 OFFSET ??_C@_0DI@ICACCBKE@?$FLExWinQuestSystem?$FN?$FLReadDrop?$FN?5?$FL?$CFd@
  00f14	ff 15 00 00 00
	00		 call	 DWORD PTR ?LogAddTD@@3P6AXPADZZA ; LogAddTD
  00f1a	83 c4 08	 add	 esp, 8
$LN5@ReadDrop:

; 285  : }

  00f1d	5f		 pop	 edi
  00f1e	5e		 pop	 esi
  00f1f	5b		 pop	 ebx
  00f20	8b e5		 mov	 esp, ebp
  00f22	5d		 pop	 ebp
  00f23	c2 04 00	 ret	 4
?ReadDrop@ExWinQuestSystem@@QAEXPAD@Z ENDP		; ExWinQuestSystem::ReadDrop
_TEXT	ENDS
PUBLIC	?GC_OpenWindow@ExWinQuestSystem@@QAEXH@Z	; ExWinQuestSystem::GC_OpenWindow
PUBLIC	?Dialog@ExWinQuestSystem@@QAE_NHH@Z		; ExWinQuestSystem::Dialog
EXTRN	?gObj@@3PAUOBJECTSTRUCT@@A:DWORD		; gObj
EXTRN	?gObjIsConnectedEx@@YA_NH@Z:PROC		; gObjIsConnectedEx
; Function compile flags: /Odtp /ZI
_TEXT	SEGMENT
_lpNpc$ = -12						; size = 4
_lpUser$ = -8						; size = 4
_this$ = -4						; size = 4
_aIndex$ = 8						; size = 4
_aNpcIndex$ = 12					; size = 4
?Dialog@ExWinQuestSystem@@QAE_NHH@Z PROC		; ExWinQuestSystem::Dialog
; _this$ = ecx

; 289  : {

  00f30	55		 push	 ebp
  00f31	8b ec		 mov	 ebp, esp
  00f33	83 ec 4c	 sub	 esp, 76			; 0000004cH
  00f36	53		 push	 ebx
  00f37	56		 push	 esi
  00f38	57		 push	 edi
  00f39	89 4d fc	 mov	 DWORD PTR _this$[ebp], ecx

; 290  : 	if(!this->Enable)

  00f3c	8b 45 fc	 mov	 eax, DWORD PTR _this$[ebp]
  00f3f	0f b6 08	 movzx	 ecx, BYTE PTR [eax]
  00f42	85 c9		 test	 ecx, ecx
  00f44	75 07		 jne	 SHORT $LN3@Dialog

; 291  : 	{
; 292  :  		return false;

  00f46	32 c0		 xor	 al, al
  00f48	e9 95 00 00 00	 jmp	 $LN4@Dialog
$LN3@Dialog:

; 293  : 	}
; 294  : 
; 295  : 	if(!gObjIsConnectedEx(aIndex))

  00f4d	8b 45 08	 mov	 eax, DWORD PTR _aIndex$[ebp]
  00f50	50		 push	 eax
  00f51	e8 00 00 00 00	 call	 ?gObjIsConnectedEx@@YA_NH@Z ; gObjIsConnectedEx
  00f56	83 c4 04	 add	 esp, 4
  00f59	0f b6 c8	 movzx	 ecx, al
  00f5c	85 c9		 test	 ecx, ecx
  00f5e	75 04		 jne	 SHORT $LN2@Dialog

; 296  : 	{
; 297  : 		return false;

  00f60	32 c0		 xor	 al, al
  00f62	eb 7e		 jmp	 SHORT $LN4@Dialog
$LN2@Dialog:

; 298  : 	}
; 299  : 
; 300  : 	LPOBJ lpUser = &gObj[aIndex];

  00f64	8b 45 08	 mov	 eax, DWORD PTR _aIndex$[ebp]
  00f67	69 c0 38 2b 00
	00		 imul	 eax, 11064		; 00002b38H
  00f6d	03 05 00 00 00
	00		 add	 eax, DWORD PTR ?gObj@@3PAUOBJECTSTRUCT@@A ; gObj
  00f73	89 45 f8	 mov	 DWORD PTR _lpUser$[ebp], eax

; 301  : 	LPOBJ lpNpc = &gObj[aNpcIndex];

  00f76	8b 45 0c	 mov	 eax, DWORD PTR _aNpcIndex$[ebp]
  00f79	69 c0 38 2b 00
	00		 imul	 eax, 11064		; 00002b38H
  00f7f	03 05 00 00 00
	00		 add	 eax, DWORD PTR ?gObj@@3PAUOBJECTSTRUCT@@A ; gObj
  00f85	89 45 f4	 mov	 DWORD PTR _lpNpc$[ebp], eax

; 302  : 
; 303  : 	if(		lpNpc->Class		== this->NPC_Class 
; 304  : 		&&	lpNpc->MapNumber	== this->NPC_Map
; 305  : 		&&	lpNpc->X			== this->NPC_X
; 306  : 		&&	lpNpc->Y			== this->NPC_Y )

  00f88	8b 45 f4	 mov	 eax, DWORD PTR _lpNpc$[ebp]
  00f8b	0f b7 88 b8 00
	00 00		 movzx	 ecx, WORD PTR [eax+184]
  00f92	8b 55 fc	 mov	 edx, DWORD PTR _this$[ebp]
  00f95	3b 4a 04	 cmp	 ecx, DWORD PTR [edx+4]
  00f98	75 46		 jne	 SHORT $LN1@Dialog
  00f9a	8b 45 f4	 mov	 eax, DWORD PTR _lpNpc$[ebp]
  00f9d	0f b6 88 49 01
	00 00		 movzx	 ecx, BYTE PTR [eax+329]
  00fa4	8b 55 fc	 mov	 edx, DWORD PTR _this$[ebp]
  00fa7	3b 4a 08	 cmp	 ecx, DWORD PTR [edx+8]
  00faa	75 34		 jne	 SHORT $LN1@Dialog
  00fac	8b 45 f4	 mov	 eax, DWORD PTR _lpNpc$[ebp]
  00faf	0f bf 88 44 01
	00 00		 movsx	 ecx, WORD PTR [eax+324]
  00fb6	8b 55 fc	 mov	 edx, DWORD PTR _this$[ebp]
  00fb9	3b 4a 0c	 cmp	 ecx, DWORD PTR [edx+12]
  00fbc	75 22		 jne	 SHORT $LN1@Dialog
  00fbe	8b 45 f4	 mov	 eax, DWORD PTR _lpNpc$[ebp]
  00fc1	0f bf 88 46 01
	00 00		 movsx	 ecx, WORD PTR [eax+326]
  00fc8	8b 55 fc	 mov	 edx, DWORD PTR _this$[ebp]
  00fcb	3b 4a 10	 cmp	 ecx, DWORD PTR [edx+16]
  00fce	75 10		 jne	 SHORT $LN1@Dialog

; 307  : 	{
; 308  : 
; 309  : 		this->GC_OpenWindow(aIndex);

  00fd0	8b 45 08	 mov	 eax, DWORD PTR _aIndex$[ebp]
  00fd3	50		 push	 eax
  00fd4	8b 4d fc	 mov	 ecx, DWORD PTR _this$[ebp]
  00fd7	e8 00 00 00 00	 call	 ?GC_OpenWindow@ExWinQuestSystem@@QAEXH@Z ; ExWinQuestSystem::GC_OpenWindow

; 310  : 		return true;

  00fdc	b0 01		 mov	 al, 1
  00fde	eb 02		 jmp	 SHORT $LN4@Dialog
$LN1@Dialog:

; 311  : 	}
; 312  : 	// ----
; 313  : 	return false;

  00fe0	32 c0		 xor	 al, al
$LN4@Dialog:

; 314  : }

  00fe2	5f		 pop	 edi
  00fe3	5e		 pop	 esi
  00fe4	5b		 pop	 ebx
  00fe5	8b e5		 mov	 esp, ebp
  00fe7	5d		 pop	 ebp
  00fe8	c2 08 00	 ret	 8
?Dialog@ExWinQuestSystem@@QAE_NHH@Z ENDP		; ExWinQuestSystem::Dialog
_TEXT	ENDS
PUBLIC	?SearchItem@ExWinQuestSystem@@QAE_NHHH@Z	; ExWinQuestSystem::SearchItem
PUBLIC	?set@PWMSG_HEAD2@@QAEXPAEEEH@Z			; PWMSG_HEAD2::set
PUBLIC	__$ArrayPad$
PUBLIC	?GC_MainInfo@ExWinQuestSystem@@QAEXH@Z		; ExWinQuestSystem::GC_MainInfo
EXTRN	?DataSend@@YAHHPAEK@Z:PROC			; DataSend
; Function compile flags: /Odtp /ZI
_TEXT	SEGMENT
_r$229095 = -540					; size = 4
_m$229085 = -536					; size = 4
_m$229075 = -532					; size = 4
_i$229069 = -528					; size = 4
_b_mission$229068 = -524				; size = 5
_sb_grand$229067 = -513					; size = 1
_sb_reset$229066 = -512					; size = 1
_sb_level$229065 = -511					; size = 1
_sb_done$229064 = -510					; size = 1
_sb_accept$229063 = -509				; size = 1
_a$229059 = -508					; size = 4
_pReq$ = -504						; size = 488
_n$ = -16						; size = 4
_lpUser$ = -12						; size = 4
_this$ = -8						; size = 4
__$ArrayPad$ = -4					; size = 4
_aIndex$ = 8						; size = 4
?GC_MainInfo@ExWinQuestSystem@@QAEXH@Z PROC		; ExWinQuestSystem::GC_MainInfo
; _this$ = ecx

; 318  : {

  00ff0	55		 push	 ebp
  00ff1	8b ec		 mov	 ebp, esp
  00ff3	81 ec 5c 02 00
	00		 sub	 esp, 604		; 0000025cH
  00ff9	a1 00 00 00 00	 mov	 eax, DWORD PTR ___security_cookie
  00ffe	33 c5		 xor	 eax, ebp
  01000	89 45 fc	 mov	 DWORD PTR __$ArrayPad$[ebp], eax
  01003	53		 push	 ebx
  01004	56		 push	 esi
  01005	57		 push	 edi
  01006	89 4d f8	 mov	 DWORD PTR _this$[ebp], ecx

; 319  : 	LPOBJ lpUser = &gObj[aIndex];

  01009	8b 45 08	 mov	 eax, DWORD PTR _aIndex$[ebp]
  0100c	69 c0 38 2b 00
	00		 imul	 eax, 11064		; 00002b38H
  01012	03 05 00 00 00
	00		 add	 eax, DWORD PTR ?gObj@@3PAUOBJECTSTRUCT@@A ; gObj
  01018	89 45 f4	 mov	 DWORD PTR _lpUser$[ebp], eax

; 320  : 
; 321  : 	int n = 0;

  0101b	c7 45 f0 00 00
	00 00		 mov	 DWORD PTR _n$[ebp], 0

; 322  : 
; 323  : 	GC_MainPacket pReq;
; 324  : 	pReq.h.set((LPBYTE)&pReq, 0xFA, 0xCC, sizeof(pReq));

  01022	68 e8 01 00 00	 push	 488			; 000001e8H
  01027	68 cc 00 00 00	 push	 204			; 000000ccH
  0102c	68 fa 00 00 00	 push	 250			; 000000faH
  01031	8d 85 08 fe ff
	ff		 lea	 eax, DWORD PTR _pReq$[ebp]
  01037	50		 push	 eax
  01038	8d 8d 08 fe ff
	ff		 lea	 ecx, DWORD PTR _pReq$[ebp]
  0103e	e8 00 00 00 00	 call	 ?set@PWMSG_HEAD2@@QAEXPAEEEH@Z ; PWMSG_HEAD2::set

; 325  : 
; 326  : 	for(int a = 0; a < EW_MAX_ACT; a++)

  01043	c7 85 04 fe ff
	ff 00 00 00 00	 mov	 DWORD PTR _a$229059[ebp], 0
  0104d	eb 0f		 jmp	 SHORT $LN32@GC_MainInf
$LN31@GC_MainInf:
  0104f	8b 85 04 fe ff
	ff		 mov	 eax, DWORD PTR _a$229059[ebp]
  01055	83 c0 01	 add	 eax, 1
  01058	89 85 04 fe ff
	ff		 mov	 DWORD PTR _a$229059[ebp], eax
$LN32@GC_MainInf:
  0105e	83 bd 04 fe ff
	ff 03		 cmp	 DWORD PTR _a$229059[ebp], 3
  01065	0f 8d 26 0a 00
	00		 jge	 $LN30@GC_MainInf

; 327  : 	{
; 328  : 		bool sb_accept = true;

  0106b	c6 85 03 fe ff
	ff 01		 mov	 BYTE PTR _sb_accept$229063[ebp], 1

; 329  : 		bool sb_done = true;

  01072	c6 85 02 fe ff
	ff 01		 mov	 BYTE PTR _sb_done$229064[ebp], 1

; 330  : 
; 331  : 		bool sb_level = true;

  01079	c6 85 01 fe ff
	ff 01		 mov	 BYTE PTR _sb_level$229065[ebp], 1

; 332  : 		bool sb_reset = true;

  01080	c6 85 00 fe ff
	ff 01		 mov	 BYTE PTR _sb_reset$229066[ebp], 1

; 333  : 		bool sb_grand = true;

  01087	c6 85 ff fd ff
	ff 01		 mov	 BYTE PTR _sb_grand$229067[ebp], 1

; 334  : 
; 335  : 		bool b_mission[EW_MAX_MISSION];
; 336  : 
; 337  : 		for(int i = 0; i < EW_MAX_MISSION; i++)

  0108e	c7 85 f0 fd ff
	ff 00 00 00 00	 mov	 DWORD PTR _i$229069[ebp], 0
  01098	eb 0f		 jmp	 SHORT $LN29@GC_MainInf
$LN28@GC_MainInf:
  0109a	8b 85 f0 fd ff
	ff		 mov	 eax, DWORD PTR _i$229069[ebp]
  010a0	83 c0 01	 add	 eax, 1
  010a3	89 85 f0 fd ff
	ff		 mov	 DWORD PTR _i$229069[ebp], eax
$LN29@GC_MainInf:
  010a9	83 bd f0 fd ff
	ff 05		 cmp	 DWORD PTR _i$229069[ebp], 5
  010b0	7d 10		 jge	 SHORT $LN27@GC_MainInf

; 338  : 		{
; 339  : 			b_mission[i] = true;

  010b2	8b 85 f0 fd ff
	ff		 mov	 eax, DWORD PTR _i$229069[ebp]
  010b8	c6 84 05 f4 fd
	ff ff 01	 mov	 BYTE PTR _b_mission$229068[ebp+eax], 1

; 340  : 		}

  010c0	eb d8		 jmp	 SHORT $LN28@GC_MainInf
$LN27@GC_MainInf:

; 341  : 
; 342  : 		n = lpUser->ExWQuestNum[a];

  010c2	8b 85 04 fe ff
	ff		 mov	 eax, DWORD PTR _a$229059[ebp]
  010c8	8b 4d f4	 mov	 ecx, DWORD PTR _lpUser$[ebp]
  010cb	0f b7 94 41 f0
	2a 00 00	 movzx	 edx, WORD PTR [ecx+eax*2+10992]
  010d3	89 55 f0	 mov	 DWORD PTR _n$[ebp], edx

; 343  : 
; 344  : 		if(n >= this->iLoaded[a])

  010d6	8b 85 04 fe ff
	ff		 mov	 eax, DWORD PTR _a$229059[ebp]
  010dc	8b 4d f8	 mov	 ecx, DWORD PTR _this$[ebp]
  010df	8b 55 f0	 mov	 edx, DWORD PTR _n$[ebp]
  010e2	3b 94 81 54 61
	0e 00		 cmp	 edx, DWORD PTR [ecx+eax*4+942420]
  010e9	7c 16		 jl	 SHORT $LN26@GC_MainInf

; 345  : 		{
; 346  : 			pReq.exQuest[a].b_End = true;

  010eb	8b 85 04 fe ff
	ff		 mov	 eax, DWORD PTR _a$229059[ebp]
  010f1	69 c0 a0 00 00
	00		 imul	 eax, 160		; 000000a0H
  010f7	c6 84 05 2b fe
	ff ff 01	 mov	 BYTE PTR _pReq$[ebp+eax+35], 1

; 347  : 		}
; 348  : 		else

  010ff	eb 14		 jmp	 SHORT $LN25@GC_MainInf
$LN26@GC_MainInf:

; 349  : 		{
; 350  : 			pReq.exQuest[a].b_End = false;

  01101	8b 85 04 fe ff
	ff		 mov	 eax, DWORD PTR _a$229059[ebp]
  01107	69 c0 a0 00 00
	00		 imul	 eax, 160		; 000000a0H
  0110d	c6 84 05 2b fe
	ff ff 00	 mov	 BYTE PTR _pReq$[ebp+eax+35], 0
$LN25@GC_MainInf:

; 351  : 		}
; 352  : 		// -> user send
; 353  : 		strncpy(pReq.exQuest[a].NameQuest, this->ewdata[a][n].NameQuest, 25);

  01115	6a 19		 push	 25			; 00000019H
  01117	8b 85 04 fe ff
	ff		 mov	 eax, DWORD PTR _a$229059[ebp]
  0111d	69 c0 c0 c2 04
	00		 imul	 eax, 312000		; 0004c2c0H
  01123	8b 4d f8	 mov	 ecx, DWORD PTR _this$[ebp]
  01126	8d 54 01 14	 lea	 edx, DWORD PTR [ecx+eax+20]
  0112a	8b 45 f0	 mov	 eax, DWORD PTR _n$[ebp]
  0112d	69 c0 38 01 00
	00		 imul	 eax, 312		; 00000138H
  01133	03 d0		 add	 edx, eax
  01135	52		 push	 edx
  01136	8b 8d 04 fe ff
	ff		 mov	 ecx, DWORD PTR _a$229059[ebp]
  0113c	69 c9 a0 00 00
	00		 imul	 ecx, 160		; 000000a0H
  01142	8d 94 0d 10 fe
	ff ff		 lea	 edx, DWORD PTR _pReq$[ebp+ecx+8]
  01149	52		 push	 edx
  0114a	e8 00 00 00 00	 call	 _strncpy
  0114f	83 c4 0c	 add	 esp, 12			; 0000000cH

; 354  : 		pReq.exQuest[a].Start = lpUser->ExWQuestStart[a];

  01152	8b 85 04 fe ff
	ff		 mov	 eax, DWORD PTR _a$229059[ebp]
  01158	69 c0 a0 00 00
	00		 imul	 eax, 160		; 000000a0H
  0115e	8b 4d f4	 mov	 ecx, DWORD PTR _lpUser$[ebp]
  01161	03 8d 04 fe ff
	ff		 add	 ecx, DWORD PTR _a$229059[ebp]
  01167	8a 91 ec 2a 00
	00		 mov	 dl, BYTE PTR [ecx+10988]
  0116d	88 94 05 2c fe
	ff ff		 mov	 BYTE PTR _pReq$[ebp+eax+36], dl

; 355  : 		pReq.exQuest[a].Number = lpUser->ExWQuestNum[a];

  01174	8b 85 04 fe ff
	ff		 mov	 eax, DWORD PTR _a$229059[ebp]
  0117a	69 c0 a0 00 00
	00		 imul	 eax, 160		; 000000a0H
  01180	8b 8d 04 fe ff
	ff		 mov	 ecx, DWORD PTR _a$229059[ebp]
  01186	8b 55 f4	 mov	 edx, DWORD PTR _lpUser$[ebp]
  01189	66 8b 8c 4a f0
	2a 00 00	 mov	 cx, WORD PTR [edx+ecx*2+10992]
  01191	66 89 8c 05 2e
	fe ff ff	 mov	 WORD PTR _pReq$[ebp+eax+38], cx

; 356  : 		for(int m = 0; m < EW_MAX_MISSION; m++)

  01199	c7 85 ec fd ff
	ff 00 00 00 00	 mov	 DWORD PTR _m$229075[ebp], 0
  011a3	eb 0f		 jmp	 SHORT $LN24@GC_MainInf
$LN23@GC_MainInf:
  011a5	8b 85 ec fd ff
	ff		 mov	 eax, DWORD PTR _m$229075[ebp]
  011ab	83 c0 01	 add	 eax, 1
  011ae	89 85 ec fd ff
	ff		 mov	 DWORD PTR _m$229075[ebp], eax
$LN24@GC_MainInf:
  011b4	83 bd ec fd ff
	ff 05		 cmp	 DWORD PTR _m$229075[ebp], 5
  011bb	0f 8d 3f 01 00
	00		 jge	 $LN22@GC_MainInf

; 357  : 		{
; 358  : 			if(this->ewdata[a][n].MissionType[m] == Searching)

  011c1	8b 85 04 fe ff
	ff		 mov	 eax, DWORD PTR _a$229059[ebp]
  011c7	69 c0 c0 c2 04
	00		 imul	 eax, 312000		; 0004c2c0H
  011cd	8b 4d f8	 mov	 ecx, DWORD PTR _this$[ebp]
  011d0	8d 54 01 14	 lea	 edx, DWORD PTR [ecx+eax+20]
  011d4	8b 45 f0	 mov	 eax, DWORD PTR _n$[ebp]
  011d7	69 c0 38 01 00
	00		 imul	 eax, 312		; 00000138H
  011dd	03 d0		 add	 edx, eax
  011df	8b 8d ec fd ff
	ff		 mov	 ecx, DWORD PTR _m$229075[ebp]
  011e5	83 7c 8a 48 03	 cmp	 DWORD PTR [edx+ecx*4+72], 3
  011ea	75 41		 jne	 SHORT $LN21@GC_MainInf

; 359  : 			{
; 360  : 				pReq.exQuest[a].Count[m] = this->SearchItem(aIndex, a, m);

  011ec	8b 85 ec fd ff
	ff		 mov	 eax, DWORD PTR _m$229075[ebp]
  011f2	50		 push	 eax
  011f3	8b 8d 04 fe ff
	ff		 mov	 ecx, DWORD PTR _a$229059[ebp]
  011f9	51		 push	 ecx
  011fa	8b 55 08	 mov	 edx, DWORD PTR _aIndex$[ebp]
  011fd	52		 push	 edx
  011fe	8b 4d f8	 mov	 ecx, DWORD PTR _this$[ebp]
  01201	e8 00 00 00 00	 call	 ?SearchItem@ExWinQuestSystem@@QAE_NHHH@Z ; ExWinQuestSystem::SearchItem
  01206	66 0f b6 c0	 movzx	 ax, al
  0120a	8b 8d 04 fe ff
	ff		 mov	 ecx, DWORD PTR _a$229059[ebp]
  01210	69 c9 a0 00 00
	00		 imul	 ecx, 160		; 000000a0H
  01216	8d 94 0d 10 fe
	ff ff		 lea	 edx, DWORD PTR _pReq$[ebp+ecx+8]
  0121d	8b 8d ec fd ff
	ff		 mov	 ecx, DWORD PTR _m$229075[ebp]
  01223	66 89 44 4a 20	 mov	 WORD PTR [edx+ecx*2+32], ax

; 361  : 			}
; 362  : 			else

  01228	e9 ce 00 00 00	 jmp	 $LN20@GC_MainInf
$LN21@GC_MainInf:

; 363  : 			{
; 364  : 				if(lpUser->ExWQuestCount[a][m] > this->ewdata[a][n].MissionCount[m])

  0122d	8b 85 04 fe ff
	ff		 mov	 eax, DWORD PTR _a$229059[ebp]
  01233	6b c0 0a	 imul	 eax, 10			; 0000000aH
  01236	8b 4d f4	 mov	 ecx, DWORD PTR _lpUser$[ebp]
  01239	8d 94 01 f6 2a
	00 00		 lea	 edx, DWORD PTR [ecx+eax+10998]
  01240	8b 85 ec fd ff
	ff		 mov	 eax, DWORD PTR _m$229075[ebp]
  01246	0f b7 0c 42	 movzx	 ecx, WORD PTR [edx+eax*2]
  0124a	8b 95 04 fe ff
	ff		 mov	 edx, DWORD PTR _a$229059[ebp]
  01250	69 d2 c0 c2 04
	00		 imul	 edx, 312000		; 0004c2c0H
  01256	8b 45 f8	 mov	 eax, DWORD PTR _this$[ebp]
  01259	8d 54 10 14	 lea	 edx, DWORD PTR [eax+edx+20]
  0125d	8b 45 f0	 mov	 eax, DWORD PTR _n$[ebp]
  01260	69 c0 38 01 00
	00		 imul	 eax, 312		; 00000138H
  01266	03 d0		 add	 edx, eax
  01268	8b 85 ec fd ff
	ff		 mov	 eax, DWORD PTR _m$229075[ebp]
  0126e	3b 8c 82 d4 00
	00 00		 cmp	 ecx, DWORD PTR [edx+eax*4+212]
  01275	7e 49		 jle	 SHORT $LN19@GC_MainInf

; 365  : 				{
; 366  : 					lpUser->ExWQuestCount[a][m] = this->ewdata[a][n].MissionCount[m];

  01277	8b 85 04 fe ff
	ff		 mov	 eax, DWORD PTR _a$229059[ebp]
  0127d	69 c0 c0 c2 04
	00		 imul	 eax, 312000		; 0004c2c0H
  01283	8b 4d f8	 mov	 ecx, DWORD PTR _this$[ebp]
  01286	8d 54 01 14	 lea	 edx, DWORD PTR [ecx+eax+20]
  0128a	8b 45 f0	 mov	 eax, DWORD PTR _n$[ebp]
  0128d	69 c0 38 01 00
	00		 imul	 eax, 312		; 00000138H
  01293	03 d0		 add	 edx, eax
  01295	8b 8d 04 fe ff
	ff		 mov	 ecx, DWORD PTR _a$229059[ebp]
  0129b	6b c9 0a	 imul	 ecx, 10			; 0000000aH
  0129e	8b 45 f4	 mov	 eax, DWORD PTR _lpUser$[ebp]
  012a1	8d 8c 08 f6 2a
	00 00		 lea	 ecx, DWORD PTR [eax+ecx+10998]
  012a8	8b 85 ec fd ff
	ff		 mov	 eax, DWORD PTR _m$229075[ebp]
  012ae	8b b5 ec fd ff
	ff		 mov	 esi, DWORD PTR _m$229075[ebp]
  012b4	66 8b 94 b2 d4
	00 00 00	 mov	 dx, WORD PTR [edx+esi*4+212]
  012bc	66 89 14 41	 mov	 WORD PTR [ecx+eax*2], dx
$LN19@GC_MainInf:

; 367  : 				}
; 368  : 
; 369  : 				pReq.exQuest[a].Count[m] = lpUser->ExWQuestCount[a][m];

  012c0	8b 85 04 fe ff
	ff		 mov	 eax, DWORD PTR _a$229059[ebp]
  012c6	6b c0 0a	 imul	 eax, 10			; 0000000aH
  012c9	8b 4d f4	 mov	 ecx, DWORD PTR _lpUser$[ebp]
  012cc	8d 94 01 f6 2a
	00 00		 lea	 edx, DWORD PTR [ecx+eax+10998]
  012d3	8b 85 04 fe ff
	ff		 mov	 eax, DWORD PTR _a$229059[ebp]
  012d9	69 c0 a0 00 00
	00		 imul	 eax, 160		; 000000a0H
  012df	8d 8c 05 10 fe
	ff ff		 lea	 ecx, DWORD PTR _pReq$[ebp+eax+8]
  012e6	8b 85 ec fd ff
	ff		 mov	 eax, DWORD PTR _m$229075[ebp]
  012ec	8b b5 ec fd ff
	ff		 mov	 esi, DWORD PTR _m$229075[ebp]
  012f2	66 8b 14 72	 mov	 dx, WORD PTR [edx+esi*2]
  012f6	66 89 54 41 20	 mov	 WORD PTR [ecx+eax*2+32], dx
$LN20@GC_MainInf:

; 370  : 			}
; 371  : 		}	

  012fb	e9 a5 fe ff ff	 jmp	 $LN23@GC_MainInf
$LN22@GC_MainInf:

; 372  : 		// -> need send
; 373  : 		if(this->ewdata[a][n].NeedLevel > lpUser->Level)

  01300	8b 85 04 fe ff
	ff		 mov	 eax, DWORD PTR _a$229059[ebp]
  01306	69 c0 c0 c2 04
	00		 imul	 eax, 312000		; 0004c2c0H
  0130c	8b 4d f8	 mov	 ecx, DWORD PTR _this$[ebp]
  0130f	8d 54 01 14	 lea	 edx, DWORD PTR [ecx+eax+20]
  01313	8b 45 f0	 mov	 eax, DWORD PTR _n$[ebp]
  01316	69 c0 38 01 00
	00		 imul	 eax, 312		; 00000138H
  0131c	8b 4d f4	 mov	 ecx, DWORD PTR _lpUser$[ebp]
  0131f	0f bf 89 be 00
	00 00		 movsx	 ecx, WORD PTR [ecx+190]
  01326	39 4c 02 1c	 cmp	 DWORD PTR [edx+eax+28], ecx
  0132a	7e 07		 jle	 SHORT $LN18@GC_MainInf

; 374  : 		{
; 375  : 			sb_level = false;

  0132c	c6 85 01 fe ff
	ff 00		 mov	 BYTE PTR _sb_level$229065[ebp], 0
$LN18@GC_MainInf:

; 376  : 		}
; 377  : 		pReq.exQuest[a].NeedLevel = this->ewdata[a][n].NeedLevel;

  01333	8b 85 04 fe ff
	ff		 mov	 eax, DWORD PTR _a$229059[ebp]
  01339	69 c0 c0 c2 04
	00		 imul	 eax, 312000		; 0004c2c0H
  0133f	8b 4d f8	 mov	 ecx, DWORD PTR _this$[ebp]
  01342	8d 54 01 14	 lea	 edx, DWORD PTR [ecx+eax+20]
  01346	8b 45 f0	 mov	 eax, DWORD PTR _n$[ebp]
  01349	69 c0 38 01 00
	00		 imul	 eax, 312		; 00000138H
  0134f	8b 8d 04 fe ff
	ff		 mov	 ecx, DWORD PTR _a$229059[ebp]
  01355	69 c9 a0 00 00
	00		 imul	 ecx, 160		; 000000a0H
  0135b	66 8b 54 02 1c	 mov	 dx, WORD PTR [edx+eax+28]
  01360	66 89 94 0d 3c
	fe ff ff	 mov	 WORD PTR _pReq$[ebp+ecx+52], dx

; 378  : 		if(this->ewdata[a][n].NeedReset > lpUser->Reset)

  01368	8b 85 04 fe ff
	ff		 mov	 eax, DWORD PTR _a$229059[ebp]
  0136e	69 c0 c0 c2 04
	00		 imul	 eax, 312000		; 0004c2c0H
  01374	8b 4d f8	 mov	 ecx, DWORD PTR _this$[ebp]
  01377	8d 54 01 14	 lea	 edx, DWORD PTR [ecx+eax+20]
  0137b	8b 45 f0	 mov	 eax, DWORD PTR _n$[ebp]
  0137e	69 c0 38 01 00
	00		 imul	 eax, 312		; 00000138H
  01384	8b 4d f4	 mov	 ecx, DWORD PTR _lpUser$[ebp]
  01387	8b 54 02 20	 mov	 edx, DWORD PTR [edx+eax+32]
  0138b	3b 91 90 22 00
	00		 cmp	 edx, DWORD PTR [ecx+8848]
  01391	7e 07		 jle	 SHORT $LN17@GC_MainInf

; 379  : 		{
; 380  : 			sb_reset = false;

  01393	c6 85 00 fe ff
	ff 00		 mov	 BYTE PTR _sb_reset$229066[ebp], 0
$LN17@GC_MainInf:

; 381  : 		}
; 382  : 		pReq.exQuest[a].NeedReset = this->ewdata[a][n].NeedReset;

  0139a	8b 85 04 fe ff
	ff		 mov	 eax, DWORD PTR _a$229059[ebp]
  013a0	69 c0 c0 c2 04
	00		 imul	 eax, 312000		; 0004c2c0H
  013a6	8b 4d f8	 mov	 ecx, DWORD PTR _this$[ebp]
  013a9	8d 54 01 14	 lea	 edx, DWORD PTR [ecx+eax+20]
  013ad	8b 45 f0	 mov	 eax, DWORD PTR _n$[ebp]
  013b0	69 c0 38 01 00
	00		 imul	 eax, 312		; 00000138H
  013b6	8b 8d 04 fe ff
	ff		 mov	 ecx, DWORD PTR _a$229059[ebp]
  013bc	69 c9 a0 00 00
	00		 imul	 ecx, 160		; 000000a0H
  013c2	66 8b 54 02 20	 mov	 dx, WORD PTR [edx+eax+32]
  013c7	66 89 94 0d 40
	fe ff ff	 mov	 WORD PTR _pReq$[ebp+ecx+56], dx

; 383  : 		if(this->ewdata[a][n].NeedGrand > lpUser->GReset)

  013cf	8b 85 04 fe ff
	ff		 mov	 eax, DWORD PTR _a$229059[ebp]
  013d5	69 c0 c0 c2 04
	00		 imul	 eax, 312000		; 0004c2c0H
  013db	8b 4d f8	 mov	 ecx, DWORD PTR _this$[ebp]
  013de	8d 54 01 14	 lea	 edx, DWORD PTR [ecx+eax+20]
  013e2	8b 45 f0	 mov	 eax, DWORD PTR _n$[ebp]
  013e5	69 c0 38 01 00
	00		 imul	 eax, 312		; 00000138H
  013eb	8b 4d f4	 mov	 ecx, DWORD PTR _lpUser$[ebp]
  013ee	8b 54 02 24	 mov	 edx, DWORD PTR [edx+eax+36]
  013f2	3b 91 94 22 00
	00		 cmp	 edx, DWORD PTR [ecx+8852]
  013f8	7e 07		 jle	 SHORT $LN16@GC_MainInf

; 384  : 		{
; 385  : 			sb_grand = false;

  013fa	c6 85 ff fd ff
	ff 00		 mov	 BYTE PTR _sb_grand$229067[ebp], 0
$LN16@GC_MainInf:

; 386  : 		}
; 387  : 		pReq.exQuest[a].NeedGrand = this->ewdata[a][n].NeedGrand;

  01401	8b 85 04 fe ff
	ff		 mov	 eax, DWORD PTR _a$229059[ebp]
  01407	69 c0 c0 c2 04
	00		 imul	 eax, 312000		; 0004c2c0H
  0140d	8b 4d f8	 mov	 ecx, DWORD PTR _this$[ebp]
  01410	8d 54 01 14	 lea	 edx, DWORD PTR [ecx+eax+20]
  01414	8b 45 f0	 mov	 eax, DWORD PTR _n$[ebp]
  01417	69 c0 38 01 00
	00		 imul	 eax, 312		; 00000138H
  0141d	8b 8d 04 fe ff
	ff		 mov	 ecx, DWORD PTR _a$229059[ebp]
  01423	69 c9 a0 00 00
	00		 imul	 ecx, 160		; 000000a0H
  01429	66 8b 54 02 24	 mov	 dx, WORD PTR [edx+eax+36]
  0142e	66 89 94 0d 44
	fe ff ff	 mov	 WORD PTR _pReq$[ebp+ecx+60], dx

; 388  : 		// -> mission send
; 389  : 		for(int m = 0; m < EW_MAX_MISSION; m++)

  01436	c7 85 e8 fd ff
	ff 00 00 00 00	 mov	 DWORD PTR _m$229085[ebp], 0
  01440	eb 0f		 jmp	 SHORT $LN15@GC_MainInf
$LN14@GC_MainInf:
  01442	8b 85 e8 fd ff
	ff		 mov	 eax, DWORD PTR _m$229085[ebp]
  01448	83 c0 01	 add	 eax, 1
  0144b	89 85 e8 fd ff
	ff		 mov	 DWORD PTR _m$229085[ebp], eax
$LN15@GC_MainInf:
  01451	83 bd e8 fd ff
	ff 05		 cmp	 DWORD PTR _m$229085[ebp], 5
  01458	0f 8d cc 03 00
	00		 jge	 $LN13@GC_MainInf

; 390  : 		{
; 391  : 			if(this->ewdata[a][n].MissionType[m] == Hunting || this->ewdata[a][n].MissionType[m] == Droping)

  0145e	8b 85 04 fe ff
	ff		 mov	 eax, DWORD PTR _a$229059[ebp]
  01464	69 c0 c0 c2 04
	00		 imul	 eax, 312000		; 0004c2c0H
  0146a	8b 4d f8	 mov	 ecx, DWORD PTR _this$[ebp]
  0146d	8d 54 01 14	 lea	 edx, DWORD PTR [ecx+eax+20]
  01471	8b 45 f0	 mov	 eax, DWORD PTR _n$[ebp]
  01474	69 c0 38 01 00
	00		 imul	 eax, 312		; 00000138H
  0147a	03 d0		 add	 edx, eax
  0147c	8b 8d e8 fd ff
	ff		 mov	 ecx, DWORD PTR _m$229085[ebp]
  01482	83 7c 8a 48 01	 cmp	 DWORD PTR [edx+ecx*4+72], 1
  01487	74 2b		 je	 SHORT $LN11@GC_MainInf
  01489	8b 85 04 fe ff
	ff		 mov	 eax, DWORD PTR _a$229059[ebp]
  0148f	69 c0 c0 c2 04
	00		 imul	 eax, 312000		; 0004c2c0H
  01495	8b 4d f8	 mov	 ecx, DWORD PTR _this$[ebp]
  01498	8d 54 01 14	 lea	 edx, DWORD PTR [ecx+eax+20]
  0149c	8b 45 f0	 mov	 eax, DWORD PTR _n$[ebp]
  0149f	69 c0 38 01 00
	00		 imul	 eax, 312		; 00000138H
  014a5	03 d0		 add	 edx, eax
  014a7	8b 8d e8 fd ff
	ff		 mov	 ecx, DWORD PTR _m$229085[ebp]
  014ad	83 7c 8a 48 02	 cmp	 DWORD PTR [edx+ecx*4+72], 2
  014b2	75 61		 jne	 SHORT $LN12@GC_MainInf
$LN11@GC_MainInf:

; 392  : 			{
; 393  : 				if(this->ewdata[a][n].MissionCount[m] > lpUser->ExWQuestCount[a][m])

  014b4	8b 85 04 fe ff
	ff		 mov	 eax, DWORD PTR _a$229059[ebp]
  014ba	69 c0 c0 c2 04
	00		 imul	 eax, 312000		; 0004c2c0H
  014c0	8b 4d f8	 mov	 ecx, DWORD PTR _this$[ebp]
  014c3	8d 54 01 14	 lea	 edx, DWORD PTR [ecx+eax+20]
  014c7	8b 45 f0	 mov	 eax, DWORD PTR _n$[ebp]
  014ca	69 c0 38 01 00
	00		 imul	 eax, 312		; 00000138H
  014d0	03 d0		 add	 edx, eax
  014d2	8b 8d 04 fe ff
	ff		 mov	 ecx, DWORD PTR _a$229059[ebp]
  014d8	6b c9 0a	 imul	 ecx, 10			; 0000000aH
  014db	8b 45 f4	 mov	 eax, DWORD PTR _lpUser$[ebp]
  014de	8d 8c 08 f6 2a
	00 00		 lea	 ecx, DWORD PTR [eax+ecx+10998]
  014e5	8b 85 e8 fd ff
	ff		 mov	 eax, DWORD PTR _m$229085[ebp]
  014eb	0f b7 0c 41	 movzx	 ecx, WORD PTR [ecx+eax*2]
  014ef	8b 85 e8 fd ff
	ff		 mov	 eax, DWORD PTR _m$229085[ebp]
  014f5	39 8c 82 d4 00
	00 00		 cmp	 DWORD PTR [edx+eax*4+212], ecx
  014fc	7e 15		 jle	 SHORT $LN10@GC_MainInf

; 394  : 				{
; 395  : 					b_mission[m] = false;

  014fe	8b 85 e8 fd ff
	ff		 mov	 eax, DWORD PTR _m$229085[ebp]
  01504	c6 84 05 f4 fd
	ff ff 00	 mov	 BYTE PTR _b_mission$229068[ebp+eax], 0

; 396  : 					sb_done = false;

  0150c	c6 85 02 fe ff
	ff 00		 mov	 BYTE PTR _sb_done$229064[ebp], 0
$LN10@GC_MainInf:

; 397  : 				}
; 398  : 			}

  01513	eb 61		 jmp	 SHORT $LN9@GC_MainInf
$LN12@GC_MainInf:

; 399  : 			else if(this->ewdata[a][n].MissionType[m] == Searching)

  01515	8b 85 04 fe ff
	ff		 mov	 eax, DWORD PTR _a$229059[ebp]
  0151b	69 c0 c0 c2 04
	00		 imul	 eax, 312000		; 0004c2c0H
  01521	8b 4d f8	 mov	 ecx, DWORD PTR _this$[ebp]
  01524	8d 54 01 14	 lea	 edx, DWORD PTR [ecx+eax+20]
  01528	8b 45 f0	 mov	 eax, DWORD PTR _n$[ebp]
  0152b	69 c0 38 01 00
	00		 imul	 eax, 312		; 00000138H
  01531	03 d0		 add	 edx, eax
  01533	8b 8d e8 fd ff
	ff		 mov	 ecx, DWORD PTR _m$229085[ebp]
  01539	83 7c 8a 48 03	 cmp	 DWORD PTR [edx+ecx*4+72], 3
  0153e	75 36		 jne	 SHORT $LN9@GC_MainInf

; 400  : 			{
; 401  : 				if(!this->SearchItem(aIndex, a, m))

  01540	8b 85 e8 fd ff
	ff		 mov	 eax, DWORD PTR _m$229085[ebp]
  01546	50		 push	 eax
  01547	8b 8d 04 fe ff
	ff		 mov	 ecx, DWORD PTR _a$229059[ebp]
  0154d	51		 push	 ecx
  0154e	8b 55 08	 mov	 edx, DWORD PTR _aIndex$[ebp]
  01551	52		 push	 edx
  01552	8b 4d f8	 mov	 ecx, DWORD PTR _this$[ebp]
  01555	e8 00 00 00 00	 call	 ?SearchItem@ExWinQuestSystem@@QAE_NHHH@Z ; ExWinQuestSystem::SearchItem
  0155a	0f b6 c0	 movzx	 eax, al
  0155d	85 c0		 test	 eax, eax
  0155f	75 15		 jne	 SHORT $LN9@GC_MainInf

; 402  : 				{
; 403  : 					b_mission[m] = false;

  01561	8b 85 e8 fd ff
	ff		 mov	 eax, DWORD PTR _m$229085[ebp]
  01567	c6 84 05 f4 fd
	ff ff 00	 mov	 BYTE PTR _b_mission$229068[ebp+eax], 0

; 404  : 					sb_done = false;

  0156f	c6 85 02 fe ff
	ff 00		 mov	 BYTE PTR _sb_done$229064[ebp], 0
$LN9@GC_MainInf:

; 405  : 				}
; 406  : 			}
; 407  : 			pReq.exQuest[a].b_Mission[m] = b_mission[m];

  01576	8b 85 04 fe ff
	ff		 mov	 eax, DWORD PTR _a$229059[ebp]
  0157c	69 c0 a0 00 00
	00		 imul	 eax, 160		; 000000a0H
  01582	8d 8c 05 10 fe
	ff ff		 lea	 ecx, DWORD PTR _pReq$[ebp+eax+8]
  01589	8b 95 e8 fd ff
	ff		 mov	 edx, DWORD PTR _m$229085[ebp]
  0158f	8b 85 e8 fd ff
	ff		 mov	 eax, DWORD PTR _m$229085[ebp]
  01595	8a 84 05 f4 fd
	ff ff		 mov	 al, BYTE PTR _b_mission$229068[ebp+eax]
  0159c	88 44 11 36	 mov	 BYTE PTR [ecx+edx+54], al

; 408  : 
; 409  : 			pReq.exQuest[a].MissionType[m] = this->ewdata[a][n].MissionType[m];

  015a0	8b 85 04 fe ff
	ff		 mov	 eax, DWORD PTR _a$229059[ebp]
  015a6	69 c0 c0 c2 04
	00		 imul	 eax, 312000		; 0004c2c0H
  015ac	8b 4d f8	 mov	 ecx, DWORD PTR _this$[ebp]
  015af	8d 54 01 14	 lea	 edx, DWORD PTR [ecx+eax+20]
  015b3	8b 45 f0	 mov	 eax, DWORD PTR _n$[ebp]
  015b6	69 c0 38 01 00
	00		 imul	 eax, 312		; 00000138H
  015bc	03 d0		 add	 edx, eax
  015be	8b 8d 04 fe ff
	ff		 mov	 ecx, DWORD PTR _a$229059[ebp]
  015c4	69 c9 a0 00 00
	00		 imul	 ecx, 160		; 000000a0H
  015ca	8d 84 0d 10 fe
	ff ff		 lea	 eax, DWORD PTR _pReq$[ebp+ecx+8]
  015d1	8b 8d e8 fd ff
	ff		 mov	 ecx, DWORD PTR _m$229085[ebp]
  015d7	8b b5 e8 fd ff
	ff		 mov	 esi, DWORD PTR _m$229085[ebp]
  015dd	8a 54 b2 48	 mov	 dl, BYTE PTR [edx+esi*4+72]
  015e1	88 54 08 3b	 mov	 BYTE PTR [eax+ecx+59], dl

; 410  : 			pReq.exQuest[a].MissionID[m] = this->ewdata[a][n].MissionID[m];

  015e5	8b 85 04 fe ff
	ff		 mov	 eax, DWORD PTR _a$229059[ebp]
  015eb	69 c0 c0 c2 04
	00		 imul	 eax, 312000		; 0004c2c0H
  015f1	8b 4d f8	 mov	 ecx, DWORD PTR _this$[ebp]
  015f4	8d 54 01 14	 lea	 edx, DWORD PTR [ecx+eax+20]
  015f8	8b 45 f0	 mov	 eax, DWORD PTR _n$[ebp]
  015fb	69 c0 38 01 00
	00		 imul	 eax, 312		; 00000138H
  01601	03 d0		 add	 edx, eax
  01603	8b 8d 04 fe ff
	ff		 mov	 ecx, DWORD PTR _a$229059[ebp]
  01609	69 c9 a0 00 00
	00		 imul	 ecx, 160		; 000000a0H
  0160f	8d 84 0d 10 fe
	ff ff		 lea	 eax, DWORD PTR _pReq$[ebp+ecx+8]
  01616	8b 8d e8 fd ff
	ff		 mov	 ecx, DWORD PTR _m$229085[ebp]
  0161c	8b b5 e8 fd ff
	ff		 mov	 esi, DWORD PTR _m$229085[ebp]
  01622	66 8b 54 b2 5c	 mov	 dx, WORD PTR [edx+esi*4+92]
  01627	66 89 54 48 40	 mov	 WORD PTR [eax+ecx*2+64], dx

; 411  : 			pReq.exQuest[a].MissionIndex[m] = this->ewdata[a][n].MissionIndex[m];

  0162c	8b 85 04 fe ff
	ff		 mov	 eax, DWORD PTR _a$229059[ebp]
  01632	69 c0 c0 c2 04
	00		 imul	 eax, 312000		; 0004c2c0H
  01638	8b 4d f8	 mov	 ecx, DWORD PTR _this$[ebp]
  0163b	8d 54 01 14	 lea	 edx, DWORD PTR [ecx+eax+20]
  0163f	8b 45 f0	 mov	 eax, DWORD PTR _n$[ebp]
  01642	69 c0 38 01 00
	00		 imul	 eax, 312		; 00000138H
  01648	03 d0		 add	 edx, eax
  0164a	8b 8d 04 fe ff
	ff		 mov	 ecx, DWORD PTR _a$229059[ebp]
  01650	69 c9 a0 00 00
	00		 imul	 ecx, 160		; 000000a0H
  01656	8d 84 0d 10 fe
	ff ff		 lea	 eax, DWORD PTR _pReq$[ebp+ecx+8]
  0165d	8b 8d e8 fd ff
	ff		 mov	 ecx, DWORD PTR _m$229085[ebp]
  01663	8b b5 e8 fd ff
	ff		 mov	 esi, DWORD PTR _m$229085[ebp]
  01669	66 8b 54 b2 70	 mov	 dx, WORD PTR [edx+esi*4+112]
  0166e	66 89 54 48 4a	 mov	 WORD PTR [eax+ecx*2+74], dx

; 412  : 			pReq.exQuest[a].MissionLevel[m] = this->ewdata[a][n].MissionLevel[m];

  01673	8b 85 04 fe ff
	ff		 mov	 eax, DWORD PTR _a$229059[ebp]
  01679	69 c0 c0 c2 04
	00		 imul	 eax, 312000		; 0004c2c0H
  0167f	8b 4d f8	 mov	 ecx, DWORD PTR _this$[ebp]
  01682	8d 54 01 14	 lea	 edx, DWORD PTR [ecx+eax+20]
  01686	8b 45 f0	 mov	 eax, DWORD PTR _n$[ebp]
  01689	69 c0 38 01 00
	00		 imul	 eax, 312		; 00000138H
  0168f	03 d0		 add	 edx, eax
  01691	8b 8d 04 fe ff
	ff		 mov	 ecx, DWORD PTR _a$229059[ebp]
  01697	69 c9 a0 00 00
	00		 imul	 ecx, 160		; 000000a0H
  0169d	8d 84 0d 10 fe
	ff ff		 lea	 eax, DWORD PTR _pReq$[ebp+ecx+8]
  016a4	8b 8d e8 fd ff
	ff		 mov	 ecx, DWORD PTR _m$229085[ebp]
  016aa	8b b5 e8 fd ff
	ff		 mov	 esi, DWORD PTR _m$229085[ebp]
  016b0	8a 94 b2 84 00
	00 00		 mov	 dl, BYTE PTR [edx+esi*4+132]
  016b7	88 54 08 54	 mov	 BYTE PTR [eax+ecx+84], dl

; 413  : 			pReq.exQuest[a].MissionLuck[m] = this->ewdata[a][n].MissionLuck[m];

  016bb	8b 85 04 fe ff
	ff		 mov	 eax, DWORD PTR _a$229059[ebp]
  016c1	69 c0 c0 c2 04
	00		 imul	 eax, 312000		; 0004c2c0H
  016c7	8b 4d f8	 mov	 ecx, DWORD PTR _this$[ebp]
  016ca	8d 54 01 14	 lea	 edx, DWORD PTR [ecx+eax+20]
  016ce	8b 45 f0	 mov	 eax, DWORD PTR _n$[ebp]
  016d1	69 c0 38 01 00
	00		 imul	 eax, 312		; 00000138H
  016d7	03 d0		 add	 edx, eax
  016d9	8b 8d 04 fe ff
	ff		 mov	 ecx, DWORD PTR _a$229059[ebp]
  016df	69 c9 a0 00 00
	00		 imul	 ecx, 160		; 000000a0H
  016e5	8d 84 0d 10 fe
	ff ff		 lea	 eax, DWORD PTR _pReq$[ebp+ecx+8]
  016ec	8b 8d e8 fd ff
	ff		 mov	 ecx, DWORD PTR _m$229085[ebp]
  016f2	8b b5 e8 fd ff
	ff		 mov	 esi, DWORD PTR _m$229085[ebp]
  016f8	8a 94 b2 98 00
	00 00		 mov	 dl, BYTE PTR [edx+esi*4+152]
  016ff	88 54 08 59	 mov	 BYTE PTR [eax+ecx+89], dl

; 414  : 			pReq.exQuest[a].MissionOpt[m] = this->ewdata[a][n].MissionOpt[m];

  01703	8b 85 04 fe ff
	ff		 mov	 eax, DWORD PTR _a$229059[ebp]
  01709	69 c0 c0 c2 04
	00		 imul	 eax, 312000		; 0004c2c0H
  0170f	8b 4d f8	 mov	 ecx, DWORD PTR _this$[ebp]
  01712	8d 54 01 14	 lea	 edx, DWORD PTR [ecx+eax+20]
  01716	8b 45 f0	 mov	 eax, DWORD PTR _n$[ebp]
  01719	69 c0 38 01 00
	00		 imul	 eax, 312		; 00000138H
  0171f	03 d0		 add	 edx, eax
  01721	8b 8d 04 fe ff
	ff		 mov	 ecx, DWORD PTR _a$229059[ebp]
  01727	69 c9 a0 00 00
	00		 imul	 ecx, 160		; 000000a0H
  0172d	8d 84 0d 10 fe
	ff ff		 lea	 eax, DWORD PTR _pReq$[ebp+ecx+8]
  01734	8b 8d e8 fd ff
	ff		 mov	 ecx, DWORD PTR _m$229085[ebp]
  0173a	8b b5 e8 fd ff
	ff		 mov	 esi, DWORD PTR _m$229085[ebp]
  01740	8a 94 b2 ac 00
	00 00		 mov	 dl, BYTE PTR [edx+esi*4+172]
  01747	88 54 08 5e	 mov	 BYTE PTR [eax+ecx+94], dl

; 415  : 			pReq.exQuest[a].MissionExl[m] = this->ewdata[a][n].MissionExl[m];

  0174b	8b 85 04 fe ff
	ff		 mov	 eax, DWORD PTR _a$229059[ebp]
  01751	69 c0 c0 c2 04
	00		 imul	 eax, 312000		; 0004c2c0H
  01757	8b 4d f8	 mov	 ecx, DWORD PTR _this$[ebp]
  0175a	8d 54 01 14	 lea	 edx, DWORD PTR [ecx+eax+20]
  0175e	8b 45 f0	 mov	 eax, DWORD PTR _n$[ebp]
  01761	69 c0 38 01 00
	00		 imul	 eax, 312		; 00000138H
  01767	03 d0		 add	 edx, eax
  01769	8b 8d 04 fe ff
	ff		 mov	 ecx, DWORD PTR _a$229059[ebp]
  0176f	69 c9 a0 00 00
	00		 imul	 ecx, 160		; 000000a0H
  01775	8d 84 0d 10 fe
	ff ff		 lea	 eax, DWORD PTR _pReq$[ebp+ecx+8]
  0177c	8b 8d e8 fd ff
	ff		 mov	 ecx, DWORD PTR _m$229085[ebp]
  01782	8b b5 e8 fd ff
	ff		 mov	 esi, DWORD PTR _m$229085[ebp]
  01788	8a 94 b2 c0 00
	00 00		 mov	 dl, BYTE PTR [edx+esi*4+192]
  0178f	88 54 08 63	 mov	 BYTE PTR [eax+ecx+99], dl

; 416  : 			pReq.exQuest[a].MissionCount[m] = this->ewdata[a][n].MissionCount[m];

  01793	8b 85 04 fe ff
	ff		 mov	 eax, DWORD PTR _a$229059[ebp]
  01799	69 c0 c0 c2 04
	00		 imul	 eax, 312000		; 0004c2c0H
  0179f	8b 4d f8	 mov	 ecx, DWORD PTR _this$[ebp]
  017a2	8d 54 01 14	 lea	 edx, DWORD PTR [ecx+eax+20]
  017a6	8b 45 f0	 mov	 eax, DWORD PTR _n$[ebp]
  017a9	69 c0 38 01 00
	00		 imul	 eax, 312		; 00000138H
  017af	03 d0		 add	 edx, eax
  017b1	8b 8d 04 fe ff
	ff		 mov	 ecx, DWORD PTR _a$229059[ebp]
  017b7	69 c9 a0 00 00
	00		 imul	 ecx, 160		; 000000a0H
  017bd	8d 84 0d 10 fe
	ff ff		 lea	 eax, DWORD PTR _pReq$[ebp+ecx+8]
  017c4	8b 8d e8 fd ff
	ff		 mov	 ecx, DWORD PTR _m$229085[ebp]
  017ca	8b b5 e8 fd ff
	ff		 mov	 esi, DWORD PTR _m$229085[ebp]
  017d0	66 8b 94 b2 d4
	00 00 00	 mov	 dx, WORD PTR [edx+esi*4+212]
  017d8	66 89 54 48 68	 mov	 WORD PTR [eax+ecx*2+104], dx

; 417  : 			pReq.exQuest[a].MissionProcent[m] = this->ewdata[a][n].MissionProcent[m];

  017dd	8b 85 04 fe ff
	ff		 mov	 eax, DWORD PTR _a$229059[ebp]
  017e3	69 c0 c0 c2 04
	00		 imul	 eax, 312000		; 0004c2c0H
  017e9	8b 4d f8	 mov	 ecx, DWORD PTR _this$[ebp]
  017ec	8d 54 01 14	 lea	 edx, DWORD PTR [ecx+eax+20]
  017f0	8b 45 f0	 mov	 eax, DWORD PTR _n$[ebp]
  017f3	69 c0 38 01 00
	00		 imul	 eax, 312		; 00000138H
  017f9	03 d0		 add	 edx, eax
  017fb	8b 8d 04 fe ff
	ff		 mov	 ecx, DWORD PTR _a$229059[ebp]
  01801	69 c9 a0 00 00
	00		 imul	 ecx, 160		; 000000a0H
  01807	8d 84 0d 10 fe
	ff ff		 lea	 eax, DWORD PTR _pReq$[ebp+ecx+8]
  0180e	8b 8d e8 fd ff
	ff		 mov	 ecx, DWORD PTR _m$229085[ebp]
  01814	8b b5 e8 fd ff
	ff		 mov	 esi, DWORD PTR _m$229085[ebp]
  0181a	8a 94 b2 e8 00
	00 00		 mov	 dl, BYTE PTR [edx+esi*4+232]
  01821	88 54 08 72	 mov	 BYTE PTR [eax+ecx+114], dl

; 418  : 		}

  01825	e9 18 fc ff ff	 jmp	 $LN14@GC_MainInf
$LN13@GC_MainInf:

; 419  : 		// -> reward send
; 420  : 		for(int r = 0; r < EW_MAX_REWARD; r++)

  0182a	c7 85 e4 fd ff
	ff 00 00 00 00	 mov	 DWORD PTR _r$229095[ebp], 0
  01834	eb 0f		 jmp	 SHORT $LN6@GC_MainInf
$LN5@GC_MainInf:
  01836	8b 85 e4 fd ff
	ff		 mov	 eax, DWORD PTR _r$229095[ebp]
  0183c	83 c0 01	 add	 eax, 1
  0183f	89 85 e4 fd ff
	ff		 mov	 DWORD PTR _r$229095[ebp], eax
$LN6@GC_MainInf:
  01845	83 bd e4 fd ff
	ff 03		 cmp	 DWORD PTR _r$229095[ebp], 3
  0184c	0f 8d 81 01 00
	00		 jge	 $LN4@GC_MainInf

; 421  : 		{
; 422  : 			pReq.exQuest[a].RewardType[r] = this->ewdata[a][n].RewardType[r];

  01852	8b 85 04 fe ff
	ff		 mov	 eax, DWORD PTR _a$229059[ebp]
  01858	69 c0 c0 c2 04
	00		 imul	 eax, 312000		; 0004c2c0H
  0185e	8b 4d f8	 mov	 ecx, DWORD PTR _this$[ebp]
  01861	8d 54 01 14	 lea	 edx, DWORD PTR [ecx+eax+20]
  01865	8b 45 f0	 mov	 eax, DWORD PTR _n$[ebp]
  01868	69 c0 38 01 00
	00		 imul	 eax, 312		; 00000138H
  0186e	03 d0		 add	 edx, eax
  01870	8b 8d 04 fe ff
	ff		 mov	 ecx, DWORD PTR _a$229059[ebp]
  01876	69 c9 a0 00 00
	00		 imul	 ecx, 160		; 000000a0H
  0187c	8d 84 0d 10 fe
	ff ff		 lea	 eax, DWORD PTR _pReq$[ebp+ecx+8]
  01883	8b 8d e4 fd ff
	ff		 mov	 ecx, DWORD PTR _r$229095[ebp]
  01889	8b b5 e4 fd ff
	ff		 mov	 esi, DWORD PTR _r$229095[ebp]
  0188f	66 8b 94 b2 fc
	00 00 00	 mov	 dx, WORD PTR [edx+esi*4+252]
  01897	66 89 54 48 78	 mov	 WORD PTR [eax+ecx*2+120], dx

; 423  : 			pReq.exQuest[a].RewardCount[r] = this->ewdata[a][n].RewardCount[r];

  0189c	8b 85 04 fe ff
	ff		 mov	 eax, DWORD PTR _a$229059[ebp]
  018a2	69 c0 c0 c2 04
	00		 imul	 eax, 312000		; 0004c2c0H
  018a8	8b 4d f8	 mov	 ecx, DWORD PTR _this$[ebp]
  018ab	8d 54 01 14	 lea	 edx, DWORD PTR [ecx+eax+20]
  018af	8b 45 f0	 mov	 eax, DWORD PTR _n$[ebp]
  018b2	69 c0 38 01 00
	00		 imul	 eax, 312		; 00000138H
  018b8	03 d0		 add	 edx, eax
  018ba	8b 8d 04 fe ff
	ff		 mov	 ecx, DWORD PTR _a$229059[ebp]
  018c0	69 c9 a0 00 00
	00		 imul	 ecx, 160		; 000000a0H
  018c6	8d 84 0d 10 fe
	ff ff		 lea	 eax, DWORD PTR _pReq$[ebp+ecx+8]
  018cd	8b 8d e4 fd ff
	ff		 mov	 ecx, DWORD PTR _r$229095[ebp]
  018d3	8b b5 e4 fd ff
	ff		 mov	 esi, DWORD PTR _r$229095[ebp]
  018d9	8b 94 b2 08 01
	00 00		 mov	 edx, DWORD PTR [edx+esi*4+264]
  018e0	89 94 88 80 00
	00 00		 mov	 DWORD PTR [eax+ecx*4+128], edx

; 424  : 			pReq.exQuest[a].RewardItemType[r] = this->ewdata[a][n].RewardItemType[r];

  018e7	8b 85 04 fe ff
	ff		 mov	 eax, DWORD PTR _a$229059[ebp]
  018ed	69 c0 c0 c2 04
	00		 imul	 eax, 312000		; 0004c2c0H
  018f3	8b 4d f8	 mov	 ecx, DWORD PTR _this$[ebp]
  018f6	8d 54 01 14	 lea	 edx, DWORD PTR [ecx+eax+20]
  018fa	8b 45 f0	 mov	 eax, DWORD PTR _n$[ebp]
  018fd	69 c0 38 01 00
	00		 imul	 eax, 312		; 00000138H
  01903	03 d0		 add	 edx, eax
  01905	8b 8d 04 fe ff
	ff		 mov	 ecx, DWORD PTR _a$229059[ebp]
  0190b	69 c9 a0 00 00
	00		 imul	 ecx, 160		; 000000a0H
  01911	8d 84 0d 10 fe
	ff ff		 lea	 eax, DWORD PTR _pReq$[ebp+ecx+8]
  01918	8b 8d e4 fd ff
	ff		 mov	 ecx, DWORD PTR _r$229095[ebp]
  0191e	8b b5 e4 fd ff
	ff		 mov	 esi, DWORD PTR _r$229095[ebp]
  01924	66 8b 94 b2 14
	01 00 00	 mov	 dx, WORD PTR [edx+esi*4+276]
  0192c	66 89 94 48 8c
	00 00 00	 mov	 WORD PTR [eax+ecx*2+140], dx

; 425  : 			pReq.exQuest[a].RewardItemIndex[r] = this->ewdata[a][n].RewardItemIndex[r];

  01934	8b 85 04 fe ff
	ff		 mov	 eax, DWORD PTR _a$229059[ebp]
  0193a	69 c0 c0 c2 04
	00		 imul	 eax, 312000		; 0004c2c0H
  01940	8b 4d f8	 mov	 ecx, DWORD PTR _this$[ebp]
  01943	8d 54 01 14	 lea	 edx, DWORD PTR [ecx+eax+20]
  01947	8b 45 f0	 mov	 eax, DWORD PTR _n$[ebp]
  0194a	69 c0 38 01 00
	00		 imul	 eax, 312		; 00000138H
  01950	03 d0		 add	 edx, eax
  01952	8b 8d 04 fe ff
	ff		 mov	 ecx, DWORD PTR _a$229059[ebp]
  01958	69 c9 a0 00 00
	00		 imul	 ecx, 160		; 000000a0H
  0195e	8d 84 0d 10 fe
	ff ff		 lea	 eax, DWORD PTR _pReq$[ebp+ecx+8]
  01965	8b 8d e4 fd ff
	ff		 mov	 ecx, DWORD PTR _r$229095[ebp]
  0196b	8b b5 e4 fd ff
	ff		 mov	 esi, DWORD PTR _r$229095[ebp]
  01971	66 8b 94 b2 20
	01 00 00	 mov	 dx, WORD PTR [edx+esi*4+288]
  01979	66 89 94 48 92
	00 00 00	 mov	 WORD PTR [eax+ecx*2+146], dx

; 426  : 			pReq.exQuest[a].RewardItemLevel[r] = this->ewdata[a][n].RewardItemLevel[r];

  01981	8b 85 04 fe ff
	ff		 mov	 eax, DWORD PTR _a$229059[ebp]
  01987	69 c0 c0 c2 04
	00		 imul	 eax, 312000		; 0004c2c0H
  0198d	8b 4d f8	 mov	 ecx, DWORD PTR _this$[ebp]
  01990	8d 54 01 14	 lea	 edx, DWORD PTR [ecx+eax+20]
  01994	8b 45 f0	 mov	 eax, DWORD PTR _n$[ebp]
  01997	69 c0 38 01 00
	00		 imul	 eax, 312		; 00000138H
  0199d	03 d0		 add	 edx, eax
  0199f	8b 8d 04 fe ff
	ff		 mov	 ecx, DWORD PTR _a$229059[ebp]
  019a5	69 c9 a0 00 00
	00		 imul	 ecx, 160		; 000000a0H
  019ab	8d 84 0d 10 fe
	ff ff		 lea	 eax, DWORD PTR _pReq$[ebp+ecx+8]
  019b2	8b 8d e4 fd ff
	ff		 mov	 ecx, DWORD PTR _r$229095[ebp]
  019b8	8b b5 e4 fd ff
	ff		 mov	 esi, DWORD PTR _r$229095[ebp]
  019be	66 8b 94 b2 2c
	01 00 00	 mov	 dx, WORD PTR [edx+esi*4+300]
  019c6	66 89 94 48 98
	00 00 00	 mov	 WORD PTR [eax+ecx*2+152], dx

; 427  : 		}

  019ce	e9 63 fe ff ff	 jmp	 $LN5@GC_MainInf
$LN4@GC_MainInf:

; 428  : 		if(lpUser->ExWQuestStart[a] == FALSE)

  019d3	8b 45 f4	 mov	 eax, DWORD PTR _lpUser$[ebp]
  019d6	03 85 04 fe ff
	ff		 add	 eax, DWORD PTR _a$229059[ebp]
  019dc	0f b6 88 ec 2a
	00 00		 movzx	 ecx, BYTE PTR [eax+10988]
  019e3	85 c9		 test	 ecx, ecx
  019e5	75 28		 jne	 SHORT $LN3@GC_MainInf

; 429  : 		{
; 430  : 			if( sb_level == false || sb_reset == false || sb_grand == false )

  019e7	0f b6 85 01 fe
	ff ff		 movzx	 eax, BYTE PTR _sb_level$229065[ebp]
  019ee	85 c0		 test	 eax, eax
  019f0	74 16		 je	 SHORT $LN1@GC_MainInf
  019f2	0f b6 85 00 fe
	ff ff		 movzx	 eax, BYTE PTR _sb_reset$229066[ebp]
  019f9	85 c0		 test	 eax, eax
  019fb	74 0b		 je	 SHORT $LN1@GC_MainInf
  019fd	0f b6 85 ff fd
	ff ff		 movzx	 eax, BYTE PTR _sb_grand$229067[ebp]
  01a04	85 c0		 test	 eax, eax
  01a06	75 07		 jne	 SHORT $LN3@GC_MainInf
$LN1@GC_MainInf:

; 431  : 			{
; 432  : 				 sb_accept = false;

  01a08	c6 85 03 fe ff
	ff 00		 mov	 BYTE PTR _sb_accept$229063[ebp], 0
$LN3@GC_MainInf:

; 433  : 			}
; 434  : 		}
; 435  : 
; 436  : 		pReq.exQuest[a].b_done = sb_done;

  01a0f	8b 85 04 fe ff
	ff		 mov	 eax, DWORD PTR _a$229059[ebp]
  01a15	69 c0 a0 00 00
	00		 imul	 eax, 160		; 000000a0H
  01a1b	8a 8d 02 fe ff
	ff		 mov	 cl, BYTE PTR _sb_done$229064[ebp]
  01a21	88 8c 05 2a fe
	ff ff		 mov	 BYTE PTR _pReq$[ebp+eax+34], cl

; 437  : 		pReq.exQuest[a].b_accept = sb_accept;

  01a28	8b 85 04 fe ff
	ff		 mov	 eax, DWORD PTR _a$229059[ebp]
  01a2e	69 c0 a0 00 00
	00		 imul	 eax, 160		; 000000a0H
  01a34	8a 8d 03 fe ff
	ff		 mov	 cl, BYTE PTR _sb_accept$229063[ebp]
  01a3a	88 8c 05 29 fe
	ff ff		 mov	 BYTE PTR _pReq$[ebp+eax+33], cl

; 438  : 
; 439  : 		pReq.exQuest[a].b_Level = sb_level;

  01a41	8b 85 04 fe ff
	ff		 mov	 eax, DWORD PTR _a$229059[ebp]
  01a47	69 c0 a0 00 00
	00		 imul	 eax, 160		; 000000a0H
  01a4d	8a 8d 01 fe ff
	ff		 mov	 cl, BYTE PTR _sb_level$229065[ebp]
  01a53	88 8c 05 3a fe
	ff ff		 mov	 BYTE PTR _pReq$[ebp+eax+50], cl

; 440  : 		pReq.exQuest[a].b_Reset = sb_reset;

  01a5a	8b 85 04 fe ff
	ff		 mov	 eax, DWORD PTR _a$229059[ebp]
  01a60	69 c0 a0 00 00
	00		 imul	 eax, 160		; 000000a0H
  01a66	8a 8d 00 fe ff
	ff		 mov	 cl, BYTE PTR _sb_reset$229066[ebp]
  01a6c	88 8c 05 3e fe
	ff ff		 mov	 BYTE PTR _pReq$[ebp+eax+54], cl

; 441  : 		pReq.exQuest[a].b_Grand = sb_grand;

  01a73	8b 85 04 fe ff
	ff		 mov	 eax, DWORD PTR _a$229059[ebp]
  01a79	69 c0 a0 00 00
	00		 imul	 eax, 160		; 000000a0H
  01a7f	8a 8d ff fd ff
	ff		 mov	 cl, BYTE PTR _sb_grand$229067[ebp]
  01a85	88 8c 05 42 fe
	ff ff		 mov	 BYTE PTR _pReq$[ebp+eax+58], cl

; 442  : 	}

  01a8c	e9 be f5 ff ff	 jmp	 $LN31@GC_MainInf
$LN30@GC_MainInf:

; 443  : 
; 444  : 	DataSend(aIndex, (LPBYTE)&pReq, sizeof(pReq));

  01a91	68 e8 01 00 00	 push	 488			; 000001e8H
  01a96	8d 85 08 fe ff
	ff		 lea	 eax, DWORD PTR _pReq$[ebp]
  01a9c	50		 push	 eax
  01a9d	8b 4d 08	 mov	 ecx, DWORD PTR _aIndex$[ebp]
  01aa0	51		 push	 ecx
  01aa1	e8 00 00 00 00	 call	 ?DataSend@@YAHHPAEK@Z	; DataSend
  01aa6	83 c4 0c	 add	 esp, 12			; 0000000cH

; 445  : }

  01aa9	5f		 pop	 edi
  01aaa	5e		 pop	 esi
  01aab	5b		 pop	 ebx
  01aac	8b 4d fc	 mov	 ecx, DWORD PTR __$ArrayPad$[ebp]
  01aaf	33 cd		 xor	 ecx, ebp
  01ab1	e8 00 00 00 00	 call	 @__security_check_cookie@4
  01ab6	8b e5		 mov	 esp, ebp
  01ab8	5d		 pop	 ebp
  01ab9	c2 04 00	 ret	 4
?GC_MainInfo@ExWinQuestSystem@@QAEXH@Z ENDP		; ExWinQuestSystem::GC_MainInfo
; Function compile flags: /Odtp /ZI
; File d:\projects\exteam6.3\source\gameserver\include\prodef.h
_TEXT	ENDS
;	COMDAT ?set@PWMSG_HEAD2@@QAEXPAEEEH@Z
_TEXT	SEGMENT
_this$ = -4						; size = 4
_lpBuf$ = 8						; size = 4
_head$ = 12						; size = 1
_sub$ = 16						; size = 1
_size$ = 20						; size = 4
?set@PWMSG_HEAD2@@QAEXPAEEEH@Z PROC			; PWMSG_HEAD2::set, COMDAT
; _this$ = ecx

; 149  : 	{

  00000	55		 push	 ebp
  00001	8b ec		 mov	 ebp, esp
  00003	83 ec 44	 sub	 esp, 68			; 00000044H
  00006	53		 push	 ebx
  00007	56		 push	 esi
  00008	57		 push	 edi
  00009	89 4d fc	 mov	 DWORD PTR _this$[ebp], ecx

; 150  : 		lpBuf[0] = 0xC2;

  0000c	8b 45 08	 mov	 eax, DWORD PTR _lpBuf$[ebp]
  0000f	c6 00 c2	 mov	 BYTE PTR [eax], 194	; 000000c2H

; 151  : 		lpBuf[1] = SET_NUMBERH(size);

  00012	8b 45 14	 mov	 eax, DWORD PTR _size$[ebp]
  00015	c1 e8 08	 shr	 eax, 8
  00018	8b 4d 08	 mov	 ecx, DWORD PTR _lpBuf$[ebp]
  0001b	88 41 01	 mov	 BYTE PTR [ecx+1], al

; 152  : 		lpBuf[2] = SET_NUMBERL(size);

  0001e	8b 45 14	 mov	 eax, DWORD PTR _size$[ebp]
  00021	25 ff 00 00 00	 and	 eax, 255		; 000000ffH
  00026	8b 4d 08	 mov	 ecx, DWORD PTR _lpBuf$[ebp]
  00029	88 41 02	 mov	 BYTE PTR [ecx+2], al

; 153  : 		lpBuf[3] = head;

  0002c	8b 45 08	 mov	 eax, DWORD PTR _lpBuf$[ebp]
  0002f	8a 4d 0c	 mov	 cl, BYTE PTR _head$[ebp]
  00032	88 48 03	 mov	 BYTE PTR [eax+3], cl

; 154  : 		lpBuf[4] = sub;

  00035	8b 45 08	 mov	 eax, DWORD PTR _lpBuf$[ebp]
  00038	8a 4d 10	 mov	 cl, BYTE PTR _sub$[ebp]
  0003b	88 48 04	 mov	 BYTE PTR [eax+4], cl

; 155  : 	}

  0003e	5f		 pop	 edi
  0003f	5e		 pop	 esi
  00040	5b		 pop	 ebx
  00041	8b e5		 mov	 esp, ebp
  00043	5d		 pop	 ebp
  00044	c2 10 00	 ret	 16			; 00000010H
?set@PWMSG_HEAD2@@QAEXPAEEEH@Z ENDP			; PWMSG_HEAD2::set
; Function compile flags: /Odtp /ZI
; File d:\projects\exteam6.3\source\gameserver\gameserver\exwinquestsystem.cpp
_TEXT	ENDS
_TEXT	SEGMENT
_this$ = -4						; size = 4
_aIndex$ = 8						; size = 4
?GC_OpenWindow@ExWinQuestSystem@@QAEXH@Z PROC		; ExWinQuestSystem::GC_OpenWindow
; _this$ = ecx

; 449  : {

  01ac0	55		 push	 ebp
  01ac1	8b ec		 mov	 ebp, esp
  01ac3	83 ec 44	 sub	 esp, 68			; 00000044H
  01ac6	53		 push	 ebx
  01ac7	56		 push	 esi
  01ac8	57		 push	 edi
  01ac9	89 4d fc	 mov	 DWORD PTR _this$[ebp], ecx

; 450  : 	if(!gObjIsConnectedEx(aIndex))

  01acc	8b 45 08	 mov	 eax, DWORD PTR _aIndex$[ebp]
  01acf	50		 push	 eax
  01ad0	e8 00 00 00 00	 call	 ?gObjIsConnectedEx@@YA_NH@Z ; gObjIsConnectedEx
  01ad5	83 c4 04	 add	 esp, 4
  01ad8	0f b6 c8	 movzx	 ecx, al
  01adb	85 c9		 test	 ecx, ecx
  01add	75 02		 jne	 SHORT $LN1@GC_OpenWin

; 451  : 	{
; 452  : 		return;

  01adf	eb 0c		 jmp	 SHORT $LN2@GC_OpenWin
$LN1@GC_OpenWin:

; 453  : 	}
; 454  : 
; 455  : 	this->GC_MainInfo(aIndex);

  01ae1	8b 45 08	 mov	 eax, DWORD PTR _aIndex$[ebp]
  01ae4	50		 push	 eax
  01ae5	8b 4d fc	 mov	 ecx, DWORD PTR _this$[ebp]
  01ae8	e8 00 00 00 00	 call	 ?GC_MainInfo@ExWinQuestSystem@@QAEXH@Z ; ExWinQuestSystem::GC_MainInfo
$LN2@GC_OpenWin:

; 456  : }

  01aed	5f		 pop	 edi
  01aee	5e		 pop	 esi
  01aef	5b		 pop	 ebx
  01af0	8b e5		 mov	 esp, ebp
  01af2	5d		 pop	 ebp
  01af3	c2 04 00	 ret	 4
?GC_OpenWindow@ExWinQuestSystem@@QAEXH@Z ENDP		; ExWinQuestSystem::GC_OpenWindow
_TEXT	ENDS
PUBLIC	__$ArrayPad$
PUBLIC	?GC_MiniInfo@ExWinQuestSystem@@QAEXH@Z		; ExWinQuestSystem::GC_MiniInfo
EXTRN	_memset:PROC
; Function compile flags: /Odtp /ZI
_TEXT	SEGMENT
_m$229120 = -308					; size = 4
_a$229116 = -304					; size = 4
_n$ = -300						; size = 4
_pReq$ = -296						; size = 282
_lpUser$ = -12						; size = 4
_this$ = -8						; size = 4
__$ArrayPad$ = -4					; size = 4
_aIndex$ = 8						; size = 4
?GC_MiniInfo@ExWinQuestSystem@@QAEXH@Z PROC		; ExWinQuestSystem::GC_MiniInfo
; _this$ = ecx

; 460  : {

  01b00	55		 push	 ebp
  01b01	8b ec		 mov	 ebp, esp
  01b03	81 ec 74 01 00
	00		 sub	 esp, 372		; 00000174H
  01b09	a1 00 00 00 00	 mov	 eax, DWORD PTR ___security_cookie
  01b0e	33 c5		 xor	 eax, ebp
  01b10	89 45 fc	 mov	 DWORD PTR __$ArrayPad$[ebp], eax
  01b13	53		 push	 ebx
  01b14	56		 push	 esi
  01b15	57		 push	 edi
  01b16	89 4d f8	 mov	 DWORD PTR _this$[ebp], ecx

; 461  : 	LPOBJ lpUser = &gObj[aIndex];

  01b19	8b 45 08	 mov	 eax, DWORD PTR _aIndex$[ebp]
  01b1c	69 c0 38 2b 00
	00		 imul	 eax, 11064		; 00002b38H
  01b22	03 05 00 00 00
	00		 add	 eax, DWORD PTR ?gObj@@3PAUOBJECTSTRUCT@@A ; gObj
  01b28	89 45 f4	 mov	 DWORD PTR _lpUser$[ebp], eax

; 462  : 
; 463  : 	GC_ExWinMiniInfo pReq = { 0 };

  01b2b	c6 85 d8 fe ff
	ff 00		 mov	 BYTE PTR _pReq$[ebp], 0
  01b32	68 19 01 00 00	 push	 281			; 00000119H
  01b37	6a 00		 push	 0
  01b39	8d 85 d9 fe ff
	ff		 lea	 eax, DWORD PTR _pReq$[ebp+1]
  01b3f	50		 push	 eax
  01b40	e8 00 00 00 00	 call	 _memset
  01b45	83 c4 0c	 add	 esp, 12			; 0000000cH

; 464  : 	pReq.h.set((LPBYTE)&pReq, 0xFA, 0xCD, sizeof(pReq));

  01b48	68 1a 01 00 00	 push	 282			; 0000011aH
  01b4d	68 cd 00 00 00	 push	 205			; 000000cdH
  01b52	68 fa 00 00 00	 push	 250			; 000000faH
  01b57	8d 85 d8 fe ff
	ff		 lea	 eax, DWORD PTR _pReq$[ebp]
  01b5d	50		 push	 eax
  01b5e	8d 8d d8 fe ff
	ff		 lea	 ecx, DWORD PTR _pReq$[ebp]
  01b64	e8 00 00 00 00	 call	 ?set@PWMSG_HEAD2@@QAEXPAEEEH@Z ; PWMSG_HEAD2::set

; 465  : 
; 466  : 	int n = 0;

  01b69	c7 85 d4 fe ff
	ff 00 00 00 00	 mov	 DWORD PTR _n$[ebp], 0

; 467  : 
; 468  : 	for(int a = 0; a < EW_MAX_ACT; a++)

  01b73	c7 85 d0 fe ff
	ff 00 00 00 00	 mov	 DWORD PTR _a$229116[ebp], 0
  01b7d	eb 0f		 jmp	 SHORT $LN10@GC_MiniInf
$LN9@GC_MiniInf:
  01b7f	8b 85 d0 fe ff
	ff		 mov	 eax, DWORD PTR _a$229116[ebp]
  01b85	83 c0 01	 add	 eax, 1
  01b88	89 85 d0 fe ff
	ff		 mov	 DWORD PTR _a$229116[ebp], eax
$LN10@GC_MiniInf:
  01b8e	83 bd d0 fe ff
	ff 03		 cmp	 DWORD PTR _a$229116[ebp], 3
  01b95	0f 8d df 03 00
	00		 jge	 $LN8@GC_MiniInf

; 469  : 	{
; 470  : 		n = lpUser->ExWQuestNum[a];

  01b9b	8b 85 d0 fe ff
	ff		 mov	 eax, DWORD PTR _a$229116[ebp]
  01ba1	8b 4d f4	 mov	 ecx, DWORD PTR _lpUser$[ebp]
  01ba4	0f b7 94 41 f0
	2a 00 00	 movzx	 edx, WORD PTR [ecx+eax*2+10992]
  01bac	89 95 d4 fe ff
	ff		 mov	 DWORD PTR _n$[ebp], edx

; 471  : 		strncpy(pReq.exQuest[a].NameQuest, this->ewdata[a][n].NameQuest, 25);

  01bb2	6a 19		 push	 25			; 00000019H
  01bb4	8b 85 d0 fe ff
	ff		 mov	 eax, DWORD PTR _a$229116[ebp]
  01bba	69 c0 c0 c2 04
	00		 imul	 eax, 312000		; 0004c2c0H
  01bc0	8b 4d f8	 mov	 ecx, DWORD PTR _this$[ebp]
  01bc3	8d 54 01 14	 lea	 edx, DWORD PTR [ecx+eax+20]
  01bc7	8b 85 d4 fe ff
	ff		 mov	 eax, DWORD PTR _n$[ebp]
  01bcd	69 c0 38 01 00
	00		 imul	 eax, 312		; 00000138H
  01bd3	03 d0		 add	 edx, eax
  01bd5	52		 push	 edx
  01bd6	8b 8d d0 fe ff
	ff		 mov	 ecx, DWORD PTR _a$229116[ebp]
  01bdc	6b c9 5c	 imul	 ecx, 92			; 0000005cH
  01bdf	8d 94 0d de fe
	ff ff		 lea	 edx, DWORD PTR _pReq$[ebp+ecx+6]
  01be6	52		 push	 edx
  01be7	e8 00 00 00 00	 call	 _strncpy
  01bec	83 c4 0c	 add	 esp, 12			; 0000000cH

; 472  : 		pReq.exQuest[a].Start = lpUser->ExWQuestStart[a];

  01bef	8b 85 d0 fe ff
	ff		 mov	 eax, DWORD PTR _a$229116[ebp]
  01bf5	6b c0 5c	 imul	 eax, 92			; 0000005cH
  01bf8	8b 4d f4	 mov	 ecx, DWORD PTR _lpUser$[ebp]
  01bfb	03 8d d0 fe ff
	ff		 add	 ecx, DWORD PTR _a$229116[ebp]
  01c01	8a 91 ec 2a 00
	00		 mov	 dl, BYTE PTR [ecx+10988]
  01c07	88 94 05 f7 fe
	ff ff		 mov	 BYTE PTR _pReq$[ebp+eax+31], dl

; 473  : 
; 474  : 		for(int m = 0; m < EW_MAX_MISSION; m++)

  01c0e	c7 85 cc fe ff
	ff 00 00 00 00	 mov	 DWORD PTR _m$229120[ebp], 0
  01c18	eb 0f		 jmp	 SHORT $LN7@GC_MiniInf
$LN6@GC_MiniInf:
  01c1a	8b 85 cc fe ff
	ff		 mov	 eax, DWORD PTR _m$229120[ebp]
  01c20	83 c0 01	 add	 eax, 1
  01c23	89 85 cc fe ff
	ff		 mov	 DWORD PTR _m$229120[ebp], eax
$LN7@GC_MiniInf:
  01c29	83 bd cc fe ff
	ff 05		 cmp	 DWORD PTR _m$229120[ebp], 5
  01c30	0f 8d 3f 03 00
	00		 jge	 $LN5@GC_MiniInf

; 475  : 		{
; 476  : 			if(this->ewdata[a][n].MissionType[m] == Hunting || this->ewdata[a][n].MissionType[m] == Droping)

  01c36	8b 85 d0 fe ff
	ff		 mov	 eax, DWORD PTR _a$229116[ebp]
  01c3c	69 c0 c0 c2 04
	00		 imul	 eax, 312000		; 0004c2c0H
  01c42	8b 4d f8	 mov	 ecx, DWORD PTR _this$[ebp]
  01c45	8d 54 01 14	 lea	 edx, DWORD PTR [ecx+eax+20]
  01c49	8b 85 d4 fe ff
	ff		 mov	 eax, DWORD PTR _n$[ebp]
  01c4f	69 c0 38 01 00
	00		 imul	 eax, 312		; 00000138H
  01c55	03 d0		 add	 edx, eax
  01c57	8b 8d cc fe ff
	ff		 mov	 ecx, DWORD PTR _m$229120[ebp]
  01c5d	83 7c 8a 48 01	 cmp	 DWORD PTR [edx+ecx*4+72], 1
  01c62	74 2e		 je	 SHORT $LN3@GC_MiniInf
  01c64	8b 85 d0 fe ff
	ff		 mov	 eax, DWORD PTR _a$229116[ebp]
  01c6a	69 c0 c0 c2 04
	00		 imul	 eax, 312000		; 0004c2c0H
  01c70	8b 4d f8	 mov	 ecx, DWORD PTR _this$[ebp]
  01c73	8d 54 01 14	 lea	 edx, DWORD PTR [ecx+eax+20]
  01c77	8b 85 d4 fe ff
	ff		 mov	 eax, DWORD PTR _n$[ebp]
  01c7d	69 c0 38 01 00
	00		 imul	 eax, 312		; 00000138H
  01c83	03 d0		 add	 edx, eax
  01c85	8b 8d cc fe ff
	ff		 mov	 ecx, DWORD PTR _m$229120[ebp]
  01c8b	83 7c 8a 48 02	 cmp	 DWORD PTR [edx+ecx*4+72], 2
  01c90	75 3a		 jne	 SHORT $LN4@GC_MiniInf
$LN3@GC_MiniInf:

; 477  : 			{
; 478  : 				pReq.exQuest[a].ExWQuestCount[m] = lpUser->ExWQuestCount[a][m];

  01c92	8b 85 d0 fe ff
	ff		 mov	 eax, DWORD PTR _a$229116[ebp]
  01c98	6b c0 0a	 imul	 eax, 10			; 0000000aH
  01c9b	8b 4d f4	 mov	 ecx, DWORD PTR _lpUser$[ebp]
  01c9e	8d 94 01 f6 2a
	00 00		 lea	 edx, DWORD PTR [ecx+eax+10998]
  01ca5	8b 85 d0 fe ff
	ff		 mov	 eax, DWORD PTR _a$229116[ebp]
  01cab	6b c0 5c	 imul	 eax, 92			; 0000005cH
  01cae	8d 8c 05 de fe
	ff ff		 lea	 ecx, DWORD PTR _pReq$[ebp+eax+6]
  01cb5	8b 85 cc fe ff
	ff		 mov	 eax, DWORD PTR _m$229120[ebp]
  01cbb	8b b5 cc fe ff
	ff		 mov	 esi, DWORD PTR _m$229120[ebp]
  01cc1	66 8b 14 72	 mov	 dx, WORD PTR [edx+esi*2]
  01cc5	66 89 54 41 1a	 mov	 WORD PTR [ecx+eax*2+26], dx
  01cca	eb 67		 jmp	 SHORT $LN2@GC_MiniInf
$LN4@GC_MiniInf:

; 479  : 			}
; 480  : 			else if(this->ewdata[a][n].MissionType[m] == Searching)

  01ccc	8b 85 d0 fe ff
	ff		 mov	 eax, DWORD PTR _a$229116[ebp]
  01cd2	69 c0 c0 c2 04
	00		 imul	 eax, 312000		; 0004c2c0H
  01cd8	8b 4d f8	 mov	 ecx, DWORD PTR _this$[ebp]
  01cdb	8d 54 01 14	 lea	 edx, DWORD PTR [ecx+eax+20]
  01cdf	8b 85 d4 fe ff
	ff		 mov	 eax, DWORD PTR _n$[ebp]
  01ce5	69 c0 38 01 00
	00		 imul	 eax, 312		; 00000138H
  01ceb	03 d0		 add	 edx, eax
  01ced	8b 8d cc fe ff
	ff		 mov	 ecx, DWORD PTR _m$229120[ebp]
  01cf3	83 7c 8a 48 03	 cmp	 DWORD PTR [edx+ecx*4+72], 3
  01cf8	75 39		 jne	 SHORT $LN2@GC_MiniInf

; 481  : 			{
; 482  : 				pReq.exQuest[a].ExWQuestCount[m] = this->SearchItem(aIndex, a, m);

  01cfa	8b 85 cc fe ff
	ff		 mov	 eax, DWORD PTR _m$229120[ebp]
  01d00	50		 push	 eax
  01d01	8b 8d d0 fe ff
	ff		 mov	 ecx, DWORD PTR _a$229116[ebp]
  01d07	51		 push	 ecx
  01d08	8b 55 08	 mov	 edx, DWORD PTR _aIndex$[ebp]
  01d0b	52		 push	 edx
  01d0c	8b 4d f8	 mov	 ecx, DWORD PTR _this$[ebp]
  01d0f	e8 00 00 00 00	 call	 ?SearchItem@ExWinQuestSystem@@QAE_NHHH@Z ; ExWinQuestSystem::SearchItem
  01d14	66 0f b6 c0	 movzx	 ax, al
  01d18	8b 8d d0 fe ff
	ff		 mov	 ecx, DWORD PTR _a$229116[ebp]
  01d1e	6b c9 5c	 imul	 ecx, 92			; 0000005cH
  01d21	8d 94 0d de fe
	ff ff		 lea	 edx, DWORD PTR _pReq$[ebp+ecx+6]
  01d28	8b 8d cc fe ff
	ff		 mov	 ecx, DWORD PTR _m$229120[ebp]
  01d2e	66 89 44 4a 1a	 mov	 WORD PTR [edx+ecx*2+26], ax
$LN2@GC_MiniInf:

; 483  : 			}
; 484  : 
; 485  : 			pReq.exQuest[a].MissionType[m] = this->ewdata[a][n].MissionType[m];

  01d33	8b 85 d0 fe ff
	ff		 mov	 eax, DWORD PTR _a$229116[ebp]
  01d39	69 c0 c0 c2 04
	00		 imul	 eax, 312000		; 0004c2c0H
  01d3f	8b 4d f8	 mov	 ecx, DWORD PTR _this$[ebp]
  01d42	8d 54 01 14	 lea	 edx, DWORD PTR [ecx+eax+20]
  01d46	8b 85 d4 fe ff
	ff		 mov	 eax, DWORD PTR _n$[ebp]
  01d4c	69 c0 38 01 00
	00		 imul	 eax, 312		; 00000138H
  01d52	03 d0		 add	 edx, eax
  01d54	8b 8d d0 fe ff
	ff		 mov	 ecx, DWORD PTR _a$229116[ebp]
  01d5a	6b c9 5c	 imul	 ecx, 92			; 0000005cH
  01d5d	8d 84 0d de fe
	ff ff		 lea	 eax, DWORD PTR _pReq$[ebp+ecx+6]
  01d64	8b 8d cc fe ff
	ff		 mov	 ecx, DWORD PTR _m$229120[ebp]
  01d6a	8b b5 cc fe ff
	ff		 mov	 esi, DWORD PTR _m$229120[ebp]
  01d70	8a 54 b2 48	 mov	 dl, BYTE PTR [edx+esi*4+72]
  01d74	88 54 08 24	 mov	 BYTE PTR [eax+ecx+36], dl

; 486  : 			pReq.exQuest[a].MissionID[m] = this->ewdata[a][n].MissionID[m];

  01d78	8b 85 d0 fe ff
	ff		 mov	 eax, DWORD PTR _a$229116[ebp]
  01d7e	69 c0 c0 c2 04
	00		 imul	 eax, 312000		; 0004c2c0H
  01d84	8b 4d f8	 mov	 ecx, DWORD PTR _this$[ebp]
  01d87	8d 54 01 14	 lea	 edx, DWORD PTR [ecx+eax+20]
  01d8b	8b 85 d4 fe ff
	ff		 mov	 eax, DWORD PTR _n$[ebp]
  01d91	69 c0 38 01 00
	00		 imul	 eax, 312		; 00000138H
  01d97	03 d0		 add	 edx, eax
  01d99	8b 8d d0 fe ff
	ff		 mov	 ecx, DWORD PTR _a$229116[ebp]
  01d9f	6b c9 5c	 imul	 ecx, 92			; 0000005cH
  01da2	8d 84 0d de fe
	ff ff		 lea	 eax, DWORD PTR _pReq$[ebp+ecx+6]
  01da9	8b 8d cc fe ff
	ff		 mov	 ecx, DWORD PTR _m$229120[ebp]
  01daf	8b b5 cc fe ff
	ff		 mov	 esi, DWORD PTR _m$229120[ebp]
  01db5	66 8b 54 b2 5c	 mov	 dx, WORD PTR [edx+esi*4+92]
  01dba	66 89 54 48 2a	 mov	 WORD PTR [eax+ecx*2+42], dx

; 487  : 			pReq.exQuest[a].MissionIndex[m] = this->ewdata[a][n].MissionIndex[m];

  01dbf	8b 85 d0 fe ff
	ff		 mov	 eax, DWORD PTR _a$229116[ebp]
  01dc5	69 c0 c0 c2 04
	00		 imul	 eax, 312000		; 0004c2c0H
  01dcb	8b 4d f8	 mov	 ecx, DWORD PTR _this$[ebp]
  01dce	8d 54 01 14	 lea	 edx, DWORD PTR [ecx+eax+20]
  01dd2	8b 85 d4 fe ff
	ff		 mov	 eax, DWORD PTR _n$[ebp]
  01dd8	69 c0 38 01 00
	00		 imul	 eax, 312		; 00000138H
  01dde	03 d0		 add	 edx, eax
  01de0	8b 8d d0 fe ff
	ff		 mov	 ecx, DWORD PTR _a$229116[ebp]
  01de6	6b c9 5c	 imul	 ecx, 92			; 0000005cH
  01de9	8d 84 0d de fe
	ff ff		 lea	 eax, DWORD PTR _pReq$[ebp+ecx+6]
  01df0	8b 8d cc fe ff
	ff		 mov	 ecx, DWORD PTR _m$229120[ebp]
  01df6	8b b5 cc fe ff
	ff		 mov	 esi, DWORD PTR _m$229120[ebp]
  01dfc	66 8b 54 b2 70	 mov	 dx, WORD PTR [edx+esi*4+112]
  01e01	66 89 54 48 34	 mov	 WORD PTR [eax+ecx*2+52], dx

; 488  : 			pReq.exQuest[a].MissionLevel[m] = this->ewdata[a][n].MissionLevel[m];

  01e06	8b 85 d0 fe ff
	ff		 mov	 eax, DWORD PTR _a$229116[ebp]
  01e0c	69 c0 c0 c2 04
	00		 imul	 eax, 312000		; 0004c2c0H
  01e12	8b 4d f8	 mov	 ecx, DWORD PTR _this$[ebp]
  01e15	8d 54 01 14	 lea	 edx, DWORD PTR [ecx+eax+20]
  01e19	8b 85 d4 fe ff
	ff		 mov	 eax, DWORD PTR _n$[ebp]
  01e1f	69 c0 38 01 00
	00		 imul	 eax, 312		; 00000138H
  01e25	03 d0		 add	 edx, eax
  01e27	8b 8d d0 fe ff
	ff		 mov	 ecx, DWORD PTR _a$229116[ebp]
  01e2d	6b c9 5c	 imul	 ecx, 92			; 0000005cH
  01e30	8d 84 0d de fe
	ff ff		 lea	 eax, DWORD PTR _pReq$[ebp+ecx+6]
  01e37	8b 8d cc fe ff
	ff		 mov	 ecx, DWORD PTR _m$229120[ebp]
  01e3d	8b b5 cc fe ff
	ff		 mov	 esi, DWORD PTR _m$229120[ebp]
  01e43	8a 94 b2 84 00
	00 00		 mov	 dl, BYTE PTR [edx+esi*4+132]
  01e4a	88 54 08 3e	 mov	 BYTE PTR [eax+ecx+62], dl

; 489  : 			pReq.exQuest[a].MissionLuck[m] = this->ewdata[a][n].MissionLuck[m];

  01e4e	8b 85 d0 fe ff
	ff		 mov	 eax, DWORD PTR _a$229116[ebp]
  01e54	69 c0 c0 c2 04
	00		 imul	 eax, 312000		; 0004c2c0H
  01e5a	8b 4d f8	 mov	 ecx, DWORD PTR _this$[ebp]
  01e5d	8d 54 01 14	 lea	 edx, DWORD PTR [ecx+eax+20]
  01e61	8b 85 d4 fe ff
	ff		 mov	 eax, DWORD PTR _n$[ebp]
  01e67	69 c0 38 01 00
	00		 imul	 eax, 312		; 00000138H
  01e6d	03 d0		 add	 edx, eax
  01e6f	8b 8d d0 fe ff
	ff		 mov	 ecx, DWORD PTR _a$229116[ebp]
  01e75	6b c9 5c	 imul	 ecx, 92			; 0000005cH
  01e78	8d 84 0d de fe
	ff ff		 lea	 eax, DWORD PTR _pReq$[ebp+ecx+6]
  01e7f	8b 8d cc fe ff
	ff		 mov	 ecx, DWORD PTR _m$229120[ebp]
  01e85	8b b5 cc fe ff
	ff		 mov	 esi, DWORD PTR _m$229120[ebp]
  01e8b	8a 94 b2 98 00
	00 00		 mov	 dl, BYTE PTR [edx+esi*4+152]
  01e92	88 54 08 43	 mov	 BYTE PTR [eax+ecx+67], dl

; 490  : 			pReq.exQuest[a].MissionOpt[m] = this->ewdata[a][n].MissionOpt[m];

  01e96	8b 85 d0 fe ff
	ff		 mov	 eax, DWORD PTR _a$229116[ebp]
  01e9c	69 c0 c0 c2 04
	00		 imul	 eax, 312000		; 0004c2c0H
  01ea2	8b 4d f8	 mov	 ecx, DWORD PTR _this$[ebp]
  01ea5	8d 54 01 14	 lea	 edx, DWORD PTR [ecx+eax+20]
  01ea9	8b 85 d4 fe ff
	ff		 mov	 eax, DWORD PTR _n$[ebp]
  01eaf	69 c0 38 01 00
	00		 imul	 eax, 312		; 00000138H
  01eb5	03 d0		 add	 edx, eax
  01eb7	8b 8d d0 fe ff
	ff		 mov	 ecx, DWORD PTR _a$229116[ebp]
  01ebd	6b c9 5c	 imul	 ecx, 92			; 0000005cH
  01ec0	8d 84 0d de fe
	ff ff		 lea	 eax, DWORD PTR _pReq$[ebp+ecx+6]
  01ec7	8b 8d cc fe ff
	ff		 mov	 ecx, DWORD PTR _m$229120[ebp]
  01ecd	8b b5 cc fe ff
	ff		 mov	 esi, DWORD PTR _m$229120[ebp]
  01ed3	8a 94 b2 ac 00
	00 00		 mov	 dl, BYTE PTR [edx+esi*4+172]
  01eda	88 54 08 48	 mov	 BYTE PTR [eax+ecx+72], dl

; 491  : 			pReq.exQuest[a].MissionExl[m] = this->ewdata[a][n].MissionExl[m];

  01ede	8b 85 d0 fe ff
	ff		 mov	 eax, DWORD PTR _a$229116[ebp]
  01ee4	69 c0 c0 c2 04
	00		 imul	 eax, 312000		; 0004c2c0H
  01eea	8b 4d f8	 mov	 ecx, DWORD PTR _this$[ebp]
  01eed	8d 54 01 14	 lea	 edx, DWORD PTR [ecx+eax+20]
  01ef1	8b 85 d4 fe ff
	ff		 mov	 eax, DWORD PTR _n$[ebp]
  01ef7	69 c0 38 01 00
	00		 imul	 eax, 312		; 00000138H
  01efd	03 d0		 add	 edx, eax
  01eff	8b 8d d0 fe ff
	ff		 mov	 ecx, DWORD PTR _a$229116[ebp]
  01f05	6b c9 5c	 imul	 ecx, 92			; 0000005cH
  01f08	8d 84 0d de fe
	ff ff		 lea	 eax, DWORD PTR _pReq$[ebp+ecx+6]
  01f0f	8b 8d cc fe ff
	ff		 mov	 ecx, DWORD PTR _m$229120[ebp]
  01f15	8b b5 cc fe ff
	ff		 mov	 esi, DWORD PTR _m$229120[ebp]
  01f1b	8a 94 b2 c0 00
	00 00		 mov	 dl, BYTE PTR [edx+esi*4+192]
  01f22	88 54 08 4d	 mov	 BYTE PTR [eax+ecx+77], dl

; 492  : 			pReq.exQuest[a].MissionCount[m] = this->ewdata[a][n].MissionCount[m];

  01f26	8b 85 d0 fe ff
	ff		 mov	 eax, DWORD PTR _a$229116[ebp]
  01f2c	69 c0 c0 c2 04
	00		 imul	 eax, 312000		; 0004c2c0H
  01f32	8b 4d f8	 mov	 ecx, DWORD PTR _this$[ebp]
  01f35	8d 54 01 14	 lea	 edx, DWORD PTR [ecx+eax+20]
  01f39	8b 85 d4 fe ff
	ff		 mov	 eax, DWORD PTR _n$[ebp]
  01f3f	69 c0 38 01 00
	00		 imul	 eax, 312		; 00000138H
  01f45	03 d0		 add	 edx, eax
  01f47	8b 8d d0 fe ff
	ff		 mov	 ecx, DWORD PTR _a$229116[ebp]
  01f4d	6b c9 5c	 imul	 ecx, 92			; 0000005cH
  01f50	8d 84 0d de fe
	ff ff		 lea	 eax, DWORD PTR _pReq$[ebp+ecx+6]
  01f57	8b 8d cc fe ff
	ff		 mov	 ecx, DWORD PTR _m$229120[ebp]
  01f5d	8b b5 cc fe ff
	ff		 mov	 esi, DWORD PTR _m$229120[ebp]
  01f63	66 8b 94 b2 d4
	00 00 00	 mov	 dx, WORD PTR [edx+esi*4+212]
  01f6b	66 89 54 48 52	 mov	 WORD PTR [eax+ecx*2+82], dx

; 493  : 		}

  01f70	e9 a5 fc ff ff	 jmp	 $LN6@GC_MiniInf
$LN5@GC_MiniInf:

; 494  : 	}

  01f75	e9 05 fc ff ff	 jmp	 $LN9@GC_MiniInf
$LN8@GC_MiniInf:

; 495  : 
; 496  : 	DataSend(aIndex, (LPBYTE)&pReq, sizeof(pReq));

  01f7a	68 1a 01 00 00	 push	 282			; 0000011aH
  01f7f	8d 85 d8 fe ff
	ff		 lea	 eax, DWORD PTR _pReq$[ebp]
  01f85	50		 push	 eax
  01f86	8b 4d 08	 mov	 ecx, DWORD PTR _aIndex$[ebp]
  01f89	51		 push	 ecx
  01f8a	e8 00 00 00 00	 call	 ?DataSend@@YAHHPAEK@Z	; DataSend
  01f8f	83 c4 0c	 add	 esp, 12			; 0000000cH

; 497  : }

  01f92	5f		 pop	 edi
  01f93	5e		 pop	 esi
  01f94	5b		 pop	 ebx
  01f95	8b 4d fc	 mov	 ecx, DWORD PTR __$ArrayPad$[ebp]
  01f98	33 cd		 xor	 ecx, ebp
  01f9a	e8 00 00 00 00	 call	 @__security_check_cookie@4
  01f9f	8b e5		 mov	 esp, ebp
  01fa1	5d		 pop	 ebp
  01fa2	c2 04 00	 ret	 4
?GC_MiniInfo@ExWinQuestSystem@@QAEXH@Z ENDP		; ExWinQuestSystem::GC_MiniInfo
_TEXT	ENDS
PUBLIC	?set@PBMSG_HEAD2@@QAEXPAEEEE@Z			; PBMSG_HEAD2::set
PUBLIC	?GC_MiniInfoEx@ExWinQuestSystem@@QAEXHHH@Z	; ExWinQuestSystem::GC_MiniInfoEx
; Function compile flags: /Odtp /ZI
_TEXT	SEGMENT
_exSend$ = -12						; size = 6
_this$ = -4						; size = 4
_aIndex$ = 8						; size = 4
_a$ = 12						; size = 4
_m$ = 16						; size = 4
?GC_MiniInfoEx@ExWinQuestSystem@@QAEXHHH@Z PROC		; ExWinQuestSystem::GC_MiniInfoEx
; _this$ = ecx

; 501  : {

  01fb0	55		 push	 ebp
  01fb1	8b ec		 mov	 ebp, esp
  01fb3	83 ec 4c	 sub	 esp, 76			; 0000004cH
  01fb6	53		 push	 ebx
  01fb7	56		 push	 esi
  01fb8	57		 push	 edi
  01fb9	89 4d fc	 mov	 DWORD PTR _this$[ebp], ecx

; 502  : 	if(!gObjIsConnectedEx(aIndex))

  01fbc	8b 45 08	 mov	 eax, DWORD PTR _aIndex$[ebp]
  01fbf	50		 push	 eax
  01fc0	e8 00 00 00 00	 call	 ?gObjIsConnectedEx@@YA_NH@Z ; gObjIsConnectedEx
  01fc5	83 c4 04	 add	 esp, 4
  01fc8	0f b6 c8	 movzx	 ecx, al
  01fcb	85 c9		 test	 ecx, ecx
  01fcd	75 02		 jne	 SHORT $LN1@GC_MiniInf@2

; 503  : 	{
; 504  : 		return;

  01fcf	eb 45		 jmp	 SHORT $LN2@GC_MiniInf@2
$LN1@GC_MiniInf@2:

; 505  : 	}
; 506  : 
; 507  : 	GC_ExWinMiniInfoEx exSend = { 0 };

  01fd1	c6 45 f4 00	 mov	 BYTE PTR _exSend$[ebp], 0
  01fd5	33 c0		 xor	 eax, eax
  01fd7	89 45 f5	 mov	 DWORD PTR _exSend$[ebp+1], eax
  01fda	88 45 f9	 mov	 BYTE PTR _exSend$[ebp+5], al

; 508  : 	exSend.h.set((LPBYTE)&exSend, 0xFB, 0xC3, sizeof(exSend));

  01fdd	6a 06		 push	 6
  01fdf	68 c3 00 00 00	 push	 195			; 000000c3H
  01fe4	68 fb 00 00 00	 push	 251			; 000000fbH
  01fe9	8d 45 f4	 lea	 eax, DWORD PTR _exSend$[ebp]
  01fec	50		 push	 eax
  01fed	8d 4d f4	 lea	 ecx, DWORD PTR _exSend$[ebp]
  01ff0	e8 00 00 00 00	 call	 ?set@PBMSG_HEAD2@@QAEXPAEEEE@Z ; PBMSG_HEAD2::set

; 509  : 
; 510  : 	exSend.a = a;

  01ff5	8a 45 0c	 mov	 al, BYTE PTR _a$[ebp]
  01ff8	88 45 f8	 mov	 BYTE PTR _exSend$[ebp+4], al

; 511  : 	exSend.m = m;

  01ffb	8a 45 10	 mov	 al, BYTE PTR _m$[ebp]
  01ffe	88 45 f9	 mov	 BYTE PTR _exSend$[ebp+5], al

; 512  : 
; 513  : 	DataSend(aIndex, (LPBYTE)&exSend, exSend.h.size);

  02001	0f b6 45 f5	 movzx	 eax, BYTE PTR _exSend$[ebp+1]
  02005	50		 push	 eax
  02006	8d 4d f4	 lea	 ecx, DWORD PTR _exSend$[ebp]
  02009	51		 push	 ecx
  0200a	8b 55 08	 mov	 edx, DWORD PTR _aIndex$[ebp]
  0200d	52		 push	 edx
  0200e	e8 00 00 00 00	 call	 ?DataSend@@YAHHPAEK@Z	; DataSend
  02013	83 c4 0c	 add	 esp, 12			; 0000000cH
$LN2@GC_MiniInf@2:

; 514  : }

  02016	5f		 pop	 edi
  02017	5e		 pop	 esi
  02018	5b		 pop	 ebx
  02019	8b e5		 mov	 esp, ebp
  0201b	5d		 pop	 ebp
  0201c	c2 0c 00	 ret	 12			; 0000000cH
?GC_MiniInfoEx@ExWinQuestSystem@@QAEXHHH@Z ENDP		; ExWinQuestSystem::GC_MiniInfoEx
; Function compile flags: /Odtp /ZI
; File d:\projects\exteam6.3\source\gameserver\include\prodef.h
_TEXT	ENDS
;	COMDAT ?set@PBMSG_HEAD2@@QAEXPAEEEE@Z
_TEXT	SEGMENT
_this$ = -4						; size = 4
_lpBuf$ = 8						; size = 4
_head$ = 12						; size = 1
_sub$ = 16						; size = 1
_size$ = 20						; size = 1
?set@PBMSG_HEAD2@@QAEXPAEEEE@Z PROC			; PBMSG_HEAD2::set, COMDAT
; _this$ = ecx

; 104  : 	{

  00000	55		 push	 ebp
  00001	8b ec		 mov	 ebp, esp
  00003	83 ec 44	 sub	 esp, 68			; 00000044H
  00006	53		 push	 ebx
  00007	56		 push	 esi
  00008	57		 push	 edi
  00009	89 4d fc	 mov	 DWORD PTR _this$[ebp], ecx

; 105  : 		lpBuf[0] = 0xC1;

  0000c	8b 45 08	 mov	 eax, DWORD PTR _lpBuf$[ebp]
  0000f	c6 00 c1	 mov	 BYTE PTR [eax], 193	; 000000c1H

; 106  : 		lpBuf[1] = size;

  00012	8b 45 08	 mov	 eax, DWORD PTR _lpBuf$[ebp]
  00015	8a 4d 14	 mov	 cl, BYTE PTR _size$[ebp]
  00018	88 48 01	 mov	 BYTE PTR [eax+1], cl

; 107  : 		lpBuf[2] = head;

  0001b	8b 45 08	 mov	 eax, DWORD PTR _lpBuf$[ebp]
  0001e	8a 4d 0c	 mov	 cl, BYTE PTR _head$[ebp]
  00021	88 48 02	 mov	 BYTE PTR [eax+2], cl

; 108  : 		lpBuf[3] = sub;

  00024	8b 45 08	 mov	 eax, DWORD PTR _lpBuf$[ebp]
  00027	8a 4d 10	 mov	 cl, BYTE PTR _sub$[ebp]
  0002a	88 48 03	 mov	 BYTE PTR [eax+3], cl

; 109  : 	};

  0002d	5f		 pop	 edi
  0002e	5e		 pop	 esi
  0002f	5b		 pop	 ebx
  00030	8b e5		 mov	 esp, ebp
  00032	5d		 pop	 ebp
  00033	c2 10 00	 ret	 16			; 00000010H
?set@PBMSG_HEAD2@@QAEXPAEEEE@Z ENDP			; PBMSG_HEAD2::set
_TEXT	ENDS
PUBLIC	?RewardQuest@ExWinQuestSystem@@QAEXHH@Z		; ExWinQuestSystem::RewardQuest
PUBLIC	?GC_Start@ExWinQuestSystem@@QAEXHHH@Z		; ExWinQuestSystem::GC_Start
PUBLIC	??_C@_0CP@GAOOCKGI@?$FLExWinQuestSystem?$FN?5Error?5CG_Acce@ ; `string'
PUBLIC	?CG_AcceptQuest@ExWinQuestSystem@@QAEXHPAUCG_Accept_Done@@@Z ; ExWinQuestSystem::CG_AcceptQuest
EXTRN	?LogAddC@@3P6AXEPADZZA:DWORD			; LogAddC
;	COMDAT ??_C@_0CP@GAOOCKGI@?$FLExWinQuestSystem?$FN?5Error?5CG_Acce@
; File d:\projects\exteam6.3\source\gameserver\gameserver\exwinquestsystem.cpp
CONST	SEGMENT
??_C@_0CP@GAOOCKGI@?$FLExWinQuestSystem?$FN?5Error?5CG_Acce@ DB '[ExWinQu'
	DB	'estSystem] Error CG_AcceptQuest Result', 00H ; `string'
; Function compile flags: /Odtp /ZI
CONST	ENDS
_TEXT	SEGMENT
_n$ = -16						; size = 4
_a$ = -12						; size = 4
_lpUser$ = -8						; size = 4
_this$ = -4						; size = 4
_aIndex$ = 8						; size = 4
_aRecv$ = 12						; size = 4
?CG_AcceptQuest@ExWinQuestSystem@@QAEXHPAUCG_Accept_Done@@@Z PROC ; ExWinQuestSystem::CG_AcceptQuest
; _this$ = ecx

; 518  : {

  02020	55		 push	 ebp
  02021	8b ec		 mov	 ebp, esp
  02023	83 ec 50	 sub	 esp, 80			; 00000050H
  02026	53		 push	 ebx
  02027	56		 push	 esi
  02028	57		 push	 edi
  02029	89 4d fc	 mov	 DWORD PTR _this$[ebp], ecx

; 519  : 	if(!gObjIsConnectedEx(aIndex))

  0202c	8b 45 08	 mov	 eax, DWORD PTR _aIndex$[ebp]
  0202f	50		 push	 eax
  02030	e8 00 00 00 00	 call	 ?gObjIsConnectedEx@@YA_NH@Z ; gObjIsConnectedEx
  02035	83 c4 04	 add	 esp, 4
  02038	0f b6 c8	 movzx	 ecx, al
  0203b	85 c9		 test	 ecx, ecx
  0203d	75 05		 jne	 SHORT $LN6@CG_AcceptQ

; 520  : 	{
; 521  : 		return;

  0203f	e9 26 01 00 00	 jmp	 $LN7@CG_AcceptQ
$LN6@CG_AcceptQ:

; 522  : 	}	
; 523  : 
; 524  : 	if(aRecv->Result != 0 && aRecv->Result != 1 && aRecv->Result != 2)

  02044	8b 45 0c	 mov	 eax, DWORD PTR _aRecv$[ebp]
  02047	0f b6 48 04	 movzx	 ecx, BYTE PTR [eax+4]
  0204b	85 c9		 test	 ecx, ecx
  0204d	74 1d		 je	 SHORT $LN5@CG_AcceptQ
  0204f	8b 45 0c	 mov	 eax, DWORD PTR _aRecv$[ebp]
  02052	0f b6 48 04	 movzx	 ecx, BYTE PTR [eax+4]
  02056	83 f9 01	 cmp	 ecx, 1
  02059	74 11		 je	 SHORT $LN5@CG_AcceptQ
  0205b	8b 45 0c	 mov	 eax, DWORD PTR _aRecv$[ebp]
  0205e	0f b6 48 04	 movzx	 ecx, BYTE PTR [eax+4]
  02062	83 f9 02	 cmp	 ecx, 2
  02065	74 05		 je	 SHORT $LN5@CG_AcceptQ

; 525  : 	{
; 526  : 		return;

  02067	e9 fe 00 00 00	 jmp	 $LN7@CG_AcceptQ
$LN5@CG_AcceptQ:

; 527  : 	}
; 528  : 
; 529  : 	LPOBJ lpUser = &gObj[aIndex];

  0206c	8b 45 08	 mov	 eax, DWORD PTR _aIndex$[ebp]
  0206f	69 c0 38 2b 00
	00		 imul	 eax, 11064		; 00002b38H
  02075	03 05 00 00 00
	00		 add	 eax, DWORD PTR ?gObj@@3PAUOBJECTSTRUCT@@A ; gObj
  0207b	89 45 f8	 mov	 DWORD PTR _lpUser$[ebp], eax

; 530  : 
; 531  : 	int a = aRecv->Result;

  0207e	8b 45 0c	 mov	 eax, DWORD PTR _aRecv$[ebp]
  02081	0f b6 48 04	 movzx	 ecx, BYTE PTR [eax+4]
  02085	89 4d f4	 mov	 DWORD PTR _a$[ebp], ecx

; 532  : 	int n = lpUser->ExWQuestNum[a];

  02088	8b 45 f4	 mov	 eax, DWORD PTR _a$[ebp]
  0208b	8b 4d f8	 mov	 ecx, DWORD PTR _lpUser$[ebp]
  0208e	0f b7 94 41 f0
	2a 00 00	 movzx	 edx, WORD PTR [ecx+eax*2+10992]
  02096	89 55 f0	 mov	 DWORD PTR _n$[ebp], edx

; 533  : 
; 534  : 	if(!lpUser->ExWQuestStart[a])

  02099	8b 45 f8	 mov	 eax, DWORD PTR _lpUser$[ebp]
  0209c	03 45 f4	 add	 eax, DWORD PTR _a$[ebp]
  0209f	0f b6 88 ec 2a
	00 00		 movzx	 ecx, BYTE PTR [eax+10988]
  020a6	85 c9		 test	 ecx, ecx
  020a8	0f 85 ac 00 00
	00		 jne	 $LN4@CG_AcceptQ

; 535  : 	{
; 536  : 		if( this->ewdata[a][n].NeedLevel > lpUser->Level		||
; 537  : 			this->ewdata[a][n].NeedReset > lpUser->Reset		||
; 538  : 			this->ewdata[a][n].NeedGrand > lpUser->GReset )

  020ae	8b 45 f4	 mov	 eax, DWORD PTR _a$[ebp]
  020b1	69 c0 c0 c2 04
	00		 imul	 eax, 312000		; 0004c2c0H
  020b7	8b 4d fc	 mov	 ecx, DWORD PTR _this$[ebp]
  020ba	8d 54 01 14	 lea	 edx, DWORD PTR [ecx+eax+20]
  020be	8b 45 f0	 mov	 eax, DWORD PTR _n$[ebp]
  020c1	69 c0 38 01 00
	00		 imul	 eax, 312		; 00000138H
  020c7	8b 4d f8	 mov	 ecx, DWORD PTR _lpUser$[ebp]
  020ca	0f bf 89 be 00
	00 00		 movsx	 ecx, WORD PTR [ecx+190]
  020d1	39 4c 02 1c	 cmp	 DWORD PTR [edx+eax+28], ecx
  020d5	7f 50		 jg	 SHORT $LN2@CG_AcceptQ
  020d7	8b 45 f4	 mov	 eax, DWORD PTR _a$[ebp]
  020da	69 c0 c0 c2 04
	00		 imul	 eax, 312000		; 0004c2c0H
  020e0	8b 4d fc	 mov	 ecx, DWORD PTR _this$[ebp]
  020e3	8d 54 01 14	 lea	 edx, DWORD PTR [ecx+eax+20]
  020e7	8b 45 f0	 mov	 eax, DWORD PTR _n$[ebp]
  020ea	69 c0 38 01 00
	00		 imul	 eax, 312		; 00000138H
  020f0	8b 4d f8	 mov	 ecx, DWORD PTR _lpUser$[ebp]
  020f3	8b 54 02 20	 mov	 edx, DWORD PTR [edx+eax+32]
  020f7	3b 91 90 22 00
	00		 cmp	 edx, DWORD PTR [ecx+8848]
  020fd	7f 28		 jg	 SHORT $LN2@CG_AcceptQ
  020ff	8b 45 f4	 mov	 eax, DWORD PTR _a$[ebp]
  02102	69 c0 c0 c2 04
	00		 imul	 eax, 312000		; 0004c2c0H
  02108	8b 4d fc	 mov	 ecx, DWORD PTR _this$[ebp]
  0210b	8d 54 01 14	 lea	 edx, DWORD PTR [ecx+eax+20]
  0210f	8b 45 f0	 mov	 eax, DWORD PTR _n$[ebp]
  02112	69 c0 38 01 00
	00		 imul	 eax, 312		; 00000138H
  02118	8b 4d f8	 mov	 ecx, DWORD PTR _lpUser$[ebp]
  0211b	8b 54 02 24	 mov	 edx, DWORD PTR [edx+eax+36]
  0211f	3b 91 94 22 00
	00		 cmp	 edx, DWORD PTR [ecx+8852]
  02125	7e 12		 jle	 SHORT $LN3@CG_AcceptQ
$LN2@CG_AcceptQ:

; 539  : 		{
; 540  : 			LogAddC(2, "[ExWinQuestSystem] Error CG_AcceptQuest Result");

  02127	68 00 00 00 00	 push	 OFFSET ??_C@_0CP@GAOOCKGI@?$FLExWinQuestSystem?$FN?5Error?5CG_Acce@
  0212c	6a 02		 push	 2
  0212e	ff 15 00 00 00
	00		 call	 DWORD PTR ?LogAddC@@3P6AXEPADZZA ; LogAddC
  02134	83 c4 08	 add	 esp, 8

; 541  : 			return;

  02137	eb 31		 jmp	 SHORT $LN7@CG_AcceptQ
$LN3@CG_AcceptQ:

; 542  : 		}
; 543  : 		lpUser->ExWQuestStart[a] = true;

  02139	8b 45 f8	 mov	 eax, DWORD PTR _lpUser$[ebp]
  0213c	03 45 f4	 add	 eax, DWORD PTR _a$[ebp]
  0213f	c6 80 ec 2a 00
	00 01		 mov	 BYTE PTR [eax+10988], 1

; 544  : 		this->GC_Start(aIndex, a, true);

  02146	6a 01		 push	 1
  02148	8b 45 f4	 mov	 eax, DWORD PTR _a$[ebp]
  0214b	50		 push	 eax
  0214c	8b 4d 08	 mov	 ecx, DWORD PTR _aIndex$[ebp]
  0214f	51		 push	 ecx
  02150	8b 4d fc	 mov	 ecx, DWORD PTR _this$[ebp]
  02153	e8 00 00 00 00	 call	 ?GC_Start@ExWinQuestSystem@@QAEXHHH@Z ; ExWinQuestSystem::GC_Start

; 545  : 	}
; 546  : 	else

  02158	eb 10		 jmp	 SHORT $LN7@CG_AcceptQ
$LN4@CG_AcceptQ:

; 547  : 	{
; 548  : 		this->RewardQuest(aIndex, a);

  0215a	8b 45 f4	 mov	 eax, DWORD PTR _a$[ebp]
  0215d	50		 push	 eax
  0215e	8b 4d 08	 mov	 ecx, DWORD PTR _aIndex$[ebp]
  02161	51		 push	 ecx
  02162	8b 4d fc	 mov	 ecx, DWORD PTR _this$[ebp]
  02165	e8 00 00 00 00	 call	 ?RewardQuest@ExWinQuestSystem@@QAEXHH@Z ; ExWinQuestSystem::RewardQuest
$LN7@CG_AcceptQ:

; 549  : 	}
; 550  : }

  0216a	5f		 pop	 edi
  0216b	5e		 pop	 esi
  0216c	5b		 pop	 ebx
  0216d	8b e5		 mov	 esp, ebp
  0216f	5d		 pop	 ebp
  02170	c2 08 00	 ret	 8
?CG_AcceptQuest@ExWinQuestSystem@@QAEXHPAUCG_Accept_Done@@@Z ENDP ; ExWinQuestSystem::CG_AcceptQuest
; Function compile flags: /Odtp /ZI
_pReq$ = -12						; size = 6
_this$ = -4						; size = 4
_aIndex$ = 8						; size = 4
_a$ = 12						; size = 4
_s$ = 16						; size = 4
?GC_Start@ExWinQuestSystem@@QAEXHHH@Z PROC		; ExWinQuestSystem::GC_Start
; _this$ = ecx

; 554  : {

  02180	55		 push	 ebp
  02181	8b ec		 mov	 ebp, esp
  02183	83 ec 4c	 sub	 esp, 76			; 0000004cH
  02186	53		 push	 ebx
  02187	56		 push	 esi
  02188	57		 push	 edi
  02189	89 4d fc	 mov	 DWORD PTR _this$[ebp], ecx

; 555  : 	GC_ExWinStart pReq = { 0 };

  0218c	c6 45 f4 00	 mov	 BYTE PTR _pReq$[ebp], 0
  02190	33 c0		 xor	 eax, eax
  02192	89 45 f5	 mov	 DWORD PTR _pReq$[ebp+1], eax
  02195	88 45 f9	 mov	 BYTE PTR _pReq$[ebp+5], al

; 556  : 	pReq.h.set((LPBYTE)&pReq, 0xFB, 0xC4, sizeof(pReq));

  02198	6a 06		 push	 6
  0219a	68 c4 00 00 00	 push	 196			; 000000c4H
  0219f	68 fb 00 00 00	 push	 251			; 000000fbH
  021a4	8d 45 f4	 lea	 eax, DWORD PTR _pReq$[ebp]
  021a7	50		 push	 eax
  021a8	8d 4d f4	 lea	 ecx, DWORD PTR _pReq$[ebp]
  021ab	e8 00 00 00 00	 call	 ?set@PBMSG_HEAD2@@QAEXPAEEEE@Z ; PBMSG_HEAD2::set

; 557  : 	pReq.Act = a;

  021b0	8a 45 0c	 mov	 al, BYTE PTR _a$[ebp]
  021b3	88 45 f8	 mov	 BYTE PTR _pReq$[ebp+4], al

; 558  : 	pReq.Start = s;

  021b6	8a 45 10	 mov	 al, BYTE PTR _s$[ebp]
  021b9	88 45 f9	 mov	 BYTE PTR _pReq$[ebp+5], al

; 559  : 	DataSend(aIndex, (LPBYTE)&pReq, pReq.h.size);

  021bc	0f b6 45 f5	 movzx	 eax, BYTE PTR _pReq$[ebp+1]
  021c0	50		 push	 eax
  021c1	8d 4d f4	 lea	 ecx, DWORD PTR _pReq$[ebp]
  021c4	51		 push	 ecx
  021c5	8b 55 08	 mov	 edx, DWORD PTR _aIndex$[ebp]
  021c8	52		 push	 edx
  021c9	e8 00 00 00 00	 call	 ?DataSend@@YAHHPAEK@Z	; DataSend
  021ce	83 c4 0c	 add	 esp, 12			; 0000000cH

; 560  : 
; 561  : 	/*if(g_BuffManagerEx.CheckExBuffData(aIndex, AT_QUEST_BUFF) == FALSE)
; 562  : 	{
; 563  : 		g_BuffManagerEx.AddExBuffData(aIndex, AT_QUEST_BUFF, -10);
; 564  : 	}*/
; 565  : 
; 566  : 	//g_BuffManagerEx.GC_QuestBuffInfo(aIndex);
; 567  : }

  021d1	5f		 pop	 edi
  021d2	5e		 pop	 esi
  021d3	5b		 pop	 ebx
  021d4	8b e5		 mov	 esp, ebp
  021d6	5d		 pop	 ebp
  021d7	c2 0c 00	 ret	 12			; 0000000cH
?GC_Start@ExWinQuestSystem@@QAEXHHH@Z ENDP		; ExWinQuestSystem::GC_Start
_TEXT	ENDS
PUBLIC	?NewDrop@ExWinQuestSystem@@QAE_NHH@Z		; ExWinQuestSystem::NewDrop
PUBLIC	?MonsterKiller@ExWinQuestSystem@@QAE_NHH@Z	; ExWinQuestSystem::MonsterKiller
EXTRN	?ItemSerialCreateSend@@YAXHEEEHEEEEEHEE@Z:PROC	; ItemSerialCreateSend
EXTRN	_rand:PROC
; Function compile flags: /Odtp /ZI
_TEXT	SEGMENT
_ItemType$229196 = -32					; size = 4
_m$229178 = -28						; size = 4
_a$229173 = -24						; size = 4
_n$ = -20						; size = 4
_lpMonster$ = -16					; size = 4
_lpUser$ = -12						; size = 4
_Result$ = -5						; size = 1
_this$ = -4						; size = 4
_aIndexMonster$ = 8					; size = 4
_aIndexUser$ = 12					; size = 4
?MonsterKiller@ExWinQuestSystem@@QAE_NHH@Z PROC		; ExWinQuestSystem::MonsterKiller
; _this$ = ecx

; 571  : {

  021e0	55		 push	 ebp
  021e1	8b ec		 mov	 ebp, esp
  021e3	83 ec 60	 sub	 esp, 96			; 00000060H
  021e6	53		 push	 ebx
  021e7	56		 push	 esi
  021e8	57		 push	 edi
  021e9	89 4d fc	 mov	 DWORD PTR _this$[ebp], ecx

; 572  : 	bool Result = false;

  021ec	c6 45 fb 00	 mov	 BYTE PTR _Result$[ebp], 0

; 573  : 
; 574  : 	if(!this->Enable)

  021f0	8b 45 fc	 mov	 eax, DWORD PTR _this$[ebp]
  021f3	0f b6 08	 movzx	 ecx, BYTE PTR [eax]
  021f6	85 c9		 test	 ecx, ecx
  021f8	75 08		 jne	 SHORT $LN23@MonsterKil

; 575  : 	{
; 576  :  		return Result;

  021fa	8a 45 fb	 mov	 al, BYTE PTR _Result$[ebp]
  021fd	e9 bf 04 00 00	 jmp	 $LN24@MonsterKil
$LN23@MonsterKil:

; 577  : 	}
; 578  : 
; 579  : 	LPOBJ lpUser = &gObj[aIndexUser];

  02202	8b 45 0c	 mov	 eax, DWORD PTR _aIndexUser$[ebp]
  02205	69 c0 38 2b 00
	00		 imul	 eax, 11064		; 00002b38H
  0220b	03 05 00 00 00
	00		 add	 eax, DWORD PTR ?gObj@@3PAUOBJECTSTRUCT@@A ; gObj
  02211	89 45 f4	 mov	 DWORD PTR _lpUser$[ebp], eax

; 580  : 	LPOBJ lpMonster = &gObj[aIndexMonster];

  02214	8b 45 08	 mov	 eax, DWORD PTR _aIndexMonster$[ebp]
  02217	69 c0 38 2b 00
	00		 imul	 eax, 11064		; 00002b38H
  0221d	03 05 00 00 00
	00		 add	 eax, DWORD PTR ?gObj@@3PAUOBJECTSTRUCT@@A ; gObj
  02223	89 45 f0	 mov	 DWORD PTR _lpMonster$[ebp], eax

; 581  : 
; 582  : 	int n = 0;

  02226	c7 45 ec 00 00
	00 00		 mov	 DWORD PTR _n$[ebp], 0

; 583  : 
; 584  : 	for(int a = 0; a < EW_MAX_ACT; a++)

  0222d	c7 45 e8 00 00
	00 00		 mov	 DWORD PTR _a$229173[ebp], 0
  02234	eb 09		 jmp	 SHORT $LN22@MonsterKil
$LN21@MonsterKil:
  02236	8b 45 e8	 mov	 eax, DWORD PTR _a$229173[ebp]
  02239	83 c0 01	 add	 eax, 1
  0223c	89 45 e8	 mov	 DWORD PTR _a$229173[ebp], eax
$LN22@MonsterKil:
  0223f	83 7d e8 03	 cmp	 DWORD PTR _a$229173[ebp], 3
  02243	0f 8d 5a 04 00
	00		 jge	 $LN20@MonsterKil

; 585  : 	{
; 586  : 		n = lpUser->ExWQuestNum[a];

  02249	8b 45 e8	 mov	 eax, DWORD PTR _a$229173[ebp]
  0224c	8b 4d f4	 mov	 ecx, DWORD PTR _lpUser$[ebp]
  0224f	0f b7 94 41 f0
	2a 00 00	 movzx	 edx, WORD PTR [ecx+eax*2+10992]
  02257	89 55 ec	 mov	 DWORD PTR _n$[ebp], edx

; 587  : 
; 588  : 		if(lpUser->ExWQuestStart[a] == TRUE)

  0225a	8b 45 f4	 mov	 eax, DWORD PTR _lpUser$[ebp]
  0225d	03 45 e8	 add	 eax, DWORD PTR _a$229173[ebp]
  02260	0f b6 88 ec 2a
	00 00		 movzx	 ecx, BYTE PTR [eax+10988]
  02267	83 f9 01	 cmp	 ecx, 1
  0226a	0f 85 2e 04 00
	00		 jne	 $LN19@MonsterKil

; 589  : 		{
; 590  : 			for(int m = 0; m < EW_MAX_MISSION; m++)

  02270	c7 45 e4 00 00
	00 00		 mov	 DWORD PTR _m$229178[ebp], 0
  02277	eb 09		 jmp	 SHORT $LN18@MonsterKil
$LN17@MonsterKil:
  02279	8b 45 e4	 mov	 eax, DWORD PTR _m$229178[ebp]
  0227c	83 c0 01	 add	 eax, 1
  0227f	89 45 e4	 mov	 DWORD PTR _m$229178[ebp], eax
$LN18@MonsterKil:
  02282	83 7d e4 05	 cmp	 DWORD PTR _m$229178[ebp], 5
  02286	0f 8d 12 04 00
	00		 jge	 $LN19@MonsterKil

; 591  : 			{
; 592  : 				// -> Monsterr Mission
; 593  : 				if(this->ewdata[a][n].MissionType[m] == Hunting)

  0228c	8b 45 e8	 mov	 eax, DWORD PTR _a$229173[ebp]
  0228f	69 c0 c0 c2 04
	00		 imul	 eax, 312000		; 0004c2c0H
  02295	8b 4d fc	 mov	 ecx, DWORD PTR _this$[ebp]
  02298	8d 54 01 14	 lea	 edx, DWORD PTR [ecx+eax+20]
  0229c	8b 45 ec	 mov	 eax, DWORD PTR _n$[ebp]
  0229f	69 c0 38 01 00
	00		 imul	 eax, 312		; 00000138H
  022a5	03 d0		 add	 edx, eax
  022a7	8b 4d e4	 mov	 ecx, DWORD PTR _m$229178[ebp]
  022aa	83 7c 8a 48 01	 cmp	 DWORD PTR [edx+ecx*4+72], 1
  022af	0f 85 e9 01 00
	00		 jne	 $LN15@MonsterKil

; 594  : 				{
; 595  : 					if(this->ewdata[a][n].MissionCount[m] > lpUser->ExWQuestCount[a][m])

  022b5	8b 45 e8	 mov	 eax, DWORD PTR _a$229173[ebp]
  022b8	69 c0 c0 c2 04
	00		 imul	 eax, 312000		; 0004c2c0H
  022be	8b 4d fc	 mov	 ecx, DWORD PTR _this$[ebp]
  022c1	8d 54 01 14	 lea	 edx, DWORD PTR [ecx+eax+20]
  022c5	8b 45 ec	 mov	 eax, DWORD PTR _n$[ebp]
  022c8	69 c0 38 01 00
	00		 imul	 eax, 312		; 00000138H
  022ce	03 d0		 add	 edx, eax
  022d0	8b 4d e8	 mov	 ecx, DWORD PTR _a$229173[ebp]
  022d3	6b c9 0a	 imul	 ecx, 10			; 0000000aH
  022d6	8b 45 f4	 mov	 eax, DWORD PTR _lpUser$[ebp]
  022d9	8d 8c 08 f6 2a
	00 00		 lea	 ecx, DWORD PTR [eax+ecx+10998]
  022e0	8b 45 e4	 mov	 eax, DWORD PTR _m$229178[ebp]
  022e3	0f b7 0c 41	 movzx	 ecx, WORD PTR [ecx+eax*2]
  022e7	8b 45 e4	 mov	 eax, DWORD PTR _m$229178[ebp]
  022ea	39 8c 82 d4 00
	00 00		 cmp	 DWORD PTR [edx+eax*4+212], ecx
  022f1	0f 8e a7 01 00
	00		 jle	 $LN15@MonsterKil

; 596  : 					{
; 597  : 						if( this->ewdata[a][n].MissionLuck[m] == lpMonster->MapNumber ||  this->ewdata[a][n].MissionLuck[m] == -1 )

  022f7	8b 45 e8	 mov	 eax, DWORD PTR _a$229173[ebp]
  022fa	69 c0 c0 c2 04
	00		 imul	 eax, 312000		; 0004c2c0H
  02300	8b 4d fc	 mov	 ecx, DWORD PTR _this$[ebp]
  02303	8d 54 01 14	 lea	 edx, DWORD PTR [ecx+eax+20]
  02307	8b 45 ec	 mov	 eax, DWORD PTR _n$[ebp]
  0230a	69 c0 38 01 00
	00		 imul	 eax, 312		; 00000138H
  02310	03 d0		 add	 edx, eax
  02312	8b 4d f0	 mov	 ecx, DWORD PTR _lpMonster$[ebp]
  02315	0f b6 81 49 01
	00 00		 movzx	 eax, BYTE PTR [ecx+329]
  0231c	8b 4d e4	 mov	 ecx, DWORD PTR _m$229178[ebp]
  0231f	39 84 8a 98 00
	00 00		 cmp	 DWORD PTR [edx+ecx*4+152], eax
  02326	74 2c		 je	 SHORT $LN12@MonsterKil
  02328	8b 45 e8	 mov	 eax, DWORD PTR _a$229173[ebp]
  0232b	69 c0 c0 c2 04
	00		 imul	 eax, 312000		; 0004c2c0H
  02331	8b 4d fc	 mov	 ecx, DWORD PTR _this$[ebp]
  02334	8d 54 01 14	 lea	 edx, DWORD PTR [ecx+eax+20]
  02338	8b 45 ec	 mov	 eax, DWORD PTR _n$[ebp]
  0233b	69 c0 38 01 00
	00		 imul	 eax, 312		; 00000138H
  02341	03 d0		 add	 edx, eax
  02343	8b 4d e4	 mov	 ecx, DWORD PTR _m$229178[ebp]
  02346	83 bc 8a 98 00
	00 00 ff	 cmp	 DWORD PTR [edx+ecx*4+152], -1
  0234e	0f 85 4a 01 00
	00		 jne	 $LN15@MonsterKil
$LN12@MonsterKil:

; 598  : 						{
; 599  : 							if(this->ewdata[a][n].MissionID[m] == lpMonster->Class)	//     

  02354	8b 45 e8	 mov	 eax, DWORD PTR _a$229173[ebp]
  02357	69 c0 c0 c2 04
	00		 imul	 eax, 312000		; 0004c2c0H
  0235d	8b 4d fc	 mov	 ecx, DWORD PTR _this$[ebp]
  02360	8d 54 01 14	 lea	 edx, DWORD PTR [ecx+eax+20]
  02364	8b 45 ec	 mov	 eax, DWORD PTR _n$[ebp]
  02367	69 c0 38 01 00
	00		 imul	 eax, 312		; 00000138H
  0236d	03 d0		 add	 edx, eax
  0236f	8b 4d f0	 mov	 ecx, DWORD PTR _lpMonster$[ebp]
  02372	0f b7 81 b8 00
	00 00		 movzx	 eax, WORD PTR [ecx+184]
  02379	8b 4d e4	 mov	 ecx, DWORD PTR _m$229178[ebp]
  0237c	39 44 8a 5c	 cmp	 DWORD PTR [edx+ecx*4+92], eax
  02380	75 4b		 jne	 SHORT $LN11@MonsterKil

; 600  : 							{
; 601  : 								lpUser->ExWQuestCount[a][m]++;

  02382	8b 45 e8	 mov	 eax, DWORD PTR _a$229173[ebp]
  02385	6b c0 0a	 imul	 eax, 10			; 0000000aH
  02388	8b 4d f4	 mov	 ecx, DWORD PTR _lpUser$[ebp]
  0238b	8d 94 01 f6 2a
	00 00		 lea	 edx, DWORD PTR [ecx+eax+10998]
  02392	8b 45 e4	 mov	 eax, DWORD PTR _m$229178[ebp]
  02395	66 8b 0c 42	 mov	 cx, WORD PTR [edx+eax*2]
  02399	66 83 c1 01	 add	 cx, 1
  0239d	8b 55 e8	 mov	 edx, DWORD PTR _a$229173[ebp]
  023a0	6b d2 0a	 imul	 edx, 10			; 0000000aH
  023a3	8b 45 f4	 mov	 eax, DWORD PTR _lpUser$[ebp]
  023a6	8d 94 10 f6 2a
	00 00		 lea	 edx, DWORD PTR [eax+edx+10998]
  023ad	8b 45 e4	 mov	 eax, DWORD PTR _m$229178[ebp]
  023b0	66 89 0c 42	 mov	 WORD PTR [edx+eax*2], cx

; 602  : 								this->GC_MiniInfoEx(aIndexUser, a, m);

  023b4	8b 45 e4	 mov	 eax, DWORD PTR _m$229178[ebp]
  023b7	50		 push	 eax
  023b8	8b 4d e8	 mov	 ecx, DWORD PTR _a$229173[ebp]
  023bb	51		 push	 ecx
  023bc	8b 55 0c	 mov	 edx, DWORD PTR _aIndexUser$[ebp]
  023bf	52		 push	 edx
  023c0	8b 4d fc	 mov	 ecx, DWORD PTR _this$[ebp]
  023c3	e8 00 00 00 00	 call	 ?GC_MiniInfoEx@ExWinQuestSystem@@QAEXHHH@Z ; ExWinQuestSystem::GC_MiniInfoEx
  023c8	e9 d1 00 00 00	 jmp	 $LN15@MonsterKil
$LN11@MonsterKil:

; 603  : 							}
; 604  : 							else if(this->ewdata[a][n].MissionID[m] == -1)	//     

  023cd	8b 45 e8	 mov	 eax, DWORD PTR _a$229173[ebp]
  023d0	69 c0 c0 c2 04
	00		 imul	 eax, 312000		; 0004c2c0H
  023d6	8b 4d fc	 mov	 ecx, DWORD PTR _this$[ebp]
  023d9	8d 54 01 14	 lea	 edx, DWORD PTR [ecx+eax+20]
  023dd	8b 45 ec	 mov	 eax, DWORD PTR _n$[ebp]
  023e0	69 c0 38 01 00
	00		 imul	 eax, 312		; 00000138H
  023e6	03 d0		 add	 edx, eax
  023e8	8b 4d e4	 mov	 ecx, DWORD PTR _m$229178[ebp]
  023eb	83 7c 8a 5c ff	 cmp	 DWORD PTR [edx+ecx*4+92], -1
  023f0	0f 85 a8 00 00
	00		 jne	 $LN15@MonsterKil

; 605  : 							{
; 606  : 								if(lpMonster->Level >= this->ewdata[a][n].MissionOpt[m] && lpMonster->Level <= this->ewdata[a][n].MissionExl[m])

  023f6	8b 45 f0	 mov	 eax, DWORD PTR _lpMonster$[ebp]
  023f9	0f bf 88 be 00
	00 00		 movsx	 ecx, WORD PTR [eax+190]
  02400	8b 55 e8	 mov	 edx, DWORD PTR _a$229173[ebp]
  02403	69 d2 c0 c2 04
	00		 imul	 edx, 312000		; 0004c2c0H
  02409	8b 45 fc	 mov	 eax, DWORD PTR _this$[ebp]
  0240c	8d 54 10 14	 lea	 edx, DWORD PTR [eax+edx+20]
  02410	8b 45 ec	 mov	 eax, DWORD PTR _n$[ebp]
  02413	69 c0 38 01 00
	00		 imul	 eax, 312		; 00000138H
  02419	03 d0		 add	 edx, eax
  0241b	8b 45 e4	 mov	 eax, DWORD PTR _m$229178[ebp]
  0241e	3b 8c 82 ac 00
	00 00		 cmp	 ecx, DWORD PTR [edx+eax*4+172]
  02425	7c 77		 jl	 SHORT $LN15@MonsterKil
  02427	8b 45 f0	 mov	 eax, DWORD PTR _lpMonster$[ebp]
  0242a	0f bf 88 be 00
	00 00		 movsx	 ecx, WORD PTR [eax+190]
  02431	8b 55 e8	 mov	 edx, DWORD PTR _a$229173[ebp]
  02434	69 d2 c0 c2 04
	00		 imul	 edx, 312000		; 0004c2c0H
  0243a	8b 45 fc	 mov	 eax, DWORD PTR _this$[ebp]
  0243d	8d 54 10 14	 lea	 edx, DWORD PTR [eax+edx+20]
  02441	8b 45 ec	 mov	 eax, DWORD PTR _n$[ebp]
  02444	69 c0 38 01 00
	00		 imul	 eax, 312		; 00000138H
  0244a	03 d0		 add	 edx, eax
  0244c	8b 45 e4	 mov	 eax, DWORD PTR _m$229178[ebp]
  0244f	3b 8c 82 c0 00
	00 00		 cmp	 ecx, DWORD PTR [edx+eax*4+192]
  02456	7f 46		 jg	 SHORT $LN15@MonsterKil

; 607  : 								{
; 608  : 									lpUser->ExWQuestCount[a][m]++;

  02458	8b 45 e8	 mov	 eax, DWORD PTR _a$229173[ebp]
  0245b	6b c0 0a	 imul	 eax, 10			; 0000000aH
  0245e	8b 4d f4	 mov	 ecx, DWORD PTR _lpUser$[ebp]
  02461	8d 94 01 f6 2a
	00 00		 lea	 edx, DWORD PTR [ecx+eax+10998]
  02468	8b 45 e4	 mov	 eax, DWORD PTR _m$229178[ebp]
  0246b	66 8b 0c 42	 mov	 cx, WORD PTR [edx+eax*2]
  0246f	66 83 c1 01	 add	 cx, 1
  02473	8b 55 e8	 mov	 edx, DWORD PTR _a$229173[ebp]
  02476	6b d2 0a	 imul	 edx, 10			; 0000000aH
  02479	8b 45 f4	 mov	 eax, DWORD PTR _lpUser$[ebp]
  0247c	8d 94 10 f6 2a
	00 00		 lea	 edx, DWORD PTR [eax+edx+10998]
  02483	8b 45 e4	 mov	 eax, DWORD PTR _m$229178[ebp]
  02486	66 89 0c 42	 mov	 WORD PTR [edx+eax*2], cx

; 609  : 									this->GC_MiniInfoEx(aIndexUser, a, m);

  0248a	8b 45 e4	 mov	 eax, DWORD PTR _m$229178[ebp]
  0248d	50		 push	 eax
  0248e	8b 4d e8	 mov	 ecx, DWORD PTR _a$229173[ebp]
  02491	51		 push	 ecx
  02492	8b 55 0c	 mov	 edx, DWORD PTR _aIndexUser$[ebp]
  02495	52		 push	 edx
  02496	8b 4d fc	 mov	 ecx, DWORD PTR _this$[ebp]
  02499	e8 00 00 00 00	 call	 ?GC_MiniInfoEx@ExWinQuestSystem@@QAEXHHH@Z ; ExWinQuestSystem::GC_MiniInfoEx
$LN15@MonsterKil:

; 610  : 								}
; 611  : 							}
; 612  : 						}
; 613  : 					}
; 614  : 				}
; 615  : 				// -> Drop Mission
; 616  : 				if( this->ewdata[a][n].MissionType[m] == Droping )

  0249e	8b 45 e8	 mov	 eax, DWORD PTR _a$229173[ebp]
  024a1	69 c0 c0 c2 04
	00		 imul	 eax, 312000		; 0004c2c0H
  024a7	8b 4d fc	 mov	 ecx, DWORD PTR _this$[ebp]
  024aa	8d 54 01 14	 lea	 edx, DWORD PTR [ecx+eax+20]
  024ae	8b 45 ec	 mov	 eax, DWORD PTR _n$[ebp]
  024b1	69 c0 38 01 00
	00		 imul	 eax, 312		; 00000138H
  024b7	03 d0		 add	 edx, eax
  024b9	8b 4d e4	 mov	 ecx, DWORD PTR _m$229178[ebp]
  024bc	83 7c 8a 48 02	 cmp	 DWORD PTR [edx+ecx*4+72], 2
  024c1	0f 85 d2 01 00
	00		 jne	 $LN7@MonsterKil

; 617  : 				{
; 618  : 					if( this->ewdata[a][n].MissionCount[m] > lpUser->ExWQuestCount[a][m] )

  024c7	8b 45 e8	 mov	 eax, DWORD PTR _a$229173[ebp]
  024ca	69 c0 c0 c2 04
	00		 imul	 eax, 312000		; 0004c2c0H
  024d0	8b 4d fc	 mov	 ecx, DWORD PTR _this$[ebp]
  024d3	8d 54 01 14	 lea	 edx, DWORD PTR [ecx+eax+20]
  024d7	8b 45 ec	 mov	 eax, DWORD PTR _n$[ebp]
  024da	69 c0 38 01 00
	00		 imul	 eax, 312		; 00000138H
  024e0	03 d0		 add	 edx, eax
  024e2	8b 4d e8	 mov	 ecx, DWORD PTR _a$229173[ebp]
  024e5	6b c9 0a	 imul	 ecx, 10			; 0000000aH
  024e8	8b 45 f4	 mov	 eax, DWORD PTR _lpUser$[ebp]
  024eb	8d 8c 08 f6 2a
	00 00		 lea	 ecx, DWORD PTR [eax+ecx+10998]
  024f2	8b 45 e4	 mov	 eax, DWORD PTR _m$229178[ebp]
  024f5	0f b7 0c 41	 movzx	 ecx, WORD PTR [ecx+eax*2]
  024f9	8b 45 e4	 mov	 eax, DWORD PTR _m$229178[ebp]
  024fc	39 8c 82 d4 00
	00 00		 cmp	 DWORD PTR [edx+eax*4+212], ecx
  02503	0f 8e 90 01 00
	00		 jle	 $LN7@MonsterKil

; 619  : 					{
; 620  : 						if( this->ewdata[a][n].MissionLuck[m] == lpMonster->MapNumber ||  this->ewdata[a][n].MissionLuck[m] == -1 )

  02509	8b 45 e8	 mov	 eax, DWORD PTR _a$229173[ebp]
  0250c	69 c0 c0 c2 04
	00		 imul	 eax, 312000		; 0004c2c0H
  02512	8b 4d fc	 mov	 ecx, DWORD PTR _this$[ebp]
  02515	8d 54 01 14	 lea	 edx, DWORD PTR [ecx+eax+20]
  02519	8b 45 ec	 mov	 eax, DWORD PTR _n$[ebp]
  0251c	69 c0 38 01 00
	00		 imul	 eax, 312		; 00000138H
  02522	03 d0		 add	 edx, eax
  02524	8b 4d f0	 mov	 ecx, DWORD PTR _lpMonster$[ebp]
  02527	0f b6 81 49 01
	00 00		 movzx	 eax, BYTE PTR [ecx+329]
  0252e	8b 4d e4	 mov	 ecx, DWORD PTR _m$229178[ebp]
  02531	39 84 8a 98 00
	00 00		 cmp	 DWORD PTR [edx+ecx*4+152], eax
  02538	74 2c		 je	 SHORT $LN4@MonsterKil
  0253a	8b 45 e8	 mov	 eax, DWORD PTR _a$229173[ebp]
  0253d	69 c0 c0 c2 04
	00		 imul	 eax, 312000		; 0004c2c0H
  02543	8b 4d fc	 mov	 ecx, DWORD PTR _this$[ebp]
  02546	8d 54 01 14	 lea	 edx, DWORD PTR [ecx+eax+20]
  0254a	8b 45 ec	 mov	 eax, DWORD PTR _n$[ebp]
  0254d	69 c0 38 01 00
	00		 imul	 eax, 312		; 00000138H
  02553	03 d0		 add	 edx, eax
  02555	8b 4d e4	 mov	 ecx, DWORD PTR _m$229178[ebp]
  02558	83 bc 8a 98 00
	00 00 ff	 cmp	 DWORD PTR [edx+ecx*4+152], -1
  02560	0f 85 33 01 00
	00		 jne	 $LN7@MonsterKil
$LN4@MonsterKil:

; 621  : 						{
; 622  : 							if(lpMonster->Level >= this->ewdata[a][n].MissionOpt[m] && lpMonster->Level <= this->ewdata[a][n].MissionExl[m])

  02566	8b 45 f0	 mov	 eax, DWORD PTR _lpMonster$[ebp]
  02569	0f bf 88 be 00
	00 00		 movsx	 ecx, WORD PTR [eax+190]
  02570	8b 55 e8	 mov	 edx, DWORD PTR _a$229173[ebp]
  02573	69 d2 c0 c2 04
	00		 imul	 edx, 312000		; 0004c2c0H
  02579	8b 45 fc	 mov	 eax, DWORD PTR _this$[ebp]
  0257c	8d 54 10 14	 lea	 edx, DWORD PTR [eax+edx+20]
  02580	8b 45 ec	 mov	 eax, DWORD PTR _n$[ebp]
  02583	69 c0 38 01 00
	00		 imul	 eax, 312		; 00000138H
  02589	03 d0		 add	 edx, eax
  0258b	8b 45 e4	 mov	 eax, DWORD PTR _m$229178[ebp]
  0258e	3b 8c 82 ac 00
	00 00		 cmp	 ecx, DWORD PTR [edx+eax*4+172]
  02595	0f 8c fe 00 00
	00		 jl	 $LN7@MonsterKil
  0259b	8b 45 f0	 mov	 eax, DWORD PTR _lpMonster$[ebp]
  0259e	0f bf 88 be 00
	00 00		 movsx	 ecx, WORD PTR [eax+190]
  025a5	8b 55 e8	 mov	 edx, DWORD PTR _a$229173[ebp]
  025a8	69 d2 c0 c2 04
	00		 imul	 edx, 312000		; 0004c2c0H
  025ae	8b 45 fc	 mov	 eax, DWORD PTR _this$[ebp]
  025b1	8d 54 10 14	 lea	 edx, DWORD PTR [eax+edx+20]
  025b5	8b 45 ec	 mov	 eax, DWORD PTR _n$[ebp]
  025b8	69 c0 38 01 00
	00		 imul	 eax, 312		; 00000138H
  025be	03 d0		 add	 edx, eax
  025c0	8b 45 e4	 mov	 eax, DWORD PTR _m$229178[ebp]
  025c3	3b 8c 82 c0 00
	00 00		 cmp	 ecx, DWORD PTR [edx+eax*4+192]
  025ca	0f 8f c9 00 00
	00		 jg	 $LN7@MonsterKil

; 623  : 							{
; 624  : 								if ( (rand()%100) < this->ewdata[a][n].MissionProcent[m] )

  025d0	e8 00 00 00 00	 call	 _rand
  025d5	99		 cdq
  025d6	b9 64 00 00 00	 mov	 ecx, 100		; 00000064H
  025db	f7 f9		 idiv	 ecx
  025dd	8b 45 e8	 mov	 eax, DWORD PTR _a$229173[ebp]
  025e0	69 c0 c0 c2 04
	00		 imul	 eax, 312000		; 0004c2c0H
  025e6	8b 4d fc	 mov	 ecx, DWORD PTR _this$[ebp]
  025e9	8d 44 01 14	 lea	 eax, DWORD PTR [ecx+eax+20]
  025ed	8b 4d ec	 mov	 ecx, DWORD PTR _n$[ebp]
  025f0	69 c9 38 01 00
	00		 imul	 ecx, 312		; 00000138H
  025f6	03 c1		 add	 eax, ecx
  025f8	8b 4d e4	 mov	 ecx, DWORD PTR _m$229178[ebp]
  025fb	3b 94 88 e8 00
	00 00		 cmp	 edx, DWORD PTR [eax+ecx*4+232]
  02602	0f 8d 91 00 00
	00		 jge	 $LN7@MonsterKil

; 625  : 								{
; 626  : 									int ItemType = ITEMGET(this->ewdata[a][n].MissionID[m], this->ewdata[a][n].MissionIndex[m]);

  02608	8b 45 e8	 mov	 eax, DWORD PTR _a$229173[ebp]
  0260b	69 c0 c0 c2 04
	00		 imul	 eax, 312000		; 0004c2c0H
  02611	8b 4d fc	 mov	 ecx, DWORD PTR _this$[ebp]
  02614	8d 54 01 14	 lea	 edx, DWORD PTR [ecx+eax+20]
  02618	8b 45 ec	 mov	 eax, DWORD PTR _n$[ebp]
  0261b	69 c0 38 01 00
	00		 imul	 eax, 312		; 00000138H
  02621	03 d0		 add	 edx, eax
  02623	8b 4d e4	 mov	 ecx, DWORD PTR _m$229178[ebp]
  02626	8b 54 8a 5c	 mov	 edx, DWORD PTR [edx+ecx*4+92]
  0262a	c1 e2 09	 shl	 edx, 9
  0262d	8b 45 e8	 mov	 eax, DWORD PTR _a$229173[ebp]
  02630	69 c0 c0 c2 04
	00		 imul	 eax, 312000		; 0004c2c0H
  02636	8b 4d fc	 mov	 ecx, DWORD PTR _this$[ebp]
  02639	8d 44 01 14	 lea	 eax, DWORD PTR [ecx+eax+20]
  0263d	8b 4d ec	 mov	 ecx, DWORD PTR _n$[ebp]
  02640	69 c9 38 01 00
	00		 imul	 ecx, 312		; 00000138H
  02646	03 c1		 add	 eax, ecx
  02648	8b 4d e4	 mov	 ecx, DWORD PTR _m$229178[ebp]
  0264b	03 54 88 70	 add	 edx, DWORD PTR [eax+ecx*4+112]
  0264f	89 55 e0	 mov	 DWORD PTR _ItemType$229196[ebp], edx

; 627  : 									ItemSerialCreateSend(aIndexUser,lpMonster->MapNumber,lpMonster->X,lpMonster->Y,ItemType,0,0,0,0,0,aIndexUser,0,0);

  02652	6a 00		 push	 0
  02654	6a 00		 push	 0
  02656	8b 45 0c	 mov	 eax, DWORD PTR _aIndexUser$[ebp]
  02659	50		 push	 eax
  0265a	6a 00		 push	 0
  0265c	6a 00		 push	 0
  0265e	6a 00		 push	 0
  02660	6a 00		 push	 0
  02662	6a 00		 push	 0
  02664	8b 4d e0	 mov	 ecx, DWORD PTR _ItemType$229196[ebp]
  02667	51		 push	 ecx
  02668	8b 55 f0	 mov	 edx, DWORD PTR _lpMonster$[ebp]
  0266b	0f b6 82 46 01
	00 00		 movzx	 eax, BYTE PTR [edx+326]
  02672	50		 push	 eax
  02673	8b 4d f0	 mov	 ecx, DWORD PTR _lpMonster$[ebp]
  02676	0f b6 91 44 01
	00 00		 movzx	 edx, BYTE PTR [ecx+324]
  0267d	52		 push	 edx
  0267e	8b 45 f0	 mov	 eax, DWORD PTR _lpMonster$[ebp]
  02681	0f b6 88 49 01
	00 00		 movzx	 ecx, BYTE PTR [eax+329]
  02688	51		 push	 ecx
  02689	8b 55 0c	 mov	 edx, DWORD PTR _aIndexUser$[ebp]
  0268c	52		 push	 edx
  0268d	e8 00 00 00 00	 call	 ?ItemSerialCreateSend@@YAXHEEEHEEEEEHEE@Z ; ItemSerialCreateSend
  02692	83 c4 34	 add	 esp, 52			; 00000034H

; 628  : 									Result = true;

  02695	c6 45 fb 01	 mov	 BYTE PTR _Result$[ebp], 1
$LN7@MonsterKil:

; 629  : 								}
; 630  : 							}
; 631  : 						}
; 632  : 					}
; 633  : 				}
; 634  : 			}

  02699	e9 db fb ff ff	 jmp	 $LN17@MonsterKil
$LN19@MonsterKil:

; 635  : 		}
; 636  : 	}

  0269e	e9 93 fb ff ff	 jmp	 $LN21@MonsterKil
$LN20@MonsterKil:

; 637  : 
; 638  : #if(EW_NEW_DROP==TRUE)
; 639  : 	if(this->NewDrop(aIndexUser, aIndexMonster))

  026a3	8b 45 08	 mov	 eax, DWORD PTR _aIndexMonster$[ebp]
  026a6	50		 push	 eax
  026a7	8b 4d 0c	 mov	 ecx, DWORD PTR _aIndexUser$[ebp]
  026aa	51		 push	 ecx
  026ab	8b 4d fc	 mov	 ecx, DWORD PTR _this$[ebp]
  026ae	e8 00 00 00 00	 call	 ?NewDrop@ExWinQuestSystem@@QAE_NHH@Z ; ExWinQuestSystem::NewDrop
  026b3	0f b6 d0	 movzx	 edx, al
  026b6	85 d2		 test	 edx, edx
  026b8	74 04		 je	 SHORT $LN1@MonsterKil

; 640  : 	{
; 641  : 		Result = true;

  026ba	c6 45 fb 01	 mov	 BYTE PTR _Result$[ebp], 1
$LN1@MonsterKil:

; 642  : 	}
; 643  : #endif
; 644  : 
; 645  : 	return Result;

  026be	8a 45 fb	 mov	 al, BYTE PTR _Result$[ebp]
$LN24@MonsterKil:

; 646  : }

  026c1	5f		 pop	 edi
  026c2	5e		 pop	 esi
  026c3	5b		 pop	 ebx
  026c4	8b e5		 mov	 esp, ebp
  026c6	5d		 pop	 ebp
  026c7	c2 08 00	 ret	 8
?MonsterKiller@ExWinQuestSystem@@QAE_NHH@Z ENDP		; ExWinQuestSystem::MonsterKiller
_TEXT	ENDS
PUBLIC	?PickUpItem@ExWinQuestSystem@@QAEHHH@Z		; ExWinQuestSystem::PickUpItem
; Function compile flags: /Odtp /ZI
_TEXT	SEGMENT
_m$229211 = -20						; size = 4
_a$229206 = -16						; size = 4
_lpUser$ = -12						; size = 4
_n$ = -8						; size = 4
_this$ = -4						; size = 4
_aIndex$ = 8						; size = 4
_ItemType$ = 12						; size = 4
?PickUpItem@ExWinQuestSystem@@QAEHHH@Z PROC		; ExWinQuestSystem::PickUpItem
; _this$ = ecx

; 650  : {

  026d0	55		 push	 ebp
  026d1	8b ec		 mov	 ebp, esp
  026d3	83 ec 54	 sub	 esp, 84			; 00000054H
  026d6	53		 push	 ebx
  026d7	56		 push	 esi
  026d8	57		 push	 edi
  026d9	89 4d fc	 mov	 DWORD PTR _this$[ebp], ecx

; 651  : 	if(!this->Enable)

  026dc	8b 45 fc	 mov	 eax, DWORD PTR _this$[ebp]
  026df	0f b6 08	 movzx	 ecx, BYTE PTR [eax]
  026e2	85 c9		 test	 ecx, ecx
  026e4	75 07		 jne	 SHORT $LN12@PickUpItem

; 652  : 	{
; 653  :  		return 0;

  026e6	33 c0		 xor	 eax, eax
  026e8	e9 cf 01 00 00	 jmp	 $LN13@PickUpItem
$LN12@PickUpItem:

; 654  : 	}
; 655  : 
; 656  : 	int n = 0;

  026ed	c7 45 f8 00 00
	00 00		 mov	 DWORD PTR _n$[ebp], 0

; 657  : 	LPOBJ lpUser = &gObj[aIndex];

  026f4	8b 45 08	 mov	 eax, DWORD PTR _aIndex$[ebp]
  026f7	69 c0 38 2b 00
	00		 imul	 eax, 11064		; 00002b38H
  026fd	03 05 00 00 00
	00		 add	 eax, DWORD PTR ?gObj@@3PAUOBJECTSTRUCT@@A ; gObj
  02703	89 45 f4	 mov	 DWORD PTR _lpUser$[ebp], eax

; 658  : 
; 659  : 	for(int a = 0; a < EW_MAX_ACT; a++)

  02706	c7 45 f0 00 00
	00 00		 mov	 DWORD PTR _a$229206[ebp], 0
  0270d	eb 09		 jmp	 SHORT $LN11@PickUpItem
$LN10@PickUpItem:
  0270f	8b 45 f0	 mov	 eax, DWORD PTR _a$229206[ebp]
  02712	83 c0 01	 add	 eax, 1
  02715	89 45 f0	 mov	 DWORD PTR _a$229206[ebp], eax
$LN11@PickUpItem:
  02718	83 7d f0 03	 cmp	 DWORD PTR _a$229206[ebp], 3
  0271c	0f 8d 98 01 00
	00		 jge	 $LN9@PickUpItem

; 660  : 	{
; 661  : 		n = lpUser->ExWQuestNum[a];

  02722	8b 45 f0	 mov	 eax, DWORD PTR _a$229206[ebp]
  02725	8b 4d f4	 mov	 ecx, DWORD PTR _lpUser$[ebp]
  02728	0f b7 94 41 f0
	2a 00 00	 movzx	 edx, WORD PTR [ecx+eax*2+10992]
  02730	89 55 f8	 mov	 DWORD PTR _n$[ebp], edx

; 662  : 
; 663  : 		if(lpUser->ExWQuestStart[a] == TRUE)

  02733	8b 45 f4	 mov	 eax, DWORD PTR _lpUser$[ebp]
  02736	03 45 f0	 add	 eax, DWORD PTR _a$229206[ebp]
  02739	0f b6 88 ec 2a
	00 00		 movzx	 ecx, BYTE PTR [eax+10988]
  02740	83 f9 01	 cmp	 ecx, 1
  02743	0f 85 6c 01 00
	00		 jne	 $LN8@PickUpItem

; 664  : 		{
; 665  : 			for(int m = 0; m < EW_MAX_MISSION; m++)

  02749	c7 45 ec 00 00
	00 00		 mov	 DWORD PTR _m$229211[ebp], 0
  02750	eb 09		 jmp	 SHORT $LN7@PickUpItem
$LN6@PickUpItem:
  02752	8b 45 ec	 mov	 eax, DWORD PTR _m$229211[ebp]
  02755	83 c0 01	 add	 eax, 1
  02758	89 45 ec	 mov	 DWORD PTR _m$229211[ebp], eax
$LN7@PickUpItem:
  0275b	83 7d ec 05	 cmp	 DWORD PTR _m$229211[ebp], 5
  0275f	0f 8d 50 01 00
	00		 jge	 $LN8@PickUpItem

; 666  : 			{
; 667  : 				if( this->ewdata[a][n].MissionType[m] == Droping && 
; 668  : 					ITEMGET(this->ewdata[a][n].MissionID[m], this->ewdata[a][n].MissionIndex[m]) == ItemType )

  02765	8b 45 f0	 mov	 eax, DWORD PTR _a$229206[ebp]
  02768	69 c0 c0 c2 04
	00		 imul	 eax, 312000		; 0004c2c0H
  0276e	8b 4d fc	 mov	 ecx, DWORD PTR _this$[ebp]
  02771	8d 54 01 14	 lea	 edx, DWORD PTR [ecx+eax+20]
  02775	8b 45 f8	 mov	 eax, DWORD PTR _n$[ebp]
  02778	69 c0 38 01 00
	00		 imul	 eax, 312		; 00000138H
  0277e	03 d0		 add	 edx, eax
  02780	8b 4d ec	 mov	 ecx, DWORD PTR _m$229211[ebp]
  02783	83 7c 8a 48 02	 cmp	 DWORD PTR [edx+ecx*4+72], 2
  02788	0f 85 22 01 00
	00		 jne	 $LN4@PickUpItem
  0278e	8b 45 f0	 mov	 eax, DWORD PTR _a$229206[ebp]
  02791	69 c0 c0 c2 04
	00		 imul	 eax, 312000		; 0004c2c0H
  02797	8b 4d fc	 mov	 ecx, DWORD PTR _this$[ebp]
  0279a	8d 54 01 14	 lea	 edx, DWORD PTR [ecx+eax+20]
  0279e	8b 45 f8	 mov	 eax, DWORD PTR _n$[ebp]
  027a1	69 c0 38 01 00
	00		 imul	 eax, 312		; 00000138H
  027a7	03 d0		 add	 edx, eax
  027a9	8b 4d ec	 mov	 ecx, DWORD PTR _m$229211[ebp]
  027ac	8b 54 8a 5c	 mov	 edx, DWORD PTR [edx+ecx*4+92]
  027b0	c1 e2 09	 shl	 edx, 9
  027b3	8b 45 f0	 mov	 eax, DWORD PTR _a$229206[ebp]
  027b6	69 c0 c0 c2 04
	00		 imul	 eax, 312000		; 0004c2c0H
  027bc	8b 4d fc	 mov	 ecx, DWORD PTR _this$[ebp]
  027bf	8d 44 01 14	 lea	 eax, DWORD PTR [ecx+eax+20]
  027c3	8b 4d f8	 mov	 ecx, DWORD PTR _n$[ebp]
  027c6	69 c9 38 01 00
	00		 imul	 ecx, 312		; 00000138H
  027cc	03 c1		 add	 eax, ecx
  027ce	8b 4d ec	 mov	 ecx, DWORD PTR _m$229211[ebp]
  027d1	03 54 88 70	 add	 edx, DWORD PTR [eax+ecx*4+112]
  027d5	3b 55 0c	 cmp	 edx, DWORD PTR _ItemType$[ebp]
  027d8	0f 85 d2 00 00
	00		 jne	 $LN4@PickUpItem

; 669  : 				{
; 670  : 					if(this->ewdata[a][n].MissionCount[m] > lpUser->ExWQuestCount[a][m])

  027de	8b 45 f0	 mov	 eax, DWORD PTR _a$229206[ebp]
  027e1	69 c0 c0 c2 04
	00		 imul	 eax, 312000		; 0004c2c0H
  027e7	8b 4d fc	 mov	 ecx, DWORD PTR _this$[ebp]
  027ea	8d 54 01 14	 lea	 edx, DWORD PTR [ecx+eax+20]
  027ee	8b 45 f8	 mov	 eax, DWORD PTR _n$[ebp]
  027f1	69 c0 38 01 00
	00		 imul	 eax, 312		; 00000138H
  027f7	03 d0		 add	 edx, eax
  027f9	8b 4d f0	 mov	 ecx, DWORD PTR _a$229206[ebp]
  027fc	6b c9 0a	 imul	 ecx, 10			; 0000000aH
  027ff	8b 45 f4	 mov	 eax, DWORD PTR _lpUser$[ebp]
  02802	8d 8c 08 f6 2a
	00 00		 lea	 ecx, DWORD PTR [eax+ecx+10998]
  02809	8b 45 ec	 mov	 eax, DWORD PTR _m$229211[ebp]
  0280c	0f b7 0c 41	 movzx	 ecx, WORD PTR [ecx+eax*2]
  02810	8b 45 ec	 mov	 eax, DWORD PTR _m$229211[ebp]
  02813	39 8c 82 d4 00
	00 00		 cmp	 DWORD PTR [edx+eax*4+212], ecx
  0281a	7e 4f		 jle	 SHORT $LN3@PickUpItem

; 671  : 					{
; 672  : 						lpUser->ExWQuestCount[a][m]++;

  0281c	8b 45 f0	 mov	 eax, DWORD PTR _a$229206[ebp]
  0281f	6b c0 0a	 imul	 eax, 10			; 0000000aH
  02822	8b 4d f4	 mov	 ecx, DWORD PTR _lpUser$[ebp]
  02825	8d 94 01 f6 2a
	00 00		 lea	 edx, DWORD PTR [ecx+eax+10998]
  0282c	8b 45 ec	 mov	 eax, DWORD PTR _m$229211[ebp]
  0282f	66 8b 0c 42	 mov	 cx, WORD PTR [edx+eax*2]
  02833	66 83 c1 01	 add	 cx, 1
  02837	8b 55 f0	 mov	 edx, DWORD PTR _a$229206[ebp]
  0283a	6b d2 0a	 imul	 edx, 10			; 0000000aH
  0283d	8b 45 f4	 mov	 eax, DWORD PTR _lpUser$[ebp]
  02840	8d 94 10 f6 2a
	00 00		 lea	 edx, DWORD PTR [eax+edx+10998]
  02847	8b 45 ec	 mov	 eax, DWORD PTR _m$229211[ebp]
  0284a	66 89 0c 42	 mov	 WORD PTR [edx+eax*2], cx

; 673  : 						this->GC_MiniInfoEx(aIndex, a, m);

  0284e	8b 45 ec	 mov	 eax, DWORD PTR _m$229211[ebp]
  02851	50		 push	 eax
  02852	8b 4d f0	 mov	 ecx, DWORD PTR _a$229206[ebp]
  02855	51		 push	 ecx
  02856	8b 55 08	 mov	 edx, DWORD PTR _aIndex$[ebp]
  02859	52		 push	 edx
  0285a	8b 4d fc	 mov	 ecx, DWORD PTR _this$[ebp]
  0285d	e8 00 00 00 00	 call	 ?GC_MiniInfoEx@ExWinQuestSystem@@QAEXHHH@Z ; ExWinQuestSystem::GC_MiniInfoEx

; 674  : 						return 1;

  02862	b8 01 00 00 00	 mov	 eax, 1
  02867	eb 53		 jmp	 SHORT $LN13@PickUpItem
  02869	eb 45		 jmp	 SHORT $LN4@PickUpItem
$LN3@PickUpItem:

; 675  : 					}
; 676  : 					else if(lpUser->ExWQuestCount[a][m] >= this->ewdata[a][n].MissionCount[m])

  0286b	8b 45 f0	 mov	 eax, DWORD PTR _a$229206[ebp]
  0286e	6b c0 0a	 imul	 eax, 10			; 0000000aH
  02871	8b 4d f4	 mov	 ecx, DWORD PTR _lpUser$[ebp]
  02874	8d 94 01 f6 2a
	00 00		 lea	 edx, DWORD PTR [ecx+eax+10998]
  0287b	8b 45 ec	 mov	 eax, DWORD PTR _m$229211[ebp]
  0287e	0f b7 0c 42	 movzx	 ecx, WORD PTR [edx+eax*2]
  02882	8b 55 f0	 mov	 edx, DWORD PTR _a$229206[ebp]
  02885	69 d2 c0 c2 04
	00		 imul	 edx, 312000		; 0004c2c0H
  0288b	8b 45 fc	 mov	 eax, DWORD PTR _this$[ebp]
  0288e	8d 54 10 14	 lea	 edx, DWORD PTR [eax+edx+20]
  02892	8b 45 f8	 mov	 eax, DWORD PTR _n$[ebp]
  02895	69 c0 38 01 00
	00		 imul	 eax, 312		; 00000138H
  0289b	03 d0		 add	 edx, eax
  0289d	8b 45 ec	 mov	 eax, DWORD PTR _m$229211[ebp]
  028a0	3b 8c 82 d4 00
	00 00		 cmp	 ecx, DWORD PTR [edx+eax*4+212]
  028a7	7c 07		 jl	 SHORT $LN4@PickUpItem

; 677  : 					{
; 678  : 						return 2;

  028a9	b8 02 00 00 00	 mov	 eax, 2
  028ae	eb 0c		 jmp	 SHORT $LN13@PickUpItem
$LN4@PickUpItem:

; 679  : 					}
; 680  : 				}
; 681  : 			}

  028b0	e9 9d fe ff ff	 jmp	 $LN6@PickUpItem
$LN8@PickUpItem:

; 682  : 		}
; 683  : 	}

  028b5	e9 55 fe ff ff	 jmp	 $LN10@PickUpItem
$LN9@PickUpItem:

; 684  : 
; 685  : 	return 0;

  028ba	33 c0		 xor	 eax, eax
$LN13@PickUpItem:

; 686  : }

  028bc	5f		 pop	 edi
  028bd	5e		 pop	 esi
  028be	5b		 pop	 ebx
  028bf	8b e5		 mov	 esp, ebp
  028c1	5d		 pop	 ebp
  028c2	c2 08 00	 ret	 8
?PickUpItem@ExWinQuestSystem@@QAEHHH@Z ENDP		; ExWinQuestSystem::PickUpItem
_TEXT	ENDS
EXTRN	?CheckOptionItem@@YA_NHHH@Z:PROC		; CheckOptionItem
; Function compile flags: /Odtp /ZI
_TEXT	SEGMENT
_i$229232 = -36						; size = 4
_iExl$ = -32						; size = 2
_iOpt$ = -28						; size = 2
_iLuck$ = -24						; size = 2
_iLevel$ = -20						; size = 2
_iType$ = -16						; size = 2
_n$ = -12						; size = 4
_lpUser$ = -8						; size = 4
_this$ = -4						; size = 4
_aIndex$ = 8						; size = 4
_a$ = 12						; size = 4
_m$ = 16						; size = 4
?SearchItem@ExWinQuestSystem@@QAE_NHHH@Z PROC		; ExWinQuestSystem::SearchItem
; _this$ = ecx

; 690  : {

  028d0	55		 push	 ebp
  028d1	8b ec		 mov	 ebp, esp
  028d3	83 ec 64	 sub	 esp, 100		; 00000064H
  028d6	53		 push	 ebx
  028d7	56		 push	 esi
  028d8	57		 push	 edi
  028d9	89 4d fc	 mov	 DWORD PTR _this$[ebp], ecx

; 691  : 	LPOBJ lpUser = &gObj[aIndex];

  028dc	8b 45 08	 mov	 eax, DWORD PTR _aIndex$[ebp]
  028df	69 c0 38 2b 00
	00		 imul	 eax, 11064		; 00002b38H
  028e5	03 05 00 00 00
	00		 add	 eax, DWORD PTR ?gObj@@3PAUOBJECTSTRUCT@@A ; gObj
  028eb	89 45 f8	 mov	 DWORD PTR _lpUser$[ebp], eax

; 692  : 
; 693  : 	int n = lpUser->ExWQuestNum[a];

  028ee	8b 45 0c	 mov	 eax, DWORD PTR _a$[ebp]
  028f1	8b 4d f8	 mov	 ecx, DWORD PTR _lpUser$[ebp]
  028f4	0f b7 94 41 f0
	2a 00 00	 movzx	 edx, WORD PTR [ecx+eax*2+10992]
  028fc	89 55 f4	 mov	 DWORD PTR _n$[ebp], edx

; 694  : 
; 695  : 	short iType = ITEMGET(this->ewdata[a][n].MissionID[m], this->ewdata[a][n].MissionIndex[m]);

  028ff	8b 45 0c	 mov	 eax, DWORD PTR _a$[ebp]
  02902	69 c0 c0 c2 04
	00		 imul	 eax, 312000		; 0004c2c0H
  02908	8b 4d fc	 mov	 ecx, DWORD PTR _this$[ebp]
  0290b	8d 54 01 14	 lea	 edx, DWORD PTR [ecx+eax+20]
  0290f	8b 45 f4	 mov	 eax, DWORD PTR _n$[ebp]
  02912	69 c0 38 01 00
	00		 imul	 eax, 312		; 00000138H
  02918	03 d0		 add	 edx, eax
  0291a	8b 4d 10	 mov	 ecx, DWORD PTR _m$[ebp]
  0291d	8b 54 8a 5c	 mov	 edx, DWORD PTR [edx+ecx*4+92]
  02921	c1 e2 09	 shl	 edx, 9
  02924	8b 45 0c	 mov	 eax, DWORD PTR _a$[ebp]
  02927	69 c0 c0 c2 04
	00		 imul	 eax, 312000		; 0004c2c0H
  0292d	8b 4d fc	 mov	 ecx, DWORD PTR _this$[ebp]
  02930	8d 44 01 14	 lea	 eax, DWORD PTR [ecx+eax+20]
  02934	8b 4d f4	 mov	 ecx, DWORD PTR _n$[ebp]
  02937	69 c9 38 01 00
	00		 imul	 ecx, 312		; 00000138H
  0293d	03 c1		 add	 eax, ecx
  0293f	8b 4d 10	 mov	 ecx, DWORD PTR _m$[ebp]
  02942	03 54 88 70	 add	 edx, DWORD PTR [eax+ecx*4+112]
  02946	66 89 55 f0	 mov	 WORD PTR _iType$[ebp], dx

; 696  : 	short iLevel = this->ewdata[a][n].MissionLevel[m];

  0294a	8b 45 0c	 mov	 eax, DWORD PTR _a$[ebp]
  0294d	69 c0 c0 c2 04
	00		 imul	 eax, 312000		; 0004c2c0H
  02953	8b 4d fc	 mov	 ecx, DWORD PTR _this$[ebp]
  02956	8d 54 01 14	 lea	 edx, DWORD PTR [ecx+eax+20]
  0295a	8b 45 f4	 mov	 eax, DWORD PTR _n$[ebp]
  0295d	69 c0 38 01 00
	00		 imul	 eax, 312		; 00000138H
  02963	03 d0		 add	 edx, eax
  02965	8b 4d 10	 mov	 ecx, DWORD PTR _m$[ebp]
  02968	66 8b 94 8a 84
	00 00 00	 mov	 dx, WORD PTR [edx+ecx*4+132]
  02970	66 89 55 ec	 mov	 WORD PTR _iLevel$[ebp], dx

; 697  : 	short iLuck = this->ewdata[a][n].MissionLuck[m];

  02974	8b 45 0c	 mov	 eax, DWORD PTR _a$[ebp]
  02977	69 c0 c0 c2 04
	00		 imul	 eax, 312000		; 0004c2c0H
  0297d	8b 4d fc	 mov	 ecx, DWORD PTR _this$[ebp]
  02980	8d 54 01 14	 lea	 edx, DWORD PTR [ecx+eax+20]
  02984	8b 45 f4	 mov	 eax, DWORD PTR _n$[ebp]
  02987	69 c0 38 01 00
	00		 imul	 eax, 312		; 00000138H
  0298d	03 d0		 add	 edx, eax
  0298f	8b 4d 10	 mov	 ecx, DWORD PTR _m$[ebp]
  02992	66 8b 94 8a 98
	00 00 00	 mov	 dx, WORD PTR [edx+ecx*4+152]
  0299a	66 89 55 e8	 mov	 WORD PTR _iLuck$[ebp], dx

; 698  : 	short iOpt =  this->ewdata[a][n].MissionOpt[m];

  0299e	8b 45 0c	 mov	 eax, DWORD PTR _a$[ebp]
  029a1	69 c0 c0 c2 04
	00		 imul	 eax, 312000		; 0004c2c0H
  029a7	8b 4d fc	 mov	 ecx, DWORD PTR _this$[ebp]
  029aa	8d 54 01 14	 lea	 edx, DWORD PTR [ecx+eax+20]
  029ae	8b 45 f4	 mov	 eax, DWORD PTR _n$[ebp]
  029b1	69 c0 38 01 00
	00		 imul	 eax, 312		; 00000138H
  029b7	03 d0		 add	 edx, eax
  029b9	8b 4d 10	 mov	 ecx, DWORD PTR _m$[ebp]
  029bc	66 8b 94 8a ac
	00 00 00	 mov	 dx, WORD PTR [edx+ecx*4+172]
  029c4	66 89 55 e4	 mov	 WORD PTR _iOpt$[ebp], dx

; 699  : 	short iExl = this->ewdata[a][n].MissionExl[m];

  029c8	8b 45 0c	 mov	 eax, DWORD PTR _a$[ebp]
  029cb	69 c0 c0 c2 04
	00		 imul	 eax, 312000		; 0004c2c0H
  029d1	8b 4d fc	 mov	 ecx, DWORD PTR _this$[ebp]
  029d4	8d 54 01 14	 lea	 edx, DWORD PTR [ecx+eax+20]
  029d8	8b 45 f4	 mov	 eax, DWORD PTR _n$[ebp]
  029db	69 c0 38 01 00
	00		 imul	 eax, 312		; 00000138H
  029e1	03 d0		 add	 edx, eax
  029e3	8b 4d 10	 mov	 ecx, DWORD PTR _m$[ebp]
  029e6	66 8b 94 8a c0
	00 00 00	 mov	 dx, WORD PTR [edx+ecx*4+192]
  029ee	66 89 55 e0	 mov	 WORD PTR _iExl$[ebp], dx

; 700  : 
; 701  : 	for (int i = INVETORY_WEAR_SIZE; i < INVENTORY_SIZE; i++)

  029f2	c7 45 dc 0c 00
	00 00		 mov	 DWORD PTR _i$229232[ebp], 12 ; 0000000cH
  029f9	eb 09		 jmp	 SHORT $LN4@SearchItem
$LN3@SearchItem:
  029fb	8b 45 dc	 mov	 eax, DWORD PTR _i$229232[ebp]
  029fe	83 c0 01	 add	 eax, 1
  02a01	89 45 dc	 mov	 DWORD PTR _i$229232[ebp], eax
$LN4@SearchItem:
  02a04	81 7d dc ec 00
	00 00		 cmp	 DWORD PTR _i$229232[ebp], 236 ; 000000ecH
  02a0b	0f 8d e2 00 00
	00		 jge	 $LN2@SearchItem

; 702  : 	{
; 703  : 		if( lpUser->pInventory[i].m_Type == iType && 
; 704  : 			lpUser->pInventory[i].m_Level >= iLevel &&
; 705  : 			CheckOptionItem(lpUser->pInventory[i].m_Option2, iLuck, FALSE) &&
; 706  : 			CheckOptionItem(lpUser->pInventory[i].m_Option3, iOpt, FALSE) &&
; 707  : 			CheckOptionItem(lpUser->pInventory[i].m_NewOption, iExl, FALSE) )

  02a11	8b 45 dc	 mov	 eax, DWORD PTR _i$229232[ebp]
  02a14	69 c0 d4 00 00
	00		 imul	 eax, 212		; 000000d4H
  02a1a	8b 4d f8	 mov	 ecx, DWORD PTR _lpUser$[ebp]
  02a1d	8b 91 24 0e 00
	00		 mov	 edx, DWORD PTR [ecx+3620]
  02a23	0f bf 44 02 06	 movsx	 eax, WORD PTR [edx+eax+6]
  02a28	0f bf 4d f0	 movsx	 ecx, WORD PTR _iType$[ebp]
  02a2c	3b c1		 cmp	 eax, ecx
  02a2e	0f 85 ba 00 00
	00		 jne	 $LN1@SearchItem
  02a34	8b 45 dc	 mov	 eax, DWORD PTR _i$229232[ebp]
  02a37	69 c0 d4 00 00
	00		 imul	 eax, 212		; 000000d4H
  02a3d	8b 4d f8	 mov	 ecx, DWORD PTR _lpUser$[ebp]
  02a40	8b 91 24 0e 00
	00		 mov	 edx, DWORD PTR [ecx+3620]
  02a46	0f bf 44 02 08	 movsx	 eax, WORD PTR [edx+eax+8]
  02a4b	0f bf 4d ec	 movsx	 ecx, WORD PTR _iLevel$[ebp]
  02a4f	3b c1		 cmp	 eax, ecx
  02a51	0f 8c 97 00 00
	00		 jl	 $LN1@SearchItem
  02a57	6a 00		 push	 0
  02a59	0f bf 45 e8	 movsx	 eax, WORD PTR _iLuck$[ebp]
  02a5d	50		 push	 eax
  02a5e	8b 4d dc	 mov	 ecx, DWORD PTR _i$229232[ebp]
  02a61	69 c9 d4 00 00
	00		 imul	 ecx, 212		; 000000d4H
  02a67	8b 55 f8	 mov	 edx, DWORD PTR _lpUser$[ebp]
  02a6a	8b 82 24 0e 00
	00		 mov	 eax, DWORD PTR [edx+3620]
  02a70	0f b6 8c 08 95
	00 00 00	 movzx	 ecx, BYTE PTR [eax+ecx+149]
  02a78	51		 push	 ecx
  02a79	e8 00 00 00 00	 call	 ?CheckOptionItem@@YA_NHHH@Z ; CheckOptionItem
  02a7e	83 c4 0c	 add	 esp, 12			; 0000000cH
  02a81	0f b6 d0	 movzx	 edx, al
  02a84	85 d2		 test	 edx, edx
  02a86	74 66		 je	 SHORT $LN1@SearchItem
  02a88	6a 00		 push	 0
  02a8a	0f bf 45 e4	 movsx	 eax, WORD PTR _iOpt$[ebp]
  02a8e	50		 push	 eax
  02a8f	8b 4d dc	 mov	 ecx, DWORD PTR _i$229232[ebp]
  02a92	69 c9 d4 00 00
	00		 imul	 ecx, 212		; 000000d4H
  02a98	8b 55 f8	 mov	 edx, DWORD PTR _lpUser$[ebp]
  02a9b	8b 82 24 0e 00
	00		 mov	 eax, DWORD PTR [edx+3620]
  02aa1	0f b6 8c 08 96
	00 00 00	 movzx	 ecx, BYTE PTR [eax+ecx+150]
  02aa9	51		 push	 ecx
  02aaa	e8 00 00 00 00	 call	 ?CheckOptionItem@@YA_NHHH@Z ; CheckOptionItem
  02aaf	83 c4 0c	 add	 esp, 12			; 0000000cH
  02ab2	0f b6 d0	 movzx	 edx, al
  02ab5	85 d2		 test	 edx, edx
  02ab7	74 35		 je	 SHORT $LN1@SearchItem
  02ab9	6a 00		 push	 0
  02abb	0f bf 45 e0	 movsx	 eax, WORD PTR _iExl$[ebp]
  02abf	50		 push	 eax
  02ac0	8b 4d dc	 mov	 ecx, DWORD PTR _i$229232[ebp]
  02ac3	69 c9 d4 00 00
	00		 imul	 ecx, 212		; 000000d4H
  02ac9	8b 55 f8	 mov	 edx, DWORD PTR _lpUser$[ebp]
  02acc	8b 82 24 0e 00
	00		 mov	 eax, DWORD PTR [edx+3620]
  02ad2	0f b6 8c 08 97
	00 00 00	 movzx	 ecx, BYTE PTR [eax+ecx+151]
  02ada	51		 push	 ecx
  02adb	e8 00 00 00 00	 call	 ?CheckOptionItem@@YA_NHHH@Z ; CheckOptionItem
  02ae0	83 c4 0c	 add	 esp, 12			; 0000000cH
  02ae3	0f b6 d0	 movzx	 edx, al
  02ae6	85 d2		 test	 edx, edx
  02ae8	74 04		 je	 SHORT $LN1@SearchItem

; 708  : 		{
; 709  : 			return true;

  02aea	b0 01		 mov	 al, 1
  02aec	eb 07		 jmp	 SHORT $LN5@SearchItem
$LN1@SearchItem:

; 710  : 		}
; 711  : 	}

  02aee	e9 08 ff ff ff	 jmp	 $LN3@SearchItem
$LN2@SearchItem:

; 712  : 
; 713  : 	return false;

  02af3	32 c0		 xor	 al, al
$LN5@SearchItem:

; 714  : }

  02af5	5f		 pop	 edi
  02af6	5e		 pop	 esi
  02af7	5b		 pop	 ebx
  02af8	8b e5		 mov	 esp, ebp
  02afa	5d		 pop	 ebp
  02afb	c2 0c 00	 ret	 12			; 0000000cH
?SearchItem@ExWinQuestSystem@@QAE_NHHH@Z ENDP		; ExWinQuestSystem::SearchItem
_TEXT	ENDS
PUBLIC	?DeleteItem@ExWinQuestSystem@@QAEXHHH@Z		; ExWinQuestSystem::DeleteItem
EXTRN	?GCInventoryItemDeleteSend@@YAXHEE@Z:PROC	; GCInventoryItemDeleteSend
EXTRN	?gObjInventoryDeleteItem@@YAEHH@Z:PROC		; gObjInventoryDeleteItem
; Function compile flags: /Odtp /ZI
_TEXT	SEGMENT
_i$229250 = -36						; size = 4
_iExl$ = -32						; size = 2
_iOpt$ = -28						; size = 2
_iLuck$ = -24						; size = 2
_iLevel$ = -20						; size = 2
_iType$ = -16						; size = 2
_n$ = -12						; size = 4
_lpUser$ = -8						; size = 4
_this$ = -4						; size = 4
_aIndex$ = 8						; size = 4
_a$ = 12						; size = 4
_m$ = 16						; size = 4
?DeleteItem@ExWinQuestSystem@@QAEXHHH@Z PROC		; ExWinQuestSystem::DeleteItem
; _this$ = ecx

; 718  : {

  02b00	55		 push	 ebp
  02b01	8b ec		 mov	 ebp, esp
  02b03	83 ec 64	 sub	 esp, 100		; 00000064H
  02b06	53		 push	 ebx
  02b07	56		 push	 esi
  02b08	57		 push	 edi
  02b09	89 4d fc	 mov	 DWORD PTR _this$[ebp], ecx

; 719  : 	LPOBJ lpUser = &gObj[aIndex];

  02b0c	8b 45 08	 mov	 eax, DWORD PTR _aIndex$[ebp]
  02b0f	69 c0 38 2b 00
	00		 imul	 eax, 11064		; 00002b38H
  02b15	03 05 00 00 00
	00		 add	 eax, DWORD PTR ?gObj@@3PAUOBJECTSTRUCT@@A ; gObj
  02b1b	89 45 f8	 mov	 DWORD PTR _lpUser$[ebp], eax

; 720  : 
; 721  : 	int n = lpUser->ExWQuestNum[a];

  02b1e	8b 45 0c	 mov	 eax, DWORD PTR _a$[ebp]
  02b21	8b 4d f8	 mov	 ecx, DWORD PTR _lpUser$[ebp]
  02b24	0f b7 94 41 f0
	2a 00 00	 movzx	 edx, WORD PTR [ecx+eax*2+10992]
  02b2c	89 55 f4	 mov	 DWORD PTR _n$[ebp], edx

; 722  : 
; 723  : 	short iType = ITEMGET(this->ewdata[a][n].MissionID[m], this->ewdata[a][n].MissionIndex[m]);

  02b2f	8b 45 0c	 mov	 eax, DWORD PTR _a$[ebp]
  02b32	69 c0 c0 c2 04
	00		 imul	 eax, 312000		; 0004c2c0H
  02b38	8b 4d fc	 mov	 ecx, DWORD PTR _this$[ebp]
  02b3b	8d 54 01 14	 lea	 edx, DWORD PTR [ecx+eax+20]
  02b3f	8b 45 f4	 mov	 eax, DWORD PTR _n$[ebp]
  02b42	69 c0 38 01 00
	00		 imul	 eax, 312		; 00000138H
  02b48	03 d0		 add	 edx, eax
  02b4a	8b 4d 10	 mov	 ecx, DWORD PTR _m$[ebp]
  02b4d	8b 54 8a 5c	 mov	 edx, DWORD PTR [edx+ecx*4+92]
  02b51	c1 e2 09	 shl	 edx, 9
  02b54	8b 45 0c	 mov	 eax, DWORD PTR _a$[ebp]
  02b57	69 c0 c0 c2 04
	00		 imul	 eax, 312000		; 0004c2c0H
  02b5d	8b 4d fc	 mov	 ecx, DWORD PTR _this$[ebp]
  02b60	8d 44 01 14	 lea	 eax, DWORD PTR [ecx+eax+20]
  02b64	8b 4d f4	 mov	 ecx, DWORD PTR _n$[ebp]
  02b67	69 c9 38 01 00
	00		 imul	 ecx, 312		; 00000138H
  02b6d	03 c1		 add	 eax, ecx
  02b6f	8b 4d 10	 mov	 ecx, DWORD PTR _m$[ebp]
  02b72	03 54 88 70	 add	 edx, DWORD PTR [eax+ecx*4+112]
  02b76	66 89 55 f0	 mov	 WORD PTR _iType$[ebp], dx

; 724  : 	short iLevel = this->ewdata[a][n].MissionLevel[m];

  02b7a	8b 45 0c	 mov	 eax, DWORD PTR _a$[ebp]
  02b7d	69 c0 c0 c2 04
	00		 imul	 eax, 312000		; 0004c2c0H
  02b83	8b 4d fc	 mov	 ecx, DWORD PTR _this$[ebp]
  02b86	8d 54 01 14	 lea	 edx, DWORD PTR [ecx+eax+20]
  02b8a	8b 45 f4	 mov	 eax, DWORD PTR _n$[ebp]
  02b8d	69 c0 38 01 00
	00		 imul	 eax, 312		; 00000138H
  02b93	03 d0		 add	 edx, eax
  02b95	8b 4d 10	 mov	 ecx, DWORD PTR _m$[ebp]
  02b98	66 8b 94 8a 84
	00 00 00	 mov	 dx, WORD PTR [edx+ecx*4+132]
  02ba0	66 89 55 ec	 mov	 WORD PTR _iLevel$[ebp], dx

; 725  : 	short iLuck = this->ewdata[a][n].MissionLuck[m];

  02ba4	8b 45 0c	 mov	 eax, DWORD PTR _a$[ebp]
  02ba7	69 c0 c0 c2 04
	00		 imul	 eax, 312000		; 0004c2c0H
  02bad	8b 4d fc	 mov	 ecx, DWORD PTR _this$[ebp]
  02bb0	8d 54 01 14	 lea	 edx, DWORD PTR [ecx+eax+20]
  02bb4	8b 45 f4	 mov	 eax, DWORD PTR _n$[ebp]
  02bb7	69 c0 38 01 00
	00		 imul	 eax, 312		; 00000138H
  02bbd	03 d0		 add	 edx, eax
  02bbf	8b 4d 10	 mov	 ecx, DWORD PTR _m$[ebp]
  02bc2	66 8b 94 8a 98
	00 00 00	 mov	 dx, WORD PTR [edx+ecx*4+152]
  02bca	66 89 55 e8	 mov	 WORD PTR _iLuck$[ebp], dx

; 726  : 	short iOpt =  this->ewdata[a][n].MissionOpt[m];

  02bce	8b 45 0c	 mov	 eax, DWORD PTR _a$[ebp]
  02bd1	69 c0 c0 c2 04
	00		 imul	 eax, 312000		; 0004c2c0H
  02bd7	8b 4d fc	 mov	 ecx, DWORD PTR _this$[ebp]
  02bda	8d 54 01 14	 lea	 edx, DWORD PTR [ecx+eax+20]
  02bde	8b 45 f4	 mov	 eax, DWORD PTR _n$[ebp]
  02be1	69 c0 38 01 00
	00		 imul	 eax, 312		; 00000138H
  02be7	03 d0		 add	 edx, eax
  02be9	8b 4d 10	 mov	 ecx, DWORD PTR _m$[ebp]
  02bec	66 8b 94 8a ac
	00 00 00	 mov	 dx, WORD PTR [edx+ecx*4+172]
  02bf4	66 89 55 e4	 mov	 WORD PTR _iOpt$[ebp], dx

; 727  : 	short iExl = this->ewdata[a][n].MissionExl[m];

  02bf8	8b 45 0c	 mov	 eax, DWORD PTR _a$[ebp]
  02bfb	69 c0 c0 c2 04
	00		 imul	 eax, 312000		; 0004c2c0H
  02c01	8b 4d fc	 mov	 ecx, DWORD PTR _this$[ebp]
  02c04	8d 54 01 14	 lea	 edx, DWORD PTR [ecx+eax+20]
  02c08	8b 45 f4	 mov	 eax, DWORD PTR _n$[ebp]
  02c0b	69 c0 38 01 00
	00		 imul	 eax, 312		; 00000138H
  02c11	03 d0		 add	 edx, eax
  02c13	8b 4d 10	 mov	 ecx, DWORD PTR _m$[ebp]
  02c16	66 8b 94 8a c0
	00 00 00	 mov	 dx, WORD PTR [edx+ecx*4+192]
  02c1e	66 89 55 e0	 mov	 WORD PTR _iExl$[ebp], dx

; 728  : 
; 729  : 	for (int i = INVETORY_WEAR_SIZE; i < INVENTORY_SIZE; i++)

  02c22	c7 45 dc 0c 00
	00 00		 mov	 DWORD PTR _i$229250[ebp], 12 ; 0000000cH
  02c29	eb 09		 jmp	 SHORT $LN4@DeleteItem
$LN3@DeleteItem:
  02c2b	8b 45 dc	 mov	 eax, DWORD PTR _i$229250[ebp]
  02c2e	83 c0 01	 add	 eax, 1
  02c31	89 45 dc	 mov	 DWORD PTR _i$229250[ebp], eax
$LN4@DeleteItem:
  02c34	81 7d dc ec 00
	00 00		 cmp	 DWORD PTR _i$229250[ebp], 236 ; 000000ecH
  02c3b	0f 8d 05 01 00
	00		 jge	 $LN5@DeleteItem

; 730  : 	{
; 731  : 		if( lpUser->pInventory[i].m_Type == iType && 
; 732  : 			lpUser->pInventory[i].m_Level >= iLevel &&
; 733  : 			CheckOptionItem(lpUser->pInventory[i].m_Option2, iLuck, FALSE) &&
; 734  : 			CheckOptionItem(lpUser->pInventory[i].m_Option3, iOpt, FALSE) &&
; 735  : 			CheckOptionItem(lpUser->pInventory[i].m_NewOption, iExl, FALSE) )

  02c41	8b 45 dc	 mov	 eax, DWORD PTR _i$229250[ebp]
  02c44	69 c0 d4 00 00
	00		 imul	 eax, 212		; 000000d4H
  02c4a	8b 4d f8	 mov	 ecx, DWORD PTR _lpUser$[ebp]
  02c4d	8b 91 24 0e 00
	00		 mov	 edx, DWORD PTR [ecx+3620]
  02c53	0f bf 44 02 06	 movsx	 eax, WORD PTR [edx+eax+6]
  02c58	0f bf 4d f0	 movsx	 ecx, WORD PTR _iType$[ebp]
  02c5c	3b c1		 cmp	 eax, ecx
  02c5e	0f 85 dd 00 00
	00		 jne	 $LN1@DeleteItem
  02c64	8b 45 dc	 mov	 eax, DWORD PTR _i$229250[ebp]
  02c67	69 c0 d4 00 00
	00		 imul	 eax, 212		; 000000d4H
  02c6d	8b 4d f8	 mov	 ecx, DWORD PTR _lpUser$[ebp]
  02c70	8b 91 24 0e 00
	00		 mov	 edx, DWORD PTR [ecx+3620]
  02c76	0f bf 44 02 08	 movsx	 eax, WORD PTR [edx+eax+8]
  02c7b	0f bf 4d ec	 movsx	 ecx, WORD PTR _iLevel$[ebp]
  02c7f	3b c1		 cmp	 eax, ecx
  02c81	0f 8c ba 00 00
	00		 jl	 $LN1@DeleteItem
  02c87	6a 00		 push	 0
  02c89	0f bf 45 e8	 movsx	 eax, WORD PTR _iLuck$[ebp]
  02c8d	50		 push	 eax
  02c8e	8b 4d dc	 mov	 ecx, DWORD PTR _i$229250[ebp]
  02c91	69 c9 d4 00 00
	00		 imul	 ecx, 212		; 000000d4H
  02c97	8b 55 f8	 mov	 edx, DWORD PTR _lpUser$[ebp]
  02c9a	8b 82 24 0e 00
	00		 mov	 eax, DWORD PTR [edx+3620]
  02ca0	0f b6 8c 08 95
	00 00 00	 movzx	 ecx, BYTE PTR [eax+ecx+149]
  02ca8	51		 push	 ecx
  02ca9	e8 00 00 00 00	 call	 ?CheckOptionItem@@YA_NHHH@Z ; CheckOptionItem
  02cae	83 c4 0c	 add	 esp, 12			; 0000000cH
  02cb1	0f b6 d0	 movzx	 edx, al
  02cb4	85 d2		 test	 edx, edx
  02cb6	0f 84 85 00 00
	00		 je	 $LN1@DeleteItem
  02cbc	6a 00		 push	 0
  02cbe	0f bf 45 e4	 movsx	 eax, WORD PTR _iOpt$[ebp]
  02cc2	50		 push	 eax
  02cc3	8b 4d dc	 mov	 ecx, DWORD PTR _i$229250[ebp]
  02cc6	69 c9 d4 00 00
	00		 imul	 ecx, 212		; 000000d4H
  02ccc	8b 55 f8	 mov	 edx, DWORD PTR _lpUser$[ebp]
  02ccf	8b 82 24 0e 00
	00		 mov	 eax, DWORD PTR [edx+3620]
  02cd5	0f b6 8c 08 96
	00 00 00	 movzx	 ecx, BYTE PTR [eax+ecx+150]
  02cdd	51		 push	 ecx
  02cde	e8 00 00 00 00	 call	 ?CheckOptionItem@@YA_NHHH@Z ; CheckOptionItem
  02ce3	83 c4 0c	 add	 esp, 12			; 0000000cH
  02ce6	0f b6 d0	 movzx	 edx, al
  02ce9	85 d2		 test	 edx, edx
  02ceb	74 54		 je	 SHORT $LN1@DeleteItem
  02ced	6a 00		 push	 0
  02cef	0f bf 45 e0	 movsx	 eax, WORD PTR _iExl$[ebp]
  02cf3	50		 push	 eax
  02cf4	8b 4d dc	 mov	 ecx, DWORD PTR _i$229250[ebp]
  02cf7	69 c9 d4 00 00
	00		 imul	 ecx, 212		; 000000d4H
  02cfd	8b 55 f8	 mov	 edx, DWORD PTR _lpUser$[ebp]
  02d00	8b 82 24 0e 00
	00		 mov	 eax, DWORD PTR [edx+3620]
  02d06	0f b6 8c 08 97
	00 00 00	 movzx	 ecx, BYTE PTR [eax+ecx+151]
  02d0e	51		 push	 ecx
  02d0f	e8 00 00 00 00	 call	 ?CheckOptionItem@@YA_NHHH@Z ; CheckOptionItem
  02d14	83 c4 0c	 add	 esp, 12			; 0000000cH
  02d17	0f b6 d0	 movzx	 edx, al
  02d1a	85 d2		 test	 edx, edx
  02d1c	74 23		 je	 SHORT $LN1@DeleteItem

; 736  : 		{
; 737  : 			gObjInventoryDeleteItem(aIndex, i);

  02d1e	8b 45 dc	 mov	 eax, DWORD PTR _i$229250[ebp]
  02d21	50		 push	 eax
  02d22	8b 4d 08	 mov	 ecx, DWORD PTR _aIndex$[ebp]
  02d25	51		 push	 ecx
  02d26	e8 00 00 00 00	 call	 ?gObjInventoryDeleteItem@@YAEHH@Z ; gObjInventoryDeleteItem
  02d2b	83 c4 08	 add	 esp, 8

; 738  : 			GCInventoryItemDeleteSend(aIndex, i, 1);

  02d2e	6a 01		 push	 1
  02d30	0f b6 45 dc	 movzx	 eax, BYTE PTR _i$229250[ebp]
  02d34	50		 push	 eax
  02d35	8b 4d 08	 mov	 ecx, DWORD PTR _aIndex$[ebp]
  02d38	51		 push	 ecx
  02d39	e8 00 00 00 00	 call	 ?GCInventoryItemDeleteSend@@YAXHEE@Z ; GCInventoryItemDeleteSend
  02d3e	83 c4 0c	 add	 esp, 12			; 0000000cH
$LN1@DeleteItem:

; 739  : 		}
; 740  : 	}

  02d41	e9 e5 fe ff ff	 jmp	 $LN3@DeleteItem
$LN5@DeleteItem:

; 741  : }

  02d46	5f		 pop	 edi
  02d47	5e		 pop	 esi
  02d48	5b		 pop	 ebx
  02d49	8b e5		 mov	 esp, ebp
  02d4b	5d		 pop	 ebp
  02d4c	c2 0c 00	 ret	 12			; 0000000cH
?DeleteItem@ExWinQuestSystem@@QAEXHHH@Z ENDP		; ExWinQuestSystem::DeleteItem
_TEXT	ENDS
PUBLIC	?CheckMission@ExWinQuestSystem@@QAE_NHH@Z	; ExWinQuestSystem::CheckMission
; Function compile flags: /Odtp /ZI
_TEXT	SEGMENT
_m$229262 = -16						; size = 4
_n$ = -12						; size = 4
_lpUser$ = -8						; size = 4
_this$ = -4						; size = 4
_aIndex$ = 8						; size = 4
_a$ = 12						; size = 4
?CheckMission@ExWinQuestSystem@@QAE_NHH@Z PROC		; ExWinQuestSystem::CheckMission
; _this$ = ecx

; 745  : {

  02d50	55		 push	 ebp
  02d51	8b ec		 mov	 ebp, esp
  02d53	83 ec 50	 sub	 esp, 80			; 00000050H
  02d56	53		 push	 ebx
  02d57	56		 push	 esi
  02d58	57		 push	 edi
  02d59	89 4d fc	 mov	 DWORD PTR _this$[ebp], ecx

; 746  : 	LPOBJ lpUser = &gObj[aIndex];

  02d5c	8b 45 08	 mov	 eax, DWORD PTR _aIndex$[ebp]
  02d5f	69 c0 38 2b 00
	00		 imul	 eax, 11064		; 00002b38H
  02d65	03 05 00 00 00
	00		 add	 eax, DWORD PTR ?gObj@@3PAUOBJECTSTRUCT@@A ; gObj
  02d6b	89 45 f8	 mov	 DWORD PTR _lpUser$[ebp], eax

; 747  : 
; 748  : 	int n = lpUser->ExWQuestNum[a];

  02d6e	8b 45 0c	 mov	 eax, DWORD PTR _a$[ebp]
  02d71	8b 4d f8	 mov	 ecx, DWORD PTR _lpUser$[ebp]
  02d74	0f b7 94 41 f0
	2a 00 00	 movzx	 edx, WORD PTR [ecx+eax*2+10992]
  02d7c	89 55 f4	 mov	 DWORD PTR _n$[ebp], edx

; 749  : 
; 750  : 	for(int m = 0; m < EW_MAX_MISSION; m++)

  02d7f	c7 45 f0 00 00
	00 00		 mov	 DWORD PTR _m$229262[ebp], 0
  02d86	eb 09		 jmp	 SHORT $LN9@CheckMissi
$LN8@CheckMissi:
  02d88	8b 45 f0	 mov	 eax, DWORD PTR _m$229262[ebp]
  02d8b	83 c0 01	 add	 eax, 1
  02d8e	89 45 f0	 mov	 DWORD PTR _m$229262[ebp], eax
$LN9@CheckMissi:
  02d91	83 7d f0 05	 cmp	 DWORD PTR _m$229262[ebp], 5
  02d95	0f 8d d7 00 00
	00		 jge	 $LN7@CheckMissi

; 751  : 	{
; 752  : 		if(this->ewdata[a][n].MissionType[m] == Hunting || this->ewdata[a][n].MissionType[m] == Droping)

  02d9b	8b 45 0c	 mov	 eax, DWORD PTR _a$[ebp]
  02d9e	69 c0 c0 c2 04
	00		 imul	 eax, 312000		; 0004c2c0H
  02da4	8b 4d fc	 mov	 ecx, DWORD PTR _this$[ebp]
  02da7	8d 54 01 14	 lea	 edx, DWORD PTR [ecx+eax+20]
  02dab	8b 45 f4	 mov	 eax, DWORD PTR _n$[ebp]
  02dae	69 c0 38 01 00
	00		 imul	 eax, 312		; 00000138H
  02db4	03 d0		 add	 edx, eax
  02db6	8b 4d f0	 mov	 ecx, DWORD PTR _m$229262[ebp]
  02db9	83 7c 8a 48 01	 cmp	 DWORD PTR [edx+ecx*4+72], 1
  02dbe	74 25		 je	 SHORT $LN5@CheckMissi
  02dc0	8b 45 0c	 mov	 eax, DWORD PTR _a$[ebp]
  02dc3	69 c0 c0 c2 04
	00		 imul	 eax, 312000		; 0004c2c0H
  02dc9	8b 4d fc	 mov	 ecx, DWORD PTR _this$[ebp]
  02dcc	8d 54 01 14	 lea	 edx, DWORD PTR [ecx+eax+20]
  02dd0	8b 45 f4	 mov	 eax, DWORD PTR _n$[ebp]
  02dd3	69 c0 38 01 00
	00		 imul	 eax, 312		; 00000138H
  02dd9	03 d0		 add	 edx, eax
  02ddb	8b 4d f0	 mov	 ecx, DWORD PTR _m$229262[ebp]
  02dde	83 7c 8a 48 02	 cmp	 DWORD PTR [edx+ecx*4+72], 2
  02de3	75 44		 jne	 SHORT $LN6@CheckMissi
$LN5@CheckMissi:

; 753  : 		{
; 754  : 			if(this->ewdata[a][n].MissionCount[m] > lpUser->ExWQuestCount[a][m])

  02de5	8b 45 0c	 mov	 eax, DWORD PTR _a$[ebp]
  02de8	69 c0 c0 c2 04
	00		 imul	 eax, 312000		; 0004c2c0H
  02dee	8b 4d fc	 mov	 ecx, DWORD PTR _this$[ebp]
  02df1	8d 54 01 14	 lea	 edx, DWORD PTR [ecx+eax+20]
  02df5	8b 45 f4	 mov	 eax, DWORD PTR _n$[ebp]
  02df8	69 c0 38 01 00
	00		 imul	 eax, 312		; 00000138H
  02dfe	03 d0		 add	 edx, eax
  02e00	8b 4d 0c	 mov	 ecx, DWORD PTR _a$[ebp]
  02e03	6b c9 0a	 imul	 ecx, 10			; 0000000aH
  02e06	8b 45 f8	 mov	 eax, DWORD PTR _lpUser$[ebp]
  02e09	8d 8c 08 f6 2a
	00 00		 lea	 ecx, DWORD PTR [eax+ecx+10998]
  02e10	8b 45 f0	 mov	 eax, DWORD PTR _m$229262[ebp]
  02e13	0f b7 0c 41	 movzx	 ecx, WORD PTR [ecx+eax*2]
  02e17	8b 45 f0	 mov	 eax, DWORD PTR _m$229262[ebp]
  02e1a	39 8c 82 d4 00
	00 00		 cmp	 DWORD PTR [edx+eax*4+212], ecx
  02e21	7e 04		 jle	 SHORT $LN4@CheckMissi

; 755  : 			{
; 756  : 				return false;

  02e23	32 c0		 xor	 al, al
  02e25	eb 4d		 jmp	 SHORT $LN10@CheckMissi
$LN4@CheckMissi:

; 757  : 			}
; 758  : 		}

  02e27	eb 44		 jmp	 SHORT $LN3@CheckMissi
$LN6@CheckMissi:

; 759  : 		else if(this->ewdata[a][n].MissionType[m] == Searching)

  02e29	8b 45 0c	 mov	 eax, DWORD PTR _a$[ebp]
  02e2c	69 c0 c0 c2 04
	00		 imul	 eax, 312000		; 0004c2c0H
  02e32	8b 4d fc	 mov	 ecx, DWORD PTR _this$[ebp]
  02e35	8d 54 01 14	 lea	 edx, DWORD PTR [ecx+eax+20]
  02e39	8b 45 f4	 mov	 eax, DWORD PTR _n$[ebp]
  02e3c	69 c0 38 01 00
	00		 imul	 eax, 312		; 00000138H
  02e42	03 d0		 add	 edx, eax
  02e44	8b 4d f0	 mov	 ecx, DWORD PTR _m$229262[ebp]
  02e47	83 7c 8a 48 03	 cmp	 DWORD PTR [edx+ecx*4+72], 3
  02e4c	75 1f		 jne	 SHORT $LN3@CheckMissi

; 760  : 		{
; 761  : 			if(!this->SearchItem(aIndex, a, m))

  02e4e	8b 45 f0	 mov	 eax, DWORD PTR _m$229262[ebp]
  02e51	50		 push	 eax
  02e52	8b 4d 0c	 mov	 ecx, DWORD PTR _a$[ebp]
  02e55	51		 push	 ecx
  02e56	8b 55 08	 mov	 edx, DWORD PTR _aIndex$[ebp]
  02e59	52		 push	 edx
  02e5a	8b 4d fc	 mov	 ecx, DWORD PTR _this$[ebp]
  02e5d	e8 00 00 00 00	 call	 ?SearchItem@ExWinQuestSystem@@QAE_NHHH@Z ; ExWinQuestSystem::SearchItem
  02e62	0f b6 c0	 movzx	 eax, al
  02e65	85 c0		 test	 eax, eax
  02e67	75 04		 jne	 SHORT $LN3@CheckMissi

; 762  : 			{
; 763  : 				return false;

  02e69	32 c0		 xor	 al, al
  02e6b	eb 07		 jmp	 SHORT $LN10@CheckMissi
$LN3@CheckMissi:

; 764  : 			}
; 765  : 		}
; 766  : 	}

  02e6d	e9 16 ff ff ff	 jmp	 $LN8@CheckMissi
$LN7@CheckMissi:

; 767  : 
; 768  : 	return true;

  02e72	b0 01		 mov	 al, 1
$LN10@CheckMissi:

; 769  : }

  02e74	5f		 pop	 edi
  02e75	5e		 pop	 esi
  02e76	5b		 pop	 ebx
  02e77	8b e5		 mov	 esp, ebp
  02e79	5d		 pop	 ebp
  02e7a	c2 08 00	 ret	 8
?CheckMission@ExWinQuestSystem@@QAE_NHH@Z ENDP		; ExWinQuestSystem::CheckMission
_TEXT	ENDS
PUBLIC	?UserConnect@ExWinQuestSystem@@QAEXH@Z		; ExWinQuestSystem::UserConnect
; Function compile flags: /Odtp /ZI
_TEXT	SEGMENT
_a$229277 = -12						; size = 4
_lpUser$ = -8						; size = 4
_this$ = -4						; size = 4
_aIndex$ = 8						; size = 4
?UserConnect@ExWinQuestSystem@@QAEXH@Z PROC		; ExWinQuestSystem::UserConnect
; _this$ = ecx

; 773  : {

  02e80	55		 push	 ebp
  02e81	8b ec		 mov	 ebp, esp
  02e83	83 ec 4c	 sub	 esp, 76			; 0000004cH
  02e86	53		 push	 ebx
  02e87	56		 push	 esi
  02e88	57		 push	 edi
  02e89	89 4d fc	 mov	 DWORD PTR _this$[ebp], ecx

; 774  : 	LPOBJ lpUser = &gObj[aIndex];

  02e8c	8b 45 08	 mov	 eax, DWORD PTR _aIndex$[ebp]
  02e8f	69 c0 38 2b 00
	00		 imul	 eax, 11064		; 00002b38H
  02e95	03 05 00 00 00
	00		 add	 eax, DWORD PTR ?gObj@@3PAUOBJECTSTRUCT@@A ; gObj
  02e9b	89 45 f8	 mov	 DWORD PTR _lpUser$[ebp], eax

; 775  : 
; 776  : 	this->GC_MiniInfo(aIndex);

  02e9e	8b 45 08	 mov	 eax, DWORD PTR _aIndex$[ebp]
  02ea1	50		 push	 eax
  02ea2	8b 4d fc	 mov	 ecx, DWORD PTR _this$[ebp]
  02ea5	e8 00 00 00 00	 call	 ?GC_MiniInfo@ExWinQuestSystem@@QAEXH@Z ; ExWinQuestSystem::GC_MiniInfo

; 777  : 
; 778  : 	for(int a = 0; a < EW_MAX_ACT; a++)

  02eaa	c7 45 f4 00 00
	00 00		 mov	 DWORD PTR _a$229277[ebp], 0
  02eb1	eb 09		 jmp	 SHORT $LN4@UserConnec
$LN3@UserConnec:
  02eb3	8b 45 f4	 mov	 eax, DWORD PTR _a$229277[ebp]
  02eb6	83 c0 01	 add	 eax, 1
  02eb9	89 45 f4	 mov	 DWORD PTR _a$229277[ebp], eax
$LN4@UserConnec:
  02ebc	83 7d f4 03	 cmp	 DWORD PTR _a$229277[ebp], 3
  02ec0	7d 28		 jge	 SHORT $LN5@UserConnec

; 779  : 	{
; 780  : 		if(lpUser->ExWQuestNum[a] >= 0 && lpUser->ExWQuestStart[a] == true)

  02ec2	8b 45 f4	 mov	 eax, DWORD PTR _a$229277[ebp]
  02ec5	8b 4d f8	 mov	 ecx, DWORD PTR _lpUser$[ebp]
  02ec8	0f b7 94 41 f0
	2a 00 00	 movzx	 edx, WORD PTR [ecx+eax*2+10992]
  02ed0	85 d2		 test	 edx, edx
  02ed2	7c 14		 jl	 SHORT $LN1@UserConnec
  02ed4	8b 45 f8	 mov	 eax, DWORD PTR _lpUser$[ebp]
  02ed7	03 45 f4	 add	 eax, DWORD PTR _a$229277[ebp]
  02eda	0f b6 88 ec 2a
	00 00		 movzx	 ecx, BYTE PTR [eax+10988]
  02ee1	83 f9 01	 cmp	 ecx, 1
  02ee4	75 02		 jne	 SHORT $LN1@UserConnec

; 781  : 		{
; 782  : #if(CUSTOM_QUEST_BUFF==TRUE)
; 783  : 			//gObjAddBuffEffect(lpUser,AT_QUEST_BUFF,0,0,0,0,-10);
; 784  : 			g_BuffManagerEx.AddExBuffData(aIndex, AT_QUEST_BUFF, -10);
; 785  : 			g_BuffManagerEx.GC_QuestBuffInfo(aIndex);
; 786  : #endif
; 787  : 			return;

  02ee6	eb 02		 jmp	 SHORT $LN5@UserConnec
$LN1@UserConnec:

; 788  : 		}
; 789  : 	}

  02ee8	eb c9		 jmp	 SHORT $LN3@UserConnec
$LN5@UserConnec:

; 790  : }

  02eea	5f		 pop	 edi
  02eeb	5e		 pop	 esi
  02eec	5b		 pop	 ebx
  02eed	8b e5		 mov	 esp, ebp
  02eef	5d		 pop	 ebp
  02ef0	c2 04 00	 ret	 4
?UserConnect@ExWinQuestSystem@@QAEXH@Z ENDP		; ExWinQuestSystem::UserConnect
_TEXT	ENDS
PUBLIC	??_C@_0CF@JGLIHOAI@?$FLExWinQuestSystem?$FN?5RewardQuest?5E@ ; `string'
EXTRN	?gObjApplyBuffEffectDuration@@YAEPAUOBJECTSTRUCT@@HEHEHH@Z:PROC ; gObjApplyBuffEffectDuration
EXTRN	?GDSaveUserInfo@GameShop@@QAEXH@Z:PROC		; GameShop::GDSaveUserInfo
EXTRN	?gGameShop@@3VGameShop@@A:BYTE			; gGameShop
EXTRN	?ExUserDataSend@@YAXH@Z:PROC			; ExUserDataSend
EXTRN	?MoneyItemDrop@MapClass@@QAEHHHH@Z:PROC		; MapClass::MoneyItemDrop
EXTRN	?MapC@@3PAVMapClass@@A:BYTE			; MapC
;	COMDAT ??_C@_0CF@JGLIHOAI@?$FLExWinQuestSystem?$FN?5RewardQuest?5E@
CONST	SEGMENT
??_C@_0CF@JGLIHOAI@?$FLExWinQuestSystem?$FN?5RewardQuest?5E@ DB '[ExWinQu'
	DB	'estSystem] RewardQuest ERROR', 00H		; `string'
; Function compile flags: /Odtp /ZI
CONST	ENDS
_TEXT	SEGMENT
tv186 = -132						; size = 4
_idBuffer$229320 = -64					; size = 4
_d$229314 = -60						; size = 4
_r$229306 = -56						; size = 4
_m$229301 = -52						; size = 4
_rCount$ = -48						; size = 4
_rItemLevel$ = -44					; size = 4
_rItemIndex$ = -40					; size = 4
_rItemType$ = -36					; size = 4
_rType$ = -32						; size = 4
_UserY$ = -28						; size = 4
_UserX$ = -24						; size = 4
_UserMap$ = -20						; size = 4
_n$ = -16						; size = 4
_a$ = -12						; size = 4
_lpUser$ = -8						; size = 4
_this$ = -4						; size = 4
_aIndex$ = 8						; size = 4
_Act$ = 12						; size = 4
?RewardQuest@ExWinQuestSystem@@QAEXHH@Z PROC		; ExWinQuestSystem::RewardQuest
; _this$ = ecx

; 794  : {

  02f00	55		 push	 ebp
  02f01	8b ec		 mov	 ebp, esp
  02f03	81 ec 84 00 00
	00		 sub	 esp, 132		; 00000084H
  02f09	53		 push	 ebx
  02f0a	56		 push	 esi
  02f0b	57		 push	 edi
  02f0c	89 4d fc	 mov	 DWORD PTR _this$[ebp], ecx

; 795  : 	if(!gObjIsConnectedEx(aIndex))

  02f0f	8b 45 08	 mov	 eax, DWORD PTR _aIndex$[ebp]
  02f12	50		 push	 eax
  02f13	e8 00 00 00 00	 call	 ?gObjIsConnectedEx@@YA_NH@Z ; gObjIsConnectedEx
  02f18	83 c4 04	 add	 esp, 4
  02f1b	0f b6 c8	 movzx	 ecx, al
  02f1e	85 c9		 test	 ecx, ecx
  02f20	75 05		 jne	 SHORT $LN24@RewardQues

; 796  : 	{
; 797  : 		return;

  02f22	e9 22 04 00 00	 jmp	 $LN25@RewardQues
$LN24@RewardQues:

; 798  : 	}	
; 799  : 
; 800  : 	LPOBJ lpUser = &gObj[aIndex];

  02f27	8b 45 08	 mov	 eax, DWORD PTR _aIndex$[ebp]
  02f2a	69 c0 38 2b 00
	00		 imul	 eax, 11064		; 00002b38H
  02f30	03 05 00 00 00
	00		 add	 eax, DWORD PTR ?gObj@@3PAUOBJECTSTRUCT@@A ; gObj
  02f36	89 45 f8	 mov	 DWORD PTR _lpUser$[ebp], eax

; 801  : 
; 802  : 	int a = Act;

  02f39	8b 45 0c	 mov	 eax, DWORD PTR _Act$[ebp]
  02f3c	89 45 f4	 mov	 DWORD PTR _a$[ebp], eax

; 803  : 
; 804  : 	if(!this->CheckMission(aIndex, a))

  02f3f	8b 45 f4	 mov	 eax, DWORD PTR _a$[ebp]
  02f42	50		 push	 eax
  02f43	8b 4d 08	 mov	 ecx, DWORD PTR _aIndex$[ebp]
  02f46	51		 push	 ecx
  02f47	8b 4d fc	 mov	 ecx, DWORD PTR _this$[ebp]
  02f4a	e8 00 00 00 00	 call	 ?CheckMission@ExWinQuestSystem@@QAE_NHH@Z ; ExWinQuestSystem::CheckMission
  02f4f	0f b6 d0	 movzx	 edx, al
  02f52	85 d2		 test	 edx, edx
  02f54	75 15		 jne	 SHORT $LN23@RewardQues

; 805  : 	{
; 806  : 		LogAddC(2, "[ExWinQuestSystem] RewardQuest ERROR");

  02f56	68 00 00 00 00	 push	 OFFSET ??_C@_0CF@JGLIHOAI@?$FLExWinQuestSystem?$FN?5RewardQuest?5E@
  02f5b	6a 02		 push	 2
  02f5d	ff 15 00 00 00
	00		 call	 DWORD PTR ?LogAddC@@3P6AXEPADZZA ; LogAddC
  02f63	83 c4 08	 add	 esp, 8

; 807  : 		return;

  02f66	e9 de 03 00 00	 jmp	 $LN25@RewardQues
$LN23@RewardQues:

; 808  : 	}
; 809  : 	
; 810  : 	int n = lpUser->ExWQuestNum[a];

  02f6b	8b 45 f4	 mov	 eax, DWORD PTR _a$[ebp]
  02f6e	8b 4d f8	 mov	 ecx, DWORD PTR _lpUser$[ebp]
  02f71	0f b7 94 41 f0
	2a 00 00	 movzx	 edx, WORD PTR [ecx+eax*2+10992]
  02f79	89 55 f0	 mov	 DWORD PTR _n$[ebp], edx

; 811  : 	int UserMap = lpUser->MapNumber;

  02f7c	8b 45 f8	 mov	 eax, DWORD PTR _lpUser$[ebp]
  02f7f	0f b6 88 49 01
	00 00		 movzx	 ecx, BYTE PTR [eax+329]
  02f86	89 4d ec	 mov	 DWORD PTR _UserMap$[ebp], ecx

; 812  : 	int UserX = lpUser->X;

  02f89	8b 45 f8	 mov	 eax, DWORD PTR _lpUser$[ebp]
  02f8c	0f bf 88 44 01
	00 00		 movsx	 ecx, WORD PTR [eax+324]
  02f93	89 4d e8	 mov	 DWORD PTR _UserX$[ebp], ecx

; 813  : 	int UserY = lpUser->Y;

  02f96	8b 45 f8	 mov	 eax, DWORD PTR _lpUser$[ebp]
  02f99	0f bf 88 46 01
	00 00		 movsx	 ecx, WORD PTR [eax+326]
  02fa0	89 4d e4	 mov	 DWORD PTR _UserY$[ebp], ecx

; 814  : 
; 815  : 	int rType = 0;

  02fa3	c7 45 e0 00 00
	00 00		 mov	 DWORD PTR _rType$[ebp], 0

; 816  : 	int rItemType = 0;

  02faa	c7 45 dc 00 00
	00 00		 mov	 DWORD PTR _rItemType$[ebp], 0

; 817  : 	int rItemIndex = 0;

  02fb1	c7 45 d8 00 00
	00 00		 mov	 DWORD PTR _rItemIndex$[ebp], 0

; 818  : 	int rItemLevel = 0;

  02fb8	c7 45 d4 00 00
	00 00		 mov	 DWORD PTR _rItemLevel$[ebp], 0

; 819  : 	int rCount = 0;

  02fbf	c7 45 d0 00 00
	00 00		 mov	 DWORD PTR _rCount$[ebp], 0

; 820  : 
; 821  : 	for(int m = 0; m < EW_MAX_MISSION; m++)

  02fc6	c7 45 cc 00 00
	00 00		 mov	 DWORD PTR _m$229301[ebp], 0
  02fcd	eb 09		 jmp	 SHORT $LN22@RewardQues
$LN21@RewardQues:
  02fcf	8b 45 cc	 mov	 eax, DWORD PTR _m$229301[ebp]
  02fd2	83 c0 01	 add	 eax, 1
  02fd5	89 45 cc	 mov	 DWORD PTR _m$229301[ebp], eax
$LN22@RewardQues:
  02fd8	83 7d cc 05	 cmp	 DWORD PTR _m$229301[ebp], 5
  02fdc	7d 54		 jge	 SHORT $LN20@RewardQues

; 822  : 	{
; 823  : 		lpUser->ExWQuestCount[a][m] = 0;

  02fde	8b 45 f4	 mov	 eax, DWORD PTR _a$[ebp]
  02fe1	6b c0 0a	 imul	 eax, 10			; 0000000aH
  02fe4	8b 4d f8	 mov	 ecx, DWORD PTR _lpUser$[ebp]
  02fe7	8d 94 01 f6 2a
	00 00		 lea	 edx, DWORD PTR [ecx+eax+10998]
  02fee	33 c0		 xor	 eax, eax
  02ff0	8b 4d cc	 mov	 ecx, DWORD PTR _m$229301[ebp]
  02ff3	66 89 04 4a	 mov	 WORD PTR [edx+ecx*2], ax

; 824  : 		if(this->ewdata[a][n].MissionType[m] == Searching)

  02ff7	8b 45 f4	 mov	 eax, DWORD PTR _a$[ebp]
  02ffa	69 c0 c0 c2 04
	00		 imul	 eax, 312000		; 0004c2c0H
  03000	8b 4d fc	 mov	 ecx, DWORD PTR _this$[ebp]
  03003	8d 54 01 14	 lea	 edx, DWORD PTR [ecx+eax+20]
  03007	8b 45 f0	 mov	 eax, DWORD PTR _n$[ebp]
  0300a	69 c0 38 01 00
	00		 imul	 eax, 312		; 00000138H
  03010	03 d0		 add	 edx, eax
  03012	8b 4d cc	 mov	 ecx, DWORD PTR _m$229301[ebp]
  03015	83 7c 8a 48 03	 cmp	 DWORD PTR [edx+ecx*4+72], 3
  0301a	75 14		 jne	 SHORT $LN19@RewardQues

; 825  : 		{
; 826  : 			this->DeleteItem(aIndex, a, m);

  0301c	8b 45 cc	 mov	 eax, DWORD PTR _m$229301[ebp]
  0301f	50		 push	 eax
  03020	8b 4d f4	 mov	 ecx, DWORD PTR _a$[ebp]
  03023	51		 push	 ecx
  03024	8b 55 08	 mov	 edx, DWORD PTR _aIndex$[ebp]
  03027	52		 push	 edx
  03028	8b 4d fc	 mov	 ecx, DWORD PTR _this$[ebp]
  0302b	e8 00 00 00 00	 call	 ?DeleteItem@ExWinQuestSystem@@QAEXHHH@Z ; ExWinQuestSystem::DeleteItem
$LN19@RewardQues:

; 827  : 		}
; 828  : 	}

  03030	eb 9d		 jmp	 SHORT $LN21@RewardQues
$LN20@RewardQues:

; 829  : 
; 830  : 	for(int r = 0; r < EW_MAX_REWARD; r++)

  03032	c7 45 c8 00 00
	00 00		 mov	 DWORD PTR _r$229306[ebp], 0
  03039	eb 09		 jmp	 SHORT $LN18@RewardQues
$LN17@RewardQues:
  0303b	8b 45 c8	 mov	 eax, DWORD PTR _r$229306[ebp]
  0303e	83 c0 01	 add	 eax, 1
  03041	89 45 c8	 mov	 DWORD PTR _r$229306[ebp], eax
$LN18@RewardQues:
  03044	83 7d c8 03	 cmp	 DWORD PTR _r$229306[ebp], 3
  03048	0f 8d c2 02 00
	00		 jge	 $LN16@RewardQues

; 831  : 	{
; 832  : 		rType = this->ewdata[a][n].RewardType[r];

  0304e	8b 45 f4	 mov	 eax, DWORD PTR _a$[ebp]
  03051	69 c0 c0 c2 04
	00		 imul	 eax, 312000		; 0004c2c0H
  03057	8b 4d fc	 mov	 ecx, DWORD PTR _this$[ebp]
  0305a	8d 54 01 14	 lea	 edx, DWORD PTR [ecx+eax+20]
  0305e	8b 45 f0	 mov	 eax, DWORD PTR _n$[ebp]
  03061	69 c0 38 01 00
	00		 imul	 eax, 312		; 00000138H
  03067	03 d0		 add	 edx, eax
  03069	8b 4d c8	 mov	 ecx, DWORD PTR _r$229306[ebp]
  0306c	8b 94 8a fc 00
	00 00		 mov	 edx, DWORD PTR [edx+ecx*4+252]
  03073	89 55 e0	 mov	 DWORD PTR _rType$[ebp], edx

; 833  : 		rItemType = this->ewdata[a][n].RewardItemType[r];

  03076	8b 45 f4	 mov	 eax, DWORD PTR _a$[ebp]
  03079	69 c0 c0 c2 04
	00		 imul	 eax, 312000		; 0004c2c0H
  0307f	8b 4d fc	 mov	 ecx, DWORD PTR _this$[ebp]
  03082	8d 54 01 14	 lea	 edx, DWORD PTR [ecx+eax+20]
  03086	8b 45 f0	 mov	 eax, DWORD PTR _n$[ebp]
  03089	69 c0 38 01 00
	00		 imul	 eax, 312		; 00000138H
  0308f	03 d0		 add	 edx, eax
  03091	8b 4d c8	 mov	 ecx, DWORD PTR _r$229306[ebp]
  03094	8b 94 8a 14 01
	00 00		 mov	 edx, DWORD PTR [edx+ecx*4+276]
  0309b	89 55 dc	 mov	 DWORD PTR _rItemType$[ebp], edx

; 834  : 		rItemIndex = this->ewdata[a][n].RewardItemIndex[r];

  0309e	8b 45 f4	 mov	 eax, DWORD PTR _a$[ebp]
  030a1	69 c0 c0 c2 04
	00		 imul	 eax, 312000		; 0004c2c0H
  030a7	8b 4d fc	 mov	 ecx, DWORD PTR _this$[ebp]
  030aa	8d 54 01 14	 lea	 edx, DWORD PTR [ecx+eax+20]
  030ae	8b 45 f0	 mov	 eax, DWORD PTR _n$[ebp]
  030b1	69 c0 38 01 00
	00		 imul	 eax, 312		; 00000138H
  030b7	03 d0		 add	 edx, eax
  030b9	8b 4d c8	 mov	 ecx, DWORD PTR _r$229306[ebp]
  030bc	8b 94 8a 20 01
	00 00		 mov	 edx, DWORD PTR [edx+ecx*4+288]
  030c3	89 55 d8	 mov	 DWORD PTR _rItemIndex$[ebp], edx

; 835  : 		rItemLevel = this->ewdata[a][n].RewardItemLevel[r];

  030c6	8b 45 f4	 mov	 eax, DWORD PTR _a$[ebp]
  030c9	69 c0 c0 c2 04
	00		 imul	 eax, 312000		; 0004c2c0H
  030cf	8b 4d fc	 mov	 ecx, DWORD PTR _this$[ebp]
  030d2	8d 54 01 14	 lea	 edx, DWORD PTR [ecx+eax+20]
  030d6	8b 45 f0	 mov	 eax, DWORD PTR _n$[ebp]
  030d9	69 c0 38 01 00
	00		 imul	 eax, 312		; 00000138H
  030df	03 d0		 add	 edx, eax
  030e1	8b 4d c8	 mov	 ecx, DWORD PTR _r$229306[ebp]
  030e4	8b 94 8a 2c 01
	00 00		 mov	 edx, DWORD PTR [edx+ecx*4+300]
  030eb	89 55 d4	 mov	 DWORD PTR _rItemLevel$[ebp], edx

; 836  : 		rCount = this->ewdata[a][n].RewardCount[r];

  030ee	8b 45 f4	 mov	 eax, DWORD PTR _a$[ebp]
  030f1	69 c0 c0 c2 04
	00		 imul	 eax, 312000		; 0004c2c0H
  030f7	8b 4d fc	 mov	 ecx, DWORD PTR _this$[ebp]
  030fa	8d 54 01 14	 lea	 edx, DWORD PTR [ecx+eax+20]
  030fe	8b 45 f0	 mov	 eax, DWORD PTR _n$[ebp]
  03101	69 c0 38 01 00
	00		 imul	 eax, 312		; 00000138H
  03107	03 d0		 add	 edx, eax
  03109	8b 4d c8	 mov	 ecx, DWORD PTR _r$229306[ebp]
  0310c	8b 94 8a 08 01
	00 00		 mov	 edx, DWORD PTR [edx+ecx*4+264]
  03113	89 55 d0	 mov	 DWORD PTR _rCount$[ebp], edx

; 837  : 
; 838  : 		if(rType == ewZen)

  03116	83 7d e0 01	 cmp	 DWORD PTR _rType$[ebp], 1
  0311a	75 4f		 jne	 SHORT $LN15@RewardQues

; 839  : 		{	
; 840  : 			if(!MAX_MAP_RANGE(UserMap))

  0311c	83 7d ec 00	 cmp	 DWORD PTR _UserMap$[ebp], 0
  03120	7d 0c		 jge	 SHORT $LN27@RewardQues
  03122	c7 85 7c ff ff
	ff 00 00 00 00	 mov	 DWORD PTR tv186[ebp], 0
  0312c	eb 0f		 jmp	 SHORT $LN28@RewardQues
$LN27@RewardQues:
  0312e	33 c0		 xor	 eax, eax
  03130	83 7d ec 59	 cmp	 DWORD PTR _UserMap$[ebp], 89 ; 00000059H
  03134	0f 9e c0	 setle	 al
  03137	89 85 7c ff ff
	ff		 mov	 DWORD PTR tv186[ebp], eax
$LN28@RewardQues:
  0313d	83 bd 7c ff ff
	ff 00		 cmp	 DWORD PTR tv186[ebp], 0
  03144	75 05		 jne	 SHORT $LN14@RewardQues

; 841  : 			{
; 842  : 				return;

  03146	e9 fe 01 00 00	 jmp	 $LN25@RewardQues
$LN14@RewardQues:

; 843  : 			}
; 844  : 			MapC[UserMap].MoneyItemDrop(rCount, UserX, UserY);

  0314b	8b 45 e4	 mov	 eax, DWORD PTR _UserY$[ebp]
  0314e	50		 push	 eax
  0314f	8b 4d e8	 mov	 ecx, DWORD PTR _UserX$[ebp]
  03152	51		 push	 ecx
  03153	8b 55 d0	 mov	 edx, DWORD PTR _rCount$[ebp]
  03156	52		 push	 edx
  03157	8b 4d ec	 mov	 ecx, DWORD PTR _UserMap$[ebp]
  0315a	69 c9 b8 3d 05
	00		 imul	 ecx, 343480		; 00053db8H
  03160	81 c1 00 00 00
	00		 add	 ecx, OFFSET ?MapC@@3PAVMapClass@@A ; MapC
  03166	e8 00 00 00 00	 call	 ?MoneyItemDrop@MapClass@@QAEHHHH@Z ; MapClass::MoneyItemDrop
$LN15@RewardQues:

; 845  : 		}
; 846  : 		if(rType == ewFreePoint)

  0316b	83 7d e0 02	 cmp	 DWORD PTR _rType$[ebp], 2
  0316f	75 36		 jne	 SHORT $LN13@RewardQues

; 847  : 		{
; 848  : //#if(CUSTOM_EX_FREE_POINT==TRUE)
; 849  : 			lpUser->ExFreePoints += rCount;

  03171	8b 45 f8	 mov	 eax, DWORD PTR _lpUser$[ebp]
  03174	8b 88 8c 22 00
	00		 mov	 ecx, DWORD PTR [eax+8844]
  0317a	03 4d d0	 add	 ecx, DWORD PTR _rCount$[ebp]
  0317d	8b 55 f8	 mov	 edx, DWORD PTR _lpUser$[ebp]
  03180	89 8a 8c 22 00
	00		 mov	 DWORD PTR [edx+8844], ecx

; 850  : //#endif
; 851  : 			lpUser->LevelUpPoint += rCount;

  03186	8b 45 f8	 mov	 eax, DWORD PTR _lpUser$[ebp]
  03189	8b 88 c0 00 00
	00		 mov	 ecx, DWORD PTR [eax+192]
  0318f	03 4d d0	 add	 ecx, DWORD PTR _rCount$[ebp]
  03192	8b 55 f8	 mov	 edx, DWORD PTR _lpUser$[ebp]
  03195	89 8a c0 00 00
	00		 mov	 DWORD PTR [edx+192], ecx

; 852  : 			//g_ExUser.UpdateCharInfo(aIndex);
; 853  : 			ExUserDataSend(aIndex);

  0319b	8b 45 08	 mov	 eax, DWORD PTR _aIndex$[ebp]
  0319e	50		 push	 eax
  0319f	e8 00 00 00 00	 call	 ?ExUserDataSend@@YAXH@Z	; ExUserDataSend
  031a4	83 c4 04	 add	 esp, 4
$LN13@RewardQues:

; 854  : 		}
; 855  : 		if(rType == ewItem)

  031a7	83 7d e0 03	 cmp	 DWORD PTR _rType$[ebp], 3
  031ab	75 58		 jne	 SHORT $LN9@RewardQues

; 856  : 		{
; 857  : 			for(int d = 0; d < rCount; d++ )

  031ad	c7 45 c4 00 00
	00 00		 mov	 DWORD PTR _d$229314[ebp], 0
  031b4	eb 09		 jmp	 SHORT $LN11@RewardQues
$LN10@RewardQues:
  031b6	8b 45 c4	 mov	 eax, DWORD PTR _d$229314[ebp]
  031b9	83 c0 01	 add	 eax, 1
  031bc	89 45 c4	 mov	 DWORD PTR _d$229314[ebp], eax
$LN11@RewardQues:
  031bf	8b 45 c4	 mov	 eax, DWORD PTR _d$229314[ebp]
  031c2	3b 45 d0	 cmp	 eax, DWORD PTR _rCount$[ebp]
  031c5	7d 3e		 jge	 SHORT $LN9@RewardQues

; 858  : 			{
; 859  : 				ItemSerialCreateSend(aIndex, UserMap, UserX, UserY, ITEMGET(rItemType, rItemIndex), rItemLevel, 0, 0, 0, 0, lpUser->m_Index, 0, 0);

  031c7	6a 00		 push	 0
  031c9	6a 00		 push	 0
  031cb	8b 45 f8	 mov	 eax, DWORD PTR _lpUser$[ebp]
  031ce	8b 08		 mov	 ecx, DWORD PTR [eax]
  031d0	51		 push	 ecx
  031d1	6a 00		 push	 0
  031d3	6a 00		 push	 0
  031d5	6a 00		 push	 0
  031d7	6a 00		 push	 0
  031d9	0f b6 55 d4	 movzx	 edx, BYTE PTR _rItemLevel$[ebp]
  031dd	52		 push	 edx
  031de	8b 45 dc	 mov	 eax, DWORD PTR _rItemType$[ebp]
  031e1	c1 e0 09	 shl	 eax, 9
  031e4	03 45 d8	 add	 eax, DWORD PTR _rItemIndex$[ebp]
  031e7	50		 push	 eax
  031e8	0f b6 4d e4	 movzx	 ecx, BYTE PTR _UserY$[ebp]
  031ec	51		 push	 ecx
  031ed	0f b6 55 e8	 movzx	 edx, BYTE PTR _UserX$[ebp]
  031f1	52		 push	 edx
  031f2	0f b6 45 ec	 movzx	 eax, BYTE PTR _UserMap$[ebp]
  031f6	50		 push	 eax
  031f7	8b 4d 08	 mov	 ecx, DWORD PTR _aIndex$[ebp]
  031fa	51		 push	 ecx
  031fb	e8 00 00 00 00	 call	 ?ItemSerialCreateSend@@YAXHEEEHEEEEEHEE@Z ; ItemSerialCreateSend
  03200	83 c4 34	 add	 esp, 52			; 00000034H

; 860  : 			}

  03203	eb b1		 jmp	 SHORT $LN10@RewardQues
$LN9@RewardQues:

; 861  : 		}
; 862  : 		if(rType == ewBonus)

  03205	83 7d e0 04	 cmp	 DWORD PTR _rType$[ebp], 4
  03209	75 31		 jne	 SHORT $LN8@RewardQues

; 863  : 		{
; 864  : 			//lpUser->Bonus += rCount;
; 865  : 			
; 866  : 
; 867  : 			lpUser->GameShop.WCoinC += rCount;

  0320b	db 45 d0	 fild	 DWORD PTR _rCount$[ebp]
  0320e	8b 45 f8	 mov	 eax, DWORD PTR _lpUser$[ebp]
  03211	dc 80 00 23 00
	00		 fadd	 QWORD PTR [eax+8960]
  03217	8b 4d f8	 mov	 ecx, DWORD PTR _lpUser$[ebp]
  0321a	dd 99 00 23 00
	00		 fstp	 QWORD PTR [ecx+8960]

; 868  : 			gGameShop.GDSaveUserInfo(lpUser->m_Index);

  03220	8b 45 f8	 mov	 eax, DWORD PTR _lpUser$[ebp]
  03223	8b 08		 mov	 ecx, DWORD PTR [eax]
  03225	51		 push	 ecx
  03226	b9 00 00 00 00	 mov	 ecx, OFFSET ?gGameShop@@3VGameShop@@A ; gGameShop
  0322b	e8 00 00 00 00	 call	 ?GDSaveUserInfo@GameShop@@QAEXH@Z ; GameShop::GDSaveUserInfo

; 869  : 
; 870  : 			//g_ExUser.UpdateCharInfo(aIndex);
; 871  : 			ExUserDataSend(aIndex);

  03230	8b 45 08	 mov	 eax, DWORD PTR _aIndex$[ebp]
  03233	50		 push	 eax
  03234	e8 00 00 00 00	 call	 ?ExUserDataSend@@YAXH@Z	; ExUserDataSend
  03239	83 c4 04	 add	 esp, 4
$LN8@RewardQues:

; 872  : 		}
; 873  : 		if(rType == ewBuff)

  0323c	83 7d e0 05	 cmp	 DWORD PTR _rType$[ebp], 5
  03240	0f 85 c5 00 00
	00		 jne	 $LN7@RewardQues

; 874  : 		{
; 875  : 			int idBuffer = AT_NPC_BUFF_EXP;

  03246	c7 45 c0 b0 00
	00 00		 mov	 DWORD PTR _idBuffer$229320[ebp], 176 ; 000000b0H

; 876  : 			lpUser->ExpBuffTime = rCount;

  0324d	8b 45 f8	 mov	 eax, DWORD PTR _lpUser$[ebp]
  03250	8b 4d d0	 mov	 ecx, DWORD PTR _rCount$[ebp]
  03253	89 88 90 28 00
	00		 mov	 DWORD PTR [eax+10384], ecx

; 877  : 
; 878  : 			if(rItemType == 1)

  03259	83 7d dc 01	 cmp	 DWORD PTR _rItemType$[ebp], 1
  0325d	75 13		 jne	 SHORT $LN6@RewardQues

; 879  : 			{
; 880  : 				idBuffer = AT_NPC_BUFF_EXP;

  0325f	c7 45 c0 b0 00
	00 00		 mov	 DWORD PTR _idBuffer$229320[ebp], 176 ; 000000b0H

; 881  : 				lpUser->ExpBuffTime = rCount;

  03266	8b 45 f8	 mov	 eax, DWORD PTR _lpUser$[ebp]
  03269	8b 4d d0	 mov	 ecx, DWORD PTR _rCount$[ebp]
  0326c	89 88 90 28 00
	00		 mov	 DWORD PTR [eax+10384], ecx
$LN6@RewardQues:

; 882  : 			}
; 883  : 			if(rItemType == 2)

  03272	83 7d dc 02	 cmp	 DWORD PTR _rItemType$[ebp], 2
  03276	75 13		 jne	 SHORT $LN5@RewardQues

; 884  : 			{
; 885  : 				idBuffer = AT_NPC_BUFF_DAMAGE;

  03278	c7 45 c0 b1 00
	00 00		 mov	 DWORD PTR _idBuffer$229320[ebp], 177 ; 000000b1H

; 886  : 				lpUser->DamageBuffTime = rCount;

  0327f	8b 45 f8	 mov	 eax, DWORD PTR _lpUser$[ebp]
  03282	8b 4d d0	 mov	 ecx, DWORD PTR _rCount$[ebp]
  03285	89 88 94 28 00
	00		 mov	 DWORD PTR [eax+10388], ecx
$LN5@RewardQues:

; 887  : 			}
; 888  : 			if(rItemType == 3)

  0328b	83 7d dc 03	 cmp	 DWORD PTR _rItemType$[ebp], 3
  0328f	75 13		 jne	 SHORT $LN4@RewardQues

; 889  : 			{
; 890  : 				idBuffer = AT_NPC_BUFF_DEFENCE;

  03291	c7 45 c0 b2 00
	00 00		 mov	 DWORD PTR _idBuffer$229320[ebp], 178 ; 000000b2H

; 891  : 				lpUser->DefenceBuffTime = rCount;

  03298	8b 45 f8	 mov	 eax, DWORD PTR _lpUser$[ebp]
  0329b	8b 4d d0	 mov	 ecx, DWORD PTR _rCount$[ebp]
  0329e	89 88 98 28 00
	00		 mov	 DWORD PTR [eax+10392], ecx
$LN4@RewardQues:

; 892  : 			}
; 893  : 			if(rItemType == 4)

  032a4	83 7d dc 04	 cmp	 DWORD PTR _rItemType$[ebp], 4
  032a8	75 13		 jne	 SHORT $LN3@RewardQues

; 894  : 			{
; 895  : 				idBuffer = AT_NPC_BUFF_EXL_CRIT;

  032aa	c7 45 c0 b3 00
	00 00		 mov	 DWORD PTR _idBuffer$229320[ebp], 179 ; 000000b3H

; 896  : 				lpUser->BattleBuffTime = rCount;

  032b1	8b 45 f8	 mov	 eax, DWORD PTR _lpUser$[ebp]
  032b4	8b 4d d0	 mov	 ecx, DWORD PTR _rCount$[ebp]
  032b7	89 88 9c 28 00
	00		 mov	 DWORD PTR [eax+10396], ecx
$LN3@RewardQues:

; 897  : 			}
; 898  : 			if(rItemType == 5)

  032bd	83 7d dc 05	 cmp	 DWORD PTR _rItemType$[ebp], 5
  032c1	75 13		 jne	 SHORT $LN2@RewardQues

; 899  : 			{
; 900  : 				idBuffer = AT_NPC_BUFF_DROP;

  032c3	c7 45 c0 b4 00
	00 00		 mov	 DWORD PTR _idBuffer$229320[ebp], 180 ; 000000b4H

; 901  : 				lpUser->DropBuffTime = rCount;

  032ca	8b 45 f8	 mov	 eax, DWORD PTR _lpUser$[ebp]
  032cd	8b 4d d0	 mov	 ecx, DWORD PTR _rCount$[ebp]
  032d0	89 88 a0 28 00
	00		 mov	 DWORD PTR [eax+10400], ecx
$LN2@RewardQues:

; 902  : 			}
; 903  : 			if(rItemType == 6)

  032d6	83 7d dc 06	 cmp	 DWORD PTR _rItemType$[ebp], 6
  032da	75 13		 jne	 SHORT $LN1@RewardQues

; 904  : 			{
; 905  : 				idBuffer = AT_NPC_BUFF_DOUBLE;

  032dc	c7 45 c0 b5 00
	00 00		 mov	 DWORD PTR _idBuffer$229320[ebp], 181 ; 000000b5H

; 906  : 				lpUser->DoubleBuffTime = rCount;

  032e3	8b 45 f8	 mov	 eax, DWORD PTR _lpUser$[ebp]
  032e6	8b 4d d0	 mov	 ecx, DWORD PTR _rCount$[ebp]
  032e9	89 88 a4 28 00
	00		 mov	 DWORD PTR [eax+10404], ecx
$LN1@RewardQues:

; 907  : 			}
; 908  : 
; 909  : 			gObjApplyBuffEffectDuration(lpUser, idBuffer, 0, 0, 0, 0, rCount);

  032ef	8b 45 d0	 mov	 eax, DWORD PTR _rCount$[ebp]
  032f2	50		 push	 eax
  032f3	6a 00		 push	 0
  032f5	6a 00		 push	 0
  032f7	6a 00		 push	 0
  032f9	6a 00		 push	 0
  032fb	8b 4d c0	 mov	 ecx, DWORD PTR _idBuffer$229320[ebp]
  032fe	51		 push	 ecx
  032ff	8b 55 f8	 mov	 edx, DWORD PTR _lpUser$[ebp]
  03302	52		 push	 edx
  03303	e8 00 00 00 00	 call	 ?gObjApplyBuffEffectDuration@@YAEPAUOBJECTSTRUCT@@HEHEHH@Z ; gObjApplyBuffEffectDuration
  03308	83 c4 1c	 add	 esp, 28			; 0000001cH
$LN7@RewardQues:

; 910  : 
; 911  : 			//g_BuffManagerEx.AddedBuff(aIndex, rItemType, rCount);
; 912  : 		}
; 913  : 	}

  0330b	e9 2b fd ff ff	 jmp	 $LN17@RewardQues
$LN16@RewardQues:

; 914  : 
; 915  : 	lpUser->ExWQuestNum[a]++;

  03310	8b 45 f4	 mov	 eax, DWORD PTR _a$[ebp]
  03313	8b 4d f8	 mov	 ecx, DWORD PTR _lpUser$[ebp]
  03316	66 8b 94 41 f0
	2a 00 00	 mov	 dx, WORD PTR [ecx+eax*2+10992]
  0331e	66 83 c2 01	 add	 dx, 1
  03322	8b 45 f4	 mov	 eax, DWORD PTR _a$[ebp]
  03325	8b 4d f8	 mov	 ecx, DWORD PTR _lpUser$[ebp]
  03328	66 89 94 41 f0
	2a 00 00	 mov	 WORD PTR [ecx+eax*2+10992], dx

; 916  : 	lpUser->ExWQuestStart[a] = false;

  03330	8b 45 f8	 mov	 eax, DWORD PTR _lpUser$[ebp]
  03333	03 45 f4	 add	 eax, DWORD PTR _a$[ebp]
  03336	c6 80 ec 2a 00
	00 00		 mov	 BYTE PTR [eax+10988], 0

; 917  : 	this->GC_MainInfo(aIndex);

  0333d	8b 45 08	 mov	 eax, DWORD PTR _aIndex$[ebp]
  03340	50		 push	 eax
  03341	8b 4d fc	 mov	 ecx, DWORD PTR _this$[ebp]
  03344	e8 00 00 00 00	 call	 ?GC_MainInfo@ExWinQuestSystem@@QAEXH@Z ; ExWinQuestSystem::GC_MainInfo
$LN25@RewardQues:

; 918  : 	//g_BuffManagerEx.GC_QuestBuffInfo(aIndex);
; 919  : }

  03349	5f		 pop	 edi
  0334a	5e		 pop	 esi
  0334b	5b		 pop	 ebx
  0334c	8b e5		 mov	 esp, ebp
  0334e	5d		 pop	 ebp
  0334f	c2 08 00	 ret	 8
?RewardQuest@ExWinQuestSystem@@QAEXHH@Z ENDP		; ExWinQuestSystem::RewardQuest
_TEXT	ENDS
EXTRN	?gObjMonsterTopHitDamageUser@@YAHPAUOBJECTSTRUCT@@@Z:PROC ; gObjMonsterTopHitDamageUser
; Function compile flags: /Odtp /ZI
_TEXT	SEGMENT
tv70 = -104						; size = 4
_iLevel$229354 = -36					; size = 4
_iOption$229353 = -32					; size = 4
_iSkill$229352 = -28					; size = 4
_iLuck$229351 = -24					; size = 4
_a$229343 = -20						; size = 4
_i$229339 = -16						; size = 4
_lpMonster$ = -12					; size = 4
_lpUser$ = -8						; size = 4
_this$ = -4						; size = 4
_aIndexMob$ = 8						; size = 4
_aIndexUser$ = 12					; size = 4
?NewDrop@ExWinQuestSystem@@QAE_NHH@Z PROC		; ExWinQuestSystem::NewDrop
; _this$ = ecx

; 923  : {

  03360	55		 push	 ebp
  03361	8b ec		 mov	 ebp, esp
  03363	83 ec 68	 sub	 esp, 104		; 00000068H
  03366	53		 push	 ebx
  03367	56		 push	 esi
  03368	57		 push	 edi
  03369	89 4d fc	 mov	 DWORD PTR _this$[ebp], ecx

; 924  : 	LPOBJ lpUser = &gObj[aIndexUser];

  0336c	8b 45 0c	 mov	 eax, DWORD PTR _aIndexUser$[ebp]
  0336f	69 c0 38 2b 00
	00		 imul	 eax, 11064		; 00002b38H
  03375	03 05 00 00 00
	00		 add	 eax, DWORD PTR ?gObj@@3PAUOBJECTSTRUCT@@A ; gObj
  0337b	89 45 f8	 mov	 DWORD PTR _lpUser$[ebp], eax

; 925  : 	LPOBJ lpMonster = &gObj[aIndexMob];

  0337e	8b 45 08	 mov	 eax, DWORD PTR _aIndexMob$[ebp]
  03381	69 c0 38 2b 00
	00		 imul	 eax, 11064		; 00002b38H
  03387	03 05 00 00 00
	00		 add	 eax, DWORD PTR ?gObj@@3PAUOBJECTSTRUCT@@A ; gObj
  0338d	89 45 f4	 mov	 DWORD PTR _lpMonster$[ebp], eax

; 926  : 
; 927  : 	switch(lpMonster->Class)

  03390	8b 45 f4	 mov	 eax, DWORD PTR _lpMonster$[ebp]
  03393	0f b7 88 b8 00
	00 00		 movzx	 ecx, WORD PTR [eax+184]
  0339a	89 4d 98	 mov	 DWORD PTR tv70[ebp], ecx
  0339d	83 7d 98 52	 cmp	 DWORD PTR tv70[ebp], 82	; 00000052H
  033a1	7f 1a		 jg	 SHORT $LN24@NewDrop
  033a3	83 7d 98 52	 cmp	 DWORD PTR tv70[ebp], 82	; 00000052H
  033a7	74 28		 je	 SHORT $LN19@NewDrop
  033a9	83 7d 98 35	 cmp	 DWORD PTR tv70[ebp], 53	; 00000035H
  033ad	74 22		 je	 SHORT $LN19@NewDrop
  033af	83 7d 98 4d	 cmp	 DWORD PTR tv70[ebp], 77	; 0000004dH
  033b3	7e 23		 jle	 SHORT $LN20@NewDrop
  033b5	83 7d 98 50	 cmp	 DWORD PTR tv70[ebp], 80	; 00000050H
  033b9	7e 16		 jle	 SHORT $LN19@NewDrop
  033bb	eb 1b		 jmp	 SHORT $LN20@NewDrop
$LN24@NewDrop:
  033bd	81 7d 98 ed 01
	00 00		 cmp	 DWORD PTR tv70[ebp], 493 ; 000001edH
  033c4	7c 12		 jl	 SHORT $LN20@NewDrop
  033c6	81 7d 98 f6 01
	00 00		 cmp	 DWORD PTR tv70[ebp], 502 ; 000001f6H
  033cd	7e 02		 jle	 SHORT $LN19@NewDrop
  033cf	eb 07		 jmp	 SHORT $LN20@NewDrop
$LN19@NewDrop:

; 928  : 	{
; 929  : 	case 78:
; 930  : 	case 53:
; 931  : 	case 79:
; 932  : 	case 80:
; 933  : 	case 82:
; 934  : 	case 502:
; 935  : 	case 493:
; 936  : 	case 494:
; 937  : 	case 495:
; 938  : 	case 496:
; 939  : 	case 497:
; 940  : 	case 498:
; 941  : 	case 499:
; 942  : 	case 500:
; 943  : 	case 501:
; 944  : 		{
; 945  : 			return false;

  033d1	32 c0		 xor	 al, al
  033d3	e9 ce 02 00 00	 jmp	 $LN22@NewDrop
$LN20@NewDrop:

; 946  : 		}
; 947  : 		break;
; 948  : 	}
; 949  : 
; 950  : 	for( int i = 0; i < this->iDropLoaded; i++ )

  033d8	c7 45 f0 00 00
	00 00		 mov	 DWORD PTR _i$229339[ebp], 0
  033df	eb 09		 jmp	 SHORT $LN18@NewDrop
$LN17@NewDrop:
  033e1	8b 45 f0	 mov	 eax, DWORD PTR _i$229339[ebp]
  033e4	83 c0 01	 add	 eax, 1
  033e7	89 45 f0	 mov	 DWORD PTR _i$229339[ebp], eax
$LN18@NewDrop:
  033ea	8b 45 fc	 mov	 eax, DWORD PTR _this$[ebp]
  033ed	8b 4d f0	 mov	 ecx, DWORD PTR _i$229339[ebp]
  033f0	3b 88 60 61 0e
	00		 cmp	 ecx, DWORD PTR [eax+942432]
  033f6	0f 8d a8 02 00
	00		 jge	 $LN16@NewDrop

; 951  : 	{
; 952  : 		int a = this->m_Drop[i].iAct;

  033fc	8b 45 f0	 mov	 eax, DWORD PTR _i$229339[ebp]
  033ff	c1 e0 06	 shl	 eax, 6
  03402	8b 4d fc	 mov	 ecx, DWORD PTR _this$[ebp]
  03405	8b 94 01 54 48
	0e 00		 mov	 edx, DWORD PTR [ecx+eax+936020]
  0340c	89 55 ec	 mov	 DWORD PTR _a$229343[ebp], edx

; 953  : 
; 954  : 		if(a < 0 || a >= EW_MAX_ACT)

  0340f	83 7d ec 00	 cmp	 DWORD PTR _a$229343[ebp], 0
  03413	7c 06		 jl	 SHORT $LN14@NewDrop
  03415	83 7d ec 03	 cmp	 DWORD PTR _a$229343[ebp], 3
  03419	7c 02		 jl	 SHORT $LN15@NewDrop
$LN14@NewDrop:

; 955  : 		{
; 956  : 			continue;

  0341b	eb c4		 jmp	 SHORT $LN17@NewDrop
$LN15@NewDrop:

; 957  : 		}
; 958  : 
; 959  : 		if(lpUser->ExWQuestNum[a] >= this->m_Drop[i].iNeedQuest)

  0341d	8b 45 ec	 mov	 eax, DWORD PTR _a$229343[ebp]
  03420	8b 4d f8	 mov	 ecx, DWORD PTR _lpUser$[ebp]
  03423	0f b7 94 41 f0
	2a 00 00	 movzx	 edx, WORD PTR [ecx+eax*2+10992]
  0342b	8b 45 f0	 mov	 eax, DWORD PTR _i$229339[ebp]
  0342e	c1 e0 06	 shl	 eax, 6
  03431	8b 4d fc	 mov	 ecx, DWORD PTR _this$[ebp]
  03434	3b 94 01 58 48
	0e 00		 cmp	 edx, DWORD PTR [ecx+eax+936024]
  0343b	0f 8c 5e 02 00
	00		 jl	 $LN13@NewDrop

; 960  : 		{
; 961  : 			if( lpMonster->Level >= this->m_Drop[i].MonsterMinLevel && lpMonster->Level <= this->m_Drop[i].MonsterMaxLevel )

  03441	8b 45 f4	 mov	 eax, DWORD PTR _lpMonster$[ebp]
  03444	0f bf 88 be 00
	00 00		 movsx	 ecx, WORD PTR [eax+190]
  0344b	8b 55 f0	 mov	 edx, DWORD PTR _i$229339[ebp]
  0344e	c1 e2 06	 shl	 edx, 6
  03451	8b 45 fc	 mov	 eax, DWORD PTR _this$[ebp]
  03454	3b 8c 10 88 48
	0e 00		 cmp	 ecx, DWORD PTR [eax+edx+936072]
  0345b	0f 8c 3e 02 00
	00		 jl	 $LN13@NewDrop
  03461	8b 45 f4	 mov	 eax, DWORD PTR _lpMonster$[ebp]
  03464	0f bf 88 be 00
	00 00		 movsx	 ecx, WORD PTR [eax+190]
  0346b	8b 55 f0	 mov	 edx, DWORD PTR _i$229339[ebp]
  0346e	c1 e2 06	 shl	 edx, 6
  03471	8b 45 fc	 mov	 eax, DWORD PTR _this$[ebp]
  03474	3b 8c 10 8c 48
	0e 00		 cmp	 ecx, DWORD PTR [eax+edx+936076]
  0347b	0f 8f 1e 02 00
	00		 jg	 $LN13@NewDrop

; 962  : 			{
; 963  : 				if( lpMonster->MapNumber == this->m_Drop[i].MonsterMap || this->m_Drop[i].MonsterMap == -1 )

  03481	8b 45 f4	 mov	 eax, DWORD PTR _lpMonster$[ebp]
  03484	0f b6 88 49 01
	00 00		 movzx	 ecx, BYTE PTR [eax+329]
  0348b	8b 55 f0	 mov	 edx, DWORD PTR _i$229339[ebp]
  0348e	c1 e2 06	 shl	 edx, 6
  03491	8b 45 fc	 mov	 eax, DWORD PTR _this$[ebp]
  03494	3b 8c 10 90 48
	0e 00		 cmp	 ecx, DWORD PTR [eax+edx+936080]
  0349b	74 17		 je	 SHORT $LN10@NewDrop
  0349d	8b 45 f0	 mov	 eax, DWORD PTR _i$229339[ebp]
  034a0	c1 e0 06	 shl	 eax, 6
  034a3	8b 4d fc	 mov	 ecx, DWORD PTR _this$[ebp]
  034a6	83 bc 01 90 48
	0e 00 ff	 cmp	 DWORD PTR [ecx+eax+936080], -1
  034ae	0f 85 eb 01 00
	00		 jne	 $LN13@NewDrop
$LN10@NewDrop:

; 964  : 				{
; 965  : 					if( rand() % 10000 < this->m_Drop[i].ItemDropRate )

  034b4	e8 00 00 00 00	 call	 _rand
  034b9	99		 cdq
  034ba	b9 10 27 00 00	 mov	 ecx, 10000		; 00002710H
  034bf	f7 f9		 idiv	 ecx
  034c1	8b 45 f0	 mov	 eax, DWORD PTR _i$229339[ebp]
  034c4	c1 e0 06	 shl	 eax, 6
  034c7	8b 4d fc	 mov	 ecx, DWORD PTR _this$[ebp]
  034ca	3b 94 01 84 48
	0e 00		 cmp	 edx, DWORD PTR [ecx+eax+936068]
  034d1	0f 8d c8 01 00
	00		 jge	 $LN13@NewDrop

; 966  : 					{
; 967  : 						int iLuck	= 0;

  034d7	c7 45 e8 00 00
	00 00		 mov	 DWORD PTR _iLuck$229351[ebp], 0

; 968  : 						int iSkill	= 0;

  034de	c7 45 e4 00 00
	00 00		 mov	 DWORD PTR _iSkill$229352[ebp], 0

; 969  : 						int iOption	= 0;

  034e5	c7 45 e0 00 00
	00 00		 mov	 DWORD PTR _iOption$229353[ebp], 0

; 970  : 						int iLevel	= 0;

  034ec	c7 45 dc 00 00
	00 00		 mov	 DWORD PTR _iLevel$229354[ebp], 0

; 971  : 
; 972  : 						// ----
; 973  : 						if( this->m_Drop[i].ItemMaxLevel == this->m_Drop[i].ItemMinLevel )

  034f3	8b 45 f0	 mov	 eax, DWORD PTR _i$229339[ebp]
  034f6	c1 e0 06	 shl	 eax, 6
  034f9	8b 4d f0	 mov	 ecx, DWORD PTR _i$229339[ebp]
  034fc	c1 e1 06	 shl	 ecx, 6
  034ff	8b 55 fc	 mov	 edx, DWORD PTR _this$[ebp]
  03502	8b 75 fc	 mov	 esi, DWORD PTR _this$[ebp]
  03505	8b 84 02 68 48
	0e 00		 mov	 eax, DWORD PTR [edx+eax+936040]
  0350c	3b 84 0e 64 48
	0e 00		 cmp	 eax, DWORD PTR [esi+ecx+936036]
  03513	75 15		 jne	 SHORT $LN8@NewDrop

; 974  : 						{
; 975  : 							iLevel = this->m_Drop[i].ItemMinLevel;

  03515	8b 45 f0	 mov	 eax, DWORD PTR _i$229339[ebp]
  03518	c1 e0 06	 shl	 eax, 6
  0351b	8b 4d fc	 mov	 ecx, DWORD PTR _this$[ebp]
  0351e	8b 94 01 64 48
	0e 00		 mov	 edx, DWORD PTR [ecx+eax+936036]
  03525	89 55 dc	 mov	 DWORD PTR _iLevel$229354[ebp], edx

; 976  : 						}
; 977  : 						else

  03528	eb 3e		 jmp	 SHORT $LN7@NewDrop
$LN8@NewDrop:

; 978  : 						{
; 979  : 							iLevel = this->m_Drop[i].ItemMinLevel + (rand() % (this->m_Drop[i].ItemMaxLevel - this->m_Drop[i].ItemMinLevel + 1));

  0352a	8b 75 f0	 mov	 esi, DWORD PTR _i$229339[ebp]
  0352d	c1 e6 06	 shl	 esi, 6
  03530	e8 00 00 00 00	 call	 _rand
  03535	8b 4d f0	 mov	 ecx, DWORD PTR _i$229339[ebp]
  03538	c1 e1 06	 shl	 ecx, 6
  0353b	8b 55 f0	 mov	 edx, DWORD PTR _i$229339[ebp]
  0353e	c1 e2 06	 shl	 edx, 6
  03541	8b 7d fc	 mov	 edi, DWORD PTR _this$[ebp]
  03544	8b 5d fc	 mov	 ebx, DWORD PTR _this$[ebp]
  03547	8b 8c 0f 68 48
	0e 00		 mov	 ecx, DWORD PTR [edi+ecx+936040]
  0354e	2b 8c 13 64 48
	0e 00		 sub	 ecx, DWORD PTR [ebx+edx+936036]
  03555	83 c1 01	 add	 ecx, 1
  03558	99		 cdq
  03559	f7 f9		 idiv	 ecx
  0355b	8b 45 fc	 mov	 eax, DWORD PTR _this$[ebp]
  0355e	03 94 30 64 48
	0e 00		 add	 edx, DWORD PTR [eax+esi+936036]
  03565	89 55 dc	 mov	 DWORD PTR _iLevel$229354[ebp], edx
$LN7@NewDrop:

; 980  : 						}
; 981  : 
; 982  : 						// ----
; 983  : 						if( this->m_Drop[i].ItemLuck == 1 )

  03568	8b 45 f0	 mov	 eax, DWORD PTR _i$229339[ebp]
  0356b	c1 e0 06	 shl	 eax, 6
  0356e	8b 4d fc	 mov	 ecx, DWORD PTR _this$[ebp]
  03571	83 bc 01 70 48
	0e 00 01	 cmp	 DWORD PTR [ecx+eax+936048], 1
  03579	75 19		 jne	 SHORT $LN6@NewDrop

; 984  : 						{
; 985  : 							if( rand() % 100 < 50 )

  0357b	e8 00 00 00 00	 call	 _rand
  03580	99		 cdq
  03581	b9 64 00 00 00	 mov	 ecx, 100		; 00000064H
  03586	f7 f9		 idiv	 ecx
  03588	83 fa 32	 cmp	 edx, 50			; 00000032H
  0358b	7d 07		 jge	 SHORT $LN6@NewDrop

; 986  : 							{
; 987  : 								iLuck = 1;

  0358d	c7 45 e8 01 00
	00 00		 mov	 DWORD PTR _iLuck$229351[ebp], 1
$LN6@NewDrop:

; 988  : 							}
; 989  : 						}
; 990  : 						// ----
; 991  : 						if( this->m_Drop[i].ItemSkill == 1 )

  03594	8b 45 f0	 mov	 eax, DWORD PTR _i$229339[ebp]
  03597	c1 e0 06	 shl	 eax, 6
  0359a	8b 4d fc	 mov	 ecx, DWORD PTR _this$[ebp]
  0359d	83 bc 01 74 48
	0e 00 01	 cmp	 DWORD PTR [ecx+eax+936052], 1
  035a5	75 19		 jne	 SHORT $LN4@NewDrop

; 992  : 						{
; 993  : 							if( rand() % 100 < 50 )

  035a7	e8 00 00 00 00	 call	 _rand
  035ac	99		 cdq
  035ad	b9 64 00 00 00	 mov	 ecx, 100		; 00000064H
  035b2	f7 f9		 idiv	 ecx
  035b4	83 fa 32	 cmp	 edx, 50			; 00000032H
  035b7	7d 07		 jge	 SHORT $LN4@NewDrop

; 994  : 							{
; 995  : 								iSkill = 1;

  035b9	c7 45 e4 01 00
	00 00		 mov	 DWORD PTR _iSkill$229352[ebp], 1
$LN4@NewDrop:

; 996  : 							}
; 997  : 						}
; 998  : 						// ----
; 999  : 						if( this->m_Drop[i].ItemMaxOption != 0 )

  035c0	8b 45 f0	 mov	 eax, DWORD PTR _i$229339[ebp]
  035c3	c1 e0 06	 shl	 eax, 6
  035c6	8b 4d fc	 mov	 ecx, DWORD PTR _this$[ebp]
  035c9	83 bc 01 6c 48
	0e 00 00	 cmp	 DWORD PTR [ecx+eax+936044], 0
  035d1	74 2e		 je	 SHORT $LN2@NewDrop

; 1000 : 						{
; 1001 : 							if( rand() % 100 < 50 )

  035d3	e8 00 00 00 00	 call	 _rand
  035d8	99		 cdq
  035d9	b9 64 00 00 00	 mov	 ecx, 100		; 00000064H
  035de	f7 f9		 idiv	 ecx
  035e0	83 fa 32	 cmp	 edx, 50			; 00000032H
  035e3	7d 1c		 jge	 SHORT $LN2@NewDrop

; 1002 : 							{
; 1003 : 								iOption = rand() % this->m_Drop[i].ItemMaxOption + 1;

  035e5	e8 00 00 00 00	 call	 _rand
  035ea	8b 4d f0	 mov	 ecx, DWORD PTR _i$229339[ebp]
  035ed	c1 e1 06	 shl	 ecx, 6
  035f0	8b 75 fc	 mov	 esi, DWORD PTR _this$[ebp]
  035f3	99		 cdq
  035f4	f7 bc 0e 6c 48
	0e 00		 idiv	 DWORD PTR [esi+ecx+936044]
  035fb	83 c2 01	 add	 edx, 1
  035fe	89 55 e0	 mov	 DWORD PTR _iOption$229353[ebp], edx
$LN2@NewDrop:

; 1004 : 							}
; 1005 : 						}
; 1006 : 
; 1007 : 						ItemSerialCreateSend(lpUser->m_Index, lpMonster->MapNumber, lpMonster->X, lpMonster->Y, ITEMGET(this->m_Drop[i].ItemType, this->m_Drop[i].ItemIndex), iLevel, this->m_Drop[i].ItemDur, iOption, iLuck, iSkill, gObjMonsterTopHitDamageUser(lpMonster), this->m_Drop[i].ItemExcellent, 0);

  03601	6a 00		 push	 0
  03603	8b 45 f0	 mov	 eax, DWORD PTR _i$229339[ebp]
  03606	c1 e0 06	 shl	 eax, 6
  03609	8b 4d fc	 mov	 ecx, DWORD PTR _this$[ebp]
  0360c	0f b6 94 01 78
	48 0e 00	 movzx	 edx, BYTE PTR [ecx+eax+936056]
  03614	52		 push	 edx
  03615	8b 45 f4	 mov	 eax, DWORD PTR _lpMonster$[ebp]
  03618	50		 push	 eax
  03619	e8 00 00 00 00	 call	 ?gObjMonsterTopHitDamageUser@@YAHPAUOBJECTSTRUCT@@@Z ; gObjMonsterTopHitDamageUser
  0361e	83 c4 04	 add	 esp, 4
  03621	50		 push	 eax
  03622	0f b6 4d e4	 movzx	 ecx, BYTE PTR _iSkill$229352[ebp]
  03626	51		 push	 ecx
  03627	0f b6 55 e8	 movzx	 edx, BYTE PTR _iLuck$229351[ebp]
  0362b	52		 push	 edx
  0362c	0f b6 45 e0	 movzx	 eax, BYTE PTR _iOption$229353[ebp]
  03630	50		 push	 eax
  03631	8b 4d f0	 mov	 ecx, DWORD PTR _i$229339[ebp]
  03634	c1 e1 06	 shl	 ecx, 6
  03637	8b 55 fc	 mov	 edx, DWORD PTR _this$[ebp]
  0363a	0f b6 84 0a 80
	48 0e 00	 movzx	 eax, BYTE PTR [edx+ecx+936064]
  03642	50		 push	 eax
  03643	0f b6 4d dc	 movzx	 ecx, BYTE PTR _iLevel$229354[ebp]
  03647	51		 push	 ecx
  03648	8b 55 f0	 mov	 edx, DWORD PTR _i$229339[ebp]
  0364b	c1 e2 06	 shl	 edx, 6
  0364e	8b 45 fc	 mov	 eax, DWORD PTR _this$[ebp]
  03651	8b 8c 10 5c 48
	0e 00		 mov	 ecx, DWORD PTR [eax+edx+936028]
  03658	c1 e1 09	 shl	 ecx, 9
  0365b	8b 55 f0	 mov	 edx, DWORD PTR _i$229339[ebp]
  0365e	c1 e2 06	 shl	 edx, 6
  03661	8b 45 fc	 mov	 eax, DWORD PTR _this$[ebp]
  03664	03 8c 10 60 48
	0e 00		 add	 ecx, DWORD PTR [eax+edx+936032]
  0366b	51		 push	 ecx
  0366c	8b 4d f4	 mov	 ecx, DWORD PTR _lpMonster$[ebp]
  0366f	0f b6 91 46 01
	00 00		 movzx	 edx, BYTE PTR [ecx+326]
  03676	52		 push	 edx
  03677	8b 45 f4	 mov	 eax, DWORD PTR _lpMonster$[ebp]
  0367a	0f b6 88 44 01
	00 00		 movzx	 ecx, BYTE PTR [eax+324]
  03681	51		 push	 ecx
  03682	8b 55 f4	 mov	 edx, DWORD PTR _lpMonster$[ebp]
  03685	0f b6 82 49 01
	00 00		 movzx	 eax, BYTE PTR [edx+329]
  0368c	50		 push	 eax
  0368d	8b 4d f8	 mov	 ecx, DWORD PTR _lpUser$[ebp]
  03690	8b 11		 mov	 edx, DWORD PTR [ecx]
  03692	52		 push	 edx
  03693	e8 00 00 00 00	 call	 ?ItemSerialCreateSend@@YAXHEEEHEEEEEHEE@Z ; ItemSerialCreateSend
  03698	83 c4 34	 add	 esp, 52			; 00000034H

; 1008 : 					
; 1009 : 						return true;

  0369b	b0 01		 mov	 al, 1
  0369d	eb 07		 jmp	 SHORT $LN22@NewDrop
$LN13@NewDrop:

; 1010 : 					}
; 1011 : 				}
; 1012 : 			}
; 1013 : 		}
; 1014 : 	}

  0369f	e9 3d fd ff ff	 jmp	 $LN17@NewDrop
$LN16@NewDrop:

; 1015 : 
; 1016 : 	return false;

  036a4	32 c0		 xor	 al, al
$LN22@NewDrop:

; 1017 : }

  036a6	5f		 pop	 edi
  036a7	5e		 pop	 esi
  036a8	5b		 pop	 ebx
  036a9	8b e5		 mov	 esp, ebp
  036ab	5d		 pop	 ebp
  036ac	c2 08 00	 ret	 8
?NewDrop@ExWinQuestSystem@@QAE_NHH@Z ENDP		; ExWinQuestSystem::NewDrop
_TEXT	ENDS
PUBLIC	?SaveQuest@ExWinQuestSystem@@QAEXHPAE@Z		; ExWinQuestSystem::SaveQuest
; Function compile flags: /Odtp /ZI
_TEXT	SEGMENT
_m$229383 = -36						; size = 4
_Number$229377 = -32					; size = 2
_a$229373 = -28						; size = 4
_Count$ = -24						; size = 2
_Number$ = -20						; size = 2
_Start$ = -13						; size = 1
_n$ = -12						; size = 4
_lpUser$ = -8						; size = 4
_this$ = -4						; size = 4
_aIndex$ = 8						; size = 4
_buf$ = 12						; size = 4
?SaveQuest@ExWinQuestSystem@@QAEXHPAE@Z PROC		; ExWinQuestSystem::SaveQuest
; _this$ = ecx

; 1021 : {

  036b0	55		 push	 ebp
  036b1	8b ec		 mov	 ebp, esp
  036b3	83 ec 64	 sub	 esp, 100		; 00000064H
  036b6	53		 push	 ebx
  036b7	56		 push	 esi
  036b8	57		 push	 edi
  036b9	89 4d fc	 mov	 DWORD PTR _this$[ebp], ecx

; 1022 : 	return;

  036bc	e9 18 01 00 00	 jmp	 $LN7@SaveQuest

; 1023 : 	LPOBJ lpUser = &gObj[aIndex];

  036c1	8b 45 08	 mov	 eax, DWORD PTR _aIndex$[ebp]
  036c4	69 c0 38 2b 00
	00		 imul	 eax, 11064		; 00002b38H
  036ca	03 05 00 00 00
	00		 add	 eax, DWORD PTR ?gObj@@3PAUOBJECTSTRUCT@@A ; gObj
  036d0	89 45 f8	 mov	 DWORD PTR _lpUser$[ebp], eax

; 1024 : 
; 1025 : 	int n = 0;

  036d3	c7 45 f4 00 00
	00 00		 mov	 DWORD PTR _n$[ebp], 0

; 1026 : 	BYTE Start = 0;

  036da	c6 45 f3 00	 mov	 BYTE PTR _Start$[ebp], 0

; 1027 : 	WORD Number = 0;

  036de	33 c0		 xor	 eax, eax
  036e0	66 89 45 ec	 mov	 WORD PTR _Number$[ebp], ax

; 1028 : 	WORD Count = 0;

  036e4	33 c0		 xor	 eax, eax
  036e6	66 89 45 e8	 mov	 WORD PTR _Count$[ebp], ax

; 1029 : 
; 1030 : 	for(int a = 0; a < EW_MAX_ACT; a++)

  036ea	c7 45 e4 00 00
	00 00		 mov	 DWORD PTR _a$229373[ebp], 0
  036f1	eb 09		 jmp	 SHORT $LN6@SaveQuest
$LN5@SaveQuest:
  036f3	8b 45 e4	 mov	 eax, DWORD PTR _a$229373[ebp]
  036f6	83 c0 01	 add	 eax, 1
  036f9	89 45 e4	 mov	 DWORD PTR _a$229373[ebp], eax
$LN6@SaveQuest:
  036fc	83 7d e4 03	 cmp	 DWORD PTR _a$229373[ebp], 3
  03700	0f 8d d3 00 00
	00		 jge	 $LN7@SaveQuest

; 1031 : 	{
; 1032 : 		Start = lpUser->ExWQuestStart[a];

  03706	8b 45 f8	 mov	 eax, DWORD PTR _lpUser$[ebp]
  03709	03 45 e4	 add	 eax, DWORD PTR _a$229373[ebp]
  0370c	8a 88 ec 2a 00
	00		 mov	 cl, BYTE PTR [eax+10988]
  03712	88 4d f3	 mov	 BYTE PTR _Start$[ebp], cl

; 1033 : 		buf[n] = Start;

  03715	8b 45 0c	 mov	 eax, DWORD PTR _buf$[ebp]
  03718	03 45 f4	 add	 eax, DWORD PTR _n$[ebp]
  0371b	8a 4d f3	 mov	 cl, BYTE PTR _Start$[ebp]
  0371e	88 08		 mov	 BYTE PTR [eax], cl

; 1034 : 		n++;

  03720	8b 45 f4	 mov	 eax, DWORD PTR _n$[ebp]
  03723	83 c0 01	 add	 eax, 1
  03726	89 45 f4	 mov	 DWORD PTR _n$[ebp], eax

; 1035 : 		WORD Number = lpUser->ExWQuestNum[a];

  03729	8b 45 e4	 mov	 eax, DWORD PTR _a$229373[ebp]
  0372c	8b 4d f8	 mov	 ecx, DWORD PTR _lpUser$[ebp]
  0372f	66 8b 94 41 f0
	2a 00 00	 mov	 dx, WORD PTR [ecx+eax*2+10992]
  03737	66 89 55 e0	 mov	 WORD PTR _Number$229377[ebp], dx

; 1036 : 		buf[n] = SET_NUMBERH(Number);

  0373b	0f b7 45 e0	 movzx	 eax, WORD PTR _Number$229377[ebp]
  0373f	c1 e8 08	 shr	 eax, 8
  03742	8b 4d 0c	 mov	 ecx, DWORD PTR _buf$[ebp]
  03745	03 4d f4	 add	 ecx, DWORD PTR _n$[ebp]
  03748	88 01		 mov	 BYTE PTR [ecx], al

; 1037 : 		n++;

  0374a	8b 45 f4	 mov	 eax, DWORD PTR _n$[ebp]
  0374d	83 c0 01	 add	 eax, 1
  03750	89 45 f4	 mov	 DWORD PTR _n$[ebp], eax

; 1038 : 		buf[n] = SET_NUMBERL(Number);

  03753	0f b7 45 e0	 movzx	 eax, WORD PTR _Number$229377[ebp]
  03757	25 ff 00 00 00	 and	 eax, 255		; 000000ffH
  0375c	8b 4d 0c	 mov	 ecx, DWORD PTR _buf$[ebp]
  0375f	03 4d f4	 add	 ecx, DWORD PTR _n$[ebp]
  03762	88 01		 mov	 BYTE PTR [ecx], al

; 1039 : 		n++;

  03764	8b 45 f4	 mov	 eax, DWORD PTR _n$[ebp]
  03767	83 c0 01	 add	 eax, 1
  0376a	89 45 f4	 mov	 DWORD PTR _n$[ebp], eax

; 1040 : 		for(int m = 0; m < EW_MAX_MISSION; m++)

  0376d	c7 45 dc 00 00
	00 00		 mov	 DWORD PTR _m$229383[ebp], 0
  03774	eb 09		 jmp	 SHORT $LN3@SaveQuest
$LN2@SaveQuest:
  03776	8b 45 dc	 mov	 eax, DWORD PTR _m$229383[ebp]
  03779	83 c0 01	 add	 eax, 1
  0377c	89 45 dc	 mov	 DWORD PTR _m$229383[ebp], eax
$LN3@SaveQuest:
  0377f	83 7d dc 05	 cmp	 DWORD PTR _m$229383[ebp], 5
  03783	7d 4f		 jge	 SHORT $LN1@SaveQuest

; 1041 : 		{
; 1042 : 			Count = lpUser->ExWQuestCount[a][m];

  03785	8b 45 e4	 mov	 eax, DWORD PTR _a$229373[ebp]
  03788	6b c0 0a	 imul	 eax, 10			; 0000000aH
  0378b	8b 4d f8	 mov	 ecx, DWORD PTR _lpUser$[ebp]
  0378e	8d 94 01 f6 2a
	00 00		 lea	 edx, DWORD PTR [ecx+eax+10998]
  03795	8b 45 dc	 mov	 eax, DWORD PTR _m$229383[ebp]
  03798	66 8b 0c 42	 mov	 cx, WORD PTR [edx+eax*2]
  0379c	66 89 4d e8	 mov	 WORD PTR _Count$[ebp], cx

; 1043 : 			buf[n] = SET_NUMBERH(Count);

  037a0	0f b7 45 e8	 movzx	 eax, WORD PTR _Count$[ebp]
  037a4	c1 e8 08	 shr	 eax, 8
  037a7	8b 4d 0c	 mov	 ecx, DWORD PTR _buf$[ebp]
  037aa	03 4d f4	 add	 ecx, DWORD PTR _n$[ebp]
  037ad	88 01		 mov	 BYTE PTR [ecx], al

; 1044 : 			n++;

  037af	8b 45 f4	 mov	 eax, DWORD PTR _n$[ebp]
  037b2	83 c0 01	 add	 eax, 1
  037b5	89 45 f4	 mov	 DWORD PTR _n$[ebp], eax

; 1045 : 			buf[n] = SET_NUMBERL(Count);

  037b8	0f b7 45 e8	 movzx	 eax, WORD PTR _Count$[ebp]
  037bc	25 ff 00 00 00	 and	 eax, 255		; 000000ffH
  037c1	8b 4d 0c	 mov	 ecx, DWORD PTR _buf$[ebp]
  037c4	03 4d f4	 add	 ecx, DWORD PTR _n$[ebp]
  037c7	88 01		 mov	 BYTE PTR [ecx], al

; 1046 : 			n++;

  037c9	8b 45 f4	 mov	 eax, DWORD PTR _n$[ebp]
  037cc	83 c0 01	 add	 eax, 1
  037cf	89 45 f4	 mov	 DWORD PTR _n$[ebp], eax

; 1047 : 		}

  037d2	eb a2		 jmp	 SHORT $LN2@SaveQuest
$LN1@SaveQuest:

; 1048 : 	}

  037d4	e9 1a ff ff ff	 jmp	 $LN5@SaveQuest
$LN7@SaveQuest:

; 1049 : 
; 1050 : #if(EW_DEBUG==TRUE)
; 1051 : 	LogAddC(2, "SaveQuest: %d", n);
; 1052 : #endif
; 1053 : }

  037d9	5f		 pop	 edi
  037da	5e		 pop	 esi
  037db	5b		 pop	 ebx
  037dc	8b e5		 mov	 esp, ebp
  037de	5d		 pop	 ebp
  037df	c2 08 00	 ret	 8
?SaveQuest@ExWinQuestSystem@@QAEXHPAE@Z ENDP		; ExWinQuestSystem::SaveQuest
_TEXT	ENDS
PUBLIC	?LoadQuest@ExWinQuestSystem@@QAEXHPAE@Z		; ExWinQuestSystem::LoadQuest
; Function compile flags: /Odtp /ZI
_TEXT	SEGMENT
_m$229406 = -20						; size = 4
_a$229399 = -16						; size = 4
_n$ = -12						; size = 4
_lpUser$ = -8						; size = 4
_this$ = -4						; size = 4
_aIndex$ = 8						; size = 4
_buf$ = 12						; size = 4
?LoadQuest@ExWinQuestSystem@@QAEXHPAE@Z PROC		; ExWinQuestSystem::LoadQuest
; _this$ = ecx

; 1057 : {

  037f0	55		 push	 ebp
  037f1	8b ec		 mov	 ebp, esp
  037f3	83 ec 54	 sub	 esp, 84			; 00000054H
  037f6	53		 push	 ebx
  037f7	56		 push	 esi
  037f8	57		 push	 edi
  037f9	89 4d fc	 mov	 DWORD PTR _this$[ebp], ecx

; 1058 : 	return;

  037fc	e9 fc 00 00 00	 jmp	 $LN7@LoadQuest

; 1059 : 	LPOBJ lpUser = &gObj[aIndex];

  03801	8b 45 08	 mov	 eax, DWORD PTR _aIndex$[ebp]
  03804	69 c0 38 2b 00
	00		 imul	 eax, 11064		; 00002b38H
  0380a	03 05 00 00 00
	00		 add	 eax, DWORD PTR ?gObj@@3PAUOBJECTSTRUCT@@A ; gObj
  03810	89 45 f8	 mov	 DWORD PTR _lpUser$[ebp], eax

; 1060 : 	int n = 0;

  03813	c7 45 f4 00 00
	00 00		 mov	 DWORD PTR _n$[ebp], 0

; 1061 : 
; 1062 : 	for(int a = 0; a < EW_MAX_ACT; a++)

  0381a	c7 45 f0 00 00
	00 00		 mov	 DWORD PTR _a$229399[ebp], 0
  03821	eb 09		 jmp	 SHORT $LN6@LoadQuest
$LN5@LoadQuest:
  03823	8b 45 f0	 mov	 eax, DWORD PTR _a$229399[ebp]
  03826	83 c0 01	 add	 eax, 1
  03829	89 45 f0	 mov	 DWORD PTR _a$229399[ebp], eax
$LN6@LoadQuest:
  0382c	83 7d f0 03	 cmp	 DWORD PTR _a$229399[ebp], 3
  03830	0f 8d c7 00 00
	00		 jge	 $LN7@LoadQuest

; 1063 : 	{
; 1064 : 		lpUser->ExWQuestStart[a] = buf[n];

  03836	8b 45 f8	 mov	 eax, DWORD PTR _lpUser$[ebp]
  03839	03 45 f0	 add	 eax, DWORD PTR _a$229399[ebp]
  0383c	8b 4d 0c	 mov	 ecx, DWORD PTR _buf$[ebp]
  0383f	03 4d f4	 add	 ecx, DWORD PTR _n$[ebp]
  03842	8a 11		 mov	 dl, BYTE PTR [ecx]
  03844	88 90 ec 2a 00
	00		 mov	 BYTE PTR [eax+10988], dl

; 1065 : 		n++;

  0384a	8b 45 f4	 mov	 eax, DWORD PTR _n$[ebp]
  0384d	83 c0 01	 add	 eax, 1
  03850	89 45 f4	 mov	 DWORD PTR _n$[ebp], eax

; 1066 : 		lpUser->ExWQuestNum[a] = MAKE_NUMBERW(buf[n], buf[n+1]);

  03853	8b 45 0c	 mov	 eax, DWORD PTR _buf$[ebp]
  03856	03 45 f4	 add	 eax, DWORD PTR _n$[ebp]
  03859	0f b6 48 01	 movzx	 ecx, BYTE PTR [eax+1]
  0385d	81 e1 ff 00 00
	00		 and	 ecx, 255		; 000000ffH
  03863	0f b6 d1	 movzx	 edx, cl
  03866	8b 45 0c	 mov	 eax, DWORD PTR _buf$[ebp]
  03869	03 45 f4	 add	 eax, DWORD PTR _n$[ebp]
  0386c	0f b6 08	 movzx	 ecx, BYTE PTR [eax]
  0386f	81 e1 ff 00 00
	00		 and	 ecx, 255		; 000000ffH
  03875	0f b6 c1	 movzx	 eax, cl
  03878	c1 e0 08	 shl	 eax, 8
  0387b	0b d0		 or	 edx, eax
  0387d	8b 4d f0	 mov	 ecx, DWORD PTR _a$229399[ebp]
  03880	8b 45 f8	 mov	 eax, DWORD PTR _lpUser$[ebp]
  03883	66 89 94 48 f0
	2a 00 00	 mov	 WORD PTR [eax+ecx*2+10992], dx

; 1067 : 		n+=2;

  0388b	8b 45 f4	 mov	 eax, DWORD PTR _n$[ebp]
  0388e	83 c0 02	 add	 eax, 2
  03891	89 45 f4	 mov	 DWORD PTR _n$[ebp], eax

; 1068 : 		for(int m = 0; m < EW_MAX_MISSION; m++)

  03894	c7 45 ec 00 00
	00 00		 mov	 DWORD PTR _m$229406[ebp], 0
  0389b	eb 09		 jmp	 SHORT $LN3@LoadQuest
$LN2@LoadQuest:
  0389d	8b 45 ec	 mov	 eax, DWORD PTR _m$229406[ebp]
  038a0	83 c0 01	 add	 eax, 1
  038a3	89 45 ec	 mov	 DWORD PTR _m$229406[ebp], eax
$LN3@LoadQuest:
  038a6	83 7d ec 05	 cmp	 DWORD PTR _m$229406[ebp], 5
  038aa	7d 4c		 jge	 SHORT $LN1@LoadQuest

; 1069 : 		{
; 1070 : 			lpUser->ExWQuestCount[a][m] = MAKE_NUMBERW(buf[n], buf[n+1]);

  038ac	8b 45 0c	 mov	 eax, DWORD PTR _buf$[ebp]
  038af	03 45 f4	 add	 eax, DWORD PTR _n$[ebp]
  038b2	0f b6 48 01	 movzx	 ecx, BYTE PTR [eax+1]
  038b6	81 e1 ff 00 00
	00		 and	 ecx, 255		; 000000ffH
  038bc	0f b6 d1	 movzx	 edx, cl
  038bf	8b 45 0c	 mov	 eax, DWORD PTR _buf$[ebp]
  038c2	03 45 f4	 add	 eax, DWORD PTR _n$[ebp]
  038c5	0f b6 08	 movzx	 ecx, BYTE PTR [eax]
  038c8	81 e1 ff 00 00
	00		 and	 ecx, 255		; 000000ffH
  038ce	0f b6 c1	 movzx	 eax, cl
  038d1	c1 e0 08	 shl	 eax, 8
  038d4	0b d0		 or	 edx, eax
  038d6	8b 4d f0	 mov	 ecx, DWORD PTR _a$229399[ebp]
  038d9	6b c9 0a	 imul	 ecx, 10			; 0000000aH
  038dc	8b 45 f8	 mov	 eax, DWORD PTR _lpUser$[ebp]
  038df	8d 8c 08 f6 2a
	00 00		 lea	 ecx, DWORD PTR [eax+ecx+10998]
  038e6	8b 45 ec	 mov	 eax, DWORD PTR _m$229406[ebp]
  038e9	66 89 14 41	 mov	 WORD PTR [ecx+eax*2], dx

; 1071 : 			n+=2;

  038ed	8b 45 f4	 mov	 eax, DWORD PTR _n$[ebp]
  038f0	83 c0 02	 add	 eax, 2
  038f3	89 45 f4	 mov	 DWORD PTR _n$[ebp], eax

; 1072 : 		}

  038f6	eb a5		 jmp	 SHORT $LN2@LoadQuest
$LN1@LoadQuest:

; 1073 : 	}

  038f8	e9 26 ff ff ff	 jmp	 $LN5@LoadQuest
$LN7@LoadQuest:

; 1074 : 
; 1075 : #if(EW_DEBUG==TRUE)
; 1076 : 	LogAddC(2, "LoadQuest: %d", n);
; 1077 : #endif
; 1078 : }

  038fd	5f		 pop	 edi
  038fe	5e		 pop	 esi
  038ff	5b		 pop	 ebx
  03900	8b e5		 mov	 esp, ebp
  03902	5d		 pop	 ebp
  03903	c2 08 00	 ret	 8
?LoadQuest@ExWinQuestSystem@@QAEXHPAE@Z ENDP		; ExWinQuestSystem::LoadQuest
_TEXT	ENDS
EXTRN	_atexit:PROC
; Function compile flags: /Odtp /ZI
;	COMDAT ??__Eg_ExWinQuestSystem@@YAXXZ
text$yc	SEGMENT
??__Eg_ExWinQuestSystem@@YAXXZ PROC			; `dynamic initializer for 'g_ExWinQuestSystem'', COMDAT

; 18   : ExWinQuestSystem g_ExWinQuestSystem;

  00000	55		 push	 ebp
  00001	8b ec		 mov	 ebp, esp
  00003	83 ec 40	 sub	 esp, 64			; 00000040H
  00006	53		 push	 ebx
  00007	56		 push	 esi
  00008	57		 push	 edi
  00009	b9 00 00 00 00	 mov	 ecx, OFFSET ?g_ExWinQuestSystem@@3VExWinQuestSystem@@A ; g_ExWinQuestSystem
  0000e	e8 00 00 00 00	 call	 ??0ExWinQuestSystem@@QAE@XZ ; ExWinQuestSystem::ExWinQuestSystem
  00013	68 00 00 00 00	 push	 OFFSET ??__Fg_ExWinQuestSystem@@YAXXZ ; `dynamic atexit destructor for 'g_ExWinQuestSystem''
  00018	e8 00 00 00 00	 call	 _atexit
  0001d	83 c4 04	 add	 esp, 4
  00020	5f		 pop	 edi
  00021	5e		 pop	 esi
  00022	5b		 pop	 ebx
  00023	8b e5		 mov	 esp, ebp
  00025	5d		 pop	 ebp
  00026	c3		 ret	 0
??__Eg_ExWinQuestSystem@@YAXXZ ENDP			; `dynamic initializer for 'g_ExWinQuestSystem''
; Function compile flags: /Odtp /ZI
text$yc	ENDS
;	COMDAT ??__Fg_ExWinQuestSystem@@YAXXZ
text$yd	SEGMENT
??__Fg_ExWinQuestSystem@@YAXXZ PROC			; `dynamic atexit destructor for 'g_ExWinQuestSystem'', COMDAT
  00000	55		 push	 ebp
  00001	8b ec		 mov	 ebp, esp
  00003	83 ec 40	 sub	 esp, 64			; 00000040H
  00006	53		 push	 ebx
  00007	56		 push	 esi
  00008	57		 push	 edi
  00009	b9 00 00 00 00	 mov	 ecx, OFFSET ?g_ExWinQuestSystem@@3VExWinQuestSystem@@A ; g_ExWinQuestSystem
  0000e	e8 00 00 00 00	 call	 ??1ExWinQuestSystem@@QAE@XZ ; ExWinQuestSystem::~ExWinQuestSystem
  00013	5f		 pop	 edi
  00014	5e		 pop	 esi
  00015	5b		 pop	 ebx
  00016	8b e5		 mov	 esp, ebp
  00018	5d		 pop	 ebp
  00019	c3		 ret	 0
??__Fg_ExWinQuestSystem@@YAXXZ ENDP			; `dynamic atexit destructor for 'g_ExWinQuestSystem''
text$yd	ENDS
PUBLIC	?g_ExWinQuestSystem@@3VExWinQuestSystem@@A	; g_ExWinQuestSystem
_BSS	SEGMENT
?g_ExWinQuestSystem@@3VExWinQuestSystem@@A DB 0e6164H DUP (?) ; g_ExWinQuestSystem
_BSS	ENDS
CRT$XCU	SEGMENT
_g_ExWinQuestSystem$initializer$ DD FLAT:??__Eg_ExWinQuestSystem@@YAXXZ
CRT$XCU	ENDS
END
