; Listing generated by Microsoft (R) Optimizing Compiler Version 16.00.40219.01 

	TITLE	D:\Projects\ExTeam6.3\Source\GameServer\GameServer\GameMain.cpp
	.686P
	.XMM
	include listing.inc
	.model	flat

INCLUDELIB LIBCMT
INCLUDELIB OLDNAMES

PUBLIC	?JoinServerConnected@@3HA			; JoinServerConnected
PUBLIC	?DataServerConnected@@3HA			; DataServerConnected
PUBLIC	?GameServerCreated@@3HA				; GameServerCreated
PUBLIC	?DevilSquareEventConnect@@3HA			; DevilSquareEventConnect
PUBLIC	?IsDevilSquareEventConnected@@3HA		; IsDevilSquareEventConnected
PUBLIC	?EventChipServerConnect@@3HA			; EventChipServerConnect
PUBLIC	?IsEventChipServerConnected@@3HA		; IsEventChipServerConnected
PUBLIC	?DragonEvent@@3PAVCDragonEvent@@A		; DragonEvent
PUBLIC	?AttackEvent@@3PAVCAttackEvent@@A		; AttackEvent
PUBLIC	?LuckboxItemBag@@3PAVCItemBag@@A		; LuckboxItemBag
PUBLIC	?Mon55@@3PAVCItemBag@@A				; Mon55
PUBLIC	?Mon53@@3PAVCItemBag@@A				; Mon53
PUBLIC	?StarOfXMasItemBag@@3PAVCItemBagEx@@A		; StarOfXMasItemBag
PUBLIC	?FireCrackerItemBag@@3PAVCItemBag@@A		; FireCrackerItemBag
PUBLIC	?HeartOfLoveItemBag@@3PAVCItemBag@@A		; HeartOfLoveItemBag
PUBLIC	?GoldMedalItemBag@@3PAVCItemBag@@A		; GoldMedalItemBag
PUBLIC	?SilverMedalItemBag@@3PAVCItemBag@@A		; SilverMedalItemBag
PUBLIC	?EventChipItemBag@@3PAVCItemBag@@A		; EventChipItemBag
PUBLIC	?GoldGoblenItemBag@@3PAVCProbabilityItemBag@@A	; GoldGoblenItemBag
PUBLIC	?TitanItemBag@@3PAVCProbabilityItemBag@@A	; TitanItemBag
PUBLIC	?GoldDerconItemBag@@3PAVCProbabilityItemBag@@A	; GoldDerconItemBag
PUBLIC	?DevilLizardKingItemBag@@3PAVCProbabilityItemBag@@A ; DevilLizardKingItemBag
PUBLIC	?KanturItemBag@@3PAVCProbabilityItemBag@@A	; KanturItemBag
PUBLIC	?RingEventItemBag@@3PAVCItemBag@@A		; RingEventItemBag
PUBLIC	?FriendShipItemBag@@3PAVCItemBag@@A		; FriendShipItemBag
PUBLIC	?DarkLordHeartItemBag@@3PAVCItemBag@@A		; DarkLordHeartItemBag
PUBLIC	?KundunEventItemBag@@3PAVCItemBagEx@@A		; KundunEventItemBag
PUBLIC	?HiddenTreasureBoxItemBag@@3PAVCItemBagEx@@A	; HiddenTreasureBoxItemBag
PUBLIC	?RedRibbonBoxEventItemBag@@3PAVCItemBagEx@@A	; RedRibbonBoxEventItemBag
PUBLIC	?GreenRibbonBoxEventItemBag@@3PAVCItemBagEx@@A	; GreenRibbonBoxEventItemBag
PUBLIC	?BlueRibbonBoxEventItemBag@@3PAVCItemBagEx@@A	; BlueRibbonBoxEventItemBag
PUBLIC	?PinkChocolateBoxEventItemBag@@3PAVCItemBagEx@@A ; PinkChocolateBoxEventItemBag
PUBLIC	?RedChocolateBoxEventItemBag@@3PAVCItemBagEx@@A	; RedChocolateBoxEventItemBag
PUBLIC	?BlueChocolateBoxEventItemBag@@3PAVCItemBagEx@@A ; BlueChocolateBoxEventItemBag
PUBLIC	?LightPurpleCandyBoxEventItemBag@@3PAVCItemBagEx@@A ; LightPurpleCandyBoxEventItemBag
PUBLIC	?VermilionCandyBoxEventItemBag@@3PAVCItemBagEx@@A ; VermilionCandyBoxEventItemBag
PUBLIC	?DeepBlueCandyBoxEventItemBag@@3PAVCItemBagEx@@A ; DeepBlueCandyBoxEventItemBag
PUBLIC	?CrywolfDarkElfItemBag@@3PAVCItemBagEx@@A	; CrywolfDarkElfItemBag
PUBLIC	?CrywolfBossMonsterItemBag@@3PAVCItemBagEx@@A	; CrywolfBossMonsterItemBag
PUBLIC	?KanturuMayaHandItemBag@@3PAVCItemBagEx@@A	; KanturuMayaHandItemBag
PUBLIC	?KanturuNightmareItemBag@@3PAVCItemBagEx@@A	; KanturuNightmareItemBag
PUBLIC	?SilverChestItemBag@@3PAVCItemBagEx@@A		; SilverChestItemBag
PUBLIC	?GoldenChestItemBag@@3PAVCItemBagEx@@A		; GoldenChestItemBag
PUBLIC	?HallowinDayEventItemBag@@3PAVCItemBagEx@@A	; HallowinDayEventItemBag
PUBLIC	?RingOfHeroBoxItemBag@@3PAVCItemBag@@A		; RingOfHeroBoxItemBag
PUBLIC	?NewYearLuckyPouchItemBag@@3PAVCProbabilityItemBag@@A ; NewYearLuckyPouchItemBag
PUBLIC	?GMPresentBoxItemBag@@3PAVCProbabilityItemBag@@A ; GMPresentBoxItemBag
PUBLIC	?IllusionTemple1ItemBag@@3PAVCProbabilityItemBag@@A ; IllusionTemple1ItemBag
PUBLIC	?IllusionTemple2ItemBag@@3PAVCProbabilityItemBag@@A ; IllusionTemple2ItemBag
PUBLIC	?IllusionTemple3ItemBag@@3PAVCProbabilityItemBag@@A ; IllusionTemple3ItemBag
PUBLIC	?MoonHarvestItemBag@@3PAVCProbabilityItemBag@@A	; MoonHarvestItemBag
PUBLIC	?MoonHarvestItemBag2@@3PAVCProbabilityItemBag@@A ; MoonHarvestItemBag2
PUBLIC	?CherryBlossom1@@3PAVCProbabilityItemBag@@A	; CherryBlossom1
PUBLIC	?CherryBlossom2@@3PAVCProbabilityItemBag@@A	; CherryBlossom2
PUBLIC	?CherryBlossom3@@3PAVCProbabilityItemBag@@A	; CherryBlossom3
PUBLIC	?CherryBlossom4@@3PAVCProbabilityItemBag@@A	; CherryBlossom4
PUBLIC	?PCBangGageGreenBox@@3PAVCProbabilityItemBag@@A	; PCBangGageGreenBox
PUBLIC	?PCBangGageRedBox@@3PAVCProbabilityItemBag@@A	; PCBangGageRedBox
PUBLIC	?PCBangGagePurpleBox@@3PAVCProbabilityItemBag@@A ; PCBangGagePurpleBox
PUBLIC	?ReservedBox@@3PAVCProbabilityItemBag@@A	; ReservedBox
PUBLIC	?RaklionSelupanItemBag@@3PAVCProbabilityItemBag@@A ; RaklionSelupanItemBag
PUBLIC	?XMasEventA@@3PAVCProbabilityItemBag@@A		; XMasEventA
PUBLIC	?XMasEventB@@3PAVCProbabilityItemBag@@A		; XMasEventB
PUBLIC	?XMasEventC@@3PAVCProbabilityItemBag@@A		; XMasEventC
PUBLIC	?LuckyCoin10@@3PAVCProbabilityItemBag@@A	; LuckyCoin10
PUBLIC	?LuckyCoin20@@3PAVCProbabilityItemBag@@A	; LuckyCoin20
PUBLIC	?LuckyCoin30@@3PAVCProbabilityItemBag@@A	; LuckyCoin30
PUBLIC	?GoldenBoxItemBag@@3PAVCProbabilityItemBag@@A	; GoldenBoxItemBag
PUBLIC	?SilverBoxItemBag@@3PAVCProbabilityItemBag@@A	; SilverBoxItemBag
PUBLIC	?ShineJewelleryCaseItemBag@@3PAVCProbabilityItemBag@@A ; ShineJewelleryCaseItemBag
PUBLIC	?RefinedJewelleryCaseItemBag@@3PAVCProbabilityItemBag@@A ; RefinedJewelleryCaseItemBag
PUBLIC	?IronJewelleryCaseItemBag@@3PAVCProbabilityItemBag@@A ; IronJewelleryCaseItemBag
PUBLIC	?OldJewelleryCaseItemBag@@3PAVCProbabilityItemBag@@A ; OldJewelleryCaseItemBag
PUBLIC	?NewMonsterItemBag@@3PAVCProbabilityItemBag@@A	; NewMonsterItemBag
PUBLIC	?BoxOfGreenColorItemBag@@3PAVCProbabilityItemBag@@A ; BoxOfGreenColorItemBag
PUBLIC	?BoxOfRedColorItemBag@@3PAVCProbabilityItemBag@@A ; BoxOfRedColorItemBag
PUBLIC	?BoxOfPurpleColorItemBag@@3PAVCProbabilityItemBag@@A ; BoxOfPurpleColorItemBag
PUBLIC	?SpeedHackPlayerBlock@@3HA			; SpeedHackPlayerBlock
PUBLIC	?bCanConnectMember@@3HA				; bCanConnectMember
PUBLIC	?bCanChangeCharacterName@@3HA			; bCanChangeCharacterName
PUBLIC	?gServerType@@3HA				; gServerType
PUBLIC	?gPartition@@3HA				; gPartition
PUBLIC	?gApplyHeroSystem@@3HA				; gApplyHeroSystem
PUBLIC	?gSpeedHackPenalty@@3HA				; gSpeedHackPenalty
PUBLIC	?gEnableEventNPCTalk@@3HA			; gEnableEventNPCTalk
PUBLIC	?gEnableServerDivision@@3HA			; gEnableServerDivision
PUBLIC	?gEvent1@@3HA					; gEvent1
PUBLIC	?gMonsterHp@@3HA				; gMonsterHp
PUBLIC	?gMerryXMasNpcEvent@@3HA			; gMerryXMasNpcEvent
PUBLIC	?gHappyNewYearNpcEvent@@3HA			; gHappyNewYearNpcEvent
PUBLIC	?gEvent1ItemDropTodayCount@@3HA			; gEvent1ItemDropTodayCount
PUBLIC	?gLanguage@@3HA					; gLanguage
PUBLIC	?gChaosEvent@@3HA				; gChaosEvent
PUBLIC	?gChaosEventServerIp@@3PADA			; gChaosEventServerIp
PUBLIC	?gDevilSquareEventServerIp@@3PADA		; gDevilSquareEventServerIp
PUBLIC	?gHackLogServerIp@@3PADA			; gHackLogServerIp
PUBLIC	?gEventChipServerIp@@3PADA			; gEventChipServerIp
PUBLIC	?gNonPK@@3HA					; gNonPK
PUBLIC	?gPkLimitFree@@3HA				; gPkLimitFree
PUBLIC	?gXMasEvent@@3HA				; gXMasEvent
PUBLIC	?gFireCrackerEvent@@3HA				; gFireCrackerEvent
PUBLIC	?gHeartOfLoveEvent@@3HA				; gHeartOfLoveEvent
PUBLIC	?gMedalEvent@@3HA				; gMedalEvent
PUBLIC	?gEventChipEvent@@3HA				; gEventChipEvent
PUBLIC	?gDevilSquareEvent@@3HA				; gDevilSquareEvent
PUBLIC	?gWriteSkillLog@@3HA				; gWriteSkillLog
PUBLIC	?g_bStoneItemDrop@@3HA				; g_bStoneItemDrop
PUBLIC	?g_bDoXMasAttackEvent@@3HA			; g_bDoXMasAttackEvent
PUBLIC	?g_bDoRingEvent@@3HA				; g_bDoRingEvent
PUBLIC	?g_bEventManagerOn@@3HA				; g_bEventManagerOn
PUBLIC	?g_iKundunMarkDropRate@@3HA			; g_iKundunMarkDropRate
PUBLIC	?g_iMarkOfTheLord@@3HA				; g_iMarkOfTheLord
PUBLIC	?g_iJapan1StAnivItemDropRate@@3HA		; g_iJapan1StAnivItemDropRate
PUBLIC	?g_iDarkLordHeartDropRate@@3HA			; g_iDarkLordHeartDropRate
PUBLIC	?g_iDarkLordHeartOffEventRate@@3HA		; g_iDarkLordHeartOffEventRate
PUBLIC	?g_iMysteriousBeadDropRate1@@3HA		; g_iMysteriousBeadDropRate1
PUBLIC	?g_iMysteriousBeadDropRate2@@3HA		; g_iMysteriousBeadDropRate2
PUBLIC	?g_iHiddenTreasureBoxOfflineRate@@3HA		; g_iHiddenTreasureBoxOfflineRate
PUBLIC	?bIsIgnorePacketSpeedHackDetect@@3HA		; bIsIgnorePacketSpeedHackDetect
PUBLIC	?gIsKickDetecHackCountLimit@@3HA		; gIsKickDetecHackCountLimit
PUBLIC	?gTamaJJangEvent@@3HA				; gTamaJJangEvent
PUBLIC	?gAppearTamaJJang@@3HA				; gAppearTamaJJang
PUBLIC	?gTamaJJangTime@@3HA				; gTamaJJangTime
PUBLIC	?gIsItemDropRingOfTransform@@3HA		; gIsItemDropRingOfTransform
PUBLIC	?gIsEledoradoEvent@@3HA				; gIsEledoradoEvent
PUBLIC	?gDoPShopOpen@@3HA				; gDoPShopOpen
PUBLIC	?gWriteChatLog@@3HA				; gWriteChatLog
PUBLIC	?gDisconnectHackUser@@3HA			; gDisconnectHackUser
PUBLIC	?g_iBlockKanturuMapEnter@@3HA			; g_iBlockKanturuMapEnter
PUBLIC	?g_iBlockCastleSiegeMapEnter@@3HA		; g_iBlockCastleSiegeMapEnter
PUBLIC	?g_iBlockRaklionMapEnter@@3HA			; g_iBlockRaklionMapEnter
PUBLIC	?GSInfoSendFlag@@3HA				; GSInfoSendFlag
PUBLIC	?GameServerPort@@3HA				; GameServerPort
PUBLIC	?JoinServerPort@@3HA				; JoinServerPort
PUBLIC	?DataServerPort@@3HA				; DataServerPort
PUBLIC	?DataServerPort2@@3HA				; DataServerPort2
PUBLIC	?ExDbPort@@3HA					; ExDbPort
PUBLIC	?RankingPort@@3HA				; RankingPort
PUBLIC	?EventPort@@3HA					; EventPort
PUBLIC	?gNewServer@@3HA				; gNewServer
PUBLIC	?gEventOff@@3HA					; gEventOff
PUBLIC	?gLevelExperience@@3PAKA			; gLevelExperience
PUBLIC	?szGameServerExeSerial@@3PADA			; szGameServerExeSerial
PUBLIC	?szServerName@@3PADA				; szServerName
PUBLIC	?szKorItemTextFileName@@3PADA			; szKorItemTextFileName
PUBLIC	?szKorSkillTextFileName@@3PADA			; szKorSkillTextFileName
PUBLIC	?szItemTextFileName@@3PADA			; szItemTextFileName
PUBLIC	?szSkillTextFileName@@3PADA			; szSkillTextFileName
PUBLIC	?szQuestTextFileName@@3PADA			; szQuestTextFileName
PUBLIC	?szMoveReqFileName@@3PADA			; szMoveReqFileName
PUBLIC	?szCommonlocIniFileName@@3PADA			; szCommonlocIniFileName
PUBLIC	?szAuthKey@@3PADA				; szAuthKey
PUBLIC	?gIsDropDarkLordItem@@3HA			; gIsDropDarkLordItem
PUBLIC	?gSleeveOfLordDropRate@@3HA			; gSleeveOfLordDropRate
PUBLIC	?gSleeveOfLordDropLevel@@3HA			; gSleeveOfLordDropLevel
PUBLIC	?gSoulOfDarkHorseDropRate@@3HA			; gSoulOfDarkHorseDropRate
PUBLIC	?gSoulOfDarkHorseropLevel@@3HA			; gSoulOfDarkHorseropLevel
PUBLIC	?gSoulOfDarkSpiritDropRate@@3HA			; gSoulOfDarkSpiritDropRate
PUBLIC	?gSoulOfDarkSpiritDropLevel@@3HA		; gSoulOfDarkSpiritDropLevel
PUBLIC	?gDarkSpiritAddExperience@@3MA			; gDarkSpiritAddExperience
PUBLIC	?gIsDropGemOfDefend@@3HA			; gIsDropGemOfDefend
PUBLIC	?gGemOfDefendDropRate@@3HA			; gGemOfDefendDropRate
PUBLIC	?gGemOfDefendDropLevel@@3HA			; gGemOfDefendDropLevel
PUBLIC	?g_iUseCharacterAutoRecuperationSystem@@3HA	; g_iUseCharacterAutoRecuperationSystem
PUBLIC	?g_iCharacterRecuperationMaxLevel@@3HA		; g_iCharacterRecuperationMaxLevel
PUBLIC	?g_iServerGroupGuildChatting@@3HA		; g_iServerGroupGuildChatting
PUBLIC	?g_iServerGroupUnionChatting@@3HA		; g_iServerGroupUnionChatting
PUBLIC	?g_bRibbonBoxEvent@@3HA				; g_bRibbonBoxEvent
PUBLIC	?g_iRedRibbonBoxDropLevelMin@@3HA		; g_iRedRibbonBoxDropLevelMin
PUBLIC	?g_iRedRibbonBoxDropLevelMax@@3HA		; g_iRedRibbonBoxDropLevelMax
PUBLIC	?g_iRedRibbonBoxDropRate@@3HA			; g_iRedRibbonBoxDropRate
PUBLIC	?g_iRedRibbonBoxDropZenRate@@3HA		; g_iRedRibbonBoxDropZenRate
PUBLIC	?g_iRedRibbonBoxDropZen@@3HA			; g_iRedRibbonBoxDropZen
PUBLIC	?g_iGreenRibbonBoxDropLevelMin@@3HA		; g_iGreenRibbonBoxDropLevelMin
PUBLIC	?g_iGreenRibbonBoxDropLevelMax@@3HA		; g_iGreenRibbonBoxDropLevelMax
PUBLIC	?g_iGreenRibbonBoxDropRate@@3HA			; g_iGreenRibbonBoxDropRate
PUBLIC	?g_iGreenRibbonBoxDropZenRate@@3HA		; g_iGreenRibbonBoxDropZenRate
PUBLIC	?g_iGreenRibbonBoxDropZen@@3HA			; g_iGreenRibbonBoxDropZen
PUBLIC	?g_iBlueRibbonBoxDropLevelMin@@3HA		; g_iBlueRibbonBoxDropLevelMin
PUBLIC	?g_iBlueRibbonBoxDropLevelMax@@3HA		; g_iBlueRibbonBoxDropLevelMax
PUBLIC	?g_iBlueRibbonBoxDropRate@@3HA			; g_iBlueRibbonBoxDropRate
PUBLIC	?g_iBlueRibbonBoxDropZenRate@@3HA		; g_iBlueRibbonBoxDropZenRate
PUBLIC	?g_iBlueRibbonBoxDropZen@@3HA			; g_iBlueRibbonBoxDropZen
PUBLIC	?g_bNewYearLuckyBagMonsterEventOn@@3HA		; g_bNewYearLuckyBagMonsterEventOn
PUBLIC	?g_bChocolateBoxEvent@@3HA			; g_bChocolateBoxEvent
PUBLIC	?g_iPinkChocolateBoxDropLevelMin@@3HA		; g_iPinkChocolateBoxDropLevelMin
PUBLIC	?g_iPinkChocolateBoxDropLevelMax@@3HA		; g_iPinkChocolateBoxDropLevelMax
PUBLIC	?g_iPinkChocolateBoxDropRate@@3HA		; g_iPinkChocolateBoxDropRate
PUBLIC	?g_iPinkChocolateBoxDropZenRate@@3HA		; g_iPinkChocolateBoxDropZenRate
PUBLIC	?g_iPinkChocolateBoxDropZen@@3HA		; g_iPinkChocolateBoxDropZen
PUBLIC	?g_iRedChocolateBoxDropLevelMin@@3HA		; g_iRedChocolateBoxDropLevelMin
PUBLIC	?g_iRedChocolateBoxDropLevelMax@@3HA		; g_iRedChocolateBoxDropLevelMax
PUBLIC	?g_iRedChocolateBoxDropRate@@3HA		; g_iRedChocolateBoxDropRate
PUBLIC	?g_iRedChocolateBoxDropZenRate@@3HA		; g_iRedChocolateBoxDropZenRate
PUBLIC	?g_iRedChocolateBoxDropZen@@3HA			; g_iRedChocolateBoxDropZen
PUBLIC	?g_iBlueChocolateBoxDropLevelMin@@3HA		; g_iBlueChocolateBoxDropLevelMin
PUBLIC	?g_iBlueChocolateBoxDropLevelMax@@3HA		; g_iBlueChocolateBoxDropLevelMax
PUBLIC	?g_iBlueChocolateBoxDropRate@@3HA		; g_iBlueChocolateBoxDropRate
PUBLIC	?g_iBlueChocolateBoxDropZenRate@@3HA		; g_iBlueChocolateBoxDropZenRate
PUBLIC	?g_iBlueChocolateBoxDropZen@@3HA		; g_iBlueChocolateBoxDropZen
PUBLIC	?g_bCandyBoxEvent@@3HA				; g_bCandyBoxEvent
PUBLIC	?g_iLightPurpleCandyBoxDropLevelMin@@3HA	; g_iLightPurpleCandyBoxDropLevelMin
PUBLIC	?g_iLightPurpleCandyBoxDropLevelMax@@3HA	; g_iLightPurpleCandyBoxDropLevelMax
PUBLIC	?g_iLightPurpleCandyBoxDropRate@@3HA		; g_iLightPurpleCandyBoxDropRate
PUBLIC	?g_iLightPurpleCandyBoxDropZenRate@@3HA		; g_iLightPurpleCandyBoxDropZenRate
PUBLIC	?g_iLightPurpleCandyBoxDropZen@@3HA		; g_iLightPurpleCandyBoxDropZen
PUBLIC	?g_iVermilionCandyBoxDropLevelMin@@3HA		; g_iVermilionCandyBoxDropLevelMin
PUBLIC	?g_iVermilionCandyBoxDropLevelMax@@3HA		; g_iVermilionCandyBoxDropLevelMax
PUBLIC	?g_iVermilionCandyBoxDropRate@@3HA		; g_iVermilionCandyBoxDropRate
PUBLIC	?g_iVermilionCandyBoxDropZenRate@@3HA		; g_iVermilionCandyBoxDropZenRate
PUBLIC	?g_iVermilionCandyBoxDropZen@@3HA		; g_iVermilionCandyBoxDropZen
PUBLIC	?g_iDeepBlueCandyBoxDropLevelMin@@3HA		; g_iDeepBlueCandyBoxDropLevelMin
PUBLIC	?g_iDeepBlueCandyBoxDropLevelMax@@3HA		; g_iDeepBlueCandyBoxDropLevelMax
PUBLIC	?g_iDeepBlueCandyBoxDropRate@@3HA		; g_iDeepBlueCandyBoxDropRate
PUBLIC	?g_iDeepBlueCandyBoxDropZenRate@@3HA		; g_iDeepBlueCandyBoxDropZenRate
PUBLIC	?g_iDeepBlueCandyBoxDropZen@@3HA		; g_iDeepBlueCandyBoxDropZen
PUBLIC	?g_bFenrirStuffItemDrop@@3HA			; g_bFenrirStuffItemDrop
PUBLIC	?g_iFenrirStuff_01_DropLv_Min@@3HA		; g_iFenrirStuff_01_DropLv_Min
PUBLIC	?g_iFenrirStuff_01_DropLv_Max@@3HA		; g_iFenrirStuff_01_DropLv_Max
PUBLIC	?g_iFenrirStuff_01_DropMap@@3HA			; g_iFenrirStuff_01_DropMap
PUBLIC	?g_iFenrirStuff_01_DropRate@@3HA		; g_iFenrirStuff_01_DropRate
PUBLIC	?g_iFenrirStuff_02_DropLv_Min@@3HA		; g_iFenrirStuff_02_DropLv_Min
PUBLIC	?g_iFenrirStuff_02_DropLv_Max@@3HA		; g_iFenrirStuff_02_DropLv_Max
PUBLIC	?g_iFenrirStuff_02_DropMap@@3HA			; g_iFenrirStuff_02_DropMap
PUBLIC	?g_iFenrirStuff_02_DropRate@@3HA		; g_iFenrirStuff_02_DropRate
PUBLIC	?g_iFenrirStuff_03_DropLv_Min@@3HA		; g_iFenrirStuff_03_DropLv_Min
PUBLIC	?g_iFenrirStuff_03_DropLv_Max@@3HA		; g_iFenrirStuff_03_DropLv_Max
PUBLIC	?g_iFenrirStuff_03_DropMap@@3HA			; g_iFenrirStuff_03_DropMap
PUBLIC	?g_iFenrirStuff_03_DropRate@@3HA		; g_iFenrirStuff_03_DropRate
PUBLIC	?g_iFenrirRepairRate@@3HA			; g_iFenrirRepairRate
PUBLIC	?g_iFenrirDefaultMaxDurSmall@@3HA		; g_iFenrirDefaultMaxDurSmall
PUBLIC	?g_iFenrirElfMaxDurSmall@@3HA			; g_iFenrirElfMaxDurSmall
PUBLIC	?g_iFenrir_01Level_MixRate@@3HA			; g_iFenrir_01Level_MixRate
PUBLIC	?g_iFenrir_02Level_MixRate@@3HA			; g_iFenrir_02Level_MixRate
PUBLIC	?g_iFenrir_03Level_MixRate@@3HA			; g_iFenrir_03Level_MixRate
PUBLIC	?g_bCrywolfMonsterDarkElfItemDrop@@3HA		; g_bCrywolfMonsterDarkElfItemDrop
PUBLIC	?g_iCrywolfMonsterDarkElfItemDropRate@@3HA	; g_iCrywolfMonsterDarkElfItemDropRate
PUBLIC	?g_iCrywolfMonsterDarkElfDropZenRate@@3HA	; g_iCrywolfMonsterDarkElfDropZenRate
PUBLIC	?g_iCrywolfMonsterDarkElfDropZen@@3HA		; g_iCrywolfMonsterDarkElfDropZen
PUBLIC	?g_bCrywolfBossMonsterItemDrop@@3HA		; g_bCrywolfBossMonsterItemDrop
PUBLIC	?g_iCrywolfBossMonsterItemDropRate@@3HA		; g_iCrywolfBossMonsterItemDropRate
PUBLIC	?g_iCrywolfBossMonsterDropZenRate@@3HA		; g_iCrywolfBossMonsterDropZenRate
PUBLIC	?g_iCrywolfBossMonsterDropZen@@3HA		; g_iCrywolfBossMonsterDropZen
PUBLIC	?g_iCrywolfApplyMvpBenefit@@3HA			; g_iCrywolfApplyMvpBenefit
PUBLIC	?g_iCrywolfApplyMvpPenalty@@3HA			; g_iCrywolfApplyMvpPenalty
PUBLIC	?g_iSkillDistanceCheck@@3HA			; g_iSkillDistanceCheck
PUBLIC	?g_iSkillDistanceCheckTemp@@3HA			; g_iSkillDistanceCheckTemp
PUBLIC	?g_iSkillDistanceKick@@3HA			; g_iSkillDistanceKick
PUBLIC	?g_iSkillDistanceKickCount@@3HA			; g_iSkillDistanceKickCount
PUBLIC	?g_iSkillDiatanceKickCheckTime@@3HA		; g_iSkillDiatanceKickCheckTime
PUBLIC	?g_bKanturuMayaHandItemDrop@@3HA		; g_bKanturuMayaHandItemDrop
PUBLIC	?g_iKanturuMayaHandItemDropRate@@3HA		; g_iKanturuMayaHandItemDropRate
PUBLIC	?g_iKanturuMayaHandDropZenRate@@3HA		; g_iKanturuMayaHandDropZenRate
PUBLIC	?g_iKanturuMayaHandDropZen@@3HA			; g_iKanturuMayaHandDropZen
PUBLIC	?g_bKanturuNightmareItemDrop@@3HA		; g_bKanturuNightmareItemDrop
PUBLIC	?g_iKanturuNightmareItemDropRate@@3HA		; g_iKanturuNightmareItemDropRate
PUBLIC	?g_iKanturuNightmareDropZenRate@@3HA		; g_iKanturuNightmareDropZenRate
PUBLIC	?g_iKanturuNightmareDropZen@@3HA		; g_iKanturuNightmareDropZen
PUBLIC	?g_bKanturuSpecialItemDropOn@@3HA		; g_bKanturuSpecialItemDropOn
PUBLIC	?g_iKanturuMoonStoneDropRate@@3HA		; g_iKanturuMoonStoneDropRate
PUBLIC	?g_iKanturuJewelOfHarmonyDropRate@@3HA		; g_iKanturuJewelOfHarmonyDropRate
PUBLIC	?g_bRaklionSelupanItemDrop@@3HA			; g_bRaklionSelupanItemDrop
PUBLIC	?g_iRaklionSelupanItemDropRate@@3HA		; g_iRaklionSelupanItemDropRate
PUBLIC	?g_iRaklionSelupanDropZenRate@@3HA		; g_iRaklionSelupanDropZenRate
PUBLIC	?g_bRaklionSelupanDropZen@@3HA			; g_bRaklionSelupanDropZen
PUBLIC	?g_bLuckyCoinEventOn@@3HA			; g_bLuckyCoinEventOn
PUBLIC	?g_iLuckyCoinDropRate@@3HA			; g_iLuckyCoinDropRate
PUBLIC	?g_bHallowinDayEventOn@@3HA			; g_bHallowinDayEventOn
PUBLIC	?g_iHallowinDayEventItemDropRate@@3HA		; g_iHallowinDayEventItemDropRate
PUBLIC	?g_iHallowinDayEventJOLBlessDropRate@@3HA	; g_iHallowinDayEventJOLBlessDropRate
PUBLIC	?g_iHallowinDayEventJOLAngerDropRaTe@@3HA	; g_iHallowinDayEventJOLAngerDropRaTe
PUBLIC	?g_iHallowinDayEventJOLScreamDropRate@@3HA	; g_iHallowinDayEventJOLScreamDropRate
PUBLIC	?g_iHallowinDayEventJOLFoodDropRate@@3HA	; g_iHallowinDayEventJOLFoodDropRate
PUBLIC	?g_iHallowinDayEventJOLDrinkDropRate@@3HA	; g_iHallowinDayEventJOLDrinkDropRate
PUBLIC	?g_iHallowinDayEventJOLPolymorphRingDropRate@@3HA ; g_iHallowinDayEventJOLPolymorphRingDropRate
PUBLIC	?g_iSantaPolymorphRingDropOn@@3HA		; g_iSantaPolymorphRingDropOn
PUBLIC	?g_iSantaPolymorphRingDropRate@@3HA		; g_iSantaPolymorphRingDropRate
PUBLIC	?g_iCondorFlameDropRate@@3HA			; g_iCondorFlameDropRate
PUBLIC	?g_bCherryBlossomEventOn@@3HA			; g_bCherryBlossomEventOn
PUBLIC	?g_iCherryBlossomEventItemDropRate@@3HA		; g_iCherryBlossomEventItemDropRate
PUBLIC	?g_bAbilityDebug@@3HA				; g_bAbilityDebug
PUBLIC	?dwgCheckSum@@3PAKA				; dwgCheckSum
PUBLIC	?connectserverip@@3PADA				; connectserverip
PUBLIC	?connectserverport@@3HA				; connectserverport
PUBLIC	?gGameServerCode@@3FA				; gGameServerCode
PUBLIC	?gPkTime@@3HA					; gPkTime
PUBLIC	?g_bCastleGuildDestoyLimit@@3HA			; g_bCastleGuildDestoyLimit
PUBLIC	?gItemNumberCount@@3KA				; gItemNumberCount
PUBLIC	?gAttackEventRegenTime@@3KA			; gAttackEventRegenTime
PUBLIC	?gYear@@3HA					; gYear
PUBLIC	?gOnlyFireCrackerEffectUse@@3HA			; gOnlyFireCrackerEffectUse
PUBLIC	?g_iRingOrcKillGiftRate@@3HA			; g_iRingOrcKillGiftRate
PUBLIC	?g_iRingDropGiftRate@@3HA			; g_iRingDropGiftRate
PUBLIC	?g_iXMasAttackEventDropRate@@3HA		; g_iXMasAttackEventDropRate
PUBLIC	?g_iXMasAttackEventDropZen@@3HA			; g_iXMasAttackEventDropZen
PUBLIC	?gEledoradoGoldGoblenItemDropRate@@3HA		; gEledoradoGoldGoblenItemDropRate
PUBLIC	?gEledoradoTitanItemDropRate@@3HA		; gEledoradoTitanItemDropRate
PUBLIC	?gEledoradoGoldDerconItemDropRate@@3HA		; gEledoradoGoldDerconItemDropRate
PUBLIC	?gEledoradoDevilLizardKingItemDropRate@@3HA	; gEledoradoDevilLizardKingItemDropRate
PUBLIC	?gEledoradoDevilTantarosItemDropRate@@3HA	; gEledoradoDevilTantarosItemDropRate
PUBLIC	?gEledoradoGoldGoblenExItemDropRate@@3HA	; gEledoradoGoldGoblenExItemDropRate
PUBLIC	?gEledoradoTitanExItemDropRate@@3HA		; gEledoradoTitanExItemDropRate
PUBLIC	?gEledoradoGoldDerconExItemDropRate@@3HA	; gEledoradoGoldDerconExItemDropRate
PUBLIC	?gEledoradoDevilLizardKingExItemDropRate@@3HA	; gEledoradoDevilLizardKingExItemDropRate
PUBLIC	?gEledoradoDevilTantarosExItemDropRate@@3HA	; gEledoradoDevilTantarosExItemDropRate
PUBLIC	?giKundunRefillHPSec@@3HA			; giKundunRefillHPSec
PUBLIC	?giKundunRefillHP@@3HA				; giKundunRefillHP
PUBLIC	?giKundunRefillHPTime@@3HA			; giKundunRefillHPTime
PUBLIC	?giKundunHPLogSaveTime@@3HA			; giKundunHPLogSaveTime
PUBLIC	?gUseNPGGChecksum@@3HA				; gUseNPGGChecksum
PUBLIC	?g_ShieldSystemOn@@3HA				; g_ShieldSystemOn
PUBLIC	?g_iDamageDevideToSDRate@@3HA			; g_iDamageDevideToSDRate
PUBLIC	?g_iDamageDevideToHPRate@@3HA			; g_iDamageDevideToHPRate
PUBLIC	?g_fSuccessAttackRateOption@@3MA		; g_fSuccessAttackRateOption
PUBLIC	?g_iSDChargingOption@@3HA			; g_iSDChargingOption
PUBLIC	?g_iConstNumberOfShieldPoint@@3HA		; g_iConstNumberOfShieldPoint
PUBLIC	?g_ShieldAutoRefillOn@@3HA			; g_ShieldAutoRefillOn
PUBLIC	?g_ShieldAutoRefillOnSafeZone@@3HA		; g_ShieldAutoRefillOnSafeZone
PUBLIC	?g_PKLevelIncreaseOff@@3HA			; g_PKLevelIncreaseOff
PUBLIC	?g_CompoundPotionDropOn@@3HA			; g_CompoundPotionDropOn
PUBLIC	?g_iCompoundPotionLv1DropRate@@3HA		; g_iCompoundPotionLv1DropRate
PUBLIC	?g_iCompoundPotionLv2DropRate@@3HA		; g_iCompoundPotionLv2DropRate
PUBLIC	?g_iCompoundPotionLv3DropRate@@3HA		; g_iCompoundPotionLv3DropRate
PUBLIC	?g_iCompoundPotionLv1DropLevel@@3HA		; g_iCompoundPotionLv1DropLevel
PUBLIC	?g_iCompoundPotionLv2DropLevel@@3HA		; g_iCompoundPotionLv2DropLevel
PUBLIC	?g_iCompoundPotionLv3DropLevel@@3HA		; g_iCompoundPotionLv3DropLevel
PUBLIC	?g_bShieldComboMissOptionOn@@3HA		; g_bShieldComboMissOptionOn
PUBLIC	?g_iShieldPotionLv1MixSuccessRate@@3HA		; g_iShieldPotionLv1MixSuccessRate
PUBLIC	?g_iShieldPotionLv1MixMoney@@3HA		; g_iShieldPotionLv1MixMoney
PUBLIC	?g_iShieldPotionLv2MixSuccessRate@@3HA		; g_iShieldPotionLv2MixSuccessRate
PUBLIC	?g_iShieldPotionLv2MixMoney@@3HA		; g_iShieldPotionLv2MixMoney
PUBLIC	?g_iShieldPotionLv3MixSuccessRate@@3HA		; g_iShieldPotionLv3MixSuccessRate
PUBLIC	?g_iShieldPotionLv3MixMoney@@3HA		; g_iShieldPotionLv3MixMoney
PUBLIC	?g_iShieldGageConstA@@3HA			; g_iShieldGageConstA
PUBLIC	?g_iShieldGageConstB@@3HA			; g_iShieldGageConstB
PUBLIC	?gMapName@@3PAY0PP@DA				; gMapName
PUBLIC	?g_bDoCastleDeepEvent@@3HA			; g_bDoCastleDeepEvent
PUBLIC	?gIsDropSetItemInCastleHuntZone@@3HA		; gIsDropSetItemInCastleHuntZone
PUBLIC	?gSetItemInCastleHuntZoneDropRate@@3HA		; gSetItemInCastleHuntZoneDropRate
PUBLIC	?gSetItemInCastleHuntZoneDropLevel@@3HA		; gSetItemInCastleHuntZoneDropLevel
PUBLIC	?CastleItemMixItemBag@@3PAVCItemBagEx@@A	; CastleItemMixItemBag
PUBLIC	?CastleHuntZoneBossItemBag@@3PAVCItemBagEx@@A	; CastleHuntZoneBossItemBag
PUBLIC	?ExParty3ExpPercent@@3HA			; ExParty3ExpPercent
PUBLIC	?ExParty4ExpPercent@@3HA			; ExParty4ExpPercent
PUBLIC	?ExParty5ExpPercent@@3HA			; ExParty5ExpPercent
PUBLIC	?ExPartyExpPercentOther@@3HA			; ExPartyExpPercentOther
PUBLIC	?ExParty2ExpSetPercent@@3HA			; ExParty2ExpSetPercent
PUBLIC	?ExParty3ExpSetPercent@@3HA			; ExParty3ExpSetPercent
PUBLIC	?ExParty4ExpSetPercent@@3HA			; ExParty4ExpSetPercent
PUBLIC	?ExParty5ExpSetPercent@@3HA			; ExParty5ExpSetPercent
PUBLIC	?ExParty1ExpSetPercent@@3HA			; ExParty1ExpSetPercent
PUBLIC	?g_MaxPartyMember@@3HA				; g_MaxPartyMember
PUBLIC	?ExParty6ExpPercent@@3HA			; ExParty6ExpPercent
PUBLIC	?ExParty7ExpPercent@@3HA			; ExParty7ExpPercent
PUBLIC	?ExParty8ExpPercent@@3HA			; ExParty8ExpPercent
PUBLIC	?ExParty9ExpPercent@@3HA			; ExParty9ExpPercent
PUBLIC	?ExParty10ExpPercent@@3HA			; ExParty10ExpPercent
PUBLIC	?ExParty6ExpSetPercent@@3HA			; ExParty6ExpSetPercent
PUBLIC	?ExParty7ExpSetPercent@@3HA			; ExParty7ExpSetPercent
PUBLIC	?ExParty8ExpSetPercent@@3HA			; ExParty8ExpSetPercent
PUBLIC	?ExParty9ExpSetPercent@@3HA			; ExParty9ExpSetPercent
PUBLIC	?ExParty10ExpSetPercent@@3HA			; ExParty10ExpSetPercent
PUBLIC	?ExDropZenParty@@3HA				; ExDropZenParty
PUBLIC	?ShareZenParty@@3HA				; ShareZenParty
PUBLIC	?PartyLootTime@@3HA				; PartyLootTime
PUBLIC	?AllianceMinPlayers@@3HA			; AllianceMinPlayers
PUBLIC	?ExExcellentAncient@@3HA			; ExExcellentAncient
PUBLIC	?ExExcellentSocket@@3HA				; ExExcellentSocket
PUBLIC	?ExAncientSocket@@3HA				; ExAncientSocket
PUBLIC	?ExAddJoHtoAnc@@3HA				; ExAddJoHtoAnc
PUBLIC	?Ex_ItemsDurationTime@@3HA			; Ex_ItemsDurationTime
PUBLIC	?Ex_LifeRate@@3HA				; Ex_LifeRate
PUBLIC	?Ex_SoulRate@@3HA				; Ex_SoulRate
PUBLIC	?Ex_SoulRateLuck@@3HA				; Ex_SoulRateLuck
PUBLIC	?gWelcomeMessage@@3PADA				; gWelcomeMessage
PUBLIC	?MSSQL2008@@3_NA				; MSSQL2008
PUBLIC	?gGENS@@3HA					; gGENS
PUBLIC	?g_iML_OldScrollDropRate@@3HA			; g_iML_OldScrollDropRate
PUBLIC	?g_iML_CovenantOfIllusionDropRate@@3HA		; g_iML_CovenantOfIllusionDropRate
PUBLIC	?g_iML_AngelKingsPaperDropRate@@3HA		; g_iML_AngelKingsPaperDropRate
PUBLIC	?g_iML_BloodBoneDropRate@@3HA			; g_iML_BloodBoneDropRate
PUBLIC	?g_iML_EyesOfDevilSquareDropRate@@3HA		; g_iML_EyesOfDevilSquareDropRate
PUBLIC	?g_iML_KeysOfDevilSquareDropRate@@3HA		; g_iML_KeysOfDevilSquareDropRate
PUBLIC	?g_iShadowPhantomMaxLevel@@3HA			; g_iShadowPhantomMaxLevel
PUBLIC	?g_iXMasVisitCount@@3HA				; g_iXMasVisitCount
PUBLIC	?g_iXMasEvent_LuckNumber1st@@3HA		; g_iXMasEvent_LuckNumber1st
PUBLIC	?g_iXMasEvent_LuckNumber2nd@@3HA		; g_iXMasEvent_LuckNumber2nd
PUBLIC	?gEledoradoGoldenRabbitRegenTime@@3HA		; gEledoradoGoldenRabbitRegenTime
PUBLIC	?gEledoradoGoldenDarkKnightRegenTime@@3HA	; gEledoradoGoldenDarkKnightRegenTime
PUBLIC	?gEledoradoGoldenDevilRegenTime@@3HA		; gEledoradoGoldenDevilRegenTime
PUBLIC	?gEledoradoGoldenMonsterRegenTime@@3HA		; gEledoradoGoldenMonsterRegenTime
PUBLIC	?gEledoradoGoldenCrustRegenTime@@3HA		; gEledoradoGoldenCrustRegenTime
PUBLIC	?gEledoradoGoldenSatirosRegenTime@@3HA		; gEledoradoGoldenSatirosRegenTime
PUBLIC	?gEledoradoGoldenTwintailRegenTime@@3HA		; gEledoradoGoldenTwintailRegenTime
PUBLIC	?gEledoradoGoldenIronKnightRegenTime@@3HA	; gEledoradoGoldenIronKnightRegenTime
PUBLIC	?gEledoradoGoldenNeipinRegenTime@@3HA		; gEledoradoGoldenNeipinRegenTime
PUBLIC	?gEledoradoGoldenGreatDragonRegenTime@@3HA	; gEledoradoGoldenGreatDragonRegenTime
PUBLIC	?g_bCheckSpeedHack@@3HA				; g_bCheckSpeedHack
PUBLIC	?g_szMapName@@3PAY0CA@DA			; g_szMapName
PUBLIC	?szGameServerVersion@@3PADA			; szGameServerVersion
PUBLIC	?szClientVersion@@3PADA				; szClientVersion
PUBLIC	?bCanTrade@@3HA					; bCanTrade
PUBLIC	?bCanChaosBox@@3HA				; bCanChaosBox
PUBLIC	?bCanWarehouseLock@@3HA				; bCanWarehouseLock
PUBLIC	?MapMinUserLevel@@3PAHA				; MapMinUserLevel
PUBLIC	?gEnableBattleSoccer@@3HA			; gEnableBattleSoccer
PUBLIC	?gLootingTime@@3HA				; gLootingTime
PUBLIC	?gPkItemDrop@@3HA				; gPkItemDrop
PUBLIC	?gItemDropPer@@3HA				; gItemDropPer
PUBLIC	?gItemDropLuckRate@@3HA				; gItemDropLuckRate
PUBLIC	?gItemDropSkillRate@@3HA			; gItemDropSkillRate
PUBLIC	?gItemDropOpt4Rate@@3HA				; gItemDropOpt4Rate
PUBLIC	?gItemDropOpt8Rate@@3HA				; gItemDropOpt8Rate
PUBLIC	?gItemDropOpt12Rate@@3HA			; gItemDropOpt12Rate
PUBLIC	?gEvent1ItemDropTodayMax@@3HA			; gEvent1ItemDropTodayMax
PUBLIC	?gEvent1ItemDropTodayPercent@@3HA		; gEvent1ItemDropTodayPercent
PUBLIC	?gCountryName@@3PADA				; gCountryName
PUBLIC	?gCharacterDeleteMinLevel@@3HA			; gCharacterDeleteMinLevel
PUBLIC	?gCreateCharacter@@3HA				; gCreateCharacter
PUBLIC	?gGuildCreate@@3HA				; gGuildCreate
PUBLIC	?gGuildDestroy@@3HA				; gGuildDestroy
PUBLIC	?gGuildCreateLevel@@3HA				; gGuildCreateLevel
PUBLIC	?gItemSerialCheck@@3HA				; gItemSerialCheck
PUBLIC	?gAddExperience@@3MA				; gAddExperience
PUBLIC	?gAddZen@@3MA					; gAddZen
PUBLIC	?g_XMasEvent_StarOfXMasDropRate@@3HA		; g_XMasEvent_StarOfXMasDropRate
PUBLIC	?g_XMasEvent_ItemDropRateForStarOfXMas@@3HA	; g_XMasEvent_ItemDropRateForStarOfXMas
PUBLIC	?gFireCrackerDropRate@@3HA			; gFireCrackerDropRate
PUBLIC	?g_ItemDropRateForgFireCracker@@3HA		; g_ItemDropRateForgFireCracker
PUBLIC	?gHeartOfLoveDropRate@@3HA			; gHeartOfLoveDropRate
PUBLIC	?g_ItemDropRateForgHeartOfLove@@3HA		; g_ItemDropRateForgHeartOfLove
PUBLIC	?gGoldMedalDropRate@@3HA			; gGoldMedalDropRate
PUBLIC	?gSilverMedalDropRate@@3HA			; gSilverMedalDropRate
PUBLIC	?g_ItemDropRateForGoldMedal@@3HA		; g_ItemDropRateForGoldMedal
PUBLIC	?g_ItemDropRateForSilverMedal@@3HA		; g_ItemDropRateForSilverMedal
PUBLIC	?gBoxOfGoldDropRate@@3HA			; gBoxOfGoldDropRate
PUBLIC	?g_ItemDropRateForBoxOfGold@@3HA		; g_ItemDropRateForBoxOfGold
PUBLIC	?g_EventChipDropRateForBoxOfGold@@3HA		; g_EventChipDropRateForBoxOfGold
PUBLIC	?gEyesOfDevilSquareDropRate@@3HA		; gEyesOfDevilSquareDropRate
PUBLIC	?gKeyOfDevilSquareDropRate@@3HA			; gKeyOfDevilSquareDropRate
PUBLIC	?gDQChaosSuccessRateLevel1@@3HA			; gDQChaosSuccessRateLevel1
PUBLIC	?gDQChaosSuccessRateLevel2@@3HA			; gDQChaosSuccessRateLevel2
PUBLIC	?gDQChaosSuccessRateLevel3@@3HA			; gDQChaosSuccessRateLevel3
PUBLIC	?gDQChaosSuccessRateLevel4@@3HA			; gDQChaosSuccessRateLevel4
PUBLIC	?gDQChaosSuccessRateLevel5@@3HA			; gDQChaosSuccessRateLevel5
PUBLIC	?gDQChaosSuccessRateLevel6@@3HA			; gDQChaosSuccessRateLevel6
PUBLIC	?gDQChaosSuccessRateLevel7@@3HA			; gDQChaosSuccessRateLevel7
PUBLIC	?g_bBloodCastle@@3HA				; g_bBloodCastle
PUBLIC	?g_iBloodCastle_StartHour@@3HA			; g_iBloodCastle_StartHour
PUBLIC	?g_iStoneDropRate@@3HA				; g_iStoneDropRate
PUBLIC	?g_iBloodCastle_OddEvenHour@@3HA		; g_iBloodCastle_OddEvenHour
PUBLIC	?g_iAngelKingsPaperDropRate@@3HA		; g_iAngelKingsPaperDropRate
PUBLIC	?g_iBloodBoneDropRate@@3HA			; g_iBloodBoneDropRate
PUBLIC	?g_bChaosCastle@@3HA				; g_bChaosCastle
PUBLIC	?gAttackSpeedTimeLimit@@3KA			; gAttackSpeedTimeLimit
PUBLIC	?gHackCheckCount@@3KA				; gHackCheckCount
PUBLIC	?gDecTimePerAttackSpeed@@3MA			; gDecTimePerAttackSpeed
PUBLIC	?gMinimumAttackSpeedTime@@3HA			; gMinimumAttackSpeedTime
PUBLIC	?gDetectedHackKickCount@@3HA			; gDetectedHackKickCount
PUBLIC	?gTamaJJangKeepTime@@3HA			; gTamaJJangKeepTime
PUBLIC	?gTamaJJangDisappearTime@@3HA			; gTamaJJangDisappearTime
PUBLIC	?gTamaJJangDisappearTimeRandomRange@@3HA	; gTamaJJangDisappearTimeRandomRange
PUBLIC	?gItemDropRingOfTransform@@3HA			; gItemDropRingOfTransform
PUBLIC	?gQuestNPCTeleportTime@@3HA			; gQuestNPCTeleportTime
PUBLIC	?gEledoradoGoldGoblenRegenTime@@3KA		; gEledoradoGoldGoblenRegenTime
PUBLIC	?gEledoradoTitanRegenTime@@3KA			; gEledoradoTitanRegenTime
PUBLIC	?gEledoradoGoldDerconRegenTime@@3KA		; gEledoradoGoldDerconRegenTime
PUBLIC	?gEledoradoDevilLizardKingRegenTime@@3KA	; gEledoradoDevilLizardKingRegenTime
PUBLIC	?gEledoradoDevilTantarosRegenTime@@3KA		; gEledoradoDevilTantarosRegenTime
PUBLIC	?gZenDurationTime@@3HA				; gZenDurationTime
PUBLIC	?gMonsterHPAdjust@@3HA				; gMonsterHPAdjust
PUBLIC	?gEnableCheckPenetrationSkill@@3HA		; gEnableCheckPenetrationSkill
PUBLIC	?g_iCastleItemMixLimit@@3HA			; g_iCastleItemMixLimit
_BSS	SEGMENT
?JoinServerConnected@@3HA DD 01H DUP (?)		; JoinServerConnected
?DataServerConnected@@3HA DD 01H DUP (?)		; DataServerConnected
?GameServerCreated@@3HA DD 01H DUP (?)			; GameServerCreated
?DevilSquareEventConnect@@3HA DD 01H DUP (?)		; DevilSquareEventConnect
?IsDevilSquareEventConnected@@3HA DD 01H DUP (?)	; IsDevilSquareEventConnected
?EventChipServerConnect@@3HA DD 01H DUP (?)		; EventChipServerConnect
?IsEventChipServerConnected@@3HA DD 01H DUP (?)		; IsEventChipServerConnected
?DragonEvent@@3PAVCDragonEvent@@A DD 01H DUP (?)	; DragonEvent
?AttackEvent@@3PAVCAttackEvent@@A DD 01H DUP (?)	; AttackEvent
?LuckboxItemBag@@3PAVCItemBag@@A DD 01H DUP (?)		; LuckboxItemBag
?Mon55@@3PAVCItemBag@@A DD 01H DUP (?)			; Mon55
?Mon53@@3PAVCItemBag@@A DD 01H DUP (?)			; Mon53
?StarOfXMasItemBag@@3PAVCItemBagEx@@A DD 01H DUP (?)	; StarOfXMasItemBag
?FireCrackerItemBag@@3PAVCItemBag@@A DD 01H DUP (?)	; FireCrackerItemBag
?HeartOfLoveItemBag@@3PAVCItemBag@@A DD 01H DUP (?)	; HeartOfLoveItemBag
?GoldMedalItemBag@@3PAVCItemBag@@A DD 01H DUP (?)	; GoldMedalItemBag
?SilverMedalItemBag@@3PAVCItemBag@@A DD 01H DUP (?)	; SilverMedalItemBag
?EventChipItemBag@@3PAVCItemBag@@A DD 01H DUP (?)	; EventChipItemBag
?GoldGoblenItemBag@@3PAVCProbabilityItemBag@@A DD 01H DUP (?) ; GoldGoblenItemBag
?TitanItemBag@@3PAVCProbabilityItemBag@@A DD 01H DUP (?) ; TitanItemBag
?GoldDerconItemBag@@3PAVCProbabilityItemBag@@A DD 01H DUP (?) ; GoldDerconItemBag
?DevilLizardKingItemBag@@3PAVCProbabilityItemBag@@A DD 01H DUP (?) ; DevilLizardKingItemBag
?KanturItemBag@@3PAVCProbabilityItemBag@@A DD 01H DUP (?) ; KanturItemBag
?RingEventItemBag@@3PAVCItemBag@@A DD 01H DUP (?)	; RingEventItemBag
?FriendShipItemBag@@3PAVCItemBag@@A DD 01H DUP (?)	; FriendShipItemBag
?DarkLordHeartItemBag@@3PAVCItemBag@@A DD 01H DUP (?)	; DarkLordHeartItemBag
?KundunEventItemBag@@3PAVCItemBagEx@@A DD 01H DUP (?)	; KundunEventItemBag
?HiddenTreasureBoxItemBag@@3PAVCItemBagEx@@A DD 01H DUP (?) ; HiddenTreasureBoxItemBag
?RedRibbonBoxEventItemBag@@3PAVCItemBagEx@@A DD 01H DUP (?) ; RedRibbonBoxEventItemBag
?GreenRibbonBoxEventItemBag@@3PAVCItemBagEx@@A DD 01H DUP (?) ; GreenRibbonBoxEventItemBag
?BlueRibbonBoxEventItemBag@@3PAVCItemBagEx@@A DD 01H DUP (?) ; BlueRibbonBoxEventItemBag
?PinkChocolateBoxEventItemBag@@3PAVCItemBagEx@@A DD 01H DUP (?) ; PinkChocolateBoxEventItemBag
?RedChocolateBoxEventItemBag@@3PAVCItemBagEx@@A DD 01H DUP (?) ; RedChocolateBoxEventItemBag
?BlueChocolateBoxEventItemBag@@3PAVCItemBagEx@@A DD 01H DUP (?) ; BlueChocolateBoxEventItemBag
?LightPurpleCandyBoxEventItemBag@@3PAVCItemBagEx@@A DD 01H DUP (?) ; LightPurpleCandyBoxEventItemBag
?VermilionCandyBoxEventItemBag@@3PAVCItemBagEx@@A DD 01H DUP (?) ; VermilionCandyBoxEventItemBag
?DeepBlueCandyBoxEventItemBag@@3PAVCItemBagEx@@A DD 01H DUP (?) ; DeepBlueCandyBoxEventItemBag
?CrywolfDarkElfItemBag@@3PAVCItemBagEx@@A DD 01H DUP (?) ; CrywolfDarkElfItemBag
?CrywolfBossMonsterItemBag@@3PAVCItemBagEx@@A DD 01H DUP (?) ; CrywolfBossMonsterItemBag
?KanturuMayaHandItemBag@@3PAVCItemBagEx@@A DD 01H DUP (?) ; KanturuMayaHandItemBag
?KanturuNightmareItemBag@@3PAVCItemBagEx@@A DD 01H DUP (?) ; KanturuNightmareItemBag
?SilverChestItemBag@@3PAVCItemBagEx@@A DD 01H DUP (?)	; SilverChestItemBag
?GoldenChestItemBag@@3PAVCItemBagEx@@A DD 01H DUP (?)	; GoldenChestItemBag
?HallowinDayEventItemBag@@3PAVCItemBagEx@@A DD 01H DUP (?) ; HallowinDayEventItemBag
?RingOfHeroBoxItemBag@@3PAVCItemBag@@A DD 01H DUP (?)	; RingOfHeroBoxItemBag
?NewYearLuckyPouchItemBag@@3PAVCProbabilityItemBag@@A DD 01H DUP (?) ; NewYearLuckyPouchItemBag
?GMPresentBoxItemBag@@3PAVCProbabilityItemBag@@A DD 01H DUP (?) ; GMPresentBoxItemBag
?IllusionTemple1ItemBag@@3PAVCProbabilityItemBag@@A DD 01H DUP (?) ; IllusionTemple1ItemBag
?IllusionTemple2ItemBag@@3PAVCProbabilityItemBag@@A DD 01H DUP (?) ; IllusionTemple2ItemBag
?IllusionTemple3ItemBag@@3PAVCProbabilityItemBag@@A DD 01H DUP (?) ; IllusionTemple3ItemBag
?MoonHarvestItemBag@@3PAVCProbabilityItemBag@@A DD 01H DUP (?) ; MoonHarvestItemBag
?MoonHarvestItemBag2@@3PAVCProbabilityItemBag@@A DD 01H DUP (?) ; MoonHarvestItemBag2
?CherryBlossom1@@3PAVCProbabilityItemBag@@A DD 01H DUP (?) ; CherryBlossom1
?CherryBlossom2@@3PAVCProbabilityItemBag@@A DD 01H DUP (?) ; CherryBlossom2
?CherryBlossom3@@3PAVCProbabilityItemBag@@A DD 01H DUP (?) ; CherryBlossom3
?CherryBlossom4@@3PAVCProbabilityItemBag@@A DD 01H DUP (?) ; CherryBlossom4
?PCBangGageGreenBox@@3PAVCProbabilityItemBag@@A DD 01H DUP (?) ; PCBangGageGreenBox
?PCBangGageRedBox@@3PAVCProbabilityItemBag@@A DD 01H DUP (?) ; PCBangGageRedBox
?PCBangGagePurpleBox@@3PAVCProbabilityItemBag@@A DD 01H DUP (?) ; PCBangGagePurpleBox
?ReservedBox@@3PAVCProbabilityItemBag@@A DD 01H DUP (?)	; ReservedBox
?RaklionSelupanItemBag@@3PAVCProbabilityItemBag@@A DD 01H DUP (?) ; RaklionSelupanItemBag
?XMasEventA@@3PAVCProbabilityItemBag@@A DD 01H DUP (?)	; XMasEventA
?XMasEventB@@3PAVCProbabilityItemBag@@A DD 01H DUP (?)	; XMasEventB
?XMasEventC@@3PAVCProbabilityItemBag@@A DD 01H DUP (?)	; XMasEventC
?LuckyCoin10@@3PAVCProbabilityItemBag@@A DD 01H DUP (?)	; LuckyCoin10
?LuckyCoin20@@3PAVCProbabilityItemBag@@A DD 01H DUP (?)	; LuckyCoin20
?LuckyCoin30@@3PAVCProbabilityItemBag@@A DD 01H DUP (?)	; LuckyCoin30
?GoldenBoxItemBag@@3PAVCProbabilityItemBag@@A DD 01H DUP (?) ; GoldenBoxItemBag
?SilverBoxItemBag@@3PAVCProbabilityItemBag@@A DD 01H DUP (?) ; SilverBoxItemBag
?ShineJewelleryCaseItemBag@@3PAVCProbabilityItemBag@@A DD 01H DUP (?) ; ShineJewelleryCaseItemBag
?RefinedJewelleryCaseItemBag@@3PAVCProbabilityItemBag@@A DD 01H DUP (?) ; RefinedJewelleryCaseItemBag
?IronJewelleryCaseItemBag@@3PAVCProbabilityItemBag@@A DD 01H DUP (?) ; IronJewelleryCaseItemBag
?OldJewelleryCaseItemBag@@3PAVCProbabilityItemBag@@A DD 01H DUP (?) ; OldJewelleryCaseItemBag
?NewMonsterItemBag@@3PAVCProbabilityItemBag@@A DD 01H DUP (?) ; NewMonsterItemBag
?BoxOfGreenColorItemBag@@3PAVCProbabilityItemBag@@A DD 01H DUP (?) ; BoxOfGreenColorItemBag
?BoxOfRedColorItemBag@@3PAVCProbabilityItemBag@@A DD 01H DUP (?) ; BoxOfRedColorItemBag
?BoxOfPurpleColorItemBag@@3PAVCProbabilityItemBag@@A DD 01H DUP (?) ; BoxOfPurpleColorItemBag
?SpeedHackPlayerBlock@@3HA DD 01H DUP (?)		; SpeedHackPlayerBlock
?bCanConnectMember@@3HA DD 01H DUP (?)			; bCanConnectMember
?bCanChangeCharacterName@@3HA DD 01H DUP (?)		; bCanChangeCharacterName
?gServerType@@3HA DD 01H DUP (?)			; gServerType
?gPartition@@3HA DD 01H DUP (?)				; gPartition
?gApplyHeroSystem@@3HA DD 01H DUP (?)			; gApplyHeroSystem
?gSpeedHackPenalty@@3HA DD 01H DUP (?)			; gSpeedHackPenalty
?gEnableEventNPCTalk@@3HA DD 01H DUP (?)		; gEnableEventNPCTalk
?gEnableServerDivision@@3HA DD 01H DUP (?)		; gEnableServerDivision
?gEvent1@@3HA DD 01H DUP (?)				; gEvent1
?gMonsterHp@@3HA DD 01H DUP (?)				; gMonsterHp
?gMerryXMasNpcEvent@@3HA DD 01H DUP (?)			; gMerryXMasNpcEvent
?gHappyNewYearNpcEvent@@3HA DD 01H DUP (?)		; gHappyNewYearNpcEvent
?gEvent1ItemDropTodayCount@@3HA DD 01H DUP (?)		; gEvent1ItemDropTodayCount
?gLanguage@@3HA DD 01H DUP (?)				; gLanguage
?gChaosEvent@@3HA DD 01H DUP (?)			; gChaosEvent
?gChaosEventServerIp@@3PADA DB 014H DUP (?)		; gChaosEventServerIp
?gDevilSquareEventServerIp@@3PADA DB 014H DUP (?)	; gDevilSquareEventServerIp
?gHackLogServerIp@@3PADA DB 014H DUP (?)		; gHackLogServerIp
?gEventChipServerIp@@3PADA DB 014H DUP (?)		; gEventChipServerIp
?gNonPK@@3HA DD	01H DUP (?)				; gNonPK
?gPkLimitFree@@3HA DD 01H DUP (?)			; gPkLimitFree
?gXMasEvent@@3HA DD 01H DUP (?)				; gXMasEvent
?gFireCrackerEvent@@3HA DD 01H DUP (?)			; gFireCrackerEvent
?gHeartOfLoveEvent@@3HA DD 01H DUP (?)			; gHeartOfLoveEvent
?gMedalEvent@@3HA DD 01H DUP (?)			; gMedalEvent
?gEventChipEvent@@3HA DD 01H DUP (?)			; gEventChipEvent
?gDevilSquareEvent@@3HA DD 01H DUP (?)			; gDevilSquareEvent
?gWriteSkillLog@@3HA DD 01H DUP (?)			; gWriteSkillLog
?g_bStoneItemDrop@@3HA DD 01H DUP (?)			; g_bStoneItemDrop
?g_bDoXMasAttackEvent@@3HA DD 01H DUP (?)		; g_bDoXMasAttackEvent
?g_bDoRingEvent@@3HA DD 01H DUP (?)			; g_bDoRingEvent
?g_bEventManagerOn@@3HA DD 01H DUP (?)			; g_bEventManagerOn
?g_iKundunMarkDropRate@@3HA DD 01H DUP (?)		; g_iKundunMarkDropRate
?g_iMarkOfTheLord@@3HA DD 01H DUP (?)			; g_iMarkOfTheLord
?g_iJapan1StAnivItemDropRate@@3HA DD 01H DUP (?)	; g_iJapan1StAnivItemDropRate
?g_iDarkLordHeartDropRate@@3HA DD 01H DUP (?)		; g_iDarkLordHeartDropRate
?g_iDarkLordHeartOffEventRate@@3HA DD 01H DUP (?)	; g_iDarkLordHeartOffEventRate
?g_iMysteriousBeadDropRate1@@3HA DD 01H DUP (?)		; g_iMysteriousBeadDropRate1
?g_iMysteriousBeadDropRate2@@3HA DD 01H DUP (?)		; g_iMysteriousBeadDropRate2
?g_iHiddenTreasureBoxOfflineRate@@3HA DD 01H DUP (?)	; g_iHiddenTreasureBoxOfflineRate
?bIsIgnorePacketSpeedHackDetect@@3HA DD 01H DUP (?)	; bIsIgnorePacketSpeedHackDetect
?gIsKickDetecHackCountLimit@@3HA DD 01H DUP (?)		; gIsKickDetecHackCountLimit
?gTamaJJangEvent@@3HA DD 01H DUP (?)			; gTamaJJangEvent
?gAppearTamaJJang@@3HA DD 01H DUP (?)			; gAppearTamaJJang
?gTamaJJangTime@@3HA DD 01H DUP (?)			; gTamaJJangTime
?gIsItemDropRingOfTransform@@3HA DD 01H DUP (?)		; gIsItemDropRingOfTransform
?gIsEledoradoEvent@@3HA DD 01H DUP (?)			; gIsEledoradoEvent
?gDoPShopOpen@@3HA DD 01H DUP (?)			; gDoPShopOpen
?gWriteChatLog@@3HA DD 01H DUP (?)			; gWriteChatLog
?gDisconnectHackUser@@3HA DD 01H DUP (?)		; gDisconnectHackUser
?g_iBlockKanturuMapEnter@@3HA DD 01H DUP (?)		; g_iBlockKanturuMapEnter
?g_iBlockCastleSiegeMapEnter@@3HA DD 01H DUP (?)	; g_iBlockCastleSiegeMapEnter
?g_iBlockRaklionMapEnter@@3HA DD 01H DUP (?)		; g_iBlockRaklionMapEnter
?GSInfoSendFlag@@3HA DD 01H DUP (?)			; GSInfoSendFlag
?GameServerPort@@3HA DD 01H DUP (?)			; GameServerPort
?JoinServerPort@@3HA DD 01H DUP (?)			; JoinServerPort
?DataServerPort@@3HA DD 01H DUP (?)			; DataServerPort
?DataServerPort2@@3HA DD 01H DUP (?)			; DataServerPort2
?ExDbPort@@3HA DD 01H DUP (?)				; ExDbPort
?RankingPort@@3HA DD 01H DUP (?)			; RankingPort
?EventPort@@3HA DD 01H DUP (?)				; EventPort
?gNewServer@@3HA DD 01H DUP (?)				; gNewServer
?gEventOff@@3HA DD 01H DUP (?)				; gEventOff
?gLevelExperience@@3PAKA DD 0191H DUP (?)		; gLevelExperience
?szGameServerExeSerial@@3PADA DB 018H DUP (?)		; szGameServerExeSerial
?szServerName@@3PADA DB 032H DUP (?)			; szServerName
	ALIGN	4

?szKorItemTextFileName@@3PADA DB 0100H DUP (?)		; szKorItemTextFileName
?szKorSkillTextFileName@@3PADA DB 0100H DUP (?)		; szKorSkillTextFileName
?szItemTextFileName@@3PADA DB 0100H DUP (?)		; szItemTextFileName
?szSkillTextFileName@@3PADA DB 0100H DUP (?)		; szSkillTextFileName
?szQuestTextFileName@@3PADA DB 0100H DUP (?)		; szQuestTextFileName
?szMoveReqFileName@@3PADA DB 0100H DUP (?)		; szMoveReqFileName
?szCommonlocIniFileName@@3PADA DB 0100H DUP (?)		; szCommonlocIniFileName
?szAuthKey@@3PADA DB 014H DUP (?)			; szAuthKey
?gIsDropDarkLordItem@@3HA DD 01H DUP (?)		; gIsDropDarkLordItem
?gSleeveOfLordDropRate@@3HA DD 01H DUP (?)		; gSleeveOfLordDropRate
?gSleeveOfLordDropLevel@@3HA DD 01H DUP (?)		; gSleeveOfLordDropLevel
?gSoulOfDarkHorseDropRate@@3HA DD 01H DUP (?)		; gSoulOfDarkHorseDropRate
?gSoulOfDarkHorseropLevel@@3HA DD 01H DUP (?)		; gSoulOfDarkHorseropLevel
?gSoulOfDarkSpiritDropRate@@3HA DD 01H DUP (?)		; gSoulOfDarkSpiritDropRate
?gSoulOfDarkSpiritDropLevel@@3HA DD 01H DUP (?)		; gSoulOfDarkSpiritDropLevel
?gDarkSpiritAddExperience@@3MA DD 01H DUP (?)		; gDarkSpiritAddExperience
?gIsDropGemOfDefend@@3HA DD 01H DUP (?)			; gIsDropGemOfDefend
?gGemOfDefendDropRate@@3HA DD 01H DUP (?)		; gGemOfDefendDropRate
?gGemOfDefendDropLevel@@3HA DD 01H DUP (?)		; gGemOfDefendDropLevel
?g_iUseCharacterAutoRecuperationSystem@@3HA DD 01H DUP (?) ; g_iUseCharacterAutoRecuperationSystem
?g_iCharacterRecuperationMaxLevel@@3HA DD 01H DUP (?)	; g_iCharacterRecuperationMaxLevel
?g_iServerGroupGuildChatting@@3HA DD 01H DUP (?)	; g_iServerGroupGuildChatting
?g_iServerGroupUnionChatting@@3HA DD 01H DUP (?)	; g_iServerGroupUnionChatting
?g_bRibbonBoxEvent@@3HA DD 01H DUP (?)			; g_bRibbonBoxEvent
?g_iRedRibbonBoxDropLevelMin@@3HA DD 01H DUP (?)	; g_iRedRibbonBoxDropLevelMin
?g_iRedRibbonBoxDropLevelMax@@3HA DD 01H DUP (?)	; g_iRedRibbonBoxDropLevelMax
?g_iRedRibbonBoxDropRate@@3HA DD 01H DUP (?)		; g_iRedRibbonBoxDropRate
?g_iRedRibbonBoxDropZenRate@@3HA DD 01H DUP (?)		; g_iRedRibbonBoxDropZenRate
?g_iRedRibbonBoxDropZen@@3HA DD 01H DUP (?)		; g_iRedRibbonBoxDropZen
?g_iGreenRibbonBoxDropLevelMin@@3HA DD 01H DUP (?)	; g_iGreenRibbonBoxDropLevelMin
?g_iGreenRibbonBoxDropLevelMax@@3HA DD 01H DUP (?)	; g_iGreenRibbonBoxDropLevelMax
?g_iGreenRibbonBoxDropRate@@3HA DD 01H DUP (?)		; g_iGreenRibbonBoxDropRate
?g_iGreenRibbonBoxDropZenRate@@3HA DD 01H DUP (?)	; g_iGreenRibbonBoxDropZenRate
?g_iGreenRibbonBoxDropZen@@3HA DD 01H DUP (?)		; g_iGreenRibbonBoxDropZen
?g_iBlueRibbonBoxDropLevelMin@@3HA DD 01H DUP (?)	; g_iBlueRibbonBoxDropLevelMin
?g_iBlueRibbonBoxDropLevelMax@@3HA DD 01H DUP (?)	; g_iBlueRibbonBoxDropLevelMax
?g_iBlueRibbonBoxDropRate@@3HA DD 01H DUP (?)		; g_iBlueRibbonBoxDropRate
?g_iBlueRibbonBoxDropZenRate@@3HA DD 01H DUP (?)	; g_iBlueRibbonBoxDropZenRate
?g_iBlueRibbonBoxDropZen@@3HA DD 01H DUP (?)		; g_iBlueRibbonBoxDropZen
?g_bNewYearLuckyBagMonsterEventOn@@3HA DD 01H DUP (?)	; g_bNewYearLuckyBagMonsterEventOn
?g_bChocolateBoxEvent@@3HA DD 01H DUP (?)		; g_bChocolateBoxEvent
?g_iPinkChocolateBoxDropLevelMin@@3HA DD 01H DUP (?)	; g_iPinkChocolateBoxDropLevelMin
?g_iPinkChocolateBoxDropLevelMax@@3HA DD 01H DUP (?)	; g_iPinkChocolateBoxDropLevelMax
?g_iPinkChocolateBoxDropRate@@3HA DD 01H DUP (?)	; g_iPinkChocolateBoxDropRate
?g_iPinkChocolateBoxDropZenRate@@3HA DD 01H DUP (?)	; g_iPinkChocolateBoxDropZenRate
?g_iPinkChocolateBoxDropZen@@3HA DD 01H DUP (?)		; g_iPinkChocolateBoxDropZen
?g_iRedChocolateBoxDropLevelMin@@3HA DD 01H DUP (?)	; g_iRedChocolateBoxDropLevelMin
?g_iRedChocolateBoxDropLevelMax@@3HA DD 01H DUP (?)	; g_iRedChocolateBoxDropLevelMax
?g_iRedChocolateBoxDropRate@@3HA DD 01H DUP (?)		; g_iRedChocolateBoxDropRate
?g_iRedChocolateBoxDropZenRate@@3HA DD 01H DUP (?)	; g_iRedChocolateBoxDropZenRate
?g_iRedChocolateBoxDropZen@@3HA DD 01H DUP (?)		; g_iRedChocolateBoxDropZen
?g_iBlueChocolateBoxDropLevelMin@@3HA DD 01H DUP (?)	; g_iBlueChocolateBoxDropLevelMin
?g_iBlueChocolateBoxDropLevelMax@@3HA DD 01H DUP (?)	; g_iBlueChocolateBoxDropLevelMax
?g_iBlueChocolateBoxDropRate@@3HA DD 01H DUP (?)	; g_iBlueChocolateBoxDropRate
?g_iBlueChocolateBoxDropZenRate@@3HA DD 01H DUP (?)	; g_iBlueChocolateBoxDropZenRate
?g_iBlueChocolateBoxDropZen@@3HA DD 01H DUP (?)		; g_iBlueChocolateBoxDropZen
?g_bCandyBoxEvent@@3HA DD 01H DUP (?)			; g_bCandyBoxEvent
?g_iLightPurpleCandyBoxDropLevelMin@@3HA DD 01H DUP (?)	; g_iLightPurpleCandyBoxDropLevelMin
?g_iLightPurpleCandyBoxDropLevelMax@@3HA DD 01H DUP (?)	; g_iLightPurpleCandyBoxDropLevelMax
?g_iLightPurpleCandyBoxDropRate@@3HA DD 01H DUP (?)	; g_iLightPurpleCandyBoxDropRate
?g_iLightPurpleCandyBoxDropZenRate@@3HA DD 01H DUP (?)	; g_iLightPurpleCandyBoxDropZenRate
?g_iLightPurpleCandyBoxDropZen@@3HA DD 01H DUP (?)	; g_iLightPurpleCandyBoxDropZen
?g_iVermilionCandyBoxDropLevelMin@@3HA DD 01H DUP (?)	; g_iVermilionCandyBoxDropLevelMin
?g_iVermilionCandyBoxDropLevelMax@@3HA DD 01H DUP (?)	; g_iVermilionCandyBoxDropLevelMax
?g_iVermilionCandyBoxDropRate@@3HA DD 01H DUP (?)	; g_iVermilionCandyBoxDropRate
?g_iVermilionCandyBoxDropZenRate@@3HA DD 01H DUP (?)	; g_iVermilionCandyBoxDropZenRate
?g_iVermilionCandyBoxDropZen@@3HA DD 01H DUP (?)	; g_iVermilionCandyBoxDropZen
?g_iDeepBlueCandyBoxDropLevelMin@@3HA DD 01H DUP (?)	; g_iDeepBlueCandyBoxDropLevelMin
?g_iDeepBlueCandyBoxDropLevelMax@@3HA DD 01H DUP (?)	; g_iDeepBlueCandyBoxDropLevelMax
?g_iDeepBlueCandyBoxDropRate@@3HA DD 01H DUP (?)	; g_iDeepBlueCandyBoxDropRate
?g_iDeepBlueCandyBoxDropZenRate@@3HA DD 01H DUP (?)	; g_iDeepBlueCandyBoxDropZenRate
?g_iDeepBlueCandyBoxDropZen@@3HA DD 01H DUP (?)		; g_iDeepBlueCandyBoxDropZen
?g_bFenrirStuffItemDrop@@3HA DD 01H DUP (?)		; g_bFenrirStuffItemDrop
?g_iFenrirStuff_01_DropLv_Min@@3HA DD 01H DUP (?)	; g_iFenrirStuff_01_DropLv_Min
?g_iFenrirStuff_01_DropLv_Max@@3HA DD 01H DUP (?)	; g_iFenrirStuff_01_DropLv_Max
?g_iFenrirStuff_01_DropMap@@3HA DD 01H DUP (?)		; g_iFenrirStuff_01_DropMap
?g_iFenrirStuff_01_DropRate@@3HA DD 01H DUP (?)		; g_iFenrirStuff_01_DropRate
?g_iFenrirStuff_02_DropLv_Min@@3HA DD 01H DUP (?)	; g_iFenrirStuff_02_DropLv_Min
?g_iFenrirStuff_02_DropLv_Max@@3HA DD 01H DUP (?)	; g_iFenrirStuff_02_DropLv_Max
?g_iFenrirStuff_02_DropMap@@3HA DD 01H DUP (?)		; g_iFenrirStuff_02_DropMap
?g_iFenrirStuff_02_DropRate@@3HA DD 01H DUP (?)		; g_iFenrirStuff_02_DropRate
?g_iFenrirStuff_03_DropLv_Min@@3HA DD 01H DUP (?)	; g_iFenrirStuff_03_DropLv_Min
?g_iFenrirStuff_03_DropLv_Max@@3HA DD 01H DUP (?)	; g_iFenrirStuff_03_DropLv_Max
?g_iFenrirStuff_03_DropMap@@3HA DD 01H DUP (?)		; g_iFenrirStuff_03_DropMap
?g_iFenrirStuff_03_DropRate@@3HA DD 01H DUP (?)		; g_iFenrirStuff_03_DropRate
?g_iFenrirRepairRate@@3HA DD 01H DUP (?)		; g_iFenrirRepairRate
?g_iFenrirDefaultMaxDurSmall@@3HA DD 01H DUP (?)	; g_iFenrirDefaultMaxDurSmall
?g_iFenrirElfMaxDurSmall@@3HA DD 01H DUP (?)		; g_iFenrirElfMaxDurSmall
?g_iFenrir_01Level_MixRate@@3HA DD 01H DUP (?)		; g_iFenrir_01Level_MixRate
?g_iFenrir_02Level_MixRate@@3HA DD 01H DUP (?)		; g_iFenrir_02Level_MixRate
?g_iFenrir_03Level_MixRate@@3HA DD 01H DUP (?)		; g_iFenrir_03Level_MixRate
?g_bCrywolfMonsterDarkElfItemDrop@@3HA DD 01H DUP (?)	; g_bCrywolfMonsterDarkElfItemDrop
?g_iCrywolfMonsterDarkElfItemDropRate@@3HA DD 01H DUP (?) ; g_iCrywolfMonsterDarkElfItemDropRate
?g_iCrywolfMonsterDarkElfDropZenRate@@3HA DD 01H DUP (?) ; g_iCrywolfMonsterDarkElfDropZenRate
?g_iCrywolfMonsterDarkElfDropZen@@3HA DD 01H DUP (?)	; g_iCrywolfMonsterDarkElfDropZen
?g_bCrywolfBossMonsterItemDrop@@3HA DD 01H DUP (?)	; g_bCrywolfBossMonsterItemDrop
?g_iCrywolfBossMonsterItemDropRate@@3HA DD 01H DUP (?)	; g_iCrywolfBossMonsterItemDropRate
?g_iCrywolfBossMonsterDropZenRate@@3HA DD 01H DUP (?)	; g_iCrywolfBossMonsterDropZenRate
?g_iCrywolfBossMonsterDropZen@@3HA DD 01H DUP (?)	; g_iCrywolfBossMonsterDropZen
?g_iCrywolfApplyMvpBenefit@@3HA DD 01H DUP (?)		; g_iCrywolfApplyMvpBenefit
?g_iCrywolfApplyMvpPenalty@@3HA DD 01H DUP (?)		; g_iCrywolfApplyMvpPenalty
?g_iSkillDistanceCheck@@3HA DD 01H DUP (?)		; g_iSkillDistanceCheck
?g_iSkillDistanceCheckTemp@@3HA DD 01H DUP (?)		; g_iSkillDistanceCheckTemp
?g_iSkillDistanceKick@@3HA DD 01H DUP (?)		; g_iSkillDistanceKick
?g_iSkillDistanceKickCount@@3HA DD 01H DUP (?)		; g_iSkillDistanceKickCount
?g_iSkillDiatanceKickCheckTime@@3HA DD 01H DUP (?)	; g_iSkillDiatanceKickCheckTime
?g_bKanturuMayaHandItemDrop@@3HA DD 01H DUP (?)		; g_bKanturuMayaHandItemDrop
?g_iKanturuMayaHandItemDropRate@@3HA DD 01H DUP (?)	; g_iKanturuMayaHandItemDropRate
?g_iKanturuMayaHandDropZenRate@@3HA DD 01H DUP (?)	; g_iKanturuMayaHandDropZenRate
?g_iKanturuMayaHandDropZen@@3HA DD 01H DUP (?)		; g_iKanturuMayaHandDropZen
?g_bKanturuNightmareItemDrop@@3HA DD 01H DUP (?)	; g_bKanturuNightmareItemDrop
?g_iKanturuNightmareItemDropRate@@3HA DD 01H DUP (?)	; g_iKanturuNightmareItemDropRate
?g_iKanturuNightmareDropZenRate@@3HA DD 01H DUP (?)	; g_iKanturuNightmareDropZenRate
?g_iKanturuNightmareDropZen@@3HA DD 01H DUP (?)		; g_iKanturuNightmareDropZen
?g_bKanturuSpecialItemDropOn@@3HA DD 01H DUP (?)	; g_bKanturuSpecialItemDropOn
?g_iKanturuMoonStoneDropRate@@3HA DD 01H DUP (?)	; g_iKanturuMoonStoneDropRate
?g_iKanturuJewelOfHarmonyDropRate@@3HA DD 01H DUP (?)	; g_iKanturuJewelOfHarmonyDropRate
?g_bRaklionSelupanItemDrop@@3HA DD 01H DUP (?)		; g_bRaklionSelupanItemDrop
?g_iRaklionSelupanItemDropRate@@3HA DD 01H DUP (?)	; g_iRaklionSelupanItemDropRate
?g_iRaklionSelupanDropZenRate@@3HA DD 01H DUP (?)	; g_iRaklionSelupanDropZenRate
?g_bRaklionSelupanDropZen@@3HA DD 01H DUP (?)		; g_bRaklionSelupanDropZen
?g_bLuckyCoinEventOn@@3HA DD 01H DUP (?)		; g_bLuckyCoinEventOn
?g_iLuckyCoinDropRate@@3HA DD 01H DUP (?)		; g_iLuckyCoinDropRate
?g_bHallowinDayEventOn@@3HA DD 01H DUP (?)		; g_bHallowinDayEventOn
?g_iHallowinDayEventItemDropRate@@3HA DD 01H DUP (?)	; g_iHallowinDayEventItemDropRate
?g_iHallowinDayEventJOLBlessDropRate@@3HA DD 01H DUP (?) ; g_iHallowinDayEventJOLBlessDropRate
?g_iHallowinDayEventJOLAngerDropRaTe@@3HA DD 01H DUP (?) ; g_iHallowinDayEventJOLAngerDropRaTe
?g_iHallowinDayEventJOLScreamDropRate@@3HA DD 01H DUP (?) ; g_iHallowinDayEventJOLScreamDropRate
?g_iHallowinDayEventJOLFoodDropRate@@3HA DD 01H DUP (?)	; g_iHallowinDayEventJOLFoodDropRate
?g_iHallowinDayEventJOLDrinkDropRate@@3HA DD 01H DUP (?) ; g_iHallowinDayEventJOLDrinkDropRate
?g_iHallowinDayEventJOLPolymorphRingDropRate@@3HA DD 01H DUP (?) ; g_iHallowinDayEventJOLPolymorphRingDropRate
?g_iSantaPolymorphRingDropOn@@3HA DD 01H DUP (?)	; g_iSantaPolymorphRingDropOn
?g_iSantaPolymorphRingDropRate@@3HA DD 01H DUP (?)	; g_iSantaPolymorphRingDropRate
?g_iCondorFlameDropRate@@3HA DD 01H DUP (?)		; g_iCondorFlameDropRate
?g_bCherryBlossomEventOn@@3HA DD 01H DUP (?)		; g_bCherryBlossomEventOn
?g_iCherryBlossomEventItemDropRate@@3HA DD 01H DUP (?)	; g_iCherryBlossomEventItemDropRate
?g_bAbilityDebug@@3HA DD 01H DUP (?)			; g_bAbilityDebug
?dwgCheckSum@@3PAKA DD 0400H DUP (?)			; dwgCheckSum
?connectserverip@@3PADA DB 014H DUP (?)			; connectserverip
?connectserverport@@3HA DD 01H DUP (?)			; connectserverport
?gGameServerCode@@3FA DW 01H DUP (?)			; gGameServerCode
	ALIGN	4

?gPkTime@@3HA DD 01H DUP (?)				; gPkTime
?g_bCastleGuildDestoyLimit@@3HA DD 01H DUP (?)		; g_bCastleGuildDestoyLimit
?gItemNumberCount@@3KA DD 01H DUP (?)			; gItemNumberCount
?gAttackEventRegenTime@@3KA DD 01H DUP (?)		; gAttackEventRegenTime
?gYear@@3HA DD	01H DUP (?)				; gYear
?gOnlyFireCrackerEffectUse@@3HA DD 01H DUP (?)		; gOnlyFireCrackerEffectUse
?g_iRingOrcKillGiftRate@@3HA DD 01H DUP (?)		; g_iRingOrcKillGiftRate
?g_iRingDropGiftRate@@3HA DD 01H DUP (?)		; g_iRingDropGiftRate
?g_iXMasAttackEventDropRate@@3HA DD 01H DUP (?)		; g_iXMasAttackEventDropRate
?g_iXMasAttackEventDropZen@@3HA DD 01H DUP (?)		; g_iXMasAttackEventDropZen
?gEledoradoGoldGoblenItemDropRate@@3HA DD 01H DUP (?)	; gEledoradoGoldGoblenItemDropRate
?gEledoradoTitanItemDropRate@@3HA DD 01H DUP (?)	; gEledoradoTitanItemDropRate
?gEledoradoGoldDerconItemDropRate@@3HA DD 01H DUP (?)	; gEledoradoGoldDerconItemDropRate
?gEledoradoDevilLizardKingItemDropRate@@3HA DD 01H DUP (?) ; gEledoradoDevilLizardKingItemDropRate
?gEledoradoDevilTantarosItemDropRate@@3HA DD 01H DUP (?) ; gEledoradoDevilTantarosItemDropRate
?gEledoradoGoldGoblenExItemDropRate@@3HA DD 01H DUP (?)	; gEledoradoGoldGoblenExItemDropRate
?gEledoradoTitanExItemDropRate@@3HA DD 01H DUP (?)	; gEledoradoTitanExItemDropRate
?gEledoradoGoldDerconExItemDropRate@@3HA DD 01H DUP (?)	; gEledoradoGoldDerconExItemDropRate
?gEledoradoDevilLizardKingExItemDropRate@@3HA DD 01H DUP (?) ; gEledoradoDevilLizardKingExItemDropRate
?gEledoradoDevilTantarosExItemDropRate@@3HA DD 01H DUP (?) ; gEledoradoDevilTantarosExItemDropRate
?giKundunRefillHPSec@@3HA DD 01H DUP (?)		; giKundunRefillHPSec
?giKundunRefillHP@@3HA DD 01H DUP (?)			; giKundunRefillHP
?giKundunRefillHPTime@@3HA DD 01H DUP (?)		; giKundunRefillHPTime
?giKundunHPLogSaveTime@@3HA DD 01H DUP (?)		; giKundunHPLogSaveTime
?gUseNPGGChecksum@@3HA DD 01H DUP (?)			; gUseNPGGChecksum
?g_ShieldSystemOn@@3HA DD 01H DUP (?)			; g_ShieldSystemOn
?g_iDamageDevideToSDRate@@3HA DD 01H DUP (?)		; g_iDamageDevideToSDRate
?g_iDamageDevideToHPRate@@3HA DD 01H DUP (?)		; g_iDamageDevideToHPRate
?g_fSuccessAttackRateOption@@3MA DD 01H DUP (?)		; g_fSuccessAttackRateOption
?g_iSDChargingOption@@3HA DD 01H DUP (?)		; g_iSDChargingOption
?g_iConstNumberOfShieldPoint@@3HA DD 01H DUP (?)	; g_iConstNumberOfShieldPoint
?g_ShieldAutoRefillOn@@3HA DD 01H DUP (?)		; g_ShieldAutoRefillOn
?g_ShieldAutoRefillOnSafeZone@@3HA DD 01H DUP (?)	; g_ShieldAutoRefillOnSafeZone
?g_PKLevelIncreaseOff@@3HA DD 01H DUP (?)		; g_PKLevelIncreaseOff
?g_CompoundPotionDropOn@@3HA DD 01H DUP (?)		; g_CompoundPotionDropOn
?g_iCompoundPotionLv1DropRate@@3HA DD 01H DUP (?)	; g_iCompoundPotionLv1DropRate
?g_iCompoundPotionLv2DropRate@@3HA DD 01H DUP (?)	; g_iCompoundPotionLv2DropRate
?g_iCompoundPotionLv3DropRate@@3HA DD 01H DUP (?)	; g_iCompoundPotionLv3DropRate
?g_iCompoundPotionLv1DropLevel@@3HA DD 01H DUP (?)	; g_iCompoundPotionLv1DropLevel
?g_iCompoundPotionLv2DropLevel@@3HA DD 01H DUP (?)	; g_iCompoundPotionLv2DropLevel
?g_iCompoundPotionLv3DropLevel@@3HA DD 01H DUP (?)	; g_iCompoundPotionLv3DropLevel
?g_bShieldComboMissOptionOn@@3HA DD 01H DUP (?)		; g_bShieldComboMissOptionOn
?g_iShieldPotionLv1MixSuccessRate@@3HA DD 01H DUP (?)	; g_iShieldPotionLv1MixSuccessRate
?g_iShieldPotionLv1MixMoney@@3HA DD 01H DUP (?)		; g_iShieldPotionLv1MixMoney
?g_iShieldPotionLv2MixSuccessRate@@3HA DD 01H DUP (?)	; g_iShieldPotionLv2MixSuccessRate
?g_iShieldPotionLv2MixMoney@@3HA DD 01H DUP (?)		; g_iShieldPotionLv2MixMoney
?g_iShieldPotionLv3MixSuccessRate@@3HA DD 01H DUP (?)	; g_iShieldPotionLv3MixSuccessRate
?g_iShieldPotionLv3MixMoney@@3HA DD 01H DUP (?)		; g_iShieldPotionLv3MixMoney
?g_iShieldGageConstA@@3HA DD 01H DUP (?)		; g_iShieldGageConstA
?g_iShieldGageConstB@@3HA DD 01H DUP (?)		; g_iShieldGageConstB
?gMapName@@3PAY0PP@DA DB 059a6H DUP (?)			; gMapName
	ALIGN	4

?g_bDoCastleDeepEvent@@3HA DD 01H DUP (?)		; g_bDoCastleDeepEvent
?gIsDropSetItemInCastleHuntZone@@3HA DD 01H DUP (?)	; gIsDropSetItemInCastleHuntZone
?gSetItemInCastleHuntZoneDropRate@@3HA DD 01H DUP (?)	; gSetItemInCastleHuntZoneDropRate
?gSetItemInCastleHuntZoneDropLevel@@3HA DD 01H DUP (?)	; gSetItemInCastleHuntZoneDropLevel
?CastleItemMixItemBag@@3PAVCItemBagEx@@A DD 01H DUP (?)	; CastleItemMixItemBag
?CastleHuntZoneBossItemBag@@3PAVCItemBagEx@@A DD 01H DUP (?) ; CastleHuntZoneBossItemBag
?ExParty3ExpPercent@@3HA DD 01H DUP (?)			; ExParty3ExpPercent
?ExParty4ExpPercent@@3HA DD 01H DUP (?)			; ExParty4ExpPercent
?ExParty5ExpPercent@@3HA DD 01H DUP (?)			; ExParty5ExpPercent
?ExPartyExpPercentOther@@3HA DD 01H DUP (?)		; ExPartyExpPercentOther
?ExParty2ExpSetPercent@@3HA DD 01H DUP (?)		; ExParty2ExpSetPercent
?ExParty3ExpSetPercent@@3HA DD 01H DUP (?)		; ExParty3ExpSetPercent
?ExParty4ExpSetPercent@@3HA DD 01H DUP (?)		; ExParty4ExpSetPercent
?ExParty5ExpSetPercent@@3HA DD 01H DUP (?)		; ExParty5ExpSetPercent
?ExParty1ExpSetPercent@@3HA DD 01H DUP (?)		; ExParty1ExpSetPercent
?g_MaxPartyMember@@3HA DD 01H DUP (?)			; g_MaxPartyMember
?ExParty6ExpPercent@@3HA DD 01H DUP (?)			; ExParty6ExpPercent
?ExParty7ExpPercent@@3HA DD 01H DUP (?)			; ExParty7ExpPercent
?ExParty8ExpPercent@@3HA DD 01H DUP (?)			; ExParty8ExpPercent
?ExParty9ExpPercent@@3HA DD 01H DUP (?)			; ExParty9ExpPercent
?ExParty10ExpPercent@@3HA DD 01H DUP (?)		; ExParty10ExpPercent
?ExParty6ExpSetPercent@@3HA DD 01H DUP (?)		; ExParty6ExpSetPercent
?ExParty7ExpSetPercent@@3HA DD 01H DUP (?)		; ExParty7ExpSetPercent
?ExParty8ExpSetPercent@@3HA DD 01H DUP (?)		; ExParty8ExpSetPercent
?ExParty9ExpSetPercent@@3HA DD 01H DUP (?)		; ExParty9ExpSetPercent
?ExParty10ExpSetPercent@@3HA DD 01H DUP (?)		; ExParty10ExpSetPercent
?ExDropZenParty@@3HA DD 01H DUP (?)			; ExDropZenParty
?ShareZenParty@@3HA DD 01H DUP (?)			; ShareZenParty
?PartyLootTime@@3HA DD 01H DUP (?)			; PartyLootTime
?AllianceMinPlayers@@3HA DD 01H DUP (?)			; AllianceMinPlayers
?ExExcellentAncient@@3HA DD 01H DUP (?)			; ExExcellentAncient
?ExExcellentSocket@@3HA DD 01H DUP (?)			; ExExcellentSocket
?ExAncientSocket@@3HA DD 01H DUP (?)			; ExAncientSocket
?ExAddJoHtoAnc@@3HA DD 01H DUP (?)			; ExAddJoHtoAnc
?Ex_ItemsDurationTime@@3HA DD 01H DUP (?)		; Ex_ItemsDurationTime
?Ex_LifeRate@@3HA DD 01H DUP (?)			; Ex_LifeRate
?Ex_SoulRate@@3HA DD 01H DUP (?)			; Ex_SoulRate
?Ex_SoulRateLuck@@3HA DD 01H DUP (?)			; Ex_SoulRateLuck
?gWelcomeMessage@@3PADA DB 0ffH DUP (?)			; gWelcomeMessage
	ALIGN	4

?MSSQL2008@@3_NA DB 01H DUP (?)				; MSSQL2008
	ALIGN	4

?gGENS@@3HA DD	01H DUP (?)				; gGENS
?g_iXMasVisitCount@@3HA DD 01H DUP (?)			; g_iXMasVisitCount
?g_iBloodCastle_OddEvenHour@@3HA DD 01H DUP (?)		; g_iBloodCastle_OddEvenHour
_BSS	ENDS
_DATA	SEGMENT
_g_iNpcUpDfLevel_CGATE DD 01H
	DD	02H
	DD	02dc6c0H
	DD	02H
	DD	03H
	DD	02dc6c0H
	DD	03H
	DD	04H
	DD	02dc6c0H
_g_iNpcUpDfLevel_CSTATUE DD 01H
	DD	03H
	DD	02dc6c0H
	DD	02H
	DD	05H
	DD	02dc6c0H
	DD	03H
	DD	07H
	DD	02dc6c0H
_g_iNpcUpMaxHP_CGATE DD 02625a0H
	DD	02H
	DD	0f4240H
	DD	03567e0H
	DD	03H
	DD	0f4240H
	DD	04f5880H
	DD	04H
	DD	0f4240H
_g_iNpcUpMaxHP_CSTATUE DD 02191c0H
	DD	03H
	DD	0f4240H
	DD	033e140H
	DD	05H
	DD	0f4240H
	DD	04c4b40H
	DD	07H
	DD	0f4240H
_g_iNpcUpRgLevel_CSTATUE DD 01H
	DD	03H
	DD	04c4b40H
	DD	02H
	DD	05H
	DD	04c4b40H
	DD	03H
	DD	07H
	DD	04c4b40H
_g_iCsUserReSpawnArea DD 023H
	DD	011H
	DD	090H
	DD	030H
	DD	04aH
	DD	090H
	DD	073H
	DD	09aH
	DD	023H
	DD	011H
	DD	090H
	DD	030H
_g_iNpcDefense_CGATE DD 064H
	DD	0b4H
	DD	012cH
	DD	0208H
_g_iNpcDefense_CSTATUE DD 050H
	DD	0b4H
	DD	0154H
	DD	0226H
_g_iCastleWallStepAxisY DD 071H
	DD	0a0H
	DD	0cbH
_g_sttBLOODCASTLE_LEVEL DD 0fH
	DD	050H
	DD	0aH
	DD	03cH
	DD	051H
	DD	082H
	DD	03dH
	DD	06eH
	DD	083H
	DD	0b4H
	DD	06fH
	DD	0a0H
	DD	0b5H
	DD	0e6H
	DD	0a1H
	DD	0d2H
	DD	0e7H
	DD	0118H
	DD	0d3H
	DD	0104H
	DD	0119H
	DD	014aH
	DD	0105H
	DD	0136H
	DD	014bH
	DD	0190H
	DD	0137H
	DD	0190H
	DD	0fH
	DD	0257H
	DD	0aH
	DD	0257H
_g_sttCHAOSCASTLE_LEVEL DD 0fH
	DD	031H
	DD	0fH
	DD	01dH
	DD	032H
	DD	077H
	DD	01eH
	DD	063H
	DD	078H
	DD	0b3H
	DD	064H
	DD	09fH
	DD	0b4H
	DD	0efH
	DD	0a0H
	DD	0dbH
	DD	0f0H
	DD	012bH
	DD	0dcH
	DD	0117H
	DD	012cH
	DD	0190H
	DD	0118H
	DD	0190H
	DD	0190H
	DD	0257H
	DD	0190H
	DD	0257H
_g_iChaosCastle_BlowOutDistance DD 03H
	DD	04H
	DD	03H
	DD	04H
	DD	02H
	DD	03H
	DD	00H
	DD	01H
_g_iChaosCastle_BlowOutDamage DD 0fH
	DD	0fH
	DD	0aH
	DD	05H
_g_iChaosCastle_EnterCost DD 061a8H
	DD	013880H
	DD	0249f0H
	DD	03d090H
	DD	061a80H
	DD	09eb10H
	DD	0f4240H
_g_iChaosCastle_GuardSetValue DD 09c4H
	DD	09c4H
	DD	09c4H
	DD	09c4H
	DD	09c4H
	DD	09c4H
	DD	09c4H
_g_iChaosCastle_MonsterItems DD 01c0dH
	DD	01H
	DD	01c0eH
	DD	02H
	DD	01c0dH
	DD	01H
	DD	01c0eH
	DD	03H
	DD	01c0dH
	DD	01H
	DD	01c0eH
	DD	03H
	DD	01c0dH
	DD	02H
	DD	01c0eH
	DD	02H
	DD	01c0dH
	DD	02H
	DD	01c0eH
	DD	03H
	DD	01c0dH
	DD	02H
	DD	01c0eH
	DD	03H
	DD	01c0dH
	DD	02H
	DD	01c0eH
	DD	04H
_g_iChaosCastle_MonsterItemsNewServer DD 00H
	DD	00H
	DD	01c0eH
	DD	02H
	DD	01c0dH
	DD	01H
	DD	01c0eH
	DD	01H
	DD	01c0dH
	DD	01H
	DD	01c0eH
	DD	02H
	DD	01c0dH
	DD	01H
	DD	01c0eH
	DD	02H
	DD	01c0dH
	DD	02H
	DD	01c0eH
	DD	01H
	DD	01c0dH
	DD	02H
	DD	01c0eH
	DD	02H
	DD	01c0dH
	DD	02H
	DD	01c0eH
	DD	03H
_g_iChaosCastle_GroundAxis DD 017H
	DD	04bH
	DD	02cH
	DD	06cH
_g_iChaosCastle_DamageAxis DD 017H
	DD	04bH
	DD	02cH
	DD	06cH
	DD	019H
	DD	04dH
	DD	02aH
	DD	06aH
	DD	01bH
	DD	04fH
	DD	028H
	DD	068H
	DD	01dH
	DD	051H
	DD	026H
	DD	066H
_g_iChaosCastle_MapHollowZone DD 017H
	DD	04bH
	DD	02cH
	DD	04cH
	DD	02bH
	DD	04dH
	DD	02cH
	DD	06cH
	DD	017H
	DD	06bH
	DD	02aH
	DD	06cH
	DD	017H
	DD	04dH
	DD	018H
	DD	06aH
	DD	017H
	DD	04bH
	DD	02cH
	DD	04cH
	DD	02bH
	DD	04dH
	DD	02cH
	DD	06cH
	DD	017H
	DD	06bH
	DD	02aH
	DD	06cH
	DD	017H
	DD	04dH
	DD	018H
	DD	06aH
	DD	019H
	DD	04dH
	DD	02aH
	DD	04eH
	DD	029H
	DD	04fH
	DD	02aH
	DD	06aH
	DD	019H
	DD	069H
	DD	028H
	DD	06aH
	DD	019H
	DD	04fH
	DD	01aH
	DD	068H
	DD	01bH
	DD	04fH
	DD	028H
	DD	050H
	DD	027H
	DD	051H
	DD	028H
	DD	068H
	DD	01bH
	DD	067H
	DD	026H
	DD	068H
	DD	01bH
	DD	051H
	DD	01cH
	DD	066H
_g_sttDEVILSQUARE_LEVEL DD 0fH
	DD	082H
	DD	0aH
	DD	06eH
	DD	03aH
	DD	083H
	DD	0b4H
	DD	06fH
	DD	0a0H
	DD	03bH
	DD	0b5H
	DD	0e6H
	DD	0a1H
	DD	0d2H
	DD	03cH
	DD	0e7H
	DD	0118H
	DD	0d3H
	DD	0104H
	DD	03dH
	DD	0119H
	DD	014aH
	DD	0105H
	DD	0136H
	DD	06fH
	DD	014bH
	DD	0190H
	DD	0137H
	DD	0190H
	DD	070H
	DD	0fH
	DD	0257H
	DD	0aH
	DD	0257H
	DD	010eH
?g_iML_OldScrollDropRate@@3HA DD 0aH			; g_iML_OldScrollDropRate
?g_iML_CovenantOfIllusionDropRate@@3HA DD 0aH		; g_iML_CovenantOfIllusionDropRate
?g_iML_AngelKingsPaperDropRate@@3HA DD 0aH		; g_iML_AngelKingsPaperDropRate
?g_iML_BloodBoneDropRate@@3HA DD 0aH			; g_iML_BloodBoneDropRate
?g_iML_EyesOfDevilSquareDropRate@@3HA DD 0aH		; g_iML_EyesOfDevilSquareDropRate
?g_iML_KeysOfDevilSquareDropRate@@3HA DD 0aH		; g_iML_KeysOfDevilSquareDropRate
?g_iShadowPhantomMaxLevel@@3HA DD 0dcH			; g_iShadowPhantomMaxLevel
?g_iXMasEvent_LuckNumber1st@@3HA DD 064H		; g_iXMasEvent_LuckNumber1st
?g_iXMasEvent_LuckNumber2nd@@3HA DD 0c8H		; g_iXMasEvent_LuckNumber2nd
?gEledoradoGoldenRabbitRegenTime@@3HA DD 03cH		; gEledoradoGoldenRabbitRegenTime
?gEledoradoGoldenDarkKnightRegenTime@@3HA DD 03cH	; gEledoradoGoldenDarkKnightRegenTime
?gEledoradoGoldenDevilRegenTime@@3HA DD 03cH		; gEledoradoGoldenDevilRegenTime
?gEledoradoGoldenMonsterRegenTime@@3HA DD 03cH		; gEledoradoGoldenMonsterRegenTime
?gEledoradoGoldenCrustRegenTime@@3HA DD 03cH		; gEledoradoGoldenCrustRegenTime
?gEledoradoGoldenSatirosRegenTime@@3HA DD 03cH		; gEledoradoGoldenSatirosRegenTime
?gEledoradoGoldenTwintailRegenTime@@3HA DD 03cH		; gEledoradoGoldenTwintailRegenTime
?gEledoradoGoldenIronKnightRegenTime@@3HA DD 03cH	; gEledoradoGoldenIronKnightRegenTime
?gEledoradoGoldenNeipinRegenTime@@3HA DD 03cH		; gEledoradoGoldenNeipinRegenTime
?gEledoradoGoldenGreatDragonRegenTime@@3HA DD 03cH	; gEledoradoGoldenGreatDragonRegenTime
?g_bCheckSpeedHack@@3HA DD 01H				; g_bCheckSpeedHack
?szGameServerVersion@@3PADA DB '1.00.90', 00H		; szGameServerVersion
	ORG $+4
?g_szMapName@@3PAY0CA@DA DB 'Lorencia', 00H		; g_szMapName
	ORG $+23
	DB	'Dungeon', 00H
	ORG $+24
	DB	'Devias', 00H
	ORG $+25
	DB	'Noria', 00H
	ORG $+26
	DB	'LostTower', 00H
	ORG $+22
	DB	'Exile', 00H
	ORG $+26
	DB	'Arena', 00H
	ORG $+26
	DB	'Atlans', 00H
	ORG $+25
	DB	'Tarkan', 00H
	ORG $+25
	DB	'Icarus', 00H
	ORG $+25
	DB	'BloodCastle1', 00H
	ORG $+19
	DB	'BloodCastle2', 00H
	ORG $+19
	DB	'BloodCastle3', 00H
	ORG $+19
	DB	'BloodCastle4', 00H
	ORG $+19
	DB	'BloodCastle5', 00H
	ORG $+19
	DB	'BloodCastle6', 00H
	ORG $+19
	DB	'BloodCastle7', 00H
	ORG $+19
	ORG $+2336
?szClientVersion@@3PADA DB '000000', 00H		; szClientVersion
	ORG $+1
?bCanTrade@@3HA DD 01H					; bCanTrade
?bCanChaosBox@@3HA DD 01H				; bCanChaosBox
?bCanWarehouseLock@@3HA DD 01H				; bCanWarehouseLock
?gEnableBattleSoccer@@3HA DD 01H			; gEnableBattleSoccer
?MapMinUserLevel@@3PAHA DD 00H				; MapMinUserLevel
	DD	014H
	DD	0fH
	DD	0aH
	DD	050H
	DD	00H
	DD	00H
	DD	03cH
	DD	082H
	DD	00H
	DD	0a0H
	DD	0aH
	DD	024H
	DD	050H
	DD	082H
	DD	0aaH
	DD	0d2H
	DD	0136H
	DD	0fH
	DD	01eH
	DD	064H
	DD	0a0H
	DD	0dcH
	DD	0118H
	DD	0fH
	DD	032H
	DD	078H
	DD	0b4H
	DD	0f0H
	DD	012cH
	DD	0aH
	DD	0aH
	DD	00H
	DD	00H
	DD	00H
	ORG $+220
?gLootingTime@@3HA DD 03H				; gLootingTime
?gPkItemDrop@@3HA DD 01H				; gPkItemDrop
?gItemDropPer@@3HA DD 0aH				; gItemDropPer
?gItemDropLuckRate@@3HA DD 04H				; gItemDropLuckRate
?gItemDropSkillRate@@3HA DD 06H				; gItemDropSkillRate
?gItemDropOpt4Rate@@3HA DD 0cH				; gItemDropOpt4Rate
?gItemDropOpt8Rate@@3HA DD 08H				; gItemDropOpt8Rate
?gItemDropOpt12Rate@@3HA DD 04H				; gItemDropOpt12Rate
?gEvent1ItemDropTodayMax@@3HA DD 01H			; gEvent1ItemDropTodayMax
?gEvent1ItemDropTodayPercent@@3HA DD 050H		; gEvent1ItemDropTodayPercent
?gCountryName@@3PADA DB 'Kor', 00H			; gCountryName
	ORG $+16
?gCharacterDeleteMinLevel@@3HA DD 028H			; gCharacterDeleteMinLevel
?gCreateCharacter@@3HA DD 01H				; gCreateCharacter
?gGuildCreate@@3HA DD 01H				; gGuildCreate
?gGuildDestroy@@3HA DD 01H				; gGuildDestroy
?gGuildCreateLevel@@3HA DD 064H				; gGuildCreateLevel
?gItemSerialCheck@@3HA DD 01H				; gItemSerialCheck
?gAddExperience@@3MA DD 03f800000r		; 1	; gAddExperience
?gAddZen@@3MA DD 03f800000r			; 1	; gAddZen
?g_XMasEvent_StarOfXMasDropRate@@3HA DD 050H		; g_XMasEvent_StarOfXMasDropRate
?g_XMasEvent_ItemDropRateForStarOfXMas@@3HA DD 02H	; g_XMasEvent_ItemDropRateForStarOfXMas
?gFireCrackerDropRate@@3HA DD 050H			; gFireCrackerDropRate
?g_ItemDropRateForgFireCracker@@3HA DD 02H		; g_ItemDropRateForgFireCracker
?gHeartOfLoveDropRate@@3HA DD 050H			; gHeartOfLoveDropRate
?g_ItemDropRateForgHeartOfLove@@3HA DD 02H		; g_ItemDropRateForgHeartOfLove
?gGoldMedalDropRate@@3HA DD 02H				; gGoldMedalDropRate
?gSilverMedalDropRate@@3HA DD 02H			; gSilverMedalDropRate
?g_ItemDropRateForGoldMedal@@3HA DD 02H			; g_ItemDropRateForGoldMedal
?g_ItemDropRateForSilverMedal@@3HA DD 02H		; g_ItemDropRateForSilverMedal
?gBoxOfGoldDropRate@@3HA DD 02H				; gBoxOfGoldDropRate
?g_ItemDropRateForBoxOfGold@@3HA DD 02H			; g_ItemDropRateForBoxOfGold
?g_EventChipDropRateForBoxOfGold@@3HA DD 02H		; g_EventChipDropRateForBoxOfGold
?gEyesOfDevilSquareDropRate@@3HA DD 02H			; gEyesOfDevilSquareDropRate
?gKeyOfDevilSquareDropRate@@3HA DD 02H			; gKeyOfDevilSquareDropRate
?gDQChaosSuccessRateLevel1@@3HA DD 04bH			; gDQChaosSuccessRateLevel1
?gDQChaosSuccessRateLevel2@@3HA DD 046H			; gDQChaosSuccessRateLevel2
?gDQChaosSuccessRateLevel3@@3HA DD 041H			; gDQChaosSuccessRateLevel3
?gDQChaosSuccessRateLevel4@@3HA DD 03cH			; gDQChaosSuccessRateLevel4
?gDQChaosSuccessRateLevel5@@3HA DD 037H			; gDQChaosSuccessRateLevel5
?gDQChaosSuccessRateLevel6@@3HA DD 032H			; gDQChaosSuccessRateLevel6
?gDQChaosSuccessRateLevel7@@3HA DD 02dH			; gDQChaosSuccessRateLevel7
?g_bBloodCastle@@3HA DD 01H				; g_bBloodCastle
?g_iBloodCastle_StartHour@@3HA DD 01H			; g_iBloodCastle_StartHour
?g_iStoneDropRate@@3HA DD 03cH				; g_iStoneDropRate
?g_iAngelKingsPaperDropRate@@3HA DD 0aH			; g_iAngelKingsPaperDropRate
?g_iBloodBoneDropRate@@3HA DD 014H			; g_iBloodBoneDropRate
?g_bChaosCastle@@3HA DD 01H				; g_bChaosCastle
?gAttackSpeedTimeLimit@@3KA DD 082H			; gAttackSpeedTimeLimit
?gHackCheckCount@@3KA DD 05H				; gHackCheckCount
?gDecTimePerAttackSpeed@@3MA DD 040aa8f5cr	; 5.33	; gDecTimePerAttackSpeed
?gMinimumAttackSpeedTime@@3HA DD 08H			; gMinimumAttackSpeedTime
?gDetectedHackKickCount@@3HA DD 0aH			; gDetectedHackKickCount
?gTamaJJangKeepTime@@3HA DD 064H			; gTamaJJangKeepTime
?gTamaJJangDisappearTime@@3HA DD 0708H			; gTamaJJangDisappearTime
?gTamaJJangDisappearTimeRandomRange@@3HA DD 03e8H	; gTamaJJangDisappearTimeRandomRange
?gItemDropRingOfTransform@@3HA DD 01H			; gItemDropRingOfTransform
?gQuestNPCTeleportTime@@3HA DD 03cH			; gQuestNPCTeleportTime
?gEledoradoGoldGoblenRegenTime@@3KA DD 03cH		; gEledoradoGoldGoblenRegenTime
?gEledoradoTitanRegenTime@@3KA DD 03cH			; gEledoradoTitanRegenTime
?gEledoradoGoldDerconRegenTime@@3KA DD 03cH		; gEledoradoGoldDerconRegenTime
?gEledoradoDevilLizardKingRegenTime@@3KA DD 03cH	; gEledoradoDevilLizardKingRegenTime
?gEledoradoDevilTantarosRegenTime@@3KA DD 03cH		; gEledoradoDevilTantarosRegenTime
?gZenDurationTime@@3HA DD 01eH				; gZenDurationTime
?gMonsterHPAdjust@@3HA DD 064H				; gMonsterHPAdjust
?gEnableCheckPenetrationSkill@@3HA DD 01H		; gEnableCheckPenetrationSkill
?g_iCastleItemMixLimit@@3HA DD 01H			; g_iCastleItemMixLimit
_DATA	ENDS
PUBLIC	??_H@YGXPAXIHP6EPAX0@Z@Z			; `vector constructor iterator'
; Function compile flags: /Odtp /ZI
;	COMDAT ??_H@YGXPAXIHP6EPAX0@Z@Z
_TEXT	SEGMENT
___t$ = 8						; size = 4
___s$ = 12						; size = 4
___n$ = 16						; size = 4
___f$ = 20						; size = 4
??_H@YGXPAXIHP6EPAX0@Z@Z PROC				; `vector constructor iterator', COMDAT
  00000	55		 push	 ebp
  00001	8b ec		 mov	 ebp, esp
  00003	83 ec 40	 sub	 esp, 64			; 00000040H
  00006	53		 push	 ebx
  00007	56		 push	 esi
  00008	57		 push	 edi
$LN2@vector:
  00009	8b 45 10	 mov	 eax, DWORD PTR ___n$[ebp]
  0000c	83 e8 01	 sub	 eax, 1
  0000f	89 45 10	 mov	 DWORD PTR ___n$[ebp], eax
  00012	78 11		 js	 SHORT $LN3@vector
  00014	8b 4d 08	 mov	 ecx, DWORD PTR ___t$[ebp]
  00017	ff 55 14	 call	 DWORD PTR ___f$[ebp]
  0001a	8b 45 08	 mov	 eax, DWORD PTR ___t$[ebp]
  0001d	03 45 0c	 add	 eax, DWORD PTR ___s$[ebp]
  00020	89 45 08	 mov	 DWORD PTR ___t$[ebp], eax
  00023	eb e4		 jmp	 SHORT $LN2@vector
$LN3@vector:
  00025	5f		 pop	 edi
  00026	5e		 pop	 esi
  00027	5b		 pop	 ebx
  00028	8b e5		 mov	 esp, ebp
  0002a	5d		 pop	 ebp
  0002b	c2 10 00	 ret	 16			; 00000010H
??_H@YGXPAXIHP6EPAX0@Z@Z ENDP				; `vector constructor iterator'
_TEXT	ENDS
PUBLIC	?gSetDate@@YAXXZ				; gSetDate
; Function compile flags: /Odtp /ZI
; File d:\projects\exteam6.3\source\gameserver\gameserver\gamemain.cpp
_TEXT	SEGMENT
_ltime$ = -12						; size = 8
_today$ = -4						; size = 4
?gSetDate@@YAXXZ PROC					; gSetDate

; 742  : {

  00000	55		 push	 ebp
  00001	8b ec		 mov	 ebp, esp
  00003	83 ec 4c	 sub	 esp, 76			; 0000004cH
  00006	53		 push	 ebx
  00007	56		 push	 esi
  00008	57		 push	 edi

; 743  : 	tm *today;
; 744  : 	time_t ltime;
; 745  : 
; 746  : 	time(&ltime);

  00009	8d 45 f4	 lea	 eax, DWORD PTR _ltime$[ebp]
  0000c	50		 push	 eax
  0000d	e8 00 00 00 00	 call	 _time
  00012	83 c4 04	 add	 esp, 4

; 747  : 	today=localtime(&ltime);

  00015	8d 45 f4	 lea	 eax, DWORD PTR _ltime$[ebp]
  00018	50		 push	 eax
  00019	e8 00 00 00 00	 call	 _localtime
  0001e	83 c4 04	 add	 esp, 4
  00021	89 45 fc	 mov	 DWORD PTR _today$[ebp], eax

; 748  : 	
; 749  : 	today->tm_year=today->tm_year+1900;

  00024	8b 45 fc	 mov	 eax, DWORD PTR _today$[ebp]
  00027	8b 48 14	 mov	 ecx, DWORD PTR [eax+20]
  0002a	81 c1 6c 07 00
	00		 add	 ecx, 1900		; 0000076cH
  00030	8b 55 fc	 mov	 edx, DWORD PTR _today$[ebp]
  00033	89 4a 14	 mov	 DWORD PTR [edx+20], ecx

; 750  : 	gYear=today->tm_year;

  00036	8b 45 fc	 mov	 eax, DWORD PTR _today$[ebp]
  00039	8b 48 14	 mov	 ecx, DWORD PTR [eax+20]
  0003c	89 0d 00 00 00
	00		 mov	 DWORD PTR ?gYear@@3HA, ecx ; gYear

; 751  : }

  00042	5f		 pop	 edi
  00043	5e		 pop	 esi
  00044	5b		 pop	 ebx
  00045	8b e5		 mov	 esp, ebp
  00047	5d		 pop	 ebp
  00048	c3		 ret	 0
?gSetDate@@YAXXZ ENDP					; gSetDate
_TEXT	ENDS
EXTRN	__localtime64:PROC
; Function compile flags: /Odtp /ZI
; File d:\microsoft visual studio 10.0\vc\include\time.inl
_TEXT	SEGMENT
__Time$ = 8						; size = 4
_localtime PROC

; 113  : {

  00050	55		 push	 ebp
  00051	8b ec		 mov	 ebp, esp
  00053	83 ec 40	 sub	 esp, 64			; 00000040H
  00056	53		 push	 ebx
  00057	56		 push	 esi
  00058	57		 push	 edi

; 114  : #pragma warning( push )
; 115  : #pragma warning( disable : 4996 )
; 116  :     return _localtime64(_Time);

  00059	8b 45 08	 mov	 eax, DWORD PTR __Time$[ebp]
  0005c	50		 push	 eax
  0005d	e8 00 00 00 00	 call	 __localtime64
  00062	83 c4 04	 add	 esp, 4

; 117  : #pragma warning( pop )
; 118  : }

  00065	5f		 pop	 edi
  00066	5e		 pop	 esi
  00067	5b		 pop	 ebx
  00068	8b e5		 mov	 esp, ebp
  0006a	5d		 pop	 ebp
  0006b	c3		 ret	 0
_localtime ENDP
_TEXT	ENDS
EXTRN	__time64:PROC
; Function compile flags: /Odtp /ZI
_TEXT	SEGMENT
__Time$ = 8						; size = 4
_time	PROC

; 132  : {

  00070	55		 push	 ebp
  00071	8b ec		 mov	 ebp, esp
  00073	83 ec 40	 sub	 esp, 64			; 00000040H
  00076	53		 push	 ebx
  00077	56		 push	 esi
  00078	57		 push	 edi

; 133  :     return _time64(_Time);

  00079	8b 45 08	 mov	 eax, DWORD PTR __Time$[ebp]
  0007c	50		 push	 eax
  0007d	e8 00 00 00 00	 call	 __time64
  00082	83 c4 04	 add	 esp, 4

; 134  : }

  00085	5f		 pop	 edi
  00086	5e		 pop	 esi
  00087	5b		 pop	 ebx
  00088	8b e5		 mov	 esp, ebp
  0008a	5d		 pop	 ebp
  0008b	c3		 ret	 0
_time	ENDP
_TEXT	ENDS
PUBLIC	??_C@_00CNPNBAHC@?$AA@				; `string'
PUBLIC	?gJoomin15Check@@YAHPAD@Z			; gJoomin15Check
EXTRN	_atoi:PROC
EXTRN	_memcpy:PROC
;	COMDAT ??_C@_00CNPNBAHC@?$AA@
; File d:\projects\exteam6.3\source\gameserver\gameserver\gamemain.cpp
CONST	SEGMENT
??_C@_00CNPNBAHC@?$AA@ DB 00H				; `string'
; Function compile flags: /Odtp /ZI
CONST	ENDS
_TEXT	SEGMENT
_szTyear$ = -8						; size = 3
_tyear$ = -4						; size = 4
_szJN$ = 8						; size = 4
?gJoomin15Check@@YAHPAD@Z PROC				; gJoomin15Check

; 755  : {

  00090	55		 push	 ebp
  00091	8b ec		 mov	 ebp, esp
  00093	83 ec 48	 sub	 esp, 72			; 00000048H
  00096	53		 push	 ebx
  00097	56		 push	 esi
  00098	57		 push	 edi

; 756  : 	int tyear=1900;

  00099	c7 45 fc 6c 07
	00 00		 mov	 DWORD PTR _tyear$[ebp], 1900 ; 0000076cH

; 757  : 	char szTyear[3]="";

  000a0	a0 00 00 00 00	 mov	 al, BYTE PTR ??_C@_00CNPNBAHC@?$AA@
  000a5	88 45 f8	 mov	 BYTE PTR _szTyear$[ebp], al
  000a8	33 c0		 xor	 eax, eax
  000aa	66 89 45 f9	 mov	 WORD PTR _szTyear$[ebp+1], ax

; 758  : 	
; 759  : 	if ( szJN[6] == 51 || szJN[6] == 52)

  000ae	8b 45 08	 mov	 eax, DWORD PTR _szJN$[ebp]
  000b1	0f be 48 06	 movsx	 ecx, BYTE PTR [eax+6]
  000b5	83 f9 33	 cmp	 ecx, 51			; 00000033H
  000b8	74 0c		 je	 SHORT $LN2@gJoomin15C
  000ba	8b 45 08	 mov	 eax, DWORD PTR _szJN$[ebp]
  000bd	0f be 48 06	 movsx	 ecx, BYTE PTR [eax+6]
  000c1	83 f9 34	 cmp	 ecx, 52			; 00000034H
  000c4	75 07		 jne	 SHORT $LN3@gJoomin15C
$LN2@gJoomin15C:

; 760  : 	{
; 761  : 		tyear = 2000;

  000c6	c7 45 fc d0 07
	00 00		 mov	 DWORD PTR _tyear$[ebp], 2000 ; 000007d0H
$LN3@gJoomin15C:

; 762  : 	}
; 763  : 
; 764  : 	memcpy(&szTyear[0], szJN, sizeof(szTyear)-1);

  000cd	6a 02		 push	 2
  000cf	8b 45 08	 mov	 eax, DWORD PTR _szJN$[ebp]
  000d2	50		 push	 eax
  000d3	8d 4d f8	 lea	 ecx, DWORD PTR _szTyear$[ebp]
  000d6	51		 push	 ecx
  000d7	e8 00 00 00 00	 call	 _memcpy
  000dc	83 c4 0c	 add	 esp, 12			; 0000000cH

; 765  : 
; 766  : 	tyear=tyear+atoi(&szTyear[0]);

  000df	8d 45 f8	 lea	 eax, DWORD PTR _szTyear$[ebp]
  000e2	50		 push	 eax
  000e3	e8 00 00 00 00	 call	 _atoi
  000e8	83 c4 04	 add	 esp, 4
  000eb	03 45 fc	 add	 eax, DWORD PTR _tyear$[ebp]
  000ee	89 45 fc	 mov	 DWORD PTR _tyear$[ebp], eax

; 767  : 	if ( (gYear-15 ) < tyear )

  000f1	a1 00 00 00 00	 mov	 eax, DWORD PTR ?gYear@@3HA ; gYear
  000f6	83 e8 0f	 sub	 eax, 15			; 0000000fH
  000f9	3b 45 fc	 cmp	 eax, DWORD PTR _tyear$[ebp]
  000fc	7d 04		 jge	 SHORT $LN1@gJoomin15C

; 768  : 	{
; 769  : 		return 0;

  000fe	33 c0		 xor	 eax, eax
  00100	eb 05		 jmp	 SHORT $LN4@gJoomin15C
$LN1@gJoomin15C:

; 770  : 	}
; 771  : 	return 1;

  00102	b8 01 00 00 00	 mov	 eax, 1
$LN4@gJoomin15C:

; 772  : }

  00107	5f		 pop	 edi
  00108	5e		 pop	 esi
  00109	5b		 pop	 ebx
  0010a	8b e5		 mov	 esp, ebp
  0010c	5d		 pop	 ebp
  0010d	c3		 ret	 0
?gJoomin15Check@@YAHPAD@Z ENDP				; gJoomin15Check
_TEXT	ENDS
PUBLIC	?gJoominCheck@@YAHPADH@Z			; gJoominCheck
; Function compile flags: /Odtp /ZI
_TEXT	SEGMENT
_szTyear$ = -8						; size = 3
_tyear$ = -4						; size = 4
_szJN$ = 8						; size = 4
_iLimitAge$ = 12					; size = 4
?gJoominCheck@@YAHPADH@Z PROC				; gJoominCheck

; 776  : {

  00110	55		 push	 ebp
  00111	8b ec		 mov	 ebp, esp
  00113	83 ec 48	 sub	 esp, 72			; 00000048H
  00116	53		 push	 ebx
  00117	56		 push	 esi
  00118	57		 push	 edi

; 777  : 
; 778  : 	if ( iLimitAge <0 )

  00119	83 7d 0c 00	 cmp	 DWORD PTR _iLimitAge$[ebp], 0
  0011d	7d 07		 jge	 SHORT $LN4@gJoominChe

; 779  : 	{
; 780  : 		return 1;

  0011f	b8 01 00 00 00	 mov	 eax, 1
  00124	eb 6e		 jmp	 SHORT $LN5@gJoominChe
$LN4@gJoominChe:

; 781  : 	}
; 782  : 
; 783  : 	int tyear=1900;

  00126	c7 45 fc 6c 07
	00 00		 mov	 DWORD PTR _tyear$[ebp], 1900 ; 0000076cH

; 784  : 	char szTyear[3]="";

  0012d	a0 00 00 00 00	 mov	 al, BYTE PTR ??_C@_00CNPNBAHC@?$AA@
  00132	88 45 f8	 mov	 BYTE PTR _szTyear$[ebp], al
  00135	33 c0		 xor	 eax, eax
  00137	66 89 45 f9	 mov	 WORD PTR _szTyear$[ebp+1], ax

; 785  : 
; 786  : 	if ( szJN[6] == 51 || szJN[6] == 52)

  0013b	8b 45 08	 mov	 eax, DWORD PTR _szJN$[ebp]
  0013e	0f be 48 06	 movsx	 ecx, BYTE PTR [eax+6]
  00142	83 f9 33	 cmp	 ecx, 51			; 00000033H
  00145	74 0c		 je	 SHORT $LN2@gJoominChe
  00147	8b 45 08	 mov	 eax, DWORD PTR _szJN$[ebp]
  0014a	0f be 48 06	 movsx	 ecx, BYTE PTR [eax+6]
  0014e	83 f9 34	 cmp	 ecx, 52			; 00000034H
  00151	75 07		 jne	 SHORT $LN3@gJoominChe
$LN2@gJoominChe:

; 787  : 	{
; 788  : 		tyear = 2000;

  00153	c7 45 fc d0 07
	00 00		 mov	 DWORD PTR _tyear$[ebp], 2000 ; 000007d0H
$LN3@gJoominChe:

; 789  : 	}
; 790  : 
; 791  : 	memcpy(&szTyear[0], szJN, sizeof(szTyear)-1);

  0015a	6a 02		 push	 2
  0015c	8b 45 08	 mov	 eax, DWORD PTR _szJN$[ebp]
  0015f	50		 push	 eax
  00160	8d 4d f8	 lea	 ecx, DWORD PTR _szTyear$[ebp]
  00163	51		 push	 ecx
  00164	e8 00 00 00 00	 call	 _memcpy
  00169	83 c4 0c	 add	 esp, 12			; 0000000cH

; 792  : 
; 793  : 	tyear=tyear+atoi(&szTyear[0]);

  0016c	8d 45 f8	 lea	 eax, DWORD PTR _szTyear$[ebp]
  0016f	50		 push	 eax
  00170	e8 00 00 00 00	 call	 _atoi
  00175	83 c4 04	 add	 esp, 4
  00178	03 45 fc	 add	 eax, DWORD PTR _tyear$[ebp]
  0017b	89 45 fc	 mov	 DWORD PTR _tyear$[ebp], eax

; 794  : 	if ( (gYear-iLimitAge ) < tyear )

  0017e	a1 00 00 00 00	 mov	 eax, DWORD PTR ?gYear@@3HA ; gYear
  00183	2b 45 0c	 sub	 eax, DWORD PTR _iLimitAge$[ebp]
  00186	3b 45 fc	 cmp	 eax, DWORD PTR _tyear$[ebp]
  00189	7d 04		 jge	 SHORT $LN1@gJoominChe

; 795  : 	{
; 796  : 		return 0;

  0018b	33 c0		 xor	 eax, eax
  0018d	eb 05		 jmp	 SHORT $LN5@gJoominChe
$LN1@gJoominChe:

; 797  : 	}
; 798  : 	
; 799  : 	return 1;

  0018f	b8 01 00 00 00	 mov	 eax, 1
$LN5@gJoominChe:

; 800  : }	

  00194	5f		 pop	 edi
  00195	5e		 pop	 esi
  00196	5b		 pop	 ebx
  00197	8b e5		 mov	 esp, ebp
  00199	5d		 pop	 ebp
  0019a	c3		 ret	 0
?gJoominCheck@@YAHPADH@Z ENDP				; gJoominCheck
_TEXT	ENDS
PUBLIC	??_C@_0BI@PPIBNAME@Other?2ConnectMember?4txt?$AA@ ; `string'
PUBLIC	??_C@_0BB@GLOMBDPI@Other?2Iplist?4dat?$AA@	; `string'
PUBLIC	?GameMonsterAllAdd@@YAXXZ			; GameMonsterAllAdd
PUBLIC	?GameServerInfoSend@@YAXXZ			; GameServerInfoSend
PUBLIC	??_C@_0BO@FLMPMGPG@?4?2Terrains?2terrain40_OPEN?4att?$AA@ ; `string'
PUBLIC	??_C@_0BP@HIAADJM@?4?2Terrains?2terrain40_CLOSE?4att?$AA@ ; `string'
PUBLIC	??_C@_0BN@LJJOFBCH@?4?2Terrains?2terrain35_WAR?4att?$AA@ ; `string'
PUBLIC	??_C@_0CC@PJKLJMEI@?4?2Terrains?2terrain35_OCCUPIED?4at@ ; `string'
PUBLIC	??_C@_0BP@PADOHAJI@?4?2Terrains?2terrain35_PEACE?4att?$AA@ ; `string'
PUBLIC	??_C@_0BJ@PPOPMPHE@?4?2Terrains?2Terrain90?4att?$AA@ ; `string'
PUBLIC	??_C@_0BJ@HOJHJFAI@?4?2Terrains?2Terrain89?4att?$AA@ ; `string'
PUBLIC	??_C@_0BJ@LFMLEGKN@?4?2Terrains?2Terrain88?4att?$AA@ ; `string'
PUBLIC	??_C@_0BJ@EEJNPEHI@?4?2Terrains?2Terrain87?4att?$AA@ ; `string'
PUBLIC	??_C@_0BJ@IPMBCHNN@?4?2Terrains?2Terrain86?4att?$AA@ ; `string'
PUBLIC	??_C@_0BJ@JFFFFHD@?4?2Terrains?2Terrain85?4att?$AA@ ; `string'
PUBLIC	??_C@_0BJ@MCAJIGNG@?4?2Terrains?2Terrain84?4att?$AA@ ; `string'
PUBLIC	??_C@_0BJ@NPAMLGGO@?4?2Terrains?2Terrain83?4att?$AA@ ; `string'
PUBLIC	??_C@_0BJ@BEFAGFML@?4?2Terrains?2Terrain82?4att?$AA@ ; `string'
PUBLIC	??_C@_0BJ@JCMEBHGF@?4?2Terrains?2Terrain81?4att?$AA@ ; `string'
PUBLIC	??_C@_0BJ@FJJIMEMA@?4?2Terrains?2Terrain80?4att?$AA@ ; `string'
PUBLIC	??_C@_0BJ@CJEEMGIH@?4?2Terrains?2Terrain73?4att?$AA@ ; `string'
PUBLIC	??_C@_0BJ@OCBIBFCC@?4?2Terrains?2Terrain72?4att?$AA@ ; `string'
PUBLIC	??_C@_0BJ@GEIMGHIM@?4?2Terrains?2Terrain71?4att?$AA@ ; `string'
PUBLIC	??_C@_0BJ@KPNALECJ@?4?2Terrains?2Terrain70?4att?$AA@ ; `string'
PUBLIC	??_C@_0BJ@COKIOOFF@?4?2Terrains?2Terrain69?4att?$AA@ ; `string'
PUBLIC	??_C@_0BJ@OFPEDNPA@?4?2Terrains?2Terrain68?4att?$AA@ ; `string'
PUBLIC	??_C@_0BJ@BEKCIPCF@?4?2Terrains?2Terrain67?4att?$AA@ ; `string'
PUBLIC	??_C@_0BJ@NPPOFMIA@?4?2Terrains?2Terrain66?4att?$AA@ ; `string'
PUBLIC	??_C@_0BJ@JEAOFGPG@?4?2Terrains?2terrain65?4att?$AA@ ; `string'
PUBLIC	??_C@_0BJ@FPFCIFFD@?4?2Terrains?2terrain64?4att?$AA@ ; `string'
PUBLIC	??_C@_0BJ@IJALGGEO@?4?2Terrains?2terrain62?4att?$AA@ ; `string'
PUBLIC	??_C@_0BJ@NCCEIMBA@?4?2Terrains?2terrain59?4att?$AA@ ; `string'
PUBLIC	??_C@_0BJ@BJHIFPLF@?4?2Terrains?2terrain58?4att?$AA@ ; `string'
PUBLIC	??_C@_0BJ@OICOONGA@?4?2Terrains?2terrain57?4att?$AA@ ; `string'
PUBLIC	??_C@_0BJ@LIODHMND@?4?2Terrains?2terrain52?4att?$AA@ ; `string'
PUBLIC	??_C@_0BJ@IFAFDFHB@?4?2Terrains?2terrain46?4att?$AA@ ; `string'
PUBLIC	??_C@_0BJ@NFMIKEMC@?4?2Terrains?2terrain43?4att?$AA@ ; `string'
PUBLIC	??_C@_0BJ@BOJEHHGH@?4?2Terrains?2terrain42?4att?$AA@ ; `string'
PUBLIC	??_C@_0BJ@JIAAAFMJ@?4?2Terrains?2terrain41?4att?$AA@ ; `string'
PUBLIC	??_C@_0BJ@FDFMNGGM@?4?2Terrains?2terrain40?4att?$AA@ ; `string'
PUBLIC	??_C@_0BJ@LBPELJCK@?4?2Terrains?2terrain39?4att?$AA@ ; `string'
PUBLIC	??_C@_0BJ@HKKIGKIP@?4?2Terrains?2terrain38?4att?$AA@ ; `string'
PUBLIC	??_C@_0BJ@ILPONIFK@?4?2Terrains?2terrain37?4att?$AA@ ; `string'
PUBLIC	??_C@_0BJ@EAKCALPP@?4?2Terrains?2terrain36?4att?$AA@ ; `string'
PUBLIC	??_C@_0BJ@MGDGHJFB@?4?2Terrains?2terrain35?4att?$AA@ ; `string'
PUBLIC	??_C@_0BJ@NGKKKPE@?4?2Terrains?2terrain34?4att?$AA@ ; `string'
PUBLIC	??_C@_0BJ@BAGPJKEM@?4?2Terrains?2terrain33?4att?$AA@ ; `string'
PUBLIC	??_C@_0BJ@NLDDEJOJ@?4?2Terrains?2terrain32?4att?$AA@ ; `string'
PUBLIC	??_C@_0BJ@FNKHDLEH@?4?2Terrains?2terrain31?4att?$AA@ ; `string'
PUBLIC	??_C@_0BJ@GAEBHCOF@?4?2Terrains?2terrain25?4att?$AA@ ; `string'
PUBLIC	??_C@_0BJ@CGGLKIAD@?4?2Terrains?2terrain19?4att?$AA@ ; `string'
PUBLIC	??_C@_0BJ@EMKMFIMA@?4?2Terrains?2terrain12?4att?$AA@ ; `string'
PUBLIC	??_C@_0BJ@MKDICKGO@?4?2Terrains?2terrain11?4att?$AA@ ; `string'
PUBLIC	??_C@_0BJ@BGEPJML@?4?2Terrains?2terrain10?4att?$AA@ ; `string'
PUBLIC	??_C@_0BI@CPJPKBK@?4?2Terrains?2terrain9?4att?$AA@ ; `string'
PUBLIC	??_C@_0BI@MJKFCJLP@?4?2Terrains?2terrain8?4att?$AA@ ; `string'
PUBLIC	??_C@_0BI@DIPDJLGK@?4?2Terrains?2terrain7?4att?$AA@ ; `string'
PUBLIC	??_C@_0BI@PDKPEIMP@?4?2Terrains?2terrain6?4att?$AA@ ; `string'
PUBLIC	??_C@_0BI@HFDLDKGB@?4?2Terrains?2terrain5?4att?$AA@ ; `string'
PUBLIC	??_C@_0BI@LOGHOJME@?4?2Terrains?2terrain4?4att?$AA@ ; `string'
PUBLIC	??_C@_0BI@KDGCNJHM@?4?2Terrains?2terrain3?4att?$AA@ ; `string'
PUBLIC	??_C@_0BI@GIDOAKNJ@?4?2Terrains?2terrain2?4att?$AA@ ; `string'
PUBLIC	??_C@_0BI@OOKKHIHH@?4?2Terrains?2terrain1?4att?$AA@ ; `string'
PUBLIC	??_C@_0CK@CPDKBBDI@?A?V?$MA?G?$CB?$CB?5?D?$LD?$LI?$KP?E?M?5?$LF?$KF?$MA?L?E?M?$LI?$KG?5?$MA?z?$MA?e?G?O?A?v?5@ ; `string'
PUBLIC	??_C@_0BI@FNDPBPBE@UDP?5Socket?5create?5error?$AA@ ; `string'
PUBLIC	??_C@_0BO@HAAAHLCH@?$LM?$KN?$LJ?v?$LK?P?G?R?$MA?L?5?$LA?$KB?$LE?I?G?Q?5?$LM?$KN?$LJ?v?$MA?T?$LE?O?$LE?Y?4?$AA@ ; `string'
PUBLIC	??_C@_07KGMMFLDN@Warning?$AA@			; `string'
PUBLIC	?SetDataLoadState@CCastleSiege@@QAEXH@Z		; CCastleSiege::SetDataLoadState
PUBLIC	??_C@_0BB@IGLHFEOF@commonserver?4cfg?$AA@	; `string'
PUBLIC	??_C@_0BK@COKJOEKN@?4?2Events?2MuCastleData?4dat?$AA@ ; `string'
PUBLIC	?GetMapSvrGroup@CMapServerManager@@QAEHXZ	; CMapServerManager::GetMapSvrGroup
PUBLIC	??_C@_0BI@GIPPDGKI@Other?2MapServerInfo?4dat?$AA@ ; `string'
PUBLIC	?ReadCommonServerInfo@@YAXXZ			; ReadCommonServerInfo
PUBLIC	??_C@_0P@CNKMNCA@AttackEvent?5?$CFs?$AA@	; `string'
PUBLIC	??_C@_0BA@FPGHNLAN@CDragonEvent?5?$CFs?$AA@	; `string'
PUBLIC	??_C@_08NAJBNDME@?4?4?2Data?2?$AA@		; `string'
PUBLIC	??_C@_0BD@ILOJPBHI@c?3?2Muproject?2data?2?$AA@	; `string'
PUBLIC	?ReadServerInfo@@YAXXZ				; ReadServerInfo
PUBLIC	__$ArrayPad$
PUBLIC	?GameMainInit@@YAXPAUHWND__@@@Z			; GameMainInit
EXTRN	??3@YAXPAX@Z:PROC				; operator delete
EXTRN	?LoadRewardItem@CImperial@@QAEXXZ:PROC		; CImperial::LoadRewardItem
EXTRN	?g_Imperial@@3VCImperial@@A:BYTE		; g_Imperial
EXTRN	?Load@cGoldenArcher@@QAEXXZ:PROC		; cGoldenArcher::Load
EXTRN	?GoldenArcher@@3VcGoldenArcher@@A:BYTE		; GoldenArcher
EXTRN	?Init@CMossMerchant@@QAEXXZ:PROC		; CMossMerchant::Init
EXTRN	?gMossMerchant@@3VCMossMerchant@@A:BYTE		; gMossMerchant
EXTRN	?SetState@CRaklion@@QAEXH@Z:PROC		; CRaklion::SetState
EXTRN	?g_Raklion@@3VCRaklion@@A:BYTE			; g_Raklion
EXTRN	?GCTeleportSend@@YAXPAUOBJECTSTRUCT@@HEEEE@Z:PROC ; GCTeleportSend
EXTRN	?gObj@@3PAUOBJECTSTRUCT@@A:DWORD		; gObj
EXTRN	?Load@CConMember@@QAEXPAD@Z:PROC		; CConMember::Load
EXTRN	?ConMember@@3VCConMember@@A:BYTE		; ConMember
EXTRN	?Load@CAcceptIp@@QAEXPAD@Z:PROC			; CAcceptIp::Load
EXTRN	?acceptIP@@3VCAcceptIp@@A:BYTE			; acceptIP
EXTRN	?CreateSocket@MyWinsockBase@@QAEHPAUHWND__@@@Z:PROC ; MyWinsockBase::CreateSocket
EXTRN	?ShopDataLoad@@YAHXZ:PROC			; ShopDataLoad
EXTRN	?Init@classdef@@QAEXXZ:PROC			; classdef::Init
EXTRN	?LoadKanturuMapAttr@CKanturu@@QAEXPADE@Z:PROC	; CKanturu::LoadKanturuMapAttr
EXTRN	?g_Kanturu@@3VCKanturu@@A:BYTE			; g_Kanturu
EXTRN	?LoadCrywolfMapAttr@CCrywolf@@QAEXPADH@Z:PROC	; CCrywolf::LoadCrywolfMapAttr
EXTRN	?g_Crywolf@@3VCCrywolf@@A:BYTE			; g_Crywolf
EXTRN	?LoadMapAttr@MapClass@@QAEXPADH@Z:PROC		; MapClass::LoadMapAttr
EXTRN	?ItemInit@MapClass@@QAEXXZ:PROC			; MapClass::ItemInit
EXTRN	?SetExperienceTable@CMasterLevelSystem@@QAEXXZ:PROC ; CMasterLevelSystem::SetExperienceTable
EXTRN	?g_MasterLevelSystem@@3VCMasterLevelSystem@@A:BYTE ; g_MasterLevelSystem
EXTRN	?Init@CMonsterItemMng@@QAEXXZ:PROC		; CMonsterItemMng::Init
EXTRN	?g_MonsterItemMng@@3VCMonsterItemMng@@A:BYTE	; g_MonsterItemMng
EXTRN	?LoadSetBase@CMonsterSetBase@@QAEXPADH@Z:PROC	; CMonsterSetBase::LoadSetBase
EXTRN	?LoadAttr@CMonsterAttr@@QAEXPADH@Z:PROC		; CMonsterAttr::LoadAttr
EXTRN	?GetDataBuffer@WzAG@@QAEPADXZ:PROC		; WzAG::GetDataBuffer
EXTRN	?GetDataBufferSize@WzAG@@QAEHXZ:PROC		; WzAG::GetDataBufferSize
EXTRN	?RequestData@WzAG@@QAEXH@Z:PROC			; WzAG::RequestData
EXTRN	?InitBattleSoccer@@YAXXZ:PROC			; InitBattleSoccer
EXTRN	?gObjInit@@YAXXZ:PROC				; gObjInit
EXTRN	?CreateSocket@WzUdp@@QAEHXZ:PROC		; WzUdp::CreateSocket
EXTRN	__imp__MessageBoxA@16:PROC
EXTRN	?LoadPreFixData@CCastleSiege@@QAEHPAD@Z:PROC	; CCastleSiege::LoadPreFixData
EXTRN	?LoadData@CCastleSiege@@QAEHPAD@Z:PROC		; CCastleSiege::LoadData
EXTRN	?Ready@CCastleSiege@@QAEHH@Z:PROC		; CCastleSiege::Ready
EXTRN	?g_CastleSiege@@3VCCastleSiege@@A:BYTE		; g_CastleSiege
EXTRN	?LoadData@CMapServerManager@@QAEHPAD@Z:PROC	; CMapServerManager::LoadData
EXTRN	?g_MapServerManager@@3VCMapServerManager@@A:BYTE ; g_MapServerManager
EXTRN	?GetNewPath@CDirPath@@QAEPADPAD@Z:PROC		; CDirPath::GetNewPath
EXTRN	??0CAttackEvent@@QAE@XZ:PROC			; CAttackEvent::CAttackEvent
EXTRN	?MsgBox@@YAXPADZZ:PROC				; MsgBox
EXTRN	?Get@CMsg@@QAEPADH@Z:PROC			; CMsg::Get
EXTRN	??0CDragonEvent@@QAE@XZ:PROC			; CDragonEvent::CDragonEvent
EXTRN	??2@YAPAXI@Z:PROC				; operator new
EXTRN	?GetKey@WzAG@@QAEXPADHH@Z:PROC			; WzAG::GetKey
EXTRN	?SetInfo@WzAG@@QAE_NHEFPAD0HP6AXHH@Z@Z:PROC	; WzAG::SetInfo
EXTRN	?gWzAG@@3VWzAG@@A:BYTE				; gWzAG
EXTRN	?GameServerAuthCallBackFunc@@YAXHH@Z:PROC	; GameServerAuthCallBackFunc
EXTRN	?SetFirstPath@CDirPath@@QAEXPAD@Z:PROC		; CDirPath::SetFirstPath
EXTRN	?LogInit@@YAXH@Z:PROC				; LogInit
EXTRN	_srand:PROC
EXTRN	___security_cookie:DWORD
EXTRN	___CxxFrameHandler3:PROC
EXTRN	@__security_check_cookie@4:PROC
;	COMDAT ??_C@_0BI@PPIBNAME@Other?2ConnectMember?4txt?$AA@
CONST	SEGMENT
??_C@_0BI@PPIBNAME@Other?2ConnectMember?4txt?$AA@ DB 'Other\ConnectMember'
	DB	'.txt', 00H					; `string'
CONST	ENDS
;	COMDAT ??_C@_0BB@GLOMBDPI@Other?2Iplist?4dat?$AA@
CONST	SEGMENT
??_C@_0BB@GLOMBDPI@Other?2Iplist?4dat?$AA@ DB 'Other\Iplist.dat', 00H ; `string'
CONST	ENDS
;	COMDAT ??_C@_0BO@FLMPMGPG@?4?2Terrains?2terrain40_OPEN?4att?$AA@
CONST	SEGMENT
??_C@_0BO@FLMPMGPG@?4?2Terrains?2terrain40_OPEN?4att?$AA@ DB '.\Terrains\'
	DB	'terrain40_OPEN.att', 00H			; `string'
CONST	ENDS
;	COMDAT ??_C@_0BP@HIAADJM@?4?2Terrains?2terrain40_CLOSE?4att?$AA@
CONST	SEGMENT
??_C@_0BP@HIAADJM@?4?2Terrains?2terrain40_CLOSE?4att?$AA@ DB '.\Terrains\'
	DB	'terrain40_CLOSE.att', 00H			; `string'
CONST	ENDS
;	COMDAT ??_C@_0BN@LJJOFBCH@?4?2Terrains?2terrain35_WAR?4att?$AA@
CONST	SEGMENT
??_C@_0BN@LJJOFBCH@?4?2Terrains?2terrain35_WAR?4att?$AA@ DB '.\Terrains\t'
	DB	'errain35_WAR.att', 00H			; `string'
CONST	ENDS
;	COMDAT ??_C@_0CC@PJKLJMEI@?4?2Terrains?2terrain35_OCCUPIED?4at@
CONST	SEGMENT
??_C@_0CC@PJKLJMEI@?4?2Terrains?2terrain35_OCCUPIED?4at@ DB '.\Terrains\t'
	DB	'errain35_OCCUPIED.att', 00H			; `string'
CONST	ENDS
;	COMDAT ??_C@_0BP@PADOHAJI@?4?2Terrains?2terrain35_PEACE?4att?$AA@
CONST	SEGMENT
??_C@_0BP@PADOHAJI@?4?2Terrains?2terrain35_PEACE?4att?$AA@ DB '.\Terrains'
	DB	'\terrain35_PEACE.att', 00H			; `string'
CONST	ENDS
;	COMDAT ??_C@_0BJ@PPOPMPHE@?4?2Terrains?2Terrain90?4att?$AA@
CONST	SEGMENT
??_C@_0BJ@PPOPMPHE@?4?2Terrains?2Terrain90?4att?$AA@ DB '.\Terrains\Terra'
	DB	'in90.att', 00H				; `string'
CONST	ENDS
;	COMDAT ??_C@_0BJ@HOJHJFAI@?4?2Terrains?2Terrain89?4att?$AA@
CONST	SEGMENT
??_C@_0BJ@HOJHJFAI@?4?2Terrains?2Terrain89?4att?$AA@ DB '.\Terrains\Terra'
	DB	'in89.att', 00H				; `string'
CONST	ENDS
;	COMDAT ??_C@_0BJ@LFMLEGKN@?4?2Terrains?2Terrain88?4att?$AA@
CONST	SEGMENT
??_C@_0BJ@LFMLEGKN@?4?2Terrains?2Terrain88?4att?$AA@ DB '.\Terrains\Terra'
	DB	'in88.att', 00H				; `string'
CONST	ENDS
;	COMDAT ??_C@_0BJ@EEJNPEHI@?4?2Terrains?2Terrain87?4att?$AA@
CONST	SEGMENT
??_C@_0BJ@EEJNPEHI@?4?2Terrains?2Terrain87?4att?$AA@ DB '.\Terrains\Terra'
	DB	'in87.att', 00H				; `string'
CONST	ENDS
;	COMDAT ??_C@_0BJ@IPMBCHNN@?4?2Terrains?2Terrain86?4att?$AA@
CONST	SEGMENT
??_C@_0BJ@IPMBCHNN@?4?2Terrains?2Terrain86?4att?$AA@ DB '.\Terrains\Terra'
	DB	'in86.att', 00H				; `string'
CONST	ENDS
;	COMDAT ??_C@_0BJ@JFFFFHD@?4?2Terrains?2Terrain85?4att?$AA@
CONST	SEGMENT
??_C@_0BJ@JFFFFHD@?4?2Terrains?2Terrain85?4att?$AA@ DB '.\Terrains\Terrai'
	DB	'n85.att', 00H				; `string'
CONST	ENDS
;	COMDAT ??_C@_0BJ@MCAJIGNG@?4?2Terrains?2Terrain84?4att?$AA@
CONST	SEGMENT
??_C@_0BJ@MCAJIGNG@?4?2Terrains?2Terrain84?4att?$AA@ DB '.\Terrains\Terra'
	DB	'in84.att', 00H				; `string'
CONST	ENDS
;	COMDAT ??_C@_0BJ@NPAMLGGO@?4?2Terrains?2Terrain83?4att?$AA@
CONST	SEGMENT
??_C@_0BJ@NPAMLGGO@?4?2Terrains?2Terrain83?4att?$AA@ DB '.\Terrains\Terra'
	DB	'in83.att', 00H				; `string'
CONST	ENDS
;	COMDAT ??_C@_0BJ@BEFAGFML@?4?2Terrains?2Terrain82?4att?$AA@
CONST	SEGMENT
??_C@_0BJ@BEFAGFML@?4?2Terrains?2Terrain82?4att?$AA@ DB '.\Terrains\Terra'
	DB	'in82.att', 00H				; `string'
CONST	ENDS
;	COMDAT ??_C@_0BJ@JCMEBHGF@?4?2Terrains?2Terrain81?4att?$AA@
CONST	SEGMENT
??_C@_0BJ@JCMEBHGF@?4?2Terrains?2Terrain81?4att?$AA@ DB '.\Terrains\Terra'
	DB	'in81.att', 00H				; `string'
CONST	ENDS
;	COMDAT ??_C@_0BJ@FJJIMEMA@?4?2Terrains?2Terrain80?4att?$AA@
CONST	SEGMENT
??_C@_0BJ@FJJIMEMA@?4?2Terrains?2Terrain80?4att?$AA@ DB '.\Terrains\Terra'
	DB	'in80.att', 00H				; `string'
CONST	ENDS
;	COMDAT ??_C@_0BJ@CJEEMGIH@?4?2Terrains?2Terrain73?4att?$AA@
CONST	SEGMENT
??_C@_0BJ@CJEEMGIH@?4?2Terrains?2Terrain73?4att?$AA@ DB '.\Terrains\Terra'
	DB	'in73.att', 00H				; `string'
CONST	ENDS
;	COMDAT ??_C@_0BJ@OCBIBFCC@?4?2Terrains?2Terrain72?4att?$AA@
CONST	SEGMENT
??_C@_0BJ@OCBIBFCC@?4?2Terrains?2Terrain72?4att?$AA@ DB '.\Terrains\Terra'
	DB	'in72.att', 00H				; `string'
CONST	ENDS
;	COMDAT ??_C@_0BJ@GEIMGHIM@?4?2Terrains?2Terrain71?4att?$AA@
CONST	SEGMENT
??_C@_0BJ@GEIMGHIM@?4?2Terrains?2Terrain71?4att?$AA@ DB '.\Terrains\Terra'
	DB	'in71.att', 00H				; `string'
CONST	ENDS
;	COMDAT ??_C@_0BJ@KPNALECJ@?4?2Terrains?2Terrain70?4att?$AA@
CONST	SEGMENT
??_C@_0BJ@KPNALECJ@?4?2Terrains?2Terrain70?4att?$AA@ DB '.\Terrains\Terra'
	DB	'in70.att', 00H				; `string'
CONST	ENDS
;	COMDAT ??_C@_0BJ@COKIOOFF@?4?2Terrains?2Terrain69?4att?$AA@
CONST	SEGMENT
??_C@_0BJ@COKIOOFF@?4?2Terrains?2Terrain69?4att?$AA@ DB '.\Terrains\Terra'
	DB	'in69.att', 00H				; `string'
CONST	ENDS
;	COMDAT ??_C@_0BJ@OFPEDNPA@?4?2Terrains?2Terrain68?4att?$AA@
CONST	SEGMENT
??_C@_0BJ@OFPEDNPA@?4?2Terrains?2Terrain68?4att?$AA@ DB '.\Terrains\Terra'
	DB	'in68.att', 00H				; `string'
CONST	ENDS
;	COMDAT ??_C@_0BJ@BEKCIPCF@?4?2Terrains?2Terrain67?4att?$AA@
CONST	SEGMENT
??_C@_0BJ@BEKCIPCF@?4?2Terrains?2Terrain67?4att?$AA@ DB '.\Terrains\Terra'
	DB	'in67.att', 00H				; `string'
CONST	ENDS
;	COMDAT ??_C@_0BJ@NPPOFMIA@?4?2Terrains?2Terrain66?4att?$AA@
CONST	SEGMENT
??_C@_0BJ@NPPOFMIA@?4?2Terrains?2Terrain66?4att?$AA@ DB '.\Terrains\Terra'
	DB	'in66.att', 00H				; `string'
CONST	ENDS
;	COMDAT ??_C@_0BJ@JEAOFGPG@?4?2Terrains?2terrain65?4att?$AA@
CONST	SEGMENT
??_C@_0BJ@JEAOFGPG@?4?2Terrains?2terrain65?4att?$AA@ DB '.\Terrains\terra'
	DB	'in65.att', 00H				; `string'
CONST	ENDS
;	COMDAT ??_C@_0BJ@FPFCIFFD@?4?2Terrains?2terrain64?4att?$AA@
CONST	SEGMENT
??_C@_0BJ@FPFCIFFD@?4?2Terrains?2terrain64?4att?$AA@ DB '.\Terrains\terra'
	DB	'in64.att', 00H				; `string'
CONST	ENDS
;	COMDAT ??_C@_0BJ@IJALGGEO@?4?2Terrains?2terrain62?4att?$AA@
CONST	SEGMENT
??_C@_0BJ@IJALGGEO@?4?2Terrains?2terrain62?4att?$AA@ DB '.\Terrains\terra'
	DB	'in62.att', 00H				; `string'
CONST	ENDS
;	COMDAT ??_C@_0BJ@NCCEIMBA@?4?2Terrains?2terrain59?4att?$AA@
CONST	SEGMENT
??_C@_0BJ@NCCEIMBA@?4?2Terrains?2terrain59?4att?$AA@ DB '.\Terrains\terra'
	DB	'in59.att', 00H				; `string'
CONST	ENDS
;	COMDAT ??_C@_0BJ@BJHIFPLF@?4?2Terrains?2terrain58?4att?$AA@
CONST	SEGMENT
??_C@_0BJ@BJHIFPLF@?4?2Terrains?2terrain58?4att?$AA@ DB '.\Terrains\terra'
	DB	'in58.att', 00H				; `string'
CONST	ENDS
;	COMDAT ??_C@_0BJ@OICOONGA@?4?2Terrains?2terrain57?4att?$AA@
CONST	SEGMENT
??_C@_0BJ@OICOONGA@?4?2Terrains?2terrain57?4att?$AA@ DB '.\Terrains\terra'
	DB	'in57.att', 00H				; `string'
CONST	ENDS
;	COMDAT ??_C@_0BJ@LIODHMND@?4?2Terrains?2terrain52?4att?$AA@
CONST	SEGMENT
??_C@_0BJ@LIODHMND@?4?2Terrains?2terrain52?4att?$AA@ DB '.\Terrains\terra'
	DB	'in52.att', 00H				; `string'
CONST	ENDS
;	COMDAT ??_C@_0BJ@IFAFDFHB@?4?2Terrains?2terrain46?4att?$AA@
CONST	SEGMENT
??_C@_0BJ@IFAFDFHB@?4?2Terrains?2terrain46?4att?$AA@ DB '.\Terrains\terra'
	DB	'in46.att', 00H				; `string'
CONST	ENDS
;	COMDAT ??_C@_0BJ@NFMIKEMC@?4?2Terrains?2terrain43?4att?$AA@
CONST	SEGMENT
??_C@_0BJ@NFMIKEMC@?4?2Terrains?2terrain43?4att?$AA@ DB '.\Terrains\terra'
	DB	'in43.att', 00H				; `string'
CONST	ENDS
;	COMDAT ??_C@_0BJ@BOJEHHGH@?4?2Terrains?2terrain42?4att?$AA@
CONST	SEGMENT
??_C@_0BJ@BOJEHHGH@?4?2Terrains?2terrain42?4att?$AA@ DB '.\Terrains\terra'
	DB	'in42.att', 00H				; `string'
CONST	ENDS
;	COMDAT ??_C@_0BJ@JIAAAFMJ@?4?2Terrains?2terrain41?4att?$AA@
CONST	SEGMENT
??_C@_0BJ@JIAAAFMJ@?4?2Terrains?2terrain41?4att?$AA@ DB '.\Terrains\terra'
	DB	'in41.att', 00H				; `string'
CONST	ENDS
;	COMDAT ??_C@_0BJ@FDFMNGGM@?4?2Terrains?2terrain40?4att?$AA@
CONST	SEGMENT
??_C@_0BJ@FDFMNGGM@?4?2Terrains?2terrain40?4att?$AA@ DB '.\Terrains\terra'
	DB	'in40.att', 00H				; `string'
CONST	ENDS
;	COMDAT ??_C@_0BJ@LBPELJCK@?4?2Terrains?2terrain39?4att?$AA@
CONST	SEGMENT
??_C@_0BJ@LBPELJCK@?4?2Terrains?2terrain39?4att?$AA@ DB '.\Terrains\terra'
	DB	'in39.att', 00H				; `string'
CONST	ENDS
;	COMDAT ??_C@_0BJ@HKKIGKIP@?4?2Terrains?2terrain38?4att?$AA@
CONST	SEGMENT
??_C@_0BJ@HKKIGKIP@?4?2Terrains?2terrain38?4att?$AA@ DB '.\Terrains\terra'
	DB	'in38.att', 00H				; `string'
CONST	ENDS
;	COMDAT ??_C@_0BJ@ILPONIFK@?4?2Terrains?2terrain37?4att?$AA@
CONST	SEGMENT
??_C@_0BJ@ILPONIFK@?4?2Terrains?2terrain37?4att?$AA@ DB '.\Terrains\terra'
	DB	'in37.att', 00H				; `string'
CONST	ENDS
;	COMDAT ??_C@_0BJ@EAKCALPP@?4?2Terrains?2terrain36?4att?$AA@
CONST	SEGMENT
??_C@_0BJ@EAKCALPP@?4?2Terrains?2terrain36?4att?$AA@ DB '.\Terrains\terra'
	DB	'in36.att', 00H				; `string'
CONST	ENDS
;	COMDAT ??_C@_0BJ@MGDGHJFB@?4?2Terrains?2terrain35?4att?$AA@
CONST	SEGMENT
??_C@_0BJ@MGDGHJFB@?4?2Terrains?2terrain35?4att?$AA@ DB '.\Terrains\terra'
	DB	'in35.att', 00H				; `string'
CONST	ENDS
;	COMDAT ??_C@_0BJ@NGKKKPE@?4?2Terrains?2terrain34?4att?$AA@
CONST	SEGMENT
??_C@_0BJ@NGKKKPE@?4?2Terrains?2terrain34?4att?$AA@ DB '.\Terrains\terrai'
	DB	'n34.att', 00H				; `string'
CONST	ENDS
;	COMDAT ??_C@_0BJ@BAGPJKEM@?4?2Terrains?2terrain33?4att?$AA@
CONST	SEGMENT
??_C@_0BJ@BAGPJKEM@?4?2Terrains?2terrain33?4att?$AA@ DB '.\Terrains\terra'
	DB	'in33.att', 00H				; `string'
CONST	ENDS
;	COMDAT ??_C@_0BJ@NLDDEJOJ@?4?2Terrains?2terrain32?4att?$AA@
CONST	SEGMENT
??_C@_0BJ@NLDDEJOJ@?4?2Terrains?2terrain32?4att?$AA@ DB '.\Terrains\terra'
	DB	'in32.att', 00H				; `string'
CONST	ENDS
;	COMDAT ??_C@_0BJ@FNKHDLEH@?4?2Terrains?2terrain31?4att?$AA@
CONST	SEGMENT
??_C@_0BJ@FNKHDLEH@?4?2Terrains?2terrain31?4att?$AA@ DB '.\Terrains\terra'
	DB	'in31.att', 00H				; `string'
CONST	ENDS
;	COMDAT ??_C@_0BJ@GAEBHCOF@?4?2Terrains?2terrain25?4att?$AA@
CONST	SEGMENT
??_C@_0BJ@GAEBHCOF@?4?2Terrains?2terrain25?4att?$AA@ DB '.\Terrains\terra'
	DB	'in25.att', 00H				; `string'
CONST	ENDS
;	COMDAT ??_C@_0BJ@CGGLKIAD@?4?2Terrains?2terrain19?4att?$AA@
CONST	SEGMENT
??_C@_0BJ@CGGLKIAD@?4?2Terrains?2terrain19?4att?$AA@ DB '.\Terrains\terra'
	DB	'in19.att', 00H				; `string'
CONST	ENDS
;	COMDAT ??_C@_0BJ@EMKMFIMA@?4?2Terrains?2terrain12?4att?$AA@
CONST	SEGMENT
??_C@_0BJ@EMKMFIMA@?4?2Terrains?2terrain12?4att?$AA@ DB '.\Terrains\terra'
	DB	'in12.att', 00H				; `string'
CONST	ENDS
;	COMDAT ??_C@_0BJ@MKDICKGO@?4?2Terrains?2terrain11?4att?$AA@
CONST	SEGMENT
??_C@_0BJ@MKDICKGO@?4?2Terrains?2terrain11?4att?$AA@ DB '.\Terrains\terra'
	DB	'in11.att', 00H				; `string'
CONST	ENDS
;	COMDAT ??_C@_0BJ@BGEPJML@?4?2Terrains?2terrain10?4att?$AA@
CONST	SEGMENT
??_C@_0BJ@BGEPJML@?4?2Terrains?2terrain10?4att?$AA@ DB '.\Terrains\terrai'
	DB	'n10.att', 00H				; `string'
CONST	ENDS
;	COMDAT ??_C@_0BI@CPJPKBK@?4?2Terrains?2terrain9?4att?$AA@
CONST	SEGMENT
??_C@_0BI@CPJPKBK@?4?2Terrains?2terrain9?4att?$AA@ DB '.\Terrains\terrain'
	DB	'9.att', 00H					; `string'
CONST	ENDS
;	COMDAT ??_C@_0BI@MJKFCJLP@?4?2Terrains?2terrain8?4att?$AA@
CONST	SEGMENT
??_C@_0BI@MJKFCJLP@?4?2Terrains?2terrain8?4att?$AA@ DB '.\Terrains\terrai'
	DB	'n8.att', 00H				; `string'
CONST	ENDS
;	COMDAT ??_C@_0BI@DIPDJLGK@?4?2Terrains?2terrain7?4att?$AA@
CONST	SEGMENT
??_C@_0BI@DIPDJLGK@?4?2Terrains?2terrain7?4att?$AA@ DB '.\Terrains\terrai'
	DB	'n7.att', 00H				; `string'
CONST	ENDS
;	COMDAT ??_C@_0BI@PDKPEIMP@?4?2Terrains?2terrain6?4att?$AA@
CONST	SEGMENT
??_C@_0BI@PDKPEIMP@?4?2Terrains?2terrain6?4att?$AA@ DB '.\Terrains\terrai'
	DB	'n6.att', 00H				; `string'
CONST	ENDS
;	COMDAT ??_C@_0BI@HFDLDKGB@?4?2Terrains?2terrain5?4att?$AA@
CONST	SEGMENT
??_C@_0BI@HFDLDKGB@?4?2Terrains?2terrain5?4att?$AA@ DB '.\Terrains\terrai'
	DB	'n5.att', 00H				; `string'
CONST	ENDS
;	COMDAT ??_C@_0BI@LOGHOJME@?4?2Terrains?2terrain4?4att?$AA@
CONST	SEGMENT
??_C@_0BI@LOGHOJME@?4?2Terrains?2terrain4?4att?$AA@ DB '.\Terrains\terrai'
	DB	'n4.att', 00H				; `string'
CONST	ENDS
;	COMDAT ??_C@_0BI@KDGCNJHM@?4?2Terrains?2terrain3?4att?$AA@
CONST	SEGMENT
??_C@_0BI@KDGCNJHM@?4?2Terrains?2terrain3?4att?$AA@ DB '.\Terrains\terrai'
	DB	'n3.att', 00H				; `string'
CONST	ENDS
;	COMDAT ??_C@_0BI@GIDOAKNJ@?4?2Terrains?2terrain2?4att?$AA@
CONST	SEGMENT
??_C@_0BI@GIDOAKNJ@?4?2Terrains?2terrain2?4att?$AA@ DB '.\Terrains\terrai'
	DB	'n2.att', 00H				; `string'
CONST	ENDS
;	COMDAT ??_C@_0BI@OOKKHIHH@?4?2Terrains?2terrain1?4att?$AA@
CONST	SEGMENT
??_C@_0BI@OOKKHIHH@?4?2Terrains?2terrain1?4att?$AA@ DB '.\Terrains\terrai'
	DB	'n1.att', 00H				; `string'
CONST	ENDS
;	COMDAT ??_C@_0CK@CPDKBBDI@?A?V?$MA?G?$CB?$CB?5?D?$LD?$LI?$KP?E?M?5?$LF?$KF?$MA?L?E?M?$LI?$KG?5?$MA?z?$MA?e?G?O?A?v?5@
CONST	SEGMENT
??_C@_0CK@CPDKBBDI@?A?V?$MA?G?$CB?$CB?5?D?$LD?$LI?$KP?E?M?5?$LF?$KF?$MA?L?E?M?$LI?$KG?5?$MA?z?$MA?e?G?O?A?v?5@ DB 0c1H
	DB	0d6H, 0c0H, 0c7H, '!! ', 0c4H, 0b3H, 0b8H, 0afH, 0c5H, 0cdH, ' '
	DB	0b5H, 0a5H, 0c0H, 0ccH, 0c5H, 0cdH, 0b8H, 0a6H, ' ', 0c0H, 0faH
	DB	0c0H, 0e5H, 0c7H, 0cfH, 0c1H, 0f6H, ' ', 0beH, 0caH, 0bdH, 0c0H
	DB	0b4H, 0cfH, 0b4H, 0d9H, '.', 00H		; `string'
CONST	ENDS
;	COMDAT ??_C@_0BI@FNDPBPBE@UDP?5Socket?5create?5error?$AA@
CONST	SEGMENT
??_C@_0BI@FNDPBPBE@UDP?5Socket?5create?5error?$AA@ DB 'UDP Socket create '
	DB	'error', 00H					; `string'
CONST	ENDS
;	COMDAT ??_C@_0BO@HAAAHLCH@?$LM?$KN?$LJ?v?$LK?P?G?R?$MA?L?5?$LA?$KB?$LE?I?G?Q?5?$LM?$KN?$LJ?v?$MA?T?$LE?O?$LE?Y?4?$AA@
CONST	SEGMENT
??_C@_0BO@HAAAHLCH@?$LM?$KN?$LJ?v?$LK?P?G?R?$MA?L?5?$LA?$KB?$LE?I?G?Q?5?$LM?$KN?$LJ?v?$MA?T?$LE?O?$LE?Y?4?$AA@ DB 0bcH
	DB	0adH, 0b9H, 0f6H, 0baH, 0d0H, 0c7H, 0d2H, 0c0H, 0ccH, ' ', 0b0H
	DB	0a1H, 0b4H, 0c9H, 0c7H, 0d1H, ' ', 0bcH, 0adH, 0b9H, 0f6H, 0c0H
	DB	0d4H, 0b4H, 0cfH, 0b4H, 0d9H, '.', 00H	; `string'
CONST	ENDS
;	COMDAT ??_C@_07KGMMFLDN@Warning?$AA@
CONST	SEGMENT
??_C@_07KGMMFLDN@Warning?$AA@ DB 'Warning', 00H		; `string'
CONST	ENDS
;	COMDAT ??_C@_0BB@IGLHFEOF@commonserver?4cfg?$AA@
CONST	SEGMENT
??_C@_0BB@IGLHFEOF@commonserver?4cfg?$AA@ DB 'commonserver.cfg', 00H ; `string'
CONST	ENDS
;	COMDAT ??_C@_0BK@COKJOEKN@?4?2Events?2MuCastleData?4dat?$AA@
CONST	SEGMENT
??_C@_0BK@COKJOEKN@?4?2Events?2MuCastleData?4dat?$AA@ DB '.\Events\MuCast'
	DB	'leData.dat', 00H				; `string'
CONST	ENDS
;	COMDAT ??_C@_0BI@GIPPDGKI@Other?2MapServerInfo?4dat?$AA@
CONST	SEGMENT
??_C@_0BI@GIPPDGKI@Other?2MapServerInfo?4dat?$AA@ DB 'Other\MapServerInfo'
	DB	'.dat', 00H					; `string'
CONST	ENDS
;	COMDAT ??_C@_0P@CNKMNCA@AttackEvent?5?$CFs?$AA@
CONST	SEGMENT
??_C@_0P@CNKMNCA@AttackEvent?5?$CFs?$AA@ DB 'AttackEvent %s', 00H ; `string'
CONST	ENDS
;	COMDAT ??_C@_0BA@FPGHNLAN@CDragonEvent?5?$CFs?$AA@
CONST	SEGMENT
??_C@_0BA@FPGHNLAN@CDragonEvent?5?$CFs?$AA@ DB 'CDragonEvent %s', 00H ; `string'
CONST	ENDS
;	COMDAT ??_C@_08NAJBNDME@?4?4?2Data?2?$AA@
CONST	SEGMENT
??_C@_08NAJBNDME@?4?4?2Data?2?$AA@ DB '..\Data\', 00H	; `string'
CONST	ENDS
;	COMDAT ??_C@_0BD@ILOJPBHI@c?3?2Muproject?2data?2?$AA@
CONST	SEGMENT
??_C@_0BD@ILOJPBHI@c?3?2Muproject?2data?2?$AA@ DB 'c:\Muproject\data\', 00H ; `string'
CONST	ENDS
xdata$x	SEGMENT
__unwindtable$?GameMainInit@@YAXPAUHWND__@@@Z DD 0ffffffffH
	DD	FLAT:__unwindfunclet$?GameMainInit@@YAXPAUHWND__@@@Z$0
	DD	0ffffffffH
	DD	FLAT:__unwindfunclet$?GameMainInit@@YAXPAUHWND__@@@Z$1
__ehfuncinfo$?GameMainInit@@YAXPAUHWND__@@@Z DD 019930522H
	DD	02H
	DD	FLAT:__unwindtable$?GameMainInit@@YAXPAUHWND__@@@Z
	DD	2 DUP(00H)
	DD	2 DUP(00H)
	DD	00H
	DD	01H
; Function compile flags: /Odtp /ZI
xdata$x	ENDS
_TEXT	SEGMENT
tv137 = -3356						; size = 4
tv92 = -3356						; size = 4
$T266012 = -3352					; size = 4
$T266013 = -3348					; size = 4
$T266016 = -3344					; size = 4
$T266017 = -3340					; size = 4
_MapAttrName$ = -3272					; size = 3240
_LevelOver_N$ = -32					; size = 4
_DataBuffer$ = -28					; size = 4
_DataBufferSize$ = -24					; size = 4
_n$ = -20						; size = 4
__$ArrayPad$ = -16					; size = 4
__$EHRec$ = -12						; size = 12
_hWnd$ = 8						; size = 4
?GameMainInit@@YAXPAUHWND__@@@Z PROC			; GameMainInit

; 804  : {

  001a0	55		 push	 ebp
  001a1	8b ec		 mov	 ebp, esp
  001a3	6a ff		 push	 -1
  001a5	68 00 00 00 00	 push	 __ehhandler$?GameMainInit@@YAXPAUHWND__@@@Z
  001aa	64 a1 00 00 00
	00		 mov	 eax, DWORD PTR fs:0
  001b0	50		 push	 eax
  001b1	81 ec 10 0d 00
	00		 sub	 esp, 3344		; 00000d10H
  001b7	a1 00 00 00 00	 mov	 eax, DWORD PTR ___security_cookie
  001bc	33 c5		 xor	 eax, ebp
  001be	89 45 f0	 mov	 DWORD PTR __$ArrayPad$[ebp], eax
  001c1	53		 push	 ebx
  001c2	56		 push	 esi
  001c3	57		 push	 edi
  001c4	50		 push	 eax
  001c5	8d 45 f4	 lea	 eax, DWORD PTR __$EHRec$[ebp]
  001c8	64 a3 00 00 00
	00		 mov	 DWORD PTR fs:0, eax

; 805  : 
; 806  : 	int n;
; 807  : 	int DataBufferSize;
; 808  : 	char* DataBuffer;
; 809  : 	int LevelOver_N;
; 810  : 	
; 811  : 	srand(time(NULL));

  001ce	6a 00		 push	 0
  001d0	e8 00 00 00 00	 call	 _time
  001d5	83 c4 04	 add	 esp, 4
  001d8	50		 push	 eax
  001d9	e8 00 00 00 00	 call	 _srand
  001de	83 c4 04	 add	 esp, 4

; 812  : 	ReadServerInfo();

  001e1	e8 00 00 00 00	 call	 ?ReadServerInfo@@YAXXZ	; ReadServerInfo

; 813  : 	LogInit(TRUE);

  001e6	6a 01		 push	 1
  001e8	e8 00 00 00 00	 call	 ?LogInit@@YAXH@Z	; LogInit
  001ed	83 c4 04	 add	 esp, 4

; 814  : 	gSetDate();

  001f0	e8 00 00 00 00	 call	 ?gSetDate@@YAXXZ	; gSetDate

; 815  : 
; 816  : 	gDirPath.SetFirstPath(FIRST_PATH);

  001f5	68 00 00 00 00	 push	 OFFSET ??_C@_0BD@ILOJPBHI@c?3?2Muproject?2data?2?$AA@
  001fa	b9 00 00 00 00	 mov	 ecx, OFFSET ?gDirPath@@3VCDirPath@@A ; gDirPath
  001ff	e8 00 00 00 00	 call	 ?SetFirstPath@CDirPath@@QAEXPAD@Z ; CDirPath::SetFirstPath

; 817  : 	gDirPath.SetFirstPath(FINAL_PATH);

  00204	68 00 00 00 00	 push	 OFFSET ??_C@_08NAJBNDME@?4?4?2Data?2?$AA@
  00209	b9 00 00 00 00	 mov	 ecx, OFFSET ?gDirPath@@3VCDirPath@@A ; gDirPath
  0020e	e8 00 00 00 00	 call	 ?SetFirstPath@CDirPath@@QAEXPAD@Z ; CDirPath::SetFirstPath

; 818  : 	
; 819  : 	gServerType=0;//GetPrivateProfileInt("GameServerInfo","ServerType",0, gDirPath.GetNewPath("commonserver.cfg") );

  00213	c7 05 00 00 00
	00 00 00 00 00	 mov	 DWORD PTR ?gServerType@@3HA, 0 ; gServerType

; 820  : 	gPartition=0;//GetPrivateProfileInt("GameServerInfo","Partition",0, gDirPath.GetNewPath("commonserver.cfg") );

  0021d	c7 05 00 00 00
	00 00 00 00 00	 mov	 DWORD PTR ?gPartition@@3HA, 0 ; gPartition

; 821  : 	gLanguage=0;//GetPrivateProfileInt("GameServerInfo","Language",0, gDirPath.GetNewPath("commonserver.cfg") );

  00227	c7 05 00 00 00
	00 00 00 00 00	 mov	 DWORD PTR ?gLanguage@@3HA, 0 ; gLanguage

; 822  : 	
; 823  : 	//gWzAG.Init();
; 824  : 	gWzAG.SetInfo(gLanguage, gPartition,0, szGameServerVersion, szServerName, gServerType, GameServerAuthCallBackFunc);

  00231	68 00 00 00 00	 push	 OFFSET ?GameServerAuthCallBackFunc@@YAXHH@Z ; GameServerAuthCallBackFunc
  00236	a1 00 00 00 00	 mov	 eax, DWORD PTR ?gServerType@@3HA ; gServerType
  0023b	50		 push	 eax
  0023c	68 00 00 00 00	 push	 OFFSET ?szServerName@@3PADA ; szServerName
  00241	68 00 00 00 00	 push	 OFFSET ?szGameServerVersion@@3PADA ; szGameServerVersion
  00246	6a 00		 push	 0
  00248	0f b6 0d 00 00
	00 00		 movzx	 ecx, BYTE PTR ?gPartition@@3HA
  0024f	51		 push	 ecx
  00250	8b 15 00 00 00
	00		 mov	 edx, DWORD PTR ?gLanguage@@3HA ; gLanguage
  00256	52		 push	 edx
  00257	b9 00 00 00 00	 mov	 ecx, OFFSET ?gWzAG@@3VWzAG@@A ; gWzAG
  0025c	e8 00 00 00 00	 call	 ?SetInfo@WzAG@@QAE_NHEFPAD0HP6AXHH@Z@Z ; WzAG::SetInfo

; 825  : 	gWzAG.GetKey(&szAuthKey[0], 0, 5);

  00261	6a 05		 push	 5
  00263	6a 00		 push	 0
  00265	68 00 00 00 00	 push	 OFFSET ?szAuthKey@@3PADA ; szAuthKey
  0026a	b9 00 00 00 00	 mov	 ecx, OFFSET ?gWzAG@@3VWzAG@@A ; gWzAG
  0026f	e8 00 00 00 00	 call	 ?GetKey@WzAG@@QAEXPADHH@Z ; WzAG::GetKey

; 826  : 
; 827  : 	DragonEvent = new CDragonEvent;

  00274	6a 14		 push	 20			; 00000014H
  00276	e8 00 00 00 00	 call	 ??2@YAPAXI@Z		; operator new
  0027b	83 c4 04	 add	 esp, 4
  0027e	89 85 ec f2 ff
	ff		 mov	 DWORD PTR $T266013[ebp], eax
  00284	c7 45 fc 00 00
	00 00		 mov	 DWORD PTR __$EHRec$[ebp+8], 0
  0028b	83 bd ec f2 ff
	ff 00		 cmp	 DWORD PTR $T266013[ebp], 0
  00292	74 13		 je	 SHORT $LN18@GameMainIn
  00294	8b 8d ec f2 ff
	ff		 mov	 ecx, DWORD PTR $T266013[ebp]
  0029a	e8 00 00 00 00	 call	 ??0CDragonEvent@@QAE@XZ	; CDragonEvent::CDragonEvent
  0029f	89 85 e4 f2 ff
	ff		 mov	 DWORD PTR tv92[ebp], eax
  002a5	eb 0a		 jmp	 SHORT $LN19@GameMainIn
$LN18@GameMainIn:
  002a7	c7 85 e4 f2 ff
	ff 00 00 00 00	 mov	 DWORD PTR tv92[ebp], 0
$LN19@GameMainIn:
  002b1	8b 85 e4 f2 ff
	ff		 mov	 eax, DWORD PTR tv92[ebp]
  002b7	89 85 e8 f2 ff
	ff		 mov	 DWORD PTR $T266012[ebp], eax
  002bd	c7 45 fc ff ff
	ff ff		 mov	 DWORD PTR __$EHRec$[ebp+8], -1
  002c4	8b 8d e8 f2 ff
	ff		 mov	 ecx, DWORD PTR $T266012[ebp]
  002ca	89 0d 00 00 00
	00		 mov	 DWORD PTR ?DragonEvent@@3PAVCDragonEvent@@A, ecx ; DragonEvent

; 828  : 	
; 829  : 	if ( DragonEvent == 0 )

  002d0	83 3d 00 00 00
	00 00		 cmp	 DWORD PTR ?DragonEvent@@3PAVCDragonEvent@@A, 0 ; DragonEvent
  002d7	75 1f		 jne	 SHORT $LN15@GameMainIn

; 830  : 	{
; 831  : 		MsgBox("CDragonEvent %s", lMsg.Get( MSGGET(0,110)) );	// Memory allocation error

  002d9	6a 6e		 push	 110			; 0000006eH
  002db	b9 00 00 00 00	 mov	 ecx, OFFSET ?lMsg@@3VCMsg@@A ; lMsg
  002e0	e8 00 00 00 00	 call	 ?Get@CMsg@@QAEPADH@Z	; CMsg::Get
  002e5	50		 push	 eax
  002e6	68 00 00 00 00	 push	 OFFSET ??_C@_0BA@FPGHNLAN@CDragonEvent?5?$CFs?$AA@
  002eb	e8 00 00 00 00	 call	 ?MsgBox@@YAXPADZZ	; MsgBox
  002f0	83 c4 08	 add	 esp, 8

; 832  : 		return;

  002f3	e9 03 16 00 00	 jmp	 $LN16@GameMainIn
$LN15@GameMainIn:

; 833  : 	}
; 834  : 
; 835  : 	AttackEvent = new CAttackEvent;

  002f8	6a 2c		 push	 44			; 0000002cH
  002fa	e8 00 00 00 00	 call	 ??2@YAPAXI@Z		; operator new
  002ff	83 c4 04	 add	 esp, 4
  00302	89 85 f4 f2 ff
	ff		 mov	 DWORD PTR $T266017[ebp], eax
  00308	c7 45 fc 01 00
	00 00		 mov	 DWORD PTR __$EHRec$[ebp+8], 1
  0030f	83 bd f4 f2 ff
	ff 00		 cmp	 DWORD PTR $T266017[ebp], 0
  00316	74 13		 je	 SHORT $LN20@GameMainIn
  00318	8b 8d f4 f2 ff
	ff		 mov	 ecx, DWORD PTR $T266017[ebp]
  0031e	e8 00 00 00 00	 call	 ??0CAttackEvent@@QAE@XZ	; CAttackEvent::CAttackEvent
  00323	89 85 e4 f2 ff
	ff		 mov	 DWORD PTR tv137[ebp], eax
  00329	eb 0a		 jmp	 SHORT $LN21@GameMainIn
$LN20@GameMainIn:
  0032b	c7 85 e4 f2 ff
	ff 00 00 00 00	 mov	 DWORD PTR tv137[ebp], 0
$LN21@GameMainIn:
  00335	8b 85 e4 f2 ff
	ff		 mov	 eax, DWORD PTR tv137[ebp]
  0033b	89 85 f0 f2 ff
	ff		 mov	 DWORD PTR $T266016[ebp], eax
  00341	c7 45 fc ff ff
	ff ff		 mov	 DWORD PTR __$EHRec$[ebp+8], -1
  00348	8b 8d f0 f2 ff
	ff		 mov	 ecx, DWORD PTR $T266016[ebp]
  0034e	89 0d 00 00 00
	00		 mov	 DWORD PTR ?AttackEvent@@3PAVCAttackEvent@@A, ecx ; AttackEvent

; 836  : 	
; 837  : 	if ( AttackEvent == 0 )

  00354	83 3d 00 00 00
	00 00		 cmp	 DWORD PTR ?AttackEvent@@3PAVCAttackEvent@@A, 0 ; AttackEvent
  0035b	75 1f		 jne	 SHORT $LN14@GameMainIn

; 838  : 	{
; 839  : 		MsgBox("AttackEvent %s", lMsg.Get(MSGGET(0,110)) );	// Memory allocation error

  0035d	6a 6e		 push	 110			; 0000006eH
  0035f	b9 00 00 00 00	 mov	 ecx, OFFSET ?lMsg@@3VCMsg@@A ; lMsg
  00364	e8 00 00 00 00	 call	 ?Get@CMsg@@QAEPADH@Z	; CMsg::Get
  00369	50		 push	 eax
  0036a	68 00 00 00 00	 push	 OFFSET ??_C@_0P@CNKMNCA@AttackEvent?5?$CFs?$AA@
  0036f	e8 00 00 00 00	 call	 ?MsgBox@@YAXPADZZ	; MsgBox
  00374	83 c4 08	 add	 esp, 8

; 840  : 		return;

  00377	e9 7f 15 00 00	 jmp	 $LN16@GameMainIn
$LN14@GameMainIn:

; 841  : 	}
; 842  : 
; 843  : 	ReadCommonServerInfo();

  0037c	e8 00 00 00 00	 call	 ?ReadCommonServerInfo@@YAXXZ ; ReadCommonServerInfo

; 844  : 
; 845  : 	g_MapServerManager.LoadData( gDirPath.GetNewPath("Other\\MapServerInfo.dat"));

  00381	68 00 00 00 00	 push	 OFFSET ??_C@_0BI@GIPPDGKI@Other?2MapServerInfo?4dat?$AA@
  00386	b9 00 00 00 00	 mov	 ecx, OFFSET ?gDirPath@@3VCDirPath@@A ; gDirPath
  0038b	e8 00 00 00 00	 call	 ?GetNewPath@CDirPath@@QAEPADPAD@Z ; CDirPath::GetNewPath
  00390	50		 push	 eax
  00391	b9 00 00 00 00	 mov	 ecx, OFFSET ?g_MapServerManager@@3VCMapServerManager@@A ; g_MapServerManager
  00396	e8 00 00 00 00	 call	 ?LoadData@CMapServerManager@@QAEHPAD@Z ; CMapServerManager::LoadData

; 846  : 
; 847  : //#if (GS_CASTLE == 1)
; 848  : 	if( g_CastleSiege.Ready(g_MapServerManager.GetMapSvrGroup()) == TRUE )

  0039b	b9 00 00 00 00	 mov	 ecx, OFFSET ?g_MapServerManager@@3VCMapServerManager@@A ; g_MapServerManager
  003a0	e8 00 00 00 00	 call	 ?GetMapSvrGroup@CMapServerManager@@QAEHXZ ; CMapServerManager::GetMapSvrGroup
  003a5	50		 push	 eax
  003a6	b9 00 00 00 00	 mov	 ecx, OFFSET ?g_CastleSiege@@3VCCastleSiege@@A ; g_CastleSiege
  003ab	e8 00 00 00 00	 call	 ?Ready@CCastleSiege@@QAEHH@Z ; CCastleSiege::Ready
  003b0	83 f8 01	 cmp	 eax, 1
  003b3	75 44		 jne	 SHORT $LN13@GameMainIn

; 849  : 	{
; 850  : 		if( g_CastleSiege.LoadData(gDirPath.GetNewPath(".\\Events\\MuCastleData.dat")) )

  003b5	68 00 00 00 00	 push	 OFFSET ??_C@_0BK@COKJOEKN@?4?2Events?2MuCastleData?4dat?$AA@
  003ba	b9 00 00 00 00	 mov	 ecx, OFFSET ?gDirPath@@3VCDirPath@@A ; gDirPath
  003bf	e8 00 00 00 00	 call	 ?GetNewPath@CDirPath@@QAEPADPAD@Z ; CDirPath::GetNewPath
  003c4	50		 push	 eax
  003c5	b9 00 00 00 00	 mov	 ecx, OFFSET ?g_CastleSiege@@3VCCastleSiege@@A ; g_CastleSiege
  003ca	e8 00 00 00 00	 call	 ?LoadData@CCastleSiege@@QAEHPAD@Z ; CCastleSiege::LoadData
  003cf	85 c0		 test	 eax, eax
  003d1	74 26		 je	 SHORT $LN13@GameMainIn

; 851  : 		{
; 852  : 			g_CastleSiege.LoadPreFixData(gDirPath.GetNewPath("commonserver.cfg"));

  003d3	68 00 00 00 00	 push	 OFFSET ??_C@_0BB@IGLHFEOF@commonserver?4cfg?$AA@
  003d8	b9 00 00 00 00	 mov	 ecx, OFFSET ?gDirPath@@3VCDirPath@@A ; gDirPath
  003dd	e8 00 00 00 00	 call	 ?GetNewPath@CDirPath@@QAEPADPAD@Z ; CDirPath::GetNewPath
  003e2	50		 push	 eax
  003e3	b9 00 00 00 00	 mov	 ecx, OFFSET ?g_CastleSiege@@3VCCastleSiege@@A ; g_CastleSiege
  003e8	e8 00 00 00 00	 call	 ?LoadPreFixData@CCastleSiege@@QAEHPAD@Z ; CCastleSiege::LoadPreFixData

; 853  : 			g_CastleSiege.SetDataLoadState(CASTLESIEGE_DATALOAD_2);

  003ed	6a 02		 push	 2
  003ef	b9 00 00 00 00	 mov	 ecx, OFFSET ?g_CastleSiege@@3VCCastleSiege@@A ; g_CastleSiege
  003f4	e8 00 00 00 00	 call	 ?SetDataLoadState@CCastleSiege@@QAEXH@Z ; CCastleSiege::SetDataLoadState
$LN13@GameMainIn:

; 854  : 		}
; 855  : 	}
; 856  : //#endif
; 857  : 
; 858  : 	gWzAG.GetKey(szAuthKey, 10, 5);

  003f9	6a 05		 push	 5
  003fb	6a 0a		 push	 10			; 0000000aH
  003fd	68 00 00 00 00	 push	 OFFSET ?szAuthKey@@3PADA ; szAuthKey
  00402	b9 00 00 00 00	 mov	 ecx, OFFSET ?gWzAG@@3VWzAG@@A ; gWzAG
  00407	e8 00 00 00 00	 call	 ?GetKey@WzAG@@QAEXPADHH@Z ; WzAG::GetKey

; 859  : 
; 860  : 	if ( gEnableServerDivision != 0 )

  0040c	83 3d 00 00 00
	00 00		 cmp	 DWORD PTR ?gEnableServerDivision@@3HA, 0 ; gEnableServerDivision
  00413	74 14		 je	 SHORT $LN11@GameMainIn

; 861  : 	{
; 862  : 		MessageBox(NULL, "  .", "Warning", MB_OK);

  00415	6a 00		 push	 0
  00417	68 00 00 00 00	 push	 OFFSET ??_C@_07KGMMFLDN@Warning?$AA@
  0041c	68 00 00 00 00	 push	 OFFSET ??_C@_0BO@HAAAHLCH@?$LM?$KN?$LJ?v?$LK?P?G?R?$MA?L?5?$LA?$KB?$LE?I?G?Q?5?$LM?$KN?$LJ?v?$MA?T?$LE?O?$LE?Y?4?$AA@
  00421	6a 00		 push	 0
  00423	ff 15 00 00 00
	00		 call	 DWORD PTR __imp__MessageBoxA@16
$LN11@GameMainIn:

; 863  : 	}
; 864  : 
; 865  : 	if ( gUdpSoc.CreateSocket() == 0)

  00429	b9 00 00 00 00	 mov	 ecx, OFFSET ?gUdpSoc@@3VWzUdp@@A ; gUdpSoc
  0042e	e8 00 00 00 00	 call	 ?CreateSocket@WzUdp@@QAEHXZ ; WzUdp::CreateSocket
  00433	85 c0		 test	 eax, eax
  00435	75 12		 jne	 SHORT $LN10@GameMainIn

; 866  : 	{
; 867  : 		MsgBox("UDP Socket create error");

  00437	68 00 00 00 00	 push	 OFFSET ??_C@_0BI@FNDPBPBE@UDP?5Socket?5create?5error?$AA@
  0043c	e8 00 00 00 00	 call	 ?MsgBox@@YAXPADZZ	; MsgBox
  00441	83 c4 04	 add	 esp, 4

; 868  : 		return;

  00444	e9 b2 14 00 00	 jmp	 $LN16@GameMainIn
$LN10@GameMainIn:

; 869  : 	}
; 870  : 
; 871  : #if(ENABLE_UPPSOCCER)
; 872  : 
; 873  : 	if ( gUdpSocCER.CreateSocket() == 0)
; 874  : 	{
; 875  : 		MsgBox("UDP Socket create error");
; 876  : 		return;
; 877  : 	}
; 878  : 	int UDPPort = GetPrivateProfileInt("Connect","UDP-Port",60006,".\\Connect.ini");
; 879  : 	gUdpSocCER.RecvSet( UDPPort ); // Same as MuManager to JS ?
; 880  : 
; 881  : 	gUdpSocCER.Run();
; 882  : 
; 883  : 	gUdpSocCER.SetProtocolCore(ChaosEventProtocolCore); 
; 884  : 
; 885  : 	if ( gUdpSocCE.CreateSocket() == 0)
; 886  : 	{
; 887  : 		MsgBox("UDP Socket create error");
; 888  : 		return;
; 889  : 	}
; 890  : 
; 891  : 	gUdpSocCE.SetProtocolCore(ChaosEventProtocolCore);
; 892  : 
; 893  : #endif
; 894  : 
; 895  : 	if ( false )

  00449	33 c0		 xor	 eax, eax
  0044b	74 18		 je	 SHORT $LN9@GameMainIn

; 896  : 	{
; 897  : 		MsgBox(lMsg.Get(MSGGET(0, 210)) );	// No check on speed hack.

  0044d	68 d2 00 00 00	 push	 210			; 000000d2H
  00452	b9 00 00 00 00	 mov	 ecx, OFFSET ?lMsg@@3VCMsg@@A ; lMsg
  00457	e8 00 00 00 00	 call	 ?Get@CMsg@@QAEPADH@Z	; CMsg::Get
  0045c	50		 push	 eax
  0045d	e8 00 00 00 00	 call	 ?MsgBox@@YAXPADZZ	; MsgBox
  00462	83 c4 04	 add	 esp, 4
$LN9@GameMainIn:

; 898  : 	}
; 899  : 	if ( false )

  00465	33 c0		 xor	 eax, eax
  00467	74 0d		 je	 SHORT $LN8@GameMainIn

; 900  : 	{
; 901  : 		MsgBox("!!    .");

  00469	68 00 00 00 00	 push	 OFFSET ??_C@_0CK@CPDKBBDI@?A?V?$MA?G?$CB?$CB?5?D?$LD?$LI?$KP?E?M?5?$LF?$KF?$MA?L?E?M?$LI?$KG?5?$MA?z?$MA?e?G?O?A?v?5@
  0046e	e8 00 00 00 00	 call	 ?MsgBox@@YAXPADZZ	; MsgBox
  00473	83 c4 04	 add	 esp, 4
$LN8@GameMainIn:

; 902  : 	}
; 903  : 
; 904  : 	gObjInit();

  00476	e8 00 00 00 00	 call	 ?gObjInit@@YAXXZ	; gObjInit

; 905  : 	InitBattleSoccer();

  0047b	e8 00 00 00 00	 call	 ?InitBattleSoccer@@YAXXZ ; InitBattleSoccer

; 906  : 
; 907  : 	gWzAG.RequestData(7);

  00480	6a 07		 push	 7
  00482	b9 00 00 00 00	 mov	 ecx, OFFSET ?gWzAG@@3VWzAG@@A ; gWzAG
  00487	e8 00 00 00 00	 call	 ?RequestData@WzAG@@QAEXH@Z ; WzAG::RequestData

; 908  : 	DataBufferSize = gWzAG.GetDataBufferSize();

  0048c	b9 00 00 00 00	 mov	 ecx, OFFSET ?gWzAG@@3VWzAG@@A ; gWzAG
  00491	e8 00 00 00 00	 call	 ?GetDataBufferSize@WzAG@@QAEHXZ ; WzAG::GetDataBufferSize
  00496	89 45 e8	 mov	 DWORD PTR _DataBufferSize$[ebp], eax

; 909  : 	DataBuffer = gWzAG.GetDataBuffer();

  00499	b9 00 00 00 00	 mov	 ecx, OFFSET ?gWzAG@@3VWzAG@@A ; gWzAG
  0049e	e8 00 00 00 00	 call	 ?GetDataBuffer@WzAG@@QAEPADXZ ; WzAG::GetDataBuffer
  004a3	89 45 e4	 mov	 DWORD PTR _DataBuffer$[ebp], eax

; 910  : 
; 911  : 	gMAttr.LoadAttr( DataBuffer, DataBufferSize);

  004a6	8b 45 e8	 mov	 eax, DWORD PTR _DataBufferSize$[ebp]
  004a9	50		 push	 eax
  004aa	8b 4d e4	 mov	 ecx, DWORD PTR _DataBuffer$[ebp]
  004ad	51		 push	 ecx
  004ae	b9 00 00 00 00	 mov	 ecx, OFFSET ?gMAttr@@3VCMonsterAttr@@A ; gMAttr
  004b3	e8 00 00 00 00	 call	 ?LoadAttr@CMonsterAttr@@QAEXPADH@Z ; CMonsterAttr::LoadAttr

; 912  : 
; 913  : 	gWzAG.RequestData(9);

  004b8	6a 09		 push	 9
  004ba	b9 00 00 00 00	 mov	 ecx, OFFSET ?gWzAG@@3VWzAG@@A ; gWzAG
  004bf	e8 00 00 00 00	 call	 ?RequestData@WzAG@@QAEXH@Z ; WzAG::RequestData

; 914  : 	DataBufferSize = gWzAG.GetDataBufferSize();

  004c4	b9 00 00 00 00	 mov	 ecx, OFFSET ?gWzAG@@3VWzAG@@A ; gWzAG
  004c9	e8 00 00 00 00	 call	 ?GetDataBufferSize@WzAG@@QAEHXZ ; WzAG::GetDataBufferSize
  004ce	89 45 e8	 mov	 DWORD PTR _DataBufferSize$[ebp], eax

; 915  : 	DataBuffer = gWzAG.GetDataBuffer();

  004d1	b9 00 00 00 00	 mov	 ecx, OFFSET ?gWzAG@@3VWzAG@@A ; gWzAG
  004d6	e8 00 00 00 00	 call	 ?GetDataBuffer@WzAG@@QAEPADXZ ; WzAG::GetDataBuffer
  004db	89 45 e4	 mov	 DWORD PTR _DataBuffer$[ebp], eax

; 916  : 
; 917  : 	gMSetBase.LoadSetBase(DataBuffer, DataBufferSize);

  004de	8b 45 e8	 mov	 eax, DWORD PTR _DataBufferSize$[ebp]
  004e1	50		 push	 eax
  004e2	8b 4d e4	 mov	 ecx, DWORD PTR _DataBuffer$[ebp]
  004e5	51		 push	 ecx
  004e6	b9 00 00 00 00	 mov	 ecx, OFFSET ?gMSetBase@@3VCMonsterSetBase@@A ; gMSetBase
  004eb	e8 00 00 00 00	 call	 ?LoadSetBase@CMonsterSetBase@@QAEXPADH@Z ; CMonsterSetBase::LoadSetBase

; 918  : 
; 919  : 	g_MonsterItemMng.Init();

  004f0	b9 00 00 00 00	 mov	 ecx, OFFSET ?g_MonsterItemMng@@3VCMonsterItemMng@@A ; g_MonsterItemMng
  004f5	e8 00 00 00 00	 call	 ?Init@CMonsterItemMng@@QAEXXZ ; CMonsterItemMng::Init

; 920  : 
; 921  : 	gLevelExperience[0]=0;

  004fa	c7 05 00 00 00
	00 00 00 00 00	 mov	 DWORD PTR ?gLevelExperience@@3PAKA, 0

; 922  : 	LevelOver_N=1;

  00504	c7 45 e0 01 00
	00 00		 mov	 DWORD PTR _LevelOver_N$[ebp], 1

; 923  : 
; 924  : 	for ( n=1;n<MAX_CHAR_LEVEL+1;n++)

  0050b	c7 45 ec 01 00
	00 00		 mov	 DWORD PTR _n$[ebp], 1
  00512	eb 09		 jmp	 SHORT $LN7@GameMainIn
$LN6@GameMainIn:
  00514	8b 45 ec	 mov	 eax, DWORD PTR _n$[ebp]
  00517	83 c0 01	 add	 eax, 1
  0051a	89 45 ec	 mov	 DWORD PTR _n$[ebp], eax
$LN7@GameMainIn:
  0051d	81 7d ec 91 01
	00 00		 cmp	 DWORD PTR _n$[ebp], 401	; 00000191H
  00524	7d 57		 jge	 SHORT $LN5@GameMainIn

; 925  : 	{
; 926  : 		gLevelExperience[n] = (((n+9)*n)*n)*10;

  00526	8b 45 ec	 mov	 eax, DWORD PTR _n$[ebp]
  00529	83 c0 09	 add	 eax, 9
  0052c	0f af 45 ec	 imul	 eax, DWORD PTR _n$[ebp]
  00530	0f af 45 ec	 imul	 eax, DWORD PTR _n$[ebp]
  00534	6b c0 0a	 imul	 eax, 10			; 0000000aH
  00537	8b 4d ec	 mov	 ecx, DWORD PTR _n$[ebp]
  0053a	89 04 8d 00 00
	00 00		 mov	 DWORD PTR ?gLevelExperience@@3PAKA[ecx*4], eax

; 927  : 
; 928  : 		if ( n > 255 )

  00541	81 7d ec ff 00
	00 00		 cmp	 DWORD PTR _n$[ebp], 255	; 000000ffH
  00548	7e 31		 jle	 SHORT $LN4@GameMainIn

; 929  : 		{
; 930  : 			gLevelExperience[n] += ((((LevelOver_N+9)*LevelOver_N)*LevelOver_N)*1000);

  0054a	8b 45 e0	 mov	 eax, DWORD PTR _LevelOver_N$[ebp]
  0054d	83 c0 09	 add	 eax, 9
  00550	0f af 45 e0	 imul	 eax, DWORD PTR _LevelOver_N$[ebp]
  00554	0f af 45 e0	 imul	 eax, DWORD PTR _LevelOver_N$[ebp]
  00558	69 c0 e8 03 00
	00		 imul	 eax, 1000		; 000003e8H
  0055e	8b 4d ec	 mov	 ecx, DWORD PTR _n$[ebp]
  00561	03 04 8d 00 00
	00 00		 add	 eax, DWORD PTR ?gLevelExperience@@3PAKA[ecx*4]
  00568	8b 55 ec	 mov	 edx, DWORD PTR _n$[ebp]
  0056b	89 04 95 00 00
	00 00		 mov	 DWORD PTR ?gLevelExperience@@3PAKA[edx*4], eax

; 931  : 			LevelOver_N++;

  00572	8b 45 e0	 mov	 eax, DWORD PTR _LevelOver_N$[ebp]
  00575	83 c0 01	 add	 eax, 1
  00578	89 45 e0	 mov	 DWORD PTR _LevelOver_N$[ebp], eax
$LN4@GameMainIn:

; 932  : 		}
; 933  : 	}

  0057b	eb 97		 jmp	 SHORT $LN6@GameMainIn
$LN5@GameMainIn:

; 934  : 
; 935  : 	g_MasterLevelSystem.SetExperienceTable(); //season3 add-on

  0057d	b9 00 00 00 00	 mov	 ecx, OFFSET ?g_MasterLevelSystem@@3VCMasterLevelSystem@@A ; g_MasterLevelSystem
  00582	e8 00 00 00 00	 call	 ?SetExperienceTable@CMasterLevelSystem@@QAEXXZ ; CMasterLevelSystem::SetExperienceTable

; 936  : 
; 937  : 	char MapAttrName[MAX_NUMBER_MAP][36] =
; 938  : 	{
; 939  : 		".\\Terrains\\terrain1.att",		//

  00587	a1 00 00 00 00	 mov	 eax, DWORD PTR ??_C@_0BI@OOKKHIHH@?4?2Terrains?2terrain1?4att?$AA@
  0058c	89 85 38 f3 ff
	ff		 mov	 DWORD PTR _MapAttrName$[ebp], eax
  00592	8b 0d 04 00 00
	00		 mov	 ecx, DWORD PTR ??_C@_0BI@OOKKHIHH@?4?2Terrains?2terrain1?4att?$AA@+4
  00598	89 8d 3c f3 ff
	ff		 mov	 DWORD PTR _MapAttrName$[ebp+4], ecx
  0059e	8b 15 08 00 00
	00		 mov	 edx, DWORD PTR ??_C@_0BI@OOKKHIHH@?4?2Terrains?2terrain1?4att?$AA@+8
  005a4	89 95 40 f3 ff
	ff		 mov	 DWORD PTR _MapAttrName$[ebp+8], edx
  005aa	a1 0c 00 00 00	 mov	 eax, DWORD PTR ??_C@_0BI@OOKKHIHH@?4?2Terrains?2terrain1?4att?$AA@+12
  005af	89 85 44 f3 ff
	ff		 mov	 DWORD PTR _MapAttrName$[ebp+12], eax
  005b5	8b 0d 10 00 00
	00		 mov	 ecx, DWORD PTR ??_C@_0BI@OOKKHIHH@?4?2Terrains?2terrain1?4att?$AA@+16
  005bb	89 8d 48 f3 ff
	ff		 mov	 DWORD PTR _MapAttrName$[ebp+16], ecx
  005c1	8b 15 14 00 00
	00		 mov	 edx, DWORD PTR ??_C@_0BI@OOKKHIHH@?4?2Terrains?2terrain1?4att?$AA@+20
  005c7	89 95 4c f3 ff
	ff		 mov	 DWORD PTR _MapAttrName$[ebp+20], edx
  005cd	33 c0		 xor	 eax, eax
  005cf	89 85 50 f3 ff
	ff		 mov	 DWORD PTR _MapAttrName$[ebp+24], eax
  005d5	89 85 54 f3 ff
	ff		 mov	 DWORD PTR _MapAttrName$[ebp+28], eax
  005db	89 85 58 f3 ff
	ff		 mov	 DWORD PTR _MapAttrName$[ebp+32], eax

; 940  : 		".\\Terrains\\terrain2.att",		//

  005e1	a1 00 00 00 00	 mov	 eax, DWORD PTR ??_C@_0BI@GIDOAKNJ@?4?2Terrains?2terrain2?4att?$AA@
  005e6	89 85 5c f3 ff
	ff		 mov	 DWORD PTR _MapAttrName$[ebp+36], eax
  005ec	8b 0d 04 00 00
	00		 mov	 ecx, DWORD PTR ??_C@_0BI@GIDOAKNJ@?4?2Terrains?2terrain2?4att?$AA@+4
  005f2	89 8d 60 f3 ff
	ff		 mov	 DWORD PTR _MapAttrName$[ebp+40], ecx
  005f8	8b 15 08 00 00
	00		 mov	 edx, DWORD PTR ??_C@_0BI@GIDOAKNJ@?4?2Terrains?2terrain2?4att?$AA@+8
  005fe	89 95 64 f3 ff
	ff		 mov	 DWORD PTR _MapAttrName$[ebp+44], edx
  00604	a1 0c 00 00 00	 mov	 eax, DWORD PTR ??_C@_0BI@GIDOAKNJ@?4?2Terrains?2terrain2?4att?$AA@+12
  00609	89 85 68 f3 ff
	ff		 mov	 DWORD PTR _MapAttrName$[ebp+48], eax
  0060f	8b 0d 10 00 00
	00		 mov	 ecx, DWORD PTR ??_C@_0BI@GIDOAKNJ@?4?2Terrains?2terrain2?4att?$AA@+16
  00615	89 8d 6c f3 ff
	ff		 mov	 DWORD PTR _MapAttrName$[ebp+52], ecx
  0061b	8b 15 14 00 00
	00		 mov	 edx, DWORD PTR ??_C@_0BI@GIDOAKNJ@?4?2Terrains?2terrain2?4att?$AA@+20
  00621	89 95 70 f3 ff
	ff		 mov	 DWORD PTR _MapAttrName$[ebp+56], edx
  00627	33 c0		 xor	 eax, eax
  00629	89 85 74 f3 ff
	ff		 mov	 DWORD PTR _MapAttrName$[ebp+60], eax
  0062f	89 85 78 f3 ff
	ff		 mov	 DWORD PTR _MapAttrName$[ebp+64], eax
  00635	89 85 7c f3 ff
	ff		 mov	 DWORD PTR _MapAttrName$[ebp+68], eax

; 941  : 		".\\Terrains\\terrain3.att",		//

  0063b	a1 00 00 00 00	 mov	 eax, DWORD PTR ??_C@_0BI@KDGCNJHM@?4?2Terrains?2terrain3?4att?$AA@
  00640	89 85 80 f3 ff
	ff		 mov	 DWORD PTR _MapAttrName$[ebp+72], eax
  00646	8b 0d 04 00 00
	00		 mov	 ecx, DWORD PTR ??_C@_0BI@KDGCNJHM@?4?2Terrains?2terrain3?4att?$AA@+4
  0064c	89 8d 84 f3 ff
	ff		 mov	 DWORD PTR _MapAttrName$[ebp+76], ecx
  00652	8b 15 08 00 00
	00		 mov	 edx, DWORD PTR ??_C@_0BI@KDGCNJHM@?4?2Terrains?2terrain3?4att?$AA@+8
  00658	89 95 88 f3 ff
	ff		 mov	 DWORD PTR _MapAttrName$[ebp+80], edx
  0065e	a1 0c 00 00 00	 mov	 eax, DWORD PTR ??_C@_0BI@KDGCNJHM@?4?2Terrains?2terrain3?4att?$AA@+12
  00663	89 85 8c f3 ff
	ff		 mov	 DWORD PTR _MapAttrName$[ebp+84], eax
  00669	8b 0d 10 00 00
	00		 mov	 ecx, DWORD PTR ??_C@_0BI@KDGCNJHM@?4?2Terrains?2terrain3?4att?$AA@+16
  0066f	89 8d 90 f3 ff
	ff		 mov	 DWORD PTR _MapAttrName$[ebp+88], ecx
  00675	8b 15 14 00 00
	00		 mov	 edx, DWORD PTR ??_C@_0BI@KDGCNJHM@?4?2Terrains?2terrain3?4att?$AA@+20
  0067b	89 95 94 f3 ff
	ff		 mov	 DWORD PTR _MapAttrName$[ebp+92], edx
  00681	33 c0		 xor	 eax, eax
  00683	89 85 98 f3 ff
	ff		 mov	 DWORD PTR _MapAttrName$[ebp+96], eax
  00689	89 85 9c f3 ff
	ff		 mov	 DWORD PTR _MapAttrName$[ebp+100], eax
  0068f	89 85 a0 f3 ff
	ff		 mov	 DWORD PTR _MapAttrName$[ebp+104], eax

; 942  : 		".\\Terrains\\terrain4.att",		//

  00695	a1 00 00 00 00	 mov	 eax, DWORD PTR ??_C@_0BI@LOGHOJME@?4?2Terrains?2terrain4?4att?$AA@
  0069a	89 85 a4 f3 ff
	ff		 mov	 DWORD PTR _MapAttrName$[ebp+108], eax
  006a0	8b 0d 04 00 00
	00		 mov	 ecx, DWORD PTR ??_C@_0BI@LOGHOJME@?4?2Terrains?2terrain4?4att?$AA@+4
  006a6	89 8d a8 f3 ff
	ff		 mov	 DWORD PTR _MapAttrName$[ebp+112], ecx
  006ac	8b 15 08 00 00
	00		 mov	 edx, DWORD PTR ??_C@_0BI@LOGHOJME@?4?2Terrains?2terrain4?4att?$AA@+8
  006b2	89 95 ac f3 ff
	ff		 mov	 DWORD PTR _MapAttrName$[ebp+116], edx
  006b8	a1 0c 00 00 00	 mov	 eax, DWORD PTR ??_C@_0BI@LOGHOJME@?4?2Terrains?2terrain4?4att?$AA@+12
  006bd	89 85 b0 f3 ff
	ff		 mov	 DWORD PTR _MapAttrName$[ebp+120], eax
  006c3	8b 0d 10 00 00
	00		 mov	 ecx, DWORD PTR ??_C@_0BI@LOGHOJME@?4?2Terrains?2terrain4?4att?$AA@+16
  006c9	89 8d b4 f3 ff
	ff		 mov	 DWORD PTR _MapAttrName$[ebp+124], ecx
  006cf	8b 15 14 00 00
	00		 mov	 edx, DWORD PTR ??_C@_0BI@LOGHOJME@?4?2Terrains?2terrain4?4att?$AA@+20
  006d5	89 95 b8 f3 ff
	ff		 mov	 DWORD PTR _MapAttrName$[ebp+128], edx
  006db	33 c0		 xor	 eax, eax
  006dd	89 85 bc f3 ff
	ff		 mov	 DWORD PTR _MapAttrName$[ebp+132], eax
  006e3	89 85 c0 f3 ff
	ff		 mov	 DWORD PTR _MapAttrName$[ebp+136], eax
  006e9	89 85 c4 f3 ff
	ff		 mov	 DWORD PTR _MapAttrName$[ebp+140], eax

; 943  : 		".\\Terrains\\terrain5.att",		//

  006ef	a1 00 00 00 00	 mov	 eax, DWORD PTR ??_C@_0BI@HFDLDKGB@?4?2Terrains?2terrain5?4att?$AA@
  006f4	89 85 c8 f3 ff
	ff		 mov	 DWORD PTR _MapAttrName$[ebp+144], eax
  006fa	8b 0d 04 00 00
	00		 mov	 ecx, DWORD PTR ??_C@_0BI@HFDLDKGB@?4?2Terrains?2terrain5?4att?$AA@+4
  00700	89 8d cc f3 ff
	ff		 mov	 DWORD PTR _MapAttrName$[ebp+148], ecx
  00706	8b 15 08 00 00
	00		 mov	 edx, DWORD PTR ??_C@_0BI@HFDLDKGB@?4?2Terrains?2terrain5?4att?$AA@+8
  0070c	89 95 d0 f3 ff
	ff		 mov	 DWORD PTR _MapAttrName$[ebp+152], edx
  00712	a1 0c 00 00 00	 mov	 eax, DWORD PTR ??_C@_0BI@HFDLDKGB@?4?2Terrains?2terrain5?4att?$AA@+12
  00717	89 85 d4 f3 ff
	ff		 mov	 DWORD PTR _MapAttrName$[ebp+156], eax
  0071d	8b 0d 10 00 00
	00		 mov	 ecx, DWORD PTR ??_C@_0BI@HFDLDKGB@?4?2Terrains?2terrain5?4att?$AA@+16
  00723	89 8d d8 f3 ff
	ff		 mov	 DWORD PTR _MapAttrName$[ebp+160], ecx
  00729	8b 15 14 00 00
	00		 mov	 edx, DWORD PTR ??_C@_0BI@HFDLDKGB@?4?2Terrains?2terrain5?4att?$AA@+20
  0072f	89 95 dc f3 ff
	ff		 mov	 DWORD PTR _MapAttrName$[ebp+164], edx
  00735	33 c0		 xor	 eax, eax
  00737	89 85 e0 f3 ff
	ff		 mov	 DWORD PTR _MapAttrName$[ebp+168], eax
  0073d	89 85 e4 f3 ff
	ff		 mov	 DWORD PTR _MapAttrName$[ebp+172], eax
  00743	89 85 e8 f3 ff
	ff		 mov	 DWORD PTR _MapAttrName$[ebp+176], eax

; 944  : 		".\\Terrains\\terrain6.att",		//

  00749	a1 00 00 00 00	 mov	 eax, DWORD PTR ??_C@_0BI@PDKPEIMP@?4?2Terrains?2terrain6?4att?$AA@
  0074e	89 85 ec f3 ff
	ff		 mov	 DWORD PTR _MapAttrName$[ebp+180], eax
  00754	8b 0d 04 00 00
	00		 mov	 ecx, DWORD PTR ??_C@_0BI@PDKPEIMP@?4?2Terrains?2terrain6?4att?$AA@+4
  0075a	89 8d f0 f3 ff
	ff		 mov	 DWORD PTR _MapAttrName$[ebp+184], ecx
  00760	8b 15 08 00 00
	00		 mov	 edx, DWORD PTR ??_C@_0BI@PDKPEIMP@?4?2Terrains?2terrain6?4att?$AA@+8
  00766	89 95 f4 f3 ff
	ff		 mov	 DWORD PTR _MapAttrName$[ebp+188], edx
  0076c	a1 0c 00 00 00	 mov	 eax, DWORD PTR ??_C@_0BI@PDKPEIMP@?4?2Terrains?2terrain6?4att?$AA@+12
  00771	89 85 f8 f3 ff
	ff		 mov	 DWORD PTR _MapAttrName$[ebp+192], eax
  00777	8b 0d 10 00 00
	00		 mov	 ecx, DWORD PTR ??_C@_0BI@PDKPEIMP@?4?2Terrains?2terrain6?4att?$AA@+16
  0077d	89 8d fc f3 ff
	ff		 mov	 DWORD PTR _MapAttrName$[ebp+196], ecx
  00783	8b 15 14 00 00
	00		 mov	 edx, DWORD PTR ??_C@_0BI@PDKPEIMP@?4?2Terrains?2terrain6?4att?$AA@+20
  00789	89 95 00 f4 ff
	ff		 mov	 DWORD PTR _MapAttrName$[ebp+200], edx
  0078f	33 c0		 xor	 eax, eax
  00791	89 85 04 f4 ff
	ff		 mov	 DWORD PTR _MapAttrName$[ebp+204], eax
  00797	89 85 08 f4 ff
	ff		 mov	 DWORD PTR _MapAttrName$[ebp+208], eax
  0079d	89 85 0c f4 ff
	ff		 mov	 DWORD PTR _MapAttrName$[ebp+212], eax

; 945  : 		".\\Terrains\\terrain7.att",		//

  007a3	a1 00 00 00 00	 mov	 eax, DWORD PTR ??_C@_0BI@DIPDJLGK@?4?2Terrains?2terrain7?4att?$AA@
  007a8	89 85 10 f4 ff
	ff		 mov	 DWORD PTR _MapAttrName$[ebp+216], eax
  007ae	8b 0d 04 00 00
	00		 mov	 ecx, DWORD PTR ??_C@_0BI@DIPDJLGK@?4?2Terrains?2terrain7?4att?$AA@+4
  007b4	89 8d 14 f4 ff
	ff		 mov	 DWORD PTR _MapAttrName$[ebp+220], ecx
  007ba	8b 15 08 00 00
	00		 mov	 edx, DWORD PTR ??_C@_0BI@DIPDJLGK@?4?2Terrains?2terrain7?4att?$AA@+8
  007c0	89 95 18 f4 ff
	ff		 mov	 DWORD PTR _MapAttrName$[ebp+224], edx
  007c6	a1 0c 00 00 00	 mov	 eax, DWORD PTR ??_C@_0BI@DIPDJLGK@?4?2Terrains?2terrain7?4att?$AA@+12
  007cb	89 85 1c f4 ff
	ff		 mov	 DWORD PTR _MapAttrName$[ebp+228], eax
  007d1	8b 0d 10 00 00
	00		 mov	 ecx, DWORD PTR ??_C@_0BI@DIPDJLGK@?4?2Terrains?2terrain7?4att?$AA@+16
  007d7	89 8d 20 f4 ff
	ff		 mov	 DWORD PTR _MapAttrName$[ebp+232], ecx
  007dd	8b 15 14 00 00
	00		 mov	 edx, DWORD PTR ??_C@_0BI@DIPDJLGK@?4?2Terrains?2terrain7?4att?$AA@+20
  007e3	89 95 24 f4 ff
	ff		 mov	 DWORD PTR _MapAttrName$[ebp+236], edx
  007e9	33 c0		 xor	 eax, eax
  007eb	89 85 28 f4 ff
	ff		 mov	 DWORD PTR _MapAttrName$[ebp+240], eax
  007f1	89 85 2c f4 ff
	ff		 mov	 DWORD PTR _MapAttrName$[ebp+244], eax
  007f7	89 85 30 f4 ff
	ff		 mov	 DWORD PTR _MapAttrName$[ebp+248], eax

; 946  : 		".\\Terrains\\terrain8.att",		//

  007fd	a1 00 00 00 00	 mov	 eax, DWORD PTR ??_C@_0BI@MJKFCJLP@?4?2Terrains?2terrain8?4att?$AA@
  00802	89 85 34 f4 ff
	ff		 mov	 DWORD PTR _MapAttrName$[ebp+252], eax
  00808	8b 0d 04 00 00
	00		 mov	 ecx, DWORD PTR ??_C@_0BI@MJKFCJLP@?4?2Terrains?2terrain8?4att?$AA@+4
  0080e	89 8d 38 f4 ff
	ff		 mov	 DWORD PTR _MapAttrName$[ebp+256], ecx
  00814	8b 15 08 00 00
	00		 mov	 edx, DWORD PTR ??_C@_0BI@MJKFCJLP@?4?2Terrains?2terrain8?4att?$AA@+8
  0081a	89 95 3c f4 ff
	ff		 mov	 DWORD PTR _MapAttrName$[ebp+260], edx
  00820	a1 0c 00 00 00	 mov	 eax, DWORD PTR ??_C@_0BI@MJKFCJLP@?4?2Terrains?2terrain8?4att?$AA@+12
  00825	89 85 40 f4 ff
	ff		 mov	 DWORD PTR _MapAttrName$[ebp+264], eax
  0082b	8b 0d 10 00 00
	00		 mov	 ecx, DWORD PTR ??_C@_0BI@MJKFCJLP@?4?2Terrains?2terrain8?4att?$AA@+16
  00831	89 8d 44 f4 ff
	ff		 mov	 DWORD PTR _MapAttrName$[ebp+268], ecx
  00837	8b 15 14 00 00
	00		 mov	 edx, DWORD PTR ??_C@_0BI@MJKFCJLP@?4?2Terrains?2terrain8?4att?$AA@+20
  0083d	89 95 48 f4 ff
	ff		 mov	 DWORD PTR _MapAttrName$[ebp+272], edx
  00843	33 c0		 xor	 eax, eax
  00845	89 85 4c f4 ff
	ff		 mov	 DWORD PTR _MapAttrName$[ebp+276], eax
  0084b	89 85 50 f4 ff
	ff		 mov	 DWORD PTR _MapAttrName$[ebp+280], eax
  00851	89 85 54 f4 ff
	ff		 mov	 DWORD PTR _MapAttrName$[ebp+284], eax

; 947  : 		".\\Terrains\\terrain9.att",		//

  00857	a1 00 00 00 00	 mov	 eax, DWORD PTR ??_C@_0BI@CPJPKBK@?4?2Terrains?2terrain9?4att?$AA@
  0085c	89 85 58 f4 ff
	ff		 mov	 DWORD PTR _MapAttrName$[ebp+288], eax
  00862	8b 0d 04 00 00
	00		 mov	 ecx, DWORD PTR ??_C@_0BI@CPJPKBK@?4?2Terrains?2terrain9?4att?$AA@+4
  00868	89 8d 5c f4 ff
	ff		 mov	 DWORD PTR _MapAttrName$[ebp+292], ecx
  0086e	8b 15 08 00 00
	00		 mov	 edx, DWORD PTR ??_C@_0BI@CPJPKBK@?4?2Terrains?2terrain9?4att?$AA@+8
  00874	89 95 60 f4 ff
	ff		 mov	 DWORD PTR _MapAttrName$[ebp+296], edx
  0087a	a1 0c 00 00 00	 mov	 eax, DWORD PTR ??_C@_0BI@CPJPKBK@?4?2Terrains?2terrain9?4att?$AA@+12
  0087f	89 85 64 f4 ff
	ff		 mov	 DWORD PTR _MapAttrName$[ebp+300], eax
  00885	8b 0d 10 00 00
	00		 mov	 ecx, DWORD PTR ??_C@_0BI@CPJPKBK@?4?2Terrains?2terrain9?4att?$AA@+16
  0088b	89 8d 68 f4 ff
	ff		 mov	 DWORD PTR _MapAttrName$[ebp+304], ecx
  00891	8b 15 14 00 00
	00		 mov	 edx, DWORD PTR ??_C@_0BI@CPJPKBK@?4?2Terrains?2terrain9?4att?$AA@+20
  00897	89 95 6c f4 ff
	ff		 mov	 DWORD PTR _MapAttrName$[ebp+308], edx
  0089d	33 c0		 xor	 eax, eax
  0089f	89 85 70 f4 ff
	ff		 mov	 DWORD PTR _MapAttrName$[ebp+312], eax
  008a5	89 85 74 f4 ff
	ff		 mov	 DWORD PTR _MapAttrName$[ebp+316], eax
  008ab	89 85 78 f4 ff
	ff		 mov	 DWORD PTR _MapAttrName$[ebp+320], eax

; 948  : 		".\\Terrains\\terrain10.att",	//

  008b1	b9 06 00 00 00	 mov	 ecx, 6
  008b6	be 00 00 00 00	 mov	 esi, OFFSET ??_C@_0BJ@BGEPJML@?4?2Terrains?2terrain10?4att?$AA@
  008bb	8d bd 7c f4 ff
	ff		 lea	 edi, DWORD PTR _MapAttrName$[ebp+324]
  008c1	f3 a5		 rep movsd
  008c3	a4		 movsb
  008c4	33 c0		 xor	 eax, eax
  008c6	89 85 95 f4 ff
	ff		 mov	 DWORD PTR _MapAttrName$[ebp+349], eax
  008cc	89 85 99 f4 ff
	ff		 mov	 DWORD PTR _MapAttrName$[ebp+353], eax
  008d2	66 89 85 9d f4
	ff ff		 mov	 WORD PTR _MapAttrName$[ebp+357], ax
  008d9	88 85 9f f4 ff
	ff		 mov	 BYTE PTR _MapAttrName$[ebp+359], al

; 949  : 
; 950  : 		".\\Terrains\\terrain11.att",	//

  008df	b9 06 00 00 00	 mov	 ecx, 6
  008e4	be 00 00 00 00	 mov	 esi, OFFSET ??_C@_0BJ@MKDICKGO@?4?2Terrains?2terrain11?4att?$AA@
  008e9	8d bd a0 f4 ff
	ff		 lea	 edi, DWORD PTR _MapAttrName$[ebp+360]
  008ef	f3 a5		 rep movsd
  008f1	a4		 movsb
  008f2	33 c0		 xor	 eax, eax
  008f4	89 85 b9 f4 ff
	ff		 mov	 DWORD PTR _MapAttrName$[ebp+385], eax
  008fa	89 85 bd f4 ff
	ff		 mov	 DWORD PTR _MapAttrName$[ebp+389], eax
  00900	66 89 85 c1 f4
	ff ff		 mov	 WORD PTR _MapAttrName$[ebp+393], ax
  00907	88 85 c3 f4 ff
	ff		 mov	 BYTE PTR _MapAttrName$[ebp+395], al

; 951  : 
; 952  : 		".\\Terrains\\terrain12.att",	//

  0090d	b9 06 00 00 00	 mov	 ecx, 6
  00912	be 00 00 00 00	 mov	 esi, OFFSET ??_C@_0BJ@EMKMFIMA@?4?2Terrains?2terrain12?4att?$AA@
  00917	8d bd c4 f4 ff
	ff		 lea	 edi, DWORD PTR _MapAttrName$[ebp+396]
  0091d	f3 a5		 rep movsd
  0091f	a4		 movsb
  00920	33 c0		 xor	 eax, eax
  00922	89 85 dd f4 ff
	ff		 mov	 DWORD PTR _MapAttrName$[ebp+421], eax
  00928	89 85 e1 f4 ff
	ff		 mov	 DWORD PTR _MapAttrName$[ebp+425], eax
  0092e	66 89 85 e5 f4
	ff ff		 mov	 WORD PTR _MapAttrName$[ebp+429], ax
  00935	88 85 e7 f4 ff
	ff		 mov	 BYTE PTR _MapAttrName$[ebp+431], al

; 953  : 		".\\Terrains\\terrain12.att",	//

  0093b	b9 06 00 00 00	 mov	 ecx, 6
  00940	be 00 00 00 00	 mov	 esi, OFFSET ??_C@_0BJ@EMKMFIMA@?4?2Terrains?2terrain12?4att?$AA@
  00945	8d bd e8 f4 ff
	ff		 lea	 edi, DWORD PTR _MapAttrName$[ebp+432]
  0094b	f3 a5		 rep movsd
  0094d	a4		 movsb
  0094e	33 c0		 xor	 eax, eax
  00950	89 85 01 f5 ff
	ff		 mov	 DWORD PTR _MapAttrName$[ebp+457], eax
  00956	89 85 05 f5 ff
	ff		 mov	 DWORD PTR _MapAttrName$[ebp+461], eax
  0095c	66 89 85 09 f5
	ff ff		 mov	 WORD PTR _MapAttrName$[ebp+465], ax
  00963	88 85 0b f5 ff
	ff		 mov	 BYTE PTR _MapAttrName$[ebp+467], al

; 954  : 		".\\Terrains\\terrain12.att",	//

  00969	b9 06 00 00 00	 mov	 ecx, 6
  0096e	be 00 00 00 00	 mov	 esi, OFFSET ??_C@_0BJ@EMKMFIMA@?4?2Terrains?2terrain12?4att?$AA@
  00973	8d bd 0c f5 ff
	ff		 lea	 edi, DWORD PTR _MapAttrName$[ebp+468]
  00979	f3 a5		 rep movsd
  0097b	a4		 movsb
  0097c	33 c0		 xor	 eax, eax
  0097e	89 85 25 f5 ff
	ff		 mov	 DWORD PTR _MapAttrName$[ebp+493], eax
  00984	89 85 29 f5 ff
	ff		 mov	 DWORD PTR _MapAttrName$[ebp+497], eax
  0098a	66 89 85 2d f5
	ff ff		 mov	 WORD PTR _MapAttrName$[ebp+501], ax
  00991	88 85 2f f5 ff
	ff		 mov	 BYTE PTR _MapAttrName$[ebp+503], al

; 955  : 		".\\Terrains\\terrain12.att",	//

  00997	b9 06 00 00 00	 mov	 ecx, 6
  0099c	be 00 00 00 00	 mov	 esi, OFFSET ??_C@_0BJ@EMKMFIMA@?4?2Terrains?2terrain12?4att?$AA@
  009a1	8d bd 30 f5 ff
	ff		 lea	 edi, DWORD PTR _MapAttrName$[ebp+504]
  009a7	f3 a5		 rep movsd
  009a9	a4		 movsb
  009aa	33 c0		 xor	 eax, eax
  009ac	89 85 49 f5 ff
	ff		 mov	 DWORD PTR _MapAttrName$[ebp+529], eax
  009b2	89 85 4d f5 ff
	ff		 mov	 DWORD PTR _MapAttrName$[ebp+533], eax
  009b8	66 89 85 51 f5
	ff ff		 mov	 WORD PTR _MapAttrName$[ebp+537], ax
  009bf	88 85 53 f5 ff
	ff		 mov	 BYTE PTR _MapAttrName$[ebp+539], al

; 956  : 		".\\Terrains\\terrain12.att",	//

  009c5	b9 06 00 00 00	 mov	 ecx, 6
  009ca	be 00 00 00 00	 mov	 esi, OFFSET ??_C@_0BJ@EMKMFIMA@?4?2Terrains?2terrain12?4att?$AA@
  009cf	8d bd 54 f5 ff
	ff		 lea	 edi, DWORD PTR _MapAttrName$[ebp+540]
  009d5	f3 a5		 rep movsd
  009d7	a4		 movsb
  009d8	33 c0		 xor	 eax, eax
  009da	89 85 6d f5 ff
	ff		 mov	 DWORD PTR _MapAttrName$[ebp+565], eax
  009e0	89 85 71 f5 ff
	ff		 mov	 DWORD PTR _MapAttrName$[ebp+569], eax
  009e6	66 89 85 75 f5
	ff ff		 mov	 WORD PTR _MapAttrName$[ebp+573], ax
  009ed	88 85 77 f5 ff
	ff		 mov	 BYTE PTR _MapAttrName$[ebp+575], al

; 957  : 		".\\Terrains\\terrain12.att",	//

  009f3	b9 06 00 00 00	 mov	 ecx, 6
  009f8	be 00 00 00 00	 mov	 esi, OFFSET ??_C@_0BJ@EMKMFIMA@?4?2Terrains?2terrain12?4att?$AA@
  009fd	8d bd 78 f5 ff
	ff		 lea	 edi, DWORD PTR _MapAttrName$[ebp+576]
  00a03	f3 a5		 rep movsd
  00a05	a4		 movsb
  00a06	33 c0		 xor	 eax, eax
  00a08	89 85 91 f5 ff
	ff		 mov	 DWORD PTR _MapAttrName$[ebp+601], eax
  00a0e	89 85 95 f5 ff
	ff		 mov	 DWORD PTR _MapAttrName$[ebp+605], eax
  00a14	66 89 85 99 f5
	ff ff		 mov	 WORD PTR _MapAttrName$[ebp+609], ax
  00a1b	88 85 9b f5 ff
	ff		 mov	 BYTE PTR _MapAttrName$[ebp+611], al

; 958  : 		".\\Terrains\\terrain12.att",	//

  00a21	b9 06 00 00 00	 mov	 ecx, 6
  00a26	be 00 00 00 00	 mov	 esi, OFFSET ??_C@_0BJ@EMKMFIMA@?4?2Terrains?2terrain12?4att?$AA@
  00a2b	8d bd 9c f5 ff
	ff		 lea	 edi, DWORD PTR _MapAttrName$[ebp+612]
  00a31	f3 a5		 rep movsd
  00a33	a4		 movsb
  00a34	33 c0		 xor	 eax, eax
  00a36	89 85 b5 f5 ff
	ff		 mov	 DWORD PTR _MapAttrName$[ebp+637], eax
  00a3c	89 85 b9 f5 ff
	ff		 mov	 DWORD PTR _MapAttrName$[ebp+641], eax
  00a42	66 89 85 bd f5
	ff ff		 mov	 WORD PTR _MapAttrName$[ebp+645], ax
  00a49	88 85 bf f5 ff
	ff		 mov	 BYTE PTR _MapAttrName$[ebp+647], al

; 959  : 
; 960  : 		".\\Terrains\\terrain19.att",	//

  00a4f	b9 06 00 00 00	 mov	 ecx, 6
  00a54	be 00 00 00 00	 mov	 esi, OFFSET ??_C@_0BJ@CGGLKIAD@?4?2Terrains?2terrain19?4att?$AA@
  00a59	8d bd c0 f5 ff
	ff		 lea	 edi, DWORD PTR _MapAttrName$[ebp+648]
  00a5f	f3 a5		 rep movsd
  00a61	a4		 movsb
  00a62	33 c0		 xor	 eax, eax
  00a64	89 85 d9 f5 ff
	ff		 mov	 DWORD PTR _MapAttrName$[ebp+673], eax
  00a6a	89 85 dd f5 ff
	ff		 mov	 DWORD PTR _MapAttrName$[ebp+677], eax
  00a70	66 89 85 e1 f5
	ff ff		 mov	 WORD PTR _MapAttrName$[ebp+681], ax
  00a77	88 85 e3 f5 ff
	ff		 mov	 BYTE PTR _MapAttrName$[ebp+683], al

; 961  : 		".\\Terrains\\terrain19.att",	//

  00a7d	b9 06 00 00 00	 mov	 ecx, 6
  00a82	be 00 00 00 00	 mov	 esi, OFFSET ??_C@_0BJ@CGGLKIAD@?4?2Terrains?2terrain19?4att?$AA@
  00a87	8d bd e4 f5 ff
	ff		 lea	 edi, DWORD PTR _MapAttrName$[ebp+684]
  00a8d	f3 a5		 rep movsd
  00a8f	a4		 movsb
  00a90	33 c0		 xor	 eax, eax
  00a92	89 85 fd f5 ff
	ff		 mov	 DWORD PTR _MapAttrName$[ebp+709], eax
  00a98	89 85 01 f6 ff
	ff		 mov	 DWORD PTR _MapAttrName$[ebp+713], eax
  00a9e	66 89 85 05 f6
	ff ff		 mov	 WORD PTR _MapAttrName$[ebp+717], ax
  00aa5	88 85 07 f6 ff
	ff		 mov	 BYTE PTR _MapAttrName$[ebp+719], al

; 962  : 		".\\Terrains\\terrain19.att",	//

  00aab	b9 06 00 00 00	 mov	 ecx, 6
  00ab0	be 00 00 00 00	 mov	 esi, OFFSET ??_C@_0BJ@CGGLKIAD@?4?2Terrains?2terrain19?4att?$AA@
  00ab5	8d bd 08 f6 ff
	ff		 lea	 edi, DWORD PTR _MapAttrName$[ebp+720]
  00abb	f3 a5		 rep movsd
  00abd	a4		 movsb
  00abe	33 c0		 xor	 eax, eax
  00ac0	89 85 21 f6 ff
	ff		 mov	 DWORD PTR _MapAttrName$[ebp+745], eax
  00ac6	89 85 25 f6 ff
	ff		 mov	 DWORD PTR _MapAttrName$[ebp+749], eax
  00acc	66 89 85 29 f6
	ff ff		 mov	 WORD PTR _MapAttrName$[ebp+753], ax
  00ad3	88 85 2b f6 ff
	ff		 mov	 BYTE PTR _MapAttrName$[ebp+755], al

; 963  : 		".\\Terrains\\terrain19.att",	//

  00ad9	b9 06 00 00 00	 mov	 ecx, 6
  00ade	be 00 00 00 00	 mov	 esi, OFFSET ??_C@_0BJ@CGGLKIAD@?4?2Terrains?2terrain19?4att?$AA@
  00ae3	8d bd 2c f6 ff
	ff		 lea	 edi, DWORD PTR _MapAttrName$[ebp+756]
  00ae9	f3 a5		 rep movsd
  00aeb	a4		 movsb
  00aec	33 c0		 xor	 eax, eax
  00aee	89 85 45 f6 ff
	ff		 mov	 DWORD PTR _MapAttrName$[ebp+781], eax
  00af4	89 85 49 f6 ff
	ff		 mov	 DWORD PTR _MapAttrName$[ebp+785], eax
  00afa	66 89 85 4d f6
	ff ff		 mov	 WORD PTR _MapAttrName$[ebp+789], ax
  00b01	88 85 4f f6 ff
	ff		 mov	 BYTE PTR _MapAttrName$[ebp+791], al

; 964  : 		".\\Terrains\\terrain19.att",	//

  00b07	b9 06 00 00 00	 mov	 ecx, 6
  00b0c	be 00 00 00 00	 mov	 esi, OFFSET ??_C@_0BJ@CGGLKIAD@?4?2Terrains?2terrain19?4att?$AA@
  00b11	8d bd 50 f6 ff
	ff		 lea	 edi, DWORD PTR _MapAttrName$[ebp+792]
  00b17	f3 a5		 rep movsd
  00b19	a4		 movsb
  00b1a	33 c0		 xor	 eax, eax
  00b1c	89 85 69 f6 ff
	ff		 mov	 DWORD PTR _MapAttrName$[ebp+817], eax
  00b22	89 85 6d f6 ff
	ff		 mov	 DWORD PTR _MapAttrName$[ebp+821], eax
  00b28	66 89 85 71 f6
	ff ff		 mov	 WORD PTR _MapAttrName$[ebp+825], ax
  00b2f	88 85 73 f6 ff
	ff		 mov	 BYTE PTR _MapAttrName$[ebp+827], al

; 965  : 		".\\Terrains\\terrain19.att",	//

  00b35	b9 06 00 00 00	 mov	 ecx, 6
  00b3a	be 00 00 00 00	 mov	 esi, OFFSET ??_C@_0BJ@CGGLKIAD@?4?2Terrains?2terrain19?4att?$AA@
  00b3f	8d bd 74 f6 ff
	ff		 lea	 edi, DWORD PTR _MapAttrName$[ebp+828]
  00b45	f3 a5		 rep movsd
  00b47	a4		 movsb
  00b48	33 c0		 xor	 eax, eax
  00b4a	89 85 8d f6 ff
	ff		 mov	 DWORD PTR _MapAttrName$[ebp+853], eax
  00b50	89 85 91 f6 ff
	ff		 mov	 DWORD PTR _MapAttrName$[ebp+857], eax
  00b56	66 89 85 95 f6
	ff ff		 mov	 WORD PTR _MapAttrName$[ebp+861], ax
  00b5d	88 85 97 f6 ff
	ff		 mov	 BYTE PTR _MapAttrName$[ebp+863], al

; 966  : 
; 967  : 		".\\Terrains\\terrain25.att",	//

  00b63	b9 06 00 00 00	 mov	 ecx, 6
  00b68	be 00 00 00 00	 mov	 esi, OFFSET ??_C@_0BJ@GAEBHCOF@?4?2Terrains?2terrain25?4att?$AA@
  00b6d	8d bd 98 f6 ff
	ff		 lea	 edi, DWORD PTR _MapAttrName$[ebp+864]
  00b73	f3 a5		 rep movsd
  00b75	a4		 movsb
  00b76	33 c0		 xor	 eax, eax
  00b78	89 85 b1 f6 ff
	ff		 mov	 DWORD PTR _MapAttrName$[ebp+889], eax
  00b7e	89 85 b5 f6 ff
	ff		 mov	 DWORD PTR _MapAttrName$[ebp+893], eax
  00b84	66 89 85 b9 f6
	ff ff		 mov	 WORD PTR _MapAttrName$[ebp+897], ax
  00b8b	88 85 bb f6 ff
	ff		 mov	 BYTE PTR _MapAttrName$[ebp+899], al

; 968  : 		".\\Terrains\\terrain25.att",	//

  00b91	b9 06 00 00 00	 mov	 ecx, 6
  00b96	be 00 00 00 00	 mov	 esi, OFFSET ??_C@_0BJ@GAEBHCOF@?4?2Terrains?2terrain25?4att?$AA@
  00b9b	8d bd bc f6 ff
	ff		 lea	 edi, DWORD PTR _MapAttrName$[ebp+900]
  00ba1	f3 a5		 rep movsd
  00ba3	a4		 movsb
  00ba4	33 c0		 xor	 eax, eax
  00ba6	89 85 d5 f6 ff
	ff		 mov	 DWORD PTR _MapAttrName$[ebp+925], eax
  00bac	89 85 d9 f6 ff
	ff		 mov	 DWORD PTR _MapAttrName$[ebp+929], eax
  00bb2	66 89 85 dd f6
	ff ff		 mov	 WORD PTR _MapAttrName$[ebp+933], ax
  00bb9	88 85 df f6 ff
	ff		 mov	 BYTE PTR _MapAttrName$[ebp+935], al

; 969  : 		".\\Terrains\\terrain25.att",	//

  00bbf	b9 06 00 00 00	 mov	 ecx, 6
  00bc4	be 00 00 00 00	 mov	 esi, OFFSET ??_C@_0BJ@GAEBHCOF@?4?2Terrains?2terrain25?4att?$AA@
  00bc9	8d bd e0 f6 ff
	ff		 lea	 edi, DWORD PTR _MapAttrName$[ebp+936]
  00bcf	f3 a5		 rep movsd
  00bd1	a4		 movsb
  00bd2	33 c0		 xor	 eax, eax
  00bd4	89 85 f9 f6 ff
	ff		 mov	 DWORD PTR _MapAttrName$[ebp+961], eax
  00bda	89 85 fd f6 ff
	ff		 mov	 DWORD PTR _MapAttrName$[ebp+965], eax
  00be0	66 89 85 01 f7
	ff ff		 mov	 WORD PTR _MapAttrName$[ebp+969], ax
  00be7	88 85 03 f7 ff
	ff		 mov	 BYTE PTR _MapAttrName$[ebp+971], al

; 970  : 		".\\Terrains\\terrain25.att",	//

  00bed	b9 06 00 00 00	 mov	 ecx, 6
  00bf2	be 00 00 00 00	 mov	 esi, OFFSET ??_C@_0BJ@GAEBHCOF@?4?2Terrains?2terrain25?4att?$AA@
  00bf7	8d bd 04 f7 ff
	ff		 lea	 edi, DWORD PTR _MapAttrName$[ebp+972]
  00bfd	f3 a5		 rep movsd
  00bff	a4		 movsb
  00c00	33 c0		 xor	 eax, eax
  00c02	89 85 1d f7 ff
	ff		 mov	 DWORD PTR _MapAttrName$[ebp+997], eax
  00c08	89 85 21 f7 ff
	ff		 mov	 DWORD PTR _MapAttrName$[ebp+1001], eax
  00c0e	66 89 85 25 f7
	ff ff		 mov	 WORD PTR _MapAttrName$[ebp+1005], ax
  00c15	88 85 27 f7 ff
	ff		 mov	 BYTE PTR _MapAttrName$[ebp+1007], al

; 971  : 		".\\Terrains\\terrain25.att",	//

  00c1b	b9 06 00 00 00	 mov	 ecx, 6
  00c20	be 00 00 00 00	 mov	 esi, OFFSET ??_C@_0BJ@GAEBHCOF@?4?2Terrains?2terrain25?4att?$AA@
  00c25	8d bd 28 f7 ff
	ff		 lea	 edi, DWORD PTR _MapAttrName$[ebp+1008]
  00c2b	f3 a5		 rep movsd
  00c2d	a4		 movsb
  00c2e	33 c0		 xor	 eax, eax
  00c30	89 85 41 f7 ff
	ff		 mov	 DWORD PTR _MapAttrName$[ebp+1033], eax
  00c36	89 85 45 f7 ff
	ff		 mov	 DWORD PTR _MapAttrName$[ebp+1037], eax
  00c3c	66 89 85 49 f7
	ff ff		 mov	 WORD PTR _MapAttrName$[ebp+1041], ax
  00c43	88 85 4b f7 ff
	ff		 mov	 BYTE PTR _MapAttrName$[ebp+1043], al

; 972  : 		".\\Terrains\\terrain25.att",	//

  00c49	b9 06 00 00 00	 mov	 ecx, 6
  00c4e	be 00 00 00 00	 mov	 esi, OFFSET ??_C@_0BJ@GAEBHCOF@?4?2Terrains?2terrain25?4att?$AA@
  00c53	8d bd 4c f7 ff
	ff		 lea	 edi, DWORD PTR _MapAttrName$[ebp+1044]
  00c59	f3 a5		 rep movsd
  00c5b	a4		 movsb
  00c5c	33 c0		 xor	 eax, eax
  00c5e	89 85 65 f7 ff
	ff		 mov	 DWORD PTR _MapAttrName$[ebp+1069], eax
  00c64	89 85 69 f7 ff
	ff		 mov	 DWORD PTR _MapAttrName$[ebp+1073], eax
  00c6a	66 89 85 6d f7
	ff ff		 mov	 WORD PTR _MapAttrName$[ebp+1077], ax
  00c71	88 85 6f f7 ff
	ff		 mov	 BYTE PTR _MapAttrName$[ebp+1079], al

; 973  : 
; 974  : 		".\\Terrains\\terrain31.att",	//

  00c77	b9 06 00 00 00	 mov	 ecx, 6
  00c7c	be 00 00 00 00	 mov	 esi, OFFSET ??_C@_0BJ@FNKHDLEH@?4?2Terrains?2terrain31?4att?$AA@
  00c81	8d bd 70 f7 ff
	ff		 lea	 edi, DWORD PTR _MapAttrName$[ebp+1080]
  00c87	f3 a5		 rep movsd
  00c89	a4		 movsb
  00c8a	33 c0		 xor	 eax, eax
  00c8c	89 85 89 f7 ff
	ff		 mov	 DWORD PTR _MapAttrName$[ebp+1105], eax
  00c92	89 85 8d f7 ff
	ff		 mov	 DWORD PTR _MapAttrName$[ebp+1109], eax
  00c98	66 89 85 91 f7
	ff ff		 mov	 WORD PTR _MapAttrName$[ebp+1113], ax
  00c9f	88 85 93 f7 ff
	ff		 mov	 BYTE PTR _MapAttrName$[ebp+1115], al

; 975  : 		".\\Terrains\\terrain32.att",	//

  00ca5	b9 06 00 00 00	 mov	 ecx, 6
  00caa	be 00 00 00 00	 mov	 esi, OFFSET ??_C@_0BJ@NLDDEJOJ@?4?2Terrains?2terrain32?4att?$AA@
  00caf	8d bd 94 f7 ff
	ff		 lea	 edi, DWORD PTR _MapAttrName$[ebp+1116]
  00cb5	f3 a5		 rep movsd
  00cb7	a4		 movsb
  00cb8	33 c0		 xor	 eax, eax
  00cba	89 85 ad f7 ff
	ff		 mov	 DWORD PTR _MapAttrName$[ebp+1141], eax
  00cc0	89 85 b1 f7 ff
	ff		 mov	 DWORD PTR _MapAttrName$[ebp+1145], eax
  00cc6	66 89 85 b5 f7
	ff ff		 mov	 WORD PTR _MapAttrName$[ebp+1149], ax
  00ccd	88 85 b7 f7 ff
	ff		 mov	 BYTE PTR _MapAttrName$[ebp+1151], al

; 976  : 		".\\Terrains\\terrain33.att",	//

  00cd3	b9 06 00 00 00	 mov	 ecx, 6
  00cd8	be 00 00 00 00	 mov	 esi, OFFSET ??_C@_0BJ@BAGPJKEM@?4?2Terrains?2terrain33?4att?$AA@
  00cdd	8d bd b8 f7 ff
	ff		 lea	 edi, DWORD PTR _MapAttrName$[ebp+1152]
  00ce3	f3 a5		 rep movsd
  00ce5	a4		 movsb
  00ce6	33 c0		 xor	 eax, eax
  00ce8	89 85 d1 f7 ff
	ff		 mov	 DWORD PTR _MapAttrName$[ebp+1177], eax
  00cee	89 85 d5 f7 ff
	ff		 mov	 DWORD PTR _MapAttrName$[ebp+1181], eax
  00cf4	66 89 85 d9 f7
	ff ff		 mov	 WORD PTR _MapAttrName$[ebp+1185], ax
  00cfb	88 85 db f7 ff
	ff		 mov	 BYTE PTR _MapAttrName$[ebp+1187], al

; 977  : 		".\\Terrains\\terrain34.att",	//

  00d01	b9 06 00 00 00	 mov	 ecx, 6
  00d06	be 00 00 00 00	 mov	 esi, OFFSET ??_C@_0BJ@NGKKKPE@?4?2Terrains?2terrain34?4att?$AA@
  00d0b	8d bd dc f7 ff
	ff		 lea	 edi, DWORD PTR _MapAttrName$[ebp+1188]
  00d11	f3 a5		 rep movsd
  00d13	a4		 movsb
  00d14	33 c0		 xor	 eax, eax
  00d16	89 85 f5 f7 ff
	ff		 mov	 DWORD PTR _MapAttrName$[ebp+1213], eax
  00d1c	89 85 f9 f7 ff
	ff		 mov	 DWORD PTR _MapAttrName$[ebp+1217], eax
  00d22	66 89 85 fd f7
	ff ff		 mov	 WORD PTR _MapAttrName$[ebp+1221], ax
  00d29	88 85 ff f7 ff
	ff		 mov	 BYTE PTR _MapAttrName$[ebp+1223], al

; 978  : 		".\\Terrains\\terrain35.att",	//

  00d2f	b9 06 00 00 00	 mov	 ecx, 6
  00d34	be 00 00 00 00	 mov	 esi, OFFSET ??_C@_0BJ@MGDGHJFB@?4?2Terrains?2terrain35?4att?$AA@
  00d39	8d bd 00 f8 ff
	ff		 lea	 edi, DWORD PTR _MapAttrName$[ebp+1224]
  00d3f	f3 a5		 rep movsd
  00d41	a4		 movsb
  00d42	33 c0		 xor	 eax, eax
  00d44	89 85 19 f8 ff
	ff		 mov	 DWORD PTR _MapAttrName$[ebp+1249], eax
  00d4a	89 85 1d f8 ff
	ff		 mov	 DWORD PTR _MapAttrName$[ebp+1253], eax
  00d50	66 89 85 21 f8
	ff ff		 mov	 WORD PTR _MapAttrName$[ebp+1257], ax
  00d57	88 85 23 f8 ff
	ff		 mov	 BYTE PTR _MapAttrName$[ebp+1259], al

; 979  : 		".\\Terrains\\terrain36.att",	//

  00d5d	b9 06 00 00 00	 mov	 ecx, 6
  00d62	be 00 00 00 00	 mov	 esi, OFFSET ??_C@_0BJ@EAKCALPP@?4?2Terrains?2terrain36?4att?$AA@
  00d67	8d bd 24 f8 ff
	ff		 lea	 edi, DWORD PTR _MapAttrName$[ebp+1260]
  00d6d	f3 a5		 rep movsd
  00d6f	a4		 movsb
  00d70	33 c0		 xor	 eax, eax
  00d72	89 85 3d f8 ff
	ff		 mov	 DWORD PTR _MapAttrName$[ebp+1285], eax
  00d78	89 85 41 f8 ff
	ff		 mov	 DWORD PTR _MapAttrName$[ebp+1289], eax
  00d7e	66 89 85 45 f8
	ff ff		 mov	 WORD PTR _MapAttrName$[ebp+1293], ax
  00d85	88 85 47 f8 ff
	ff		 mov	 BYTE PTR _MapAttrName$[ebp+1295], al

; 980  : 		".\\Terrains\\terrain37.att",	//

  00d8b	b9 06 00 00 00	 mov	 ecx, 6
  00d90	be 00 00 00 00	 mov	 esi, OFFSET ??_C@_0BJ@ILPONIFK@?4?2Terrains?2terrain37?4att?$AA@
  00d95	8d bd 48 f8 ff
	ff		 lea	 edi, DWORD PTR _MapAttrName$[ebp+1296]
  00d9b	f3 a5		 rep movsd
  00d9d	a4		 movsb
  00d9e	33 c0		 xor	 eax, eax
  00da0	89 85 61 f8 ff
	ff		 mov	 DWORD PTR _MapAttrName$[ebp+1321], eax
  00da6	89 85 65 f8 ff
	ff		 mov	 DWORD PTR _MapAttrName$[ebp+1325], eax
  00dac	66 89 85 69 f8
	ff ff		 mov	 WORD PTR _MapAttrName$[ebp+1329], ax
  00db3	88 85 6b f8 ff
	ff		 mov	 BYTE PTR _MapAttrName$[ebp+1331], al

; 981  : 		".\\Terrains\\terrain38.att",	//

  00db9	b9 06 00 00 00	 mov	 ecx, 6
  00dbe	be 00 00 00 00	 mov	 esi, OFFSET ??_C@_0BJ@HKKIGKIP@?4?2Terrains?2terrain38?4att?$AA@
  00dc3	8d bd 6c f8 ff
	ff		 lea	 edi, DWORD PTR _MapAttrName$[ebp+1332]
  00dc9	f3 a5		 rep movsd
  00dcb	a4		 movsb
  00dcc	33 c0		 xor	 eax, eax
  00dce	89 85 85 f8 ff
	ff		 mov	 DWORD PTR _MapAttrName$[ebp+1357], eax
  00dd4	89 85 89 f8 ff
	ff		 mov	 DWORD PTR _MapAttrName$[ebp+1361], eax
  00dda	66 89 85 8d f8
	ff ff		 mov	 WORD PTR _MapAttrName$[ebp+1365], ax
  00de1	88 85 8f f8 ff
	ff		 mov	 BYTE PTR _MapAttrName$[ebp+1367], al

; 982  : 		".\\Terrains\\terrain39.att",	//

  00de7	b9 06 00 00 00	 mov	 ecx, 6
  00dec	be 00 00 00 00	 mov	 esi, OFFSET ??_C@_0BJ@LBPELJCK@?4?2Terrains?2terrain39?4att?$AA@
  00df1	8d bd 90 f8 ff
	ff		 lea	 edi, DWORD PTR _MapAttrName$[ebp+1368]
  00df7	f3 a5		 rep movsd
  00df9	a4		 movsb
  00dfa	33 c0		 xor	 eax, eax
  00dfc	89 85 a9 f8 ff
	ff		 mov	 DWORD PTR _MapAttrName$[ebp+1393], eax
  00e02	89 85 ad f8 ff
	ff		 mov	 DWORD PTR _MapAttrName$[ebp+1397], eax
  00e08	66 89 85 b1 f8
	ff ff		 mov	 WORD PTR _MapAttrName$[ebp+1401], ax
  00e0f	88 85 b3 f8 ff
	ff		 mov	 BYTE PTR _MapAttrName$[ebp+1403], al

; 983  : 		".\\Terrains\\terrain40.att",	//

  00e15	b9 06 00 00 00	 mov	 ecx, 6
  00e1a	be 00 00 00 00	 mov	 esi, OFFSET ??_C@_0BJ@FDFMNGGM@?4?2Terrains?2terrain40?4att?$AA@
  00e1f	8d bd b4 f8 ff
	ff		 lea	 edi, DWORD PTR _MapAttrName$[ebp+1404]
  00e25	f3 a5		 rep movsd
  00e27	a4		 movsb
  00e28	33 c0		 xor	 eax, eax
  00e2a	89 85 cd f8 ff
	ff		 mov	 DWORD PTR _MapAttrName$[ebp+1429], eax
  00e30	89 85 d1 f8 ff
	ff		 mov	 DWORD PTR _MapAttrName$[ebp+1433], eax
  00e36	66 89 85 d5 f8
	ff ff		 mov	 WORD PTR _MapAttrName$[ebp+1437], ax
  00e3d	88 85 d7 f8 ff
	ff		 mov	 BYTE PTR _MapAttrName$[ebp+1439], al

; 984  : 
; 985  : 		".\\Terrains\\terrain41.att",	// GM Summon Zone

  00e43	b9 06 00 00 00	 mov	 ecx, 6
  00e48	be 00 00 00 00	 mov	 esi, OFFSET ??_C@_0BJ@JIAAAFMJ@?4?2Terrains?2terrain41?4att?$AA@
  00e4d	8d bd d8 f8 ff
	ff		 lea	 edi, DWORD PTR _MapAttrName$[ebp+1440]
  00e53	f3 a5		 rep movsd
  00e55	a4		 movsb
  00e56	33 c0		 xor	 eax, eax
  00e58	89 85 f1 f8 ff
	ff		 mov	 DWORD PTR _MapAttrName$[ebp+1465], eax
  00e5e	89 85 f5 f8 ff
	ff		 mov	 DWORD PTR _MapAttrName$[ebp+1469], eax
  00e64	66 89 85 f9 f8
	ff ff		 mov	 WORD PTR _MapAttrName$[ebp+1473], ax
  00e6b	88 85 fb f8 ff
	ff		 mov	 BYTE PTR _MapAttrName$[ebp+1475], al

; 986  : 		".\\Terrains\\terrain42.att",	// Balgass Barracks

  00e71	b9 06 00 00 00	 mov	 ecx, 6
  00e76	be 00 00 00 00	 mov	 esi, OFFSET ??_C@_0BJ@BOJEHHGH@?4?2Terrains?2terrain42?4att?$AA@
  00e7b	8d bd fc f8 ff
	ff		 lea	 edi, DWORD PTR _MapAttrName$[ebp+1476]
  00e81	f3 a5		 rep movsd
  00e83	a4		 movsb
  00e84	33 c0		 xor	 eax, eax
  00e86	89 85 15 f9 ff
	ff		 mov	 DWORD PTR _MapAttrName$[ebp+1501], eax
  00e8c	89 85 19 f9 ff
	ff		 mov	 DWORD PTR _MapAttrName$[ebp+1505], eax
  00e92	66 89 85 1d f9
	ff ff		 mov	 WORD PTR _MapAttrName$[ebp+1509], ax
  00e99	88 85 1f f9 ff
	ff		 mov	 BYTE PTR _MapAttrName$[ebp+1511], al

; 987  : 		".\\Terrains\\terrain43.att",	// Balgass Refugee

  00e9f	b9 06 00 00 00	 mov	 ecx, 6
  00ea4	be 00 00 00 00	 mov	 esi, OFFSET ??_C@_0BJ@NFMIKEMC@?4?2Terrains?2terrain43?4att?$AA@
  00ea9	8d bd 20 f9 ff
	ff		 lea	 edi, DWORD PTR _MapAttrName$[ebp+1512]
  00eaf	f3 a5		 rep movsd
  00eb1	a4		 movsb
  00eb2	33 c0		 xor	 eax, eax
  00eb4	89 85 39 f9 ff
	ff		 mov	 DWORD PTR _MapAttrName$[ebp+1537], eax
  00eba	89 85 3d f9 ff
	ff		 mov	 DWORD PTR _MapAttrName$[ebp+1541], eax
  00ec0	66 89 85 41 f9
	ff ff		 mov	 WORD PTR _MapAttrName$[ebp+1545], ax
  00ec7	88 85 43 f9 ff
	ff		 mov	 BYTE PTR _MapAttrName$[ebp+1547], al

; 988  : 
; 989  : 		".\\Terrains\\terrain46.att",	// reserved loading

  00ecd	b9 06 00 00 00	 mov	 ecx, 6
  00ed2	be 00 00 00 00	 mov	 esi, OFFSET ??_C@_0BJ@IFAFDFHB@?4?2Terrains?2terrain46?4att?$AA@
  00ed7	8d bd 44 f9 ff
	ff		 lea	 edi, DWORD PTR _MapAttrName$[ebp+1548]
  00edd	f3 a5		 rep movsd
  00edf	a4		 movsb
  00ee0	33 c0		 xor	 eax, eax
  00ee2	89 85 5d f9 ff
	ff		 mov	 DWORD PTR _MapAttrName$[ebp+1573], eax
  00ee8	89 85 61 f9 ff
	ff		 mov	 DWORD PTR _MapAttrName$[ebp+1577], eax
  00eee	66 89 85 65 f9
	ff ff		 mov	 WORD PTR _MapAttrName$[ebp+1581], ax
  00ef5	88 85 67 f9 ff
	ff		 mov	 BYTE PTR _MapAttrName$[ebp+1583], al

; 990  : 		".\\Terrains\\terrain46.att",	// reserved loading

  00efb	b9 06 00 00 00	 mov	 ecx, 6
  00f00	be 00 00 00 00	 mov	 esi, OFFSET ??_C@_0BJ@IFAFDFHB@?4?2Terrains?2terrain46?4att?$AA@
  00f05	8d bd 68 f9 ff
	ff		 lea	 edi, DWORD PTR _MapAttrName$[ebp+1584]
  00f0b	f3 a5		 rep movsd
  00f0d	a4		 movsb
  00f0e	33 c0		 xor	 eax, eax
  00f10	89 85 81 f9 ff
	ff		 mov	 DWORD PTR _MapAttrName$[ebp+1609], eax
  00f16	89 85 85 f9 ff
	ff		 mov	 DWORD PTR _MapAttrName$[ebp+1613], eax
  00f1c	66 89 85 89 f9
	ff ff		 mov	 WORD PTR _MapAttrName$[ebp+1617], ax
  00f23	88 85 8b f9 ff
	ff		 mov	 BYTE PTR _MapAttrName$[ebp+1619], al

; 991  : 
; 992  : 		".\\Terrains\\terrain46.att",	// Illusion Temple 1 = 45

  00f29	b9 06 00 00 00	 mov	 ecx, 6
  00f2e	be 00 00 00 00	 mov	 esi, OFFSET ??_C@_0BJ@IFAFDFHB@?4?2Terrains?2terrain46?4att?$AA@
  00f33	8d bd 8c f9 ff
	ff		 lea	 edi, DWORD PTR _MapAttrName$[ebp+1620]
  00f39	f3 a5		 rep movsd
  00f3b	a4		 movsb
  00f3c	33 c0		 xor	 eax, eax
  00f3e	89 85 a5 f9 ff
	ff		 mov	 DWORD PTR _MapAttrName$[ebp+1645], eax
  00f44	89 85 a9 f9 ff
	ff		 mov	 DWORD PTR _MapAttrName$[ebp+1649], eax
  00f4a	66 89 85 ad f9
	ff ff		 mov	 WORD PTR _MapAttrName$[ebp+1653], ax
  00f51	88 85 af f9 ff
	ff		 mov	 BYTE PTR _MapAttrName$[ebp+1655], al

; 993  : 		".\\Terrains\\terrain46.att",	// Illusion Temple 2

  00f57	b9 06 00 00 00	 mov	 ecx, 6
  00f5c	be 00 00 00 00	 mov	 esi, OFFSET ??_C@_0BJ@IFAFDFHB@?4?2Terrains?2terrain46?4att?$AA@
  00f61	8d bd b0 f9 ff
	ff		 lea	 edi, DWORD PTR _MapAttrName$[ebp+1656]
  00f67	f3 a5		 rep movsd
  00f69	a4		 movsb
  00f6a	33 c0		 xor	 eax, eax
  00f6c	89 85 c9 f9 ff
	ff		 mov	 DWORD PTR _MapAttrName$[ebp+1681], eax
  00f72	89 85 cd f9 ff
	ff		 mov	 DWORD PTR _MapAttrName$[ebp+1685], eax
  00f78	66 89 85 d1 f9
	ff ff		 mov	 WORD PTR _MapAttrName$[ebp+1689], ax
  00f7f	88 85 d3 f9 ff
	ff		 mov	 BYTE PTR _MapAttrName$[ebp+1691], al

; 994  : 		".\\Terrains\\terrain46.att",	// Illusion Temple 3

  00f85	b9 06 00 00 00	 mov	 ecx, 6
  00f8a	be 00 00 00 00	 mov	 esi, OFFSET ??_C@_0BJ@IFAFDFHB@?4?2Terrains?2terrain46?4att?$AA@
  00f8f	8d bd d4 f9 ff
	ff		 lea	 edi, DWORD PTR _MapAttrName$[ebp+1692]
  00f95	f3 a5		 rep movsd
  00f97	a4		 movsb
  00f98	33 c0		 xor	 eax, eax
  00f9a	89 85 ed f9 ff
	ff		 mov	 DWORD PTR _MapAttrName$[ebp+1717], eax
  00fa0	89 85 f1 f9 ff
	ff		 mov	 DWORD PTR _MapAttrName$[ebp+1721], eax
  00fa6	66 89 85 f5 f9
	ff ff		 mov	 WORD PTR _MapAttrName$[ebp+1725], ax
  00fad	88 85 f7 f9 ff
	ff		 mov	 BYTE PTR _MapAttrName$[ebp+1727], al

; 995  : 		".\\Terrains\\terrain46.att",	// Illusion Temple 4

  00fb3	b9 06 00 00 00	 mov	 ecx, 6
  00fb8	be 00 00 00 00	 mov	 esi, OFFSET ??_C@_0BJ@IFAFDFHB@?4?2Terrains?2terrain46?4att?$AA@
  00fbd	8d bd f8 f9 ff
	ff		 lea	 edi, DWORD PTR _MapAttrName$[ebp+1728]
  00fc3	f3 a5		 rep movsd
  00fc5	a4		 movsb
  00fc6	33 c0		 xor	 eax, eax
  00fc8	89 85 11 fa ff
	ff		 mov	 DWORD PTR _MapAttrName$[ebp+1753], eax
  00fce	89 85 15 fa ff
	ff		 mov	 DWORD PTR _MapAttrName$[ebp+1757], eax
  00fd4	66 89 85 19 fa
	ff ff		 mov	 WORD PTR _MapAttrName$[ebp+1761], ax
  00fdb	88 85 1b fa ff
	ff		 mov	 BYTE PTR _MapAttrName$[ebp+1763], al

; 996  : 		".\\Terrains\\terrain46.att",	// Illusion Temple 5

  00fe1	b9 06 00 00 00	 mov	 ecx, 6
  00fe6	be 00 00 00 00	 mov	 esi, OFFSET ??_C@_0BJ@IFAFDFHB@?4?2Terrains?2terrain46?4att?$AA@
  00feb	8d bd 1c fa ff
	ff		 lea	 edi, DWORD PTR _MapAttrName$[ebp+1764]
  00ff1	f3 a5		 rep movsd
  00ff3	a4		 movsb
  00ff4	33 c0		 xor	 eax, eax
  00ff6	89 85 35 fa ff
	ff		 mov	 DWORD PTR _MapAttrName$[ebp+1789], eax
  00ffc	89 85 39 fa ff
	ff		 mov	 DWORD PTR _MapAttrName$[ebp+1793], eax
  01002	66 89 85 3d fa
	ff ff		 mov	 WORD PTR _MapAttrName$[ebp+1797], ax
  01009	88 85 3f fa ff
	ff		 mov	 BYTE PTR _MapAttrName$[ebp+1799], al

; 997  : 		".\\Terrains\\terrain46.att",	// Illusion Temple 6 = 50

  0100f	b9 06 00 00 00	 mov	 ecx, 6
  01014	be 00 00 00 00	 mov	 esi, OFFSET ??_C@_0BJ@IFAFDFHB@?4?2Terrains?2terrain46?4att?$AA@
  01019	8d bd 40 fa ff
	ff		 lea	 edi, DWORD PTR _MapAttrName$[ebp+1800]
  0101f	f3 a5		 rep movsd
  01021	a4		 movsb
  01022	33 c0		 xor	 eax, eax
  01024	89 85 59 fa ff
	ff		 mov	 DWORD PTR _MapAttrName$[ebp+1825], eax
  0102a	89 85 5d fa ff
	ff		 mov	 DWORD PTR _MapAttrName$[ebp+1829], eax
  01030	66 89 85 61 fa
	ff ff		 mov	 WORD PTR _MapAttrName$[ebp+1833], ax
  01037	88 85 63 fa ff
	ff		 mov	 BYTE PTR _MapAttrName$[ebp+1835], al

; 998  : 
; 999  : 		//Season 3.0
; 1000 : 		".\\Terrains\\terrain52.att",	// Elbeland

  0103d	b9 06 00 00 00	 mov	 ecx, 6
  01042	be 00 00 00 00	 mov	 esi, OFFSET ??_C@_0BJ@LIODHMND@?4?2Terrains?2terrain52?4att?$AA@
  01047	8d bd 64 fa ff
	ff		 lea	 edi, DWORD PTR _MapAttrName$[ebp+1836]
  0104d	f3 a5		 rep movsd
  0104f	a4		 movsb
  01050	33 c0		 xor	 eax, eax
  01052	89 85 7d fa ff
	ff		 mov	 DWORD PTR _MapAttrName$[ebp+1861], eax
  01058	89 85 81 fa ff
	ff		 mov	 DWORD PTR _MapAttrName$[ebp+1865], eax
  0105e	66 89 85 85 fa
	ff ff		 mov	 WORD PTR _MapAttrName$[ebp+1869], ax
  01065	88 85 87 fa ff
	ff		 mov	 BYTE PTR _MapAttrName$[ebp+1871], al

; 1001 : 
; 1002 : 		".\\Terrains\\terrain12.att",	// Blood Castle 8

  0106b	b9 06 00 00 00	 mov	 ecx, 6
  01070	be 00 00 00 00	 mov	 esi, OFFSET ??_C@_0BJ@EMKMFIMA@?4?2Terrains?2terrain12?4att?$AA@
  01075	8d bd 88 fa ff
	ff		 lea	 edi, DWORD PTR _MapAttrName$[ebp+1872]
  0107b	f3 a5		 rep movsd
  0107d	a4		 movsb
  0107e	33 c0		 xor	 eax, eax
  01080	89 85 a1 fa ff
	ff		 mov	 DWORD PTR _MapAttrName$[ebp+1897], eax
  01086	89 85 a5 fa ff
	ff		 mov	 DWORD PTR _MapAttrName$[ebp+1901], eax
  0108c	66 89 85 a9 fa
	ff ff		 mov	 WORD PTR _MapAttrName$[ebp+1905], ax
  01093	88 85 ab fa ff
	ff		 mov	 BYTE PTR _MapAttrName$[ebp+1907], al

; 1003 : 		".\\Terrains\\terrain19.att",	// ChaosCastle 7

  01099	b9 06 00 00 00	 mov	 ecx, 6
  0109e	be 00 00 00 00	 mov	 esi, OFFSET ??_C@_0BJ@CGGLKIAD@?4?2Terrains?2terrain19?4att?$AA@
  010a3	8d bd ac fa ff
	ff		 lea	 edi, DWORD PTR _MapAttrName$[ebp+1908]
  010a9	f3 a5		 rep movsd
  010ab	a4		 movsb
  010ac	33 c0		 xor	 eax, eax
  010ae	89 85 c5 fa ff
	ff		 mov	 DWORD PTR _MapAttrName$[ebp+1933], eax
  010b4	89 85 c9 fa ff
	ff		 mov	 DWORD PTR _MapAttrName$[ebp+1937], eax
  010ba	66 89 85 cd fa
	ff ff		 mov	 WORD PTR _MapAttrName$[ebp+1941], ax
  010c1	88 85 cf fa ff
	ff		 mov	 BYTE PTR _MapAttrName$[ebp+1943], al

; 1004 : 		".\\Terrains\\terrain57.att",	// DevilSquare 7

  010c7	b9 06 00 00 00	 mov	 ecx, 6
  010cc	be 00 00 00 00	 mov	 esi, OFFSET ??_C@_0BJ@OICOONGA@?4?2Terrains?2terrain57?4att?$AA@
  010d1	8d bd d0 fa ff
	ff		 lea	 edi, DWORD PTR _MapAttrName$[ebp+1944]
  010d7	f3 a5		 rep movsd
  010d9	a4		 movsb
  010da	33 c0		 xor	 eax, eax
  010dc	89 85 e9 fa ff
	ff		 mov	 DWORD PTR _MapAttrName$[ebp+1969], eax
  010e2	89 85 ed fa ff
	ff		 mov	 DWORD PTR _MapAttrName$[ebp+1973], eax
  010e8	66 89 85 f1 fa
	ff ff		 mov	 WORD PTR _MapAttrName$[ebp+1977], ax
  010ef	88 85 f3 fa ff
	ff		 mov	 BYTE PTR _MapAttrName$[ebp+1979], al

; 1005 : 
; 1006 : 		".\\Terrains\\terrain57.att",	// reserved loading

  010f5	b9 06 00 00 00	 mov	 ecx, 6
  010fa	be 00 00 00 00	 mov	 esi, OFFSET ??_C@_0BJ@OICOONGA@?4?2Terrains?2terrain57?4att?$AA@
  010ff	8d bd f4 fa ff
	ff		 lea	 edi, DWORD PTR _MapAttrName$[ebp+1980]
  01105	f3 a5		 rep movsd
  01107	a4		 movsb
  01108	33 c0		 xor	 eax, eax
  0110a	89 85 0d fb ff
	ff		 mov	 DWORD PTR _MapAttrName$[ebp+2005], eax
  01110	89 85 11 fb ff
	ff		 mov	 DWORD PTR _MapAttrName$[ebp+2009], eax
  01116	66 89 85 15 fb
	ff ff		 mov	 WORD PTR _MapAttrName$[ebp+2013], ax
  0111d	88 85 17 fb ff
	ff		 mov	 BYTE PTR _MapAttrName$[ebp+2015], al

; 1007 : 
; 1008 : 		".\\Terrains\\terrain57.att",	// Swamp of Calmness = 56

  01123	b9 06 00 00 00	 mov	 ecx, 6
  01128	be 00 00 00 00	 mov	 esi, OFFSET ??_C@_0BJ@OICOONGA@?4?2Terrains?2terrain57?4att?$AA@
  0112d	8d bd 18 fb ff
	ff		 lea	 edi, DWORD PTR _MapAttrName$[ebp+2016]
  01133	f3 a5		 rep movsd
  01135	a4		 movsb
  01136	33 c0		 xor	 eax, eax
  01138	89 85 31 fb ff
	ff		 mov	 DWORD PTR _MapAttrName$[ebp+2041], eax
  0113e	89 85 35 fb ff
	ff		 mov	 DWORD PTR _MapAttrName$[ebp+2045], eax
  01144	66 89 85 39 fb
	ff ff		 mov	 WORD PTR _MapAttrName$[ebp+2049], ax
  0114b	88 85 3b fb ff
	ff		 mov	 BYTE PTR _MapAttrName$[ebp+2051], al

; 1009 : 
; 1010 : 		//Season 4.0
; 1011 : 		".\\Terrains\\terrain58.att",	// Raklion

  01151	b9 06 00 00 00	 mov	 ecx, 6
  01156	be 00 00 00 00	 mov	 esi, OFFSET ??_C@_0BJ@BJHIFPLF@?4?2Terrains?2terrain58?4att?$AA@
  0115b	8d bd 3c fb ff
	ff		 lea	 edi, DWORD PTR _MapAttrName$[ebp+2052]
  01161	f3 a5		 rep movsd
  01163	a4		 movsb
  01164	33 c0		 xor	 eax, eax
  01166	89 85 55 fb ff
	ff		 mov	 DWORD PTR _MapAttrName$[ebp+2077], eax
  0116c	89 85 59 fb ff
	ff		 mov	 DWORD PTR _MapAttrName$[ebp+2081], eax
  01172	66 89 85 5d fb
	ff ff		 mov	 WORD PTR _MapAttrName$[ebp+2085], ax
  01179	88 85 5f fb ff
	ff		 mov	 BYTE PTR _MapAttrName$[ebp+2087], al

; 1012 : 		".\\Terrains\\terrain59.att",	// Hatchery

  0117f	b9 06 00 00 00	 mov	 ecx, 6
  01184	be 00 00 00 00	 mov	 esi, OFFSET ??_C@_0BJ@NCCEIMBA@?4?2Terrains?2terrain59?4att?$AA@
  01189	8d bd 60 fb ff
	ff		 lea	 edi, DWORD PTR _MapAttrName$[ebp+2088]
  0118f	f3 a5		 rep movsd
  01191	a4		 movsb
  01192	33 c0		 xor	 eax, eax
  01194	89 85 79 fb ff
	ff		 mov	 DWORD PTR _MapAttrName$[ebp+2113], eax
  0119a	89 85 7d fb ff
	ff		 mov	 DWORD PTR _MapAttrName$[ebp+2117], eax
  011a0	66 89 85 81 fb
	ff ff		 mov	 WORD PTR _MapAttrName$[ebp+2121], ax
  011a7	88 85 83 fb ff
	ff		 mov	 BYTE PTR _MapAttrName$[ebp+2123], al

; 1013 : 		".\\Terrains\\terrain62.att",	// Santa Village

  011ad	b9 06 00 00 00	 mov	 ecx, 6
  011b2	be 00 00 00 00	 mov	 esi, OFFSET ??_C@_0BJ@IJALGGEO@?4?2Terrains?2terrain62?4att?$AA@
  011b7	8d bd 84 fb ff
	ff		 lea	 edi, DWORD PTR _MapAttrName$[ebp+2124]
  011bd	f3 a5		 rep movsd
  011bf	a4		 movsb
  011c0	33 c0		 xor	 eax, eax
  011c2	89 85 9d fb ff
	ff		 mov	 DWORD PTR _MapAttrName$[ebp+2149], eax
  011c8	89 85 a1 fb ff
	ff		 mov	 DWORD PTR _MapAttrName$[ebp+2153], eax
  011ce	66 89 85 a5 fb
	ff ff		 mov	 WORD PTR _MapAttrName$[ebp+2157], ax
  011d5	88 85 a7 fb ff
	ff		 mov	 BYTE PTR _MapAttrName$[ebp+2159], al

; 1014 : 
; 1015 : 		".\\Terrains\\terrain62.att",	// reserved loading

  011db	b9 06 00 00 00	 mov	 ecx, 6
  011e0	be 00 00 00 00	 mov	 esi, OFFSET ??_C@_0BJ@IJALGGEO@?4?2Terrains?2terrain62?4att?$AA@
  011e5	8d bd a8 fb ff
	ff		 lea	 edi, DWORD PTR _MapAttrName$[ebp+2160]
  011eb	f3 a5		 rep movsd
  011ed	a4		 movsb
  011ee	33 c0		 xor	 eax, eax
  011f0	89 85 c1 fb ff
	ff		 mov	 DWORD PTR _MapAttrName$[ebp+2185], eax
  011f6	89 85 c5 fb ff
	ff		 mov	 DWORD PTR _MapAttrName$[ebp+2189], eax
  011fc	66 89 85 c9 fb
	ff ff		 mov	 WORD PTR _MapAttrName$[ebp+2193], ax
  01203	88 85 cb fb ff
	ff		 mov	 BYTE PTR _MapAttrName$[ebp+2195], al

; 1016 : 		".\\Terrains\\terrain62.att",	// reserved loading

  01209	b9 06 00 00 00	 mov	 ecx, 6
  0120e	be 00 00 00 00	 mov	 esi, OFFSET ??_C@_0BJ@IJALGGEO@?4?2Terrains?2terrain62?4att?$AA@
  01213	8d bd cc fb ff
	ff		 lea	 edi, DWORD PTR _MapAttrName$[ebp+2196]
  01219	f3 a5		 rep movsd
  0121b	a4		 movsb
  0121c	33 c0		 xor	 eax, eax
  0121e	89 85 e5 fb ff
	ff		 mov	 DWORD PTR _MapAttrName$[ebp+2221], eax
  01224	89 85 e9 fb ff
	ff		 mov	 DWORD PTR _MapAttrName$[ebp+2225], eax
  0122a	66 89 85 ed fb
	ff ff		 mov	 WORD PTR _MapAttrName$[ebp+2229], ax
  01231	88 85 ef fb ff
	ff		 mov	 BYTE PTR _MapAttrName$[ebp+2231], al

; 1017 : 		".\\Terrains\\terrain62.att",	// reserved loading

  01237	b9 06 00 00 00	 mov	 ecx, 6
  0123c	be 00 00 00 00	 mov	 esi, OFFSET ??_C@_0BJ@IJALGGEO@?4?2Terrains?2terrain62?4att?$AA@
  01241	8d bd f0 fb ff
	ff		 lea	 edi, DWORD PTR _MapAttrName$[ebp+2232]
  01247	f3 a5		 rep movsd
  01249	a4		 movsb
  0124a	33 c0		 xor	 eax, eax
  0124c	89 85 09 fc ff
	ff		 mov	 DWORD PTR _MapAttrName$[ebp+2257], eax
  01252	89 85 0d fc ff
	ff		 mov	 DWORD PTR _MapAttrName$[ebp+2261], eax
  01258	66 89 85 11 fc
	ff ff		 mov	 WORD PTR _MapAttrName$[ebp+2265], ax
  0125f	88 85 13 fc ff
	ff		 mov	 BYTE PTR _MapAttrName$[ebp+2267], al

; 1018 : 		//Season 4.6
; 1019 : 		".\\Terrains\\terrain64.att",	// Vulcanus

  01265	b9 06 00 00 00	 mov	 ecx, 6
  0126a	be 00 00 00 00	 mov	 esi, OFFSET ??_C@_0BJ@FPFCIFFD@?4?2Terrains?2terrain64?4att?$AA@
  0126f	8d bd 14 fc ff
	ff		 lea	 edi, DWORD PTR _MapAttrName$[ebp+2268]
  01275	f3 a5		 rep movsd
  01277	a4		 movsb
  01278	33 c0		 xor	 eax, eax
  0127a	89 85 2d fc ff
	ff		 mov	 DWORD PTR _MapAttrName$[ebp+2293], eax
  01280	89 85 31 fc ff
	ff		 mov	 DWORD PTR _MapAttrName$[ebp+2297], eax
  01286	66 89 85 35 fc
	ff ff		 mov	 WORD PTR _MapAttrName$[ebp+2301], ax
  0128d	88 85 37 fc ff
	ff		 mov	 BYTE PTR _MapAttrName$[ebp+2303], al

; 1020 : 		".\\Terrains\\terrain65.att",	// Duel Room

  01293	b9 06 00 00 00	 mov	 ecx, 6
  01298	be 00 00 00 00	 mov	 esi, OFFSET ??_C@_0BJ@JEAOFGPG@?4?2Terrains?2terrain65?4att?$AA@
  0129d	8d bd 38 fc ff
	ff		 lea	 edi, DWORD PTR _MapAttrName$[ebp+2304]
  012a3	f3 a5		 rep movsd
  012a5	a4		 movsb
  012a6	33 c0		 xor	 eax, eax
  012a8	89 85 51 fc ff
	ff		 mov	 DWORD PTR _MapAttrName$[ebp+2329], eax
  012ae	89 85 55 fc ff
	ff		 mov	 DWORD PTR _MapAttrName$[ebp+2333], eax
  012b4	66 89 85 59 fc
	ff ff		 mov	 WORD PTR _MapAttrName$[ebp+2337], ax
  012bb	88 85 5b fc ff
	ff		 mov	 BYTE PTR _MapAttrName$[ebp+2339], al

; 1021 : 		//Season 5
; 1022 : 		".\\Terrains\\Terrain66.att", //66 Doppel Ganger-A

  012c1	b9 06 00 00 00	 mov	 ecx, 6
  012c6	be 00 00 00 00	 mov	 esi, OFFSET ??_C@_0BJ@NPPOFMIA@?4?2Terrains?2Terrain66?4att?$AA@
  012cb	8d bd 5c fc ff
	ff		 lea	 edi, DWORD PTR _MapAttrName$[ebp+2340]
  012d1	f3 a5		 rep movsd
  012d3	a4		 movsb
  012d4	33 c0		 xor	 eax, eax
  012d6	89 85 75 fc ff
	ff		 mov	 DWORD PTR _MapAttrName$[ebp+2365], eax
  012dc	89 85 79 fc ff
	ff		 mov	 DWORD PTR _MapAttrName$[ebp+2369], eax
  012e2	66 89 85 7d fc
	ff ff		 mov	 WORD PTR _MapAttrName$[ebp+2373], ax
  012e9	88 85 7f fc ff
	ff		 mov	 BYTE PTR _MapAttrName$[ebp+2375], al

; 1023 : 		".\\Terrains\\Terrain67.att", //67 Doppel Ganger-B

  012ef	b9 06 00 00 00	 mov	 ecx, 6
  012f4	be 00 00 00 00	 mov	 esi, OFFSET ??_C@_0BJ@BEKCIPCF@?4?2Terrains?2Terrain67?4att?$AA@
  012f9	8d bd 80 fc ff
	ff		 lea	 edi, DWORD PTR _MapAttrName$[ebp+2376]
  012ff	f3 a5		 rep movsd
  01301	a4		 movsb
  01302	33 c0		 xor	 eax, eax
  01304	89 85 99 fc ff
	ff		 mov	 DWORD PTR _MapAttrName$[ebp+2401], eax
  0130a	89 85 9d fc ff
	ff		 mov	 DWORD PTR _MapAttrName$[ebp+2405], eax
  01310	66 89 85 a1 fc
	ff ff		 mov	 WORD PTR _MapAttrName$[ebp+2409], ax
  01317	88 85 a3 fc ff
	ff		 mov	 BYTE PTR _MapAttrName$[ebp+2411], al

; 1024 : 		".\\Terrains\\Terrain68.att", //68 Doppel Ganger-C

  0131d	b9 06 00 00 00	 mov	 ecx, 6
  01322	be 00 00 00 00	 mov	 esi, OFFSET ??_C@_0BJ@OFPEDNPA@?4?2Terrains?2Terrain68?4att?$AA@
  01327	8d bd a4 fc ff
	ff		 lea	 edi, DWORD PTR _MapAttrName$[ebp+2412]
  0132d	f3 a5		 rep movsd
  0132f	a4		 movsb
  01330	33 c0		 xor	 eax, eax
  01332	89 85 bd fc ff
	ff		 mov	 DWORD PTR _MapAttrName$[ebp+2437], eax
  01338	89 85 c1 fc ff
	ff		 mov	 DWORD PTR _MapAttrName$[ebp+2441], eax
  0133e	66 89 85 c5 fc
	ff ff		 mov	 WORD PTR _MapAttrName$[ebp+2445], ax
  01345	88 85 c7 fc ff
	ff		 mov	 BYTE PTR _MapAttrName$[ebp+2447], al

; 1025 : 		".\\Terrains\\Terrain69.att", //69 Doppel Ganger-D

  0134b	b9 06 00 00 00	 mov	 ecx, 6
  01350	be 00 00 00 00	 mov	 esi, OFFSET ??_C@_0BJ@COKIOOFF@?4?2Terrains?2Terrain69?4att?$AA@
  01355	8d bd c8 fc ff
	ff		 lea	 edi, DWORD PTR _MapAttrName$[ebp+2448]
  0135b	f3 a5		 rep movsd
  0135d	a4		 movsb
  0135e	33 c0		 xor	 eax, eax
  01360	89 85 e1 fc ff
	ff		 mov	 DWORD PTR _MapAttrName$[ebp+2473], eax
  01366	89 85 e5 fc ff
	ff		 mov	 DWORD PTR _MapAttrName$[ebp+2477], eax
  0136c	66 89 85 e9 fc
	ff ff		 mov	 WORD PTR _MapAttrName$[ebp+2481], ax
  01373	88 85 eb fc ff
	ff		 mov	 BYTE PTR _MapAttrName$[ebp+2483], al

; 1026 : 		".\\Terrains\\Terrain70.att", //70 Imperial Guardian-A

  01379	b9 06 00 00 00	 mov	 ecx, 6
  0137e	be 00 00 00 00	 mov	 esi, OFFSET ??_C@_0BJ@KPNALECJ@?4?2Terrains?2Terrain70?4att?$AA@
  01383	8d bd ec fc ff
	ff		 lea	 edi, DWORD PTR _MapAttrName$[ebp+2484]
  01389	f3 a5		 rep movsd
  0138b	a4		 movsb
  0138c	33 c0		 xor	 eax, eax
  0138e	89 85 05 fd ff
	ff		 mov	 DWORD PTR _MapAttrName$[ebp+2509], eax
  01394	89 85 09 fd ff
	ff		 mov	 DWORD PTR _MapAttrName$[ebp+2513], eax
  0139a	66 89 85 0d fd
	ff ff		 mov	 WORD PTR _MapAttrName$[ebp+2517], ax
  013a1	88 85 0f fd ff
	ff		 mov	 BYTE PTR _MapAttrName$[ebp+2519], al

; 1027 : 		".\\Terrains\\Terrain71.att", //71 Imperial Guardian-B

  013a7	b9 06 00 00 00	 mov	 ecx, 6
  013ac	be 00 00 00 00	 mov	 esi, OFFSET ??_C@_0BJ@GEIMGHIM@?4?2Terrains?2Terrain71?4att?$AA@
  013b1	8d bd 10 fd ff
	ff		 lea	 edi, DWORD PTR _MapAttrName$[ebp+2520]
  013b7	f3 a5		 rep movsd
  013b9	a4		 movsb
  013ba	33 c0		 xor	 eax, eax
  013bc	89 85 29 fd ff
	ff		 mov	 DWORD PTR _MapAttrName$[ebp+2545], eax
  013c2	89 85 2d fd ff
	ff		 mov	 DWORD PTR _MapAttrName$[ebp+2549], eax
  013c8	66 89 85 31 fd
	ff ff		 mov	 WORD PTR _MapAttrName$[ebp+2553], ax
  013cf	88 85 33 fd ff
	ff		 mov	 BYTE PTR _MapAttrName$[ebp+2555], al

; 1028 : 		".\\Terrains\\Terrain72.att", //72 Imperial Guardian-C 

  013d5	b9 06 00 00 00	 mov	 ecx, 6
  013da	be 00 00 00 00	 mov	 esi, OFFSET ??_C@_0BJ@OCBIBFCC@?4?2Terrains?2Terrain72?4att?$AA@
  013df	8d bd 34 fd ff
	ff		 lea	 edi, DWORD PTR _MapAttrName$[ebp+2556]
  013e5	f3 a5		 rep movsd
  013e7	a4		 movsb
  013e8	33 c0		 xor	 eax, eax
  013ea	89 85 4d fd ff
	ff		 mov	 DWORD PTR _MapAttrName$[ebp+2581], eax
  013f0	89 85 51 fd ff
	ff		 mov	 DWORD PTR _MapAttrName$[ebp+2585], eax
  013f6	66 89 85 55 fd
	ff ff		 mov	 WORD PTR _MapAttrName$[ebp+2589], ax
  013fd	88 85 57 fd ff
	ff		 mov	 BYTE PTR _MapAttrName$[ebp+2591], al

; 1029 : 		".\\Terrains\\Terrain73.att", //73 Imperial Guardian-D	//Season 5 ImperialFort

  01403	b9 06 00 00 00	 mov	 ecx, 6
  01408	be 00 00 00 00	 mov	 esi, OFFSET ??_C@_0BJ@CJEEMGIH@?4?2Terrains?2Terrain73?4att?$AA@
  0140d	8d bd 58 fd ff
	ff		 lea	 edi, DWORD PTR _MapAttrName$[ebp+2592]
  01413	f3 a5		 rep movsd
  01415	a4		 movsb
  01416	33 c0		 xor	 eax, eax
  01418	89 85 71 fd ff
	ff		 mov	 DWORD PTR _MapAttrName$[ebp+2617], eax
  0141e	89 85 75 fd ff
	ff		 mov	 DWORD PTR _MapAttrName$[ebp+2621], eax
  01424	66 89 85 79 fd
	ff ff		 mov	 WORD PTR _MapAttrName$[ebp+2625], ax
  0142b	88 85 7b fd ff
	ff		 mov	 BYTE PTR _MapAttrName$[ebp+2627], al

; 1030 : 		".\\Terrains\\Terrain80.att", //74 Roren Market

  01431	b9 06 00 00 00	 mov	 ecx, 6
  01436	be 00 00 00 00	 mov	 esi, OFFSET ??_C@_0BJ@FJJIMEMA@?4?2Terrains?2Terrain80?4att?$AA@
  0143b	8d bd 7c fd ff
	ff		 lea	 edi, DWORD PTR _MapAttrName$[ebp+2628]
  01441	f3 a5		 rep movsd
  01443	a4		 movsb
  01444	33 c0		 xor	 eax, eax
  01446	89 85 95 fd ff
	ff		 mov	 DWORD PTR _MapAttrName$[ebp+2653], eax
  0144c	89 85 99 fd ff
	ff		 mov	 DWORD PTR _MapAttrName$[ebp+2657], eax
  01452	66 89 85 9d fd
	ff ff		 mov	 WORD PTR _MapAttrName$[ebp+2661], ax
  01459	88 85 9f fd ff
	ff		 mov	 BYTE PTR _MapAttrName$[ebp+2663], al

; 1031 : 		".\\Terrains\\Terrain80.att", //75 Roren Market

  0145f	b9 06 00 00 00	 mov	 ecx, 6
  01464	be 00 00 00 00	 mov	 esi, OFFSET ??_C@_0BJ@FJJIMEMA@?4?2Terrains?2Terrain80?4att?$AA@
  01469	8d bd a0 fd ff
	ff		 lea	 edi, DWORD PTR _MapAttrName$[ebp+2664]
  0146f	f3 a5		 rep movsd
  01471	a4		 movsb
  01472	33 c0		 xor	 eax, eax
  01474	89 85 b9 fd ff
	ff		 mov	 DWORD PTR _MapAttrName$[ebp+2689], eax
  0147a	89 85 bd fd ff
	ff		 mov	 DWORD PTR _MapAttrName$[ebp+2693], eax
  01480	66 89 85 c1 fd
	ff ff		 mov	 WORD PTR _MapAttrName$[ebp+2697], ax
  01487	88 85 c3 fd ff
	ff		 mov	 BYTE PTR _MapAttrName$[ebp+2699], al

; 1032 : 		".\\Terrains\\Terrain80.att", //76 Roren Market

  0148d	b9 06 00 00 00	 mov	 ecx, 6
  01492	be 00 00 00 00	 mov	 esi, OFFSET ??_C@_0BJ@FJJIMEMA@?4?2Terrains?2Terrain80?4att?$AA@
  01497	8d bd c4 fd ff
	ff		 lea	 edi, DWORD PTR _MapAttrName$[ebp+2700]
  0149d	f3 a5		 rep movsd
  0149f	a4		 movsb
  014a0	33 c0		 xor	 eax, eax
  014a2	89 85 dd fd ff
	ff		 mov	 DWORD PTR _MapAttrName$[ebp+2725], eax
  014a8	89 85 e1 fd ff
	ff		 mov	 DWORD PTR _MapAttrName$[ebp+2729], eax
  014ae	66 89 85 e5 fd
	ff ff		 mov	 WORD PTR _MapAttrName$[ebp+2733], ax
  014b5	88 85 e7 fd ff
	ff		 mov	 BYTE PTR _MapAttrName$[ebp+2735], al

; 1033 : 		".\\Terrains\\Terrain80.att", //77 Roren Market

  014bb	b9 06 00 00 00	 mov	 ecx, 6
  014c0	be 00 00 00 00	 mov	 esi, OFFSET ??_C@_0BJ@FJJIMEMA@?4?2Terrains?2Terrain80?4att?$AA@
  014c5	8d bd e8 fd ff
	ff		 lea	 edi, DWORD PTR _MapAttrName$[ebp+2736]
  014cb	f3 a5		 rep movsd
  014cd	a4		 movsb
  014ce	33 c0		 xor	 eax, eax
  014d0	89 85 01 fe ff
	ff		 mov	 DWORD PTR _MapAttrName$[ebp+2761], eax
  014d6	89 85 05 fe ff
	ff		 mov	 DWORD PTR _MapAttrName$[ebp+2765], eax
  014dc	66 89 85 09 fe
	ff ff		 mov	 WORD PTR _MapAttrName$[ebp+2769], ax
  014e3	88 85 0b fe ff
	ff		 mov	 BYTE PTR _MapAttrName$[ebp+2771], al

; 1034 : 		".\\Terrains\\Terrain80.att", //78 Roren Market

  014e9	b9 06 00 00 00	 mov	 ecx, 6
  014ee	be 00 00 00 00	 mov	 esi, OFFSET ??_C@_0BJ@FJJIMEMA@?4?2Terrains?2Terrain80?4att?$AA@
  014f3	8d bd 0c fe ff
	ff		 lea	 edi, DWORD PTR _MapAttrName$[ebp+2772]
  014f9	f3 a5		 rep movsd
  014fb	a4		 movsb
  014fc	33 c0		 xor	 eax, eax
  014fe	89 85 25 fe ff
	ff		 mov	 DWORD PTR _MapAttrName$[ebp+2797], eax
  01504	89 85 29 fe ff
	ff		 mov	 DWORD PTR _MapAttrName$[ebp+2801], eax
  0150a	66 89 85 2d fe
	ff ff		 mov	 WORD PTR _MapAttrName$[ebp+2805], ax
  01511	88 85 2f fe ff
	ff		 mov	 BYTE PTR _MapAttrName$[ebp+2807], al

; 1035 : 		".\\Terrains\\Terrain80.att", //79 Roren Market

  01517	b9 06 00 00 00	 mov	 ecx, 6
  0151c	be 00 00 00 00	 mov	 esi, OFFSET ??_C@_0BJ@FJJIMEMA@?4?2Terrains?2Terrain80?4att?$AA@
  01521	8d bd 30 fe ff
	ff		 lea	 edi, DWORD PTR _MapAttrName$[ebp+2808]
  01527	f3 a5		 rep movsd
  01529	a4		 movsb
  0152a	33 c0		 xor	 eax, eax
  0152c	89 85 49 fe ff
	ff		 mov	 DWORD PTR _MapAttrName$[ebp+2833], eax
  01532	89 85 4d fe ff
	ff		 mov	 DWORD PTR _MapAttrName$[ebp+2837], eax
  01538	66 89 85 51 fe
	ff ff		 mov	 WORD PTR _MapAttrName$[ebp+2841], ax
  0153f	88 85 53 fe ff
	ff		 mov	 BYTE PTR _MapAttrName$[ebp+2843], al

; 1036 : 		".\\Terrains\\Terrain80.att", //80 Roren Market

  01545	b9 06 00 00 00	 mov	 ecx, 6
  0154a	be 00 00 00 00	 mov	 esi, OFFSET ??_C@_0BJ@FJJIMEMA@?4?2Terrains?2Terrain80?4att?$AA@
  0154f	8d bd 54 fe ff
	ff		 lea	 edi, DWORD PTR _MapAttrName$[ebp+2844]
  01555	f3 a5		 rep movsd
  01557	a4		 movsb
  01558	33 c0		 xor	 eax, eax
  0155a	89 85 6d fe ff
	ff		 mov	 DWORD PTR _MapAttrName$[ebp+2869], eax
  01560	89 85 71 fe ff
	ff		 mov	 DWORD PTR _MapAttrName$[ebp+2873], eax
  01566	66 89 85 75 fe
	ff ff		 mov	 WORD PTR _MapAttrName$[ebp+2877], ax
  0156d	88 85 77 fe ff
	ff		 mov	 BYTE PTR _MapAttrName$[ebp+2879], al

; 1037 : 		".\\Terrains\\Terrain81.att", //81 Karutan 1

  01573	b9 06 00 00 00	 mov	 ecx, 6
  01578	be 00 00 00 00	 mov	 esi, OFFSET ??_C@_0BJ@JCMEBHGF@?4?2Terrains?2Terrain81?4att?$AA@
  0157d	8d bd 78 fe ff
	ff		 lea	 edi, DWORD PTR _MapAttrName$[ebp+2880]
  01583	f3 a5		 rep movsd
  01585	a4		 movsb
  01586	33 c0		 xor	 eax, eax
  01588	89 85 91 fe ff
	ff		 mov	 DWORD PTR _MapAttrName$[ebp+2905], eax
  0158e	89 85 95 fe ff
	ff		 mov	 DWORD PTR _MapAttrName$[ebp+2909], eax
  01594	66 89 85 99 fe
	ff ff		 mov	 WORD PTR _MapAttrName$[ebp+2913], ax
  0159b	88 85 9b fe ff
	ff		 mov	 BYTE PTR _MapAttrName$[ebp+2915], al

; 1038 : 		".\\Terrains\\Terrain82.att", //82 Karutan 2

  015a1	b9 06 00 00 00	 mov	 ecx, 6
  015a6	be 00 00 00 00	 mov	 esi, OFFSET ??_C@_0BJ@BEFAGFML@?4?2Terrains?2Terrain82?4att?$AA@
  015ab	8d bd 9c fe ff
	ff		 lea	 edi, DWORD PTR _MapAttrName$[ebp+2916]
  015b1	f3 a5		 rep movsd
  015b3	a4		 movsb
  015b4	33 c0		 xor	 eax, eax
  015b6	89 85 b5 fe ff
	ff		 mov	 DWORD PTR _MapAttrName$[ebp+2941], eax
  015bc	89 85 b9 fe ff
	ff		 mov	 DWORD PTR _MapAttrName$[ebp+2945], eax
  015c2	66 89 85 bd fe
	ff ff		 mov	 WORD PTR _MapAttrName$[ebp+2949], ax
  015c9	88 85 bf fe ff
	ff		 mov	 BYTE PTR _MapAttrName$[ebp+2951], al

; 1039 : 
; 1040 : 		".\\Terrains\\Terrain83.att", //83 TeamVsTeam

  015cf	b9 06 00 00 00	 mov	 ecx, 6
  015d4	be 00 00 00 00	 mov	 esi, OFFSET ??_C@_0BJ@NPAMLGGO@?4?2Terrains?2Terrain83?4att?$AA@
  015d9	8d bd c0 fe ff
	ff		 lea	 edi, DWORD PTR _MapAttrName$[ebp+2952]
  015df	f3 a5		 rep movsd
  015e1	a4		 movsb
  015e2	33 c0		 xor	 eax, eax
  015e4	89 85 d9 fe ff
	ff		 mov	 DWORD PTR _MapAttrName$[ebp+2977], eax
  015ea	89 85 dd fe ff
	ff		 mov	 DWORD PTR _MapAttrName$[ebp+2981], eax
  015f0	66 89 85 e1 fe
	ff ff		 mov	 WORD PTR _MapAttrName$[ebp+2985], ax
  015f7	88 85 e3 fe ff
	ff		 mov	 BYTE PTR _MapAttrName$[ebp+2987], al

; 1041 : 		".\\Terrains\\Terrain84.att", //

  015fd	b9 06 00 00 00	 mov	 ecx, 6
  01602	be 00 00 00 00	 mov	 esi, OFFSET ??_C@_0BJ@MCAJIGNG@?4?2Terrains?2Terrain84?4att?$AA@
  01607	8d bd e4 fe ff
	ff		 lea	 edi, DWORD PTR _MapAttrName$[ebp+2988]
  0160d	f3 a5		 rep movsd
  0160f	a4		 movsb
  01610	33 c0		 xor	 eax, eax
  01612	89 85 fd fe ff
	ff		 mov	 DWORD PTR _MapAttrName$[ebp+3013], eax
  01618	89 85 01 ff ff
	ff		 mov	 DWORD PTR _MapAttrName$[ebp+3017], eax
  0161e	66 89 85 05 ff
	ff ff		 mov	 WORD PTR _MapAttrName$[ebp+3021], ax
  01625	88 85 07 ff ff
	ff		 mov	 BYTE PTR _MapAttrName$[ebp+3023], al

; 1042 : 		".\\Terrains\\Terrain85.att", //

  0162b	b9 06 00 00 00	 mov	 ecx, 6
  01630	be 00 00 00 00	 mov	 esi, OFFSET ??_C@_0BJ@JFFFFHD@?4?2Terrains?2Terrain85?4att?$AA@
  01635	8d bd 08 ff ff
	ff		 lea	 edi, DWORD PTR _MapAttrName$[ebp+3024]
  0163b	f3 a5		 rep movsd
  0163d	a4		 movsb
  0163e	33 c0		 xor	 eax, eax
  01640	89 85 21 ff ff
	ff		 mov	 DWORD PTR _MapAttrName$[ebp+3049], eax
  01646	89 85 25 ff ff
	ff		 mov	 DWORD PTR _MapAttrName$[ebp+3053], eax
  0164c	66 89 85 29 ff
	ff ff		 mov	 WORD PTR _MapAttrName$[ebp+3057], ax
  01653	88 85 2b ff ff
	ff		 mov	 BYTE PTR _MapAttrName$[ebp+3059], al

; 1043 : 		".\\Terrains\\Terrain86.att", //

  01659	b9 06 00 00 00	 mov	 ecx, 6
  0165e	be 00 00 00 00	 mov	 esi, OFFSET ??_C@_0BJ@IPMBCHNN@?4?2Terrains?2Terrain86?4att?$AA@
  01663	8d bd 2c ff ff
	ff		 lea	 edi, DWORD PTR _MapAttrName$[ebp+3060]
  01669	f3 a5		 rep movsd
  0166b	a4		 movsb
  0166c	33 c0		 xor	 eax, eax
  0166e	89 85 45 ff ff
	ff		 mov	 DWORD PTR _MapAttrName$[ebp+3085], eax
  01674	89 85 49 ff ff
	ff		 mov	 DWORD PTR _MapAttrName$[ebp+3089], eax
  0167a	66 89 85 4d ff
	ff ff		 mov	 WORD PTR _MapAttrName$[ebp+3093], ax
  01681	88 85 4f ff ff
	ff		 mov	 BYTE PTR _MapAttrName$[ebp+3095], al

; 1044 : 		".\\Terrains\\Terrain87.att", //

  01687	b9 06 00 00 00	 mov	 ecx, 6
  0168c	be 00 00 00 00	 mov	 esi, OFFSET ??_C@_0BJ@EEJNPEHI@?4?2Terrains?2Terrain87?4att?$AA@
  01691	8d bd 50 ff ff
	ff		 lea	 edi, DWORD PTR _MapAttrName$[ebp+3096]
  01697	f3 a5		 rep movsd
  01699	a4		 movsb
  0169a	33 c0		 xor	 eax, eax
  0169c	89 85 69 ff ff
	ff		 mov	 DWORD PTR _MapAttrName$[ebp+3121], eax
  016a2	89 85 6d ff ff
	ff		 mov	 DWORD PTR _MapAttrName$[ebp+3125], eax
  016a8	66 89 85 71 ff
	ff ff		 mov	 WORD PTR _MapAttrName$[ebp+3129], ax
  016af	88 85 73 ff ff
	ff		 mov	 BYTE PTR _MapAttrName$[ebp+3131], al

; 1045 : 		".\\Terrains\\Terrain88.att", //

  016b5	b9 06 00 00 00	 mov	 ecx, 6
  016ba	be 00 00 00 00	 mov	 esi, OFFSET ??_C@_0BJ@LFMLEGKN@?4?2Terrains?2Terrain88?4att?$AA@
  016bf	8d bd 74 ff ff
	ff		 lea	 edi, DWORD PTR _MapAttrName$[ebp+3132]
  016c5	f3 a5		 rep movsd
  016c7	a4		 movsb
  016c8	33 c0		 xor	 eax, eax
  016ca	89 45 8d	 mov	 DWORD PTR _MapAttrName$[ebp+3157], eax
  016cd	89 45 91	 mov	 DWORD PTR _MapAttrName$[ebp+3161], eax
  016d0	66 89 45 95	 mov	 WORD PTR _MapAttrName$[ebp+3165], ax
  016d4	88 45 97	 mov	 BYTE PTR _MapAttrName$[ebp+3167], al

; 1046 : 		".\\Terrains\\Terrain89.att", //

  016d7	b9 06 00 00 00	 mov	 ecx, 6
  016dc	be 00 00 00 00	 mov	 esi, OFFSET ??_C@_0BJ@HOJHJFAI@?4?2Terrains?2Terrain89?4att?$AA@
  016e1	8d 7d 98	 lea	 edi, DWORD PTR _MapAttrName$[ebp+3168]
  016e4	f3 a5		 rep movsd
  016e6	a4		 movsb
  016e7	33 c0		 xor	 eax, eax
  016e9	89 45 b1	 mov	 DWORD PTR _MapAttrName$[ebp+3193], eax
  016ec	89 45 b5	 mov	 DWORD PTR _MapAttrName$[ebp+3197], eax
  016ef	66 89 45 b9	 mov	 WORD PTR _MapAttrName$[ebp+3201], ax
  016f3	88 45 bb	 mov	 BYTE PTR _MapAttrName$[ebp+3203], al

; 1047 : 		".\\Terrains\\Terrain90.att", //

  016f6	b9 06 00 00 00	 mov	 ecx, 6
  016fb	be 00 00 00 00	 mov	 esi, OFFSET ??_C@_0BJ@PPOPMPHE@?4?2Terrains?2Terrain90?4att?$AA@
  01700	8d 7d bc	 lea	 edi, DWORD PTR _MapAttrName$[ebp+3204]
  01703	f3 a5		 rep movsd
  01705	a4		 movsb
  01706	33 c0		 xor	 eax, eax
  01708	89 45 d5	 mov	 DWORD PTR _MapAttrName$[ebp+3229], eax
  0170b	89 45 d9	 mov	 DWORD PTR _MapAttrName$[ebp+3233], eax
  0170e	66 89 45 dd	 mov	 WORD PTR _MapAttrName$[ebp+3237], ax
  01712	88 45 df	 mov	 BYTE PTR _MapAttrName$[ebp+3239], al

; 1048 : 		//".\\Terrains\\Terrain84.att", //83 TeamVsTeam
; 1049 : 	};
; 1050 : 
; 1051 : 
; 1052 : 	for ( n=0;n<MAX_NUMBER_MAP;n++)

  01715	c7 45 ec 00 00
	00 00		 mov	 DWORD PTR _n$[ebp], 0
  0171c	eb 09		 jmp	 SHORT $LN3@GameMainIn
$LN2@GameMainIn:
  0171e	8b 45 ec	 mov	 eax, DWORD PTR _n$[ebp]
  01721	83 c0 01	 add	 eax, 1
  01724	89 45 ec	 mov	 DWORD PTR _n$[ebp], eax
$LN3@GameMainIn:
  01727	83 7d ec 5a	 cmp	 DWORD PTR _n$[ebp], 90	; 0000005aH
  0172b	7d 47		 jge	 SHORT $LN1@GameMainIn

; 1053 : 	{
; 1054 : 		MapC[n].ItemInit();

  0172d	8b 4d ec	 mov	 ecx, DWORD PTR _n$[ebp]
  01730	69 c9 b8 3d 05
	00		 imul	 ecx, 343480		; 00053db8H
  01736	81 c1 00 00 00
	00		 add	 ecx, OFFSET ?MapC@@3PAVMapClass@@A ; MapC
  0173c	e8 00 00 00 00	 call	 ?ItemInit@MapClass@@QAEXXZ ; MapClass::ItemInit

; 1055 : 		MapC[n].LoadMapAttr(gDirPath.GetNewPath(MapAttrName[n]), n);

  01741	8b 45 ec	 mov	 eax, DWORD PTR _n$[ebp]
  01744	50		 push	 eax
  01745	8b 4d ec	 mov	 ecx, DWORD PTR _n$[ebp]
  01748	6b c9 24	 imul	 ecx, 36			; 00000024H
  0174b	8d 94 0d 38 f3
	ff ff		 lea	 edx, DWORD PTR _MapAttrName$[ebp+ecx]
  01752	52		 push	 edx
  01753	b9 00 00 00 00	 mov	 ecx, OFFSET ?gDirPath@@3VCDirPath@@A ; gDirPath
  01758	e8 00 00 00 00	 call	 ?GetNewPath@CDirPath@@QAEPADPAD@Z ; CDirPath::GetNewPath
  0175d	50		 push	 eax
  0175e	8b 4d ec	 mov	 ecx, DWORD PTR _n$[ebp]
  01761	69 c9 b8 3d 05
	00		 imul	 ecx, 343480		; 00053db8H
  01767	81 c1 00 00 00
	00		 add	 ecx, OFFSET ?MapC@@3PAVMapClass@@A ; MapC
  0176d	e8 00 00 00 00	 call	 ?LoadMapAttr@MapClass@@QAEXPADH@Z ; MapClass::LoadMapAttr

; 1056 : 	}

  01772	eb aa		 jmp	 SHORT $LN2@GameMainIn
$LN1@GameMainIn:

; 1057 : 
; 1058 : //#if (GS_CASTLE == 1)
; 1059 : 	g_Crywolf.LoadCrywolfMapAttr(gDirPath.GetNewPath(".\\Terrains\\terrain35_PEACE.att"),0);

  01774	6a 00		 push	 0
  01776	68 00 00 00 00	 push	 OFFSET ??_C@_0BP@PADOHAJI@?4?2Terrains?2terrain35_PEACE?4att?$AA@
  0177b	b9 00 00 00 00	 mov	 ecx, OFFSET ?gDirPath@@3VCDirPath@@A ; gDirPath
  01780	e8 00 00 00 00	 call	 ?GetNewPath@CDirPath@@QAEPADPAD@Z ; CDirPath::GetNewPath
  01785	50		 push	 eax
  01786	b9 00 00 00 00	 mov	 ecx, OFFSET ?g_Crywolf@@3VCCrywolf@@A ; g_Crywolf
  0178b	e8 00 00 00 00	 call	 ?LoadCrywolfMapAttr@CCrywolf@@QAEXPADH@Z ; CCrywolf::LoadCrywolfMapAttr

; 1060 : 	g_Crywolf.LoadCrywolfMapAttr(gDirPath.GetNewPath(".\\Terrains\\terrain35_OCCUPIED.att"),1);

  01790	6a 01		 push	 1
  01792	68 00 00 00 00	 push	 OFFSET ??_C@_0CC@PJKLJMEI@?4?2Terrains?2terrain35_OCCUPIED?4at@
  01797	b9 00 00 00 00	 mov	 ecx, OFFSET ?gDirPath@@3VCDirPath@@A ; gDirPath
  0179c	e8 00 00 00 00	 call	 ?GetNewPath@CDirPath@@QAEPADPAD@Z ; CDirPath::GetNewPath
  017a1	50		 push	 eax
  017a2	b9 00 00 00 00	 mov	 ecx, OFFSET ?g_Crywolf@@3VCCrywolf@@A ; g_Crywolf
  017a7	e8 00 00 00 00	 call	 ?LoadCrywolfMapAttr@CCrywolf@@QAEXPADH@Z ; CCrywolf::LoadCrywolfMapAttr

; 1061 : 	g_Crywolf.LoadCrywolfMapAttr(gDirPath.GetNewPath(".\\Terrains\\terrain35_WAR.att"),2);

  017ac	6a 02		 push	 2
  017ae	68 00 00 00 00	 push	 OFFSET ??_C@_0BN@LJJOFBCH@?4?2Terrains?2terrain35_WAR?4att?$AA@
  017b3	b9 00 00 00 00	 mov	 ecx, OFFSET ?gDirPath@@3VCDirPath@@A ; gDirPath
  017b8	e8 00 00 00 00	 call	 ?GetNewPath@CDirPath@@QAEPADPAD@Z ; CDirPath::GetNewPath
  017bd	50		 push	 eax
  017be	b9 00 00 00 00	 mov	 ecx, OFFSET ?g_Crywolf@@3VCCrywolf@@A ; g_Crywolf
  017c3	e8 00 00 00 00	 call	 ?LoadCrywolfMapAttr@CCrywolf@@QAEXPADH@Z ; CCrywolf::LoadCrywolfMapAttr

; 1062 : //#else
; 1063 : 	g_Kanturu.LoadKanturuMapAttr(gDirPath.GetNewPath(".\\Terrains\\terrain40_CLOSE.att"), 0);

  017c8	6a 00		 push	 0
  017ca	68 00 00 00 00	 push	 OFFSET ??_C@_0BP@HIAADJM@?4?2Terrains?2terrain40_CLOSE?4att?$AA@
  017cf	b9 00 00 00 00	 mov	 ecx, OFFSET ?gDirPath@@3VCDirPath@@A ; gDirPath
  017d4	e8 00 00 00 00	 call	 ?GetNewPath@CDirPath@@QAEPADPAD@Z ; CDirPath::GetNewPath
  017d9	50		 push	 eax
  017da	b9 00 00 00 00	 mov	 ecx, OFFSET ?g_Kanturu@@3VCKanturu@@A ; g_Kanturu
  017df	e8 00 00 00 00	 call	 ?LoadKanturuMapAttr@CKanturu@@QAEXPADE@Z ; CKanturu::LoadKanturuMapAttr

; 1064 : 	g_Kanturu.LoadKanturuMapAttr(gDirPath.GetNewPath(".\\Terrains\\terrain40_OPEN.att"), 1);

  017e4	6a 01		 push	 1
  017e6	68 00 00 00 00	 push	 OFFSET ??_C@_0BO@FLMPMGPG@?4?2Terrains?2terrain40_OPEN?4att?$AA@
  017eb	b9 00 00 00 00	 mov	 ecx, OFFSET ?gDirPath@@3VCDirPath@@A ; gDirPath
  017f0	e8 00 00 00 00	 call	 ?GetNewPath@CDirPath@@QAEPADPAD@Z ; CDirPath::GetNewPath
  017f5	50		 push	 eax
  017f6	b9 00 00 00 00	 mov	 ecx, OFFSET ?g_Kanturu@@3VCKanturu@@A ; g_Kanturu
  017fb	e8 00 00 00 00	 call	 ?LoadKanturuMapAttr@CKanturu@@QAEXPADE@Z ; CKanturu::LoadKanturuMapAttr

; 1065 : //#endif
; 1066 : 
; 1067 : 
; 1068 : 	DCInfo.Init();

  01800	b9 00 00 00 00	 mov	 ecx, OFFSET ?DCInfo@@3Vclassdef@@A ; DCInfo
  01805	e8 00 00 00 00	 call	 ?Init@classdef@@QAEXXZ	; classdef::Init

; 1069 : 	ShopDataLoad();

  0180a	e8 00 00 00 00	 call	 ?ShopDataLoad@@YAHXZ	; ShopDataLoad

; 1070 : 	wsGServer.CreateSocket(hWnd);

  0180f	8b 45 08	 mov	 eax, DWORD PTR _hWnd$[ebp]
  01812	50		 push	 eax
  01813	b9 04 00 00 00	 mov	 ecx, OFFSET ?wsGServer@@3VCwsGameServer@@A+4
  01818	e8 00 00 00 00	 call	 ?CreateSocket@MyWinsockBase@@QAEHPAUHWND__@@@Z ; MyWinsockBase::CreateSocket

; 1071 : 	wsJServerCli.CreateSocket(hWnd);

  0181d	8b 45 08	 mov	 eax, DWORD PTR _hWnd$[ebp]
  01820	50		 push	 eax
  01821	b9 04 00 00 00	 mov	 ecx, OFFSET ?wsJServerCli@@3VwsJoinServerCli@@A+4
  01826	e8 00 00 00 00	 call	 ?CreateSocket@MyWinsockBase@@QAEHPAUHWND__@@@Z ; MyWinsockBase::CreateSocket

; 1072 : 	wsDataCli.CreateSocket(hWnd);

  0182b	8b 45 08	 mov	 eax, DWORD PTR _hWnd$[ebp]
  0182e	50		 push	 eax
  0182f	b9 04 00 00 00	 mov	 ecx, OFFSET ?wsDataCli@@3VwsJoinServerCli@@A+4
  01834	e8 00 00 00 00	 call	 ?CreateSocket@MyWinsockBase@@QAEHPAUHWND__@@@Z ; MyWinsockBase::CreateSocket

; 1073 : 
; 1074 : 	gWzAG.GetKey(szAuthKey, 5,5 );

  01839	6a 05		 push	 5
  0183b	6a 05		 push	 5
  0183d	68 00 00 00 00	 push	 OFFSET ?szAuthKey@@3PADA ; szAuthKey
  01842	b9 00 00 00 00	 mov	 ecx, OFFSET ?gWzAG@@3VWzAG@@A ; gWzAG
  01847	e8 00 00 00 00	 call	 ?GetKey@WzAG@@QAEXPADHH@Z ; WzAG::GetKey

; 1075 : 
; 1076 : 	wsRServerCli.CreateSocket(hWnd);

  0184c	8b 45 08	 mov	 eax, DWORD PTR _hWnd$[ebp]
  0184f	50		 push	 eax
  01850	b9 04 00 00 00	 mov	 ecx, OFFSET ?wsRServerCli@@3VwsJoinServerCli@@A+4
  01855	e8 00 00 00 00	 call	 ?CreateSocket@MyWinsockBase@@QAEHPAUHWND__@@@Z ; MyWinsockBase::CreateSocket

; 1077 : 	wsEvenChipServerCli.CreateSocket(hWnd);

  0185a	8b 45 08	 mov	 eax, DWORD PTR _hWnd$[ebp]
  0185d	50		 push	 eax
  0185e	b9 04 00 00 00	 mov	 ecx, OFFSET ?wsEvenChipServerCli@@3VwsJoinServerCli@@A+4
  01863	e8 00 00 00 00	 call	 ?CreateSocket@MyWinsockBase@@QAEHPAUHWND__@@@Z ; MyWinsockBase::CreateSocket

; 1078 : 	GameServerInfoSend();

  01868	e8 00 00 00 00	 call	 ?GameServerInfoSend@@YAXXZ ; GameServerInfoSend

; 1079 : 	GameMonsterAllAdd();

  0186d	e8 00 00 00 00	 call	 ?GameMonsterAllAdd@@YAXXZ ; GameMonsterAllAdd

; 1080 : 
; 1081 : 	acceptIP.Load(gDirPath.GetNewPath("Other\\Iplist.dat"));

  01872	68 00 00 00 00	 push	 OFFSET ??_C@_0BB@GLOMBDPI@Other?2Iplist?4dat?$AA@
  01877	b9 00 00 00 00	 mov	 ecx, OFFSET ?gDirPath@@3VCDirPath@@A ; gDirPath
  0187c	e8 00 00 00 00	 call	 ?GetNewPath@CDirPath@@QAEPADPAD@Z ; CDirPath::GetNewPath
  01881	50		 push	 eax
  01882	b9 00 00 00 00	 mov	 ecx, OFFSET ?acceptIP@@3VCAcceptIp@@A ; acceptIP
  01887	e8 00 00 00 00	 call	 ?Load@CAcceptIp@@QAEXPAD@Z ; CAcceptIp::Load

; 1082 : 	ConMember.Load(gDirPath.GetNewPath("Other\\ConnectMember.txt"));

  0188c	68 00 00 00 00	 push	 OFFSET ??_C@_0BI@PPIBNAME@Other?2ConnectMember?4txt?$AA@
  01891	b9 00 00 00 00	 mov	 ecx, OFFSET ?gDirPath@@3VCDirPath@@A ; gDirPath
  01896	e8 00 00 00 00	 call	 ?GetNewPath@CDirPath@@QAEPADPAD@Z ; CDirPath::GetNewPath
  0189b	50		 push	 eax
  0189c	b9 00 00 00 00	 mov	 ecx, OFFSET ?ConMember@@3VCConMember@@A ; ConMember
  018a1	e8 00 00 00 00	 call	 ?Load@CConMember@@QAEXPAD@Z ; CConMember::Load

; 1083 : 	GCTeleportSend(gObj, 1, 1, 1, 2, 3);

  018a6	6a 03		 push	 3
  018a8	6a 02		 push	 2
  018aa	6a 01		 push	 1
  018ac	6a 01		 push	 1
  018ae	6a 01		 push	 1
  018b0	a1 00 00 00 00	 mov	 eax, DWORD PTR ?gObj@@3PAUOBJECTSTRUCT@@A ; gObj
  018b5	50		 push	 eax
  018b6	e8 00 00 00 00	 call	 ?GCTeleportSend@@YAXPAUOBJECTSTRUCT@@HEEEE@Z ; GCTeleportSend
  018bb	83 c4 18	 add	 esp, 24			; 00000018H

; 1084 : 	
; 1085 : 	gWzAG.GetKey(szAuthKey, 15,5 );

  018be	6a 05		 push	 5
  018c0	6a 0f		 push	 15			; 0000000fH
  018c2	68 00 00 00 00	 push	 OFFSET ?szAuthKey@@3PADA ; szAuthKey
  018c7	b9 00 00 00 00	 mov	 ecx, OFFSET ?gWzAG@@3VWzAG@@A ; gWzAG
  018cc	e8 00 00 00 00	 call	 ?GetKey@WzAG@@QAEXPADHH@Z ; WzAG::GetKey

; 1086 : 
; 1087 : //#if(GS_CASTLE == 0)
; 1088 : 	g_Raklion.SetState(RAKLION_STATE_END);

  018d1	6a 0a		 push	 10			; 0000000aH
  018d3	b9 00 00 00 00	 mov	 ecx, OFFSET ?g_Raklion@@3VCRaklion@@A ; g_Raklion
  018d8	e8 00 00 00 00	 call	 ?SetState@CRaklion@@QAEXH@Z ; CRaklion::SetState

; 1089 : //#endif
; 1090 : 	gMossMerchant.Init();

  018dd	b9 00 00 00 00	 mov	 ecx, OFFSET ?gMossMerchant@@3VCMossMerchant@@A ; gMossMerchant
  018e2	e8 00 00 00 00	 call	 ?Init@CMossMerchant@@QAEXXZ ; CMossMerchant::Init

; 1091 : 	//RenaArcher
; 1092 : 	//gItemDropManager.Init();
; 1093 : 	//Moss event
; 1094 : 	GoldenArcher.Load();

  018e7	b9 00 00 00 00	 mov	 ecx, OFFSET ?GoldenArcher@@3VcGoldenArcher@@A ; GoldenArcher
  018ec	e8 00 00 00 00	 call	 ?Load@cGoldenArcher@@QAEXXZ ; cGoldenArcher::Load

; 1095 : 	//PCPointSystem
; 1096 : #ifdef IMPERIAL_CONFLICT_OLD
; 1097 : 	g_Imperial.LoadRewardItem();	//Season 5 ImperialFort

  018f1	b9 00 00 00 00	 mov	 ecx, OFFSET ?g_Imperial@@3VCImperial@@A ; g_Imperial
  018f6	e8 00 00 00 00	 call	 ?LoadRewardItem@CImperial@@QAEXXZ ; CImperial::LoadRewardItem
$LN16@GameMainIn:

; 1098 : #endif
; 1099 : #ifdef SEASON5_QUEST
; 1100 : 	S5Quest.ReadConfig();	//Season 5 Quest
; 1101 : #endif
; 1102 : }

  018fb	8b 4d f4	 mov	 ecx, DWORD PTR __$EHRec$[ebp]
  018fe	64 89 0d 00 00
	00 00		 mov	 DWORD PTR fs:0, ecx
  01905	59		 pop	 ecx
  01906	5f		 pop	 edi
  01907	5e		 pop	 esi
  01908	5b		 pop	 ebx
  01909	8b 4d f0	 mov	 ecx, DWORD PTR __$ArrayPad$[ebp]
  0190c	33 cd		 xor	 ecx, ebp
  0190e	e8 00 00 00 00	 call	 @__security_check_cookie@4
  01913	8b e5		 mov	 esp, ebp
  01915	5d		 pop	 ebp
  01916	c3		 ret	 0
_TEXT	ENDS
text$x	SEGMENT
__unwindfunclet$?GameMainInit@@YAXPAUHWND__@@@Z$0:
  00000	8b 85 ec f2 ff
	ff		 mov	 eax, DWORD PTR $T266013[ebp]
  00006	50		 push	 eax
  00007	e8 00 00 00 00	 call	 ??3@YAXPAX@Z		; operator delete
  0000c	59		 pop	 ecx
  0000d	c3		 ret	 0
__unwindfunclet$?GameMainInit@@YAXPAUHWND__@@@Z$1:
  0000e	8b 85 f4 f2 ff
	ff		 mov	 eax, DWORD PTR $T266017[ebp]
  00014	50		 push	 eax
  00015	e8 00 00 00 00	 call	 ??3@YAXPAX@Z		; operator delete
  0001a	59		 pop	 ecx
  0001b	c3		 ret	 0
__ehhandler$?GameMainInit@@YAXPAUHWND__@@@Z:
  0001c	8b 54 24 08	 mov	 edx, DWORD PTR [esp+8]
  00020	8d 42 0c	 lea	 eax, DWORD PTR [edx+12]
  00023	8b 8a e0 f2 ff
	ff		 mov	 ecx, DWORD PTR [edx-3360]
  00029	33 c8		 xor	 ecx, eax
  0002b	e8 00 00 00 00	 call	 @__security_check_cookie@4
  00030	8b 4a fc	 mov	 ecx, DWORD PTR [edx-4]
  00033	33 c8		 xor	 ecx, eax
  00035	e8 00 00 00 00	 call	 @__security_check_cookie@4
  0003a	b8 00 00 00 00	 mov	 eax, OFFSET __ehfuncinfo$?GameMainInit@@YAXPAUHWND__@@@Z
  0003f	e9 00 00 00 00	 jmp	 ___CxxFrameHandler3
text$x	ENDS
?GameMainInit@@YAXPAUHWND__@@@Z ENDP			; GameMainInit
; Function compile flags: /Odtp /ZI
; File d:\projects\exteam6.3\source\gameserver\gameserver\castlesiege.h
;	COMDAT ?SetDataLoadState@CCastleSiege@@QAEXH@Z
_TEXT	SEGMENT
_this$ = -4						; size = 4
_iDataLoadState$ = 8					; size = 4
?SetDataLoadState@CCastleSiege@@QAEXH@Z PROC		; CCastleSiege::SetDataLoadState, COMDAT
; _this$ = ecx

; 283  : 	void SetDataLoadState(int iDataLoadState){m_iCastleDataLoadState = iDataLoadState;}

  00000	55		 push	 ebp
  00001	8b ec		 mov	 ebp, esp
  00003	83 ec 44	 sub	 esp, 68			; 00000044H
  00006	53		 push	 ebx
  00007	56		 push	 esi
  00008	57		 push	 edi
  00009	89 4d fc	 mov	 DWORD PTR _this$[ebp], ecx
  0000c	8b 45 fc	 mov	 eax, DWORD PTR _this$[ebp]
  0000f	8b 4d 08	 mov	 ecx, DWORD PTR _iDataLoadState$[ebp]
  00012	89 48 1c	 mov	 DWORD PTR [eax+28], ecx
  00015	5f		 pop	 edi
  00016	5e		 pop	 esi
  00017	5b		 pop	 ebx
  00018	8b e5		 mov	 esp, ebp
  0001a	5d		 pop	 ebp
  0001b	c2 04 00	 ret	 4
?SetDataLoadState@CCastleSiege@@QAEXH@Z ENDP		; CCastleSiege::SetDataLoadState
; Function compile flags: /Odtp /ZI
; File d:\projects\exteam6.3\source\gameserver\gameserver\mapservermanager.h
_TEXT	ENDS
;	COMDAT ?GetMapSvrGroup@CMapServerManager@@QAEHXZ
_TEXT	SEGMENT
_this$ = -4						; size = 4
?GetMapSvrGroup@CMapServerManager@@QAEHXZ PROC		; CMapServerManager::GetMapSvrGroup, COMDAT
; _this$ = ecx

; 49   : 	{

  00000	55		 push	 ebp
  00001	8b ec		 mov	 ebp, esp
  00003	83 ec 44	 sub	 esp, 68			; 00000044H
  00006	53		 push	 ebx
  00007	56		 push	 esi
  00008	57		 push	 edi
  00009	89 4d fc	 mov	 DWORD PTR _this$[ebp], ecx

; 50   : 		if ( this->m_lpThisMapSvrData != NULL )

  0000c	8b 45 fc	 mov	 eax, DWORD PTR _this$[ebp]
  0000f	83 b8 c0 4b 01
	00 00		 cmp	 DWORD PTR [eax+84928], 0
  00016	74 0f		 je	 SHORT $LN1@GetMapSvrG

; 51   : 		{
; 52   : 			return m_lpThisMapSvrData->m_btMAPSVR_GROUP;

  00018	8b 45 fc	 mov	 eax, DWORD PTR _this$[ebp]
  0001b	8b 88 c0 4b 01
	00		 mov	 ecx, DWORD PTR [eax+84928]
  00021	0f b6 41 08	 movzx	 eax, BYTE PTR [ecx+8]
  00025	eb 03		 jmp	 SHORT $LN2@GetMapSvrG
$LN1@GetMapSvrG:

; 53   : 		}
; 54   : 		return -1;

  00027	83 c8 ff	 or	 eax, -1
$LN2@GetMapSvrG:

; 55   : 	}

  0002a	5f		 pop	 edi
  0002b	5e		 pop	 esi
  0002c	5b		 pop	 ebx
  0002d	8b e5		 mov	 esp, ebp
  0002f	5d		 pop	 ebp
  00030	c3		 ret	 0
?GetMapSvrGroup@CMapServerManager@@QAEHXZ ENDP		; CMapServerManager::GetMapSvrGroup
_TEXT	ENDS
PUBLIC	__real@3fd999999999999a
PUBLIC	__real@3fb999999999999a
PUBLIC	?GetWarehouseUsedHowMuch@@YAHHHH@Z		; GetWarehouseUsedHowMuch
EXTRN	__fltused:DWORD
EXTRN	__ftol2_sse:PROC
;	COMDAT __real@3fd999999999999a
; File d:\projects\exteam6.3\source\gameserver\gameserver\gamemain.cpp
CONST	SEGMENT
__real@3fd999999999999a DQ 03fd999999999999ar	; 0.4
CONST	ENDS
;	COMDAT __real@3fb999999999999a
CONST	SEGMENT
__real@3fb999999999999a DQ 03fb999999999999ar	; 0.1
; Function compile flags: /Odtp /ZI
CONST	ENDS
_TEXT	SEGMENT
tv85 = -76						; size = 4
_iBaseLevel$ = -8					; size = 4
_rZen$ = -4						; size = 4
_UserLevel$ = 8						; size = 4
_MasterLevel$ = 12					; size = 4
_IsLock$ = 16						; size = 4
?GetWarehouseUsedHowMuch@@YAHHHH@Z PROC			; GetWarehouseUsedHowMuch

; 1106 : {

  01920	55		 push	 ebp
  01921	8b ec		 mov	 ebp, esp
  01923	83 ec 4c	 sub	 esp, 76			; 0000004cH
  01926	53		 push	 ebx
  01927	56		 push	 esi
  01928	57		 push	 edi

; 1107 : 	int rZen=0;

  01929	c7 45 fc 00 00
	00 00		 mov	 DWORD PTR _rZen$[ebp], 0

; 1108 : 
; 1109 : 	int iBaseLevel = UserLevel+MasterLevel;

  01930	8b 45 08	 mov	 eax, DWORD PTR _UserLevel$[ebp]
  01933	03 45 0c	 add	 eax, DWORD PTR _MasterLevel$[ebp]
  01936	89 45 f8	 mov	 DWORD PTR _iBaseLevel$[ebp], eax

; 1110 : 
; 1111 : 	rZen = (int)((iBaseLevel * iBaseLevel)* 0.1 * 0.4);

  01939	8b 45 f8	 mov	 eax, DWORD PTR _iBaseLevel$[ebp]
  0193c	0f af 45 f8	 imul	 eax, DWORD PTR _iBaseLevel$[ebp]
  01940	89 45 b4	 mov	 DWORD PTR tv85[ebp], eax
  01943	db 45 b4	 fild	 DWORD PTR tv85[ebp]
  01946	dc 0d 00 00 00
	00		 fmul	 QWORD PTR __real@3fb999999999999a
  0194c	dc 0d 00 00 00
	00		 fmul	 QWORD PTR __real@3fd999999999999a
  01952	e8 00 00 00 00	 call	 __ftol2_sse
  01957	89 45 fc	 mov	 DWORD PTR _rZen$[ebp], eax

; 1112 : 
; 1113 : 	if (bCanWarehouseLock == TRUE)

  0195a	83 3d 00 00 00
	00 01		 cmp	 DWORD PTR ?bCanWarehouseLock@@3HA, 1 ; bCanWarehouseLock
  01961	75 12		 jne	 SHORT $LN6@GetWarehou

; 1114 : 	{
; 1115 : 		if ( IsLock != 0)

  01963	83 7d 10 00	 cmp	 DWORD PTR _IsLock$[ebp], 0
  01967	74 0c		 je	 SHORT $LN6@GetWarehou

; 1116 : 		{
; 1117 : 			rZen = rZen + ( UserLevel * 2 );

  01969	8b 45 08	 mov	 eax, DWORD PTR _UserLevel$[ebp]
  0196c	8b 4d fc	 mov	 ecx, DWORD PTR _rZen$[ebp]
  0196f	8d 14 41	 lea	 edx, DWORD PTR [ecx+eax*2]
  01972	89 55 fc	 mov	 DWORD PTR _rZen$[ebp], edx
$LN6@GetWarehou:

; 1118 : 		}
; 1119 : 	}
; 1120 : 	if ( rZen < 1 )

  01975	83 7d fc 01	 cmp	 DWORD PTR _rZen$[ebp], 1
  01979	7d 07		 jge	 SHORT $LN5@GetWarehou

; 1121 : 	{
; 1122 : 		rZen=1;

  0197b	c7 45 fc 01 00
	00 00		 mov	 DWORD PTR _rZen$[ebp], 1
$LN5@GetWarehou:

; 1123 : 	}
; 1124 : 
; 1125 : 	if ( rZen >= 1000 )

  01982	81 7d fc e8 03
	00 00		 cmp	 DWORD PTR _rZen$[ebp], 1000 ; 000003e8H
  01989	7c 13		 jl	 SHORT $LN4@GetWarehou

; 1126 : 	{
; 1127 : 		rZen = (rZen/100)*100;

  0198b	8b 45 fc	 mov	 eax, DWORD PTR _rZen$[ebp]
  0198e	99		 cdq
  0198f	b9 64 00 00 00	 mov	 ecx, 100		; 00000064H
  01994	f7 f9		 idiv	 ecx
  01996	6b c0 64	 imul	 eax, 100		; 00000064H
  01999	89 45 fc	 mov	 DWORD PTR _rZen$[ebp], eax
  0199c	eb 17		 jmp	 SHORT $LN2@GetWarehou
$LN4@GetWarehou:

; 1128 : 	}
; 1129 : 	
; 1130 : 	else if ( rZen >= 100 )

  0199e	83 7d fc 64	 cmp	 DWORD PTR _rZen$[ebp], 100 ; 00000064H
  019a2	7c 11		 jl	 SHORT $LN2@GetWarehou

; 1131 : 	{
; 1132 : 		rZen = (rZen/10)*10;

  019a4	8b 45 fc	 mov	 eax, DWORD PTR _rZen$[ebp]
  019a7	99		 cdq
  019a8	b9 0a 00 00 00	 mov	 ecx, 10			; 0000000aH
  019ad	f7 f9		 idiv	 ecx
  019af	6b c0 0a	 imul	 eax, 10			; 0000000aH
  019b2	89 45 fc	 mov	 DWORD PTR _rZen$[ebp], eax
$LN2@GetWarehou:

; 1133 : 	}
; 1134 : 	
; 1135 : 	if ( rZen == 0 )

  019b5	83 7d fc 00	 cmp	 DWORD PTR _rZen$[ebp], 0
  019b9	75 07		 jne	 SHORT $LN1@GetWarehou

; 1136 : 	{
; 1137 : 		rZen=1;

  019bb	c7 45 fc 01 00
	00 00		 mov	 DWORD PTR _rZen$[ebp], 1
$LN1@GetWarehou:

; 1138 : 	}
; 1139 : 	
; 1140 : 	return rZen;

  019c2	8b 45 fc	 mov	 eax, DWORD PTR _rZen$[ebp]

; 1141 : }

  019c5	5f		 pop	 edi
  019c6	5e		 pop	 esi
  019c7	5b		 pop	 ebx
  019c8	8b e5		 mov	 esp, ebp
  019ca	5d		 pop	 ebp
  019cb	c3		 ret	 0
?GetWarehouseUsedHowMuch@@YAHHHH@Z ENDP			; GetWarehouseUsedHowMuch
_TEXT	ENDS
PUBLIC	__real@4024000000000000
PUBLIC	__$ArrayPad$
PUBLIC	?GraphPaint@@YAXPAUHWND__@@@Z			; GraphPaint
EXTRN	__imp__DeleteObject@4:PROC
EXTRN	__imp__ReleaseDC@8:PROC
EXTRN	__imp__FillRect@12:PROC
EXTRN	__imp__CreateSolidBrush@4:PROC
EXTRN	__imp__GetDC@4:PROC
;	COMDAT __real@4024000000000000
CONST	SEGMENT
__real@4024000000000000 DQ 04024000000000000r	; 10
; Function compile flags: /Odtp /ZI
CONST	ENDS
_TEXT	SEGMENT
_k$261845 = -88						; size = 4
_n$ = -84						; size = 4
_colBrush$ = -80					; size = 16
_val$ = -64						; size = 40
_rect$ = -24						; size = 16
_hdc$ = -8						; size = 4
__$ArrayPad$ = -4					; size = 4
_hWnd$ = 8						; size = 4
?GraphPaint@@YAXPAUHWND__@@@Z PROC			; GraphPaint

; 1145 : {

  019d0	55		 push	 ebp
  019d1	8b ec		 mov	 ebp, esp
  019d3	81 ec 98 00 00
	00		 sub	 esp, 152		; 00000098H
  019d9	a1 00 00 00 00	 mov	 eax, DWORD PTR ___security_cookie
  019de	33 c5		 xor	 eax, ebp
  019e0	89 45 fc	 mov	 DWORD PTR __$ArrayPad$[ebp], eax
  019e3	53		 push	 ebx
  019e4	56		 push	 esi
  019e5	57		 push	 edi

; 1146 : 	HDC hdc;
; 1147 : 	RECT rect;
; 1148 : 	int val[10];
; 1149 : 	HBRUSH colBrush[4];
; 1150 : 	int n;
; 1151 : 
; 1152 : 	hdc = GetDC(hWnd);

  019e6	8b 45 08	 mov	 eax, DWORD PTR _hWnd$[ebp]
  019e9	50		 push	 eax
  019ea	ff 15 00 00 00
	00		 call	 DWORD PTR __imp__GetDC@4
  019f0	89 45 f8	 mov	 DWORD PTR _hdc$[ebp], eax

; 1153 : 
; 1154 : 	colBrush[0]=CreateSolidBrush( RGB(100, 100, 100));

  019f3	68 64 64 64 00	 push	 6579300			; 00646464H
  019f8	ff 15 00 00 00
	00		 call	 DWORD PTR __imp__CreateSolidBrush@4
  019fe	89 45 b0	 mov	 DWORD PTR _colBrush$[ebp], eax

; 1155 : 	colBrush[1]=CreateSolidBrush( RGB(200, 100, 100));

  01a01	68 c8 64 64 00	 push	 6579400			; 006464c8H
  01a06	ff 15 00 00 00
	00		 call	 DWORD PTR __imp__CreateSolidBrush@4
  01a0c	89 45 b4	 mov	 DWORD PTR _colBrush$[ebp+4], eax

; 1156 : 	colBrush[2]=CreateSolidBrush( RGB(200, 200, 200));

  01a0f	68 c8 c8 c8 00	 push	 13158600		; 00c8c8c8H
  01a14	ff 15 00 00 00
	00		 call	 DWORD PTR __imp__CreateSolidBrush@4
  01a1a	89 45 b8	 mov	 DWORD PTR _colBrush$[ebp+8], eax

; 1157 : 	colBrush[3]=CreateSolidBrush( RGB(200, 200, 100));

  01a1d	68 c8 c8 64 00	 push	 6605000			; 0064c8c8H
  01a22	ff 15 00 00 00
	00		 call	 DWORD PTR __imp__CreateSolidBrush@4
  01a28	89 45 bc	 mov	 DWORD PTR _colBrush$[ebp+12], eax

; 1158 : 
; 1159 : 	for ( n=0; n<4;n++)

  01a2b	c7 45 ac 00 00
	00 00		 mov	 DWORD PTR _n$[ebp], 0
  01a32	eb 09		 jmp	 SHORT $LN6@GraphPaint
$LN5@GraphPaint:
  01a34	8b 45 ac	 mov	 eax, DWORD PTR _n$[ebp]
  01a37	83 c0 01	 add	 eax, 1
  01a3a	89 45 ac	 mov	 DWORD PTR _n$[ebp], eax
$LN6@GraphPaint:
  01a3d	83 7d ac 04	 cmp	 DWORD PTR _n$[ebp], 4
  01a41	0f 8d 58 01 00
	00		 jge	 $LN4@GraphPaint

; 1160 : 	{
; 1161 : 		val[0] = DCInfo.DefClass[n].Strength;

  01a47	8b 45 ac	 mov	 eax, DWORD PTR _n$[ebp]
  01a4a	69 c0 c8 0b 00
	00		 imul	 eax, 3016		; 00000bc8H
  01a50	0f b7 88 08 00
	00 00		 movzx	 ecx, WORD PTR ?DCInfo@@3Vclassdef@@A[eax+8]
  01a57	89 4d c0	 mov	 DWORD PTR _val$[ebp], ecx

; 1162 : 		val[1] = DCInfo.DefClass[n].Dexterity ;

  01a5a	8b 45 ac	 mov	 eax, DWORD PTR _n$[ebp]
  01a5d	69 c0 c8 0b 00
	00		 imul	 eax, 3016		; 00000bc8H
  01a63	0f b7 88 0a 00
	00 00		 movzx	 ecx, WORD PTR ?DCInfo@@3Vclassdef@@A[eax+10]
  01a6a	89 4d c4	 mov	 DWORD PTR _val$[ebp+4], ecx

; 1163 : 		val[2] = DCInfo.DefClass[n].Vitality;

  01a6d	8b 45 ac	 mov	 eax, DWORD PTR _n$[ebp]
  01a70	69 c0 c8 0b 00
	00		 imul	 eax, 3016		; 00000bc8H
  01a76	0f b7 88 0c 00
	00 00		 movzx	 ecx, WORD PTR ?DCInfo@@3Vclassdef@@A[eax+12]
  01a7d	89 4d c8	 mov	 DWORD PTR _val$[ebp+8], ecx

; 1164 : 		val[3] = DCInfo.DefClass[n].Energy;

  01a80	8b 45 ac	 mov	 eax, DWORD PTR _n$[ebp]
  01a83	69 c0 c8 0b 00
	00		 imul	 eax, 3016		; 00000bc8H
  01a89	0f b7 88 0e 00
	00 00		 movzx	 ecx, WORD PTR ?DCInfo@@3Vclassdef@@A[eax+14]
  01a90	89 4d cc	 mov	 DWORD PTR _val$[ebp+12], ecx

; 1165 : 		val[4] = (int)DCInfo.DefClass[n].Life ;

  01a93	8b 45 ac	 mov	 eax, DWORD PTR _n$[ebp]
  01a96	69 c0 c8 0b 00
	00		 imul	 eax, 3016		; 00000bc8H
  01a9c	d9 80 14 00 00
	00		 fld	 DWORD PTR ?DCInfo@@3Vclassdef@@A[eax+20]
  01aa2	e8 00 00 00 00	 call	 __ftol2_sse
  01aa7	89 45 d0	 mov	 DWORD PTR _val$[ebp+16], eax

; 1166 : 		val[5] = (int)DCInfo.DefClass[n].Mana ;

  01aaa	8b 45 ac	 mov	 eax, DWORD PTR _n$[ebp]
  01aad	69 c0 c8 0b 00
	00		 imul	 eax, 3016		; 00000bc8H
  01ab3	d9 80 20 00 00
	00		 fld	 DWORD PTR ?DCInfo@@3Vclassdef@@A[eax+32]
  01ab9	e8 00 00 00 00	 call	 __ftol2_sse
  01abe	89 45 d4	 mov	 DWORD PTR _val$[ebp+20], eax

; 1167 : 		val[6] = (int)(DCInfo.DefClass[n].LevelLife * 10.0f);

  01ac1	8b 45 ac	 mov	 eax, DWORD PTR _n$[ebp]
  01ac4	69 c0 c8 0b 00
	00		 imul	 eax, 3016		; 00000bc8H
  01aca	d9 80 10 00 00
	00		 fld	 DWORD PTR ?DCInfo@@3Vclassdef@@A[eax+16]
  01ad0	dc 0d 00 00 00
	00		 fmul	 QWORD PTR __real@4024000000000000
  01ad6	e8 00 00 00 00	 call	 __ftol2_sse
  01adb	89 45 d8	 mov	 DWORD PTR _val$[ebp+24], eax

; 1168 : 		val[7] = (int)(DCInfo.DefClass[n].LevelMana * 10.0f);

  01ade	8b 45 ac	 mov	 eax, DWORD PTR _n$[ebp]
  01ae1	69 c0 c8 0b 00
	00		 imul	 eax, 3016		; 00000bc8H
  01ae7	d9 80 1c 00 00
	00		 fld	 DWORD PTR ?DCInfo@@3Vclassdef@@A[eax+28]
  01aed	dc 0d 00 00 00
	00		 fmul	 QWORD PTR __real@4024000000000000
  01af3	e8 00 00 00 00	 call	 __ftol2_sse
  01af8	89 45 dc	 mov	 DWORD PTR _val$[ebp+28], eax

; 1169 : 		val[8] = (int)(DCInfo.DefClass[n].VitalityToLife * 10.0f);

  01afb	8b 45 ac	 mov	 eax, DWORD PTR _n$[ebp]
  01afe	69 c0 c8 0b 00
	00		 imul	 eax, 3016		; 00000bc8H
  01b04	d9 80 28 00 00
	00		 fld	 DWORD PTR ?DCInfo@@3Vclassdef@@A[eax+40]
  01b0a	dc 0d 00 00 00
	00		 fmul	 QWORD PTR __real@4024000000000000
  01b10	e8 00 00 00 00	 call	 __ftol2_sse
  01b15	89 45 e0	 mov	 DWORD PTR _val$[ebp+32], eax

; 1170 : 		val[9] = (int)(DCInfo.DefClass[n].EnergyToMana * 10.0f);

  01b18	8b 45 ac	 mov	 eax, DWORD PTR _n$[ebp]
  01b1b	69 c0 c8 0b 00
	00		 imul	 eax, 3016		; 00000bc8H
  01b21	d9 80 2c 00 00
	00		 fld	 DWORD PTR ?DCInfo@@3Vclassdef@@A[eax+44]
  01b27	dc 0d 00 00 00
	00		 fmul	 QWORD PTR __real@4024000000000000
  01b2d	e8 00 00 00 00	 call	 __ftol2_sse
  01b32	89 45 e4	 mov	 DWORD PTR _val$[ebp+36], eax

; 1171 : 
; 1172 : 		for (int k=0; k<10;k++)

  01b35	c7 45 a8 00 00
	00 00		 mov	 DWORD PTR _k$261845[ebp], 0
  01b3c	eb 09		 jmp	 SHORT $LN3@GraphPaint
$LN2@GraphPaint:
  01b3e	8b 45 a8	 mov	 eax, DWORD PTR _k$261845[ebp]
  01b41	83 c0 01	 add	 eax, 1
  01b44	89 45 a8	 mov	 DWORD PTR _k$261845[ebp], eax
$LN3@GraphPaint:
  01b47	83 7d a8 0a	 cmp	 DWORD PTR _k$261845[ebp], 10 ; 0000000aH
  01b4b	7d 4d		 jge	 SHORT $LN1@GraphPaint

; 1173 : 		{
; 1174 : 			rect.left = (k * 45) + (n * 10);

  01b4d	8b 45 a8	 mov	 eax, DWORD PTR _k$261845[ebp]
  01b50	6b c0 2d	 imul	 eax, 45			; 0000002dH
  01b53	8b 4d ac	 mov	 ecx, DWORD PTR _n$[ebp]
  01b56	6b c9 0a	 imul	 ecx, 10			; 0000000aH
  01b59	03 c1		 add	 eax, ecx
  01b5b	89 45 e8	 mov	 DWORD PTR _rect$[ebp], eax

; 1175 : 			rect.right = ((k * 45) + (n * 10))+10;

  01b5e	8b 45 a8	 mov	 eax, DWORD PTR _k$261845[ebp]
  01b61	6b c0 2d	 imul	 eax, 45			; 0000002dH
  01b64	8b 4d ac	 mov	 ecx, DWORD PTR _n$[ebp]
  01b67	6b c9 0a	 imul	 ecx, 10			; 0000000aH
  01b6a	8d 54 08 0a	 lea	 edx, DWORD PTR [eax+ecx+10]
  01b6e	89 55 f0	 mov	 DWORD PTR _rect$[ebp+8], edx

; 1176 : 			rect.top = 0;

  01b71	c7 45 ec 00 00
	00 00		 mov	 DWORD PTR _rect$[ebp+4], 0

; 1177 : 			rect.bottom = val[k];

  01b78	8b 45 a8	 mov	 eax, DWORD PTR _k$261845[ebp]
  01b7b	8b 4c 85 c0	 mov	 ecx, DWORD PTR _val$[ebp+eax*4]
  01b7f	89 4d f4	 mov	 DWORD PTR _rect$[ebp+12], ecx

; 1178 : 			FillRect(hdc, &rect, colBrush[n]);

  01b82	8b 45 ac	 mov	 eax, DWORD PTR _n$[ebp]
  01b85	8b 4c 85 b0	 mov	 ecx, DWORD PTR _colBrush$[ebp+eax*4]
  01b89	51		 push	 ecx
  01b8a	8d 55 e8	 lea	 edx, DWORD PTR _rect$[ebp]
  01b8d	52		 push	 edx
  01b8e	8b 45 f8	 mov	 eax, DWORD PTR _hdc$[ebp]
  01b91	50		 push	 eax
  01b92	ff 15 00 00 00
	00		 call	 DWORD PTR __imp__FillRect@12

; 1179 : 		}

  01b98	eb a4		 jmp	 SHORT $LN2@GraphPaint
$LN1@GraphPaint:

; 1180 : 	}

  01b9a	e9 95 fe ff ff	 jmp	 $LN5@GraphPaint
$LN4@GraphPaint:

; 1181 : 	
; 1182 : 	ReleaseDC(hWnd, hdc);

  01b9f	8b 45 f8	 mov	 eax, DWORD PTR _hdc$[ebp]
  01ba2	50		 push	 eax
  01ba3	8b 4d 08	 mov	 ecx, DWORD PTR _hWnd$[ebp]
  01ba6	51		 push	 ecx
  01ba7	ff 15 00 00 00
	00		 call	 DWORD PTR __imp__ReleaseDC@8

; 1183 : 	DeleteObject( (HGDIOBJ)colBrush[0]);

  01bad	8b 45 b0	 mov	 eax, DWORD PTR _colBrush$[ebp]
  01bb0	50		 push	 eax
  01bb1	ff 15 00 00 00
	00		 call	 DWORD PTR __imp__DeleteObject@4

; 1184 : 	DeleteObject( (HGDIOBJ)colBrush[1]);

  01bb7	8b 45 b4	 mov	 eax, DWORD PTR _colBrush$[ebp+4]
  01bba	50		 push	 eax
  01bbb	ff 15 00 00 00
	00		 call	 DWORD PTR __imp__DeleteObject@4

; 1185 : 	DeleteObject( (HGDIOBJ)colBrush[2]);

  01bc1	8b 45 b8	 mov	 eax, DWORD PTR _colBrush$[ebp+8]
  01bc4	50		 push	 eax
  01bc5	ff 15 00 00 00
	00		 call	 DWORD PTR __imp__DeleteObject@4

; 1186 : 	DeleteObject( (HGDIOBJ)colBrush[3]);

  01bcb	8b 45 bc	 mov	 eax, DWORD PTR _colBrush$[ebp+12]
  01bce	50		 push	 eax
  01bcf	ff 15 00 00 00
	00		 call	 DWORD PTR __imp__DeleteObject@4

; 1187 : 	DeleteObject( (HGDIOBJ)val[0]);

  01bd5	8b 45 c0	 mov	 eax, DWORD PTR _val$[ebp]
  01bd8	50		 push	 eax
  01bd9	ff 15 00 00 00
	00		 call	 DWORD PTR __imp__DeleteObject@4

; 1188 : }

  01bdf	5f		 pop	 edi
  01be0	5e		 pop	 esi
  01be1	5b		 pop	 ebx
  01be2	8b 4d fc	 mov	 ecx, DWORD PTR __$ArrayPad$[ebp]
  01be5	33 cd		 xor	 ecx, ebp
  01be7	e8 00 00 00 00	 call	 @__security_check_cookie@4
  01bec	8b e5		 mov	 esp, ebp
  01bee	5d		 pop	 ebp
  01bef	c3		 ret	 0
?GraphPaint@@YAXPAUHWND__@@@Z ENDP			; GraphPaint
_TEXT	ENDS
PUBLIC	?AddObj@CCrywolfObjInfo@@QAEHH@Z		; CCrywolfObjInfo::AddObj
PUBLIC	?SetCrownIndex@CCastleSiege@@QAEXH@Z		; CCastleSiege::SetCrownIndex
EXTRN	?LoadMonsterPos@CMonsterTime@@QAEXXZ:PROC	; CMonsterTime::LoadMonsterPos
EXTRN	?g_MonsterTime@@3VCMonsterTime@@A:BYTE		; g_MonsterTime
EXTRN	?LoadMonsterPos@CMapQuest@@QAEXXZ:PROC		; CMapQuest::LoadMonsterPos
EXTRN	?g_MapQuest@@3VCMapQuest@@A:BYTE		; g_MapQuest
EXTRN	?LoadMonster@CCarnageEvent@@QAEXXZ:PROC		; CCarnageEvent::LoadMonster
EXTRN	?g_CarnageEvent@@3VCCarnageEvent@@A:BYTE	; g_CarnageEvent
EXTRN	?Init@CImperial@@QAEXXZ:PROC			; CImperial::Init
EXTRN	?Init@CDoppelGanger@@QAEXXZ:PROC		; CDoppelGanger::Init
EXTRN	?g_DoppelGanger@@3VCDoppelGanger@@A:BYTE	; g_DoppelGanger
EXTRN	?Init@CIllusionTempleEvent@@QAEHXZ:PROC		; CIllusionTempleEvent::Init
EXTRN	?g_iIllusionTempleEvent@@3HA:DWORD		; g_iIllusionTempleEvent
EXTRN	?Init@CChaosCastle@@QAEX_N@Z:PROC		; CChaosCastle::Init
EXTRN	?g_ChaosCastle@@3VCChaosCastle@@A:BYTE		; g_ChaosCastle
EXTRN	?Init@CBloodCastle@@QAEX_N@Z:PROC		; CBloodCastle::Init
EXTRN	?LoadItemDropRate@CBloodCastle@@QAEXXZ:PROC	; CBloodCastle::LoadItemDropRate
EXTRN	?Init@CDevilSquare@@QAEXXZ:PROC			; CDevilSquare::Init
EXTRN	?g_DevilSquare@@3VCDevilSquare@@A:BYTE		; g_DevilSquare
EXTRN	?SetTrapIndex@CImperial@@QAEXFH@Z:PROC		; CImperial::SetTrapIndex
EXTRN	?GetBridgeIndex@CBloodCastle@@QAEHH@Z:PROC	; CBloodCastle::GetBridgeIndex
EXTRN	?g_BloodCastle@@3VCBloodCastle@@A:BYTE		; g_BloodCastle
EXTRN	?gObjSetMonster@@YAHHH@Z:PROC			; gObjSetMonster
EXTRN	?gObjSetPosMonster@@YAHHH@Z:PROC		; gObjSetPosMonster
EXTRN	?gObjAddMonster@@YAFH@Z:PROC			; gObjAddMonster
EXTRN	?CreateMonsterPosition@CIllusionTempleEvent@@QAEXEHH@Z:PROC ; CIllusionTempleEvent::CreateMonsterPosition
EXTRN	?CreateNPCPosition@CIllusionTempleEvent@@QAEXEHH@Z:PROC ; CIllusionTempleEvent::CreateNPCPosition
EXTRN	?g_IllusionTempleEvent@@3VCIllusionTempleEvent@@A:BYTE ; g_IllusionTempleEvent
EXTRN	?gCurPaintPlayer@@3HA:DWORD			; gCurPaintPlayer
; Function compile flags: /Odtp /ZI
_TEXT	SEGMENT
tv257 = -80						; size = 4
tv151 = -80						; size = 4
tv95 = -80						; size = 4
tv341 = -76						; size = 4
tv292 = -76						; size = 4
tv258 = -76						; size = 4
tv165 = -76						; size = 4
tv152 = -76						; size = 4
tv128 = -76						; size = 4
tv77 = -76						; size = 4
_n$261857 = -8						; size = 4
_result$ = -4						; size = 4
?GameMonsterAllAdd@@YAXXZ PROC				; GameMonsterAllAdd

; 1192 : {

  01bf0	55		 push	 ebp
  01bf1	8b ec		 mov	 ebp, esp
  01bf3	83 ec 50	 sub	 esp, 80			; 00000050H
  01bf6	53		 push	 ebx
  01bf7	56		 push	 esi
  01bf8	57		 push	 edi

; 1193 : 	gCurPaintPlayer = 0;

  01bf9	c7 05 00 00 00
	00 00 00 00 00	 mov	 DWORD PTR ?gCurPaintPlayer@@3HA, 0 ; gCurPaintPlayer

; 1194 : 
; 1195 : 	int result;
; 1196 : 
; 1197 : 	for ( int n=0;n< gMSetBase.m_Count ;n++)

  01c03	c7 45 f8 00 00
	00 00		 mov	 DWORD PTR _n$261857[ebp], 0
  01c0a	eb 09		 jmp	 SHORT $LN32@GameMonste
$LN31@GameMonste:
  01c0c	8b 45 f8	 mov	 eax, DWORD PTR _n$261857[ebp]
  01c0f	83 c0 01	 add	 eax, 1
  01c12	89 45 f8	 mov	 DWORD PTR _n$261857[ebp], eax
$LN32@GameMonste:
  01c15	8b 45 f8	 mov	 eax, DWORD PTR _n$261857[ebp]
  01c18	3b 05 84 2c 03
	00		 cmp	 eax, DWORD PTR ?gMSetBase@@3VCMonsterSetBase@@A+208004
  01c1e	0f 8d 71 05 00
	00		 jge	 $LN30@GameMonste

; 1198 : 	{
; 1199 : 		if ( DS_MAP_RANGE(gMSetBase.m_Mp[n].m_MapNumber) != FALSE )

  01c24	8b 45 f8	 mov	 eax, DWORD PTR _n$261857[ebp]
  01c27	c1 e0 04	 shl	 eax, 4
  01c2a	0f b6 88 08 00
	00 00		 movzx	 ecx, BYTE PTR ?gMSetBase@@3VCMonsterSetBase@@A[eax+8]
  01c31	83 f9 09	 cmp	 ecx, 9
  01c34	75 09		 jne	 SHORT $LN35@GameMonste
  01c36	c7 45 b4 01 00
	00 00		 mov	 DWORD PTR tv77[ebp], 1
  01c3d	eb 18		 jmp	 SHORT $LN36@GameMonste
$LN35@GameMonste:
  01c3f	8b 55 f8	 mov	 edx, DWORD PTR _n$261857[ebp]
  01c42	c1 e2 04	 shl	 edx, 4
  01c45	0f b6 82 08 00
	00 00		 movzx	 eax, BYTE PTR ?gMSetBase@@3VCMonsterSetBase@@A[edx+8]
  01c4c	33 c9		 xor	 ecx, ecx
  01c4e	83 f8 20	 cmp	 eax, 32			; 00000020H
  01c51	0f 94 c1	 sete	 cl
  01c54	89 4d b4	 mov	 DWORD PTR tv77[ebp], ecx
$LN36@GameMonste:
  01c57	83 7d b4 00	 cmp	 DWORD PTR tv77[ebp], 0
  01c5b	74 02		 je	 SHORT $LN29@GameMonste

; 1200 : 		{
; 1201 : 			continue;

  01c5d	eb ad		 jmp	 SHORT $LN31@GameMonste
$LN29@GameMonste:

; 1202 : 		}
; 1203 : 
; 1204 : 		if ( BC_MAP_RANGE(gMSetBase.m_Mp[n].m_MapNumber) != FALSE )

  01c5f	8b 45 f8	 mov	 eax, DWORD PTR _n$261857[ebp]
  01c62	c1 e0 04	 shl	 eax, 4
  01c65	0f b6 88 08 00
	00 00		 movzx	 ecx, BYTE PTR ?gMSetBase@@3VCMonsterSetBase@@A[eax+8]
  01c6c	83 f9 34	 cmp	 ecx, 52			; 00000034H
  01c6f	75 09		 jne	 SHORT $LN39@GameMonste
  01c71	c7 45 b4 01 00
	00 00		 mov	 DWORD PTR tv128[ebp], 1
  01c78	eb 39		 jmp	 SHORT $LN40@GameMonste
$LN39@GameMonste:
  01c7a	8b 55 f8	 mov	 edx, DWORD PTR _n$261857[ebp]
  01c7d	c1 e2 04	 shl	 edx, 4
  01c80	0f b6 82 08 00
	00 00		 movzx	 eax, BYTE PTR ?gMSetBase@@3VCMonsterSetBase@@A[edx+8]
  01c87	83 f8 0b	 cmp	 eax, 11			; 0000000bH
  01c8a	7d 09		 jge	 SHORT $LN37@GameMonste
  01c8c	c7 45 b0 00 00
	00 00		 mov	 DWORD PTR tv95[ebp], 0
  01c93	eb 18		 jmp	 SHORT $LN38@GameMonste
$LN37@GameMonste:
  01c95	8b 4d f8	 mov	 ecx, DWORD PTR _n$261857[ebp]
  01c98	c1 e1 04	 shl	 ecx, 4
  01c9b	0f b6 91 08 00
	00 00		 movzx	 edx, BYTE PTR ?gMSetBase@@3VCMonsterSetBase@@A[ecx+8]
  01ca2	33 c0		 xor	 eax, eax
  01ca4	83 fa 11	 cmp	 edx, 17			; 00000011H
  01ca7	0f 9e c0	 setle	 al
  01caa	89 45 b0	 mov	 DWORD PTR tv95[ebp], eax
$LN38@GameMonste:
  01cad	8b 4d b0	 mov	 ecx, DWORD PTR tv95[ebp]
  01cb0	89 4d b4	 mov	 DWORD PTR tv128[ebp], ecx
$LN40@GameMonste:
  01cb3	83 7d b4 00	 cmp	 DWORD PTR tv128[ebp], 0
  01cb7	74 1a		 je	 SHORT $LN28@GameMonste

; 1205 : 		{
; 1206 : 			if ( gMSetBase.m_Mp[n].m_Type != 232 )

  01cb9	8b 45 f8	 mov	 eax, DWORD PTR _n$261857[ebp]
  01cbc	c1 e0 04	 shl	 eax, 4
  01cbf	0f b7 88 06 00
	00 00		 movzx	 ecx, WORD PTR ?gMSetBase@@3VCMonsterSetBase@@A[eax+6]
  01cc6	81 f9 e8 00 00
	00		 cmp	 ecx, 232		; 000000e8H
  01ccc	74 05		 je	 SHORT $LN28@GameMonste

; 1207 : 			{
; 1208 : 				continue;

  01cce	e9 39 ff ff ff	 jmp	 $LN31@GameMonste
$LN28@GameMonste:

; 1209 : 			}
; 1210 : 		}
; 1211 : 
; 1212 : 		if ( CC_MAP_RANGE(gMSetBase.m_Mp[n].m_MapNumber) != FALSE )

  01cd3	8b 45 f8	 mov	 eax, DWORD PTR _n$261857[ebp]
  01cd6	c1 e0 04	 shl	 eax, 4
  01cd9	0f b6 88 08 00
	00 00		 movzx	 ecx, BYTE PTR ?gMSetBase@@3VCMonsterSetBase@@A[eax+8]
  01ce0	83 f9 35	 cmp	 ecx, 53			; 00000035H
  01ce3	75 09		 jne	 SHORT $LN43@GameMonste
  01ce5	c7 45 b4 01 00
	00 00		 mov	 DWORD PTR tv152[ebp], 1
  01cec	eb 39		 jmp	 SHORT $LN44@GameMonste
$LN43@GameMonste:
  01cee	8b 55 f8	 mov	 edx, DWORD PTR _n$261857[ebp]
  01cf1	c1 e2 04	 shl	 edx, 4
  01cf4	0f b6 82 08 00
	00 00		 movzx	 eax, BYTE PTR ?gMSetBase@@3VCMonsterSetBase@@A[edx+8]
  01cfb	83 f8 12	 cmp	 eax, 18			; 00000012H
  01cfe	7d 09		 jge	 SHORT $LN41@GameMonste
  01d00	c7 45 b0 00 00
	00 00		 mov	 DWORD PTR tv151[ebp], 0
  01d07	eb 18		 jmp	 SHORT $LN42@GameMonste
$LN41@GameMonste:
  01d09	8b 4d f8	 mov	 ecx, DWORD PTR _n$261857[ebp]
  01d0c	c1 e1 04	 shl	 ecx, 4
  01d0f	0f b6 91 08 00
	00 00		 movzx	 edx, BYTE PTR ?gMSetBase@@3VCMonsterSetBase@@A[ecx+8]
  01d16	33 c0		 xor	 eax, eax
  01d18	83 fa 17	 cmp	 edx, 23			; 00000017H
  01d1b	0f 9e c0	 setle	 al
  01d1e	89 45 b0	 mov	 DWORD PTR tv151[ebp], eax
$LN42@GameMonste:
  01d21	8b 4d b0	 mov	 ecx, DWORD PTR tv151[ebp]
  01d24	89 4d b4	 mov	 DWORD PTR tv152[ebp], ecx
$LN44@GameMonste:
  01d27	83 7d b4 00	 cmp	 DWORD PTR tv152[ebp], 0
  01d2b	74 05		 je	 SHORT $LN26@GameMonste

; 1213 : 		{
; 1214 : 			continue;

  01d2d	e9 da fe ff ff	 jmp	 $LN31@GameMonste
$LN26@GameMonste:

; 1215 : 		}
; 1216 : 
; 1217 : 		if ( IT_MAP_RANGE(gMSetBase.m_Mp[n].m_MapNumber) != FALSE && gMSetBase.m_Mp[n].m_Type != 381 && gMSetBase.m_Mp[n].m_Type != 382)

  01d32	8b 45 f8	 mov	 eax, DWORD PTR _n$261857[ebp]
  01d35	c1 e0 04	 shl	 eax, 4
  01d38	0f b6 88 08 00
	00 00		 movzx	 ecx, BYTE PTR ?gMSetBase@@3VCMonsterSetBase@@A[eax+8]
  01d3f	83 f9 2d	 cmp	 ecx, 45			; 0000002dH
  01d42	7d 09		 jge	 SHORT $LN45@GameMonste
  01d44	c7 45 b4 00 00
	00 00		 mov	 DWORD PTR tv165[ebp], 0
  01d4b	eb 18		 jmp	 SHORT $LN46@GameMonste
$LN45@GameMonste:
  01d4d	8b 55 f8	 mov	 edx, DWORD PTR _n$261857[ebp]
  01d50	c1 e2 04	 shl	 edx, 4
  01d53	0f b6 82 08 00
	00 00		 movzx	 eax, BYTE PTR ?gMSetBase@@3VCMonsterSetBase@@A[edx+8]
  01d5a	33 c9		 xor	 ecx, ecx
  01d5c	83 f8 32	 cmp	 eax, 50			; 00000032H
  01d5f	0f 9e c1	 setle	 cl
  01d62	89 4d b4	 mov	 DWORD PTR tv165[ebp], ecx
$LN46@GameMonste:
  01d65	83 7d b4 00	 cmp	 DWORD PTR tv165[ebp], 0
  01d69	0f 84 f6 00 00
	00		 je	 $LN25@GameMonste
  01d6f	8b 45 f8	 mov	 eax, DWORD PTR _n$261857[ebp]
  01d72	c1 e0 04	 shl	 eax, 4
  01d75	0f b7 88 06 00
	00 00		 movzx	 ecx, WORD PTR ?gMSetBase@@3VCMonsterSetBase@@A[eax+6]
  01d7c	81 f9 7d 01 00
	00		 cmp	 ecx, 381		; 0000017dH
  01d82	0f 84 dd 00 00
	00		 je	 $LN25@GameMonste
  01d88	8b 45 f8	 mov	 eax, DWORD PTR _n$261857[ebp]
  01d8b	c1 e0 04	 shl	 eax, 4
  01d8e	0f b7 88 06 00
	00 00		 movzx	 ecx, WORD PTR ?gMSetBase@@3VCMonsterSetBase@@A[eax+6]
  01d95	81 f9 7e 01 00
	00		 cmp	 ecx, 382		; 0000017eH
  01d9b	0f 84 c4 00 00
	00		 je	 $LN25@GameMonste

; 1218 : 		{
; 1219 : 			if( gMSetBase.m_Mp[n].m_Type == 380 || gMSetBase.m_Mp[n].m_Type == 383 || gMSetBase.m_Mp[n].m_Type == 384 )

  01da1	8b 45 f8	 mov	 eax, DWORD PTR _n$261857[ebp]
  01da4	c1 e0 04	 shl	 eax, 4
  01da7	0f b7 88 06 00
	00 00		 movzx	 ecx, WORD PTR ?gMSetBase@@3VCMonsterSetBase@@A[eax+6]
  01dae	81 f9 7c 01 00
	00		 cmp	 ecx, 380		; 0000017cH
  01db4	74 2a		 je	 SHORT $LN23@GameMonste
  01db6	8b 45 f8	 mov	 eax, DWORD PTR _n$261857[ebp]
  01db9	c1 e0 04	 shl	 eax, 4
  01dbc	0f b7 88 06 00
	00 00		 movzx	 ecx, WORD PTR ?gMSetBase@@3VCMonsterSetBase@@A[eax+6]
  01dc3	81 f9 7f 01 00
	00		 cmp	 ecx, 383		; 0000017fH
  01dc9	74 15		 je	 SHORT $LN23@GameMonste
  01dcb	8b 45 f8	 mov	 eax, DWORD PTR _n$261857[ebp]
  01dce	c1 e0 04	 shl	 eax, 4
  01dd1	0f b7 88 06 00
	00 00		 movzx	 ecx, WORD PTR ?gMSetBase@@3VCMonsterSetBase@@A[eax+6]
  01dd8	81 f9 80 01 00
	00		 cmp	 ecx, 384		; 00000180H
  01dde	75 2c		 jne	 SHORT $LN24@GameMonste
$LN23@GameMonste:

; 1220 : 			{
; 1221 : 				g_IllusionTempleEvent.CreateNPCPosition(gMSetBase.m_Mp[n].m_MapNumber,gMSetBase.m_Mp[n].m_Type, n);

  01de0	8b 45 f8	 mov	 eax, DWORD PTR _n$261857[ebp]
  01de3	50		 push	 eax
  01de4	8b 4d f8	 mov	 ecx, DWORD PTR _n$261857[ebp]
  01de7	c1 e1 04	 shl	 ecx, 4
  01dea	0f b7 91 06 00
	00 00		 movzx	 edx, WORD PTR ?gMSetBase@@3VCMonsterSetBase@@A[ecx+6]
  01df1	52		 push	 edx
  01df2	8b 45 f8	 mov	 eax, DWORD PTR _n$261857[ebp]
  01df5	c1 e0 04	 shl	 eax, 4
  01df8	0f b6 88 08 00
	00 00		 movzx	 ecx, BYTE PTR ?gMSetBase@@3VCMonsterSetBase@@A[eax+8]
  01dff	51		 push	 ecx
  01e00	b9 00 00 00 00	 mov	 ecx, OFFSET ?g_IllusionTempleEvent@@3VCIllusionTempleEvent@@A ; g_IllusionTempleEvent
  01e05	e8 00 00 00 00	 call	 ?CreateNPCPosition@CIllusionTempleEvent@@QAEXEHH@Z ; CIllusionTempleEvent::CreateNPCPosition
  01e0a	eb 54		 jmp	 SHORT $LN22@GameMonste
$LN24@GameMonste:

; 1222 : 			}
; 1223 : 			else if(gMSetBase.m_Mp[n].m_Type >= 386 || gMSetBase.m_Mp[n].m_Type <= 403)

  01e0c	8b 45 f8	 mov	 eax, DWORD PTR _n$261857[ebp]
  01e0f	c1 e0 04	 shl	 eax, 4
  01e12	0f b7 88 06 00
	00 00		 movzx	 ecx, WORD PTR ?gMSetBase@@3VCMonsterSetBase@@A[eax+6]
  01e19	81 f9 82 01 00
	00		 cmp	 ecx, 386		; 00000182H
  01e1f	7d 15		 jge	 SHORT $LN20@GameMonste
  01e21	8b 45 f8	 mov	 eax, DWORD PTR _n$261857[ebp]
  01e24	c1 e0 04	 shl	 eax, 4
  01e27	0f b7 88 06 00
	00 00		 movzx	 ecx, WORD PTR ?gMSetBase@@3VCMonsterSetBase@@A[eax+6]
  01e2e	81 f9 93 01 00
	00		 cmp	 ecx, 403		; 00000193H
  01e34	7f 2a		 jg	 SHORT $LN22@GameMonste
$LN20@GameMonste:

; 1224 : 			{
; 1225 : 				g_IllusionTempleEvent.CreateMonsterPosition(gMSetBase.m_Mp[n].m_MapNumber,gMSetBase.m_Mp[n].m_Type, n);

  01e36	8b 45 f8	 mov	 eax, DWORD PTR _n$261857[ebp]
  01e39	50		 push	 eax
  01e3a	8b 4d f8	 mov	 ecx, DWORD PTR _n$261857[ebp]
  01e3d	c1 e1 04	 shl	 ecx, 4
  01e40	0f b7 91 06 00
	00 00		 movzx	 edx, WORD PTR ?gMSetBase@@3VCMonsterSetBase@@A[ecx+6]
  01e47	52		 push	 edx
  01e48	8b 45 f8	 mov	 eax, DWORD PTR _n$261857[ebp]
  01e4b	c1 e0 04	 shl	 eax, 4
  01e4e	0f b6 88 08 00
	00 00		 movzx	 ecx, BYTE PTR ?gMSetBase@@3VCMonsterSetBase@@A[eax+8]
  01e55	51		 push	 ecx
  01e56	b9 00 00 00 00	 mov	 ecx, OFFSET ?g_IllusionTempleEvent@@3VCIllusionTempleEvent@@A ; g_IllusionTempleEvent
  01e5b	e8 00 00 00 00	 call	 ?CreateMonsterPosition@CIllusionTempleEvent@@QAEXEHH@Z ; CIllusionTempleEvent::CreateMonsterPosition
$LN22@GameMonste:

; 1226 : 			}
; 1227 : 
; 1228 : 			continue;

  01e60	e9 a7 fd ff ff	 jmp	 $LN31@GameMonste
$LN25@GameMonste:

; 1229 : 		}
; 1230 : #ifdef IMPERIAL_CONFLICT_NEW
; 1231 : 		if( CImperialGuardian::IsEventMap(gMSetBase.m_Mp[n].m_MapNumber) )
; 1232 : 			continue;
; 1233 : #endif
; 1234 : 
; 1235 : #if(CUSTOM_MAPQUEST)
; 1236 : 		/*	if(g_MapQuest.GetMapMonster(n))
; 1237 : 			{
; 1238 : 				continue;
; 1239 : 			}*/
; 1240 : #endif
; 1241 : 			
; 1242 : 		result = gObjAddMonster(gMSetBase.m_Mp[n].m_MapNumber);

  01e65	8b 45 f8	 mov	 eax, DWORD PTR _n$261857[ebp]
  01e68	c1 e0 04	 shl	 eax, 4
  01e6b	0f b6 88 08 00
	00 00		 movzx	 ecx, BYTE PTR ?gMSetBase@@3VCMonsterSetBase@@A[eax+8]
  01e72	51		 push	 ecx
  01e73	e8 00 00 00 00	 call	 ?gObjAddMonster@@YAFH@Z	; gObjAddMonster
  01e78	83 c4 04	 add	 esp, 4
  01e7b	0f bf d0	 movsx	 edx, ax
  01e7e	89 55 fc	 mov	 DWORD PTR _result$[ebp], edx

; 1243 : 
; 1244 : 		if ( result >= 0 )

  01e81	83 7d fc 00	 cmp	 DWORD PTR _result$[ebp], 0
  01e85	0f 8c 05 03 00
	00		 jl	 $LN19@GameMonste

; 1245 : 		{
; 1246 : 			gObjSetPosMonster(result, n);

  01e8b	8b 45 f8	 mov	 eax, DWORD PTR _n$261857[ebp]
  01e8e	50		 push	 eax
  01e8f	8b 4d fc	 mov	 ecx, DWORD PTR _result$[ebp]
  01e92	51		 push	 ecx
  01e93	e8 00 00 00 00	 call	 ?gObjSetPosMonster@@YAHHH@Z ; gObjSetPosMonster
  01e98	83 c4 08	 add	 esp, 8

; 1247 : 			gObjSetMonster(result, gMSetBase.m_Mp[n].m_Type);

  01e9b	8b 45 f8	 mov	 eax, DWORD PTR _n$261857[ebp]
  01e9e	c1 e0 04	 shl	 eax, 4
  01ea1	0f b7 88 06 00
	00 00		 movzx	 ecx, WORD PTR ?gMSetBase@@3VCMonsterSetBase@@A[eax+6]
  01ea8	51		 push	 ecx
  01ea9	8b 55 fc	 mov	 edx, DWORD PTR _result$[ebp]
  01eac	52		 push	 edx
  01ead	e8 00 00 00 00	 call	 ?gObjSetMonster@@YAHHH@Z ; gObjSetMonster
  01eb2	83 c4 08	 add	 esp, 8

; 1248 : 			gCurPaintPlayer++;

  01eb5	a1 00 00 00 00	 mov	 eax, DWORD PTR ?gCurPaintPlayer@@3HA ; gCurPaintPlayer
  01eba	83 c0 01	 add	 eax, 1
  01ebd	a3 00 00 00 00	 mov	 DWORD PTR ?gCurPaintPlayer@@3HA, eax ; gCurPaintPlayer

; 1249 : 
; 1250 : 			if ( BC_MAP_RANGE(gObj[result].MapNumber) )

  01ec2	8b 45 fc	 mov	 eax, DWORD PTR _result$[ebp]
  01ec5	69 c0 38 2b 00
	00		 imul	 eax, 11064		; 00002b38H
  01ecb	8b 0d 00 00 00
	00		 mov	 ecx, DWORD PTR ?gObj@@3PAUOBJECTSTRUCT@@A ; gObj
  01ed1	0f b6 94 01 49
	01 00 00	 movzx	 edx, BYTE PTR [ecx+eax+329]
  01ed9	83 fa 34	 cmp	 edx, 52			; 00000034H
  01edc	75 09		 jne	 SHORT $LN49@GameMonste
  01ede	c7 45 b4 01 00
	00 00		 mov	 DWORD PTR tv258[ebp], 1
  01ee5	eb 4d		 jmp	 SHORT $LN50@GameMonste
$LN49@GameMonste:
  01ee7	8b 45 fc	 mov	 eax, DWORD PTR _result$[ebp]
  01eea	69 c0 38 2b 00
	00		 imul	 eax, 11064		; 00002b38H
  01ef0	8b 0d 00 00 00
	00		 mov	 ecx, DWORD PTR ?gObj@@3PAUOBJECTSTRUCT@@A ; gObj
  01ef6	0f b6 94 01 49
	01 00 00	 movzx	 edx, BYTE PTR [ecx+eax+329]
  01efe	83 fa 0b	 cmp	 edx, 11			; 0000000bH
  01f01	7d 09		 jge	 SHORT $LN47@GameMonste
  01f03	c7 45 b0 00 00
	00 00		 mov	 DWORD PTR tv257[ebp], 0
  01f0a	eb 22		 jmp	 SHORT $LN48@GameMonste
$LN47@GameMonste:
  01f0c	8b 45 fc	 mov	 eax, DWORD PTR _result$[ebp]
  01f0f	69 c0 38 2b 00
	00		 imul	 eax, 11064		; 00002b38H
  01f15	8b 0d 00 00 00
	00		 mov	 ecx, DWORD PTR ?gObj@@3PAUOBJECTSTRUCT@@A ; gObj
  01f1b	0f b6 94 01 49
	01 00 00	 movzx	 edx, BYTE PTR [ecx+eax+329]
  01f23	33 c0		 xor	 eax, eax
  01f25	83 fa 11	 cmp	 edx, 17			; 00000011H
  01f28	0f 9e c0	 setle	 al
  01f2b	89 45 b0	 mov	 DWORD PTR tv257[ebp], eax
$LN48@GameMonste:
  01f2e	8b 4d b0	 mov	 ecx, DWORD PTR tv257[ebp]
  01f31	89 4d b4	 mov	 DWORD PTR tv258[ebp], ecx
$LN50@GameMonste:
  01f34	83 7d b4 00	 cmp	 DWORD PTR tv258[ebp], 0
  01f38	74 57		 je	 SHORT $LN18@GameMonste

; 1251 : 			{
; 1252 : 				if ( gObj[result].Class == 232 )

  01f3a	8b 45 fc	 mov	 eax, DWORD PTR _result$[ebp]
  01f3d	69 c0 38 2b 00
	00		 imul	 eax, 11064		; 00002b38H
  01f43	8b 0d 00 00 00
	00		 mov	 ecx, DWORD PTR ?gObj@@3PAUOBJECTSTRUCT@@A ; gObj
  01f49	0f b7 94 01 b8
	00 00 00	 movzx	 edx, WORD PTR [ecx+eax+184]
  01f51	81 fa e8 00 00
	00		 cmp	 edx, 232		; 000000e8H
  01f57	75 38		 jne	 SHORT $LN18@GameMonste

; 1253 : 				{
; 1254 : 					gObj[result].m_cBloodCastleIndex = g_BloodCastle.GetBridgeIndex(gObj[result].MapNumber);

  01f59	8b 45 fc	 mov	 eax, DWORD PTR _result$[ebp]
  01f5c	69 c0 38 2b 00
	00		 imul	 eax, 11064		; 00002b38H
  01f62	8b 0d 00 00 00
	00		 mov	 ecx, DWORD PTR ?gObj@@3PAUOBJECTSTRUCT@@A ; gObj
  01f68	0f b6 94 01 49
	01 00 00	 movzx	 edx, BYTE PTR [ecx+eax+329]
  01f70	52		 push	 edx
  01f71	b9 00 00 00 00	 mov	 ecx, OFFSET ?g_BloodCastle@@3VCBloodCastle@@A ; g_BloodCastle
  01f76	e8 00 00 00 00	 call	 ?GetBridgeIndex@CBloodCastle@@QAEHH@Z ; CBloodCastle::GetBridgeIndex
  01f7b	8b 4d fc	 mov	 ecx, DWORD PTR _result$[ebp]
  01f7e	69 c9 38 2b 00
	00		 imul	 ecx, 11064		; 00002b38H
  01f84	8b 15 00 00 00
	00		 mov	 edx, DWORD PTR ?gObj@@3PAUOBJECTSTRUCT@@A ; gObj
  01f8a	88 84 0a 9e 0e
	00 00		 mov	 BYTE PTR [edx+ecx+3742], al
$LN18@GameMonste:

; 1255 : 				}
; 1256 : 			}
; 1257 : 
; 1258 : #ifdef IMPERIAL_CONFLICT_OLD
; 1259 : 			if ( gObj[result].Class == 523 && IMPERIAL_MAP_RANGE(gObj[result].MapNumber) )	//Season 5 ImperialFort

  01f91	8b 45 fc	 mov	 eax, DWORD PTR _result$[ebp]
  01f94	69 c0 38 2b 00
	00		 imul	 eax, 11064		; 00002b38H
  01f9a	8b 0d 00 00 00
	00		 mov	 ecx, DWORD PTR ?gObj@@3PAUOBJECTSTRUCT@@A ; gObj
  01fa0	0f b7 94 01 b8
	00 00 00	 movzx	 edx, WORD PTR [ecx+eax+184]
  01fa8	81 fa 0b 02 00
	00		 cmp	 edx, 523		; 0000020bH
  01fae	75 74		 jne	 SHORT $LN16@GameMonste
  01fb0	8b 45 fc	 mov	 eax, DWORD PTR _result$[ebp]
  01fb3	69 c0 38 2b 00
	00		 imul	 eax, 11064		; 00002b38H
  01fb9	8b 0d 00 00 00
	00		 mov	 ecx, DWORD PTR ?gObj@@3PAUOBJECTSTRUCT@@A ; gObj
  01fbf	0f b6 94 01 49
	01 00 00	 movzx	 edx, BYTE PTR [ecx+eax+329]
  01fc7	83 fa 45	 cmp	 edx, 69			; 00000045H
  01fca	7d 09		 jge	 SHORT $LN51@GameMonste
  01fcc	c7 45 b4 00 00
	00 00		 mov	 DWORD PTR tv292[ebp], 0
  01fd3	eb 22		 jmp	 SHORT $LN52@GameMonste
$LN51@GameMonste:
  01fd5	8b 45 fc	 mov	 eax, DWORD PTR _result$[ebp]
  01fd8	69 c0 38 2b 00
	00		 imul	 eax, 11064		; 00002b38H
  01fde	8b 0d 00 00 00
	00		 mov	 ecx, DWORD PTR ?gObj@@3PAUOBJECTSTRUCT@@A ; gObj
  01fe4	0f b6 94 01 49
	01 00 00	 movzx	 edx, BYTE PTR [ecx+eax+329]
  01fec	33 c0		 xor	 eax, eax
  01fee	83 fa 48	 cmp	 edx, 72			; 00000048H
  01ff1	0f 9e c0	 setle	 al
  01ff4	89 45 b4	 mov	 DWORD PTR tv292[ebp], eax
$LN52@GameMonste:
  01ff7	83 7d b4 00	 cmp	 DWORD PTR tv292[ebp], 0
  01ffb	74 27		 je	 SHORT $LN16@GameMonste

; 1260 : 			{
; 1261 : 				g_Imperial.SetTrapIndex(result, gObj[result].MapNumber);

  01ffd	8b 45 fc	 mov	 eax, DWORD PTR _result$[ebp]
  02000	69 c0 38 2b 00
	00		 imul	 eax, 11064		; 00002b38H
  02006	8b 0d 00 00 00
	00		 mov	 ecx, DWORD PTR ?gObj@@3PAUOBJECTSTRUCT@@A ; gObj
  0200c	0f b6 94 01 49
	01 00 00	 movzx	 edx, BYTE PTR [ecx+eax+329]
  02014	52		 push	 edx
  02015	0f b7 45 fc	 movzx	 eax, WORD PTR _result$[ebp]
  02019	50		 push	 eax
  0201a	b9 00 00 00 00	 mov	 ecx, OFFSET ?g_Imperial@@3VCImperial@@A ; g_Imperial
  0201f	e8 00 00 00 00	 call	 ?SetTrapIndex@CImperial@@QAEXFH@Z ; CImperial::SetTrapIndex
$LN16@GameMonste:

; 1262 : 			}
; 1263 : #endif
; 1264 : //#if(GS_CASTLE==1)
; 1265 : 				if ( gObj[result].Class == 216 )

  02024	8b 45 fc	 mov	 eax, DWORD PTR _result$[ebp]
  02027	69 c0 38 2b 00
	00		 imul	 eax, 11064		; 00002b38H
  0202d	8b 0d 00 00 00
	00		 mov	 ecx, DWORD PTR ?gObj@@3PAUOBJECTSTRUCT@@A ; gObj
  02033	0f b7 94 01 b8
	00 00 00	 movzx	 edx, WORD PTR [ecx+eax+184]
  0203b	81 fa d8 00 00
	00		 cmp	 edx, 216		; 000000d8H
  02041	75 0e		 jne	 SHORT $LN15@GameMonste

; 1266 : 				{
; 1267 : 					g_CastleSiege.SetCrownIndex(result);

  02043	8b 45 fc	 mov	 eax, DWORD PTR _result$[ebp]
  02046	50		 push	 eax
  02047	b9 00 00 00 00	 mov	 ecx, OFFSET ?g_CastleSiege@@3VCCastleSiege@@A ; g_CastleSiege
  0204c	e8 00 00 00 00	 call	 ?SetCrownIndex@CCastleSiege@@QAEXH@Z ; CCastleSiege::SetCrownIndex
$LN15@GameMonste:

; 1268 : 				}
; 1269 : 				if( CRYWOLF_MAP_RANGE(gObj[result].MapNumber) )

  02051	8b 45 fc	 mov	 eax, DWORD PTR _result$[ebp]
  02054	69 c0 38 2b 00
	00		 imul	 eax, 11064		; 00002b38H
  0205a	8b 0d 00 00 00
	00		 mov	 ecx, DWORD PTR ?gObj@@3PAUOBJECTSTRUCT@@A ; gObj
  02060	0f b6 94 01 49
	01 00 00	 movzx	 edx, BYTE PTR [ecx+eax+329]
  02068	33 c0		 xor	 eax, eax
  0206a	83 fa 22	 cmp	 edx, 34			; 00000022H
  0206d	0f 94 c0	 sete	 al
  02070	85 c0		 test	 eax, eax
  02072	0f 84 ce 00 00
	00		 je	 $LN14@GameMonste

; 1270 : 				{
; 1271 : 					if(gObj[result].Type == OBJ_NPC)

  02078	8b 45 fc	 mov	 eax, DWORD PTR _result$[ebp]
  0207b	69 c0 38 2b 00
	00		 imul	 eax, 11064		; 00002b38H
  02081	8b 0d 00 00 00
	00		 mov	 ecx, DWORD PTR ?gObj@@3PAUOBJECTSTRUCT@@A ; gObj
  02087	0f b7 54 01 68	 movzx	 edx, WORD PTR [ecx+eax+104]
  0208c	83 fa 03	 cmp	 edx, 3
  0208f	0f 85 b1 00 00
	00		 jne	 $LN14@GameMonste

; 1272 : 					{
; 1273 : 						if(gObj[result].Class == 406 || gObj[result].Class == 407)

  02095	8b 45 fc	 mov	 eax, DWORD PTR _result$[ebp]
  02098	69 c0 38 2b 00
	00		 imul	 eax, 11064		; 00002b38H
  0209e	8b 0d 00 00 00
	00		 mov	 ecx, DWORD PTR ?gObj@@3PAUOBJECTSTRUCT@@A ; gObj
  020a4	0f b7 94 01 b8
	00 00 00	 movzx	 edx, WORD PTR [ecx+eax+184]
  020ac	81 fa 96 01 00
	00		 cmp	 edx, 406		; 00000196H
  020b2	74 1f		 je	 SHORT $LN11@GameMonste
  020b4	8b 45 fc	 mov	 eax, DWORD PTR _result$[ebp]
  020b7	69 c0 38 2b 00
	00		 imul	 eax, 11064		; 00002b38H
  020bd	8b 0d 00 00 00
	00		 mov	 ecx, DWORD PTR ?gObj@@3PAUOBJECTSTRUCT@@A ; gObj
  020c3	0f b7 94 01 b8
	00 00 00	 movzx	 edx, WORD PTR [ecx+eax+184]
  020cb	81 fa 97 01 00
	00		 cmp	 edx, 407		; 00000197H
  020d1	75 02		 jne	 SHORT $LN12@GameMonste
$LN11@GameMonste:

; 1274 : 						{
; 1275 : 							
; 1276 : 						}
; 1277 : 						else if ( CRYWOLF_ALTAR_CLASS_RANGE(gObj[result].Class) ) //Altar?

  020d3	eb 71		 jmp	 SHORT $LN14@GameMonste
$LN12@GameMonste:
  020d5	8b 45 fc	 mov	 eax, DWORD PTR _result$[ebp]
  020d8	69 c0 38 2b 00
	00		 imul	 eax, 11064		; 00002b38H
  020de	8b 0d 00 00 00
	00		 mov	 ecx, DWORD PTR ?gObj@@3PAUOBJECTSTRUCT@@A ; gObj
  020e4	0f b7 94 01 b8
	00 00 00	 movzx	 edx, WORD PTR [ecx+eax+184]
  020ec	81 fa cd 00 00
	00		 cmp	 edx, 205		; 000000cdH
  020f2	7d 09		 jge	 SHORT $LN53@GameMonste
  020f4	c7 45 b4 00 00
	00 00		 mov	 DWORD PTR tv341[ebp], 0
  020fb	eb 25		 jmp	 SHORT $LN54@GameMonste
$LN53@GameMonste:
  020fd	8b 45 fc	 mov	 eax, DWORD PTR _result$[ebp]
  02100	69 c0 38 2b 00
	00		 imul	 eax, 11064		; 00002b38H
  02106	8b 0d 00 00 00
	00		 mov	 ecx, DWORD PTR ?gObj@@3PAUOBJECTSTRUCT@@A ; gObj
  0210c	0f b7 94 01 b8
	00 00 00	 movzx	 edx, WORD PTR [ecx+eax+184]
  02114	33 c0		 xor	 eax, eax
  02116	81 fa d1 00 00
	00		 cmp	 edx, 209		; 000000d1H
  0211c	0f 9e c0	 setle	 al
  0211f	89 45 b4	 mov	 DWORD PTR tv341[ebp], eax
$LN54@GameMonste:
  02122	83 7d b4 00	 cmp	 DWORD PTR tv341[ebp], 0
  02126	74 10		 je	 SHORT $LN9@GameMonste

; 1278 : 						{
; 1279 : 							g_Crywolf.m_ObjSpecialNPC.AddObj(result);

  02128	8b 45 fc	 mov	 eax, DWORD PTR _result$[ebp]
  0212b	50		 push	 eax
  0212c	b9 f8 bd 0f 00	 mov	 ecx, OFFSET ?g_Crywolf@@3VCCrywolf@@A+1031672
  02131	e8 00 00 00 00	 call	 ?AddObj@CCrywolfObjInfo@@QAEHH@Z ; CCrywolfObjInfo::AddObj

; 1280 : 						}
; 1281 : 						else

  02136	eb 0e		 jmp	 SHORT $LN14@GameMonste
$LN9@GameMonste:

; 1282 : 						{
; 1283 : 							g_Crywolf.m_ObjCommonNPC.AddObj(result);

  02138	8b 45 fc	 mov	 eax, DWORD PTR _result$[ebp]
  0213b	50		 push	 eax
  0213c	b9 44 b9 0f 00	 mov	 ecx, OFFSET ?g_Crywolf@@3VCCrywolf@@A+1030468
  02141	e8 00 00 00 00	 call	 ?AddObj@CCrywolfObjInfo@@QAEHH@Z ; CCrywolfObjInfo::AddObj
$LN14@GameMonste:

; 1284 : 						}
; 1285 : 					}
; 1286 : 				}
; 1287 : 				if( CRYWOLF_MAP_RANGE(gObj[result].MapNumber) )

  02146	8b 45 fc	 mov	 eax, DWORD PTR _result$[ebp]
  02149	69 c0 38 2b 00
	00		 imul	 eax, 11064		; 00002b38H
  0214f	8b 0d 00 00 00
	00		 mov	 ecx, DWORD PTR ?gObj@@3PAUOBJECTSTRUCT@@A ; gObj
  02155	0f b6 94 01 49
	01 00 00	 movzx	 edx, BYTE PTR [ecx+eax+329]
  0215d	33 c0		 xor	 eax, eax
  0215f	83 fa 22	 cmp	 edx, 34			; 00000022H
  02162	0f 94 c0	 sete	 al
  02165	85 c0		 test	 eax, eax
  02167	74 27		 je	 SHORT $LN19@GameMonste

; 1288 : 				{
; 1289 : 					if(gObj[result].Type == OBJ_MONSTER)

  02169	8b 45 fc	 mov	 eax, DWORD PTR _result$[ebp]
  0216c	69 c0 38 2b 00
	00		 imul	 eax, 11064		; 00002b38H
  02172	8b 0d 00 00 00
	00		 mov	 ecx, DWORD PTR ?gObj@@3PAUOBJECTSTRUCT@@A ; gObj
  02178	0f b7 54 01 68	 movzx	 edx, WORD PTR [ecx+eax+104]
  0217d	83 fa 02	 cmp	 edx, 2
  02180	75 0e		 jne	 SHORT $LN19@GameMonste

; 1290 : 					{
; 1291 : 						g_Crywolf.m_ObjCommonMonster.AddObj(result);

  02182	8b 45 fc	 mov	 eax, DWORD PTR _result$[ebp]
  02185	50		 push	 eax
  02186	b9 ac c2 0f 00	 mov	 ecx, OFFSET ?g_Crywolf@@3VCCrywolf@@A+1032876
  0218b	e8 00 00 00 00	 call	 ?AddObj@CCrywolfObjInfo@@QAEHH@Z ; CCrywolfObjInfo::AddObj
$LN19@GameMonste:

; 1292 : 					}
; 1293 : 				}
; 1294 : //#endif
; 1295 : 		}
; 1296 : 	}

  02190	e9 77 fa ff ff	 jmp	 $LN31@GameMonste
$LN30@GameMonste:

; 1297 : 
; 1298 : //#if(GS_CASTLE==1)
; 1299 : //	gDevilSquareEvent = FALSE;
; 1300 : //	g_bChaosCastle = FALSE;
; 1301 : //	g_iUseRaklionEvent = FALSE;
; 1302 : //#endif
; 1303 : 
; 1304 : 	g_DevilSquare.Init();

  02195	b9 00 00 00 00	 mov	 ecx, OFFSET ?g_DevilSquare@@3VCDevilSquare@@A ; g_DevilSquare
  0219a	e8 00 00 00 00	 call	 ?Init@CDevilSquare@@QAEXXZ ; CDevilSquare::Init

; 1305 : 	g_BloodCastle.LoadItemDropRate();

  0219f	b9 00 00 00 00	 mov	 ecx, OFFSET ?g_BloodCastle@@3VCBloodCastle@@A ; g_BloodCastle
  021a4	e8 00 00 00 00	 call	 ?LoadItemDropRate@CBloodCastle@@QAEXXZ ; CBloodCastle::LoadItemDropRate

; 1306 : 
; 1307 : //#if(GS_CASTLE==1)
; 1308 : //	g_bBloodCastle = FALSE;
; 1309 : //#endif
; 1310 : 
; 1311 : 	if ( g_bBloodCastle != FALSE )

  021a9	83 3d 00 00 00
	00 00		 cmp	 DWORD PTR ?g_bBloodCastle@@3HA, 0 ; g_bBloodCastle
  021b0	74 0e		 je	 SHORT $LN5@GameMonste

; 1312 : 	{
; 1313 : 		g_BloodCastle.Init(TRUE);

  021b2	6a 01		 push	 1
  021b4	b9 00 00 00 00	 mov	 ecx, OFFSET ?g_BloodCastle@@3VCBloodCastle@@A ; g_BloodCastle
  021b9	e8 00 00 00 00	 call	 ?Init@CBloodCastle@@QAEX_N@Z ; CBloodCastle::Init

; 1314 : 	}
; 1315 : 	else

  021be	eb 0c		 jmp	 SHORT $LN4@GameMonste
$LN5@GameMonste:

; 1316 : 	{
; 1317 : 		g_BloodCastle.Init(FALSE);

  021c0	6a 00		 push	 0
  021c2	b9 00 00 00 00	 mov	 ecx, OFFSET ?g_BloodCastle@@3VCBloodCastle@@A ; g_BloodCastle
  021c7	e8 00 00 00 00	 call	 ?Init@CBloodCastle@@QAEX_N@Z ; CBloodCastle::Init
$LN4@GameMonste:

; 1318 : 	}
; 1319 : 
; 1320 : 	if ( g_bChaosCastle != FALSE )

  021cc	83 3d 00 00 00
	00 00		 cmp	 DWORD PTR ?g_bChaosCastle@@3HA, 0 ; g_bChaosCastle
  021d3	74 0e		 je	 SHORT $LN3@GameMonste

; 1321 : 	{
; 1322 : 		g_ChaosCastle.Init(TRUE);

  021d5	6a 01		 push	 1
  021d7	b9 00 00 00 00	 mov	 ecx, OFFSET ?g_ChaosCastle@@3VCChaosCastle@@A ; g_ChaosCastle
  021dc	e8 00 00 00 00	 call	 ?Init@CChaosCastle@@QAEX_N@Z ; CChaosCastle::Init

; 1323 : 	}
; 1324 : 	else

  021e1	eb 0c		 jmp	 SHORT $LN2@GameMonste
$LN3@GameMonste:

; 1325 : 	{
; 1326 : 		g_ChaosCastle.Init(FALSE);

  021e3	6a 00		 push	 0
  021e5	b9 00 00 00 00	 mov	 ecx, OFFSET ?g_ChaosCastle@@3VCChaosCastle@@A ; g_ChaosCastle
  021ea	e8 00 00 00 00	 call	 ?Init@CChaosCastle@@QAEX_N@Z ; CChaosCastle::Init
$LN2@GameMonste:

; 1327 : 	}
; 1328 : //#if(GS_CASTLE == 1)
; 1329 : //	g_iIllusionTempleEvent = FALSE;
; 1330 : //#endif
; 1331 : 	if ( g_iIllusionTempleEvent != FALSE )

  021ef	83 3d 00 00 00
	00 00		 cmp	 DWORD PTR ?g_iIllusionTempleEvent@@3HA, 0 ; g_iIllusionTempleEvent
  021f6	74 0a		 je	 SHORT $LN1@GameMonste

; 1332 : 	{
; 1333 : 		g_IllusionTempleEvent.Init();

  021f8	b9 00 00 00 00	 mov	 ecx, OFFSET ?g_IllusionTempleEvent@@3VCIllusionTempleEvent@@A ; g_IllusionTempleEvent
  021fd	e8 00 00 00 00	 call	 ?Init@CIllusionTempleEvent@@QAEHXZ ; CIllusionTempleEvent::Init
$LN1@GameMonste:

; 1334 : 	}
; 1335 : 	g_DoppelGanger.Init();	//Season 5 DopplGanger

  02202	b9 00 00 00 00	 mov	 ecx, OFFSET ?g_DoppelGanger@@3VCDoppelGanger@@A ; g_DoppelGanger
  02207	e8 00 00 00 00	 call	 ?Init@CDoppelGanger@@QAEXXZ ; CDoppelGanger::Init

; 1336 : 
; 1337 : #ifdef IMPERIAL_CONFLICT_OLD	
; 1338 : 	g_Imperial.Init();		//Season 5 ImperialFort

  0220c	b9 00 00 00 00	 mov	 ecx, OFFSET ?g_Imperial@@3VCImperial@@A ; g_Imperial
  02211	e8 00 00 00 00	 call	 ?Init@CImperial@@QAEXXZ	; CImperial::Init

; 1339 : #endif
; 1340 : 
; 1341 : #if(EVENT_CARNAGE)
; 1342 : 	g_CarnageEvent.LoadMonster();

  02216	b9 00 00 00 00	 mov	 ecx, OFFSET ?g_CarnageEvent@@3VCCarnageEvent@@A ; g_CarnageEvent
  0221b	e8 00 00 00 00	 call	 ?LoadMonster@CCarnageEvent@@QAEXXZ ; CCarnageEvent::LoadMonster

; 1343 : #endif
; 1344 : #if(CUSTOM_MAPQUEST)
; 1345 : 	g_MapQuest.LoadMonsterPos();

  02220	b9 00 00 00 00	 mov	 ecx, OFFSET ?g_MapQuest@@3VCMapQuest@@A ; g_MapQuest
  02225	e8 00 00 00 00	 call	 ?LoadMonsterPos@CMapQuest@@QAEXXZ ; CMapQuest::LoadMonsterPos

; 1346 : #endif
; 1347 : 	#if(DEV_MONSTERTIME)
; 1348 : 	g_MonsterTime.LoadMonsterPos();

  0222a	b9 00 00 00 00	 mov	 ecx, OFFSET ?g_MonsterTime@@3VCMonsterTime@@A ; g_MonsterTime
  0222f	e8 00 00 00 00	 call	 ?LoadMonsterPos@CMonsterTime@@QAEXXZ ; CMonsterTime::LoadMonsterPos

; 1349 : 	#endif
; 1350 : 
; 1351 : }

  02234	5f		 pop	 edi
  02235	5e		 pop	 esi
  02236	5b		 pop	 ebx
  02237	8b e5		 mov	 esp, ebp
  02239	5d		 pop	 ebp
  0223a	c3		 ret	 0
?GameMonsterAllAdd@@YAXXZ ENDP				; GameMonsterAllAdd
; Function compile flags: /Odtp /ZI
; File d:\projects\exteam6.3\source\gameserver\gameserver\castlesiege.h
_TEXT	ENDS
;	COMDAT ?SetCrownIndex@CCastleSiege@@QAEXH@Z
_TEXT	SEGMENT
_this$ = -4						; size = 4
_iIndex$ = 8						; size = 4
?SetCrownIndex@CCastleSiege@@QAEXH@Z PROC		; CCastleSiege::SetCrownIndex, COMDAT
; _this$ = ecx

; 345  : 	void SetCrownIndex(int iIndex){m_iCrownIndex = iIndex;}

  00000	55		 push	 ebp
  00001	8b ec		 mov	 ebp, esp
  00003	83 ec 44	 sub	 esp, 68			; 00000044H
  00006	53		 push	 ebx
  00007	56		 push	 esi
  00008	57		 push	 edi
  00009	89 4d fc	 mov	 DWORD PTR _this$[ebp], ecx
  0000c	8b 45 fc	 mov	 eax, DWORD PTR _this$[ebp]
  0000f	8b 4d 08	 mov	 ecx, DWORD PTR _iIndex$[ebp]
  00012	89 88 ec 01 00
	00		 mov	 DWORD PTR [eax+492], ecx
  00018	5f		 pop	 edi
  00019	5e		 pop	 esi
  0001a	5b		 pop	 ebx
  0001b	8b e5		 mov	 esp, ebp
  0001d	5d		 pop	 ebp
  0001e	c2 04 00	 ret	 4
?SetCrownIndex@CCastleSiege@@QAEXH@Z ENDP		; CCastleSiege::SetCrownIndex
; Function compile flags: /Odtp /ZI
; File d:\projects\exteam6.3\source\gameserver\gameserver\crywolfobjinfo.h
_TEXT	ENDS
;	COMDAT ?AddObj@CCrywolfObjInfo@@QAEHH@Z
_TEXT	SEGMENT
_this$ = -4						; size = 4
_iIndex$ = 8						; size = 4
?AddObj@CCrywolfObjInfo@@QAEHH@Z PROC			; CCrywolfObjInfo::AddObj, COMDAT
; _this$ = ecx

; 36   : 	{

  00000	55		 push	 ebp
  00001	8b ec		 mov	 ebp, esp
  00003	83 ec 44	 sub	 esp, 68			; 00000044H
  00006	53		 push	 ebx
  00007	56		 push	 esi
  00008	57		 push	 edi
  00009	89 4d fc	 mov	 DWORD PTR _this$[ebp], ecx

; 37   : 		if ( this->m_iObjCount >= MAX_CRYWOLF_OBJ_INFO )

  0000c	8b 45 fc	 mov	 eax, DWORD PTR _this$[ebp]
  0000f	81 38 2c 01 00
	00		 cmp	 DWORD PTR [eax], 300	; 0000012cH
  00015	7c 04		 jl	 SHORT $LN1@AddObj

; 38   : 		{
; 39   : 			return FALSE;

  00017	33 c0		 xor	 eax, eax
  00019	eb 21		 jmp	 SHORT $LN2@AddObj
$LN1@AddObj:

; 40   : 		}
; 41   : 
; 42   : 		this->m_iObjIndex[this->m_iObjCount] = iIndex;

  0001b	8b 45 fc	 mov	 eax, DWORD PTR _this$[ebp]
  0001e	8b 08		 mov	 ecx, DWORD PTR [eax]
  00020	8b 55 fc	 mov	 edx, DWORD PTR _this$[ebp]
  00023	8b 45 08	 mov	 eax, DWORD PTR _iIndex$[ebp]
  00026	89 44 8a 04	 mov	 DWORD PTR [edx+ecx*4+4], eax

; 43   : 		this->m_iObjCount++;

  0002a	8b 45 fc	 mov	 eax, DWORD PTR _this$[ebp]
  0002d	8b 08		 mov	 ecx, DWORD PTR [eax]
  0002f	83 c1 01	 add	 ecx, 1
  00032	8b 55 fc	 mov	 edx, DWORD PTR _this$[ebp]
  00035	89 0a		 mov	 DWORD PTR [edx], ecx

; 44   : 		
; 45   : 		return TRUE;

  00037	b8 01 00 00 00	 mov	 eax, 1
$LN2@AddObj:

; 46   : 	}

  0003c	5f		 pop	 edi
  0003d	5e		 pop	 esi
  0003e	5b		 pop	 ebx
  0003f	8b e5		 mov	 esp, ebp
  00041	5d		 pop	 ebp
  00042	c2 04 00	 ret	 4
?AddObj@CCrywolfObjInfo@@QAEHH@Z ENDP			; CCrywolfObjInfo::AddObj
_TEXT	ENDS
PUBLIC	?Reset@CCrywolfObjInfo@@QAEXXZ			; CCrywolfObjInfo::Reset
PUBLIC	?GameMonsterAllCloseAndReLoad@@YAXXZ		; GameMonsterAllCloseAndReLoad
EXTRN	?ReloadMonster@CMonsterTime@@QAEXXZ:PROC	; CMonsterTime::ReloadMonster
EXTRN	?ReloadMonster@CMapQuest@@QAEXXZ:PROC		; CMapQuest::ReloadMonster
EXTRN	?gObjMonCount@@3HA:DWORD			; gObjMonCount
EXTRN	?AllObjReset@CIllusionTempleEvent@@QAEXXZ:PROC	; CIllusionTempleEvent::AllObjReset
EXTRN	?gObjDel@@YAFH@Z:PROC				; gObjDel
EXTRN	?gObjViewportClose@@YAXPAUOBJECTSTRUCT@@@Z:PROC	; gObjViewportClose
EXTRN	?gObjViewportListProtocolDestroy@@YAXPAUOBJECTSTRUCT@@@Z:PROC ; gObjViewportListProtocolDestroy
; Function compile flags: /Odtp /ZI
; File d:\projects\exteam6.3\source\gameserver\gameserver\gamemain.cpp
_TEXT	SEGMENT
_DataBuffer$ = -12					; size = 4
_DataBufferSize$ = -8					; size = 4
_n$261908 = -4						; size = 4
?GameMonsterAllCloseAndReLoad@@YAXXZ PROC		; GameMonsterAllCloseAndReLoad

; 1354 : {

  02240	55		 push	 ebp
  02241	8b ec		 mov	 ebp, esp
  02243	83 ec 4c	 sub	 esp, 76			; 0000004cH
  02246	53		 push	 ebx
  02247	56		 push	 esi
  02248	57		 push	 edi

; 1355 : 	for ( int n=0;n<OBJ_MAXMONSTER;n++)

  02249	c7 45 fc 00 00
	00 00		 mov	 DWORD PTR _n$261908[ebp], 0
  02250	eb 09		 jmp	 SHORT $LN7@GameMonste@2
$LN6@GameMonste@2:
  02252	8b 45 fc	 mov	 eax, DWORD PTR _n$261908[ebp]
  02255	83 c0 01	 add	 eax, 1
  02258	89 45 fc	 mov	 DWORD PTR _n$261908[ebp], eax
$LN7@GameMonste@2:
  0225b	81 7d fc c8 32
	00 00		 cmp	 DWORD PTR _n$261908[ebp], 13000 ; 000032c8H
  02262	0f 8d c1 00 00
	00		 jge	 $LN5@GameMonste@2

; 1356 : 	{
; 1357 : 		if ( gObj[n].Type == OBJ_MONSTER || gObj[n].Type == OBJ_NPC )

  02268	8b 45 fc	 mov	 eax, DWORD PTR _n$261908[ebp]
  0226b	69 c0 38 2b 00
	00		 imul	 eax, 11064		; 00002b38H
  02271	8b 0d 00 00 00
	00		 mov	 ecx, DWORD PTR ?gObj@@3PAUOBJECTSTRUCT@@A ; gObj
  02277	0f b7 54 01 68	 movzx	 edx, WORD PTR [ecx+eax+104]
  0227c	83 fa 02	 cmp	 edx, 2
  0227f	74 1d		 je	 SHORT $LN3@GameMonste@2
  02281	8b 45 fc	 mov	 eax, DWORD PTR _n$261908[ebp]
  02284	69 c0 38 2b 00
	00		 imul	 eax, 11064		; 00002b38H
  0228a	8b 0d 00 00 00
	00		 mov	 ecx, DWORD PTR ?gObj@@3PAUOBJECTSTRUCT@@A ; gObj
  02290	0f b7 54 01 68	 movzx	 edx, WORD PTR [ecx+eax+104]
  02295	83 fa 03	 cmp	 edx, 3
  02298	0f 85 86 00 00
	00		 jne	 $LN4@GameMonste@2
$LN3@GameMonste@2:

; 1358 : 		{
; 1359 : 			
; 1360 : //#if(GS_CASTLE==0)
; 1361 : #if(FIX_MONSTER_RELOAD==FALSE)
; 1362 : 			if ( gObj[n].MapNumber == MAP_INDEX_KANTURU_BOSS )
; 1363 : 			{
; 1364 : 				continue;
; 1365 : 			}
; 1366 : #endif
; 1367 : 
; 1368 : 
; 1369 : #if(CUSTOM_MAPQUEST)
; 1370 : 			/*if(g_MapQuest.GetMapMonster(gObj[n].m_PosNum))
; 1371 : 			{
; 1372 : 				continue;
; 1373 : 			}*/
; 1374 : #endif
; 1375 : 
; 1376 : //#else
; 1377 : 			if ( gObj[n].m_btCsNpcType )

  0229e	8b 45 fc	 mov	 eax, DWORD PTR _n$261908[ebp]
  022a1	69 c0 38 2b 00
