; Listing generated by Microsoft (R) Optimizing Compiler Version 16.00.40219.01 

	TITLE	D:\Projects\ExTeam6.3\Source\GameServer\GameServer\GameServer.cpp
	.686P
	.XMM
	include listing.inc
	.model	flat

INCLUDELIB LIBCMT
INCLUDELIB OLDNAMES

PUBLIC	?ExDbIp@@3PADA					; ExDbIp
PUBLIC	?DataServerIp2@@3PADA				; DataServerIp2
PUBLIC	?DataServerIp@@3PADA				; DataServerIp
PUBLIC	?JoinServerIp@@3PADA				; JoinServerIp
PUBLIC	?gServerReady@@3HA				; gServerReady
PUBLIC	?gCloseMsg@@3HA					; gCloseMsg
PUBLIC	?gCloseMsgTime@@3HA				; gCloseMsgTime
PUBLIC	?gCurPaintPlayer@@3HA				; gCurPaintPlayer
PUBLIC	?gCurPaintType@@3HA				; gCurPaintType
PUBLIC	?gCurPaintMapNumber@@3HA			; gCurPaintMapNumber
PUBLIC	?hInst@@3PAUHINSTANCE__@@A			; hInst
PUBLIC	?ghWnd@@3PAUHWND__@@A				; ghWnd
PUBLIC	?szTitle@@3PADA					; szTitle
PUBLIC	?szWindowClass@@3PADA				; szWindowClass
PUBLIC	?g_hCsLogDlgProc@@3PAUHWND__@@A			; g_hCsLogDlgProc
_BSS	SEGMENT
?ExDbIp@@3PADA DB 0100H DUP (?)				; ExDbIp
?DataServerIp2@@3PADA DB 0100H DUP (?)			; DataServerIp2
?DataServerIp@@3PADA DB 0100H DUP (?)			; DataServerIp
?JoinServerIp@@3PADA DB 0100H DUP (?)			; JoinServerIp
?gServerReady@@3HA DD 01H DUP (?)			; gServerReady
?gCloseMsg@@3HA DD 01H DUP (?)				; gCloseMsg
?gCloseMsgTime@@3HA DD 01H DUP (?)			; gCloseMsgTime
?gCurPaintPlayer@@3HA DD 01H DUP (?)			; gCurPaintPlayer
?gCurPaintType@@3HA DD 01H DUP (?)			; gCurPaintType
?gCurPaintMapNumber@@3HA DD 01H DUP (?)			; gCurPaintMapNumber
?hInst@@3PAUHINSTANCE__@@A DD 01H DUP (?)		; hInst
?ghWnd@@3PAUHWND__@@A DD 01H DUP (?)			; ghWnd
?szTitle@@3PADA DB 064H DUP (?)				; szTitle
?szWindowClass@@3PADA DB 040H DUP (?)			; szWindowClass
?g_hCsLogDlgProc@@3PAUHWND__@@A DD 01H DUP (?)		; g_hCsLogDlgProc
_BSS	ENDS
_DATA	SEGMENT
_g_iNpcUpDfLevel_CGATE DD 01H
	DD	02H
	DD	02dc6c0H
	DD	02H
	DD	03H
	DD	02dc6c0H
	DD	03H
	DD	04H
	DD	02dc6c0H
_g_iNpcUpDfLevel_CSTATUE DD 01H
	DD	03H
	DD	02dc6c0H
	DD	02H
	DD	05H
	DD	02dc6c0H
	DD	03H
	DD	07H
	DD	02dc6c0H
_g_iNpcUpMaxHP_CGATE DD 02625a0H
	DD	02H
	DD	0f4240H
	DD	03567e0H
	DD	03H
	DD	0f4240H
	DD	04f5880H
	DD	04H
	DD	0f4240H
_g_iNpcUpMaxHP_CSTATUE DD 02191c0H
	DD	03H
	DD	0f4240H
	DD	033e140H
	DD	05H
	DD	0f4240H
	DD	04c4b40H
	DD	07H
	DD	0f4240H
_g_iNpcUpRgLevel_CSTATUE DD 01H
	DD	03H
	DD	04c4b40H
	DD	02H
	DD	05H
	DD	04c4b40H
	DD	03H
	DD	07H
	DD	04c4b40H
_g_iCsUserReSpawnArea DD 023H
	DD	011H
	DD	090H
	DD	030H
	DD	04aH
	DD	090H
	DD	073H
	DD	09aH
	DD	023H
	DD	011H
	DD	090H
	DD	030H
_g_iNpcDefense_CGATE DD 064H
	DD	0b4H
	DD	012cH
	DD	0208H
_g_iNpcDefense_CSTATUE DD 050H
	DD	0b4H
	DD	0154H
	DD	0226H
_g_iCastleWallStepAxisY DD 071H
	DD	0a0H
	DD	0cbH
_g_sttBLOODCASTLE_LEVEL DD 0fH
	DD	050H
	DD	0aH
	DD	03cH
	DD	051H
	DD	082H
	DD	03dH
	DD	06eH
	DD	083H
	DD	0b4H
	DD	06fH
	DD	0a0H
	DD	0b5H
	DD	0e6H
	DD	0a1H
	DD	0d2H
	DD	0e7H
	DD	0118H
	DD	0d3H
	DD	0104H
	DD	0119H
	DD	014aH
	DD	0105H
	DD	0136H
	DD	014bH
	DD	0190H
	DD	0137H
	DD	0190H
	DD	0fH
	DD	0257H
	DD	0aH
	DD	0257H
_g_sttCHAOSCASTLE_LEVEL DD 0fH
	DD	031H
	DD	0fH
	DD	01dH
	DD	032H
	DD	077H
	DD	01eH
	DD	063H
	DD	078H
	DD	0b3H
	DD	064H
	DD	09fH
	DD	0b4H
	DD	0efH
	DD	0a0H
	DD	0dbH
	DD	0f0H
	DD	012bH
	DD	0dcH
	DD	0117H
	DD	012cH
	DD	0190H
	DD	0118H
	DD	0190H
	DD	0190H
	DD	0257H
	DD	0190H
	DD	0257H
_g_iChaosCastle_BlowOutDistance DD 03H
	DD	04H
	DD	03H
	DD	04H
	DD	02H
	DD	03H
	DD	00H
	DD	01H
_g_iChaosCastle_BlowOutDamage DD 0fH
	DD	0fH
	DD	0aH
	DD	05H
_g_iChaosCastle_EnterCost DD 061a8H
	DD	013880H
	DD	0249f0H
	DD	03d090H
	DD	061a80H
	DD	09eb10H
	DD	0f4240H
_g_iChaosCastle_GuardSetValue DD 09c4H
	DD	09c4H
	DD	09c4H
	DD	09c4H
	DD	09c4H
	DD	09c4H
	DD	09c4H
_g_iChaosCastle_MonsterItems DD 01c0dH
	DD	01H
	DD	01c0eH
	DD	02H
	DD	01c0dH
	DD	01H
	DD	01c0eH
	DD	03H
	DD	01c0dH
	DD	01H
	DD	01c0eH
	DD	03H
	DD	01c0dH
	DD	02H
	DD	01c0eH
	DD	02H
	DD	01c0dH
	DD	02H
	DD	01c0eH
	DD	03H
	DD	01c0dH
	DD	02H
	DD	01c0eH
	DD	03H
	DD	01c0dH
	DD	02H
	DD	01c0eH
	DD	04H
_g_iChaosCastle_MonsterItemsNewServer DD 00H
	DD	00H
	DD	01c0eH
	DD	02H
	DD	01c0dH
	DD	01H
	DD	01c0eH
	DD	01H
	DD	01c0dH
	DD	01H
	DD	01c0eH
	DD	02H
	DD	01c0dH
	DD	01H
	DD	01c0eH
	DD	02H
	DD	01c0dH
	DD	02H
	DD	01c0eH
	DD	01H
	DD	01c0dH
	DD	02H
	DD	01c0eH
	DD	02H
	DD	01c0dH
	DD	02H
	DD	01c0eH
	DD	03H
_g_iChaosCastle_GroundAxis DD 017H
	DD	04bH
	DD	02cH
	DD	06cH
_g_iChaosCastle_DamageAxis DD 017H
	DD	04bH
	DD	02cH
	DD	06cH
	DD	019H
	DD	04dH
	DD	02aH
	DD	06aH
	DD	01bH
	DD	04fH
	DD	028H
	DD	068H
	DD	01dH
	DD	051H
	DD	026H
	DD	066H
_g_iChaosCastle_MapHollowZone DD 017H
	DD	04bH
	DD	02cH
	DD	04cH
	DD	02bH
	DD	04dH
	DD	02cH
	DD	06cH
	DD	017H
	DD	06bH
	DD	02aH
	DD	06cH
	DD	017H
	DD	04dH
	DD	018H
	DD	06aH
	DD	017H
	DD	04bH
	DD	02cH
	DD	04cH
	DD	02bH
	DD	04dH
	DD	02cH
	DD	06cH
	DD	017H
	DD	06bH
	DD	02aH
	DD	06cH
	DD	017H
	DD	04dH
	DD	018H
	DD	06aH
	DD	019H
	DD	04dH
	DD	02aH
	DD	04eH
	DD	029H
	DD	04fH
	DD	02aH
	DD	06aH
	DD	019H
	DD	069H
	DD	028H
	DD	06aH
	DD	019H
	DD	04fH
	DD	01aH
	DD	068H
	DD	01bH
	DD	04fH
	DD	028H
	DD	050H
	DD	027H
	DD	051H
	DD	028H
	DD	068H
	DD	01bH
	DD	067H
	DD	026H
	DD	068H
	DD	01bH
	DD	051H
	DD	01cH
	DD	066H
_DATA	ENDS
PUBLIC	??_H@YGXPAXIHP6EPAX0@Z@Z			; `vector constructor iterator'
; Function compile flags: /Odtp /ZI
;	COMDAT ??_H@YGXPAXIHP6EPAX0@Z@Z
_TEXT	SEGMENT
___t$ = 8						; size = 4
___s$ = 12						; size = 4
___n$ = 16						; size = 4
___f$ = 20						; size = 4
??_H@YGXPAXIHP6EPAX0@Z@Z PROC				; `vector constructor iterator', COMDAT
  00000	55		 push	 ebp
  00001	8b ec		 mov	 ebp, esp
  00003	83 ec 40	 sub	 esp, 64			; 00000040H
  00006	53		 push	 ebx
  00007	56		 push	 esi
  00008	57		 push	 edi
$LN2@vector:
  00009	8b 45 10	 mov	 eax, DWORD PTR ___n$[ebp]
  0000c	83 e8 01	 sub	 eax, 1
  0000f	89 45 10	 mov	 DWORD PTR ___n$[ebp], eax
  00012	78 11		 js	 SHORT $LN3@vector
  00014	8b 4d 08	 mov	 ecx, DWORD PTR ___t$[ebp]
  00017	ff 55 14	 call	 DWORD PTR ___f$[ebp]
  0001a	8b 45 08	 mov	 eax, DWORD PTR ___t$[ebp]
  0001d	03 45 0c	 add	 eax, DWORD PTR ___s$[ebp]
  00020	89 45 08	 mov	 DWORD PTR ___t$[ebp], eax
  00023	eb e4		 jmp	 SHORT $LN2@vector
$LN3@vector:
  00025	5f		 pop	 edi
  00026	5e		 pop	 esi
  00027	5b		 pop	 ebx
  00028	8b e5		 mov	 esp, ebp
  0002a	5d		 pop	 ebp
  0002b	c2 10 00	 ret	 16			; 00000010H
??_H@YGXPAXIHP6EPAX0@Z@Z ENDP				; `vector constructor iterator'
_TEXT	ENDS
PUBLIC	?AllServerStart@@YAHXZ				; AllServerStart
PUBLIC	??_C@_09CEBPADH@MSSQL2008?$AA@			; `string'
PUBLIC	??_C@_09HDBOBPNA@EventPort?$AA@			; `string'
PUBLIC	??_C@_08EAEOPAFF@ExDbPort?$AA@			; `string'
PUBLIC	??_C@_06PPPJPLEL@ExDbIp?$AA@			; `string'
PUBLIC	??_C@_0BA@KCKFIJHJ@DataServerPort2?$AA@		; `string'
PUBLIC	??_C@_0O@LCIOICPG@DataServerIp2?$AA@		; `string'
PUBLIC	??_C@_0P@KCPFKKD@DataServerPort?$AA@		; `string'
PUBLIC	??_C@_0N@PLFOIPDJ@DataServerIp?$AA@		; `string'
PUBLIC	??_C@_0P@KNHIEOID@JoinServerPort?$AA@		; `string'
PUBLIC	??_C@_0N@HMOAICNG@JoinServerIp?$AA@		; `string'
PUBLIC	??_C@_09PFCHIMEP@127?40?40?41?$AA@		; `string'
PUBLIC	??_C@_07FJPHLACI@Connect?$AA@			; `string'
PUBLIC	??_C@_0L@COJEKOJM@ServerPort?$AA@		; `string'
PUBLIC	?InitInstance@@YAHPAUHINSTANCE__@@H@Z		; InitInstance
PUBLIC	?MyRegisterClass@@YAGPAUHINSTANCE__@@@Z		; MyRegisterClass
PUBLIC	??_C@_0BH@EAJMAKLH@Cannot?5find?5M?3?2?5Drive?4?$AA@ ; `string'
PUBLIC	??_C@_05NAOIJFC@Error?$AA@			; `string'
PUBLIC	??_C@_0BJ@BGFIFDEA@?4?4?2Data?2commonserver?4cfg?$AA@ ; `string'
PUBLIC	??_C@_0N@LKCDOPHO@NsEngine?4dll?$AA@		; `string'
PUBLIC	??_C@_0P@DIEGJMDH@Protect?5Server?$AA@		; `string'
PUBLIC	??_C@_0BO@IFLOCADP@Protect?5Server?5Dll?5Load?5Error?$AA@ ; `string'
PUBLIC	??_C@_07IGHNAFCA@PGS?4dll?$AA@			; `string'
PUBLIC	??_C@_07EMMGCHGI@Protect?$AA@			; `string'
PUBLIC	??_C@_0BC@DLOEGCMO@ProtectGameServer?$AA@	; `string'
PUBLIC	??_C@_0O@BIJKOELJ@?4?2Connect?4ini?$AA@		; `string'
PUBLIC	__$ArrayPad$
PUBLIC	_WinMain@16
EXTRN	?End@CMiniDump@@SAHXZ:PROC			; CMiniDump::End
EXTRN	__imp__DispatchMessageA@4:PROC
EXTRN	__imp__TranslateMessage@4:PROC
EXTRN	__imp__TranslateAcceleratorA@12:PROC
EXTRN	__imp__GetMessageA@16:PROC
EXTRN	?Qtop@Voter@@QAEXXZ:PROC			; Voter::Qtop
EXTRN	?Mootop@Voter@@QAEXXZ:PROC			; Voter::Mootop
EXTRN	?gVoter@@3VVoter@@A:BYTE			; gVoter
EXTRN	?SendDS@cRanking@@QAEXXZ:PROC			; cRanking::SendDS
EXTRN	?gRanking@@3VcRanking@@A:BYTE			; gRanking
EXTRN	?DeleteLogs@@YAXXZ:PROC				; DeleteLogs
EXTRN	?Start@CWhatsUpDummyServer@@QAEHPAUHWND__@@G@Z:PROC ; CWhatsUpDummyServer::Start
EXTRN	?GameServerPort@@3HA:DWORD			; GameServerPort
EXTRN	_memcpy:PROC
EXTRN	?MSSQL2008@@3_NA:BYTE				; MSSQL2008
EXTRN	?EventPort@@3HA:DWORD				; EventPort
EXTRN	?RankingPort@@3HA:DWORD				; RankingPort
EXTRN	?DataServerPort@@3HA:DWORD			; DataServerPort
EXTRN	?JoinServerPort@@3HA:DWORD			; JoinServerPort
EXTRN	__imp__GetPrivateProfileStringA@24:PROC
EXTRN	?ExDbPort@@3HA:DWORD				; ExDbPort
EXTRN	?DataServerPort2@@3HA:DWORD			; DataServerPort2
EXTRN	_memset:PROC
EXTRN	?ExUser@@3PAUEx_User@@A:BYTE			; ExUser
EXTRN	?GameMainInit@@YAXPAUHWND__@@@Z:PROC		; GameMainInit
EXTRN	?GiocpInit@@YAXXZ:PROC				; GiocpInit
EXTRN	__imp__LoadAcceleratorsA@8:PROC
EXTRN	__imp__ShowWindow@8:PROC
EXTRN	__imp__InitCommonControls@0:PROC
EXTRN	__imp__LoadStringA@16:PROC
EXTRN	__imp__FindFirstFileA@8:PROC
EXTRN	?gLanguage@@3HA:DWORD				; gLanguage
EXTRN	?Load@CExLicense@@QAEXXZ:PROC			; CExLicense::Load
EXTRN	?g_ExLicense@@3VCExLicense@@A:BYTE		; g_ExLicense
EXTRN	__imp__ExitProcess@4:PROC
EXTRN	__imp__MessageBoxA@16:PROC
EXTRN	__imp__LoadLibraryA@4:PROC
EXTRN	__imp__GetPrivateProfileIntA@16:PROC
EXTRN	?Begin@CMiniDump@@SAHXZ:PROC			; CMiniDump::Begin
EXTRN	___security_cookie:DWORD
EXTRN	@__security_check_cookie@4:PROC
;	COMDAT ??_C@_09CEBPADH@MSSQL2008?$AA@
; File d:\projects\exteam6.3\source\gameserver\gameserver\gameserver.cpp
CONST	SEGMENT
??_C@_09CEBPADH@MSSQL2008?$AA@ DB 'MSSQL2008', 00H	; `string'
CONST	ENDS
;	COMDAT ??_C@_09HDBOBPNA@EventPort?$AA@
CONST	SEGMENT
??_C@_09HDBOBPNA@EventPort?$AA@ DB 'EventPort', 00H	; `string'
CONST	ENDS
;	COMDAT ??_C@_08EAEOPAFF@ExDbPort?$AA@
CONST	SEGMENT
??_C@_08EAEOPAFF@ExDbPort?$AA@ DB 'ExDbPort', 00H	; `string'
CONST	ENDS
;	COMDAT ??_C@_06PPPJPLEL@ExDbIp?$AA@
CONST	SEGMENT
??_C@_06PPPJPLEL@ExDbIp?$AA@ DB 'ExDbIp', 00H		; `string'
CONST	ENDS
;	COMDAT ??_C@_0BA@KCKFIJHJ@DataServerPort2?$AA@
CONST	SEGMENT
??_C@_0BA@KCKFIJHJ@DataServerPort2?$AA@ DB 'DataServerPort2', 00H ; `string'
CONST	ENDS
;	COMDAT ??_C@_0O@LCIOICPG@DataServerIp2?$AA@
CONST	SEGMENT
??_C@_0O@LCIOICPG@DataServerIp2?$AA@ DB 'DataServerIp2', 00H ; `string'
CONST	ENDS
;	COMDAT ??_C@_0P@KCPFKKD@DataServerPort?$AA@
CONST	SEGMENT
??_C@_0P@KCPFKKD@DataServerPort?$AA@ DB 'DataServerPort', 00H ; `string'
CONST	ENDS
;	COMDAT ??_C@_0N@PLFOIPDJ@DataServerIp?$AA@
CONST	SEGMENT
??_C@_0N@PLFOIPDJ@DataServerIp?$AA@ DB 'DataServerIp', 00H ; `string'
CONST	ENDS
;	COMDAT ??_C@_0P@KNHIEOID@JoinServerPort?$AA@
CONST	SEGMENT
??_C@_0P@KNHIEOID@JoinServerPort?$AA@ DB 'JoinServerPort', 00H ; `string'
CONST	ENDS
;	COMDAT ??_C@_0N@HMOAICNG@JoinServerIp?$AA@
CONST	SEGMENT
??_C@_0N@HMOAICNG@JoinServerIp?$AA@ DB 'JoinServerIp', 00H ; `string'
CONST	ENDS
;	COMDAT ??_C@_09PFCHIMEP@127?40?40?41?$AA@
CONST	SEGMENT
??_C@_09PFCHIMEP@127?40?40?41?$AA@ DB '127.0.0.1', 00H	; `string'
CONST	ENDS
;	COMDAT ??_C@_07FJPHLACI@Connect?$AA@
CONST	SEGMENT
??_C@_07FJPHLACI@Connect?$AA@ DB 'Connect', 00H		; `string'
CONST	ENDS
;	COMDAT ??_C@_0L@COJEKOJM@ServerPort?$AA@
CONST	SEGMENT
??_C@_0L@COJEKOJM@ServerPort?$AA@ DB 'ServerPort', 00H	; `string'
CONST	ENDS
;	COMDAT ??_C@_0BH@EAJMAKLH@Cannot?5find?5M?3?2?5Drive?4?$AA@
CONST	SEGMENT
??_C@_0BH@EAJMAKLH@Cannot?5find?5M?3?2?5Drive?4?$AA@ DB 'Cannot find M:\ '
	DB	'Drive.', 00H				; `string'
CONST	ENDS
;	COMDAT ??_C@_05NAOIJFC@Error?$AA@
CONST	SEGMENT
??_C@_05NAOIJFC@Error?$AA@ DB 'Error', 00H		; `string'
CONST	ENDS
;	COMDAT ??_C@_0BJ@BGFIFDEA@?4?4?2Data?2commonserver?4cfg?$AA@
CONST	SEGMENT
??_C@_0BJ@BGFIFDEA@?4?4?2Data?2commonserver?4cfg?$AA@ DB '..\Data\commons'
	DB	'erver.cfg', 00H				; `string'
CONST	ENDS
;	COMDAT ??_C@_0N@LKCDOPHO@NsEngine?4dll?$AA@
CONST	SEGMENT
??_C@_0N@LKCDOPHO@NsEngine?4dll?$AA@ DB 'NsEngine.dll', 00H ; `string'
CONST	ENDS
;	COMDAT ??_C@_0P@DIEGJMDH@Protect?5Server?$AA@
CONST	SEGMENT
??_C@_0P@DIEGJMDH@Protect?5Server?$AA@ DB 'Protect Server', 00H ; `string'
CONST	ENDS
;	COMDAT ??_C@_0BO@IFLOCADP@Protect?5Server?5Dll?5Load?5Error?$AA@
CONST	SEGMENT
??_C@_0BO@IFLOCADP@Protect?5Server?5Dll?5Load?5Error?$AA@ DB 'Protect Ser'
	DB	'ver Dll Load Error', 00H			; `string'
CONST	ENDS
;	COMDAT ??_C@_07IGHNAFCA@PGS?4dll?$AA@
CONST	SEGMENT
??_C@_07IGHNAFCA@PGS?4dll?$AA@ DB 'PGS.dll', 00H	; `string'
CONST	ENDS
;	COMDAT ??_C@_07EMMGCHGI@Protect?$AA@
CONST	SEGMENT
??_C@_07EMMGCHGI@Protect?$AA@ DB 'Protect', 00H		; `string'
CONST	ENDS
;	COMDAT ??_C@_0BC@DLOEGCMO@ProtectGameServer?$AA@
CONST	SEGMENT
??_C@_0BC@DLOEGCMO@ProtectGameServer?$AA@ DB 'ProtectGameServer', 00H ; `string'
CONST	ENDS
;	COMDAT ??_C@_0O@BIJKOELJ@?4?2Connect?4ini?$AA@
CONST	SEGMENT
??_C@_0O@BIJKOELJ@?4?2Connect?4ini?$AA@ DB '.\Connect.ini', 00H ; `string'
; Function compile flags: /Odtp /ZI
CONST	ENDS
_TEXT	SEGMENT
_serverport$ = -364					; size = 2
_wfd$249078 = -360					; size = 320
_iProtectGameServer$ = -40				; size = 4
_hAccelTable$ = -36					; size = 4
_msg$ = -32						; size = 28
__$ArrayPad$ = -4					; size = 4
_hInstance$ = 8						; size = 4
_hPrevInstance$ = 12					; size = 4
_lpCmdLine$ = 16					; size = 4
_nCmdShow$ = 20						; size = 4
_WinMain@16 PROC

; 140  : {

  00000	55		 push	 ebp
  00001	8b ec		 mov	 ebp, esp
  00003	81 ec ac 01 00
	00		 sub	 esp, 428		; 000001acH
  00009	a1 00 00 00 00	 mov	 eax, DWORD PTR ___security_cookie
  0000e	33 c5		 xor	 eax, ebp
  00010	89 45 fc	 mov	 DWORD PTR __$ArrayPad$[ebp], eax
  00013	53		 push	 ebx
  00014	56		 push	 esi
  00015	57		 push	 edi

; 141  : 	VMBEGIN
; 142  : #ifdef VMPROTECT
; 143  : 	if( VMProtectIsDebuggerPresent(TRUE) != 0 )
; 144  : 	{
; 145  : 		ExitProcess(0);
; 146  : 	}
; 147  : #endif
; 148  : 	VMEND
; 149  : 
; 150  : 	CMiniDump::Begin();

  00016	e8 00 00 00 00	 call	 ?Begin@CMiniDump@@SAHXZ	; CMiniDump::Begin

; 151  : 	MSG msg;
; 152  : 	HACCEL hAccelTable;
; 153  : 
; 154  : #if(ENABLE_EXPROTECTOR)
; 155  : 	int iProtectGameServer = GetPrivateProfileInt("Protect","ProtectGameServer",0,".\\Connect.ini");

  0001b	68 00 00 00 00	 push	 OFFSET ??_C@_0O@BIJKOELJ@?4?2Connect?4ini?$AA@
  00020	6a 00		 push	 0
  00022	68 00 00 00 00	 push	 OFFSET ??_C@_0BC@DLOEGCMO@ProtectGameServer?$AA@
  00027	68 00 00 00 00	 push	 OFFSET ??_C@_07EMMGCHGI@Protect?$AA@
  0002c	ff 15 00 00 00
	00		 call	 DWORD PTR __imp__GetPrivateProfileIntA@16
  00032	89 45 d8	 mov	 DWORD PTR _iProtectGameServer$[ebp], eax

; 156  : 
; 157  : 	if(iProtectGameServer)

  00035	83 7d d8 00	 cmp	 DWORD PTR _iProtectGameServer$[ebp], 0
  00039	74 2b		 je	 SHORT $LN13@WinMain

; 158  : 	{
; 159  : 		if(!LoadLibraryA("PGS.dll"))

  0003b	68 00 00 00 00	 push	 OFFSET ??_C@_07IGHNAFCA@PGS?4dll?$AA@
  00040	ff 15 00 00 00
	00		 call	 DWORD PTR __imp__LoadLibraryA@4
  00046	85 c0		 test	 eax, eax
  00048	75 1c		 jne	 SHORT $LN13@WinMain

; 160  : 		{
; 161  : 			MessageBox(0, "Protect Server", "Protect Server Dll Load Error", ERROR);

  0004a	6a 00		 push	 0
  0004c	68 00 00 00 00	 push	 OFFSET ??_C@_0BO@IFLOCADP@Protect?5Server?5Dll?5Load?5Error?$AA@
  00051	68 00 00 00 00	 push	 OFFSET ??_C@_0P@DIEGJMDH@Protect?5Server?$AA@
  00056	6a 00		 push	 0
  00058	ff 15 00 00 00
	00		 call	 DWORD PTR __imp__MessageBoxA@16

; 162  : 			ExitProcess(0);

  0005e	6a 00		 push	 0
  00060	ff 15 00 00 00
	00		 call	 DWORD PTR __imp__ExitProcess@4
$LN13@WinMain:

; 163  : 		}
; 164  : 	}
; 165  : #endif
; 166  : 
; 167  : 	if(NsEngine)

  00066	0f b6 05 00 00
	00 00		 movzx	 eax, BYTE PTR ?NsEngine@@3_NA ; NsEngine
  0006d	85 c0		 test	 eax, eax
  0006f	74 0b		 je	 SHORT $LN11@WinMain

; 168  : 	{
; 169  : 		LoadLibraryA("NsEngine.dll");

  00071	68 00 00 00 00	 push	 OFFSET ??_C@_0N@LKCDOPHO@NsEngine?4dll?$AA@
  00076	ff 15 00 00 00
	00		 call	 DWORD PTR __imp__LoadLibraryA@4
$LN11@WinMain:

; 170  : 	}
; 171  : 
; 172  : 	g_ExLicense.Load();

  0007c	b9 00 00 00 00	 mov	 ecx, OFFSET ?g_ExLicense@@3VCExLicense@@A ; g_ExLicense
  00081	e8 00 00 00 00	 call	 ?Load@CExLicense@@QAEXXZ ; CExLicense::Load

; 173  : 
; 174  : 	if (gLanguage==0) 

  00086	83 3d 00 00 00
	00 00		 cmp	 DWORD PTR ?gLanguage@@3HA, 0 ; gLanguage
  0008d	75 32		 jne	 SHORT $LN10@WinMain

; 175  : 	{
; 176  : 		WIN32_FIND_DATA  wfd;
; 177  : 		if (FindFirstFile(COMMONSERVER_PATH,&wfd)==INVALID_HANDLE_VALUE)

  0008f	8d 85 98 fe ff
	ff		 lea	 eax, DWORD PTR _wfd$249078[ebp]
  00095	50		 push	 eax
  00096	68 00 00 00 00	 push	 OFFSET ??_C@_0BJ@BGFIFDEA@?4?4?2Data?2commonserver?4cfg?$AA@
  0009b	ff 15 00 00 00
	00		 call	 DWORD PTR __imp__FindFirstFileA@8
  000a1	83 f8 ff	 cmp	 eax, -1
  000a4	75 1b		 jne	 SHORT $LN10@WinMain

; 178  : 		{
; 179  : 			MessageBox(NULL, "Cannot find M:\\ Drive.", "Error", MB_OK|MB_ICONHAND|MB_APPLMODAL);

  000a6	6a 10		 push	 16			; 00000010H
  000a8	68 00 00 00 00	 push	 OFFSET ??_C@_05NAOIJFC@Error?$AA@
  000ad	68 00 00 00 00	 push	 OFFSET ??_C@_0BH@EAJMAKLH@Cannot?5find?5M?3?2?5Drive?4?$AA@
  000b2	6a 00		 push	 0
  000b4	ff 15 00 00 00
	00		 call	 DWORD PTR __imp__MessageBoxA@16

; 180  : 			return 0; 

  000ba	33 c0		 xor	 eax, eax
  000bc	e9 5f 03 00 00	 jmp	 $LN15@WinMain
$LN10@WinMain:

; 181  : 		}
; 182  : 	}	
; 183  : 
; 184  : 	LoadString(hInstance,IDS_APP_TITLE, szTitle, 100);

  000c1	6a 64		 push	 100			; 00000064H
  000c3	68 00 00 00 00	 push	 OFFSET ?szTitle@@3PADA	; szTitle
  000c8	6a 67		 push	 103			; 00000067H
  000ca	8b 45 08	 mov	 eax, DWORD PTR _hInstance$[ebp]
  000cd	50		 push	 eax
  000ce	ff 15 00 00 00
	00		 call	 DWORD PTR __imp__LoadStringA@16

; 185  : 	LoadString(hInstance,IDS_GAMESERVER, szWindowClass, 100);

  000d4	6a 64		 push	 100			; 00000064H
  000d6	68 00 00 00 00	 push	 OFFSET ?szWindowClass@@3PADA ; szWindowClass
  000db	6a 6d		 push	 109			; 0000006dH
  000dd	8b 45 08	 mov	 eax, DWORD PTR _hInstance$[ebp]
  000e0	50		 push	 eax
  000e1	ff 15 00 00 00
	00		 call	 DWORD PTR __imp__LoadStringA@16

; 186  : 
; 187  : 	MyRegisterClass(hInstance);

  000e7	8b 45 08	 mov	 eax, DWORD PTR _hInstance$[ebp]
  000ea	50		 push	 eax
  000eb	e8 00 00 00 00	 call	 ?MyRegisterClass@@YAGPAUHINSTANCE__@@@Z ; MyRegisterClass
  000f0	83 c4 04	 add	 esp, 4

; 188  : 
; 189  : 	InitCommonControls();

  000f3	ff 15 00 00 00
	00		 call	 DWORD PTR __imp__InitCommonControls@0

; 190  : 	
; 191  : 	if (!InitInstance(hInstance, nCmdShow))

  000f9	8b 45 14	 mov	 eax, DWORD PTR _nCmdShow$[ebp]
  000fc	50		 push	 eax
  000fd	8b 4d 08	 mov	 ecx, DWORD PTR _hInstance$[ebp]
  00100	51		 push	 ecx
  00101	e8 00 00 00 00	 call	 ?InitInstance@@YAHPAUHINSTANCE__@@H@Z ; InitInstance
  00106	83 c4 08	 add	 esp, 8
  00109	85 c0		 test	 eax, eax
  0010b	75 07		 jne	 SHORT $LN8@WinMain

; 192  : 	{
; 193  : 		return 0;

  0010d	33 c0		 xor	 eax, eax
  0010f	e9 0c 03 00 00	 jmp	 $LN15@WinMain
$LN8@WinMain:

; 194  : 	}
; 195  : 
; 196  : 	#if(ENABLE_HIDEWINDOW)
; 197  : 		ShowWindow(ghWnd, SW_HIDE);
; 198  : 	#else
; 199  : 	#if(NEW_WINDOW==1)
; 200  : 		ShowWindow(ghWnd, SW_SHOWNORMAL);

  00114	6a 01		 push	 1
  00116	a1 00 00 00 00	 mov	 eax, DWORD PTR ?ghWnd@@3PAUHWND__@@A ; ghWnd
  0011b	50		 push	 eax
  0011c	ff 15 00 00 00
	00		 call	 DWORD PTR __imp__ShowWindow@8

; 201  : 	#else
; 202  : 		ShowWindow(ghWnd, SW_SHOWMAXIMIZED);
; 203  : 	#endif
; 204  : 	#endif
; 205  : 	
; 206  : 	hAccelTable=LoadAccelerators(hInstance,(LPCSTR)IDA_GAMESERVER);

  00122	6a 6d		 push	 109			; 0000006dH
  00124	8b 45 08	 mov	 eax, DWORD PTR _hInstance$[ebp]
  00127	50		 push	 eax
  00128	ff 15 00 00 00
	00		 call	 DWORD PTR __imp__LoadAcceleratorsA@8
  0012e	89 45 dc	 mov	 DWORD PTR _hAccelTable$[ebp], eax

; 207  : 
; 208  : 	#if(!DEV_SOCKET_MANAGER)
; 209  : 	GiocpInit();

  00131	e8 00 00 00 00	 call	 ?GiocpInit@@YAXXZ	; GiocpInit

; 210  : 	#endif
; 211  : 	
; 212  : 	GameMainInit(ghWnd);

  00136	a1 00 00 00 00	 mov	 eax, DWORD PTR ?ghWnd@@3PAUHWND__@@A ; ghWnd
  0013b	50		 push	 eax
  0013c	e8 00 00 00 00	 call	 ?GameMainInit@@YAXPAUHWND__@@@Z ; GameMainInit
  00141	83 c4 04	 add	 esp, 4

; 213  : 
; 214  : #ifdef _NEW_PT_SYSTEM_
; 215  : 	ZeroMemory(ExUser,sizeof(ExUser));

  00144	68 40 0d 03 00	 push	 200000			; 00030d40H
  00149	6a 00		 push	 0
  0014b	68 00 00 00 00	 push	 OFFSET ?ExUser@@3PAUEx_User@@A ; ExUser
  00150	e8 00 00 00 00	 call	 _memset
  00155	83 c4 0c	 add	 esp, 12			; 0000000cH

; 216  : #endif
; 217  : 
; 218  : 	WORD serverport;
; 219  : 
; 220  : 	memset(DataServerIp2, 0, sizeof(DataServerIp2));

  00158	68 00 01 00 00	 push	 256			; 00000100H
  0015d	6a 00		 push	 0
  0015f	68 00 00 00 00	 push	 OFFSET ?DataServerIp2@@3PADA ; DataServerIp2
  00164	e8 00 00 00 00	 call	 _memset
  00169	83 c4 0c	 add	 esp, 12			; 0000000cH

; 221  : 	memset(ExDbIp, 0, sizeof(ExDbIp));

  0016c	68 00 01 00 00	 push	 256			; 00000100H
  00171	6a 00		 push	 0
  00173	68 00 00 00 00	 push	 OFFSET ?ExDbIp@@3PADA	; ExDbIp
  00178	e8 00 00 00 00	 call	 _memset
  0017d	83 c4 0c	 add	 esp, 12			; 0000000cH

; 222  : 	DataServerPort2=0;

  00180	c7 05 00 00 00
	00 00 00 00 00	 mov	 DWORD PTR ?DataServerPort2@@3HA, 0 ; DataServerPort2

; 223  : 	ExDbPort=0;

  0018a	c7 05 00 00 00
	00 00 00 00 00	 mov	 DWORD PTR ?ExDbPort@@3HA, 0 ; ExDbPort

; 224  : 
; 225  : 	//if (strlen(lpCmdLine)>1) 
; 226  : 	//{
; 227  : 	//	sscanf(lpCmdLine, "%s %d %s %d %d %s %d %s %d" ,JoinServerIp, &JoinServerPort, DataServerIp, &DataServerPort, &serverport, DataServerIp2, &DataServerPort2, ExDbIp, &ExDbPort);
; 228  : 	//}
; 229  : 	//else 
; 230  : 	//{ 
; 231  : 	//	serverport=55900;
; 232  : 	//	JoinServerPort=55970;
; 233  : 	//	DataServerPort=55960;
; 234  : 	//	DataServerPort2=55962;
; 235  : 	//	ExDbPort=55906;
; 236  : 	//	MsgBox(lMsg.Get( MSGGET(0, 114)) );
; 237  : 	//}
; 238  : 	//Danger Added Ip and Port
; 239  : 	//Game Server
; 240  : 	serverport = GetPrivateProfileInt("Connect","ServerPort",55901,".\\Connect.ini");

  00194	68 00 00 00 00	 push	 OFFSET ??_C@_0O@BIJKOELJ@?4?2Connect?4ini?$AA@
  00199	68 5d da 00 00	 push	 55901			; 0000da5dH
  0019e	68 00 00 00 00	 push	 OFFSET ??_C@_0L@COJEKOJM@ServerPort?$AA@
  001a3	68 00 00 00 00	 push	 OFFSET ??_C@_07FJPHLACI@Connect?$AA@
  001a8	ff 15 00 00 00
	00		 call	 DWORD PTR __imp__GetPrivateProfileIntA@16
  001ae	66 89 85 94 fe
	ff ff		 mov	 WORD PTR _serverport$[ebp], ax

; 241  : 	//Join Server
; 242  : 	GetPrivateProfileStringA("Connect","JoinServerIp","127.0.0.1",JoinServerIp,sizeof(JoinServerIp),".\\Connect.ini");

  001b5	68 00 00 00 00	 push	 OFFSET ??_C@_0O@BIJKOELJ@?4?2Connect?4ini?$AA@
  001ba	68 00 01 00 00	 push	 256			; 00000100H
  001bf	68 00 00 00 00	 push	 OFFSET ?JoinServerIp@@3PADA ; JoinServerIp
  001c4	68 00 00 00 00	 push	 OFFSET ??_C@_09PFCHIMEP@127?40?40?41?$AA@
  001c9	68 00 00 00 00	 push	 OFFSET ??_C@_0N@HMOAICNG@JoinServerIp?$AA@
  001ce	68 00 00 00 00	 push	 OFFSET ??_C@_07FJPHLACI@Connect?$AA@
  001d3	ff 15 00 00 00
	00		 call	 DWORD PTR __imp__GetPrivateProfileStringA@24

; 243  : 	JoinServerPort = GetPrivateProfileInt("Connect","JoinServerPort",55970,".\\Connect.ini");

  001d9	68 00 00 00 00	 push	 OFFSET ??_C@_0O@BIJKOELJ@?4?2Connect?4ini?$AA@
  001de	68 a2 da 00 00	 push	 55970			; 0000daa2H
  001e3	68 00 00 00 00	 push	 OFFSET ??_C@_0P@KNHIEOID@JoinServerPort?$AA@
  001e8	68 00 00 00 00	 push	 OFFSET ??_C@_07FJPHLACI@Connect?$AA@
  001ed	ff 15 00 00 00
	00		 call	 DWORD PTR __imp__GetPrivateProfileIntA@16
  001f3	a3 00 00 00 00	 mov	 DWORD PTR ?JoinServerPort@@3HA, eax ; JoinServerPort

; 244  : 	//Data Server
; 245  : 	GetPrivateProfileStringA("Connect","DataServerIp","127.0.0.1",DataServerIp,sizeof(DataServerIp),".\\Connect.ini");

  001f8	68 00 00 00 00	 push	 OFFSET ??_C@_0O@BIJKOELJ@?4?2Connect?4ini?$AA@
  001fd	68 00 01 00 00	 push	 256			; 00000100H
  00202	68 00 00 00 00	 push	 OFFSET ?DataServerIp@@3PADA ; DataServerIp
  00207	68 00 00 00 00	 push	 OFFSET ??_C@_09PFCHIMEP@127?40?40?41?$AA@
  0020c	68 00 00 00 00	 push	 OFFSET ??_C@_0N@PLFOIPDJ@DataServerIp?$AA@
  00211	68 00 00 00 00	 push	 OFFSET ??_C@_07FJPHLACI@Connect?$AA@
  00216	ff 15 00 00 00
	00		 call	 DWORD PTR __imp__GetPrivateProfileStringA@24

; 246  : 	DataServerPort = GetPrivateProfileInt("Connect","DataServerPort",55960,".\\Connect.ini");

  0021c	68 00 00 00 00	 push	 OFFSET ??_C@_0O@BIJKOELJ@?4?2Connect?4ini?$AA@
  00221	68 98 da 00 00	 push	 55960			; 0000da98H
  00226	68 00 00 00 00	 push	 OFFSET ??_C@_0P@KCPFKKD@DataServerPort?$AA@
  0022b	68 00 00 00 00	 push	 OFFSET ??_C@_07FJPHLACI@Connect?$AA@
  00230	ff 15 00 00 00
	00		 call	 DWORD PTR __imp__GetPrivateProfileIntA@16
  00236	a3 00 00 00 00	 mov	 DWORD PTR ?DataServerPort@@3HA, eax ; DataServerPort

; 247  : 	//Data Server 2
; 248  : 	GetPrivateProfileStringA("Connect","DataServerIp2","127.0.0.1",DataServerIp2,sizeof(DataServerIp2),".\\Connect.ini");

  0023b	68 00 00 00 00	 push	 OFFSET ??_C@_0O@BIJKOELJ@?4?2Connect?4ini?$AA@
  00240	68 00 01 00 00	 push	 256			; 00000100H
  00245	68 00 00 00 00	 push	 OFFSET ?DataServerIp2@@3PADA ; DataServerIp2
  0024a	68 00 00 00 00	 push	 OFFSET ??_C@_09PFCHIMEP@127?40?40?41?$AA@
  0024f	68 00 00 00 00	 push	 OFFSET ??_C@_0O@LCIOICPG@DataServerIp2?$AA@
  00254	68 00 00 00 00	 push	 OFFSET ??_C@_07FJPHLACI@Connect?$AA@
  00259	ff 15 00 00 00
	00		 call	 DWORD PTR __imp__GetPrivateProfileStringA@24

; 249  : 	DataServerPort2 = GetPrivateProfileInt("Connect","DataServerPort2",55962,".\\Connect.ini");

  0025f	68 00 00 00 00	 push	 OFFSET ??_C@_0O@BIJKOELJ@?4?2Connect?4ini?$AA@
  00264	68 9a da 00 00	 push	 55962			; 0000da9aH
  00269	68 00 00 00 00	 push	 OFFSET ??_C@_0BA@KCKFIJHJ@DataServerPort2?$AA@
  0026e	68 00 00 00 00	 push	 OFFSET ??_C@_07FJPHLACI@Connect?$AA@
  00273	ff 15 00 00 00
	00		 call	 DWORD PTR __imp__GetPrivateProfileIntA@16
  00279	a3 00 00 00 00	 mov	 DWORD PTR ?DataServerPort2@@3HA, eax ; DataServerPort2

; 250  : 	//Ex Data Base
; 251  : 	GetPrivateProfileStringA("Connect","ExDbIp","127.0.0.1",ExDbIp,sizeof(ExDbIp),".\\Connect.ini");

  0027e	68 00 00 00 00	 push	 OFFSET ??_C@_0O@BIJKOELJ@?4?2Connect?4ini?$AA@
  00283	68 00 01 00 00	 push	 256			; 00000100H
  00288	68 00 00 00 00	 push	 OFFSET ?ExDbIp@@3PADA	; ExDbIp
  0028d	68 00 00 00 00	 push	 OFFSET ??_C@_09PFCHIMEP@127?40?40?41?$AA@
  00292	68 00 00 00 00	 push	 OFFSET ??_C@_06PPPJPLEL@ExDbIp?$AA@
  00297	68 00 00 00 00	 push	 OFFSET ??_C@_07FJPHLACI@Connect?$AA@
  0029c	ff 15 00 00 00
	00		 call	 DWORD PTR __imp__GetPrivateProfileStringA@24

; 252  : 	ExDbPort = GetPrivateProfileInt("Connect","ExDbPort",55906,".\\Connect.ini");

  002a2	68 00 00 00 00	 push	 OFFSET ??_C@_0O@BIJKOELJ@?4?2Connect?4ini?$AA@
  002a7	68 62 da 00 00	 push	 55906			; 0000da62H
  002ac	68 00 00 00 00	 push	 OFFSET ??_C@_08EAEOPAFF@ExDbPort?$AA@
  002b1	68 00 00 00 00	 push	 OFFSET ??_C@_07FJPHLACI@Connect?$AA@
  002b6	ff 15 00 00 00
	00		 call	 DWORD PTR __imp__GetPrivateProfileIntA@16
  002bc	a3 00 00 00 00	 mov	 DWORD PTR ?ExDbPort@@3HA, eax ; ExDbPort

; 253  : 	//Ranking
; 254  : 	RankingPort = GetPrivateProfileInt("Connect","ExDbPort",44455,".\\Connect.ini");

  002c1	68 00 00 00 00	 push	 OFFSET ??_C@_0O@BIJKOELJ@?4?2Connect?4ini?$AA@
  002c6	68 a7 ad 00 00	 push	 44455			; 0000ada7H
  002cb	68 00 00 00 00	 push	 OFFSET ??_C@_08EAEOPAFF@ExDbPort?$AA@
  002d0	68 00 00 00 00	 push	 OFFSET ??_C@_07FJPHLACI@Connect?$AA@
  002d5	ff 15 00 00 00
	00		 call	 DWORD PTR __imp__GetPrivateProfileIntA@16
  002db	a3 00 00 00 00	 mov	 DWORD PTR ?RankingPort@@3HA, eax ; RankingPort

; 255  : 	//Event
; 256  : 	EventPort = GetPrivateProfileInt("Connect","EventPort",44456,".\\Connect.ini");

  002e0	68 00 00 00 00	 push	 OFFSET ??_C@_0O@BIJKOELJ@?4?2Connect?4ini?$AA@
  002e5	68 a8 ad 00 00	 push	 44456			; 0000ada8H
  002ea	68 00 00 00 00	 push	 OFFSET ??_C@_09HDBOBPNA@EventPort?$AA@
  002ef	68 00 00 00 00	 push	 OFFSET ??_C@_07FJPHLACI@Connect?$AA@
  002f4	ff 15 00 00 00
	00		 call	 DWORD PTR __imp__GetPrivateProfileIntA@16
  002fa	a3 00 00 00 00	 mov	 DWORD PTR ?EventPort@@3HA, eax ; EventPort

; 257  : 	//MSSQL Fix
; 258  : 	MSSQL2008 = GetPrivateProfileInt("Connect","MSSQL2008",0,".\\Connect.ini");

  002ff	68 00 00 00 00	 push	 OFFSET ??_C@_0O@BIJKOELJ@?4?2Connect?4ini?$AA@
  00304	6a 00		 push	 0
  00306	68 00 00 00 00	 push	 OFFSET ??_C@_09CEBPADH@MSSQL2008?$AA@
  0030b	68 00 00 00 00	 push	 OFFSET ??_C@_07FJPHLACI@Connect?$AA@
  00310	ff 15 00 00 00
	00		 call	 DWORD PTR __imp__GetPrivateProfileIntA@16
  00316	85 c0		 test	 eax, eax
  00318	0f 95 c0	 setne	 al
  0031b	a2 00 00 00 00	 mov	 BYTE PTR ?MSSQL2008@@3_NA, al ; MSSQL2008

; 259  : 	
; 260  : 
; 261  : 	
; 262  : 	if ( DataServerIp2[0] == 0 )

  00320	0f be 05 00 00
	00 00		 movsx	 eax, BYTE PTR ?DataServerIp2@@3PADA
  00327	85 c0		 test	 eax, eax
  00329	75 17		 jne	 SHORT $LN7@WinMain

; 263  : 		memcpy(DataServerIp2, DataServerIp, sizeof(DataServerIp2));

  0032b	68 00 01 00 00	 push	 256			; 00000100H
  00330	68 00 00 00 00	 push	 OFFSET ?DataServerIp@@3PADA ; DataServerIp
  00335	68 00 00 00 00	 push	 OFFSET ?DataServerIp2@@3PADA ; DataServerIp2
  0033a	e8 00 00 00 00	 call	 _memcpy
  0033f	83 c4 0c	 add	 esp, 12			; 0000000cH
$LN7@WinMain:

; 264  : 
; 265  : 	if ( DataServerPort2 == 0 )

  00342	83 3d 00 00 00
	00 00		 cmp	 DWORD PTR ?DataServerPort2@@3HA, 0 ; DataServerPort2
  00349	75 0a		 jne	 SHORT $LN6@WinMain

; 266  : 		DataServerPort2 = 55962;

  0034b	c7 05 00 00 00
	00 9a da 00 00	 mov	 DWORD PTR ?DataServerPort2@@3HA, 55962 ; DataServerPort2, 0000da9aH
$LN6@WinMain:

; 267  : 
; 268  : 	if ( ExDbIp[0] == 0 )

  00355	0f be 05 00 00
	00 00		 movsx	 eax, BYTE PTR ?ExDbIp@@3PADA
  0035c	85 c0		 test	 eax, eax
  0035e	75 17		 jne	 SHORT $LN5@WinMain

; 269  : 		memcpy(ExDbIp, DataServerIp, sizeof(ExDbIp));

  00360	68 00 01 00 00	 push	 256			; 00000100H
  00365	68 00 00 00 00	 push	 OFFSET ?DataServerIp@@3PADA ; DataServerIp
  0036a	68 00 00 00 00	 push	 OFFSET ?ExDbIp@@3PADA	; ExDbIp
  0036f	e8 00 00 00 00	 call	 _memcpy
  00374	83 c4 0c	 add	 esp, 12			; 0000000cH
$LN5@WinMain:

; 270  : 
; 271  : 	if ( ExDbPort == 0 )

  00377	83 3d 00 00 00
	00 00		 cmp	 DWORD PTR ?ExDbPort@@3HA, 0 ; ExDbPort
  0037e	75 0a		 jne	 SHORT $LN4@WinMain

; 272  : 		ExDbPort = 55906;

  00380	c7 05 00 00 00
	00 62 da 00 00	 mov	 DWORD PTR ?ExDbPort@@3HA, 55906 ; ExDbPort, 0000da62H
$LN4@WinMain:

; 273  : 
; 274  : 	GameServerPort=serverport; 

  0038a	0f b7 85 94 fe
	ff ff		 movzx	 eax, WORD PTR _serverport$[ebp]
  00391	a3 00 00 00 00	 mov	 DWORD PTR ?GameServerPort@@3HA, eax ; GameServerPort

; 275  : 
; 276  : 	gWhatsUpDummyServer.Start(ghWnd, GameServerPort+1);

  00396	a1 00 00 00 00	 mov	 eax, DWORD PTR ?GameServerPort@@3HA ; GameServerPort
  0039b	83 c0 01	 add	 eax, 1
  0039e	50		 push	 eax
  0039f	8b 0d 00 00 00
	00		 mov	 ecx, DWORD PTR ?ghWnd@@3PAUHWND__@@A ; ghWnd
  003a5	51		 push	 ecx
  003a6	b9 00 00 00 00	 mov	 ecx, OFFSET ?gWhatsUpDummyServer@@3VCWhatsUpDummyServer@@A ; gWhatsUpDummyServer
  003ab	e8 00 00 00 00	 call	 ?Start@CWhatsUpDummyServer@@QAEHPAUHWND__@@G@Z ; CWhatsUpDummyServer::Start

; 277  : 
; 278  : 	AllServerStart();

  003b0	e8 00 00 00 00	 call	 ?AllServerStart@@YAHXZ	; AllServerStart

; 279  : 
; 280  : 	DeleteLogs();

  003b5	e8 00 00 00 00	 call	 ?DeleteLogs@@YAXXZ	; DeleteLogs

; 281  : 
; 282  : 	gRanking.SendDS();

  003ba	b9 00 00 00 00	 mov	 ecx, OFFSET ?gRanking@@3VcRanking@@A ; gRanking
  003bf	e8 00 00 00 00	 call	 ?SendDS@cRanking@@QAEXXZ ; cRanking::SendDS

; 283  : 
; 284  : #ifdef _VOTER_
; 285  : 	gVoter.Mootop();

  003c4	b9 00 00 00 00	 mov	 ecx, OFFSET ?gVoter@@3VVoter@@A ; gVoter
  003c9	e8 00 00 00 00	 call	 ?Mootop@Voter@@QAEXXZ	; Voter::Mootop

; 286  : 	gVoter.Qtop();

  003ce	b9 00 00 00 00	 mov	 ecx, OFFSET ?gVoter@@3VVoter@@A ; gVoter
  003d3	e8 00 00 00 00	 call	 ?Qtop@Voter@@QAEXXZ	; Voter::Qtop
$LN3@WinMain:

; 287  : #endif
; 288  : 
; 289  : #if(ENABLE_RAM_MIN)
; 290  : 	CreateThread (0, 0, (LPTHREAD_START_ROUTINE)RamOptimization, 0, 0 , 0);
; 291  : #endif
; 292  : 
; 293  : 	while(GetMessage(&msg, NULL, 0, 0) != 0)

  003d8	6a 00		 push	 0
  003da	6a 00		 push	 0
  003dc	6a 00		 push	 0
  003de	8d 45 e0	 lea	 eax, DWORD PTR _msg$[ebp]
  003e1	50		 push	 eax
  003e2	ff 15 00 00 00
	00		 call	 DWORD PTR __imp__GetMessageA@16
  003e8	85 c0		 test	 eax, eax
  003ea	74 2c		 je	 SHORT $LN2@WinMain

; 294  : 	{
; 295  : 		if (!TranslateAccelerator(msg.hwnd,hAccelTable,&msg))

  003ec	8d 45 e0	 lea	 eax, DWORD PTR _msg$[ebp]
  003ef	50		 push	 eax
  003f0	8b 4d dc	 mov	 ecx, DWORD PTR _hAccelTable$[ebp]
  003f3	51		 push	 ecx
  003f4	8b 55 e0	 mov	 edx, DWORD PTR _msg$[ebp]
  003f7	52		 push	 edx
  003f8	ff 15 00 00 00
	00		 call	 DWORD PTR __imp__TranslateAcceleratorA@12
  003fe	85 c0		 test	 eax, eax
  00400	75 14		 jne	 SHORT $LN1@WinMain

; 296  : 		{
; 297  : 		    TranslateMessage(&msg);

  00402	8d 45 e0	 lea	 eax, DWORD PTR _msg$[ebp]
  00405	50		 push	 eax
  00406	ff 15 00 00 00
	00		 call	 DWORD PTR __imp__TranslateMessage@4

; 298  : 		    DispatchMessage(&msg);

  0040c	8d 45 e0	 lea	 eax, DWORD PTR _msg$[ebp]
  0040f	50		 push	 eax
  00410	ff 15 00 00 00
	00		 call	 DWORD PTR __imp__DispatchMessageA@4
$LN1@WinMain:

; 299  : 		}
; 300  : 	}

  00416	eb c0		 jmp	 SHORT $LN3@WinMain
$LN2@WinMain:

; 301  : 
; 302  : 	CMiniDump::End();

  00418	e8 00 00 00 00	 call	 ?End@CMiniDump@@SAHXZ	; CMiniDump::End

; 303  : 	return msg.wParam;

  0041d	8b 45 e8	 mov	 eax, DWORD PTR _msg$[ebp+8]
$LN15@WinMain:

; 304  : }

  00420	5f		 pop	 edi
  00421	5e		 pop	 esi
  00422	5b		 pop	 ebx
  00423	8b 4d fc	 mov	 ecx, DWORD PTR __$ArrayPad$[ebp]
  00426	33 cd		 xor	 ecx, ebp
  00428	e8 00 00 00 00	 call	 @__security_check_cookie@4
  0042d	8b e5		 mov	 esp, ebp
  0042f	5d		 pop	 ebp
  00430	c2 10 00	 ret	 16			; 00000010H
_WinMain@16 ENDP
_TEXT	ENDS
PUBLIC	??_C@_0BO@IPBDMNKJ@Event?5Chip?5Server?$LP?$KB?5?A?$KC?$LM?S?5?$LO?H?$LF?J?$AA@ ; `string'
PUBLIC	??_C@_0BL@IBBPGHEK@Ranking?5Server?$LP?$KB?5?A?$KC?$LM?S?5?$LO?H?$LF?J?$AA@ ; `string'
EXTRN	?Connect@DBSockMng@@QAEXXZ:PROC			; DBSockMng::Connect
EXTRN	?cDBSMng@@3VDBSockMng@@A:BYTE			; cDBSMng
EXTRN	?GMEventChipServerConnect@@YAHPADK@Z:PROC	; GMEventChipServerConnect
EXTRN	?gEventChipServerIp@@3PADA:BYTE			; gEventChipServerIp
EXTRN	?IsEventChipServerConnected@@3HA:DWORD		; IsEventChipServerConnected
EXTRN	?EventChipServerConnect@@3HA:DWORD		; EventChipServerConnect
EXTRN	?GMRankingServerConnect@@YAHPADK@Z:PROC		; GMRankingServerConnect
EXTRN	?gDevilSquareEventServerIp@@3PADA:BYTE		; gDevilSquareEventServerIp
EXTRN	?IsDevilSquareEventConnected@@3HA:DWORD		; IsDevilSquareEventConnected
EXTRN	?DevilSquareEventConnect@@3HA:DWORD		; DevilSquareEventConnect
EXTRN	?MsgBox@@YAXPADZZ:PROC				; MsgBox
EXTRN	?Get@CMsg@@QAEPADH@Z:PROC			; CMsg::Get
EXTRN	?lMsg@@3VCMsg@@A:BYTE				; lMsg
EXTRN	?GMJoinServerConnect@@YAHPADK@Z:PROC		; GMJoinServerConnect
EXTRN	?JoinServerConnected@@3HA:DWORD			; JoinServerConnected
;	COMDAT ??_C@_0BO@IPBDMNKJ@Event?5Chip?5Server?$LP?$KB?5?A?$KC?$LM?S?5?$LO?H?$LF?J?$AA@
CONST	SEGMENT
??_C@_0BO@IPBDMNKJ@Event?5Chip?5Server?$LP?$KB?5?A?$KC?$LM?S?5?$LO?H?$LF?J?$AA@ DB 'E'
	DB	'vent Chip Server', 0bfH, 0a1H, ' ', 0c1H, 0a2H, 0bcH, 0d3H, ' '
	DB	0beH, 0c8H, 0b5H, 0caH, 00H			; `string'
CONST	ENDS
;	COMDAT ??_C@_0BL@IBBPGHEK@Ranking?5Server?$LP?$KB?5?A?$KC?$LM?S?5?$LO?H?$LF?J?$AA@
CONST	SEGMENT
??_C@_0BL@IBBPGHEK@Ranking?5Server?$LP?$KB?5?A?$KC?$LM?S?5?$LO?H?$LF?J?$AA@ DB 'R'
	DB	'anking Server', 0bfH, 0a1H, ' ', 0c1H, 0a2H, 0bcH, 0d3H, ' ', 0beH
	DB	0c8H, 0b5H, 0caH, 00H			; `string'
; Function compile flags: /Odtp /ZI
CONST	ENDS
_TEXT	SEGMENT
?AllServerStart@@YAHXZ PROC				; AllServerStart

; 306  : BOOL AllServerStart(void){

  00440	55		 push	 ebp
  00441	8b ec		 mov	 ebp, esp
  00443	83 ec 40	 sub	 esp, 64			; 00000040H
  00446	53		 push	 ebx
  00447	56		 push	 esi
  00448	57		 push	 edi

; 307  : 	
; 308  : 	if (JoinServerConnected==0)

  00449	83 3d 00 00 00
	00 00		 cmp	 DWORD PTR ?JoinServerConnected@@3HA, 0 ; JoinServerConnected
  00450	75 35		 jne	 SHORT $LN6@AllServerS

; 309  : 	{
; 310  : 		if (GMJoinServerConnect(JoinServerIp, WM_GM_JOIN_CLIENT_MSG_PROC) == 0)

  00452	68 03 04 00 00	 push	 1027			; 00000403H
  00457	68 00 00 00 00	 push	 OFFSET ?JoinServerIp@@3PADA ; JoinServerIp
  0045c	e8 00 00 00 00	 call	 ?GMJoinServerConnect@@YAHPADK@Z ; GMJoinServerConnect
  00461	83 c4 08	 add	 esp, 8
  00464	85 c0		 test	 eax, eax
  00466	75 1f		 jne	 SHORT $LN6@AllServerS

; 311  : 		{	
; 312  : 			// LoginServer connect fail
; 313  : 			MsgBox(lMsg.Get(MSGGET(1, 144)));

  00468	68 90 01 00 00	 push	 400			; 00000190H
  0046d	b9 00 00 00 00	 mov	 ecx, OFFSET ?lMsg@@3VCMsg@@A ; lMsg
  00472	e8 00 00 00 00	 call	 ?Get@CMsg@@QAEPADH@Z	; CMsg::Get
  00477	50		 push	 eax
  00478	e8 00 00 00 00	 call	 ?MsgBox@@YAXPADZZ	; MsgBox
  0047d	83 c4 04	 add	 esp, 4

; 314  : 			return 0;

  00480	33 c0		 xor	 eax, eax
  00482	e9 95 00 00 00	 jmp	 $LN7@AllServerS
$LN6@AllServerS:

; 315  : 		}
; 316  : 	}
; 317  : 
; 318  : 	if ((DevilSquareEventConnect==0) && (IsDevilSquareEventConnected==0))

  00487	83 3d 00 00 00
	00 00		 cmp	 DWORD PTR ?DevilSquareEventConnect@@3HA, 0 ; DevilSquareEventConnect
  0048e	75 3a		 jne	 SHORT $LN4@AllServerS
  00490	83 3d 00 00 00
	00 00		 cmp	 DWORD PTR ?IsDevilSquareEventConnected@@3HA, 0 ; IsDevilSquareEventConnected
  00497	75 31		 jne	 SHORT $LN4@AllServerS

; 319  : 	{
; 320  : 		if (GMRankingServerConnect(gDevilSquareEventServerIp, WM_GM_RANKING_CLIENT_MSG_PROC) == 0)

  00499	68 0c 04 00 00	 push	 1036			; 0000040cH
  0049e	68 00 00 00 00	 push	 OFFSET ?gDevilSquareEventServerIp@@3PADA ; gDevilSquareEventServerIp
  004a3	e8 00 00 00 00	 call	 ?GMRankingServerConnect@@YAHPADK@Z ; GMRankingServerConnect
  004a8	83 c4 08	 add	 esp, 8
  004ab	85 c0		 test	 eax, eax
  004ad	75 11		 jne	 SHORT $LN3@AllServerS

; 321  : 		{
; 322  : 			MsgBox("Ranking Server俊 立加 救凳");

  004af	68 00 00 00 00	 push	 OFFSET ??_C@_0BL@IBBPGHEK@Ranking?5Server?$LP?$KB?5?A?$KC?$LM?S?5?$LO?H?$LF?J?$AA@
  004b4	e8 00 00 00 00	 call	 ?MsgBox@@YAXPADZZ	; MsgBox
  004b9	83 c4 04	 add	 esp, 4

; 323  : 			return 0;

  004bc	33 c0		 xor	 eax, eax
  004be	eb 5c		 jmp	 SHORT $LN7@AllServerS
$LN3@AllServerS:

; 324  : 		}
; 325  : 		IsDevilSquareEventConnected=1;

  004c0	c7 05 00 00 00
	00 01 00 00 00	 mov	 DWORD PTR ?IsDevilSquareEventConnected@@3HA, 1 ; IsDevilSquareEventConnected
$LN4@AllServerS:

; 326  : 	}
; 327  : 
; 328  : 	if ((EventChipServerConnect!=0) && (IsEventChipServerConnected==0))

  004ca	83 3d 00 00 00
	00 00		 cmp	 DWORD PTR ?EventChipServerConnect@@3HA, 0 ; EventChipServerConnect
  004d1	74 3a		 je	 SHORT $LN2@AllServerS
  004d3	83 3d 00 00 00
	00 00		 cmp	 DWORD PTR ?IsEventChipServerConnected@@3HA, 0 ; IsEventChipServerConnected
  004da	75 31		 jne	 SHORT $LN2@AllServerS

; 329  : 	{
; 330  : 		if (GMEventChipServerConnect(gEventChipServerIp, WM_GM_EVENTCHIP_CLIENT_MSG_PROC) == 0)

  004dc	68 0d 04 00 00	 push	 1037			; 0000040dH
  004e1	68 00 00 00 00	 push	 OFFSET ?gEventChipServerIp@@3PADA ; gEventChipServerIp
  004e6	e8 00 00 00 00	 call	 ?GMEventChipServerConnect@@YAHPADK@Z ; GMEventChipServerConnect
  004eb	83 c4 08	 add	 esp, 8
  004ee	85 c0		 test	 eax, eax
  004f0	75 11		 jne	 SHORT $LN1@AllServerS

; 331  : 		{
; 332  : 			MsgBox("Event Chip Server俊 立加 救凳");

  004f2	68 00 00 00 00	 push	 OFFSET ??_C@_0BO@IPBDMNKJ@Event?5Chip?5Server?$LP?$KB?5?A?$KC?$LM?S?5?$LO?H?$LF?J?$AA@
  004f7	e8 00 00 00 00	 call	 ?MsgBox@@YAXPADZZ	; MsgBox
  004fc	83 c4 04	 add	 esp, 4

; 333  : 			return 0;

  004ff	33 c0		 xor	 eax, eax
  00501	eb 19		 jmp	 SHORT $LN7@AllServerS
$LN1@AllServerS:

; 334  : 		}
; 335  : 		IsEventChipServerConnected=1;

  00503	c7 05 00 00 00
	00 01 00 00 00	 mov	 DWORD PTR ?IsEventChipServerConnected@@3HA, 1 ; IsEventChipServerConnected
$LN2@AllServerS:

; 336  : 	}
; 337  : 
; 338  : 	
; 339  : 	cDBSMng.Connect();

  0050d	b9 00 00 00 00	 mov	 ecx, OFFSET ?cDBSMng@@3VDBSockMng@@A ; cDBSMng
  00512	e8 00 00 00 00	 call	 ?Connect@DBSockMng@@QAEXXZ ; DBSockMng::Connect

; 340  : 	return TRUE;

  00517	b8 01 00 00 00	 mov	 eax, 1
$LN7@AllServerS:

; 341  : }

  0051c	5f		 pop	 edi
  0051d	5e		 pop	 esi
  0051e	5b		 pop	 ebx
  0051f	8b e5		 mov	 esp, ebp
  00521	5d		 pop	 ebp
  00522	c3		 ret	 0
?AllServerStart@@YAHXZ ENDP				; AllServerStart
_TEXT	ENDS
PUBLIC	?GameServerStart@@YAHXZ				; GameServerStart
EXTRN	?CheckUser@CExLicense@@QAE_NH@Z:PROC		; CExLicense::CheckUser
EXTRN	__imp__SetTimer@16:PROC
EXTRN	?CreateGIocp@@YAHH@Z:PROC			; CreateGIocp
EXTRN	?GameMainServerCreate@@YAHKK@Z:PROC		; GameMainServerCreate
; Function compile flags: /Odtp /ZI
_TEXT	SEGMENT
?GameServerStart@@YAHXZ PROC				; GameServerStart

; 344  : {

  00530	55		 push	 ebp
  00531	8b ec		 mov	 ebp, esp
  00533	83 ec 40	 sub	 esp, 64			; 00000040H
  00536	53		 push	 ebx
  00537	56		 push	 esi
  00538	57		 push	 edi

; 345  : 	if (GameMainServerCreate(WM_GM_SERVER_MSG_PROC, WM_GM_CLIENT_MSG_PROC) == FALSE )

  00539	68 02 04 00 00	 push	 1026			; 00000402H
  0053e	68 01 04 00 00	 push	 1025			; 00000401H
  00543	e8 00 00 00 00	 call	 ?GameMainServerCreate@@YAHKK@Z ; GameMainServerCreate
  00548	83 c4 08	 add	 esp, 8
  0054b	85 c0		 test	 eax, eax
  0054d	75 1f		 jne	 SHORT $LN3@GameServer

; 346  : 	{
; 347  : 		MsgBox(lMsg.Get(MSGGET( 1, 142) ));

  0054f	68 8e 01 00 00	 push	 398			; 0000018eH
  00554	b9 00 00 00 00	 mov	 ecx, OFFSET ?lMsg@@3VCMsg@@A ; lMsg
  00559	e8 00 00 00 00	 call	 ?Get@CMsg@@QAEPADH@Z	; CMsg::Get
  0055e	50		 push	 eax
  0055f	e8 00 00 00 00	 call	 ?MsgBox@@YAXPADZZ	; MsgBox
  00564	83 c4 04	 add	 esp, 4

; 348  : 		return FALSE;

  00567	33 c0		 xor	 eax, eax
  00569	e9 41 02 00 00	 jmp	 $LN4@GameServer
$LN3@GameServer:

; 349  : 	}
; 350  : 
; 351  : 	#if(DEV_SOCKET_MANAGER)
; 352  : 
; 353  : 	WSADATA wsa;
; 354  : 
; 355  : 	if(WSAStartup(MAKEWORD(2,2),&wsa) == 0)
; 356  : 	{
; 357  : 		LogAddC(2, "WSAStartup() failed with error: %d", WSAGetLastError());
; 358  : 	}
; 359  : 
; 360  : 	if(gSocketManager.Start((WORD)GameServerPort) == 0)
; 361  : 	{
; 362  : 		LogAddC(2,"Could not start GameServer");
; 363  : 	}
; 364  : 
; 365  : 	#else
; 366  : 
; 367  : 	CreateGIocp(GameServerPort);

  0056e	a1 00 00 00 00	 mov	 eax, DWORD PTR ?GameServerPort@@3HA ; GameServerPort
  00573	50		 push	 eax
  00574	e8 00 00 00 00	 call	 ?CreateGIocp@@YAHH@Z	; CreateGIocp
  00579	83 c4 04	 add	 esp, 4

; 368  : 
; 369  : 	#endif
; 370  : 
; 371  : 	SetTimer(ghWnd, WM_LOG_PAINT, 2000, NULL);

  0057c	6a 00		 push	 0
  0057e	68 d0 07 00 00	 push	 2000			; 000007d0H
  00583	6a 64		 push	 100			; 00000064H
  00585	a1 00 00 00 00	 mov	 eax, DWORD PTR ?ghWnd@@3PAUHWND__@@A ; ghWnd
  0058a	50		 push	 eax
  0058b	ff 15 00 00 00
	00		 call	 DWORD PTR __imp__SetTimer@16

; 372  : 	SetTimer(ghWnd, WM_FIRST_MSG_PROCESS, 1000, NULL);

  00591	6a 00		 push	 0
  00593	68 e8 03 00 00	 push	 1000			; 000003e8H
  00598	6a 65		 push	 101			; 00000065H
  0059a	a1 00 00 00 00	 mov	 eax, DWORD PTR ?ghWnd@@3PAUHWND__@@A ; ghWnd
  0059f	50		 push	 eax
  005a0	ff 15 00 00 00
	00		 call	 DWORD PTR __imp__SetTimer@16

; 373  : 
; 374  : 	SetTimer(ghWnd, WM_SET_DATE, 60000, NULL);

  005a6	6a 00		 push	 0
  005a8	68 60 ea 00 00	 push	 60000			; 0000ea60H
  005ad	68 e9 03 00 00	 push	 1001			; 000003e9H
  005b2	a1 00 00 00 00	 mov	 eax, DWORD PTR ?ghWnd@@3PAUHWND__@@A ; ghWnd
  005b7	50		 push	 eax
  005b8	ff 15 00 00 00
	00		 call	 DWORD PTR __imp__SetTimer@16

; 375  : 	SetTimer(ghWnd, WM_LOG_DATE_CHANGE, 60000, NULL);

  005be	6a 00		 push	 0
  005c0	68 60 ea 00 00	 push	 60000			; 0000ea60H
  005c5	68 eb 03 00 00	 push	 1003			; 000003ebH
  005ca	a1 00 00 00 00	 mov	 eax, DWORD PTR ?ghWnd@@3PAUHWND__@@A ; ghWnd
  005cf	50		 push	 eax
  005d0	ff 15 00 00 00
	00		 call	 DWORD PTR __imp__SetTimer@16

; 376  : 	SetTimer(ghWnd, WM_CONNECT_DATASERVER, 10000, NULL);

  005d6	6a 00		 push	 0
  005d8	68 10 27 00 00	 push	 10000			; 00002710H
  005dd	68 ef 03 00 00	 push	 1007			; 000003efH
  005e2	a1 00 00 00 00	 mov	 eax, DWORD PTR ?ghWnd@@3PAUHWND__@@A ; ghWnd
  005e7	50		 push	 eax
  005e8	ff 15 00 00 00
	00		 call	 DWORD PTR __imp__SetTimer@16

; 377  : 
; 378  : 
; 379  : 	SetTimer(ghWnd, WM_SECOND_MSG_PROCESS, 1000, NULL);

  005ee	6a 00		 push	 0
  005f0	68 e8 03 00 00	 push	 1000			; 000003e8H
  005f5	68 e8 03 00 00	 push	 1000			; 000003e8H
  005fa	a1 00 00 00 00	 mov	 eax, DWORD PTR ?ghWnd@@3PAUHWND__@@A ; ghWnd
  005ff	50		 push	 eax
  00600	ff 15 00 00 00
	00		 call	 DWORD PTR __imp__SetTimer@16

; 380  : 	SetTimer(ghWnd, WM_GS_CLOSE, 1000, NULL);

  00606	6a 00		 push	 0
  00608	68 e8 03 00 00	 push	 1000			; 000003e8H
  0060d	68 ea 03 00 00	 push	 1002			; 000003eaH
  00612	a1 00 00 00 00	 mov	 eax, DWORD PTR ?ghWnd@@3PAUHWND__@@A ; ghWnd
  00617	50		 push	 eax
  00618	ff 15 00 00 00
	00		 call	 DWORD PTR __imp__SetTimer@16

; 381  : 	SetTimer(ghWnd, WM_MONSTER_AND_MSG_PROC, 500, NULL);//500

  0061e	6a 00		 push	 0
  00620	68 f4 01 00 00	 push	 500			; 000001f4H
  00625	68 ee 03 00 00	 push	 1006			; 000003eeH
  0062a	a1 00 00 00 00	 mov	 eax, DWORD PTR ?ghWnd@@3PAUHWND__@@A ; ghWnd
  0062f	50		 push	 eax
  00630	ff 15 00 00 00
	00		 call	 DWORD PTR __imp__SetTimer@16

; 382  : 
; 383  : 
; 384  : 	SetTimer(ghWnd, WM_MOVE_MONSTER_PROC, 300, NULL);	///300

  00636	6a 00		 push	 0
  00638	68 2c 01 00 00	 push	 300			; 0000012cH
  0063d	68 ed 03 00 00	 push	 1005			; 000003edH
  00642	a1 00 00 00 00	 mov	 eax, DWORD PTR ?ghWnd@@3PAUHWND__@@A ; ghWnd
  00647	50		 push	 eax
  00648	ff 15 00 00 00
	00		 call	 DWORD PTR __imp__SetTimer@16

; 385  : 	SetTimer(ghWnd, WM_EVENT_RUN_PROC, 100, NULL);

  0064e	6a 00		 push	 0
  00650	6a 64		 push	 100			; 00000064H
  00652	68 ec 03 00 00	 push	 1004			; 000003ecH
  00657	a1 00 00 00 00	 mov	 eax, DWORD PTR ?ghWnd@@3PAUHWND__@@A ; ghWnd
  0065c	50		 push	 eax
  0065d	ff 15 00 00 00
	00		 call	 DWORD PTR __imp__SetTimer@16

; 386  : 
; 387  : 	SetTimer(ghWnd, WM_AI_MONSTER_MOVE_PROC, 100, NULL);	//100

  00663	6a 00		 push	 0
  00665	6a 64		 push	 100			; 00000064H
  00667	68 f2 03 00 00	 push	 1010			; 000003f2H
  0066c	a1 00 00 00 00	 mov	 eax, DWORD PTR ?ghWnd@@3PAUHWND__@@A ; ghWnd
  00671	50		 push	 eax
  00672	ff 15 00 00 00
	00		 call	 DWORD PTR __imp__SetTimer@16

; 388  : 	SetTimer(ghWnd, WM_AI_MONSTER_PROC, 1011, NULL);

  00678	6a 00		 push	 0
  0067a	68 f3 03 00 00	 push	 1011			; 000003f3H
  0067f	68 f4 01 00 00	 push	 500			; 000001f4H
  00684	a1 00 00 00 00	 mov	 eax, DWORD PTR ?ghWnd@@3PAUHWND__@@A ; ghWnd
  00689	50		 push	 eax
  0068a	ff 15 00 00 00
	00		 call	 DWORD PTR __imp__SetTimer@16

; 389  : 
; 390  : 	SetTimer(ghWnd, WM_GUILD_LIST_REQUEST, 1000, NULL);

  00690	6a 00		 push	 0
  00692	68 e8 03 00 00	 push	 1000			; 000003e8H
  00697	68 f0 03 00 00	 push	 1008			; 000003f0H
  0069c	a1 00 00 00 00	 mov	 eax, DWORD PTR ?ghWnd@@3PAUHWND__@@A ; ghWnd
  006a1	50		 push	 eax
  006a2	ff 15 00 00 00
	00		 call	 DWORD PTR __imp__SetTimer@16

; 391  : #ifdef DEBUG_CODE
; 392  : 	SetTimer(ghWnd, WM_VOTER_PROC, 10000, NULL);
; 393  : #else
; 394  : 	//86400000 
; 395  : 	if( g_ExLicense.CheckUser(feqan) )

  006a8	6a 25		 push	 37			; 00000025H
  006aa	b9 00 00 00 00	 mov	 ecx, OFFSET ?g_ExLicense@@3VCExLicense@@A ; g_ExLicense
  006af	e8 00 00 00 00	 call	 ?CheckUser@CExLicense@@QAE_NH@Z ; CExLicense::CheckUser
  006b4	0f b6 c0	 movzx	 eax, al
  006b7	85 c0		 test	 eax, eax
  006b9	74 1a		 je	 SHORT $LN2@GameServer

; 396  : 	{
; 397  : 		SetTimer(ghWnd, WM_VOTER_PROC, 86400000, NULL);//3600000	600000	3600000

  006bb	6a 00		 push	 0
  006bd	68 00 5c 26 05	 push	 86400000		; 05265c00H
  006c2	68 f3 03 00 00	 push	 1011			; 000003f3H
  006c7	a1 00 00 00 00	 mov	 eax, DWORD PTR ?ghWnd@@3PAUHWND__@@A ; ghWnd
  006cc	50		 push	 eax
  006cd	ff 15 00 00 00
	00		 call	 DWORD PTR __imp__SetTimer@16

; 398  : 	}
; 399  : 	else

  006d3	eb 18		 jmp	 SHORT $LN1@GameServer
$LN2@GameServer:

; 400  : 	{
; 401  : 		SetTimer(ghWnd, WM_VOTER_PROC, 3600000, NULL);//3600000	600000	3600000

  006d5	6a 00		 push	 0
  006d7	68 80 ee 36 00	 push	 3600000			; 0036ee80H
  006dc	68 f3 03 00 00	 push	 1011			; 000003f3H
  006e1	a1 00 00 00 00	 mov	 eax, DWORD PTR ?ghWnd@@3PAUHWND__@@A ; ghWnd
  006e6	50		 push	 eax
  006e7	ff 15 00 00 00
	00		 call	 DWORD PTR __imp__SetTimer@16
$LN1@GameServer:

; 402  : 	}
; 403  : #endif
; 404  : 	SetTimer(ghWnd, WM_EX_TIMER_SEC, 1000, NULL);	//1000

  006ed	6a 00		 push	 0
  006ef	68 e8 03 00 00	 push	 1000			; 000003e8H
  006f4	68 f4 03 00 00	 push	 1012			; 000003f4H
  006f9	a1 00 00 00 00	 mov	 eax, DWORD PTR ?ghWnd@@3PAUHWND__@@A ; ghWnd
  006fe	50		 push	 eax
  006ff	ff 15 00 00 00
	00		 call	 DWORD PTR __imp__SetTimer@16

; 405  : 	SetTimer(ghWnd, WM_VOTER_REED, 600000, NULL);

  00705	6a 00		 push	 0
  00707	68 c0 27 09 00	 push	 600000			; 000927c0H
  0070c	68 f5 03 00 00	 push	 1013			; 000003f5H
  00711	a1 00 00 00 00	 mov	 eax, DWORD PTR ?ghWnd@@3PAUHWND__@@A ; ghWnd
  00716	50		 push	 eax
  00717	ff 15 00 00 00
	00		 call	 DWORD PTR __imp__SetTimer@16

; 406  : 	SetTimer(ghWnd, WM_TIMER_MIN, 60000, NULL);	//Debug

  0071d	6a 00		 push	 0
  0071f	68 60 ea 00 00	 push	 60000			; 0000ea60H
  00724	68 f6 03 00 00	 push	 1014			; 000003f6H
  00729	a1 00 00 00 00	 mov	 eax, DWORD PTR ?ghWnd@@3PAUHWND__@@A ; ghWnd
  0072e	50		 push	 eax
  0072f	ff 15 00 00 00
	00		 call	 DWORD PTR __imp__SetTimer@16

; 407  : 	SetTimer(ghWnd, WM_TIMER_10MIN, 600000, NULL);	//Debug

  00735	6a 00		 push	 0
  00737	68 c0 27 09 00	 push	 600000			; 000927c0H
  0073c	68 f7 03 00 00	 push	 1015			; 000003f7H
  00741	a1 00 00 00 00	 mov	 eax, DWORD PTR ?ghWnd@@3PAUHWND__@@A ; ghWnd
  00746	50		 push	 eax
  00747	ff 15 00 00 00
	00		 call	 DWORD PTR __imp__SetTimer@16

; 408  : 	SetTimer(ghWnd, WM_EX_TIMER_500MC, 500, NULL);

  0074d	6a 00		 push	 0
  0074f	68 f4 01 00 00	 push	 500			; 000001f4H
  00754	68 f8 03 00 00	 push	 1016			; 000003f8H
  00759	a1 00 00 00 00	 mov	 eax, DWORD PTR ?ghWnd@@3PAUHWND__@@A ; ghWnd
  0075e	50		 push	 eax
  0075f	ff 15 00 00 00
	00		 call	 DWORD PTR __imp__SetTimer@16

; 409  : 	SetTimer(ghWnd, WM_EX_TIMER_100MC, 100, NULL);

  00765	6a 00		 push	 0
  00767	6a 64		 push	 100			; 00000064H
  00769	68 f9 03 00 00	 push	 1017			; 000003f9H
  0076e	a1 00 00 00 00	 mov	 eax, DWORD PTR ?ghWnd@@3PAUHWND__@@A ; ghWnd
  00773	50		 push	 eax
  00774	ff 15 00 00 00
	00		 call	 DWORD PTR __imp__SetTimer@16

; 410  : 	SetTimer(ghWnd, WM_EX_LICENSE_10SEC, 1000, NULL);	//need 60000 

  0077a	6a 00		 push	 0
  0077c	68 e8 03 00 00	 push	 1000			; 000003e8H
  00781	68 fa 03 00 00	 push	 1018			; 000003faH
  00786	a1 00 00 00 00	 mov	 eax, DWORD PTR ?ghWnd@@3PAUHWND__@@A ; ghWnd
  0078b	50		 push	 eax
  0078c	ff 15 00 00 00
	00		 call	 DWORD PTR __imp__SetTimer@16

; 411  : 	SetTimer(ghWnd, WM_EX_TIMER_10SEC, 10000, NULL);

  00792	6a 00		 push	 0
  00794	68 10 27 00 00	 push	 10000			; 00002710H
  00799	68 fb 03 00 00	 push	 1019			; 000003fbH
  0079e	a1 00 00 00 00	 mov	 eax, DWORD PTR ?ghWnd@@3PAUHWND__@@A ; ghWnd
  007a3	50		 push	 eax
  007a4	ff 15 00 00 00
	00		 call	 DWORD PTR __imp__SetTimer@16

; 412  : 	return TRUE;

  007aa	b8 01 00 00 00	 mov	 eax, 1
$LN4@GameServer:

; 413  : }

  007af	5f		 pop	 edi
  007b0	5e		 pop	 esi
  007b1	5b		 pop	 ebx
  007b2	8b e5		 mov	 esp, ebp
  007b4	5d		 pop	 ebp
  007b5	c3		 ret	 0
?GameServerStart@@YAHXZ ENDP				; GameServerStart
_TEXT	ENDS
PUBLIC	?WndProc@@YGJPAUHWND__@@IIJ@Z			; WndProc
EXTRN	__imp__RegisterClassExA@4:PROC
EXTRN	__imp__CreateSolidBrush@4:PROC
EXTRN	__imp__LoadCursorA@8:PROC
EXTRN	__imp__LoadIconA@8:PROC
; Function compile flags: /Odtp /ZI
_TEXT	SEGMENT
_wcex$ = -48						; size = 48
_hInstance$ = 8						; size = 4
?MyRegisterClass@@YAGPAUHINSTANCE__@@@Z PROC		; MyRegisterClass

; 416  : {

  007c0	55		 push	 ebp
  007c1	8b ec		 mov	 ebp, esp
  007c3	83 ec 70	 sub	 esp, 112		; 00000070H
  007c6	53		 push	 ebx
  007c7	56		 push	 esi
  007c8	57		 push	 edi

; 417  : 
; 418  : #if(NEW_WINDOW==1)
; 419  : 	WNDCLASSEX wcex;
; 420  : 
; 421  : 	wcex.cbSize = sizeof(WNDCLASSEX); 

  007c9	c7 45 d0 30 00
	00 00		 mov	 DWORD PTR _wcex$[ebp], 48 ; 00000030H

; 422  : 
; 423  : 	wcex.style			= CS_HREDRAW | CS_VREDRAW;

  007d0	c7 45 d4 03 00
	00 00		 mov	 DWORD PTR _wcex$[ebp+4], 3

; 424  : 	wcex.lpfnWndProc	= (WNDPROC)WndProc;

  007d7	c7 45 d8 00 00
	00 00		 mov	 DWORD PTR _wcex$[ebp+8], OFFSET ?WndProc@@YGJPAUHWND__@@IIJ@Z ; WndProc

; 425  : 	wcex.cbClsExtra		= 0;

  007de	c7 45 dc 00 00
	00 00		 mov	 DWORD PTR _wcex$[ebp+12], 0

; 426  : 	wcex.cbWndExtra		= 0;

  007e5	c7 45 e0 00 00
	00 00		 mov	 DWORD PTR _wcex$[ebp+16], 0

; 427  : 	wcex.hInstance		= hInstance;

  007ec	8b 45 08	 mov	 eax, DWORD PTR _hInstance$[ebp]
  007ef	89 45 e4	 mov	 DWORD PTR _wcex$[ebp+20], eax

; 428  : 	wcex.hIcon			= LoadIcon(hInstance, (LPCTSTR)IDI_NORMAL_V1);

  007f2	6a 6b		 push	 107			; 0000006bH
  007f4	8b 45 08	 mov	 eax, DWORD PTR _hInstance$[ebp]
  007f7	50		 push	 eax
  007f8	ff 15 00 00 00
	00		 call	 DWORD PTR __imp__LoadIconA@8
  007fe	89 45 e8	 mov	 DWORD PTR _wcex$[ebp+24], eax

; 429  : 	wcex.hCursor		= LoadCursor(NULL, IDC_ARROW);

  00801	68 00 7f 00 00	 push	 32512			; 00007f00H
  00806	6a 00		 push	 0
  00808	ff 15 00 00 00
	00		 call	 DWORD PTR __imp__LoadCursorA@8
  0080e	89 45 ec	 mov	 DWORD PTR _wcex$[ebp+28], eax

; 430  : 	wcex.hbrBackground	= (HBRUSH)CreateSolidBrush(BLACK_BRUSH);//CreateSolidBrush ( RGB ( 225, 123, 234));

  00811	6a 04		 push	 4
  00813	ff 15 00 00 00
	00		 call	 DWORD PTR __imp__CreateSolidBrush@4
  00819	89 45 f0	 mov	 DWORD PTR _wcex$[ebp+32], eax

; 431  : 	wcex.lpszMenuName	= (LPCSTR)IDR_MENU;

  0081c	c7 45 f4 6d 00
	00 00		 mov	 DWORD PTR _wcex$[ebp+36], 109 ; 0000006dH

; 432  : 	wcex.lpszClassName	= szWindowClass;

  00823	c7 45 f8 00 00
	00 00		 mov	 DWORD PTR _wcex$[ebp+40], OFFSET ?szWindowClass@@3PADA ; szWindowClass

; 433  : 	wcex.hIconSm		= LoadIcon(wcex.hInstance, (LPCTSTR)IDI_ICON_MINIMIZED);

  0082a	6a 6c		 push	 108			; 0000006cH
  0082c	8b 45 e4	 mov	 eax, DWORD PTR _wcex$[ebp+20]
  0082f	50		 push	 eax
  00830	ff 15 00 00 00
	00		 call	 DWORD PTR __imp__LoadIconA@8
  00836	89 45 fc	 mov	 DWORD PTR _wcex$[ebp+44], eax

; 434  : 
; 435  : 	return RegisterClassEx(&wcex);

  00839	8d 45 d0	 lea	 eax, DWORD PTR _wcex$[ebp]
  0083c	50		 push	 eax
  0083d	ff 15 00 00 00
	00		 call	 DWORD PTR __imp__RegisterClassExA@4

; 436  : #else
; 437  : 	WNDCLASSEX wcex;
; 438  : 
; 439  : 	wcex.cbSize = sizeof(WNDCLASSEX); 
; 440  : 
; 441  : 	wcex.style			= CS_HREDRAW | CS_VREDRAW;
; 442  : 	wcex.lpfnWndProc	= (WNDPROC)WndProc;
; 443  : 	wcex.cbClsExtra		= 0;
; 444  : 	wcex.cbWndExtra		= 0;
; 445  : 	wcex.hInstance		= hInstance;
; 446  : 	wcex.hIcon			= LoadIcon(hInstance, (LPCTSTR)IDI_NORMAL_V1);
; 447  : 	wcex.hCursor		= LoadCursor(NULL, IDC_ARROW);
; 448  : 	wcex.hbrBackground	= (HBRUSH)(COLOR_WINDOW+1);
; 449  : 	wcex.lpszMenuName	= (LPCSTR)IDR_MENU;
; 450  : 	wcex.lpszClassName	= szWindowClass;
; 451  : 	wcex.hIconSm		= LoadIcon(wcex.hInstance, (LPCTSTR)IDI_ICON_MINIMIZED);
; 452  : 
; 453  : 	return RegisterClassEx(&wcex);
; 454  : #endif
; 455  : }

  00843	5f		 pop	 edi
  00844	5e		 pop	 esi
  00845	5b		 pop	 ebx
  00846	8b e5		 mov	 esp, ebp
  00848	5d		 pop	 ebp
  00849	c3		 ret	 0
?MyRegisterClass@@YAGPAUHINSTANCE__@@@Z ENDP		; MyRegisterClass
_TEXT	ENDS
EXTRN	__imp__UpdateWindow@4:PROC
EXTRN	__imp__CreateWindowExA@48:PROC
; Function compile flags: /Odtp /ZI
_TEXT	SEGMENT
_hWnd$ = -4						; size = 4
_hInstance$ = 8						; size = 4
_nCmdShow$ = 12						; size = 4
?InitInstance@@YAHPAUHINSTANCE__@@H@Z PROC		; InitInstance

; 458  : {

  00850	55		 push	 ebp
  00851	8b ec		 mov	 ebp, esp
  00853	83 ec 44	 sub	 esp, 68			; 00000044H
  00856	53		 push	 ebx
  00857	56		 push	 esi
  00858	57		 push	 edi

; 459  : 
; 460  : 	HWND hWnd;
; 461  : 	hInst=hInstance;

  00859	8b 45 08	 mov	 eax, DWORD PTR _hInstance$[ebp]
  0085c	a3 00 00 00 00	 mov	 DWORD PTR ?hInst@@3PAUHINSTANCE__@@A, eax ; hInst

; 462  : #if(NEW_WINDOW==1)
; 463  :     hWnd = CreateWindowExA(
; 464  :         0,
; 465  :         szWindowClass,
; 466  :         szTitle,
; 467  :         WS_OVERLAPPED+WS_CAPTION+WS_SYSMENU+WS_MINIMIZEBOX+WS_VISIBLE,
; 468  :         CW_USEDEFAULT, 0, GAMESERVER_WIDTH, GAMESERVER_HEIGHT,
; 469  :         NULL, NULL, hInstance, NULL);

  00861	6a 00		 push	 0
  00863	8b 45 08	 mov	 eax, DWORD PTR _hInstance$[ebp]
  00866	50		 push	 eax
  00867	6a 00		 push	 0
  00869	6a 00		 push	 0
  0086b	68 8a 02 00 00	 push	 650			; 0000028aH
  00870	68 b6 03 00 00	 push	 950			; 000003b6H
  00875	6a 00		 push	 0
  00877	68 00 00 00 80	 push	 -2147483648		; 80000000H
  0087c	68 00 00 ca 10	 push	 281673728		; 10ca0000H
  00881	68 00 00 00 00	 push	 OFFSET ?szTitle@@3PADA	; szTitle
  00886	68 00 00 00 00	 push	 OFFSET ?szWindowClass@@3PADA ; szWindowClass
  0088b	6a 00		 push	 0
  0088d	ff 15 00 00 00
	00		 call	 DWORD PTR __imp__CreateWindowExA@48
  00893	89 45 fc	 mov	 DWORD PTR _hWnd$[ebp], eax

; 470  : #else
; 471  :     hWnd = CreateWindowEx(
; 472  :         0,
; 473  :         szWindowClass,
; 474  :         szTitle,
; 475  :         WS_OVERLAPPEDWINDOW,
; 476  :         CW_USEDEFAULT, 0, CW_USEDEFAULT,0,
; 477  :         NULL, NULL, hInstance, NULL);
; 478  : #endif	
; 479  : 	if (hWnd==0) 

  00896	83 7d fc 00	 cmp	 DWORD PTR _hWnd$[ebp], 0
  0089a	75 04		 jne	 SHORT $LN1@InitInstan

; 480  : 	{
; 481  : 		return 0;

  0089c	33 c0		 xor	 eax, eax
  0089e	eb 25		 jmp	 SHORT $LN2@InitInstan
$LN1@InitInstan:

; 482  : 	}
; 483  : 
; 484  : 	ShowWindow(hWnd, nCmdShow);

  008a0	8b 45 0c	 mov	 eax, DWORD PTR _nCmdShow$[ebp]
  008a3	50		 push	 eax
  008a4	8b 4d fc	 mov	 ecx, DWORD PTR _hWnd$[ebp]
  008a7	51		 push	 ecx
  008a8	ff 15 00 00 00
	00		 call	 DWORD PTR __imp__ShowWindow@8

; 485  : 	UpdateWindow(hWnd);

  008ae	8b 45 fc	 mov	 eax, DWORD PTR _hWnd$[ebp]
  008b1	50		 push	 eax
  008b2	ff 15 00 00 00
	00		 call	 DWORD PTR __imp__UpdateWindow@4

; 486  : 
; 487  : 	ghWnd=hWnd;

  008b8	8b 45 fc	 mov	 eax, DWORD PTR _hWnd$[ebp]
  008bb	a3 00 00 00 00	 mov	 DWORD PTR ?ghWnd@@3PAUHWND__@@A, eax ; ghWnd

; 488  : 	return TRUE;

  008c0	b8 01 00 00 00	 mov	 eax, 1
$LN2@InitInstan:

; 489  : }

  008c5	5f		 pop	 edi
  008c6	5e		 pop	 esi
  008c7	5b		 pop	 ebx
  008c8	8b e5		 mov	 esp, ebp
  008ca	5d		 pop	 ebp
  008cb	c3		 ret	 0
?InitInstance@@YAHPAUHINSTANCE__@@H@Z ENDP		; InitInstance
_TEXT	ENDS
PUBLIC	??_C@_06MMLDKFPE@?E?W?$LN?$LK?F?$KO?$AA@	; `string'
PUBLIC	??_C@_0BC@EBEJPBOM@GameServer?5close?$DP?$AA@	; `string'
PUBLIC	??_C@_05LGELBCGM@Close?$AA@			; `string'
PUBLIC	?GetDataLoadState@CCastleSiege@@QAEHXZ		; CCastleSiege::GetDataLoadState
PUBLIC	?GetActiveDS@DBSockMng@@QAEHXZ			; DBSockMng::GetActiveDS
PUBLIC	?GetState@CDragonEvent@@QAEEXZ			; CDragonEvent::GetState
PUBLIC	??_C@_04HADNADMN@?$LP?H?$LD?D?$AA@		; `string'
PUBLIC	??_C@_0M@NBMDHNII@HELLO?5WORLD?$AA@		; `string'
PUBLIC	??_C@_0L@DPAHEMHE@Iplist?4dat?$AA@		; `string'
PUBLIC	?SetDataLoadState@CCastleSiege@@QAEXH@Z		; CCastleSiege::SetDataLoadState
PUBLIC	??_C@_0BB@IGLHFEOF@commonserver?4cfg?$AA@	; `string'
PUBLIC	??_C@_0BK@COKJOEKN@?4?2Events?2MuCastleData?4dat?$AA@ ; `string'
PUBLIC	?GetMapSvrGroup@CMapServerManager@@QAEHXZ	; CMapServerManager::GetMapSvrGroup
PUBLIC	??_C@_0BC@MBPKGCDH@MapServerInfo?4dat?$AA@	; `string'
PUBLIC	??_C@_0BA@LAAHBEDI@closeplayer?4txt?$AA@	; `string'
PUBLIC	?About@@YGJPAUHWND__@@IIJ@Z			; About
PUBLIC	?CsLogDlgProc@@YGHPAUHWND__@@IIJ@Z		; CsLogDlgProc
PUBLIC	__$ArrayPad$
EXTRN	__imp__PostQuitMessage@4:PROC
EXTRN	?GiocpDelete@@YAXXZ:PROC			; GiocpDelete
EXTRN	?GameMainFree@@YAXXZ:PROC			; GameMainFree
EXTRN	?CGPCharacterMapJoinRequest@@YAXPAUPMSG_CHARMAPJOIN@@H@Z:PROC ; CGPCharacterMapJoinRequest
EXTRN	_strcpy:PROC
EXTRN	?gServerMaxUser@@3HA:DWORD			; gServerMaxUser
EXTRN	__imp__DestroyWindow@4:PROC
EXTRN	?AutoHPClick@ExUser@@QAEXXZ:PROC		; ExUser::AutoHPClick
EXTRN	?Timer@ConnectEx@@QAEXXZ:PROC			; ConnectEx::Timer
EXTRN	?g_ConnectEx@@3VConnectEx@@A:QWORD		; g_ConnectEx
EXTRN	?Attack@OfflineMode@@QAEXH@Z:PROC		; OfflineMode::Attack
EXTRN	?g_OfflineMode@@3VOfflineMode@@A:BYTE		; g_OfflineMode
EXTRN	?SendClient@cRanking@@QAEXXZ:PROC		; cRanking::SendClient
EXTRN	?RunItemDupe@AntiCheatPlus@@QAEXXZ:PROC		; AntiCheatPlus::RunItemDupe
EXTRN	?g_AntiCheatPlus@@3VAntiCheatPlus@@A:BYTE	; g_AntiCheatPlus
EXTRN	?PartyMiniMapInfo@ExUser@@QAEXXZ:PROC		; ExUser::PartyMiniMapInfo
EXTRN	?Run@Voter@@QAEXXZ:PROC				; Voter::Run
EXTRN	?TickCountClientDataSend@ExUser@@QAEXXZ:PROC	; ExUser::TickCountClientDataSend
EXTRN	?Timer@ExTeleportEvo@@QAEXXZ:PROC		; ExTeleportEvo::Timer
EXTRN	?g_ExTeleportEvo@@3VExTeleportEvo@@A:BYTE	; g_ExTeleportEvo
EXTRN	?Timer@ExTeleport@@QAEXXZ:PROC			; ExTeleport::Timer
EXTRN	?g_ExTeleport@@3VExTeleport@@A:BYTE		; g_ExTeleport
EXTRN	?GCServerTime@ExUser@@QAEXXZ:PROC		; ExUser::GCServerTime
EXTRN	?RageClientSend@cSystemOfRage@@QAEXXZ:PROC	; cSystemOfRage::RageClientSend
EXTRN	?gSystemOfRage@@3VcSystemOfRage@@A:BYTE		; gSystemOfRage
EXTRN	?Client@cEventTimer@@QAEXXZ:PROC		; cEventTimer::Client
EXTRN	?gEventTimer@@3VcEventTimer@@A:BYTE		; gEventTimer
EXTRN	?StatusTime@SpotReturn@@QAEXXZ:PROC		; SpotReturn::StatusTime
EXTRN	?g_SpotReturn@@3VSpotReturn@@A:QWORD		; g_SpotReturn
EXTRN	?Work@cAutoParty@@QAEXXZ:PROC			; cAutoParty::Work
EXTRN	?gAutoParty@@3VcAutoParty@@A:BYTE		; gAutoParty
EXTRN	?ExUserVieweport@@YAXH@Z:PROC			; ExUserVieweport
EXTRN	?QtopReed@Voter@@QAEXXZ:PROC			; Voter::QtopReed
EXTRN	?MootopReed@Voter@@QAEXXZ:PROC			; Voter::MootopReed
EXTRN	?g_iCastleItemMixLimit@@3HA:DWORD		; g_iCastleItemMixLimit
EXTRN	?LogDateChange@@YAHXZ:PROC			; LogDateChange
EXTRN	?gObjCheckAllUserDuelStop@@YAXXZ:PROC		; gObjCheckAllUserDuelStop
EXTRN	?TimeCheckCashDelete@CWhisperCash@@QAEXXZ:PROC	; CWhisperCash::TimeCheckCashDelete
EXTRN	?WhisperCash@@3VCWhisperCash@@A:BYTE		; WhisperCash
EXTRN	?gSetDate@@YAXXZ:PROC				; gSetDate
EXTRN	?CheckPeriodData@CPeriodItemEx@@QAEXXZ:PROC	; CPeriodItemEx::CheckPeriodData
EXTRN	?g_PeriodItemEx@@3VCPeriodItemEx@@A:BYTE	; g_PeriodItemEx
EXTRN	?CrywolfSecondAct@CCrywolf@@QAEXXZ:PROC		; CCrywolf::CrywolfSecondAct
EXTRN	?AdjustTributeMoney@CCastleSiegeSync@@QAEXXZ:PROC ; CCastleSiegeSync::AdjustTributeMoney
EXTRN	?g_CastleSiegeSync@@3VCCastleSiegeSync@@A:BYTE	; g_CastleSiegeSync
EXTRN	?SendCastleStateSync@CCastleSiege@@QAEXXZ:PROC	; CCastleSiege::SendCastleStateSync
EXTRN	?DataRequest@CCastleSiege@@QAEHXZ:PROC		; CCastleSiege::DataRequest
EXTRN	?gObjSecondProc@@YAXXZ:PROC			; gObjSecondProc
EXTRN	__imp__wsprintfA:PROC
EXTRN	?LogAddC@@3P6AXEPADZZA:DWORD			; LogAddC
EXTRN	?ResetDamageTable@ExUser@@QAEXXZ:PROC		; ExUser::ResetDamageTable
EXTRN	?g_ExUser@@3VExUser@@A:BYTE			; g_ExUser
EXTRN	?Run@CQuestionAnswer@@QAEXXZ:PROC		; CQuestionAnswer::Run
EXTRN	?g_QuestionAnswer@@3VCQuestionAnswer@@A:BYTE	; g_QuestionAnswer
EXTRN	?Run@CBanSystem@@QAEXXZ:PROC			; CBanSystem::Run
EXTRN	?g_BanSystem@@3VCBanSystem@@A:BYTE		; g_BanSystem
EXTRN	?Run@CTimerEx@@QAEXXZ:PROC			; CTimerEx::Run
EXTRN	?g_TimerEx@@3VCTimerEx@@A:DWORD			; g_TimerEx
EXTRN	?TickTime@cPandoraBoxEvent@@QAEXXZ:PROC		; cPandoraBoxEvent::TickTime
EXTRN	?gPandoraBoxEvent@@3VcPandoraBoxEvent@@A:BYTE	; gPandoraBoxEvent
EXTRN	?TickTime@CDeviasBattle@@QAEXXZ:PROC		; CDeviasBattle::TickTime
EXTRN	?g_DeviasBattle@@3VCDeviasBattle@@A:BYTE	; g_DeviasBattle
EXTRN	?TickTime@cLoraBattle@@QAEXXZ:PROC		; cLoraBattle::TickTime
EXTRN	?LoraBattle@@3VcLoraBattle@@A:BYTE		; LoraBattle
EXTRN	?TickTime@cAlertSystem@@QAEXXZ:PROC		; cAlertSystem::TickTime
EXTRN	?AlertSystem@@3VcAlertSystem@@A:BYTE		; AlertSystem
EXTRN	?TickTime@cMonsterSpawner@@QAEXXZ:PROC		; cMonsterSpawner::TickTime
EXTRN	?gMonsterSpawner@@3VcMonsterSpawner@@A:BYTE	; gMonsterSpawner
EXTRN	?TickTime@cTvTEvent@@QAEXXZ:PROC		; cTvTEvent::TickTime
EXTRN	?TvT@@3VcTvTEvent@@A:BYTE			; TvT
EXTRN	?Times@cBloodHound@@QAEXXZ:PROC			; cBloodHound::Times
EXTRN	?BloodHound@@3VcBloodHound@@A:BYTE		; BloodHound
EXTRN	?TickTime@TeleportShop@@QAEXXZ:PROC		; TeleportShop::TickTime
EXTRN	?g_TeleportShop@@3VTeleportShop@@A:BYTE		; g_TeleportShop
EXTRN	?StartNPC@cSearchEvent@@QAEXXZ:PROC		; cSearchEvent::StartNPC
EXTRN	?SearchEvent@@3VcSearchEvent@@A:BYTE		; SearchEvent
EXTRN	?TickTime@cDropEvent@@QAEXXZ:PROC		; cDropEvent::TickTime
EXTRN	?DropEvent@@3VcDropEvent@@A:BYTE		; DropEvent
EXTRN	?Timetick@cHappyHour@@QAEXXZ:PROC		; cHappyHour::Timetick
EXTRN	?HappyHour@@3VcHappyHour@@A:BYTE		; HappyHour
EXTRN	?Run@CEventManagement@@QAEXXZ:PROC		; CEventManagement::Run
EXTRN	?g_EventManager@@3VCEventManagement@@A:BYTE	; g_EventManager
EXTRN	?Run@CEledoradoEvent@@QAEXXZ:PROC		; CEledoradoEvent::Run
EXTRN	?gEledoradoEvent@@3VCEledoradoEvent@@A:BYTE	; gEledoradoEvent
EXTRN	?Run@CAttackEvent@@QAEXXZ:PROC			; CAttackEvent::Run
EXTRN	?AttackEvent@@3PAVCAttackEvent@@A:DWORD		; AttackEvent
EXTRN	?Run@CDragonEvent@@QAEXXZ:PROC			; CDragonEvent::Run
EXTRN	?wsGServer@@3VCwsGameServer@@A:BYTE		; wsGServer
EXTRN	?WeatherVariationProcess@MapClass@@QAEXXZ:PROC	; MapClass::WeatherVariationProcess
EXTRN	?MapC@@3PAVMapClass@@A:BYTE			; MapC
EXTRN	?GameServerInfoSend@@YAXXZ:PROC			; GameServerInfoSend
EXTRN	?gObjSetState@@YAXXZ:PROC			; gObjSetState
EXTRN	?gObjUnionUpdateProc@@YAXH@Z:PROC		; gObjUnionUpdateProc
EXTRN	?gObj@@3PAUOBJECTSTRUCT@@A:DWORD		; gObj
EXTRN	?gObjIsConnected@@YAHH@Z:PROC			; gObjIsConnected
EXTRN	?PShop_ViewportListRegenarate@@YAXF@Z:PROC	; PShop_ViewportListRegenarate
EXTRN	?gDoPShopOpen@@3HA:DWORD			; gDoPShopOpen
EXTRN	?gObjViewportListProtocol@@YAXF@Z:PROC		; gObjViewportListProtocol
EXTRN	?gObjViewportListCreate@@YAXF@Z:PROC		; gObjViewportListCreate
EXTRN	?gObjViewportListDestroy@@YAXF@Z:PROC		; gObjViewportListDestroy
EXTRN	?gObjStateSetCreate@@YAXH@Z:PROC		; gObjStateSetCreate
EXTRN	?MonsterAIProc@TMonsterAI@@SAXXZ:PROC		; TMonsterAI::MonsterAIProc
EXTRN	?MonsterMoveProc@TMonsterAI@@SAXXZ:PROC		; TMonsterAI::MonsterMoveProc
EXTRN	?Run@CMonsterTime@@QAEXXZ:PROC			; CMonsterTime::Run
EXTRN	?g_MonsterTime@@3VCMonsterTime@@A:BYTE		; g_MonsterTime
EXTRN	?Run@CCarnageEvent@@QAEXXZ:PROC			; CCarnageEvent::Run
EXTRN	?g_CarnageEvent@@3VCCarnageEvent@@A:BYTE	; g_CarnageEvent
EXTRN	?Run@CTeamVsTeam@@QAEXXZ:PROC			; CTeamVsTeam::Run
EXTRN	?g_TeamVsTeam@@3VCTeamVsTeam@@A:BYTE		; g_TeamVsTeam
EXTRN	?Run@CDungeonSiege@@QAEXXZ:PROC			; CDungeonSiege::Run
EXTRN	?g_DungeonSiege@@3VCDungeonSiege@@A:BYTE	; g_DungeonSiege
EXTRN	?Run@CImperial@@QAEXXZ:PROC			; CImperial::Run
EXTRN	?g_Imperial@@3VCImperial@@A:BYTE		; g_Imperial
EXTRN	?Run@CDoppelGanger@@QAEXXZ:PROC			; CDoppelGanger::Run
EXTRN	?g_DoppelGanger@@3VCDoppelGanger@@A:BYTE	; g_DoppelGanger
EXTRN	?Run@CDuelManager@@QAEXXZ:PROC			; CDuelManager::Run
EXTRN	?g_DuelManager@@3VCDuelManager@@A:BYTE		; g_DuelManager
EXTRN	?Run@CXMasAttackEvent@@QAEXXZ:PROC		; CXMasAttackEvent::Run
EXTRN	?Run@CRaklion@@QAEXXZ:PROC			; CRaklion::Run
EXTRN	?g_Raklion@@3VCRaklion@@A:BYTE			; g_Raklion
EXTRN	?Run@CIllusionTempleEvent@@QAEXXZ:PROC		; CIllusionTempleEvent::Run
EXTRN	?g_IllusionTempleEvent@@3VCIllusionTempleEvent@@A:BYTE ; g_IllusionTempleEvent
EXTRN	?Run@CKanturu@@QAEXXZ:PROC			; CKanturu::Run
EXTRN	?Run@CCrywolf@@QAEXXZ:PROC			; CCrywolf::Run
EXTRN	?g_Crywolf@@3VCCrywolf@@A:BYTE			; g_Crywolf
EXTRN	?WeaponAttackProc@CWeapon@@QAEXXZ:PROC		; CWeapon::WeaponAttackProc
EXTRN	?g_CsNPC_Weapon@@3VCWeapon@@A:BYTE		; g_CsNPC_Weapon
EXTRN	?Run@CCastleDeepEvent@@QAEXXZ:PROC		; CCastleDeepEvent::Run
EXTRN	?g_CastleDeepEvent@@3VCCastleDeepEvent@@A:BYTE	; g_CastleDeepEvent
EXTRN	?Run@CCastleSiege@@QAEXXZ:PROC			; CCastleSiege::Run
EXTRN	?Run@CChaosCastle@@QAEXXZ:PROC			; CChaosCastle::Run
EXTRN	?g_ChaosCastle@@3VCChaosCastle@@A:BYTE		; g_ChaosCastle
EXTRN	?Run@CRingAttackEvent@@QAEXXZ:PROC		; CRingAttackEvent::Run
EXTRN	?Run@CBloodCastle@@QAEXXZ:PROC			; CBloodCastle::Run
EXTRN	?g_BloodCastle@@3VCBloodCastle@@A:BYTE		; g_BloodCastle
EXTRN	?UserMonsterCountCheck@CKanturu@@QAEXXZ:PROC	; CKanturu::UserMonsterCountCheck
EXTRN	?g_Kanturu@@3VCKanturu@@A:BYTE			; g_Kanturu
EXTRN	?MoveMonsterProc@@YAXXZ:PROC			; MoveMonsterProc
EXTRN	?MonsterAndMsgProc@@YAXXZ:PROC			; MonsterAndMsgProc
EXTRN	?GJNotifyMaxUserCount@@YAXXZ:PROC		; GJNotifyMaxUserCount
EXTRN	?Run@TServerInfoDisplayer@@QAEXPAUHWND__@@@Z:PROC ; TServerInfoDisplayer::Run
EXTRN	?g_ServerInfoDisplayer@@3VTServerInfoDisplayer@@A:BYTE ; g_ServerInfoDisplayer
EXTRN	?gObjViewportPaint@@YAXPAUHWND__@@F@Z:PROC	; gObjViewportPaint
EXTRN	?LogTextPaint@@3P6AXPAUHWND__@@@ZA:DWORD	; LogTextPaint
EXTRN	__imp__ReleaseDC@8:PROC
EXTRN	__imp__FillRect@12:PROC
EXTRN	__imp__GetClientRect@8:PROC
EXTRN	__imp__GetDC@4:PROC
EXTRN	__imp__KillTimer@8:PROC
EXTRN	?DGGuildListRequest@@YAXXZ:PROC			; DGGuildListRequest
EXTRN	?ExDataClientMsgProc@@YAXIJ@Z:PROC		; ExDataClientMsgProc
EXTRN	?MsgProc@DBSockMng@@QAEHHIJ@Z:PROC		; DBSockMng::MsgProc
EXTRN	?GMEventChipClientMsgProc@@YAXIJ@Z:PROC		; GMEventChipClientMsgProc
EXTRN	?GMRankingClientMsgProc@@YAXIJ@Z:PROC		; GMRankingClientMsgProc
EXTRN	?GMJoinClientMsgProc@@YAXIJ@Z:PROC		; GMJoinClientMsgProc
EXTRN	?GMClientMsgProc@@YAXIJ@Z:PROC			; GMClientMsgProc
EXTRN	?GMServerMsgProc@@YAXIJ@Z:PROC			; GMServerMsgProc
EXTRN	__imp__DefWindowProcA@16:PROC
EXTRN	?ReadGameEtcInfo@@YAXW4MU_ETC_TYPE@@@Z:PROC	; ReadGameEtcInfo
EXTRN	?ReadEventInfo@@YAXW4MU_EVENT_TYPE@@@Z:PROC	; ReadEventInfo
EXTRN	?AllSendServerMsg@@YAXPAD@Z:PROC		; AllSendServerMsg
EXTRN	?gFireCrackerEvent@@3HA:DWORD			; gFireCrackerEvent
EXTRN	?gXMasEvent@@3HA:DWORD				; gXMasEvent
EXTRN	?Start@CDragonEvent@@QAEXXZ:PROC		; CDragonEvent::Start
EXTRN	?End@CDragonEvent@@QAEXXZ:PROC			; CDragonEvent::End
EXTRN	?DragonEvent@@3PAVCDragonEvent@@A:DWORD		; DragonEvent
EXTRN	__imp__GetDlgItem@8:PROC
EXTRN	_rand:PROC
EXTRN	?ReadCommonServerInfo@@YAXXZ:PROC		; ReadCommonServerInfo
EXTRN	?Load@CAcceptIp@@QAEXPAD@Z:PROC			; CAcceptIp::Load
EXTRN	?acceptIP@@3VCAcceptIp@@A:BYTE			; acceptIP
EXTRN	?LoadPreFixData@CCastleSiege@@QAEHPAD@Z:PROC	; CCastleSiege::LoadPreFixData
EXTRN	?LoadData@CCastleSiege@@QAEHPAD@Z:PROC		; CCastleSiege::LoadData
EXTRN	?Ready@CCastleSiege@@QAEHH@Z:PROC		; CCastleSiege::Ready
EXTRN	?g_CastleSiege@@3VCCastleSiege@@A:BYTE		; g_CastleSiege
EXTRN	?LoadData@CMapServerManager@@QAEHPAD@Z:PROC	; CMapServerManager::LoadData
EXTRN	?g_MapServerManager@@3VCMapServerManager@@A:BYTE ; g_MapServerManager
EXTRN	?GetNewPath@CDirPath@@QAEPADPAD@Z:PROC		; CDirPath::GetNewPath
EXTRN	?gDirPath@@3VCDirPath@@A:BYTE			; gDirPath
EXTRN	?ShopDataLoad@@YAHXZ:PROC			; ShopDataLoad
EXTRN	?GameMonsterAllCloseAndReLoad@@YAXXZ:PROC	; GameMonsterAllCloseAndReLoad
EXTRN	?gObjAllLogOut@@YAXXZ:PROC			; gObjAllLogOut
EXTRN	?gObjAllDisconnect@@YAXXZ:PROC			; gObjAllDisconnect
EXTRN	??1Ccloseplayer@@UAE@XZ:PROC			; Ccloseplayer::~Ccloseplayer
EXTRN	?Load@Ccloseplayer@@QAEXPAD@Z:PROC		; Ccloseplayer::Load
EXTRN	??0Ccloseplayer@@QAE@XZ:PROC			; Ccloseplayer::Ccloseplayer
EXTRN	__imp__SendMessageA@16:PROC
EXTRN	__imp__DialogBoxParamA@20:PROC
EXTRN	__imp__CreateDialogParamA@20:PROC
EXTRN	___CxxFrameHandler3:PROC
;	COMDAT ??_C@_06MMLDKFPE@?E?W?$LN?$LK?F?$KO?$AA@
CONST	SEGMENT
??_C@_06MMLDKFPE@?E?W?$LN?$LK?F?$KO?$AA@ DB 0c5H, 0d7H, 0bdH, 0baH, 0c6H, 0aeH
	DB	00H						; `string'
CONST	ENDS
;	COMDAT ??_C@_0BC@EBEJPBOM@GameServer?5close?$DP?$AA@
CONST	SEGMENT
??_C@_0BC@EBEJPBOM@GameServer?5close?$DP?$AA@ DB 'GameServer close?', 00H ; `string'
CONST	ENDS
;	COMDAT ??_C@_05LGELBCGM@Close?$AA@
CONST	SEGMENT
??_C@_05LGELBCGM@Close?$AA@ DB 'Close', 00H		; `string'
CONST	ENDS
;	COMDAT ??_C@_04HADNADMN@?$LP?H?$LD?D?$AA@
CONST	SEGMENT
??_C@_04HADNADMN@?$LP?H?$LD?D?$AA@ DB 0bfH, 0c8H, 0b3H, 0c4H, 00H ; `string'
CONST	ENDS
;	COMDAT ??_C@_0M@NBMDHNII@HELLO?5WORLD?$AA@
CONST	SEGMENT
??_C@_0M@NBMDHNII@HELLO?5WORLD?$AA@ DB 'HELLO WORLD', 00H ; `string'
CONST	ENDS
;	COMDAT ??_C@_0L@DPAHEMHE@Iplist?4dat?$AA@
CONST	SEGMENT
??_C@_0L@DPAHEMHE@Iplist?4dat?$AA@ DB 'Iplist.dat', 00H	; `string'
CONST	ENDS
;	COMDAT ??_C@_0BB@IGLHFEOF@commonserver?4cfg?$AA@
CONST	SEGMENT
??_C@_0BB@IGLHFEOF@commonserver?4cfg?$AA@ DB 'commonserver.cfg', 00H ; `string'
CONST	ENDS
;	COMDAT ??_C@_0BK@COKJOEKN@?4?2Events?2MuCastleData?4dat?$AA@
CONST	SEGMENT
??_C@_0BK@COKJOEKN@?4?2Events?2MuCastleData?4dat?$AA@ DB '.\Events\MuCast'
	DB	'leData.dat', 00H				; `string'
CONST	ENDS
;	COMDAT ??_C@_0BC@MBPKGCDH@MapServerInfo?4dat?$AA@
CONST	SEGMENT
??_C@_0BC@MBPKGCDH@MapServerInfo?4dat?$AA@ DB 'MapServerInfo.dat', 00H ; `string'
CONST	ENDS
;	COMDAT ??_C@_0BA@LAAHBEDI@closeplayer?4txt?$AA@
CONST	SEGMENT
??_C@_0BA@LAAHBEDI@closeplayer?4txt?$AA@ DB 'closeplayer.txt', 00H ; `string'
CONST	ENDS
xdata$x	SEGMENT
__unwindtable$?WndProc@@YGJPAUHWND__@@IIJ@Z DD 0ffffffffH
	DD	FLAT:__unwindfunclet$?WndProc@@YGJPAUHWND__@@IIJ@Z$0
__ehfuncinfo$?WndProc@@YGJPAUHWND__@@IIJ@Z DD 019930522H
	DD	01H
	DD	FLAT:__unwindtable$?WndProc@@YGJPAUHWND__@@IIJ@Z
	DD	2 DUP(00H)
	DD	2 DUP(00H)
	DD	00H
	DD	01H
; Function compile flags: /Odtp /ZI
xdata$x	ENDS
_TEXT	SEGMENT
tv556 = -436						; size = 4
tv246 = -436						; size = 4
tv156 = -436						; size = 4
tv75 = -436						; size = 4
tv64 = -436						; size = 4
_Msg$249368 = -368					; size = 14
_n$249341 = -352					; size = 4
_n$249333 = -348					; size = 4
_szTemp$249323 = -344					; size = 256
_n$249304 = -88						; size = 4
_n$249299 = -84						; size = 4
_n$249294 = -80						; size = 4
_n$249290 = -76						; size = 4
_n$249285 = -72						; size = 4
_n$249281 = -68						; size = 4
_n$249277 = -64						; size = 4
_n$249273 = -60						; size = 4
_hdc$249264 = -56					; size = 4
_rect$249263 = -52					; size = 16
_lp$249247 = -36					; size = 4
_wp$249246 = -32					; size = 4
_closeplayer$249174 = -28				; size = 4
_wmEvent$ = -24						; size = 4
_wmId$ = -20						; size = 4
__$ArrayPad$ = -16					; size = 4
__$EHRec$ = -12						; size = 12
_hWnd$ = 8						; size = 4
_message$ = 12						; size = 4
_wParam$ = 16						; size = 4
_lParam$ = 20						; size = 4
?WndProc@@YGJPAUHWND__@@IIJ@Z PROC			; WndProc

; 494  : {

  008d0	55		 push	 ebp
  008d1	8b ec		 mov	 ebp, esp
  008d3	6a ff		 push	 -1
  008d5	68 00 00 00 00	 push	 __ehhandler$?WndProc@@YGJPAUHWND__@@IIJ@Z
  008da	64 a1 00 00 00
	00		 mov	 eax, DWORD PTR fs:0
  008e0	50		 push	 eax
  008e1	81 ec a8 01 00
	00		 sub	 esp, 424		; 000001a8H
  008e7	a1 00 00 00 00	 mov	 eax, DWORD PTR ___security_cookie
  008ec	33 c5		 xor	 eax, ebp
  008ee	89 45 f0	 mov	 DWORD PTR __$ArrayPad$[ebp], eax
  008f1	53		 push	 ebx
  008f2	56		 push	 esi
  008f3	57		 push	 edi
  008f4	50		 push	 eax
  008f5	8d 45 f4	 lea	 eax, DWORD PTR __$EHRec$[ebp]
  008f8	64 a3 00 00 00
	00		 mov	 DWORD PTR fs:0, eax

; 495  : 	INT wmId, wmEvent;
; 496  : 	
; 497  : 	switch (message) 

  008fe	8b 45 0c	 mov	 eax, DWORD PTR _message$[ebp]
  00901	89 85 4c fe ff
	ff		 mov	 DWORD PTR tv64[ebp], eax
  00907	81 bd 4c fe ff
	ff 01 04 00 00	 cmp	 DWORD PTR tv64[ebp], 1025 ; 00000401H
  00911	77 75		 ja	 SHORT $LN183@WndProc
  00913	81 bd 4c fe ff
	ff 01 04 00 00	 cmp	 DWORD PTR tv64[ebp], 1025 ; 00000401H
  0091d	0f 84 1d 06 00
	00		 je	 $LN107@WndProc
  00923	81 bd 4c fe ff
	ff 00 01 00 00	 cmp	 DWORD PTR tv64[ebp], 256 ; 00000100H
  0092d	77 38		 ja	 SHORT $LN184@WndProc
  0092f	81 bd 4c fe ff
	ff 00 01 00 00	 cmp	 DWORD PTR tv64[ebp], 256 ; 00000100H
  00939	0f 84 27 0f 00
	00		 je	 $LN17@WndProc
  0093f	83 bd 4c fe ff
	ff 01		 cmp	 DWORD PTR tv64[ebp], 1
  00946	74 6c		 je	 SHORT $LN174@WndProc
  00948	83 bd 4c fe ff
	ff 02		 cmp	 DWORD PTR tv64[ebp], 2
  0094f	0f 84 1a 10 00
	00		 je	 $LN2@WndProc
  00955	83 bd 4c fe ff
	ff 10		 cmp	 DWORD PTR tv64[ebp], 16	; 00000010H
  0095c	0f 84 c3 0e 00
	00		 je	 $LN21@WndProc
  00962	e9 1c 10 00 00	 jmp	 $LN1@WndProc
$LN184@WndProc:
  00967	81 bd 4c fe ff
	ff 11 01 00 00	 cmp	 DWORD PTR tv64[ebp], 273 ; 00000111H
  00971	74 6a		 je	 SHORT $LN173@WndProc
  00973	81 bd 4c fe ff
	ff 13 01 00 00	 cmp	 DWORD PTR tv64[ebp], 275 ; 00000113H
  0097d	0f 84 8c 06 00
	00		 je	 $LN97@WndProc
  00983	e9 fb 0f 00 00	 jmp	 $LN1@WndProc
$LN183@WndProc:
  00988	8b 8d 4c fe ff
	ff		 mov	 ecx, DWORD PTR tv64[ebp]
  0098e	81 e9 02 04 00
	00		 sub	 ecx, 1026		; 00000402H
  00994	89 8d 4c fe ff
	ff		 mov	 DWORD PTR tv64[ebp], ecx
  0099a	83 bd 4c fe ff
	ff 0c		 cmp	 DWORD PTR tv64[ebp], 12	; 0000000cH
  009a1	0f 87 dc 0f 00
	00		 ja	 $LN1@WndProc
  009a7	8b 95 4c fe ff
	ff		 mov	 edx, DWORD PTR tv64[ebp]
  009ad	ff 24 95 00 00
	00 00		 jmp	 DWORD PTR $LN188@WndProc[edx*4]
$LN174@WndProc:

; 498  : 	{
; 499  : 		case WM_CREATE:
; 500  : //#if(GS_CASTLE==1)
; 501  : 			g_hCsLogDlgProc = CreateDialogParam(hInst, LPCTSTR(IDD_CASTLE_SIEGE_LOG), hWnd, CsLogDlgProc, 0);

  009b4	6a 00		 push	 0
  009b6	68 00 00 00 00	 push	 OFFSET ?CsLogDlgProc@@YGHPAUHWND__@@IIJ@Z ; CsLogDlgProc
  009bb	8b 45 08	 mov	 eax, DWORD PTR _hWnd$[ebp]
  009be	50		 push	 eax
  009bf	68 92 00 00 00	 push	 146			; 00000092H
  009c4	8b 0d 00 00 00
	00		 mov	 ecx, DWORD PTR ?hInst@@3PAUHINSTANCE__@@A ; hInst
  009ca	51		 push	 ecx
  009cb	ff 15 00 00 00
	00		 call	 DWORD PTR __imp__CreateDialogParamA@20
  009d1	a3 00 00 00 00	 mov	 DWORD PTR ?g_hCsLogDlgProc@@3PAUHWND__@@A, eax ; g_hCsLogDlgProc

; 502  : //#endif
; 503  : 			return 0;

  009d6	33 c0		 xor	 eax, eax
  009d8	e9 c0 0f 00 00	 jmp	 $LN178@WndProc
$LN173@WndProc:

; 504  : 		case WM_COMMAND:
; 505  : 			wmId    = wParam & 0xFFFF & 0xFFFF; 

  009dd	8b 45 10	 mov	 eax, DWORD PTR _wParam$[ebp]
  009e0	25 ff ff 00 00	 and	 eax, 65535		; 0000ffffH
  009e5	25 ff ff 00 00	 and	 eax, 65535		; 0000ffffH
  009ea	89 45 ec	 mov	 DWORD PTR _wmId$[ebp], eax

; 506  : 			wmEvent = (wParam >> 16) & 0xFFFF; 

  009ed	8b 45 10	 mov	 eax, DWORD PTR _wParam$[ebp]
  009f0	c1 e8 10	 shr	 eax, 16			; 00000010H
  009f3	25 ff ff 00 00	 and	 eax, 65535		; 0000ffffH
  009f8	89 45 e8	 mov	 DWORD PTR _wmEvent$[ebp], eax

; 507  : 					
; 508  : 			switch (wmId)

  009fb	8b 45 ec	 mov	 eax, DWORD PTR _wmId$[ebp]
  009fe	89 85 4c fe ff
	ff		 mov	 DWORD PTR tv75[ebp], eax
  00a04	81 bd 4c fe ff
	ff 04 80 00 00	 cmp	 DWORD PTR tv75[ebp], 32772 ; 00008004H
  00a0e	7f 27		 jg	 SHORT $LN181@WndProc
  00a10	81 bd 4c fe ff
	ff 04 80 00 00	 cmp	 DWORD PTR tv75[ebp], 32772 ; 00008004H
  00a1a	0f 84 bb 00 00
	00		 je	 $LN165@WndProc
  00a20	83 bd 4c fe ff
	ff 68		 cmp	 DWORD PTR tv75[ebp], 104 ; 00000068H
  00a27	74 3a		 je	 SHORT $LN170@WndProc
  00a29	83 bd 4c fe ff
	ff 69		 cmp	 DWORD PTR tv75[ebp], 105 ; 00000069H
  00a30	74 50		 je	 SHORT $LN169@WndProc
  00a32	e9 e9 04 00 00	 jmp	 $LN108@WndProc
$LN181@WndProc:
  00a37	8b 8d 4c fe ff
	ff		 mov	 ecx, DWORD PTR tv75[ebp]
  00a3d	81 e9 05 80 00
	00		 sub	 ecx, 32773		; 00008005H
  00a43	89 8d 4c fe ff
	ff		 mov	 DWORD PTR tv75[ebp], ecx
  00a49	83 bd 4c fe ff
	ff 37		 cmp	 DWORD PTR tv75[ebp], 55	; 00000037H
  00a50	0f 87 ca 04 00
	00		 ja	 $LN108@WndProc
  00a56	8b 95 4c fe ff
	ff		 mov	 edx, DWORD PTR tv75[ebp]
  00a5c	ff 24 95 00 00
	00 00		 jmp	 DWORD PTR $LN189@WndProc[edx*4]
$LN170@WndProc:

; 509  : 			{
; 510  : 				case IDM_ABOUT:
; 511  : 				   DialogBox(hInst, (LPCTSTR)IDD_ABOUT_BOX, hWnd, (DLGPROC)About);

  00a63	6a 00		 push	 0
  00a65	68 00 00 00 00	 push	 OFFSET ?About@@YGJPAUHWND__@@IIJ@Z ; About
  00a6a	8b 45 08	 mov	 eax, DWORD PTR _hWnd$[ebp]
  00a6d	50		 push	 eax
  00a6e	6a 67		 push	 103			; 00000067H
  00a70	8b 0d 00 00 00
	00		 mov	 ecx, DWORD PTR ?hInst@@3PAUHINSTANCE__@@A ; hInst
  00a76	51		 push	 ecx
  00a77	ff 15 00 00 00
	00		 call	 DWORD PTR __imp__DialogBoxParamA@20

; 512  : 				   break;

  00a7d	e9 b9 04 00 00	 jmp	 $LN171@WndProc
$LN169@WndProc:

; 513  : 				case IDM_EXIT:
; 514  : 				   SendMessage(hWnd, WM_CLOSE, 0, 0);

  00a82	6a 00		 push	 0
  00a84	6a 00		 push	 0
  00a86	6a 10		 push	 16			; 00000010H
  00a88	8b 45 08	 mov	 eax, DWORD PTR _hWnd$[ebp]
  00a8b	50		 push	 eax
  00a8c	ff 15 00 00 00
	00		 call	 DWORD PTR __imp__SendMessageA@16

; 515  : 				   break;

  00a92	e9 a4 04 00 00	 jmp	 $LN171@WndProc
$LN168@WndProc:

; 516  : 				case IDM_CLOSE_PLAYER:
; 517  : 					{
; 518  : 						Ccloseplayer closeplayer;

  00a97	8d 4d e4	 lea	 ecx, DWORD PTR _closeplayer$249174[ebp]
  00a9a	e8 00 00 00 00	 call	 ??0Ccloseplayer@@QAE@XZ	; Ccloseplayer::Ccloseplayer
  00a9f	c7 45 fc 00 00
	00 00		 mov	 DWORD PTR __$EHRec$[ebp+8], 0

; 519  : 						closeplayer.Load("closeplayer.txt");

  00aa6	68 00 00 00 00	 push	 OFFSET ??_C@_0BA@LAAHBEDI@closeplayer?4txt?$AA@
  00aab	8d 4d e4	 lea	 ecx, DWORD PTR _closeplayer$249174[ebp]
  00aae	e8 00 00 00 00	 call	 ?Load@Ccloseplayer@@QAEXPAD@Z ; Ccloseplayer::Load

; 520  : 					}

  00ab3	c7 45 fc ff ff
	ff ff		 mov	 DWORD PTR __$EHRec$[ebp+8], -1
  00aba	8d 4d e4	 lea	 ecx, DWORD PTR _closeplayer$249174[ebp]
  00abd	e8 00 00 00 00	 call	 ??1Ccloseplayer@@UAE@XZ	; Ccloseplayer::~Ccloseplayer

; 521  : 					break;

  00ac2	e9 74 04 00 00	 jmp	 $LN171@WndProc
$LN167@WndProc:

; 522  : 				case IDM_ALL_USER_CLOSE:
; 523  : 				//case 32822:
; 524  : 					gObjAllDisconnect();

  00ac7	e8 00 00 00 00	 call	 ?gObjAllDisconnect@@YAXXZ ; gObjAllDisconnect

; 525  : 					break;

  00acc	e9 6a 04 00 00	 jmp	 $LN171@WndProc
$LN166@WndProc:

; 526  : 				case IDM_ALL_USER_LOGOUT:
; 527  : 					gObjAllLogOut();

  00ad1	e8 00 00 00 00	 call	 ?gObjAllLogOut@@YAXXZ	; gObjAllLogOut

; 528  : 					break;

  00ad6	e9 60 04 00 00	 jmp	 $LN171@WndProc
$LN165@WndProc:

; 529  : 				case IDM_MONSTER_POSITION_RELOAD:
; 530  : 					GameMonsterAllCloseAndReLoad();

  00adb	e8 00 00 00 00	 call	 ?GameMonsterAllCloseAndReLoad@@YAXXZ ; GameMonsterAllCloseAndReLoad

; 531  : 					break;

  00ae0	e9 56 04 00 00	 jmp	 $LN171@WndProc
$LN164@WndProc:

; 532  : 				case IDM_SHOP_RELOAD:
; 533  : 					ShopDataLoad();

  00ae5	e8 00 00 00 00	 call	 ?ShopDataLoad@@YAHXZ	; ShopDataLoad

; 534  : 					break;

  00aea	e9 4c 04 00 00	 jmp	 $LN171@WndProc
$LN163@WndProc:

; 535  : 				case IDM_MAP_SERVER_INFO_RELOAD:
; 536  : 					g_MapServerManager.LoadData(gDirPath.GetNewPath("MapServerInfo.dat") );

  00aef	68 00 00 00 00	 push	 OFFSET ??_C@_0BC@MBPKGCDH@MapServerInfo?4dat?$AA@
  00af4	b9 00 00 00 00	 mov	 ecx, OFFSET ?gDirPath@@3VCDirPath@@A ; gDirPath
  00af9	e8 00 00 00 00	 call	 ?GetNewPath@CDirPath@@QAEPADPAD@Z ; CDirPath::GetNewPath
  00afe	50		 push	 eax
  00aff	b9 00 00 00 00	 mov	 ecx, OFFSET ?g_MapServerManager@@3VCMapServerManager@@A ; g_MapServerManager
  00b04	e8 00 00 00 00	 call	 ?LoadData@CMapServerManager@@QAEHPAD@Z ; CMapServerManager::LoadData

; 537  : 					break;

  00b09	e9 2d 04 00 00	 jmp	 $LN171@WndProc
$LN162@WndProc:

; 538  : //#if(GS_CASTLE==1)					
; 539  : 				case IDM_CASTLE_SIEGE_RELOAD: //GS-CS Decompiled 100%
; 540  : 					if( g_CastleSiege.Ready(g_MapServerManager.GetMapSvrGroup()) == TRUE )

  00b0e	b9 00 00 00 00	 mov	 ecx, OFFSET ?g_MapServerManager@@3VCMapServerManager@@A ; g_MapServerManager
  00b13	e8 00 00 00 00	 call	 ?GetMapSvrGroup@CMapServerManager@@QAEHXZ ; CMapServerManager::GetMapSvrGroup
  00b18	50		 push	 eax
  00b19	b9 00 00 00 00	 mov	 ecx, OFFSET ?g_CastleSiege@@3VCCastleSiege@@A ; g_CastleSiege
  00b1e	e8 00 00 00 00	 call	 ?Ready@CCastleSiege@@QAEHH@Z ; CCastleSiege::Ready
  00b23	83 f8 01	 cmp	 eax, 1
  00b26	75 44		 jne	 SHORT $LN161@WndProc

; 541  : 					{
; 542  : 						if( g_CastleSiege.LoadData(gDirPath.GetNewPath(".\\Events\\MuCastleData.dat")) )

  00b28	68 00 00 00 00	 push	 OFFSET ??_C@_0BK@COKJOEKN@?4?2Events?2MuCastleData?4dat?$AA@
  00b2d	b9 00 00 00 00	 mov	 ecx, OFFSET ?gDirPath@@3VCDirPath@@A ; gDirPath
  00b32	e8 00 00 00 00	 call	 ?GetNewPath@CDirPath@@QAEPADPAD@Z ; CDirPath::GetNewPath
  00b37	50		 push	 eax
  00b38	b9 00 00 00 00	 mov	 ecx, OFFSET ?g_CastleSiege@@3VCCastleSiege@@A ; g_CastleSiege
  00b3d	e8 00 00 00 00	 call	 ?LoadData@CCastleSiege@@QAEHPAD@Z ; CCastleSiege::LoadData
  00b42	85 c0		 test	 eax, eax
  00b44	74 26		 je	 SHORT $LN161@WndProc

; 543  : 						{
; 544  : 							g_CastleSiege.LoadPreFixData(gDirPath.GetNewPath("commonserver.cfg"));

  00b46	68 00 00 00 00	 push	 OFFSET ??_C@_0BB@IGLHFEOF@commonserver?4cfg?$AA@
  00b4b	b9 00 00 00 00	 mov	 ecx, OFFSET ?gDirPath@@3VCDirPath@@A ; gDirPath
  00b50	e8 00 00 00 00	 call	 ?GetNewPath@CDirPath@@QAEPADPAD@Z ; CDirPath::GetNewPath
  00b55	50		 push	 eax
  00b56	b9 00 00 00 00	 mov	 ecx, OFFSET ?g_CastleSiege@@3VCCastleSiege@@A ; g_CastleSiege
  00b5b	e8 00 00 00 00	 call	 ?LoadPreFixData@CCastleSiege@@QAEHPAD@Z ; CCastleSiege::LoadPreFixData

; 545  : 							g_CastleSiege.SetDataLoadState(CASTLESIEGE_DATALOAD_2);

  00b60	6a 02		 push	 2
  00b62	b9 00 00 00 00	 mov	 ecx, OFFSET ?g_CastleSiege@@3VCCastleSiege@@A ; g_CastleSiege
  00b67	e8 00 00 00 00	 call	 ?SetDataLoadState@CCastleSiege@@QAEXH@Z ; CCastleSiege::SetDataLoadState
$LN161@WndProc:

; 546  : 						}
; 547  : 					}
; 548  : 					break;

  00b6c	e9 ca 03 00 00	 jmp	 $LN171@WndProc
$LN159@WndProc:

; 549  : //#endif
; 550  : 				case IDM_IP_LOAD:
; 551  : 					acceptIP.Load(gDirPath.GetNewPath("Iplist.dat"));

  00b71	68 00 00 00 00	 push	 OFFSET ??_C@_0L@DPAHEMHE@Iplist?4dat?$AA@
  00b76	b9 00 00 00 00	 mov	 ecx, OFFSET ?gDirPath@@3VCDirPath@@A ; gDirPath
  00b7b	e8 00 00 00 00	 call	 ?GetNewPath@CDirPath@@QAEPADPAD@Z ; CDirPath::GetNewPath
  00b80	50		 push	 eax
  00b81	b9 00 00 00 00	 mov	 ecx, OFFSET ?acceptIP@@3VCAcceptIp@@A ; acceptIP
  00b86	e8 00 00 00 00	 call	 ?Load@CAcceptIp@@QAEXPAD@Z ; CAcceptIp::Load

; 552  : 					break;

  00b8b	e9 ab 03 00 00	 jmp	 $LN171@WndProc
$LN158@WndProc:

; 553  : 				case IDM_OPTION_RELOAD:
; 554  : 					ReadCommonServerInfo();

  00b90	e8 00 00 00 00	 call	 ?ReadCommonServerInfo@@YAXXZ ; ReadCommonServerInfo

; 555  : 					break;

  00b95	e9 a1 03 00 00	 jmp	 $LN171@WndProc
$LN157@WndProc:

; 556  : 				case IDM_CASHSHOP_OPTION_RELOAD:
; 557  : #ifdef OLDCASHSHOP
; 558  : 					g_CashShop.CashShopOptioNReload();
; 559  : #endif
; 560  : 					break;

  00b9a	e9 9c 03 00 00	 jmp	 $LN171@WndProc
$LN156@WndProc:

; 561  : 				case IDM_LOG_PAINT:
; 562  : 					gCurPaintType=0;

  00b9f	c7 05 00 00 00
	00 00 00 00 00	 mov	 DWORD PTR ?gCurPaintType@@3HA, 0 ; gCurPaintType

; 563  : 					break;

  00ba9	e9 8d 03 00 00	 jmp	 $LN171@WndProc
$LN155@WndProc:

; 564  : //#if(GS_CASTLE==1)
; 565  : 				case IDM_LOG_CASTLESIEGE:
; 566  : 					SendMessage(GetDlgItem(g_hCsLogDlgProc,	IDE_EDIT_LOG), LB_ADDSTRING, 0, (rand() % 2) ? (LONG)"HELLO WORLD" : (LONG)"咳衬");

  00bae	e8 00 00 00 00	 call	 _rand
  00bb3	25 01 00 00 80	 and	 eax, -2147483647	; 80000001H
  00bb8	79 05		 jns	 SHORT $LN187@WndProc
  00bba	48		 dec	 eax
  00bbb	83 c8 fe	 or	 eax, -2			; fffffffeH
  00bbe	40		 inc	 eax
$LN187@WndProc:
  00bbf	85 c0		 test	 eax, eax
  00bc1	74 0c		 je	 SHORT $LN179@WndProc
  00bc3	c7 85 4c fe ff
	ff 00 00 00 00	 mov	 DWORD PTR tv156[ebp], OFFSET ??_C@_0M@NBMDHNII@HELLO?5WORLD?$AA@
  00bcd	eb 0a		 jmp	 SHORT $LN180@WndProc
$LN179@WndProc:
  00bcf	c7 85 4c fe ff
	ff 00 00 00 00	 mov	 DWORD PTR tv156[ebp], OFFSET ??_C@_04HADNADMN@?$LP?H?$LD?D?$AA@
$LN180@WndProc:
  00bd9	8b 85 4c fe ff
	ff		 mov	 eax, DWORD PTR tv156[ebp]
  00bdf	50		 push	 eax
  00be0	6a 00		 push	 0
  00be2	68 80 01 00 00	 push	 384			; 00000180H
  00be7	68 eb 03 00 00	 push	 1003			; 000003ebH
  00bec	8b 0d 00 00 00
	00		 mov	 ecx, DWORD PTR ?g_hCsLogDlgProc@@3PAUHWND__@@A ; g_hCsLogDlgProc
  00bf2	51		 push	 ecx
  00bf3	ff 15 00 00 00
	00		 call	 DWORD PTR __imp__GetDlgItem@8
  00bf9	50		 push	 eax
  00bfa	ff 15 00 00 00
	00		 call	 DWORD PTR __imp__SendMessageA@16

; 567  : 					ShowWindow(g_hCsLogDlgProc, SW_SHOWNORMAL);

  00c00	6a 01		 push	 1
  00c02	a1 00 00 00 00	 mov	 eax, DWORD PTR ?g_hCsLogDlgProc@@3PAUHWND__@@A ; g_hCsLogDlgProc
  00c07	50		 push	 eax
  00c08	ff 15 00 00 00
	00		 call	 DWORD PTR __imp__ShowWindow@8

; 568  : 					break;

  00c0e	e9 28 03 00 00	 jmp	 $LN171@WndProc
$LN154@WndProc:

; 569  : //#endif
; 570  : 				case IDM_MAP1:
; 571  : 					gCurPaintMapNumber = 0;	// Lorencia

  00c13	c7 05 00 00 00
	00 00 00 00 00	 mov	 DWORD PTR ?gCurPaintMapNumber@@3HA, 0 ; gCurPaintMapNumber

; 572  : 					gCurPaintType=1;

  00c1d	c7 05 00 00 00
	00 01 00 00 00	 mov	 DWORD PTR ?gCurPaintType@@3HA, 1 ; gCurPaintType

; 573  : 					break;

  00c27	e9 0f 03 00 00	 jmp	 $LN171@WndProc
$LN153@WndProc:

; 574  : 				case IDM_MAP2:
; 575  : 					gCurPaintType=1;

  00c2c	c7 05 00 00 00
	00 01 00 00 00	 mov	 DWORD PTR ?gCurPaintType@@3HA, 1 ; gCurPaintType

; 576  : 					gCurPaintMapNumber = 1;	// Dungeon

  00c36	c7 05 00 00 00
	00 01 00 00 00	 mov	 DWORD PTR ?gCurPaintMapNumber@@3HA, 1 ; gCurPaintMapNumber

; 577  : 					break;

  00c40	e9 f6 02 00 00	 jmp	 $LN171@WndProc
$LN152@WndProc:

; 578  : 				case IDM_MAP3:
; 579  : 					gCurPaintType=1;

  00c45	c7 05 00 00 00
	00 01 00 00 00	 mov	 DWORD PTR ?gCurPaintType@@3HA, 1 ; gCurPaintType

; 580  : 					gCurPaintMapNumber = 2;	// Devias

  00c4f	c7 05 00 00 00
	00 02 00 00 00	 mov	 DWORD PTR ?gCurPaintMapNumber@@3HA, 2 ; gCurPaintMapNumber

; 581  : 					break;

  00c59	e9 dd 02 00 00	 jmp	 $LN171@WndProc
$LN151@WndProc:

; 582  : 				case IDM_MAP4:
; 583  : 					gCurPaintType=1;

  00c5e	c7 05 00 00 00
	00 01 00 00 00	 mov	 DWORD PTR ?gCurPaintType@@3HA, 1 ; gCurPaintType

; 584  : 					gCurPaintMapNumber = 3;	// Noria

  00c68	c7 05 00 00 00
	00 03 00 00 00	 mov	 DWORD PTR ?gCurPaintMapNumber@@3HA, 3 ; gCurPaintMapNumber

; 585  : 					break;

  00c72	e9 c4 02 00 00	 jmp	 $LN171@WndProc
$LN150@WndProc:

; 586  : 				case IDM_CRYWOLF:
; 587  : 					gCurPaintType=1;

  00c77	c7 05 00 00 00
	00 01 00 00 00	 mov	 DWORD PTR ?gCurPaintType@@3HA, 1 ; gCurPaintType

; 588  : 					gCurPaintMapNumber = 34;	// Crywolf

  00c81	c7 05 00 00 00
	00 22 00 00 00	 mov	 DWORD PTR ?gCurPaintMapNumber@@3HA, 34 ; gCurPaintMapNumber, 00000022H

; 589  : 					break;

  00c8b	e9 ab 02 00 00	 jmp	 $LN171@WndProc
$LN149@WndProc:

; 590  : 				case IDM_DRAGON_EVENT:
; 591  : 					if (  DragonEvent->GetState() != 0 )

  00c90	8b 0d 00 00 00
	00		 mov	 ecx, DWORD PTR ?DragonEvent@@3PAVCDragonEvent@@A ; DragonEvent
  00c96	e8 00 00 00 00	 call	 ?GetState@CDragonEvent@@QAEEXZ ; CDragonEvent::GetState
  00c9b	0f b6 c0	 movzx	 eax, al
  00c9e	85 c0		 test	 eax, eax
  00ca0	74 0d		 je	 SHORT $LN148@WndProc

; 592  : 						DragonEvent->End();

  00ca2	8b 0d 00 00 00
	00		 mov	 ecx, DWORD PTR ?DragonEvent@@3PAVCDragonEvent@@A ; DragonEvent
  00ca8	e8 00 00 00 00	 call	 ?End@CDragonEvent@@QAEXXZ ; CDragonEvent::End

; 593  : 					else

  00cad	eb 0b		 jmp	 SHORT $LN147@WndProc
$LN148@WndProc:

; 594  : 						DragonEvent->Start();

  00caf	8b 0d 00 00 00
	00		 mov	 ecx, DWORD PTR ?DragonEvent@@3PAVCDragonEvent@@A ; DragonEvent
  00cb5	e8 00 00 00 00	 call	 ?Start@CDragonEvent@@QAEXXZ ; CDragonEvent::Start
$LN147@WndProc:

; 595  : 					break;

  00cba	e9 7c 02 00 00	 jmp	 $LN171@WndProc
$LN146@WndProc:

; 596  : 				case IDM_STARTOFXMAS_EVENT:
; 597  : 					if ( gXMasEvent != 0 )

  00cbf	83 3d 00 00 00
	00 00		 cmp	 DWORD PTR ?gXMasEvent@@3HA, 0 ; gXMasEvent
  00cc6	74 0c		 je	 SHORT $LN145@WndProc

; 598  : 						gXMasEvent = 0;

  00cc8	c7 05 00 00 00
	00 00 00 00 00	 mov	 DWORD PTR ?gXMasEvent@@3HA, 0 ; gXMasEvent

; 599  : 					else

  00cd2	eb 0a		 jmp	 SHORT $LN144@WndProc
$LN145@WndProc:

; 600  : 						gXMasEvent=1;

  00cd4	c7 05 00 00 00
	00 01 00 00 00	 mov	 DWORD PTR ?gXMasEvent@@3HA, 1 ; gXMasEvent
$LN144@WndProc:

; 601  : 					break;

  00cde	e9 58 02 00 00	 jmp	 $LN171@WndProc
$LN143@WndProc:

; 602  : 				case IDM_FIRECRACKER:
; 603  : 					if ( gFireCrackerEvent != 0 )

  00ce3	83 3d 00 00 00
	00 00		 cmp	 DWORD PTR ?gFireCrackerEvent@@3HA, 0 ; gFireCrackerEvent
  00cea	74 0c		 je	 SHORT $LN142@WndProc

; 604  : 						gFireCrackerEvent = 0;

  00cec	c7 05 00 00 00
	00 00 00 00 00	 mov	 DWORD PTR ?gFireCrackerEvent@@3HA, 0 ; gFireCrackerEvent

; 605  : 					else

  00cf6	eb 0a		 jmp	 SHORT $LN141@WndProc
$LN142@WndProc:

; 606  : 						gFireCrackerEvent=1;

  00cf8	c7 05 00 00 00
	00 01 00 00 00	 mov	 DWORD PTR ?gFireCrackerEvent@@3HA, 1 ; gFireCrackerEvent
$LN141@WndProc:

; 607  : 					break;

  00d02	e9 34 02 00 00	 jmp	 $LN171@WndProc
$LN140@WndProc:

; 608  : 				case IDM_5_MINUTE_CLOSE:
; 609  : 					if ( gCloseMsg == 0 )

  00d07	83 3d 00 00 00
	00 00		 cmp	 DWORD PTR ?gCloseMsg@@3HA, 0 ; gCloseMsg
  00d0e	75 2c		 jne	 SHORT $LN139@WndProc

; 610  : 					{
; 611  : 						gCloseMsgTime = 300;

  00d10	c7 05 00 00 00
	00 2c 01 00 00	 mov	 DWORD PTR ?gCloseMsgTime@@3HA, 300 ; gCloseMsgTime, 0000012cH

; 612  : 						gCloseMsg=1;

  00d1a	c7 05 00 00 00
	00 01 00 00 00	 mov	 DWORD PTR ?gCloseMsg@@3HA, 1 ; gCloseMsg

; 613  : 						AllSendServerMsg( lMsg.Get(MSGGET(4, 104)) );

  00d24	68 68 04 00 00	 push	 1128			; 00000468H
  00d29	b9 00 00 00 00	 mov	 ecx, OFFSET ?lMsg@@3VCMsg@@A ; lMsg
  00d2e	e8 00 00 00 00	 call	 ?Get@CMsg@@QAEPADH@Z	; CMsg::Get
  00d33	50		 push	 eax
  00d34	e8 00 00 00 00	 call	 ?AllSendServerMsg@@YAXPAD@Z ; AllSendServerMsg
  00d39	83 c4 04	 add	 esp, 4
$LN139@WndProc:

; 614  : 					}
; 615  : 					break;

  00d3c	e9 fa 01 00 00	 jmp	 $LN171@WndProc
$LN138@WndProc:

; 616  : 				case IDM_3_MINUTE_CLOSE:
; 617  : 					if ( gCloseMsg == 0 )

  00d41	83 3d 00 00 00
	00 00		 cmp	 DWORD PTR ?gCloseMsg@@3HA, 0 ; gCloseMsg
  00d48	75 2c		 jne	 SHORT $LN137@WndProc

; 618  : 					{
; 619  : 						gCloseMsgTime = 180;

  00d4a	c7 05 00 00 00
	00 b4 00 00 00	 mov	 DWORD PTR ?gCloseMsgTime@@3HA, 180 ; gCloseMsgTime, 000000b4H

; 620  : 						gCloseMsg=2;

  00d54	c7 05 00 00 00
	00 02 00 00 00	 mov	 DWORD PTR ?gCloseMsg@@3HA, 2 ; gCloseMsg

; 621  : 						AllSendServerMsg(lMsg.Get(MSGGET(4, 105)) );

  00d5e	68 69 04 00 00	 push	 1129			; 00000469H
  00d63	b9 00 00 00 00	 mov	 ecx, OFFSET ?lMsg@@3VCMsg@@A ; lMsg
  00d68	e8 00 00 00 00	 call	 ?Get@CMsg@@QAEPADH@Z	; CMsg::Get
  00d6d	50		 push	 eax
  00d6e	e8 00 00 00 00	 call	 ?AllSendServerMsg@@YAXPAD@Z ; AllSendServerMsg
  00d73	83 c4 04	 add	 esp, 4
$LN137@WndProc:

; 622  : 					}
; 623  : 					break;

  00d76	e9 c0 01 00 00	 jmp	 $LN171@WndProc
$LN136@WndProc:

; 624  : 				case IDM_1_MINUTE_CLOSE:
; 625  : 					if ( gCloseMsg == 0 )

  00d7b	83 3d 00 00 00
	00 00		 cmp	 DWORD PTR ?gCloseMsg@@3HA, 0 ; gCloseMsg
  00d82	75 2c		 jne	 SHORT $LN135@WndProc

; 626  : 					{
; 627  : 						gCloseMsgTime = 60;

  00d84	c7 05 00 00 00
	00 3c 00 00 00	 mov	 DWORD PTR ?gCloseMsgTime@@3HA, 60 ; gCloseMsgTime, 0000003cH

; 628  : 						gCloseMsg=3;

  00d8e	c7 05 00 00 00
	00 03 00 00 00	 mov	 DWORD PTR ?gCloseMsg@@3HA, 3 ; gCloseMsg

; 629  : 						AllSendServerMsg(lMsg.Get(MSGGET(4, 106)) );

  00d98	68 6a 04 00 00	 push	 1130			; 0000046aH
  00d9d	b9 00 00 00 00	 mov	 ecx, OFFSET ?lMsg@@3VCMsg@@A ; lMsg
  00da2	e8 00 00 00 00	 call	 ?Get@CMsg@@QAEPADH@Z	; CMsg::Get
  00da7	50		 push	 eax
  00da8	e8 00 00 00 00	 call	 ?AllSendServerMsg@@YAXPAD@Z ; AllSendServerMsg
  00dad	83 c4 04	 add	 esp, 4
$LN135@WndProc:

; 630  : 					}
; 631  : 					break;

  00db0	e9 86 01 00 00	 jmp	 $LN171@WndProc
$LN134@WndProc:

; 632  : 				case IDM_RELOAD_ALL_EVENT:
; 633  : 					ReadEventInfo(MU_EVENT_ALL );

  00db5	6a 00		 push	 0
  00db7	e8 00 00 00 00	 call	 ?ReadEventInfo@@YAXW4MU_EVENT_TYPE@@@Z ; ReadEventInfo
  00dbc	83 c4 04	 add	 esp, 4

; 634  : 					break;

  00dbf	e9 77 01 00 00	 jmp	 $LN171@WndProc
$LN133@WndProc:

; 635  : 				case IDM_RELOAD_DEVILSQUARE:
; 636  : 					ReadEventInfo(MU_EVENT_DEVILSQUARE );

  00dc4	6a 01		 push	 1
  00dc6	e8 00 00 00 00	 call	 ?ReadEventInfo@@YAXW4MU_EVENT_TYPE@@@Z ; ReadEventInfo
  00dcb	83 c4 04	 add	 esp, 4

; 637  : 					break;

  00dce	e9 68 01 00 00	 jmp	 $LN171@WndProc
$LN132@WndProc:

; 638  : 				case IDM_RELOAD_BLOODCASTLE:
; 639  : 					ReadEventInfo(MU_EVENT_BLOODCASTLE );

  00dd3	6a 02		 push	 2
  00dd5	e8 00 00 00 00	 call	 ?ReadEventInfo@@YAXW4MU_EVENT_TYPE@@@Z ; ReadEventInfo
  00dda	83 c4 04	 add	 esp, 4

; 640  : 					break;

  00ddd	e9 59 01 00 00	 jmp	 $LN171@WndProc
$LN131@WndProc:

; 641  : 				case IDM_RELOAD_UNDERWORLD_ATTACK:
; 642  : 					ReadEventInfo(MU_EVENT_ATTACKEVENTTROOP );

  00de2	6a 03		 push	 3
  00de4	e8 00 00 00 00	 call	 ?ReadEventInfo@@YAXW4MU_EVENT_TYPE@@@Z ; ReadEventInfo
  00de9	83 c4 04	 add	 esp, 4

; 643  : 					break;

  00dec	e9 4a 01 00 00	 jmp	 $LN171@WndProc
$LN130@WndProc:

; 644  : 				case IDM_RELOAD_GOLDENTROOP_ATTACK:
; 645  : 					ReadEventInfo(MU_EVENT_GOLDENTROOP );

  00df1	6a 04		 push	 4
  00df3	e8 00 00 00 00	 call	 ?ReadEventInfo@@YAXW4MU_EVENT_TYPE@@@Z ; ReadEventInfo
  00df8	83 c4 04	 add	 esp, 4

; 646  : 					break;

  00dfb	e9 3b 01 00 00	 jmp	 $LN171@WndProc
$LN129@WndProc:

; 647  : 				case IDM_RELOAD_WHITEMAGE_ATTACK:
; 648  : 					ReadEventInfo(MU_EVENT_WHITEMAGETROOP );

  00e00	6a 05		 push	 5
  00e02	e8 00 00 00 00	 call	 ?ReadEventInfo@@YAXW4MU_EVENT_TYPE@@@Z ; ReadEventInfo
  00e07	83 c4 04	 add	 esp, 4

; 649  : 					break;

  00e0a	e9 2c 01 00 00	 jmp	 $LN171@WndProc
$LN128@WndProc:

; 650  : 				case IDM_RELOAD_LOVE_PANGPANG:
; 651  : 					ReadEventInfo(MU_EVENT_LOVEPANGPANG );

  00e0f	6a 06		 push	 6
  00e11	e8 00 00 00 00	 call	 ?ReadEventInfo@@YAXW4MU_EVENT_TYPE@@@Z ; ReadEventInfo
  00e16	83 c4 04	 add	 esp, 4

; 652  : 					break;

  00e19	e9 1d 01 00 00	 jmp	 $LN171@WndProc
$LN127@WndProc:

; 653  : 				case IDM_RELOAD_FIRECRACKER:
; 654  : 					ReadEventInfo(MU_EVENT_FIRECRACKER );

  00e1e	6a 07		 push	 7
  00e20	e8 00 00 00 00	 call	 ?ReadEventInfo@@YAXW4MU_EVENT_TYPE@@@Z ; ReadEventInfo
  00e25	83 c4 04	 add	 esp, 4

; 655  : 					break;

  00e28	e9 0e 01 00 00	 jmp	 $LN171@WndProc
$LN126@WndProc:

; 656  : 				case IDM_RELOAD_XMAS_STAR:
; 657  : 					ReadEventInfo(MU_EVENT_XMASSTAR );

  00e2d	6a 09		 push	 9
  00e2f	e8 00 00 00 00	 call	 ?ReadEventInfo@@YAXW4MU_EVENT_TYPE@@@Z ; ReadEventInfo
  00e34	83 c4 04	 add	 esp, 4

; 658  : 					break;

  00e37	e9 ff 00 00 00	 jmp	 $LN171@WndProc
$LN125@WndProc:

; 659  : 				case IDM_RELOAD_HEART_OF_LOVE:
; 660  : 					ReadEventInfo(MU_EVENT_HEARTOFLOVE );

  00e3c	6a 0a		 push	 10			; 0000000aH
  00e3e	e8 00 00 00 00	 call	 ?ReadEventInfo@@YAXW4MU_EVENT_TYPE@@@Z ; ReadEventInfo
  00e43	83 c4 04	 add	 esp, 4

; 661  : 					break;

  00e46	e9 f0 00 00 00	 jmp	 $LN171@WndProc
$LN124@WndProc:

; 662  : 				case IDM_RELOAD_NPC_SAY_HAPPY_NEW_YEAR:
; 663  : 					ReadEventInfo(MU_EVENT_SAY_HAPPYNEWYEAR );

  00e4b	6a 0b		 push	 11			; 0000000bH
  00e4d	e8 00 00 00 00	 call	 ?ReadEventInfo@@YAXW4MU_EVENT_TYPE@@@Z ; ReadEventInfo
  00e52	83 c4 04	 add	 esp, 4

; 664  : 					break;

  00e55	e9 e1 00 00 00	 jmp	 $LN171@WndProc
$LN123@WndProc:

; 665  : 				case IDM_RELOAD_NPC_SAY_MERRY_XMAS:
; 666  : 					ReadEventInfo(MU_EVENT_SAY_MERRYXMAS );

  00e5a	6a 0c		 push	 12			; 0000000cH
  00e5c	e8 00 00 00 00	 call	 ?ReadEventInfo@@YAXW4MU_EVENT_TYPE@@@Z ; ReadEventInfo
  00e61	83 c4 04	 add	 esp, 4

; 667  : 					break;

  00e64	e9 d2 00 00 00	 jmp	 $LN171@WndProc
$LN122@WndProc:

; 668  : 				case IDM_RELOAD_CHAOSCASTLE:
; 669  : 					ReadEventInfo(MU_EVENT_CHAOSCASTLE );

  00e69	6a 0d		 push	 13			; 0000000dH
  00e6b	e8 00 00 00 00	 call	 ?ReadEventInfo@@YAXW4MU_EVENT_TYPE@@@Z ; ReadEventInfo
  00e70	83 c4 04	 add	 esp, 4

; 670  : 					break;

  00e73	e9 c3 00 00 00	 jmp	 $LN171@WndProc
$LN121@WndProc:

; 671  : 				case IDM_RELOAD_CHRISTMAS_RIBBONBOX:
; 672  : 					ReadEventInfo(MU_EVENT_CHRISTMAS_RIBBONBOX );

  00e78	6a 0e		 push	 14			; 0000000eH
  00e7a	e8 00 00 00 00	 call	 ?ReadEventInfo@@YAXW4MU_EVENT_TYPE@@@Z ; ReadEventInfo
  00e7f	83 c4 04	 add	 esp, 4

; 673  : 					break;

  00e82	e9 b4 00 00 00	 jmp	 $LN171@WndProc
$LN120@WndProc:

; 674  : 				case IDM_RELOAD_VALENTINE_DAY_CHOCOLATE_BOX:
; 675  : 					ReadEventInfo(MU_EVENT_VALENTINESDAY_CHOCOLATEBOX );

  00e87	6a 0f		 push	 15			; 0000000fH
  00e89	e8 00 00 00 00	 call	 ?ReadEventInfo@@YAXW4MU_EVENT_TYPE@@@Z ; ReadEventInfo
  00e8e	83 c4 04	 add	 esp, 4

; 676  : 					break;

  00e91	e9 a5 00 00 00	 jmp	 $LN171@WndProc
$LN119@WndProc:

; 677  : 				case IDM_RELOAD_WHITE_DAY_CANDY_BOX:
; 678  : 					ReadEventInfo(MU_EVENT_WHITEDAY_CANDYBOX  );

  00e96	6a 10		 push	 16			; 00000010H
  00e98	e8 00 00 00 00	 call	 ?ReadEventInfo@@YAXW4MU_EVENT_TYPE@@@Z ; ReadEventInfo
  00e9d	83 c4 04	 add	 esp, 4

; 679  : 					break;

  00ea0	e9 96 00 00 00	 jmp	 $LN171@WndProc
$LN118@WndProc:

; 680  : 				case IDM_RELOAD_ALL_ETC_OPTION:
; 681  : 					ReadGameEtcInfo(MU_ETC_ALL );

  00ea5	6a 00		 push	 0
  00ea7	e8 00 00 00 00	 call	 ?ReadGameEtcInfo@@YAXW4MU_ETC_TYPE@@@Z ; ReadGameEtcInfo
  00eac	83 c4 04	 add	 esp, 4

; 682  : 					break;

  00eaf	e9 87 00 00 00	 jmp	 $LN171@WndProc
$LN117@WndProc:

; 683  : 				case IDM_RELOAD_CREATE_CHARACTER:
; 684  : 					ReadGameEtcInfo(MU_ETC_CREATECHARACTER );

  00eb4	6a 01		 push	 1
  00eb6	e8 00 00 00 00	 call	 ?ReadGameEtcInfo@@YAXW4MU_ETC_TYPE@@@Z ; ReadGameEtcInfo
  00ebb	83 c4 04	 add	 esp, 4

; 685  : 					break;

  00ebe	eb 7b		 jmp	 SHORT $LN171@WndProc
$LN116@WndProc:

; 686  : 				case IDM_RELOAD_GUILD:
; 687  : 					ReadGameEtcInfo(MU_ETC_GUILD );

  00ec0	6a 02		 push	 2
  00ec2	e8 00 00 00 00	 call	 ?ReadGameEtcInfo@@YAXW4MU_ETC_TYPE@@@Z ; ReadGameEtcInfo
  00ec7	83 c4 04	 add	 esp, 4

; 688  : 					break;

  00eca	eb 6f		 jmp	 SHORT $LN171@WndProc
$LN115@WndProc:

; 689  : 				case IDM_RELOAD_TRADE:
; 690  : 					ReadGameEtcInfo(MU_ETC_TRADE );

  00ecc	6a 03		 push	 3
  00ece	e8 00 00 00 00	 call	 ?ReadGameEtcInfo@@YAXW4MU_ETC_TYPE@@@Z ; ReadGameEtcInfo
  00ed3	83 c4 04	 add	 esp, 4

; 691  : 					break;

  00ed6	eb 63		 jmp	 SHORT $LN171@WndProc
$LN114@WndProc:

; 692  : 				case IDM_RELOAD_CHAOSBOX:
; 693  : 					ReadGameEtcInfo(MU_ETC_USECHAOSBOX );

  00ed8	6a 04		 push	 4
  00eda	e8 00 00 00 00	 call	 ?ReadGameEtcInfo@@YAXW4MU_ETC_TYPE@@@Z ; ReadGameEtcInfo
  00edf	83 c4 04	 add	 esp, 4

; 694  : 					break;

  00ee2	eb 57		 jmp	 SHORT $LN171@WndProc
$LN113@WndProc:

; 695  : 				case IDM_RELOAD_PERSONAL_SHOP:
; 696  : 					ReadGameEtcInfo(MU_ETC_PERSONALSHOP );

  00ee4	6a 05		 push	 5
  00ee6	e8 00 00 00 00	 call	 ?ReadGameEtcInfo@@YAXW4MU_ETC_TYPE@@@Z ; ReadGameEtcInfo
  00eeb	83 c4 04	 add	 esp, 4

; 697  : 					break;

  00eee	eb 4b		 jmp	 SHORT $LN171@WndProc
$LN112@WndProc:

; 698  : 				case IDM_RELOAD_PK_ITEM_DROP:
; 699  : 					ReadGameEtcInfo(MU_ETC_PKITEMDROP );

  00ef0	6a 06		 push	 6
  00ef2	e8 00 00 00 00	 call	 ?ReadGameEtcInfo@@YAXW4MU_ETC_TYPE@@@Z ; ReadGameEtcInfo
  00ef7	83 c4 04	 add	 esp, 4

; 700  : 					break;

  00efa	eb 3f		 jmp	 SHORT $LN171@WndProc
$LN111@WndProc:

; 701  : 				case IDM_RELOAD_ITEM_DROP_RATE:
; 702  : 					ReadGameEtcInfo(MU_ETC_ITEMDROPRATE );

  00efc	6a 07		 push	 7
  00efe	e8 00 00 00 00	 call	 ?ReadGameEtcInfo@@YAXW4MU_ETC_TYPE@@@Z ; ReadGameEtcInfo
  00f03	83 c4 04	 add	 esp, 4

; 703  : 					break;

  00f06	eb 33		 jmp	 SHORT $LN171@WndProc
$LN110@WndProc:

; 704  : 				case IDM_RELOAD_SPEEDHACK:
; 705  : 					ReadGameEtcInfo(MU_ETC_SPEEDHACK );

  00f08	6a 08		 push	 8
  00f0a	e8 00 00 00 00	 call	 ?ReadGameEtcInfo@@YAXW4MU_ETC_TYPE@@@Z ; ReadGameEtcInfo
  00f0f	83 c4 04	 add	 esp, 4

; 706  : 					break;

  00f12	eb 27		 jmp	 SHORT $LN171@WndProc
$LN109@WndProc:

; 707  : 				case IDM_RELOAD_GAMEGUARD_CHECKSUM_CHECK:
; 708  : 					ReadGameEtcInfo(MU_ETC_GAMEGUARD );

  00f14	6a 09		 push	 9
  00f16	e8 00 00 00 00	 call	 ?ReadGameEtcInfo@@YAXW4MU_ETC_TYPE@@@Z ; ReadGameEtcInfo
  00f1b	83 c4 04	 add	 esp, 4

; 709  : 					break;

  00f1e	eb 1b		 jmp	 SHORT $LN171@WndProc
$LN108@WndProc:

; 710  : 				default:
; 711  : 					return DefWindowProc(hWnd, message, wParam, lParam);

  00f20	8b 45 14	 mov	 eax, DWORD PTR _lParam$[ebp]
  00f23	50		 push	 eax
  00f24	8b 4d 10	 mov	 ecx, DWORD PTR _wParam$[ebp]
  00f27	51		 push	 ecx
  00f28	8b 55 0c	 mov	 edx, DWORD PTR _message$[ebp]
  00f2b	52		 push	 edx
  00f2c	8b 45 08	 mov	 eax, DWORD PTR _hWnd$[ebp]
  00f2f	50		 push	 eax
  00f30	ff 15 00 00 00
	00		 call	 DWORD PTR __imp__DefWindowProcA@16
  00f36	e9 62 0a 00 00	 jmp	 $LN178@WndProc
$LN171@WndProc:

; 712  : 					break;
; 713  : 			}
; 714  : 			break;

  00f3b	e9 5b 0a 00 00	 jmp	 $LN175@WndProc
$LN107@WndProc:

; 715  : 		case WM_GM_SERVER_MSG_PROC:
; 716  : 			GMServerMsgProc(wParam, lParam);

  00f40	8b 45 14	 mov	 eax, DWORD PTR _lParam$[ebp]
  00f43	50		 push	 eax
  00f44	8b 4d 10	 mov	 ecx, DWORD PTR _wParam$[ebp]
  00f47	51		 push	 ecx
  00f48	e8 00 00 00 00	 call	 ?GMServerMsgProc@@YAXIJ@Z ; GMServerMsgProc
  00f4d	83 c4 08	 add	 esp, 8

; 717  : 			break;

  00f50	e9 46 0a 00 00	 jmp	 $LN175@WndProc
$LN106@WndProc:

; 718  : 		case WM_GM_CLIENT_MSG_PROC:
; 719  : 			{
; 720  : 				int wp = wParam;

  00f55	8b 45 10	 mov	 eax, DWORD PTR _wParam$[ebp]
  00f58	89 45 e0	 mov	 DWORD PTR _wp$249246[ebp], eax

; 721  : 				int lp = lParam;

  00f5b	8b 45 14	 mov	 eax, DWORD PTR _lParam$[ebp]
  00f5e	89 45 dc	 mov	 DWORD PTR _lp$249247[ebp], eax

; 722  : 				GMClientMsgProc(wParam, lParam);

  00f61	8b 45 14	 mov	 eax, DWORD PTR _lParam$[ebp]
  00f64	50		 push	 eax
  00f65	8b 4d 10	 mov	 ecx, DWORD PTR _wParam$[ebp]
  00f68	51		 push	 ecx
  00f69	e8 00 00 00 00	 call	 ?GMClientMsgProc@@YAXIJ@Z ; GMClientMsgProc
  00f6e	83 c4 08	 add	 esp, 8

; 723  : 			}
; 724  : 			break;

  00f71	e9 25 0a 00 00	 jmp	 $LN175@WndProc
$LN105@WndProc:

; 725  : 		case WM_GM_JOIN_CLIENT_MSG_PROC:
; 726  : 			GMJoinClientMsgProc(wParam, lParam);

  00f76	8b 45 14	 mov	 eax, DWORD PTR _lParam$[ebp]
  00f79	50		 push	 eax
  00f7a	8b 4d 10	 mov	 ecx, DWORD PTR _wParam$[ebp]
  00f7d	51		 push	 ecx
  00f7e	e8 00 00 00 00	 call	 ?GMJoinClientMsgProc@@YAXIJ@Z ; GMJoinClientMsgProc
  00f83	83 c4 08	 add	 esp, 8

; 727  : 			break;

  00f86	e9 10 0a 00 00	 jmp	 $LN175@WndProc
$LN104@WndProc:

; 728  : 		case WM_GM_RANKING_CLIENT_MSG_PROC:
; 729  : 			GMRankingClientMsgProc(wParam, lParam);

  00f8b	8b 45 14	 mov	 eax, DWORD PTR _lParam$[ebp]
  00f8e	50		 push	 eax
  00f8f	8b 4d 10	 mov	 ecx, DWORD PTR _wParam$[ebp]
  00f92	51		 push	 ecx
  00f93	e8 00 00 00 00	 call	 ?GMRankingClientMsgProc@@YAXIJ@Z ; GMRankingClientMsgProc
  00f98	83 c4 08	 add	 esp, 8

; 730  : 			break;

  00f9b	e9 fb 09 00 00	 jmp	 $LN175@WndProc
$LN103@WndProc:

; 731  : 		case WM_GM_EVENTCHIP_CLIENT_MSG_PROC:
; 732  : 			GMEventChipClientMsgProc(wParam, lParam);

  00fa0	8b 45 14	 mov	 eax, DWORD PTR _lParam$[ebp]
  00fa3	50		 push	 eax
  00fa4	8b 4d 10	 mov	 ecx, DWORD PTR _wParam$[ebp]
  00fa7	51		 push	 ecx
  00fa8	e8 00 00 00 00	 call	 ?GMEventChipClientMsgProc@@YAXIJ@Z ; GMEventChipClientMsgProc
  00fad	83 c4 08	 add	 esp, 8

; 733  : 			break;

  00fb0	e9 e6 09 00 00	 jmp	 $LN175@WndProc
$LN102@WndProc:

; 734  : 		case WM_GM_DATA1_CLIENT_MSG_PROC:
; 735  : 			cDBSMng.MsgProc(0, wParam, lParam);

  00fb5	8b 45 14	 mov	 eax, DWORD PTR _lParam$[ebp]
  00fb8	50		 push	 eax
  00fb9	8b 4d 10	 mov	 ecx, DWORD PTR _wParam$[ebp]
  00fbc	51		 push	 ecx
  00fbd	6a 00		 push	 0
  00fbf	b9 00 00 00 00	 mov	 ecx, OFFSET ?cDBSMng@@3VDBSockMng@@A ; cDBSMng
  00fc4	e8 00 00 00 00	 call	 ?MsgProc@DBSockMng@@QAEHHIJ@Z ; DBSockMng::MsgProc

; 736  : 			break;

  00fc9	e9 cd 09 00 00	 jmp	 $LN175@WndProc
$LN101@WndProc:

; 737  : 		case WM_GM_DATA2_CLIENT_MSG_PROC:
; 738  : 			cDBSMng.MsgProc(1, wParam, lParam);

  00fce	8b 45 14	 mov	 eax, DWORD PTR _lParam$[ebp]
  00fd1	50		 push	 eax
  00fd2	8b 4d 10	 mov	 ecx, DWORD PTR _wParam$[ebp]
  00fd5	51		 push	 ecx
  00fd6	6a 01		 push	 1
  00fd8	b9 00 00 00 00	 mov	 ecx, OFFSET ?cDBSMng@@3VDBSockMng@@A ; cDBSMng
  00fdd	e8 00 00 00 00	 call	 ?MsgProc@DBSockMng@@QAEHHIJ@Z ; DBSockMng::MsgProc

; 739  : 			break;

  00fe2	e9 b4 09 00 00	 jmp	 $LN175@WndProc
$LN100@WndProc:

; 740  : 		case WM_GM_EXDATA_CLIENT_MSG_PROC:
; 741  : 			ExDataClientMsgProc(wParam, lParam);

  00fe7	8b 45 14	 mov	 eax, DWORD PTR _lParam$[ebp]
  00fea	50		 push	 eax
  00feb	8b 4d 10	 mov	 ecx, DWORD PTR _wParam$[ebp]
  00fee	51		 push	 ecx
  00fef	e8 00 00 00 00	 call	 ?ExDataClientMsgProc@@YAXIJ@Z ; ExDataClientMsgProc
  00ff4	83 c4 08	 add	 esp, 8

; 742  : 			break;

  00ff7	e9 9f 09 00 00	 jmp	 $LN175@WndProc
$LN99@WndProc:

; 743  : 		case WM_START_SERVER:
; 744  : 			if ( gServerReady == 2 )

  00ffc	83 3d 00 00 00
	00 02		 cmp	 DWORD PTR ?gServerReady@@3HA, 2 ; gServerReady
  01003	75 05		 jne	 SHORT $LN98@WndProc

; 745  : 				GameServerStart();

  01005	e8 00 00 00 00	 call	 ?GameServerStart@@YAHXZ	; GameServerStart
$LN98@WndProc:

; 746  : 			break;

  0100a	e9 8c 09 00 00	 jmp	 $LN175@WndProc
$LN97@WndProc:

; 747  : 		case WM_TIMER:
; 748  : 			switch ( wParam )

  0100f	8b 45 10	 mov	 eax, DWORD PTR _wParam$[ebp]
  01012	89 85 4c fe ff
	ff		 mov	 DWORD PTR tv246[ebp], eax
  01018	81 bd 4c fe ff
	ff e8 03 00 00	 cmp	 DWORD PTR tv246[ebp], 1000 ; 000003e8H
  01022	77 3b		 ja	 SHORT $LN182@WndProc
  01024	81 bd 4c fe ff
	ff e8 03 00 00	 cmp	 DWORD PTR tv246[ebp], 1000 ; 000003e8H
  0102e	0f 84 3b 03 00
	00		 je	 $LN61@WndProc
  01034	83 bd 4c fe ff
	ff 64		 cmp	 DWORD PTR tv246[ebp], 100 ; 00000064H
  0103b	74 69		 je	 SHORT $LN93@WndProc
  0103d	83 bd 4c fe ff
	ff 65		 cmp	 DWORD PTR tv246[ebp], 101 ; 00000065H
  01044	0f 84 cf 01 00
	00		 je	 $LN85@WndProc
  0104a	81 bd 4c fe ff
	ff f4 01 00 00	 cmp	 DWORD PTR tv246[ebp], 500 ; 000001f4H
  01054	0f 84 b5 01 00
	00		 je	 $LN86@WndProc
  0105a	e9 c1 07 00 00	 jmp	 $LN95@WndProc
$LN182@WndProc:
  0105f	8b 8d 4c fe ff
	ff		 mov	 ecx, DWORD PTR tv246[ebp]
  01065	81 e9 e9 03 00
	00		 sub	 ecx, 1001		; 000003e9H
  0106b	89 8d 4c fe ff
	ff		 mov	 DWORD PTR tv246[ebp], ecx
  01071	83 bd 4c fe ff
	ff 10		 cmp	 DWORD PTR tv246[ebp], 16 ; 00000010H
  01078	0f 87 a2 07 00
	00		 ja	 $LN95@WndProc
  0107e	8b 95 4c fe ff
	ff		 mov	 edx, DWORD PTR tv246[ebp]
  01084	ff 24 95 00 00
	00 00		 jmp	 DWORD PTR $LN190@WndProc[edx*4]
$LN94@WndProc:

; 749  : 			{
; 750  : 				case WM_GUILD_LIST_REQUEST:
; 751  : 					DGGuildListRequest();

  0108b	e8 00 00 00 00	 call	 ?DGGuildListRequest@@YAXXZ ; DGGuildListRequest

; 752  : 					KillTimer(ghWnd, WM_GUILD_LIST_REQUEST);

  01090	68 f0 03 00 00	 push	 1008			; 000003f0H
  01095	a1 00 00 00 00	 mov	 eax, DWORD PTR ?ghWnd@@3PAUHWND__@@A ; ghWnd
  0109a	50		 push	 eax
  0109b	ff 15 00 00 00
	00		 call	 DWORD PTR __imp__KillTimer@8

; 753  : 					break;

  010a1	e9 7a 07 00 00	 jmp	 $LN95@WndProc
$LN93@WndProc:

; 754  : 				case WM_LOG_PAINT:
; 755  : 					{
; 756  : 						RECT rect;
; 757  : 						HDC hdc = GetDC(hWnd);

  010a6	8b 45 08	 mov	 eax, DWORD PTR _hWnd$[ebp]
  010a9	50		 push	 eax
  010aa	ff 15 00 00 00
	00		 call	 DWORD PTR __imp__GetDC@4
  010b0	89 45 c8	 mov	 DWORD PTR _hdc$249264[ebp], eax

; 758  : 						GetClientRect(hWnd, &rect);	

  010b3	8d 45 cc	 lea	 eax, DWORD PTR _rect$249263[ebp]
  010b6	50		 push	 eax
  010b7	8b 4d 08	 mov	 ecx, DWORD PTR _hWnd$[ebp]
  010ba	51		 push	 ecx
  010bb	ff 15 00 00 00
	00		 call	 DWORD PTR __imp__GetClientRect@8

; 759  : #if(NEW_WINDOW==1)
; 760  : 						FillRect(hdc, &rect, hBushFont); 

  010c1	a1 00 00 00 00	 mov	 eax, DWORD PTR ?hBushFont@@3PAUHBRUSH__@@A ; hBushFont
  010c6	50		 push	 eax
  010c7	8d 4d cc	 lea	 ecx, DWORD PTR _rect$249263[ebp]
  010ca	51		 push	 ecx
  010cb	8b 55 c8	 mov	 edx, DWORD PTR _hdc$249264[ebp]
  010ce	52		 push	 edx
  010cf	ff 15 00 00 00
	00		 call	 DWORD PTR __imp__FillRect@12

; 761  : #else
; 762  : 						FillRect(hdc, &rect, (HBRUSH)GetStockObject(0)); 
; 763  : #endif
; 764  : 						
; 765  : 						ReleaseDC(hWnd, hdc);

  010d5	8b 45 c8	 mov	 eax, DWORD PTR _hdc$249264[ebp]
  010d8	50		 push	 eax
  010d9	8b 4d 08	 mov	 ecx, DWORD PTR _hWnd$[ebp]
  010dc	51		 push	 ecx
  010dd	ff 15 00 00 00
	00		 call	 DWORD PTR __imp__ReleaseDC@8

; 766  : 
; 767  : 						if ( gCurPaintType == 0)

  010e3	83 3d 00 00 00
	00 00		 cmp	 DWORD PTR ?gCurPaintType@@3HA, 0 ; gCurPaintType
  010ea	75 16		 jne	 SHORT $LN92@WndProc

; 768  : 						{
; 769  : 							if ( LogTextPaint != NULL )

  010ec	83 3d 00 00 00
	00 00		 cmp	 DWORD PTR ?LogTextPaint@@3P6AXPAUHWND__@@@ZA, 0 ; LogTextPaint
  010f3	74 0d		 je	 SHORT $LN92@WndProc

; 770  : 							{
; 771  : 								LogTextPaint(hWnd);

  010f5	8b 45 08	 mov	 eax, DWORD PTR _hWnd$[ebp]
  010f8	50		 push	 eax
  010f9	ff 15 00 00 00
	00		 call	 DWORD PTR ?LogTextPaint@@3P6AXPAUHWND__@@@ZA ; LogTextPaint
  010ff	83 c4 04	 add	 esp, 4
$LN92@WndProc:

; 772  : 							}
; 773  : 						}
; 774  : 						
; 775  : 						gObjViewportPaint(hWnd, gCurPaintPlayer);

  01102	0f b7 05 00 00
	00 00		 movzx	 eax, WORD PTR ?gCurPaintPlayer@@3HA
  01109	50		 push	 eax
  0110a	8b 4d 08	 mov	 ecx, DWORD PTR _hWnd$[ebp]
  0110d	51		 push	 ecx
  0110e	e8 00 00 00 00	 call	 ?gObjViewportPaint@@YAXPAUHWND__@@F@Z ; gObjViewportPaint
  01113	83 c4 08	 add	 esp, 8

; 776  : 						g_ServerInfoDisplayer.Run(hWnd);

  01116	8b 45 08	 mov	 eax, DWORD PTR _hWnd$[ebp]
  01119	50		 push	 eax
  0111a	b9 00 00 00 00	 mov	 ecx, OFFSET ?g_ServerInfoDisplayer@@3VTServerInfoDisplayer@@A ; g_ServerInfoDisplayer
  0111f	e8 00 00 00 00	 call	 ?Run@TServerInfoDisplayer@@QAEXPAUHWND__@@@Z ; TServerInfoDisplayer::Run

; 777  : 						GJNotifyMaxUserCount();

  01124	e8 00 00 00 00	 call	 ?GJNotifyMaxUserCount@@YAXXZ ; GJNotifyMaxUserCount

; 778  : 
; 779  : 						#if(ENABLE_OPTIMIZATION)
; 780  : 						g_Optimization.Run();
; 781  : 						#endif
; 782  : 					}
; 783  : 					break;

  01129	e9 f2 06 00 00	 jmp	 $LN95@WndProc
$LN90@WndProc:

; 784  : 				case WM_MONSTER_AND_MSG_PROC:
; 785  : 					MonsterAndMsgProc();

  0112e	e8 00 00 00 00	 call	 ?MonsterAndMsgProc@@YAXXZ ; MonsterAndMsgProc

; 786  : 					break;

  01133	e9 e8 06 00 00	 jmp	 $LN95@WndProc
$LN89@WndProc:

; 787  : 				case WM_MOVE_MONSTER_PROC:
; 788  : 					MoveMonsterProc();

  01138	e8 00 00 00 00	 call	 ?MoveMonsterProc@@YAXXZ	; MoveMonsterProc

; 789  : //#if(GS_CASTLE==0)
; 790  : 					g_Kanturu.UserMonsterCountCheck();

  0113d	b9 00 00 00 00	 mov	 ecx, OFFSET ?g_Kanturu@@3VCKanturu@@A ; g_Kanturu
  01142	e8 00 00 00 00	 call	 ?UserMonsterCountCheck@CKanturu@@QAEXXZ ; CKanturu::UserMonsterCountCheck

; 791  : //#endif
; 792  : 					break;

  01147	e9 d4 06 00 00	 jmp	 $LN95@WndProc
$LN88@WndProc:

; 793  : 				case WM_EVENT_RUN_PROC:
; 794  : 					g_BloodCastle.Run();

  0114c	b9 00 00 00 00	 mov	 ecx, OFFSET ?g_BloodCastle@@3VCBloodCastle@@A ; g_BloodCastle
  01151	e8 00 00 00 00	 call	 ?Run@CBloodCastle@@QAEXXZ ; CBloodCastle::Run

; 795  : 					g_RingAttackEvent.Run();

  01156	b9 00 00 00 00	 mov	 ecx, OFFSET ?g_RingAttackEvent@@3VCRingAttackEvent@@A ; g_RingAttackEvent
  0115b	e8 00 00 00 00	 call	 ?Run@CRingAttackEvent@@QAEXXZ ; CRingAttackEvent::Run

; 796  : 					g_ChaosCastle.Run();

  01160	b9 00 00 00 00	 mov	 ecx, OFFSET ?g_ChaosCastle@@3VCChaosCastle@@A ; g_ChaosCastle
  01165	e8 00 00 00 00	 call	 ?Run@CChaosCastle@@QAEXXZ ; CChaosCastle::Run

; 797  : //#if (GS_CASTLE==1)
; 798  : 					g_CastleSiege.Run();

  0116a	b9 00 00 00 00	 mov	 ecx, OFFSET ?g_CastleSiege@@3VCCastleSiege@@A ; g_CastleSiege
  0116f	e8 00 00 00 00	 call	 ?Run@CCastleSiege@@QAEXXZ ; CCastleSiege::Run

; 799  : 					g_CastleDeepEvent.Run();

  01174	b9 00 00 00 00	 mov	 ecx, OFFSET ?g_CastleDeepEvent@@3VCCastleDeepEvent@@A ; g_CastleDeepEvent
  01179	e8 00 00 00 00	 call	 ?Run@CCastleDeepEvent@@QAEXXZ ; CCastleDeepEvent::Run

; 800  : //#endif
; 801  : 					g_CsNPC_Weapon.WeaponAttackProc();

  0117e	b9 00 00 00 00	 mov	 ecx, OFFSET ?g_CsNPC_Weapon@@3VCWeapon@@A ; g_CsNPC_Weapon
  01183	e8 00 00 00 00	 call	 ?WeaponAttackProc@CWeapon@@QAEXXZ ; CWeapon::WeaponAttackProc

; 802  : //#if (GS_CASTLE==1)
; 803  : 					g_Crywolf.Run();

  01188	b9 00 00 00 00	 mov	 ecx, OFFSET ?g_Crywolf@@3VCCrywolf@@A ; g_Crywolf
  0118d	e8 00 00 00 00	 call	 ?Run@CCrywolf@@QAEXXZ	; CCrywolf::Run

; 804  : //#else
; 805  : 					g_Kanturu.Run();

  01192	b9 00 00 00 00	 mov	 ecx, OFFSET ?g_Kanturu@@3VCKanturu@@A ; g_Kanturu
  01197	e8 00 00 00 00	 call	 ?Run@CKanturu@@QAEXXZ	; CKanturu::Run

; 806  : //#endif
; 807  : #ifdef OLDCASHSHOP
; 808  : 					g_CashShop.CheckShopServerConnectState();
; 809  : #endif
; 810  : 					//gs-cs 56 one new??
; 811  : 					g_IllusionTempleEvent.Run();

  0119c	b9 00 00 00 00	 mov	 ecx, OFFSET ?g_IllusionTempleEvent@@3VCIllusionTempleEvent@@A ; g_IllusionTempleEvent
  011a1	e8 00 00 00 00	 call	 ?Run@CIllusionTempleEvent@@QAEXXZ ; CIllusionTempleEvent::Run

; 812  : 					//season4.5 add-on
; 813  : 					g_Raklion.Run();

  011a6	b9 00 00 00 00	 mov	 ecx, OFFSET ?g_Raklion@@3VCRaklion@@A ; g_Raklion
  011ab	e8 00 00 00 00	 call	 ?Run@CRaklion@@QAEXXZ	; CRaklion::Run

; 814  : 					g_XMasAttackEvent.Run();

  011b0	b9 00 00 00 00	 mov	 ecx, OFFSET ?g_XMasAttackEvent@@3VCXMasAttackEvent@@A ; g_XMasAttackEvent
  011b5	e8 00 00 00 00	 call	 ?Run@CXMasAttackEvent@@QAEXXZ ; CXMasAttackEvent::Run

; 815  : 					g_DuelManager.Run();

  011ba	b9 00 00 00 00	 mov	 ecx, OFFSET ?g_DuelManager@@3VCDuelManager@@A ; g_DuelManager
  011bf	e8 00 00 00 00	 call	 ?Run@CDuelManager@@QAEXXZ ; CDuelManager::Run

; 816  : 					g_DoppelGanger.Run();	//Season 5 DoppelGanger

  011c4	b9 00 00 00 00	 mov	 ecx, OFFSET ?g_DoppelGanger@@3VCDoppelGanger@@A ; g_DoppelGanger
  011c9	e8 00 00 00 00	 call	 ?Run@CDoppelGanger@@QAEXXZ ; CDoppelGanger::Run

; 817  : 				
; 818  : #ifdef IMPERIAL_CONFLICT_OLD
; 819  : 					g_Imperial.Run();		//Season 5 ImperialFort

  011ce	b9 00 00 00 00	 mov	 ecx, OFFSET ?g_Imperial@@3VCImperial@@A ; g_Imperial
  011d3	e8 00 00 00 00	 call	 ?Run@CImperial@@QAEXXZ	; CImperial::Run

; 820  : #endif
; 821  : #ifdef IMPERIAL_CONFLICT_NEW
; 822  : 	g_ImperialGuardian.Run();
; 823  : #endif
; 824  : #if(EVENT_DUNGEON_SIEGE)
; 825  : 					g_DungeonSiege.Run();

  011d8	b9 00 00 00 00	 mov	 ecx, OFFSET ?g_DungeonSiege@@3VCDungeonSiege@@A ; g_DungeonSiege
  011dd	e8 00 00 00 00	 call	 ?Run@CDungeonSiege@@QAEXXZ ; CDungeonSiege::Run

; 826  : #endif
; 827  : #if(EVENT_TEAM_VS_TEAM==TRUE)
; 828  : 					g_TeamVsTeam.Run();

  011e2	b9 00 00 00 00	 mov	 ecx, OFFSET ?g_TeamVsTeam@@3VCTeamVsTeam@@A ; g_TeamVsTeam
  011e7	e8 00 00 00 00	 call	 ?Run@CTeamVsTeam@@QAEXXZ ; CTeamVsTeam::Run

; 829  : #endif
; 830  : #if(EVENT_CARNAGE)
; 831  : 					g_CarnageEvent.Run();

  011ec	b9 00 00 00 00	 mov	 ecx, OFFSET ?g_CarnageEvent@@3VCCarnageEvent@@A ; g_CarnageEvent
  011f1	e8 00 00 00 00	 call	 ?Run@CCarnageEvent@@QAEXXZ ; CCarnageEvent::Run

; 832  : #endif
; 833  : 					#if(DEV_MONSTERTIME)
; 834  : 					g_MonsterTime.Run();

  011f6	b9 00 00 00 00	 mov	 ecx, OFFSET ?g_MonsterTime@@3VCMonsterTime@@A ; g_MonsterTime
  011fb	e8 00 00 00 00	 call	 ?Run@CMonsterTime@@QAEXXZ ; CMonsterTime::Run

; 835  : 					#endif
; 836  : 					break;

  01200	e9 1b 06 00 00	 jmp	 $LN95@WndProc
$LN87@WndProc:

; 837  : 				case WM_AI_MONSTER_MOVE_PROC:
; 838  : 					TMonsterAI::MonsterMoveProc();

  01205	e8 00 00 00 00	 call	 ?MonsterMoveProc@TMonsterAI@@SAXXZ ; TMonsterAI::MonsterMoveProc

; 839  : 					break;

  0120a	e9 11 06 00 00	 jmp	 $LN95@WndProc
$LN86@WndProc:

; 840  : 				case WM_AI_MONSTER_PROC:
; 841  : 					TMonsterAI::MonsterAIProc();

  0120f	e8 00 00 00 00	 call	 ?MonsterAIProc@TMonsterAI@@SAXXZ ; TMonsterAI::MonsterAIProc

; 842  : 					break;

  01214	e9 07 06 00 00	 jmp	 $LN95@WndProc
$LN85@WndProc:

; 843  : 				case WM_FIRST_MSG_PROCESS:
; 844  : 					{
; 845  : 						for ( int n=0;n<OBJMAX;n++)

  01219	c7 45 c4 00 00
	00 00		 mov	 DWORD PTR _n$249273[ebp], 0
  01220	eb 09		 jmp	 SHORT $LN84@WndProc
$LN83@WndProc:
  01222	8b 45 c4	 mov	 eax, DWORD PTR _n$249273[ebp]
  01225	83 c0 01	 add	 eax, 1
  01228	89 45 c4	 mov	 DWORD PTR _n$249273[ebp], eax
$LN84@WndProc:
  0122b	81 7d c4 98 3a
	00 00		 cmp	 DWORD PTR _n$249273[ebp], 15000 ; 00003a98H
  01232	7d 0e		 jge	 SHORT $LN82@WndProc

; 846  : 						{
; 847  : 							gObjStateSetCreate(n);

  01234	8b 45 c4	 mov	 eax, DWORD PTR _n$249273[ebp]
  01237	50		 push	 eax
  01238	e8 00 00 00 00	 call	 ?gObjStateSetCreate@@YAXH@Z ; gObjStateSetCreate
  0123d	83 c4 04	 add	 esp, 4

; 848  : 						}

  01240	eb e0		 jmp	 SHORT $LN83@WndProc
$LN82@WndProc:

; 849  : 						for (int  n=0;n<OBJMAX;n++)

  01242	c7 45 c0 00 00
	00 00		 mov	 DWORD PTR _n$249277[ebp], 0
  01249	eb 09		 jmp	 SHORT $LN81@WndProc
$LN80@WndProc:
  0124b	8b 45 c0	 mov	 eax, DWORD PTR _n$249277[ebp]
  0124e	83 c0 01	 add	 eax, 1
  01251	89 45 c0	 mov	 DWORD PTR _n$249277[ebp], eax
$LN81@WndProc:
  01254	81 7d c0 98 3a
	00 00		 cmp	 DWORD PTR _n$249277[ebp], 15000 ; 00003a98H
  0125b	7d 0f		 jge	 SHORT $LN79@WndProc

; 850  : 						{
; 851  : 							gObjViewportListDestroy(n);

  0125d	0f b7 45 c0	 movzx	 eax, WORD PTR _n$249277[ebp]
  01261	50		 push	 eax
  01262	e8 00 00 00 00	 call	 ?gObjViewportListDestroy@@YAXF@Z ; gObjViewportListDestroy
  01267	83 c4 04	 add	 esp, 4

; 852  : 						}

  0126a	eb df		 jmp	 SHORT $LN80@WndProc
$LN79@WndProc:

; 853  : 						for (int  n=0;n<OBJMAX;n++)

  0126c	c7 45 bc 00 00
	00 00		 mov	 DWORD PTR _n$249281[ebp], 0
  01273	eb 09		 jmp	 SHORT $LN78@WndProc
$LN77@WndProc:
  01275	8b 45 bc	 mov	 eax, DWORD PTR _n$249281[ebp]
  01278	83 c0 01	 add	 eax, 1
  0127b	89 45 bc	 mov	 DWORD PTR _n$249281[ebp], eax
$LN78@WndProc:
  0127e	81 7d bc 98 3a
	00 00		 cmp	 DWORD PTR _n$249281[ebp], 15000 ; 00003a98H
  01285	7d 0f		 jge	 SHORT $LN76@WndProc

; 854  : 						{
; 855  : 							gObjViewportListCreate(n);

  01287	0f b7 45 bc	 movzx	 eax, WORD PTR _n$249281[ebp]
  0128b	50		 push	 eax
  0128c	e8 00 00 00 00	 call	 ?gObjViewportListCreate@@YAXF@Z ; gObjViewportListCreate
  01291	83 c4 04	 add	 esp, 4

; 856  : 						}

  01294	eb df		 jmp	 SHORT $LN77@WndProc
$LN76@WndProc:

; 857  : 						for (int n=0;n<OBJMAX;n++)

  01296	c7 45 b8 00 00
	00 00		 mov	 DWORD PTR _n$249285[ebp], 0
  0129d	eb 09		 jmp	 SHORT $LN75@WndProc
$LN74@WndProc:
  0129f	8b 45 b8	 mov	 eax, DWORD PTR _n$249285[ebp]
  012a2	83 c0 01	 add	 eax, 1
  012a5	89 45 b8	 mov	 DWORD PTR _n$249285[ebp], eax
$LN75@WndProc:
  012a8	81 7d b8 98 3a
	00 00		 cmp	 DWORD PTR _n$249285[ebp], 15000 ; 00003a98H
  012af	7d 0f		 jge	 SHORT $LN73@WndProc

; 858  : 						{
; 859  : 							gObjViewportListProtocol(n);

  012b1	0f b7 45 b8	 movzx	 eax, WORD PTR _n$249285[ebp]
  012b5	50		 push	 eax
  012b6	e8 00 00 00 00	 call	 ?gObjViewportListProtocol@@YAXF@Z ; gObjViewportListProtocol
  012bb	83 c4 04	 add	 esp, 4

; 860  : 						}

  012be	eb df		 jmp	 SHORT $LN74@WndProc
$LN73@WndProc:

; 861  : 
; 862  : 						if ( gDoPShopOpen != FALSE )

  012c0	83 3d 00 00 00
	00 00		 cmp	 DWORD PTR ?gDoPShopOpen@@3HA, 0 ; gDoPShopOpen
  012c7	74 6e		 je	 SHORT $LN72@WndProc

; 863  : 						{
; 864  : 							for (int n= OBJ_STARTUSERINDEX;n<OBJMAX;n++)

  012c9	c7 45 b4 b0 36
	00 00		 mov	 DWORD PTR _n$249290[ebp], 14000 ; 000036b0H
  012d0	eb 09		 jmp	 SHORT $LN71@WndProc
$LN70@WndProc:
  012d2	8b 45 b4	 mov	 eax, DWORD PTR _n$249290[ebp]
  012d5	83 c0 01	 add	 eax, 1
  012d8	89 45 b4	 mov	 DWORD PTR _n$249290[ebp], eax
$LN71@WndProc:
  012db	81 7d b4 98 3a
	00 00		 cmp	 DWORD PTR _n$249290[ebp], 15000 ; 00003a98H
  012e2	7d 0f		 jge	 SHORT $LN69@WndProc

; 865  : 							{
; 866  : 								PShop_ViewportListRegenarate(n);

  012e4	0f b7 45 b4	 movzx	 eax, WORD PTR _n$249290[ebp]
  012e8	50		 push	 eax
  012e9	e8 00 00 00 00	 call	 ?PShop_ViewportListRegenarate@@YAXF@Z ; PShop_ViewportListRegenarate
  012ee	83 c4 04	 add	 esp, 4

; 867  : 							}

  012f1	eb df		 jmp	 SHORT $LN70@WndProc
$LN69@WndProc:

; 868  : 							for (int n=OBJ_STARTUSERINDEX;n<OBJMAX;n++)

  012f3	c7 45 b0 b0 36
	00 00		 mov	 DWORD PTR _n$249294[ebp], 14000 ; 000036b0H
  012fa	eb 09		 jmp	 SHORT $LN68@WndProc
$LN67@WndProc:
  012fc	8b 45 b0	 mov	 eax, DWORD PTR _n$249294[ebp]
  012ff	83 c0 01	 add	 eax, 1
  01302	89 45 b0	 mov	 DWORD PTR _n$249294[ebp], eax
$LN68@WndProc:
  01305	81 7d b0 98 3a
	00 00		 cmp	 DWORD PTR _n$249294[ebp], 15000 ; 00003a98H
  0130c	7d 29		 jge	 SHORT $LN72@WndProc

; 869  : 							{
; 870  : 								if (gObjIsConnected(n) != PLAYER_EMPTY )

  0130e	8b 45 b0	 mov	 eax, DWORD PTR _n$249294[ebp]
  01311	50		 push	 eax
  01312	e8 00 00 00 00	 call	 ?gObjIsConnected@@YAHH@Z ; gObjIsConnected
  01317	83 c4 04	 add	 esp, 4
  0131a	85 c0		 test	 eax, eax
  0131c	74 17		 je	 SHORT $LN65@WndProc

; 871  : 								{
; 872  : 									gObj[n].m_bPShopItemChange = false;

  0131e	8b 45 b0	 mov	 eax, DWORD PTR _n$249294[ebp]
  01321	69 c0 38 2b 00
	00		 imul	 eax, 11064		; 00002b38H
  01327	8b 0d 00 00 00
	00		 mov	 ecx, DWORD PTR ?gObj@@3PAUOBJECTSTRUCT@@A ; gObj
  0132d	c6 84 01 c6 0e
	00 00 00	 mov	 BYTE PTR [ecx+eax+3782], 0
$LN65@WndProc:

; 873  : 								}
; 874  : 							}

  01335	eb c5		 jmp	 SHORT $LN67@WndProc
$LN72@WndProc:

; 875  : 						}
; 876  : 
; 877  : 						for (int n=OBJ_STARTUSERINDEX;n<OBJMAX;n++)

  01337	c7 45 ac b0 36
	00 00		 mov	 DWORD PTR _n$249299[ebp], 14000 ; 000036b0H
  0133e	eb 09		 jmp	 SHORT $LN64@WndProc
$LN63@WndProc:
  01340	8b 45 ac	 mov	 eax, DWORD PTR _n$249299[ebp]
  01343	83 c0 01	 add	 eax, 1
  01346	89 45 ac	 mov	 DWORD PTR _n$249299[ebp], eax
$LN64@WndProc:
  01349	81 7d ac 98 3a
	00 00		 cmp	 DWORD PTR _n$249299[ebp], 15000 ; 00003a98H
  01350	7d 0e		 jge	 SHORT $LN62@WndProc

; 878  : 						{
; 879  : 							gObjUnionUpdateProc(n);

  01352	8b 45 ac	 mov	 eax, DWORD PTR _n$249299[ebp]
  01355	50		 push	 eax
  01356	e8 00 00 00 00	 call	 ?gObjUnionUpdateProc@@YAXH@Z ; gObjUnionUpdateProc
  0135b	83 c4 04	 add	 esp, 4

; 880  : 						}

  0135e	eb e0		 jmp	 SHORT $LN63@WndProc
$LN62@WndProc:

; 881  : 
; 882  : 						gObjSetState();

  01360	e8 00 00 00 00	 call	 ?gObjSetState@@YAXXZ	; gObjSetState

; 883  : 						GameServerInfoSend();

  01365	e8 00 00 00 00	 call	 ?GameServerInfoSend@@YAXXZ ; GameServerInfoSend

; 884  : 
; 885  : 
; 886  : 
; 887  : 						//----
; 888  : 
; 889  : 
; 890  : 					}
; 891  : 					break;

  0136a	e9 b1 04 00 00	 jmp	 $LN95@WndProc
$LN61@WndProc:

; 892  : 				case WM_SECOND_MSG_PROCESS:
; 893  : 					{
; 894  : 						for (int n = 0;n<MAX_NUMBER_MAP;n++)

  0136f	c7 45 a8 00 00
	00 00		 mov	 DWORD PTR _n$249304[ebp], 0
  01376	eb 09		 jmp	 SHORT $LN60@WndProc
$LN59@WndProc:
  01378	8b 45 a8	 mov	 eax, DWORD PTR _n$249304[ebp]
  0137b	83 c0 01	 add	 eax, 1
  0137e	89 45 a8	 mov	 DWORD PTR _n$249304[ebp], eax
$LN60@WndProc:
  01381	83 7d a8 5a	 cmp	 DWORD PTR _n$249304[ebp], 90 ; 0000005aH
  01385	7d 16		 jge	 SHORT $LN58@WndProc

; 895  : 						{
; 896  : 							MapC[n].WeatherVariationProcess();

  01387	8b 4d a8	 mov	 ecx, DWORD PTR _n$249304[ebp]
  0138a	69 c9 b8 3d 05
	00		 imul	 ecx, 343480		; 00053db8H
  01390	81 c1 00 00 00
	00		 add	 ecx, OFFSET ?MapC@@3PAVMapClass@@A ; MapC
  01396	e8 00 00 00 00	 call	 ?WeatherVariationProcess@MapClass@@QAEXXZ ; MapClass::WeatherVariationProcess

; 897  : 						}

  0139b	eb db		 jmp	 SHORT $LN59@WndProc
$LN58@WndProc:

; 898  : 
; 899  : 						wsGServer.m_SendSec = wsGServer.m_SendSecTmp;

  0139d	a1 20 00 00 00	 mov	 eax, DWORD PTR ?wsGServer@@3VCwsGameServer@@A+32
  013a2	a3 1c 00 00 00	 mov	 DWORD PTR ?wsGServer@@3VCwsGameServer@@A+28, eax

; 900  : 						wsGServer.m_RecvSec = wsGServer.m_RecvSecTmp;

  013a7	a1 28 00 00 00	 mov	 eax, DWORD PTR ?wsGServer@@3VCwsGameServer@@A+40
  013ac	a3 24 00 00 00	 mov	 DWORD PTR ?wsGServer@@3VCwsGameServer@@A+36, eax

; 901  : 
; 902  : 						wsGServer.m_SendSecTmp = 0;

  013b1	c7 05 20 00 00
	00 00 00 00 00	 mov	 DWORD PTR ?wsGServer@@3VCwsGameServer@@A+32, 0

; 903  : 						wsGServer.m_RecvSecTmp = 0;

  013bb	c7 05 28 00 00
	00 00 00 00 00	 mov	 DWORD PTR ?wsGServer@@3VCwsGameServer@@A+40, 0

; 904  : 
; 905  : 						DragonEvent->Run();

  013c5	8b 0d 00 00 00
	00		 mov	 ecx, DWORD PTR ?DragonEvent@@3PAVCDragonEvent@@A ; DragonEvent
  013cb	e8 00 00 00 00	 call	 ?Run@CDragonEvent@@QAEXXZ ; CDragonEvent::Run

; 906  : 						AttackEvent->Run();

  013d0	8b 0d 00 00 00
	00		 mov	 ecx, DWORD PTR ?AttackEvent@@3PAVCAttackEvent@@A ; AttackEvent
  013d6	e8 00 00 00 00	 call	 ?Run@CAttackEvent@@QAEXXZ ; CAttackEvent::Run

; 907  : 						gEledoradoEvent.Run();

  013db	b9 00 00 00 00	 mov	 ecx, OFFSET ?gEledoradoEvent@@3VCEledoradoEvent@@A ; gEledoradoEvent
  013e0	e8 00 00 00 00	 call	 ?Run@CEledoradoEvent@@QAEXXZ ; CEledoradoEvent::Run

; 908  : 						g_EventManager.Run();

  013e5	b9 00 00 00 00	 mov	 ecx, OFFSET ?g_EventManager@@3VCEventManagement@@A ; g_EventManager
  013ea	e8 00 00 00 00	 call	 ?Run@CEventManagement@@QAEXXZ ; CEventManagement::Run

; 909  : 
; 910  : 						HappyHour.Timetick();

  013ef	b9 00 00 00 00	 mov	 ecx, OFFSET ?HappyHour@@3VcHappyHour@@A ; HappyHour
  013f4	e8 00 00 00 00	 call	 ?Timetick@cHappyHour@@QAEXXZ ; cHappyHour::Timetick

; 911  : 						DropEvent.TickTime();

  013f9	b9 00 00 00 00	 mov	 ecx, OFFSET ?DropEvent@@3VcDropEvent@@A ; DropEvent
  013fe	e8 00 00 00 00	 call	 ?TickTime@cDropEvent@@QAEXXZ ; cDropEvent::TickTime

; 912  : 						SearchEvent.StartNPC();

  01403	b9 00 00 00 00	 mov	 ecx, OFFSET ?SearchEvent@@3VcSearchEvent@@A ; SearchEvent
  01408	e8 00 00 00 00	 call	 ?StartNPC@cSearchEvent@@QAEXXZ ; cSearchEvent::StartNPC

; 913  : 						g_TeleportShop.TickTime();

  0140d	b9 00 00 00 00	 mov	 ecx, OFFSET ?g_TeleportShop@@3VTeleportShop@@A ; g_TeleportShop
  01412	e8 00 00 00 00	 call	 ?TickTime@TeleportShop@@QAEXXZ ; TeleportShop::TickTime

; 914  : 
; 915  : 						if(g_ExLicense.user.BloodHound)

  01417	0f b6 05 cb 00
	00 00		 movzx	 eax, BYTE PTR ?g_ExLicense@@3VCExLicense@@A+203
  0141e	85 c0		 test	 eax, eax
  01420	74 0a		 je	 SHORT $LN57@WndProc

; 916  : 						{
; 917  : 							BloodHound.Times();

  01422	b9 00 00 00 00	 mov	 ecx, OFFSET ?BloodHound@@3VcBloodHound@@A ; BloodHound
  01427	e8 00 00 00 00	 call	 ?Times@cBloodHound@@QAEXXZ ; cBloodHound::Times
$LN57@WndProc:

; 918  : 						}
; 919  : 
; 920  : 						if(g_ExLicense.user.TvTEvent)

  0142c	0f b6 05 cd 00
	00 00		 movzx	 eax, BYTE PTR ?g_ExLicense@@3VCExLicense@@A+205
  01433	85 c0		 test	 eax, eax
  01435	74 0a		 je	 SHORT $LN56@WndProc

; 921  : 						{
; 922  : 							TvT.TickTime();

  01437	b9 00 00 00 00	 mov	 ecx, OFFSET ?TvT@@3VcTvTEvent@@A ; TvT
  0143c	e8 00 00 00 00	 call	 ?TickTime@cTvTEvent@@QAEXXZ ; cTvTEvent::TickTime
$LN56@WndProc:

; 923  : 						}
; 924  : 						if(g_ExLicense.CheckUser(eExUB::ulasevich) || g_ExLicense.CheckUser(eExUB::Local3) || g_ExLicense.CheckUser(eExUB::ulasevich2))

  01441	6a 17		 push	 23			; 00000017H
  01443	b9 00 00 00 00	 mov	 ecx, OFFSET ?g_ExLicense@@3VCExLicense@@A ; g_ExLicense
  01448	e8 00 00 00 00	 call	 ?CheckUser@CExLicense@@QAE_NH@Z ; CExLicense::CheckUser
  0144d	0f b6 c0	 movzx	 eax, al
  01450	85 c0		 test	 eax, eax
  01452	75 26		 jne	 SHORT $LN54@WndProc
  01454	6a 1c		 push	 28			; 0000001cH
  01456	b9 00 00 00 00	 mov	 ecx, OFFSET ?g_ExLicense@@3VCExLicense@@A ; g_ExLicense
  0145b	e8 00 00 00 00	 call	 ?CheckUser@CExLicense@@QAE_NH@Z ; CExLicense::CheckUser
  01460	0f b6 c0	 movzx	 eax, al
  01463	85 c0		 test	 eax, eax
  01465	75 13		 jne	 SHORT $LN54@WndProc
  01467	6a 24		 push	 36			; 00000024H
  01469	b9 00 00 00 00	 mov	 ecx, OFFSET ?g_ExLicense@@3VCExLicense@@A ; g_ExLicense
  0146e	e8 00 00 00 00	 call	 ?CheckUser@CExLicense@@QAE_NH@Z ; CExLicense::CheckUser
  01473	0f b6 c0	 movzx	 eax, al
  01476	85 c0		 test	 eax, eax
  01478	74 0a		 je	 SHORT $LN55@WndProc
$LN54@WndProc:

; 925  : 						{
; 926  : 							gMonsterSpawner.TickTime();

  0147a	b9 00 00 00 00	 mov	 ecx, OFFSET ?gMonsterSpawner@@3VcMonsterSpawner@@A ; gMonsterSpawner
  0147f	e8 00 00 00 00	 call	 ?TickTime@cMonsterSpawner@@QAEXXZ ; cMonsterSpawner::TickTime
$LN55@WndProc:

; 927  : 						}
; 928  : 						AlertSystem.TickTime();

  01484	b9 00 00 00 00	 mov	 ecx, OFFSET ?AlertSystem@@3VcAlertSystem@@A ; AlertSystem
  01489	e8 00 00 00 00	 call	 ?TickTime@cAlertSystem@@QAEXXZ ; cAlertSystem::TickTime

; 929  : 
; 930  : #ifdef LORA_BATTLE_EVENT
; 931  : 						//if(g_ExLicense.CheckUser(eExUB::Gredy) || g_ExLicense.CheckUser(eExUB::GredyLocal) || g_ExLicense.CheckUser(eExUB::Gredy2))
; 932  : 						{
; 933  : 							LoraBattle.TickTime();

  0148e	b9 00 00 00 00	 mov	 ecx, OFFSET ?LoraBattle@@3VcLoraBattle@@A ; LoraBattle
  01493	e8 00 00 00 00	 call	 ?TickTime@cLoraBattle@@QAEXXZ ; cLoraBattle::TickTime

; 934  : 						}
; 935  : #endif // LORA_BATTLE_EVENT
; 936  : #if(EVENT_DEVIASBATTLE)
; 937  : 						if(g_ExLicense.CheckUser(eExUB::Gredy) || g_ExLicense.CheckUser(eExUB::GredyLocal) || g_ExLicense.CheckUser(eExUB::Gredy2))

  01498	6a 20		 push	 32			; 00000020H
  0149a	b9 00 00 00 00	 mov	 ecx, OFFSET ?g_ExLicense@@3VCExLicense@@A ; g_ExLicense
  0149f	e8 00 00 00 00	 call	 ?CheckUser@CExLicense@@QAE_NH@Z ; CExLicense::CheckUser
  014a4	0f b6 c0	 movzx	 eax, al
  014a7	85 c0		 test	 eax, eax
  014a9	75 26		 jne	 SHORT $LN52@WndProc
  014ab	6a 21		 push	 33			; 00000021H
  014ad	b9 00 00 00 00	 mov	 ecx, OFFSET ?g_ExLicense@@3VCExLicense@@A ; g_ExLicense
  014b2	e8 00 00 00 00	 call	 ?CheckUser@CExLicense@@QAE_NH@Z ; CExLicense::CheckUser
  014b7	0f b6 c0	 movzx	 eax, al
  014ba	85 c0		 test	 eax, eax
  014bc	75 13		 jne	 SHORT $LN52@WndProc
  014be	6a 22		 push	 34			; 00000022H
  014c0	b9 00 00 00 00	 mov	 ecx, OFFSET ?g_ExLicense@@3VCExLicense@@A ; g_ExLicense
  014c5	e8 00 00 00 00	 call	 ?CheckUser@CExLicense@@QAE_NH@Z ; CExLicense::CheckUser
  014ca	0f b6 c0	 movzx	 eax, al
  014cd	85 c0		 test	 eax, eax
  014cf	74 0a		 je	 SHORT $LN53@WndProc
$LN52@WndProc:

; 938  : 						{
; 939  : 							g_DeviasBattle.TickTime();

  014d1	b9 00 00 00 00	 mov	 ecx, OFFSET ?g_DeviasBattle@@3VCDeviasBattle@@A ; g_DeviasBattle
  014d6	e8 00 00 00 00	 call	 ?TickTime@CDeviasBattle@@QAEXXZ ; CDeviasBattle::TickTime
$LN53@WndProc:

; 940  : 						}
; 941  : #endif
; 942  : #ifdef PANDORA_EVENT
; 943  : 						if (g_ExLicense.user.PandoraEvent)

  014db	0f b6 05 d5 00
	00 00		 movzx	 eax, BYTE PTR ?g_ExLicense@@3VCExLicense@@A+213
  014e2	85 c0		 test	 eax, eax
  014e4	74 0a		 je	 SHORT $LN51@WndProc

; 944  : 						{
; 945  : 							gPandoraBoxEvent.TickTime();

  014e6	b9 00 00 00 00	 mov	 ecx, OFFSET ?gPandoraBoxEvent@@3VcPandoraBoxEvent@@A ; gPandoraBoxEvent
  014eb	e8 00 00 00 00	 call	 ?TickTime@cPandoraBoxEvent@@QAEXXZ ; cPandoraBoxEvent::TickTime
$LN51@WndProc:

; 946  : 						}
; 947  : #endif // PANDORA_EVENT
; 948  : 
; 949  : 						if(g_ExLicense.Exit == TRUE)

  014f0	0f b6 05 04 00
	00 00		 movzx	 eax, BYTE PTR ?g_ExLicense@@3VCExLicense@@A+4
  014f7	83 f8 01	 cmp	 eax, 1
  014fa	75 1e		 jne	 SHORT $LN50@WndProc

; 950  : 						{
; 951  : 							g_ExLicense.ExitTime++;

  014fc	a1 08 00 00 00	 mov	 eax, DWORD PTR ?g_ExLicense@@3VCExLicense@@A+8
  01501	83 c0 01	 add	 eax, 1
  01504	a3 08 00 00 00	 mov	 DWORD PTR ?g_ExLicense@@3VCExLicense@@A+8, eax

; 952  : 							if(g_ExLicense.ExitTime == 5)

  01509	83 3d 08 00 00
	00 05		 cmp	 DWORD PTR ?g_ExLicense@@3VCExLicense@@A+8, 5
  01510	75 08		 jne	 SHORT $LN50@WndProc

; 953  : 							{
; 954  : 								ExitProcess(0);

  01512	6a 00		 push	 0
  01514	ff 15 00 00 00
	00		 call	 DWORD PTR __imp__ExitProcess@4
$LN50@WndProc:

; 955  : 							}
; 956  : 						}
; 957  : 
; 958  : 						g_TimerEx.Run();

  0151a	b9 00 00 00 00	 mov	 ecx, OFFSET ?g_TimerEx@@3VCTimerEx@@A ; g_TimerEx
  0151f	e8 00 00 00 00	 call	 ?Run@CTimerEx@@QAEXXZ	; CTimerEx::Run

; 959  : 
; 960  : 						#if(DEV_BANSYSTEM)
; 961  : 						g_BanSystem.Run();

  01524	b9 00 00 00 00	 mov	 ecx, OFFSET ?g_BanSystem@@3VCBanSystem@@A ; g_BanSystem
  01529	e8 00 00 00 00	 call	 ?Run@CBanSystem@@QAEXXZ	; CBanSystem::Run

; 962  : 						#endif
; 963  : 
; 964  : 						#if(EVENT_QUESTIONANSWER)
; 965  : 						g_QuestionAnswer.Run();

  0152e	b9 00 00 00 00	 mov	 ecx, OFFSET ?g_QuestionAnswer@@3VCQuestionAnswer@@A ; g_QuestionAnswer
  01533	e8 00 00 00 00	 call	 ?Run@CQuestionAnswer@@QAEXXZ ; CQuestionAnswer::Run

; 966  : 						#endif
; 967  : 
; 968  : 						#if(DEV_DAMAGE_TABLE)
; 969  : 						g_ExUser.ResetDamageTable();

  01538	b9 00 00 00 00	 mov	 ecx, OFFSET ?g_ExUser@@3VExUser@@A ; g_ExUser
  0153d	e8 00 00 00 00	 call	 ?ResetDamageTable@ExUser@@QAEXXZ ; ExUser::ResetDamageTable

; 970  : 						#endif
; 971  : 					}
; 972  : 					break;

  01542	e9 d9 02 00 00	 jmp	 $LN95@WndProc
$LN48@WndProc:

; 973  : 				case WM_GS_CLOSE:
; 974  : 					if ( gCloseMsg != 0 )

  01547	83 3d 00 00 00
	00 00		 cmp	 DWORD PTR ?gCloseMsg@@3HA, 0 ; gCloseMsg
  0154e	0f 84 df 00 00
	00		 je	 $LN47@WndProc

; 975  : 					{
; 976  : 						gCloseMsgTime--;

  01554	a1 00 00 00 00	 mov	 eax, DWORD PTR ?gCloseMsgTime@@3HA ; gCloseMsgTime
  01559	83 e8 01	 sub	 eax, 1
  0155c	a3 00 00 00 00	 mov	 DWORD PTR ?gCloseMsgTime@@3HA, eax ; gCloseMsgTime

; 977  : 
; 978  : 						if ( gCloseMsgTime <= 1 )

  01561	83 3d 00 00 00
	00 01		 cmp	 DWORD PTR ?gCloseMsgTime@@3HA, 1 ; gCloseMsgTime
  01568	7f 3e		 jg	 SHORT $LN46@WndProc

; 979  : 						{
; 980  : 							if ( gCloseMsgTime == 1 )

  0156a	83 3d 00 00 00
	00 01		 cmp	 DWORD PTR ?gCloseMsgTime@@3HA, 1 ; gCloseMsgTime
  01571	75 33		 jne	 SHORT $LN45@WndProc

; 981  : 							{
; 982  : 								AllSendServerMsg(lMsg.Get(MSGGET(1, 193)));

  01573	68 c1 01 00 00	 push	 449			; 000001c1H
  01578	b9 00 00 00 00	 mov	 ecx, OFFSET ?lMsg@@3VCMsg@@A ; lMsg
  0157d	e8 00 00 00 00	 call	 ?Get@CMsg@@QAEPADH@Z	; CMsg::Get
  01582	50		 push	 eax
  01583	e8 00 00 00 00	 call	 ?AllSendServerMsg@@YAXPAD@Z ; AllSendServerMsg
  01588	83 c4 04	 add	 esp, 4

; 983  : 								LogAddC(2, lMsg.Get(MSGGET(1, 193)));

  0158b	68 c1 01 00 00	 push	 449			; 000001c1H
  01590	b9 00 00 00 00	 mov	 ecx, OFFSET ?lMsg@@3VCMsg@@A ; lMsg
  01595	e8 00 00 00 00	 call	 ?Get@CMsg@@QAEPADH@Z	; CMsg::Get
  0159a	50		 push	 eax
  0159b	6a 02		 push	 2
  0159d	ff 15 00 00 00
	00		 call	 DWORD PTR ?LogAddC@@3P6AXEPADZZA ; LogAddC
  015a3	83 c4 08	 add	 esp, 8
$LN45@WndProc:

; 984  : 							}
; 985  : 						}
; 986  : 						else

  015a6	eb 58		 jmp	 SHORT $LN44@WndProc
$LN46@WndProc:

; 987  : 						{
; 988  : 							if ( (gCloseMsgTime % 10) == 0 )

  015a8	a1 00 00 00 00	 mov	 eax, DWORD PTR ?gCloseMsgTime@@3HA ; gCloseMsgTime
  015ad	99		 cdq
  015ae	b9 0a 00 00 00	 mov	 ecx, 10			; 0000000aH
  015b3	f7 f9		 idiv	 ecx
  015b5	85 d2		 test	 edx, edx
  015b7	75 47		 jne	 SHORT $LN44@WndProc

; 989  : 							{
; 990  : 								char szTemp[256];
; 991  : 
; 992  : 								wsprintf( szTemp, lMsg.Get(MSGGET(1, 194)), gCloseMsgTime);

  015b9	a1 00 00 00 00	 mov	 eax, DWORD PTR ?gCloseMsgTime@@3HA ; gCloseMsgTime
  015be	50		 push	 eax
  015bf	68 c2 01 00 00	 push	 450			; 000001c2H
  015c4	b9 00 00 00 00	 mov	 ecx, OFFSET ?lMsg@@3VCMsg@@A ; lMsg
  015c9	e8 00 00 00 00	 call	 ?Get@CMsg@@QAEPADH@Z	; CMsg::Get
  015ce	50		 push	 eax
  015cf	8d 8d a8 fe ff
	ff		 lea	 ecx, DWORD PTR _szTemp$249323[ebp]
  015d5	51		 push	 ecx
  015d6	ff 15 00 00 00
	00		 call	 DWORD PTR __imp__wsprintfA
  015dc	83 c4 0c	 add	 esp, 12			; 0000000cH

; 993  : 								AllSendServerMsg(szTemp);

  015df	8d 85 a8 fe ff
	ff		 lea	 eax, DWORD PTR _szTemp$249323[ebp]
  015e5	50		 push	 eax
  015e6	e8 00 00 00 00	 call	 ?AllSendServerMsg@@YAXPAD@Z ; AllSendServerMsg
  015eb	83 c4 04	 add	 esp, 4

; 994  : 								LogAddC(2, szTemp);

  015ee	8d 85 a8 fe ff
	ff		 lea	 eax, DWORD PTR _szTemp$249323[ebp]
  015f4	50		 push	 eax
  015f5	6a 02		 push	 2
  015f7	ff 15 00 00 00
	00		 call	 DWORD PTR ?LogAddC@@3P6AXEPADZZA ; LogAddC
  015fd	83 c4 08	 add	 esp, 8
$LN44@WndProc:

; 995  : 							}
; 996  : 						}
; 997  : 
; 998  : 						if ( gCloseMsgTime < 0 )

  01600	83 3d 00 00 00
	00 00		 cmp	 DWORD PTR ?gCloseMsgTime@@3HA, 0 ; gCloseMsgTime
  01607	7d 2a		 jge	 SHORT $LN47@WndProc

; 999  : 						{
; 1000 : 							KillTimer(ghWnd, WM_GS_CLOSE);

  01609	68 ea 03 00 00	 push	 1002			; 000003eaH
  0160e	a1 00 00 00 00	 mov	 eax, DWORD PTR ?ghWnd@@3PAUHWND__@@A ; ghWnd
  01613	50		 push	 eax
  01614	ff 15 00 00 00
	00		 call	 DWORD PTR __imp__KillTimer@8

; 1001 : 							gObjAllLogOut();

  0161a	e8 00 00 00 00	 call	 ?gObjAllLogOut@@YAXXZ	; gObjAllLogOut

; 1002 : 							gCloseMsgTime = 0;

  0161f	c7 05 00 00 00
	00 00 00 00 00	 mov	 DWORD PTR ?gCloseMsgTime@@3HA, 0 ; gCloseMsgTime

; 1003 : 							gCloseMsg = 0;

  01629	c7 05 00 00 00
	00 00 00 00 00	 mov	 DWORD PTR ?gCloseMsg@@3HA, 0 ; gCloseMsg
$LN47@WndProc:

; 1004 : 						}
; 1005 : 					}
; 1006 : 					gObjSecondProc();

  01633	e8 00 00 00 00	 call	 ?gObjSecondProc@@YAXXZ	; gObjSecondProc

; 1007 : //#if (GS_CASTLE == 1 )
; 1008 : 					if( cDBSMng.GetActiveDS() > DS_UNINITIALIZED && g_CastleSiege.GetDataLoadState() == 2 )

  01638	b9 00 00 00 00	 mov	 ecx, OFFSET ?cDBSMng@@3VDBSockMng@@A ; cDBSMng
  0163d	e8 00 00 00 00	 call	 ?GetActiveDS@DBSockMng@@QAEHXZ ; DBSockMng::GetActiveDS
  01642	83 f8 ff	 cmp	 eax, -1
  01645	7e 19		 jle	 SHORT $LN41@WndProc
  01647	b9 00 00 00 00	 mov	 ecx, OFFSET ?g_CastleSiege@@3VCCastleSiege@@A ; g_CastleSiege
  0164c	e8 00 00 00 00	 call	 ?GetDataLoadState@CCastleSiege@@QAEHXZ ; CCastleSiege::GetDataLoadState
  01651	83 f8 02	 cmp	 eax, 2
  01654	75 0a		 jne	 SHORT $LN41@WndProc

; 1009 : 					{
; 1010 : 						g_CastleSiege.DataRequest();

  01656	b9 00 00 00 00	 mov	 ecx, OFFSET ?g_CastleSiege@@3VCCastleSiege@@A ; g_CastleSiege
  0165b	e8 00 00 00 00	 call	 ?DataRequest@CCastleSiege@@QAEHXZ ; CCastleSiege::DataRequest
$LN41@WndProc:

; 1011 : 					}
; 1012 : 					
; 1013 : 					g_CastleSiege.SendCastleStateSync();

  01660	b9 00 00 00 00	 mov	 ecx, OFFSET ?g_CastleSiege@@3VCCastleSiege@@A ; g_CastleSiege
  01665	e8 00 00 00 00	 call	 ?SendCastleStateSync@CCastleSiege@@QAEXXZ ; CCastleSiege::SendCastleStateSync

; 1014 : 
; 1015 : //#endif
; 1016 : 					g_CastleSiegeSync.AdjustTributeMoney();

  0166a	b9 00 00 00 00	 mov	 ecx, OFFSET ?g_CastleSiegeSync@@3VCCastleSiegeSync@@A ; g_CastleSiegeSync
  0166f	e8 00 00 00 00	 call	 ?AdjustTributeMoney@CCastleSiegeSync@@QAEXXZ ; CCastleSiegeSync::AdjustTributeMoney

; 1017 : //#if(GS_CASTLE == 1)
; 1018 : 					g_Crywolf.CrywolfSecondAct();

  01674	b9 00 00 00 00	 mov	 ecx, OFFSET ?g_Crywolf@@3VCCrywolf@@A ; g_Crywolf
  01679	e8 00 00 00 00	 call	 ?CrywolfSecondAct@CCrywolf@@QAEXXZ ; CCrywolf::CrywolfSecondAct

; 1019 : //#endif
; 1020 : #ifdef PERIOD
; 1021 : 					g_PeriodItemEx.CheckPeriodData();

  0167e	b9 00 00 00 00	 mov	 ecx, OFFSET ?g_PeriodItemEx@@3VCPeriodItemEx@@A ; g_PeriodItemEx
  01683	e8 00 00 00 00	 call	 ?CheckPeriodData@CPeriodItemEx@@QAEXXZ ; CPeriodItemEx::CheckPeriodData

; 1022 : #endif
; 1023 : 					break;

  01688	e9 93 01 00 00	 jmp	 $LN95@WndProc
$LN40@WndProc:

; 1024 : 				case WM_SET_DATE:
; 1025 : 					gSetDate();

  0168d	e8 00 00 00 00	 call	 ?gSetDate@@YAXXZ	; gSetDate

; 1026 : 					WhisperCash.TimeCheckCashDelete();

  01692	b9 00 00 00 00	 mov	 ecx, OFFSET ?WhisperCash@@3VCWhisperCash@@A ; WhisperCash
  01697	e8 00 00 00 00	 call	 ?TimeCheckCashDelete@CWhisperCash@@QAEXXZ ; CWhisperCash::TimeCheckCashDelete

; 1027 : 					break;

  0169c	e9 7f 01 00 00	 jmp	 $LN95@WndProc
$LN39@WndProc:

; 1028 : 				case WM_CONNECT_DATASERVER:
; 1029 : 					cDBSMng.Connect();

  016a1	b9 00 00 00 00	 mov	 ecx, OFFSET ?cDBSMng@@3VDBSockMng@@A ; cDBSMng
  016a6	e8 00 00 00 00	 call	 ?Connect@DBSockMng@@QAEXXZ ; DBSockMng::Connect

; 1030 : 					gObjCheckAllUserDuelStop();

  016ab	e8 00 00 00 00	 call	 ?gObjCheckAllUserDuelStop@@YAXXZ ; gObjCheckAllUserDuelStop

; 1031 : 					break;

  016b0	e9 6b 01 00 00	 jmp	 $LN95@WndProc
$LN38@WndProc:

; 1032 : 				case WM_LOG_DATE_CHANGE:
; 1033 : //#if (GS_CASTLE == 1 )
; 1034 : 					if( LogDateChange() == TRUE )

  016b5	e8 00 00 00 00	 call	 ?LogDateChange@@YAHXZ	; LogDateChange
  016ba	83 f8 01	 cmp	 eax, 1
  016bd	75 0a		 jne	 SHORT $LN37@WndProc

; 1035 : 					{
; 1036 : 						g_iCastleItemMixLimit = 1;

  016bf	c7 05 00 00 00
	00 01 00 00 00	 mov	 DWORD PTR ?g_iCastleItemMixLimit@@3HA, 1 ; g_iCastleItemMixLimit
$LN37@WndProc:

; 1037 : 					}
; 1038 : //#else
; 1039 : 					//LogDateChange();
; 1040 : //#endif
; 1041 : 					break;

  016c9	e9 52 01 00 00	 jmp	 $LN95@WndProc
$LN36@WndProc:

; 1042 : 				case WM_VOTER_PROC:
; 1043 : 					{
; 1044 : #ifdef _VOTER_
; 1045 : 						gVoter.Mootop();

  016ce	b9 00 00 00 00	 mov	 ecx, OFFSET ?gVoter@@3VVoter@@A ; gVoter
  016d3	e8 00 00 00 00	 call	 ?Mootop@Voter@@QAEXXZ	; Voter::Mootop

; 1046 : 						gVoter.Qtop();

  016d8	b9 00 00 00 00	 mov	 ecx, OFFSET ?gVoter@@3VVoter@@A ; gVoter
  016dd	e8 00 00 00 00	 call	 ?Qtop@Voter@@QAEXXZ	; Voter::Qtop

; 1047 : #endif
; 1048 : 						DeleteLogs();

  016e2	e8 00 00 00 00	 call	 ?DeleteLogs@@YAXXZ	; DeleteLogs

; 1049 : 						//g_ExLicense.ReedURLVerisoun();
; 1050 : 					}
; 1051 : 					break;

  016e7	e9 34 01 00 00	 jmp	 $LN95@WndProc
$LN35@WndProc:

; 1052 : 				case WM_VOTER_REED:
; 1053 : 					{
; 1054 : #ifdef _VOTER_
; 1055 : 						gVoter.MootopReed();

  016ec	b9 00 00 00 00	 mov	 ecx, OFFSET ?gVoter@@3VVoter@@A ; gVoter
  016f1	e8 00 00 00 00	 call	 ?MootopReed@Voter@@QAEXXZ ; Voter::MootopReed

; 1056 : 						gVoter.QtopReed();

  016f6	b9 00 00 00 00	 mov	 ecx, OFFSET ?gVoter@@3VVoter@@A ; gVoter
  016fb	e8 00 00 00 00	 call	 ?QtopReed@Voter@@QAEXXZ	; Voter::QtopReed

; 1057 : #endif
; 1058 : 					}
; 1059 : 					break;

  01700	e9 1b 01 00 00	 jmp	 $LN95@WndProc
$LN34@WndProc:

; 1060 : 				case WM_EX_TIMER_SEC:
; 1061 : 					{
; 1062 : #ifdef NEW_HP_BAR
; 1063 : 						for (int  n=OBJ_STARTUSERINDEX;n<OBJMAX;n++)

  01705	c7 85 a4 fe ff
	ff b0 36 00 00	 mov	 DWORD PTR _n$249333[ebp], 14000 ; 000036b0H
  0170f	eb 0f		 jmp	 SHORT $LN33@WndProc
$LN32@WndProc:
  01711	8b 85 a4 fe ff
	ff		 mov	 eax, DWORD PTR _n$249333[ebp]
  01717	83 c0 01	 add	 eax, 1
  0171a	89 85 a4 fe ff
	ff		 mov	 DWORD PTR _n$249333[ebp], eax
$LN33@WndProc:
  01720	81 bd a4 fe ff
	ff 98 3a 00 00	 cmp	 DWORD PTR _n$249333[ebp], 15000 ; 00003a98H
  0172a	7d 11		 jge	 SHORT $LN31@WndProc

; 1064 : 						{
; 1065 : 							ExUserVieweport(n);

  0172c	8b 85 a4 fe ff
	ff		 mov	 eax, DWORD PTR _n$249333[ebp]
  01732	50		 push	 eax
  01733	e8 00 00 00 00	 call	 ?ExUserVieweport@@YAXH@Z ; ExUserVieweport
  01738	83 c4 04	 add	 esp, 4

; 1066 : 						}

  0173b	eb d4		 jmp	 SHORT $LN32@WndProc
$LN31@WndProc:

; 1067 : #endif
; 1068 : #ifdef AUTO_PARTY
; 1069 : 						gAutoParty.Work();

  0173d	b9 00 00 00 00	 mov	 ecx, OFFSET ?gAutoParty@@3VcAutoParty@@A ; gAutoParty
  01742	e8 00 00 00 00	 call	 ?Work@cAutoParty@@QAEXXZ ; cAutoParty::Work

; 1070 : #endif
; 1071 : #if(CUSTOM_RETURNSPOT==TRUE)
; 1072 : 						g_SpotReturn.StatusTime();

  01747	b9 00 00 00 00	 mov	 ecx, OFFSET ?g_SpotReturn@@3VSpotReturn@@A ; g_SpotReturn
  0174c	e8 00 00 00 00	 call	 ?StatusTime@SpotReturn@@QAEXXZ ; SpotReturn::StatusTime

; 1073 : #endif
; 1074 : 						gEventTimer.Client();

  01751	b9 00 00 00 00	 mov	 ecx, OFFSET ?gEventTimer@@3VcEventTimer@@A ; gEventTimer
  01756	e8 00 00 00 00	 call	 ?Client@cEventTimer@@QAEXXZ ; cEventTimer::Client

; 1075 : 						if(g_ExLicense.user.Rage)

  0175b	0f b6 05 c9 00
	00 00		 movzx	 eax, BYTE PTR ?g_ExLicense@@3VCExLicense@@A+201
  01762	85 c0		 test	 eax, eax
  01764	74 0a		 je	 SHORT $LN30@WndProc

; 1076 : 						{
; 1077 : 							gSystemOfRage.RageClientSend();

  01766	b9 00 00 00 00	 mov	 ecx, OFFSET ?gSystemOfRage@@3VcSystemOfRage@@A ; gSystemOfRage
  0176b	e8 00 00 00 00	 call	 ?RageClientSend@cSystemOfRage@@QAEXXZ ; cSystemOfRage::RageClientSend
$LN30@WndProc:

; 1078 : 						}
; 1079 : 						#if(CUSTOM_SERVER_TIME)
; 1080 : 						g_ExUser.GCServerTime();

  01770	b9 00 00 00 00	 mov	 ecx, OFFSET ?g_ExUser@@3VExUser@@A ; g_ExUser
  01775	e8 00 00 00 00	 call	 ?GCServerTime@ExUser@@QAEXXZ ; ExUser::GCServerTime

; 1081 : 						#endif
; 1082 : #if(CUSTOM_EX_TELEPORT==TRUE)
; 1083 : 						g_ExTeleport.Timer();

  0177a	b9 00 00 00 00	 mov	 ecx, OFFSET ?g_ExTeleport@@3VExTeleport@@A ; g_ExTeleport
  0177f	e8 00 00 00 00	 call	 ?Timer@ExTeleport@@QAEXXZ ; ExTeleport::Timer

; 1084 : #endif
; 1085 : #if(CUSTOM_EX_TELEPORT_EVO)
; 1086 : 						g_ExTeleportEvo.Timer();

  01784	b9 00 00 00 00	 mov	 ecx, OFFSET ?g_ExTeleportEvo@@3VExTeleportEvo@@A ; g_ExTeleportEvo
  01789	e8 00 00 00 00	 call	 ?Timer@ExTeleportEvo@@QAEXXZ ; ExTeleportEvo::Timer

; 1087 : #endif						
; 1088 : 						g_ExUser.TickCountClientDataSend();

  0178e	b9 00 00 00 00	 mov	 ecx, OFFSET ?g_ExUser@@3VExUser@@A ; g_ExUser
  01793	e8 00 00 00 00	 call	 ?TickCountClientDataSend@ExUser@@QAEXXZ ; ExUser::TickCountClientDataSend

; 1089 : #ifdef _VOTER_						
; 1090 : 						gVoter.Run();

  01798	b9 00 00 00 00	 mov	 ecx, OFFSET ?gVoter@@3VVoter@@A ; gVoter
  0179d	e8 00 00 00 00	 call	 ?Run@Voter@@QAEXXZ	; Voter::Run

; 1091 : #endif
; 1092 : 						g_ExUser.PartyMiniMapInfo();

  017a2	b9 00 00 00 00	 mov	 ecx, OFFSET ?g_ExUser@@3VExUser@@A ; g_ExUser
  017a7	e8 00 00 00 00	 call	 ?PartyMiniMapInfo@ExUser@@QAEXXZ ; ExUser::PartyMiniMapInfo

; 1093 : 
; 1094 : 						#if(ANTI_CHEAT_PLUS && SCANER_ITEM_DUPE)
; 1095 : 						g_AntiCheatPlus.RunItemDupe();

  017ac	b9 00 00 00 00	 mov	 ecx, OFFSET ?g_AntiCheatPlus@@3VAntiCheatPlus@@A ; g_AntiCheatPlus
  017b1	e8 00 00 00 00	 call	 ?RunItemDupe@AntiCheatPlus@@QAEXXZ ; AntiCheatPlus::RunItemDupe

; 1096 : 						#endif
; 1097 : 						
; 1098 : 					}
; 1099 : 					break;

  017b6	eb 68		 jmp	 SHORT $LN95@WndProc
$LN29@WndProc:

; 1100 : 				case WM_TIMER_MIN:
; 1101 : 					{
; 1102 : 						gRanking.SendClient();

  017b8	b9 00 00 00 00	 mov	 ecx, OFFSET ?gRanking@@3VcRanking@@A ; gRanking
  017bd	e8 00 00 00 00	 call	 ?SendClient@cRanking@@QAEXXZ ; cRanking::SendClient

; 1103 : 					}
; 1104 : 					break;

  017c2	eb 5c		 jmp	 SHORT $LN95@WndProc
$LN28@WndProc:

; 1105 : 				case WM_TIMER_10MIN:
; 1106 : 					{
; 1107 : 						gRanking.SendDS();

  017c4	b9 00 00 00 00	 mov	 ecx, OFFSET ?gRanking@@3VcRanking@@A ; gRanking
  017c9	e8 00 00 00 00	 call	 ?SendDS@cRanking@@QAEXXZ ; cRanking::SendDS

; 1108 : 					}
; 1109 : 					break;

  017ce	eb 50		 jmp	 SHORT $LN95@WndProc
$LN27@WndProc:

; 1110 : 				case WM_EX_TIMER_500MC:
; 1111 : 					{
; 1112 : #if(OFFLINE_MODE==TRUE)
; 1113 : 						for ( int n= OBJ_STARTUSERINDEX;n<OBJMAX;n++)

  017d0	c7 85 a0 fe ff
	ff b0 36 00 00	 mov	 DWORD PTR _n$249341[ebp], 14000 ; 000036b0H
  017da	eb 0f		 jmp	 SHORT $LN26@WndProc
$LN25@WndProc:
  017dc	8b 85 a0 fe ff
	ff		 mov	 eax, DWORD PTR _n$249341[ebp]
  017e2	83 c0 01	 add	 eax, 1
  017e5	89 85 a0 fe ff
	ff		 mov	 DWORD PTR _n$249341[ebp], eax
$LN26@WndProc:
  017eb	81 bd a0 fe ff
	ff 98 3a 00 00	 cmp	 DWORD PTR _n$249341[ebp], 15000 ; 00003a98H
  017f5	7d 13		 jge	 SHORT $LN24@WndProc

; 1114 : 						{
; 1115 : 							g_OfflineMode.Attack(n);

  017f7	8b 85 a0 fe ff
	ff		 mov	 eax, DWORD PTR _n$249341[ebp]
  017fd	50		 push	 eax
  017fe	b9 00 00 00 00	 mov	 ecx, OFFSET ?g_OfflineMode@@3VOfflineMode@@A ; g_OfflineMode
  01803	e8 00 00 00 00	 call	 ?Attack@OfflineMode@@QAEXH@Z ; OfflineMode::Attack

; 1116 : 						}

  01808	eb d2		 jmp	 SHORT $LN25@WndProc
$LN24@WndProc:

; 1117 : #endif
; 1118 : 					}
; 1119 : 					break;

  0180a	eb 14		 jmp	 SHORT $LN95@WndProc
$LN23@WndProc:

; 1120 : 				case WM_EX_TIMER_100MC:
; 1121 : 					{
; 1122 : #if(_RECONNECT_)
; 1123 : 						g_ConnectEx.Timer();

  0180c	b9 00 00 00 00	 mov	 ecx, OFFSET ?g_ConnectEx@@3VConnectEx@@A ; g_ConnectEx
  01811	e8 00 00 00 00	 call	 ?Timer@ConnectEx@@QAEXXZ ; ConnectEx::Timer

; 1124 : #endif
; 1125 : 						g_ExUser.AutoHPClick();

  01816	b9 00 00 00 00	 mov	 ecx, OFFSET ?g_ExUser@@3VExUser@@A ; g_ExUser
  0181b	e8 00 00 00 00	 call	 ?AutoHPClick@ExUser@@QAEXXZ ; ExUser::AutoHPClick
$LN95@WndProc:

; 1126 : 					}
; 1127 : 					break;
; 1128 : #if(EXLICENSE_SERVER)
; 1129 : 				case WM_EX_LICENSE_10SEC:
; 1130 : 					g_ExLicenseProtocol.Run();
; 1131 : 					break;
; 1132 : #endif
; 1133 : 				case WM_EX_TIMER_10SEC:
; 1134 : 					//#if(ANTI_CHEAT_PLUS && SCANER_ITEM_DUPE)
; 1135 : 					//g_AntiCheatPlus.RunItemDupe();
; 1136 : 					//#endif
; 1137 : 					break;
; 1138 : 
; 1139 : 			}
; 1140 : 			break;

  01820	e9 76 01 00 00	 jmp	 $LN175@WndProc
$LN21@WndProc:

; 1141 : 		case WM_CLOSE:
; 1142 : 			if ( gLanguage != 3 )

  01825	83 3d 00 00 00
	00 03		 cmp	 DWORD PTR ?gLanguage@@3HA, 3 ; gLanguage
  0182c	74 29		 je	 SHORT $LN20@WndProc

; 1143 : 			{
; 1144 : 				if (MessageBox(ghWnd, "GameServer close?", "Close", MB_YESNO|MB_APPLMODAL) == IDYES)

  0182e	6a 04		 push	 4
  01830	68 00 00 00 00	 push	 OFFSET ??_C@_05LGELBCGM@Close?$AA@
  01835	68 00 00 00 00	 push	 OFFSET ??_C@_0BC@EBEJPBOM@GameServer?5close?$DP?$AA@
  0183a	a1 00 00 00 00	 mov	 eax, DWORD PTR ?ghWnd@@3PAUHWND__@@A ; ghWnd
  0183f	50		 push	 eax
  01840	ff 15 00 00 00
	00		 call	 DWORD PTR __imp__MessageBoxA@16
  01846	83 f8 06	 cmp	 eax, 6
  01849	75 0a		 jne	 SHORT $LN19@WndProc

; 1145 : 				{
; 1146 : 					DestroyWindow(hWnd);

  0184b	8b 45 08	 mov	 eax, DWORD PTR _hWnd$[ebp]
  0184e	50		 push	 eax
  0184f	ff 15 00 00 00
	00		 call	 DWORD PTR __imp__DestroyWindow@4
$LN19@WndProc:

; 1147 : 				}
; 1148 : 			}
; 1149 : 			else

  01855	eb 0a		 jmp	 SHORT $LN18@WndProc
$LN20@WndProc:

; 1150 : 			{
; 1151 : 				DestroyWindow(hWnd);

  01857	8b 45 08	 mov	 eax, DWORD PTR _hWnd$[ebp]
  0185a	50		 push	 eax
  0185b	ff 15 00 00 00
	00		 call	 DWORD PTR __imp__DestroyWindow@4
$LN18@WndProc:

; 1152 : 			}
; 1153 : 			break;

  01861	e9 35 01 00 00	 jmp	 $LN175@WndProc
$LN17@WndProc:

; 1154 : 		case WM_KEYDOWN:
; 1155 : 			switch ( wParam )

  01866	8b 45 10	 mov	 eax, DWORD PTR _wParam$[ebp]
  01869	89 85 4c fe ff
	ff		 mov	 DWORD PTR tv556[ebp], eax
  0186f	8b 8d 4c fe ff
	ff		 mov	 ecx, DWORD PTR tv556[ebp]
  01875	83 e9 70	 sub	 ecx, 112		; 00000070H
  01878	89 8d 4c fe ff
	ff		 mov	 DWORD PTR tv556[ebp], ecx
  0187e	83 bd 4c fe ff
	ff 0a		 cmp	 DWORD PTR tv556[ebp], 10 ; 0000000aH
  01885	0f 87 e2 00 00
	00		 ja	 $LN15@WndProc
  0188b	8b 95 4c fe ff
	ff		 mov	 edx, DWORD PTR tv556[ebp]
  01891	ff 24 95 00 00
	00 00		 jmp	 DWORD PTR $LN191@WndProc[edx*4]
$LN14@WndProc:

; 1156 : 			{
; 1157 : 			case VK_F1 :
; 1158 : 				gCurPaintPlayer--;

  01898	a1 00 00 00 00	 mov	 eax, DWORD PTR ?gCurPaintPlayer@@3HA ; gCurPaintPlayer
  0189d	83 e8 01	 sub	 eax, 1
  018a0	a3 00 00 00 00	 mov	 DWORD PTR ?gCurPaintPlayer@@3HA, eax ; gCurPaintPlayer

; 1159 : 				if( gCurPaintPlayer < 0 ) gCurPaintPlayer = 0;

  018a5	79 0a		 jns	 SHORT $LN13@WndProc
  018a7	c7 05 00 00 00
	00 00 00 00 00	 mov	 DWORD PTR ?gCurPaintPlayer@@3HA, 0 ; gCurPaintPlayer
$LN13@WndProc:

; 1160 : 				break;

  018b1	e9 b7 00 00 00	 jmp	 $LN15@WndProc
$LN12@WndProc:

; 1161 : 			case VK_F2 :
; 1162 : 				gCurPaintPlayer++;

  018b6	a1 00 00 00 00	 mov	 eax, DWORD PTR ?gCurPaintPlayer@@3HA ; gCurPaintPlayer
  018bb	83 c0 01	 add	 eax, 1
  018be	a3 00 00 00 00	 mov	 DWORD PTR ?gCurPaintPlayer@@3HA, eax ; gCurPaintPlayer

; 1163 : 				if( gCurPaintPlayer > OBJMAX-1 ) gCurPaintPlayer = OBJMAX-1;

  018c3	81 3d 00 00 00
	00 97 3a 00 00	 cmp	 DWORD PTR ?gCurPaintPlayer@@3HA, 14999 ; gCurPaintPlayer, 00003a97H
  018cd	7e 0a		 jle	 SHORT $LN11@WndProc
  018cf	c7 05 00 00 00
	00 97 3a 00 00	 mov	 DWORD PTR ?gCurPaintPlayer@@3HA, 14999 ; gCurPaintPlayer, 00003a97H
$LN11@WndProc:

; 1164 : 				break;

  018d9	e9 8f 00 00 00	 jmp	 $LN15@WndProc

; 1165 : 			case VK_F4 :
; 1166 : 				//GameMainServerCreate(WM_ASS_SERVERMSG, WM_ASS_CLIENTMSG);
; 1167 : 				//TestDSSend();
; 1168 : 				{
; 1169 : 				/*PMSG_IDPASS Msg;
; 1170 : 				strcpy(Msg.Id,"saemsong");
; 1171 : 				strcpy(Msg.Pass,"ssman");	
; 1172 : 				Msg.CliVersion[0] = szClientVersion[0];
; 1173 : 				Msg.CliVersion[1] = szClientVersion[1];
; 1174 : 				Msg.CliVersion[2] = szClientVersion[2];
; 1175 : 				CSPJoinIdPassRequest(&Msg, 0);
; 1176 : 				*/
; 1177 : 				}
; 1178 : 				break;

  018de	e9 8a 00 00 00	 jmp	 $LN15@WndProc
$LN9@WndProc:

; 1179 : 			case VK_F5 : 
; 1180 : 				gServerMaxUser-=10;

  018e3	a1 00 00 00 00	 mov	 eax, DWORD PTR ?gServerMaxUser@@3HA ; gServerMaxUser
  018e8	83 e8 0a	 sub	 eax, 10			; 0000000aH
  018eb	a3 00 00 00 00	 mov	 DWORD PTR ?gServerMaxUser@@3HA, eax ; gServerMaxUser

; 1181 : 				if( gServerMaxUser < 10 ) gServerMaxUser = 10;

  018f0	83 3d 00 00 00
	00 0a		 cmp	 DWORD PTR ?gServerMaxUser@@3HA, 10 ; gServerMaxUser, 0000000aH
  018f7	7d 0a		 jge	 SHORT $LN8@WndProc
  018f9	c7 05 00 00 00
	00 0a 00 00 00	 mov	 DWORD PTR ?gServerMaxUser@@3HA, 10 ; gServerMaxUser, 0000000aH
$LN8@WndProc:

; 1182 : 				break;

  01903	eb 68		 jmp	 SHORT $LN15@WndProc
$LN7@WndProc:

; 1183 : 			case VK_F6 :
; 1184 : 				gServerMaxUser+=10;

  01905	a1 00 00 00 00	 mov	 eax, DWORD PTR ?gServerMaxUser@@3HA ; gServerMaxUser
  0190a	83 c0 0a	 add	 eax, 10			; 0000000aH
  0190d	a3 00 00 00 00	 mov	 DWORD PTR ?gServerMaxUser@@3HA, eax ; gServerMaxUser

; 1185 : 				if( gServerMaxUser > 1500 ) gServerMaxUser = 1500;

  01912	81 3d 00 00 00
	00 dc 05 00 00	 cmp	 DWORD PTR ?gServerMaxUser@@3HA, 1500 ; gServerMaxUser, 000005dcH
  0191c	7e 0a		 jle	 SHORT $LN6@WndProc
  0191e	c7 05 00 00 00
	00 dc 05 00 00	 mov	 DWORD PTR ?gServerMaxUser@@3HA, 1500 ; gServerMaxUser, 000005dcH
$LN6@WndProc:

; 1186 : 				break;

  01928	eb 43		 jmp	 SHORT $LN15@WndProc
$LN5@WndProc:

; 1187 : 			case VK_F7 :
; 1188 : 				{
; 1189 : 					PMSG_CHARMAPJOIN Msg;
; 1190 : 					strcpy(Msg.Name,"抛胶飘");

  0192a	68 00 00 00 00	 push	 OFFSET ??_C@_06MMLDKFPE@?E?W?$LN?$LK?F?$KO?$AA@
  0192f	8d 85 94 fe ff
	ff		 lea	 eax, DWORD PTR _Msg$249368[ebp+4]
  01935	50		 push	 eax
  01936	e8 00 00 00 00	 call	 _strcpy
  0193b	83 c4 08	 add	 esp, 8

; 1191 : 					CGPCharacterMapJoinRequest(&Msg, 0);

  0193e	6a 00		 push	 0
  01940	8d 85 90 fe ff
	ff		 lea	 eax, DWORD PTR _Msg$249368[ebp]
  01946	50		 push	 eax
  01947	e8 00 00 00 00	 call	 ?CGPCharacterMapJoinRequest@@YAXPAUPMSG_CHARMAPJOIN@@H@Z ; CGPCharacterMapJoinRequest
  0194c	83 c4 08	 add	 esp, 8

; 1192 : 				}
; 1193 : 				break;

  0194f	eb 1c		 jmp	 SHORT $LN15@WndProc

; 1194 : 				case VK_F9 :				
; 1195 : 				#if( TESTSERVER == 1 )
; 1196 : 				{
; 1197 : 					TestDSSend();
; 1198 : 					PMSG_IDPASS pMsg;
; 1199 : 					for( int n=0; n<100; n++)
; 1200 : 					{
; 1201 : 						CSPJoinIdPassRequestTEST(&pMsg, 0);
; 1202 : 					}
; 1203 : 				}
; 1204 : 				#endif
; 1205 : 				break;

  01951	eb 1a		 jmp	 SHORT $LN15@WndProc
$LN3@WndProc:

; 1206 : 				case VK_F11:
; 1207 : 					{
; 1208 : 						DialogBox(hInst, (LPCTSTR)IDD_ABOUT_BOX, hWnd, (DLGPROC)About);

  01953	6a 00		 push	 0
  01955	68 00 00 00 00	 push	 OFFSET ?About@@YGJPAUHWND__@@IIJ@Z ; About
  0195a	8b 45 08	 mov	 eax, DWORD PTR _hWnd$[ebp]
  0195d	50		 push	 eax
  0195e	6a 67		 push	 103			; 00000067H
  01960	8b 0d 00 00 00
	00		 mov	 ecx, DWORD PTR ?hInst@@3PAUHINSTANCE__@@A ; hInst
  01966	51		 push	 ecx
  01967	ff 15 00 00 00
	00		 call	 DWORD PTR __imp__DialogBoxParamA@20
$LN15@WndProc:

; 1209 : 					}
; 1210 : 					break;
; 1211 : 			}
; 1212 : 			break;

  0196d	eb 2c		 jmp	 SHORT $LN175@WndProc
$LN2@WndProc:

; 1213 : 		case WM_DESTROY:
; 1214 : 			GameMainFree();

  0196f	e8 00 00 00 00	 call	 ?GameMainFree@@YAXXZ	; GameMainFree

; 1215 : 			GiocpDelete();

  01974	e8 00 00 00 00	 call	 ?GiocpDelete@@YAXXZ	; GiocpDelete

; 1216 : 			PostQuitMessage(0);

  01979	6a 00		 push	 0
  0197b	ff 15 00 00 00
	00		 call	 DWORD PTR __imp__PostQuitMessage@4

; 1217 : 			break;

  01981	eb 18		 jmp	 SHORT $LN175@WndProc
$LN1@WndProc:

; 1218 : 		default:
; 1219 : 			return DefWindowProc(hWnd, message, wParam, lParam);

  01983	8b 45 14	 mov	 eax, DWORD PTR _lParam$[ebp]
  01986	50		 push	 eax
  01987	8b 4d 10	 mov	 ecx, DWORD PTR _wParam$[ebp]
  0198a	51		 push	 ecx
  0198b	8b 55 0c	 mov	 edx, DWORD PTR _message$[ebp]
  0198e	52		 push	 edx
  0198f	8b 45 08	 mov	 eax, DWORD PTR _hWnd$[ebp]
  01992	50		 push	 eax
  01993	ff 15 00 00 00
	00		 call	 DWORD PTR __imp__DefWindowProcA@16
  01999	eb 02		 jmp	 SHORT $LN178@WndProc
$LN175@WndProc:

; 1220 :    }
; 1221 :    return 0;

  0199b	33 c0		 xor	 eax, eax
$LN178@WndProc:

; 1222 : }

  0199d	8b 4d f4	 mov	 ecx, DWORD PTR __$EHRec$[ebp]
  019a0	64 89 0d 00 00
	00 00		 mov	 DWORD PTR fs:0, ecx
  019a7	59		 pop	 ecx
  019a8	5f		 pop	 edi
  019a9	5e		 pop	 esi
  019aa	5b		 pop	 ebx
  019ab	8b 4d f0	 mov	 ecx, DWORD PTR __$ArrayPad$[ebp]
  019ae	33 cd		 xor	 ecx, ebp
  019b0	e8 00 00 00 00	 call	 @__security_check_cookie@4
  019b5	8b e5		 mov	 esp, ebp
  019b7	5d		 pop	 ebp
  019b8	c2 10 00	 ret	 16			; 00000010H
  019bb	90		 npad	 1
$LN188@WndProc:
  019bc	00 00 00 00	 DD	 $LN106@WndProc
  019c0	00 00 00 00	 DD	 $LN105@WndProc
  019c4	00 00 00 00	 DD	 $LN1@WndProc
  019c8	00 00 00 00	 DD	 $LN99@WndProc
  019cc	00 00 00 00	 DD	 $LN1@WndProc
  019d0	00 00 00 00	 DD	 $LN1@WndProc
  019d4	00 00 00 00	 DD	 $LN1@WndProc
  019d8	00 00 00 00	 DD	 $LN1@WndProc
  019dc	00 00 00 00	 DD	 $LN102@WndProc
  019e0	00 00 00 00	 DD	 $LN101@WndProc
  019e4	00 00 00 00	 DD	 $LN104@WndProc
  019e8	00 00 00 00	 DD	 $LN103@WndProc
  019ec	00 00 00 00	 DD	 $LN100@WndProc
$LN189@WndProc:
  019f0	00 00 00 00	 DD	 $LN154@WndProc
  019f4	00 00 00 00	 DD	 $LN153@WndProc
  019f8	00 00 00 00	 DD	 $LN164@WndProc
  019fc	00 00 00 00	 DD	 $LN108@WndProc
  01a00	00 00 00 00	 DD	 $LN108@WndProc
  01a04	00 00 00 00	 DD	 $LN152@WndProc
  01a08	00 00 00 00	 DD	 $LN108@WndProc
  01a0c	00 00 00 00	 DD	 $LN156@WndProc
  01a10	00 00 00 00	 DD	 $LN168@WndProc
  01a14	00 00 00 00	 DD	 $LN167@WndProc
  01a18	00 00 00 00	 DD	 $LN166@WndProc
  01a1c	00 00 00 00	 DD	 $LN108@WndProc
  01a20	00 00 00 00	 DD	 $LN140@WndProc
  01a24	00 00 00 00	 DD	 $LN138@WndProc
  01a28	00 00 00 00	 DD	 $LN136@WndProc
  01a2c	00 00 00 00	 DD	 $LN151@WndProc
  01a30	00 00 00 00	 DD	 $LN159@WndProc
  01a34	00 00 00 00	 DD	 $LN158@WndProc
  01a38	00 00 00 00	 DD	 $LN149@WndProc
  01a3c	00 00 00 00	 DD	 $LN143@WndProc
  01a40	00 00 00 00	 DD	 $LN146@WndProc
  01a44	00 00 00 00	 DD	 $LN134@WndProc
  01a48	00 00 00 00	 DD	 $LN133@WndProc
  01a4c	00 00 00 00	 DD	 $LN132@WndProc
  01a50	00 00 00 00	 DD	 $LN108@WndProc
  01a54	00 00 00 00	 DD	 $LN131@WndProc
  01a58	00 00 00 00	 DD	 $LN130@WndProc
  01a5c	00 00 00 00	 DD	 $LN129@WndProc
  01a60	00 00 00 00	 DD	 $LN108@WndProc
  01a64	00 00 00 00	 DD	 $LN128@WndProc
  01a68	00 00 00 00	 DD	 $LN127@WndProc
  01a6c	00 00 00 00	 DD	 $LN126@WndProc
  01a70	00 00 00 00	 DD	 $LN125@WndProc
  01a74	00 00 00 00	 DD	 $LN124@WndProc
  01a78	00 00 00 00	 DD	 $LN123@WndProc
  01a7c	00 00 00 00	 DD	 $LN118@WndProc
  01a80	00 00 00 00	 DD	 $LN117@WndProc
  01a84	00 00 00 00	 DD	 $LN116@WndProc
  01a88	00 00 00 00	 DD	 $LN115@WndProc
  01a8c	00 00 00 00	 DD	 $LN113@WndProc
  01a90	00 00 00 00	 DD	 $LN112@WndProc
  01a94	00 00 00 00	 DD	 $LN111@WndProc
  01a98	00 00 00 00	 DD	 $LN114@WndProc
  01a9c	00 00 00 00	 DD	 $LN110@WndProc
  01aa0	00 00 00 00	 DD	 $LN109@WndProc
  01aa4	00 00 00 00	 DD	 $LN122@WndProc
  01aa8	00 00 00 00	 DD	 $LN162@WndProc
  01aac	00 00 00 00	 DD	 $LN163@WndProc
  01ab0	00 00 00 00	 DD	 $LN155@WndProc
  01ab4	00 00 00 00	 DD	 $LN108@WndProc
  01ab8	00 00 00 00	 DD	 $LN150@WndProc
  01abc	00 00 00 00	 DD	 $LN121@WndProc
  01ac0	00 00 00 00	 DD	 $LN120@WndProc
  01ac4	00 00 00 00	 DD	 $LN119@WndProc
  01ac8	00 00 00 00	 DD	 $LN108@WndProc
  01acc	00 00 00 00	 DD	 $LN157@WndProc
$LN190@WndProc:
  01ad0	00 00 00 00	 DD	 $LN40@WndProc
  01ad4	00 00 00 00	 DD	 $LN48@WndProc
  01ad8	00 00 00 00	 DD	 $LN38@WndProc
  01adc	00 00 00 00	 DD	 $LN88@WndProc
  01ae0	00 00 00 00	 DD	 $LN89@WndProc
  01ae4	00 00 00 00	 DD	 $LN90@WndProc
  01ae8	00 00 00 00	 DD	 $LN39@WndProc
  01aec	00 00 00 00	 DD	 $LN94@WndProc
  01af0	00 00 00 00	 DD	 $LN95@WndProc
  01af4	00 00 00 00	 DD	 $LN87@WndProc
  01af8	00 00 00 00	 DD	 $LN36@WndProc
  01afc	00 00 00 00	 DD	 $LN34@WndProc
  01b00	00 00 00 00	 DD	 $LN35@WndProc
  01b04	00 00 00 00	 DD	 $LN29@WndProc
  01b08	00 00 00 00	 DD	 $LN28@WndProc
  01b0c	00 00 00 00	 DD	 $LN27@WndProc
  01b10	00 00 00 00	 DD	 $LN23@WndProc
$LN191@WndProc:
  01b14	00 00 00 00	 DD	 $LN14@WndProc
  01b18	00 00 00 00	 DD	 $LN12@WndProc
  01b1c	00 00 00 00	 DD	 $LN15@WndProc
  01b20	00 00 00 00	 DD	 $LN15@WndProc
  01b24	00 00 00 00	 DD	 $LN9@WndProc
  01b28	00 00 00 00	 DD	 $LN7@WndProc
  01b2c	00 00 00 00	 DD	 $LN5@WndProc
  01b30	00 00 00 00	 DD	 $LN15@WndProc
  01b34	00 00 00 00	 DD	 $LN15@WndProc
  01b38	00 00 00 00	 DD	 $LN15@WndProc
  01b3c	00 00 00 00	 DD	 $LN3@WndProc
_TEXT	ENDS
text$x	SEGMENT
__unwindfunclet$?WndProc@@YGJPAUHWND__@@IIJ@Z$0:
  00000	8d 4d e4	 lea	 ecx, DWORD PTR _closeplayer$249174[ebp]
  00003	e9 00 00 00 00	 jmp	 ??1Ccloseplayer@@UAE@XZ	; Ccloseplayer::~Ccloseplayer
__ehhandler$?WndProc@@YGJPAUHWND__@@IIJ@Z:
  00008	8b 54 24 08	 mov	 edx, DWORD PTR [esp+8]
  0000c	8d 42 0c	 lea	 eax, DWORD PTR [edx+12]
  0000f	8b 8a 48 fe ff
	ff		 mov	 ecx, DWORD PTR [edx-440]
  00015	33 c8		 xor	 ecx, eax
  00017	e8 00 00 00 00	 call	 @__security_check_cookie@4
  0001c	8b 4a fc	 mov	 ecx, DWORD PTR [edx-4]
  0001f	33 c8		 xor	 ecx, eax
  00021	e8 00 00 00 00	 call	 @__security_check_cookie@4
  00026	b8 00 00 00 00	 mov	 eax, OFFSET __ehfuncinfo$?WndProc@@YGJPAUHWND__@@IIJ@Z
  0002b	e9 00 00 00 00	 jmp	 ___CxxFrameHandler3
text$x	ENDS
?WndProc@@YGJPAUHWND__@@IIJ@Z ENDP			; WndProc
; Function compile flags: /Odtp /ZI
; File d:\projects\exteam6.3\source\gameserver\gameserver\dragonevent.h
;	COMDAT ?GetState@CDragonEvent@@QAEEXZ
_TEXT	SEGMENT
_this$ = -4						; size = 4
?GetState@CDragonEvent@@QAEEXZ PROC			; CDragonEvent::GetState, COMDAT
; _this$ = ecx

; 16   : 	BYTE GetState(){return this->EventState;}

  00000	55		 push	 ebp
  00001	8b ec		 mov	 ebp, esp
  00003	83 ec 44	 sub	 esp, 68			; 00000044H
  00006	53		 push	 ebx
  00007	56		 push	 esi
  00008	57		 push	 edi
  00009	89 4d fc	 mov	 DWORD PTR _this$[ebp], ecx
  0000c	8b 45 fc	 mov	 eax, DWORD PTR _this$[ebp]
  0000f	8a 40 04	 mov	 al, BYTE PTR [eax+4]
  00012	5f		 pop	 edi
  00013	5e		 pop	 esi
  00014	5b		 pop	 ebx
  00015	8b e5		 mov	 esp, ebp
  00017	5d		 pop	 ebp
  00018	c3		 ret	 0
?GetState@CDragonEvent@@QAEEXZ ENDP			; CDragonEvent::GetState
; Function compile flags: /Odtp /ZI
; File d:\projects\exteam6.3\source\gameserver\gameserver\castlesiege.h
_TEXT	ENDS
;	COMDAT ?GetDataLoadState@CCastleSiege@@QAEHXZ
_TEXT	SEGMENT
_this$ = -4						; size = 4
?GetDataLoadState@CCastleSiege@@QAEHXZ PROC		; CCastleSiege::GetDataLoadState, COMDAT
; _this$ = ecx

; 282  : 	int GetDataLoadState(){return m_iCastleDataLoadState;}

  00000	55		 push	 ebp
  00001	8b ec		 mov	 ebp, esp
  00003	83 ec 44	 sub	 esp, 68			; 00000044H
  00006	53		 push	 ebx
  00007	56		 push	 esi
  00008	57		 push	 edi
  00009	89 4d fc	 mov	 DWORD PTR _this$[ebp], ecx
  0000c	8b 45 fc	 mov	 eax, DWORD PTR _this$[ebp]
  0000f	8b 40 1c	 mov	 eax, DWORD PTR [eax+28]
  00012	5f		 pop	 edi
  00013	5e		 pop	 esi
  00014	5b		 pop	 ebx
  00015	8b e5		 mov	 esp, ebp
  00017	5d		 pop	 ebp
  00018	c3		 ret	 0
?GetDataLoadState@CCastleSiege@@QAEHXZ ENDP		; CCastleSiege::GetDataLoadState
; Function compile flags: /Odtp /ZI
_TEXT	ENDS
;	COMDAT ?SetDataLoadState@CCastleSiege@@QAEXH@Z
_TEXT	SEGMENT
_this$ = -4						; size = 4
_iDataLoadState$ = 8					; size = 4
?SetDataLoadState@CCastleSiege@@QAEXH@Z PROC		; CCastleSiege::SetDataLoadState, COMDAT
; _this$ = ecx

; 283  : 	void SetDataLoadState(int iDataLoadState){m_iCastleDataLoadState = iDataLoadState;}

  00000	55		 push	 ebp
  00001	8b ec		 mov	 ebp, esp
  00003	83 ec 44	 sub	 esp, 68			; 00000044H
  00006	53		 push	 ebx
  00007	56		 push	 esi
  00008	57		 push	 edi
  00009	89 4d fc	 mov	 DWORD PTR _this$[ebp], ecx
  0000c	8b 45 fc	 mov	 eax, DWORD PTR _this$[ebp]
  0000f	8b 4d 08	 mov	 ecx, DWORD PTR _iDataLoadState$[ebp]
  00012	89 48 1c	 mov	 DWORD PTR [eax+28], ecx
  00015	5f		 pop	 edi
  00016	5e		 pop	 esi
  00017	5b		 pop	 ebx
  00018	8b e5		 mov	 esp, ebp
  0001a	5d		 pop	 ebp
  0001b	c2 04 00	 ret	 4
?SetDataLoadState@CCastleSiege@@QAEXH@Z ENDP		; CCastleSiege::SetDataLoadState
; Function compile flags: /Odtp /ZI
; File d:\projects\exteam6.3\source\gameserver\gameserver\dbsockmng.h
_TEXT	ENDS
;	COMDAT ?GetActiveDS@DBSockMng@@QAEHXZ
_TEXT	SEGMENT
_this$ = -4						; size = 4
?GetActiveDS@DBSockMng@@QAEHXZ PROC			; DBSockMng::GetActiveDS, COMDAT
; _this$ = ecx

; 29   : 	int GetActiveDS(){return m_ActiveServer;}

  00000	55		 push	 ebp
  00001	8b ec		 mov	 ebp, esp
  00003	83 ec 44	 sub	 esp, 68			; 00000044H
  00006	53		 push	 ebx
  00007	56		 push	 esi
  00008	57		 push	 edi
  00009	89 4d fc	 mov	 DWORD PTR _this$[ebp], ecx
  0000c	8b 45 fc	 mov	 eax, DWORD PTR _this$[ebp]
  0000f	8b 80 54 00 32
	00		 mov	 eax, DWORD PTR [eax+3276884]
  00015	5f		 pop	 edi
  00016	5e		 pop	 esi
  00017	5b		 pop	 ebx
  00018	8b e5		 mov	 esp, ebp
  0001a	5d		 pop	 ebp
  0001b	c3		 ret	 0
?GetActiveDS@DBSockMng@@QAEHXZ ENDP			; DBSockMng::GetActiveDS
; Function compile flags: /Odtp /ZI
; File d:\projects\exteam6.3\source\gameserver\gameserver\mapservermanager.h
_TEXT	ENDS
;	COMDAT ?GetMapSvrGroup@CMapServerManager@@QAEHXZ
_TEXT	SEGMENT
_this$ = -4						; size = 4
?GetMapSvrGroup@CMapServerManager@@QAEHXZ PROC		; CMapServerManager::GetMapSvrGroup, COMDAT
; _this$ = ecx

; 49   : 	{

  00000	55		 push	 ebp
  00001	8b ec		 mov	 ebp, esp
  00003	83 ec 44	 sub	 esp, 68			; 00000044H
  00006	53		 push	 ebx
  00007	56		 push	 esi
  00008	57		 push	 edi
  00009	89 4d fc	 mov	 DWORD PTR _this$[ebp], ecx

; 50   : 		if ( this->m_lpThisMapSvrData != NULL )

  0000c	8b 45 fc	 mov	 eax, DWORD PTR _this$[ebp]
  0000f	83 b8 c0 4b 01
	00 00		 cmp	 DWORD PTR [eax+84928], 0
  00016	74 0f		 je	 SHORT $LN1@GetMapSvrG

; 51   : 		{
; 52   : 			return m_lpThisMapSvrData->m_btMAPSVR_GROUP;

  00018	8b 45 fc	 mov	 eax, DWORD PTR _this$[ebp]
  0001b	8b 88 c0 4b 01
	00		 mov	 ecx, DWORD PTR [eax+84928]
  00021	0f b6 41 08	 movzx	 eax, BYTE PTR [ecx+8]
  00025	eb 03		 jmp	 SHORT $LN2@GetMapSvrG
$LN1@GetMapSvrG:

; 53   : 		}
; 54   : 		return -1;

  00027	83 c8 ff	 or	 eax, -1
$LN2@GetMapSvrG:

; 55   : 	}

  0002a	5f		 pop	 edi
  0002b	5e		 pop	 esi
  0002c	5b		 pop	 ebx
  0002d	8b e5		 mov	 esp, ebp
  0002f	5d		 pop	 ebp
  00030	c3		 ret	 0
?GetMapSvrGroup@CMapServerManager@@QAEHXZ ENDP		; CMapServerManager::GetMapSvrGroup
_TEXT	ENDS
EXTRN	__imp__EndDialog@8:PROC
; Function compile flags: /Odtp /ZI
; File d:\projects\exteam6.3\source\gameserver\gameserver\gameserver.cpp
_TEXT	SEGMENT
tv64 = -68						; size = 4
_hDlg$ = 8						; size = 4
_message$ = 12						; size = 4
_wParam$ = 16						; size = 4
_lParam$ = 20						; size = 4
?About@@YGJPAUHWND__@@IIJ@Z PROC			; About

; 1225 : {

  01b40	55		 push	 ebp
  01b41	8b ec		 mov	 ebp, esp
  01b43	83 ec 44	 sub	 esp, 68			; 00000044H
  01b46	53		 push	 ebx
  01b47	56		 push	 esi
  01b48	57		 push	 edi

; 1226 : 	switch (message)

  01b49	8b 45 0c	 mov	 eax, DWORD PTR _message$[ebp]
  01b4c	89 45 bc	 mov	 DWORD PTR tv64[ebp], eax
  01b4f	81 7d bc 10 01
	00 00		 cmp	 DWORD PTR tv64[ebp], 272 ; 00000110H
  01b56	74 0b		 je	 SHORT $LN4@About
  01b58	81 7d bc 11 01
	00 00		 cmp	 DWORD PTR tv64[ebp], 273 ; 00000111H
  01b5f	74 09		 je	 SHORT $LN3@About
  01b61	eb 4a		 jmp	 SHORT $LN5@About
$LN4@About:

; 1227 : 	{
; 1228 : 		case WM_INITDIALOG:
; 1229 : 				return TRUE;

  01b63	b8 01 00 00 00	 mov	 eax, 1
  01b68	eb 45		 jmp	 SHORT $LN7@About
$LN3@About:

; 1230 : 
; 1231 : 		case WM_COMMAND:
; 1232 : 			if ( ( wParam & 0xFFFF & 0xFFFF ) == IDOK || (wParam & 0xFFFF & 0xFFFF ) == IDCANCEL) 

  01b6a	8b 45 10	 mov	 eax, DWORD PTR _wParam$[ebp]
  01b6d	25 ff ff 00 00	 and	 eax, 65535		; 0000ffffH
  01b72	25 ff ff 00 00	 and	 eax, 65535		; 0000ffffH
  01b77	83 f8 01	 cmp	 eax, 1
  01b7a	74 12		 je	 SHORT $LN1@About
  01b7c	8b 45 10	 mov	 eax, DWORD PTR _wParam$[ebp]
  01b7f	25 ff ff 00 00	 and	 eax, 65535		; 0000ffffH
  01b84	25 ff ff 00 00	 and	 eax, 65535		; 0000ffffH
  01b89	83 f8 02	 cmp	 eax, 2
  01b8c	75 1f		 jne	 SHORT $LN5@About
$LN1@About:

; 1233 : 			{
; 1234 : 				EndDialog(hDlg, (wParam& 0xFFFF & 0xFFFF ));

  01b8e	8b 45 10	 mov	 eax, DWORD PTR _wParam$[ebp]
  01b91	25 ff ff 00 00	 and	 eax, 65535		; 0000ffffH
  01b96	25 ff ff 00 00	 and	 eax, 65535		; 0000ffffH
  01b9b	50		 push	 eax
  01b9c	8b 4d 08	 mov	 ecx, DWORD PTR _hDlg$[ebp]
  01b9f	51		 push	 ecx
  01ba0	ff 15 00 00 00
	00		 call	 DWORD PTR __imp__EndDialog@8

; 1235 : 				return TRUE;

  01ba6	b8 01 00 00 00	 mov	 eax, 1
  01bab	eb 02		 jmp	 SHORT $LN7@About
$LN5@About:

; 1236 : 			}
; 1237 : 			break;
; 1238 : 	}
; 1239 :     return FALSE;

  01bad	33 c0		 xor	 eax, eax
$LN7@About:

; 1240 : }

  01baf	5f		 pop	 edi
  01bb0	5e		 pop	 esi
  01bb1	5b		 pop	 ebx
  01bb2	8b e5		 mov	 esp, ebp
  01bb4	5d		 pop	 ebp
  01bb5	c2 10 00	 ret	 16			; 00000010H
?About@@YGJPAUHWND__@@IIJ@Z ENDP			; About
_TEXT	ENDS
PUBLIC	__$ArrayPad$
EXTRN	__imp__MoveWindow@24:PROC
; Function compile flags: /Odtp /ZI
_TEXT	SEGMENT
tv64 = -88						; size = 4
_pRect$249403 = -20					; size = 16
__$ArrayPad$ = -4					; size = 4
_hWnd$ = 8						; size = 4
_uMessage$ = 12						; size = 4
_wParam$ = 16						; size = 4
_lParam$ = 20						; size = 4
?CsLogDlgProc@@YGHPAUHWND__@@IIJ@Z PROC			; CsLogDlgProc

; 1244 : {

  01bc0	55		 push	 ebp
  01bc1	8b ec		 mov	 ebp, esp
  01bc3	83 ec 58	 sub	 esp, 88			; 00000058H
  01bc6	a1 00 00 00 00	 mov	 eax, DWORD PTR ___security_cookie
  01bcb	33 c5		 xor	 eax, ebp
  01bcd	89 45 fc	 mov	 DWORD PTR __$ArrayPad$[ebp], eax
  01bd0	53		 push	 ebx
  01bd1	56		 push	 esi
  01bd2	57		 push	 edi

; 1245 : 	switch ( uMessage )

  01bd3	8b 45 0c	 mov	 eax, DWORD PTR _uMessage$[ebp]
  01bd6	89 45 a8	 mov	 DWORD PTR tv64[ebp], eax
  01bd9	83 7d a8 05	 cmp	 DWORD PTR tv64[ebp], 5
  01bdd	74 36		 je	 SHORT $LN1@CsLogDlgPr
  01bdf	83 7d a8 10	 cmp	 DWORD PTR tv64[ebp], 16	; 00000010H
  01be3	74 1d		 je	 SHORT $LN2@CsLogDlgPr
  01be5	81 7d a8 10 01
	00 00		 cmp	 DWORD PTR tv64[ebp], 272 ; 00000110H
  01bec	74 02		 je	 SHORT $LN3@CsLogDlgPr
  01bee	eb 62		 jmp	 SHORT $LN4@CsLogDlgPr
$LN3@CsLogDlgPr:

; 1246 : 	{
; 1247 : 		case WM_INITDIALOG:	
; 1248 : 			SendMessage(hWnd, WM_SIZE, 0, 0);

  01bf0	6a 00		 push	 0
  01bf2	6a 00		 push	 0
  01bf4	6a 05		 push	 5
  01bf6	8b 45 08	 mov	 eax, DWORD PTR _hWnd$[ebp]
  01bf9	50		 push	 eax
  01bfa	ff 15 00 00 00
	00		 call	 DWORD PTR __imp__SendMessageA@16

; 1249 : 			break;

  01c00	eb 50		 jmp	 SHORT $LN4@CsLogDlgPr
$LN2@CsLogDlgPr:

; 1250 : 		case WM_CLOSE:
; 1251 : 			ShowWindow(hWnd, SW_HIDE);

  01c02	6a 00		 push	 0
  01c04	8b 45 08	 mov	 eax, DWORD PTR _hWnd$[ebp]
  01c07	50		 push	 eax
  01c08	ff 15 00 00 00
	00		 call	 DWORD PTR __imp__ShowWindow@8

; 1252 : 			return TRUE;

  01c0e	b8 01 00 00 00	 mov	 eax, 1
  01c13	eb 3f		 jmp	 SHORT $LN6@CsLogDlgPr
$LN1@CsLogDlgPr:

; 1253 : 		case WM_SIZE:
; 1254 : 			{
; 1255 : 				RECT pRect;
; 1256 : 				GetClientRect(hWnd, &pRect);

  01c15	8d 45 ec	 lea	 eax, DWORD PTR _pRect$249403[ebp]
  01c18	50		 push	 eax
  01c19	8b 4d 08	 mov	 ecx, DWORD PTR _hWnd$[ebp]
  01c1c	51		 push	 ecx
  01c1d	ff 15 00 00 00
	00		 call	 DWORD PTR __imp__GetClientRect@8

; 1257 : 				MoveWindow(GetDlgItem(hWnd, IDE_EDIT_LOG), pRect.left, pRect.top, pRect.right, pRect.bottom, TRUE);

  01c23	6a 01		 push	 1
  01c25	8b 45 f8	 mov	 eax, DWORD PTR _pRect$249403[ebp+12]
  01c28	50		 push	 eax
  01c29	8b 4d f4	 mov	 ecx, DWORD PTR _pRect$249403[ebp+8]
  01c2c	51		 push	 ecx
  01c2d	8b 55 f0	 mov	 edx, DWORD PTR _pRect$249403[ebp+4]
  01c30	52		 push	 edx
  01c31	8b 45 ec	 mov	 eax, DWORD PTR _pRect$249403[ebp]
  01c34	50		 push	 eax
  01c35	68 eb 03 00 00	 push	 1003			; 000003ebH
  01c3a	8b 4d 08	 mov	 ecx, DWORD PTR _hWnd$[ebp]
  01c3d	51		 push	 ecx
  01c3e	ff 15 00 00 00
	00		 call	 DWORD PTR __imp__GetDlgItem@8
  01c44	50		 push	 eax
  01c45	ff 15 00 00 00
	00		 call	 DWORD PTR __imp__MoveWindow@24

; 1258 : 			}
; 1259 : 			return TRUE;

  01c4b	b8 01 00 00 00	 mov	 eax, 1
  01c50	eb 02		 jmp	 SHORT $LN6@CsLogDlgPr
$LN4@CsLogDlgPr:

; 1260 : 	}
; 1261 : 	return FALSE;

  01c52	33 c0		 xor	 eax, eax
$LN6@CsLogDlgPr:

; 1262 : }

  01c54	5f		 pop	 edi
  01c55	5e		 pop	 esi
  01c56	5b		 pop	 ebx
  01c57	8b 4d fc	 mov	 ecx, DWORD PTR __$ArrayPad$[ebp]
  01c5a	33 cd		 xor	 ecx, ebp
  01c5c	e8 00 00 00 00	 call	 @__security_check_cookie@4
  01c61	8b e5		 mov	 esp, ebp
  01c63	5d		 pop	 ebp
  01c64	c2 10 00	 ret	 16			; 00000010H
?CsLogDlgProc@@YGHPAUHWND__@@IIJ@Z ENDP			; CsLogDlgProc
_TEXT	ENDS
EXTRN	_atexit:PROC
EXTRN	??0CRingMonsterHerd@@QAE@XZ:PROC		; CRingMonsterHerd::CRingMonsterHerd
; Function compile flags: /Odtp /ZI
;	COMDAT ??__Eg_MonsterHerdTest@@YAXXZ
text$yc	SEGMENT
??__Eg_MonsterHerdTest@@YAXXZ PROC			; `dynamic initializer for 'g_MonsterHerdTest'', COMDAT

; 99   : CRingMonsterHerd g_MonsterHerdTest;

  00000	55		 push	 ebp
  00001	8b ec		 mov	 ebp, esp
  00003	83 ec 40	 sub	 esp, 64			; 00000040H
  00006	53		 push	 ebx
  00007	56		 push	 esi
  00008	57		 push	 edi
  00009	b9 00 00 00 00	 mov	 ecx, OFFSET ?g_MonsterHerdTest@@3VCRingMonsterHerd@@A ; g_MonsterHerdTest
  0000e	e8 00 00 00 00	 call	 ??0CRingMonsterHerd@@QAE@XZ ; CRingMonsterHerd::CRingMonsterHerd
  00013	68 00 00 00 00	 push	 OFFSET ??__Fg_MonsterHerdTest@@YAXXZ ; `dynamic atexit destructor for 'g_MonsterHerdTest''
  00018	e8 00 00 00 00	 call	 _atexit
  0001d	83 c4 04	 add	 esp, 4
  00020	5f		 pop	 edi
  00021	5e		 pop	 esi
  00022	5b		 pop	 ebx
  00023	8b e5		 mov	 esp, ebp
  00025	5d		 pop	 ebp
  00026	c3		 ret	 0
??__Eg_MonsterHerdTest@@YAXXZ ENDP			; `dynamic initializer for 'g_MonsterHerdTest''
text$yc	ENDS
EXTRN	??0CRingAttackEvent@@QAE@XZ:PROC		; CRingAttackEvent::CRingAttackEvent
; Function compile flags: /Odtp /ZI
;	COMDAT ??__Eg_RingAttackEvent@@YAXXZ
text$yc	SEGMENT
??__Eg_RingAttackEvent@@YAXXZ PROC			; `dynamic initializer for 'g_RingAttackEvent'', COMDAT

; 100  : CRingAttackEvent g_RingAttackEvent;

  00000	55		 push	 ebp
  00001	8b ec		 mov	 ebp, esp
  00003	83 ec 40	 sub	 esp, 64			; 00000040H
  00006	53		 push	 ebx
  00007	56		 push	 esi
  00008	57		 push	 edi
  00009	b9 00 00 00 00	 mov	 ecx, OFFSET ?g_RingAttackEvent@@3VCRingAttackEvent@@A ; g_RingAttackEvent
  0000e	e8 00 00 00 00	 call	 ??0CRingAttackEvent@@QAE@XZ ; CRingAttackEvent::CRingAttackEvent
  00013	68 00 00 00 00	 push	 OFFSET ??__Fg_RingAttackEvent@@YAXXZ ; `dynamic atexit destructor for 'g_RingAttackEvent''
  00018	e8 00 00 00 00	 call	 _atexit
  0001d	83 c4 04	 add	 esp, 4
  00020	5f		 pop	 edi
  00021	5e		 pop	 esi
  00022	5b		 pop	 ebx
  00023	8b e5		 mov	 esp, ebp
  00025	5d		 pop	 ebp
  00026	c3		 ret	 0
??__Eg_RingAttackEvent@@YAXXZ ENDP			; `dynamic initializer for 'g_RingAttackEvent''
text$yc	ENDS
EXTRN	??0CXMasAttackEvent@@QAE@XZ:PROC		; CXMasAttackEvent::CXMasAttackEvent
; Function compile flags: /Odtp /ZI
;	COMDAT ??__Eg_XMasAttackEvent@@YAXXZ
text$yc	SEGMENT
??__Eg_XMasAttackEvent@@YAXXZ PROC			; `dynamic initializer for 'g_XMasAttackEvent'', COMDAT

; 101  : CXMasAttackEvent g_XMasAttackEvent;

  00000	55		 push	 ebp
  00001	8b ec		 mov	 ebp, esp
  00003	83 ec 40	 sub	 esp, 64			; 00000040H
  00006	53		 push	 ebx
  00007	56		 push	 esi
  00008	57		 push	 edi
  00009	b9 00 00 00 00	 mov	 ecx, OFFSET ?g_XMasAttackEvent@@3VCXMasAttackEvent@@A ; g_XMasAttackEvent
  0000e	e8 00 00 00 00	 call	 ??0CXMasAttackEvent@@QAE@XZ ; CXMasAttackEvent::CXMasAttackEvent
  00013	68 00 00 00 00	 push	 OFFSET ??__Fg_XMasAttackEvent@@YAXXZ ; `dynamic atexit destructor for 'g_XMasAttackEvent''
  00018	e8 00 00 00 00	 call	 _atexit
  0001d	83 c4 04	 add	 esp, 4
  00020	5f		 pop	 edi
  00021	5e		 pop	 esi
  00022	5b		 pop	 ebx
  00023	8b e5		 mov	 esp, ebp
  00025	5d		 pop	 ebp
  00026	c3		 ret	 0
??__Eg_XMasAttackEvent@@YAXXZ ENDP			; `dynamic initializer for 'g_XMasAttackEvent''
text$yc	ENDS
EXTRN	??0CWhatsUpDummyServer@@QAE@XZ:PROC		; CWhatsUpDummyServer::CWhatsUpDummyServer
; Function compile flags: /Odtp /ZI
;	COMDAT ??__EgWhatsUpDummyServer@@YAXXZ
text$yc	SEGMENT
??__EgWhatsUpDummyServer@@YAXXZ PROC			; `dynamic initializer for 'gWhatsUpDummyServer'', COMDAT

; 102  : CWhatsUpDummyServer gWhatsUpDummyServer;

  00000	55		 push	 ebp
  00001	8b ec		 mov	 ebp, esp
  00003	83 ec 40	 sub	 esp, 64			; 00000040H
  00006	53		 push	 ebx
  00007	56		 push	 esi
  00008	57		 push	 edi
  00009	b9 00 00 00 00	 mov	 ecx, OFFSET ?gWhatsUpDummyServer@@3VCWhatsUpDummyServer@@A ; gWhatsUpDummyServer
  0000e	e8 00 00 00 00	 call	 ??0CWhatsUpDummyServer@@QAE@XZ ; CWhatsUpDummyServer::CWhatsUpDummyServer
  00013	68 00 00 00 00	 push	 OFFSET ??__FgWhatsUpDummyServer@@YAXXZ ; `dynamic atexit destructor for 'gWhatsUpDummyServer''
  00018	e8 00 00 00 00	 call	 _atexit
  0001d	83 c4 04	 add	 esp, 4
  00020	5f		 pop	 edi
  00021	5e		 pop	 esi
  00022	5b		 pop	 ebx
  00023	8b e5		 mov	 esp, ebp
  00025	5d		 pop	 ebp
  00026	c3		 ret	 0
??__EgWhatsUpDummyServer@@YAXXZ ENDP			; `dynamic initializer for 'gWhatsUpDummyServer''
text$yc	ENDS
PUBLIC	??_C@_06MLPMCPDE@ExTeam?$AA@			; `string'
PUBLIC	??_C@_08DOELPLFP@NsEngine?$AA@			; `string'
PUBLIC	??_C@_0BM@LMFNOFKJ@?4?4?2Data?2ExData?2ExCustom?4ini?$AA@ ; `string'
;	COMDAT ??_C@_06MLPMCPDE@ExTeam?$AA@
CONST	SEGMENT
??_C@_06MLPMCPDE@ExTeam?$AA@ DB 'ExTeam', 00H		; `string'
CONST	ENDS
;	COMDAT ??_C@_08DOELPLFP@NsEngine?$AA@
CONST	SEGMENT
??_C@_08DOELPLFP@NsEngine?$AA@ DB 'NsEngine', 00H	; `string'
CONST	ENDS
;	COMDAT ??_C@_0BM@LMFNOFKJ@?4?4?2Data?2ExData?2ExCustom?4ini?$AA@
CONST	SEGMENT
??_C@_0BM@LMFNOFKJ@?4?4?2Data?2ExData?2ExCustom?4ini?$AA@ DB '..\Data\ExD'
	DB	'ata\ExCustom.ini', 00H			; `string'
; Function compile flags: /Odtp /ZI
CONST	ENDS
;	COMDAT ??__ENsEngine@@YAXXZ
text$yc	SEGMENT
??__ENsEngine@@YAXXZ PROC				; `dynamic initializer for 'NsEngine'', COMDAT

; 118  : bool NsEngine = GetPrivateProfileInt("ExTeam","NsEngine",0,ExCustom_DIR);

  00000	55		 push	 ebp
  00001	8b ec		 mov	 ebp, esp
  00003	83 ec 40	 sub	 esp, 64			; 00000040H
  00006	53		 push	 ebx
  00007	56		 push	 esi
  00008	57		 push	 edi
  00009	68 00 00 00 00	 push	 OFFSET ??_C@_0BM@LMFNOFKJ@?4?4?2Data?2ExData?2ExCustom?4ini?$AA@
  0000e	6a 00		 push	 0
  00010	68 00 00 00 00	 push	 OFFSET ??_C@_08DOELPLFP@NsEngine?$AA@
  00015	68 00 00 00 00	 push	 OFFSET ??_C@_06MLPMCPDE@ExTeam?$AA@
  0001a	ff 15 00 00 00
	00		 call	 DWORD PTR __imp__GetPrivateProfileIntA@16
  00020	85 c0		 test	 eax, eax
  00022	0f 95 c0	 setne	 al
  00025	a2 00 00 00 00	 mov	 BYTE PTR ?NsEngine@@3_NA, al ; NsEngine
  0002a	5f		 pop	 edi
  0002b	5e		 pop	 esi
  0002c	5b		 pop	 ebx
  0002d	8b e5		 mov	 esp, ebp
  0002f	5d		 pop	 ebp
  00030	c3		 ret	 0
??__ENsEngine@@YAXXZ ENDP				; `dynamic initializer for 'NsEngine''
; Function compile flags: /Odtp /ZI
text$yc	ENDS
;	COMDAT ??__EhBushFont@@YAXXZ
text$yc	SEGMENT
??__EhBushFont@@YAXXZ PROC				; `dynamic initializer for 'hBushFont'', COMDAT

; 121  : HBRUSH hBushFont = CreateSolidBrush(COLORREF(RGB(30,30,30)));

  00000	55		 push	 ebp
  00001	8b ec		 mov	 ebp, esp
  00003	83 ec 40	 sub	 esp, 64			; 00000040H
  00006	53		 push	 ebx
  00007	56		 push	 esi
  00008	57		 push	 edi
  00009	68 1e 1e 1e 00	 push	 1973790			; 001e1e1eH
  0000e	ff 15 00 00 00
	00		 call	 DWORD PTR __imp__CreateSolidBrush@4
  00014	a3 00 00 00 00	 mov	 DWORD PTR ?hBushFont@@3PAUHBRUSH__@@A, eax ; hBushFont
  00019	5f		 pop	 edi
  0001a	5e		 pop	 esi
  0001b	5b		 pop	 ebx
  0001c	8b e5		 mov	 esp, ebp
  0001e	5d		 pop	 ebp
  0001f	c3		 ret	 0
??__EhBushFont@@YAXXZ ENDP				; `dynamic initializer for 'hBushFont''
text$yc	ENDS
EXTRN	??1CRingMonsterHerd@@UAE@XZ:PROC		; CRingMonsterHerd::~CRingMonsterHerd
; Function compile flags: /Odtp /ZI
;	COMDAT ??__Fg_MonsterHerdTest@@YAXXZ
text$yd	SEGMENT
??__Fg_MonsterHerdTest@@YAXXZ PROC			; `dynamic atexit destructor for 'g_MonsterHerdTest'', COMDAT
  00000	55		 push	 ebp
  00001	8b ec		 mov	 ebp, esp
  00003	83 ec 40	 sub	 esp, 64			; 00000040H
  00006	53		 push	 ebx
  00007	56		 push	 esi
  00008	57		 push	 edi
  00009	b9 00 00 00 00	 mov	 ecx, OFFSET ?g_MonsterHerdTest@@3VCRingMonsterHerd@@A ; g_MonsterHerdTest
  0000e	e8 00 00 00 00	 call	 ??1CRingMonsterHerd@@UAE@XZ ; CRingMonsterHerd::~CRingMonsterHerd
  00013	5f		 pop	 edi
  00014	5e		 pop	 esi
  00015	5b		 pop	 ebx
  00016	8b e5		 mov	 esp, ebp
  00018	5d		 pop	 ebp
  00019	c3		 ret	 0
??__Fg_MonsterHerdTest@@YAXXZ ENDP			; `dynamic atexit destructor for 'g_MonsterHerdTest''
text$yd	ENDS
EXTRN	??1CRingAttackEvent@@UAE@XZ:PROC		; CRingAttackEvent::~CRingAttackEvent
; Function compile flags: /Odtp /ZI
;	COMDAT ??__Fg_RingAttackEvent@@YAXXZ
text$yd	SEGMENT
??__Fg_RingAttackEvent@@YAXXZ PROC			; `dynamic atexit destructor for 'g_RingAttackEvent'', COMDAT
  00000	55		 push	 ebp
  00001	8b ec		 mov	 ebp, esp
  00003	83 ec 40	 sub	 esp, 64			; 00000040H
  00006	53		 push	 ebx
  00007	56		 push	 esi
  00008	57		 push	 edi
  00009	b9 00 00 00 00	 mov	 ecx, OFFSET ?g_RingAttackEvent@@3VCRingAttackEvent@@A ; g_RingAttackEvent
  0000e	e8 00 00 00 00	 call	 ??1CRingAttackEvent@@UAE@XZ ; CRingAttackEvent::~CRingAttackEvent
  00013	5f		 pop	 edi
  00014	5e		 pop	 esi
  00015	5b		 pop	 ebx
  00016	8b e5		 mov	 esp, ebp
  00018	5d		 pop	 ebp
  00019	c3		 ret	 0
??__Fg_RingAttackEvent@@YAXXZ ENDP			; `dynamic atexit destructor for 'g_RingAttackEvent''
text$yd	ENDS
EXTRN	??1CXMasAttackEvent@@UAE@XZ:PROC		; CXMasAttackEvent::~CXMasAttackEvent
; Function compile flags: /Odtp /ZI
;	COMDAT ??__Fg_XMasAttackEvent@@YAXXZ
text$yd	SEGMENT
??__Fg_XMasAttackEvent@@YAXXZ PROC			; `dynamic atexit destructor for 'g_XMasAttackEvent'', COMDAT
  00000	55		 push	 ebp
  00001	8b ec		 mov	 ebp, esp
  00003	83 ec 40	 sub	 esp, 64			; 00000040H
  00006	53		 push	 ebx
  00007	56		 push	 esi
  00008	57		 push	 edi
  00009	b9 00 00 00 00	 mov	 ecx, OFFSET ?g_XMasAttackEvent@@3VCXMasAttackEvent@@A ; g_XMasAttackEvent
  0000e	e8 00 00 00 00	 call	 ??1CXMasAttackEvent@@UAE@XZ ; CXMasAttackEvent::~CXMasAttackEvent
  00013	5f		 pop	 edi
  00014	5e		 pop	 esi
  00015	5b		 pop	 ebx
  00016	8b e5		 mov	 esp, ebp
  00018	5d		 pop	 ebp
  00019	c3		 ret	 0
??__Fg_XMasAttackEvent@@YAXXZ ENDP			; `dynamic atexit destructor for 'g_XMasAttackEvent''
text$yd	ENDS
EXTRN	??1CWhatsUpDummyServer@@QAE@XZ:PROC		; CWhatsUpDummyServer::~CWhatsUpDummyServer
; Function compile flags: /Odtp /ZI
;	COMDAT ??__FgWhatsUpDummyServer@@YAXXZ
text$yd	SEGMENT
??__FgWhatsUpDummyServer@@YAXXZ PROC			; `dynamic atexit destructor for 'gWhatsUpDummyServer'', COMDAT
  00000	55		 push	 ebp
  00001	8b ec		 mov	 ebp, esp
  00003	83 ec 40	 sub	 esp, 64			; 00000040H
  00006	53		 push	 ebx
  00007	56		 push	 esi
  00008	57		 push	 edi
  00009	b9 00 00 00 00	 mov	 ecx, OFFSET ?gWhatsUpDummyServer@@3VCWhatsUpDummyServer@@A ; gWhatsUpDummyServer
  0000e	e8 00 00 00 00	 call	 ??1CWhatsUpDummyServer@@QAE@XZ ; CWhatsUpDummyServer::~CWhatsUpDummyServer
  00013	5f		 pop	 edi
  00014	5e		 pop	 esi
  00015	5b		 pop	 ebx
  00016	8b e5		 mov	 esp, ebp
  00018	5d		 pop	 ebp
  00019	c3		 ret	 0
??__FgWhatsUpDummyServer@@YAXXZ ENDP			; `dynamic atexit destructor for 'gWhatsUpDummyServer''
text$yd	ENDS
PUBLIC	?hBushFont@@3PAUHBRUSH__@@A			; hBushFont
PUBLIC	?NsEngine@@3_NA					; NsEngine
PUBLIC	?gWhatsUpDummyServer@@3VCWhatsUpDummyServer@@A	; gWhatsUpDummyServer
PUBLIC	?g_XMasAttackEvent@@3VCXMasAttackEvent@@A	; g_XMasAttackEvent
PUBLIC	?g_RingAttackEvent@@3VCRingAttackEvent@@A	; g_RingAttackEvent
PUBLIC	?g_MonsterHerdTest@@3VCRingMonsterHerd@@A	; g_MonsterHerdTest
_BSS	SEGMENT
?hBushFont@@3PAUHBRUSH__@@A DD 01H DUP (?)		; hBushFont
?NsEngine@@3_NA DB 01H DUP (?)				; NsEngine
	ALIGN	4

?gWhatsUpDummyServer@@3VCWhatsUpDummyServer@@A DB 0cH DUP (?) ; gWhatsUpDummyServer
?g_XMasAttackEvent@@3VCXMasAttackEvent@@A DB 094H DUP (?) ; g_XMasAttackEvent
?g_RingAttackEvent@@3VCRingAttackEvent@@A DB 0158H DUP (?) ; g_RingAttackEvent
?g_MonsterHerdTest@@3VCRingMonsterHerd@@A DB 04cH DUP (?) ; g_MonsterHerdTest
_BSS	ENDS
CRT$XCU	SEGMENT
_g_MonsterHerdTest$initializer$ DD FLAT:??__Eg_MonsterHerdTest@@YAXXZ
_g_RingAttackEvent$initializer$ DD FLAT:??__Eg_RingAttackEvent@@YAXXZ
_g_XMasAttackEvent$initializer$ DD FLAT:??__Eg_XMasAttackEvent@@YAXXZ
_gWhatsUpDummyServer$initializer$ DD FLAT:??__EgWhatsUpDummyServer@@YAXXZ
_NsEngine$initializer$ DD FLAT:??__ENsEngine@@YAXXZ
_hBushFont$initializer$ DD FLAT:??__EhBushFont@@YAXXZ
CRT$XCU	ENDS
END
