; Listing generated by Microsoft (R) Optimizing Compiler Version 16.00.40219.01 

	TITLE	D:\Projects\ExTeam6.3\Source\GameServer\GameServer\GensSystem.cpp
	.686P
	.XMM
	include listing.inc
	.model	flat

INCLUDELIB LIBCMT
INCLUDELIB OLDNAMES

PUBLIC	??_C@_06NHOCOOCC@Vanert?$AA@			; `string'
PUBLIC	??_C@_07PFCPPCNE@Duprian?$AA@			; `string'
PUBLIC	??_C@_0P@EMILGBDM@NONE_INFLUENCE?$AA@		; `string'
PUBLIC	?pGensMsg@@3UPMSG_GENS_MEMBER_VIEWPORT_INFO@@A	; pGensMsg
PUBLIC	?pGensCount@@3UPMSG_SEND_GENS_MEMBER_VIEWPORT@@A ; pGensCount
PUBLIC	?lpViewportAdd@@3PAEA				; lpViewportAdd
PUBLIC	?StartContribution@@3HA				; StartContribution
PUBLIC	?RequiredLevel@@3HA				; RequiredLevel
PUBLIC	?RequiredReset@@3HA				; RequiredReset
PUBLIC	?szInfluence@@3PAPADA				; szInfluence
_BSS	SEGMENT
?pGensMsg@@3UPMSG_GENS_MEMBER_VIEWPORT_INFO@@A DB 010H DUP (?) ; pGensMsg
?pGensCount@@3UPMSG_SEND_GENS_MEMBER_VIEWPORT@@A DF 01H DUP (?) ; pGensCount
	ALIGN	4

?lpViewportAdd@@3PAEA DB 07fdH DUP (?)			; lpViewportAdd
	ALIGN	4

?RequiredReset@@3HA DD 01H DUP (?)			; RequiredReset
_BSS	ENDS
;	COMDAT ??_C@_06NHOCOOCC@Vanert?$AA@
CONST	SEGMENT
??_C@_06NHOCOOCC@Vanert?$AA@ DB 'Vanert', 00H		; `string'
CONST	ENDS
;	COMDAT ??_C@_07PFCPPCNE@Duprian?$AA@
CONST	SEGMENT
??_C@_07PFCPPCNE@Duprian?$AA@ DB 'Duprian', 00H		; `string'
CONST	ENDS
;	COMDAT ??_C@_0P@EMILGBDM@NONE_INFLUENCE?$AA@
CONST	SEGMENT
??_C@_0P@EMILGBDM@NONE_INFLUENCE?$AA@ DB 'NONE_INFLUENCE', 00H ; `string'
CONST	ENDS
_DATA	SEGMENT
_g_iNpcUpDfLevel_CGATE DD 01H
	DD	02H
	DD	02dc6c0H
	DD	02H
	DD	03H
	DD	02dc6c0H
	DD	03H
	DD	04H
	DD	02dc6c0H
_g_iNpcUpDfLevel_CSTATUE DD 01H
	DD	03H
	DD	02dc6c0H
	DD	02H
	DD	05H
	DD	02dc6c0H
	DD	03H
	DD	07H
	DD	02dc6c0H
_g_iNpcUpMaxHP_CGATE DD 02625a0H
	DD	02H
	DD	0f4240H
	DD	03567e0H
	DD	03H
	DD	0f4240H
	DD	04f5880H
	DD	04H
	DD	0f4240H
_g_iNpcUpMaxHP_CSTATUE DD 02191c0H
	DD	03H
	DD	0f4240H
	DD	033e140H
	DD	05H
	DD	0f4240H
	DD	04c4b40H
	DD	07H
	DD	0f4240H
_g_iNpcUpRgLevel_CSTATUE DD 01H
	DD	03H
	DD	04c4b40H
	DD	02H
	DD	05H
	DD	04c4b40H
	DD	03H
	DD	07H
	DD	04c4b40H
_g_iCsUserReSpawnArea DD 023H
	DD	011H
	DD	090H
	DD	030H
	DD	04aH
	DD	090H
	DD	073H
	DD	09aH
	DD	023H
	DD	011H
	DD	090H
	DD	030H
_g_iNpcDefense_CGATE DD 064H
	DD	0b4H
	DD	012cH
	DD	0208H
_g_iNpcDefense_CSTATUE DD 050H
	DD	0b4H
	DD	0154H
	DD	0226H
_g_iCastleWallStepAxisY DD 071H
	DD	0a0H
	DD	0cbH
?StartContribution@@3HA DD 014H				; StartContribution
?RequiredLevel@@3HA DD 032H				; RequiredLevel
?szInfluence@@3PAPADA DD FLAT:??_C@_0P@EMILGBDM@NONE_INFLUENCE?$AA@ ; szInfluence
	DD	FLAT:??_C@_07PFCPPCNE@Duprian?$AA@
	DD	FLAT:??_C@_06NHOCOOCC@Vanert?$AA@
_DATA	ENDS
PUBLIC	??_H@YGXPAXIHP6EPAX0@Z@Z			; `vector constructor iterator'
; Function compile flags: /Odtp /ZI
;	COMDAT ??_H@YGXPAXIHP6EPAX0@Z@Z
_TEXT	SEGMENT
___t$ = 8						; size = 4
___s$ = 12						; size = 4
___n$ = 16						; size = 4
___f$ = 20						; size = 4
??_H@YGXPAXIHP6EPAX0@Z@Z PROC				; `vector constructor iterator', COMDAT
  00000	55		 push	 ebp
  00001	8b ec		 mov	 ebp, esp
  00003	83 ec 40	 sub	 esp, 64			; 00000040H
  00006	53		 push	 ebx
  00007	56		 push	 esi
  00008	57		 push	 edi
$LN2@vector:
  00009	8b 45 10	 mov	 eax, DWORD PTR ___n$[ebp]
  0000c	83 e8 01	 sub	 eax, 1
  0000f	89 45 10	 mov	 DWORD PTR ___n$[ebp], eax
  00012	78 11		 js	 SHORT $LN3@vector
  00014	8b 4d 08	 mov	 ecx, DWORD PTR ___t$[ebp]
  00017	ff 55 14	 call	 DWORD PTR ___f$[ebp]
  0001a	8b 45 08	 mov	 eax, DWORD PTR ___t$[ebp]
  0001d	03 45 0c	 add	 eax, DWORD PTR ___s$[ebp]
  00020	89 45 08	 mov	 DWORD PTR ___t$[ebp], eax
  00023	eb e4		 jmp	 SHORT $LN2@vector
$LN3@vector:
  00025	5f		 pop	 edi
  00026	5e		 pop	 esi
  00027	5b		 pop	 ebx
  00028	8b e5		 mov	 esp, ebp
  0002a	5d		 pop	 ebp
  0002b	c2 10 00	 ret	 16			; 00000010H
??_H@YGXPAXIHP6EPAX0@Z@Z ENDP				; `vector constructor iterator'
_TEXT	ENDS
PUBLIC	??_7GensSystem@@6B@				; GensSystem::`vftable'
PUBLIC	??0GensSystem@@QAE@XZ				; GensSystem::GensSystem
PUBLIC	??_R4GensSystem@@6B@				; GensSystem::`RTTI Complete Object Locator'
PUBLIC	??_R0?AVGensSystem@@@8				; GensSystem `RTTI Type Descriptor'
PUBLIC	??_R3GensSystem@@8				; GensSystem::`RTTI Class Hierarchy Descriptor'
PUBLIC	??_R2GensSystem@@8				; GensSystem::`RTTI Base Class Array'
PUBLIC	??_R1A@?0A@EA@GensSystem@@8			; GensSystem::`RTTI Base Class Descriptor at (0,-1,0,64)'
EXTRN	??_7type_info@@6B@:QWORD			; type_info::`vftable'
EXTRN	??_EGensSystem@@UAEPAXI@Z:PROC			; GensSystem::`vector deleting destructor'
;	COMDAT ??_R1A@?0A@EA@GensSystem@@8
; File d:\projects\exteam6.3\source\gameserver\gameserver\genssystem.cpp
rdata$r	SEGMENT
??_R1A@?0A@EA@GensSystem@@8 DD FLAT:??_R0?AVGensSystem@@@8 ; GensSystem::`RTTI Base Class Descriptor at (0,-1,0,64)'
	DD	00H
	DD	00H
	DD	0ffffffffH
	DD	00H
	DD	040H
	DD	FLAT:??_R3GensSystem@@8
rdata$r	ENDS
;	COMDAT ??_R2GensSystem@@8
rdata$r	SEGMENT
??_R2GensSystem@@8 DD FLAT:??_R1A@?0A@EA@GensSystem@@8	; GensSystem::`RTTI Base Class Array'
rdata$r	ENDS
;	COMDAT ??_R3GensSystem@@8
rdata$r	SEGMENT
??_R3GensSystem@@8 DD 00H				; GensSystem::`RTTI Class Hierarchy Descriptor'
	DD	00H
	DD	01H
	DD	FLAT:??_R2GensSystem@@8
rdata$r	ENDS
;	COMDAT ??_R0?AVGensSystem@@@8
_DATA	SEGMENT
??_R0?AVGensSystem@@@8 DD FLAT:??_7type_info@@6B@	; GensSystem `RTTI Type Descriptor'
	DD	00H
	DB	'.?AVGensSystem@@', 00H
_DATA	ENDS
;	COMDAT ??_R4GensSystem@@6B@
rdata$r	SEGMENT
??_R4GensSystem@@6B@ DD 00H				; GensSystem::`RTTI Complete Object Locator'
	DD	00H
	DD	00H
	DD	FLAT:??_R0?AVGensSystem@@@8
	DD	FLAT:??_R3GensSystem@@8
rdata$r	ENDS
;	COMDAT ??_7GensSystem@@6B@
CONST	SEGMENT
??_7GensSystem@@6B@ DD FLAT:??_R4GensSystem@@6B@	; GensSystem::`vftable'
	DD	FLAT:??_EGensSystem@@UAEPAXI@Z
; Function compile flags: /Odtp /ZI
CONST	ENDS
_TEXT	SEGMENT
_this$ = -4						; size = 4
??0GensSystem@@QAE@XZ PROC				; GensSystem::GensSystem
; _this$ = ecx

; 38   : {

  00000	55		 push	 ebp
  00001	8b ec		 mov	 ebp, esp
  00003	83 ec 44	 sub	 esp, 68			; 00000044H
  00006	53		 push	 ebx
  00007	56		 push	 esi
  00008	57		 push	 edi
  00009	89 4d fc	 mov	 DWORD PTR _this$[ebp], ecx
  0000c	8b 45 fc	 mov	 eax, DWORD PTR _this$[ebp]
  0000f	c7 00 00 00 00
	00		 mov	 DWORD PTR [eax], OFFSET ??_7GensSystem@@6B@

; 39   : 	this->ChatPrice = 0;

  00015	8b 45 fc	 mov	 eax, DWORD PTR _this$[ebp]
  00018	c7 80 b4 00 00
	00 00 00 00 00	 mov	 DWORD PTR [eax+180], 0

; 40   : }

  00022	8b 45 fc	 mov	 eax, DWORD PTR _this$[ebp]
  00025	5f		 pop	 edi
  00026	5e		 pop	 esi
  00027	5b		 pop	 ebx
  00028	8b e5		 mov	 esp, ebp
  0002a	5d		 pop	 ebp
  0002b	c3		 ret	 0
??0GensSystem@@QAE@XZ ENDP				; GensSystem::GensSystem
_TEXT	ENDS
PUBLIC	??1GensSystem@@UAE@XZ				; GensSystem::~GensSystem
EXTRN	??3@YAXPAX@Z:PROC				; operator delete
; Function compile flags: /Odtp /ZI
;	COMDAT ??_GGensSystem@@UAEPAXI@Z
_TEXT	SEGMENT
_this$ = -4						; size = 4
___flags$ = 8						; size = 4
??_GGensSystem@@UAEPAXI@Z PROC				; GensSystem::`scalar deleting destructor', COMDAT
; _this$ = ecx
  00000	55		 push	 ebp
  00001	8b ec		 mov	 ebp, esp
  00003	83 ec 44	 sub	 esp, 68			; 00000044H
  00006	53		 push	 ebx
  00007	56		 push	 esi
  00008	57		 push	 edi
  00009	89 4d fc	 mov	 DWORD PTR _this$[ebp], ecx
  0000c	8b 4d fc	 mov	 ecx, DWORD PTR _this$[ebp]
  0000f	e8 00 00 00 00	 call	 ??1GensSystem@@UAE@XZ	; GensSystem::~GensSystem
  00014	8b 45 08	 mov	 eax, DWORD PTR ___flags$[ebp]
  00017	83 e0 01	 and	 eax, 1
  0001a	74 0c		 je	 SHORT $LN1@scalar
  0001c	8b 45 fc	 mov	 eax, DWORD PTR _this$[ebp]
  0001f	50		 push	 eax
  00020	e8 00 00 00 00	 call	 ??3@YAXPAX@Z		; operator delete
  00025	83 c4 04	 add	 esp, 4
$LN1@scalar:
  00028	8b 45 fc	 mov	 eax, DWORD PTR _this$[ebp]
  0002b	5f		 pop	 edi
  0002c	5e		 pop	 esi
  0002d	5b		 pop	 ebx
  0002e	8b e5		 mov	 esp, ebp
  00030	5d		 pop	 ebp
  00031	c2 04 00	 ret	 4
??_GGensSystem@@UAEPAXI@Z ENDP				; GensSystem::`scalar deleting destructor'
; Function compile flags: /Odtp /ZI
_TEXT	ENDS
_TEXT	SEGMENT
_this$ = -4						; size = 4
??1GensSystem@@UAE@XZ PROC				; GensSystem::~GensSystem
; _this$ = ecx

; 44   : {

  00030	55		 push	 ebp
  00031	8b ec		 mov	 ebp, esp
  00033	83 ec 44	 sub	 esp, 68			; 00000044H
  00036	53		 push	 ebx
  00037	56		 push	 esi
  00038	57		 push	 edi
  00039	89 4d fc	 mov	 DWORD PTR _this$[ebp], ecx
  0003c	8b 45 fc	 mov	 eax, DWORD PTR _this$[ebp]
  0003f	c7 00 00 00 00
	00		 mov	 DWORD PTR [eax], OFFSET ??_7GensSystem@@6B@

; 45   : 	// ----
; 46   : }

  00045	5f		 pop	 edi
  00046	5e		 pop	 esi
  00047	5b		 pop	 ebx
  00048	8b e5		 mov	 esp, ebp
  0004a	5d		 pop	 ebp
  0004b	c3		 ret	 0
??1GensSystem@@UAE@XZ ENDP				; GensSystem::~GensSystem
_TEXT	ENDS
PUBLIC	__$ArrayPad$
PUBLIC	?GDReqAbusingInfo@GensSystem@@QAEHPAUOBJECTSTRUCT@@@Z ; GensSystem::GDReqAbusingInfo
EXTRN	?DataSend@wsJoinServerCli@@QAEHPADH@Z:PROC	; wsJoinServerCli::DataSend
EXTRN	?wsJServerCli@@3VwsJoinServerCli@@A:BYTE	; wsJServerCli
EXTRN	_memcpy:PROC
EXTRN	?PHeadSetB@@YAXPAEEH@Z:PROC			; PHeadSetB
EXTRN	?gObjIsConnected@@YAHPAUOBJECTSTRUCT@@@Z:PROC	; gObjIsConnected
EXTRN	___security_cookie:DWORD
EXTRN	@__security_check_cookie@4:PROC
; Function compile flags: /Odtp /ZI
_TEXT	SEGMENT
tv67 = -96						; size = 4
_pMsg$229035 = -28					; size = 17
_this$ = -8						; size = 4
__$ArrayPad$ = -4					; size = 4
_lpObj$ = 8						; size = 4
?GDReqAbusingInfo@GensSystem@@QAEHPAUOBJECTSTRUCT@@@Z PROC ; GensSystem::GDReqAbusingInfo
; _this$ = ecx

; 54   : {

  00050	55		 push	 ebp
  00051	8b ec		 mov	 ebp, esp
  00053	83 ec 60	 sub	 esp, 96			; 00000060H
  00056	a1 00 00 00 00	 mov	 eax, DWORD PTR ___security_cookie
  0005b	33 c5		 xor	 eax, ebp
  0005d	89 45 fc	 mov	 DWORD PTR __$ArrayPad$[ebp], eax
  00060	53		 push	 ebx
  00061	56		 push	 esi
  00062	57		 push	 edi
  00063	89 4d f8	 mov	 DWORD PTR _this$[ebp], ecx

; 55   : 	if( !OBJMAX_RANGE(lpObj->m_Index) )

  00066	8b 45 08	 mov	 eax, DWORD PTR _lpObj$[ebp]
  00069	83 38 00	 cmp	 DWORD PTR [eax], 0
  0006c	7d 09		 jge	 SHORT $LN6@GDReqAbusi
  0006e	c7 45 a0 00 00
	00 00		 mov	 DWORD PTR tv67[ebp], 0
  00075	eb 11		 jmp	 SHORT $LN7@GDReqAbusi
$LN6@GDReqAbusi:
  00077	8b 4d 08	 mov	 ecx, DWORD PTR _lpObj$[ebp]
  0007a	33 d2		 xor	 edx, edx
  0007c	81 39 97 3a 00
	00		 cmp	 DWORD PTR [ecx], 14999	; 00003a97H
  00082	0f 9e c2	 setle	 dl
  00085	89 55 a0	 mov	 DWORD PTR tv67[ebp], edx
$LN7@GDReqAbusi:
  00088	83 7d a0 00	 cmp	 DWORD PTR tv67[ebp], 0
  0008c	75 04		 jne	 SHORT $LN3@GDReqAbusi

; 56   : 	{
; 57   : 		return false;

  0008e	33 c0		 xor	 eax, eax
  00090	eb 75		 jmp	 SHORT $LN4@GDReqAbusi
$LN3@GDReqAbusi:

; 58   : 	}
; 59   : 	// ----
; 60   : 	if( gObjIsConnected(lpObj) )

  00092	8b 45 08	 mov	 eax, DWORD PTR _lpObj$[ebp]
  00095	50		 push	 eax
  00096	e8 00 00 00 00	 call	 ?gObjIsConnected@@YAHPAUOBJECTSTRUCT@@@Z ; gObjIsConnected
  0009b	83 c4 04	 add	 esp, 4
  0009e	85 c0		 test	 eax, eax
  000a0	74 63		 je	 SHORT $LN2@GDReqAbusi

; 61   : 	{
; 62   : 		PMSG_REQ_ABUSING_INFO pMsg;		
; 63   : 		// ----
; 64   : 		PHeadSetB((LPBYTE)&pMsg, 0xF8, sizeof(pMsg));

  000a2	6a 11		 push	 17			; 00000011H
  000a4	68 f8 00 00 00	 push	 248			; 000000f8H
  000a9	8d 45 e4	 lea	 eax, DWORD PTR _pMsg$229035[ebp]
  000ac	50		 push	 eax
  000ad	e8 00 00 00 00	 call	 ?PHeadSetB@@YAXPAEEH@Z	; PHeadSetB
  000b2	83 c4 0c	 add	 esp, 12			; 0000000cH

; 65   : 		// ----
; 66   : 		memcpy(pMsg.Name, lpObj->Name, 10);

  000b5	6a 0a		 push	 10			; 0000000aH
  000b7	8b 45 08	 mov	 eax, DWORD PTR _lpObj$[ebp]
  000ba	83 c0 77	 add	 eax, 119		; 00000077H
  000bd	50		 push	 eax
  000be	8d 4d e8	 lea	 ecx, DWORD PTR _pMsg$229035[ebp+4]
  000c1	51		 push	 ecx
  000c2	e8 00 00 00 00	 call	 _memcpy
  000c7	83 c4 0c	 add	 esp, 12			; 0000000cH

; 67   : 		pMsg.bIndexH = SET_NUMBERH(lpObj->m_Index);

  000ca	8b 45 08	 mov	 eax, DWORD PTR _lpObj$[ebp]
  000cd	8b 08		 mov	 ecx, DWORD PTR [eax]
  000cf	c1 e9 08	 shr	 ecx, 8
  000d2	88 4d f3	 mov	 BYTE PTR _pMsg$229035[ebp+15], cl

; 68   : 		pMsg.bIndexL = SET_NUMBERL(lpObj->m_Index);

  000d5	8b 45 08	 mov	 eax, DWORD PTR _lpObj$[ebp]
  000d8	8b 08		 mov	 ecx, DWORD PTR [eax]
  000da	81 e1 ff 00 00
	00		 and	 ecx, 255		; 000000ffH
  000e0	88 4d f4	 mov	 BYTE PTR _pMsg$229035[ebp+16], cl

; 69   : 		// ----
; 70   : 		pMsg.bResult = 9;

  000e3	c6 45 f2 09	 mov	 BYTE PTR _pMsg$229035[ebp+14], 9

; 71   : 		// ----
; 72   : 		if( wsJServerCli.DataSend((char*)&pMsg, pMsg.h.size) )

  000e7	0f b6 45 e5	 movzx	 eax, BYTE PTR _pMsg$229035[ebp+1]
  000eb	50		 push	 eax
  000ec	8d 4d e4	 lea	 ecx, DWORD PTR _pMsg$229035[ebp]
  000ef	51		 push	 ecx
  000f0	b9 00 00 00 00	 mov	 ecx, OFFSET ?wsJServerCli@@3VwsJoinServerCli@@A ; wsJServerCli
  000f5	e8 00 00 00 00	 call	 ?DataSend@wsJoinServerCli@@QAEHPADH@Z ; wsJoinServerCli::DataSend
  000fa	85 c0		 test	 eax, eax
  000fc	74 07		 je	 SHORT $LN2@GDReqAbusi

; 73   : 		{
; 74   : 			return true;

  000fe	b8 01 00 00 00	 mov	 eax, 1
  00103	eb 02		 jmp	 SHORT $LN4@GDReqAbusi
$LN2@GDReqAbusi:

; 75   : 		}
; 76   : 	}
; 77   : 	// ----
; 78   : 	return false;

  00105	33 c0		 xor	 eax, eax
$LN4@GDReqAbusi:

; 79   : }

  00107	5f		 pop	 edi
  00108	5e		 pop	 esi
  00109	5b		 pop	 ebx
  0010a	8b 4d fc	 mov	 ecx, DWORD PTR __$ArrayPad$[ebp]
  0010d	33 cd		 xor	 ecx, ebp
  0010f	e8 00 00 00 00	 call	 @__security_check_cookie@4
  00114	8b e5		 mov	 esp, ebp
  00116	5d		 pop	 ebp
  00117	c2 04 00	 ret	 4
?GDReqAbusingInfo@GensSystem@@QAEHPAUOBJECTSTRUCT@@@Z ENDP ; GensSystem::GDReqAbusingInfo
_TEXT	ENDS
PUBLIC	__$ArrayPad$
PUBLIC	?ReqExDBGensInfo@GensSystem@@QAEHPAUOBJECTSTRUCT@@@Z ; GensSystem::ReqExDBGensInfo
EXTRN	?Send@DBSockMng@@QAEHPADH@Z:PROC		; DBSockMng::Send
EXTRN	?cDBSMng@@3VDBSockMng@@A:BYTE			; cDBSMng
EXTRN	?PHeadSubSetB@@YAXPAEEEH@Z:PROC			; PHeadSubSetB
; Function compile flags: /Odtp /ZI
_TEXT	SEGMENT
tv67 = -96						; size = 4
_pMsg$229050 = -28					; size = 17
_this$ = -8						; size = 4
__$ArrayPad$ = -4					; size = 4
_lpObj$ = 8						; size = 4
?ReqExDBGensInfo@GensSystem@@QAEHPAUOBJECTSTRUCT@@@Z PROC ; GensSystem::ReqExDBGensInfo
; _this$ = ecx

; 89   : {

  00120	55		 push	 ebp
  00121	8b ec		 mov	 ebp, esp
  00123	83 ec 60	 sub	 esp, 96			; 00000060H
  00126	a1 00 00 00 00	 mov	 eax, DWORD PTR ___security_cookie
  0012b	33 c5		 xor	 eax, ebp
  0012d	89 45 fc	 mov	 DWORD PTR __$ArrayPad$[ebp], eax
  00130	53		 push	 ebx
  00131	56		 push	 esi
  00132	57		 push	 edi
  00133	89 4d f8	 mov	 DWORD PTR _this$[ebp], ecx

; 90   : 	if( !OBJMAX_RANGE(lpObj->m_Index) ) 

  00136	8b 45 08	 mov	 eax, DWORD PTR _lpObj$[ebp]
  00139	83 38 00	 cmp	 DWORD PTR [eax], 0
  0013c	7d 09		 jge	 SHORT $LN6@ReqExDBGen
  0013e	c7 45 a0 00 00
	00 00		 mov	 DWORD PTR tv67[ebp], 0
  00145	eb 11		 jmp	 SHORT $LN7@ReqExDBGen
$LN6@ReqExDBGen:
  00147	8b 4d 08	 mov	 ecx, DWORD PTR _lpObj$[ebp]
  0014a	33 d2		 xor	 edx, edx
  0014c	81 39 97 3a 00
	00		 cmp	 DWORD PTR [ecx], 14999	; 00003a97H
  00152	0f 9e c2	 setle	 dl
  00155	89 55 a0	 mov	 DWORD PTR tv67[ebp], edx
$LN7@ReqExDBGen:
  00158	83 7d a0 00	 cmp	 DWORD PTR tv67[ebp], 0
  0015c	75 04		 jne	 SHORT $LN3@ReqExDBGen

; 91   : 	{
; 92   : 		return false;

  0015e	33 c0		 xor	 eax, eax
  00160	eb 77		 jmp	 SHORT $LN4@ReqExDBGen
$LN3@ReqExDBGen:

; 93   : 	}
; 94   : 	// ----
; 95   : 	if( gObjIsConnected(lpObj) )

  00162	8b 45 08	 mov	 eax, DWORD PTR _lpObj$[ebp]
  00165	50		 push	 eax
  00166	e8 00 00 00 00	 call	 ?gObjIsConnected@@YAHPAUOBJECTSTRUCT@@@Z ; gObjIsConnected
  0016b	83 c4 04	 add	 esp, 4
  0016e	85 c0		 test	 eax, eax
  00170	74 65		 je	 SHORT $LN2@ReqExDBGen

; 96   : 	{
; 97   : 		PMSG_REQ_ABUSING_INFO pMsg;			
; 98   : 		// ----
; 99   : 		PHeadSubSetB((LPBYTE)&pMsg, 0xF8, 0x1, sizeof(pMsg));

  00172	6a 11		 push	 17			; 00000011H
  00174	6a 01		 push	 1
  00176	68 f8 00 00 00	 push	 248			; 000000f8H
  0017b	8d 45 e4	 lea	 eax, DWORD PTR _pMsg$229050[ebp]
  0017e	50		 push	 eax
  0017f	e8 00 00 00 00	 call	 ?PHeadSubSetB@@YAXPAEEEH@Z ; PHeadSubSetB
  00184	83 c4 10	 add	 esp, 16			; 00000010H

; 100  : 		// ----
; 101  : 		pMsg.bResult = 0;

  00187	c6 45 f2 00	 mov	 BYTE PTR _pMsg$229050[ebp+14], 0

; 102  : 		memcpy(pMsg.Name, lpObj->Name, 10);

  0018b	6a 0a		 push	 10			; 0000000aH
  0018d	8b 45 08	 mov	 eax, DWORD PTR _lpObj$[ebp]
  00190	83 c0 77	 add	 eax, 119		; 00000077H
  00193	50		 push	 eax
  00194	8d 4d e8	 lea	 ecx, DWORD PTR _pMsg$229050[ebp+4]
  00197	51		 push	 ecx
  00198	e8 00 00 00 00	 call	 _memcpy
  0019d	83 c4 0c	 add	 esp, 12			; 0000000cH

; 103  : 		pMsg.bIndexH = SET_NUMBERH(lpObj->m_Index);

  001a0	8b 45 08	 mov	 eax, DWORD PTR _lpObj$[ebp]
  001a3	8b 08		 mov	 ecx, DWORD PTR [eax]
  001a5	c1 e9 08	 shr	 ecx, 8
  001a8	88 4d f3	 mov	 BYTE PTR _pMsg$229050[ebp+15], cl

; 104  : 		pMsg.bIndexL = SET_NUMBERL(lpObj->m_Index);

  001ab	8b 45 08	 mov	 eax, DWORD PTR _lpObj$[ebp]
  001ae	8b 08		 mov	 ecx, DWORD PTR [eax]
  001b0	81 e1 ff 00 00
	00		 and	 ecx, 255		; 000000ffH
  001b6	88 4d f4	 mov	 BYTE PTR _pMsg$229050[ebp+16], cl

; 105  : 		// ----
; 106  : 		if( cDBSMng.Send((PCHAR)&pMsg, pMsg.h.size) )

  001b9	0f b6 45 e5	 movzx	 eax, BYTE PTR _pMsg$229050[ebp+1]
  001bd	50		 push	 eax
  001be	8d 4d e4	 lea	 ecx, DWORD PTR _pMsg$229050[ebp]
  001c1	51		 push	 ecx
  001c2	b9 00 00 00 00	 mov	 ecx, OFFSET ?cDBSMng@@3VDBSockMng@@A ; cDBSMng
  001c7	e8 00 00 00 00	 call	 ?Send@DBSockMng@@QAEHPADH@Z ; DBSockMng::Send
  001cc	85 c0		 test	 eax, eax
  001ce	74 07		 je	 SHORT $LN2@ReqExDBGen

; 107  : 		{
; 108  : 			return true;

  001d0	b8 01 00 00 00	 mov	 eax, 1
  001d5	eb 02		 jmp	 SHORT $LN4@ReqExDBGen
$LN2@ReqExDBGen:

; 109  : 		}
; 110  : 	}
; 111  : 	return false;

  001d7	33 c0		 xor	 eax, eax
$LN4@ReqExDBGen:

; 112  : }

  001d9	5f		 pop	 edi
  001da	5e		 pop	 esi
  001db	5b		 pop	 ebx
  001dc	8b 4d fc	 mov	 ecx, DWORD PTR __$ArrayPad$[ebp]
  001df	33 cd		 xor	 ecx, ebp
  001e1	e8 00 00 00 00	 call	 @__security_check_cookie@4
  001e6	8b e5		 mov	 esp, ebp
  001e8	5d		 pop	 ebp
  001e9	c2 04 00	 ret	 4
?ReqExDBGensInfo@GensSystem@@QAEHPAUOBJECTSTRUCT@@@Z ENDP ; GensSystem::ReqExDBGensInfo
_TEXT	ENDS
PUBLIC	??_C@_0CG@MKOGLMEJ@?$FLGensSystem?$FN?5?9?5Error?5?9?5?$CFs?5?$CFs?5Lin@ ; `string'
PUBLIC	??_C@_0M@CBPLBNGD@btInfluence?$AA@		; `string'
PUBLIC	??_C@_0EC@HBCPMHBL@d?3?2projects?2exteam6?43?2source?2gam@ ; `string'
PUBLIC	?__LINE__Var@?1??ReqRegGensMember@GensSystem@@QAEXPAUOBJECTSTRUCT@@E@Z@4JA ; `GensSystem::ReqRegGensMember'::`2'::__LINE__Var
PUBLIC	__$ArrayPad$
PUBLIC	?ReqRegGensMember@GensSystem@@QAEXPAUOBJECTSTRUCT@@E@Z ; GensSystem::ReqRegGensMember
EXTRN	?LogAddTD@@3P6AXPADZZA:DWORD			; LogAddTD
EXTRN	?gObjIsConnected@@YAHH@Z:PROC			; gObjIsConnected
;	COMDAT ??_C@_0CG@MKOGLMEJ@?$FLGensSystem?$FN?5?9?5Error?5?9?5?$CFs?5?$CFs?5Lin@
CONST	SEGMENT
??_C@_0CG@MKOGLMEJ@?$FLGensSystem?$FN?5?9?5Error?5?9?5?$CFs?5?$CFs?5Lin@ DB '['
	DB	'GensSystem] - Error - %s %s Line: %d', 00H	; `string'
CONST	ENDS
;	COMDAT ??_C@_0M@CBPLBNGD@btInfluence?$AA@
CONST	SEGMENT
??_C@_0M@CBPLBNGD@btInfluence?$AA@ DB 'btInfluence', 00H ; `string'
CONST	ENDS
;	COMDAT ??_C@_0EC@HBCPMHBL@d?3?2projects?2exteam6?43?2source?2gam@
CONST	SEGMENT
??_C@_0EC@HBCPMHBL@d?3?2projects?2exteam6?43?2source?2gam@ DB 'd:\project'
	DB	's\exteam6.3\source\gameserver\gameserver\genssystem.cpp', 00H ; `string'
CONST	ENDS
;	COMDAT ?__LINE__Var@?1??ReqRegGensMember@GensSystem@@QAEXPAUOBJECTSTRUCT@@E@Z@4JA
_DATA	SEGMENT
?__LINE__Var@?1??ReqRegGensMember@GensSystem@@QAEXPAUOBJECTSTRUCT@@E@Z@4JA DD 078H ; `GensSystem::ReqRegGensMember'::`2'::__LINE__Var
; Function compile flags: /Odtp /ZI
_DATA	ENDS
_TEXT	SEGMENT
tv68 = -104						; size = 4
_pMsg$229085 = -36					; size = 24
_lpGuildInfo$ = -12					; size = 4
_this$ = -8						; size = 4
__$ArrayPad$ = -4					; size = 4
_lpObj$ = 8						; size = 4
_btInfluence$ = 12					; size = 1
?ReqRegGensMember@GensSystem@@QAEXPAUOBJECTSTRUCT@@E@Z PROC ; GensSystem::ReqRegGensMember
; _this$ = ecx

; 120  : {

  001f0	55		 push	 ebp
  001f1	8b ec		 mov	 ebp, esp
  001f3	83 ec 68	 sub	 esp, 104		; 00000068H
  001f6	a1 00 00 00 00	 mov	 eax, DWORD PTR ___security_cookie
  001fb	33 c5		 xor	 eax, ebp
  001fd	89 45 fc	 mov	 DWORD PTR __$ArrayPad$[ebp], eax
  00200	53		 push	 ebx
  00201	56		 push	 esi
  00202	57		 push	 edi
  00203	89 4d f8	 mov	 DWORD PTR _this$[ebp], ecx

; 121  : 	//-----
; 122  : 	_GUILD_INFO_STRUCT *lpGuildInfo = lpObj->lpGuild;

  00206	8b 45 08	 mov	 eax, DWORD PTR _lpObj$[ebp]
  00209	8b 88 38 04 00
	00		 mov	 ecx, DWORD PTR [eax+1080]
  0020f	89 4d f4	 mov	 DWORD PTR _lpGuildInfo$[ebp], ecx

; 123  : 	//-----
; 124  : 	if (!OBJMAX_RANGE(lpObj->m_Index)) return;

  00212	8b 45 08	 mov	 eax, DWORD PTR _lpObj$[ebp]
  00215	83 38 00	 cmp	 DWORD PTR [eax], 0
  00218	7d 09		 jge	 SHORT $LN12@ReqRegGens
  0021a	c7 45 98 00 00
	00 00		 mov	 DWORD PTR tv68[ebp], 0
  00221	eb 11		 jmp	 SHORT $LN13@ReqRegGens
$LN12@ReqRegGens:
  00223	8b 4d 08	 mov	 ecx, DWORD PTR _lpObj$[ebp]
  00226	33 d2		 xor	 edx, edx
  00228	81 39 97 3a 00
	00		 cmp	 DWORD PTR [ecx], 14999	; 00003a97H
  0022e	0f 9e c2	 setle	 dl
  00231	89 55 98	 mov	 DWORD PTR tv68[ebp], edx
$LN13@ReqRegGens:
  00234	83 7d 98 00	 cmp	 DWORD PTR tv68[ebp], 0
  00238	75 05		 jne	 SHORT $LN9@ReqRegGens
  0023a	e9 ec 00 00 00	 jmp	 $LN10@ReqRegGens
$LN9@ReqRegGens:

; 125  : 	// ----
; 126  : 	if (gObjIsConnected(lpObj->m_Index))

  0023f	8b 45 08	 mov	 eax, DWORD PTR _lpObj$[ebp]
  00242	8b 08		 mov	 ecx, DWORD PTR [eax]
  00244	51		 push	 ecx
  00245	e8 00 00 00 00	 call	 ?gObjIsConnected@@YAHH@Z ; gObjIsConnected
  0024a	83 c4 04	 add	 esp, 4
  0024d	85 c0		 test	 eax, eax
  0024f	0f 84 d6 00 00
	00		 je	 $LN10@ReqRegGens

; 127  : 	{
; 128  : 		if (btInfluence == VANERT_INFLUENCE || btInfluence == DUPRIAN_INFLUENCE) 

  00255	0f b6 45 0c	 movzx	 eax, BYTE PTR _btInfluence$[ebp]
  00259	83 f8 01	 cmp	 eax, 1
  0025c	74 0d		 je	 SHORT $LN6@ReqRegGens
  0025e	0f b6 45 0c	 movzx	 eax, BYTE PTR _btInfluence$[ebp]
  00262	83 f8 02	 cmp	 eax, 2
  00265	0f 85 9f 00 00
	00		 jne	 $LN7@ReqRegGens
$LN6@ReqRegGens:

; 129  : 		{
; 130  : 			//-----
; 131  : 			PMSG_REQ_REG_GENS_MEMBER_EXDB pMsg;		
; 132  : 			//-----
; 133  : 	
; 134  : 			if (btInfluence == VANERT_INFLUENCE || btInfluence == DUPRIAN_INFLUENCE)

  0026b	0f b6 45 0c	 movzx	 eax, BYTE PTR _btInfluence$[ebp]
  0026f	83 f8 01	 cmp	 eax, 1
  00272	74 0d		 je	 SHORT $LN4@ReqRegGens
  00274	0f b6 45 0c	 movzx	 eax, BYTE PTR _btInfluence$[ebp]
  00278	83 f8 02	 cmp	 eax, 2
  0027b	0f 85 87 00 00
	00		 jne	 $LN5@ReqRegGens
$LN4@ReqRegGens:

; 135  : 			{
; 136  : 				PHeadSubSetB((LPBYTE)&pMsg, 0xF8, 0x03, sizeof(pMsg));

  00281	6a 18		 push	 24			; 00000018H
  00283	6a 03		 push	 3
  00285	68 f8 00 00 00	 push	 248			; 000000f8H
  0028a	8d 45 dc	 lea	 eax, DWORD PTR _pMsg$229085[ebp]
  0028d	50		 push	 eax
  0028e	e8 00 00 00 00	 call	 ?PHeadSubSetB@@YAXPAEEEH@Z ; PHeadSubSetB
  00293	83 c4 10	 add	 esp, 16			; 00000010H

; 137  : 				//-----
; 138  : 				memcpy(pMsg.Name, lpObj->Name, sizeof(lpObj->Name));	

  00296	6a 0b		 push	 11			; 0000000bH
  00298	8b 45 08	 mov	 eax, DWORD PTR _lpObj$[ebp]
  0029b	83 c0 77	 add	 eax, 119		; 00000077H
  0029e	50		 push	 eax
  0029f	8d 4d e1	 lea	 ecx, DWORD PTR _pMsg$229085[ebp+5]
  002a2	51		 push	 ecx
  002a3	e8 00 00 00 00	 call	 _memcpy
  002a8	83 c4 0c	 add	 esp, 12			; 0000000cH

; 139  : 				//-----
; 140  : 			 	pMsg.bMessage = 0;

  002ab	c6 45 eb 00	 mov	 BYTE PTR _pMsg$229085[ebp+15], 0

; 141  : 				//-----
; 142  : 				pMsg.bInfluence = btInfluence;

  002af	8a 45 0c	 mov	 al, BYTE PTR _btInfluence$[ebp]
  002b2	88 45 ec	 mov	 BYTE PTR _pMsg$229085[ebp+16], al

; 143  : 				//-----
; 144  : 				if (lpGuildInfo)

  002b5	83 7d f4 00	 cmp	 DWORD PTR _lpGuildInfo$[ebp], 0
  002b9	74 1b		 je	 SHORT $LN3@ReqRegGens

; 145  : 				{
; 146  : 					pMsg.wNumberH = SET_NUMBERHW(lpGuildInfo->Number);

  002bb	8b 45 f4	 mov	 eax, DWORD PTR _lpGuildInfo$[ebp]
  002be	8b 08		 mov	 ecx, DWORD PTR [eax]
  002c0	c1 e9 10	 shr	 ecx, 16			; 00000010H
  002c3	66 89 4d ee	 mov	 WORD PTR _pMsg$229085[ebp+18], cx

; 147  : 					pMsg.wNumberL = SET_NUMBERLW(lpGuildInfo->Number);

  002c7	8b 45 f4	 mov	 eax, DWORD PTR _lpGuildInfo$[ebp]
  002ca	8b 08		 mov	 ecx, DWORD PTR [eax]
  002cc	81 e1 ff ff 00
	00		 and	 ecx, 65535		; 0000ffffH
  002d2	66 89 4d f0	 mov	 WORD PTR _pMsg$229085[ebp+20], cx
$LN3@ReqRegGens:

; 148  : 				}
; 149  : 				//-----
; 150  : 				pMsg.bIndexH = SET_NUMBERH(lpObj->m_Index);

  002d6	8b 45 08	 mov	 eax, DWORD PTR _lpObj$[ebp]
  002d9	8b 08		 mov	 ecx, DWORD PTR [eax]
  002db	c1 e9 08	 shr	 ecx, 8
  002de	88 4d f2	 mov	 BYTE PTR _pMsg$229085[ebp+22], cl

; 151  : 				pMsg.bIndexL = SET_NUMBERL(lpObj->m_Index);				//-----

  002e1	8b 45 08	 mov	 eax, DWORD PTR _lpObj$[ebp]
  002e4	8b 08		 mov	 ecx, DWORD PTR [eax]
  002e6	81 e1 ff 00 00
	00		 and	 ecx, 255		; 000000ffH
  002ec	88 4d f3	 mov	 BYTE PTR _pMsg$229085[ebp+23], cl

; 152  : 				if( cDBSMng.Send((char*)&pMsg, pMsg.h.size) ) return;

  002ef	0f b6 45 dd	 movzx	 eax, BYTE PTR _pMsg$229085[ebp+1]
  002f3	50		 push	 eax
  002f4	8d 4d dc	 lea	 ecx, DWORD PTR _pMsg$229085[ebp]
  002f7	51		 push	 ecx
  002f8	b9 00 00 00 00	 mov	 ecx, OFFSET ?cDBSMng@@3VDBSockMng@@A ; cDBSMng
  002fd	e8 00 00 00 00	 call	 ?Send@DBSockMng@@QAEHPADH@Z ; DBSockMng::Send
  00302	85 c0		 test	 eax, eax
  00304	74 02		 je	 SHORT $LN5@ReqRegGens
  00306	eb 23		 jmp	 SHORT $LN10@ReqRegGens
$LN5@ReqRegGens:

; 153  : 			}
; 154  : 		}
; 155  : 		else

  00308	eb 21		 jmp	 SHORT $LN10@ReqRegGens
$LN7@ReqRegGens:

; 156  : 		{
; 157  : 			LogAddTD("[GensSystem] - Error - %s %s Line: %d", "btInfluence", __FILE__, __LINE__);       

  0030a	a1 00 00 00 00	 mov	 eax, DWORD PTR ?__LINE__Var@?1??ReqRegGensMember@GensSystem@@QAEXPAUOBJECTSTRUCT@@E@Z@4JA
  0030f	83 c0 25	 add	 eax, 37			; 00000025H
  00312	50		 push	 eax
  00313	68 00 00 00 00	 push	 OFFSET ??_C@_0EC@HBCPMHBL@d?3?2projects?2exteam6?43?2source?2gam@
  00318	68 00 00 00 00	 push	 OFFSET ??_C@_0M@CBPLBNGD@btInfluence?$AA@
  0031d	68 00 00 00 00	 push	 OFFSET ??_C@_0CG@MKOGLMEJ@?$FLGensSystem?$FN?5?9?5Error?5?9?5?$CFs?5?$CFs?5Lin@
  00322	ff 15 00 00 00
	00		 call	 DWORD PTR ?LogAddTD@@3P6AXPADZZA ; LogAddTD
  00328	83 c4 10	 add	 esp, 16			; 00000010H
$LN10@ReqRegGens:

; 158  : 		}
; 159  : 	}
; 160  : }

  0032b	5f		 pop	 edi
  0032c	5e		 pop	 esi
  0032d	5b		 pop	 ebx
  0032e	8b 4d fc	 mov	 ecx, DWORD PTR __$ArrayPad$[ebp]
  00331	33 cd		 xor	 ecx, ebp
  00333	e8 00 00 00 00	 call	 @__security_check_cookie@4
  00338	8b e5		 mov	 esp, ebp
  0033a	5d		 pop	 ebp
  0033b	c2 08 00	 ret	 8
?ReqRegGensMember@GensSystem@@QAEXPAUOBJECTSTRUCT@@E@Z ENDP ; GensSystem::ReqRegGensMember
_TEXT	ENDS
PUBLIC	?AnsRegGensMember@GensSystem@@QAEHHE@Z		; GensSystem::AnsRegGensMember
; Function compile flags: /Odtp /ZI
_TEXT	SEGMENT
_this$ = -4						; size = 4
_iObjIndex$ = 8						; size = 4
_btResult$ = 12						; size = 1
?AnsRegGensMember@GensSystem@@QAEHHE@Z PROC		; GensSystem::AnsRegGensMember
; _this$ = ecx

; 168  : {

  00340	55		 push	 ebp
  00341	8b ec		 mov	 ebp, esp
  00343	83 ec 44	 sub	 esp, 68			; 00000044H
  00346	53		 push	 ebx
  00347	56		 push	 esi
  00348	57		 push	 edi
  00349	89 4d fc	 mov	 DWORD PTR _this$[ebp], ecx

; 169  : 	return 0;

  0034c	33 c0		 xor	 eax, eax

; 170  : }

  0034e	5f		 pop	 edi
  0034f	5e		 pop	 esi
  00350	5b		 pop	 ebx
  00351	8b e5		 mov	 esp, ebp
  00353	5d		 pop	 ebp
  00354	c2 08 00	 ret	 8
?AnsRegGensMember@GensSystem@@QAEHHE@Z ENDP		; GensSystem::AnsRegGensMember
_TEXT	ENDS
PUBLIC	?GetGensInfluence@GensSystem@@QAEHPAUOBJECTSTRUCT@@@Z ; GensSystem::GetGensInfluence
PUBLIC	?IsInfluenceNPC@GensSystem@@QAE_NPAUOBJECTSTRUCT@@@Z ; GensSystem::IsInfluenceNPC
; Function compile flags: /Odtp /ZI
_TEXT	SEGMENT
tv78 = -72						; size = 4
_this$ = -4						; size = 4
_lpObj$ = 8						; size = 4
?IsInfluenceNPC@GensSystem@@QAE_NPAUOBJECTSTRUCT@@@Z PROC ; GensSystem::IsInfluenceNPC
; _this$ = ecx

; 178  : {

  00360	55		 push	 ebp
  00361	8b ec		 mov	 ebp, esp
  00363	83 ec 48	 sub	 esp, 72			; 00000048H
  00366	53		 push	 ebx
  00367	56		 push	 esi
  00368	57		 push	 edi
  00369	89 4d fc	 mov	 DWORD PTR _this$[ebp], ecx

; 179  : 	//Fixed 13.10.2012, TargetNumber -> TargetShopNumber
; 180  : 	//TargetNumber		= +1108
; 181  : 	//TargetShopNumber	= +1110
; 182  : 	//a1 + 1110
; 183  : 	return (lpObj->TargetShopNumber == 543 && this->GetGensInfluence(lpObj) == VANERT_INFLUENCE 
; 184  : 		    || lpObj->TargetShopNumber == 544 && this->GetGensInfluence(lpObj) == DUPRIAN_INFLUENCE); 

  0036c	8b 45 08	 mov	 eax, DWORD PTR _lpObj$[ebp]
  0036f	0f bf 88 5a 04
	00 00		 movsx	 ecx, WORD PTR [eax+1114]
  00376	81 f9 1f 02 00
	00		 cmp	 ecx, 543		; 0000021fH
  0037c	75 11		 jne	 SHORT $LN3@IsInfluenc
  0037e	8b 55 08	 mov	 edx, DWORD PTR _lpObj$[ebp]
  00381	52		 push	 edx
  00382	8b 4d fc	 mov	 ecx, DWORD PTR _this$[ebp]
  00385	e8 00 00 00 00	 call	 ?GetGensInfluence@GensSystem@@QAEHPAUOBJECTSTRUCT@@@Z ; GensSystem::GetGensInfluence
  0038a	83 f8 01	 cmp	 eax, 1
  0038d	74 2c		 je	 SHORT $LN5@IsInfluenc
$LN3@IsInfluenc:
  0038f	8b 45 08	 mov	 eax, DWORD PTR _lpObj$[ebp]
  00392	0f bf 88 5a 04
	00 00		 movsx	 ecx, WORD PTR [eax+1114]
  00399	81 f9 20 02 00
	00		 cmp	 ecx, 544		; 00000220H
  0039f	75 11		 jne	 SHORT $LN4@IsInfluenc
  003a1	8b 55 08	 mov	 edx, DWORD PTR _lpObj$[ebp]
  003a4	52		 push	 edx
  003a5	8b 4d fc	 mov	 ecx, DWORD PTR _this$[ebp]
  003a8	e8 00 00 00 00	 call	 ?GetGensInfluence@GensSystem@@QAEHPAUOBJECTSTRUCT@@@Z ; GensSystem::GetGensInfluence
  003ad	83 f8 02	 cmp	 eax, 2
  003b0	74 09		 je	 SHORT $LN5@IsInfluenc
$LN4@IsInfluenc:
  003b2	c7 45 b8 00 00
	00 00		 mov	 DWORD PTR tv78[ebp], 0
  003b9	eb 07		 jmp	 SHORT $LN6@IsInfluenc
$LN5@IsInfluenc:
  003bb	c7 45 b8 01 00
	00 00		 mov	 DWORD PTR tv78[ebp], 1
$LN6@IsInfluenc:
  003c2	8a 45 b8	 mov	 al, BYTE PTR tv78[ebp]

; 185  : }

  003c5	5f		 pop	 edi
  003c6	5e		 pop	 esi
  003c7	5b		 pop	 ebx
  003c8	8b e5		 mov	 esp, ebp
  003ca	5d		 pop	 ebp
  003cb	c2 04 00	 ret	 4
?IsInfluenceNPC@GensSystem@@QAE_NPAUOBJECTSTRUCT@@@Z ENDP ; GensSystem::IsInfluenceNPC
_TEXT	ENDS
PUBLIC	__$ArrayPad$
PUBLIC	?ReqSecedeGensMember@GensSystem@@QAEHPAUOBJECTSTRUCT@@@Z ; GensSystem::ReqSecedeGensMember
; Function compile flags: /Odtp /ZI
_TEXT	SEGMENT
_pMsg$229121 = -32					; size = 22
_this$ = -8						; size = 4
__$ArrayPad$ = -4					; size = 4
_lpObj$ = 8						; size = 4
?ReqSecedeGensMember@GensSystem@@QAEHPAUOBJECTSTRUCT@@@Z PROC ; GensSystem::ReqSecedeGensMember
; _this$ = ecx

; 193  : {

  003d0	55		 push	 ebp
  003d1	8b ec		 mov	 ebp, esp
  003d3	83 ec 60	 sub	 esp, 96			; 00000060H
  003d6	a1 00 00 00 00	 mov	 eax, DWORD PTR ___security_cookie
  003db	33 c5		 xor	 eax, ebp
  003dd	89 45 fc	 mov	 DWORD PTR __$ArrayPad$[ebp], eax
  003e0	53		 push	 ebx
  003e1	56		 push	 esi
  003e2	57		 push	 edi
  003e3	89 4d f8	 mov	 DWORD PTR _this$[ebp], ecx

; 194  : 	if (gObjIsConnected(lpObj->m_Index))

  003e6	8b 45 08	 mov	 eax, DWORD PTR _lpObj$[ebp]
  003e9	8b 08		 mov	 ecx, DWORD PTR [eax]
  003eb	51		 push	 ecx
  003ec	e8 00 00 00 00	 call	 ?gObjIsConnected@@YAHH@Z ; gObjIsConnected
  003f1	83 c4 04	 add	 esp, 4
  003f4	85 c0		 test	 eax, eax
  003f6	74 62		 je	 SHORT $LN2@ReqSecedeG

; 195  : 	{
; 196  : 		PMSG_REQ_SECEDE_GENS_MEMBER_EXDB pMsg;
; 197  : 		// ----
; 198  : 		PHeadSubSetB((LPBYTE)&pMsg, 0xF8, 0x4, sizeof(pMsg)); 

  003f8	6a 16		 push	 22			; 00000016H
  003fa	6a 04		 push	 4
  003fc	68 f8 00 00 00	 push	 248			; 000000f8H
  00401	8d 45 e0	 lea	 eax, DWORD PTR _pMsg$229121[ebp]
  00404	50		 push	 eax
  00405	e8 00 00 00 00	 call	 ?PHeadSubSetB@@YAXPAEEEH@Z ; PHeadSubSetB
  0040a	83 c4 10	 add	 esp, 16			; 00000010H

; 199  : 		// ----
; 200  : 		pMsg.bResult = 0; //[GensSystem] [%s][%s] Gens Request - Leave [%s]

  0040d	c6 45 ee 00	 mov	 BYTE PTR _pMsg$229121[ebp+14], 0

; 201  : 		// ----
; 202  : 		pMsg.bIndexH = SET_NUMBERH(lpObj->m_Index);

  00411	8b 45 08	 mov	 eax, DWORD PTR _lpObj$[ebp]
  00414	8b 08		 mov	 ecx, DWORD PTR [eax]
  00416	c1 e9 08	 shr	 ecx, 8
  00419	88 4d f4	 mov	 BYTE PTR _pMsg$229121[ebp+20], cl

; 203  : 		//-----
; 204  : 		pMsg.bIndexL = SET_NUMBERL(lpObj->m_Index);

  0041c	8b 45 08	 mov	 eax, DWORD PTR _lpObj$[ebp]
  0041f	8b 08		 mov	 ecx, DWORD PTR [eax]
  00421	81 e1 ff 00 00
	00		 and	 ecx, 255		; 000000ffH
  00427	88 4d f5	 mov	 BYTE PTR _pMsg$229121[ebp+21], cl

; 205  : 		// ----
; 206  : 		memcpy(pMsg.Name, lpObj->Name, sizeof(lpObj->Name));

  0042a	6a 0b		 push	 11			; 0000000bH
  0042c	8b 45 08	 mov	 eax, DWORD PTR _lpObj$[ebp]
  0042f	83 c0 77	 add	 eax, 119		; 00000077H
  00432	50		 push	 eax
  00433	8d 4d e4	 lea	 ecx, DWORD PTR _pMsg$229121[ebp+4]
  00436	51		 push	 ecx
  00437	e8 00 00 00 00	 call	 _memcpy
  0043c	83 c4 0c	 add	 esp, 12			; 0000000cH

; 207  : 		// ----
; 208  : 		if (cDBSMng.Send((char*)&pMsg, sizeof(pMsg))) return true;

  0043f	6a 16		 push	 22			; 00000016H
  00441	8d 45 e0	 lea	 eax, DWORD PTR _pMsg$229121[ebp]
  00444	50		 push	 eax
  00445	b9 00 00 00 00	 mov	 ecx, OFFSET ?cDBSMng@@3VDBSockMng@@A ; cDBSMng
  0044a	e8 00 00 00 00	 call	 ?Send@DBSockMng@@QAEHPADH@Z ; DBSockMng::Send
  0044f	85 c0		 test	 eax, eax
  00451	74 07		 je	 SHORT $LN2@ReqSecedeG
  00453	b8 01 00 00 00	 mov	 eax, 1
  00458	eb 02		 jmp	 SHORT $LN3@ReqSecedeG
$LN2@ReqSecedeG:

; 209  : 	}
; 210  : 	return false;

  0045a	33 c0		 xor	 eax, eax
$LN3@ReqSecedeG:

; 211  : }

  0045c	5f		 pop	 edi
  0045d	5e		 pop	 esi
  0045e	5b		 pop	 ebx
  0045f	8b 4d fc	 mov	 ecx, DWORD PTR __$ArrayPad$[ebp]
  00462	33 cd		 xor	 ecx, ebp
  00464	e8 00 00 00 00	 call	 @__security_check_cookie@4
  00469	8b e5		 mov	 esp, ebp
  0046b	5d		 pop	 ebp
  0046c	c2 04 00	 ret	 4
?ReqSecedeGensMember@GensSystem@@QAEHPAUOBJECTSTRUCT@@@Z ENDP ; GensSystem::ReqSecedeGensMember
_TEXT	ENDS
PUBLIC	?GetNextContributePoint@GensSystem@@QAEHPAUOBJECTSTRUCT@@@Z ; GensSystem::GetNextContributePoint
PUBLIC	__$ArrayPad$
PUBLIC	?SendGensInfo@GensSystem@@QAEHPAUOBJECTSTRUCT@@@Z ; GensSystem::SendGensInfo
EXTRN	?DataSend@@YAHHPAEK@Z:PROC			; DataSend
; Function compile flags: /Odtp /ZI
_TEXT	SEGMENT
tv67 = -100						; size = 4
_pMsg$229136 = -32					; size = 24
_this$ = -8						; size = 4
__$ArrayPad$ = -4					; size = 4
_lpObj$ = 8						; size = 4
?SendGensInfo@GensSystem@@QAEHPAUOBJECTSTRUCT@@@Z PROC	; GensSystem::SendGensInfo
; _this$ = ecx

; 219  : {

  00470	55		 push	 ebp
  00471	8b ec		 mov	 ebp, esp
  00473	83 ec 64	 sub	 esp, 100		; 00000064H
  00476	a1 00 00 00 00	 mov	 eax, DWORD PTR ___security_cookie
  0047b	33 c5		 xor	 eax, ebp
  0047d	89 45 fc	 mov	 DWORD PTR __$ArrayPad$[ebp], eax
  00480	53		 push	 ebx
  00481	56		 push	 esi
  00482	57		 push	 edi
  00483	89 4d f8	 mov	 DWORD PTR _this$[ebp], ecx

; 220  : 	if (!OBJMAX_RANGE(lpObj->m_Index))

  00486	8b 45 08	 mov	 eax, DWORD PTR _lpObj$[ebp]
  00489	83 38 00	 cmp	 DWORD PTR [eax], 0
  0048c	7d 09		 jge	 SHORT $LN6@SendGensIn
  0048e	c7 45 9c 00 00
	00 00		 mov	 DWORD PTR tv67[ebp], 0
  00495	eb 11		 jmp	 SHORT $LN7@SendGensIn
$LN6@SendGensIn:
  00497	8b 4d 08	 mov	 ecx, DWORD PTR _lpObj$[ebp]
  0049a	33 d2		 xor	 edx, edx
  0049c	81 39 97 3a 00
	00		 cmp	 DWORD PTR [ecx], 14999	; 00003a97H
  004a2	0f 9e c2	 setle	 dl
  004a5	89 55 9c	 mov	 DWORD PTR tv67[ebp], edx
$LN7@SendGensIn:
  004a8	83 7d 9c 00	 cmp	 DWORD PTR tv67[ebp], 0
  004ac	75 07		 jne	 SHORT $LN3@SendGensIn

; 221  : 	 return 0;

  004ae	33 c0		 xor	 eax, eax
  004b0	e9 8b 00 00 00	 jmp	 $LN4@SendGensIn
$LN3@SendGensIn:

; 222  : 
; 223  : 	if (gObjIsConnected(lpObj))

  004b5	8b 45 08	 mov	 eax, DWORD PTR _lpObj$[ebp]
  004b8	50		 push	 eax
  004b9	e8 00 00 00 00	 call	 ?gObjIsConnected@@YAHPAUOBJECTSTRUCT@@@Z ; gObjIsConnected
  004be	83 c4 04	 add	 esp, 4
  004c1	85 c0		 test	 eax, eax
  004c3	74 79		 je	 SHORT $LN2@SendGensIn

; 224  : 	{
; 225  : 		PMSG_SEND_GENS_INFO pMsg;
; 226  : 
; 227  : 		PHeadSubSetB((LPBYTE)&pMsg, 0xF8, 0x7, sizeof(pMsg));

  004c5	6a 18		 push	 24			; 00000018H
  004c7	6a 07		 push	 7
  004c9	68 f8 00 00 00	 push	 248			; 000000f8H
  004ce	8d 45 e0	 lea	 eax, DWORD PTR _pMsg$229136[ebp]
  004d1	50		 push	 eax
  004d2	e8 00 00 00 00	 call	 ?PHeadSubSetB@@YAXPAEEEH@Z ; PHeadSubSetB
  004d7	83 c4 10	 add	 esp, 16			; 00000010H

; 228  : 		
; 229  : 		pMsg.bInfluence				= this->GetGensInfluence(lpObj);

  004da	8b 45 08	 mov	 eax, DWORD PTR _lpObj$[ebp]
  004dd	50		 push	 eax
  004de	8b 4d f8	 mov	 ecx, DWORD PTR _this$[ebp]
  004e1	e8 00 00 00 00	 call	 ?GetGensInfluence@GensSystem@@QAEHPAUOBJECTSTRUCT@@@Z ; GensSystem::GetGensInfluence
  004e6	88 45 e4	 mov	 BYTE PTR _pMsg$229136[ebp+4], al

; 230  : 		pMsg.iGensRanking			= lpObj->m_GensRanking;

  004e9	8b 45 08	 mov	 eax, DWORD PTR _lpObj$[ebp]
  004ec	8b 88 f0 22 00
	00		 mov	 ecx, DWORD PTR [eax+8944]
  004f2	89 4d e8	 mov	 DWORD PTR _pMsg$229136[ebp+8], ecx

; 231  : 		pMsg.iGensClass				= lpObj->m_GensClass;

  004f5	8b 45 08	 mov	 eax, DWORD PTR _lpObj$[ebp]
  004f8	8b 88 f4 22 00
	00		 mov	 ecx, DWORD PTR [eax+8948]
  004fe	89 4d ec	 mov	 DWORD PTR _pMsg$229136[ebp+12], ecx

; 232  : 		pMsg.iContributePoint		= lpObj->m_ContributePoint;

  00501	8b 45 08	 mov	 eax, DWORD PTR _lpObj$[ebp]
  00504	8b 88 ec 22 00
	00		 mov	 ecx, DWORD PTR [eax+8940]
  0050a	89 4d f0	 mov	 DWORD PTR _pMsg$229136[ebp+16], ecx

; 233  : 		pMsg.iNextContributePoint	= this->GetNextContributePoint(lpObj);

  0050d	8b 45 08	 mov	 eax, DWORD PTR _lpObj$[ebp]
  00510	50		 push	 eax
  00511	8b 4d f8	 mov	 ecx, DWORD PTR _this$[ebp]
  00514	e8 00 00 00 00	 call	 ?GetNextContributePoint@GensSystem@@QAEHPAUOBJECTSTRUCT@@@Z ; GensSystem::GetNextContributePoint
  00519	89 45 f4	 mov	 DWORD PTR _pMsg$229136[ebp+20], eax

; 234  : 
; 235  : 		if (DataSend(lpObj->m_Index, (LPBYTE)&pMsg, pMsg.h.size))

  0051c	0f b6 45 e1	 movzx	 eax, BYTE PTR _pMsg$229136[ebp+1]
  00520	50		 push	 eax
  00521	8d 4d e0	 lea	 ecx, DWORD PTR _pMsg$229136[ebp]
  00524	51		 push	 ecx
  00525	8b 55 08	 mov	 edx, DWORD PTR _lpObj$[ebp]
  00528	8b 02		 mov	 eax, DWORD PTR [edx]
  0052a	50		 push	 eax
  0052b	e8 00 00 00 00	 call	 ?DataSend@@YAHHPAEK@Z	; DataSend
  00530	83 c4 0c	 add	 esp, 12			; 0000000cH
  00533	85 c0		 test	 eax, eax
  00535	74 07		 je	 SHORT $LN2@SendGensIn

; 236  : 			return true;

  00537	b8 01 00 00 00	 mov	 eax, 1
  0053c	eb 02		 jmp	 SHORT $LN4@SendGensIn
$LN2@SendGensIn:

; 237  : 	}
; 238  : 	return false;

  0053e	33 c0		 xor	 eax, eax
$LN4@SendGensIn:

; 239  : }

  00540	5f		 pop	 edi
  00541	5e		 pop	 esi
  00542	5b		 pop	 ebx
  00543	8b 4d fc	 mov	 ecx, DWORD PTR __$ArrayPad$[ebp]
  00546	33 cd		 xor	 ecx, ebp
  00548	e8 00 00 00 00	 call	 @__security_check_cookie@4
  0054d	8b e5		 mov	 esp, ebp
  0054f	5d		 pop	 ebp
  00550	c2 04 00	 ret	 4
?SendGensInfo@GensSystem@@QAEHPAUOBJECTSTRUCT@@@Z ENDP	; GensSystem::SendGensInfo
_TEXT	ENDS
PUBLIC	?AnsSecedeGensMember@GensSystem@@QAEHHE@Z	; GensSystem::AnsSecedeGensMember
; Function compile flags: /Odtp /ZI
_TEXT	SEGMENT
_this$ = -4						; size = 4
_iObjIndex$ = 8						; size = 4
_btResult$ = 12						; size = 1
?AnsSecedeGensMember@GensSystem@@QAEHHE@Z PROC		; GensSystem::AnsSecedeGensMember
; _this$ = ecx

; 247  : {

  00560	55		 push	 ebp
  00561	8b ec		 mov	 ebp, esp
  00563	83 ec 44	 sub	 esp, 68			; 00000044H
  00566	53		 push	 ebx
  00567	56		 push	 esi
  00568	57		 push	 edi
  00569	89 4d fc	 mov	 DWORD PTR _this$[ebp], ecx

; 248  : 	return 0;

  0056c	33 c0		 xor	 eax, eax

; 249  : }

  0056e	5f		 pop	 edi
  0056f	5e		 pop	 esi
  00570	5b		 pop	 ebx
  00571	8b e5		 mov	 esp, ebp
  00573	5d		 pop	 ebp
  00574	c2 08 00	 ret	 8
?AnsSecedeGensMember@GensSystem@@QAEHHE@Z ENDP		; GensSystem::AnsSecedeGensMember
_TEXT	ENDS
PUBLIC	?SendPkPenaltyMapMove@GensSystem@@QAEHPAUOBJECTSTRUCT@@@Z ; GensSystem::SendPkPenaltyMapMove
; Function compile flags: /Odtp /ZI
_TEXT	SEGMENT
tv67 = -76						; size = 4
_pMsg$229151 = -8					; size = 4
_this$ = -4						; size = 4
_lpObj$ = 8						; size = 4
?SendPkPenaltyMapMove@GensSystem@@QAEHPAUOBJECTSTRUCT@@@Z PROC ; GensSystem::SendPkPenaltyMapMove
; _this$ = ecx

; 257  : {

  00580	55		 push	 ebp
  00581	8b ec		 mov	 ebp, esp
  00583	83 ec 4c	 sub	 esp, 76			; 0000004cH
  00586	53		 push	 ebx
  00587	56		 push	 esi
  00588	57		 push	 edi
  00589	89 4d fc	 mov	 DWORD PTR _this$[ebp], ecx

; 258  : 	if (!OBJMAX_RANGE(lpObj->m_Index))

  0058c	8b 45 08	 mov	 eax, DWORD PTR _lpObj$[ebp]
  0058f	83 38 00	 cmp	 DWORD PTR [eax], 0
  00592	7d 09		 jge	 SHORT $LN5@SendPkPena
  00594	c7 45 b4 00 00
	00 00		 mov	 DWORD PTR tv67[ebp], 0
  0059b	eb 11		 jmp	 SHORT $LN6@SendPkPena
$LN5@SendPkPena:
  0059d	8b 4d 08	 mov	 ecx, DWORD PTR _lpObj$[ebp]
  005a0	33 d2		 xor	 edx, edx
  005a2	81 39 97 3a 00
	00		 cmp	 DWORD PTR [ecx], 14999	; 00003a97H
  005a8	0f 9e c2	 setle	 dl
  005ab	89 55 b4	 mov	 DWORD PTR tv67[ebp], edx
$LN6@SendPkPena:
  005ae	83 7d b4 00	 cmp	 DWORD PTR tv67[ebp], 0
  005b2	75 04		 jne	 SHORT $LN2@SendPkPena

; 259  :  	return 0;

  005b4	33 c0		 xor	 eax, eax
  005b6	eb 40		 jmp	 SHORT $LN3@SendPkPena
$LN2@SendPkPena:

; 260  : 
; 261  : 	if (gObjIsConnected(lpObj))

  005b8	8b 45 08	 mov	 eax, DWORD PTR _lpObj$[ebp]
  005bb	50		 push	 eax
  005bc	e8 00 00 00 00	 call	 ?gObjIsConnected@@YAHPAUOBJECTSTRUCT@@@Z ; gObjIsConnected
  005c1	83 c4 04	 add	 esp, 4
  005c4	85 c0		 test	 eax, eax
  005c6	74 2e		 je	 SHORT $LN1@SendPkPena

; 262  : 	{
; 263  : 		BYTE pMsg[4] = { 0xC1, 0x04, 0xF8, 0x08 };

  005c8	c6 45 f8 c1	 mov	 BYTE PTR _pMsg$229151[ebp], 193 ; 000000c1H
  005cc	c6 45 f9 04	 mov	 BYTE PTR _pMsg$229151[ebp+1], 4
  005d0	c6 45 fa f8	 mov	 BYTE PTR _pMsg$229151[ebp+2], 248 ; 000000f8H
  005d4	c6 45 fb 08	 mov	 BYTE PTR _pMsg$229151[ebp+3], 8

; 264  : 		DataSend(lpObj->m_Index, (LPBYTE)&pMsg, pMsg[1]);

  005d8	0f b6 45 f9	 movzx	 eax, BYTE PTR _pMsg$229151[ebp+1]
  005dc	50		 push	 eax
  005dd	8d 4d f8	 lea	 ecx, DWORD PTR _pMsg$229151[ebp]
  005e0	51		 push	 ecx
  005e1	8b 55 08	 mov	 edx, DWORD PTR _lpObj$[ebp]
  005e4	8b 02		 mov	 eax, DWORD PTR [edx]
  005e6	50		 push	 eax
  005e7	e8 00 00 00 00	 call	 ?DataSend@@YAHHPAEK@Z	; DataSend
  005ec	83 c4 0c	 add	 esp, 12			; 0000000cH

; 265  : 		return true;

  005ef	b8 01 00 00 00	 mov	 eax, 1
  005f4	eb 02		 jmp	 SHORT $LN3@SendPkPena
$LN1@SendPkPena:

; 266  : 	}
; 267  : 	return false;

  005f6	33 c0		 xor	 eax, eax
$LN3@SendPkPena:

; 268  : }

  005f8	5f		 pop	 edi
  005f9	5e		 pop	 esi
  005fa	5b		 pop	 ebx
  005fb	8b e5		 mov	 esp, ebp
  005fd	5d		 pop	 ebp
  005fe	c2 04 00	 ret	 4
?SendPkPenaltyMapMove@GensSystem@@QAEHPAUOBJECTSTRUCT@@@Z ENDP ; GensSystem::SendPkPenaltyMapMove
_TEXT	ENDS
PUBLIC	?GetGensClass@GensSystem@@QAEHPAUOBJECTSTRUCT@@@Z ; GensSystem::GetGensClass
PUBLIC	?GetContributePoint@GensSystem@@QAEHPAUOBJECTSTRUCT@@@Z ; GensSystem::GetContributePoint
PUBLIC	?IsRegGensInfluence@GensSystem@@QAE_NPAUOBJECTSTRUCT@@@Z ; GensSystem::IsRegGensInfluence
PUBLIC	__$ArrayPad$
PUBLIC	?GDReqSaveContributePoint@GensSystem@@QAEHPAUOBJECTSTRUCT@@@Z ; GensSystem::GDReqSaveContributePoint
; Function compile flags: /Odtp /ZI
_TEXT	SEGMENT
tv67 = -104						; size = 4
_pMsg$229159 = -36					; size = 28
_this$ = -8						; size = 4
__$ArrayPad$ = -4					; size = 4
_lpObj$ = 8						; size = 4
?GDReqSaveContributePoint@GensSystem@@QAEHPAUOBJECTSTRUCT@@@Z PROC ; GensSystem::GDReqSaveContributePoint
; _this$ = ecx

; 278  : {

  00610	55		 push	 ebp
  00611	8b ec		 mov	 ebp, esp
  00613	83 ec 68	 sub	 esp, 104		; 00000068H
  00616	a1 00 00 00 00	 mov	 eax, DWORD PTR ___security_cookie
  0061b	33 c5		 xor	 eax, ebp
  0061d	89 45 fc	 mov	 DWORD PTR __$ArrayPad$[ebp], eax
  00620	53		 push	 ebx
  00621	56		 push	 esi
  00622	57		 push	 edi
  00623	89 4d f8	 mov	 DWORD PTR _this$[ebp], ecx

; 279  : 	if (!OBJMAX_RANGE(lpObj->m_Index))

  00626	8b 45 08	 mov	 eax, DWORD PTR _lpObj$[ebp]
  00629	83 38 00	 cmp	 DWORD PTR [eax], 0
  0062c	7d 09		 jge	 SHORT $LN6@GDReqSaveC
  0062e	c7 45 98 00 00
	00 00		 mov	 DWORD PTR tv67[ebp], 0
  00635	eb 11		 jmp	 SHORT $LN7@GDReqSaveC
$LN6@GDReqSaveC:
  00637	8b 4d 08	 mov	 ecx, DWORD PTR _lpObj$[ebp]
  0063a	33 d2		 xor	 edx, edx
  0063c	81 39 97 3a 00
	00		 cmp	 DWORD PTR [ecx], 14999	; 00003a97H
  00642	0f 9e c2	 setle	 dl
  00645	89 55 98	 mov	 DWORD PTR tv67[ebp], edx
$LN7@GDReqSaveC:
  00648	83 7d 98 00	 cmp	 DWORD PTR tv67[ebp], 0
  0064c	75 07		 jne	 SHORT $LN3@GDReqSaveC

; 280  : 		return false;

  0064e	33 c0		 xor	 eax, eax
  00650	e9 92 00 00 00	 jmp	 $LN4@GDReqSaveC
$LN3@GDReqSaveC:

; 281  : 
; 282  : 	//if (gObjIsConnected(lpObj))
; 283  : 	//{
; 284  : 		if (this->IsRegGensInfluence(lpObj))

  00655	8b 45 08	 mov	 eax, DWORD PTR _lpObj$[ebp]
  00658	50		 push	 eax
  00659	8b 4d f8	 mov	 ecx, DWORD PTR _this$[ebp]
  0065c	e8 00 00 00 00	 call	 ?IsRegGensInfluence@GensSystem@@QAE_NPAUOBJECTSTRUCT@@@Z ; GensSystem::IsRegGensInfluence
  00661	0f b6 c8	 movzx	 ecx, al
  00664	85 c9		 test	 ecx, ecx
  00666	74 7d		 je	 SHORT $LN2@GDReqSaveC

; 285  : 		{
; 286  : 			PMSG_REQ_SAVE_CONTRIBUTE_POINT_EXDB pMsg;
; 287  : 			// ----
; 288  : 			//PHeadSetB((LPBYTE)&pMsg, 0xF8, sizeof(pMsg));
; 289  : 			//pMsg.subcode			= 0x07;
; 290  : 			PHeadSubSetB((LPBYTE)&pMsg, 0xF8, 0x7, sizeof(pMsg));

  00668	6a 1c		 push	 28			; 0000001cH
  0066a	6a 07		 push	 7
  0066c	68 f8 00 00 00	 push	 248			; 000000f8H
  00671	8d 45 dc	 lea	 eax, DWORD PTR _pMsg$229159[ebp]
  00674	50		 push	 eax
  00675	e8 00 00 00 00	 call	 ?PHeadSubSetB@@YAXPAEEEH@Z ; PHeadSubSetB
  0067a	83 c4 10	 add	 esp, 16			; 00000010H

; 291  : 			// ----
; 292  : 			memcpy(pMsg.Name, lpObj->Name, 0x0A);

  0067d	6a 0a		 push	 10			; 0000000aH
  0067f	8b 45 08	 mov	 eax, DWORD PTR _lpObj$[ebp]
  00682	83 c0 77	 add	 eax, 119		; 00000077H
  00685	50		 push	 eax
  00686	8d 4d e4	 lea	 ecx, DWORD PTR _pMsg$229159[ebp+8]
  00689	51		 push	 ecx
  0068a	e8 00 00 00 00	 call	 _memcpy
  0068f	83 c4 0c	 add	 esp, 12			; 0000000cH

; 293  : 			pMsg.Index				= lpObj->m_Index;

  00692	8b 45 08	 mov	 eax, DWORD PTR _lpObj$[ebp]
  00695	8b 08		 mov	 ecx, DWORD PTR [eax]
  00697	89 4d e0	 mov	 DWORD PTR _pMsg$229159[ebp+4], ecx

; 294  : 			pMsg.Influence			= this->GetGensInfluence(lpObj);

  0069a	8b 45 08	 mov	 eax, DWORD PTR _lpObj$[ebp]
  0069d	50		 push	 eax
  0069e	8b 4d f8	 mov	 ecx, DWORD PTR _this$[ebp]
  006a1	e8 00 00 00 00	 call	 ?GetGensInfluence@GensSystem@@QAEHPAUOBJECTSTRUCT@@@Z ; GensSystem::GetGensInfluence
  006a6	88 45 ee	 mov	 BYTE PTR _pMsg$229159[ebp+18], al

; 295  : 			pMsg.iContributePoint	= this->GetContributePoint(lpObj);

  006a9	8b 45 08	 mov	 eax, DWORD PTR _lpObj$[ebp]
  006ac	50		 push	 eax
  006ad	8b 4d f8	 mov	 ecx, DWORD PTR _this$[ebp]
  006b0	e8 00 00 00 00	 call	 ?GetContributePoint@GensSystem@@QAEHPAUOBJECTSTRUCT@@@Z ; GensSystem::GetContributePoint
  006b5	89 45 f0	 mov	 DWORD PTR _pMsg$229159[ebp+20], eax

; 296  : 			pMsg.iGensClass			= this->GetGensClass(lpObj);

  006b8	8b 45 08	 mov	 eax, DWORD PTR _lpObj$[ebp]
  006bb	50		 push	 eax
  006bc	8b 4d f8	 mov	 ecx, DWORD PTR _this$[ebp]
  006bf	e8 00 00 00 00	 call	 ?GetGensClass@GensSystem@@QAEHPAUOBJECTSTRUCT@@@Z ; GensSystem::GetGensClass
  006c4	89 45 f4	 mov	 DWORD PTR _pMsg$229159[ebp+24], eax

; 297  : 			// ----
; 298  : 			//if( wsJServerCli.DataSend((char*)&pMsg, pMsg.h.size) )
; 299  : 			if( cDBSMng.Send((char*)&pMsg, pMsg.h.size) )

  006c7	0f b6 45 dd	 movzx	 eax, BYTE PTR _pMsg$229159[ebp+1]
  006cb	50		 push	 eax
  006cc	8d 4d dc	 lea	 ecx, DWORD PTR _pMsg$229159[ebp]
  006cf	51		 push	 ecx
  006d0	b9 00 00 00 00	 mov	 ecx, OFFSET ?cDBSMng@@3VDBSockMng@@A ; cDBSMng
  006d5	e8 00 00 00 00	 call	 ?Send@DBSockMng@@QAEHPADH@Z ; DBSockMng::Send
  006da	85 c0		 test	 eax, eax
  006dc	74 07		 je	 SHORT $LN2@GDReqSaveC

; 300  : 			{
; 301  : 				return true;

  006de	b8 01 00 00 00	 mov	 eax, 1
  006e3	eb 02		 jmp	 SHORT $LN4@GDReqSaveC
$LN2@GDReqSaveC:

; 302  : 			}
; 303  : 		}
; 304  : 	//}
; 305  : 	return false;

  006e5	33 c0		 xor	 eax, eax
$LN4@GDReqSaveC:

; 306  : }

  006e7	5f		 pop	 edi
  006e8	5e		 pop	 esi
  006e9	5b		 pop	 ebx
  006ea	8b 4d fc	 mov	 ecx, DWORD PTR __$ArrayPad$[ebp]
  006ed	33 cd		 xor	 ecx, ebp
  006ef	e8 00 00 00 00	 call	 @__security_check_cookie@4
  006f4	8b e5		 mov	 esp, ebp
  006f6	5d		 pop	 ebp
  006f7	c2 04 00	 ret	 4
?GDReqSaveContributePoint@GensSystem@@QAEHPAUOBJECTSTRUCT@@@Z ENDP ; GensSystem::GDReqSaveContributePoint
_TEXT	ENDS
PUBLIC	__$ArrayPad$
PUBLIC	?DBSaveAbusingKillUserName@GensSystem@@QAEHPAUOBJECTSTRUCT@@@Z ; GensSystem::DBSaveAbusingKillUserName
EXTRN	__imp__LeaveCriticalSection@4:PROC
EXTRN	__imp__EnterCriticalSection@4:PROC
EXTRN	?criti@@3U_RTL_CRITICAL_SECTION@@A:BYTE		; criti
; Function compile flags: /Odtp /ZI
_TEXT	SEGMENT
tv67 = -248						; size = 4
_i$229171 = -180					; size = 4
_pMsg$229170 = -176					; size = 168
_this$ = -8						; size = 4
__$ArrayPad$ = -4					; size = 4
_lpObj$ = 8						; size = 4
?DBSaveAbusingKillUserName@GensSystem@@QAEHPAUOBJECTSTRUCT@@@Z PROC ; GensSystem::DBSaveAbusingKillUserName
; _this$ = ecx

; 314  : {

  00700	55		 push	 ebp
  00701	8b ec		 mov	 ebp, esp
  00703	81 ec f8 00 00
	00		 sub	 esp, 248		; 000000f8H
  00709	a1 00 00 00 00	 mov	 eax, DWORD PTR ___security_cookie
  0070e	33 c5		 xor	 eax, ebp
  00710	89 45 fc	 mov	 DWORD PTR __$ArrayPad$[ebp], eax
  00713	53		 push	 ebx
  00714	56		 push	 esi
  00715	57		 push	 edi
  00716	89 4d f8	 mov	 DWORD PTR _this$[ebp], ecx

; 315  : 	if (!OBJMAX_RANGE(lpObj->m_Index))

  00719	8b 45 08	 mov	 eax, DWORD PTR _lpObj$[ebp]
  0071c	83 38 00	 cmp	 DWORD PTR [eax], 0
  0071f	7d 0c		 jge	 SHORT $LN10@DBSaveAbus
  00721	c7 85 08 ff ff
	ff 00 00 00 00	 mov	 DWORD PTR tv67[ebp], 0
  0072b	eb 14		 jmp	 SHORT $LN11@DBSaveAbus
$LN10@DBSaveAbus:
  0072d	8b 4d 08	 mov	 ecx, DWORD PTR _lpObj$[ebp]
  00730	33 d2		 xor	 edx, edx
  00732	81 39 97 3a 00
	00		 cmp	 DWORD PTR [ecx], 14999	; 00003a97H
  00738	0f 9e c2	 setle	 dl
  0073b	89 95 08 ff ff
	ff		 mov	 DWORD PTR tv67[ebp], edx
$LN11@DBSaveAbus:
  00741	83 bd 08 ff ff
	ff 00		 cmp	 DWORD PTR tv67[ebp], 0
  00748	75 07		 jne	 SHORT $LN7@DBSaveAbus

; 316  : 		return false;

  0074a	33 c0		 xor	 eax, eax
  0074c	e9 2a 01 00 00	 jmp	 $LN8@DBSaveAbus
$LN7@DBSaveAbus:

; 317  : 
; 318  : 	if (gObjIsConnected(lpObj))

  00751	8b 45 08	 mov	 eax, DWORD PTR _lpObj$[ebp]
  00754	50		 push	 eax
  00755	e8 00 00 00 00	 call	 ?gObjIsConnected@@YAHPAUOBJECTSTRUCT@@@Z ; gObjIsConnected
  0075a	83 c4 04	 add	 esp, 4
  0075d	85 c0		 test	 eax, eax
  0075f	0f 84 14 01 00
	00		 je	 $LN6@DBSaveAbus

; 319  : 	{
; 320  : 		if (this->IsRegGensInfluence(lpObj))

  00765	8b 45 08	 mov	 eax, DWORD PTR _lpObj$[ebp]
  00768	50		 push	 eax
  00769	8b 4d f8	 mov	 ecx, DWORD PTR _this$[ebp]
  0076c	e8 00 00 00 00	 call	 ?IsRegGensInfluence@GensSystem@@QAE_NPAUOBJECTSTRUCT@@@Z ; GensSystem::IsRegGensInfluence
  00771	0f b6 c8	 movzx	 ecx, al
  00774	85 c9		 test	 ecx, ecx
  00776	0f 84 fd 00 00
	00		 je	 $LN6@DBSaveAbus

; 321  : 		{
; 322  : 			EnterCriticalSection(&criti);

  0077c	68 00 00 00 00	 push	 OFFSET ?criti@@3U_RTL_CRITICAL_SECTION@@A ; criti
  00781	ff 15 00 00 00
	00		 call	 DWORD PTR __imp__EnterCriticalSection@4

; 323  : 
; 324  : 			PMSG_REQ_SAVE_ABUSING_KILLUSER_EXDB pMsg;
; 325  : 
; 326  : 			pMsg.bResult = 0;

  00787	c6 85 60 ff ff
	ff 00		 mov	 BYTE PTR _pMsg$229170[ebp+16], 0

; 327  : 
; 328  : 			for (int i = 0; i < 10; ++i)

  0078e	c7 85 4c ff ff
	ff 00 00 00 00	 mov	 DWORD PTR _i$229171[ebp], 0
  00798	eb 0f		 jmp	 SHORT $LN4@DBSaveAbus
$LN3@DBSaveAbus:
  0079a	8b 85 4c ff ff
	ff		 mov	 eax, DWORD PTR _i$229171[ebp]
  007a0	83 c0 01	 add	 eax, 1
  007a3	89 85 4c ff ff
	ff		 mov	 DWORD PTR _i$229171[ebp], eax
$LN4@DBSaveAbus:
  007a9	83 bd 4c ff ff
	ff 0a		 cmp	 DWORD PTR _i$229171[ebp], 10 ; 0000000aH
  007b0	7d 48		 jge	 SHORT $LN2@DBSaveAbus

; 329  : 			{
; 330  : 			 pMsg.KillName[i * 11] = 0;

  007b2	8b 85 4c ff ff
	ff		 mov	 eax, DWORD PTR _i$229171[ebp]
  007b8	6b c0 0b	 imul	 eax, 11			; 0000000bH
  007bb	c6 84 05 6b ff
	ff ff 00	 mov	 BYTE PTR _pMsg$229170[ebp+eax+27], 0

; 331  : 
; 332  : 				pMsg.KillCount[i] = lpObj->m_KillUserCnt;

  007c3	8b 85 4c ff ff
	ff		 mov	 eax, DWORD PTR _i$229171[ebp]
  007c9	8b 4d 08	 mov	 ecx, DWORD PTR _lpObj$[ebp]
  007cc	8b 91 e0 22 00
	00		 mov	 edx, DWORD PTR [ecx+8928]
  007d2	89 54 85 d0	 mov	 DWORD PTR _pMsg$229170[ebp+eax*4+128], edx

; 333  : 
; 334  : 				memcpy(&pMsg.KillName[i * 11], lpObj->Name, 0x0A); 

  007d6	6a 0a		 push	 10			; 0000000aH
  007d8	8b 45 08	 mov	 eax, DWORD PTR _lpObj$[ebp]
  007db	83 c0 77	 add	 eax, 119		; 00000077H
  007de	50		 push	 eax
  007df	8b 8d 4c ff ff
	ff		 mov	 ecx, DWORD PTR _i$229171[ebp]
  007e5	6b c9 0b	 imul	 ecx, 11			; 0000000bH
  007e8	8d 94 0d 6b ff
	ff ff		 lea	 edx, DWORD PTR _pMsg$229170[ebp+ecx+27]
  007ef	52		 push	 edx
  007f0	e8 00 00 00 00	 call	 _memcpy
  007f5	83 c4 0c	 add	 esp, 12			; 0000000cH

; 335  : 			}

  007f8	eb a0		 jmp	 SHORT $LN3@DBSaveAbus
$LN2@DBSaveAbus:

; 336  : 
; 337  : 			memcpy(pMsg.AccountID, lpObj->AccountID, 0x0A);

  007fa	6a 0a		 push	 10			; 0000000aH
  007fc	8b 45 08	 mov	 eax, DWORD PTR _lpObj$[ebp]
  007ff	83 c0 6c	 add	 eax, 108		; 0000006cH
  00802	50		 push	 eax
  00803	8d 8d 53 ff ff
	ff		 lea	 ecx, DWORD PTR _pMsg$229170[ebp+3]
  00809	51		 push	 ecx
  0080a	e8 00 00 00 00	 call	 _memcpy
  0080f	83 c4 0c	 add	 esp, 12			; 0000000cH

; 338  : 			
; 339  : 			memcpy(pMsg.Name, lpObj->Name, 0x0A);

  00812	6a 0a		 push	 10			; 0000000aH
  00814	8b 45 08	 mov	 eax, DWORD PTR _lpObj$[ebp]
  00817	83 c0 77	 add	 eax, 119		; 00000077H
  0081a	50		 push	 eax
  0081b	8d 8d 61 ff ff
	ff		 lea	 ecx, DWORD PTR _pMsg$229170[ebp+17]
  00821	51		 push	 ecx
  00822	e8 00 00 00 00	 call	 _memcpy
  00827	83 c4 0c	 add	 esp, 12			; 0000000cH

; 340  : 
; 341  : 			PHeadSetB((LPBYTE)&pMsg, 0xF8, sizeof(pMsg));

  0082a	68 a8 00 00 00	 push	 168			; 000000a8H
  0082f	68 f8 00 00 00	 push	 248			; 000000f8H
  00834	8d 85 50 ff ff
	ff		 lea	 eax, DWORD PTR _pMsg$229170[ebp]
  0083a	50		 push	 eax
  0083b	e8 00 00 00 00	 call	 ?PHeadSetB@@YAXPAEEH@Z	; PHeadSetB
  00840	83 c4 0c	 add	 esp, 12			; 0000000cH

; 342  : 
; 343  : 			pMsg.bResult = 8;

  00843	c6 85 60 ff ff
	ff 08		 mov	 BYTE PTR _pMsg$229170[ebp+16], 8

; 344  : 
; 345  : 			LeaveCriticalSection(&criti);

  0084a	68 00 00 00 00	 push	 OFFSET ?criti@@3U_RTL_CRITICAL_SECTION@@A ; criti
  0084f	ff 15 00 00 00
	00		 call	 DWORD PTR __imp__LeaveCriticalSection@4

; 346  : 			
; 347  : 			if (wsJServerCli.DataSend((char*)&pMsg, pMsg.h.size))

  00855	0f b6 85 51 ff
	ff ff		 movzx	 eax, BYTE PTR _pMsg$229170[ebp+1]
  0085c	50		 push	 eax
  0085d	8d 8d 50 ff ff
	ff		 lea	 ecx, DWORD PTR _pMsg$229170[ebp]
  00863	51		 push	 ecx
  00864	b9 00 00 00 00	 mov	 ecx, OFFSET ?wsJServerCli@@3VwsJoinServerCli@@A ; wsJServerCli
  00869	e8 00 00 00 00	 call	 ?DataSend@wsJoinServerCli@@QAEHPADH@Z ; wsJoinServerCli::DataSend
  0086e	85 c0		 test	 eax, eax
  00870	74 07		 je	 SHORT $LN6@DBSaveAbus

; 348  : 				return true;

  00872	b8 01 00 00 00	 mov	 eax, 1
  00877	eb 02		 jmp	 SHORT $LN8@DBSaveAbus
$LN6@DBSaveAbus:

; 349  : 		}
; 350  : 	}
; 351  : 	return false;

  00879	33 c0		 xor	 eax, eax
$LN8@DBSaveAbus:

; 352  : }

  0087b	5f		 pop	 edi
  0087c	5e		 pop	 esi
  0087d	5b		 pop	 ebx
  0087e	8b 4d fc	 mov	 ecx, DWORD PTR __$ArrayPad$[ebp]
  00881	33 cd		 xor	 ecx, ebp
  00883	e8 00 00 00 00	 call	 @__security_check_cookie@4
  00888	8b e5		 mov	 esp, ebp
  0088a	5d		 pop	 ebp
  0088b	c2 04 00	 ret	 4
?DBSaveAbusingKillUserName@GensSystem@@QAEHPAUOBJECTSTRUCT@@@Z ENDP ; GensSystem::DBSaveAbusingKillUserName
_TEXT	ENDS
PUBLIC	?IsMapBattleZone@GensSystem@@QAEHH@Z		; GensSystem::IsMapBattleZone
PUBLIC	?BattleZoneChatMsgSend@GensSystem@@QAEXPAUOBJECTSTRUCT@@PAEH@Z ; GensSystem::BattleZoneChatMsgSend
EXTRN	?gObj@@3PAUOBJECTSTRUCT@@A:DWORD		; gObj
; Function compile flags: /Odtp /ZI
_TEXT	SEGMENT
_n$229186 = -12						; size = 4
_iInfluence$229185 = -8					; size = 4
_this$ = -4						; size = 4
_obj$ = 8						; size = 4
_Msg$ = 12						; size = 4
_size$ = 16						; size = 4
?BattleZoneChatMsgSend@GensSystem@@QAEXPAUOBJECTSTRUCT@@PAEH@Z PROC ; GensSystem::BattleZoneChatMsgSend
; _this$ = ecx

; 360  : {

  00890	55		 push	 ebp
  00891	8b ec		 mov	 ebp, esp
  00893	83 ec 4c	 sub	 esp, 76			; 0000004cH
  00896	53		 push	 ebx
  00897	56		 push	 esi
  00898	57		 push	 edi
  00899	89 4d fc	 mov	 DWORD PTR _this$[ebp], ecx

; 361  : 	if( this->IsMapBattleZone(obj->MapNumber) )

  0089c	8b 45 08	 mov	 eax, DWORD PTR _obj$[ebp]
  0089f	0f b6 88 49 01
	00 00		 movzx	 ecx, BYTE PTR [eax+329]
  008a6	51		 push	 ecx
  008a7	8b 4d fc	 mov	 ecx, DWORD PTR _this$[ebp]
  008aa	e8 00 00 00 00	 call	 ?IsMapBattleZone@GensSystem@@QAEHH@Z ; GensSystem::IsMapBattleZone
  008af	85 c0		 test	 eax, eax
  008b1	0f 84 a5 00 00
	00		 je	 $LN7@BattleZone

; 362  : 	{
; 363  : 		int iInfluence = this->GetGensInfluence(obj);

  008b7	8b 45 08	 mov	 eax, DWORD PTR _obj$[ebp]
  008ba	50		 push	 eax
  008bb	8b 4d fc	 mov	 ecx, DWORD PTR _this$[ebp]
  008be	e8 00 00 00 00	 call	 ?GetGensInfluence@GensSystem@@QAEHPAUOBJECTSTRUCT@@@Z ; GensSystem::GetGensInfluence
  008c3	89 45 f8	 mov	 DWORD PTR _iInfluence$229185[ebp], eax

; 364  : 		// -----
; 365  : 		for( int n = 0; n < 75; n++ )

  008c6	c7 45 f4 00 00
	00 00		 mov	 DWORD PTR _n$229186[ebp], 0
  008cd	eb 09		 jmp	 SHORT $LN5@BattleZone
$LN4@BattleZone:
  008cf	8b 45 f4	 mov	 eax, DWORD PTR _n$229186[ebp]
  008d2	83 c0 01	 add	 eax, 1
  008d5	89 45 f4	 mov	 DWORD PTR _n$229186[ebp], eax
$LN5@BattleZone:
  008d8	83 7d f4 4b	 cmp	 DWORD PTR _n$229186[ebp], 75 ; 0000004bH
  008dc	7d 7e		 jge	 SHORT $LN7@BattleZone

; 366  : 		{
; 367  : 			if( obj->VpPlayer2[n].type == OBJ_USER && obj->VpPlayer2[n].state == PLAYER_CONNECTED )

  008de	8b 45 f4	 mov	 eax, DWORD PTR _n$229186[ebp]
  008e1	6b c0 0c	 imul	 eax, 12			; 0000000cH
  008e4	8b 4d 08	 mov	 ecx, DWORD PTR _obj$[ebp]
  008e7	0f b6 94 01 b0
	08 00 00	 movzx	 edx, BYTE PTR [ecx+eax+2224]
  008ef	83 fa 01	 cmp	 edx, 1
  008f2	75 63		 jne	 SHORT $LN2@BattleZone
  008f4	8b 45 f4	 mov	 eax, DWORD PTR _n$229186[ebp]
  008f7	6b c0 0c	 imul	 eax, 12			; 0000000cH
  008fa	8b 4d 08	 mov	 ecx, DWORD PTR _obj$[ebp]
  008fd	0f be 94 01 ac
	08 00 00	 movsx	 edx, BYTE PTR [ecx+eax+2220]
  00905	83 fa 01	 cmp	 edx, 1
  00908	75 4d		 jne	 SHORT $LN2@BattleZone

; 368  : 			{
; 369  : 				if( this->GetGensInfluence(&gObj[obj->VpPlayer2[n].number]) == iInfluence )

  0090a	8b 45 f4	 mov	 eax, DWORD PTR _n$229186[ebp]
  0090d	6b c0 0c	 imul	 eax, 12			; 0000000cH
  00910	8b 4d 08	 mov	 ecx, DWORD PTR _obj$[ebp]
  00913	0f bf 94 01 ae
	08 00 00	 movsx	 edx, WORD PTR [ecx+eax+2222]
  0091b	69 d2 38 2b 00
	00		 imul	 edx, 11064		; 00002b38H
  00921	03 15 00 00 00
	00		 add	 edx, DWORD PTR ?gObj@@3PAUOBJECTSTRUCT@@A ; gObj
  00927	52		 push	 edx
  00928	8b 4d fc	 mov	 ecx, DWORD PTR _this$[ebp]
  0092b	e8 00 00 00 00	 call	 ?GetGensInfluence@GensSystem@@QAEHPAUOBJECTSTRUCT@@@Z ; GensSystem::GetGensInfluence
  00930	3b 45 f8	 cmp	 eax, DWORD PTR _iInfluence$229185[ebp]
  00933	75 22		 jne	 SHORT $LN2@BattleZone

; 370  : 				{
; 371  : 					DataSend(obj->VpPlayer2[n].number, Msg, size);

  00935	8b 45 10	 mov	 eax, DWORD PTR _size$[ebp]
  00938	50		 push	 eax
  00939	8b 4d 0c	 mov	 ecx, DWORD PTR _Msg$[ebp]
  0093c	51		 push	 ecx
  0093d	8b 55 f4	 mov	 edx, DWORD PTR _n$229186[ebp]
  00940	6b d2 0c	 imul	 edx, 12			; 0000000cH
  00943	8b 45 08	 mov	 eax, DWORD PTR _obj$[ebp]
  00946	0f bf 8c 10 ae
	08 00 00	 movsx	 ecx, WORD PTR [eax+edx+2222]
  0094e	51		 push	 ecx
  0094f	e8 00 00 00 00	 call	 ?DataSend@@YAHHPAEK@Z	; DataSend
  00954	83 c4 0c	 add	 esp, 12			; 0000000cH
$LN2@BattleZone:

; 372  : 				}
; 373  : 			}
; 374  : 		}

  00957	e9 73 ff ff ff	 jmp	 $LN4@BattleZone
$LN7@BattleZone:

; 375  : 	}
; 376  : }

  0095c	5f		 pop	 edi
  0095d	5e		 pop	 esi
  0095e	5b		 pop	 ebx
  0095f	8b e5		 mov	 esp, ebp
  00961	5d		 pop	 ebp
  00962	c2 0c 00	 ret	 12			; 0000000cH
?BattleZoneChatMsgSend@GensSystem@@QAEXPAUOBJECTSTRUCT@@PAEH@Z ENDP ; GensSystem::BattleZoneChatMsgSend
_TEXT	ENDS
PUBLIC	?IsMoveMapBattleZone@GensSystem@@QAEHH@Z	; GensSystem::IsMoveMapBattleZone
EXTRN	?gPkLimitFree@@3HA:DWORD			; gPkLimitFree
; Function compile flags: /Odtp /ZI
_TEXT	SEGMENT
tv72 = -76						; size = 4
_i$229196 = -8						; size = 4
_this$ = -4						; size = 4
_iMapIndex$ = 8						; size = 4
?IsMoveMapBattleZone@GensSystem@@QAEHH@Z PROC		; GensSystem::IsMoveMapBattleZone
; _this$ = ecx

; 384  : {

  00970	55		 push	 ebp
  00971	8b ec		 mov	 ebp, esp
  00973	83 ec 4c	 sub	 esp, 76			; 0000004cH
  00976	53		 push	 ebx
  00977	56		 push	 esi
  00978	57		 push	 edi
  00979	89 4d fc	 mov	 DWORD PTR _this$[ebp], ecx

; 385  : 	//if (gPkLimitFree)
; 386  : 	{
; 387  : 		/*switch (iMapIndex)
; 388  : 		{
; 389  : 		case 11:
; 390  : 		case 12:
; 391  : 		case 13:
; 392  : 		case 25:
; 393  : 		case 27:
; 394  : 		case 28:
; 395  : 		case 29:
; 396  : 		case 33:
; 397  : 		case 42:
; 398  : 		case 45:
; 399  : 			return 1;
; 400  : 		default:
; 401  : 			break;
; 402  : 		}*/
; 403  : 		for( int i = 0; i < MAX_BATTLE_ZONE; i++ )

  0097c	c7 45 f8 00 00
	00 00		 mov	 DWORD PTR _i$229196[ebp], 0
  00983	eb 09		 jmp	 SHORT $LN4@IsMoveMapB
$LN3@IsMoveMapB:
  00985	8b 45 f8	 mov	 eax, DWORD PTR _i$229196[ebp]
  00988	83 c0 01	 add	 eax, 1
  0098b	89 45 f8	 mov	 DWORD PTR _i$229196[ebp], eax
$LN4@IsMoveMapB:
  0098e	83 7d f8 0b	 cmp	 DWORD PTR _i$229196[ebp], 11 ; 0000000bH
  00992	7d 18		 jge	 SHORT $LN2@IsMoveMapB

; 404  : 		{
; 405  : 			if( iMapIndex == this->BattleMapList[i] )

  00994	8b 45 fc	 mov	 eax, DWORD PTR _this$[ebp]
  00997	03 45 f8	 add	 eax, DWORD PTR _i$229196[ebp]
  0099a	0f b6 48 0f	 movzx	 ecx, BYTE PTR [eax+15]
  0099e	39 4d 08	 cmp	 DWORD PTR _iMapIndex$[ebp], ecx
  009a1	75 07		 jne	 SHORT $LN1@IsMoveMapB

; 406  : 			{
; 407  : 				return true;

  009a3	b8 01 00 00 00	 mov	 eax, 1
  009a8	eb 24		 jmp	 SHORT $LN5@IsMoveMapB
$LN1@IsMoveMapB:

; 408  : 			}
; 409  : 		}

  009aa	eb d9		 jmp	 SHORT $LN3@IsMoveMapB
$LN2@IsMoveMapB:

; 410  : 	}
; 411  : 	// ----
; 412  : 	return !gPkLimitFree && iMapIndex == 42;

  009ac	83 3d 00 00 00
	00 00		 cmp	 DWORD PTR ?gPkLimitFree@@3HA, 0 ; gPkLimitFree
  009b3	75 0f		 jne	 SHORT $LN7@IsMoveMapB
  009b5	83 7d 08 2a	 cmp	 DWORD PTR _iMapIndex$[ebp], 42 ; 0000002aH
  009b9	75 09		 jne	 SHORT $LN7@IsMoveMapB
  009bb	c7 45 b4 01 00
	00 00		 mov	 DWORD PTR tv72[ebp], 1
  009c2	eb 07		 jmp	 SHORT $LN8@IsMoveMapB
$LN7@IsMoveMapB:
  009c4	c7 45 b4 00 00
	00 00		 mov	 DWORD PTR tv72[ebp], 0
$LN8@IsMoveMapB:
  009cb	8b 45 b4	 mov	 eax, DWORD PTR tv72[ebp]
$LN5@IsMoveMapB:

; 413  : }

  009ce	5f		 pop	 edi
  009cf	5e		 pop	 esi
  009d0	5b		 pop	 ebx
  009d1	8b e5		 mov	 esp, ebp
  009d3	5d		 pop	 ebp
  009d4	c2 04 00	 ret	 4
?IsMoveMapBattleZone@GensSystem@@QAEHH@Z ENDP		; GensSystem::IsMoveMapBattleZone
_TEXT	ENDS
PUBLIC	?GensViewportListProtocol@GensSystem@@QAEXPAUOBJECTSTRUCT@@@Z ; GensSystem::GensViewportListProtocol
EXTRN	?PHeadSubSetW@@YAXPAEEEH@Z:PROC			; PHeadSubSetW
EXTRN	?gObjSearchActiveEffect@@YAEPAUOBJECTSTRUCT@@H@Z:PROC ; gObjSearchActiveEffect
EXTRN	_memset:PROC
; Function compile flags: /Odtp /ZI
_TEXT	SEGMENT
tv145 = -92						; size = 4
_tObjNum$229226 = -24					; size = 4
_n$229216 = -20						; size = 4
_iViewportSize$ = -16					; size = 4
_iGensCount$ = -12					; size = 4
_btInfluence$ = -5					; size = 1
_this$ = -4						; size = 4
_lpObj$ = 8						; size = 4
?GensViewportListProtocol@GensSystem@@QAEXPAUOBJECTSTRUCT@@@Z PROC ; GensSystem::GensViewportListProtocol
; _this$ = ecx

; 422  : {

  009e0	55		 push	 ebp
  009e1	8b ec		 mov	 ebp, esp
  009e3	83 ec 5c	 sub	 esp, 92			; 0000005cH
  009e6	53		 push	 ebx
  009e7	56		 push	 esi
  009e8	57		 push	 edi
  009e9	89 4d fc	 mov	 DWORD PTR _this$[ebp], ecx

; 423  : 	unsigned char btInfluence;
; 424  : 
; 425  : 	int iGensCount = 0;

  009ec	c7 45 f4 00 00
	00 00		 mov	 DWORD PTR _iGensCount$[ebp], 0

; 426  : 	
; 427  : 	int iViewportSize = 0x06;

  009f3	c7 45 f0 06 00
	00 00		 mov	 DWORD PTR _iViewportSize$[ebp], 6

; 428  : 
; 429  : 	memset(&lpViewportAdd, 0, MAX_VIEWPORT_INFO);

  009fa	68 fd 07 00 00	 push	 2045			; 000007fdH
  009ff	6a 00		 push	 0
  00a01	68 00 00 00 00	 push	 OFFSET ?lpViewportAdd@@3PAEA ; lpViewportAdd
  00a06	e8 00 00 00 00	 call	 _memset
  00a0b	83 c4 0c	 add	 esp, 12			; 0000000cH

; 430  : 
; 431  : 	if ( gObjSearchActiveEffect(lpObj, AT_INVISIBILITY) != 1 )

  00a0e	6a 12		 push	 18			; 00000012H
  00a10	8b 45 08	 mov	 eax, DWORD PTR _lpObj$[ebp]
  00a13	50		 push	 eax
  00a14	e8 00 00 00 00	 call	 ?gObjSearchActiveEffect@@YAEPAUOBJECTSTRUCT@@H@Z ; gObjSearchActiveEffect
  00a19	83 c4 08	 add	 esp, 8
  00a1c	0f b6 c8	 movzx	 ecx, al
  00a1f	83 f9 01	 cmp	 ecx, 1
  00a22	0f 84 4d 01 00
	00		 je	 $LN10@GensViewpo

; 432  : 		//(lpObj->Authority & 32) != 32 || 
; 433  : 	{
; 434  : 		pGensMsg.btInfluence		= this->GetGensInfluence(lpObj);

  00a28	8b 45 08	 mov	 eax, DWORD PTR _lpObj$[ebp]
  00a2b	50		 push	 eax
  00a2c	8b 4d fc	 mov	 ecx, DWORD PTR _this$[ebp]
  00a2f	e8 00 00 00 00	 call	 ?GetGensInfluence@GensSystem@@QAEHPAUOBJECTSTRUCT@@@Z ; GensSystem::GetGensInfluence
  00a34	a2 00 00 00 00	 mov	 BYTE PTR ?pGensMsg@@3UPMSG_GENS_MEMBER_VIEWPORT_INFO@@A, al

; 435  : 		btInfluence					= pGensMsg.btInfluence;

  00a39	a0 00 00 00 00	 mov	 al, BYTE PTR ?pGensMsg@@3UPMSG_GENS_MEMBER_VIEWPORT_INFO@@A
  00a3e	88 45 fb	 mov	 BYTE PTR _btInfluence$[ebp], al

; 436  : 		pGensMsg.NumberH			= HIBYTE(lpObj->m_Index);

  00a41	8b 45 08	 mov	 eax, DWORD PTR _lpObj$[ebp]
  00a44	8b 08		 mov	 ecx, DWORD PTR [eax]
  00a46	c1 e9 08	 shr	 ecx, 8
  00a49	81 e1 ff 00 00
	00		 and	 ecx, 255		; 000000ffH
  00a4f	88 0d 01 00 00
	00		 mov	 BYTE PTR ?pGensMsg@@3UPMSG_GENS_MEMBER_VIEWPORT_INFO@@A+1, cl

; 437  : 		pGensMsg.NumberL			= LOBYTE(lpObj->m_Index);

  00a55	8b 45 08	 mov	 eax, DWORD PTR _lpObj$[ebp]
  00a58	8b 08		 mov	 ecx, DWORD PTR [eax]
  00a5a	81 e1 ff 00 00
	00		 and	 ecx, 255		; 000000ffH
  00a60	88 0d 02 00 00
	00		 mov	 BYTE PTR ?pGensMsg@@3UPMSG_GENS_MEMBER_VIEWPORT_INFO@@A+2, cl

; 438  : 		pGensMsg.iGensRanking		= lpObj->m_GensRanking;

  00a66	8b 45 08	 mov	 eax, DWORD PTR _lpObj$[ebp]
  00a69	8b 88 f0 22 00
	00		 mov	 ecx, DWORD PTR [eax+8944]
  00a6f	89 0d 04 00 00
	00		 mov	 DWORD PTR ?pGensMsg@@3UPMSG_GENS_MEMBER_VIEWPORT_INFO@@A+4, ecx

; 439  : 		pGensMsg.iGensClass			= this->GetGensClass(lpObj);

  00a75	8b 45 08	 mov	 eax, DWORD PTR _lpObj$[ebp]
  00a78	50		 push	 eax
  00a79	8b 4d fc	 mov	 ecx, DWORD PTR _this$[ebp]
  00a7c	e8 00 00 00 00	 call	 ?GetGensClass@GensSystem@@QAEHPAUOBJECTSTRUCT@@@Z ; GensSystem::GetGensClass
  00a81	a3 08 00 00 00	 mov	 DWORD PTR ?pGensMsg@@3UPMSG_GENS_MEMBER_VIEWPORT_INFO@@A+8, eax

; 440  : 		pGensMsg.iContributePoint	= this->GetContributePoint(lpObj);

  00a86	8b 45 08	 mov	 eax, DWORD PTR _lpObj$[ebp]
  00a89	50		 push	 eax
  00a8a	8b 4d fc	 mov	 ecx, DWORD PTR _this$[ebp]
  00a8d	e8 00 00 00 00	 call	 ?GetContributePoint@GensSystem@@QAEHPAUOBJECTSTRUCT@@@Z ; GensSystem::GetContributePoint
  00a92	a3 0c 00 00 00	 mov	 DWORD PTR ?pGensMsg@@3UPMSG_GENS_MEMBER_VIEWPORT_INFO@@A+12, eax

; 441  : 		// ----
; 442  : 		memcpy((BYTE*)lpViewportAdd + iViewportSize, &pGensMsg, 16);

  00a97	6a 10		 push	 16			; 00000010H
  00a99	68 00 00 00 00	 push	 OFFSET ?pGensMsg@@3UPMSG_GENS_MEMBER_VIEWPORT_INFO@@A ; pGensMsg
  00a9e	8b 45 f0	 mov	 eax, DWORD PTR _iViewportSize$[ebp]
  00aa1	05 00 00 00 00	 add	 eax, OFFSET ?lpViewportAdd@@3PAEA ; lpViewportAdd
  00aa6	50		 push	 eax
  00aa7	e8 00 00 00 00	 call	 _memcpy
  00aac	83 c4 0c	 add	 esp, 12			; 0000000cH

; 443  : 		// ----
; 444  : 		iViewportSize				+= 16; 

  00aaf	8b 45 f0	 mov	 eax, DWORD PTR _iViewportSize$[ebp]
  00ab2	83 c0 10	 add	 eax, 16			; 00000010H
  00ab5	89 45 f0	 mov	 DWORD PTR _iViewportSize$[ebp], eax

; 445  : 		++iGensCount;

  00ab8	8b 45 f4	 mov	 eax, DWORD PTR _iGensCount$[ebp]
  00abb	83 c0 01	 add	 eax, 1
  00abe	89 45 f4	 mov	 DWORD PTR _iGensCount$[ebp], eax

; 446  : 		// ----
; 447  : 		PHeadSubSetW((LPBYTE)&pGensCount, 0xF8, 0x05, iViewportSize); 	

  00ac1	8b 45 f0	 mov	 eax, DWORD PTR _iViewportSize$[ebp]
  00ac4	50		 push	 eax
  00ac5	6a 05		 push	 5
  00ac7	68 f8 00 00 00	 push	 248			; 000000f8H
  00acc	68 00 00 00 00	 push	 OFFSET ?pGensCount@@3UPMSG_SEND_GENS_MEMBER_VIEWPORT@@A ; pGensCount
  00ad1	e8 00 00 00 00	 call	 ?PHeadSubSetW@@YAXPAEEEH@Z ; PHeadSubSetW
  00ad6	83 c4 10	 add	 esp, 16			; 00000010H

; 448  : 		pGensCount.Count = iGensCount;

  00ad9	8a 45 f4	 mov	 al, BYTE PTR _iGensCount$[ebp]
  00adc	a2 05 00 00 00	 mov	 BYTE PTR ?pGensCount@@3UPMSG_SEND_GENS_MEMBER_VIEWPORT@@A+5, al

; 449  : 		memcpy((BYTE*)lpViewportAdd, &pGensCount, 6);

  00ae1	6a 06		 push	 6
  00ae3	68 00 00 00 00	 push	 OFFSET ?pGensCount@@3UPMSG_SEND_GENS_MEMBER_VIEWPORT@@A ; pGensCount
  00ae8	68 00 00 00 00	 push	 OFFSET ?lpViewportAdd@@3PAEA ; lpViewportAdd
  00aed	e8 00 00 00 00	 call	 _memcpy
  00af2	83 c4 0c	 add	 esp, 12			; 0000000cH

; 450  : 
; 451  : 		for (int n = 0; n < MAX_VIEWPORT; ++n)

  00af5	c7 45 ec 00 00
	00 00		 mov	 DWORD PTR _n$229216[ebp], 0
  00afc	eb 09		 jmp	 SHORT $LN8@GensViewpo
$LN7@GensViewpo:
  00afe	8b 45 ec	 mov	 eax, DWORD PTR _n$229216[ebp]
  00b01	83 c0 01	 add	 eax, 1
  00b04	89 45 ec	 mov	 DWORD PTR _n$229216[ebp], eax
$LN8@GensViewpo:
  00b07	83 7d ec 4b	 cmp	 DWORD PTR _n$229216[ebp], 75 ; 0000004bH
  00b0b	7d 68		 jge	 SHORT $LN10@GensViewpo

; 452  : 		{
; 453  : 			if (lpObj->VpPlayer[n].type == OBJ_USER)

  00b0d	8b 45 ec	 mov	 eax, DWORD PTR _n$229216[ebp]
  00b10	6b c0 0c	 imul	 eax, 12			; 0000000cH
  00b13	8b 4d 08	 mov	 ecx, DWORD PTR _lpObj$[ebp]
  00b16	0f b6 94 01 2c
	05 00 00	 movzx	 edx, BYTE PTR [ecx+eax+1324]
  00b1e	83 fa 01	 cmp	 edx, 1
  00b21	75 50		 jne	 SHORT $LN5@GensViewpo

; 454  : 			{
; 455  : 				switch (lpObj->VpPlayer[n].state)

  00b23	8b 45 ec	 mov	 eax, DWORD PTR _n$229216[ebp]
  00b26	6b c0 0c	 imul	 eax, 12			; 0000000cH
  00b29	8b 4d 08	 mov	 ecx, DWORD PTR _lpObj$[ebp]
  00b2c	8a 94 01 28 05
	00 00		 mov	 dl, BYTE PTR [ecx+eax+1320]
  00b33	88 55 a4	 mov	 BYTE PTR tv145[ebp], dl
  00b36	80 7d a4 00	 cmp	 BYTE PTR tv145[ebp], 0
  00b3a	7e 37		 jle	 SHORT $LN5@GensViewpo
  00b3c	80 7d a4 03	 cmp	 BYTE PTR tv145[ebp], 3
  00b40	7e 02		 jle	 SHORT $LN2@GensViewpo
  00b42	eb 2f		 jmp	 SHORT $LN5@GensViewpo
$LN2@GensViewpo:

; 456  : 				{
; 457  : 				case 1:
; 458  : 				case 2:
; 459  : 				case 3:
; 460  : 					{
; 461  : 				 	int tObjNum = lpObj->VpPlayer[n].number;

  00b44	8b 45 ec	 mov	 eax, DWORD PTR _n$229216[ebp]
  00b47	6b c0 0c	 imul	 eax, 12			; 0000000cH
  00b4a	8b 4d 08	 mov	 ecx, DWORD PTR _lpObj$[ebp]
  00b4d	0f bf 94 01 2a
	05 00 00	 movsx	 edx, WORD PTR [ecx+eax+1322]
  00b55	89 55 e8	 mov	 DWORD PTR _tObjNum$229226[ebp], edx

; 462  : 
; 463  : 					 if (tObjNum > 0)

  00b58	83 7d e8 00	 cmp	 DWORD PTR _tObjNum$229226[ebp], 0
  00b5c	7e 15		 jle	 SHORT $LN5@GensViewpo

; 464  : 					 {
; 465  : 			  		DataSend(tObjNum, (LPBYTE)&lpViewportAdd, iViewportSize);

  00b5e	8b 45 f0	 mov	 eax, DWORD PTR _iViewportSize$[ebp]
  00b61	50		 push	 eax
  00b62	68 00 00 00 00	 push	 OFFSET ?lpViewportAdd@@3PAEA ; lpViewportAdd
  00b67	8b 4d e8	 mov	 ecx, DWORD PTR _tObjNum$229226[ebp]
  00b6a	51		 push	 ecx
  00b6b	e8 00 00 00 00	 call	 ?DataSend@@YAHHPAEK@Z	; DataSend
  00b70	83 c4 0c	 add	 esp, 12			; 0000000cH
$LN5@GensViewpo:

; 466  : 				 	}				
; 467  : 					}
; 468  : 					break;
; 469  : 				}
; 470  : 			}
; 471  : 		}

  00b73	eb 89		 jmp	 SHORT $LN7@GensViewpo
$LN10@GensViewpo:

; 472  : 	}
; 473  : }

  00b75	5f		 pop	 edi
  00b76	5e		 pop	 esi
  00b77	5b		 pop	 ebx
  00b78	8b e5		 mov	 esp, ebp
  00b7a	5d		 pop	 ebp
  00b7b	c2 04 00	 ret	 4
?GensViewportListProtocol@GensSystem@@QAEXPAUOBJECTSTRUCT@@@Z ENDP ; GensSystem::GensViewportListProtocol
_TEXT	ENDS
EXTRN	?gGENS@@3HA:DWORD				; gGENS
EXTRN	?gNonPK@@3HA:DWORD				; gNonPK
; Function compile flags: /Odtp /ZI
_TEXT	SEGMENT
_i$229235 = -8						; size = 4
_this$ = -4						; size = 4
_iMapIndex$ = 8						; size = 4
?IsMapBattleZone@GensSystem@@QAEHH@Z PROC		; GensSystem::IsMapBattleZone
; _this$ = ecx

; 510  : {

  00b80	55		 push	 ebp
  00b81	8b ec		 mov	 ebp, esp
  00b83	83 ec 48	 sub	 esp, 72			; 00000048H
  00b86	53		 push	 ebx
  00b87	56		 push	 esi
  00b88	57		 push	 edi
  00b89	89 4d fc	 mov	 DWORD PTR _this$[ebp], ecx

; 511  : 	if (gNonPK)

  00b8c	83 3d 00 00 00
	00 00		 cmp	 DWORD PTR ?gNonPK@@3HA, 0 ; gNonPK
  00b93	74 04		 je	 SHORT $LN6@IsMapBattl

; 512  : 	{
; 513  : 		return FALSE;

  00b95	33 c0		 xor	 eax, eax
  00b97	eb 3f		 jmp	 SHORT $LN7@IsMapBattl
$LN6@IsMapBattl:

; 514  : 	}
; 515  : 
; 516  : 	if(!gGENS)

  00b99	83 3d 00 00 00
	00 00		 cmp	 DWORD PTR ?gGENS@@3HA, 0 ; gGENS
  00ba0	75 04		 jne	 SHORT $LN5@IsMapBattl

; 517  : 	{
; 518  : 		return false;

  00ba2	33 c0		 xor	 eax, eax
  00ba4	eb 32		 jmp	 SHORT $LN7@IsMapBattl
$LN5@IsMapBattl:

; 519  : 	}
; 520  : 
; 521  : 
; 522  : 	//if (gPkLimitFree)
; 523  : 	{
; 524  : 		/*switch (iMapIndex)
; 525  : 		{
; 526  : 		case 7:
; 527  : 
; 528  : 		case 33:
; 529  : 
; 530  : 		case 37:
; 531  : 
; 532  : 		case 56:
; 533  : 
; 534  : 		case 63:
; 535  : 			return TRUE;
; 536  : 			break;
; 537  : 
; 538  : 		default:
; 539  : 		break;
; 540  : 		}*/
; 541  : 		for( int i = 0; i < MAX_BATTLE_ZONE; i++ )

  00ba6	c7 45 f8 00 00
	00 00		 mov	 DWORD PTR _i$229235[ebp], 0
  00bad	eb 09		 jmp	 SHORT $LN4@IsMapBattl
$LN3@IsMapBattl:
  00baf	8b 45 f8	 mov	 eax, DWORD PTR _i$229235[ebp]
  00bb2	83 c0 01	 add	 eax, 1
  00bb5	89 45 f8	 mov	 DWORD PTR _i$229235[ebp], eax
$LN4@IsMapBattl:
  00bb8	83 7d f8 0b	 cmp	 DWORD PTR _i$229235[ebp], 11 ; 0000000bH
  00bbc	7d 18		 jge	 SHORT $LN2@IsMapBattl

; 542  : 		{
; 543  : 			if( iMapIndex == this->BattleZoneList[i] )

  00bbe	8b 45 fc	 mov	 eax, DWORD PTR _this$[ebp]
  00bc1	03 45 f8	 add	 eax, DWORD PTR _i$229235[ebp]
  00bc4	0f b6 48 04	 movzx	 ecx, BYTE PTR [eax+4]
  00bc8	39 4d 08	 cmp	 DWORD PTR _iMapIndex$[ebp], ecx
  00bcb	75 07		 jne	 SHORT $LN1@IsMapBattl

; 544  : 			{
; 545  : 				return true;

  00bcd	b8 01 00 00 00	 mov	 eax, 1
  00bd2	eb 04		 jmp	 SHORT $LN7@IsMapBattl
$LN1@IsMapBattl:

; 546  : 			}
; 547  : 		}

  00bd4	eb d9		 jmp	 SHORT $LN3@IsMapBattl
$LN2@IsMapBattl:

; 548  : 	}
; 549  : 	// ----
; 550  : 	return false;

  00bd6	33 c0		 xor	 eax, eax
$LN7@IsMapBattl:

; 551  : 	//return (!gPkLimitFree && iMapIndex == 63);
; 552  : }

  00bd8	5f		 pop	 edi
  00bd9	5e		 pop	 esi
  00bda	5b		 pop	 ebx
  00bdb	8b e5		 mov	 esp, ebp
  00bdd	5d		 pop	 ebp
  00bde	c2 04 00	 ret	 4
?IsMapBattleZone@GensSystem@@QAEHH@Z ENDP		; GensSystem::IsMapBattleZone
_TEXT	ENDS
PUBLIC	??_C@_0DE@PDEMNHNK@?$FLGensSystem?$FN?5?9?5Error?5?9?5?$FL?$CFs?$FN?$FL?$CFs?$FN?5@ ; `string'
PUBLIC	?__LINE__Var@?1??SetGensInfluence@GensSystem@@QAEXPAUOBJECTSTRUCT@@H@Z@4JA ; `GensSystem::SetGensInfluence'::`2'::__LINE__Var
PUBLIC	?SetGensInfluence@GensSystem@@QAEXPAUOBJECTSTRUCT@@H@Z ; GensSystem::SetGensInfluence
;	COMDAT ??_C@_0DE@PDEMNHNK@?$FLGensSystem?$FN?5?9?5Error?5?9?5?$FL?$CFs?$FN?$FL?$CFs?$FN?5@
CONST	SEGMENT
??_C@_0DE@PDEMNHNK@?$FLGensSystem?$FN?5?9?5Error?5?9?5?$FL?$CFs?$FN?$FL?$CFs?$FN?5@ DB '['
	DB	'GensSystem] - Error - [%s][%s] Influence[%d] %s %d', 00H ; `string'
CONST	ENDS
;	COMDAT ?__LINE__Var@?1??SetGensInfluence@GensSystem@@QAEXPAUOBJECTSTRUCT@@H@Z@4JA
_DATA	SEGMENT
?__LINE__Var@?1??SetGensInfluence@GensSystem@@QAEXPAUOBJECTSTRUCT@@H@Z@4JA DD 0231H ; `GensSystem::SetGensInfluence'::`2'::__LINE__Var
; Function compile flags: /Odtp /ZI
_DATA	ENDS
_TEXT	SEGMENT
_this$ = -4						; size = 4
_lpObj$ = 8						; size = 4
_iInfluence$ = 12					; size = 4
?SetGensInfluence@GensSystem@@QAEXPAUOBJECTSTRUCT@@H@Z PROC ; GensSystem::SetGensInfluence
; _this$ = ecx

; 561  : {

  00bf0	55		 push	 ebp
  00bf1	8b ec		 mov	 ebp, esp
  00bf3	83 ec 44	 sub	 esp, 68			; 00000044H
  00bf6	53		 push	 ebx
  00bf7	56		 push	 esi
  00bf8	57		 push	 edi
  00bf9	89 4d fc	 mov	 DWORD PTR _this$[ebp], ecx

; 562  : 	if (iInfluence != VANERT_INFLUENCE && iInfluence != DUPRIAN_INFLUENCE && iInfluence != LEAVED_INFLUENCE)

  00bfc	83 7d 0c 01	 cmp	 DWORD PTR _iInfluence$[ebp], 1
  00c00	74 3c		 je	 SHORT $LN3@SetGensInf
  00c02	83 7d 0c 02	 cmp	 DWORD PTR _iInfluence$[ebp], 2
  00c06	74 36		 je	 SHORT $LN3@SetGensInf
  00c08	83 7d 0c ff	 cmp	 DWORD PTR _iInfluence$[ebp], -1
  00c0c	74 30		 je	 SHORT $LN3@SetGensInf

; 563  : 	{
; 564  : 		LogAddTD("[GensSystem] - Error - [%s][%s] Influence[%d] %s %d",	
; 565  : 			lpObj->AccountID, lpObj->Name, iInfluence, __FILE__, __LINE__);

  00c0e	a1 00 00 00 00	 mov	 eax, DWORD PTR ?__LINE__Var@?1??SetGensInfluence@GensSystem@@QAEXPAUOBJECTSTRUCT@@H@Z@4JA
  00c13	83 c0 04	 add	 eax, 4
  00c16	50		 push	 eax
  00c17	68 00 00 00 00	 push	 OFFSET ??_C@_0EC@HBCPMHBL@d?3?2projects?2exteam6?43?2source?2gam@
  00c1c	8b 4d 0c	 mov	 ecx, DWORD PTR _iInfluence$[ebp]
  00c1f	51		 push	 ecx
  00c20	8b 55 08	 mov	 edx, DWORD PTR _lpObj$[ebp]
  00c23	83 c2 77	 add	 edx, 119		; 00000077H
  00c26	52		 push	 edx
  00c27	8b 45 08	 mov	 eax, DWORD PTR _lpObj$[ebp]
  00c2a	83 c0 6c	 add	 eax, 108		; 0000006cH
  00c2d	50		 push	 eax
  00c2e	68 00 00 00 00	 push	 OFFSET ??_C@_0DE@PDEMNHNK@?$FLGensSystem?$FN?5?9?5Error?5?9?5?$FL?$CFs?$FN?$FL?$CFs?$FN?5@
  00c33	ff 15 00 00 00
	00		 call	 DWORD PTR ?LogAddTD@@3P6AXPADZZA ; LogAddTD
  00c39	83 c4 18	 add	 esp, 24			; 00000018H

; 566  : 	}
; 567  : 	else

  00c3c	eb 19		 jmp	 SHORT $LN4@SetGensInf
$LN3@SetGensInf:

; 568  : 	{
; 569  : 		if (iInfluence == LEAVED_INFLUENCE) iInfluence = NONE_INFLUENCE;

  00c3e	83 7d 0c ff	 cmp	 DWORD PTR _iInfluence$[ebp], -1
  00c42	75 07		 jne	 SHORT $LN1@SetGensInf
  00c44	c7 45 0c 00 00
	00 00		 mov	 DWORD PTR _iInfluence$[ebp], 0
$LN1@SetGensInf:

; 570  : 
; 571  : 		lpObj->m_GensInfluence = iInfluence;

  00c4b	8b 45 08	 mov	 eax, DWORD PTR _lpObj$[ebp]
  00c4e	8b 4d 0c	 mov	 ecx, DWORD PTR _iInfluence$[ebp]
  00c51	89 88 c4 22 00
	00		 mov	 DWORD PTR [eax+8900], ecx
$LN4@SetGensInf:

; 572  : 	}
; 573  : }

  00c57	5f		 pop	 edi
  00c58	5e		 pop	 esi
  00c59	5b		 pop	 ebx
  00c5a	8b e5		 mov	 esp, ebp
  00c5c	5d		 pop	 ebp
  00c5d	c2 08 00	 ret	 8
?SetGensInfluence@GensSystem@@QAEXPAUOBJECTSTRUCT@@H@Z ENDP ; GensSystem::SetGensInfluence
_TEXT	ENDS
PUBLIC	?IsPkEnable@GensSystem@@QAEHPAUOBJECTSTRUCT@@0@Z ; GensSystem::IsPkEnable
; Function compile flags: /Odtp /ZI
_TEXT	SEGMENT
_this$ = -4						; size = 4
_lpObj$ = 8						; size = 4
_lpTargetObj$ = 12					; size = 4
?IsPkEnable@GensSystem@@QAEHPAUOBJECTSTRUCT@@0@Z PROC	; GensSystem::IsPkEnable
; _this$ = ecx

; 581  : {

  00c60	55		 push	 ebp
  00c61	8b ec		 mov	 ebp, esp
  00c63	83 ec 44	 sub	 esp, 68			; 00000044H
  00c66	53		 push	 ebx
  00c67	56		 push	 esi
  00c68	57		 push	 edi
  00c69	89 4d fc	 mov	 DWORD PTR _this$[ebp], ecx

; 582  : 	if( this->IsMapBattleZone(lpObj->MapNumber) )

  00c6c	8b 45 08	 mov	 eax, DWORD PTR _lpObj$[ebp]
  00c6f	0f b6 88 49 01
	00 00		 movzx	 ecx, BYTE PTR [eax+329]
  00c76	51		 push	 ecx
  00c77	8b 4d fc	 mov	 ecx, DWORD PTR _this$[ebp]
  00c7a	e8 00 00 00 00	 call	 ?IsMapBattleZone@GensSystem@@QAEHH@Z ; GensSystem::IsMapBattleZone
  00c7f	85 c0		 test	 eax, eax
  00c81	74 46		 je	 SHORT $LN4@IsPkEnable

; 583  : 	{
; 584  : 		if( lpObj->Type != 1 || lpTargetObj->Type != 1 )

  00c83	8b 45 08	 mov	 eax, DWORD PTR _lpObj$[ebp]
  00c86	0f b7 48 68	 movzx	 ecx, WORD PTR [eax+104]
  00c8a	83 f9 01	 cmp	 ecx, 1
  00c8d	75 0c		 jne	 SHORT $LN2@IsPkEnable
  00c8f	8b 45 0c	 mov	 eax, DWORD PTR _lpTargetObj$[ebp]
  00c92	0f b7 48 68	 movzx	 ecx, WORD PTR [eax+104]
  00c96	83 f9 01	 cmp	 ecx, 1
  00c99	74 27		 je	 SHORT $LN3@IsPkEnable
$LN2@IsPkEnable:

; 585  : 		{
; 586  : 			return this->GetGensInfluence(lpObj) != this->GetGensInfluence(lpTargetObj);

  00c9b	8b 45 08	 mov	 eax, DWORD PTR _lpObj$[ebp]
  00c9e	50		 push	 eax
  00c9f	8b 4d fc	 mov	 ecx, DWORD PTR _this$[ebp]
  00ca2	e8 00 00 00 00	 call	 ?GetGensInfluence@GensSystem@@QAEHPAUOBJECTSTRUCT@@@Z ; GensSystem::GetGensInfluence
  00ca7	8b f0		 mov	 esi, eax
  00ca9	8b 4d 0c	 mov	 ecx, DWORD PTR _lpTargetObj$[ebp]
  00cac	51		 push	 ecx
  00cad	8b 4d fc	 mov	 ecx, DWORD PTR _this$[ebp]
  00cb0	e8 00 00 00 00	 call	 ?GetGensInfluence@GensSystem@@QAEHPAUOBJECTSTRUCT@@@Z ; GensSystem::GetGensInfluence
  00cb5	33 d2		 xor	 edx, edx
  00cb7	3b f0		 cmp	 esi, eax
  00cb9	0f 95 c2	 setne	 dl
  00cbc	8b c2		 mov	 eax, edx
  00cbe	eb 0e		 jmp	 SHORT $LN5@IsPkEnable

; 587  : 		}
; 588  : 		else

  00cc0	eb 07		 jmp	 SHORT $LN4@IsPkEnable
$LN3@IsPkEnable:

; 589  : 		{
; 590  : 			return true;

  00cc2	b8 01 00 00 00	 mov	 eax, 1
  00cc7	eb 05		 jmp	 SHORT $LN5@IsPkEnable
$LN4@IsPkEnable:

; 591  : 		}
; 592  : 	}
; 593  : 	return true;

  00cc9	b8 01 00 00 00	 mov	 eax, 1
$LN5@IsPkEnable:

; 594  : }

  00cce	5f		 pop	 edi
  00ccf	5e		 pop	 esi
  00cd0	5b		 pop	 ebx
  00cd1	8b e5		 mov	 esp, ebp
  00cd3	5d		 pop	 ebp
  00cd4	c2 08 00	 ret	 8
?IsPkEnable@GensSystem@@QAEHPAUOBJECTSTRUCT@@0@Z ENDP	; GensSystem::IsPkEnable
_TEXT	ENDS
PUBLIC	??_C@_0CP@LAOMEGEG@?$FLGensSystem?$FN?5Error?5?$FL?$CFs?$FN?$FL?$CFs?$FN?5Gens@ ; `string'
;	COMDAT ??_C@_0CP@LAOMEGEG@?$FLGensSystem?$FN?5Error?5?$FL?$CFs?$FN?$FL?$CFs?$FN?5Gens@
CONST	SEGMENT
??_C@_0CP@LAOMEGEG@?$FLGensSystem?$FN?5Error?5?$FL?$CFs?$FN?$FL?$CFs?$FN?5Gens@ DB '['
	DB	'GensSystem] Error [%s][%s] GensInfluence [%d]', 00H ; `string'
; Function compile flags: /Odtp /ZI
CONST	ENDS
_TEXT	SEGMENT
_this$ = -4						; size = 4
_lpObj$ = 8						; size = 4
?GetGensInfluence@GensSystem@@QAEHPAUOBJECTSTRUCT@@@Z PROC ; GensSystem::GetGensInfluence
; _this$ = ecx

; 628  : {

  00ce0	55		 push	 ebp
  00ce1	8b ec		 mov	 ebp, esp
  00ce3	83 ec 44	 sub	 esp, 68			; 00000044H
  00ce6	53		 push	 ebx
  00ce7	56		 push	 esi
  00ce8	57		 push	 edi
  00ce9	89 4d fc	 mov	 DWORD PTR _this$[ebp], ecx

; 629  : 	if (lpObj->m_GensInfluence == LEAVED_INFLUENCE || lpObj->m_GensInfluence < NONE_INFLUENCE || lpObj->m_GensInfluence > DUPRIAN_INFLUENCE) 

  00cec	8b 45 08	 mov	 eax, DWORD PTR _lpObj$[ebp]
  00cef	83 b8 c4 22 00
	00 ff		 cmp	 DWORD PTR [eax+8900], -1
  00cf6	74 18		 je	 SHORT $LN1@GetGensInf
  00cf8	8b 45 08	 mov	 eax, DWORD PTR _lpObj$[ebp]
  00cfb	83 b8 c4 22 00
	00 00		 cmp	 DWORD PTR [eax+8900], 0
  00d02	7c 0c		 jl	 SHORT $LN1@GetGensInf
  00d04	8b 45 08	 mov	 eax, DWORD PTR _lpObj$[ebp]
  00d07	83 b8 c4 22 00
	00 02		 cmp	 DWORD PTR [eax+8900], 2
  00d0e	7e 2a		 jle	 SHORT $LN2@GetGensInf
$LN1@GetGensInf:

; 630  : 	{
; 631  : 		LogAddTD("[GensSystem] Error [%s][%s] GensInfluence [%d]", lpObj->AccountID, lpObj->Name, lpObj->m_GensInfluence); return 0;

  00d10	8b 45 08	 mov	 eax, DWORD PTR _lpObj$[ebp]
  00d13	8b 88 c4 22 00
	00		 mov	 ecx, DWORD PTR [eax+8900]
  00d19	51		 push	 ecx
  00d1a	8b 55 08	 mov	 edx, DWORD PTR _lpObj$[ebp]
  00d1d	83 c2 77	 add	 edx, 119		; 00000077H
  00d20	52		 push	 edx
  00d21	8b 45 08	 mov	 eax, DWORD PTR _lpObj$[ebp]
  00d24	83 c0 6c	 add	 eax, 108		; 0000006cH
  00d27	50		 push	 eax
  00d28	68 00 00 00 00	 push	 OFFSET ??_C@_0CP@LAOMEGEG@?$FLGensSystem?$FN?5Error?5?$FL?$CFs?$FN?$FL?$CFs?$FN?5Gens@
  00d2d	ff 15 00 00 00
	00		 call	 DWORD PTR ?LogAddTD@@3P6AXPADZZA ; LogAddTD
  00d33	83 c4 10	 add	 esp, 16			; 00000010H
  00d36	33 c0		 xor	 eax, eax
  00d38	eb 09		 jmp	 SHORT $LN3@GetGensInf
$LN2@GetGensInf:

; 632  : 	}
; 633  : 	return lpObj->m_GensInfluence;

  00d3a	8b 45 08	 mov	 eax, DWORD PTR _lpObj$[ebp]
  00d3d	8b 80 c4 22 00
	00		 mov	 eax, DWORD PTR [eax+8900]
$LN3@GetGensInf:

; 634  : }

  00d43	5f		 pop	 edi
  00d44	5e		 pop	 esi
  00d45	5b		 pop	 ebx
  00d46	8b e5		 mov	 esp, ebp
  00d48	5d		 pop	 ebp
  00d49	c2 04 00	 ret	 4
?GetGensInfluence@GensSystem@@QAEHPAUOBJECTSTRUCT@@@Z ENDP ; GensSystem::GetGensInfluence
_TEXT	ENDS
PUBLIC	?GetGensInfluenceName@GensSystem@@QAEPADPAUOBJECTSTRUCT@@@Z ; GensSystem::GetGensInfluenceName
; Function compile flags: /Odtp /ZI
_TEXT	SEGMENT
_this$ = -4						; size = 4
_lpObj$ = 8						; size = 4
?GetGensInfluenceName@GensSystem@@QAEPADPAUOBJECTSTRUCT@@@Z PROC ; GensSystem::GetGensInfluenceName
; _this$ = ecx

; 659  : {

  00d50	55		 push	 ebp
  00d51	8b ec		 mov	 ebp, esp
  00d53	83 ec 44	 sub	 esp, 68			; 00000044H
  00d56	53		 push	 ebx
  00d57	56		 push	 esi
  00d58	57		 push	 edi
  00d59	89 4d fc	 mov	 DWORD PTR _this$[ebp], ecx

; 660  : 	if (lpObj->m_GensInfluence == LEAVED_INFLUENCE || lpObj->m_GensInfluence < NONE_INFLUENCE || lpObj->m_GensInfluence > DUPRIAN_INFLUENCE) 

  00d5c	8b 45 08	 mov	 eax, DWORD PTR _lpObj$[ebp]
  00d5f	83 b8 c4 22 00
	00 ff		 cmp	 DWORD PTR [eax+8900], -1
  00d66	74 18		 je	 SHORT $LN1@GetGensInf@2
  00d68	8b 45 08	 mov	 eax, DWORD PTR _lpObj$[ebp]
  00d6b	83 b8 c4 22 00
	00 00		 cmp	 DWORD PTR [eax+8900], 0
  00d72	7c 0c		 jl	 SHORT $LN1@GetGensInf@2
  00d74	8b 45 08	 mov	 eax, DWORD PTR _lpObj$[ebp]
  00d77	83 b8 c4 22 00
	00 02		 cmp	 DWORD PTR [eax+8900], 2
  00d7e	7e 2a		 jle	 SHORT $LN2@GetGensInf@2
$LN1@GetGensInf@2:

; 661  : 	{
; 662  : 		LogAddTD("[GensSystem] Error [%s][%s] GensInfluence [%d]", lpObj->AccountID, lpObj->Name, lpObj->m_GensInfluence);

  00d80	8b 45 08	 mov	 eax, DWORD PTR _lpObj$[ebp]
  00d83	8b 88 c4 22 00
	00		 mov	 ecx, DWORD PTR [eax+8900]
  00d89	51		 push	 ecx
  00d8a	8b 55 08	 mov	 edx, DWORD PTR _lpObj$[ebp]
  00d8d	83 c2 77	 add	 edx, 119		; 00000077H
  00d90	52		 push	 edx
  00d91	8b 45 08	 mov	 eax, DWORD PTR _lpObj$[ebp]
  00d94	83 c0 6c	 add	 eax, 108		; 0000006cH
  00d97	50		 push	 eax
  00d98	68 00 00 00 00	 push	 OFFSET ??_C@_0CP@LAOMEGEG@?$FLGensSystem?$FN?5Error?5?$FL?$CFs?$FN?$FL?$CFs?$FN?5Gens@
  00d9d	ff 15 00 00 00
	00		 call	 DWORD PTR ?LogAddTD@@3P6AXPADZZA ; LogAddTD
  00da3	83 c4 10	 add	 esp, 16			; 00000010H

; 663  : 		return NULL;

  00da6	33 c0		 xor	 eax, eax
  00da8	eb 10		 jmp	 SHORT $LN3@GetGensInf@2
$LN2@GetGensInf@2:

; 664  : 	}
; 665  : 	return szInfluence[lpObj->m_GensInfluence];

  00daa	8b 45 08	 mov	 eax, DWORD PTR _lpObj$[ebp]
  00dad	8b 88 c4 22 00
	00		 mov	 ecx, DWORD PTR [eax+8900]
  00db3	8b 04 8d 00 00
	00 00		 mov	 eax, DWORD PTR ?szInfluence@@3PAPADA[ecx*4]
$LN3@GetGensInf@2:

; 666  : }

  00dba	5f		 pop	 edi
  00dbb	5e		 pop	 esi
  00dbc	5b		 pop	 ebx
  00dbd	8b e5		 mov	 esp, ebp
  00dbf	5d		 pop	 ebp
  00dc0	c2 04 00	 ret	 4
?GetGensInfluenceName@GensSystem@@QAEPADPAUOBJECTSTRUCT@@@Z ENDP ; GensSystem::GetGensInfluenceName
; Function compile flags: /Odtp /ZI
_this$ = -4						; size = 4
_lpObj$ = 8						; size = 4
?IsRegGensInfluence@GensSystem@@QAE_NPAUOBJECTSTRUCT@@@Z PROC ; GensSystem::IsRegGensInfluence
; _this$ = ecx

; 676  : {

  00dd0	55		 push	 ebp
  00dd1	8b ec		 mov	 ebp, esp
  00dd3	83 ec 44	 sub	 esp, 68			; 00000044H
  00dd6	53		 push	 ebx
  00dd7	56		 push	 esi
  00dd8	57		 push	 edi
  00dd9	89 4d fc	 mov	 DWORD PTR _this$[ebp], ecx

; 677  : 	if (this->GetGensInfluence(lpObj) == VANERT_INFLUENCE || this->GetGensInfluence(lpObj) == DUPRIAN_INFLUENCE)

  00ddc	8b 45 08	 mov	 eax, DWORD PTR _lpObj$[ebp]
  00ddf	50		 push	 eax
  00de0	8b 4d fc	 mov	 ecx, DWORD PTR _this$[ebp]
  00de3	e8 00 00 00 00	 call	 ?GetGensInfluence@GensSystem@@QAEHPAUOBJECTSTRUCT@@@Z ; GensSystem::GetGensInfluence
  00de8	83 f8 01	 cmp	 eax, 1
  00deb	74 11		 je	 SHORT $LN1@IsRegGensI
  00ded	8b 45 08	 mov	 eax, DWORD PTR _lpObj$[ebp]
  00df0	50		 push	 eax
  00df1	8b 4d fc	 mov	 ecx, DWORD PTR _this$[ebp]
  00df4	e8 00 00 00 00	 call	 ?GetGensInfluence@GensSystem@@QAEHPAUOBJECTSTRUCT@@@Z ; GensSystem::GetGensInfluence
  00df9	83 f8 02	 cmp	 eax, 2
  00dfc	75 04		 jne	 SHORT $LN2@IsRegGensI
$LN1@IsRegGensI:

; 678  : 	{
; 679  : 		return true;

  00dfe	b0 01		 mov	 al, 1
  00e00	eb 02		 jmp	 SHORT $LN3@IsRegGensI
$LN2@IsRegGensI:

; 680  : 	}
; 681  : 	return false;

  00e02	32 c0		 xor	 al, al
$LN3@IsRegGensI:

; 682  : }

  00e04	5f		 pop	 edi
  00e05	5e		 pop	 esi
  00e06	5b		 pop	 ebx
  00e07	8b e5		 mov	 esp, ebp
  00e09	5d		 pop	 ebp
  00e0a	c2 04 00	 ret	 4
?IsRegGensInfluence@GensSystem@@QAE_NPAUOBJECTSTRUCT@@@Z ENDP ; GensSystem::IsRegGensInfluence
_TEXT	ENDS
PUBLIC	?SetUserBattleZoneEnable@GensSystem@@QAEHPAUOBJECTSTRUCT@@H@Z ; GensSystem::SetUserBattleZoneEnable
; Function compile flags: /Odtp /ZI
_TEXT	SEGMENT
_this$ = -4						; size = 4
_lpObj$ = 8						; size = 4
_bBattleZoneEnable$ = 12				; size = 4
?SetUserBattleZoneEnable@GensSystem@@QAEHPAUOBJECTSTRUCT@@H@Z PROC ; GensSystem::SetUserBattleZoneEnable
; _this$ = ecx

; 691  : {

  00e10	55		 push	 ebp
  00e11	8b ec		 mov	 ebp, esp
  00e13	83 ec 44	 sub	 esp, 68			; 00000044H
  00e16	53		 push	 ebx
  00e17	56		 push	 esi
  00e18	57		 push	 edi
  00e19	89 4d fc	 mov	 DWORD PTR _this$[ebp], ecx

; 692  : 	return lpObj->m_UserBattleZoneEnable = bBattleZoneEnable;

  00e1c	8b 45 08	 mov	 eax, DWORD PTR _lpObj$[ebp]
  00e1f	8b 4d 0c	 mov	 ecx, DWORD PTR _bBattleZoneEnable$[ebp]
  00e22	89 88 e8 22 00
	00		 mov	 DWORD PTR [eax+8936], ecx
  00e28	8b 45 0c	 mov	 eax, DWORD PTR _bBattleZoneEnable$[ebp]

; 693  : }

  00e2b	5f		 pop	 edi
  00e2c	5e		 pop	 esi
  00e2d	5b		 pop	 ebx
  00e2e	8b e5		 mov	 esp, ebp
  00e30	5d		 pop	 ebp
  00e31	c2 08 00	 ret	 8
?SetUserBattleZoneEnable@GensSystem@@QAEHPAUOBJECTSTRUCT@@H@Z ENDP ; GensSystem::SetUserBattleZoneEnable
_TEXT	ENDS
PUBLIC	?IsUserBattleZoneEnable@GensSystem@@QAEHPAUOBJECTSTRUCT@@@Z ; GensSystem::IsUserBattleZoneEnable
; Function compile flags: /Odtp /ZI
_TEXT	SEGMENT
_this$ = -4						; size = 4
_lpObj$ = 8						; size = 4
?IsUserBattleZoneEnable@GensSystem@@QAEHPAUOBJECTSTRUCT@@@Z PROC ; GensSystem::IsUserBattleZoneEnable
; _this$ = ecx

; 702  : {

  00e40	55		 push	 ebp
  00e41	8b ec		 mov	 ebp, esp
  00e43	83 ec 44	 sub	 esp, 68			; 00000044H
  00e46	53		 push	 ebx
  00e47	56		 push	 esi
  00e48	57		 push	 edi
  00e49	89 4d fc	 mov	 DWORD PTR _this$[ebp], ecx

; 703  : 	return lpObj->m_UserBattleZoneEnable;

  00e4c	8b 45 08	 mov	 eax, DWORD PTR _lpObj$[ebp]
  00e4f	8b 80 e8 22 00
	00		 mov	 eax, DWORD PTR [eax+8936]

; 704  : }

  00e55	5f		 pop	 edi
  00e56	5e		 pop	 esi
  00e57	5b		 pop	 ebx
  00e58	8b e5		 mov	 esp, ebp
  00e5a	5d		 pop	 ebp
  00e5b	c2 04 00	 ret	 4
?IsUserBattleZoneEnable@GensSystem@@QAEHPAUOBJECTSTRUCT@@@Z ENDP ; GensSystem::IsUserBattleZoneEnable
_TEXT	ENDS
PUBLIC	?SetContributePoint@GensSystem@@QAEHPAUOBJECTSTRUCT@@H@Z ; GensSystem::SetContributePoint
; Function compile flags: /Odtp /ZI
_TEXT	SEGMENT
_this$ = -4						; size = 4
_lpObj$ = 8						; size = 4
_iContributePoint$ = 12					; size = 4
?SetContributePoint@GensSystem@@QAEHPAUOBJECTSTRUCT@@H@Z PROC ; GensSystem::SetContributePoint
; _this$ = ecx

; 713  : {

  00e60	55		 push	 ebp
  00e61	8b ec		 mov	 ebp, esp
  00e63	83 ec 44	 sub	 esp, 68			; 00000044H
  00e66	53		 push	 ebx
  00e67	56		 push	 esi
  00e68	57		 push	 edi
  00e69	89 4d fc	 mov	 DWORD PTR _this$[ebp], ecx

; 714  : 	return lpObj->m_ContributePoint = iContributePoint;

  00e6c	8b 45 08	 mov	 eax, DWORD PTR _lpObj$[ebp]
  00e6f	8b 4d 0c	 mov	 ecx, DWORD PTR _iContributePoint$[ebp]
  00e72	89 88 ec 22 00
	00		 mov	 DWORD PTR [eax+8940], ecx
  00e78	8b 45 0c	 mov	 eax, DWORD PTR _iContributePoint$[ebp]

; 715  : }

  00e7b	5f		 pop	 edi
  00e7c	5e		 pop	 esi
  00e7d	5b		 pop	 ebx
  00e7e	8b e5		 mov	 esp, ebp
  00e80	5d		 pop	 ebp
  00e81	c2 08 00	 ret	 8
?SetContributePoint@GensSystem@@QAEHPAUOBJECTSTRUCT@@H@Z ENDP ; GensSystem::SetContributePoint
_TEXT	ENDS
PUBLIC	?AddContributePoint@GensSystem@@QAEHPAUOBJECTSTRUCT@@H@Z ; GensSystem::AddContributePoint
; Function compile flags: /Odtp /ZI
_TEXT	SEGMENT
_this$ = -4						; size = 4
_lpObj$ = 8						; size = 4
_iContributePoint$ = 12					; size = 4
?AddContributePoint@GensSystem@@QAEHPAUOBJECTSTRUCT@@H@Z PROC ; GensSystem::AddContributePoint
; _this$ = ecx

; 724  : {

  00e90	55		 push	 ebp
  00e91	8b ec		 mov	 ebp, esp
  00e93	83 ec 44	 sub	 esp, 68			; 00000044H
  00e96	53		 push	 ebx
  00e97	56		 push	 esi
  00e98	57		 push	 edi
  00e99	89 4d fc	 mov	 DWORD PTR _this$[ebp], ecx

; 725  : 	lpObj->m_ContributePoint += iContributePoint;

  00e9c	8b 45 08	 mov	 eax, DWORD PTR _lpObj$[ebp]
  00e9f	8b 88 ec 22 00
	00		 mov	 ecx, DWORD PTR [eax+8940]
  00ea5	03 4d 0c	 add	 ecx, DWORD PTR _iContributePoint$[ebp]
  00ea8	8b 55 08	 mov	 edx, DWORD PTR _lpObj$[ebp]
  00eab	89 8a ec 22 00
	00		 mov	 DWORD PTR [edx+8940], ecx

; 726  : 	return this->GDReqSaveContributePoint(lpObj);

  00eb1	8b 45 08	 mov	 eax, DWORD PTR _lpObj$[ebp]
  00eb4	50		 push	 eax
  00eb5	8b 4d fc	 mov	 ecx, DWORD PTR _this$[ebp]
  00eb8	e8 00 00 00 00	 call	 ?GDReqSaveContributePoint@GensSystem@@QAEHPAUOBJECTSTRUCT@@@Z ; GensSystem::GDReqSaveContributePoint

; 727  : }

  00ebd	5f		 pop	 edi
  00ebe	5e		 pop	 esi
  00ebf	5b		 pop	 ebx
  00ec0	8b e5		 mov	 esp, ebp
  00ec2	5d		 pop	 ebp
  00ec3	c2 08 00	 ret	 8
?AddContributePoint@GensSystem@@QAEHPAUOBJECTSTRUCT@@H@Z ENDP ; GensSystem::AddContributePoint
_TEXT	ENDS
PUBLIC	?SubContributePoint@GensSystem@@QAEHPAUOBJECTSTRUCT@@H@Z ; GensSystem::SubContributePoint
; Function compile flags: /Odtp /ZI
_TEXT	SEGMENT
_this$ = -4						; size = 4
_lpObj$ = 8						; size = 4
_iContributePoint$ = 12					; size = 4
?SubContributePoint@GensSystem@@QAEHPAUOBJECTSTRUCT@@H@Z PROC ; GensSystem::SubContributePoint
; _this$ = ecx

; 735  : {

  00ed0	55		 push	 ebp
  00ed1	8b ec		 mov	 ebp, esp
  00ed3	83 ec 44	 sub	 esp, 68			; 00000044H
  00ed6	53		 push	 ebx
  00ed7	56		 push	 esi
  00ed8	57		 push	 edi
  00ed9	89 4d fc	 mov	 DWORD PTR _this$[ebp], ecx

; 736  : 	lpObj->m_ContributePoint -= iContributePoint;

  00edc	8b 45 08	 mov	 eax, DWORD PTR _lpObj$[ebp]
  00edf	8b 88 ec 22 00
	00		 mov	 ecx, DWORD PTR [eax+8940]
  00ee5	2b 4d 0c	 sub	 ecx, DWORD PTR _iContributePoint$[ebp]
  00ee8	8b 55 08	 mov	 edx, DWORD PTR _lpObj$[ebp]
  00eeb	89 8a ec 22 00
	00		 mov	 DWORD PTR [edx+8940], ecx

; 737  : 
; 738  : 	if (lpObj->m_ContributePoint < 0)

  00ef1	8b 45 08	 mov	 eax, DWORD PTR _lpObj$[ebp]
  00ef4	83 b8 ec 22 00
	00 00		 cmp	 DWORD PTR [eax+8940], 0
  00efb	7d 0d		 jge	 SHORT $LN1@SubContrib

; 739  : 	{
; 740  : 		lpObj->m_ContributePoint = 0;

  00efd	8b 45 08	 mov	 eax, DWORD PTR _lpObj$[ebp]
  00f00	c7 80 ec 22 00
	00 00 00 00 00	 mov	 DWORD PTR [eax+8940], 0
$LN1@SubContrib:

; 741  : 	}
; 742  : 
; 743  : 	return this->GDReqSaveContributePoint(lpObj);

  00f0a	8b 45 08	 mov	 eax, DWORD PTR _lpObj$[ebp]
  00f0d	50		 push	 eax
  00f0e	8b 4d fc	 mov	 ecx, DWORD PTR _this$[ebp]
  00f11	e8 00 00 00 00	 call	 ?GDReqSaveContributePoint@GensSystem@@QAEHPAUOBJECTSTRUCT@@@Z ; GensSystem::GDReqSaveContributePoint

; 744  : }

  00f16	5f		 pop	 edi
  00f17	5e		 pop	 esi
  00f18	5b		 pop	 ebx
  00f19	8b e5		 mov	 esp, ebp
  00f1b	5d		 pop	 ebp
  00f1c	c2 08 00	 ret	 8
?SubContributePoint@GensSystem@@QAEHPAUOBJECTSTRUCT@@H@Z ENDP ; GensSystem::SubContributePoint
; Function compile flags: /Odtp /ZI
_this$ = -4						; size = 4
_lpObj$ = 8						; size = 4
?GetContributePoint@GensSystem@@QAEHPAUOBJECTSTRUCT@@@Z PROC ; GensSystem::GetContributePoint
; _this$ = ecx

; 762  : {

  00f20	55		 push	 ebp
  00f21	8b ec		 mov	 ebp, esp
  00f23	83 ec 44	 sub	 esp, 68			; 00000044H
  00f26	53		 push	 ebx
  00f27	56		 push	 esi
  00f28	57		 push	 edi
  00f29	89 4d fc	 mov	 DWORD PTR _this$[ebp], ecx

; 763  : 	return lpObj->m_ContributePoint;

  00f2c	8b 45 08	 mov	 eax, DWORD PTR _lpObj$[ebp]
  00f2f	8b 80 ec 22 00
	00		 mov	 eax, DWORD PTR [eax+8940]

; 764  : }

  00f35	5f		 pop	 edi
  00f36	5e		 pop	 esi
  00f37	5b		 pop	 ebx
  00f38	8b e5		 mov	 esp, ebp
  00f3a	5d		 pop	 ebp
  00f3b	c2 04 00	 ret	 4
?GetContributePoint@GensSystem@@QAEHPAUOBJECTSTRUCT@@@Z ENDP ; GensSystem::GetContributePoint
_TEXT	ENDS
PUBLIC	?PkPenaltyAddNeedZenMapMove@GensSystem@@QAEHPAUOBJECTSTRUCT@@@Z ; GensSystem::PkPenaltyAddNeedZenMapMove
; Function compile flags: /Odtp /ZI
_TEXT	SEGMENT
_this$ = -4						; size = 4
_lpObj$ = 8						; size = 4
?PkPenaltyAddNeedZenMapMove@GensSystem@@QAEHPAUOBJECTSTRUCT@@@Z PROC ; GensSystem::PkPenaltyAddNeedZenMapMove
; _this$ = ecx

; 772  : {

  00f40	55		 push	 ebp
  00f41	8b ec		 mov	 ebp, esp
  00f43	83 ec 44	 sub	 esp, 68			; 00000044H
  00f46	53		 push	 ebx
  00f47	56		 push	 esi
  00f48	57		 push	 edi
  00f49	89 4d fc	 mov	 DWORD PTR _this$[ebp], ecx

; 773  : 	//if (gPkLimitFree)
; 774  : 	{
; 775  : 		if (this->IsMapBattleZone(lpObj->MapNumber))

  00f4c	8b 45 08	 mov	 eax, DWORD PTR _lpObj$[ebp]
  00f4f	0f b6 88 49 01
	00 00		 movzx	 ecx, BYTE PTR [eax+329]
  00f56	51		 push	 ecx
  00f57	8b 4d fc	 mov	 ecx, DWORD PTR _this$[ebp]
  00f5a	e8 00 00 00 00	 call	 ?IsMapBattleZone@GensSystem@@QAEHH@Z ; GensSystem::IsMapBattleZone
  00f5f	85 c0		 test	 eax, eax
  00f61	74 07		 je	 SHORT $LN1@PkPenaltyA

; 776  : 		{
; 777  : 			return 1;

  00f63	b8 01 00 00 00	 mov	 eax, 1
  00f68	eb 09		 jmp	 SHORT $LN2@PkPenaltyA
$LN1@PkPenaltyA:

; 778  : 		}
; 779  : 		return 1;

  00f6a	b8 01 00 00 00	 mov	 eax, 1
  00f6f	eb 02		 jmp	 SHORT $LN2@PkPenaltyA

; 780  : 	}
; 781  : 	return 0;

  00f71	33 c0		 xor	 eax, eax
$LN2@PkPenaltyA:

; 782  : }

  00f73	5f		 pop	 edi
  00f74	5e		 pop	 esi
  00f75	5b		 pop	 ebx
  00f76	8b e5		 mov	 esp, ebp
  00f78	5d		 pop	 ebp
  00f79	c2 04 00	 ret	 4
?PkPenaltyAddNeedZenMapMove@GensSystem@@QAEHPAUOBJECTSTRUCT@@@Z ENDP ; GensSystem::PkPenaltyAddNeedZenMapMove
_TEXT	ENDS
PUBLIC	?PkPenaltyDropInvenItem@GensSystem@@QAEXPAUOBJECTSTRUCT@@@Z ; GensSystem::PkPenaltyDropInvenItem
; Function compile flags: /Odtp /ZI
_TEXT	SEGMENT
_this$ = -4						; size = 4
_lpObj$ = 8						; size = 4
?PkPenaltyDropInvenItem@GensSystem@@QAEXPAUOBJECTSTRUCT@@@Z PROC ; GensSystem::PkPenaltyDropInvenItem
; _this$ = ecx

; 790  : {

  00f80	55		 push	 ebp
  00f81	8b ec		 mov	 ebp, esp
  00f83	83 ec 44	 sub	 esp, 68			; 00000044H
  00f86	53		 push	 ebx
  00f87	56		 push	 esi
  00f88	57		 push	 edi
  00f89	89 4d fc	 mov	 DWORD PTR _this$[ebp], ecx

; 791  : 	//if (gPkLimitFree)
; 792  : 	{
; 793  : 		if (this->IsMapBattleZone(lpObj->MapNumber))

  00f8c	8b 45 08	 mov	 eax, DWORD PTR _lpObj$[ebp]
  00f8f	0f b6 88 49 01
	00 00		 movzx	 ecx, BYTE PTR [eax+329]
  00f96	51		 push	 ecx
  00f97	8b 4d fc	 mov	 ecx, DWORD PTR _this$[ebp]
  00f9a	e8 00 00 00 00	 call	 ?IsMapBattleZone@GensSystem@@QAEHH@Z ; GensSystem::IsMapBattleZone
  00f9f	85 c0		 test	 eax, eax
  00fa1	74 0d		 je	 SHORT $LN1@PkPenaltyD

; 794  : 		{
; 795  : 			this->b_PkPenaltyDropInvenItem = TRUE; 		

  00fa3	8b 45 fc	 mov	 eax, DWORD PTR _this$[ebp]
  00fa6	c7 80 bc 00 00
	00 01 00 00 00	 mov	 DWORD PTR [eax+188], 1
$LN1@PkPenaltyD:

; 796  : 		}
; 797  : 	}
; 798  : 	this->b_PkPenaltyDropInvenItem = FALSE;	

  00fb0	8b 45 fc	 mov	 eax, DWORD PTR _this$[ebp]
  00fb3	c7 80 bc 00 00
	00 00 00 00 00	 mov	 DWORD PTR [eax+188], 0

; 799  : }

  00fbd	5f		 pop	 edi
  00fbe	5e		 pop	 esi
  00fbf	5b		 pop	 ebx
  00fc0	8b e5		 mov	 esp, ebp
  00fc2	5d		 pop	 ebp
  00fc3	c2 04 00	 ret	 4
?PkPenaltyDropInvenItem@GensSystem@@QAEXPAUOBJECTSTRUCT@@@Z ENDP ; GensSystem::PkPenaltyDropInvenItem
_TEXT	ENDS
PUBLIC	?PkPenaltyDropZen@GensSystem@@QAEXPAUOBJECTSTRUCT@@@Z ; GensSystem::PkPenaltyDropZen
; Function compile flags: /Odtp /ZI
_TEXT	SEGMENT
_this$ = -4						; size = 4
_lpObj$ = 8						; size = 4
?PkPenaltyDropZen@GensSystem@@QAEXPAUOBJECTSTRUCT@@@Z PROC ; GensSystem::PkPenaltyDropZen
; _this$ = ecx

; 807  : {

  00fd0	55		 push	 ebp
  00fd1	8b ec		 mov	 ebp, esp
  00fd3	83 ec 44	 sub	 esp, 68			; 00000044H
  00fd6	53		 push	 ebx
  00fd7	56		 push	 esi
  00fd8	57		 push	 edi
  00fd9	89 4d fc	 mov	 DWORD PTR _this$[ebp], ecx

; 808  : 	//if (gPkLimitFree)
; 809  : 	{
; 810  : 		if (this->IsMapBattleZone(lpObj->MapNumber))

  00fdc	8b 45 08	 mov	 eax, DWORD PTR _lpObj$[ebp]
  00fdf	0f b6 88 49 01
	00 00		 movzx	 ecx, BYTE PTR [eax+329]
  00fe6	51		 push	 ecx
  00fe7	8b 4d fc	 mov	 ecx, DWORD PTR _this$[ebp]
  00fea	e8 00 00 00 00	 call	 ?IsMapBattleZone@GensSystem@@QAEHH@Z ; GensSystem::IsMapBattleZone
  00fef	85 c0		 test	 eax, eax
  00ff1	74 0d		 je	 SHORT $LN1@PkPenaltyD@2

; 811  : 		{
; 812  : 			this->b_PkPenaltyDropZen = TRUE;		

  00ff3	8b 45 fc	 mov	 eax, DWORD PTR _this$[ebp]
  00ff6	c7 80 b8 00 00
	00 01 00 00 00	 mov	 DWORD PTR [eax+184], 1
$LN1@PkPenaltyD@2:

; 813  : 		}	
; 814  : 	}
; 815  : 	this->b_PkPenaltyDropZen = FALSE;

  01000	8b 45 fc	 mov	 eax, DWORD PTR _this$[ebp]
  01003	c7 80 b8 00 00
	00 00 00 00 00	 mov	 DWORD PTR [eax+184], 0

; 816  : }

  0100d	5f		 pop	 edi
  0100e	5e		 pop	 esi
  0100f	5b		 pop	 ebx
  01010	8b e5		 mov	 esp, ebp
  01012	5d		 pop	 ebp
  01013	c2 04 00	 ret	 4
?PkPenaltyDropZen@GensSystem@@QAEXPAUOBJECTSTRUCT@@@Z ENDP ; GensSystem::PkPenaltyDropZen
_TEXT	ENDS
PUBLIC	?SendPKPenaltyDebuff@GensSystem@@QAEHPAUOBJECTSTRUCT@@@Z ; GensSystem::SendPKPenaltyDebuff
; Function compile flags: /Odtp /ZI
_TEXT	SEGMENT
_this$ = -4						; size = 4
_lpObj$ = 8						; size = 4
?SendPKPenaltyDebuff@GensSystem@@QAEHPAUOBJECTSTRUCT@@@Z PROC ; GensSystem::SendPKPenaltyDebuff
; _this$ = ecx

; 824  : {

  01020	55		 push	 ebp
  01021	8b ec		 mov	 ebp, esp
  01023	83 ec 44	 sub	 esp, 68			; 00000044H
  01026	53		 push	 ebx
  01027	56		 push	 esi
  01028	57		 push	 edi
  01029	89 4d fc	 mov	 DWORD PTR _this$[ebp], ecx

; 825  : 	if (lpObj->Type)

  0102c	8b 45 08	 mov	 eax, DWORD PTR _lpObj$[ebp]
  0102f	0f b7 48 68	 movzx	 ecx, WORD PTR [eax+104]
  01033	85 c9		 test	 ecx, ecx
  01035	74 15		 je	 SHORT $LN1@SendPKPena

; 826  : 	{
; 827  : 		//if (gPkLimitFree)
; 828  : 		{
; 829  : 			return this->IsMapBattleZone(lpObj->MapNumber);

  01037	8b 45 08	 mov	 eax, DWORD PTR _lpObj$[ebp]
  0103a	0f b6 88 49 01
	00 00		 movzx	 ecx, BYTE PTR [eax+329]
  01041	51		 push	 ecx
  01042	8b 4d fc	 mov	 ecx, DWORD PTR _this$[ebp]
  01045	e8 00 00 00 00	 call	 ?IsMapBattleZone@GensSystem@@QAEHH@Z ; GensSystem::IsMapBattleZone
  0104a	eb 02		 jmp	 SHORT $LN2@SendPKPena
$LN1@SendPKPena:

; 830  : 		}
; 831  : 	}
; 832  : 	return 0;

  0104c	33 c0		 xor	 eax, eax
$LN2@SendPKPena:

; 833  : }

  0104e	5f		 pop	 edi
  0104f	5e		 pop	 esi
  01050	5b		 pop	 ebx
  01051	8b e5		 mov	 esp, ebp
  01053	5d		 pop	 ebp
  01054	c2 04 00	 ret	 4
?SendPKPenaltyDebuff@GensSystem@@QAEHPAUOBJECTSTRUCT@@@Z ENDP ; GensSystem::SendPKPenaltyDebuff
_TEXT	ENDS
PUBLIC	??_C@_0DC@DDPABKFB@?$FLGensSystem?$FN?5?9?5Error?5NONE_INFLUE@ ; `string'
PUBLIC	?__LINE__Var@?1??CalcContributePoint@GensSystem@@QAEXPAUOBJECTSTRUCT@@0@Z@4JA ; `GensSystem::CalcContributePoint'::`2'::__LINE__Var
PUBLIC	??_C@_0FP@LFMBBFAD@?$FLGensSystem?$FN?5?$FL?$CFs?$FN?$FL?$CFs?$FN?5Add?5BonusC@ ; `string'
PUBLIC	??_C@_0CI@PABJHDP@?$CFd?5bonus?5contribution?5point?$CIs?$CJ?5o@ ; `string'
PUBLIC	??_C@_0GH@GNCIJJHO@?$FLGensSystem?$FN?5?$FL?$CFs?$FN?$FL?$CFs?$FN?5Sub?5Contri@ ; `string'
PUBLIC	??_C@_0CH@DIBMGBEO@?$CFd?5contribution?5point?$CIs?$CJ?5would?5b@ ; `string'
PUBLIC	??_C@_0GH@LKELBNEO@?$FLGensSystem?$FN?5?$FL?$CFs?$FN?$FL?$CFs?$FN?5Add?5Contri@ ; `string'
PUBLIC	??_C@_0CC@MOPLMGLO@?$CFd?5contribution?5point?$CIs?$CJ?5obtaine@ ; `string'
PUBLIC	??_C@_0BM@OLOFICNN@You?5have?5maximum?5gens?5class?$AA@ ; `string'
PUBLIC	?ChkKillUserName@GensSystem@@QAEHPAUOBJECTSTRUCT@@PAD@Z ; GensSystem::ChkKillUserName
PUBLIC	__$ArrayPad$
PUBLIC	?CalcContributePoint@GensSystem@@QAEXPAUOBJECTSTRUCT@@0@Z ; GensSystem::CalcContributePoint
EXTRN	_sprintf:PROC
EXTRN	?GCServerMsgStringSend@@YAXPADHE@Z:PROC		; GCServerMsgStringSend
;	COMDAT ??_C@_0DC@DDPABKFB@?$FLGensSystem?$FN?5?9?5Error?5NONE_INFLUE@
CONST	SEGMENT
??_C@_0DC@DDPABKFB@?$FLGensSystem?$FN?5?9?5Error?5NONE_INFLUE@ DB '[GensS'
	DB	'ystem] - Error NONE_INFLUENCE - %s Line: %d', 00H ; `string'
CONST	ENDS
;	COMDAT ?__LINE__Var@?1??CalcContributePoint@GensSystem@@QAEXPAUOBJECTSTRUCT@@0@Z@4JA
_DATA	SEGMENT
?__LINE__Var@?1??CalcContributePoint@GensSystem@@QAEXPAUOBJECTSTRUCT@@0@Z@4JA DD 0349H ; `GensSystem::CalcContributePoint'::`2'::__LINE__Var
_DATA	ENDS
;	COMDAT ??_C@_0FP@LFMBBFAD@?$FLGensSystem?$FN?5?$FL?$CFs?$FN?$FL?$CFs?$FN?5Add?5BonusC@
CONST	SEGMENT
??_C@_0FP@LFMBBFAD@?$FLGensSystem?$FN?5?$FL?$CFs?$FN?$FL?$CFs?$FN?5Add?5BonusC@ DB '['
	DB	'GensSystem] [%s][%s] Add BonusCP[%d] - Result : Lv [%d] GensN'
	DB	'ame [%s] / Lv [%d] GensName [%s]', 00H	; `string'
CONST	ENDS
;	COMDAT ??_C@_0CI@PABJHDP@?$CFd?5bonus?5contribution?5point?$CIs?$CJ?5o@
CONST	SEGMENT
??_C@_0CI@PABJHDP@?$CFd?5bonus?5contribution?5point?$CIs?$CJ?5o@ DB '%d b'
	DB	'onus contribution point(s) obtained', 00H	; `string'
CONST	ENDS
;	COMDAT ??_C@_0GH@GNCIJJHO@?$FLGensSystem?$FN?5?$FL?$CFs?$FN?$FL?$CFs?$FN?5Sub?5Contri@
CONST	SEGMENT
??_C@_0GH@GNCIJJHO@?$FLGensSystem?$FN?5?$FL?$CFs?$FN?$FL?$CFs?$FN?5Sub?5Contri@ DB '['
	DB	'GensSystem] [%s][%s] Sub ContributePoint[%d] - Result : Lv [%'
	DB	'd] GensName [%s] / Lv [%d] GensName [%s]', 00H ; `string'
CONST	ENDS
;	COMDAT ??_C@_0CH@DIBMGBEO@?$CFd?5contribution?5point?$CIs?$CJ?5would?5b@
CONST	SEGMENT
??_C@_0CH@DIBMGBEO@?$CFd?5contribution?5point?$CIs?$CJ?5would?5b@ DB '%d '
	DB	'contribution point(s) would be lost', 00H	; `string'
CONST	ENDS
;	COMDAT ??_C@_0GH@LKELBNEO@?$FLGensSystem?$FN?5?$FL?$CFs?$FN?$FL?$CFs?$FN?5Add?5Contri@
CONST	SEGMENT
??_C@_0GH@LKELBNEO@?$FLGensSystem?$FN?5?$FL?$CFs?$FN?$FL?$CFs?$FN?5Add?5Contri@ DB '['
	DB	'GensSystem] [%s][%s] Add ContributePoint[%d] - Result : Lv [%'
	DB	'd] GensName [%s] / Lv [%d] GensName [%s]', 00H ; `string'
CONST	ENDS
;	COMDAT ??_C@_0CC@MOPLMGLO@?$CFd?5contribution?5point?$CIs?$CJ?5obtaine@
CONST	SEGMENT
??_C@_0CC@MOPLMGLO@?$CFd?5contribution?5point?$CIs?$CJ?5obtaine@ DB '%d c'
	DB	'ontribution point(s) obtained', 00H		; `string'
CONST	ENDS
;	COMDAT ??_C@_0BM@OLOFICNN@You?5have?5maximum?5gens?5class?$AA@
CONST	SEGMENT
??_C@_0BM@OLOFICNN@You?5have?5maximum?5gens?5class?$AA@ DB 'You have maxi'
	DB	'mum gens class', 00H			; `string'
; Function compile flags: /Odtp /ZI
CONST	ENDS
_TEXT	SEGMENT
_Text$229393 = -356					; size = 100
_Text$229389 = -256					; size = 100
_Text$229385 = -156					; size = 100
_szName$ = -56						; size = 11
_iGensClassGap$ = -44					; size = 4
_iAddBonusValue$ = -40					; size = 4
_iSubValue$ = -36					; size = 4
_iAddValue$ = -32					; size = 4
_iCalcLv$ = -28						; size = 4
_iKillerContributePoint$ = -24				; size = 4
_iContributePoint$ = -20				; size = 4
_iTarInfluence$ = -16					; size = 4
_iInfluence$ = -12					; size = 4
_this$ = -8						; size = 4
__$ArrayPad$ = -4					; size = 4
_lpObj$ = 8						; size = 4
_lpTargetObj$ = 12					; size = 4
?CalcContributePoint@GensSystem@@QAEXPAUOBJECTSTRUCT@@0@Z PROC ; GensSystem::CalcContributePoint
; _this$ = ecx

; 841  : {

  01060	55		 push	 ebp
  01061	8b ec		 mov	 ebp, esp
  01063	81 ec a4 01 00
	00		 sub	 esp, 420		; 000001a4H
  01069	a1 00 00 00 00	 mov	 eax, DWORD PTR ___security_cookie
  0106e	33 c5		 xor	 eax, ebp
  01070	89 45 fc	 mov	 DWORD PTR __$ArrayPad$[ebp], eax
  01073	53		 push	 ebx
  01074	56		 push	 esi
  01075	57		 push	 edi
  01076	89 4d f8	 mov	 DWORD PTR _this$[ebp], ecx

; 842  : 	int iInfluence;
; 843  : 	int iTarInfluence;
; 844  : 	int iContributePoint;
; 845  : 	int iKillerContributePoint;
; 846  : 	int iCalcLv;
; 847  : 	int iAddValue;
; 848  : 	int iSubValue;
; 849  : 	int iAddBonusValue;
; 850  : 	int iGensClassGap;
; 851  : 	
; 852  : 	char szName[0x0B];
; 853  : 
; 854  : 	if (lpObj->Type && lpTargetObj->Type && this->IsMapBattleZone(lpObj->MapNumber) && this->IsMapBattleZone(lpTargetObj->MapNumber))

  01079	8b 45 08	 mov	 eax, DWORD PTR _lpObj$[ebp]
  0107c	0f b7 48 68	 movzx	 ecx, WORD PTR [eax+104]
  01080	85 c9		 test	 ecx, ecx
  01082	0f 84 f5 04 00
	00		 je	 $LN46@CalcContri
  01088	8b 45 0c	 mov	 eax, DWORD PTR _lpTargetObj$[ebp]
  0108b	0f b7 48 68	 movzx	 ecx, WORD PTR [eax+104]
  0108f	85 c9		 test	 ecx, ecx
  01091	0f 84 e6 04 00
	00		 je	 $LN46@CalcContri
  01097	8b 45 08	 mov	 eax, DWORD PTR _lpObj$[ebp]
  0109a	0f b6 88 49 01
	00 00		 movzx	 ecx, BYTE PTR [eax+329]
  010a1	51		 push	 ecx
  010a2	8b 4d f8	 mov	 ecx, DWORD PTR _this$[ebp]
  010a5	e8 00 00 00 00	 call	 ?IsMapBattleZone@GensSystem@@QAEHH@Z ; GensSystem::IsMapBattleZone
  010aa	85 c0		 test	 eax, eax
  010ac	0f 84 cb 04 00
	00		 je	 $LN46@CalcContri
  010b2	8b 45 0c	 mov	 eax, DWORD PTR _lpTargetObj$[ebp]
  010b5	0f b6 88 49 01
	00 00		 movzx	 ecx, BYTE PTR [eax+329]
  010bc	51		 push	 ecx
  010bd	8b 4d f8	 mov	 ecx, DWORD PTR _this$[ebp]
  010c0	e8 00 00 00 00	 call	 ?IsMapBattleZone@GensSystem@@QAEHH@Z ; GensSystem::IsMapBattleZone
  010c5	85 c0		 test	 eax, eax
  010c7	0f 84 b0 04 00
	00		 je	 $LN46@CalcContri

; 855  : 	{
; 856  : 		iInfluence		= this->GetGensInfluence(lpObj);

  010cd	8b 45 08	 mov	 eax, DWORD PTR _lpObj$[ebp]
  010d0	50		 push	 eax
  010d1	8b 4d f8	 mov	 ecx, DWORD PTR _this$[ebp]
  010d4	e8 00 00 00 00	 call	 ?GetGensInfluence@GensSystem@@QAEHPAUOBJECTSTRUCT@@@Z ; GensSystem::GetGensInfluence
  010d9	89 45 f4	 mov	 DWORD PTR _iInfluence$[ebp], eax

; 857  : 		iTarInfluence	= this->GetGensInfluence(lpTargetObj);

  010dc	8b 45 0c	 mov	 eax, DWORD PTR _lpTargetObj$[ebp]
  010df	50		 push	 eax
  010e0	8b 4d f8	 mov	 ecx, DWORD PTR _this$[ebp]
  010e3	e8 00 00 00 00	 call	 ?GetGensInfluence@GensSystem@@QAEHPAUOBJECTSTRUCT@@@Z ; GensSystem::GetGensInfluence
  010e8	89 45 f0	 mov	 DWORD PTR _iTarInfluence$[ebp], eax

; 858  : 
; 859  : 		if (iInfluence && iTarInfluence)

  010eb	83 7d f4 00	 cmp	 DWORD PTR _iInfluence$[ebp], 0
  010ef	0f 84 88 04 00
	00		 je	 $LN46@CalcContri
  010f5	83 7d f0 00	 cmp	 DWORD PTR _iTarInfluence$[ebp], 0
  010f9	0f 84 7e 04 00
	00		 je	 $LN46@CalcContri

; 860  : 		{
; 861  : 			if (iInfluence != iTarInfluence)

  010ff	8b 45 f4	 mov	 eax, DWORD PTR _iInfluence$[ebp]
  01102	3b 45 f0	 cmp	 eax, DWORD PTR _iTarInfluence$[ebp]
  01105	0f 84 54 04 00
	00		 je	 $LN43@CalcContri

; 862  : 			{
; 863  : 				memcpy(szName, lpTargetObj->Name, sizeof(lpTargetObj->Name));		

  0110b	6a 0b		 push	 11			; 0000000bH
  0110d	8b 45 0c	 mov	 eax, DWORD PTR _lpTargetObj$[ebp]
  01110	83 c0 77	 add	 eax, 119		; 00000077H
  01113	50		 push	 eax
  01114	8d 4d c8	 lea	 ecx, DWORD PTR _szName$[ebp]
  01117	51		 push	 ecx
  01118	e8 00 00 00 00	 call	 _memcpy
  0111d	83 c4 0c	 add	 esp, 12			; 0000000cH

; 864  : 				if (this->ChkKillUserName(lpObj, szName) == 0)

  01120	8d 45 c8	 lea	 eax, DWORD PTR _szName$[ebp]
  01123	50		 push	 eax
  01124	8b 4d 08	 mov	 ecx, DWORD PTR _lpObj$[ebp]
  01127	51		 push	 ecx
  01128	8b 4d f8	 mov	 ecx, DWORD PTR _this$[ebp]
  0112b	e8 00 00 00 00	 call	 ?ChkKillUserName@GensSystem@@QAEHPAUOBJECTSTRUCT@@PAD@Z ; GensSystem::ChkKillUserName
  01130	85 c0		 test	 eax, eax
  01132	0f 85 25 04 00
	00		 jne	 $LN42@CalcContri

; 865  : 				{
; 866  : 					iKillerContributePoint = this->GetContributePoint(lpTargetObj); 

  01138	8b 45 0c	 mov	 eax, DWORD PTR _lpTargetObj$[ebp]
  0113b	50		 push	 eax
  0113c	8b 4d f8	 mov	 ecx, DWORD PTR _this$[ebp]
  0113f	e8 00 00 00 00	 call	 ?GetContributePoint@GensSystem@@QAEHPAUOBJECTSTRUCT@@@Z ; GensSystem::GetContributePoint
  01144	89 45 e8	 mov	 DWORD PTR _iKillerContributePoint$[ebp], eax

; 867  : 					
; 868  : 					iContributePoint = this->GetContributePoint(lpObj);

  01147	8b 45 08	 mov	 eax, DWORD PTR _lpObj$[ebp]
  0114a	50		 push	 eax
  0114b	8b 4d f8	 mov	 ecx, DWORD PTR _this$[ebp]
  0114e	e8 00 00 00 00	 call	 ?GetContributePoint@GensSystem@@QAEHPAUOBJECTSTRUCT@@@Z ; GensSystem::GetContributePoint
  01153	89 45 ec	 mov	 DWORD PTR _iContributePoint$[ebp], eax

; 869  : 
; 870  : 					if (iKillerContributePoint > 0 || iContributePoint <= 0)

  01156	83 7d e8 00	 cmp	 DWORD PTR _iKillerContributePoint$[ebp], 0
  0115a	7f 0a		 jg	 SHORT $LN40@CalcContri
  0115c	83 7d ec 00	 cmp	 DWORD PTR _iContributePoint$[ebp], 0
  01160	0f 8f f7 03 00
	00		 jg	 $LN42@CalcContri
$LN40@CalcContri:

; 871  : 					{
; 872  : 						iAddValue = 0; iAddBonusValue = 0;

  01166	c7 45 e0 00 00
	00 00		 mov	 DWORD PTR _iAddValue$[ebp], 0
  0116d	c7 45 d8 00 00
	00 00		 mov	 DWORD PTR _iAddBonusValue$[ebp], 0

; 873  : 
; 874  : 						if (lpObj->Level == lpTargetObj->Level)

  01174	8b 45 08	 mov	 eax, DWORD PTR _lpObj$[ebp]
  01177	0f bf 88 be 00
	00 00		 movsx	 ecx, WORD PTR [eax+190]
  0117e	8b 55 0c	 mov	 edx, DWORD PTR _lpTargetObj$[ebp]
  01181	0f bf 82 be 00
	00 00		 movsx	 eax, WORD PTR [edx+190]
  01188	3b c8		 cmp	 ecx, eax
  0118a	75 13		 jne	 SHORT $LN39@CalcContri

; 875  : 						{
; 876  : 							iAddValue = 5; iAddBonusValue = 3;

  0118c	c7 45 e0 05 00
	00 00		 mov	 DWORD PTR _iAddValue$[ebp], 5
  01193	c7 45 d8 03 00
	00 00		 mov	 DWORD PTR _iAddBonusValue$[ebp], 3

; 877  : 						}
; 878  : 						else

  0119a	e9 3f 01 00 00	 jmp	 $LN38@CalcContri
$LN39@CalcContri:

; 879  : 						{							
; 880  : 							if (lpObj->Level >= lpTargetObj->Level)

  0119f	8b 45 08	 mov	 eax, DWORD PTR _lpObj$[ebp]
  011a2	0f bf 88 be 00
	00 00		 movsx	 ecx, WORD PTR [eax+190]
  011a9	8b 55 0c	 mov	 edx, DWORD PTR _lpTargetObj$[ebp]
  011ac	0f bf 82 be 00
	00 00		 movsx	 eax, WORD PTR [edx+190]
  011b3	3b c8		 cmp	 ecx, eax
  011b5	0f 8c a2 00 00
	00		 jl	 $LN37@CalcContri

; 881  : 							{					
; 882  : 								if (lpObj->Level > lpTargetObj->Level)

  011bb	8b 45 08	 mov	 eax, DWORD PTR _lpObj$[ebp]
  011be	0f bf 88 be 00
	00 00		 movsx	 ecx, WORD PTR [eax+190]
  011c5	8b 55 0c	 mov	 edx, DWORD PTR _lpTargetObj$[ebp]
  011c8	0f bf 82 be 00
	00 00		 movsx	 eax, WORD PTR [edx+190]
  011cf	3b c8		 cmp	 ecx, eax
  011d1	0f 8e 81 00 00
	00		 jle	 $LN36@CalcContri

; 883  : 								{
; 884  : 									iCalcLv = lpObj->Level - lpTargetObj->Level;

  011d7	8b 45 08	 mov	 eax, DWORD PTR _lpObj$[ebp]
  011da	0f bf 88 be 00
	00 00		 movsx	 ecx, WORD PTR [eax+190]
  011e1	8b 55 0c	 mov	 edx, DWORD PTR _lpTargetObj$[ebp]
  011e4	0f bf 82 be 00
	00 00		 movsx	 eax, WORD PTR [edx+190]
  011eb	2b c8		 sub	 ecx, eax
  011ed	89 4d e4	 mov	 DWORD PTR _iCalcLv$[ebp], ecx

; 885  : 
; 886  : 								 if (iCalcLv < 51)

  011f0	83 7d e4 33	 cmp	 DWORD PTR _iCalcLv$[ebp], 51 ; 00000033H
  011f4	7d 54		 jge	 SHORT $LN35@CalcContri

; 887  : 							 	{
; 888  : 									 if (iCalcLv < 31 || iCalcLv > 50)

  011f6	83 7d e4 1f	 cmp	 DWORD PTR _iCalcLv$[ebp], 31 ; 0000001fH
  011fa	7c 06		 jl	 SHORT $LN33@CalcContri
  011fc	83 7d e4 32	 cmp	 DWORD PTR _iCalcLv$[ebp], 50 ; 00000032H
  01200	7e 38		 jle	 SHORT $LN34@CalcContri
$LN33@CalcContri:

; 889  : 								 	{
; 890  : 								 		if (iCalcLv < 11 || iCalcLv > 30)

  01202	83 7d e4 0b	 cmp	 DWORD PTR _iCalcLv$[ebp], 11 ; 0000000bH
  01206	7c 06		 jl	 SHORT $LN31@CalcContri
  01208	83 7d e4 1e	 cmp	 DWORD PTR _iCalcLv$[ebp], 30 ; 0000001eH
  0120c	7e 1c		 jle	 SHORT $LN32@CalcContri
$LN31@CalcContri:

; 891  : 									 	{
; 892  : 									 		if (iCalcLv > 0 && iCalcLv <= 10)

  0120e	83 7d e4 00	 cmp	 DWORD PTR _iCalcLv$[ebp], 0
  01212	7e 14		 jle	 SHORT $LN30@CalcContri
  01214	83 7d e4 0a	 cmp	 DWORD PTR _iCalcLv$[ebp], 10 ; 0000000aH
  01218	7f 0e		 jg	 SHORT $LN30@CalcContri

; 893  : 											 {
; 894  : 										 		iAddValue = 5; iSubValue = 3;

  0121a	c7 45 e0 05 00
	00 00		 mov	 DWORD PTR _iAddValue$[ebp], 5
  01221	c7 45 dc 03 00
	00 00		 mov	 DWORD PTR _iSubValue$[ebp], 3
$LN30@CalcContri:

; 895  : 										 	}
; 896  : 									 	}
; 897  : 									 	else

  01228	eb 0e		 jmp	 SHORT $LN29@CalcContri
$LN32@CalcContri:

; 898  : 										 {
; 899  : 										 	iAddValue = 3; iSubValue = 3;

  0122a	c7 45 e0 03 00
	00 00		 mov	 DWORD PTR _iAddValue$[ebp], 3
  01231	c7 45 dc 03 00
	00 00		 mov	 DWORD PTR _iSubValue$[ebp], 3
$LN29@CalcContri:

; 900  : 										 }
; 901  : 								 	}
; 902  : 								 	else 

  01238	eb 0e		 jmp	 SHORT $LN28@CalcContri
$LN34@CalcContri:

; 903  : 								 	{
; 904  : 										 iAddValue = 2; iSubValue = 1;

  0123a	c7 45 e0 02 00
	00 00		 mov	 DWORD PTR _iAddValue$[ebp], 2
  01241	c7 45 dc 01 00
	00 00		 mov	 DWORD PTR _iSubValue$[ebp], 1
$LN28@CalcContri:

; 905  : 									 }
; 906  : 								 }
; 907  : 							 	else

  01248	eb 0e		 jmp	 SHORT $LN36@CalcContri
$LN35@CalcContri:

; 908  : 							 	{
; 909  : 							 		iAddValue = 1; iSubValue = 1;

  0124a	c7 45 e0 01 00
	00 00		 mov	 DWORD PTR _iAddValue$[ebp], 1
  01251	c7 45 dc 01 00
	00 00		 mov	 DWORD PTR _iSubValue$[ebp], 1
$LN36@CalcContri:

; 910  : 							 	}
; 911  : 							 }
; 912  : 						 }
; 913  : 							else

  01258	e9 81 00 00 00	 jmp	 $LN38@CalcContri
$LN37@CalcContri:

; 914  : 							{
; 915  : 								iCalcLv = lpTargetObj->Level - lpObj->Level;

  0125d	8b 45 0c	 mov	 eax, DWORD PTR _lpTargetObj$[ebp]
  01260	0f bf 88 be 00
	00 00		 movsx	 ecx, WORD PTR [eax+190]
  01267	8b 55 08	 mov	 edx, DWORD PTR _lpObj$[ebp]
  0126a	0f bf 82 be 00
	00 00		 movsx	 eax, WORD PTR [edx+190]
  01271	2b c8		 sub	 ecx, eax
  01273	89 4d e4	 mov	 DWORD PTR _iCalcLv$[ebp], ecx

; 916  : 
; 917  : 								if (iCalcLv < 51)

  01276	83 7d e4 33	 cmp	 DWORD PTR _iCalcLv$[ebp], 51 ; 00000033H
  0127a	7d 54		 jge	 SHORT $LN25@CalcContri

; 918  : 								{
; 919  : 									if (iCalcLv < 31 || iCalcLv > 50)

  0127c	83 7d e4 1f	 cmp	 DWORD PTR _iCalcLv$[ebp], 31 ; 0000001fH
  01280	7c 06		 jl	 SHORT $LN23@CalcContri
  01282	83 7d e4 32	 cmp	 DWORD PTR _iCalcLv$[ebp], 50 ; 00000032H
  01286	7e 38		 jle	 SHORT $LN24@CalcContri
$LN23@CalcContri:

; 920  : 									{
; 921  : 										if (iCalcLv < 11 || iCalcLv > 30)

  01288	83 7d e4 0b	 cmp	 DWORD PTR _iCalcLv$[ebp], 11 ; 0000000bH
  0128c	7c 06		 jl	 SHORT $LN21@CalcContri
  0128e	83 7d e4 1e	 cmp	 DWORD PTR _iCalcLv$[ebp], 30 ; 0000001eH
  01292	7e 1c		 jle	 SHORT $LN22@CalcContri
$LN21@CalcContri:

; 922  : 										{
; 923  : 											if (iCalcLv > 0 && iCalcLv <= 10)

  01294	83 7d e4 00	 cmp	 DWORD PTR _iCalcLv$[ebp], 0
  01298	7e 14		 jle	 SHORT $LN20@CalcContri
  0129a	83 7d e4 0a	 cmp	 DWORD PTR _iCalcLv$[ebp], 10 ; 0000000aH
  0129e	7f 0e		 jg	 SHORT $LN20@CalcContri

; 924  : 											{
; 925  : 												iAddValue = 5; iSubValue = 3;

  012a0	c7 45 e0 05 00
	00 00		 mov	 DWORD PTR _iAddValue$[ebp], 5
  012a7	c7 45 dc 03 00
	00 00		 mov	 DWORD PTR _iSubValue$[ebp], 3
$LN20@CalcContri:

; 926  : 											}
; 927  : 										}
; 928  : 										else

  012ae	eb 0e		 jmp	 SHORT $LN19@CalcContri
$LN22@CalcContri:

; 929  : 										{
; 930  : 											iAddValue = 6; iSubValue = 3;

  012b0	c7 45 e0 06 00
	00 00		 mov	 DWORD PTR _iAddValue$[ebp], 6
  012b7	c7 45 dc 03 00
	00 00		 mov	 DWORD PTR _iSubValue$[ebp], 3
$LN19@CalcContri:

; 931  : 										}
; 932  : 									}
; 933  : 									else

  012be	eb 0e		 jmp	 SHORT $LN18@CalcContri
$LN24@CalcContri:

; 934  : 									{
; 935  : 										iAddValue = 6; iSubValue = 3;

  012c0	c7 45 e0 06 00
	00 00		 mov	 DWORD PTR _iAddValue$[ebp], 6
  012c7	c7 45 dc 03 00
	00 00		 mov	 DWORD PTR _iSubValue$[ebp], 3
$LN18@CalcContri:

; 936  : 									}
; 937  : 								}
; 938  : 								else

  012ce	eb 0e		 jmp	 SHORT $LN38@CalcContri
$LN25@CalcContri:

; 939  : 								{
; 940  : 									iAddValue = 7; iSubValue = 3;

  012d0	c7 45 e0 07 00
	00 00		 mov	 DWORD PTR _iAddValue$[ebp], 7
  012d7	c7 45 dc 03 00
	00 00		 mov	 DWORD PTR _iSubValue$[ebp], 3
$LN38@CalcContri:

; 941  : 								}
; 942  : 							}
; 943  : 						}
; 944  : 
; 945  : 						iAddBonusValue = 0;

  012de	c7 45 d8 00 00
	00 00		 mov	 DWORD PTR _iAddBonusValue$[ebp], 0

; 946  : 
; 947  : 						iGensClassGap = lpObj->m_GensClass - lpTargetObj->m_GensClass;

  012e5	8b 45 08	 mov	 eax, DWORD PTR _lpObj$[ebp]
  012e8	8b 4d 0c	 mov	 ecx, DWORD PTR _lpTargetObj$[ebp]
  012eb	8b 90 f4 22 00
	00		 mov	 edx, DWORD PTR [eax+8948]
  012f1	2b 91 f4 22 00
	00		 sub	 edx, DWORD PTR [ecx+8948]
  012f7	89 55 d4	 mov	 DWORD PTR _iGensClassGap$[ebp], edx

; 948  : 					
; 949  : 						if (iGensClassGap == 1)

  012fa	83 7d d4 01	 cmp	 DWORD PTR _iGensClassGap$[ebp], 1
  012fe	75 21		 jne	 SHORT $LN16@CalcContri

; 950  : 						{
; 951  : 							if (lpObj->m_GensClass >= 9)

  01300	8b 45 08	 mov	 eax, DWORD PTR _lpObj$[ebp]
  01303	83 b8 f4 22 00
	00 09		 cmp	 DWORD PTR [eax+8948], 9
  0130a	7c 09		 jl	 SHORT $LN15@CalcContri

; 952  : 							{
; 953  : 								iAddBonusValue = 1;

  0130c	c7 45 d8 01 00
	00 00		 mov	 DWORD PTR _iAddBonusValue$[ebp], 1

; 954  : 							}
; 955  : 							else

  01313	eb 07		 jmp	 SHORT $LN14@CalcContri
$LN15@CalcContri:

; 956  : 							{
; 957  : 								iAddBonusValue = 3;

  01315	c7 45 d8 03 00
	00 00		 mov	 DWORD PTR _iAddBonusValue$[ebp], 3
$LN14@CalcContri:

; 958  : 							}
; 959  : 						}
; 960  : 						else

  0131c	e9 3c 02 00 00	 jmp	 $LN42@CalcContri
$LN16@CalcContri:

; 961  : 						{
; 962  : 							if (iGensClassGap == 2)

  01321	83 7d d4 02	 cmp	 DWORD PTR _iGensClassGap$[ebp], 2
  01325	75 1e		 jne	 SHORT $LN12@CalcContri

; 963  : 							{
; 964  : 								if (lpObj->m_GensClass >= 9)

  01327	8b 45 08	 mov	 eax, DWORD PTR _lpObj$[ebp]
  0132a	83 b8 f4 22 00
	00 09		 cmp	 DWORD PTR [eax+8948], 9
  01331	7c 09		 jl	 SHORT $LN11@CalcContri

; 965  : 								{
; 966  : 									iAddBonusValue = 2;

  01333	c7 45 d8 02 00
	00 00		 mov	 DWORD PTR _iAddBonusValue$[ebp], 2

; 967  : 								}
; 968  : 								else

  0133a	eb 07		 jmp	 SHORT $LN10@CalcContri
$LN11@CalcContri:

; 969  : 								{
; 970  : 									iAddBonusValue = 4;

  0133c	c7 45 d8 04 00
	00 00		 mov	 DWORD PTR _iAddBonusValue$[ebp], 4
$LN10@CalcContri:

; 971  : 								}
; 972  : 							}
; 973  : 							else

  01343	eb 22		 jmp	 SHORT $LN9@CalcContri
$LN12@CalcContri:

; 974  : 							{
; 975  : 								if (iGensClassGap >= 3)

  01345	83 7d d4 03	 cmp	 DWORD PTR _iGensClassGap$[ebp], 3
  01349	7c 1c		 jl	 SHORT $LN9@CalcContri

; 976  : 								{
; 977  : 									if (lpObj->m_GensClass >= 9)

  0134b	8b 45 08	 mov	 eax, DWORD PTR _lpObj$[ebp]
  0134e	83 b8 f4 22 00
	00 09		 cmp	 DWORD PTR [eax+8948], 9
  01355	7c 09		 jl	 SHORT $LN7@CalcContri

; 978  : 									{
; 979  : 										iAddBonusValue = 3;

  01357	c7 45 d8 03 00
	00 00		 mov	 DWORD PTR _iAddBonusValue$[ebp], 3

; 980  : 									}
; 981  : 									else

  0135e	eb 07		 jmp	 SHORT $LN9@CalcContri
$LN7@CalcContri:

; 982  : 									{
; 983  : 										iAddBonusValue = 5;

  01360	c7 45 d8 05 00
	00 00		 mov	 DWORD PTR _iAddBonusValue$[ebp], 5
$LN9@CalcContri:

; 984  : 									}
; 985  : 								}
; 986  : 							}
; 987  : 					
; 988  : 							if( lpObj->m_GensClass > 9 && iAddBonusValue + iAddValue >= this->GetNextContributePoint(lpObj) )

  01367	8b 45 08	 mov	 eax, DWORD PTR _lpObj$[ebp]
  0136a	83 b8 f4 22 00
	00 09		 cmp	 DWORD PTR [eax+8948], 9
  01371	7e 2d		 jle	 SHORT $LN5@CalcContri
  01373	8b 75 d8	 mov	 esi, DWORD PTR _iAddBonusValue$[ebp]
  01376	03 75 e0	 add	 esi, DWORD PTR _iAddValue$[ebp]
  01379	8b 45 08	 mov	 eax, DWORD PTR _lpObj$[ebp]
  0137c	50		 push	 eax
  0137d	8b 4d f8	 mov	 ecx, DWORD PTR _this$[ebp]
  01380	e8 00 00 00 00	 call	 ?GetNextContributePoint@GensSystem@@QAEHPAUOBJECTSTRUCT@@@Z ; GensSystem::GetNextContributePoint
  01385	3b f0		 cmp	 esi, eax
  01387	7c 17		 jl	 SHORT $LN5@CalcContri

; 989  : 							{
; 990  : 								//GCServerMsgStringSend(lMsg.Get(3470), lpObj->m_Index, 1);
; 991  : 								GCServerMsgStringSend("You have maximum gens class", lpObj->m_Index, 1); //-> Not original text

  01389	6a 01		 push	 1
  0138b	8b 45 08	 mov	 eax, DWORD PTR _lpObj$[ebp]
  0138e	8b 08		 mov	 ecx, DWORD PTR [eax]
  01390	51		 push	 ecx
  01391	68 00 00 00 00	 push	 OFFSET ??_C@_0BM@OLOFICNN@You?5have?5maximum?5gens?5class?$AA@
  01396	e8 00 00 00 00	 call	 ?GCServerMsgStringSend@@YAXPADHE@Z ; GCServerMsgStringSend
  0139b	83 c4 0c	 add	 esp, 12			; 0000000cH

; 992  : 							}
; 993  : 							else //-> Not original

  0139e	eb 2f		 jmp	 SHORT $LN4@CalcContri
$LN5@CalcContri:

; 994  : 							{
; 995  : 								char Text[100];
; 996  : 								sprintf(Text, "%d contribution point(s) obtained", iAddValue);

  013a0	8b 45 e0	 mov	 eax, DWORD PTR _iAddValue$[ebp]
  013a3	50		 push	 eax
  013a4	68 00 00 00 00	 push	 OFFSET ??_C@_0CC@MOPLMGLO@?$CFd?5contribution?5point?$CIs?$CJ?5obtaine@
  013a9	8d 8d 64 ff ff
	ff		 lea	 ecx, DWORD PTR _Text$229385[ebp]
  013af	51		 push	 ecx
  013b0	e8 00 00 00 00	 call	 _sprintf
  013b5	83 c4 0c	 add	 esp, 12			; 0000000cH

; 997  : 								// ----
; 998  : 								GCServerMsgStringSend(Text, lpObj->m_Index, 1);

  013b8	6a 01		 push	 1
  013ba	8b 45 08	 mov	 eax, DWORD PTR _lpObj$[ebp]
  013bd	8b 08		 mov	 ecx, DWORD PTR [eax]
  013bf	51		 push	 ecx
  013c0	8d 95 64 ff ff
	ff		 lea	 edx, DWORD PTR _Text$229385[ebp]
  013c6	52		 push	 edx
  013c7	e8 00 00 00 00	 call	 ?GCServerMsgStringSend@@YAXPADHE@Z ; GCServerMsgStringSend
  013cc	83 c4 0c	 add	 esp, 12			; 0000000cH
$LN4@CalcContri:

; 999  : 							}
; 1000 : 
; 1001 : 							this->AddContributePoint(lpObj, iAddValue);				

  013cf	8b 45 e0	 mov	 eax, DWORD PTR _iAddValue$[ebp]
  013d2	50		 push	 eax
  013d3	8b 4d 08	 mov	 ecx, DWORD PTR _lpObj$[ebp]
  013d6	51		 push	 ecx
  013d7	8b 4d f8	 mov	 ecx, DWORD PTR _this$[ebp]
  013da	e8 00 00 00 00	 call	 ?AddContributePoint@GensSystem@@QAEHPAUOBJECTSTRUCT@@H@Z ; GensSystem::AddContributePoint

; 1002 : 										
; 1003 : 							LogAddTD("[GensSystem] [%s][%s] Add ContributePoint[%d] - Result : Lv [%d] GensName [%s] / Lv [%d] GensName [%s]",
; 1004 : 								lpObj->AccountID, lpObj->Name, iAddValue, lpObj->Level, this->GetGensInfluenceName(lpObj), lpTargetObj->Level, this->GetGensInfluenceName(lpTargetObj));

  013df	8b 45 0c	 mov	 eax, DWORD PTR _lpTargetObj$[ebp]
  013e2	50		 push	 eax
  013e3	8b 4d f8	 mov	 ecx, DWORD PTR _this$[ebp]
  013e6	e8 00 00 00 00	 call	 ?GetGensInfluenceName@GensSystem@@QAEPADPAUOBJECTSTRUCT@@@Z ; GensSystem::GetGensInfluenceName
  013eb	50		 push	 eax
  013ec	8b 4d 0c	 mov	 ecx, DWORD PTR _lpTargetObj$[ebp]
  013ef	0f bf 91 be 00
	00 00		 movsx	 edx, WORD PTR [ecx+190]
  013f6	52		 push	 edx
  013f7	8b 45 08	 mov	 eax, DWORD PTR _lpObj$[ebp]
  013fa	50		 push	 eax
  013fb	8b 4d f8	 mov	 ecx, DWORD PTR _this$[ebp]
  013fe	e8 00 00 00 00	 call	 ?GetGensInfluenceName@GensSystem@@QAEPADPAUOBJECTSTRUCT@@@Z ; GensSystem::GetGensInfluenceName
  01403	50		 push	 eax
  01404	8b 4d 08	 mov	 ecx, DWORD PTR _lpObj$[ebp]
  01407	0f bf 91 be 00
	00 00		 movsx	 edx, WORD PTR [ecx+190]
  0140e	52		 push	 edx
  0140f	8b 45 e0	 mov	 eax, DWORD PTR _iAddValue$[ebp]
  01412	50		 push	 eax
  01413	8b 4d 08	 mov	 ecx, DWORD PTR _lpObj$[ebp]
  01416	83 c1 77	 add	 ecx, 119		; 00000077H
  01419	51		 push	 ecx
  0141a	8b 55 08	 mov	 edx, DWORD PTR _lpObj$[ebp]
  0141d	83 c2 6c	 add	 edx, 108		; 0000006cH
  01420	52		 push	 edx
  01421	68 00 00 00 00	 push	 OFFSET ??_C@_0GH@LKELBNEO@?$FLGensSystem?$FN?5?$FL?$CFs?$FN?$FL?$CFs?$FN?5Add?5Contri@
  01426	ff 15 00 00 00
	00		 call	 DWORD PTR ?LogAddTD@@3P6AXPADZZA ; LogAddTD
  0142c	83 c4 20	 add	 esp, 32			; 00000020H

; 1005 : 
; 1006 : 							this->SubContributePoint(lpTargetObj, iSubValue);

  0142f	8b 45 dc	 mov	 eax, DWORD PTR _iSubValue$[ebp]
  01432	50		 push	 eax
  01433	8b 4d 0c	 mov	 ecx, DWORD PTR _lpTargetObj$[ebp]
  01436	51		 push	 ecx
  01437	8b 4d f8	 mov	 ecx, DWORD PTR _this$[ebp]
  0143a	e8 00 00 00 00	 call	 ?SubContributePoint@GensSystem@@QAEHPAUOBJECTSTRUCT@@H@Z ; GensSystem::SubContributePoint

; 1007 : 						
; 1008 : 							if( iSubValue > 0 )

  0143f	83 7d dc 00	 cmp	 DWORD PTR _iSubValue$[ebp], 0
  01443	7e 2f		 jle	 SHORT $LN3@CalcContri

; 1009 : 							{
; 1010 : 								char Text[100];
; 1011 : 								sprintf(Text, "%d contribution point(s) would be lost", iAddValue);

  01445	8b 45 e0	 mov	 eax, DWORD PTR _iAddValue$[ebp]
  01448	50		 push	 eax
  01449	68 00 00 00 00	 push	 OFFSET ??_C@_0CH@DIBMGBEO@?$CFd?5contribution?5point?$CIs?$CJ?5would?5b@
  0144e	8d 8d 00 ff ff
	ff		 lea	 ecx, DWORD PTR _Text$229389[ebp]
  01454	51		 push	 ecx
  01455	e8 00 00 00 00	 call	 _sprintf
  0145a	83 c4 0c	 add	 esp, 12			; 0000000cH

; 1012 : 								// ----
; 1013 : 								GCServerMsgStringSend(Text, lpObj->m_Index, 1);

  0145d	6a 01		 push	 1
  0145f	8b 45 08	 mov	 eax, DWORD PTR _lpObj$[ebp]
  01462	8b 08		 mov	 ecx, DWORD PTR [eax]
  01464	51		 push	 ecx
  01465	8d 95 00 ff ff
	ff		 lea	 edx, DWORD PTR _Text$229389[ebp]
  0146b	52		 push	 edx
  0146c	e8 00 00 00 00	 call	 ?GCServerMsgStringSend@@YAXPADHE@Z ; GCServerMsgStringSend
  01471	83 c4 0c	 add	 esp, 12			; 0000000cH
$LN3@CalcContri:

; 1014 : 							}
; 1015 : 
; 1016 : 							LogAddTD("[GensSystem] [%s][%s] Sub ContributePoint[%d] - Result : Lv [%d] GensName [%s] / Lv [%d] GensName [%s]",
; 1017 : 								lpTargetObj->AccountID, lpTargetObj->Name, iSubValue, lpTargetObj->Level, this->GetGensInfluenceName(lpTargetObj), lpObj->Level, this->GetGensInfluenceName(lpObj));

  01474	8b 45 08	 mov	 eax, DWORD PTR _lpObj$[ebp]
  01477	50		 push	 eax
  01478	8b 4d f8	 mov	 ecx, DWORD PTR _this$[ebp]
  0147b	e8 00 00 00 00	 call	 ?GetGensInfluenceName@GensSystem@@QAEPADPAUOBJECTSTRUCT@@@Z ; GensSystem::GetGensInfluenceName
  01480	50		 push	 eax
  01481	8b 4d 08	 mov	 ecx, DWORD PTR _lpObj$[ebp]
  01484	0f bf 91 be 00
	00 00		 movsx	 edx, WORD PTR [ecx+190]
  0148b	52		 push	 edx
  0148c	8b 45 0c	 mov	 eax, DWORD PTR _lpTargetObj$[ebp]
  0148f	50		 push	 eax
  01490	8b 4d f8	 mov	 ecx, DWORD PTR _this$[ebp]
  01493	e8 00 00 00 00	 call	 ?GetGensInfluenceName@GensSystem@@QAEPADPAUOBJECTSTRUCT@@@Z ; GensSystem::GetGensInfluenceName
  01498	50		 push	 eax
  01499	8b 4d 0c	 mov	 ecx, DWORD PTR _lpTargetObj$[ebp]
  0149c	0f bf 91 be 00
	00 00		 movsx	 edx, WORD PTR [ecx+190]
  014a3	52		 push	 edx
  014a4	8b 45 dc	 mov	 eax, DWORD PTR _iSubValue$[ebp]
  014a7	50		 push	 eax
  014a8	8b 4d 0c	 mov	 ecx, DWORD PTR _lpTargetObj$[ebp]
  014ab	83 c1 77	 add	 ecx, 119		; 00000077H
  014ae	51		 push	 ecx
  014af	8b 55 0c	 mov	 edx, DWORD PTR _lpTargetObj$[ebp]
  014b2	83 c2 6c	 add	 edx, 108		; 0000006cH
  014b5	52		 push	 edx
  014b6	68 00 00 00 00	 push	 OFFSET ??_C@_0GH@GNCIJJHO@?$FLGensSystem?$FN?5?$FL?$CFs?$FN?$FL?$CFs?$FN?5Sub?5Contri@
  014bb	ff 15 00 00 00
	00		 call	 DWORD PTR ?LogAddTD@@3P6AXPADZZA ; LogAddTD
  014c1	83 c4 20	 add	 esp, 32			; 00000020H

; 1018 : 					
; 1019 : 							if (iAddBonusValue > 0)

  014c4	83 7d d8 00	 cmp	 DWORD PTR _iAddBonusValue$[ebp], 0
  014c8	0f 8e 8f 00 00
	00		 jle	 $LN42@CalcContri

; 1020 : 							{
; 1021 : 								this->AddContributePoint(lpObj, iAddBonusValue);

  014ce	8b 45 d8	 mov	 eax, DWORD PTR _iAddBonusValue$[ebp]
  014d1	50		 push	 eax
  014d2	8b 4d 08	 mov	 ecx, DWORD PTR _lpObj$[ebp]
  014d5	51		 push	 ecx
  014d6	8b 4d f8	 mov	 ecx, DWORD PTR _this$[ebp]
  014d9	e8 00 00 00 00	 call	 ?AddContributePoint@GensSystem@@QAEHPAUOBJECTSTRUCT@@H@Z ; GensSystem::AddContributePoint

; 1022 : 
; 1023 : 								//GCServerMsgStringSend(lMsg.Get(3472), lpObj->m_Index, 1);
; 1024 : 								// ----
; 1025 : 								char Text[100];
; 1026 : 								sprintf(Text, "%d bonus contribution point(s) obtained", iAddBonusValue);

  014de	8b 45 d8	 mov	 eax, DWORD PTR _iAddBonusValue$[ebp]
  014e1	50		 push	 eax
  014e2	68 00 00 00 00	 push	 OFFSET ??_C@_0CI@PABJHDP@?$CFd?5bonus?5contribution?5point?$CIs?$CJ?5o@
  014e7	8d 8d 9c fe ff
	ff		 lea	 ecx, DWORD PTR _Text$229393[ebp]
  014ed	51		 push	 ecx
  014ee	e8 00 00 00 00	 call	 _sprintf
  014f3	83 c4 0c	 add	 esp, 12			; 0000000cH

; 1027 : 								// ----
; 1028 : 								GCServerMsgStringSend(Text, lpObj->m_Index, 1); //-> Not original text

  014f6	6a 01		 push	 1
  014f8	8b 45 08	 mov	 eax, DWORD PTR _lpObj$[ebp]
  014fb	8b 08		 mov	 ecx, DWORD PTR [eax]
  014fd	51		 push	 ecx
  014fe	8d 95 9c fe ff
	ff		 lea	 edx, DWORD PTR _Text$229393[ebp]
  01504	52		 push	 edx
  01505	e8 00 00 00 00	 call	 ?GCServerMsgStringSend@@YAXPADHE@Z ; GCServerMsgStringSend
  0150a	83 c4 0c	 add	 esp, 12			; 0000000cH

; 1029 : 
; 1030 : 								LogAddTD("[GensSystem] [%s][%s] Add BonusCP[%d] - Result : Lv [%d] GensName [%s] / Lv [%d] GensName [%s]",
; 1031 : 									lpObj->AccountID, lpObj->Name, iAddBonusValue, lpObj->Level, this->GetGensInfluenceName(lpObj), lpTargetObj->Level, this->GetGensInfluenceName(lpTargetObj));

  0150d	8b 45 0c	 mov	 eax, DWORD PTR _lpTargetObj$[ebp]
  01510	50		 push	 eax
  01511	8b 4d f8	 mov	 ecx, DWORD PTR _this$[ebp]
  01514	e8 00 00 00 00	 call	 ?GetGensInfluenceName@GensSystem@@QAEPADPAUOBJECTSTRUCT@@@Z ; GensSystem::GetGensInfluenceName
  01519	50		 push	 eax
  0151a	8b 4d 0c	 mov	 ecx, DWORD PTR _lpTargetObj$[ebp]
  0151d	0f bf 91 be 00
	00 00		 movsx	 edx, WORD PTR [ecx+190]
  01524	52		 push	 edx
  01525	8b 45 08	 mov	 eax, DWORD PTR _lpObj$[ebp]
  01528	50		 push	 eax
  01529	8b 4d f8	 mov	 ecx, DWORD PTR _this$[ebp]
  0152c	e8 00 00 00 00	 call	 ?GetGensInfluenceName@GensSystem@@QAEPADPAUOBJECTSTRUCT@@@Z ; GensSystem::GetGensInfluenceName
  01531	50		 push	 eax
  01532	8b 4d 08	 mov	 ecx, DWORD PTR _lpObj$[ebp]
  01535	0f bf 91 be 00
	00 00		 movsx	 edx, WORD PTR [ecx+190]
  0153c	52		 push	 edx
  0153d	8b 45 d8	 mov	 eax, DWORD PTR _iAddBonusValue$[ebp]
  01540	50		 push	 eax
  01541	8b 4d 08	 mov	 ecx, DWORD PTR _lpObj$[ebp]
  01544	83 c1 77	 add	 ecx, 119		; 00000077H
  01547	51		 push	 ecx
  01548	8b 55 08	 mov	 edx, DWORD PTR _lpObj$[ebp]
  0154b	83 c2 6c	 add	 edx, 108		; 0000006cH
  0154e	52		 push	 edx
  0154f	68 00 00 00 00	 push	 OFFSET ??_C@_0FP@LFMBBFAD@?$FLGensSystem?$FN?5?$FL?$CFs?$FN?$FL?$CFs?$FN?5Add?5BonusC@
  01554	ff 15 00 00 00
	00		 call	 DWORD PTR ?LogAddTD@@3P6AXPADZZA ; LogAddTD
  0155a	83 c4 20	 add	 esp, 32			; 00000020H
$LN42@CalcContri:

; 1032 : 							}
; 1033 : 						}
; 1034 : 				 }
; 1035 : 		 	}
; 1036 : 	 	}
; 1037 : 			else

  0155d	eb 1e		 jmp	 SHORT $LN46@CalcContri
$LN43@CalcContri:

; 1038 : 			{
; 1039 : 				LogAddTD("[GensSystem] - Error NONE_INFLUENCE - %s Line: %d", __FILE__, __LINE__);

  0155f	a1 00 00 00 00	 mov	 eax, DWORD PTR ?__LINE__Var@?1??CalcContributePoint@GensSystem@@QAEXPAUOBJECTSTRUCT@@0@Z@4JA
  01564	05 c6 00 00 00	 add	 eax, 198		; 000000c6H
  01569	50		 push	 eax
  0156a	68 00 00 00 00	 push	 OFFSET ??_C@_0EC@HBCPMHBL@d?3?2projects?2exteam6?43?2source?2gam@
  0156f	68 00 00 00 00	 push	 OFFSET ??_C@_0DC@DDPABKFB@?$FLGensSystem?$FN?5?9?5Error?5NONE_INFLUE@
  01574	ff 15 00 00 00
	00		 call	 DWORD PTR ?LogAddTD@@3P6AXPADZZA ; LogAddTD
  0157a	83 c4 0c	 add	 esp, 12			; 0000000cH
$LN46@CalcContri:

; 1040 : 			}
; 1041 : 	 }
; 1042 : 	}
; 1043 : }

  0157d	5f		 pop	 edi
  0157e	5e		 pop	 esi
  0157f	5b		 pop	 ebx
  01580	8b 4d fc	 mov	 ecx, DWORD PTR __$ArrayPad$[ebp]
  01583	33 cd		 xor	 ecx, ebp
  01585	e8 00 00 00 00	 call	 @__security_check_cookie@4
  0158a	8b e5		 mov	 esp, ebp
  0158c	5d		 pop	 ebp
  0158d	c2 08 00	 ret	 8
?CalcContributePoint@GensSystem@@QAEXPAUOBJECTSTRUCT@@0@Z ENDP ; GensSystem::CalcContributePoint
_TEXT	ENDS
PUBLIC	?AbusingPenalty@GensSystem@@QAEHPAUOBJECTSTRUCT@@H@Z ; GensSystem::AbusingPenalty
PUBLIC	?InsertKillUserName@GensSystem@@QAEHPAUOBJECTSTRUCT@@PAD@Z ; GensSystem::InsertKillUserName
EXTRN	_strcmp:PROC
; Function compile flags: /Odtp /ZI
_TEXT	SEGMENT
_i$ = -8						; size = 4
_this$ = -4						; size = 4
_lpObj$ = 8						; size = 4
_szCharName$ = 12					; size = 4
?ChkKillUserName@GensSystem@@QAEHPAUOBJECTSTRUCT@@PAD@Z PROC ; GensSystem::ChkKillUserName
; _this$ = ecx

; 1051 : {

  01590	55		 push	 ebp
  01591	8b ec		 mov	 ebp, esp
  01593	83 ec 48	 sub	 esp, 72			; 00000048H
  01596	53		 push	 ebx
  01597	56		 push	 esi
  01598	57		 push	 edi
  01599	89 4d fc	 mov	 DWORD PTR _this$[ebp], ecx

; 1052 : 	int i = 0;

  0159c	c7 45 f8 00 00
	00 00		 mov	 DWORD PTR _i$[ebp], 0
$LN5@ChkKillUse:

; 1053 : 
; 1054 : 	while (true)

  015a3	b8 01 00 00 00	 mov	 eax, 1
  015a8	85 c0		 test	 eax, eax
  015aa	74 65		 je	 SHORT $LN4@ChkKillUse

; 1055 : 	{
; 1056 : 		if (i >= 10)

  015ac	83 7d f8 0a	 cmp	 DWORD PTR _i$[ebp], 10	; 0000000aH
  015b0	7c 2a		 jl	 SHORT $LN3@ChkKillUse

; 1057 : 		{
; 1058 : 			EnterCriticalSection((LPCRITICAL_SECTION)&criti);

  015b2	68 00 00 00 00	 push	 OFFSET ?criti@@3U_RTL_CRITICAL_SECTION@@A ; criti
  015b7	ff 15 00 00 00
	00		 call	 DWORD PTR __imp__EnterCriticalSection@4

; 1059 : 			this->InsertKillUserName(lpObj, szCharName);

  015bd	8b 45 0c	 mov	 eax, DWORD PTR _szCharName$[ebp]
  015c0	50		 push	 eax
  015c1	8b 4d 08	 mov	 ecx, DWORD PTR _lpObj$[ebp]
  015c4	51		 push	 ecx
  015c5	8b 4d fc	 mov	 ecx, DWORD PTR _this$[ebp]
  015c8	e8 00 00 00 00	 call	 ?InsertKillUserName@GensSystem@@QAEHPAUOBJECTSTRUCT@@PAD@Z ; GensSystem::InsertKillUserName

; 1060 : 			LeaveCriticalSection((LPCRITICAL_SECTION)&criti);

  015cd	68 00 00 00 00	 push	 OFFSET ?criti@@3U_RTL_CRITICAL_SECTION@@A ; criti
  015d2	ff 15 00 00 00
	00		 call	 DWORD PTR __imp__LeaveCriticalSection@4

; 1061 : 			return 0;

  015d8	33 c0		 xor	 eax, eax
  015da	eb 7d		 jmp	 SHORT $LN6@ChkKillUse
$LN3@ChkKillUse:

; 1062 : 		}
; 1063 : 
; 1064 : 		if (!strcmp(gObj[lpObj->m_Index].m_szCharName, szCharName))

  015dc	8b 45 0c	 mov	 eax, DWORD PTR _szCharName$[ebp]
  015df	50		 push	 eax
  015e0	8b 4d 08	 mov	 ecx, DWORD PTR _lpObj$[ebp]
  015e3	8b 11		 mov	 edx, DWORD PTR [ecx]
  015e5	69 d2 38 2b 00
	00		 imul	 edx, 11064		; 00002b38H
  015eb	a1 00 00 00 00	 mov	 eax, DWORD PTR ?gObj@@3PAUOBJECTSTRUCT@@A ; gObj
  015f0	8d 8c 10 c8 22
	00 00		 lea	 ecx, DWORD PTR [eax+edx+8904]
  015f7	51		 push	 ecx
  015f8	e8 00 00 00 00	 call	 _strcmp
  015fd	83 c4 08	 add	 esp, 8
  01600	85 c0		 test	 eax, eax
  01602	75 02		 jne	 SHORT $LN2@ChkKillUse

; 1065 : 	 	break;

  01604	eb 0b		 jmp	 SHORT $LN4@ChkKillUse
$LN2@ChkKillUse:

; 1066 : 	
; 1067 : 		i++;

  01606	8b 45 f8	 mov	 eax, DWORD PTR _i$[ebp]
  01609	83 c0 01	 add	 eax, 1
  0160c	89 45 f8	 mov	 DWORD PTR _i$[ebp], eax

; 1068 : 	}

  0160f	eb 92		 jmp	 SHORT $LN5@ChkKillUse
$LN4@ChkKillUse:

; 1069 : 	
; 1070 : 	EnterCriticalSection((LPCRITICAL_SECTION)&criti);

  01611	68 00 00 00 00	 push	 OFFSET ?criti@@3U_RTL_CRITICAL_SECTION@@A ; criti
  01616	ff 15 00 00 00
	00		 call	 DWORD PTR __imp__EnterCriticalSection@4

; 1071 : 	++lpObj->m_KillUserCnt;

  0161c	8b 45 08	 mov	 eax, DWORD PTR _lpObj$[ebp]
  0161f	8b 88 e0 22 00
	00		 mov	 ecx, DWORD PTR [eax+8928]
  01625	83 c1 01	 add	 ecx, 1
  01628	8b 55 08	 mov	 edx, DWORD PTR _lpObj$[ebp]
  0162b	89 8a e0 22 00
	00		 mov	 DWORD PTR [edx+8928], ecx

; 1072 : 	LeaveCriticalSection((LPCRITICAL_SECTION)&criti);

  01631	68 00 00 00 00	 push	 OFFSET ?criti@@3U_RTL_CRITICAL_SECTION@@A ; criti
  01636	ff 15 00 00 00
	00		 call	 DWORD PTR __imp__LeaveCriticalSection@4

; 1073 : 
; 1074 : 	if (this->AbusingPenalty(lpObj, i))

  0163c	8b 45 f8	 mov	 eax, DWORD PTR _i$[ebp]
  0163f	50		 push	 eax
  01640	8b 4d 08	 mov	 ecx, DWORD PTR _lpObj$[ebp]
  01643	51		 push	 ecx
  01644	8b 4d fc	 mov	 ecx, DWORD PTR _this$[ebp]
  01647	e8 00 00 00 00	 call	 ?AbusingPenalty@GensSystem@@QAEHPAUOBJECTSTRUCT@@H@Z ; GensSystem::AbusingPenalty
  0164c	85 c0		 test	 eax, eax
  0164e	74 07		 je	 SHORT $LN1@ChkKillUse

; 1075 : 		return true;

  01650	b8 01 00 00 00	 mov	 eax, 1
  01655	eb 02		 jmp	 SHORT $LN6@ChkKillUse
$LN1@ChkKillUse:

; 1076 : 
; 1077 : 	return false;

  01657	33 c0		 xor	 eax, eax
$LN6@ChkKillUse:

; 1078 : }

  01659	5f		 pop	 edi
  0165a	5e		 pop	 esi
  0165b	5b		 pop	 ebx
  0165c	8b e5		 mov	 esp, ebp
  0165e	5d		 pop	 ebp
  0165f	c2 08 00	 ret	 8
?ChkKillUserName@GensSystem@@QAEHPAUOBJECTSTRUCT@@PAD@Z ENDP ; GensSystem::ChkKillUserName
_TEXT	ENDS
EXTRN	?Get@CMsg@@QAEPADH@Z:PROC			; CMsg::Get
EXTRN	?lMsg@@3VCMsg@@A:BYTE				; lMsg
; Function compile flags: /Odtp /ZI
_TEXT	SEGMENT
_bDBSave$ = -12						; size = 4
_iKillUserCnt$ = -8					; size = 4
_this$ = -4						; size = 4
_lpObj$ = 8						; size = 4
_iKillUserIndex$ = 12					; size = 4
?AbusingPenalty@GensSystem@@QAEHPAUOBJECTSTRUCT@@H@Z PROC ; GensSystem::AbusingPenalty
; _this$ = ecx

; 1086 : {

  01670	55		 push	 ebp
  01671	8b ec		 mov	 ebp, esp
  01673	83 ec 4c	 sub	 esp, 76			; 0000004cH
  01676	53		 push	 ebx
  01677	56		 push	 esi
  01678	57		 push	 edi
  01679	89 4d fc	 mov	 DWORD PTR _this$[ebp], ecx

; 1087 : 	int iKillUserCnt = lpObj->m_KillUserCnt;

  0167c	8b 45 08	 mov	 eax, DWORD PTR _lpObj$[ebp]
  0167f	8b 88 e0 22 00
	00		 mov	 ecx, DWORD PTR [eax+8928]
  01685	89 4d f8	 mov	 DWORD PTR _iKillUserCnt$[ebp], ecx

; 1088 : 
; 1089 : 	int bDBSave = 0;

  01688	c7 45 f4 00 00
	00 00		 mov	 DWORD PTR _bDBSave$[ebp], 0

; 1090 : 
; 1091 : 	if (lpObj->m_ContributePoint > 0)

  0168f	8b 45 08	 mov	 eax, DWORD PTR _lpObj$[ebp]
  01692	83 b8 ec 22 00
	00 00		 cmp	 DWORD PTR [eax+8940], 0
  01699	7e 07		 jle	 SHORT $LN8@AbusingPen

; 1092 : 	{
; 1093 : 		bDBSave = 1;

  0169b	c7 45 f4 01 00
	00 00		 mov	 DWORD PTR _bDBSave$[ebp], 1
$LN8@AbusingPen:

; 1094 : 	}
; 1095 : 
; 1096 : 	if (iKillUserCnt >= 3)

  016a2	83 7d f8 03	 cmp	 DWORD PTR _iKillUserCnt$[ebp], 3
  016a6	0f 8c a7 00 00
	00		 jl	 $LN7@AbusingPen

; 1097 : 	{
; 1098 : 		if (iKillUserCnt < 3 || iKillUserCnt > 5)

  016ac	83 7d f8 03	 cmp	 DWORD PTR _iKillUserCnt$[ebp], 3
  016b0	7c 06		 jl	 SHORT $LN5@AbusingPen
  016b2	83 7d f8 05	 cmp	 DWORD PTR _iKillUserCnt$[ebp], 5
  016b6	7e 77		 jle	 SHORT $LN6@AbusingPen
$LN5@AbusingPen:

; 1099 : 		{
; 1100 : 			if (iKillUserCnt >= 6)

  016b8	83 7d f8 06	 cmp	 DWORD PTR _iKillUserCnt$[ebp], 6
  016bc	7c 20		 jl	 SHORT $LN4@AbusingPen

; 1101 : 			{
; 1102 : 				GCServerMsgStringSend(lMsg.Get(3450), lpObj->m_Index, 1);

  016be	6a 01		 push	 1
  016c0	8b 45 08	 mov	 eax, DWORD PTR _lpObj$[ebp]
  016c3	8b 08		 mov	 ecx, DWORD PTR [eax]
  016c5	51		 push	 ecx
  016c6	68 7a 0d 00 00	 push	 3450			; 00000d7aH
  016cb	b9 00 00 00 00	 mov	 ecx, OFFSET ?lMsg@@3VCMsg@@A ; lMsg
  016d0	e8 00 00 00 00	 call	 ?Get@CMsg@@QAEPADH@Z	; CMsg::Get
  016d5	50		 push	 eax
  016d6	e8 00 00 00 00	 call	 ?GCServerMsgStringSend@@YAXPADHE@Z ; GCServerMsgStringSend
  016db	83 c4 0c	 add	 esp, 12			; 0000000cH
$LN4@AbusingPen:

; 1103 : 			}
; 1104 : 
; 1105 : 			EnterCriticalSection((LPCRITICAL_SECTION)&criti);

  016de	68 00 00 00 00	 push	 OFFSET ?criti@@3U_RTL_CRITICAL_SECTION@@A ; criti
  016e3	ff 15 00 00 00
	00		 call	 DWORD PTR __imp__EnterCriticalSection@4

; 1106 : 		
; 1107 : 			if (lpObj->m_KillUserCnt < 0)

  016e9	8b 45 08	 mov	 eax, DWORD PTR _lpObj$[ebp]
  016ec	83 b8 e0 22 00
	00 00		 cmp	 DWORD PTR [eax+8928], 0
  016f3	7d 0d		 jge	 SHORT $LN3@AbusingPen

; 1108 : 			{
; 1109 : 				lpObj->m_KillUserCnt = 0;

  016f5	8b 45 08	 mov	 eax, DWORD PTR _lpObj$[ebp]
  016f8	c7 80 e0 22 00
	00 00 00 00 00	 mov	 DWORD PTR [eax+8928], 0
$LN3@AbusingPen:

; 1110 : 			}
; 1111 : 		
; 1112 : 			LeaveCriticalSection((LPCRITICAL_SECTION)&criti);

  01702	68 00 00 00 00	 push	 OFFSET ?criti@@3U_RTL_CRITICAL_SECTION@@A ; criti
  01707	ff 15 00 00 00
	00		 call	 DWORD PTR __imp__LeaveCriticalSection@4

; 1113 : 
; 1114 : 			if (bDBSave)

  0170d	83 7d f4 00	 cmp	 DWORD PTR _bDBSave$[ebp], 0
  01711	74 13		 je	 SHORT $LN2@AbusingPen

; 1115 : 			{
; 1116 : 				this->GDReqSaveContributePoint(lpObj);	return true;

  01713	8b 45 08	 mov	 eax, DWORD PTR _lpObj$[ebp]
  01716	50		 push	 eax
  01717	8b 4d fc	 mov	 ecx, DWORD PTR _this$[ebp]
  0171a	e8 00 00 00 00	 call	 ?GDReqSaveContributePoint@GensSystem@@QAEHPAUOBJECTSTRUCT@@@Z ; GensSystem::GDReqSaveContributePoint
  0171f	b8 01 00 00 00	 mov	 eax, 1
  01724	eb 2f		 jmp	 SHORT $LN9@AbusingPen
$LN2@AbusingPen:

; 1117 : 			}
; 1118 : 			return true;

  01726	b8 01 00 00 00	 mov	 eax, 1
  0172b	eb 28		 jmp	 SHORT $LN9@AbusingPen

; 1119 : 		}
; 1120 : 		else

  0172d	eb 24		 jmp	 SHORT $LN7@AbusingPen
$LN6@AbusingPen:

; 1121 : 		{
; 1122 : 			GCServerMsgStringSend(lMsg.Get(3449), lpObj->m_Index, 1);

  0172f	6a 01		 push	 1
  01731	8b 45 08	 mov	 eax, DWORD PTR _lpObj$[ebp]
  01734	8b 08		 mov	 ecx, DWORD PTR [eax]
  01736	51		 push	 ecx
  01737	68 79 0d 00 00	 push	 3449			; 00000d79H
  0173c	b9 00 00 00 00	 mov	 ecx, OFFSET ?lMsg@@3VCMsg@@A ; lMsg
  01741	e8 00 00 00 00	 call	 ?Get@CMsg@@QAEPADH@Z	; CMsg::Get
  01746	50		 push	 eax
  01747	e8 00 00 00 00	 call	 ?GCServerMsgStringSend@@YAXPADHE@Z ; GCServerMsgStringSend
  0174c	83 c4 0c	 add	 esp, 12			; 0000000cH

; 1123 : 			return false;

  0174f	33 c0		 xor	 eax, eax
  01751	eb 02		 jmp	 SHORT $LN9@AbusingPen
$LN7@AbusingPen:

; 1124 : 		}
; 1125 : 	}
; 1126 : 	return false;

  01753	33 c0		 xor	 eax, eax
$LN9@AbusingPen:

; 1127 : }

  01755	5f		 pop	 edi
  01756	5e		 pop	 esi
  01757	5b		 pop	 ebx
  01758	8b e5		 mov	 esp, ebp
  0175a	5d		 pop	 ebp
  0175b	c2 08 00	 ret	 8
?AbusingPenalty@GensSystem@@QAEHPAUOBJECTSTRUCT@@H@Z ENDP ; GensSystem::AbusingPenalty
_TEXT	ENDS
PUBLIC	??_C@_0DM@FPCBOICI@?$FLGensSystem?$FN?5Abusing?5List?5?$FL?$CFs?$FN?$FL?$CF@ ; `string'
EXTRN	_strcpy:PROC
;	COMDAT ??_C@_0DM@FPCBOICI@?$FLGensSystem?$FN?5Abusing?5List?5?$FL?$CFs?$FN?$FL?$CF@
CONST	SEGMENT
??_C@_0DM@FPCBOICI@?$FLGensSystem?$FN?5Abusing?5List?5?$FL?$CFs?$FN?$FL?$CF@ DB '['
	DB	'GensSystem] Abusing List [%s][%s] KillUserName[%s] Cnt[%d]', 00H ; `string'
; Function compile flags: /Odtp /ZI
CONST	ENDS
_TEXT	SEGMENT
_i$229439 = -12						; size = 4
_iKillUserToCnt$ = -8					; size = 4
_this$ = -4						; size = 4
_lpObj$ = 8						; size = 4
_szCharName$ = 12					; size = 4
?InsertKillUserName@GensSystem@@QAEHPAUOBJECTSTRUCT@@PAD@Z PROC ; GensSystem::InsertKillUserName
; _this$ = ecx

; 1135 : {

  01760	55		 push	 ebp
  01761	8b ec		 mov	 ebp, esp
  01763	83 ec 4c	 sub	 esp, 76			; 0000004cH
  01766	53		 push	 ebx
  01767	56		 push	 esi
  01768	57		 push	 edi
  01769	89 4d fc	 mov	 DWORD PTR _this$[ebp], ecx

; 1136 : 	int iKillUserToCnt = lpObj->m_KillUserTotCnt;

  0176c	8b 45 08	 mov	 eax, DWORD PTR _lpObj$[ebp]
  0176f	8b 88 e4 22 00
	00		 mov	 ecx, DWORD PTR [eax+8932]
  01775	89 4d f8	 mov	 DWORD PTR _iKillUserToCnt$[ebp], ecx

; 1137 : 
; 1138 : 	if (iKillUserToCnt >= 10)

  01778	83 7d f8 0a	 cmp	 DWORD PTR _iKillUserToCnt$[ebp], 10 ; 0000000aH
  0177c	7c 14		 jl	 SHORT $LN4@InsertKill

; 1139 : 	{
; 1140 : 		lpObj->m_KillUserTotCnt = 0; iKillUserToCnt = 0; 

  0177e	8b 45 08	 mov	 eax, DWORD PTR _lpObj$[ebp]
  01781	c7 80 e4 22 00
	00 00 00 00 00	 mov	 DWORD PTR [eax+8932], 0
  0178b	c7 45 f8 00 00
	00 00		 mov	 DWORD PTR _iKillUserToCnt$[ebp], 0
$LN4@InsertKill:

; 1141 : 	}
; 1142 : 
; 1143 : 	memset(lpObj->m_szCharName, 0, 0x0B);

  01792	6a 0b		 push	 11			; 0000000bH
  01794	6a 00		 push	 0
  01796	8b 45 08	 mov	 eax, DWORD PTR _lpObj$[ebp]
  01799	05 c8 22 00 00	 add	 eax, 8904		; 000022c8H
  0179e	50		 push	 eax
  0179f	e8 00 00 00 00	 call	 _memset
  017a4	83 c4 0c	 add	 esp, 12			; 0000000cH

; 1144 : 	strcpy(lpObj->m_szCharName, szCharName);

  017a7	8b 45 0c	 mov	 eax, DWORD PTR _szCharName$[ebp]
  017aa	50		 push	 eax
  017ab	8b 4d 08	 mov	 ecx, DWORD PTR _lpObj$[ebp]
  017ae	81 c1 c8 22 00
	00		 add	 ecx, 8904		; 000022c8H
  017b4	51		 push	 ecx
  017b5	e8 00 00 00 00	 call	 _strcpy
  017ba	83 c4 08	 add	 esp, 8

; 1145 : 
; 1146 : 	++lpObj->m_KillUserCnt;

  017bd	8b 45 08	 mov	 eax, DWORD PTR _lpObj$[ebp]
  017c0	8b 88 e0 22 00
	00		 mov	 ecx, DWORD PTR [eax+8928]
  017c6	83 c1 01	 add	 ecx, 1
  017c9	8b 55 08	 mov	 edx, DWORD PTR _lpObj$[ebp]
  017cc	89 8a e0 22 00
	00		 mov	 DWORD PTR [edx+8928], ecx

; 1147 : 	++lpObj->m_KillUserTotCnt;

  017d2	8b 45 08	 mov	 eax, DWORD PTR _lpObj$[ebp]
  017d5	8b 88 e4 22 00
	00		 mov	 ecx, DWORD PTR [eax+8932]
  017db	83 c1 01	 add	 ecx, 1
  017de	8b 55 08	 mov	 edx, DWORD PTR _lpObj$[ebp]
  017e1	89 8a e4 22 00
	00		 mov	 DWORD PTR [edx+8932], ecx

; 1148 : 
; 1149 : 	for (int i = 0; i < lpObj->m_KillUserTotCnt; ++i)

  017e7	c7 45 f4 00 00
	00 00		 mov	 DWORD PTR _i$229439[ebp], 0
  017ee	eb 09		 jmp	 SHORT $LN3@InsertKill
$LN2@InsertKill:
  017f0	8b 45 f4	 mov	 eax, DWORD PTR _i$229439[ebp]
  017f3	83 c0 01	 add	 eax, 1
  017f6	89 45 f4	 mov	 DWORD PTR _i$229439[ebp], eax
$LN3@InsertKill:
  017f9	8b 45 08	 mov	 eax, DWORD PTR _lpObj$[ebp]
  017fc	8b 4d f4	 mov	 ecx, DWORD PTR _i$229439[ebp]
  017ff	3b 88 e4 22 00
	00		 cmp	 ecx, DWORD PTR [eax+8932]
  01805	7d 3b		 jge	 SHORT $LN1@InsertKill

; 1150 : 	{
; 1151 : 		LogAddTD("[GensSystem] Abusing List [%s][%s] KillUserName[%s] Cnt[%d]", lpObj->AccountID, lpObj->Name, lpObj->m_szCharName, lpObj->m_KillUserCnt);

  01807	8b 45 08	 mov	 eax, DWORD PTR _lpObj$[ebp]
  0180a	8b 88 e0 22 00
	00		 mov	 ecx, DWORD PTR [eax+8928]
  01810	51		 push	 ecx
  01811	8b 55 08	 mov	 edx, DWORD PTR _lpObj$[ebp]
  01814	81 c2 c8 22 00
	00		 add	 edx, 8904		; 000022c8H
  0181a	52		 push	 edx
  0181b	8b 45 08	 mov	 eax, DWORD PTR _lpObj$[ebp]
  0181e	83 c0 77	 add	 eax, 119		; 00000077H
  01821	50		 push	 eax
  01822	8b 4d 08	 mov	 ecx, DWORD PTR _lpObj$[ebp]
  01825	83 c1 6c	 add	 ecx, 108		; 0000006cH
  01828	51		 push	 ecx
  01829	68 00 00 00 00	 push	 OFFSET ??_C@_0DM@FPCBOICI@?$FLGensSystem?$FN?5Abusing?5List?5?$FL?$CFs?$FN?$FL?$CF@
  0182e	ff 15 00 00 00
	00		 call	 DWORD PTR ?LogAddTD@@3P6AXPADZZA ; LogAddTD
  01834	83 c4 14	 add	 esp, 20			; 00000014H

; 1152 : 		iKillUserToCnt = i + 1;

  01837	8b 45 f4	 mov	 eax, DWORD PTR _i$229439[ebp]
  0183a	83 c0 01	 add	 eax, 1
  0183d	89 45 f8	 mov	 DWORD PTR _iKillUserToCnt$[ebp], eax

; 1153 : 	}

  01840	eb ae		 jmp	 SHORT $LN2@InsertKill
$LN1@InsertKill:

; 1154 : 	return iKillUserToCnt;

  01842	8b 45 f8	 mov	 eax, DWORD PTR _iKillUserToCnt$[ebp]

; 1155 : }

  01845	5f		 pop	 edi
  01846	5e		 pop	 esi
  01847	5b		 pop	 ebx
  01848	8b e5		 mov	 esp, ebp
  0184a	5d		 pop	 ebp
  0184b	c2 08 00	 ret	 8
?InsertKillUserName@GensSystem@@QAEHPAUOBJECTSTRUCT@@PAD@Z ENDP ; GensSystem::InsertKillUserName
_TEXT	ENDS
PUBLIC	?MoveInBattleZonePartySplit@GensSystem@@QAEXPAUOBJECTSTRUCT@@@Z ; GensSystem::MoveInBattleZonePartySplit
EXTRN	?GCResultSend@@YAXHEE@Z:PROC			; GCResultSend
EXTRN	?GetIndex@PartyClass@@QAEHHHH@Z:PROC		; PartyClass::GetIndex
EXTRN	?gParty@@3VPartyClass@@A:BYTE			; gParty
; Function compile flags: /Odtp /ZI
_TEXT	SEGMENT
_pindex$229450 = -12					; size = 4
_pMsg$ = -8						; size = 4
_this$ = -4						; size = 4
_lpObj$ = 8						; size = 4
?MoveInBattleZonePartySplit@GensSystem@@QAEXPAUOBJECTSTRUCT@@@Z PROC ; GensSystem::MoveInBattleZonePartySplit
; _this$ = ecx

; 1163 : {

  01850	55		 push	 ebp
  01851	8b ec		 mov	 ebp, esp
  01853	83 ec 4c	 sub	 esp, 76			; 0000004cH
  01856	53		 push	 ebx
  01857	56		 push	 esi
  01858	57		 push	 edi
  01859	89 4d fc	 mov	 DWORD PTR _this$[ebp], ecx

; 1164 : 	PMSG_PARTYDELUSER pMsg;	
; 1165 : 
; 1166 : 	if (/*gPkLimitFree != TRUE &&*/ lpObj->PartyNumber >= 0)

  0185c	8b 45 08	 mov	 eax, DWORD PTR _lpObj$[ebp]
  0185f	83 b8 2c 04 00
	00 00		 cmp	 DWORD PTR [eax+1068], 0
  01866	7c 42		 jl	 SHORT $LN3@MoveInBatt

; 1167 : 	{
; 1168 : 		int pindex = gParty.GetIndex(lpObj->PartyNumber, lpObj->m_Index, lpObj->DBNumber);

  01868	8b 45 08	 mov	 eax, DWORD PTR _lpObj$[ebp]
  0186b	8b 48 2c	 mov	 ecx, DWORD PTR [eax+44]
  0186e	51		 push	 ecx
  0186f	8b 55 08	 mov	 edx, DWORD PTR _lpObj$[ebp]
  01872	8b 02		 mov	 eax, DWORD PTR [edx]
  01874	50		 push	 eax
  01875	8b 4d 08	 mov	 ecx, DWORD PTR _lpObj$[ebp]
  01878	8b 91 2c 04 00
	00		 mov	 edx, DWORD PTR [ecx+1068]
  0187e	52		 push	 edx
  0187f	b9 00 00 00 00	 mov	 ecx, OFFSET ?gParty@@3VPartyClass@@A ; gParty
  01884	e8 00 00 00 00	 call	 ?GetIndex@PartyClass@@QAEHHHH@Z ; PartyClass::GetIndex
  01889	89 45 f4	 mov	 DWORD PTR _pindex$229450[ebp], eax

; 1169 : 
; 1170 : 		if (pindex >= 0)

  0188c	83 7d f4 00	 cmp	 DWORD PTR _pindex$229450[ebp], 0
  01890	7c 18		 jl	 SHORT $LN3@MoveInBatt

; 1171 : 		{
; 1172 : 			pMsg.Number = pindex;

  01892	8a 45 f4	 mov	 al, BYTE PTR _pindex$229450[ebp]
  01895	88 45 fb	 mov	 BYTE PTR _pMsg$[ebp+3], al

; 1173 : 			//CGPartyDelUser(&pMsg, lpObj->m_Index);	//hz
; 1174 : 			GCResultSend(lpObj->m_Index, 0x41, 0x7);

  01898	6a 07		 push	 7
  0189a	6a 41		 push	 65			; 00000041H
  0189c	8b 45 08	 mov	 eax, DWORD PTR _lpObj$[ebp]
  0189f	8b 08		 mov	 ecx, DWORD PTR [eax]
  018a1	51		 push	 ecx
  018a2	e8 00 00 00 00	 call	 ?GCResultSend@@YAXHEE@Z	; GCResultSend
  018a7	83 c4 0c	 add	 esp, 12			; 0000000cH
$LN3@MoveInBatt:

; 1175 : 		}
; 1176 : 	}
; 1177 : }

  018aa	5f		 pop	 edi
  018ab	5e		 pop	 esi
  018ac	5b		 pop	 ebx
  018ad	8b e5		 mov	 esp, ebp
  018af	5d		 pop	 ebp
  018b0	c2 04 00	 ret	 4
?MoveInBattleZonePartySplit@GensSystem@@QAEXPAUOBJECTSTRUCT@@@Z ENDP ; GensSystem::MoveInBattleZonePartySplit
_TEXT	ENDS
PUBLIC	?AbusingInfoReset@GensSystem@@QAEXPAUOBJECTSTRUCT@@@Z ; GensSystem::AbusingInfoReset
; Function compile flags: /Odtp /ZI
_TEXT	SEGMENT
_this$ = -4						; size = 4
_lpObj$ = 8						; size = 4
?AbusingInfoReset@GensSystem@@QAEXPAUOBJECTSTRUCT@@@Z PROC ; GensSystem::AbusingInfoReset
; _this$ = ecx

; 1185 : {

  018c0	55		 push	 ebp
  018c1	8b ec		 mov	 ebp, esp
  018c3	83 ec 44	 sub	 esp, 68			; 00000044H
  018c6	53		 push	 ebx
  018c7	56		 push	 esi
  018c8	57		 push	 edi
  018c9	89 4d fc	 mov	 DWORD PTR _this$[ebp], ecx

; 1186 : 	/*if (!OBJMAX_RANGE(lpObj->m_Index))
; 1187 : 		return;
; 1188 : 
; 1189 : 	if (!gObjIsConnected(lpObj->m_Index))
; 1190 : 	{
; 1191 : 		if (this->IsRegGensInfluence(lpObj))
; 1192 : 		{
; 1193 : 			if (g_GensAbusingResetTime > 0 && GetTickCount() - lpObj->m_GensAbusingTick >= 60000 * g_GensAbusingResetTime)
; 1194 : 			{
; 1195 : 				EnterCriticalSection((LPCRITICAL_SECTION)&criti);
; 1196 : 
; 1197 : 				lpObj->m_GensAbusingTick = GetTickCount();
; 1198 : 
; 1199 : 				for (int i = 0; i < 10; ++i)
; 1200 : 				{
; 1201 : 					lpObj->m_KillUserCnt = 0;
; 1202 : 					memset(lpObj->m_szCharName, 0, 0x0B);
; 1203 : 				}
; 1204 : 
; 1205 : 				lpObj->m_KillUserTotCnt = 0;
; 1206 : 
; 1207 : 				LeaveCriticalSection((LPCRITICAL_SECTION)&criti);
; 1208 : 			}
; 1209 : 		}
; 1210 : 		else
; 1211 : 		{
; 1212 : 			lpObj->m_GensAbusingTick = GetTickCount();
; 1213 : 		}
; 1214 : 	}*/
; 1215 : }

  018cc	5f		 pop	 edi
  018cd	5e		 pop	 esi
  018ce	5b		 pop	 ebx
  018cf	8b e5		 mov	 esp, ebp
  018d1	5d		 pop	 ebp
  018d2	c2 04 00	 ret	 4
?AbusingInfoReset@GensSystem@@QAEXPAUOBJECTSTRUCT@@@Z ENDP ; GensSystem::AbusingInfoReset
_TEXT	ENDS
PUBLIC	?CalGensClass@GensSystem@@QAEXPAUOBJECTSTRUCT@@@Z ; GensSystem::CalGensClass
; Function compile flags: /Odtp /ZI
_TEXT	SEGMENT
_this$ = -4						; size = 4
_lpObj$ = 8						; size = 4
?CalGensClass@GensSystem@@QAEXPAUOBJECTSTRUCT@@@Z PROC	; GensSystem::CalGensClass
; _this$ = ecx

; 1223 : {

  018e0	55		 push	 ebp
  018e1	8b ec		 mov	 ebp, esp
  018e3	83 ec 44	 sub	 esp, 68			; 00000044H
  018e6	53		 push	 ebx
  018e7	56		 push	 esi
  018e8	57		 push	 edi
  018e9	89 4d fc	 mov	 DWORD PTR _this$[ebp], ecx

; 1224 : 	if( lpObj->m_GensRanking > 300 || lpObj->m_GensRanking == 0 )

  018ec	8b 45 08	 mov	 eax, DWORD PTR _lpObj$[ebp]
  018ef	81 b8 f0 22 00
	00 2c 01 00 00	 cmp	 DWORD PTR [eax+8944], 300 ; 0000012cH
  018f9	7f 10		 jg	 SHORT $LN16@CalGensCla
  018fb	8b 45 08	 mov	 eax, DWORD PTR _lpObj$[ebp]
  018fe	83 b8 f0 22 00
	00 00		 cmp	 DWORD PTR [eax+8944], 0
  01905	0f 85 f5 00 00
	00		 jne	 $LN17@CalGensCla
$LN16@CalGensCla:

; 1225 : 	{
; 1226 : 		if( lpObj->m_ContributePoint >= 0 && lpObj->m_ContributePoint <= 499 )

  0190b	8b 45 08	 mov	 eax, DWORD PTR _lpObj$[ebp]
  0190e	83 b8 ec 22 00
	00 00		 cmp	 DWORD PTR [eax+8940], 0
  01915	7c 1c		 jl	 SHORT $LN15@CalGensCla
  01917	8b 45 08	 mov	 eax, DWORD PTR _lpObj$[ebp]
  0191a	81 b8 ec 22 00
	00 f3 01 00 00	 cmp	 DWORD PTR [eax+8940], 499 ; 000001f3H
  01924	7f 0d		 jg	 SHORT $LN15@CalGensCla

; 1227 : 		{
; 1228 : 			lpObj->m_GensClass = 14; //-> Private

  01926	8b 45 08	 mov	 eax, DWORD PTR _lpObj$[ebp]
  01929	c7 80 f4 22 00
	00 0e 00 00 00	 mov	 DWORD PTR [eax+8948], 14 ; 0000000eH
$LN15@CalGensCla:

; 1229 : 		}
; 1230 : 		// ----
; 1231 : 		if( lpObj->m_ContributePoint >= 500 && lpObj->m_ContributePoint <= 1499 )

  01933	8b 45 08	 mov	 eax, DWORD PTR _lpObj$[ebp]
  01936	81 b8 ec 22 00
	00 f4 01 00 00	 cmp	 DWORD PTR [eax+8940], 500 ; 000001f4H
  01940	7c 1c		 jl	 SHORT $LN14@CalGensCla
  01942	8b 45 08	 mov	 eax, DWORD PTR _lpObj$[ebp]
  01945	81 b8 ec 22 00
	00 db 05 00 00	 cmp	 DWORD PTR [eax+8940], 1499 ; 000005dbH
  0194f	7f 0d		 jg	 SHORT $LN14@CalGensCla

; 1232 : 		{
; 1233 : 			lpObj->m_GensClass = 13; //-> Sergeant

  01951	8b 45 08	 mov	 eax, DWORD PTR _lpObj$[ebp]
  01954	c7 80 f4 22 00
	00 0d 00 00 00	 mov	 DWORD PTR [eax+8948], 13 ; 0000000dH
$LN14@CalGensCla:

; 1234 : 		}
; 1235 : 		// ----
; 1236 : 		if( lpObj->m_ContributePoint >= 1500 && lpObj->m_ContributePoint <= 2999 )

  0195e	8b 45 08	 mov	 eax, DWORD PTR _lpObj$[ebp]
  01961	81 b8 ec 22 00
	00 dc 05 00 00	 cmp	 DWORD PTR [eax+8940], 1500 ; 000005dcH
  0196b	7c 1c		 jl	 SHORT $LN13@CalGensCla
  0196d	8b 45 08	 mov	 eax, DWORD PTR _lpObj$[ebp]
  01970	81 b8 ec 22 00
	00 b7 0b 00 00	 cmp	 DWORD PTR [eax+8940], 2999 ; 00000bb7H
  0197a	7f 0d		 jg	 SHORT $LN13@CalGensCla

; 1237 : 		{
; 1238 : 			lpObj->m_GensClass = 12; //-> Lieutenant

  0197c	8b 45 08	 mov	 eax, DWORD PTR _lpObj$[ebp]
  0197f	c7 80 f4 22 00
	00 0c 00 00 00	 mov	 DWORD PTR [eax+8948], 12 ; 0000000cH
$LN13@CalGensCla:

; 1239 : 		}
; 1240 : 		// ----
; 1241 : 		if( lpObj->m_ContributePoint >= 3000 && lpObj->m_ContributePoint <= 5999 )

  01989	8b 45 08	 mov	 eax, DWORD PTR _lpObj$[ebp]
  0198c	81 b8 ec 22 00
	00 b8 0b 00 00	 cmp	 DWORD PTR [eax+8940], 3000 ; 00000bb8H
  01996	7c 1c		 jl	 SHORT $LN12@CalGensCla
  01998	8b 45 08	 mov	 eax, DWORD PTR _lpObj$[ebp]
  0199b	81 b8 ec 22 00
	00 6f 17 00 00	 cmp	 DWORD PTR [eax+8940], 5999 ; 0000176fH
  019a5	7f 0d		 jg	 SHORT $LN12@CalGensCla

; 1242 : 		{
; 1243 : 			lpObj->m_GensClass = 11; //-> Officer

  019a7	8b 45 08	 mov	 eax, DWORD PTR _lpObj$[ebp]
  019aa	c7 80 f4 22 00
	00 0b 00 00 00	 mov	 DWORD PTR [eax+8948], 11 ; 0000000bH
$LN12@CalGensCla:

; 1244 : 		}
; 1245 : 		// ----
; 1246 : 		if( lpObj->m_ContributePoint >= 6000 && lpObj->m_ContributePoint <= 9999 )

  019b4	8b 45 08	 mov	 eax, DWORD PTR _lpObj$[ebp]
  019b7	81 b8 ec 22 00
	00 70 17 00 00	 cmp	 DWORD PTR [eax+8940], 6000 ; 00001770H
  019c1	7c 1c		 jl	 SHORT $LN11@CalGensCla
  019c3	8b 45 08	 mov	 eax, DWORD PTR _lpObj$[ebp]
  019c6	81 b8 ec 22 00
	00 0f 27 00 00	 cmp	 DWORD PTR [eax+8940], 9999 ; 0000270fH
  019d0	7f 0d		 jg	 SHORT $LN11@CalGensCla

; 1247 : 		{
; 1248 : 			lpObj->m_GensClass = 10; //-> Guard Perfect

  019d2	8b 45 08	 mov	 eax, DWORD PTR _lpObj$[ebp]
  019d5	c7 80 f4 22 00
	00 0a 00 00 00	 mov	 DWORD PTR [eax+8948], 10 ; 0000000aH
$LN11@CalGensCla:

; 1249 : 		}
; 1250 : 		// ----
; 1251 : 		if( lpObj->m_ContributePoint >= 10000 )

  019df	8b 45 08	 mov	 eax, DWORD PTR _lpObj$[ebp]
  019e2	81 b8 ec 22 00
	00 10 27 00 00	 cmp	 DWORD PTR [eax+8940], 10000 ; 00002710H
  019ec	7c 0d		 jl	 SHORT $LN10@CalGensCla

; 1252 : 		{
; 1253 : 			lpObj->m_GensClass = 9; //-> Knight

  019ee	8b 45 08	 mov	 eax, DWORD PTR _lpObj$[ebp]
  019f1	c7 80 f4 22 00
	00 09 00 00 00	 mov	 DWORD PTR [eax+8948], 9
$LN10@CalGensCla:

; 1254 : 		}
; 1255 : 	}
; 1256 : 	else

  019fb	e9 25 01 00 00	 jmp	 $LN18@CalGensCla
$LN17@CalGensCla:

; 1257 : 	{
; 1258 : 		if( lpObj->m_GensRanking == 1 )

  01a00	8b 45 08	 mov	 eax, DWORD PTR _lpObj$[ebp]
  01a03	83 b8 f0 22 00
	00 01		 cmp	 DWORD PTR [eax+8944], 1
  01a0a	75 0d		 jne	 SHORT $LN8@CalGensCla

; 1259 : 		{
; 1260 : 			lpObj->m_GensClass = 1; //-> Grand Duke

  01a0c	8b 45 08	 mov	 eax, DWORD PTR _lpObj$[ebp]
  01a0f	c7 80 f4 22 00
	00 01 00 00 00	 mov	 DWORD PTR [eax+8948], 1
$LN8@CalGensCla:

; 1261 : 		}
; 1262 : 		// ----
; 1263 : 		if( lpObj->m_GensRanking >= 2 && lpObj->m_GensRanking <= 5 )

  01a19	8b 45 08	 mov	 eax, DWORD PTR _lpObj$[ebp]
  01a1c	83 b8 f0 22 00
	00 02		 cmp	 DWORD PTR [eax+8944], 2
  01a23	7c 19		 jl	 SHORT $LN7@CalGensCla
  01a25	8b 45 08	 mov	 eax, DWORD PTR _lpObj$[ebp]
  01a28	83 b8 f0 22 00
	00 05		 cmp	 DWORD PTR [eax+8944], 5
  01a2f	7f 0d		 jg	 SHORT $LN7@CalGensCla

; 1264 : 		{
; 1265 : 			lpObj->m_GensClass = 2; //-> Duke

  01a31	8b 45 08	 mov	 eax, DWORD PTR _lpObj$[ebp]
  01a34	c7 80 f4 22 00
	00 02 00 00 00	 mov	 DWORD PTR [eax+8948], 2
$LN7@CalGensCla:

; 1266 : 		}
; 1267 : 		// ----
; 1268 : 		if( lpObj->m_GensRanking >= 6 && lpObj->m_GensRanking <= 10 )

  01a3e	8b 45 08	 mov	 eax, DWORD PTR _lpObj$[ebp]
  01a41	83 b8 f0 22 00
	00 06		 cmp	 DWORD PTR [eax+8944], 6
  01a48	7c 19		 jl	 SHORT $LN6@CalGensCla
  01a4a	8b 45 08	 mov	 eax, DWORD PTR _lpObj$[ebp]
  01a4d	83 b8 f0 22 00
	00 0a		 cmp	 DWORD PTR [eax+8944], 10 ; 0000000aH
  01a54	7f 0d		 jg	 SHORT $LN6@CalGensCla

; 1269 : 		{
; 1270 : 			lpObj->m_GensClass = 3; //-> Marquis

  01a56	8b 45 08	 mov	 eax, DWORD PTR _lpObj$[ebp]
  01a59	c7 80 f4 22 00
	00 03 00 00 00	 mov	 DWORD PTR [eax+8948], 3
$LN6@CalGensCla:

; 1271 : 		}
; 1272 : 		// ----
; 1273 : 		if( lpObj->m_GensRanking >= 11 && lpObj->m_GensRanking <= 30 )

  01a63	8b 45 08	 mov	 eax, DWORD PTR _lpObj$[ebp]
  01a66	83 b8 f0 22 00
	00 0b		 cmp	 DWORD PTR [eax+8944], 11 ; 0000000bH
  01a6d	7c 19		 jl	 SHORT $LN5@CalGensCla
  01a6f	8b 45 08	 mov	 eax, DWORD PTR _lpObj$[ebp]
  01a72	83 b8 f0 22 00
	00 1e		 cmp	 DWORD PTR [eax+8944], 30 ; 0000001eH
  01a79	7f 0d		 jg	 SHORT $LN5@CalGensCla

; 1274 : 		{
; 1275 : 			lpObj->m_GensClass = 4; //-> Count

  01a7b	8b 45 08	 mov	 eax, DWORD PTR _lpObj$[ebp]
  01a7e	c7 80 f4 22 00
	00 04 00 00 00	 mov	 DWORD PTR [eax+8948], 4
$LN5@CalGensCla:

; 1276 : 		}
; 1277 : 		// ----
; 1278 : 		if( lpObj->m_GensRanking >= 31 && lpObj->m_GensRanking <= 50 )

  01a88	8b 45 08	 mov	 eax, DWORD PTR _lpObj$[ebp]
  01a8b	83 b8 f0 22 00
	00 1f		 cmp	 DWORD PTR [eax+8944], 31 ; 0000001fH
  01a92	7c 19		 jl	 SHORT $LN4@CalGensCla
  01a94	8b 45 08	 mov	 eax, DWORD PTR _lpObj$[ebp]
  01a97	83 b8 f0 22 00
	00 32		 cmp	 DWORD PTR [eax+8944], 50 ; 00000032H
  01a9e	7f 0d		 jg	 SHORT $LN4@CalGensCla

; 1279 : 		{
; 1280 : 			lpObj->m_GensClass = 5; //-> Viscount

  01aa0	8b 45 08	 mov	 eax, DWORD PTR _lpObj$[ebp]
  01aa3	c7 80 f4 22 00
	00 05 00 00 00	 mov	 DWORD PTR [eax+8948], 5
$LN4@CalGensCla:

; 1281 : 		}
; 1282 : 		// ----
; 1283 : 		if( lpObj->m_GensRanking >= 51 && lpObj->m_GensRanking <= 100 )

  01aad	8b 45 08	 mov	 eax, DWORD PTR _lpObj$[ebp]
  01ab0	83 b8 f0 22 00
	00 33		 cmp	 DWORD PTR [eax+8944], 51 ; 00000033H
  01ab7	7c 19		 jl	 SHORT $LN3@CalGensCla
  01ab9	8b 45 08	 mov	 eax, DWORD PTR _lpObj$[ebp]
  01abc	83 b8 f0 22 00
	00 64		 cmp	 DWORD PTR [eax+8944], 100 ; 00000064H
  01ac3	7f 0d		 jg	 SHORT $LN3@CalGensCla

; 1284 : 		{
; 1285 : 			lpObj->m_GensClass = 6; //-> Baron

  01ac5	8b 45 08	 mov	 eax, DWORD PTR _lpObj$[ebp]
  01ac8	c7 80 f4 22 00
	00 06 00 00 00	 mov	 DWORD PTR [eax+8948], 6
$LN3@CalGensCla:

; 1286 : 		}
; 1287 : 		// ----
; 1288 : 		if( lpObj->m_GensRanking >= 101 && lpObj->m_GensRanking <= 200 )

  01ad2	8b 45 08	 mov	 eax, DWORD PTR _lpObj$[ebp]
  01ad5	83 b8 f0 22 00
	00 65		 cmp	 DWORD PTR [eax+8944], 101 ; 00000065H
  01adc	7c 1c		 jl	 SHORT $LN2@CalGensCla
  01ade	8b 45 08	 mov	 eax, DWORD PTR _lpObj$[ebp]
  01ae1	81 b8 f0 22 00
	00 c8 00 00 00	 cmp	 DWORD PTR [eax+8944], 200 ; 000000c8H
  01aeb	7f 0d		 jg	 SHORT $LN2@CalGensCla

; 1289 : 		{
; 1290 : 			lpObj->m_GensClass = 7; //-> Knight Commander

  01aed	8b 45 08	 mov	 eax, DWORD PTR _lpObj$[ebp]
  01af0	c7 80 f4 22 00
	00 07 00 00 00	 mov	 DWORD PTR [eax+8948], 7
$LN2@CalGensCla:

; 1291 : 		}
; 1292 : 		// ----
; 1293 : 		if( lpObj->m_GensRanking >= 201 && lpObj->m_GensRanking <= 300 )

  01afa	8b 45 08	 mov	 eax, DWORD PTR _lpObj$[ebp]
  01afd	81 b8 f0 22 00
	00 c9 00 00 00	 cmp	 DWORD PTR [eax+8944], 201 ; 000000c9H
  01b07	7c 1c		 jl	 SHORT $LN18@CalGensCla
  01b09	8b 45 08	 mov	 eax, DWORD PTR _lpObj$[ebp]
  01b0c	81 b8 f0 22 00
	00 2c 01 00 00	 cmp	 DWORD PTR [eax+8944], 300 ; 0000012cH
  01b16	7f 0d		 jg	 SHORT $LN18@CalGensCla

; 1294 : 		{
; 1295 : 			lpObj->m_GensClass = 8; //-> Super Knight

  01b18	8b 45 08	 mov	 eax, DWORD PTR _lpObj$[ebp]
  01b1b	c7 80 f4 22 00
	00 08 00 00 00	 mov	 DWORD PTR [eax+8948], 8
$LN18@CalGensCla:

; 1296 : 		}
; 1297 : 	}
; 1298 : 	/*
; 1299 : 	if (lpObj->m_ContributePoint > 200)
; 1300 : 	{
; 1301 : 		if (lpObj->m_ContributePoint < 224)
; 1302 : 		{
; 1303 : 			if (lpObj->m_ContributePoint < 248)
; 1304 : 			{
; 1305 : 				if (lpObj->m_ContributePoint < 272)
; 1306 : 				{
; 1307 : 					if (lpObj->m_ContributePoint < 296)
; 1308 : 					{
; 1309 : 						if (lpObj->m_ContributePoint < 320)
; 1310 : 						{
; 1311 : 							return 0; // WTF? >< if rank from 297 to 319 your rank is 0???
; 1312 : 						}
; 1313 : 						else 
; 1314 : 						{
; 1315 : 							return 14;
; 1316 : 						}
; 1317 : 					}
; 1318 : 					else
; 1319 : 					{
; 1320 : 						return 13;
; 1321 : 					}
; 1322 : 				}
; 1323 : 				else 
; 1324 : 				{
; 1325 : 					return 12;
; 1326 : 				}
; 1327 : 			}
; 1328 : 			else
; 1329 : 			{
; 1330 : 				return 11;
; 1331 : 			}
; 1332 : 		}
; 1333 : 		else
; 1334 : 		{
; 1335 : 			return 10;
; 1336 : 		}
; 1337 : 	}
; 1338 : 	else
; 1339 : 	{
; 1340 : 		if (lpObj->m_ContributePoint > 8)
; 1341 : 		{
; 1342 : 			if (lpObj->m_ContributePoint > 32)
; 1343 : 			{
; 1344 : 				if (lpObj->m_ContributePoint > 56)
; 1345 : 				{
; 1346 : 					if (lpObj->m_ContributePoint > 80)
; 1347 : 					{
; 1348 : 						if (lpObj->m_ContributePoint > 104)
; 1349 : 						{
; 1350 : 							if (lpObj->m_ContributePoint > 128)
; 1351 : 							{
; 1352 : 								if (lpObj->m_ContributePoint > 152)
; 1353 : 								{
; 1354 : 									if (lpObj->m_ContributePoint > 176)
; 1355 : 									{
; 1356 : 										return 9;
; 1357 : 									}
; 1358 : 									else
; 1359 : 									{
; 1360 : 										return 8;
; 1361 : 									}
; 1362 : 								}
; 1363 : 								else
; 1364 : 								{
; 1365 : 									return 7;
; 1366 : 								}
; 1367 : 							}
; 1368 : 							else 
; 1369 : 							{
; 1370 : 								return 6;
; 1371 : 							}
; 1372 : 						}
; 1373 : 						else 
; 1374 : 						{
; 1375 : 							return 5;
; 1376 : 						}
; 1377 : 					}
; 1378 : 					else
; 1379 : 					{
; 1380 : 						return 4;
; 1381 : 					}
; 1382 : 				}
; 1383 : 				else
; 1384 : 				{
; 1385 : 					return 3;
; 1386 : 				}
; 1387 : 			}
; 1388 : 			else 
; 1389 : 			{
; 1390 : 				return 2;
; 1391 : 			}
; 1392 : 		}
; 1393 : 		else
; 1394 : 		{
; 1395 : 			return 1;
; 1396 : 		}
; 1397 : 	}
; 1398 : 	return 0;*/
; 1399 : }

  01b25	5f		 pop	 edi
  01b26	5e		 pop	 esi
  01b27	5b		 pop	 ebx
  01b28	8b e5		 mov	 esp, ebp
  01b2a	5d		 pop	 ebp
  01b2b	c2 04 00	 ret	 4
?CalGensClass@GensSystem@@QAEXPAUOBJECTSTRUCT@@@Z ENDP	; GensSystem::CalGensClass
_TEXT	ENDS
PUBLIC	?SetGensRanking@GensSystem@@QAEHPAUOBJECTSTRUCT@@H@Z ; GensSystem::SetGensRanking
; Function compile flags: /Odtp /ZI
_TEXT	SEGMENT
_this$ = -4						; size = 4
_lpObj$ = 8						; size = 4
_iGensRanking$ = 12					; size = 4
?SetGensRanking@GensSystem@@QAEHPAUOBJECTSTRUCT@@H@Z PROC ; GensSystem::SetGensRanking
; _this$ = ecx

; 1407 : {

  01b30	55		 push	 ebp
  01b31	8b ec		 mov	 ebp, esp
  01b33	83 ec 44	 sub	 esp, 68			; 00000044H
  01b36	53		 push	 ebx
  01b37	56		 push	 esi
  01b38	57		 push	 edi
  01b39	89 4d fc	 mov	 DWORD PTR _this$[ebp], ecx

; 1408 : 	return lpObj->m_GensRanking = iGensRanking;

  01b3c	8b 45 08	 mov	 eax, DWORD PTR _lpObj$[ebp]
  01b3f	8b 4d 0c	 mov	 ecx, DWORD PTR _iGensRanking$[ebp]
  01b42	89 88 f0 22 00
	00		 mov	 DWORD PTR [eax+8944], ecx
  01b48	8b 45 0c	 mov	 eax, DWORD PTR _iGensRanking$[ebp]

; 1409 : }

  01b4b	5f		 pop	 edi
  01b4c	5e		 pop	 esi
  01b4d	5b		 pop	 ebx
  01b4e	8b e5		 mov	 esp, ebp
  01b50	5d		 pop	 ebp
  01b51	c2 08 00	 ret	 8
?SetGensRanking@GensSystem@@QAEHPAUOBJECTSTRUCT@@H@Z ENDP ; GensSystem::SetGensRanking
_TEXT	ENDS
PUBLIC	?SetGensClass@GensSystem@@QAEHPAUOBJECTSTRUCT@@H@Z ; GensSystem::SetGensClass
; Function compile flags: /Odtp /ZI
_TEXT	SEGMENT
_this$ = -4						; size = 4
_lpObj$ = 8						; size = 4
_iGensClass$ = 12					; size = 4
?SetGensClass@GensSystem@@QAEHPAUOBJECTSTRUCT@@H@Z PROC	; GensSystem::SetGensClass
; _this$ = ecx

; 1417 : {

  01b60	55		 push	 ebp
  01b61	8b ec		 mov	 ebp, esp
  01b63	83 ec 44	 sub	 esp, 68			; 00000044H
  01b66	53		 push	 ebx
  01b67	56		 push	 esi
  01b68	57		 push	 edi
  01b69	89 4d fc	 mov	 DWORD PTR _this$[ebp], ecx

; 1418 : 	return lpObj->m_GensClass = iGensClass;

  01b6c	8b 45 08	 mov	 eax, DWORD PTR _lpObj$[ebp]
  01b6f	8b 4d 0c	 mov	 ecx, DWORD PTR _iGensClass$[ebp]
  01b72	89 88 f4 22 00
	00		 mov	 DWORD PTR [eax+8948], ecx
  01b78	8b 45 0c	 mov	 eax, DWORD PTR _iGensClass$[ebp]

; 1419 : }

  01b7b	5f		 pop	 edi
  01b7c	5e		 pop	 esi
  01b7d	5b		 pop	 ebx
  01b7e	8b e5		 mov	 esp, ebp
  01b80	5d		 pop	 ebp
  01b81	c2 08 00	 ret	 8
?SetGensClass@GensSystem@@QAEHPAUOBJECTSTRUCT@@H@Z ENDP	; GensSystem::SetGensClass
; Function compile flags: /Odtp /ZI
_this$ = -4						; size = 4
_lpObj$ = 8						; size = 4
?GetGensClass@GensSystem@@QAEHPAUOBJECTSTRUCT@@@Z PROC	; GensSystem::GetGensClass
; _this$ = ecx

; 1427 : {

  01b90	55		 push	 ebp
  01b91	8b ec		 mov	 ebp, esp
  01b93	83 ec 44	 sub	 esp, 68			; 00000044H
  01b96	53		 push	 ebx
  01b97	56		 push	 esi
  01b98	57		 push	 edi
  01b99	89 4d fc	 mov	 DWORD PTR _this$[ebp], ecx

; 1428 : 	return lpObj->m_GensClass;

  01b9c	8b 45 08	 mov	 eax, DWORD PTR _lpObj$[ebp]
  01b9f	8b 80 f4 22 00
	00		 mov	 eax, DWORD PTR [eax+8948]

; 1429 : }

  01ba5	5f		 pop	 edi
  01ba6	5e		 pop	 esi
  01ba7	5b		 pop	 ebx
  01ba8	8b e5		 mov	 esp, ebp
  01baa	5d		 pop	 ebp
  01bab	c2 04 00	 ret	 4
?GetGensClass@GensSystem@@QAEHPAUOBJECTSTRUCT@@@Z ENDP	; GensSystem::GetGensClass
; Function compile flags: /Odtp /ZI
_this$ = -4						; size = 4
_lpObj$ = 8						; size = 4
?GetNextContributePoint@GensSystem@@QAEHPAUOBJECTSTRUCT@@@Z PROC ; GensSystem::GetNextContributePoint
; _this$ = ecx

; 1437 : {

  01bb0	55		 push	 ebp
  01bb1	8b ec		 mov	 ebp, esp
  01bb3	83 ec 44	 sub	 esp, 68			; 00000044H
  01bb6	53		 push	 ebx
  01bb7	56		 push	 esi
  01bb8	57		 push	 edi
  01bb9	89 4d fc	 mov	 DWORD PTR _this$[ebp], ecx

; 1438 : 	if (this->IsRegGensInfluence(lpObj))

  01bbc	8b 45 08	 mov	 eax, DWORD PTR _lpObj$[ebp]
  01bbf	50		 push	 eax
  01bc0	8b 4d fc	 mov	 ecx, DWORD PTR _this$[ebp]
  01bc3	e8 00 00 00 00	 call	 ?IsRegGensInfluence@GensSystem@@QAE_NPAUOBJECTSTRUCT@@@Z ; GensSystem::IsRegGensInfluence
  01bc8	0f b6 c8	 movzx	 ecx, al
  01bcb	85 c9		 test	 ecx, ecx
  01bcd	0f 84 bc 00 00
	00		 je	 $LN12@GetNextCon

; 1439 : 	{
; 1440 : 		if (lpObj->m_NextContributePoint > 499)

  01bd3	8b 45 08	 mov	 eax, DWORD PTR _lpObj$[ebp]
  01bd6	81 b8 c0 22 00
	00 f3 01 00 00	 cmp	 DWORD PTR [eax+8896], 499 ; 000001f3H
  01be0	0f 8e 95 00 00
	00		 jle	 $LN11@GetNextCon

; 1441 : 		{
; 1442 : 			if (lpObj->m_NextContributePoint > 1499)

  01be6	8b 45 08	 mov	 eax, DWORD PTR _lpObj$[ebp]
  01be9	81 b8 c0 22 00
	00 db 05 00 00	 cmp	 DWORD PTR [eax+8896], 1499 ; 000005dbH
  01bf3	7e 72		 jle	 SHORT $LN10@GetNextCon

; 1443 : 			{
; 1444 : 				if (lpObj->m_NextContributePoint > 2999)

  01bf5	8b 45 08	 mov	 eax, DWORD PTR _lpObj$[ebp]
  01bf8	81 b8 c0 22 00
	00 b7 0b 00 00	 cmp	 DWORD PTR [eax+8896], 2999 ; 00000bb7H
  01c02	7e 4f		 jle	 SHORT $LN9@GetNextCon

; 1445 : 				{
; 1446 : 					if (lpObj->m_NextContributePoint > 5999)

  01c04	8b 45 08	 mov	 eax, DWORD PTR _lpObj$[ebp]
  01c07	81 b8 c0 22 00
	00 6f 17 00 00	 cmp	 DWORD PTR [eax+8896], 5999 ; 0000176fH
  01c11	7e 2c		 jle	 SHORT $LN8@GetNextCon

; 1447 : 					{
; 1448 : 						if (lpObj->m_NextContributePoint > 9999)

  01c13	8b 45 08	 mov	 eax, DWORD PTR _lpObj$[ebp]
  01c16	81 b8 c0 22 00
	00 0f 27 00 00	 cmp	 DWORD PTR [eax+8896], 9999 ; 0000270fH
  01c20	7e 09		 jle	 SHORT $LN7@GetNextCon

; 1449 : 						{
; 1450 : 							return -2;

  01c22	b8 fe ff ff ff	 mov	 eax, -2			; fffffffeH
  01c27	eb 6d		 jmp	 SHORT $LN13@GetNextCon

; 1451 : 						}
; 1452 : 						else

  01c29	eb 12		 jmp	 SHORT $LN6@GetNextCon
$LN7@GetNextCon:

; 1453 : 						{
; 1454 : 							return 10000 - lpObj->m_NextContributePoint;

  01c2b	8b 45 08	 mov	 eax, DWORD PTR _lpObj$[ebp]
  01c2e	b9 10 27 00 00	 mov	 ecx, 10000		; 00002710H
  01c33	2b 88 c0 22 00
	00		 sub	 ecx, DWORD PTR [eax+8896]
  01c39	8b c1		 mov	 eax, ecx
  01c3b	eb 59		 jmp	 SHORT $LN13@GetNextCon
$LN6@GetNextCon:

; 1455 : 						}
; 1456 : 					}
; 1457 : 					else

  01c3d	eb 12		 jmp	 SHORT $LN5@GetNextCon
$LN8@GetNextCon:

; 1458 : 					{
; 1459 : 						return 6000 - lpObj->m_NextContributePoint;

  01c3f	8b 45 08	 mov	 eax, DWORD PTR _lpObj$[ebp]
  01c42	b9 70 17 00 00	 mov	 ecx, 6000		; 00001770H
  01c47	2b 88 c0 22 00
	00		 sub	 ecx, DWORD PTR [eax+8896]
  01c4d	8b c1		 mov	 eax, ecx
  01c4f	eb 45		 jmp	 SHORT $LN13@GetNextCon
$LN5@GetNextCon:

; 1460 : 					}
; 1461 : 				}
; 1462 : 				else

  01c51	eb 12		 jmp	 SHORT $LN4@GetNextCon
$LN9@GetNextCon:

; 1463 : 				{
; 1464 : 					return 3000 - lpObj->m_NextContributePoint;

  01c53	8b 45 08	 mov	 eax, DWORD PTR _lpObj$[ebp]
  01c56	b9 b8 0b 00 00	 mov	 ecx, 3000		; 00000bb8H
  01c5b	2b 88 c0 22 00
	00		 sub	 ecx, DWORD PTR [eax+8896]
  01c61	8b c1		 mov	 eax, ecx
  01c63	eb 31		 jmp	 SHORT $LN13@GetNextCon
$LN4@GetNextCon:

; 1465 : 				}
; 1466 : 			}
; 1467 : 			else

  01c65	eb 12		 jmp	 SHORT $LN3@GetNextCon
$LN10@GetNextCon:

; 1468 : 			{
; 1469 : 		 	return 1500 - lpObj->m_NextContributePoint;

  01c67	8b 45 08	 mov	 eax, DWORD PTR _lpObj$[ebp]
  01c6a	b9 dc 05 00 00	 mov	 ecx, 1500		; 000005dcH
  01c6f	2b 88 c0 22 00
	00		 sub	 ecx, DWORD PTR [eax+8896]
  01c75	8b c1		 mov	 eax, ecx
  01c77	eb 1d		 jmp	 SHORT $LN13@GetNextCon
$LN3@GetNextCon:

; 1470 : 			}
; 1471 : 		}
; 1472 : 		else

  01c79	eb 12		 jmp	 SHORT $LN2@GetNextCon
$LN11@GetNextCon:

; 1473 : 		{
; 1474 : 			return 500 - lpObj->m_NextContributePoint;

  01c7b	8b 45 08	 mov	 eax, DWORD PTR _lpObj$[ebp]
  01c7e	b9 f4 01 00 00	 mov	 ecx, 500		; 000001f4H
  01c83	2b 88 c0 22 00
	00		 sub	 ecx, DWORD PTR [eax+8896]
  01c89	8b c1		 mov	 eax, ecx
  01c8b	eb 09		 jmp	 SHORT $LN13@GetNextCon
$LN2@GetNextCon:

; 1475 : 		}
; 1476 : 	}
; 1477 : 	else

  01c8d	eb 05		 jmp	 SHORT $LN1@GetNextCon
$LN12@GetNextCon:

; 1478 : 	{
; 1479 : 		return -1;

  01c8f	83 c8 ff	 or	 eax, -1
  01c92	eb 02		 jmp	 SHORT $LN13@GetNextCon
$LN1@GetNextCon:

; 1480 : 	}
; 1481 : 
; 1482 : 	return 0;

  01c94	33 c0		 xor	 eax, eax
$LN13@GetNextCon:

; 1483 : }

  01c96	5f		 pop	 edi
  01c97	5e		 pop	 esi
  01c98	5b		 pop	 ebx
  01c99	8b e5		 mov	 esp, ebp
  01c9b	5d		 pop	 ebp
  01c9c	c2 04 00	 ret	 4
?GetNextContributePoint@GensSystem@@QAEHPAUOBJECTSTRUCT@@@Z ENDP ; GensSystem::GetNextContributePoint
_TEXT	ENDS
PUBLIC	?SetGensMemberCount@GensSystem@@QAEHHH@Z	; GensSystem::SetGensMemberCount
; Function compile flags: /Odtp /ZI
_TEXT	SEGMENT
_this$ = -4						; size = 4
_iInfluence$ = 8					; size = 4
_iMemberCount$ = 12					; size = 4
?SetGensMemberCount@GensSystem@@QAEHHH@Z PROC		; GensSystem::SetGensMemberCount
; _this$ = ecx

; 1491 : {

  01ca0	55		 push	 ebp
  01ca1	8b ec		 mov	 ebp, esp
  01ca3	83 ec 44	 sub	 esp, 68			; 00000044H
  01ca6	53		 push	 ebx
  01ca7	56		 push	 esi
  01ca8	57		 push	 edi
  01ca9	89 4d fc	 mov	 DWORD PTR _this$[ebp], ecx

; 1492 : 	if (iInfluence == VANERT_INFLUENCE)

  01cac	83 7d 08 01	 cmp	 DWORD PTR _iInfluence$[ebp], 1
  01cb0	75 0e		 jne	 SHORT $LN3@SetGensMem

; 1493 : 	{
; 1494 : 		this->iVanertMemberCount = iMemberCount;

  01cb2	8b 45 fc	 mov	 eax, DWORD PTR _this$[ebp]
  01cb5	8b 4d 0c	 mov	 ecx, DWORD PTR _iMemberCount$[ebp]
  01cb8	89 88 c0 00 00
	00		 mov	 DWORD PTR [eax+192], ecx

; 1495 : 	}
; 1496 : 	else 

  01cbe	eb 12		 jmp	 SHORT $LN2@SetGensMem
$LN3@SetGensMem:

; 1497 : 	{
; 1498 : 		if (iInfluence == DUPRIAN_INFLUENCE)

  01cc0	83 7d 08 02	 cmp	 DWORD PTR _iInfluence$[ebp], 2
  01cc4	75 0c		 jne	 SHORT $LN2@SetGensMem

; 1499 : 		 this->iDuprianMemberCount = iMemberCount;

  01cc6	8b 45 fc	 mov	 eax, DWORD PTR _this$[ebp]
  01cc9	8b 4d 0c	 mov	 ecx, DWORD PTR _iMemberCount$[ebp]
  01ccc	89 88 c4 00 00
	00		 mov	 DWORD PTR [eax+196], ecx
$LN2@SetGensMem:

; 1500 : 	}
; 1501 : 
; 1502 : 	return NONE_INFLUENCE;

  01cd2	33 c0		 xor	 eax, eax

; 1503 : }

  01cd4	5f		 pop	 edi
  01cd5	5e		 pop	 esi
  01cd6	5b		 pop	 ebx
  01cd7	8b e5		 mov	 esp, ebp
  01cd9	5d		 pop	 ebp
  01cda	c2 08 00	 ret	 8
?SetGensMemberCount@GensSystem@@QAEHHH@Z ENDP		; GensSystem::SetGensMemberCount
_TEXT	ENDS
PUBLIC	?GetGensMemberCount@GensSystem@@QAEHH@Z		; GensSystem::GetGensMemberCount
; Function compile flags: /Odtp /ZI
_TEXT	SEGMENT
_this$ = -4						; size = 4
_iInfluence$ = 8					; size = 4
?GetGensMemberCount@GensSystem@@QAEHH@Z PROC		; GensSystem::GetGensMemberCount
; _this$ = ecx

; 1511 : {

  01ce0	55		 push	 ebp
  01ce1	8b ec		 mov	 ebp, esp
  01ce3	83 ec 44	 sub	 esp, 68			; 00000044H
  01ce6	53		 push	 ebx
  01ce7	56		 push	 esi
  01ce8	57		 push	 edi
  01ce9	89 4d fc	 mov	 DWORD PTR _this$[ebp], ecx

; 1512 : 	if (iInfluence == VANERT_INFLUENCE)

  01cec	83 7d 08 01	 cmp	 DWORD PTR _iInfluence$[ebp], 1
  01cf0	75 0d		 jne	 SHORT $LN4@GetGensMem

; 1513 : 	{
; 1514 : 		return this->iVanertMemberCount;

  01cf2	8b 45 fc	 mov	 eax, DWORD PTR _this$[ebp]
  01cf5	8b 80 c0 00 00
	00		 mov	 eax, DWORD PTR [eax+192]
  01cfb	eb 18		 jmp	 SHORT $LN5@GetGensMem
  01cfd	eb 16		 jmp	 SHORT $LN5@GetGensMem
$LN4@GetGensMem:

; 1515 : 	}
; 1516 : 	else 	if (iInfluence == DUPRIAN_INFLUENCE)

  01cff	83 7d 08 02	 cmp	 DWORD PTR _iInfluence$[ebp], 2
  01d03	75 0d		 jne	 SHORT $LN2@GetGensMem

; 1517 : 	{
; 1518 : 		return this->iDuprianMemberCount;

  01d05	8b 45 fc	 mov	 eax, DWORD PTR _this$[ebp]
  01d08	8b 80 c4 00 00
	00		 mov	 eax, DWORD PTR [eax+196]
  01d0e	eb 05		 jmp	 SHORT $LN5@GetGensMem

; 1519 : 	}
; 1520 : 	else

  01d10	eb 03		 jmp	 SHORT $LN5@GetGensMem
$LN2@GetGensMem:

; 1521 : 	{
; 1522 : 	 return -1;

  01d12	83 c8 ff	 or	 eax, -1
$LN5@GetGensMem:

; 1523 : 	}
; 1524 : }

  01d15	5f		 pop	 edi
  01d16	5e		 pop	 esi
  01d17	5b		 pop	 ebx
  01d18	8b e5		 mov	 esp, ebp
  01d1a	5d		 pop	 ebp
  01d1b	c2 04 00	 ret	 4
?GetGensMemberCount@GensSystem@@QAEHH@Z ENDP		; GensSystem::GetGensMemberCount
_TEXT	ENDS
PUBLIC	__$ArrayPad$
PUBLIC	?ReqExDBGensRewardCheck@GensSystem@@QAEHPAUOBJECTSTRUCT@@H@Z ; GensSystem::ReqExDBGensRewardCheck
; Function compile flags: /Odtp /ZI
_TEXT	SEGMENT
tv67 = -104						; size = 4
_pMsg$229530 = -36					; size = 28
_this$ = -8						; size = 4
__$ArrayPad$ = -4					; size = 4
_lpObj$ = 8						; size = 4
_iInfluence$ = 12					; size = 4
?ReqExDBGensRewardCheck@GensSystem@@QAEHPAUOBJECTSTRUCT@@H@Z PROC ; GensSystem::ReqExDBGensRewardCheck
; _this$ = ecx

; 1532 : {

  01d20	55		 push	 ebp
  01d21	8b ec		 mov	 ebp, esp
  01d23	83 ec 68	 sub	 esp, 104		; 00000068H
  01d26	a1 00 00 00 00	 mov	 eax, DWORD PTR ___security_cookie
  01d2b	33 c5		 xor	 eax, ebp
  01d2d	89 45 fc	 mov	 DWORD PTR __$ArrayPad$[ebp], eax
  01d30	53		 push	 ebx
  01d31	56		 push	 esi
  01d32	57		 push	 edi
  01d33	89 4d f8	 mov	 DWORD PTR _this$[ebp], ecx

; 1533 : 	if (!OBJMAX_RANGE(lpObj->m_Index))

  01d36	8b 45 08	 mov	 eax, DWORD PTR _lpObj$[ebp]
  01d39	83 38 00	 cmp	 DWORD PTR [eax], 0
  01d3c	7d 09		 jge	 SHORT $LN6@ReqExDBGen@2
  01d3e	c7 45 98 00 00
	00 00		 mov	 DWORD PTR tv67[ebp], 0
  01d45	eb 11		 jmp	 SHORT $LN7@ReqExDBGen@2
$LN6@ReqExDBGen@2:
  01d47	8b 4d 08	 mov	 ecx, DWORD PTR _lpObj$[ebp]
  01d4a	33 d2		 xor	 edx, edx
  01d4c	81 39 97 3a 00
	00		 cmp	 DWORD PTR [ecx], 14999	; 00003a97H
  01d52	0f 9e c2	 setle	 dl
  01d55	89 55 98	 mov	 DWORD PTR tv67[ebp], edx
$LN7@ReqExDBGen@2:
  01d58	83 7d 98 00	 cmp	 DWORD PTR tv67[ebp], 0
  01d5c	75 07		 jne	 SHORT $LN3@ReqExDBGen@2

; 1534 : 		return false;

  01d5e	33 c0		 xor	 eax, eax
  01d60	e9 83 00 00 00	 jmp	 $LN4@ReqExDBGen@2
$LN3@ReqExDBGen@2:

; 1535 : 
; 1536 : 	if (gObjIsConnected(lpObj))

  01d65	8b 45 08	 mov	 eax, DWORD PTR _lpObj$[ebp]
  01d68	50		 push	 eax
  01d69	e8 00 00 00 00	 call	 ?gObjIsConnected@@YAHPAUOBJECTSTRUCT@@@Z ; gObjIsConnected
  01d6e	83 c4 04	 add	 esp, 4
  01d71	85 c0		 test	 eax, eax
  01d73	74 71		 je	 SHORT $LN2@ReqExDBGen@2

; 1537 : 	{
; 1538 : 		PMSG_REQ_GENS_REWARD_CHECK_EXDB pMsg;	
; 1539 : 
; 1540 : 		PHeadSetB((LPBYTE)&pMsg, 0xF8, sizeof(pMsg));

  01d75	6a 1c		 push	 28			; 0000001cH
  01d77	68 f8 00 00 00	 push	 248			; 000000f8H
  01d7c	8d 45 dc	 lea	 eax, DWORD PTR _pMsg$229530[ebp]
  01d7f	50		 push	 eax
  01d80	e8 00 00 00 00	 call	 ?PHeadSetB@@YAXPAEEH@Z	; PHeadSetB
  01d85	83 c4 0c	 add	 esp, 12			; 0000000cH

; 1541 : 	
; 1542 : 		pMsg.bResult	= 12;

  01d88	c6 45 ec 0c	 mov	 BYTE PTR _pMsg$229530[ebp+16], 12 ; 0000000cH

; 1543 : 		strcpy(pMsg.Name, lpObj->Name);

  01d8c	8b 45 08	 mov	 eax, DWORD PTR _lpObj$[ebp]
  01d8f	83 c0 77	 add	 eax, 119		; 00000077H
  01d92	50		 push	 eax
  01d93	8d 4d df	 lea	 ecx, DWORD PTR _pMsg$229530[ebp+3]
  01d96	51		 push	 ecx
  01d97	e8 00 00 00 00	 call	 _strcpy
  01d9c	83 c4 08	 add	 esp, 8

; 1544 : 		pMsg.wIndexH	= SET_NUMBERH(lpObj->m_Index);

  01d9f	8b 45 08	 mov	 eax, DWORD PTR _lpObj$[ebp]
  01da2	8b 08		 mov	 ecx, DWORD PTR [eax]
  01da4	c1 e9 08	 shr	 ecx, 8
  01da7	66 0f b6 d1	 movzx	 dx, cl
  01dab	66 89 55 ee	 mov	 WORD PTR _pMsg$229530[ebp+18], dx

; 1545 : 		pMsg.wIndexL	= SET_NUMBERL(lpObj->m_Index);

  01daf	8b 45 08	 mov	 eax, DWORD PTR _lpObj$[ebp]
  01db2	8b 08		 mov	 ecx, DWORD PTR [eax]
  01db4	81 e1 ff 00 00
	00		 and	 ecx, 255		; 000000ffH
  01dba	66 0f b6 d1	 movzx	 dx, cl
  01dbe	66 89 55 f0	 mov	 WORD PTR _pMsg$229530[ebp+20], dx

; 1546 : 		pMsg.iInfluence = iInfluence;

  01dc2	8b 45 0c	 mov	 eax, DWORD PTR _iInfluence$[ebp]
  01dc5	89 45 f4	 mov	 DWORD PTR _pMsg$229530[ebp+24], eax

; 1547 : 			
; 1548 : 		if (wsJServerCli.DataSend((char*)&pMsg, pMsg.h.size))

  01dc8	0f b6 45 dd	 movzx	 eax, BYTE PTR _pMsg$229530[ebp+1]
  01dcc	50		 push	 eax
  01dcd	8d 4d dc	 lea	 ecx, DWORD PTR _pMsg$229530[ebp]
  01dd0	51		 push	 ecx
  01dd1	b9 00 00 00 00	 mov	 ecx, OFFSET ?wsJServerCli@@3VwsJoinServerCli@@A ; wsJServerCli
  01dd6	e8 00 00 00 00	 call	 ?DataSend@wsJoinServerCli@@QAEHPADH@Z ; wsJoinServerCli::DataSend
  01ddb	85 c0		 test	 eax, eax
  01ddd	74 07		 je	 SHORT $LN2@ReqExDBGen@2

; 1549 : 			return true;

  01ddf	b8 01 00 00 00	 mov	 eax, 1
  01de4	eb 02		 jmp	 SHORT $LN4@ReqExDBGen@2
$LN2@ReqExDBGen@2:

; 1550 : 	}
; 1551 : 	return false;

  01de6	33 c0		 xor	 eax, eax
$LN4@ReqExDBGen@2:

; 1552 : }

  01de8	5f		 pop	 edi
  01de9	5e		 pop	 esi
  01dea	5b		 pop	 ebx
  01deb	8b 4d fc	 mov	 ecx, DWORD PTR __$ArrayPad$[ebp]
  01dee	33 cd		 xor	 ecx, ebp
  01df0	e8 00 00 00 00	 call	 @__security_check_cookie@4
  01df5	8b e5		 mov	 esp, ebp
  01df7	5d		 pop	 ebp
  01df8	c2 08 00	 ret	 8
?ReqExDBGensRewardCheck@GensSystem@@QAEHPAUOBJECTSTRUCT@@H@Z ENDP ; GensSystem::ReqExDBGensRewardCheck
_TEXT	ENDS
PUBLIC	__$ArrayPad$
PUBLIC	?ReqExDBGensRewardComplete@GensSystem@@QAEHPAUOBJECTSTRUCT@@@Z ; GensSystem::ReqExDBGensRewardComplete
; Function compile flags: /Odtp /ZI
_TEXT	SEGMENT
tv67 = -96						; size = 4
_pMsg$229545 = -28					; size = 20
_this$ = -8						; size = 4
__$ArrayPad$ = -4					; size = 4
_lpObj$ = 8						; size = 4
?ReqExDBGensRewardComplete@GensSystem@@QAEHPAUOBJECTSTRUCT@@@Z PROC ; GensSystem::ReqExDBGensRewardComplete
; _this$ = ecx

; 1560 : {

  01e00	55		 push	 ebp
  01e01	8b ec		 mov	 ebp, esp
  01e03	83 ec 60	 sub	 esp, 96			; 00000060H
  01e06	a1 00 00 00 00	 mov	 eax, DWORD PTR ___security_cookie
  01e0b	33 c5		 xor	 eax, ebp
  01e0d	89 45 fc	 mov	 DWORD PTR __$ArrayPad$[ebp], eax
  01e10	53		 push	 ebx
  01e11	56		 push	 esi
  01e12	57		 push	 edi
  01e13	89 4d f8	 mov	 DWORD PTR _this$[ebp], ecx

; 1561 : 	if (!OBJMAX_RANGE(lpObj->m_Index))

  01e16	8b 45 08	 mov	 eax, DWORD PTR _lpObj$[ebp]
  01e19	83 38 00	 cmp	 DWORD PTR [eax], 0
  01e1c	7d 09		 jge	 SHORT $LN6@ReqExDBGen@3
  01e1e	c7 45 a0 00 00
	00 00		 mov	 DWORD PTR tv67[ebp], 0
  01e25	eb 11		 jmp	 SHORT $LN7@ReqExDBGen@3
$LN6@ReqExDBGen@3:
  01e27	8b 4d 08	 mov	 ecx, DWORD PTR _lpObj$[ebp]
  01e2a	33 d2		 xor	 edx, edx
  01e2c	81 39 97 3a 00
	00		 cmp	 DWORD PTR [ecx], 14999	; 00003a97H
  01e32	0f 9e c2	 setle	 dl
  01e35	89 55 a0	 mov	 DWORD PTR tv67[ebp], edx
$LN7@ReqExDBGen@3:
  01e38	83 7d a0 00	 cmp	 DWORD PTR tv67[ebp], 0
  01e3c	75 04		 jne	 SHORT $LN3@ReqExDBGen@3

; 1562 : 		return false;

  01e3e	33 c0		 xor	 eax, eax
  01e40	eb 77		 jmp	 SHORT $LN4@ReqExDBGen@3
$LN3@ReqExDBGen@3:

; 1563 : 
; 1564 : 	if (gObjIsConnected(lpObj))

  01e42	8b 45 08	 mov	 eax, DWORD PTR _lpObj$[ebp]
  01e45	50		 push	 eax
  01e46	e8 00 00 00 00	 call	 ?gObjIsConnected@@YAHPAUOBJECTSTRUCT@@@Z ; gObjIsConnected
  01e4b	83 c4 04	 add	 esp, 4
  01e4e	85 c0		 test	 eax, eax
  01e50	74 65		 je	 SHORT $LN2@ReqExDBGen@3

; 1565 : 	{
; 1566 : 		PMSG_REQ_GENS_REWARD_COMPLETE_EXDB pMsg;
; 1567 : 
; 1568 : 		PHeadSetB((LPBYTE)&pMsg, 0xF8, sizeof(pMsg));

  01e52	6a 14		 push	 20			; 00000014H
  01e54	68 f8 00 00 00	 push	 248			; 000000f8H
  01e59	8d 45 e4	 lea	 eax, DWORD PTR _pMsg$229545[ebp]
  01e5c	50		 push	 eax
  01e5d	e8 00 00 00 00	 call	 ?PHeadSetB@@YAXPAEEH@Z	; PHeadSetB
  01e62	83 c4 0c	 add	 esp, 12			; 0000000cH

; 1569 : 
; 1570 : 		pMsg.bResult = 14;

  01e65	c6 45 e7 0e	 mov	 BYTE PTR _pMsg$229545[ebp+3], 14 ; 0000000eH

; 1571 : 		memcpy(pMsg.Name, lpObj->Name, 0x0A);

  01e69	6a 0a		 push	 10			; 0000000aH
  01e6b	8b 45 08	 mov	 eax, DWORD PTR _lpObj$[ebp]
  01e6e	83 c0 77	 add	 eax, 119		; 00000077H
  01e71	50		 push	 eax
  01e72	8d 4d e8	 lea	 ecx, DWORD PTR _pMsg$229545[ebp+4]
  01e75	51		 push	 ecx
  01e76	e8 00 00 00 00	 call	 _memcpy
  01e7b	83 c4 0c	 add	 esp, 12			; 0000000cH

; 1572 : 		pMsg.wIndexH = SET_NUMBERHW(lpObj->m_Index);

  01e7e	8b 45 08	 mov	 eax, DWORD PTR _lpObj$[ebp]
  01e81	8b 08		 mov	 ecx, DWORD PTR [eax]
  01e83	c1 e9 10	 shr	 ecx, 16			; 00000010H
  01e86	66 89 4d f4	 mov	 WORD PTR _pMsg$229545[ebp+16], cx

; 1573 : 		pMsg.wIndexL = SET_NUMBERLW(lpObj->m_Index);

  01e8a	8b 45 08	 mov	 eax, DWORD PTR _lpObj$[ebp]
  01e8d	8b 08		 mov	 ecx, DWORD PTR [eax]
  01e8f	81 e1 ff ff 00
	00		 and	 ecx, 65535		; 0000ffffH
  01e95	66 89 4d f6	 mov	 WORD PTR _pMsg$229545[ebp+18], cx

; 1574 : 
; 1575 : 		if (wsJServerCli.DataSend((char*)&pMsg, pMsg.h.size))

  01e99	0f b6 45 e5	 movzx	 eax, BYTE PTR _pMsg$229545[ebp+1]
  01e9d	50		 push	 eax
  01e9e	8d 4d e4	 lea	 ecx, DWORD PTR _pMsg$229545[ebp]
  01ea1	51		 push	 ecx
  01ea2	b9 00 00 00 00	 mov	 ecx, OFFSET ?wsJServerCli@@3VwsJoinServerCli@@A ; wsJServerCli
  01ea7	e8 00 00 00 00	 call	 ?DataSend@wsJoinServerCli@@QAEHPADH@Z ; wsJoinServerCli::DataSend
  01eac	85 c0		 test	 eax, eax
  01eae	74 07		 je	 SHORT $LN2@ReqExDBGen@3

; 1576 : 			return true;

  01eb0	b8 01 00 00 00	 mov	 eax, 1
  01eb5	eb 02		 jmp	 SHORT $LN4@ReqExDBGen@3
$LN2@ReqExDBGen@3:

; 1577 : 	}
; 1578 : 	return false;

  01eb7	33 c0		 xor	 eax, eax
$LN4@ReqExDBGen@3:

; 1579 : }

  01eb9	5f		 pop	 edi
  01eba	5e		 pop	 esi
  01ebb	5b		 pop	 ebx
  01ebc	8b 4d fc	 mov	 ecx, DWORD PTR __$ArrayPad$[ebp]
  01ebf	33 cd		 xor	 ecx, ebp
  01ec1	e8 00 00 00 00	 call	 @__security_check_cookie@4
  01ec6	8b e5		 mov	 esp, ebp
  01ec8	5d		 pop	 ebp
  01ec9	c2 04 00	 ret	 4
?ReqExDBGensRewardComplete@GensSystem@@QAEHPAUOBJECTSTRUCT@@@Z ENDP ; GensSystem::ReqExDBGensRewardComplete
_TEXT	ENDS
PUBLIC	?SendGensReward@GensSystem@@QAEHPAUOBJECTSTRUCT@@E@Z ; GensSystem::SendGensReward
; Function compile flags: /Odtp /ZI
_TEXT	SEGMENT
tv67 = -80						; size = 4
_pMsg$229561 = -12					; size = 5
_this$ = -4						; size = 4
_lpObj$ = 8						; size = 4
_btResult$ = 12						; size = 1
?SendGensReward@GensSystem@@QAEHPAUOBJECTSTRUCT@@E@Z PROC ; GensSystem::SendGensReward
; _this$ = ecx

; 1587 : {

  01ed0	55		 push	 ebp
  01ed1	8b ec		 mov	 ebp, esp
  01ed3	83 ec 50	 sub	 esp, 80			; 00000050H
  01ed6	53		 push	 ebx
  01ed7	56		 push	 esi
  01ed8	57		 push	 edi
  01ed9	89 4d fc	 mov	 DWORD PTR _this$[ebp], ecx

; 1588 : 	if (!OBJMAX_RANGE(lpObj->m_Index))

  01edc	8b 45 08	 mov	 eax, DWORD PTR _lpObj$[ebp]
  01edf	83 38 00	 cmp	 DWORD PTR [eax], 0
  01ee2	7d 09		 jge	 SHORT $LN6@SendGensRe
  01ee4	c7 45 b0 00 00
	00 00		 mov	 DWORD PTR tv67[ebp], 0
  01eeb	eb 11		 jmp	 SHORT $LN7@SendGensRe
$LN6@SendGensRe:
  01eed	8b 4d 08	 mov	 ecx, DWORD PTR _lpObj$[ebp]
  01ef0	33 d2		 xor	 edx, edx
  01ef2	81 39 97 3a 00
	00		 cmp	 DWORD PTR [ecx], 14999	; 00003a97H
  01ef8	0f 9e c2	 setle	 dl
  01efb	89 55 b0	 mov	 DWORD PTR tv67[ebp], edx
$LN7@SendGensRe:
  01efe	83 7d b0 00	 cmp	 DWORD PTR tv67[ebp], 0
  01f02	75 04		 jne	 SHORT $LN3@SendGensRe

; 1589 : 		return false;

  01f04	33 c0		 xor	 eax, eax
  01f06	eb 51		 jmp	 SHORT $LN4@SendGensRe
$LN3@SendGensRe:

; 1590 : 
; 1591 : 	if (gObjIsConnected(lpObj))

  01f08	8b 45 08	 mov	 eax, DWORD PTR _lpObj$[ebp]
  01f0b	50		 push	 eax
  01f0c	e8 00 00 00 00	 call	 ?gObjIsConnected@@YAHPAUOBJECTSTRUCT@@@Z ; gObjIsConnected
  01f11	83 c4 04	 add	 esp, 4
  01f14	85 c0		 test	 eax, eax
  01f16	74 3f		 je	 SHORT $LN2@SendGensRe

; 1592 : 	{
; 1593 : 		PMSG_SEND_GENS_REWARD pMsg;
; 1594 : 
; 1595 : 		PHeadSetB((LPBYTE)&pMsg, 0xF8, sizeof(pMsg));

  01f18	6a 05		 push	 5
  01f1a	68 f8 00 00 00	 push	 248			; 000000f8H
  01f1f	8d 45 f4	 lea	 eax, DWORD PTR _pMsg$229561[ebp]
  01f22	50		 push	 eax
  01f23	e8 00 00 00 00	 call	 ?PHeadSetB@@YAXPAEEH@Z	; PHeadSetB
  01f28	83 c4 0c	 add	 esp, 12			; 0000000cH

; 1596 : 
; 1597 : 		pMsg.bResult = 10;

  01f2b	c6 45 f7 0a	 mov	 BYTE PTR _pMsg$229561[ebp+3], 10 ; 0000000aH

; 1598 : 		pMsg.bItemType = btResult;

  01f2f	8a 45 0c	 mov	 al, BYTE PTR _btResult$[ebp]
  01f32	88 45 f8	 mov	 BYTE PTR _pMsg$229561[ebp+4], al

; 1599 : 
; 1600 : 		if (DataSend(lpObj->m_Index, (LPBYTE)&pMsg, pMsg.h.size))

  01f35	0f b6 45 f5	 movzx	 eax, BYTE PTR _pMsg$229561[ebp+1]
  01f39	50		 push	 eax
  01f3a	8d 4d f4	 lea	 ecx, DWORD PTR _pMsg$229561[ebp]
  01f3d	51		 push	 ecx
  01f3e	8b 55 08	 mov	 edx, DWORD PTR _lpObj$[ebp]
  01f41	8b 02		 mov	 eax, DWORD PTR [edx]
  01f43	50		 push	 eax
  01f44	e8 00 00 00 00	 call	 ?DataSend@@YAHHPAEK@Z	; DataSend
  01f49	83 c4 0c	 add	 esp, 12			; 0000000cH
  01f4c	85 c0		 test	 eax, eax
  01f4e	74 07		 je	 SHORT $LN2@SendGensRe

; 1601 : 		 return true;

  01f50	b8 01 00 00 00	 mov	 eax, 1
  01f55	eb 02		 jmp	 SHORT $LN4@SendGensRe
$LN2@SendGensRe:

; 1602 : 	}
; 1603 : 	return false;

  01f57	33 c0		 xor	 eax, eax
$LN4@SendGensRe:

; 1604 : }

  01f59	5f		 pop	 edi
  01f5a	5e		 pop	 esi
  01f5b	5b		 pop	 ebx
  01f5c	8b e5		 mov	 esp, ebp
  01f5e	5d		 pop	 ebp
  01f5f	c2 08 00	 ret	 8
?SendGensReward@GensSystem@@QAEHPAUOBJECTSTRUCT@@E@Z ENDP ; GensSystem::SendGensReward
_TEXT	ENDS
PUBLIC	?GensRewardInventoryCheck@GensSystem@@QAE_NPAUOBJECTSTRUCT@@H@Z ; GensSystem::GensRewardInventoryCheck
PUBLIC	?SendGensRewardItem@GensSystem@@QAEHPAUOBJECTSTRUCT@@H@Z ; GensSystem::SendGensRewardItem
EXTRN	?ItemSerialCreateSend@@YAXHEEEHEEEEEHEE@Z:PROC	; ItemSerialCreateSend
; Function compile flags: /Odtp /ZI
_TEXT	SEGMENT
_i$229576 = -20						; size = 4
_iItemNumber$229574 = -16				; size = 4
_iItemCount$ = -12					; size = 4
_iIndex$ = -8						; size = 4
_this$ = -4						; size = 4
_lpObj$ = 8						; size = 4
_iGensClass$ = 12					; size = 4
?SendGensRewardItem@GensSystem@@QAEHPAUOBJECTSTRUCT@@H@Z PROC ; GensSystem::SendGensRewardItem
; _this$ = ecx

; 1612 : {

  01f70	55		 push	 ebp
  01f71	8b ec		 mov	 ebp, esp
  01f73	83 ec 54	 sub	 esp, 84			; 00000054H
  01f76	53		 push	 ebx
  01f77	56		 push	 esi
  01f78	57		 push	 edi
  01f79	89 4d fc	 mov	 DWORD PTR _this$[ebp], ecx

; 1613 : 	int iIndex = lpObj->m_Index;

  01f7c	8b 45 08	 mov	 eax, DWORD PTR _lpObj$[ebp]
  01f7f	8b 08		 mov	 ecx, DWORD PTR [eax]
  01f81	89 4d f8	 mov	 DWORD PTR _iIndex$[ebp], ecx

; 1614 : 
; 1615 : 	int iItemCount = iGensClass - 1;

  01f84	8b 45 0c	 mov	 eax, DWORD PTR _iGensClass$[ebp]
  01f87	83 e8 01	 sub	 eax, 1
  01f8a	89 45 f4	 mov	 DWORD PTR _iItemCount$[ebp], eax

; 1616 : 
; 1617 : 	if (iItemCount - 1 >= 0)

  01f8d	8b 45 f4	 mov	 eax, DWORD PTR _iItemCount$[ebp]
  01f90	83 e8 01	 sub	 eax, 1
  01f93	0f 88 b0 00 00
	00		 js	 $LN8@SendGensRe@2

; 1618 : 	{
; 1619 : 		iItemCount = this->iIndex * iItemCount + 5;

  01f99	8b 45 fc	 mov	 eax, DWORD PTR _this$[ebp]
  01f9c	8b 88 c8 00 00
	00		 mov	 ecx, DWORD PTR [eax+200]
  01fa2	0f af 4d f4	 imul	 ecx, DWORD PTR _iItemCount$[ebp]
  01fa6	83 c1 05	 add	 ecx, 5
  01fa9	89 4d f4	 mov	 DWORD PTR _iItemCount$[ebp], ecx

; 1620 : 		
; 1621 : 		if (iItemCount > 0)

  01fac	83 7d f4 00	 cmp	 DWORD PTR _iItemCount$[ebp], 0
  01fb0	0f 8e 8f 00 00
	00		 jle	 $LN7@SendGensRe@2

; 1622 : 		{
; 1623 : 			int iItemNumber = ((this->iIndex * iItemCount + 4) + (this->iIndex * iItemCount + 3)) << 9; 

  01fb6	8b 45 fc	 mov	 eax, DWORD PTR _this$[ebp]
  01fb9	8b 88 c8 00 00
	00		 mov	 ecx, DWORD PTR [eax+200]
  01fbf	0f af 4d f4	 imul	 ecx, DWORD PTR _iItemCount$[ebp]
  01fc3	8b 55 fc	 mov	 edx, DWORD PTR _this$[ebp]
  01fc6	8b 82 c8 00 00
	00		 mov	 eax, DWORD PTR [edx+200]
  01fcc	0f af 45 f4	 imul	 eax, DWORD PTR _iItemCount$[ebp]
  01fd0	8d 4c 01 07	 lea	 ecx, DWORD PTR [ecx+eax+7]
  01fd4	c1 e1 09	 shl	 ecx, 9
  01fd7	89 4d f0	 mov	 DWORD PTR _iItemNumber$229574[ebp], ecx

; 1624 : 		
; 1625 : 			if (this->GensRewardInventoryCheck(lpObj, iItemCount))

  01fda	8b 45 f4	 mov	 eax, DWORD PTR _iItemCount$[ebp]
  01fdd	50		 push	 eax
  01fde	8b 4d 08	 mov	 ecx, DWORD PTR _lpObj$[ebp]
  01fe1	51		 push	 ecx
  01fe2	8b 4d fc	 mov	 ecx, DWORD PTR _this$[ebp]
  01fe5	e8 00 00 00 00	 call	 ?GensRewardInventoryCheck@GensSystem@@QAE_NPAUOBJECTSTRUCT@@H@Z ; GensSystem::GensRewardInventoryCheck
  01fea	0f b6 d0	 movzx	 edx, al
  01fed	85 d2		 test	 edx, edx
  01fef	74 4e		 je	 SHORT $LN6@SendGensRe@2

; 1626 : 			{
; 1627 : 				for (int i = 0; i < iItemCount; ++i)

  01ff1	c7 45 ec 00 00
	00 00		 mov	 DWORD PTR _i$229576[ebp], 0
  01ff8	eb 09		 jmp	 SHORT $LN5@SendGensRe@2
$LN4@SendGensRe@2:
  01ffa	8b 45 ec	 mov	 eax, DWORD PTR _i$229576[ebp]
  01ffd	83 c0 01	 add	 eax, 1
  02000	89 45 ec	 mov	 DWORD PTR _i$229576[ebp], eax
$LN5@SendGensRe@2:
  02003	8b 45 ec	 mov	 eax, DWORD PTR _i$229576[ebp]
  02006	3b 45 f4	 cmp	 eax, DWORD PTR _iItemCount$[ebp]
  02009	7d 2b		 jge	 SHORT $LN3@SendGensRe@2

; 1628 : 				{
; 1629 : 					ItemSerialCreateSend(iIndex, 240, 0, 0, iItemNumber, 0, 0, 0, 0, 0, 0, 0, 0);

  0200b	6a 00		 push	 0
  0200d	6a 00		 push	 0
  0200f	6a 00		 push	 0
  02011	6a 00		 push	 0
  02013	6a 00		 push	 0
  02015	6a 00		 push	 0
  02017	6a 00		 push	 0
  02019	6a 00		 push	 0
  0201b	8b 45 f0	 mov	 eax, DWORD PTR _iItemNumber$229574[ebp]
  0201e	50		 push	 eax
  0201f	6a 00		 push	 0
  02021	6a 00		 push	 0
  02023	68 f0 00 00 00	 push	 240			; 000000f0H
  02028	8b 4d f8	 mov	 ecx, DWORD PTR _iIndex$[ebp]
  0202b	51		 push	 ecx
  0202c	e8 00 00 00 00	 call	 ?ItemSerialCreateSend@@YAXHEEEHEEEEEHEE@Z ; ItemSerialCreateSend
  02031	83 c4 34	 add	 esp, 52			; 00000034H

; 1630 : 				}

  02034	eb c4		 jmp	 SHORT $LN4@SendGensRe@2
$LN3@SendGensRe@2:

; 1631 : 				return true;

  02036	b8 01 00 00 00	 mov	 eax, 1
  0203b	eb 0e		 jmp	 SHORT $LN9@SendGensRe@2

; 1632 : 			}
; 1633 : 			else

  0203d	eb 04		 jmp	 SHORT $LN2@SendGensRe@2
$LN6@SendGensRe@2:

; 1634 : 			{
; 1635 : 				return false;

  0203f	33 c0		 xor	 eax, eax
  02041	eb 08		 jmp	 SHORT $LN9@SendGensRe@2
$LN2@SendGensRe@2:

; 1636 : 			}
; 1637 : 		}
; 1638 : 		else

  02043	eb 04		 jmp	 SHORT $LN8@SendGensRe@2
$LN7@SendGensRe@2:

; 1639 : 		{
; 1640 : 			return false;

  02045	33 c0		 xor	 eax, eax
  02047	eb 02		 jmp	 SHORT $LN9@SendGensRe@2
$LN8@SendGensRe@2:

; 1641 : 		}
; 1642 : 	}
; 1643 : 	return false;

  02049	33 c0		 xor	 eax, eax
$LN9@SendGensRe@2:

; 1644 : }

  0204b	5f		 pop	 edi
  0204c	5e		 pop	 esi
  0204d	5b		 pop	 ebx
  0204e	8b e5		 mov	 esp, ebp
  02050	5d		 pop	 ebp
  02051	c2 08 00	 ret	 8
?SendGensRewardItem@GensSystem@@QAEHPAUOBJECTSTRUCT@@H@Z ENDP ; GensSystem::SendGensRewardItem
_TEXT	ENDS
EXTRN	?gObjOnlyInventoryRectCheck@@YAEHHHHH@Z:PROC	; gObjOnlyInventoryRectCheck
; Function compile flags: /Odtp /ZI
_TEXT	SEGMENT
_w$229593 = -20						; size = 4
_h$229589 = -16						; size = 4
_iCount$ = -12						; size = 4
_blank$ = -5						; size = 1
_this$ = -4						; size = 4
_lpObj$ = 8						; size = 4
_iItemCount$ = 12					; size = 4
?GensRewardInventoryCheck@GensSystem@@QAE_NPAUOBJECTSTRUCT@@H@Z PROC ; GensSystem::GensRewardInventoryCheck
; _this$ = ecx

; 1652 : {

  02060	55		 push	 ebp
  02061	8b ec		 mov	 ebp, esp
  02063	83 ec 54	 sub	 esp, 84			; 00000054H
  02066	53		 push	 ebx
  02067	56		 push	 esi
  02068	57		 push	 edi
  02069	89 4d fc	 mov	 DWORD PTR _this$[ebp], ecx

; 1653 : 	unsigned char blank = NULL;

  0206c	c6 45 fb 00	 mov	 BYTE PTR _blank$[ebp], 0

; 1654 : 	
; 1655 : 	int iCount = 0;

  02070	c7 45 f4 00 00
	00 00		 mov	 DWORD PTR _iCount$[ebp], 0

; 1656 : 
; 1657 : 	for (int h = 0; h < 8; ++h)

  02077	c7 45 f0 00 00
	00 00		 mov	 DWORD PTR _h$229589[ebp], 0
  0207e	eb 09		 jmp	 SHORT $LN8@GensReward
$LN7@GensReward:
  02080	8b 45 f0	 mov	 eax, DWORD PTR _h$229589[ebp]
  02083	83 c0 01	 add	 eax, 1
  02086	89 45 f0	 mov	 DWORD PTR _h$229589[ebp], eax
$LN8@GensReward:
  02089	83 7d f0 08	 cmp	 DWORD PTR _h$229589[ebp], 8
  0208d	7d 64		 jge	 SHORT $LN6@GensReward

; 1658 : 	{
; 1659 : 		for (int w = 0; w < 8; ++w)

  0208f	c7 45 ec 00 00
	00 00		 mov	 DWORD PTR _w$229593[ebp], 0
  02096	eb 09		 jmp	 SHORT $LN5@GensReward
$LN4@GensReward:
  02098	8b 45 ec	 mov	 eax, DWORD PTR _w$229593[ebp]
  0209b	83 c0 01	 add	 eax, 1
  0209e	89 45 ec	 mov	 DWORD PTR _w$229593[ebp], eax
$LN5@GensReward:
  020a1	83 7d ec 08	 cmp	 DWORD PTR _w$229593[ebp], 8
  020a5	7d 4a		 jge	 SHORT $LN3@GensReward

; 1660 : 		{
; 1661 : 			if (*(BYTE*)(lpObj->pInventoryMap + (h) * 8 + (w)) == 255)

  020a7	8b 45 08	 mov	 eax, DWORD PTR _lpObj$[ebp]
  020aa	8b 88 28 0e 00
	00		 mov	 ecx, DWORD PTR [eax+3624]
  020b0	8b 55 f0	 mov	 edx, DWORD PTR _h$229589[ebp]
  020b3	8d 04 d1	 lea	 eax, DWORD PTR [ecx+edx*8]
  020b6	8b 4d ec	 mov	 ecx, DWORD PTR _w$229593[ebp]
  020b9	0f b6 14 08	 movzx	 edx, BYTE PTR [eax+ecx]
  020bd	81 fa ff 00 00
	00		 cmp	 edx, 255		; 000000ffH
  020c3	75 2a		 jne	 SHORT $LN2@GensReward

; 1662 : 			{
; 1663 : 				if (gObjOnlyInventoryRectCheck(lpObj->m_Index, w, h, 1, 1))

  020c5	6a 01		 push	 1
  020c7	6a 01		 push	 1
  020c9	8b 45 f0	 mov	 eax, DWORD PTR _h$229589[ebp]
  020cc	50		 push	 eax
  020cd	8b 4d ec	 mov	 ecx, DWORD PTR _w$229593[ebp]
  020d0	51		 push	 ecx
  020d1	8b 55 08	 mov	 edx, DWORD PTR _lpObj$[ebp]
  020d4	8b 02		 mov	 eax, DWORD PTR [edx]
  020d6	50		 push	 eax
  020d7	e8 00 00 00 00	 call	 ?gObjOnlyInventoryRectCheck@@YAEHHHHH@Z ; gObjOnlyInventoryRectCheck
  020dc	83 c4 14	 add	 esp, 20			; 00000014H
  020df	0f b6 c8	 movzx	 ecx, al
  020e2	85 c9		 test	 ecx, ecx
  020e4	74 09		 je	 SHORT $LN2@GensReward

; 1664 : 				{
; 1665 : 					++iCount;

  020e6	8b 45 f4	 mov	 eax, DWORD PTR _iCount$[ebp]
  020e9	83 c0 01	 add	 eax, 1
  020ec	89 45 f4	 mov	 DWORD PTR _iCount$[ebp], eax
$LN2@GensReward:

; 1666 : 				}
; 1667 : 			}
; 1668 : 		}

  020ef	eb a7		 jmp	 SHORT $LN4@GensReward
$LN3@GensReward:

; 1669 : 	}

  020f1	eb 8d		 jmp	 SHORT $LN7@GensReward
$LN6@GensReward:

; 1670 : 	return iItemCount <= iCount;

  020f3	8b 45 0c	 mov	 eax, DWORD PTR _iItemCount$[ebp]
  020f6	33 c9		 xor	 ecx, ecx
  020f8	3b 45 f4	 cmp	 eax, DWORD PTR _iCount$[ebp]
  020fb	0f 9e c1	 setle	 cl
  020fe	8a c1		 mov	 al, cl

; 1671 : }

  02100	5f		 pop	 edi
  02101	5e		 pop	 esi
  02102	5b		 pop	 ebx
  02103	8b e5		 mov	 esp, ebp
  02105	5d		 pop	 ebp
  02106	c2 08 00	 ret	 8
?GensRewardInventoryCheck@GensSystem@@QAE_NPAUOBJECTSTRUCT@@H@Z ENDP ; GensSystem::GensRewardInventoryCheck
_TEXT	ENDS
PUBLIC	__$ArrayPad$
PUBLIC	?ReqExDBGensMemberCount@GensSystem@@QAEHPAUOBJECTSTRUCT@@@Z ; GensSystem::ReqExDBGensMemberCount
; Function compile flags: /Odtp /ZI
_TEXT	SEGMENT
tv67 = -100						; size = 4
_pMsg$229606 = -32					; size = 22
_this$ = -8						; size = 4
__$ArrayPad$ = -4					; size = 4
_lpObj$ = 8						; size = 4
?ReqExDBGensMemberCount@GensSystem@@QAEHPAUOBJECTSTRUCT@@@Z PROC ; GensSystem::ReqExDBGensMemberCount
; _this$ = ecx

; 1679 : {

  02110	55		 push	 ebp
  02111	8b ec		 mov	 ebp, esp
  02113	83 ec 64	 sub	 esp, 100		; 00000064H
  02116	a1 00 00 00 00	 mov	 eax, DWORD PTR ___security_cookie
  0211b	33 c5		 xor	 eax, ebp
  0211d	89 45 fc	 mov	 DWORD PTR __$ArrayPad$[ebp], eax
  02120	53		 push	 ebx
  02121	56		 push	 esi
  02122	57		 push	 edi
  02123	89 4d f8	 mov	 DWORD PTR _this$[ebp], ecx

; 1680 : 	if (!OBJMAX_RANGE(lpObj->m_Index))

  02126	8b 45 08	 mov	 eax, DWORD PTR _lpObj$[ebp]
  02129	83 38 00	 cmp	 DWORD PTR [eax], 0
  0212c	7d 09		 jge	 SHORT $LN6@ReqExDBGen@4
  0212e	c7 45 9c 00 00
	00 00		 mov	 DWORD PTR tv67[ebp], 0
  02135	eb 11		 jmp	 SHORT $LN7@ReqExDBGen@4
$LN6@ReqExDBGen@4:
  02137	8b 4d 08	 mov	 ecx, DWORD PTR _lpObj$[ebp]
  0213a	33 d2		 xor	 edx, edx
  0213c	81 39 97 3a 00
	00		 cmp	 DWORD PTR [ecx], 14999	; 00003a97H
  02142	0f 9e c2	 setle	 dl
  02145	89 55 9c	 mov	 DWORD PTR tv67[ebp], edx
$LN7@ReqExDBGen@4:
  02148	83 7d 9c 00	 cmp	 DWORD PTR tv67[ebp], 0
  0214c	75 04		 jne	 SHORT $LN3@ReqExDBGen@4

; 1681 : 		return false;

  0214e	33 c0		 xor	 eax, eax
  02150	eb 62		 jmp	 SHORT $LN4@ReqExDBGen@4
$LN3@ReqExDBGen@4:

; 1682 : 
; 1683 : 	if (gObjIsConnected(lpObj))

  02152	8b 45 08	 mov	 eax, DWORD PTR _lpObj$[ebp]
  02155	50		 push	 eax
  02156	e8 00 00 00 00	 call	 ?gObjIsConnected@@YAHPAUOBJECTSTRUCT@@@Z ; gObjIsConnected
  0215b	83 c4 04	 add	 esp, 4
  0215e	85 c0		 test	 eax, eax
  02160	74 50		 je	 SHORT $LN2@ReqExDBGen@4

; 1684 : 	{
; 1685 : 		PMSG_REQ_GENS_MEMBER_COUNT pMsg;
; 1686 : 
; 1687 : 		PHeadSetB((LPBYTE)&pMsg, 0xF8, sizeof(pMsg));

  02162	6a 16		 push	 22			; 00000016H
  02164	68 f8 00 00 00	 push	 248			; 000000f8H
  02169	8d 45 e0	 lea	 eax, DWORD PTR _pMsg$229606[ebp]
  0216c	50		 push	 eax
  0216d	e8 00 00 00 00	 call	 ?PHeadSetB@@YAXPAEEH@Z	; PHeadSetB
  02172	83 c4 0c	 add	 esp, 12			; 0000000cH

; 1688 : 
; 1689 : 		pMsg.bResult = 0xF;

  02175	c6 45 e3 0f	 mov	 BYTE PTR _pMsg$229606[ebp+3], 15 ; 0000000fH

; 1690 : 		pMsg.wIndexH = SET_NUMBERHW(lpObj->m_Index);

  02179	8b 45 08	 mov	 eax, DWORD PTR _lpObj$[ebp]
  0217c	8b 08		 mov	 ecx, DWORD PTR [eax]
  0217e	c1 e9 10	 shr	 ecx, 16			; 00000010H
  02181	66 89 4d f2	 mov	 WORD PTR _pMsg$229606[ebp+18], cx

; 1691 : 		pMsg.wIndexL = SET_NUMBERLW(lpObj->m_Index);

  02185	8b 45 08	 mov	 eax, DWORD PTR _lpObj$[ebp]
  02188	8b 08		 mov	 ecx, DWORD PTR [eax]
  0218a	81 e1 ff ff 00
	00		 and	 ecx, 65535		; 0000ffffH
  02190	66 89 4d f4	 mov	 WORD PTR _pMsg$229606[ebp+20], cx

; 1692 : 
; 1693 : 		if (wsJServerCli.DataSend((char*)&pMsg, pMsg.h.size))

  02194	0f b6 45 e1	 movzx	 eax, BYTE PTR _pMsg$229606[ebp+1]
  02198	50		 push	 eax
  02199	8d 4d e0	 lea	 ecx, DWORD PTR _pMsg$229606[ebp]
  0219c	51		 push	 ecx
  0219d	b9 00 00 00 00	 mov	 ecx, OFFSET ?wsJServerCli@@3VwsJoinServerCli@@A ; wsJServerCli
  021a2	e8 00 00 00 00	 call	 ?DataSend@wsJoinServerCli@@QAEHPADH@Z ; wsJoinServerCli::DataSend
  021a7	85 c0		 test	 eax, eax
  021a9	74 07		 je	 SHORT $LN2@ReqExDBGen@4

; 1694 : 			return true;

  021ab	b8 01 00 00 00	 mov	 eax, 1
  021b0	eb 02		 jmp	 SHORT $LN4@ReqExDBGen@4
$LN2@ReqExDBGen@4:

; 1695 : 	}
; 1696 : 	return false;

  021b2	33 c0		 xor	 eax, eax
$LN4@ReqExDBGen@4:

; 1697 : }

  021b4	5f		 pop	 edi
  021b5	5e		 pop	 esi
  021b6	5b		 pop	 ebx
  021b7	8b 4d fc	 mov	 ecx, DWORD PTR __$ArrayPad$[ebp]
  021ba	33 cd		 xor	 ecx, ebp
  021bc	e8 00 00 00 00	 call	 @__security_check_cookie@4
  021c1	8b e5		 mov	 esp, ebp
  021c3	5d		 pop	 ebp
  021c4	c2 04 00	 ret	 4
?ReqExDBGensMemberCount@GensSystem@@QAEHPAUOBJECTSTRUCT@@@Z ENDP ; GensSystem::ReqExDBGensMemberCount
_TEXT	ENDS
PUBLIC	?ReqExDBSetGensRewardDay@GensSystem@@QAEHXZ	; GensSystem::ReqExDBSetGensRewardDay
; Function compile flags: /Odtp /ZI
_TEXT	SEGMENT
_pMsg$ = -8						; size = 4
_this$ = -4						; size = 4
?ReqExDBSetGensRewardDay@GensSystem@@QAEHXZ PROC	; GensSystem::ReqExDBSetGensRewardDay
; _this$ = ecx

; 1702 : {

  021d0	55		 push	 ebp
  021d1	8b ec		 mov	 ebp, esp
  021d3	83 ec 48	 sub	 esp, 72			; 00000048H
  021d6	53		 push	 ebx
  021d7	56		 push	 esi
  021d8	57		 push	 edi
  021d9	89 4d fc	 mov	 DWORD PTR _this$[ebp], ecx

; 1703 : 	PMSG_SET_GENS_REWARD_DAY_EXDB pMsg;
; 1704 : 
; 1705 : 	PHeadSetB((LPBYTE)&pMsg, 0xF8, sizeof(pMsg));

  021dc	6a 04		 push	 4
  021de	68 f8 00 00 00	 push	 248			; 000000f8H
  021e3	8d 45 f8	 lea	 eax, DWORD PTR _pMsg$[ebp]
  021e6	50		 push	 eax
  021e7	e8 00 00 00 00	 call	 ?PHeadSetB@@YAXPAEEH@Z	; PHeadSetB
  021ec	83 c4 0c	 add	 esp, 12			; 0000000cH

; 1706 : 	pMsg.bRewardDay = 17;

  021ef	c6 45 fb 11	 mov	 BYTE PTR _pMsg$[ebp+3], 17 ; 00000011H

; 1707 : 
; 1708 : 	return wsJServerCli.DataSend((char*)&pMsg, pMsg.h.size);

  021f3	0f b6 45 f9	 movzx	 eax, BYTE PTR _pMsg$[ebp+1]
  021f7	50		 push	 eax
  021f8	8d 4d f8	 lea	 ecx, DWORD PTR _pMsg$[ebp]
  021fb	51		 push	 ecx
  021fc	b9 00 00 00 00	 mov	 ecx, OFFSET ?wsJServerCli@@3VwsJoinServerCli@@A ; wsJServerCli
  02201	e8 00 00 00 00	 call	 ?DataSend@wsJoinServerCli@@QAEHPADH@Z ; wsJoinServerCli::DataSend

; 1709 : };

  02206	5f		 pop	 edi
  02207	5e		 pop	 esi
  02208	5b		 pop	 ebx
  02209	8b e5		 mov	 esp, ebp
  0220b	5d		 pop	 ebp
  0220c	c3		 ret	 0
?ReqExDBSetGensRewardDay@GensSystem@@QAEHXZ ENDP	; GensSystem::ReqExDBSetGensRewardDay
_TEXT	ENDS
PUBLIC	?ReqExDBSetGensRanking@GensSystem@@QAEHXZ	; GensSystem::ReqExDBSetGensRanking
; Function compile flags: /Odtp /ZI
_TEXT	SEGMENT
_pMsg$ = -8						; size = 4
_this$ = -4						; size = 4
?ReqExDBSetGensRanking@GensSystem@@QAEHXZ PROC		; GensSystem::ReqExDBSetGensRanking
; _this$ = ecx

; 1713 : {

  02210	55		 push	 ebp
  02211	8b ec		 mov	 ebp, esp
  02213	83 ec 48	 sub	 esp, 72			; 00000048H
  02216	53		 push	 ebx
  02217	56		 push	 esi
  02218	57		 push	 edi
  02219	89 4d fc	 mov	 DWORD PTR _this$[ebp], ecx

; 1714 : 	GENS_RANKING pMsg;
; 1715 : 
; 1716 : 	PHeadSetB((LPBYTE)&pMsg, 0xF8, sizeof(pMsg));

  0221c	6a 04		 push	 4
  0221e	68 f8 00 00 00	 push	 248			; 000000f8H
  02223	8d 45 f8	 lea	 eax, DWORD PTR _pMsg$[ebp]
  02226	50		 push	 eax
  02227	e8 00 00 00 00	 call	 ?PHeadSetB@@YAXPAEEH@Z	; PHeadSetB
  0222c	83 c4 0c	 add	 esp, 12			; 0000000cH

; 1717 : 	pMsg.bRanking = 0x12;

  0222f	c6 45 fb 12	 mov	 BYTE PTR _pMsg$[ebp+3], 18 ; 00000012H

; 1718 : 
; 1719 : 	return wsJServerCli.DataSend((char*)&pMsg, pMsg.h.size);

  02233	0f b6 45 f9	 movzx	 eax, BYTE PTR _pMsg$[ebp+1]
  02237	50		 push	 eax
  02238	8d 4d f8	 lea	 ecx, DWORD PTR _pMsg$[ebp]
  0223b	51		 push	 ecx
  0223c	b9 00 00 00 00	 mov	 ecx, OFFSET ?wsJServerCli@@3VwsJoinServerCli@@A ; wsJServerCli
  02241	e8 00 00 00 00	 call	 ?DataSend@wsJoinServerCli@@QAEHPADH@Z ; wsJoinServerCli::DataSend

; 1720 : };

  02246	5f		 pop	 edi
  02247	5e		 pop	 esi
  02248	5b		 pop	 ebx
  02249	8b e5		 mov	 esp, ebp
  0224b	5d		 pop	 ebp
  0224c	c3		 ret	 0
?ReqExDBSetGensRanking@GensSystem@@QAEHXZ ENDP		; GensSystem::ReqExDBSetGensRanking
_TEXT	ENDS
PUBLIC	??_C@_0BP@DMBIKMLF@?$FLGensSystem?$FN?5?$CFs?5file?5is?5loaded?$AA@ ; `string'
PUBLIC	__real@0000000000000000
PUBLIC	??_C@_03JBJLGPFL@end?$AA@			; `string'
PUBLIC	??_C@_0CG@JGJNDEEB@?$FLGensSystem?$FN?5Info?5file?5Load?5Fail@ ; `string'
PUBLIC	??_C@_01KDCPPGHE@r?$AA@				; `string'
PUBLIC	?LoadData@GensSystem@@QAEHPAD@Z			; GensSystem::LoadData
EXTRN	?LogAdd@@3P6AXPADZZA:DWORD			; LogAdd
EXTRN	_fclose:PROC
EXTRN	?MsgBox@@YAXPADZZ:PROC				; MsgBox
EXTRN	_fopen:PROC
EXTRN	__fltused:DWORD
EXTRN	__ftol2_sse:PROC
_BSS	SEGMENT
_TokenString DB	064H DUP (?)
_TokenNumber DD	01H DUP (?)
_SMDFile DD	01H DUP (?)
_BSS	ENDS
;	COMDAT ??_C@_0BP@DMBIKMLF@?$FLGensSystem?$FN?5?$CFs?5file?5is?5loaded?$AA@
CONST	SEGMENT
??_C@_0BP@DMBIKMLF@?$FLGensSystem?$FN?5?$CFs?5file?5is?5loaded?$AA@ DB '['
	DB	'GensSystem] %s file is loaded', 00H		; `string'
CONST	ENDS
;	COMDAT __real@0000000000000000
CONST	SEGMENT
__real@0000000000000000 DQ 00000000000000000r	; 0
CONST	ENDS
;	COMDAT ??_C@_03JBJLGPFL@end?$AA@
CONST	SEGMENT
??_C@_03JBJLGPFL@end?$AA@ DB 'end', 00H			; `string'
CONST	ENDS
;	COMDAT ??_C@_0CG@JGJNDEEB@?$FLGensSystem?$FN?5Info?5file?5Load?5Fail@
CONST	SEGMENT
??_C@_0CG@JGJNDEEB@?$FLGensSystem?$FN?5Info?5file?5Load?5Fail@ DB '[GensS'
	DB	'ystem] Info file Load Fail [%s]', 00H	; `string'
CONST	ENDS
;	COMDAT ??_C@_01KDCPPGHE@r?$AA@
CONST	SEGMENT
??_C@_01KDCPPGHE@r?$AA@ DB 'r', 00H			; `string'
; Function compile flags: /Odtp /ZI
CONST	ENDS
_TEXT	SEGMENT
tv395 = -108						; size = 4
tv385 = -108						; size = 4
tv360 = -108						; size = 4
tv348 = -108						; size = 4
tv336 = -108						; size = 4
tv393 = -104						; size = 4
tv383 = -104						; size = 4
tv358 = -104						; size = 4
tv346 = -104						; size = 4
tv334 = -104						; size = 4
tv390 = -100						; size = 2
tv380 = -100						; size = 2
tv355 = -100						; size = 2
tv343 = -100						; size = 2
tv331 = -100						; size = 2
tv170 = -98						; size = 1
tv165 = -98						; size = 1
tv160 = -98						; size = 1
tv155 = -98						; size = 1
tv150 = -98						; size = 1
_RankID$229678 = -33					; size = 1
_i$229645 = -32						; size = 4
_i$229641 = -28						; size = 4
_RewardCounter$ = -24					; size = 4
_MapCounter$ = -20					; size = 4
_ZoneCounter$ = -16					; size = 4
_Type$ = -12						; size = 4
_Token$ = -8						; size = 4
_this$ = -4						; size = 4
_lpszFileName$ = 8					; size = 4
?LoadData@GensSystem@@QAEHPAD@Z PROC			; GensSystem::LoadData
; _this$ = ecx

; 1724 : {

  02250	55		 push	 ebp
  02251	8b ec		 mov	 ebp, esp
  02253	83 ec 6c	 sub	 esp, 108		; 0000006cH
  02256	53		 push	 ebx
  02257	56		 push	 esi
  02258	57		 push	 edi
  02259	89 4d fc	 mov	 DWORD PTR _this$[ebp], ecx

; 1725 : 	/*int iType = 0;
; 1726 : 	SMDToken Token = GetToken();
; 1727 : 	int i = 0;
; 1728 : 	unsigned long dwError = 0;
; 1729 : 	int iGensClass = 0;
; 1730 : 	int iRewardItemType = 0;
; 1731 : 	int iRewardItemCount = 0;
; 1732 : 	unsigned char btRankingKind = NULL;
; 1733 : 	int iRankingValue = 0;
; 1734 : 	int iRewardItemNumber = 0;*/
; 1735 : 	// ----
; 1736 : 	SMDFile = fopen(lpszFileName, "r");	//ok

  0225c	68 00 00 00 00	 push	 OFFSET ??_C@_01KDCPPGHE@r?$AA@
  02261	8b 45 08	 mov	 eax, DWORD PTR _lpszFileName$[ebp]
  02264	50		 push	 eax
  02265	e8 00 00 00 00	 call	 _fopen
  0226a	83 c4 08	 add	 esp, 8
  0226d	a3 00 00 00 00	 mov	 DWORD PTR _SMDFile, eax

; 1737 : 	// ----
; 1738 : 	if( !SMDFile )

  02272	83 3d 00 00 00
	00 00		 cmp	 DWORD PTR _SMDFile, 0
  02279	75 18		 jne	 SHORT $LN26@LoadData

; 1739 : 	{
; 1740 : 		MsgBox("[GensSystem] Info file Load Fail [%s]", lpszFileName);

  0227b	8b 45 08	 mov	 eax, DWORD PTR _lpszFileName$[ebp]
  0227e	50		 push	 eax
  0227f	68 00 00 00 00	 push	 OFFSET ??_C@_0CG@JGJNDEEB@?$FLGensSystem?$FN?5Info?5file?5Load?5Fail@
  02284	e8 00 00 00 00	 call	 ?MsgBox@@YAXPADZZ	; MsgBox
  02289	83 c4 08	 add	 esp, 8

; 1741 : 		return false;

  0228c	33 c0		 xor	 eax, eax
  0228e	e9 89 04 00 00	 jmp	 $LN27@LoadData
$LN26@LoadData:

; 1742 : 	}
; 1743 : 	// ----
; 1744 : 	int Token;
; 1745 : 	int Type;
; 1746 : 	int ZoneCounter		= 0;

  02293	c7 45 f0 00 00
	00 00		 mov	 DWORD PTR _ZoneCounter$[ebp], 0

; 1747 : 	int MapCounter		= 0;

  0229a	c7 45 ec 00 00
	00 00		 mov	 DWORD PTR _MapCounter$[ebp], 0

; 1748 : 	int RewardCounter	= 0;

  022a1	c7 45 e8 00 00
	00 00		 mov	 DWORD PTR _RewardCounter$[ebp], 0

; 1749 : 	// ----
; 1750 : 	for( int i = 0; i < MAX_BATTLE_ZONE; i++ )

  022a8	c7 45 e4 00 00
	00 00		 mov	 DWORD PTR _i$229641[ebp], 0
  022af	eb 09		 jmp	 SHORT $LN25@LoadData
$LN24@LoadData:
  022b1	8b 45 e4	 mov	 eax, DWORD PTR _i$229641[ebp]
  022b4	83 c0 01	 add	 eax, 1
  022b7	89 45 e4	 mov	 DWORD PTR _i$229641[ebp], eax
$LN25@LoadData:
  022ba	83 7d e4 0b	 cmp	 DWORD PTR _i$229641[ebp], 11 ; 0000000bH
  022be	7d 16		 jge	 SHORT $LN23@LoadData

; 1751 : 	{
; 1752 : 		this->BattleZoneList[i]	= -1;

  022c0	8b 45 fc	 mov	 eax, DWORD PTR _this$[ebp]
  022c3	03 45 e4	 add	 eax, DWORD PTR _i$229641[ebp]
  022c6	c6 40 04 ff	 mov	 BYTE PTR [eax+4], 255	; 000000ffH

; 1753 : 		this->BattleMapList[i]	= -1;

  022ca	8b 45 fc	 mov	 eax, DWORD PTR _this$[ebp]
  022cd	03 45 e4	 add	 eax, DWORD PTR _i$229641[ebp]
  022d0	c6 40 0f ff	 mov	 BYTE PTR [eax+15], 255	; 000000ffH

; 1754 : 	}

  022d4	eb db		 jmp	 SHORT $LN24@LoadData
$LN23@LoadData:

; 1755 : 	// ----
; 1756 : 	for( int i = 0; i < MAX_REWARD_TABLE+1; i++ )

  022d6	c7 45 e0 00 00
	00 00		 mov	 DWORD PTR _i$229645[ebp], 0
  022dd	eb 09		 jmp	 SHORT $LN22@LoadData
$LN21@LoadData:
  022df	8b 45 e0	 mov	 eax, DWORD PTR _i$229645[ebp]
  022e2	83 c0 01	 add	 eax, 1
  022e5	89 45 e0	 mov	 DWORD PTR _i$229645[ebp], eax
$LN22@LoadData:
  022e8	83 7d e0 09	 cmp	 DWORD PTR _i$229645[ebp], 9
  022ec	7d 4e		 jge	 SHORT $LN20@LoadData

; 1757 : 	{
; 1758 : 		this->RewardTableList[i].Rank		= -1;

  022ee	8b 45 e0	 mov	 eax, DWORD PTR _i$229645[ebp]
  022f1	c1 e0 04	 shl	 eax, 4
  022f4	8b 4d fc	 mov	 ecx, DWORD PTR _this$[ebp]
  022f7	c6 44 01 1c ff	 mov	 BYTE PTR [ecx+eax+28], 255 ; 000000ffH

; 1759 : 		this->RewardTableList[i].ItemID		= -1;

  022fc	8b 45 e0	 mov	 eax, DWORD PTR _i$229645[ebp]
  022ff	c1 e0 04	 shl	 eax, 4
  02302	8b 4d fc	 mov	 ecx, DWORD PTR _this$[ebp]
  02305	c7 44 01 20 ff
	ff ff ff	 mov	 DWORD PTR [ecx+eax+32], -1

; 1760 : 		this->RewardTableList[i].ItemIndex	= -1;

  0230d	8b 45 e0	 mov	 eax, DWORD PTR _i$229645[ebp]
  02310	c1 e0 04	 shl	 eax, 4
  02313	8b 4d fc	 mov	 ecx, DWORD PTR _this$[ebp]
  02316	c7 44 01 24 ff
	ff ff ff	 mov	 DWORD PTR [ecx+eax+36], -1

; 1761 : 		this->RewardTableList[i].ItemLevel	= -1;

  0231e	8b 45 e0	 mov	 eax, DWORD PTR _i$229645[ebp]
  02321	c1 e0 04	 shl	 eax, 4
  02324	8b 4d fc	 mov	 ecx, DWORD PTR _this$[ebp]
  02327	c6 44 01 28 ff	 mov	 BYTE PTR [ecx+eax+40], 255 ; 000000ffH

; 1762 : 		this->RewardTableList[i].ItemCount	= -1;

  0232c	8b 45 e0	 mov	 eax, DWORD PTR _i$229645[ebp]
  0232f	c1 e0 04	 shl	 eax, 4
  02332	8b 4d fc	 mov	 ecx, DWORD PTR _this$[ebp]
  02335	c6 44 01 29 ff	 mov	 BYTE PTR [ecx+eax+41], 255 ; 000000ffH

; 1763 : 	}

  0233a	eb a3		 jmp	 SHORT $LN21@LoadData
$LN20@LoadData:

; 1764 : 	// ----
; 1765 : 	this->AllowPK = false;

  0233c	8b 45 fc	 mov	 eax, DWORD PTR _this$[ebp]
  0233f	c6 80 b0 00 00
	00 00		 mov	 BYTE PTR [eax+176], 0
$LN19@LoadData:

; 1766 : 	// ----
; 1767 : 	while(true)

  02346	b8 01 00 00 00	 mov	 eax, 1
  0234b	85 c0		 test	 eax, eax
  0234d	0f 84 a4 03 00
	00		 je	 $LN18@LoadData

; 1768 : 	{
; 1769 : 		Token = GetToken();

  02353	e8 00 00 00 00	 call	 ?GetToken@@YA?AW4SMDToken@@XZ ; GetToken
  02358	89 45 f8	 mov	 DWORD PTR _Token$[ebp], eax

; 1770 : 		// ----
; 1771 : 		if( Token == END )

  0235b	83 7d f8 02	 cmp	 DWORD PTR _Token$[ebp], 2
  0235f	75 05		 jne	 SHORT $LN17@LoadData

; 1772 : 		{
; 1773 : 			break;

  02361	e9 91 03 00 00	 jmp	 $LN18@LoadData
$LN17@LoadData:

; 1774 : 		}
; 1775 : 		// ----
; 1776 : 		Type = TokenNumber;

  02366	d9 05 00 00 00
	00		 fld	 DWORD PTR _TokenNumber
  0236c	e8 00 00 00 00	 call	 __ftol2_sse
  02371	89 45 f4	 mov	 DWORD PTR _Type$[ebp], eax
$LN16@LoadData:

; 1777 : 		// ----
; 1778 : 		while(true)

  02374	b8 01 00 00 00	 mov	 eax, 1
  02379	85 c0		 test	 eax, eax
  0237b	0f 84 71 03 00
	00		 je	 $LN15@LoadData

; 1779 : 		{
; 1780 : 			if( Type == 0 )

  02381	83 7d f4 00	 cmp	 DWORD PTR _Type$[ebp], 0
  02385	0f 85 6f 01 00
	00		 jne	 $LN14@LoadData

; 1781 : 			{
; 1782 : 				Token = GetToken();

  0238b	e8 00 00 00 00	 call	 ?GetToken@@YA?AW4SMDToken@@XZ ; GetToken
  02390	89 45 f8	 mov	 DWORD PTR _Token$[ebp], eax

; 1783 : 				// ----
; 1784 : 				if( !strcmp("end", TokenString) )

  02393	68 00 00 00 00	 push	 OFFSET _TokenString
  02398	68 00 00 00 00	 push	 OFFSET ??_C@_03JBJLGPFL@end?$AA@
  0239d	e8 00 00 00 00	 call	 _strcmp
  023a2	83 c4 08	 add	 esp, 8
  023a5	85 c0		 test	 eax, eax
  023a7	75 05		 jne	 SHORT $LN13@LoadData

; 1785 : 				{
; 1786 : 					break;

  023a9	e9 44 03 00 00	 jmp	 $LN15@LoadData
$LN13@LoadData:

; 1787 : 				}
; 1788 : 				// ----
; 1789 : 				StartContribution	= (int)TokenNumber;

  023ae	d9 05 00 00 00
	00		 fld	 DWORD PTR _TokenNumber
  023b4	e8 00 00 00 00	 call	 __ftol2_sse
  023b9	a3 00 00 00 00	 mov	 DWORD PTR ?StartContribution@@3HA, eax ; StartContribution

; 1790 : 				// ----
; 1791 : 				Token				= GetToken();

  023be	e8 00 00 00 00	 call	 ?GetToken@@YA?AW4SMDToken@@XZ ; GetToken
  023c3	89 45 f8	 mov	 DWORD PTR _Token$[ebp], eax

; 1792 : 				RequiredLevel		= (int)TokenNumber;

  023c6	d9 05 00 00 00
	00		 fld	 DWORD PTR _TokenNumber
  023cc	e8 00 00 00 00	 call	 __ftol2_sse
  023d1	a3 00 00 00 00	 mov	 DWORD PTR ?RequiredLevel@@3HA, eax ; RequiredLevel

; 1793 : 				// ----
; 1794 : 				Token				= GetToken();

  023d6	e8 00 00 00 00	 call	 ?GetToken@@YA?AW4SMDToken@@XZ ; GetToken
  023db	89 45 f8	 mov	 DWORD PTR _Token$[ebp], eax

; 1795 : 				RequiredReset		= (int)TokenNumber;

  023de	d9 05 00 00 00
	00		 fld	 DWORD PTR _TokenNumber
  023e4	e8 00 00 00 00	 call	 __ftol2_sse
  023e9	a3 00 00 00 00	 mov	 DWORD PTR ?RequiredReset@@3HA, eax ; RequiredReset

; 1796 : 				// ----
; 1797 : 				Token						= GetToken();

  023ee	e8 00 00 00 00	 call	 ?GetToken@@YA?AW4SMDToken@@XZ ; GetToken
  023f3	89 45 f8	 mov	 DWORD PTR _Token$[ebp], eax

; 1798 : 				this->GuildCreateReqGens	= (bool)TokenNumber;

  023f6	d9 05 00 00 00
	00		 fld	 DWORD PTR _TokenNumber
  023fc	d9 ee		 fldz
  023fe	da e9		 fucompp
  02400	df e0		 fnstsw	 ax
  02402	f6 c4 44	 test	 ah, 68			; 00000044H
  02405	7b 06		 jnp	 SHORT $LN29@LoadData
  02407	c6 45 9e 01	 mov	 BYTE PTR tv150[ebp], 1
  0240b	eb 04		 jmp	 SHORT $LN30@LoadData
$LN29@LoadData:
  0240d	c6 45 9e 00	 mov	 BYTE PTR tv150[ebp], 0
$LN30@LoadData:
  02411	8b 45 fc	 mov	 eax, DWORD PTR _this$[ebp]
  02414	8a 4d 9e	 mov	 cl, BYTE PTR tv150[ebp]
  02417	88 88 ac 00 00
	00		 mov	 BYTE PTR [eax+172], cl

; 1799 : 				// ----
; 1800 : 				Token						= GetToken();

  0241d	e8 00 00 00 00	 call	 ?GetToken@@YA?AW4SMDToken@@XZ ; GetToken
  02422	89 45 f8	 mov	 DWORD PTR _Token$[ebp], eax

; 1801 : 				this->CheckGuildEnter		= (bool)TokenNumber;

  02425	d9 05 00 00 00
	00		 fld	 DWORD PTR _TokenNumber
  0242b	d9 ee		 fldz
  0242d	da e9		 fucompp
  0242f	df e0		 fnstsw	 ax
  02431	f6 c4 44	 test	 ah, 68			; 00000044H
  02434	7b 06		 jnp	 SHORT $LN31@LoadData
  02436	c6 45 9e 01	 mov	 BYTE PTR tv155[ebp], 1
  0243a	eb 04		 jmp	 SHORT $LN32@LoadData
$LN31@LoadData:
  0243c	c6 45 9e 00	 mov	 BYTE PTR tv155[ebp], 0
$LN32@LoadData:
  02440	8b 45 fc	 mov	 eax, DWORD PTR _this$[ebp]
  02443	8a 4d 9e	 mov	 cl, BYTE PTR tv155[ebp]
  02446	88 88 ad 00 00
	00		 mov	 BYTE PTR [eax+173], cl

; 1802 : 				// ----
; 1803 : 				Token						= GetToken();

  0244c	e8 00 00 00 00	 call	 ?GetToken@@YA?AW4SMDToken@@XZ ; GetToken
  02451	89 45 f8	 mov	 DWORD PTR _Token$[ebp], eax

; 1804 : 				this->CheckPartyEnter		= (bool)TokenNumber;

  02454	d9 05 00 00 00
	00		 fld	 DWORD PTR _TokenNumber
  0245a	d9 ee		 fldz
  0245c	da e9		 fucompp
  0245e	df e0		 fnstsw	 ax
  02460	f6 c4 44	 test	 ah, 68			; 00000044H
  02463	7b 06		 jnp	 SHORT $LN33@LoadData
  02465	c6 45 9e 01	 mov	 BYTE PTR tv160[ebp], 1
  02469	eb 04		 jmp	 SHORT $LN34@LoadData
$LN33@LoadData:
  0246b	c6 45 9e 00	 mov	 BYTE PTR tv160[ebp], 0
$LN34@LoadData:
  0246f	8b 45 fc	 mov	 eax, DWORD PTR _this$[ebp]
  02472	8a 4d 9e	 mov	 cl, BYTE PTR tv160[ebp]
  02475	88 88 ae 00 00
	00		 mov	 BYTE PTR [eax+174], cl

; 1805 : 				// ----
; 1806 : 				Token						= GetToken();

  0247b	e8 00 00 00 00	 call	 ?GetToken@@YA?AW4SMDToken@@XZ ; GetToken
  02480	89 45 f8	 mov	 DWORD PTR _Token$[ebp], eax

; 1807 : 				this->CheckAllianceEnter	= (bool)TokenNumber;

  02483	d9 05 00 00 00
	00		 fld	 DWORD PTR _TokenNumber
  02489	d9 ee		 fldz
  0248b	da e9		 fucompp
  0248d	df e0		 fnstsw	 ax
  0248f	f6 c4 44	 test	 ah, 68			; 00000044H
  02492	7b 06		 jnp	 SHORT $LN35@LoadData
  02494	c6 45 9e 01	 mov	 BYTE PTR tv165[ebp], 1
  02498	eb 04		 jmp	 SHORT $LN36@LoadData
$LN35@LoadData:
  0249a	c6 45 9e 00	 mov	 BYTE PTR tv165[ebp], 0
$LN36@LoadData:
  0249e	8b 45 fc	 mov	 eax, DWORD PTR _this$[ebp]
  024a1	8a 4d 9e	 mov	 cl, BYTE PTR tv165[ebp]
  024a4	88 88 af 00 00
	00		 mov	 BYTE PTR [eax+175], cl

; 1808 : 				// ----
; 1809 : 				Token						= GetToken();

  024aa	e8 00 00 00 00	 call	 ?GetToken@@YA?AW4SMDToken@@XZ ; GetToken
  024af	89 45 f8	 mov	 DWORD PTR _Token$[ebp], eax

; 1810 : 				this->AllowPK				= (bool)TokenNumber;

  024b2	d9 05 00 00 00
	00		 fld	 DWORD PTR _TokenNumber
  024b8	d9 ee		 fldz
  024ba	da e9		 fucompp
  024bc	df e0		 fnstsw	 ax
  024be	f6 c4 44	 test	 ah, 68			; 00000044H
  024c1	7b 06		 jnp	 SHORT $LN37@LoadData
  024c3	c6 45 9e 01	 mov	 BYTE PTR tv170[ebp], 1
  024c7	eb 04		 jmp	 SHORT $LN38@LoadData
$LN37@LoadData:
  024c9	c6 45 9e 00	 mov	 BYTE PTR tv170[ebp], 0
$LN38@LoadData:
  024cd	8b 45 fc	 mov	 eax, DWORD PTR _this$[ebp]
  024d0	8a 4d 9e	 mov	 cl, BYTE PTR tv170[ebp]
  024d3	88 88 b0 00 00
	00		 mov	 BYTE PTR [eax+176], cl

; 1811 : 				// ----
; 1812 : 				Token						= GetToken();

  024d9	e8 00 00 00 00	 call	 ?GetToken@@YA?AW4SMDToken@@XZ ; GetToken
  024de	89 45 f8	 mov	 DWORD PTR _Token$[ebp], eax

; 1813 : 				this->ChatPrice				= (int)TokenNumber;

  024e1	d9 05 00 00 00
	00		 fld	 DWORD PTR _TokenNumber
  024e7	e8 00 00 00 00	 call	 __ftol2_sse
  024ec	8b 4d fc	 mov	 ecx, DWORD PTR _this$[ebp]
  024ef	89 81 b4 00 00
	00		 mov	 DWORD PTR [ecx+180], eax
  024f5	e9 f3 01 00 00	 jmp	 $LN3@LoadData
$LN14@LoadData:

; 1814 : 			}
; 1815 : 			else if( Type == 1 ) //-> Battle Zone List

  024fa	83 7d f4 01	 cmp	 DWORD PTR _Type$[ebp], 1
  024fe	75 61		 jne	 SHORT $LN11@LoadData

; 1816 : 			{
; 1817 : 				Token		= GetToken();

  02500	e8 00 00 00 00	 call	 ?GetToken@@YA?AW4SMDToken@@XZ ; GetToken
  02505	89 45 f8	 mov	 DWORD PTR _Token$[ebp], eax

; 1818 : 				// ----
; 1819 : 				if( !strcmp("end", TokenString) || ZoneCounter > MAX_BATTLE_ZONE )

  02508	68 00 00 00 00	 push	 OFFSET _TokenString
  0250d	68 00 00 00 00	 push	 OFFSET ??_C@_03JBJLGPFL@end?$AA@
  02512	e8 00 00 00 00	 call	 _strcmp
  02517	83 c4 08	 add	 esp, 8
  0251a	85 c0		 test	 eax, eax
  0251c	74 06		 je	 SHORT $LN9@LoadData
  0251e	83 7d f0 0b	 cmp	 DWORD PTR _ZoneCounter$[ebp], 11 ; 0000000bH
  02522	7e 05		 jle	 SHORT $LN10@LoadData
$LN9@LoadData:

; 1820 : 				{
; 1821 : 					break;

  02524	e9 c9 01 00 00	 jmp	 $LN15@LoadData
$LN10@LoadData:

; 1822 : 				}
; 1823 : 				// ----
; 1824 : 				this->BattleZoneList[ZoneCounter] = TokenNumber;

  02529	d9 05 00 00 00
	00		 fld	 DWORD PTR _TokenNumber
  0252f	d9 7d 9c	 fnstcw	 WORD PTR tv331[ebp]
  02532	0f b7 45 9c	 movzx	 eax, WORD PTR tv331[ebp]
  02536	0d 00 0c 00 00	 or	 eax, 3072		; 00000c00H
  0253b	89 45 98	 mov	 DWORD PTR tv334[ebp], eax
  0253e	d9 6d 98	 fldcw	 WORD PTR tv334[ebp]
  02541	db 5d 94	 fistp	 DWORD PTR tv336[ebp]
  02544	d9 6d 9c	 fldcw	 WORD PTR tv331[ebp]
  02547	8a 45 94	 mov	 al, BYTE PTR tv336[ebp]
  0254a	8b 4d fc	 mov	 ecx, DWORD PTR _this$[ebp]
  0254d	03 4d f0	 add	 ecx, DWORD PTR _ZoneCounter$[ebp]
  02550	88 41 04	 mov	 BYTE PTR [ecx+4], al

; 1825 : 				ZoneCounter++;

  02553	8b 45 f0	 mov	 eax, DWORD PTR _ZoneCounter$[ebp]
  02556	83 c0 01	 add	 eax, 1
  02559	89 45 f0	 mov	 DWORD PTR _ZoneCounter$[ebp], eax
  0255c	e9 8c 01 00 00	 jmp	 $LN3@LoadData
$LN11@LoadData:

; 1826 : 			}
; 1827 : 			else if( Type == 2 ) //-> Battle Map List

  02561	83 7d f4 02	 cmp	 DWORD PTR _Type$[ebp], 2
  02565	75 61		 jne	 SHORT $LN7@LoadData

; 1828 : 			{
; 1829 : 				Token		= GetToken();

  02567	e8 00 00 00 00	 call	 ?GetToken@@YA?AW4SMDToken@@XZ ; GetToken
  0256c	89 45 f8	 mov	 DWORD PTR _Token$[ebp], eax

; 1830 : 				// ----
; 1831 : 				if( !strcmp("end", TokenString) || MapCounter > MAX_BATTLE_ZONE )

  0256f	68 00 00 00 00	 push	 OFFSET _TokenString
  02574	68 00 00 00 00	 push	 OFFSET ??_C@_03JBJLGPFL@end?$AA@
  02579	e8 00 00 00 00	 call	 _strcmp
  0257e	83 c4 08	 add	 esp, 8
  02581	85 c0		 test	 eax, eax
  02583	74 06		 je	 SHORT $LN5@LoadData
  02585	83 7d ec 0b	 cmp	 DWORD PTR _MapCounter$[ebp], 11 ; 0000000bH
  02589	7e 05		 jle	 SHORT $LN6@LoadData
$LN5@LoadData:

; 1832 : 				{
; 1833 : 					break;

  0258b	e9 62 01 00 00	 jmp	 $LN15@LoadData
$LN6@LoadData:

; 1834 : 				}
; 1835 : 				// ----
; 1836 : 				this->BattleMapList[MapCounter] = TokenNumber;

  02590	d9 05 00 00 00
	00		 fld	 DWORD PTR _TokenNumber
  02596	d9 7d 9c	 fnstcw	 WORD PTR tv343[ebp]
  02599	0f b7 45 9c	 movzx	 eax, WORD PTR tv343[ebp]
  0259d	0d 00 0c 00 00	 or	 eax, 3072		; 00000c00H
  025a2	89 45 98	 mov	 DWORD PTR tv346[ebp], eax
  025a5	d9 6d 98	 fldcw	 WORD PTR tv346[ebp]
  025a8	db 5d 94	 fistp	 DWORD PTR tv348[ebp]
  025ab	d9 6d 9c	 fldcw	 WORD PTR tv343[ebp]
  025ae	8a 45 94	 mov	 al, BYTE PTR tv348[ebp]
  025b1	8b 4d fc	 mov	 ecx, DWORD PTR _this$[ebp]
  025b4	03 4d ec	 add	 ecx, DWORD PTR _MapCounter$[ebp]
  025b7	88 41 0f	 mov	 BYTE PTR [ecx+15], al

; 1837 : 				MapCounter++;

  025ba	8b 45 ec	 mov	 eax, DWORD PTR _MapCounter$[ebp]
  025bd	83 c0 01	 add	 eax, 1
  025c0	89 45 ec	 mov	 DWORD PTR _MapCounter$[ebp], eax
  025c3	e9 25 01 00 00	 jmp	 $LN3@LoadData
$LN7@LoadData:

; 1838 : 			}
; 1839 : 			else if( Type == 3 ) //-> Reward Table

  025c8	83 7d f4 03	 cmp	 DWORD PTR _Type$[ebp], 3
  025cc	0f 85 1b 01 00
	00		 jne	 $LN3@LoadData

; 1840 : 			{
; 1841 : 				BYTE RankID	= -1;

  025d2	c6 45 df ff	 mov	 BYTE PTR _RankID$229678[ebp], 255 ; 000000ffH

; 1842 : 				Token		= GetToken();

  025d6	e8 00 00 00 00	 call	 ?GetToken@@YA?AW4SMDToken@@XZ ; GetToken
  025db	89 45 f8	 mov	 DWORD PTR _Token$[ebp], eax

; 1843 : 				// ----
; 1844 : 				if( !strcmp("end", TokenString) || RewardCounter > MAX_REWARD_TABLE )

  025de	68 00 00 00 00	 push	 OFFSET _TokenString
  025e3	68 00 00 00 00	 push	 OFFSET ??_C@_03JBJLGPFL@end?$AA@
  025e8	e8 00 00 00 00	 call	 _strcmp
  025ed	83 c4 08	 add	 esp, 8
  025f0	85 c0		 test	 eax, eax
  025f2	74 06		 je	 SHORT $LN1@LoadData
  025f4	83 7d e8 08	 cmp	 DWORD PTR _RewardCounter$[ebp], 8
  025f8	7e 05		 jle	 SHORT $LN2@LoadData
$LN1@LoadData:

; 1845 : 				{
; 1846 : 					break;

  025fa	e9 f3 00 00 00	 jmp	 $LN15@LoadData
$LN2@LoadData:

; 1847 : 				}
; 1848 : 				// ----
; 1849 : 				RankID	= TokenNumber;

  025ff	d9 05 00 00 00
	00		 fld	 DWORD PTR _TokenNumber
  02605	d9 7d 9c	 fnstcw	 WORD PTR tv355[ebp]
  02608	0f b7 45 9c	 movzx	 eax, WORD PTR tv355[ebp]
  0260c	0d 00 0c 00 00	 or	 eax, 3072		; 00000c00H
  02611	89 45 98	 mov	 DWORD PTR tv358[ebp], eax
  02614	d9 6d 98	 fldcw	 WORD PTR tv358[ebp]
  02617	db 5d 94	 fistp	 DWORD PTR tv360[ebp]
  0261a	d9 6d 9c	 fldcw	 WORD PTR tv355[ebp]
  0261d	8a 45 94	 mov	 al, BYTE PTR tv360[ebp]
  02620	88 45 df	 mov	 BYTE PTR _RankID$229678[ebp], al

; 1850 : 				this->RewardTableList[RankID].Rank		= RankID;

  02623	0f b6 45 df	 movzx	 eax, BYTE PTR _RankID$229678[ebp]
  02627	c1 e0 04	 shl	 eax, 4
  0262a	8b 4d fc	 mov	 ecx, DWORD PTR _this$[ebp]
  0262d	8a 55 df	 mov	 dl, BYTE PTR _RankID$229678[ebp]
  02630	88 54 01 1c	 mov	 BYTE PTR [ecx+eax+28], dl

; 1851 : 				// ----
; 1852 : 				Token	= GetToken();

  02634	e8 00 00 00 00	 call	 ?GetToken@@YA?AW4SMDToken@@XZ ; GetToken
  02639	89 45 f8	 mov	 DWORD PTR _Token$[ebp], eax

; 1853 : 				this->RewardTableList[RankID].ItemID	= TokenNumber;

  0263c	d9 05 00 00 00
	00		 fld	 DWORD PTR _TokenNumber
  02642	e8 00 00 00 00	 call	 __ftol2_sse
  02647	0f b6 4d df	 movzx	 ecx, BYTE PTR _RankID$229678[ebp]
  0264b	c1 e1 04	 shl	 ecx, 4
  0264e	8b 55 fc	 mov	 edx, DWORD PTR _this$[ebp]
  02651	89 44 0a 20	 mov	 DWORD PTR [edx+ecx+32], eax

; 1854 : 				// ----
; 1855 : 				Token	= GetToken();

  02655	e8 00 00 00 00	 call	 ?GetToken@@YA?AW4SMDToken@@XZ ; GetToken
  0265a	89 45 f8	 mov	 DWORD PTR _Token$[ebp], eax

; 1856 : 				this->RewardTableList[RankID].ItemIndex	= TokenNumber;

  0265d	d9 05 00 00 00
	00		 fld	 DWORD PTR _TokenNumber
  02663	e8 00 00 00 00	 call	 __ftol2_sse
  02668	0f b6 4d df	 movzx	 ecx, BYTE PTR _RankID$229678[ebp]
  0266c	c1 e1 04	 shl	 ecx, 4
  0266f	8b 55 fc	 mov	 edx, DWORD PTR _this$[ebp]
  02672	89 44 0a 24	 mov	 DWORD PTR [edx+ecx+36], eax

; 1857 : 				// ----
; 1858 : 				Token	= GetToken();

  02676	e8 00 00 00 00	 call	 ?GetToken@@YA?AW4SMDToken@@XZ ; GetToken
  0267b	89 45 f8	 mov	 DWORD PTR _Token$[ebp], eax

; 1859 : 				this->RewardTableList[RankID].ItemLevel	= TokenNumber;

  0267e	d9 05 00 00 00
	00		 fld	 DWORD PTR _TokenNumber
  02684	d9 7d 9c	 fnstcw	 WORD PTR tv380[ebp]
  02687	0f b7 45 9c	 movzx	 eax, WORD PTR tv380[ebp]
  0268b	0d 00 0c 00 00	 or	 eax, 3072		; 00000c00H
  02690	89 45 98	 mov	 DWORD PTR tv383[ebp], eax
  02693	d9 6d 98	 fldcw	 WORD PTR tv383[ebp]
  02696	db 5d 94	 fistp	 DWORD PTR tv385[ebp]
  02699	d9 6d 9c	 fldcw	 WORD PTR tv380[ebp]
  0269c	8a 45 94	 mov	 al, BYTE PTR tv385[ebp]
  0269f	0f b6 4d df	 movzx	 ecx, BYTE PTR _RankID$229678[ebp]
  026a3	c1 e1 04	 shl	 ecx, 4
  026a6	8b 55 fc	 mov	 edx, DWORD PTR _this$[ebp]
  026a9	88 44 0a 28	 mov	 BYTE PTR [edx+ecx+40], al

; 1860 : 				// ----
; 1861 : 				Token	= GetToken();

  026ad	e8 00 00 00 00	 call	 ?GetToken@@YA?AW4SMDToken@@XZ ; GetToken
  026b2	89 45 f8	 mov	 DWORD PTR _Token$[ebp], eax

; 1862 : 				this->RewardTableList[RankID].ItemCount	= TokenNumber;

  026b5	d9 05 00 00 00
	00		 fld	 DWORD PTR _TokenNumber
  026bb	d9 7d 9c	 fnstcw	 WORD PTR tv390[ebp]
  026be	0f b7 45 9c	 movzx	 eax, WORD PTR tv390[ebp]
  026c2	0d 00 0c 00 00	 or	 eax, 3072		; 00000c00H
  026c7	89 45 98	 mov	 DWORD PTR tv393[ebp], eax
  026ca	d9 6d 98	 fldcw	 WORD PTR tv393[ebp]
  026cd	db 5d 94	 fistp	 DWORD PTR tv395[ebp]
  026d0	d9 6d 9c	 fldcw	 WORD PTR tv390[ebp]
  026d3	8a 45 94	 mov	 al, BYTE PTR tv395[ebp]
  026d6	0f b6 4d df	 movzx	 ecx, BYTE PTR _RankID$229678[ebp]
  026da	c1 e1 04	 shl	 ecx, 4
  026dd	8b 55 fc	 mov	 edx, DWORD PTR _this$[ebp]
  026e0	88 44 0a 29	 mov	 BYTE PTR [edx+ecx+41], al

; 1863 : 				// ----
; 1864 : 				RewardCounter++;

  026e4	8b 45 e8	 mov	 eax, DWORD PTR _RewardCounter$[ebp]
  026e7	83 c0 01	 add	 eax, 1
  026ea	89 45 e8	 mov	 DWORD PTR _RewardCounter$[ebp], eax
$LN3@LoadData:

; 1865 : 			}
; 1866 : 		}

  026ed	e9 82 fc ff ff	 jmp	 $LN16@LoadData
$LN15@LoadData:

; 1867 : 	}

  026f2	e9 4f fc ff ff	 jmp	 $LN19@LoadData
$LN18@LoadData:

; 1868 : 	// ----
; 1869 : 	fclose(SMDFile);

  026f7	a1 00 00 00 00	 mov	 eax, DWORD PTR _SMDFile
  026fc	50		 push	 eax
  026fd	e8 00 00 00 00	 call	 _fclose
  02702	83 c4 04	 add	 esp, 4

; 1870 : 	// ----
; 1871 : 	LogAdd("[GensSystem] %s file is loaded", lpszFileName);

  02705	8b 45 08	 mov	 eax, DWORD PTR _lpszFileName$[ebp]
  02708	50		 push	 eax
  02709	68 00 00 00 00	 push	 OFFSET ??_C@_0BP@DMBIKMLF@?$FLGensSystem?$FN?5?$CFs?5file?5is?5loaded?$AA@
  0270e	ff 15 00 00 00
	00		 call	 DWORD PTR ?LogAdd@@3P6AXPADZZA ; LogAdd
  02714	83 c4 08	 add	 esp, 8

; 1872 : 	// ----
; 1873 : 	return true;

  02717	b8 01 00 00 00	 mov	 eax, 1
$LN27@LoadData:

; 1874 : }

  0271c	5f		 pop	 edi
  0271d	5e		 pop	 esi
  0271e	5b		 pop	 ebx
  0271f	8b e5		 mov	 esp, ebp
  02721	5d		 pop	 ebp
  02722	c2 04 00	 ret	 4
?LoadData@GensSystem@@QAEHPAD@Z ENDP			; GensSystem::LoadData
_TEXT	ENDS
PUBLIC	__$ArrayPad$
EXTRN	_isalnum:PROC
EXTRN	_isalpha:PROC
EXTRN	_atof:PROC
EXTRN	_isdigit:PROC
EXTRN	_ungetc:PROC
EXTRN	_getc:PROC
EXTRN	_isspace:PROC
EXTRN	_fgetc:PROC
_BSS	SEGMENT
_CurrentToken DD 01H DUP (?)
; Function compile flags: /Odtp /ZI
; File d:\projects\exteam6.3\source\gameserver\common\readscript.h
_BSS	ENDS
_TEXT	SEGMENT
tv86 = -180						; size = 4
_TempString$ = -112					; size = 100
_p$ = -12						; size = 4
_ch$ = -5						; size = 1
__$ArrayPad$ = -4					; size = 4
?GetToken@@YA?AW4SMDToken@@XZ PROC			; GetToken

; 24   : {

  02730	55		 push	 ebp
  02731	8b ec		 mov	 ebp, esp
  02733	81 ec b4 00 00
	00		 sub	 esp, 180		; 000000b4H
  02739	a1 00 00 00 00	 mov	 eax, DWORD PTR ___security_cookie
  0273e	33 c5		 xor	 eax, ebp
  02740	89 45 fc	 mov	 DWORD PTR __$ArrayPad$[ebp], eax
  02743	53		 push	 ebx
  02744	56		 push	 esi
  02745	57		 push	 edi

; 25   : 	char ch;
; 26   : 	TokenString[0] = '\0';

  02746	c6 05 00 00 00
	00 00		 mov	 BYTE PTR _TokenString, 0
$LN30@GetToken:

; 27   : 
; 28   : 	do
; 29   : 	{
; 30   : 		//    END 
; 31   : 		if( (ch = (char)fgetc(SMDFile)) == EOF )

  0274d	a1 00 00 00 00	 mov	 eax, DWORD PTR _SMDFile
  02752	50		 push	 eax
  02753	e8 00 00 00 00	 call	 _fgetc
  02758	83 c4 04	 add	 esp, 4
  0275b	88 45 fb	 mov	 BYTE PTR _ch$[ebp], al
  0275e	0f be 4d fb	 movsx	 ecx, BYTE PTR _ch$[ebp]
  02762	83 f9 ff	 cmp	 ecx, -1
  02765	75 0a		 jne	 SHORT $LN27@GetToken

; 32   : 			return END;

  02767	b8 02 00 00 00	 mov	 eax, 2
  0276c	e9 0b 03 00 00	 jmp	 $LN22@GetToken
$LN27@GetToken:

; 33   : 
; 34   : 		//  //  '\n'   .
; 35   : 		if( ch == '/' && ( ch = (char)fgetc(SMDFile) ) == '/' )	

  02771	0f be 45 fb	 movsx	 eax, BYTE PTR _ch$[ebp]
  02775	83 f8 2f	 cmp	 eax, 47			; 0000002fH
  02778	75 36		 jne	 SHORT $LN24@GetToken
  0277a	a1 00 00 00 00	 mov	 eax, DWORD PTR _SMDFile
  0277f	50		 push	 eax
  02780	e8 00 00 00 00	 call	 _fgetc
  02785	83 c4 04	 add	 esp, 4
  02788	88 45 fb	 mov	 BYTE PTR _ch$[ebp], al
  0278b	0f be 4d fb	 movsx	 ecx, BYTE PTR _ch$[ebp]
  0278f	83 f9 2f	 cmp	 ecx, 47			; 0000002fH
  02792	75 1c		 jne	 SHORT $LN24@GetToken
$LN25@GetToken:

; 36   : 		{
; 37   : 			while( (ch = (char)fgetc(SMDFile)) != '\n' );

  02794	a1 00 00 00 00	 mov	 eax, DWORD PTR _SMDFile
  02799	50		 push	 eax
  0279a	e8 00 00 00 00	 call	 _fgetc
  0279f	83 c4 04	 add	 esp, 4
  027a2	88 45 fb	 mov	 BYTE PTR _ch$[ebp], al
  027a5	0f be 4d fb	 movsx	 ecx, BYTE PTR _ch$[ebp]
  027a9	83 f9 0a	 cmp	 ecx, 10			; 0000000aH
  027ac	74 02		 je	 SHORT $LN24@GetToken
  027ae	eb e4		 jmp	 SHORT $LN25@GetToken
$LN24@GetToken:

; 38   : 		}
; 39   : 	} while( isspace(ch) );

  027b0	0f be 45 fb	 movsx	 eax, BYTE PTR _ch$[ebp]
  027b4	50		 push	 eax
  027b5	e8 00 00 00 00	 call	 _isspace
  027ba	83 c4 04	 add	 esp, 4
  027bd	85 c0		 test	 eax, eax
  027bf	75 8c		 jne	 SHORT $LN30@GetToken

; 40   : 	
; 41   : 	char *p, TempString[100];
; 42   : 
; 43   : 	switch(ch)

  027c1	0f be 45 fb	 movsx	 eax, BYTE PTR _ch$[ebp]
  027c5	89 85 4c ff ff
	ff		 mov	 DWORD PTR tv86[ebp], eax
  027cb	8b 8d 4c ff ff
	ff		 mov	 ecx, DWORD PTR tv86[ebp]
  027d1	83 e9 22	 sub	 ecx, 34			; 00000022H
  027d4	89 8d 4c ff ff
	ff		 mov	 DWORD PTR tv86[ebp], ecx
  027da	83 bd 4c ff ff
	ff 5b		 cmp	 DWORD PTR tv86[ebp], 91	; 0000005bH
  027e1	0f 87 df 01 00
	00		 ja	 $LN5@GetToken
  027e7	8b 95 4c ff ff
	ff		 mov	 edx, DWORD PTR tv86[ebp]
  027ed	0f b6 82 00 00
	00 00		 movzx	 eax, BYTE PTR $LN33@GetToken[edx]
  027f4	ff 24 85 00 00
	00 00		 jmp	 DWORD PTR $LN34@GetToken[eax*4]
$LN21@GetToken:

; 44   : 	{	
; 45   : 	case '#':
; 46   : 		p = TokenString;

  027fb	c7 45 f4 00 00
	00 00		 mov	 DWORD PTR _p$[ebp], OFFSET _TokenString
$LN20@GetToken:

; 47   : 		while ( ( (ch = getc(SMDFile) ) != EOF) && (ch!='#'))// || isalnum(ch)) )

  02802	a1 00 00 00 00	 mov	 eax, DWORD PTR _SMDFile
  02807	50		 push	 eax
  02808	e8 00 00 00 00	 call	 _getc
  0280d	83 c4 04	 add	 esp, 4
  02810	88 45 fb	 mov	 BYTE PTR _ch$[ebp], al
  02813	0f be 4d fb	 movsx	 ecx, BYTE PTR _ch$[ebp]
  02817	83 f9 ff	 cmp	 ecx, -1
  0281a	74 1c		 je	 SHORT $LN19@GetToken
  0281c	0f be 45 fb	 movsx	 eax, BYTE PTR _ch$[ebp]
  02820	83 f8 23	 cmp	 eax, 35			; 00000023H
  02823	74 13		 je	 SHORT $LN19@GetToken

; 48   : 			*p++ = ch;

  02825	8b 45 f4	 mov	 eax, DWORD PTR _p$[ebp]
  02828	8a 4d fb	 mov	 cl, BYTE PTR _ch$[ebp]
  0282b	88 08		 mov	 BYTE PTR [eax], cl
  0282d	8b 55 f4	 mov	 edx, DWORD PTR _p$[ebp]
  02830	83 c2 01	 add	 edx, 1
  02833	89 55 f4	 mov	 DWORD PTR _p$[ebp], edx
  02836	eb ca		 jmp	 SHORT $LN20@GetToken
$LN19@GetToken:

; 49   : 		if (ch!='#')

  02838	0f be 45 fb	 movsx	 eax, BYTE PTR _ch$[ebp]
  0283c	83 f8 23	 cmp	 eax, 35			; 00000023H
  0283f	74 13		 je	 SHORT $LN18@GetToken

; 50   : 			ungetc(ch,SMDFile);

  02841	a1 00 00 00 00	 mov	 eax, DWORD PTR _SMDFile
  02846	50		 push	 eax
  02847	0f be 4d fb	 movsx	 ecx, BYTE PTR _ch$[ebp]
  0284b	51		 push	 ecx
  0284c	e8 00 00 00 00	 call	 _ungetc
  02851	83 c4 08	 add	 esp, 8
$LN18@GetToken:

; 51   : 		*p = 0;

  02854	8b 45 f4	 mov	 eax, DWORD PTR _p$[ebp]
  02857	c6 00 00	 mov	 BYTE PTR [eax], 0

; 52   : 		return CurrentToken = COMMAND;

  0285a	c7 05 00 00 00
	00 23 00 00 00	 mov	 DWORD PTR _CurrentToken, 35 ; 00000023H
  02864	a1 00 00 00 00	 mov	 eax, DWORD PTR _CurrentToken
  02869	e9 0e 02 00 00	 jmp	 $LN22@GetToken
$LN17@GetToken:

; 53   : 	case ';':
; 54   : 		return CurrentToken = SEMICOLON;

  0286e	c7 05 00 00 00
	00 3b 00 00 00	 mov	 DWORD PTR _CurrentToken, 59 ; 0000003bH
  02878	a1 00 00 00 00	 mov	 eax, DWORD PTR _CurrentToken
  0287d	e9 fa 01 00 00	 jmp	 $LN22@GetToken
$LN16@GetToken:

; 55   : 	case ',':
; 56   : 		return CurrentToken = COMMA;

  02882	c7 05 00 00 00
	00 2c 00 00 00	 mov	 DWORD PTR _CurrentToken, 44 ; 0000002cH
  0288c	a1 00 00 00 00	 mov	 eax, DWORD PTR _CurrentToken
  02891	e9 e6 01 00 00	 jmp	 $LN22@GetToken
$LN15@GetToken:

; 57   : 	case '{':
; 58   : 		return CurrentToken = LP;

  02896	c7 05 00 00 00
	00 7b 00 00 00	 mov	 DWORD PTR _CurrentToken, 123 ; 0000007bH
  028a0	a1 00 00 00 00	 mov	 eax, DWORD PTR _CurrentToken
  028a5	e9 d2 01 00 00	 jmp	 $LN22@GetToken
$LN14@GetToken:

; 59   : 	case '}':
; 60   : 		return CurrentToken = RP;

  028aa	c7 05 00 00 00
	00 7d 00 00 00	 mov	 DWORD PTR _CurrentToken, 125 ; 0000007dH
  028b4	a1 00 00 00 00	 mov	 eax, DWORD PTR _CurrentToken
  028b9	e9 be 01 00 00	 jmp	 $LN22@GetToken
$LN13@GetToken:

; 61   : 	case '0':	case '1':	case '2':	case '3':	case '4':
; 62   : 	case '5':	case '6':	case '7':	case '8':	case '9':
; 63   : 	case '.':	case '-':
; 64   : 		ungetc(ch,SMDFile);

  028be	a1 00 00 00 00	 mov	 eax, DWORD PTR _SMDFile
  028c3	50		 push	 eax
  028c4	0f be 4d fb	 movsx	 ecx, BYTE PTR _ch$[ebp]
  028c8	51		 push	 ecx
  028c9	e8 00 00 00 00	 call	 _ungetc
  028ce	83 c4 08	 add	 esp, 8

; 65   : 		p = TempString;

  028d1	8d 45 90	 lea	 eax, DWORD PTR _TempString$[ebp]
  028d4	89 45 f4	 mov	 DWORD PTR _p$[ebp], eax
$LN12@GetToken:

; 66   : 		while ( (  (ch = getc(SMDFile) ) !=EOF) && (ch=='.' || isdigit(ch) || ch=='-') )

  028d7	a1 00 00 00 00	 mov	 eax, DWORD PTR _SMDFile
  028dc	50		 push	 eax
  028dd	e8 00 00 00 00	 call	 _getc
  028e2	83 c4 04	 add	 esp, 4
  028e5	88 45 fb	 mov	 BYTE PTR _ch$[ebp], al
  028e8	0f be 4d fb	 movsx	 ecx, BYTE PTR _ch$[ebp]
  028ec	83 f9 ff	 cmp	 ecx, -1
  028ef	74 36		 je	 SHORT $LN11@GetToken
  028f1	0f be 45 fb	 movsx	 eax, BYTE PTR _ch$[ebp]
  028f5	83 f8 2e	 cmp	 eax, 46			; 0000002eH
  028f8	74 1a		 je	 SHORT $LN10@GetToken
  028fa	0f be 45 fb	 movsx	 eax, BYTE PTR _ch$[ebp]
  028fe	50		 push	 eax
  028ff	e8 00 00 00 00	 call	 _isdigit
  02904	83 c4 04	 add	 esp, 4
  02907	85 c0		 test	 eax, eax
  02909	75 09		 jne	 SHORT $LN10@GetToken
  0290b	0f be 45 fb	 movsx	 eax, BYTE PTR _ch$[ebp]
  0290f	83 f8 2d	 cmp	 eax, 45			; 0000002dH
  02912	75 13		 jne	 SHORT $LN11@GetToken
$LN10@GetToken:

; 67   : 			*p++ = ch;

  02914	8b 45 f4	 mov	 eax, DWORD PTR _p$[ebp]
  02917	8a 4d fb	 mov	 cl, BYTE PTR _ch$[ebp]
  0291a	88 08		 mov	 BYTE PTR [eax], cl
  0291c	8b 55 f4	 mov	 edx, DWORD PTR _p$[ebp]
  0291f	83 c2 01	 add	 edx, 1
  02922	89 55 f4	 mov	 DWORD PTR _p$[ebp], edx
  02925	eb b0		 jmp	 SHORT $LN12@GetToken
$LN11@GetToken:

; 68   : 		*p = 0;

  02927	8b 45 f4	 mov	 eax, DWORD PTR _p$[ebp]
  0292a	c6 00 00	 mov	 BYTE PTR [eax], 0

; 69   : 		TokenNumber = (float)atof(TempString);

  0292d	8d 45 90	 lea	 eax, DWORD PTR _TempString$[ebp]
  02930	50		 push	 eax
  02931	e8 00 00 00 00	 call	 _atof
  02936	83 c4 04	 add	 esp, 4
  02939	d9 1d 00 00 00
	00		 fstp	 DWORD PTR _TokenNumber

; 70   : 		//			sscanf(TempString," %f ",&TokenNumber);
; 71   : 		return CurrentToken = NUMBER;

  0293f	c7 05 00 00 00
	00 01 00 00 00	 mov	 DWORD PTR _CurrentToken, 1
  02949	a1 00 00 00 00	 mov	 eax, DWORD PTR _CurrentToken
  0294e	e9 29 01 00 00	 jmp	 $LN22@GetToken
$LN9@GetToken:

; 72   : 	case '"':
; 73   : 		p = TokenString;

  02953	c7 45 f4 00 00
	00 00		 mov	 DWORD PTR _p$[ebp], OFFSET _TokenString
$LN8@GetToken:

; 74   : 		while ( (  (ch = getc(SMDFile) ) !=EOF) && (ch!='"'))// || isalnum(ch)) )

  0295a	a1 00 00 00 00	 mov	 eax, DWORD PTR _SMDFile
  0295f	50		 push	 eax
  02960	e8 00 00 00 00	 call	 _getc
  02965	83 c4 04	 add	 esp, 4
  02968	88 45 fb	 mov	 BYTE PTR _ch$[ebp], al
  0296b	0f be 4d fb	 movsx	 ecx, BYTE PTR _ch$[ebp]
  0296f	83 f9 ff	 cmp	 ecx, -1
  02972	74 1c		 je	 SHORT $LN7@GetToken
  02974	0f be 45 fb	 movsx	 eax, BYTE PTR _ch$[ebp]
  02978	83 f8 22	 cmp	 eax, 34			; 00000022H
  0297b	74 13		 je	 SHORT $LN7@GetToken

; 75   : 			*p++ = ch;

  0297d	8b 45 f4	 mov	 eax, DWORD PTR _p$[ebp]
  02980	8a 4d fb	 mov	 cl, BYTE PTR _ch$[ebp]
  02983	88 08		 mov	 BYTE PTR [eax], cl
  02985	8b 55 f4	 mov	 edx, DWORD PTR _p$[ebp]
  02988	83 c2 01	 add	 edx, 1
  0298b	89 55 f4	 mov	 DWORD PTR _p$[ebp], edx
  0298e	eb ca		 jmp	 SHORT $LN8@GetToken
$LN7@GetToken:

; 76   : 		if (ch!='"')

  02990	0f be 45 fb	 movsx	 eax, BYTE PTR _ch$[ebp]
  02994	83 f8 22	 cmp	 eax, 34			; 00000022H
  02997	74 13		 je	 SHORT $LN6@GetToken

; 77   : 			ungetc(ch,SMDFile);

  02999	a1 00 00 00 00	 mov	 eax, DWORD PTR _SMDFile
  0299e	50		 push	 eax
  0299f	0f be 4d fb	 movsx	 ecx, BYTE PTR _ch$[ebp]
  029a3	51		 push	 ecx
  029a4	e8 00 00 00 00	 call	 _ungetc
  029a9	83 c4 08	 add	 esp, 8
$LN6@GetToken:

; 78   : 		*p = 0;

  029ac	8b 45 f4	 mov	 eax, DWORD PTR _p$[ebp]
  029af	c6 00 00	 mov	 BYTE PTR [eax], 0

; 79   : 		return CurrentToken = NAME;

  029b2	c7 05 00 00 00
	00 00 00 00 00	 mov	 DWORD PTR _CurrentToken, 0
  029bc	a1 00 00 00 00	 mov	 eax, DWORD PTR _CurrentToken
  029c1	e9 b6 00 00 00	 jmp	 $LN22@GetToken
$LN5@GetToken:

; 80   : 	default:
; 81   : 		if (isalpha(ch))	

  029c6	0f be 45 fb	 movsx	 eax, BYTE PTR _ch$[ebp]
  029ca	50		 push	 eax
  029cb	e8 00 00 00 00	 call	 _isalpha
  029d0	83 c4 04	 add	 esp, 4
  029d3	85 c0		 test	 eax, eax
  029d5	0f 84 92 00 00
	00		 je	 $LN4@GetToken

; 82   : 		{
; 83   : 			p = TokenString;

  029db	c7 45 f4 00 00
	00 00		 mov	 DWORD PTR _p$[ebp], OFFSET _TokenString

; 84   : 			*p++ = ch;

  029e2	8b 45 f4	 mov	 eax, DWORD PTR _p$[ebp]
  029e5	8a 4d fb	 mov	 cl, BYTE PTR _ch$[ebp]
  029e8	88 08		 mov	 BYTE PTR [eax], cl
  029ea	8b 55 f4	 mov	 edx, DWORD PTR _p$[ebp]
  029ed	83 c2 01	 add	 edx, 1
  029f0	89 55 f4	 mov	 DWORD PTR _p$[ebp], edx
$LN3@GetToken:

; 85   : 			while ( (  (ch = getc(SMDFile) ) !=EOF) && (ch=='.' || ch=='_' || isalnum(ch)) )

  029f3	a1 00 00 00 00	 mov	 eax, DWORD PTR _SMDFile
  029f8	50		 push	 eax
  029f9	e8 00 00 00 00	 call	 _getc
  029fe	83 c4 04	 add	 esp, 4
  02a01	88 45 fb	 mov	 BYTE PTR _ch$[ebp], al
  02a04	0f be 4d fb	 movsx	 ecx, BYTE PTR _ch$[ebp]
  02a08	83 f9 ff	 cmp	 ecx, -1
  02a0b	74 36		 je	 SHORT $LN2@GetToken
  02a0d	0f be 45 fb	 movsx	 eax, BYTE PTR _ch$[ebp]
  02a11	83 f8 2e	 cmp	 eax, 46			; 0000002eH
  02a14	74 1a		 je	 SHORT $LN1@GetToken
  02a16	0f be 45 fb	 movsx	 eax, BYTE PTR _ch$[ebp]
  02a1a	83 f8 5f	 cmp	 eax, 95			; 0000005fH
  02a1d	74 11		 je	 SHORT $LN1@GetToken
  02a1f	0f be 45 fb	 movsx	 eax, BYTE PTR _ch$[ebp]
  02a23	50		 push	 eax
  02a24	e8 00 00 00 00	 call	 _isalnum
  02a29	83 c4 04	 add	 esp, 4
  02a2c	85 c0		 test	 eax, eax
  02a2e	74 13		 je	 SHORT $LN2@GetToken
$LN1@GetToken:

; 86   : 				*p++ = ch;

  02a30	8b 45 f4	 mov	 eax, DWORD PTR _p$[ebp]
  02a33	8a 4d fb	 mov	 cl, BYTE PTR _ch$[ebp]
  02a36	88 08		 mov	 BYTE PTR [eax], cl
  02a38	8b 55 f4	 mov	 edx, DWORD PTR _p$[ebp]
  02a3b	83 c2 01	 add	 edx, 1
  02a3e	89 55 f4	 mov	 DWORD PTR _p$[ebp], edx
  02a41	eb b0		 jmp	 SHORT $LN3@GetToken
$LN2@GetToken:

; 87   : 			ungetc(ch,SMDFile);

  02a43	a1 00 00 00 00	 mov	 eax, DWORD PTR _SMDFile
  02a48	50		 push	 eax
  02a49	0f be 4d fb	 movsx	 ecx, BYTE PTR _ch$[ebp]
  02a4d	51		 push	 ecx
  02a4e	e8 00 00 00 00	 call	 _ungetc
  02a53	83 c4 08	 add	 esp, 8

; 88   : 			*p = 0;

  02a56	8b 45 f4	 mov	 eax, DWORD PTR _p$[ebp]
  02a59	c6 00 00	 mov	 BYTE PTR [eax], 0

; 89   : 			return CurrentToken = NAME;

  02a5c	c7 05 00 00 00
	00 00 00 00 00	 mov	 DWORD PTR _CurrentToken, 0
  02a66	a1 00 00 00 00	 mov	 eax, DWORD PTR _CurrentToken
  02a6b	eb 0f		 jmp	 SHORT $LN22@GetToken
$LN4@GetToken:

; 90   : 		}
; 91   : 		return CurrentToken = SMD_ERROR;

  02a6d	c7 05 00 00 00
	00 3c 00 00 00	 mov	 DWORD PTR _CurrentToken, 60 ; 0000003cH
  02a77	a1 00 00 00 00	 mov	 eax, DWORD PTR _CurrentToken
$LN22@GetToken:

; 92   : 	}
; 93   : }

  02a7c	5f		 pop	 edi
  02a7d	5e		 pop	 esi
  02a7e	5b		 pop	 ebx
  02a7f	8b 4d fc	 mov	 ecx, DWORD PTR __$ArrayPad$[ebp]
  02a82	33 cd		 xor	 ecx, ebp
  02a84	e8 00 00 00 00	 call	 @__security_check_cookie@4
  02a89	8b e5		 mov	 esp, ebp
  02a8b	5d		 pop	 ebp
  02a8c	c3		 ret	 0
  02a8d	8d 49 00	 npad	 3
$LN34@GetToken:
  02a90	00 00 00 00	 DD	 $LN9@GetToken
  02a94	00 00 00 00	 DD	 $LN21@GetToken
  02a98	00 00 00 00	 DD	 $LN16@GetToken
  02a9c	00 00 00 00	 DD	 $LN13@GetToken
  02aa0	00 00 00 00	 DD	 $LN17@GetToken
  02aa4	00 00 00 00	 DD	 $LN15@GetToken
  02aa8	00 00 00 00	 DD	 $LN14@GetToken
  02aac	00 00 00 00	 DD	 $LN5@GetToken
$LN33@GetToken:
  02ab0	00		 DB	 0
  02ab1	01		 DB	 1
  02ab2	07		 DB	 7
  02ab3	07		 DB	 7
  02ab4	07		 DB	 7
  02ab5	07		 DB	 7
  02ab6	07		 DB	 7
  02ab7	07		 DB	 7
  02ab8	07		 DB	 7
  02ab9	07		 DB	 7
  02aba	02		 DB	 2
  02abb	03		 DB	 3
  02abc	03		 DB	 3
  02abd	07		 DB	 7
  02abe	03		 DB	 3
  02abf	03		 DB	 3
  02ac0	03		 DB	 3
  02ac1	03		 DB	 3
  02ac2	03		 DB	 3
  02ac3	03		 DB	 3
  02ac4	03		 DB	 3
  02ac5	03		 DB	 3
  02ac6	03		 DB	 3
  02ac7	03		 DB	 3
  02ac8	07		 DB	 7
  02ac9	04		 DB	 4
  02aca	07		 DB	 7
  02acb	07		 DB	 7
  02acc	07		 DB	 7
  02acd	07		 DB	 7
  02ace	07		 DB	 7
  02acf	07		 DB	 7
  02ad0	07		 DB	 7
  02ad1	07		 DB	 7
  02ad2	07		 DB	 7
  02ad3	07		 DB	 7
  02ad4	07		 DB	 7
  02ad5	07		 DB	 7
  02ad6	07		 DB	 7
  02ad7	07		 DB	 7
  02ad8	07		 DB	 7
  02ad9	07		 DB	 7
  02ada	07		 DB	 7
  02adb	07		 DB	 7
  02adc	07		 DB	 7
  02add	07		 DB	 7
  02ade	07		 DB	 7
  02adf	07		 DB	 7
  02ae0	07		 DB	 7
  02ae1	07		 DB	 7
  02ae2	07		 DB	 7
  02ae3	07		 DB	 7
  02ae4	07		 DB	 7
  02ae5	07		 DB	 7
  02ae6	07		 DB	 7
  02ae7	07		 DB	 7
  02ae8	07		 DB	 7
  02ae9	07		 DB	 7
  02aea	07		 DB	 7
  02aeb	07		 DB	 7
  02aec	07		 DB	 7
  02aed	07		 DB	 7
  02aee	07		 DB	 7
  02aef	07		 DB	 7
  02af0	07		 DB	 7
  02af1	07		 DB	 7
  02af2	07		 DB	 7
  02af3	07		 DB	 7
  02af4	07		 DB	 7
  02af5	07		 DB	 7
  02af6	07		 DB	 7
  02af7	07		 DB	 7
  02af8	07		 DB	 7
  02af9	07		 DB	 7
  02afa	07		 DB	 7
  02afb	07		 DB	 7
  02afc	07		 DB	 7
  02afd	07		 DB	 7
  02afe	07		 DB	 7
  02aff	07		 DB	 7
  02b00	07		 DB	 7
  02b01	07		 DB	 7
  02b02	07		 DB	 7
  02b03	07		 DB	 7
  02b04	07		 DB	 7
  02b05	07		 DB	 7
  02b06	07		 DB	 7
  02b07	07		 DB	 7
  02b08	07		 DB	 7
  02b09	05		 DB	 5
  02b0a	07		 DB	 7
  02b0b	06		 DB	 6
?GetToken@@YA?AW4SMDToken@@XZ ENDP			; GetToken
_TEXT	ENDS
PUBLIC	?ReqGensRewardDay@GensSystem@@QAEHPAUOBJECTSTRUCT@@@Z ; GensSystem::ReqGensRewardDay
; Function compile flags: /Odtp /ZI
; File d:\projects\exteam6.3\source\gameserver\gameserver\genssystem.cpp
_TEXT	SEGMENT
_pMsg$ = -12						; size = 8
_this$ = -4						; size = 4
_lpObj$ = 8						; size = 4
?ReqGensRewardDay@GensSystem@@QAEHPAUOBJECTSTRUCT@@@Z PROC ; GensSystem::ReqGensRewardDay
; _this$ = ecx

; 1878 : {

  02b10	55		 push	 ebp
  02b11	8b ec		 mov	 ebp, esp
  02b13	83 ec 4c	 sub	 esp, 76			; 0000004cH
  02b16	53		 push	 ebx
  02b17	56		 push	 esi
  02b18	57		 push	 edi
  02b19	89 4d fc	 mov	 DWORD PTR _this$[ebp], ecx

; 1879 : 	PMSG_REQ_GENS_REWARD_DAY pMsg;
; 1880 : 
; 1881 : 	PHeadSetB((LPBYTE)&pMsg, 0xF8, sizeof(pMsg));

  02b1c	6a 08		 push	 8
  02b1e	68 f8 00 00 00	 push	 248			; 000000f8H
  02b23	8d 45 f4	 lea	 eax, DWORD PTR _pMsg$[ebp]
  02b26	50		 push	 eax
  02b27	e8 00 00 00 00	 call	 ?PHeadSetB@@YAXPAEEH@Z	; PHeadSetB
  02b2c	83 c4 0c	 add	 esp, 12			; 0000000cH

; 1882 : 	pMsg.bRewardDay = 19;

  02b2f	b8 13 00 00 00	 mov	 eax, 19			; 00000013H
  02b34	66 89 45 f8	 mov	 WORD PTR _pMsg$[ebp+4], ax

; 1883 : 	pMsg.bIndexH = SET_NUMBERH(lpObj->m_Index);

  02b38	8b 45 08	 mov	 eax, DWORD PTR _lpObj$[ebp]
  02b3b	8b 08		 mov	 ecx, DWORD PTR [eax]
  02b3d	c1 e9 08	 shr	 ecx, 8
  02b40	88 4d fa	 mov	 BYTE PTR _pMsg$[ebp+6], cl

; 1884 : 	pMsg.bIndexL = SET_NUMBERL(lpObj->m_Index);

  02b43	8b 45 08	 mov	 eax, DWORD PTR _lpObj$[ebp]
  02b46	8b 08		 mov	 ecx, DWORD PTR [eax]
  02b48	81 e1 ff 00 00
	00		 and	 ecx, 255		; 000000ffH
  02b4e	88 4d fb	 mov	 BYTE PTR _pMsg$[ebp+7], cl

; 1885 : 
; 1886 : 	return wsJServerCli.DataSend((char*)&pMsg, pMsg.h.size);

  02b51	0f b6 45 f5	 movzx	 eax, BYTE PTR _pMsg$[ebp+1]
  02b55	50		 push	 eax
  02b56	8d 4d f4	 lea	 ecx, DWORD PTR _pMsg$[ebp]
  02b59	51		 push	 ecx
  02b5a	b9 00 00 00 00	 mov	 ecx, OFFSET ?wsJServerCli@@3VwsJoinServerCli@@A ; wsJServerCli
  02b5f	e8 00 00 00 00	 call	 ?DataSend@wsJoinServerCli@@QAEHPADH@Z ; wsJoinServerCli::DataSend

; 1887 : };

  02b64	5f		 pop	 edi
  02b65	5e		 pop	 esi
  02b66	5b		 pop	 ebx
  02b67	8b e5		 mov	 esp, ebp
  02b69	5d		 pop	 ebp
  02b6a	c2 04 00	 ret	 4
?ReqGensRewardDay@GensSystem@@QAEHPAUOBJECTSTRUCT@@@Z ENDP ; GensSystem::ReqGensRewardDay
_TEXT	ENDS
PUBLIC	?DGAnsRegGensMember@@YAXPAUPMSG_ANS_REG_GENS_MEMBER_EXDB@@@Z ; DGAnsRegGensMember
PUBLIC	?CGReqRegGensMember@@YAXPAUPMSG_REQ_REG_GENS_MEMBER@@H@Z ; CGReqRegGensMember
; Function compile flags: /Odtp /ZI
_TEXT	SEGMENT
tv72 = -88						; size = 4
_pMsg$229703 = -20					; size = 8
_lpGuildInfo$ = -12					; size = 4
_lpObj$ = -8						; size = 4
_bRet$ = -1						; size = 1
_lpMsg$ = 8						; size = 4
_iIndex$ = 12						; size = 4
?CGReqRegGensMember@@YAXPAUPMSG_REQ_REG_GENS_MEMBER@@H@Z PROC ; CGReqRegGensMember

; 1899 : {

  02b70	55		 push	 ebp
  02b71	8b ec		 mov	 ebp, esp
  02b73	83 ec 58	 sub	 esp, 88			; 00000058H
  02b76	53		 push	 ebx
  02b77	56		 push	 esi
  02b78	57		 push	 edi

; 1900 : 	unsigned char bRet;
; 1901 : 
; 1902 : 	LPOBJ lpObj = &gObj[iIndex];

  02b79	8b 45 0c	 mov	 eax, DWORD PTR _iIndex$[ebp]
  02b7c	69 c0 38 2b 00
	00		 imul	 eax, 11064		; 00002b38H
  02b82	03 05 00 00 00
	00		 add	 eax, DWORD PTR ?gObj@@3PAUOBJECTSTRUCT@@A ; gObj
  02b88	89 45 f8	 mov	 DWORD PTR _lpObj$[ebp], eax

; 1903 : 
; 1904 : 	_GUILD_INFO_STRUCT *lpGuildInfo = gObj[iIndex].lpGuild;

  02b8b	8b 45 0c	 mov	 eax, DWORD PTR _iIndex$[ebp]
  02b8e	69 c0 38 2b 00
	00		 imul	 eax, 11064		; 00002b38H
  02b94	8b 0d 00 00 00
	00		 mov	 ecx, DWORD PTR ?gObj@@3PAUOBJECTSTRUCT@@A ; gObj
  02b9a	8b 94 01 38 04
	00 00		 mov	 edx, DWORD PTR [ecx+eax+1080]
  02ba1	89 55 f4	 mov	 DWORD PTR _lpGuildInfo$[ebp], edx

; 1905 : 
; 1906 : 	if (!OBJMAX_RANGE(iIndex)) return;

  02ba4	83 7d 0c 00	 cmp	 DWORD PTR _iIndex$[ebp], 0
  02ba8	7d 09		 jge	 SHORT $LN15@CGReqRegGe
  02baa	c7 45 a8 00 00
	00 00		 mov	 DWORD PTR tv72[ebp], 0
  02bb1	eb 0f		 jmp	 SHORT $LN16@CGReqRegGe
$LN15@CGReqRegGe:
  02bb3	33 c0		 xor	 eax, eax
  02bb5	81 7d 0c 97 3a
	00 00		 cmp	 DWORD PTR _iIndex$[ebp], 14999 ; 00003a97H
  02bbc	0f 9e c0	 setle	 al
  02bbf	89 45 a8	 mov	 DWORD PTR tv72[ebp], eax
$LN16@CGReqRegGe:
  02bc2	83 7d a8 00	 cmp	 DWORD PTR tv72[ebp], 0
  02bc6	75 05		 jne	 SHORT $LN12@CGReqRegGe
  02bc8	e9 1d 01 00 00	 jmp	 $LN13@CGReqRegGe
$LN12@CGReqRegGe:

; 1907 : 
; 1908 : 	if (gObjIsConnected(iIndex))

  02bcd	8b 45 0c	 mov	 eax, DWORD PTR _iIndex$[ebp]
  02bd0	50		 push	 eax
  02bd1	e8 00 00 00 00	 call	 ?gObjIsConnected@@YAHH@Z ; gObjIsConnected
  02bd6	83 c4 04	 add	 esp, 4
  02bd9	85 c0		 test	 eax, eax
  02bdb	0f 84 09 01 00
	00		 je	 $LN13@CGReqRegGe

; 1909 : 	{
; 1910 : 		PMSG_ANS_REG_GENS_MEMBER_EXDB pMsg;	
; 1911 : 
; 1912 : 		pMsg.bInfluence = lpMsg->bResult;

  02be1	8b 45 08	 mov	 eax, DWORD PTR _lpMsg$[ebp]
  02be4	8a 48 04	 mov	 cl, BYTE PTR [eax+4]
  02be7	88 4d f1	 mov	 BYTE PTR _pMsg$229703[ebp+5], cl

; 1913 : 
; 1914 : 		//[GensSystem] [%s][%s] Gens Request - Join [%s]
; 1915 : 		if (!gGensSystem.GetGensInfluence(lpObj))

  02bea	8b 45 f8	 mov	 eax, DWORD PTR _lpObj$[ebp]
  02bed	50		 push	 eax
  02bee	b9 00 00 00 00	 mov	 ecx, OFFSET ?gGensSystem@@3VGensSystem@@A ; gGensSystem
  02bf3	e8 00 00 00 00	 call	 ?GetGensInfluence@GensSystem@@QAEHPAUOBJECTSTRUCT@@@Z ; GensSystem::GetGensInfluence
  02bf8	85 c0		 test	 eax, eax
  02bfa	75 08		 jne	 SHORT $LN10@CGReqRegGe

; 1916 : 		{
; 1917 : 			pMsg.bResult = 0; bRet = 1;

  02bfc	c6 45 f0 00	 mov	 BYTE PTR _pMsg$229703[ebp+4], 0
  02c00	c6 45 ff 01	 mov	 BYTE PTR _bRet$[ebp], 1
$LN10@CGReqRegGe:

; 1918 : 			//LogAddTD("[GensSystem] [%s][%s] Gens Request - Join", lpObj->AccountID, lpObj->Name);
; 1919 : 		}
; 1920 : 		
; 1921 : 		//GensSystem] [%s][%s] Gens Joining Failed to Gens be Same : [%s]
; 1922 : 		if (gGensSystem.GetGensInfluence(lpObj) > 0)

  02c04	8b 45 f8	 mov	 eax, DWORD PTR _lpObj$[ebp]
  02c07	50		 push	 eax
  02c08	b9 00 00 00 00	 mov	 ecx, OFFSET ?gGensSystem@@3VGensSystem@@A ; gGensSystem
  02c0d	e8 00 00 00 00	 call	 ?GetGensInfluence@GensSystem@@QAEHPAUOBJECTSTRUCT@@@Z ; GensSystem::GetGensInfluence
  02c12	85 c0		 test	 eax, eax
  02c14	7e 08		 jle	 SHORT $LN9@CGReqRegGe

; 1923 : 		{
; 1924 : 			pMsg.bResult = 1; bRet = 0;

  02c16	c6 45 f0 01	 mov	 BYTE PTR _pMsg$229703[ebp+4], 1
  02c1a	c6 45 ff 00	 mov	 BYTE PTR _bRet$[ebp], 0
$LN9@CGReqRegGe:

; 1925 : 			//LogAddTD("[GensSystem] [%s][%s] Gens Joining Failed to Gens be Same", lpObj->AccountID, lpObj->Name);
; 1926 : 		}
; 1927 : 		
; 1928 : 		//[GensSystem] [%s][%s] Gens Joining Failed to Below Gens leaving Time
; 1929 : 		//if (g_GensAbusingResetTime < 60)
; 1930 : 		//{
; 1931 : 		//	pMsg.bResult = 2; bRet = 1;
; 1932 : 		//}
; 1933 : 
; 1934 : 		//[GensSystem] [%s][%s] Gens Joining Failed to Below 50Lv
; 1935 : 		if (lpObj->Level < RequiredLevel )

  02c1e	8b 45 f8	 mov	 eax, DWORD PTR _lpObj$[ebp]
  02c21	0f bf 88 be 00
	00 00		 movsx	 ecx, WORD PTR [eax+190]
  02c28	3b 0d 00 00 00
	00		 cmp	 ecx, DWORD PTR ?RequiredLevel@@3HA ; RequiredLevel
  02c2e	7d 08		 jge	 SHORT $LN8@CGReqRegGe

; 1936 : 		{
; 1937 : 			pMsg.bResult = 3; bRet = 0;

  02c30	c6 45 f0 03	 mov	 BYTE PTR _pMsg$229703[ebp+4], 3
  02c34	c6 45 ff 00	 mov	 BYTE PTR _bRet$[ebp], 0
$LN8@CGReqRegGe:

; 1938 : 			//LogAddTD("[GensSystem] [%s][%s] Gens Joining Failed to Below 50Lv", lpObj->AccountID, lpObj->Name);
; 1939 : 		}
; 1940 : 
; 1941 : 		if (lpObj->Reset < RequiredReset )

  02c38	8b 45 f8	 mov	 eax, DWORD PTR _lpObj$[ebp]
  02c3b	8b 88 90 22 00
	00		 mov	 ecx, DWORD PTR [eax+8848]
  02c41	3b 0d 00 00 00
	00		 cmp	 ecx, DWORD PTR ?RequiredReset@@3HA ; RequiredReset
  02c47	7d 08		 jge	 SHORT $LN7@CGReqRegGe

; 1942 : 		{
; 1943 : 			pMsg.bResult = 3; bRet = 0;

  02c49	c6 45 f0 03	 mov	 BYTE PTR _pMsg$229703[ebp+4], 3
  02c4d	c6 45 ff 00	 mov	 BYTE PTR _bRet$[ebp], 0
$LN7@CGReqRegGe:

; 1944 : 			//LogAddTD("[GensSystem] [%s][%s] Gens Joining Failed to Below 50Lv", lpObj->AccountID, lpObj->Name);
; 1945 : 		}
; 1946 : 		
; 1947 : 		//[GensSystem] [%s][%s] Gens Joining Failed to Gens be Different Guild Leader [%s]
; 1948 : 		if (lpObj->GuildStatus >= 0)

  02c51	8b 45 f8	 mov	 eax, DWORD PTR _lpObj$[ebp]
  02c54	83 b8 48 04 00
	00 00		 cmp	 DWORD PTR [eax+1096], 0
  02c5b	7c 08		 jl	 SHORT $LN6@CGReqRegGe

; 1949 : 		{
; 1950 : 			pMsg.bResult = 4; bRet = 0;

  02c5d	c6 45 f0 04	 mov	 BYTE PTR _pMsg$229703[ebp+4], 4
  02c61	c6 45 ff 00	 mov	 BYTE PTR _bRet$[ebp], 0
$LN6@CGReqRegGe:

; 1951 : 			//LogAddTD("[GensSystem] [%s][%s] Gens Joining Failed to Gens be Different Guild Leader", lpObj->AccountID, lpObj->Name);
; 1952 : 		}
; 1953 : 		
; 1954 : 		//[GensSystem] [%s][%s] Gens Joining Failed to Not Register Guild Leader GuildName [%s]
; 1955 : 		if (lpObj->GuildStatus == GUILD_MASTER)

  02c65	8b 45 f8	 mov	 eax, DWORD PTR _lpObj$[ebp]
  02c68	81 b8 48 04 00
	00 80 00 00 00	 cmp	 DWORD PTR [eax+1096], 128 ; 00000080H
  02c72	75 08		 jne	 SHORT $LN5@CGReqRegGe

; 1956 : 		{
; 1957 : 			pMsg.bResult = 5; bRet = 0;

  02c74	c6 45 f0 05	 mov	 BYTE PTR _pMsg$229703[ebp+4], 5
  02c78	c6 45 ff 00	 mov	 BYTE PTR _bRet$[ebp], 0
$LN5@CGReqRegGe:

; 1958 : 			//LogAddTD("[GensSystem] [%s][%s] Gens Joining Failed to Gens be Different Guild Leader", lpObj->AccountID, lpObj->Name);
; 1959 : 		}
; 1960 : 		
; 1961 : 		//[GensSystem] [%s][%s] Gens Joining Failed to Already Partymember
; 1962 : 		if (lpObj->PartyNumber >= 0)

  02c7c	8b 45 f8	 mov	 eax, DWORD PTR _lpObj$[ebp]
  02c7f	83 b8 2c 04 00
	00 00		 cmp	 DWORD PTR [eax+1068], 0
  02c86	7c 08		 jl	 SHORT $LN4@CGReqRegGe

; 1963 : 		{
; 1964 : 			pMsg.bResult = 6; bRet = 0; 

  02c88	c6 45 f0 06	 mov	 BYTE PTR _pMsg$229703[ebp+4], 6
  02c8c	c6 45 ff 00	 mov	 BYTE PTR _bRet$[ebp], 0
$LN4@CGReqRegGe:

; 1965 : 		}
; 1966 : 		
; 1967 : 		//[GensSystem] [%s][%s] Gens Joining Failed to Union GuildMaster
; 1968 : 		if (lpGuildInfo != NULL && lpGuildInfo->iGuildUnion)

  02c90	83 7d f4 00	 cmp	 DWORD PTR _lpGuildInfo$[ebp], 0
  02c94	74 14		 je	 SHORT $LN3@CGReqRegGe
  02c96	8b 45 f4	 mov	 eax, DWORD PTR _lpGuildInfo$[ebp]
  02c99	83 b8 1c 07 00
	00 00		 cmp	 DWORD PTR [eax+1820], 0
  02ca0	74 08		 je	 SHORT $LN3@CGReqRegGe

; 1969 : 		{
; 1970 : 			pMsg.bResult = 7; bRet = 0;

  02ca2	c6 45 f0 07	 mov	 BYTE PTR _pMsg$229703[ebp+4], 7
  02ca6	c6 45 ff 00	 mov	 BYTE PTR _bRet$[ebp], 0
$LN3@CGReqRegGe:

; 1971 : 		}
; 1972 : 		
; 1973 : 		if (bRet)

  02caa	0f b6 45 ff	 movzx	 eax, BYTE PTR _bRet$[ebp]
  02cae	85 c0		 test	 eax, eax
  02cb0	74 18		 je	 SHORT $LN2@CGReqRegGe

; 1974 : 		{
; 1975 : 			gGensSystem.ReqRegGensMember(lpObj, lpMsg->bResult);

  02cb2	8b 45 08	 mov	 eax, DWORD PTR _lpMsg$[ebp]
  02cb5	0f b6 48 04	 movzx	 ecx, BYTE PTR [eax+4]
  02cb9	51		 push	 ecx
  02cba	8b 55 f8	 mov	 edx, DWORD PTR _lpObj$[ebp]
  02cbd	52		 push	 edx
  02cbe	b9 00 00 00 00	 mov	 ecx, OFFSET ?gGensSystem@@3VGensSystem@@A ; gGensSystem
  02cc3	e8 00 00 00 00	 call	 ?ReqRegGensMember@GensSystem@@QAEXPAUOBJECTSTRUCT@@E@Z ; GensSystem::ReqRegGensMember

; 1976 : 		}
; 1977 : 		else

  02cc8	eb 20		 jmp	 SHORT $LN13@CGReqRegGe
$LN2@CGReqRegGe:

; 1978 : 		{
; 1979 : 			pMsg.bIndexH = SET_NUMBERH(iIndex);

  02cca	8b 45 0c	 mov	 eax, DWORD PTR _iIndex$[ebp]
  02ccd	c1 e8 08	 shr	 eax, 8
  02cd0	88 45 f2	 mov	 BYTE PTR _pMsg$229703[ebp+6], al

; 1980 : 			pMsg.bIndexL = SET_NUMBERL(iIndex);

  02cd3	8b 45 0c	 mov	 eax, DWORD PTR _iIndex$[ebp]
  02cd6	25 ff 00 00 00	 and	 eax, 255		; 000000ffH
  02cdb	88 45 f3	 mov	 BYTE PTR _pMsg$229703[ebp+7], al

; 1981 : 			DGAnsRegGensMember((PMSG_ANS_REG_GENS_MEMBER_EXDB*)&pMsg);

  02cde	8d 45 ec	 lea	 eax, DWORD PTR _pMsg$229703[ebp]
  02ce1	50		 push	 eax
  02ce2	e8 00 00 00 00	 call	 ?DGAnsRegGensMember@@YAXPAUPMSG_ANS_REG_GENS_MEMBER_EXDB@@@Z ; DGAnsRegGensMember
  02ce7	83 c4 04	 add	 esp, 4
$LN13@CGReqRegGe:

; 1982 : 		}
; 1983 : 	}
; 1984 : }

  02cea	5f		 pop	 edi
  02ceb	5e		 pop	 esi
  02cec	5b		 pop	 ebx
  02ced	8b e5		 mov	 esp, ebp
  02cef	5d		 pop	 ebp
  02cf0	c3		 ret	 0
?CGReqRegGensMember@@YAXPAUPMSG_REQ_REG_GENS_MEMBER@@H@Z ENDP ; CGReqRegGensMember
_TEXT	ENDS
PUBLIC	?DGAnsSecedeGensMember@@YAXPAUPMSG_ANS_SECEDE_GENS_MEMBER_EXDB@@@Z ; DGAnsSecedeGensMember
PUBLIC	?CGReqSecedeGensMember@@YAXPAUPMSG_REQ_SEGEDE_GENS_MEMBER@@H@Z ; CGReqSecedeGensMember
; Function compile flags: /Odtp /ZI
_TEXT	SEGMENT
tv67 = -84						; size = 4
_pMsg$229728 = -16					; size = 7
_bRet$ = -5						; size = 1
_lpObj$ = -4						; size = 4
_lpMsg$ = 8						; size = 4
_iIndex$ = 12						; size = 4
?CGReqSecedeGensMember@@YAXPAUPMSG_REQ_SEGEDE_GENS_MEMBER@@H@Z PROC ; CGReqSecedeGensMember

; 1988 : {

  02d00	55		 push	 ebp
  02d01	8b ec		 mov	 ebp, esp
  02d03	83 ec 54	 sub	 esp, 84			; 00000054H
  02d06	53		 push	 ebx
  02d07	56		 push	 esi
  02d08	57		 push	 edi

; 1989 : 	if (!OBJMAX_RANGE(iIndex))

  02d09	83 7d 0c 00	 cmp	 DWORD PTR _iIndex$[ebp], 0
  02d0d	7d 09		 jge	 SHORT $LN9@CGReqSeced
  02d0f	c7 45 ac 00 00
	00 00		 mov	 DWORD PTR tv67[ebp], 0
  02d16	eb 0f		 jmp	 SHORT $LN10@CGReqSeced
$LN9@CGReqSeced:
  02d18	33 c0		 xor	 eax, eax
  02d1a	81 7d 0c 97 3a
	00 00		 cmp	 DWORD PTR _iIndex$[ebp], 14999 ; 00003a97H
  02d21	0f 9e c0	 setle	 al
  02d24	89 45 ac	 mov	 DWORD PTR tv67[ebp], eax
$LN10@CGReqSeced:
  02d27	83 7d ac 00	 cmp	 DWORD PTR tv67[ebp], 0
  02d2b	75 05		 jne	 SHORT $LN6@CGReqSeced

; 1990 : 		return;

  02d2d	e9 95 00 00 00	 jmp	 $LN7@CGReqSeced
$LN6@CGReqSeced:

; 1991 : 
; 1992 : 	LPOBJ lpObj = &gObj[iIndex];

  02d32	8b 45 0c	 mov	 eax, DWORD PTR _iIndex$[ebp]
  02d35	69 c0 38 2b 00
	00		 imul	 eax, 11064		; 00002b38H
  02d3b	03 05 00 00 00
	00		 add	 eax, DWORD PTR ?gObj@@3PAUOBJECTSTRUCT@@A ; gObj
  02d41	89 45 fc	 mov	 DWORD PTR _lpObj$[ebp], eax

; 1993 : 
; 1994 : 	unsigned char bRet = 1;

  02d44	c6 45 fb 01	 mov	 BYTE PTR _bRet$[ebp], 1

; 1995 : 
; 1996 : 	if (gObjIsConnected(iIndex))

  02d48	8b 45 0c	 mov	 eax, DWORD PTR _iIndex$[ebp]
  02d4b	50		 push	 eax
  02d4c	e8 00 00 00 00	 call	 ?gObjIsConnected@@YAHH@Z ; gObjIsConnected
  02d51	83 c4 04	 add	 esp, 4
  02d54	85 c0		 test	 eax, eax
  02d56	74 6f		 je	 SHORT $LN7@CGReqSeced

; 1997 : 	{
; 1998 : 		PMSG_ANS_SECEDE_GENS_MEMBER_EXDB pMsg;	
; 1999 : 
; 2000 : 		if( !gGensSystem.IsInfluenceNPC(lpObj) )

  02d58	8b 45 fc	 mov	 eax, DWORD PTR _lpObj$[ebp]
  02d5b	50		 push	 eax
  02d5c	b9 00 00 00 00	 mov	 ecx, OFFSET ?gGensSystem@@3VGensSystem@@A ; gGensSystem
  02d61	e8 00 00 00 00	 call	 ?IsInfluenceNPC@GensSystem@@QAE_NPAUOBJECTSTRUCT@@@Z ; GensSystem::IsInfluenceNPC
  02d66	0f b6 c8	 movzx	 ecx, al
  02d69	85 c9		 test	 ecx, ecx
  02d6b	75 08		 jne	 SHORT $LN4@CGReqSeced

; 2001 : 		{
; 2002 : 			pMsg.bResult = 3; bRet = 0;

  02d6d	c6 45 f4 03	 mov	 BYTE PTR _pMsg$229728[ebp+4], 3
  02d71	c6 45 fb 00	 mov	 BYTE PTR _bRet$[ebp], 0
$LN4@CGReqSeced:

; 2003 : 		}
; 2004 : 		// ----
; 2005 : 		if(  !gGensSystem.GetGensInfluence(lpObj) )

  02d75	8b 45 fc	 mov	 eax, DWORD PTR _lpObj$[ebp]
  02d78	50		 push	 eax
  02d79	b9 00 00 00 00	 mov	 ecx, OFFSET ?gGensSystem@@3VGensSystem@@A ; gGensSystem
  02d7e	e8 00 00 00 00	 call	 ?GetGensInfluence@GensSystem@@QAEHPAUOBJECTSTRUCT@@@Z ; GensSystem::GetGensInfluence
  02d83	85 c0		 test	 eax, eax
  02d85	75 08		 jne	 SHORT $LN3@CGReqSeced

; 2006 : 		{
; 2007 : 			pMsg.bResult = 1; bRet = 0;

  02d87	c6 45 f4 01	 mov	 BYTE PTR _pMsg$229728[ebp+4], 1
  02d8b	c6 45 fb 00	 mov	 BYTE PTR _bRet$[ebp], 0
$LN3@CGReqSeced:

; 2008 : 		}
; 2009 : 		// ----
; 2010 : 		if( bRet )

  02d8f	0f b6 45 fb	 movzx	 eax, BYTE PTR _bRet$[ebp]
  02d93	85 c0		 test	 eax, eax
  02d95	74 10		 je	 SHORT $LN2@CGReqSeced

; 2011 : 		{
; 2012 : 			gGensSystem.ReqSecedeGensMember(lpObj);

  02d97	8b 45 fc	 mov	 eax, DWORD PTR _lpObj$[ebp]
  02d9a	50		 push	 eax
  02d9b	b9 00 00 00 00	 mov	 ecx, OFFSET ?gGensSystem@@3VGensSystem@@A ; gGensSystem
  02da0	e8 00 00 00 00	 call	 ?ReqSecedeGensMember@GensSystem@@QAEHPAUOBJECTSTRUCT@@@Z ; GensSystem::ReqSecedeGensMember

; 2013 : 		}
; 2014 : 		else

  02da5	eb 20		 jmp	 SHORT $LN7@CGReqSeced
$LN2@CGReqSeced:

; 2015 : 		{
; 2016 : 			pMsg.bIndexH = SET_NUMBERH(iIndex); 

  02da7	8b 45 0c	 mov	 eax, DWORD PTR _iIndex$[ebp]
  02daa	c1 e8 08	 shr	 eax, 8
  02dad	88 45 f5	 mov	 BYTE PTR _pMsg$229728[ebp+5], al

; 2017 : 			pMsg.bIndexL = SET_NUMBERL(iIndex);

  02db0	8b 45 0c	 mov	 eax, DWORD PTR _iIndex$[ebp]
  02db3	25 ff 00 00 00	 and	 eax, 255		; 000000ffH
  02db8	88 45 f6	 mov	 BYTE PTR _pMsg$229728[ebp+6], al

; 2018 : 			DGAnsSecedeGensMember((PMSG_ANS_SECEDE_GENS_MEMBER_EXDB*)&pMsg);

  02dbb	8d 45 f0	 lea	 eax, DWORD PTR _pMsg$229728[ebp]
  02dbe	50		 push	 eax
  02dbf	e8 00 00 00 00	 call	 ?DGAnsSecedeGensMember@@YAXPAUPMSG_ANS_SECEDE_GENS_MEMBER_EXDB@@@Z ; DGAnsSecedeGensMember
  02dc4	83 c4 04	 add	 esp, 4
$LN7@CGReqSeced:

; 2019 : 		}
; 2020 : 	}
; 2021 : }

  02dc7	5f		 pop	 edi
  02dc8	5e		 pop	 esi
  02dc9	5b		 pop	 ebx
  02dca	8b e5		 mov	 esp, ebp
  02dcc	5d		 pop	 ebp
  02dcd	c3		 ret	 0
?CGReqSecedeGensMember@@YAXPAUPMSG_REQ_SEGEDE_GENS_MEMBER@@H@Z ENDP ; CGReqSecedeGensMember
_TEXT	ENDS
PUBLIC	?GDRewardReq@GensSystem@@QAEXPAUOBJECTSTRUCT@@@Z ; GensSystem::GDRewardReq
PUBLIC	?CGReqGensReward@@YAXPAUPMSG_GENS_REWARD_CODE@@H@Z ; CGReqGensReward
; Function compile flags: /Odtp /ZI
_TEXT	SEGMENT
tv67 = -72						; size = 4
_lpObj$ = -4						; size = 4
_lpMsg$ = 8						; size = 4
_iIndex$ = 12						; size = 4
?CGReqGensReward@@YAXPAUPMSG_GENS_REWARD_CODE@@H@Z PROC	; CGReqGensReward

; 2028 : {

  02dd0	55		 push	 ebp
  02dd1	8b ec		 mov	 ebp, esp
  02dd3	83 ec 48	 sub	 esp, 72			; 00000048H
  02dd6	53		 push	 ebx
  02dd7	56		 push	 esi
  02dd8	57		 push	 edi

; 2029 : 	if (!OBJMAX_RANGE(iIndex))

  02dd9	83 7d 0c 00	 cmp	 DWORD PTR _iIndex$[ebp], 0
  02ddd	7d 09		 jge	 SHORT $LN5@CGReqGensR
  02ddf	c7 45 b8 00 00
	00 00		 mov	 DWORD PTR tv67[ebp], 0
  02de6	eb 0f		 jmp	 SHORT $LN6@CGReqGensR
$LN5@CGReqGensR:
  02de8	33 c0		 xor	 eax, eax
  02dea	81 7d 0c 97 3a
	00 00		 cmp	 DWORD PTR _iIndex$[ebp], 14999 ; 00003a97H
  02df1	0f 9e c0	 setle	 al
  02df4	89 45 b8	 mov	 DWORD PTR tv67[ebp], eax
$LN6@CGReqGensR:
  02df7	83 7d b8 00	 cmp	 DWORD PTR tv67[ebp], 0
  02dfb	75 02		 jne	 SHORT $LN2@CGReqGensR

; 2030 : 		return;

  02dfd	eb 30		 jmp	 SHORT $LN3@CGReqGensR
$LN2@CGReqGensR:

; 2031 : 
; 2032 : 	LPOBJ lpObj = &gObj[iIndex];

  02dff	8b 45 0c	 mov	 eax, DWORD PTR _iIndex$[ebp]
  02e02	69 c0 38 2b 00
	00		 imul	 eax, 11064		; 00002b38H
  02e08	03 05 00 00 00
	00		 add	 eax, DWORD PTR ?gObj@@3PAUOBJECTSTRUCT@@A ; gObj
  02e0e	89 45 fc	 mov	 DWORD PTR _lpObj$[ebp], eax

; 2033 : 
; 2034 : 	if (gObjIsConnected(lpObj))

  02e11	8b 45 fc	 mov	 eax, DWORD PTR _lpObj$[ebp]
  02e14	50		 push	 eax
  02e15	e8 00 00 00 00	 call	 ?gObjIsConnected@@YAHPAUOBJECTSTRUCT@@@Z ; gObjIsConnected
  02e1a	83 c4 04	 add	 esp, 4
  02e1d	85 c0		 test	 eax, eax
  02e1f	74 0e		 je	 SHORT $LN3@CGReqGensR

; 2035 : 	{
; 2036 : 		//gGensSystem.ReqExDBGensRewardCheck(lpObj, lpMsg->bReward);
; 2037 : 		gGensSystem.GDRewardReq(lpObj);

  02e21	8b 45 fc	 mov	 eax, DWORD PTR _lpObj$[ebp]
  02e24	50		 push	 eax
  02e25	b9 00 00 00 00	 mov	 ecx, OFFSET ?gGensSystem@@3VGensSystem@@A ; gGensSystem
  02e2a	e8 00 00 00 00	 call	 ?GDRewardReq@GensSystem@@QAEXPAUOBJECTSTRUCT@@@Z ; GensSystem::GDRewardReq
$LN3@CGReqGensR:

; 2038 : 	}
; 2039 : }

  02e2f	5f		 pop	 edi
  02e30	5e		 pop	 esi
  02e31	5b		 pop	 ebx
  02e32	8b e5		 mov	 esp, ebp
  02e34	5d		 pop	 ebp
  02e35	c3		 ret	 0
?CGReqGensReward@@YAXPAUPMSG_GENS_REWARD_CODE@@H@Z ENDP	; CGReqGensReward
_TEXT	ENDS
PUBLIC	__$ArrayPad$
; Function compile flags: /Odtp /ZI
_TEXT	SEGMENT
_pMsg$ = -28						; size = 20
_this$ = -8						; size = 4
__$ArrayPad$ = -4					; size = 4
_lpObj$ = 8						; size = 4
?GDRewardReq@GensSystem@@QAEXPAUOBJECTSTRUCT@@@Z PROC	; GensSystem::GDRewardReq
; _this$ = ecx

; 2043 : {

  02e40	55		 push	 ebp
  02e41	8b ec		 mov	 ebp, esp
  02e43	83 ec 5c	 sub	 esp, 92			; 0000005cH
  02e46	a1 00 00 00 00	 mov	 eax, DWORD PTR ___security_cookie
  02e4b	33 c5		 xor	 eax, ebp
  02e4d	89 45 fc	 mov	 DWORD PTR __$ArrayPad$[ebp], eax
  02e50	53		 push	 ebx
  02e51	56		 push	 esi
  02e52	57		 push	 edi
  02e53	89 4d f8	 mov	 DWORD PTR _this$[ebp], ecx

; 2044 : 	PMSG_GENS_REWARD_REQ pMsg;
; 2045 : 	PHeadSubSetB((LPBYTE)&pMsg, 0xF8, 0x08, sizeof(pMsg));

  02e56	6a 14		 push	 20			; 00000014H
  02e58	6a 08		 push	 8
  02e5a	68 f8 00 00 00	 push	 248			; 000000f8H
  02e5f	8d 45 e4	 lea	 eax, DWORD PTR _pMsg$[ebp]
  02e62	50		 push	 eax
  02e63	e8 00 00 00 00	 call	 ?PHeadSubSetB@@YAXPAEEEH@Z ; PHeadSubSetB
  02e68	83 c4 10	 add	 esp, 16			; 00000010H

; 2046 : 	// ----
; 2047 : 	memcpy(pMsg.Name, lpObj->Name, 10);

  02e6b	6a 0a		 push	 10			; 0000000aH
  02e6d	8b 45 08	 mov	 eax, DWORD PTR _lpObj$[ebp]
  02e70	83 c0 77	 add	 eax, 119		; 00000077H
  02e73	50		 push	 eax
  02e74	8d 4d e8	 lea	 ecx, DWORD PTR _pMsg$[ebp+4]
  02e77	51		 push	 ecx
  02e78	e8 00 00 00 00	 call	 _memcpy
  02e7d	83 c4 0c	 add	 esp, 12			; 0000000cH

; 2048 : 	pMsg.aIndex = lpObj->m_Index;

  02e80	8b 45 08	 mov	 eax, DWORD PTR _lpObj$[ebp]
  02e83	8b 08		 mov	 ecx, DWORD PTR [eax]
  02e85	89 4d f4	 mov	 DWORD PTR _pMsg$[ebp+16], ecx

; 2049 : 	// ----
; 2050 : 	if( !gObjIsConnected(lpObj) )

  02e88	8b 45 08	 mov	 eax, DWORD PTR _lpObj$[ebp]
  02e8b	50		 push	 eax
  02e8c	e8 00 00 00 00	 call	 ?gObjIsConnected@@YAHPAUOBJECTSTRUCT@@@Z ; gObjIsConnected
  02e91	83 c4 04	 add	 esp, 4
  02e94	85 c0		 test	 eax, eax
  02e96	75 02		 jne	 SHORT $LN3@GDRewardRe

; 2051 : 	{
; 2052 : 		return;

  02e98	eb 44		 jmp	 SHORT $LN4@GDRewardRe
$LN3@GDRewardRe:

; 2053 : 	}
; 2054 : 	// ----
; 2055 : 	if( !this->IsRegGensInfluence(lpObj) || lpObj->m_GensClass > 8 )

  02e9a	8b 45 08	 mov	 eax, DWORD PTR _lpObj$[ebp]
  02e9d	50		 push	 eax
  02e9e	8b 4d f8	 mov	 ecx, DWORD PTR _this$[ebp]
  02ea1	e8 00 00 00 00	 call	 ?IsRegGensInfluence@GensSystem@@QAE_NPAUOBJECTSTRUCT@@@Z ; GensSystem::IsRegGensInfluence
  02ea6	0f b6 c8	 movzx	 ecx, al
  02ea9	85 c9		 test	 ecx, ecx
  02eab	74 0c		 je	 SHORT $LN1@GDRewardRe
  02ead	8b 45 08	 mov	 eax, DWORD PTR _lpObj$[ebp]
  02eb0	83 b8 f4 22 00
	00 08		 cmp	 DWORD PTR [eax+8948], 8
  02eb7	7e 12		 jle	 SHORT $LN2@GDRewardRe
$LN1@GDRewardRe:

; 2056 : 	{
; 2057 : 		gGensSystem.SendGensReward(lpObj, 2);

  02eb9	6a 02		 push	 2
  02ebb	8b 45 08	 mov	 eax, DWORD PTR _lpObj$[ebp]
  02ebe	50		 push	 eax
  02ebf	b9 00 00 00 00	 mov	 ecx, OFFSET ?gGensSystem@@3VGensSystem@@A ; gGensSystem
  02ec4	e8 00 00 00 00	 call	 ?SendGensReward@GensSystem@@QAEHPAUOBJECTSTRUCT@@E@Z ; GensSystem::SendGensReward

; 2058 : 		return;

  02ec9	eb 13		 jmp	 SHORT $LN4@GDRewardRe
$LN2@GDRewardRe:

; 2059 : 	}
; 2060 : 	// ----
; 2061 : 	cDBSMng.Send((char*)&pMsg, pMsg.h.size);

  02ecb	0f b6 45 e5	 movzx	 eax, BYTE PTR _pMsg$[ebp+1]
  02ecf	50		 push	 eax
  02ed0	8d 4d e4	 lea	 ecx, DWORD PTR _pMsg$[ebp]
  02ed3	51		 push	 ecx
  02ed4	b9 00 00 00 00	 mov	 ecx, OFFSET ?cDBSMng@@3VDBSockMng@@A ; cDBSMng
  02ed9	e8 00 00 00 00	 call	 ?Send@DBSockMng@@QAEHPADH@Z ; DBSockMng::Send
$LN4@GDRewardRe:

; 2062 : }

  02ede	5f		 pop	 edi
  02edf	5e		 pop	 esi
  02ee0	5b		 pop	 ebx
  02ee1	8b 4d fc	 mov	 ecx, DWORD PTR __$ArrayPad$[ebp]
  02ee4	33 cd		 xor	 ecx, ebp
  02ee6	e8 00 00 00 00	 call	 @__security_check_cookie@4
  02eeb	8b e5		 mov	 esp, ebp
  02eed	5d		 pop	 ebp
  02eee	c2 04 00	 ret	 4
?GDRewardReq@GensSystem@@QAEXPAUOBJECTSTRUCT@@@Z ENDP	; GensSystem::GDRewardReq
_TEXT	ENDS
PUBLIC	??_C@_0DP@BBOHDMFM@?$FLGensSystem?$FN?5?$FLReward?$FN?5?$FL?$CFs?$FN?5?$FL?$CFs?$FN?5@ ; `string'
PUBLIC	__$ArrayPad$
PUBLIC	?DGRewardAns@GensSystem@@QAEXPAUPMSG_GENS_REWARD_ANS@@@Z ; GensSystem::DGRewardAns
;	COMDAT ??_C@_0DP@BBOHDMFM@?$FLGensSystem?$FN?5?$FLReward?$FN?5?$FL?$CFs?$FN?5?$FL?$CFs?$FN?5@
CONST	SEGMENT
??_C@_0DP@BBOHDMFM@?$FLGensSystem?$FN?5?$FLReward?$FN?5?$FL?$CFs?$FN?5?$FL?$CFs?$FN?5@ DB '['
	DB	'GensSystem] [Reward] [%s] [%s] Class: %d, Count: %d, Item: %d'
	DB	00H						; `string'
; Function compile flags: /Odtp /ZI
CONST	ENDS
_TEXT	SEGMENT
_pMsg$ = -36						; size = 15
_i$229765 = -20						; size = 4
_RewardItem$ = -16					; size = 4
_lpObj$ = -12						; size = 4
_this$ = -8						; size = 4
__$ArrayPad$ = -4					; size = 4
_aRecv$ = 8						; size = 4
?DGRewardAns@GensSystem@@QAEXPAUPMSG_GENS_REWARD_ANS@@@Z PROC ; GensSystem::DGRewardAns
; _this$ = ecx

; 2065 : {

  02f00	55		 push	 ebp
  02f01	8b ec		 mov	 ebp, esp
  02f03	83 ec 64	 sub	 esp, 100		; 00000064H
  02f06	a1 00 00 00 00	 mov	 eax, DWORD PTR ___security_cookie
  02f0b	33 c5		 xor	 eax, ebp
  02f0d	89 45 fc	 mov	 DWORD PTR __$ArrayPad$[ebp], eax
  02f10	53		 push	 ebx
  02f11	56		 push	 esi
  02f12	57		 push	 edi
  02f13	89 4d f8	 mov	 DWORD PTR _this$[ebp], ecx

; 2066 : 	//0 - Complete
; 2067 : 	//1 - Gens ranking rewards are given out in the first week of each month
; 2068 : 	//2 - Not eligible to reward
; 2069 : 	//3	- Not have space
; 2070 : 	// ----
; 2071 : 	LPOBJ lpObj = &gObj[aRecv->aIndex];

  02f16	8b 45 08	 mov	 eax, DWORD PTR _aRecv$[ebp]
  02f19	8b 48 08	 mov	 ecx, DWORD PTR [eax+8]
  02f1c	69 c9 38 2b 00
	00		 imul	 ecx, 11064		; 00002b38H
  02f22	03 0d 00 00 00
	00		 add	 ecx, DWORD PTR ?gObj@@3PAUOBJECTSTRUCT@@A ; gObj
  02f28	89 4d f4	 mov	 DWORD PTR _lpObj$[ebp], ecx

; 2072 : 	// ----
; 2073 : 	if( !gObjIsConnected(lpObj) )

  02f2b	8b 45 f4	 mov	 eax, DWORD PTR _lpObj$[ebp]
  02f2e	50		 push	 eax
  02f2f	e8 00 00 00 00	 call	 ?gObjIsConnected@@YAHPAUOBJECTSTRUCT@@@Z ; gObjIsConnected
  02f34	83 c4 04	 add	 esp, 4
  02f37	85 c0		 test	 eax, eax
  02f39	75 05		 jne	 SHORT $LN6@DGRewardAn

; 2074 : 	{
; 2075 : 		return;

  02f3b	e9 80 01 00 00	 jmp	 $LN7@DGRewardAn
$LN6@DGRewardAn:

; 2076 : 	}
; 2077 : 	// ----
; 2078 : 	if( !aRecv->Result )

  02f40	8b 45 08	 mov	 eax, DWORD PTR _aRecv$[ebp]
  02f43	0f b6 48 04	 movzx	 ecx, BYTE PTR [eax+4]
  02f47	85 c9		 test	 ecx, ecx
  02f49	75 15		 jne	 SHORT $LN5@DGRewardAn

; 2079 : 	{
; 2080 : 		gGensSystem.SendGensReward(lpObj, 1);

  02f4b	6a 01		 push	 1
  02f4d	8b 45 f4	 mov	 eax, DWORD PTR _lpObj$[ebp]
  02f50	50		 push	 eax
  02f51	b9 00 00 00 00	 mov	 ecx, OFFSET ?gGensSystem@@3VGensSystem@@A ; gGensSystem
  02f56	e8 00 00 00 00	 call	 ?SendGensReward@GensSystem@@QAEHPAUOBJECTSTRUCT@@E@Z ; GensSystem::SendGensReward

; 2081 : 		return;

  02f5b	e9 60 01 00 00	 jmp	 $LN7@DGRewardAn
$LN5@DGRewardAn:

; 2082 : 	}
; 2083 : 	// ----
; 2084 : 	if( !GensRewardInventoryCheck(lpObj, this->RewardTableList[lpObj->m_GensClass].ItemCount) )

  02f60	8b 45 f4	 mov	 eax, DWORD PTR _lpObj$[ebp]
  02f63	8b 88 f4 22 00
	00		 mov	 ecx, DWORD PTR [eax+8948]
  02f69	c1 e1 04	 shl	 ecx, 4
  02f6c	8b 55 f8	 mov	 edx, DWORD PTR _this$[ebp]
  02f6f	0f b6 44 0a 29	 movzx	 eax, BYTE PTR [edx+ecx+41]
  02f74	50		 push	 eax
  02f75	8b 4d f4	 mov	 ecx, DWORD PTR _lpObj$[ebp]
  02f78	51		 push	 ecx
  02f79	8b 4d f8	 mov	 ecx, DWORD PTR _this$[ebp]
  02f7c	e8 00 00 00 00	 call	 ?GensRewardInventoryCheck@GensSystem@@QAE_NPAUOBJECTSTRUCT@@H@Z ; GensSystem::GensRewardInventoryCheck
  02f81	0f b6 d0	 movzx	 edx, al
  02f84	85 d2		 test	 edx, edx
  02f86	75 15		 jne	 SHORT $LN4@DGRewardAn

; 2085 : 	{
; 2086 : 		gGensSystem.SendGensReward(lpObj, 3);

  02f88	6a 03		 push	 3
  02f8a	8b 45 f4	 mov	 eax, DWORD PTR _lpObj$[ebp]
  02f8d	50		 push	 eax
  02f8e	b9 00 00 00 00	 mov	 ecx, OFFSET ?gGensSystem@@3VGensSystem@@A ; gGensSystem
  02f93	e8 00 00 00 00	 call	 ?SendGensReward@GensSystem@@QAEHPAUOBJECTSTRUCT@@E@Z ; GensSystem::SendGensReward

; 2087 : 		return;

  02f98	e9 23 01 00 00	 jmp	 $LN7@DGRewardAn
$LN4@DGRewardAn:

; 2088 : 	}
; 2089 : 	// ----
; 2090 : 	int RewardItem = ITEMGET(this->RewardTableList[lpObj->m_GensClass].ItemID, this->RewardTableList[lpObj->m_GensClass].ItemIndex);

  02f9d	8b 45 f4	 mov	 eax, DWORD PTR _lpObj$[ebp]
  02fa0	8b 88 f4 22 00
	00		 mov	 ecx, DWORD PTR [eax+8948]
  02fa6	c1 e1 04	 shl	 ecx, 4
  02fa9	8b 55 f8	 mov	 edx, DWORD PTR _this$[ebp]
  02fac	8b 44 0a 20	 mov	 eax, DWORD PTR [edx+ecx+32]
  02fb0	c1 e0 09	 shl	 eax, 9
  02fb3	8b 4d f4	 mov	 ecx, DWORD PTR _lpObj$[ebp]
  02fb6	8b 91 f4 22 00
	00		 mov	 edx, DWORD PTR [ecx+8948]
  02fbc	c1 e2 04	 shl	 edx, 4
  02fbf	8b 4d f8	 mov	 ecx, DWORD PTR _this$[ebp]
  02fc2	03 44 11 24	 add	 eax, DWORD PTR [ecx+edx+36]
  02fc6	89 45 f0	 mov	 DWORD PTR _RewardItem$[ebp], eax

; 2091 : 	// ----
; 2092 : 	for( int i = 0; i < this->RewardTableList[lpObj->m_GensClass].ItemCount; i++ )

  02fc9	c7 45 ec 00 00
	00 00		 mov	 DWORD PTR _i$229765[ebp], 0
  02fd0	eb 09		 jmp	 SHORT $LN3@DGRewardAn
$LN2@DGRewardAn:
  02fd2	8b 45 ec	 mov	 eax, DWORD PTR _i$229765[ebp]
  02fd5	83 c0 01	 add	 eax, 1
  02fd8	89 45 ec	 mov	 DWORD PTR _i$229765[ebp], eax
$LN3@DGRewardAn:
  02fdb	8b 45 f4	 mov	 eax, DWORD PTR _lpObj$[ebp]
  02fde	8b 88 f4 22 00
	00		 mov	 ecx, DWORD PTR [eax+8948]
  02fe4	c1 e1 04	 shl	 ecx, 4
  02fe7	8b 55 f8	 mov	 edx, DWORD PTR _this$[ebp]
  02fea	0f b6 44 0a 29	 movzx	 eax, BYTE PTR [edx+ecx+41]
  02fef	39 45 ec	 cmp	 DWORD PTR _i$229765[ebp], eax
  02ff2	7d 40		 jge	 SHORT $LN1@DGRewardAn

; 2093 : 	{
; 2094 : 		ItemSerialCreateSend(lpObj->m_Index, 235, 0, 0, RewardItem, this->RewardTableList[lpObj->m_GensClass].ItemLevel, 0, 0, 0, 0, 0, 0, 0);

  02ff4	6a 00		 push	 0
  02ff6	6a 00		 push	 0
  02ff8	6a 00		 push	 0
  02ffa	6a 00		 push	 0
  02ffc	6a 00		 push	 0
  02ffe	6a 00		 push	 0
  03000	6a 00		 push	 0
  03002	8b 45 f4	 mov	 eax, DWORD PTR _lpObj$[ebp]
  03005	8b 88 f4 22 00
	00		 mov	 ecx, DWORD PTR [eax+8948]
  0300b	c1 e1 04	 shl	 ecx, 4
  0300e	8b 55 f8	 mov	 edx, DWORD PTR _this$[ebp]
  03011	0f b6 44 0a 28	 movzx	 eax, BYTE PTR [edx+ecx+40]
  03016	50		 push	 eax
  03017	8b 4d f0	 mov	 ecx, DWORD PTR _RewardItem$[ebp]
  0301a	51		 push	 ecx
  0301b	6a 00		 push	 0
  0301d	6a 00		 push	 0
  0301f	68 eb 00 00 00	 push	 235			; 000000ebH
  03024	8b 55 f4	 mov	 edx, DWORD PTR _lpObj$[ebp]
  03027	8b 02		 mov	 eax, DWORD PTR [edx]
  03029	50		 push	 eax
  0302a	e8 00 00 00 00	 call	 ?ItemSerialCreateSend@@YAXHEEEHEEEEEHEE@Z ; ItemSerialCreateSend
  0302f	83 c4 34	 add	 esp, 52			; 00000034H

; 2095 : 	}

  03032	eb 9e		 jmp	 SHORT $LN2@DGRewardAn
$LN1@DGRewardAn:

; 2096 : 	// ----
; 2097 : 	LogAddTD("[GensSystem] [Reward] [%s] [%s] Class: %d, Count: %d, Item: %d",
; 2098 : 		lpObj->AccountID, lpObj->Name, lpObj->m_GensClass, this->RewardTableList[lpObj->m_GensClass].ItemCount, RewardItem);

  03034	8b 45 f0	 mov	 eax, DWORD PTR _RewardItem$[ebp]
  03037	50		 push	 eax
  03038	8b 4d f4	 mov	 ecx, DWORD PTR _lpObj$[ebp]
  0303b	8b 91 f4 22 00
	00		 mov	 edx, DWORD PTR [ecx+8948]
  03041	c1 e2 04	 shl	 edx, 4
  03044	8b 45 f8	 mov	 eax, DWORD PTR _this$[ebp]
  03047	0f b6 4c 10 29	 movzx	 ecx, BYTE PTR [eax+edx+41]
  0304c	51		 push	 ecx
  0304d	8b 55 f4	 mov	 edx, DWORD PTR _lpObj$[ebp]
  03050	8b 82 f4 22 00
	00		 mov	 eax, DWORD PTR [edx+8948]
  03056	50		 push	 eax
  03057	8b 4d f4	 mov	 ecx, DWORD PTR _lpObj$[ebp]
  0305a	83 c1 77	 add	 ecx, 119		; 00000077H
  0305d	51		 push	 ecx
  0305e	8b 55 f4	 mov	 edx, DWORD PTR _lpObj$[ebp]
  03061	83 c2 6c	 add	 edx, 108		; 0000006cH
  03064	52		 push	 edx
  03065	68 00 00 00 00	 push	 OFFSET ??_C@_0DP@BBOHDMFM@?$FLGensSystem?$FN?5?$FLReward?$FN?5?$FL?$CFs?$FN?5?$FL?$CFs?$FN?5@
  0306a	ff 15 00 00 00
	00		 call	 DWORD PTR ?LogAddTD@@3P6AXPADZZA ; LogAddTD
  03070	83 c4 18	 add	 esp, 24			; 00000018H

; 2099 : 	// ----
; 2100 : 	PMSG_GENS_REWARD_SET pMsg;
; 2101 : 	PHeadSubSetB((LPBYTE)&pMsg, 0xF8, 0x09, sizeof(pMsg));

  03073	6a 0f		 push	 15			; 0000000fH
  03075	6a 09		 push	 9
  03077	68 f8 00 00 00	 push	 248			; 000000f8H
  0307c	8d 45 dc	 lea	 eax, DWORD PTR _pMsg$[ebp]
  0307f	50		 push	 eax
  03080	e8 00 00 00 00	 call	 ?PHeadSubSetB@@YAXPAEEEH@Z ; PHeadSubSetB
  03085	83 c4 10	 add	 esp, 16			; 00000010H

; 2102 : 	// ----
; 2103 : 	memcpy(pMsg.Name, lpObj->Name, 10);

  03088	6a 0a		 push	 10			; 0000000aH
  0308a	8b 45 f4	 mov	 eax, DWORD PTR _lpObj$[ebp]
  0308d	83 c0 77	 add	 eax, 119		; 00000077H
  03090	50		 push	 eax
  03091	8d 4d e0	 lea	 ecx, DWORD PTR _pMsg$[ebp+4]
  03094	51		 push	 ecx
  03095	e8 00 00 00 00	 call	 _memcpy
  0309a	83 c4 0c	 add	 esp, 12			; 0000000cH

; 2104 : 	// ----
; 2105 : 	cDBSMng.Send((char*)&pMsg, pMsg.h.size);

  0309d	0f b6 45 dd	 movzx	 eax, BYTE PTR _pMsg$[ebp+1]
  030a1	50		 push	 eax
  030a2	8d 4d dc	 lea	 ecx, DWORD PTR _pMsg$[ebp]
  030a5	51		 push	 ecx
  030a6	b9 00 00 00 00	 mov	 ecx, OFFSET ?cDBSMng@@3VDBSockMng@@A ; cDBSMng
  030ab	e8 00 00 00 00	 call	 ?Send@DBSockMng@@QAEHPADH@Z ; DBSockMng::Send

; 2106 : 	gGensSystem.SendGensReward(lpObj, 0);

  030b0	6a 00		 push	 0
  030b2	8b 45 f4	 mov	 eax, DWORD PTR _lpObj$[ebp]
  030b5	50		 push	 eax
  030b6	b9 00 00 00 00	 mov	 ecx, OFFSET ?gGensSystem@@3VGensSystem@@A ; gGensSystem
  030bb	e8 00 00 00 00	 call	 ?SendGensReward@GensSystem@@QAEHPAUOBJECTSTRUCT@@E@Z ; GensSystem::SendGensReward
$LN7@DGRewardAn:

; 2107 : }

  030c0	5f		 pop	 edi
  030c1	5e		 pop	 esi
  030c2	5b		 pop	 ebx
  030c3	8b 4d fc	 mov	 ecx, DWORD PTR __$ArrayPad$[ebp]
  030c6	33 cd		 xor	 ecx, ebp
  030c8	e8 00 00 00 00	 call	 @__security_check_cookie@4
  030cd	8b e5		 mov	 esp, ebp
  030cf	5d		 pop	 ebp
  030d0	c2 04 00	 ret	 4
?DGRewardAns@GensSystem@@QAEXPAUPMSG_GENS_REWARD_ANS@@@Z ENDP ; GensSystem::DGRewardAns
_TEXT	ENDS
PUBLIC	?CGReqGensMemberInfo@@YAXPAUPMSG_REQ_GENS_INFO@@H@Z ; CGReqGensMemberInfo
; Function compile flags: /Odtp /ZI
_TEXT	SEGMENT
tv67 = -72						; size = 4
_lpObj$ = -4						; size = 4
_lpMsg$ = 8						; size = 4
_iIndex$ = 12						; size = 4
?CGReqGensMemberInfo@@YAXPAUPMSG_REQ_GENS_INFO@@H@Z PROC ; CGReqGensMemberInfo

; 2113 : {

  030e0	55		 push	 ebp
  030e1	8b ec		 mov	 ebp, esp
  030e3	83 ec 48	 sub	 esp, 72			; 00000048H
  030e6	53		 push	 ebx
  030e7	56		 push	 esi
  030e8	57		 push	 edi

; 2114 : 	if (!OBJMAX_RANGE(iIndex)) return;

  030e9	83 7d 0c 00	 cmp	 DWORD PTR _iIndex$[ebp], 0
  030ed	7d 09		 jge	 SHORT $LN6@CGReqGensM
  030ef	c7 45 b8 00 00
	00 00		 mov	 DWORD PTR tv67[ebp], 0
  030f6	eb 0f		 jmp	 SHORT $LN7@CGReqGensM
$LN6@CGReqGensM:
  030f8	33 c0		 xor	 eax, eax
  030fa	81 7d 0c 97 3a
	00 00		 cmp	 DWORD PTR _iIndex$[ebp], 14999 ; 00003a97H
  03101	0f 9e c0	 setle	 al
  03104	89 45 b8	 mov	 DWORD PTR tv67[ebp], eax
$LN7@CGReqGensM:
  03107	83 7d b8 00	 cmp	 DWORD PTR tv67[ebp], 0
  0310b	75 02		 jne	 SHORT $LN3@CGReqGensM
  0310d	eb 45		 jmp	 SHORT $LN4@CGReqGensM
$LN3@CGReqGensM:

; 2115 : 
; 2116 : 	LPOBJ lpObj = &gObj[iIndex];

  0310f	8b 45 0c	 mov	 eax, DWORD PTR _iIndex$[ebp]
  03112	69 c0 38 2b 00
	00		 imul	 eax, 11064		; 00002b38H
  03118	03 05 00 00 00
	00		 add	 eax, DWORD PTR ?gObj@@3PAUOBJECTSTRUCT@@A ; gObj
  0311e	89 45 fc	 mov	 DWORD PTR _lpObj$[ebp], eax

; 2117 : 
; 2118 : 	if (gObjIsConnected(lpObj))

  03121	8b 45 fc	 mov	 eax, DWORD PTR _lpObj$[ebp]
  03124	50		 push	 eax
  03125	e8 00 00 00 00	 call	 ?gObjIsConnected@@YAHPAUOBJECTSTRUCT@@@Z ; gObjIsConnected
  0312a	83 c4 04	 add	 esp, 4
  0312d	85 c0		 test	 eax, eax
  0312f	74 23		 je	 SHORT $LN4@CGReqGensM

; 2119 : 	{
; 2120 : 		if (gGensSystem.IsRegGensInfluence(lpObj))

  03131	8b 45 fc	 mov	 eax, DWORD PTR _lpObj$[ebp]
  03134	50		 push	 eax
  03135	b9 00 00 00 00	 mov	 ecx, OFFSET ?gGensSystem@@3VGensSystem@@A ; gGensSystem
  0313a	e8 00 00 00 00	 call	 ?IsRegGensInfluence@GensSystem@@QAE_NPAUOBJECTSTRUCT@@@Z ; GensSystem::IsRegGensInfluence
  0313f	0f b6 c8	 movzx	 ecx, al
  03142	85 c9		 test	 ecx, ecx
  03144	74 0e		 je	 SHORT $LN4@CGReqGensM

; 2121 : 		{
; 2122 : 			gGensSystem.ReqExDBGensInfo(lpObj);

  03146	8b 45 fc	 mov	 eax, DWORD PTR _lpObj$[ebp]
  03149	50		 push	 eax
  0314a	b9 00 00 00 00	 mov	 ecx, OFFSET ?gGensSystem@@3VGensSystem@@A ; gGensSystem
  0314f	e8 00 00 00 00	 call	 ?ReqExDBGensInfo@GensSystem@@QAEHPAUOBJECTSTRUCT@@@Z ; GensSystem::ReqExDBGensInfo
$LN4@CGReqGensM:

; 2123 : 		}
; 2124 : 	}
; 2125 : }

  03154	5f		 pop	 edi
  03155	5e		 pop	 esi
  03156	5b		 pop	 ebx
  03157	8b e5		 mov	 esp, ebp
  03159	5d		 pop	 ebp
  0315a	c3		 ret	 0
?CGReqGensMemberInfo@@YAXPAUPMSG_REQ_GENS_INFO@@H@Z ENDP ; CGReqGensMemberInfo
_TEXT	ENDS
PUBLIC	?DGAnsGensInfo@@YAXPAUPMSG_ANS_GENS_INFO_EXDB@@@Z ; DGAnsGensInfo
EXTRN	?gObjTeleport@@YAXHHHH@Z:PROC			; gObjTeleport
EXTRN	?gObjIsConnectedGP@@YAHH@Z:PROC			; gObjIsConnectedGP
; Function compile flags: /Odtp /ZI
_TEXT	SEGMENT
_lpObj$ = -8						; size = 4
_iObjIndex$ = -4					; size = 4
_lpMsg$ = 8						; size = 4
?DGAnsGensInfo@@YAXPAUPMSG_ANS_GENS_INFO_EXDB@@@Z PROC	; DGAnsGensInfo

; 2137 : {

  03160	55		 push	 ebp
  03161	8b ec		 mov	 ebp, esp
  03163	83 ec 48	 sub	 esp, 72			; 00000048H
  03166	53		 push	 ebx
  03167	56		 push	 esi
  03168	57		 push	 edi

; 2138 : 	int iObjIndex = MAKE_NUMBERW(lpMsg->wIndexH, lpMsg->wIndexL);

  03169	8b 45 08	 mov	 eax, DWORD PTR _lpMsg$[ebp]
  0316c	0f b7 48 08	 movzx	 ecx, WORD PTR [eax+8]
  03170	81 e1 ff 00 00
	00		 and	 ecx, 255		; 000000ffH
  03176	0f b6 d1	 movzx	 edx, cl
  03179	8b 45 08	 mov	 eax, DWORD PTR _lpMsg$[ebp]
  0317c	0f b7 48 06	 movzx	 ecx, WORD PTR [eax+6]
  03180	81 e1 ff 00 00
	00		 and	 ecx, 255		; 000000ffH
  03186	0f b6 c1	 movzx	 eax, cl
  03189	c1 e0 08	 shl	 eax, 8
  0318c	0b d0		 or	 edx, eax
  0318e	0f b7 ca	 movzx	 ecx, dx
  03191	89 4d fc	 mov	 DWORD PTR _iObjIndex$[ebp], ecx

; 2139 : 
; 2140 : 	LPOBJ lpObj = &gObj[iObjIndex];

  03194	8b 45 fc	 mov	 eax, DWORD PTR _iObjIndex$[ebp]
  03197	69 c0 38 2b 00
	00		 imul	 eax, 11064		; 00002b38H
  0319d	03 05 00 00 00
	00		 add	 eax, DWORD PTR ?gObj@@3PAUOBJECTSTRUCT@@A ; gObj
  031a3	89 45 f8	 mov	 DWORD PTR _lpObj$[ebp], eax

; 2141 : 
; 2142 : 	if (gObjIsConnectedGP(iObjIndex))

  031a6	8b 45 fc	 mov	 eax, DWORD PTR _iObjIndex$[ebp]
  031a9	50		 push	 eax
  031aa	e8 00 00 00 00	 call	 ?gObjIsConnectedGP@@YAHH@Z ; gObjIsConnectedGP
  031af	83 c4 04	 add	 esp, 4
  031b2	85 c0		 test	 eax, eax
  031b4	0f 84 36 01 00
	00		 je	 $LN8@DGAnsGensI

; 2143 : 	{
; 2144 : 		if (!lpMsg->iGensClass)

  031ba	8b 45 08	 mov	 eax, DWORD PTR _lpMsg$[ebp]
  031bd	83 78 10 00	 cmp	 DWORD PTR [eax+16], 0
  031c1	75 25		 jne	 SHORT $LN6@DGAnsGensI

; 2145 : 		{
; 2146 : 			gGensSystem.SetUserBattleZoneEnable(lpObj, BATTLE_ZONE_BLOCK);

  031c3	6a 00		 push	 0
  031c5	8b 45 f8	 mov	 eax, DWORD PTR _lpObj$[ebp]
  031c8	50		 push	 eax
  031c9	b9 00 00 00 00	 mov	 ecx, OFFSET ?gGensSystem@@3VGensSystem@@A ; gGensSystem
  031ce	e8 00 00 00 00	 call	 ?SetUserBattleZoneEnable@GensSystem@@QAEHPAUOBJECTSTRUCT@@H@Z ; GensSystem::SetUserBattleZoneEnable

; 2147 : 			//gGensSystem.SetGensInfluence(lpObj, NONE_INFLUENCE);
; 2148 : 			//-> Becoz it one more error in log only =/
; 2149 : 			gGensSystem.SetContributePoint(lpObj, 0);

  031d3	6a 00		 push	 0
  031d5	8b 45 f8	 mov	 eax, DWORD PTR _lpObj$[ebp]
  031d8	50		 push	 eax
  031d9	b9 00 00 00 00	 mov	 ecx, OFFSET ?gGensSystem@@3VGensSystem@@A ; gGensSystem
  031de	e8 00 00 00 00	 call	 ?SetContributePoint@GensSystem@@QAEHPAUOBJECTSTRUCT@@H@Z ; GensSystem::SetContributePoint

; 2150 : 		}
; 2151 : 		else

  031e3	e9 98 00 00 00	 jmp	 $LN5@DGAnsGensI
$LN6@DGAnsGensI:

; 2152 : 		{
; 2153 : 			if (lpMsg->bInfluence != LEAVED_INFLUENCE && lpMsg->bInfluence)

  031e8	8b 45 08	 mov	 eax, DWORD PTR _lpMsg$[ebp]
  031eb	0f b6 48 04	 movzx	 ecx, BYTE PTR [eax+4]
  031ef	83 f9 ff	 cmp	 ecx, -1
  031f2	74 1b		 je	 SHORT $LN4@DGAnsGensI
  031f4	8b 45 08	 mov	 eax, DWORD PTR _lpMsg$[ebp]
  031f7	0f b6 48 04	 movzx	 ecx, BYTE PTR [eax+4]
  031fb	85 c9		 test	 ecx, ecx
  031fd	74 10		 je	 SHORT $LN4@DGAnsGensI

; 2154 : 			{
; 2155 : 				gGensSystem.SetUserBattleZoneEnable(lpObj, BATTLE_ZONE_UNBLOCK);

  031ff	6a 01		 push	 1
  03201	8b 45 f8	 mov	 eax, DWORD PTR _lpObj$[ebp]
  03204	50		 push	 eax
  03205	b9 00 00 00 00	 mov	 ecx, OFFSET ?gGensSystem@@3VGensSystem@@A ; gGensSystem
  0320a	e8 00 00 00 00	 call	 ?SetUserBattleZoneEnable@GensSystem@@QAEHPAUOBJECTSTRUCT@@H@Z ; GensSystem::SetUserBattleZoneEnable
$LN4@DGAnsGensI:

; 2156 : 			}
; 2157 : 
; 2158 : 			gGensSystem.SetGensInfluence(lpObj, lpMsg->bInfluence);

  0320f	8b 45 08	 mov	 eax, DWORD PTR _lpMsg$[ebp]
  03212	0f b6 48 04	 movzx	 ecx, BYTE PTR [eax+4]
  03216	51		 push	 ecx
  03217	8b 55 f8	 mov	 edx, DWORD PTR _lpObj$[ebp]
  0321a	52		 push	 edx
  0321b	b9 00 00 00 00	 mov	 ecx, OFFSET ?gGensSystem@@3VGensSystem@@A ; gGensSystem
  03220	e8 00 00 00 00	 call	 ?SetGensInfluence@GensSystem@@QAEXPAUOBJECTSTRUCT@@H@Z ; GensSystem::SetGensInfluence

; 2159 : 			gGensSystem.SetContributePoint(lpObj, lpMsg->iContributePoint);

  03225	8b 45 08	 mov	 eax, DWORD PTR _lpMsg$[ebp]
  03228	8b 48 0c	 mov	 ecx, DWORD PTR [eax+12]
  0322b	51		 push	 ecx
  0322c	8b 55 f8	 mov	 edx, DWORD PTR _lpObj$[ebp]
  0322f	52		 push	 edx
  03230	b9 00 00 00 00	 mov	 ecx, OFFSET ?gGensSystem@@3VGensSystem@@A ; gGensSystem
  03235	e8 00 00 00 00	 call	 ?SetContributePoint@GensSystem@@QAEHPAUOBJECTSTRUCT@@H@Z ; GensSystem::SetContributePoint

; 2160 : 			gGensSystem.SetGensRanking(lpObj, lpMsg->iGensRanking);

  0323a	8b 45 08	 mov	 eax, DWORD PTR _lpMsg$[ebp]
  0323d	8b 48 14	 mov	 ecx, DWORD PTR [eax+20]
  03240	51		 push	 ecx
  03241	8b 55 f8	 mov	 edx, DWORD PTR _lpObj$[ebp]
  03244	52		 push	 edx
  03245	b9 00 00 00 00	 mov	 ecx, OFFSET ?gGensSystem@@3VGensSystem@@A ; gGensSystem
  0324a	e8 00 00 00 00	 call	 ?SetGensRanking@GensSystem@@QAEHPAUOBJECTSTRUCT@@H@Z ; GensSystem::SetGensRanking

; 2161 : 			gGensSystem.SetGensClass(lpObj, lpMsg->iGensClass);

  0324f	8b 45 08	 mov	 eax, DWORD PTR _lpMsg$[ebp]
  03252	8b 48 10	 mov	 ecx, DWORD PTR [eax+16]
  03255	51		 push	 ecx
  03256	8b 55 f8	 mov	 edx, DWORD PTR _lpObj$[ebp]
  03259	52		 push	 edx
  0325a	b9 00 00 00 00	 mov	 ecx, OFFSET ?gGensSystem@@3VGensSystem@@A ; gGensSystem
  0325f	e8 00 00 00 00	 call	 ?SetGensClass@GensSystem@@QAEHPAUOBJECTSTRUCT@@H@Z ; GensSystem::SetGensClass

; 2162 : 			gGensSystem.GensViewportListProtocol(lpObj);

  03264	8b 45 f8	 mov	 eax, DWORD PTR _lpObj$[ebp]
  03267	50		 push	 eax
  03268	b9 00 00 00 00	 mov	 ecx, OFFSET ?gGensSystem@@3VGensSystem@@A ; gGensSystem
  0326d	e8 00 00 00 00	 call	 ?GensViewportListProtocol@GensSystem@@QAEXPAUOBJECTSTRUCT@@@Z ; GensSystem::GensViewportListProtocol

; 2163 : 			gGensSystem.CalGensClass(lpObj);

  03272	8b 45 f8	 mov	 eax, DWORD PTR _lpObj$[ebp]
  03275	50		 push	 eax
  03276	b9 00 00 00 00	 mov	 ecx, OFFSET ?gGensSystem@@3VGensSystem@@A ; gGensSystem
  0327b	e8 00 00 00 00	 call	 ?CalGensClass@GensSystem@@QAEXPAUOBJECTSTRUCT@@@Z ; GensSystem::CalGensClass
$LN5@DGAnsGensI:

; 2164 : 		}
; 2165 : 
; 2166 : 		//LogAddTD("[GensSystem] Get DB GensInfo [%s][%s] GensName [%s]", lpObj->AccountID, lpObj->Name, gGensSystem.GetGensInfluenceName(lpObj));
; 2167 : 
; 2168 : 		gGensSystem.SendGensInfo(lpObj);

  03280	8b 45 f8	 mov	 eax, DWORD PTR _lpObj$[ebp]
  03283	50		 push	 eax
  03284	b9 00 00 00 00	 mov	 ecx, OFFSET ?gGensSystem@@3VGensSystem@@A ; gGensSystem
  03289	e8 00 00 00 00	 call	 ?SendGensInfo@GensSystem@@QAEHPAUOBJECTSTRUCT@@@Z ; GensSystem::SendGensInfo

; 2169 : 
; 2170 : 		if (gGensSystem.IsMapBattleZone(lpObj->MapNumber))

  0328e	8b 45 f8	 mov	 eax, DWORD PTR _lpObj$[ebp]
  03291	0f b6 88 49 01
	00 00		 movzx	 ecx, BYTE PTR [eax+329]
  03298	51		 push	 ecx
  03299	b9 00 00 00 00	 mov	 ecx, OFFSET ?gGensSystem@@3VGensSystem@@A ; gGensSystem
  0329e	e8 00 00 00 00	 call	 ?IsMapBattleZone@GensSystem@@QAEHH@Z ; GensSystem::IsMapBattleZone
  032a3	85 c0		 test	 eax, eax
  032a5	74 49		 je	 SHORT $LN8@DGAnsGensI

; 2171 : 		{
; 2172 : 			if (!gGensSystem.IsUserBattleZoneEnable(lpObj))

  032a7	8b 45 f8	 mov	 eax, DWORD PTR _lpObj$[ebp]
  032aa	50		 push	 eax
  032ab	b9 00 00 00 00	 mov	 ecx, OFFSET ?gGensSystem@@3VGensSystem@@A ; gGensSystem
  032b0	e8 00 00 00 00	 call	 ?IsUserBattleZoneEnable@GensSystem@@QAEHPAUOBJECTSTRUCT@@@Z ; GensSystem::IsUserBattleZoneEnable
  032b5	85 c0		 test	 eax, eax
  032b7	75 37		 jne	 SHORT $LN8@DGAnsGensI

; 2173 : 			{
; 2174 : 			 gObjTeleport(lpObj->m_Index, 0, 140, 125);

  032b9	6a 7d		 push	 125			; 0000007dH
  032bb	68 8c 00 00 00	 push	 140			; 0000008cH
  032c0	6a 00		 push	 0
  032c2	8b 45 f8	 mov	 eax, DWORD PTR _lpObj$[ebp]
  032c5	8b 08		 mov	 ecx, DWORD PTR [eax]
  032c7	51		 push	 ecx
  032c8	e8 00 00 00 00	 call	 ?gObjTeleport@@YAXHHHH@Z ; gObjTeleport
  032cd	83 c4 10	 add	 esp, 16			; 00000010H

; 2175 : 			 GCServerMsgStringSend(lMsg.Get(3451), lpObj->m_Index, 1);

  032d0	6a 01		 push	 1
  032d2	8b 45 f8	 mov	 eax, DWORD PTR _lpObj$[ebp]
  032d5	8b 08		 mov	 ecx, DWORD PTR [eax]
  032d7	51		 push	 ecx
  032d8	68 7b 0d 00 00	 push	 3451			; 00000d7bH
  032dd	b9 00 00 00 00	 mov	 ecx, OFFSET ?lMsg@@3VCMsg@@A ; lMsg
  032e2	e8 00 00 00 00	 call	 ?Get@CMsg@@QAEPADH@Z	; CMsg::Get
  032e7	50		 push	 eax
  032e8	e8 00 00 00 00	 call	 ?GCServerMsgStringSend@@YAXPADHE@Z ; GCServerMsgStringSend
  032ed	83 c4 0c	 add	 esp, 12			; 0000000cH
$LN8@DGAnsGensI:

; 2176 : 			}
; 2177 : 		}
; 2178 : 	}
; 2179 : 	else
; 2180 : 	{
; 2181 : 		//LogAddTD("error-L2 : Index %s %d", __FILE__, __LINE__);
; 2182 : 	}
; 2183 : }

  032f0	5f		 pop	 edi
  032f1	5e		 pop	 esi
  032f2	5b		 pop	 ebx
  032f3	8b e5		 mov	 esp, ebp
  032f5	5d		 pop	 ebp
  032f6	c3		 ret	 0
?DGAnsGensInfo@@YAXPAUPMSG_ANS_GENS_INFO_EXDB@@@Z ENDP	; DGAnsGensInfo
_TEXT	ENDS
PUBLIC	??_C@_0BH@LCDOHCGD@error?9L2?5?3?5Index?5?$CFs?5?$CFd?$AA@ ; `string'
PUBLIC	?__LINE__Var@?1??DGAnsRegGensMember@@YAXPAUPMSG_ANS_REG_GENS_MEMBER_EXDB@@@Z@4JA ; `DGAnsRegGensMember'::`2'::__LINE__Var
PUBLIC	??_C@_0DP@CKCPKGKP@?$FLGensSystem?$FN?5?$FL?$CFs?$FN?$FL?$CFs?$FN?5Gens?5Joini@ ; `string'
PUBLIC	??_C@_0EB@BOBHACGC@?$FLGensSystem?$FN?5?$FL?$CFs?$FN?$FL?$CFs?$FN?5Gens?5Joini@ ; `string'
PUBLIC	??_C@_0FG@BLNLLNJD@?$FLGensSystem?$FN?5?$FL?$CFs?$FN?$FL?$CFs?$FN?5Gens?5Joini@ ; `string'
PUBLIC	??_C@_0FB@GPJMBNBA@?$FLGensSystem?$FN?5?$FL?$CFs?$FN?$FL?$CFs?$FN?5Gens?5Joini@ ; `string'
PUBLIC	??_C@_0DI@NMHNBHFP@?$FLGensSystem?$FN?5?$FL?$CFs?$FN?$FL?$CFs?$FN?5Gens?5Joini@ ; `string'
PUBLIC	??_C@_0EF@NLAJMBCF@?$FLGensSystem?$FN?5?$FL?$CFs?$FN?$FL?$CFs?$FN?5Gens?5Joini@ ; `string'
PUBLIC	??_C@_0EB@ODPICHHE@?$FLGensSystem?$FN?5?$FL?$CFs?$FN?$FL?$CFs?$FN?5Gens?5Joini@ ; `string'
PUBLIC	??_C@_0CP@NKBBANCP@?$FLGensSystem?$FN?5?$FL?$CFs?$FN?$FL?$CFs?$FN?5Gens?5Reque@ ; `string'
EXTRN	?PHeadSubSetBE@@YAXPAEEEH@Z:PROC		; PHeadSubSetBE
;	COMDAT ??_C@_0BH@LCDOHCGD@error?9L2?5?3?5Index?5?$CFs?5?$CFd?$AA@
CONST	SEGMENT
??_C@_0BH@LCDOHCGD@error?9L2?5?3?5Index?5?$CFs?5?$CFd?$AA@ DB 'error-L2 :'
	DB	' Index %s %d', 00H				; `string'
CONST	ENDS
;	COMDAT ?__LINE__Var@?1??DGAnsRegGensMember@@YAXPAUPMSG_ANS_REG_GENS_MEMBER_EXDB@@@Z@4JA
_DATA	SEGMENT
?__LINE__Var@?1??DGAnsRegGensMember@@YAXPAUPMSG_ANS_REG_GENS_MEMBER_EXDB@@@Z@4JA DD 088bH ; `DGAnsRegGensMember'::`2'::__LINE__Var
_DATA	ENDS
;	COMDAT ??_C@_0DP@CKCPKGKP@?$FLGensSystem?$FN?5?$FL?$CFs?$FN?$FL?$CFs?$FN?5Gens?5Joini@
CONST	SEGMENT
??_C@_0DP@CKCPKGKP@?$FLGensSystem?$FN?5?$FL?$CFs?$FN?$FL?$CFs?$FN?5Gens?5Joini@ DB '['
	DB	'GensSystem] [%s][%s] Gens Joining Failed to Union GuildMaster'
	DB	00H						; `string'
CONST	ENDS
;	COMDAT ??_C@_0EB@BOBHACGC@?$FLGensSystem?$FN?5?$FL?$CFs?$FN?$FL?$CFs?$FN?5Gens?5Joini@
CONST	SEGMENT
??_C@_0EB@BOBHACGC@?$FLGensSystem?$FN?5?$FL?$CFs?$FN?$FL?$CFs?$FN?5Gens?5Joini@ DB '['
	DB	'GensSystem] [%s][%s] Gens Joining Failed to Already Partymemb'
	DB	'er', 00H					; `string'
CONST	ENDS
;	COMDAT ??_C@_0FG@BLNLLNJD@?$FLGensSystem?$FN?5?$FL?$CFs?$FN?$FL?$CFs?$FN?5Gens?5Joini@
CONST	SEGMENT
??_C@_0FG@BLNLLNJD@?$FLGensSystem?$FN?5?$FL?$CFs?$FN?$FL?$CFs?$FN?5Gens?5Joini@ DB '['
	DB	'GensSystem] [%s][%s] Gens Joining Failed to Not Register Guil'
	DB	'd Leader GuildName [%s]', 00H		; `string'
CONST	ENDS
;	COMDAT ??_C@_0FB@GPJMBNBA@?$FLGensSystem?$FN?5?$FL?$CFs?$FN?$FL?$CFs?$FN?5Gens?5Joini@
CONST	SEGMENT
??_C@_0FB@GPJMBNBA@?$FLGensSystem?$FN?5?$FL?$CFs?$FN?$FL?$CFs?$FN?5Gens?5Joini@ DB '['
	DB	'GensSystem] [%s][%s] Gens Joining Failed to Gens be Different'
	DB	' Guild Leader [%s]', 00H			; `string'
CONST	ENDS
;	COMDAT ??_C@_0DI@NMHNBHFP@?$FLGensSystem?$FN?5?$FL?$CFs?$FN?$FL?$CFs?$FN?5Gens?5Joini@
CONST	SEGMENT
??_C@_0DI@NMHNBHFP@?$FLGensSystem?$FN?5?$FL?$CFs?$FN?$FL?$CFs?$FN?5Gens?5Joini@ DB '['
	DB	'GensSystem] [%s][%s] Gens Joining Failed to Below 50Lv', 00H ; `string'
CONST	ENDS
;	COMDAT ??_C@_0EF@NLAJMBCF@?$FLGensSystem?$FN?5?$FL?$CFs?$FN?$FL?$CFs?$FN?5Gens?5Joini@
CONST	SEGMENT
??_C@_0EF@NLAJMBCF@?$FLGensSystem?$FN?5?$FL?$CFs?$FN?$FL?$CFs?$FN?5Gens?5Joini@ DB '['
	DB	'GensSystem] [%s][%s] Gens Joining Failed to Below Gens leavin'
	DB	'g Time', 00H				; `string'
CONST	ENDS
;	COMDAT ??_C@_0EB@ODPICHHE@?$FLGensSystem?$FN?5?$FL?$CFs?$FN?$FL?$CFs?$FN?5Gens?5Joini@
CONST	SEGMENT
??_C@_0EB@ODPICHHE@?$FLGensSystem?$FN?5?$FL?$CFs?$FN?$FL?$CFs?$FN?5Gens?5Joini@ DB '['
	DB	'GensSystem] [%s][%s] Gens Joining Failed to Gens be Same : [%'
	DB	's]', 00H					; `string'
CONST	ENDS
;	COMDAT ??_C@_0CP@NKBBANCP@?$FLGensSystem?$FN?5?$FL?$CFs?$FN?$FL?$CFs?$FN?5Gens?5Reque@
CONST	SEGMENT
??_C@_0CP@NKBBANCP@?$FLGensSystem?$FN?5?$FL?$CFs?$FN?$FL?$CFs?$FN?5Gens?5Reque@ DB '['
	DB	'GensSystem] [%s][%s] Gens Request - Join [%s]', 00H ; `string'
; Function compile flags: /Odtp /ZI
CONST	ENDS
_TEXT	SEGMENT
tv146 = -84						; size = 4
_pMsg$229805 = -16					; size = 6
_lpObj$ = -8						; size = 4
_iObjIndex$ = -4					; size = 4
_lpMsg$ = 8						; size = 4
?DGAnsRegGensMember@@YAXPAUPMSG_ANS_REG_GENS_MEMBER_EXDB@@@Z PROC ; DGAnsRegGensMember

; 2187 : {

  03300	55		 push	 ebp
  03301	8b ec		 mov	 ebp, esp
  03303	83 ec 54	 sub	 esp, 84			; 00000054H
  03306	53		 push	 ebx
  03307	56		 push	 esi
  03308	57		 push	 edi

; 2188 : 	int iObjIndex = MAKE_NUMBERW(lpMsg->bIndexH, lpMsg->bIndexL);

  03309	8b 45 08	 mov	 eax, DWORD PTR _lpMsg$[ebp]
  0330c	0f b6 48 07	 movzx	 ecx, BYTE PTR [eax+7]
  03310	81 e1 ff 00 00
	00		 and	 ecx, 255		; 000000ffH
  03316	0f b6 d1	 movzx	 edx, cl
  03319	8b 45 08	 mov	 eax, DWORD PTR _lpMsg$[ebp]
  0331c	0f b6 48 06	 movzx	 ecx, BYTE PTR [eax+6]
  03320	81 e1 ff 00 00
	00		 and	 ecx, 255		; 000000ffH
  03326	0f b6 c1	 movzx	 eax, cl
  03329	c1 e0 08	 shl	 eax, 8
  0332c	0b d0		 or	 edx, eax
  0332e	0f b7 ca	 movzx	 ecx, dx
  03331	89 4d fc	 mov	 DWORD PTR _iObjIndex$[ebp], ecx

; 2189 : 
; 2190 : 	LPOBJ lpObj = &gObj[iObjIndex];

  03334	8b 45 fc	 mov	 eax, DWORD PTR _iObjIndex$[ebp]
  03337	69 c0 38 2b 00
	00		 imul	 eax, 11064		; 00002b38H
  0333d	03 05 00 00 00
	00		 add	 eax, DWORD PTR ?gObj@@3PAUOBJECTSTRUCT@@A ; gObj
  03343	89 45 f8	 mov	 DWORD PTR _lpObj$[ebp], eax

; 2191 : 
; 2192 : 	if (gObjIsConnectedGP(lpObj->m_Index))

  03346	8b 45 f8	 mov	 eax, DWORD PTR _lpObj$[ebp]
  03349	8b 08		 mov	 ecx, DWORD PTR [eax]
  0334b	51		 push	 ecx
  0334c	e8 00 00 00 00	 call	 ?gObjIsConnectedGP@@YAHH@Z ; gObjIsConnectedGP
  03351	83 c4 04	 add	 esp, 4
  03354	85 c0		 test	 eax, eax
  03356	0f 84 02 02 00
	00		 je	 $LN14@DGAnsRegGe

; 2193 : 	{
; 2194 : 		PMSG_ANS_REG_GENS_MEBMER pMsg;
; 2195 : 
; 2196 : 		if (!lpMsg->bResult)

  0335c	8b 45 08	 mov	 eax, DWORD PTR _lpMsg$[ebp]
  0335f	0f b6 48 04	 movzx	 ecx, BYTE PTR [eax+4]
  03363	85 c9		 test	 ecx, ecx
  03365	75 63		 jne	 SHORT $LN13@DGAnsRegGe

; 2197 : 		{
; 2198 : 			lpObj->m_GensClass = 14; //-> For fix error with Influence[0] becoz Class = NONE

  03367	8b 45 f8	 mov	 eax, DWORD PTR _lpObj$[ebp]
  0336a	c7 80 f4 22 00
	00 0e 00 00 00	 mov	 DWORD PTR [eax+8948], 14 ; 0000000eH

; 2199 : 			// ----
; 2200 : 			gGensSystem.SetGensInfluence(lpObj, lpMsg->bInfluence);

  03374	8b 45 08	 mov	 eax, DWORD PTR _lpMsg$[ebp]
  03377	0f b6 48 05	 movzx	 ecx, BYTE PTR [eax+5]
  0337b	51		 push	 ecx
  0337c	8b 55 f8	 mov	 edx, DWORD PTR _lpObj$[ebp]
  0337f	52		 push	 edx
  03380	b9 00 00 00 00	 mov	 ecx, OFFSET ?gGensSystem@@3VGensSystem@@A ; gGensSystem
  03385	e8 00 00 00 00	 call	 ?SetGensInfluence@GensSystem@@QAEXPAUOBJECTSTRUCT@@H@Z ; GensSystem::SetGensInfluence

; 2201 : 			gGensSystem.SetUserBattleZoneEnable(lpObj, BATTLE_ZONE_UNBLOCK);

  0338a	6a 01		 push	 1
  0338c	8b 45 f8	 mov	 eax, DWORD PTR _lpObj$[ebp]
  0338f	50		 push	 eax
  03390	b9 00 00 00 00	 mov	 ecx, OFFSET ?gGensSystem@@3VGensSystem@@A ; gGensSystem
  03395	e8 00 00 00 00	 call	 ?SetUserBattleZoneEnable@GensSystem@@QAEHPAUOBJECTSTRUCT@@H@Z ; GensSystem::SetUserBattleZoneEnable

; 2202 : 			gGensSystem.GensViewportListProtocol(lpObj);

  0339a	8b 45 f8	 mov	 eax, DWORD PTR _lpObj$[ebp]
  0339d	50		 push	 eax
  0339e	b9 00 00 00 00	 mov	 ecx, OFFSET ?gGensSystem@@3VGensSystem@@A ; gGensSystem
  033a3	e8 00 00 00 00	 call	 ?GensViewportListProtocol@GensSystem@@QAEXPAUOBJECTSTRUCT@@@Z ; GensSystem::GensViewportListProtocol

; 2203 : 			gGensSystem.SetContributePoint(lpObj, StartContribution);

  033a8	a1 00 00 00 00	 mov	 eax, DWORD PTR ?StartContribution@@3HA ; StartContribution
  033ad	50		 push	 eax
  033ae	8b 4d f8	 mov	 ecx, DWORD PTR _lpObj$[ebp]
  033b1	51		 push	 ecx
  033b2	b9 00 00 00 00	 mov	 ecx, OFFSET ?gGensSystem@@3VGensSystem@@A ; gGensSystem
  033b7	e8 00 00 00 00	 call	 ?SetContributePoint@GensSystem@@QAEHPAUOBJECTSTRUCT@@H@Z ; GensSystem::SetContributePoint

; 2204 : 	 		gGensSystem.GDReqSaveContributePoint(lpObj);

  033bc	8b 45 f8	 mov	 eax, DWORD PTR _lpObj$[ebp]
  033bf	50		 push	 eax
  033c0	b9 00 00 00 00	 mov	 ecx, OFFSET ?gGensSystem@@3VGensSystem@@A ; gGensSystem
  033c5	e8 00 00 00 00	 call	 ?GDReqSaveContributePoint@GensSystem@@QAEHPAUOBJECTSTRUCT@@@Z ; GensSystem::GDReqSaveContributePoint
$LN13@DGAnsRegGe:

; 2205 : 		}
; 2206 : 
; 2207 : 		PHeadSubSetBE((LPBYTE)&pMsg, 0xF8, 0x02, sizeof(pMsg));

  033ca	6a 06		 push	 6
  033cc	6a 02		 push	 2
  033ce	68 f8 00 00 00	 push	 248			; 000000f8H
  033d3	8d 45 f0	 lea	 eax, DWORD PTR _pMsg$229805[ebp]
  033d6	50		 push	 eax
  033d7	e8 00 00 00 00	 call	 ?PHeadSubSetBE@@YAXPAEEEH@Z ; PHeadSubSetBE
  033dc	83 c4 10	 add	 esp, 16			; 00000010H

; 2208 : 		pMsg.bResult	= lpMsg->bResult; 

  033df	8b 45 08	 mov	 eax, DWORD PTR _lpMsg$[ebp]
  033e2	8a 48 04	 mov	 cl, BYTE PTR [eax+4]
  033e5	88 4d f4	 mov	 BYTE PTR _pMsg$229805[ebp+4], cl

; 2209 : 		pMsg.iInfluence = lpMsg->bInfluence;

  033e8	8b 45 08	 mov	 eax, DWORD PTR _lpMsg$[ebp]
  033eb	8a 48 05	 mov	 cl, BYTE PTR [eax+5]
  033ee	88 4d f5	 mov	 BYTE PTR _pMsg$229805[ebp+5], cl

; 2210 : 		DataSend(lpObj->m_Index, (LPBYTE)&pMsg, pMsg.h.size);

  033f1	0f b6 45 f1	 movzx	 eax, BYTE PTR _pMsg$229805[ebp+1]
  033f5	50		 push	 eax
  033f6	8d 4d f0	 lea	 ecx, DWORD PTR _pMsg$229805[ebp]
  033f9	51		 push	 ecx
  033fa	8b 55 f8	 mov	 edx, DWORD PTR _lpObj$[ebp]
  033fd	8b 02		 mov	 eax, DWORD PTR [edx]
  033ff	50		 push	 eax
  03400	e8 00 00 00 00	 call	 ?DataSend@@YAHHPAEK@Z	; DataSend
  03405	83 c4 0c	 add	 esp, 12			; 0000000cH

; 2211 : 		
; 2212 : 		switch (lpMsg->bResult)

  03408	8b 45 08	 mov	 eax, DWORD PTR _lpMsg$[ebp]
  0340b	0f b6 48 04	 movzx	 ecx, BYTE PTR [eax+4]
  0340f	89 4d ac	 mov	 DWORD PTR tv146[ebp], ecx
  03412	83 7d ac 07	 cmp	 DWORD PTR tv146[ebp], 7
  03416	0f 87 3e 01 00
	00		 ja	 $LN2@DGAnsRegGe
  0341c	8b 55 ac	 mov	 edx, DWORD PTR tv146[ebp]
  0341f	ff 24 95 00 00
	00 00		 jmp	 DWORD PTR $LN17@DGAnsRegGe[edx*4]
$LN10@DGAnsRegGe:

; 2213 : 		{
; 2214 : 		case 0:
; 2215 : 			LogAddTD("[GensSystem] [%s][%s] Gens Request - Join [%s]", lpObj->AccountID, lpObj->Name, gGensSystem.GetGensInfluenceName(lpObj));

  03426	8b 45 f8	 mov	 eax, DWORD PTR _lpObj$[ebp]
  03429	50		 push	 eax
  0342a	b9 00 00 00 00	 mov	 ecx, OFFSET ?gGensSystem@@3VGensSystem@@A ; gGensSystem
  0342f	e8 00 00 00 00	 call	 ?GetGensInfluenceName@GensSystem@@QAEPADPAUOBJECTSTRUCT@@@Z ; GensSystem::GetGensInfluenceName
  03434	50		 push	 eax
  03435	8b 4d f8	 mov	 ecx, DWORD PTR _lpObj$[ebp]
  03438	83 c1 77	 add	 ecx, 119		; 00000077H
  0343b	51		 push	 ecx
  0343c	8b 55 f8	 mov	 edx, DWORD PTR _lpObj$[ebp]
  0343f	83 c2 6c	 add	 edx, 108		; 0000006cH
  03442	52		 push	 edx
  03443	68 00 00 00 00	 push	 OFFSET ??_C@_0CP@NKBBANCP@?$FLGensSystem?$FN?5?$FL?$CFs?$FN?$FL?$CFs?$FN?5Gens?5Reque@
  03448	ff 15 00 00 00
	00		 call	 DWORD PTR ?LogAddTD@@3P6AXPADZZA ; LogAddTD
  0344e	83 c4 10	 add	 esp, 16			; 00000010H

; 2216 : 	 	break;

  03451	e9 06 01 00 00	 jmp	 $LN11@DGAnsRegGe
$LN9@DGAnsRegGe:

; 2217 : 
; 2218 : 		case 1:
; 2219 : 			LogAddTD("[GensSystem] [%s][%s] Gens Joining Failed to Gens be Same : [%s]", lpObj->AccountID, lpObj->Name, gGensSystem.GetGensInfluenceName(lpObj));

  03456	8b 45 f8	 mov	 eax, DWORD PTR _lpObj$[ebp]
  03459	50		 push	 eax
  0345a	b9 00 00 00 00	 mov	 ecx, OFFSET ?gGensSystem@@3VGensSystem@@A ; gGensSystem
  0345f	e8 00 00 00 00	 call	 ?GetGensInfluenceName@GensSystem@@QAEPADPAUOBJECTSTRUCT@@@Z ; GensSystem::GetGensInfluenceName
  03464	50		 push	 eax
  03465	8b 4d f8	 mov	 ecx, DWORD PTR _lpObj$[ebp]
  03468	83 c1 77	 add	 ecx, 119		; 00000077H
  0346b	51		 push	 ecx
  0346c	8b 55 f8	 mov	 edx, DWORD PTR _lpObj$[ebp]
  0346f	83 c2 6c	 add	 edx, 108		; 0000006cH
  03472	52		 push	 edx
  03473	68 00 00 00 00	 push	 OFFSET ??_C@_0EB@ODPICHHE@?$FLGensSystem?$FN?5?$FL?$CFs?$FN?$FL?$CFs?$FN?5Gens?5Joini@
  03478	ff 15 00 00 00
	00		 call	 DWORD PTR ?LogAddTD@@3P6AXPADZZA ; LogAddTD
  0347e	83 c4 10	 add	 esp, 16			; 00000010H

; 2220 : 			break;

  03481	e9 d6 00 00 00	 jmp	 $LN11@DGAnsRegGe
$LN8@DGAnsRegGe:

; 2221 : 
; 2222 : 	 case 2:
; 2223 : 			LogAddTD("[GensSystem] [%s][%s] Gens Joining Failed to Below Gens leaving Time", lpObj->AccountID, lpObj->Name);

  03486	8b 45 f8	 mov	 eax, DWORD PTR _lpObj$[ebp]
  03489	83 c0 77	 add	 eax, 119		; 00000077H
  0348c	50		 push	 eax
  0348d	8b 4d f8	 mov	 ecx, DWORD PTR _lpObj$[ebp]
  03490	83 c1 6c	 add	 ecx, 108		; 0000006cH
  03493	51		 push	 ecx
  03494	68 00 00 00 00	 push	 OFFSET ??_C@_0EF@NLAJMBCF@?$FLGensSystem?$FN?5?$FL?$CFs?$FN?$FL?$CFs?$FN?5Gens?5Joini@
  03499	ff 15 00 00 00
	00		 call	 DWORD PTR ?LogAddTD@@3P6AXPADZZA ; LogAddTD
  0349f	83 c4 0c	 add	 esp, 12			; 0000000cH

; 2224 : 			break;

  034a2	e9 b5 00 00 00	 jmp	 $LN11@DGAnsRegGe
$LN7@DGAnsRegGe:

; 2225 : 
; 2226 : 		case 3:
; 2227 : 		 LogAddTD("[GensSystem] [%s][%s] Gens Joining Failed to Below 50Lv", lpObj->AccountID, lpObj->Name);

  034a7	8b 45 f8	 mov	 eax, DWORD PTR _lpObj$[ebp]
  034aa	83 c0 77	 add	 eax, 119		; 00000077H
  034ad	50		 push	 eax
  034ae	8b 4d f8	 mov	 ecx, DWORD PTR _lpObj$[ebp]
  034b1	83 c1 6c	 add	 ecx, 108		; 0000006cH
  034b4	51		 push	 ecx
  034b5	68 00 00 00 00	 push	 OFFSET ??_C@_0DI@NMHNBHFP@?$FLGensSystem?$FN?5?$FL?$CFs?$FN?$FL?$CFs?$FN?5Gens?5Joini@
  034ba	ff 15 00 00 00
	00		 call	 DWORD PTR ?LogAddTD@@3P6AXPADZZA ; LogAddTD
  034c0	83 c4 0c	 add	 esp, 12			; 0000000cH

; 2228 : 			break;

  034c3	e9 94 00 00 00	 jmp	 $LN11@DGAnsRegGe
$LN6@DGAnsRegGe:

; 2229 : 
; 2230 : 		case 4:
; 2231 : 			LogAddTD("[GensSystem] [%s][%s] Gens Joining Failed to Gens be Different Guild Leader [%s]", lpObj->AccountID, lpObj->Name, lpObj->lpGuild->Names);

  034c8	8b 45 f8	 mov	 eax, DWORD PTR _lpObj$[ebp]
  034cb	8b 88 38 04 00
	00		 mov	 ecx, DWORD PTR [eax+1080]
  034d1	83 c1 2f	 add	 ecx, 47			; 0000002fH
  034d4	51		 push	 ecx
  034d5	8b 55 f8	 mov	 edx, DWORD PTR _lpObj$[ebp]
  034d8	83 c2 77	 add	 edx, 119		; 00000077H
  034db	52		 push	 edx
  034dc	8b 45 f8	 mov	 eax, DWORD PTR _lpObj$[ebp]
  034df	83 c0 6c	 add	 eax, 108		; 0000006cH
  034e2	50		 push	 eax
  034e3	68 00 00 00 00	 push	 OFFSET ??_C@_0FB@GPJMBNBA@?$FLGensSystem?$FN?5?$FL?$CFs?$FN?$FL?$CFs?$FN?5Gens?5Joini@
  034e8	ff 15 00 00 00
	00		 call	 DWORD PTR ?LogAddTD@@3P6AXPADZZA ; LogAddTD
  034ee	83 c4 10	 add	 esp, 16			; 00000010H

; 2232 : 			break;

  034f1	eb 69		 jmp	 SHORT $LN11@DGAnsRegGe
$LN5@DGAnsRegGe:

; 2233 : 
; 2234 : 		case 5:
; 2235 : 			LogAddTD("[GensSystem] [%s][%s] Gens Joining Failed to Not Register Guild Leader GuildName [%s]", lpObj->AccountID, lpObj->Name, lpObj->lpGuild->Name);      

  034f3	8b 45 f8	 mov	 eax, DWORD PTR _lpObj$[ebp]
  034f6	8b 88 38 04 00
	00		 mov	 ecx, DWORD PTR [eax+1080]
  034fc	83 c1 04	 add	 ecx, 4
  034ff	51		 push	 ecx
  03500	8b 55 f8	 mov	 edx, DWORD PTR _lpObj$[ebp]
  03503	83 c2 77	 add	 edx, 119		; 00000077H
  03506	52		 push	 edx
  03507	8b 45 f8	 mov	 eax, DWORD PTR _lpObj$[ebp]
  0350a	83 c0 6c	 add	 eax, 108		; 0000006cH
  0350d	50		 push	 eax
  0350e	68 00 00 00 00	 push	 OFFSET ??_C@_0FG@BLNLLNJD@?$FLGensSystem?$FN?5?$FL?$CFs?$FN?$FL?$CFs?$FN?5Gens?5Joini@
  03513	ff 15 00 00 00
	00		 call	 DWORD PTR ?LogAddTD@@3P6AXPADZZA ; LogAddTD
  03519	83 c4 10	 add	 esp, 16			; 00000010H

; 2236 : 			break;

  0351c	eb 3e		 jmp	 SHORT $LN11@DGAnsRegGe
$LN4@DGAnsRegGe:

; 2237 : 
; 2238 : 		case 6:
; 2239 : 			LogAddTD("[GensSystem] [%s][%s] Gens Joining Failed to Already Partymember", lpObj->AccountID, lpObj->Name);

  0351e	8b 45 f8	 mov	 eax, DWORD PTR _lpObj$[ebp]
  03521	83 c0 77	 add	 eax, 119		; 00000077H
  03524	50		 push	 eax
  03525	8b 4d f8	 mov	 ecx, DWORD PTR _lpObj$[ebp]
  03528	83 c1 6c	 add	 ecx, 108		; 0000006cH
  0352b	51		 push	 ecx
  0352c	68 00 00 00 00	 push	 OFFSET ??_C@_0EB@BOBHACGC@?$FLGensSystem?$FN?5?$FL?$CFs?$FN?$FL?$CFs?$FN?5Gens?5Joini@
  03531	ff 15 00 00 00
	00		 call	 DWORD PTR ?LogAddTD@@3P6AXPADZZA ; LogAddTD
  03537	83 c4 0c	 add	 esp, 12			; 0000000cH

; 2240 : 			break;

  0353a	eb 20		 jmp	 SHORT $LN11@DGAnsRegGe
$LN3@DGAnsRegGe:

; 2241 : 
; 2242 : 		case 7:
; 2243 : 			LogAddTD("[GensSystem] [%s][%s] Gens Joining Failed to Union GuildMaster", lpObj->AccountID, lpObj->Name);

  0353c	8b 45 f8	 mov	 eax, DWORD PTR _lpObj$[ebp]
  0353f	83 c0 77	 add	 eax, 119		; 00000077H
  03542	50		 push	 eax
  03543	8b 4d f8	 mov	 ecx, DWORD PTR _lpObj$[ebp]
  03546	83 c1 6c	 add	 ecx, 108		; 0000006cH
  03549	51		 push	 ecx
  0354a	68 00 00 00 00	 push	 OFFSET ??_C@_0DP@CKCPKGKP@?$FLGensSystem?$FN?5?$FL?$CFs?$FN?$FL?$CFs?$FN?5Gens?5Joini@
  0354f	ff 15 00 00 00
	00		 call	 DWORD PTR ?LogAddTD@@3P6AXPADZZA ; LogAddTD
  03555	83 c4 0c	 add	 esp, 12			; 0000000cH

; 2244 : 			break;

  03558	eb 02		 jmp	 SHORT $LN11@DGAnsRegGe
$LN2@DGAnsRegGe:

; 2245 : 
; 2246 : 		default:
; 2247 : 			return;

  0355a	eb 1e		 jmp	 SHORT $LN15@DGAnsRegGe
$LN11@DGAnsRegGe:

; 2248 : 		}
; 2249 : 	}
; 2250 : 	else

  0355c	eb 1c		 jmp	 SHORT $LN15@DGAnsRegGe
$LN14@DGAnsRegGe:

; 2251 : 	{
; 2252 : 		LogAddTD("error-L2 : Index %s %d", __FILE__, __LINE__);

  0355e	a1 00 00 00 00	 mov	 eax, DWORD PTR ?__LINE__Var@?1??DGAnsRegGensMember@@YAXPAUPMSG_ANS_REG_GENS_MEMBER_EXDB@@@Z@4JA
  03563	83 c0 41	 add	 eax, 65			; 00000041H
  03566	50		 push	 eax
  03567	68 00 00 00 00	 push	 OFFSET ??_C@_0EC@HBCPMHBL@d?3?2projects?2exteam6?43?2source?2gam@
  0356c	68 00 00 00 00	 push	 OFFSET ??_C@_0BH@LCDOHCGD@error?9L2?5?3?5Index?5?$CFs?5?$CFd?$AA@
  03571	ff 15 00 00 00
	00		 call	 DWORD PTR ?LogAddTD@@3P6AXPADZZA ; LogAddTD
  03577	83 c4 0c	 add	 esp, 12			; 0000000cH
$LN15@DGAnsRegGe:

; 2253 : 	}
; 2254 : }

  0357a	5f		 pop	 edi
  0357b	5e		 pop	 esi
  0357c	5b		 pop	 ebx
  0357d	8b e5		 mov	 esp, ebp
  0357f	5d		 pop	 ebp
  03580	c3		 ret	 0
  03581	8d 49 00	 npad	 3
$LN17@DGAnsRegGe:
  03584	00 00 00 00	 DD	 $LN10@DGAnsRegGe
  03588	00 00 00 00	 DD	 $LN9@DGAnsRegGe
  0358c	00 00 00 00	 DD	 $LN8@DGAnsRegGe
  03590	00 00 00 00	 DD	 $LN7@DGAnsRegGe
  03594	00 00 00 00	 DD	 $LN6@DGAnsRegGe
  03598	00 00 00 00	 DD	 $LN5@DGAnsRegGe
  0359c	00 00 00 00	 DD	 $LN4@DGAnsRegGe
  035a0	00 00 00 00	 DD	 $LN3@DGAnsRegGe
?DGAnsRegGensMember@@YAXPAUPMSG_ANS_REG_GENS_MEMBER_EXDB@@@Z ENDP ; DGAnsRegGensMember
_TEXT	ENDS
PUBLIC	?__LINE__Var@?1??DGAnsSecedeGensMember@@YAXPAUPMSG_ANS_SECEDE_GENS_MEMBER_EXDB@@@Z@4JA ; `DGAnsSecedeGensMember'::`2'::__LINE__Var
PUBLIC	??_C@_0EG@IKFGJBNB@?$FLGensSystem?$FN?5?$FL?$CFs?$FN?$FL?$CFs?$FN?5Gens?5Leavi@ ; `string'
PUBLIC	??_C@_0EH@LPDGGAOJ@?$FLGensSystem?$FN?5?$FL?$CFs?$FN?$FL?$CFs?$FN?5Gens?5Leavi@ ; `string'
PUBLIC	??_C@_0DP@EHGBIDGC@?$FLGensSystem?$FN?5?$FL?$CFs?$FN?$FL?$CFs?$FN?5Gens?5Leavi@ ; `string'
PUBLIC	??_C@_0DA@KCIOBPKH@?$FLGensSystem?$FN?5?$FL?$CFs?$FN?$FL?$CFs?$FN?5Gens?5Reque@ ; `string'
;	COMDAT ?__LINE__Var@?1??DGAnsSecedeGensMember@@YAXPAUPMSG_ANS_SECEDE_GENS_MEMBER_EXDB@@@Z@4JA
_DATA	SEGMENT
?__LINE__Var@?1??DGAnsSecedeGensMember@@YAXPAUPMSG_ANS_SECEDE_GENS_MEMBER_EXDB@@@Z@4JA DD 08d2H ; `DGAnsSecedeGensMember'::`2'::__LINE__Var
_DATA	ENDS
;	COMDAT ??_C@_0EG@IKFGJBNB@?$FLGensSystem?$FN?5?$FL?$CFs?$FN?$FL?$CFs?$FN?5Gens?5Leavi@
CONST	SEGMENT
??_C@_0EG@IKFGJBNB@?$FLGensSystem?$FN?5?$FL?$CFs?$FN?$FL?$CFs?$FN?5Gens?5Leavi@ DB '['
	DB	'GensSystem] [%s][%s] Gens Leaving Failed to Not Influence NPC'
	DB	' : [%s]', 00H				; `string'
CONST	ENDS
;	COMDAT ??_C@_0EH@LPDGGAOJ@?$FLGensSystem?$FN?5?$FL?$CFs?$FN?$FL?$CFs?$FN?5Gens?5Leavi@
CONST	SEGMENT
??_C@_0EH@LPDGGAOJ@?$FLGensSystem?$FN?5?$FL?$CFs?$FN?$FL?$CFs?$FN?5Gens?5Leavi@ DB '['
	DB	'GensSystem] [%s][%s] Gens Leaving Failed to GuildMaster GensN'
	DB	'ame [%s]', 00H				; `string'
CONST	ENDS
;	COMDAT ??_C@_0DP@EHGBIDGC@?$FLGensSystem?$FN?5?$FL?$CFs?$FN?$FL?$CFs?$FN?5Gens?5Leavi@
CONST	SEGMENT
??_C@_0DP@EHGBIDGC@?$FLGensSystem?$FN?5?$FL?$CFs?$FN?$FL?$CFs?$FN?5Gens?5Leavi@ DB '['
	DB	'GensSystem] [%s][%s] Gens Leaving Failed to Not Register Gens'
	DB	00H						; `string'
CONST	ENDS
;	COMDAT ??_C@_0DA@KCIOBPKH@?$FLGensSystem?$FN?5?$FL?$CFs?$FN?$FL?$CFs?$FN?5Gens?5Reque@
CONST	SEGMENT
??_C@_0DA@KCIOBPKH@?$FLGensSystem?$FN?5?$FL?$CFs?$FN?$FL?$CFs?$FN?5Gens?5Reque@ DB '['
	DB	'GensSystem] [%s][%s] Gens Request - Leave [%s]', 00H ; `string'
; Function compile flags: /Odtp /ZI
CONST	ENDS
_TEXT	SEGMENT
tv85 = -84						; size = 4
_pMsg$229857 = -16					; size = 7
_lpObj$ = -8						; size = 4
_iObjIndex$ = -4					; size = 4
_lpMsg$ = 8						; size = 4
?DGAnsSecedeGensMember@@YAXPAUPMSG_ANS_SECEDE_GENS_MEMBER_EXDB@@@Z PROC ; DGAnsSecedeGensMember

; 2258 : {

  035b0	55		 push	 ebp
  035b1	8b ec		 mov	 ebp, esp
  035b3	83 ec 54	 sub	 esp, 84			; 00000054H
  035b6	53		 push	 ebx
  035b7	56		 push	 esi
  035b8	57		 push	 edi

; 2259 : 	int iObjIndex = MAKE_NUMBERW(lpMsg->bIndexH, lpMsg->bIndexL);

  035b9	8b 45 08	 mov	 eax, DWORD PTR _lpMsg$[ebp]
  035bc	0f b6 48 06	 movzx	 ecx, BYTE PTR [eax+6]
  035c0	81 e1 ff 00 00
	00		 and	 ecx, 255		; 000000ffH
  035c6	0f b6 d1	 movzx	 edx, cl
  035c9	8b 45 08	 mov	 eax, DWORD PTR _lpMsg$[ebp]
  035cc	0f b6 48 05	 movzx	 ecx, BYTE PTR [eax+5]
  035d0	81 e1 ff 00 00
	00		 and	 ecx, 255		; 000000ffH
  035d6	0f b6 c1	 movzx	 eax, cl
  035d9	c1 e0 08	 shl	 eax, 8
  035dc	0b d0		 or	 edx, eax
  035de	0f b7 ca	 movzx	 ecx, dx
  035e1	89 4d fc	 mov	 DWORD PTR _iObjIndex$[ebp], ecx

; 2260 : 
; 2261 : 	LPOBJ lpObj = &gObj[iObjIndex];

  035e4	8b 45 fc	 mov	 eax, DWORD PTR _iObjIndex$[ebp]
  035e7	69 c0 38 2b 00
	00		 imul	 eax, 11064		; 00002b38H
  035ed	03 05 00 00 00
	00		 add	 eax, DWORD PTR ?gObj@@3PAUOBJECTSTRUCT@@A ; gObj
  035f3	89 45 f8	 mov	 DWORD PTR _lpObj$[ebp], eax

; 2262 : 	
; 2263 : 	if (gObjIsConnectedGP(lpObj->m_Index))

  035f6	8b 45 f8	 mov	 eax, DWORD PTR _lpObj$[ebp]
  035f9	8b 08		 mov	 ecx, DWORD PTR [eax]
  035fb	51		 push	 ecx
  035fc	e8 00 00 00 00	 call	 ?gObjIsConnectedGP@@YAHH@Z ; gObjIsConnectedGP
  03601	83 c4 04	 add	 esp, 4
  03604	85 c0		 test	 eax, eax
  03606	0f 84 af 01 00
	00		 je	 $LN11@DGAnsSeced

; 2264 : 	{
; 2265 : 		switch (lpMsg->bResult)

  0360c	8b 45 08	 mov	 eax, DWORD PTR _lpMsg$[ebp]
  0360f	0f b6 48 04	 movzx	 ecx, BYTE PTR [eax+4]
  03613	89 4d ac	 mov	 DWORD PTR tv85[ebp], ecx
  03616	83 7d ac 03	 cmp	 DWORD PTR tv85[ebp], 3
  0361a	0f 87 ad 00 00
	00		 ja	 $LN9@DGAnsSeced
  03620	8b 55 ac	 mov	 edx, DWORD PTR tv85[ebp]
  03623	ff 24 95 00 00
	00 00		 jmp	 DWORD PTR $LN14@DGAnsSeced[edx*4]
$LN8@DGAnsSeced:

; 2266 : 		{
; 2267 : 		case 0:
; 2268 : 			LogAddTD("[GensSystem] [%s][%s] Gens Request - Leave [%s]", lpObj->AccountID, lpObj->Name, gGensSystem.GetGensInfluenceName(lpObj));

  0362a	8b 45 f8	 mov	 eax, DWORD PTR _lpObj$[ebp]
  0362d	50		 push	 eax
  0362e	b9 00 00 00 00	 mov	 ecx, OFFSET ?gGensSystem@@3VGensSystem@@A ; gGensSystem
  03633	e8 00 00 00 00	 call	 ?GetGensInfluenceName@GensSystem@@QAEPADPAUOBJECTSTRUCT@@@Z ; GensSystem::GetGensInfluenceName
  03638	50		 push	 eax
  03639	8b 4d f8	 mov	 ecx, DWORD PTR _lpObj$[ebp]
  0363c	83 c1 77	 add	 ecx, 119		; 00000077H
  0363f	51		 push	 ecx
  03640	8b 55 f8	 mov	 edx, DWORD PTR _lpObj$[ebp]
  03643	83 c2 6c	 add	 edx, 108		; 0000006cH
  03646	52		 push	 edx
  03647	68 00 00 00 00	 push	 OFFSET ??_C@_0DA@KCIOBPKH@?$FLGensSystem?$FN?5?$FL?$CFs?$FN?$FL?$CFs?$FN?5Gens?5Reque@
  0364c	ff 15 00 00 00
	00		 call	 DWORD PTR ?LogAddTD@@3P6AXPADZZA ; LogAddTD
  03652	83 c4 10	 add	 esp, 16			; 00000010H

; 2269 : 			break;

  03655	eb 76		 jmp	 SHORT $LN9@DGAnsSeced
$LN7@DGAnsSeced:

; 2270 : 
; 2271 : 		case 1:
; 2272 : 			LogAddTD("[GensSystem] [%s][%s] Gens Leaving Failed to Not Register Gens", lpObj->AccountID, lpObj->Name);

  03657	8b 45 f8	 mov	 eax, DWORD PTR _lpObj$[ebp]
  0365a	83 c0 77	 add	 eax, 119		; 00000077H
  0365d	50		 push	 eax
  0365e	8b 4d f8	 mov	 ecx, DWORD PTR _lpObj$[ebp]
  03661	83 c1 6c	 add	 ecx, 108		; 0000006cH
  03664	51		 push	 ecx
  03665	68 00 00 00 00	 push	 OFFSET ??_C@_0DP@EHGBIDGC@?$FLGensSystem?$FN?5?$FL?$CFs?$FN?$FL?$CFs?$FN?5Gens?5Leavi@
  0366a	ff 15 00 00 00
	00		 call	 DWORD PTR ?LogAddTD@@3P6AXPADZZA ; LogAddTD
  03670	83 c4 0c	 add	 esp, 12			; 0000000cH

; 2273 : 			break;

  03673	eb 58		 jmp	 SHORT $LN9@DGAnsSeced
$LN6@DGAnsSeced:

; 2274 : 
; 2275 : 		case 2:
; 2276 : 			LogAddTD("[GensSystem] [%s][%s] Gens Leaving Failed to GuildMaster GensName [%s]", lpObj->AccountID, lpObj->Name, gGensSystem.GetGensInfluenceName(lpObj));

  03675	8b 45 f8	 mov	 eax, DWORD PTR _lpObj$[ebp]
  03678	50		 push	 eax
  03679	b9 00 00 00 00	 mov	 ecx, OFFSET ?gGensSystem@@3VGensSystem@@A ; gGensSystem
  0367e	e8 00 00 00 00	 call	 ?GetGensInfluenceName@GensSystem@@QAEPADPAUOBJECTSTRUCT@@@Z ; GensSystem::GetGensInfluenceName
  03683	50		 push	 eax
  03684	8b 4d f8	 mov	 ecx, DWORD PTR _lpObj$[ebp]
  03687	83 c1 77	 add	 ecx, 119		; 00000077H
  0368a	51		 push	 ecx
  0368b	8b 55 f8	 mov	 edx, DWORD PTR _lpObj$[ebp]
  0368e	83 c2 6c	 add	 edx, 108		; 0000006cH
  03691	52		 push	 edx
  03692	68 00 00 00 00	 push	 OFFSET ??_C@_0EH@LPDGGAOJ@?$FLGensSystem?$FN?5?$FL?$CFs?$FN?$FL?$CFs?$FN?5Gens?5Leavi@
  03697	ff 15 00 00 00
	00		 call	 DWORD PTR ?LogAddTD@@3P6AXPADZZA ; LogAddTD
  0369d	83 c4 10	 add	 esp, 16			; 00000010H

; 2277 : 			break;

  036a0	eb 2b		 jmp	 SHORT $LN9@DGAnsSeced
$LN5@DGAnsSeced:

; 2278 : 
; 2279 : 		case 3:
; 2280 : 			LogAddTD("[GensSystem] [%s][%s] Gens Leaving Failed to Not Influence NPC : [%s]", lpObj->AccountID, lpObj->Name, gGensSystem.GetGensInfluenceName(lpObj));

  036a2	8b 45 f8	 mov	 eax, DWORD PTR _lpObj$[ebp]
  036a5	50		 push	 eax
  036a6	b9 00 00 00 00	 mov	 ecx, OFFSET ?gGensSystem@@3VGensSystem@@A ; gGensSystem
  036ab	e8 00 00 00 00	 call	 ?GetGensInfluenceName@GensSystem@@QAEPADPAUOBJECTSTRUCT@@@Z ; GensSystem::GetGensInfluenceName
  036b0	50		 push	 eax
  036b1	8b 4d f8	 mov	 ecx, DWORD PTR _lpObj$[ebp]
  036b4	83 c1 77	 add	 ecx, 119		; 00000077H
  036b7	51		 push	 ecx
  036b8	8b 55 f8	 mov	 edx, DWORD PTR _lpObj$[ebp]
  036bb	83 c2 6c	 add	 edx, 108		; 0000006cH
  036be	52		 push	 edx
  036bf	68 00 00 00 00	 push	 OFFSET ??_C@_0EG@IKFGJBNB@?$FLGensSystem?$FN?5?$FL?$CFs?$FN?$FL?$CFs?$FN?5Gens?5Leavi@
  036c4	ff 15 00 00 00
	00		 call	 DWORD PTR ?LogAddTD@@3P6AXPADZZA ; LogAddTD
  036ca	83 c4 10	 add	 esp, 16			; 00000010H
$LN9@DGAnsSeced:

; 2281 : 			break;
; 2282 : 
; 2283 : 		default:
; 2284 : 			break;
; 2285 : 		}
; 2286 : 
; 2287 : 		if( gGensSystem.CheckGuildEnter && lpObj->GuildNumber > 0 )

  036cd	0f b6 05 ad 00
	00 00		 movzx	 eax, BYTE PTR ?gGensSystem@@3VGensSystem@@A+173
  036d4	85 c0		 test	 eax, eax
  036d6	74 13		 je	 SHORT $LN3@DGAnsSeced
  036d8	8b 45 f8	 mov	 eax, DWORD PTR _lpObj$[ebp]
  036db	83 b8 34 04 00
	00 00		 cmp	 DWORD PTR [eax+1076], 0
  036e2	7e 07		 jle	 SHORT $LN3@DGAnsSeced

; 2288 : 		{
; 2289 : 			lpMsg->bResult = 2;

  036e4	8b 45 08	 mov	 eax, DWORD PTR _lpMsg$[ebp]
  036e7	c6 40 04 02	 mov	 BYTE PTR [eax+4], 2
$LN3@DGAnsSeced:

; 2290 : 		}
; 2291 : 		// ----
; 2292 : 		if (!lpMsg->bResult)

  036eb	8b 45 08	 mov	 eax, DWORD PTR _lpMsg$[ebp]
  036ee	0f b6 48 04	 movzx	 ecx, BYTE PTR [eax+4]
  036f2	85 c9		 test	 ecx, ecx
  036f4	0f 85 8d 00 00
	00		 jne	 $LN2@DGAnsSeced

; 2293 : 		{
; 2294 : 			gGensSystem.SetGensInfluence(lpObj, LEAVED_INFLUENCE);

  036fa	6a ff		 push	 -1
  036fc	8b 45 f8	 mov	 eax, DWORD PTR _lpObj$[ebp]
  036ff	50		 push	 eax
  03700	b9 00 00 00 00	 mov	 ecx, OFFSET ?gGensSystem@@3VGensSystem@@A ; gGensSystem
  03705	e8 00 00 00 00	 call	 ?SetGensInfluence@GensSystem@@QAEXPAUOBJECTSTRUCT@@H@Z ; GensSystem::SetGensInfluence

; 2295 : 			gGensSystem.SetUserBattleZoneEnable(lpObj, BATTLE_ZONE_BLOCK);

  0370a	6a 00		 push	 0
  0370c	8b 45 f8	 mov	 eax, DWORD PTR _lpObj$[ebp]
  0370f	50		 push	 eax
  03710	b9 00 00 00 00	 mov	 ecx, OFFSET ?gGensSystem@@3VGensSystem@@A ; gGensSystem
  03715	e8 00 00 00 00	 call	 ?SetUserBattleZoneEnable@GensSystem@@QAEHPAUOBJECTSTRUCT@@H@Z ; GensSystem::SetUserBattleZoneEnable

; 2296 : 			gGensSystem.SetContributePoint(lpObj, 0);

  0371a	6a 00		 push	 0
  0371c	8b 45 f8	 mov	 eax, DWORD PTR _lpObj$[ebp]
  0371f	50		 push	 eax
  03720	b9 00 00 00 00	 mov	 ecx, OFFSET ?gGensSystem@@3VGensSystem@@A ; gGensSystem
  03725	e8 00 00 00 00	 call	 ?SetContributePoint@GensSystem@@QAEHPAUOBJECTSTRUCT@@H@Z ; GensSystem::SetContributePoint

; 2297 : 
; 2298 : 			memset(lpObj->m_szCharName, 0, sizeof(lpObj->m_szCharName)); 	

  0372a	6a 0b		 push	 11			; 0000000bH
  0372c	6a 00		 push	 0
  0372e	8b 45 f8	 mov	 eax, DWORD PTR _lpObj$[ebp]
  03731	05 c8 22 00 00	 add	 eax, 8904		; 000022c8H
  03736	50		 push	 eax
  03737	e8 00 00 00 00	 call	 _memset
  0373c	83 c4 0c	 add	 esp, 12			; 0000000cH

; 2299 : 
; 2300 : 			lpObj->m_KillUserCnt = 0; 

  0373f	8b 45 f8	 mov	 eax, DWORD PTR _lpObj$[ebp]
  03742	c7 80 e0 22 00
	00 00 00 00 00	 mov	 DWORD PTR [eax+8928], 0

; 2301 : 			lpObj->m_KillUserTotCnt = 0;	

  0374c	8b 45 f8	 mov	 eax, DWORD PTR _lpObj$[ebp]
  0374f	c7 80 e4 22 00
	00 00 00 00 00	 mov	 DWORD PTR [eax+8932], 0

; 2302 : 
; 2303 : 			gGensSystem.GensViewportListProtocol(lpObj);

  03759	8b 45 f8	 mov	 eax, DWORD PTR _lpObj$[ebp]
  0375c	50		 push	 eax
  0375d	b9 00 00 00 00	 mov	 ecx, OFFSET ?gGensSystem@@3VGensSystem@@A ; gGensSystem
  03762	e8 00 00 00 00	 call	 ?GensViewportListProtocol@GensSystem@@QAEXPAUOBJECTSTRUCT@@@Z ; GensSystem::GensViewportListProtocol

; 2304 : 			gGensSystem.SetGensClass(lpObj, 0);

  03767	6a 00		 push	 0
  03769	8b 45 f8	 mov	 eax, DWORD PTR _lpObj$[ebp]
  0376c	50		 push	 eax
  0376d	b9 00 00 00 00	 mov	 ecx, OFFSET ?gGensSystem@@3VGensSystem@@A ; gGensSystem
  03772	e8 00 00 00 00	 call	 ?SetGensClass@GensSystem@@QAEHPAUOBJECTSTRUCT@@H@Z ; GensSystem::SetGensClass

; 2305 : 			gGensSystem.SetGensRanking(lpObj, 0);

  03777	6a 00		 push	 0
  03779	8b 45 f8	 mov	 eax, DWORD PTR _lpObj$[ebp]
  0377c	50		 push	 eax
  0377d	b9 00 00 00 00	 mov	 ecx, OFFSET ?gGensSystem@@3VGensSystem@@A ; gGensSystem
  03782	e8 00 00 00 00	 call	 ?SetGensRanking@GensSystem@@QAEHPAUOBJECTSTRUCT@@H@Z ; GensSystem::SetGensRanking
$LN2@DGAnsSeced:

; 2306 : 		}
; 2307 : 
; 2308 : 		PMSG_ANS_SECEDE_GENS_MEMBER_EXDB pMsg;
; 2309 : 
; 2310 : 		PHeadSubSetBE((LPBYTE)&pMsg, 0xF8, 0x04, sizeof(pMsg)); 

  03787	6a 07		 push	 7
  03789	6a 04		 push	 4
  0378b	68 f8 00 00 00	 push	 248			; 000000f8H
  03790	8d 45 f0	 lea	 eax, DWORD PTR _pMsg$229857[ebp]
  03793	50		 push	 eax
  03794	e8 00 00 00 00	 call	 ?PHeadSubSetBE@@YAXPAEEEH@Z ; PHeadSubSetBE
  03799	83 c4 10	 add	 esp, 16			; 00000010H

; 2311 : 		pMsg.bResult = lpMsg->bResult;		

  0379c	8b 45 08	 mov	 eax, DWORD PTR _lpMsg$[ebp]
  0379f	8a 48 04	 mov	 cl, BYTE PTR [eax+4]
  037a2	88 4d f4	 mov	 BYTE PTR _pMsg$229857[ebp+4], cl

; 2312 : 		DataSend(lpObj->m_Index, (LPBYTE)&pMsg, 0x05);

  037a5	6a 05		 push	 5
  037a7	8d 45 f0	 lea	 eax, DWORD PTR _pMsg$229857[ebp]
  037aa	50		 push	 eax
  037ab	8b 4d f8	 mov	 ecx, DWORD PTR _lpObj$[ebp]
  037ae	8b 11		 mov	 edx, DWORD PTR [ecx]
  037b0	52		 push	 edx
  037b1	e8 00 00 00 00	 call	 ?DataSend@@YAHHPAEK@Z	; DataSend
  037b6	83 c4 0c	 add	 esp, 12			; 0000000cH

; 2313 : 	}
; 2314 : 	else

  037b9	eb 1c		 jmp	 SHORT $LN12@DGAnsSeced
$LN11@DGAnsSeced:

; 2315 : 	{
; 2316 : 		LogAddTD("error-L2 : Index %s %d", __FILE__, __LINE__);

  037bb	a1 00 00 00 00	 mov	 eax, DWORD PTR ?__LINE__Var@?1??DGAnsSecedeGensMember@@YAXPAUPMSG_ANS_SECEDE_GENS_MEMBER_EXDB@@@Z@4JA
  037c0	83 c0 3a	 add	 eax, 58			; 0000003aH
  037c3	50		 push	 eax
  037c4	68 00 00 00 00	 push	 OFFSET ??_C@_0EC@HBCPMHBL@d?3?2projects?2exteam6?43?2source?2gam@
  037c9	68 00 00 00 00	 push	 OFFSET ??_C@_0BH@LCDOHCGD@error?9L2?5?3?5Index?5?$CFs?5?$CFd?$AA@
  037ce	ff 15 00 00 00
	00		 call	 DWORD PTR ?LogAddTD@@3P6AXPADZZA ; LogAddTD
  037d4	83 c4 0c	 add	 esp, 12			; 0000000cH
$LN12@DGAnsSeced:

; 2317 : 	}
; 2318 : }

  037d7	5f		 pop	 edi
  037d8	5e		 pop	 esi
  037d9	5b		 pop	 ebx
  037da	8b e5		 mov	 esp, ebp
  037dc	5d		 pop	 ebp
  037dd	c3		 ret	 0
  037de	8b ff		 npad	 2
$LN14@DGAnsSeced:
  037e0	00 00 00 00	 DD	 $LN8@DGAnsSeced
  037e4	00 00 00 00	 DD	 $LN7@DGAnsSeced
  037e8	00 00 00 00	 DD	 $LN6@DGAnsSeced
  037ec	00 00 00 00	 DD	 $LN5@DGAnsSeced
?DGAnsSecedeGensMember@@YAXPAUPMSG_ANS_SECEDE_GENS_MEMBER_EXDB@@@Z ENDP ; DGAnsSecedeGensMember
_TEXT	ENDS
PUBLIC	?DGAnsAbusingInfo@@YAXPAUPMSG_ANS_ABUSING_INFO@@@Z ; DGAnsAbusingInfo
; Function compile flags: /Odtp /ZI
_TEXT	SEGMENT
_lpMsg$ = 8						; size = 4
?DGAnsAbusingInfo@@YAXPAUPMSG_ANS_ABUSING_INFO@@@Z PROC	; DGAnsAbusingInfo

; 2322 : {

  037f0	55		 push	 ebp
  037f1	8b ec		 mov	 ebp, esp
  037f3	83 ec 40	 sub	 esp, 64			; 00000040H
  037f6	53		 push	 ebx
  037f7	56		 push	 esi
  037f8	57		 push	 edi

; 2323 : 	//int iObjIndex = MAKE_NUMBERW(lpMsg->bIndexH, lpMsg->bIndexL);
; 2324 : 
; 2325 : 	//LPOBJ lpObj = &gObj[iObjIndex];
; 2326 : 
; 2327 : 	//if (gObjIsConnectedGP(iObjIndex))
; 2328 : 	//{
; 2329 : 	//	for (int i = 0; i < 10; ++i)
; 2330 : 	//	{
; 2331 : 	//		if (strlen(lpMsg->Name) > 0)
; 2332 : 	//		{
; 2333 : 	//			//lpObj->m_szTargetCharName[0] = 0;
; 2334 : 	//			//memcpy(lpObj->m_szCharName, &lpMsg->Name[0], 0x0A);
; 2335 : 	//			//lpObj->m_KillUserCnt = lpMsg->iKillUserCount;
; 2336 : 	//			//++lpObj->m_KillUserTotCnt;
; 2337 : 	//		}
; 2338 : 	//	}
; 2339 : 	//}
; 2340 : 	//else
; 2341 : 	//{
; 2342 : 	//	LogAddTD("error-L2 : Index %s %d", __FILE__, __LINE__);
; 2343 : 	//}
; 2344 : }

  037f9	5f		 pop	 edi
  037fa	5e		 pop	 esi
  037fb	5b		 pop	 ebx
  037fc	8b e5		 mov	 esp, ebp
  037fe	5d		 pop	 ebp
  037ff	c3		 ret	 0
?DGAnsAbusingInfo@@YAXPAUPMSG_ANS_ABUSING_INFO@@@Z ENDP	; DGAnsAbusingInfo
_TEXT	ENDS
PUBLIC	?__LINE__Var@?1??DGAnsGensReward@@YAXPAUPMSG_ANS_GENS_REWARD_EXDB@@@Z@4JA ; `DGAnsGensReward'::`2'::__LINE__Var
PUBLIC	??_C@_0DL@BKLCFGHO@?$FLGensSystem?$FN?5Send?5Gens?5Ranking?5R@ ; `string'
PUBLIC	?DGAnsGensReward@@YAXPAUPMSG_ANS_GENS_REWARD_EXDB@@@Z ; DGAnsGensReward
;	COMDAT ?__LINE__Var@?1??DGAnsGensReward@@YAXPAUPMSG_ANS_GENS_REWARD_EXDB@@@Z@4JA
_DATA	SEGMENT
?__LINE__Var@?1??DGAnsGensReward@@YAXPAUPMSG_ANS_GENS_REWARD_EXDB@@@Z@4JA DD 092cH ; `DGAnsGensReward'::`2'::__LINE__Var
_DATA	ENDS
;	COMDAT ??_C@_0DL@BKLCFGHO@?$FLGensSystem?$FN?5Send?5Gens?5Ranking?5R@
CONST	SEGMENT
??_C@_0DL@BKLCFGHO@?$FLGensSystem?$FN?5Send?5Gens?5Ranking?5R@ DB '[GensS'
	DB	'ystem] Send Gens Ranking Reward [%s][%s] Result [%d]', 00H ; `string'
; Function compile flags: /Odtp /ZI
CONST	ENDS
_TEXT	SEGMENT
_lpObj$ = -12						; size = 4
_iObjIndex$ = -8					; size = 4
_btResult$ = -1						; size = 1
_lpMsg$ = 8						; size = 4
?DGAnsGensReward@@YAXPAUPMSG_ANS_GENS_REWARD_EXDB@@@Z PROC ; DGAnsGensReward

; 2348 : {

  03800	55		 push	 ebp
  03801	8b ec		 mov	 ebp, esp
  03803	83 ec 4c	 sub	 esp, 76			; 0000004cH
  03806	53		 push	 ebx
  03807	56		 push	 esi
  03808	57		 push	 edi

; 2349 : 	unsigned char btResult;
; 2350 : 
; 2351 : 	int iObjIndex = MAKE_NUMBERW(0, 0);

  03809	c7 45 f8 00 00
	00 00		 mov	 DWORD PTR _iObjIndex$[ebp], 0

; 2352 : 
; 2353 : 	LPOBJ lpObj = &gObj[iObjIndex];

  03810	8b 45 f8	 mov	 eax, DWORD PTR _iObjIndex$[ebp]
  03813	69 c0 38 2b 00
	00		 imul	 eax, 11064		; 00002b38H
  03819	03 05 00 00 00
	00		 add	 eax, DWORD PTR ?gObj@@3PAUOBJECTSTRUCT@@A ; gObj
  0381f	89 45 f4	 mov	 DWORD PTR _lpObj$[ebp], eax

; 2354 : 
; 2355 : 	if (gObjIsConnectedGP(iObjIndex))

  03822	8b 45 f8	 mov	 eax, DWORD PTR _iObjIndex$[ebp]
  03825	50		 push	 eax
  03826	e8 00 00 00 00	 call	 ?gObjIsConnectedGP@@YAHH@Z ; gObjIsConnectedGP
  0382b	83 c4 04	 add	 esp, 4
  0382e	85 c0		 test	 eax, eax
  03830	74 7d		 je	 SHORT $LN6@DGAnsGensR

; 2356 : 	{
; 2357 : 		if (lpMsg->bResult)

  03832	8b 45 08	 mov	 eax, DWORD PTR _lpMsg$[ebp]
  03835	0f b6 48 04	 movzx	 ecx, BYTE PTR [eax+4]
  03839	85 c9		 test	 ecx, ecx
  0383b	74 0b		 je	 SHORT $LN5@DGAnsGensR

; 2358 : 		{
; 2359 : 			btResult = lpMsg->bResult;

  0383d	8b 45 08	 mov	 eax, DWORD PTR _lpMsg$[ebp]
  03840	8a 48 04	 mov	 cl, BYTE PTR [eax+4]
  03843	88 4d ff	 mov	 BYTE PTR _btResult$[ebp], cl

; 2360 : 		}
; 2361 : 		else

  03846	eb 31		 jmp	 SHORT $LN4@DGAnsGensR
$LN5@DGAnsGensR:

; 2362 : 		{
; 2363 : 			if (gGensSystem.SendGensRewardItem(lpObj, lpMsg->iGensClass))

  03848	8b 45 08	 mov	 eax, DWORD PTR _lpMsg$[ebp]
  0384b	8b 48 08	 mov	 ecx, DWORD PTR [eax+8]
  0384e	51		 push	 ecx
  0384f	8b 55 f4	 mov	 edx, DWORD PTR _lpObj$[ebp]
  03852	52		 push	 edx
  03853	b9 00 00 00 00	 mov	 ecx, OFFSET ?gGensSystem@@3VGensSystem@@A ; gGensSystem
  03858	e8 00 00 00 00	 call	 ?SendGensRewardItem@GensSystem@@QAEHPAUOBJECTSTRUCT@@H@Z ; GensSystem::SendGensRewardItem
  0385d	85 c0		 test	 eax, eax
  0385f	74 14		 je	 SHORT $LN3@DGAnsGensR

; 2364 : 			{
; 2365 : 				btResult = 0;

  03861	c6 45 ff 00	 mov	 BYTE PTR _btResult$[ebp], 0

; 2366 : 				gGensSystem.ReqExDBGensRewardComplete(lpObj);

  03865	8b 45 f4	 mov	 eax, DWORD PTR _lpObj$[ebp]
  03868	50		 push	 eax
  03869	b9 00 00 00 00	 mov	 ecx, OFFSET ?gGensSystem@@3VGensSystem@@A ; gGensSystem
  0386e	e8 00 00 00 00	 call	 ?ReqExDBGensRewardComplete@GensSystem@@QAEHPAUOBJECTSTRUCT@@@Z ; GensSystem::ReqExDBGensRewardComplete

; 2367 : 			}
; 2368 : 			else

  03873	eb 04		 jmp	 SHORT $LN4@DGAnsGensR
$LN3@DGAnsGensR:

; 2369 : 			{
; 2370 : 				btResult = 3;

  03875	c6 45 ff 03	 mov	 BYTE PTR _btResult$[ebp], 3
$LN4@DGAnsGensR:

; 2371 : 			}
; 2372 : 		}
; 2373 : 
; 2374 : 		LogAddTD("[GensSystem] Send Gens Ranking Reward [%s][%s] Result [%d]", lpObj->AccountID, lpObj->Name, btResult);

  03879	0f b6 45 ff	 movzx	 eax, BYTE PTR _btResult$[ebp]
  0387d	50		 push	 eax
  0387e	8b 4d f4	 mov	 ecx, DWORD PTR _lpObj$[ebp]
  03881	83 c1 77	 add	 ecx, 119		; 00000077H
  03884	51		 push	 ecx
  03885	8b 55 f4	 mov	 edx, DWORD PTR _lpObj$[ebp]
  03888	83 c2 6c	 add	 edx, 108		; 0000006cH
  0388b	52		 push	 edx
  0388c	68 00 00 00 00	 push	 OFFSET ??_C@_0DL@BKLCFGHO@?$FLGensSystem?$FN?5Send?5Gens?5Ranking?5R@
  03891	ff 15 00 00 00
	00		 call	 DWORD PTR ?LogAddTD@@3P6AXPADZZA ; LogAddTD
  03897	83 c4 10	 add	 esp, 16			; 00000010H

; 2375 : 
; 2376 : 		gGensSystem.SendGensReward(lpObj, btResult);

  0389a	0f b6 45 ff	 movzx	 eax, BYTE PTR _btResult$[ebp]
  0389e	50		 push	 eax
  0389f	8b 4d f4	 mov	 ecx, DWORD PTR _lpObj$[ebp]
  038a2	51		 push	 ecx
  038a3	b9 00 00 00 00	 mov	 ecx, OFFSET ?gGensSystem@@3VGensSystem@@A ; gGensSystem
  038a8	e8 00 00 00 00	 call	 ?SendGensReward@GensSystem@@QAEHPAUOBJECTSTRUCT@@E@Z ; GensSystem::SendGensReward

; 2377 : 	}
; 2378 : 	else

  038ad	eb 1c		 jmp	 SHORT $LN7@DGAnsGensR
$LN6@DGAnsGensR:

; 2379 : 	{
; 2380 : 		LogAddTD("error-L2 : Index %s %d", __FILE__, __LINE__);

  038af	a1 00 00 00 00	 mov	 eax, DWORD PTR ?__LINE__Var@?1??DGAnsGensReward@@YAXPAUPMSG_ANS_GENS_REWARD_EXDB@@@Z@4JA
  038b4	83 c0 20	 add	 eax, 32			; 00000020H
  038b7	50		 push	 eax
  038b8	68 00 00 00 00	 push	 OFFSET ??_C@_0EC@HBCPMHBL@d?3?2projects?2exteam6?43?2source?2gam@
  038bd	68 00 00 00 00	 push	 OFFSET ??_C@_0BH@LCDOHCGD@error?9L2?5?3?5Index?5?$CFs?5?$CFd?$AA@
  038c2	ff 15 00 00 00
	00		 call	 DWORD PTR ?LogAddTD@@3P6AXPADZZA ; LogAddTD
  038c8	83 c4 0c	 add	 esp, 12			; 0000000cH
$LN7@DGAnsGensR:

; 2381 : 	}
; 2382 : }

  038cb	5f		 pop	 edi
  038cc	5e		 pop	 esi
  038cd	5b		 pop	 ebx
  038ce	8b e5		 mov	 esp, ebp
  038d0	5d		 pop	 ebp
  038d1	c3		 ret	 0
?DGAnsGensReward@@YAXPAUPMSG_ANS_GENS_REWARD_EXDB@@@Z ENDP ; DGAnsGensReward
_TEXT	ENDS
PUBLIC	?DGAnsGensMemberCount@@YAXPAUPMSG_ANS_GENS_MEMBER_COUNT_EXDB@@@Z ; DGAnsGensMemberCount
; Function compile flags: /Odtp /ZI
_TEXT	SEGMENT
_lpMsg$ = 8						; size = 4
?DGAnsGensMemberCount@@YAXPAUPMSG_ANS_GENS_MEMBER_COUNT_EXDB@@@Z PROC ; DGAnsGensMemberCount

; 2386 : {

  038e0	55		 push	 ebp
  038e1	8b ec		 mov	 ebp, esp
  038e3	83 ec 40	 sub	 esp, 64			; 00000040H
  038e6	53		 push	 ebx
  038e7	56		 push	 esi
  038e8	57		 push	 edi

; 2387 : 	gGensSystem.SetGensMemberCount(1, lpMsg->iVanertMemberCount);

  038e9	8b 45 08	 mov	 eax, DWORD PTR _lpMsg$[ebp]
  038ec	8b 48 04	 mov	 ecx, DWORD PTR [eax+4]
  038ef	51		 push	 ecx
  038f0	6a 01		 push	 1
  038f2	b9 00 00 00 00	 mov	 ecx, OFFSET ?gGensSystem@@3VGensSystem@@A ; gGensSystem
  038f7	e8 00 00 00 00	 call	 ?SetGensMemberCount@GensSystem@@QAEHHH@Z ; GensSystem::SetGensMemberCount

; 2388 : 	gGensSystem.SetGensMemberCount(2, lpMsg->iDuprianMemberCount);

  038fc	8b 45 08	 mov	 eax, DWORD PTR _lpMsg$[ebp]
  038ff	8b 48 08	 mov	 ecx, DWORD PTR [eax+8]
  03902	51		 push	 ecx
  03903	6a 02		 push	 2
  03905	b9 00 00 00 00	 mov	 ecx, OFFSET ?gGensSystem@@3VGensSystem@@A ; gGensSystem
  0390a	e8 00 00 00 00	 call	 ?SetGensMemberCount@GensSystem@@QAEHHH@Z ; GensSystem::SetGensMemberCount

; 2389 : }

  0390f	5f		 pop	 edi
  03910	5e		 pop	 esi
  03911	5b		 pop	 ebx
  03912	8b e5		 mov	 esp, ebp
  03914	5d		 pop	 ebp
  03915	c3		 ret	 0
?DGAnsGensMemberCount@@YAXPAUPMSG_ANS_GENS_MEMBER_COUNT_EXDB@@@Z ENDP ; DGAnsGensMemberCount
_TEXT	ENDS
PUBLIC	?__LINE__Var@?1??DGAnsGensRewardDayCheck@@YAXPAUPMSG_ANS_GENS_REWARD_DAY_CHECK_EXDB@@@Z@4JA ; `DGAnsGensRewardDayCheck'::`2'::__LINE__Var
PUBLIC	?DGAnsGensRewardDayCheck@@YAXPAUPMSG_ANS_GENS_REWARD_DAY_CHECK_EXDB@@@Z ; DGAnsGensRewardDayCheck
;	COMDAT ?__LINE__Var@?1??DGAnsGensRewardDayCheck@@YAXPAUPMSG_ANS_GENS_REWARD_DAY_CHECK_EXDB@@@Z@4JA
_DATA	SEGMENT
?__LINE__Var@?1??DGAnsGensRewardDayCheck@@YAXPAUPMSG_ANS_GENS_REWARD_DAY_CHECK_EXDB@@@Z@4JA DD 0959H ; `DGAnsGensRewardDayCheck'::`2'::__LINE__Var
; Function compile flags: /Odtp /ZI
_DATA	ENDS
_TEXT	SEGMENT
_lpObj$ = -8						; size = 4
_iObjIndex$ = -4					; size = 4
_lpMsg$ = 8						; size = 4
?DGAnsGensRewardDayCheck@@YAXPAUPMSG_ANS_GENS_REWARD_DAY_CHECK_EXDB@@@Z PROC ; DGAnsGensRewardDayCheck

; 2393 : {

  03920	55		 push	 ebp
  03921	8b ec		 mov	 ebp, esp
  03923	83 ec 48	 sub	 esp, 72			; 00000048H
  03926	53		 push	 ebx
  03927	56		 push	 esi
  03928	57		 push	 edi

; 2394 : 	int iObjIndex = MAKE_NUMBERW(lpMsg->bIndexH, lpMsg->bIndexL);

  03929	8b 45 08	 mov	 eax, DWORD PTR _lpMsg$[ebp]
  0392c	0f b6 48 05	 movzx	 ecx, BYTE PTR [eax+5]
  03930	81 e1 ff 00 00
	00		 and	 ecx, 255		; 000000ffH
  03936	0f b6 d1	 movzx	 edx, cl
  03939	8b 45 08	 mov	 eax, DWORD PTR _lpMsg$[ebp]
  0393c	0f b6 48 04	 movzx	 ecx, BYTE PTR [eax+4]
  03940	81 e1 ff 00 00
	00		 and	 ecx, 255		; 000000ffH
  03946	0f b6 c1	 movzx	 eax, cl
  03949	c1 e0 08	 shl	 eax, 8
  0394c	0b d0		 or	 edx, eax
  0394e	0f b7 ca	 movzx	 ecx, dx
  03951	89 4d fc	 mov	 DWORD PTR _iObjIndex$[ebp], ecx

; 2395 : 
; 2396 : 	LPOBJ lpObj = &gObj[iObjIndex];

  03954	8b 45 fc	 mov	 eax, DWORD PTR _iObjIndex$[ebp]
  03957	69 c0 38 2b 00
	00		 imul	 eax, 11064		; 00002b38H
  0395d	03 05 00 00 00
	00		 add	 eax, DWORD PTR ?gObj@@3PAUOBJECTSTRUCT@@A ; gObj
  03963	89 45 f8	 mov	 DWORD PTR _lpObj$[ebp], eax

; 2397 : 
; 2398 : 	if (gObjIsConnectedGP(iObjIndex))

  03966	8b 45 fc	 mov	 eax, DWORD PTR _iObjIndex$[ebp]
  03969	50		 push	 eax
  0396a	e8 00 00 00 00	 call	 ?gObjIsConnectedGP@@YAHH@Z ; gObjIsConnectedGP
  0396f	83 c4 04	 add	 esp, 4
  03972	85 c0		 test	 eax, eax
  03974	74 29		 je	 SHORT $LN3@DGAnsGensR@2

; 2399 : 	{
; 2400 : 		if (lpMsg->iRewardDay)

  03976	8b 45 08	 mov	 eax, DWORD PTR _lpMsg$[ebp]
  03979	83 78 08 00	 cmp	 DWORD PTR [eax+8], 0
  0397d	74 1e		 je	 SHORT $LN2@DGAnsGensR@2

; 2401 : 		{
; 2402 : 			GCServerMsgStringSend(lMsg.Get(3459), iObjIndex, 1);

  0397f	6a 01		 push	 1
  03981	8b 45 fc	 mov	 eax, DWORD PTR _iObjIndex$[ebp]
  03984	50		 push	 eax
  03985	68 83 0d 00 00	 push	 3459			; 00000d83H
  0398a	b9 00 00 00 00	 mov	 ecx, OFFSET ?lMsg@@3VCMsg@@A ; lMsg
  0398f	e8 00 00 00 00	 call	 ?Get@CMsg@@QAEPADH@Z	; CMsg::Get
  03994	50		 push	 eax
  03995	e8 00 00 00 00	 call	 ?GCServerMsgStringSend@@YAXPADHE@Z ; GCServerMsgStringSend
  0399a	83 c4 0c	 add	 esp, 12			; 0000000cH
$LN2@DGAnsGensR@2:

; 2403 : 		}
; 2404 : 	}
; 2405 : 	else

  0399d	eb 1c		 jmp	 SHORT $LN4@DGAnsGensR@2
$LN3@DGAnsGensR@2:

; 2406 : 	{
; 2407 : 		LogAddTD("error-L2 : Index %s %d", __FILE__, __LINE__);

  0399f	a1 00 00 00 00	 mov	 eax, DWORD PTR ?__LINE__Var@?1??DGAnsGensRewardDayCheck@@YAXPAUPMSG_ANS_GENS_REWARD_DAY_CHECK_EXDB@@@Z@4JA
  039a4	83 c0 0e	 add	 eax, 14			; 0000000eH
  039a7	50		 push	 eax
  039a8	68 00 00 00 00	 push	 OFFSET ??_C@_0EC@HBCPMHBL@d?3?2projects?2exteam6?43?2source?2gam@
  039ad	68 00 00 00 00	 push	 OFFSET ??_C@_0BH@LCDOHCGD@error?9L2?5?3?5Index?5?$CFs?5?$CFd?$AA@
  039b2	ff 15 00 00 00
	00		 call	 DWORD PTR ?LogAddTD@@3P6AXPADZZA ; LogAddTD
  039b8	83 c4 0c	 add	 esp, 12			; 0000000cH
$LN4@DGAnsGensR@2:

; 2408 : 	}
; 2409 : }

  039bb	5f		 pop	 edi
  039bc	5e		 pop	 esi
  039bd	5b		 pop	 ebx
  039be	8b e5		 mov	 esp, ebp
  039c0	5d		 pop	 ebp
  039c1	c3		 ret	 0
?DGAnsGensRewardDayCheck@@YAXPAUPMSG_ANS_GENS_REWARD_DAY_CHECK_EXDB@@@Z ENDP ; DGAnsGensRewardDayCheck
_TEXT	ENDS
EXTRN	_atexit:PROC
; Function compile flags: /Odtp /ZI
;	COMDAT ??__EgGensSystem@@YAXXZ
text$yc	SEGMENT
??__EgGensSystem@@YAXXZ PROC				; `dynamic initializer for 'gGensSystem'', COMDAT

; 27   : GensSystem							gGensSystem;

  00000	55		 push	 ebp
  00001	8b ec		 mov	 ebp, esp
  00003	83 ec 40	 sub	 esp, 64			; 00000040H
  00006	53		 push	 ebx
  00007	56		 push	 esi
  00008	57		 push	 edi
  00009	b9 00 00 00 00	 mov	 ecx, OFFSET ?gGensSystem@@3VGensSystem@@A ; gGensSystem
  0000e	e8 00 00 00 00	 call	 ??0GensSystem@@QAE@XZ	; GensSystem::GensSystem
  00013	68 00 00 00 00	 push	 OFFSET ??__FgGensSystem@@YAXXZ ; `dynamic atexit destructor for 'gGensSystem''
  00018	e8 00 00 00 00	 call	 _atexit
  0001d	83 c4 04	 add	 esp, 4
  00020	5f		 pop	 edi
  00021	5e		 pop	 esi
  00022	5b		 pop	 ebx
  00023	8b e5		 mov	 esp, ebp
  00025	5d		 pop	 ebp
  00026	c3		 ret	 0
??__EgGensSystem@@YAXXZ ENDP				; `dynamic initializer for 'gGensSystem''
; Function compile flags: /Odtp /ZI
text$yc	ENDS
;	COMDAT ??__FgGensSystem@@YAXXZ
text$yd	SEGMENT
??__FgGensSystem@@YAXXZ PROC				; `dynamic atexit destructor for 'gGensSystem'', COMDAT
  00000	55		 push	 ebp
  00001	8b ec		 mov	 ebp, esp
  00003	83 ec 40	 sub	 esp, 64			; 00000040H
  00006	53		 push	 ebx
  00007	56		 push	 esi
  00008	57		 push	 edi
  00009	b9 00 00 00 00	 mov	 ecx, OFFSET ?gGensSystem@@3VGensSystem@@A ; gGensSystem
  0000e	e8 00 00 00 00	 call	 ??1GensSystem@@UAE@XZ	; GensSystem::~GensSystem
  00013	5f		 pop	 edi
  00014	5e		 pop	 esi
  00015	5b		 pop	 ebx
  00016	8b e5		 mov	 esp, ebp
  00018	5d		 pop	 ebp
  00019	c3		 ret	 0
??__FgGensSystem@@YAXXZ ENDP				; `dynamic atexit destructor for 'gGensSystem''
text$yd	ENDS
PUBLIC	?gGensSystem@@3VGensSystem@@A			; gGensSystem
_BSS	SEGMENT
?gGensSystem@@3VGensSystem@@A DB 0ccH DUP (?)		; gGensSystem
_BSS	ENDS
CRT$XCU	SEGMENT
_gGensSystem$initializer$ DD FLAT:??__EgGensSystem@@YAXXZ
CRT$XCU	ENDS
END
