; Listing generated by Microsoft (R) Optimizing Compiler Version 16.00.40219.01 

	TITLE	D:\Projects\ExTeam6.3\Source\GameServer\GameServer\GMMng.cpp
	.686P
	.XMM
	include listing.inc
	.model	flat

INCLUDELIB LIBCMT
INCLUDELIB OLDNAMES

_DATA	SEGMENT
_g_iNpcUpDfLevel_CGATE DD 01H
	DD	02H
	DD	02dc6c0H
	DD	02H
	DD	03H
	DD	02dc6c0H
	DD	03H
	DD	04H
	DD	02dc6c0H
_g_iNpcUpDfLevel_CSTATUE DD 01H
	DD	03H
	DD	02dc6c0H
	DD	02H
	DD	05H
	DD	02dc6c0H
	DD	03H
	DD	07H
	DD	02dc6c0H
_g_iNpcUpMaxHP_CGATE DD 02625a0H
	DD	02H
	DD	0f4240H
	DD	03567e0H
	DD	03H
	DD	0f4240H
	DD	04f5880H
	DD	04H
	DD	0f4240H
_g_iNpcUpMaxHP_CSTATUE DD 02191c0H
	DD	03H
	DD	0f4240H
	DD	033e140H
	DD	05H
	DD	0f4240H
	DD	04c4b40H
	DD	07H
	DD	0f4240H
_g_iNpcUpRgLevel_CSTATUE DD 01H
	DD	03H
	DD	04c4b40H
	DD	02H
	DD	05H
	DD	04c4b40H
	DD	03H
	DD	07H
	DD	04c4b40H
_g_iCsUserReSpawnArea DD 023H
	DD	011H
	DD	090H
	DD	030H
	DD	04aH
	DD	090H
	DD	073H
	DD	09aH
	DD	023H
	DD	011H
	DD	090H
	DD	030H
_g_iNpcDefense_CGATE DD 064H
	DD	0b4H
	DD	012cH
	DD	0208H
_g_iNpcDefense_CSTATUE DD 050H
	DD	0b4H
	DD	0154H
	DD	0226H
_g_iCastleWallStepAxisY DD 071H
	DD	0a0H
	DD	0cbH
_g_sttBLOODCASTLE_LEVEL DD 0fH
	DD	050H
	DD	0aH
	DD	03cH
	DD	051H
	DD	082H
	DD	03dH
	DD	06eH
	DD	083H
	DD	0b4H
	DD	06fH
	DD	0a0H
	DD	0b5H
	DD	0e6H
	DD	0a1H
	DD	0d2H
	DD	0e7H
	DD	0118H
	DD	0d3H
	DD	0104H
	DD	0119H
	DD	014aH
	DD	0105H
	DD	0136H
	DD	014bH
	DD	0190H
	DD	0137H
	DD	0190H
	DD	0fH
	DD	0257H
	DD	0aH
	DD	0257H
_DATA	ENDS
PUBLIC	??_H@YGXPAXIHP6EPAX0@Z@Z			; `vector constructor iterator'
; Function compile flags: /Odtp /ZI /ZX
;	COMDAT ??_H@YGXPAXIHP6EPAX0@Z@Z
_TEXT	SEGMENT
___t$ = 8						; size = 4
___s$ = 12						; size = 4
___n$ = 16						; size = 4
___f$ = 20						; size = 4
??_H@YGXPAXIHP6EPAX0@Z@Z PROC				; `vector constructor iterator', COMDAT
  00000	55		 push	 ebp
  00001	8b ec		 mov	 ebp, esp
  00003	83 ec 40	 sub	 esp, 64			; 00000040H
  00006	53		 push	 ebx
  00007	56		 push	 esi
  00008	57		 push	 edi
$LN2@vector:
  00009	8b 45 10	 mov	 eax, DWORD PTR ___n$[ebp]
  0000c	83 e8 01	 sub	 eax, 1
  0000f	89 45 10	 mov	 DWORD PTR ___n$[ebp], eax
  00012	78 11		 js	 SHORT $LN3@vector
  00014	8b 4d 08	 mov	 ecx, DWORD PTR ___t$[ebp]
  00017	ff 55 14	 call	 DWORD PTR ___f$[ebp]
  0001a	8b 45 08	 mov	 eax, DWORD PTR ___t$[ebp]
  0001d	03 45 0c	 add	 eax, DWORD PTR ___s$[ebp]
  00020	89 45 08	 mov	 DWORD PTR ___t$[ebp], eax
  00023	eb e4		 jmp	 SHORT $LN2@vector
$LN3@vector:
  00025	5f		 pop	 edi
  00026	5e		 pop	 esi
  00027	5b		 pop	 ebx
  00028	8b e5		 mov	 esp, ebp
  0002a	5d		 pop	 ebp
  0002b	c2 10 00	 ret	 16			; 00000010H
??_H@YGXPAXIHP6EPAX0@Z@Z ENDP				; `vector constructor iterator'
_TEXT	ENDS
PUBLIC	?ManagerInit@CGMMng@@QAEXXZ			; CGMMng::ManagerInit
PUBLIC	??0CGMCommand@@QAE@XZ				; CGMCommand::CGMCommand
PUBLIC	??_7CGMMng@@6B@					; CGMMng::`vftable'
PUBLIC	??0CGMMng@@QAE@XZ				; CGMMng::CGMMng
PUBLIC	??_R4CGMMng@@6B@				; CGMMng::`RTTI Complete Object Locator'
PUBLIC	??_R0?AVCGMMng@@@8				; CGMMng `RTTI Type Descriptor'
PUBLIC	??_R3CGMMng@@8					; CGMMng::`RTTI Class Hierarchy Descriptor'
PUBLIC	??_R2CGMMng@@8					; CGMMng::`RTTI Base Class Array'
PUBLIC	??_R1A@?0A@EA@CGMMng@@8				; CGMMng::`RTTI Base Class Descriptor at (0,-1,0,64)'
EXTRN	??_7type_info@@6B@:QWORD			; type_info::`vftable'
EXTRN	??_ECGMMng@@UAEPAXI@Z:PROC			; CGMMng::`vector deleting destructor'
;	COMDAT ??_R1A@?0A@EA@CGMMng@@8
; File d:\projects\exteam6.3\source\gameserver\gameserver\gmmng.cpp
rdata$r	SEGMENT
??_R1A@?0A@EA@CGMMng@@8 DD FLAT:??_R0?AVCGMMng@@@8	; CGMMng::`RTTI Base Class Descriptor at (0,-1,0,64)'
	DD	00H
	DD	00H
	DD	0ffffffffH
	DD	00H
	DD	040H
	DD	FLAT:??_R3CGMMng@@8
rdata$r	ENDS
;	COMDAT ??_R2CGMMng@@8
rdata$r	SEGMENT
??_R2CGMMng@@8 DD FLAT:??_R1A@?0A@EA@CGMMng@@8		; CGMMng::`RTTI Base Class Array'
rdata$r	ENDS
;	COMDAT ??_R3CGMMng@@8
rdata$r	SEGMENT
??_R3CGMMng@@8 DD 00H					; CGMMng::`RTTI Class Hierarchy Descriptor'
	DD	00H
	DD	01H
	DD	FLAT:??_R2CGMMng@@8
rdata$r	ENDS
;	COMDAT ??_R0?AVCGMMng@@@8
_DATA	SEGMENT
??_R0?AVCGMMng@@@8 DD FLAT:??_7type_info@@6B@		; CGMMng `RTTI Type Descriptor'
	DD	00H
	DB	'.?AVCGMMng@@', 00H
_DATA	ENDS
;	COMDAT ??_R4CGMMng@@6B@
rdata$r	SEGMENT
??_R4CGMMng@@6B@ DD 00H					; CGMMng::`RTTI Complete Object Locator'
	DD	00H
	DD	00H
	DD	FLAT:??_R0?AVCGMMng@@@8
	DD	FLAT:??_R3CGMMng@@8
rdata$r	ENDS
;	COMDAT ??_7CGMMng@@6B@
CONST	SEGMENT
??_7CGMMng@@6B@ DD FLAT:??_R4CGMMng@@6B@		; CGMMng::`vftable'
	DD	FLAT:??_ECGMMng@@UAEPAXI@Z
; Function compile flags: /Odtp /ZI /ZX
CONST	ENDS
;	COMDAT ??0CGMMng@@QAE@XZ
_TEXT	SEGMENT
_this$ = -4						; size = 4
??0CGMMng@@QAE@XZ PROC					; CGMMng::CGMMng, COMDAT
; _this$ = ecx

; 69   : {

  00000	55		 push	 ebp
  00001	8b ec		 mov	 ebp, esp
  00003	83 ec 44	 sub	 esp, 68			; 00000044H
  00006	53		 push	 ebx
  00007	56		 push	 esi
  00008	57		 push	 edi
  00009	89 4d fc	 mov	 DWORD PTR _this$[ebp], ecx
  0000c	8b 45 fc	 mov	 eax, DWORD PTR _this$[ebp]
  0000f	c7 00 00 00 00
	00		 mov	 DWORD PTR [eax], OFFSET ??_7CGMMng@@6B@
  00015	8b 4d fc	 mov	 ecx, DWORD PTR _this$[ebp]
  00018	83 c1 04	 add	 ecx, 4
  0001b	e8 00 00 00 00	 call	 ??0CGMCommand@@QAE@XZ	; CGMCommand::CGMCommand

; 70   : 	this->ManagerInit();

  00020	8b 4d fc	 mov	 ecx, DWORD PTR _this$[ebp]
  00023	e8 00 00 00 00	 call	 ?ManagerInit@CGMMng@@QAEXXZ ; CGMMng::ManagerInit

; 71   : }

  00028	8b 45 fc	 mov	 eax, DWORD PTR _this$[ebp]
  0002b	5f		 pop	 edi
  0002c	5e		 pop	 esi
  0002d	5b		 pop	 ebx
  0002e	8b e5		 mov	 esp, ebp
  00030	5d		 pop	 ebp
  00031	c3		 ret	 0
??0CGMMng@@QAE@XZ ENDP					; CGMMng::CGMMng
_TEXT	ENDS
PUBLIC	?Init@CGMCommand@@QAEXXZ			; CGMCommand::Init
; Function compile flags: /Odtp /ZI /ZX
; File d:\projects\exteam6.3\source\gameserver\gameserver\gmmng.h
;	COMDAT ??0CGMCommand@@QAE@XZ
_TEXT	SEGMENT
_this$ = -4						; size = 4
??0CGMCommand@@QAE@XZ PROC				; CGMCommand::CGMCommand, COMDAT
; _this$ = ecx

; 31   : 	CGMCommand()

  00000	55		 push	 ebp
  00001	8b ec		 mov	 ebp, esp
  00003	83 ec 44	 sub	 esp, 68			; 00000044H
  00006	53		 push	 ebx
  00007	56		 push	 esi
  00008	57		 push	 edi
  00009	89 4d fc	 mov	 DWORD PTR _this$[ebp], ecx

; 32   : 	{
; 33   : 		this->Init();

  0000c	8b 4d fc	 mov	 ecx, DWORD PTR _this$[ebp]
  0000f	e8 00 00 00 00	 call	 ?Init@CGMCommand@@QAEXXZ ; CGMCommand::Init

; 34   : 	}

  00014	8b 45 fc	 mov	 eax, DWORD PTR _this$[ebp]
  00017	5f		 pop	 edi
  00018	5e		 pop	 esi
  00019	5b		 pop	 ebx
  0001a	8b e5		 mov	 esp, ebp
  0001c	5d		 pop	 ebp
  0001d	c3		 ret	 0
??0CGMCommand@@QAE@XZ ENDP				; CGMCommand::CGMCommand
; Function compile flags: /Odtp /ZI /ZX
_TEXT	ENDS
;	COMDAT ?Init@CGMCommand@@QAEXXZ
_TEXT	SEGMENT
_n$218887 = -8						; size = 4
_this$ = -4						; size = 4
?Init@CGMCommand@@QAEXXZ PROC				; CGMCommand::Init, COMDAT
; _this$ = ecx

; 37   : 	{

  00000	55		 push	 ebp
  00001	8b ec		 mov	 ebp, esp
  00003	83 ec 48	 sub	 esp, 72			; 00000048H
  00006	53		 push	 ebx
  00007	56		 push	 esi
  00008	57		 push	 edi
  00009	89 4d fc	 mov	 DWORD PTR _this$[ebp], ecx

; 38   : 		for ( int n = 0; n<  MAX_GM_COMMAND; n++ )

  0000c	c7 45 f8 00 00
	00 00		 mov	 DWORD PTR _n$218887[ebp], 0
  00013	eb 09		 jmp	 SHORT $LN3@Init
$LN2@Init:
  00015	8b 45 f8	 mov	 eax, DWORD PTR _n$218887[ebp]
  00018	83 c0 01	 add	 eax, 1
  0001b	89 45 f8	 mov	 DWORD PTR _n$218887[ebp], eax
$LN3@Init:
  0001e	81 7d f8 bc 02
	00 00		 cmp	 DWORD PTR _n$218887[ebp], 700 ; 000002bcH
  00025	7d 0f		 jge	 SHORT $LN1@Init

; 39   : 		{
; 40   : 			this->nCmdCode[0] = -1;

  00027	8b 45 fc	 mov	 eax, DWORD PTR _this$[ebp]
  0002a	c7 80 b0 36 00
	00 ff ff ff ff	 mov	 DWORD PTR [eax+14000], -1

; 41   : 		}

  00034	eb df		 jmp	 SHORT $LN2@Init
$LN1@Init:

; 42   : 
; 43   : 		this->count=0;

  00036	8b 45 fc	 mov	 eax, DWORD PTR _this$[ebp]
  00039	c7 80 90 4c 00
	00 00 00 00 00	 mov	 DWORD PTR [eax+19600], 0

; 44   : 	}

  00043	5f		 pop	 edi
  00044	5e		 pop	 esi
  00045	5b		 pop	 ebx
  00046	8b e5		 mov	 esp, ebp
  00048	5d		 pop	 ebp
  00049	c3		 ret	 0
?Init@CGMCommand@@QAEXXZ ENDP				; CGMCommand::Init
_TEXT	ENDS
PUBLIC	??1CGMMng@@UAE@XZ				; CGMMng::~CGMMng
EXTRN	??3@YAXPAX@Z:PROC				; operator delete
; Function compile flags: /Odtp /ZI /ZX
;	COMDAT ??_GCGMMng@@UAEPAXI@Z
_TEXT	SEGMENT
_this$ = -4						; size = 4
___flags$ = 8						; size = 4
??_GCGMMng@@UAEPAXI@Z PROC				; CGMMng::`scalar deleting destructor', COMDAT
; _this$ = ecx
  00000	55		 push	 ebp
  00001	8b ec		 mov	 ebp, esp
  00003	83 ec 44	 sub	 esp, 68			; 00000044H
  00006	53		 push	 ebx
  00007	56		 push	 esi
  00008	57		 push	 edi
  00009	89 4d fc	 mov	 DWORD PTR _this$[ebp], ecx
  0000c	8b 4d fc	 mov	 ecx, DWORD PTR _this$[ebp]
  0000f	e8 00 00 00 00	 call	 ??1CGMMng@@UAE@XZ	; CGMMng::~CGMMng
  00014	8b 45 08	 mov	 eax, DWORD PTR ___flags$[ebp]
  00017	83 e0 01	 and	 eax, 1
  0001a	74 0c		 je	 SHORT $LN1@scalar
  0001c	8b 45 fc	 mov	 eax, DWORD PTR _this$[ebp]
  0001f	50		 push	 eax
  00020	e8 00 00 00 00	 call	 ??3@YAXPAX@Z		; operator delete
  00025	83 c4 04	 add	 esp, 4
$LN1@scalar:
  00028	8b 45 fc	 mov	 eax, DWORD PTR _this$[ebp]
  0002b	5f		 pop	 edi
  0002c	5e		 pop	 esi
  0002d	5b		 pop	 ebx
  0002e	8b e5		 mov	 esp, ebp
  00030	5d		 pop	 ebp
  00031	c2 04 00	 ret	 4
??_GCGMMng@@UAEPAXI@Z ENDP				; CGMMng::`scalar deleting destructor'
; Function compile flags: /Odtp /ZI /ZX
; File d:\projects\exteam6.3\source\gameserver\gameserver\gmmng.cpp
_TEXT	ENDS
;	COMDAT ??1CGMMng@@UAE@XZ
_TEXT	SEGMENT
_this$ = -4						; size = 4
??1CGMMng@@UAE@XZ PROC					; CGMMng::~CGMMng, COMDAT
; _this$ = ecx

; 74   : {

  00000	55		 push	 ebp
  00001	8b ec		 mov	 ebp, esp
  00003	83 ec 44	 sub	 esp, 68			; 00000044H
  00006	53		 push	 ebx
  00007	56		 push	 esi
  00008	57		 push	 edi
  00009	89 4d fc	 mov	 DWORD PTR _this$[ebp], ecx
  0000c	8b 45 fc	 mov	 eax, DWORD PTR _this$[ebp]
  0000f	c7 00 00 00 00
	00		 mov	 DWORD PTR [eax], OFFSET ??_7CGMMng@@6B@

; 75   : 	return;
; 76   : }

  00015	5f		 pop	 edi
  00016	5e		 pop	 esi
  00017	5b		 pop	 ebx
  00018	8b e5		 mov	 esp, ebp
  0001a	5d		 pop	 ebp
  0001b	c3		 ret	 0
??1CGMMng@@UAE@XZ ENDP					; CGMMng::~CGMMng
_TEXT	ENDS
PUBLIC	??_C@_07IDNEBNCB@?1devcmd?$AA@			; `string'
PUBLIC	??_C@_0M@NIJIEKGF@?1exgemstone?$AA@		; `string'
PUBLIC	??_C@_0N@HIHAPALF@?1exhighstone?$AA@		; `string'
PUBLIC	??_C@_0M@IKDALPA@?1exlowstone?$AA@		; `string'
PUBLIC	??_C@_0L@CLNPLLFC@?1exharmony?$AA@		; `string'
PUBLIC	??_C@_0M@FPMJEDH@?1exguardian?$AA@		; `string'
PUBLIC	??_C@_0O@OKLONGLA@?1unbanhddchar?$AA@		; `string'
PUBLIC	??_C@_0M@NHDNJBDO@?1banhddchar?$AA@		; `string'
PUBLIC	??_C@_0O@LMOEHBDG@?1unbanhddchat?$AA@		; `string'
PUBLIC	??_C@_0M@IBGHDGLI@?1banhddchat?$AA@		; `string'
PUBLIC	??_C@_06BJAPKEDH@?1value?$AA@			; `string'
PUBLIC	??_C@_08DDIGOKCM@?1vipgold?$AA@			; `string'
PUBLIC	??_C@_0L@JFCDIFCF@?1vipsilver?$AA@		; `string'
PUBLIC	??_C@_0L@PNGPIFHM@?1vipbronze?$AA@		; `string'
PUBLIC	??_C@_05FGPHNHGJ@?1item?$AA@			; `string'
PUBLIC	??_C@_04MKJBKCIE@?1hdd?$AA@			; `string'
PUBLIC	??_C@_06HAHILENG@?1debug?$AA@			; `string'
PUBLIC	??_C@_0O@CMGAEGID@?1dungeonstart?$AA@		; `string'
PUBLIC	??_C@_07NCDKIDDB@?1donate?$AA@			; `string'
PUBLIC	??_C@_09EJHEJBEA@?1autopton?$AA@		; `string'
PUBLIC	??_C@_0L@ELCBKIJI@?1autoptoff?$AA@		; `string'
PUBLIC	??_C@_0M@DHAJNDE@?1excreateon?$AA@		; `string'
PUBLIC	??_C@_0O@IOLIDNKE@?1recvcreation?$AA@		; `string'
PUBLIC	??_C@_0O@LLOBPIPD@?1sendcreation?$AA@		; `string'
PUBLIC	??_C@_0O@MEGOICBM@?1recvcreateon?$AA@		; `string'
PUBLIC	??_C@_0O@PBDHEHEL@?1sendcreateon?$AA@		; `string'
PUBLIC	??_C@_0N@NFDFBKKN@?1marriageoff?$AA@		; `string'
PUBLIC	??_C@_06BNIOKPKM@?1dcall?$AA@			; `string'
PUBLIC	??_C@_07PDCMEENC@?1bminfo?$AA@			; `string'
PUBLIC	??_C@_06GINDBCMA@?1brnew?$AA@			; `string'
PUBLIC	??_C@_0BA@DAGCBHNP@?1inventoryclear?$AA@	; `string'
PUBLIC	??_C@_0M@OHEIGHFM@?1sendgoblin?$AA@		; `string'
PUBLIC	??_C@_0M@OJBECGDA@?1sendwcoinp?$AA@		; `string'
PUBLIC	??_C@_0M@IIPLGHKC@?1sendwcoinc?$AA@		; `string'
PUBLIC	??_C@_07BDEEJNHJ@?1brexit?$AA@			; `string'
PUBLIC	??_C@_08LDNPGJCN@?1brstart?$AA@			; `string'
PUBLIC	??_C@_0M@LDFBIEGN@?1brteleport?$AA@		; `string'
PUBLIC	??_C@_09IIEGDHLF@?1dcfriend?$AA@		; `string'
PUBLIC	??_C@_0N@NIKPNBKG@?1sendcredits?$AA@		; `string'
PUBLIC	??_C@_0M@IACMBDON@?1buypremium?$AA@		; `string'
PUBLIC	??_C@_07MKEILGDH@?1exlife?$AA@			; `string'
PUBLIC	??_C@_07MCDBEPNI@?1exsoul?$AA@			; `string'
PUBLIC	??_C@_08EEJBFJKA@?1exbless?$AA@			; `string'
PUBLIC	??_C@_08OABDOBIG@?1exchaos?$AA@			; `string'
PUBLIC	??_C@_0O@NDNCBCHD@?1goblin?9wcoin?$AA@		; `string'
PUBLIC	??_C@_07KPPMHOOK@?1credit?$AA@			; `string'
PUBLIC	??_C@_0O@FLPDDCNI@?1autopartyoff?$AA@		; `string'
PUBLIC	??_C@_0O@DAIGOBHN@?1?e?$IF?$LD?i?$JH?$KN?g?$LL?$IE?i?$JI?$JP?$AA@ ; `string'
PUBLIC	??_C@_06FIPLOCBG@?1class?$AA@			; `string'
PUBLIC	??_C@_08DKFHDEAN@?1recvzen?$AA@			; `string'
PUBLIC	??_C@_08FAEDODKP@?1sendzen?$AA@			; `string'
PUBLIC	??_C@_0L@JDKKEGKI@?1autoparty?$AA@		; `string'
PUBLIC	??_C@_0O@FIPFODPP@?1?e?$KP?$LL?f?$LB?$IC?g?$LL?$IE?i?$JI?$JP?$AA@ ; `string'
PUBLIC	??_C@_0M@JGOFGPBN@?1sellcredit?$AA@		; `string'
PUBLIC	??_C@_04EHKEOHLL@?1buy?$AA@			; `string'
PUBLIC	??_C@_09MNGEDIEJ@?1recvlife?$AA@		; `string'
PUBLIC	??_C@_0N@LKMEFKIL@?1recvjowbank?$AA@		; `string'
PUBLIC	??_C@_09MFBNMBKG@?1recvsoul?$AA@		; `string'
PUBLIC	??_C@_0L@PDCLCJBF@?1recvbless?$AA@		; `string'
PUBLIC	??_C@_0L@FHKJJBDD@?1recvchaos?$AA@		; `string'
PUBLIC	??_C@_09PFNGOOFK@?1sendlife?$AA@		; `string'
PUBLIC	??_C@_0N@FGKJPHKD@?1sendjowbank?$AA@		; `string'
PUBLIC	??_C@_09PNKPBHLF@?1sendsoul?$AA@		; `string'
PUBLIC	??_C@_0L@HHKNNKBN@?1sendbless?$AA@		; `string'
PUBLIC	??_C@_0L@NDCPGCDL@?1sendchaos?$AA@		; `string'
PUBLIC	??_C@_07EGGDJHFC@?1offafk?$AA@			; `string'
PUBLIC	??_C@_0L@PMDAMHEH@?1unbanchar?$AA@		; `string'
PUBLIC	??_C@_0O@HMBHKGBH@?1unbanallchat?$AA@		; `string'
PUBLIC	??_C@_0L@PFPMCDE@?1unbanpost?$AA@		; `string'
PUBLIC	??_C@_0L@KKGKGAMB@?1unbanchat?$AA@		; `string'
PUBLIC	??_C@_0M@EBJEOBJJ@?1banallchat?$AA@		; `string'
PUBLIC	??_C@_08LNFDEAIM@?1banchar?$AA@			; `string'
PUBLIC	??_C@_08EODMEFPP@?1banpost?$AA@			; `string'
PUBLIC	??_C@_08OLAJOHAK@?1banchat?$AA@			; `string'
PUBLIC	??_C@_0N@GKFFDGBI@?1partyleader?$AA@		; `string'
PUBLIC	??_C@_06EIGIJLP@?1gmove?$AA@			; `string'
PUBLIC	??_C@_09LAHGFBL@?1hide_off?$AA@			; `string'
PUBLIC	??_C@_08LALCHEKK@?1hide_on?$AA@			; `string'
PUBLIC	??_C@_09EAFKELFJ@?1?P?$JG?Q?$II?P?$JB?P?$KH?$AA@ ; `string'
PUBLIC	??_C@_0O@GJAGAOFL@?1cschangeside?$AA@		; `string'
PUBLIC	??_C@_0M@IJGCKGEE@?1cscurstate?$AA@		; `string'
PUBLIC	??_C@_0M@PKNCEDPD@?1cscurowner?$AA@		; `string'
PUBLIC	??_C@_09CDNJLJCO@?1cssetend?$AA@		; `string'
PUBLIC	??_C@_0M@GNJNLPIG@?1cssetstart?$AA@		; `string'
PUBLIC	??_C@_0N@KFOJMJDB@?1cssetnotify?$AA@		; `string'
PUBLIC	??_C@_0O@LJFGCBBI@?1cssetregmark?$AA@		; `string'
PUBLIC	??_C@_0P@MGCHOPPN@?1cssetregsiege?$AA@		; `string'
PUBLIC	??_C@_0P@CFKAJOGB@?1cschangeowner?$AA@		; `string'
PUBLIC	??_C@_0BL@KOKNBECL@?1?P?$JE?P?$LP?B?$LF?P?$KA?P?$JI?Q?$JB?Q?$JE?b?$IE?$JG?P?$IF?P?$JD?B?$LA?P?$II?$AA@ ; `string'
PUBLIC	??_C@_0BP@MHDOCMHI@?1?P?$JE?P?$LP?B?$LF?P?$KA?P?$JD?P?$JK?R?$JB?P?$LH?P?$JI?Q?$JB?Q?$JE?b?$IE?$JG?B?$LH?B?$KO?$AA@ ; `string'
PUBLIC	??_C@_0BH@NLDKOEC@?1?P?$JE?P?$LP?B?$LF?P?$KA?P?$JI?Q?$JB?Q?$JE?b?$IE?$JG?B?$LH?B?$KO?$AA@ ; `string'
PUBLIC	??_C@_0O@KDDMLHBD@?1?P?$JE?P?$LP?B?$LF?P?$KA?P?$JH?P?$JH?$AA@ ; `string'
PUBLIC	??_C@_0BC@GBNLHOPJ@?1?P?$JE?P?$LP?B?$LF?P?$KA?B?$LL?Q?$ID?P?$JF?P?$JC?$AA@ ; `string'
PUBLIC	??_C@_0M@EEPBOOJK@?1summonchar?$AA@		; `string'
PUBLIC	??_C@_0M@GPOPOLAO@?1clearinven?$AA@		; `string'
PUBLIC	??_C@_0L@BMILIDFD@?1clearitem?$AA@		; `string'
PUBLIC	??_C@_0O@OHPCDLEP@?1clearmonster?$AA@		; `string'
PUBLIC	??_C@_0P@FBJALDCH@?1summonmonster?$AA@		; `string'
PUBLIC	??_C@_06JICFFAOM@?1party?$AA@			; `string'
PUBLIC	??_C@_08NMMECFKO@?1ability?$AA@			; `string'
PUBLIC	??_C@_0BG@PNEPKIIO@?1?P?$JE?Q?$JG?Q?$JB?P?$IH?P?$JF?P?$JN?Q?$JI?P?$KC?P?$JI?P?$IH?$AA@ ; `string'
PUBLIC	??_C@_0BC@HGBNMGDM@?1?P?$JA?P?$JO?Q?$JE?R?$JA?P?$JB?B?$KG?B?$LA?P?$JF?$AA@ ; `string'
PUBLIC	??_C@_0BG@NBAPMMFL@?1?Q?$JF?P?$JG?P?$JA?P?$JM?P?$JF?P?$KL?P?$JB?B?$KG?B?$LA?P?$JF?$AA@ ; `string'
PUBLIC	??_C@_0CM@LECGFHHO@?1?P?$JC?Q?$JB?P?$JD?Q?$JG?P?$JC?P?$IF?P?$JC?Q?$JE?P?$JD?b?$IA?$KG?P?$JD?P?$IM?P?$JD?P?$ID?P?$JC@ ; `string'
PUBLIC	??_C@_0CN@LLDFLEHF@?1?P?$JC?Q?$JB?P?$JD?Q?$JG?P?$JC?P?$IF?P?$JC?Q?$JE?P?$JD?b?$IA?$KG?P?$JD?P?$IM?P?$JC?Q?$JI?P?$JD@ ; `string'
PUBLIC	??_C@_09FGPCPKLP@?1?P?$JG?P?$JE?P?$JG?Q?$JI?$AA@ ; `string'
PUBLIC	??_C@_09DHNMEGPK@?1?R?$JB?P?$JJ?B?$LH?P?$JC?$AA@ ; `string'
PUBLIC	?Add@CGMCommand@@QAEXPADHH@Z			; CGMCommand::Add
PUBLIC	?Init@CGMMng@@QAEXXZ				; CGMMng::Init
EXTRN	?GetText@CExText@@QAEPADH@Z:PROC		; CExText::GetText
EXTRN	?g_ExText@@3VCExText@@A:BYTE			; g_ExText
EXTRN	?CheckUser@CExLicense@@QAE_NH@Z:PROC		; CExLicense::CheckUser
EXTRN	?g_ExLicense@@3VCExLicense@@A:BYTE		; g_ExLicense
EXTRN	?Get@CMsg@@QAEPADH@Z:PROC			; CMsg::Get
EXTRN	?lMsg@@3VCMsg@@A:BYTE				; lMsg
;	COMDAT ??_C@_07IDNEBNCB@?1devcmd?$AA@
CONST	SEGMENT
??_C@_07IDNEBNCB@?1devcmd?$AA@ DB '/devcmd', 00H	; `string'
CONST	ENDS
;	COMDAT ??_C@_0M@NIJIEKGF@?1exgemstone?$AA@
CONST	SEGMENT
??_C@_0M@NIJIEKGF@?1exgemstone?$AA@ DB '/exgemstone', 00H ; `string'
CONST	ENDS
;	COMDAT ??_C@_0N@HIHAPALF@?1exhighstone?$AA@
CONST	SEGMENT
??_C@_0N@HIHAPALF@?1exhighstone?$AA@ DB '/exhighstone', 00H ; `string'
CONST	ENDS
;	COMDAT ??_C@_0M@IKDALPA@?1exlowstone?$AA@
CONST	SEGMENT
??_C@_0M@IKDALPA@?1exlowstone?$AA@ DB '/exlowstone', 00H ; `string'
CONST	ENDS
;	COMDAT ??_C@_0L@CLNPLLFC@?1exharmony?$AA@
CONST	SEGMENT
??_C@_0L@CLNPLLFC@?1exharmony?$AA@ DB '/exharmony', 00H	; `string'
CONST	ENDS
;	COMDAT ??_C@_0M@FPMJEDH@?1exguardian?$AA@
CONST	SEGMENT
??_C@_0M@FPMJEDH@?1exguardian?$AA@ DB '/exguardian', 00H ; `string'
CONST	ENDS
;	COMDAT ??_C@_0O@OKLONGLA@?1unbanhddchar?$AA@
CONST	SEGMENT
??_C@_0O@OKLONGLA@?1unbanhddchar?$AA@ DB '/unbanhddchar', 00H ; `string'
CONST	ENDS
;	COMDAT ??_C@_0M@NHDNJBDO@?1banhddchar?$AA@
CONST	SEGMENT
??_C@_0M@NHDNJBDO@?1banhddchar?$AA@ DB '/banhddchar', 00H ; `string'
CONST	ENDS
;	COMDAT ??_C@_0O@LMOEHBDG@?1unbanhddchat?$AA@
CONST	SEGMENT
??_C@_0O@LMOEHBDG@?1unbanhddchat?$AA@ DB '/unbanhddchat', 00H ; `string'
CONST	ENDS
;	COMDAT ??_C@_0M@IBGHDGLI@?1banhddchat?$AA@
CONST	SEGMENT
??_C@_0M@IBGHDGLI@?1banhddchat?$AA@ DB '/banhddchat', 00H ; `string'
CONST	ENDS
;	COMDAT ??_C@_06BJAPKEDH@?1value?$AA@
CONST	SEGMENT
??_C@_06BJAPKEDH@?1value?$AA@ DB '/value', 00H		; `string'
CONST	ENDS
;	COMDAT ??_C@_08DDIGOKCM@?1vipgold?$AA@
CONST	SEGMENT
??_C@_08DDIGOKCM@?1vipgold?$AA@ DB '/vipgold', 00H	; `string'
CONST	ENDS
;	COMDAT ??_C@_0L@JFCDIFCF@?1vipsilver?$AA@
CONST	SEGMENT
??_C@_0L@JFCDIFCF@?1vipsilver?$AA@ DB '/vipsilver', 00H	; `string'
CONST	ENDS
;	COMDAT ??_C@_0L@PNGPIFHM@?1vipbronze?$AA@
CONST	SEGMENT
??_C@_0L@PNGPIFHM@?1vipbronze?$AA@ DB '/vipbronze', 00H	; `string'
CONST	ENDS
;	COMDAT ??_C@_05FGPHNHGJ@?1item?$AA@
CONST	SEGMENT
??_C@_05FGPHNHGJ@?1item?$AA@ DB '/item', 00H		; `string'
CONST	ENDS
;	COMDAT ??_C@_04MKJBKCIE@?1hdd?$AA@
CONST	SEGMENT
??_C@_04MKJBKCIE@?1hdd?$AA@ DB '/hdd', 00H		; `string'
CONST	ENDS
;	COMDAT ??_C@_06HAHILENG@?1debug?$AA@
CONST	SEGMENT
??_C@_06HAHILENG@?1debug?$AA@ DB '/debug', 00H		; `string'
CONST	ENDS
;	COMDAT ??_C@_0O@CMGAEGID@?1dungeonstart?$AA@
CONST	SEGMENT
??_C@_0O@CMGAEGID@?1dungeonstart?$AA@ DB '/dungeonstart', 00H ; `string'
CONST	ENDS
;	COMDAT ??_C@_07NCDKIDDB@?1donate?$AA@
CONST	SEGMENT
??_C@_07NCDKIDDB@?1donate?$AA@ DB '/donate', 00H	; `string'
CONST	ENDS
;	COMDAT ??_C@_09EJHEJBEA@?1autopton?$AA@
CONST	SEGMENT
??_C@_09EJHEJBEA@?1autopton?$AA@ DB '/autopton', 00H	; `string'
CONST	ENDS
;	COMDAT ??_C@_0L@ELCBKIJI@?1autoptoff?$AA@
CONST	SEGMENT
??_C@_0L@ELCBKIJI@?1autoptoff?$AA@ DB '/autoptoff', 00H	; `string'
CONST	ENDS
;	COMDAT ??_C@_0M@DHAJNDE@?1excreateon?$AA@
CONST	SEGMENT
??_C@_0M@DHAJNDE@?1excreateon?$AA@ DB '/excreateon', 00H ; `string'
CONST	ENDS
;	COMDAT ??_C@_0O@IOLIDNKE@?1recvcreation?$AA@
CONST	SEGMENT
??_C@_0O@IOLIDNKE@?1recvcreation?$AA@ DB '/recvcreation', 00H ; `string'
CONST	ENDS
;	COMDAT ??_C@_0O@LLOBPIPD@?1sendcreation?$AA@
CONST	SEGMENT
??_C@_0O@LLOBPIPD@?1sendcreation?$AA@ DB '/sendcreation', 00H ; `string'
CONST	ENDS
;	COMDAT ??_C@_0O@MEGOICBM@?1recvcreateon?$AA@
CONST	SEGMENT
??_C@_0O@MEGOICBM@?1recvcreateon?$AA@ DB '/recvcreateon', 00H ; `string'
CONST	ENDS
;	COMDAT ??_C@_0O@PBDHEHEL@?1sendcreateon?$AA@
CONST	SEGMENT
??_C@_0O@PBDHEHEL@?1sendcreateon?$AA@ DB '/sendcreateon', 00H ; `string'
CONST	ENDS
;	COMDAT ??_C@_0N@NFDFBKKN@?1marriageoff?$AA@
CONST	SEGMENT
??_C@_0N@NFDFBKKN@?1marriageoff?$AA@ DB '/marriageoff', 00H ; `string'
CONST	ENDS
;	COMDAT ??_C@_06BNIOKPKM@?1dcall?$AA@
CONST	SEGMENT
??_C@_06BNIOKPKM@?1dcall?$AA@ DB '/dcall', 00H		; `string'
CONST	ENDS
;	COMDAT ??_C@_07PDCMEENC@?1bminfo?$AA@
CONST	SEGMENT
??_C@_07PDCMEENC@?1bminfo?$AA@ DB '/bminfo', 00H	; `string'
CONST	ENDS
;	COMDAT ??_C@_06GINDBCMA@?1brnew?$AA@
CONST	SEGMENT
??_C@_06GINDBCMA@?1brnew?$AA@ DB '/brnew', 00H		; `string'
CONST	ENDS
;	COMDAT ??_C@_0BA@DAGCBHNP@?1inventoryclear?$AA@
CONST	SEGMENT
??_C@_0BA@DAGCBHNP@?1inventoryclear?$AA@ DB '/inventoryclear', 00H ; `string'
CONST	ENDS
;	COMDAT ??_C@_0M@OHEIGHFM@?1sendgoblin?$AA@
CONST	SEGMENT
??_C@_0M@OHEIGHFM@?1sendgoblin?$AA@ DB '/sendgoblin', 00H ; `string'
CONST	ENDS
;	COMDAT ??_C@_0M@OJBECGDA@?1sendwcoinp?$AA@
CONST	SEGMENT
??_C@_0M@OJBECGDA@?1sendwcoinp?$AA@ DB '/sendwcoinp', 00H ; `string'
CONST	ENDS
;	COMDAT ??_C@_0M@IIPLGHKC@?1sendwcoinc?$AA@
CONST	SEGMENT
??_C@_0M@IIPLGHKC@?1sendwcoinc?$AA@ DB '/sendwcoinc', 00H ; `string'
CONST	ENDS
;	COMDAT ??_C@_07BDEEJNHJ@?1brexit?$AA@
CONST	SEGMENT
??_C@_07BDEEJNHJ@?1brexit?$AA@ DB '/brexit', 00H	; `string'
CONST	ENDS
;	COMDAT ??_C@_08LDNPGJCN@?1brstart?$AA@
CONST	SEGMENT
??_C@_08LDNPGJCN@?1brstart?$AA@ DB '/brstart', 00H	; `string'
CONST	ENDS
;	COMDAT ??_C@_0M@LDFBIEGN@?1brteleport?$AA@
CONST	SEGMENT
??_C@_0M@LDFBIEGN@?1brteleport?$AA@ DB '/brteleport', 00H ; `string'
CONST	ENDS
;	COMDAT ??_C@_09IIEGDHLF@?1dcfriend?$AA@
CONST	SEGMENT
??_C@_09IIEGDHLF@?1dcfriend?$AA@ DB '/dcfriend', 00H	; `string'
CONST	ENDS
;	COMDAT ??_C@_0N@NIKPNBKG@?1sendcredits?$AA@
CONST	SEGMENT
??_C@_0N@NIKPNBKG@?1sendcredits?$AA@ DB '/sendcredits', 00H ; `string'
CONST	ENDS
;	COMDAT ??_C@_0M@IACMBDON@?1buypremium?$AA@
CONST	SEGMENT
??_C@_0M@IACMBDON@?1buypremium?$AA@ DB '/buypremium', 00H ; `string'
CONST	ENDS
;	COMDAT ??_C@_07MKEILGDH@?1exlife?$AA@
CONST	SEGMENT
??_C@_07MKEILGDH@?1exlife?$AA@ DB '/exlife', 00H	; `string'
CONST	ENDS
;	COMDAT ??_C@_07MCDBEPNI@?1exsoul?$AA@
CONST	SEGMENT
??_C@_07MCDBEPNI@?1exsoul?$AA@ DB '/exsoul', 00H	; `string'
CONST	ENDS
;	COMDAT ??_C@_08EEJBFJKA@?1exbless?$AA@
CONST	SEGMENT
??_C@_08EEJBFJKA@?1exbless?$AA@ DB '/exbless', 00H	; `string'
CONST	ENDS
;	COMDAT ??_C@_08OABDOBIG@?1exchaos?$AA@
CONST	SEGMENT
??_C@_08OABDOBIG@?1exchaos?$AA@ DB '/exchaos', 00H	; `string'
CONST	ENDS
;	COMDAT ??_C@_0O@NDNCBCHD@?1goblin?9wcoin?$AA@
CONST	SEGMENT
??_C@_0O@NDNCBCHD@?1goblin?9wcoin?$AA@ DB '/goblin-wcoin', 00H ; `string'
CONST	ENDS
;	COMDAT ??_C@_07KPPMHOOK@?1credit?$AA@
CONST	SEGMENT
??_C@_07KPPMHOOK@?1credit?$AA@ DB '/credit', 00H	; `string'
CONST	ENDS
;	COMDAT ??_C@_0O@FLPDDCNI@?1autopartyoff?$AA@
CONST	SEGMENT
??_C@_0O@FLPDDCNI@?1autopartyoff?$AA@ DB '/autopartyoff', 00H ; `string'
CONST	ENDS
;	COMDAT ??_C@_0O@DAIGOBHN@?1?e?$IF?$LD?i?$JH?$KN?g?$LL?$IE?i?$JI?$JP?$AA@
CONST	SEGMENT
??_C@_0O@DAIGOBHN@?1?e?$IF?$LD?i?$JH?$KN?g?$LL?$IE?i?$JI?$JP?$AA@ DB '/', 0e5H
	DB	085H, 0b3H, 0e9H, 097H, 0adH, 0e7H, 0bbH, 084H, 0e9H, 098H, 09fH
	DB	00H						; `string'
CONST	ENDS
;	COMDAT ??_C@_06FIPLOCBG@?1class?$AA@
CONST	SEGMENT
??_C@_06FIPLOCBG@?1class?$AA@ DB '/class', 00H		; `string'
CONST	ENDS
;	COMDAT ??_C@_08DKFHDEAN@?1recvzen?$AA@
CONST	SEGMENT
??_C@_08DKFHDEAN@?1recvzen?$AA@ DB '/recvzen', 00H	; `string'
CONST	ENDS
;	COMDAT ??_C@_08FAEDODKP@?1sendzen?$AA@
CONST	SEGMENT
??_C@_08FAEDODKP@?1sendzen?$AA@ DB '/sendzen', 00H	; `string'
CONST	ENDS
;	COMDAT ??_C@_0L@JDKKEGKI@?1autoparty?$AA@
CONST	SEGMENT
??_C@_0L@JDKKEGKI@?1autoparty?$AA@ DB '/autoparty', 00H	; `string'
CONST	ENDS
;	COMDAT ??_C@_0O@FIPFODPP@?1?e?$KP?$LL?f?$LB?$IC?g?$LL?$IE?i?$JI?$JP?$AA@
CONST	SEGMENT
??_C@_0O@FIPFODPP@?1?e?$KP?$LL?f?$LB?$IC?g?$LL?$IE?i?$JI?$JP?$AA@ DB '/', 0e5H
	DB	0afH, 0bbH, 0e6H, 0b1H, 082H, 0e7H, 0bbH, 084H, 0e9H, 098H, 09fH
	DB	00H						; `string'
CONST	ENDS
;	COMDAT ??_C@_0M@JGOFGPBN@?1sellcredit?$AA@
CONST	SEGMENT
??_C@_0M@JGOFGPBN@?1sellcredit?$AA@ DB '/sellcredit', 00H ; `string'
CONST	ENDS
;	COMDAT ??_C@_04EHKEOHLL@?1buy?$AA@
CONST	SEGMENT
??_C@_04EHKEOHLL@?1buy?$AA@ DB '/buy', 00H		; `string'
CONST	ENDS
;	COMDAT ??_C@_09MNGEDIEJ@?1recvlife?$AA@
CONST	SEGMENT
??_C@_09MNGEDIEJ@?1recvlife?$AA@ DB '/recvlife', 00H	; `string'
CONST	ENDS
;	COMDAT ??_C@_0N@LKMEFKIL@?1recvjowbank?$AA@
CONST	SEGMENT
??_C@_0N@LKMEFKIL@?1recvjowbank?$AA@ DB '/recvjowbank', 00H ; `string'
CONST	ENDS
;	COMDAT ??_C@_09MFBNMBKG@?1recvsoul?$AA@
CONST	SEGMENT
??_C@_09MFBNMBKG@?1recvsoul?$AA@ DB '/recvsoul', 00H	; `string'
CONST	ENDS
;	COMDAT ??_C@_0L@PDCLCJBF@?1recvbless?$AA@
CONST	SEGMENT
??_C@_0L@PDCLCJBF@?1recvbless?$AA@ DB '/recvbless', 00H	; `string'
CONST	ENDS
;	COMDAT ??_C@_0L@FHKJJBDD@?1recvchaos?$AA@
CONST	SEGMENT
??_C@_0L@FHKJJBDD@?1recvchaos?$AA@ DB '/recvchaos', 00H	; `string'
CONST	ENDS
;	COMDAT ??_C@_09PFNGOOFK@?1sendlife?$AA@
CONST	SEGMENT
??_C@_09PFNGOOFK@?1sendlife?$AA@ DB '/sendlife', 00H	; `string'
CONST	ENDS
;	COMDAT ??_C@_0N@FGKJPHKD@?1sendjowbank?$AA@
CONST	SEGMENT
??_C@_0N@FGKJPHKD@?1sendjowbank?$AA@ DB '/sendjowbank', 00H ; `string'
CONST	ENDS
;	COMDAT ??_C@_09PNKPBHLF@?1sendsoul?$AA@
CONST	SEGMENT
??_C@_09PNKPBHLF@?1sendsoul?$AA@ DB '/sendsoul', 00H	; `string'
CONST	ENDS
;	COMDAT ??_C@_0L@HHKNNKBN@?1sendbless?$AA@
CONST	SEGMENT
??_C@_0L@HHKNNKBN@?1sendbless?$AA@ DB '/sendbless', 00H	; `string'
CONST	ENDS
;	COMDAT ??_C@_0L@NDCPGCDL@?1sendchaos?$AA@
CONST	SEGMENT
??_C@_0L@NDCPGCDL@?1sendchaos?$AA@ DB '/sendchaos', 00H	; `string'
CONST	ENDS
;	COMDAT ??_C@_07EGGDJHFC@?1offafk?$AA@
CONST	SEGMENT
??_C@_07EGGDJHFC@?1offafk?$AA@ DB '/offafk', 00H	; `string'
CONST	ENDS
;	COMDAT ??_C@_0L@PMDAMHEH@?1unbanchar?$AA@
CONST	SEGMENT
??_C@_0L@PMDAMHEH@?1unbanchar?$AA@ DB '/unbanchar', 00H	; `string'
CONST	ENDS
;	COMDAT ??_C@_0O@HMBHKGBH@?1unbanallchat?$AA@
CONST	SEGMENT
??_C@_0O@HMBHKGBH@?1unbanallchat?$AA@ DB '/unbanallchat', 00H ; `string'
CONST	ENDS
;	COMDAT ??_C@_0L@PFPMCDE@?1unbanpost?$AA@
CONST	SEGMENT
??_C@_0L@PFPMCDE@?1unbanpost?$AA@ DB '/unbanpost', 00H	; `string'
CONST	ENDS
;	COMDAT ??_C@_0L@KKGKGAMB@?1unbanchat?$AA@
CONST	SEGMENT
??_C@_0L@KKGKGAMB@?1unbanchat?$AA@ DB '/unbanchat', 00H	; `string'
CONST	ENDS
;	COMDAT ??_C@_0M@EBJEOBJJ@?1banallchat?$AA@
CONST	SEGMENT
??_C@_0M@EBJEOBJJ@?1banallchat?$AA@ DB '/banallchat', 00H ; `string'
CONST	ENDS
;	COMDAT ??_C@_08LNFDEAIM@?1banchar?$AA@
CONST	SEGMENT
??_C@_08LNFDEAIM@?1banchar?$AA@ DB '/banchar', 00H	; `string'
CONST	ENDS
;	COMDAT ??_C@_08EODMEFPP@?1banpost?$AA@
CONST	SEGMENT
??_C@_08EODMEFPP@?1banpost?$AA@ DB '/banpost', 00H	; `string'
CONST	ENDS
;	COMDAT ??_C@_08OLAJOHAK@?1banchat?$AA@
CONST	SEGMENT
??_C@_08OLAJOHAK@?1banchat?$AA@ DB '/banchat', 00H	; `string'
CONST	ENDS
;	COMDAT ??_C@_0N@GKFFDGBI@?1partyleader?$AA@
CONST	SEGMENT
??_C@_0N@GKFFDGBI@?1partyleader?$AA@ DB '/partyleader', 00H ; `string'
CONST	ENDS
;	COMDAT ??_C@_06EIGIJLP@?1gmove?$AA@
CONST	SEGMENT
??_C@_06EIGIJLP@?1gmove?$AA@ DB '/gmove', 00H		; `string'
CONST	ENDS
;	COMDAT ??_C@_09LAHGFBL@?1hide_off?$AA@
CONST	SEGMENT
??_C@_09LAHGFBL@?1hide_off?$AA@ DB '/hide_off', 00H	; `string'
CONST	ENDS
;	COMDAT ??_C@_08LALCHEKK@?1hide_on?$AA@
CONST	SEGMENT
??_C@_08LALCHEKK@?1hide_on?$AA@ DB '/hide_on', 00H	; `string'
CONST	ENDS
;	COMDAT ??_C@_09EAFKELFJ@?1?P?$JG?Q?$II?P?$JB?P?$KH?$AA@
CONST	SEGMENT
??_C@_09EAFKELFJ@?1?P?$JG?Q?$II?P?$JB?P?$KH?$AA@ DB '/', 0d0H, 096H, 0d1H
	DB	088H, 0d0H, 091H, 0d0H, 0a7H, 00H		; `string'
CONST	ENDS
;	COMDAT ??_C@_0O@GJAGAOFL@?1cschangeside?$AA@
CONST	SEGMENT
??_C@_0O@GJAGAOFL@?1cschangeside?$AA@ DB '/cschangeside', 00H ; `string'
CONST	ENDS
;	COMDAT ??_C@_0M@IJGCKGEE@?1cscurstate?$AA@
CONST	SEGMENT
??_C@_0M@IJGCKGEE@?1cscurstate?$AA@ DB '/cscurstate', 00H ; `string'
CONST	ENDS
;	COMDAT ??_C@_0M@PKNCEDPD@?1cscurowner?$AA@
CONST	SEGMENT
??_C@_0M@PKNCEDPD@?1cscurowner?$AA@ DB '/cscurowner', 00H ; `string'
CONST	ENDS
;	COMDAT ??_C@_09CDNJLJCO@?1cssetend?$AA@
CONST	SEGMENT
??_C@_09CDNJLJCO@?1cssetend?$AA@ DB '/cssetend', 00H	; `string'
CONST	ENDS
;	COMDAT ??_C@_0M@GNJNLPIG@?1cssetstart?$AA@
CONST	SEGMENT
??_C@_0M@GNJNLPIG@?1cssetstart?$AA@ DB '/cssetstart', 00H ; `string'
CONST	ENDS
;	COMDAT ??_C@_0N@KFOJMJDB@?1cssetnotify?$AA@
CONST	SEGMENT
??_C@_0N@KFOJMJDB@?1cssetnotify?$AA@ DB '/cssetnotify', 00H ; `string'
CONST	ENDS
;	COMDAT ??_C@_0O@LJFGCBBI@?1cssetregmark?$AA@
CONST	SEGMENT
??_C@_0O@LJFGCBBI@?1cssetregmark?$AA@ DB '/cssetregmark', 00H ; `string'
CONST	ENDS
;	COMDAT ??_C@_0P@MGCHOPPN@?1cssetregsiege?$AA@
CONST	SEGMENT
??_C@_0P@MGCHOPPN@?1cssetregsiege?$AA@ DB '/cssetregsiege', 00H ; `string'
CONST	ENDS
;	COMDAT ??_C@_0P@CFKAJOGB@?1cschangeowner?$AA@
CONST	SEGMENT
??_C@_0P@CFKAJOGB@?1cschangeowner?$AA@ DB '/cschangeowner', 00H ; `string'
CONST	ENDS
;	COMDAT ??_C@_0BL@KOKNBECL@?1?P?$JE?P?$LP?B?$LF?P?$KA?P?$JI?Q?$JB?Q?$JE?b?$IE?$JG?P?$IF?P?$JD?B?$LA?P?$II?$AA@
CONST	SEGMENT
??_C@_0BL@KOKNBECL@?1?P?$JE?P?$LP?B?$LF?P?$KA?P?$JI?Q?$JB?Q?$JE?b?$IE?$JG?P?$IF?P?$JD?B?$LA?P?$II?$AA@ DB '/'
	DB	0d0H, 094H, 0d0H, 0bfH, 0c2H, 0b5H, 0d0H, 0a0H, 0d0H, 098H, 0d1H
	DB	091H, 0d1H, 094H, 0e2H, 084H, 096H, 0d0H, 085H, 0d0H, 093H, 0c2H
	DB	0b0H, 0d0H, 088H, 00H			; `string'
CONST	ENDS
;	COMDAT ??_C@_0BP@MHDOCMHI@?1?P?$JE?P?$LP?B?$LF?P?$KA?P?$JD?P?$JK?R?$JB?P?$LH?P?$JI?Q?$JB?Q?$JE?b?$IE?$JG?B?$LH?B?$KO?$AA@
CONST	SEGMENT
??_C@_0BP@MHDOCMHI@?1?P?$JE?P?$LP?B?$LF?P?$KA?P?$JD?P?$JK?R?$JB?P?$LH?P?$JI?Q?$JB?Q?$JE?b?$IE?$JG?B?$LH?B?$KO?$AA@ DB '/'
	DB	0d0H, 094H, 0d0H, 0bfH, 0c2H, 0b5H, 0d0H, 0a0H, 0d0H, 093H, 0d0H
	DB	09aH, 0d2H, 091H, 0d0H, 0b7H, 0d0H, 098H, 0d1H, 091H, 0d1H, 094H
	DB	0e2H, 084H, 096H, 0c2H, 0b7H, 0c2H, 0aeH, 00H ; `string'
CONST	ENDS
;	COMDAT ??_C@_0BH@NLDKOEC@?1?P?$JE?P?$LP?B?$LF?P?$KA?P?$JI?Q?$JB?Q?$JE?b?$IE?$JG?B?$LH?B?$KO?$AA@
CONST	SEGMENT
??_C@_0BH@NLDKOEC@?1?P?$JE?P?$LP?B?$LF?P?$KA?P?$JI?Q?$JB?Q?$JE?b?$IE?$JG?B?$LH?B?$KO?$AA@ DB '/'
	DB	0d0H, 094H, 0d0H, 0bfH, 0c2H, 0b5H, 0d0H, 0a0H, 0d0H, 098H, 0d1H
	DB	091H, 0d1H, 094H, 0e2H, 084H, 096H, 0c2H, 0b7H, 0c2H, 0aeH, 00H ; `string'
CONST	ENDS
;	COMDAT ??_C@_0O@KDDMLHBD@?1?P?$JE?P?$LP?B?$LF?P?$KA?P?$JH?P?$JH?$AA@
CONST	SEGMENT
??_C@_0O@KDDMLHBD@?1?P?$JE?P?$LP?B?$LF?P?$KA?P?$JH?P?$JH?$AA@ DB '/', 0d0H
	DB	094H, 0d0H, 0bfH, 0c2H, 0b5H, 0d0H, 0a0H, 0d0H, 097H, 0d0H, 097H
	DB	00H						; `string'
CONST	ENDS
;	COMDAT ??_C@_0BC@GBNLHOPJ@?1?P?$JE?P?$LP?B?$LF?P?$KA?B?$LL?Q?$ID?P?$JF?P?$JC?$AA@
CONST	SEGMENT
??_C@_0BC@GBNLHOPJ@?1?P?$JE?P?$LP?B?$LF?P?$KA?B?$LL?Q?$ID?P?$JF?P?$JC?$AA@ DB '/'
	DB	0d0H, 094H, 0d0H, 0bfH, 0c2H, 0b5H, 0d0H, 0a0H, 0c2H, 0bbH, 0d1H
	DB	083H, 0d0H, 095H, 0d0H, 092H, 00H		; `string'
CONST	ENDS
;	COMDAT ??_C@_0M@EEPBOOJK@?1summonchar?$AA@
CONST	SEGMENT
??_C@_0M@EEPBOOJK@?1summonchar?$AA@ DB '/summonchar', 00H ; `string'
CONST	ENDS
;	COMDAT ??_C@_0M@GPOPOLAO@?1clearinven?$AA@
CONST	SEGMENT
??_C@_0M@GPOPOLAO@?1clearinven?$AA@ DB '/clearinven', 00H ; `string'
CONST	ENDS
;	COMDAT ??_C@_0L@BMILIDFD@?1clearitem?$AA@
CONST	SEGMENT
??_C@_0L@BMILIDFD@?1clearitem?$AA@ DB '/clearitem', 00H	; `string'
CONST	ENDS
;	COMDAT ??_C@_0O@OHPCDLEP@?1clearmonster?$AA@
CONST	SEGMENT
??_C@_0O@OHPCDLEP@?1clearmonster?$AA@ DB '/clearmonster', 00H ; `string'
CONST	ENDS
;	COMDAT ??_C@_0P@FBJALDCH@?1summonmonster?$AA@
CONST	SEGMENT
??_C@_0P@FBJALDCH@?1summonmonster?$AA@ DB '/summonmonster', 00H ; `string'
CONST	ENDS
;	COMDAT ??_C@_06JICFFAOM@?1party?$AA@
CONST	SEGMENT
??_C@_06JICFFAOM@?1party?$AA@ DB '/party', 00H		; `string'
CONST	ENDS
;	COMDAT ??_C@_08NMMECFKO@?1ability?$AA@
CONST	SEGMENT
??_C@_08NMMECFKO@?1ability?$AA@ DB '/ability', 00H	; `string'
CONST	ENDS
;	COMDAT ??_C@_0BG@PNEPKIIO@?1?P?$JE?Q?$JG?Q?$JB?P?$IH?P?$JF?P?$JN?Q?$JI?P?$KC?P?$JI?P?$IH?$AA@
CONST	SEGMENT
??_C@_0BG@PNEPKIIO@?1?P?$JE?Q?$JG?Q?$JB?P?$IH?P?$JF?P?$JN?Q?$JI?P?$KC?P?$JI?P?$IH?$AA@ DB '/'
	DB	0d0H, 094H, 0d1H, 096H, 0d1H, 091H, 0d0H, 087H, 0d0H, 095H, 0d0H
	DB	09dH, 0d1H, 098H, 0d0H, 0a2H, 0d0H, 098H, 0d0H, 087H, 00H ; `string'
CONST	ENDS
;	COMDAT ??_C@_0BC@HGBNMGDM@?1?P?$JA?P?$JO?Q?$JE?R?$JA?P?$JB?B?$KG?B?$LA?P?$JF?$AA@
CONST	SEGMENT
??_C@_0BC@HGBNMGDM@?1?P?$JA?P?$JO?Q?$JE?R?$JA?P?$JB?B?$KG?B?$LA?P?$JF?$AA@ DB '/'
	DB	0d0H, 090H, 0d0H, 09eH, 0d1H, 094H, 0d2H, 090H, 0d0H, 091H, 0c2H
	DB	0a6H, 0c2H, 0b0H, 0d0H, 095H, 00H		; `string'
CONST	ENDS
;	COMDAT ??_C@_0BG@NBAPMMFL@?1?Q?$JF?P?$JG?P?$JA?P?$JM?P?$JF?P?$KL?P?$JB?B?$KG?B?$LA?P?$JF?$AA@
CONST	SEGMENT
??_C@_0BG@NBAPMMFL@?1?Q?$JF?P?$JG?P?$JA?P?$JM?P?$JF?P?$KL?P?$JB?B?$KG?B?$LA?P?$JF?$AA@ DB '/'
	DB	0d1H, 095H, 0d0H, 096H, 0d0H, 090H, 0d0H, 09cH, 0d0H, 095H, 0d0H
	DB	0abH, 0d0H, 091H, 0c2H, 0a6H, 0c2H, 0b0H, 0d0H, 095H, 00H ; `string'
CONST	ENDS
;	COMDAT ??_C@_0CM@LECGFHHO@?1?P?$JC?Q?$JB?P?$JD?Q?$JG?P?$JC?P?$IF?P?$JC?Q?$JE?P?$JD?b?$IA?$KG?P?$JD?P?$IM?P?$JD?P?$ID?P?$JC@
CONST	SEGMENT
??_C@_0CM@LECGFHHO@?1?P?$JC?Q?$JB?P?$JD?Q?$JG?P?$JC?P?$IF?P?$JC?Q?$JE?P?$JD?b?$IA?$KG?P?$JD?P?$IM?P?$JD?P?$ID?P?$JC@ DB '/'
	DB	0d0H, 092H, 0d1H, 091H, 0d0H, 093H, 0d1H, 096H, 0d0H, 092H, 0d0H
	DB	085H, 0d0H, 092H, 0d1H, 094H, 0d0H, 093H, 0e2H, 080H, 0a6H, 0d0H
	DB	093H, 0d0H, 08cH, 0d0H, 093H, 0d0H, 083H, 0d0H, 092H, 0c2H, 0a6H
	DB	0d0H, 092H, 0c2H, 0b0H, 0d0H, 093H, 0e2H, 080H, 0a6H, 00H ; `string'
CONST	ENDS
;	COMDAT ??_C@_0CN@LLDFLEHF@?1?P?$JC?Q?$JB?P?$JD?Q?$JG?P?$JC?P?$IF?P?$JC?Q?$JE?P?$JD?b?$IA?$KG?P?$JD?P?$IM?P?$JC?Q?$JI?P?$JD@
CONST	SEGMENT
??_C@_0CN@LLDFLEHF@?1?P?$JC?Q?$JB?P?$JD?Q?$JG?P?$JC?P?$IF?P?$JC?Q?$JE?P?$JD?b?$IA?$KG?P?$JD?P?$IM?P?$JC?Q?$JI?P?$JD@ DB '/'
	DB	0d0H, 092H, 0d1H, 091H, 0d0H, 093H, 0d1H, 096H, 0d0H, 092H, 0d0H
	DB	085H, 0d0H, 092H, 0d1H, 094H, 0d0H, 093H, 0e2H, 080H, 0a6H, 0d0H
	DB	093H, 0d0H, 08cH, 0d0H, 092H, 0d1H, 098H, 0d0H, 093H, 0e2H, 080H
	DB	099H, 0d0H, 093H, 0e2H, 082H, 0acH, 0d0H, 092H, 0d0H, 087H, 00H ; `string'
CONST	ENDS
;	COMDAT ??_C@_09FGPCPKLP@?1?P?$JG?P?$JE?P?$JG?Q?$JI?$AA@
CONST	SEGMENT
??_C@_09FGPCPKLP@?1?P?$JG?P?$JE?P?$JG?Q?$JI?$AA@ DB '/', 0d0H, 096H, 0d0H
	DB	094H, 0d0H, 096H, 0d1H, 098H, 00H		; `string'
CONST	ENDS
;	COMDAT ??_C@_09DHNMEGPK@?1?R?$JB?P?$JJ?B?$LH?P?$JC?$AA@
CONST	SEGMENT
??_C@_09DHNMEGPK@?1?R?$JB?P?$JJ?B?$LH?P?$JC?$AA@ DB '/', 0d2H, 091H, 0d0H
	DB	099H, 0c2H, 0b7H, 0d0H, 092H, 00H		; `string'
; Function compile flags: /Odtp /ZI /ZX
CONST	ENDS
;	COMDAT ?Init@CGMMng@@QAEXXZ
_TEXT	SEGMENT
_this$ = -4						; size = 4
?Init@CGMMng@@QAEXXZ PROC				; CGMMng::Init, COMDAT
; _this$ = ecx

; 79   : {

  00000	55		 push	 ebp
  00001	8b ec		 mov	 ebp, esp
  00003	83 ec 44	 sub	 esp, 68			; 00000044H
  00006	53		 push	 ebx
  00007	56		 push	 esi
  00008	57		 push	 edi
  00009	89 4d fc	 mov	 DWORD PTR _this$[ebp], ecx

; 80   : 	this->cCommand.Init();

  0000c	8b 4d fc	 mov	 ecx, DWORD PTR _this$[ebp]
  0000f	83 c1 04	 add	 ecx, 4
  00012	e8 00 00 00 00	 call	 ?Init@CGMCommand@@QAEXXZ ; CGMCommand::Init

; 81   : 
; 82   : 	this->cCommand.Add(lMsg.Get(MSGGET(11, 184)), 100, 34);

  00017	6a 22		 push	 34			; 00000022H
  00019	6a 64		 push	 100			; 00000064H
  0001b	68 b8 0b 00 00	 push	 3000			; 00000bb8H
  00020	b9 00 00 00 00	 mov	 ecx, OFFSET ?lMsg@@3VCMsg@@A ; lMsg
  00025	e8 00 00 00 00	 call	 ?Get@CMsg@@QAEPADH@Z	; CMsg::Get
  0002a	50		 push	 eax
  0002b	8b 4d fc	 mov	 ecx, DWORD PTR _this$[ebp]
  0002e	83 c1 04	 add	 ecx, 4
  00031	e8 00 00 00 00	 call	 ?Add@CGMCommand@@QAEXPADHH@Z ; CGMCommand::Add

; 83   : 	this->cCommand.Add(lMsg.Get(MSGGET(11, 185)), 101, 35);

  00036	6a 23		 push	 35			; 00000023H
  00038	6a 65		 push	 101			; 00000065H
  0003a	68 b9 0b 00 00	 push	 3001			; 00000bb9H
  0003f	b9 00 00 00 00	 mov	 ecx, OFFSET ?lMsg@@3VCMsg@@A ; lMsg
  00044	e8 00 00 00 00	 call	 ?Get@CMsg@@QAEPADH@Z	; CMsg::Get
  00049	50		 push	 eax
  0004a	8b 4d fc	 mov	 ecx, DWORD PTR _this$[ebp]
  0004d	83 c1 04	 add	 ecx, 4
  00050	e8 00 00 00 00	 call	 ?Add@CGMCommand@@QAEXPADHH@Z ; CGMCommand::Add

; 84   : 
; 85   : 	//this->cCommand.Add("/move", 101); //season3 add-on lol
; 86   : 	//this->cCommand.Add(lMsg.Get(MSGGET(11, 186)), 102);
; 87   : 	//this->cCommand.Add(lMsg.Get(MSGGET(11, 187)), 103);
; 88   : 	//this->cCommand.Add(lMsg.Get(MSGGET(11, 188)), 105);
; 89   : 	
; 90   : 	this->cCommand.Add(lMsg.Get(MSGGET(11, 189)), 104, 34);

  00055	6a 22		 push	 34			; 00000022H
  00057	6a 68		 push	 104			; 00000068H
  00059	68 bd 0b 00 00	 push	 3005			; 00000bbdH
  0005e	b9 00 00 00 00	 mov	 ecx, OFFSET ?lMsg@@3VCMsg@@A ; lMsg
  00063	e8 00 00 00 00	 call	 ?Get@CMsg@@QAEPADH@Z	; CMsg::Get
  00068	50		 push	 eax
  00069	8b 4d fc	 mov	 ecx, DWORD PTR _this$[ebp]
  0006c	83 c1 04	 add	 ecx, 4
  0006f	e8 00 00 00 00	 call	 ?Add@CGMCommand@@QAEXPADHH@Z ; CGMCommand::Add

; 91   : 
; 92   : 	this->cCommand.Add(lMsg.Get(MSGGET(11, 190)), 106, 34);

  00074	6a 22		 push	 34			; 00000022H
  00076	6a 6a		 push	 106			; 0000006aH
  00078	68 be 0b 00 00	 push	 3006			; 00000bbeH
  0007d	b9 00 00 00 00	 mov	 ecx, OFFSET ?lMsg@@3VCMsg@@A ; lMsg
  00082	e8 00 00 00 00	 call	 ?Get@CMsg@@QAEPADH@Z	; CMsg::Get
  00087	50		 push	 eax
  00088	8b 4d fc	 mov	 ecx, DWORD PTR _this$[ebp]
  0008b	83 c1 04	 add	 ecx, 4
  0008e	e8 00 00 00 00	 call	 ?Add@CGMCommand@@QAEXPADHH@Z ; CGMCommand::Add

; 93   : 
; 94   : 	this->cCommand.Add(lMsg.Get(MSGGET(11, 191)), 108, 34);

  00093	6a 22		 push	 34			; 00000022H
  00095	6a 6c		 push	 108			; 0000006cH
  00097	68 bf 0b 00 00	 push	 3007			; 00000bbfH
  0009c	b9 00 00 00 00	 mov	 ecx, OFFSET ?lMsg@@3VCMsg@@A ; lMsg
  000a1	e8 00 00 00 00	 call	 ?Get@CMsg@@QAEPADH@Z	; CMsg::Get
  000a6	50		 push	 eax
  000a7	8b 4d fc	 mov	 ecx, DWORD PTR _this$[ebp]
  000aa	83 c1 04	 add	 ecx, 4
  000ad	e8 00 00 00 00	 call	 ?Add@CGMCommand@@QAEXPADHH@Z ; CGMCommand::Add

; 95   : 
; 96   : 	this->cCommand.Add(lMsg.Get(MSGGET(11, 192)), 112, 34);

  000b2	6a 22		 push	 34			; 00000022H
  000b4	6a 70		 push	 112			; 00000070H
  000b6	68 c0 0b 00 00	 push	 3008			; 00000bc0H
  000bb	b9 00 00 00 00	 mov	 ecx, OFFSET ?lMsg@@3VCMsg@@A ; lMsg
  000c0	e8 00 00 00 00	 call	 ?Get@CMsg@@QAEPADH@Z	; CMsg::Get
  000c5	50		 push	 eax
  000c6	8b 4d fc	 mov	 ecx, DWORD PTR _this$[ebp]
  000c9	83 c1 04	 add	 ecx, 4
  000cc	e8 00 00 00 00	 call	 ?Add@CGMCommand@@QAEXPADHH@Z ; CGMCommand::Add

; 97   : 	this->cCommand.Add(lMsg.Get(MSGGET(11, 193)), 111, 2);

  000d1	6a 02		 push	 2
  000d3	6a 6f		 push	 111			; 0000006fH
  000d5	68 c1 0b 00 00	 push	 3009			; 00000bc1H
  000da	b9 00 00 00 00	 mov	 ecx, OFFSET ?lMsg@@3VCMsg@@A ; lMsg
  000df	e8 00 00 00 00	 call	 ?Get@CMsg@@QAEPADH@Z	; CMsg::Get
  000e4	50		 push	 eax
  000e5	8b 4d fc	 mov	 ecx, DWORD PTR _this$[ebp]
  000e8	83 c1 04	 add	 ecx, 4
  000eb	e8 00 00 00 00	 call	 ?Add@CGMCommand@@QAEXPADHH@Z ; CGMCommand::Add

; 98   : 
; 99   : 	this->cCommand.Add(lMsg.Get(MSGGET(11, 194)), 109, 2);

  000f0	6a 02		 push	 2
  000f2	6a 6d		 push	 109			; 0000006dH
  000f4	68 c2 0b 00 00	 push	 3010			; 00000bc2H
  000f9	b9 00 00 00 00	 mov	 ecx, OFFSET ?lMsg@@3VCMsg@@A ; lMsg
  000fe	e8 00 00 00 00	 call	 ?Get@CMsg@@QAEPADH@Z	; CMsg::Get
  00103	50		 push	 eax
  00104	8b 4d fc	 mov	 ecx, DWORD PTR _this$[ebp]
  00107	83 c1 04	 add	 ecx, 4
  0010a	e8 00 00 00 00	 call	 ?Add@CGMCommand@@QAEXPADHH@Z ; CGMCommand::Add

; 100  : 	this->cCommand.Add(lMsg.Get(MSGGET(11, 195)), 110, 2);

  0010f	6a 02		 push	 2
  00111	6a 6e		 push	 110			; 0000006eH
  00113	68 c3 0b 00 00	 push	 3011			; 00000bc3H
  00118	b9 00 00 00 00	 mov	 ecx, OFFSET ?lMsg@@3VCMsg@@A ; lMsg
  0011d	e8 00 00 00 00	 call	 ?Get@CMsg@@QAEPADH@Z	; CMsg::Get
  00122	50		 push	 eax
  00123	8b 4d fc	 mov	 ecx, DWORD PTR _this$[ebp]
  00126	83 c1 04	 add	 ecx, 4
  00129	e8 00 00 00 00	 call	 ?Add@CGMCommand@@QAEXPADHH@Z ; CGMCommand::Add

; 101  : 
; 102  : 	this->cCommand.Add("/ґЙ·В", 501,34);//

  0012e	6a 22		 push	 34			; 00000022H
  00130	68 f5 01 00 00	 push	 501			; 000001f5H
  00135	68 00 00 00 00	 push	 OFFSET ??_C@_09DHNMEGPK@?1?R?$JB?P?$JJ?B?$LH?P?$JC?$AA@
  0013a	8b 4d fc	 mov	 ecx, DWORD PTR _this$[ebp]
  0013d	83 c1 04	 add	 ecx, 4
  00140	e8 00 00 00 00	 call	 ?Add@CGMCommand@@QAEXPADHH@Z ; CGMCommand::Add

; 103  : 	this->cCommand.Add("/ЖДЖј", 502,34);//

  00145	6a 22		 push	 34			; 00000022H
  00147	68 f6 01 00 00	 push	 502			; 000001f6H
  0014c	68 00 00 00 00	 push	 OFFSET ??_C@_09FGPCPKLP@?1?P?$JG?P?$JE?P?$JG?Q?$JI?$AA@
  00151	8b 4d fc	 mov	 ecx, DWORD PTR _this$[ebp]
  00154	83 c1 04	 add	 ecx, 4
  00157	e8 00 00 00 00	 call	 ?Add@CGMCommand@@QAEXPADHH@Z ; CGMCommand::Add

; 104  : 	this->cCommand.Add("/ВёГіВЅВєГ…ГЌВјГ’Г€ВЇ", 503,34);//

  0015c	6a 22		 push	 34			; 00000022H
  0015e	68 f7 01 00 00	 push	 503			; 000001f7H
  00163	68 00 00 00 00	 push	 OFFSET ??_C@_0CN@LLDFLEHF@?1?P?$JC?Q?$JB?P?$JD?Q?$JG?P?$JC?P?$IF?P?$JC?Q?$JE?P?$JD?b?$IA?$KG?P?$JD?P?$IM?P?$JC?Q?$JI?P?$JD@
  00168	8b 4d fc	 mov	 ecx, DWORD PTR _this$[ebp]
  0016b	83 c1 04	 add	 ecx, 4
  0016e	e8 00 00 00 00	 call	 ?Add@CGMCommand@@QAEXPADHH@Z ; CGMCommand::Add

; 105  : 	this->cCommand.Add("/ВёГіВЅВєГ…ГЌГЃВ¦В°Г…", 504,34);//

  00173	6a 22		 push	 34			; 00000022H
  00175	68 f8 01 00 00	 push	 504			; 000001f8H
  0017a	68 00 00 00 00	 push	 OFFSET ??_C@_0CM@LECGFHHO@?1?P?$JC?Q?$JB?P?$JD?Q?$JG?P?$JC?P?$IF?P?$JC?Q?$JE?P?$JD?b?$IA?$KG?P?$JD?P?$IM?P?$JD?P?$ID?P?$JC@
  0017f	8b 4d fc	 mov	 ecx, DWORD PTR _this$[ebp]
  00182	83 c1 04	 add	 ecx, 4
  00185	e8 00 00 00 00	 call	 ?Add@CGMCommand@@QAEXPADHH@Z ; CGMCommand::Add

; 106  : 	this->cCommand.Add("/ѕЖАМЕЫБ¦°Е", 505,34);//

  0018a	6a 22		 push	 34			; 00000022H
  0018c	68 f9 01 00 00	 push	 505			; 000001f9H
  00191	68 00 00 00 00	 push	 OFFSET ??_C@_0BG@NBAPMMFL@?1?Q?$JF?P?$JG?P?$JA?P?$JM?P?$JF?P?$KL?P?$JB?B?$KG?B?$LA?P?$JF?$AA@
  00196	8b 4d fc	 mov	 ecx, DWORD PTR _this$[ebp]
  00199	83 c1 04	 add	 ecx, 4
  0019c	e8 00 00 00 00	 call	 ?Add@CGMCommand@@QAEXPADHH@Z ; CGMCommand::Add

; 107  : 	this->cCommand.Add("/АОєҐБ¦°Е", 506,34);//

  001a1	6a 22		 push	 34			; 00000022H
  001a3	68 fa 01 00 00	 push	 506			; 000001faH
  001a8	68 00 00 00 00	 push	 OFFSET ??_C@_0BC@HGBNMGDM@?1?P?$JA?P?$JO?Q?$JE?R?$JA?P?$JB?B?$KG?B?$LA?P?$JF?$AA@
  001ad	8b 4d fc	 mov	 ecx, DWORD PTR _this$[ebp]
  001b0	83 c1 04	 add	 ecx, 4
  001b3	e8 00 00 00 00	 call	 ?Add@CGMCommand@@QAEXPADHH@Z ; CGMCommand::Add

; 108  : 	this->cCommand.Add("/ДіёЇЕНјТИЇ", 507,34);//

  001b8	6a 22		 push	 34			; 00000022H
  001ba	68 fb 01 00 00	 push	 507			; 000001fbH
  001bf	68 00 00 00 00	 push	 OFFSET ??_C@_0BG@PNEPKIIO@?1?P?$JE?Q?$JG?Q?$JB?P?$IH?P?$JF?P?$JN?Q?$JI?P?$KC?P?$JI?P?$IH?$AA@
  001c4	8b 4d fc	 mov	 ecx, DWORD PTR _this$[ebp]
  001c7	83 c1 04	 add	 ecx, 4
  001ca	e8 00 00 00 00	 call	 ?Add@CGMCommand@@QAEXPADHH@Z ; CGMCommand::Add

; 109  : 
; 110  : 	this->cCommand.Add("/ability", 501,34);//

  001cf	6a 22		 push	 34			; 00000022H
  001d1	68 f5 01 00 00	 push	 501			; 000001f5H
  001d6	68 00 00 00 00	 push	 OFFSET ??_C@_08NMMECFKO@?1ability?$AA@
  001db	8b 4d fc	 mov	 ecx, DWORD PTR _this$[ebp]
  001de	83 c1 04	 add	 ecx, 4
  001e1	e8 00 00 00 00	 call	 ?Add@CGMCommand@@QAEXPADHH@Z ; CGMCommand::Add

; 111  : 	this->cCommand.Add("/party", 502,34);//

  001e6	6a 22		 push	 34			; 00000022H
  001e8	68 f6 01 00 00	 push	 502			; 000001f6H
  001ed	68 00 00 00 00	 push	 OFFSET ??_C@_06JICFFAOM@?1party?$AA@
  001f2	8b 4d fc	 mov	 ecx, DWORD PTR _this$[ebp]
  001f5	83 c1 04	 add	 ecx, 4
  001f8	e8 00 00 00 00	 call	 ?Add@CGMCommand@@QAEXPADHH@Z ; CGMCommand::Add

; 112  : 	this->cCommand.Add("/summonmonster", 503,34);//

  001fd	6a 22		 push	 34			; 00000022H
  001ff	68 f7 01 00 00	 push	 503			; 000001f7H
  00204	68 00 00 00 00	 push	 OFFSET ??_C@_0P@FBJALDCH@?1summonmonster?$AA@
  00209	8b 4d fc	 mov	 ecx, DWORD PTR _this$[ebp]
  0020c	83 c1 04	 add	 ecx, 4
  0020f	e8 00 00 00 00	 call	 ?Add@CGMCommand@@QAEXPADHH@Z ; CGMCommand::Add

; 113  : 	this->cCommand.Add("/clearmonster", 504,34);//

  00214	6a 22		 push	 34			; 00000022H
  00216	68 f8 01 00 00	 push	 504			; 000001f8H
  0021b	68 00 00 00 00	 push	 OFFSET ??_C@_0O@OHPCDLEP@?1clearmonster?$AA@
  00220	8b 4d fc	 mov	 ecx, DWORD PTR _this$[ebp]
  00223	83 c1 04	 add	 ecx, 4
  00226	e8 00 00 00 00	 call	 ?Add@CGMCommand@@QAEXPADHH@Z ; CGMCommand::Add

; 114  : 	this->cCommand.Add("/clearitem", 505,34);//

  0022b	6a 22		 push	 34			; 00000022H
  0022d	68 f9 01 00 00	 push	 505			; 000001f9H
  00232	68 00 00 00 00	 push	 OFFSET ??_C@_0L@BMILIDFD@?1clearitem?$AA@
  00237	8b 4d fc	 mov	 ecx, DWORD PTR _this$[ebp]
  0023a	83 c1 04	 add	 ecx, 4
  0023d	e8 00 00 00 00	 call	 ?Add@CGMCommand@@QAEXPADHH@Z ; CGMCommand::Add

; 115  : 	this->cCommand.Add("/clearinven", 506,34);//

  00242	6a 22		 push	 34			; 00000022H
  00244	68 fa 01 00 00	 push	 506			; 000001faH
  00249	68 00 00 00 00	 push	 OFFSET ??_C@_0M@GPOPOLAO@?1clearinven?$AA@
  0024e	8b 4d fc	 mov	 ecx, DWORD PTR _this$[ebp]
  00251	83 c1 04	 add	 ecx, 4
  00254	e8 00 00 00 00	 call	 ?Add@CGMCommand@@QAEXPADHH@Z ; CGMCommand::Add

; 116  : 	this->cCommand.Add("/summonchar", 507,34);//

  00259	6a 22		 push	 34			; 00000022H
  0025b	68 fb 01 00 00	 push	 507			; 000001fbH
  00260	68 00 00 00 00	 push	 OFFSET ??_C@_0M@EEPBOOJK@?1summonchar?$AA@
  00265	8b 4d fc	 mov	 ecx, DWORD PTR _this$[ebp]
  00268	83 c1 04	 add	 ecx, 4
  0026b	e8 00 00 00 00	 call	 ?Add@CGMCommand@@QAEXPADHH@Z ; CGMCommand::Add

; 117  : 
; 118  : 	this->cCommand.Add(lMsg.Get(MSGGET(11, 197)), 201, 33);

  00270	6a 21		 push	 33			; 00000021H
  00272	68 c9 00 00 00	 push	 201			; 000000c9H
  00277	68 c5 0b 00 00	 push	 3013			; 00000bc5H
  0027c	b9 00 00 00 00	 mov	 ecx, OFFSET ?lMsg@@3VCMsg@@A ; lMsg
  00281	e8 00 00 00 00	 call	 ?Get@CMsg@@QAEPADH@Z	; CMsg::Get
  00286	50		 push	 eax
  00287	8b 4d fc	 mov	 ecx, DWORD PTR _this$[ebp]
  0028a	83 c1 04	 add	 ecx, 4
  0028d	e8 00 00 00 00	 call	 ?Add@CGMCommand@@QAEXPADHH@Z ; CGMCommand::Add

; 119  : 	this->cCommand.Add(lMsg.Get(MSGGET(11, 198)), 200, 33);

  00292	6a 21		 push	 33			; 00000021H
  00294	68 c8 00 00 00	 push	 200			; 000000c8H
  00299	68 c6 0b 00 00	 push	 3014			; 00000bc6H
  0029e	b9 00 00 00 00	 mov	 ecx, OFFSET ?lMsg@@3VCMsg@@A ; lMsg
  002a3	e8 00 00 00 00	 call	 ?Get@CMsg@@QAEPADH@Z	; CMsg::Get
  002a8	50		 push	 eax
  002a9	8b 4d fc	 mov	 ecx, DWORD PTR _this$[ebp]
  002ac	83 c1 04	 add	 ecx, 4
  002af	e8 00 00 00 00	 call	 ?Add@CGMCommand@@QAEXPADHH@Z ; CGMCommand::Add

; 120  : 
; 121  : 	this->cCommand.Add(lMsg.Get(MSGGET(11, 199)), 202, 3);

  002b4	6a 03		 push	 3
  002b6	68 ca 00 00 00	 push	 202			; 000000caH
  002bb	68 c7 0b 00 00	 push	 3015			; 00000bc7H
  002c0	b9 00 00 00 00	 mov	 ecx, OFFSET ?lMsg@@3VCMsg@@A ; lMsg
  002c5	e8 00 00 00 00	 call	 ?Get@CMsg@@QAEPADH@Z	; CMsg::Get
  002ca	50		 push	 eax
  002cb	8b 4d fc	 mov	 ecx, DWORD PTR _this$[ebp]
  002ce	83 c1 04	 add	 ecx, 4
  002d1	e8 00 00 00 00	 call	 ?Add@CGMCommand@@QAEXPADHH@Z ; CGMCommand::Add

; 122  : 	this->cCommand.Add(lMsg.Get(MSGGET(11, 200)), 203, 33);

  002d6	6a 21		 push	 33			; 00000021H
  002d8	68 cb 00 00 00	 push	 203			; 000000cbH
  002dd	68 c8 0b 00 00	 push	 3016			; 00000bc8H
  002e2	b9 00 00 00 00	 mov	 ecx, OFFSET ?lMsg@@3VCMsg@@A ; lMsg
  002e7	e8 00 00 00 00	 call	 ?Get@CMsg@@QAEPADH@Z	; CMsg::Get
  002ec	50		 push	 eax
  002ed	8b 4d fc	 mov	 ecx, DWORD PTR _this$[ebp]
  002f0	83 c1 04	 add	 ecx, 4
  002f3	e8 00 00 00 00	 call	 ?Add@CGMCommand@@QAEXPADHH@Z ; CGMCommand::Add

; 123  : 
; 124  : 
; 125  : 	this->cCommand.Add(lMsg.Get(MSGGET(11, 204)), 100, 34);

  002f8	6a 22		 push	 34			; 00000022H
  002fa	6a 64		 push	 100			; 00000064H
  002fc	68 cc 0b 00 00	 push	 3020			; 00000bccH
  00301	b9 00 00 00 00	 mov	 ecx, OFFSET ?lMsg@@3VCMsg@@A ; lMsg
  00306	e8 00 00 00 00	 call	 ?Get@CMsg@@QAEPADH@Z	; CMsg::Get
  0030b	50		 push	 eax
  0030c	8b 4d fc	 mov	 ecx, DWORD PTR _this$[ebp]
  0030f	83 c1 04	 add	 ecx, 4
  00312	e8 00 00 00 00	 call	 ?Add@CGMCommand@@QAEXPADHH@Z ; CGMCommand::Add

; 126  : 	this->cCommand.Add(lMsg.Get(MSGGET(11, 205)), 101, 35);

  00317	6a 23		 push	 35			; 00000023H
  00319	6a 65		 push	 101			; 00000065H
  0031b	68 cd 0b 00 00	 push	 3021			; 00000bcdH
  00320	b9 00 00 00 00	 mov	 ecx, OFFSET ?lMsg@@3VCMsg@@A ; lMsg
  00325	e8 00 00 00 00	 call	 ?Get@CMsg@@QAEPADH@Z	; CMsg::Get
  0032a	50		 push	 eax
  0032b	8b 4d fc	 mov	 ecx, DWORD PTR _this$[ebp]
  0032e	83 c1 04	 add	 ecx, 4
  00331	e8 00 00 00 00	 call	 ?Add@CGMCommand@@QAEXPADHH@Z ; CGMCommand::Add

; 127  : 	
; 128  : 	//this->cCommand.Add(lMsg.Get(MSGGET(11, 206)), 102);
; 129  : 	//this->cCommand.Add(lMsg.Get(MSGGET(11, 207)), 103);
; 130  : 	//this->cCommand.Add(lMsg.Get(MSGGET(11, 208)), 105);
; 131  : 
; 132  : 	this->cCommand.Add(lMsg.Get(MSGGET(11, 209)), 104, 34);

  00336	6a 22		 push	 34			; 00000022H
  00338	6a 68		 push	 104			; 00000068H
  0033a	68 d1 0b 00 00	 push	 3025			; 00000bd1H
  0033f	b9 00 00 00 00	 mov	 ecx, OFFSET ?lMsg@@3VCMsg@@A ; lMsg
  00344	e8 00 00 00 00	 call	 ?Get@CMsg@@QAEPADH@Z	; CMsg::Get
  00349	50		 push	 eax
  0034a	8b 4d fc	 mov	 ecx, DWORD PTR _this$[ebp]
  0034d	83 c1 04	 add	 ecx, 4
  00350	e8 00 00 00 00	 call	 ?Add@CGMCommand@@QAEXPADHH@Z ; CGMCommand::Add

; 133  : 	this->cCommand.Add(lMsg.Get(MSGGET(11, 210)), 106, 34);

  00355	6a 22		 push	 34			; 00000022H
  00357	6a 6a		 push	 106			; 0000006aH
  00359	68 d2 0b 00 00	 push	 3026			; 00000bd2H
  0035e	b9 00 00 00 00	 mov	 ecx, OFFSET ?lMsg@@3VCMsg@@A ; lMsg
  00363	e8 00 00 00 00	 call	 ?Get@CMsg@@QAEPADH@Z	; CMsg::Get
  00368	50		 push	 eax
  00369	8b 4d fc	 mov	 ecx, DWORD PTR _this$[ebp]
  0036c	83 c1 04	 add	 ecx, 4
  0036f	e8 00 00 00 00	 call	 ?Add@CGMCommand@@QAEXPADHH@Z ; CGMCommand::Add

; 134  : 	this->cCommand.Add(lMsg.Get(MSGGET(11, 211)), 108, 34);

  00374	6a 22		 push	 34			; 00000022H
  00376	6a 6c		 push	 108			; 0000006cH
  00378	68 d3 0b 00 00	 push	 3027			; 00000bd3H
  0037d	b9 00 00 00 00	 mov	 ecx, OFFSET ?lMsg@@3VCMsg@@A ; lMsg
  00382	e8 00 00 00 00	 call	 ?Get@CMsg@@QAEPADH@Z	; CMsg::Get
  00387	50		 push	 eax
  00388	8b 4d fc	 mov	 ecx, DWORD PTR _this$[ebp]
  0038b	83 c1 04	 add	 ecx, 4
  0038e	e8 00 00 00 00	 call	 ?Add@CGMCommand@@QAEXPADHH@Z ; CGMCommand::Add

; 135  : 	this->cCommand.Add(lMsg.Get(MSGGET(11, 212)), 112, 34);

  00393	6a 22		 push	 34			; 00000022H
  00395	6a 70		 push	 112			; 00000070H
  00397	68 d4 0b 00 00	 push	 3028			; 00000bd4H
  0039c	b9 00 00 00 00	 mov	 ecx, OFFSET ?lMsg@@3VCMsg@@A ; lMsg
  003a1	e8 00 00 00 00	 call	 ?Get@CMsg@@QAEPADH@Z	; CMsg::Get
  003a6	50		 push	 eax
  003a7	8b 4d fc	 mov	 ecx, DWORD PTR _this$[ebp]
  003aa	83 c1 04	 add	 ecx, 4
  003ad	e8 00 00 00 00	 call	 ?Add@CGMCommand@@QAEXPADHH@Z ; CGMCommand::Add

; 136  : 
; 137  : 	this->cCommand.Add(lMsg.Get(MSGGET(11, 213)), 111, 2);

  003b2	6a 02		 push	 2
  003b4	6a 6f		 push	 111			; 0000006fH
  003b6	68 d5 0b 00 00	 push	 3029			; 00000bd5H
  003bb	b9 00 00 00 00	 mov	 ecx, OFFSET ?lMsg@@3VCMsg@@A ; lMsg
  003c0	e8 00 00 00 00	 call	 ?Get@CMsg@@QAEPADH@Z	; CMsg::Get
  003c5	50		 push	 eax
  003c6	8b 4d fc	 mov	 ecx, DWORD PTR _this$[ebp]
  003c9	83 c1 04	 add	 ecx, 4
  003cc	e8 00 00 00 00	 call	 ?Add@CGMCommand@@QAEXPADHH@Z ; CGMCommand::Add

; 138  : 	this->cCommand.Add(lMsg.Get(MSGGET(11, 214)), 109, 2);

  003d1	6a 02		 push	 2
  003d3	6a 6d		 push	 109			; 0000006dH
  003d5	68 d6 0b 00 00	 push	 3030			; 00000bd6H
  003da	b9 00 00 00 00	 mov	 ecx, OFFSET ?lMsg@@3VCMsg@@A ; lMsg
  003df	e8 00 00 00 00	 call	 ?Get@CMsg@@QAEPADH@Z	; CMsg::Get
  003e4	50		 push	 eax
  003e5	8b 4d fc	 mov	 ecx, DWORD PTR _this$[ebp]
  003e8	83 c1 04	 add	 ecx, 4
  003eb	e8 00 00 00 00	 call	 ?Add@CGMCommand@@QAEXPADHH@Z ; CGMCommand::Add

; 139  : 	this->cCommand.Add(lMsg.Get(MSGGET(11, 215)), 110, 2);

  003f0	6a 02		 push	 2
  003f2	6a 6e		 push	 110			; 0000006eH
  003f4	68 d7 0b 00 00	 push	 3031			; 00000bd7H
  003f9	b9 00 00 00 00	 mov	 ecx, OFFSET ?lMsg@@3VCMsg@@A ; lMsg
  003fe	e8 00 00 00 00	 call	 ?Get@CMsg@@QAEPADH@Z	; CMsg::Get
  00403	50		 push	 eax
  00404	8b 4d fc	 mov	 ecx, DWORD PTR _this$[ebp]
  00407	83 c1 04	 add	 ecx, 4
  0040a	e8 00 00 00 00	 call	 ?Add@CGMCommand@@QAEXPADHH@Z ; CGMCommand::Add

; 140  : 
; 141  : 	this->cCommand.Add(lMsg.Get(MSGGET(11, 217)), 201, 33);

  0040f	6a 21		 push	 33			; 00000021H
  00411	68 c9 00 00 00	 push	 201			; 000000c9H
  00416	68 d9 0b 00 00	 push	 3033			; 00000bd9H
  0041b	b9 00 00 00 00	 mov	 ecx, OFFSET ?lMsg@@3VCMsg@@A ; lMsg
  00420	e8 00 00 00 00	 call	 ?Get@CMsg@@QAEPADH@Z	; CMsg::Get
  00425	50		 push	 eax
  00426	8b 4d fc	 mov	 ecx, DWORD PTR _this$[ebp]
  00429	83 c1 04	 add	 ecx, 4
  0042c	e8 00 00 00 00	 call	 ?Add@CGMCommand@@QAEXPADHH@Z ; CGMCommand::Add

; 142  : 	this->cCommand.Add(lMsg.Get(MSGGET(11, 218)), 200, 33);

  00431	6a 21		 push	 33			; 00000021H
  00433	68 c8 00 00 00	 push	 200			; 000000c8H
  00438	68 da 0b 00 00	 push	 3034			; 00000bdaH
  0043d	b9 00 00 00 00	 mov	 ecx, OFFSET ?lMsg@@3VCMsg@@A ; lMsg
  00442	e8 00 00 00 00	 call	 ?Get@CMsg@@QAEPADH@Z	; CMsg::Get
  00447	50		 push	 eax
  00448	8b 4d fc	 mov	 ecx, DWORD PTR _this$[ebp]
  0044b	83 c1 04	 add	 ecx, 4
  0044e	e8 00 00 00 00	 call	 ?Add@CGMCommand@@QAEXPADHH@Z ; CGMCommand::Add

; 143  : 
; 144  : 	this->cCommand.Add(lMsg.Get(MSGGET(11, 219)), 202, 3);

  00453	6a 03		 push	 3
  00455	68 ca 00 00 00	 push	 202			; 000000caH
  0045a	68 db 0b 00 00	 push	 3035			; 00000bdbH
  0045f	b9 00 00 00 00	 mov	 ecx, OFFSET ?lMsg@@3VCMsg@@A ; lMsg
  00464	e8 00 00 00 00	 call	 ?Get@CMsg@@QAEPADH@Z	; CMsg::Get
  00469	50		 push	 eax
  0046a	8b 4d fc	 mov	 ecx, DWORD PTR _this$[ebp]
  0046d	83 c1 04	 add	 ecx, 4
  00470	e8 00 00 00 00	 call	 ?Add@CGMCommand@@QAEXPADHH@Z ; CGMCommand::Add

; 145  : 	this->cCommand.Add(lMsg.Get(MSGGET(11, 220)), 203, 33);

  00475	6a 21		 push	 33			; 00000021H
  00477	68 cb 00 00 00	 push	 203			; 000000cbH
  0047c	68 dc 0b 00 00	 push	 3036			; 00000bdcH
  00481	b9 00 00 00 00	 mov	 ecx, OFFSET ?lMsg@@3VCMsg@@A ; lMsg
  00486	e8 00 00 00 00	 call	 ?Get@CMsg@@QAEPADH@Z	; CMsg::Get
  0048b	50		 push	 eax
  0048c	8b 4d fc	 mov	 ecx, DWORD PTR _this$[ebp]
  0048f	83 c1 04	 add	 ecx, 4
  00492	e8 00 00 00 00	 call	 ?Add@CGMCommand@@QAEXPADHH@Z ; CGMCommand::Add

; 146  : 
; 147  : 	this->cCommand.Add(lMsg.Get(MSGGET(11, 201)), 214, 34);

  00497	6a 22		 push	 34			; 00000022H
  00499	68 d6 00 00 00	 push	 214			; 000000d6H
  0049e	68 c9 0b 00 00	 push	 3017			; 00000bc9H
  004a3	b9 00 00 00 00	 mov	 ecx, OFFSET ?lMsg@@3VCMsg@@A ; lMsg
  004a8	e8 00 00 00 00	 call	 ?Get@CMsg@@QAEPADH@Z	; CMsg::Get
  004ad	50		 push	 eax
  004ae	8b 4d fc	 mov	 ecx, DWORD PTR _this$[ebp]
  004b1	83 c1 04	 add	 ecx, 4
  004b4	e8 00 00 00 00	 call	 ?Add@CGMCommand@@QAEXPADHH@Z ; CGMCommand::Add

; 148  : 	this->cCommand.Add(lMsg.Get(MSGGET(11, 202)), 215, 34);

  004b9	6a 22		 push	 34			; 00000022H
  004bb	68 d7 00 00 00	 push	 215			; 000000d7H
  004c0	68 ca 0b 00 00	 push	 3018			; 00000bcaH
  004c5	b9 00 00 00 00	 mov	 ecx, OFFSET ?lMsg@@3VCMsg@@A ; lMsg
  004ca	e8 00 00 00 00	 call	 ?Get@CMsg@@QAEPADH@Z	; CMsg::Get
  004cf	50		 push	 eax
  004d0	8b 4d fc	 mov	 ecx, DWORD PTR _this$[ebp]
  004d3	83 c1 04	 add	 ecx, 4
  004d6	e8 00 00 00 00	 call	 ?Add@CGMCommand@@QAEXPADHH@Z ; CGMCommand::Add

; 149  : 	this->cCommand.Add(lMsg.Get(MSGGET(11, 203)), 216, 34);

  004db	6a 22		 push	 34			; 00000022H
  004dd	68 d8 00 00 00	 push	 216			; 000000d8H
  004e2	68 cb 0b 00 00	 push	 3019			; 00000bcbH
  004e7	b9 00 00 00 00	 mov	 ecx, OFFSET ?lMsg@@3VCMsg@@A ; lMsg
  004ec	e8 00 00 00 00	 call	 ?Get@CMsg@@QAEPADH@Z	; CMsg::Get
  004f1	50		 push	 eax
  004f2	8b 4d fc	 mov	 ecx, DWORD PTR _this$[ebp]
  004f5	83 c1 04	 add	 ecx, 4
  004f8	e8 00 00 00 00	 call	 ?Add@CGMCommand@@QAEXPADHH@Z ; CGMCommand::Add

; 150  : 
; 151  : 	this->cCommand.Add(lMsg.Get(MSGGET(11, 221)), 214, 34);

  004fd	6a 22		 push	 34			; 00000022H
  004ff	68 d6 00 00 00	 push	 214			; 000000d6H
  00504	68 dd 0b 00 00	 push	 3037			; 00000bddH
  00509	b9 00 00 00 00	 mov	 ecx, OFFSET ?lMsg@@3VCMsg@@A ; lMsg
  0050e	e8 00 00 00 00	 call	 ?Get@CMsg@@QAEPADH@Z	; CMsg::Get
  00513	50		 push	 eax
  00514	8b 4d fc	 mov	 ecx, DWORD PTR _this$[ebp]
  00517	83 c1 04	 add	 ecx, 4
  0051a	e8 00 00 00 00	 call	 ?Add@CGMCommand@@QAEXPADHH@Z ; CGMCommand::Add

; 152  : 	this->cCommand.Add(lMsg.Get(MSGGET(11, 222)), 215, 34);

  0051f	6a 22		 push	 34			; 00000022H
  00521	68 d7 00 00 00	 push	 215			; 000000d7H
  00526	68 de 0b 00 00	 push	 3038			; 00000bdeH
  0052b	b9 00 00 00 00	 mov	 ecx, OFFSET ?lMsg@@3VCMsg@@A ; lMsg
  00530	e8 00 00 00 00	 call	 ?Get@CMsg@@QAEPADH@Z	; CMsg::Get
  00535	50		 push	 eax
  00536	8b 4d fc	 mov	 ecx, DWORD PTR _this$[ebp]
  00539	83 c1 04	 add	 ecx, 4
  0053c	e8 00 00 00 00	 call	 ?Add@CGMCommand@@QAEXPADHH@Z ; CGMCommand::Add

; 153  : 	this->cCommand.Add(lMsg.Get(MSGGET(11, 223)), 216, 34);

  00541	6a 22		 push	 34			; 00000022H
  00543	68 d8 00 00 00	 push	 216			; 000000d8H
  00548	68 df 0b 00 00	 push	 3039			; 00000bdfH
  0054d	b9 00 00 00 00	 mov	 ecx, OFFSET ?lMsg@@3VCMsg@@A ; lMsg
  00552	e8 00 00 00 00	 call	 ?Get@CMsg@@QAEPADH@Z	; CMsg::Get
  00557	50		 push	 eax
  00558	8b 4d fc	 mov	 ecx, DWORD PTR _this$[ebp]
  0055b	83 c1 04	 add	 ecx, 4
  0055e	e8 00 00 00 00	 call	 ?Add@CGMCommand@@QAEXPADHH@Z ; CGMCommand::Add

; 154  : 
; 155  : 	
; 156  : /*#if(GS_CASTLE == 1)
; 157  : 	// CASTLESIEGE Commands
; 158  : 	this->cCommand.Add("/cschangeowner", 331);
; 159  : 	this->cCommand.Add("/cssetregsiege", 332);
; 160  : 	this->cCommand.Add("/cssetregmark", 333);
; 161  : 	this->cCommand.Add("/cssetnotify", 334);
; 162  : 	this->cCommand.Add("/cssetstart", 335);
; 163  : 	this->cCommand.Add("/cssetend", 336);
; 164  : 	this->cCommand.Add("/cscurowner", 337);
; 165  : 	this->cCommand.Add("/cscurstate", 338);
; 166  : 	this->cCommand.Add("/cschangeside", 340);
; 167  : 	// CRYWOLF Commands
; 168  : 	this->cCommand.Add(lMsg.Get(3338), 345);
; 169  : 	this->cCommand.Add(lMsg.Get(3339), 346);
; 170  : 	this->cCommand.Add(lMsg.Get(3340), 347);
; 171  : 	this->cCommand.Add(lMsg.Get(3341), 348);
; 172  : #endif
; 173  : 
; 174  : #if(GS_CASTLE==0)
; 175  : 	// KANTURU Commands
; 176  : 	this->cCommand.Add("/Д­ЕхёЈґл±в»уЕВ", 369); //season 3.0 changed
; 177  : 	this->cCommand.Add("/Д­ЕхёЈё¶ѕЯАь", 370); //season 3.0 changed
; 178  : 
; 179  : 	this->cCommand.Add("/ё¶ѕЯёуЅєЕН1", 371);
; 180  : 	this->cCommand.Add("/ё¶ѕЯ1", 372);
; 181  : 	this->cCommand.Add("/ё¶ѕЯёуЅєЕН2", 373);
; 182  : 	this->cCommand.Add("/ё¶ѕЯ2", 374);
; 183  : 	this->cCommand.Add("/ё¶ѕЯёуЅєЕН3", 375);
; 184  : 	this->cCommand.Add("/ё¶ѕЯ3", 376);
; 185  : 	this->cCommand.Add("/ё¶ѕЯ3јє°ш", 377);
; 186  : 	this->cCommand.Add(lMsg.Get(MSGGET(13, 60)), 378);
; 187  : 	this->cCommand.Add("/ё¶ѕЯЅЗЖР", 379);
; 188  : 	this->cCommand.Add("/Д­ЕхёЈіЄАМЖ®ёЮѕоАь", 380);
; 189  : 	this->cCommand.Add(lMsg.Get(MSGGET(13, 61)), 381);
; 190  : 	this->cCommand.Add("/іЄАМЖ®ёЮѕоЅЗЖР", 382);
; 191  : 	this->cCommand.Add("/Д­ЕхёЈБ¤Б¦АЗЕѕ", 383);
; 192  : 	this->cCommand.Add("/Б¤Б¦АЗЕѕї­±в", 384);
; 193  : 	this->cCommand.Add("/Б¤Б¦АЗЕѕґЭ±в", 385);
; 194  : 	this->cCommand.Add("/Д­ЕхёЈБѕ·б", 386);
; 195  : 
; 196  : 	this->cCommand.Add(lMsg.Get(MSGGET(13, 57)), 387);
; 197  : 	this->cCommand.Add(lMsg.Get(MSGGET(13, 58)), 388);
; 198  : 	this->cCommand.Add(lMsg.Get(MSGGET(13, 59)), 389);
; 199  : #endif*/
; 200  : 
; 201  : //	this->cCommand.Add("/templeready", 392); //season 2.5 add-on
; 202  : //	this->cCommand.Add("/templestart", 393); //season 2.5 add-on
; 203  : //	this->cCommand.Add("/templeend", 394); //season 2.5 add-on
; 204  : //	this->cCommand.Add("/templereset", 395); //season 2.5 add-on
; 205  : //	this->cCommand.Add("/masterlevel", 406); //season 3.5 add-on
; 206  : //	this->cCommand.Add("/mlpoint", 407); //season 3.5 add-on
; 207  : //	this->cCommand.Add("/ms_reset", 408); //season 3.5 add-on
; 208  : 
; 209  : 	// KUNDUN Commands
; 210  : 	this->cCommand.Add("/ДпµР»уЕВ", 320, 2);

  00563	6a 02		 push	 2
  00565	68 40 01 00 00	 push	 320			; 00000140H
  0056a	68 00 00 00 00	 push	 OFFSET ??_C@_0BC@GBNLHOPJ@?1?P?$JE?P?$LP?B?$LF?P?$KA?B?$LL?Q?$ID?P?$JF?P?$JC?$AA@
  0056f	8b 4d fc	 mov	 ecx, DWORD PTR _this$[ebp]
  00572	83 c1 04	 add	 ecx, 4
  00575	e8 00 00 00 00	 call	 ?Add@CGMCommand@@QAEXPADHH@Z ; CGMCommand::Add

; 211  : 	this->cCommand.Add("/ДпµРЗЗ", 321, 2);

  0057a	6a 02		 push	 2
  0057c	68 41 01 00 00	 push	 321			; 00000141H
  00581	68 00 00 00 00	 push	 OFFSET ??_C@_0O@KDDMLHBD@?1?P?$JE?P?$LP?B?$LF?P?$KA?P?$JH?P?$JH?$AA@
  00586	8b 4d fc	 mov	 ecx, DWORD PTR _this$[ebp]
  00589	83 c1 04	 add	 ecx, 4
  0058c	e8 00 00 00 00	 call	 ?Add@CGMCommand@@QAEXPADHH@Z ; CGMCommand::Add

; 212  : 	this->cCommand.Add("/ДпµРИёє№·®", 322, 2);

  00591	6a 02		 push	 2
  00593	68 42 01 00 00	 push	 322			; 00000142H
  00598	68 00 00 00 00	 push	 OFFSET ??_C@_0BH@NLDKOEC@?1?P?$JE?P?$LP?B?$LF?P?$KA?P?$JI?Q?$JB?Q?$JE?b?$IE?$JG?B?$LH?B?$KO?$AA@
  0059d	8b 4d fc	 mov	 ecx, DWORD PTR _this$[ebp]
  005a0	83 c1 04	 add	 ecx, 4
  005a3	e8 00 00 00 00	 call	 ?Add@CGMCommand@@QAEXPADHH@Z ; CGMCommand::Add

; 213  : 	this->cCommand.Add("/ДпµРГКґзИёє№·®", 323, 2);

  005a8	6a 02		 push	 2
  005aa	68 43 01 00 00	 push	 323			; 00000143H
  005af	68 00 00 00 00	 push	 OFFSET ??_C@_0BP@MHDOCMHI@?1?P?$JE?P?$LP?B?$LF?P?$KA?P?$JD?P?$JK?R?$JB?P?$LH?P?$JI?Q?$JB?Q?$JE?b?$IE?$JG?B?$LH?B?$KO?$AA@
  005b4	8b 4d fc	 mov	 ecx, DWORD PTR _this$[ebp]
  005b7	83 c1 04	 add	 ecx, 4
  005ba	e8 00 00 00 00	 call	 ?Add@CGMCommand@@QAEXPADHH@Z ; CGMCommand::Add

; 214  : 	this->cCommand.Add("/ДпµРИёє№ЅГ°Ј", 324, 2);

  005bf	6a 02		 push	 2
  005c1	68 44 01 00 00	 push	 324			; 00000144H
  005c6	68 00 00 00 00	 push	 OFFSET ??_C@_0BL@KOKNBECL@?1?P?$JE?P?$LP?B?$LF?P?$KA?P?$JI?Q?$JB?Q?$JE?b?$IE?$JG?P?$IF?P?$JD?B?$LA?P?$II?$AA@
  005cb	8b 4d fc	 mov	 ecx, DWORD PTR _this$[ebp]
  005ce	83 c1 04	 add	 ecx, 4
  005d1	e8 00 00 00 00	 call	 ?Add@CGMCommand@@QAEXPADHH@Z ; CGMCommand::Add

; 215  : 
; 216  : 	if(g_ExLicense.CheckUser(eExUB::PrideMu) || g_ExLicense.CheckUser(eExUB::PrideMuLocal) || g_ExLicense.CheckUser(eExUB::Local3))

  005d6	6a 11		 push	 17			; 00000011H
  005d8	b9 00 00 00 00	 mov	 ecx, OFFSET ?g_ExLicense@@3VCExLicense@@A ; g_ExLicense
  005dd	e8 00 00 00 00	 call	 ?CheckUser@CExLicense@@QAE_NH@Z ; CExLicense::CheckUser
  005e2	0f b6 c0	 movzx	 eax, al
  005e5	85 c0		 test	 eax, eax
  005e7	75 2a		 jne	 SHORT $LN36@Init@2
  005e9	6a 1a		 push	 26			; 0000001aH
  005eb	b9 00 00 00 00	 mov	 ecx, OFFSET ?g_ExLicense@@3VCExLicense@@A ; g_ExLicense
  005f0	e8 00 00 00 00	 call	 ?CheckUser@CExLicense@@QAE_NH@Z ; CExLicense::CheckUser
  005f5	0f b6 c0	 movzx	 eax, al
  005f8	85 c0		 test	 eax, eax
  005fa	75 17		 jne	 SHORT $LN36@Init@2
  005fc	6a 1c		 push	 28			; 0000001cH
  005fe	b9 00 00 00 00	 mov	 ecx, OFFSET ?g_ExLicense@@3VCExLicense@@A ; g_ExLicense
  00603	e8 00 00 00 00	 call	 ?CheckUser@CExLicense@@QAE_NH@Z ; CExLicense::CheckUser
  00608	0f b6 c0	 movzx	 eax, al
  0060b	85 c0		 test	 eax, eax
  0060d	0f 84 cf 00 00
	00		 je	 $LN37@Init@2
$LN36@Init@2:

; 217  : 	{
; 218  : 		this->cCommand.Add("/cschangeowner", 331 ,1);

  00613	6a 01		 push	 1
  00615	68 4b 01 00 00	 push	 331			; 0000014bH
  0061a	68 00 00 00 00	 push	 OFFSET ??_C@_0P@CFKAJOGB@?1cschangeowner?$AA@
  0061f	8b 4d fc	 mov	 ecx, DWORD PTR _this$[ebp]
  00622	83 c1 04	 add	 ecx, 4
  00625	e8 00 00 00 00	 call	 ?Add@CGMCommand@@QAEXPADHH@Z ; CGMCommand::Add

; 219  : 		this->cCommand.Add("/cssetregsiege", 332, 1);

  0062a	6a 01		 push	 1
  0062c	68 4c 01 00 00	 push	 332			; 0000014cH
  00631	68 00 00 00 00	 push	 OFFSET ??_C@_0P@MGCHOPPN@?1cssetregsiege?$AA@
  00636	8b 4d fc	 mov	 ecx, DWORD PTR _this$[ebp]
  00639	83 c1 04	 add	 ecx, 4
  0063c	e8 00 00 00 00	 call	 ?Add@CGMCommand@@QAEXPADHH@Z ; CGMCommand::Add

; 220  : 		this->cCommand.Add("/cssetregmark", 333, 1);

  00641	6a 01		 push	 1
  00643	68 4d 01 00 00	 push	 333			; 0000014dH
  00648	68 00 00 00 00	 push	 OFFSET ??_C@_0O@LJFGCBBI@?1cssetregmark?$AA@
  0064d	8b 4d fc	 mov	 ecx, DWORD PTR _this$[ebp]
  00650	83 c1 04	 add	 ecx, 4
  00653	e8 00 00 00 00	 call	 ?Add@CGMCommand@@QAEXPADHH@Z ; CGMCommand::Add

; 221  : 		this->cCommand.Add("/cssetnotify", 334, 1);

  00658	6a 01		 push	 1
  0065a	68 4e 01 00 00	 push	 334			; 0000014eH
  0065f	68 00 00 00 00	 push	 OFFSET ??_C@_0N@KFOJMJDB@?1cssetnotify?$AA@
  00664	8b 4d fc	 mov	 ecx, DWORD PTR _this$[ebp]
  00667	83 c1 04	 add	 ecx, 4
  0066a	e8 00 00 00 00	 call	 ?Add@CGMCommand@@QAEXPADHH@Z ; CGMCommand::Add

; 222  : 		this->cCommand.Add("/cssetstart", 335, 1);

  0066f	6a 01		 push	 1
  00671	68 4f 01 00 00	 push	 335			; 0000014fH
  00676	68 00 00 00 00	 push	 OFFSET ??_C@_0M@GNJNLPIG@?1cssetstart?$AA@
  0067b	8b 4d fc	 mov	 ecx, DWORD PTR _this$[ebp]
  0067e	83 c1 04	 add	 ecx, 4
  00681	e8 00 00 00 00	 call	 ?Add@CGMCommand@@QAEXPADHH@Z ; CGMCommand::Add

; 223  : 		this->cCommand.Add("/cssetend", 336, 1);

  00686	6a 01		 push	 1
  00688	68 50 01 00 00	 push	 336			; 00000150H
  0068d	68 00 00 00 00	 push	 OFFSET ??_C@_09CDNJLJCO@?1cssetend?$AA@
  00692	8b 4d fc	 mov	 ecx, DWORD PTR _this$[ebp]
  00695	83 c1 04	 add	 ecx, 4
  00698	e8 00 00 00 00	 call	 ?Add@CGMCommand@@QAEXPADHH@Z ; CGMCommand::Add

; 224  : 		this->cCommand.Add("/cscurowner", 337, 1);

  0069d	6a 01		 push	 1
  0069f	68 51 01 00 00	 push	 337			; 00000151H
  006a4	68 00 00 00 00	 push	 OFFSET ??_C@_0M@PKNCEDPD@?1cscurowner?$AA@
  006a9	8b 4d fc	 mov	 ecx, DWORD PTR _this$[ebp]
  006ac	83 c1 04	 add	 ecx, 4
  006af	e8 00 00 00 00	 call	 ?Add@CGMCommand@@QAEXPADHH@Z ; CGMCommand::Add

; 225  : 		this->cCommand.Add("/cscurstate", 338, 1);

  006b4	6a 01		 push	 1
  006b6	68 52 01 00 00	 push	 338			; 00000152H
  006bb	68 00 00 00 00	 push	 OFFSET ??_C@_0M@IJGCKGEE@?1cscurstate?$AA@
  006c0	8b 4d fc	 mov	 ecx, DWORD PTR _this$[ebp]
  006c3	83 c1 04	 add	 ecx, 4
  006c6	e8 00 00 00 00	 call	 ?Add@CGMCommand@@QAEXPADHH@Z ; CGMCommand::Add

; 226  : 		this->cCommand.Add("/cschangeside", 340, 1);

  006cb	6a 01		 push	 1
  006cd	68 54 01 00 00	 push	 340			; 00000154H
  006d2	68 00 00 00 00	 push	 OFFSET ??_C@_0O@GJAGAOFL@?1cschangeside?$AA@
  006d7	8b 4d fc	 mov	 ecx, DWORD PTR _this$[ebp]
  006da	83 c1 04	 add	 ecx, 4
  006dd	e8 00 00 00 00	 call	 ?Add@CGMCommand@@QAEXPADHH@Z ; CGMCommand::Add
$LN37@Init@2:

; 227  : 	}
; 228  : 
; 229  : 	this->cCommand.Add("/ЖшБЧ", 217, 34);

  006e2	6a 22		 push	 34			; 00000022H
  006e4	68 d9 00 00 00	 push	 217			; 000000d9H
  006e9	68 00 00 00 00	 push	 OFFSET ??_C@_09EAFKELFJ@?1?P?$JG?Q?$II?P?$JB?P?$KH?$AA@
  006ee	8b 4d fc	 mov	 ecx, DWORD PTR _this$[ebp]
  006f1	83 c1 04	 add	 ecx, 4
  006f4	e8 00 00 00 00	 call	 ?Add@CGMCommand@@QAEXPADHH@Z ; CGMCommand::Add

; 230  : 	this->cCommand.Add("/hide_on", 390, 32); //season 2.5 add-on //Ехён

  006f9	6a 20		 push	 32			; 00000020H
  006fb	68 86 01 00 00	 push	 390			; 00000186H
  00700	68 00 00 00 00	 push	 OFFSET ??_C@_08LALCHEKK@?1hide_on?$AA@
  00705	8b 4d fc	 mov	 ecx, DWORD PTR _this$[ebp]
  00708	83 c1 04	 add	 ecx, 4
  0070b	e8 00 00 00 00	 call	 ?Add@CGMCommand@@QAEXPADHH@Z ; CGMCommand::Add

; 231  : 	this->cCommand.Add("/hide_off", 391, 32); //season 2.5 add-on //ЕхёнЗШБ¦

  00710	6a 20		 push	 32			; 00000020H
  00712	68 87 01 00 00	 push	 391			; 00000187H
  00717	68 00 00 00 00	 push	 OFFSET ??_C@_09LAHGFBL@?1hide_off?$AA@
  0071c	8b 4d fc	 mov	 ecx, DWORD PTR _this$[ebp]
  0071f	83 c1 04	 add	 ecx, 4
  00722	e8 00 00 00 00	 call	 ?Add@CGMCommand@@QAEXPADHH@Z ; CGMCommand::Add

; 232  : 
; 233  : 	this->cCommand.Add("/gmove", 600, 1);

  00727	6a 01		 push	 1
  00729	68 58 02 00 00	 push	 600			; 00000258H
  0072e	68 00 00 00 00	 push	 OFFSET ??_C@_06EIGIJLP@?1gmove?$AA@
  00733	8b 4d fc	 mov	 ecx, DWORD PTR _this$[ebp]
  00736	83 c1 04	 add	 ecx, 4
  00739	e8 00 00 00 00	 call	 ?Add@CGMCommand@@QAEXPADHH@Z ; CGMCommand::Add

; 234  : 	//this->cCommand.Add("/vault", 601, 1);
; 235  : 
; 236  : 	this->cCommand.Add("/partyleader", 602, 1);

  0073e	6a 01		 push	 1
  00740	68 5a 02 00 00	 push	 602			; 0000025aH
  00745	68 00 00 00 00	 push	 OFFSET ??_C@_0N@GKFFDGBI@?1partyleader?$AA@
  0074a	8b 4d fc	 mov	 ecx, DWORD PTR _this$[ebp]
  0074d	83 c1 04	 add	 ecx, 4
  00750	e8 00 00 00 00	 call	 ?Add@CGMCommand@@QAEXPADHH@Z ; CGMCommand::Add

; 237  : #if(_BAN_SYSTEM_)
; 238  : 	this->cCommand.Add("/banchat", 604, 1);

  00755	6a 01		 push	 1
  00757	68 5c 02 00 00	 push	 604			; 0000025cH
  0075c	68 00 00 00 00	 push	 OFFSET ??_C@_08OLAJOHAK@?1banchat?$AA@
  00761	8b 4d fc	 mov	 ecx, DWORD PTR _this$[ebp]
  00764	83 c1 04	 add	 ecx, 4
  00767	e8 00 00 00 00	 call	 ?Add@CGMCommand@@QAEXPADHH@Z ; CGMCommand::Add

; 239  : 	this->cCommand.Add("/banpost", 605, 1);

  0076c	6a 01		 push	 1
  0076e	68 5d 02 00 00	 push	 605			; 0000025dH
  00773	68 00 00 00 00	 push	 OFFSET ??_C@_08EODMEFPP@?1banpost?$AA@
  00778	8b 4d fc	 mov	 ecx, DWORD PTR _this$[ebp]
  0077b	83 c1 04	 add	 ecx, 4
  0077e	e8 00 00 00 00	 call	 ?Add@CGMCommand@@QAEXPADHH@Z ; CGMCommand::Add

; 240  : 	this->cCommand.Add("/banchar", 606, 1);

  00783	6a 01		 push	 1
  00785	68 5e 02 00 00	 push	 606			; 0000025eH
  0078a	68 00 00 00 00	 push	 OFFSET ??_C@_08LNFDEAIM@?1banchar?$AA@
  0078f	8b 4d fc	 mov	 ecx, DWORD PTR _this$[ebp]
  00792	83 c1 04	 add	 ecx, 4
  00795	e8 00 00 00 00	 call	 ?Add@CGMCommand@@QAEXPADHH@Z ; CGMCommand::Add

; 241  : 	this->cCommand.Add("/banallchat", 607, 1);

  0079a	6a 01		 push	 1
  0079c	68 5f 02 00 00	 push	 607			; 0000025fH
  007a1	68 00 00 00 00	 push	 OFFSET ??_C@_0M@EBJEOBJJ@?1banallchat?$AA@
  007a6	8b 4d fc	 mov	 ecx, DWORD PTR _this$[ebp]
  007a9	83 c1 04	 add	 ecx, 4
  007ac	e8 00 00 00 00	 call	 ?Add@CGMCommand@@QAEXPADHH@Z ; CGMCommand::Add

; 242  : 	this->cCommand.Add("/unbanchat", 608, 1);

  007b1	6a 01		 push	 1
  007b3	68 60 02 00 00	 push	 608			; 00000260H
  007b8	68 00 00 00 00	 push	 OFFSET ??_C@_0L@KKGKGAMB@?1unbanchat?$AA@
  007bd	8b 4d fc	 mov	 ecx, DWORD PTR _this$[ebp]
  007c0	83 c1 04	 add	 ecx, 4
  007c3	e8 00 00 00 00	 call	 ?Add@CGMCommand@@QAEXPADHH@Z ; CGMCommand::Add

; 243  : 	this->cCommand.Add("/unbanpost", 609, 1);

  007c8	6a 01		 push	 1
  007ca	68 61 02 00 00	 push	 609			; 00000261H
  007cf	68 00 00 00 00	 push	 OFFSET ??_C@_0L@PFPMCDE@?1unbanpost?$AA@
  007d4	8b 4d fc	 mov	 ecx, DWORD PTR _this$[ebp]
  007d7	83 c1 04	 add	 ecx, 4
  007da	e8 00 00 00 00	 call	 ?Add@CGMCommand@@QAEXPADHH@Z ; CGMCommand::Add

; 244  : 	this->cCommand.Add("/unbanallchat", 610, 1);

  007df	6a 01		 push	 1
  007e1	68 62 02 00 00	 push	 610			; 00000262H
  007e6	68 00 00 00 00	 push	 OFFSET ??_C@_0O@HMBHKGBH@?1unbanallchat?$AA@
  007eb	8b 4d fc	 mov	 ecx, DWORD PTR _this$[ebp]
  007ee	83 c1 04	 add	 ecx, 4
  007f1	e8 00 00 00 00	 call	 ?Add@CGMCommand@@QAEXPADHH@Z ; CGMCommand::Add

; 245  : 	this->cCommand.Add("/unbanchar", 611, 1);

  007f6	6a 01		 push	 1
  007f8	68 63 02 00 00	 push	 611			; 00000263H
  007fd	68 00 00 00 00	 push	 OFFSET ??_C@_0L@PMDAMHEH@?1unbanchar?$AA@
  00802	8b 4d fc	 mov	 ecx, DWORD PTR _this$[ebp]
  00805	83 c1 04	 add	 ecx, 4
  00808	e8 00 00 00 00	 call	 ?Add@CGMCommand@@QAEXPADHH@Z ; CGMCommand::Add

; 246  : #endif
; 247  : 	this->cCommand.Add("/offafk", 612, 1);

  0080d	6a 01		 push	 1
  0080f	68 64 02 00 00	 push	 612			; 00000264H
  00814	68 00 00 00 00	 push	 OFFSET ??_C@_07EGGDJHFC@?1offafk?$AA@
  00819	8b 4d fc	 mov	 ecx, DWORD PTR _this$[ebp]
  0081c	83 c1 04	 add	 ecx, 4
  0081f	e8 00 00 00 00	 call	 ?Add@CGMCommand@@QAEXPADHH@Z ; CGMCommand::Add

; 248  : 
; 249  : 	if(g_ExLicense.CheckUser(eExUB::SILVER1) || g_ExLicense.CheckUser(eExUB::SILVER2) || g_ExLicense.CheckUser(eExUB::SILVER_Local))

  00824	6a 07		 push	 7
  00826	b9 00 00 00 00	 mov	 ecx, OFFSET ?g_ExLicense@@3VCExLicense@@A ; g_ExLicense
  0082b	e8 00 00 00 00	 call	 ?CheckUser@CExLicense@@QAE_NH@Z ; CExLicense::CheckUser
  00830	0f b6 c0	 movzx	 eax, al
  00833	85 c0		 test	 eax, eax
  00835	75 26		 jne	 SHORT $LN34@Init@2
  00837	6a 08		 push	 8
  00839	b9 00 00 00 00	 mov	 ecx, OFFSET ?g_ExLicense@@3VCExLicense@@A ; g_ExLicense
  0083e	e8 00 00 00 00	 call	 ?CheckUser@CExLicense@@QAE_NH@Z ; CExLicense::CheckUser
  00843	0f b6 c0	 movzx	 eax, al
  00846	85 c0		 test	 eax, eax
  00848	75 13		 jne	 SHORT $LN34@Init@2
  0084a	6a 2b		 push	 43			; 0000002bH
  0084c	b9 00 00 00 00	 mov	 ecx, OFFSET ?g_ExLicense@@3VCExLicense@@A ; g_ExLicense
  00851	e8 00 00 00 00	 call	 ?CheckUser@CExLicense@@QAE_NH@Z ; CExLicense::CheckUser
  00856	0f b6 c0	 movzx	 eax, al
  00859	85 c0		 test	 eax, eax
  0085b	74 47		 je	 SHORT $LN35@Init@2
$LN34@Init@2:

; 250  : 	{
; 251  : 		this->cCommand.Add("/sendchaos", 613, 1);

  0085d	6a 01		 push	 1
  0085f	68 65 02 00 00	 push	 613			; 00000265H
  00864	68 00 00 00 00	 push	 OFFSET ??_C@_0L@NDCPGCDL@?1sendchaos?$AA@
  00869	8b 4d fc	 mov	 ecx, DWORD PTR _this$[ebp]
  0086c	83 c1 04	 add	 ecx, 4
  0086f	e8 00 00 00 00	 call	 ?Add@CGMCommand@@QAEXPADHH@Z ; CGMCommand::Add

; 252  : 		this->cCommand.Add("/sendbless", 614, 1);

  00874	6a 01		 push	 1
  00876	68 66 02 00 00	 push	 614			; 00000266H
  0087b	68 00 00 00 00	 push	 OFFSET ??_C@_0L@HHKNNKBN@?1sendbless?$AA@
  00880	8b 4d fc	 mov	 ecx, DWORD PTR _this$[ebp]
  00883	83 c1 04	 add	 ecx, 4
  00886	e8 00 00 00 00	 call	 ?Add@CGMCommand@@QAEXPADHH@Z ; CGMCommand::Add

; 253  : 		this->cCommand.Add("/sendsoul", 615, 1);		

  0088b	6a 01		 push	 1
  0088d	68 67 02 00 00	 push	 615			; 00000267H
  00892	68 00 00 00 00	 push	 OFFSET ??_C@_09PNKPBHLF@?1sendsoul?$AA@
  00897	8b 4d fc	 mov	 ecx, DWORD PTR _this$[ebp]
  0089a	83 c1 04	 add	 ecx, 4
  0089d	e8 00 00 00 00	 call	 ?Add@CGMCommand@@QAEXPADHH@Z ; CGMCommand::Add

; 254  : 	}
; 255  : 	else

  008a2	eb 66		 jmp	 SHORT $LN33@Init@2
$LN35@Init@2:

; 256  : 	{
; 257  : 		this->cCommand.Add(g_ExText.GetText(139), 613, 1);

  008a4	6a 01		 push	 1
  008a6	68 65 02 00 00	 push	 613			; 00000265H
  008ab	68 8b 00 00 00	 push	 139			; 0000008bH
  008b0	b9 00 00 00 00	 mov	 ecx, OFFSET ?g_ExText@@3VCExText@@A ; g_ExText
  008b5	e8 00 00 00 00	 call	 ?GetText@CExText@@QAEPADH@Z ; CExText::GetText
  008ba	50		 push	 eax
  008bb	8b 4d fc	 mov	 ecx, DWORD PTR _this$[ebp]
  008be	83 c1 04	 add	 ecx, 4
  008c1	e8 00 00 00 00	 call	 ?Add@CGMCommand@@QAEXPADHH@Z ; CGMCommand::Add

; 258  : 		this->cCommand.Add(g_ExText.GetText(140), 614, 1);

  008c6	6a 01		 push	 1
  008c8	68 66 02 00 00	 push	 614			; 00000266H
  008cd	68 8c 00 00 00	 push	 140			; 0000008cH
  008d2	b9 00 00 00 00	 mov	 ecx, OFFSET ?g_ExText@@3VCExText@@A ; g_ExText
  008d7	e8 00 00 00 00	 call	 ?GetText@CExText@@QAEPADH@Z ; CExText::GetText
  008dc	50		 push	 eax
  008dd	8b 4d fc	 mov	 ecx, DWORD PTR _this$[ebp]
  008e0	83 c1 04	 add	 ecx, 4
  008e3	e8 00 00 00 00	 call	 ?Add@CGMCommand@@QAEXPADHH@Z ; CGMCommand::Add

; 259  : 		this->cCommand.Add(g_ExText.GetText(141), 615, 1);

  008e8	6a 01		 push	 1
  008ea	68 67 02 00 00	 push	 615			; 00000267H
  008ef	68 8d 00 00 00	 push	 141			; 0000008dH
  008f4	b9 00 00 00 00	 mov	 ecx, OFFSET ?g_ExText@@3VCExText@@A ; g_ExText
  008f9	e8 00 00 00 00	 call	 ?GetText@CExText@@QAEPADH@Z ; CExText::GetText
  008fe	50		 push	 eax
  008ff	8b 4d fc	 mov	 ecx, DWORD PTR _this$[ebp]
  00902	83 c1 04	 add	 ecx, 4
  00905	e8 00 00 00 00	 call	 ?Add@CGMCommand@@QAEXPADHH@Z ; CGMCommand::Add
$LN33@Init@2:

; 260  : 	}
; 261  : 	
; 262  : #ifdef PRIVATE_MODULE
; 263  : 	if(g_ExLicense.CheckUser(eExUB::Vadim))

  0090a	6a 09		 push	 9
  0090c	b9 00 00 00 00	 mov	 ecx, OFFSET ?g_ExLicense@@3VCExLicense@@A ; g_ExLicense
  00911	e8 00 00 00 00	 call	 ?CheckUser@CExLicense@@QAE_NH@Z ; CExLicense::CheckUser
  00916	0f b6 c0	 movzx	 eax, al
  00919	85 c0		 test	 eax, eax
  0091b	74 19		 je	 SHORT $LN32@Init@2

; 264  : 	{
; 265  : 		this->cCommand.Add("/sendjowbank", 616, 1);

  0091d	6a 01		 push	 1
  0091f	68 68 02 00 00	 push	 616			; 00000268H
  00924	68 00 00 00 00	 push	 OFFSET ??_C@_0N@FGKJPHKD@?1sendjowbank?$AA@
  00929	8b 4d fc	 mov	 ecx, DWORD PTR _this$[ebp]
  0092c	83 c1 04	 add	 ecx, 4
  0092f	e8 00 00 00 00	 call	 ?Add@CGMCommand@@QAEXPADHH@Z ; CGMCommand::Add
  00934	eb 74		 jmp	 SHORT $LN31@Init@2
$LN32@Init@2:

; 266  : 	}
; 267  : 	else if(g_ExLicense.CheckUser(eExUB::SILVER1) || g_ExLicense.CheckUser(eExUB::SILVER2) || g_ExLicense.CheckUser(eExUB::SILVER_Local))

  00936	6a 07		 push	 7
  00938	b9 00 00 00 00	 mov	 ecx, OFFSET ?g_ExLicense@@3VCExLicense@@A ; g_ExLicense
  0093d	e8 00 00 00 00	 call	 ?CheckUser@CExLicense@@QAE_NH@Z ; CExLicense::CheckUser
  00942	0f b6 c0	 movzx	 eax, al
  00945	85 c0		 test	 eax, eax
  00947	75 26		 jne	 SHORT $LN29@Init@2
  00949	6a 08		 push	 8
  0094b	b9 00 00 00 00	 mov	 ecx, OFFSET ?g_ExLicense@@3VCExLicense@@A ; g_ExLicense
  00950	e8 00 00 00 00	 call	 ?CheckUser@CExLicense@@QAE_NH@Z ; CExLicense::CheckUser
  00955	0f b6 c0	 movzx	 eax, al
  00958	85 c0		 test	 eax, eax
  0095a	75 13		 jne	 SHORT $LN29@Init@2
  0095c	6a 2b		 push	 43			; 0000002bH
  0095e	b9 00 00 00 00	 mov	 ecx, OFFSET ?g_ExLicense@@3VCExLicense@@A ; g_ExLicense
  00963	e8 00 00 00 00	 call	 ?CheckUser@CExLicense@@QAE_NH@Z ; CExLicense::CheckUser
  00968	0f b6 c0	 movzx	 eax, al
  0096b	85 c0		 test	 eax, eax
  0096d	74 19		 je	 SHORT $LN30@Init@2
$LN29@Init@2:

; 268  : 	{
; 269  : 		this->cCommand.Add("/sendlife", 616, 1);

  0096f	6a 01		 push	 1
  00971	68 68 02 00 00	 push	 616			; 00000268H
  00976	68 00 00 00 00	 push	 OFFSET ??_C@_09PFNGOOFK@?1sendlife?$AA@
  0097b	8b 4d fc	 mov	 ecx, DWORD PTR _this$[ebp]
  0097e	83 c1 04	 add	 ecx, 4
  00981	e8 00 00 00 00	 call	 ?Add@CGMCommand@@QAEXPADHH@Z ; CGMCommand::Add

; 270  : 	}
; 271  : 	else

  00986	eb 22		 jmp	 SHORT $LN31@Init@2
$LN30@Init@2:

; 272  : 	{
; 273  : 		this->cCommand.Add(g_ExText.GetText(142), 616, 1);

  00988	6a 01		 push	 1
  0098a	68 68 02 00 00	 push	 616			; 00000268H
  0098f	68 8e 00 00 00	 push	 142			; 0000008eH
  00994	b9 00 00 00 00	 mov	 ecx, OFFSET ?g_ExText@@3VCExText@@A ; g_ExText
  00999	e8 00 00 00 00	 call	 ?GetText@CExText@@QAEPADH@Z ; CExText::GetText
  0099e	50		 push	 eax
  0099f	8b 4d fc	 mov	 ecx, DWORD PTR _this$[ebp]
  009a2	83 c1 04	 add	 ecx, 4
  009a5	e8 00 00 00 00	 call	 ?Add@CGMCommand@@QAEXPADHH@Z ; CGMCommand::Add
$LN31@Init@2:

; 274  : 	}
; 275  : #else
; 276  : 	this->cCommand.Add("/sendlifebank", 616, 1);
; 277  : #endif
; 278  : 
; 279  : 	if(g_ExLicense.CheckUser(eExUB::SILVER1) || g_ExLicense.CheckUser(eExUB::SILVER2) || g_ExLicense.CheckUser(eExUB::SILVER_Local))

  009aa	6a 07		 push	 7
  009ac	b9 00 00 00 00	 mov	 ecx, OFFSET ?g_ExLicense@@3VCExLicense@@A ; g_ExLicense
  009b1	e8 00 00 00 00	 call	 ?CheckUser@CExLicense@@QAE_NH@Z ; CExLicense::CheckUser
  009b6	0f b6 c0	 movzx	 eax, al
  009b9	85 c0		 test	 eax, eax
  009bb	75 26		 jne	 SHORT $LN26@Init@2
  009bd	6a 08		 push	 8
  009bf	b9 00 00 00 00	 mov	 ecx, OFFSET ?g_ExLicense@@3VCExLicense@@A ; g_ExLicense
  009c4	e8 00 00 00 00	 call	 ?CheckUser@CExLicense@@QAE_NH@Z ; CExLicense::CheckUser
  009c9	0f b6 c0	 movzx	 eax, al
  009cc	85 c0		 test	 eax, eax
  009ce	75 13		 jne	 SHORT $LN26@Init@2
  009d0	6a 2b		 push	 43			; 0000002bH
  009d2	b9 00 00 00 00	 mov	 ecx, OFFSET ?g_ExLicense@@3VCExLicense@@A ; g_ExLicense
  009d7	e8 00 00 00 00	 call	 ?CheckUser@CExLicense@@QAE_NH@Z ; CExLicense::CheckUser
  009dc	0f b6 c0	 movzx	 eax, al
  009df	85 c0		 test	 eax, eax
  009e1	74 47		 je	 SHORT $LN27@Init@2
$LN26@Init@2:

; 280  : 	{
; 281  : 		this->cCommand.Add("/recvchaos", 617, 1);

  009e3	6a 01		 push	 1
  009e5	68 69 02 00 00	 push	 617			; 00000269H
  009ea	68 00 00 00 00	 push	 OFFSET ??_C@_0L@FHKJJBDD@?1recvchaos?$AA@
  009ef	8b 4d fc	 mov	 ecx, DWORD PTR _this$[ebp]
  009f2	83 c1 04	 add	 ecx, 4
  009f5	e8 00 00 00 00	 call	 ?Add@CGMCommand@@QAEXPADHH@Z ; CGMCommand::Add

; 282  : 		this->cCommand.Add("/recvbless", 618, 1);

  009fa	6a 01		 push	 1
  009fc	68 6a 02 00 00	 push	 618			; 0000026aH
  00a01	68 00 00 00 00	 push	 OFFSET ??_C@_0L@PDCLCJBF@?1recvbless?$AA@
  00a06	8b 4d fc	 mov	 ecx, DWORD PTR _this$[ebp]
  00a09	83 c1 04	 add	 ecx, 4
  00a0c	e8 00 00 00 00	 call	 ?Add@CGMCommand@@QAEXPADHH@Z ; CGMCommand::Add

; 283  : 		this->cCommand.Add("/recvsoul", 619, 1);

  00a11	6a 01		 push	 1
  00a13	68 6b 02 00 00	 push	 619			; 0000026bH
  00a18	68 00 00 00 00	 push	 OFFSET ??_C@_09MFBNMBKG@?1recvsoul?$AA@
  00a1d	8b 4d fc	 mov	 ecx, DWORD PTR _this$[ebp]
  00a20	83 c1 04	 add	 ecx, 4
  00a23	e8 00 00 00 00	 call	 ?Add@CGMCommand@@QAEXPADHH@Z ; CGMCommand::Add

; 284  : 	}
; 285  : 	else

  00a28	eb 66		 jmp	 SHORT $LN25@Init@2
$LN27@Init@2:

; 286  : 	{
; 287  : 		this->cCommand.Add(g_ExText.GetText(143), 617, 1);

  00a2a	6a 01		 push	 1
  00a2c	68 69 02 00 00	 push	 617			; 00000269H
  00a31	68 8f 00 00 00	 push	 143			; 0000008fH
  00a36	b9 00 00 00 00	 mov	 ecx, OFFSET ?g_ExText@@3VCExText@@A ; g_ExText
  00a3b	e8 00 00 00 00	 call	 ?GetText@CExText@@QAEPADH@Z ; CExText::GetText
  00a40	50		 push	 eax
  00a41	8b 4d fc	 mov	 ecx, DWORD PTR _this$[ebp]
  00a44	83 c1 04	 add	 ecx, 4
  00a47	e8 00 00 00 00	 call	 ?Add@CGMCommand@@QAEXPADHH@Z ; CGMCommand::Add

; 288  : 		this->cCommand.Add(g_ExText.GetText(144), 618, 1);

  00a4c	6a 01		 push	 1
  00a4e	68 6a 02 00 00	 push	 618			; 0000026aH
  00a53	68 90 00 00 00	 push	 144			; 00000090H
  00a58	b9 00 00 00 00	 mov	 ecx, OFFSET ?g_ExText@@3VCExText@@A ; g_ExText
  00a5d	e8 00 00 00 00	 call	 ?GetText@CExText@@QAEPADH@Z ; CExText::GetText
  00a62	50		 push	 eax
  00a63	8b 4d fc	 mov	 ecx, DWORD PTR _this$[ebp]
  00a66	83 c1 04	 add	 ecx, 4
  00a69	e8 00 00 00 00	 call	 ?Add@CGMCommand@@QAEXPADHH@Z ; CGMCommand::Add

; 289  : 		this->cCommand.Add(g_ExText.GetText(145), 619, 1);

  00a6e	6a 01		 push	 1
  00a70	68 6b 02 00 00	 push	 619			; 0000026bH
  00a75	68 91 00 00 00	 push	 145			; 00000091H
  00a7a	b9 00 00 00 00	 mov	 ecx, OFFSET ?g_ExText@@3VCExText@@A ; g_ExText
  00a7f	e8 00 00 00 00	 call	 ?GetText@CExText@@QAEPADH@Z ; CExText::GetText
  00a84	50		 push	 eax
  00a85	8b 4d fc	 mov	 ecx, DWORD PTR _this$[ebp]
  00a88	83 c1 04	 add	 ecx, 4
  00a8b	e8 00 00 00 00	 call	 ?Add@CGMCommand@@QAEXPADHH@Z ; CGMCommand::Add
$LN25@Init@2:

; 290  : 	}
; 291  : 
; 292  : #ifdef PRIVATE_MODULE
; 293  : 	if(g_ExLicense.CheckUser(eExUB::Vadim))

  00a90	6a 09		 push	 9
  00a92	b9 00 00 00 00	 mov	 ecx, OFFSET ?g_ExLicense@@3VCExLicense@@A ; g_ExLicense
  00a97	e8 00 00 00 00	 call	 ?CheckUser@CExLicense@@QAE_NH@Z ; CExLicense::CheckUser
  00a9c	0f b6 c0	 movzx	 eax, al
  00a9f	85 c0		 test	 eax, eax
  00aa1	74 19		 je	 SHORT $LN24@Init@2

; 294  : 	{
; 295  : 		this->cCommand.Add("/recvjowbank", 620, 1);

  00aa3	6a 01		 push	 1
  00aa5	68 6c 02 00 00	 push	 620			; 0000026cH
  00aaa	68 00 00 00 00	 push	 OFFSET ??_C@_0N@LKMEFKIL@?1recvjowbank?$AA@
  00aaf	8b 4d fc	 mov	 ecx, DWORD PTR _this$[ebp]
  00ab2	83 c1 04	 add	 ecx, 4
  00ab5	e8 00 00 00 00	 call	 ?Add@CGMCommand@@QAEXPADHH@Z ; CGMCommand::Add
  00aba	eb 74		 jmp	 SHORT $LN23@Init@2
$LN24@Init@2:

; 296  : 	}
; 297  : 	else if(g_ExLicense.CheckUser(eExUB::SILVER1) || g_ExLicense.CheckUser(eExUB::SILVER2) || g_ExLicense.CheckUser(eExUB::SILVER_Local))

  00abc	6a 07		 push	 7
  00abe	b9 00 00 00 00	 mov	 ecx, OFFSET ?g_ExLicense@@3VCExLicense@@A ; g_ExLicense
  00ac3	e8 00 00 00 00	 call	 ?CheckUser@CExLicense@@QAE_NH@Z ; CExLicense::CheckUser
  00ac8	0f b6 c0	 movzx	 eax, al
  00acb	85 c0		 test	 eax, eax
  00acd	75 26		 jne	 SHORT $LN21@Init@2
  00acf	6a 08		 push	 8
  00ad1	b9 00 00 00 00	 mov	 ecx, OFFSET ?g_ExLicense@@3VCExLicense@@A ; g_ExLicense
  00ad6	e8 00 00 00 00	 call	 ?CheckUser@CExLicense@@QAE_NH@Z ; CExLicense::CheckUser
  00adb	0f b6 c0	 movzx	 eax, al
  00ade	85 c0		 test	 eax, eax
  00ae0	75 13		 jne	 SHORT $LN21@Init@2
  00ae2	6a 2b		 push	 43			; 0000002bH
  00ae4	b9 00 00 00 00	 mov	 ecx, OFFSET ?g_ExLicense@@3VCExLicense@@A ; g_ExLicense
  00ae9	e8 00 00 00 00	 call	 ?CheckUser@CExLicense@@QAE_NH@Z ; CExLicense::CheckUser
  00aee	0f b6 c0	 movzx	 eax, al
  00af1	85 c0		 test	 eax, eax
  00af3	74 19		 je	 SHORT $LN22@Init@2
$LN21@Init@2:

; 298  : 	{
; 299  : 		this->cCommand.Add("/recvlife", 620, 1);

  00af5	6a 01		 push	 1
  00af7	68 6c 02 00 00	 push	 620			; 0000026cH
  00afc	68 00 00 00 00	 push	 OFFSET ??_C@_09MNGEDIEJ@?1recvlife?$AA@
  00b01	8b 4d fc	 mov	 ecx, DWORD PTR _this$[ebp]
  00b04	83 c1 04	 add	 ecx, 4
  00b07	e8 00 00 00 00	 call	 ?Add@CGMCommand@@QAEXPADHH@Z ; CGMCommand::Add

; 300  : 	}
; 301  : 	else

  00b0c	eb 22		 jmp	 SHORT $LN23@Init@2
$LN22@Init@2:

; 302  : 	{
; 303  : 		this->cCommand.Add(g_ExText.GetText(146), 620, 1);

  00b0e	6a 01		 push	 1
  00b10	68 6c 02 00 00	 push	 620			; 0000026cH
  00b15	68 92 00 00 00	 push	 146			; 00000092H
  00b1a	b9 00 00 00 00	 mov	 ecx, OFFSET ?g_ExText@@3VCExText@@A ; g_ExText
  00b1f	e8 00 00 00 00	 call	 ?GetText@CExText@@QAEPADH@Z ; CExText::GetText
  00b24	50		 push	 eax
  00b25	8b 4d fc	 mov	 ecx, DWORD PTR _this$[ebp]
  00b28	83 c1 04	 add	 ecx, 4
  00b2b	e8 00 00 00 00	 call	 ?Add@CGMCommand@@QAEXPADHH@Z ; CGMCommand::Add
$LN23@Init@2:

; 304  : 	}
; 305  : #else
; 306  : 	this->cCommand.Add("/recvlifebank", 620, 1);
; 307  : #endif
; 308  : 
; 309  : 	this->cCommand.Add("/buy", 621, 1);

  00b30	6a 01		 push	 1
  00b32	68 6d 02 00 00	 push	 621			; 0000026dH
  00b37	68 00 00 00 00	 push	 OFFSET ??_C@_04EHKEOHLL@?1buy?$AA@
  00b3c	8b 4d fc	 mov	 ecx, DWORD PTR _this$[ebp]
  00b3f	83 c1 04	 add	 ecx, 4
  00b42	e8 00 00 00 00	 call	 ?Add@CGMCommand@@QAEXPADHH@Z ; CGMCommand::Add

; 310  : 	this->cCommand.Add("/sellcredit", 622, 1);

  00b47	6a 01		 push	 1
  00b49	68 6e 02 00 00	 push	 622			; 0000026eH
  00b4e	68 00 00 00 00	 push	 OFFSET ??_C@_0M@JGOFGPBN@?1sellcredit?$AA@
  00b53	8b 4d fc	 mov	 ecx, DWORD PTR _this$[ebp]
  00b56	83 c1 04	 add	 ecx, 4
  00b59	e8 00 00 00 00	 call	 ?Add@CGMCommand@@QAEXPADHH@Z ; CGMCommand::Add

; 311  : 	if (g_ExLicense.CheckUser(eExUB::snaker))

  00b5e	6a 1e		 push	 30			; 0000001eH
  00b60	b9 00 00 00 00	 mov	 ecx, OFFSET ?g_ExLicense@@3VCExLicense@@A ; g_ExLicense
  00b65	e8 00 00 00 00	 call	 ?CheckUser@CExLicense@@QAE_NH@Z ; CExLicense::CheckUser
  00b6a	0f b6 c0	 movzx	 eax, al
  00b6d	85 c0		 test	 eax, eax
  00b6f	74 19		 je	 SHORT $LN19@Init@2

; 312  : 	{
; 313  : 		this->cCommand.Add("/寻求组队", 623, 1);

  00b71	6a 01		 push	 1
  00b73	68 6f 02 00 00	 push	 623			; 0000026fH
  00b78	68 00 00 00 00	 push	 OFFSET ??_C@_0O@FIPFODPP@?1?e?$KP?$LL?f?$LB?$IC?g?$LL?$IE?i?$JI?$JP?$AA@
  00b7d	8b 4d fc	 mov	 ecx, DWORD PTR _this$[ebp]
  00b80	83 c1 04	 add	 ecx, 4
  00b83	e8 00 00 00 00	 call	 ?Add@CGMCommand@@QAEXPADHH@Z ; CGMCommand::Add

; 314  : 	}
; 315  : 	else

  00b88	eb 17		 jmp	 SHORT $LN18@Init@2
$LN19@Init@2:

; 316  : 	{
; 317  : 		this->cCommand.Add("/autoparty", 623, 1);

  00b8a	6a 01		 push	 1
  00b8c	68 6f 02 00 00	 push	 623			; 0000026fH
  00b91	68 00 00 00 00	 push	 OFFSET ??_C@_0L@JDKKEGKI@?1autoparty?$AA@
  00b96	8b 4d fc	 mov	 ecx, DWORD PTR _this$[ebp]
  00b99	83 c1 04	 add	 ecx, 4
  00b9c	e8 00 00 00 00	 call	 ?Add@CGMCommand@@QAEXPADHH@Z ; CGMCommand::Add
$LN18@Init@2:

; 318  : 	}
; 319  : 
; 320  : 	this->cCommand.Add("/sendzen", 624, 1);

  00ba1	6a 01		 push	 1
  00ba3	68 70 02 00 00	 push	 624			; 00000270H
  00ba8	68 00 00 00 00	 push	 OFFSET ??_C@_08FAEDODKP@?1sendzen?$AA@
  00bad	8b 4d fc	 mov	 ecx, DWORD PTR _this$[ebp]
  00bb0	83 c1 04	 add	 ecx, 4
  00bb3	e8 00 00 00 00	 call	 ?Add@CGMCommand@@QAEXPADHH@Z ; CGMCommand::Add

; 321  : 	this->cCommand.Add("/recvzen", 625, 1);

  00bb8	6a 01		 push	 1
  00bba	68 71 02 00 00	 push	 625			; 00000271H
  00bbf	68 00 00 00 00	 push	 OFFSET ??_C@_08DKFHDEAN@?1recvzen?$AA@
  00bc4	8b 4d fc	 mov	 ecx, DWORD PTR _this$[ebp]
  00bc7	83 c1 04	 add	 ecx, 4
  00bca	e8 00 00 00 00	 call	 ?Add@CGMCommand@@QAEXPADHH@Z ; CGMCommand::Add

; 322  : 
; 323  : 	this->cCommand.Add("/class", 626, 1);

  00bcf	6a 01		 push	 1
  00bd1	68 72 02 00 00	 push	 626			; 00000272H
  00bd6	68 00 00 00 00	 push	 OFFSET ??_C@_06FIPLOCBG@?1class?$AA@
  00bdb	8b 4d fc	 mov	 ecx, DWORD PTR _this$[ebp]
  00bde	83 c1 04	 add	 ecx, 4
  00be1	e8 00 00 00 00	 call	 ?Add@CGMCommand@@QAEXPADHH@Z ; CGMCommand::Add

; 324  : 	if (g_ExLicense.CheckUser(eExUB::snaker))

  00be6	6a 1e		 push	 30			; 0000001eH
  00be8	b9 00 00 00 00	 mov	 ecx, OFFSET ?g_ExLicense@@3VCExLicense@@A ; g_ExLicense
  00bed	e8 00 00 00 00	 call	 ?CheckUser@CExLicense@@QAE_NH@Z ; CExLicense::CheckUser
  00bf2	0f b6 c0	 movzx	 eax, al
  00bf5	85 c0		 test	 eax, eax
  00bf7	74 19		 je	 SHORT $LN17@Init@2

; 325  : 	{
; 326  : 		this->cCommand.Add("/关闭组队", 627, 1);

  00bf9	6a 01		 push	 1
  00bfb	68 73 02 00 00	 push	 627			; 00000273H
  00c00	68 00 00 00 00	 push	 OFFSET ??_C@_0O@DAIGOBHN@?1?e?$IF?$LD?i?$JH?$KN?g?$LL?$IE?i?$JI?$JP?$AA@
  00c05	8b 4d fc	 mov	 ecx, DWORD PTR _this$[ebp]
  00c08	83 c1 04	 add	 ecx, 4
  00c0b	e8 00 00 00 00	 call	 ?Add@CGMCommand@@QAEXPADHH@Z ; CGMCommand::Add

; 327  : 	}
; 328  : 	else

  00c10	eb 17		 jmp	 SHORT $LN16@Init@2
$LN17@Init@2:

; 329  : 	{
; 330  : 		this->cCommand.Add("/autopartyoff", 627, 1);

  00c12	6a 01		 push	 1
  00c14	68 73 02 00 00	 push	 627			; 00000273H
  00c19	68 00 00 00 00	 push	 OFFSET ??_C@_0O@FLPDDCNI@?1autopartyoff?$AA@
  00c1e	8b 4d fc	 mov	 ecx, DWORD PTR _this$[ebp]
  00c21	83 c1 04	 add	 ecx, 4
  00c24	e8 00 00 00 00	 call	 ?Add@CGMCommand@@QAEXPADHH@Z ; CGMCommand::Add
$LN16@Init@2:

; 331  : 	}
; 332  : 
; 333  : 	this->cCommand.Add("/credit", 628, 1);

  00c29	6a 01		 push	 1
  00c2b	68 74 02 00 00	 push	 628			; 00000274H
  00c30	68 00 00 00 00	 push	 OFFSET ??_C@_07KPPMHOOK@?1credit?$AA@
  00c35	8b 4d fc	 mov	 ecx, DWORD PTR _this$[ebp]
  00c38	83 c1 04	 add	 ecx, 4
  00c3b	e8 00 00 00 00	 call	 ?Add@CGMCommand@@QAEXPADHH@Z ; CGMCommand::Add

; 334  : 	this->cCommand.Add("/goblin-wcoin", 629, 1);

  00c40	6a 01		 push	 1
  00c42	68 75 02 00 00	 push	 629			; 00000275H
  00c47	68 00 00 00 00	 push	 OFFSET ??_C@_0O@NDNCBCHD@?1goblin?9wcoin?$AA@
  00c4c	8b 4d fc	 mov	 ecx, DWORD PTR _this$[ebp]
  00c4f	83 c1 04	 add	 ecx, 4
  00c52	e8 00 00 00 00	 call	 ?Add@CGMCommand@@QAEXPADHH@Z ; CGMCommand::Add

; 335  : 	
; 336  : #ifdef PRIVATE_MODULE
; 337  : #if _CONFLICT_
; 338  : 	if(g_ExLicense.CheckUser(eExUB::Local3) || g_ExLicense.CheckUser(SILVER1) || g_ExLicense.CheckUser(SILVER2))

  00c57	6a 1c		 push	 28			; 0000001cH
  00c59	b9 00 00 00 00	 mov	 ecx, OFFSET ?g_ExLicense@@3VCExLicense@@A ; g_ExLicense
  00c5e	e8 00 00 00 00	 call	 ?CheckUser@CExLicense@@QAE_NH@Z ; CExLicense::CheckUser
  00c63	0f b6 c0	 movzx	 eax, al
  00c66	85 c0		 test	 eax, eax
  00c68	75 26		 jne	 SHORT $LN14@Init@2
  00c6a	6a 07		 push	 7
  00c6c	b9 00 00 00 00	 mov	 ecx, OFFSET ?g_ExLicense@@3VCExLicense@@A ; g_ExLicense
  00c71	e8 00 00 00 00	 call	 ?CheckUser@CExLicense@@QAE_NH@Z ; CExLicense::CheckUser
  00c76	0f b6 c0	 movzx	 eax, al
  00c79	85 c0		 test	 eax, eax
  00c7b	75 13		 jne	 SHORT $LN14@Init@2
  00c7d	6a 08		 push	 8
  00c7f	b9 00 00 00 00	 mov	 ecx, OFFSET ?g_ExLicense@@3VCExLicense@@A ; g_ExLicense
  00c84	e8 00 00 00 00	 call	 ?CheckUser@CExLicense@@QAE_NH@Z ; CExLicense::CheckUser
  00c89	0f b6 c0	 movzx	 eax, al
  00c8c	85 c0		 test	 eax, eax
  00c8e	74 5c		 je	 SHORT $LN15@Init@2
$LN14@Init@2:

; 339  : 	{
; 340  : 		this->cCommand.Add("/exchaos", 630, 1);

  00c90	6a 01		 push	 1
  00c92	68 76 02 00 00	 push	 630			; 00000276H
  00c97	68 00 00 00 00	 push	 OFFSET ??_C@_08OABDOBIG@?1exchaos?$AA@
  00c9c	8b 4d fc	 mov	 ecx, DWORD PTR _this$[ebp]
  00c9f	83 c1 04	 add	 ecx, 4
  00ca2	e8 00 00 00 00	 call	 ?Add@CGMCommand@@QAEXPADHH@Z ; CGMCommand::Add

; 341  : 		this->cCommand.Add("/exbless", 631, 1);

  00ca7	6a 01		 push	 1
  00ca9	68 77 02 00 00	 push	 631			; 00000277H
  00cae	68 00 00 00 00	 push	 OFFSET ??_C@_08EEJBFJKA@?1exbless?$AA@
  00cb3	8b 4d fc	 mov	 ecx, DWORD PTR _this$[ebp]
  00cb6	83 c1 04	 add	 ecx, 4
  00cb9	e8 00 00 00 00	 call	 ?Add@CGMCommand@@QAEXPADHH@Z ; CGMCommand::Add

; 342  : 		this->cCommand.Add("/exsoul", 632, 1);

  00cbe	6a 01		 push	 1
  00cc0	68 78 02 00 00	 push	 632			; 00000278H
  00cc5	68 00 00 00 00	 push	 OFFSET ??_C@_07MCDBEPNI@?1exsoul?$AA@
  00cca	8b 4d fc	 mov	 ecx, DWORD PTR _this$[ebp]
  00ccd	83 c1 04	 add	 ecx, 4
  00cd0	e8 00 00 00 00	 call	 ?Add@CGMCommand@@QAEXPADHH@Z ; CGMCommand::Add

; 343  : 		this->cCommand.Add("/exlife", 633, 1);

  00cd5	6a 01		 push	 1
  00cd7	68 79 02 00 00	 push	 633			; 00000279H
  00cdc	68 00 00 00 00	 push	 OFFSET ??_C@_07MKEILGDH@?1exlife?$AA@
  00ce1	8b 4d fc	 mov	 ecx, DWORD PTR _this$[ebp]
  00ce4	83 c1 04	 add	 ecx, 4
  00ce7	e8 00 00 00 00	 call	 ?Add@CGMCommand@@QAEXPADHH@Z ; CGMCommand::Add
$LN15@Init@2:

; 344  : 	}
; 345  : #endif
; 346  : 
; 347  : 
; 348  : 	if(g_ExLicense.CheckUser(eExUB::PrideMuLocal) || 
; 349  : 		g_ExLicense.CheckUser(eExUB::PrideMu) ||
; 350  : 		g_ExLicense.CheckUser(eExUB::drynea) || 
; 351  : 		g_ExLicense.CheckUser(eExUB::Local3) || 
; 352  : 		g_ExLicense.CheckUser(eExUB::feqan) || 
; 353  : 		g_ExLicense.CheckUser(eExUB::MU2Play) || 
; 354  : 		g_ExLicense.CheckUser(eExUB::bassreflexive) ||
; 355  : 		!g_ExLicense.CheckUser(eExUB::Escalate) ||
; 356  : 		!g_ExLicense.CheckUser(eExUB::eternalmu))

  00cec	6a 1a		 push	 26			; 0000001aH
  00cee	b9 00 00 00 00	 mov	 ecx, OFFSET ?g_ExLicense@@3VCExLicense@@A ; g_ExLicense
  00cf3	e8 00 00 00 00	 call	 ?CheckUser@CExLicense@@QAE_NH@Z ; CExLicense::CheckUser
  00cf8	0f b6 c0	 movzx	 eax, al
  00cfb	85 c0		 test	 eax, eax
  00cfd	0f 85 9c 00 00
	00		 jne	 $LN12@Init@2
  00d03	6a 11		 push	 17			; 00000011H
  00d05	b9 00 00 00 00	 mov	 ecx, OFFSET ?g_ExLicense@@3VCExLicense@@A ; g_ExLicense
  00d0a	e8 00 00 00 00	 call	 ?CheckUser@CExLicense@@QAE_NH@Z ; CExLicense::CheckUser
  00d0f	0f b6 c0	 movzx	 eax, al
  00d12	85 c0		 test	 eax, eax
  00d14	0f 85 85 00 00
	00		 jne	 $LN12@Init@2
  00d1a	6a 01		 push	 1
  00d1c	b9 00 00 00 00	 mov	 ecx, OFFSET ?g_ExLicense@@3VCExLicense@@A ; g_ExLicense
  00d21	e8 00 00 00 00	 call	 ?CheckUser@CExLicense@@QAE_NH@Z ; CExLicense::CheckUser
  00d26	0f b6 c0	 movzx	 eax, al
  00d29	85 c0		 test	 eax, eax
  00d2b	75 72		 jne	 SHORT $LN12@Init@2
  00d2d	6a 1c		 push	 28			; 0000001cH
  00d2f	b9 00 00 00 00	 mov	 ecx, OFFSET ?g_ExLicense@@3VCExLicense@@A ; g_ExLicense
  00d34	e8 00 00 00 00	 call	 ?CheckUser@CExLicense@@QAE_NH@Z ; CExLicense::CheckUser
  00d39	0f b6 c0	 movzx	 eax, al
  00d3c	85 c0		 test	 eax, eax
  00d3e	75 5f		 jne	 SHORT $LN12@Init@2
  00d40	6a 25		 push	 37			; 00000025H
  00d42	b9 00 00 00 00	 mov	 ecx, OFFSET ?g_ExLicense@@3VCExLicense@@A ; g_ExLicense
  00d47	e8 00 00 00 00	 call	 ?CheckUser@CExLicense@@QAE_NH@Z ; CExLicense::CheckUser
  00d4c	0f b6 c0	 movzx	 eax, al
  00d4f	85 c0		 test	 eax, eax
  00d51	75 4c		 jne	 SHORT $LN12@Init@2
  00d53	6a 36		 push	 54			; 00000036H
  00d55	b9 00 00 00 00	 mov	 ecx, OFFSET ?g_ExLicense@@3VCExLicense@@A ; g_ExLicense
  00d5a	e8 00 00 00 00	 call	 ?CheckUser@CExLicense@@QAE_NH@Z ; CExLicense::CheckUser
  00d5f	0f b6 c0	 movzx	 eax, al
  00d62	85 c0		 test	 eax, eax
  00d64	75 39		 jne	 SHORT $LN12@Init@2
  00d66	6a 35		 push	 53			; 00000035H
  00d68	b9 00 00 00 00	 mov	 ecx, OFFSET ?g_ExLicense@@3VCExLicense@@A ; g_ExLicense
  00d6d	e8 00 00 00 00	 call	 ?CheckUser@CExLicense@@QAE_NH@Z ; CExLicense::CheckUser
  00d72	0f b6 c0	 movzx	 eax, al
  00d75	85 c0		 test	 eax, eax
  00d77	75 26		 jne	 SHORT $LN12@Init@2
  00d79	6a 40		 push	 64			; 00000040H
  00d7b	b9 00 00 00 00	 mov	 ecx, OFFSET ?g_ExLicense@@3VCExLicense@@A ; g_ExLicense
  00d80	e8 00 00 00 00	 call	 ?CheckUser@CExLicense@@QAE_NH@Z ; CExLicense::CheckUser
  00d85	0f b6 c0	 movzx	 eax, al
  00d88	85 c0		 test	 eax, eax
  00d8a	74 13		 je	 SHORT $LN12@Init@2
  00d8c	6a 4f		 push	 79			; 0000004fH
  00d8e	b9 00 00 00 00	 mov	 ecx, OFFSET ?g_ExLicense@@3VCExLicense@@A ; g_ExLicense
  00d93	e8 00 00 00 00	 call	 ?CheckUser@CExLicense@@QAE_NH@Z ; CExLicense::CheckUser
  00d98	0f b6 c0	 movzx	 eax, al
  00d9b	85 c0		 test	 eax, eax
  00d9d	75 17		 jne	 SHORT $LN13@Init@2
$LN12@Init@2:

; 357  : 	{
; 358  : 		this->cCommand.Add("/buypremium", 637, 1);

  00d9f	6a 01		 push	 1
  00da1	68 7d 02 00 00	 push	 637			; 0000027dH
  00da6	68 00 00 00 00	 push	 OFFSET ??_C@_0M@IACMBDON@?1buypremium?$AA@
  00dab	8b 4d fc	 mov	 ecx, DWORD PTR _this$[ebp]
  00dae	83 c1 04	 add	 ecx, 4
  00db1	e8 00 00 00 00	 call	 ?Add@CGMCommand@@QAEXPADHH@Z ; CGMCommand::Add
$LN13@Init@2:

; 359  : 	}
; 360  : #ifdef SEND_CREDIT_SILVER
; 361  : 	if(g_ExLicense.CheckUser(eExUB::Local3) || g_ExLicense.CheckUser(SILVER1) || g_ExLicense.CheckUser(SILVER2))

  00db6	6a 1c		 push	 28			; 0000001cH
  00db8	b9 00 00 00 00	 mov	 ecx, OFFSET ?g_ExLicense@@3VCExLicense@@A ; g_ExLicense
  00dbd	e8 00 00 00 00	 call	 ?CheckUser@CExLicense@@QAE_NH@Z ; CExLicense::CheckUser
  00dc2	0f b6 c0	 movzx	 eax, al
  00dc5	85 c0		 test	 eax, eax
  00dc7	75 26		 jne	 SHORT $LN10@Init@2
  00dc9	6a 07		 push	 7
  00dcb	b9 00 00 00 00	 mov	 ecx, OFFSET ?g_ExLicense@@3VCExLicense@@A ; g_ExLicense
  00dd0	e8 00 00 00 00	 call	 ?CheckUser@CExLicense@@QAE_NH@Z ; CExLicense::CheckUser
  00dd5	0f b6 c0	 movzx	 eax, al
  00dd8	85 c0		 test	 eax, eax
  00dda	75 13		 jne	 SHORT $LN10@Init@2
  00ddc	6a 08		 push	 8
  00dde	b9 00 00 00 00	 mov	 ecx, OFFSET ?g_ExLicense@@3VCExLicense@@A ; g_ExLicense
  00de3	e8 00 00 00 00	 call	 ?CheckUser@CExLicense@@QAE_NH@Z ; CExLicense::CheckUser
  00de8	0f b6 c0	 movzx	 eax, al
  00deb	85 c0		 test	 eax, eax
  00ded	74 17		 je	 SHORT $LN11@Init@2
$LN10@Init@2:

; 362  : 	{
; 363  : 		this->cCommand.Add("/sendcredits", 638, 1);

  00def	6a 01		 push	 1
  00df1	68 7e 02 00 00	 push	 638			; 0000027eH
  00df6	68 00 00 00 00	 push	 OFFSET ??_C@_0N@NIKPNBKG@?1sendcredits?$AA@
  00dfb	8b 4d fc	 mov	 ecx, DWORD PTR _this$[ebp]
  00dfe	83 c1 04	 add	 ecx, 4
  00e01	e8 00 00 00 00	 call	 ?Add@CGMCommand@@QAEXPADHH@Z ; CGMCommand::Add
$LN11@Init@2:

; 364  : 	}
; 365  : #endif
; 366  : #ifdef DISCONECT_FRIEND
; 367  : 	if( g_ExLicense.CheckUser(eExUB::Local) || g_ExLicense.CheckUser(ulasevich) || g_ExLicense.CheckUser(ulasevich2) || 
; 368  : 		g_ExLicense.CheckUser(eExUB::Gredy) || g_ExLicense.CheckUser(eExUB::GredyLocal) || g_ExLicense.CheckUser(eExUB::Gredy2) ||
; 369  : 		g_ExLicense.CheckUser(eExUB::MU2Play) || g_ExLicense.CheckUser(eExUB::Sentinel) || g_ExLicense.CheckUser(eExUB::Escalate) || 
; 370  : 		g_ExLicense.CheckUser(eExUB::Artem) || g_ExLicense.CheckUser(eExUB::Artem2) || g_ExLicense.CheckUser(eExUB::RevoMU) || g_ExLicense.CheckUser(eExUB::GloryMU) ||
; 371  : 		g_ExLicense.CheckUser(eExUB::mu4you) || g_ExLicense.CheckUser(eExUB::eternalmu) || g_ExLicense.CheckUser(eExUB::NSGames))

  00e06	6a 00		 push	 0
  00e08	b9 00 00 00 00	 mov	 ecx, OFFSET ?g_ExLicense@@3VCExLicense@@A ; g_ExLicense
  00e0d	e8 00 00 00 00	 call	 ?CheckUser@CExLicense@@QAE_NH@Z ; CExLicense::CheckUser
  00e12	0f b6 c0	 movzx	 eax, al
  00e15	85 c0		 test	 eax, eax
  00e17	0f 85 3d 01 00
	00		 jne	 $LN8@Init@2
  00e1d	6a 17		 push	 23			; 00000017H
  00e1f	b9 00 00 00 00	 mov	 ecx, OFFSET ?g_ExLicense@@3VCExLicense@@A ; g_ExLicense
  00e24	e8 00 00 00 00	 call	 ?CheckUser@CExLicense@@QAE_NH@Z ; CExLicense::CheckUser
  00e29	0f b6 c0	 movzx	 eax, al
  00e2c	85 c0		 test	 eax, eax
  00e2e	0f 85 26 01 00
	00		 jne	 $LN8@Init@2
  00e34	6a 24		 push	 36			; 00000024H
  00e36	b9 00 00 00 00	 mov	 ecx, OFFSET ?g_ExLicense@@3VCExLicense@@A ; g_ExLicense
  00e3b	e8 00 00 00 00	 call	 ?CheckUser@CExLicense@@QAE_NH@Z ; CExLicense::CheckUser
  00e40	0f b6 c0	 movzx	 eax, al
  00e43	85 c0		 test	 eax, eax
  00e45	0f 85 0f 01 00
	00		 jne	 $LN8@Init@2
  00e4b	6a 20		 push	 32			; 00000020H
  00e4d	b9 00 00 00 00	 mov	 ecx, OFFSET ?g_ExLicense@@3VCExLicense@@A ; g_ExLicense
  00e52	e8 00 00 00 00	 call	 ?CheckUser@CExLicense@@QAE_NH@Z ; CExLicense::CheckUser
  00e57	0f b6 c0	 movzx	 eax, al
  00e5a	85 c0		 test	 eax, eax
  00e5c	0f 85 f8 00 00
	00		 jne	 $LN8@Init@2
  00e62	6a 21		 push	 33			; 00000021H
  00e64	b9 00 00 00 00	 mov	 ecx, OFFSET ?g_ExLicense@@3VCExLicense@@A ; g_ExLicense
  00e69	e8 00 00 00 00	 call	 ?CheckUser@CExLicense@@QAE_NH@Z ; CExLicense::CheckUser
  00e6e	0f b6 c0	 movzx	 eax, al
  00e71	85 c0		 test	 eax, eax
  00e73	0f 85 e1 00 00
	00		 jne	 $LN8@Init@2
  00e79	6a 22		 push	 34			; 00000022H
  00e7b	b9 00 00 00 00	 mov	 ecx, OFFSET ?g_ExLicense@@3VCExLicense@@A ; g_ExLicense
  00e80	e8 00 00 00 00	 call	 ?CheckUser@CExLicense@@QAE_NH@Z ; CExLicense::CheckUser
  00e85	0f b6 c0	 movzx	 eax, al
  00e88	85 c0		 test	 eax, eax
  00e8a	0f 85 ca 00 00
	00		 jne	 $LN8@Init@2
  00e90	6a 36		 push	 54			; 00000036H
  00e92	b9 00 00 00 00	 mov	 ecx, OFFSET ?g_ExLicense@@3VCExLicense@@A ; g_ExLicense
  00e97	e8 00 00 00 00	 call	 ?CheckUser@CExLicense@@QAE_NH@Z ; CExLicense::CheckUser
  00e9c	0f b6 c0	 movzx	 eax, al
  00e9f	85 c0		 test	 eax, eax
  00ea1	0f 85 b3 00 00
	00		 jne	 $LN8@Init@2
  00ea7	6a 38		 push	 56			; 00000038H
  00ea9	b9 00 00 00 00	 mov	 ecx, OFFSET ?g_ExLicense@@3VCExLicense@@A ; g_ExLicense
  00eae	e8 00 00 00 00	 call	 ?CheckUser@CExLicense@@QAE_NH@Z ; CExLicense::CheckUser
  00eb3	0f b6 c0	 movzx	 eax, al
  00eb6	85 c0		 test	 eax, eax
  00eb8	0f 85 9c 00 00
	00		 jne	 $LN8@Init@2
  00ebe	6a 40		 push	 64			; 00000040H
  00ec0	b9 00 00 00 00	 mov	 ecx, OFFSET ?g_ExLicense@@3VCExLicense@@A ; g_ExLicense
  00ec5	e8 00 00 00 00	 call	 ?CheckUser@CExLicense@@QAE_NH@Z ; CExLicense::CheckUser
  00eca	0f b6 c0	 movzx	 eax, al
  00ecd	85 c0		 test	 eax, eax
  00ecf	0f 85 85 00 00
	00		 jne	 $LN8@Init@2
  00ed5	6a 30		 push	 48			; 00000030H
  00ed7	b9 00 00 00 00	 mov	 ecx, OFFSET ?g_ExLicense@@3VCExLicense@@A ; g_ExLicense
  00edc	e8 00 00 00 00	 call	 ?CheckUser@CExLicense@@QAE_NH@Z ; CExLicense::CheckUser
  00ee1	0f b6 c0	 movzx	 eax, al
  00ee4	85 c0		 test	 eax, eax
  00ee6	75 72		 jne	 SHORT $LN8@Init@2
  00ee8	6a 31		 push	 49			; 00000031H
  00eea	b9 00 00 00 00	 mov	 ecx, OFFSET ?g_ExLicense@@3VCExLicense@@A ; g_ExLicense
  00eef	e8 00 00 00 00	 call	 ?CheckUser@CExLicense@@QAE_NH@Z ; CExLicense::CheckUser
  00ef4	0f b6 c0	 movzx	 eax, al
  00ef7	85 c0		 test	 eax, eax
  00ef9	75 5f		 jne	 SHORT $LN8@Init@2
  00efb	6a 43		 push	 67			; 00000043H
  00efd	b9 00 00 00 00	 mov	 ecx, OFFSET ?g_ExLicense@@3VCExLicense@@A ; g_ExLicense
  00f02	e8 00 00 00 00	 call	 ?CheckUser@CExLicense@@QAE_NH@Z ; CExLicense::CheckUser
  00f07	0f b6 c0	 movzx	 eax, al
  00f0a	85 c0		 test	 eax, eax
  00f0c	75 4c		 jne	 SHORT $LN8@Init@2
  00f0e	6a 46		 push	 70			; 00000046H
  00f10	b9 00 00 00 00	 mov	 ecx, OFFSET ?g_ExLicense@@3VCExLicense@@A ; g_ExLicense
  00f15	e8 00 00 00 00	 call	 ?CheckUser@CExLicense@@QAE_NH@Z ; CExLicense::CheckUser
  00f1a	0f b6 c0	 movzx	 eax, al
  00f1d	85 c0		 test	 eax, eax
  00f1f	75 39		 jne	 SHORT $LN8@Init@2
  00f21	6a 4e		 push	 78			; 0000004eH
  00f23	b9 00 00 00 00	 mov	 ecx, OFFSET ?g_ExLicense@@3VCExLicense@@A ; g_ExLicense
  00f28	e8 00 00 00 00	 call	 ?CheckUser@CExLicense@@QAE_NH@Z ; CExLicense::CheckUser
  00f2d	0f b6 c0	 movzx	 eax, al
  00f30	85 c0		 test	 eax, eax
  00f32	75 26		 jne	 SHORT $LN8@Init@2
  00f34	6a 4f		 push	 79			; 0000004fH
  00f36	b9 00 00 00 00	 mov	 ecx, OFFSET ?g_ExLicense@@3VCExLicense@@A ; g_ExLicense
  00f3b	e8 00 00 00 00	 call	 ?CheckUser@CExLicense@@QAE_NH@Z ; CExLicense::CheckUser
  00f40	0f b6 c0	 movzx	 eax, al
  00f43	85 c0		 test	 eax, eax
  00f45	75 13		 jne	 SHORT $LN8@Init@2
  00f47	6a 51		 push	 81			; 00000051H
  00f49	b9 00 00 00 00	 mov	 ecx, OFFSET ?g_ExLicense@@3VCExLicense@@A ; g_ExLicense
  00f4e	e8 00 00 00 00	 call	 ?CheckUser@CExLicense@@QAE_NH@Z ; CExLicense::CheckUser
  00f53	0f b6 c0	 movzx	 eax, al
  00f56	85 c0		 test	 eax, eax
  00f58	74 17		 je	 SHORT $LN9@Init@2
$LN8@Init@2:

; 372  : 	{
; 373  : 		this->cCommand.Add("/dcfriend", 639, 1);

  00f5a	6a 01		 push	 1
  00f5c	68 7f 02 00 00	 push	 639			; 0000027fH
  00f61	68 00 00 00 00	 push	 OFFSET ??_C@_09IIEGDHLF@?1dcfriend?$AA@
  00f66	8b 4d fc	 mov	 ecx, DWORD PTR _this$[ebp]
  00f69	83 c1 04	 add	 ecx, 4
  00f6c	e8 00 00 00 00	 call	 ?Add@CGMCommand@@QAEXPADHH@Z ; CGMCommand::Add
$LN9@Init@2:

; 374  : 	}
; 375  : 
; 376  : 	
; 377  : 
; 378  : #endif // DISCONECT_FRIEND
; 379  : 
; 380  : 
; 381  : #endif
; 382  : 
; 383  : #if(SYSTEMOF_BROTHER==TRUE)
; 384  : 	this->cCommand.Add("/brteleport", 640, 1);

  00f71	6a 01		 push	 1
  00f73	68 80 02 00 00	 push	 640			; 00000280H
  00f78	68 00 00 00 00	 push	 OFFSET ??_C@_0M@LDFBIEGN@?1brteleport?$AA@
  00f7d	8b 4d fc	 mov	 ecx, DWORD PTR _this$[ebp]
  00f80	83 c1 04	 add	 ecx, 4
  00f83	e8 00 00 00 00	 call	 ?Add@CGMCommand@@QAEXPADHH@Z ; CGMCommand::Add

; 385  : 	this->cCommand.Add("/brstart", 641, 1);

  00f88	6a 01		 push	 1
  00f8a	68 81 02 00 00	 push	 641			; 00000281H
  00f8f	68 00 00 00 00	 push	 OFFSET ??_C@_08LDNPGJCN@?1brstart?$AA@
  00f94	8b 4d fc	 mov	 ecx, DWORD PTR _this$[ebp]
  00f97	83 c1 04	 add	 ecx, 4
  00f9a	e8 00 00 00 00	 call	 ?Add@CGMCommand@@QAEXPADHH@Z ; CGMCommand::Add

; 386  : 	this->cCommand.Add("/brexit", 642, 1);

  00f9f	6a 01		 push	 1
  00fa1	68 82 02 00 00	 push	 642			; 00000282H
  00fa6	68 00 00 00 00	 push	 OFFSET ??_C@_07BDEEJNHJ@?1brexit?$AA@
  00fab	8b 4d fc	 mov	 ecx, DWORD PTR _this$[ebp]
  00fae	83 c1 04	 add	 ecx, 4
  00fb1	e8 00 00 00 00	 call	 ?Add@CGMCommand@@QAEXPADHH@Z ; CGMCommand::Add

; 387  : #endif
; 388  : 
; 389  : 	this->cCommand.Add("/sendwcoinc", 643, 1);

  00fb6	6a 01		 push	 1
  00fb8	68 83 02 00 00	 push	 643			; 00000283H
  00fbd	68 00 00 00 00	 push	 OFFSET ??_C@_0M@IIPLGHKC@?1sendwcoinc?$AA@
  00fc2	8b 4d fc	 mov	 ecx, DWORD PTR _this$[ebp]
  00fc5	83 c1 04	 add	 ecx, 4
  00fc8	e8 00 00 00 00	 call	 ?Add@CGMCommand@@QAEXPADHH@Z ; CGMCommand::Add

; 390  : 	this->cCommand.Add("/sendwcoinp", 644, 1);

  00fcd	6a 01		 push	 1
  00fcf	68 84 02 00 00	 push	 644			; 00000284H
  00fd4	68 00 00 00 00	 push	 OFFSET ??_C@_0M@OJBECGDA@?1sendwcoinp?$AA@
  00fd9	8b 4d fc	 mov	 ecx, DWORD PTR _this$[ebp]
  00fdc	83 c1 04	 add	 ecx, 4
  00fdf	e8 00 00 00 00	 call	 ?Add@CGMCommand@@QAEXPADHH@Z ; CGMCommand::Add

; 391  : 	this->cCommand.Add("/sendgoblin", 645, 1);

  00fe4	6a 01		 push	 1
  00fe6	68 85 02 00 00	 push	 645			; 00000285H
  00feb	68 00 00 00 00	 push	 OFFSET ??_C@_0M@OHEIGHFM@?1sendgoblin?$AA@
  00ff0	8b 4d fc	 mov	 ecx, DWORD PTR _this$[ebp]
  00ff3	83 c1 04	 add	 ecx, 4
  00ff6	e8 00 00 00 00	 call	 ?Add@CGMCommand@@QAEXPADHH@Z ; CGMCommand::Add

; 392  : 
; 393  : 	this->cCommand.Add("/inventoryclear", 404, 1);

  00ffb	6a 01		 push	 1
  00ffd	68 94 01 00 00	 push	 404			; 00000194H
  01002	68 00 00 00 00	 push	 OFFSET ??_C@_0BA@DAGCBHNP@?1inventoryclear?$AA@
  01007	8b 4d fc	 mov	 ecx, DWORD PTR _this$[ebp]
  0100a	83 c1 04	 add	 ecx, 4
  0100d	e8 00 00 00 00	 call	 ?Add@CGMCommand@@QAEXPADHH@Z ; CGMCommand::Add

; 394  : #if(SYSTEMOF_BROTHER==TRUE)
; 395  : 	this->cCommand.Add("/brnew", 646, 1);

  01012	6a 01		 push	 1
  01014	68 86 02 00 00	 push	 646			; 00000286H
  01019	68 00 00 00 00	 push	 OFFSET ??_C@_06GINDBCMA@?1brnew?$AA@
  0101e	8b 4d fc	 mov	 ecx, DWORD PTR _this$[ebp]
  01021	83 c1 04	 add	 ecx, 4
  01024	e8 00 00 00 00	 call	 ?Add@CGMCommand@@QAEXPADHH@Z ; CGMCommand::Add

; 396  : #endif
; 397  : 
; 398  : 	this->cCommand.Add("/bminfo", 647, 1);

  01029	6a 01		 push	 1
  0102b	68 87 02 00 00	 push	 647			; 00000287H
  01030	68 00 00 00 00	 push	 OFFSET ??_C@_07PDCMEENC@?1bminfo?$AA@
  01035	8b 4d fc	 mov	 ecx, DWORD PTR _this$[ebp]
  01038	83 c1 04	 add	 ecx, 4
  0103b	e8 00 00 00 00	 call	 ?Add@CGMCommand@@QAEXPADHH@Z ; CGMCommand::Add

; 399  : #if(CMD_DC_ALL)
; 400  : 	this->cCommand.Add("/dcall", 648, 1);

  01040	6a 01		 push	 1
  01042	68 88 02 00 00	 push	 648			; 00000288H
  01047	68 00 00 00 00	 push	 OFFSET ??_C@_06BNIOKPKM@?1dcall?$AA@
  0104c	8b 4d fc	 mov	 ecx, DWORD PTR _this$[ebp]
  0104f	83 c1 04	 add	 ecx, 4
  01052	e8 00 00 00 00	 call	 ?Add@CGMCommand@@QAEXPADHH@Z ; CGMCommand::Add

; 401  : #endif
; 402  : 
; 403  : #if(CUSTOM_MARRIAGE)
; 404  : 	this->cCommand.Add("/marriageoff", 649, 1);

  01057	6a 01		 push	 1
  01059	68 89 02 00 00	 push	 649			; 00000289H
  0105e	68 00 00 00 00	 push	 OFFSET ??_C@_0N@NFDFBKKN@?1marriageoff?$AA@
  01063	8b 4d fc	 mov	 ecx, DWORD PTR _this$[ebp]
  01066	83 c1 04	 add	 ecx, 4
  01069	e8 00 00 00 00	 call	 ?Add@CGMCommand@@QAEXPADHH@Z ; CGMCommand::Add

; 405  : #endif
; 406  : 	if(g_ExLicense.CheckUser(eExUB::SILVER1) || g_ExLicense.CheckUser(eExUB::SILVER2) || g_ExLicense.CheckUser(eExUB::SILVER_Local))

  0106e	6a 07		 push	 7
  01070	b9 00 00 00 00	 mov	 ecx, OFFSET ?g_ExLicense@@3VCExLicense@@A ; g_ExLicense
  01075	e8 00 00 00 00	 call	 ?CheckUser@CExLicense@@QAE_NH@Z ; CExLicense::CheckUser
  0107a	0f b6 c0	 movzx	 eax, al
  0107d	85 c0		 test	 eax, eax
  0107f	75 26		 jne	 SHORT $LN6@Init@2
  01081	6a 08		 push	 8
  01083	b9 00 00 00 00	 mov	 ecx, OFFSET ?g_ExLicense@@3VCExLicense@@A ; g_ExLicense
  01088	e8 00 00 00 00	 call	 ?CheckUser@CExLicense@@QAE_NH@Z ; CExLicense::CheckUser
  0108d	0f b6 c0	 movzx	 eax, al
  01090	85 c0		 test	 eax, eax
  01092	75 13		 jne	 SHORT $LN6@Init@2
  01094	6a 2b		 push	 43			; 0000002bH
  01096	b9 00 00 00 00	 mov	 ecx, OFFSET ?g_ExLicense@@3VCExLicense@@A ; g_ExLicense
  0109b	e8 00 00 00 00	 call	 ?CheckUser@CExLicense@@QAE_NH@Z ; CExLicense::CheckUser
  010a0	0f b6 c0	 movzx	 eax, al
  010a3	85 c0		 test	 eax, eax
  010a5	74 30		 je	 SHORT $LN7@Init@2
$LN6@Init@2:

; 407  : 	{
; 408  : 		this->cCommand.Add("/sendcreateon", 650, 1);

  010a7	6a 01		 push	 1
  010a9	68 8a 02 00 00	 push	 650			; 0000028aH
  010ae	68 00 00 00 00	 push	 OFFSET ??_C@_0O@PBDHEHEL@?1sendcreateon?$AA@
  010b3	8b 4d fc	 mov	 ecx, DWORD PTR _this$[ebp]
  010b6	83 c1 04	 add	 ecx, 4
  010b9	e8 00 00 00 00	 call	 ?Add@CGMCommand@@QAEXPADHH@Z ; CGMCommand::Add

; 409  : 		this->cCommand.Add("/recvcreateon", 651, 1);

  010be	6a 01		 push	 1
  010c0	68 8b 02 00 00	 push	 651			; 0000028bH
  010c5	68 00 00 00 00	 push	 OFFSET ??_C@_0O@MEGOICBM@?1recvcreateon?$AA@
  010ca	8b 4d fc	 mov	 ecx, DWORD PTR _this$[ebp]
  010cd	83 c1 04	 add	 ecx, 4
  010d0	e8 00 00 00 00	 call	 ?Add@CGMCommand@@QAEXPADHH@Z ; CGMCommand::Add
  010d5	eb 67		 jmp	 SHORT $LN5@Init@2
$LN7@Init@2:

; 410  : 	}
; 411  : 	else if(g_ExLicense.CheckUser(eExUB::Gredy) || g_ExLicense.CheckUser(eExUB::GredyLocal) || g_ExLicense.CheckUser(eExUB::Gredy2))

  010d7	6a 20		 push	 32			; 00000020H
  010d9	b9 00 00 00 00	 mov	 ecx, OFFSET ?g_ExLicense@@3VCExLicense@@A ; g_ExLicense
  010de	e8 00 00 00 00	 call	 ?CheckUser@CExLicense@@QAE_NH@Z ; CExLicense::CheckUser
  010e3	0f b6 c0	 movzx	 eax, al
  010e6	85 c0		 test	 eax, eax
  010e8	75 26		 jne	 SHORT $LN3@Init@2
  010ea	6a 21		 push	 33			; 00000021H
  010ec	b9 00 00 00 00	 mov	 ecx, OFFSET ?g_ExLicense@@3VCExLicense@@A ; g_ExLicense
  010f1	e8 00 00 00 00	 call	 ?CheckUser@CExLicense@@QAE_NH@Z ; CExLicense::CheckUser
  010f6	0f b6 c0	 movzx	 eax, al
  010f9	85 c0		 test	 eax, eax
  010fb	75 13		 jne	 SHORT $LN3@Init@2
  010fd	6a 22		 push	 34			; 00000022H
  010ff	b9 00 00 00 00	 mov	 ecx, OFFSET ?g_ExLicense@@3VCExLicense@@A ; g_ExLicense
  01104	e8 00 00 00 00	 call	 ?CheckUser@CExLicense@@QAE_NH@Z ; CExLicense::CheckUser
  01109	0f b6 c0	 movzx	 eax, al
  0110c	85 c0		 test	 eax, eax
  0110e	74 2e		 je	 SHORT $LN5@Init@2
$LN3@Init@2:

; 412  : 	{
; 413  : 		this->cCommand.Add("/sendcreation", 650, 1);

  01110	6a 01		 push	 1
  01112	68 8a 02 00 00	 push	 650			; 0000028aH
  01117	68 00 00 00 00	 push	 OFFSET ??_C@_0O@LLOBPIPD@?1sendcreation?$AA@
  0111c	8b 4d fc	 mov	 ecx, DWORD PTR _this$[ebp]
  0111f	83 c1 04	 add	 ecx, 4
  01122	e8 00 00 00 00	 call	 ?Add@CGMCommand@@QAEXPADHH@Z ; CGMCommand::Add

; 414  : 		this->cCommand.Add("/recvcreation", 651, 1);

  01127	6a 01		 push	 1
  01129	68 8b 02 00 00	 push	 651			; 0000028bH
  0112e	68 00 00 00 00	 push	 OFFSET ??_C@_0O@IOLIDNKE@?1recvcreation?$AA@
  01133	8b 4d fc	 mov	 ecx, DWORD PTR _this$[ebp]
  01136	83 c1 04	 add	 ecx, 4
  01139	e8 00 00 00 00	 call	 ?Add@CGMCommand@@QAEXPADHH@Z ; CGMCommand::Add
$LN5@Init@2:

; 415  : 	}
; 416  : 	this->cCommand.Add("/excreateon", 652, 1);

  0113e	6a 01		 push	 1
  01140	68 8c 02 00 00	 push	 652			; 0000028cH
  01145	68 00 00 00 00	 push	 OFFSET ??_C@_0M@DHAJNDE@?1excreateon?$AA@
  0114a	8b 4d fc	 mov	 ecx, DWORD PTR _this$[ebp]
  0114d	83 c1 04	 add	 ecx, 4
  01150	e8 00 00 00 00	 call	 ?Add@CGMCommand@@QAEXPADHH@Z ; CGMCommand::Add

; 417  : 
; 418  : 	if(g_ExLicense.CheckUser(eExUB::Gredy) || g_ExLicense.CheckUser(eExUB::Gredy2) || g_ExLicense.CheckUser(eExUB::GredyLocal))

  01155	6a 20		 push	 32			; 00000020H
  01157	b9 00 00 00 00	 mov	 ecx, OFFSET ?g_ExLicense@@3VCExLicense@@A ; g_ExLicense
  0115c	e8 00 00 00 00	 call	 ?CheckUser@CExLicense@@QAE_NH@Z ; CExLicense::CheckUser
  01161	0f b6 c0	 movzx	 eax, al
  01164	85 c0		 test	 eax, eax
  01166	75 26		 jne	 SHORT $LN1@Init@2
  01168	6a 22		 push	 34			; 00000022H
  0116a	b9 00 00 00 00	 mov	 ecx, OFFSET ?g_ExLicense@@3VCExLicense@@A ; g_ExLicense
  0116f	e8 00 00 00 00	 call	 ?CheckUser@CExLicense@@QAE_NH@Z ; CExLicense::CheckUser
  01174	0f b6 c0	 movzx	 eax, al
  01177	85 c0		 test	 eax, eax
  01179	75 13		 jne	 SHORT $LN1@Init@2
  0117b	6a 21		 push	 33			; 00000021H
  0117d	b9 00 00 00 00	 mov	 ecx, OFFSET ?g_ExLicense@@3VCExLicense@@A ; g_ExLicense
  01182	e8 00 00 00 00	 call	 ?CheckUser@CExLicense@@QAE_NH@Z ; CExLicense::CheckUser
  01187	0f b6 c0	 movzx	 eax, al
  0118a	85 c0		 test	 eax, eax
  0118c	74 2e		 je	 SHORT $LN2@Init@2
$LN1@Init@2:

; 419  : 	{
; 420  : 		this->cCommand.Add("/autoptoff", 653, 1);

  0118e	6a 01		 push	 1
  01190	68 8d 02 00 00	 push	 653			; 0000028dH
  01195	68 00 00 00 00	 push	 OFFSET ??_C@_0L@ELCBKIJI@?1autoptoff?$AA@
  0119a	8b 4d fc	 mov	 ecx, DWORD PTR _this$[ebp]
  0119d	83 c1 04	 add	 ecx, 4
  011a0	e8 00 00 00 00	 call	 ?Add@CGMCommand@@QAEXPADHH@Z ; CGMCommand::Add

; 421  : 		this->cCommand.Add("/autopton", 654, 1);

  011a5	6a 01		 push	 1
  011a7	68 8e 02 00 00	 push	 654			; 0000028eH
  011ac	68 00 00 00 00	 push	 OFFSET ??_C@_09EJHEJBEA@?1autopton?$AA@
  011b1	8b 4d fc	 mov	 ecx, DWORD PTR _this$[ebp]
  011b4	83 c1 04	 add	 ecx, 4
  011b7	e8 00 00 00 00	 call	 ?Add@CGMCommand@@QAEXPADHH@Z ; CGMCommand::Add
$LN2@Init@2:

; 422  : 	}
; 423  : #if(DONATE_SHOP==TRUE)
; 424  : 	this->cCommand.Add("/donate", 655, 1);

  011bc	6a 01		 push	 1
  011be	68 8f 02 00 00	 push	 655			; 0000028fH
  011c3	68 00 00 00 00	 push	 OFFSET ??_C@_07NCDKIDDB@?1donate?$AA@
  011c8	8b 4d fc	 mov	 ecx, DWORD PTR _this$[ebp]
  011cb	83 c1 04	 add	 ecx, 4
  011ce	e8 00 00 00 00	 call	 ?Add@CGMCommand@@QAEXPADHH@Z ; CGMCommand::Add

; 425  : #endif
; 426  : #if(EVENT_DUNGEON_SIEGE)
; 427  : 	this->cCommand.Add("/dungeonstart", 656, 1);

  011d3	6a 01		 push	 1
  011d5	68 90 02 00 00	 push	 656			; 00000290H
  011da	68 00 00 00 00	 push	 OFFSET ??_C@_0O@CMGAEGID@?1dungeonstart?$AA@
  011df	8b 4d fc	 mov	 ecx, DWORD PTR _this$[ebp]
  011e2	83 c1 04	 add	 ecx, 4
  011e5	e8 00 00 00 00	 call	 ?Add@CGMCommand@@QAEXPADHH@Z ; CGMCommand::Add

; 428  : #endif
; 429  : 	this->cCommand.Add("/debug", 657, 1);

  011ea	6a 01		 push	 1
  011ec	68 91 02 00 00	 push	 657			; 00000291H
  011f1	68 00 00 00 00	 push	 OFFSET ??_C@_06HAHILENG@?1debug?$AA@
  011f6	8b 4d fc	 mov	 ecx, DWORD PTR _this$[ebp]
  011f9	83 c1 04	 add	 ecx, 4
  011fc	e8 00 00 00 00	 call	 ?Add@CGMCommand@@QAEXPADHH@Z ; CGMCommand::Add

; 430  : 	//this->cCommand.Add("/加力量", 657, 1);
; 431  : 	
; 432  : 
; 433  : #if(CMD_ANTI_CHEAT_HDD)
; 434  : 	this->cCommand.Add("/hdd", 658, 1);

  01201	6a 01		 push	 1
  01203	68 92 02 00 00	 push	 658			; 00000292H
  01208	68 00 00 00 00	 push	 OFFSET ??_C@_04MKJBKCIE@?1hdd?$AA@
  0120d	8b 4d fc	 mov	 ecx, DWORD PTR _this$[ebp]
  01210	83 c1 04	 add	 ecx, 4
  01213	e8 00 00 00 00	 call	 ?Add@CGMCommand@@QAEXPADHH@Z ; CGMCommand::Add

; 435  : #endif
; 436  : #if(COMMAND_DROP)
; 437  : 	this->cCommand.Add("/item", 659, 1);

  01218	6a 01		 push	 1
  0121a	68 93 02 00 00	 push	 659			; 00000293H
  0121f	68 00 00 00 00	 push	 OFFSET ??_C@_05FGPHNHGJ@?1item?$AA@
  01224	8b 4d fc	 mov	 ecx, DWORD PTR _this$[ebp]
  01227	83 c1 04	 add	 ecx, 4
  0122a	e8 00 00 00 00	 call	 ?Add@CGMCommand@@QAEXPADHH@Z ; CGMCommand::Add

; 438  : #endif
; 439  : 
; 440  : 	this->cCommand.Add("/vipbronze", 660, 1);

  0122f	6a 01		 push	 1
  01231	68 94 02 00 00	 push	 660			; 00000294H
  01236	68 00 00 00 00	 push	 OFFSET ??_C@_0L@PNGPIFHM@?1vipbronze?$AA@
  0123b	8b 4d fc	 mov	 ecx, DWORD PTR _this$[ebp]
  0123e	83 c1 04	 add	 ecx, 4
  01241	e8 00 00 00 00	 call	 ?Add@CGMCommand@@QAEXPADHH@Z ; CGMCommand::Add

; 441  : 	this->cCommand.Add("/vipsilver", 661, 1);

  01246	6a 01		 push	 1
  01248	68 95 02 00 00	 push	 661			; 00000295H
  0124d	68 00 00 00 00	 push	 OFFSET ??_C@_0L@JFCDIFCF@?1vipsilver?$AA@
  01252	8b 4d fc	 mov	 ecx, DWORD PTR _this$[ebp]
  01255	83 c1 04	 add	 ecx, 4
  01258	e8 00 00 00 00	 call	 ?Add@CGMCommand@@QAEXPADHH@Z ; CGMCommand::Add

; 442  : 	this->cCommand.Add("/vipgold", 662, 1);

  0125d	6a 01		 push	 1
  0125f	68 96 02 00 00	 push	 662			; 00000296H
  01264	68 00 00 00 00	 push	 OFFSET ??_C@_08DDIGOKCM@?1vipgold?$AA@
  01269	8b 4d fc	 mov	 ecx, DWORD PTR _this$[ebp]
  0126c	83 c1 04	 add	 ecx, 4
  0126f	e8 00 00 00 00	 call	 ?Add@CGMCommand@@QAEXPADHH@Z ; CGMCommand::Add

; 443  : 
; 444  : 	this->cCommand.Add("/value", 663, 1);

  01274	6a 01		 push	 1
  01276	68 97 02 00 00	 push	 663			; 00000297H
  0127b	68 00 00 00 00	 push	 OFFSET ??_C@_06BJAPKEDH@?1value?$AA@
  01280	8b 4d fc	 mov	 ecx, DWORD PTR _this$[ebp]
  01283	83 c1 04	 add	 ecx, 4
  01286	e8 00 00 00 00	 call	 ?Add@CGMCommand@@QAEXPADHH@Z ; CGMCommand::Add

; 445  : 
; 446  : #if(DEV_BANSYSTEM)
; 447  : 	this->cCommand.Add("/banhddchat", 664, 1);

  0128b	6a 01		 push	 1
  0128d	68 98 02 00 00	 push	 664			; 00000298H
  01292	68 00 00 00 00	 push	 OFFSET ??_C@_0M@IBGHDGLI@?1banhddchat?$AA@
  01297	8b 4d fc	 mov	 ecx, DWORD PTR _this$[ebp]
  0129a	83 c1 04	 add	 ecx, 4
  0129d	e8 00 00 00 00	 call	 ?Add@CGMCommand@@QAEXPADHH@Z ; CGMCommand::Add

; 448  : 	this->cCommand.Add("/unbanhddchat", 665, 1);

  012a2	6a 01		 push	 1
  012a4	68 99 02 00 00	 push	 665			; 00000299H
  012a9	68 00 00 00 00	 push	 OFFSET ??_C@_0O@LMOEHBDG@?1unbanhddchat?$AA@
  012ae	8b 4d fc	 mov	 ecx, DWORD PTR _this$[ebp]
  012b1	83 c1 04	 add	 ecx, 4
  012b4	e8 00 00 00 00	 call	 ?Add@CGMCommand@@QAEXPADHH@Z ; CGMCommand::Add

; 449  : 	this->cCommand.Add("/banhddchar", 666, 1);

  012b9	6a 01		 push	 1
  012bb	68 9a 02 00 00	 push	 666			; 0000029aH
  012c0	68 00 00 00 00	 push	 OFFSET ??_C@_0M@NHDNJBDO@?1banhddchar?$AA@
  012c5	8b 4d fc	 mov	 ecx, DWORD PTR _this$[ebp]
  012c8	83 c1 04	 add	 ecx, 4
  012cb	e8 00 00 00 00	 call	 ?Add@CGMCommand@@QAEXPADHH@Z ; CGMCommand::Add

; 450  : 	this->cCommand.Add("/unbanhddchar", 667, 1);

  012d0	6a 01		 push	 1
  012d2	68 9b 02 00 00	 push	 667			; 0000029bH
  012d7	68 00 00 00 00	 push	 OFFSET ??_C@_0O@OKLONGLA@?1unbanhddchar?$AA@
  012dc	8b 4d fc	 mov	 ecx, DWORD PTR _this$[ebp]
  012df	83 c1 04	 add	 ecx, 4
  012e2	e8 00 00 00 00	 call	 ?Add@CGMCommand@@QAEXPADHH@Z ; CGMCommand::Add

; 451  : #endif
; 452  : 
; 453  : 	this->cCommand.Add("/exguardian", 668, 1);

  012e7	6a 01		 push	 1
  012e9	68 9c 02 00 00	 push	 668			; 0000029cH
  012ee	68 00 00 00 00	 push	 OFFSET ??_C@_0M@FPMJEDH@?1exguardian?$AA@
  012f3	8b 4d fc	 mov	 ecx, DWORD PTR _this$[ebp]
  012f6	83 c1 04	 add	 ecx, 4
  012f9	e8 00 00 00 00	 call	 ?Add@CGMCommand@@QAEXPADHH@Z ; CGMCommand::Add

; 454  : 	this->cCommand.Add("/exharmony", 669, 1);

  012fe	6a 01		 push	 1
  01300	68 9d 02 00 00	 push	 669			; 0000029dH
  01305	68 00 00 00 00	 push	 OFFSET ??_C@_0L@CLNPLLFC@?1exharmony?$AA@
  0130a	8b 4d fc	 mov	 ecx, DWORD PTR _this$[ebp]
  0130d	83 c1 04	 add	 ecx, 4
  01310	e8 00 00 00 00	 call	 ?Add@CGMCommand@@QAEXPADHH@Z ; CGMCommand::Add

; 455  : 	this->cCommand.Add("/exlowstone", 670, 1);

  01315	6a 01		 push	 1
  01317	68 9e 02 00 00	 push	 670			; 0000029eH
  0131c	68 00 00 00 00	 push	 OFFSET ??_C@_0M@IKDALPA@?1exlowstone?$AA@
  01321	8b 4d fc	 mov	 ecx, DWORD PTR _this$[ebp]
  01324	83 c1 04	 add	 ecx, 4
  01327	e8 00 00 00 00	 call	 ?Add@CGMCommand@@QAEXPADHH@Z ; CGMCommand::Add

; 456  : 	this->cCommand.Add("/exhighstone", 671, 1);

  0132c	6a 01		 push	 1
  0132e	68 9f 02 00 00	 push	 671			; 0000029fH
  01333	68 00 00 00 00	 push	 OFFSET ??_C@_0N@HIHAPALF@?1exhighstone?$AA@
  01338	8b 4d fc	 mov	 ecx, DWORD PTR _this$[ebp]
  0133b	83 c1 04	 add	 ecx, 4
  0133e	e8 00 00 00 00	 call	 ?Add@CGMCommand@@QAEXPADHH@Z ; CGMCommand::Add

; 457  : 	this->cCommand.Add("/exgemstone", 672, 1);

  01343	6a 01		 push	 1
  01345	68 a0 02 00 00	 push	 672			; 000002a0H
  0134a	68 00 00 00 00	 push	 OFFSET ??_C@_0M@NIJIEKGF@?1exgemstone?$AA@
  0134f	8b 4d fc	 mov	 ecx, DWORD PTR _this$[ebp]
  01352	83 c1 04	 add	 ecx, 4
  01355	e8 00 00 00 00	 call	 ?Add@CGMCommand@@QAEXPADHH@Z ; CGMCommand::Add

; 458  : 
; 459  : 	this->cCommand.Add("/devcmd", 690, 1);

  0135a	6a 01		 push	 1
  0135c	68 b2 02 00 00	 push	 690			; 000002b2H
  01361	68 00 00 00 00	 push	 OFFSET ??_C@_07IDNEBNCB@?1devcmd?$AA@
  01366	8b 4d fc	 mov	 ecx, DWORD PTR _this$[ebp]
  01369	83 c1 04	 add	 ecx, 4
  0136c	e8 00 00 00 00	 call	 ?Add@CGMCommand@@QAEXPADHH@Z ; CGMCommand::Add

; 460  : 
; 461  : 
; 462  : 	this->WatchTargetIndex = -1;

  01371	8b 45 fc	 mov	 eax, DWORD PTR _this$[ebp]
  01374	c7 80 e4 4c 00
	00 ff ff ff ff	 mov	 DWORD PTR [eax+19684], -1

; 463  : }

  0137e	5f		 pop	 edi
  0137f	5e		 pop	 esi
  01380	5b		 pop	 ebx
  01381	8b e5		 mov	 esp, ebp
  01383	5d		 pop	 ebp
  01384	c3		 ret	 0
?Init@CGMMng@@QAEXXZ ENDP				; CGMMng::Init
_TEXT	ENDS
EXTRN	_strcpy:PROC
; Function compile flags: /Odtp /ZI /ZX
; File d:\projects\exteam6.3\source\gameserver\gameserver\gmmng.h
;	COMDAT ?Add@CGMCommand@@QAEXPADHH@Z
_TEXT	SEGMENT
_this$ = -4						; size = 4
_command_str$ = 8					; size = 4
_command_code$ = 12					; size = 4
_gamemaster_code$ = 16					; size = 4
?Add@CGMCommand@@QAEXPADHH@Z PROC			; CGMCommand::Add, COMDAT
; _this$ = ecx

; 47   : 	{

  00000	55		 push	 ebp
  00001	8b ec		 mov	 ebp, esp
  00003	83 ec 44	 sub	 esp, 68			; 00000044H
  00006	53		 push	 ebx
  00007	56		 push	 esi
  00008	57		 push	 edi
  00009	89 4d fc	 mov	 DWORD PTR _this$[ebp], ecx

; 48   : 		strcpy(this->szCmd[this->count], command_str);

  0000c	8b 45 08	 mov	 eax, DWORD PTR _command_str$[ebp]
  0000f	50		 push	 eax
  00010	8b 4d fc	 mov	 ecx, DWORD PTR _this$[ebp]
  00013	8b 91 90 4c 00
	00		 mov	 edx, DWORD PTR [ecx+19600]
  00019	6b d2 14	 imul	 edx, 20			; 00000014H
  0001c	03 55 fc	 add	 edx, DWORD PTR _this$[ebp]
  0001f	52		 push	 edx
  00020	e8 00 00 00 00	 call	 _strcpy
  00025	83 c4 08	 add	 esp, 8

; 49   : 		this->nCmdCode[this->count]=command_code;

  00028	8b 45 fc	 mov	 eax, DWORD PTR _this$[ebp]
  0002b	8b 88 90 4c 00
	00		 mov	 ecx, DWORD PTR [eax+19600]
  00031	8b 55 fc	 mov	 edx, DWORD PTR _this$[ebp]
  00034	8b 45 0c	 mov	 eax, DWORD PTR _command_code$[ebp]
  00037	89 84 8a b0 36
	00 00		 mov	 DWORD PTR [edx+ecx*4+14000], eax

; 50   : 		this->nGMCode[this->count]=gamemaster_code | 0x02 | 0x20 | 0x40;//Season 4.5 changed

  0003e	8b 45 10	 mov	 eax, DWORD PTR _gamemaster_code$[ebp]
  00041	83 c8 02	 or	 eax, 2
  00044	83 c8 20	 or	 eax, 32			; 00000020H
  00047	83 c8 40	 or	 eax, 64			; 00000040H
  0004a	8b 4d fc	 mov	 ecx, DWORD PTR _this$[ebp]
  0004d	8b 91 90 4c 00
	00		 mov	 edx, DWORD PTR [ecx+19600]
  00053	8b 4d fc	 mov	 ecx, DWORD PTR _this$[ebp]
  00056	89 84 91 a0 41
	00 00		 mov	 DWORD PTR [ecx+edx*4+16800], eax

; 51   : 
; 52   : 		if ( this->count < MAX_GM_COMMAND-1 )

  0005d	8b 45 fc	 mov	 eax, DWORD PTR _this$[ebp]
  00060	81 b8 90 4c 00
	00 bb 02 00 00	 cmp	 DWORD PTR [eax+19600], 699 ; 000002bbH
  0006a	7d 15		 jge	 SHORT $LN2@Add

; 53   : 		{
; 54   : 			this->count++;

  0006c	8b 45 fc	 mov	 eax, DWORD PTR _this$[ebp]
  0006f	8b 88 90 4c 00
	00		 mov	 ecx, DWORD PTR [eax+19600]
  00075	83 c1 01	 add	 ecx, 1
  00078	8b 55 fc	 mov	 edx, DWORD PTR _this$[ebp]
  0007b	89 8a 90 4c 00
	00		 mov	 DWORD PTR [edx+19600], ecx
$LN2@Add:

; 55   : 		}
; 56   : 	}

  00081	5f		 pop	 edi
  00082	5e		 pop	 esi
  00083	5b		 pop	 ebx
  00084	8b e5		 mov	 esp, ebp
  00086	5d		 pop	 ebp
  00087	c2 0c 00	 ret	 12			; 0000000cH
?Add@CGMCommand@@QAEXPADHH@Z ENDP			; CGMCommand::Add
; Function compile flags: /Odtp /ZI /ZX
; File d:\projects\exteam6.3\source\gameserver\gameserver\gmmng.cpp
_TEXT	ENDS
;	COMDAT ?ManagerInit@CGMMng@@QAEXXZ
_TEXT	SEGMENT
_n$241622 = -8						; size = 4
_this$ = -4						; size = 4
?ManagerInit@CGMMng@@QAEXXZ PROC			; CGMMng::ManagerInit, COMDAT
; _this$ = ecx

; 467  : {

  00000	55		 push	 ebp
  00001	8b ec		 mov	 ebp, esp
  00003	83 ec 48	 sub	 esp, 72			; 00000048H
  00006	53		 push	 ebx
  00007	56		 push	 esi
  00008	57		 push	 edi
  00009	89 4d fc	 mov	 DWORD PTR _this$[ebp], ecx

; 468  : 	for ( int n = 0;n<MAX_GAME_MASTER ; n++ )

  0000c	c7 45 f8 00 00
	00 00		 mov	 DWORD PTR _n$241622[ebp], 0
  00013	eb 09		 jmp	 SHORT $LN3@ManagerIni
$LN2@ManagerIni:
  00015	8b 45 f8	 mov	 eax, DWORD PTR _n$241622[ebp]
  00018	83 c0 01	 add	 eax, 1
  0001b	89 45 f8	 mov	 DWORD PTR _n$241622[ebp], eax
$LN3@ManagerIni:
  0001e	83 7d f8 05	 cmp	 DWORD PTR _n$241622[ebp], 5
  00022	7d 13		 jge	 SHORT $LN4@ManagerIni

; 469  : 	{
; 470  : 		this->ManagerIndex[n] = -1;

  00024	8b 45 f8	 mov	 eax, DWORD PTR _n$241622[ebp]
  00027	8b 4d fc	 mov	 ecx, DWORD PTR _this$[ebp]
  0002a	c7 84 81 d0 4c
	00 00 ff ff ff
	ff		 mov	 DWORD PTR [ecx+eax*4+19664], -1

; 471  : 	}

  00035	eb de		 jmp	 SHORT $LN2@ManagerIni
$LN4@ManagerIni:

; 472  : }

  00037	5f		 pop	 edi
  00038	5e		 pop	 esi
  00039	5b		 pop	 ebx
  0003a	8b e5		 mov	 esp, ebp
  0003c	5d		 pop	 ebp
  0003d	c3		 ret	 0
?ManagerInit@CGMMng@@QAEXXZ ENDP			; CGMMng::ManagerInit
_TEXT	ENDS
PUBLIC	?ManagerAdd@CGMMng@@QAEHPADH@Z			; CGMMng::ManagerAdd
; Function compile flags: /Odtp /ZI /ZX
;	COMDAT ?ManagerAdd@CGMMng@@QAEHPADH@Z
_TEXT	SEGMENT
_n$241631 = -8						; size = 4
_this$ = -4						; size = 4
_name$ = 8						; size = 4
_aIndex$ = 12						; size = 4
?ManagerAdd@CGMMng@@QAEHPADH@Z PROC			; CGMMng::ManagerAdd, COMDAT
; _this$ = ecx

; 476  : {

  00000	55		 push	 ebp
  00001	8b ec		 mov	 ebp, esp
  00003	83 ec 48	 sub	 esp, 72			; 00000048H
  00006	53		 push	 ebx
  00007	56		 push	 esi
  00008	57		 push	 edi
  00009	89 4d fc	 mov	 DWORD PTR _this$[ebp], ecx

; 477  : 	for ( int n=0 ; n<MAX_GAME_MASTER ; n++ )

  0000c	c7 45 f8 00 00
	00 00		 mov	 DWORD PTR _n$241631[ebp], 0
  00013	eb 09		 jmp	 SHORT $LN4@ManagerAdd
$LN3@ManagerAdd:
  00015	8b 45 f8	 mov	 eax, DWORD PTR _n$241631[ebp]
  00018	83 c0 01	 add	 eax, 1
  0001b	89 45 f8	 mov	 DWORD PTR _n$241631[ebp], eax
$LN4@ManagerAdd:
  0001e	83 7d f8 05	 cmp	 DWORD PTR _n$241631[ebp], 5
  00022	7d 44		 jge	 SHORT $LN2@ManagerAdd

; 478  : 	{
; 479  : 		if ( this->ManagerIndex[n] == -1 )

  00024	8b 45 f8	 mov	 eax, DWORD PTR _n$241631[ebp]
  00027	8b 4d fc	 mov	 ecx, DWORD PTR _this$[ebp]
  0002a	83 bc 81 d0 4c
	00 00 ff	 cmp	 DWORD PTR [ecx+eax*4+19664], -1
  00032	75 32		 jne	 SHORT $LN1@ManagerAdd

; 480  : 		{
; 481  : 			strcpy(this->szManagerName[n], name);

  00034	8b 45 08	 mov	 eax, DWORD PTR _name$[ebp]
  00037	50		 push	 eax
  00038	8b 4d f8	 mov	 ecx, DWORD PTR _n$241631[ebp]
  0003b	6b c9 0b	 imul	 ecx, 11			; 0000000bH
  0003e	8b 55 fc	 mov	 edx, DWORD PTR _this$[ebp]
  00041	8d 84 0a 98 4c
	00 00		 lea	 eax, DWORD PTR [edx+ecx+19608]
  00048	50		 push	 eax
  00049	e8 00 00 00 00	 call	 _strcpy
  0004e	83 c4 08	 add	 esp, 8

; 482  : 			this->ManagerIndex[n] = aIndex;

  00051	8b 45 f8	 mov	 eax, DWORD PTR _n$241631[ebp]
  00054	8b 4d fc	 mov	 ecx, DWORD PTR _this$[ebp]
  00057	8b 55 0c	 mov	 edx, DWORD PTR _aIndex$[ebp]
  0005a	89 94 81 d0 4c
	00 00		 mov	 DWORD PTR [ecx+eax*4+19664], edx

; 483  : 			return n;

  00061	8b 45 f8	 mov	 eax, DWORD PTR _n$241631[ebp]
  00064	eb 05		 jmp	 SHORT $LN5@ManagerAdd
$LN1@ManagerAdd:

; 484  : 		}
; 485  : 	}

  00066	eb ad		 jmp	 SHORT $LN3@ManagerAdd
$LN2@ManagerAdd:

; 486  : 
; 487  : 	return -1;

  00068	83 c8 ff	 or	 eax, -1
$LN5@ManagerAdd:

; 488  : }

  0006b	5f		 pop	 edi
  0006c	5e		 pop	 esi
  0006d	5b		 pop	 ebx
  0006e	8b e5		 mov	 esp, ebp
  00070	5d		 pop	 ebp
  00071	c2 08 00	 ret	 8
?ManagerAdd@CGMMng@@QAEHPADH@Z ENDP			; CGMMng::ManagerAdd
_TEXT	ENDS
PUBLIC	?ManagerDel@CGMMng@@QAEXPAD@Z			; CGMMng::ManagerDel
EXTRN	_strcmp:PROC
; Function compile flags: /Odtp /ZI /ZX
;	COMDAT ?ManagerDel@CGMMng@@QAEXPAD@Z
_TEXT	SEGMENT
_n$241640 = -8						; size = 4
_this$ = -4						; size = 4
_name$ = 8						; size = 4
?ManagerDel@CGMMng@@QAEXPAD@Z PROC			; CGMMng::ManagerDel, COMDAT
; _this$ = ecx

; 492  : {

  00000	55		 push	 ebp
  00001	8b ec		 mov	 ebp, esp
  00003	83 ec 48	 sub	 esp, 72			; 00000048H
  00006	53		 push	 ebx
  00007	56		 push	 esi
  00008	57		 push	 edi
  00009	89 4d fc	 mov	 DWORD PTR _this$[ebp], ecx

; 493  : 	for ( int n=0;n<MAX_GAME_MASTER;n++)

  0000c	c7 45 f8 00 00
	00 00		 mov	 DWORD PTR _n$241640[ebp], 0
  00013	eb 09		 jmp	 SHORT $LN5@ManagerDel
$LN4@ManagerDel:
  00015	8b 45 f8	 mov	 eax, DWORD PTR _n$241640[ebp]
  00018	83 c0 01	 add	 eax, 1
  0001b	89 45 f8	 mov	 DWORD PTR _n$241640[ebp], eax
$LN5@ManagerDel:
  0001e	83 7d f8 05	 cmp	 DWORD PTR _n$241640[ebp], 5
  00022	7d 46		 jge	 SHORT $LN6@ManagerDel

; 494  : 	{
; 495  : 		if ( this->ManagerIndex[n] != -1 )

  00024	8b 45 f8	 mov	 eax, DWORD PTR _n$241640[ebp]
  00027	8b 4d fc	 mov	 ecx, DWORD PTR _this$[ebp]
  0002a	83 bc 81 d0 4c
	00 00 ff	 cmp	 DWORD PTR [ecx+eax*4+19664], -1
  00032	74 34		 je	 SHORT $LN2@ManagerDel

; 496  : 		{
; 497  : 			if ( strcmp(this->szManagerName[n], name) == 0 )

  00034	8b 45 08	 mov	 eax, DWORD PTR _name$[ebp]
  00037	50		 push	 eax
  00038	8b 4d f8	 mov	 ecx, DWORD PTR _n$241640[ebp]
  0003b	6b c9 0b	 imul	 ecx, 11			; 0000000bH
  0003e	8b 55 fc	 mov	 edx, DWORD PTR _this$[ebp]
  00041	8d 84 0a 98 4c
	00 00		 lea	 eax, DWORD PTR [edx+ecx+19608]
  00048	50		 push	 eax
  00049	e8 00 00 00 00	 call	 _strcmp
  0004e	83 c4 08	 add	 esp, 8
  00051	85 c0		 test	 eax, eax
  00053	75 13		 jne	 SHORT $LN2@ManagerDel

; 498  : 			{
; 499  : 				this->ManagerIndex[n] = -1;

  00055	8b 45 f8	 mov	 eax, DWORD PTR _n$241640[ebp]
  00058	8b 4d fc	 mov	 ecx, DWORD PTR _this$[ebp]
  0005b	c7 84 81 d0 4c
	00 00 ff ff ff
	ff		 mov	 DWORD PTR [ecx+eax*4+19664], -1

; 500  : 				//break;
; 501  : 				return; //Original Code (GS 0.65)

  00066	eb 02		 jmp	 SHORT $LN6@ManagerDel
$LN2@ManagerDel:

; 502  : 			}
; 503  : 		}
; 504  : 	}

  00068	eb ab		 jmp	 SHORT $LN4@ManagerDel
$LN6@ManagerDel:

; 505  : }

  0006a	5f		 pop	 edi
  0006b	5e		 pop	 esi
  0006c	5b		 pop	 ebx
  0006d	8b e5		 mov	 esp, ebp
  0006f	5d		 pop	 ebp
  00070	c2 04 00	 ret	 4
?ManagerDel@CGMMng@@QAEXPAD@Z ENDP			; CGMMng::ManagerDel
_TEXT	ENDS
PUBLIC	?ManagerSendData@CGMMng@@QAEXPADH@Z		; CGMMng::ManagerSendData
EXTRN	?GCServerMsgStringSend@@YAXPADHE@Z:PROC		; GCServerMsgStringSend
; Function compile flags: /Odtp /ZI /ZX
;	COMDAT ?ManagerSendData@CGMMng@@QAEXPADH@Z
_TEXT	SEGMENT
_n$241651 = -8						; size = 4
_this$ = -4						; size = 4
_szMsg$ = 8						; size = 4
_size$ = 12						; size = 4
?ManagerSendData@CGMMng@@QAEXPADH@Z PROC		; CGMMng::ManagerSendData, COMDAT
; _this$ = ecx

; 509  : {

  00000	55		 push	 ebp
  00001	8b ec		 mov	 ebp, esp
  00003	83 ec 48	 sub	 esp, 72			; 00000048H
  00006	53		 push	 ebx
  00007	56		 push	 esi
  00008	57		 push	 edi
  00009	89 4d fc	 mov	 DWORD PTR _this$[ebp], ecx

; 510  : 	for ( int n=0;n<MAX_GAME_MASTER;n++ )

  0000c	c7 45 f8 00 00
	00 00		 mov	 DWORD PTR _n$241651[ebp], 0
  00013	eb 09		 jmp	 SHORT $LN4@ManagerSen
$LN3@ManagerSen:
  00015	8b 45 f8	 mov	 eax, DWORD PTR _n$241651[ebp]
  00018	83 c0 01	 add	 eax, 1
  0001b	89 45 f8	 mov	 DWORD PTR _n$241651[ebp], eax
$LN4@ManagerSen:
  0001e	83 7d f8 05	 cmp	 DWORD PTR _n$241651[ebp], 5
  00022	7d 2e		 jge	 SHORT $LN5@ManagerSen

; 511  : 	{
; 512  : 		if ( this->ManagerIndex[n] != -1 )

  00024	8b 45 f8	 mov	 eax, DWORD PTR _n$241651[ebp]
  00027	8b 4d fc	 mov	 ecx, DWORD PTR _this$[ebp]
  0002a	83 bc 81 d0 4c
	00 00 ff	 cmp	 DWORD PTR [ecx+eax*4+19664], -1
  00032	74 1c		 je	 SHORT $LN1@ManagerSen

; 513  : 		{
; 514  : 			GCServerMsgStringSend(szMsg, this->ManagerIndex[n], 0);

  00034	6a 00		 push	 0
  00036	8b 45 f8	 mov	 eax, DWORD PTR _n$241651[ebp]
  00039	8b 4d fc	 mov	 ecx, DWORD PTR _this$[ebp]
  0003c	8b 94 81 d0 4c
	00 00		 mov	 edx, DWORD PTR [ecx+eax*4+19664]
  00043	52		 push	 edx
  00044	8b 45 08	 mov	 eax, DWORD PTR _szMsg$[ebp]
  00047	50		 push	 eax
  00048	e8 00 00 00 00	 call	 ?GCServerMsgStringSend@@YAXPADHE@Z ; GCServerMsgStringSend
  0004d	83 c4 0c	 add	 esp, 12			; 0000000cH
$LN1@ManagerSen:

; 515  : 		}
; 516  : 	}

  00050	eb c3		 jmp	 SHORT $LN3@ManagerSen
$LN5@ManagerSen:

; 517  : }

  00052	5f		 pop	 edi
  00053	5e		 pop	 esi
  00054	5b		 pop	 ebx
  00055	8b e5		 mov	 esp, ebp
  00057	5d		 pop	 ebp
  00058	c2 08 00	 ret	 8
?ManagerSendData@CGMMng@@QAEXPADH@Z ENDP		; CGMMng::ManagerSendData
_TEXT	ENDS
PUBLIC	?DataSend@CGMMng@@QAEXPAEH@Z			; CGMMng::DataSend
EXTRN	?DataSend@@YAHHPAEK@Z:PROC			; DataSend
; Function compile flags: /Odtp /ZI /ZX
;	COMDAT ?DataSend@CGMMng@@QAEXPAEH@Z
_TEXT	SEGMENT
_n$241661 = -8						; size = 4
_this$ = -4						; size = 4
_szMsg$ = 8						; size = 4
_size$ = 12						; size = 4
?DataSend@CGMMng@@QAEXPAEH@Z PROC			; CGMMng::DataSend, COMDAT
; _this$ = ecx

; 520  : {

  00000	55		 push	 ebp
  00001	8b ec		 mov	 ebp, esp
  00003	83 ec 48	 sub	 esp, 72			; 00000048H
  00006	53		 push	 ebx
  00007	56		 push	 esi
  00008	57		 push	 edi
  00009	89 4d fc	 mov	 DWORD PTR _this$[ebp], ecx

; 521  : 	for ( int n=0;n<MAX_GAME_MASTER;n++ )

  0000c	c7 45 f8 00 00
	00 00		 mov	 DWORD PTR _n$241661[ebp], 0
  00013	eb 09		 jmp	 SHORT $LN4@DataSend
$LN3@DataSend:
  00015	8b 45 f8	 mov	 eax, DWORD PTR _n$241661[ebp]
  00018	83 c0 01	 add	 eax, 1
  0001b	89 45 f8	 mov	 DWORD PTR _n$241661[ebp], eax
$LN4@DataSend:
  0001e	83 7d f8 05	 cmp	 DWORD PTR _n$241661[ebp], 5
  00022	7d 30		 jge	 SHORT $LN5@DataSend

; 522  : 	{
; 523  : 		if ( this->ManagerIndex[n] != -1 )

  00024	8b 45 f8	 mov	 eax, DWORD PTR _n$241661[ebp]
  00027	8b 4d fc	 mov	 ecx, DWORD PTR _this$[ebp]
  0002a	83 bc 81 d0 4c
	00 00 ff	 cmp	 DWORD PTR [ecx+eax*4+19664], -1
  00032	74 1e		 je	 SHORT $LN1@DataSend

; 524  : 		{
; 525  : 			::DataSend(this->ManagerIndex[n], szMsg, size);

  00034	8b 45 0c	 mov	 eax, DWORD PTR _size$[ebp]
  00037	50		 push	 eax
  00038	8b 4d 08	 mov	 ecx, DWORD PTR _szMsg$[ebp]
  0003b	51		 push	 ecx
  0003c	8b 55 f8	 mov	 edx, DWORD PTR _n$241661[ebp]
  0003f	8b 45 fc	 mov	 eax, DWORD PTR _this$[ebp]
  00042	8b 8c 90 d0 4c
	00 00		 mov	 ecx, DWORD PTR [eax+edx*4+19664]
  00049	51		 push	 ecx
  0004a	e8 00 00 00 00	 call	 ?DataSend@@YAHHPAEK@Z	; DataSend
  0004f	83 c4 0c	 add	 esp, 12			; 0000000cH
$LN1@DataSend:

; 526  : 		}
; 527  : 	}

  00052	eb c1		 jmp	 SHORT $LN3@DataSend
$LN5@DataSend:

; 528  : }

  00054	5f		 pop	 edi
  00055	5e		 pop	 esi
  00056	5b		 pop	 ebx
  00057	8b e5		 mov	 esp, ebp
  00059	5d		 pop	 ebp
  0005a	c2 08 00	 ret	 8
?DataSend@CGMMng@@QAEXPAEH@Z ENDP			; CGMMng::DataSend
_TEXT	ENDS
PUBLIC	?BattleInfoSend@CGMMng@@QAEXPADE0E@Z		; CGMMng::BattleInfoSend
EXTRN	?GCGoalSend@@YAXHPADE0E@Z:PROC			; GCGoalSend
; Function compile flags: /Odtp /ZI /ZX
;	COMDAT ?BattleInfoSend@CGMMng@@QAEXPADE0E@Z
_TEXT	SEGMENT
_n$241673 = -8						; size = 4
_this$ = -4						; size = 4
_Name1$ = 8						; size = 4
_score1$ = 12						; size = 1
_Name2$ = 16						; size = 4
_score2$ = 20						; size = 1
?BattleInfoSend@CGMMng@@QAEXPADE0E@Z PROC		; CGMMng::BattleInfoSend, COMDAT
; _this$ = ecx

; 532  : {

  00000	55		 push	 ebp
  00001	8b ec		 mov	 ebp, esp
  00003	83 ec 48	 sub	 esp, 72			; 00000048H
  00006	53		 push	 ebx
  00007	56		 push	 esi
  00008	57		 push	 edi
  00009	89 4d fc	 mov	 DWORD PTR _this$[ebp], ecx

; 533  : 	for ( int n=0;n<MAX_GAME_MASTER;n++ )

  0000c	c7 45 f8 00 00
	00 00		 mov	 DWORD PTR _n$241673[ebp], 0
  00013	eb 09		 jmp	 SHORT $LN4@BattleInfo
$LN3@BattleInfo:
  00015	8b 45 f8	 mov	 eax, DWORD PTR _n$241673[ebp]
  00018	83 c0 01	 add	 eax, 1
  0001b	89 45 f8	 mov	 DWORD PTR _n$241673[ebp], eax
$LN4@BattleInfo:
  0001e	83 7d f8 05	 cmp	 DWORD PTR _n$241673[ebp], 5
  00022	7d 3a		 jge	 SHORT $LN5@BattleInfo

; 534  : 	{
; 535  : 		if ( this->ManagerIndex[n] != -1 )

  00024	8b 45 f8	 mov	 eax, DWORD PTR _n$241673[ebp]
  00027	8b 4d fc	 mov	 ecx, DWORD PTR _this$[ebp]
  0002a	83 bc 81 d0 4c
	00 00 ff	 cmp	 DWORD PTR [ecx+eax*4+19664], -1
  00032	74 28		 je	 SHORT $LN1@BattleInfo

; 536  : 		{
; 537  : 			GCGoalSend(this->ManagerIndex[n], Name1, score1, Name2, score2);

  00034	0f b6 45 14	 movzx	 eax, BYTE PTR _score2$[ebp]
  00038	50		 push	 eax
  00039	8b 4d 10	 mov	 ecx, DWORD PTR _Name2$[ebp]
  0003c	51		 push	 ecx
  0003d	0f b6 55 0c	 movzx	 edx, BYTE PTR _score1$[ebp]
  00041	52		 push	 edx
  00042	8b 45 08	 mov	 eax, DWORD PTR _Name1$[ebp]
  00045	50		 push	 eax
  00046	8b 4d f8	 mov	 ecx, DWORD PTR _n$241673[ebp]
  00049	8b 55 fc	 mov	 edx, DWORD PTR _this$[ebp]
  0004c	8b 84 8a d0 4c
	00 00		 mov	 eax, DWORD PTR [edx+ecx*4+19664]
  00053	50		 push	 eax
  00054	e8 00 00 00 00	 call	 ?GCGoalSend@@YAXHPADE0E@Z ; GCGoalSend
  00059	83 c4 14	 add	 esp, 20			; 00000014H
$LN1@BattleInfo:

; 538  : 		}
; 539  : 	}

  0005c	eb b7		 jmp	 SHORT $LN3@BattleInfo
$LN5@BattleInfo:

; 540  : }

  0005e	5f		 pop	 edi
  0005f	5e		 pop	 esi
  00060	5b		 pop	 ebx
  00061	8b e5		 mov	 esp, ebp
  00063	5d		 pop	 ebp
  00064	c2 10 00	 ret	 16			; 00000010H
?BattleInfoSend@CGMMng@@QAEXPADE0E@Z ENDP		; CGMMng::BattleInfoSend
_TEXT	ENDS
PUBLIC	?GetCmd@CGMMng@@QAEHPAD@Z			; CGMMng::GetCmd
EXTRN	_stricmp:PROC
; Function compile flags: /Odtp /ZI /ZX
;	COMDAT ?GetCmd@CGMMng@@QAEHPAD@Z
_TEXT	SEGMENT
_n$241682 = -8						; size = 4
_this$ = -4						; size = 4
_szCmd$ = 8						; size = 4
?GetCmd@CGMMng@@QAEHPAD@Z PROC				; CGMMng::GetCmd, COMDAT
; _this$ = ecx

; 544  : {

  00000	55		 push	 ebp
  00001	8b ec		 mov	 ebp, esp
  00003	83 ec 48	 sub	 esp, 72			; 00000048H
  00006	53		 push	 ebx
  00007	56		 push	 esi
  00008	57		 push	 edi
  00009	89 4d fc	 mov	 DWORD PTR _this$[ebp], ecx

; 545  : 	for ( int n	=0; n< MAX_GM_COMMAND ; n++ )

  0000c	c7 45 f8 00 00
	00 00		 mov	 DWORD PTR _n$241682[ebp], 0
  00013	eb 09		 jmp	 SHORT $LN5@GetCmd
$LN4@GetCmd:
  00015	8b 45 f8	 mov	 eax, DWORD PTR _n$241682[ebp]
  00018	83 c0 01	 add	 eax, 1
  0001b	89 45 f8	 mov	 DWORD PTR _n$241682[ebp], eax
$LN5@GetCmd:
  0001e	81 7d f8 bc 02
	00 00		 cmp	 DWORD PTR _n$241682[ebp], 700 ; 000002bcH
  00025	7d 3f		 jge	 SHORT $LN3@GetCmd

; 546  : 	{
; 547  : 		if ( this->cCommand.nCmdCode[n] > 0 )

  00027	8b 45 f8	 mov	 eax, DWORD PTR _n$241682[ebp]
  0002a	8b 4d fc	 mov	 ecx, DWORD PTR _this$[ebp]
  0002d	83 bc 81 b4 36
	00 00 00	 cmp	 DWORD PTR [ecx+eax*4+14004], 0
  00035	7e 2d		 jle	 SHORT $LN2@GetCmd

; 548  : 		{
; 549  : 			if ( stricmp(szCmd, this->cCommand.szCmd[n]) == 0 )

  00037	8b 45 f8	 mov	 eax, DWORD PTR _n$241682[ebp]
  0003a	6b c0 14	 imul	 eax, 20			; 00000014H
  0003d	8b 4d fc	 mov	 ecx, DWORD PTR _this$[ebp]
  00040	8d 54 01 04	 lea	 edx, DWORD PTR [ecx+eax+4]
  00044	52		 push	 edx
  00045	8b 45 08	 mov	 eax, DWORD PTR _szCmd$[ebp]
  00048	50		 push	 eax
  00049	e8 00 00 00 00	 call	 _stricmp
  0004e	83 c4 08	 add	 esp, 8
  00051	85 c0		 test	 eax, eax
  00053	75 0f		 jne	 SHORT $LN2@GetCmd

; 550  : 			{
; 551  : 				return this->cCommand.nCmdCode[n];

  00055	8b 45 f8	 mov	 eax, DWORD PTR _n$241682[ebp]
  00058	8b 4d fc	 mov	 ecx, DWORD PTR _this$[ebp]
  0005b	8b 84 81 b4 36
	00 00		 mov	 eax, DWORD PTR [ecx+eax*4+14004]
  00062	eb 04		 jmp	 SHORT $LN6@GetCmd
$LN2@GetCmd:

; 552  : 			}
; 553  : 		}
; 554  : 	}

  00064	eb af		 jmp	 SHORT $LN4@GetCmd
$LN3@GetCmd:

; 555  : 
; 556  : 	return 0;

  00066	33 c0		 xor	 eax, eax
$LN6@GetCmd:

; 557  : }

  00068	5f		 pop	 edi
  00069	5e		 pop	 esi
  0006a	5b		 pop	 ebx
  0006b	8b e5		 mov	 esp, ebp
  0006d	5d		 pop	 ebp
  0006e	c2 04 00	 ret	 4
?GetCmd@CGMMng@@QAEHPAD@Z ENDP				; CGMMng::GetCmd
_TEXT	ENDS
PUBLIC	?GetData@CGMMng@@QAEEPADAAH1@Z			; CGMMng::GetData
; Function compile flags: /Odtp /ZI /ZX
;	COMDAT ?GetData@CGMMng@@QAEEPADAAH1@Z
_TEXT	SEGMENT
_n$241694 = -8						; size = 4
_this$ = -4						; size = 4
_szCmd$ = 8						; size = 4
_command_code$ = 12					; size = 4
_gamemaster_code$ = 16					; size = 4
?GetData@CGMMng@@QAEEPADAAH1@Z PROC			; CGMMng::GetData, COMDAT
; _this$ = ecx

; 561  : {

  00000	55		 push	 ebp
  00001	8b ec		 mov	 ebp, esp
  00003	83 ec 48	 sub	 esp, 72			; 00000048H
  00006	53		 push	 ebx
  00007	56		 push	 esi
  00008	57		 push	 edi
  00009	89 4d fc	 mov	 DWORD PTR _this$[ebp], ecx

; 562  : 	for ( int n	=0; n< MAX_GM_COMMAND ; n++ )

  0000c	c7 45 f8 00 00
	00 00		 mov	 DWORD PTR _n$241694[ebp], 0
  00013	eb 09		 jmp	 SHORT $LN5@GetData
$LN4@GetData:
  00015	8b 45 f8	 mov	 eax, DWORD PTR _n$241694[ebp]
  00018	83 c0 01	 add	 eax, 1
  0001b	89 45 f8	 mov	 DWORD PTR _n$241694[ebp], eax
$LN5@GetData:
  0001e	81 7d f8 bc 02
	00 00		 cmp	 DWORD PTR _n$241694[ebp], 700 ; 000002bcH
  00025	7d 58		 jge	 SHORT $LN3@GetData

; 563  : 	{
; 564  : 		if ( this->cCommand.nCmdCode[n] > 0 )

  00027	8b 45 f8	 mov	 eax, DWORD PTR _n$241694[ebp]
  0002a	8b 4d fc	 mov	 ecx, DWORD PTR _this$[ebp]
  0002d	83 bc 81 b4 36
	00 00 00	 cmp	 DWORD PTR [ecx+eax*4+14004], 0
  00035	7e 46		 jle	 SHORT $LN2@GetData

; 565  : 		{
; 566  : 			if ( stricmp(szCmd, this->cCommand.szCmd[n]) == 0 )

  00037	8b 45 f8	 mov	 eax, DWORD PTR _n$241694[ebp]
  0003a	6b c0 14	 imul	 eax, 20			; 00000014H
  0003d	8b 4d fc	 mov	 ecx, DWORD PTR _this$[ebp]
  00040	8d 54 01 04	 lea	 edx, DWORD PTR [ecx+eax+4]
  00044	52		 push	 edx
  00045	8b 45 08	 mov	 eax, DWORD PTR _szCmd$[ebp]
  00048	50		 push	 eax
  00049	e8 00 00 00 00	 call	 _stricmp
  0004e	83 c4 08	 add	 esp, 8
  00051	85 c0		 test	 eax, eax
  00053	75 28		 jne	 SHORT $LN2@GetData

; 567  : 			{
; 568  : 				command_code = this->cCommand.nCmdCode[n];

  00055	8b 45 0c	 mov	 eax, DWORD PTR _command_code$[ebp]
  00058	8b 4d f8	 mov	 ecx, DWORD PTR _n$241694[ebp]
  0005b	8b 55 fc	 mov	 edx, DWORD PTR _this$[ebp]
  0005e	8b 8c 8a b4 36
	00 00		 mov	 ecx, DWORD PTR [edx+ecx*4+14004]
  00065	89 08		 mov	 DWORD PTR [eax], ecx

; 569  : 				gamemaster_code = this->cCommand.nGMCode[n];

  00067	8b 45 10	 mov	 eax, DWORD PTR _gamemaster_code$[ebp]
  0006a	8b 4d f8	 mov	 ecx, DWORD PTR _n$241694[ebp]
  0006d	8b 55 fc	 mov	 edx, DWORD PTR _this$[ebp]
  00070	8b 8c 8a a4 41
	00 00		 mov	 ecx, DWORD PTR [edx+ecx*4+16804]
  00077	89 08		 mov	 DWORD PTR [eax], ecx

; 570  : 
; 571  : 				return TRUE;

  00079	b0 01		 mov	 al, 1
  0007b	eb 04		 jmp	 SHORT $LN6@GetData
$LN2@GetData:

; 572  : 			}
; 573  : 		}
; 574  : 	}

  0007d	eb 96		 jmp	 SHORT $LN4@GetData
$LN3@GetData:

; 575  : 
; 576  : 	return 0;

  0007f	32 c0		 xor	 al, al
$LN6@GetData:

; 577  : }

  00081	5f		 pop	 edi
  00082	5e		 pop	 esi
  00083	5b		 pop	 ebx
  00084	8b e5		 mov	 esp, ebp
  00086	5d		 pop	 ebp
  00087	c2 0c 00	 ret	 12			; 0000000cH
?GetData@CGMMng@@QAEEPADAAH1@Z ENDP			; CGMMng::GetData
_TEXT	ENDS
PUBLIC	??_C@_01CLKCMJKC@?5?$AA@			; `string'
PUBLIC	?GetTokenString@CGMMng@@QAEPADXZ		; CGMMng::GetTokenString
EXTRN	_strtok:PROC
;	COMDAT ??_C@_01CLKCMJKC@?5?$AA@
CONST	SEGMENT
??_C@_01CLKCMJKC@?5?$AA@ DB ' ', 00H			; `string'
; Function compile flags: /Odtp /ZI /ZX
CONST	ENDS
;	COMDAT ?GetTokenString@CGMMng@@QAEPADXZ
_TEXT	SEGMENT
_seps$ = -8						; size = 2
_this$ = -4						; size = 4
?GetTokenString@CGMMng@@QAEPADXZ PROC			; CGMMng::GetTokenString, COMDAT
; _this$ = ecx

; 580  : {

  00000	55		 push	 ebp
  00001	8b ec		 mov	 ebp, esp
  00003	83 ec 48	 sub	 esp, 72			; 00000048H
  00006	53		 push	 ebx
  00007	56		 push	 esi
  00008	57		 push	 edi
  00009	89 4d fc	 mov	 DWORD PTR _this$[ebp], ecx

; 581  : 	//Original Code (GS 0.65)
; 582  : 	char seps[] = " ";

  0000c	66 a1 00 00 00
	00		 mov	 ax, WORD PTR ??_C@_01CLKCMJKC@?5?$AA@
  00012	66 89 45 f8	 mov	 WORD PTR _seps$[ebp], ax

; 583  : 	return strtok(NULL, seps);

  00016	8d 45 f8	 lea	 eax, DWORD PTR _seps$[ebp]
  00019	50		 push	 eax
  0001a	6a 00		 push	 0
  0001c	e8 00 00 00 00	 call	 _strtok
  00021	83 c4 08	 add	 esp, 8

; 584  : }

  00024	5f		 pop	 edi
  00025	5e		 pop	 esi
  00026	5b		 pop	 ebx
  00027	8b e5		 mov	 esp, ebp
  00029	5d		 pop	 ebp
  0002a	c3		 ret	 0
?GetTokenString@CGMMng@@QAEPADXZ ENDP			; CGMMng::GetTokenString
_TEXT	ENDS
PUBLIC	?GetTokenNumber@CGMMng@@QAEHXZ			; CGMMng::GetTokenNumber
EXTRN	_atoi:PROC
; Function compile flags: /Odtp /ZI /ZX
;	COMDAT ?GetTokenNumber@CGMMng@@QAEHXZ
_TEXT	SEGMENT
_szToken$ = -12						; size = 4
_seps$ = -8						; size = 2
_this$ = -4						; size = 4
?GetTokenNumber@CGMMng@@QAEHXZ PROC			; CGMMng::GetTokenNumber, COMDAT
; _this$ = ecx

; 587  : {

  00000	55		 push	 ebp
  00001	8b ec		 mov	 ebp, esp
  00003	83 ec 4c	 sub	 esp, 76			; 0000004cH
  00006	53		 push	 ebx
  00007	56		 push	 esi
  00008	57		 push	 edi
  00009	89 4d fc	 mov	 DWORD PTR _this$[ebp], ecx

; 588  : 	char seps[] = " ";

  0000c	66 a1 00 00 00
	00		 mov	 ax, WORD PTR ??_C@_01CLKCMJKC@?5?$AA@
  00012	66 89 45 f8	 mov	 WORD PTR _seps$[ebp], ax

; 589  : 	char * szToken;
; 590  : 
; 591  : 	szToken = strtok(NULL, seps);

  00016	8d 45 f8	 lea	 eax, DWORD PTR _seps$[ebp]
  00019	50		 push	 eax
  0001a	6a 00		 push	 0
  0001c	e8 00 00 00 00	 call	 _strtok
  00021	83 c4 08	 add	 esp, 8
  00024	89 45 f4	 mov	 DWORD PTR _szToken$[ebp], eax

; 592  : 
; 593  : 	if( szToken != NULL )

  00027	83 7d f4 00	 cmp	 DWORD PTR _szToken$[ebp], 0
  0002b	74 0e		 je	 SHORT $LN1@GetTokenNu

; 594  : 	{
; 595  : 		return atoi(szToken);

  0002d	8b 45 f4	 mov	 eax, DWORD PTR _szToken$[ebp]
  00030	50		 push	 eax
  00031	e8 00 00 00 00	 call	 _atoi
  00036	83 c4 04	 add	 esp, 4
  00039	eb 02		 jmp	 SHORT $LN2@GetTokenNu
$LN1@GetTokenNu:

; 596  : 	}
; 597  : 	return 0;

  0003b	33 c0		 xor	 eax, eax
$LN2@GetTokenNu:

; 598  : }

  0003d	5f		 pop	 edi
  0003e	5e		 pop	 esi
  0003f	5b		 pop	 ebx
  00040	8b e5		 mov	 esp, ebp
  00042	5d		 pop	 ebp
  00043	c3		 ret	 0
?GetTokenNumber@CGMMng@@QAEHXZ ENDP			; CGMMng::GetTokenNumber
_TEXT	ENDS
PUBLIC	?CodePageToUnicode@@YAPA_WHPAD@Z		; CodePageToUnicode
EXTRN	??_V@YAXPAX@Z:PROC				; operator delete[]
EXTRN	__imp__MultiByteToWideChar@24:PROC
EXTRN	??_U@YAPAXI@Z:PROC				; operator new[]
EXTRN	_strlen:PROC
; Function compile flags: /Odtp /ZI /ZX
;	COMDAT ?CodePageToUnicode@@YAPA_WHPAD@Z
_TEXT	SEGMENT
$T243994 = -96						; size = 4
$T243995 = -92						; size = 4
$T243996 = -88						; size = 4
_retval$ = -20						; size = 4
_w$ = -16						; size = 4
_requiredSize$ = -12					; size = 4
_w$241718 = -8						; size = 4
_srcLen$ = -4						; size = 4
_codePage$ = 8						; size = 4
_src$ = 12						; size = 4
?CodePageToUnicode@@YAPA_WHPAD@Z PROC			; CodePageToUnicode, COMDAT

; 601  :     {

  00000	55		 push	 ebp
  00001	8b ec		 mov	 ebp, esp
  00003	83 ec 60	 sub	 esp, 96			; 00000060H
  00006	53		 push	 ebx
  00007	56		 push	 esi
  00008	57		 push	 edi

; 602  :     if (!src) return 0;

  00009	83 7d 0c 00	 cmp	 DWORD PTR _src$[ebp], 0
  0000d	75 07		 jne	 SHORT $LN4@CodePageTo
  0000f	33 c0		 xor	 eax, eax
  00011	e9 cf 00 00 00	 jmp	 $LN5@CodePageTo
$LN4@CodePageTo:

; 603  :     int srcLen = strlen(src);

  00016	8b 45 0c	 mov	 eax, DWORD PTR _src$[ebp]
  00019	50		 push	 eax
  0001a	e8 00 00 00 00	 call	 _strlen
  0001f	83 c4 04	 add	 esp, 4
  00022	89 45 fc	 mov	 DWORD PTR _srcLen$[ebp], eax

; 604  :     if (!srcLen)

  00025	83 7d fc 00	 cmp	 DWORD PTR _srcLen$[ebp], 0
  00029	75 23		 jne	 SHORT $LN3@CodePageTo

; 605  : 	{
; 606  : 	wchar_t *w = new wchar_t[1];

  0002b	6a 02		 push	 2
  0002d	e8 00 00 00 00	 call	 ??_U@YAPAXI@Z		; operator new[]
  00032	83 c4 04	 add	 esp, 4
  00035	89 45 a0	 mov	 DWORD PTR $T243994[ebp], eax
  00038	8b 45 a0	 mov	 eax, DWORD PTR $T243994[ebp]
  0003b	89 45 f8	 mov	 DWORD PTR _w$241718[ebp], eax

; 607  : 	w[0] = 0;

  0003e	33 c0		 xor	 eax, eax
  00040	8b 4d f8	 mov	 ecx, DWORD PTR _w$241718[ebp]
  00043	66 89 01	 mov	 WORD PTR [ecx], ax

; 608  : 	return w;

  00046	8b 45 f8	 mov	 eax, DWORD PTR _w$241718[ebp]
  00049	e9 97 00 00 00	 jmp	 $LN5@CodePageTo
$LN3@CodePageTo:

; 609  : 	}
; 610  : 	
; 611  :     int requiredSize = MultiByteToWideChar(codePage,
; 612  :         0,
; 613  :         src,srcLen,0,0);

  0004e	6a 00		 push	 0
  00050	6a 00		 push	 0
  00052	8b 45 fc	 mov	 eax, DWORD PTR _srcLen$[ebp]
  00055	50		 push	 eax
  00056	8b 4d 0c	 mov	 ecx, DWORD PTR _src$[ebp]
  00059	51		 push	 ecx
  0005a	6a 00		 push	 0
  0005c	8b 55 08	 mov	 edx, DWORD PTR _codePage$[ebp]
  0005f	52		 push	 edx
  00060	ff 15 00 00 00
	00		 call	 DWORD PTR __imp__MultiByteToWideChar@24
  00066	89 45 f4	 mov	 DWORD PTR _requiredSize$[ebp], eax

; 614  : 	
; 615  :     if (!requiredSize)

  00069	83 7d f4 00	 cmp	 DWORD PTR _requiredSize$[ebp], 0
  0006d	75 04		 jne	 SHORT $LN2@CodePageTo

; 616  :         {
; 617  :         return 0;

  0006f	33 c0		 xor	 eax, eax
  00071	eb 72		 jmp	 SHORT $LN5@CodePageTo
$LN2@CodePageTo:

; 618  :         }
; 619  : 	
; 620  :     wchar_t *w = new wchar_t[requiredSize+1];

  00073	8b 45 f4	 mov	 eax, DWORD PTR _requiredSize$[ebp]
  00076	83 c0 01	 add	 eax, 1
  00079	33 c9		 xor	 ecx, ecx
  0007b	ba 02 00 00 00	 mov	 edx, 2
  00080	f7 e2		 mul	 edx
  00082	0f 90 c1	 seto	 cl
  00085	f7 d9		 neg	 ecx
  00087	0b c8		 or	 ecx, eax
  00089	51		 push	 ecx
  0008a	e8 00 00 00 00	 call	 ??_U@YAPAXI@Z		; operator new[]
  0008f	83 c4 04	 add	 esp, 4
  00092	89 45 a4	 mov	 DWORD PTR $T243995[ebp], eax
  00095	8b 45 a4	 mov	 eax, DWORD PTR $T243995[ebp]
  00098	89 45 f0	 mov	 DWORD PTR _w$[ebp], eax

; 621  :     w[requiredSize] = 0;

  0009b	33 c0		 xor	 eax, eax
  0009d	8b 4d f4	 mov	 ecx, DWORD PTR _requiredSize$[ebp]
  000a0	8b 55 f0	 mov	 edx, DWORD PTR _w$[ebp]
  000a3	66 89 04 4a	 mov	 WORD PTR [edx+ecx*2], ax

; 622  : 	
; 623  :     int retval = MultiByteToWideChar(codePage,
; 624  :         0,
; 625  :         src,srcLen,w,requiredSize);

  000a7	8b 45 f4	 mov	 eax, DWORD PTR _requiredSize$[ebp]
  000aa	50		 push	 eax
  000ab	8b 4d f0	 mov	 ecx, DWORD PTR _w$[ebp]
  000ae	51		 push	 ecx
  000af	8b 55 fc	 mov	 edx, DWORD PTR _srcLen$[ebp]
  000b2	52		 push	 edx
  000b3	8b 45 0c	 mov	 eax, DWORD PTR _src$[ebp]
  000b6	50		 push	 eax
  000b7	6a 00		 push	 0
  000b9	8b 4d 08	 mov	 ecx, DWORD PTR _codePage$[ebp]
  000bc	51		 push	 ecx
  000bd	ff 15 00 00 00
	00		 call	 DWORD PTR __imp__MultiByteToWideChar@24
  000c3	89 45 ec	 mov	 DWORD PTR _retval$[ebp], eax

; 626  :     if (!retval)

  000c6	83 7d ec 00	 cmp	 DWORD PTR _retval$[ebp], 0
  000ca	75 16		 jne	 SHORT $LN1@CodePageTo

; 627  :         {
; 628  :         delete [] w;

  000cc	8b 45 f0	 mov	 eax, DWORD PTR _w$[ebp]
  000cf	89 45 a8	 mov	 DWORD PTR $T243996[ebp], eax
  000d2	8b 4d a8	 mov	 ecx, DWORD PTR $T243996[ebp]
  000d5	51		 push	 ecx
  000d6	e8 00 00 00 00	 call	 ??_V@YAXPAX@Z		; operator delete[]
  000db	83 c4 04	 add	 esp, 4

; 629  :         return 0;

  000de	33 c0		 xor	 eax, eax
  000e0	eb 03		 jmp	 SHORT $LN5@CodePageTo
$LN1@CodePageTo:

; 630  :         }
; 631  : 	
; 632  :     return w;

  000e2	8b 45 f0	 mov	 eax, DWORD PTR _w$[ebp]
$LN5@CodePageTo:

; 633  :     }

  000e5	5f		 pop	 edi
  000e6	5e		 pop	 esi
  000e7	5b		 pop	 ebx
  000e8	8b e5		 mov	 esp, ebp
  000ea	5d		 pop	 ebp
  000eb	c3		 ret	 0
?CodePageToUnicode@@YAPA_WHPAD@Z ENDP			; CodePageToUnicode
_TEXT	ENDS
PUBLIC	?UnicodeToCodePage@@YAPADHPA_W@Z		; UnicodeToCodePage
EXTRN	__imp__WideCharToMultiByte@32:PROC
EXTRN	_wcslen:PROC
; Function compile flags: /Odtp /ZI /ZX
;	COMDAT ?UnicodeToCodePage@@YAPADHPA_W@Z
_TEXT	SEGMENT
$T243999 = -96						; size = 4
$T244000 = -92						; size = 4
$T244001 = -88						; size = 4
_retval$ = -20						; size = 4
_x$ = -16						; size = 4
_requiredSize$ = -12					; size = 4
_x$241736 = -8						; size = 4
_srcLen$ = -4						; size = 4
_codePage$ = 8						; size = 4
_src$ = 12						; size = 4
?UnicodeToCodePage@@YAPADHPA_W@Z PROC			; UnicodeToCodePage, COMDAT

; 636  :     {

  00000	55		 push	 ebp
  00001	8b ec		 mov	 ebp, esp
  00003	83 ec 60	 sub	 esp, 96			; 00000060H
  00006	53		 push	 ebx
  00007	56		 push	 esi
  00008	57		 push	 edi

; 637  :     if (!src) return 0;

  00009	83 7d 0c 00	 cmp	 DWORD PTR _src$[ebp], 0
  0000d	75 07		 jne	 SHORT $LN4@UnicodeToC
  0000f	33 c0		 xor	 eax, eax
  00011	e9 c2 00 00 00	 jmp	 $LN5@UnicodeToC
$LN4@UnicodeToC:

; 638  :     int srcLen = wcslen(src);

  00016	8b 45 0c	 mov	 eax, DWORD PTR _src$[ebp]
  00019	50		 push	 eax
  0001a	e8 00 00 00 00	 call	 _wcslen
  0001f	83 c4 04	 add	 esp, 4
  00022	89 45 fc	 mov	 DWORD PTR _srcLen$[ebp], eax

; 639  :     if (!srcLen)

  00025	83 7d fc 00	 cmp	 DWORD PTR _srcLen$[ebp], 0
  00029	75 21		 jne	 SHORT $LN3@UnicodeToC

; 640  : 	{
; 641  : 	char *x = new char[1];

  0002b	6a 01		 push	 1
  0002d	e8 00 00 00 00	 call	 ??_U@YAPAXI@Z		; operator new[]
  00032	83 c4 04	 add	 esp, 4
  00035	89 45 a0	 mov	 DWORD PTR $T243999[ebp], eax
  00038	8b 45 a0	 mov	 eax, DWORD PTR $T243999[ebp]
  0003b	89 45 f8	 mov	 DWORD PTR _x$241736[ebp], eax

; 642  : 	x[0] = '\0';

  0003e	8b 45 f8	 mov	 eax, DWORD PTR _x$241736[ebp]
  00041	c6 00 00	 mov	 BYTE PTR [eax], 0

; 643  : 	return x;

  00044	8b 45 f8	 mov	 eax, DWORD PTR _x$241736[ebp]
  00047	e9 8c 00 00 00	 jmp	 $LN5@UnicodeToC
$LN3@UnicodeToC:

; 644  : 	}
; 645  : 	
; 646  :     int requiredSize = WideCharToMultiByte(codePage,
; 647  :         0,
; 648  :         src,srcLen,0,0,0,0);

  0004c	6a 00		 push	 0
  0004e	6a 00		 push	 0
  00050	6a 00		 push	 0
  00052	6a 00		 push	 0
  00054	8b 45 fc	 mov	 eax, DWORD PTR _srcLen$[ebp]
  00057	50		 push	 eax
  00058	8b 4d 0c	 mov	 ecx, DWORD PTR _src$[ebp]
  0005b	51		 push	 ecx
  0005c	6a 00		 push	 0
  0005e	8b 55 08	 mov	 edx, DWORD PTR _codePage$[ebp]
  00061	52		 push	 edx
  00062	ff 15 00 00 00
	00		 call	 DWORD PTR __imp__WideCharToMultiByte@32
  00068	89 45 f4	 mov	 DWORD PTR _requiredSize$[ebp], eax

; 649  : 	
; 650  :     if (!requiredSize)

  0006b	83 7d f4 00	 cmp	 DWORD PTR _requiredSize$[ebp], 0
  0006f	75 04		 jne	 SHORT $LN2@UnicodeToC

; 651  :         {
; 652  :         return 0;

  00071	33 c0		 xor	 eax, eax
  00073	eb 63		 jmp	 SHORT $LN5@UnicodeToC
$LN2@UnicodeToC:

; 653  :         }
; 654  : 	
; 655  :     char *x = new char[requiredSize+1];

  00075	8b 45 f4	 mov	 eax, DWORD PTR _requiredSize$[ebp]
  00078	83 c0 01	 add	 eax, 1
  0007b	50		 push	 eax
  0007c	e8 00 00 00 00	 call	 ??_U@YAPAXI@Z		; operator new[]
  00081	83 c4 04	 add	 esp, 4
  00084	89 45 a4	 mov	 DWORD PTR $T244000[ebp], eax
  00087	8b 4d a4	 mov	 ecx, DWORD PTR $T244000[ebp]
  0008a	89 4d f0	 mov	 DWORD PTR _x$[ebp], ecx

; 656  :     x[requiredSize] = 0;

  0008d	8b 45 f0	 mov	 eax, DWORD PTR _x$[ebp]
  00090	03 45 f4	 add	 eax, DWORD PTR _requiredSize$[ebp]
  00093	c6 00 00	 mov	 BYTE PTR [eax], 0

; 657  : 	
; 658  :     int retval = WideCharToMultiByte(codePage,
; 659  :         0,
; 660  :         src,srcLen,x,requiredSize,0,0);

  00096	6a 00		 push	 0
  00098	6a 00		 push	 0
  0009a	8b 45 f4	 mov	 eax, DWORD PTR _requiredSize$[ebp]
  0009d	50		 push	 eax
  0009e	8b 4d f0	 mov	 ecx, DWORD PTR _x$[ebp]
  000a1	51		 push	 ecx
  000a2	8b 55 fc	 mov	 edx, DWORD PTR _srcLen$[ebp]
  000a5	52		 push	 edx
  000a6	8b 45 0c	 mov	 eax, DWORD PTR _src$[ebp]
  000a9	50		 push	 eax
  000aa	6a 00		 push	 0
  000ac	8b 4d 08	 mov	 ecx, DWORD PTR _codePage$[ebp]
  000af	51		 push	 ecx
  000b0	ff 15 00 00 00
	00		 call	 DWORD PTR __imp__WideCharToMultiByte@32
  000b6	89 45 ec	 mov	 DWORD PTR _retval$[ebp], eax

; 661  :     if (!retval)

  000b9	83 7d ec 00	 cmp	 DWORD PTR _retval$[ebp], 0
  000bd	75 16		 jne	 SHORT $LN1@UnicodeToC

; 662  :         {
; 663  :         delete [] x;

  000bf	8b 45 f0	 mov	 eax, DWORD PTR _x$[ebp]
  000c2	89 45 a8	 mov	 DWORD PTR $T244001[ebp], eax
  000c5	8b 4d a8	 mov	 ecx, DWORD PTR $T244001[ebp]
  000c8	51		 push	 ecx
  000c9	e8 00 00 00 00	 call	 ??_V@YAXPAX@Z		; operator delete[]
  000ce	83 c4 04	 add	 esp, 4

; 664  :         return 0;

  000d1	33 c0		 xor	 eax, eax
  000d3	eb 03		 jmp	 SHORT $LN5@UnicodeToC
$LN1@UnicodeToC:

; 665  :         }
; 666  : 	
; 667  :     return x;

  000d5	8b 45 f0	 mov	 eax, DWORD PTR _x$[ebp]
$LN5@UnicodeToC:

; 668  :     }

  000d8	5f		 pop	 edi
  000d9	5e		 pop	 esi
  000da	5b		 pop	 ebx
  000db	8b e5		 mov	 esp, ebp
  000dd	5d		 pop	 ebp
  000de	c3		 ret	 0
?UnicodeToCodePage@@YAPADHPA_W@Z ENDP			; UnicodeToCodePage
_TEXT	ENDS
PUBLIC	?CirilicaFIX2@@YAXPAD@Z				; CirilicaFIX2
; Function compile flags: /Odtp /ZI /ZX
;	COMDAT ?CirilicaFIX2@@YAXPAD@Z
_TEXT	SEGMENT
_k$ = -8						; size = 4
_i$ = -4						; size = 4
_s$ = 8							; size = 4
?CirilicaFIX2@@YAXPAD@Z PROC				; CirilicaFIX2, COMDAT

; 671  : {

  00000	55		 push	 ebp
  00001	8b ec		 mov	 ebp, esp
  00003	83 ec 48	 sub	 esp, 72			; 00000048H
  00006	53		 push	 ebx
  00007	56		 push	 esi
  00008	57		 push	 edi

; 672  : 	int i = 0;

  00009	c7 45 fc 00 00
	00 00		 mov	 DWORD PTR _i$[ebp], 0

; 673  : 	int k = 0;

  00010	c7 45 f8 00 00
	00 00		 mov	 DWORD PTR _k$[ebp], 0

; 674  : 	for (i = 0, k = 0; s[i]; k ++)

  00017	c7 45 fc 00 00
	00 00		 mov	 DWORD PTR _i$[ebp], 0
  0001e	c7 45 f8 00 00
	00 00		 mov	 DWORD PTR _k$[ebp], 0
  00025	eb 09		 jmp	 SHORT $LN5@CirilicaFI
$LN4@CirilicaFI:
  00027	8b 45 f8	 mov	 eax, DWORD PTR _k$[ebp]
  0002a	83 c0 01	 add	 eax, 1
  0002d	89 45 f8	 mov	 DWORD PTR _k$[ebp], eax
$LN5@CirilicaFI:
  00030	8b 45 08	 mov	 eax, DWORD PTR _s$[ebp]
  00033	03 45 fc	 add	 eax, DWORD PTR _i$[ebp]
  00036	0f be 08	 movsx	 ecx, BYTE PTR [eax]
  00039	85 c9		 test	 ecx, ecx
  0003b	74 58		 je	 SHORT $LN3@CirilicaFI

; 675  : 	{
; 676  : 		if (s[i] < 0)

  0003d	8b 45 08	 mov	 eax, DWORD PTR _s$[ebp]
  00040	03 45 fc	 add	 eax, DWORD PTR _i$[ebp]
  00043	0f be 08	 movsx	 ecx, BYTE PTR [eax]
  00046	85 c9		 test	 ecx, ecx
  00048	7d 30		 jge	 SHORT $LN2@CirilicaFI

; 677  : 		{
; 678  : 			s[k] = (s[i] + 48) * 64 + s[i + 1] + 48;

  0004a	8b 45 08	 mov	 eax, DWORD PTR _s$[ebp]
  0004d	03 45 fc	 add	 eax, DWORD PTR _i$[ebp]
  00050	0f be 08	 movsx	 ecx, BYTE PTR [eax]
  00053	83 c1 30	 add	 ecx, 48			; 00000030H
  00056	c1 e1 06	 shl	 ecx, 6
  00059	8b 55 08	 mov	 edx, DWORD PTR _s$[ebp]
  0005c	03 55 fc	 add	 edx, DWORD PTR _i$[ebp]
  0005f	0f be 42 01	 movsx	 eax, BYTE PTR [edx+1]
  00063	8d 4c 01 30	 lea	 ecx, DWORD PTR [ecx+eax+48]
  00067	8b 55 08	 mov	 edx, DWORD PTR _s$[ebp]
  0006a	03 55 f8	 add	 edx, DWORD PTR _k$[ebp]
  0006d	88 0a		 mov	 BYTE PTR [edx], cl

; 679  : 			i += 2;

  0006f	8b 45 fc	 mov	 eax, DWORD PTR _i$[ebp]
  00072	83 c0 02	 add	 eax, 2
  00075	89 45 fc	 mov	 DWORD PTR _i$[ebp], eax

; 680  : 		}
; 681  : 		else

  00078	eb 19		 jmp	 SHORT $LN1@CirilicaFI
$LN2@CirilicaFI:

; 682  : 		{
; 683  : 			s[k] = s[i];

  0007a	8b 45 08	 mov	 eax, DWORD PTR _s$[ebp]
  0007d	03 45 f8	 add	 eax, DWORD PTR _k$[ebp]
  00080	8b 4d 08	 mov	 ecx, DWORD PTR _s$[ebp]
  00083	03 4d fc	 add	 ecx, DWORD PTR _i$[ebp]
  00086	8a 11		 mov	 dl, BYTE PTR [ecx]
  00088	88 10		 mov	 BYTE PTR [eax], dl

; 684  : 			i ++;

  0008a	8b 45 fc	 mov	 eax, DWORD PTR _i$[ebp]
  0008d	83 c0 01	 add	 eax, 1
  00090	89 45 fc	 mov	 DWORD PTR _i$[ebp], eax
$LN1@CirilicaFI:

; 685  : 		}
; 686  : 	}

  00093	eb 92		 jmp	 SHORT $LN4@CirilicaFI
$LN3@CirilicaFI:

; 687  : 	s[k] = NULL;

  00095	8b 45 08	 mov	 eax, DWORD PTR _s$[ebp]
  00098	03 45 f8	 add	 eax, DWORD PTR _k$[ebp]
  0009b	c6 00 00	 mov	 BYTE PTR [eax], 0

; 688  : }

  0009e	5f		 pop	 edi
  0009f	5e		 pop	 esi
  000a0	5b		 pop	 ebx
  000a1	8b e5		 mov	 esp, ebp
  000a3	5d		 pop	 ebp
  000a4	c3		 ret	 0
?CirilicaFIX2@@YAXPAD@Z ENDP				; CirilicaFIX2
_TEXT	ENDS
PUBLIC	??_C@_0BD@EEMICJMK@?$FLUnBanCharHdd?$FN?3?5?$CFs?$AA@ ; `string'
PUBLIC	??_C@_0BG@LJCMCPPE@?$FLBanCharHdd?$FN?3?5?$CFd?5Hour?$AA@ ; `string'
PUBLIC	??_C@_0BJ@IFDGJLMD@?$FLBanCharHdd?$FN?3?5?$CFs?5?$CFd?5Hour?$AA@ ; `string'
PUBLIC	??_C@_0BI@LGOMGLKB@?$FLUnBanChatHdd?$FN?3?5?$CFd?5Hour?$AA@ ; `string'
PUBLIC	??_C@_0BD@EJNGFJIN@?$FLUnBanChatHdd?$FN?3?5?$CFs?$AA@ ; `string'
PUBLIC	??_C@_0BG@JLNGPLAG@?$FLBanChatHdd?$FN?3?5?$CFd?5Hour?$AA@ ; `string'
PUBLIC	??_C@_0BJ@ILEKCHEG@?$FLBanChatHdd?$FN?3?5?$CFs?5?$CFd?5Hour?$AA@ ; `string'
PUBLIC	?CmdWare@CGMMng@@QAEXPAUOBJECTSTRUCT@@H@Z	; CGMMng::CmdWare
PUBLIC	??_C@_0BD@EKAPJFKL@?$FL?$CFs?$FN?5vip?5level?3?5?$CFd?$AA@ ; `string'
PUBLIC	??_C@_0P@LKDMPCOH@?$FLMake?$FN?5no?5item?$AA@	; `string'
PUBLIC	??_C@_0BB@OMAHHDDI@Name?3?5?$CFs?5HDD?3?5?$CFd?$AA@ ; `string'
PUBLIC	??_C@_0BL@MLCOMLB@?$FLDEBUG?$FN?5Test?5China?5Command?$AA@ ; `string'
PUBLIC	??_C@_0BE@JOEIPHHF@?$FLRECV?$FN?3?5Goblin?3?5?$CL?$CFd?$AA@ ; `string'
PUBLIC	??_C@_0BM@OHLNFCPF@?$FLSEND?$FN?3?5Name?3?5?$CFs?5Goblin?3?5?$CFd?$AA@ ; `string'
PUBLIC	??_C@_0BE@NFLKJBKH@?$FLRECV?$FN?3?5WcoinP?3?5?$CL?$CFd?$AA@ ; `string'
PUBLIC	??_C@_0BM@BBAPMHNA@?$FLSEND?$FN?3?5Name?3?5?$CFs?5WcoinP?3?5?$CFd?$AA@ ; `string'
PUBLIC	??_C@_0BE@IDIMBHPE@?$FLRECV?$FN?3?5WcoinC?3?5?$CL?$CFd?$AA@ ; `string'
PUBLIC	??_C@_0BM@JEENLHOF@?$FLSEND?$FN?3?5Name?3?5?$CFs?5WcoinC?3?5?$CFd?$AA@ ; `string'
PUBLIC	??_C@_0CL@INDNBOFD@?$FLCredit?$FN?3?5You?5have?5sent?5?$CFd?5credi@ ; `string'
PUBLIC	??_C@_0CK@EJECHMEG@?$FLCredit?$FN?3?5Succesed?5added?5?$CFd?5Cred@ ; `string'
PUBLIC	??_C@_0CK@HGJOLEGA@?$FLCredit?$FN?3?5Error?5you?5don?$GAt?5have?5?$CF@ ; `string'
PUBLIC	??_C@_0BH@LEPLDKKA@?$FLNeed?5GoblinPoint?$FN?3?5?$CFd?$AA@ ; `string'
PUBLIC	??_C@_0BC@MKENDDB@?$FLNeed?5WCoinP?$FN?3?5?$CFd?$AA@ ; `string'
PUBLIC	??_C@_0BC@FKJCFFGC@?$FLNeed?5WCoinC?$FN?3?5?$CFd?$AA@ ; `string'
PUBLIC	??_C@_0BC@DNAEPCGG@?$FLNeed?5Credit?$FN?3?5?$CFd?$AA@ ; `string'
PUBLIC	??_C@_0BL@IEMKEHON@?$EA?$FLPremium?5Status?$FN?5?$CL?5?$CFd?5Day?$AA@ ; `string'
PUBLIC	??_C@_0P@JOEEOEIN@?$FLNeed?5Zen?$FN?3?5?$CFd?$AA@ ; `string'
PUBLIC	??_C@_0N@GCMKKGGG@?$FLWCoin?$FN?3?5?$CL?$CFd?$AA@ ; `string'
PUBLIC	__real@4049000000000000
PUBLIC	__real@0000000000000000
PUBLIC	??_C@_0N@NKBNNBDB@?$FLCredit?$FN?3?5?$CFd?$AA@	; `string'
PUBLIC	??_C@_0BA@JDGJNJPO@?$FLCredit?$FN?3?5?$CFs?5?$CFd?$AA@ ; `string'
PUBLIC	??_C@_0BH@IIMMMKAG@?$FLAutoParty?$FN?3?5Recv?5Off?5?$AA@ ; `string'
PUBLIC	??_C@_0BP@FGLEBLPD@?$FL?4?3?3AutoParty?3?3?4?$FN?$FL?$CFs?$FN?5?$CFs?5?$CFd?5?$CFd?$AA@ ; `string'
PUBLIC	??_C@_0BA@EKOHGCJA@?$FLCredits?$FN?3?5?$CL?$CFd?5?$AA@ ; `string'
PUBLIC	??_C@_0BC@BIOCBJNL@?$FLCredits?$FN?3?5?$CFs?5?$CFd?5?$AA@ ; `string'
PUBLIC	?set@PBMSG_HEAD2@@QAEXPAEEEE@Z			; PBMSG_HEAD2::set
PUBLIC	??_C@_0P@FAJCCKAC@?$FLUnBanAllChat?$FN?$AA@	; `string'
PUBLIC	??_C@_0BD@MGPIBDPG@?$FLUnBanAllChat?$FN?3?5?$CFs?$AA@ ; `string'
PUBLIC	??_C@_0M@KCDDKKH@?$FLUnBanPost?$FN?$AA@		; `string'
PUBLIC	??_C@_0BA@NGALHOKC@?$FLUnBanPost?$FN?3?5?$CFs?$AA@ ; `string'
PUBLIC	??_C@_0M@MHFBAJJG@?$FLUnBanChat?$FN?$AA@	; `string'
PUBLIC	??_C@_0BA@EAGNBPNG@?$FLUnBanChat?$FN?3?5?$CFs?$AA@ ; `string'
PUBLIC	??_C@_0BG@GPLFHNOP@?$FLBanAllChat?$FN?3?5?$CFd?5Hour?$AA@ ; `string'
PUBLIC	??_C@_0BJ@JEBLMDLC@?$FLBanAllChat?$FN?3?5?$CFs?5?$CFd?5Hour?$AA@ ; `string'
PUBLIC	??_C@_0BD@DPLJFOCG@?$FLBanChar?$FN?3?5?$CFd?5Hour?$AA@ ; `string'
PUBLIC	??_C@_0BG@LNHKFFGH@?$FLBanChar?$FN?3?5?$CFs?5?$CFd?5Hour?$AA@ ; `string'
PUBLIC	??_C@_0BD@DEANLHKB@?$FLBanPost?$FN?3?5?$CFd?5Hour?$AA@ ; `string'
PUBLIC	??_C@_0BG@BKLAGHFJ@?$FLBanPost?$FN?3?5?$CFs?5?$CFd?5Hour?$AA@ ; `string'
PUBLIC	??_C@_0BD@NAIEPLMG@?$FLBanChat?$FN?3?5?$CFd?5Hour?$AA@ ; `string'
PUBLIC	??_C@_0BG@JPIAIBJF@?$FLBanChat?$FN?3?5?$CFs?5?$CFd?5Hour?$AA@ ; `string'
PUBLIC	??_C@_0BB@FJGOBKEK@User?5SetPosition?$AA@	; `string'
PUBLIC	?CmdSummonChar@CGMMng@@QAEXPAUOBJECTSTRUCT@@PAD@Z ; CGMMng::CmdSummonChar
PUBLIC	?CmdClearInven@CGMMng@@QAEXPAUOBJECTSTRUCT@@@Z	; CGMMng::CmdClearInven
PUBLIC	?CmdClearItem@CGMMng@@QAEXPAUOBJECTSTRUCT@@H@Z	; CGMMng::CmdClearItem
PUBLIC	?CmdClearMonster@CGMMng@@QAEXPAUOBJECTSTRUCT@@H@Z ; CGMMng::CmdClearMonster
PUBLIC	?CmdSummonMonster@CGMMng@@QAEXPAUOBJECTSTRUCT@@PADH@Z ; CGMMng::CmdSummonMonster
PUBLIC	?CmdParty@CGMMng@@QAEXPAUOBJECTSTRUCT@@PAD@Z	; CGMMng::CmdParty
PUBLIC	?CmdAbility@CGMMng@@QAEXPAUOBJECTSTRUCT@@PAD@Z	; CGMMng::CmdAbility
PUBLIC	?ControlFireScreamDoubleAttackDistance@CGMMng@@QAEXPAUOBJECTSTRUCT@@H@Z ; CGMMng::ControlFireScreamDoubleAttackDistance
PUBLIC	?SetInfinityArrowTime@CGMMng@@QAEXPAUOBJECTSTRUCT@@H@Z ; CGMMng::SetInfinityArrowTime
PUBLIC	?ControlInfinityArrowMPConsumption3@CGMMng@@QAEXPAUOBJECTSTRUCT@@H@Z ; CGMMng::ControlInfinityArrowMPConsumption3
PUBLIC	?ControlInfinityArrowMPConsumption2@CGMMng@@QAEXPAUOBJECTSTRUCT@@H@Z ; CGMMng::ControlInfinityArrowMPConsumption2
PUBLIC	?ControlInfinityArrowMPConsumption1@CGMMng@@QAEXPAUOBJECTSTRUCT@@H@Z ; CGMMng::ControlInfinityArrowMPConsumption1
PUBLIC	?ControlInfinityArrowMPConsumption0@CGMMng@@QAEXPAUOBJECTSTRUCT@@H@Z ; CGMMng::ControlInfinityArrowMPConsumption0
PUBLIC	?GetInfinityArrowMPConsumption@CGMMng@@QAEXPAUOBJECTSTRUCT@@@Z ; CGMMng::GetInfinityArrowMPConsumption
PUBLIC	??_C@_0GG@KCCFNKMK@?P?$JH?P?$KI?R?$JB?P?$LH?5?P?$JB?Q?$IG?Q?$JH?P?$IE?P?$JA?Q?$JB?B?$LH?P?$JO?5?P?$JH?Q?$IG?P?$JA@ ; `string'
PUBLIC	??_C@_0BC@HKIICCHC@?1?P?$IF?Q?$JE?P?$JF?P?$JI?Q?$JB?B?$KO?Q?$JI?P?$JC?$AA@ ; `string'
PUBLIC	??_C@_0FH@LGAJDFNC@?P?$JE?Q?$JG?Q?$JB?P?$IH?P?$JF?P?$JN?5?P?$JB?B?$KE?Q?$JE?Q?$JB?B?$LA?P?$IO?5?Q?$JB?B?$KO?Q?$JI@ ; `string'
PUBLIC	??_C@_0CE@FNMOOKMG@?P?$JE?P?$LP?B?$LF?P?$KAHP?P?$JI?Q?$JB?Q?$JE?b?$IE?$JG?P?$IF?P?$JD?B?$LA?P?$II?Q?$JI?Q?$JG?P@ ; `string'
PUBLIC	??_C@_0CI@HNGJLFEM@?P?$JE?P?$LP?B?$LF?P?$KAHP?P?$JD?P?$JK?R?$JB?P?$LH?P?$JI?Q?$JB?Q?$JE?b?$IE?$JG?B?$LH?B?$KO?Q@ ; `string'
PUBLIC	??_C@_0CA@BKKNEKJD@?P?$JE?P?$LP?B?$LF?P?$KAHP?P?$JI?Q?$JB?Q?$JE?b?$IE?$JG?B?$LH?B?$KO?Q?$JI?Q?$JG?P?$JB?B?$KE?$AA@ ; `string'
PUBLIC	??_C@_0BD@NAPGEOAL@?P?$JE?P?$LP?B?$LF?P?$KAHP?Q?$JI?Q?$JG?P?$JB?B?$KE?$AA@ ; `string'
PUBLIC	??_C@_0FB@JCLHMILI@?P?$JE?P?$LP?B?$LF?P?$KA?5HP?5?P?$JD?P?$JK?R?$JB?P?$LH?P?$JI?Q?$JB?Q?$JE?b?$IE?$JG?B?$LH?B@ ; `string'
PUBLIC	??_C@_0BM@JNEAOFEL@?P?$JE?P?$LP?B?$LF?P?$KA?5HP?5?$DN?5?$CF7?40f?5?1?5?$CF7?40f?$AA@ ; `string'
PUBLIC	??_C@_0DF@GLPGGMOI@?$FLKUNDUN?$FN?5Use?5GM?5Command?5?9?$DO?5?$FL?5?$CFs?5@ ; `string'
PUBLIC	??_C@_0BJ@NKJNAJLI@?P?$JE?P?$LP?B?$LF?P?$KA?B?$LL?Q?$ID?P?$JF?P?$JC?Q?$JE?Q?$JB?B?$LB?P?$LC?$AA@ ; `string'
PUBLIC	??_C@_03MCADLMAF@off?$AA@			; `string'
PUBLIC	??_C@_02LIELOMNJ@on?$AA@			; `string'
PUBLIC	??_C@_0N@KELDLAKD@Set?5GuildWar?$AA@		; `string'
PUBLIC	??_C@_0BC@MOJFCJJN@Free?5Ban?9Chatting?$AA@	; `string'
PUBLIC	??_C@_0N@KILIGKJC@Ban?5Chatting?$AA@		; `string'
PUBLIC	??_C@_0N@GPDFKJGB@End?5GuildWar?$AA@		; `string'
PUBLIC	??_C@_0BC@DPMLLFMM@Stop?5BattleSoccer?$AA@	; `string'
PUBLIC	??_C@_0BD@EFECDMGE@Start?5BattleSoccer?$AA@	; `string'
PUBLIC	??_C@_0BC@HIAMIIED@Guild?5SetPosition?$AA@	; `string'
PUBLIC	??_C@_0BB@BCPFBGGF@Guild?5Disconnect?$AA@	; `string'
PUBLIC	??_C@_0BA@MEJDKKFB@User?5Disconnect?$AA@	; `string'
PUBLIC	??_C@_0BH@NPPBDIDN@User?5Stat?5?$CIconnection?$CJ?$AA@ ; `string'
PUBLIC	??_C@_0EA@DPOHDNID@Use?5GM?5Command?5?9?$DO?5?$FL?5?$CFs?5?$FN?7?$FL?5?$CFs?5?$FN?7@ ; `string'
PUBLIC	??_C@_0O@HBGDJJNF@User?5Tracking?$AA@		; `string'
PUBLIC	??_C@_0BG@DHGOFDLN@?$CFs?5?3?5?B?$LA?P?$IB?P?$IF?P?$JD?P?$IF?P?$JD?P?$JA?P?$KL?$AA@ ; `string'
PUBLIC	??_C@_0BG@HFPNPMLD@?$CFs?5?3?5?B?$LA?P?$IB?P?$IF?P?$JD?P?$JH?P?$KI?P?$JB?B?$KG?$AA@ ; `string'
PUBLIC	??_C@_0EB@OBAKBBAF@Use?5GM?5Command?5?9?$DO?5?$FL?5?$CFs?5?$FN?7?$FL?5?$CFs?5?$FN?7@ ; `string'
PUBLIC	??_C@_0O@MIJMFKGB@User?5Watching?$AA@		; `string'
PUBLIC	??_C@_0CM@FGOOHLMI@Use?5GM?5Command?5?9?$DO?5?$FL?5?$CFs?5?$FN?7?$FL?5?$CFs?5?$FN?7@ ; `string'
PUBLIC	??_C@_0L@FKKMDPJD@FIRECRACK?4?$AA@		; `string'
PUBLIC	??_C@_0BC@CHFHKJND@Ability?5Debug?3?5?$CFs?$AA@	; `string'
PUBLIC	??_C@_03GCDBBDDL@Off?$AA@			; `string'
PUBLIC	??_C@_02IAAGKKDJ@On?$AA@			; `string'
PUBLIC	??_C@_0CH@MPGEEBEI@Use?5Test?5Command?5?$FL?$CFs?$FN?$FL?$CFs?$FN?5?1ms_re@ ; `string'
PUBLIC	??_C@_0BD@CJOPDKEC@Master?5Skill?5Reset?$AA@	; `string'
PUBLIC	??_C@_0DD@KJEOLPEF@Use?5Test?5Command?5?$FL?$CFs?$FN?$FL?$CFs?$FN?5?1mlpoi@ ; `string'
PUBLIC	??_C@_0DA@EDNEDAPJ@Use?5Test?5Command?5?$FL?$CFs?$FN?$FL?$CFs?$FN?5?1mlpoi@ ; `string'
PUBLIC	??_C@_0DH@JMPPEKFD@Use?5Test?5Command?5?$FL?$CFs?$FN?$FL?$CFs?$FN?5?1maste@ ; `string'
PUBLIC	??_C@_0DE@FKDLGCCJ@Use?5Test?5Command?5?$FL?$CFs?$FN?$FL?$CFs?$FN?5?1maste@ ; `string'
PUBLIC	??_C@_0BK@BFOILIFL@HP?3?$CF7?41f?1?$CF7?41f?5?0?5SD?3?$CFd?1?$CFd?$AA@ ; `string'
PUBLIC	??_C@_0CE@MIIGFHGE@?$FL?P?$IF?P?$IH?B?$LF?P?$LF?Q?$JI?Q?$IG?P?$JE?P?$IO?Q?$JI?Q?$JG?P?$JB?B?$KE?$FN?5?$CFd?5?9?$DO@ ; `string'
PUBLIC	??_C@_0DA@JJHLOOGN@?$FL?P?$JG?P?$LG?Q?$JB?B?$LB?Q?$JH?P?$LE?P?$JB?B?$KE?Q?$JG?B?$LL?B?$LB?Q?$JB?B?$LH?P?$JC?B?$LA?P@ ; `string'
PUBLIC	??_C@_0DA@KEJPAACH@?$FL?P?$JG?P?$LG?Q?$JB?B?$LB?B?$LB?P?$LC?Q?$JE?B?$LL?Q?$JG?B?$LL?B?$LB?Q?$JB?B?$LH?P?$JC?B?$LA?P@ ; `string'
PUBLIC	??_C@_0BB@KCPNPPNC@?P?$JA?Q?$IM?P?$JB?Q?$IH?Q?$JB?B?$KO?Q?$JI?P?$JC?$AA@ ; `string'
PUBLIC	??_C@_0BH@NKLKKCNO@3?P?$JC?Q?$IH?P?$JA?Q?$IM?P?$JB?Q?$IH?5?Q?$JI?Q?$JE?B?$LA?Q?$II?$AA@ ; `string'
PUBLIC	??_C@_0M@NNAMPIFD@?P?$JA?Q?$IM?P?$JB?Q?$IH?4?4?4?$AA@ ; `string'
PUBLIC	??_C@_0BD@EIKIGGHM@Modi?4Stat?5Complete?$AA@	; `string'
PUBLIC	??_C@_0DL@EOCNLBAC@?P?$JA?Q?$JB?P?$JI?P?$LF?P?$JI?P?$LF?5?P?$JE?Q?$JG?Q?$JB?P?$IH?P?$JF?P?$JN?5?P?$IF?Q?$JE?P?$JF@ ; `string'
PUBLIC	??_C@_0DP@FHDHNGPH@?P?$IF?Q?$JE?P?$JF?P?$JI?5?Q?$JI?Q?$JG?P?$JB?B?$KE?P?$JA?P?$JM?5?P?$JA?P?$KP?Q?$JB?Q?$II?5?B@ ; `string'
PUBLIC	??_C@_0EI@MIBEIAKP@?P?$IF?Q?$JE?P?$JF?P?$JI?5?Q?$JI?Q?$JG?P?$JB?B?$KE?P?$JA?P?$JM?5?P?$JA?P?$KP?Q?$JB?Q?$II?5?B@ ; `string'
PUBLIC	??_C@_0CB@BPHBBAOE@?Q?$JF?P?$JL?Q?$JI?Q?$IG?5?Q?$JF?Q?$II?R?$JB?P?$JC?5?Q?$JF?P?$JG?P?$JA?P?$JM?P?$JF?P?$KL?4?4@ ; `string'
PUBLIC	??_C@_0CP@FANCGKJG@?$FL?5?$CFs?5?$FN?5?P?$JA?P?$JH?5?Q?$JF?P?$JG?P?$JA?P?$JM?P?$JF?P?$KL?5?P?$JA?P?$JO?B?$LF?B@ ; `string'
PUBLIC	??_C@_0N@FDEJNMNN@?P?$JF?B?$KJ?Q?$JB?B?$KO?P?$IF?Q?$JE?$AA@ ; `string'
PUBLIC	??_C@_02DKCKIIND@?$CFs?$AA@			; `string'
PUBLIC	??_C@_0DE@OIJEJFKP@?$CFd?5?P?$JF?B?$KM?B?$LH?P?$IO?P?$IF?Q?$JE?5?Q?$JB?Q?$ID?P?$IF?Q?$JE?P?$JF?P?$JN?P?$JA?P?$JH@ ; `string'
PUBLIC	??_C@_0DD@JAICOBCL@?$CFd?5?P?$JF?B?$KM?B?$LH?P?$IO?P?$IF?Q?$JE?5?Q?$JB?Q?$ID?P?$IF?Q?$JE?P?$JF?P?$JN?B?$LA?P?$IO@ ; `string'
PUBLIC	??_C@_0CK@EEILANAK@PK?B?$LL?Q?$ID?P?$JF?P?$JC?Q?$JB?B?$KG?5?P?$JD?P?$JK?B?$LB?P?$LC?P?$JI?B?$KN?5?P?$JH?P?$KF@ ; `string'
PUBLIC	__$ArrayPad$
PUBLIC	?ManagementProc@CGMMng@@QAEHPAUOBJECTSTRUCT@@PADH@Z ; CGMMng::ManagementProc
EXTRN	?Search@CQuestionAnswer@@QAEXXZ:PROC		; CQuestionAnswer::Search
EXTRN	?g_QuestionAnswer@@3VCQuestionAnswer@@A:BYTE	; g_QuestionAnswer
EXTRN	?exGemStone@JewelsBank@@QAEXHH@Z:PROC		; JewelsBank::exGemStone
EXTRN	?exHighStone@JewelsBank@@QAEXHH@Z:PROC		; JewelsBank::exHighStone
EXTRN	?exLowStone@JewelsBank@@QAEXHH@Z:PROC		; JewelsBank::exLowStone
EXTRN	?exHarmony@JewelsBank@@QAEXHH@Z:PROC		; JewelsBank::exHarmony
EXTRN	?exGuardian@JewelsBank@@QAEXHH@Z:PROC		; JewelsBank::exGuardian
EXTRN	?DSReqDelete@CBanSystem@@QAEXPAD@Z:PROC		; CBanSystem::DSReqDelete
EXTRN	?DSReqInsert@CBanSystem@@QAEXPADKKK@Z:PROC	; CBanSystem::DSReqInsert
EXTRN	?g_BanSystem@@3VCBanSystem@@A:BYTE		; g_BanSystem
EXTRN	?UserBuff@PremiumSystemEx@@QAEXH@Z:PROC		; PremiumSystemEx::UserBuff
EXTRN	?InfoMessage@PremiumSystemEx@@QAEXH@Z:PROC	; PremiumSystemEx::InfoMessage
EXTRN	?g_PremiumSystemEx@@3VPremiumSystemEx@@A:BYTE	; g_PremiumSystemEx
EXTRN	?ProcessStatusStart@CDungeonSiege@@QAEXXZ:PROC	; CDungeonSiege::ProcessStatusStart
EXTRN	?CheckStatus@CDungeonSiege@@QAE_NH@Z:PROC	; CDungeonSiege::CheckStatus
EXTRN	?g_DungeonSiege@@3VCDungeonSiege@@A:BYTE	; g_DungeonSiege
EXTRN	?NewShopRecv@@YAXPAUCG_NEW_CASH_SHOP@@H@Z:PROC	; NewShopRecv
EXTRN	?InSafeZone@ExUser@@QAE_NH@Z:PROC		; ExUser::InSafeZone
EXTRN	?g_ExUser@@3VExUser@@A:BYTE			; g_ExUser
EXTRN	?excreateon@JewelsBank@@QAEXHH@Z:PROC		; JewelsBank::excreateon
EXTRN	?recvcreateonbank@JewelsBank@@QAEXHH@Z:PROC	; JewelsBank::recvcreateonbank
EXTRN	?sendcreateonbank@JewelsBank@@QAEXHH@Z:PROC	; JewelsBank::sendcreateonbank
EXTRN	?GDDelete@CMarriage@@QAEXH@Z:PROC		; CMarriage::GDDelete
EXTRN	?g_Marriage@@3VCMarriage@@A:BYTE		; g_Marriage
EXTRN	?gObjDel@@YAFH@Z:PROC				; gObjDel
EXTRN	?GJPUserClose@@YAXPAD@Z:PROC			; GJPUserClose
EXTRN	?CharacterInformation@cBMQuest@@QAEXH@Z:PROC	; cBMQuest::CharacterInformation
EXTRN	?BMQuest@@3VcBMQuest@@A:BYTE			; BMQuest
EXTRN	?NewAddBrother@Brotherhood@@QAE_NHH@Z:PROC	; Brotherhood::NewAddBrother
EXTRN	?UserExitBrother@Brotherhood@@QAEXH@Z:PROC	; Brotherhood::UserExitBrother
EXTRN	?UserAddedBrother@Brotherhood@@QAEXHPAD@Z:PROC	; Brotherhood::UserAddedBrother
EXTRN	?Teleport@Brotherhood@@QAEXPAUOBJECTSTRUCT@@H@Z:PROC ; Brotherhood::Teleport
EXTRN	?gBrotherhood@@3VBrotherhood@@A:BYTE		; gBrotherhood
EXTRN	?CheckDisconnectFriend@CAccountSecurity@@QAE_NHH@Z:PROC ; CAccountSecurity::CheckDisconnectFriend
EXTRN	?MessageChat@@YAXHPADZZ:PROC			; MessageChat
EXTRN	?Premium@@3VPremiumSystem@@A:BYTE		; Premium
EXTRN	?exlife@JewelsBank@@QAEXHH@Z:PROC		; JewelsBank::exlife
EXTRN	?exsoul@JewelsBank@@QAEXHH@Z:PROC		; JewelsBank::exsoul
EXTRN	?exbless@JewelsBank@@QAEXHH@Z:PROC		; JewelsBank::exbless
EXTRN	?exchaos@JewelsBank@@QAEXHH@Z:PROC		; JewelsBank::exchaos
EXTRN	?GDSaveUserInfo@GameShop@@QAEXH@Z:PROC		; GameShop::GDSaveUserInfo
EXTRN	?gGameShop@@3VGameShop@@A:BYTE			; gGameShop
EXTRN	?exClass@cCreditDonate@@QAEXHPAD@Z:PROC		; cCreditDonate::exClass
EXTRN	?MessaageAllGlobal@@YAXPADZZ:PROC		; MessaageAllGlobal
EXTRN	?exMapName@@YAPADH@Z:PROC			; exMapName
EXTRN	?ExUserDataSend@@YAXH@Z:PROC			; ExUserDataSend
EXTRN	?Chat@cCreditDonate@@QAEXHPADH@Z:PROC		; cCreditDonate::Chat
EXTRN	?gCreditDonate@@3VcCreditDonate@@A:BYTE		; gCreditDonate
EXTRN	?recvlifebank@JewelsBank@@QAEXHH@Z:PROC		; JewelsBank::recvlifebank
EXTRN	?recvsoulbank@JewelsBank@@QAEXHH@Z:PROC		; JewelsBank::recvsoulbank
EXTRN	?recvblessbank@JewelsBank@@QAEXHH@Z:PROC	; JewelsBank::recvblessbank
EXTRN	?recvchaosbank@JewelsBank@@QAEXHH@Z:PROC	; JewelsBank::recvchaosbank
EXTRN	?sendlifebank@JewelsBank@@QAEXHH@Z:PROC		; JewelsBank::sendlifebank
EXTRN	?sendsoulbank@JewelsBank@@QAEXHH@Z:PROC		; JewelsBank::sendsoulbank
EXTRN	?sendblessbank@JewelsBank@@QAEXHH@Z:PROC	; JewelsBank::sendblessbank
EXTRN	?sendchaosbank@JewelsBank@@QAEXHH@Z:PROC	; JewelsBank::sendchaosbank
EXTRN	?gJewelsBank@@3VJewelsBank@@A:BYTE		; gJewelsBank
EXTRN	?CheckInventory@CAccountSecurity@@QAE_NH@Z:PROC	; CAccountSecurity::CheckInventory
EXTRN	?g_AccountSecurity@@3VCAccountSecurity@@A:BYTE	; g_AccountSecurity
EXTRN	?OffExpStart@cOffExp@@QAEXHH@Z:PROC		; cOffExp::OffExpStart
EXTRN	?OffExp@@3VcOffExp@@A:BYTE			; OffExp
EXTRN	?Send@DBSockMng@@QAEHPADH@Z:PROC		; DBSockMng::Send
EXTRN	?cDBSMng@@3VDBSockMng@@A:BYTE			; cDBSMng
EXTRN	_memcpy:PROC
EXTRN	?MsgNormal@@YAXHPADZZ:PROC			; MsgNormal
EXTRN	?SetLeader@PartyClass@@QAE_NHH@Z:PROC		; PartyClass::SetLeader
EXTRN	?OperateGmCommand@CRaklion@@QAEXHH@Z:PROC	; CRaklion::OperateGmCommand
EXTRN	?g_Raklion@@3VCRaklion@@A:BYTE			; g_Raklion
EXTRN	?gObjViewportListProtocolCreate@@YAXPAUOBJECTSTRUCT@@@Z:PROC ; gObjViewportListProtocolCreate
EXTRN	?gObjRemoveBuffEffect@@YAEPAUOBJECTSTRUCT@@H@Z:PROC ; gObjRemoveBuffEffect
EXTRN	?gObjViewportListProtocolDestroy@@YAXPAUOBJECTSTRUCT@@@Z:PROC ; gObjViewportListProtocolDestroy
EXTRN	?gObjApplyBuffEffectDuration@@YAEPAUOBJECTSTRUCT@@HEHEHH@Z:PROC ; gObjApplyBuffEffectDuration
EXTRN	?GCItemListSend@@YAXH@Z:PROC			; GCItemListSend
EXTRN	?gObjInventoryDeleteItem@@YAEHH@Z:PROC		; gObjInventoryDeleteItem
EXTRN	?IsItem@CItem@@QAEHXZ:PROC			; CItem::IsItem
EXTRN	?CheckChaosCardInfo@CChaosCard@@QAEHPADPAVCItem@@@Z:PROC ; CChaosCard::CheckChaosCardInfo
EXTRN	?g_ChaosCard@@3VCChaosCard@@A:BYTE		; g_ChaosCard
EXTRN	??0CItem@@QAE@XZ:PROC				; CItem::CItem
EXTRN	?SetOptionItemByMacro@CItemSystemFor380@@QAEXPAUOBJECTSTRUCT@@EH@Z:PROC ; CItemSystemFor380::SetOptionItemByMacro
EXTRN	?g_kItemSystemFor380@@3VCItemSystemFor380@@A:BYTE ; g_kItemSystemFor380
EXTRN	?StrengthenItemByMacro@CJewelOfHarmonySystem@@QAEXPAUOBJECTSTRUCT@@EEE@Z:PROC ; CJewelOfHarmonySystem::StrengthenItemByMacro
EXTRN	?g_kJewelOfHarmonySystem@@3VCJewelOfHarmonySystem@@A:BYTE ; g_kJewelOfHarmonySystem
EXTRN	?gObjLevelUp@@YA_NPAUOBJECTSTRUCT@@AA_JHH@Z:PROC ; gObjLevelUp
EXTRN	?AddUserData@CRaklionBattleUserMng@@QAEHH@Z:PROC ; CRaklionBattleUserMng::AddUserData
EXTRN	?g_RaklionBattleUserMng@@3VCRaklionBattleUserMng@@A:BYTE ; g_RaklionBattleUserMng
EXTRN	?SendNoticeToUser@TNotice@@SAXHPAX@Z:PROC	; TNotice::SendNoticeToUser
EXTRN	?MakeNoticeMsgEx@TNotice@@SAXPAXEPADZZ:PROC	; TNotice::MakeNoticeMsgEx
EXTRN	?GetAttr@MapClass@@QAEEHH@Z:PROC		; MapClass::GetAttr
EXTRN	?MapC@@3PAVMapClass@@A:BYTE			; MapC
EXTRN	?CGRequestQuestInfo@@YAXH@Z:PROC		; CGRequestQuestInfo
EXTRN	?OperateGMCommand@CIllusionTempleEvent@@QAEXHE@Z:PROC ; CIllusionTempleEvent::OperateGMCommand
EXTRN	?g_IllusionTempleEvent@@3VCIllusionTempleEvent@@A:BYTE ; g_IllusionTempleEvent
EXTRN	?Convert@CItem@@QAEXHEEEEEEPAEEEE@Z:PROC	; CItem::Convert
EXTRN	?SetMode@CDarkSpirit@@QAEXW4ePetItem_Mode@1@H@Z:PROC ; CDarkSpirit::SetMode
EXTRN	?gDarkSpirit@@3PAVCDarkSpirit@@A:BYTE		; gDarkSpirit
EXTRN	?gLevelExperience@@3PAKA:BYTE			; gLevelExperience
EXTRN	?OperateGmCommand@CKanturu@@QAEXHH@Z:PROC	; CKanturu::OperateGmCommand
EXTRN	?g_Kanturu@@3VCKanturu@@A:BYTE			; g_Kanturu
EXTRN	?OperateGmCommand@CCrywolf@@QAEXHH@Z:PROC	; CCrywolf::OperateGmCommand
EXTRN	?g_Crywolf@@3VCCrywolf@@A:BYTE			; g_Crywolf
EXTRN	?OperateGmCommand@CCastleSiege@@QAEXHHPAX@Z:PROC ; CCastleSiege::OperateGmCommand
EXTRN	?g_CastleSiege@@3VCCastleSiege@@A:BYTE		; g_CastleSiege
EXTRN	?giKundunRefillHPSec@@3HA:DWORD			; giKundunRefillHPSec
EXTRN	?giKundunRefillHP@@3HA:DWORD			; giKundunRefillHP
EXTRN	?giKundunRefillHPTime@@3HA:DWORD		; giKundunRefillHPTime
EXTRN	?Output@CLogToFile@@QAAXPADZZ:PROC		; CLogToFile::Output
EXTRN	?gObjSetDuelOption@@YAXHH@Z:PROC		; gObjSetDuelOption
EXTRN	?gObjSetTradeOption@@YAXHH@Z:PROC		; gObjSetTradeOption
EXTRN	?gObjBillRequest@@YAXPAUOBJECTSTRUCT@@@Z:PROC	; gObjBillRequest
EXTRN	?gEnableBattleSoccer@@3HA:DWORD			; gEnableBattleSoccer
EXTRN	?GCManagerGuildWarSet@@YAXPAD0H@Z:PROC		; GCManagerGuildWarSet
EXTRN	?GCGuildWarRequestResult@@YAXPADHH@Z:PROC	; GCGuildWarRequestResult
EXTRN	?GCServerMsgStringSendGuild@@YAXPAU_GUILD_INFO_STRUCT@@PADE@Z:PROC ; GCServerMsgStringSendGuild
EXTRN	?gObjAddMsgSendDelay@@YAXPAUOBJECTSTRUCT@@HHHH@Z:PROC ; gObjAddMsgSendDelay
EXTRN	?GCManagerGuildWarEnd@@YAXPAD@Z:PROC		; GCManagerGuildWarEnd
EXTRN	?BattleSoccerGoalEnd@@YAXH@Z:PROC		; BattleSoccerGoalEnd
EXTRN	?BattleSoccerGoalStart@@YAXH@Z:PROC		; BattleSoccerGoalStart
EXTRN	?Move@CMoveCommand@@QAEHPAUOBJECTSTRUCT@@PAD@Z:PROC ; CMoveCommand::Move
EXTRN	?gMoveCommand@@3VCMoveCommand@@A:BYTE		; gMoveCommand
EXTRN	?GetPkLevel@PartyClass@@QAEDH@Z:PROC		; PartyClass::GetPkLevel
EXTRN	?ExConfig@@3VcExConfigs@@A:BYTE			; ExConfig
EXTRN	?CloseClient@@YAXH@Z:PROC			; CloseClient
EXTRN	?SearchGuild@CGuildClass@@QAEPAU_GUILD_INFO_STRUCT@@PAD@Z:PROC ; CGuildClass::SearchGuild
EXTRN	?Guild@@3VCGuildClass@@A:BYTE			; Guild
EXTRN	?SendClose@ConnectEx@@QAEXHH@Z:PROC		; ConnectEx::SendClose
EXTRN	?g_ConnectEx@@3VConnectEx@@A:QWORD		; g_ConnectEx
EXTRN	?LogAdd@@3P6AXPADZZA:DWORD			; LogAdd
EXTRN	?gObjGetIndex@@YAHPAD@Z:PROC			; gObjGetIndex
EXTRN	?gObjSendUserStatistic@@YAXHHH@Z:PROC		; gObjSendUserStatistic
EXTRN	?gObjTeleport@@YAXHHHH@Z:PROC			; gObjTeleport
EXTRN	?CheckCommand@GMManager@@QAE_NHH@Z:PROC		; GMManager::CheckCommand
EXTRN	?g_GMManager@@3VGMManager@@A:BYTE		; g_GMManager
EXTRN	?gObjFind@@YAPAUOBJECTSTRUCT@@PAD@Z:PROC	; gObjFind
EXTRN	?MsgSendV2@@YAXPAUOBJECTSTRUCT@@PAEH@Z:PROC	; MsgSendV2
EXTRN	?PHeadSubSetB@@YAXPAEEEH@Z:PROC			; PHeadSubSetB
EXTRN	?ClearSlotOption@CSocketOption@@QAEXPAVCItem@@E@Z:PROC ; CSocketOption::ClearSlotOption
EXTRN	?RemakeSocketOption@CSocketOption@@QAEEPAVCItem@@E@Z:PROC ; CSocketOption::RemakeSocketOption
EXTRN	?GCInventoryItemOneSend@@YAXHH@Z:PROC		; GCInventoryItemOneSend
EXTRN	?MakeManualOptionbyCalc@CSocketOption@@QAEEPAVCItem@@EEE@Z:PROC ; CSocketOption::MakeManualOptionbyCalc
EXTRN	?g_SocketOption@@3VCSocketOption@@A:BYTE	; g_SocketOption
EXTRN	?g_bAbilityDebug@@3HA:DWORD			; g_bAbilityDebug
EXTRN	?Clear@CMagicInf@@QAEXXZ:PROC			; CMagicInf::Clear
EXTRN	?CheckRequireStatus@CMasterLevelSkillTreeSystem@@QAEHH@Z:PROC ; CMasterLevelSkillTreeSystem::CheckRequireStatus
EXTRN	?g_MasterSkillSystem@@3VCMasterLevelSkillTreeSystem@@A:BYTE ; g_MasterSkillSystem
EXTRN	?IsMagic@CMagicInf@@QAEHXZ:PROC			; CMagicInf::IsMagic
EXTRN	?GCSendMasterLevelWindowStatus@CMasterLevelSystem@@QAEXPAUOBJECTSTRUCT@@@Z:PROC ; CMasterLevelSystem::GCSendMasterLevelWindowStatus
EXTRN	?GetLevelExperienceTable@CMasterLevelSystem@@QAE_JH@Z:PROC ; CMasterLevelSystem::GetLevelExperienceTable
EXTRN	?LogAddTD@@3P6AXPADZZA:DWORD			; LogAddTD
EXTRN	?CheckIsMasterLevelCharacter@CMasterLevelSystem@@QAEHPAUOBJECTSTRUCT@@@Z:PROC ; CMasterLevelSystem::CheckIsMasterLevelCharacter
EXTRN	?g_MasterLevelSystem@@3VCMasterLevelSystem@@A:BYTE ; g_MasterLevelSystem
EXTRN	?GCManaSend@@YAXHHEEH@Z:PROC			; GCManaSend
EXTRN	?SetManualItemEffect@CItemAddOption@@QAEEPAUOBJECTSTRUCT@@HHH@Z:PROC ; CItemAddOption::SetManualItemEffect
EXTRN	?g_ItemAddOption@@3VCItemAddOption@@A:BYTE	; g_ItemAddOption
EXTRN	?GCReFillSend@@YAXHHEEH@Z:PROC			; GCReFillSend
EXTRN	?g_iFenrirElfMaxDurSmall@@3HA:DWORD		; g_iFenrirElfMaxDurSmall
EXTRN	?MsgOutput@@YAXHPADZZ:PROC			; MsgOutput
EXTRN	?g_iFenrirDefaultMaxDurSmall@@3HA:DWORD		; g_iFenrirDefaultMaxDurSmall
EXTRN	?GCMoneySend@@YAXHK@Z:PROC			; GCMoneySend
EXTRN	?QuestSuccessCommand@CQuestInfo@@QAEXHH@Z:PROC	; CQuestInfo::QuestSuccessCommand
EXTRN	?g_QuestInfo@@3VCQuestInfo@@A:BYTE		; g_QuestInfo
EXTRN	?gObjCloseSet@@YAXHH@Z:PROC			; gObjCloseSet
EXTRN	?DCInfo@@3Vclassdef@@A:BYTE			; DCInfo
EXTRN	?PetItemSerialCreateSend@@YAXHEEEHEEEEEHEE@Z:PROC ; PetItemSerialCreateSend
EXTRN	?ItemGetNumberMake@@YAHHH@Z:PROC		; ItemGetNumberMake
EXTRN	_sprintf:PROC
EXTRN	?ItemAttribute@@3PAUITEM_ATTRIBUTE@@A:BYTE	; ItemAttribute
EXTRN	__imp__wsprintfA:PROC
EXTRN	?GCPkLevelSend@@YAXHE@Z:PROC			; GCPkLevelSend
EXTRN	?SendToAllUser@TNotice@@QAAXPADZZ:PROC		; TNotice::SendToAllUser
EXTRN	?SetPkCount@PartyClass@@QAEXH@Z:PROC		; PartyClass::SetPkCount
EXTRN	?SetPkLevel@PartyClass@@QAEXHHHD@Z:PROC		; PartyClass::SetPkLevel
EXTRN	?gParty@@3VPartyClass@@A:BYTE			; gParty
EXTRN	?SendToUser@TNotice@@QAAXHPADZZ:PROC		; TNotice::SendToUser
EXTRN	??0TNotice@@QAE@E@Z:PROC			; TNotice::TNotice
EXTRN	_rand:PROC
EXTRN	?GetSetOptionName@CSetItemOption@@QAEPADHH@Z:PROC ; CSetItemOption::GetSetOptionName
EXTRN	?gSetItemOption@@3VCSetItemOption@@A:BYTE	; gSetItemOption
EXTRN	?MakeRandomSetItem@@YAXH@Z:PROC			; MakeRandomSetItem
EXTRN	?ItemSerialCreateSend@@YAXHEEEHEEEEEHEE@Z:PROC	; ItemSerialCreateSend
EXTRN	?gObj@@3PAUOBJECTSTRUCT@@A:DWORD		; gObj
EXTRN	?CheckAuthorityCondition@@YA_NHPAUOBJECTSTRUCT@@@Z:PROC ; CheckAuthorityCondition
EXTRN	_memset:PROC
EXTRN	___security_cookie:DWORD
EXTRN	___CxxFrameHandler3:PROC
EXTRN	__fltused:DWORD
EXTRN	@__security_check_cookie@4:PROC
EXTRN	__chkstk:PROC
EXTRN	__ftol2_sse:PROC
EXTRN	_memset:PROC
;	COMDAT ??_C@_0BD@EEMICJMK@?$FLUnBanCharHdd?$FN?3?5?$CFs?$AA@
CONST	SEGMENT
??_C@_0BD@EEMICJMK@?$FLUnBanCharHdd?$FN?3?5?$CFs?$AA@ DB '[UnBanCharHdd]:'
	DB	' %s', 00H					; `string'
CONST	ENDS
;	COMDAT ??_C@_0BG@LJCMCPPE@?$FLBanCharHdd?$FN?3?5?$CFd?5Hour?$AA@
CONST	SEGMENT
??_C@_0BG@LJCMCPPE@?$FLBanCharHdd?$FN?3?5?$CFd?5Hour?$AA@ DB '[BanCharHdd'
	DB	']: %d Hour', 00H				; `string'
CONST	ENDS
;	COMDAT ??_C@_0BJ@IFDGJLMD@?$FLBanCharHdd?$FN?3?5?$CFs?5?$CFd?5Hour?$AA@
CONST	SEGMENT
??_C@_0BJ@IFDGJLMD@?$FLBanCharHdd?$FN?3?5?$CFs?5?$CFd?5Hour?$AA@ DB '[Ban'
	DB	'CharHdd]: %s %d Hour', 00H			; `string'
CONST	ENDS
;	COMDAT ??_C@_0BI@LGOMGLKB@?$FLUnBanChatHdd?$FN?3?5?$CFd?5Hour?$AA@
CONST	SEGMENT
??_C@_0BI@LGOMGLKB@?$FLUnBanChatHdd?$FN?3?5?$CFd?5Hour?$AA@ DB '[UnBanCha'
	DB	'tHdd]: %d Hour', 00H			; `string'
CONST	ENDS
;	COMDAT ??_C@_0BD@EJNGFJIN@?$FLUnBanChatHdd?$FN?3?5?$CFs?$AA@
CONST	SEGMENT
??_C@_0BD@EJNGFJIN@?$FLUnBanChatHdd?$FN?3?5?$CFs?$AA@ DB '[UnBanChatHdd]:'
	DB	' %s', 00H					; `string'
CONST	ENDS
;	COMDAT ??_C@_0BG@JLNGPLAG@?$FLBanChatHdd?$FN?3?5?$CFd?5Hour?$AA@
CONST	SEGMENT
??_C@_0BG@JLNGPLAG@?$FLBanChatHdd?$FN?3?5?$CFd?5Hour?$AA@ DB '[BanChatHdd'
	DB	']: %d Hour', 00H				; `string'
CONST	ENDS
;	COMDAT ??_C@_0BJ@ILEKCHEG@?$FLBanChatHdd?$FN?3?5?$CFs?5?$CFd?5Hour?$AA@
CONST	SEGMENT
??_C@_0BJ@ILEKCHEG@?$FLBanChatHdd?$FN?3?5?$CFs?5?$CFd?5Hour?$AA@ DB '[Ban'
	DB	'ChatHdd]: %s %d Hour', 00H			; `string'
CONST	ENDS
;	COMDAT ??_C@_0BD@EKAPJFKL@?$FL?$CFs?$FN?5vip?5level?3?5?$CFd?$AA@
CONST	SEGMENT
??_C@_0BD@EKAPJFKL@?$FL?$CFs?$FN?5vip?5level?3?5?$CFd?$AA@ DB '[%s] vip l'
	DB	'evel: %d', 00H				; `string'
CONST	ENDS
;	COMDAT ??_C@_0P@LKDMPCOH@?$FLMake?$FN?5no?5item?$AA@
CONST	SEGMENT
??_C@_0P@LKDMPCOH@?$FLMake?$FN?5no?5item?$AA@ DB '[Make] no item', 00H ; `string'
CONST	ENDS
;	COMDAT ??_C@_0BB@OMAHHDDI@Name?3?5?$CFs?5HDD?3?5?$CFd?$AA@
CONST	SEGMENT
??_C@_0BB@OMAHHDDI@Name?3?5?$CFs?5HDD?3?5?$CFd?$AA@ DB 'Name: %s HDD: %d', 00H ; `string'
CONST	ENDS
;	COMDAT ??_C@_0BL@MLCOMLB@?$FLDEBUG?$FN?5Test?5China?5Command?$AA@
CONST	SEGMENT
??_C@_0BL@MLCOMLB@?$FLDEBUG?$FN?5Test?5China?5Command?$AA@ DB '[DEBUG] Te'
	DB	'st China Command', 00H			; `string'
CONST	ENDS
;	COMDAT ??_C@_0BE@JOEIPHHF@?$FLRECV?$FN?3?5Goblin?3?5?$CL?$CFd?$AA@
CONST	SEGMENT
??_C@_0BE@JOEIPHHF@?$FLRECV?$FN?3?5Goblin?3?5?$CL?$CFd?$AA@ DB '[RECV]: G'
	DB	'oblin: +%d', 00H				; `string'
CONST	ENDS
;	COMDAT ??_C@_0BM@OHLNFCPF@?$FLSEND?$FN?3?5Name?3?5?$CFs?5Goblin?3?5?$CFd?$AA@
CONST	SEGMENT
??_C@_0BM@OHLNFCPF@?$FLSEND?$FN?3?5Name?3?5?$CFs?5Goblin?3?5?$CFd?$AA@ DB '['
	DB	'SEND]: Name: %s Goblin: %d', 00H		; `string'
CONST	ENDS
;	COMDAT ??_C@_0BE@NFLKJBKH@?$FLRECV?$FN?3?5WcoinP?3?5?$CL?$CFd?$AA@
CONST	SEGMENT
??_C@_0BE@NFLKJBKH@?$FLRECV?$FN?3?5WcoinP?3?5?$CL?$CFd?$AA@ DB '[RECV]: W'
	DB	'coinP: +%d', 00H				; `string'
CONST	ENDS
;	COMDAT ??_C@_0BM@BBAPMHNA@?$FLSEND?$FN?3?5Name?3?5?$CFs?5WcoinP?3?5?$CFd?$AA@
CONST	SEGMENT
??_C@_0BM@BBAPMHNA@?$FLSEND?$FN?3?5Name?3?5?$CFs?5WcoinP?3?5?$CFd?$AA@ DB '['
	DB	'SEND]: Name: %s WcoinP: %d', 00H		; `string'
CONST	ENDS
;	COMDAT ??_C@_0BE@IDIMBHPE@?$FLRECV?$FN?3?5WcoinC?3?5?$CL?$CFd?$AA@
CONST	SEGMENT
??_C@_0BE@IDIMBHPE@?$FLRECV?$FN?3?5WcoinC?3?5?$CL?$CFd?$AA@ DB '[RECV]: W'
	DB	'coinC: +%d', 00H				; `string'
CONST	ENDS
;	COMDAT ??_C@_0BM@JEENLHOF@?$FLSEND?$FN?3?5Name?3?5?$CFs?5WcoinC?3?5?$CFd?$AA@
CONST	SEGMENT
??_C@_0BM@JEENLHOF@?$FLSEND?$FN?3?5Name?3?5?$CFs?5WcoinC?3?5?$CFd?$AA@ DB '['
	DB	'SEND]: Name: %s WcoinC: %d', 00H		; `string'
CONST	ENDS
;	COMDAT ??_C@_0CL@INDNBOFD@?$FLCredit?$FN?3?5You?5have?5sent?5?$CFd?5credi@
CONST	SEGMENT
??_C@_0CL@INDNBOFD@?$FLCredit?$FN?3?5You?5have?5sent?5?$CFd?5credi@ DB '['
	DB	'Credit]: You have sent %d credits from %s', 00H ; `string'
CONST	ENDS
;	COMDAT ??_C@_0CK@EJECHMEG@?$FLCredit?$FN?3?5Succesed?5added?5?$CFd?5Cred@
CONST	SEGMENT
??_C@_0CK@EJECHMEG@?$FLCredit?$FN?3?5Succesed?5added?5?$CFd?5Cred@ DB '[C'
	DB	'redit]: Succesed added %d Credits to %s', 00H ; `string'
CONST	ENDS
;	COMDAT ??_C@_0CK@HGJOLEGA@?$FLCredit?$FN?3?5Error?5you?5don?$GAt?5have?5?$CF@
CONST	SEGMENT
??_C@_0CK@HGJOLEGA@?$FLCredit?$FN?3?5Error?5you?5don?$GAt?5have?5?$CF@ DB '['
	DB	'Credit]: Error you don`t have %d credits', 00H ; `string'
CONST	ENDS
;	COMDAT ??_C@_0BH@LEPLDKKA@?$FLNeed?5GoblinPoint?$FN?3?5?$CFd?$AA@
CONST	SEGMENT
??_C@_0BH@LEPLDKKA@?$FLNeed?5GoblinPoint?$FN?3?5?$CFd?$AA@ DB '[Need Gobl'
	DB	'inPoint]: %d', 00H				; `string'
CONST	ENDS
;	COMDAT ??_C@_0BC@MKENDDB@?$FLNeed?5WCoinP?$FN?3?5?$CFd?$AA@
CONST	SEGMENT
??_C@_0BC@MKENDDB@?$FLNeed?5WCoinP?$FN?3?5?$CFd?$AA@ DB '[Need WCoinP]: %'
	DB	'd', 00H					; `string'
CONST	ENDS
;	COMDAT ??_C@_0BC@FKJCFFGC@?$FLNeed?5WCoinC?$FN?3?5?$CFd?$AA@
CONST	SEGMENT
??_C@_0BC@FKJCFFGC@?$FLNeed?5WCoinC?$FN?3?5?$CFd?$AA@ DB '[Need WCoinC]: '
	DB	'%d', 00H					; `string'
CONST	ENDS
;	COMDAT ??_C@_0BC@DNAEPCGG@?$FLNeed?5Credit?$FN?3?5?$CFd?$AA@
CONST	SEGMENT
??_C@_0BC@DNAEPCGG@?$FLNeed?5Credit?$FN?3?5?$CFd?$AA@ DB '[Need Credit]: '
	DB	'%d', 00H					; `string'
CONST	ENDS
;	COMDAT ??_C@_0BL@IEMKEHON@?$EA?$FLPremium?5Status?$FN?5?$CL?5?$CFd?5Day?$AA@
CONST	SEGMENT
??_C@_0BL@IEMKEHON@?$EA?$FLPremium?5Status?$FN?5?$CL?5?$CFd?5Day?$AA@ DB '@'
	DB	'[Premium Status] + %d Day', 00H		; `string'
CONST	ENDS
;	COMDAT ??_C@_0P@JOEEOEIN@?$FLNeed?5Zen?$FN?3?5?$CFd?$AA@
CONST	SEGMENT
??_C@_0P@JOEEOEIN@?$FLNeed?5Zen?$FN?3?5?$CFd?$AA@ DB '[Need Zen]: %d', 00H ; `string'
CONST	ENDS
;	COMDAT ??_C@_0N@GCMKKGGG@?$FLWCoin?$FN?3?5?$CL?$CFd?$AA@
CONST	SEGMENT
??_C@_0N@GCMKKGGG@?$FLWCoin?$FN?3?5?$CL?$CFd?$AA@ DB '[WCoin]: +%d', 00H ; `string'
CONST	ENDS
;	COMDAT __real@4049000000000000
CONST	SEGMENT
__real@4049000000000000 DQ 04049000000000000r	; 50
CONST	ENDS
;	COMDAT __real@0000000000000000
CONST	SEGMENT
__real@0000000000000000 DQ 00000000000000000r	; 0
CONST	ENDS
;	COMDAT ??_C@_0N@NKBNNBDB@?$FLCredit?$FN?3?5?$CFd?$AA@
CONST	SEGMENT
??_C@_0N@NKBNNBDB@?$FLCredit?$FN?3?5?$CFd?$AA@ DB '[Credit]: %d', 00H ; `string'
CONST	ENDS
;	COMDAT ??_C@_0BA@JDGJNJPO@?$FLCredit?$FN?3?5?$CFs?5?$CFd?$AA@
CONST	SEGMENT
??_C@_0BA@JDGJNJPO@?$FLCredit?$FN?3?5?$CFs?5?$CFd?$AA@ DB '[Credit]: %s %'
	DB	'd', 00H					; `string'
CONST	ENDS
;	COMDAT ??_C@_0BH@IIMMMKAG@?$FLAutoParty?$FN?3?5Recv?5Off?5?$AA@
CONST	SEGMENT
??_C@_0BH@IIMMMKAG@?$FLAutoParty?$FN?3?5Recv?5Off?5?$AA@ DB '[AutoParty]:'
	DB	' Recv Off ', 00H				; `string'
CONST	ENDS
;	COMDAT ??_C@_0BP@FGLEBLPD@?$FL?4?3?3AutoParty?3?3?4?$FN?$FL?$CFs?$FN?5?$CFs?5?$CFd?5?$CFd?$AA@
CONST	SEGMENT
??_C@_0BP@FGLEBLPD@?$FL?4?3?3AutoParty?3?3?4?$FN?$FL?$CFs?$FN?5?$CFs?5?$CFd?5?$CFd?$AA@ DB '['
	DB	'.::AutoParty::.][%s] %s %d %d', 00H		; `string'
CONST	ENDS
;	COMDAT ??_C@_0BA@EKOHGCJA@?$FLCredits?$FN?3?5?$CL?$CFd?5?$AA@
CONST	SEGMENT
??_C@_0BA@EKOHGCJA@?$FLCredits?$FN?3?5?$CL?$CFd?5?$AA@ DB '[Credits]: +%d'
	DB	' ', 00H					; `string'
CONST	ENDS
;	COMDAT ??_C@_0BC@BIOCBJNL@?$FLCredits?$FN?3?5?$CFs?5?$CFd?5?$AA@
CONST	SEGMENT
??_C@_0BC@BIOCBJNL@?$FLCredits?$FN?3?5?$CFs?5?$CFd?5?$AA@ DB '[Credits]: '
	DB	'%s %d ', 00H				; `string'
CONST	ENDS
;	COMDAT ??_C@_0P@FAJCCKAC@?$FLUnBanAllChat?$FN?$AA@
CONST	SEGMENT
??_C@_0P@FAJCCKAC@?$FLUnBanAllChat?$FN?$AA@ DB '[UnBanAllChat]', 00H ; `string'
CONST	ENDS
;	COMDAT ??_C@_0BD@MGPIBDPG@?$FLUnBanAllChat?$FN?3?5?$CFs?$AA@
CONST	SEGMENT
??_C@_0BD@MGPIBDPG@?$FLUnBanAllChat?$FN?3?5?$CFs?$AA@ DB '[UnBanAllChat]:'
	DB	' %s', 00H					; `string'
CONST	ENDS
;	COMDAT ??_C@_0M@KCDDKKH@?$FLUnBanPost?$FN?$AA@
CONST	SEGMENT
??_C@_0M@KCDDKKH@?$FLUnBanPost?$FN?$AA@ DB '[UnBanPost]', 00H ; `string'
CONST	ENDS
;	COMDAT ??_C@_0BA@NGALHOKC@?$FLUnBanPost?$FN?3?5?$CFs?$AA@
CONST	SEGMENT
??_C@_0BA@NGALHOKC@?$FLUnBanPost?$FN?3?5?$CFs?$AA@ DB '[UnBanPost]: %s', 00H ; `string'
CONST	ENDS
;	COMDAT ??_C@_0M@MHFBAJJG@?$FLUnBanChat?$FN?$AA@
CONST	SEGMENT
??_C@_0M@MHFBAJJG@?$FLUnBanChat?$FN?$AA@ DB '[UnBanChat]', 00H ; `string'
CONST	ENDS
;	COMDAT ??_C@_0BA@EAGNBPNG@?$FLUnBanChat?$FN?3?5?$CFs?$AA@
CONST	SEGMENT
??_C@_0BA@EAGNBPNG@?$FLUnBanChat?$FN?3?5?$CFs?$AA@ DB '[UnBanChat]: %s', 00H ; `string'
CONST	ENDS
;	COMDAT ??_C@_0BG@GPLFHNOP@?$FLBanAllChat?$FN?3?5?$CFd?5Hour?$AA@
CONST	SEGMENT
??_C@_0BG@GPLFHNOP@?$FLBanAllChat?$FN?3?5?$CFd?5Hour?$AA@ DB '[BanAllChat'
	DB	']: %d Hour', 00H				; `string'
CONST	ENDS
;	COMDAT ??_C@_0BJ@JEBLMDLC@?$FLBanAllChat?$FN?3?5?$CFs?5?$CFd?5Hour?$AA@
CONST	SEGMENT
??_C@_0BJ@JEBLMDLC@?$FLBanAllChat?$FN?3?5?$CFs?5?$CFd?5Hour?$AA@ DB '[Ban'
	DB	'AllChat]: %s %d Hour', 00H			; `string'
CONST	ENDS
;	COMDAT ??_C@_0BD@DPLJFOCG@?$FLBanChar?$FN?3?5?$CFd?5Hour?$AA@
CONST	SEGMENT
??_C@_0BD@DPLJFOCG@?$FLBanChar?$FN?3?5?$CFd?5Hour?$AA@ DB '[BanChar]: %d '
	DB	'Hour', 00H					; `string'
CONST	ENDS
;	COMDAT ??_C@_0BG@LNHKFFGH@?$FLBanChar?$FN?3?5?$CFs?5?$CFd?5Hour?$AA@
CONST	SEGMENT
??_C@_0BG@LNHKFFGH@?$FLBanChar?$FN?3?5?$CFs?5?$CFd?5Hour?$AA@ DB '[BanCha'
	DB	'r]: %s %d Hour', 00H			; `string'
CONST	ENDS
;	COMDAT ??_C@_0BD@DEANLHKB@?$FLBanPost?$FN?3?5?$CFd?5Hour?$AA@
CONST	SEGMENT
??_C@_0BD@DEANLHKB@?$FLBanPost?$FN?3?5?$CFd?5Hour?$AA@ DB '[BanPost]: %d '
	DB	'Hour', 00H					; `string'
CONST	ENDS
;	COMDAT ??_C@_0BG@BKLAGHFJ@?$FLBanPost?$FN?3?5?$CFs?5?$CFd?5Hour?$AA@
CONST	SEGMENT
??_C@_0BG@BKLAGHFJ@?$FLBanPost?$FN?3?5?$CFs?5?$CFd?5Hour?$AA@ DB '[BanPos'
	DB	't]: %s %d Hour', 00H			; `string'
CONST	ENDS
;	COMDAT ??_C@_0BD@NAIEPLMG@?$FLBanChat?$FN?3?5?$CFd?5Hour?$AA@
CONST	SEGMENT
??_C@_0BD@NAIEPLMG@?$FLBanChat?$FN?3?5?$CFd?5Hour?$AA@ DB '[BanChat]: %d '
	DB	'Hour', 00H					; `string'
CONST	ENDS
;	COMDAT ??_C@_0BG@JPIAIBJF@?$FLBanChat?$FN?3?5?$CFs?5?$CFd?5Hour?$AA@
CONST	SEGMENT
??_C@_0BG@JPIAIBJF@?$FLBanChat?$FN?3?5?$CFs?5?$CFd?5Hour?$AA@ DB '[BanCha'
	DB	't]: %s %d Hour', 00H			; `string'
CONST	ENDS
;	COMDAT ??_C@_0BB@FJGOBKEK@User?5SetPosition?$AA@
CONST	SEGMENT
??_C@_0BB@FJGOBKEK@User?5SetPosition?$AA@ DB 'User SetPosition', 00H ; `string'
CONST	ENDS
;	COMDAT ??_C@_0GG@KCCFNKMK@?P?$JH?P?$KI?R?$JB?P?$LH?5?P?$JB?Q?$IG?Q?$JH?P?$IE?P?$JA?Q?$JB?B?$LH?P?$JO?5?P?$JH?Q?$IG?P?$JA@
CONST	SEGMENT
??_C@_0GG@KCCFNKMK@?P?$JH?P?$KI?R?$JB?P?$LH?5?P?$JB?Q?$IG?Q?$JH?P?$IE?P?$JA?Q?$JB?B?$LH?P?$JO?5?P?$JH?Q?$IG?P?$JA@ DB 0d0H
	DB	097H, 0d0H, 0a8H, 0d2H, 091H, 0d0H, 0b7H, ' ', 0d0H, 091H, 0d1H
	DB	086H, 0d1H, 097H, 0d0H, 084H, 0d0H, 090H, 0d1H, 091H, 0c2H, 0b7H
	DB	0d0H, 09eH, ' ', 0d0H, 097H, 0d1H, 086H, 0d0H, 090H, 0d0H, 0b7H
	DB	' ', 0d0H, 091H, 0d0H, 092H, 0d0H, 097H, 0d2H, 090H, 0d0H, 090H
	DB	0d0H, 09cH, 0c2H, 0b5H, 0d1H, 097H, ' ', 0d0H, 097H, 0d0H, 0a2H
	DB	' ', 0d1H, 098H, 0d1H, 086H, ' ', 0d1H, 095H, 0d1H, 088H, 0d0H
	DB	085H, 0d0H, 090H, 0d2H, 091H, 0d0H, 09fH, 0d2H, 091H, 0d0H, 0a9H
	DB	'. (', 0d1H, 098H, 0d0H, 0a3H, 0d1H, 098H, 0d1H, 094H, 0d0H, 094H
	DB	0d0H, 0aaH, 0c2H, 0b5H, 0d0H, 0b5H, ':%d)', 00H ; `string'
CONST	ENDS
;	COMDAT ??_C@_0BC@HKIICCHC@?1?P?$IF?Q?$JE?P?$JF?P?$JI?Q?$JB?B?$KO?Q?$JI?P?$JC?$AA@
CONST	SEGMENT
??_C@_0BC@HKIICCHC@?1?P?$IF?Q?$JE?P?$JF?P?$JI?Q?$JB?B?$KO?Q?$JI?P?$JC?$AA@ DB '/'
	DB	0d0H, 085H, 0d1H, 094H, 0d0H, 095H, 0d0H, 098H, 0d1H, 091H, 0c2H
	DB	0aeH, 0d1H, 098H, 0d0H, 092H, 00H		; `string'
CONST	ENDS
;	COMDAT ??_C@_0FH@LGAJDFNC@?P?$JE?Q?$JG?Q?$JB?P?$IH?P?$JF?P?$JN?5?P?$JB?B?$KE?Q?$JE?Q?$JB?B?$LA?P?$IO?5?Q?$JB?B?$KO?Q?$JI@
CONST	SEGMENT
??_C@_0FH@LGAJDFNC@?P?$JE?Q?$JG?Q?$JB?P?$IH?P?$JF?P?$JN?5?P?$JB?B?$KE?Q?$JE?Q?$JB?B?$LA?P?$IO?5?Q?$JB?B?$KO?Q?$JI@ DB 0d0H
	DB	094H, 0d1H, 096H, 0d1H, 091H, 0d0H, 087H, 0d0H, 095H, 0d0H, 09dH
	DB	' ', 0d0H, 091H, 0c2H, 0a4H, 0d1H, 094H, 0d1H, 091H, 0c2H, 0b0H
	DB	0d0H, 08eH, ' ', 0d1H, 091H, 0c2H, 0aeH, 0d1H, 098H, 0d0H, 092H
	DB	0c2H, 0b5H, 0d0H, 097H, 0d1H, 095H, 0d1H, 08aH, 0d0H, 085H, 0d0H
	DB	090H, 0d2H, 091H, 0d0H, 09fH, 0d2H, 091H, 0d0H, 0a9H, '. ', 0c2H
	DB	0bbH, 0d1H, 085H, 0c2H, 0b7H, 0d0H, 09eH, ' ', 0d1H, 097H, 0c2H
	DB	0acH, 0c2H, 0b0H, 0d0H, 0b1H, ' ', 0d0H, 097H, 0d0H, 09fH, 0d1H
	DB	098H, 0d1H, 098H, 0d1H, 097H, 0d0H, 0b4H, 00H ; `string'
CONST	ENDS
;	COMDAT ??_C@_0CE@FNMOOKMG@?P?$JE?P?$LP?B?$LF?P?$KAHP?P?$JI?Q?$JB?Q?$JE?b?$IE?$JG?P?$IF?P?$JD?B?$LA?P?$II?Q?$JI?Q?$JG?P@
CONST	SEGMENT
??_C@_0CE@FNMOOKMG@?P?$JE?P?$LP?B?$LF?P?$KAHP?P?$JI?Q?$JB?Q?$JE?b?$IE?$JG?P?$IF?P?$JD?B?$LA?P?$II?Q?$JI?Q?$JG?P@ DB 0d0H
	DB	094H, 0d0H, 0bfH, 0c2H, 0b5H, 0d0H, 0a0H, 'HP', 0d0H, 098H, 0d1H
	DB	091H, 0d1H, 094H, 0e2H, 084H, 096H, 0d0H, 085H, 0d0H, 093H, 0c2H
	DB	0b0H, 0d0H, 088H, 0d1H, 098H, 0d1H, 096H, 0d0H, 091H, 0c2H, 0a4H
	DB	00H						; `string'
CONST	ENDS
;	COMDAT ??_C@_0CI@HNGJLFEM@?P?$JE?P?$LP?B?$LF?P?$KAHP?P?$JD?P?$JK?R?$JB?P?$LH?P?$JI?Q?$JB?Q?$JE?b?$IE?$JG?B?$LH?B?$KO?Q@
CONST	SEGMENT
??_C@_0CI@HNGJLFEM@?P?$JE?P?$LP?B?$LF?P?$KAHP?P?$JD?P?$JK?R?$JB?P?$LH?P?$JI?Q?$JB?Q?$JE?b?$IE?$JG?B?$LH?B?$KO?Q@ DB 0d0H
	DB	094H, 0d0H, 0bfH, 0c2H, 0b5H, 0d0H, 0a0H, 'HP', 0d0H, 093H, 0d0H
	DB	09aH, 0d2H, 091H, 0d0H, 0b7H, 0d0H, 098H, 0d1H, 091H, 0d1H, 094H
	DB	0e2H, 084H, 096H, 0c2H, 0b7H, 0c2H, 0aeH, 0d1H, 098H, 0d1H, 096H
	DB	0d0H, 091H, 0c2H, 0a4H, 00H			; `string'
CONST	ENDS
;	COMDAT ??_C@_0CA@BKKNEKJD@?P?$JE?P?$LP?B?$LF?P?$KAHP?P?$JI?Q?$JB?Q?$JE?b?$IE?$JG?B?$LH?B?$KO?Q?$JI?Q?$JG?P?$JB?B?$KE?$AA@
CONST	SEGMENT
??_C@_0CA@BKKNEKJD@?P?$JE?P?$LP?B?$LF?P?$KAHP?P?$JI?Q?$JB?Q?$JE?b?$IE?$JG?B?$LH?B?$KO?Q?$JI?Q?$JG?P?$JB?B?$KE?$AA@ DB 0d0H
	DB	094H, 0d0H, 0bfH, 0c2H, 0b5H, 0d0H, 0a0H, 'HP', 0d0H, 098H, 0d1H
	DB	091H, 0d1H, 094H, 0e2H, 084H, 096H, 0c2H, 0b7H, 0c2H, 0aeH, 0d1H
	DB	098H, 0d1H, 096H, 0d0H, 091H, 0c2H, 0a4H, 00H ; `string'
CONST	ENDS
;	COMDAT ??_C@_0BD@NAPGEOAL@?P?$JE?P?$LP?B?$LF?P?$KAHP?Q?$JI?Q?$JG?P?$JB?B?$KE?$AA@
CONST	SEGMENT
??_C@_0BD@NAPGEOAL@?P?$JE?P?$LP?B?$LF?P?$KAHP?Q?$JI?Q?$JG?P?$JB?B?$KE?$AA@ DB 0d0H
	DB	094H, 0d0H, 0bfH, 0c2H, 0b5H, 0d0H, 0a0H, 'HP', 0d1H, 098H, 0d1H
	DB	096H, 0d0H, 091H, 0c2H, 0a4H, 00H		; `string'
CONST	ENDS
;	COMDAT ??_C@_0FB@JCLHMILI@?P?$JE?P?$LP?B?$LF?P?$KA?5HP?5?P?$JD?P?$JK?R?$JB?P?$LH?P?$JI?Q?$JB?Q?$JE?b?$IE?$JG?B?$LH?B@
CONST	SEGMENT
??_C@_0FB@JCLHMILI@?P?$JE?P?$LP?B?$LF?P?$KA?5HP?5?P?$JD?P?$JK?R?$JB?P?$LH?P?$JI?Q?$JB?Q?$JE?b?$IE?$JG?B?$LH?B@ DB 0d0H
	DB	094H, 0d0H, 0bfH, 0c2H, 0b5H, 0d0H, 0a0H, ' HP ', 0d0H, 093H, 0d0H
	DB	09aH, 0d2H, 091H, 0d0H, 0b7H, 0d0H, 098H, 0d1H, 091H, 0d1H, 094H
	DB	0e2H, 084H, 096H, 0c2H, 0b7H, 0c2H, 0aeH, ' = %d ', 0d0H, 098H
	DB	0d1H, 091H, 0d1H, 094H, 0e2H, 084H, 096H, 0c2H, 0b7H, 0c2H, 0aeH
	DB	' = %d ', 0d0H, 098H, 0d1H, 091H, 0d1H, 094H, 0e2H, 084H, 096H
	DB	0d0H, 085H, 0d0H, 093H, 0c2H, 0b0H, 0d0H, 088H, ' = %d', 00H ; `string'
CONST	ENDS
;	COMDAT ??_C@_0BM@JNEAOFEL@?P?$JE?P?$LP?B?$LF?P?$KA?5HP?5?$DN?5?$CF7?40f?5?1?5?$CF7?40f?$AA@
CONST	SEGMENT
??_C@_0BM@JNEAOFEL@?P?$JE?P?$LP?B?$LF?P?$KA?5HP?5?$DN?5?$CF7?40f?5?1?5?$CF7?40f?$AA@ DB 0d0H
	DB	094H, 0d0H, 0bfH, 0c2H, 0b5H, 0d0H, 0a0H, ' HP = %7.0f / %7.0f'
	DB	00H						; `string'
CONST	ENDS
;	COMDAT ??_C@_0DF@GLPGGMOI@?$FLKUNDUN?$FN?5Use?5GM?5Command?5?9?$DO?5?$FL?5?$CFs?5@
CONST	SEGMENT
??_C@_0DF@GLPGGMOI@?$FLKUNDUN?$FN?5Use?5GM?5Command?5?9?$DO?5?$FL?5?$CFs?5@ DB '['
	DB	'KUNDUN] Use GM Command -> [ %s ]', 09H, '[ %s ]', 09H, '[ %s '
	DB	'] : %s', 00H				; `string'
CONST	ENDS
;	COMDAT ??_C@_0BJ@NKJNAJLI@?P?$JE?P?$LP?B?$LF?P?$KA?B?$LL?Q?$ID?P?$JF?P?$JC?Q?$JE?Q?$JB?B?$LB?P?$LC?$AA@
CONST	SEGMENT
??_C@_0BJ@NKJNAJLI@?P?$JE?P?$LP?B?$LF?P?$KA?B?$LL?Q?$ID?P?$JF?P?$JC?Q?$JE?Q?$JB?B?$LB?P?$LC?$AA@ DB 0d0H
	DB	094H, 0d0H, 0bfH, 0c2H, 0b5H, 0d0H, 0a0H, 0c2H, 0bbH, 0d1H, 083H
	DB	0d0H, 095H, 0d0H, 092H, 0d1H, 094H, 0d1H, 091H, 0c2H, 0b1H, 0d0H
	DB	0b2H, 00H					; `string'
CONST	ENDS
;	COMDAT ??_C@_03MCADLMAF@off?$AA@
CONST	SEGMENT
??_C@_03MCADLMAF@off?$AA@ DB 'off', 00H			; `string'
CONST	ENDS
;	COMDAT ??_C@_02LIELOMNJ@on?$AA@
CONST	SEGMENT
??_C@_02LIELOMNJ@on?$AA@ DB 'on', 00H			; `string'
CONST	ENDS
;	COMDAT ??_C@_0N@KELDLAKD@Set?5GuildWar?$AA@
CONST	SEGMENT
??_C@_0N@KELDLAKD@Set?5GuildWar?$AA@ DB 'Set GuildWar', 00H ; `string'
CONST	ENDS
;	COMDAT ??_C@_0BC@MOJFCJJN@Free?5Ban?9Chatting?$AA@
CONST	SEGMENT
??_C@_0BC@MOJFCJJN@Free?5Ban?9Chatting?$AA@ DB 'Free Ban-Chatting', 00H ; `string'
CONST	ENDS
;	COMDAT ??_C@_0N@KILIGKJC@Ban?5Chatting?$AA@
CONST	SEGMENT
??_C@_0N@KILIGKJC@Ban?5Chatting?$AA@ DB 'Ban Chatting', 00H ; `string'
CONST	ENDS
;	COMDAT ??_C@_0N@GPDFKJGB@End?5GuildWar?$AA@
CONST	SEGMENT
??_C@_0N@GPDFKJGB@End?5GuildWar?$AA@ DB 'End GuildWar', 00H ; `string'
CONST	ENDS
;	COMDAT ??_C@_0BC@DPMLLFMM@Stop?5BattleSoccer?$AA@
CONST	SEGMENT
??_C@_0BC@DPMLLFMM@Stop?5BattleSoccer?$AA@ DB 'Stop BattleSoccer', 00H ; `string'
CONST	ENDS
;	COMDAT ??_C@_0BD@EFECDMGE@Start?5BattleSoccer?$AA@
CONST	SEGMENT
??_C@_0BD@EFECDMGE@Start?5BattleSoccer?$AA@ DB 'Start BattleSoccer', 00H ; `string'
CONST	ENDS
;	COMDAT ??_C@_0BC@HIAMIIED@Guild?5SetPosition?$AA@
CONST	SEGMENT
??_C@_0BC@HIAMIIED@Guild?5SetPosition?$AA@ DB 'Guild SetPosition', 00H ; `string'
CONST	ENDS
;	COMDAT ??_C@_0BB@BCPFBGGF@Guild?5Disconnect?$AA@
CONST	SEGMENT
??_C@_0BB@BCPFBGGF@Guild?5Disconnect?$AA@ DB 'Guild Disconnect', 00H ; `string'
CONST	ENDS
;	COMDAT ??_C@_0BA@MEJDKKFB@User?5Disconnect?$AA@
CONST	SEGMENT
??_C@_0BA@MEJDKKFB@User?5Disconnect?$AA@ DB 'User Disconnect', 00H ; `string'
CONST	ENDS
;	COMDAT ??_C@_0BH@NPPBDIDN@User?5Stat?5?$CIconnection?$CJ?$AA@
CONST	SEGMENT
??_C@_0BH@NPPBDIDN@User?5Stat?5?$CIconnection?$CJ?$AA@ DB 'User Stat (con'
	DB	'nection)', 00H				; `string'
CONST	ENDS
;	COMDAT ??_C@_0EA@DPOHDNID@Use?5GM?5Command?5?9?$DO?5?$FL?5?$CFs?5?$FN?7?$FL?5?$CFs?5?$FN?7@
CONST	SEGMENT
??_C@_0EA@DPOHDNID@Use?5GM?5Command?5?9?$DO?5?$FL?5?$CFs?5?$FN?7?$FL?5?$CFs?5?$FN?7@ DB 'U'
	DB	'se GM Command -> [ %s ]', 09H, '[ %s ]', 09H, '[ %s ] / Targe'
	DB	't : [%s][%s] : %s', 00H			; `string'
CONST	ENDS
;	COMDAT ??_C@_0O@HBGDJJNF@User?5Tracking?$AA@
CONST	SEGMENT
??_C@_0O@HBGDJJNF@User?5Tracking?$AA@ DB 'User Tracking', 00H ; `string'
CONST	ENDS
;	COMDAT ??_C@_0BG@DHGOFDLN@?$CFs?5?3?5?B?$LA?P?$IB?P?$IF?P?$JD?P?$IF?P?$JD?P?$JA?P?$KL?$AA@
CONST	SEGMENT
??_C@_0BG@DHGOFDLN@?$CFs?5?3?5?B?$LA?P?$IB?P?$IF?P?$JD?P?$IF?P?$JD?P?$JA?P?$KL?$AA@ DB '%'
	DB	's : ', 0c2H, 0b0H, 0d0H, 081H, 0d0H, 085H, 0d0H, 093H, 0d0H, 085H
	DB	0d0H, 093H, 0d0H, 090H, 0d0H, 0abH, 00H	; `string'
CONST	ENDS
;	COMDAT ??_C@_0BG@HFPNPMLD@?$CFs?5?3?5?B?$LA?P?$IB?P?$IF?P?$JD?P?$JH?P?$KI?P?$JB?B?$KG?$AA@
CONST	SEGMENT
??_C@_0BG@HFPNPMLD@?$CFs?5?3?5?B?$LA?P?$IB?P?$IF?P?$JD?P?$JH?P?$KI?P?$JB?B?$KG?$AA@ DB '%'
	DB	's : ', 0c2H, 0b0H, 0d0H, 081H, 0d0H, 085H, 0d0H, 093H, 0d0H, 097H
	DB	0d0H, 0a8H, 0d0H, 091H, 0c2H, 0a6H, 00H	; `string'
CONST	ENDS
;	COMDAT ??_C@_0EB@OBAKBBAF@Use?5GM?5Command?5?9?$DO?5?$FL?5?$CFs?5?$FN?7?$FL?5?$CFs?5?$FN?7@
CONST	SEGMENT
??_C@_0EB@OBAKBBAF@Use?5GM?5Command?5?9?$DO?5?$FL?5?$CFs?5?$FN?7?$FL?5?$CFs?5?$FN?7@ DB 'U'
	DB	'se GM Command -> [ %s ]', 09H, '[ %s ]', 09H, '[ %s ] / Targe'
	DB	't : [%s][%s] : %s ', 00H			; `string'
CONST	ENDS
;	COMDAT ??_C@_0O@MIJMFKGB@User?5Watching?$AA@
CONST	SEGMENT
??_C@_0O@MIJMFKGB@User?5Watching?$AA@ DB 'User Watching', 00H ; `string'
CONST	ENDS
;	COMDAT ??_C@_0CM@FGOOHLMI@Use?5GM?5Command?5?9?$DO?5?$FL?5?$CFs?5?$FN?7?$FL?5?$CFs?5?$FN?7@
CONST	SEGMENT
??_C@_0CM@FGOOHLMI@Use?5GM?5Command?5?9?$DO?5?$FL?5?$CFs?5?$FN?7?$FL?5?$CFs?5?$FN?7@ DB 'U'
	DB	'se GM Command -> [ %s ]', 09H, '[ %s ]', 09H, '[ %s ] : %s', 00H ; `string'
CONST	ENDS
;	COMDAT ??_C@_0L@FKKMDPJD@FIRECRACK?4?$AA@
CONST	SEGMENT
??_C@_0L@FKKMDPJD@FIRECRACK?4?$AA@ DB 'FIRECRACK.', 00H	; `string'
CONST	ENDS
;	COMDAT ??_C@_0BC@CHFHKJND@Ability?5Debug?3?5?$CFs?$AA@
CONST	SEGMENT
??_C@_0BC@CHFHKJND@Ability?5Debug?3?5?$CFs?$AA@ DB 'Ability Debug: %s', 00H ; `string'
CONST	ENDS
;	COMDAT ??_C@_03GCDBBDDL@Off?$AA@
CONST	SEGMENT
??_C@_03GCDBBDDL@Off?$AA@ DB 'Off', 00H			; `string'
CONST	ENDS
;	COMDAT ??_C@_02IAAGKKDJ@On?$AA@
CONST	SEGMENT
??_C@_02IAAGKKDJ@On?$AA@ DB 'On', 00H			; `string'
CONST	ENDS
;	COMDAT ??_C@_0CH@MPGEEBEI@Use?5Test?5Command?5?$FL?$CFs?$FN?$FL?$CFs?$FN?5?1ms_re@
CONST	SEGMENT
??_C@_0CH@MPGEEBEI@Use?5Test?5Command?5?$FL?$CFs?$FN?$FL?$CFs?$FN?5?1ms_re@ DB 'U'
	DB	'se Test Command [%s][%s] /ms_reset %d', 00H	; `string'
CONST	ENDS
;	COMDAT ??_C@_0BD@CJOPDKEC@Master?5Skill?5Reset?$AA@
CONST	SEGMENT
??_C@_0BD@CJOPDKEC@Master?5Skill?5Reset?$AA@ DB 'Master Skill Reset', 00H ; `string'
CONST	ENDS
;	COMDAT ??_C@_0DD@KJEOLPEF@Use?5Test?5Command?5?$FL?$CFs?$FN?$FL?$CFs?$FN?5?1mlpoi@
CONST	SEGMENT
??_C@_0DD@KJEOLPEF@Use?5Test?5Command?5?$FL?$CFs?$FN?$FL?$CFs?$FN?5?1mlpoi@ DB 'U'
	DB	'se Test Command [%s][%s] /mlpoint %d -> Success!!', 00H ; `string'
CONST	ENDS
;	COMDAT ??_C@_0DA@EDNEDAPJ@Use?5Test?5Command?5?$FL?$CFs?$FN?$FL?$CFs?$FN?5?1mlpoi@
CONST	SEGMENT
??_C@_0DA@EDNEDAPJ@Use?5Test?5Command?5?$FL?$CFs?$FN?$FL?$CFs?$FN?5?1mlpoi@ DB 'U'
	DB	'se Test Command [%s][%s] /mlpoint %d -> Fail!!', 00H ; `string'
CONST	ENDS
;	COMDAT ??_C@_0DH@JMPPEKFD@Use?5Test?5Command?5?$FL?$CFs?$FN?$FL?$CFs?$FN?5?1maste@
CONST	SEGMENT
??_C@_0DH@JMPPEKFD@Use?5Test?5Command?5?$FL?$CFs?$FN?$FL?$CFs?$FN?5?1maste@ DB 'U'
	DB	'se Test Command [%s][%s] /masterlevel %d -> Success!!', 00H ; `string'
CONST	ENDS
;	COMDAT ??_C@_0DE@FKDLGCCJ@Use?5Test?5Command?5?$FL?$CFs?$FN?$FL?$CFs?$FN?5?1maste@
CONST	SEGMENT
??_C@_0DE@FKDLGCCJ@Use?5Test?5Command?5?$FL?$CFs?$FN?$FL?$CFs?$FN?5?1maste@ DB 'U'
	DB	'se Test Command [%s][%s] /masterlevel %d -> Fail!!', 00H ; `string'
CONST	ENDS
;	COMDAT ??_C@_0BK@BFOILIFL@HP?3?$CF7?41f?1?$CF7?41f?5?0?5SD?3?$CFd?1?$CFd?$AA@
CONST	SEGMENT
??_C@_0BK@BFOILIFL@HP?3?$CF7?41f?1?$CF7?41f?5?0?5SD?3?$CFd?1?$CFd?$AA@ DB 'H'
	DB	'P:%7.1f/%7.1f , SD:%d/%d', 00H		; `string'
CONST	ENDS
;	COMDAT ??_C@_0CE@MIIGFHGE@?$FL?P?$IF?P?$IH?B?$LF?P?$LF?Q?$JI?Q?$IG?P?$JE?P?$IO?Q?$JI?Q?$JG?P?$JB?B?$KE?$FN?5?$CFd?5?9?$DO@
CONST	SEGMENT
??_C@_0CE@MIIGFHGE@?$FL?P?$IF?P?$IH?B?$LF?P?$LF?Q?$JI?Q?$IG?P?$JE?P?$IO?Q?$JI?Q?$JG?P?$JB?B?$KE?$FN?5?$CFd?5?9?$DO@ DB '['
	DB	0d0H, 085H, 0d0H, 087H, 0c2H, 0b5H, 0d0H, 0b5H, 0d1H, 098H, 0d1H
	DB	086H, 0d0H, 094H, 0d0H, 08eH, 0d1H, 098H, 0d1H, 096H, 0d0H, 091H
	DB	0c2H, 0a4H, '] %d -> %d', 00H		; `string'
CONST	ENDS
;	COMDAT ??_C@_0DA@JJHLOOGN@?$FL?P?$JG?P?$LG?Q?$JB?B?$LB?Q?$JH?P?$LE?P?$JB?B?$KE?Q?$JG?B?$LL?B?$LB?Q?$JB?B?$LH?P?$JC?B?$LA?P@
CONST	SEGMENT
??_C@_0DA@JJHLOOGN@?$FL?P?$JG?P?$LG?Q?$JB?B?$LB?Q?$JH?P?$LE?P?$JB?B?$KE?Q?$JG?B?$LL?B?$LB?Q?$JB?B?$LH?P?$JC?B?$LA?P@ DB '['
	DB	0d0H, 096H, 0d0H, 0b6H, 0d1H, 091H, 0c2H, 0b1H, 0d1H, 097H, 0d0H
	DB	0b4H, 0d0H, 091H, 0c2H, 0a4H, 0d1H, 096H, 0c2H, 0bbH, 0c2H, 0b1H
	DB	0d1H, 091H, 0c2H, 0b7H, 0d0H, 092H, 0c2H, 0b0H, 0d0H, 081H, 0d1H
	DB	098H, 0d0H, 0a2H, '] %d -> %d', 00H		; `string'
CONST	ENDS
;	COMDAT ??_C@_0DA@KEJPAACH@?$FL?P?$JG?P?$LG?Q?$JB?B?$LB?B?$LB?P?$LC?Q?$JE?B?$LL?Q?$JG?B?$LL?B?$LB?Q?$JB?B?$LH?P?$JC?B?$LA?P@
CONST	SEGMENT
??_C@_0DA@KEJPAACH@?$FL?P?$JG?P?$LG?Q?$JB?B?$LB?B?$LB?P?$LC?Q?$JE?B?$LL?Q?$JG?B?$LL?B?$LB?Q?$JB?B?$LH?P?$JC?B?$LA?P@ DB '['
	DB	0d0H, 096H, 0d0H, 0b6H, 0d1H, 091H, 0c2H, 0b1H, 0c2H, 0b1H, 0d0H
	DB	0b2H, 0d1H, 094H, 0c2H, 0bbH, 0d1H, 096H, 0c2H, 0bbH, 0c2H, 0b1H
	DB	0d1H, 091H, 0c2H, 0b7H, 0d0H, 092H, 0c2H, 0b0H, 0d0H, 081H, 0d1H
	DB	098H, 0d0H, 0a2H, '] %d -> %d', 00H		; `string'
CONST	ENDS
;	COMDAT ??_C@_0BB@KCPNPPNC@?P?$JA?Q?$IM?P?$JB?Q?$IH?Q?$JB?B?$KO?Q?$JI?P?$JC?$AA@
CONST	SEGMENT
??_C@_0BB@KCPNPPNC@?P?$JA?Q?$IM?P?$JB?Q?$IH?Q?$JB?B?$KO?Q?$JI?P?$JC?$AA@ DB 0d0H
	DB	090H, 0d1H, 08cH, 0d0H, 091H, 0d1H, 087H, 0d1H, 091H, 0c2H, 0aeH
	DB	0d1H, 098H, 0d0H, 092H, 00H			; `string'
CONST	ENDS
;	COMDAT ??_C@_0BH@NKLKKCNO@3?P?$JC?Q?$IH?P?$JA?Q?$IM?P?$JB?Q?$IH?5?Q?$JI?Q?$JE?B?$LA?Q?$II?$AA@
CONST	SEGMENT
??_C@_0BH@NKLKKCNO@3?P?$JC?Q?$IH?P?$JA?Q?$IM?P?$JB?Q?$IH?5?Q?$JI?Q?$JE?B?$LA?Q?$II?$AA@ DB '3'
	DB	0d0H, 092H, 0d1H, 087H, 0d0H, 090H, 0d1H, 08cH, 0d0H, 091H, 0d1H
	DB	087H, ' ', 0d1H, 098H, 0d1H, 094H, 0c2H, 0b0H, 0d1H, 088H, 00H ; `string'
CONST	ENDS
;	COMDAT ??_C@_0M@NNAMPIFD@?P?$JA?Q?$IM?P?$JB?Q?$IH?4?4?4?$AA@
CONST	SEGMENT
??_C@_0M@NNAMPIFD@?P?$JA?Q?$IM?P?$JB?Q?$IH?4?4?4?$AA@ DB 0d0H, 090H, 0d1H
	DB	08cH, 0d0H, 091H, 0d1H, 087H, '...', 00H	; `string'
CONST	ENDS
;	COMDAT ??_C@_0BD@EIKIGGHM@Modi?4Stat?5Complete?$AA@
CONST	SEGMENT
??_C@_0BD@EIKIGGHM@Modi?4Stat?5Complete?$AA@ DB 'Modi.Stat Complete', 00H ; `string'
CONST	ENDS
;	COMDAT ??_C@_0DL@EOCNLBAC@?P?$JA?Q?$JB?P?$JI?P?$LF?P?$JI?P?$LF?5?P?$JE?Q?$JG?Q?$JB?P?$IH?P?$JF?P?$JN?5?P?$IF?Q?$JE?P?$JF@
CONST	SEGMENT
??_C@_0DL@EOCNLBAC@?P?$JA?Q?$JB?P?$JI?P?$LF?P?$JI?P?$LF?5?P?$JE?Q?$JG?Q?$JB?P?$IH?P?$JF?P?$JN?5?P?$IF?Q?$JE?P?$JF@ DB 0d0H
	DB	090H, 0d1H, 091H, 0d0H, 098H, 0d0H, 0b5H, 0d0H, 098H, 0d0H, 0b5H
	DB	' ', 0d0H, 094H, 0d1H, 096H, 0d1H, 091H, 0d0H, 087H, 0d0H, 095H
	DB	0d0H, 09dH, ' ', 0d0H, 085H, 0d1H, 094H, 0d0H, 095H, 0d0H, 098H
	DB	' ', 0d0H, 090H, 0d0H, 0b7H, 0d1H, 098H, 0d1H, 096H, 0d0H, 091H
	DB	0c2H, 0a4H, ' ', 0d1H, 097H, 0d0H, 09fH, 0c2H, 0b7H, 0d0H, 0b1H
	DB	'!!', 00H					; `string'
CONST	ENDS
;	COMDAT ??_C@_0DP@FHDHNGPH@?P?$IF?Q?$JE?P?$JF?P?$JI?5?Q?$JI?Q?$JG?P?$JB?B?$KE?P?$JA?P?$JM?5?P?$JA?P?$KP?Q?$JB?Q?$II?5?B@
CONST	SEGMENT
??_C@_0DP@FHDHNGPH@?P?$IF?Q?$JE?P?$JF?P?$JI?5?Q?$JI?Q?$JG?P?$JB?B?$KE?P?$JA?P?$JM?5?P?$JA?P?$KP?Q?$JB?Q?$II?5?B@ DB 0d0H
	DB	085H, 0d1H, 094H, 0d0H, 095H, 0d0H, 098H, ' ', 0d1H, 098H, 0d1H
	DB	096H, 0d0H, 091H, 0c2H, 0a4H, 0d0H, 090H, 0d0H, 09cH, ' ', 0d0H
	DB	090H, 0d0H, 0afH, 0d1H, 091H, 0d1H, 088H, ' ', 0c2H, 0b5H, 0d0H
	DB	096H, 0d0H, 085H, 0d0H, 090H, 0d2H, 091H, 0d0H, 09fH, 0d2H, 091H
	DB	0d0H, 0a9H, '.(', 0d0H, 097H, 0d0H, 0a5H, 0d0H, 093H, 0d0H, 09aH
	DB	0c2H, 0b0H, 0d1H, 08aH, ')', 00H		; `string'
CONST	ENDS
;	COMDAT ??_C@_0EI@MIBEIAKP@?P?$IF?Q?$JE?P?$JF?P?$JI?5?Q?$JI?Q?$JG?P?$JB?B?$KE?P?$JA?P?$JM?5?P?$JA?P?$KP?Q?$JB?Q?$II?5?B@
CONST	SEGMENT
??_C@_0EI@MIBEIAKP@?P?$IF?Q?$JE?P?$JF?P?$JI?5?Q?$JI?Q?$JG?P?$JB?B?$KE?P?$JA?P?$JM?5?P?$JA?P?$KP?Q?$JB?Q?$II?5?B@ DB 0d0H
	DB	085H, 0d1H, 094H, 0d0H, 095H, 0d0H, 098H, ' ', 0d1H, 098H, 0d1H
	DB	096H, 0d0H, 091H, 0c2H, 0a4H, 0d0H, 090H, 0d0H, 09cH, ' ', 0d0H
	DB	090H, 0d0H, 0afH, 0d1H, 091H, 0d1H, 088H, ' ', 0c2H, 0b5H, 0d0H
	DB	096H, 0d0H, 085H, 0d0H, 090H, 0d2H, 091H, 0d0H, 09fH, 0d2H, 091H
	DB	0d0H, 0a9H, '.(', 0c2H, 0b1H, 0d0H, 0b2H, 0d1H, 094H, 0c2H, 0bbH
	DB	0c2H, 0b0H, 0d0H, 084H, 0e2H, 084H, 096H, 0d0H, 09cH, 0d1H, 091H
	DB	0d1H, 091H, ')', 00H				; `string'
CONST	ENDS
;	COMDAT ??_C@_0CB@BPHBBAOE@?Q?$JF?P?$JL?Q?$JI?Q?$IG?5?Q?$JF?Q?$II?R?$JB?P?$JC?5?Q?$JF?P?$JG?P?$JA?P?$JM?P?$JF?P?$KL?4?4@
CONST	SEGMENT
??_C@_0CB@BPHBBAOE@?Q?$JF?P?$JL?Q?$JI?Q?$IG?5?Q?$JF?Q?$II?R?$JB?P?$JC?5?Q?$JF?P?$JG?P?$JA?P?$JM?P?$JF?P?$KL?4?4@ DB 0d1H
	DB	095H, 0d0H, 09bH, 0d1H, 098H, 0d1H, 086H, ' ', 0d1H, 095H, 0d1H
	DB	088H, 0d2H, 091H, 0d0H, 092H, ' ', 0d1H, 095H, 0d0H, 096H, 0d0H
	DB	090H, 0d0H, 09cH, 0d0H, 095H, 0d0H, 0abH, '..', 00H ; `string'
CONST	ENDS
;	COMDAT ??_C@_0CP@FANCGKJG@?$FL?5?$CFs?5?$FN?5?P?$JA?P?$JH?5?Q?$JF?P?$JG?P?$JA?P?$JM?P?$JF?P?$KL?5?P?$JA?P?$JO?B?$LF?B@
CONST	SEGMENT
??_C@_0CP@FANCGKJG@?$FL?5?$CFs?5?$FN?5?P?$JA?P?$JH?5?Q?$JF?P?$JG?P?$JA?P?$JM?P?$JF?P?$KL?5?P?$JA?P?$JO?B?$LF?B@ DB '['
	DB	' %s ] ', 0d0H, 090H, 0d0H, 097H, ' ', 0d1H, 095H, 0d0H, 096H, 0d0H
	DB	090H, 0d0H, 09cH, 0d0H, 095H, 0d0H, 0abH, ' ', 0d0H, 090H, 0d0H
	DB	09eH, 0c2H, 0b5H, 0c2H, 0a6H, 0d0H, 085H, 0d1H, 094H, ' = %d, '
	DB	'%d', 00H					; `string'
CONST	ENDS
;	COMDAT ??_C@_0N@FDEJNMNN@?P?$JF?B?$KJ?Q?$JB?B?$KO?P?$IF?Q?$JE?$AA@
CONST	SEGMENT
??_C@_0N@FDEJNMNN@?P?$JF?B?$KJ?Q?$JB?B?$KO?P?$IF?Q?$JE?$AA@ DB 0d0H, 095H
	DB	0c2H, 0a9H, 0d1H, 091H, 0c2H, 0aeH, 0d0H, 085H, 0d1H, 094H, 00H ; `string'
CONST	ENDS
;	COMDAT ??_C@_02DKCKIIND@?$CFs?$AA@
CONST	SEGMENT
??_C@_02DKCKIIND@?$CFs?$AA@ DB '%s', 00H		; `string'
CONST	ENDS
;	COMDAT ??_C@_0DE@OIJEJFKP@?$CFd?5?P?$JF?B?$KM?B?$LH?P?$IO?P?$IF?Q?$JE?5?Q?$JB?Q?$ID?P?$IF?Q?$JE?P?$JF?P?$JN?P?$JA?P?$JH@
CONST	SEGMENT
??_C@_0DE@OIJEJFKP@?$CFd?5?P?$JF?B?$KM?B?$LH?P?$IO?P?$IF?Q?$JE?5?Q?$JB?Q?$ID?P?$IF?Q?$JE?P?$JF?P?$JN?P?$JA?P?$JH@ DB '%'
	DB	'd ', 0d0H, 095H, 0c2H, 0acH, 0c2H, 0b7H, 0d0H, 08eH, 0d0H, 085H
	DB	0d1H, 094H, ' ', 0d1H, 091H, 0d1H, 083H, 0d0H, 085H, 0d1H, 094H
	DB	0d0H, 095H, 0d0H, 09dH, 0d0H, 090H, 0d0H, 097H, ' HP = %7.0f /'
	DB	' %7.0f', 00H				; `string'
CONST	ENDS
;	COMDAT ??_C@_0DD@JAICOBCL@?$CFd?5?P?$JF?B?$KM?B?$LH?P?$IO?P?$IF?Q?$JE?5?Q?$JB?Q?$ID?P?$IF?Q?$JE?P?$JF?P?$JN?B?$LA?P?$IO@
CONST	SEGMENT
??_C@_0DD@JAICOBCL@?$CFd?5?P?$JF?B?$KM?B?$LH?P?$IO?P?$IF?Q?$JE?5?Q?$JB?Q?$ID?P?$IF?Q?$JE?P?$JF?P?$JN?B?$LA?P?$IO@ DB '%'
	DB	'd ', 0d0H, 095H, 0c2H, 0acH, 0c2H, 0b7H, 0d0H, 08eH, 0d0H, 085H
	DB	0d1H, 094H, ' ', 0d1H, 091H, 0d1H, 083H, 0d0H, 085H, 0d1H, 094H
	DB	0d0H, 095H, 0d0H, 09dH, 0c2H, 0b0H, 0d0H, 08eH, ' ', 0d1H, 095H
	DB	0d1H, 088H, 0d0H, 085H, 0d0H, 090H, 0d2H, 091H, 0d0H, 09fH, 0d2H
	DB	091H, 0d0H, 0a9H, '.', 00H			; `string'
CONST	ENDS
;	COMDAT ??_C@_0CK@EEILANAK@PK?B?$LL?Q?$ID?P?$JF?P?$JC?Q?$JB?B?$KG?5?P?$JD?P?$JK?B?$LB?P?$LC?P?$JI?B?$KN?5?P?$JH?P?$KF@
CONST	SEGMENT
??_C@_0CK@EEILANAK@PK?B?$LL?Q?$ID?P?$JF?P?$JC?Q?$JB?B?$KG?5?P?$JD?P?$JK?B?$LB?P?$LC?P?$JI?B?$KN?5?P?$JH?P?$KF@ DB 'P'
	DB	'K', 0c2H, 0bbH, 0d1H, 083H, 0d0H, 095H, 0d0H, 092H, 0d1H, 091H
	DB	0c2H, 0a6H, ' ', 0d0H, 093H, 0d0H, 09aH, 0c2H, 0b1H, 0d0H, 0b2H
	DB	0d0H, 098H, 0c2H, 0adH, ' ', 0d0H, 097H, 0d0H, 0a5H, 0d2H, 091H
	DB	0d0H, 09fH, 0d2H, 091H, 0d0H, 0a9H, '.', 00H	; `string'
CONST	ENDS
;	COMDAT xdata$x
xdata$x	SEGMENT
__catchsym$?ManagementProc@CGMMng@@QAEHPAUOBJECTSTRUCT@@PADH@Z$2 DD 040H
	DD	00H
	DD	00H
	DD	FLAT:__catch$?ManagementProc@CGMMng@@QAEHPAUOBJECTSTRUCT@@PADH@Z$0
__unwindtable$?ManagementProc@CGMMng@@QAEHPAUOBJECTSTRUCT@@PADH@Z DD 0ffffffffH
	DD	00H
	DD	0ffffffffH
	DD	00H
__tryblocktable$?ManagementProc@CGMMng@@QAEHPAUOBJECTSTRUCT@@PADH@Z DD 00H
	DD	00H
	DD	01H
	DD	01H
	DD	FLAT:__catchsym$?ManagementProc@CGMMng@@QAEHPAUOBJECTSTRUCT@@PADH@Z$2
__ehfuncinfo$?ManagementProc@CGMMng@@QAEHPAUOBJECTSTRUCT@@PADH@Z DD 019930522H
	DD	02H
	DD	FLAT:__unwindtable$?ManagementProc@CGMMng@@QAEHPAUOBJECTSTRUCT@@PADH@Z
	DD	01H
	DD	FLAT:__tryblocktable$?ManagementProc@CGMMng@@QAEHPAUOBJECTSTRUCT@@PADH@Z
	DD	2 DUP(00H)
	DD	00H
	DD	01H
; Function compile flags: /Odtp /ZI /ZX
xdata$x	ENDS
;	COMDAT ?ManagementProc@CGMMng@@QAEHPAUOBJECTSTRUCT@@PADH@Z
_TEXT	SEGMENT
tv7717 = -5624						; size = 4
tv7715 = -5620						; size = 4
tv8593 = -5616						; size = 4
tv8583 = -5616						; size = 4
tv8544 = -5616						; size = 4
tv8534 = -5616						; size = 4
tv8495 = -5616						; size = 4
tv8485 = -5616						; size = 4
tv8443 = -5616						; size = 4
tv8433 = -5616						; size = 4
tv6494 = -5616						; size = 4
tv6486 = -5616						; size = 4
tv6478 = -5616						; size = 4
tv6470 = -5616						; size = 4
tv6441 = -5616						; size = 4
tv6433 = -5616						; size = 4
tv6425 = -5616						; size = 4
tv6417 = -5616						; size = 4
tv5907 = -5616						; size = 4
tv3155 = -5616						; size = 4
tv3150 = -5616						; size = 4
tv3145 = -5616						; size = 4
tv2114 = -5616						; size = 4
tv1673 = -5616						; size = 4
tv1028 = -5616						; size = 4
tv128 = -5616						; size = 4
tv7712 = -5614						; size = 2
_iTokenNumber1$243271 = -5548				; size = 4
_iTokenNumber1$243266 = -5544				; size = 4
_iTokenNumber1$243261 = -5540				; size = 4
_iTokenNumber1$243256 = -5536				; size = 4
_iTokenNumber1$243251 = -5532				; size = 4
_TargetName$243246 = -5528				; size = 4
_lpTargetObj$243240 = -5524				; size = 4
_TargetIndex$243238 = -5520				; size = 4
_iTokenNumber1$243236 = -5516				; size = 4
_TargetName$243235 = -5512				; size = 4
_TargetIndex$243229 = -5508				; size = 4
_iTokenNumber1$243226 = -5504				; size = 4
_TargetName$243225 = -5500				; size = 4
_lpTargetObj$243219 = -5496				; size = 4
_TargetIndex$243217 = -5492				; size = 4
_iTokenNumber1$243215 = -5488				; size = 4
_TargetName$243214 = -5484				; size = 4
_lpTarget$243207 = -5480				; size = 4
_iTargetIndex$243205 = -5476				; size = 4
_iPremiumDay$243203 = -5472				; size = 4
_TargetName$243202 = -5468				; size = 4
_lpTarget$243199 = -5464				; size = 4
_iTargetIndex$243197 = -5460				; size = 4
_iPremiumDay$243195 = -5456				; size = 4
_TargetName$243194 = -5452				; size = 4
_lpTarget$243190 = -5448				; size = 4
_iTargetIndex$243188 = -5444				; size = 4
_iPremiumDay$243186 = -5440				; size = 4
_TargetName$243185 = -5436				; size = 4
_Item$243177 = -5432					; size = 4
_dur$243175 = -5428					; size = 4
_ItemAncient$243174 = -5424				; size = 4
_ItemExc$243173 = -5420					; size = 4
_ItemOpt$243172 = -5416					; size = 4
_ItemLuck$243171 = -5412				; size = 4
_ItemSkill$243170 = -5408				; size = 4
_ItemLevel$243169 = -5404				; size = 4
_index$243168 = -5400					; size = 4
_type$243167 = -5396					; size = 4
_TargetIndex$243160 = -5392				; size = 4
_TargetName$243158 = -5388				; size = 4
_pMsg$243150 = -5384					; size = 6
_iTokenNumber1$243141 = -5376				; size = 4
_iTokenNumber1$243136 = -5372				; size = 4
_iTokenNumber1$243131 = -5368				; size = 4
_n$243118 = -5364					; size = 4
_TargetIndex$243112 = -5360				; size = 4
_TargetName$243110 = -5356				; size = 4
_lpTarget$243106 = -5352				; size = 4
_TargetIndex$243102 = -5348				; size = 4
_iTokenNumber1$243099 = -5344				; size = 4
_TargetName$243098 = -5340				; size = 4
_lpTarget$243091 = -5336				; size = 4
_TargetIndex$243087 = -5332				; size = 4
_iTokenNumber1$243084 = -5328				; size = 4
_TargetName$243083 = -5324				; size = 4
_lpTarget$243076 = -5320				; size = 4
_TargetIndex$243072 = -5316				; size = 4
_iTokenNumber1$243069 = -5312				; size = 4
_TargetName$243068 = -5308				; size = 4
_TargetName$243061 = -5304				; size = 4
_TargetIndex$243057 = -5300				; size = 4
_iTokenNumber1$243054 = -5296				; size = 4
_TargetName$243053 = -5292				; size = 4
_n$243043 = -5288					; size = 4
_TargetPass$243040 = -5284				; size = 4
_TargetLogin$243039 = -5280				; size = 4
_lpTargetObj$243031 = -5276				; size = 4
_TargetIndex$243028 = -5272				; size = 4
_iTokenNumber1$243025 = -5268				; size = 4
_TargetName$243024 = -5264				; size = 4
_iTokenNumber1$242951 = -5260				; size = 4
_iTokenNumber1$242945 = -5256				; size = 4
_iTokenNumber1$242940 = -5252				; size = 4
_iTokenNumber1$242935 = -5248				; size = 4
_iTokenNumber1$242930 = -5244				; size = 4
_WCoin$242922 = -5240					; size = 4
_lpTargetObj$242918 = -5236				; size = 4
_TargetIndex$242916 = -5232				; size = 4
_iTokenNumber1$242913 = -5228				; size = 4
_TargetName$242912 = -5224				; size = 4
_NextCommand$242904 = -5220				; size = 4
_totalzen$242899 = -5216				; size = 8
_M$242898 = -5208					; size = 4
_iTokenNumber1$242895 = -5204				; size = 4
_M$242891 = -5200					; size = 4
_iTokenNumber1$242888 = -5196				; size = 4
_iTokenNumber1$242881 = -5192				; size = 4
_lpTargetObj$242876 = -5188				; size = 4
_TargetIndex$242874 = -5184				; size = 4
_iTokenNumber1$242871 = -5180				; size = 4
_TargetName$242870 = -5176				; size = 4
_iTokenNumber1$242864 = -5172				; size = 4
_NextCommand$242863 = -5168				; size = 4
_iTokenNumber1$242859 = -5164				; size = 4
_iTokenNumber1$242852 = -5160				; size = 4
_iTokenNumber1$242845 = -5156				; size = 4
_iTokenNumber1$242838 = -5152				; size = 4
_iTokenNumber1$242831 = -5148				; size = 4
_iTokenNumber1$242824 = -5144				; size = 4
_iTokenNumber1$242817 = -5140				; size = 4
_iTokenNumber1$242810 = -5136				; size = 4
_pMsg$242801 = -5132					; size = 24
_TargetName$242799 = -5108				; size = 4
_lpTargetObj$242792 = -5104				; size = 4
_TargetIndex$242790 = -5100				; size = 4
_TargetName$242788 = -5096				; size = 4
_lpTargetObj$242781 = -5092				; size = 4
_TargetIndex$242779 = -5088				; size = 4
_TargetName$242777 = -5084				; size = 4
_lpTargetObj$242770 = -5080				; size = 4
_TargetIndex$242768 = -5076				; size = 4
_TargetName$242766 = -5072				; size = 4
_lpTargetObj$242759 = -5068				; size = 4
_TargetIndex$242757 = -5064				; size = 4
_iTokenNumber1$242755 = -5060				; size = 4
_TargetName$242754 = -5056				; size = 4
_lpTargetObj$242747 = -5052				; size = 4
_TargetIndex$242745 = -5048				; size = 4
_iTokenNumber1$242743 = -5044				; size = 4
_TargetName$242742 = -5040				; size = 4
_lpTargetObj$242735 = -5036				; size = 4
_TargetIndex$242733 = -5032				; size = 4
_iTokenNumber1$242731 = -5028				; size = 4
_TargetName$242730 = -5024				; size = 4
_lpTargetObj$242723 = -5020				; size = 4
_TargetIndex$242721 = -5016				; size = 4
_iTokenNumber1$242719 = -5012				; size = 4
_TargetName$242718 = -5008				; size = 4
_TargetIndex$242712 = -5004				; size = 4
_TargetName$242710 = -5000				; size = 4
_lpTargetObj$242703 = -4996				; size = 4
_iIndex$242702 = -4992					; size = 4
_iTokenNumber3$242701 = -4988				; size = 4
_iTokenNumber2$242700 = -4984				; size = 4
_iTokenNumber1$242699 = -4980				; size = 4
_ct$242687 = -4976					; size = 4
_szName$242686 = -4972					; size = 4
_i$242656 = -4968					; size = 4
_iInventoryTargetPos$242654 = -4964			; size = 4
_unk1$242653 = -4960					; size = 4
_unk0$242652 = -4956					; size = 4
_szItemName$242640 = -4952				; size = 50
_pItem$242639 = -4900					; size = 212
_iInventoryTargetPos$242637 = -4688			; size = 4
_Option$242636 = -4684					; size = 4
_unk1$242635 = -4680					; size = 4
_unk0$242634 = -4676					; size = 4
_iInventoryTargetPos$242632 = -4672			; size = 4
_OptionLevel$242631 = -4668				; size = 4
_OptionType$242630 = -4664				; size = 4
_unk1$242629 = -4660					; size = 4
_unk0$242628 = -4656					; size = 4
_addexp$242625 = -4652					; size = 8
_pNotice$242615 = -4644					; size = 272
_attr$242608 = -4369					; size = 1
_iCoordY$242604 = -4368					; size = 4
_iCoordX$242603 = -4364					; size = 4
_iMapNumber$242602 = -4360				; size = 4
_i$242597 = -4356					; size = 4
_shift$242596 = -4352					; size = 4
_index$242595 = -4348					; size = 4
_State$242594 = -4344					; size = 4
_QuestIndex$242591 = -4340				; size = 4
_QuestBitMask$242590 = -4336				; size = 8
_iPetItemLevel$242585 = -4328				; size = 4
_iInventoryPos$242584 = -4324				; size = 4
_iPetItem_Mode$242574 = -4320				; size = 4
_iTokenNumber$242573 = -4316				; size = 4
_iLevel$242569 = -4312					; size = 4
_iClass$242568 = -4308					; size = 4
_iClass$242562 = -4304					; size = 4
_szGuildName$242535 = -4300				; size = 4
_szNewOwnerGuild$242526 = -4296				; size = 4
_pNotice$242524 = -4292					; size = 272
_RefillHPTime$242521 = -4020				; size = 4
_pNotice$242518 = -4016					; size = 272
_RefillHPSec$242515 = -3744				; size = 4
_pNotice$242512 = -3740					; size = 272
_RefillHP$242509 = -3468				; size = 4
_pNotice$242506 = -3464					; size = 272
_lpTarget$242500 = -3192				; size = 4
_n$242493 = -3188					; size = 4
_iLife$242492 = -3184					; size = 4
_pNotice$242486 = -3180					; size = 272
_lpTarget$242484 = -2908				; size = 4
_n$242477 = -2904					; size = 4
_bState$242467 = -2900					; size = 4
_Rival$242455 = -2896					; size = 4
_iItemNumber$242422 = -2892				; size = 4
_EBP7D0$242419 = -2888					; size = 4
_EBP7CC$242417 = -2884					; size = 4
_EBP7C8$242415 = -2880					; size = 4
_EBP7C4$242413 = -2876					; size = 4
_EBP7C0$242411 = -2872					; size = 4
_EBP7BC$242409 = -2868					; size = 4
_EBP7B8$242401 = -2864					; size = 4
_EBP7B4$242400 = -2860					; size = 4
_EBP7B0$242389 = -2856					; size = 4
_iDur$242387 = -2852					; size = 4
_EBP7A8$242386 = -2845					; size = 1
_EBP7A4$242385 = -2844					; size = 4
_EBP7A0$242384 = -2840					; size = 4
_EBP79C$242383 = -2836					; size = 4
_EBP798$242382 = -2832					; size = 4
_ItemIndex$242381 = -2828				; size = 4
_ItemType$242380 = -2824				; size = 4
_Index$242376 = -2820					; size = 4
_Index$242371 = -2816					; size = 4
_szTemp$242367 = -2812					; size = 100
_szGuild$242361 = -2712					; size = 4
_i$242342 = -2708					; size = 4
_iIndex$242340 = -2704					; size = 4
_lpGuild$242339 = -2700					; size = 4
_iTokenNumber3$242338 = -2696				; size = 4
_iTokenNumber2$242337 = -2692				; size = 4
_iTokenNumber1$242336 = -2688				; size = 4
_bPlayerKiller$242328 = -2684				; size = 4
_lc167$242322 = -2680					; size = 4
_lc166$242321 = -2676					; size = 4
_lc165$242320 = -2672					; size = 4
_i$242312 = -2668					; size = 4
_iIndex$242310 = -2664					; size = 4
_lpGuild$242309 = -2660					; size = 4
_lpTargetObj$242303 = -2656				; size = 4
_iTargetIndex$242301 = -2652				; size = 4
_iTokenNumber2$242296 = -2648				; size = 4
_iTokenNumber$242294 = -2644				; size = 4
_lc152$242293 = -2640					; size = 4
_lc151$242292 = -2636					; size = 4
_iIndex$242285 = -2632					; size = 4
_lpTargetObj$242284 = -2628				; size = 4
_iY$242283 = -2624					; size = 4
_iX$242282 = -2620					; size = 4
_map$242281 = -2616					; size = 4
_szTemp$242273 = -2612					; size = 256
_lpTargetObj$242269 = -2356				; size = 4
_i$242261 = -2352					; size = 4
_pMsg$242259 = -2348					; size = 7
_y$242258 = -2340					; size = 4
_x$242257 = -2336					; size = 4
_iSocketSlot$242253 = -2329				; size = 1
_iItemPos$242252 = -2328				; size = 4
_i$242246 = -2324					; size = 4
_iSocketSlot$242244 = -2317				; size = 1
_iItemPos$242243 = -2316				; size = 4
_iSocketSlot$242241 = -2311				; size = 1
_EBP900$242240 = -2310					; size = 1
_EBP8FC$242239 = -2309					; size = 1
_iItemPos$242238 = -2308				; size = 4
_szTemp$242233 = -2304					; size = 256
_iTokenNumber$242232 = -2048				; size = 4
_i$242223 = -2044					; size = 4
_iTokenNumber$242218 = -2040				; size = 4
_iTokenNumber$242209 = -2036				; size = 4
_i$242200 = -2032					; size = 4
_i$242192 = -2028					; size = 4
_i$242184 = -2024					; size = 4
_i$242169 = -2020					; size = 4
_iItemNumber$242166 = -2016				; size = 4
_EBP7D0$242163 = -2012					; size = 4
_EBP7CC$242161 = -2008					; size = 4
_EBP7C8$242159 = -2004					; size = 4
_EBP7C4$242157 = -2000					; size = 4
_EBP7C0$242155 = -1996					; size = 4
_EBP7BC$242153 = -1992					; size = 4
_EBP7B8$242145 = -1988					; size = 4
_EBP7B4$242144 = -1984					; size = 4
_EBP7B0$242133 = -1980					; size = 4
_iDur$242131 = -1976					; size = 4
_EBP7A8$242130 = -1969					; size = 1
_EBP7A4$242129 = -1968					; size = 4
_EBP7A0$242128 = -1964					; size = 4
_EBP79C$242127 = -1960					; size = 4
_EBP798$242126 = -1956					; size = 4
_ItemIndex$242125 = -1952				; size = 4
_ItemType$242124 = -1948				; size = 4
_i$242116 = -1944					; size = 4
_i$242109 = -1940					; size = 4
_i$242102 = -1936					; size = 4
_iEffectDur$242100 = -1932				; size = 4
_iEffectValue$242099 = -1928				; size = 4
_iEffectType$242098 = -1924				; size = 4
_iShield$242092 = -1920					; size = 4
_iTokenNumber$242089 = -1916				; size = 4
_iTokenNumber$242086 = -1912				; size = 4
_iMoney$242084 = -1908					; size = 4
_iQuestIndex$242081 = -1904				; size = 4
_i$242073 = -1900					; size = 4
_iItemCount$242069 = -1896				; size = 4
_iIndex$242068 = -1892					; size = 4
_iType$242067 = -1888					; size = 4
_i$242053 = -1884					; size = 4
_iTokenNumber$242051 = -1880				; size = 4
_iDbClass$242025 = -1876				; size = 4
_iEnergy$242022 = -1872					; size = 4
_iVitality$242021 = -1868				; size = 4
_iDexterity$242020 = -1864				; size = 4
_iStrength$242019 = -1860				; size = 4
_iClass$242018 = -1856					; size = 4
_iAllPoints$241991 = -1852				; size = 4
_iStandartPoints$241990 = -1848				; size = 4
_iEnergy$241989 = -1844					; size = 4
_iVitality$241988 = -1840				; size = 4
_iDexterity$241987 = -1836				; size = 4
_iStrength$241986 = -1832				; size = 4
_iClass$241985 = -1828					; size = 4
_iIndex$241982 = -1824					; size = 4
_iType$241981 = -1820					; size = 4
_i$241976 = -1816					; size = 4
_szItemName$241975 = -1812				; size = 20
_szText$241974 = -1792					; size = 100
_iItemNumber$241957 = -1692				; size = 4
_EBP694$241954 = -1688					; size = 4
_EBP690$241952 = -1684					; size = 4
_EBP68C$241950 = -1680					; size = 4
_EBP688$241948 = -1676					; size = 4
_EBP684$241946 = -1672					; size = 4
_EBP680$241944 = -1668					; size = 4
_EBP67C$241936 = -1664					; size = 4
_EBP678$241935 = -1660					; size = 4
_iItemOption3$241924 = -1656				; size = 4
_i$241916 = -1652					; size = 4
_iIndex$241915 = -1648					; size = 4
_iType$241914 = -1644					; size = 4
_szItemName$241911 = -1640				; size = 20
_szText$241910 = -1620					; size = 100
_iDur$241908 = -1520					; size = 4
_NewOption$241907 = -1513				; size = 1
_iOption3$241906 = -1512				; size = 4
_iOption2$241905 = -1508				; size = 4
_iOption1$241904 = -1504				; size = 4
_iLevel$241903 = -1500					; size = 4
_iItemIndex$241902 = -1496				; size = 4
_iItemType$241901 = -1492				; size = 4
_iTokenNumber$241883 = -1488				; size = 4
_pNotice$241880 = -1484					; size = 272
_pNotice$241877 = -1212					; size = 272
_lpTarget$241875 = -940					; size = 4
_n$241868 = -936					; size = 4
_pNotice$241865 = -932					; size = 272
_iTokenNumber$241863 = -660				; size = 4
_pNotice$241859 = -656					; size = 272
_i$241820 = -384					; size = 4
_iSetOption$241812 = -380				; size = 4
_iOptionType$241811 = -376				; size = 4
_iOptionLevel$241810 = -372				; size = 4
_iDur$241809 = -368					; size = 4
_NewOption$241808 = -361				; size = 1
_iOption3$241807 = -360					; size = 4
_iOption2$241806 = -356					; size = 4
_iOption1$241805 = -352					; size = 4
_iLevel$241804 = -348					; size = 4
_szSetItemName$241802 = -344				; size = 4
_i$241797 = -340					; size = 4
_i$241789 = -336					; size = 4
_i$241781 = -332					; size = 4
_gamemaster_code$ = -328				; size = 4
_command_code$ = -324					; size = 4
_command_number$ = -320					; size = 4
_len$ = -316						; size = 4
_pId$ = -312						; size = 4
_szId$ = -308						; size = 20
_string$ = -288						; size = 256
_szCmdToken$ = -32					; size = 4
_seps$ = -28						; size = 2
_this$ = -24						; size = 4
__$ArrayPad$ = -20					; size = 4
__$EHRec$ = -16						; size = 16
_lpObj$ = 8						; size = 4
_szCmd$ = 12						; size = 4
_aIndex$ = 16						; size = 4
?ManagementProc@CGMMng@@QAEHPAUOBJECTSTRUCT@@PADH@Z PROC ; CGMMng::ManagementProc, COMDAT
; _this$ = ecx

; 692  : {

  00000	55		 push	 ebp
  00001	8b ec		 mov	 ebp, esp
  00003	6a ff		 push	 -1
  00005	68 00 00 00 00	 push	 __ehhandler$?ManagementProc@CGMMng@@QAEHPAUOBJECTSTRUCT@@PADH@Z
  0000a	64 a1 00 00 00
	00		 mov	 eax, DWORD PTR fs:0
  00010	50		 push	 eax
  00011	51		 push	 ecx
  00012	b8 e8 15 00 00	 mov	 eax, 5608		; 000015e8H
  00017	e8 00 00 00 00	 call	 __chkstk
  0001c	a1 00 00 00 00	 mov	 eax, DWORD PTR ___security_cookie
  00021	33 c5		 xor	 eax, ebp
  00023	89 45 ec	 mov	 DWORD PTR __$ArrayPad$[ebp], eax
  00026	53		 push	 ebx
  00027	56		 push	 esi
  00028	57		 push	 edi
  00029	50		 push	 eax
  0002a	8d 45 f4	 lea	 eax, DWORD PTR __$EHRec$[ebp+4]
  0002d	64 a3 00 00 00
	00		 mov	 DWORD PTR fs:0, eax
  00033	89 65 f0	 mov	 DWORD PTR __$EHRec$[ebp], esp
  00036	89 4d e8	 mov	 DWORD PTR _this$[ebp], ecx

; 693  : 	//Original Code (GS 0.65)
; 694  : 	char seps[] = " ";

  00039	66 a1 00 00 00
	00		 mov	 ax, WORD PTR ??_C@_01CLKCMJKC@?5?$AA@
  0003f	66 89 45 e4	 mov	 WORD PTR _seps$[ebp], ax

; 695  : 	char *szCmdToken;
; 696  : 	char string[256];
; 697  : 	char szId[20];
; 698  : 	char *pId = szId;

  00043	8d 85 cc fe ff
	ff		 lea	 eax, DWORD PTR _szId$[ebp]
  00049	89 85 c8 fe ff
	ff		 mov	 DWORD PTR _pId$[ebp], eax

; 699  : 
; 700  : 	int len= strlen(szCmd);

  0004f	8b 45 0c	 mov	 eax, DWORD PTR _szCmd$[ebp]
  00052	50		 push	 eax
  00053	e8 00 00 00 00	 call	 _strlen
  00058	83 c4 04	 add	 esp, 4
  0005b	89 85 c4 fe ff
	ff		 mov	 DWORD PTR _len$[ebp], eax

; 701  : 	if( len < 1 || len > 250 ) return FALSE;

  00061	83 bd c4 fe ff
	ff 01		 cmp	 DWORD PTR _len$[ebp], 1
  00068	7c 0c		 jl	 SHORT $LN898@Management
  0006a	81 bd c4 fe ff
	ff fa 00 00 00	 cmp	 DWORD PTR _len$[ebp], 250 ; 000000faH
  00074	7e 07		 jle	 SHORT $LN899@Management
$LN898@Management:
  00076	33 c0		 xor	 eax, eax
  00078	e9 da 91 00 00	 jmp	 $LN900@Management
$LN899@Management:

; 702  : 
; 703  : 	memset(szId, 0, 20);

  0007d	6a 14		 push	 20			; 00000014H
  0007f	6a 00		 push	 0
  00081	8d 85 cc fe ff
	ff		 lea	 eax, DWORD PTR _szId$[ebp]
  00087	50		 push	 eax
  00088	e8 00 00 00 00	 call	 _memset
  0008d	83 c4 0c	 add	 esp, 12			; 0000000cH

; 704  : 
; 705  : 	strcpy(string, szCmd);

  00090	8b 45 0c	 mov	 eax, DWORD PTR _szCmd$[ebp]
  00093	50		 push	 eax
  00094	8d 8d e0 fe ff
	ff		 lea	 ecx, DWORD PTR _string$[ebp]
  0009a	51		 push	 ecx
  0009b	e8 00 00 00 00	 call	 _strcpy
  000a0	83 c4 08	 add	 esp, 8

; 706  : 	
; 707  : 	szCmdToken = strtok(string, seps);

  000a3	8d 45 e4	 lea	 eax, DWORD PTR _seps$[ebp]
  000a6	50		 push	 eax
  000a7	8d 8d e0 fe ff
	ff		 lea	 ecx, DWORD PTR _string$[ebp]
  000ad	51		 push	 ecx
  000ae	e8 00 00 00 00	 call	 _strtok
  000b3	83 c4 08	 add	 esp, 8
  000b6	89 45 e0	 mov	 DWORD PTR _szCmdToken$[ebp], eax

; 708  : 	int command_number = GetCmd(szCmdToken);

  000b9	8b 45 e0	 mov	 eax, DWORD PTR _szCmdToken$[ebp]
  000bc	50		 push	 eax
  000bd	8b 4d e8	 mov	 ecx, DWORD PTR _this$[ebp]
  000c0	e8 00 00 00 00	 call	 ?GetCmd@CGMMng@@QAEHPAD@Z ; CGMMng::GetCmd
  000c5	89 85 c0 fe ff
	ff		 mov	 DWORD PTR _command_number$[ebp], eax

; 709  : 
; 710  : 	int command_code,gamemaster_code;//Season 4.5 addon
; 711  : 
; 712  : 	if(this->GetData(szCmdToken,command_code,gamemaster_code) == FALSE)//Season 4.5 addon

  000cb	8d 85 b8 fe ff
	ff		 lea	 eax, DWORD PTR _gamemaster_code$[ebp]
  000d1	50		 push	 eax
  000d2	8d 8d bc fe ff
	ff		 lea	 ecx, DWORD PTR _command_code$[ebp]
  000d8	51		 push	 ecx
  000d9	8b 55 e0	 mov	 edx, DWORD PTR _szCmdToken$[ebp]
  000dc	52		 push	 edx
  000dd	8b 4d e8	 mov	 ecx, DWORD PTR _this$[ebp]
  000e0	e8 00 00 00 00	 call	 ?GetData@CGMMng@@QAEEPADAAH1@Z ; CGMMng::GetData
  000e5	0f b6 c0	 movzx	 eax, al
  000e8	85 c0		 test	 eax, eax
  000ea	75 07		 jne	 SHORT $LN897@Management

; 713  : 	{
; 714  : 		return FALSE;

  000ec	33 c0		 xor	 eax, eax
  000ee	e9 64 91 00 00	 jmp	 $LN900@Management
$LN897@Management:

; 715  : 	}
; 716  : 	
; 717  : 	if(CheckAuthorityCondition(gamemaster_code,lpObj) == FALSE)//Season 4.5 addon

  000f3	8b 45 08	 mov	 eax, DWORD PTR _lpObj$[ebp]
  000f6	50		 push	 eax
  000f7	8b 8d b8 fe ff
	ff		 mov	 ecx, DWORD PTR _gamemaster_code$[ebp]
  000fd	51		 push	 ecx
  000fe	e8 00 00 00 00	 call	 ?CheckAuthorityCondition@@YA_NHPAUOBJECTSTRUCT@@@Z ; CheckAuthorityCondition
  00103	83 c4 08	 add	 esp, 8
  00106	0f b6 d0	 movzx	 edx, al
  00109	85 d2		 test	 edx, edx
  0010b	75 07		 jne	 SHORT $LN896@Management

; 718  : 	{
; 719  : 		return FALSE;

  0010d	33 c0		 xor	 eax, eax
  0010f	e9 43 91 00 00	 jmp	 $LN900@Management
$LN896@Management:

; 720  : 	}
; 721  : 
; 722  : 	switch ( command_code )

  00114	8b 85 bc fe ff
	ff		 mov	 eax, DWORD PTR _command_code$[ebp]
  0011a	89 85 10 ea ff
	ff		 mov	 DWORD PTR tv128[ebp], eax
  00120	8b 8d 10 ea ff
	ff		 mov	 ecx, DWORD PTR tv128[ebp]
  00126	83 e9 64	 sub	 ecx, 100		; 00000064H
  00129	89 8d 10 ea ff
	ff		 mov	 DWORD PTR tv128[ebp], ecx
  0012f	81 bd 10 ea ff
	ff 4e 02 00 00	 cmp	 DWORD PTR tv128[ebp], 590 ; 0000024eH
  00139	0f 87 16 91 00
	00		 ja	 $LN894@Management
  0013f	8b 95 10 ea ff
	ff		 mov	 edx, DWORD PTR tv128[ebp]
  00145	0f b6 82 00 00
	00 00		 movzx	 eax, BYTE PTR $LN915@Management[edx]
  0014c	ff 24 85 00 00
	00 00		 jmp	 DWORD PTR $LN920@Management[eax*4]
$LN893@Management:

; 723  : 	{
; 724  : 	case 230://Identical
; 725  : 		{
; 726  : 			for(int i = 0; i < 15; i++)

  00153	c7 85 b4 fe ff
	ff 00 00 00 00	 mov	 DWORD PTR _i$241781[ebp], 0
  0015d	eb 0f		 jmp	 SHORT $LN892@Management
$LN891@Management:
  0015f	8b 85 b4 fe ff
	ff		 mov	 eax, DWORD PTR _i$241781[ebp]
  00165	83 c0 01	 add	 eax, 1
  00168	89 85 b4 fe ff
	ff		 mov	 DWORD PTR _i$241781[ebp], eax
$LN892@Management:
  0016e	83 bd b4 fe ff
	ff 0f		 cmp	 DWORD PTR _i$241781[ebp], 15 ; 0000000fH
  00175	7d 6e		 jge	 SHORT $LN890@Management

; 727  : 			{
; 728  : 				ItemSerialCreateSend(aIndex, (BYTE)gObj[aIndex].MapNumber, (BYTE)gObj[aIndex].X, (BYTE)gObj[aIndex].Y, ITEMGET(14,13), 0, 0, 0, 0, 0, -1, 0, 0); 

  00177	6a 00		 push	 0
  00179	6a 00		 push	 0
  0017b	6a ff		 push	 -1
  0017d	6a 00		 push	 0
  0017f	6a 00		 push	 0
  00181	6a 00		 push	 0
  00183	6a 00		 push	 0
  00185	6a 00		 push	 0
  00187	68 0d 1c 00 00	 push	 7181			; 00001c0dH
  0018c	8b 45 10	 mov	 eax, DWORD PTR _aIndex$[ebp]
  0018f	69 c0 38 2b 00
	00		 imul	 eax, 11064		; 00002b38H
  00195	8b 0d 00 00 00
	00		 mov	 ecx, DWORD PTR ?gObj@@3PAUOBJECTSTRUCT@@A ; gObj
  0019b	0f b6 94 01 46
	01 00 00	 movzx	 edx, BYTE PTR [ecx+eax+326]
  001a3	52		 push	 edx
  001a4	8b 45 10	 mov	 eax, DWORD PTR _aIndex$[ebp]
  001a7	69 c0 38 2b 00
	00		 imul	 eax, 11064		; 00002b38H
  001ad	8b 0d 00 00 00
	00		 mov	 ecx, DWORD PTR ?gObj@@3PAUOBJECTSTRUCT@@A ; gObj
  001b3	0f b6 94 01 44
	01 00 00	 movzx	 edx, BYTE PTR [ecx+eax+324]
  001bb	52		 push	 edx
  001bc	8b 45 10	 mov	 eax, DWORD PTR _aIndex$[ebp]
  001bf	69 c0 38 2b 00
	00		 imul	 eax, 11064		; 00002b38H
  001c5	8b 0d 00 00 00
	00		 mov	 ecx, DWORD PTR ?gObj@@3PAUOBJECTSTRUCT@@A ; gObj
  001cb	0f b6 94 01 49
	01 00 00	 movzx	 edx, BYTE PTR [ecx+eax+329]
  001d3	52		 push	 edx
  001d4	8b 45 10	 mov	 eax, DWORD PTR _aIndex$[ebp]
  001d7	50		 push	 eax
  001d8	e8 00 00 00 00	 call	 ?ItemSerialCreateSend@@YAXHEEEHEEEEEHEE@Z ; ItemSerialCreateSend
  001dd	83 c4 34	 add	 esp, 52			; 00000034H

; 729  : 			}

  001e0	e9 7a ff ff ff	 jmp	 $LN891@Management
$LN890@Management:

; 730  : 		}
; 731  : 		break;

  001e5	e9 6b 90 00 00	 jmp	 $LN894@Management
$LN889@Management:

; 732  : 	case 231://Identical
; 733  : 		{
; 734  : 			for(int i = 0; i < 15; i++)

  001ea	c7 85 b0 fe ff
	ff 00 00 00 00	 mov	 DWORD PTR _i$241789[ebp], 0
  001f4	eb 0f		 jmp	 SHORT $LN888@Management
$LN887@Management:
  001f6	8b 85 b0 fe ff
	ff		 mov	 eax, DWORD PTR _i$241789[ebp]
  001fc	83 c0 01	 add	 eax, 1
  001ff	89 85 b0 fe ff
	ff		 mov	 DWORD PTR _i$241789[ebp], eax
$LN888@Management:
  00205	83 bd b0 fe ff
	ff 0f		 cmp	 DWORD PTR _i$241789[ebp], 15 ; 0000000fH
  0020c	7d 6e		 jge	 SHORT $LN886@Management

; 735  : 			{
; 736  : 				ItemSerialCreateSend(aIndex, (BYTE)gObj[aIndex].MapNumber, (BYTE)gObj[aIndex].X, (BYTE)gObj[aIndex].Y, ITEMGET(14,14), 0, 0, 0, 0, 0, -1, 0, 0); 

  0020e	6a 00		 push	 0
  00210	6a 00		 push	 0
  00212	6a ff		 push	 -1
  00214	6a 00		 push	 0
  00216	6a 00		 push	 0
  00218	6a 00		 push	 0
  0021a	6a 00		 push	 0
  0021c	6a 00		 push	 0
  0021e	68 0e 1c 00 00	 push	 7182			; 00001c0eH
  00223	8b 45 10	 mov	 eax, DWORD PTR _aIndex$[ebp]
  00226	69 c0 38 2b 00
	00		 imul	 eax, 11064		; 00002b38H
  0022c	8b 0d 00 00 00
	00		 mov	 ecx, DWORD PTR ?gObj@@3PAUOBJECTSTRUCT@@A ; gObj
  00232	0f b6 94 01 46
	01 00 00	 movzx	 edx, BYTE PTR [ecx+eax+326]
  0023a	52		 push	 edx
  0023b	8b 45 10	 mov	 eax, DWORD PTR _aIndex$[ebp]
  0023e	69 c0 38 2b 00
	00		 imul	 eax, 11064		; 00002b38H
  00244	8b 0d 00 00 00
	00		 mov	 ecx, DWORD PTR ?gObj@@3PAUOBJECTSTRUCT@@A ; gObj
  0024a	0f b6 94 01 44
	01 00 00	 movzx	 edx, BYTE PTR [ecx+eax+324]
  00252	52		 push	 edx
  00253	8b 45 10	 mov	 eax, DWORD PTR _aIndex$[ebp]
  00256	69 c0 38 2b 00
	00		 imul	 eax, 11064		; 00002b38H
  0025c	8b 0d 00 00 00
	00		 mov	 ecx, DWORD PTR ?gObj@@3PAUOBJECTSTRUCT@@A ; gObj
  00262	0f b6 94 01 49
	01 00 00	 movzx	 edx, BYTE PTR [ecx+eax+329]
  0026a	52		 push	 edx
  0026b	8b 45 10	 mov	 eax, DWORD PTR _aIndex$[ebp]
  0026e	50		 push	 eax
  0026f	e8 00 00 00 00	 call	 ?ItemSerialCreateSend@@YAXHEEEHEEEEEHEE@Z ; ItemSerialCreateSend
  00274	83 c4 34	 add	 esp, 52			; 00000034H

; 737  : 			}

  00277	e9 7a ff ff ff	 jmp	 $LN887@Management
$LN886@Management:

; 738  : 		}
; 739  : 		break;

  0027c	e9 d4 8f 00 00	 jmp	 $LN894@Management
$LN885@Management:

; 740  : 	case 233://Identical
; 741  : 		{
; 742  : 			for(int i = 0; i < 20; i++)

  00281	c7 85 ac fe ff
	ff 00 00 00 00	 mov	 DWORD PTR _i$241797[ebp], 0
  0028b	eb 0f		 jmp	 SHORT $LN884@Management
$LN883@Management:
  0028d	8b 85 ac fe ff
	ff		 mov	 eax, DWORD PTR _i$241797[ebp]
  00293	83 c0 01	 add	 eax, 1
  00296	89 85 ac fe ff
	ff		 mov	 DWORD PTR _i$241797[ebp], eax
$LN884@Management:
  0029c	83 bd ac fe ff
	ff 14		 cmp	 DWORD PTR _i$241797[ebp], 20 ; 00000014H
  002a3	7d 0e		 jge	 SHORT $LN882@Management

; 743  : 			{
; 744  : 				MakeRandomSetItem(aIndex); 

  002a5	8b 45 10	 mov	 eax, DWORD PTR _aIndex$[ebp]
  002a8	50		 push	 eax
  002a9	e8 00 00 00 00	 call	 ?MakeRandomSetItem@@YAXH@Z ; MakeRandomSetItem
  002ae	83 c4 04	 add	 esp, 4

; 745  : 			}

  002b1	eb da		 jmp	 SHORT $LN883@Management
$LN882@Management:

; 746  : 		}
; 747  : 		break;

  002b3	e9 9d 8f 00 00	 jmp	 $LN894@Management
$LN881@Management:

; 748  : 	case 232://Identical
; 749  : 		{
; 750  : 			char * szSetItemName = this->GetTokenString();

  002b8	8b 4d e8	 mov	 ecx, DWORD PTR _this$[ebp]
  002bb	e8 00 00 00 00	 call	 ?GetTokenString@CGMMng@@QAEPADXZ ; CGMMng::GetTokenString
  002c0	89 85 a8 fe ff
	ff		 mov	 DWORD PTR _szSetItemName$241802[ebp], eax

; 751  : 
; 752  : 			if ( szSetItemName == NULL )

  002c6	83 bd a8 fe ff
	ff 00		 cmp	 DWORD PTR _szSetItemName$241802[ebp], 0
  002cd	75 07		 jne	 SHORT $LN880@Management

; 753  : 			{
; 754  : 				return 0;

  002cf	33 c0		 xor	 eax, eax
  002d1	e9 81 8f 00 00	 jmp	 $LN900@Management
$LN880@Management:

; 755  : 			}
; 756  : 
; 757  : 			int iLevel;
; 758  : 			int iOption1 = 0;

  002d6	c7 85 a0 fe ff
	ff 00 00 00 00	 mov	 DWORD PTR _iOption1$241805[ebp], 0

; 759  : 			int iOption2 = 0;

  002e0	c7 85 9c fe ff
	ff 00 00 00 00	 mov	 DWORD PTR _iOption2$241806[ebp], 0

; 760  : 			int iOption3 = 0;

  002ea	c7 85 98 fe ff
	ff 00 00 00 00	 mov	 DWORD PTR _iOption3$241807[ebp], 0

; 761  : 			BYTE NewOption = 0;

  002f4	c6 85 97 fe ff
	ff 00		 mov	 BYTE PTR _NewOption$241808[ebp], 0

; 762  : 			int iDur = BYTE(-1);

  002fb	c7 85 90 fe ff
	ff ff 00 00 00	 mov	 DWORD PTR _iDur$241809[ebp], 255 ; 000000ffH

; 763  : 
; 764  : 			iLevel = this->GetTokenNumber();

  00305	8b 4d e8	 mov	 ecx, DWORD PTR _this$[ebp]
  00308	e8 00 00 00 00	 call	 ?GetTokenNumber@CGMMng@@QAEHXZ ; CGMMng::GetTokenNumber
  0030d	89 85 a4 fe ff
	ff		 mov	 DWORD PTR _iLevel$241804[ebp], eax

; 765  : 			iDur = this->GetTokenNumber();

  00313	8b 4d e8	 mov	 ecx, DWORD PTR _this$[ebp]
  00316	e8 00 00 00 00	 call	 ?GetTokenNumber@CGMMng@@QAEHXZ ; CGMMng::GetTokenNumber
  0031b	89 85 90 fe ff
	ff		 mov	 DWORD PTR _iDur$241809[ebp], eax

; 766  : 			iOption1 = this->GetTokenNumber();

  00321	8b 4d e8	 mov	 ecx, DWORD PTR _this$[ebp]
  00324	e8 00 00 00 00	 call	 ?GetTokenNumber@CGMMng@@QAEHXZ ; CGMMng::GetTokenNumber
  00329	89 85 a0 fe ff
	ff		 mov	 DWORD PTR _iOption1$241805[ebp], eax

; 767  : 			iOption2 = this->GetTokenNumber();

  0032f	8b 4d e8	 mov	 ecx, DWORD PTR _this$[ebp]
  00332	e8 00 00 00 00	 call	 ?GetTokenNumber@CGMMng@@QAEHXZ ; CGMMng::GetTokenNumber
  00337	89 85 9c fe ff
	ff		 mov	 DWORD PTR _iOption2$241806[ebp], eax

; 768  : 
; 769  : 			int iOptionLevel = this->GetTokenNumber();

  0033d	8b 4d e8	 mov	 ecx, DWORD PTR _this$[ebp]
  00340	e8 00 00 00 00	 call	 ?GetTokenNumber@CGMMng@@QAEHXZ ; CGMMng::GetTokenNumber
  00345	89 85 8c fe ff
	ff		 mov	 DWORD PTR _iOptionLevel$241810[ebp], eax

; 770  : 			int iOptionType = this->GetTokenNumber();

  0034b	8b 4d e8	 mov	 ecx, DWORD PTR _this$[ebp]
  0034e	e8 00 00 00 00	 call	 ?GetTokenNumber@CGMMng@@QAEHXZ ; CGMMng::GetTokenNumber
  00353	89 85 88 fe ff
	ff		 mov	 DWORD PTR _iOptionType$241811[ebp], eax

; 771  : 
; 772  : 			int iSetOption;
; 773  : 
; 774  : 			if(iOptionLevel == 4)

  00359	83 bd 8c fe ff
	ff 04		 cmp	 DWORD PTR _iOptionLevel$241810[ebp], 4
  00360	75 0c		 jne	 SHORT $LN879@Management

; 775  : 			{
; 776  : 				iOption3 = 1;

  00362	c7 85 98 fe ff
	ff 01 00 00 00	 mov	 DWORD PTR _iOption3$241807[ebp], 1
  0036c	eb 3d		 jmp	 SHORT $LN873@Management
$LN879@Management:

; 777  : 			}
; 778  : 			else if(iOptionLevel == 8)

  0036e	83 bd 8c fe ff
	ff 08		 cmp	 DWORD PTR _iOptionLevel$241810[ebp], 8
  00375	75 0c		 jne	 SHORT $LN877@Management

; 779  : 			{
; 780  : 				iOption3 = 2;

  00377	c7 85 98 fe ff
	ff 02 00 00 00	 mov	 DWORD PTR _iOption3$241807[ebp], 2
  00381	eb 28		 jmp	 SHORT $LN873@Management
$LN877@Management:

; 781  : 			}
; 782  : 			else if(iOptionLevel == 12)

  00383	83 bd 8c fe ff
	ff 0c		 cmp	 DWORD PTR _iOptionLevel$241810[ebp], 12 ; 0000000cH
  0038a	75 0c		 jne	 SHORT $LN875@Management

; 783  : 			{
; 784  : 				iOption3 = 3;

  0038c	c7 85 98 fe ff
	ff 03 00 00 00	 mov	 DWORD PTR _iOption3$241807[ebp], 3
  00396	eb 13		 jmp	 SHORT $LN873@Management
$LN875@Management:

; 785  : 			}
; 786  : 			else if(iOptionLevel == 16)

  00398	83 bd 8c fe ff
	ff 10		 cmp	 DWORD PTR _iOptionLevel$241810[ebp], 16 ; 00000010H
  0039f	75 0a		 jne	 SHORT $LN873@Management

; 787  : 			{
; 788  : 				iOption3 = 4;

  003a1	c7 85 98 fe ff
	ff 04 00 00 00	 mov	 DWORD PTR _iOption3$241807[ebp], 4
$LN873@Management:

; 789  : 			}
; 790  : 
; 791  : 			for(int i = 0; i < MAX_ITEMS; i++)

  003ab	c7 85 80 fe ff
	ff 00 00 00 00	 mov	 DWORD PTR _i$241820[ebp], 0
  003b5	eb 0f		 jmp	 SHORT $LN872@Management
$LN871@Management:
  003b7	8b 85 80 fe ff
	ff		 mov	 eax, DWORD PTR _i$241820[ebp]
  003bd	83 c0 01	 add	 eax, 1
  003c0	89 85 80 fe ff
	ff		 mov	 DWORD PTR _i$241820[ebp], eax
$LN872@Management:
  003c6	81 bd 80 fe ff
	ff 00 20 00 00	 cmp	 DWORD PTR _i$241820[ebp], 8192 ; 00002000H
  003d0	0f 8d 5f 02 00
	00		 jge	 $LN870@Management

; 792  : 			{
; 793  : 				if(strcmp(gSetItemOption.GetSetOptionName(i, 1), szSetItemName) == 0)

  003d6	8b 85 a8 fe ff
	ff		 mov	 eax, DWORD PTR _szSetItemName$241802[ebp]
  003dc	50		 push	 eax
  003dd	6a 01		 push	 1
  003df	8b 8d 80 fe ff
	ff		 mov	 ecx, DWORD PTR _i$241820[ebp]
  003e5	51		 push	 ecx
  003e6	b9 00 00 00 00	 mov	 ecx, OFFSET ?gSetItemOption@@3VCSetItemOption@@A ; gSetItemOption
  003eb	e8 00 00 00 00	 call	 ?GetSetOptionName@CSetItemOption@@QAEPADHH@Z ; CSetItemOption::GetSetOptionName
  003f0	50		 push	 eax
  003f1	e8 00 00 00 00	 call	 _strcmp
  003f6	83 c4 08	 add	 esp, 8
  003f9	85 c0		 test	 eax, eax
  003fb	0f 85 02 01 00
	00		 jne	 $LN869@Management

; 794  : 				{
; 795  : 					iSetOption = 1;

  00401	c7 85 84 fe ff
	ff 01 00 00 00	 mov	 DWORD PTR _iSetOption$241812[ebp], 1

; 796  : 
; 797  : 					if(iOptionType == 0)

  0040b	83 bd 88 fe ff
	ff 00		 cmp	 DWORD PTR _iOptionType$241811[ebp], 0
  00412	75 34		 jne	 SHORT $LN868@Management

; 798  : 					{
; 799  : 						if( rand()%100 < 80 ) 

  00414	e8 00 00 00 00	 call	 _rand
  00419	99		 cdq
  0041a	b9 64 00 00 00	 mov	 ecx, 100		; 00000064H
  0041f	f7 f9		 idiv	 ecx
  00421	83 fa 50	 cmp	 edx, 80			; 00000050H
  00424	7d 11		 jge	 SHORT $LN867@Management

; 800  : 								iSetOption |= 4;

  00426	8b 85 84 fe ff
	ff		 mov	 eax, DWORD PTR _iSetOption$241812[ebp]
  0042c	83 c8 04	 or	 eax, 4
  0042f	89 85 84 fe ff
	ff		 mov	 DWORD PTR _iSetOption$241812[ebp], eax

; 801  : 							else 

  00435	eb 0f		 jmp	 SHORT $LN866@Management
$LN867@Management:

; 802  : 								iSetOption |= 8;

  00437	8b 85 84 fe ff
	ff		 mov	 eax, DWORD PTR _iSetOption$241812[ebp]
  0043d	83 c8 08	 or	 eax, 8
  00440	89 85 84 fe ff
	ff		 mov	 DWORD PTR _iSetOption$241812[ebp], eax
$LN866@Management:
  00446	eb 29		 jmp	 SHORT $LN863@Management
$LN868@Management:

; 803  : 					}
; 804  : 					else if(iOptionType == 1)

  00448	83 bd 88 fe ff
	ff 01		 cmp	 DWORD PTR _iOptionType$241811[ebp], 1
  0044f	75 11		 jne	 SHORT $LN864@Management

; 805  : 					{
; 806  : 						iSetOption |= 4;

  00451	8b 85 84 fe ff
	ff		 mov	 eax, DWORD PTR _iSetOption$241812[ebp]
  00457	83 c8 04	 or	 eax, 4
  0045a	89 85 84 fe ff
	ff		 mov	 DWORD PTR _iSetOption$241812[ebp], eax

; 807  : 					}
; 808  : 					else

  00460	eb 0f		 jmp	 SHORT $LN863@Management
$LN864@Management:

; 809  : 					{
; 810  : 						iSetOption |= 8;

  00462	8b 85 84 fe ff
	ff		 mov	 eax, DWORD PTR _iSetOption$241812[ebp]
  00468	83 c8 08	 or	 eax, 8
  0046b	89 85 84 fe ff
	ff		 mov	 DWORD PTR _iSetOption$241812[ebp], eax
$LN863@Management:

; 811  : 					}
; 812  : 
; 813  : 					ItemSerialCreateSend(aIndex, (BYTE)gObj[aIndex].MapNumber, (BYTE)gObj[aIndex].X, (BYTE)gObj[aIndex].Y, i, (BYTE)iLevel, (BYTE)iDur, (BYTE)iOption1, (BYTE)iOption2, (BYTE)iOption3, -1, (BYTE)NewOption, (BYTE)iSetOption); 

  00471	0f b6 85 84 fe
	ff ff		 movzx	 eax, BYTE PTR _iSetOption$241812[ebp]
  00478	50		 push	 eax
  00479	0f b6 8d 97 fe
	ff ff		 movzx	 ecx, BYTE PTR _NewOption$241808[ebp]
  00480	51		 push	 ecx
  00481	6a ff		 push	 -1
  00483	0f b6 95 98 fe
	ff ff		 movzx	 edx, BYTE PTR _iOption3$241807[ebp]
  0048a	52		 push	 edx
  0048b	0f b6 85 9c fe
	ff ff		 movzx	 eax, BYTE PTR _iOption2$241806[ebp]
  00492	50		 push	 eax
  00493	0f b6 8d a0 fe
	ff ff		 movzx	 ecx, BYTE PTR _iOption1$241805[ebp]
  0049a	51		 push	 ecx
  0049b	0f b6 95 90 fe
	ff ff		 movzx	 edx, BYTE PTR _iDur$241809[ebp]
  004a2	52		 push	 edx
  004a3	0f b6 85 a4 fe
	ff ff		 movzx	 eax, BYTE PTR _iLevel$241804[ebp]
  004aa	50		 push	 eax
  004ab	8b 8d 80 fe ff
	ff		 mov	 ecx, DWORD PTR _i$241820[ebp]
  004b1	51		 push	 ecx
  004b2	8b 55 10	 mov	 edx, DWORD PTR _aIndex$[ebp]
  004b5	69 d2 38 2b 00
	00		 imul	 edx, 11064		; 00002b38H
  004bb	a1 00 00 00 00	 mov	 eax, DWORD PTR ?gObj@@3PAUOBJECTSTRUCT@@A ; gObj
  004c0	0f b6 8c 10 46
	01 00 00	 movzx	 ecx, BYTE PTR [eax+edx+326]
  004c8	51		 push	 ecx
  004c9	8b 55 10	 mov	 edx, DWORD PTR _aIndex$[ebp]
  004cc	69 d2 38 2b 00
	00		 imul	 edx, 11064		; 00002b38H
  004d2	a1 00 00 00 00	 mov	 eax, DWORD PTR ?gObj@@3PAUOBJECTSTRUCT@@A ; gObj
  004d7	0f b6 8c 10 44
	01 00 00	 movzx	 ecx, BYTE PTR [eax+edx+324]
  004df	51		 push	 ecx
  004e0	8b 55 10	 mov	 edx, DWORD PTR _aIndex$[ebp]
  004e3	69 d2 38 2b 00
	00		 imul	 edx, 11064		; 00002b38H
  004e9	a1 00 00 00 00	 mov	 eax, DWORD PTR ?gObj@@3PAUOBJECTSTRUCT@@A ; gObj
  004ee	0f b6 8c 10 49
	01 00 00	 movzx	 ecx, BYTE PTR [eax+edx+329]
  004f6	51		 push	 ecx
  004f7	8b 55 10	 mov	 edx, DWORD PTR _aIndex$[ebp]
  004fa	52		 push	 edx
  004fb	e8 00 00 00 00	 call	 ?ItemSerialCreateSend@@YAXHEEEHEEEEEHEE@Z ; ItemSerialCreateSend
  00500	83 c4 34	 add	 esp, 52			; 00000034H
$LN869@Management:

; 814  : 				}
; 815  : 
; 816  : 				if(strcmp(gSetItemOption.GetSetOptionName(i, 2), szSetItemName) == 0)

  00503	8b 85 a8 fe ff
	ff		 mov	 eax, DWORD PTR _szSetItemName$241802[ebp]
  00509	50		 push	 eax
  0050a	6a 02		 push	 2
  0050c	8b 8d 80 fe ff
	ff		 mov	 ecx, DWORD PTR _i$241820[ebp]
  00512	51		 push	 ecx
  00513	b9 00 00 00 00	 mov	 ecx, OFFSET ?gSetItemOption@@3VCSetItemOption@@A ; gSetItemOption
  00518	e8 00 00 00 00	 call	 ?GetSetOptionName@CSetItemOption@@QAEPADHH@Z ; CSetItemOption::GetSetOptionName
  0051d	50		 push	 eax
  0051e	e8 00 00 00 00	 call	 _strcmp
  00523	83 c4 08	 add	 esp, 8
  00526	85 c0		 test	 eax, eax
  00528	0f 85 02 01 00
	00		 jne	 $LN862@Management

; 817  : 				{
; 818  : 					iSetOption = 2;

  0052e	c7 85 84 fe ff
	ff 02 00 00 00	 mov	 DWORD PTR _iSetOption$241812[ebp], 2

; 819  : 
; 820  : 					if(iOptionType == 0)

  00538	83 bd 88 fe ff
	ff 00		 cmp	 DWORD PTR _iOptionType$241811[ebp], 0
  0053f	75 34		 jne	 SHORT $LN861@Management

; 821  : 					{
; 822  : 						if( rand()%100 < 80 ) 

  00541	e8 00 00 00 00	 call	 _rand
  00546	99		 cdq
