; Listing generated by Microsoft (R) Optimizing Compiler Version 16.00.40219.01 

	TITLE	D:\Projects\ExTeam6.3\Source\GameServer\GameServer\gObjMonster.cpp
	.686P
	.XMM
	include listing.inc
	.model	flat

INCLUDELIB LIBCMT
INCLUDELIB OLDNAMES

_DATA	SEGMENT
_g_iNpcUpDfLevel_CGATE DD 01H
	DD	02H
	DD	02dc6c0H
	DD	02H
	DD	03H
	DD	02dc6c0H
	DD	03H
	DD	04H
	DD	02dc6c0H
_g_iNpcUpDfLevel_CSTATUE DD 01H
	DD	03H
	DD	02dc6c0H
	DD	02H
	DD	05H
	DD	02dc6c0H
	DD	03H
	DD	07H
	DD	02dc6c0H
_g_iNpcUpMaxHP_CGATE DD 02625a0H
	DD	02H
	DD	0f4240H
	DD	03567e0H
	DD	03H
	DD	0f4240H
	DD	04f5880H
	DD	04H
	DD	0f4240H
_g_iNpcUpMaxHP_CSTATUE DD 02191c0H
	DD	03H
	DD	0f4240H
	DD	033e140H
	DD	05H
	DD	0f4240H
	DD	04c4b40H
	DD	07H
	DD	0f4240H
_g_iNpcUpRgLevel_CSTATUE DD 01H
	DD	03H
	DD	04c4b40H
	DD	02H
	DD	05H
	DD	04c4b40H
	DD	03H
	DD	07H
	DD	04c4b40H
_g_iCsUserReSpawnArea DD 023H
	DD	011H
	DD	090H
	DD	030H
	DD	04aH
	DD	090H
	DD	073H
	DD	09aH
	DD	023H
	DD	011H
	DD	090H
	DD	030H
_g_iNpcDefense_CGATE DD 064H
	DD	0b4H
	DD	012cH
	DD	0208H
_g_iNpcDefense_CSTATUE DD 050H
	DD	0b4H
	DD	0154H
	DD	0226H
_g_iCastleWallStepAxisY DD 071H
	DD	0a0H
	DD	0cbH
_g_sttBLOODCASTLE_LEVEL DD 0fH
	DD	050H
	DD	0aH
	DD	03cH
	DD	051H
	DD	082H
	DD	03dH
	DD	06eH
	DD	083H
	DD	0b4H
	DD	06fH
	DD	0a0H
	DD	0b5H
	DD	0e6H
	DD	0a1H
	DD	0d2H
	DD	0e7H
	DD	0118H
	DD	0d3H
	DD	0104H
	DD	0119H
	DD	014aH
	DD	0105H
	DD	0136H
	DD	014bH
	DD	0190H
	DD	0137H
	DD	0190H
	DD	0fH
	DD	0257H
	DD	0aH
	DD	0257H
_g_sttKALIMAGATE_LEVEL DD 028H
	DD	082H
	DD	014H
	DD	06eH
	DD	083H
	DD	0b4H
	DD	06fH
	DD	0a0H
	DD	0b5H
	DD	0e6H
	DD	0a1H
	DD	0d2H
	DD	0e7H
	DD	0118H
	DD	0d3H
	DD	0104H
	DD	0119H
	DD	014aH
	DD	0105H
	DD	0136H
	DD	014bH
	DD	015dH
	DD	0137H
	DD	015dH
	DD	015eH
	DD	0190H
	DD	015eH
	DD	0190H
_g_iKalimaGateGateIndex DD 058H
	DD	059H
	DD	05aH
	DD	05bH
	DD	05cH
	DD	05dH
	DD	074H
_g_iChaosCastle_EnterCost DD 061a8H
	DD	013880H
	DD	0249f0H
	DD	03d090H
	DD	061a80H
	DD	09eb10H
	DD	0f4240H
_g_sttCHAOSCASTLE_LEVEL DD 0fH
	DD	031H
	DD	0fH
	DD	01dH
	DD	032H
	DD	077H
	DD	01eH
	DD	063H
	DD	078H
	DD	0b3H
	DD	064H
	DD	09fH
	DD	0b4H
	DD	0efH
	DD	0a0H
	DD	0dbH
	DD	0f0H
	DD	012bH
	DD	0dcH
	DD	0117H
	DD	012cH
	DD	0190H
	DD	0118H
	DD	0190H
	DD	0190H
	DD	0257H
	DD	0190H
	DD	0257H
_g_iChaosCastle_BlowOutDistance DD 03H
	DD	04H
	DD	03H
	DD	04H
	DD	02H
	DD	03H
	DD	00H
	DD	01H
_g_iChaosCastle_BlowOutDamage DD 0fH
	DD	0fH
	DD	0aH
	DD	05H
_g_iChaosCastle_GuardSetValue DD 09c4H
	DD	09c4H
	DD	09c4H
	DD	09c4H
	DD	09c4H
	DD	09c4H
	DD	09c4H
	ORG $+4
_g_iChaosCastle_MonsterItems DD 01c0dH
	DD	01H
	DD	01c0eH
	DD	02H
	DD	01c0dH
	DD	01H
	DD	01c0eH
	DD	03H
	DD	01c0dH
	DD	01H
	DD	01c0eH
	DD	03H
	DD	01c0dH
	DD	02H
	DD	01c0eH
	DD	02H
	DD	01c0dH
	DD	02H
	DD	01c0eH
	DD	03H
	DD	01c0dH
	DD	02H
	DD	01c0eH
	DD	03H
	DD	01c0dH
	DD	02H
	DD	01c0eH
	DD	04H
_g_iChaosCastle_MonsterItemsNewServer DD 00H
	DD	00H
	DD	01c0eH
	DD	02H
	DD	01c0dH
	DD	01H
	DD	01c0eH
	DD	01H
	DD	01c0dH
	DD	01H
	DD	01c0eH
	DD	02H
	DD	01c0dH
	DD	01H
	DD	01c0eH
	DD	02H
	DD	01c0dH
	DD	02H
	DD	01c0eH
	DD	01H
	DD	01c0dH
	DD	02H
	DD	01c0eH
	DD	02H
	DD	01c0dH
	DD	02H
	DD	01c0eH
	DD	03H
_g_iChaosCastle_GroundAxis DD 017H
	DD	04bH
	DD	02cH
	DD	06cH
_g_iChaosCastle_DamageAxis DD 017H
	DD	04bH
	DD	02cH
	DD	06cH
	DD	019H
	DD	04dH
	DD	02aH
	DD	06aH
	DD	01bH
	DD	04fH
	DD	028H
	DD	068H
	DD	01dH
	DD	051H
	DD	026H
	DD	066H
_g_iChaosCastle_MapHollowZone DD 017H
	DD	04bH
	DD	02cH
	DD	04cH
	DD	02bH
	DD	04dH
	DD	02cH
	DD	06cH
	DD	017H
	DD	06bH
	DD	02aH
	DD	06cH
	DD	017H
	DD	04dH
	DD	018H
	DD	06aH
	DD	017H
	DD	04bH
	DD	02cH
	DD	04cH
	DD	02bH
	DD	04dH
	DD	02cH
	DD	06cH
	DD	017H
	DD	06bH
	DD	02aH
	DD	06cH
	DD	017H
	DD	04dH
	DD	018H
	DD	06aH
	DD	019H
	DD	04dH
	DD	02aH
	DD	04eH
	DD	029H
	DD	04fH
	DD	02aH
	DD	06aH
	DD	019H
	DD	069H
	DD	028H
	DD	06aH
	DD	019H
	DD	04fH
	DD	01aH
	DD	068H
	DD	01bH
	DD	04fH
	DD	028H
	DD	050H
	DD	027H
	DD	051H
	DD	028H
	DD	068H
	DD	01bH
	DD	067H
	DD	026H
	DD	068H
	DD	01bH
	DD	051H
	DD	01cH
	DD	066H
_g_sttDEVILSQUARE_LEVEL DD 0fH
	DD	082H
	DD	0aH
	DD	06eH
	DD	03aH
	DD	083H
	DD	0b4H
	DD	06fH
	DD	0a0H
	DD	03bH
	DD	0b5H
	DD	0e6H
	DD	0a1H
	DD	0d2H
	DD	03cH
	DD	0e7H
	DD	0118H
	DD	0d3H
	DD	0104H
	DD	03dH
	DD	0119H
	DD	014aH
	DD	0105H
	DD	0136H
	DD	06fH
	DD	014bH
	DD	0190H
	DD	0137H
	DD	0190H
	DD	070H
	DD	0fH
	DD	0257H
	DD	0aH
	DD	0257H
	DD	010eH
_DATA	ENDS
PUBLIC	??_H@YGXPAXIHP6EPAX0@Z@Z			; `vector constructor iterator'
; Function compile flags: /Odtp /ZI /ZX
;	COMDAT ??_H@YGXPAXIHP6EPAX0@Z@Z
_TEXT	SEGMENT
___t$ = 8						; size = 4
___s$ = 12						; size = 4
___n$ = 16						; size = 4
___f$ = 20						; size = 4
??_H@YGXPAXIHP6EPAX0@Z@Z PROC				; `vector constructor iterator', COMDAT
  00000	55		 push	 ebp
  00001	8b ec		 mov	 ebp, esp
  00003	83 ec 40	 sub	 esp, 64			; 00000040H
  00006	53		 push	 ebx
  00007	56		 push	 esi
  00008	57		 push	 edi
$LN2@vector:
  00009	8b 45 10	 mov	 eax, DWORD PTR ___n$[ebp]
  0000c	83 e8 01	 sub	 eax, 1
  0000f	89 45 10	 mov	 DWORD PTR ___n$[ebp], eax
  00012	78 11		 js	 SHORT $LN3@vector
  00014	8b 4d 08	 mov	 ecx, DWORD PTR ___t$[ebp]
  00017	ff 55 14	 call	 DWORD PTR ___f$[ebp]
  0001a	8b 45 08	 mov	 eax, DWORD PTR ___t$[ebp]
  0001d	03 45 0c	 add	 eax, DWORD PTR ___s$[ebp]
  00020	89 45 08	 mov	 DWORD PTR ___t$[ebp], eax
  00023	eb e4		 jmp	 SHORT $LN2@vector
$LN3@vector:
  00025	5f		 pop	 edi
  00026	5e		 pop	 esi
  00027	5b		 pop	 ebx
  00028	8b e5		 mov	 esp, ebp
  0002a	5d		 pop	 ebp
  0002b	c2 10 00	 ret	 16			; 00000010H
??_H@YGXPAXIHP6EPAX0@Z@Z ENDP				; `vector constructor iterator'
_TEXT	ENDS
PUBLIC	?gObjMonsterMoveRegen@@YAXHHPAUOBJECTSTRUCT@@@Z	; gObjMonsterMoveRegen
EXTRN	?GetBoxPosition@CMonsterSetBase@@QAEHHHHHHAAF0@Z:PROC ; CMonsterSetBase::GetBoxPosition
EXTRN	?gMSetBase@@3VCMonsterSetBase@@A:BYTE		; gMSetBase
; Function compile flags: /Odtp /ZI /ZX
; File d:\projects\exteam6.3\source\gameserver\gameserver\gobjmonster.cpp
;	COMDAT ?gObjMonsterMoveRegen@@YAXHHPAUOBJECTSTRUCT@@@Z
_TEXT	SEGMENT
_x$ = 8							; size = 4
_y$ = 12						; size = 4
_lpObj$ = 16						; size = 4
?gObjMonsterMoveRegen@@YAXHHPAUOBJECTSTRUCT@@@Z PROC	; gObjMonsterMoveRegen, COMDAT

; 76   : {

  00000	55		 push	 ebp
  00001	8b ec		 mov	 ebp, esp
  00003	83 ec 40	 sub	 esp, 64			; 00000040H
  00006	53		 push	 ebx
  00007	56		 push	 esi
  00008	57		 push	 edi

; 77   : 	gMSetBase.GetBoxPosition(lpObj->MapNumber, x-1, y-1, x+1, y+1, lpObj->X, lpObj->Y);

  00009	8b 45 10	 mov	 eax, DWORD PTR _lpObj$[ebp]
  0000c	05 46 01 00 00	 add	 eax, 326		; 00000146H
  00011	50		 push	 eax
  00012	8b 4d 10	 mov	 ecx, DWORD PTR _lpObj$[ebp]
  00015	81 c1 44 01 00
	00		 add	 ecx, 324		; 00000144H
  0001b	51		 push	 ecx
  0001c	8b 55 0c	 mov	 edx, DWORD PTR _y$[ebp]
  0001f	83 c2 01	 add	 edx, 1
  00022	52		 push	 edx
  00023	8b 45 08	 mov	 eax, DWORD PTR _x$[ebp]
  00026	83 c0 01	 add	 eax, 1
  00029	50		 push	 eax
  0002a	8b 4d 0c	 mov	 ecx, DWORD PTR _y$[ebp]
  0002d	83 e9 01	 sub	 ecx, 1
  00030	51		 push	 ecx
  00031	8b 55 08	 mov	 edx, DWORD PTR _x$[ebp]
  00034	83 ea 01	 sub	 edx, 1
  00037	52		 push	 edx
  00038	8b 45 10	 mov	 eax, DWORD PTR _lpObj$[ebp]
  0003b	0f b6 88 49 01
	00 00		 movzx	 ecx, BYTE PTR [eax+329]
  00042	51		 push	 ecx
  00043	b9 00 00 00 00	 mov	 ecx, OFFSET ?gMSetBase@@3VCMonsterSetBase@@A ; gMSetBase
  00048	e8 00 00 00 00	 call	 ?GetBoxPosition@CMonsterSetBase@@QAEHHHHHHAAF0@Z ; CMonsterSetBase::GetBoxPosition

; 78   : 
; 79   : 	lpObj->TX = lpObj->X;

  0004d	8b 45 10	 mov	 eax, DWORD PTR _lpObj$[ebp]
  00050	8b 4d 10	 mov	 ecx, DWORD PTR _lpObj$[ebp]
  00053	66 8b 91 44 01
	00 00		 mov	 dx, WORD PTR [ecx+324]
  0005a	66 89 90 7c 01
	00 00		 mov	 WORD PTR [eax+380], dx

; 80   : 	lpObj->TY = lpObj->Y;

  00061	8b 45 10	 mov	 eax, DWORD PTR _lpObj$[ebp]
  00064	8b 4d 10	 mov	 ecx, DWORD PTR _lpObj$[ebp]
  00067	66 8b 91 46 01
	00 00		 mov	 dx, WORD PTR [ecx+326]
  0006e	66 89 90 7e 01
	00 00		 mov	 WORD PTR [eax+382], dx

; 81   : 	lpObj->MTX = lpObj->X;

  00075	8b 45 10	 mov	 eax, DWORD PTR _lpObj$[ebp]
  00078	8b 4d 10	 mov	 ecx, DWORD PTR _lpObj$[ebp]
  0007b	66 8b 91 44 01
	00 00		 mov	 dx, WORD PTR [ecx+324]
  00082	66 89 90 80 01
	00 00		 mov	 WORD PTR [eax+384], dx

; 82   : 	lpObj->MTY = lpObj->Y;

  00089	8b 45 10	 mov	 eax, DWORD PTR _lpObj$[ebp]
  0008c	8b 4d 10	 mov	 ecx, DWORD PTR _lpObj$[ebp]
  0008f	66 8b 91 46 01
	00 00		 mov	 dx, WORD PTR [ecx+326]
  00096	66 89 90 82 01
	00 00		 mov	 WORD PTR [eax+386], dx

; 83   : 	lpObj->StartX = lpObj->X;

  0009d	8b 45 10	 mov	 eax, DWORD PTR _lpObj$[ebp]
  000a0	8b 4d 10	 mov	 ecx, DWORD PTR _lpObj$[ebp]
  000a3	8a 91 44 01 00
	00		 mov	 dl, BYTE PTR [ecx+324]
  000a9	88 90 76 01 00
	00		 mov	 BYTE PTR [eax+374], dl

; 84   : 	lpObj->StartY = lpObj->Y;

  000af	8b 45 10	 mov	 eax, DWORD PTR _lpObj$[ebp]
  000b2	8b 4d 10	 mov	 ecx, DWORD PTR _lpObj$[ebp]
  000b5	8a 91 46 01 00
	00		 mov	 dl, BYTE PTR [ecx+326]
  000bb	88 90 77 01 00
	00		 mov	 BYTE PTR [eax+375], dl

; 85   : }

  000c1	5f		 pop	 edi
  000c2	5e		 pop	 esi
  000c3	5b		 pop	 ebx
  000c4	8b e5		 mov	 esp, ebp
  000c6	5d		 pop	 ebp
  000c7	c3		 ret	 0
?gObjMonsterMoveRegen@@YAXHHPAUOBJECTSTRUCT@@@Z ENDP	; gObjMonsterMoveRegen
_TEXT	ENDS
PUBLIC	?gObjMonsterHitDamageInit@@YAXPAUOBJECTSTRUCT@@@Z ; gObjMonsterHitDamageInit
PUBLIC	__$ArrayPad$
PUBLIC	?gObjMonsterRegen@@YAHPAUOBJECTSTRUCT@@@Z	; gObjMonsterRegen
EXTRN	?GetMonHPBenefitRate@CCrywolfSync@@QAEHXZ:PROC	; CCrywolfSync::GetMonHPBenefitRate
EXTRN	?g_iCrywolfApplyMvpBenefit@@3HA:DWORD		; g_iCrywolfApplyMvpBenefit
EXTRN	?GetOccupationState@CCrywolfSync@@QAEHXZ:PROC	; CCrywolfSync::GetOccupationState
EXTRN	?GetCrywolfState@CCrywolfSync@@QAEHXZ:PROC	; CCrywolfSync::GetCrywolfState
EXTRN	?g_CrywolfSync@@3VCCrywolfSync@@A:BYTE		; g_CrywolfSync
EXTRN	?gObjGetRandomFreeLocation@@YAHHAAE0HHH@Z:PROC	; gObjGetRandomFreeLocation
EXTRN	?GetPosition@CMonsterSetBase@@QAEHHFAAF0@Z:PROC	; CMonsterSetBase::GetPosition
EXTRN	?RegenProc@CDoppelGanger@@QAEXPAUOBJECTSTRUCT@@@Z:PROC ; CDoppelGanger::RegenProc
EXTRN	?IsDGMonster@CDoppelGanger@@QAE_NPAUOBJECTSTRUCT@@@Z:PROC ; CDoppelGanger::IsDGMonster
EXTRN	?g_DoppelGanger@@3VCDoppelGanger@@A:BYTE	; g_DoppelGanger
EXTRN	?gObjDel@@YAFH@Z:PROC				; gObjDel
EXTRN	?GetRaklionState@CRaklion@@QAEHXZ:PROC		; CRaklion::GetRaklionState
EXTRN	?g_Raklion@@3VCRaklion@@A:BYTE			; g_Raklion
EXTRN	?gObjViewportListProtocolCreate@@YAXPAUOBJECTSTRUCT@@@Z:PROC ; gObjViewportListProtocolCreate
EXTRN	?gObjViewportListCreate@@YAXF@Z:PROC		; gObjViewportListCreate
EXTRN	?gObjClearViewport@@YAXPAUOBJECTSTRUCT@@@Z:PROC	; gObjClearViewport
EXTRN	?CreateFrustrum@@YAXHHH@Z:PROC			; CreateFrustrum
EXTRN	__imp__GetTickCount@0:PROC
EXTRN	_rand:PROC
EXTRN	?RegenMessage@CMonsterMsg@@QAEXH@Z:PROC		; CMonsterMsg::RegenMessage
EXTRN	?g_MonsterMsg@@3VCMonsterMsg@@A:BYTE		; g_MonsterMsg
EXTRN	?gObjViewportClose@@YAXPAUOBJECTSTRUCT@@@Z:PROC	; gObjViewportClose
EXTRN	?gObjViewportListProtocolDestroy@@YAXPAUOBJECTSTRUCT@@@Z:PROC ; gObjViewportListProtocolDestroy
EXTRN	___security_cookie:DWORD
EXTRN	__fltused:DWORD
EXTRN	@__security_check_cookie@4:PROC
; Function compile flags: /Odtp /ZI /ZX
;	COMDAT ?gObjMonsterRegen@@YAHPAUOBJECTSTRUCT@@@Z
_TEXT	SEGMENT
tv526 = -88						; size = 4
tv516 = -88						; size = 4
tv258 = -88						; size = 4
tv201 = -88						; size = 4
_cY$246278 = -18					; size = 1
_cX$246277 = -17					; size = 1
_map$ = -16						; size = 12
__$ArrayPad$ = -4					; size = 4
_lpObj$ = 8						; size = 4
?gObjMonsterRegen@@YAHPAUOBJECTSTRUCT@@@Z PROC		; gObjMonsterRegen, COMDAT

; 88   : {

  00000	55		 push	 ebp
  00001	8b ec		 mov	 ebp, esp
  00003	83 ec 58	 sub	 esp, 88			; 00000058H
  00006	a1 00 00 00 00	 mov	 eax, DWORD PTR ___security_cookie
  0000b	33 c5		 xor	 eax, ebp
  0000d	89 45 fc	 mov	 DWORD PTR __$ArrayPad$[ebp], eax
  00010	53		 push	 ebx
  00011	56		 push	 esi
  00012	57		 push	 edi

; 89   : 	int map[3];
; 90   : 
; 91   : 	map[0] = 0;

  00013	c7 45 f0 00 00
	00 00		 mov	 DWORD PTR _map$[ebp], 0

; 92   : 	map[1] = 2;

  0001a	c7 45 f4 02 00
	00 00		 mov	 DWORD PTR _map$[ebp+4], 2

; 93   : 	map[2] = 3;

  00021	c7 45 f8 03 00
	00 00		 mov	 DWORD PTR _map$[ebp+8], 3

; 94   : 
; 95   : 	gObjViewportListProtocolDestroy(lpObj);

  00028	8b 45 08	 mov	 eax, DWORD PTR _lpObj$[ebp]
  0002b	50		 push	 eax
  0002c	e8 00 00 00 00	 call	 ?gObjViewportListProtocolDestroy@@YAXPAUOBJECTSTRUCT@@@Z ; gObjViewportListProtocolDestroy
  00031	83 c4 04	 add	 esp, 4

; 96   : 	gObjViewportClose(lpObj);

  00034	8b 45 08	 mov	 eax, DWORD PTR _lpObj$[ebp]
  00037	50		 push	 eax
  00038	e8 00 00 00 00	 call	 ?gObjViewportClose@@YAXPAUOBJECTSTRUCT@@@Z ; gObjViewportClose
  0003d	83 c4 04	 add	 esp, 4

; 97   : 
; 98   : 	lpObj->m_ActState.Attack = 0;

  00040	8b 45 08	 mov	 eax, DWORD PTR _lpObj$[ebp]
  00043	8b 88 18 02 00
	00		 mov	 ecx, DWORD PTR [eax+536]
  00049	83 e1 fd	 and	 ecx, -3			; fffffffdH
  0004c	8b 55 08	 mov	 edx, DWORD PTR _lpObj$[ebp]
  0004f	89 8a 18 02 00
	00		 mov	 DWORD PTR [edx+536], ecx

; 99   : 	lpObj->m_ActState.EmotionCount = 0;

  00055	8b 45 08	 mov	 eax, DWORD PTR _lpObj$[ebp]
  00058	8b 88 18 02 00
	00		 mov	 ecx, DWORD PTR [eax+536]
  0005e	81 e1 ff 00 ff
	ff		 and	 ecx, -65281		; ffff00ffH
  00064	8b 55 08	 mov	 edx, DWORD PTR _lpObj$[ebp]
  00067	89 8a 18 02 00
	00		 mov	 DWORD PTR [edx+536], ecx

; 100  : 	lpObj->m_ActState.Escape = 0;

  0006d	8b 45 08	 mov	 eax, DWORD PTR _lpObj$[ebp]
  00070	8b 88 18 02 00
	00		 mov	 ecx, DWORD PTR [eax+536]
  00076	83 e1 f7	 and	 ecx, -9			; fffffff7H
  00079	8b 55 08	 mov	 edx, DWORD PTR _lpObj$[ebp]
  0007c	89 8a 18 02 00
	00		 mov	 DWORD PTR [edx+536], ecx

; 101  : 	lpObj->m_ActState.Move = 0;

  00082	8b 45 08	 mov	 eax, DWORD PTR _lpObj$[ebp]
  00085	8b 88 18 02 00
	00		 mov	 ecx, DWORD PTR [eax+536]
  0008b	83 e1 fb	 and	 ecx, -5			; fffffffbH
  0008e	8b 55 08	 mov	 edx, DWORD PTR _lpObj$[ebp]
  00091	89 8a 18 02 00
	00		 mov	 DWORD PTR [edx+536], ecx

; 102  : 	lpObj->m_ActState.Rest = 0;

  00097	8b 45 08	 mov	 eax, DWORD PTR _lpObj$[ebp]
  0009a	8b 88 18 02 00
	00		 mov	 ecx, DWORD PTR [eax+536]
  000a0	83 e1 fe	 and	 ecx, -2			; fffffffeH
  000a3	8b 55 08	 mov	 edx, DWORD PTR _lpObj$[ebp]
  000a6	89 8a 18 02 00
	00		 mov	 DWORD PTR [edx+536], ecx

; 103  : 	lpObj->m_ActState.Emotion = 0;

  000ac	8b 45 08	 mov	 eax, DWORD PTR _lpObj$[ebp]
  000af	8b 88 18 02 00
	00		 mov	 ecx, DWORD PTR [eax+536]
  000b5	81 e1 0f ff ff
	ff		 and	 ecx, -241		; ffffff0fH
  000bb	8b 55 08	 mov	 edx, DWORD PTR _lpObj$[ebp]
  000be	89 8a 18 02 00
	00		 mov	 DWORD PTR [edx+536], ecx

; 104  : 	lpObj->TargetNumber = -1;

  000c4	83 c8 ff	 or	 eax, -1
  000c7	8b 4d 08	 mov	 ecx, DWORD PTR _lpObj$[ebp]
  000ca	66 89 81 58 04
	00 00		 mov	 WORD PTR [ecx+1112], ax

; 105  : 	lpObj->NextActionTime = 5000;

  000d1	8b 45 08	 mov	 eax, DWORD PTR _lpObj$[ebp]
  000d4	c7 80 bc 03 00
	00 88 13 00 00	 mov	 DWORD PTR [eax+956], 5000 ; 00001388H

; 106  : 
; 107  : #if(CUSTOM_MONSTER_MESSAGE)
; 108  : 	g_MonsterMsg.RegenMessage(lpObj->m_Index);

  000de	8b 45 08	 mov	 eax, DWORD PTR _lpObj$[ebp]
  000e1	8b 08		 mov	 ecx, DWORD PTR [eax]
  000e3	51		 push	 ecx
  000e4	b9 00 00 00 00	 mov	 ecx, OFFSET ?g_MonsterMsg@@3VCMonsterMsg@@A ; g_MonsterMsg
  000e9	e8 00 00 00 00	 call	 ?RegenMessage@CMonsterMsg@@QAEXH@Z ; CMonsterMsg::RegenMessage

; 109  : #endif
; 110  : 
; 111  : 	if ( lpObj->Class == 43 )

  000ee	8b 45 08	 mov	 eax, DWORD PTR _lpObj$[ebp]
  000f1	0f b7 88 b8 00
	00 00		 movzx	 ecx, WORD PTR [eax+184]
  000f8	83 f9 2b	 cmp	 ecx, 43			; 0000002bH
  000fb	0f 85 01 01 00
	00		 jne	 $LN39@gObjMonste

; 112  : 	{
; 113  : 		lpObj->MapNumber = map[ rand() % 3 ];

  00101	e8 00 00 00 00	 call	 _rand
  00106	99		 cdq
  00107	b9 03 00 00 00	 mov	 ecx, 3
  0010c	f7 f9		 idiv	 ecx
  0010e	8b 45 08	 mov	 eax, DWORD PTR _lpObj$[ebp]
  00111	8a 4c 95 f0	 mov	 cl, BYTE PTR _map$[ebp+edx*4]
  00115	88 88 49 01 00
	00		 mov	 BYTE PTR [eax+329], cl

; 114  : 
; 115  : 		if ( gMSetBase.GetBoxPosition(lpObj->MapNumber, 10, 10, 240, 240, lpObj->X, lpObj->Y)== FALSE )

  0011b	8b 45 08	 mov	 eax, DWORD PTR _lpObj$[ebp]
  0011e	05 46 01 00 00	 add	 eax, 326		; 00000146H
  00123	50		 push	 eax
  00124	8b 4d 08	 mov	 ecx, DWORD PTR _lpObj$[ebp]
  00127	81 c1 44 01 00
	00		 add	 ecx, 324		; 00000144H
  0012d	51		 push	 ecx
  0012e	68 f0 00 00 00	 push	 240			; 000000f0H
  00133	68 f0 00 00 00	 push	 240			; 000000f0H
  00138	6a 0a		 push	 10			; 0000000aH
  0013a	6a 0a		 push	 10			; 0000000aH
  0013c	8b 55 08	 mov	 edx, DWORD PTR _lpObj$[ebp]
  0013f	0f b6 82 49 01
	00 00		 movzx	 eax, BYTE PTR [edx+329]
  00146	50		 push	 eax
  00147	b9 00 00 00 00	 mov	 ecx, OFFSET ?gMSetBase@@3VCMonsterSetBase@@A ; gMSetBase
  0014c	e8 00 00 00 00	 call	 ?GetBoxPosition@CMonsterSetBase@@QAEHHHHHHAAF0@Z ; CMonsterSetBase::GetBoxPosition
  00151	85 c0		 test	 eax, eax
  00153	75 34		 jne	 SHORT $LN38@gObjMonste

; 116  : 		{
; 117  : 			lpObj->Live = FALSE;

  00155	8b 45 08	 mov	 eax, DWORD PTR _lpObj$[ebp]
  00158	c6 40 6a 00	 mov	 BYTE PTR [eax+106], 0

; 118  : 			lpObj->m_State = 4;

  0015c	8b 45 08	 mov	 eax, DWORD PTR _lpObj$[ebp]
  0015f	c7 80 20 02 00
	00 04 00 00 00	 mov	 DWORD PTR [eax+544], 4

; 119  : 			lpObj->RegenTime = GetTickCount();

  00169	ff 15 00 00 00
	00		 call	 DWORD PTR __imp__GetTickCount@0
  0016f	8b 4d 08	 mov	 ecx, DWORD PTR _lpObj$[ebp]
  00172	89 81 a8 03 00
	00		 mov	 DWORD PTR [ecx+936], eax

; 120  : 			lpObj->DieRegen = TRUE;

  00178	8b 45 08	 mov	 eax, DWORD PTR _lpObj$[ebp]
  0017b	c6 80 a2 03 00
	00 01		 mov	 BYTE PTR [eax+930], 1

; 121  : 			return FALSE;

  00182	33 c0		 xor	 eax, eax
  00184	e9 37 05 00 00	 jmp	 $LN40@gObjMonste
$LN38@gObjMonste:

; 122  : 		}
; 123  : 
; 124  : 		lpObj->TX = lpObj->X;

  00189	8b 45 08	 mov	 eax, DWORD PTR _lpObj$[ebp]
  0018c	8b 4d 08	 mov	 ecx, DWORD PTR _lpObj$[ebp]
  0018f	66 8b 91 44 01
	00 00		 mov	 dx, WORD PTR [ecx+324]
  00196	66 89 90 7c 01
	00 00		 mov	 WORD PTR [eax+380], dx

; 125  : 		lpObj->TY = lpObj->Y;

  0019d	8b 45 08	 mov	 eax, DWORD PTR _lpObj$[ebp]
  001a0	8b 4d 08	 mov	 ecx, DWORD PTR _lpObj$[ebp]
  001a3	66 8b 91 46 01
	00 00		 mov	 dx, WORD PTR [ecx+326]
  001aa	66 89 90 7e 01
	00 00		 mov	 WORD PTR [eax+382], dx

; 126  : 		lpObj->MTX = lpObj->X;

  001b1	8b 45 08	 mov	 eax, DWORD PTR _lpObj$[ebp]
  001b4	8b 4d 08	 mov	 ecx, DWORD PTR _lpObj$[ebp]
  001b7	66 8b 91 44 01
	00 00		 mov	 dx, WORD PTR [ecx+324]
  001be	66 89 90 80 01
	00 00		 mov	 WORD PTR [eax+384], dx

; 127  : 		lpObj->MTY = lpObj->Y;

  001c5	8b 45 08	 mov	 eax, DWORD PTR _lpObj$[ebp]
  001c8	8b 4d 08	 mov	 ecx, DWORD PTR _lpObj$[ebp]
  001cb	66 8b 91 46 01
	00 00		 mov	 dx, WORD PTR [ecx+326]
  001d2	66 89 90 82 01
	00 00		 mov	 WORD PTR [eax+386], dx

; 128  : 		lpObj->StartX = lpObj->X;

  001d9	8b 45 08	 mov	 eax, DWORD PTR _lpObj$[ebp]
  001dc	8b 4d 08	 mov	 ecx, DWORD PTR _lpObj$[ebp]
  001df	8a 91 44 01 00
	00		 mov	 dl, BYTE PTR [ecx+324]
  001e5	88 90 76 01 00
	00		 mov	 BYTE PTR [eax+374], dl

; 129  : 		lpObj->StartY = lpObj->Y;

  001eb	8b 45 08	 mov	 eax, DWORD PTR _lpObj$[ebp]
  001ee	8b 4d 08	 mov	 ecx, DWORD PTR _lpObj$[ebp]
  001f1	8a 91 46 01 00
	00		 mov	 dl, BYTE PTR [ecx+326]
  001f7	88 90 77 01 00
	00		 mov	 BYTE PTR [eax+375], dl
  001fd	e9 11 04 00 00	 jmp	 $LN4@gObjMonste
$LN39@gObjMonste:

; 130  : 	}
; 131  : 	else if ( lpObj->Class == 44 )

  00202	8b 45 08	 mov	 eax, DWORD PTR _lpObj$[ebp]
  00205	0f b7 88 b8 00
	00 00		 movzx	 ecx, WORD PTR [eax+184]
  0020c	83 f9 2c	 cmp	 ecx, 44			; 0000002cH
  0020f	75 05		 jne	 SHORT $LN36@gObjMonste
  00211	e9 fd 03 00 00	 jmp	 $LN4@gObjMonste
$LN36@gObjMonste:

; 132  : 	{
; 133  : 
; 134  : 	}
; 135  : 	else if ( lpObj->Class == 53 || lpObj->Class == 54 || lpObj->Class == 55 || lpObj->Class == 56 )

  00216	8b 45 08	 mov	 eax, DWORD PTR _lpObj$[ebp]
  00219	0f b7 88 b8 00
	00 00		 movzx	 ecx, WORD PTR [eax+184]
  00220	83 f9 35	 cmp	 ecx, 53			; 00000035H
  00223	74 2d		 je	 SHORT $LN33@gObjMonste
  00225	8b 45 08	 mov	 eax, DWORD PTR _lpObj$[ebp]
  00228	0f b7 88 b8 00
	00 00		 movzx	 ecx, WORD PTR [eax+184]
  0022f	83 f9 36	 cmp	 ecx, 54			; 00000036H
  00232	74 1e		 je	 SHORT $LN33@gObjMonste
  00234	8b 45 08	 mov	 eax, DWORD PTR _lpObj$[ebp]
  00237	0f b7 88 b8 00
	00 00		 movzx	 ecx, WORD PTR [eax+184]
  0023e	83 f9 37	 cmp	 ecx, 55			; 00000037H
  00241	74 0f		 je	 SHORT $LN33@gObjMonste
  00243	8b 45 08	 mov	 eax, DWORD PTR _lpObj$[ebp]
  00246	0f b7 88 b8 00
	00 00		 movzx	 ecx, WORD PTR [eax+184]
  0024d	83 f9 38	 cmp	 ecx, 56			; 00000038H
  00250	75 0c		 jne	 SHORT $LN34@gObjMonste
$LN33@gObjMonste:

; 136  : 	{
; 137  : 		return FALSE;

  00252	33 c0		 xor	 eax, eax
  00254	e9 67 04 00 00	 jmp	 $LN40@gObjMonste
  00259	e9 b5 03 00 00	 jmp	 $LN4@gObjMonste
$LN34@gObjMonste:

; 138  : 	}
; 139  : 	else if ( lpObj->Class >= 78 && lpObj->Class <= 83 )

  0025e	8b 45 08	 mov	 eax, DWORD PTR _lpObj$[ebp]
  00261	0f b7 88 b8 00
	00 00		 movzx	 ecx, WORD PTR [eax+184]
  00268	83 f9 4e	 cmp	 ecx, 78			; 0000004eH
  0026b	7c 1b		 jl	 SHORT $LN31@gObjMonste
  0026d	8b 45 08	 mov	 eax, DWORD PTR _lpObj$[ebp]
  00270	0f b7 88 b8 00
	00 00		 movzx	 ecx, WORD PTR [eax+184]
  00277	83 f9 53	 cmp	 ecx, 83			; 00000053H
  0027a	7f 0c		 jg	 SHORT $LN31@gObjMonste

; 140  : 	{
; 141  : 		return FALSE;

  0027c	33 c0		 xor	 eax, eax
  0027e	e9 3d 04 00 00	 jmp	 $LN40@gObjMonste
  00283	e9 8b 03 00 00	 jmp	 $LN4@gObjMonste
$LN31@gObjMonste:

; 142  : 	}
; 143  : 	else if ( lpObj->Class >= 493 && lpObj->Class <= 502 )//Season 4.5 addon

  00288	8b 45 08	 mov	 eax, DWORD PTR _lpObj$[ebp]
  0028b	0f b7 88 b8 00
	00 00		 movzx	 ecx, WORD PTR [eax+184]
  00292	81 f9 ed 01 00
	00		 cmp	 ecx, 493		; 000001edH
  00298	7c 1e		 jl	 SHORT $LN29@gObjMonste
  0029a	8b 45 08	 mov	 eax, DWORD PTR _lpObj$[ebp]
  0029d	0f b7 88 b8 00
	00 00		 movzx	 ecx, WORD PTR [eax+184]
  002a4	81 f9 f6 01 00
	00		 cmp	 ecx, 502		; 000001f6H
  002aa	7f 0c		 jg	 SHORT $LN29@gObjMonste

; 144  :     {
; 145  :         return FALSE;

  002ac	33 c0		 xor	 eax, eax
  002ae	e9 0d 04 00 00	 jmp	 $LN40@gObjMonste
  002b3	e9 5b 03 00 00	 jmp	 $LN4@gObjMonste
$LN29@gObjMonste:

; 146  :     }
; 147  : 	else if ( (lpObj->m_Attribute < 51) ? FALSE : (lpObj->m_Attribute > 58)? FALSE : TRUE )

  002b8	8b 45 08	 mov	 eax, DWORD PTR _lpObj$[ebp]
  002bb	0f bf 88 b6 04
	00 00		 movsx	 ecx, WORD PTR [eax+1206]
  002c2	83 f9 33	 cmp	 ecx, 51			; 00000033H
  002c5	7d 09		 jge	 SHORT $LN42@gObjMonste
  002c7	c7 45 a8 00 00
	00 00		 mov	 DWORD PTR tv201[ebp], 0
  002ce	eb 15		 jmp	 SHORT $LN43@gObjMonste
$LN42@gObjMonste:
  002d0	8b 55 08	 mov	 edx, DWORD PTR _lpObj$[ebp]
  002d3	0f bf 82 b6 04
	00 00		 movsx	 eax, WORD PTR [edx+1206]
  002da	33 c9		 xor	 ecx, ecx
  002dc	83 f8 3a	 cmp	 eax, 58			; 0000003aH
  002df	0f 9e c1	 setle	 cl
  002e2	89 4d a8	 mov	 DWORD PTR tv201[ebp], ecx
$LN43@gObjMonste:
  002e5	83 7d a8 00	 cmp	 DWORD PTR tv201[ebp], 0
  002e9	74 68		 je	 SHORT $LN27@gObjMonste

; 148  : 	{
; 149  : 		lpObj->Live = TRUE;

  002eb	8b 45 08	 mov	 eax, DWORD PTR _lpObj$[ebp]
  002ee	c6 40 6a 01	 mov	 BYTE PTR [eax+106], 1

; 150  : 		lpObj->DieRegen = FALSE;

  002f2	8b 45 08	 mov	 eax, DWORD PTR _lpObj$[ebp]
  002f5	c6 80 a2 03 00
	00 00		 mov	 BYTE PTR [eax+930], 0

; 151  : 		CreateFrustrum(lpObj->X, lpObj->Y, lpObj->m_Index);

  002fc	8b 45 08	 mov	 eax, DWORD PTR _lpObj$[ebp]
  002ff	8b 08		 mov	 ecx, DWORD PTR [eax]
  00301	51		 push	 ecx
  00302	8b 55 08	 mov	 edx, DWORD PTR _lpObj$[ebp]
  00305	0f bf 82 46 01
	00 00		 movsx	 eax, WORD PTR [edx+326]
  0030c	50		 push	 eax
  0030d	8b 4d 08	 mov	 ecx, DWORD PTR _lpObj$[ebp]
  00310	0f bf 91 44 01
	00 00		 movsx	 edx, WORD PTR [ecx+324]
  00317	52		 push	 edx
  00318	e8 00 00 00 00	 call	 ?CreateFrustrum@@YAXHHH@Z ; CreateFrustrum
  0031d	83 c4 0c	 add	 esp, 12			; 0000000cH

; 152  : 		gObjClearViewport(lpObj);

  00320	8b 45 08	 mov	 eax, DWORD PTR _lpObj$[ebp]
  00323	50		 push	 eax
  00324	e8 00 00 00 00	 call	 ?gObjClearViewport@@YAXPAUOBJECTSTRUCT@@@Z ; gObjClearViewport
  00329	83 c4 04	 add	 esp, 4

; 153  : 		gObjViewportListCreate(lpObj->m_Index);

  0032c	8b 45 08	 mov	 eax, DWORD PTR _lpObj$[ebp]
  0032f	0f b7 08	 movzx	 ecx, WORD PTR [eax]
  00332	51		 push	 ecx
  00333	e8 00 00 00 00	 call	 ?gObjViewportListCreate@@YAXF@Z ; gObjViewportListCreate
  00338	83 c4 04	 add	 esp, 4

; 154  : 		gObjViewportListProtocolCreate(lpObj);

  0033b	8b 45 08	 mov	 eax, DWORD PTR _lpObj$[ebp]
  0033e	50		 push	 eax
  0033f	e8 00 00 00 00	 call	 ?gObjViewportListProtocolCreate@@YAXPAUOBJECTSTRUCT@@@Z ; gObjViewportListProtocolCreate
  00344	83 c4 04	 add	 esp, 4

; 155  : 		return FALSE;

  00347	33 c0		 xor	 eax, eax
  00349	e9 72 03 00 00	 jmp	 $LN40@gObjMonste
  0034e	e9 c0 02 00 00	 jmp	 $LN4@gObjMonste
$LN27@gObjMonste:

; 156  : 	}
; 157  : 	else if ( lpObj->Class == 460 || lpObj->Class == 461 || lpObj->Class == 462)//Season 4.5 addon

  00353	8b 45 08	 mov	 eax, DWORD PTR _lpObj$[ebp]
  00356	0f b7 88 b8 00
	00 00		 movzx	 ecx, WORD PTR [eax+184]
  0035d	81 f9 cc 01 00
	00		 cmp	 ecx, 460		; 000001ccH
  00363	74 24		 je	 SHORT $LN24@gObjMonste
  00365	8b 45 08	 mov	 eax, DWORD PTR _lpObj$[ebp]
  00368	0f b7 88 b8 00
	00 00		 movzx	 ecx, WORD PTR [eax+184]
  0036f	81 f9 cd 01 00
	00		 cmp	 ecx, 461		; 000001cdH
  00375	74 12		 je	 SHORT $LN24@gObjMonste
  00377	8b 45 08	 mov	 eax, DWORD PTR _lpObj$[ebp]
  0037a	0f b7 88 b8 00
	00 00		 movzx	 ecx, WORD PTR [eax+184]
  00381	81 f9 ce 01 00
	00		 cmp	 ecx, 462		; 000001ceH
  00387	75 1b		 jne	 SHORT $LN25@gObjMonste
$LN24@gObjMonste:

; 158  :     {
; 159  :         if(g_Raklion.GetRaklionState() != RAKLION_STATE_END)

  00389	b9 00 00 00 00	 mov	 ecx, OFFSET ?g_Raklion@@3VCRaklion@@A ; g_Raklion
  0038e	e8 00 00 00 00	 call	 ?GetRaklionState@CRaklion@@QAEHXZ ; CRaklion::GetRaklionState
  00393	83 f8 0a	 cmp	 eax, 10			; 0000000aH
  00396	74 07		 je	 SHORT $LN23@gObjMonste

; 160  :         {
; 161  :             return FALSE;

  00398	33 c0		 xor	 eax, eax
  0039a	e9 21 03 00 00	 jmp	 $LN40@gObjMonste
$LN23@gObjMonste:

; 162  :         }
; 163  :     }

  0039f	e9 6f 02 00 00	 jmp	 $LN4@gObjMonste
$LN25@gObjMonste:

; 164  : 	else if ( lpObj->Class == 459 )//Season 4.5 addon

  003a4	8b 45 08	 mov	 eax, DWORD PTR _lpObj$[ebp]
  003a7	0f b7 88 b8 00
	00 00		 movzx	 ecx, WORD PTR [eax+184]
  003ae	81 f9 cb 01 00
	00		 cmp	 ecx, 459		; 000001cbH
  003b4	75 2a		 jne	 SHORT $LN21@gObjMonste

; 165  :     {
; 166  :         if ( g_Raklion.GetRaklionState() != RAKLION_STATE_STANDBY || g_Raklion.GetRaklionState() != RAKLION_STATE_READY )

  003b6	b9 00 00 00 00	 mov	 ecx, OFFSET ?g_Raklion@@3VCRaklion@@A ; g_Raklion
  003bb	e8 00 00 00 00	 call	 ?GetRaklionState@CRaklion@@QAEHXZ ; CRaklion::GetRaklionState
  003c0	83 f8 02	 cmp	 eax, 2
  003c3	75 0f		 jne	 SHORT $LN19@gObjMonste
  003c5	b9 00 00 00 00	 mov	 ecx, OFFSET ?g_Raklion@@3VCRaklion@@A ; g_Raklion
  003ca	e8 00 00 00 00	 call	 ?GetRaklionState@CRaklion@@QAEHXZ ; CRaklion::GetRaklionState
  003cf	83 f8 04	 cmp	 eax, 4
  003d2	74 07		 je	 SHORT $LN20@gObjMonste
$LN19@gObjMonste:

; 167  :         {
; 168  :             return FALSE;

  003d4	33 c0		 xor	 eax, eax
  003d6	e9 e5 02 00 00	 jmp	 $LN40@gObjMonste
$LN20@gObjMonste:

; 169  :         }
; 170  :     }

  003db	e9 33 02 00 00	 jmp	 $LN4@gObjMonste
$LN21@gObjMonste:

; 171  :     else if ( lpObj->Class == 457 && lpObj->MapNumber == 58 || lpObj->Class == 458 && lpObj->MapNumber == 58 )//Season 4.5 addon

  003e0	8b 45 08	 mov	 eax, DWORD PTR _lpObj$[ebp]
  003e3	0f b7 88 b8 00
	00 00		 movzx	 ecx, WORD PTR [eax+184]
  003ea	81 f9 c9 01 00
	00		 cmp	 ecx, 457		; 000001c9H
  003f0	75 0f		 jne	 SHORT $LN15@gObjMonste
  003f2	8b 45 08	 mov	 eax, DWORD PTR _lpObj$[ebp]
  003f5	0f b6 88 49 01
	00 00		 movzx	 ecx, BYTE PTR [eax+329]
  003fc	83 f9 3a	 cmp	 ecx, 58			; 0000003aH
  003ff	74 21		 je	 SHORT $LN16@gObjMonste
$LN15@gObjMonste:
  00401	8b 45 08	 mov	 eax, DWORD PTR _lpObj$[ebp]
  00404	0f b7 88 b8 00
	00 00		 movzx	 ecx, WORD PTR [eax+184]
  0040b	81 f9 ca 01 00
	00		 cmp	 ecx, 458		; 000001caH
  00411	75 1b		 jne	 SHORT $LN17@gObjMonste
  00413	8b 45 08	 mov	 eax, DWORD PTR _lpObj$[ebp]
  00416	0f b6 88 49 01
	00 00		 movzx	 ecx, BYTE PTR [eax+329]
  0041d	83 f9 3a	 cmp	 ecx, 58			; 0000003aH
  00420	75 0c		 jne	 SHORT $LN17@gObjMonste
$LN16@gObjMonste:

; 172  :     {
; 173  :         return FALSE;

  00422	33 c0		 xor	 eax, eax
  00424	e9 97 02 00 00	 jmp	 $LN40@gObjMonste
  00429	e9 e5 01 00 00	 jmp	 $LN4@gObjMonste
$LN17@gObjMonste:

; 174  :     }
; 175  : #ifdef IMPERIAL_CONFLICT_NEW
; 176  : 	else if( lpObj->Class >= 504 && lpObj->Class <= 521 || lpObj->Class >= 523 && lpObj->Class <= 528 )
; 177  : 	{
; 178  : 		return false;
; 179  : 	}
; 180  : #endif
; 181  : 	//Season 5 DoppelGanger
; 182  : 	else if ( lpObj->Class == 532 && DG_MAP_RANGE(lpObj->MapNumber) )

  0042e	8b 45 08	 mov	 eax, DWORD PTR _lpObj$[ebp]
  00431	0f b7 88 b8 00
	00 00		 movzx	 ecx, WORD PTR [eax+184]
  00438	81 f9 14 02 00
	00		 cmp	 ecx, 532		; 00000214H
  0043e	75 4d		 jne	 SHORT $LN13@gObjMonste
  00440	8b 45 08	 mov	 eax, DWORD PTR _lpObj$[ebp]
  00443	0f b6 88 49 01
	00 00		 movzx	 ecx, BYTE PTR [eax+329]
  0044a	83 f9 41	 cmp	 ecx, 65			; 00000041H
  0044d	7d 09		 jge	 SHORT $LN44@gObjMonste
  0044f	c7 45 a8 00 00
	00 00		 mov	 DWORD PTR tv258[ebp], 0
  00456	eb 15		 jmp	 SHORT $LN45@gObjMonste
$LN44@gObjMonste:
  00458	8b 55 08	 mov	 edx, DWORD PTR _lpObj$[ebp]
  0045b	0f b6 82 49 01
	00 00		 movzx	 eax, BYTE PTR [edx+329]
  00462	33 c9		 xor	 ecx, ecx
  00464	83 f8 44	 cmp	 eax, 68			; 00000044H
  00467	0f 9e c1	 setle	 cl
  0046a	89 4d a8	 mov	 DWORD PTR tv258[ebp], ecx
$LN45@gObjMonste:
  0046d	83 7d a8 00	 cmp	 DWORD PTR tv258[ebp], 0
  00471	74 1a		 je	 SHORT $LN13@gObjMonste

; 183  : 	{
; 184  : 		gObjDel(lpObj->m_Index);

  00473	8b 45 08	 mov	 eax, DWORD PTR _lpObj$[ebp]
  00476	8b 08		 mov	 ecx, DWORD PTR [eax]
  00478	51		 push	 ecx
  00479	e8 00 00 00 00	 call	 ?gObjDel@@YAFH@Z	; gObjDel
  0047e	83 c4 04	 add	 esp, 4

; 185  : 		return FALSE;

  00481	33 c0		 xor	 eax, eax
  00483	e9 38 02 00 00	 jmp	 $LN40@gObjMonste
  00488	e9 86 01 00 00	 jmp	 $LN4@gObjMonste
$LN13@gObjMonste:

; 186  : 	}
; 187  : 	else if ( g_DoppelGanger.IsDGMonster(lpObj) )

  0048d	8b 45 08	 mov	 eax, DWORD PTR _lpObj$[ebp]
  00490	50		 push	 eax
  00491	b9 00 00 00 00	 mov	 ecx, OFFSET ?g_DoppelGanger@@3VCDoppelGanger@@A ; g_DoppelGanger
  00496	e8 00 00 00 00	 call	 ?IsDGMonster@CDoppelGanger@@QAE_NPAUOBJECTSTRUCT@@@Z ; CDoppelGanger::IsDGMonster
  0049b	0f b6 c8	 movzx	 ecx, al
  0049e	85 c9		 test	 ecx, ecx
  004a0	74 13		 je	 SHORT $LN11@gObjMonste

; 188  : 	{
; 189  : 		g_DoppelGanger.RegenProc(lpObj);

  004a2	8b 45 08	 mov	 eax, DWORD PTR _lpObj$[ebp]
  004a5	50		 push	 eax
  004a6	b9 00 00 00 00	 mov	 ecx, OFFSET ?g_DoppelGanger@@3VCDoppelGanger@@A ; g_DoppelGanger
  004ab	e8 00 00 00 00	 call	 ?RegenProc@CDoppelGanger@@QAEXPAUOBJECTSTRUCT@@@Z ; CDoppelGanger::RegenProc
  004b0	e9 5e 01 00 00	 jmp	 $LN4@gObjMonste
$LN11@gObjMonste:

; 190  : 	}
; 191  : 	else if ( gMSetBase.GetPosition(lpObj->m_PosNum, lpObj->MapNumber, lpObj->X, lpObj->Y) == FALSE )

  004b5	8b 45 08	 mov	 eax, DWORD PTR _lpObj$[ebp]
  004b8	05 46 01 00 00	 add	 eax, 326		; 00000146H
  004bd	50		 push	 eax
  004be	8b 4d 08	 mov	 ecx, DWORD PTR _lpObj$[ebp]
  004c1	81 c1 44 01 00
	00		 add	 ecx, 324		; 00000144H
  004c7	51		 push	 ecx
  004c8	8b 55 08	 mov	 edx, DWORD PTR _lpObj$[ebp]
  004cb	66 0f b6 82 49
	01 00 00	 movzx	 ax, BYTE PTR [edx+329]
  004d3	0f b7 c8	 movzx	 ecx, ax
  004d6	51		 push	 ecx
  004d7	8b 55 08	 mov	 edx, DWORD PTR _lpObj$[ebp]
  004da	0f bf 82 b0 03
	00 00		 movsx	 eax, WORD PTR [edx+944]
  004e1	50		 push	 eax
  004e2	b9 00 00 00 00	 mov	 ecx, OFFSET ?gMSetBase@@3VCMonsterSetBase@@A ; gMSetBase
  004e7	e8 00 00 00 00	 call	 ?GetPosition@CMonsterSetBase@@QAEHHFAAF0@Z ; CMonsterSetBase::GetPosition
  004ec	85 c0		 test	 eax, eax
  004ee	0f 85 ab 00 00
	00		 jne	 $LN9@gObjMonste

; 192  : 	{
; 193  : //#if(GS_CASTLE==1) //HermeX
; 194  : 		if ( lpObj->m_Attribute == 62 )

  004f4	8b 45 08	 mov	 eax, DWORD PTR _lpObj$[ebp]
  004f7	0f bf 88 b6 04
	00 00		 movsx	 ecx, WORD PTR [eax+1206]
  004fe	83 f9 3e	 cmp	 ecx, 62			; 0000003eH
  00501	75 66		 jne	 SHORT $LN8@gObjMonste

; 195  : 		{
; 196  : 			BYTE cX = lpObj->X;

  00503	8b 45 08	 mov	 eax, DWORD PTR _lpObj$[ebp]
  00506	8a 88 44 01 00
	00		 mov	 cl, BYTE PTR [eax+324]
  0050c	88 4d ef	 mov	 BYTE PTR _cX$246277[ebp], cl

; 197  : 			BYTE cY = lpObj->Y;

  0050f	8b 45 08	 mov	 eax, DWORD PTR _lpObj$[ebp]
  00512	8a 88 46 01 00
	00		 mov	 cl, BYTE PTR [eax+326]
  00518	88 4d ee	 mov	 BYTE PTR _cY$246278[ebp], cl

; 198  : 
; 199  : 			if(gObjGetRandomFreeLocation(lpObj->MapNumber,(BYTE&)cX,(BYTE&)cY,5,5,30) == 0 )

  0051b	6a 1e		 push	 30			; 0000001eH
  0051d	6a 05		 push	 5
  0051f	6a 05		 push	 5
  00521	8d 45 ee	 lea	 eax, DWORD PTR _cY$246278[ebp]
  00524	50		 push	 eax
  00525	8d 4d ef	 lea	 ecx, DWORD PTR _cX$246277[ebp]
  00528	51		 push	 ecx
  00529	8b 55 08	 mov	 edx, DWORD PTR _lpObj$[ebp]
  0052c	0f b6 82 49 01
	00 00		 movzx	 eax, BYTE PTR [edx+329]
  00533	50		 push	 eax
  00534	e8 00 00 00 00	 call	 ?gObjGetRandomFreeLocation@@YAHHAAE0HHH@Z ; gObjGetRandomFreeLocation
  00539	83 c4 18	 add	 esp, 24			; 00000018H
  0053c	85 c0		 test	 eax, eax
  0053e	75 09		 jne	 SHORT $LN7@gObjMonste

; 200  : 			{
; 201  : 				return FALSE;

  00540	33 c0		 xor	 eax, eax
  00542	e9 79 01 00 00	 jmp	 $LN40@gObjMonste

; 202  : 			}
; 203  : 			else

  00547	eb 1e		 jmp	 SHORT $LN6@gObjMonste
$LN7@gObjMonste:

; 204  : 			{
; 205  : 				lpObj->X = cX;

  00549	66 0f b6 45 ef	 movzx	 ax, BYTE PTR _cX$246277[ebp]
  0054e	8b 4d 08	 mov	 ecx, DWORD PTR _lpObj$[ebp]
  00551	66 89 81 44 01
	00 00		 mov	 WORD PTR [ecx+324], ax

; 206  : 				lpObj->Y = cY;

  00558	66 0f b6 45 ee	 movzx	 ax, BYTE PTR _cY$246278[ebp]
  0055d	8b 4d 08	 mov	 ecx, DWORD PTR _lpObj$[ebp]
  00560	66 89 81 46 01
	00 00		 mov	 WORD PTR [ecx+326], ax
$LN6@gObjMonste:

; 207  : 			}
; 208  : 		}
; 209  : 		else

  00567	eb 34		 jmp	 SHORT $LN5@gObjMonste
$LN8@gObjMonste:

; 210  : 		{
; 211  : 			lpObj->Live = FALSE;

  00569	8b 45 08	 mov	 eax, DWORD PTR _lpObj$[ebp]
  0056c	c6 40 6a 00	 mov	 BYTE PTR [eax+106], 0

; 212  : 			lpObj->m_State = 4;

  00570	8b 45 08	 mov	 eax, DWORD PTR _lpObj$[ebp]
  00573	c7 80 20 02 00
	00 04 00 00 00	 mov	 DWORD PTR [eax+544], 4

; 213  : 			lpObj->RegenTime = GetTickCount();

  0057d	ff 15 00 00 00
	00		 call	 DWORD PTR __imp__GetTickCount@0
  00583	8b 4d 08	 mov	 ecx, DWORD PTR _lpObj$[ebp]
  00586	89 81 a8 03 00
	00		 mov	 DWORD PTR [ecx+936], eax

; 214  : 			lpObj->DieRegen = TRUE;

  0058c	8b 45 08	 mov	 eax, DWORD PTR _lpObj$[ebp]
  0058f	c6 80 a2 03 00
	00 01		 mov	 BYTE PTR [eax+930], 1

; 215  : 			return FALSE;

  00596	33 c0		 xor	 eax, eax
  00598	e9 23 01 00 00	 jmp	 $LN40@gObjMonste
$LN5@gObjMonste:

; 216  : 		}
; 217  : //#else
; 218  : 		//lpObj->Live = FALSE;
; 219  : 		//lpObj->m_State = 4;
; 220  : 		//lpObj->RegenTime = GetTickCount();
; 221  : 		//lpObj->DieRegen = TRUE;
; 222  : 		//return FALSE;
; 223  : 	}
; 224  : 	else

  0059d	eb 74		 jmp	 SHORT $LN4@gObjMonste
$LN9@gObjMonste:

; 225  : 	{
; 226  : //#endif
; 227  : 		lpObj->MTX = lpObj->X;

  0059f	8b 45 08	 mov	 eax, DWORD PTR _lpObj$[ebp]
  005a2	8b 4d 08	 mov	 ecx, DWORD PTR _lpObj$[ebp]
  005a5	66 8b 91 44 01
	00 00		 mov	 dx, WORD PTR [ecx+324]
  005ac	66 89 90 80 01
	00 00		 mov	 WORD PTR [eax+384], dx

; 228  : 		lpObj->MTY = lpObj->Y;

  005b3	8b 45 08	 mov	 eax, DWORD PTR _lpObj$[ebp]
  005b6	8b 4d 08	 mov	 ecx, DWORD PTR _lpObj$[ebp]
  005b9	66 8b 91 46 01
	00 00		 mov	 dx, WORD PTR [ecx+326]
  005c0	66 89 90 82 01
	00 00		 mov	 WORD PTR [eax+386], dx

; 229  : 		lpObj->TX = lpObj->X;

  005c7	8b 45 08	 mov	 eax, DWORD PTR _lpObj$[ebp]
  005ca	8b 4d 08	 mov	 ecx, DWORD PTR _lpObj$[ebp]
  005cd	66 8b 91 44 01
	00 00		 mov	 dx, WORD PTR [ecx+324]
  005d4	66 89 90 7c 01
	00 00		 mov	 WORD PTR [eax+380], dx

; 230  : 		lpObj->TY = lpObj->Y;

  005db	8b 45 08	 mov	 eax, DWORD PTR _lpObj$[ebp]
  005de	8b 4d 08	 mov	 ecx, DWORD PTR _lpObj$[ebp]
  005e1	66 8b 91 46 01
	00 00		 mov	 dx, WORD PTR [ecx+326]
  005e8	66 89 90 7e 01
	00 00		 mov	 WORD PTR [eax+382], dx

; 231  : 		lpObj->StartX = lpObj->X;

  005ef	8b 45 08	 mov	 eax, DWORD PTR _lpObj$[ebp]
  005f2	8b 4d 08	 mov	 ecx, DWORD PTR _lpObj$[ebp]
  005f5	8a 91 44 01 00
	00		 mov	 dl, BYTE PTR [ecx+324]
  005fb	88 90 76 01 00
	00		 mov	 BYTE PTR [eax+374], dl

; 232  : 		lpObj->StartY = lpObj->Y;

  00601	8b 45 08	 mov	 eax, DWORD PTR _lpObj$[ebp]
  00604	8b 4d 08	 mov	 ecx, DWORD PTR _lpObj$[ebp]
  00607	8a 91 46 01 00
	00		 mov	 dl, BYTE PTR [ecx+326]
  0060d	88 90 77 01 00
	00		 mov	 BYTE PTR [eax+375], dl
$LN4@gObjMonste:

; 233  : 	}
; 234  : 
; 235  : 	gObjMonsterHitDamageInit(lpObj);

  00613	8b 45 08	 mov	 eax, DWORD PTR _lpObj$[ebp]
  00616	50		 push	 eax
  00617	e8 00 00 00 00	 call	 ?gObjMonsterHitDamageInit@@YAXPAUOBJECTSTRUCT@@@Z ; gObjMonsterHitDamageInit
  0061c	83 c4 04	 add	 esp, 4

; 236  : 
; 237  : 	if ( lpObj->MapNumber == MAP_INDEX_CRYWOLF_FIRSTZONE && g_CrywolfSync.GetCrywolfState() >= 2 && g_CrywolfSync.GetCrywolfState() <= 5  ) // Crywolf

  0061f	8b 45 08	 mov	 eax, DWORD PTR _lpObj$[ebp]
  00622	0f b6 88 49 01
	00 00		 movzx	 ecx, BYTE PTR [eax+329]
  00629	83 f9 22	 cmp	 ecx, 34			; 00000022H
  0062c	75 20		 jne	 SHORT $LN3@gObjMonste
  0062e	b9 00 00 00 00	 mov	 ecx, OFFSET ?g_CrywolfSync@@3VCCrywolfSync@@A ; g_CrywolfSync
  00633	e8 00 00 00 00	 call	 ?GetCrywolfState@CCrywolfSync@@QAEHXZ ; CCrywolfSync::GetCrywolfState
  00638	83 f8 02	 cmp	 eax, 2
  0063b	7c 11		 jl	 SHORT $LN3@gObjMonste
  0063d	b9 00 00 00 00	 mov	 ecx, OFFSET ?g_CrywolfSync@@3VCCrywolfSync@@A ; g_CrywolfSync
  00642	e8 00 00 00 00	 call	 ?GetCrywolfState@CCrywolfSync@@QAEHXZ ; CCrywolfSync::GetCrywolfState
  00647	83 f8 05	 cmp	 eax, 5
  0064a	7f 02		 jg	 SHORT $LN3@gObjMonste
  0064c	eb 6d		 jmp	 SHORT $LN1@gObjMonste
$LN3@gObjMonste:

; 238  : 	{
; 239  : 	
; 240  : 	}
; 241  : 	else if ( g_CrywolfSync.GetOccupationState() == 0 && g_iCrywolfApplyMvpBenefit != 0 )

  0064e	b9 00 00 00 00	 mov	 ecx, OFFSET ?g_CrywolfSync@@3VCCrywolfSync@@A ; g_CrywolfSync
  00653	e8 00 00 00 00	 call	 ?GetOccupationState@CCrywolfSync@@QAEHXZ ; CCrywolfSync::GetOccupationState
  00658	85 c0		 test	 eax, eax
  0065a	75 5f		 jne	 SHORT $LN1@gObjMonste
  0065c	83 3d 00 00 00
	00 00		 cmp	 DWORD PTR ?g_iCrywolfApplyMvpBenefit@@3HA, 0 ; g_iCrywolfApplyMvpBenefit
  00663	74 56		 je	 SHORT $LN1@gObjMonste

; 242  : 	{
; 243  : 		lpObj->Life = (float)(( lpObj->m_iScriptMaxLife * g_CrywolfSync.GetMonHPBenefitRate()  ) / 100);

  00665	b9 00 00 00 00	 mov	 ecx, OFFSET ?g_CrywolfSync@@3VCCrywolfSync@@A ; g_CrywolfSync
  0066a	e8 00 00 00 00	 call	 ?GetMonHPBenefitRate@CCrywolfSync@@QAEHXZ ; CCrywolfSync::GetMonHPBenefitRate
  0066f	8b 4d 08	 mov	 ecx, DWORD PTR _lpObj$[ebp]
  00672	0f af 81 04 01
	00 00		 imul	 eax, DWORD PTR [ecx+260]
  00679	99		 cdq
  0067a	b9 64 00 00 00	 mov	 ecx, 100		; 00000064H
  0067f	f7 f9		 idiv	 ecx
  00681	89 45 a8	 mov	 DWORD PTR tv516[ebp], eax
  00684	db 45 a8	 fild	 DWORD PTR tv516[ebp]
  00687	8b 55 08	 mov	 edx, DWORD PTR _lpObj$[ebp]
  0068a	d9 9a fc 00 00
	00		 fstp	 DWORD PTR [edx+252]

; 244  : 		lpObj->MaxLife = (float)((lpObj->m_iScriptMaxLife * g_CrywolfSync.GetMonHPBenefitRate() ) / 100);

  00690	b9 00 00 00 00	 mov	 ecx, OFFSET ?g_CrywolfSync@@3VCCrywolfSync@@A ; g_CrywolfSync
  00695	e8 00 00 00 00	 call	 ?GetMonHPBenefitRate@CCrywolfSync@@QAEHXZ ; CCrywolfSync::GetMonHPBenefitRate
  0069a	8b 4d 08	 mov	 ecx, DWORD PTR _lpObj$[ebp]
  0069d	0f af 81 04 01
	00 00		 imul	 eax, DWORD PTR [ecx+260]
  006a4	99		 cdq
  006a5	b9 64 00 00 00	 mov	 ecx, 100		; 00000064H
  006aa	f7 f9		 idiv	 ecx
  006ac	89 45 a8	 mov	 DWORD PTR tv526[ebp], eax
  006af	db 45 a8	 fild	 DWORD PTR tv526[ebp]
  006b2	8b 55 08	 mov	 edx, DWORD PTR _lpObj$[ebp]
  006b5	d9 9a 00 01 00
	00		 fstp	 DWORD PTR [edx+256]
$LN1@gObjMonste:

; 245  : 	}
; 246  : 	return TRUE;

  006bb	b8 01 00 00 00	 mov	 eax, 1
$LN40@gObjMonste:

; 247  : }

  006c0	5f		 pop	 edi
  006c1	5e		 pop	 esi
  006c2	5b		 pop	 ebx
  006c3	8b 4d fc	 mov	 ecx, DWORD PTR __$ArrayPad$[ebp]
  006c6	33 cd		 xor	 ecx, ebp
  006c8	e8 00 00 00 00	 call	 @__security_check_cookie@4
  006cd	8b e5		 mov	 esp, ebp
  006cf	5d		 pop	 ebp
  006d0	c3		 ret	 0
?gObjMonsterRegen@@YAHPAUOBJECTSTRUCT@@@Z ENDP		; gObjMonsterRegen
_TEXT	ENDS
PUBLIC	?gObjMonsterViewportIsCharacter@@YAHPAUOBJECTSTRUCT@@@Z ; gObjMonsterViewportIsCharacter
; Function compile flags: /Odtp /ZI /ZX
;	COMDAT ?gObjMonsterViewportIsCharacter@@YAHPAUOBJECTSTRUCT@@@Z
_TEXT	SEGMENT
_n$246310 = -8						; size = 4
_tObjNum$ = -4						; size = 4
_lpObj$ = 8						; size = 4
?gObjMonsterViewportIsCharacter@@YAHPAUOBJECTSTRUCT@@@Z PROC ; gObjMonsterViewportIsCharacter, COMDAT

; 250  : {

  00000	55		 push	 ebp
  00001	8b ec		 mov	 ebp, esp
  00003	83 ec 48	 sub	 esp, 72			; 00000048H
  00006	53		 push	 ebx
  00007	56		 push	 esi
  00008	57		 push	 edi

; 251  : 	int tObjNum;
; 252  : 
; 253  : 	for ( int n = 0; n<MAX_VIEWPORT_MONSTER ; n++ )

  00009	c7 45 f8 00 00
	00 00		 mov	 DWORD PTR _n$246310[ebp], 0
  00010	eb 09		 jmp	 SHORT $LN5@gObjMonste@2
$LN4@gObjMonste@2:
  00012	8b 45 f8	 mov	 eax, DWORD PTR _n$246310[ebp]
  00015	83 c0 01	 add	 eax, 1
  00018	89 45 f8	 mov	 DWORD PTR _n$246310[ebp], eax
$LN5@gObjMonste@2:
  0001b	83 7d f8 4b	 cmp	 DWORD PTR _n$246310[ebp], 75 ; 0000004bH
  0001f	7d 3f		 jge	 SHORT $LN3@gObjMonste@2

; 254  : 	{
; 255  : 		if ( lpObj->VpPlayer2[n].state != 0 )

  00021	8b 45 f8	 mov	 eax, DWORD PTR _n$246310[ebp]
  00024	6b c0 0c	 imul	 eax, 12			; 0000000cH
  00027	8b 4d 08	 mov	 ecx, DWORD PTR _lpObj$[ebp]
  0002a	0f be 94 01 ac
	08 00 00	 movsx	 edx, BYTE PTR [ecx+eax+2220]
  00032	85 d2		 test	 edx, edx
  00034	74 28		 je	 SHORT $LN2@gObjMonste@2

; 256  : 		{
; 257  : 			tObjNum = lpObj->VpPlayer2[n].number;

  00036	8b 45 f8	 mov	 eax, DWORD PTR _n$246310[ebp]
  00039	6b c0 0c	 imul	 eax, 12			; 0000000cH
  0003c	8b 4d 08	 mov	 ecx, DWORD PTR _lpObj$[ebp]
  0003f	0f bf 94 01 ae
	08 00 00	 movsx	 edx, WORD PTR [ecx+eax+2222]
  00047	89 55 fc	 mov	 DWORD PTR _tObjNum$[ebp], edx

; 258  : 
; 259  : 			if ( tObjNum == lpObj->TargetNumber ) 

  0004a	8b 45 08	 mov	 eax, DWORD PTR _lpObj$[ebp]
  0004d	0f bf 88 58 04
	00 00		 movsx	 ecx, WORD PTR [eax+1112]
  00054	39 4d fc	 cmp	 DWORD PTR _tObjNum$[ebp], ecx
  00057	75 05		 jne	 SHORT $LN2@gObjMonste@2

; 260  : 			{
; 261  : 				return n;

  00059	8b 45 f8	 mov	 eax, DWORD PTR _n$246310[ebp]
  0005c	eb 05		 jmp	 SHORT $LN6@gObjMonste@2
$LN2@gObjMonste@2:

; 262  : 			}
; 263  : 		}
; 264  : 	}

  0005e	eb b2		 jmp	 SHORT $LN4@gObjMonste@2
$LN3@gObjMonste@2:

; 265  : 
; 266  : 	return -1;

  00060	83 c8 ff	 or	 eax, -1
$LN6@gObjMonste@2:

; 267  : }

  00063	5f		 pop	 edi
  00064	5e		 pop	 esi
  00065	5b		 pop	 ebx
  00066	8b e5		 mov	 esp, ebp
  00068	5d		 pop	 ebp
  00069	c3		 ret	 0
?gObjMonsterViewportIsCharacter@@YAHPAUOBJECTSTRUCT@@@Z ENDP ; gObjMonsterViewportIsCharacter
; Function compile flags: /Odtp /ZI /ZX
_TEXT	ENDS
;	COMDAT ?gObjMonsterHitDamageInit@@YAXPAUOBJECTSTRUCT@@@Z
_TEXT	SEGMENT
_i$246319 = -4						; size = 4
_lpObj$ = 8						; size = 4
?gObjMonsterHitDamageInit@@YAXPAUOBJECTSTRUCT@@@Z PROC	; gObjMonsterHitDamageInit, COMDAT

; 270  : {

  00000	55		 push	 ebp
  00001	8b ec		 mov	 ebp, esp
  00003	83 ec 44	 sub	 esp, 68			; 00000044H
  00006	53		 push	 ebx
  00007	56		 push	 esi
  00008	57		 push	 edi

; 271  : 	for ( int i = 0; i< MAX_ST_HIT_DAMAGE ; i++ )

  00009	c7 45 fc 00 00
	00 00		 mov	 DWORD PTR _i$246319[ebp], 0
  00010	eb 09		 jmp	 SHORT $LN3@gObjMonste@3
$LN2@gObjMonste@3:
  00012	8b 45 fc	 mov	 eax, DWORD PTR _i$246319[ebp]
  00015	83 c0 01	 add	 eax, 1
  00018	89 45 fc	 mov	 DWORD PTR _i$246319[ebp], eax
$LN3@gObjMonste@3:
  0001b	83 7d fc 28	 cmp	 DWORD PTR _i$246319[ebp], 40 ; 00000028H
  0001f	7d 16		 jge	 SHORT $LN1@gObjMonste@3

; 272  : 	{
; 273  : 		lpObj->sHD[i].number  = -1;

  00021	8b 45 fc	 mov	 eax, DWORD PTR _i$246319[ebp]
  00024	6b c0 0c	 imul	 eax, 12			; 0000000cH
  00027	83 c9 ff	 or	 ecx, -1
  0002a	8b 55 08	 mov	 edx, DWORD PTR _lpObj$[ebp]
  0002d	66 89 8c 02 38
	0c 00 00	 mov	 WORD PTR [edx+eax+3128], cx

; 274  : 	}

  00035	eb db		 jmp	 SHORT $LN2@gObjMonste@3
$LN1@gObjMonste@3:

; 275  : 
; 276  : 	lpObj->sHDCount = 0;

  00037	33 c0		 xor	 eax, eax
  00039	8b 4d 08	 mov	 ecx, DWORD PTR _lpObj$[ebp]
  0003c	66 89 81 18 0e
	00 00		 mov	 WORD PTR [ecx+3608], ax

; 277  : }

  00043	5f		 pop	 edi
  00044	5e		 pop	 esi
  00045	5b		 pop	 ebx
  00046	8b e5		 mov	 esp, ebp
  00048	5d		 pop	 ebp
  00049	c3		 ret	 0
?gObjMonsterHitDamageInit@@YAXPAUOBJECTSTRUCT@@@Z ENDP	; gObjMonsterHitDamageInit
_TEXT	ENDS
PUBLIC	?gObjMonsterHitDamageUserDel@@YAHPAUOBJECTSTRUCT@@@Z ; gObjMonsterHitDamageUserDel
EXTRN	?gObjCheckTileArea@@YAHHHHH@Z:PROC		; gObjCheckTileArea
EXTRN	?gObj@@3PAUOBJECTSTRUCT@@A:DWORD		; gObj
EXTRN	?gObjIsConnected@@YAHH@Z:PROC			; gObjIsConnected
; Function compile flags: /Odtp /ZI /ZX
;	COMDAT ?gObjMonsterHitDamageUserDel@@YAHPAUOBJECTSTRUCT@@@Z
_TEXT	SEGMENT
_n$246328 = -12						; size = 4
_delindex$ = -8						; size = 4
_delok$ = -4						; size = 4
_lpObj$ = 8						; size = 4
?gObjMonsterHitDamageUserDel@@YAHPAUOBJECTSTRUCT@@@Z PROC ; gObjMonsterHitDamageUserDel, COMDAT

; 280  : {

  00000	55		 push	 ebp
  00001	8b ec		 mov	 ebp, esp
  00003	83 ec 4c	 sub	 esp, 76			; 0000004cH
  00006	53		 push	 ebx
  00007	56		 push	 esi
  00008	57		 push	 edi

; 281  : 	int delok = 0;

  00009	c7 45 fc 00 00
	00 00		 mov	 DWORD PTR _delok$[ebp], 0

; 282  : 	int delindex = -1;

  00010	c7 45 f8 ff ff
	ff ff		 mov	 DWORD PTR _delindex$[ebp], -1

; 283  : 
; 284  : 	for ( int n = 0;n<MAX_ST_HIT_DAMAGE ; n++ )

  00017	c7 45 f4 00 00
	00 00		 mov	 DWORD PTR _n$246328[ebp], 0
  0001e	eb 09		 jmp	 SHORT $LN11@gObjMonste@4
$LN10@gObjMonste@4:
  00020	8b 45 f4	 mov	 eax, DWORD PTR _n$246328[ebp]
  00023	83 c0 01	 add	 eax, 1
  00026	89 45 f4	 mov	 DWORD PTR _n$246328[ebp], eax
$LN11@gObjMonste@4:
  00029	83 7d f4 28	 cmp	 DWORD PTR _n$246328[ebp], 40 ; 00000028H
  0002d	0f 8d 4e 01 00
	00		 jge	 $LN9@gObjMonste@4

; 285  : 	{
; 286  : 		if ( lpObj->sHD[n].number >= 0 )

  00033	8b 45 f4	 mov	 eax, DWORD PTR _n$246328[ebp]
  00036	6b c0 0c	 imul	 eax, 12			; 0000000cH
  00039	8b 4d 08	 mov	 ecx, DWORD PTR _lpObj$[ebp]
  0003c	0f bf 94 01 38
	0c 00 00	 movsx	 edx, WORD PTR [ecx+eax+3128]
  00044	85 d2		 test	 edx, edx
  00046	0f 8c 30 01 00
	00		 jl	 $LN8@gObjMonste@4

; 287  : 		{
; 288  : 			delok = FALSE;

  0004c	c7 45 fc 00 00
	00 00		 mov	 DWORD PTR _delok$[ebp], 0

; 289  : 
; 290  : 			if ( gObjIsConnected(lpObj->sHD[n].number ) == TRUE )

  00053	8b 45 f4	 mov	 eax, DWORD PTR _n$246328[ebp]
  00056	6b c0 0c	 imul	 eax, 12			; 0000000cH
  00059	8b 4d 08	 mov	 ecx, DWORD PTR _lpObj$[ebp]
  0005c	0f bf 94 01 38
	0c 00 00	 movsx	 edx, WORD PTR [ecx+eax+3128]
  00064	52		 push	 edx
  00065	e8 00 00 00 00	 call	 ?gObjIsConnected@@YAHH@Z ; gObjIsConnected
  0006a	83 c4 04	 add	 esp, 4
  0006d	83 f8 01	 cmp	 eax, 1
  00070	0f 85 c7 00 00
	00		 jne	 $LN7@gObjMonste@4

; 291  : 			{
; 292  : 				if ( (GetTickCount()- lpObj->sHD[n].LastHitTime) > 20000 )

  00076	ff 15 00 00 00
	00		 call	 DWORD PTR __imp__GetTickCount@0
  0007c	8b 4d f4	 mov	 ecx, DWORD PTR _n$246328[ebp]
  0007f	6b c9 0c	 imul	 ecx, 12			; 0000000cH
  00082	8b 55 08	 mov	 edx, DWORD PTR _lpObj$[ebp]
  00085	2b 84 0a 40 0c
	00 00		 sub	 eax, DWORD PTR [edx+ecx+3136]
  0008c	3d 20 4e 00 00	 cmp	 eax, 20000		; 00004e20H
  00091	76 07		 jbe	 SHORT $LN6@gObjMonste@4

; 293  : 				{
; 294  : 					delok = TRUE;

  00093	c7 45 fc 01 00
	00 00		 mov	 DWORD PTR _delok$[ebp], 1
$LN6@gObjMonste@4:

; 295  : 				}
; 296  : 
; 297  : 				if ( gObj[lpObj->sHD[n].number].MapNumber != lpObj->MapNumber)

  0009a	8b 45 f4	 mov	 eax, DWORD PTR _n$246328[ebp]
  0009d	6b c0 0c	 imul	 eax, 12			; 0000000cH
  000a0	8b 4d 08	 mov	 ecx, DWORD PTR _lpObj$[ebp]
  000a3	0f bf 94 01 38
	0c 00 00	 movsx	 edx, WORD PTR [ecx+eax+3128]
  000ab	69 d2 38 2b 00
	00		 imul	 edx, 11064		; 00002b38H
  000b1	a1 00 00 00 00	 mov	 eax, DWORD PTR ?gObj@@3PAUOBJECTSTRUCT@@A ; gObj
  000b6	0f b6 8c 10 49
	01 00 00	 movzx	 ecx, BYTE PTR [eax+edx+329]
  000be	8b 55 08	 mov	 edx, DWORD PTR _lpObj$[ebp]
  000c1	0f b6 82 49 01
	00 00		 movzx	 eax, BYTE PTR [edx+329]
  000c8	3b c8		 cmp	 ecx, eax
  000ca	74 09		 je	 SHORT $LN5@gObjMonste@4

; 298  : 				{
; 299  : 					delok = TRUE;

  000cc	c7 45 fc 01 00
	00 00		 mov	 DWORD PTR _delok$[ebp], 1
  000d3	eb 66		 jmp	 SHORT $LN4@gObjMonste@4
$LN5@gObjMonste@4:

; 300  : 				}
; 301  : 				else if ( gObjCheckTileArea(lpObj->m_Index, gObj[lpObj->sHD[n].number].X , gObj[lpObj->sHD[n].number].Y , 20) == FALSE )

  000d5	6a 14		 push	 20			; 00000014H
  000d7	8b 45 f4	 mov	 eax, DWORD PTR _n$246328[ebp]
  000da	6b c0 0c	 imul	 eax, 12			; 0000000cH
  000dd	8b 4d 08	 mov	 ecx, DWORD PTR _lpObj$[ebp]
  000e0	0f bf 94 01 38
	0c 00 00	 movsx	 edx, WORD PTR [ecx+eax+3128]
  000e8	69 d2 38 2b 00
	00		 imul	 edx, 11064		; 00002b38H
  000ee	a1 00 00 00 00	 mov	 eax, DWORD PTR ?gObj@@3PAUOBJECTSTRUCT@@A ; gObj
  000f3	0f bf 8c 10 46
	01 00 00	 movsx	 ecx, WORD PTR [eax+edx+326]
  000fb	51		 push	 ecx
  000fc	8b 55 f4	 mov	 edx, DWORD PTR _n$246328[ebp]
  000ff	6b d2 0c	 imul	 edx, 12			; 0000000cH
  00102	8b 45 08	 mov	 eax, DWORD PTR _lpObj$[ebp]
  00105	0f bf 8c 10 38
	0c 00 00	 movsx	 ecx, WORD PTR [eax+edx+3128]
  0010d	69 c9 38 2b 00
	00		 imul	 ecx, 11064		; 00002b38H
  00113	8b 15 00 00 00
	00		 mov	 edx, DWORD PTR ?gObj@@3PAUOBJECTSTRUCT@@A ; gObj
  00119	0f bf 84 0a 44
	01 00 00	 movsx	 eax, WORD PTR [edx+ecx+324]
  00121	50		 push	 eax
  00122	8b 4d 08	 mov	 ecx, DWORD PTR _lpObj$[ebp]
  00125	8b 11		 mov	 edx, DWORD PTR [ecx]
  00127	52		 push	 edx
  00128	e8 00 00 00 00	 call	 ?gObjCheckTileArea@@YAHHHHH@Z ; gObjCheckTileArea
  0012d	83 c4 10	 add	 esp, 16			; 00000010H
  00130	85 c0		 test	 eax, eax
  00132	75 07		 jne	 SHORT $LN4@gObjMonste@4

; 302  : 				{
; 303  : 					delok = TRUE;

  00134	c7 45 fc 01 00
	00 00		 mov	 DWORD PTR _delok$[ebp], 1
$LN4@gObjMonste@4:

; 304  : 				}
; 305  : 			}
; 306  : 			else

  0013b	eb 07		 jmp	 SHORT $LN2@gObjMonste@4
$LN7@gObjMonste@4:

; 307  : 			{
; 308  : 				delok = TRUE;

  0013d	c7 45 fc 01 00
	00 00		 mov	 DWORD PTR _delok$[ebp], 1
$LN2@gObjMonste@4:

; 309  : 			}
; 310  : 
; 311  : 
; 312  : 			if ( delok == TRUE )

  00144	83 7d fc 01	 cmp	 DWORD PTR _delok$[ebp], 1
  00148	75 32		 jne	 SHORT $LN8@gObjMonste@4

; 313  : 			{
; 314  : 				lpObj->sHD[n].number = -1;

  0014a	8b 45 f4	 mov	 eax, DWORD PTR _n$246328[ebp]
  0014d	6b c0 0c	 imul	 eax, 12			; 0000000cH
  00150	83 c9 ff	 or	 ecx, -1
  00153	8b 55 08	 mov	 edx, DWORD PTR _lpObj$[ebp]
  00156	66 89 8c 02 38
	0c 00 00	 mov	 WORD PTR [edx+eax+3128], cx

; 315  : 				delindex = n;

  0015e	8b 45 f4	 mov	 eax, DWORD PTR _n$246328[ebp]
  00161	89 45 f8	 mov	 DWORD PTR _delindex$[ebp], eax

; 316  : 				lpObj->sHDCount--;

  00164	8b 45 08	 mov	 eax, DWORD PTR _lpObj$[ebp]
  00167	66 8b 88 18 0e
	00 00		 mov	 cx, WORD PTR [eax+3608]
  0016e	66 83 e9 01	 sub	 cx, 1
  00172	8b 55 08	 mov	 edx, DWORD PTR _lpObj$[ebp]
  00175	66 89 8a 18 0e
	00 00		 mov	 WORD PTR [edx+3608], cx
$LN8@gObjMonste@4:

; 317  : 			}
; 318  : 
; 319  : 
; 320  : 		}
; 321  : 	}

  0017c	e9 9f fe ff ff	 jmp	 $LN10@gObjMonste@4
$LN9@gObjMonste@4:

; 322  : 
; 323  : 	return delindex;

  00181	8b 45 f8	 mov	 eax, DWORD PTR _delindex$[ebp]

; 324  : }

  00184	5f		 pop	 edi
  00185	5e		 pop	 esi
  00186	5b		 pop	 ebx
  00187	8b e5		 mov	 esp, ebp
  00189	5d		 pop	 ebp
  0018a	c3		 ret	 0
?gObjMonsterHitDamageUserDel@@YAHPAUOBJECTSTRUCT@@@Z ENDP ; gObjMonsterHitDamageUserDel
_TEXT	ENDS
PUBLIC	??_C@_0CA@MINPGEPL@error?9L2?5?3?5Hit?5Damage?5Set?5error?$AA@ ; `string'
PUBLIC	?gObjMonsterSetHitDamage@@YAXPAUOBJECTSTRUCT@@HH@Z ; gObjMonsterSetHitDamage
EXTRN	?LogAdd@@3P6AXPADZZA:DWORD			; LogAdd
EXTRN	__ftol2_sse:PROC
;	COMDAT ??_C@_0CA@MINPGEPL@error?9L2?5?3?5Hit?5Damage?5Set?5error?$AA@
CONST	SEGMENT
??_C@_0CA@MINPGEPL@error?9L2?5?3?5Hit?5Damage?5Set?5error?$AA@ DB 'error-'
	DB	'L2 : Hit Damage Set error', 00H		; `string'
; Function compile flags: /Odtp /ZI /ZX
CONST	ENDS
;	COMDAT ?gObjMonsterSetHitDamage@@YAXPAUOBJECTSTRUCT@@HH@Z
_TEXT	SEGMENT
_n$246346 = -8						; size = 4
_blank$ = -4						; size = 4
_lpObj$ = 8						; size = 4
_hit_player$ = 12					; size = 4
_hit_damage$ = 16					; size = 4
?gObjMonsterSetHitDamage@@YAXPAUOBJECTSTRUCT@@HH@Z PROC	; gObjMonsterSetHitDamage, COMDAT

; 327  : {

  00000	55		 push	 ebp
  00001	8b ec		 mov	 ebp, esp
  00003	83 ec 48	 sub	 esp, 72			; 00000048H
  00006	53		 push	 ebx
  00007	56		 push	 esi
  00008	57		 push	 edi

; 328  : 	int blank = -1;

  00009	c7 45 fc ff ff
	ff ff		 mov	 DWORD PTR _blank$[ebp], -1

; 329  : 
; 330  : 	for (int n=0;n<MAX_ST_HIT_DAMAGE;n++)

  00010	c7 45 f8 00 00
	00 00		 mov	 DWORD PTR _n$246346[ebp], 0
  00017	eb 09		 jmp	 SHORT $LN12@gObjMonste@5
$LN11@gObjMonste@5:
  00019	8b 45 f8	 mov	 eax, DWORD PTR _n$246346[ebp]
  0001c	83 c0 01	 add	 eax, 1
  0001f	89 45 f8	 mov	 DWORD PTR _n$246346[ebp], eax
$LN12@gObjMonste@5:
  00022	83 7d f8 28	 cmp	 DWORD PTR _n$246346[ebp], 40 ; 00000028H
  00026	0f 8d c0 00 00
	00		 jge	 $LN10@gObjMonste@5

; 331  : 	{
; 332  : 		if ( lpObj->sHD[n].number >= 0 )

  0002c	8b 45 f8	 mov	 eax, DWORD PTR _n$246346[ebp]
  0002f	6b c0 0c	 imul	 eax, 12			; 0000000cH
  00032	8b 4d 08	 mov	 ecx, DWORD PTR _lpObj$[ebp]
  00035	0f bf 94 01 38
	0c 00 00	 movsx	 edx, WORD PTR [ecx+eax+3128]
  0003d	85 d2		 test	 edx, edx
  0003f	0f 8c 96 00 00
	00		 jl	 $LN9@gObjMonste@5

; 333  : 		{
; 334  : 			if ( lpObj->sHD[n].number == hit_player )

  00045	8b 45 f8	 mov	 eax, DWORD PTR _n$246346[ebp]
  00048	6b c0 0c	 imul	 eax, 12			; 0000000cH
  0004b	8b 4d 08	 mov	 ecx, DWORD PTR _lpObj$[ebp]
  0004e	0f bf 94 01 38
	0c 00 00	 movsx	 edx, WORD PTR [ecx+eax+3128]
  00056	3b 55 0c	 cmp	 edx, DWORD PTR _hit_player$[ebp]
  00059	75 7e		 jne	 SHORT $LN8@gObjMonste@5

; 335  : 			{
; 336  : 				lpObj->sHD[n].HitDamage += hit_damage;

  0005b	8b 45 f8	 mov	 eax, DWORD PTR _n$246346[ebp]
  0005e	6b c0 0c	 imul	 eax, 12			; 0000000cH
  00061	8b 4d 08	 mov	 ecx, DWORD PTR _lpObj$[ebp]
  00064	8b 94 01 3c 0c
	00 00		 mov	 edx, DWORD PTR [ecx+eax+3132]
  0006b	03 55 10	 add	 edx, DWORD PTR _hit_damage$[ebp]
  0006e	8b 45 f8	 mov	 eax, DWORD PTR _n$246346[ebp]
  00071	6b c0 0c	 imul	 eax, 12			; 0000000cH
  00074	8b 4d 08	 mov	 ecx, DWORD PTR _lpObj$[ebp]
  00077	89 94 01 3c 0c
	00 00		 mov	 DWORD PTR [ecx+eax+3132], edx

; 337  : 				lpObj->sHD[n].LastHitTime = GetTickCount();

  0007e	ff 15 00 00 00
	00		 call	 DWORD PTR __imp__GetTickCount@0
  00084	8b 4d f8	 mov	 ecx, DWORD PTR _n$246346[ebp]
  00087	6b c9 0c	 imul	 ecx, 12			; 0000000cH
  0008a	8b 55 08	 mov	 edx, DWORD PTR _lpObj$[ebp]
  0008d	89 84 0a 40 0c
	00 00		 mov	 DWORD PTR [edx+ecx+3136], eax

; 338  : 
; 339  : 				if ( lpObj->sHD[n].HitDamage > lpObj->MaxLife )

  00094	8b 45 f8	 mov	 eax, DWORD PTR _n$246346[ebp]
  00097	6b c0 0c	 imul	 eax, 12			; 0000000cH
  0009a	8b 4d 08	 mov	 ecx, DWORD PTR _lpObj$[ebp]
  0009d	db 84 01 3c 0c
	00 00		 fild	 DWORD PTR [ecx+eax+3132]
  000a4	8b 55 08	 mov	 edx, DWORD PTR _lpObj$[ebp]
  000a7	d9 82 00 01 00
	00		 fld	 DWORD PTR [edx+256]
  000ad	de d9		 fcompp
  000af	df e0		 fnstsw	 ax
  000b1	f6 c4 05	 test	 ah, 5
  000b4	7a 1e		 jp	 SHORT $LN7@gObjMonste@5

; 340  : 				{
; 341  : 					lpObj->sHD[n].HitDamage = (int)lpObj->MaxLife;

  000b6	8b 45 08	 mov	 eax, DWORD PTR _lpObj$[ebp]
  000b9	d9 80 00 01 00
	00		 fld	 DWORD PTR [eax+256]
  000bf	e8 00 00 00 00	 call	 __ftol2_sse
  000c4	8b 4d f8	 mov	 ecx, DWORD PTR _n$246346[ebp]
  000c7	6b c9 0c	 imul	 ecx, 12			; 0000000cH
  000ca	8b 55 08	 mov	 edx, DWORD PTR _lpObj$[ebp]
  000cd	89 84 0a 3c 0c
	00 00		 mov	 DWORD PTR [edx+ecx+3132], eax
$LN7@gObjMonste@5:

; 342  : 				}
; 343  : 
; 344  : 				return;

  000d4	e9 d8 00 00 00	 jmp	 $LN13@gObjMonste@5
$LN8@gObjMonste@5:

; 345  : 			}
; 346  : 		}

  000d9	eb 0c		 jmp	 SHORT $LN5@gObjMonste@5
$LN9@gObjMonste@5:

; 347  : 		else if ( blank < 0 )

  000db	83 7d fc 00	 cmp	 DWORD PTR _blank$[ebp], 0
  000df	7d 06		 jge	 SHORT $LN5@gObjMonste@5

; 348  : 		{
; 349  : 			blank = n;

  000e1	8b 45 f8	 mov	 eax, DWORD PTR _n$246346[ebp]
  000e4	89 45 fc	 mov	 DWORD PTR _blank$[ebp], eax
$LN5@gObjMonste@5:

; 350  : 		}
; 351  : 	}

  000e7	e9 2d ff ff ff	 jmp	 $LN11@gObjMonste@5
$LN10@gObjMonste@5:

; 352  : 
; 353  : 	if ( blank < 0 )

  000ec	83 7d fc 00	 cmp	 DWORD PTR _blank$[ebp], 0
  000f0	7d 0f		 jge	 SHORT $LN4@gObjMonste@5

; 354  : 	{
; 355  : 		blank = gObjMonsterHitDamageUserDel(lpObj);

  000f2	8b 45 08	 mov	 eax, DWORD PTR _lpObj$[ebp]
  000f5	50		 push	 eax
  000f6	e8 00 00 00 00	 call	 ?gObjMonsterHitDamageUserDel@@YAHPAUOBJECTSTRUCT@@@Z ; gObjMonsterHitDamageUserDel
  000fb	83 c4 04	 add	 esp, 4
  000fe	89 45 fc	 mov	 DWORD PTR _blank$[ebp], eax
$LN4@gObjMonste@5:

; 356  : 	}
; 357  : 
; 358  : 	if ( blank >= 0 )

  00101	83 7d fc 00	 cmp	 DWORD PTR _blank$[ebp], 0
  00105	0f 8c 98 00 00
	00		 jl	 $LN3@gObjMonste@5

; 359  : 	{
; 360  : 		lpObj->sHD[blank].number = hit_player;

  0010b	8b 45 fc	 mov	 eax, DWORD PTR _blank$[ebp]
  0010e	6b c0 0c	 imul	 eax, 12			; 0000000cH
  00111	8b 4d 08	 mov	 ecx, DWORD PTR _lpObj$[ebp]
  00114	66 8b 55 0c	 mov	 dx, WORD PTR _hit_player$[ebp]
  00118	66 89 94 01 38
	0c 00 00	 mov	 WORD PTR [ecx+eax+3128], dx

; 361  : 		lpObj->sHD[blank].HitDamage = hit_damage;

  00120	8b 45 fc	 mov	 eax, DWORD PTR _blank$[ebp]
  00123	6b c0 0c	 imul	 eax, 12			; 0000000cH
  00126	8b 4d 08	 mov	 ecx, DWORD PTR _lpObj$[ebp]
  00129	8b 55 10	 mov	 edx, DWORD PTR _hit_damage$[ebp]
  0012c	89 94 01 3c 0c
	00 00		 mov	 DWORD PTR [ecx+eax+3132], edx

; 362  : 
; 363  : 		if ( lpObj->sHD[blank].HitDamage > lpObj->MaxLife )

  00133	8b 45 fc	 mov	 eax, DWORD PTR _blank$[ebp]
  00136	6b c0 0c	 imul	 eax, 12			; 0000000cH
  00139	8b 4d 08	 mov	 ecx, DWORD PTR _lpObj$[ebp]
  0013c	db 84 01 3c 0c
	00 00		 fild	 DWORD PTR [ecx+eax+3132]
  00143	8b 55 08	 mov	 edx, DWORD PTR _lpObj$[ebp]
  00146	d9 82 00 01 00
	00		 fld	 DWORD PTR [edx+256]
  0014c	de d9		 fcompp
  0014e	df e0		 fnstsw	 ax
  00150	f6 c4 05	 test	 ah, 5
  00153	7a 1e		 jp	 SHORT $LN2@gObjMonste@5

; 364  : 		{
; 365  : 			lpObj->sHD[blank].HitDamage = (int)lpObj->MaxLife;

  00155	8b 45 08	 mov	 eax, DWORD PTR _lpObj$[ebp]
  00158	d9 80 00 01 00
	00		 fld	 DWORD PTR [eax+256]
  0015e	e8 00 00 00 00	 call	 __ftol2_sse
  00163	8b 4d fc	 mov	 ecx, DWORD PTR _blank$[ebp]
  00166	6b c9 0c	 imul	 ecx, 12			; 0000000cH
  00169	8b 55 08	 mov	 edx, DWORD PTR _lpObj$[ebp]
  0016c	89 84 0a 3c 0c
	00 00		 mov	 DWORD PTR [edx+ecx+3132], eax
$LN2@gObjMonste@5:

; 366  : 		}
; 367  : 	
; 368  : 		lpObj->sHD[blank].LastHitTime = GetTickCount();

  00173	ff 15 00 00 00
	00		 call	 DWORD PTR __imp__GetTickCount@0
  00179	8b 4d fc	 mov	 ecx, DWORD PTR _blank$[ebp]
  0017c	6b c9 0c	 imul	 ecx, 12			; 0000000cH
  0017f	8b 55 08	 mov	 edx, DWORD PTR _lpObj$[ebp]
  00182	89 84 0a 40 0c
	00 00		 mov	 DWORD PTR [edx+ecx+3136], eax

; 369  : 		lpObj->sHDCount++;

  00189	8b 45 08	 mov	 eax, DWORD PTR _lpObj$[ebp]
  0018c	66 8b 88 18 0e
	00 00		 mov	 cx, WORD PTR [eax+3608]
  00193	66 83 c1 01	 add	 cx, 1
  00197	8b 55 08	 mov	 edx, DWORD PTR _lpObj$[ebp]
  0019a	66 89 8a 18 0e
	00 00		 mov	 WORD PTR [edx+3608], cx

; 370  : 	}
; 371  : 	else

  001a1	eb 0e		 jmp	 SHORT $LN1@gObjMonste@5
$LN3@gObjMonste@5:

; 372  : 	{
; 373  : 		LogAdd("error-L2 : Hit Damage Set error");

  001a3	68 00 00 00 00	 push	 OFFSET ??_C@_0CA@MINPGEPL@error?9L2?5?3?5Hit?5Damage?5Set?5error?$AA@
  001a8	ff 15 00 00 00
	00		 call	 DWORD PTR ?LogAdd@@3P6AXPADZZA ; LogAdd
  001ae	83 c4 04	 add	 esp, 4
$LN1@gObjMonste@5:
$LN13@gObjMonste@5:

; 374  : 	}
; 375  : }

  001b1	5f		 pop	 edi
  001b2	5e		 pop	 esi
  001b3	5b		 pop	 ebx
  001b4	8b e5		 mov	 esp, ebp
  001b6	5d		 pop	 ebp
  001b7	c3		 ret	 0
?gObjMonsterSetHitDamage@@YAXPAUOBJECTSTRUCT@@HH@Z ENDP	; gObjMonsterSetHitDamage
_TEXT	ENDS
PUBLIC	?gObjMonsterTopHitDamageUser@@YAHPAUOBJECTSTRUCT@@@Z ; gObjMonsterTopHitDamageUser
; Function compile flags: /Odtp /ZI /ZX
;	COMDAT ?gObjMonsterTopHitDamageUser@@YAHPAUOBJECTSTRUCT@@@Z
_TEXT	SEGMENT
_n$246367 = -12						; size = 4
_MaxHitDamageUser$ = -8					; size = 4
_MaxHitDamage$ = -4					; size = 4
_lpMonObj$ = 8						; size = 4
?gObjMonsterTopHitDamageUser@@YAHPAUOBJECTSTRUCT@@@Z PROC ; gObjMonsterTopHitDamageUser, COMDAT

; 378  : {

  00000	55		 push	 ebp
  00001	8b ec		 mov	 ebp, esp
  00003	83 ec 4c	 sub	 esp, 76			; 0000004cH
  00006	53		 push	 ebx
  00007	56		 push	 esi
  00008	57		 push	 edi

; 379  : 	int MaxHitDamage = 0;

  00009	c7 45 fc 00 00
	00 00		 mov	 DWORD PTR _MaxHitDamage$[ebp], 0

; 380  : 	int MaxHitDamageUser = -1;

  00010	c7 45 f8 ff ff
	ff ff		 mov	 DWORD PTR _MaxHitDamageUser$[ebp], -1

; 381  : 
; 382  : 	for ( int n=0;n<MAX_ST_HIT_DAMAGE;n++)

  00017	c7 45 f4 00 00
	00 00		 mov	 DWORD PTR _n$246367[ebp], 0
  0001e	eb 09		 jmp	 SHORT $LN5@gObjMonste@6
$LN4@gObjMonste@6:
  00020	8b 45 f4	 mov	 eax, DWORD PTR _n$246367[ebp]
  00023	83 c0 01	 add	 eax, 1
  00026	89 45 f4	 mov	 DWORD PTR _n$246367[ebp], eax
$LN5@gObjMonste@6:
  00029	83 7d f4 28	 cmp	 DWORD PTR _n$246367[ebp], 40 ; 00000028H
  0002d	7d 53		 jge	 SHORT $LN3@gObjMonste@6

; 383  : 	{
; 384  : 		if ( lpMonObj->sHD[n].number >= 0 )

  0002f	8b 45 f4	 mov	 eax, DWORD PTR _n$246367[ebp]
  00032	6b c0 0c	 imul	 eax, 12			; 0000000cH
  00035	8b 4d 08	 mov	 ecx, DWORD PTR _lpMonObj$[ebp]
  00038	0f bf 94 01 38
	0c 00 00	 movsx	 edx, WORD PTR [ecx+eax+3128]
  00040	85 d2		 test	 edx, edx
  00042	7c 3c		 jl	 SHORT $LN2@gObjMonste@6

; 385  : 		{
; 386  : 			if ( lpMonObj->sHD[n].HitDamage > MaxHitDamage )

  00044	8b 45 f4	 mov	 eax, DWORD PTR _n$246367[ebp]
  00047	6b c0 0c	 imul	 eax, 12			; 0000000cH
  0004a	8b 4d 08	 mov	 ecx, DWORD PTR _lpMonObj$[ebp]
  0004d	8b 94 01 3c 0c
	00 00		 mov	 edx, DWORD PTR [ecx+eax+3132]
  00054	3b 55 fc	 cmp	 edx, DWORD PTR _MaxHitDamage$[ebp]
  00057	7e 27		 jle	 SHORT $LN2@gObjMonste@6

; 387  : 			{
; 388  : 				MaxHitDamage = lpMonObj->sHD[n].HitDamage;

  00059	8b 45 f4	 mov	 eax, DWORD PTR _n$246367[ebp]
  0005c	6b c0 0c	 imul	 eax, 12			; 0000000cH
  0005f	8b 4d 08	 mov	 ecx, DWORD PTR _lpMonObj$[ebp]
  00062	8b 94 01 3c 0c
	00 00		 mov	 edx, DWORD PTR [ecx+eax+3132]
  00069	89 55 fc	 mov	 DWORD PTR _MaxHitDamage$[ebp], edx

; 389  : 				MaxHitDamageUser = lpMonObj->sHD[n].number;

  0006c	8b 45 f4	 mov	 eax, DWORD PTR _n$246367[ebp]
  0006f	6b c0 0c	 imul	 eax, 12			; 0000000cH
  00072	8b 4d 08	 mov	 ecx, DWORD PTR _lpMonObj$[ebp]
  00075	0f bf 94 01 38
	0c 00 00	 movsx	 edx, WORD PTR [ecx+eax+3128]
  0007d	89 55 f8	 mov	 DWORD PTR _MaxHitDamageUser$[ebp], edx
$LN2@gObjMonste@6:

; 390  : 			}
; 391  : 		}
; 392  : 	}

  00080	eb 9e		 jmp	 SHORT $LN4@gObjMonste@6
$LN3@gObjMonste@6:

; 393  : 
; 394  : 	return MaxHitDamageUser;

  00082	8b 45 f8	 mov	 eax, DWORD PTR _MaxHitDamageUser$[ebp]

; 395  : }

  00085	5f		 pop	 edi
  00086	5e		 pop	 esi
  00087	5b		 pop	 ebx
  00088	8b e5		 mov	 esp, ebp
  0008a	5d		 pop	 ebp
  0008b	c3		 ret	 0
?gObjMonsterTopHitDamageUser@@YAHPAUOBJECTSTRUCT@@@Z ENDP ; gObjMonsterTopHitDamageUser
_TEXT	ENDS
PUBLIC	?gObjMonsterLastHitDamageUser@@YAHPAUOBJECTSTRUCT@@AAH@Z ; gObjMonsterLastHitDamageUser
; Function compile flags: /Odtp /ZI /ZX
;	COMDAT ?gObjMonsterLastHitDamageUser@@YAHPAUOBJECTSTRUCT@@AAH@Z
_TEXT	SEGMENT
_n$246379 = -12						; size = 4
_LastHitUser$ = -8					; size = 4
_LastHitTime$ = -4					; size = 4
_lpMonObj$ = 8						; size = 4
_hitindex$ = 12						; size = 4
?gObjMonsterLastHitDamageUser@@YAHPAUOBJECTSTRUCT@@AAH@Z PROC ; gObjMonsterLastHitDamageUser, COMDAT

; 398  : {

  00000	55		 push	 ebp
  00001	8b ec		 mov	 ebp, esp
  00003	83 ec 4c	 sub	 esp, 76			; 0000004cH
  00006	53		 push	 ebx
  00007	56		 push	 esi
  00008	57		 push	 edi

; 399  : 	int LastHitTime = 0;

  00009	c7 45 fc 00 00
	00 00		 mov	 DWORD PTR _LastHitTime$[ebp], 0

; 400  : 	int LastHitUser = -1;

  00010	c7 45 f8 ff ff
	ff ff		 mov	 DWORD PTR _LastHitUser$[ebp], -1

; 401  : 
; 402  : 	for ( int n=0;n<MAX_ST_HIT_DAMAGE;n++)

  00017	c7 45 f4 00 00
	00 00		 mov	 DWORD PTR _n$246379[ebp], 0
  0001e	eb 09		 jmp	 SHORT $LN5@gObjMonste@7
$LN4@gObjMonste@7:
  00020	8b 45 f4	 mov	 eax, DWORD PTR _n$246379[ebp]
  00023	83 c0 01	 add	 eax, 1
  00026	89 45 f4	 mov	 DWORD PTR _n$246379[ebp], eax
$LN5@gObjMonste@7:
  00029	83 7d f4 28	 cmp	 DWORD PTR _n$246379[ebp], 40 ; 00000028H
  0002d	7d 5b		 jge	 SHORT $LN3@gObjMonste@7

; 403  : 	{
; 404  : 		if ( lpMonObj->sHD[n].number >= 0 )

  0002f	8b 45 f4	 mov	 eax, DWORD PTR _n$246379[ebp]
  00032	6b c0 0c	 imul	 eax, 12			; 0000000cH
  00035	8b 4d 08	 mov	 ecx, DWORD PTR _lpMonObj$[ebp]
  00038	0f bf 94 01 38
	0c 00 00	 movsx	 edx, WORD PTR [ecx+eax+3128]
  00040	85 d2		 test	 edx, edx
  00042	7c 44		 jl	 SHORT $LN2@gObjMonste@7

; 405  : 		{
; 406  : 			if ( lpMonObj->sHD[n].LastHitTime > LastHitTime )

  00044	8b 45 f4	 mov	 eax, DWORD PTR _n$246379[ebp]
  00047	6b c0 0c	 imul	 eax, 12			; 0000000cH
  0004a	8b 4d 08	 mov	 ecx, DWORD PTR _lpMonObj$[ebp]
  0004d	8b 94 01 40 0c
	00 00		 mov	 edx, DWORD PTR [ecx+eax+3136]
  00054	3b 55 fc	 cmp	 edx, DWORD PTR _LastHitTime$[ebp]
  00057	76 2f		 jbe	 SHORT $LN2@gObjMonste@7

; 407  : 			{
; 408  : 				LastHitTime = lpMonObj->sHD[n].LastHitTime;

  00059	8b 45 f4	 mov	 eax, DWORD PTR _n$246379[ebp]
  0005c	6b c0 0c	 imul	 eax, 12			; 0000000cH
  0005f	8b 4d 08	 mov	 ecx, DWORD PTR _lpMonObj$[ebp]
  00062	8b 94 01 40 0c
	00 00		 mov	 edx, DWORD PTR [ecx+eax+3136]
  00069	89 55 fc	 mov	 DWORD PTR _LastHitTime$[ebp], edx

; 409  : 				LastHitUser = lpMonObj->sHD[n].number;

  0006c	8b 45 f4	 mov	 eax, DWORD PTR _n$246379[ebp]
  0006f	6b c0 0c	 imul	 eax, 12			; 0000000cH
  00072	8b 4d 08	 mov	 ecx, DWORD PTR _lpMonObj$[ebp]
  00075	0f bf 94 01 38
	0c 00 00	 movsx	 edx, WORD PTR [ecx+eax+3128]
  0007d	89 55 f8	 mov	 DWORD PTR _LastHitUser$[ebp], edx

; 410  : 				hitindex = n;

  00080	8b 45 0c	 mov	 eax, DWORD PTR _hitindex$[ebp]
  00083	8b 4d f4	 mov	 ecx, DWORD PTR _n$246379[ebp]
  00086	89 08		 mov	 DWORD PTR [eax], ecx
$LN2@gObjMonste@7:

; 411  : 			}
; 412  : 		}
; 413  : 	}

  00088	eb 96		 jmp	 SHORT $LN4@gObjMonste@7
$LN3@gObjMonste@7:

; 414  : 
; 415  : 	return LastHitUser;

  0008a	8b 45 f8	 mov	 eax, DWORD PTR _LastHitUser$[ebp]

; 416  : }

  0008d	5f		 pop	 edi
  0008e	5e		 pop	 esi
  0008f	5b		 pop	 ebx
  00090	8b e5		 mov	 esp, ebp
  00092	5d		 pop	 ebp
  00093	c3		 ret	 0
?gObjMonsterLastHitDamageUser@@YAHPAUOBJECTSTRUCT@@AAH@Z ENDP ; gObjMonsterLastHitDamageUser
_TEXT	ENDS
PUBLIC	??_C@_0EJ@LOBMAKBH@?$FL?5KANTURU?5?$FN?$FL?5Debug?5?9?5m_PosNum?5?$FN?5@ ; `string'
PUBLIC	?gObjMonsterMoveCheck@@YAHPAUOBJECTSTRUCT@@HH@Z	; gObjMonsterMoveCheck
EXTRN	?LogAddTD@@3P6AXPADZZA:DWORD			; LogAddTD
EXTRN	_sqrt:PROC
;	COMDAT ??_C@_0EJ@LOBMAKBH@?$FL?5KANTURU?5?$FN?$FL?5Debug?5?9?5m_PosNum?5?$FN?5@
CONST	SEGMENT
??_C@_0EJ@LOBMAKBH@?$FL?5KANTURU?5?$FN?$FL?5Debug?5?9?5m_PosNum?5?$FN?5@ DB '['
	DB	' KANTURU ][ Debug - m_PosNum ] Fail %s(Index:%d) X%d-Y%d -> X'
	DB	'%d-Y%d(%d)', 00H				; `string'
; Function compile flags: /Odtp /ZI /ZX
CONST	ENDS
;	COMDAT ?gObjMonsterMoveCheck@@YAHPAUOBJECTSTRUCT@@HH@Z
_TEXT	SEGMENT
tv199 = -80						; size = 4
tv175 = -80						; size = 4
_dis$246400 = -12					; size = 4
_lpPos$246398 = -8					; size = 4
_dis$246392 = -4					; size = 4
_lpObj$ = 8						; size = 4
_tx$ = 12						; size = 4
_ty$ = 16						; size = 4
?gObjMonsterMoveCheck@@YAHPAUOBJECTSTRUCT@@HH@Z PROC	; gObjMonsterMoveCheck, COMDAT

; 419  : {

  00000	55		 push	 ebp
  00001	8b ec		 mov	 ebp, esp
  00003	83 ec 50	 sub	 esp, 80			; 00000050H
  00006	53		 push	 ebx
  00007	56		 push	 esi
  00008	57		 push	 edi

; 420  : 	if ( lpObj->m_ActState.Emotion  == 1 )

  00009	8b 45 08	 mov	 eax, DWORD PTR _lpObj$[ebp]
  0000c	8b 88 18 02 00
	00		 mov	 ecx, DWORD PTR [eax+536]
  00012	c1 e9 04	 shr	 ecx, 4
  00015	83 e1 0f	 and	 ecx, 15			; 0000000fH
  00018	83 f9 01	 cmp	 ecx, 1
  0001b	75 0a		 jne	 SHORT $LN6@gObjMonste@8

; 421  : 	{
; 422  : 		return TRUE;

  0001d	b8 01 00 00 00	 mov	 eax, 1
  00022	e9 52 01 00 00	 jmp	 $LN7@gObjMonste@8
$LN6@gObjMonste@8:

; 423  : 	}
; 424  : 
; 425  : //#if(GS_CASTLE==0)
; 426  : 	if ( lpObj->MapNumber == MAP_INDEX_KANTURU_BOSS && lpObj->m_PosNum < 0)

  00027	8b 45 08	 mov	 eax, DWORD PTR _lpObj$[ebp]
  0002a	0f b6 88 49 01
	00 00		 movzx	 ecx, BYTE PTR [eax+329]
  00031	83 f9 27	 cmp	 ecx, 39			; 00000027H
  00034	0f 85 b5 00 00
	00		 jne	 $LN5@gObjMonste@8
  0003a	8b 45 08	 mov	 eax, DWORD PTR _lpObj$[ebp]
  0003d	0f bf 88 b0 03
	00 00		 movsx	 ecx, WORD PTR [eax+944]
  00044	85 c9		 test	 ecx, ecx
  00046	0f 8d a3 00 00
	00		 jge	 $LN5@gObjMonste@8

; 427  : 	{
; 428  : 		tx -= lpObj->StartX;

  0004c	8b 45 08	 mov	 eax, DWORD PTR _lpObj$[ebp]
  0004f	0f b6 88 76 01
	00 00		 movzx	 ecx, BYTE PTR [eax+374]
  00056	8b 55 0c	 mov	 edx, DWORD PTR _tx$[ebp]
  00059	2b d1		 sub	 edx, ecx
  0005b	89 55 0c	 mov	 DWORD PTR _tx$[ebp], edx

; 429  : 		ty -= lpObj->StartY;

  0005e	8b 45 08	 mov	 eax, DWORD PTR _lpObj$[ebp]
  00061	0f b6 88 77 01
	00 00		 movzx	 ecx, BYTE PTR [eax+375]
  00068	8b 55 10	 mov	 edx, DWORD PTR _ty$[ebp]
  0006b	2b d1		 sub	 edx, ecx
  0006d	89 55 10	 mov	 DWORD PTR _ty$[ebp], edx

; 430  : 		int dis = (int)(sqrt((double)tx*tx + ty*ty));

  00070	db 45 0c	 fild	 DWORD PTR _tx$[ebp]
  00073	da 4d 0c	 fimul	 DWORD PTR _tx$[ebp]
  00076	8b 45 10	 mov	 eax, DWORD PTR _ty$[ebp]
  00079	0f af 45 10	 imul	 eax, DWORD PTR _ty$[ebp]
  0007d	89 45 b0	 mov	 DWORD PTR tv175[ebp], eax
  00080	db 45 b0	 fild	 DWORD PTR tv175[ebp]
  00083	de c1		 faddp	 ST(1), ST(0)
  00085	83 ec 08	 sub	 esp, 8
  00088	dd 1c 24	 fstp	 QWORD PTR [esp]
  0008b	e8 00 00 00 00	 call	 _sqrt
  00090	83 c4 08	 add	 esp, 8
  00093	e8 00 00 00 00	 call	 __ftol2_sse
  00098	89 45 fc	 mov	 DWORD PTR _dis$246392[ebp], eax

; 431  : 
; 432  : 		if ( dis > 30 )

  0009b	83 7d fc 1e	 cmp	 DWORD PTR _dis$246392[ebp], 30 ; 0000001eH
  0009f	7e 49		 jle	 SHORT $LN4@gObjMonste@8

; 433  : 		{
; 434  : 			LogAddTD("[ KANTURU ][ Debug - m_PosNum ] Fail %s(Index:%d) X%d-Y%d -> X%d-Y%d(%d)", lpObj->Name, lpObj->Class, lpObj->StartX, lpObj->StartY, tx, ty, dis);

  000a1	8b 45 fc	 mov	 eax, DWORD PTR _dis$246392[ebp]
  000a4	50		 push	 eax
  000a5	8b 4d 10	 mov	 ecx, DWORD PTR _ty$[ebp]
  000a8	51		 push	 ecx
  000a9	8b 55 0c	 mov	 edx, DWORD PTR _tx$[ebp]
  000ac	52		 push	 edx
  000ad	8b 45 08	 mov	 eax, DWORD PTR _lpObj$[ebp]
  000b0	0f b6 88 77 01
	00 00		 movzx	 ecx, BYTE PTR [eax+375]
  000b7	51		 push	 ecx
  000b8	8b 55 08	 mov	 edx, DWORD PTR _lpObj$[ebp]
  000bb	0f b6 82 76 01
	00 00		 movzx	 eax, BYTE PTR [edx+374]
  000c2	50		 push	 eax
  000c3	8b 4d 08	 mov	 ecx, DWORD PTR _lpObj$[ebp]
  000c6	0f b7 91 b8 00
	00 00		 movzx	 edx, WORD PTR [ecx+184]
  000cd	52		 push	 edx
  000ce	8b 45 08	 mov	 eax, DWORD PTR _lpObj$[ebp]
  000d1	83 c0 77	 add	 eax, 119		; 00000077H
  000d4	50		 push	 eax
  000d5	68 00 00 00 00	 push	 OFFSET ??_C@_0EJ@LOBMAKBH@?$FL?5KANTURU?5?$FN?$FL?5Debug?5?9?5m_PosNum?5?$FN?5@
  000da	ff 15 00 00 00
	00		 call	 DWORD PTR ?LogAddTD@@3P6AXPADZZA ; LogAddTD
  000e0	83 c4 20	 add	 esp, 32			; 00000020H

; 435  : 			return FALSE;

  000e3	33 c0		 xor	 eax, eax
  000e5	e9 8f 00 00 00	 jmp	 $LN7@gObjMonste@8
$LN4@gObjMonste@8:

; 436  : 		}
; 437  : 	}
; 438  : 	else

  000ea	e9 85 00 00 00	 jmp	 $LN1@gObjMonste@8
$LN5@gObjMonste@8:

; 439  : //#endif
; 440  : 	{
; 441  : 		LPMONSTER_POSITION lpPos = &gMSetBase.m_Mp[lpObj->m_PosNum];

  000ef	8b 45 08	 mov	 eax, DWORD PTR _lpObj$[ebp]
  000f2	0f bf 88 b0 03
	00 00		 movsx	 ecx, WORD PTR [eax+944]
  000f9	c1 e1 04	 shl	 ecx, 4
  000fc	81 c1 04 00 00
	00		 add	 ecx, OFFSET ?gMSetBase@@3VCMonsterSetBase@@A+4
  00102	89 4d f8	 mov	 DWORD PTR _lpPos$246398[ebp], ecx

; 442  : 
; 443  : 		if ( lpPos->m_Dis < 1 )

  00105	8b 45 f8	 mov	 eax, DWORD PTR _lpPos$246398[ebp]
  00108	0f b6 48 05	 movzx	 ecx, BYTE PTR [eax+5]
  0010c	83 f9 01	 cmp	 ecx, 1
  0010f	7d 04		 jge	 SHORT $LN2@gObjMonste@8

; 444  : 		{
; 445  : 			return FALSE;

  00111	33 c0		 xor	 eax, eax
  00113	eb 64		 jmp	 SHORT $LN7@gObjMonste@8
$LN2@gObjMonste@8:

; 446  : 		}
; 447  : 
; 448  : 		tx -= lpObj->StartX;

  00115	8b 45 08	 mov	 eax, DWORD PTR _lpObj$[ebp]
  00118	0f b6 88 76 01
	00 00		 movzx	 ecx, BYTE PTR [eax+374]
  0011f	8b 55 0c	 mov	 edx, DWORD PTR _tx$[ebp]
  00122	2b d1		 sub	 edx, ecx
  00124	89 55 0c	 mov	 DWORD PTR _tx$[ebp], edx

; 449  : 		ty -= lpObj->StartY;

  00127	8b 45 08	 mov	 eax, DWORD PTR _lpObj$[ebp]
  0012a	0f b6 88 77 01
	00 00		 movzx	 ecx, BYTE PTR [eax+375]
  00131	8b 55 10	 mov	 edx, DWORD PTR _ty$[ebp]
  00134	2b d1		 sub	 edx, ecx
  00136	89 55 10	 mov	 DWORD PTR _ty$[ebp], edx

; 450  : 
; 451  : 		int dis = (int)(sqrt((double)tx * tx + ty * ty));

  00139	db 45 0c	 fild	 DWORD PTR _tx$[ebp]
  0013c	da 4d 0c	 fimul	 DWORD PTR _tx$[ebp]
  0013f	8b 45 10	 mov	 eax, DWORD PTR _ty$[ebp]
  00142	0f af 45 10	 imul	 eax, DWORD PTR _ty$[ebp]
  00146	89 45 b0	 mov	 DWORD PTR tv199[ebp], eax
  00149	db 45 b0	 fild	 DWORD PTR tv199[ebp]
  0014c	de c1		 faddp	 ST(1), ST(0)
  0014e	83 ec 08	 sub	 esp, 8
  00151	dd 1c 24	 fstp	 QWORD PTR [esp]
  00154	e8 00 00 00 00	 call	 _sqrt
  00159	83 c4 08	 add	 esp, 8
  0015c	e8 00 00 00 00	 call	 __ftol2_sse
  00161	89 45 f4	 mov	 DWORD PTR _dis$246400[ebp], eax

; 452  : 
; 453  : 		if ( dis > lpPos->m_Dis)

  00164	8b 45 f8	 mov	 eax, DWORD PTR _lpPos$246398[ebp]
  00167	0f b6 48 05	 movzx	 ecx, BYTE PTR [eax+5]
  0016b	39 4d f4	 cmp	 DWORD PTR _dis$246400[ebp], ecx
  0016e	7e 04		 jle	 SHORT $LN1@gObjMonste@8

; 454  : 		{
; 455  : 			return FALSE;

  00170	33 c0		 xor	 eax, eax
  00172	eb 05		 jmp	 SHORT $LN7@gObjMonste@8
$LN1@gObjMonste@8:

; 456  : 		}	
; 457  : 	}
; 458  : 
; 459  : 	return TRUE;

  00174	b8 01 00 00 00	 mov	 eax, 1
$LN7@gObjMonste@8:

; 460  : }

  00179	5f		 pop	 edi
  0017a	5e		 pop	 esi
  0017b	5b		 pop	 ebx
  0017c	8b e5		 mov	 esp, ebp
  0017e	5d		 pop	 ebp
  0017f	c3		 ret	 0
?gObjMonsterMoveCheck@@YAHPAUOBJECTSTRUCT@@HH@Z ENDP	; gObjMonsterMoveCheck
_TEXT	ENDS
PUBLIC	?gObjMonsterGetTargetPos@@YAHPAUOBJECTSTRUCT@@@Z ; gObjMonsterGetTargetPos
EXTRN	?GetAttr@MapClass@@QAEEHH@Z:PROC		; MapClass::GetAttr
EXTRN	?RoadPathTable@@3PAFA:BYTE			; RoadPathTable
EXTRN	?GetStandAttr@MapClass@@QAEHHH@Z:PROC		; MapClass::GetStandAttr
EXTRN	?MapC@@3PAVMapClass@@A:BYTE			; MapC
EXTRN	?GetPathPacketDirPos@@YAEHH@Z:PROC		; GetPathPacketDirPos
EXTRN	?gObjSearchActiveEffect@@YAEPAUOBJECTSTRUCT@@H@Z:PROC ; gObjSearchActiveEffect
; Function compile flags: /Odtp /ZI /ZX
;	COMDAT ?gObjMonsterGetTargetPos@@YAHPAUOBJECTSTRUCT@@@Z
_TEXT	SEGMENT
tv89 = -116						; size = 4
_dis$ = -48						; size = 4
_vpn$ = -44						; size = 4
_lpTargetObj$ = -40					; size = 4
_result$ = -36						; size = 4
_attr$ = -29						; size = 1
_searchcount$ = -28					; size = 4
_sn$ = -24						; size = 4
_searchp$ = -20						; size = 4
_mty$ = -16						; size = 4
_mtx$ = -12						; size = 4
_tpy$ = -8						; size = 4
_tpx$ = -4						; size = 4
_lpObj$ = 8						; size = 4
?gObjMonsterGetTargetPos@@YAHPAUOBJECTSTRUCT@@@Z PROC	; gObjMonsterGetTargetPos, COMDAT

; 463  : {

  00000	55		 push	 ebp
  00001	8b ec		 mov	 ebp, esp
  00003	83 ec 74	 sub	 esp, 116		; 00000074H
  00006	53		 push	 ebx
  00007	56		 push	 esi
  00008	57		 push	 edi

; 464  : 	int tpx;	// Target Player X
; 465  : 	int tpy;
; 466  : 	int mtx;	// Monster Target X
; 467  : 	int mty;
; 468  : 	int searchp = 0;

  00009	c7 45 ec 00 00
	00 00		 mov	 DWORD PTR _searchp$[ebp], 0

; 469  : 	int sn = 0;

  00010	c7 45 e8 00 00
	00 00		 mov	 DWORD PTR _sn$[ebp], 0

; 470  : 	int searchcount = MAX_ROAD_PATH_TABLE/2-1;

  00017	c7 45 e4 07 00
	00 00		 mov	 DWORD PTR _searchcount$[ebp], 7

; 471  : 	BYTE attr;
; 472  : 	BOOL result;
; 473  : 	LPOBJ lpTargetObj;
; 474  : 
; 475  : 	if ( lpObj->m_MoveRange == 0 && (gObjSearchActiveEffect(lpObj, AT_ICE_ARROW) == TRUE) && (gObjSearchActiveEffect(lpObj, AT_STUN) == TRUE) ) //season3 changed

  0001e	8b 45 08	 mov	 eax, DWORD PTR _lpObj$[ebp]
  00021	0f bf 88 ae 04
	00 00		 movsx	 ecx, WORD PTR [eax+1198]
  00028	85 c9		 test	 ecx, ecx
  0002a	75 33		 jne	 SHORT $LN23@gObjMonste@9
  0002c	6a 39		 push	 57			; 00000039H
  0002e	8b 45 08	 mov	 eax, DWORD PTR _lpObj$[ebp]
  00031	50		 push	 eax
  00032	e8 00 00 00 00	 call	 ?gObjSearchActiveEffect@@YAEPAUOBJECTSTRUCT@@H@Z ; gObjSearchActiveEffect
  00037	83 c4 08	 add	 esp, 8
  0003a	0f b6 c8	 movzx	 ecx, al
  0003d	83 f9 01	 cmp	 ecx, 1
  00040	75 1d		 jne	 SHORT $LN23@gObjMonste@9
  00042	6a 3d		 push	 61			; 0000003dH
  00044	8b 45 08	 mov	 eax, DWORD PTR _lpObj$[ebp]
  00047	50		 push	 eax
  00048	e8 00 00 00 00	 call	 ?gObjSearchActiveEffect@@YAEPAUOBJECTSTRUCT@@H@Z ; gObjSearchActiveEffect
  0004d	83 c4 08	 add	 esp, 8
  00050	0f b6 c8	 movzx	 ecx, al
  00053	83 f9 01	 cmp	 ecx, 1
  00056	75 07		 jne	 SHORT $LN23@gObjMonste@9

; 476  : 	{
; 477  : 		return FALSE;

  00058	33 c0		 xor	 eax, eax
  0005a	e9 bf 03 00 00	 jmp	 $LN24@gObjMonste@9
$LN23@gObjMonste@9:

; 478  : 	}
; 479  : 
; 480  : 	if (gObjSearchActiveEffect(lpObj, AT_SLEEP) == TRUE) //season3 add-on

  0005f	6a 48		 push	 72			; 00000048H
  00061	8b 45 08	 mov	 eax, DWORD PTR _lpObj$[ebp]
  00064	50		 push	 eax
  00065	e8 00 00 00 00	 call	 ?gObjSearchActiveEffect@@YAEPAUOBJECTSTRUCT@@H@Z ; gObjSearchActiveEffect
  0006a	83 c4 08	 add	 esp, 8
  0006d	0f b6 c8	 movzx	 ecx, al
  00070	83 f9 01	 cmp	 ecx, 1
  00073	75 07		 jne	 SHORT $LN22@gObjMonste@9

; 481  : 	{
; 482  : 		return FALSE;

  00075	33 c0		 xor	 eax, eax
  00077	e9 a2 03 00 00	 jmp	 $LN24@gObjMonste@9
$LN22@gObjMonste@9:

; 483  : 	}
; 484  : 
; 485  : 	if ( OBJMAX_RANGE(lpObj->TargetNumber) == FALSE )

  0007c	8b 45 08	 mov	 eax, DWORD PTR _lpObj$[ebp]
  0007f	0f bf 88 58 04
	00 00		 movsx	 ecx, WORD PTR [eax+1112]
  00086	85 c9		 test	 ecx, ecx
  00088	7d 09		 jge	 SHORT $LN26@gObjMonste@9
  0008a	c7 45 8c 00 00
	00 00		 mov	 DWORD PTR tv89[ebp], 0
  00091	eb 17		 jmp	 SHORT $LN27@gObjMonste@9
$LN26@gObjMonste@9:
  00093	8b 55 08	 mov	 edx, DWORD PTR _lpObj$[ebp]
  00096	0f bf 82 58 04
	00 00		 movsx	 eax, WORD PTR [edx+1112]
  0009d	33 c9		 xor	 ecx, ecx
  0009f	3d 97 3a 00 00	 cmp	 eax, 14999		; 00003a97H
  000a4	0f 9e c1	 setle	 cl
  000a7	89 4d 8c	 mov	 DWORD PTR tv89[ebp], ecx
$LN27@gObjMonste@9:
  000aa	83 7d 8c 00	 cmp	 DWORD PTR tv89[ebp], 0
  000ae	75 07		 jne	 SHORT $LN21@gObjMonste@9

; 486  : 	{
; 487  : 		return FALSE;

  000b0	33 c0		 xor	 eax, eax
  000b2	e9 67 03 00 00	 jmp	 $LN24@gObjMonste@9
$LN21@gObjMonste@9:

; 488  : 	}
; 489  : 
; 490  : 	lpTargetObj = &gObj[lpObj->TargetNumber];

  000b7	8b 45 08	 mov	 eax, DWORD PTR _lpObj$[ebp]
  000ba	0f bf 88 58 04
	00 00		 movsx	 ecx, WORD PTR [eax+1112]
  000c1	69 c9 38 2b 00
	00		 imul	 ecx, 11064		; 00002b38H
  000c7	03 0d 00 00 00
	00		 add	 ecx, DWORD PTR ?gObj@@3PAUOBJECTSTRUCT@@A ; gObj
  000cd	89 4d d8	 mov	 DWORD PTR _lpTargetObj$[ebp], ecx

; 491  : 
; 492  : 	if ( lpTargetObj->Teleport != 0 )

  000d0	8b 45 d8	 mov	 eax, DWORD PTR _lpTargetObj$[ebp]
  000d3	0f be 88 a0 03
	00 00		 movsx	 ecx, BYTE PTR [eax+928]
  000da	85 c9		 test	 ecx, ecx
  000dc	74 07		 je	 SHORT $LN20@gObjMonste@9

; 493  : 	{
; 494  : 		return FALSE;

  000de	33 c0		 xor	 eax, eax
  000e0	e9 39 03 00 00	 jmp	 $LN24@gObjMonste@9
$LN20@gObjMonste@9:

; 495  : 	}
; 496  : 
; 497  : 	int vpn = gObjMonsterViewportIsCharacter(lpObj);

  000e5	8b 45 08	 mov	 eax, DWORD PTR _lpObj$[ebp]
  000e8	50		 push	 eax
  000e9	e8 00 00 00 00	 call	 ?gObjMonsterViewportIsCharacter@@YAHPAUOBJECTSTRUCT@@@Z ; gObjMonsterViewportIsCharacter
  000ee	83 c4 04	 add	 esp, 4
  000f1	89 45 d4	 mov	 DWORD PTR _vpn$[ebp], eax

; 498  : 
; 499  : 	if ( vpn < 0 )

  000f4	83 7d d4 00	 cmp	 DWORD PTR _vpn$[ebp], 0
  000f8	7d 07		 jge	 SHORT $LN19@gObjMonste@9

; 500  : 	{
; 501  : 		return FALSE;

  000fa	33 c0		 xor	 eax, eax
  000fc	e9 1d 03 00 00	 jmp	 $LN24@gObjMonste@9
$LN19@gObjMonste@9:

; 502  : 	}
; 503  : 	
; 504  : 	tpx = lpTargetObj->X;

  00101	8b 45 d8	 mov	 eax, DWORD PTR _lpTargetObj$[ebp]
  00104	0f bf 88 44 01
	00 00		 movsx	 ecx, WORD PTR [eax+324]
  0010b	89 4d fc	 mov	 DWORD PTR _tpx$[ebp], ecx

; 505  : 	mtx = tpx;

  0010e	8b 45 fc	 mov	 eax, DWORD PTR _tpx$[ebp]
  00111	89 45 f4	 mov	 DWORD PTR _mtx$[ebp], eax

; 506  : 	tpy = lpTargetObj->Y;

  00114	8b 45 d8	 mov	 eax, DWORD PTR _lpTargetObj$[ebp]
  00117	0f bf 88 46 01
	00 00		 movsx	 ecx, WORD PTR [eax+326]
  0011e	89 4d f8	 mov	 DWORD PTR _tpy$[ebp], ecx

; 507  : 	mty = tpy;

  00121	8b 45 f8	 mov	 eax, DWORD PTR _tpy$[ebp]
  00124	89 45 f0	 mov	 DWORD PTR _mty$[ebp], eax

; 508  : 	int dis;
; 509  : 
; 510  : 	if ( lpObj->m_AttackType >= 100 )

  00127	8b 45 08	 mov	 eax, DWORD PTR _lpObj$[ebp]
  0012a	0f bf 88 b2 04
	00 00		 movsx	 ecx, WORD PTR [eax+1202]
  00131	83 f9 64	 cmp	 ecx, 100		; 00000064H
  00134	7c 12		 jl	 SHORT $LN18@gObjMonste@9

; 511  : 	{
; 512  : 		dis = lpObj->m_AttackRange + 2;

  00136	8b 45 08	 mov	 eax, DWORD PTR _lpObj$[ebp]
  00139	0f bf 88 b0 04
	00 00		 movsx	 ecx, WORD PTR [eax+1200]
  00140	83 c1 02	 add	 ecx, 2
  00143	89 4d d0	 mov	 DWORD PTR _dis$[ebp], ecx

; 513  : 	}
; 514  : 	else

  00146	eb 0d		 jmp	 SHORT $LN17@gObjMonste@9
$LN18@gObjMonste@9:

; 515  : 	{
; 516  : 		dis = lpObj->m_AttackRange;

  00148	8b 45 08	 mov	 eax, DWORD PTR _lpObj$[ebp]
  0014b	0f bf 88 b0 04
	00 00		 movsx	 ecx, WORD PTR [eax+1200]
  00152	89 4d d0	 mov	 DWORD PTR _dis$[ebp], ecx
$LN17@gObjMonste@9:

; 517  : 	}
; 518  : 
; 519  : 	if ( lpObj->X < mtx )

  00155	8b 45 08	 mov	 eax, DWORD PTR _lpObj$[ebp]
  00158	0f bf 88 44 01
	00 00		 movsx	 ecx, WORD PTR [eax+324]
  0015f	3b 4d f4	 cmp	 ecx, DWORD PTR _mtx$[ebp]
  00162	7d 09		 jge	 SHORT $LN16@gObjMonste@9

; 520  : 	{
; 521  : 		tpx -= dis;

  00164	8b 45 fc	 mov	 eax, DWORD PTR _tpx$[ebp]
  00167	2b 45 d0	 sub	 eax, DWORD PTR _dis$[ebp]
  0016a	89 45 fc	 mov	 DWORD PTR _tpx$[ebp], eax
$LN16@gObjMonste@9:

; 522  : 	}
; 523  : 
; 524  : 	if ( lpObj->X > mtx )

  0016d	8b 45 08	 mov	 eax, DWORD PTR _lpObj$[ebp]
  00170	0f bf 88 44 01
	00 00		 movsx	 ecx, WORD PTR [eax+324]
  00177	3b 4d f4	 cmp	 ecx, DWORD PTR _mtx$[ebp]
  0017a	7e 09		 jle	 SHORT $LN15@gObjMonste@9

; 525  : 	{
; 526  : 		tpx += dis;

  0017c	8b 45 fc	 mov	 eax, DWORD PTR _tpx$[ebp]
  0017f	03 45 d0	 add	 eax, DWORD PTR _dis$[ebp]
  00182	89 45 fc	 mov	 DWORD PTR _tpx$[ebp], eax
$LN15@gObjMonste@9:

; 527  : 	}
; 528  : 
; 529  : 	if ( lpObj->Y < mty )

  00185	8b 45 08	 mov	 eax, DWORD PTR _lpObj$[ebp]
  00188	0f bf 88 46 01
	00 00		 movsx	 ecx, WORD PTR [eax+326]
  0018f	3b 4d f0	 cmp	 ecx, DWORD PTR _mty$[ebp]
  00192	7d 09		 jge	 SHORT $LN14@gObjMonste@9

; 530  : 	{
; 531  : 		tpy -= dis;

  00194	8b 45 f8	 mov	 eax, DWORD PTR _tpy$[ebp]
  00197	2b 45 d0	 sub	 eax, DWORD PTR _dis$[ebp]
  0019a	89 45 f8	 mov	 DWORD PTR _tpy$[ebp], eax
$LN14@gObjMonste@9:

; 532  : 	}
; 533  : 
; 534  : 	if ( lpObj->Y > mty )

  0019d	8b 45 08	 mov	 eax, DWORD PTR _lpObj$[ebp]
  001a0	0f bf 88 46 01
	00 00		 movsx	 ecx, WORD PTR [eax+326]
  001a7	3b 4d f0	 cmp	 ecx, DWORD PTR _mty$[ebp]
  001aa	7e 09		 jle	 SHORT $LN13@gObjMonste@9

; 535  : 	{
; 536  : 		tpy += dis;

  001ac	8b 45 f8	 mov	 eax, DWORD PTR _tpy$[ebp]
  001af	03 45 d0	 add	 eax, DWORD PTR _dis$[ebp]
  001b2	89 45 f8	 mov	 DWORD PTR _tpy$[ebp], eax
$LN13@gObjMonste@9:

; 537  : 	}
; 538  : 
; 539  : 	searchp = GetPathPacketDirPos( (lpTargetObj->X - tpx), (lpTargetObj->Y - tpy) ) * 2;

  001b5	8b 45 d8	 mov	 eax, DWORD PTR _lpTargetObj$[ebp]
  001b8	0f bf 88 46 01
	00 00		 movsx	 ecx, WORD PTR [eax+326]
  001bf	2b 4d f8	 sub	 ecx, DWORD PTR _tpy$[ebp]
  001c2	51		 push	 ecx
  001c3	8b 55 d8	 mov	 edx, DWORD PTR _lpTargetObj$[ebp]
  001c6	0f bf 82 44 01
	00 00		 movsx	 eax, WORD PTR [edx+324]
  001cd	2b 45 fc	 sub	 eax, DWORD PTR _tpx$[ebp]
  001d0	50		 push	 eax
  001d1	e8 00 00 00 00	 call	 ?GetPathPacketDirPos@@YAEHH@Z ; GetPathPacketDirPos
  001d6	83 c4 08	 add	 esp, 8
  001d9	0f b6 c8	 movzx	 ecx, al
  001dc	d1 e1		 shl	 ecx, 1
  001de	89 4d ec	 mov	 DWORD PTR _searchp$[ebp], ecx

; 540  : 
; 541  : 	if ( MapC[lpObj->MapNumber].GetStandAttr(tpx, tpy) == 0 )

  001e1	8b 45 f8	 mov	 eax, DWORD PTR _tpy$[ebp]
  001e4	50		 push	 eax
  001e5	8b 4d fc	 mov	 ecx, DWORD PTR _tpx$[ebp]
  001e8	51		 push	 ecx
  001e9	8b 55 08	 mov	 edx, DWORD PTR _lpObj$[ebp]
  001ec	0f b6 8a 49 01
	00 00		 movzx	 ecx, BYTE PTR [edx+329]
  001f3	69 c9 b8 3d 05
	00		 imul	 ecx, 343480		; 00053db8H
  001f9	81 c1 00 00 00
	00		 add	 ecx, OFFSET ?MapC@@3PAVMapClass@@A ; MapC
  001ff	e8 00 00 00 00	 call	 ?GetStandAttr@MapClass@@QAEHHH@Z ; MapClass::GetStandAttr
  00204	85 c0		 test	 eax, eax
  00206	0f 85 40 01 00
	00		 jne	 $LN12@gObjMonste@9
$LN11@gObjMonste@9:

; 542  : 	{
; 543  : 		while ( searchcount-- )

  0020c	8b 45 e4	 mov	 eax, DWORD PTR _searchcount$[ebp]
  0020f	8b 4d e4	 mov	 ecx, DWORD PTR _searchcount$[ebp]
  00212	83 e9 01	 sub	 ecx, 1
  00215	89 4d e4	 mov	 DWORD PTR _searchcount$[ebp], ecx
  00218	85 c0		 test	 eax, eax
  0021a	0f 84 25 01 00
	00		 je	 $LN10@gObjMonste@9

; 544  : 		{
; 545  : 			mtx = lpTargetObj->X + RoadPathTable[searchp];

  00220	8b 45 d8	 mov	 eax, DWORD PTR _lpTargetObj$[ebp]
  00223	0f bf 88 44 01
	00 00		 movsx	 ecx, WORD PTR [eax+324]
  0022a	8b 55 ec	 mov	 edx, DWORD PTR _searchp$[ebp]
  0022d	0f bf 04 55 00
	00 00 00	 movsx	 eax, WORD PTR ?RoadPathTable@@3PAFA[edx*2]
  00235	03 c8		 add	 ecx, eax
  00237	89 4d f4	 mov	 DWORD PTR _mtx$[ebp], ecx

; 546  : 			mty = lpTargetObj->Y + RoadPathTable[1+searchp];

  0023a	8b 45 d8	 mov	 eax, DWORD PTR _lpTargetObj$[ebp]
  0023d	0f bf 88 46 01
	00 00		 movsx	 ecx, WORD PTR [eax+326]
  00244	8b 55 ec	 mov	 edx, DWORD PTR _searchp$[ebp]
  00247	0f bf 04 55 02
	00 00 00	 movsx	 eax, WORD PTR ?RoadPathTable@@3PAFA[edx*2+2]
  0024f	03 c8		 add	 ecx, eax
  00251	89 4d f0	 mov	 DWORD PTR _mty$[ebp], ecx

; 547  : 			attr = MapC[lpObj->MapNumber].GetAttr(mtx, mty);

  00254	8b 45 f0	 mov	 eax, DWORD PTR _mty$[ebp]
  00257	50		 push	 eax
  00258	8b 4d f4	 mov	 ecx, DWORD PTR _mtx$[ebp]
  0025b	51		 push	 ecx
  0025c	8b 55 08	 mov	 edx, DWORD PTR _lpObj$[ebp]
  0025f	0f b6 8a 49 01
	00 00		 movzx	 ecx, BYTE PTR [edx+329]
  00266	69 c9 b8 3d 05
	00		 imul	 ecx, 343480		; 00053db8H
  0026c	81 c1 00 00 00
	00		 add	 ecx, OFFSET ?MapC@@3PAVMapClass@@A ; MapC
  00272	e8 00 00 00 00	 call	 ?GetAttr@MapClass@@QAEEHH@Z ; MapClass::GetAttr
  00277	88 45 e3	 mov	 BYTE PTR _attr$[ebp], al

; 548  : 			result = gObjMonsterMoveCheck(lpObj, mtx, mty);

  0027a	8b 45 f0	 mov	 eax, DWORD PTR _mty$[ebp]
  0027d	50		 push	 eax
  0027e	8b 4d f4	 mov	 ecx, DWORD PTR _mtx$[ebp]
  00281	51		 push	 ecx
  00282	8b 55 08	 mov	 edx, DWORD PTR _lpObj$[ebp]
  00285	52		 push	 edx
  00286	e8 00 00 00 00	 call	 ?gObjMonsterMoveCheck@@YAHPAUOBJECTSTRUCT@@HH@Z ; gObjMonsterMoveCheck
  0028b	83 c4 0c	 add	 esp, 12			; 0000000cH
  0028e	89 45 dc	 mov	 DWORD PTR _result$[ebp], eax

; 549  : 
; 550  : 			if ( lpObj->Class == 249 )

  00291	8b 45 08	 mov	 eax, DWORD PTR _lpObj$[ebp]
  00294	0f b7 88 b8 00
	00 00		 movzx	 ecx, WORD PTR [eax+184]
  0029b	81 f9 f9 00 00
	00		 cmp	 ecx, 249		; 000000f9H
  002a1	75 37		 jne	 SHORT $LN9@gObjMonste@9

; 551  : 			{
; 552  : 				if ( (attr&2)!=2 && result == TRUE )

  002a3	0f b6 45 e3	 movzx	 eax, BYTE PTR _attr$[ebp]
  002a7	83 e0 02	 and	 eax, 2
  002aa	75 2c		 jne	 SHORT $LN8@gObjMonste@9
  002ac	83 7d dc 01	 cmp	 DWORD PTR _result$[ebp], 1
  002b0	75 26		 jne	 SHORT $LN8@gObjMonste@9

; 553  : 				{
; 554  : 					lpObj->MTX = mtx;

  002b2	8b 45 08	 mov	 eax, DWORD PTR _lpObj$[ebp]
  002b5	66 8b 4d f4	 mov	 cx, WORD PTR _mtx$[ebp]
  002b9	66 89 88 80 01
	00 00		 mov	 WORD PTR [eax+384], cx

; 555  : 					lpObj->MTY = mty;

  002c0	8b 45 08	 mov	 eax, DWORD PTR _lpObj$[ebp]
  002c3	66 8b 4d f0	 mov	 cx, WORD PTR _mty$[ebp]
  002c7	66 89 88 82 01
	00 00		 mov	 WORD PTR [eax+386], cx

; 556  : 					return TRUE;

  002ce	b8 01 00 00 00	 mov	 eax, 1
  002d3	e9 46 01 00 00	 jmp	 $LN24@gObjMonste@9
$LN8@gObjMonste@9:

; 557  : 				}
; 558  : 			}

  002d8	eb 50		 jmp	 SHORT $LN7@gObjMonste@9
$LN9@gObjMonste@9:

; 559  : 			else if ( (attr&1) != 1 && (attr&2) != 2 && (attr&4) != 4 && (attr&8) != 8 && result == TRUE )

  002da	0f b6 45 e3	 movzx	 eax, BYTE PTR _attr$[ebp]
  002de	83 e0 01	 and	 eax, 1
  002e1	75 47		 jne	 SHORT $LN7@gObjMonste@9
  002e3	0f b6 45 e3	 movzx	 eax, BYTE PTR _attr$[ebp]
  002e7	83 e0 02	 and	 eax, 2
  002ea	75 3e		 jne	 SHORT $LN7@gObjMonste@9
  002ec	0f b6 45 e3	 movzx	 eax, BYTE PTR _attr$[ebp]
  002f0	83 e0 04	 and	 eax, 4
  002f3	75 35		 jne	 SHORT $LN7@gObjMonste@9
  002f5	0f b6 45 e3	 movzx	 eax, BYTE PTR _attr$[ebp]
  002f9	83 e0 08	 and	 eax, 8
  002fc	75 2c		 jne	 SHORT $LN7@gObjMonste@9
  002fe	83 7d dc 01	 cmp	 DWORD PTR _result$[ebp], 1
  00302	75 26		 jne	 SHORT $LN7@gObjMonste@9

; 560  : 			{
; 561  : 				lpObj->MTX = mtx;

  00304	8b 45 08	 mov	 eax, DWORD PTR _lpObj$[ebp]
  00307	66 8b 4d f4	 mov	 cx, WORD PTR _mtx$[ebp]
  0030b	66 89 88 80 01
	00 00		 mov	 WORD PTR [eax+384], cx

; 562  : 				lpObj->MTY = mty;

  00312	8b 45 08	 mov	 eax, DWORD PTR _lpObj$[ebp]
  00315	66 8b 4d f0	 mov	 cx, WORD PTR _mty$[ebp]
  00319	66 89 88 82 01
	00 00		 mov	 WORD PTR [eax+386], cx

; 563  : 				return TRUE;

  00320	b8 01 00 00 00	 mov	 eax, 1
  00325	e9 f4 00 00 00	 jmp	 $LN24@gObjMonste@9
$LN7@gObjMonste@9:

; 564  : 			}
; 565  : 
; 566  : 			searchp += 2;

  0032a	8b 45 ec	 mov	 eax, DWORD PTR _searchp$[ebp]
  0032d	83 c0 02	 add	 eax, 2
  00330	89 45 ec	 mov	 DWORD PTR _searchp$[ebp], eax

; 567  : 
; 568  : 			if ( searchp > MAX_ROAD_PATH_TABLE-1 )

  00333	83 7d ec 0f	 cmp	 DWORD PTR _searchp$[ebp], 15 ; 0000000fH
  00337	7e 07		 jle	 SHORT $LN5@gObjMonste@9

; 569  : 			{
; 570  : 				searchp = 0;

  00339	c7 45 ec 00 00
	00 00		 mov	 DWORD PTR _searchp$[ebp], 0
$LN5@gObjMonste@9:

; 571  : 			}
; 572  : 		}

  00340	e9 c7 fe ff ff	 jmp	 $LN11@gObjMonste@9
$LN10@gObjMonste@9:

; 573  : 
; 574  : 		return FALSE;

  00345	33 c0		 xor	 eax, eax
  00347	e9 d2 00 00 00	 jmp	 $LN24@gObjMonste@9
$LN12@gObjMonste@9:

; 575  : 	}
; 576  : 
; 577  : 	attr = MapC[lpObj->MapNumber].GetAttr(tpx, tpy);

  0034c	8b 45 f8	 mov	 eax, DWORD PTR _tpy$[ebp]
  0034f	50		 push	 eax
  00350	8b 4d fc	 mov	 ecx, DWORD PTR _tpx$[ebp]
  00353	51		 push	 ecx
  00354	8b 55 08	 mov	 edx, DWORD PTR _lpObj$[ebp]
  00357	0f b6 8a 49 01
	00 00		 movzx	 ecx, BYTE PTR [edx+329]
  0035e	69 c9 b8 3d 05
	00		 imul	 ecx, 343480		; 00053db8H
  00364	81 c1 00 00 00
	00		 add	 ecx, OFFSET ?MapC@@3PAVMapClass@@A ; MapC
  0036a	e8 00 00 00 00	 call	 ?GetAttr@MapClass@@QAEEHH@Z ; MapClass::GetAttr
  0036f	88 45 e3	 mov	 BYTE PTR _attr$[ebp], al

; 578  : 	result = gObjMonsterMoveCheck(lpObj, mtx, mty);

  00372	8b 45 f0	 mov	 eax, DWORD PTR _mty$[ebp]
  00375	50		 push	 eax
  00376	8b 4d f4	 mov	 ecx, DWORD PTR _mtx$[ebp]
  00379	51		 push	 ecx
  0037a	8b 55 08	 mov	 edx, DWORD PTR _lpObj$[ebp]
  0037d	52		 push	 edx
  0037e	e8 00 00 00 00	 call	 ?gObjMonsterMoveCheck@@YAHPAUOBJECTSTRUCT@@HH@Z ; gObjMonsterMoveCheck
  00383	83 c4 0c	 add	 esp, 12			; 0000000cH
  00386	89 45 dc	 mov	 DWORD PTR _result$[ebp], eax

; 579  : 
; 580  : 	if ( lpObj->Class == 249 )

  00389	8b 45 08	 mov	 eax, DWORD PTR _lpObj$[ebp]
  0038c	0f b7 88 b8 00
	00 00		 movzx	 ecx, WORD PTR [eax+184]
  00393	81 f9 f9 00 00
	00		 cmp	 ecx, 249		; 000000f9H
  00399	75 34		 jne	 SHORT $LN4@gObjMonste@9

; 581  : 	{
; 582  : 		if ( (attr&2)!=2 && result == TRUE )

  0039b	0f b6 45 e3	 movzx	 eax, BYTE PTR _attr$[ebp]
  0039f	83 e0 02	 and	 eax, 2
  003a2	75 29		 jne	 SHORT $LN3@gObjMonste@9
  003a4	83 7d dc 01	 cmp	 DWORD PTR _result$[ebp], 1
  003a8	75 23		 jne	 SHORT $LN3@gObjMonste@9

; 583  : 		{
; 584  : 			lpObj->MTX = tpx;

  003aa	8b 45 08	 mov	 eax, DWORD PTR _lpObj$[ebp]
  003ad	66 8b 4d fc	 mov	 cx, WORD PTR _tpx$[ebp]
  003b1	66 89 88 80 01
	00 00		 mov	 WORD PTR [eax+384], cx

; 585  : 			lpObj->MTY = tpy;

  003b8	8b 45 08	 mov	 eax, DWORD PTR _lpObj$[ebp]
  003bb	66 8b 4d f8	 mov	 cx, WORD PTR _tpy$[ebp]
  003bf	66 89 88 82 01
	00 00		 mov	 WORD PTR [eax+386], cx

; 586  : 			return TRUE;

  003c6	b8 01 00 00 00	 mov	 eax, 1
  003cb	eb 51		 jmp	 SHORT $LN24@gObjMonste@9
$LN3@gObjMonste@9:

; 587  : 		}
; 588  : 	}

  003cd	eb 4d		 jmp	 SHORT $LN2@gObjMonste@9
$LN4@gObjMonste@9:

; 589  : 	else if ( (attr&1) != 1 && (attr&2) != 2 && (attr&4) != 4 && (attr&8) != 8 && result == TRUE )

  003cf	0f b6 45 e3	 movzx	 eax, BYTE PTR _attr$[ebp]
  003d3	83 e0 01	 and	 eax, 1
  003d6	75 44		 jne	 SHORT $LN2@gObjMonste@9
  003d8	0f b6 45 e3	 movzx	 eax, BYTE PTR _attr$[ebp]
  003dc	83 e0 02	 and	 eax, 2
  003df	75 3b		 jne	 SHORT $LN2@gObjMonste@9
  003e1	0f b6 45 e3	 movzx	 eax, BYTE PTR _attr$[ebp]
  003e5	83 e0 04	 and	 eax, 4
  003e8	75 32		 jne	 SHORT $LN2@gObjMonste@9
  003ea	0f b6 45 e3	 movzx	 eax, BYTE PTR _attr$[ebp]
  003ee	83 e0 08	 and	 eax, 8
  003f1	75 29		 jne	 SHORT $LN2@gObjMonste@9
  003f3	83 7d dc 01	 cmp	 DWORD PTR _result$[ebp], 1
  003f7	75 23		 jne	 SHORT $LN2@gObjMonste@9

; 590  : 	{
; 591  : 		lpObj->MTX = tpx;

  003f9	8b 45 08	 mov	 eax, DWORD PTR _lpObj$[ebp]
  003fc	66 8b 4d fc	 mov	 cx, WORD PTR _tpx$[ebp]
  00400	66 89 88 80 01
	00 00		 mov	 WORD PTR [eax+384], cx

; 592  : 		lpObj->MTY = tpy;

  00407	8b 45 08	 mov	 eax, DWORD PTR _lpObj$[ebp]
  0040a	66 8b 4d f8	 mov	 cx, WORD PTR _tpy$[ebp]
  0040e	66 89 88 82 01
	00 00		 mov	 WORD PTR [eax+386], cx

; 593  : 		return TRUE;

  00415	b8 01 00 00 00	 mov	 eax, 1
  0041a	eb 02		 jmp	 SHORT $LN24@gObjMonste@9
$LN2@gObjMonste@9:

; 594  : 	}
; 595  : 
; 596  : 	return FALSE;

  0041c	33 c0		 xor	 eax, eax
$LN24@gObjMonste@9:

; 597  : }

  0041e	5f		 pop	 edi
  0041f	5e		 pop	 esi
  00420	5b		 pop	 ebx
  00421	8b e5		 mov	 esp, ebp
  00423	5d		 pop	 ebp
  00424	c3		 ret	 0
?gObjMonsterGetTargetPos@@YAHPAUOBJECTSTRUCT@@@Z ENDP	; gObjMonsterGetTargetPos
_TEXT	ENDS
PUBLIC	?gObjGetTargetPos@@YAHPAUOBJECTSTRUCT@@HHAAH1@Z	; gObjGetTargetPos
; Function compile flags: /Odtp /ZI /ZX
;	COMDAT ?gObjGetTargetPos@@YAHPAUOBJECTSTRUCT@@HHAAH1@Z
_TEXT	SEGMENT
_dis$ = -36						; size = 4
_attr$ = -29						; size = 1
_searchcount$ = -28					; size = 4
_sn$ = -24						; size = 4
_searchp$ = -20						; size = 4
_mty$ = -16						; size = 4
_mtx$ = -12						; size = 4
_tpy$ = -8						; size = 4
_tpx$ = -4						; size = 4
_lpObj$ = 8						; size = 4
_sx$ = 12						; size = 4
_sy$ = 16						; size = 4
_tx$ = 20						; size = 4
_ty$ = 24						; size = 4
?gObjGetTargetPos@@YAHPAUOBJECTSTRUCT@@HHAAH1@Z PROC	; gObjGetTargetPos, COMDAT

; 600  : {

  00000	55		 push	 ebp
  00001	8b ec		 mov	 ebp, esp
  00003	83 ec 64	 sub	 esp, 100		; 00000064H
  00006	53		 push	 ebx
  00007	56		 push	 esi
  00008	57		 push	 edi

; 601  : 	int tpx;	// Target Player X
; 602  : 	int tpy;
; 603  : 	int mtx;	// Monster Target X
; 604  : 	int mty;
; 605  : 	int searchp = 0;

  00009	c7 45 ec 00 00
	00 00		 mov	 DWORD PTR _searchp$[ebp], 0

; 606  : 	int sn = 0;

  00010	c7 45 e8 00 00
	00 00		 mov	 DWORD PTR _sn$[ebp], 0

; 607  : 	int searchcount = MAX_ROAD_PATH_TABLE/2-1;

  00017	c7 45 e4 07 00
	00 00		 mov	 DWORD PTR _searchcount$[ebp], 7

; 608  : 	BYTE attr;
; 609  : 	int dis;
; 610  : 
; 611  : 	tpx = sx;

  0001e	8b 45 0c	 mov	 eax, DWORD PTR _sx$[ebp]
  00021	89 45 fc	 mov	 DWORD PTR _tpx$[ebp], eax

; 612  : 	mtx = tpx;

  00024	8b 45 fc	 mov	 eax, DWORD PTR _tpx$[ebp]
  00027	89 45 f4	 mov	 DWORD PTR _mtx$[ebp], eax

; 613  : 	tpy = sy;

  0002a	8b 45 10	 mov	 eax, DWORD PTR _sy$[ebp]
  0002d	89 45 f8	 mov	 DWORD PTR _tpy$[ebp], eax

; 614  : 	mty = tpy;

  00030	8b 45 f8	 mov	 eax, DWORD PTR _tpy$[ebp]
  00033	89 45 f0	 mov	 DWORD PTR _mty$[ebp], eax

; 615  : 
; 616  : 	if ( lpObj->m_AttackType >= 100 )

  00036	8b 45 08	 mov	 eax, DWORD PTR _lpObj$[ebp]
  00039	0f bf 88 b2 04
	00 00		 movsx	 ecx, WORD PTR [eax+1202]
  00040	83 f9 64	 cmp	 ecx, 100		; 00000064H
  00043	7c 12		 jl	 SHORT $LN15@gObjGetTar

; 617  : 	{
; 618  : 		dis = lpObj->m_AttackRange + 2;

  00045	8b 45 08	 mov	 eax, DWORD PTR _lpObj$[ebp]
  00048	0f bf 88 b0 04
	00 00		 movsx	 ecx, WORD PTR [eax+1200]
  0004f	83 c1 02	 add	 ecx, 2
  00052	89 4d dc	 mov	 DWORD PTR _dis$[ebp], ecx

; 619  : 	}
; 620  : 	else

  00055	eb 0d		 jmp	 SHORT $LN14@gObjGetTar
$LN15@gObjGetTar:

; 621  : 	{
; 622  : 		dis = lpObj->m_AttackRange;

  00057	8b 45 08	 mov	 eax, DWORD PTR _lpObj$[ebp]
  0005a	0f bf 88 b0 04
	00 00		 movsx	 ecx, WORD PTR [eax+1200]
  00061	89 4d dc	 mov	 DWORD PTR _dis$[ebp], ecx
$LN14@gObjGetTar:

; 623  : 	}
; 624  : 
; 625  : 	if ( lpObj->X < mtx )

  00064	8b 45 08	 mov	 eax, DWORD PTR _lpObj$[ebp]
  00067	0f bf 88 44 01
	00 00		 movsx	 ecx, WORD PTR [eax+324]
  0006e	3b 4d f4	 cmp	 ecx, DWORD PTR _mtx$[ebp]
  00071	7d 09		 jge	 SHORT $LN13@gObjGetTar

; 626  : 	{
; 627  : 		tpx -= dis;

  00073	8b 45 fc	 mov	 eax, DWORD PTR _tpx$[ebp]
  00076	2b 45 dc	 sub	 eax, DWORD PTR _dis$[ebp]
  00079	89 45 fc	 mov	 DWORD PTR _tpx$[ebp], eax
$LN13@gObjGetTar:

; 628  : 	}
; 629  : 
; 630  : 	if ( lpObj->X > mtx )

  0007c	8b 45 08	 mov	 eax, DWORD PTR _lpObj$[ebp]
  0007f	0f bf 88 44 01
	00 00		 movsx	 ecx, WORD PTR [eax+324]
  00086	3b 4d f4	 cmp	 ecx, DWORD PTR _mtx$[ebp]
  00089	7e 09		 jle	 SHORT $LN12@gObjGetTar

; 631  : 	{
; 632  : 		tpx += dis;

  0008b	8b 45 fc	 mov	 eax, DWORD PTR _tpx$[ebp]
  0008e	03 45 dc	 add	 eax, DWORD PTR _dis$[ebp]
  00091	89 45 fc	 mov	 DWORD PTR _tpx$[ebp], eax
$LN12@gObjGetTar:

; 633  : 	}
; 634  : 
; 635  : 	if ( lpObj->Y < mty )

  00094	8b 45 08	 mov	 eax, DWORD PTR _lpObj$[ebp]
  00097	0f bf 88 46 01
	00 00		 movsx	 ecx, WORD PTR [eax+326]
  0009e	3b 4d f0	 cmp	 ecx, DWORD PTR _mty$[ebp]
  000a1	7d 09		 jge	 SHORT $LN11@gObjGetTar

; 636  : 	{
; 637  : 		tpy -= dis;

  000a3	8b 45 f8	 mov	 eax, DWORD PTR _tpy$[ebp]
  000a6	2b 45 dc	 sub	 eax, DWORD PTR _dis$[ebp]
  000a9	89 45 f8	 mov	 DWORD PTR _tpy$[ebp], eax
$LN11@gObjGetTar:

; 638  : 	}
; 639  : 
; 640  : 	if ( lpObj->Y > mty )

  000ac	8b 45 08	 mov	 eax, DWORD PTR _lpObj$[ebp]
  000af	0f bf 88 46 01
	00 00		 movsx	 ecx, WORD PTR [eax+326]
  000b6	3b 4d f0	 cmp	 ecx, DWORD PTR _mty$[ebp]
  000b9	7e 09		 jle	 SHORT $LN10@gObjGetTar

; 641  : 	{
; 642  : 		tpy += dis;

  000bb	8b 45 f8	 mov	 eax, DWORD PTR _tpy$[ebp]
  000be	03 45 dc	 add	 eax, DWORD PTR _dis$[ebp]
  000c1	89 45 f8	 mov	 DWORD PTR _tpy$[ebp], eax
$LN10@gObjGetTar:

; 643  : 	}
; 644  : 
; 645  : 	searchp = GetPathPacketDirPos( sx - tpx, sy - tpy ) * 2;

  000c4	8b 45 10	 mov	 eax, DWORD PTR _sy$[ebp]
  000c7	2b 45 f8	 sub	 eax, DWORD PTR _tpy$[ebp]
  000ca	50		 push	 eax
  000cb	8b 4d 0c	 mov	 ecx, DWORD PTR _sx$[ebp]
  000ce	2b 4d fc	 sub	 ecx, DWORD PTR _tpx$[ebp]
  000d1	51		 push	 ecx
  000d2	e8 00 00 00 00	 call	 ?GetPathPacketDirPos@@YAEHH@Z ; GetPathPacketDirPos
  000d7	83 c4 08	 add	 esp, 8
  000da	0f b6 d0	 movzx	 edx, al
  000dd	d1 e2		 shl	 edx, 1
  000df	89 55 ec	 mov	 DWORD PTR _searchp$[ebp], edx

; 646  : 
; 647  : 	if ( MapC[lpObj->MapNumber].GetStandAttr(tpx, tpy) == 0 )

  000e2	8b 45 f8	 mov	 eax, DWORD PTR _tpy$[ebp]
  000e5	50		 push	 eax
  000e6	8b 4d fc	 mov	 ecx, DWORD PTR _tpx$[ebp]
  000e9	51		 push	 ecx
  000ea	8b 55 08	 mov	 edx, DWORD PTR _lpObj$[ebp]
  000ed	0f b6 8a 49 01
	00 00		 movzx	 ecx, BYTE PTR [edx+329]
  000f4	69 c9 b8 3d 05
	00		 imul	 ecx, 343480		; 00053db8H
  000fa	81 c1 00 00 00
	00		 add	 ecx, OFFSET ?MapC@@3PAVMapClass@@A ; MapC
  00100	e8 00 00 00 00	 call	 ?GetStandAttr@MapClass@@QAEHHH@Z ; MapClass::GetStandAttr
  00105	85 c0		 test	 eax, eax
  00107	0f 85 bc 00 00
	00		 jne	 $LN9@gObjGetTar
$LN8@gObjGetTar:

; 648  : 	{
; 649  : 		while ( searchcount-- )

  0010d	8b 45 e4	 mov	 eax, DWORD PTR _searchcount$[ebp]
  00110	8b 4d e4	 mov	 ecx, DWORD PTR _searchcount$[ebp]
  00113	83 e9 01	 sub	 ecx, 1
  00116	89 4d e4	 mov	 DWORD PTR _searchcount$[ebp], ecx
  00119	85 c0		 test	 eax, eax
  0011b	0f 84 a1 00 00
	00		 je	 $LN7@gObjGetTar

; 650  : 		{
; 651  : 			mtx = sx + RoadPathTable[searchp];

  00121	8b 45 ec	 mov	 eax, DWORD PTR _searchp$[ebp]
  00124	0f bf 0c 45 00
	00 00 00	 movsx	 ecx, WORD PTR ?RoadPathTable@@3PAFA[eax*2]
  0012c	03 4d 0c	 add	 ecx, DWORD PTR _sx$[ebp]
  0012f	89 4d f4	 mov	 DWORD PTR _mtx$[ebp], ecx

; 652  : 			mty = sy + RoadPathTable[1+searchp];

  00132	8b 45 ec	 mov	 eax, DWORD PTR _searchp$[ebp]
  00135	0f bf 0c 45 02
	00 00 00	 movsx	 ecx, WORD PTR ?RoadPathTable@@3PAFA[eax*2+2]
  0013d	03 4d 10	 add	 ecx, DWORD PTR _sy$[ebp]
  00140	89 4d f0	 mov	 DWORD PTR _mty$[ebp], ecx

; 653  : 			attr = MapC[lpObj->MapNumber].GetAttr(mtx, mty);

  00143	8b 45 f0	 mov	 eax, DWORD PTR _mty$[ebp]
  00146	50		 push	 eax
  00147	8b 4d f4	 mov	 ecx, DWORD PTR _mtx$[ebp]
  0014a	51		 push	 ecx
  0014b	8b 55 08	 mov	 edx, DWORD PTR _lpObj$[ebp]
  0014e	0f b6 8a 49 01
	00 00		 movzx	 ecx, BYTE PTR [edx+329]
  00155	69 c9 b8 3d 05
	00		 imul	 ecx, 343480		; 00053db8H
  0015b	81 c1 00 00 00
	00		 add	 ecx, OFFSET ?MapC@@3PAVMapClass@@A ; MapC
  00161	e8 00 00 00 00	 call	 ?GetAttr@MapClass@@QAEEHH@Z ; MapClass::GetAttr
  00166	88 45 e3	 mov	 BYTE PTR _attr$[ebp], al

; 654  : 			
; 655  : 			if ( (attr&1) != 1 && (attr&2) != 2 && (attr&4) != 4 && (attr&8) != 8 )

  00169	0f b6 45 e3	 movzx	 eax, BYTE PTR _attr$[ebp]
  0016d	83 e0 01	 and	 eax, 1
  00170	75 35		 jne	 SHORT $LN6@gObjGetTar
  00172	0f b6 45 e3	 movzx	 eax, BYTE PTR _attr$[ebp]
  00176	83 e0 02	 and	 eax, 2
  00179	75 2c		 jne	 SHORT $LN6@gObjGetTar
  0017b	0f b6 45 e3	 movzx	 eax, BYTE PTR _attr$[ebp]
  0017f	83 e0 04	 and	 eax, 4
  00182	75 23		 jne	 SHORT $LN6@gObjGetTar
  00184	0f b6 45 e3	 movzx	 eax, BYTE PTR _attr$[ebp]
  00188	83 e0 08	 and	 eax, 8
  0018b	75 1a		 jne	 SHORT $LN6@gObjGetTar

; 656  : 			{
; 657  : 				tx = mtx;

  0018d	8b 45 14	 mov	 eax, DWORD PTR _tx$[ebp]
  00190	8b 4d f4	 mov	 ecx, DWORD PTR _mtx$[ebp]
  00193	89 08		 mov	 DWORD PTR [eax], ecx

; 658  : 				ty = mty;

  00195	8b 45 18	 mov	 eax, DWORD PTR _ty$[ebp]
  00198	8b 4d f0	 mov	 ecx, DWORD PTR _mty$[ebp]
  0019b	89 08		 mov	 DWORD PTR [eax], ecx

; 659  : 				return TRUE;

  0019d	b8 01 00 00 00	 mov	 eax, 1
  001a2	e9 c8 00 00 00	 jmp	 $LN16@gObjGetTar
$LN6@gObjGetTar:

; 660  : 			}
; 661  : 
; 662  : 			searchp += 2;

  001a7	8b 45 ec	 mov	 eax, DWORD PTR _searchp$[ebp]
  001aa	83 c0 02	 add	 eax, 2
  001ad	89 45 ec	 mov	 DWORD PTR _searchp$[ebp], eax

; 663  : 
; 664  : 			if ( searchp > MAX_ROAD_PATH_TABLE-1 )

  001b0	83 7d ec 0f	 cmp	 DWORD PTR _searchp$[ebp], 15 ; 0000000fH
  001b4	7e 07		 jle	 SHORT $LN5@gObjGetTar

; 665  : 			{
; 666  : 				searchp = 0;

  001b6	c7 45 ec 00 00
	00 00		 mov	 DWORD PTR _searchp$[ebp], 0
$LN5@gObjGetTar:

; 667  : 			}
; 668  : 		}

  001bd	e9 4b ff ff ff	 jmp	 $LN8@gObjGetTar
$LN7@gObjGetTar:

; 669  : 
; 670  : 		return FALSE;

  001c2	33 c0		 xor	 eax, eax
  001c4	e9 a6 00 00 00	 jmp	 $LN16@gObjGetTar
$LN9@gObjGetTar:

; 671  : 	}
; 672  : 
; 673  : 	attr = MapC[lpObj->MapNumber].GetAttr(tpx, tpy);

  001c9	8b 45 f8	 mov	 eax, DWORD PTR _tpy$[ebp]
  001cc	50		 push	 eax
  001cd	8b 4d fc	 mov	 ecx, DWORD PTR _tpx$[ebp]
  001d0	51		 push	 ecx
  001d1	8b 55 08	 mov	 edx, DWORD PTR _lpObj$[ebp]
  001d4	0f b6 8a 49 01
	00 00		 movzx	 ecx, BYTE PTR [edx+329]
  001db	69 c9 b8 3d 05
	00		 imul	 ecx, 343480		; 00053db8H
  001e1	81 c1 00 00 00
	00		 add	 ecx, OFFSET ?MapC@@3PAVMapClass@@A ; MapC
  001e7	e8 00 00 00 00	 call	 ?GetAttr@MapClass@@QAEEHH@Z ; MapClass::GetAttr
  001ec	88 45 e3	 mov	 BYTE PTR _attr$[ebp], al

; 674  : 
; 675  : 	if ( lpObj->m_Attribute >= 100 )

  001ef	8b 45 08	 mov	 eax, DWORD PTR _lpObj$[ebp]
  001f2	0f bf 88 b6 04
	00 00		 movsx	 ecx, WORD PTR [eax+1206]
  001f9	83 f9 64	 cmp	 ecx, 100		; 00000064H
  001fc	7c 34		 jl	 SHORT $LN4@gObjGetTar

; 676  : 	{
; 677  : 		if (  (attr&2) != 2 && (attr&4) != 4 && (attr&8) != 8 )

  001fe	0f b6 45 e3	 movzx	 eax, BYTE PTR _attr$[ebp]
  00202	83 e0 02	 and	 eax, 2
  00205	75 29		 jne	 SHORT $LN3@gObjGetTar
  00207	0f b6 45 e3	 movzx	 eax, BYTE PTR _attr$[ebp]
  0020b	83 e0 04	 and	 eax, 4
  0020e	75 20		 jne	 SHORT $LN3@gObjGetTar
  00210	0f b6 45 e3	 movzx	 eax, BYTE PTR _attr$[ebp]
  00214	83 e0 08	 and	 eax, 8
  00217	75 17		 jne	 SHORT $LN3@gObjGetTar

; 678  : 		{
; 679  : 			tx = tpx;

  00219	8b 45 14	 mov	 eax, DWORD PTR _tx$[ebp]
  0021c	8b 4d fc	 mov	 ecx, DWORD PTR _tpx$[ebp]
  0021f	89 08		 mov	 DWORD PTR [eax], ecx

; 680  : 			ty = tpy;

  00221	8b 45 18	 mov	 eax, DWORD PTR _ty$[ebp]
  00224	8b 4d f8	 mov	 ecx, DWORD PTR _tpy$[ebp]
  00227	89 08		 mov	 DWORD PTR [eax], ecx

; 681  : 			return TRUE;

  00229	b8 01 00 00 00	 mov	 eax, 1
  0022e	eb 3f		 jmp	 SHORT $LN16@gObjGetTar
$LN3@gObjGetTar:

; 682  : 		}
; 683  : 	}

  00230	eb 3b		 jmp	 SHORT $LN2@gObjGetTar
$LN4@gObjGetTar:

; 684  : 	else if  ( (attr&1) != 1 && (attr&2) != 2 && (attr&4) != 4 && (attr&8) != 8 )

  00232	0f b6 45 e3	 movzx	 eax, BYTE PTR _attr$[ebp]
  00236	83 e0 01	 and	 eax, 1
  00239	75 32		 jne	 SHORT $LN2@gObjGetTar
  0023b	0f b6 45 e3	 movzx	 eax, BYTE PTR _attr$[ebp]
  0023f	83 e0 02	 and	 eax, 2
  00242	75 29		 jne	 SHORT $LN2@gObjGetTar
  00244	0f b6 45 e3	 movzx	 eax, BYTE PTR _attr$[ebp]
  00248	83 e0 04	 and	 eax, 4
  0024b	75 20		 jne	 SHORT $LN2@gObjGetTar
  0024d	0f b6 45 e3	 movzx	 eax, BYTE PTR _attr$[ebp]
  00251	83 e0 08	 and	 eax, 8
  00254	75 17		 jne	 SHORT $LN2@gObjGetTar

; 685  : 	{
; 686  : 		tx = tpx;

  00256	8b 45 14	 mov	 eax, DWORD PTR _tx$[ebp]
  00259	8b 4d fc	 mov	 ecx, DWORD PTR _tpx$[ebp]
  0025c	89 08		 mov	 DWORD PTR [eax], ecx

; 687  : 		ty = tpy;

  0025e	8b 45 18	 mov	 eax, DWORD PTR _ty$[ebp]
  00261	8b 4d f8	 mov	 ecx, DWORD PTR _tpy$[ebp]
  00264	89 08		 mov	 DWORD PTR [eax], ecx

; 688  : 		return TRUE;

  00266	b8 01 00 00 00	 mov	 eax, 1
  0026b	eb 02		 jmp	 SHORT $LN16@gObjGetTar
$LN2@gObjGetTar:

; 689  : 	}
; 690  : 
; 691  : 	return FALSE;

  0026d	33 c0		 xor	 eax, eax
$LN16@gObjGetTar:

; 692  : }

  0026f	5f		 pop	 edi
  00270	5e		 pop	 esi
  00271	5b		 pop	 ebx
  00272	8b e5		 mov	 esp, ebp
  00274	5d		 pop	 ebp
  00275	c3		 ret	 0
?gObjGetTargetPos@@YAHPAUOBJECTSTRUCT@@HHAAH1@Z ENDP	; gObjGetTargetPos
_TEXT	ENDS
PUBLIC	?gObjCallMonsterSetEnemy@@YAHPAUOBJECTSTRUCT@@H@Z ; gObjCallMonsterSetEnemy
; Function compile flags: /Odtp /ZI /ZX
;	COMDAT ?gObjCallMonsterSetEnemy@@YAHPAUOBJECTSTRUCT@@H@Z
_TEXT	SEGMENT
_lpCallObj$ = -4					; size = 4
_lpObj$ = 8						; size = 4
_Target$ = 12						; size = 4
?gObjCallMonsterSetEnemy@@YAHPAUOBJECTSTRUCT@@H@Z PROC	; gObjCallMonsterSetEnemy, COMDAT

; 695  : {

  00000	55		 push	 ebp
  00001	8b ec		 mov	 ebp, esp
  00003	83 ec 44	 sub	 esp, 68			; 00000044H
  00006	53		 push	 ebx
  00007	56		 push	 esi
  00008	57		 push	 edi

; 696  : 	if ( lpObj->Type != OBJ_USER )

  00009	8b 45 08	 mov	 eax, DWORD PTR _lpObj$[ebp]
  0000c	0f b7 48 68	 movzx	 ecx, WORD PTR [eax+104]
  00010	83 f9 01	 cmp	 ecx, 1
  00013	74 08		 je	 SHORT $LN4@gObjCallMo

; 697  : 	{
; 698  : 		return -1;

  00015	83 c8 ff	 or	 eax, -1
  00018	e9 98 00 00 00	 jmp	 $LN5@gObjCallMo
$LN4@gObjCallMo:

; 699  : 	}
; 700  : 
; 701  : 	if( lpObj->m_RecallMon < 0)//Season 4.5 addon

  0001d	8b 45 08	 mov	 eax, DWORD PTR _lpObj$[ebp]
  00020	83 b8 50 04 00
	00 00		 cmp	 DWORD PTR [eax+1104], 0
  00027	7d 08		 jge	 SHORT $LN3@gObjCallMo

; 702  : 	{
; 703  : 		return -1;

  00029	83 c8 ff	 or	 eax, -1
  0002c	e9 84 00 00 00	 jmp	 $LN5@gObjCallMo
$LN3@gObjCallMo:

; 704  : 	}
; 705  : 
; 706  : 	LPOBJ lpCallObj = &gObj[lpObj->m_RecallMon];

  00031	8b 45 08	 mov	 eax, DWORD PTR _lpObj$[ebp]
  00034	8b 88 50 04 00
	00		 mov	 ecx, DWORD PTR [eax+1104]
  0003a	69 c9 38 2b 00
	00		 imul	 ecx, 11064		; 00002b38H
  00040	03 0d 00 00 00
	00		 add	 ecx, DWORD PTR ?gObj@@3PAUOBJECTSTRUCT@@A ; gObj
  00046	89 4d fc	 mov	 DWORD PTR _lpCallObj$[ebp], ecx

; 707  : 
; 708  : 	if ( lpCallObj->TargetNumber >= 0 )

  00049	8b 45 fc	 mov	 eax, DWORD PTR _lpCallObj$[ebp]
  0004c	0f bf 88 58 04
	00 00		 movsx	 ecx, WORD PTR [eax+1112]
  00053	85 c9		 test	 ecx, ecx
  00055	7c 05		 jl	 SHORT $LN2@gObjCallMo

; 709  : 	{
; 710  : 		return -1;

  00057	83 c8 ff	 or	 eax, -1
  0005a	eb 59		 jmp	 SHORT $LN5@gObjCallMo
$LN2@gObjCallMo:

; 711  : 	}
; 712  : 
; 713  : 	if ( lpCallObj->TargetNumber != Target )

  0005c	8b 45 fc	 mov	 eax, DWORD PTR _lpCallObj$[ebp]
  0005f	0f bf 88 58 04
	00 00		 movsx	 ecx, WORD PTR [eax+1112]
  00066	3b 4d 0c	 cmp	 ecx, DWORD PTR _Target$[ebp]
  00069	74 47		 je	 SHORT $LN1@gObjCallMo

; 714  : 	{
; 715  : 		lpCallObj->TargetNumber = Target;

  0006b	8b 45 fc	 mov	 eax, DWORD PTR _lpCallObj$[ebp]
  0006e	66 8b 4d 0c	 mov	 cx, WORD PTR _Target$[ebp]
  00072	66 89 88 58 04
	00 00		 mov	 WORD PTR [eax+1112], cx

; 716  : 		lpCallObj->m_ActState.EmotionCount = 30;

  00079	8b 45 fc	 mov	 eax, DWORD PTR _lpCallObj$[ebp]
  0007c	8b 88 18 02 00
	00		 mov	 ecx, DWORD PTR [eax+536]
  00082	81 e1 ff 00 ff
	ff		 and	 ecx, -65281		; ffff00ffH
  00088	81 c9 00 1e 00
	00		 or	 ecx, 7680		; 00001e00H
  0008e	8b 55 fc	 mov	 edx, DWORD PTR _lpCallObj$[ebp]
  00091	89 8a 18 02 00
	00		 mov	 DWORD PTR [edx+536], ecx

; 717  : 		lpCallObj->m_ActState.Emotion = 1;

  00097	8b 45 fc	 mov	 eax, DWORD PTR _lpCallObj$[ebp]
  0009a	8b 88 18 02 00
	00		 mov	 ecx, DWORD PTR [eax+536]
  000a0	81 e1 0f ff ff
	ff		 and	 ecx, -241		; ffffff0fH
  000a6	83 c9 10	 or	 ecx, 16			; 00000010H
  000a9	8b 55 fc	 mov	 edx, DWORD PTR _lpCallObj$[ebp]
  000ac	89 8a 18 02 00
	00		 mov	 DWORD PTR [edx+536], ecx
$LN1@gObjCallMo:

; 718  : 	}
; 719  : 
; 720  : 	return -1;

  000b2	83 c8 ff	 or	 eax, -1
$LN5@gObjCallMo:

; 721  : }

  000b5	5f		 pop	 edi
  000b6	5e		 pop	 esi
  000b7	5b		 pop	 ebx
  000b8	8b e5		 mov	 esp, ebp
  000ba	5d		 pop	 ebp
  000bb	c3		 ret	 0
?gObjCallMonsterSetEnemy@@YAHPAUOBJECTSTRUCT@@H@Z ENDP	; gObjCallMonsterSetEnemy
_TEXT	ENDS
PUBLIC	?gObjMonsterSearchEnemy@@YAHPAUOBJECTSTRUCT@@E@Z ; gObjMonsterSearchEnemy
; Function compile flags: /Odtp /ZI /ZX
;	COMDAT ?gObjMonsterSearchEnemy@@YAHPAUOBJECTSTRUCT@@E@Z
_TEXT	SEGMENT
tv227 = -108						; size = 4
_t2$ = -40						; size = 4
_t1$ = -36						; size = 4
_count$ = -32						; size = 4
_tObjNum$ = -28						; size = 4
_searchtarget$ = -24					; size = 4
_mindis$ = -20						; size = 4
_dis$ = -16						; size = 4
_ty$ = -12						; size = 4
_tx$ = -8						; size = 4
_n$ = -4						; size = 4
_lpObj$ = 8						; size = 4
_objtype$ = 12						; size = 1
?gObjMonsterSearchEnemy@@YAHPAUOBJECTSTRUCT@@E@Z PROC	; gObjMonsterSearchEnemy, COMDAT

; 724  : {

  00000	55		 push	 ebp
  00001	8b ec		 mov	 ebp, esp
  00003	83 ec 6c	 sub	 esp, 108		; 0000006cH
  00006	53		 push	 ebx
  00007	56		 push	 esi
  00008	57		 push	 edi

; 725  : 	int n;
; 726  : 	int tx;
; 727  : 	int ty;
; 728  : 	int dis;
; 729  : 	int mindis = lpObj->m_ViewRange;

  00009	8b 45 08	 mov	 eax, DWORD PTR _lpObj$[ebp]
  0000c	0f bf 88 b4 04
	00 00		 movsx	 ecx, WORD PTR [eax+1204]
  00013	89 4d ec	 mov	 DWORD PTR _mindis$[ebp], ecx

; 730  : 	int searchtarget = -1;

  00016	c7 45 e8 ff ff
	ff ff		 mov	 DWORD PTR _searchtarget$[ebp], -1

; 731  : 	int tObjNum;
; 732  : 	int count = 3;

  0001d	c7 45 e0 03 00
	00 00		 mov	 DWORD PTR _count$[ebp], 3

; 733  : 	int t1 = objtype;

  00024	0f b6 45 0c	 movzx	 eax, BYTE PTR _objtype$[ebp]
  00028	89 45 dc	 mov	 DWORD PTR _t1$[ebp], eax

; 734  : 	int t2 = objtype;

  0002b	0f b6 45 0c	 movzx	 eax, BYTE PTR _objtype$[ebp]
  0002f	89 45 d8	 mov	 DWORD PTR _t2$[ebp], eax

; 735  : 
; 736  : 	for (n=0;n<MAX_VIEWPORT_MONSTER;n++)

  00032	c7 45 fc 00 00
	00 00		 mov	 DWORD PTR _n$[ebp], 0
  00039	eb 09		 jmp	 SHORT $LN14@gObjMonste@10
$LN13@gObjMonste@10:
  0003b	8b 45 fc	 mov	 eax, DWORD PTR _n$[ebp]
  0003e	83 c0 01	 add	 eax, 1
  00041	89 45 fc	 mov	 DWORD PTR _n$[ebp], eax
$LN14@gObjMonste@10:
  00044	83 7d fc 4b	 cmp	 DWORD PTR _n$[ebp], 75	; 0000004bH
  00048	0f 8d 0c 02 00
	00		 jge	 $LN12@gObjMonste@10

; 737  : 	{
; 738  : 		tObjNum = lpObj->VpPlayer2[n].number;

  0004e	8b 45 fc	 mov	 eax, DWORD PTR _n$[ebp]
  00051	6b c0 0c	 imul	 eax, 12			; 0000000cH
  00054	8b 4d 08	 mov	 ecx, DWORD PTR _lpObj$[ebp]
  00057	0f bf 94 01 ae
	08 00 00	 movsx	 edx, WORD PTR [ecx+eax+2222]
  0005f	89 55 e4	 mov	 DWORD PTR _tObjNum$[ebp], edx

; 739  : 
; 740  : 		if ( tObjNum >= 0 )

  00062	83 7d e4 00	 cmp	 DWORD PTR _tObjNum$[ebp], 0
  00066	0f 8c e9 01 00
	00		 jl	 $LN3@gObjMonste@10

; 741  : 		{
; 742  : 			if ( (gObj[tObjNum].Type == t1 || gObj[tObjNum].Type == t2) && (gObj[tObjNum].Live != FALSE) )

  0006c	8b 45 e4	 mov	 eax, DWORD PTR _tObjNum$[ebp]
  0006f	69 c0 38 2b 00
	00		 imul	 eax, 11064		; 00002b38H
  00075	8b 0d 00 00 00
	00		 mov	 ecx, DWORD PTR ?gObj@@3PAUOBJECTSTRUCT@@A ; gObj
  0007b	0f b7 54 01 68	 movzx	 edx, WORD PTR [ecx+eax+104]
  00080	3b 55 dc	 cmp	 edx, DWORD PTR _t1$[ebp]
  00083	74 1d		 je	 SHORT $LN9@gObjMonste@10
  00085	8b 45 e4	 mov	 eax, DWORD PTR _tObjNum$[ebp]
  00088	69 c0 38 2b 00
	00		 imul	 eax, 11064		; 00002b38H
  0008e	8b 0d 00 00 00
	00		 mov	 ecx, DWORD PTR ?gObj@@3PAUOBJECTSTRUCT@@A ; gObj
  00094	0f b7 54 01 68	 movzx	 edx, WORD PTR [ecx+eax+104]
  00099	3b 55 d8	 cmp	 edx, DWORD PTR _t2$[ebp]
  0009c	0f 85 b3 01 00
	00		 jne	 $LN3@gObjMonste@10
$LN9@gObjMonste@10:
  000a2	8b 45 e4	 mov	 eax, DWORD PTR _tObjNum$[ebp]
  000a5	69 c0 38 2b 00
	00		 imul	 eax, 11064		; 00002b38H
  000ab	8b 0d 00 00 00
	00		 mov	 ecx, DWORD PTR ?gObj@@3PAUOBJECTSTRUCT@@A ; gObj
  000b1	0f b6 54 01 6a	 movzx	 edx, BYTE PTR [ecx+eax+106]
  000b6	85 d2		 test	 edx, edx
  000b8	0f 84 97 01 00
	00		 je	 $LN3@gObjMonste@10

; 743  : 			{
; 744  : 				if ( (gObj[tObjNum].Class >= 100 && gObj[tObjNum].Class < 110 ) || (gObj[tObjNum].Type == OBJ_MONSTER && gObj[tObjNum].m_RecallMon >= 0) )

  000be	8b 45 e4	 mov	 eax, DWORD PTR _tObjNum$[ebp]
  000c1	69 c0 38 2b 00
	00		 imul	 eax, 11064		; 00002b38H
  000c7	8b 0d 00 00 00
	00		 mov	 ecx, DWORD PTR ?gObj@@3PAUOBJECTSTRUCT@@A ; gObj
  000cd	0f b7 94 01 b8
	00 00 00	 movzx	 edx, WORD PTR [ecx+eax+184]
  000d5	83 fa 64	 cmp	 edx, 100		; 00000064H
  000d8	7c 1c		 jl	 SHORT $LN6@gObjMonste@10
  000da	8b 45 e4	 mov	 eax, DWORD PTR _tObjNum$[ebp]
  000dd	69 c0 38 2b 00
	00		 imul	 eax, 11064		; 00002b38H
  000e3	8b 0d 00 00 00
	00		 mov	 ecx, DWORD PTR ?gObj@@3PAUOBJECTSTRUCT@@A ; gObj
  000e9	0f b7 94 01 b8
	00 00 00	 movzx	 edx, WORD PTR [ecx+eax+184]
  000f1	83 fa 6e	 cmp	 edx, 110		; 0000006eH
  000f4	7c 32		 jl	 SHORT $LN7@gObjMonste@10
$LN6@gObjMonste@10:
  000f6	8b 45 e4	 mov	 eax, DWORD PTR _tObjNum$[ebp]
  000f9	69 c0 38 2b 00
	00		 imul	 eax, 11064		; 00002b38H
  000ff	8b 0d 00 00 00
	00		 mov	 ecx, DWORD PTR ?gObj@@3PAUOBJECTSTRUCT@@A ; gObj
  00105	0f b7 54 01 68	 movzx	 edx, WORD PTR [ecx+eax+104]
  0010a	83 fa 02	 cmp	 edx, 2
  0010d	75 1e		 jne	 SHORT $LN8@gObjMonste@10
  0010f	8b 45 e4	 mov	 eax, DWORD PTR _tObjNum$[ebp]
  00112	69 c0 38 2b 00
	00		 imul	 eax, 11064		; 00002b38H
  00118	8b 0d 00 00 00
	00		 mov	 ecx, DWORD PTR ?gObj@@3PAUOBJECTSTRUCT@@A ; gObj
  0011e	83 bc 01 50 04
	00 00 00	 cmp	 DWORD PTR [ecx+eax+1104], 0
  00126	7c 05		 jl	 SHORT $LN8@gObjMonste@10
$LN7@gObjMonste@10:

; 745  : 				{
; 746  : 
; 747  : 				}
; 748  : 				else if ( (gObj[tObjNum].Authority &2) != 2 && (gObj[tObjNum].Authority &32) != 32 && gObj[tObjNum].Teleport == 0 )

  00128	e9 28 01 00 00	 jmp	 $LN3@gObjMonste@10
$LN8@gObjMonste@10:
  0012d	8b 45 e4	 mov	 eax, DWORD PTR _tObjNum$[ebp]
  00130	69 c0 38 2b 00
	00		 imul	 eax, 11064		; 00002b38H
  00136	8b 0d 00 00 00
	00		 mov	 ecx, DWORD PTR ?gObj@@3PAUOBJECTSTRUCT@@A ; gObj
  0013c	8b 94 01 0c 02
	00 00		 mov	 edx, DWORD PTR [ecx+eax+524]
  00143	83 e2 02	 and	 edx, 2
  00146	0f 85 09 01 00
	00		 jne	 $LN3@gObjMonste@10
  0014c	8b 45 e4	 mov	 eax, DWORD PTR _tObjNum$[ebp]
  0014f	69 c0 38 2b 00
	00		 imul	 eax, 11064		; 00002b38H
  00155	8b 0d 00 00 00
	00		 mov	 ecx, DWORD PTR ?gObj@@3PAUOBJECTSTRUCT@@A ; gObj
  0015b	8b 94 01 0c 02
	00 00		 mov	 edx, DWORD PTR [ecx+eax+524]
  00162	83 e2 20	 and	 edx, 32			; 00000020H
  00165	0f 85 ea 00 00
	00		 jne	 $LN3@gObjMonste@10
  0016b	8b 45 e4	 mov	 eax, DWORD PTR _tObjNum$[ebp]
  0016e	69 c0 38 2b 00
	00		 imul	 eax, 11064		; 00002b38H
  00174	8b 0d 00 00 00
	00		 mov	 ecx, DWORD PTR ?gObj@@3PAUOBJECTSTRUCT@@A ; gObj
  0017a	0f be 94 01 a0
	03 00 00	 movsx	 edx, BYTE PTR [ecx+eax+928]
  00182	85 d2		 test	 edx, edx
  00184	0f 85 cb 00 00
	00		 jne	 $LN3@gObjMonste@10

; 749  : 				{
; 750  : 					tx = lpObj->X - gObj[tObjNum].X;

  0018a	8b 45 08	 mov	 eax, DWORD PTR _lpObj$[ebp]
  0018d	0f bf 88 44 01
	00 00		 movsx	 ecx, WORD PTR [eax+324]
  00194	8b 55 e4	 mov	 edx, DWORD PTR _tObjNum$[ebp]
  00197	69 d2 38 2b 00
	00		 imul	 edx, 11064		; 00002b38H
  0019d	a1 00 00 00 00	 mov	 eax, DWORD PTR ?gObj@@3PAUOBJECTSTRUCT@@A ; gObj
  001a2	0f bf 94 10 44
	01 00 00	 movsx	 edx, WORD PTR [eax+edx+324]
  001aa	2b ca		 sub	 ecx, edx
  001ac	89 4d f8	 mov	 DWORD PTR _tx$[ebp], ecx

; 751  : 					ty = lpObj->Y - gObj[tObjNum].Y;

  001af	8b 45 08	 mov	 eax, DWORD PTR _lpObj$[ebp]
  001b2	0f bf 88 46 01
	00 00		 movsx	 ecx, WORD PTR [eax+326]
  001b9	8b 55 e4	 mov	 edx, DWORD PTR _tObjNum$[ebp]
  001bc	69 d2 38 2b 00
	00		 imul	 edx, 11064		; 00002b38H
  001c2	a1 00 00 00 00	 mov	 eax, DWORD PTR ?gObj@@3PAUOBJECTSTRUCT@@A ; gObj
  001c7	0f bf 94 10 46
	01 00 00	 movsx	 edx, WORD PTR [eax+edx+326]
  001cf	2b ca		 sub	 ecx, edx
  001d1	89 4d f4	 mov	 DWORD PTR _ty$[ebp], ecx

; 752  : 					dis = (int)(sqrt((double)tx * tx + ty * ty));

  001d4	db 45 f8	 fild	 DWORD PTR _tx$[ebp]
  001d7	da 4d f8	 fimul	 DWORD PTR _tx$[ebp]
  001da	8b 45 f4	 mov	 eax, DWORD PTR _ty$[ebp]
  001dd	0f af 45 f4	 imul	 eax, DWORD PTR _ty$[ebp]
  001e1	89 45 94	 mov	 DWORD PTR tv227[ebp], eax
  001e4	db 45 94	 fild	 DWORD PTR tv227[ebp]
  001e7	de c1		 faddp	 ST(1), ST(0)
  001e9	83 ec 08	 sub	 esp, 8
  001ec	dd 1c 24	 fstp	 QWORD PTR [esp]
  001ef	e8 00 00 00 00	 call	 _sqrt
  001f4	83 c4 08	 add	 esp, 8
  001f7	e8 00 00 00 00	 call	 __ftol2_sse
  001fc	89 45 f0	 mov	 DWORD PTR _dis$[ebp], eax

; 753  : 					lpObj->VpPlayer2[n].dis = dis;

  001ff	8b 45 fc	 mov	 eax, DWORD PTR _n$[ebp]
  00202	6b c0 0c	 imul	 eax, 12			; 0000000cH
  00205	8b 4d 08	 mov	 ecx, DWORD PTR _lpObj$[ebp]
  00208	8b 55 f0	 mov	 edx, DWORD PTR _dis$[ebp]
  0020b	89 94 01 b4 08
	00 00		 mov	 DWORD PTR [ecx+eax+2228], edx

; 754  : 
; 755  : 					if ( dis < mindis )

  00212	8b 45 f0	 mov	 eax, DWORD PTR _dis$[ebp]
  00215	3b 45 ec	 cmp	 eax, DWORD PTR _mindis$[ebp]
  00218	7d 3b		 jge	 SHORT $LN3@gObjMonste@10

; 756  : 					{
; 757  : 						if(g_DoppelGanger.IsDGMonster(lpObj))	//Season 5 DoppelGanger

  0021a	8b 45 08	 mov	 eax, DWORD PTR _lpObj$[ebp]
  0021d	50		 push	 eax
  0021e	b9 00 00 00 00	 mov	 ecx, OFFSET ?g_DoppelGanger@@3VCDoppelGanger@@A ; g_DoppelGanger
  00223	e8 00 00 00 00	 call	 ?IsDGMonster@CDoppelGanger@@QAE_NPAUOBJECTSTRUCT@@@Z ; CDoppelGanger::IsDGMonster
  00228	0f b6 c8	 movzx	 ecx, al
  0022b	85 c9		 test	 ecx, ecx
  0022d	74 1a		 je	 SHORT $LN1@gObjMonste@10

; 758  : 						{
; 759  : 							if(rand()%2 == 0) continue;

  0022f	e8 00 00 00 00	 call	 _rand
  00234	25 01 00 00 80	 and	 eax, -2147483647	; 80000001H
  00239	79 05		 jns	 SHORT $LN17@gObjMonste@10
  0023b	48		 dec	 eax
  0023c	83 c8 fe	 or	 eax, -2			; fffffffeH
  0023f	40		 inc	 eax
$LN17@gObjMonste@10:
  00240	85 c0		 test	 eax, eax
  00242	75 05		 jne	 SHORT $LN1@gObjMonste@10
  00244	e9 f2 fd ff ff	 jmp	 $LN13@gObjMonste@10
$LN1@gObjMonste@10:

; 760  : 						}
; 761  : 						searchtarget = tObjNum;

  00249	8b 45 e4	 mov	 eax, DWORD PTR _tObjNum$[ebp]
  0024c	89 45 e8	 mov	 DWORD PTR _searchtarget$[ebp], eax

; 762  : 						mindis = dis;

  0024f	8b 45 f0	 mov	 eax, DWORD PTR _dis$[ebp]
  00252	89 45 ec	 mov	 DWORD PTR _mindis$[ebp], eax
$LN3@gObjMonste@10:

; 763  : 					}
; 764  : 				}
; 765  : 			}
; 766  : 		}
; 767  : 	}

  00255	e9 e1 fd ff ff	 jmp	 $LN13@gObjMonste@10
$LN12@gObjMonste@10:

; 768  : 
; 769  : 	return searchtarget;

  0025a	8b 45 e8	 mov	 eax, DWORD PTR _searchtarget$[ebp]

; 770  : }

  0025d	5f		 pop	 edi
  0025e	5e		 pop	 esi
  0025f	5b		 pop	 ebx
  00260	8b e5		 mov	 esp, ebp
  00262	5d		 pop	 ebp
  00263	c3		 ret	 0
?gObjMonsterSearchEnemy@@YAHPAUOBJECTSTRUCT@@E@Z ENDP	; gObjMonsterSearchEnemy
_TEXT	ENDS
PUBLIC	?gObjGuardSearchEnemy@@YAHPAUOBJECTSTRUCT@@@Z	; gObjGuardSearchEnemy
EXTRN	?GetPkLevel@PartyClass@@QAEDH@Z:PROC		; PartyClass::GetPkLevel
EXTRN	?gParty@@3VPartyClass@@A:BYTE			; gParty
EXTRN	?ExConfig@@3VcExConfigs@@A:BYTE			; ExConfig
EXTRN	?IsMapBattleZone@GensSystem@@QAEHH@Z:PROC	; GensSystem::IsMapBattleZone
EXTRN	?gGensSystem@@3VGensSystem@@A:BYTE		; gGensSystem
EXTRN	?gGENS@@3HA:DWORD				; gGENS
; Function compile flags: /Odtp /ZI /ZX
;	COMDAT ?gObjGuardSearchEnemy@@YAHPAUOBJECTSTRUCT@@@Z
_TEXT	SEGMENT
tv218 = -104						; size = 4
_bEnableAttack$246531 = -36				; size = 4
_attr$ = -29						; size = 1
_tObjNum$ = -28						; size = 4
_searchtarget$ = -24					; size = 4
_mindis$ = -20						; size = 4
_dis$ = -16						; size = 4
_ty$ = -12						; size = 4
_tx$ = -8						; size = 4
_n$ = -4						; size = 4
_lpObj$ = 8						; size = 4
?gObjGuardSearchEnemy@@YAHPAUOBJECTSTRUCT@@@Z PROC	; gObjGuardSearchEnemy, COMDAT

; 773  : {

  00000	55		 push	 ebp
  00001	8b ec		 mov	 ebp, esp
  00003	83 ec 68	 sub	 esp, 104		; 00000068H
  00006	53		 push	 ebx
  00007	56		 push	 esi
  00008	57		 push	 edi

; 774  : 	int n;
; 775  : 	int tx;
; 776  : 	int ty;
; 777  : 	int dis;
; 778  : 	int mindis = lpObj->m_ViewRange;

  00009	8b 45 08	 mov	 eax, DWORD PTR _lpObj$[ebp]
  0000c	0f bf 88 b4 04
	00 00		 movsx	 ecx, WORD PTR [eax+1204]
  00013	89 4d ec	 mov	 DWORD PTR _mindis$[ebp], ecx

; 779  : 	int searchtarget = -1;

  00016	c7 45 e8 ff ff
	ff ff		 mov	 DWORD PTR _searchtarget$[ebp], -1

; 780  : 	int tObjNum;
; 781  : 	BYTE attr;
; 782  : 
; 783  : 	if(gGENS)

  0001d	83 3d 00 00 00
	00 00		 cmp	 DWORD PTR ?gGENS@@3HA, 0 ; gGENS
  00024	74 21		 je	 SHORT $LN13@gObjGuardS

; 784  : 	{
; 785  : 		if( gGensSystem.IsMapBattleZone(lpObj->MapNumber) )

  00026	8b 45 08	 mov	 eax, DWORD PTR _lpObj$[ebp]
  00029	0f b6 88 49 01
	00 00		 movzx	 ecx, BYTE PTR [eax+329]
  00030	51		 push	 ecx
  00031	b9 00 00 00 00	 mov	 ecx, OFFSET ?gGensSystem@@3VGensSystem@@A ; gGensSystem
  00036	e8 00 00 00 00	 call	 ?IsMapBattleZone@GensSystem@@QAEHH@Z ; GensSystem::IsMapBattleZone
  0003b	85 c0		 test	 eax, eax
  0003d	74 08		 je	 SHORT $LN13@gObjGuardS

; 786  : 		{
; 787  : 			return -1;

  0003f	83 c8 ff	 or	 eax, -1
  00042	e9 eb 01 00 00	 jmp	 $LN15@gObjGuardS
$LN13@gObjGuardS:

; 788  : 		}
; 789  : 	}
; 790  : 
; 791  : 	for (n=0;n<MAX_VIEWPORT_MONSTER;n++)

  00047	c7 45 fc 00 00
	00 00		 mov	 DWORD PTR _n$[ebp], 0
  0004e	eb 09		 jmp	 SHORT $LN12@gObjGuardS
$LN11@gObjGuardS:
  00050	8b 45 fc	 mov	 eax, DWORD PTR _n$[ebp]
  00053	83 c0 01	 add	 eax, 1
  00056	89 45 fc	 mov	 DWORD PTR _n$[ebp], eax
$LN12@gObjGuardS:
  00059	83 7d fc 4b	 cmp	 DWORD PTR _n$[ebp], 75	; 0000004bH
  0005d	0f 8d cc 01 00
	00		 jge	 $LN10@gObjGuardS

; 792  : 	{
; 793  : 		tObjNum = lpObj->VpPlayer2[n].number;

  00063	8b 45 fc	 mov	 eax, DWORD PTR _n$[ebp]
  00066	6b c0 0c	 imul	 eax, 12			; 0000000cH
  00069	8b 4d 08	 mov	 ecx, DWORD PTR _lpObj$[ebp]
  0006c	0f bf 94 01 ae
	08 00 00	 movsx	 edx, WORD PTR [ecx+eax+2222]
  00074	89 55 e4	 mov	 DWORD PTR _tObjNum$[ebp], edx

; 794  : 
; 795  : 		if ( tObjNum >= 0 )

  00077	83 7d e4 00	 cmp	 DWORD PTR _tObjNum$[ebp], 0
  0007b	0f 8c a9 01 00
	00		 jl	 $LN1@gObjGuardS

; 796  : 		{
; 797  : 			BOOL bEnableAttack = FALSE; //Season 2.5 add-on

  00081	c7 45 dc 00 00
	00 00		 mov	 DWORD PTR _bEnableAttack$246531[ebp], 0

; 798  : 
; 799  : 			if(ExConfig.PvP.ExPkPartySystem && gObj[tObjNum].PartyNumber >= 0) //Season 2.5 add-on

  00088	83 3d d4 08 00
	00 00		 cmp	 DWORD PTR ?ExConfig@@3VcExConfigs@@A+2260, 0
  0008f	74 4b		 je	 SHORT $LN8@gObjGuardS
  00091	8b 45 e4	 mov	 eax, DWORD PTR _tObjNum$[ebp]
  00094	69 c0 38 2b 00
	00		 imul	 eax, 11064		; 00002b38H
  0009a	8b 0d 00 00 00
	00		 mov	 ecx, DWORD PTR ?gObj@@3PAUOBJECTSTRUCT@@A ; gObj
  000a0	83 bc 01 2c 04
	00 00 00	 cmp	 DWORD PTR [ecx+eax+1068], 0
  000a8	7c 32		 jl	 SHORT $LN8@gObjGuardS

; 800  : 			{
; 801  : 				if( gParty.GetPkLevel(gObj[tObjNum].PartyNumber) > 4 )

  000aa	8b 45 e4	 mov	 eax, DWORD PTR _tObjNum$[ebp]
  000ad	69 c0 38 2b 00
	00		 imul	 eax, 11064		; 00002b38H
  000b3	8b 0d 00 00 00
	00		 mov	 ecx, DWORD PTR ?gObj@@3PAUOBJECTSTRUCT@@A ; gObj
  000b9	8b 94 01 2c 04
	00 00		 mov	 edx, DWORD PTR [ecx+eax+1068]
  000c0	52		 push	 edx
  000c1	b9 00 00 00 00	 mov	 ecx, OFFSET ?gParty@@3VPartyClass@@A ; gParty
  000c6	e8 00 00 00 00	 call	 ?GetPkLevel@PartyClass@@QAEDH@Z ; PartyClass::GetPkLevel
  000cb	0f be c0	 movsx	 eax, al
  000ce	83 f8 04	 cmp	 eax, 4
  000d1	7e 07		 jle	 SHORT $LN7@gObjGuardS

; 802  : 				{
; 803  : 					bEnableAttack = TRUE;

  000d3	c7 45 dc 01 00
	00 00		 mov	 DWORD PTR _bEnableAttack$246531[ebp], 1
$LN7@gObjGuardS:

; 804  : 				}
; 805  : 			}

  000da	eb 23		 jmp	 SHORT $LN5@gObjGuardS
$LN8@gObjGuardS:

; 806  : 			else if( gObj[tObjNum].m_PK_Level > 4 ) 

  000dc	8b 45 e4	 mov	 eax, DWORD PTR _tObjNum$[ebp]
  000df	69 c0 38 2b 00
	00		 imul	 eax, 11064		; 00002b38H
  000e5	8b 0d 00 00 00
	00		 mov	 ecx, DWORD PTR ?gObj@@3PAUOBJECTSTRUCT@@A ; gObj
  000eb	0f be 94 01 3d
	01 00 00	 movsx	 edx, BYTE PTR [ecx+eax+317]
  000f3	83 fa 04	 cmp	 edx, 4
  000f6	7e 07		 jle	 SHORT $LN5@gObjGuardS

; 807  : 			{
; 808  : 				bEnableAttack = TRUE;

  000f8	c7 45 dc 01 00
	00 00		 mov	 DWORD PTR _bEnableAttack$246531[ebp], 1
$LN5@gObjGuardS:

; 809  : 			}
; 810  : 			
; 811  : 			if ( gObj[tObjNum].Type == OBJ_USER )

  000ff	8b 45 e4	 mov	 eax, DWORD PTR _tObjNum$[ebp]
  00102	69 c0 38 2b 00
	00		 imul	 eax, 11064		; 00002b38H
  00108	8b 0d 00 00 00
	00		 mov	 ecx, DWORD PTR ?gObj@@3PAUOBJECTSTRUCT@@A ; gObj
  0010e	0f b7 54 01 68	 movzx	 edx, WORD PTR [ecx+eax+104]
  00113	83 fa 01	 cmp	 edx, 1
  00116	0f 85 0e 01 00
	00		 jne	 $LN1@gObjGuardS

; 812  : 			{
; 813  : 				if(bEnableAttack == TRUE) //Season 2.5 add-on

  0011c	83 7d dc 01	 cmp	 DWORD PTR _bEnableAttack$246531[ebp], 1
  00120	0f 85 04 01 00
	00		 jne	 $LN1@gObjGuardS

; 814  : 				{
; 815  : 					attr = MapC[gObj[tObjNum].MapNumber].GetAttr(gObj[tObjNum].X, gObj[tObjNum].Y);

  00126	8b 45 e4	 mov	 eax, DWORD PTR _tObjNum$[ebp]
  00129	69 c0 38 2b 00
	00		 imul	 eax, 11064		; 00002b38H
  0012f	8b 0d 00 00 00
	00		 mov	 ecx, DWORD PTR ?gObj@@3PAUOBJECTSTRUCT@@A ; gObj
  00135	0f bf 94 01 46
	01 00 00	 movsx	 edx, WORD PTR [ecx+eax+326]
  0013d	52		 push	 edx
  0013e	8b 45 e4	 mov	 eax, DWORD PTR _tObjNum$[ebp]
  00141	69 c0 38 2b 00
	00		 imul	 eax, 11064		; 00002b38H
  00147	8b 0d 00 00 00
	00		 mov	 ecx, DWORD PTR ?gObj@@3PAUOBJECTSTRUCT@@A ; gObj
  0014d	0f bf 94 01 44
	01 00 00	 movsx	 edx, WORD PTR [ecx+eax+324]
  00155	52		 push	 edx
  00156	8b 45 e4	 mov	 eax, DWORD PTR _tObjNum$[ebp]
  00159	69 c0 38 2b 00
	00		 imul	 eax, 11064		; 00002b38H
  0015f	8b 0d 00 00 00
	00		 mov	 ecx, DWORD PTR ?gObj@@3PAUOBJECTSTRUCT@@A ; gObj
  00165	0f b6 8c 01 49
	01 00 00	 movzx	 ecx, BYTE PTR [ecx+eax+329]
  0016d	69 c9 b8 3d 05
	00		 imul	 ecx, 343480		; 00053db8H
  00173	81 c1 00 00 00
	00		 add	 ecx, OFFSET ?MapC@@3PAVMapClass@@A ; MapC
  00179	e8 00 00 00 00	 call	 ?GetAttr@MapClass@@QAEEHH@Z ; MapClass::GetAttr
  0017e	88 45 e3	 mov	 BYTE PTR _attr$[ebp], al

; 816  : 
; 817  : 					if ( (attr&1) != 1 )

  00181	0f b6 45 e3	 movzx	 eax, BYTE PTR _attr$[ebp]
  00185	83 e0 01	 and	 eax, 1
  00188	0f 85 9c 00 00
	00		 jne	 $LN1@gObjGuardS

; 818  : 					{
; 819  : 						tx = lpObj->X - gObj[tObjNum].X;

  0018e	8b 45 08	 mov	 eax, DWORD PTR _lpObj$[ebp]
  00191	0f bf 88 44 01
	00 00		 movsx	 ecx, WORD PTR [eax+324]
  00198	8b 55 e4	 mov	 edx, DWORD PTR _tObjNum$[ebp]
  0019b	69 d2 38 2b 00
	00		 imul	 edx, 11064		; 00002b38H
  001a1	a1 00 00 00 00	 mov	 eax, DWORD PTR ?gObj@@3PAUOBJECTSTRUCT@@A ; gObj
  001a6	0f bf 94 10 44
	01 00 00	 movsx	 edx, WORD PTR [eax+edx+324]
  001ae	2b ca		 sub	 ecx, edx
  001b0	89 4d f8	 mov	 DWORD PTR _tx$[ebp], ecx

; 820  : 						ty = lpObj->Y - gObj[tObjNum].Y;

  001b3	8b 45 08	 mov	 eax, DWORD PTR _lpObj$[ebp]
  001b6	0f bf 88 46 01
	00 00		 movsx	 ecx, WORD PTR [eax+326]
  001bd	8b 55 e4	 mov	 edx, DWORD PTR _tObjNum$[ebp]
  001c0	69 d2 38 2b 00
	00		 imul	 edx, 11064		; 00002b38H
  001c6	a1 00 00 00 00	 mov	 eax, DWORD PTR ?gObj@@3PAUOBJECTSTRUCT@@A ; gObj
  001cb	0f bf 94 10 46
	01 00 00	 movsx	 edx, WORD PTR [eax+edx+326]
  001d3	2b ca		 sub	 ecx, edx
  001d5	89 4d f4	 mov	 DWORD PTR _ty$[ebp], ecx

; 821  : 						dis = (int)(sqrt((double)tx * tx + ty * ty));

  001d8	db 45 f8	 fild	 DWORD PTR _tx$[ebp]
  001db	da 4d f8	 fimul	 DWORD PTR _tx$[ebp]
  001de	8b 45 f4	 mov	 eax, DWORD PTR _ty$[ebp]
  001e1	0f af 45 f4	 imul	 eax, DWORD PTR _ty$[ebp]
  001e5	89 45 98	 mov	 DWORD PTR tv218[ebp], eax
  001e8	db 45 98	 fild	 DWORD PTR tv218[ebp]
  001eb	de c1		 faddp	 ST(1), ST(0)
  001ed	83 ec 08	 sub	 esp, 8
  001f0	dd 1c 24	 fstp	 QWORD PTR [esp]
  001f3	e8 00 00 00 00	 call	 _sqrt
  001f8	83 c4 08	 add	 esp, 8
  001fb	e8 00 00 00 00	 call	 __ftol2_sse
  00200	89 45 f0	 mov	 DWORD PTR _dis$[ebp], eax

; 822  : 						lpObj->VpPlayer2[n].dis = dis;

  00203	8b 45 fc	 mov	 eax, DWORD PTR _n$[ebp]
  00206	6b c0 0c	 imul	 eax, 12			; 0000000cH
  00209	8b 4d 08	 mov	 ecx, DWORD PTR _lpObj$[ebp]
  0020c	8b 55 f0	 mov	 edx, DWORD PTR _dis$[ebp]
  0020f	89 94 01 b4 08
	00 00		 mov	 DWORD PTR [ecx+eax+2228], edx

; 823  : 
; 824  : 						if ( dis < mindis )

  00216	8b 45 f0	 mov	 eax, DWORD PTR _dis$[ebp]
  00219	3b 45 ec	 cmp	 eax, DWORD PTR _mindis$[ebp]
  0021c	7d 0c		 jge	 SHORT $LN1@gObjGuardS

; 825  : 						{
; 826  : 							searchtarget = tObjNum;

  0021e	8b 45 e4	 mov	 eax, DWORD PTR _tObjNum$[ebp]
  00221	89 45 e8	 mov	 DWORD PTR _searchtarget$[ebp], eax

; 827  : 							mindis = dis;

  00224	8b 45 f0	 mov	 eax, DWORD PTR _dis$[ebp]
  00227	89 45 ec	 mov	 DWORD PTR _mindis$[ebp], eax
$LN1@gObjGuardS:

; 828  : 						}
; 829  : 					}
; 830  : 				}
; 831  : 			}
; 832  : 		}
; 833  : 	}

  0022a	e9 21 fe ff ff	 jmp	 $LN11@gObjGuardS
$LN10@gObjGuardS:

; 834  : 
; 835  : 	return searchtarget;

  0022f	8b 45 e8	 mov	 eax, DWORD PTR _searchtarget$[ebp]
$LN15@gObjGuardS:

; 836  : }

  00232	5f		 pop	 edi
  00233	5e		 pop	 esi
  00234	5b		 pop	 ebx
  00235	8b e5		 mov	 esp, ebp
  00237	5d		 pop	 ebp
  00238	c3		 ret	 0
?gObjGuardSearchEnemy@@YAHPAUOBJECTSTRUCT@@@Z ENDP	; gObjGuardSearchEnemy
_TEXT	ENDS
PUBLIC	??_C@_0DN@OMDKGOEJ@?$FLBlood?5Castle?$FN?5?$CI?$CFd?$CJ?5All?5of?5the?5B@ ; `string'
PUBLIC	??_C@_0DI@FKJGCAAF@?$FLBlood?5Castle?$FN?5?$CI?$CFd?$CJ?5All?5of?5the?5M@ ; `string'
PUBLIC	?gObjMonsterDieGiveItem@@YAXPAUOBJECTSTRUCT@@0@Z ; gObjMonsterDieGiveItem
PUBLIC	__$ArrayPad$
PUBLIC	?gObjMonsterStateProc@@YAXPAUOBJECTSTRUCT@@HHH@Z ; gObjMonsterStateProc
EXTRN	?gObjApplyBuffEffectDuration@@YAEPAUOBJECTSTRUCT@@HEHEHH@Z:PROC ; gObjApplyBuffEffectDuration
EXTRN	?retResistance@@YAHPAUOBJECTSTRUCT@@H@Z:PROC	; retResistance
EXTRN	?gObjAttack@@YAHPAUOBJECTSTRUCT@@0PAVCMagicInf@@HEHHEE@Z:PROC ; gObjAttack
EXTRN	?gObjBackSpring2@@YAHPAUOBJECTSTRUCT@@0H@Z:PROC	; gObjBackSpring2
EXTRN	?gObjMemFree@@YAFH@Z:PROC			; gObjMemFree
EXTRN	?gObjBackSpring@@YAHPAUOBJECTSTRUCT@@0@Z:PROC	; gObjBackSpring
EXTRN	?SetSaintStatue@CBloodCastle@@QAEXH@Z:PROC	; CBloodCastle::SetSaintStatue
EXTRN	?CheckBossKillCount@CBloodCastle@@QAE_NH@Z:PROC	; CBloodCastle::CheckBossKillCount
EXTRN	?SendNoticeMessage@CBloodCastle@@QAEXHPAD@Z:PROC ; CBloodCastle::SendNoticeMessage
EXTRN	?Get@CMsg@@QAEPADH@Z:PROC			; CMsg::Get
EXTRN	?lMsg@@3VCMsg@@A:BYTE				; lMsg
EXTRN	?GetCurrentLiveUserCount@CBloodCastle@@QAEHH@Z:PROC ; CBloodCastle::GetCurrentLiveUserCount
EXTRN	?ReleaseCastleBridge@CBloodCastle@@QAEXH@Z:PROC	; CBloodCastle::ReleaseCastleBridge
EXTRN	?SendBridgeAnyMsg@CBloodCastle@@QAEXPAEHH@Z:PROC ; CBloodCastle::SendBridgeAnyMsg
EXTRN	?PHeadSetB@@YAXPAEEH@Z:PROC			; PHeadSetB
EXTRN	?CheckMonsterKillCount@CBloodCastle@@QAE_NH@Z:PROC ; CBloodCastle::CheckMonsterKillCount
EXTRN	?GetBridgeIndex@CBloodCastle@@QAEHH@Z:PROC	; CBloodCastle::GetBridgeIndex
EXTRN	?g_BloodCastle@@3VCBloodCastle@@A:BYTE		; g_BloodCastle
EXTRN	?gObjMonsterCallKill@@YAXH@Z:PROC		; gObjMonsterCallKill
EXTRN	?MonsterPlusKillCountParty@CQuestInfo@@QAEHPAUOBJECTSTRUCT@@0@Z:PROC ; CQuestInfo::MonsterPlusKillCountParty
EXTRN	?g_QuestInfo@@3VCQuestInfo@@A:BYTE		; g_QuestInfo
EXTRN	?CreateKalimaGate2@CKalimaGate@@QAEHHHEE@Z:PROC	; CKalimaGate::CreateKalimaGate2
EXTRN	?g_KalimaGate@@3VCKalimaGate@@A:BYTE		; g_KalimaGate
EXTRN	?DeleteLifeStone@CLifeStone@@QAEHH@Z:PROC	; CLifeStone::DeleteLifeStone
EXTRN	?g_CsNPC_LifeStone@@3VCLifeStone@@A:DWORD	; g_CsNPC_LifeStone
EXTRN	?DeleteMercenary@CMercenary@@QAEHH@Z:PROC	; CMercenary::DeleteMercenary
EXTRN	?g_CsNPC_Mercenary@@3VCMercenary@@A:QWORD	; g_CsNPC_Mercenary
EXTRN	?DelNPC@CCastleSiege@@QAEHHHHH@Z:PROC		; CCastleSiege::DelNPC
EXTRN	?g_CastleSiege@@3VCCastleSiege@@A:BYTE		; g_CastleSiege
EXTRN	?CheckWall2@MapClass@@QAEEHHHH@Z:PROC		; MapClass::CheckWall2
EXTRN	?gObjCalDistance@@YAHPAUOBJECTSTRUCT@@0@Z:PROC	; gObjCalDistance
EXTRN	?KillMob@cMonsterSpawner@@QAEXPAUOBJECTSTRUCT@@@Z:PROC ; cMonsterSpawner::KillMob
EXTRN	?gMonsterSpawner@@3VcMonsterSpawner@@A:BYTE	; gMonsterSpawner
EXTRN	?CheckUser@CExLicense@@QAE_NH@Z:PROC		; CExLicense::CheckUser
EXTRN	?g_ExLicense@@3VCExLicense@@A:BYTE		; g_ExLicense
;	COMDAT ??_C@_0DN@OMDKGOEJ@?$FLBlood?5Castle?$FN?5?$CI?$CFd?$CJ?5All?5of?5the?5B@
CONST	SEGMENT
??_C@_0DN@OMDKGOEJ@?$FLBlood?5Castle?$FN?5?$CI?$CFd?$CJ?5All?5of?5the?5B@ DB '['
	DB	'Blood Castle] (%d) All of the Boss Monster Terminated -> %d', 00H ; `string'
CONST	ENDS
;	COMDAT ??_C@_0DI@FKJGCAAF@?$FLBlood?5Castle?$FN?5?$CI?$CFd?$CJ?5All?5of?5the?5M@
CONST	SEGMENT
??_C@_0DI@FKJGCAAF@?$FLBlood?5Castle?$FN?5?$CI?$CFd?$CJ?5All?5of?5the?5M@ DB '['
	DB	'Blood Castle] (%d) All of the Monster Terminated -> %d', 00H ; `string'
; Function compile flags: /Odtp /ZI /ZX
CONST	ENDS
;	COMDAT ?gObjMonsterStateProc@@YAXPAUOBJECTSTRUCT@@HHH@Z
_TEXT	SEGMENT
tv712 = -144						; size = 4
tv479 = -144						; size = 4
tv416 = -144						; size = 4
tv729 = -140						; size = 4
tv713 = -140						; size = 4
tv480 = -140						; size = 4
tv417 = -140						; size = 4
tv362 = -140						; size = 4
tv284 = -140						; size = 4
tv165 = -140						; size = 4
tv84 = -140						; size = 4
_lpTargetObj$246662 = -72				; size = 4
_lpTargetObj$246658 = -68				; size = 4
_pMsg$246632 = -64					; size = 14
_iBridgeIndex$246626 = -48				; size = 4
_MaxLife$246603 = -44					; size = 4
_range$246596 = -40					; size = 4
_enemydis$246595 = -36					; size = 4
_EnemyMap$246594 = -32					; size = 4
_IndexEnemy$246592 = -28				; size = 4
_wall$246581 = -21					; size = 1
_range$246567 = -20					; size = 4
_dis$246566 = -16					; size = 4
_attr$246565 = -9					; size = 1
_map$246564 = -8					; size = 4
__$ArrayPad$ = -4					; size = 4
_lpObj$ = 8						; size = 4
_aMsgCode$ = 12						; size = 4
_aIndex$ = 16						; size = 4
_aMsgSubCode$ = 20					; size = 4
?gObjMonsterStateProc@@YAXPAUOBJECTSTRUCT@@HHH@Z PROC	; gObjMonsterStateProc, COMDAT

; 840  : {

  00000	55		 push	 ebp
  00001	8b ec		 mov	 ebp, esp
  00003	81 ec 90 00 00
	00		 sub	 esp, 144		; 00000090H
  00009	a1 00 00 00 00	 mov	 eax, DWORD PTR ___security_cookie
  0000e	33 c5		 xor	 eax, ebp
  00010	89 45 fc	 mov	 DWORD PTR __$ArrayPad$[ebp], eax
  00013	53		 push	 ebx
  00014	56		 push	 esi
  00015	57		 push	 edi

; 841  : 	if ( lpObj->m_iMonsterBattleDelay > 0 )

  00016	8b 45 08	 mov	 eax, DWORD PTR _lpObj$[ebp]
  00019	0f be 88 c9 03
	00 00		 movsx	 ecx, BYTE PTR [eax+969]
  00020	85 c9		 test	 ecx, ecx
  00022	7e 05		 jle	 SHORT $LN91@gObjMonste@11

; 842  : 	{
; 843  : 		return;

  00024	e9 92 0f 00 00	 jmp	 $LN92@gObjMonste@11
$LN91@gObjMonste@11:

; 844  : 	}
; 845  : 	if(g_ExLicense.CheckUser(eExUB::ulasevich) || g_ExLicense.CheckUser(eExUB::Local3) || g_ExLicense.CheckUser(eExUB::ulasevich2))

  00029	6a 17		 push	 23			; 00000017H
  0002b	b9 00 00 00 00	 mov	 ecx, OFFSET ?g_ExLicense@@3VCExLicense@@A ; g_ExLicense
  00030	e8 00 00 00 00	 call	 ?CheckUser@CExLicense@@QAE_NH@Z ; CExLicense::CheckUser
  00035	0f b6 c0	 movzx	 eax, al
  00038	85 c0		 test	 eax, eax
  0003a	75 26		 jne	 SHORT $LN89@gObjMonste@11
  0003c	6a 1c		 push	 28			; 0000001cH
  0003e	b9 00 00 00 00	 mov	 ecx, OFFSET ?g_ExLicense@@3VCExLicense@@A ; g_ExLicense
  00043	e8 00 00 00 00	 call	 ?CheckUser@CExLicense@@QAE_NH@Z ; CExLicense::CheckUser
  00048	0f b6 c0	 movzx	 eax, al
  0004b	85 c0		 test	 eax, eax
  0004d	75 13		 jne	 SHORT $LN89@gObjMonste@11
  0004f	6a 24		 push	 36			; 00000024H
  00051	b9 00 00 00 00	 mov	 ecx, OFFSET ?g_ExLicense@@3VCExLicense@@A ; g_ExLicense
  00056	e8 00 00 00 00	 call	 ?CheckUser@CExLicense@@QAE_NH@Z ; CExLicense::CheckUser
  0005b	0f b6 c0	 movzx	 eax, al
  0005e	85 c0		 test	 eax, eax
  00060	74 0e		 je	 SHORT $LN90@gObjMonste@11
$LN89@gObjMonste@11:

; 846  : 	{
; 847  : 		gMonsterSpawner.KillMob(lpObj);

  00062	8b 45 08	 mov	 eax, DWORD PTR _lpObj$[ebp]
  00065	50		 push	 eax
  00066	b9 00 00 00 00	 mov	 ecx, OFFSET ?gMonsterSpawner@@3VcMonsterSpawner@@A ; gMonsterSpawner
  0006b	e8 00 00 00 00	 call	 ?KillMob@cMonsterSpawner@@QAEXPAUOBJECTSTRUCT@@@Z ; cMonsterSpawner::KillMob
$LN90@gObjMonste@11:

; 848  : 	}
; 849  : 	switch ( aMsgCode )

  00070	8b 45 0c	 mov	 eax, DWORD PTR _aMsgCode$[ebp]
  00073	89 85 74 ff ff
	ff		 mov	 DWORD PTR tv84[ebp], eax
  00079	83 bd 74 ff ff
	ff 39		 cmp	 DWORD PTR tv84[ebp], 57	; 00000039H
  00080	0f 87 35 0f 00
	00		 ja	 $LN87@gObjMonste@11
  00086	8b 8d 74 ff ff
	ff		 mov	 ecx, DWORD PTR tv84[ebp]
  0008c	0f b6 91 00 00
	00 00		 movzx	 edx, BYTE PTR $LN112@gObjMonste@11[ecx]
  00093	ff 24 95 00 00
	00 00		 jmp	 DWORD PTR $LN114@gObjMonste@11[edx*4]
$LN86@gObjMonste@11:

; 850  : 	{
; 851  : 		case 0:
; 852  : 
; 853  : 			if ( lpObj->m_Attribute == 0 )

  0009a	8b 45 08	 mov	 eax, DWORD PTR _lpObj$[ebp]
  0009d	0f bf 88 b6 04
	00 00		 movsx	 ecx, WORD PTR [eax+1206]
  000a4	85 c9		 test	 ecx, ecx
  000a6	75 05		 jne	 SHORT $LN85@gObjMonste@11

; 854  : 			{
; 855  : 				return;

  000a8	e9 0e 0f 00 00	 jmp	 $LN92@gObjMonste@11
$LN85@gObjMonste@11:

; 856  : 			}
; 857  : 			
; 858  : 			if ( gObj[aIndex].Live == FALSE || gObj[aIndex].m_State != 2)

  000ad	8b 45 10	 mov	 eax, DWORD PTR _aIndex$[ebp]
  000b0	69 c0 38 2b 00
	00		 imul	 eax, 11064		; 00002b38H
  000b6	8b 0d 00 00 00
	00		 mov	 ecx, DWORD PTR ?gObj@@3PAUOBJECTSTRUCT@@A ; gObj
  000bc	0f b6 54 01 6a	 movzx	 edx, BYTE PTR [ecx+eax+106]
  000c1	85 d2		 test	 edx, edx
  000c3	74 19		 je	 SHORT $LN83@gObjMonste@11
  000c5	8b 45 10	 mov	 eax, DWORD PTR _aIndex$[ebp]
  000c8	69 c0 38 2b 00
	00		 imul	 eax, 11064		; 00002b38H
  000ce	8b 0d 00 00 00
	00		 mov	 ecx, DWORD PTR ?gObj@@3PAUOBJECTSTRUCT@@A ; gObj
  000d4	83 bc 01 20 02
	00 00 02	 cmp	 DWORD PTR [ecx+eax+544], 2
  000dc	74 05		 je	 SHORT $LN84@gObjMonste@11
$LN83@gObjMonste@11:

; 859  : 			{
; 860  : 				return;

  000de	e9 d8 0e 00 00	 jmp	 $LN92@gObjMonste@11
$LN84@gObjMonste@11:

; 861  : 			}
; 862  : 
; 863  : 			if ( lpObj->m_ActState.Emotion == 0 )

  000e3	8b 45 08	 mov	 eax, DWORD PTR _lpObj$[ebp]
  000e6	8b 88 18 02 00
	00		 mov	 ecx, DWORD PTR [eax+536]
  000ec	c1 e9 04	 shr	 ecx, 4
  000ef	83 e1 0f	 and	 ecx, 15			; 0000000fH
  000f2	75 3b		 jne	 SHORT $LN82@gObjMonste@11

; 864  : 			{
; 865  : 				lpObj->m_ActState.Emotion = 1;

  000f4	8b 45 08	 mov	 eax, DWORD PTR _lpObj$[ebp]
  000f7	8b 88 18 02 00
	00		 mov	 ecx, DWORD PTR [eax+536]
  000fd	81 e1 0f ff ff
	ff		 and	 ecx, -241		; ffffff0fH
  00103	83 c9 10	 or	 ecx, 16			; 00000010H
  00106	8b 55 08	 mov	 edx, DWORD PTR _lpObj$[ebp]
  00109	89 8a 18 02 00
	00		 mov	 DWORD PTR [edx+536], ecx

; 866  : 				lpObj->m_ActState.EmotionCount = 10;

  0010f	8b 45 08	 mov	 eax, DWORD PTR _lpObj$[ebp]
  00112	8b 88 18 02 00
	00		 mov	 ecx, DWORD PTR [eax+536]
  00118	81 e1 ff 00 ff
	ff		 and	 ecx, -65281		; ffff00ffH
  0011e	81 c9 00 0a 00
	00		 or	 ecx, 2560		; 00000a00H
  00124	8b 55 08	 mov	 edx, DWORD PTR _lpObj$[ebp]
  00127	89 8a 18 02 00
	00		 mov	 DWORD PTR [edx+536], ecx
  0012d	eb 32		 jmp	 SHORT $LN80@gObjMonste@11
$LN82@gObjMonste@11:

; 867  : 			}
; 868  : 			else if ( lpObj->m_ActState.Emotion == 1 )

  0012f	8b 45 08	 mov	 eax, DWORD PTR _lpObj$[ebp]
  00132	8b 88 18 02 00
	00		 mov	 ecx, DWORD PTR [eax+536]
  00138	c1 e9 04	 shr	 ecx, 4
  0013b	83 e1 0f	 and	 ecx, 15			; 0000000fH
  0013e	83 f9 01	 cmp	 ecx, 1
  00141	75 1e		 jne	 SHORT $LN80@gObjMonste@11

; 869  : 			{
; 870  : 				lpObj->m_ActState.EmotionCount = 10;

  00143	8b 45 08	 mov	 eax, DWORD PTR _lpObj$[ebp]
  00146	8b 88 18 02 00
	00		 mov	 ecx, DWORD PTR [eax+536]
  0014c	81 e1 ff 00 ff
	ff		 and	 ecx, -65281		; ffff00ffH
  00152	81 c9 00 0a 00
	00		 or	 ecx, 2560		; 00000a00H
  00158	8b 55 08	 mov	 edx, DWORD PTR _lpObj$[ebp]
  0015b	89 8a 18 02 00
	00		 mov	 DWORD PTR [edx+536], ecx
$LN80@gObjMonste@11:

; 871  : 			}
; 872  : #ifdef IMPERIAL_CONFLICT_NEW
; 873  : 		if ( lpObj->Class >= 504 && lpObj->Class <= 521)
; 874  : 			g_ImperialGuardian.SetTargetMoveAllMonster(lpObj->m_ImperialZoneID, aIndex);
; 875  : #endif
; 876  : 			if ( lpObj->m_ActState.Attack == 0 && lpObj->PathStartEnd == 0)

  00161	8b 45 08	 mov	 eax, DWORD PTR _lpObj$[ebp]
  00164	8b 88 18 02 00
	00		 mov	 ecx, DWORD PTR [eax+536]
  0016a	d1 e9		 shr	 ecx, 1
  0016c	83 e1 01	 and	 ecx, 1
  0016f	0f 85 9d 02 00
	00		 jne	 $LN79@gObjMonste@11
  00175	8b 45 08	 mov	 eax, DWORD PTR _lpObj$[ebp]
  00178	0f be 88 8c 01
	00 00		 movsx	 ecx, BYTE PTR [eax+396]
  0017f	85 c9		 test	 ecx, ecx
  00181	0f 85 8b 02 00
	00		 jne	 $LN79@gObjMonste@11

; 877  : 			{
; 878  : 				if ( OBJMAX_RANGE(aIndex) )

  00187	83 7d 10 00	 cmp	 DWORD PTR _aIndex$[ebp], 0
  0018b	7d 0c		 jge	 SHORT $LN94@gObjMonste@11
  0018d	c7 85 74 ff ff
	ff 00 00 00 00	 mov	 DWORD PTR tv165[ebp], 0
  00197	eb 12		 jmp	 SHORT $LN95@gObjMonste@11
$LN94@gObjMonste@11:
  00199	33 c0		 xor	 eax, eax
  0019b	81 7d 10 97 3a
	00 00		 cmp	 DWORD PTR _aIndex$[ebp], 14999 ; 00003a97H
  001a2	0f 9e c0	 setle	 al
  001a5	89 85 74 ff ff
	ff		 mov	 DWORD PTR tv165[ebp], eax
$LN95@gObjMonste@11:
  001ab	83 bd 74 ff ff
	ff 00		 cmp	 DWORD PTR tv165[ebp], 0
  001b2	0f 84 55 02 00
	00		 je	 $LN57@gObjMonste@11

; 879  : 				{
; 880  : 					int map = gObj[aIndex].MapNumber;

  001b8	8b 45 10	 mov	 eax, DWORD PTR _aIndex$[ebp]
  001bb	69 c0 38 2b 00
	00		 imul	 eax, 11064		; 00002b38H
  001c1	8b 0d 00 00 00
	00		 mov	 ecx, DWORD PTR ?gObj@@3PAUOBJECTSTRUCT@@A ; gObj
  001c7	0f b6 94 01 49
	01 00 00	 movzx	 edx, BYTE PTR [ecx+eax+329]
  001cf	89 55 f8	 mov	 DWORD PTR _map$246564[ebp], edx

; 881  : 					BYTE attr;
; 882  : 					int dis = gObjCalDistance(lpObj, &gObj[aIndex]);

  001d2	8b 45 10	 mov	 eax, DWORD PTR _aIndex$[ebp]
  001d5	69 c0 38 2b 00
	00		 imul	 eax, 11064		; 00002b38H
  001db	03 05 00 00 00
	00		 add	 eax, DWORD PTR ?gObj@@3PAUOBJECTSTRUCT@@A ; gObj
  001e1	50		 push	 eax
  001e2	8b 4d 08	 mov	 ecx, DWORD PTR _lpObj$[ebp]
  001e5	51		 push	 ecx
  001e6	e8 00 00 00 00	 call	 ?gObjCalDistance@@YAHPAUOBJECTSTRUCT@@0@Z ; gObjCalDistance
  001eb	83 c4 08	 add	 esp, 8
  001ee	89 45 f0	 mov	 DWORD PTR _dis$246566[ebp], eax

; 883  : 					int range;
; 884  : 
; 885  : 					if ( lpObj->m_AttackType >= 100 )

  001f1	8b 45 08	 mov	 eax, DWORD PTR _lpObj$[ebp]
  001f4	0f bf 88 b2 04
	00 00		 movsx	 ecx, WORD PTR [eax+1202]
  001fb	83 f9 64	 cmp	 ecx, 100		; 00000064H
  001fe	7c 12		 jl	 SHORT $LN77@gObjMonste@11

; 886  : 					{
; 887  : 						range = lpObj->m_AttackRange +2;

  00200	8b 45 08	 mov	 eax, DWORD PTR _lpObj$[ebp]
  00203	0f bf 88 b0 04
	00 00		 movsx	 ecx, WORD PTR [eax+1200]
  0020a	83 c1 02	 add	 ecx, 2
  0020d	89 4d ec	 mov	 DWORD PTR _range$246567[ebp], ecx

; 888  : 					}
; 889  : 					else

  00210	eb 0d		 jmp	 SHORT $LN76@gObjMonste@11
$LN77@gObjMonste@11:

; 890  : 					{
; 891  : 						range = lpObj->m_AttackRange;

  00212	8b 45 08	 mov	 eax, DWORD PTR _lpObj$[ebp]
  00215	0f bf 88 b0 04
	00 00		 movsx	 ecx, WORD PTR [eax+1200]
  0021c	89 4d ec	 mov	 DWORD PTR _range$246567[ebp], ecx
$LN76@gObjMonste@11:

; 892  : 					}
; 893  : 
; 894  : 					if ( dis <= range )

  0021f	8b 45 f0	 mov	 eax, DWORD PTR _dis$246566[ebp]
  00222	3b 45 ec	 cmp	 eax, DWORD PTR _range$246567[ebp]
  00225	0f 8f b8 00 00
	00		 jg	 $LN75@gObjMonste@11

; 895  : 					{
; 896  : 						if ( gObj[aIndex].m_RecallMon >= 0 )

  0022b	8b 45 10	 mov	 eax, DWORD PTR _aIndex$[ebp]
  0022e	69 c0 38 2b 00
	00		 imul	 eax, 11064		; 00002b38H
  00234	8b 0d 00 00 00
	00		 mov	 ecx, DWORD PTR ?gObj@@3PAUOBJECTSTRUCT@@A ; gObj
  0023a	83 bc 01 50 04
	00 00 00	 cmp	 DWORD PTR [ecx+eax+1104], 0
  00242	7c 45		 jl	 SHORT $LN74@gObjMonste@11

; 897  : 						{
; 898  : 							if ( lpObj->m_RecallMon >= 0 )

  00244	8b 45 08	 mov	 eax, DWORD PTR _lpObj$[ebp]
  00247	83 b8 50 04 00
	00 00		 cmp	 DWORD PTR [eax+1104], 0
  0024e	7c 29		 jl	 SHORT $LN73@gObjMonste@11

; 899  : 							{
; 900  : 								if ( gObj[aIndex].Type == OBJ_MONSTER )

  00250	8b 45 10	 mov	 eax, DWORD PTR _aIndex$[ebp]
  00253	69 c0 38 2b 00
	00		 imul	 eax, 11064		; 00002b38H
  00259	8b 0d 00 00 00
	00		 mov	 ecx, DWORD PTR ?gObj@@3PAUOBJECTSTRUCT@@A ; gObj
  0025f	0f b7 54 01 68	 movzx	 edx, WORD PTR [ecx+eax+104]
  00264	83 fa 02	 cmp	 edx, 2
  00267	75 0e		 jne	 SHORT $LN72@gObjMonste@11

; 901  : 								{
; 902  : 									lpObj->TargetNumber = aIndex;

  00269	8b 45 08	 mov	 eax, DWORD PTR _lpObj$[ebp]
  0026c	66 8b 4d 10	 mov	 cx, WORD PTR _aIndex$[ebp]
  00270	66 89 88 58 04
	00 00		 mov	 WORD PTR [eax+1112], cx
$LN72@gObjMonste@11:

; 903  : 								}
; 904  : 							}
; 905  : 							else

  00277	eb 0e		 jmp	 SHORT $LN71@gObjMonste@11
$LN73@gObjMonste@11:

; 906  : 							{
; 907  : 								lpObj->TargetNumber = aIndex;

  00279	8b 45 08	 mov	 eax, DWORD PTR _lpObj$[ebp]
  0027c	66 8b 4d 10	 mov	 cx, WORD PTR _aIndex$[ebp]
  00280	66 89 88 58 04
	00 00		 mov	 WORD PTR [eax+1112], cx
$LN71@gObjMonste@11:

; 908  : 							}

  00287	eb 55		 jmp	 SHORT $LN66@gObjMonste@11
$LN74@gObjMonste@11:

; 909  : 						}
; 910  : 						else if ( (rand()%100) < 90 )

  00289	e8 00 00 00 00	 call	 _rand
  0028e	99		 cdq
  0028f	b9 64 00 00 00	 mov	 ecx, 100		; 00000064H
  00294	f7 f9		 idiv	 ecx
  00296	83 fa 5a	 cmp	 edx, 90			; 0000005aH
  00299	7d 43		 jge	 SHORT $LN66@gObjMonste@11

; 911  : 						{
; 912  : 							if ( lpObj->m_RecallMon >= 0 )

  0029b	8b 45 08	 mov	 eax, DWORD PTR _lpObj$[ebp]
  0029e	83 b8 50 04 00
	00 00		 cmp	 DWORD PTR [eax+1104], 0
  002a5	7c 29		 jl	 SHORT $LN68@gObjMonste@11

; 913  : 							{
; 914  : 								if ( gObj[aIndex].Type == OBJ_MONSTER )

  002a7	8b 45 10	 mov	 eax, DWORD PTR _aIndex$[ebp]
  002aa	69 c0 38 2b 00
	00		 imul	 eax, 11064		; 00002b38H
  002b0	8b 0d 00 00 00
	00		 mov	 ecx, DWORD PTR ?gObj@@3PAUOBJECTSTRUCT@@A ; gObj
  002b6	0f b7 54 01 68	 movzx	 edx, WORD PTR [ecx+eax+104]
  002bb	83 fa 02	 cmp	 edx, 2
  002be	75 0e		 jne	 SHORT $LN67@gObjMonste@11

; 915  : 								{
; 916  : 									lpObj->TargetNumber = aIndex;

  002c0	8b 45 08	 mov	 eax, DWORD PTR _lpObj$[ebp]
  002c3	66 8b 4d 10	 mov	 cx, WORD PTR _aIndex$[ebp]
  002c7	66 89 88 58 04
	00 00		 mov	 WORD PTR [eax+1112], cx
$LN67@gObjMonste@11:

; 917  : 								}
; 918  : 							}
; 919  : 							else

  002ce	eb 0e		 jmp	 SHORT $LN66@gObjMonste@11
$LN68@gObjMonste@11:

; 920  : 							{
; 921  : 								lpObj->TargetNumber = aIndex;

  002d0	8b 45 08	 mov	 eax, DWORD PTR _lpObj$[ebp]
  002d3	66 8b 4d 10	 mov	 cx, WORD PTR _aIndex$[ebp]
  002d7	66 89 88 58 04
	00 00		 mov	 WORD PTR [eax+1112], cx
$LN66@gObjMonste@11:

; 922  : 							}
; 923  : 						}
; 924  : 					}
; 925  : 					else

  002de	e9 d6 00 00 00	 jmp	 $LN60@gObjMonste@11
$LN75@gObjMonste@11:

; 926  : 					{
; 927  : #ifdef IMPERIAL_CONFLICT_NEW
; 928  : 					if ( CImperialGuardian::IsEventMap(lpObj->MapNumber) )
; 929  : 					{
; 930  : 						if ( lpObj->Class >= 504 && lpObj->Class <= 521 )
; 931  : 							g_ImperialGuardian.SetTargetMoveAllMonster(lpObj->m_ImperialZoneID, aIndex);
; 932  : 					}
; 933  : 					else
; 934  : #endif
; 935  : 					{
; 936  : 						BYTE wall = 0;

  002e3	c6 45 eb 00	 mov	 BYTE PTR _wall$246581[ebp], 0

; 937  : 
; 938  : 						wall = MapC[map].CheckWall2(lpObj->X, lpObj->Y, gObj[aIndex].X, gObj[aIndex].Y);

  002e7	8b 45 10	 mov	 eax, DWORD PTR _aIndex$[ebp]
  002ea	69 c0 38 2b 00
	00		 imul	 eax, 11064		; 00002b38H
  002f0	8b 0d 00 00 00
	00		 mov	 ecx, DWORD PTR ?gObj@@3PAUOBJECTSTRUCT@@A ; gObj
  002f6	0f bf 94 01 46
	01 00 00	 movsx	 edx, WORD PTR [ecx+eax+326]
  002fe	52		 push	 edx
  002ff	8b 45 10	 mov	 eax, DWORD PTR _aIndex$[ebp]
  00302	69 c0 38 2b 00
	00		 imul	 eax, 11064		; 00002b38H
  00308	8b 0d 00 00 00
	00		 mov	 ecx, DWORD PTR ?gObj@@3PAUOBJECTSTRUCT@@A ; gObj
  0030e	0f bf 94 01 44
	01 00 00	 movsx	 edx, WORD PTR [ecx+eax+324]
  00316	52		 push	 edx
  00317	8b 45 08	 mov	 eax, DWORD PTR _lpObj$[ebp]
  0031a	0f bf 88 46 01
	00 00		 movsx	 ecx, WORD PTR [eax+326]
  00321	51		 push	 ecx
  00322	8b 55 08	 mov	 edx, DWORD PTR _lpObj$[ebp]
  00325	0f bf 82 44 01
	00 00		 movsx	 eax, WORD PTR [edx+324]
  0032c	50		 push	 eax
  0032d	8b 4d f8	 mov	 ecx, DWORD PTR _map$246564[ebp]
  00330	69 c9 b8 3d 05
	00		 imul	 ecx, 343480		; 00053db8H
  00336	81 c1 00 00 00
	00		 add	 ecx, OFFSET ?MapC@@3PAVMapClass@@A ; MapC
  0033c	e8 00 00 00 00	 call	 ?CheckWall2@MapClass@@QAEEHHHH@Z ; MapClass::CheckWall2
  00341	88 45 eb	 mov	 BYTE PTR _wall$246581[ebp], al

; 939  : 
; 940  : 						if ( wall == 1 )

  00344	0f b6 45 eb	 movzx	 eax, BYTE PTR _wall$246581[ebp]
  00348	83 f8 01	 cmp	 eax, 1
  0034b	75 6c		 jne	 SHORT $LN64@gObjMonste@11

; 941  : 						{
; 942  : 							attr = MapC[map].GetAttr(gObj[aIndex].X, gObj[aIndex].Y);

  0034d	8b 45 10	 mov	 eax, DWORD PTR _aIndex$[ebp]
  00350	69 c0 38 2b 00
	00		 imul	 eax, 11064		; 00002b38H
  00356	8b 0d 00 00 00
	00		 mov	 ecx, DWORD PTR ?gObj@@3PAUOBJECTSTRUCT@@A ; gObj
  0035c	0f bf 94 01 46
	01 00 00	 movsx	 edx, WORD PTR [ecx+eax+326]
  00364	52		 push	 edx
  00365	8b 45 10	 mov	 eax, DWORD PTR _aIndex$[ebp]
  00368	69 c0 38 2b 00
	00		 imul	 eax, 11064		; 00002b38H
  0036e	8b 0d 00 00 00
	00		 mov	 ecx, DWORD PTR ?gObj@@3PAUOBJECTSTRUCT@@A ; gObj
  00374	0f bf 94 01 44
	01 00 00	 movsx	 edx, WORD PTR [ecx+eax+324]
  0037c	52		 push	 edx
  0037d	8b 4d f8	 mov	 ecx, DWORD PTR _map$246564[ebp]
  00380	69 c9 b8 3d 05
	00		 imul	 ecx, 343480		; 00053db8H
  00386	81 c1 00 00 00
	00		 add	 ecx, OFFSET ?MapC@@3PAVMapClass@@A ; MapC
  0038c	e8 00 00 00 00	 call	 ?GetAttr@MapClass@@QAEEHH@Z ; MapClass::GetAttr
  00391	88 45 f7	 mov	 BYTE PTR _attr$246565[ebp], al

; 943  : 
; 944  : 							if ( (attr&1) != 1 )

  00394	0f b6 45 f7	 movzx	 eax, BYTE PTR _attr$246565[ebp]
  00398	83 e0 01	 and	 eax, 1
  0039b	75 1c		 jne	 SHORT $LN62@gObjMonste@11

; 945  : 							{
; 946  : 								if ( lpObj->TargetNumber < 0 )

  0039d	8b 45 08	 mov	 eax, DWORD PTR _lpObj$[ebp]
  003a0	0f bf 88 58 04
	00 00		 movsx	 ecx, WORD PTR [eax+1112]
  003a7	85 c9		 test	 ecx, ecx
  003a9	7d 0e		 jge	 SHORT $LN62@gObjMonste@11

; 947  : 								{
; 948  : 									lpObj->TargetNumber = aIndex;

  003ab	8b 45 08	 mov	 eax, DWORD PTR _lpObj$[ebp]
  003ae	66 8b 4d 10	 mov	 cx, WORD PTR _aIndex$[ebp]
  003b2	66 89 88 58 04
	00 00		 mov	 WORD PTR [eax+1112], cx
$LN62@gObjMonste@11:
$LN64@gObjMonste@11:
$LN60@gObjMonste@11:

; 949  : 								}
; 950  : 							}
; 951  : 						}
; 952  : 						else if( wall == 0x02 ) //   ..
; 953  : 						{
; 954  : 						}
; 955  : 						else {	//    ..
; 956  : 							//lpObj->TargetNumber = aIndex;	//  	
; 957  : 						}
; 958  : 					}	
; 959  : 					}
; 960  : 
; 961  : 
; 962  : 					if ( lpObj->m_bIsInMonsterHerd != false && lpObj->TargetNumber == aIndex )

  003b9	8b 45 08	 mov	 eax, DWORD PTR _lpObj$[ebp]
  003bc	83 b8 e8 10 00
	00 00		 cmp	 DWORD PTR [eax+4328], 0
  003c3	74 48		 je	 SHORT $LN57@gObjMonste@11
  003c5	8b 45 08	 mov	 eax, DWORD PTR _lpObj$[ebp]
  003c8	0f bf 88 58 04
	00 00		 movsx	 ecx, WORD PTR [eax+1112]
  003cf	3b 4d 10	 cmp	 ecx, DWORD PTR _aIndex$[ebp]
  003d2	75 39		 jne	 SHORT $LN57@gObjMonste@11

; 963  : 					{
; 964  : 						if ( lpObj->m_lpMonsterHerd )

  003d4	8b 45 08	 mov	 eax, DWORD PTR _lpObj$[ebp]
  003d7	83 b8 f0 10 00
	00 00		 cmp	 DWORD PTR [eax+4336], 0
  003de	74 2d		 je	 SHORT $LN57@gObjMonste@11

; 965  : 						{
; 966  : 							lpObj->m_lpMonsterHerd->BeenAttacked (lpObj, &gObj[aIndex]);

  003e0	8b 45 10	 mov	 eax, DWORD PTR _aIndex$[ebp]
  003e3	69 c0 38 2b 00
	00		 imul	 eax, 11064		; 00002b38H
  003e9	03 05 00 00 00
	00		 add	 eax, DWORD PTR ?gObj@@3PAUOBJECTSTRUCT@@A ; gObj
  003ef	50		 push	 eax
  003f0	8b 4d 08	 mov	 ecx, DWORD PTR _lpObj$[ebp]
  003f3	51		 push	 ecx
  003f4	8b 55 08	 mov	 edx, DWORD PTR _lpObj$[ebp]
  003f7	8b 82 f0 10 00
	00		 mov	 eax, DWORD PTR [edx+4336]
  003fd	8b 4d 08	 mov	 ecx, DWORD PTR _lpObj$[ebp]
  00400	8b 89 f0 10 00
	00		 mov	 ecx, DWORD PTR [ecx+4336]
  00406	8b 10		 mov	 edx, DWORD PTR [eax]
  00408	8b 42 38	 mov	 eax, DWORD PTR [edx+56]
  0040b	ff d0		 call	 eax
$LN57@gObjMonste@11:

; 967  : 						}
; 968  : 					}
; 969  : 				}
; 970  : 			}
; 971  : 			else

  0040d	e9 ff 01 00 00	 jmp	 $LN46@gObjMonste@11
$LN79@gObjMonste@11:

; 972  : 			{
; 973  : 				if ( (rand() % 2 )== 1 && lpObj->PathStartEnd == 0)

  00412	e8 00 00 00 00	 call	 _rand
  00417	25 01 00 00 80	 and	 eax, -2147483647	; 80000001H
  0041c	79 05		 jns	 SHORT $LN113@gObjMonste@11
  0041e	48		 dec	 eax
  0041f	83 c8 fe	 or	 eax, -2			; fffffffeH
  00422	40		 inc	 eax
$LN113@gObjMonste@11:
  00423	83 f8 01	 cmp	 eax, 1
  00426	0f 85 6f 01 00
	00		 jne	 $LN55@gObjMonste@11
  0042c	8b 45 08	 mov	 eax, DWORD PTR _lpObj$[ebp]
  0042f	0f be 88 8c 01
	00 00		 movsx	 ecx, BYTE PTR [eax+396]
  00436	85 c9		 test	 ecx, ecx
  00438	0f 85 5d 01 00
	00		 jne	 $LN55@gObjMonste@11

; 974  : 				{
; 975  : 					int IndexEnemy = lpObj->TargetNumber;

  0043e	8b 45 08	 mov	 eax, DWORD PTR _lpObj$[ebp]
  00441	0f bf 88 58 04
	00 00		 movsx	 ecx, WORD PTR [eax+1112]
  00448	89 4d e4	 mov	 DWORD PTR _IndexEnemy$246592[ebp], ecx

; 976  : 
; 977  : 					if ( !OBJMAX_RANGE(IndexEnemy) )//Season 4.5 addon

  0044b	83 7d e4 00	 cmp	 DWORD PTR _IndexEnemy$246592[ebp], 0
  0044f	7d 0c		 jge	 SHORT $LN96@gObjMonste@11
  00451	c7 85 74 ff ff
	ff 00 00 00 00	 mov	 DWORD PTR tv284[ebp], 0
  0045b	eb 12		 jmp	 SHORT $LN97@gObjMonste@11
$LN96@gObjMonste@11:
  0045d	33 c0		 xor	 eax, eax
  0045f	81 7d e4 97 3a
	00 00		 cmp	 DWORD PTR _IndexEnemy$246592[ebp], 14999 ; 00003a97H
  00466	0f 9e c0	 setle	 al
  00469	89 85 74 ff ff
	ff		 mov	 DWORD PTR tv284[ebp], eax
$LN97@gObjMonste@11:
  0046f	83 bd 74 ff ff
	ff 00		 cmp	 DWORD PTR tv284[ebp], 0
  00476	75 05		 jne	 SHORT $LN54@gObjMonste@11

; 978  : 					{
; 979  : 						return;

  00478	e9 3e 0b 00 00	 jmp	 $LN92@gObjMonste@11
$LN54@gObjMonste@11:

; 980  : 					}
; 981  : 
; 982  : 					int EnemyMap = gObj[IndexEnemy].MapNumber;

  0047d	8b 45 e4	 mov	 eax, DWORD PTR _IndexEnemy$246592[ebp]
  00480	69 c0 38 2b 00
	00		 imul	 eax, 11064		; 00002b38H
  00486	8b 0d 00 00 00
	00		 mov	 ecx, DWORD PTR ?gObj@@3PAUOBJECTSTRUCT@@A ; gObj
  0048c	0f b6 94 01 49
	01 00 00	 movzx	 edx, BYTE PTR [ecx+eax+329]
  00494	89 55 e0	 mov	 DWORD PTR _EnemyMap$246594[ebp], edx

; 983  : 
; 984  : 					int enemydis = gObjCalDistance(lpObj, &gObj[aIndex]);

  00497	8b 45 10	 mov	 eax, DWORD PTR _aIndex$[ebp]
  0049a	69 c0 38 2b 00
	00		 imul	 eax, 11064		; 00002b38H
  004a0	03 05 00 00 00
	00		 add	 eax, DWORD PTR ?gObj@@3PAUOBJECTSTRUCT@@A ; gObj
  004a6	50		 push	 eax
  004a7	8b 4d 08	 mov	 ecx, DWORD PTR _lpObj$[ebp]
  004aa	51		 push	 ecx
  004ab	e8 00 00 00 00	 call	 ?gObjCalDistance@@YAHPAUOBJECTSTRUCT@@0@Z ; gObjCalDistance
  004b0	83 c4 08	 add	 esp, 8
  004b3	89 45 dc	 mov	 DWORD PTR _enemydis$246595[ebp], eax

; 985  : 					int range;
; 986  : 
; 987  : 					if ( lpObj->m_AttackType >= 100 )

  004b6	8b 45 08	 mov	 eax, DWORD PTR _lpObj$[ebp]
  004b9	0f bf 88 b2 04
	00 00		 movsx	 ecx, WORD PTR [eax+1202]
  004c0	83 f9 64	 cmp	 ecx, 100		; 00000064H
  004c3	7c 12		 jl	 SHORT $LN53@gObjMonste@11

; 988  : 					{
; 989  : 						range = lpObj->m_AttackRange + 2;

  004c5	8b 45 08	 mov	 eax, DWORD PTR _lpObj$[ebp]
  004c8	0f bf 88 b0 04
	00 00		 movsx	 ecx, WORD PTR [eax+1200]
  004cf	83 c1 02	 add	 ecx, 2
  004d2	89 4d d8	 mov	 DWORD PTR _range$246596[ebp], ecx

; 990  : 					}
; 991  : 					else

  004d5	eb 0d		 jmp	 SHORT $LN52@gObjMonste@11
$LN53@gObjMonste@11:

; 992  : 					{
; 993  : 						range = lpObj->m_AttackRange;

  004d7	8b 45 08	 mov	 eax, DWORD PTR _lpObj$[ebp]
  004da	0f bf 88 b0 04
	00 00		 movsx	 ecx, WORD PTR [eax+1200]
  004e1	89 4d d8	 mov	 DWORD PTR _range$246596[ebp], ecx
$LN52@gObjMonste@11:

; 994  : 					}
; 995  : 
; 996  : 					if ( enemydis <= range )

  004e4	8b 45 dc	 mov	 eax, DWORD PTR _enemydis$246595[ebp]
  004e7	3b 45 d8	 cmp	 eax, DWORD PTR _range$246596[ebp]
  004ea	7f 28		 jg	 SHORT $LN51@gObjMonste@11

; 997  : 					{
; 998  : 						lpObj->m_ActState.Attack = 1;

  004ec	8b 45 08	 mov	 eax, DWORD PTR _lpObj$[ebp]
  004ef	8b 88 18 02 00
	00		 mov	 ecx, DWORD PTR [eax+536]
  004f5	83 c9 02	 or	 ecx, 2
  004f8	8b 55 08	 mov	 edx, DWORD PTR _lpObj$[ebp]
  004fb	89 8a 18 02 00
	00		 mov	 DWORD PTR [edx+536], ecx

; 999  : 						lpObj->TargetNumber = aIndex;

  00501	8b 45 08	 mov	 eax, DWORD PTR _lpObj$[ebp]
  00504	66 8b 4d 10	 mov	 cx, WORD PTR _aIndex$[ebp]
  00508	66 89 88 58 04
	00 00		 mov	 WORD PTR [eax+1112], cx

; 1000 : 					}
; 1001 : 					else

  0050f	e9 85 00 00 00	 jmp	 $LN49@gObjMonste@11
$LN51@gObjMonste@11:

; 1002 : 					{
; 1003 : 						if ( MapC[EnemyMap].CheckWall2(lpObj->X, lpObj->Y, gObj[IndexEnemy].X, gObj[IndexEnemy].Y) == 1 )

  00514	8b 45 e4	 mov	 eax, DWORD PTR _IndexEnemy$246592[ebp]
  00517	69 c0 38 2b 00
	00		 imul	 eax, 11064		; 00002b38H
  0051d	8b 0d 00 00 00
	00		 mov	 ecx, DWORD PTR ?gObj@@3PAUOBJECTSTRUCT@@A ; gObj
  00523	0f bf 94 01 46
	01 00 00	 movsx	 edx, WORD PTR [ecx+eax+326]
  0052b	52		 push	 edx
  0052c	8b 45 e4	 mov	 eax, DWORD PTR _IndexEnemy$246592[ebp]
  0052f	69 c0 38 2b 00
	00		 imul	 eax, 11064		; 00002b38H
  00535	8b 0d 00 00 00
	00		 mov	 ecx, DWORD PTR ?gObj@@3PAUOBJECTSTRUCT@@A ; gObj
  0053b	0f bf 94 01 44
	01 00 00	 movsx	 edx, WORD PTR [ecx+eax+324]
  00543	52		 push	 edx
  00544	8b 45 08	 mov	 eax, DWORD PTR _lpObj$[ebp]
  00547	0f bf 88 46 01
	00 00		 movsx	 ecx, WORD PTR [eax+326]
  0054e	51		 push	 ecx
  0054f	8b 55 08	 mov	 edx, DWORD PTR _lpObj$[ebp]
  00552	0f bf 82 44 01
	00 00		 movsx	 eax, WORD PTR [edx+324]
  00559	50		 push	 eax
  0055a	8b 4d e0	 mov	 ecx, DWORD PTR _EnemyMap$246594[ebp]
  0055d	69 c9 b8 3d 05
	00		 imul	 ecx, 343480		; 00053db8H
  00563	81 c1 00 00 00
	00		 add	 ecx, OFFSET ?MapC@@3PAVMapClass@@A ; MapC
  00569	e8 00 00 00 00	 call	 ?CheckWall2@MapClass@@QAEEHHHH@Z ; MapClass::CheckWall2
  0056e	0f b6 c8	 movzx	 ecx, al
  00571	83 f9 01	 cmp	 ecx, 1
  00574	75 23		 jne	 SHORT $LN49@gObjMonste@11

; 1004 : 						{
; 1005 : 							lpObj->m_ActState.Attack = 1;

  00576	8b 45 08	 mov	 eax, DWORD PTR _lpObj$[ebp]
  00579	8b 88 18 02 00
	00		 mov	 ecx, DWORD PTR [eax+536]
  0057f	83 c9 02	 or	 ecx, 2
  00582	8b 55 08	 mov	 edx, DWORD PTR _lpObj$[ebp]
  00585	89 8a 18 02 00
	00		 mov	 DWORD PTR [edx+536], ecx

; 1006 : 							lpObj->TargetNumber = aIndex;

  0058b	8b 45 08	 mov	 eax, DWORD PTR _lpObj$[ebp]
  0058e	66 8b 4d 10	 mov	 cx, WORD PTR _aIndex$[ebp]
  00592	66 89 88 58 04
	00 00		 mov	 WORD PTR [eax+1112], cx
$LN49@gObjMonste@11:

; 1007 : 						}
; 1008 : 					}
; 1009 : 				}
; 1010 : 				else

  00599	eb 76		 jmp	 SHORT $LN46@gObjMonste@11
$LN55@gObjMonste@11:

; 1011 : 				{
; 1012 : 					int MaxLife = (int)lpObj->MaxLife;

  0059b	8b 45 08	 mov	 eax, DWORD PTR _lpObj$[ebp]
  0059e	d9 80 00 01 00
	00		 fld	 DWORD PTR [eax+256]
  005a4	e8 00 00 00 00	 call	 __ftol2_sse
  005a9	89 45 d4	 mov	 DWORD PTR _MaxLife$246603[ebp], eax

; 1013 : 					MaxLife >>= 1;

  005ac	8b 45 d4	 mov	 eax, DWORD PTR _MaxLife$246603[ebp]
  005af	d1 f8		 sar	 eax, 1
  005b1	89 45 d4	 mov	 DWORD PTR _MaxLife$246603[ebp], eax

; 1014 : 
; 1015 : 					if ( MaxLife > lpObj->Life )

  005b4	db 45 d4	 fild	 DWORD PTR _MaxLife$246603[ebp]
  005b7	8b 45 08	 mov	 eax, DWORD PTR _lpObj$[ebp]
  005ba	d9 80 fc 00 00
	00		 fld	 DWORD PTR [eax+252]
  005c0	de d9		 fcompp
  005c2	df e0		 fnstsw	 ax
  005c4	f6 c4 05	 test	 ah, 5
  005c7	7a 48		 jp	 SHORT $LN46@gObjMonste@11

; 1016 : 					{
; 1017 : 						if ( lpObj->m_Attribute != 2 )

  005c9	8b 45 08	 mov	 eax, DWORD PTR _lpObj$[ebp]
  005cc	0f bf 88 b6 04
	00 00		 movsx	 ecx, WORD PTR [eax+1206]
  005d3	83 f9 02	 cmp	 ecx, 2
  005d6	74 39		 je	 SHORT $LN46@gObjMonste@11

; 1018 : 						{
; 1019 : 							lpObj->m_ActState.Emotion = 2;

  005d8	8b 45 08	 mov	 eax, DWORD PTR _lpObj$[ebp]
  005db	8b 88 18 02 00
	00		 mov	 ecx, DWORD PTR [eax+536]
  005e1	81 e1 0f ff ff
	ff		 and	 ecx, -241		; ffffff0fH
  005e7	83 c9 20	 or	 ecx, 32			; 00000020H
  005ea	8b 55 08	 mov	 edx, DWORD PTR _lpObj$[ebp]
  005ed	89 8a 18 02 00
	00		 mov	 DWORD PTR [edx+536], ecx

; 1020 : 							lpObj->m_ActState.EmotionCount = 2;

  005f3	8b 45 08	 mov	 eax, DWORD PTR _lpObj$[ebp]
  005f6	8b 88 18 02 00
	00		 mov	 ecx, DWORD PTR [eax+536]
  005fc	81 e1 ff 00 ff
	ff		 and	 ecx, -65281		; ffff00ffH
  00602	81 c9 00 02 00
	00		 or	 ecx, 512		; 00000200H
  00608	8b 55 08	 mov	 edx, DWORD PTR _lpObj$[ebp]
  0060b	89 8a 18 02 00
	00		 mov	 DWORD PTR [edx+536], ecx
$LN46@gObjMonste@11:

; 1021 : 						}
; 1022 : 					}
; 1023 : 				}
; 1024 : 			}
; 1025 : 			break;

  00611	e9 a5 09 00 00	 jmp	 $LN87@gObjMonste@11
$LN45@gObjMonste@11:

; 1026 : 		case 1:
; 1027 : //#if(GS_CASTLE == 1)
; 1028 : 			if(lpObj->m_btCsNpcType != 0) //ok

  00616	8b 45 08	 mov	 eax, DWORD PTR _lpObj$[ebp]
  00619	0f b6 88 f8 1b
	00 00		 movzx	 ecx, BYTE PTR [eax+7160]
  00620	85 c9		 test	 ecx, ecx
  00622	0f 84 09 01 00
	00		 je	 $LN44@gObjMonste@11

; 1029 : 			{
; 1030 : 				switch(lpObj->m_btCsNpcType)

  00628	8b 45 08	 mov	 eax, DWORD PTR _lpObj$[ebp]
  0062b	8a 88 f8 1b 00
	00		 mov	 cl, BYTE PTR [eax+7160]
  00631	88 8d 74 ff ff
	ff		 mov	 BYTE PTR tv362[ebp], cl
  00637	80 bd 74 ff ff
	ff 01		 cmp	 BYTE PTR tv362[ebp], 1
  0063e	74 14		 je	 SHORT $LN41@gObjMonste@11
  00640	80 bd 74 ff ff
	ff 02		 cmp	 BYTE PTR tv362[ebp], 2
  00647	74 34		 je	 SHORT $LN40@gObjMonste@11
  00649	80 bd 74 ff ff
	ff 03		 cmp	 BYTE PTR tv362[ebp], 3
  00650	74 54		 je	 SHORT $LN39@gObjMonste@11
  00652	eb 79		 jmp	 SHORT $LN42@gObjMonste@11
$LN41@gObjMonste@11:

; 1031 : 				{
; 1032 : 					case 1:
; 1033 : 						g_CastleSiege.DelNPC(lpObj->m_Index,lpObj->Class,lpObj->m_iCsNpcExistVal,1);

  00654	6a 01		 push	 1
  00656	8b 45 08	 mov	 eax, DWORD PTR _lpObj$[ebp]
  00659	8b 88 f4 1b 00
	00		 mov	 ecx, DWORD PTR [eax+7156]
  0065f	51		 push	 ecx
  00660	8b 55 08	 mov	 edx, DWORD PTR _lpObj$[ebp]
  00663	0f b7 82 b8 00
	00 00		 movzx	 eax, WORD PTR [edx+184]
  0066a	50		 push	 eax
  0066b	8b 4d 08	 mov	 ecx, DWORD PTR _lpObj$[ebp]
  0066e	8b 11		 mov	 edx, DWORD PTR [ecx]
  00670	52		 push	 edx
  00671	b9 00 00 00 00	 mov	 ecx, OFFSET ?g_CastleSiege@@3VCCastleSiege@@A ; g_CastleSiege
  00676	e8 00 00 00 00	 call	 ?DelNPC@CCastleSiege@@QAEHHHHH@Z ; CCastleSiege::DelNPC

; 1034 : 						break;

  0067b	eb 50		 jmp	 SHORT $LN42@gObjMonste@11
$LN40@gObjMonste@11:

; 1035 : 					case 2:
; 1036 : 						g_CastleSiege.DelNPC(lpObj->m_Index,lpObj->Class,lpObj->m_iCsNpcExistVal,0);

  0067d	6a 00		 push	 0
  0067f	8b 45 08	 mov	 eax, DWORD PTR _lpObj$[ebp]
  00682	8b 88 f4 1b 00
	00		 mov	 ecx, DWORD PTR [eax+7156]
  00688	51		 push	 ecx
  00689	8b 55 08	 mov	 edx, DWORD PTR _lpObj$[ebp]
  0068c	0f b7 82 b8 00
	00 00		 movzx	 eax, WORD PTR [edx+184]
  00693	50		 push	 eax
  00694	8b 4d 08	 mov	 ecx, DWORD PTR _lpObj$[ebp]
  00697	8b 11		 mov	 edx, DWORD PTR [ecx]
  00699	52		 push	 edx
  0069a	b9 00 00 00 00	 mov	 ecx, OFFSET ?g_CastleSiege@@3VCCastleSiege@@A ; g_CastleSiege
  0069f	e8 00 00 00 00	 call	 ?DelNPC@CCastleSiege@@QAEHHHHH@Z ; CCastleSiege::DelNPC

; 1037 : 						break;

  006a4	eb 27		 jmp	 SHORT $LN42@gObjMonste@11
$LN39@gObjMonste@11:

; 1038 : 					case 3:
; 1039 : 						g_CastleSiege.DelNPC(lpObj->m_Index,lpObj->Class,lpObj->m_iCsNpcExistVal,0);

  006a6	6a 00		 push	 0
  006a8	8b 45 08	 mov	 eax, DWORD PTR _lpObj$[ebp]
  006ab	8b 88 f4 1b 00
	00		 mov	 ecx, DWORD PTR [eax+7156]
  006b1	51		 push	 ecx
  006b2	8b 55 08	 mov	 edx, DWORD PTR _lpObj$[ebp]
  006b5	0f b7 82 b8 00
	00 00		 movzx	 eax, WORD PTR [edx+184]
  006bc	50		 push	 eax
  006bd	8b 4d 08	 mov	 ecx, DWORD PTR _lpObj$[ebp]
  006c0	8b 11		 mov	 edx, DWORD PTR [ecx]
  006c2	52		 push	 edx
  006c3	b9 00 00 00 00	 mov	 ecx, OFFSET ?g_CastleSiege@@3VCCastleSiege@@A ; g_CastleSiege
  006c8	e8 00 00 00 00	 call	 ?DelNPC@CCastleSiege@@QAEHHHHH@Z ; CCastleSiege::DelNPC
$LN42@gObjMonste@11:

; 1040 : 						break;
; 1041 : 				}
; 1042 : 				if( lpObj->Class == 287 || lpObj->Class == 286)

  006cd	8b 45 08	 mov	 eax, DWORD PTR _lpObj$[ebp]
  006d0	0f b7 88 b8 00
	00 00		 movzx	 ecx, WORD PTR [eax+184]
  006d7	81 f9 1f 01 00
	00		 cmp	 ecx, 287		; 0000011fH
  006dd	74 12		 je	 SHORT $LN37@gObjMonste@11
  006df	8b 45 08	 mov	 eax, DWORD PTR _lpObj$[ebp]
  006e2	0f b7 88 b8 00
	00 00		 movzx	 ecx, WORD PTR [eax+184]
  006e9	81 f9 1e 01 00
	00		 cmp	 ecx, 286		; 0000011eH
  006ef	75 10		 jne	 SHORT $LN38@gObjMonste@11
$LN37@gObjMonste@11:

; 1043 : 				{
; 1044 : 					g_CsNPC_Mercenary.DeleteMercenary(lpObj->m_Index);

  006f1	8b 45 08	 mov	 eax, DWORD PTR _lpObj$[ebp]
  006f4	8b 08		 mov	 ecx, DWORD PTR [eax]
  006f6	51		 push	 ecx
  006f7	b9 00 00 00 00	 mov	 ecx, OFFSET ?g_CsNPC_Mercenary@@3VCMercenary@@A ; g_CsNPC_Mercenary
  006fc	e8 00 00 00 00	 call	 ?DeleteMercenary@CMercenary@@QAEHH@Z ; CMercenary::DeleteMercenary
$LN38@gObjMonste@11:

; 1045 : 				}
; 1046 : 				if(lpObj->Class == 278)

  00701	8b 45 08	 mov	 eax, DWORD PTR _lpObj$[ebp]
  00704	0f b7 88 b8 00
	00 00		 movzx	 ecx, WORD PTR [eax+184]
  0070b	81 f9 16 01 00
	00		 cmp	 ecx, 278		; 00000116H
  00711	75 10		 jne	 SHORT $LN36@gObjMonste@11

; 1047 : 				{
; 1048 : 					g_CsNPC_LifeStone.DeleteLifeStone(lpObj->m_Index);

  00713	8b 45 08	 mov	 eax, DWORD PTR _lpObj$[ebp]
  00716	8b 08		 mov	 ecx, DWORD PTR [eax]
  00718	51		 push	 ecx
  00719	b9 00 00 00 00	 mov	 ecx, OFFSET ?g_CsNPC_LifeStone@@3VCLifeStone@@A ; g_CsNPC_LifeStone
  0071e	e8 00 00 00 00	 call	 ?DeleteLifeStone@CLifeStone@@QAEHH@Z ; CLifeStone::DeleteLifeStone
$LN36@gObjMonste@11:

; 1049 : 				}
; 1050 : 				gObjDel(lpObj->m_Index);

  00723	8b 45 08	 mov	 eax, DWORD PTR _lpObj$[ebp]
  00726	8b 08		 mov	 ecx, DWORD PTR [eax]
  00728	51		 push	 ecx
  00729	e8 00 00 00 00	 call	 ?gObjDel@@YAFH@Z	; gObjDel
  0072e	83 c4 04	 add	 esp, 4
$LN44@gObjMonste@11:

; 1051 : 			}
; 1052 : //#endif
; 1053 : 			if ( KALIMA_MAP_RANGE(lpObj->MapNumber)  )

  00731	8b 45 08	 mov	 eax, DWORD PTR _lpObj$[ebp]
  00734	0f b6 88 49 01
	00 00		 movzx	 ecx, BYTE PTR [eax+329]
  0073b	83 f9 18	 cmp	 ecx, 24			; 00000018H
  0073e	7d 0c		 jge	 SHORT $LN100@gObjMonste@11
  00740	c7 85 74 ff ff
	ff 00 00 00 00	 mov	 DWORD PTR tv417[ebp], 0
  0074a	eb 3f		 jmp	 SHORT $LN101@gObjMonste@11
$LN100@gObjMonste@11:
  0074c	8b 55 08	 mov	 edx, DWORD PTR _lpObj$[ebp]
  0074f	0f b6 82 49 01
	00 00		 movzx	 eax, BYTE PTR [edx+329]
  00756	83 f8 1d	 cmp	 eax, 29			; 0000001dH
  00759	7e 1a		 jle	 SHORT $LN98@gObjMonste@11
  0075b	8b 4d 08	 mov	 ecx, DWORD PTR _lpObj$[ebp]
  0075e	0f b6 91 49 01
	00 00		 movzx	 edx, BYTE PTR [ecx+329]
  00765	33 c0		 xor	 eax, eax
  00767	83 fa 24	 cmp	 edx, 36			; 00000024H
  0076a	0f 94 c0	 sete	 al
  0076d	89 85 70 ff ff
	ff		 mov	 DWORD PTR tv416[ebp], eax
  00773	eb 0a		 jmp	 SHORT $LN99@gObjMonste@11
$LN98@gObjMonste@11:
  00775	c7 85 70 ff ff
	ff 01 00 00 00	 mov	 DWORD PTR tv416[ebp], 1
$LN99@gObjMonste@11:
  0077f	8b 8d 70 ff ff
	ff		 mov	 ecx, DWORD PTR tv416[ebp]
  00785	89 8d 74 ff ff
	ff		 mov	 DWORD PTR tv417[ebp], ecx
$LN101@gObjMonste@11:
  0078b	83 bd 74 ff ff
	ff 00		 cmp	 DWORD PTR tv417[ebp], 0
  00792	0f 84 89 00 00
	00		 je	 $LN34@gObjMonste@11

; 1054 : 			{
; 1055 : 				if ( lpObj->Class == 161 || lpObj->Class == 181 || lpObj->Class == 189 || lpObj->Class == 197 || lpObj->Class == 267 )

  00798	8b 45 08	 mov	 eax, DWORD PTR _lpObj$[ebp]
  0079b	0f b7 88 b8 00
	00 00		 movzx	 ecx, WORD PTR [eax+184]
  007a2	81 f9 a1 00 00
	00		 cmp	 ecx, 161		; 000000a1H
  007a8	74 48		 je	 SHORT $LN33@gObjMonste@11
  007aa	8b 45 08	 mov	 eax, DWORD PTR _lpObj$[ebp]
  007ad	0f b7 88 b8 00
	00 00		 movzx	 ecx, WORD PTR [eax+184]
  007b4	81 f9 b5 00 00
	00		 cmp	 ecx, 181		; 000000b5H
  007ba	74 36		 je	 SHORT $LN33@gObjMonste@11
  007bc	8b 45 08	 mov	 eax, DWORD PTR _lpObj$[ebp]
  007bf	0f b7 88 b8 00
	00 00		 movzx	 ecx, WORD PTR [eax+184]
  007c6	81 f9 bd 00 00
	00		 cmp	 ecx, 189		; 000000bdH
  007cc	74 24		 je	 SHORT $LN33@gObjMonste@11
  007ce	8b 45 08	 mov	 eax, DWORD PTR _lpObj$[ebp]
  007d1	0f b7 88 b8 00
	00 00		 movzx	 ecx, WORD PTR [eax+184]
  007d8	81 f9 c5 00 00
	00		 cmp	 ecx, 197		; 000000c5H
  007de	74 12		 je	 SHORT $LN33@gObjMonste@11
  007e0	8b 45 08	 mov	 eax, DWORD PTR _lpObj$[ebp]
  007e3	0f b7 88 b8 00
	00 00		 movzx	 ecx, WORD PTR [eax+184]
  007ea	81 f9 0b 01 00
	00		 cmp	 ecx, 267		; 0000010bH
  007f0	75 2f		 jne	 SHORT $LN34@gObjMonste@11
$LN33@gObjMonste@11:

; 1056 : 				{
; 1057 : 					g_KalimaGate.CreateKalimaGate2(aIndex, lpObj->MapNumber, lpObj->X, lpObj->Y);

  007f2	8b 45 08	 mov	 eax, DWORD PTR _lpObj$[ebp]
  007f5	0f b6 88 46 01
	00 00		 movzx	 ecx, BYTE PTR [eax+326]
  007fc	51		 push	 ecx
  007fd	8b 55 08	 mov	 edx, DWORD PTR _lpObj$[ebp]
  00800	0f b6 82 44 01
	00 00		 movzx	 eax, BYTE PTR [edx+324]
  00807	50		 push	 eax
  00808	8b 4d 08	 mov	 ecx, DWORD PTR _lpObj$[ebp]
  0080b	0f b6 91 49 01
	00 00		 movzx	 edx, BYTE PTR [ecx+329]
  00812	52		 push	 edx
  00813	8b 45 10	 mov	 eax, DWORD PTR _aIndex$[ebp]
  00816	50		 push	 eax
  00817	b9 00 00 00 00	 mov	 ecx, OFFSET ?g_KalimaGate@@3VCKalimaGate@@A ; g_KalimaGate
  0081c	e8 00 00 00 00	 call	 ?CreateKalimaGate2@CKalimaGate@@QAEHHHEE@Z ; CKalimaGate::CreateKalimaGate2
$LN34@gObjMonste@11:

; 1058 : 				}
; 1059 : 			}
; 1060 : 
; 1061 : 			if(lpObj->Class == 409 || lpObj->Class == 410 || lpObj->Class == 411 || lpObj->Class == 412 )

  00821	8b 45 08	 mov	 eax, DWORD PTR _lpObj$[ebp]
  00824	0f b7 88 b8 00
	00 00		 movzx	 ecx, WORD PTR [eax+184]
  0082b	81 f9 99 01 00
	00		 cmp	 ecx, 409		; 00000199H
  00831	74 36		 je	 SHORT $LN31@gObjMonste@11
  00833	8b 45 08	 mov	 eax, DWORD PTR _lpObj$[ebp]
  00836	0f b7 88 b8 00
	00 00		 movzx	 ecx, WORD PTR [eax+184]
  0083d	81 f9 9a 01 00
	00		 cmp	 ecx, 410		; 0000019aH
  00843	74 24		 je	 SHORT $LN31@gObjMonste@11
  00845	8b 45 08	 mov	 eax, DWORD PTR _lpObj$[ebp]
  00848	0f b7 88 b8 00
	00 00		 movzx	 ecx, WORD PTR [eax+184]
  0084f	81 f9 9b 01 00
	00		 cmp	 ecx, 411		; 0000019bH
  00855	74 12		 je	 SHORT $LN31@gObjMonste@11
  00857	8b 45 08	 mov	 eax, DWORD PTR _lpObj$[ebp]
  0085a	0f b7 88 b8 00
	00 00		 movzx	 ecx, WORD PTR [eax+184]
  00861	81 f9 9c 01 00
	00		 cmp	 ecx, 412		; 0000019cH
  00867	75 1e		 jne	 SHORT $LN32@gObjMonste@11
$LN31@gObjMonste@11:

; 1062 : 			{
; 1063 : 				//Quest Count Function
; 1064 : 				g_QuestInfo.MonsterPlusKillCountParty(lpObj, &gObj[aIndex]);

  00869	8b 45 10	 mov	 eax, DWORD PTR _aIndex$[ebp]
  0086c	69 c0 38 2b 00
	00		 imul	 eax, 11064		; 00002b38H
  00872	03 05 00 00 00
	00		 add	 eax, DWORD PTR ?gObj@@3PAUOBJECTSTRUCT@@A ; gObj
  00878	50		 push	 eax
  00879	8b 4d 08	 mov	 ecx, DWORD PTR _lpObj$[ebp]
  0087c	51		 push	 ecx
  0087d	b9 00 00 00 00	 mov	 ecx, OFFSET ?g_QuestInfo@@3VCQuestInfo@@A ; g_QuestInfo
  00882	e8 00 00 00 00	 call	 ?MonsterPlusKillCountParty@CQuestInfo@@QAEHPAUOBJECTSTRUCT@@0@Z ; CQuestInfo::MonsterPlusKillCountParty
$LN32@gObjMonste@11:

; 1065 : 			}
; 1066 : 
; 1067 : 			gObjMonsterDieGiveItem(lpObj, &gObj[aIndex] );

  00887	8b 45 10	 mov	 eax, DWORD PTR _aIndex$[ebp]
  0088a	69 c0 38 2b 00
	00		 imul	 eax, 11064		; 00002b38H
  00890	03 05 00 00 00
	00		 add	 eax, DWORD PTR ?gObj@@3PAUOBJECTSTRUCT@@A ; gObj
  00896	50		 push	 eax
  00897	8b 4d 08	 mov	 ecx, DWORD PTR _lpObj$[ebp]
  0089a	51		 push	 ecx
  0089b	e8 00 00 00 00	 call	 ?gObjMonsterDieGiveItem@@YAXPAUOBJECTSTRUCT@@0@Z ; gObjMonsterDieGiveItem
  008a0	83 c4 08	 add	 esp, 8

; 1068 : 			lpObj->NextActionTime = 500;

  008a3	8b 45 08	 mov	 eax, DWORD PTR _lpObj$[ebp]
  008a6	c7 80 bc 03 00
	00 f4 01 00 00	 mov	 DWORD PTR [eax+956], 500 ; 000001f4H

; 1069 : 
; 1070 : 			if ( lpObj->m_RecallMon >= 0 )

  008b0	8b 45 08	 mov	 eax, DWORD PTR _lpObj$[ebp]
  008b3	83 b8 50 04 00
	00 00		 cmp	 DWORD PTR [eax+1104], 0
  008ba	7c 12		 jl	 SHORT $LN30@gObjMonste@11

; 1071 : 			{
; 1072 : 				gObjMonsterCallKill(lpObj->m_RecallMon);

  008bc	8b 45 08	 mov	 eax, DWORD PTR _lpObj$[ebp]
  008bf	8b 88 50 04 00
	00		 mov	 ecx, DWORD PTR [eax+1104]
  008c5	51		 push	 ecx
  008c6	e8 00 00 00 00	 call	 ?gObjMonsterCallKill@@YAXH@Z ; gObjMonsterCallKill
  008cb	83 c4 04	 add	 esp, 4
$LN30@gObjMonste@11:

; 1073 : 			}
; 1074 : 
; 1075 : 			if (  BC_MAP_RANGE(lpObj->MapNumber) != FALSE && lpObj->Type >= OBJ_MONSTER)

  008ce	8b 45 08	 mov	 eax, DWORD PTR _lpObj$[ebp]
  008d1	0f b6 88 49 01
	00 00		 movzx	 ecx, BYTE PTR [eax+329]
  008d8	83 f9 34	 cmp	 ecx, 52			; 00000034H
  008db	75 0c		 jne	 SHORT $LN104@gObjMonste@11
  008dd	c7 85 74 ff ff
	ff 01 00 00 00	 mov	 DWORD PTR tv480[ebp], 1
  008e7	eb 3f		 jmp	 SHORT $LN105@gObjMonste@11
$LN104@gObjMonste@11:
  008e9	8b 55 08	 mov	 edx, DWORD PTR _lpObj$[ebp]
  008ec	0f b6 82 49 01
	00 00		 movzx	 eax, BYTE PTR [edx+329]
  008f3	83 f8 0b	 cmp	 eax, 11			; 0000000bH
  008f6	7d 0c		 jge	 SHORT $LN102@gObjMonste@11
  008f8	c7 85 70 ff ff
	ff 00 00 00 00	 mov	 DWORD PTR tv479[ebp], 0
  00902	eb 18		 jmp	 SHORT $LN103@gObjMonste@11
$LN102@gObjMonste@11:
  00904	8b 4d 08	 mov	 ecx, DWORD PTR _lpObj$[ebp]
  00907	0f b6 91 49 01
	00 00		 movzx	 edx, BYTE PTR [ecx+329]
  0090e	33 c0		 xor	 eax, eax
  00910	83 fa 11	 cmp	 edx, 17			; 00000011H
  00913	0f 9e c0	 setle	 al
  00916	89 85 70 ff ff
	ff		 mov	 DWORD PTR tv479[ebp], eax
$LN103@gObjMonste@11:
  0091c	8b 8d 70 ff ff
	ff		 mov	 ecx, DWORD PTR tv479[ebp]
  00922	89 8d 74 ff ff
	ff		 mov	 DWORD PTR tv480[ebp], ecx
$LN105@gObjMonste@11:
  00928	83 bd 74 ff ff
	ff 00		 cmp	 DWORD PTR tv480[ebp], 0
  0092f	0f 84 6c 03 00
	00		 je	 $LN18@gObjMonste@11
  00935	8b 45 08	 mov	 eax, DWORD PTR _lpObj$[ebp]
  00938	0f b7 48 68	 movzx	 ecx, WORD PTR [eax+104]
  0093c	83 f9 02	 cmp	 ecx, 2
  0093f	0f 8c 5c 03 00
	00		 jl	 $LN18@gObjMonste@11

; 1076 : 			{
; 1077 : 				int iBridgeIndex = g_BloodCastle.GetBridgeIndex(lpObj->MapNumber); //season3 add-on

  00945	8b 45 08	 mov	 eax, DWORD PTR _lpObj$[ebp]
  00948	0f b6 88 49 01
	00 00		 movzx	 ecx, BYTE PTR [eax+329]
  0094f	51		 push	 ecx
  00950	b9 00 00 00 00	 mov	 ecx, OFFSET ?g_BloodCastle@@3VCBloodCastle@@A ; g_BloodCastle
  00955	e8 00 00 00 00	 call	 ?GetBridgeIndex@CBloodCastle@@QAEHH@Z ; CBloodCastle::GetBridgeIndex
  0095a	89 45 d0	 mov	 DWORD PTR _iBridgeIndex$246626[ebp], eax

; 1078 : 
; 1079 : 				if ( lpObj->Class == 89 || lpObj->Class == 95 || lpObj->Class == 112 || lpObj->Class == 118 || lpObj->Class == 124 || lpObj->Class == 130 || lpObj->Class == 143 || lpObj->Class == 433) //season3 changed

  0095d	8b 45 08	 mov	 eax, DWORD PTR _lpObj$[ebp]
  00960	0f b7 88 b8 00
	00 00		 movzx	 ecx, WORD PTR [eax+184]
  00967	83 f9 59	 cmp	 ecx, 89			; 00000059H
  0096a	74 72		 je	 SHORT $LN27@gObjMonste@11
  0096c	8b 45 08	 mov	 eax, DWORD PTR _lpObj$[ebp]
  0096f	0f b7 88 b8 00
	00 00		 movzx	 ecx, WORD PTR [eax+184]
  00976	83 f9 5f	 cmp	 ecx, 95			; 0000005fH
  00979	74 63		 je	 SHORT $LN27@gObjMonste@11
  0097b	8b 45 08	 mov	 eax, DWORD PTR _lpObj$[ebp]
  0097e	0f b7 88 b8 00
	00 00		 movzx	 ecx, WORD PTR [eax+184]
  00985	83 f9 70	 cmp	 ecx, 112		; 00000070H
  00988	74 54		 je	 SHORT $LN27@gObjMonste@11
  0098a	8b 45 08	 mov	 eax, DWORD PTR _lpObj$[ebp]
  0098d	0f b7 88 b8 00
	00 00		 movzx	 ecx, WORD PTR [eax+184]
  00994	83 f9 76	 cmp	 ecx, 118		; 00000076H
  00997	74 45		 je	 SHORT $LN27@gObjMonste@11
  00999	8b 45 08	 mov	 eax, DWORD PTR _lpObj$[ebp]
  0099c	0f b7 88 b8 00
	00 00		 movzx	 ecx, WORD PTR [eax+184]
  009a3	83 f9 7c	 cmp	 ecx, 124		; 0000007cH
  009a6	74 36		 je	 SHORT $LN27@gObjMonste@11
  009a8	8b 45 08	 mov	 eax, DWORD PTR _lpObj$[ebp]
  009ab	0f b7 88 b8 00
	00 00		 movzx	 ecx, WORD PTR [eax+184]
  009b2	81 f9 82 00 00
	00		 cmp	 ecx, 130		; 00000082H
  009b8	74 24		 je	 SHORT $LN27@gObjMonste@11
  009ba	8b 45 08	 mov	 eax, DWORD PTR _lpObj$[ebp]
  009bd	0f b7 88 b8 00
	00 00		 movzx	 ecx, WORD PTR [eax+184]
  009c4	81 f9 8f 00 00
	00		 cmp	 ecx, 143		; 0000008fH
  009ca	74 12		 je	 SHORT $LN27@gObjMonste@11
  009cc	8b 45 08	 mov	 eax, DWORD PTR _lpObj$[ebp]
  009cf	0f b7 88 b8 00
	00 00		 movzx	 ecx, WORD PTR [eax+184]
  009d6	81 f9 b1 01 00
	00		 cmp	 ecx, 433		; 000001b1H
  009dc	75 23		 jne	 SHORT $LN28@gObjMonste@11
$LN27@gObjMonste@11:

; 1080 : 				{
; 1081 : 					g_BloodCastle.m_BridgeData[iBridgeIndex].m_iBC_BOSS_MONSTER_KILL_COUNT++;

  009de	8b 45 d0	 mov	 eax, DWORD PTR _iBridgeIndex$246626[ebp]
  009e1	69 c0 60 04 00
	00		 imul	 eax, 1120		; 00000460H
  009e7	8b 88 e0 03 00
	00		 mov	 ecx, DWORD PTR ?g_BloodCastle@@3VCBloodCastle@@A[eax+992]
  009ed	83 c1 01	 add	 ecx, 1
  009f0	8b 55 d0	 mov	 edx, DWORD PTR _iBridgeIndex$246626[ebp]
  009f3	69 d2 60 04 00
	00		 imul	 edx, 1120		; 00000460H
  009f9	89 8a e0 03 00
	00		 mov	 DWORD PTR ?g_BloodCastle@@3VCBloodCastle@@A[edx+992], ecx

; 1082 : 				}
; 1083 : 				else

  009ff	eb 21		 jmp	 SHORT $LN26@gObjMonste@11
$LN28@gObjMonste@11:

; 1084 : 				{
; 1085 : 					g_BloodCastle.m_BridgeData[iBridgeIndex].m_iBC_MONSTER_KILL_COUNT++;

  00a01	8b 45 d0	 mov	 eax, DWORD PTR _iBridgeIndex$246626[ebp]
  00a04	69 c0 60 04 00
	00		 imul	 eax, 1120		; 00000460H
  00a0a	8b 88 d0 03 00
	00		 mov	 ecx, DWORD PTR ?g_BloodCastle@@3VCBloodCastle@@A[eax+976]
  00a10	83 c1 01	 add	 ecx, 1
  00a13	8b 55 d0	 mov	 edx, DWORD PTR _iBridgeIndex$246626[ebp]
  00a16	69 d2 60 04 00
	00		 imul	 edx, 1120		; 00000460H
  00a1c	89 8a d0 03 00
	00		 mov	 DWORD PTR ?g_BloodCastle@@3VCBloodCastle@@A[edx+976], ecx
$LN26@gObjMonste@11:

; 1086 : 				}
; 1087 : 
; 1088 : 				if ( g_BloodCastle.CheckMonsterKillCount(iBridgeIndex) != false )

  00a22	8b 45 d0	 mov	 eax, DWORD PTR _iBridgeIndex$246626[ebp]
  00a25	50		 push	 eax
  00a26	b9 00 00 00 00	 mov	 ecx, OFFSET ?g_BloodCastle@@3VCBloodCastle@@A ; g_BloodCastle
  00a2b	e8 00 00 00 00	 call	 ?CheckMonsterKillCount@CBloodCastle@@QAE_NH@Z ; CBloodCastle::CheckMonsterKillCount
  00a30	0f b6 c8	 movzx	 ecx, al
  00a33	85 c9		 test	 ecx, ecx
  00a35	0f 84 7a 01 00
	00		 je	 $LN22@gObjMonste@11

; 1089 : 				{
; 1090 : 					if (g_BloodCastle.m_BridgeData[iBridgeIndex].m_bBC_MONSTER_KILL_COMPLETE == false )

  00a3b	8b 45 d0	 mov	 eax, DWORD PTR _iBridgeIndex$246626[ebp]
  00a3e	69 c0 60 04 00
	00		 imul	 eax, 1120		; 00000460H
  00a44	0f b6 88 b8 03
	00 00		 movzx	 ecx, BYTE PTR ?g_BloodCastle@@3VCBloodCastle@@A[eax+952]
  00a4b	85 c9		 test	 ecx, ecx
  00a4d	0f 85 11 01 00
	00		 jne	 $LN23@gObjMonste@11

; 1091 : 					{
; 1092 : 						g_BloodCastle.m_BridgeData[iBridgeIndex].m_bBC_MONSTER_KILL_COMPLETE = true;

  00a53	8b 45 d0	 mov	 eax, DWORD PTR _iBridgeIndex$246626[ebp]
  00a56	69 c0 60 04 00
	00		 imul	 eax, 1120		; 00000460H
  00a5c	c6 80 b8 03 00
	00 01		 mov	 BYTE PTR ?g_BloodCastle@@3VCBloodCastle@@A[eax+952], 1

; 1093 : 						g_BloodCastle.m_BridgeData[iBridgeIndex].m_iBC_MONSTER_MAX_COUNT = -1;

  00a63	8b 45 d0	 mov	 eax, DWORD PTR _iBridgeIndex$246626[ebp]
  00a66	69 c0 60 04 00
	00		 imul	 eax, 1120		; 00000460H
  00a6c	c7 80 cc 03 00
	00 ff ff ff ff	 mov	 DWORD PTR ?g_BloodCastle@@3VCBloodCastle@@A[eax+972], -1

; 1094 : 
; 1095 : 						PMSG_STATEBLOODCASTLE pMsg;
; 1096 : 
; 1097 : 						PHeadSetB((LPBYTE)&pMsg, 0x9B, sizeof(PMSG_STATEBLOODCASTLE));

  00a76	6a 0e		 push	 14			; 0000000eH
  00a78	68 9b 00 00 00	 push	 155			; 0000009bH
  00a7d	8d 45 c0	 lea	 eax, DWORD PTR _pMsg$246632[ebp]
  00a80	50		 push	 eax
  00a81	e8 00 00 00 00	 call	 ?PHeadSetB@@YAXPAEEH@Z	; PHeadSetB
  00a86	83 c4 0c	 add	 esp, 12			; 0000000cH

; 1098 : 
; 1099 : 						pMsg.btPlayState = BC_STATE_PLAYEND;

  00a89	c6 45 c3 03	 mov	 BYTE PTR _pMsg$246632[ebp+3], 3

; 1100 : 						pMsg.wRemainSec = 0;

  00a8d	33 c0		 xor	 eax, eax
  00a8f	66 89 45 c4	 mov	 WORD PTR _pMsg$246632[ebp+4], ax

; 1101 : 						pMsg.wMaxKillMonster = 0;

  00a93	33 c0		 xor	 eax, eax
  00a95	66 89 45 c6	 mov	 WORD PTR _pMsg$246632[ebp+6], ax

; 1102 : 						pMsg.wCurKillMonster = 0;

  00a99	33 c0		 xor	 eax, eax
  00a9b	66 89 45 c8	 mov	 WORD PTR _pMsg$246632[ebp+8], ax

; 1103 : 						pMsg.wUserHaveWeapon = 0;

  00a9f	33 c0		 xor	 eax, eax
  00aa1	66 89 45 ca	 mov	 WORD PTR _pMsg$246632[ebp+10], ax

; 1104 : 						pMsg.btWeaponNum = -1;

  00aa5	c6 45 cc ff	 mov	 BYTE PTR _pMsg$246632[ebp+12], 255 ; 000000ffH

; 1105 : 
; 1106 : 						g_BloodCastle.SendBridgeAnyMsg((LPBYTE)&pMsg, pMsg.h.size, iBridgeIndex);

  00aa9	8b 45 d0	 mov	 eax, DWORD PTR _iBridgeIndex$246626[ebp]
  00aac	50		 push	 eax
  00aad	0f b6 4d c1	 movzx	 ecx, BYTE PTR _pMsg$246632[ebp+1]
  00ab1	51		 push	 ecx
  00ab2	8d 55 c0	 lea	 edx, DWORD PTR _pMsg$246632[ebp]
  00ab5	52		 push	 edx
  00ab6	b9 00 00 00 00	 mov	 ecx, OFFSET ?g_BloodCastle@@3VCBloodCastle@@A ; g_BloodCastle
  00abb	e8 00 00 00 00	 call	 ?SendBridgeAnyMsg@CBloodCastle@@QAEXPAEHH@Z ; CBloodCastle::SendBridgeAnyMsg

; 1107 : 						g_BloodCastle.ReleaseCastleBridge(iBridgeIndex);

  00ac0	8b 45 d0	 mov	 eax, DWORD PTR _iBridgeIndex$246626[ebp]
  00ac3	50		 push	 eax
  00ac4	b9 00 00 00 00	 mov	 ecx, OFFSET ?g_BloodCastle@@3VCBloodCastle@@A ; g_BloodCastle
  00ac9	e8 00 00 00 00	 call	 ?ReleaseCastleBridge@CBloodCastle@@QAEXH@Z ; CBloodCastle::ReleaseCastleBridge

; 1108 : 
; 1109 : 						g_BloodCastle.m_BridgeData[iBridgeIndex].m_dwBC_TICK_DOOR_OPEN = GetTickCount() + 3000;

  00ace	ff 15 00 00 00
	00		 call	 DWORD PTR __imp__GetTickCount@0
  00ad4	05 b8 0b 00 00	 add	 eax, 3000		; 00000bb8H
  00ad9	8b 4d d0	 mov	 ecx, DWORD PTR _iBridgeIndex$246626[ebp]
  00adc	69 c9 60 04 00
	00		 imul	 ecx, 1120		; 00000460H
  00ae2	89 81 d8 03 00
	00		 mov	 DWORD PTR ?g_BloodCastle@@3VCBloodCastle@@A[ecx+984], eax

; 1110 : 
; 1111 : 						LogAddTD("[Blood Castle] (%d) All of the Monster Terminated -> %d", iBridgeIndex+1, g_BloodCastle.m_BridgeData[iBridgeIndex].m_iBC_MONSTER_KILL_COUNT);

  00ae8	8b 45 d0	 mov	 eax, DWORD PTR _iBridgeIndex$246626[ebp]
  00aeb	69 c0 60 04 00
	00		 imul	 eax, 1120		; 00000460H
  00af1	8b 88 d0 03 00
	00		 mov	 ecx, DWORD PTR ?g_BloodCastle@@3VCBloodCastle@@A[eax+976]
  00af7	51		 push	 ecx
  00af8	8b 55 d0	 mov	 edx, DWORD PTR _iBridgeIndex$246626[ebp]
  00afb	83 c2 01	 add	 edx, 1
  00afe	52		 push	 edx
  00aff	68 00 00 00 00	 push	 OFFSET ??_C@_0DI@FKJGCAAF@?$FLBlood?5Castle?$FN?5?$CI?$CFd?$CJ?5All?5of?5the?5M@
  00b04	ff 15 00 00 00
	00		 call	 DWORD PTR ?LogAddTD@@3P6AXPADZZA ; LogAddTD
  00b0a	83 c4 0c	 add	 esp, 12			; 0000000cH

; 1112 : 
; 1113 : 						g_BloodCastle.m_BridgeData[iBridgeIndex].m_iBC_BOSS_MONSTER_MAX_COUNT = g_BloodCastle.GetCurrentLiveUserCount(iBridgeIndex)*2;

  00b0d	8b 45 d0	 mov	 eax, DWORD PTR _iBridgeIndex$246626[ebp]
  00b10	50		 push	 eax
  00b11	b9 00 00 00 00	 mov	 ecx, OFFSET ?g_BloodCastle@@3VCBloodCastle@@A ; g_BloodCastle
  00b16	e8 00 00 00 00	 call	 ?GetCurrentLiveUserCount@CBloodCastle@@QAEHH@Z ; CBloodCastle::GetCurrentLiveUserCount
  00b1b	d1 e0		 shl	 eax, 1
  00b1d	8b 4d d0	 mov	 ecx, DWORD PTR _iBridgeIndex$246626[ebp]
  00b20	69 c9 60 04 00
	00		 imul	 ecx, 1120		; 00000460H
  00b26	89 81 dc 03 00
	00		 mov	 DWORD PTR ?g_BloodCastle@@3VCBloodCastle@@A[ecx+988], eax

; 1114 : 						g_BloodCastle.m_BridgeData[iBridgeIndex].m_iBC_BOSS_MONSTER_KILL_COUNT = 0;

  00b2c	8b 45 d0	 mov	 eax, DWORD PTR _iBridgeIndex$246626[ebp]
  00b2f	69 c0 60 04 00
	00		 imul	 eax, 1120		; 00000460H
  00b35	c7 80 e0 03 00
	00 00 00 00 00	 mov	 DWORD PTR ?g_BloodCastle@@3VCBloodCastle@@A[eax+992], 0

; 1115 : 
; 1116 : 						if ( g_BloodCastle.m_BridgeData[iBridgeIndex].m_iBC_BOSS_MONSTER_MAX_COUNT > 10) 

  00b3f	8b 45 d0	 mov	 eax, DWORD PTR _iBridgeIndex$246626[ebp]
  00b42	69 c0 60 04 00
	00		 imul	 eax, 1120		; 00000460H
  00b48	83 b8 dc 03 00
	00 0a		 cmp	 DWORD PTR ?g_BloodCastle@@3VCBloodCastle@@A[eax+988], 10 ; 0000000aH
  00b4f	7e 13		 jle	 SHORT $LN23@gObjMonste@11

; 1117 : 						{
; 1118 : 							g_BloodCastle.m_BridgeData[iBridgeIndex].m_iBC_BOSS_MONSTER_MAX_COUNT = 10;

  00b51	8b 45 d0	 mov	 eax, DWORD PTR _iBridgeIndex$246626[ebp]
  00b54	69 c0 60 04 00
	00		 imul	 eax, 1120		; 00000460H
  00b5a	c7 80 dc 03 00
	00 0a 00 00 00	 mov	 DWORD PTR ?g_BloodCastle@@3VCBloodCastle@@A[eax+988], 10 ; 0000000aH
$LN23@gObjMonste@11:

; 1119 : 						}
; 1120 : 					}
; 1121 : 
; 1122 : 					if (g_BloodCastle.m_BridgeData[iBridgeIndex].m_iBC_MONSTER_SUCCESS_MSG_COUNT < 1 )

  00b64	8b 45 d0	 mov	 eax, DWORD PTR _iBridgeIndex$246626[ebp]
  00b67	69 c0 60 04 00
	00		 imul	 eax, 1120		; 00000460H
  00b6d	83 b8 d4 03 00
	00 01		 cmp	 DWORD PTR ?g_BloodCastle@@3VCBloodCastle@@A[eax+980], 1
  00b74	7d 3f		 jge	 SHORT $LN22@gObjMonste@11

; 1123 : 					{
; 1124 : 						g_BloodCastle.m_BridgeData[iBridgeIndex].m_iBC_MONSTER_SUCCESS_MSG_COUNT++;

  00b76	8b 45 d0	 mov	 eax, DWORD PTR _iBridgeIndex$246626[ebp]
  00b79	69 c0 60 04 00
	00		 imul	 eax, 1120		; 00000460H
  00b7f	8b 88 d4 03 00
	00		 mov	 ecx, DWORD PTR ?g_BloodCastle@@3VCBloodCastle@@A[eax+980]
  00b85	83 c1 01	 add	 ecx, 1
  00b88	8b 55 d0	 mov	 edx, DWORD PTR _iBridgeIndex$246626[ebp]
  00b8b	69 d2 60 04 00
	00		 imul	 edx, 1120		; 00000460H
  00b91	89 8a d4 03 00
	00		 mov	 DWORD PTR ?g_BloodCastle@@3VCBloodCastle@@A[edx+980], ecx

; 1125 : 						g_BloodCastle.SendNoticeMessage(iBridgeIndex, lMsg.Get(MSGGET(4, 144))); 

  00b97	68 90 04 00 00	 push	 1168			; 00000490H
  00b9c	b9 00 00 00 00	 mov	 ecx, OFFSET ?lMsg@@3VCMsg@@A ; lMsg
  00ba1	e8 00 00 00 00	 call	 ?Get@CMsg@@QAEPADH@Z	; CMsg::Get
  00ba6	50		 push	 eax
  00ba7	8b 45 d0	 mov	 eax, DWORD PTR _iBridgeIndex$246626[ebp]
  00baa	50		 push	 eax
  00bab	b9 00 00 00 00	 mov	 ecx, OFFSET ?g_BloodCastle@@3VCBloodCastle@@A ; g_BloodCastle
  00bb0	e8 00 00 00 00	 call	 ?SendNoticeMessage@CBloodCastle@@QAEXHPAD@Z ; CBloodCastle::SendNoticeMessage
$LN22@gObjMonste@11:

; 1126 : 					}
; 1127 : 					
; 1128 : 				}
; 1129 : 
; 1130 : 				if ( g_BloodCastle.m_BridgeData[iBridgeIndex].m_bBC_MONSTER_KILL_COMPLETE != false )

  00bb5	8b 45 d0	 mov	 eax, DWORD PTR _iBridgeIndex$246626[ebp]
  00bb8	69 c0 60 04 00
	00		 imul	 eax, 1120		; 00000460H
  00bbe	0f b6 88 b8 03
	00 00		 movzx	 ecx, BYTE PTR ?g_BloodCastle@@3VCBloodCastle@@A[eax+952]
  00bc5	85 c9		 test	 ecx, ecx
  00bc7	0f 84 d4 00 00
	00		 je	 $LN18@gObjMonste@11

; 1131 : 				{
; 1132 : 					if ( g_BloodCastle.CheckBossKillCount(iBridgeIndex) != false )

  00bcd	8b 45 d0	 mov	 eax, DWORD PTR _iBridgeIndex$246626[ebp]
  00bd0	50		 push	 eax
  00bd1	b9 00 00 00 00	 mov	 ecx, OFFSET ?g_BloodCastle@@3VCBloodCastle@@A ; g_BloodCastle
  00bd6	e8 00 00 00 00	 call	 ?CheckBossKillCount@CBloodCastle@@QAE_NH@Z ; CBloodCastle::CheckBossKillCount
  00bdb	0f b6 c8	 movzx	 ecx, al
  00bde	85 c9		 test	 ecx, ecx
  00be0	0f 84 bb 00 00
	00		 je	 $LN18@gObjMonste@11

; 1133 : 					{
; 1134 : 						if ( g_BloodCastle.m_BridgeData[iBridgeIndex].m_bBC_BOSS_MONSTER_KILL_COMPLETE == false )

  00be6	8b 45 d0	 mov	 eax, DWORD PTR _iBridgeIndex$246626[ebp]
  00be9	69 c0 60 04 00
	00		 imul	 eax, 1120		; 00000460H
  00bef	0f b6 88 b9 03
	00 00		 movzx	 ecx, BYTE PTR ?g_BloodCastle@@3VCBloodCastle@@A[eax+953]
  00bf6	85 c9		 test	 ecx, ecx
  00bf8	75 56		 jne	 SHORT $LN19@gObjMonste@11

; 1135 : 						{
; 1136 : 							g_BloodCastle.m_BridgeData[iBridgeIndex].m_bBC_BOSS_MONSTER_KILL_COMPLETE = true;

  00bfa	8b 45 d0	 mov	 eax, DWORD PTR _iBridgeIndex$246626[ebp]
  00bfd	69 c0 60 04 00
	00		 imul	 eax, 1120		; 00000460H
  00c03	c6 80 b9 03 00
	00 01		 mov	 BYTE PTR ?g_BloodCastle@@3VCBloodCastle@@A[eax+953], 1

; 1137 : 							g_BloodCastle.m_BridgeData[iBridgeIndex].m_iBC_BOSS_MONSTER_MAX_COUNT = -1;

  00c0a	8b 45 d0	 mov	 eax, DWORD PTR _iBridgeIndex$246626[ebp]
  00c0d	69 c0 60 04 00
	00		 imul	 eax, 1120		; 00000460H
  00c13	c7 80 dc 03 00
	00 ff ff ff ff	 mov	 DWORD PTR ?g_BloodCastle@@3VCBloodCastle@@A[eax+988], -1

; 1138 : 
; 1139 : 							g_BloodCastle.SetSaintStatue(iBridgeIndex);

  00c1d	8b 45 d0	 mov	 eax, DWORD PTR _iBridgeIndex$246626[ebp]
  00c20	50		 push	 eax
  00c21	b9 00 00 00 00	 mov	 ecx, OFFSET ?g_BloodCastle@@3VCBloodCastle@@A ; g_BloodCastle
  00c26	e8 00 00 00 00	 call	 ?SetSaintStatue@CBloodCastle@@QAEXH@Z ; CBloodCastle::SetSaintStatue

; 1140 : 
; 1141 : 							LogAddTD("[Blood Castle] (%d) All of the Boss Monster Terminated -> %d", iBridgeIndex+1, g_BloodCastle.m_BridgeData[iBridgeIndex].m_iBC_BOSS_MONSTER_KILL_COUNT);

  00c2b	8b 45 d0	 mov	 eax, DWORD PTR _iBridgeIndex$246626[ebp]
  00c2e	69 c0 60 04 00
	00		 imul	 eax, 1120		; 00000460H
  00c34	8b 88 e0 03 00
	00		 mov	 ecx, DWORD PTR ?g_BloodCastle@@3VCBloodCastle@@A[eax+992]
  00c3a	51		 push	 ecx
  00c3b	8b 55 d0	 mov	 edx, DWORD PTR _iBridgeIndex$246626[ebp]
  00c3e	83 c2 01	 add	 edx, 1
  00c41	52		 push	 edx
  00c42	68 00 00 00 00	 push	 OFFSET ??_C@_0DN@OMDKGOEJ@?$FLBlood?5Castle?$FN?5?$CI?$CFd?$CJ?5All?5of?5the?5B@
  00c47	ff 15 00 00 00
	00		 call	 DWORD PTR ?LogAddTD@@3P6AXPADZZA ; LogAddTD
  00c4d	83 c4 0c	 add	 esp, 12			; 0000000cH
$LN19@gObjMonste@11:

; 1142 : 						}
; 1143 : 
; 1144 : 						if ( g_BloodCastle.m_BridgeData[iBridgeIndex].m_iBC_BOSS_MONSTER_SUCCESS_MSG_COUNT < 1 )

  00c50	8b 45 d0	 mov	 eax, DWORD PTR _iBridgeIndex$246626[ebp]
  00c53	69 c0 60 04 00
	00		 imul	 eax, 1120		; 00000460H
  00c59	83 b8 e4 03 00
	00 01		 cmp	 DWORD PTR ?g_BloodCastle@@3VCBloodCastle@@A[eax+996], 1
  00c60	7d 3f		 jge	 SHORT $LN18@gObjMonste@11

; 1145 : 						{
; 1146 : 							g_BloodCastle.m_BridgeData[iBridgeIndex].m_iBC_BOSS_MONSTER_SUCCESS_MSG_COUNT++;

  00c62	8b 45 d0	 mov	 eax, DWORD PTR _iBridgeIndex$246626[ebp]
  00c65	69 c0 60 04 00
	00		 imul	 eax, 1120		; 00000460H
  00c6b	8b 88 e4 03 00
	00		 mov	 ecx, DWORD PTR ?g_BloodCastle@@3VCBloodCastle@@A[eax+996]
  00c71	83 c1 01	 add	 ecx, 1
  00c74	8b 55 d0	 mov	 edx, DWORD PTR _iBridgeIndex$246626[ebp]
  00c77	69 d2 60 04 00
	00		 imul	 edx, 1120		; 00000460H
  00c7d	89 8a e4 03 00
	00		 mov	 DWORD PTR ?g_BloodCastle@@3VCBloodCastle@@A[edx+996], ecx

; 1147 : 							g_BloodCastle.SendNoticeMessage(iBridgeIndex, lMsg.Get(MSGGET(4, 156)));

  00c83	68 9c 04 00 00	 push	 1180			; 0000049cH
  00c88	b9 00 00 00 00	 mov	 ecx, OFFSET ?lMsg@@3VCMsg@@A ; lMsg
  00c8d	e8 00 00 00 00	 call	 ?Get@CMsg@@QAEPADH@Z	; CMsg::Get
  00c92	50		 push	 eax
  00c93	8b 45 d0	 mov	 eax, DWORD PTR _iBridgeIndex$246626[ebp]
  00c96	50		 push	 eax
  00c97	b9 00 00 00 00	 mov	 ecx, OFFSET ?g_BloodCastle@@3VCBloodCastle@@A ; g_BloodCastle
  00c9c	e8 00 00 00 00	 call	 ?SendNoticeMessage@CBloodCastle@@QAEXHPAD@Z ; CBloodCastle::SendNoticeMessage
$LN18@gObjMonste@11:

; 1148 : 						}
; 1149 : 					}
; 1150 : 				}
; 1151 : 			}
; 1152 : 			
; 1153 : 			break;

  00ca1	e9 15 03 00 00	 jmp	 $LN87@gObjMonste@11
$LN17@gObjMonste@11:

; 1154 : 
; 1155 : 
; 1156 : 		case 2:
; 1157 : 			if ( gObj[aIndex].Live != FALSE )

  00ca6	8b 45 10	 mov	 eax, DWORD PTR _aIndex$[ebp]
  00ca9	69 c0 38 2b 00
	00		 imul	 eax, 11064		; 00002b38H
  00caf	8b 0d 00 00 00
	00		 mov	 ecx, DWORD PTR ?gObj@@3PAUOBJECTSTRUCT@@A ; gObj
  00cb5	0f b6 54 01 6a	 movzx	 edx, BYTE PTR [ecx+eax+106]
  00cba	85 d2		 test	 edx, edx
  00cbc	0f 84 09 01 00
	00		 je	 $LN14@gObjMonste@11

; 1158 : 			{
; 1159 : 				if ( BC_MAP_RANGE(gObj[aIndex].MapNumber) == FALSE )

  00cc2	8b 45 10	 mov	 eax, DWORD PTR _aIndex$[ebp]
  00cc5	69 c0 38 2b 00
	00		 imul	 eax, 11064		; 00002b38H
  00ccb	8b 0d 00 00 00
	00		 mov	 ecx, DWORD PTR ?gObj@@3PAUOBJECTSTRUCT@@A ; gObj
  00cd1	0f b6 94 01 49
	01 00 00	 movzx	 edx, BYTE PTR [ecx+eax+329]
  00cd9	83 fa 34	 cmp	 edx, 52			; 00000034H
  00cdc	75 0c		 jne	 SHORT $LN108@gObjMonste@11
  00cde	c7 85 74 ff ff
	ff 01 00 00 00	 mov	 DWORD PTR tv713[ebp], 1
  00ce8	eb 59		 jmp	 SHORT $LN109@gObjMonste@11
$LN108@gObjMonste@11:
  00cea	8b 45 10	 mov	 eax, DWORD PTR _aIndex$[ebp]
  00ced	69 c0 38 2b 00
	00		 imul	 eax, 11064		; 00002b38H
  00cf3	8b 0d 00 00 00
	00		 mov	 ecx, DWORD PTR ?gObj@@3PAUOBJECTSTRUCT@@A ; gObj
  00cf9	0f b6 94 01 49
	01 00 00	 movzx	 edx, BYTE PTR [ecx+eax+329]
  00d01	83 fa 0b	 cmp	 edx, 11			; 0000000bH
  00d04	7d 0c		 jge	 SHORT $LN106@gObjMonste@11
  00d06	c7 85 70 ff ff
	ff 00 00 00 00	 mov	 DWORD PTR tv712[ebp], 0
  00d10	eb 25		 jmp	 SHORT $LN107@gObjMonste@11
$LN106@gObjMonste@11:
  00d12	8b 45 10	 mov	 eax, DWORD PTR _aIndex$[ebp]
  00d15	69 c0 38 2b 00
	00		 imul	 eax, 11064		; 00002b38H
  00d1b	8b 0d 00 00 00
	00		 mov	 ecx, DWORD PTR ?gObj@@3PAUOBJECTSTRUCT@@A ; gObj
  00d21	0f b6 94 01 49
	01 00 00	 movzx	 edx, BYTE PTR [ecx+eax+329]
  00d29	33 c0		 xor	 eax, eax
  00d2b	83 fa 11	 cmp	 edx, 17			; 00000011H
  00d2e	0f 9e c0	 setle	 al
  00d31	89 85 70 ff ff
	ff		 mov	 DWORD PTR tv712[ebp], eax
$LN107@gObjMonste@11:
  00d37	8b 8d 70 ff ff
	ff		 mov	 ecx, DWORD PTR tv712[ebp]
  00d3d	89 8d 74 ff ff
	ff		 mov	 DWORD PTR tv713[ebp], ecx
$LN109@gObjMonste@11:
  00d43	83 bd 74 ff ff
	ff 00		 cmp	 DWORD PTR tv713[ebp], 0
  00d4a	75 7f		 jne	 SHORT $LN14@gObjMonste@11

; 1160 : 				{
; 1161 : 					if ( gObj[aIndex].Class != 131 || ((  (lpObj->Class-132)<0)?FALSE:((lpObj->Class-132)>2)?FALSE:TRUE)==FALSE )

  00d4c	8b 45 10	 mov	 eax, DWORD PTR _aIndex$[ebp]
  00d4f	69 c0 38 2b 00
	00		 imul	 eax, 11064		; 00002b38H
  00d55	8b 0d 00 00 00
	00		 mov	 ecx, DWORD PTR ?gObj@@3PAUOBJECTSTRUCT@@A ; gObj
  00d5b	0f b7 94 01 b8
	00 00 00	 movzx	 edx, WORD PTR [ecx+eax+184]
  00d63	81 fa 83 00 00
	00		 cmp	 edx, 131		; 00000083H
  00d69	75 44		 jne	 SHORT $LN13@gObjMonste@11
  00d6b	8b 45 08	 mov	 eax, DWORD PTR _lpObj$[ebp]
  00d6e	0f b7 88 b8 00
	00 00		 movzx	 ecx, WORD PTR [eax+184]
  00d75	81 e9 84 00 00
	00		 sub	 ecx, 132		; 00000084H
  00d7b	79 0c		 jns	 SHORT $LN110@gObjMonste@11
  00d7d	c7 85 74 ff ff
	ff 00 00 00 00	 mov	 DWORD PTR tv729[ebp], 0
  00d87	eb 1d		 jmp	 SHORT $LN111@gObjMonste@11
$LN110@gObjMonste@11:
  00d89	8b 55 08	 mov	 edx, DWORD PTR _lpObj$[ebp]
  00d8c	0f b7 82 b8 00
	00 00		 movzx	 eax, WORD PTR [edx+184]
  00d93	2d 84 00 00 00	 sub	 eax, 132		; 00000084H
  00d98	33 c9		 xor	 ecx, ecx
  00d9a	83 f8 02	 cmp	 eax, 2
  00d9d	0f 9e c1	 setle	 cl
  00da0	89 8d 74 ff ff
	ff		 mov	 DWORD PTR tv729[ebp], ecx
$LN111@gObjMonste@11:
  00da6	83 bd 74 ff ff
	ff 00		 cmp	 DWORD PTR tv729[ebp], 0
  00dad	75 1c		 jne	 SHORT $LN14@gObjMonste@11
$LN13@gObjMonste@11:

; 1162 : 					{
; 1163 : 						gObjBackSpring(lpObj, &gObj[aIndex]);

  00daf	8b 45 10	 mov	 eax, DWORD PTR _aIndex$[ebp]
  00db2	69 c0 38 2b 00
	00		 imul	 eax, 11064		; 00002b38H
  00db8	03 05 00 00 00
	00		 add	 eax, DWORD PTR ?gObj@@3PAUOBJECTSTRUCT@@A ; gObj
  00dbe	50		 push	 eax
  00dbf	8b 4d 08	 mov	 ecx, DWORD PTR _lpObj$[ebp]
  00dc2	51		 push	 ecx
  00dc3	e8 00 00 00 00	 call	 ?gObjBackSpring@@YAHPAUOBJECTSTRUCT@@0@Z ; gObjBackSpring
  00dc8	83 c4 08	 add	 esp, 8
$LN14@gObjMonste@11:

; 1164 : 					}
; 1165 : 				}
; 1166 : 			}
; 1167 : 
; 1168 : 			break;

  00dcb	e9 eb 01 00 00	 jmp	 $LN87@gObjMonste@11
$LN12@gObjMonste@11:

; 1169 : 
; 1170 : 		case 3:
; 1171 : 			lpObj->TargetNumber = -1;

  00dd0	83 c8 ff	 or	 eax, -1
  00dd3	8b 4d 08	 mov	 ecx, DWORD PTR _lpObj$[ebp]
  00dd6	66 89 81 58 04
	00 00		 mov	 WORD PTR [ecx+1112], ax

; 1172 : 			lpObj->LastAttackerID = -1;

  00ddd	83 c8 ff	 or	 eax, -1
  00de0	8b 4d 08	 mov	 ecx, DWORD PTR _lpObj$[ebp]
  00de3	66 89 81 5e 04
	00 00		 mov	 WORD PTR [ecx+1118], ax

; 1173 : 			lpObj->m_ActState.Emotion = 0;

  00dea	8b 45 08	 mov	 eax, DWORD PTR _lpObj$[ebp]
  00ded	8b 88 18 02 00
	00		 mov	 ecx, DWORD PTR [eax+536]
  00df3	81 e1 0f ff ff
	ff		 and	 ecx, -241		; ffffff0fH
  00df9	8b 55 08	 mov	 edx, DWORD PTR _lpObj$[ebp]
  00dfc	89 8a 18 02 00
	00		 mov	 DWORD PTR [edx+536], ecx

; 1174 : 			lpObj->m_ActState.Attack = 0;

  00e02	8b 45 08	 mov	 eax, DWORD PTR _lpObj$[ebp]
  00e05	8b 88 18 02 00
	00		 mov	 ecx, DWORD PTR [eax+536]
  00e0b	83 e1 fd	 and	 ecx, -3			; fffffffdH
  00e0e	8b 55 08	 mov	 edx, DWORD PTR _lpObj$[ebp]
  00e11	89 8a 18 02 00
	00		 mov	 DWORD PTR [edx+536], ecx

; 1175 : 			lpObj->m_ActState.Move = 0;

  00e17	8b 45 08	 mov	 eax, DWORD PTR _lpObj$[ebp]
  00e1a	8b 88 18 02 00
	00		 mov	 ecx, DWORD PTR [eax+536]
  00e20	83 e1 fb	 and	 ecx, -5			; fffffffbH
  00e23	8b 55 08	 mov	 edx, DWORD PTR _lpObj$[ebp]
  00e26	89 8a 18 02 00
	00		 mov	 DWORD PTR [edx+536], ecx

; 1176 : 			lpObj->NextActionTime = 1000;

  00e2c	8b 45 08	 mov	 eax, DWORD PTR _lpObj$[ebp]
  00e2f	c7 80 bc 03 00
	00 e8 03 00 00	 mov	 DWORD PTR [eax+956], 1000 ; 000003e8H

; 1177 : 			break;

  00e39	e9 7d 01 00 00	 jmp	 $LN87@gObjMonste@11
$LN11@gObjMonste@11:

; 1178 : 
; 1179 : 		case 4:
; 1180 : 			lpObj->m_ActState.Emotion = 3;

  00e3e	8b 45 08	 mov	 eax, DWORD PTR _lpObj$[ebp]
  00e41	8b 88 18 02 00
	00		 mov	 ecx, DWORD PTR [eax+536]
  00e47	81 e1 0f ff ff
	ff		 and	 ecx, -241		; ffffff0fH
  00e4d	83 c9 30	 or	 ecx, 48			; 00000030H
  00e50	8b 55 08	 mov	 edx, DWORD PTR _lpObj$[ebp]
  00e53	89 8a 18 02 00
	00		 mov	 DWORD PTR [edx+536], ecx

; 1181 : 			lpObj->m_ActState.EmotionCount = 1;

  00e59	8b 45 08	 mov	 eax, DWORD PTR _lpObj$[ebp]
  00e5c	8b 88 18 02 00
	00		 mov	 ecx, DWORD PTR [eax+536]
  00e62	81 e1 ff 00 ff
	ff		 and	 ecx, -65281		; ffff00ffH
  00e68	81 c9 00 01 00
	00		 or	 ecx, 256		; 00000100H
  00e6e	8b 55 08	 mov	 edx, DWORD PTR _lpObj$[ebp]
  00e71	89 8a 18 02 00
	00		 mov	 DWORD PTR [edx+536], ecx

; 1182 : 			break;

  00e77	e9 3f 01 00 00	 jmp	 $LN87@gObjMonste@11
$LN10@gObjMonste@11:

; 1183 : 
; 1184 : 		case 5:
; 1185 : 			gObjMemFree(lpObj->m_Index);

  00e7c	8b 45 08	 mov	 eax, DWORD PTR _lpObj$[ebp]
  00e7f	8b 08		 mov	 ecx, DWORD PTR [eax]
  00e81	51		 push	 ecx
  00e82	e8 00 00 00 00	 call	 ?gObjMemFree@@YAFH@Z	; gObjMemFree
  00e87	83 c4 04	 add	 esp, 4

; 1186 : 			break;

  00e8a	e9 2c 01 00 00	 jmp	 $LN87@gObjMonste@11
$LN9@gObjMonste@11:

; 1187 : 
; 1188 : 		case 6:
; 1189 : 			if ( gObj[aIndex].Live != FALSE )

  00e8f	8b 45 10	 mov	 eax, DWORD PTR _aIndex$[ebp]
  00e92	69 c0 38 2b 00
	00		 imul	 eax, 11064		; 00002b38H
  00e98	8b 0d 00 00 00
	00		 mov	 ecx, DWORD PTR ?gObj@@3PAUOBJECTSTRUCT@@A ; gObj
  00e9e	0f b6 54 01 6a	 movzx	 edx, BYTE PTR [ecx+eax+106]
  00ea3	85 d2		 test	 edx, edx
  00ea5	74 1e		 je	 SHORT $LN8@gObjMonste@11

; 1190 : 			{
; 1191 : 				gObjBackSpring2(lpObj, &gObj[aIndex], 2);

  00ea7	6a 02		 push	 2
  00ea9	8b 45 10	 mov	 eax, DWORD PTR _aIndex$[ebp]
  00eac	69 c0 38 2b 00
	00		 imul	 eax, 11064		; 00002b38H
  00eb2	03 05 00 00 00
	00		 add	 eax, DWORD PTR ?gObj@@3PAUOBJECTSTRUCT@@A ; gObj
  00eb8	50		 push	 eax
  00eb9	8b 4d 08	 mov	 ecx, DWORD PTR _lpObj$[ebp]
  00ebc	51		 push	 ecx
  00ebd	e8 00 00 00 00	 call	 ?gObjBackSpring2@@YAHPAUOBJECTSTRUCT@@0H@Z ; gObjBackSpring2
  00ec2	83 c4 0c	 add	 esp, 12			; 0000000cH
$LN8@gObjMonste@11:

; 1192 : 			}
; 1193 : 
; 1194 : 			break;

  00ec5	e9 f1 00 00 00	 jmp	 $LN87@gObjMonste@11
$LN7@gObjMonste@11:

; 1195 : 
; 1196 : 		case 7:
; 1197 : 			if ( gObj[aIndex].Live != FALSE )

  00eca	8b 45 10	 mov	 eax, DWORD PTR _aIndex$[ebp]
  00ecd	69 c0 38 2b 00
	00		 imul	 eax, 11064		; 00002b38H
  00ed3	8b 0d 00 00 00
	00		 mov	 ecx, DWORD PTR ?gObj@@3PAUOBJECTSTRUCT@@A ; gObj
  00ed9	0f b6 54 01 6a	 movzx	 edx, BYTE PTR [ecx+eax+106]
  00ede	85 d2		 test	 edx, edx
  00ee0	74 1e		 je	 SHORT $LN6@gObjMonste@11

; 1198 : 			{
; 1199 : 				gObjBackSpring2(lpObj, &gObj[aIndex], 3);

  00ee2	6a 03		 push	 3
  00ee4	8b 45 10	 mov	 eax, DWORD PTR _aIndex$[ebp]
  00ee7	69 c0 38 2b 00
	00		 imul	 eax, 11064		; 00002b38H
  00eed	03 05 00 00 00
	00		 add	 eax, DWORD PTR ?gObj@@3PAUOBJECTSTRUCT@@A ; gObj
  00ef3	50		 push	 eax
  00ef4	8b 4d 08	 mov	 ecx, DWORD PTR _lpObj$[ebp]
  00ef7	51		 push	 ecx
  00ef8	e8 00 00 00 00	 call	 ?gObjBackSpring2@@YAHPAUOBJECTSTRUCT@@0H@Z ; gObjBackSpring2
  00efd	83 c4 0c	 add	 esp, 12			; 0000000cH
$LN6@gObjMonste@11:

; 1200 : 			}
; 1201 : 			break;

  00f00	e9 b6 00 00 00	 jmp	 $LN87@gObjMonste@11
$LN5@gObjMonste@11:

; 1202 : 
; 1203 : 		case 55:
; 1204 : 			gObjAttack(lpObj, &gObj[aIndex], NULL, FALSE, 0, 0, FALSE,0,0);

  00f05	6a 00		 push	 0
  00f07	6a 00		 push	 0
  00f09	6a 00		 push	 0
  00f0b	6a 00		 push	 0
  00f0d	6a 00		 push	 0
  00f0f	6a 00		 push	 0
  00f11	6a 00		 push	 0
  00f13	8b 45 10	 mov	 eax, DWORD PTR _aIndex$[ebp]
  00f16	69 c0 38 2b 00
	00		 imul	 eax, 11064		; 00002b38H
  00f1c	03 05 00 00 00
	00		 add	 eax, DWORD PTR ?gObj@@3PAUOBJECTSTRUCT@@A ; gObj
  00f22	50		 push	 eax
  00f23	8b 4d 08	 mov	 ecx, DWORD PTR _lpObj$[ebp]
  00f26	51		 push	 ecx
  00f27	e8 00 00 00 00	 call	 ?gObjAttack@@YAHPAUOBJECTSTRUCT@@0PAVCMagicInf@@HEHHEE@Z ; gObjAttack
  00f2c	83 c4 24	 add	 esp, 36			; 00000024H

; 1205 : 			break;

  00f2f	e9 87 00 00 00	 jmp	 $LN87@gObjMonste@11
$LN4@gObjMonste@11:

; 1206 : 
; 1207 : 		case 56:
; 1208 : 			{
; 1209 : 				LPOBJ lpTargetObj = &gObj[aIndex];

  00f34	8b 45 10	 mov	 eax, DWORD PTR _aIndex$[ebp]
  00f37	69 c0 38 2b 00
	00		 imul	 eax, 11064		; 00002b38H
  00f3d	03 05 00 00 00
	00		 add	 eax, DWORD PTR ?gObj@@3PAUOBJECTSTRUCT@@A ; gObj
  00f43	89 45 bc	 mov	 DWORD PTR _lpTargetObj$246658[ebp], eax

; 1210 : 
; 1211 : 				if(gObjSearchActiveEffect(lpTargetObj, AT_POISON) == FALSE ) //season3 changed

  00f46	6a 37		 push	 55			; 00000037H
  00f48	8b 45 bc	 mov	 eax, DWORD PTR _lpTargetObj$246658[ebp]
  00f4b	50		 push	 eax
  00f4c	e8 00 00 00 00	 call	 ?gObjSearchActiveEffect@@YAEPAUOBJECTSTRUCT@@H@Z ; gObjSearchActiveEffect
  00f51	83 c4 08	 add	 esp, 8
  00f54	0f b6 c8	 movzx	 ecx, al
  00f57	85 c9		 test	 ecx, ecx
  00f59	75 38		 jne	 SHORT $LN2@gObjMonste@11

; 1212 : 				{
; 1213 : 					if ( retResistance(lpTargetObj, 1) == 0 )

  00f5b	6a 01		 push	 1
  00f5d	8b 45 bc	 mov	 eax, DWORD PTR _lpTargetObj$246658[ebp]
  00f60	50		 push	 eax
  00f61	e8 00 00 00 00	 call	 ?retResistance@@YAHPAUOBJECTSTRUCT@@H@Z ; retResistance
  00f66	83 c4 08	 add	 esp, 8
  00f69	85 c0		 test	 eax, eax
  00f6b	75 26		 jne	 SHORT $LN2@gObjMonste@11

; 1214 : 					{
; 1215 : 						lpTargetObj->lpAttackObj = lpObj;

  00f6d	8b 45 bc	 mov	 eax, DWORD PTR _lpTargetObj$246658[ebp]
  00f70	8b 4d 08	 mov	 ecx, DWORD PTR _lpObj$[ebp]
  00f73	89 88 d4 03 00
	00		 mov	 DWORD PTR [eax+980], ecx

; 1216 : 						gObjApplyBuffEffectDuration(lpTargetObj, AT_POISON, 19, 3, 0, 0, aMsgSubCode);

  00f79	8b 45 14	 mov	 eax, DWORD PTR _aMsgSubCode$[ebp]
  00f7c	50		 push	 eax
  00f7d	6a 00		 push	 0
  00f7f	6a 00		 push	 0
  00f81	6a 03		 push	 3
  00f83	6a 13		 push	 19			; 00000013H
  00f85	6a 37		 push	 55			; 00000037H
  00f87	8b 4d bc	 mov	 ecx, DWORD PTR _lpTargetObj$246658[ebp]
  00f8a	51		 push	 ecx
  00f8b	e8 00 00 00 00	 call	 ?gObjApplyBuffEffectDuration@@YAEPAUOBJECTSTRUCT@@HEHEHH@Z ; gObjApplyBuffEffectDuration
  00f90	83 c4 1c	 add	 esp, 28			; 0000001cH
$LN2@gObjMonste@11:

; 1217 : 					}
; 1218 : 				}
; 1219 : 			}
; 1220 : 			break;

  00f93	eb 26		 jmp	 SHORT $LN87@gObjMonste@11
$LN1@gObjMonste@11:

; 1221 : 
; 1222 : 		case 57:
; 1223 : 			{
; 1224 : 				LPOBJ lpTargetObj = &gObj[aIndex];

  00f95	8b 45 10	 mov	 eax, DWORD PTR _aIndex$[ebp]
  00f98	69 c0 38 2b 00
	00		 imul	 eax, 11064		; 00002b38H
  00f9e	03 05 00 00 00
	00		 add	 eax, DWORD PTR ?gObj@@3PAUOBJECTSTRUCT@@A ; gObj
  00fa4	89 45 b8	 mov	 DWORD PTR _lpTargetObj$246662[ebp], eax

; 1225 : 				gObjBackSpring2(lpTargetObj, lpObj, aMsgSubCode);

  00fa7	8b 45 14	 mov	 eax, DWORD PTR _aMsgSubCode$[ebp]
  00faa	50		 push	 eax
  00fab	8b 4d 08	 mov	 ecx, DWORD PTR _lpObj$[ebp]
  00fae	51		 push	 ecx
  00faf	8b 55 b8	 mov	 edx, DWORD PTR _lpTargetObj$246662[ebp]
  00fb2	52		 push	 edx
  00fb3	e8 00 00 00 00	 call	 ?gObjBackSpring2@@YAHPAUOBJECTSTRUCT@@0H@Z ; gObjBackSpring2
  00fb8	83 c4 0c	 add	 esp, 12			; 0000000cH
$LN87@gObjMonste@11:
$LN92@gObjMonste@11:

; 1226 : 			}
; 1227 : 			break;
; 1228 : 		//Miss Case 58 for Eletrict Surge
; 1229 : 	}
; 1230 : }

  00fbb	5f		 pop	 edi
  00fbc	5e		 pop	 esi
  00fbd	5b		 pop	 ebx
  00fbe	8b 4d fc	 mov	 ecx, DWORD PTR __$ArrayPad$[ebp]
  00fc1	33 cd		 xor	 ecx, ebp
  00fc3	e8 00 00 00 00	 call	 @__security_check_cookie@4
  00fc8	8b e5		 mov	 esp, ebp
  00fca	5d		 pop	 ebp
  00fcb	c3		 ret	 0
$LN114@gObjMonste@11:
  00fcc	00 00 00 00	 DD	 $LN86@gObjMonste@11
  00fd0	00 00 00 00	 DD	 $LN45@gObjMonste@11
  00fd4	00 00 00 00	 DD	 $LN17@gObjMonste@11
  00fd8	00 00 00 00	 DD	 $LN12@gObjMonste@11
  00fdc	00 00 00 00	 DD	 $LN11@gObjMonste@11
  00fe0	00 00 00 00	 DD	 $LN10@gObjMonste@11
  00fe4	00 00 00 00	 DD	 $LN9@gObjMonste@11
  00fe8	00 00 00 00	 DD	 $LN7@gObjMonste@11
  00fec	00 00 00 00	 DD	 $LN5@gObjMonste@11
  00ff0	00 00 00 00	 DD	 $LN4@gObjMonste@11
  00ff4	00 00 00 00	 DD	 $LN1@gObjMonste@11
  00ff8	00 00 00 00	 DD	 $LN87@gObjMonste@11
$LN112@gObjMonste@11:
  00ffc	00		 DB	 0
  00ffd	01		 DB	 1
  00ffe	02		 DB	 2
  00fff	03		 DB	 3
  01000	04		 DB	 4
  01001	05		 DB	 5
  01002	06		 DB	 6
  01003	07		 DB	 7
  01004	0b		 DB	 11			; 0000000bH
  01005	0b		 DB	 11			; 0000000bH
  01006	0b		 DB	 11			; 0000000bH
  01007	0b		 DB	 11			; 0000000bH
  01008	0b		 DB	 11			; 0000000bH
  01009	0b		 DB	 11			; 0000000bH
  0100a	0b		 DB	 11			; 0000000bH
  0100b	0b		 DB	 11			; 0000000bH
  0100c	0b		 DB	 11			; 0000000bH
  0100d	0b		 DB	 11			; 0000000bH
  0100e	0b		 DB	 11			; 0000000bH
  0100f	0b		 DB	 11			; 0000000bH
  01010	0b		 DB	 11			; 0000000bH
  01011	0b		 DB	 11			; 0000000bH
  01012	0b		 DB	 11			; 0000000bH
  01013	0b		 DB	 11			; 0000000bH
  01014	0b		 DB	 11			; 0000000bH
  01015	0b		 DB	 11			; 0000000bH
  01016	0b		 DB	 11			; 0000000bH
  01017	0b		 DB	 11			; 0000000bH
  01018	0b		 DB	 11			; 0000000bH
  01019	0b		 DB	 11			; 0000000bH
  0101a	0b		 DB	 11			; 0000000bH
  0101b	0b		 DB	 11			; 0000000bH
  0101c	0b		 DB	 11			; 0000000bH
  0101d	0b		 DB	 11			; 0000000bH
  0101e	0b		 DB	 11			; 0000000bH
  0101f	0b		 DB	 11			; 0000000bH
  01020	0b		 DB	 11			; 0000000bH
  01021	0b		 DB	 11			; 0000000bH
  01022	0b		 DB	 11			; 0000000bH
  01023	0b		 DB	 11			; 0000000bH
  01024	0b		 DB	 11			; 0000000bH
  01025	0b		 DB	 11			; 0000000bH
  01026	0b		 DB	 11			; 0000000bH
  01027	0b		 DB	 11			; 0000000bH
  01028	0b		 DB	 11			; 0000000bH
  01029	0b		 DB	 11			; 0000000bH
  0102a	0b		 DB	 11			; 0000000bH
  0102b	0b		 DB	 11			; 0000000bH
  0102c	0b		 DB	 11			; 0000000bH
  0102d	0b		 DB	 11			; 0000000bH
  0102e	0b		 DB	 11			; 0000000bH
  0102f	0b		 DB	 11			; 0000000bH
  01030	0b		 DB	 11			; 0000000bH
  01031	0b		 DB	 11			; 0000000bH
  01032	0b		 DB	 11			; 0000000bH
  01033	08		 DB	 8
  01034	09		 DB	 9
  01035	0a		 DB	 10			; 0000000aH
?gObjMonsterStateProc@@YAXPAUOBJECTSTRUCT@@HHH@Z ENDP	; gObjMonsterStateProc
_TEXT	ENDS
PUBLIC	?gObjMonsterAttack@@YAXPAUOBJECTSTRUCT@@0@Z	; gObjMonsterAttack
PUBLIC	?gObjMonsterMagicAttack@@YAXPAUOBJECTSTRUCT@@H@Z ; gObjMonsterMagicAttack
PUBLIC	?PathFindMoveMsgSend@@YAHPAUOBJECTSTRUCT@@@Z	; PathFindMoveMsgSend
PUBLIC	?gObjMonsterBaseAct@@YAXPAUOBJECTSTRUCT@@@Z	; gObjMonsterBaseAct
PUBLIC	?gObjMonsterTrapAct@@YAXPAUOBJECTSTRUCT@@@Z	; gObjMonsterTrapAct
PUBLIC	?gObjMonsterProcess@@YAXPAUOBJECTSTRUCT@@@Z	; gObjMonsterProcess
EXTRN	?UseMonsterSkill@TMonsterSkillManager@@SAXHHHHPAVCMagicInf@@@Z:PROC ; TMonsterSkillManager::UseMonsterSkill
EXTRN	?GCActionSend@@YAXPAUOBJECTSTRUCT@@EHH@Z:PROC	; GCActionSend
EXTRN	?CheckMonsterSkill@TMonsterSkillManager@@SAHH@Z:PROC ; TMonsterSkillManager::CheckMonsterSkill
EXTRN	?MoveProc@CDoppelGanger@@QAEXPAUOBJECTSTRUCT@@@Z:PROC ; CDoppelGanger::MoveProc
EXTRN	?gObjTeleportMagicUse@@YAXHEE@Z:PROC		; gObjTeleportMagicUse
EXTRN	?MercenaryAct@CMercenary@@QAEXH@Z:PROC		; CMercenary::MercenaryAct
EXTRN	?gBattleSoccerScoreUpdate@@YAHHH@Z:PROC		; gBattleSoccerScoreUpdate
EXTRN	?gCheckGoal@@YAHHHAAH@Z:PROC			; gCheckGoal
EXTRN	?KalimaGateAct@CKalimaGate@@QAEXH@Z:PROC	; CKalimaGate::KalimaGateAct
EXTRN	?KalimaGateAct2@CKalimaGate@@QAEXH@Z:PROC	; CKalimaGate::KalimaGateAct2
EXTRN	?gObjMsgProc@@YAXPAUOBJECTSTRUCT@@@Z:PROC	; gObjMsgProc
; Function compile flags: /Odtp /ZI /ZX
;	COMDAT ?gObjMonsterProcess@@YAXPAUOBJECTSTRUCT@@@Z
_TEXT	SEGMENT
tv94 = -108						; size = 4
tv150 = -104						; size = 4
tv141 = -104						; size = 4
tv95 = -104						; size = 4
_lc6$246727 = -36					; size = 4
_AttackType$246726 = -32				; size = 4
_pAttackMsg$246718 = -28				; size = 7
_bEnableAttack$246710 = -20				; size = 4
_Success$246695 = -16					; size = 4
_lpCallMonObj$246694 = -12				; size = 4
_team$246683 = -8					; size = 4
_ground$246682 = -4					; size = 4
_lpObj$ = 8						; size = 4
?gObjMonsterProcess@@YAXPAUOBJECTSTRUCT@@@Z PROC	; gObjMonsterProcess, COMDAT

; 1233 : {

  00000	55		 push	 ebp
  00001	8b ec		 mov	 ebp, esp
  00003	83 ec 6c	 sub	 esp, 108		; 0000006cH
  00006	53		 push	 ebx
  00007	56		 push	 esi
  00008	57		 push	 edi

; 1234 : 	gObjMsgProc(lpObj);

  00009	8b 45 08	 mov	 eax, DWORD PTR _lpObj$[ebp]
  0000c	50		 push	 eax
  0000d	e8 00 00 00 00	 call	 ?gObjMsgProc@@YAXPAUOBJECTSTRUCT@@@Z ; gObjMsgProc
  00012	83 c4 04	 add	 esp, 4

; 1235 : 
; 1236 : 	if ( lpObj->Live == FALSE )

  00015	8b 45 08	 mov	 eax, DWORD PTR _lpObj$[ebp]
  00018	0f b6 48 6a	 movzx	 ecx, BYTE PTR [eax+106]
  0001c	85 c9		 test	 ecx, ecx
  0001e	75 05		 jne	 SHORT $LN69@gObjMonste@12

; 1237 : 	{
; 1238 : 		return;

  00020	e9 c0 0a 00 00	 jmp	 $LN70@gObjMonste@12
$LN69@gObjMonste@12:

; 1239 : 	}
; 1240 : 
; 1241 : 	if ( lpObj->m_iMonsterBattleDelay > 0 )

  00025	8b 45 08	 mov	 eax, DWORD PTR _lpObj$[ebp]
  00028	0f be 88 c9 03
	00 00		 movsx	 ecx, BYTE PTR [eax+969]
  0002f	85 c9		 test	 ecx, ecx
  00031	7e 15		 jle	 SHORT $LN68@gObjMonste@12

; 1242 : 	{
; 1243 : 		lpObj->m_iMonsterBattleDelay--;

  00033	8b 45 08	 mov	 eax, DWORD PTR _lpObj$[ebp]
  00036	8a 88 c9 03 00
	00		 mov	 cl, BYTE PTR [eax+969]
  0003c	80 e9 01	 sub	 cl, 1
  0003f	8b 55 08	 mov	 edx, DWORD PTR _lpObj$[ebp]
  00042	88 8a c9 03 00
	00		 mov	 BYTE PTR [edx+969], cl
$LN68@gObjMonste@12:

; 1244 : 	}
; 1245 : 
; 1246 : 	if ( (GetTickCount() - lpObj->CurActionTime ) < (lpObj->NextActionTime + lpObj->DelayActionTime) )

  00048	ff 15 00 00 00
	00		 call	 DWORD PTR __imp__GetTickCount@0
  0004e	8b 4d 08	 mov	 ecx, DWORD PTR _lpObj$[ebp]
  00051	2b 81 b8 03 00
	00		 sub	 eax, DWORD PTR [ecx+952]
  00057	8b 55 08	 mov	 edx, DWORD PTR _lpObj$[ebp]
  0005a	8b 8a bc 03 00
	00		 mov	 ecx, DWORD PTR [edx+956]
  00060	8b 55 08	 mov	 edx, DWORD PTR _lpObj$[ebp]
  00063	03 8a c0 03 00
	00		 add	 ecx, DWORD PTR [edx+960]
  00069	3b c1		 cmp	 eax, ecx
  0006b	73 05		 jae	 SHORT $LN67@gObjMonste@12

; 1247 : 	{
; 1248 : 		return;

  0006d	e9 73 0a 00 00	 jmp	 $LN70@gObjMonste@12
$LN67@gObjMonste@12:

; 1249 : 	}
; 1250 : 
; 1251 : 	lpObj->CurActionTime = GetTickCount();

  00072	ff 15 00 00 00
	00		 call	 DWORD PTR __imp__GetTickCount@0
  00078	8b 4d 08	 mov	 ecx, DWORD PTR _lpObj$[ebp]
  0007b	89 81 b8 03 00
	00		 mov	 DWORD PTR [ecx+952], eax

; 1252 : 
; 1253 : 	if ( BC_MAP_RANGE(lpObj->MapNumber) != FALSE )

  00081	8b 45 08	 mov	 eax, DWORD PTR _lpObj$[ebp]
  00084	0f b6 88 49 01
	00 00		 movzx	 ecx, BYTE PTR [eax+329]
  0008b	83 f9 34	 cmp	 ecx, 52			; 00000034H
  0008e	75 09		 jne	 SHORT $LN74@gObjMonste@12
  00090	c7 45 98 01 00
	00 00		 mov	 DWORD PTR tv95[ebp], 1
  00097	eb 33		 jmp	 SHORT $LN75@gObjMonste@12
$LN74@gObjMonste@12:
  00099	8b 55 08	 mov	 edx, DWORD PTR _lpObj$[ebp]
  0009c	0f b6 82 49 01
	00 00		 movzx	 eax, BYTE PTR [edx+329]
  000a3	83 f8 0b	 cmp	 eax, 11			; 0000000bH
  000a6	7d 09		 jge	 SHORT $LN72@gObjMonste@12
  000a8	c7 45 94 00 00
	00 00		 mov	 DWORD PTR tv94[ebp], 0
  000af	eb 15		 jmp	 SHORT $LN73@gObjMonste@12
$LN72@gObjMonste@12:
  000b1	8b 4d 08	 mov	 ecx, DWORD PTR _lpObj$[ebp]
  000b4	0f b6 91 49 01
	00 00		 movzx	 edx, BYTE PTR [ecx+329]
  000bb	33 c0		 xor	 eax, eax
  000bd	83 fa 11	 cmp	 edx, 17			; 00000011H
  000c0	0f 9e c0	 setle	 al
  000c3	89 45 94	 mov	 DWORD PTR tv94[ebp], eax
$LN73@gObjMonste@12:
  000c6	8b 4d 94	 mov	 ecx, DWORD PTR tv94[ebp]
  000c9	89 4d 98	 mov	 DWORD PTR tv95[ebp], ecx
$LN75@gObjMonste@12:
  000cc	83 7d 98 00	 cmp	 DWORD PTR tv95[ebp], 0
  000d0	74 52		 je	 SHORT $LN66@gObjMonste@12

; 1254 : 	{
; 1255 : 		if ( lpObj->Class == 131|| ((lpObj->Class-132<0)?FALSE:(lpObj->Class-132>2)?FALSE:TRUE) != FALSE )

  000d2	8b 45 08	 mov	 eax, DWORD PTR _lpObj$[ebp]
  000d5	0f b7 88 b8 00
	00 00		 movzx	 ecx, WORD PTR [eax+184]
  000dc	81 f9 83 00 00
	00		 cmp	 ecx, 131		; 00000083H
  000e2	74 3b		 je	 SHORT $LN64@gObjMonste@12
  000e4	8b 45 08	 mov	 eax, DWORD PTR _lpObj$[ebp]
  000e7	0f b7 88 b8 00
	00 00		 movzx	 ecx, WORD PTR [eax+184]
  000ee	81 e9 84 00 00
	00		 sub	 ecx, 132		; 00000084H
  000f4	79 09		 jns	 SHORT $LN76@gObjMonste@12
  000f6	c7 45 98 00 00
	00 00		 mov	 DWORD PTR tv141[ebp], 0
  000fd	eb 1a		 jmp	 SHORT $LN77@gObjMonste@12
$LN76@gObjMonste@12:
  000ff	8b 55 08	 mov	 edx, DWORD PTR _lpObj$[ebp]
  00102	0f b7 82 b8 00
	00 00		 movzx	 eax, WORD PTR [edx+184]
  00109	2d 84 00 00 00	 sub	 eax, 132		; 00000084H
  0010e	33 c9		 xor	 ecx, ecx
  00110	83 f8 02	 cmp	 eax, 2
  00113	0f 9e c1	 setle	 cl
  00116	89 4d 98	 mov	 DWORD PTR tv141[ebp], ecx
$LN77@gObjMonste@12:
  00119	83 7d 98 00	 cmp	 DWORD PTR tv141[ebp], 0
  0011d	74 05		 je	 SHORT $LN66@gObjMonste@12
$LN64@gObjMonste@12:

; 1256 : 		{
; 1257 : 			return;

  0011f	e9 c1 09 00 00	 jmp	 $LN70@gObjMonste@12
$LN66@gObjMonste@12:

; 1258 : 		}
; 1259 : 	}
; 1260 : 
; 1261 : 	if ( ((lpObj->m_Attribute < 51)?FALSE:(lpObj->m_Attribute > 58)?FALSE:TRUE) != FALSE )

  00124	8b 45 08	 mov	 eax, DWORD PTR _lpObj$[ebp]
  00127	0f bf 88 b6 04
	00 00		 movsx	 ecx, WORD PTR [eax+1206]
  0012e	83 f9 33	 cmp	 ecx, 51			; 00000033H
  00131	7d 09		 jge	 SHORT $LN78@gObjMonste@12
  00133	c7 45 98 00 00
	00 00		 mov	 DWORD PTR tv150[ebp], 0
  0013a	eb 15		 jmp	 SHORT $LN79@gObjMonste@12
$LN78@gObjMonste@12:
  0013c	8b 55 08	 mov	 edx, DWORD PTR _lpObj$[ebp]
  0013f	0f bf 82 b6 04
	00 00		 movsx	 eax, WORD PTR [edx+1206]
  00146	33 c9		 xor	 ecx, ecx
  00148	83 f8 3a	 cmp	 eax, 58			; 0000003aH
  0014b	0f 9e c1	 setle	 cl
  0014e	89 4d 98	 mov	 DWORD PTR tv150[ebp], ecx
$LN79@gObjMonste@12:
  00151	83 7d 98 00	 cmp	 DWORD PTR tv150[ebp], 0
  00155	74 39		 je	 SHORT $LN63@gObjMonste@12

; 1262 : 	{
; 1263 : 		if ( lpObj->m_Attribute == 58 )

  00157	8b 45 08	 mov	 eax, DWORD PTR _lpObj$[ebp]
  0015a	0f bf 88 b6 04
	00 00		 movsx	 ecx, WORD PTR [eax+1206]
  00161	83 f9 3a	 cmp	 ecx, 58			; 0000003aH
  00164	75 15		 jne	 SHORT $LN62@gObjMonste@12

; 1264 : 		{
; 1265 : 			g_KalimaGate.KalimaGateAct2(lpObj->m_Index);

  00166	8b 45 08	 mov	 eax, DWORD PTR _lpObj$[ebp]
  00169	8b 08		 mov	 ecx, DWORD PTR [eax]
  0016b	51		 push	 ecx
  0016c	b9 00 00 00 00	 mov	 ecx, OFFSET ?g_KalimaGate@@3VCKalimaGate@@A ; g_KalimaGate
  00171	e8 00 00 00 00	 call	 ?KalimaGateAct2@CKalimaGate@@QAEXH@Z ; CKalimaGate::KalimaGateAct2

; 1266 : 			return;

  00176	e9 6a 09 00 00	 jmp	 $LN70@gObjMonste@12
$LN62@gObjMonste@12:

; 1267 : 		}
; 1268 : 
; 1269 : 		g_KalimaGate.KalimaGateAct(lpObj->m_Index);

  0017b	8b 45 08	 mov	 eax, DWORD PTR _lpObj$[ebp]
  0017e	8b 08		 mov	 ecx, DWORD PTR [eax]
  00180	51		 push	 ecx
  00181	b9 00 00 00 00	 mov	 ecx, OFFSET ?g_KalimaGate@@3VCKalimaGate@@A ; g_KalimaGate
  00186	e8 00 00 00 00	 call	 ?KalimaGateAct@CKalimaGate@@QAEXH@Z ; CKalimaGate::KalimaGateAct

; 1270 : 		return;

  0018b	e9 55 09 00 00	 jmp	 $LN70@gObjMonste@12
$LN63@gObjMonste@12:

; 1271 : 	}
; 1272 : 
; 1273 : //#if(GS_CASTLE==1)
; 1274 : 	if(lpObj->Class == 283)

  00190	8b 45 08	 mov	 eax, DWORD PTR _lpObj$[ebp]
  00193	0f b7 88 b8 00
	00 00		 movzx	 ecx, WORD PTR [eax+184]
  0019a	81 f9 1b 01 00
	00		 cmp	 ecx, 283		; 0000011bH
  001a0	75 07		 jne	 SHORT $LN61@gObjMonste@12

; 1275 : 	{
; 1276 : 		return;

  001a2	e9 3e 09 00 00	 jmp	 $LN70@gObjMonste@12
  001a7	eb 30		 jmp	 SHORT $LN60@gObjMonste@12
$LN61@gObjMonste@12:

; 1277 : 	}
; 1278 : 	else if(lpObj->Class == 288)

  001a9	8b 45 08	 mov	 eax, DWORD PTR _lpObj$[ebp]
  001ac	0f b7 88 b8 00
	00 00		 movzx	 ecx, WORD PTR [eax+184]
  001b3	81 f9 20 01 00
	00		 cmp	 ecx, 288		; 00000120H
  001b9	75 07		 jne	 SHORT $LN59@gObjMonste@12

; 1279 : 	{
; 1280 : 		return;

  001bb	e9 25 09 00 00	 jmp	 $LN70@gObjMonste@12
  001c0	eb 17		 jmp	 SHORT $LN60@gObjMonste@12
$LN59@gObjMonste@12:

; 1281 : 	}
; 1282 : 	else if(lpObj->Class == 278)

  001c2	8b 45 08	 mov	 eax, DWORD PTR _lpObj$[ebp]
  001c5	0f b7 88 b8 00
	00 00		 movzx	 ecx, WORD PTR [eax+184]
  001cc	81 f9 16 01 00
	00		 cmp	 ecx, 278		; 00000116H
  001d2	75 05		 jne	 SHORT $LN60@gObjMonste@12

; 1283 : 	{
; 1284 : 		return;

  001d4	e9 0c 09 00 00	 jmp	 $LN70@gObjMonste@12
$LN60@gObjMonste@12:

; 1285 : 	}
; 1286 : //#endif
; 1287 : 
; 1288 : 	if ( lpObj->Class >= 100 && lpObj->Class <= 110 )

  001d9	8b 45 08	 mov	 eax, DWORD PTR _lpObj$[ebp]
  001dc	0f b7 88 b8 00
	00 00		 movzx	 ecx, WORD PTR [eax+184]
  001e3	83 f9 64	 cmp	 ecx, 100		; 00000064H
  001e6	7c 20		 jl	 SHORT $LN56@gObjMonste@12
  001e8	8b 45 08	 mov	 eax, DWORD PTR _lpObj$[ebp]
  001eb	0f b7 88 b8 00
	00 00		 movzx	 ecx, WORD PTR [eax+184]
  001f2	83 f9 6e	 cmp	 ecx, 110		; 0000006eH
  001f5	7f 11		 jg	 SHORT $LN56@gObjMonste@12

; 1289 : 	{
; 1290 : 		gObjMonsterTrapAct(lpObj);

  001f7	8b 45 08	 mov	 eax, DWORD PTR _lpObj$[ebp]
  001fa	50		 push	 eax
  001fb	e8 00 00 00 00	 call	 ?gObjMonsterTrapAct@@YAXPAUOBJECTSTRUCT@@@Z ; gObjMonsterTrapAct
  00200	83 c4 04	 add	 esp, 4
  00203	e9 d9 00 00 00	 jmp	 $LN55@gObjMonste@12
$LN56@gObjMonste@12:

; 1291 : 		
; 1292 : 	}
; 1293 : 	else if ( lpObj->Class == 200 )

  00208	8b 45 08	 mov	 eax, DWORD PTR _lpObj$[ebp]
  0020b	0f b7 88 b8 00
	00 00		 movzx	 ecx, WORD PTR [eax+184]
  00212	81 f9 c8 00 00
	00		 cmp	 ecx, 200		; 000000c8H
  00218	75 4e		 jne	 SHORT $LN54@gObjMonste@12

; 1294 : 	{
; 1295 : 		int ground;
; 1296 : 		int team = gCheckGoal(lpObj->X, lpObj->Y, ground);

  0021a	8d 45 fc	 lea	 eax, DWORD PTR _ground$246682[ebp]
  0021d	50		 push	 eax
  0021e	8b 4d 08	 mov	 ecx, DWORD PTR _lpObj$[ebp]
  00221	0f bf 91 46 01
	00 00		 movsx	 edx, WORD PTR [ecx+326]
  00228	52		 push	 edx
  00229	8b 45 08	 mov	 eax, DWORD PTR _lpObj$[ebp]
  0022c	0f bf 88 44 01
	00 00		 movsx	 ecx, WORD PTR [eax+324]
  00233	51		 push	 ecx
  00234	e8 00 00 00 00	 call	 ?gCheckGoal@@YAHHHAAH@Z	; gCheckGoal
  00239	83 c4 0c	 add	 esp, 12			; 0000000cH
  0023c	89 45 f8	 mov	 DWORD PTR _team$246683[ebp], eax

; 1297 : 
; 1298 : 		if ( team >= 0 )

  0023f	83 7d f8 00	 cmp	 DWORD PTR _team$246683[ebp], 0
  00243	7c 21		 jl	 SHORT $LN53@gObjMonste@12

; 1299 : 		{
; 1300 : 			gObjMonsterRegen(lpObj);

  00245	8b 45 08	 mov	 eax, DWORD PTR _lpObj$[ebp]
  00248	50		 push	 eax
  00249	e8 00 00 00 00	 call	 ?gObjMonsterRegen@@YAHPAUOBJECTSTRUCT@@@Z ; gObjMonsterRegen
  0024e	83 c4 04	 add	 esp, 4

; 1301 : 			gBattleSoccerScoreUpdate(ground, team);

  00251	8b 45 f8	 mov	 eax, DWORD PTR _team$246683[ebp]
  00254	50		 push	 eax
  00255	8b 4d fc	 mov	 ecx, DWORD PTR _ground$246682[ebp]
  00258	51		 push	 ecx
  00259	e8 00 00 00 00	 call	 ?gBattleSoccerScoreUpdate@@YAHHH@Z ; gBattleSoccerScoreUpdate
  0025e	83 c4 08	 add	 esp, 8

; 1302 : 			return;

  00261	e9 7f 08 00 00	 jmp	 $LN70@gObjMonste@12
$LN53@gObjMonste@12:

; 1303 : 		}
; 1304 : 	}
; 1305 : 	else 

  00266	eb 79		 jmp	 SHORT $LN55@gObjMonste@12
$LN54@gObjMonste@12:

; 1306 : 	{
; 1307 : 		if ( lpObj->Class == 287 || lpObj->Class == 286 )

  00268	8b 45 08	 mov	 eax, DWORD PTR _lpObj$[ebp]
  0026b	0f b7 88 b8 00
	00 00		 movzx	 ecx, WORD PTR [eax+184]
  00272	81 f9 1f 01 00
	00		 cmp	 ecx, 287		; 0000011fH
  00278	74 12		 je	 SHORT $LN50@gObjMonste@12
  0027a	8b 45 08	 mov	 eax, DWORD PTR _lpObj$[ebp]
  0027d	0f b7 88 b8 00
	00 00		 movzx	 ecx, WORD PTR [eax+184]
  00284	81 f9 1e 01 00
	00		 cmp	 ecx, 286		; 0000011eH
  0028a	75 12		 jne	 SHORT $LN51@gObjMonste@12
$LN50@gObjMonste@12:

; 1308 : 		{
; 1309 : 			g_CsNPC_Mercenary.MercenaryAct(lpObj->m_Index);

  0028c	8b 45 08	 mov	 eax, DWORD PTR _lpObj$[ebp]
  0028f	8b 08		 mov	 ecx, DWORD PTR [eax]
  00291	51		 push	 ecx
  00292	b9 00 00 00 00	 mov	 ecx, OFFSET ?g_CsNPC_Mercenary@@3VCMercenary@@A ; g_CsNPC_Mercenary
  00297	e8 00 00 00 00	 call	 ?MercenaryAct@CMercenary@@QAEXH@Z ; CMercenary::MercenaryAct
  0029c	eb 43		 jmp	 SHORT $LN55@gObjMonste@12
$LN51@gObjMonste@12:

; 1310 : 		}
; 1311 : 		
; 1312 : #ifdef IMPERIAL_CONFLICT_NEW
; 1313 : 		else if ( lpObj->Class >= 504 && lpObj->Class <= 521)
; 1314 : 		{
; 1315 : 			g_ImperialGuardian.MonsterBaseAct(lpObj);
; 1316 : 		}
; 1317 : #endif
; 1318 : 		else if ( lpObj->m_bIsInMonsterHerd != false )

  0029e	8b 45 08	 mov	 eax, DWORD PTR _lpObj$[ebp]
  002a1	83 b8 e8 10 00
	00 00		 cmp	 DWORD PTR [eax+4328], 0
  002a8	74 2b		 je	 SHORT $LN48@gObjMonste@12

; 1319 : 		{
; 1320 : 			if ( lpObj->m_lpMonsterHerd != NULL )

  002aa	8b 45 08	 mov	 eax, DWORD PTR _lpObj$[ebp]
  002ad	83 b8 f0 10 00
	00 00		 cmp	 DWORD PTR [eax+4336], 0
  002b4	74 1d		 je	 SHORT $LN47@gObjMonste@12

; 1321 : 			{
; 1322 : 				lpObj->m_lpMonsterHerd->MonsterBaseAct(lpObj);

  002b6	8b 45 08	 mov	 eax, DWORD PTR _lpObj$[ebp]
  002b9	50		 push	 eax
  002ba	8b 4d 08	 mov	 ecx, DWORD PTR _lpObj$[ebp]
  002bd	8b 91 f0 10 00
	00		 mov	 edx, DWORD PTR [ecx+4336]
  002c3	8b 45 08	 mov	 eax, DWORD PTR _lpObj$[ebp]
  002c6	8b 88 f0 10 00
	00		 mov	 ecx, DWORD PTR [eax+4336]
  002cc	8b 12		 mov	 edx, DWORD PTR [edx]
  002ce	8b 42 40	 mov	 eax, DWORD PTR [edx+64]
  002d1	ff d0		 call	 eax
$LN47@gObjMonste@12:

; 1323 : 			}
; 1324 : 		}
; 1325 : 		else

  002d3	eb 0c		 jmp	 SHORT $LN55@gObjMonste@12
$LN48@gObjMonste@12:

; 1326 : 		{
; 1327 : 			gObjMonsterBaseAct(lpObj);

  002d5	8b 45 08	 mov	 eax, DWORD PTR _lpObj$[ebp]
  002d8	50		 push	 eax
  002d9	e8 00 00 00 00	 call	 ?gObjMonsterBaseAct@@YAXPAUOBJECTSTRUCT@@@Z ; gObjMonsterBaseAct
  002de	83 c4 04	 add	 esp, 4
$LN55@gObjMonste@12:

; 1328 : 		}
; 1329 : 	}
; 1330 : 
; 1331 : 	if ( lpObj->m_Attribute == 100 )

  002e1	8b 45 08	 mov	 eax, DWORD PTR _lpObj$[ebp]
  002e4	0f bf 88 b6 04
	00 00		 movsx	 ecx, WORD PTR [eax+1206]
  002eb	83 f9 64	 cmp	 ecx, 100		; 00000064H
  002ee	0f 85 c1 00 00
	00		 jne	 $LN45@gObjMonste@12

; 1332 : 	{
; 1333 : 		if ( lpObj->m_RecallMon >= 0 && lpObj->m_RecallMon < OBJMAX )

  002f4	8b 45 08	 mov	 eax, DWORD PTR _lpObj$[ebp]
  002f7	83 b8 50 04 00
	00 00		 cmp	 DWORD PTR [eax+1104], 0
  002fe	0f 8c b1 00 00
	00		 jl	 $LN45@gObjMonste@12
  00304	8b 45 08	 mov	 eax, DWORD PTR _lpObj$[ebp]
  00307	81 b8 50 04 00
	00 98 3a 00 00	 cmp	 DWORD PTR [eax+1104], 15000 ; 00003a98H
  00311	0f 8d 9e 00 00
	00		 jge	 $LN45@gObjMonste@12

; 1334 : 		{
; 1335 : 			LPOBJ lpCallMonObj;
; 1336 : 			BOOL Success = FALSE;

  00317	c7 45 f0 00 00
	00 00		 mov	 DWORD PTR _Success$246695[ebp], 0

; 1337 : 
; 1338 : 			lpCallMonObj = &gObj[lpObj->m_RecallMon];

  0031e	8b 45 08	 mov	 eax, DWORD PTR _lpObj$[ebp]
  00321	8b 88 50 04 00
	00		 mov	 ecx, DWORD PTR [eax+1104]
  00327	69 c9 38 2b 00
	00		 imul	 ecx, 11064		; 00002b38H
  0032d	03 0d 00 00 00
	00		 add	 ecx, DWORD PTR ?gObj@@3PAUOBJECTSTRUCT@@A ; gObj
  00333	89 4d f4	 mov	 DWORD PTR _lpCallMonObj$246694[ebp], ecx

; 1339 : 
; 1340 : 
; 1341 : 			if ( lpObj->MapNumber != lpCallMonObj->MapNumber )

  00336	8b 45 08	 mov	 eax, DWORD PTR _lpObj$[ebp]
  00339	0f b6 88 49 01
	00 00		 movzx	 ecx, BYTE PTR [eax+329]
  00340	8b 55 f4	 mov	 edx, DWORD PTR _lpCallMonObj$246694[ebp]
  00343	0f b6 82 49 01
	00 00		 movzx	 eax, BYTE PTR [edx+329]
  0034a	3b c8		 cmp	 ecx, eax
  0034c	74 07		 je	 SHORT $LN43@gObjMonste@12

; 1342 : 			{
; 1343 : 				Success = TRUE;

  0034e	c7 45 f0 01 00
	00 00		 mov	 DWORD PTR _Success$246695[ebp], 1
$LN43@gObjMonste@12:

; 1344 : 			}
; 1345 : 	
; 1346 : 			if ( gObjCalDistance(lpCallMonObj, lpObj)> 14 )

  00355	8b 45 08	 mov	 eax, DWORD PTR _lpObj$[ebp]
  00358	50		 push	 eax
  00359	8b 4d f4	 mov	 ecx, DWORD PTR _lpCallMonObj$246694[ebp]
  0035c	51		 push	 ecx
  0035d	e8 00 00 00 00	 call	 ?gObjCalDistance@@YAHPAUOBJECTSTRUCT@@0@Z ; gObjCalDistance
  00362	83 c4 08	 add	 esp, 8
  00365	83 f8 0e	 cmp	 eax, 14			; 0000000eH
  00368	7e 07		 jle	 SHORT $LN42@gObjMonste@12

; 1347 : 			{
; 1348 : 				Success = TRUE;

  0036a	c7 45 f0 01 00
	00 00		 mov	 DWORD PTR _Success$246695[ebp], 1
$LN42@gObjMonste@12:

; 1349 : 			}
; 1350 : 
; 1351 : 			if ( Success == TRUE )

  00371	83 7d f0 01	 cmp	 DWORD PTR _Success$246695[ebp], 1
  00375	75 3e		 jne	 SHORT $LN45@gObjMonste@12

; 1352 : 			{
; 1353 : 				gObjTeleportMagicUse(lpObj->m_Index, (BYTE)lpCallMonObj->X+1, lpCallMonObj->Y);

  00377	8b 45 f4	 mov	 eax, DWORD PTR _lpCallMonObj$246694[ebp]
  0037a	0f b6 88 46 01
	00 00		 movzx	 ecx, BYTE PTR [eax+326]
  00381	51		 push	 ecx
  00382	8b 55 f4	 mov	 edx, DWORD PTR _lpCallMonObj$246694[ebp]
  00385	0f b6 82 44 01
	00 00		 movzx	 eax, BYTE PTR [edx+324]
  0038c	83 c0 01	 add	 eax, 1
  0038f	50		 push	 eax
  00390	8b 4d 08	 mov	 ecx, DWORD PTR _lpObj$[ebp]
  00393	8b 11		 mov	 edx, DWORD PTR [ecx]
  00395	52		 push	 edx
  00396	e8 00 00 00 00	 call	 ?gObjTeleportMagicUse@@YAXHEE@Z ; gObjTeleportMagicUse
  0039b	83 c4 0c	 add	 esp, 12			; 0000000cH

; 1354 : 				lpObj->MapNumber = lpCallMonObj->MapNumber;

  0039e	8b 45 08	 mov	 eax, DWORD PTR _lpObj$[ebp]
  003a1	8b 4d f4	 mov	 ecx, DWORD PTR _lpCallMonObj$246694[ebp]
  003a4	8a 91 49 01 00
	00		 mov	 dl, BYTE PTR [ecx+329]
  003aa	88 90 49 01 00
	00		 mov	 BYTE PTR [eax+329], dl

; 1355 : 
; 1356 : 				return;

  003b0	e9 30 07 00 00	 jmp	 $LN70@gObjMonste@12
$LN45@gObjMonste@12:

; 1357 : 			}
; 1358 : 		}
; 1359 : 	}
; 1360 : 
; 1361 : 	if ( lpObj->m_ActState.Move != 0 )

  003b5	8b 45 08	 mov	 eax, DWORD PTR _lpObj$[ebp]
  003b8	8b 88 18 02 00
	00		 mov	 ecx, DWORD PTR [eax+536]
  003be	c1 e9 02	 shr	 ecx, 2
  003c1	83 e1 01	 and	 ecx, 1
  003c4	74 7a		 je	 SHORT $LN40@gObjMonste@12

; 1362 : 	{
; 1363 : 		if ( g_DoppelGanger.IsDGMonster(lpObj) )	//Season 5 DoppelGanger

  003c6	8b 45 08	 mov	 eax, DWORD PTR _lpObj$[ebp]
  003c9	50		 push	 eax
  003ca	b9 00 00 00 00	 mov	 ecx, OFFSET ?g_DoppelGanger@@3VCDoppelGanger@@A ; g_DoppelGanger
  003cf	e8 00 00 00 00	 call	 ?IsDGMonster@CDoppelGanger@@QAE_NPAUOBJECTSTRUCT@@@Z ; CDoppelGanger::IsDGMonster
  003d4	0f b6 c8	 movzx	 ecx, al
  003d7	85 c9		 test	 ecx, ecx
  003d9	74 25		 je	 SHORT $LN39@gObjMonste@12

; 1364 : 		{
; 1365 : 			g_DoppelGanger.MoveProc(lpObj);

  003db	8b 45 08	 mov	 eax, DWORD PTR _lpObj$[ebp]
  003de	50		 push	 eax
  003df	b9 00 00 00 00	 mov	 ecx, OFFSET ?g_DoppelGanger@@3VCDoppelGanger@@A ; g_DoppelGanger
  003e4	e8 00 00 00 00	 call	 ?MoveProc@CDoppelGanger@@QAEXPAUOBJECTSTRUCT@@@Z ; CDoppelGanger::MoveProc

; 1366 : 			lpObj->m_ActState.Move = (DWORD)0;

  003e9	8b 45 08	 mov	 eax, DWORD PTR _lpObj$[ebp]
  003ec	8b 88 18 02 00
	00		 mov	 ecx, DWORD PTR [eax+536]
  003f2	83 e1 fb	 and	 ecx, -5			; fffffffbH
  003f5	8b 55 08	 mov	 edx, DWORD PTR _lpObj$[ebp]
  003f8	89 8a 18 02 00
	00		 mov	 DWORD PTR [edx+536], ecx
  003fe	eb 26		 jmp	 SHORT $LN38@gObjMonste@12
$LN39@gObjMonste@12:

; 1367 : 		}
; 1368 : 		else if ( PathFindMoveMsgSend(lpObj ) == TRUE )

  00400	8b 45 08	 mov	 eax, DWORD PTR _lpObj$[ebp]
  00403	50		 push	 eax
  00404	e8 00 00 00 00	 call	 ?PathFindMoveMsgSend@@YAHPAUOBJECTSTRUCT@@@Z ; PathFindMoveMsgSend
  00409	83 c4 04	 add	 esp, 4
  0040c	83 f8 01	 cmp	 eax, 1
  0040f	75 15		 jne	 SHORT $LN38@gObjMonste@12

; 1369 : 		{
; 1370 : 			lpObj->m_ActState.Move  = (DWORD)0;

  00411	8b 45 08	 mov	 eax, DWORD PTR _lpObj$[ebp]
  00414	8b 88 18 02 00
	00		 mov	 ecx, DWORD PTR [eax+536]
  0041a	83 e1 fb	 and	 ecx, -5			; fffffffbH
  0041d	8b 55 08	 mov	 edx, DWORD PTR _lpObj$[ebp]
  00420	89 8a 18 02 00
	00		 mov	 DWORD PTR [edx+536], ecx
$LN38@gObjMonste@12:

; 1371 : 		}
; 1372 : 		lpObj->m_ActState.Move = (DWORD)0;

  00426	8b 45 08	 mov	 eax, DWORD PTR _lpObj$[ebp]
  00429	8b 88 18 02 00
	00		 mov	 ecx, DWORD PTR [eax+536]
  0042f	83 e1 fb	 and	 ecx, -5			; fffffffbH
  00432	8b 55 08	 mov	 edx, DWORD PTR _lpObj$[ebp]
  00435	89 8a 18 02 00
	00		 mov	 DWORD PTR [edx+536], ecx

; 1373 : 		return;

  0043b	e9 a5 06 00 00	 jmp	 $LN70@gObjMonste@12
$LN40@gObjMonste@12:

; 1374 : 	}
; 1375 : 
; 1376 : 	if ( lpObj->m_ActState.Attack == 1 )

  00440	8b 45 08	 mov	 eax, DWORD PTR _lpObj$[ebp]
  00443	8b 88 18 02 00
	00		 mov	 ecx, DWORD PTR [eax+536]
  00449	d1 e9		 shr	 ecx, 1
  0044b	83 e1 01	 and	 ecx, 1
  0044e	0f 84 91 06 00
	00		 je	 $LN70@gObjMonste@12

; 1377 : 	{
; 1378 : 		if(lpObj->Connected == PLAYER_PLAYING && lpObj->Type == OBJ_MONSTER && lpObj->Class == 459 )//Season 4.5 addon

  00454	8b 45 08	 mov	 eax, DWORD PTR _lpObj$[ebp]
  00457	83 78 04 03	 cmp	 DWORD PTR [eax+4], 3
  0045b	75 23		 jne	 SHORT $LN35@gObjMonste@12
  0045d	8b 45 08	 mov	 eax, DWORD PTR _lpObj$[ebp]
  00460	0f b7 48 68	 movzx	 ecx, WORD PTR [eax+104]
  00464	83 f9 02	 cmp	 ecx, 2
  00467	75 17		 jne	 SHORT $LN35@gObjMonste@12
  00469	8b 45 08	 mov	 eax, DWORD PTR _lpObj$[ebp]
  0046c	0f b7 88 b8 00
	00 00		 movzx	 ecx, WORD PTR [eax+184]
  00473	81 f9 cb 01 00
	00		 cmp	 ecx, 459		; 000001cbH
  00479	75 05		 jne	 SHORT $LN35@gObjMonste@12

; 1379 : 		{
; 1380 : 			return;

  0047b	e9 65 06 00 00	 jmp	 $LN70@gObjMonste@12
$LN35@gObjMonste@12:

; 1381 : 		}
; 1382 : 
; 1383 : 		if ( TMonsterSkillManager::CheckMonsterSkill(lpObj->Class) )

  00480	8b 45 08	 mov	 eax, DWORD PTR _lpObj$[ebp]
  00483	0f b7 88 b8 00
	00 00		 movzx	 ecx, WORD PTR [eax+184]
  0048a	51		 push	 ecx
  0048b	e8 00 00 00 00	 call	 ?CheckMonsterSkill@TMonsterSkillManager@@SAHH@Z ; TMonsterSkillManager::CheckMonsterSkill
  00490	83 c4 04	 add	 esp, 4
  00493	85 c0		 test	 eax, eax
  00495	0f 84 40 02 00
	00		 je	 $LN34@gObjMonste@12

; 1384 : 		{
; 1385 : 			BOOL bEnableAttack = TRUE;

  0049b	c7 45 ec 01 00
	00 00		 mov	 DWORD PTR _bEnableAttack$246710[ebp], 1

; 1386 : 
; 1387 : 			if ( lpObj->TargetNumber < 0 )//Season 4.5 remake

  004a2	8b 45 08	 mov	 eax, DWORD PTR _lpObj$[ebp]
  004a5	0f bf 88 58 04
	00 00		 movsx	 ecx, WORD PTR [eax+1112]
  004ac	85 c9		 test	 ecx, ecx
  004ae	7d 61		 jge	 SHORT $LN33@gObjMonste@12

; 1388 : 			{
; 1389 : 				lpObj->TargetNumber = -1;

  004b0	83 c8 ff	 or	 eax, -1
  004b3	8b 4d 08	 mov	 ecx, DWORD PTR _lpObj$[ebp]
  004b6	66 89 81 58 04
	00 00		 mov	 WORD PTR [ecx+1112], ax

; 1390 : 				lpObj->m_ActState.Emotion = 0;

  004bd	8b 45 08	 mov	 eax, DWORD PTR _lpObj$[ebp]
  004c0	8b 88 18 02 00
	00		 mov	 ecx, DWORD PTR [eax+536]
  004c6	81 e1 0f ff ff
	ff		 and	 ecx, -241		; ffffff0fH
  004cc	8b 55 08	 mov	 edx, DWORD PTR _lpObj$[ebp]
  004cf	89 8a 18 02 00
	00		 mov	 DWORD PTR [edx+536], ecx

; 1391 : 				lpObj->m_ActState.Attack = 0;

  004d5	8b 45 08	 mov	 eax, DWORD PTR _lpObj$[ebp]
  004d8	8b 88 18 02 00
	00		 mov	 ecx, DWORD PTR [eax+536]
  004de	83 e1 fd	 and	 ecx, -3			; fffffffdH
  004e1	8b 55 08	 mov	 edx, DWORD PTR _lpObj$[ebp]
  004e4	89 8a 18 02 00
	00		 mov	 DWORD PTR [edx+536], ecx

; 1392 : 				lpObj->m_ActState.Move = 0;

  004ea	8b 45 08	 mov	 eax, DWORD PTR _lpObj$[ebp]
  004ed	8b 88 18 02 00
	00		 mov	 ecx, DWORD PTR [eax+536]
  004f3	83 e1 fb	 and	 ecx, -5			; fffffffbH
  004f6	8b 55 08	 mov	 edx, DWORD PTR _lpObj$[ebp]
  004f9	89 8a 18 02 00
	00		 mov	 DWORD PTR [edx+536], ecx

; 1393 : 				lpObj->NextActionTime = 1000;

  004ff	8b 45 08	 mov	 eax, DWORD PTR _lpObj$[ebp]
  00502	c7 80 bc 03 00
	00 e8 03 00 00	 mov	 DWORD PTR [eax+956], 1000 ; 000003e8H

; 1394 : 				return;

  0050c	e9 d4 05 00 00	 jmp	 $LN70@gObjMonste@12
$LN33@gObjMonste@12:

; 1395 : 			}
; 1396 : 
; 1397 : 			if ( gObj[lpObj->TargetNumber].Live == FALSE || gObj[lpObj->TargetNumber].Teleport != 0)

  00511	8b 45 08	 mov	 eax, DWORD PTR _lpObj$[ebp]
  00514	0f bf 88 58 04
	00 00		 movsx	 ecx, WORD PTR [eax+1112]
  0051b	69 c9 38 2b 00
	00		 imul	 ecx, 11064		; 00002b38H
  00521	8b 15 00 00 00
	00		 mov	 edx, DWORD PTR ?gObj@@3PAUOBJECTSTRUCT@@A ; gObj
  00527	0f b6 44 0a 6a	 movzx	 eax, BYTE PTR [edx+ecx+106]
  0052c	85 c0		 test	 eax, eax
  0052e	74 22		 je	 SHORT $LN31@gObjMonste@12
  00530	8b 45 08	 mov	 eax, DWORD PTR _lpObj$[ebp]
  00533	0f bf 88 58 04
	00 00		 movsx	 ecx, WORD PTR [eax+1112]
  0053a	69 c9 38 2b 00
	00		 imul	 ecx, 11064		; 00002b38H
  00540	8b 15 00 00 00
	00		 mov	 edx, DWORD PTR ?gObj@@3PAUOBJECTSTRUCT@@A ; gObj
  00546	0f be 84 0a a0
	03 00 00	 movsx	 eax, BYTE PTR [edx+ecx+928]
  0054e	85 c0		 test	 eax, eax
  00550	74 07		 je	 SHORT $LN32@gObjMonste@12
$LN31@gObjMonste@12:

; 1398 : 				bEnableAttack = FALSE;

  00552	c7 45 ec 00 00
	00 00		 mov	 DWORD PTR _bEnableAttack$246710[ebp], 0
$LN32@gObjMonste@12:

; 1399 : 
; 1400 : 			if ( gObj[lpObj->TargetNumber].Connected <= PLAYER_LOGGED || gObj[lpObj->TargetNumber].CloseCount != -1 )

  00559	8b 45 08	 mov	 eax, DWORD PTR _lpObj$[ebp]
  0055c	0f bf 88 58 04
	00 00		 movsx	 ecx, WORD PTR [eax+1112]
  00563	69 c9 38 2b 00
	00		 imul	 ecx, 11064		; 00002b38H
  00569	8b 15 00 00 00
	00		 mov	 edx, DWORD PTR ?gObj@@3PAUOBJECTSTRUCT@@A ; gObj
  0056f	83 7c 0a 04 02	 cmp	 DWORD PTR [edx+ecx+4], 2
  00574	7e 20		 jle	 SHORT $LN29@gObjMonste@12
  00576	8b 45 08	 mov	 eax, DWORD PTR _lpObj$[ebp]
  00579	0f bf 88 58 04
	00 00		 movsx	 ecx, WORD PTR [eax+1112]
  00580	69 c9 38 2b 00
	00		 imul	 ecx, 11064		; 00002b38H
  00586	8b 15 00 00 00
	00		 mov	 edx, DWORD PTR ?gObj@@3PAUOBJECTSTRUCT@@A ; gObj
  0058c	0f be 44 0a 0a	 movsx	 eax, BYTE PTR [edx+ecx+10]
  00591	83 f8 ff	 cmp	 eax, -1
  00594	74 07		 je	 SHORT $LN30@gObjMonste@12
$LN29@gObjMonste@12:

; 1401 : 				bEnableAttack = FALSE;

  00596	c7 45 ec 00 00
	00 00		 mov	 DWORD PTR _bEnableAttack$246710[ebp], 0
$LN30@gObjMonste@12:

; 1402 : 
; 1403 : 			if ( bEnableAttack == FALSE )

  0059d	83 7d ec 00	 cmp	 DWORD PTR _bEnableAttack$246710[ebp], 0
  005a1	75 61		 jne	 SHORT $LN28@gObjMonste@12

; 1404 : 			{
; 1405 : 				lpObj->TargetNumber = -1;

  005a3	83 c8 ff	 or	 eax, -1
  005a6	8b 4d 08	 mov	 ecx, DWORD PTR _lpObj$[ebp]
  005a9	66 89 81 58 04
	00 00		 mov	 WORD PTR [ecx+1112], ax

; 1406 : 				lpObj->m_ActState.Emotion = 0;

  005b0	8b 45 08	 mov	 eax, DWORD PTR _lpObj$[ebp]
  005b3	8b 88 18 02 00
	00		 mov	 ecx, DWORD PTR [eax+536]
  005b9	81 e1 0f ff ff
	ff		 and	 ecx, -241		; ffffff0fH
  005bf	8b 55 08	 mov	 edx, DWORD PTR _lpObj$[ebp]
  005c2	89 8a 18 02 00
	00		 mov	 DWORD PTR [edx+536], ecx

; 1407 : 				lpObj->m_ActState.Attack = 0;

  005c8	8b 45 08	 mov	 eax, DWORD PTR _lpObj$[ebp]
  005cb	8b 88 18 02 00
	00		 mov	 ecx, DWORD PTR [eax+536]
  005d1	83 e1 fd	 and	 ecx, -3			; fffffffdH
  005d4	8b 55 08	 mov	 edx, DWORD PTR _lpObj$[ebp]
  005d7	89 8a 18 02 00
	00		 mov	 DWORD PTR [edx+536], ecx

; 1408 : 				lpObj->m_ActState.Move = 0;

  005dd	8b 45 08	 mov	 eax, DWORD PTR _lpObj$[ebp]
  005e0	8b 88 18 02 00
	00		 mov	 ecx, DWORD PTR [eax+536]
  005e6	83 e1 fb	 and	 ecx, -5			; fffffffbH
  005e9	8b 55 08	 mov	 edx, DWORD PTR _lpObj$[ebp]
  005ec	89 8a 18 02 00
	00		 mov	 DWORD PTR [edx+536], ecx

; 1409 : 				lpObj->NextActionTime = 1000;

  005f2	8b 45 08	 mov	 eax, DWORD PTR _lpObj$[ebp]
  005f5	c7 80 bc 03 00
	00 e8 03 00 00	 mov	 DWORD PTR [eax+956], 1000 ; 000003e8H

; 1410 : 				return;

  005ff	e9 e1 04 00 00	 jmp	 $LN70@gObjMonste@12
$LN28@gObjMonste@12:

; 1411 : 			}
; 1412 : 			
; 1413 : 			if ( rand()%4 == 0 )

  00604	e8 00 00 00 00	 call	 _rand
  00609	25 03 00 00 80	 and	 eax, -2147483645	; 80000003H
  0060e	79 05		 jns	 SHORT $LN80@gObjMonste@12
  00610	48		 dec	 eax
  00611	83 c8 fc	 or	 eax, -4			; fffffffcH
  00614	40		 inc	 eax
$LN80@gObjMonste@12:
  00615	85 c0		 test	 eax, eax
  00617	0f 85 85 00 00
	00		 jne	 $LN27@gObjMonste@12

; 1414 : 			{
; 1415 : 				PMSG_ATTACK pAttackMsg;
; 1416 : 
; 1417 : 				pAttackMsg.AttackAction = 120;

  0061d	c6 45 e9 78	 mov	 BYTE PTR _pAttackMsg$246718[ebp+5], 120 ; 00000078H

; 1418 : 				pAttackMsg.DirDis = lpObj->Dir;

  00621	8b 45 08	 mov	 eax, DWORD PTR _lpObj$[ebp]
  00624	8a 88 48 01 00
	00		 mov	 cl, BYTE PTR [eax+328]
  0062a	88 4d ea	 mov	 BYTE PTR _pAttackMsg$246718[ebp+6], cl

; 1419 : 				pAttackMsg.NumberH = SET_NUMBERH(lpObj->TargetNumber);

  0062d	8b 45 08	 mov	 eax, DWORD PTR _lpObj$[ebp]
  00630	0f bf 88 58 04
	00 00		 movsx	 ecx, WORD PTR [eax+1112]
  00637	c1 e9 08	 shr	 ecx, 8
  0063a	88 4d e7	 mov	 BYTE PTR _pAttackMsg$246718[ebp+3], cl

; 1420 : 				pAttackMsg.NumberL = SET_NUMBERL(lpObj->TargetNumber);

  0063d	8b 45 08	 mov	 eax, DWORD PTR _lpObj$[ebp]
  00640	0f bf 88 58 04
	00 00		 movsx	 ecx, WORD PTR [eax+1112]
  00647	81 e1 ff 00 00
	00		 and	 ecx, 255		; 000000ffH
  0064d	88 4d e8	 mov	 BYTE PTR _pAttackMsg$246718[ebp+4], cl

; 1421 : 
; 1422 : 				GCActionSend(lpObj, 120, lpObj->m_Index, lpObj->TargetNumber);

  00650	8b 45 08	 mov	 eax, DWORD PTR _lpObj$[ebp]
  00653	0f bf 88 58 04
	00 00		 movsx	 ecx, WORD PTR [eax+1112]
  0065a	51		 push	 ecx
  0065b	8b 55 08	 mov	 edx, DWORD PTR _lpObj$[ebp]
  0065e	8b 02		 mov	 eax, DWORD PTR [edx]
  00660	50		 push	 eax
  00661	6a 78		 push	 120			; 00000078H
  00663	8b 4d 08	 mov	 ecx, DWORD PTR _lpObj$[ebp]
  00666	51		 push	 ecx
  00667	e8 00 00 00 00	 call	 ?GCActionSend@@YAXPAUOBJECTSTRUCT@@EHH@Z ; GCActionSend
  0066c	83 c4 10	 add	 esp, 16			; 00000010H

; 1423 : 				gObjAttack(lpObj, &gObj[lpObj->TargetNumber], NULL, FALSE, 0, 0, FALSE,0,0);

  0066f	6a 00		 push	 0
  00671	6a 00		 push	 0
  00673	6a 00		 push	 0
  00675	6a 00		 push	 0
  00677	6a 00		 push	 0
  00679	6a 00		 push	 0
  0067b	6a 00		 push	 0
  0067d	8b 45 08	 mov	 eax, DWORD PTR _lpObj$[ebp]
  00680	0f bf 88 58 04
	00 00		 movsx	 ecx, WORD PTR [eax+1112]
  00687	69 c9 38 2b 00
	00		 imul	 ecx, 11064		; 00002b38H
  0068d	03 0d 00 00 00
	00		 add	 ecx, DWORD PTR ?gObj@@3PAUOBJECTSTRUCT@@A ; gObj
  00693	51		 push	 ecx
  00694	8b 55 08	 mov	 edx, DWORD PTR _lpObj$[ebp]
  00697	52		 push	 edx
  00698	e8 00 00 00 00	 call	 ?gObjAttack@@YAHPAUOBJECTSTRUCT@@0PAVCMagicInf@@HEHHEE@Z ; gObjAttack
  0069d	83 c4 24	 add	 esp, 36			; 00000024H

; 1424 : 			}
; 1425 : 			else

  006a0	eb 1f		 jmp	 SHORT $LN26@gObjMonste@12
$LN27@gObjMonste@12:

; 1426 : 			{
; 1427 : 				TMonsterSkillManager::UseMonsterSkill(lpObj->m_Index, lpObj->TargetNumber, 0, -1, NULL);

  006a2	6a 00		 push	 0
  006a4	6a ff		 push	 -1
  006a6	6a 00		 push	 0
  006a8	8b 45 08	 mov	 eax, DWORD PTR _lpObj$[ebp]
  006ab	0f bf 88 58 04
	00 00		 movsx	 ecx, WORD PTR [eax+1112]
  006b2	51		 push	 ecx
  006b3	8b 55 08	 mov	 edx, DWORD PTR _lpObj$[ebp]
  006b6	8b 02		 mov	 eax, DWORD PTR [edx]
  006b8	50		 push	 eax
  006b9	e8 00 00 00 00	 call	 ?UseMonsterSkill@TMonsterSkillManager@@SAXHHHHPAVCMagicInf@@@Z ; TMonsterSkillManager::UseMonsterSkill
  006be	83 c4 14	 add	 esp, 20			; 00000014H
$LN26@gObjMonste@12:

; 1428 : 			}
; 1429 : 
; 1430 : 			lpObj->m_ActState.Attack = 0;

  006c1	8b 45 08	 mov	 eax, DWORD PTR _lpObj$[ebp]
  006c4	8b 88 18 02 00
	00		 mov	 ecx, DWORD PTR [eax+536]
  006ca	83 e1 fd	 and	 ecx, -3			; fffffffdH
  006cd	8b 55 08	 mov	 edx, DWORD PTR _lpObj$[ebp]
  006d0	89 8a 18 02 00
	00		 mov	 DWORD PTR [edx+536], ecx

; 1431 : 		}
; 1432 : 		else

  006d6	e9 0a 04 00 00	 jmp	 $LN70@gObjMonste@12
$LN34@gObjMonste@12:

; 1433 : 		{
; 1434 : 			int AttackType = lpObj->m_AttackType;

  006db	8b 45 08	 mov	 eax, DWORD PTR _lpObj$[ebp]
  006de	0f bf 88 b2 04
	00 00		 movsx	 ecx, WORD PTR [eax+1202]
  006e5	89 4d e0	 mov	 DWORD PTR _AttackType$246726[ebp], ecx

; 1435 : 			int lc6 = 0;

  006e8	c7 45 dc 00 00
	00 00		 mov	 DWORD PTR _lc6$246727[ebp], 0

; 1436 : 
; 1437 : 			if ( AttackType >= 100 )

  006ef	83 7d e0 64	 cmp	 DWORD PTR _AttackType$246726[ebp], 100 ; 00000064H
  006f3	7c 2a		 jl	 SHORT $LN24@gObjMonste@12

; 1438 : 			{
; 1439 : 				if ( (rand()%5) == 0 )

  006f5	e8 00 00 00 00	 call	 _rand
  006fa	99		 cdq
  006fb	b9 05 00 00 00	 mov	 ecx, 5
  00700	f7 f9		 idiv	 ecx
  00702	85 d2		 test	 edx, edx
  00704	75 12		 jne	 SHORT $LN23@gObjMonste@12

; 1440 : 				{
; 1441 : 					AttackType -= 100;

  00706	8b 45 e0	 mov	 eax, DWORD PTR _AttackType$246726[ebp]
  00709	83 e8 64	 sub	 eax, 100		; 00000064H
  0070c	89 45 e0	 mov	 DWORD PTR _AttackType$246726[ebp], eax

; 1442 : 					lc6 = TRUE;

  0070f	c7 45 dc 01 00
	00 00		 mov	 DWORD PTR _lc6$246727[ebp], 1

; 1443 : 				}
; 1444 : 				else

  00716	eb 07		 jmp	 SHORT $LN24@gObjMonste@12
$LN23@gObjMonste@12:

; 1445 : 				{
; 1446 : 					AttackType = 0;

  00718	c7 45 e0 00 00
	00 00		 mov	 DWORD PTR _AttackType$246726[ebp], 0
$LN24@gObjMonste@12:

; 1447 : 				}
; 1448 : 			}
; 1449 : 
; 1450 : 			if ( lc6 != FALSE || lpObj->m_AttackType == 50)

  0071f	83 7d dc 00	 cmp	 DWORD PTR _lc6$246727[ebp], 0
  00723	75 13		 jne	 SHORT $LN20@gObjMonste@12
  00725	8b 45 08	 mov	 eax, DWORD PTR _lpObj$[ebp]
  00728	0f bf 88 b2 04
	00 00		 movsx	 ecx, WORD PTR [eax+1202]
  0072f	83 f9 32	 cmp	 ecx, 50			; 00000032H
  00732	0f 85 c4 01 00
	00		 jne	 $LN21@gObjMonste@12
$LN20@gObjMonste@12:

; 1451 : 			{
; 1452 : 				if ( lpObj->TargetNumber >= 0 )

  00738	8b 45 08	 mov	 eax, DWORD PTR _lpObj$[ebp]
  0073b	0f bf 88 58 04
	00 00		 movsx	 ecx, WORD PTR [eax+1112]
  00742	85 c9		 test	 ecx, ecx
  00744	0f 8c ad 01 00
	00		 jl	 $LN19@gObjMonste@12

; 1453 : 				{
; 1454 : 					if ( gObj[lpObj->TargetNumber].Connected > PLAYER_LOGGED && gObj[lpObj->TargetNumber].CloseCount == -1 )

  0074a	8b 45 08	 mov	 eax, DWORD PTR _lpObj$[ebp]
  0074d	0f bf 88 58 04
	00 00		 movsx	 ecx, WORD PTR [eax+1112]
  00754	69 c9 38 2b 00
	00		 imul	 ecx, 11064		; 00002b38H
  0075a	8b 15 00 00 00
	00		 mov	 edx, DWORD PTR ?gObj@@3PAUOBJECTSTRUCT@@A ; gObj
  00760	83 7c 0a 04 02	 cmp	 DWORD PTR [edx+ecx+4], 2
  00765	0f 8e 30 01 00
	00		 jle	 $LN18@gObjMonste@12
  0076b	8b 45 08	 mov	 eax, DWORD PTR _lpObj$[ebp]
  0076e	0f bf 88 58 04
	00 00		 movsx	 ecx, WORD PTR [eax+1112]
  00775	69 c9 38 2b 00
	00		 imul	 ecx, 11064		; 00002b38H
  0077b	8b 15 00 00 00
	00		 mov	 edx, DWORD PTR ?gObj@@3PAUOBJECTSTRUCT@@A ; gObj
  00781	0f be 44 0a 0a	 movsx	 eax, BYTE PTR [edx+ecx+10]
  00786	83 f8 ff	 cmp	 eax, -1
  00789	0f 85 0c 01 00
	00		 jne	 $LN18@gObjMonste@12

; 1455 : 					{
; 1456 : 						if ( gObj[lpObj->TargetNumber].Live == FALSE )

  0078f	8b 45 08	 mov	 eax, DWORD PTR _lpObj$[ebp]
  00792	0f bf 88 58 04
	00 00		 movsx	 ecx, WORD PTR [eax+1112]
  00799	69 c9 38 2b 00
	00		 imul	 ecx, 11064		; 00002b38H
  0079f	8b 15 00 00 00
	00		 mov	 edx, DWORD PTR ?gObj@@3PAUOBJECTSTRUCT@@A ; gObj
  007a5	0f b6 44 0a 6a	 movzx	 eax, BYTE PTR [edx+ecx+106]
  007aa	85 c0		 test	 eax, eax
  007ac	75 61		 jne	 SHORT $LN17@gObjMonste@12

; 1457 : 						{
; 1458 : 							lpObj->TargetNumber = -1;

  007ae	83 c8 ff	 or	 eax, -1
  007b1	8b 4d 08	 mov	 ecx, DWORD PTR _lpObj$[ebp]
  007b4	66 89 81 58 04
	00 00		 mov	 WORD PTR [ecx+1112], ax

; 1459 : 							lpObj->m_ActState.Emotion = 0;

  007bb	8b 45 08	 mov	 eax, DWORD PTR _lpObj$[ebp]
  007be	8b 88 18 02 00
	00		 mov	 ecx, DWORD PTR [eax+536]
  007c4	81 e1 0f ff ff
	ff		 and	 ecx, -241		; ffffff0fH
  007ca	8b 55 08	 mov	 edx, DWORD PTR _lpObj$[ebp]
  007cd	89 8a 18 02 00
	00		 mov	 DWORD PTR [edx+536], ecx

; 1460 : 							lpObj->m_ActState.Attack = 0;

  007d3	8b 45 08	 mov	 eax, DWORD PTR _lpObj$[ebp]
  007d6	8b 88 18 02 00
	00		 mov	 ecx, DWORD PTR [eax+536]
  007dc	83 e1 fd	 and	 ecx, -3			; fffffffdH
  007df	8b 55 08	 mov	 edx, DWORD PTR _lpObj$[ebp]
  007e2	89 8a 18 02 00
	00		 mov	 DWORD PTR [edx+536], ecx

; 1461 : 							lpObj->m_ActState.Move = 0;

  007e8	8b 45 08	 mov	 eax, DWORD PTR _lpObj$[ebp]
  007eb	8b 88 18 02 00
	00		 mov	 ecx, DWORD PTR [eax+536]
  007f1	83 e1 fb	 and	 ecx, -5			; fffffffbH
  007f4	8b 55 08	 mov	 edx, DWORD PTR _lpObj$[ebp]
  007f7	89 8a 18 02 00
	00		 mov	 DWORD PTR [edx+536], ecx

; 1462 : 							lpObj->NextActionTime = 1000;

  007fd	8b 45 08	 mov	 eax, DWORD PTR _lpObj$[ebp]
  00800	c7 80 bc 03 00
	00 e8 03 00 00	 mov	 DWORD PTR [eax+956], 1000 ; 000003e8H
  0080a	e9 8a 00 00 00	 jmp	 $LN16@gObjMonste@12
$LN17@gObjMonste@12:

; 1463 : 						}
; 1464 : 						else if ( gObj[lpObj->TargetNumber].Teleport == 0 )

  0080f	8b 45 08	 mov	 eax, DWORD PTR _lpObj$[ebp]
  00812	0f bf 88 58 04
	00 00		 movsx	 ecx, WORD PTR [eax+1112]
  00819	69 c9 38 2b 00
	00		 imul	 ecx, 11064		; 00002b38H
  0081f	8b 15 00 00 00
	00		 mov	 edx, DWORD PTR ?gObj@@3PAUOBJECTSTRUCT@@A ; gObj
  00825	0f be 84 0a a0
	03 00 00	 movsx	 eax, BYTE PTR [edx+ecx+928]
  0082d	85 c0		 test	 eax, eax
  0082f	75 68		 jne	 SHORT $LN16@gObjMonste@12

; 1465 : 						{
; 1466 : 							gObjMonsterMagicAttack(lpObj, -1);

  00831	6a ff		 push	 -1
  00833	8b 45 08	 mov	 eax, DWORD PTR _lpObj$[ebp]
  00836	50		 push	 eax
  00837	e8 00 00 00 00	 call	 ?gObjMonsterMagicAttack@@YAXPAUOBJECTSTRUCT@@H@Z ; gObjMonsterMagicAttack
  0083c	83 c4 08	 add	 esp, 8

; 1467 : 
; 1468 : 							if ( lpObj->Type == OBJ_MONSTER )

  0083f	8b 45 08	 mov	 eax, DWORD PTR _lpObj$[ebp]
  00842	0f b7 48 68	 movzx	 ecx, WORD PTR [eax+104]
  00846	83 f9 02	 cmp	 ecx, 2
  00849	75 4e		 jne	 SHORT $LN16@gObjMonste@12

; 1469 : 							{
; 1470 : 								if ( lpObj->m_bIsInMonsterHerd != false )

  0084b	8b 45 08	 mov	 eax, DWORD PTR _lpObj$[ebp]
  0084e	83 b8 e8 10 00
	00 00		 cmp	 DWORD PTR [eax+4328], 0
  00855	74 42		 je	 SHORT $LN16@gObjMonste@12

; 1471 : 								{
; 1472 : 									if (lpObj->m_lpMonsterHerd != NULL )

  00857	8b 45 08	 mov	 eax, DWORD PTR _lpObj$[ebp]
  0085a	83 b8 f0 10 00
	00 00		 cmp	 DWORD PTR [eax+4336], 0
  00861	74 36		 je	 SHORT $LN16@gObjMonste@12

; 1473 : 									{
; 1474 : 										lpObj->m_lpMonsterHerd->MonsterAttackAction(lpObj, &gObj[lpObj->TargetNumber]);

  00863	8b 45 08	 mov	 eax, DWORD PTR _lpObj$[ebp]
  00866	0f bf 88 58 04
	00 00		 movsx	 ecx, WORD PTR [eax+1112]
  0086d	69 c9 38 2b 00
	00		 imul	 ecx, 11064		; 00002b38H
  00873	03 0d 00 00 00
	00		 add	 ecx, DWORD PTR ?gObj@@3PAUOBJECTSTRUCT@@A ; gObj
  00879	51		 push	 ecx
  0087a	8b 55 08	 mov	 edx, DWORD PTR _lpObj$[ebp]
  0087d	52		 push	 edx
  0087e	8b 45 08	 mov	 eax, DWORD PTR _lpObj$[ebp]
  00881	8b 88 f0 10 00
	00		 mov	 ecx, DWORD PTR [eax+4336]
  00887	8b 55 08	 mov	 edx, DWORD PTR _lpObj$[ebp]
  0088a	8b 82 f0 10 00
	00		 mov	 eax, DWORD PTR [edx+4336]
  00890	8b 11		 mov	 edx, DWORD PTR [ecx]
  00892	8b c8		 mov	 ecx, eax
  00894	8b 42 48	 mov	 eax, DWORD PTR [edx+72]
  00897	ff d0		 call	 eax
$LN16@gObjMonste@12:

; 1475 : 									}
; 1476 : 								}
; 1477 : 							}
; 1478 : 						}
; 1479 : 					}
; 1480 : 					else

  00899	eb 5c		 jmp	 SHORT $LN19@gObjMonste@12
$LN18@gObjMonste@12:

; 1481 : 					{
; 1482 : 						lpObj->TargetNumber = -1;

  0089b	83 c8 ff	 or	 eax, -1
  0089e	8b 4d 08	 mov	 ecx, DWORD PTR _lpObj$[ebp]
  008a1	66 89 81 58 04
	00 00		 mov	 WORD PTR [ecx+1112], ax

; 1483 : 						lpObj->m_ActState.Emotion = 0;

  008a8	8b 45 08	 mov	 eax, DWORD PTR _lpObj$[ebp]
  008ab	8b 88 18 02 00
	00		 mov	 ecx, DWORD PTR [eax+536]
  008b1	81 e1 0f ff ff
	ff		 and	 ecx, -241		; ffffff0fH
  008b7	8b 55 08	 mov	 edx, DWORD PTR _lpObj$[ebp]
  008ba	89 8a 18 02 00
	00		 mov	 DWORD PTR [edx+536], ecx

; 1484 : 						lpObj->m_ActState.Attack = 0;

  008c0	8b 45 08	 mov	 eax, DWORD PTR _lpObj$[ebp]
  008c3	8b 88 18 02 00
	00		 mov	 ecx, DWORD PTR [eax+536]
  008c9	83 e1 fd	 and	 ecx, -3			; fffffffdH
  008cc	8b 55 08	 mov	 edx, DWORD PTR _lpObj$[ebp]
  008cf	89 8a 18 02 00
	00		 mov	 DWORD PTR [edx+536], ecx

; 1485 : 						lpObj->m_ActState.Move = 0;

  008d5	8b 45 08	 mov	 eax, DWORD PTR _lpObj$[ebp]
  008d8	8b 88 18 02 00
	00		 mov	 ecx, DWORD PTR [eax+536]
  008de	83 e1 fb	 and	 ecx, -5			; fffffffbH
  008e1	8b 55 08	 mov	 edx, DWORD PTR _lpObj$[ebp]
  008e4	89 8a 18 02 00
	00		 mov	 DWORD PTR [edx+536], ecx

; 1486 : 						lpObj->NextActionTime = 1000;

  008ea	8b 45 08	 mov	 eax, DWORD PTR _lpObj$[ebp]
  008ed	c7 80 bc 03 00
	00 e8 03 00 00	 mov	 DWORD PTR [eax+956], 1000 ; 000003e8H
$LN19@gObjMonste@12:

; 1487 : 					}
; 1488 : 				}
; 1489 : 			}
; 1490 : 			else

  008f7	e9 d4 01 00 00	 jmp	 $LN10@gObjMonste@12
$LN21@gObjMonste@12:

; 1491 : 			{
; 1492 : 				if ( lpObj->TargetNumber >= 0 )

  008fc	8b 45 08	 mov	 eax, DWORD PTR _lpObj$[ebp]
  008ff	0f bf 88 58 04
	00 00		 movsx	 ecx, WORD PTR [eax+1112]
  00906	85 c9		 test	 ecx, ecx
  00908	0f 8c c2 01 00
	00		 jl	 $LN10@gObjMonste@12

; 1493 : 				{
; 1494 : 					if ( gObj[lpObj->TargetNumber].Connected > PLAYER_LOGGED &&  gObj[lpObj->TargetNumber].CloseCount == -1 )

  0090e	8b 45 08	 mov	 eax, DWORD PTR _lpObj$[ebp]
  00911	0f bf 88 58 04
	00 00		 movsx	 ecx, WORD PTR [eax+1112]
  00918	69 c9 38 2b 00
	00		 imul	 ecx, 11064		; 00002b38H
  0091e	8b 15 00 00 00
	00		 mov	 edx, DWORD PTR ?gObj@@3PAUOBJECTSTRUCT@@A ; gObj
  00924	83 7c 0a 04 02	 cmp	 DWORD PTR [edx+ecx+4], 2
  00929	0f 8e 45 01 00
	00		 jle	 $LN8@gObjMonste@12
  0092f	8b 45 08	 mov	 eax, DWORD PTR _lpObj$[ebp]
  00932	0f bf 88 58 04
	00 00		 movsx	 ecx, WORD PTR [eax+1112]
  00939	69 c9 38 2b 00
