; Listing generated by Microsoft (R) Optimizing Compiler Version 16.00.40219.01 

	TITLE	D:\Projects\ExTeam6.3\Source\GameServer\GameServer\GrandReset.cpp
	.686P
	.XMM
	include listing.inc
	.model	flat

INCLUDELIB LIBCMT
INCLUDELIB OLDNAMES

_DATA	SEGMENT
_g_iNpcUpDfLevel_CGATE DD 01H
	DD	02H
	DD	02dc6c0H
	DD	02H
	DD	03H
	DD	02dc6c0H
	DD	03H
	DD	04H
	DD	02dc6c0H
_g_iNpcUpDfLevel_CSTATUE DD 01H
	DD	03H
	DD	02dc6c0H
	DD	02H
	DD	05H
	DD	02dc6c0H
	DD	03H
	DD	07H
	DD	02dc6c0H
_g_iNpcUpMaxHP_CGATE DD 02625a0H
	DD	02H
	DD	0f4240H
	DD	03567e0H
	DD	03H
	DD	0f4240H
	DD	04f5880H
	DD	04H
	DD	0f4240H
_g_iNpcUpMaxHP_CSTATUE DD 02191c0H
	DD	03H
	DD	0f4240H
	DD	033e140H
	DD	05H
	DD	0f4240H
	DD	04c4b40H
	DD	07H
	DD	0f4240H
_g_iNpcUpRgLevel_CSTATUE DD 01H
	DD	03H
	DD	04c4b40H
	DD	02H
	DD	05H
	DD	04c4b40H
	DD	03H
	DD	07H
	DD	04c4b40H
_g_iCsUserReSpawnArea DD 023H
	DD	011H
	DD	090H
	DD	030H
	DD	04aH
	DD	090H
	DD	073H
	DD	09aH
	DD	023H
	DD	011H
	DD	090H
	DD	030H
_g_iNpcDefense_CGATE DD 064H
	DD	0b4H
	DD	012cH
	DD	0208H
_g_iNpcDefense_CSTATUE DD 050H
	DD	0b4H
	DD	0154H
	DD	0226H
_g_iCastleWallStepAxisY DD 071H
	DD	0a0H
	DD	0cbH
_DATA	ENDS
PUBLIC	??_H@YGXPAXIHP6EPAX0@Z@Z			; `vector constructor iterator'
; Function compile flags: /Odtp /ZI
;	COMDAT ??_H@YGXPAXIHP6EPAX0@Z@Z
_TEXT	SEGMENT
___t$ = 8						; size = 4
___s$ = 12						; size = 4
___n$ = 16						; size = 4
___f$ = 20						; size = 4
??_H@YGXPAXIHP6EPAX0@Z@Z PROC				; `vector constructor iterator', COMDAT
  00000	55		 push	 ebp
  00001	8b ec		 mov	 ebp, esp
  00003	83 ec 40	 sub	 esp, 64			; 00000040H
  00006	53		 push	 ebx
  00007	56		 push	 esi
  00008	57		 push	 edi
$LN2@vector:
  00009	8b 45 10	 mov	 eax, DWORD PTR ___n$[ebp]
  0000c	83 e8 01	 sub	 eax, 1
  0000f	89 45 10	 mov	 DWORD PTR ___n$[ebp], eax
  00012	78 11		 js	 SHORT $LN3@vector
  00014	8b 4d 08	 mov	 ecx, DWORD PTR ___t$[ebp]
  00017	ff 55 14	 call	 DWORD PTR ___f$[ebp]
  0001a	8b 45 08	 mov	 eax, DWORD PTR ___t$[ebp]
  0001d	03 45 0c	 add	 eax, DWORD PTR ___s$[ebp]
  00020	89 45 08	 mov	 DWORD PTR ___t$[ebp], eax
  00023	eb e4		 jmp	 SHORT $LN2@vector
$LN3@vector:
  00025	5f		 pop	 edi
  00026	5e		 pop	 esi
  00027	5b		 pop	 ebx
  00028	8b e5		 mov	 esp, ebp
  0002a	5d		 pop	 ebp
  0002b	c2 10 00	 ret	 16			; 00000010H
??_H@YGXPAXIHP6EPAX0@Z@Z ENDP				; `vector constructor iterator'
_TEXT	ENDS
PUBLIC	?push_back@?$vector@UGRANDSYSTEM_REWARD_DATA@@V?$allocator@UGRANDSYSTEM_REWARD_DATA@@@std@@@std@@QAEXABUGRANDSYSTEM_REWARD_DATA@@@Z ; std::vector<GRANDSYSTEM_REWARD_DATA,std::allocator<GRANDSYSTEM_REWARD_DATA> >::push_back
PUBLIC	??_C@_0CE@IFNGLMNF@?$CFd?5?$CFd?5?$CFd?5?$CFd?5?$CFd?5?$CFd?5?$CFd?5?$CFd?5?$CFd?5?$CFd?5?$CFd@ ; `string'
PUBLIC	?push_back@?$vector@UGrandResetEXP@@V?$allocator@UGrandResetEXP@@@std@@@std@@QAEXABUGrandResetEXP@@@Z ; std::vector<GrandResetEXP,std::allocator<GrandResetEXP> >::push_back
PUBLIC	??0GrandResetEXP@@QAE@XZ			; GrandResetEXP::GrandResetEXP
PUBLIC	??_C@_08OOHKHLPO@?$CFd?5?$CFd?5?$CFd?$AA@	; `string'
PUBLIC	??_C@_0BA@PIOFNAIM@LOAD?5FILE?5ERROR?$AA@	; `string'
PUBLIC	??_C@_01KDCPPGHE@r?$AA@				; `string'
PUBLIC	?clear@?$vector@UGrandResetEXP@@V?$allocator@UGrandResetEXP@@@std@@@std@@QAEXXZ ; std::vector<GrandResetEXP,std::allocator<GrandResetEXP> >::clear
PUBLIC	??_C@_0M@MDEMBLOC@MapForGrand?$AA@		; `string'
PUBLIC	??_C@_04JEMJNNDC@NpcY?$AA@			; `string'
PUBLIC	??_C@_04INNCOMHD@NpcX?$AA@			; `string'
PUBLIC	??_C@_06KMEDHGPI@NpcMap?$AA@			; `string'
PUBLIC	??_C@_08BNJJHKPI@NpcClass?$AA@			; `string'
PUBLIC	??_C@_03LGLGIONO@cmd?$AA@			; `string'
PUBLIC	??_C@_0M@PPKBAKCD@?1grandreset?$AA@		; `string'
PUBLIC	??_C@_0P@KEHAPABJ@AddGoblinPoint?$AA@		; `string'
PUBLIC	??_C@_09PFIPMMFI@AddWcoinP?$AA@			; `string'
PUBLIC	??_C@_09JEGAINMK@AddWcoinC?$AA@			; `string'
PUBLIC	??_C@_0L@KDJHOFMG@AddCredits?$AA@		; `string'
PUBLIC	??_C@_0O@DMBAEBEI@Need?4EmptyInv?$AA@		; `string'
PUBLIC	??_C@_0N@OBNHLPKA@Add?4PointsRF?$AA@		; `string'
PUBLIC	??_C@_0N@DJDIIOI@Add?4PointsDL?$AA@		; `string'
PUBLIC	??_C@_0N@OPLGGKKM@Add?4PointsMG?$AA@		; `string'
PUBLIC	??_C@_0O@DFDMDPFD@Add?4PointsSUM?$AA@		; `string'
PUBLIC	??_C@_0O@LAENHGCE@Add?4PointsELF?$AA@		; `string'
PUBLIC	??_C@_0N@EMNCBOCP@Add?4PointsDK?$AA@		; `string'
PUBLIC	??_C@_0N@KKKFEDHC@Add?4PointsDW?$AA@		; `string'
PUBLIC	??_C@_08PFDBLNIM@Add?4Form?$AA@			; `string'
PUBLIC	??_C@_0L@BKBHHLKP@Need?4Level?$AA@		; `string'
PUBLIC	??_C@_08IILNMGKH@Need?4Res?$AA@			; `string'
PUBLIC	??_C@_08LCGFICFE@Need?4Zen?$AA@			; `string'
PUBLIC	??_C@_07IGJLCBJI@ZenForm?$AA@			; `string'
PUBLIC	??_C@_0N@KAKJAMBI@Max?4GrandRes?$AA@		; `string'
PUBLIC	??_C@_0L@EGGLDMI@GrandReset?$AA@		; `string'
PUBLIC	??_C@_06CKGENIKG@Enable?$AA@			; `string'
PUBLIC	??_C@_0BO@BFOMCEFP@?4?4?2Data?2ExData?2GrandReset?4ini?$AA@ ; `string'
PUBLIC	__$ArrayPad$
PUBLIC	?Load@cGrandReset@@QAEXXZ			; cGrandReset::Load
EXTRN	_fclose:PROC
EXTRN	?CheckUser@CExLicense@@QAE_NH@Z:PROC		; CExLicense::CheckUser
EXTRN	_sscanf:PROC
EXTRN	?Ex_IsBadFileLine@@YA_NPADAAH@Z:PROC		; Ex_IsBadFileLine
EXTRN	_fgets:PROC
EXTRN	_feof:PROC
EXTRN	__imp__ExitProcess@4:PROC
EXTRN	__imp__MessageBoxA@16:PROC
EXTRN	_fopen:PROC
EXTRN	?g_ExLicense@@3VCExLicense@@A:BYTE		; g_ExLicense
EXTRN	__imp__GetPrivateProfileStringA@24:PROC
EXTRN	__imp__GetPrivateProfileIntA@16:PROC
EXTRN	___security_cookie:DWORD
EXTRN	@__security_check_cookie@4:PROC
;	COMDAT ??_C@_0CE@IFNGLMNF@?$CFd?5?$CFd?5?$CFd?5?$CFd?5?$CFd?5?$CFd?5?$CFd?5?$CFd?5?$CFd?5?$CFd?5?$CFd@
; File d:\projects\exteam6.3\source\gameserver\gameserver\grandreset.cpp
CONST	SEGMENT
??_C@_0CE@IFNGLMNF@?$CFd?5?$CFd?5?$CFd?5?$CFd?5?$CFd?5?$CFd?5?$CFd?5?$CFd?5?$CFd?5?$CFd?5?$CFd@ DB '%'
	DB	'd %d %d %d %d %d %d %d %d %d %d %d', 00H	; `string'
CONST	ENDS
;	COMDAT ??_C@_08OOHKHLPO@?$CFd?5?$CFd?5?$CFd?$AA@
CONST	SEGMENT
??_C@_08OOHKHLPO@?$CFd?5?$CFd?5?$CFd?$AA@ DB '%d %d %d', 00H ; `string'
CONST	ENDS
;	COMDAT ??_C@_0BA@PIOFNAIM@LOAD?5FILE?5ERROR?$AA@
CONST	SEGMENT
??_C@_0BA@PIOFNAIM@LOAD?5FILE?5ERROR?$AA@ DB 'LOAD FILE ERROR', 00H ; `string'
CONST	ENDS
;	COMDAT ??_C@_01KDCPPGHE@r?$AA@
CONST	SEGMENT
??_C@_01KDCPPGHE@r?$AA@ DB 'r', 00H			; `string'
CONST	ENDS
;	COMDAT ??_C@_0M@MDEMBLOC@MapForGrand?$AA@
CONST	SEGMENT
??_C@_0M@MDEMBLOC@MapForGrand?$AA@ DB 'MapForGrand', 00H ; `string'
CONST	ENDS
;	COMDAT ??_C@_04JEMJNNDC@NpcY?$AA@
CONST	SEGMENT
??_C@_04JEMJNNDC@NpcY?$AA@ DB 'NpcY', 00H		; `string'
CONST	ENDS
;	COMDAT ??_C@_04INNCOMHD@NpcX?$AA@
CONST	SEGMENT
??_C@_04INNCOMHD@NpcX?$AA@ DB 'NpcX', 00H		; `string'
CONST	ENDS
;	COMDAT ??_C@_06KMEDHGPI@NpcMap?$AA@
CONST	SEGMENT
??_C@_06KMEDHGPI@NpcMap?$AA@ DB 'NpcMap', 00H		; `string'
CONST	ENDS
;	COMDAT ??_C@_08BNJJHKPI@NpcClass?$AA@
CONST	SEGMENT
??_C@_08BNJJHKPI@NpcClass?$AA@ DB 'NpcClass', 00H	; `string'
CONST	ENDS
;	COMDAT ??_C@_03LGLGIONO@cmd?$AA@
CONST	SEGMENT
??_C@_03LGLGIONO@cmd?$AA@ DB 'cmd', 00H			; `string'
CONST	ENDS
;	COMDAT ??_C@_0M@PPKBAKCD@?1grandreset?$AA@
CONST	SEGMENT
??_C@_0M@PPKBAKCD@?1grandreset?$AA@ DB '/grandreset', 00H ; `string'
CONST	ENDS
;	COMDAT ??_C@_0P@KEHAPABJ@AddGoblinPoint?$AA@
CONST	SEGMENT
??_C@_0P@KEHAPABJ@AddGoblinPoint?$AA@ DB 'AddGoblinPoint', 00H ; `string'
CONST	ENDS
;	COMDAT ??_C@_09PFIPMMFI@AddWcoinP?$AA@
CONST	SEGMENT
??_C@_09PFIPMMFI@AddWcoinP?$AA@ DB 'AddWcoinP', 00H	; `string'
CONST	ENDS
;	COMDAT ??_C@_09JEGAINMK@AddWcoinC?$AA@
CONST	SEGMENT
??_C@_09JEGAINMK@AddWcoinC?$AA@ DB 'AddWcoinC', 00H	; `string'
CONST	ENDS
;	COMDAT ??_C@_0L@KDJHOFMG@AddCredits?$AA@
CONST	SEGMENT
??_C@_0L@KDJHOFMG@AddCredits?$AA@ DB 'AddCredits', 00H	; `string'
CONST	ENDS
;	COMDAT ??_C@_0O@DMBAEBEI@Need?4EmptyInv?$AA@
CONST	SEGMENT
??_C@_0O@DMBAEBEI@Need?4EmptyInv?$AA@ DB 'Need.EmptyInv', 00H ; `string'
CONST	ENDS
;	COMDAT ??_C@_0N@OBNHLPKA@Add?4PointsRF?$AA@
CONST	SEGMENT
??_C@_0N@OBNHLPKA@Add?4PointsRF?$AA@ DB 'Add.PointsRF', 00H ; `string'
CONST	ENDS
;	COMDAT ??_C@_0N@DJDIIOI@Add?4PointsDL?$AA@
CONST	SEGMENT
??_C@_0N@DJDIIOI@Add?4PointsDL?$AA@ DB 'Add.PointsDL', 00H ; `string'
CONST	ENDS
;	COMDAT ??_C@_0N@OPLGGKKM@Add?4PointsMG?$AA@
CONST	SEGMENT
??_C@_0N@OPLGGKKM@Add?4PointsMG?$AA@ DB 'Add.PointsMG', 00H ; `string'
CONST	ENDS
;	COMDAT ??_C@_0O@DFDMDPFD@Add?4PointsSUM?$AA@
CONST	SEGMENT
??_C@_0O@DFDMDPFD@Add?4PointsSUM?$AA@ DB 'Add.PointsSUM', 00H ; `string'
CONST	ENDS
;	COMDAT ??_C@_0O@LAENHGCE@Add?4PointsELF?$AA@
CONST	SEGMENT
??_C@_0O@LAENHGCE@Add?4PointsELF?$AA@ DB 'Add.PointsELF', 00H ; `string'
CONST	ENDS
;	COMDAT ??_C@_0N@EMNCBOCP@Add?4PointsDK?$AA@
CONST	SEGMENT
??_C@_0N@EMNCBOCP@Add?4PointsDK?$AA@ DB 'Add.PointsDK', 00H ; `string'
CONST	ENDS
;	COMDAT ??_C@_0N@KKKFEDHC@Add?4PointsDW?$AA@
CONST	SEGMENT
??_C@_0N@KKKFEDHC@Add?4PointsDW?$AA@ DB 'Add.PointsDW', 00H ; `string'
CONST	ENDS
;	COMDAT ??_C@_08PFDBLNIM@Add?4Form?$AA@
CONST	SEGMENT
??_C@_08PFDBLNIM@Add?4Form?$AA@ DB 'Add.Form', 00H	; `string'
CONST	ENDS
;	COMDAT ??_C@_0L@BKBHHLKP@Need?4Level?$AA@
CONST	SEGMENT
??_C@_0L@BKBHHLKP@Need?4Level?$AA@ DB 'Need.Level', 00H	; `string'
CONST	ENDS
;	COMDAT ??_C@_08IILNMGKH@Need?4Res?$AA@
CONST	SEGMENT
??_C@_08IILNMGKH@Need?4Res?$AA@ DB 'Need.Res', 00H	; `string'
CONST	ENDS
;	COMDAT ??_C@_08LCGFICFE@Need?4Zen?$AA@
CONST	SEGMENT
??_C@_08LCGFICFE@Need?4Zen?$AA@ DB 'Need.Zen', 00H	; `string'
CONST	ENDS
;	COMDAT ??_C@_07IGJLCBJI@ZenForm?$AA@
CONST	SEGMENT
??_C@_07IGJLCBJI@ZenForm?$AA@ DB 'ZenForm', 00H		; `string'
CONST	ENDS
;	COMDAT ??_C@_0N@KAKJAMBI@Max?4GrandRes?$AA@
CONST	SEGMENT
??_C@_0N@KAKJAMBI@Max?4GrandRes?$AA@ DB 'Max.GrandRes', 00H ; `string'
CONST	ENDS
;	COMDAT ??_C@_0L@EGGLDMI@GrandReset?$AA@
CONST	SEGMENT
??_C@_0L@EGGLDMI@GrandReset?$AA@ DB 'GrandReset', 00H	; `string'
CONST	ENDS
;	COMDAT ??_C@_06CKGENIKG@Enable?$AA@
CONST	SEGMENT
??_C@_06CKGENIKG@Enable?$AA@ DB 'Enable', 00H		; `string'
CONST	ENDS
;	COMDAT ??_C@_0BO@BFOMCEFP@?4?4?2Data?2ExData?2GrandReset?4ini?$AA@
CONST	SEGMENT
??_C@_0BO@BFOMCEFP@?4?4?2Data?2ExData?2GrandReset?4ini?$AA@ DB '..\Data\E'
	DB	'xData\GrandReset.ini', 00H			; `string'
; Function compile flags: /Odtp /ZI
CONST	ENDS
_TEXT	SEGMENT
_list$231715 = -328					; size = 36
_list$231711 = -292					; size = 8
_n$231709 = -284					; size = 12
_Flag$ = -272						; size = 4
_Buff$ = -268						; size = 256
_file$ = -12						; size = 4
_this$ = -8						; size = 4
__$ArrayPad$ = -4					; size = 4
?Load@cGrandReset@@QAEXXZ PROC				; cGrandReset::Load
; _this$ = ecx

; 23   : {

  00000	55		 push	 ebp
  00001	8b ec		 mov	 ebp, esp
  00003	81 ec 88 01 00
	00		 sub	 esp, 392		; 00000188H
  00009	a1 00 00 00 00	 mov	 eax, DWORD PTR ___security_cookie
  0000e	33 c5		 xor	 eax, ebp
  00010	89 45 fc	 mov	 DWORD PTR __$ArrayPad$[ebp], eax
  00013	53		 push	 ebx
  00014	56		 push	 esi
  00015	57		 push	 edi
  00016	89 4d f8	 mov	 DWORD PTR _this$[ebp], ecx

; 24   : 	//CheckFile(GrandReset_DIR);
; 25   : 	this->EnableGrandResetSystem = GetPrivateProfileInt("GrandReset","Enable",0,GrandReset_DIR);	

  00019	68 00 00 00 00	 push	 OFFSET ??_C@_0BO@BFOMCEFP@?4?4?2Data?2ExData?2GrandReset?4ini?$AA@
  0001e	6a 00		 push	 0
  00020	68 00 00 00 00	 push	 OFFSET ??_C@_06CKGENIKG@Enable?$AA@
  00025	68 00 00 00 00	 push	 OFFSET ??_C@_0L@EGGLDMI@GrandReset?$AA@
  0002a	ff 15 00 00 00
	00		 call	 DWORD PTR __imp__GetPrivateProfileIntA@16
  00030	8b 4d f8	 mov	 ecx, DWORD PTR _this$[ebp]
  00033	89 01		 mov	 DWORD PTR [ecx], eax

; 26   : 	this->MaxGrandRes = GetPrivateProfileInt("GrandReset","Max.GrandRes",100,GrandReset_DIR);

  00035	68 00 00 00 00	 push	 OFFSET ??_C@_0BO@BFOMCEFP@?4?4?2Data?2ExData?2GrandReset?4ini?$AA@
  0003a	6a 64		 push	 100			; 00000064H
  0003c	68 00 00 00 00	 push	 OFFSET ??_C@_0N@KAKJAMBI@Max?4GrandRes?$AA@
  00041	68 00 00 00 00	 push	 OFFSET ??_C@_0L@EGGLDMI@GrandReset?$AA@
  00046	ff 15 00 00 00
	00		 call	 DWORD PTR __imp__GetPrivateProfileIntA@16
  0004c	8b 4d f8	 mov	 ecx, DWORD PTR _this$[ebp]
  0004f	89 41 04	 mov	 DWORD PTR [ecx+4], eax

; 27   : 	this->ZenForm = GetPrivateProfileInt("GrandReset","ZenForm",0,GrandReset_DIR);

  00052	68 00 00 00 00	 push	 OFFSET ??_C@_0BO@BFOMCEFP@?4?4?2Data?2ExData?2GrandReset?4ini?$AA@
  00057	6a 00		 push	 0
  00059	68 00 00 00 00	 push	 OFFSET ??_C@_07IGJLCBJI@ZenForm?$AA@
  0005e	68 00 00 00 00	 push	 OFFSET ??_C@_0L@EGGLDMI@GrandReset?$AA@
  00063	ff 15 00 00 00
	00		 call	 DWORD PTR __imp__GetPrivateProfileIntA@16
  00069	8b 4d f8	 mov	 ecx, DWORD PTR _this$[ebp]
  0006c	89 41 08	 mov	 DWORD PTR [ecx+8], eax

; 28   : 	this->NeedZen = GetPrivateProfileInt("GrandReset","Need.Zen",0,GrandReset_DIR);

  0006f	68 00 00 00 00	 push	 OFFSET ??_C@_0BO@BFOMCEFP@?4?4?2Data?2ExData?2GrandReset?4ini?$AA@
  00074	6a 00		 push	 0
  00076	68 00 00 00 00	 push	 OFFSET ??_C@_08LCGFICFE@Need?4Zen?$AA@
  0007b	68 00 00 00 00	 push	 OFFSET ??_C@_0L@EGGLDMI@GrandReset?$AA@
  00080	ff 15 00 00 00
	00		 call	 DWORD PTR __imp__GetPrivateProfileIntA@16
  00086	8b 4d f8	 mov	 ecx, DWORD PTR _this$[ebp]
  00089	89 41 0c	 mov	 DWORD PTR [ecx+12], eax

; 29   : 	this->NeedRes = GetPrivateProfileInt("GrandReset","Need.Res",0,GrandReset_DIR);

  0008c	68 00 00 00 00	 push	 OFFSET ??_C@_0BO@BFOMCEFP@?4?4?2Data?2ExData?2GrandReset?4ini?$AA@
  00091	6a 00		 push	 0
  00093	68 00 00 00 00	 push	 OFFSET ??_C@_08IILNMGKH@Need?4Res?$AA@
  00098	68 00 00 00 00	 push	 OFFSET ??_C@_0L@EGGLDMI@GrandReset?$AA@
  0009d	ff 15 00 00 00
	00		 call	 DWORD PTR __imp__GetPrivateProfileIntA@16
  000a3	8b 4d f8	 mov	 ecx, DWORD PTR _this$[ebp]
  000a6	89 41 10	 mov	 DWORD PTR [ecx+16], eax

; 30   : 	this->NeedLevel = GetPrivateProfileInt("GrandReset","Need.Level",0,GrandReset_DIR);

  000a9	68 00 00 00 00	 push	 OFFSET ??_C@_0BO@BFOMCEFP@?4?4?2Data?2ExData?2GrandReset?4ini?$AA@
  000ae	6a 00		 push	 0
  000b0	68 00 00 00 00	 push	 OFFSET ??_C@_0L@BKBHHLKP@Need?4Level?$AA@
  000b5	68 00 00 00 00	 push	 OFFSET ??_C@_0L@EGGLDMI@GrandReset?$AA@
  000ba	ff 15 00 00 00
	00		 call	 DWORD PTR __imp__GetPrivateProfileIntA@16
  000c0	8b 4d f8	 mov	 ecx, DWORD PTR _this$[ebp]
  000c3	89 41 14	 mov	 DWORD PTR [ecx+20], eax

; 31   : 	this->AddForm = GetPrivateProfileInt("GrandReset","Add.Form",0,GrandReset_DIR);

  000c6	68 00 00 00 00	 push	 OFFSET ??_C@_0BO@BFOMCEFP@?4?4?2Data?2ExData?2GrandReset?4ini?$AA@
  000cb	6a 00		 push	 0
  000cd	68 00 00 00 00	 push	 OFFSET ??_C@_08PFDBLNIM@Add?4Form?$AA@
  000d2	68 00 00 00 00	 push	 OFFSET ??_C@_0L@EGGLDMI@GrandReset?$AA@
  000d7	ff 15 00 00 00
	00		 call	 DWORD PTR __imp__GetPrivateProfileIntA@16
  000dd	8b 4d f8	 mov	 ecx, DWORD PTR _this$[ebp]
  000e0	89 41 18	 mov	 DWORD PTR [ecx+24], eax

; 32   : 	this->AddPointsDW = GetPrivateProfileInt("GrandReset","Add.PointsDW",0,GrandReset_DIR);

  000e3	68 00 00 00 00	 push	 OFFSET ??_C@_0BO@BFOMCEFP@?4?4?2Data?2ExData?2GrandReset?4ini?$AA@
  000e8	6a 00		 push	 0
  000ea	68 00 00 00 00	 push	 OFFSET ??_C@_0N@KKKFEDHC@Add?4PointsDW?$AA@
  000ef	68 00 00 00 00	 push	 OFFSET ??_C@_0L@EGGLDMI@GrandReset?$AA@
  000f4	ff 15 00 00 00
	00		 call	 DWORD PTR __imp__GetPrivateProfileIntA@16
  000fa	8b 4d f8	 mov	 ecx, DWORD PTR _this$[ebp]
  000fd	89 41 1c	 mov	 DWORD PTR [ecx+28], eax

; 33   : 	this->AddPointsDK = GetPrivateProfileInt("GrandReset","Add.PointsDK",0,GrandReset_DIR);

  00100	68 00 00 00 00	 push	 OFFSET ??_C@_0BO@BFOMCEFP@?4?4?2Data?2ExData?2GrandReset?4ini?$AA@
  00105	6a 00		 push	 0
  00107	68 00 00 00 00	 push	 OFFSET ??_C@_0N@EMNCBOCP@Add?4PointsDK?$AA@
  0010c	68 00 00 00 00	 push	 OFFSET ??_C@_0L@EGGLDMI@GrandReset?$AA@
  00111	ff 15 00 00 00
	00		 call	 DWORD PTR __imp__GetPrivateProfileIntA@16
  00117	8b 4d f8	 mov	 ecx, DWORD PTR _this$[ebp]
  0011a	89 41 20	 mov	 DWORD PTR [ecx+32], eax

; 34   : 	this->AddPointsELF = GetPrivateProfileInt("GrandReset","Add.PointsELF",0,GrandReset_DIR);

  0011d	68 00 00 00 00	 push	 OFFSET ??_C@_0BO@BFOMCEFP@?4?4?2Data?2ExData?2GrandReset?4ini?$AA@
  00122	6a 00		 push	 0
  00124	68 00 00 00 00	 push	 OFFSET ??_C@_0O@LAENHGCE@Add?4PointsELF?$AA@
  00129	68 00 00 00 00	 push	 OFFSET ??_C@_0L@EGGLDMI@GrandReset?$AA@
  0012e	ff 15 00 00 00
	00		 call	 DWORD PTR __imp__GetPrivateProfileIntA@16
  00134	8b 4d f8	 mov	 ecx, DWORD PTR _this$[ebp]
  00137	89 41 24	 mov	 DWORD PTR [ecx+36], eax

; 35   : 	this->AddPointsSUM = GetPrivateProfileInt("GrandReset","Add.PointsSUM",0,GrandReset_DIR);

  0013a	68 00 00 00 00	 push	 OFFSET ??_C@_0BO@BFOMCEFP@?4?4?2Data?2ExData?2GrandReset?4ini?$AA@
  0013f	6a 00		 push	 0
  00141	68 00 00 00 00	 push	 OFFSET ??_C@_0O@DFDMDPFD@Add?4PointsSUM?$AA@
  00146	68 00 00 00 00	 push	 OFFSET ??_C@_0L@EGGLDMI@GrandReset?$AA@
  0014b	ff 15 00 00 00
	00		 call	 DWORD PTR __imp__GetPrivateProfileIntA@16
  00151	8b 4d f8	 mov	 ecx, DWORD PTR _this$[ebp]
  00154	89 41 28	 mov	 DWORD PTR [ecx+40], eax

; 36   : 	this->AddPointsMG = GetPrivateProfileInt("GrandReset","Add.PointsMG",0,GrandReset_DIR);

  00157	68 00 00 00 00	 push	 OFFSET ??_C@_0BO@BFOMCEFP@?4?4?2Data?2ExData?2GrandReset?4ini?$AA@
  0015c	6a 00		 push	 0
  0015e	68 00 00 00 00	 push	 OFFSET ??_C@_0N@OPLGGKKM@Add?4PointsMG?$AA@
  00163	68 00 00 00 00	 push	 OFFSET ??_C@_0L@EGGLDMI@GrandReset?$AA@
  00168	ff 15 00 00 00
	00		 call	 DWORD PTR __imp__GetPrivateProfileIntA@16
  0016e	8b 4d f8	 mov	 ecx, DWORD PTR _this$[ebp]
  00171	89 41 2c	 mov	 DWORD PTR [ecx+44], eax

; 37   : 	this->AddPointsDL = GetPrivateProfileInt("GrandReset","Add.PointsDL",0,GrandReset_DIR);

  00174	68 00 00 00 00	 push	 OFFSET ??_C@_0BO@BFOMCEFP@?4?4?2Data?2ExData?2GrandReset?4ini?$AA@
  00179	6a 00		 push	 0
  0017b	68 00 00 00 00	 push	 OFFSET ??_C@_0N@DJDIIOI@Add?4PointsDL?$AA@
  00180	68 00 00 00 00	 push	 OFFSET ??_C@_0L@EGGLDMI@GrandReset?$AA@
  00185	ff 15 00 00 00
	00		 call	 DWORD PTR __imp__GetPrivateProfileIntA@16
  0018b	8b 4d f8	 mov	 ecx, DWORD PTR _this$[ebp]
  0018e	89 41 30	 mov	 DWORD PTR [ecx+48], eax

; 38   : 	this->AddPointsRF = GetPrivateProfileInt("GrandReset","Add.PointsRF",0,GrandReset_DIR);

  00191	68 00 00 00 00	 push	 OFFSET ??_C@_0BO@BFOMCEFP@?4?4?2Data?2ExData?2GrandReset?4ini?$AA@
  00196	6a 00		 push	 0
  00198	68 00 00 00 00	 push	 OFFSET ??_C@_0N@OBNHLPKA@Add?4PointsRF?$AA@
  0019d	68 00 00 00 00	 push	 OFFSET ??_C@_0L@EGGLDMI@GrandReset?$AA@
  001a2	ff 15 00 00 00
	00		 call	 DWORD PTR __imp__GetPrivateProfileIntA@16
  001a8	8b 4d f8	 mov	 ecx, DWORD PTR _this$[ebp]
  001ab	89 41 34	 mov	 DWORD PTR [ecx+52], eax

; 39   : 	this->NeedEmptyInv = GetPrivateProfileInt("GrandReset","Need.EmptyInv",1,GrandReset_DIR);

  001ae	68 00 00 00 00	 push	 OFFSET ??_C@_0BO@BFOMCEFP@?4?4?2Data?2ExData?2GrandReset?4ini?$AA@
  001b3	6a 01		 push	 1
  001b5	68 00 00 00 00	 push	 OFFSET ??_C@_0O@DMBAEBEI@Need?4EmptyInv?$AA@
  001ba	68 00 00 00 00	 push	 OFFSET ??_C@_0L@EGGLDMI@GrandReset?$AA@
  001bf	ff 15 00 00 00
	00		 call	 DWORD PTR __imp__GetPrivateProfileIntA@16
  001c5	8b 4d f8	 mov	 ecx, DWORD PTR _this$[ebp]
  001c8	89 41 38	 mov	 DWORD PTR [ecx+56], eax

; 40   : 
; 41   : 	this->AddCredits = GetPrivateProfileInt("GrandReset","AddCredits",0,GrandReset_DIR);

  001cb	68 00 00 00 00	 push	 OFFSET ??_C@_0BO@BFOMCEFP@?4?4?2Data?2ExData?2GrandReset?4ini?$AA@
  001d0	6a 00		 push	 0
  001d2	68 00 00 00 00	 push	 OFFSET ??_C@_0L@KDJHOFMG@AddCredits?$AA@
  001d7	68 00 00 00 00	 push	 OFFSET ??_C@_0L@EGGLDMI@GrandReset?$AA@
  001dc	ff 15 00 00 00
	00		 call	 DWORD PTR __imp__GetPrivateProfileIntA@16
  001e2	8b 4d f8	 mov	 ecx, DWORD PTR _this$[ebp]
  001e5	89 41 3c	 mov	 DWORD PTR [ecx+60], eax

; 42   : 	this->AddWcoinC = GetPrivateProfileInt("GrandReset","AddWcoinC",0,GrandReset_DIR);

  001e8	68 00 00 00 00	 push	 OFFSET ??_C@_0BO@BFOMCEFP@?4?4?2Data?2ExData?2GrandReset?4ini?$AA@
  001ed	6a 00		 push	 0
  001ef	68 00 00 00 00	 push	 OFFSET ??_C@_09JEGAINMK@AddWcoinC?$AA@
  001f4	68 00 00 00 00	 push	 OFFSET ??_C@_0L@EGGLDMI@GrandReset?$AA@
  001f9	ff 15 00 00 00
	00		 call	 DWORD PTR __imp__GetPrivateProfileIntA@16
  001ff	8b 4d f8	 mov	 ecx, DWORD PTR _this$[ebp]
  00202	89 41 40	 mov	 DWORD PTR [ecx+64], eax

; 43   : 	this->AddWcoinP = GetPrivateProfileInt("GrandReset","AddWcoinP",0,GrandReset_DIR);

  00205	68 00 00 00 00	 push	 OFFSET ??_C@_0BO@BFOMCEFP@?4?4?2Data?2ExData?2GrandReset?4ini?$AA@
  0020a	6a 00		 push	 0
  0020c	68 00 00 00 00	 push	 OFFSET ??_C@_09PFIPMMFI@AddWcoinP?$AA@
  00211	68 00 00 00 00	 push	 OFFSET ??_C@_0L@EGGLDMI@GrandReset?$AA@
  00216	ff 15 00 00 00
	00		 call	 DWORD PTR __imp__GetPrivateProfileIntA@16
  0021c	8b 4d f8	 mov	 ecx, DWORD PTR _this$[ebp]
  0021f	89 41 44	 mov	 DWORD PTR [ecx+68], eax

; 44   : 	this->AddGoblinPoint = GetPrivateProfileInt("GrandReset","AddGoblinPoint",0,GrandReset_DIR);

  00222	68 00 00 00 00	 push	 OFFSET ??_C@_0BO@BFOMCEFP@?4?4?2Data?2ExData?2GrandReset?4ini?$AA@
  00227	6a 00		 push	 0
  00229	68 00 00 00 00	 push	 OFFSET ??_C@_0P@KEHAPABJ@AddGoblinPoint?$AA@
  0022e	68 00 00 00 00	 push	 OFFSET ??_C@_0L@EGGLDMI@GrandReset?$AA@
  00233	ff 15 00 00 00
	00		 call	 DWORD PTR __imp__GetPrivateProfileIntA@16
  00239	8b 4d f8	 mov	 ecx, DWORD PTR _this$[ebp]
  0023c	89 41 48	 mov	 DWORD PTR [ecx+72], eax

; 45   : 
; 46   : 	 GetPrivateProfileString("GrandReset", "cmd","/grandreset",this->CommandGrandReset,100,GrandReset_DIR);

  0023f	68 00 00 00 00	 push	 OFFSET ??_C@_0BO@BFOMCEFP@?4?4?2Data?2ExData?2GrandReset?4ini?$AA@
  00244	6a 64		 push	 100			; 00000064H
  00246	8b 45 f8	 mov	 eax, DWORD PTR _this$[ebp]
  00249	83 c0 4c	 add	 eax, 76			; 0000004cH
  0024c	50		 push	 eax
  0024d	68 00 00 00 00	 push	 OFFSET ??_C@_0M@PPKBAKCD@?1grandreset?$AA@
  00252	68 00 00 00 00	 push	 OFFSET ??_C@_03LGLGIONO@cmd?$AA@
  00257	68 00 00 00 00	 push	 OFFSET ??_C@_0L@EGGLDMI@GrandReset?$AA@
  0025c	ff 15 00 00 00
	00		 call	 DWORD PTR __imp__GetPrivateProfileStringA@24

; 47   : 
; 48   : 	 this->m_NpcClass = GetPrivateProfileInt("GrandReset", "NpcClass", 0, GrandReset_DIR);

  00262	68 00 00 00 00	 push	 OFFSET ??_C@_0BO@BFOMCEFP@?4?4?2Data?2ExData?2GrandReset?4ini?$AA@
  00267	6a 00		 push	 0
  00269	68 00 00 00 00	 push	 OFFSET ??_C@_08BNJJHKPI@NpcClass?$AA@
  0026e	68 00 00 00 00	 push	 OFFSET ??_C@_0L@EGGLDMI@GrandReset?$AA@
  00273	ff 15 00 00 00
	00		 call	 DWORD PTR __imp__GetPrivateProfileIntA@16
  00279	8b 4d f8	 mov	 ecx, DWORD PTR _this$[ebp]
  0027c	89 81 c8 00 00
	00		 mov	 DWORD PTR [ecx+200], eax

; 49   : 	 this->m_NpcMap = GetPrivateProfileInt("GrandReset", "NpcMap", 0, GrandReset_DIR);

  00282	68 00 00 00 00	 push	 OFFSET ??_C@_0BO@BFOMCEFP@?4?4?2Data?2ExData?2GrandReset?4ini?$AA@
  00287	6a 00		 push	 0
  00289	68 00 00 00 00	 push	 OFFSET ??_C@_06KMEDHGPI@NpcMap?$AA@
  0028e	68 00 00 00 00	 push	 OFFSET ??_C@_0L@EGGLDMI@GrandReset?$AA@
  00293	ff 15 00 00 00
	00		 call	 DWORD PTR __imp__GetPrivateProfileIntA@16
  00299	8b 4d f8	 mov	 ecx, DWORD PTR _this$[ebp]
  0029c	89 81 cc 00 00
	00		 mov	 DWORD PTR [ecx+204], eax

; 50   : 	 this->m_NpcX = GetPrivateProfileInt("GrandReset", "NpcX", 0, GrandReset_DIR);

  002a2	68 00 00 00 00	 push	 OFFSET ??_C@_0BO@BFOMCEFP@?4?4?2Data?2ExData?2GrandReset?4ini?$AA@
  002a7	6a 00		 push	 0
  002a9	68 00 00 00 00	 push	 OFFSET ??_C@_04INNCOMHD@NpcX?$AA@
  002ae	68 00 00 00 00	 push	 OFFSET ??_C@_0L@EGGLDMI@GrandReset?$AA@
  002b3	ff 15 00 00 00
	00		 call	 DWORD PTR __imp__GetPrivateProfileIntA@16
  002b9	8b 4d f8	 mov	 ecx, DWORD PTR _this$[ebp]
  002bc	89 81 d0 00 00
	00		 mov	 DWORD PTR [ecx+208], eax

; 51   : 	 this->m_NpcY = GetPrivateProfileInt("GrandReset", "NpcY", 0, GrandReset_DIR);

  002c2	68 00 00 00 00	 push	 OFFSET ??_C@_0BO@BFOMCEFP@?4?4?2Data?2ExData?2GrandReset?4ini?$AA@
  002c7	6a 00		 push	 0
  002c9	68 00 00 00 00	 push	 OFFSET ??_C@_04JEMJNNDC@NpcY?$AA@
  002ce	68 00 00 00 00	 push	 OFFSET ??_C@_0L@EGGLDMI@GrandReset?$AA@
  002d3	ff 15 00 00 00
	00		 call	 DWORD PTR __imp__GetPrivateProfileIntA@16
  002d9	8b 4d f8	 mov	 ecx, DWORD PTR _this$[ebp]
  002dc	89 81 d4 00 00
	00		 mov	 DWORD PTR [ecx+212], eax

; 52   : 
; 53   : 	 this->m_iMapForGrand = GetPrivateProfileInt("GrandReset", "MapForGrand", 0, GrandReset_DIR);

  002e2	68 00 00 00 00	 push	 OFFSET ??_C@_0BO@BFOMCEFP@?4?4?2Data?2ExData?2GrandReset?4ini?$AA@
  002e7	6a 00		 push	 0
  002e9	68 00 00 00 00	 push	 OFFSET ??_C@_0M@MDEMBLOC@MapForGrand?$AA@
  002ee	68 00 00 00 00	 push	 OFFSET ??_C@_0L@EGGLDMI@GrandReset?$AA@
  002f3	ff 15 00 00 00
	00		 call	 DWORD PTR __imp__GetPrivateProfileIntA@16
  002f9	8b 4d f8	 mov	 ecx, DWORD PTR _this$[ebp]
  002fc	89 81 d8 00 00
	00		 mov	 DWORD PTR [ecx+216], eax

; 54   : 
; 55   : //#ifdef PRIVATE_MODULE
; 56   : //	if(g_ExLicense.CheckUser(eExUB::drynea))
; 57   : //	{
; 58   : //		this->AddWcoin = GetPrivateProfileInt("GrandReset","AddWcoin",0,GrandReset_DIR);
; 59   : //	}
; 60   : //#endif
; 61   : 
; 62   : 	
; 63   : 
; 64   : #if(ADD_GRAND_EXP)
; 65   : 	 this->EnableGrandDinamic = g_ExLicense.user.GrandDinamicExp;

  00302	8b 45 f8	 mov	 eax, DWORD PTR _this$[ebp]
  00305	8a 0d df 00 00
	00		 mov	 cl, BYTE PTR ?g_ExLicense@@3VCExLicense@@A+223
  0030b	88 88 b4 00 00
	00		 mov	 BYTE PTR [eax+180], cl

; 66   : 
; 67   : 	this->DataExp.clear();

  00311	8b 4d f8	 mov	 ecx, DWORD PTR _this$[ebp]
  00314	81 c1 b8 00 00
	00		 add	 ecx, 184		; 000000b8H
  0031a	e8 00 00 00 00	 call	 ?clear@?$vector@UGrandResetEXP@@V?$allocator@UGrandResetEXP@@@std@@@std@@QAEXXZ ; std::vector<GrandResetEXP,std::allocator<GrandResetEXP> >::clear

; 68   : 
; 69   : 	FILE * file = fopen(GrandReset_DIR,"r");

  0031f	68 00 00 00 00	 push	 OFFSET ??_C@_01KDCPPGHE@r?$AA@
  00324	68 00 00 00 00	 push	 OFFSET ??_C@_0BO@BFOMCEFP@?4?4?2Data?2ExData?2GrandReset?4ini?$AA@
  00329	e8 00 00 00 00	 call	 _fopen
  0032e	83 c4 08	 add	 esp, 8
  00331	89 45 f4	 mov	 DWORD PTR _file$[ebp], eax

; 70   : 	if(file == NULL)

  00334	83 7d f4 00	 cmp	 DWORD PTR _file$[ebp], 0
  00338	75 1c		 jne	 SHORT $LN8@Load

; 71   : 	{
; 72   : 		MessageBoxA(0,GrandReset_DIR,"LOAD FILE ERROR",0);

  0033a	6a 00		 push	 0
  0033c	68 00 00 00 00	 push	 OFFSET ??_C@_0BA@PIOFNAIM@LOAD?5FILE?5ERROR?$AA@
  00341	68 00 00 00 00	 push	 OFFSET ??_C@_0BO@BFOMCEFP@?4?4?2Data?2ExData?2GrandReset?4ini?$AA@
  00346	6a 00		 push	 0
  00348	ff 15 00 00 00
	00		 call	 DWORD PTR __imp__MessageBoxA@16

; 73   : 		ExitProcess(0);

  0034e	6a 00		 push	 0
  00350	ff 15 00 00 00
	00		 call	 DWORD PTR __imp__ExitProcess@4
$LN8@Load:

; 74   : 	}
; 75   : 	char Buff[256];
; 76   : 	int Flag = 0;

  00356	c7 85 f0 fe ff
	ff 00 00 00 00	 mov	 DWORD PTR _Flag$[ebp], 0
$LN7@Load:

; 77   : 	while(!feof(file))

  00360	8b 45 f4	 mov	 eax, DWORD PTR _file$[ebp]
  00363	50		 push	 eax
  00364	e8 00 00 00 00	 call	 _feof
  00369	83 c4 04	 add	 esp, 4
  0036c	85 c0		 test	 eax, eax
  0036e	0f 85 7b 01 00
	00		 jne	 $LN6@Load

; 78   : 	{
; 79   : 		fgets(Buff,256,file);

  00374	8b 45 f4	 mov	 eax, DWORD PTR _file$[ebp]
  00377	50		 push	 eax
  00378	68 00 01 00 00	 push	 256			; 00000100H
  0037d	8d 8d f4 fe ff
	ff		 lea	 ecx, DWORD PTR _Buff$[ebp]
  00383	51		 push	 ecx
  00384	e8 00 00 00 00	 call	 _fgets
  00389	83 c4 0c	 add	 esp, 12			; 0000000cH

; 80   : 		if(Ex_IsBadFileLine(Buff, Flag)) continue;

  0038c	8d 85 f0 fe ff
	ff		 lea	 eax, DWORD PTR _Flag$[ebp]
  00392	50		 push	 eax
  00393	8d 8d f4 fe ff
	ff		 lea	 ecx, DWORD PTR _Buff$[ebp]
  00399	51		 push	 ecx
  0039a	e8 00 00 00 00	 call	 ?Ex_IsBadFileLine@@YA_NPADAAH@Z ; Ex_IsBadFileLine
  0039f	83 c4 08	 add	 esp, 8
  003a2	0f b6 d0	 movzx	 edx, al
  003a5	85 d2		 test	 edx, edx
  003a7	74 02		 je	 SHORT $LN5@Load
  003a9	eb b5		 jmp	 SHORT $LN7@Load
$LN5@Load:

; 81   : 		if(Flag == 1)

  003ab	83 bd f0 fe ff
	ff 01		 cmp	 DWORD PTR _Flag$[ebp], 1
  003b2	75 73		 jne	 SHORT $LN4@Load

; 82   : 		{
; 83   : 			int n[3];
; 84   : 			sscanf(Buff, "%d %d %d", &n[0], &n[1], &n[2]);

  003b4	8d 85 ec fe ff
	ff		 lea	 eax, DWORD PTR _n$231709[ebp+8]
  003ba	50		 push	 eax
  003bb	8d 8d e8 fe ff
	ff		 lea	 ecx, DWORD PTR _n$231709[ebp+4]
  003c1	51		 push	 ecx
  003c2	8d 95 e4 fe ff
	ff		 lea	 edx, DWORD PTR _n$231709[ebp]
  003c8	52		 push	 edx
  003c9	68 00 00 00 00	 push	 OFFSET ??_C@_08OOHKHLPO@?$CFd?5?$CFd?5?$CFd?$AA@
  003ce	8d 85 f4 fe ff
	ff		 lea	 eax, DWORD PTR _Buff$[ebp]
  003d4	50		 push	 eax
  003d5	e8 00 00 00 00	 call	 _sscanf
  003da	83 c4 14	 add	 esp, 20			; 00000014H

; 85   : 			GrandResetEXP list;

  003dd	8d 8d dc fe ff
	ff		 lea	 ecx, DWORD PTR _list$231711[ebp]
  003e3	e8 00 00 00 00	 call	 ??0GrandResetEXP@@QAE@XZ ; GrandResetEXP::GrandResetEXP

; 86   : 			list.GrandReset = n[0];

  003e8	66 8b 85 e4 fe
	ff ff		 mov	 ax, WORD PTR _n$231709[ebp]
  003ef	66 89 85 dc fe
	ff ff		 mov	 WORD PTR _list$231711[ebp], ax

; 87   : 			list.TypeExp	= n[1];

  003f6	83 bd e8 fe ff
	ff 00		 cmp	 DWORD PTR _n$231709[ebp+4], 0
  003fd	0f 95 c0	 setne	 al
  00400	88 85 de fe ff
	ff		 mov	 BYTE PTR _list$231711[ebp+2], al

; 88   : 			list.MinusExp	= n[2];

  00406	8b 85 ec fe ff
	ff		 mov	 eax, DWORD PTR _n$231709[ebp+8]
  0040c	89 85 e0 fe ff
	ff		 mov	 DWORD PTR _list$231711[ebp+4], eax

; 89   : 			this->DataExp.push_back(list);

  00412	8d 85 dc fe ff
	ff		 lea	 eax, DWORD PTR _list$231711[ebp]
  00418	50		 push	 eax
  00419	8b 4d f8	 mov	 ecx, DWORD PTR _this$[ebp]
  0041c	81 c1 b8 00 00
	00		 add	 ecx, 184		; 000000b8H
  00422	e8 00 00 00 00	 call	 ?push_back@?$vector@UGrandResetEXP@@V?$allocator@UGrandResetEXP@@@std@@@std@@QAEXABUGrandResetEXP@@@Z ; std::vector<GrandResetEXP,std::allocator<GrandResetEXP> >::push_back
$LN4@Load:

; 90   : 		}
; 91   : 
; 92   : 		if(g_ExLicense.CheckUser(eExUB::Local) || g_ExLicense.CheckUser(eExUB::Artem) || g_ExLicense.CheckUser(eExUB::Artem2))

  00427	6a 00		 push	 0
  00429	b9 00 00 00 00	 mov	 ecx, OFFSET ?g_ExLicense@@3VCExLicense@@A ; g_ExLicense
  0042e	e8 00 00 00 00	 call	 ?CheckUser@CExLicense@@QAE_NH@Z ; CExLicense::CheckUser
  00433	0f b6 c0	 movzx	 eax, al
  00436	85 c0		 test	 eax, eax
  00438	75 2a		 jne	 SHORT $LN2@Load
  0043a	6a 30		 push	 48			; 00000030H
  0043c	b9 00 00 00 00	 mov	 ecx, OFFSET ?g_ExLicense@@3VCExLicense@@A ; g_ExLicense
  00441	e8 00 00 00 00	 call	 ?CheckUser@CExLicense@@QAE_NH@Z ; CExLicense::CheckUser
  00446	0f b6 c0	 movzx	 eax, al
  00449	85 c0		 test	 eax, eax
  0044b	75 17		 jne	 SHORT $LN2@Load
  0044d	6a 31		 push	 49			; 00000031H
  0044f	b9 00 00 00 00	 mov	 ecx, OFFSET ?g_ExLicense@@3VCExLicense@@A ; g_ExLicense
  00454	e8 00 00 00 00	 call	 ?CheckUser@CExLicense@@QAE_NH@Z ; CExLicense::CheckUser
  00459	0f b6 c0	 movzx	 eax, al
  0045c	85 c0		 test	 eax, eax
  0045e	0f 84 86 00 00
	00		 je	 $LN3@Load
$LN2@Load:

; 93   : 		{
; 94   : 			if(Flag == 2)

  00464	83 bd f0 fe ff
	ff 02		 cmp	 DWORD PTR _Flag$[ebp], 2
  0046b	75 7d		 jne	 SHORT $LN3@Load

; 95   : 			{
; 96   : 				GRANDSYSTEM_REWARD_DATA list;
; 97   : 				sscanf(Buff, "%d %d %d %d %d %d %d %d %d %d %d %d",&list.ResetNum,&list.WcoinC,&list.Credit,&list.EnableItem,&list.Type,&list.Index,&list.Level,&list.Skill,&list.Luck,&list.Opt,&list.Exl,&list.Anc);

  0046d	8d 85 d8 fe ff
	ff		 lea	 eax, DWORD PTR _list$231715[ebp+32]
  00473	50		 push	 eax
  00474	8d 8d d7 fe ff
	ff		 lea	 ecx, DWORD PTR _list$231715[ebp+31]
  0047a	51		 push	 ecx
  0047b	8d 95 d6 fe ff
	ff		 lea	 edx, DWORD PTR _list$231715[ebp+30]
  00481	52		 push	 edx
  00482	8d 85 d5 fe ff
	ff		 lea	 eax, DWORD PTR _list$231715[ebp+29]
  00488	50		 push	 eax
  00489	8d 8d d4 fe ff
	ff		 lea	 ecx, DWORD PTR _list$231715[ebp+28]
  0048f	51		 push	 ecx
  00490	8d 95 d0 fe ff
	ff		 lea	 edx, DWORD PTR _list$231715[ebp+24]
  00496	52		 push	 edx
  00497	8d 85 cc fe ff
	ff		 lea	 eax, DWORD PTR _list$231715[ebp+20]
  0049d	50		 push	 eax
  0049e	8d 8d c8 fe ff
	ff		 lea	 ecx, DWORD PTR _list$231715[ebp+16]
  004a4	51		 push	 ecx
  004a5	8d 95 c4 fe ff
	ff		 lea	 edx, DWORD PTR _list$231715[ebp+12]
  004ab	52		 push	 edx
  004ac	8d 85 c0 fe ff
	ff		 lea	 eax, DWORD PTR _list$231715[ebp+8]
  004b2	50		 push	 eax
  004b3	8d 8d bc fe ff
	ff		 lea	 ecx, DWORD PTR _list$231715[ebp+4]
  004b9	51		 push	 ecx
  004ba	8d 95 b8 fe ff
	ff		 lea	 edx, DWORD PTR _list$231715[ebp]
  004c0	52		 push	 edx
  004c1	68 00 00 00 00	 push	 OFFSET ??_C@_0CE@IFNGLMNF@?$CFd?5?$CFd?5?$CFd?5?$CFd?5?$CFd?5?$CFd?5?$CFd?5?$CFd?5?$CFd?5?$CFd?5?$CFd@
  004c6	8d 85 f4 fe ff
	ff		 lea	 eax, DWORD PTR _Buff$[ebp]
  004cc	50		 push	 eax
  004cd	e8 00 00 00 00	 call	 _sscanf
  004d2	83 c4 38	 add	 esp, 56			; 00000038H

; 98   : 				this->m_reward.push_back(list);

  004d5	8d 85 b8 fe ff
	ff		 lea	 eax, DWORD PTR _list$231715[ebp]
  004db	50		 push	 eax
  004dc	8b 4d f8	 mov	 ecx, DWORD PTR _this$[ebp]
  004df	81 c1 dc 00 00
	00		 add	 ecx, 220		; 000000dcH
  004e5	e8 00 00 00 00	 call	 ?push_back@?$vector@UGRANDSYSTEM_REWARD_DATA@@V?$allocator@UGRANDSYSTEM_REWARD_DATA@@@std@@@std@@QAEXABUGRANDSYSTEM_REWARD_DATA@@@Z ; std::vector<GRANDSYSTEM_REWARD_DATA,std::allocator<GRANDSYSTEM_REWARD_DATA> >::push_back
$LN3@Load:

; 99   : 			}
; 100  : 		}
; 101  : 	}

  004ea	e9 71 fe ff ff	 jmp	 $LN7@Load
$LN6@Load:

; 102  : 	fclose(file);

  004ef	8b 45 f4	 mov	 eax, DWORD PTR _file$[ebp]
  004f2	50		 push	 eax
  004f3	e8 00 00 00 00	 call	 _fclose
  004f8	83 c4 04	 add	 esp, 4
$LN10@Load:

; 103  : #endif
; 104  : }

  004fb	5f		 pop	 edi
  004fc	5e		 pop	 esi
  004fd	5b		 pop	 ebx
  004fe	8b 4d fc	 mov	 ecx, DWORD PTR __$ArrayPad$[ebp]
  00501	33 cd		 xor	 ecx, ebp
  00503	e8 00 00 00 00	 call	 @__security_check_cookie@4
  00508	8b e5		 mov	 esp, ebp
  0050a	5d		 pop	 ebp
  0050b	c3		 ret	 0
?Load@cGrandReset@@QAEXXZ ENDP				; cGrandReset::Load
; Function compile flags: /Odtp /ZI
; File d:\projects\exteam6.3\source\gameserver\gameserver\grandreset.h
_TEXT	ENDS
;	COMDAT ??0GrandResetEXP@@QAE@XZ
_TEXT	SEGMENT
_this$ = -4						; size = 4
??0GrandResetEXP@@QAE@XZ PROC				; GrandResetEXP::GrandResetEXP, COMDAT
; _this$ = ecx

; 11   : 	GrandResetEXP()

  00000	55		 push	 ebp
  00001	8b ec		 mov	 ebp, esp
  00003	83 ec 44	 sub	 esp, 68			; 00000044H
  00006	53		 push	 ebx
  00007	56		 push	 esi
  00008	57		 push	 edi
  00009	89 4d fc	 mov	 DWORD PTR _this$[ebp], ecx

; 12   : 	{
; 13   : 		this->GrandReset = 0;

  0000c	33 c0		 xor	 eax, eax
  0000e	8b 4d fc	 mov	 ecx, DWORD PTR _this$[ebp]
  00011	66 89 01	 mov	 WORD PTR [ecx], ax

; 14   : 		this->TypeExp = false;

  00014	8b 45 fc	 mov	 eax, DWORD PTR _this$[ebp]
  00017	c6 40 02 00	 mov	 BYTE PTR [eax+2], 0

; 15   : 		this->MinusExp = 0;

  0001b	8b 45 fc	 mov	 eax, DWORD PTR _this$[ebp]
  0001e	c7 40 04 00 00
	00 00		 mov	 DWORD PTR [eax+4], 0

; 16   : 	}

  00025	8b 45 fc	 mov	 eax, DWORD PTR _this$[ebp]
  00028	5f		 pop	 edi
  00029	5e		 pop	 esi
  0002a	5b		 pop	 ebx
  0002b	8b e5		 mov	 esp, ebp
  0002d	5d		 pop	 ebp
  0002e	c3		 ret	 0
??0GrandResetEXP@@QAE@XZ ENDP				; GrandResetEXP::GrandResetEXP
_TEXT	ENDS
PUBLIC	??_C@_0DL@JEEEMDGP@?$FLGrandResetSystem?$FN?5Accaunt?3?5?$CFs?5?0@ ; `string'
PUBLIC	?ExGrandResetSystemFunciton@cGrandReset@@QAEXH@Z ; cGrandReset::ExGrandResetSystemFunciton
EXTRN	?LogAddTD@@3P6AXPADZZA:DWORD			; LogAddTD
EXTRN	?GrandResetUp@CAchievements@@QAEXH@Z:PROC	; CAchievements::GrandResetUp
EXTRN	?g_Achievements@@3VCAchievements@@A:BYTE	; g_Achievements
EXTRN	?gObjRemoveBuffEffect@@YAEPAUOBJECTSTRUCT@@H@Z:PROC ; gObjRemoveBuffEffect
EXTRN	?gObjSearchActiveEffect@@YAEPAUOBJECTSTRUCT@@H@Z:PROC ; gObjSearchActiveEffect
EXTRN	?ExConfig@@3VcExConfigs@@A:BYTE			; ExConfig
EXTRN	?GCMoneySend@@YAXHK@Z:PROC			; GCMoneySend
EXTRN	?ResetSystemGC_CharUpdate@@YAXPAUOBJECTSTRUCT@@@Z:PROC ; ResetSystemGC_CharUpdate
EXTRN	?gObjCalCharacter@@YAXH@Z:PROC			; gObjCalCharacter
EXTRN	?GCManaSend@@YAXHHEEH@Z:PROC			; GCManaSend
EXTRN	?GCReFillSend@@YAXHHEEH@Z:PROC			; GCReFillSend
EXTRN	?gObjCalcMaxLifePower@@YAXH@Z:PROC		; gObjCalcMaxLifePower
EXTRN	?gObjSetBP@@YAXH@Z:PROC				; gObjSetBP
EXTRN	?DCInfo@@3Vclassdef@@A:BYTE			; DCInfo
EXTRN	?ExFireCracker@@YAXHEE@Z:PROC			; ExFireCracker
EXTRN	?GDSaveUserInfo@GameShop@@QAEXH@Z:PROC		; GameShop::GDSaveUserInfo
EXTRN	?gGameShop@@3VGameShop@@A:BYTE			; gGameShop
EXTRN	?ExUserDataSend@@YAXH@Z:PROC			; ExUserDataSend
EXTRN	?CheckInterfaceToMove@CMoveCommand@@QAEHPAUOBJECTSTRUCT@@@Z:PROC ; CMoveCommand::CheckInterfaceToMove
EXTRN	?gMoveCommand@@3VCMoveCommand@@A:BYTE		; gMoveCommand
EXTRN	?MsgNormal@@YAXHPADZZ:PROC			; MsgNormal
EXTRN	?GetText@CExText@@QAEPADH@Z:PROC		; CExText::GetText
EXTRN	?g_ExText@@3VCExText@@A:BYTE			; g_ExText
EXTRN	?GCCloseMsgSend@@YAXHE@Z:PROC			; GCCloseMsgSend
EXTRN	?GCServerMsgStringSend@@YAXPADHE@Z:PROC		; GCServerMsgStringSend
EXTRN	?Get@CMsg@@QAEPADH@Z:PROC			; CMsg::Get
EXTRN	?lMsg@@3VCMsg@@A:BYTE				; lMsg
EXTRN	__imp__GetTickCount@0:PROC
EXTRN	?gObj@@3PAUOBJECTSTRUCT@@A:DWORD		; gObj
EXTRN	__fltused:DWORD
EXTRN	__ftol2_sse:PROC
;	COMDAT ??_C@_0DL@JEEEMDGP@?$FLGrandResetSystem?$FN?5Accaunt?3?5?$CFs?5?0@
; File d:\projects\exteam6.3\source\gameserver\gameserver\grandreset.cpp
CONST	SEGMENT
??_C@_0DL@JEEEMDGP@?$FLGrandResetSystem?$FN?5Accaunt?3?5?$CFs?5?0@ DB '[G'
	DB	'randResetSystem] Accaunt: %s , Name: %s , GrandReset: %d', 00H ; `string'
; Function compile flags: /Odtp /ZI
CONST	ENDS
_TEXT	SEGMENT
tv861 = -84						; size = 4
tv847 = -84						; size = 4
tv833 = -84						; size = 4
tv819 = -84						; size = 4
tv856 = -80						; size = 4
tv842 = -80						; size = 4
tv828 = -80						; size = 4
tv814 = -80						; size = 4
tv273 = -80						; size = 4
tv165 = -80						; size = 4
_ZenMoney$ = -12					; size = 4
_lpObj$ = -8						; size = 4
_this$ = -4						; size = 4
_aIndex$ = 8						; size = 4
?ExGrandResetSystemFunciton@cGrandReset@@QAEXH@Z PROC	; cGrandReset::ExGrandResetSystemFunciton
; _this$ = ecx

; 107  : {

  00510	55		 push	 ebp
  00511	8b ec		 mov	 ebp, esp
  00513	83 ec 54	 sub	 esp, 84			; 00000054H
  00516	53		 push	 ebx
  00517	56		 push	 esi
  00518	57		 push	 edi
  00519	89 4d fc	 mov	 DWORD PTR _this$[ebp], ecx

; 108  : 	if(!this->EnableGrandResetSystem)

  0051c	8b 45 fc	 mov	 eax, DWORD PTR _this$[ebp]
  0051f	83 38 00	 cmp	 DWORD PTR [eax], 0
  00522	75 05		 jne	 SHORT $LN43@ExGrandRes

; 109  : 		return;

  00524	e9 0f 0a 00 00	 jmp	 $LN44@ExGrandRes
$LN43@ExGrandRes:

; 110  : 
; 111  : 	LPOBJ lpObj = &gObj[aIndex];

  00529	8b 45 08	 mov	 eax, DWORD PTR _aIndex$[ebp]
  0052c	69 c0 38 2b 00
	00		 imul	 eax, 11064		; 00002b38H
  00532	03 05 00 00 00
	00		 add	 eax, DWORD PTR ?gObj@@3PAUOBJECTSTRUCT@@A ; gObj
  00538	89 45 f8	 mov	 DWORD PTR _lpObj$[ebp], eax

; 112  : 
; 113  : 	if ( (GetTickCount() - lpObj->MySelfDefenseTime ) < 60000)

  0053b	ff 15 00 00 00
	00		 call	 DWORD PTR __imp__GetTickCount@0
  00541	8b 4d f8	 mov	 ecx, DWORD PTR _lpObj$[ebp]
  00544	2b 81 1c 04 00
	00		 sub	 eax, DWORD PTR [ecx+1052]
  0054a	3d 60 ea 00 00	 cmp	 eax, 60000		; 0000ea60H
  0054f	73 36		 jae	 SHORT $LN42@ExGrandRes

; 114  : 	{
; 115  : 		GCServerMsgStringSend(lMsg.Get(MSGGET(4, 109)), lpObj->m_Index, 1);

  00551	6a 01		 push	 1
  00553	8b 45 f8	 mov	 eax, DWORD PTR _lpObj$[ebp]
  00556	8b 08		 mov	 ecx, DWORD PTR [eax]
  00558	51		 push	 ecx
  00559	68 6d 04 00 00	 push	 1133			; 0000046dH
  0055e	b9 00 00 00 00	 mov	 ecx, OFFSET ?lMsg@@3VCMsg@@A ; lMsg
  00563	e8 00 00 00 00	 call	 ?Get@CMsg@@QAEPADH@Z	; CMsg::Get
  00568	50		 push	 eax
  00569	e8 00 00 00 00	 call	 ?GCServerMsgStringSend@@YAXPADHE@Z ; GCServerMsgStringSend
  0056e	83 c4 0c	 add	 esp, 12			; 0000000cH

; 116  : 		GCCloseMsgSend(aIndex,-1); //Season 2.5 add-on

  00571	68 ff 00 00 00	 push	 255			; 000000ffH
  00576	8b 45 08	 mov	 eax, DWORD PTR _aIndex$[ebp]
  00579	50		 push	 eax
  0057a	e8 00 00 00 00	 call	 ?GCCloseMsgSend@@YAXHE@Z ; GCCloseMsgSend
  0057f	83 c4 08	 add	 esp, 8

; 117  : 		return;

  00582	e9 b1 09 00 00	 jmp	 $LN44@ExGrandRes
$LN42@ExGrandRes:

; 118  : 	}
; 119  : 
; 120  : 	if(lpObj->SkillRecallParty_Time != 0)

  00587	8b 45 f8	 mov	 eax, DWORD PTR _lpObj$[ebp]
  0058a	0f b7 88 74 12
	00 00		 movzx	 ecx, WORD PTR [eax+4724]
  00591	85 c9		 test	 ecx, ecx
  00593	74 05		 je	 SHORT $LN41@ExGrandRes

; 121  : 	{
; 122  : 		return;

  00595	e9 9e 09 00 00	 jmp	 $LN44@ExGrandRes
$LN41@ExGrandRes:

; 123  : 	}
; 124  : 
; 125  : 	if(lpObj->MapNumber != this->m_iMapForGrand)

  0059a	8b 45 f8	 mov	 eax, DWORD PTR _lpObj$[ebp]
  0059d	0f b6 88 49 01
	00 00		 movzx	 ecx, BYTE PTR [eax+329]
  005a4	8b 55 fc	 mov	 edx, DWORD PTR _this$[ebp]
  005a7	3b 8a d8 00 00
	00		 cmp	 ecx, DWORD PTR [edx+216]
  005ad	74 1e		 je	 SHORT $LN40@ExGrandRes

; 126  : 	{
; 127  : 		MsgNormal(aIndex,g_ExText.GetText(12));

  005af	6a 0c		 push	 12			; 0000000cH
  005b1	b9 00 00 00 00	 mov	 ecx, OFFSET ?g_ExText@@3VCExText@@A ; g_ExText
  005b6	e8 00 00 00 00	 call	 ?GetText@CExText@@QAEPADH@Z ; CExText::GetText
  005bb	50		 push	 eax
  005bc	8b 45 08	 mov	 eax, DWORD PTR _aIndex$[ebp]
  005bf	50		 push	 eax
  005c0	e8 00 00 00 00	 call	 ?MsgNormal@@YAXHPADZZ	; MsgNormal
  005c5	83 c4 08	 add	 esp, 8

; 128  : 		return;

  005c8	e9 6b 09 00 00	 jmp	 $LN44@ExGrandRes
$LN40@ExGrandRes:

; 129  : 	}
; 130  : 
; 131  : 	if(gMoveCommand.CheckInterfaceToMove(lpObj) == 0)

  005cd	8b 45 f8	 mov	 eax, DWORD PTR _lpObj$[ebp]
  005d0	50		 push	 eax
  005d1	b9 00 00 00 00	 mov	 ecx, OFFSET ?gMoveCommand@@3VCMoveCommand@@A ; gMoveCommand
  005d6	e8 00 00 00 00	 call	 ?CheckInterfaceToMove@CMoveCommand@@QAEHPAUOBJECTSTRUCT@@@Z ; CMoveCommand::CheckInterfaceToMove
  005db	85 c0		 test	 eax, eax
  005dd	75 22		 jne	 SHORT $LN39@ExGrandRes

; 132  : 	{
; 133  : 		GCServerMsgStringSend(g_ExText.GetText(13),lpObj->m_Index,1);

  005df	6a 01		 push	 1
  005e1	8b 45 f8	 mov	 eax, DWORD PTR _lpObj$[ebp]
  005e4	8b 08		 mov	 ecx, DWORD PTR [eax]
  005e6	51		 push	 ecx
  005e7	6a 0d		 push	 13			; 0000000dH
  005e9	b9 00 00 00 00	 mov	 ecx, OFFSET ?g_ExText@@3VCExText@@A ; g_ExText
  005ee	e8 00 00 00 00	 call	 ?GetText@CExText@@QAEPADH@Z ; CExText::GetText
  005f3	50		 push	 eax
  005f4	e8 00 00 00 00	 call	 ?GCServerMsgStringSend@@YAXPADHE@Z ; GCServerMsgStringSend
  005f9	83 c4 0c	 add	 esp, 12			; 0000000cH

; 134  : 		return;

  005fc	e9 37 09 00 00	 jmp	 $LN44@ExGrandRes
$LN39@ExGrandRes:

; 135  : 	}
; 136  : 
; 137  : 	//Проверка на максимальное количество ресетов
; 138  : 	if(lpObj->GReset >= this->MaxGrandRes)

  00601	8b 45 f8	 mov	 eax, DWORD PTR _lpObj$[ebp]
  00604	8b 4d fc	 mov	 ecx, DWORD PTR _this$[ebp]
  00607	8b 90 94 22 00
	00		 mov	 edx, DWORD PTR [eax+8852]
  0060d	3b 51 04	 cmp	 edx, DWORD PTR [ecx+4]
  00610	7c 25		 jl	 SHORT $LN38@ExGrandRes

; 139  : 	{
; 140  : 		MsgNormal(aIndex,g_ExText.GetText(14),this->MaxGrandRes);

  00612	8b 45 fc	 mov	 eax, DWORD PTR _this$[ebp]
  00615	8b 48 04	 mov	 ecx, DWORD PTR [eax+4]
  00618	51		 push	 ecx
  00619	6a 0e		 push	 14			; 0000000eH
  0061b	b9 00 00 00 00	 mov	 ecx, OFFSET ?g_ExText@@3VCExText@@A ; g_ExText
  00620	e8 00 00 00 00	 call	 ?GetText@CExText@@QAEPADH@Z ; CExText::GetText
  00625	50		 push	 eax
  00626	8b 55 08	 mov	 edx, DWORD PTR _aIndex$[ebp]
  00629	52		 push	 edx
  0062a	e8 00 00 00 00	 call	 ?MsgNormal@@YAXHPADZZ	; MsgNormal
  0062f	83 c4 0c	 add	 esp, 12			; 0000000cH

; 141  : 		return;

  00632	e9 01 09 00 00	 jmp	 $LN44@ExGrandRes
$LN38@ExGrandRes:

; 142  : 	}
; 143  : 	
; 144  : 	//Проверка на Ресет
; 145  : 	if(this->NeedRes > lpObj->Reset)

  00637	8b 45 fc	 mov	 eax, DWORD PTR _this$[ebp]
  0063a	8b 4d f8	 mov	 ecx, DWORD PTR _lpObj$[ebp]
  0063d	8b 50 10	 mov	 edx, DWORD PTR [eax+16]
  00640	3b 91 90 22 00
	00		 cmp	 edx, DWORD PTR [ecx+8848]
  00646	7e 25		 jle	 SHORT $LN37@ExGrandRes

; 146  : 	{
; 147  : 		MsgNormal(aIndex,g_ExText.GetText(15),this->NeedRes);

  00648	8b 45 fc	 mov	 eax, DWORD PTR _this$[ebp]
  0064b	8b 48 10	 mov	 ecx, DWORD PTR [eax+16]
  0064e	51		 push	 ecx
  0064f	6a 0f		 push	 15			; 0000000fH
  00651	b9 00 00 00 00	 mov	 ecx, OFFSET ?g_ExText@@3VCExText@@A ; g_ExText
  00656	e8 00 00 00 00	 call	 ?GetText@CExText@@QAEPADH@Z ; CExText::GetText
  0065b	50		 push	 eax
  0065c	8b 55 08	 mov	 edx, DWORD PTR _aIndex$[ebp]
  0065f	52		 push	 edx
  00660	e8 00 00 00 00	 call	 ?MsgNormal@@YAXHPADZZ	; MsgNormal
  00665	83 c4 0c	 add	 esp, 12			; 0000000cH

; 148  : 		return;

  00668	e9 cb 08 00 00	 jmp	 $LN44@ExGrandRes
$LN37@ExGrandRes:

; 149  : 	}
; 150  : 	//Проверка на уровень
; 151  : 	if(this->NeedLevel > lpObj->Level)

  0066d	8b 45 f8	 mov	 eax, DWORD PTR _lpObj$[ebp]
  00670	0f bf 88 be 00
	00 00		 movsx	 ecx, WORD PTR [eax+190]
  00677	8b 55 fc	 mov	 edx, DWORD PTR _this$[ebp]
  0067a	39 4a 14	 cmp	 DWORD PTR [edx+20], ecx
  0067d	7e 25		 jle	 SHORT $LN36@ExGrandRes

; 152  : 	{
; 153  : 		MsgNormal(aIndex,g_ExText.GetText(16),this->NeedLevel);

  0067f	8b 45 fc	 mov	 eax, DWORD PTR _this$[ebp]
  00682	8b 48 14	 mov	 ecx, DWORD PTR [eax+20]
  00685	51		 push	 ecx
  00686	6a 10		 push	 16			; 00000010H
  00688	b9 00 00 00 00	 mov	 ecx, OFFSET ?g_ExText@@3VCExText@@A ; g_ExText
  0068d	e8 00 00 00 00	 call	 ?GetText@CExText@@QAEPADH@Z ; CExText::GetText
  00692	50		 push	 eax
  00693	8b 55 08	 mov	 edx, DWORD PTR _aIndex$[ebp]
  00696	52		 push	 edx
  00697	e8 00 00 00 00	 call	 ?MsgNormal@@YAXHPADZZ	; MsgNormal
  0069c	83 c4 0c	 add	 esp, 12			; 0000000cH

; 154  : 		return;

  0069f	e9 94 08 00 00	 jmp	 $LN44@ExGrandRes
$LN36@ExGrandRes:

; 155  : 	}
; 156  : 	int ZenMoney = 0;

  006a4	c7 45 f4 00 00
	00 00		 mov	 DWORD PTR _ZenMoney$[ebp], 0

; 157  : 	//Проверка на зен
; 158  : 	switch(this->ZenForm)

  006ab	8b 45 fc	 mov	 eax, DWORD PTR _this$[ebp]
  006ae	8b 48 08	 mov	 ecx, DWORD PTR [eax+8]
  006b1	89 4d b0	 mov	 DWORD PTR tv165[ebp], ecx
  006b4	83 7d b0 01	 cmp	 DWORD PTR tv165[ebp], 1
  006b8	74 08		 je	 SHORT $LN33@ExGrandRes
  006ba	83 7d b0 02	 cmp	 DWORD PTR tv165[ebp], 2
  006be	74 1a		 je	 SHORT $LN32@ExGrandRes
  006c0	eb 21		 jmp	 SHORT $LN34@ExGrandRes
$LN33@ExGrandRes:

; 159  : 	{
; 160  : 		case 1: ZenMoney = this->NeedZen * ( lpObj->GReset + 1 ); break;

  006c2	8b 45 f8	 mov	 eax, DWORD PTR _lpObj$[ebp]
  006c5	8b 88 94 22 00
	00		 mov	 ecx, DWORD PTR [eax+8852]
  006cb	83 c1 01	 add	 ecx, 1
  006ce	8b 55 fc	 mov	 edx, DWORD PTR _this$[ebp]
  006d1	0f af 4a 0c	 imul	 ecx, DWORD PTR [edx+12]
  006d5	89 4d f4	 mov	 DWORD PTR _ZenMoney$[ebp], ecx
  006d8	eb 09		 jmp	 SHORT $LN34@ExGrandRes
$LN32@ExGrandRes:

; 161  : 		case 2: ZenMoney = this->NeedZen; break;

  006da	8b 45 fc	 mov	 eax, DWORD PTR _this$[ebp]
  006dd	8b 48 0c	 mov	 ecx, DWORD PTR [eax+12]
  006e0	89 4d f4	 mov	 DWORD PTR _ZenMoney$[ebp], ecx
$LN34@ExGrandRes:

; 162  : 	}
; 163  : 	
; 164  : 	if(this->ZenForm != 0)

  006e3	8b 45 fc	 mov	 eax, DWORD PTR _this$[ebp]
  006e6	83 78 08 00	 cmp	 DWORD PTR [eax+8], 0
  006ea	74 30		 je	 SHORT $LN30@ExGrandRes

; 165  : 	{
; 166  : 		if(lpObj->Money < ZenMoney)

  006ec	8b 45 f8	 mov	 eax, DWORD PTR _lpObj$[ebp]
  006ef	8b 88 f0 00 00
	00		 mov	 ecx, DWORD PTR [eax+240]
  006f5	3b 4d f4	 cmp	 ecx, DWORD PTR _ZenMoney$[ebp]
  006f8	7d 22		 jge	 SHORT $LN30@ExGrandRes

; 167  : 		{
; 168  : 			MsgNormal(aIndex,g_ExText.GetText(17),ZenMoney);

  006fa	8b 45 f4	 mov	 eax, DWORD PTR _ZenMoney$[ebp]
  006fd	50		 push	 eax
  006fe	6a 11		 push	 17			; 00000011H
  00700	b9 00 00 00 00	 mov	 ecx, OFFSET ?g_ExText@@3VCExText@@A ; g_ExText
  00705	e8 00 00 00 00	 call	 ?GetText@CExText@@QAEPADH@Z ; CExText::GetText
  0070a	50		 push	 eax
  0070b	8b 4d 08	 mov	 ecx, DWORD PTR _aIndex$[ebp]
  0070e	51		 push	 ecx
  0070f	e8 00 00 00 00	 call	 ?MsgNormal@@YAXHPADZZ	; MsgNormal
  00714	83 c4 0c	 add	 esp, 12			; 0000000cH

; 169  : 			return;

  00717	e9 1c 08 00 00	 jmp	 $LN44@ExGrandRes
$LN30@ExGrandRes:

; 170  : 		}
; 171  : 	}
; 172  : 	//Проверка на пустой инвентарь
; 173  : 	if(this->NeedEmptyInv)

  0071c	8b 45 fc	 mov	 eax, DWORD PTR _this$[ebp]
  0071f	83 78 38 00	 cmp	 DWORD PTR [eax+56], 0
  00723	0f 84 2b 01 00
	00		 je	 $LN28@ExGrandRes

; 174  : 	{
; 175  : 		if(lpObj->pInventory[0].m_Type != -1 || lpObj->pInventory[1].m_Type != -1 || lpObj->pInventory[2].m_Type != -1 ||
; 176  : 		   lpObj->pInventory[3].m_Type != -1 || lpObj->pInventory[4].m_Type != -1 || lpObj->pInventory[5].m_Type != -1 ||
; 177  : 		   lpObj->pInventory[6].m_Type != -1 || lpObj->pInventory[7].m_Type != -1 || lpObj->pInventory[8].m_Type != -1 ||
; 178  : 		   lpObj->pInventory[9].m_Type != -1 || lpObj->pInventory[10].m_Type != -1|| lpObj->pInventory[11].m_Type != -1)

  00729	8b 45 f8	 mov	 eax, DWORD PTR _lpObj$[ebp]
  0072c	8b 88 24 0e 00
	00		 mov	 ecx, DWORD PTR [eax+3620]
  00732	0f bf 51 06	 movsx	 edx, WORD PTR [ecx+6]
  00736	83 fa ff	 cmp	 edx, -1
  00739	0f 85 f7 00 00
	00		 jne	 $LN27@ExGrandRes
  0073f	8b 45 f8	 mov	 eax, DWORD PTR _lpObj$[ebp]
  00742	8b 88 24 0e 00
	00		 mov	 ecx, DWORD PTR [eax+3620]
  00748	0f bf 91 da 00
	00 00		 movsx	 edx, WORD PTR [ecx+218]
  0074f	83 fa ff	 cmp	 edx, -1
  00752	0f 85 de 00 00
	00		 jne	 $LN27@ExGrandRes
  00758	8b 45 f8	 mov	 eax, DWORD PTR _lpObj$[ebp]
  0075b	8b 88 24 0e 00
	00		 mov	 ecx, DWORD PTR [eax+3620]
  00761	0f bf 91 ae 01
	00 00		 movsx	 edx, WORD PTR [ecx+430]
  00768	83 fa ff	 cmp	 edx, -1
  0076b	0f 85 c5 00 00
	00		 jne	 $LN27@ExGrandRes
  00771	8b 45 f8	 mov	 eax, DWORD PTR _lpObj$[ebp]
  00774	8b 88 24 0e 00
	00		 mov	 ecx, DWORD PTR [eax+3620]
  0077a	0f bf 91 82 02
	00 00		 movsx	 edx, WORD PTR [ecx+642]
  00781	83 fa ff	 cmp	 edx, -1
  00784	0f 85 ac 00 00
	00		 jne	 $LN27@ExGrandRes
  0078a	8b 45 f8	 mov	 eax, DWORD PTR _lpObj$[ebp]
  0078d	8b 88 24 0e 00
	00		 mov	 ecx, DWORD PTR [eax+3620]
  00793	0f bf 91 56 03
	00 00		 movsx	 edx, WORD PTR [ecx+854]
  0079a	83 fa ff	 cmp	 edx, -1
  0079d	0f 85 93 00 00
	00		 jne	 $LN27@ExGrandRes
  007a3	8b 45 f8	 mov	 eax, DWORD PTR _lpObj$[ebp]
  007a6	8b 88 24 0e 00
	00		 mov	 ecx, DWORD PTR [eax+3620]
  007ac	0f bf 91 2a 04
	00 00		 movsx	 edx, WORD PTR [ecx+1066]
  007b3	83 fa ff	 cmp	 edx, -1
  007b6	75 7e		 jne	 SHORT $LN27@ExGrandRes
  007b8	8b 45 f8	 mov	 eax, DWORD PTR _lpObj$[ebp]
  007bb	8b 88 24 0e 00
	00		 mov	 ecx, DWORD PTR [eax+3620]
  007c1	0f bf 91 fe 04
	00 00		 movsx	 edx, WORD PTR [ecx+1278]
  007c8	83 fa ff	 cmp	 edx, -1
  007cb	75 69		 jne	 SHORT $LN27@ExGrandRes
  007cd	8b 45 f8	 mov	 eax, DWORD PTR _lpObj$[ebp]
  007d0	8b 88 24 0e 00
	00		 mov	 ecx, DWORD PTR [eax+3620]
  007d6	0f bf 91 d2 05
	00 00		 movsx	 edx, WORD PTR [ecx+1490]
  007dd	83 fa ff	 cmp	 edx, -1
  007e0	75 54		 jne	 SHORT $LN27@ExGrandRes
  007e2	8b 45 f8	 mov	 eax, DWORD PTR _lpObj$[ebp]
  007e5	8b 88 24 0e 00
	00		 mov	 ecx, DWORD PTR [eax+3620]
  007eb	0f bf 91 a6 06
	00 00		 movsx	 edx, WORD PTR [ecx+1702]
  007f2	83 fa ff	 cmp	 edx, -1
  007f5	75 3f		 jne	 SHORT $LN27@ExGrandRes
  007f7	8b 45 f8	 mov	 eax, DWORD PTR _lpObj$[ebp]
  007fa	8b 88 24 0e 00
	00		 mov	 ecx, DWORD PTR [eax+3620]
  00800	0f bf 91 7a 07
	00 00		 movsx	 edx, WORD PTR [ecx+1914]
  00807	83 fa ff	 cmp	 edx, -1
  0080a	75 2a		 jne	 SHORT $LN27@ExGrandRes
  0080c	8b 45 f8	 mov	 eax, DWORD PTR _lpObj$[ebp]
  0080f	8b 88 24 0e 00
	00		 mov	 ecx, DWORD PTR [eax+3620]
  00815	0f bf 91 4e 08
	00 00		 movsx	 edx, WORD PTR [ecx+2126]
  0081c	83 fa ff	 cmp	 edx, -1
  0081f	75 15		 jne	 SHORT $LN27@ExGrandRes
  00821	8b 45 f8	 mov	 eax, DWORD PTR _lpObj$[ebp]
  00824	8b 88 24 0e 00
	00		 mov	 ecx, DWORD PTR [eax+3620]
  0082a	0f bf 91 22 09
	00 00		 movsx	 edx, WORD PTR [ecx+2338]
  00831	83 fa ff	 cmp	 edx, -1
  00834	74 1e		 je	 SHORT $LN28@ExGrandRes
$LN27@ExGrandRes:

; 179  : 		{
; 180  : 			MsgNormal(aIndex,g_ExText.GetText(18));

  00836	6a 12		 push	 18			; 00000012H
  00838	b9 00 00 00 00	 mov	 ecx, OFFSET ?g_ExText@@3VCExText@@A ; g_ExText
  0083d	e8 00 00 00 00	 call	 ?GetText@CExText@@QAEPADH@Z ; CExText::GetText
  00842	50		 push	 eax
  00843	8b 45 08	 mov	 eax, DWORD PTR _aIndex$[ebp]
  00846	50		 push	 eax
  00847	e8 00 00 00 00	 call	 ?MsgNormal@@YAXHPADZZ	; MsgNormal
  0084c	83 c4 08	 add	 esp, 8

; 181  : 			return;

  0084f	e9 e4 06 00 00	 jmp	 $LN44@ExGrandRes
$LN28@ExGrandRes:

; 182  : 		}
; 183  : 	}
; 184  : 	/////////////////////
; 185  : 	//Выполнение Гранд ресета//
; 186  : 	/////////////////////
; 187  : 	lpObj->Money -= ZenMoney;

  00854	8b 45 f8	 mov	 eax, DWORD PTR _lpObj$[ebp]
  00857	8b 88 f0 00 00
	00		 mov	 ecx, DWORD PTR [eax+240]
  0085d	2b 4d f4	 sub	 ecx, DWORD PTR _ZenMoney$[ebp]
  00860	8b 55 f8	 mov	 edx, DWORD PTR _lpObj$[ebp]
  00863	89 8a f0 00 00
	00		 mov	 DWORD PTR [edx+240], ecx

; 188  : 	lpObj->Level = 1;

  00869	b8 01 00 00 00	 mov	 eax, 1
  0086e	8b 4d f8	 mov	 ecx, DWORD PTR _lpObj$[ebp]
  00871	66 89 81 be 00
	00 00		 mov	 WORD PTR [ecx+190], ax

; 189  : 	lpObj->Experience = 0;

  00878	8b 45 f8	 mov	 eax, DWORD PTR _lpObj$[ebp]
  0087b	c7 80 c8 00 00
	00 00 00 00 00	 mov	 DWORD PTR [eax+200], 0

; 190  : 	lpObj->NextExp = 100;

  00885	8b 45 f8	 mov	 eax, DWORD PTR _lpObj$[ebp]
  00888	c7 80 cc 00 00
	00 64 00 00 00	 mov	 DWORD PTR [eax+204], 100 ; 00000064H

; 191  : 	if(this->AddForm == 2 || this->AddForm == 3)

  00892	8b 45 fc	 mov	 eax, DWORD PTR _this$[ebp]
  00895	83 78 18 02	 cmp	 DWORD PTR [eax+24], 2
  00899	74 09		 je	 SHORT $LN25@ExGrandRes
  0089b	8b 45 fc	 mov	 eax, DWORD PTR _this$[ebp]
  0089e	83 78 18 03	 cmp	 DWORD PTR [eax+24], 3
  008a2	75 5a		 jne	 SHORT $LN24@ExGrandRes
$LN25@ExGrandRes:

; 192  : 	{
; 193  : 		lpObj->Strength = 25;

  008a4	b8 19 00 00 00	 mov	 eax, 25			; 00000019H
  008a9	8b 4d f8	 mov	 ecx, DWORD PTR _lpObj$[ebp]
  008ac	66 89 81 f4 00
	00 00		 mov	 WORD PTR [ecx+244], ax

; 194  : 		lpObj->Dexterity = 25;

  008b3	b8 19 00 00 00	 mov	 eax, 25			; 00000019H
  008b8	8b 4d f8	 mov	 ecx, DWORD PTR _lpObj$[ebp]
  008bb	66 89 81 f6 00
	00 00		 mov	 WORD PTR [ecx+246], ax

; 195  : 		lpObj->Vitality = 25;

  008c2	b8 19 00 00 00	 mov	 eax, 25			; 00000019H
  008c7	8b 4d f8	 mov	 ecx, DWORD PTR _lpObj$[ebp]
  008ca	66 89 81 f8 00
	00 00		 mov	 WORD PTR [ecx+248], ax

; 196  : 		lpObj->Energy = 25;

  008d1	b8 19 00 00 00	 mov	 eax, 25			; 00000019H
  008d6	8b 4d f8	 mov	 ecx, DWORD PTR _lpObj$[ebp]
  008d9	66 89 81 fa 00
	00 00		 mov	 WORD PTR [ecx+250], ax

; 197  : 		if(lpObj->Class == 4)

  008e0	8b 45 f8	 mov	 eax, DWORD PTR _lpObj$[ebp]
  008e3	0f b7 88 b8 00
	00 00		 movzx	 ecx, WORD PTR [eax+184]
  008ea	83 f9 04	 cmp	 ecx, 4
  008ed	75 0f		 jne	 SHORT $LN24@ExGrandRes

; 198  : 		{
; 199  : 			lpObj->Leadership = 25;

  008ef	b8 19 00 00 00	 mov	 eax, 25			; 00000019H
  008f4	8b 4d f8	 mov	 ecx, DWORD PTR _lpObj$[ebp]
  008f7	66 89 81 18 01
	00 00		 mov	 WORD PTR [ecx+280], ax
$LN24@ExGrandRes:

; 200  : 		}
; 201  : 	}
; 202  : 	//Поинта за гранд ресет
; 203  : 	if(this->AddForm == 1 || this->AddForm == 2)

  008fe	8b 45 fc	 mov	 eax, DWORD PTR _this$[ebp]
  00901	83 78 18 01	 cmp	 DWORD PTR [eax+24], 1
  00905	74 0d		 je	 SHORT $LN22@ExGrandRes
  00907	8b 45 fc	 mov	 eax, DWORD PTR _this$[ebp]
  0090a	83 78 18 02	 cmp	 DWORD PTR [eax+24], 2
  0090e	0f 85 f7 00 00
	00		 jne	 $LN20@ExGrandRes
$LN22@ExGrandRes:

; 204  : 	{
; 205  : 		switch (lpObj->Class)

  00914	8b 45 f8	 mov	 eax, DWORD PTR _lpObj$[ebp]
  00917	0f b7 88 b8 00
	00 00		 movzx	 ecx, WORD PTR [eax+184]
  0091e	89 4d b0	 mov	 DWORD PTR tv273[ebp], ecx
  00921	83 7d b0 06	 cmp	 DWORD PTR tv273[ebp], 6
  00925	0f 87 e0 00 00
	00		 ja	 $LN20@ExGrandRes
  0092b	8b 55 b0	 mov	 edx, DWORD PTR tv273[ebp]
  0092e	ff 24 95 00 00
	00 00		 jmp	 DWORD PTR $LN46@ExGrandRes[edx*4]
$LN19@ExGrandRes:

; 206  : 		{
; 207  : 			case 0: lpObj->LevelUpPoint = ( lpObj->GReset + 1 ) * this->AddPointsDW ;  break;

  00935	8b 45 f8	 mov	 eax, DWORD PTR _lpObj$[ebp]
  00938	8b 88 94 22 00
	00		 mov	 ecx, DWORD PTR [eax+8852]
  0093e	83 c1 01	 add	 ecx, 1
  00941	8b 55 fc	 mov	 edx, DWORD PTR _this$[ebp]
  00944	0f af 4a 1c	 imul	 ecx, DWORD PTR [edx+28]
  00948	8b 45 f8	 mov	 eax, DWORD PTR _lpObj$[ebp]
  0094b	89 88 c0 00 00
	00		 mov	 DWORD PTR [eax+192], ecx
  00951	e9 b5 00 00 00	 jmp	 $LN20@ExGrandRes
$LN18@ExGrandRes:

; 208  : 			case 1: lpObj->LevelUpPoint = ( lpObj->GReset + 1 ) * this->AddPointsDK ;  break;

  00956	8b 45 f8	 mov	 eax, DWORD PTR _lpObj$[ebp]
  00959	8b 88 94 22 00
	00		 mov	 ecx, DWORD PTR [eax+8852]
  0095f	83 c1 01	 add	 ecx, 1
  00962	8b 55 fc	 mov	 edx, DWORD PTR _this$[ebp]
  00965	0f af 4a 20	 imul	 ecx, DWORD PTR [edx+32]
  00969	8b 45 f8	 mov	 eax, DWORD PTR _lpObj$[ebp]
  0096c	89 88 c0 00 00
	00		 mov	 DWORD PTR [eax+192], ecx
  00972	e9 94 00 00 00	 jmp	 $LN20@ExGrandRes
$LN17@ExGrandRes:

; 209  : 			case 2: lpObj->LevelUpPoint = ( lpObj->GReset + 1 ) * this->AddPointsELF ; break;

  00977	8b 45 f8	 mov	 eax, DWORD PTR _lpObj$[ebp]
  0097a	8b 88 94 22 00
	00		 mov	 ecx, DWORD PTR [eax+8852]
  00980	83 c1 01	 add	 ecx, 1
  00983	8b 55 fc	 mov	 edx, DWORD PTR _this$[ebp]
  00986	0f af 4a 24	 imul	 ecx, DWORD PTR [edx+36]
  0098a	8b 45 f8	 mov	 eax, DWORD PTR _lpObj$[ebp]
  0098d	89 88 c0 00 00
	00		 mov	 DWORD PTR [eax+192], ecx
  00993	eb 76		 jmp	 SHORT $LN20@ExGrandRes
$LN16@ExGrandRes:

; 210  : 			case 3: lpObj->LevelUpPoint = ( lpObj->GReset + 1 ) * this->AddPointsMG ;  break;

  00995	8b 45 f8	 mov	 eax, DWORD PTR _lpObj$[ebp]
  00998	8b 88 94 22 00
	00		 mov	 ecx, DWORD PTR [eax+8852]
  0099e	83 c1 01	 add	 ecx, 1
  009a1	8b 55 fc	 mov	 edx, DWORD PTR _this$[ebp]
  009a4	0f af 4a 2c	 imul	 ecx, DWORD PTR [edx+44]
  009a8	8b 45 f8	 mov	 eax, DWORD PTR _lpObj$[ebp]
  009ab	89 88 c0 00 00
	00		 mov	 DWORD PTR [eax+192], ecx
  009b1	eb 58		 jmp	 SHORT $LN20@ExGrandRes
$LN15@ExGrandRes:

; 211  : 			case 4: lpObj->LevelUpPoint = ( lpObj->GReset + 1 ) * this->AddPointsDL ;  break;

  009b3	8b 45 f8	 mov	 eax, DWORD PTR _lpObj$[ebp]
  009b6	8b 88 94 22 00
	00		 mov	 ecx, DWORD PTR [eax+8852]
  009bc	83 c1 01	 add	 ecx, 1
  009bf	8b 55 fc	 mov	 edx, DWORD PTR _this$[ebp]
  009c2	0f af 4a 30	 imul	 ecx, DWORD PTR [edx+48]
  009c6	8b 45 f8	 mov	 eax, DWORD PTR _lpObj$[ebp]
  009c9	89 88 c0 00 00
	00		 mov	 DWORD PTR [eax+192], ecx
  009cf	eb 3a		 jmp	 SHORT $LN20@ExGrandRes
$LN14@ExGrandRes:

; 212  : 			case 5: lpObj->LevelUpPoint = ( lpObj->GReset + 1 ) * this->AddPointsSUM ; break;

  009d1	8b 45 f8	 mov	 eax, DWORD PTR _lpObj$[ebp]
  009d4	8b 88 94 22 00
	00		 mov	 ecx, DWORD PTR [eax+8852]
  009da	83 c1 01	 add	 ecx, 1
  009dd	8b 55 fc	 mov	 edx, DWORD PTR _this$[ebp]
  009e0	0f af 4a 28	 imul	 ecx, DWORD PTR [edx+40]
  009e4	8b 45 f8	 mov	 eax, DWORD PTR _lpObj$[ebp]
  009e7	89 88 c0 00 00
	00		 mov	 DWORD PTR [eax+192], ecx
  009ed	eb 1c		 jmp	 SHORT $LN20@ExGrandRes
$LN13@ExGrandRes:

; 213  : 			case 6: lpObj->LevelUpPoint = ( lpObj->GReset + 1 ) * this->AddPointsRF ; break;

  009ef	8b 45 f8	 mov	 eax, DWORD PTR _lpObj$[ebp]
  009f2	8b 88 94 22 00
	00		 mov	 ecx, DWORD PTR [eax+8852]
  009f8	83 c1 01	 add	 ecx, 1
  009fb	8b 55 fc	 mov	 edx, DWORD PTR _this$[ebp]
  009fe	0f af 4a 34	 imul	 ecx, DWORD PTR [edx+52]
  00a02	8b 45 f8	 mov	 eax, DWORD PTR _lpObj$[ebp]
  00a05	89 88 c0 00 00
	00		 mov	 DWORD PTR [eax+192], ecx
$LN20@ExGrandRes:

; 214  : 		}
; 215  : 	}
; 216  : 	if(this->AddForm == 3)

  00a0b	8b 45 fc	 mov	 eax, DWORD PTR _this$[ebp]
  00a0e	83 78 18 03	 cmp	 DWORD PTR [eax+24], 3
  00a12	75 0f		 jne	 SHORT $LN12@ExGrandRes

; 217  : 	{
; 218  : 		lpObj->LevelUpPoint = 0;

  00a14	8b 45 f8	 mov	 eax, DWORD PTR _lpObj$[ebp]
  00a17	c7 80 c0 00 00
	00 00 00 00 00	 mov	 DWORD PTR [eax+192], 0

; 219  : 	}
; 220  : 	else

  00a21	eb 1b		 jmp	 SHORT $LN11@ExGrandRes
$LN12@ExGrandRes:

; 221  : 	{
; 222  : 		lpObj->LevelUpPoint += lpObj->ExFreePoints;

  00a23	8b 45 f8	 mov	 eax, DWORD PTR _lpObj$[ebp]
  00a26	8b 88 c0 00 00
	00		 mov	 ecx, DWORD PTR [eax+192]
  00a2c	8b 55 f8	 mov	 edx, DWORD PTR _lpObj$[ebp]
  00a2f	03 8a 8c 22 00
	00		 add	 ecx, DWORD PTR [edx+8844]
  00a35	8b 45 f8	 mov	 eax, DWORD PTR _lpObj$[ebp]
  00a38	89 88 c0 00 00
	00		 mov	 DWORD PTR [eax+192], ecx
$LN11@ExGrandRes:

; 223  : 	}
; 224  : 	
; 225  : 	lpObj->Reset = 0;

  00a3e	8b 45 f8	 mov	 eax, DWORD PTR _lpObj$[ebp]
  00a41	c7 80 90 22 00
	00 00 00 00 00	 mov	 DWORD PTR [eax+8848], 0

; 226  : 	lpObj->GReset += 1;

  00a4b	8b 45 f8	 mov	 eax, DWORD PTR _lpObj$[ebp]
  00a4e	8b 88 94 22 00
	00		 mov	 ecx, DWORD PTR [eax+8852]
  00a54	83 c1 01	 add	 ecx, 1
  00a57	8b 55 f8	 mov	 edx, DWORD PTR _lpObj$[ebp]
  00a5a	89 8a 94 22 00
	00		 mov	 DWORD PTR [edx+8852], ecx

; 227  : 
; 228  : 	if(this->AddCredits > 0)

  00a60	8b 45 fc	 mov	 eax, DWORD PTR _this$[ebp]
  00a63	83 78 3c 00	 cmp	 DWORD PTR [eax+60], 0
  00a67	7e 51		 jle	 SHORT $LN10@ExGrandRes

; 229  : 	{
; 230  : 		if(g_ExLicense.CheckUser(eExUB::NSGames))

  00a69	6a 51		 push	 81			; 00000051H
  00a6b	b9 00 00 00 00	 mov	 ecx, OFFSET ?g_ExLicense@@3VCExLicense@@A ; g_ExLicense
  00a70	e8 00 00 00 00	 call	 ?CheckUser@CExLicense@@QAE_NH@Z ; CExLicense::CheckUser
  00a75	0f b6 c0	 movzx	 eax, al
  00a78	85 c0		 test	 eax, eax
  00a7a	74 1a		 je	 SHORT $LN9@ExGrandRes

; 231  : 		{
; 232  : 			lpObj->PCPoint += this->AddCredits;	

  00a7c	8b 45 f8	 mov	 eax, DWORD PTR _lpObj$[ebp]
  00a7f	8b 88 88 22 00
	00		 mov	 ecx, DWORD PTR [eax+8840]
  00a85	8b 55 fc	 mov	 edx, DWORD PTR _this$[ebp]
  00a88	03 4a 3c	 add	 ecx, DWORD PTR [edx+60]
  00a8b	8b 45 f8	 mov	 eax, DWORD PTR _lpObj$[ebp]
  00a8e	89 88 88 22 00
	00		 mov	 DWORD PTR [eax+8840], ecx

; 233  : 		}
; 234  : 		else

  00a94	eb 18		 jmp	 SHORT $LN8@ExGrandRes
$LN9@ExGrandRes:

; 235  : 		{
; 236  : 			lpObj->ExCred += this->AddCredits;		

  00a96	8b 45 fc	 mov	 eax, DWORD PTR _this$[ebp]
  00a99	db 40 3c	 fild	 DWORD PTR [eax+60]
  00a9c	8b 4d f8	 mov	 ecx, DWORD PTR _lpObj$[ebp]
  00a9f	d8 81 a8 22 00
	00		 fadd	 DWORD PTR [ecx+8872]
  00aa5	8b 55 f8	 mov	 edx, DWORD PTR _lpObj$[ebp]
  00aa8	d9 9a a8 22 00
	00		 fstp	 DWORD PTR [edx+8872]
$LN8@ExGrandRes:

; 237  : 		}
; 238  : 		ExUserDataSend(aIndex);

  00aae	8b 45 08	 mov	 eax, DWORD PTR _aIndex$[ebp]
  00ab1	50		 push	 eax
  00ab2	e8 00 00 00 00	 call	 ?ExUserDataSend@@YAXH@Z	; ExUserDataSend
  00ab7	83 c4 04	 add	 esp, 4
$LN10@ExGrandRes:

; 239  : 	}
; 240  : 	if(this->AddWcoinC > 0)

  00aba	8b 45 fc	 mov	 eax, DWORD PTR _this$[ebp]
  00abd	83 78 40 00	 cmp	 DWORD PTR [eax+64], 0
  00ac1	7e 18		 jle	 SHORT $LN7@ExGrandRes

; 241  : 	{
; 242  : 		lpObj->GameShop.WCoinC += this->AddWcoinC;

  00ac3	8b 45 fc	 mov	 eax, DWORD PTR _this$[ebp]
  00ac6	db 40 40	 fild	 DWORD PTR [eax+64]
  00ac9	8b 4d f8	 mov	 ecx, DWORD PTR _lpObj$[ebp]
  00acc	dc 81 00 23 00
	00		 fadd	 QWORD PTR [ecx+8960]
  00ad2	8b 55 f8	 mov	 edx, DWORD PTR _lpObj$[ebp]
  00ad5	dd 9a 00 23 00
	00		 fstp	 QWORD PTR [edx+8960]
$LN7@ExGrandRes:

; 243  : 	}
; 244  : 	if(this->AddWcoinP > 0)

  00adb	8b 45 fc	 mov	 eax, DWORD PTR _this$[ebp]
  00ade	83 78 44 00	 cmp	 DWORD PTR [eax+68], 0
  00ae2	7e 18		 jle	 SHORT $LN6@ExGrandRes

; 245  : 	{
; 246  : 		lpObj->GameShop.WCoinP += this->AddWcoinP;

  00ae4	8b 45 fc	 mov	 eax, DWORD PTR _this$[ebp]
  00ae7	db 40 44	 fild	 DWORD PTR [eax+68]
  00aea	8b 4d f8	 mov	 ecx, DWORD PTR _lpObj$[ebp]
  00aed	dc 81 f8 22 00
	00		 fadd	 QWORD PTR [ecx+8952]
  00af3	8b 55 f8	 mov	 edx, DWORD PTR _lpObj$[ebp]
  00af6	dd 9a f8 22 00
	00		 fstp	 QWORD PTR [edx+8952]
$LN6@ExGrandRes:

; 247  : 	}
; 248  : 	if(this->AddGoblinPoint > 0)

  00afc	8b 45 fc	 mov	 eax, DWORD PTR _this$[ebp]
  00aff	83 78 48 00	 cmp	 DWORD PTR [eax+72], 0
  00b03	7e 18		 jle	 SHORT $LN5@ExGrandRes

; 249  : 	{
; 250  : 		lpObj->GameShop.GoblinPoint += this->AddGoblinPoint;

  00b05	8b 45 fc	 mov	 eax, DWORD PTR _this$[ebp]
  00b08	db 40 48	 fild	 DWORD PTR [eax+72]
  00b0b	8b 4d f8	 mov	 ecx, DWORD PTR _lpObj$[ebp]
  00b0e	dc 81 08 23 00
	00		 fadd	 QWORD PTR [ecx+8968]
  00b14	8b 55 f8	 mov	 edx, DWORD PTR _lpObj$[ebp]
  00b17	dd 9a 08 23 00
	00		 fstp	 QWORD PTR [edx+8968]
$LN5@ExGrandRes:

; 251  : 	}
; 252  : 
; 253  : 	if(this->AddWcoinC > 0 || this->AddWcoinP > 0 || this->AddGoblinPoint > 0)

  00b1d	8b 45 fc	 mov	 eax, DWORD PTR _this$[ebp]
  00b20	83 78 40 00	 cmp	 DWORD PTR [eax+64], 0
  00b24	7f 12		 jg	 SHORT $LN3@ExGrandRes
  00b26	8b 45 fc	 mov	 eax, DWORD PTR _this$[ebp]
  00b29	83 78 44 00	 cmp	 DWORD PTR [eax+68], 0
  00b2d	7f 09		 jg	 SHORT $LN3@ExGrandRes
  00b2f	8b 45 fc	 mov	 eax, DWORD PTR _this$[ebp]
  00b32	83 78 48 00	 cmp	 DWORD PTR [eax+72], 0
  00b36	7e 0e		 jle	 SHORT $LN4@ExGrandRes
$LN3@ExGrandRes:

; 254  : 	{
; 255  : 		gGameShop.GDSaveUserInfo(aIndex);

  00b38	8b 45 08	 mov	 eax, DWORD PTR _aIndex$[ebp]
  00b3b	50		 push	 eax
  00b3c	b9 00 00 00 00	 mov	 ecx, OFFSET ?gGameShop@@3VGameShop@@A ; gGameShop
  00b41	e8 00 00 00 00	 call	 ?GDSaveUserInfo@GameShop@@QAEXH@Z ; GameShop::GDSaveUserInfo
$LN4@ExGrandRes:

; 256  : 	}	
; 257  : 
; 258  : 	ExFireCracker(aIndex, lpObj->X, lpObj->Y);

  00b46	8b 45 f8	 mov	 eax, DWORD PTR _lpObj$[ebp]
  00b49	0f b6 88 46 01
	00 00		 movzx	 ecx, BYTE PTR [eax+326]
  00b50	51		 push	 ecx
  00b51	8b 55 f8	 mov	 edx, DWORD PTR _lpObj$[ebp]
  00b54	0f b6 82 44 01
	00 00		 movzx	 eax, BYTE PTR [edx+324]
  00b5b	50		 push	 eax
  00b5c	8b 4d 08	 mov	 ecx, DWORD PTR _aIndex$[ebp]
  00b5f	51		 push	 ecx
  00b60	e8 00 00 00 00	 call	 ?ExFireCracker@@YAXHEE@Z ; ExFireCracker
  00b65	83 c4 0c	 add	 esp, 12			; 0000000cH

; 259  : 	//gObjCloseSet(aIndex, 1);
; 260  : 
; 261  : 	lpObj->Life = DCInfo.DefClass[lpObj->Class].Life + (lpObj->Level + lpObj->MLevel - 1) * DCInfo.DefClass[lpObj->Class].LevelLife  + ((lpObj->Vitality - DCInfo.DefClass[lpObj->Class].Vitality ) * DCInfo.DefClass[lpObj->Class].VitalityToLife);

  00b68	8b 45 f8	 mov	 eax, DWORD PTR _lpObj$[ebp]
  00b6b	0f b7 88 b8 00
	00 00		 movzx	 ecx, WORD PTR [eax+184]
  00b72	69 c9 c8 0b 00
	00		 imul	 ecx, 3016		; 00000bc8H
  00b78	8b 55 f8	 mov	 edx, DWORD PTR _lpObj$[ebp]
  00b7b	0f bf 82 be 00
	00 00		 movsx	 eax, WORD PTR [edx+190]
  00b82	8b 55 f8	 mov	 edx, DWORD PTR _lpObj$[ebp]
  00b85	0f bf 92 d0 00
	00 00		 movsx	 edx, WORD PTR [edx+208]
  00b8c	8d 44 10 ff	 lea	 eax, DWORD PTR [eax+edx-1]
  00b90	89 45 b0	 mov	 DWORD PTR tv814[ebp], eax
  00b93	db 45 b0	 fild	 DWORD PTR tv814[ebp]
  00b96	8b 55 f8	 mov	 edx, DWORD PTR _lpObj$[ebp]
  00b99	0f b7 82 b8 00
	00 00		 movzx	 eax, WORD PTR [edx+184]
  00ba0	69 c0 c8 0b 00
	00		 imul	 eax, 3016		; 00000bc8H
  00ba6	d8 88 10 00 00
	00		 fmul	 DWORD PTR ?DCInfo@@3Vclassdef@@A[eax+16]
  00bac	d8 81 14 00 00
	00		 fadd	 DWORD PTR ?DCInfo@@3Vclassdef@@A[ecx+20]
  00bb2	8b 4d f8	 mov	 ecx, DWORD PTR _lpObj$[ebp]
  00bb5	0f b7 91 f8 00
	00 00		 movzx	 edx, WORD PTR [ecx+248]
  00bbc	8b 45 f8	 mov	 eax, DWORD PTR _lpObj$[ebp]
  00bbf	0f b7 88 b8 00
	00 00		 movzx	 ecx, WORD PTR [eax+184]
  00bc6	69 c9 c8 0b 00
	00		 imul	 ecx, 3016		; 00000bc8H
  00bcc	0f b7 81 0c 00
	00 00		 movzx	 eax, WORD PTR ?DCInfo@@3Vclassdef@@A[ecx+12]
  00bd3	2b d0		 sub	 edx, eax
  00bd5	89 55 ac	 mov	 DWORD PTR tv819[ebp], edx
  00bd8	db 45 ac	 fild	 DWORD PTR tv819[ebp]
  00bdb	8b 4d f8	 mov	 ecx, DWORD PTR _lpObj$[ebp]
  00bde	0f b7 91 b8 00
	00 00		 movzx	 edx, WORD PTR [ecx+184]
  00be5	69 d2 c8 0b 00
	00		 imul	 edx, 3016		; 00000bc8H
  00beb	d8 8a 28 00 00
	00		 fmul	 DWORD PTR ?DCInfo@@3Vclassdef@@A[edx+40]
  00bf1	de c1		 faddp	 ST(1), ST(0)
  00bf3	8b 45 f8	 mov	 eax, DWORD PTR _lpObj$[ebp]
  00bf6	d9 98 fc 00 00
	00		 fstp	 DWORD PTR [eax+252]

; 262  : 	lpObj->Mana = DCInfo.DefClass[lpObj->Class].Mana + (lpObj->Level + lpObj->MLevel - 1) * DCInfo.DefClass[lpObj->Class].LevelMana  + ((lpObj->Energy - DCInfo.DefClass[lpObj->Class].Energy ) * DCInfo.DefClass[lpObj->Class].EnergyToMana);

  00bfc	8b 45 f8	 mov	 eax, DWORD PTR _lpObj$[ebp]
  00bff	0f b7 88 b8 00
	00 00		 movzx	 ecx, WORD PTR [eax+184]
  00c06	69 c9 c8 0b 00
	00		 imul	 ecx, 3016		; 00000bc8H
  00c0c	8b 55 f8	 mov	 edx, DWORD PTR _lpObj$[ebp]
  00c0f	0f bf 82 be 00
	00 00		 movsx	 eax, WORD PTR [edx+190]
  00c16	8b 55 f8	 mov	 edx, DWORD PTR _lpObj$[ebp]
  00c19	0f bf 92 d0 00
	00 00		 movsx	 edx, WORD PTR [edx+208]
  00c20	8d 44 10 ff	 lea	 eax, DWORD PTR [eax+edx-1]
  00c24	89 45 b0	 mov	 DWORD PTR tv828[ebp], eax
  00c27	db 45 b0	 fild	 DWORD PTR tv828[ebp]
  00c2a	8b 55 f8	 mov	 edx, DWORD PTR _lpObj$[ebp]
  00c2d	0f b7 82 b8 00
	00 00		 movzx	 eax, WORD PTR [edx+184]
  00c34	69 c0 c8 0b 00
	00		 imul	 eax, 3016		; 00000bc8H
  00c3a	d8 88 1c 00 00
	00		 fmul	 DWORD PTR ?DCInfo@@3Vclassdef@@A[eax+28]
  00c40	d8 81 20 00 00
	00		 fadd	 DWORD PTR ?DCInfo@@3Vclassdef@@A[ecx+32]
  00c46	8b 4d f8	 mov	 ecx, DWORD PTR _lpObj$[ebp]
  00c49	0f b7 91 fa 00
	00 00		 movzx	 edx, WORD PTR [ecx+250]
  00c50	8b 45 f8	 mov	 eax, DWORD PTR _lpObj$[ebp]
  00c53	0f b7 88 b8 00
	00 00		 movzx	 ecx, WORD PTR [eax+184]
  00c5a	69 c9 c8 0b 00
	00		 imul	 ecx, 3016		; 00000bc8H
  00c60	0f b7 81 0e 00
	00 00		 movzx	 eax, WORD PTR ?DCInfo@@3Vclassdef@@A[ecx+14]
  00c67	2b d0		 sub	 edx, eax
  00c69	89 55 ac	 mov	 DWORD PTR tv833[ebp], edx
  00c6c	db 45 ac	 fild	 DWORD PTR tv833[ebp]
  00c6f	8b 4d f8	 mov	 ecx, DWORD PTR _lpObj$[ebp]
  00c72	0f b7 91 b8 00
	00 00		 movzx	 edx, WORD PTR [ecx+184]
  00c79	69 d2 c8 0b 00
	00		 imul	 edx, 3016		; 00000bc8H
  00c7f	d8 8a 2c 00 00
	00		 fmul	 DWORD PTR ?DCInfo@@3Vclassdef@@A[edx+44]
  00c85	de c1		 faddp	 ST(1), ST(0)
  00c87	8b 45 f8	 mov	 eax, DWORD PTR _lpObj$[ebp]
  00c8a	d9 98 10 01 00
	00		 fstp	 DWORD PTR [eax+272]

; 263  : 
; 264  : 	lpObj->MaxLife = DCInfo.DefClass[lpObj->Class].Life + (lpObj->Level + lpObj->MLevel - 1) * DCInfo.DefClass[lpObj->Class].LevelLife  + ((lpObj->Vitality - DCInfo.DefClass[lpObj->Class].Vitality ) * DCInfo.DefClass[lpObj->Class].VitalityToLife);

  00c90	8b 45 f8	 mov	 eax, DWORD PTR _lpObj$[ebp]
  00c93	0f b7 88 b8 00
	00 00		 movzx	 ecx, WORD PTR [eax+184]
  00c9a	69 c9 c8 0b 00
	00		 imul	 ecx, 3016		; 00000bc8H
  00ca0	8b 55 f8	 mov	 edx, DWORD PTR _lpObj$[ebp]
  00ca3	0f bf 82 be 00
	00 00		 movsx	 eax, WORD PTR [edx+190]
  00caa	8b 55 f8	 mov	 edx, DWORD PTR _lpObj$[ebp]
  00cad	0f bf 92 d0 00
	00 00		 movsx	 edx, WORD PTR [edx+208]
  00cb4	8d 44 10 ff	 lea	 eax, DWORD PTR [eax+edx-1]
  00cb8	89 45 b0	 mov	 DWORD PTR tv842[ebp], eax
  00cbb	db 45 b0	 fild	 DWORD PTR tv842[ebp]
  00cbe	8b 55 f8	 mov	 edx, DWORD PTR _lpObj$[ebp]
  00cc1	0f b7 82 b8 00
	00 00		 movzx	 eax, WORD PTR [edx+184]
  00cc8	69 c0 c8 0b 00
	00		 imul	 eax, 3016		; 00000bc8H
  00cce	d8 88 10 00 00
	00		 fmul	 DWORD PTR ?DCInfo@@3Vclassdef@@A[eax+16]
  00cd4	d8 81 14 00 00
	00		 fadd	 DWORD PTR ?DCInfo@@3Vclassdef@@A[ecx+20]
  00cda	8b 4d f8	 mov	 ecx, DWORD PTR _lpObj$[ebp]
  00cdd	0f b7 91 f8 00
	00 00		 movzx	 edx, WORD PTR [ecx+248]
  00ce4	8b 45 f8	 mov	 eax, DWORD PTR _lpObj$[ebp]
  00ce7	0f b7 88 b8 00
	00 00		 movzx	 ecx, WORD PTR [eax+184]
  00cee	69 c9 c8 0b 00
	00		 imul	 ecx, 3016		; 00000bc8H
  00cf4	0f b7 81 0c 00
	00 00		 movzx	 eax, WORD PTR ?DCInfo@@3Vclassdef@@A[ecx+12]
  00cfb	2b d0		 sub	 edx, eax
  00cfd	89 55 ac	 mov	 DWORD PTR tv847[ebp], edx
  00d00	db 45 ac	 fild	 DWORD PTR tv847[ebp]
  00d03	8b 4d f8	 mov	 ecx, DWORD PTR _lpObj$[ebp]
  00d06	0f b7 91 b8 00
	00 00		 movzx	 edx, WORD PTR [ecx+184]
  00d0d	69 d2 c8 0b 00
	00		 imul	 edx, 3016		; 00000bc8H
  00d13	d8 8a 28 00 00
	00		 fmul	 DWORD PTR ?DCInfo@@3Vclassdef@@A[edx+40]
  00d19	de c1		 faddp	 ST(1), ST(0)
  00d1b	8b 45 f8	 mov	 eax, DWORD PTR _lpObj$[ebp]
  00d1e	d9 98 00 01 00
	00		 fstp	 DWORD PTR [eax+256]

; 265  : 	lpObj->MaxMana = DCInfo.DefClass[lpObj->Class].Mana + (lpObj->Level + lpObj->MLevel - 1) * DCInfo.DefClass[lpObj->Class].LevelMana  + ((lpObj->Energy - DCInfo.DefClass[lpObj->Class].Energy ) * DCInfo.DefClass[lpObj->Class].EnergyToMana);

  00d24	8b 45 f8	 mov	 eax, DWORD PTR _lpObj$[ebp]
  00d27	0f b7 88 b8 00
	00 00		 movzx	 ecx, WORD PTR [eax+184]
  00d2e	69 c9 c8 0b 00
	00		 imul	 ecx, 3016		; 00000bc8H
  00d34	8b 55 f8	 mov	 edx, DWORD PTR _lpObj$[ebp]
  00d37	0f bf 82 be 00
	00 00		 movsx	 eax, WORD PTR [edx+190]
  00d3e	8b 55 f8	 mov	 edx, DWORD PTR _lpObj$[ebp]
  00d41	0f bf 92 d0 00
	00 00		 movsx	 edx, WORD PTR [edx+208]
  00d48	8d 44 10 ff	 lea	 eax, DWORD PTR [eax+edx-1]
  00d4c	89 45 b0	 mov	 DWORD PTR tv856[ebp], eax
  00d4f	db 45 b0	 fild	 DWORD PTR tv856[ebp]
  00d52	8b 55 f8	 mov	 edx, DWORD PTR _lpObj$[ebp]
  00d55	0f b7 82 b8 00
	00 00		 movzx	 eax, WORD PTR [edx+184]
  00d5c	69 c0 c8 0b 00
	00		 imul	 eax, 3016		; 00000bc8H
  00d62	d8 88 1c 00 00
	00		 fmul	 DWORD PTR ?DCInfo@@3Vclassdef@@A[eax+28]
  00d68	d8 81 20 00 00
	00		 fadd	 DWORD PTR ?DCInfo@@3Vclassdef@@A[ecx+32]
  00d6e	8b 4d f8	 mov	 ecx, DWORD PTR _lpObj$[ebp]
  00d71	0f b7 91 fa 00
	00 00		 movzx	 edx, WORD PTR [ecx+250]
  00d78	8b 45 f8	 mov	 eax, DWORD PTR _lpObj$[ebp]
  00d7b	0f b7 88 b8 00
	00 00		 movzx	 ecx, WORD PTR [eax+184]
  00d82	69 c9 c8 0b 00
	00		 imul	 ecx, 3016		; 00000bc8H
  00d88	0f b7 81 0e 00
	00 00		 movzx	 eax, WORD PTR ?DCInfo@@3Vclassdef@@A[ecx+14]
  00d8f	2b d0		 sub	 edx, eax
  00d91	89 55 ac	 mov	 DWORD PTR tv861[ebp], edx
  00d94	db 45 ac	 fild	 DWORD PTR tv861[ebp]
  00d97	8b 4d f8	 mov	 ecx, DWORD PTR _lpObj$[ebp]
  00d9a	0f b7 91 b8 00
	00 00		 movzx	 edx, WORD PTR [ecx+184]
  00da1	69 d2 c8 0b 00
	00		 imul	 edx, 3016		; 00000bc8H
  00da7	d8 8a 2c 00 00
	00		 fmul	 DWORD PTR ?DCInfo@@3Vclassdef@@A[edx+44]
  00dad	de c1		 faddp	 ST(1), ST(0)
  00daf	8b 45 f8	 mov	 eax, DWORD PTR _lpObj$[ebp]
  00db2	d9 98 14 01 00
	00		 fstp	 DWORD PTR [eax+276]

; 266  : 
; 267  : 	lpObj->VitalityToLife = DCInfo.DefClass[lpObj->Class].VitalityToLife;

  00db8	8b 45 f8	 mov	 eax, DWORD PTR _lpObj$[ebp]
  00dbb	0f b7 88 b8 00
	00 00		 movzx	 ecx, WORD PTR [eax+184]
  00dc2	69 c9 c8 0b 00
	00		 imul	 ecx, 3016		; 00000bc8H
  00dc8	8b 55 f8	 mov	 edx, DWORD PTR _lpObj$[ebp]
  00dcb	d9 81 28 00 00
	00		 fld	 DWORD PTR ?DCInfo@@3Vclassdef@@A[ecx+40]
  00dd1	d9 9a 34 01 00
	00		 fstp	 DWORD PTR [edx+308]

; 268  : 	lpObj->EnergyToMana = DCInfo.DefClass[lpObj->Class].EnergyToMana;

  00dd7	8b 45 f8	 mov	 eax, DWORD PTR _lpObj$[ebp]
  00dda	0f b7 88 b8 00
	00 00		 movzx	 ecx, WORD PTR [eax+184]
  00de1	69 c9 c8 0b 00
	00		 imul	 ecx, 3016		; 00000bc8H
  00de7	8b 55 f8	 mov	 edx, DWORD PTR _lpObj$[ebp]
  00dea	d9 81 2c 00 00
	00		 fld	 DWORD PTR ?DCInfo@@3Vclassdef@@A[ecx+44]
  00df0	d9 9a 38 01 00
	00		 fstp	 DWORD PTR [edx+312]

; 269  : 
; 270  : 	::gObjSetBP(aIndex);

  00df6	8b 45 08	 mov	 eax, DWORD PTR _aIndex$[ebp]
  00df9	50		 push	 eax
  00dfa	e8 00 00 00 00	 call	 ?gObjSetBP@@YAXH@Z	; gObjSetBP
  00dff	83 c4 04	 add	 esp, 4

; 271  : 	lpObj->BP = lpObj->MaxBP / 2;

  00e02	8b 45 f8	 mov	 eax, DWORD PTR _lpObj$[ebp]
  00e05	8b 80 2c 01 00
	00		 mov	 eax, DWORD PTR [eax+300]
  00e0b	99		 cdq
  00e0c	2b c2		 sub	 eax, edx
  00e0e	d1 f8		 sar	 eax, 1
  00e10	8b 4d f8	 mov	 ecx, DWORD PTR _lpObj$[ebp]
  00e13	89 81 28 01 00
	00		 mov	 DWORD PTR [ecx+296], eax

; 272  : 	::gObjCalcMaxLifePower(aIndex);

  00e19	8b 45 08	 mov	 eax, DWORD PTR _aIndex$[ebp]
  00e1c	50		 push	 eax
  00e1d	e8 00 00 00 00	 call	 ?gObjCalcMaxLifePower@@YAXH@Z ; gObjCalcMaxLifePower
  00e22	83 c4 04	 add	 esp, 4

; 273  : 
; 274  : 	GCReFillSend(aIndex, (int)lpObj->MaxLife + lpObj->AddLife, 0xFE, 0, lpObj->iMaxShield + lpObj->iAddShield);

  00e25	8b 45 f8	 mov	 eax, DWORD PTR _lpObj$[ebp]
  00e28	8b 88 58 01 00
	00		 mov	 ecx, DWORD PTR [eax+344]
  00e2e	8b 55 f8	 mov	 edx, DWORD PTR _lpObj$[ebp]
  00e31	03 8a 5c 01 00
	00		 add	 ecx, DWORD PTR [edx+348]
  00e37	51		 push	 ecx
  00e38	6a 00		 push	 0
  00e3a	68 fe 00 00 00	 push	 254			; 000000feH
  00e3f	8b 45 f8	 mov	 eax, DWORD PTR _lpObj$[ebp]
  00e42	d9 80 00 01 00
	00		 fld	 DWORD PTR [eax+256]
  00e48	e8 00 00 00 00	 call	 __ftol2_sse
  00e4d	8b 4d f8	 mov	 ecx, DWORD PTR _lpObj$[ebp]
  00e50	03 81 4c 01 00
	00		 add	 eax, DWORD PTR [ecx+332]
  00e56	50		 push	 eax
  00e57	8b 55 08	 mov	 edx, DWORD PTR _aIndex$[ebp]
  00e5a	52		 push	 edx
  00e5b	e8 00 00 00 00	 call	 ?GCReFillSend@@YAXHHEEH@Z ; GCReFillSend
  00e60	83 c4 14	 add	 esp, 20			; 00000014H

; 275  : 	//gObjSetBP(aIndex);
; 276  : 	GCManaSend(aIndex,(int)lpObj->MaxMana + lpObj->AddMana, 0xFE, 0, lpObj->MaxBP + lpObj->AddBP);

  00e63	8b 45 f8	 mov	 eax, DWORD PTR _lpObj$[ebp]
  00e66	8b 88 2c 01 00
	00		 mov	 ecx, DWORD PTR [eax+300]
  00e6c	8b 55 f8	 mov	 edx, DWORD PTR _lpObj$[ebp]
  00e6f	03 8a 30 01 00
	00		 add	 ecx, DWORD PTR [edx+304]
  00e75	51		 push	 ecx
  00e76	6a 00		 push	 0
  00e78	68 fe 00 00 00	 push	 254			; 000000feH
  00e7d	8b 45 f8	 mov	 eax, DWORD PTR _lpObj$[ebp]
  00e80	d9 80 14 01 00
	00		 fld	 DWORD PTR [eax+276]
  00e86	e8 00 00 00 00	 call	 __ftol2_sse
  00e8b	8b 4d f8	 mov	 ecx, DWORD PTR _lpObj$[ebp]
  00e8e	03 81 50 01 00
	00		 add	 eax, DWORD PTR [ecx+336]
  00e94	50		 push	 eax
  00e95	8b 55 08	 mov	 edx, DWORD PTR _aIndex$[ebp]
  00e98	52		 push	 edx
  00e99	e8 00 00 00 00	 call	 ?GCManaSend@@YAXHHEEH@Z	; GCManaSend
  00e9e	83 c4 14	 add	 esp, 20			; 00000014H

; 277  : 	gObjCalCharacter(aIndex);

  00ea1	8b 45 08	 mov	 eax, DWORD PTR _aIndex$[ebp]
  00ea4	50		 push	 eax
  00ea5	e8 00 00 00 00	 call	 ?gObjCalCharacter@@YAXH@Z ; gObjCalCharacter
  00eaa	83 c4 04	 add	 esp, 4

; 278  : 
; 279  : 	ResetSystemGC_CharUpdate(lpObj);

  00ead	8b 45 f8	 mov	 eax, DWORD PTR _lpObj$[ebp]
  00eb0	50		 push	 eax
  00eb1	e8 00 00 00 00	 call	 ?ResetSystemGC_CharUpdate@@YAXPAUOBJECTSTRUCT@@@Z ; ResetSystemGC_CharUpdate
  00eb6	83 c4 04	 add	 esp, 4

; 280  : 
; 281  : 	GCMoneySend(aIndex, lpObj->Money);

  00eb9	8b 45 f8	 mov	 eax, DWORD PTR _lpObj$[ebp]
  00ebc	8b 88 f0 00 00
	00		 mov	 ecx, DWORD PTR [eax+240]
  00ec2	51		 push	 ecx
  00ec3	8b 55 08	 mov	 edx, DWORD PTR _aIndex$[ebp]
  00ec6	52		 push	 edx
  00ec7	e8 00 00 00 00	 call	 ?GCMoneySend@@YAXHK@Z	; GCMoneySend
  00ecc	83 c4 08	 add	 esp, 8

; 282  : 
; 283  : #if(CUSTOM_NOOBBUFF)
; 284  : 	if(ExConfig.CommonServer.bNoobBuffEnable)

  00ecf	0f b6 05 18 01
	00 00		 movzx	 eax, BYTE PTR ?ExConfig@@3VcExConfigs@@A+280
  00ed6	85 c0		 test	 eax, eax
  00ed8	74 2a		 je	 SHORT $LN1@ExGrandRes

; 285  : 	{
; 286  : 		if(gObjSearchActiveEffect(lpObj,AT_NOOB_BUFF) == TRUE)

  00eda	68 b6 00 00 00	 push	 182			; 000000b6H
  00edf	8b 45 f8	 mov	 eax, DWORD PTR _lpObj$[ebp]
  00ee2	50		 push	 eax
  00ee3	e8 00 00 00 00	 call	 ?gObjSearchActiveEffect@@YAEPAUOBJECTSTRUCT@@H@Z ; gObjSearchActiveEffect
  00ee8	83 c4 08	 add	 esp, 8
  00eeb	0f b6 c8	 movzx	 ecx, al
  00eee	83 f9 01	 cmp	 ecx, 1
  00ef1	75 11		 jne	 SHORT $LN1@ExGrandRes

; 287  : 		{
; 288  : 			gObjRemoveBuffEffect(lpObj,AT_NOOB_BUFF);

  00ef3	68 b6 00 00 00	 push	 182			; 000000b6H
  00ef8	8b 45 f8	 mov	 eax, DWORD PTR _lpObj$[ebp]
  00efb	50		 push	 eax
  00efc	e8 00 00 00 00	 call	 ?gObjRemoveBuffEffect@@YAEPAUOBJECTSTRUCT@@H@Z ; gObjRemoveBuffEffect
  00f01	83 c4 08	 add	 esp, 8
$LN1@ExGrandRes:

; 289  : 		}
; 290  : 	}
; 291  : #endif
; 292  : 
; 293  : #if(SYSTEM_ACHIEVEMENTS)
; 294  : 	g_Achievements.GrandResetUp(aIndex);

  00f04	8b 45 08	 mov	 eax, DWORD PTR _aIndex$[ebp]
  00f07	50		 push	 eax
  00f08	b9 00 00 00 00	 mov	 ecx, OFFSET ?g_Achievements@@3VCAchievements@@A ; g_Achievements
  00f0d	e8 00 00 00 00	 call	 ?GrandResetUp@CAchievements@@QAEXH@Z ; CAchievements::GrandResetUp

; 295  : #endif
; 296  : 
; 297  : 	LogAddTD("[GrandResetSystem] Accaunt: %s , Name: %s , GrandReset: %d",lpObj->AccountID, lpObj->Name,lpObj->GReset);

  00f12	8b 45 f8	 mov	 eax, DWORD PTR _lpObj$[ebp]
  00f15	8b 88 94 22 00
	00		 mov	 ecx, DWORD PTR [eax+8852]
  00f1b	51		 push	 ecx
  00f1c	8b 55 f8	 mov	 edx, DWORD PTR _lpObj$[ebp]
  00f1f	83 c2 77	 add	 edx, 119		; 00000077H
  00f22	52		 push	 edx
  00f23	8b 45 f8	 mov	 eax, DWORD PTR _lpObj$[ebp]
  00f26	83 c0 6c	 add	 eax, 108		; 0000006cH
  00f29	50		 push	 eax
  00f2a	68 00 00 00 00	 push	 OFFSET ??_C@_0DL@JEEEMDGP@?$FLGrandResetSystem?$FN?5Accaunt?3?5?$CFs?5?0@
  00f2f	ff 15 00 00 00
	00		 call	 DWORD PTR ?LogAddTD@@3P6AXPADZZA ; LogAddTD
  00f35	83 c4 10	 add	 esp, 16			; 00000010H
$LN44@ExGrandRes:

; 298  : }

  00f38	5f		 pop	 edi
  00f39	5e		 pop	 esi
  00f3a	5b		 pop	 ebx
  00f3b	8b e5		 mov	 esp, ebp
  00f3d	5d		 pop	 ebp
  00f3e	c2 04 00	 ret	 4
  00f41	8d 49 00	 npad	 3
$LN46@ExGrandRes:
  00f44	00 00 00 00	 DD	 $LN19@ExGrandRes
  00f48	00 00 00 00	 DD	 $LN18@ExGrandRes
  00f4c	00 00 00 00	 DD	 $LN17@ExGrandRes
  00f50	00 00 00 00	 DD	 $LN16@ExGrandRes
  00f54	00 00 00 00	 DD	 $LN15@ExGrandRes
  00f58	00 00 00 00	 DD	 $LN14@ExGrandRes
  00f5c	00 00 00 00	 DD	 $LN13@ExGrandRes
?ExGrandResetSystemFunciton@cGrandReset@@QAEXH@Z ENDP	; cGrandReset::ExGrandResetSystemFunciton
_TEXT	ENDS
PUBLIC	??A?$vector@UGrandResetEXP@@V?$allocator@UGrandResetEXP@@@std@@@std@@QAEAAUGrandResetEXP@@I@Z ; std::vector<GrandResetEXP,std::allocator<GrandResetEXP> >::operator[]
PUBLIC	?size@?$vector@UGrandResetEXP@@V?$allocator@UGrandResetEXP@@@std@@@std@@QBEIXZ ; std::vector<GrandResetEXP,std::allocator<GrandResetEXP> >::size
PUBLIC	?DinamicExp@cGrandReset@@QAEHHH@Z		; cGrandReset::DinamicExp
; Function compile flags: /Odtp /ZI
_TEXT	SEGMENT
tv71 = -92						; size = 4
_list$231788 = -24					; size = 8
_i$231784 = -16						; size = 4
_lpUser$ = -12						; size = 4
_Result$ = -8						; size = 4
_this$ = -4						; size = 4
_aIndex$ = 8						; size = 4
_Experience$ = 12					; size = 4
?DinamicExp@cGrandReset@@QAEHHH@Z PROC			; cGrandReset::DinamicExp
; _this$ = ecx

; 302  : {

  00f60	55		 push	 ebp
  00f61	8b ec		 mov	 ebp, esp
  00f63	83 ec 5c	 sub	 esp, 92			; 0000005cH
  00f66	53		 push	 ebx
  00f67	56		 push	 esi
  00f68	57		 push	 edi
  00f69	89 4d fc	 mov	 DWORD PTR _this$[ebp], ecx

; 303  : 	int Result = Experience;

  00f6c	8b 45 0c	 mov	 eax, DWORD PTR _Experience$[ebp]
  00f6f	89 45 f8	 mov	 DWORD PTR _Result$[ebp], eax

; 304  : 
; 305  : 	if(!this->EnableGrandResetSystem)

  00f72	8b 45 fc	 mov	 eax, DWORD PTR _this$[ebp]
  00f75	83 38 00	 cmp	 DWORD PTR [eax], 0
  00f78	75 08		 jne	 SHORT $LN11@DinamicExp

; 306  : 	{
; 307  : 		return Result;

  00f7a	8b 45 f8	 mov	 eax, DWORD PTR _Result$[ebp]
  00f7d	e9 e0 00 00 00	 jmp	 $LN12@DinamicExp
$LN11@DinamicExp:

; 308  : 	}
; 309  : 
; 310  : 	if(!this->EnableGrandDinamic)

  00f82	8b 45 fc	 mov	 eax, DWORD PTR _this$[ebp]
  00f85	0f b6 88 b4 00
	00 00		 movzx	 ecx, BYTE PTR [eax+180]
  00f8c	85 c9		 test	 ecx, ecx
  00f8e	75 08		 jne	 SHORT $LN10@DinamicExp

; 311  : 	{
; 312  : 		return Result;

  00f90	8b 45 f8	 mov	 eax, DWORD PTR _Result$[ebp]
  00f93	e9 ca 00 00 00	 jmp	 $LN12@DinamicExp
$LN10@DinamicExp:

; 313  : 	}
; 314  : 
; 315  : 	if(OBJMAX_RANGE(aIndex) == 0)

  00f98	83 7d 08 00	 cmp	 DWORD PTR _aIndex$[ebp], 0
  00f9c	7d 09		 jge	 SHORT $LN14@DinamicExp
  00f9e	c7 45 a4 00 00
	00 00		 mov	 DWORD PTR tv71[ebp], 0
  00fa5	eb 0f		 jmp	 SHORT $LN15@DinamicExp
$LN14@DinamicExp:
  00fa7	33 c0		 xor	 eax, eax
  00fa9	81 7d 08 97 3a
	00 00		 cmp	 DWORD PTR _aIndex$[ebp], 14999 ; 00003a97H
  00fb0	0f 9e c0	 setle	 al
  00fb3	89 45 a4	 mov	 DWORD PTR tv71[ebp], eax
$LN15@DinamicExp:
  00fb6	83 7d a4 00	 cmp	 DWORD PTR tv71[ebp], 0
  00fba	75 08		 jne	 SHORT $LN9@DinamicExp

; 316  : 	{
; 317  : 		return Result;

  00fbc	8b 45 f8	 mov	 eax, DWORD PTR _Result$[ebp]
  00fbf	e9 9e 00 00 00	 jmp	 $LN12@DinamicExp
$LN9@DinamicExp:

; 318  : 	}
; 319  : 
; 320  : 	LPOBJ lpUser = &gObj[aIndex];

  00fc4	8b 45 08	 mov	 eax, DWORD PTR _aIndex$[ebp]
  00fc7	69 c0 38 2b 00
	00		 imul	 eax, 11064		; 00002b38H
  00fcd	03 05 00 00 00
	00		 add	 eax, DWORD PTR ?gObj@@3PAUOBJECTSTRUCT@@A ; gObj
  00fd3	89 45 f4	 mov	 DWORD PTR _lpUser$[ebp], eax

; 321  : 
; 322  : 	if(lpUser->Connected < PLAYER_PLAYING)

  00fd6	8b 45 f4	 mov	 eax, DWORD PTR _lpUser$[ebp]
  00fd9	83 78 04 03	 cmp	 DWORD PTR [eax+4], 3
  00fdd	7d 05		 jge	 SHORT $LN8@DinamicExp

; 323  : 	{
; 324  : 		return Result;

  00fdf	8b 45 f8	 mov	 eax, DWORD PTR _Result$[ebp]
  00fe2	eb 7e		 jmp	 SHORT $LN12@DinamicExp
$LN8@DinamicExp:

; 325  : 	}
; 326  : 
; 327  : 	for(int i = 0; i < this->DataExp.size(); i++)

  00fe4	c7 45 f0 00 00
	00 00		 mov	 DWORD PTR _i$231784[ebp], 0
  00feb	eb 09		 jmp	 SHORT $LN7@DinamicExp
$LN6@DinamicExp:
  00fed	8b 45 f0	 mov	 eax, DWORD PTR _i$231784[ebp]
  00ff0	83 c0 01	 add	 eax, 1
  00ff3	89 45 f0	 mov	 DWORD PTR _i$231784[ebp], eax
$LN7@DinamicExp:
  00ff6	8b 4d fc	 mov	 ecx, DWORD PTR _this$[ebp]
  00ff9	81 c1 b8 00 00
	00		 add	 ecx, 184		; 000000b8H
  00fff	e8 00 00 00 00	 call	 ?size@?$vector@UGrandResetEXP@@V?$allocator@UGrandResetEXP@@@std@@@std@@QBEIXZ ; std::vector<GrandResetEXP,std::allocator<GrandResetEXP> >::size
  01004	39 45 f0	 cmp	 DWORD PTR _i$231784[ebp], eax
  01007	73 56		 jae	 SHORT $LN5@DinamicExp

; 328  : 	{
; 329  : 		GrandResetEXP list = this->DataExp[i];

  01009	8b 45 f0	 mov	 eax, DWORD PTR _i$231784[ebp]
  0100c	50		 push	 eax
  0100d	8b 4d fc	 mov	 ecx, DWORD PTR _this$[ebp]
  01010	81 c1 b8 00 00
	00		 add	 ecx, 184		; 000000b8H
  01016	e8 00 00 00 00	 call	 ??A?$vector@UGrandResetEXP@@V?$allocator@UGrandResetEXP@@@std@@@std@@QAEAAUGrandResetEXP@@I@Z ; std::vector<GrandResetEXP,std::allocator<GrandResetEXP> >::operator[]
  0101b	8b 08		 mov	 ecx, DWORD PTR [eax]
  0101d	8b 50 04	 mov	 edx, DWORD PTR [eax+4]
  01020	89 4d e8	 mov	 DWORD PTR _list$231788[ebp], ecx
  01023	89 55 ec	 mov	 DWORD PTR _list$231788[ebp+4], edx

; 330  : 
; 331  : 		if(lpUser->GReset == list.GrandReset)

  01026	0f bf 45 e8	 movsx	 eax, WORD PTR _list$231788[ebp]
  0102a	8b 4d f4	 mov	 ecx, DWORD PTR _lpUser$[ebp]
  0102d	39 81 94 22 00
	00		 cmp	 DWORD PTR [ecx+8852], eax
  01033	75 28		 jne	 SHORT $LN4@DinamicExp

; 332  : 		{
; 333  : 			if(list.TypeExp == false)

  01035	0f b6 45 ea	 movzx	 eax, BYTE PTR _list$231788[ebp+2]
  01039	85 c0		 test	 eax, eax
  0103b	75 18		 jne	 SHORT $LN3@DinamicExp

; 334  : 			{
; 335  : 				Result = Experience - list.MinusExp;

  0103d	8b 45 0c	 mov	 eax, DWORD PTR _Experience$[ebp]
  01040	2b 45 ec	 sub	 eax, DWORD PTR _list$231788[ebp+4]
  01043	89 45 f8	 mov	 DWORD PTR _Result$[ebp], eax

; 336  : 
; 337  : 				if(Result < 1)

  01046	83 7d f8 01	 cmp	 DWORD PTR _Result$[ebp], 1
  0104a	7d 07		 jge	 SHORT $LN2@DinamicExp

; 338  : 				{
; 339  : 					Result = 1;

  0104c	c7 45 f8 01 00
	00 00		 mov	 DWORD PTR _Result$[ebp], 1
$LN2@DinamicExp:

; 340  : 				}
; 341  : 			}
; 342  : 			else

  01053	eb 06		 jmp	 SHORT $LN1@DinamicExp
$LN3@DinamicExp:

; 343  : 			{
; 344  : 				Result = list.MinusExp;

  01055	8b 45 ec	 mov	 eax, DWORD PTR _list$231788[ebp+4]
  01058	89 45 f8	 mov	 DWORD PTR _Result$[ebp], eax
$LN1@DinamicExp:

; 345  : 			}
; 346  : 
; 347  : 			break;

  0105b	eb 02		 jmp	 SHORT $LN5@DinamicExp
$LN4@DinamicExp:

; 348  : 		}
; 349  : 	}

  0105d	eb 8e		 jmp	 SHORT $LN6@DinamicExp
$LN5@DinamicExp:

; 350  : 
; 351  : 	return Result;

  0105f	8b 45 f8	 mov	 eax, DWORD PTR _Result$[ebp]
$LN12@DinamicExp:

; 352  : }

  01062	5f		 pop	 edi
  01063	5e		 pop	 esi
  01064	5b		 pop	 ebx
  01065	8b e5		 mov	 esp, ebp
  01067	5d		 pop	 ebp
  01068	c2 08 00	 ret	 8
?DinamicExp@cGrandReset@@QAEHHH@Z ENDP			; cGrandReset::DinamicExp
_TEXT	ENDS
PUBLIC	?GCDialogInfo@cGrandReset@@QAEXH@Z		; cGrandReset::GCDialogInfo
PUBLIC	?CGGrandMenu@cGrandReset@@QAEXH@Z		; cGrandReset::CGGrandMenu
; Function compile flags: /Odtp /ZI
_TEXT	SEGMENT
_this$ = -4						; size = 4
_aIndex$ = 8						; size = 4
?CGGrandMenu@cGrandReset@@QAEXH@Z PROC			; cGrandReset::CGGrandMenu
; _this$ = ecx

; 356  : {

  01070	55		 push	 ebp
  01071	8b ec		 mov	 ebp, esp
  01073	83 ec 44	 sub	 esp, 68			; 00000044H
  01076	53		 push	 ebx
  01077	56		 push	 esi
  01078	57		 push	 edi
  01079	89 4d fc	 mov	 DWORD PTR _this$[ebp], ecx

; 357  : 	if( !g_ExLicense.CheckUser(eExUB::Local) && 
; 358  : 		!g_ExLicense.CheckUser(eExUB::Gredy) &&
; 359  : 		!g_ExLicense.CheckUser(eExUB::Gredy2) && 
; 360  : 		!g_ExLicense.CheckUser(eExUB::GredyLocal)&&
; 361  : 		!g_ExLicense.CheckUser(eExUB::GloryMU) &&
; 362  : 		!g_ExLicense.CheckUser(eExUB::MedoniAndrei) &&
; 363  : 		!g_ExLicense.CheckUser(eExUB::mu4you) && 
; 364  : 		!g_ExLicense.CheckUser(eExUB::Escalate) &&
; 365  : 		!g_ExLicense.CheckUser(eExUB::eternalmu) &&
; 366  : 		!g_ExLicense.CheckUser(eExUB::NSGames))

  0107c	6a 00		 push	 0
  0107e	b9 00 00 00 00	 mov	 ecx, OFFSET ?g_ExLicense@@3VCExLicense@@A ; g_ExLicense
  01083	e8 00 00 00 00	 call	 ?CheckUser@CExLicense@@QAE_NH@Z ; CExLicense::CheckUser
  01088	0f b6 c0	 movzx	 eax, al
  0108b	85 c0		 test	 eax, eax
  0108d	0f 85 b5 00 00
	00		 jne	 $LN1@CGGrandMen
  01093	6a 20		 push	 32			; 00000020H
  01095	b9 00 00 00 00	 mov	 ecx, OFFSET ?g_ExLicense@@3VCExLicense@@A ; g_ExLicense
  0109a	e8 00 00 00 00	 call	 ?CheckUser@CExLicense@@QAE_NH@Z ; CExLicense::CheckUser
  0109f	0f b6 c0	 movzx	 eax, al
  010a2	85 c0		 test	 eax, eax
  010a4	0f 85 9e 00 00
	00		 jne	 $LN1@CGGrandMen
  010aa	6a 22		 push	 34			; 00000022H
  010ac	b9 00 00 00 00	 mov	 ecx, OFFSET ?g_ExLicense@@3VCExLicense@@A ; g_ExLicense
  010b1	e8 00 00 00 00	 call	 ?CheckUser@CExLicense@@QAE_NH@Z ; CExLicense::CheckUser
  010b6	0f b6 c0	 movzx	 eax, al
  010b9	85 c0		 test	 eax, eax
  010bb	0f 85 87 00 00
	00		 jne	 $LN1@CGGrandMen
  010c1	6a 21		 push	 33			; 00000021H
  010c3	b9 00 00 00 00	 mov	 ecx, OFFSET ?g_ExLicense@@3VCExLicense@@A ; g_ExLicense
  010c8	e8 00 00 00 00	 call	 ?CheckUser@CExLicense@@QAE_NH@Z ; CExLicense::CheckUser
  010cd	0f b6 c0	 movzx	 eax, al
  010d0	85 c0		 test	 eax, eax
  010d2	75 74		 jne	 SHORT $LN1@CGGrandMen
  010d4	6a 46		 push	 70			; 00000046H
  010d6	b9 00 00 00 00	 mov	 ecx, OFFSET ?g_ExLicense@@3VCExLicense@@A ; g_ExLicense
  010db	e8 00 00 00 00	 call	 ?CheckUser@CExLicense@@QAE_NH@Z ; CExLicense::CheckUser
  010e0	0f b6 c0	 movzx	 eax, al
  010e3	85 c0		 test	 eax, eax
  010e5	75 61		 jne	 SHORT $LN1@CGGrandMen
  010e7	6a 32		 push	 50			; 00000032H
  010e9	b9 00 00 00 00	 mov	 ecx, OFFSET ?g_ExLicense@@3VCExLicense@@A ; g_ExLicense
  010ee	e8 00 00 00 00	 call	 ?CheckUser@CExLicense@@QAE_NH@Z ; CExLicense::CheckUser
  010f3	0f b6 c0	 movzx	 eax, al
  010f6	85 c0		 test	 eax, eax
  010f8	75 4e		 jne	 SHORT $LN1@CGGrandMen
  010fa	6a 4e		 push	 78			; 0000004eH
  010fc	b9 00 00 00 00	 mov	 ecx, OFFSET ?g_ExLicense@@3VCExLicense@@A ; g_ExLicense
  01101	e8 00 00 00 00	 call	 ?CheckUser@CExLicense@@QAE_NH@Z ; CExLicense::CheckUser
  01106	0f b6 c0	 movzx	 eax, al
  01109	85 c0		 test	 eax, eax
  0110b	75 3b		 jne	 SHORT $LN1@CGGrandMen
  0110d	6a 40		 push	 64			; 00000040H
  0110f	b9 00 00 00 00	 mov	 ecx, OFFSET ?g_ExLicense@@3VCExLicense@@A ; g_ExLicense
  01114	e8 00 00 00 00	 call	 ?CheckUser@CExLicense@@QAE_NH@Z ; CExLicense::CheckUser
  01119	0f b6 c0	 movzx	 eax, al
  0111c	85 c0		 test	 eax, eax
  0111e	75 28		 jne	 SHORT $LN1@CGGrandMen
  01120	6a 4f		 push	 79			; 0000004fH
  01122	b9 00 00 00 00	 mov	 ecx, OFFSET ?g_ExLicense@@3VCExLicense@@A ; g_ExLicense
  01127	e8 00 00 00 00	 call	 ?CheckUser@CExLicense@@QAE_NH@Z ; CExLicense::CheckUser
  0112c	0f b6 c0	 movzx	 eax, al
  0112f	85 c0		 test	 eax, eax
  01131	75 15		 jne	 SHORT $LN1@CGGrandMen
  01133	6a 51		 push	 81			; 00000051H
  01135	b9 00 00 00 00	 mov	 ecx, OFFSET ?g_ExLicense@@3VCExLicense@@A ; g_ExLicense
  0113a	e8 00 00 00 00	 call	 ?CheckUser@CExLicense@@QAE_NH@Z ; CExLicense::CheckUser
  0113f	0f b6 c0	 movzx	 eax, al
  01142	85 c0		 test	 eax, eax
  01144	75 02		 jne	 SHORT $LN1@CGGrandMen

; 367  : 	{
; 368  : 		return;

  01146	eb 0c		 jmp	 SHORT $LN2@CGGrandMen
$LN1@CGGrandMen:

; 369  : 	}
; 370  : 
; 371  : 	this->GCDialogInfo(aIndex);

  01148	8b 45 08	 mov	 eax, DWORD PTR _aIndex$[ebp]
  0114b	50		 push	 eax
  0114c	8b 4d fc	 mov	 ecx, DWORD PTR _this$[ebp]
  0114f	e8 00 00 00 00	 call	 ?GCDialogInfo@cGrandReset@@QAEXH@Z ; cGrandReset::GCDialogInfo
$LN2@CGGrandMen:

; 372  : }

  01154	5f		 pop	 edi
  01155	5e		 pop	 esi
  01156	5b		 pop	 ebx
  01157	8b e5		 mov	 esp, ebp
  01159	5d		 pop	 ebp
  0115a	c2 04 00	 ret	 4
?CGGrandMenu@cGrandReset@@QAEXH@Z ENDP			; cGrandReset::CGGrandMenu
_TEXT	ENDS
PUBLIC	??A?$vector@UGRANDSYSTEM_REWARD_DATA@@V?$allocator@UGRANDSYSTEM_REWARD_DATA@@@std@@@std@@QAEAAUGRANDSYSTEM_REWARD_DATA@@I@Z ; std::vector<GRANDSYSTEM_REWARD_DATA,std::allocator<GRANDSYSTEM_REWARD_DATA> >::operator[]
PUBLIC	?size@?$vector@UGRANDSYSTEM_REWARD_DATA@@V?$allocator@UGRANDSYSTEM_REWARD_DATA@@@std@@@std@@QBEIXZ ; std::vector<GRANDSYSTEM_REWARD_DATA,std::allocator<GRANDSYSTEM_REWARD_DATA> >::size
PUBLIC	??_C@_0CN@NMLOMMO@?$FLGReset?$FN?3?5You?5need?5Empty?5Invento@ ; `string'
PUBLIC	??_C@_0BM@CCOFCGNI@?$FLGReset?$FN?3?5Interface?5Disable?$AA@ ; `string'
PUBLIC	?set@PBMSG_HEAD2@@QAEXPAEEEE@Z			; PBMSG_HEAD2::set
PUBLIC	__$ArrayPad$
EXTRN	?DataSend@@YAHHPAEK@Z:PROC			; DataSend
;	COMDAT ??_C@_0CN@NMLOMMO@?$FLGReset?$FN?3?5You?5need?5Empty?5Invento@
CONST	SEGMENT
??_C@_0CN@NMLOMMO@?$FLGReset?$FN?3?5You?5need?5Empty?5Invento@ DB '[GRese'
	DB	't]: You need Empty Inventory to GReset', 00H ; `string'
CONST	ENDS
;	COMDAT ??_C@_0BM@CCOFCGNI@?$FLGReset?$FN?3?5Interface?5Disable?$AA@
CONST	SEGMENT
??_C@_0BM@CCOFCGNI@?$FLGReset?$FN?3?5Interface?5Disable?$AA@ DB '[GReset]'
	DB	': Interface Disable', 00H			; `string'
; Function compile flags: /Odtp /ZI
CONST	ENDS
_TEXT	SEGMENT
tv222 = -124						; size = 4
tv141 = -124						; size = 4
_ritem$231845 = -56					; size = 4
_i$231841 = -52						; size = 4
_ZenMoney$ = -48					; size = 4
_lpObj$ = -44						; size = 4
_pMsg$ = -40						; size = 32
_this$ = -8						; size = 4
__$ArrayPad$ = -4					; size = 4
_aIndex$ = 8						; size = 4
?GCDialogInfo@cGrandReset@@QAEXH@Z PROC			; cGrandReset::GCDialogInfo
; _this$ = ecx

; 375  : {

  01160	55		 push	 ebp
  01161	8b ec		 mov	 ebp, esp
  01163	83 ec 7c	 sub	 esp, 124		; 0000007cH
  01166	a1 00 00 00 00	 mov	 eax, DWORD PTR ___security_cookie
  0116b	33 c5		 xor	 eax, ebp
  0116d	89 45 fc	 mov	 DWORD PTR __$ArrayPad$[ebp], eax
  01170	53		 push	 ebx
  01171	56		 push	 esi
  01172	57		 push	 edi
  01173	89 4d f8	 mov	 DWORD PTR _this$[ebp], ecx

; 376  : 	PMSG_GRAND_DIALOG pMsg;
; 377  : 	pMsg.h.set((LPBYTE)&pMsg, 0xFB, 0xA1, sizeof(pMsg));

  01176	6a 20		 push	 32			; 00000020H
  01178	68 a1 00 00 00	 push	 161			; 000000a1H
  0117d	68 fb 00 00 00	 push	 251			; 000000fbH
  01182	8d 45 d8	 lea	 eax, DWORD PTR _pMsg$[ebp]
  01185	50		 push	 eax
  01186	8d 4d d8	 lea	 ecx, DWORD PTR _pMsg$[ebp]
  01189	e8 00 00 00 00	 call	 ?set@PBMSG_HEAD2@@QAEXPAEEEE@Z ; PBMSG_HEAD2::set

; 378  : 	pMsg.Result = 1;

  0118e	c6 45 dc 01	 mov	 BYTE PTR _pMsg$[ebp+4], 1

; 379  : 
; 380  : 	if(!this->EnableGrandResetSystem)

  01192	8b 45 f8	 mov	 eax, DWORD PTR _this$[ebp]
  01195	83 38 00	 cmp	 DWORD PTR [eax], 0
  01198	75 05		 jne	 SHORT $LN35@GCDialogIn

; 381  : 		return;

  0119a	e9 58 04 00 00	 jmp	 $LN36@GCDialogIn
$LN35@GCDialogIn:

; 382  : 
; 383  : 	LPOBJ lpObj = &gObj[aIndex];

  0119f	8b 45 08	 mov	 eax, DWORD PTR _aIndex$[ebp]
  011a2	69 c0 38 2b 00
	00		 imul	 eax, 11064		; 00002b38H
  011a8	03 05 00 00 00
	00		 add	 eax, DWORD PTR ?gObj@@3PAUOBJECTSTRUCT@@A ; gObj
  011ae	89 45 d4	 mov	 DWORD PTR _lpObj$[ebp], eax

; 384  : 
; 385  : 	if ( (GetTickCount() - lpObj->MySelfDefenseTime ) < 60000)

  011b1	ff 15 00 00 00
	00		 call	 DWORD PTR __imp__GetTickCount@0
  011b7	8b 4d d4	 mov	 ecx, DWORD PTR _lpObj$[ebp]
  011ba	2b 81 1c 04 00
	00		 sub	 eax, DWORD PTR [ecx+1052]
  011c0	3d 60 ea 00 00	 cmp	 eax, 60000		; 0000ea60H
  011c5	73 36		 jae	 SHORT $LN34@GCDialogIn

; 386  : 	{
; 387  : 		GCServerMsgStringSend(lMsg.Get(MSGGET(4, 109)), lpObj->m_Index, 1);

  011c7	6a 01		 push	 1
  011c9	8b 45 d4	 mov	 eax, DWORD PTR _lpObj$[ebp]
  011cc	8b 08		 mov	 ecx, DWORD PTR [eax]
  011ce	51		 push	 ecx
  011cf	68 6d 04 00 00	 push	 1133			; 0000046dH
  011d4	b9 00 00 00 00	 mov	 ecx, OFFSET ?lMsg@@3VCMsg@@A ; lMsg
  011d9	e8 00 00 00 00	 call	 ?Get@CMsg@@QAEPADH@Z	; CMsg::Get
  011de	50		 push	 eax
  011df	e8 00 00 00 00	 call	 ?GCServerMsgStringSend@@YAXPADHE@Z ; GCServerMsgStringSend
  011e4	83 c4 0c	 add	 esp, 12			; 0000000cH

; 388  : 		GCCloseMsgSend(aIndex,-1); //Season 2.5 add-on

  011e7	68 ff 00 00 00	 push	 255			; 000000ffH
  011ec	8b 45 08	 mov	 eax, DWORD PTR _aIndex$[ebp]
  011ef	50		 push	 eax
  011f0	e8 00 00 00 00	 call	 ?GCCloseMsgSend@@YAXHE@Z ; GCCloseMsgSend
  011f5	83 c4 08	 add	 esp, 8

; 389  : 		return;

  011f8	e9 fa 03 00 00	 jmp	 $LN36@GCDialogIn
$LN34@GCDialogIn:

; 390  : 	}
; 391  : 
; 392  : 	if(lpObj->SkillRecallParty_Time != 0)

  011fd	8b 45 d4	 mov	 eax, DWORD PTR _lpObj$[ebp]
  01200	0f b7 88 74 12
	00 00		 movzx	 ecx, WORD PTR [eax+4724]
  01207	85 c9		 test	 ecx, ecx
  01209	74 05		 je	 SHORT $LN33@GCDialogIn

; 393  : 	{
; 394  : 		return;

  0120b	e9 e7 03 00 00	 jmp	 $LN36@GCDialogIn
$LN33@GCDialogIn:

; 395  : 	}
; 396  : 
; 397  : 	if(gMoveCommand.CheckInterfaceToMove(lpObj) == 0)

  01210	8b 45 d4	 mov	 eax, DWORD PTR _lpObj$[ebp]
  01213	50		 push	 eax
  01214	b9 00 00 00 00	 mov	 ecx, OFFSET ?gMoveCommand@@3VCMoveCommand@@A ; gMoveCommand
  01219	e8 00 00 00 00	 call	 ?CheckInterfaceToMove@CMoveCommand@@QAEHPAUOBJECTSTRUCT@@@Z ; CMoveCommand::CheckInterfaceToMove
  0121e	85 c0		 test	 eax, eax
  01220	75 1a		 jne	 SHORT $LN32@GCDialogIn

; 398  : 	{
; 399  : 		GCServerMsgStringSend("[GReset]: Interface Disable",lpObj->m_Index,1);

  01222	6a 01		 push	 1
  01224	8b 45 d4	 mov	 eax, DWORD PTR _lpObj$[ebp]
  01227	8b 08		 mov	 ecx, DWORD PTR [eax]
  01229	51		 push	 ecx
  0122a	68 00 00 00 00	 push	 OFFSET ??_C@_0BM@CCOFCGNI@?$FLGReset?$FN?3?5Interface?5Disable?$AA@
  0122f	e8 00 00 00 00	 call	 ?GCServerMsgStringSend@@YAXPADHE@Z ; GCServerMsgStringSend
  01234	83 c4 0c	 add	 esp, 12			; 0000000cH

; 400  : 		return;

  01237	e9 bb 03 00 00	 jmp	 $LN36@GCDialogIn
$LN32@GCDialogIn:

; 401  : 	}
; 402  : 
; 403  : 	//Проверка на максимальное количество ресетов
; 404  : 	pMsg.GrandNum = lpObj->GReset;

  0123c	8b 45 d4	 mov	 eax, DWORD PTR _lpObj$[ebp]
  0123f	66 8b 88 94 22
	00 00		 mov	 cx, WORD PTR [eax+8852]
  01246	66 89 4d de	 mov	 WORD PTR _pMsg$[ebp+6], cx

; 405  : 	pMsg.GrandMax = this->MaxGrandRes;

  0124a	8b 45 f8	 mov	 eax, DWORD PTR _this$[ebp]
  0124d	66 8b 48 04	 mov	 cx, WORD PTR [eax+4]
  01251	66 89 4d e0	 mov	 WORD PTR _pMsg$[ebp+8], cx

; 406  : 
; 407  : 	if(lpObj->GReset >= this->MaxGrandRes)

  01255	8b 45 d4	 mov	 eax, DWORD PTR _lpObj$[ebp]
  01258	8b 4d f8	 mov	 ecx, DWORD PTR _this$[ebp]
  0125b	8b 90 94 22 00
	00		 mov	 edx, DWORD PTR [eax+8852]
  01261	3b 51 04	 cmp	 edx, DWORD PTR [ecx+4]
  01264	7c 04		 jl	 SHORT $LN31@GCDialogIn

; 408  : 	{
; 409  : 		//MsgNormal(aIndex,"[GReset]: Max Grand Reset %d",this->MaxGrandRes);
; 410  : 		pMsg.Result = 0;

  01266	c6 45 dc 00	 mov	 BYTE PTR _pMsg$[ebp+4], 0
$LN31@GCDialogIn:

; 411  : 	}
; 412  : 	
; 413  : 	//Проверка на Ресет
; 414  : 	pMsg.NeedReset = this->NeedRes;

  0126a	8b 45 f8	 mov	 eax, DWORD PTR _this$[ebp]
  0126d	66 8b 48 10	 mov	 cx, WORD PTR [eax+16]
  01271	66 89 4d e2	 mov	 WORD PTR _pMsg$[ebp+10], cx

; 415  : 
; 416  : 	if(this->NeedRes > lpObj->Reset)

  01275	8b 45 f8	 mov	 eax, DWORD PTR _this$[ebp]
  01278	8b 4d d4	 mov	 ecx, DWORD PTR _lpObj$[ebp]
  0127b	8b 50 10	 mov	 edx, DWORD PTR [eax+16]
  0127e	3b 91 90 22 00
	00		 cmp	 edx, DWORD PTR [ecx+8848]
  01284	7e 04		 jle	 SHORT $LN30@GCDialogIn

; 417  : 	{
; 418  : 		//MsgNormal(aIndex,"[GReset]: You need above %d Reset to GReset",this->NeedLevel);
; 419  : 		pMsg.Result = 0;

  01286	c6 45 dc 00	 mov	 BYTE PTR _pMsg$[ebp+4], 0
$LN30@GCDialogIn:

; 420  : 	}
; 421  : 
; 422  : 	//Проверка на уровень
; 423  : 	pMsg.NeedLevel = this->NeedLevel;

  0128a	8b 45 f8	 mov	 eax, DWORD PTR _this$[ebp]
  0128d	66 8b 48 14	 mov	 cx, WORD PTR [eax+20]
  01291	66 89 4d e4	 mov	 WORD PTR _pMsg$[ebp+12], cx

; 424  : 
; 425  : 	if(this->NeedLevel > lpObj->Level)

  01295	8b 45 d4	 mov	 eax, DWORD PTR _lpObj$[ebp]
  01298	0f bf 88 be 00
	00 00		 movsx	 ecx, WORD PTR [eax+190]
  0129f	8b 55 f8	 mov	 edx, DWORD PTR _this$[ebp]
  012a2	39 4a 14	 cmp	 DWORD PTR [edx+20], ecx
  012a5	7e 04		 jle	 SHORT $LN29@GCDialogIn

; 426  : 	{
; 427  : 		//MsgNormal(aIndex,"[GReset]: You need above %d Level to GReset",this->NeedLevel);
; 428  : 		pMsg.Result = 0;

  012a7	c6 45 dc 00	 mov	 BYTE PTR _pMsg$[ebp+4], 0
$LN29@GCDialogIn:

; 429  : 	}
; 430  : 	int ZenMoney = 0;

  012ab	c7 45 d0 00 00
	00 00		 mov	 DWORD PTR _ZenMoney$[ebp], 0

; 431  : 
; 432  : 	//Проверка на зен
; 433  : 	switch(this->ZenForm)

  012b2	8b 45 f8	 mov	 eax, DWORD PTR _this$[ebp]
  012b5	8b 48 08	 mov	 ecx, DWORD PTR [eax+8]
  012b8	89 4d 84	 mov	 DWORD PTR tv141[ebp], ecx
  012bb	83 7d 84 01	 cmp	 DWORD PTR tv141[ebp], 1
  012bf	74 08		 je	 SHORT $LN26@GCDialogIn
  012c1	83 7d 84 02	 cmp	 DWORD PTR tv141[ebp], 2
  012c5	74 1a		 je	 SHORT $LN25@GCDialogIn
  012c7	eb 21		 jmp	 SHORT $LN27@GCDialogIn
$LN26@GCDialogIn:

; 434  : 	{
; 435  : 		case 1: ZenMoney = this->NeedZen * ( lpObj->GReset + 1 ); break;

  012c9	8b 45 d4	 mov	 eax, DWORD PTR _lpObj$[ebp]
  012cc	8b 88 94 22 00
	00		 mov	 ecx, DWORD PTR [eax+8852]
  012d2	83 c1 01	 add	 ecx, 1
  012d5	8b 55 f8	 mov	 edx, DWORD PTR _this$[ebp]
  012d8	0f af 4a 0c	 imul	 ecx, DWORD PTR [edx+12]
  012dc	89 4d d0	 mov	 DWORD PTR _ZenMoney$[ebp], ecx
  012df	eb 09		 jmp	 SHORT $LN27@GCDialogIn
$LN25@GCDialogIn:

; 436  : 		case 2: ZenMoney = this->NeedZen; break;

  012e1	8b 45 f8	 mov	 eax, DWORD PTR _this$[ebp]
  012e4	8b 48 0c	 mov	 ecx, DWORD PTR [eax+12]
  012e7	89 4d d0	 mov	 DWORD PTR _ZenMoney$[ebp], ecx
$LN27@GCDialogIn:

; 437  : 	}
; 438  : 	
; 439  : 	pMsg.NeedMoney = ZenMoney;

  012ea	8b 45 d0	 mov	 eax, DWORD PTR _ZenMoney$[ebp]
  012ed	89 45 e8	 mov	 DWORD PTR _pMsg$[ebp+16], eax

; 440  : 
; 441  : 	if(this->ZenForm != 0)

  012f0	8b 45 f8	 mov	 eax, DWORD PTR _this$[ebp]
  012f3	83 78 08 00	 cmp	 DWORD PTR [eax+8], 0
  012f7	74 12		 je	 SHORT $LN24@GCDialogIn

; 442  : 	{
; 443  : 		if(lpObj->Money < ZenMoney)

  012f9	8b 45 d4	 mov	 eax, DWORD PTR _lpObj$[ebp]
  012fc	8b 88 f0 00 00
	00		 mov	 ecx, DWORD PTR [eax+240]
  01302	3b 4d d0	 cmp	 ecx, DWORD PTR _ZenMoney$[ebp]
  01305	7d 04		 jge	 SHORT $LN24@GCDialogIn

; 444  : 		{
; 445  : 			//MsgNormal(aIndex,"[GReset]: You need above %d Zen to GReset",ZenMoney);
; 446  : 			pMsg.Result = 0;

  01307	c6 45 dc 00	 mov	 BYTE PTR _pMsg$[ebp+4], 0
$LN24@GCDialogIn:

; 447  : 		}
; 448  : 	}
; 449  : 
; 450  : 	//Проверка на пустой инвентарь
; 451  : 	if(this->NeedEmptyInv)

  0130b	8b 45 f8	 mov	 eax, DWORD PTR _this$[ebp]
  0130e	83 78 38 00	 cmp	 DWORD PTR [eax+56], 0
  01312	0f 84 27 01 00
	00		 je	 $LN22@GCDialogIn

; 452  : 	{
; 453  : 		if(lpObj->pInventory[0].m_Type != -1 || lpObj->pInventory[1].m_Type != -1 || lpObj->pInventory[2].m_Type != -1 ||
; 454  : 		   lpObj->pInventory[3].m_Type != -1 || lpObj->pInventory[4].m_Type != -1 || lpObj->pInventory[5].m_Type != -1 ||
; 455  : 		   lpObj->pInventory[6].m_Type != -1 || lpObj->pInventory[7].m_Type != -1 || lpObj->pInventory[8].m_Type != -1 ||
; 456  : 		   lpObj->pInventory[9].m_Type != -1 || lpObj->pInventory[10].m_Type != -1|| lpObj->pInventory[11].m_Type != -1)

  01318	8b 45 d4	 mov	 eax, DWORD PTR _lpObj$[ebp]
  0131b	8b 88 24 0e 00
	00		 mov	 ecx, DWORD PTR [eax+3620]
  01321	0f bf 51 06	 movsx	 edx, WORD PTR [ecx+6]
  01325	83 fa ff	 cmp	 edx, -1
  01328	0f 85 f7 00 00
	00		 jne	 $LN20@GCDialogIn
  0132e	8b 45 d4	 mov	 eax, DWORD PTR _lpObj$[ebp]
  01331	8b 88 24 0e 00
	00		 mov	 ecx, DWORD PTR [eax+3620]
  01337	0f bf 91 da 00
	00 00		 movsx	 edx, WORD PTR [ecx+218]
  0133e	83 fa ff	 cmp	 edx, -1
  01341	0f 85 de 00 00
	00		 jne	 $LN20@GCDialogIn
  01347	8b 45 d4	 mov	 eax, DWORD PTR _lpObj$[ebp]
  0134a	8b 88 24 0e 00
	00		 mov	 ecx, DWORD PTR [eax+3620]
  01350	0f bf 91 ae 01
	00 00		 movsx	 edx, WORD PTR [ecx+430]
  01357	83 fa ff	 cmp	 edx, -1
  0135a	0f 85 c5 00 00
	00		 jne	 $LN20@GCDialogIn
  01360	8b 45 d4	 mov	 eax, DWORD PTR _lpObj$[ebp]
  01363	8b 88 24 0e 00
	00		 mov	 ecx, DWORD PTR [eax+3620]
  01369	0f bf 91 82 02
	00 00		 movsx	 edx, WORD PTR [ecx+642]
  01370	83 fa ff	 cmp	 edx, -1
  01373	0f 85 ac 00 00
	00		 jne	 $LN20@GCDialogIn
  01379	8b 45 d4	 mov	 eax, DWORD PTR _lpObj$[ebp]
  0137c	8b 88 24 0e 00
	00		 mov	 ecx, DWORD PTR [eax+3620]
  01382	0f bf 91 56 03
	00 00		 movsx	 edx, WORD PTR [ecx+854]
  01389	83 fa ff	 cmp	 edx, -1
  0138c	0f 85 93 00 00
	00		 jne	 $LN20@GCDialogIn
  01392	8b 45 d4	 mov	 eax, DWORD PTR _lpObj$[ebp]
  01395	8b 88 24 0e 00
	00		 mov	 ecx, DWORD PTR [eax+3620]
  0139b	0f bf 91 2a 04
	00 00		 movsx	 edx, WORD PTR [ecx+1066]
  013a2	83 fa ff	 cmp	 edx, -1
  013a5	75 7e		 jne	 SHORT $LN20@GCDialogIn
  013a7	8b 45 d4	 mov	 eax, DWORD PTR _lpObj$[ebp]
  013aa	8b 88 24 0e 00
	00		 mov	 ecx, DWORD PTR [eax+3620]
  013b0	0f bf 91 fe 04
	00 00		 movsx	 edx, WORD PTR [ecx+1278]
  013b7	83 fa ff	 cmp	 edx, -1
  013ba	75 69		 jne	 SHORT $LN20@GCDialogIn
  013bc	8b 45 d4	 mov	 eax, DWORD PTR _lpObj$[ebp]
  013bf	8b 88 24 0e 00
	00		 mov	 ecx, DWORD PTR [eax+3620]
  013c5	0f bf 91 d2 05
	00 00		 movsx	 edx, WORD PTR [ecx+1490]
  013cc	83 fa ff	 cmp	 edx, -1
  013cf	75 54		 jne	 SHORT $LN20@GCDialogIn
  013d1	8b 45 d4	 mov	 eax, DWORD PTR _lpObj$[ebp]
  013d4	8b 88 24 0e 00
	00		 mov	 ecx, DWORD PTR [eax+3620]
  013da	0f bf 91 a6 06
	00 00		 movsx	 edx, WORD PTR [ecx+1702]
  013e1	83 fa ff	 cmp	 edx, -1
  013e4	75 3f		 jne	 SHORT $LN20@GCDialogIn
  013e6	8b 45 d4	 mov	 eax, DWORD PTR _lpObj$[ebp]
  013e9	8b 88 24 0e 00
	00		 mov	 ecx, DWORD PTR [eax+3620]
  013ef	0f bf 91 7a 07
	00 00		 movsx	 edx, WORD PTR [ecx+1914]
  013f6	83 fa ff	 cmp	 edx, -1
  013f9	75 2a		 jne	 SHORT $LN20@GCDialogIn
  013fb	8b 45 d4	 mov	 eax, DWORD PTR _lpObj$[ebp]
  013fe	8b 88 24 0e 00
	00		 mov	 ecx, DWORD PTR [eax+3620]
  01404	0f bf 91 4e 08
	00 00		 movsx	 edx, WORD PTR [ecx+2126]
  0140b	83 fa ff	 cmp	 edx, -1
  0140e	75 15		 jne	 SHORT $LN20@GCDialogIn
  01410	8b 45 d4	 mov	 eax, DWORD PTR _lpObj$[ebp]
  01413	8b 88 24 0e 00
	00		 mov	 ecx, DWORD PTR [eax+3620]
  01419	0f bf 91 22 09
	00 00		 movsx	 edx, WORD PTR [ecx+2338]
  01420	83 fa ff	 cmp	 edx, -1
  01423	74 1a		 je	 SHORT $LN22@GCDialogIn
$LN20@GCDialogIn:

; 457  : 		{
; 458  : 			MsgNormal(aIndex,"[GReset]: You need Empty Inventory to GReset");

  01425	68 00 00 00 00	 push	 OFFSET ??_C@_0CN@NMLOMMO@?$FLGReset?$FN?3?5You?5need?5Empty?5Invento@
  0142a	8b 45 08	 mov	 eax, DWORD PTR _aIndex$[ebp]
  0142d	50		 push	 eax
  0142e	e8 00 00 00 00	 call	 ?MsgNormal@@YAXHPADZZ	; MsgNormal
  01433	83 c4 08	 add	 esp, 8

; 459  : 			pMsg.Result = 0;

  01436	c6 45 dc 00	 mov	 BYTE PTR _pMsg$[ebp+4], 0

; 460  : 			return;

  0143a	e9 b8 01 00 00	 jmp	 $LN36@GCDialogIn
$LN22@GCDialogIn:

; 461  : 		}
; 462  : 	}
; 463  : 
; 464  : 	//Поинта за гранд ресет
; 465  : 	pMsg.RewardPoint = 0;

  0143f	c7 45 ec 00 00
	00 00		 mov	 DWORD PTR _pMsg$[ebp+20], 0

; 466  : 
; 467  : 	if(this->AddForm == 1 || this->AddForm == 2)

  01446	8b 45 f8	 mov	 eax, DWORD PTR _this$[ebp]
  01449	83 78 18 01	 cmp	 DWORD PTR [eax+24], 1
  0144d	74 0d		 je	 SHORT $LN18@GCDialogIn
  0144f	8b 45 f8	 mov	 eax, DWORD PTR _this$[ebp]
  01452	83 78 18 02	 cmp	 DWORD PTR [eax+24], 2
  01456	0f 85 ca 00 00
	00		 jne	 $LN19@GCDialogIn
$LN18@GCDialogIn:

; 468  : 	{
; 469  : 		switch (lpObj->Class)

  0145c	8b 45 d4	 mov	 eax, DWORD PTR _lpObj$[ebp]
  0145f	0f b7 88 b8 00
	00 00		 movzx	 ecx, WORD PTR [eax+184]
  01466	89 4d 84	 mov	 DWORD PTR tv222[ebp], ecx
  01469	83 7d 84 06	 cmp	 DWORD PTR tv222[ebp], 6
  0146d	0f 87 b3 00 00
	00		 ja	 $LN19@GCDialogIn
  01473	8b 55 84	 mov	 edx, DWORD PTR tv222[ebp]
  01476	ff 24 95 00 00
	00 00		 jmp	 DWORD PTR $LN38@GCDialogIn[edx*4]
$LN15@GCDialogIn:

; 470  : 		{
; 471  : 		case 0: pMsg.RewardPoint = ( lpObj->GReset + 1 ) * this->AddPointsDW;  break;

  0147d	8b 45 d4	 mov	 eax, DWORD PTR _lpObj$[ebp]
  01480	8b 88 94 22 00
	00		 mov	 ecx, DWORD PTR [eax+8852]
  01486	83 c1 01	 add	 ecx, 1
  01489	8b 55 f8	 mov	 edx, DWORD PTR _this$[ebp]
  0148c	0f af 4a 1c	 imul	 ecx, DWORD PTR [edx+28]
  01490	89 4d ec	 mov	 DWORD PTR _pMsg$[ebp+20], ecx
  01493	e9 8e 00 00 00	 jmp	 $LN19@GCDialogIn
$LN14@GCDialogIn:

; 472  : 		case 1: pMsg.RewardPoint = ( lpObj->GReset + 1 ) * this->AddPointsDK;  break;

  01498	8b 45 d4	 mov	 eax, DWORD PTR _lpObj$[ebp]
  0149b	8b 88 94 22 00
	00		 mov	 ecx, DWORD PTR [eax+8852]
  014a1	83 c1 01	 add	 ecx, 1
  014a4	8b 55 f8	 mov	 edx, DWORD PTR _this$[ebp]
  014a7	0f af 4a 20	 imul	 ecx, DWORD PTR [edx+32]
  014ab	89 4d ec	 mov	 DWORD PTR _pMsg$[ebp+20], ecx
  014ae	eb 76		 jmp	 SHORT $LN19@GCDialogIn
$LN13@GCDialogIn:

; 473  : 		case 2: pMsg.RewardPoint = ( lpObj->GReset + 1 ) * this->AddPointsELF; break;

  014b0	8b 45 d4	 mov	 eax, DWORD PTR _lpObj$[ebp]
  014b3	8b 88 94 22 00
	00		 mov	 ecx, DWORD PTR [eax+8852]
  014b9	83 c1 01	 add	 ecx, 1
  014bc	8b 55 f8	 mov	 edx, DWORD PTR _this$[ebp]
  014bf	0f af 4a 24	 imul	 ecx, DWORD PTR [edx+36]
  014c3	89 4d ec	 mov	 DWORD PTR _pMsg$[ebp+20], ecx
  014c6	eb 5e		 jmp	 SHORT $LN19@GCDialogIn
$LN12@GCDialogIn:

; 474  : 		case 3: pMsg.RewardPoint = ( lpObj->GReset + 1 ) * this->AddPointsMG;  break;

  014c8	8b 45 d4	 mov	 eax, DWORD PTR _lpObj$[ebp]
  014cb	8b 88 94 22 00
	00		 mov	 ecx, DWORD PTR [eax+8852]
  014d1	83 c1 01	 add	 ecx, 1
  014d4	8b 55 f8	 mov	 edx, DWORD PTR _this$[ebp]
  014d7	0f af 4a 2c	 imul	 ecx, DWORD PTR [edx+44]
  014db	89 4d ec	 mov	 DWORD PTR _pMsg$[ebp+20], ecx
  014de	eb 46		 jmp	 SHORT $LN19@GCDialogIn
$LN11@GCDialogIn:

; 475  : 		case 4: pMsg.RewardPoint = ( lpObj->GReset + 1 ) * this->AddPointsDL;  break;

  014e0	8b 45 d4	 mov	 eax, DWORD PTR _lpObj$[ebp]
  014e3	8b 88 94 22 00
	00		 mov	 ecx, DWORD PTR [eax+8852]
  014e9	83 c1 01	 add	 ecx, 1
  014ec	8b 55 f8	 mov	 edx, DWORD PTR _this$[ebp]
  014ef	0f af 4a 30	 imul	 ecx, DWORD PTR [edx+48]
  014f3	89 4d ec	 mov	 DWORD PTR _pMsg$[ebp+20], ecx
  014f6	eb 2e		 jmp	 SHORT $LN19@GCDialogIn
$LN10@GCDialogIn:

; 476  : 		case 5: pMsg.RewardPoint = ( lpObj->GReset + 1 ) * this->AddPointsSUM; break;

  014f8	8b 45 d4	 mov	 eax, DWORD PTR _lpObj$[ebp]
  014fb	8b 88 94 22 00
	00		 mov	 ecx, DWORD PTR [eax+8852]
  01501	83 c1 01	 add	 ecx, 1
  01504	8b 55 f8	 mov	 edx, DWORD PTR _this$[ebp]
  01507	0f af 4a 28	 imul	 ecx, DWORD PTR [edx+40]
  0150b	89 4d ec	 mov	 DWORD PTR _pMsg$[ebp+20], ecx
  0150e	eb 16		 jmp	 SHORT $LN19@GCDialogIn
$LN9@GCDialogIn:

; 477  : 		case 6: pMsg.RewardPoint = ( lpObj->GReset + 1 ) * this->AddPointsRF;  break;

  01510	8b 45 d4	 mov	 eax, DWORD PTR _lpObj$[ebp]
  01513	8b 88 94 22 00
	00		 mov	 ecx, DWORD PTR [eax+8852]
  01519	83 c1 01	 add	 ecx, 1
  0151c	8b 55 f8	 mov	 edx, DWORD PTR _this$[ebp]
  0151f	0f af 4a 34	 imul	 ecx, DWORD PTR [edx+52]
  01523	89 4d ec	 mov	 DWORD PTR _pMsg$[ebp+20], ecx
$LN19@GCDialogIn:

; 478  : 		}
; 479  : 	}
; 480  : 
; 481  : 	//if(this->AddForm == 3)
; 482  : 	//{
; 483  : 	//	lpObj->LevelUpPoint = 0;
; 484  : 	//}
; 485  : 	//else
; 486  : 	//{
; 487  : 	//	lpObj->LevelUpPoint += lpObj->ExFreePoints;
; 488  : 	//}
; 489  : 
; 490  : 	//if(this->AddCredits>0)
; 491  : 	//{
; 492  : 	//	lpObj->ExCred += AddCredits;
; 493  : 	//}
; 494  : 
; 495  : 	pMsg.RewardWCoin = this->AddWcoinC;

  01526	8b 45 f8	 mov	 eax, DWORD PTR _this$[ebp]
  01529	8b 48 40	 mov	 ecx, DWORD PTR [eax+64]
  0152c	89 4d f0	 mov	 DWORD PTR _pMsg$[ebp+24], ecx

; 496  : 
; 497  : 	//if(this->AddWcoinC > 0)
; 498  : 	//{
; 499  : 	//	lpObj->GameShop.WCoinC += this->AddWcoinC;
; 500  : 	//}
; 501  : 	//if(this->AddWcoinP > 0)
; 502  : 	//{
; 503  : 	//	lpObj->GameShop.WCoinP += this->AddWcoinP;
; 504  : 	//}
; 505  : 	//if(this->AddGoblinPoint > 0)
; 506  : 	//{
; 507  : 	//	lpObj->GameShop.GoblinPoint += this->AddGoblinPoint;
; 508  : 	//}
; 509  : 
; 510  : 	pMsg.RewardCredit = 0;

  0152f	c7 45 f4 00 00
	00 00		 mov	 DWORD PTR _pMsg$[ebp+28], 0

; 511  : 
; 512  : 	if(g_ExLicense.CheckUser(eExUB::Local) || g_ExLicense.CheckUser(eExUB::Artem) || g_ExLicense.CheckUser(eExUB::Artem2))

  01536	6a 00		 push	 0
  01538	b9 00 00 00 00	 mov	 ecx, OFFSET ?g_ExLicense@@3VCExLicense@@A ; g_ExLicense
  0153d	e8 00 00 00 00	 call	 ?CheckUser@CExLicense@@QAE_NH@Z ; CExLicense::CheckUser
  01542	0f b6 c0	 movzx	 eax, al
  01545	85 c0		 test	 eax, eax
  01547	75 26		 jne	 SHORT $LN7@GCDialogIn
  01549	6a 30		 push	 48			; 00000030H
  0154b	b9 00 00 00 00	 mov	 ecx, OFFSET ?g_ExLicense@@3VCExLicense@@A ; g_ExLicense
  01550	e8 00 00 00 00	 call	 ?CheckUser@CExLicense@@QAE_NH@Z ; CExLicense::CheckUser
  01555	0f b6 c0	 movzx	 eax, al
  01558	85 c0		 test	 eax, eax
  0155a	75 13		 jne	 SHORT $LN7@GCDialogIn
  0155c	6a 31		 push	 49			; 00000031H
  0155e	b9 00 00 00 00	 mov	 ecx, OFFSET ?g_ExLicense@@3VCExLicense@@A ; g_ExLicense
  01563	e8 00 00 00 00	 call	 ?CheckUser@CExLicense@@QAE_NH@Z ; CExLicense::CheckUser
  01568	0f b6 c0	 movzx	 eax, al
  0156b	85 c0		 test	 eax, eax
  0156d	74 73		 je	 SHORT $LN8@GCDialogIn
$LN7@GCDialogIn:

; 513  : 	{
; 514  : 		//reward Item
; 515  : 		for(int i = 0; i < this->m_reward.size(); i++)

  0156f	c7 45 cc 00 00
	00 00		 mov	 DWORD PTR _i$231841[ebp], 0
  01576	eb 09		 jmp	 SHORT $LN6@GCDialogIn
$LN5@GCDialogIn:
  01578	8b 45 cc	 mov	 eax, DWORD PTR _i$231841[ebp]
  0157b	83 c0 01	 add	 eax, 1
  0157e	89 45 cc	 mov	 DWORD PTR _i$231841[ebp], eax
$LN6@GCDialogIn:
  01581	8b 4d f8	 mov	 ecx, DWORD PTR _this$[ebp]
  01584	81 c1 dc 00 00
	00		 add	 ecx, 220		; 000000dcH
  0158a	e8 00 00 00 00	 call	 ?size@?$vector@UGRANDSYSTEM_REWARD_DATA@@V?$allocator@UGRANDSYSTEM_REWARD_DATA@@@std@@@std@@QBEIXZ ; std::vector<GRANDSYSTEM_REWARD_DATA,std::allocator<GRANDSYSTEM_REWARD_DATA> >::size
  0158f	39 45 cc	 cmp	 DWORD PTR _i$231841[ebp], eax
  01592	73 4e		 jae	 SHORT $LN8@GCDialogIn

; 516  : 		{
; 517  : 			GRANDSYSTEM_REWARD_DATA & ritem = this->m_reward[i];

  01594	8b 45 cc	 mov	 eax, DWORD PTR _i$231841[ebp]
  01597	50		 push	 eax
  01598	8b 4d f8	 mov	 ecx, DWORD PTR _this$[ebp]
  0159b	81 c1 dc 00 00
	00		 add	 ecx, 220		; 000000dcH
  015a1	e8 00 00 00 00	 call	 ??A?$vector@UGRANDSYSTEM_REWARD_DATA@@V?$allocator@UGRANDSYSTEM_REWARD_DATA@@@std@@@std@@QAEAAUGRANDSYSTEM_REWARD_DATA@@I@Z ; std::vector<GRANDSYSTEM_REWARD_DATA,std::allocator<GRANDSYSTEM_REWARD_DATA> >::operator[]
  015a6	89 45 c8	 mov	 DWORD PTR _ritem$231845[ebp], eax

; 518  : 			if(ritem.ResetNum == (lpObj->GReset + 1))

  015a9	8b 45 d4	 mov	 eax, DWORD PTR _lpObj$[ebp]
  015ac	8b 88 94 22 00
	00		 mov	 ecx, DWORD PTR [eax+8852]
  015b2	83 c1 01	 add	 ecx, 1
  015b5	8b 55 c8	 mov	 edx, DWORD PTR _ritem$231845[ebp]
  015b8	39 0a		 cmp	 DWORD PTR [edx], ecx
  015ba	75 24		 jne	 SHORT $LN3@GCDialogIn

; 519  : 			{
; 520  : 				if(ritem.WcoinC > 0)

  015bc	8b 45 c8	 mov	 eax, DWORD PTR _ritem$231845[ebp]
  015bf	83 78 04 00	 cmp	 DWORD PTR [eax+4], 0
  015c3	7e 09		 jle	 SHORT $LN2@GCDialogIn

; 521  : 				{
; 522  : 					pMsg.RewardWCoin = ritem.WcoinC;

  015c5	8b 45 c8	 mov	 eax, DWORD PTR _ritem$231845[ebp]
  015c8	8b 48 04	 mov	 ecx, DWORD PTR [eax+4]
  015cb	89 4d f0	 mov	 DWORD PTR _pMsg$[ebp+24], ecx
$LN2@GCDialogIn:

; 523  : 				}
; 524  : 				if(ritem.Credit > 0)

  015ce	8b 45 c8	 mov	 eax, DWORD PTR _ritem$231845[ebp]
  015d1	83 78 08 00	 cmp	 DWORD PTR [eax+8], 0
  015d5	7e 09		 jle	 SHORT $LN3@GCDialogIn

; 525  : 				{
; 526  : 					pMsg.RewardCredit = ritem.Credit;

  015d7	8b 45 c8	 mov	 eax, DWORD PTR _ritem$231845[ebp]
  015da	8b 48 08	 mov	 ecx, DWORD PTR [eax+8]
  015dd	89 4d f4	 mov	 DWORD PTR _pMsg$[ebp+28], ecx
$LN3@GCDialogIn:

; 527  : 				}
; 528  : 			}
; 529  : 		}

  015e0	eb 96		 jmp	 SHORT $LN5@GCDialogIn
$LN8@GCDialogIn:

; 530  : 	}
; 531  : 
; 532  : 	DataSend(aIndex, (LPBYTE)&pMsg, pMsg.h.size);

  015e2	0f b6 45 d9	 movzx	 eax, BYTE PTR _pMsg$[ebp+1]
  015e6	50		 push	 eax
  015e7	8d 4d d8	 lea	 ecx, DWORD PTR _pMsg$[ebp]
  015ea	51		 push	 ecx
  015eb	8b 55 08	 mov	 edx, DWORD PTR _aIndex$[ebp]
  015ee	52		 push	 edx
  015ef	e8 00 00 00 00	 call	 ?DataSend@@YAHHPAEK@Z	; DataSend
  015f4	83 c4 0c	 add	 esp, 12			; 0000000cH
$LN36@GCDialogIn:

; 533  : }

  015f7	5f		 pop	 edi
  015f8	5e		 pop	 esi
  015f9	5b		 pop	 ebx
  015fa	8b 4d fc	 mov	 ecx, DWORD PTR __$ArrayPad$[ebp]
  015fd	33 cd		 xor	 ecx, ebp
  015ff	e8 00 00 00 00	 call	 @__security_check_cookie@4
  01604	8b e5		 mov	 esp, ebp
  01606	5d		 pop	 ebp
  01607	c2 04 00	 ret	 4
  0160a	8b ff		 npad	 2
$LN38@GCDialogIn:
  0160c	00 00 00 00	 DD	 $LN15@GCDialogIn
  01610	00 00 00 00	 DD	 $LN14@GCDialogIn
  01614	00 00 00 00	 DD	 $LN13@GCDialogIn
  01618	00 00 00 00	 DD	 $LN12@GCDialogIn
  0161c	00 00 00 00	 DD	 $LN11@GCDialogIn
  01620	00 00 00 00	 DD	 $LN10@GCDialogIn
  01624	00 00 00 00	 DD	 $LN9@GCDialogIn
?GCDialogInfo@cGrandReset@@QAEXH@Z ENDP			; cGrandReset::GCDialogInfo
; Function compile flags: /Odtp /ZI
; File d:\projects\exteam6.3\source\gameserver\include\prodef.h
_TEXT	ENDS
;	COMDAT ?set@PBMSG_HEAD2@@QAEXPAEEEE@Z
_TEXT	SEGMENT
_this$ = -4						; size = 4
_lpBuf$ = 8						; size = 4
_head$ = 12						; size = 1
_sub$ = 16						; size = 1
_size$ = 20						; size = 1
?set@PBMSG_HEAD2@@QAEXPAEEEE@Z PROC			; PBMSG_HEAD2::set, COMDAT
; _this$ = ecx

; 104  : 	{

  00000	55		 push	 ebp
  00001	8b ec		 mov	 ebp, esp
  00003	83 ec 44	 sub	 esp, 68			; 00000044H
  00006	53		 push	 ebx
  00007	56		 push	 esi
  00008	57		 push	 edi
  00009	89 4d fc	 mov	 DWORD PTR _this$[ebp], ecx

; 105  : 		lpBuf[0] = 0xC1;

  0000c	8b 45 08	 mov	 eax, DWORD PTR _lpBuf$[ebp]
  0000f	c6 00 c1	 mov	 BYTE PTR [eax], 193	; 000000c1H

; 106  : 		lpBuf[1] = size;

  00012	8b 45 08	 mov	 eax, DWORD PTR _lpBuf$[ebp]
  00015	8a 4d 14	 mov	 cl, BYTE PTR _size$[ebp]
  00018	88 48 01	 mov	 BYTE PTR [eax+1], cl

; 107  : 		lpBuf[2] = head;

  0001b	8b 45 08	 mov	 eax, DWORD PTR _lpBuf$[ebp]
  0001e	8a 4d 0c	 mov	 cl, BYTE PTR _head$[ebp]
  00021	88 48 02	 mov	 BYTE PTR [eax+2], cl

; 108  : 		lpBuf[3] = sub;

  00024	8b 45 08	 mov	 eax, DWORD PTR _lpBuf$[ebp]
  00027	8a 4d 10	 mov	 cl, BYTE PTR _sub$[ebp]
  0002a	88 48 03	 mov	 BYTE PTR [eax+3], cl

; 109  : 	};

  0002d	5f		 pop	 edi
  0002e	5e		 pop	 esi
  0002f	5b		 pop	 ebx
  00030	8b e5		 mov	 esp, ebp
  00032	5d		 pop	 ebp
  00033	c2 10 00	 ret	 16			; 00000010H
?set@PBMSG_HEAD2@@QAEXPAEEEE@Z ENDP			; PBMSG_HEAD2::set
_TEXT	ENDS
PUBLIC	??_C@_0CK@FCBCNAMG@?$FLGReset?$FN?3?5You?5need?5above?5?$CFd?5Zen?5@ ; `string'
PUBLIC	??_C@_0CM@HPMBDCHP@?$FLGReset?$FN?3?5You?5need?5above?5?$CFd?5Leve@ ; `string'
PUBLIC	??_C@_0CM@DHNDAPCF@?$FLGReset?$FN?3?5You?5need?5above?5?$CFd?5Rese@ ; `string'
PUBLIC	??_C@_0BN@NFJAONJC@?$FLGReset?$FN?3?5Max?5Grand?5Reset?5?$CFd?$AA@ ; `string'
PUBLIC	?CGGrandStart@cGrandReset@@QAEXH@Z		; cGrandReset::CGGrandStart
EXTRN	?ItemSerialCreateSend@@YAXHEEEHEEEEEHEE@Z:PROC	; ItemSerialCreateSend
;	COMDAT ??_C@_0CK@FCBCNAMG@?$FLGReset?$FN?3?5You?5need?5above?5?$CFd?5Zen?5@
; File d:\projects\exteam6.3\source\gameserver\gameserver\grandreset.cpp
CONST	SEGMENT
??_C@_0CK@FCBCNAMG@?$FLGReset?$FN?3?5You?5need?5above?5?$CFd?5Zen?5@ DB '['
	DB	'GReset]: You need above %d Zen to GReset', 00H ; `string'
CONST	ENDS
;	COMDAT ??_C@_0CM@HPMBDCHP@?$FLGReset?$FN?3?5You?5need?5above?5?$CFd?5Leve@
CONST	SEGMENT
??_C@_0CM@HPMBDCHP@?$FLGReset?$FN?3?5You?5need?5above?5?$CFd?5Leve@ DB '['
	DB	'GReset]: You need above %d Level to GReset', 00H ; `string'
CONST	ENDS
;	COMDAT ??_C@_0CM@DHNDAPCF@?$FLGReset?$FN?3?5You?5need?5above?5?$CFd?5Rese@
CONST	SEGMENT
??_C@_0CM@DHNDAPCF@?$FLGReset?$FN?3?5You?5need?5above?5?$CFd?5Rese@ DB '['
	DB	'GReset]: You need above %d Reset to GReset', 00H ; `string'
CONST	ENDS
;	COMDAT ??_C@_0BN@NFJAONJC@?$FLGReset?$FN?3?5Max?5Grand?5Reset?5?$CFd?$AA@
CONST	SEGMENT
??_C@_0BN@NFJAONJC@?$FLGReset?$FN?3?5Max?5Grand?5Reset?5?$CFd?$AA@ DB '[G'
	DB	'Reset]: Max Grand Reset %d', 00H		; `string'
; Function compile flags: /Odtp /ZI
CONST	ENDS
_TEXT	SEGMENT
tv959 = -92						; size = 4
tv945 = -92						; size = 4
tv931 = -92						; size = 4
tv917 = -92						; size = 4
tv954 = -88						; size = 4
tv940 = -88						; size = 4
tv926 = -88						; size = 4
tv912 = -88						; size = 4
tv246 = -88						; size = 4
tv144 = -88						; size = 4
_ritem$231910 = -20					; size = 4
_i$231906 = -16						; size = 4
_ZenMoney$ = -12					; size = 4
_lpObj$ = -8						; size = 4
_this$ = -4						; size = 4
_aIndex$ = 8						; size = 4
?CGGrandStart@cGrandReset@@QAEXH@Z PROC			; cGrandReset::CGGrandStart
; _this$ = ecx

; 536  : {

  01630	55		 push	 ebp
  01631	8b ec		 mov	 ebp, esp
  01633	83 ec 5c	 sub	 esp, 92			; 0000005cH
  01636	53		 push	 ebx
  01637	56		 push	 esi
  01638	57		 push	 edi
  01639	89 4d fc	 mov	 DWORD PTR _this$[ebp], ecx

; 537  : 	if(!this->EnableGrandResetSystem)

  0163c	8b 45 fc	 mov	 eax, DWORD PTR _this$[ebp]
  0163f	83 38 00	 cmp	 DWORD PTR [eax], 0
  01642	75 05		 jne	 SHORT $LN51@CGGrandSta

; 538  : 		return;

  01644	e9 15 0b 00 00	 jmp	 $LN52@CGGrandSta
$LN51@CGGrandSta:

; 539  : 
; 540  : 	LPOBJ lpObj = &gObj[aIndex];

  01649	8b 45 08	 mov	 eax, DWORD PTR _aIndex$[ebp]
  0164c	69 c0 38 2b 00
	00		 imul	 eax, 11064		; 00002b38H
  01652	03 05 00 00 00
	00		 add	 eax, DWORD PTR ?gObj@@3PAUOBJECTSTRUCT@@A ; gObj
  01658	89 45 f8	 mov	 DWORD PTR _lpObj$[ebp], eax

; 541  : 
; 542  : 	if ( (GetTickCount() - lpObj->MySelfDefenseTime ) < 60000)

  0165b	ff 15 00 00 00
	00		 call	 DWORD PTR __imp__GetTickCount@0
  01661	8b 4d f8	 mov	 ecx, DWORD PTR _lpObj$[ebp]
  01664	2b 81 1c 04 00
	00		 sub	 eax, DWORD PTR [ecx+1052]
  0166a	3d 60 ea 00 00	 cmp	 eax, 60000		; 0000ea60H
  0166f	73 36		 jae	 SHORT $LN50@CGGrandSta

; 543  : 	{
; 544  : 		GCServerMsgStringSend(lMsg.Get(MSGGET(4, 109)), lpObj->m_Index, 1);

  01671	6a 01		 push	 1
  01673	8b 45 f8	 mov	 eax, DWORD PTR _lpObj$[ebp]
  01676	8b 08		 mov	 ecx, DWORD PTR [eax]
  01678	51		 push	 ecx
  01679	68 6d 04 00 00	 push	 1133			; 0000046dH
  0167e	b9 00 00 00 00	 mov	 ecx, OFFSET ?lMsg@@3VCMsg@@A ; lMsg
  01683	e8 00 00 00 00	 call	 ?Get@CMsg@@QAEPADH@Z	; CMsg::Get
  01688	50		 push	 eax
  01689	e8 00 00 00 00	 call	 ?GCServerMsgStringSend@@YAXPADHE@Z ; GCServerMsgStringSend
  0168e	83 c4 0c	 add	 esp, 12			; 0000000cH

; 545  : 		GCCloseMsgSend(aIndex,-1); //Season 2.5 add-on

  01691	68 ff 00 00 00	 push	 255			; 000000ffH
  01696	8b 45 08	 mov	 eax, DWORD PTR _aIndex$[ebp]
  01699	50		 push	 eax
  0169a	e8 00 00 00 00	 call	 ?GCCloseMsgSend@@YAXHE@Z ; GCCloseMsgSend
  0169f	83 c4 08	 add	 esp, 8

; 546  : 		return;

  016a2	e9 b7 0a 00 00	 jmp	 $LN52@CGGrandSta
$LN50@CGGrandSta:

; 547  : 	}
; 548  : 
; 549  : 	if(lpObj->SkillRecallParty_Time != 0)

  016a7	8b 45 f8	 mov	 eax, DWORD PTR _lpObj$[ebp]
  016aa	0f b7 88 74 12
	00 00		 movzx	 ecx, WORD PTR [eax+4724]
  016b1	85 c9		 test	 ecx, ecx
  016b3	74 05		 je	 SHORT $LN49@CGGrandSta

; 550  : 	{
; 551  : 		return;

  016b5	e9 a4 0a 00 00	 jmp	 $LN52@CGGrandSta
$LN49@CGGrandSta:

; 552  : 	}
; 553  : 
; 554  : 	if(gMoveCommand.CheckInterfaceToMove(lpObj) == 0)

  016ba	8b 45 f8	 mov	 eax, DWORD PTR _lpObj$[ebp]
  016bd	50		 push	 eax
  016be	b9 00 00 00 00	 mov	 ecx, OFFSET ?gMoveCommand@@3VCMoveCommand@@A ; gMoveCommand
  016c3	e8 00 00 00 00	 call	 ?CheckInterfaceToMove@CMoveCommand@@QAEHPAUOBJECTSTRUCT@@@Z ; CMoveCommand::CheckInterfaceToMove
  016c8	85 c0		 test	 eax, eax
  016ca	75 1a		 jne	 SHORT $LN48@CGGrandSta

; 555  : 	{
; 556  : 		GCServerMsgStringSend("[GReset]: Interface Disable",lpObj->m_Index,1);

  016cc	6a 01		 push	 1
  016ce	8b 45 f8	 mov	 eax, DWORD PTR _lpObj$[ebp]
  016d1	8b 08		 mov	 ecx, DWORD PTR [eax]
  016d3	51		 push	 ecx
  016d4	68 00 00 00 00	 push	 OFFSET ??_C@_0BM@CCOFCGNI@?$FLGReset?$FN?3?5Interface?5Disable?$AA@
  016d9	e8 00 00 00 00	 call	 ?GCServerMsgStringSend@@YAXPADHE@Z ; GCServerMsgStringSend
  016de	83 c4 0c	 add	 esp, 12			; 0000000cH

; 557  : 		return;

  016e1	e9 78 0a 00 00	 jmp	 $LN52@CGGrandSta
$LN48@CGGrandSta:

; 558  : 	}
; 559  : 
; 560  : 	//Проверка на максимальное количество ресетов
; 561  : 	if(lpObj->GReset >= this->MaxGrandRes)

  016e6	8b 45 f8	 mov	 eax, DWORD PTR _lpObj$[ebp]
  016e9	8b 4d fc	 mov	 ecx, DWORD PTR _this$[ebp]
  016ec	8b 90 94 22 00
	00		 mov	 edx, DWORD PTR [eax+8852]
  016f2	3b 51 04	 cmp	 edx, DWORD PTR [ecx+4]
  016f5	7c 1d		 jl	 SHORT $LN47@CGGrandSta

; 562  : 	{
; 563  : 		MsgNormal(aIndex,"[GReset]: Max Grand Reset %d",this->MaxGrandRes);

  016f7	8b 45 fc	 mov	 eax, DWORD PTR _this$[ebp]
  016fa	8b 48 04	 mov	 ecx, DWORD PTR [eax+4]
  016fd	51		 push	 ecx
  016fe	68 00 00 00 00	 push	 OFFSET ??_C@_0BN@NFJAONJC@?$FLGReset?$FN?3?5Max?5Grand?5Reset?5?$CFd?$AA@
  01703	8b 55 08	 mov	 edx, DWORD PTR _aIndex$[ebp]
  01706	52		 push	 edx
  01707	e8 00 00 00 00	 call	 ?MsgNormal@@YAXHPADZZ	; MsgNormal
  0170c	83 c4 0c	 add	 esp, 12			; 0000000cH

; 564  : 		return;

  0170f	e9 4a 0a 00 00	 jmp	 $LN52@CGGrandSta
$LN47@CGGrandSta:

; 565  : 	}
; 566  : 	
; 567  : 	//Проверка на Ресет
; 568  : 	if(this->NeedRes > lpObj->Reset)

  01714	8b 45 fc	 mov	 eax, DWORD PTR _this$[ebp]
  01717	8b 4d f8	 mov	 ecx, DWORD PTR _lpObj$[ebp]
  0171a	8b 50 10	 mov	 edx, DWORD PTR [eax+16]
  0171d	3b 91 90 22 00
	00		 cmp	 edx, DWORD PTR [ecx+8848]
  01723	7e 1d		 jle	 SHORT $LN46@CGGrandSta

; 569  : 	{
; 570  : 		MsgNormal(aIndex,"[GReset]: You need above %d Reset to GReset",this->NeedRes);

  01725	8b 45 fc	 mov	 eax, DWORD PTR _this$[ebp]
  01728	8b 48 10	 mov	 ecx, DWORD PTR [eax+16]
  0172b	51		 push	 ecx
  0172c	68 00 00 00 00	 push	 OFFSET ??_C@_0CM@DHNDAPCF@?$FLGReset?$FN?3?5You?5need?5above?5?$CFd?5Rese@
  01731	8b 55 08	 mov	 edx, DWORD PTR _aIndex$[ebp]
  01734	52		 push	 edx
  01735	e8 00 00 00 00	 call	 ?MsgNormal@@YAXHPADZZ	; MsgNormal
  0173a	83 c4 0c	 add	 esp, 12			; 0000000cH

; 571  : 		return;

  0173d	e9 1c 0a 00 00	 jmp	 $LN52@CGGrandSta
$LN46@CGGrandSta:

; 572  : 	}
; 573  : 	//Проверка на уровень
; 574  : 	if(this->NeedLevel > lpObj->Level)

  01742	8b 45 f8	 mov	 eax, DWORD PTR _lpObj$[ebp]
  01745	0f bf 88 be 00
	00 00		 movsx	 ecx, WORD PTR [eax+190]
  0174c	8b 55 fc	 mov	 edx, DWORD PTR _this$[ebp]
  0174f	39 4a 14	 cmp	 DWORD PTR [edx+20], ecx
  01752	7e 1d		 jle	 SHORT $LN45@CGGrandSta

; 575  : 	{
; 576  : 		MsgNormal(aIndex,"[GReset]: You need above %d Level to GReset",this->NeedLevel);

  01754	8b 45 fc	 mov	 eax, DWORD PTR _this$[ebp]
  01757	8b 48 14	 mov	 ecx, DWORD PTR [eax+20]
  0175a	51		 push	 ecx
  0175b	68 00 00 00 00	 push	 OFFSET ??_C@_0CM@HPMBDCHP@?$FLGReset?$FN?3?5You?5need?5above?5?$CFd?5Leve@
  01760	8b 55 08	 mov	 edx, DWORD PTR _aIndex$[ebp]
  01763	52		 push	 edx
  01764	e8 00 00 00 00	 call	 ?MsgNormal@@YAXHPADZZ	; MsgNormal
  01769	83 c4 0c	 add	 esp, 12			; 0000000cH

; 577  : 		return;

  0176c	e9 ed 09 00 00	 jmp	 $LN52@CGGrandSta
$LN45@CGGrandSta:

; 578  : 	}
; 579  : 	int ZenMoney = 0;

  01771	c7 45 f4 00 00
	00 00		 mov	 DWORD PTR _ZenMoney$[ebp], 0

; 580  : 	//Проверка на зен
; 581  : 	switch(this->ZenForm)

  01778	8b 45 fc	 mov	 eax, DWORD PTR _this$[ebp]
  0177b	8b 48 08	 mov	 ecx, DWORD PTR [eax+8]
  0177e	89 4d a8	 mov	 DWORD PTR tv144[ebp], ecx
  01781	83 7d a8 01	 cmp	 DWORD PTR tv144[ebp], 1
  01785	74 08		 je	 SHORT $LN42@CGGrandSta
  01787	83 7d a8 02	 cmp	 DWORD PTR tv144[ebp], 2
  0178b	74 1a		 je	 SHORT $LN41@CGGrandSta
  0178d	eb 21		 jmp	 SHORT $LN43@CGGrandSta
$LN42@CGGrandSta:

; 582  : 	{
; 583  : 		case 1: ZenMoney = this->NeedZen * ( lpObj->GReset + 1 ); break;

  0178f	8b 45 f8	 mov	 eax, DWORD PTR _lpObj$[ebp]
  01792	8b 88 94 22 00
	00		 mov	 ecx, DWORD PTR [eax+8852]
  01798	83 c1 01	 add	 ecx, 1
  0179b	8b 55 fc	 mov	 edx, DWORD PTR _this$[ebp]
  0179e	0f af 4a 0c	 imul	 ecx, DWORD PTR [edx+12]
  017a2	89 4d f4	 mov	 DWORD PTR _ZenMoney$[ebp], ecx
  017a5	eb 09		 jmp	 SHORT $LN43@CGGrandSta
$LN41@CGGrandSta:

; 584  : 		case 2: ZenMoney = this->NeedZen; break;

  017a7	8b 45 fc	 mov	 eax, DWORD PTR _this$[ebp]
  017aa	8b 48 0c	 mov	 ecx, DWORD PTR [eax+12]
  017ad	89 4d f4	 mov	 DWORD PTR _ZenMoney$[ebp], ecx
$LN43@CGGrandSta:

; 585  : 	}
; 586  : 	
; 587  : 	if(this->ZenForm != 0)

  017b0	8b 45 fc	 mov	 eax, DWORD PTR _this$[ebp]
  017b3	83 78 08 00	 cmp	 DWORD PTR [eax+8], 0
  017b7	74 28		 je	 SHORT $LN39@CGGrandSta

; 588  : 	{
; 589  : 		if(lpObj->Money < ZenMoney)

  017b9	8b 45 f8	 mov	 eax, DWORD PTR _lpObj$[ebp]
  017bc	8b 88 f0 00 00
	00		 mov	 ecx, DWORD PTR [eax+240]
  017c2	3b 4d f4	 cmp	 ecx, DWORD PTR _ZenMoney$[ebp]
  017c5	7d 1a		 jge	 SHORT $LN39@CGGrandSta

; 590  : 		{
; 591  : 			MsgNormal(aIndex,"[GReset]: You need above %d Zen to GReset",ZenMoney);

  017c7	8b 45 f4	 mov	 eax, DWORD PTR _ZenMoney$[ebp]
  017ca	50		 push	 eax
  017cb	68 00 00 00 00	 push	 OFFSET ??_C@_0CK@FCBCNAMG@?$FLGReset?$FN?3?5You?5need?5above?5?$CFd?5Zen?5@
  017d0	8b 4d 08	 mov	 ecx, DWORD PTR _aIndex$[ebp]
  017d3	51		 push	 ecx
  017d4	e8 00 00 00 00	 call	 ?MsgNormal@@YAXHPADZZ	; MsgNormal
  017d9	83 c4 0c	 add	 esp, 12			; 0000000cH

; 592  : 			return;

  017dc	e9 7d 09 00 00	 jmp	 $LN52@CGGrandSta
$LN39@CGGrandSta:

; 593  : 		}
; 594  : 	}
; 595  : 	//Проверка на пустой инвентарь
; 596  : 	if(this->NeedEmptyInv)

  017e1	8b 45 fc	 mov	 eax, DWORD PTR _this$[ebp]
  017e4	83 78 38 00	 cmp	 DWORD PTR [eax+56], 0
  017e8	0f 84 23 01 00
	00		 je	 $LN37@CGGrandSta

; 597  : 	{
; 598  : 		if(lpObj->pInventory[0].m_Type != -1 || lpObj->pInventory[1].m_Type != -1 || lpObj->pInventory[2].m_Type != -1 ||
; 599  : 		   lpObj->pInventory[3].m_Type != -1 || lpObj->pInventory[4].m_Type != -1 || lpObj->pInventory[5].m_Type != -1 ||
; 600  : 		   lpObj->pInventory[6].m_Type != -1 || lpObj->pInventory[7].m_Type != -1 || lpObj->pInventory[8].m_Type != -1 ||
; 601  : 		   lpObj->pInventory[9].m_Type != -1 || lpObj->pInventory[10].m_Type != -1|| lpObj->pInventory[11].m_Type != -1)

  017ee	8b 45 f8	 mov	 eax, DWORD PTR _lpObj$[ebp]
  017f1	8b 88 24 0e 00
	00		 mov	 ecx, DWORD PTR [eax+3620]
  017f7	0f bf 51 06	 movsx	 edx, WORD PTR [ecx+6]
  017fb	83 fa ff	 cmp	 edx, -1
  017fe	0f 85 f7 00 00
	00		 jne	 $LN36@CGGrandSta
  01804	8b 45 f8	 mov	 eax, DWORD PTR _lpObj$[ebp]
  01807	8b 88 24 0e 00
	00		 mov	 ecx, DWORD PTR [eax+3620]
  0180d	0f bf 91 da 00
	00 00		 movsx	 edx, WORD PTR [ecx+218]
  01814	83 fa ff	 cmp	 edx, -1
  01817	0f 85 de 00 00
	00		 jne	 $LN36@CGGrandSta
  0181d	8b 45 f8	 mov	 eax, DWORD PTR _lpObj$[ebp]
  01820	8b 88 24 0e 00
	00		 mov	 ecx, DWORD PTR [eax+3620]
  01826	0f bf 91 ae 01
	00 00		 movsx	 edx, WORD PTR [ecx+430]
  0182d	83 fa ff	 cmp	 edx, -1
  01830	0f 85 c5 00 00
	00		 jne	 $LN36@CGGrandSta
  01836	8b 45 f8	 mov	 eax, DWORD PTR _lpObj$[ebp]
  01839	8b 88 24 0e 00
	00		 mov	 ecx, DWORD PTR [eax+3620]
  0183f	0f bf 91 82 02
	00 00		 movsx	 edx, WORD PTR [ecx+642]
  01846	83 fa ff	 cmp	 edx, -1
  01849	0f 85 ac 00 00
	00		 jne	 $LN36@CGGrandSta
  0184f	8b 45 f8	 mov	 eax, DWORD PTR _lpObj$[ebp]
  01852	8b 88 24 0e 00
	00		 mov	 ecx, DWORD PTR [eax+3620]
  01858	0f bf 91 56 03
	00 00		 movsx	 edx, WORD PTR [ecx+854]
  0185f	83 fa ff	 cmp	 edx, -1
  01862	0f 85 93 00 00
	00		 jne	 $LN36@CGGrandSta
  01868	8b 45 f8	 mov	 eax, DWORD PTR _lpObj$[ebp]
  0186b	8b 88 24 0e 00
	00		 mov	 ecx, DWORD PTR [eax+3620]
  01871	0f bf 91 2a 04
	00 00		 movsx	 edx, WORD PTR [ecx+1066]
  01878	83 fa ff	 cmp	 edx, -1
  0187b	75 7e		 jne	 SHORT $LN36@CGGrandSta
  0187d	8b 45 f8	 mov	 eax, DWORD PTR _lpObj$[ebp]
  01880	8b 88 24 0e 00
	00		 mov	 ecx, DWORD PTR [eax+3620]
  01886	0f bf 91 fe 04
	00 00		 movsx	 edx, WORD PTR [ecx+1278]
  0188d	83 fa ff	 cmp	 edx, -1
  01890	75 69		 jne	 SHORT $LN36@CGGrandSta
  01892	8b 45 f8	 mov	 eax, DWORD PTR _lpObj$[ebp]
  01895	8b 88 24 0e 00
	00		 mov	 ecx, DWORD PTR [eax+3620]
  0189b	0f bf 91 d2 05
	00 00		 movsx	 edx, WORD PTR [ecx+1490]
  018a2	83 fa ff	 cmp	 edx, -1
  018a5	75 54		 jne	 SHORT $LN36@CGGrandSta
  018a7	8b 45 f8	 mov	 eax, DWORD PTR _lpObj$[ebp]
  018aa	8b 88 24 0e 00
	00		 mov	 ecx, DWORD PTR [eax+3620]
  018b0	0f bf 91 a6 06
	00 00		 movsx	 edx, WORD PTR [ecx+1702]
  018b7	83 fa ff	 cmp	 edx, -1
  018ba	75 3f		 jne	 SHORT $LN36@CGGrandSta
  018bc	8b 45 f8	 mov	 eax, DWORD PTR _lpObj$[ebp]
  018bf	8b 88 24 0e 00
	00		 mov	 ecx, DWORD PTR [eax+3620]
  018c5	0f bf 91 7a 07
	00 00		 movsx	 edx, WORD PTR [ecx+1914]
  018cc	83 fa ff	 cmp	 edx, -1
  018cf	75 2a		 jne	 SHORT $LN36@CGGrandSta
  018d1	8b 45 f8	 mov	 eax, DWORD PTR _lpObj$[ebp]
  018d4	8b 88 24 0e 00
	00		 mov	 ecx, DWORD PTR [eax+3620]
  018da	0f bf 91 4e 08
	00 00		 movsx	 edx, WORD PTR [ecx+2126]
  018e1	83 fa ff	 cmp	 edx, -1
  018e4	75 15		 jne	 SHORT $LN36@CGGrandSta
  018e6	8b 45 f8	 mov	 eax, DWORD PTR _lpObj$[ebp]
  018e9	8b 88 24 0e 00
	00		 mov	 ecx, DWORD PTR [eax+3620]
  018ef	0f bf 91 22 09
	00 00		 movsx	 edx, WORD PTR [ecx+2338]
  018f6	83 fa ff	 cmp	 edx, -1
  018f9	74 16		 je	 SHORT $LN37@CGGrandSta
$LN36@CGGrandSta:

; 602  : 		{
; 603  : 			MsgNormal(aIndex,"[GReset]: You need Empty Inventory to GReset");

  018fb	68 00 00 00 00	 push	 OFFSET ??_C@_0CN@NMLOMMO@?$FLGReset?$FN?3?5You?5need?5Empty?5Invento@
  01900	8b 45 08	 mov	 eax, DWORD PTR _aIndex$[ebp]
  01903	50		 push	 eax
  01904	e8 00 00 00 00	 call	 ?MsgNormal@@YAXHPADZZ	; MsgNormal
  01909	83 c4 08	 add	 esp, 8

; 604  : 			return;

  0190c	e9 4d 08 00 00	 jmp	 $LN52@CGGrandSta
$LN37@CGGrandSta:

; 605  : 		}
; 606  : 	}
; 607  : 	/////////////////////
; 608  : 	//Выполнение Гранд ресета//
; 609  : 	/////////////////////
; 610  : 	lpObj->Money -= ZenMoney;

  01911	8b 45 f8	 mov	 eax, DWORD PTR _lpObj$[ebp]
  01914	8b 88 f0 00 00
	00		 mov	 ecx, DWORD PTR [eax+240]
  0191a	2b 4d f4	 sub	 ecx, DWORD PTR _ZenMoney$[ebp]
  0191d	8b 55 f8	 mov	 edx, DWORD PTR _lpObj$[ebp]
  01920	89 8a f0 00 00
	00		 mov	 DWORD PTR [edx+240], ecx

; 611  : 	lpObj->Level = 1;

  01926	b8 01 00 00 00	 mov	 eax, 1
  0192b	8b 4d f8	 mov	 ecx, DWORD PTR _lpObj$[ebp]
  0192e	66 89 81 be 00
	00 00		 mov	 WORD PTR [ecx+190], ax

; 612  : 	lpObj->Experience = 0;

  01935	8b 45 f8	 mov	 eax, DWORD PTR _lpObj$[ebp]
  01938	c7 80 c8 00 00
	00 00 00 00 00	 mov	 DWORD PTR [eax+200], 0

; 613  : 	lpObj->NextExp = 100;

  01942	8b 45 f8	 mov	 eax, DWORD PTR _lpObj$[ebp]
  01945	c7 80 cc 00 00
	00 64 00 00 00	 mov	 DWORD PTR [eax+204], 100 ; 00000064H

; 614  : 	if(this->AddForm == 2 || this->AddForm == 3)

  0194f	8b 45 fc	 mov	 eax, DWORD PTR _this$[ebp]
  01952	83 78 18 02	 cmp	 DWORD PTR [eax+24], 2
  01956	74 09		 je	 SHORT $LN34@CGGrandSta
  01958	8b 45 fc	 mov	 eax, DWORD PTR _this$[ebp]
  0195b	83 78 18 03	 cmp	 DWORD PTR [eax+24], 3
  0195f	75 5a		 jne	 SHORT $LN33@CGGrandSta
$LN34@CGGrandSta:

; 615  : 	{
; 616  : 		lpObj->Strength = 25;

  01961	b8 19 00 00 00	 mov	 eax, 25			; 00000019H
  01966	8b 4d f8	 mov	 ecx, DWORD PTR _lpObj$[ebp]
  01969	66 89 81 f4 00
	00 00		 mov	 WORD PTR [ecx+244], ax

; 617  : 		lpObj->Dexterity = 25;

  01970	b8 19 00 00 00	 mov	 eax, 25			; 00000019H
  01975	8b 4d f8	 mov	 ecx, DWORD PTR _lpObj$[ebp]
  01978	66 89 81 f6 00
	00 00		 mov	 WORD PTR [ecx+246], ax

; 618  : 		lpObj->Vitality = 25;

  0197f	b8 19 00 00 00	 mov	 eax, 25			; 00000019H
  01984	8b 4d f8	 mov	 ecx, DWORD PTR _lpObj$[ebp]
  01987	66 89 81 f8 00
	00 00		 mov	 WORD PTR [ecx+248], ax

; 619  : 		lpObj->Energy = 25;

  0198e	b8 19 00 00 00	 mov	 eax, 25			; 00000019H
  01993	8b 4d f8	 mov	 ecx, DWORD PTR _lpObj$[ebp]
  01996	66 89 81 fa 00
	00 00		 mov	 WORD PTR [ecx+250], ax

; 620  : 		if(lpObj->Class == 4)

  0199d	8b 45 f8	 mov	 eax, DWORD PTR _lpObj$[ebp]
  019a0	0f b7 88 b8 00
	00 00		 movzx	 ecx, WORD PTR [eax+184]
  019a7	83 f9 04	 cmp	 ecx, 4
  019aa	75 0f		 jne	 SHORT $LN33@CGGrandSta

; 621  : 		{
; 622  : 			lpObj->Leadership = 25;

  019ac	b8 19 00 00 00	 mov	 eax, 25			; 00000019H
  019b1	8b 4d f8	 mov	 ecx, DWORD PTR _lpObj$[ebp]
  019b4	66 89 81 18 01
	00 00		 mov	 WORD PTR [ecx+280], ax
$LN33@CGGrandSta:

; 623  : 		}
; 624  : 	}
; 625  : 	//Поинта за гранд ресет
; 626  : 	if(this->AddForm == 1 || this->AddForm == 2)

  019bb	8b 45 fc	 mov	 eax, DWORD PTR _this$[ebp]
  019be	83 78 18 01	 cmp	 DWORD PTR [eax+24], 1
  019c2	74 0d		 je	 SHORT $LN31@CGGrandSta
  019c4	8b 45 fc	 mov	 eax, DWORD PTR _this$[ebp]
  019c7	83 78 18 02	 cmp	 DWORD PTR [eax+24], 2
  019cb	0f 85 f7 00 00
	00		 jne	 $LN29@CGGrandSta
$LN31@CGGrandSta:

; 627  : 	{
; 628  : 		switch (lpObj->Class)

  019d1	8b 45 f8	 mov	 eax, DWORD PTR _lpObj$[ebp]
  019d4	0f b7 88 b8 00
	00 00		 movzx	 ecx, WORD PTR [eax+184]
  019db	89 4d a8	 mov	 DWORD PTR tv246[ebp], ecx
  019de	83 7d a8 06	 cmp	 DWORD PTR tv246[ebp], 6
  019e2	0f 87 e0 00 00
	00		 ja	 $LN29@CGGrandSta
  019e8	8b 55 a8	 mov	 edx, DWORD PTR tv246[ebp]
  019eb	ff 24 95 00 00
	00 00		 jmp	 DWORD PTR $LN54@CGGrandSta[edx*4]
$LN28@CGGrandSta:

; 629  : 		{
; 630  : 			case 0: lpObj->LevelUpPoint = ( lpObj->GReset + 1 ) * this->AddPointsDW ;  break;

  019f2	8b 45 f8	 mov	 eax, DWORD PTR _lpObj$[ebp]
  019f5	8b 88 94 22 00
	00		 mov	 ecx, DWORD PTR [eax+8852]
  019fb	83 c1 01	 add	 ecx, 1
  019fe	8b 55 fc	 mov	 edx, DWORD PTR _this$[ebp]
  01a01	0f af 4a 1c	 imul	 ecx, DWORD PTR [edx+28]
  01a05	8b 45 f8	 mov	 eax, DWORD PTR _lpObj$[ebp]
  01a08	89 88 c0 00 00
	00		 mov	 DWORD PTR [eax+192], ecx
  01a0e	e9 b5 00 00 00	 jmp	 $LN29@CGGrandSta
$LN27@CGGrandSta:

; 631  : 			case 1: lpObj->LevelUpPoint = ( lpObj->GReset + 1 ) * this->AddPointsDK ;  break;

  01a13	8b 45 f8	 mov	 eax, DWORD PTR _lpObj$[ebp]
  01a16	8b 88 94 22 00
	00		 mov	 ecx, DWORD PTR [eax+8852]
  01a1c	83 c1 01	 add	 ecx, 1
  01a1f	8b 55 fc	 mov	 edx, DWORD PTR _this$[ebp]
  01a22	0f af 4a 20	 imul	 ecx, DWORD PTR [edx+32]
  01a26	8b 45 f8	 mov	 eax, DWORD PTR _lpObj$[ebp]
  01a29	89 88 c0 00 00
	00		 mov	 DWORD PTR [eax+192], ecx
  01a2f	e9 94 00 00 00	 jmp	 $LN29@CGGrandSta
$LN26@CGGrandSta:

; 632  : 			case 2: lpObj->LevelUpPoint = ( lpObj->GReset + 1 ) * this->AddPointsELF ; break;

  01a34	8b 45 f8	 mov	 eax, DWORD PTR _lpObj$[ebp]
  01a37	8b 88 94 22 00
	00		 mov	 ecx, DWORD PTR [eax+8852]
  01a3d	83 c1 01	 add	 ecx, 1
  01a40	8b 55 fc	 mov	 edx, DWORD PTR _this$[ebp]
  01a43	0f af 4a 24	 imul	 ecx, DWORD PTR [edx+36]
  01a47	8b 45 f8	 mov	 eax, DWORD PTR _lpObj$[ebp]
  01a4a	89 88 c0 00 00
	00		 mov	 DWORD PTR [eax+192], ecx
  01a50	eb 76		 jmp	 SHORT $LN29@CGGrandSta
$LN25@CGGrandSta:

; 633  : 			case 3: lpObj->LevelUpPoint = ( lpObj->GReset + 1 ) * this->AddPointsMG ;  break;

  01a52	8b 45 f8	 mov	 eax, DWORD PTR _lpObj$[ebp]
  01a55	8b 88 94 22 00
	00		 mov	 ecx, DWORD PTR [eax+8852]
  01a5b	83 c1 01	 add	 ecx, 1
  01a5e	8b 55 fc	 mov	 edx, DWORD PTR _this$[ebp]
  01a61	0f af 4a 2c	 imul	 ecx, DWORD PTR [edx+44]
  01a65	8b 45 f8	 mov	 eax, DWORD PTR _lpObj$[ebp]
  01a68	89 88 c0 00 00
	00		 mov	 DWORD PTR [eax+192], ecx
  01a6e	eb 58		 jmp	 SHORT $LN29@CGGrandSta
$LN24@CGGrandSta:

; 634  : 			case 4: lpObj->LevelUpPoint = ( lpObj->GReset + 1 ) * this->AddPointsDL ;  break;

  01a70	8b 45 f8	 mov	 eax, DWORD PTR _lpObj$[ebp]
  01a73	8b 88 94 22 00
	00		 mov	 ecx, DWORD PTR [eax+8852]
  01a79	83 c1 01	 add	 ecx, 1
  01a7c	8b 55 fc	 mov	 edx, DWORD PTR _this$[ebp]
  01a7f	0f af 4a 30	 imul	 ecx, DWORD PTR [edx+48]
  01a83	8b 45 f8	 mov	 eax, DWORD PTR _lpObj$[ebp]
  01a86	89 88 c0 00 00
	00		 mov	 DWORD PTR [eax+192], ecx
  01a8c	eb 3a		 jmp	 SHORT $LN29@CGGrandSta
$LN23@CGGrandSta:

; 635  : 			case 5: lpObj->LevelUpPoint = ( lpObj->GReset + 1 ) * this->AddPointsSUM ; break;

  01a8e	8b 45 f8	 mov	 eax, DWORD PTR _lpObj$[ebp]
  01a91	8b 88 94 22 00
	00		 mov	 ecx, DWORD PTR [eax+8852]
  01a97	83 c1 01	 add	 ecx, 1
  01a9a	8b 55 fc	 mov	 edx, DWORD PTR _this$[ebp]
  01a9d	0f af 4a 28	 imul	 ecx, DWORD PTR [edx+40]
  01aa1	8b 45 f8	 mov	 eax, DWORD PTR _lpObj$[ebp]
  01aa4	89 88 c0 00 00
	00		 mov	 DWORD PTR [eax+192], ecx
  01aaa	eb 1c		 jmp	 SHORT $LN29@CGGrandSta
$LN22@CGGrandSta:

; 636  : 			case 6: lpObj->LevelUpPoint = ( lpObj->GReset + 1 ) * this->AddPointsRF ; break;

  01aac	8b 45 f8	 mov	 eax, DWORD PTR _lpObj$[ebp]
  01aaf	8b 88 94 22 00
	00		 mov	 ecx, DWORD PTR [eax+8852]
  01ab5	83 c1 01	 add	 ecx, 1
  01ab8	8b 55 fc	 mov	 edx, DWORD PTR _this$[ebp]
  01abb	0f af 4a 34	 imul	 ecx, DWORD PTR [edx+52]
  01abf	8b 45 f8	 mov	 eax, DWORD PTR _lpObj$[ebp]
  01ac2	89 88 c0 00 00
	00		 mov	 DWORD PTR [eax+192], ecx
$LN29@CGGrandSta:

; 637  : 		}
; 638  : 	}
; 639  : 	if(this->AddForm == 3)

  01ac8	8b 45 fc	 mov	 eax, DWORD PTR _this$[ebp]
  01acb	83 78 18 03	 cmp	 DWORD PTR [eax+24], 3
  01acf	75 0f		 jne	 SHORT $LN21@CGGrandSta

; 640  : 	{
; 641  : 		lpObj->LevelUpPoint = 0;

  01ad1	8b 45 f8	 mov	 eax, DWORD PTR _lpObj$[ebp]
  01ad4	c7 80 c0 00 00
	00 00 00 00 00	 mov	 DWORD PTR [eax+192], 0

; 642  : 	}
; 643  : 	else

  01ade	eb 1b		 jmp	 SHORT $LN20@CGGrandSta
$LN21@CGGrandSta:

; 644  : 	{
; 645  : 		lpObj->LevelUpPoint += lpObj->ExFreePoints;

  01ae0	8b 45 f8	 mov	 eax, DWORD PTR _lpObj$[ebp]
  01ae3	8b 88 c0 00 00
	00		 mov	 ecx, DWORD PTR [eax+192]
  01ae9	8b 55 f8	 mov	 edx, DWORD PTR _lpObj$[ebp]
  01aec	03 8a 8c 22 00
	00		 add	 ecx, DWORD PTR [edx+8844]
  01af2	8b 45 f8	 mov	 eax, DWORD PTR _lpObj$[ebp]
  01af5	89 88 c0 00 00
	00		 mov	 DWORD PTR [eax+192], ecx
$LN20@CGGrandSta:

; 646  : 	}
; 647  : 	
; 648  : 	lpObj->Reset = 0;

  01afb	8b 45 f8	 mov	 eax, DWORD PTR _lpObj$[ebp]
  01afe	c7 80 90 22 00
	00 00 00 00 00	 mov	 DWORD PTR [eax+8848], 0

; 649  : 	lpObj->GReset += 1;

  01b08	8b 45 f8	 mov	 eax, DWORD PTR _lpObj$[ebp]
  01b0b	8b 88 94 22 00
	00		 mov	 ecx, DWORD PTR [eax+8852]
  01b11	83 c1 01	 add	 ecx, 1
  01b14	8b 55 f8	 mov	 edx, DWORD PTR _lpObj$[ebp]
  01b17	89 8a 94 22 00
	00		 mov	 DWORD PTR [edx+8852], ecx

; 650  : 
; 651  : 	if(this->AddCredits > 0)

  01b1d	8b 45 fc	 mov	 eax, DWORD PTR _this$[ebp]
  01b20	83 78 3c 00	 cmp	 DWORD PTR [eax+60], 0
  01b24	7e 45		 jle	 SHORT $LN17@CGGrandSta

; 652  : 	{
; 653  : 		if(g_ExLicense.CheckUser(eExUB::NSGames))

  01b26	6a 51		 push	 81			; 00000051H
  01b28	b9 00 00 00 00	 mov	 ecx, OFFSET ?g_ExLicense@@3VCExLicense@@A ; g_ExLicense
  01b2d	e8 00 00 00 00	 call	 ?CheckUser@CExLicense@@QAE_NH@Z ; CExLicense::CheckUser
  01b32	0f b6 c0	 movzx	 eax, al
  01b35	85 c0		 test	 eax, eax
  01b37	74 1a		 je	 SHORT $LN18@CGGrandSta

; 654  : 		{
; 655  : 			lpObj->PCPoint += this->AddCredits;	

  01b39	8b 45 f8	 mov	 eax, DWORD PTR _lpObj$[ebp]
  01b3c	8b 88 88 22 00
	00		 mov	 ecx, DWORD PTR [eax+8840]
  01b42	8b 55 fc	 mov	 edx, DWORD PTR _this$[ebp]
  01b45	03 4a 3c	 add	 ecx, DWORD PTR [edx+60]
  01b48	8b 45 f8	 mov	 eax, DWORD PTR _lpObj$[ebp]
  01b4b	89 88 88 22 00
	00		 mov	 DWORD PTR [eax+8840], ecx

; 656  : 		}
; 657  : 		else

  01b51	eb 18		 jmp	 SHORT $LN17@CGGrandSta
$LN18@CGGrandSta:

; 658  : 		{
; 659  : 			lpObj->ExCred += this->AddCredits;		

  01b53	8b 45 fc	 mov	 eax, DWORD PTR _this$[ebp]
  01b56	db 40 3c	 fild	 DWORD PTR [eax+60]
  01b59	8b 4d f8	 mov	 ecx, DWORD PTR _lpObj$[ebp]
  01b5c	d8 81 a8 22 00
	00		 fadd	 DWORD PTR [ecx+8872]
  01b62	8b 55 f8	 mov	 edx, DWORD PTR _lpObj$[ebp]
  01b65	d9 9a a8 22 00
	00		 fstp	 DWORD PTR [edx+8872]
$LN17@CGGrandSta:

; 660  : 		}
; 661  : 	}
; 662  : 
; 663  : 	if(this->AddWcoinC > 0)

  01b6b	8b 45 fc	 mov	 eax, DWORD PTR _this$[ebp]
  01b6e	83 78 40 00	 cmp	 DWORD PTR [eax+64], 0
  01b72	7e 18		 jle	 SHORT $LN16@CGGrandSta

; 664  : 	{
; 665  : 		lpObj->GameShop.WCoinC += this->AddWcoinC;

  01b74	8b 45 fc	 mov	 eax, DWORD PTR _this$[ebp]
  01b77	db 40 40	 fild	 DWORD PTR [eax+64]
  01b7a	8b 4d f8	 mov	 ecx, DWORD PTR _lpObj$[ebp]
  01b7d	dc 81 00 23 00
	00		 fadd	 QWORD PTR [ecx+8960]
  01b83	8b 55 f8	 mov	 edx, DWORD PTR _lpObj$[ebp]
  01b86	dd 9a 00 23 00
	00		 fstp	 QWORD PTR [edx+8960]
$LN16@CGGrandSta:

; 666  : 	}
; 667  : 	if(this->AddWcoinP > 0)

  01b8c	8b 45 fc	 mov	 eax, DWORD PTR _this$[ebp]
  01b8f	83 78 44 00	 cmp	 DWORD PTR [eax+68], 0
  01b93	7e 18		 jle	 SHORT $LN15@CGGrandSta

; 668  : 	{
; 669  : 		lpObj->GameShop.WCoinP += this->AddWcoinP;

  01b95	8b 45 fc	 mov	 eax, DWORD PTR _this$[ebp]
  01b98	db 40 44	 fild	 DWORD PTR [eax+68]
  01b9b	8b 4d f8	 mov	 ecx, DWORD PTR _lpObj$[ebp]
  01b9e	dc 81 f8 22 00
	00		 fadd	 QWORD PTR [ecx+8952]
  01ba4	8b 55 f8	 mov	 edx, DWORD PTR _lpObj$[ebp]
  01ba7	dd 9a f8 22 00
	00		 fstp	 QWORD PTR [edx+8952]
$LN15@CGGrandSta:

; 670  : 	}
; 671  : 	if(this->AddGoblinPoint > 0)

  01bad	8b 45 fc	 mov	 eax, DWORD PTR _this$[ebp]
  01bb0	83 78 48 00	 cmp	 DWORD PTR [eax+72], 0
  01bb4	7e 18		 jle	 SHORT $LN14@CGGrandSta

; 672  : 	{
; 673  : 		lpObj->GameShop.GoblinPoint += this->AddGoblinPoint;

  01bb6	8b 45 fc	 mov	 eax, DWORD PTR _this$[ebp]
  01bb9	db 40 48	 fild	 DWORD PTR [eax+72]
  01bbc	8b 4d f8	 mov	 ecx, DWORD PTR _lpObj$[ebp]
  01bbf	dc 81 08 23 00
	00		 fadd	 QWORD PTR [ecx+8968]
  01bc5	8b 55 f8	 mov	 edx, DWORD PTR _lpObj$[ebp]
  01bc8	dd 9a 08 23 00
	00		 fstp	 QWORD PTR [edx+8968]
$LN14@CGGrandSta:

; 674  : 	}
; 675  : 
; 676  : 	if(this->AddWcoinC > 0 || this->AddWcoinP > 0 || this->AddGoblinPoint > 0)

  01bce	8b 45 fc	 mov	 eax, DWORD PTR _this$[ebp]
  01bd1	83 78 40 00	 cmp	 DWORD PTR [eax+64], 0
  01bd5	7f 12		 jg	 SHORT $LN12@CGGrandSta
  01bd7	8b 45 fc	 mov	 eax, DWORD PTR _this$[ebp]
  01bda	83 78 44 00	 cmp	 DWORD PTR [eax+68], 0
  01bde	7f 09		 jg	 SHORT $LN12@CGGrandSta
  01be0	8b 45 fc	 mov	 eax, DWORD PTR _this$[ebp]
  01be3	83 78 48 00	 cmp	 DWORD PTR [eax+72], 0
  01be7	7e 0e		 jle	 SHORT $LN13@CGGrandSta
$LN12@CGGrandSta:

; 677  : 	{
; 678  : 		gGameShop.GDSaveUserInfo(aIndex);

  01be9	8b 45 08	 mov	 eax, DWORD PTR _aIndex$[ebp]
  01bec	50		 push	 eax
  01bed	b9 00 00 00 00	 mov	 ecx, OFFSET ?gGameShop@@3VGameShop@@A ; gGameShop
  01bf2	e8 00 00 00 00	 call	 ?GDSaveUserInfo@GameShop@@QAEXH@Z ; GameShop::GDSaveUserInfo
$LN13@CGGrandSta:

; 679  : 	}	
; 680  : 
; 681  : 	if(g_ExLicense.CheckUser(eExUB::Local) || g_ExLicense.CheckUser(eExUB::Artem) || g_ExLicense.CheckUser(eExUB::Artem2))

  01bf7	6a 00		 push	 0
  01bf9	b9 00 00 00 00	 mov	 ecx, OFFSET ?g_ExLicense@@3VCExLicense@@A ; g_ExLicense
  01bfe	e8 00 00 00 00	 call	 ?CheckUser@CExLicense@@QAE_NH@Z ; CExLicense::CheckUser
  01c03	0f b6 c0	 movzx	 eax, al
  01c06	85 c0		 test	 eax, eax
  01c08	75 2a		 jne	 SHORT $LN10@CGGrandSta
  01c0a	6a 30		 push	 48			; 00000030H
  01c0c	b9 00 00 00 00	 mov	 ecx, OFFSET ?g_ExLicense@@3VCExLicense@@A ; g_ExLicense
  01c11	e8 00 00 00 00	 call	 ?CheckUser@CExLicense@@QAE_NH@Z ; CExLicense::CheckUser
  01c16	0f b6 c0	 movzx	 eax, al
  01c19	85 c0		 test	 eax, eax
  01c1b	75 17		 jne	 SHORT $LN10@CGGrandSta
  01c1d	6a 31		 push	 49			; 00000031H
  01c1f	b9 00 00 00 00	 mov	 ecx, OFFSET ?g_ExLicense@@3VCExLicense@@A ; g_ExLicense
  01c24	e8 00 00 00 00	 call	 ?CheckUser@CExLicense@@QAE_NH@Z ; CExLicense::CheckUser
  01c29	0f b6 c0	 movzx	 eax, al
  01c2c	85 c0		 test	 eax, eax
  01c2e	0f 84 38 01 00
	00		 je	 $LN7@CGGrandSta
$LN10@CGGrandSta:

; 682  : 	{
; 683  : 		//reward Item
; 684  : 		for(int i = 0; i < this->m_reward.size(); i++)

  01c34	c7 45 f0 00 00
	00 00		 mov	 DWORD PTR _i$231906[ebp], 0
  01c3b	eb 09		 jmp	 SHORT $LN9@CGGrandSta
$LN8@CGGrandSta:
  01c3d	8b 45 f0	 mov	 eax, DWORD PTR _i$231906[ebp]
  01c40	83 c0 01	 add	 eax, 1
  01c43	89 45 f0	 mov	 DWORD PTR _i$231906[ebp], eax
$LN9@CGGrandSta:
  01c46	8b 4d fc	 mov	 ecx, DWORD PTR _this$[ebp]
  01c49	81 c1 dc 00 00
	00		 add	 ecx, 220		; 000000dcH
  01c4f	e8 00 00 00 00	 call	 ?size@?$vector@UGRANDSYSTEM_REWARD_DATA@@V?$allocator@UGRANDSYSTEM_REWARD_DATA@@@std@@@std@@QBEIXZ ; std::vector<GRANDSYSTEM_REWARD_DATA,std::allocator<GRANDSYSTEM_REWARD_DATA> >::size
  01c54	39 45 f0	 cmp	 DWORD PTR _i$231906[ebp], eax
  01c57	0f 83 0f 01 00
	00		 jae	 $LN7@CGGrandSta

; 685  : 		{
; 686  : 			GRANDSYSTEM_REWARD_DATA & ritem = this->m_reward[i];

  01c5d	8b 45 f0	 mov	 eax, DWORD PTR _i$231906[ebp]
  01c60	50		 push	 eax
  01c61	8b 4d fc	 mov	 ecx, DWORD PTR _this$[ebp]
  01c64	81 c1 dc 00 00
	00		 add	 ecx, 220		; 000000dcH
  01c6a	e8 00 00 00 00	 call	 ??A?$vector@UGRANDSYSTEM_REWARD_DATA@@V?$allocator@UGRANDSYSTEM_REWARD_DATA@@@std@@@std@@QAEAAUGRANDSYSTEM_REWARD_DATA@@I@Z ; std::vector<GRANDSYSTEM_REWARD_DATA,std::allocator<GRANDSYSTEM_REWARD_DATA> >::operator[]
  01c6f	89 45 ec	 mov	 DWORD PTR _ritem$231910[ebp], eax

; 687  : 			if(ritem.ResetNum == (lpObj->GReset + 1))

  01c72	8b 45 f8	 mov	 eax, DWORD PTR _lpObj$[ebp]
  01c75	8b 88 94 22 00
	00		 mov	 ecx, DWORD PTR [eax+8852]
  01c7b	83 c1 01	 add	 ecx, 1
  01c7e	8b 55 ec	 mov	 edx, DWORD PTR _ritem$231910[ebp]
  01c81	39 0a		 cmp	 DWORD PTR [edx], ecx
  01c83	0f 85 de 00 00
	00		 jne	 $LN6@CGGrandSta

; 688  : 			{
; 689  : 				if(ritem.WcoinC > 0)

  01c89	8b 45 ec	 mov	 eax, DWORD PTR _ritem$231910[ebp]
  01c8c	83 78 04 00	 cmp	 DWORD PTR [eax+4], 0
  01c90	7e 28		 jle	 SHORT $LN5@CGGrandSta

; 690  : 				{
; 691  : 					lpObj->GameShop.WCoinC += ritem.WcoinC;

  01c92	8b 45 ec	 mov	 eax, DWORD PTR _ritem$231910[ebp]
  01c95	db 40 04	 fild	 DWORD PTR [eax+4]
  01c98	8b 4d f8	 mov	 ecx, DWORD PTR _lpObj$[ebp]
  01c9b	dc 81 00 23 00
	00		 fadd	 QWORD PTR [ecx+8960]
  01ca1	8b 55 f8	 mov	 edx, DWORD PTR _lpObj$[ebp]
  01ca4	dd 9a 00 23 00
	00		 fstp	 QWORD PTR [edx+8960]

; 692  : 					gGameShop.GDSaveUserInfo(lpObj->m_Index);

  01caa	8b 45 f8	 mov	 eax, DWORD PTR _lpObj$[ebp]
  01cad	8b 08		 mov	 ecx, DWORD PTR [eax]
  01caf	51		 push	 ecx
  01cb0	b9 00 00 00 00	 mov	 ecx, OFFSET ?gGameShop@@3VGameShop@@A ; gGameShop
  01cb5	e8 00 00 00 00	 call	 ?GDSaveUserInfo@GameShop@@QAEXH@Z ; GameShop::GDSaveUserInfo
$LN5@CGGrandSta:

; 693  : 				}
; 694  : 				if(ritem.Credit > 0)

  01cba	8b 45 ec	 mov	 eax, DWORD PTR _ritem$231910[ebp]
  01cbd	83 78 08 00	 cmp	 DWORD PTR [eax+8], 0
  01cc1	7e 24		 jle	 SHORT $LN4@CGGrandSta

; 695  : 				{
; 696  : 					lpObj->ExCred += ritem.Credit;

  01cc3	8b 45 ec	 mov	 eax, DWORD PTR _ritem$231910[ebp]
  01cc6	db 40 08	 fild	 DWORD PTR [eax+8]
  01cc9	8b 4d f8	 mov	 ecx, DWORD PTR _lpObj$[ebp]
  01ccc	d8 81 a8 22 00
	00		 fadd	 DWORD PTR [ecx+8872]
  01cd2	8b 55 f8	 mov	 edx, DWORD PTR _lpObj$[ebp]
  01cd5	d9 9a a8 22 00
	00		 fstp	 DWORD PTR [edx+8872]

; 697  : 					ExUserDataSend(aIndex);

  01cdb	8b 45 08	 mov	 eax, DWORD PTR _aIndex$[ebp]
  01cde	50		 push	 eax
  01cdf	e8 00 00 00 00	 call	 ?ExUserDataSend@@YAXH@Z	; ExUserDataSend
  01ce4	83 c4 04	 add	 esp, 4
$LN4@CGGrandSta:

; 698  : 				}
; 699  : 				if(ritem.EnableItem)

  01ce7	8b 45 ec	 mov	 eax, DWORD PTR _ritem$231910[ebp]
  01cea	0f b6 48 0c	 movzx	 ecx, BYTE PTR [eax+12]
  01cee	85 c9		 test	 ecx, ecx
  01cf0	74 73		 je	 SHORT $LN3@CGGrandSta

; 700  : 				{
; 701  : 					ItemSerialCreateSend(aIndex,lpObj->MapNumber,lpObj->X,lpObj->Y,ITEMGET(ritem.Type, ritem.Index),ritem.Level,0,ritem.Skill,ritem.Luck,ritem.Opt,aIndex,ritem.Exl,ritem.Anc);

  01cf2	8b 45 ec	 mov	 eax, DWORD PTR _ritem$231910[ebp]
  01cf5	0f b6 48 20	 movzx	 ecx, BYTE PTR [eax+32]
  01cf9	51		 push	 ecx
  01cfa	8b 55 ec	 mov	 edx, DWORD PTR _ritem$231910[ebp]
  01cfd	0f b6 42 1f	 movzx	 eax, BYTE PTR [edx+31]
  01d01	50		 push	 eax
  01d02	8b 4d 08	 mov	 ecx, DWORD PTR _aIndex$[ebp]
  01d05	51		 push	 ecx
  01d06	8b 55 ec	 mov	 edx, DWORD PTR _ritem$231910[ebp]
  01d09	0f b6 42 1e	 movzx	 eax, BYTE PTR [edx+30]
  01d0d	50		 push	 eax
  01d0e	8b 4d ec	 mov	 ecx, DWORD PTR _ritem$231910[ebp]
  01d11	0f b6 51 1d	 movzx	 edx, BYTE PTR [ecx+29]
  01d15	52		 push	 edx
  01d16	8b 45 ec	 mov	 eax, DWORD PTR _ritem$231910[ebp]
  01d19	0f b6 48 1c	 movzx	 ecx, BYTE PTR [eax+28]
  01d1d	51		 push	 ecx
  01d1e	6a 00		 push	 0
  01d20	8b 55 ec	 mov	 edx, DWORD PTR _ritem$231910[ebp]
  01d23	0f b6 42 18	 movzx	 eax, BYTE PTR [edx+24]
  01d27	50		 push	 eax
  01d28	8b 4d ec	 mov	 ecx, DWORD PTR _ritem$231910[ebp]
  01d2b	8b 51 10	 mov	 edx, DWORD PTR [ecx+16]
  01d2e	c1 e2 09	 shl	 edx, 9
  01d31	8b 45 ec	 mov	 eax, DWORD PTR _ritem$231910[ebp]
  01d34	03 50 14	 add	 edx, DWORD PTR [eax+20]
  01d37	52		 push	 edx
  01d38	8b 4d f8	 mov	 ecx, DWORD PTR _lpObj$[ebp]
  01d3b	0f b6 91 46 01
	00 00		 movzx	 edx, BYTE PTR [ecx+326]
  01d42	52		 push	 edx
  01d43	8b 45 f8	 mov	 eax, DWORD PTR _lpObj$[ebp]
  01d46	0f b6 88 44 01
	00 00		 movzx	 ecx, BYTE PTR [eax+324]
  01d4d	51		 push	 ecx
  01d4e	8b 55 f8	 mov	 edx, DWORD PTR _lpObj$[ebp]
  01d51	0f b6 82 49 01
	00 00		 movzx	 eax, BYTE PTR [edx+329]
  01d58	50		 push	 eax
  01d59	8b 4d 08	 mov	 ecx, DWORD PTR _aIndex$[ebp]
  01d5c	51		 push	 ecx
  01d5d	e8 00 00 00 00	 call	 ?ItemSerialCreateSend@@YAXHEEEHEEEEEHEE@Z ; ItemSerialCreateSend
  01d62	83 c4 34	 add	 esp, 52			; 00000034H
$LN3@CGGrandSta:

; 702  : 				}
; 703  : 				break;

  01d65	eb 05		 jmp	 SHORT $LN7@CGGrandSta
$LN6@CGGrandSta:

; 704  : 			}
; 705  : 		}

  01d67	e9 d1 fe ff ff	 jmp	 $LN8@CGGrandSta
$LN7@CGGrandSta:

; 706  : 	}
; 707  : 
; 708  : 
; 709  : 	ExFireCracker(aIndex, lpObj->X, lpObj->Y);

  01d6c	8b 45 f8	 mov	 eax, DWORD PTR _lpObj$[ebp]
  01d6f	0f b6 88 46 01
	00 00		 movzx	 ecx, BYTE PTR [eax+326]
  01d76	51		 push	 ecx
  01d77	8b 55 f8	 mov	 edx, DWORD PTR _lpObj$[ebp]
  01d7a	0f b6 82 44 01
	00 00		 movzx	 eax, BYTE PTR [edx+324]
  01d81	50		 push	 eax
  01d82	8b 4d 08	 mov	 ecx, DWORD PTR _aIndex$[ebp]
  01d85	51		 push	 ecx
  01d86	e8 00 00 00 00	 call	 ?ExFireCracker@@YAXHEE@Z ; ExFireCracker
  01d8b	83 c4 0c	 add	 esp, 12			; 0000000cH

; 710  : 	//gObjCloseSet(aIndex, 1);
; 711  : 
; 712  : 	lpObj->Life = DCInfo.DefClass[lpObj->Class].Life + (lpObj->Level + lpObj->MLevel - 1) * DCInfo.DefClass[lpObj->Class].LevelLife  + ((lpObj->Vitality - DCInfo.DefClass[lpObj->Class].Vitality ) * DCInfo.DefClass[lpObj->Class].VitalityToLife);

  01d8e	8b 45 f8	 mov	 eax, DWORD PTR _lpObj$[ebp]
  01d91	0f b7 88 b8 00
	00 00		 movzx	 ecx, WORD PTR [eax+184]
  01d98	69 c9 c8 0b 00
	00		 imul	 ecx, 3016		; 00000bc8H
  01d9e	8b 55 f8	 mov	 edx, DWORD PTR _lpObj$[ebp]
  01da1	0f bf 82 be 00
	00 00		 movsx	 eax, WORD PTR [edx+190]
  01da8	8b 55 f8	 mov	 edx, DWORD PTR _lpObj$[ebp]
  01dab	0f bf 92 d0 00
	00 00		 movsx	 edx, WORD PTR [edx+208]
  01db2	8d 44 10 ff	 lea	 eax, DWORD PTR [eax+edx-1]
  01db6	89 45 a8	 mov	 DWORD PTR tv912[ebp], eax
  01db9	db 45 a8	 fild	 DWORD PTR tv912[ebp]
  01dbc	8b 55 f8	 mov	 edx, DWORD PTR _lpObj$[ebp]
  01dbf	0f b7 82 b8 00
	00 00		 movzx	 eax, WORD PTR [edx+184]
  01dc6	69 c0 c8 0b 00
	00		 imul	 eax, 3016		; 00000bc8H
  01dcc	d8 88 10 00 00
	00		 fmul	 DWORD PTR ?DCInfo@@3Vclassdef@@A[eax+16]
  01dd2	d8 81 14 00 00
	00		 fadd	 DWORD PTR ?DCInfo@@3Vclassdef@@A[ecx+20]
  01dd8	8b 4d f8	 mov	 ecx, DWORD PTR _lpObj$[ebp]
  01ddb	0f b7 91 f8 00
	00 00		 movzx	 edx, WORD PTR [ecx+248]
  01de2	8b 45 f8	 mov	 eax, DWORD PTR _lpObj$[ebp]
  01de5	0f b7 88 b8 00
	00 00		 movzx	 ecx, WORD PTR [eax+184]
  01dec	69 c9 c8 0b 00
	00		 imul	 ecx, 3016		; 00000bc8H
  01df2	0f b7 81 0c 00
	00 00		 movzx	 eax, WORD PTR ?DCInfo@@3Vclassdef@@A[ecx+12]
  01df9	2b d0		 sub	 edx, eax
  01dfb	89 55 a4	 mov	 DWORD PTR tv917[ebp], edx
  01dfe	db 45 a4	 fild	 DWORD PTR tv917[ebp]
  01e01	8b 4d f8	 mov	 ecx, DWORD PTR _lpObj$[ebp]
  01e04	0f b7 91 b8 00
	00 00		 movzx	 edx, WORD PTR [ecx+184]
  01e0b	69 d2 c8 0b 00
	00		 imul	 edx, 3016		; 00000bc8H
  01e11	d8 8a 28 00 00
	00		 fmul	 DWORD PTR ?DCInfo@@3Vclassdef@@A[edx+40]
  01e17	de c1		 faddp	 ST(1), ST(0)
  01e19	8b 45 f8	 mov	 eax, DWORD PTR _lpObj$[ebp]
  01e1c	d9 98 fc 00 00
	00		 fstp	 DWORD PTR [eax+252]

; 713  : 	lpObj->Mana = DCInfo.DefClass[lpObj->Class].Mana + (lpObj->Level + lpObj->MLevel - 1) * DCInfo.DefClass[lpObj->Class].LevelMana  + ((lpObj->Energy - DCInfo.DefClass[lpObj->Class].Energy ) * DCInfo.DefClass[lpObj->Class].EnergyToMana);

  01e22	8b 45 f8	 mov	 eax, DWORD PTR _lpObj$[ebp]
  01e25	0f b7 88 b8 00
	00 00		 movzx	 ecx, WORD PTR [eax+184]
  01e2c	69 c9 c8 0b 00
	00		 imul	 ecx, 3016		; 00000bc8H
  01e32	8b 55 f8	 mov	 edx, DWORD PTR _lpObj$[ebp]
  01e35	0f bf 82 be 00
	00 00		 movsx	 eax, WORD PTR [edx+190]
  01e3c	8b 55 f8	 mov	 edx, DWORD PTR _lpObj$[ebp]
  01e3f	0f bf 92 d0 00
	00 00		 movsx	 edx, WORD PTR [edx+208]
  01e46	8d 44 10 ff	 lea	 eax, DWORD PTR [eax+edx-1]
  01e4a	89 45 a8	 mov	 DWORD PTR tv926[ebp], eax
  01e4d	db 45 a8	 fild	 DWORD PTR tv926[ebp]
  01e50	8b 55 f8	 mov	 edx, DWORD PTR _lpObj$[ebp]
  01e53	0f b7 82 b8 00
	00 00		 movzx	 eax, WORD PTR [edx+184]
  01e5a	69 c0 c8 0b 00
	00		 imul	 eax, 3016		; 00000bc8H
  01e60	d8 88 1c 00 00
	00		 fmul	 DWORD PTR ?DCInfo@@3Vclassdef@@A[eax+28]
  01e66	d8 81 20 00 00
	00		 fadd	 DWORD PTR ?DCInfo@@3Vclassdef@@A[ecx+32]
  01e6c	8b 4d f8	 mov	 ecx, DWORD PTR _lpObj$[ebp]
  01e6f	0f b7 91 fa 00
	00 00		 movzx	 edx, WORD PTR [ecx+250]
  01e76	8b 45 f8	 mov	 eax, DWORD PTR _lpObj$[ebp]
  01e79	0f b7 88 b8 00
	00 00		 movzx	 ecx, WORD PTR [eax+184]
  01e80	69 c9 c8 0b 00
	00		 imul	 ecx, 3016		; 00000bc8H
  01e86	0f b7 81 0e 00
	00 00		 movzx	 eax, WORD PTR ?DCInfo@@3Vclassdef@@A[ecx+14]
  01e8d	2b d0		 sub	 edx, eax
  01e8f	89 55 a4	 mov	 DWORD PTR tv931[ebp], edx
  01e92	db 45 a4	 fild	 DWORD PTR tv931[ebp]
  01e95	8b 4d f8	 mov	 ecx, DWORD PTR _lpObj$[ebp]
  01e98	0f b7 91 b8 00
	00 00		 movzx	 edx, WORD PTR [ecx+184]
  01e9f	69 d2 c8 0b 00
	00		 imul	 edx, 3016		; 00000bc8H
  01ea5	d8 8a 2c 00 00
	00		 fmul	 DWORD PTR ?DCInfo@@3Vclassdef@@A[edx+44]
  01eab	de c1		 faddp	 ST(1), ST(0)
  01ead	8b 45 f8	 mov	 eax, DWORD PTR _lpObj$[ebp]
  01eb0	d9 98 10 01 00
	00		 fstp	 DWORD PTR [eax+272]

; 714  : 
; 715  : 	lpObj->MaxLife = DCInfo.DefClass[lpObj->Class].Life + (lpObj->Level + lpObj->MLevel - 1) * DCInfo.DefClass[lpObj->Class].LevelLife  + ((lpObj->Vitality - DCInfo.DefClass[lpObj->Class].Vitality ) * DCInfo.DefClass[lpObj->Class].VitalityToLife);

  01eb6	8b 45 f8	 mov	 eax, DWORD PTR _lpObj$[ebp]
  01eb9	0f b7 88 b8 00
	00 00		 movzx	 ecx, WORD PTR [eax+184]
  01ec0	69 c9 c8 0b 00
	00		 imul	 ecx, 3016		; 00000bc8H
  01ec6	8b 55 f8	 mov	 edx, DWORD PTR _lpObj$[ebp]
  01ec9	0f bf 82 be 00
	00 00		 movsx	 eax, WORD PTR [edx+190]
  01ed0	8b 55 f8	 mov	 edx, DWORD PTR _lpObj$[ebp]
  01ed3	0f bf 92 d0 00
	00 00		 movsx	 edx, WORD PTR [edx+208]
  01eda	8d 44 10 ff	 lea	 eax, DWORD PTR [eax+edx-1]
  01ede	89 45 a8	 mov	 DWORD PTR tv940[ebp], eax
  01ee1	db 45 a8	 fild	 DWORD PTR tv940[ebp]
  01ee4	8b 55 f8	 mov	 edx, DWORD PTR _lpObj$[ebp]
  01ee7	0f b7 82 b8 00
	00 00		 movzx	 eax, WORD PTR [edx+184]
  01eee	69 c0 c8 0b 00
	00		 imul	 eax, 3016		; 00000bc8H
  01ef4	d8 88 10 00 00
	00		 fmul	 DWORD PTR ?DCInfo@@3Vclassdef@@A[eax+16]
  01efa	d8 81 14 00 00
	00		 fadd	 DWORD PTR ?DCInfo@@3Vclassdef@@A[ecx+20]
  01f00	8b 4d f8	 mov	 ecx, DWORD PTR _lpObj$[ebp]
  01f03	0f b7 91 f8 00
	00 00		 movzx	 edx, WORD PTR [ecx+248]
  01f0a	8b 45 f8	 mov	 eax, DWORD PTR _lpObj$[ebp]
  01f0d	0f b7 88 b8 00
	00 00		 movzx	 ecx, WORD PTR [eax+184]
  01f14	69 c9 c8 0b 00
	00		 imul	 ecx, 3016		; 00000bc8H
  01f1a	0f b7 81 0c 00
	00 00		 movzx	 eax, WORD PTR ?DCInfo@@3Vclassdef@@A[ecx+12]
  01f21	2b d0		 sub	 edx, eax
  01f23	89 55 a4	 mov	 DWORD PTR tv945[ebp], edx
  01f26	db 45 a4	 fild	 DWORD PTR tv945[ebp]
  01f29	8b 4d f8	 mov	 ecx, DWORD PTR _lpObj$[ebp]
  01f2c	0f b7 91 b8 00
	00 00		 movzx	 edx, WORD PTR [ecx+184]
  01f33	69 d2 c8 0b 00
	00		 imul	 edx, 3016		; 00000bc8H
  01f39	d8 8a 28 00 00
	00		 fmul	 DWORD PTR ?DCInfo@@3Vclassdef@@A[edx+40]
  01f3f	de c1		 faddp	 ST(1), ST(0)
  01f41	8b 45 f8	 mov	 eax, DWORD PTR _lpObj$[ebp]
  01f44	d9 98 00 01 00
	00		 fstp	 DWORD PTR [eax+256]

; 716  : 	lpObj->MaxMana = DCInfo.DefClass[lpObj->Class].Mana + (lpObj->Level + lpObj->MLevel - 1) * DCInfo.DefClass[lpObj->Class].LevelMana  + ((lpObj->Energy - DCInfo.DefClass[lpObj->Class].Energy ) * DCInfo.DefClass[lpObj->Class].EnergyToMana);

  01f4a	8b 45 f8	 mov	 eax, DWORD PTR _lpObj$[ebp]
  01f4d	0f b7 88 b8 00
	00 00		 movzx	 ecx, WORD PTR [eax+184]
  01f54	69 c9 c8 0b 00
	00		 imul	 ecx, 3016		; 00000bc8H
  01f5a	8b 55 f8	 mov	 edx, DWORD PTR _lpObj$[ebp]
  01f5d	0f bf 82 be 00
	00 00		 movsx	 eax, WORD PTR [edx+190]
  01f64	8b 55 f8	 mov	 edx, DWORD PTR _lpObj$[ebp]
  01f67	0f bf 92 d0 00
	00 00		 movsx	 edx, WORD PTR [edx+208]
  01f6e	8d 44 10 ff	 lea	 eax, DWORD PTR [eax+edx-1]
  01f72	89 45 a8	 mov	 DWORD PTR tv954[ebp], eax
  01f75	db 45 a8	 fild	 DWORD PTR tv954[ebp]
  01f78	8b 55 f8	 mov	 edx, DWORD PTR _lpObj$[ebp]
  01f7b	0f b7 82 b8 00
	00 00		 movzx	 eax, WORD PTR [edx+184]
  01f82	69 c0 c8 0b 00
	00		 imul	 eax, 3016		; 00000bc8H
  01f88	d8 88 1c 00 00
	00		 fmul	 DWORD PTR ?DCInfo@@3Vclassdef@@A[eax+28]
  01f8e	d8 81 20 00 00
	00		 fadd	 DWORD PTR ?DCInfo@@3Vclassdef@@A[ecx+32]
  01f94	8b 4d f8	 mov	 ecx, DWORD PTR _lpObj$[ebp]
  01f97	0f b7 91 fa 00
	00 00		 movzx	 edx, WORD PTR [ecx+250]
  01f9e	8b 45 f8	 mov	 eax, DWORD PTR _lpObj$[ebp]
  01fa1	0f b7 88 b8 00
	00 00		 movzx	 ecx, WORD PTR [eax+184]
  01fa8	69 c9 c8 0b 00
	00		 imul	 ecx, 3016		; 00000bc8H
  01fae	0f b7 81 0e 00
	00 00		 movzx	 eax, WORD PTR ?DCInfo@@3Vclassdef@@A[ecx+14]
  01fb5	2b d0		 sub	 edx, eax
  01fb7	89 55 a4	 mov	 DWORD PTR tv959[ebp], edx
  01fba	db 45 a4	 fild	 DWORD PTR tv959[ebp]
  01fbd	8b 4d f8	 mov	 ecx, DWORD PTR _lpObj$[ebp]
  01fc0	0f b7 91 b8 00
	00 00		 movzx	 edx, WORD PTR [ecx+184]
  01fc7	69 d2 c8 0b 00
	00		 imul	 edx, 3016		; 00000bc8H
  01fcd	d8 8a 2c 00 00
	00		 fmul	 DWORD PTR ?DCInfo@@3Vclassdef@@A[edx+44]
  01fd3	de c1		 faddp	 ST(1), ST(0)
  01fd5	8b 45 f8	 mov	 eax, DWORD PTR _lpObj$[ebp]
  01fd8	d9 98 14 01 00
	00		 fstp	 DWORD PTR [eax+276]

; 717  : 
; 718  : 	lpObj->VitalityToLife = DCInfo.DefClass[lpObj->Class].VitalityToLife;

  01fde	8b 45 f8	 mov	 eax, DWORD PTR _lpObj$[ebp]
  01fe1	0f b7 88 b8 00
	00 00		 movzx	 ecx, WORD PTR [eax+184]
  01fe8	69 c9 c8 0b 00
	00		 imul	 ecx, 3016		; 00000bc8H
  01fee	8b 55 f8	 mov	 edx, DWORD PTR _lpObj$[ebp]
  01ff1	d9 81 28 00 00
	00		 fld	 DWORD PTR ?DCInfo@@3Vclassdef@@A[ecx+40]
  01ff7	d9 9a 34 01 00
	00		 fstp	 DWORD PTR [edx+308]

; 719  : 	lpObj->EnergyToMana = DCInfo.DefClass[lpObj->Class].EnergyToMana;

  01ffd	8b 45 f8	 mov	 eax, DWORD PTR _lpObj$[ebp]
  02000	0f b7 88 b8 00
	00 00		 movzx	 ecx, WORD PTR [eax+184]
  02007	69 c9 c8 0b 00
	00		 imul	 ecx, 3016		; 00000bc8H
  0200d	8b 55 f8	 mov	 edx, DWORD PTR _lpObj$[ebp]
  02010	d9 81 2c 00 00
	00		 fld	 DWORD PTR ?DCInfo@@3Vclassdef@@A[ecx+44]
  02016	d9 9a 38 01 00
	00		 fstp	 DWORD PTR [edx+312]

; 720  : 
; 721  : 	::gObjSetBP(aIndex);

  0201c	8b 45 08	 mov	 eax, DWORD PTR _aIndex$[ebp]
  0201f	50		 push	 eax
  02020	e8 00 00 00 00	 call	 ?gObjSetBP@@YAXH@Z	; gObjSetBP
  02025	83 c4 04	 add	 esp, 4

; 722  : 	lpObj->BP = lpObj->MaxBP / 2;

  02028	8b 45 f8	 mov	 eax, DWORD PTR _lpObj$[ebp]
  0202b	8b 80 2c 01 00
	00		 mov	 eax, DWORD PTR [eax+300]
  02031	99		 cdq
  02032	2b c2		 sub	 eax, edx
  02034	d1 f8		 sar	 eax, 1
  02036	8b 4d f8	 mov	 ecx, DWORD PTR _lpObj$[ebp]
  02039	89 81 28 01 00
	00		 mov	 DWORD PTR [ecx+296], eax

; 723  : 	::gObjCalcMaxLifePower(aIndex);

  0203f	8b 45 08	 mov	 eax, DWORD PTR _aIndex$[ebp]
  02042	50		 push	 eax
  02043	e8 00 00 00 00	 call	 ?gObjCalcMaxLifePower@@YAXH@Z ; gObjCalcMaxLifePower
  02048	83 c4 04	 add	 esp, 4

; 724  : 
; 725  : 	GCReFillSend(aIndex, (int)lpObj->MaxLife + lpObj->AddLife, 0xFE, 0, lpObj->iMaxShield + lpObj->iAddShield);

  0204b	8b 45 f8	 mov	 eax, DWORD PTR _lpObj$[ebp]
  0204e	8b 88 58 01 00
	00		 mov	 ecx, DWORD PTR [eax+344]
  02054	8b 55 f8	 mov	 edx, DWORD PTR _lpObj$[ebp]
  02057	03 8a 5c 01 00
	00		 add	 ecx, DWORD PTR [edx+348]
  0205d	51		 push	 ecx
  0205e	6a 00		 push	 0
  02060	68 fe 00 00 00	 push	 254			; 000000feH
  02065	8b 45 f8	 mov	 eax, DWORD PTR _lpObj$[ebp]
  02068	d9 80 00 01 00
	00		 fld	 DWORD PTR [eax+256]
  0206e	e8 00 00 00 00	 call	 __ftol2_sse
  02073	8b 4d f8	 mov	 ecx, DWORD PTR _lpObj$[ebp]
  02076	03 81 4c 01 00
	00		 add	 eax, DWORD PTR [ecx+332]
  0207c	50		 push	 eax
  0207d	8b 55 08	 mov	 edx, DWORD PTR _aIndex$[ebp]
  02080	52		 push	 edx
  02081	e8 00 00 00 00	 call	 ?GCReFillSend@@YAXHHEEH@Z ; GCReFillSend
  02086	83 c4 14	 add	 esp, 20			; 00000014H

; 726  : 	//gObjSetBP(aIndex);
; 727  : 	GCManaSend(aIndex,(int)lpObj->MaxMana + lpObj->AddMana, 0xFE, 0, lpObj->MaxBP + lpObj->AddBP);

  02089	8b 45 f8	 mov	 eax, DWORD PTR _lpObj$[ebp]
  0208c	8b 88 2c 01 00
	00		 mov	 ecx, DWORD PTR [eax+300]
  02092	8b 55 f8	 mov	 edx, DWORD PTR _lpObj$[ebp]
  02095	03 8a 30 01 00
	00		 add	 ecx, DWORD PTR [edx+304]
  0209b	51		 push	 ecx
  0209c	6a 00		 push	 0
  0209e	68 fe 00 00 00	 push	 254			; 000000feH
  020a3	8b 45 f8	 mov	 eax, DWORD PTR _lpObj$[ebp]
  020a6	d9 80 14 01 00
	00		 fld	 DWORD PTR [eax+276]
  020ac	e8 00 00 00 00	 call	 __ftol2_sse
  020b1	8b 4d f8	 mov	 ecx, DWORD PTR _lpObj$[ebp]
  020b4	03 81 50 01 00
	00		 add	 eax, DWORD PTR [ecx+336]
  020ba	50		 push	 eax
  020bb	8b 55 08	 mov	 edx, DWORD PTR _aIndex$[ebp]
  020be	52		 push	 edx
  020bf	e8 00 00 00 00	 call	 ?GCManaSend@@YAXHHEEH@Z	; GCManaSend
  020c4	83 c4 14	 add	 esp, 20			; 00000014H

; 728  : 	gObjCalCharacter(aIndex);

  020c7	8b 45 08	 mov	 eax, DWORD PTR _aIndex$[ebp]
  020ca	50		 push	 eax
  020cb	e8 00 00 00 00	 call	 ?gObjCalCharacter@@YAXH@Z ; gObjCalCharacter
  020d0	83 c4 04	 add	 esp, 4

; 729  : 
; 730  : 	ResetSystemGC_CharUpdate(lpObj);

  020d3	8b 45 f8	 mov	 eax, DWORD PTR _lpObj$[ebp]
  020d6	50		 push	 eax
  020d7	e8 00 00 00 00	 call	 ?ResetSystemGC_CharUpdate@@YAXPAUOBJECTSTRUCT@@@Z ; ResetSystemGC_CharUpdate
  020dc	83 c4 04	 add	 esp, 4

; 731  : 
; 732  : 	GCMoneySend(aIndex, lpObj->Money);

  020df	8b 45 f8	 mov	 eax, DWORD PTR _lpObj$[ebp]
  020e2	8b 88 f0 00 00
	00		 mov	 ecx, DWORD PTR [eax+240]
  020e8	51		 push	 ecx
  020e9	8b 55 08	 mov	 edx, DWORD PTR _aIndex$[ebp]
  020ec	52		 push	 edx
  020ed	e8 00 00 00 00	 call	 ?GCMoneySend@@YAXHK@Z	; GCMoneySend
  020f2	83 c4 08	 add	 esp, 8

; 733  : 
; 734  : #if(CUSTOM_NOOBBUFF)
; 735  : 	if(ExConfig.CommonServer.bNoobBuffEnable)

  020f5	0f b6 05 18 01
	00 00		 movzx	 eax, BYTE PTR ?ExConfig@@3VcExConfigs@@A+280
  020fc	85 c0		 test	 eax, eax
  020fe	74 2a		 je	 SHORT $LN1@CGGrandSta

; 736  : 	{
; 737  : 		if(gObjSearchActiveEffect(lpObj,AT_NOOB_BUFF) == TRUE)

  02100	68 b6 00 00 00	 push	 182			; 000000b6H
  02105	8b 45 f8	 mov	 eax, DWORD PTR _lpObj$[ebp]
  02108	50		 push	 eax
  02109	e8 00 00 00 00	 call	 ?gObjSearchActiveEffect@@YAEPAUOBJECTSTRUCT@@H@Z ; gObjSearchActiveEffect
  0210e	83 c4 08	 add	 esp, 8
  02111	0f b6 c8	 movzx	 ecx, al
  02114	83 f9 01	 cmp	 ecx, 1
  02117	75 11		 jne	 SHORT $LN1@CGGrandSta

; 738  : 		{
; 739  : 			gObjRemoveBuffEffect(lpObj,AT_NOOB_BUFF);

  02119	68 b6 00 00 00	 push	 182			; 000000b6H
  0211e	8b 45 f8	 mov	 eax, DWORD PTR _lpObj$[ebp]
  02121	50		 push	 eax
  02122	e8 00 00 00 00	 call	 ?gObjRemoveBuffEffect@@YAEPAUOBJECTSTRUCT@@H@Z ; gObjRemoveBuffEffect
  02127	83 c4 08	 add	 esp, 8
$LN1@CGGrandSta:

; 740  : 		}
; 741  : 	}
; 742  : #endif
; 743  : 
; 744  : #if(SYSTEM_ACHIEVEMENTS)
; 745  : 	g_Achievements.GrandResetUp(aIndex);

  0212a	8b 45 08	 mov	 eax, DWORD PTR _aIndex$[ebp]
  0212d	50		 push	 eax
  0212e	b9 00 00 00 00	 mov	 ecx, OFFSET ?g_Achievements@@3VCAchievements@@A ; g_Achievements
  02133	e8 00 00 00 00	 call	 ?GrandResetUp@CAchievements@@QAEXH@Z ; CAchievements::GrandResetUp

; 746  : #endif
; 747  : 
; 748  : 	LogAddTD("[GrandResetSystem] Accaunt: %s , Name: %s , GrandReset: %d",lpObj->AccountID, lpObj->Name,lpObj->GReset);

  02138	8b 45 f8	 mov	 eax, DWORD PTR _lpObj$[ebp]
  0213b	8b 88 94 22 00
	00		 mov	 ecx, DWORD PTR [eax+8852]
  02141	51		 push	 ecx
  02142	8b 55 f8	 mov	 edx, DWORD PTR _lpObj$[ebp]
  02145	83 c2 77	 add	 edx, 119		; 00000077H
  02148	52		 push	 edx
  02149	8b 45 f8	 mov	 eax, DWORD PTR _lpObj$[ebp]
  0214c	83 c0 6c	 add	 eax, 108		; 0000006cH
  0214f	50		 push	 eax
  02150	68 00 00 00 00	 push	 OFFSET ??_C@_0DL@JEEEMDGP@?$FLGrandResetSystem?$FN?5Accaunt?3?5?$CFs?5?0@
  02155	ff 15 00 00 00
	00		 call	 DWORD PTR ?LogAddTD@@3P6AXPADZZA ; LogAddTD
  0215b	83 c4 10	 add	 esp, 16			; 00000010H
$LN52@CGGrandSta:

; 749  : }

  0215e	5f		 pop	 edi
  0215f	5e		 pop	 esi
  02160	5b		 pop	 ebx
  02161	8b e5		 mov	 esp, ebp
  02163	5d		 pop	 ebp
  02164	c2 04 00	 ret	 4
  02167	90		 npad	 1
$LN54@CGGrandSta:
  02168	00 00 00 00	 DD	 $LN28@CGGrandSta
  0216c	00 00 00 00	 DD	 $LN27@CGGrandSta
  02170	00 00 00 00	 DD	 $LN26@CGGrandSta
  02174	00 00 00 00	 DD	 $LN25@CGGrandSta
  02178	00 00 00 00	 DD	 $LN24@CGGrandSta
  0217c	00 00 00 00	 DD	 $LN23@CGGrandSta
  02180	00 00 00 00	 DD	 $LN22@CGGrandSta
?CGGrandStart@cGrandReset@@QAEXH@Z ENDP			; cGrandReset::CGGrandStart
_TEXT	ENDS
PUBLIC	?NpcDialog@cGrandReset@@QAE_NHH@Z		; cGrandReset::NpcDialog
; Function compile flags: /Odtp /ZI
_TEXT	SEGMENT
tv159 = -80						; size = 4
tv154 = -80						; size = 4
_lpNpc$ = -12						; size = 4
_lpUser$ = -8						; size = 4
_this$ = -4						; size = 4
_aIndex$ = 8						; size = 4
_aNpcIndex$ = 12					; size = 4
?NpcDialog@cGrandReset@@QAE_NHH@Z PROC			; cGrandReset::NpcDialog
; _this$ = ecx

; 752  : {

  02190	55		 push	 ebp
  02191	8b ec		 mov	 ebp, esp
  02193	83 ec 50	 sub	 esp, 80			; 00000050H
  02196	53		 push	 ebx
  02197	56		 push	 esi
  02198	57		 push	 edi
  02199	89 4d fc	 mov	 DWORD PTR _this$[ebp], ecx

; 753  : 	if( !g_ExLicense.CheckUser(eExUB::Local) && 
; 754  : 		!g_ExLicense.CheckUser(eExUB::EpicMU) && 
; 755  : 		!g_ExLicense.CheckUser(eExUB::RevoMU) &&
; 756  : 		!g_ExLicense.CheckUser(eExUB::GloryMU) &&
; 757  : 		!g_ExLicense.CheckUser(eExUB::MedoniAndrei) &&
; 758  : 		!g_ExLicense.CheckUser(eExUB::Artem) && 
; 759  : 		!g_ExLicense.CheckUser(eExUB::Artem2) &&
; 760  : 		!g_ExLicense.CheckUser(eExUB::mu4you) &&
; 761  : 		!g_ExLicense.CheckUser(eExUB::Escalate) &&
; 762  : 		!g_ExLicense.CheckUser(eExUB::eternalmu) &&
; 763  : 		!g_ExLicense.CheckUser(eExUB::NSGames))

  0219c	6a 00		 push	 0
  0219e	b9 00 00 00 00	 mov	 ecx, OFFSET ?g_ExLicense@@3VCExLicense@@A ; g_ExLicense
  021a3	e8 00 00 00 00	 call	 ?CheckUser@CExLicense@@QAE_NH@Z ; CExLicense::CheckUser
  021a8	0f b6 c0	 movzx	 eax, al
  021ab	85 c0		 test	 eax, eax
  021ad	0f 85 d1 00 00
	00		 jne	 $LN4@NpcDialog
  021b3	6a 3b		 push	 59			; 0000003bH
  021b5	b9 00 00 00 00	 mov	 ecx, OFFSET ?g_ExLicense@@3VCExLicense@@A ; g_ExLicense
  021ba	e8 00 00 00 00	 call	 ?CheckUser@CExLicense@@QAE_NH@Z ; CExLicense::CheckUser
  021bf	0f b6 c0	 movzx	 eax, al
  021c2	85 c0		 test	 eax, eax
  021c4	0f 85 ba 00 00
	00		 jne	 $LN4@NpcDialog
  021ca	6a 43		 push	 67			; 00000043H
  021cc	b9 00 00 00 00	 mov	 ecx, OFFSET ?g_ExLicense@@3VCExLicense@@A ; g_ExLicense
  021d1	e8 00 00 00 00	 call	 ?CheckUser@CExLicense@@QAE_NH@Z ; CExLicense::CheckUser
  021d6	0f b6 c0	 movzx	 eax, al
  021d9	85 c0		 test	 eax, eax
  021db	0f 85 a3 00 00
	00		 jne	 $LN4@NpcDialog
  021e1	6a 46		 push	 70			; 00000046H
  021e3	b9 00 00 00 00	 mov	 ecx, OFFSET ?g_ExLicense@@3VCExLicense@@A ; g_ExLicense
  021e8	e8 00 00 00 00	 call	 ?CheckUser@CExLicense@@QAE_NH@Z ; CExLicense::CheckUser
  021ed	0f b6 c0	 movzx	 eax, al
  021f0	85 c0		 test	 eax, eax
  021f2	0f 85 8c 00 00
	00		 jne	 $LN4@NpcDialog
  021f8	6a 32		 push	 50			; 00000032H
  021fa	b9 00 00 00 00	 mov	 ecx, OFFSET ?g_ExLicense@@3VCExLicense@@A ; g_ExLicense
  021ff	e8 00 00 00 00	 call	 ?CheckUser@CExLicense@@QAE_NH@Z ; CExLicense::CheckUser
  02204	0f b6 c0	 movzx	 eax, al
  02207	85 c0		 test	 eax, eax
  02209	75 79		 jne	 SHORT $LN4@NpcDialog
  0220b	6a 30		 push	 48			; 00000030H
  0220d	b9 00 00 00 00	 mov	 ecx, OFFSET ?g_ExLicense@@3VCExLicense@@A ; g_ExLicense
  02212	e8 00 00 00 00	 call	 ?CheckUser@CExLicense@@QAE_NH@Z ; CExLicense::CheckUser
  02217	0f b6 c0	 movzx	 eax, al
  0221a	85 c0		 test	 eax, eax
  0221c	75 66		 jne	 SHORT $LN4@NpcDialog
  0221e	6a 31		 push	 49			; 00000031H
  02220	b9 00 00 00 00	 mov	 ecx, OFFSET ?g_ExLicense@@3VCExLicense@@A ; g_ExLicense
  02225	e8 00 00 00 00	 call	 ?CheckUser@CExLicense@@QAE_NH@Z ; CExLicense::CheckUser
  0222a	0f b6 c0	 movzx	 eax, al
  0222d	85 c0		 test	 eax, eax
  0222f	75 53		 jne	 SHORT $LN4@NpcDialog
  02231	6a 4e		 push	 78			; 0000004eH
  02233	b9 00 00 00 00	 mov	 ecx, OFFSET ?g_ExLicense@@3VCExLicense@@A ; g_ExLicense
  02238	e8 00 00 00 00	 call	 ?CheckUser@CExLicense@@QAE_NH@Z ; CExLicense::CheckUser
  0223d	0f b6 c0	 movzx	 eax, al
  02240	85 c0		 test	 eax, eax
  02242	75 40		 jne	 SHORT $LN4@NpcDialog
  02244	6a 40		 push	 64			; 00000040H
  02246	b9 00 00 00 00	 mov	 ecx, OFFSET ?g_ExLicense@@3VCExLicense@@A ; g_ExLicense
  0224b	e8 00 00 00 00	 call	 ?CheckUser@CExLicense@@QAE_NH@Z ; CExLicense::CheckUser
  02250	0f b6 c0	 movzx	 eax, al
  02253	85 c0		 test	 eax, eax
  02255	75 2d		 jne	 SHORT $LN4@NpcDialog
  02257	6a 4f		 push	 79			; 0000004fH
  02259	b9 00 00 00 00	 mov	 ecx, OFFSET ?g_ExLicense@@3VCExLicense@@A ; g_ExLicense
  0225e	e8 00 00 00 00	 call	 ?CheckUser@CExLicense@@QAE_NH@Z ; CExLicense::CheckUser
  02263	0f b6 c0	 movzx	 eax, al
  02266	85 c0		 test	 eax, eax
  02268	75 1a		 jne	 SHORT $LN4@NpcDialog
  0226a	6a 51		 push	 81			; 00000051H
  0226c	b9 00 00 00 00	 mov	 ecx, OFFSET ?g_ExLicense@@3VCExLicense@@A ; g_ExLicense
  02271	e8 00 00 00 00	 call	 ?CheckUser@CExLicense@@QAE_NH@Z ; CExLicense::CheckUser
  02276	0f b6 c0	 movzx	 eax, al
  02279	85 c0		 test	 eax, eax
  0227b	75 07		 jne	 SHORT $LN4@NpcDialog

; 764  : 	{
; 765  : 		return false;

  0227d	32 c0		 xor	 al, al
  0227f	e9 e6 00 00 00	 jmp	 $LN5@NpcDialog
$LN4@NpcDialog:

; 766  : 	}
; 767  : 
; 768  : 	if(!OBJMAX_RANGE(aIndex) && !OBJMAX_RANGE(aNpcIndex))

  02284	83 7d 08 00	 cmp	 DWORD PTR _aIndex$[ebp], 0
  02288	7d 09		 jge	 SHORT $LN7@NpcDialog
  0228a	c7 45 b0 00 00
	00 00		 mov	 DWORD PTR tv154[ebp], 0
  02291	eb 0f		 jmp	 SHORT $LN8@NpcDialog
$LN7@NpcDialog:
  02293	33 c0		 xor	 eax, eax
  02295	81 7d 08 97 3a
	00 00		 cmp	 DWORD PTR _aIndex$[ebp], 14999 ; 00003a97H
  0229c	0f 9e c0	 setle	 al
  0229f	89 45 b0	 mov	 DWORD PTR tv154[ebp], eax
$LN8@NpcDialog:
  022a2	83 7d b0 00	 cmp	 DWORD PTR tv154[ebp], 0
  022a6	75 2b		 jne	 SHORT $LN3@NpcDialog
  022a8	83 7d 0c 00	 cmp	 DWORD PTR _aNpcIndex$[ebp], 0
  022ac	7d 09		 jge	 SHORT $LN9@NpcDialog
  022ae	c7 45 b0 00 00
	00 00		 mov	 DWORD PTR tv159[ebp], 0
  022b5	eb 0f		 jmp	 SHORT $LN10@NpcDialog
$LN9@NpcDialog:
  022b7	33 c0		 xor	 eax, eax
  022b9	81 7d 0c 97 3a
	00 00		 cmp	 DWORD PTR _aNpcIndex$[ebp], 14999 ; 00003a97H
  022c0	0f 9e c0	 setle	 al
  022c3	89 45 b0	 mov	 DWORD PTR tv159[ebp], eax
$LN10@NpcDialog:
  022c6	83 7d b0 00	 cmp	 DWORD PTR tv159[ebp], 0
  022ca	75 07		 jne	 SHORT $LN3@NpcDialog

; 769  : 	{
; 770  : 		return false;

  022cc	32 c0		 xor	 al, al
  022ce	e9 97 00 00 00	 jmp	 $LN5@NpcDialog
$LN3@NpcDialog:

; 771  : 	}
; 772  : 
; 773  : 	LPOBJ lpUser = &gObj[aIndex];

  022d3	8b 45 08	 mov	 eax, DWORD PTR _aIndex$[ebp]
  022d6	69 c0 38 2b 00
	00		 imul	 eax, 11064		; 00002b38H
  022dc	03 05 00 00 00
	00		 add	 eax, DWORD PTR ?gObj@@3PAUOBJECTSTRUCT@@A ; gObj
  022e2	89 45 f8	 mov	 DWORD PTR _lpUser$[ebp], eax

; 774  : 	LPOBJ lpNpc = &gObj[aNpcIndex];

  022e5	8b 45 0c	 mov	 eax, DWORD PTR _aNpcIndex$[ebp]
  022e8	69 c0 38 2b 00
	00		 imul	 eax, 11064		; 00002b38H
  022ee	03 05 00 00 00
	00		 add	 eax, DWORD PTR ?gObj@@3PAUOBJECTSTRUCT@@A ; gObj
  022f4	89 45 f4	 mov	 DWORD PTR _lpNpc$[ebp], eax

; 775  : 
; 776  : 	if(lpUser->Connected < PLAYER_PLAYING)

  022f7	8b 45 f8	 mov	 eax, DWORD PTR _lpUser$[ebp]
  022fa	83 78 04 03	 cmp	 DWORD PTR [eax+4], 3
  022fe	7d 04		 jge	 SHORT $LN2@NpcDialog

; 777  : 	{
; 778  : 		return false;

  02300	32 c0		 xor	 al, al
  02302	eb 66		 jmp	 SHORT $LN5@NpcDialog
$LN2@NpcDialog:

; 779  : 	}
; 780  : 
; 781  : 	if( lpNpc->Class		== this->m_NpcClass  &&
; 782  : 		lpNpc->MapNumber	== this->m_NpcMap &&
; 783  : 		lpNpc->X			== this->m_NpcX   &&
; 784  : 	    lpNpc->Y			== this->m_NpcY )

  02304	8b 45 f4	 mov	 eax, DWORD PTR _lpNpc$[ebp]
  02307	0f b7 88 b8 00
	00 00		 movzx	 ecx, WORD PTR [eax+184]
  0230e	8b 55 fc	 mov	 edx, DWORD PTR _this$[ebp]
  02311	3b 8a c8 00 00
	00		 cmp	 ecx, DWORD PTR [edx+200]
  02317	75 4f		 jne	 SHORT $LN1@NpcDialog
  02319	8b 45 f4	 mov	 eax, DWORD PTR _lpNpc$[ebp]
  0231c	0f b6 88 49 01
	00 00		 movzx	 ecx, BYTE PTR [eax+329]
  02323	8b 55 fc	 mov	 edx, DWORD PTR _this$[ebp]
  02326	3b 8a cc 00 00
	00		 cmp	 ecx, DWORD PTR [edx+204]
  0232c	75 3a		 jne	 SHORT $LN1@NpcDialog
  0232e	8b 45 f4	 mov	 eax, DWORD PTR _lpNpc$[ebp]
  02331	0f bf 88 44 01
	00 00		 movsx	 ecx, WORD PTR [eax+324]
  02338	8b 55 fc	 mov	 edx, DWORD PTR _this$[ebp]
  0233b	3b 8a d0 00 00
	00		 cmp	 ecx, DWORD PTR [edx+208]
  02341	75 25		 jne	 SHORT $LN1@NpcDialog
  02343	8b 45 f4	 mov	 eax, DWORD PTR _lpNpc$[ebp]
  02346	0f bf 88 46 01
	00 00		 movsx	 ecx, WORD PTR [eax+326]
  0234d	8b 55 fc	 mov	 edx, DWORD PTR _this$[ebp]
  02350	3b 8a d4 00 00
	00		 cmp	 ecx, DWORD PTR [edx+212]
  02356	75 10		 jne	 SHORT $LN1@NpcDialog

; 785  : 	{
; 786  : 		this->GCDialogInfo(aIndex);

  02358	8b 45 08	 mov	 eax, DWORD PTR _aIndex$[ebp]
  0235b	50		 push	 eax
  0235c	8b 4d fc	 mov	 ecx, DWORD PTR _this$[ebp]
  0235f	e8 00 00 00 00	 call	 ?GCDialogInfo@cGrandReset@@QAEXH@Z ; cGrandReset::GCDialogInfo

; 787  : 		return true;

  02364	b0 01		 mov	 al, 1
  02366	eb 02		 jmp	 SHORT $LN5@NpcDialog
$LN1@NpcDialog:

; 788  : 	}
; 789  : 
; 790  : 	return false;

  02368	32 c0		 xor	 al, al
$LN5@NpcDialog:

; 791  : }

  0236a	5f		 pop	 edi
  0236b	5e		 pop	 esi
  0236c	5b		 pop	 ebx
  0236d	8b e5		 mov	 esp, ebp
  0236f	5d		 pop	 ebp
  02370	c2 08 00	 ret	 8
?NpcDialog@cGrandReset@@QAE_NHH@Z ENDP			; cGrandReset::NpcDialog
; Function compile flags: /Odtp /ZI
; File d:\microsoft visual studio 10.0\vc\include\vector
_TEXT	ENDS
;	COMDAT ?size@?$vector@UGrandResetEXP@@V?$allocator@UGrandResetEXP@@@std@@@std@@QBEIXZ
_TEXT	SEGMENT
_this$ = -4						; size = 4
?size@?$vector@UGrandResetEXP@@V?$allocator@UGrandResetEXP@@@std@@@std@@QBEIXZ PROC ; std::vector<GrandResetEXP,std::allocator<GrandResetEXP> >::size, COMDAT
; _this$ = ecx

; 878  : 		{	// return length of sequence

  00000	55		 push	 ebp
  00001	8b ec		 mov	 ebp, esp
  00003	83 ec 44	 sub	 esp, 68			; 00000044H
  00006	53		 push	 ebx
  00007	56		 push	 esi
  00008	57		 push	 edi
  00009	89 4d fc	 mov	 DWORD PTR _this$[ebp], ecx

; 879  : 		return (this->_Mylast - this->_Myfirst);

  0000c	8b 45 fc	 mov	 eax, DWORD PTR _this$[ebp]
  0000f	8b 4d fc	 mov	 ecx, DWORD PTR _this$[ebp]
  00012	8b 40 04	 mov	 eax, DWORD PTR [eax+4]
  00015	2b 01		 sub	 eax, DWORD PTR [ecx]
  00017	c1 f8 03	 sar	 eax, 3

; 880  : 		}

  0001a	5f		 pop	 edi
  0001b	5e		 pop	 esi
  0001c	5b		 pop	 ebx
  0001d	8b e5		 mov	 esp, ebp
  0001f	5d		 pop	 ebp
  00020	c3		 ret	 0
?size@?$vector@UGrandResetEXP@@V?$allocator@UGrandResetEXP@@@std@@@std@@QBEIXZ ENDP ; std::vector<GrandResetEXP,std::allocator<GrandResetEXP> >::size
; Function compile flags: /Odtp /ZI
_TEXT	ENDS
;	COMDAT ??A?$vector@UGrandResetEXP@@V?$allocator@UGrandResetEXP@@@std@@@std@@QAEAAUGrandResetEXP@@I@Z
_TEXT	SEGMENT
_this$ = -4						; size = 4
__Pos$ = 8						; size = 4
??A?$vector@UGrandResetEXP@@V?$allocator@UGrandResetEXP@@@std@@@std@@QAEAAUGrandResetEXP@@I@Z PROC ; std::vector<GrandResetEXP,std::allocator<GrandResetEXP> >::operator[], COMDAT
; _this$ = ecx

; 928  : 		{	// subscript mutable sequence

  00000	55		 push	 ebp
  00001	8b ec		 mov	 ebp, esp
  00003	83 ec 44	 sub	 esp, 68			; 00000044H
  00006	53		 push	 ebx
  00007	56		 push	 esi
  00008	57		 push	 edi
  00009	89 4d fc	 mov	 DWORD PTR _this$[ebp], ecx

; 929  :  #if _ITERATOR_DEBUG_LEVEL == 2
; 930  : 		if (size() <= _Pos)
; 931  : 			{	// report error
; 932  : 			_DEBUG_ERROR("vector subscript out of range");
; 933  : 			_SCL_SECURE_OUT_OF_RANGE;
; 934  : 			}
; 935  : 
; 936  :  #elif _ITERATOR_DEBUG_LEVEL == 1
; 937  : 		_SCL_SECURE_VALIDATE_RANGE(_Pos < size());
; 938  :  #endif /* _ITERATOR_DEBUG_LEVEL */
; 939  : 
; 940  : 		return (*(this->_Myfirst + _Pos));

  0000c	8b 45 fc	 mov	 eax, DWORD PTR _this$[ebp]
  0000f	8b 08		 mov	 ecx, DWORD PTR [eax]
  00011	8b 55 08	 mov	 edx, DWORD PTR __Pos$[ebp]
  00014	8d 04 d1	 lea	 eax, DWORD PTR [ecx+edx*8]

; 941  : 		}

  00017	5f		 pop	 edi
  00018	5e		 pop	 esi
  00019	5b		 pop	 ebx
  0001a	8b e5		 mov	 esp, ebp
  0001c	5d		 pop	 ebp
  0001d	c2 04 00	 ret	 4
??A?$vector@UGrandResetEXP@@V?$allocator@UGrandResetEXP@@@std@@@std@@QAEAAUGrandResetEXP@@I@Z ENDP ; std::vector<GrandResetEXP,std::allocator<GrandResetEXP> >::operator[]
_TEXT	ENDS
PUBLIC	??$_Cons_val@V?$allocator@UGrandResetEXP@@@std@@UGrandResetEXP@@ABU3@@std@@YAXAAV?$allocator@UGrandResetEXP@@@0@PAUGrandResetEXP@@ABU2@@Z ; std::_Cons_val<std::allocator<GrandResetEXP>,GrandResetEXP,GrandResetEXP const &>
PUBLIC	??$_Cons_val@V?$allocator@UGrandResetEXP@@@std@@UGrandResetEXP@@AAU3@@std@@YAXAAV?$allocator@UGrandResetEXP@@@0@PAUGrandResetEXP@@AAU2@@Z ; std::_Cons_val<std::allocator<GrandResetEXP>,GrandResetEXP,GrandResetEXP &>
PUBLIC	?_Orphan_range@?$vector@UGrandResetEXP@@V?$allocator@UGrandResetEXP@@@std@@@std@@IBEXPAUGrandResetEXP@@0@Z ; std::vector<GrandResetEXP,std::allocator<GrandResetEXP> >::_Orphan_range
PUBLIC	?_Reserve@?$vector@UGrandResetEXP@@V?$allocator@UGrandResetEXP@@@std@@@std@@IAEXI@Z ; std::vector<GrandResetEXP,std::allocator<GrandResetEXP> >::_Reserve
PUBLIC	?_Inside@?$vector@UGrandResetEXP@@V?$allocator@UGrandResetEXP@@@std@@@std@@IBE_NPBUGrandResetEXP@@@Z ; std::vector<GrandResetEXP,std::allocator<GrandResetEXP> >::_Inside
PUBLIC	??$addressof@$$CBUGrandResetEXP@@@std@@YAPBUGrandResetEXP@@ABU1@@Z ; std::addressof<GrandResetEXP const >
; Function compile flags: /Odtp /ZI
;	COMDAT ?push_back@?$vector@UGrandResetEXP@@V?$allocator@UGrandResetEXP@@@std@@@std@@QAEXABUGrandResetEXP@@@Z
_TEXT	SEGMENT
__Idx$231953 = -8					; size = 4
_this$ = -4						; size = 4
__Val$ = 8						; size = 4
?push_back@?$vector@UGrandResetEXP@@V?$allocator@UGrandResetEXP@@@std@@@std@@QAEXABUGrandResetEXP@@@Z PROC ; std::vector<GrandResetEXP,std::allocator<GrandResetEXP> >::push_back, COMDAT
; _this$ = ecx

; 976  : 		{	// insert element at end

  00000	55		 push	 ebp
  00001	8b ec		 mov	 ebp, esp
  00003	83 ec 48	 sub	 esp, 72			; 00000048H
  00006	53		 push	 ebx
  00007	56		 push	 esi
  00008	57		 push	 edi
  00009	89 4d fc	 mov	 DWORD PTR _this$[ebp], ecx

; 977  : 		if (_Inside(_STD addressof(_Val)))

  0000c	8b 45 08	 mov	 eax, DWORD PTR __Val$[ebp]
  0000f	50		 push	 eax
  00010	e8 00 00 00 00	 call	 ??$addressof@$$CBUGrandResetEXP@@@std@@YAPBUGrandResetEXP@@ABU1@@Z ; std::addressof<GrandResetEXP const >
  00015	83 c4 04	 add	 esp, 4
  00018	50		 push	 eax
  00019	8b 4d fc	 mov	 ecx, DWORD PTR _this$[ebp]
  0001c	e8 00 00 00 00	 call	 ?_Inside@?$vector@UGrandResetEXP@@V?$allocator@UGrandResetEXP@@@std@@@std@@IBE_NPBUGrandResetEXP@@@Z ; std::vector<GrandResetEXP,std::allocator<GrandResetEXP> >::_Inside
  00021	0f b6 c8	 movzx	 ecx, al
  00024	85 c9		 test	 ecx, ecx
  00026	74 78		 je	 SHORT $LN4@push_back

; 978  : 			{	// push back an element
; 979  : 			size_type _Idx = _STD addressof(_Val) - this->_Myfirst;

  00028	8b 45 08	 mov	 eax, DWORD PTR __Val$[ebp]
  0002b	50		 push	 eax
  0002c	e8 00 00 00 00	 call	 ??$addressof@$$CBUGrandResetEXP@@@std@@YAPBUGrandResetEXP@@ABU1@@Z ; std::addressof<GrandResetEXP const >
  00031	83 c4 04	 add	 esp, 4
  00034	8b 4d fc	 mov	 ecx, DWORD PTR _this$[ebp]
  00037	2b 01		 sub	 eax, DWORD PTR [ecx]
  00039	c1 f8 03	 sar	 eax, 3
  0003c	89 45 f8	 mov	 DWORD PTR __Idx$231953[ebp], eax

; 980  : 			if (this->_Mylast == this->_Myend)

  0003f	8b 45 fc	 mov	 eax, DWORD PTR _this$[ebp]
  00042	8b 4d fc	 mov	 ecx, DWORD PTR _this$[ebp]
  00045	8b 50 04	 mov	 edx, DWORD PTR [eax+4]
  00048	3b 51 08	 cmp	 edx, DWORD PTR [ecx+8]
  0004b	75 0a		 jne	 SHORT $LN3@push_back

; 981  : 				_Reserve(1);

  0004d	6a 01		 push	 1
  0004f	8b 4d fc	 mov	 ecx, DWORD PTR _this$[ebp]
  00052	e8 00 00 00 00	 call	 ?_Reserve@?$vector@UGrandResetEXP@@V?$allocator@UGrandResetEXP@@@std@@@std@@IAEXI@Z ; std::vector<GrandResetEXP,std::allocator<GrandResetEXP> >::_Reserve
$LN3@push_back:

; 982  : 			_Orphan_range(this->_Mylast, this->_Mylast);

  00057	8b 45 fc	 mov	 eax, DWORD PTR _this$[ebp]
  0005a	8b 48 04	 mov	 ecx, DWORD PTR [eax+4]
  0005d	51		 push	 ecx
  0005e	8b 55 fc	 mov	 edx, DWORD PTR _this$[ebp]
  00061	8b 42 04	 mov	 eax, DWORD PTR [edx+4]
  00064	50		 push	 eax
  00065	8b 4d fc	 mov	 ecx, DWORD PTR _this$[ebp]
  00068	e8 00 00 00 00	 call	 ?_Orphan_range@?$vector@UGrandResetEXP@@V?$allocator@UGrandResetEXP@@@std@@@std@@IBEXPAUGrandResetEXP@@0@Z ; std::vector<GrandResetEXP,std::allocator<GrandResetEXP> >::_Orphan_range

; 983  : 			_Cons_val(this->_Alval,
; 984  : 				this->_Mylast,
; 985  : 				this->_Myfirst[_Idx]);

  0006d	8b 45 fc	 mov	 eax, DWORD PTR _this$[ebp]
  00070	8b 08		 mov	 ecx, DWORD PTR [eax]
  00072	8b 55 f8	 mov	 edx, DWORD PTR __Idx$231953[ebp]
  00075	8d 04 d1	 lea	 eax, DWORD PTR [ecx+edx*8]
  00078	50		 push	 eax
  00079	8b 4d fc	 mov	 ecx, DWORD PTR _this$[ebp]
  0007c	8b 51 04	 mov	 edx, DWORD PTR [ecx+4]
  0007f	52		 push	 edx
  00080	8b 45 fc	 mov	 eax, DWORD PTR _this$[ebp]
  00083	83 c0 0c	 add	 eax, 12			; 0000000cH
  00086	50		 push	 eax
  00087	e8 00 00 00 00	 call	 ??$_Cons_val@V?$allocator@UGrandResetEXP@@@std@@UGrandResetEXP@@AAU3@@std@@YAXAAV?$allocator@UGrandResetEXP@@@0@PAUGrandResetEXP@@AAU2@@Z ; std::_Cons_val<std::allocator<GrandResetEXP>,GrandResetEXP,GrandResetEXP &>
  0008c	83 c4 0c	 add	 esp, 12			; 0000000cH

; 986  : 			++this->_Mylast;

  0008f	8b 45 fc	 mov	 eax, DWORD PTR _this$[ebp]
  00092	8b 48 04	 mov	 ecx, DWORD PTR [eax+4]
  00095	83 c1 08	 add	 ecx, 8
  00098	8b 55 fc	 mov	 edx, DWORD PTR _this$[ebp]
  0009b	89 4a 04	 mov	 DWORD PTR [edx+4], ecx

; 987  : 			}
; 988  : 		else

  0009e	eb 57		 jmp	 SHORT $LN5@push_back
$LN4@push_back:

; 989  : 			{	// push back a non-element
; 990  : 			if (this->_Mylast == this->_Myend)

  000a0	8b 45 fc	 mov	 eax, DWORD PTR _this$[ebp]
  000a3	8b 4d fc	 mov	 ecx, DWORD PTR _this$[ebp]
  000a6	8b 50 04	 mov	 edx, DWORD PTR [eax+4]
  000a9	3b 51 08	 cmp	 edx, DWORD PTR [ecx+8]
  000ac	75 0a		 jne	 SHORT $LN1@push_back

; 991  : 				_Reserve(1);

  000ae	6a 01		 push	 1
  000b0	8b 4d fc	 mov	 ecx, DWORD PTR _this$[ebp]
  000b3	e8 00 00 00 00	 call	 ?_Reserve@?$vector@UGrandResetEXP@@V?$allocator@UGrandResetEXP@@@std@@@std@@IAEXI@Z ; std::vector<GrandResetEXP,std::allocator<GrandResetEXP> >::_Reserve
$LN1@push_back:

; 992  : 			_Orphan_range(this->_Mylast, this->_Mylast);

  000b8	8b 45 fc	 mov	 eax, DWORD PTR _this$[ebp]
  000bb	8b 48 04	 mov	 ecx, DWORD PTR [eax+4]
  000be	51		 push	 ecx
  000bf	8b 55 fc	 mov	 edx, DWORD PTR _this$[ebp]
  000c2	8b 42 04	 mov	 eax, DWORD PTR [edx+4]
  000c5	50		 push	 eax
  000c6	8b 4d fc	 mov	 ecx, DWORD PTR _this$[ebp]
  000c9	e8 00 00 00 00	 call	 ?_Orphan_range@?$vector@UGrandResetEXP@@V?$allocator@UGrandResetEXP@@@std@@@std@@IBEXPAUGrandResetEXP@@0@Z ; std::vector<GrandResetEXP,std::allocator<GrandResetEXP> >::_Orphan_range

; 993  : 			_Cons_val(this->_Alval,
; 994  : 				this->_Mylast,
; 995  : 				_Val);

  000ce	8b 45 08	 mov	 eax, DWORD PTR __Val$[ebp]
  000d1	50		 push	 eax
  000d2	8b 4d fc	 mov	 ecx, DWORD PTR _this$[ebp]
  000d5	8b 51 04	 mov	 edx, DWORD PTR [ecx+4]
  000d8	52		 push	 edx
  000d9	8b 45 fc	 mov	 eax, DWORD PTR _this$[ebp]
  000dc	83 c0 0c	 add	 eax, 12			; 0000000cH
  000df	50		 push	 eax
  000e0	e8 00 00 00 00	 call	 ??$_Cons_val@V?$allocator@UGrandResetEXP@@@std@@UGrandResetEXP@@ABU3@@std@@YAXAAV?$allocator@UGrandResetEXP@@@0@PAUGrandResetEXP@@ABU2@@Z ; std::_Cons_val<std::allocator<GrandResetEXP>,GrandResetEXP,GrandResetEXP const &>
  000e5	83 c4 0c	 add	 esp, 12			; 0000000cH

; 996  : 			++this->_Mylast;

  000e8	8b 45 fc	 mov	 eax, DWORD PTR _this$[ebp]
  000eb	8b 48 04	 mov	 ecx, DWORD PTR [eax+4]
  000ee	83 c1 08	 add	 ecx, 8
  000f1	8b 55 fc	 mov	 edx, DWORD PTR _this$[ebp]
  000f4	89 4a 04	 mov	 DWORD PTR [edx+4], ecx
$LN5@push_back:

; 997  : 			}
; 998  : 		}

  000f7	5f		 pop	 edi
  000f8	5e		 pop	 esi
  000f9	5b		 pop	 ebx
  000fa	8b e5		 mov	 esp, ebp
  000fc	5d		 pop	 ebp
  000fd	c2 04 00	 ret	 4
?push_back@?$vector@UGrandResetEXP@@V?$allocator@UGrandResetEXP@@@std@@@std@@QAEXABUGrandResetEXP@@@Z ENDP ; std::vector<GrandResetEXP,std::allocator<GrandResetEXP> >::push_back
_TEXT	ENDS
PUBLIC	?erase@?$vector@UGrandResetEXP@@V?$allocator@UGrandResetEXP@@@std@@@std@@QAE?AV?$_Vector_iterator@V?$_Vector_val@UGrandResetEXP@@V?$allocator@UGrandResetEXP@@@std@@@std@@@2@V?$_Vector_const_iterator@V?$_Vector_val@UGrandResetEXP@@V?$allocator@UGrandResetEXP@@@std@@@std@@@2@0@Z ; std::vector<GrandResetEXP,std::allocator<GrandResetEXP> >::erase
PUBLIC	?begin@?$vector@UGrandResetEXP@@V?$allocator@UGrandResetEXP@@@std@@@std@@QAE?AV?$_Vector_iterator@V?$_Vector_val@UGrandResetEXP@@V?$allocator@UGrandResetEXP@@@std@@@std@@@2@XZ ; std::vector<GrandResetEXP,std::allocator<GrandResetEXP> >::begin
PUBLIC	?end@?$vector@UGrandResetEXP@@V?$allocator@UGrandResetEXP@@@std@@@std@@QAE?AV?$_Vector_iterator@V?$_Vector_val@UGrandResetEXP@@V?$allocator@UGrandResetEXP@@@std@@@std@@@2@XZ ; std::vector<GrandResetEXP,std::allocator<GrandResetEXP> >::end
; Function compile flags: /Odtp /ZI
;	COMDAT ?clear@?$vector@UGrandResetEXP@@V?$allocator@UGrandResetEXP@@@std@@@std@@QAEXXZ
_TEXT	SEGMENT
$T233583 = -88						; size = 4
$T233584 = -84						; size = 4
$T233585 = -80						; size = 4
$T233586 = -76						; size = 4
$T233587 = -72						; size = 4
_this$ = -4						; size = 4
?clear@?$vector@UGrandResetEXP@@V?$allocator@UGrandResetEXP@@@std@@@std@@QAEXXZ PROC ; std::vector<GrandResetEXP,std::allocator<GrandResetEXP> >::clear, COMDAT
; _this$ = ecx

; 1217 : 		{	// erase all

  00000	55		 push	 ebp
  00001	8b ec		 mov	 ebp, esp
  00003	83 ec 58	 sub	 esp, 88			; 00000058H
  00006	53		 push	 ebx
  00007	56		 push	 esi
  00008	57		 push	 edi
  00009	89 4d fc	 mov	 DWORD PTR _this$[ebp], ecx

; 1218 : 		erase(begin(), end());

  0000c	8d 45 ac	 lea	 eax, DWORD PTR $T233584[ebp]
  0000f	50		 push	 eax
  00010	8b 4d fc	 mov	 ecx, DWORD PTR _this$[ebp]
  00013	e8 00 00 00 00	 call	 ?end@?$vector@UGrandResetEXP@@V?$allocator@UGrandResetEXP@@@std@@@std@@QAE?AV?$_Vector_iterator@V?$_Vector_val@UGrandResetEXP@@V?$allocator@UGrandResetEXP@@@std@@@std@@@2@XZ ; std::vector<GrandResetEXP,std::allocator<GrandResetEXP> >::end
  00018	8b 08		 mov	 ecx, DWORD PTR [eax]
  0001a	89 4d a8	 mov	 DWORD PTR $T233583[ebp], ecx
  0001d	8d 55 b4	 lea	 edx, DWORD PTR $T233586[ebp]
  00020	52		 push	 edx
  00021	8b 4d fc	 mov	 ecx, DWORD PTR _this$[ebp]
  00024	e8 00 00 00 00	 call	 ?begin@?$vector@UGrandResetEXP@@V?$allocator@UGrandResetEXP@@@std@@@std@@QAE?AV?$_Vector_iterator@V?$_Vector_val@UGrandResetEXP@@V?$allocator@UGrandResetEXP@@@std@@@std@@@2@XZ ; std::vector<GrandResetEXP,std::allocator<GrandResetEXP> >::begin
  00029	8b 00		 mov	 eax, DWORD PTR [eax]
  0002b	89 45 b0	 mov	 DWORD PTR $T233585[ebp], eax
  0002e	8b 4d a8	 mov	 ecx, DWORD PTR $T233583[ebp]
  00031	51		 push	 ecx
  00032	8b 55 b0	 mov	 edx, DWORD PTR $T233585[ebp]
  00035	52		 push	 edx
  00036	8d 45 b8	 lea	 eax, DWORD PTR $T233587[ebp]
  00039	50		 push	 eax
  0003a	8b 4d fc	 mov	 ecx, DWORD PTR _this$[ebp]
  0003d	e8 00 00 00 00	 call	 ?erase@?$vector@UGrandResetEXP@@V?$allocator@UGrandResetEXP@@@std@@@std@@QAE?AV?$_Vector_iterator@V?$_Vector_val@UGrandResetEXP@@V?$allocator@UGrandResetEXP@@@std@@@std@@@2@V?$_Vector_const_iterator@V?$_Vector_val@UGrandResetEXP@@V?$allocator@UGrandResetEXP@@@std@@@std@@@2@0@Z ; std::vector<GrandResetEXP,std::allocator<GrandResetEXP> >::erase

; 1219 : 		}

  00042	5f		 pop	 edi
  00043	5e		 pop	 esi
  00044	5b		 pop	 ebx
  00045	8b e5		 mov	 esp, ebp
  00047	5d		 pop	 ebp
  00048	c3		 ret	 0
?clear@?$vector@UGrandResetEXP@@V?$allocator@UGrandResetEXP@@@std@@@std@@QAEXXZ ENDP ; std::vector<GrandResetEXP,std::allocator<GrandResetEXP> >::clear
; Function compile flags: /Odtp /ZI
_TEXT	ENDS
;	COMDAT ?size@?$vector@UGRANDSYSTEM_REWARD_DATA@@V?$allocator@UGRANDSYSTEM_REWARD_DATA@@@std@@@std@@QBEIXZ
_TEXT	SEGMENT
_this$ = -4						; size = 4
?size@?$vector@UGRANDSYSTEM_REWARD_DATA@@V?$allocator@UGRANDSYSTEM_REWARD_DATA@@@std@@@std@@QBEIXZ PROC ; std::vector<GRANDSYSTEM_REWARD_DATA,std::allocator<GRANDSYSTEM_REWARD_DATA> >::size, COMDAT
; _this$ = ecx

; 878  : 		{	// return length of sequence

  00000	55		 push	 ebp
  00001	8b ec		 mov	 ebp, esp
  00003	83 ec 44	 sub	 esp, 68			; 00000044H
  00006	53		 push	 ebx
  00007	56		 push	 esi
  00008	57		 push	 edi
  00009	89 4d fc	 mov	 DWORD PTR _this$[ebp], ecx

; 879  : 		return (this->_Mylast - this->_Myfirst);

  0000c	8b 45 fc	 mov	 eax, DWORD PTR _this$[ebp]
  0000f	8b 4d fc	 mov	 ecx, DWORD PTR _this$[ebp]
  00012	8b 40 04	 mov	 eax, DWORD PTR [eax+4]
  00015	2b 01		 sub	 eax, DWORD PTR [ecx]
  00017	99		 cdq
  00018	b9 24 00 00 00	 mov	 ecx, 36			; 00000024H
  0001d	f7 f9		 idiv	 ecx

; 880  : 		}

  0001f	5f		 pop	 edi
  00020	5e		 pop	 esi
  00021	5b		 pop	 ebx
  00022	8b e5		 mov	 esp, ebp
  00024	5d		 pop	 ebp
  00025	c3		 ret	 0
?size@?$vector@UGRANDSYSTEM_REWARD_DATA@@V?$allocator@UGRANDSYSTEM_REWARD_DATA@@@std@@@std@@QBEIXZ ENDP ; std::vector<GRANDSYSTEM_REWARD_DATA,std::allocator<GRANDSYSTEM_REWARD_DATA> >::size
; Function compile flags: /Odtp /ZI
_TEXT	ENDS
;	COMDAT ??A?$vector@UGRANDSYSTEM_REWARD_DATA@@V?$allocator@UGRANDSYSTEM_REWARD_DATA@@@std@@@std@@QAEAAUGRANDSYSTEM_REWARD_DATA@@I@Z
_TEXT	SEGMENT
_this$ = -4						; size = 4
__Pos$ = 8						; size = 4
??A?$vector@UGRANDSYSTEM_REWARD_DATA@@V?$allocator@UGRANDSYSTEM_REWARD_DATA@@@std@@@std@@QAEAAUGRANDSYSTEM_REWARD_DATA@@I@Z PROC ; std::vector<GRANDSYSTEM_REWARD_DATA,std::allocator<GRANDSYSTEM_REWARD_DATA> >::operator[], COMDAT
; _this$ = ecx

; 928  : 		{	// subscript mutable sequence

  00000	55		 push	 ebp
  00001	8b ec		 mov	 ebp, esp
  00003	83 ec 44	 sub	 esp, 68			; 00000044H
  00006	53		 push	 ebx
  00007	56		 push	 esi
  00008	57		 push	 edi
  00009	89 4d fc	 mov	 DWORD PTR _this$[ebp], ecx

; 929  :  #if _ITERATOR_DEBUG_LEVEL == 2
; 930  : 		if (size() <= _Pos)
; 931  : 			{	// report error
; 932  : 			_DEBUG_ERROR("vector subscript out of range");
; 933  : 			_SCL_SECURE_OUT_OF_RANGE;
; 934  : 			}
; 935  : 
; 936  :  #elif _ITERATOR_DEBUG_LEVEL == 1
; 937  : 		_SCL_SECURE_VALIDATE_RANGE(_Pos < size());
; 938  :  #endif /* _ITERATOR_DEBUG_LEVEL */
; 939  : 
; 940  : 		return (*(this->_Myfirst + _Pos));

  0000c	8b 45 08	 mov	 eax, DWORD PTR __Pos$[ebp]
  0000f	6b c0 24	 imul	 eax, 36			; 00000024H
  00012	8b 4d fc	 mov	 ecx, DWORD PTR _this$[ebp]
  00015	03 01		 add	 eax, DWORD PTR [ecx]

; 941  : 		}

  00017	5f		 pop	 edi
  00018	5e		 pop	 esi
  00019	5b		 pop	 ebx
  0001a	8b e5		 mov	 esp, ebp
  0001c	5d		 pop	 ebp
  0001d	c2 04 00	 ret	 4
??A?$vector@UGRANDSYSTEM_REWARD_DATA@@V?$allocator@UGRANDSYSTEM_REWARD_DATA@@@std@@@std@@QAEAAUGRANDSYSTEM_REWARD_DATA@@I@Z ENDP ; std::vector<GRANDSYSTEM_REWARD_DATA,std::allocator<GRANDSYSTEM_REWARD_DATA> >::operator[]
_TEXT	ENDS
PUBLIC	??$_Cons_val@V?$allocator@UGRANDSYSTEM_REWARD_DATA@@@std@@UGRANDSYSTEM_REWARD_DATA@@ABU3@@std@@YAXAAV?$allocator@UGRANDSYSTEM_REWARD_DATA@@@0@PAUGRANDSYSTEM_REWARD_DATA@@ABU2@@Z ; std::_Cons_val<std::allocator<GRANDSYSTEM_REWARD_DATA>,GRANDSYSTEM_REWARD_DATA,GRANDSYSTEM_REWARD_DATA const &>
PUBLIC	??$_Cons_val@V?$allocator@UGRANDSYSTEM_REWARD_DATA@@@std@@UGRANDSYSTEM_REWARD_DATA@@AAU3@@std@@YAXAAV?$allocator@UGRANDSYSTEM_REWARD_DATA@@@0@PAUGRANDSYSTEM_REWARD_DATA@@AAU2@@Z ; std::_Cons_val<std::allocator<GRANDSYSTEM_REWARD_DATA>,GRANDSYSTEM_REWARD_DATA,GRANDSYSTEM_REWARD_DATA &>
PUBLIC	?_Orphan_range@?$vector@UGRANDSYSTEM_REWARD_DATA@@V?$allocator@UGRANDSYSTEM_REWARD_DATA@@@std@@@std@@IBEXPAUGRANDSYSTEM_REWARD_DATA@@0@Z ; std::vector<GRANDSYSTEM_REWARD_DATA,std::allocator<GRANDSYSTEM_REWARD_DATA> >::_Orphan_range
PUBLIC	?_Reserve@?$vector@UGRANDSYSTEM_REWARD_DATA@@V?$allocator@UGRANDSYSTEM_REWARD_DATA@@@std@@@std@@IAEXI@Z ; std::vector<GRANDSYSTEM_REWARD_DATA,std::allocator<GRANDSYSTEM_REWARD_DATA> >::_Reserve
PUBLIC	?_Inside@?$vector@UGRANDSYSTEM_REWARD_DATA@@V?$allocator@UGRANDSYSTEM_REWARD_DATA@@@std@@@std@@IBE_NPBUGRANDSYSTEM_REWARD_DATA@@@Z ; std::vector<GRANDSYSTEM_REWARD_DATA,std::allocator<GRANDSYSTEM_REWARD_DATA> >::_Inside
PUBLIC	??$addressof@$$CBUGRANDSYSTEM_REWARD_DATA@@@std@@YAPBUGRANDSYSTEM_REWARD_DATA@@ABU1@@Z ; std::addressof<GRANDSYSTEM_REWARD_DATA const >
; Function compile flags: /Odtp /ZI
;	COMDAT ?push_back@?$vector@UGRANDSYSTEM_REWARD_DATA@@V?$allocator@UGRANDSYSTEM_REWARD_DATA@@@std@@@std@@QAEXABUGRANDSYSTEM_REWARD_DATA@@@Z
_TEXT	SEGMENT
__Idx$232129 = -8					; size = 4
_this$ = -4						; size = 4
__Val$ = 8						; size = 4
?push_back@?$vector@UGRANDSYSTEM_REWARD_DATA@@V?$allocator@UGRANDSYSTEM_REWARD_DATA@@@std@@@std@@QAEXABUGRANDSYSTEM_REWARD_DATA@@@Z PROC ; std::vector<GRANDSYSTEM_REWARD_DATA,std::allocator<GRANDSYSTEM_REWARD_DATA> >::push_back, COMDAT
; _this$ = ecx

; 976  : 		{	// insert element at end

  00000	55		 push	 ebp
  00001	8b ec		 mov	 ebp, esp
  00003	83 ec 48	 sub	 esp, 72			; 00000048H
  00006	53		 push	 ebx
  00007	56		 push	 esi
  00008	57		 push	 edi
  00009	89 4d fc	 mov	 DWORD PTR _this$[ebp], ecx

; 977  : 		if (_Inside(_STD addressof(_Val)))

  0000c	8b 45 08	 mov	 eax, DWORD PTR __Val$[ebp]
  0000f	50		 push	 eax
  00010	e8 00 00 00 00	 call	 ??$addressof@$$CBUGRANDSYSTEM_REWARD_DATA@@@std@@YAPBUGRANDSYSTEM_REWARD_DATA@@ABU1@@Z ; std::addressof<GRANDSYSTEM_REWARD_DATA const >
  00015	83 c4 04	 add	 esp, 4
  00018	50		 push	 eax
  00019	8b 4d fc	 mov	 ecx, DWORD PTR _this$[ebp]
  0001c	e8 00 00 00 00	 call	 ?_Inside@?$vector@UGRANDSYSTEM_REWARD_DATA@@V?$allocator@UGRANDSYSTEM_REWARD_DATA@@@std@@@std@@IBE_NPBUGRANDSYSTEM_REWARD_DATA@@@Z ; std::vector<GRANDSYSTEM_REWARD_DATA,std::allocator<GRANDSYSTEM_REWARD_DATA> >::_Inside
  00021	0f b6 c8	 movzx	 ecx, al
  00024	85 c9		 test	 ecx, ecx
  00026	74 7d		 je	 SHORT $LN4@push_back@2

; 978  : 			{	// push back an element
; 979  : 			size_type _Idx = _STD addressof(_Val) - this->_Myfirst;

  00028	8b 45 08	 mov	 eax, DWORD PTR __Val$[ebp]
  0002b	50		 push	 eax
  0002c	e8 00 00 00 00	 call	 ??$addressof@$$CBUGRANDSYSTEM_REWARD_DATA@@@std@@YAPBUGRANDSYSTEM_REWARD_DATA@@ABU1@@Z ; std::addressof<GRANDSYSTEM_REWARD_DATA const >
  00031	83 c4 04	 add	 esp, 4
  00034	8b 4d fc	 mov	 ecx, DWORD PTR _this$[ebp]
  00037	2b 01		 sub	 eax, DWORD PTR [ecx]
  00039	99		 cdq
  0003a	b9 24 00 00 00	 mov	 ecx, 36			; 00000024H
  0003f	f7 f9		 idiv	 ecx
  00041	89 45 f8	 mov	 DWORD PTR __Idx$232129[ebp], eax

; 980  : 			if (this->_Mylast == this->_Myend)

  00044	8b 45 fc	 mov	 eax, DWORD PTR _this$[ebp]
  00047	8b 4d fc	 mov	 ecx, DWORD PTR _this$[ebp]
  0004a	8b 50 04	 mov	 edx, DWORD PTR [eax+4]
  0004d	3b 51 08	 cmp	 edx, DWORD PTR [ecx+8]
  00050	75 0a		 jne	 SHORT $LN3@push_back@2

; 981  : 				_Reserve(1);

  00052	6a 01		 push	 1
  00054	8b 4d fc	 mov	 ecx, DWORD PTR _this$[ebp]
  00057	e8 00 00 00 00	 call	 ?_Reserve@?$vector@UGRANDSYSTEM_REWARD_DATA@@V?$allocator@UGRANDSYSTEM_REWARD_DATA@@@std@@@std@@IAEXI@Z ; std::vector<GRANDSYSTEM_REWARD_DATA,std::allocator<GRANDSYSTEM_REWARD_DATA> >::_Reserve
$LN3@push_back@2:

; 982  : 			_Orphan_range(this->_Mylast, this->_Mylast);

  0005c	8b 45 fc	 mov	 eax, DWORD PTR _this$[ebp]
  0005f	8b 48 04	 mov	 ecx, DWORD PTR [eax+4]
  00062	51		 push	 ecx
  00063	8b 55 fc	 mov	 edx, DWORD PTR _this$[ebp]
  00066	8b 42 04	 mov	 eax, DWORD PTR [edx+4]
  00069	50		 push	 eax
  0006a	8b 4d fc	 mov	 ecx, DWORD PTR _this$[ebp]
  0006d	e8 00 00 00 00	 call	 ?_Orphan_range@?$vector@UGRANDSYSTEM_REWARD_DATA@@V?$allocator@UGRANDSYSTEM_REWARD_DATA@@@std@@@std@@IBEXPAUGRANDSYSTEM_REWARD_DATA@@0@Z ; std::vector<GRANDSYSTEM_REWARD_DATA,std::allocator<GRANDSYSTEM_REWARD_DATA> >::_Orphan_range

; 983  : 			_Cons_val(this->_Alval,
; 984  : 				this->_Mylast,
; 985  : 				this->_Myfirst[_Idx]);

  00072	8b 45 f8	 mov	 eax, DWORD PTR __Idx$232129[ebp]
  00075	6b c0 24	 imul	 eax, 36			; 00000024H
  00078	8b 4d fc	 mov	 ecx, DWORD PTR _this$[ebp]
  0007b	03 01		 add	 eax, DWORD PTR [ecx]
  0007d	50		 push	 eax
  0007e	8b 55 fc	 mov	 edx, DWORD PTR _this$[ebp]
  00081	8b 42 04	 mov	 eax, DWORD PTR [edx+4]
  00084	50		 push	 eax
  00085	8b 4d fc	 mov	 ecx, DWORD PTR _this$[ebp]
  00088	83 c1 0c	 add	 ecx, 12			; 0000000cH
  0008b	51		 push	 ecx
  0008c	e8 00 00 00 00	 call	 ??$_Cons_val@V?$allocator@UGRANDSYSTEM_REWARD_DATA@@@std@@UGRANDSYSTEM_REWARD_DATA@@AAU3@@std@@YAXAAV?$allocator@UGRANDSYSTEM_REWARD_DATA@@@0@PAUGRANDSYSTEM_REWARD_DATA@@AAU2@@Z ; std::_Cons_val<std::allocator<GRANDSYSTEM_REWARD_DATA>,GRANDSYSTEM_REWARD_DATA,GRANDSYSTEM_REWARD_DATA &>
  00091	83 c4 0c	 add	 esp, 12			; 0000000cH

; 986  : 			++this->_Mylast;

  00094	8b 45 fc	 mov	 eax, DWORD PTR _this$[ebp]
  00097	8b 48 04	 mov	 ecx, DWORD PTR [eax+4]
  0009a	83 c1 24	 add	 ecx, 36			; 00000024H
  0009d	8b 55 fc	 mov	 edx, DWORD PTR _this$[ebp]
  000a0	89 4a 04	 mov	 DWORD PTR [edx+4], ecx

; 987  : 			}
; 988  : 		else

  000a3	eb 57		 jmp	 SHORT $LN5@push_back@2
$LN4@push_back@2:

; 989  : 			{	// push back a non-element
; 990  : 			if (this->_Mylast == this->_Myend)

  000a5	8b 45 fc	 mov	 eax, DWORD PTR _this$[ebp]
  000a8	8b 4d fc	 mov	 ecx, DWORD PTR _this$[ebp]
  000ab	8b 50 04	 mov	 edx, DWORD PTR [eax+4]
  000ae	3b 51 08	 cmp	 edx, DWORD PTR [ecx+8]
  000b1	75 0a		 jne	 SHORT $LN1@push_back@2

; 991  : 				_Reserve(1);

  000b3	6a 01		 push	 1
  000b5	8b 4d fc	 mov	 ecx, DWORD PTR _this$[ebp]
  000b8	e8 00 00 00 00	 call	 ?_Reserve@?$vector@UGRANDSYSTEM_REWARD_DATA@@V?$allocator@UGRANDSYSTEM_REWARD_DATA@@@std@@@std@@IAEXI@Z ; std::vector<GRANDSYSTEM_REWARD_DATA,std::allocator<GRANDSYSTEM_REWARD_DATA> >::_Reserve
$LN1@push_back@2:

; 992  : 			_Orphan_range(this->_Mylast, this->_Mylast);

  000bd	8b 45 fc	 mov	 eax, DWORD PTR _this$[ebp]
  000c0	8b 48 04	 mov	 ecx, DWORD PTR [eax+4]
  000c3	51		 push	 ecx
  000c4	8b 55 fc	 mov	 edx, DWORD PTR _this$[ebp]
  000c7	8b 42 04	 mov	 eax, DWORD PTR [edx+4]
  000ca	50		 push	 eax
  000cb	8b 4d fc	 mov	 ecx, DWORD PTR _this$[ebp]
  000ce	e8 00 00 00 00	 call	 ?_Orphan_range@?$vector@UGRANDSYSTEM_REWARD_DATA@@V?$allocator@UGRANDSYSTEM_REWARD_DATA@@@std@@@std@@IBEXPAUGRANDSYSTEM_REWARD_DATA@@0@Z ; std::vector<GRANDSYSTEM_REWARD_DATA,std::allocator<GRANDSYSTEM_REWARD_DATA> >::_Orphan_range

; 993  : 			_Cons_val(this->_Alval,
; 994  : 				this->_Mylast,
; 995  : 				_Val);

  000d3	8b 45 08	 mov	 eax, DWORD PTR __Val$[ebp]
  000d6	50		 push	 eax
  000d7	8b 4d fc	 mov	 ecx, DWORD PTR _this$[ebp]
  000da	8b 51 04	 mov	 edx, DWORD PTR [ecx+4]
  000dd	52		 push	 edx
  000de	8b 45 fc	 mov	 eax, DWORD PTR _this$[ebp]
  000e1	83 c0 0c	 add	 eax, 12			; 0000000cH
  000e4	50		 push	 eax
  000e5	e8 00 00 00 00	 call	 ??$_Cons_val@V?$allocator@UGRANDSYSTEM_REWARD_DATA@@@std@@UGRANDSYSTEM_REWARD_DATA@@ABU3@@std@@YAXAAV?$allocator@UGRANDSYSTEM_REWARD_DATA@@@0@PAUGRANDSYSTEM_REWARD_DATA@@ABU2@@Z ; std::_Cons_val<std::allocator<GRANDSYSTEM_REWARD_DATA>,GRANDSYSTEM_REWARD_DATA,GRANDSYSTEM_REWARD_DATA const &>
  000ea	83 c4 0c	 add	 esp, 12			; 0000000cH

; 996  : 			++this->_Mylast;

  000ed	8b 45 fc	 mov	 eax, DWORD PTR _this$[ebp]
  000f0	8b 48 04	 mov	 ecx, DWORD PTR [eax+4]
  000f3	83 c1 24	 add	 ecx, 36			; 00000024H
  000f6	8b 55 fc	 mov	 edx, DWORD PTR _this$[ebp]
  000f9	89 4a 04	 mov	 DWORD PTR [edx+4], ecx
$LN5@push_back@2:

; 997  : 			}
; 998  : 		}

  000fc	5f		 pop	 edi
  000fd	5e		 pop	 esi
  000fe	5b		 pop	 ebx
  000ff	8b e5		 mov	 esp, ebp
  00101	5d		 pop	 ebp
  00102	c2 04 00	 ret	 4
?push_back@?$vector@UGRANDSYSTEM_REWARD_DATA@@V?$allocator@UGRANDSYSTEM_REWARD_DATA@@@std@@@std@@QAEXABUGRANDSYSTEM_REWARD_DATA@@@Z ENDP ; std::vector<GRANDSYSTEM_REWARD_DATA,std::allocator<GRANDSYSTEM_REWARD_DATA> >::push_back
_TEXT	ENDS
PUBLIC	??0?$_Vector_iterator@V?$_Vector_val@UGrandResetEXP@@V?$allocator@UGrandResetEXP@@@std@@@std@@@std@@QAE@PAUGrandResetEXP@@PBU_Container_base0@1@@Z ; std::_Vector_iterator<std::_Vector_val<GrandResetEXP,std::allocator<GrandResetEXP> > >::_Vector_iterator<std::_Vector_val<GrandResetEXP,std::allocator<GrandResetEXP> > >
; Function compile flags: /Odtp /ZI
;	COMDAT ?begin@?$vector@UGrandResetEXP@@V?$allocator@UGrandResetEXP@@@std@@@std@@QAE?AV?$_Vector_iterator@V?$_Vector_val@UGrandResetEXP@@V?$allocator@UGrandResetEXP@@@std@@@std@@@2@XZ
_TEXT	SEGMENT
_this$ = -4						; size = 4
___$ReturnUdt$ = 8					; size = 4
?begin@?$vector@UGrandResetEXP@@V?$allocator@UGrandResetEXP@@@std@@@std@@QAE?AV?$_Vector_iterator@V?$_Vector_val@UGrandResetEXP@@V?$allocator@UGrandResetEXP@@@std@@@std@@@2@XZ PROC ; std::vector<GrandResetEXP,std::allocator<GrandResetEXP> >::begin, COMDAT
; _this$ = ecx

; 781  : 		{	// return iterator for beginning of mutable sequence

  00000	55		 push	 ebp
  00001	8b ec		 mov	 ebp, esp
  00003	83 ec 44	 sub	 esp, 68			; 00000044H
  00006	53		 push	 ebx
  00007	56		 push	 esi
  00008	57		 push	 edi
  00009	89 4d fc	 mov	 DWORD PTR _this$[ebp], ecx

; 782  : 		return (iterator(this->_Myfirst, this));

  0000c	8b 45 fc	 mov	 eax, DWORD PTR _this$[ebp]
  0000f	50		 push	 eax
  00010	8b 4d fc	 mov	 ecx, DWORD PTR _this$[ebp]
  00013	8b 11		 mov	 edx, DWORD PTR [ecx]
  00015	52		 push	 edx
  00016	8b 4d 08	 mov	 ecx, DWORD PTR ___$ReturnUdt$[ebp]
  00019	e8 00 00 00 00	 call	 ??0?$_Vector_iterator@V?$_Vector_val@UGrandResetEXP@@V?$allocator@UGrandResetEXP@@@std@@@std@@@std@@QAE@PAUGrandResetEXP@@PBU_Container_base0@1@@Z ; std::_Vector_iterator<std::_Vector_val<GrandResetEXP,std::allocator<GrandResetEXP> > >::_Vector_iterator<std::_Vector_val<GrandResetEXP,std::allocator<GrandResetEXP> > >
  0001e	8b 45 08	 mov	 eax, DWORD PTR ___$ReturnUdt$[ebp]

; 783  : 		}

  00021	5f		 pop	 edi
  00022	5e		 pop	 esi
  00023	5b		 pop	 ebx
  00024	8b e5		 mov	 esp, ebp
  00026	5d		 pop	 ebp
  00027	c2 04 00	 ret	 4
?begin@?$vector@UGrandResetEXP@@V?$allocator@UGrandResetEXP@@@std@@@std@@QAE?AV?$_Vector_iterator@V?$_Vector_val@UGrandResetEXP@@V?$allocator@UGrandResetEXP@@@std@@@std@@@2@XZ ENDP ; std::vector<GrandResetEXP,std::allocator<GrandResetEXP> >::begin
; Function compile flags: /Odtp /ZI
_TEXT	ENDS
;	COMDAT ?end@?$vector@UGrandResetEXP@@V?$allocator@UGrandResetEXP@@@std@@@std@@QAE?AV?$_Vector_iterator@V?$_Vector_val@UGrandResetEXP@@V?$allocator@UGrandResetEXP@@@std@@@std@@@2@XZ
_TEXT	SEGMENT
_this$ = -4						; size = 4
___$ReturnUdt$ = 8					; size = 4
?end@?$vector@UGrandResetEXP@@V?$allocator@UGrandResetEXP@@@std@@@std@@QAE?AV?$_Vector_iterator@V?$_Vector_val@UGrandResetEXP@@V?$allocator@UGrandResetEXP@@@std@@@std@@@2@XZ PROC ; std::vector<GrandResetEXP,std::allocator<GrandResetEXP> >::end, COMDAT
; _this$ = ecx

; 791  : 		{	// return iterator for end of mutable sequence

  00000	55		 push	 ebp
  00001	8b ec		 mov	 ebp, esp
  00003	83 ec 44	 sub	 esp, 68			; 00000044H
  00006	53		 push	 ebx
  00007	56		 push	 esi
  00008	57		 push	 edi
  00009	89 4d fc	 mov	 DWORD PTR _this$[ebp], ecx

; 792  : 		return (iterator(this->_Mylast, this));

  0000c	8b 45 fc	 mov	 eax, DWORD PTR _this$[ebp]
  0000f	50		 push	 eax
  00010	8b 4d fc	 mov	 ecx, DWORD PTR _this$[ebp]
  00013	8b 51 04	 mov	 edx, DWORD PTR [ecx+4]
  00016	52		 push	 edx
  00017	8b 4d 08	 mov	 ecx, DWORD PTR ___$ReturnUdt$[ebp]
  0001a	e8 00 00 00 00	 call	 ??0?$_Vector_iterator@V?$_Vector_val@UGrandResetEXP@@V?$allocator@UGrandResetEXP@@@std@@@std@@@std@@QAE@PAUGrandResetEXP@@PBU_Container_base0@1@@Z ; std::_Vector_iterator<std::_Vector_val<GrandResetEXP,std::allocator<GrandResetEXP> > >::_Vector_iterator<std::_Vector_val<GrandResetEXP,std::allocator<GrandResetEXP> > >
  0001f	8b 45 08	 mov	 eax, DWORD PTR ___$ReturnUdt$[ebp]

; 793  : 		}

  00022	5f		 pop	 edi
  00023	5e		 pop	 esi
  00024	5b		 pop	 ebx
  00025	8b e5		 mov	 esp, ebp
  00027	5d		 pop	 ebp
  00028	c2 04 00	 ret	 4
?end@?$vector@UGrandResetEXP@@V?$allocator@UGrandResetEXP@@@std@@@std@@QAE?AV?$_Vector_iterator@V?$_Vector_val@UGrandResetEXP@@V?$allocator@UGrandResetEXP@@@std@@@std@@@2@XZ ENDP ; std::vector<GrandResetEXP,std::allocator<GrandResetEXP> >::end
_TEXT	ENDS
PUBLIC	?_Destroy@?$vector@UGrandResetEXP@@V?$allocator@UGrandResetEXP@@@std@@@std@@IAEXPAUGrandResetEXP@@0@Z ; std::vector<GrandResetEXP,std::allocator<GrandResetEXP> >::_Destroy
PUBLIC	??$_Move@PAUGrandResetEXP@@PAU1@@std@@YAPAUGrandResetEXP@@PAU1@00@Z ; std::_Move<GrandResetEXP *,GrandResetEXP *>
PUBLIC	??9?$_Vector_const_iterator@V?$_Vector_val@UGrandResetEXP@@V?$allocator@UGrandResetEXP@@@std@@@std@@@std@@QBE_NABV01@@Z ; std::_Vector_const_iterator<std::_Vector_val<GrandResetEXP,std::allocator<GrandResetEXP> > >::operator!=
PUBLIC	?_Make_iter@?$vector@UGrandResetEXP@@V?$allocator@UGrandResetEXP@@@std@@@std@@QBE?AV?$_Vector_iterator@V?$_Vector_val@UGrandResetEXP@@V?$allocator@UGrandResetEXP@@@std@@@std@@@2@V?$_Vector_const_iterator@V?$_Vector_val@UGrandResetEXP@@V?$allocator@UGrandResetEXP@@@std@@@std@@@2@@Z ; std::vector<GrandResetEXP,std::allocator<GrandResetEXP> >::_Make_iter
; Function compile flags: /Odtp /ZI
;	COMDAT ?erase@?$vector@UGrandResetEXP@@V?$allocator@UGrandResetEXP@@@std@@@std@@QAE?AV?$_Vector_iterator@V?$_Vector_val@UGrandResetEXP@@V?$allocator@UGrandResetEXP@@@std@@@std@@@2@V?$_Vector_const_iterator@V?$_Vector_val@UGrandResetEXP@@V?$allocator@UGrandResetEXP@@@std@@@std@@@2@0@Z
_TEXT	SEGMENT
$T233600 = -84						; size = 4
__Ptr$232187 = -16					; size = 4
__Last$ = -12						; size = 4
__First$ = -8						; size = 4
_this$ = -4						; size = 4
___$ReturnUdt$ = 8					; size = 4
__First_arg$ = 12					; size = 4
__Last_arg$ = 16					; size = 4
?erase@?$vector@UGrandResetEXP@@V?$allocator@UGrandResetEXP@@@std@@@std@@QAE?AV?$_Vector_iterator@V?$_Vector_val@UGrandResetEXP@@V?$allocator@UGrandResetEXP@@@std@@@std@@@2@V?$_Vector_const_iterator@V?$_Vector_val@UGrandResetEXP@@V?$allocator@UGrandResetEXP@@@std@@@std@@@2@0@Z PROC ; std::vector<GrandResetEXP,std::allocator<GrandResetEXP> >::erase, COMDAT
; _this$ = ecx

; 1190 : 		{	// erase [_First, _Last)

  00000	55		 push	 ebp
  00001	8b ec		 mov	 ebp, esp
  00003	83 ec 54	 sub	 esp, 84			; 00000054H
  00006	53		 push	 ebx
  00007	56		 push	 esi
  00008	57		 push	 edi
  00009	89 4d fc	 mov	 DWORD PTR _this$[ebp], ecx

; 1191 : 		iterator _First = _Make_iter(_First_arg);

  0000c	8b 45 0c	 mov	 eax, DWORD PTR __First_arg$[ebp]
  0000f	50		 push	 eax
  00010	8d 4d f8	 lea	 ecx, DWORD PTR __First$[ebp]
  00013	51		 push	 ecx
  00014	8b 4d fc	 mov	 ecx, DWORD PTR _this$[ebp]
  00017	e8 00 00 00 00	 call	 ?_Make_iter@?$vector@UGrandResetEXP@@V?$allocator@UGrandResetEXP@@@std@@@std@@QBE?AV?$_Vector_iterator@V?$_Vector_val@UGrandResetEXP@@V?$allocator@UGrandResetEXP@@@std@@@std@@@2@V?$_Vector_const_iterator@V?$_Vector_val@UGrandResetEXP@@V?$allocator@UGrandResetEXP@@@std@@@std@@@2@@Z ; std::vector<GrandResetEXP,std::allocator<GrandResetEXP> >::_Make_iter

; 1192 : 		iterator _Last = _Make_iter(_Last_arg);

  0001c	8b 45 10	 mov	 eax, DWORD PTR __Last_arg$[ebp]
  0001f	50		 push	 eax
  00020	8d 4d f4	 lea	 ecx, DWORD PTR __Last$[ebp]
  00023	51		 push	 ecx
  00024	8b 4d fc	 mov	 ecx, DWORD PTR _this$[ebp]
  00027	e8 00 00 00 00	 call	 ?_Make_iter@?$vector@UGrandResetEXP@@V?$allocator@UGrandResetEXP@@@std@@@std@@QBE?AV?$_Vector_iterator@V?$_Vector_val@UGrandResetEXP@@V?$allocator@UGrandResetEXP@@@std@@@std@@@2@V?$_Vector_const_iterator@V?$_Vector_val@UGrandResetEXP@@V?$allocator@UGrandResetEXP@@@std@@@std@@@2@@Z ; std::vector<GrandResetEXP,std::allocator<GrandResetEXP> >::_Make_iter

; 1193 : 
; 1194 : 		if (_First != _Last)

  0002c	8d 45 f4	 lea	 eax, DWORD PTR __Last$[ebp]
  0002f	50		 push	 eax
  00030	8d 4d f8	 lea	 ecx, DWORD PTR __First$[ebp]
  00033	e8 00 00 00 00	 call	 ??9?$_Vector_const_iterator@V?$_Vector_val@UGrandResetEXP@@V?$allocator@UGrandResetEXP@@@std@@@std@@@std@@QBE_NABV01@@Z ; std::_Vector_const_iterator<std::_Vector_val<GrandResetEXP,std::allocator<GrandResetEXP> > >::operator!=
  00038	0f b6 c8	 movzx	 ecx, al
  0003b	85 c9		 test	 ecx, ecx
  0003d	74 36		 je	 SHORT $LN1@erase

; 1195 : 			{	// worth doing, copy down over hole
; 1196 :  #if _ITERATOR_DEBUG_LEVEL == 2
; 1197 : 			if (_Last < _First || _VICONT(_First) != this
; 1198 : 				|| _VIPTR(_First) < this->_Myfirst
; 1199 : 				|| this->_Mylast < _VIPTR(_Last))
; 1200 : 				_DEBUG_ERROR("vector erase iterator outside range");
; 1201 : 			pointer _Ptr = _Move(_VIPTR(_Last), this->_Mylast,
; 1202 : 				_VIPTR(_First));
; 1203 : 			_Orphan_range(_VIPTR(_First), this->_Mylast);
; 1204 : 
; 1205 :  #else /* _ITERATOR_DEBUG_LEVEL == 2 */
; 1206 : 			pointer _Ptr = _Move(_VIPTR(_Last), this->_Mylast,
; 1207 : 				_VIPTR(_First));

  0003f	8b 45 f8	 mov	 eax, DWORD PTR __First$[ebp]
  00042	50		 push	 eax
  00043	8b 4d fc	 mov	 ecx, DWORD PTR _this$[ebp]
  00046	8b 51 04	 mov	 edx, DWORD PTR [ecx+4]
  00049	52		 push	 edx
  0004a	8b 45 f4	 mov	 eax, DWORD PTR __Last$[ebp]
  0004d	50		 push	 eax
  0004e	e8 00 00 00 00	 call	 ??$_Move@PAUGrandResetEXP@@PAU1@@std@@YAPAUGrandResetEXP@@PAU1@00@Z ; std::_Move<GrandResetEXP *,GrandResetEXP *>
  00053	83 c4 0c	 add	 esp, 12			; 0000000cH
  00056	89 45 f0	 mov	 DWORD PTR __Ptr$232187[ebp], eax

; 1208 :  #endif /* _ITERATOR_DEBUG_LEVEL == 2 */
; 1209 : 
; 1210 : 			_Destroy(_Ptr, this->_Mylast);

  00059	8b 45 fc	 mov	 eax, DWORD PTR _this$[ebp]
  0005c	8b 48 04	 mov	 ecx, DWORD PTR [eax+4]
  0005f	51		 push	 ecx
  00060	8b 55 f0	 mov	 edx, DWORD PTR __Ptr$232187[ebp]
  00063	52		 push	 edx
  00064	8b 4d fc	 mov	 ecx, DWORD PTR _this$[ebp]
  00067	e8 00 00 00 00	 call	 ?_Destroy@?$vector@UGrandResetEXP@@V?$allocator@UGrandResetEXP@@@std@@@std@@IAEXPAUGrandResetEXP@@0@Z ; std::vector<GrandResetEXP,std::allocator<GrandResetEXP> >::_Destroy

; 1211 : 			this->_Mylast = _Ptr;

  0006c	8b 45 fc	 mov	 eax, DWORD PTR _this$[ebp]
  0006f	8b 4d f0	 mov	 ecx, DWORD PTR __Ptr$232187[ebp]
  00072	89 48 04	 mov	 DWORD PTR [eax+4], ecx
$LN1@erase:

; 1212 : 			}
; 1213 : 		return (_Make_iter(_First));

  00075	8b 45 f8	 mov	 eax, DWORD PTR __First$[ebp]
  00078	89 45 ac	 mov	 DWORD PTR $T233600[ebp], eax
  0007b	8b 4d ac	 mov	 ecx, DWORD PTR $T233600[ebp]
  0007e	51		 push	 ecx
  0007f	8b 55 08	 mov	 edx, DWORD PTR ___$ReturnUdt$[ebp]
  00082	52		 push	 edx
  00083	8b 4d fc	 mov	 ecx, DWORD PTR _this$[ebp]
  00086	e8 00 00 00 00	 call	 ?_Make_iter@?$vector@UGrandResetEXP@@V?$allocator@UGrandResetEXP@@@std@@@std@@QBE?AV?$_Vector_iterator@V?$_Vector_val@UGrandResetEXP@@V?$allocator@UGrandResetEXP@@@std@@@std@@@2@V?$_Vector_const_iterator@V?$_Vector_val@UGrandResetEXP@@V?$allocator@UGrandResetEXP@@@std@@@std@@@2@@Z ; std::vector<GrandResetEXP,std::allocator<GrandResetEXP> >::_Make_iter
  0008b	8b 45 08	 mov	 eax, DWORD PTR ___$ReturnUdt$[ebp]

; 1214 : 		}

  0008e	5f		 pop	 edi
  0008f	5e		 pop	 esi
  00090	5b		 pop	 ebx
  00091	8b e5		 mov	 esp, ebp
  00093	5d		 pop	 ebp
  00094	c2 0c 00	 ret	 12			; 0000000cH
?erase@?$vector@UGrandResetEXP@@V?$allocator@UGrandResetEXP@@@std@@@std@@QAE?AV?$_Vector_iterator@V?$_Vector_val@UGrandResetEXP@@V?$allocator@UGrandResetEXP@@@std@@@std@@@2@V?$_Vector_const_iterator@V?$_Vector_val@UGrandResetEXP@@V?$allocator@UGrandResetEXP@@@std@@@std@@@2@0@Z ENDP ; std::vector<GrandResetEXP,std::allocator<GrandResetEXP> >::erase
; Function compile flags: /Odtp /ZI
_TEXT	ENDS
;	COMDAT ?_Inside@?$vector@UGrandResetEXP@@V?$allocator@UGrandResetEXP@@@std@@@std@@IBE_NPBUGrandResetEXP@@@Z
_TEXT	SEGMENT
tv76 = -72						; size = 4
_this$ = -4						; size = 4
__Ptr$ = 8						; size = 4
?_Inside@?$vector@UGrandResetEXP@@V?$allocator@UGrandResetEXP@@@std@@@std@@IBE_NPBUGrandResetEXP@@@Z PROC ; std::vector<GrandResetEXP,std::allocator<GrandResetEXP> >::_Inside, COMDAT
; _this$ = ecx

; 1285 : 		{	// test if _Ptr points inside vector

  00000	55		 push	 ebp
  00001	8b ec		 mov	 ebp, esp
  00003	83 ec 48	 sub	 esp, 72			; 00000048H
  00006	53		 push	 ebx
  00007	56		 push	 esi
  00008	57		 push	 edi
  00009	89 4d fc	 mov	 DWORD PTR _this$[ebp], ecx

; 1286 : 		return (_Ptr < this->_Mylast && this->_Myfirst <= _Ptr);

  0000c	8b 45 fc	 mov	 eax, DWORD PTR _this$[ebp]
  0000f	8b 4d 08	 mov	 ecx, DWORD PTR __Ptr$[ebp]
  00012	3b 48 04	 cmp	 ecx, DWORD PTR [eax+4]
  00015	73 13		 jae	 SHORT $LN3@Inside
  00017	8b 55 fc	 mov	 edx, DWORD PTR _this$[ebp]
  0001a	8b 02		 mov	 eax, DWORD PTR [edx]
  0001c	3b 45 08	 cmp	 eax, DWORD PTR __Ptr$[ebp]
  0001f	77 09		 ja	 SHORT $LN3@Inside
  00021	c7 45 b8 01 00
	00 00		 mov	 DWORD PTR tv76[ebp], 1
  00028	eb 07		 jmp	 SHORT $LN4@Inside
$LN3@Inside:
  0002a	c7 45 b8 00 00
	00 00		 mov	 DWORD PTR tv76[ebp], 0
$LN4@Inside:
  00031	8a 45 b8	 mov	 al, BYTE PTR tv76[ebp]

; 1287 : 		}

  00034	5f		 pop	 edi
  00035	5e		 pop	 esi
  00036	5b		 pop	 ebx
  00037	8b e5		 mov	 esp, ebp
  00039	5d		 pop	 ebp
  0003a	c2 04 00	 ret	 4
?_Inside@?$vector@UGrandResetEXP@@V?$allocator@UGrandResetEXP@@@std@@@std@@IBE_NPBUGrandResetEXP@@@Z ENDP ; std::vector<GrandResetEXP,std::allocator<GrandResetEXP> >::_Inside
_TEXT	ENDS
PUBLIC	?reserve@?$vector@UGrandResetEXP@@V?$allocator@UGrandResetEXP@@@std@@@std@@QAEXI@Z ; std::vector<GrandResetEXP,std::allocator<GrandResetEXP> >::reserve
PUBLIC	?_Grow_to@?$vector@UGrandResetEXP@@V?$allocator@UGrandResetEXP@@@std@@@std@@IBEII@Z ; std::vector<GrandResetEXP,std::allocator<GrandResetEXP> >::_Grow_to
PUBLIC	?capacity@?$vector@UGrandResetEXP@@V?$allocator@UGrandResetEXP@@@std@@@std@@QBEIXZ ; std::vector<GrandResetEXP,std::allocator<GrandResetEXP> >::capacity
PUBLIC	?_Xlen@?$vector@UGrandResetEXP@@V?$allocator@UGrandResetEXP@@@std@@@std@@IBEXXZ ; std::vector<GrandResetEXP,std::allocator<GrandResetEXP> >::_Xlen
PUBLIC	?max_size@?$vector@UGrandResetEXP@@V?$allocator@UGrandResetEXP@@@std@@@std@@QBEIXZ ; std::vector<GrandResetEXP,std::allocator<GrandResetEXP> >::max_size
; Function compile flags: /Odtp /ZI
;	COMDAT ?_Reserve@?$vector@UGrandResetEXP@@V?$allocator@UGrandResetEXP@@@std@@@std@@IAEXI@Z
_TEXT	SEGMENT
__Size$ = -8						; size = 4
_this$ = -4						; size = 4
__Count$ = 8						; size = 4
?_Reserve@?$vector@UGrandResetEXP@@V?$allocator@UGrandResetEXP@@@std@@@std@@IAEXI@Z PROC ; std::vector<GrandResetEXP,std::allocator<GrandResetEXP> >::_Reserve, COMDAT
; _this$ = ecx

; 1290 : 		{	// ensure room for _Count new elements, grow exponentially

  00000	55		 push	 ebp
  00001	8b ec		 mov	 ebp, esp
  00003	83 ec 48	 sub	 esp, 72			; 00000048H
  00006	53		 push	 ebx
  00007	56		 push	 esi
  00008	57		 push	 edi
  00009	89 4d fc	 mov	 DWORD PTR _this$[ebp], ecx

; 1291 : 		size_type _Size = size();

  0000c	8b 4d fc	 mov	 ecx, DWORD PTR _this$[ebp]
  0000f	e8 00 00 00 00	 call	 ?size@?$vector@UGrandResetEXP@@V?$allocator@UGrandResetEXP@@@std@@@std@@QBEIXZ ; std::vector<GrandResetEXP,std::allocator<GrandResetEXP> >::size
  00014	89 45 f8	 mov	 DWORD PTR __Size$[ebp], eax

; 1292 : 		if (max_size() - _Count < _Size)

  00017	8b 4d fc	 mov	 ecx, DWORD PTR _this$[ebp]
  0001a	e8 00 00 00 00	 call	 ?max_size@?$vector@UGrandResetEXP@@V?$allocator@UGrandResetEXP@@@std@@@std@@QBEIXZ ; std::vector<GrandResetEXP,std::allocator<GrandResetEXP> >::max_size
  0001f	2b 45 08	 sub	 eax, DWORD PTR __Count$[ebp]
  00022	3b 45 f8	 cmp	 eax, DWORD PTR __Size$[ebp]
  00025	73 0a		 jae	 SHORT $LN4@Reserve

; 1293 : 			_Xlen();

  00027	8b 4d fc	 mov	 ecx, DWORD PTR _this$[ebp]
  0002a	e8 00 00 00 00	 call	 ?_Xlen@?$vector@UGrandResetEXP@@V?$allocator@UGrandResetEXP@@@std@@@std@@IBEXXZ ; std::vector<GrandResetEXP,std::allocator<GrandResetEXP> >::_Xlen
  0002f	eb 2d		 jmp	 SHORT $LN6@Reserve
$LN4@Reserve:

; 1294 : 		else if ((_Size += _Count) <= capacity())

  00031	8b 45 f8	 mov	 eax, DWORD PTR __Size$[ebp]
  00034	03 45 08	 add	 eax, DWORD PTR __Count$[ebp]
  00037	89 45 f8	 mov	 DWORD PTR __Size$[ebp], eax
  0003a	8b 4d fc	 mov	 ecx, DWORD PTR _this$[ebp]
  0003d	e8 00 00 00 00	 call	 ?capacity@?$vector@UGrandResetEXP@@V?$allocator@UGrandResetEXP@@@std@@@std@@QBEIXZ ; std::vector<GrandResetEXP,std::allocator<GrandResetEXP> >::capacity
  00042	39 45 f8	 cmp	 DWORD PTR __Size$[ebp], eax
  00045	77 02		 ja	 SHORT $LN2@Reserve

; 1295 : 			;
; 1296 : 		else

  00047	eb 15		 jmp	 SHORT $LN6@Reserve
$LN2@Reserve:

; 1297 : 			reserve(_Grow_to(_Size));

  00049	8b 45 f8	 mov	 eax, DWORD PTR __Size$[ebp]
  0004c	50		 push	 eax
  0004d	8b 4d fc	 mov	 ecx, DWORD PTR _this$[ebp]
  00050	e8 00 00 00 00	 call	 ?_Grow_to@?$vector@UGrandResetEXP@@V?$allocator@UGrandResetEXP@@@std@@@std@@IBEII@Z ; std::vector<GrandResetEXP,std::allocator<GrandResetEXP> >::_Grow_to
  00055	50		 push	 eax
  00056	8b 4d fc	 mov	 ecx, DWORD PTR _this$[ebp]
  00059	e8 00 00 00 00	 call	 ?reserve@?$vector@UGrandResetEXP@@V?$allocator@UGrandResetEXP@@@std@@@std@@QAEXI@Z ; std::vector<GrandResetEXP,std::allocator<GrandResetEXP> >::reserve
$LN6@Reserve:

; 1298 : 		}

  0005e	5f		 pop	 edi
  0005f	5e		 pop	 esi
  00060	5b		 pop	 ebx
  00061	8b e5		 mov	 esp, ebp
  00063	5d		 pop	 ebp
  00064	c2 04 00	 ret	 4
?_Reserve@?$vector@UGrandResetEXP@@V?$allocator@UGrandResetEXP@@@std@@@std@@IAEXI@Z ENDP ; std::vector<GrandResetEXP,std::allocator<GrandResetEXP> >::_Reserve
; Function compile flags: /Odtp /ZI
_TEXT	ENDS
;	COMDAT ?_Orphan_range@?$vector@UGrandResetEXP@@V?$allocator@UGrandResetEXP@@@std@@@std@@IBEXPAUGrandResetEXP@@0@Z
_TEXT	SEGMENT
_this$ = -4						; size = 4
___formal$ = 8						; size = 4
___formal$ = 12						; size = 4
?_Orphan_range@?$vector@UGrandResetEXP@@V?$allocator@UGrandResetEXP@@@std@@@std@@IBEXPAUGrandResetEXP@@0@Z PROC ; std::vector<GrandResetEXP,std::allocator<GrandResetEXP> >::_Orphan_range, COMDAT
; _this$ = ecx

; 1453 : 		{	// orphan iterators within specified (inclusive) range

  00000	55		 push	 ebp
  00001	8b ec		 mov	 ebp, esp
  00003	83 ec 44	 sub	 esp, 68			; 00000044H
  00006	53		 push	 ebx
  00007	56		 push	 esi
  00008	57		 push	 edi
  00009	89 4d fc	 mov	 DWORD PTR _this$[ebp], ecx

; 1454 : 		}

  0000c	5f		 pop	 edi
  0000d	5e		 pop	 esi
  0000e	5b		 pop	 ebx
  0000f	8b e5		 mov	 esp, ebp
  00011	5d		 pop	 ebp
  00012	c2 08 00	 ret	 8
?_Orphan_range@?$vector@UGrandResetEXP@@V?$allocator@UGrandResetEXP@@@std@@@std@@IBEXPAUGrandResetEXP@@0@Z ENDP ; std::vector<GrandResetEXP,std::allocator<GrandResetEXP> >::_Orphan_range
; Function compile flags: /Odtp /ZI
_TEXT	ENDS
;	COMDAT ?_Inside@?$vector@UGRANDSYSTEM_REWARD_DATA@@V?$allocator@UGRANDSYSTEM_REWARD_DATA@@@std@@@std@@IBE_NPBUGRANDSYSTEM_REWARD_DATA@@@Z
_TEXT	SEGMENT
tv76 = -72						; size = 4
_this$ = -4						; size = 4
__Ptr$ = 8						; size = 4
?_Inside@?$vector@UGRANDSYSTEM_REWARD_DATA@@V?$allocator@UGRANDSYSTEM_REWARD_DATA@@@std@@@std@@IBE_NPBUGRANDSYSTEM_REWARD_DATA@@@Z PROC ; std::vector<GRANDSYSTEM_REWARD_DATA,std::allocator<GRANDSYSTEM_REWARD_DATA> >::_Inside, COMDAT
; _this$ = ecx

; 1285 : 		{	// test if _Ptr points inside vector

  00000	55		 push	 ebp
  00001	8b ec		 mov	 ebp, esp
  00003	83 ec 48	 sub	 esp, 72			; 00000048H
  00006	53		 push	 ebx
  00007	56		 push	 esi
  00008	57		 push	 edi
  00009	89 4d fc	 mov	 DWORD PTR _this$[ebp], ecx

; 1286 : 		return (_Ptr < this->_Mylast && this->_Myfirst <= _Ptr);

  0000c	8b 45 fc	 mov	 eax, DWORD PTR _this$[ebp]
  0000f	8b 4d 08	 mov	 ecx, DWORD PTR __Ptr$[ebp]
  00012	3b 48 04	 cmp	 ecx, DWORD PTR [eax+4]
  00015	73 13		 jae	 SHORT $LN3@Inside@2
  00017	8b 55 fc	 mov	 edx, DWORD PTR _this$[ebp]
  0001a	8b 02		 mov	 eax, DWORD PTR [edx]
  0001c	3b 45 08	 cmp	 eax, DWORD PTR __Ptr$[ebp]
  0001f	77 09		 ja	 SHORT $LN3@Inside@2
  00021	c7 45 b8 01 00
	00 00		 mov	 DWORD PTR tv76[ebp], 1
  00028	eb 07		 jmp	 SHORT $LN4@Inside@2
$LN3@Inside@2:
  0002a	c7 45 b8 00 00
	00 00		 mov	 DWORD PTR tv76[ebp], 0
$LN4@Inside@2:
  00031	8a 45 b8	 mov	 al, BYTE PTR tv76[ebp]

; 1287 : 		}

  00034	5f		 pop	 edi
  00035	5e		 pop	 esi
  00036	5b		 pop	 ebx
  00037	8b e5		 mov	 esp, ebp
  00039	5d		 pop	 ebp
  0003a	c2 04 00	 ret	 4
?_Inside@?$vector@UGRANDSYSTEM_REWARD_DATA@@V?$allocator@UGRANDSYSTEM_REWARD_DATA@@@std@@@std@@IBE_NPBUGRANDSYSTEM_REWARD_DATA@@@Z ENDP ; std::vector<GRANDSYSTEM_REWARD_DATA,std::allocator<GRANDSYSTEM_REWARD_DATA> >::_Inside
_TEXT	ENDS
PUBLIC	?reserve@?$vector@UGRANDSYSTEM_REWARD_DATA@@V?$allocator@UGRANDSYSTEM_REWARD_DATA@@@std@@@std@@QAEXI@Z ; std::vector<GRANDSYSTEM_REWARD_DATA,std::allocator<GRANDSYSTEM_REWARD_DATA> >::reserve
PUBLIC	?_Grow_to@?$vector@UGRANDSYSTEM_REWARD_DATA@@V?$allocator@UGRANDSYSTEM_REWARD_DATA@@@std@@@std@@IBEII@Z ; std::vector<GRANDSYSTEM_REWARD_DATA,std::allocator<GRANDSYSTEM_REWARD_DATA> >::_Grow_to
PUBLIC	?capacity@?$vector@UGRANDSYSTEM_REWARD_DATA@@V?$allocator@UGRANDSYSTEM_REWARD_DATA@@@std@@@std@@QBEIXZ ; std::vector<GRANDSYSTEM_REWARD_DATA,std::allocator<GRANDSYSTEM_REWARD_DATA> >::capacity
PUBLIC	?_Xlen@?$vector@UGRANDSYSTEM_REWARD_DATA@@V?$allocator@UGRANDSYSTEM_REWARD_DATA@@@std@@@std@@IBEXXZ ; std::vector<GRANDSYSTEM_REWARD_DATA,std::allocator<GRANDSYSTEM_REWARD_DATA> >::_Xlen
PUBLIC	?max_size@?$vector@UGRANDSYSTEM_REWARD_DATA@@V?$allocator@UGRANDSYSTEM_REWARD_DATA@@@std@@@std@@QBEIXZ ; std::vector<GRANDSYSTEM_REWARD_DATA,std::allocator<GRANDSYSTEM_REWARD_DATA> >::max_size
; Function compile flags: /Odtp /ZI
;	COMDAT ?_Reserve@?$vector@UGRANDSYSTEM_REWARD_DATA@@V?$allocator@UGRANDSYSTEM_REWARD_DATA@@@std@@@std@@IAEXI@Z
_TEXT	SEGMENT
__Size$ = -8						; size = 4
_this$ = -4						; size = 4
__Count$ = 8						; size = 4
?_Reserve@?$vector@UGRANDSYSTEM_REWARD_DATA@@V?$allocator@UGRANDSYSTEM_REWARD_DATA@@@std@@@std@@IAEXI@Z PROC ; std::vector<GRANDSYSTEM_REWARD_DATA,std::allocator<GRANDSYSTEM_REWARD_DATA> >::_Reserve, COMDAT
; _this$ = ecx

; 1290 : 		{	// ensure room for _Count new elements, grow exponentially

  00000	55		 push	 ebp
  00001	8b ec		 mov	 ebp, esp
  00003	83 ec 48	 sub	 esp, 72			; 00000048H
  00006	53		 push	 ebx
  00007	56		 push	 esi
  00008	57		 push	 edi
  00009	89 4d fc	 mov	 DWORD PTR _this$[ebp], ecx

; 1291 : 		size_type _Size = size();

  0000c	8b 4d fc	 mov	 ecx, DWORD PTR _this$[ebp]
  0000f	e8 00 00 00 00	 call	 ?size@?$vector@UGRANDSYSTEM_REWARD_DATA@@V?$allocator@UGRANDSYSTEM_REWARD_DATA@@@std@@@std@@QBEIXZ ; std::vector<GRANDSYSTEM_REWARD_DATA,std::allocator<GRANDSYSTEM_REWARD_DATA> >::size
  00014	89 45 f8	 mov	 DWORD PTR __Size$[ebp], eax

; 1292 : 		if (max_size() - _Count < _Size)

  00017	8b 4d fc	 mov	 ecx, DWORD PTR _this$[ebp]
  0001a	e8 00 00 00 00	 call	 ?max_size@?$vector@UGRANDSYSTEM_REWARD_DATA@@V?$allocator@UGRANDSYSTEM_REWARD_DATA@@@std@@@std@@QBEIXZ ; std::vector<GRANDSYSTEM_REWARD_DATA,std::allocator<GRANDSYSTEM_REWARD_DATA> >::max_size
  0001f	2b 45 08	 sub	 eax, DWORD PTR __Count$[ebp]
  00022	3b 45 f8	 cmp	 eax, DWORD PTR __Size$[ebp]
  00025	73 0a		 jae	 SHORT $LN4@Reserve@2

; 1293 : 			_Xlen();

  00027	8b 4d fc	 mov	 ecx, DWORD PTR _this$[ebp]
  0002a	e8 00 00 00 00	 call	 ?_Xlen@?$vector@UGRANDSYSTEM_REWARD_DATA@@V?$allocator@UGRANDSYSTEM_REWARD_DATA@@@std@@@std@@IBEXXZ ; std::vector<GRANDSYSTEM_REWARD_DATA,std::allocator<GRANDSYSTEM_REWARD_DATA> >::_Xlen
  0002f	eb 2d		 jmp	 SHORT $LN6@Reserve@2
$LN4@Reserve@2:

; 1294 : 		else if ((_Size += _Count) <= capacity())

  00031	8b 45 f8	 mov	 eax, DWORD PTR __Size$[ebp]
  00034	03 45 08	 add	 eax, DWORD PTR __Count$[ebp]
  00037	89 45 f8	 mov	 DWORD PTR __Size$[ebp], eax
  0003a	8b 4d fc	 mov	 ecx, DWORD PTR _this$[ebp]
  0003d	e8 00 00 00 00	 call	 ?capacity@?$vector@UGRANDSYSTEM_REWARD_DATA@@V?$allocator@UGRANDSYSTEM_REWARD_DATA@@@std@@@std@@QBEIXZ ; std::vector<GRANDSYSTEM_REWARD_DATA,std::allocator<GRANDSYSTEM_REWARD_DATA> >::capacity
  00042	39 45 f8	 cmp	 DWORD PTR __Size$[ebp], eax
  00045	77 02		 ja	 SHORT $LN2@Reserve@2

; 1295 : 			;
; 1296 : 		else

  00047	eb 15		 jmp	 SHORT $LN6@Reserve@2
$LN2@Reserve@2:

; 1297 : 			reserve(_Grow_to(_Size));

  00049	8b 45 f8	 mov	 eax, DWORD PTR __Size$[ebp]
  0004c	50		 push	 eax
  0004d	8b 4d fc	 mov	 ecx, DWORD PTR _this$[ebp]
  00050	e8 00 00 00 00	 call	 ?_Grow_to@?$vector@UGRANDSYSTEM_REWARD_DATA@@V?$allocator@UGRANDSYSTEM_REWARD_DATA@@@std@@@std@@IBEII@Z ; std::vector<GRANDSYSTEM_REWARD_DATA,std::allocator<GRANDSYSTEM_REWARD_DATA> >::_Grow_to
  00055	50		 push	 eax
  00056	8b 4d fc	 mov	 ecx, DWORD PTR _this$[ebp]
  00059	e8 00 00 00 00	 call	 ?reserve@?$vector@UGRANDSYSTEM_REWARD_DATA@@V?$allocator@UGRANDSYSTEM_REWARD_DATA@@@std@@@std@@QAEXI@Z ; std::vector<GRANDSYSTEM_REWARD_DATA,std::allocator<GRANDSYSTEM_REWARD_DATA> >::reserve
$LN6@Reserve@2:

; 1298 : 		}

  0005e	5f		 pop	 edi
  0005f	5e		 pop	 esi
  00060	5b		 pop	 ebx
  00061	8b e5		 mov	 esp, ebp
  00063	5d		 pop	 ebp
  00064	c2 04 00	 ret	 4
?_Reserve@?$vector@UGRANDSYSTEM_REWARD_DATA@@V?$allocator@UGRANDSYSTEM_REWARD_DATA@@@std@@@std@@IAEXI@Z ENDP ; std::vector<GRANDSYSTEM_REWARD_DATA,std::allocator<GRANDSYSTEM_REWARD_DATA> >::_Reserve
; Function compile flags: /Odtp /ZI
_TEXT	ENDS
;	COMDAT ?_Orphan_range@?$vector@UGRANDSYSTEM_REWARD_DATA@@V?$allocator@UGRANDSYSTEM_REWARD_DATA@@@std@@@std@@IBEXPAUGRANDSYSTEM_REWARD_DATA@@0@Z
_TEXT	SEGMENT
_this$ = -4						; size = 4
___formal$ = 8						; size = 4
___formal$ = 12						; size = 4
?_Orphan_range@?$vector@UGRANDSYSTEM_REWARD_DATA@@V?$allocator@UGRANDSYSTEM_REWARD_DATA@@@std@@@std@@IBEXPAUGRANDSYSTEM_REWARD_DATA@@0@Z PROC ; std::vector<GRANDSYSTEM_REWARD_DATA,std::allocator<GRANDSYSTEM_REWARD_DATA> >::_Orphan_range, COMDAT
; _this$ = ecx

; 1453 : 		{	// orphan iterators within specified (inclusive) range

  00000	55		 push	 ebp
  00001	8b ec		 mov	 ebp, esp
  00003	83 ec 44	 sub	 esp, 68			; 00000044H
  00006	53		 push	 ebx
  00007	56		 push	 esi
  00008	57		 push	 edi
  00009	89 4d fc	 mov	 DWORD PTR _this$[ebp], ecx

; 1454 : 		}

  0000c	5f		 pop	 edi
  0000d	5e		 pop	 esi
  0000e	5b		 pop	 ebx
  0000f	8b e5		 mov	 esp, ebp
  00011	5d		 pop	 ebp
  00012	c2 08 00	 ret	 8
?_Orphan_range@?$vector@UGRANDSYSTEM_REWARD_DATA@@V?$allocator@UGRANDSYSTEM_REWARD_DATA@@@std@@@std@@IBEXPAUGRANDSYSTEM_REWARD_DATA@@0@Z ENDP ; std::vector<GRANDSYSTEM_REWARD_DATA,std::allocator<GRANDSYSTEM_REWARD_DATA> >::_Orphan_range
_TEXT	ENDS
PUBLIC	?_Orphan_all@_Container_base0@std@@QAEXXZ	; std::_Container_base0::_Orphan_all
PUBLIC	?deallocate@?$allocator@UGrandResetEXP@@@std@@QAEXPAUGrandResetEXP@@I@Z ; std::allocator<GrandResetEXP>::deallocate
PUBLIC	??$_Umove@PAUGrandResetEXP@@@?$vector@UGrandResetEXP@@V?$allocator@UGrandResetEXP@@@std@@@std@@IAEPAUGrandResetEXP@@PAU2@00@Z ; std::vector<GrandResetEXP,std::allocator<GrandResetEXP> >::_Umove<GrandResetEXP *>
PUBLIC	?allocate@?$allocator@UGrandResetEXP@@@std@@QAEPAUGrandResetEXP@@I@Z ; std::allocator<GrandResetEXP>::allocate
EXTRN	___CxxFrameHandler3:PROC
EXTRN	__CxxThrowException@8:PROC
;	COMDAT xdata$x
xdata$x	SEGMENT
__catchsym$?reserve@?$vector@UGrandResetEXP@@V?$allocator@UGrandResetEXP@@@std@@@std@@QAEXI@Z$2 DD 040H
	DD	00H
	DD	00H
	DD	FLAT:__catch$?reserve@?$vector@UGrandResetEXP@@V?$allocator@UGrandResetEXP@@@std@@@std@@QAEXI@Z$0
__unwindtable$?reserve@?$vector@UGrandResetEXP@@V?$allocator@UGrandResetEXP@@@std@@@std@@QAEXI@Z DD 0ffffffffH
	DD	00H
	DD	0ffffffffH
	DD	00H
__tryblocktable$?reserve@?$vector@UGrandResetEXP@@V?$allocator@UGrandResetEXP@@@std@@@std@@QAEXI@Z DD 00H
	DD	00H
	DD	01H
	DD	01H
	DD	FLAT:__catchsym$?reserve@?$vector@UGrandResetEXP@@V?$allocator@UGrandResetEXP@@@std@@@std@@QAEXI@Z$2
__ehfuncinfo$?reserve@?$vector@UGrandResetEXP@@V?$allocator@UGrandResetEXP@@@std@@@std@@QAEXI@Z DD 019930522H
	DD	02H
	DD	FLAT:__unwindtable$?reserve@?$vector@UGrandResetEXP@@V?$allocator@UGrandResetEXP@@@std@@@std@@QAEXI@Z
	DD	01H
	DD	FLAT:__tryblocktable$?reserve@?$vector@UGrandResetEXP@@V?$allocator@UGrandResetEXP@@@std@@@std@@QAEXI@Z
	DD	2 DUP(00H)
	DD	00H
	DD	01H
; Function compile flags: /Odtp /ZI
xdata$x	ENDS
;	COMDAT ?reserve@?$vector@UGrandResetEXP@@V?$allocator@UGrandResetEXP@@@std@@@std@@QAEXI@Z
_TEXT	SEGMENT
__Size$232249 = -28					; size = 4
__Ptr$232242 = -24					; size = 4
_this$ = -20						; size = 4
__$EHRec$ = -16						; size = 16
__Count$ = 8						; size = 4
?reserve@?$vector@UGrandResetEXP@@V?$allocator@UGrandResetEXP@@@std@@@std@@QAEXI@Z PROC ; std::vector<GrandResetEXP,std::allocator<GrandResetEXP> >::reserve, COMDAT
; _this$ = ecx

; 746  : 		{	// determine new minimum length of allocated storage

  00000	55		 push	 ebp
  00001	8b ec		 mov	 ebp, esp
  00003	6a ff		 push	 -1
  00005	68 00 00 00 00	 push	 __ehhandler$?reserve@?$vector@UGrandResetEXP@@V?$allocator@UGrandResetEXP@@@std@@@std@@QAEXI@Z
  0000a	64 a1 00 00 00
	00		 mov	 eax, DWORD PTR fs:0
  00010	50		 push	 eax
  00011	51		 push	 ecx
  00012	83 ec 4c	 sub	 esp, 76			; 0000004cH
  00015	53		 push	 ebx
  00016	56		 push	 esi
  00017	57		 push	 edi
  00018	a1 00 00 00 00	 mov	 eax, DWORD PTR ___security_cookie
  0001d	33 c5		 xor	 eax, ebp
  0001f	50		 push	 eax
  00020	8d 45 f4	 lea	 eax, DWORD PTR __$EHRec$[ebp+4]
  00023	64 a3 00 00 00
	00		 mov	 DWORD PTR fs:0, eax
  00029	89 65 f0	 mov	 DWORD PTR __$EHRec$[ebp], esp
  0002c	89 4d ec	 mov	 DWORD PTR _this$[ebp], ecx

; 747  : 		if (max_size() < _Count)

  0002f	8b 4d ec	 mov	 ecx, DWORD PTR _this$[ebp]
  00032	e8 00 00 00 00	 call	 ?max_size@?$vector@UGrandResetEXP@@V?$allocator@UGrandResetEXP@@@std@@@std@@QBEIXZ ; std::vector<GrandResetEXP,std::allocator<GrandResetEXP> >::max_size
  00037	3b 45 08	 cmp	 eax, DWORD PTR __Count$[ebp]
  0003a	73 0d		 jae	 SHORT $LN5@reserve

; 748  : 			_Xlen();	// result too long

  0003c	8b 4d ec	 mov	 ecx, DWORD PTR _this$[ebp]
  0003f	e8 00 00 00 00	 call	 ?_Xlen@?$vector@UGrandResetEXP@@V?$allocator@UGrandResetEXP@@@std@@@std@@IBEXXZ ; std::vector<GrandResetEXP,std::allocator<GrandResetEXP> >::_Xlen
  00044	e9 eb 00 00 00	 jmp	 $LN7@reserve
$LN5@reserve:

; 749  : 		else if (capacity() < _Count)

  00049	8b 4d ec	 mov	 ecx, DWORD PTR _this$[ebp]
  0004c	e8 00 00 00 00	 call	 ?capacity@?$vector@UGrandResetEXP@@V?$allocator@UGrandResetEXP@@@std@@@std@@QBEIXZ ; std::vector<GrandResetEXP,std::allocator<GrandResetEXP> >::capacity
  00051	3b 45 08	 cmp	 eax, DWORD PTR __Count$[ebp]
  00054	0f 83 da 00 00
	00		 jae	 $LN7@reserve

; 750  : 			{	// not enough room, reallocate
; 751  : 			pointer _Ptr = this->_Alval.allocate(_Count);

  0005a	8b 45 08	 mov	 eax, DWORD PTR __Count$[ebp]
  0005d	50		 push	 eax
  0005e	8b 4d ec	 mov	 ecx, DWORD PTR _this$[ebp]
  00061	83 c1 0c	 add	 ecx, 12			; 0000000cH
  00064	e8 00 00 00 00	 call	 ?allocate@?$allocator@UGrandResetEXP@@@std@@QAEPAUGrandResetEXP@@I@Z ; std::allocator<GrandResetEXP>::allocate
  00069	89 45 e8	 mov	 DWORD PTR __Ptr$232242[ebp], eax

; 752  : 
; 753  : 			_TRY_BEGIN

  0006c	c7 45 fc 00 00
	00 00		 mov	 DWORD PTR __$EHRec$[ebp+12], 0

; 754  : 			_Umove(this->_Myfirst, this->_Mylast, _Ptr);

  00073	8b 45 e8	 mov	 eax, DWORD PTR __Ptr$232242[ebp]
  00076	50		 push	 eax
  00077	8b 4d ec	 mov	 ecx, DWORD PTR _this$[ebp]
  0007a	8b 51 04	 mov	 edx, DWORD PTR [ecx+4]
  0007d	52		 push	 edx
  0007e	8b 45 ec	 mov	 eax, DWORD PTR _this$[ebp]
  00081	8b 08		 mov	 ecx, DWORD PTR [eax]
  00083	51		 push	 ecx
  00084	8b 4d ec	 mov	 ecx, DWORD PTR _this$[ebp]
  00087	e8 00 00 00 00	 call	 ??$_Umove@PAUGrandResetEXP@@@?$vector@UGrandResetEXP@@V?$allocator@UGrandResetEXP@@@std@@@std@@IAEPAUGrandResetEXP@@PAU2@00@Z ; std::vector<GrandResetEXP,std::allocator<GrandResetEXP> >::_Umove<GrandResetEXP *>
  0008c	eb 29		 jmp	 SHORT $LN8@reserve
__catch$?reserve@?$vector@UGrandResetEXP@@V?$allocator@UGrandResetEXP@@@std@@@std@@QAEXI@Z$0:

; 755  : 			_CATCH_ALL
; 756  : 			this->_Alval.deallocate(_Ptr, _Count);

  0008e	8b 45 08	 mov	 eax, DWORD PTR __Count$[ebp]
  00091	50		 push	 eax
  00092	8b 4d e8	 mov	 ecx, DWORD PTR __Ptr$232242[ebp]
  00095	51		 push	 ecx
  00096	8b 4d ec	 mov	 ecx, DWORD PTR _this$[ebp]
  00099	83 c1 0c	 add	 ecx, 12			; 0000000cH
  0009c	e8 00 00 00 00	 call	 ?deallocate@?$allocator@UGrandResetEXP@@@std@@QAEXPAUGrandResetEXP@@I@Z ; std::allocator<GrandResetEXP>::deallocate

; 757  : 			_RERAISE;

  000a1	6a 00		 push	 0
  000a3	6a 00		 push	 0
  000a5	e8 00 00 00 00	 call	 __CxxThrowException@8

; 758  : 			_CATCH_END

  000aa	c7 45 fc ff ff
	ff ff		 mov	 DWORD PTR __$EHRec$[ebp+12], -1
  000b1	b8 00 00 00 00	 mov	 eax, __tryend$?reserve@?$vector@UGrandResetEXP@@V?$allocator@UGrandResetEXP@@@std@@@std@@QAEXI@Z$1
  000b6	c3		 ret	 0
$LN8@reserve:
  000b7	c7 45 fc ff ff
	ff ff		 mov	 DWORD PTR __$EHRec$[ebp+12], -1
__tryend$?reserve@?$vector@UGrandResetEXP@@V?$allocator@UGrandResetEXP@@@std@@@std@@QAEXI@Z$1:

; 759  : 
; 760  : 			size_type _Size = size();

  000be	8b 4d ec	 mov	 ecx, DWORD PTR _this$[ebp]
  000c1	e8 00 00 00 00	 call	 ?size@?$vector@UGrandResetEXP@@V?$allocator@UGrandResetEXP@@@std@@@std@@QBEIXZ ; std::vector<GrandResetEXP,std::allocator<GrandResetEXP> >::size
  000c6	89 45 e4	 mov	 DWORD PTR __Size$232249[ebp], eax

; 761  : 			if (this->_Myfirst != 0)

  000c9	8b 45 ec	 mov	 eax, DWORD PTR _this$[ebp]
  000cc	83 38 00	 cmp	 DWORD PTR [eax], 0
  000cf	74 35		 je	 SHORT $LN1@reserve

; 762  : 				{	// destroy and deallocate old array
; 763  : 				_Destroy(this->_Myfirst, this->_Mylast);

  000d1	8b 45 ec	 mov	 eax, DWORD PTR _this$[ebp]
  000d4	8b 48 04	 mov	 ecx, DWORD PTR [eax+4]
  000d7	51		 push	 ecx
  000d8	8b 55 ec	 mov	 edx, DWORD PTR _this$[ebp]
  000db	8b 02		 mov	 eax, DWORD PTR [edx]
  000dd	50		 push	 eax
  000de	8b 4d ec	 mov	 ecx, DWORD PTR _this$[ebp]
  000e1	e8 00 00 00 00	 call	 ?_Destroy@?$vector@UGrandResetEXP@@V?$allocator@UGrandResetEXP@@@std@@@std@@IAEXPAUGrandResetEXP@@0@Z ; std::vector<GrandResetEXP,std::allocator<GrandResetEXP> >::_Destroy

; 764  : 				this->_Alval.deallocate(this->_Myfirst,
; 765  : 					this->_Myend - this->_Myfirst);

  000e6	8b 45 ec	 mov	 eax, DWORD PTR _this$[ebp]
  000e9	8b 4d ec	 mov	 ecx, DWORD PTR _this$[ebp]
  000ec	8b 50 08	 mov	 edx, DWORD PTR [eax+8]
  000ef	2b 11		 sub	 edx, DWORD PTR [ecx]
  000f1	c1 fa 03	 sar	 edx, 3
  000f4	52		 push	 edx
  000f5	8b 45 ec	 mov	 eax, DWORD PTR _this$[ebp]
  000f8	8b 08		 mov	 ecx, DWORD PTR [eax]
  000fa	51		 push	 ecx
  000fb	8b 4d ec	 mov	 ecx, DWORD PTR _this$[ebp]
  000fe	83 c1 0c	 add	 ecx, 12			; 0000000cH
  00101	e8 00 00 00 00	 call	 ?deallocate@?$allocator@UGrandResetEXP@@@std@@QAEXPAUGrandResetEXP@@I@Z ; std::allocator<GrandResetEXP>::deallocate
$LN1@reserve:

; 766  : 				}
; 767  : 
; 768  : 			this->_Orphan_all();

  00106	8b 4d ec	 mov	 ecx, DWORD PTR _this$[ebp]
  00109	e8 00 00 00 00	 call	 ?_Orphan_all@_Container_base0@std@@QAEXXZ ; std::_Container_base0::_Orphan_all

; 769  : 			this->_Myend = _Ptr + _Count;

  0010e	8b 45 08	 mov	 eax, DWORD PTR __Count$[ebp]
  00111	8b 4d e8	 mov	 ecx, DWORD PTR __Ptr$232242[ebp]
  00114	8d 14 c1	 lea	 edx, DWORD PTR [ecx+eax*8]
  00117	8b 45 ec	 mov	 eax, DWORD PTR _this$[ebp]
  0011a	89 50 08	 mov	 DWORD PTR [eax+8], edx

; 770  : 			this->_Mylast = _Ptr + _Size;

  0011d	8b 45 e4	 mov	 eax, DWORD PTR __Size$232249[ebp]
  00120	8b 4d e8	 mov	 ecx, DWORD PTR __Ptr$232242[ebp]
  00123	8d 14 c1	 lea	 edx, DWORD PTR [ecx+eax*8]
  00126	8b 45 ec	 mov	 eax, DWORD PTR _this$[ebp]
  00129	89 50 04	 mov	 DWORD PTR [eax+4], edx

; 771  : 			this->_Myfirst = _Ptr;

  0012c	8b 45 ec	 mov	 eax, DWORD PTR _this$[ebp]
  0012f	8b 4d e8	 mov	 ecx, DWORD PTR __Ptr$232242[ebp]
  00132	89 08		 mov	 DWORD PTR [eax], ecx
$LN7@reserve:

; 772  : 			}
; 773  : 		}

  00134	8b 4d f4	 mov	 ecx, DWORD PTR __$EHRec$[ebp+4]
  00137	64 89 0d 00 00
	00 00		 mov	 DWORD PTR fs:0, ecx
  0013e	59		 pop	 ecx
  0013f	5f		 pop	 edi
  00140	5e		 pop	 esi
  00141	5b		 pop	 ebx
  00142	8b e5		 mov	 esp, ebp
  00144	5d		 pop	 ebp
  00145	c2 04 00	 ret	 4
_TEXT	ENDS
;	COMDAT text$x
text$x	SEGMENT
__ehhandler$?reserve@?$vector@UGrandResetEXP@@V?$allocator@UGrandResetEXP@@@std@@@std@@QAEXI@Z:
  00000	8b 54 24 08	 mov	 edx, DWORD PTR [esp+8]
  00004	8d 42 0c	 lea	 eax, DWORD PTR [edx+12]
  00007	8b 4a a0	 mov	 ecx, DWORD PTR [edx-96]
  0000a	33 c8		 xor	 ecx, eax
  0000c	e8 00 00 00 00	 call	 @__security_check_cookie@4
  00011	b8 00 00 00 00	 mov	 eax, OFFSET __ehfuncinfo$?reserve@?$vector@UGrandResetEXP@@V?$allocator@UGrandResetEXP@@@std@@@std@@QAEXI@Z
  00016	e9 00 00 00 00	 jmp	 ___CxxFrameHandler3
text$x	ENDS
?reserve@?$vector@UGrandResetEXP@@V?$allocator@UGrandResetEXP@@@std@@@std@@QAEXI@Z ENDP ; std::vector<GrandResetEXP,std::allocator<GrandResetEXP> >::reserve
; Function compile flags: /Odtp /ZI
;	COMDAT ?capacity@?$vector@UGrandResetEXP@@V?$allocator@UGrandResetEXP@@@std@@@std@@QBEIXZ
_TEXT	SEGMENT
_this$ = -4						; size = 4
?capacity@?$vector@UGrandResetEXP@@V?$allocator@UGrandResetEXP@@@std@@@std@@QBEIXZ PROC ; std::vector<GrandResetEXP,std::allocator<GrandResetEXP> >::capacity, COMDAT
; _this$ = ecx

; 776  : 		{	// return current length of allocated storage

  00000	55		 push	 ebp
  00001	8b ec		 mov	 ebp, esp
  00003	83 ec 44	 sub	 esp, 68			; 00000044H
  00006	53		 push	 ebx
  00007	56		 push	 esi
  00008	57		 push	 edi
  00009	89 4d fc	 mov	 DWORD PTR _this$[ebp], ecx

; 777  : 		return (this->_Myend - this->_Myfirst);

  0000c	8b 45 fc	 mov	 eax, DWORD PTR _this$[ebp]
  0000f	8b 4d fc	 mov	 ecx, DWORD PTR _this$[ebp]
  00012	8b 40 08	 mov	 eax, DWORD PTR [eax+8]
  00015	2b 01		 sub	 eax, DWORD PTR [ecx]
  00017	c1 f8 03	 sar	 eax, 3

; 778  : 		}

  0001a	5f		 pop	 edi
  0001b	5e		 pop	 esi
  0001c	5b		 pop	 ebx
  0001d	8b e5		 mov	 esp, ebp
  0001f	5d		 pop	 ebp
  00020	c3		 ret	 0
?capacity@?$vector@UGrandResetEXP@@V?$allocator@UGrandResetEXP@@@std@@@std@@QBEIXZ ENDP ; std::vector<GrandResetEXP,std::allocator<GrandResetEXP> >::capacity
; Function compile flags: /Odtp /ZI
_TEXT	ENDS
;	COMDAT ?_Make_iter@?$vector@UGrandResetEXP@@V?$allocator@UGrandResetEXP@@@std@@@std@@QBE?AV?$_Vector_iterator@V?$_Vector_val@UGrandResetEXP@@V?$allocator@UGrandResetEXP@@@std@@@std@@@2@V?$_Vector_const_iterator@V?$_Vector_val@UGrandResetEXP@@V?$allocator@UGrandResetEXP@@@std@@@std@@@2@@Z
_TEXT	SEGMENT
_this$ = -4						; size = 4
___$ReturnUdt$ = 8					; size = 4
__Where$ = 12						; size = 4
?_Make_iter@?$vector@UGrandResetEXP@@V?$allocator@UGrandResetEXP@@@std@@@std@@QBE?AV?$_Vector_iterator@V?$_Vector_val@UGrandResetEXP@@V?$allocator@UGrandResetEXP@@@std@@@std@@@2@V?$_Vector_const_iterator@V?$_Vector_val@UGrandResetEXP@@V?$allocator@UGrandResetEXP@@@std@@@std@@@2@@Z PROC ; std::vector<GrandResetEXP,std::allocator<GrandResetEXP> >::_Make_iter, COMDAT
; _this$ = ecx

; 801  : 		{	// make iterator from const_iterator

  00000	55		 push	 ebp
  00001	8b ec		 mov	 ebp, esp
  00003	83 ec 44	 sub	 esp, 68			; 00000044H
  00006	53		 push	 ebx
  00007	56		 push	 esi
  00008	57		 push	 edi
  00009	89 4d fc	 mov	 DWORD PTR _this$[ebp], ecx

; 802  : 		return (iterator(_Where._Ptr, this));

  0000c	8b 45 fc	 mov	 eax, DWORD PTR _this$[ebp]
  0000f	50		 push	 eax
  00010	8b 4d 0c	 mov	 ecx, DWORD PTR __Where$[ebp]
  00013	51		 push	 ecx
  00014	8b 4d 08	 mov	 ecx, DWORD PTR ___$ReturnUdt$[ebp]
  00017	e8 00 00 00 00	 call	 ??0?$_Vector_iterator@V?$_Vector_val@UGrandResetEXP@@V?$allocator@UGrandResetEXP@@@std@@@std@@@std@@QAE@PAUGrandResetEXP@@PBU_Container_base0@1@@Z ; std::_Vector_iterator<std::_Vector_val<GrandResetEXP,std::allocator<GrandResetEXP> > >::_Vector_iterator<std::_Vector_val<GrandResetEXP,std::allocator<GrandResetEXP> > >
  0001c	8b 45 08	 mov	 eax, DWORD PTR ___$ReturnUdt$[ebp]

; 803  : 		}

  0001f	5f		 pop	 edi
  00020	5e		 pop	 esi
  00021	5b		 pop	 ebx
  00022	8b e5		 mov	 esp, ebp
  00024	5d		 pop	 ebp
  00025	c2 08 00	 ret	 8
?_Make_iter@?$vector@UGrandResetEXP@@V?$allocator@UGrandResetEXP@@@std@@@std@@QBE?AV?$_Vector_iterator@V?$_Vector_val@UGrandResetEXP@@V?$allocator@UGrandResetEXP@@@std@@@std@@@2@V?$_Vector_const_iterator@V?$_Vector_val@UGrandResetEXP@@V?$allocator@UGrandResetEXP@@@std@@@std@@@2@@Z ENDP ; std::vector<GrandResetEXP,std::allocator<GrandResetEXP> >::_Make_iter
_TEXT	ENDS
PUBLIC	?max_size@?$allocator@UGrandResetEXP@@@std@@QBEIXZ ; std::allocator<GrandResetEXP>::max_size
; Function compile flags: /Odtp /ZI
;	COMDAT ?max_size@?$vector@UGrandResetEXP@@V?$allocator@UGrandResetEXP@@@std@@@std@@QBEIXZ
_TEXT	SEGMENT
_this$ = -4						; size = 4
?max_size@?$vector@UGrandResetEXP@@V?$allocator@UGrandResetEXP@@@std@@@std@@QBEIXZ PROC ; std::vector<GrandResetEXP,std::allocator<GrandResetEXP> >::max_size, COMDAT
; _this$ = ecx

; 883  : 		{	// return maximum possible length of sequence

  00000	55		 push	 ebp
  00001	8b ec		 mov	 ebp, esp
  00003	83 ec 44	 sub	 esp, 68			; 00000044H
  00006	53		 push	 ebx
  00007	56		 push	 esi
  00008	57		 push	 edi
  00009	89 4d fc	 mov	 DWORD PTR _this$[ebp], ecx

; 884  : 		return (this->_Alval.max_size());

  0000c	8b 4d fc	 mov	 ecx, DWORD PTR _this$[ebp]
  0000f	83 c1 0c	 add	 ecx, 12			; 0000000cH
  00012	e8 00 00 00 00	 call	 ?max_size@?$allocator@UGrandResetEXP@@@std@@QBEIXZ ; std::allocator<GrandResetEXP>::max_size

; 885  : 		}

  00017	5f		 pop	 edi
  00018	5e		 pop	 esi
  00019	5b		 pop	 ebx
  0001a	8b e5		 mov	 esp, ebp
  0001c	5d		 pop	 ebp
  0001d	c3		 ret	 0
?max_size@?$vector@UGrandResetEXP@@V?$allocator@UGrandResetEXP@@@std@@@std@@QBEIXZ ENDP ; std::vector<GrandResetEXP,std::allocator<GrandResetEXP> >::max_size
_TEXT	ENDS
PUBLIC	??$_Destroy_range@V?$allocator@UGrandResetEXP@@@std@@@std@@YAXPAUGrandResetEXP@@0AAV?$allocator@UGrandResetEXP@@@0@@Z ; std::_Destroy_range<std::allocator<GrandResetEXP> >
; Function compile flags: /Odtp /ZI
;	COMDAT ?_Destroy@?$vector@UGrandResetEXP@@V?$allocator@UGrandResetEXP@@@std@@@std@@IAEXPAUGrandResetEXP@@0@Z
_TEXT	SEGMENT
_this$ = -4						; size = 4
__First$ = 8						; size = 4
__Last$ = 12						; size = 4
?_Destroy@?$vector@UGrandResetEXP@@V?$allocator@UGrandResetEXP@@@std@@@std@@IAEXPAUGrandResetEXP@@0@Z PROC ; std::vector<GrandResetEXP,std::allocator<GrandResetEXP> >::_Destroy, COMDAT
; _this$ = ecx

; 1269 : 		{	// destroy [_First, _Last) using allocator

  00000	55		 push	 ebp
  00001	8b ec		 mov	 ebp, esp
  00003	83 ec 44	 sub	 esp, 68			; 00000044H
  00006	53		 push	 ebx
  00007	56		 push	 esi
  00008	57		 push	 edi
  00009	89 4d fc	 mov	 DWORD PTR _this$[ebp], ecx

; 1270 : 		_Destroy_range(_First, _Last, this->_Alval);

  0000c	8b 45 fc	 mov	 eax, DWORD PTR _this$[ebp]
  0000f	83 c0 0c	 add	 eax, 12			; 0000000cH
  00012	50		 push	 eax
  00013	8b 4d 0c	 mov	 ecx, DWORD PTR __Last$[ebp]
  00016	51		 push	 ecx
  00017	8b 55 08	 mov	 edx, DWORD PTR __First$[ebp]
  0001a	52		 push	 edx
  0001b	e8 00 00 00 00	 call	 ??$_Destroy_range@V?$allocator@UGrandResetEXP@@@std@@@std@@YAXPAUGrandResetEXP@@0AAV?$allocator@UGrandResetEXP@@@0@@Z ; std::_Destroy_range<std::allocator<GrandResetEXP> >
  00020	83 c4 0c	 add	 esp, 12			; 0000000cH

; 1271 : 		}

  00023	5f		 pop	 edi
  00024	5e		 pop	 esi
  00025	5b		 pop	 ebx
  00026	8b e5		 mov	 esp, ebp
  00028	5d		 pop	 ebp
  00029	c2 08 00	 ret	 8
?_Destroy@?$vector@UGrandResetEXP@@V?$allocator@UGrandResetEXP@@@std@@@std@@IAEXPAUGrandResetEXP@@0@Z ENDP ; std::vector<GrandResetEXP,std::allocator<GrandResetEXP> >::_Destroy
; Function compile flags: /Odtp /ZI
_TEXT	ENDS
;	COMDAT ?_Grow_to@?$vector@UGrandResetEXP@@V?$allocator@UGrandResetEXP@@@std@@@std@@IBEII@Z
_TEXT	SEGMENT
tv73 = -76						; size = 4
__Capacity$ = -8					; size = 4
_this$ = -4						; size = 4
__Count$ = 8						; size = 4
?_Grow_to@?$vector@UGrandResetEXP@@V?$allocator@UGrandResetEXP@@@std@@@std@@IBEII@Z PROC ; std::vector<GrandResetEXP,std::allocator<GrandResetEXP> >::_Grow_to, COMDAT
; _this$ = ecx

; 1274 : 		{	// grow by 50% or at least to _Count

  00000	55		 push	 ebp
  00001	8b ec		 mov	 ebp, esp
  00003	83 ec 4c	 sub	 esp, 76			; 0000004cH
  00006	53		 push	 ebx
  00007	56		 push	 esi
  00008	57		 push	 edi
  00009	89 4d fc	 mov	 DWORD PTR _this$[ebp], ecx

; 1275 : 		size_type _Capacity = capacity();

  0000c	8b 4d fc	 mov	 ecx, DWORD PTR _this$[ebp]
  0000f	e8 00 00 00 00	 call	 ?capacity@?$vector@UGrandResetEXP@@V?$allocator@UGrandResetEXP@@@std@@@std@@QBEIXZ ; std::vector<GrandResetEXP,std::allocator<GrandResetEXP> >::capacity
  00014	89 45 f8	 mov	 DWORD PTR __Capacity$[ebp], eax

; 1276 : 
; 1277 : 		_Capacity = max_size() - _Capacity / 2 < _Capacity
; 1278 : 			? 0 : _Capacity + _Capacity / 2;	// try to grow by 50%

  00017	8b 4d fc	 mov	 ecx, DWORD PTR _this$[ebp]
  0001a	e8 00 00 00 00	 call	 ?max_size@?$vector@UGrandResetEXP@@V?$allocator@UGrandResetEXP@@@std@@@std@@QBEIXZ ; std::vector<GrandResetEXP,std::allocator<GrandResetEXP> >::max_size
  0001f	8b 4d f8	 mov	 ecx, DWORD PTR __Capacity$[ebp]
  00022	d1 e9		 shr	 ecx, 1
  00024	2b c1		 sub	 eax, ecx
  00026	3b 45 f8	 cmp	 eax, DWORD PTR __Capacity$[ebp]
  00029	73 09		 jae	 SHORT $LN4@Grow_to
  0002b	c7 45 b4 00 00
	00 00		 mov	 DWORD PTR tv73[ebp], 0
  00032	eb 0b		 jmp	 SHORT $LN5@Grow_to
$LN4@Grow_to:
  00034	8b 55 f8	 mov	 edx, DWORD PTR __Capacity$[ebp]
  00037	d1 ea		 shr	 edx, 1
  00039	03 55 f8	 add	 edx, DWORD PTR __Capacity$[ebp]
  0003c	89 55 b4	 mov	 DWORD PTR tv73[ebp], edx
$LN5@Grow_to:
  0003f	8b 45 b4	 mov	 eax, DWORD PTR tv73[ebp]
  00042	89 45 f8	 mov	 DWORD PTR __Capacity$[ebp], eax

; 1279 : 		if (_Capacity < _Count)

  00045	8b 45 f8	 mov	 eax, DWORD PTR __Capacity$[ebp]
  00048	3b 45 08	 cmp	 eax, DWORD PTR __Count$[ebp]
  0004b	73 06		 jae	 SHORT $LN1@Grow_to

; 1280 : 			_Capacity = _Count;

  0004d	8b 45 08	 mov	 eax, DWORD PTR __Count$[ebp]
  00050	89 45 f8	 mov	 DWORD PTR __Capacity$[ebp], eax
$LN1@Grow_to:

; 1281 : 		return (_Capacity);

  00053	8b 45 f8	 mov	 eax, DWORD PTR __Capacity$[ebp]

; 1282 : 		}

  00056	5f		 pop	 edi
  00057	5e		 pop	 esi
  00058	5b		 pop	 ebx
  00059	8b e5		 mov	 esp, ebp
  0005b	5d		 pop	 ebp
  0005c	c2 04 00	 ret	 4
?_Grow_to@?$vector@UGrandResetEXP@@V?$allocator@UGrandResetEXP@@@std@@@std@@IBEII@Z ENDP ; std::vector<GrandResetEXP,std::allocator<GrandResetEXP> >::_Grow_to
_TEXT	ENDS
PUBLIC	??_C@_0BD@OLBABOEK@vector?$DMT?$DO?5too?5long?$AA@ ; `string'
EXTRN	?_Xlength_error@std@@YAXPBD@Z:PROC		; std::_Xlength_error
;	COMDAT ??_C@_0BD@OLBABOEK@vector?$DMT?$DO?5too?5long?$AA@
CONST	SEGMENT
??_C@_0BD@OLBABOEK@vector?$DMT?$DO?5too?5long?$AA@ DB 'vector<T> too long'
	DB	00H						; `string'
; Function compile flags: /Odtp /ZI
CONST	ENDS
;	COMDAT ?_Xlen@?$vector@UGrandResetEXP@@V?$allocator@UGrandResetEXP@@@std@@@std@@IBEXXZ
_TEXT	SEGMENT
_this$ = -4						; size = 4
?_Xlen@?$vector@UGrandResetEXP@@V?$allocator@UGrandResetEXP@@@std@@@std@@IBEXXZ PROC ; std::vector<GrandResetEXP,std::allocator<GrandResetEXP> >::_Xlen, COMDAT
; _this$ = ecx

; 1426 : 		{	// report a length_error

  00000	55		 push	 ebp
  00001	8b ec		 mov	 ebp, esp
  00003	83 ec 44	 sub	 esp, 68			; 00000044H
  00006	53		 push	 ebx
  00007	56		 push	 esi
  00008	57		 push	 edi
  00009	89 4d fc	 mov	 DWORD PTR _this$[ebp], ecx

; 1427 : 		_Xlength_error("vector<T> too long");

  0000c	68 00 00 00 00	 push	 OFFSET ??_C@_0BD@OLBABOEK@vector?$DMT?$DO?5too?5long?$AA@
  00011	e8 00 00 00 00	 call	 ?_Xlength_error@std@@YAXPBD@Z ; std::_Xlength_error
$LN2@Xlen:

; 1428 : 		}

  00016	5f		 pop	 edi
  00017	5e		 pop	 esi
  00018	5b		 pop	 ebx
  00019	8b e5		 mov	 esp, ebp
  0001b	5d		 pop	 ebp
  0001c	c3		 ret	 0
?_Xlen@?$vector@UGrandResetEXP@@V?$allocator@UGrandResetEXP@@@std@@@std@@IBEXXZ ENDP ; std::vector<GrandResetEXP,std::allocator<GrandResetEXP> >::_Xlen
_TEXT	ENDS
EXTRN	??3@YAXPAX@Z:PROC				; operator delete
; Function compile flags: /Odtp /ZI
; File d:\microsoft visual studio 10.0\vc\include\xmemory
;	COMDAT ?deallocate@?$allocator@UGrandResetEXP@@@std@@QAEXPAUGrandResetEXP@@I@Z
_TEXT	SEGMENT
_this$ = -4						; size = 4
__Ptr$ = 8						; size = 4
___formal$ = 12						; size = 4
?deallocate@?$allocator@UGrandResetEXP@@@std@@QAEXPAUGrandResetEXP@@I@Z PROC ; std::allocator<GrandResetEXP>::deallocate, COMDAT
; _this$ = ecx

; 181  : 		{	// deallocate object at _Ptr, ignore size

  00000	55		 push	 ebp
  00001	8b ec		 mov	 ebp, esp
  00003	83 ec 44	 sub	 esp, 68			; 00000044H
  00006	53		 push	 ebx
  00007	56		 push	 esi
  00008	57		 push	 edi
  00009	89 4d fc	 mov	 DWORD PTR _this$[ebp], ecx

; 182  : 		::operator delete(_Ptr);

  0000c	8b 45 08	 mov	 eax, DWORD PTR __Ptr$[ebp]
  0000f	50		 push	 eax
  00010	e8 00 00 00 00	 call	 ??3@YAXPAX@Z		; operator delete
  00015	83 c4 04	 add	 esp, 4

; 183  : 		}

  00018	5f		 pop	 edi
  00019	5e		 pop	 esi
  0001a	5b		 pop	 ebx
  0001b	8b e5		 mov	 esp, ebp
  0001d	5d		 pop	 ebp
  0001e	c2 08 00	 ret	 8
?deallocate@?$allocator@UGrandResetEXP@@@std@@QAEXPAUGrandResetEXP@@I@Z ENDP ; std::allocator<GrandResetEXP>::deallocate
_TEXT	ENDS
PUBLIC	?_Destroy@?$vector@UGRANDSYSTEM_REWARD_DATA@@V?$allocator@UGRANDSYSTEM_REWARD_DATA@@@std@@@std@@IAEXPAUGRANDSYSTEM_REWARD_DATA@@0@Z ; std::vector<GRANDSYSTEM_REWARD_DATA,std::allocator<GRANDSYSTEM_REWARD_DATA> >::_Destroy
PUBLIC	?deallocate@?$allocator@UGRANDSYSTEM_REWARD_DATA@@@std@@QAEXPAUGRANDSYSTEM_REWARD_DATA@@I@Z ; std::allocator<GRANDSYSTEM_REWARD_DATA>::deallocate
PUBLIC	??$_Umove@PAUGRANDSYSTEM_REWARD_DATA@@@?$vector@UGRANDSYSTEM_REWARD_DATA@@V?$allocator@UGRANDSYSTEM_REWARD_DATA@@@std@@@std@@IAEPAUGRANDSYSTEM_REWARD_DATA@@PAU2@00@Z ; std::vector<GRANDSYSTEM_REWARD_DATA,std::allocator<GRANDSYSTEM_REWARD_DATA> >::_Umove<GRANDSYSTEM_REWARD_DATA *>
PUBLIC	?allocate@?$allocator@UGRANDSYSTEM_REWARD_DATA@@@std@@QAEPAUGRANDSYSTEM_REWARD_DATA@@I@Z ; std::allocator<GRANDSYSTEM_REWARD_DATA>::allocate
;	COMDAT xdata$x
; File d:\microsoft visual studio 10.0\vc\include\vector
xdata$x	SEGMENT
__catchsym$?reserve@?$vector@UGRANDSYSTEM_REWARD_DATA@@V?$allocator@UGRANDSYSTEM_REWARD_DATA@@@std@@@std@@QAEXI@Z$2 DD 040H
	DD	00H
	DD	00H
	DD	FLAT:__catch$?reserve@?$vector@UGRANDSYSTEM_REWARD_DATA@@V?$allocator@UGRANDSYSTEM_REWARD_DATA@@@std@@@std@@QAEXI@Z$0
__unwindtable$?reserve@?$vector@UGRANDSYSTEM_REWARD_DATA@@V?$allocator@UGRANDSYSTEM_REWARD_DATA@@@std@@@std@@QAEXI@Z DD 0ffffffffH
	DD	00H
	DD	0ffffffffH
	DD	00H
__tryblocktable$?reserve@?$vector@UGRANDSYSTEM_REWARD_DATA@@V?$allocator@UGRANDSYSTEM_REWARD_DATA@@@std@@@std@@QAEXI@Z DD 00H
	DD	00H
	DD	01H
	DD	01H
	DD	FLAT:__catchsym$?reserve@?$vector@UGRANDSYSTEM_REWARD_DATA@@V?$allocator@UGRANDSYSTEM_REWARD_DATA@@@std@@@std@@QAEXI@Z$2
__ehfuncinfo$?reserve@?$vector@UGRANDSYSTEM_REWARD_DATA@@V?$allocator@UGRANDSYSTEM_REWARD_DATA@@@std@@@std@@QAEXI@Z DD 019930522H
	DD	02H
	DD	FLAT:__unwindtable$?reserve@?$vector@UGRANDSYSTEM_REWARD_DATA@@V?$allocator@UGRANDSYSTEM_REWARD_DATA@@@std@@@std@@QAEXI@Z
	DD	01H
	DD	FLAT:__tryblocktable$?reserve@?$vector@UGRANDSYSTEM_REWARD_DATA@@V?$allocator@UGRANDSYSTEM_REWARD_DATA@@@std@@@std@@QAEXI@Z
	DD	2 DUP(00H)
	DD	00H
	DD	01H
; Function compile flags: /Odtp /ZI
xdata$x	ENDS
;	COMDAT ?reserve@?$vector@UGRANDSYSTEM_REWARD_DATA@@V?$allocator@UGRANDSYSTEM_REWARD_DATA@@@std@@@std@@QAEXI@Z
_TEXT	SEGMENT
__Size$232290 = -28					; size = 4
__Ptr$232283 = -24					; size = 4
_this$ = -20						; size = 4
__$EHRec$ = -16						; size = 16
__Count$ = 8						; size = 4
?reserve@?$vector@UGRANDSYSTEM_REWARD_DATA@@V?$allocator@UGRANDSYSTEM_REWARD_DATA@@@std@@@std@@QAEXI@Z PROC ; std::vector<GRANDSYSTEM_REWARD_DATA,std::allocator<GRANDSYSTEM_REWARD_DATA> >::reserve, COMDAT
; _this$ = ecx

; 746  : 		{	// determine new minimum length of allocated storage

  00000	55		 push	 ebp
  00001	8b ec		 mov	 ebp, esp
  00003	6a ff		 push	 -1
  00005	68 00 00 00 00	 push	 __ehhandler$?reserve@?$vector@UGRANDSYSTEM_REWARD_DATA@@V?$allocator@UGRANDSYSTEM_REWARD_DATA@@@std@@@std@@QAEXI@Z
  0000a	64 a1 00 00 00
	00		 mov	 eax, DWORD PTR fs:0
  00010	50		 push	 eax
  00011	51		 push	 ecx
  00012	83 ec 4c	 sub	 esp, 76			; 0000004cH
  00015	53		 push	 ebx
  00016	56		 push	 esi
  00017	57		 push	 edi
  00018	a1 00 00 00 00	 mov	 eax, DWORD PTR ___security_cookie
  0001d	33 c5		 xor	 eax, ebp
  0001f	50		 push	 eax
  00020	8d 45 f4	 lea	 eax, DWORD PTR __$EHRec$[ebp+4]
  00023	64 a3 00 00 00
	00		 mov	 DWORD PTR fs:0, eax
  00029	89 65 f0	 mov	 DWORD PTR __$EHRec$[ebp], esp
  0002c	89 4d ec	 mov	 DWORD PTR _this$[ebp], ecx

; 747  : 		if (max_size() < _Count)

  0002f	8b 4d ec	 mov	 ecx, DWORD PTR _this$[ebp]
  00032	e8 00 00 00 00	 call	 ?max_size@?$vector@UGRANDSYSTEM_REWARD_DATA@@V?$allocator@UGRANDSYSTEM_REWARD_DATA@@@std@@@std@@QBEIXZ ; std::vector<GRANDSYSTEM_REWARD_DATA,std::allocator<GRANDSYSTEM_REWARD_DATA> >::max_size
  00037	3b 45 08	 cmp	 eax, DWORD PTR __Count$[ebp]
  0003a	73 0d		 jae	 SHORT $LN5@reserve@2

; 748  : 			_Xlen();	// result too long

  0003c	8b 4d ec	 mov	 ecx, DWORD PTR _this$[ebp]
  0003f	e8 00 00 00 00	 call	 ?_Xlen@?$vector@UGRANDSYSTEM_REWARD_DATA@@V?$allocator@UGRANDSYSTEM_REWARD_DATA@@@std@@@std@@IBEXXZ ; std::vector<GRANDSYSTEM_REWARD_DATA,std::allocator<GRANDSYSTEM_REWARD_DATA> >::_Xlen
  00044	e9 f0 00 00 00	 jmp	 $LN7@reserve@2
$LN5@reserve@2:

; 749  : 		else if (capacity() < _Count)

  00049	8b 4d ec	 mov	 ecx, DWORD PTR _this$[ebp]
  0004c	e8 00 00 00 00	 call	 ?capacity@?$vector@UGRANDSYSTEM_REWARD_DATA@@V?$allocator@UGRANDSYSTEM_REWARD_DATA@@@std@@@std@@QBEIXZ ; std::vector<GRANDSYSTEM_REWARD_DATA,std::allocator<GRANDSYSTEM_REWARD_DATA> >::capacity
  00051	3b 45 08	 cmp	 eax, DWORD PTR __Count$[ebp]
  00054	0f 83 df 00 00
	00		 jae	 $LN7@reserve@2

; 750  : 			{	// not enough room, reallocate
; 751  : 			pointer _Ptr = this->_Alval.allocate(_Count);

  0005a	8b 45 08	 mov	 eax, DWORD PTR __Count$[ebp]
  0005d	50		 push	 eax
  0005e	8b 4d ec	 mov	 ecx, DWORD PTR _this$[ebp]
  00061	83 c1 0c	 add	 ecx, 12			; 0000000cH
  00064	e8 00 00 00 00	 call	 ?allocate@?$allocator@UGRANDSYSTEM_REWARD_DATA@@@std@@QAEPAUGRANDSYSTEM_REWARD_DATA@@I@Z ; std::allocator<GRANDSYSTEM_REWARD_DATA>::allocate
  00069	89 45 e8	 mov	 DWORD PTR __Ptr$232283[ebp], eax

; 752  : 
; 753  : 			_TRY_BEGIN

  0006c	c7 45 fc 00 00
	00 00		 mov	 DWORD PTR __$EHRec$[ebp+12], 0

; 754  : 			_Umove(this->_Myfirst, this->_Mylast, _Ptr);

  00073	8b 45 e8	 mov	 eax, DWORD PTR __Ptr$232283[ebp]
  00076	50		 push	 eax
  00077	8b 4d ec	 mov	 ecx, DWORD PTR _this$[ebp]
  0007a	8b 51 04	 mov	 edx, DWORD PTR [ecx+4]
  0007d	52		 push	 edx
  0007e	8b 45 ec	 mov	 eax, DWORD PTR _this$[ebp]
  00081	8b 08		 mov	 ecx, DWORD PTR [eax]
  00083	51		 push	 ecx
  00084	8b 4d ec	 mov	 ecx, DWORD PTR _this$[ebp]
  00087	e8 00 00 00 00	 call	 ??$_Umove@PAUGRANDSYSTEM_REWARD_DATA@@@?$vector@UGRANDSYSTEM_REWARD_DATA@@V?$allocator@UGRANDSYSTEM_REWARD_DATA@@@std@@@std@@IAEPAUGRANDSYSTEM_REWARD_DATA@@PAU2@00@Z ; std::vector<GRANDSYSTEM_REWARD_DATA,std::allocator<GRANDSYSTEM_REWARD_DATA> >::_Umove<GRANDSYSTEM_REWARD_DATA *>
  0008c	eb 29		 jmp	 SHORT $LN8@reserve@2
__catch$?reserve@?$vector@UGRANDSYSTEM_REWARD_DATA@@V?$allocator@UGRANDSYSTEM_REWARD_DATA@@@std@@@std@@QAEXI@Z$0:

; 755  : 			_CATCH_ALL
; 756  : 			this->_Alval.deallocate(_Ptr, _Count);

  0008e	8b 45 08	 mov	 eax, DWORD PTR __Count$[ebp]
  00091	50		 push	 eax
  00092	8b 4d e8	 mov	 ecx, DWORD PTR __Ptr$232283[ebp]
  00095	51		 push	 ecx
  00096	8b 4d ec	 mov	 ecx, DWORD PTR _this$[ebp]
  00099	83 c1 0c	 add	 ecx, 12			; 0000000cH
  0009c	e8 00 00 00 00	 call	 ?deallocate@?$allocator@UGRANDSYSTEM_REWARD_DATA@@@std@@QAEXPAUGRANDSYSTEM_REWARD_DATA@@I@Z ; std::allocator<GRANDSYSTEM_REWARD_DATA>::deallocate

; 757  : 			_RERAISE;

  000a1	6a 00		 push	 0
  000a3	6a 00		 push	 0
  000a5	e8 00 00 00 00	 call	 __CxxThrowException@8

; 758  : 			_CATCH_END

  000aa	c7 45 fc ff ff
	ff ff		 mov	 DWORD PTR __$EHRec$[ebp+12], -1
  000b1	b8 00 00 00 00	 mov	 eax, __tryend$?reserve@?$vector@UGRANDSYSTEM_REWARD_DATA@@V?$allocator@UGRANDSYSTEM_REWARD_DATA@@@std@@@std@@QAEXI@Z$1
  000b6	c3		 ret	 0
$LN8@reserve@2:
  000b7	c7 45 fc ff ff
	ff ff		 mov	 DWORD PTR __$EHRec$[ebp+12], -1
__tryend$?reserve@?$vector@UGRANDSYSTEM_REWARD_DATA@@V?$allocator@UGRANDSYSTEM_REWARD_DATA@@@std@@@std@@QAEXI@Z$1:

; 759  : 
; 760  : 			size_type _Size = size();

  000be	8b 4d ec	 mov	 ecx, DWORD PTR _this$[ebp]
  000c1	e8 00 00 00 00	 call	 ?size@?$vector@UGRANDSYSTEM_REWARD_DATA@@V?$allocator@UGRANDSYSTEM_REWARD_DATA@@@std@@@std@@QBEIXZ ; std::vector<GRANDSYSTEM_REWARD_DATA,std::allocator<GRANDSYSTEM_REWARD_DATA> >::size
  000c6	89 45 e4	 mov	 DWORD PTR __Size$232290[ebp], eax

; 761  : 			if (this->_Myfirst != 0)

  000c9	8b 45 ec	 mov	 eax, DWORD PTR _this$[ebp]
  000cc	83 38 00	 cmp	 DWORD PTR [eax], 0
  000cf	74 3a		 je	 SHORT $LN1@reserve@2

; 762  : 				{	// destroy and deallocate old array
; 763  : 				_Destroy(this->_Myfirst, this->_Mylast);

  000d1	8b 45 ec	 mov	 eax, DWORD PTR _this$[ebp]
  000d4	8b 48 04	 mov	 ecx, DWORD PTR [eax+4]
  000d7	51		 push	 ecx
  000d8	8b 55 ec	 mov	 edx, DWORD PTR _this$[ebp]
  000db	8b 02		 mov	 eax, DWORD PTR [edx]
  000dd	50		 push	 eax
  000de	8b 4d ec	 mov	 ecx, DWORD PTR _this$[ebp]
  000e1	e8 00 00 00 00	 call	 ?_Destroy@?$vector@UGRANDSYSTEM_REWARD_DATA@@V?$allocator@UGRANDSYSTEM_REWARD_DATA@@@std@@@std@@IAEXPAUGRANDSYSTEM_REWARD_DATA@@0@Z ; std::vector<GRANDSYSTEM_REWARD_DATA,std::allocator<GRANDSYSTEM_REWARD_DATA> >::_Destroy

; 764  : 				this->_Alval.deallocate(this->_Myfirst,
; 765  : 					this->_Myend - this->_Myfirst);

  000e6	8b 45 ec	 mov	 eax, DWORD PTR _this$[ebp]
  000e9	8b 4d ec	 mov	 ecx, DWORD PTR _this$[ebp]
  000ec	8b 40 08	 mov	 eax, DWORD PTR [eax+8]
  000ef	2b 01		 sub	 eax, DWORD PTR [ecx]
  000f1	99		 cdq
  000f2	b9 24 00 00 00	 mov	 ecx, 36			; 00000024H
  000f7	f7 f9		 idiv	 ecx
  000f9	50		 push	 eax
  000fa	8b 55 ec	 mov	 edx, DWORD PTR _this$[ebp]
  000fd	8b 02		 mov	 eax, DWORD PTR [edx]
  000ff	50		 push	 eax
  00100	8b 4d ec	 mov	 ecx, DWORD PTR _this$[ebp]
  00103	83 c1 0c	 add	 ecx, 12			; 0000000cH
  00106	e8 00 00 00 00	 call	 ?deallocate@?$allocator@UGRANDSYSTEM_REWARD_DATA@@@std@@QAEXPAUGRANDSYSTEM_REWARD_DATA@@I@Z ; std::allocator<GRANDSYSTEM_REWARD_DATA>::deallocate
$LN1@reserve@2:

; 766  : 				}
; 767  : 
; 768  : 			this->_Orphan_all();

  0010b	8b 4d ec	 mov	 ecx, DWORD PTR _this$[ebp]
  0010e	e8 00 00 00 00	 call	 ?_Orphan_all@_Container_base0@std@@QAEXXZ ; std::_Container_base0::_Orphan_all

; 769  : 			this->_Myend = _Ptr + _Count;

  00113	8b 45 08	 mov	 eax, DWORD PTR __Count$[ebp]
  00116	6b c0 24	 imul	 eax, 36			; 00000024H
  00119	03 45 e8	 add	 eax, DWORD PTR __Ptr$232283[ebp]
  0011c	8b 4d ec	 mov	 ecx, DWORD PTR _this$[ebp]
  0011f	89 41 08	 mov	 DWORD PTR [ecx+8], eax

; 770  : 			this->_Mylast = _Ptr + _Size;

  00122	8b 45 e4	 mov	 eax, DWORD PTR __Size$232290[ebp]
  00125	6b c0 24	 imul	 eax, 36			; 00000024H
  00128	03 45 e8	 add	 eax, DWORD PTR __Ptr$232283[ebp]
  0012b	8b 4d ec	 mov	 ecx, DWORD PTR _this$[ebp]
  0012e	89 41 04	 mov	 DWORD PTR [ecx+4], eax

; 771  : 			this->_Myfirst = _Ptr;

  00131	8b 45 ec	 mov	 eax, DWORD PTR _this$[ebp]
  00134	8b 4d e8	 mov	 ecx, DWORD PTR __Ptr$232283[ebp]
  00137	89 08		 mov	 DWORD PTR [eax], ecx
$LN7@reserve@2:

; 772  : 			}
; 773  : 		}

  00139	8b 4d f4	 mov	 ecx, DWORD PTR __$EHRec$[ebp+4]
  0013c	64 89 0d 00 00
	00 00		 mov	 DWORD PTR fs:0, ecx
  00143	59		 pop	 ecx
  00144	5f		 pop	 edi
  00145	5e		 pop	 esi
  00146	5b		 pop	 ebx
  00147	8b e5		 mov	 esp, ebp
  00149	5d		 pop	 ebp
  0014a	c2 04 00	 ret	 4
_TEXT	ENDS
;	COMDAT text$x
text$x	SEGMENT
__ehhandler$?reserve@?$vector@UGRANDSYSTEM_REWARD_DATA@@V?$allocator@UGRANDSYSTEM_REWARD_DATA@@@std@@@std@@QAEXI@Z:
  00000	8b 54 24 08	 mov	 edx, DWORD PTR [esp+8]
  00004	8d 42 0c	 lea	 eax, DWORD PTR [edx+12]
  00007	8b 4a a0	 mov	 ecx, DWORD PTR [edx-96]
  0000a	33 c8		 xor	 ecx, eax
  0000c	e8 00 00 00 00	 call	 @__security_check_cookie@4
  00011	b8 00 00 00 00	 mov	 eax, OFFSET __ehfuncinfo$?reserve@?$vector@UGRANDSYSTEM_REWARD_DATA@@V?$allocator@UGRANDSYSTEM_REWARD_DATA@@@std@@@std@@QAEXI@Z
  00016	e9 00 00 00 00	 jmp	 ___CxxFrameHandler3
text$x	ENDS
?reserve@?$vector@UGRANDSYSTEM_REWARD_DATA@@V?$allocator@UGRANDSYSTEM_REWARD_DATA@@@std@@@std@@QAEXI@Z ENDP ; std::vector<GRANDSYSTEM_REWARD_DATA,std::allocator<GRANDSYSTEM_REWARD_DATA> >::reserve
; Function compile flags: /Odtp /ZI
;	COMDAT ?capacity@?$vector@UGRANDSYSTEM_REWARD_DATA@@V?$allocator@UGRANDSYSTEM_REWARD_DATA@@@std@@@std@@QBEIXZ
_TEXT	SEGMENT
_this$ = -4						; size = 4
?capacity@?$vector@UGRANDSYSTEM_REWARD_DATA@@V?$allocator@UGRANDSYSTEM_REWARD_DATA@@@std@@@std@@QBEIXZ PROC ; std::vector<GRANDSYSTEM_REWARD_DATA,std::allocator<GRANDSYSTEM_REWARD_DATA> >::capacity, COMDAT
; _this$ = ecx

; 776  : 		{	// return current length of allocated storage

  00000	55		 push	 ebp
  00001	8b ec		 mov	 ebp, esp
  00003	83 ec 44	 sub	 esp, 68			; 00000044H
  00006	53		 push	 ebx
  00007	56		 push	 esi
  00008	57		 push	 edi
  00009	89 4d fc	 mov	 DWORD PTR _this$[ebp], ecx

; 777  : 		return (this->_Myend - this->_Myfirst);

  0000c	8b 45 fc	 mov	 eax, DWORD PTR _this$[ebp]
  0000f	8b 4d fc	 mov	 ecx, DWORD PTR _this$[ebp]
  00012	8b 40 08	 mov	 eax, DWORD PTR [eax+8]
  00015	2b 01		 sub	 eax, DWORD PTR [ecx]
  00017	99		 cdq
  00018	b9 24 00 00 00	 mov	 ecx, 36			; 00000024H
  0001d	f7 f9		 idiv	 ecx

; 778  : 		}

  0001f	5f		 pop	 edi
  00020	5e		 pop	 esi
  00021	5b		 pop	 ebx
  00022	8b e5		 mov	 esp, ebp
  00024	5d		 pop	 ebp
  00025	c3		 ret	 0
?capacity@?$vector@UGRANDSYSTEM_REWARD_DATA@@V?$allocator@UGRANDSYSTEM_REWARD_DATA@@@std@@@std@@QBEIXZ ENDP ; std::vector<GRANDSYSTEM_REWARD_DATA,std::allocator<GRANDSYSTEM_REWARD_DATA> >::capacity
_TEXT	ENDS
PUBLIC	?max_size@?$allocator@UGRANDSYSTEM_REWARD_DATA@@@std@@QBEIXZ ; std::allocator<GRANDSYSTEM_REWARD_DATA>::max_size
; Function compile flags: /Odtp /ZI
;	COMDAT ?max_size@?$vector@UGRANDSYSTEM_REWARD_DATA@@V?$allocator@UGRANDSYSTEM_REWARD_DATA@@@std@@@std@@QBEIXZ
_TEXT	SEGMENT
_this$ = -4						; size = 4
?max_size@?$vector@UGRANDSYSTEM_REWARD_DATA@@V?$allocator@UGRANDSYSTEM_REWARD_DATA@@@std@@@std@@QBEIXZ PROC ; std::vector<GRANDSYSTEM_REWARD_DATA,std::allocator<GRANDSYSTEM_REWARD_DATA> >::max_size, COMDAT
; _this$ = ecx

; 883  : 		{	// return maximum possible length of sequence

  00000	55		 push	 ebp
  00001	8b ec		 mov	 ebp, esp
  00003	83 ec 44	 sub	 esp, 68			; 00000044H
  00006	53		 push	 ebx
  00007	56		 push	 esi
  00008	57		 push	 edi
  00009	89 4d fc	 mov	 DWORD PTR _this$[ebp], ecx

; 884  : 		return (this->_Alval.max_size());

  0000c	8b 4d fc	 mov	 ecx, DWORD PTR _this$[ebp]
  0000f	83 c1 0c	 add	 ecx, 12			; 0000000cH
  00012	e8 00 00 00 00	 call	 ?max_size@?$allocator@UGRANDSYSTEM_REWARD_DATA@@@std@@QBEIXZ ; std::allocator<GRANDSYSTEM_REWARD_DATA>::max_size

; 885  : 		}

  00017	5f		 pop	 edi
  00018	5e		 pop	 esi
  00019	5b		 pop	 ebx
  0001a	8b e5		 mov	 esp, ebp
  0001c	5d		 pop	 ebp
  0001d	c3		 ret	 0
?max_size@?$vector@UGRANDSYSTEM_REWARD_DATA@@V?$allocator@UGRANDSYSTEM_REWARD_DATA@@@std@@@std@@QBEIXZ ENDP ; std::vector<GRANDSYSTEM_REWARD_DATA,std::allocator<GRANDSYSTEM_REWARD_DATA> >::max_size
_TEXT	ENDS
PUBLIC	??$_Destroy_range@V?$allocator@UGRANDSYSTEM_REWARD_DATA@@@std@@@std@@YAXPAUGRANDSYSTEM_REWARD_DATA@@0AAV?$allocator@UGRANDSYSTEM_REWARD_DATA@@@0@@Z ; std::_Destroy_range<std::allocator<GRANDSYSTEM_REWARD_DATA> >
; Function compile flags: /Odtp /ZI
;	COMDAT ?_Destroy@?$vector@UGRANDSYSTEM_REWARD_DATA@@V?$allocator@UGRANDSYSTEM_REWARD_DATA@@@std@@@std@@IAEXPAUGRANDSYSTEM_REWARD_DATA@@0@Z
_TEXT	SEGMENT
_this$ = -4						; size = 4
__First$ = 8						; size = 4
__Last$ = 12						; size = 4
?_Destroy@?$vector@UGRANDSYSTEM_REWARD_DATA@@V?$allocator@UGRANDSYSTEM_REWARD_DATA@@@std@@@std@@IAEXPAUGRANDSYSTEM_REWARD_DATA@@0@Z PROC ; std::vector<GRANDSYSTEM_REWARD_DATA,std::allocator<GRANDSYSTEM_REWARD_DATA> >::_Destroy, COMDAT
; _this$ = ecx

; 1269 : 		{	// destroy [_First, _Last) using allocator

  00000	55		 push	 ebp
  00001	8b ec		 mov	 ebp, esp
  00003	83 ec 44	 sub	 esp, 68			; 00000044H
  00006	53		 push	 ebx
  00007	56		 push	 esi
  00008	57		 push	 edi
  00009	89 4d fc	 mov	 DWORD PTR _this$[ebp], ecx

; 1270 : 		_Destroy_range(_First, _Last, this->_Alval);

  0000c	8b 45 fc	 mov	 eax, DWORD PTR _this$[ebp]
  0000f	83 c0 0c	 add	 eax, 12			; 0000000cH
  00012	50		 push	 eax
  00013	8b 4d 0c	 mov	 ecx, DWORD PTR __Last$[ebp]
  00016	51		 push	 ecx
  00017	8b 55 08	 mov	 edx, DWORD PTR __First$[ebp]
  0001a	52		 push	 edx
  0001b	e8 00 00 00 00	 call	 ??$_Destroy_range@V?$allocator@UGRANDSYSTEM_REWARD_DATA@@@std@@@std@@YAXPAUGRANDSYSTEM_REWARD_DATA@@0AAV?$allocator@UGRANDSYSTEM_REWARD_DATA@@@0@@Z ; std::_Destroy_range<std::allocator<GRANDSYSTEM_REWARD_DATA> >
  00020	83 c4 0c	 add	 esp, 12			; 0000000cH

; 1271 : 		}

  00023	5f		 pop	 edi
  00024	5e		 pop	 esi
  00025	5b		 pop	 ebx
  00026	8b e5		 mov	 esp, ebp
  00028	5d		 pop	 ebp
  00029	c2 08 00	 ret	 8
?_Destroy@?$vector@UGRANDSYSTEM_REWARD_DATA@@V?$allocator@UGRANDSYSTEM_REWARD_DATA@@@std@@@std@@IAEXPAUGRANDSYSTEM_REWARD_DATA@@0@Z ENDP ; std::vector<GRANDSYSTEM_REWARD_DATA,std::allocator<GRANDSYSTEM_REWARD_DATA> >::_Destroy
; Function compile flags: /Odtp /ZI
_TEXT	ENDS
;	COMDAT ?_Grow_to@?$vector@UGRANDSYSTEM_REWARD_DATA@@V?$allocator@UGRANDSYSTEM_REWARD_DATA@@@std@@@std@@IBEII@Z
_TEXT	SEGMENT
tv73 = -76						; size = 4
__Capacity$ = -8					; size = 4
_this$ = -4						; size = 4
__Count$ = 8						; size = 4
?_Grow_to@?$vector@UGRANDSYSTEM_REWARD_DATA@@V?$allocator@UGRANDSYSTEM_REWARD_DATA@@@std@@@std@@IBEII@Z PROC ; std::vector<GRANDSYSTEM_REWARD_DATA,std::allocator<GRANDSYSTEM_REWARD_DATA> >::_Grow_to, COMDAT
; _this$ = ecx

; 1274 : 		{	// grow by 50% or at least to _Count

  00000	55		 push	 ebp
  00001	8b ec		 mov	 ebp, esp
  00003	83 ec 4c	 sub	 esp, 76			; 0000004cH
  00006	53		 push	 ebx
  00007	56		 push	 esi
  00008	57		 push	 edi
  00009	89 4d fc	 mov	 DWORD PTR _this$[ebp], ecx

; 1275 : 		size_type _Capacity = capacity();

  0000c	8b 4d fc	 mov	 ecx, DWORD PTR _this$[ebp]
  0000f	e8 00 00 00 00	 call	 ?capacity@?$vector@UGRANDSYSTEM_REWARD_DATA@@V?$allocator@UGRANDSYSTEM_REWARD_DATA@@@std@@@std@@QBEIXZ ; std::vector<GRANDSYSTEM_REWARD_DATA,std::allocator<GRANDSYSTEM_REWARD_DATA> >::capacity
  00014	89 45 f8	 mov	 DWORD PTR __Capacity$[ebp], eax

; 1276 : 
; 1277 : 		_Capacity = max_size() - _Capacity / 2 < _Capacity
; 1278 : 			? 0 : _Capacity + _Capacity / 2;	// try to grow by 50%

  00017	8b 4d fc	 mov	 ecx, DWORD PTR _this$[ebp]
  0001a	e8 00 00 00 00	 call	 ?max_size@?$vector@UGRANDSYSTEM_REWARD_DATA@@V?$allocator@UGRANDSYSTEM_REWARD_DATA@@@std@@@std@@QBEIXZ ; std::vector<GRANDSYSTEM_REWARD_DATA,std::allocator<GRANDSYSTEM_REWARD_DATA> >::max_size
  0001f	8b 4d f8	 mov	 ecx, DWORD PTR __Capacity$[ebp]
  00022	d1 e9		 shr	 ecx, 1
  00024	2b c1		 sub	 eax, ecx
  00026	3b 45 f8	 cmp	 eax, DWORD PTR __Capacity$[ebp]
  00029	73 09		 jae	 SHORT $LN4@Grow_to@2
  0002b	c7 45 b4 00 00
	00 00		 mov	 DWORD PTR tv73[ebp], 0
  00032	eb 0b		 jmp	 SHORT $LN5@Grow_to@2
$LN4@Grow_to@2:
  00034	8b 55 f8	 mov	 edx, DWORD PTR __Capacity$[ebp]
  00037	d1 ea		 shr	 edx, 1
  00039	03 55 f8	 add	 edx, DWORD PTR __Capacity$[ebp]
  0003c	89 55 b4	 mov	 DWORD PTR tv73[ebp], edx
$LN5@Grow_to@2:
  0003f	8b 45 b4	 mov	 eax, DWORD PTR tv73[ebp]
  00042	89 45 f8	 mov	 DWORD PTR __Capacity$[ebp], eax

; 1279 : 		if (_Capacity < _Count)

  00045	8b 45 f8	 mov	 eax, DWORD PTR __Capacity$[ebp]
  00048	3b 45 08	 cmp	 eax, DWORD PTR __Count$[ebp]
  0004b	73 06		 jae	 SHORT $LN1@Grow_to@2

; 1280 : 			_Capacity = _Count;

  0004d	8b 45 08	 mov	 eax, DWORD PTR __Count$[ebp]
  00050	89 45 f8	 mov	 DWORD PTR __Capacity$[ebp], eax
$LN1@Grow_to@2:

; 1281 : 		return (_Capacity);

  00053	8b 45 f8	 mov	 eax, DWORD PTR __Capacity$[ebp]

; 1282 : 		}

  00056	5f		 pop	 edi
  00057	5e		 pop	 esi
  00058	5b		 pop	 ebx
  00059	8b e5		 mov	 esp, ebp
  0005b	5d		 pop	 ebp
  0005c	c2 04 00	 ret	 4
?_Grow_to@?$vector@UGRANDSYSTEM_REWARD_DATA@@V?$allocator@UGRANDSYSTEM_REWARD_DATA@@@std@@@std@@IBEII@Z ENDP ; std::vector<GRANDSYSTEM_REWARD_DATA,std::allocator<GRANDSYSTEM_REWARD_DATA> >::_Grow_to
; Function compile flags: /Odtp /ZI
_TEXT	ENDS
;	COMDAT ?_Xlen@?$vector@UGRANDSYSTEM_REWARD_DATA@@V?$allocator@UGRANDSYSTEM_REWARD_DATA@@@std@@@std@@IBEXXZ
_TEXT	SEGMENT
_this$ = -4						; size = 4
?_Xlen@?$vector@UGRANDSYSTEM_REWARD_DATA@@V?$allocator@UGRANDSYSTEM_REWARD_DATA@@@std@@@std@@IBEXXZ PROC ; std::vector<GRANDSYSTEM_REWARD_DATA,std::allocator<GRANDSYSTEM_REWARD_DATA> >::_Xlen, COMDAT
; _this$ = ecx

; 1426 : 		{	// report a length_error

  00000	55		 push	 ebp
  00001	8b ec		 mov	 ebp, esp
  00003	83 ec 44	 sub	 esp, 68			; 00000044H
  00006	53		 push	 ebx
  00007	56		 push	 esi
  00008	57		 push	 edi
  00009	89 4d fc	 mov	 DWORD PTR _this$[ebp], ecx

; 1427 : 		_Xlength_error("vector<T> too long");

  0000c	68 00 00 00 00	 push	 OFFSET ??_C@_0BD@OLBABOEK@vector?$DMT?$DO?5too?5long?$AA@
  00011	e8 00 00 00 00	 call	 ?_Xlength_error@std@@YAXPBD@Z ; std::_Xlength_error
$LN2@Xlen@2:

; 1428 : 		}

  00016	5f		 pop	 edi
  00017	5e		 pop	 esi
  00018	5b		 pop	 ebx
  00019	8b e5		 mov	 esp, ebp
  0001b	5d		 pop	 ebp
  0001c	c3		 ret	 0
?_Xlen@?$vector@UGRANDSYSTEM_REWARD_DATA@@V?$allocator@UGRANDSYSTEM_REWARD_DATA@@@std@@@std@@IBEXXZ ENDP ; std::vector<GRANDSYSTEM_REWARD_DATA,std::allocator<GRANDSYSTEM_REWARD_DATA> >::_Xlen
; Function compile flags: /Odtp /ZI
; File d:\microsoft visual studio 10.0\vc\include\xmemory
_TEXT	ENDS
;	COMDAT ?deallocate@?$allocator@UGRANDSYSTEM_REWARD_DATA@@@std@@QAEXPAUGRANDSYSTEM_REWARD_DATA@@I@Z
_TEXT	SEGMENT
_this$ = -4						; size = 4
__Ptr$ = 8						; size = 4
___formal$ = 12						; size = 4
?deallocate@?$allocator@UGRANDSYSTEM_REWARD_DATA@@@std@@QAEXPAUGRANDSYSTEM_REWARD_DATA@@I@Z PROC ; std::allocator<GRANDSYSTEM_REWARD_DATA>::deallocate, COMDAT
; _this$ = ecx

; 181  : 		{	// deallocate object at _Ptr, ignore size

  00000	55		 push	 ebp
  00001	8b ec		 mov	 ebp, esp
  00003	83 ec 44	 sub	 esp, 68			; 00000044H
  00006	53		 push	 ebx
  00007	56		 push	 esi
  00008	57		 push	 edi
  00009	89 4d fc	 mov	 DWORD PTR _this$[ebp], ecx

; 182  : 		::operator delete(_Ptr);

  0000c	8b 45 08	 mov	 eax, DWORD PTR __Ptr$[ebp]
  0000f	50		 push	 eax
  00010	e8 00 00 00 00	 call	 ??3@YAXPAX@Z		; operator delete
  00015	83 c4 04	 add	 esp, 4

; 183  : 		}

  00018	5f		 pop	 edi
  00019	5e		 pop	 esi
  0001a	5b		 pop	 ebx
  0001b	8b e5		 mov	 esp, ebp
  0001d	5d		 pop	 ebp
  0001e	c2 08 00	 ret	 8
?deallocate@?$allocator@UGRANDSYSTEM_REWARD_DATA@@@std@@QAEXPAUGRANDSYSTEM_REWARD_DATA@@I@Z ENDP ; std::allocator<GRANDSYSTEM_REWARD_DATA>::deallocate
_TEXT	ENDS
PUBLIC	??0?$_Vector_const_iterator@V?$_Vector_val@UGrandResetEXP@@V?$allocator@UGrandResetEXP@@@std@@@std@@@std@@QAE@PAUGrandResetEXP@@PBU_Container_base0@1@@Z ; std::_Vector_const_iterator<std::_Vector_val<GrandResetEXP,std::allocator<GrandResetEXP> > >::_Vector_const_iterator<std::_Vector_val<GrandResetEXP,std::allocator<GrandResetEXP> > >
; Function compile flags: /Odtp /ZI
; File d:\microsoft visual studio 10.0\vc\include\vector
;	COMDAT ??0?$_Vector_iterator@V?$_Vector_val@UGrandResetEXP@@V?$allocator@UGrandResetEXP@@@std@@@std@@@std@@QAE@PAUGrandResetEXP@@PBU_Container_base0@1@@Z
_TEXT	SEGMENT
_this$ = -4						; size = 4
__Parg$ = 8						; size = 4
__Pvector$ = 12						; size = 4
??0?$_Vector_iterator@V?$_Vector_val@UGrandResetEXP@@V?$allocator@UGrandResetEXP@@@std@@@std@@@std@@QAE@PAUGrandResetEXP@@PBU_Container_base0@1@@Z PROC ; std::_Vector_iterator<std::_Vector_val<GrandResetEXP,std::allocator<GrandResetEXP> > >::_Vector_iterator<std::_Vector_val<GrandResetEXP,std::allocator<GrandResetEXP> > >, COMDAT
; _this$ = ecx

; 304  : 		{	// construct with pointer _Parg

  00000	55		 push	 ebp
  00001	8b ec		 mov	 ebp, esp
  00003	83 ec 44	 sub	 esp, 68			; 00000044H
  00006	53		 push	 ebx
  00007	56		 push	 esi
  00008	57		 push	 edi
  00009	89 4d fc	 mov	 DWORD PTR _this$[ebp], ecx
  0000c	8b 45 0c	 mov	 eax, DWORD PTR __Pvector$[ebp]
  0000f	50		 push	 eax
  00010	8b 4d 08	 mov	 ecx, DWORD PTR __Parg$[ebp]
  00013	51		 push	 ecx
  00014	8b 4d fc	 mov	 ecx, DWORD PTR _this$[ebp]
  00017	e8 00 00 00 00	 call	 ??0?$_Vector_const_iterator@V?$_Vector_val@UGrandResetEXP@@V?$allocator@UGrandResetEXP@@@std@@@std@@@std@@QAE@PAUGrandResetEXP@@PBU_Container_base0@1@@Z ; std::_Vector_const_iterator<std::_Vector_val<GrandResetEXP,std::allocator<GrandResetEXP> > >::_Vector_const_iterator<std::_Vector_val<GrandResetEXP,std::allocator<GrandResetEXP> > >

; 305  : 		}

  0001c	8b 45 fc	 mov	 eax, DWORD PTR _this$[ebp]
  0001f	5f		 pop	 edi
  00020	5e		 pop	 esi
  00021	5b		 pop	 ebx
  00022	8b e5		 mov	 esp, ebp
  00024	5d		 pop	 ebp
  00025	c2 08 00	 ret	 8
??0?$_Vector_iterator@V?$_Vector_val@UGrandResetEXP@@V?$allocator@UGrandResetEXP@@@std@@@std@@@std@@QAE@PAUGrandResetEXP@@PBU_Container_base0@1@@Z ENDP ; std::_Vector_iterator<std::_Vector_val<GrandResetEXP,std::allocator<GrandResetEXP> > >::_Vector_iterator<std::_Vector_val<GrandResetEXP,std::allocator<GrandResetEXP> > >
_TEXT	ENDS
PUBLIC	??8?$_Vector_const_iterator@V?$_Vector_val@UGrandResetEXP@@V?$allocator@UGrandResetEXP@@@std@@@std@@@std@@QBE_NABV01@@Z ; std::_Vector_const_iterator<std::_Vector_val<GrandResetEXP,std::allocator<GrandResetEXP> > >::operator==
; Function compile flags: /Odtp /ZI
;	COMDAT ??9?$_Vector_const_iterator@V?$_Vector_val@UGrandResetEXP@@V?$allocator@UGrandResetEXP@@@std@@@std@@@std@@QBE_NABV01@@Z
_TEXT	SEGMENT
_this$ = -4						; size = 4
__Right$ = 8						; size = 4
??9?$_Vector_const_iterator@V?$_Vector_val@UGrandResetEXP@@V?$allocator@UGrandResetEXP@@@std@@@std@@@std@@QBE_NABV01@@Z PROC ; std::_Vector_const_iterator<std::_Vector_val<GrandResetEXP,std::allocator<GrandResetEXP> > >::operator!=, COMDAT
; _this$ = ecx

; 207  : 		{	// test for iterator inequality

  00000	55		 push	 ebp
  00001	8b ec		 mov	 ebp, esp
  00003	83 ec 44	 sub	 esp, 68			; 00000044H
  00006	53		 push	 ebx
  00007	56		 push	 esi
  00008	57		 push	 edi
  00009	89 4d fc	 mov	 DWORD PTR _this$[ebp], ecx

; 208  : 		return (!(*this == _Right));

  0000c	8b 45 08	 mov	 eax, DWORD PTR __Right$[ebp]
  0000f	50		 push	 eax
  00010	8b 4d fc	 mov	 ecx, DWORD PTR _this$[ebp]
  00013	e8 00 00 00 00	 call	 ??8?$_Vector_const_iterator@V?$_Vector_val@UGrandResetEXP@@V?$allocator@UGrandResetEXP@@@std@@@std@@@std@@QBE_NABV01@@Z ; std::_Vector_const_iterator<std::_Vector_val<GrandResetEXP,std::allocator<GrandResetEXP> > >::operator==
  00018	0f b6 c0	 movzx	 eax, al
  0001b	f7 d8		 neg	 eax
  0001d	1b c0		 sbb	 eax, eax
  0001f	83 c0 01	 add	 eax, 1

; 209  : 		}

  00022	5f		 pop	 edi
  00023	5e		 pop	 esi
  00024	5b		 pop	 ebx
  00025	8b e5		 mov	 esp, ebp
  00027	5d		 pop	 ebp
  00028	c2 04 00	 ret	 4
??9?$_Vector_const_iterator@V?$_Vector_val@UGrandResetEXP@@V?$allocator@UGrandResetEXP@@@std@@@std@@@std@@QBE_NABV01@@Z ENDP ; std::_Vector_const_iterator<std::_Vector_val<GrandResetEXP,std::allocator<GrandResetEXP> > >::operator!=
_TEXT	ENDS
PUBLIC	??$_Allocate@UGrandResetEXP@@@std@@YAPAUGrandResetEXP@@IPAU1@@Z ; std::_Allocate<GrandResetEXP>
; Function compile flags: /Odtp /ZI
; File d:\microsoft visual studio 10.0\vc\include\xmemory
;	COMDAT ?allocate@?$allocator@UGrandResetEXP@@@std@@QAEPAUGrandResetEXP@@I@Z
_TEXT	SEGMENT
_this$ = -4						; size = 4
__Count$ = 8						; size = 4
?allocate@?$allocator@UGrandResetEXP@@@std@@QAEPAUGrandResetEXP@@I@Z PROC ; std::allocator<GrandResetEXP>::allocate, COMDAT
; _this$ = ecx

; 186  : 		{	// allocate array of _Count elements

  00000	55		 push	 ebp
  00001	8b ec		 mov	 ebp, esp
  00003	83 ec 44	 sub	 esp, 68			; 00000044H
  00006	53		 push	 ebx
  00007	56		 push	 esi
  00008	57		 push	 edi
  00009	89 4d fc	 mov	 DWORD PTR _this$[ebp], ecx

; 187  : 		return (_Allocate(_Count, (pointer)0));

  0000c	6a 00		 push	 0
  0000e	8b 45 08	 mov	 eax, DWORD PTR __Count$[ebp]
  00011	50		 push	 eax
  00012	e8 00 00 00 00	 call	 ??$_Allocate@UGrandResetEXP@@@std@@YAPAUGrandResetEXP@@IPAU1@@Z ; std::_Allocate<GrandResetEXP>
  00017	83 c4 08	 add	 esp, 8

; 188  : 		}

  0001a	5f		 pop	 edi
  0001b	5e		 pop	 esi
  0001c	5b		 pop	 ebx
  0001d	8b e5		 mov	 esp, ebp
  0001f	5d		 pop	 ebp
  00020	c2 04 00	 ret	 4
?allocate@?$allocator@UGrandResetEXP@@@std@@QAEPAUGrandResetEXP@@I@Z ENDP ; std::allocator<GrandResetEXP>::allocate
; Function compile flags: /Odtp /ZI
_TEXT	ENDS
;	COMDAT ?max_size@?$allocator@UGrandResetEXP@@@std@@QBEIXZ
_TEXT	SEGMENT
tv65 = -76						; size = 4
__Count$ = -8						; size = 4
_this$ = -4						; size = 4
?max_size@?$allocator@UGrandResetEXP@@@std@@QBEIXZ PROC	; std::allocator<GrandResetEXP>::max_size, COMDAT
; _this$ = ecx

; 217  : 		{	// estimate maximum array size

  00000	55		 push	 ebp
  00001	8b ec		 mov	 ebp, esp
  00003	83 ec 4c	 sub	 esp, 76			; 0000004cH
  00006	53		 push	 ebx
  00007	56		 push	 esi
  00008	57		 push	 edi
  00009	89 4d fc	 mov	 DWORD PTR _this$[ebp], ecx

; 218  : 		_SIZT _Count = (_SIZT)(-1) / sizeof (_Ty);

  0000c	c7 45 f8 ff ff
	ff 1f		 mov	 DWORD PTR __Count$[ebp], 536870911 ; 1fffffffH

; 219  : 		return (0 < _Count ? _Count : 1);

  00013	83 7d f8 00	 cmp	 DWORD PTR __Count$[ebp], 0
  00017	76 08		 jbe	 SHORT $LN3@max_size
  00019	8b 45 f8	 mov	 eax, DWORD PTR __Count$[ebp]
  0001c	89 45 b4	 mov	 DWORD PTR tv65[ebp], eax
  0001f	eb 07		 jmp	 SHORT $LN4@max_size
$LN3@max_size:
  00021	c7 45 b4 01 00
	00 00		 mov	 DWORD PTR tv65[ebp], 1
$LN4@max_size:
  00028	8b 45 b4	 mov	 eax, DWORD PTR tv65[ebp]

; 220  : 		}

  0002b	5f		 pop	 edi
  0002c	5e		 pop	 esi
  0002d	5b		 pop	 ebx
  0002e	8b e5		 mov	 esp, ebp
  00030	5d		 pop	 ebp
  00031	c3		 ret	 0
?max_size@?$allocator@UGrandResetEXP@@@std@@QBEIXZ ENDP	; std::allocator<GrandResetEXP>::max_size
_TEXT	ENDS
PUBLIC	??$_Allocate@UGRANDSYSTEM_REWARD_DATA@@@std@@YAPAUGRANDSYSTEM_REWARD_DATA@@IPAU1@@Z ; std::_Allocate<GRANDSYSTEM_REWARD_DATA>
; Function compile flags: /Odtp /ZI
;	COMDAT ?allocate@?$allocator@UGRANDSYSTEM_REWARD_DATA@@@std@@QAEPAUGRANDSYSTEM_REWARD_DATA@@I@Z
_TEXT	SEGMENT
_this$ = -4						; size = 4
__Count$ = 8						; size = 4
?allocate@?$allocator@UGRANDSYSTEM_REWARD_DATA@@@std@@QAEPAUGRANDSYSTEM_REWARD_DATA@@I@Z PROC ; std::allocator<GRANDSYSTEM_REWARD_DATA>::allocate, COMDAT
; _this$ = ecx

; 186  : 		{	// allocate array of _Count elements

  00000	55		 push	 ebp
  00001	8b ec		 mov	 ebp, esp
  00003	83 ec 44	 sub	 esp, 68			; 00000044H
  00006	53		 push	 ebx
  00007	56		 push	 esi
  00008	57		 push	 edi
  00009	89 4d fc	 mov	 DWORD PTR _this$[ebp], ecx

; 187  : 		return (_Allocate(_Count, (pointer)0));

  0000c	6a 00		 push	 0
  0000e	8b 45 08	 mov	 eax, DWORD PTR __Count$[ebp]
  00011	50		 push	 eax
  00012	e8 00 00 00 00	 call	 ??$_Allocate@UGRANDSYSTEM_REWARD_DATA@@@std@@YAPAUGRANDSYSTEM_REWARD_DATA@@IPAU1@@Z ; std::_Allocate<GRANDSYSTEM_REWARD_DATA>
  00017	83 c4 08	 add	 esp, 8

; 188  : 		}

  0001a	5f		 pop	 edi
  0001b	5e		 pop	 esi
  0001c	5b		 pop	 ebx
  0001d	8b e5		 mov	 esp, ebp
  0001f	5d		 pop	 ebp
  00020	c2 04 00	 ret	 4
?allocate@?$allocator@UGRANDSYSTEM_REWARD_DATA@@@std@@QAEPAUGRANDSYSTEM_REWARD_DATA@@I@Z ENDP ; std::allocator<GRANDSYSTEM_REWARD_DATA>::allocate
; Function compile flags: /Odtp /ZI
_TEXT	ENDS
;	COMDAT ?max_size@?$allocator@UGRANDSYSTEM_REWARD_DATA@@@std@@QBEIXZ
_TEXT	SEGMENT
tv65 = -76						; size = 4
__Count$ = -8						; size = 4
_this$ = -4						; size = 4
?max_size@?$allocator@UGRANDSYSTEM_REWARD_DATA@@@std@@QBEIXZ PROC ; std::allocator<GRANDSYSTEM_REWARD_DATA>::max_size, COMDAT
; _this$ = ecx

; 217  : 		{	// estimate maximum array size

  00000	55		 push	 ebp
  00001	8b ec		 mov	 ebp, esp
  00003	83 ec 4c	 sub	 esp, 76			; 0000004cH
  00006	53		 push	 ebx
  00007	56		 push	 esi
  00008	57		 push	 edi
  00009	89 4d fc	 mov	 DWORD PTR _this$[ebp], ecx

; 218  : 		_SIZT _Count = (_SIZT)(-1) / sizeof (_Ty);

  0000c	c7 45 f8 c7 71
	1c 07		 mov	 DWORD PTR __Count$[ebp], 119304647 ; 071c71c7H

; 219  : 		return (0 < _Count ? _Count : 1);

  00013	83 7d f8 00	 cmp	 DWORD PTR __Count$[ebp], 0
  00017	76 08		 jbe	 SHORT $LN3@max_size@2
  00019	8b 45 f8	 mov	 eax, DWORD PTR __Count$[ebp]
  0001c	89 45 b4	 mov	 DWORD PTR tv65[ebp], eax
  0001f	eb 07		 jmp	 SHORT $LN4@max_size@2
$LN3@max_size@2:
  00021	c7 45 b4 01 00
	00 00		 mov	 DWORD PTR tv65[ebp], 1
$LN4@max_size@2:
  00028	8b 45 b4	 mov	 eax, DWORD PTR tv65[ebp]

; 220  : 		}

  0002b	5f		 pop	 edi
  0002c	5e		 pop	 esi
  0002d	5b		 pop	 ebx
  0002e	8b e5		 mov	 esp, ebp
  00030	5d		 pop	 ebp
  00031	c3		 ret	 0
?max_size@?$allocator@UGRANDSYSTEM_REWARD_DATA@@@std@@QBEIXZ ENDP ; std::allocator<GRANDSYSTEM_REWARD_DATA>::max_size
_TEXT	ENDS
PUBLIC	?_Adopt@_Iterator_base0@std@@QAEXPBX@Z		; std::_Iterator_base0::_Adopt
; Function compile flags: /Odtp /ZI
; File d:\microsoft visual studio 10.0\vc\include\vector
;	COMDAT ??0?$_Vector_const_iterator@V?$_Vector_val@UGrandResetEXP@@V?$allocator@UGrandResetEXP@@@std@@@std@@@std@@QAE@PAUGrandResetEXP@@PBU_Container_base0@1@@Z
_TEXT	SEGMENT
_this$ = -4						; size = 4
__Parg$ = 8						; size = 4
__Pvector$ = 12						; size = 4
??0?$_Vector_const_iterator@V?$_Vector_val@UGrandResetEXP@@V?$allocator@UGrandResetEXP@@@std@@@std@@@std@@QAE@PAUGrandResetEXP@@PBU_Container_base0@1@@Z PROC ; std::_Vector_const_iterator<std::_Vector_val<GrandResetEXP,std::allocator<GrandResetEXP> > >::_Vector_const_iterator<std::_Vector_val<GrandResetEXP,std::allocator<GrandResetEXP> > >, COMDAT
; _this$ = ecx

; 45   : 		{	// construct with pointer _Parg

  00000	55		 push	 ebp
  00001	8b ec		 mov	 ebp, esp
  00003	83 ec 44	 sub	 esp, 68			; 00000044H
  00006	53		 push	 ebx
  00007	56		 push	 esi
  00008	57		 push	 edi
  00009	89 4d fc	 mov	 DWORD PTR _this$[ebp], ecx
  0000c	8b 45 fc	 mov	 eax, DWORD PTR _this$[ebp]
  0000f	8b 4d 08	 mov	 ecx, DWORD PTR __Parg$[ebp]
  00012	89 08		 mov	 DWORD PTR [eax], ecx

; 46   : 		this->_Adopt(_Pvector);

  00014	8b 45 0c	 mov	 eax, DWORD PTR __Pvector$[ebp]
  00017	50		 push	 eax
  00018	8b 4d fc	 mov	 ecx, DWORD PTR _this$[ebp]
  0001b	e8 00 00 00 00	 call	 ?_Adopt@_Iterator_base0@std@@QAEXPBX@Z ; std::_Iterator_base0::_Adopt

; 47   : 		}

  00020	8b 45 fc	 mov	 eax, DWORD PTR _this$[ebp]
  00023	5f		 pop	 edi
  00024	5e		 pop	 esi
  00025	5b		 pop	 ebx
  00026	8b e5		 mov	 esp, ebp
  00028	5d		 pop	 ebp
  00029	c2 08 00	 ret	 8
??0?$_Vector_const_iterator@V?$_Vector_val@UGrandResetEXP@@V?$allocator@UGrandResetEXP@@@std@@@std@@@std@@QAE@PAUGrandResetEXP@@PBU_Container_base0@1@@Z ENDP ; std::_Vector_const_iterator<std::_Vector_val<GrandResetEXP,std::allocator<GrandResetEXP> > >::_Vector_const_iterator<std::_Vector_val<GrandResetEXP,std::allocator<GrandResetEXP> > >
_TEXT	ENDS
PUBLIC	?_Compat@?$_Vector_const_iterator@V?$_Vector_val@UGrandResetEXP@@V?$allocator@UGrandResetEXP@@@std@@@std@@@std@@QBEXABV12@@Z ; std::_Vector_const_iterator<std::_Vector_val<GrandResetEXP,std::allocator<GrandResetEXP> > >::_Compat
; Function compile flags: /Odtp /ZI
;	COMDAT ??8?$_Vector_const_iterator@V?$_Vector_val@UGrandResetEXP@@V?$allocator@UGrandResetEXP@@@std@@@std@@@std@@QBE_NABV01@@Z
_TEXT	SEGMENT
_this$ = -4						; size = 4
__Right$ = 8						; size = 4
??8?$_Vector_const_iterator@V?$_Vector_val@UGrandResetEXP@@V?$allocator@UGrandResetEXP@@@std@@@std@@@std@@QBE_NABV01@@Z PROC ; std::_Vector_const_iterator<std::_Vector_val<GrandResetEXP,std::allocator<GrandResetEXP> > >::operator==, COMDAT
; _this$ = ecx

; 201  : 		{	// test for iterator equality

  00000	55		 push	 ebp
  00001	8b ec		 mov	 ebp, esp
  00003	83 ec 44	 sub	 esp, 68			; 00000044H
  00006	53		 push	 ebx
  00007	56		 push	 esi
  00008	57		 push	 edi
  00009	89 4d fc	 mov	 DWORD PTR _this$[ebp], ecx

; 202  : 		_Compat(_Right);

  0000c	8b 45 08	 mov	 eax, DWORD PTR __Right$[ebp]
  0000f	50		 push	 eax
  00010	8b 4d fc	 mov	 ecx, DWORD PTR _this$[ebp]
  00013	e8 00 00 00 00	 call	 ?_Compat@?$_Vector_const_iterator@V?$_Vector_val@UGrandResetEXP@@V?$allocator@UGrandResetEXP@@@std@@@std@@@std@@QBEXABV12@@Z ; std::_Vector_const_iterator<std::_Vector_val<GrandResetEXP,std::allocator<GrandResetEXP> > >::_Compat

; 203  : 		return (this->_Ptr == _Right._Ptr);

  00018	8b 45 fc	 mov	 eax, DWORD PTR _this$[ebp]
  0001b	8b 4d 08	 mov	 ecx, DWORD PTR __Right$[ebp]
  0001e	8b 10		 mov	 edx, DWORD PTR [eax]
  00020	33 c0		 xor	 eax, eax
  00022	3b 11		 cmp	 edx, DWORD PTR [ecx]
  00024	0f 94 c0	 sete	 al

; 204  : 		}

  00027	5f		 pop	 edi
  00028	5e		 pop	 esi
  00029	5b		 pop	 ebx
  0002a	8b e5		 mov	 esp, ebp
  0002c	5d		 pop	 ebp
  0002d	c2 04 00	 ret	 4
??8?$_Vector_const_iterator@V?$_Vector_val@UGrandResetEXP@@V?$allocator@UGrandResetEXP@@@std@@@std@@@std@@QBE_NABV01@@Z ENDP ; std::_Vector_const_iterator<std::_Vector_val<GrandResetEXP,std::allocator<GrandResetEXP> > >::operator==
; Function compile flags: /Odtp /ZI
_TEXT	ENDS
;	COMDAT ?_Compat@?$_Vector_const_iterator@V?$_Vector_val@UGrandResetEXP@@V?$allocator@UGrandResetEXP@@@std@@@std@@@std@@QBEXABV12@@Z
_TEXT	SEGMENT
_this$ = -4						; size = 4
___formal$ = 8						; size = 4
?_Compat@?$_Vector_const_iterator@V?$_Vector_val@UGrandResetEXP@@V?$allocator@UGrandResetEXP@@@std@@@std@@@std@@QBEXABV12@@Z PROC ; std::_Vector_const_iterator<std::_Vector_val<GrandResetEXP,std::allocator<GrandResetEXP> > >::_Compat, COMDAT
; _this$ = ecx

; 252  : 		{	// test for compatible iterator pair

  00000	55		 push	 ebp
  00001	8b ec		 mov	 ebp, esp
  00003	83 ec 44	 sub	 esp, 68			; 00000044H
  00006	53		 push	 ebx
  00007	56		 push	 esi
  00008	57		 push	 edi
  00009	89 4d fc	 mov	 DWORD PTR _this$[ebp], ecx

; 253  : 		}

  0000c	5f		 pop	 edi
  0000d	5e		 pop	 esi
  0000e	5b		 pop	 ebx
  0000f	8b e5		 mov	 esp, ebp
  00011	5d		 pop	 ebp
  00012	c2 04 00	 ret	 4
?_Compat@?$_Vector_const_iterator@V?$_Vector_val@UGrandResetEXP@@V?$allocator@UGrandResetEXP@@@std@@@std@@@std@@QBEXABV12@@Z ENDP ; std::_Vector_const_iterator<std::_Vector_val<GrandResetEXP,std::allocator<GrandResetEXP> > >::_Compat
; Function compile flags: /Odtp /ZI
; File d:\microsoft visual studio 10.0\vc\include\xmemory
_TEXT	ENDS
;	COMDAT ??$addressof@$$CBUGrandResetEXP@@@std@@YAPBUGrandResetEXP@@ABU1@@Z
_TEXT	SEGMENT
__Val$ = 8						; size = 4
??$addressof@$$CBUGrandResetEXP@@@std@@YAPBUGrandResetEXP@@ABU1@@Z PROC ; std::addressof<GrandResetEXP const >, COMDAT

; 110  : 	{	// return address of _Val

  00000	55		 push	 ebp
  00001	8b ec		 mov	 ebp, esp
  00003	83 ec 40	 sub	 esp, 64			; 00000040H
  00006	53		 push	 ebx
  00007	56		 push	 esi
  00008	57		 push	 edi

; 111  : 	return ((_Ty *) &(char&)_Val);

  00009	8b 45 08	 mov	 eax, DWORD PTR __Val$[ebp]

; 112  : 	}

  0000c	5f		 pop	 edi
  0000d	5e		 pop	 esi
  0000e	5b		 pop	 ebx
  0000f	8b e5		 mov	 esp, ebp
  00011	5d		 pop	 ebp
  00012	c3		 ret	 0
??$addressof@$$CBUGrandResetEXP@@@std@@YAPBUGrandResetEXP@@ABU1@@Z ENDP ; std::addressof<GrandResetEXP const >
_TEXT	ENDS
PUBLIC	??$construct@AAUGrandResetEXP@@@?$allocator@UGrandResetEXP@@@std@@QAEXPAUGrandResetEXP@@AAU2@@Z ; std::allocator<GrandResetEXP>::construct<GrandResetEXP &>
PUBLIC	??$forward@AAUGrandResetEXP@@@std@@YAAAUGrandResetEXP@@AAU1@@Z ; std::forward<GrandResetEXP &>
; Function compile flags: /Odtp /ZI
;	COMDAT ??$_Cons_val@V?$allocator@UGrandResetEXP@@@std@@UGrandResetEXP@@AAU3@@std@@YAXAAV?$allocator@UGrandResetEXP@@@0@PAUGrandResetEXP@@AAU2@@Z
_TEXT	SEGMENT
__Alval$ = 8						; size = 4
__Pdest$ = 12						; size = 4
__Src$ = 16						; size = 4
??$_Cons_val@V?$allocator@UGrandResetEXP@@@std@@UGrandResetEXP@@AAU3@@std@@YAXAAV?$allocator@UGrandResetEXP@@@0@PAUGrandResetEXP@@AAU2@@Z PROC ; std::_Cons_val<std::allocator<GrandResetEXP>,GrandResetEXP,GrandResetEXP &>, COMDAT

; 279  : 	{	// construct using allocator

  00000	55		 push	 ebp
  00001	8b ec		 mov	 ebp, esp
  00003	83 ec 40	 sub	 esp, 64			; 00000040H
  00006	53		 push	 ebx
  00007	56		 push	 esi
  00008	57		 push	 edi

; 280  : 	_Alval.construct(_Pdest, _STD forward<_Ty2>(_Src));

  00009	8b 45 10	 mov	 eax, DWORD PTR __Src$[ebp]
  0000c	50		 push	 eax
  0000d	e8 00 00 00 00	 call	 ??$forward@AAUGrandResetEXP@@@std@@YAAAUGrandResetEXP@@AAU1@@Z ; std::forward<GrandResetEXP &>
  00012	83 c4 04	 add	 esp, 4
  00015	50		 push	 eax
  00016	8b 4d 0c	 mov	 ecx, DWORD PTR __Pdest$[ebp]
  00019	51		 push	 ecx
  0001a	8b 4d 08	 mov	 ecx, DWORD PTR __Alval$[ebp]
  0001d	e8 00 00 00 00	 call	 ??$construct@AAUGrandResetEXP@@@?$allocator@UGrandResetEXP@@@std@@QAEXPAUGrandResetEXP@@AAU2@@Z ; std::allocator<GrandResetEXP>::construct<GrandResetEXP &>

; 281  : 	}

  00022	5f		 pop	 edi
  00023	5e		 pop	 esi
  00024	5b		 pop	 ebx
  00025	8b e5		 mov	 esp, ebp
  00027	5d		 pop	 ebp
  00028	c3		 ret	 0
??$_Cons_val@V?$allocator@UGrandResetEXP@@@std@@UGrandResetEXP@@AAU3@@std@@YAXAAV?$allocator@UGrandResetEXP@@@0@PAUGrandResetEXP@@AAU2@@Z ENDP ; std::_Cons_val<std::allocator<GrandResetEXP>,GrandResetEXP,GrandResetEXP &>
_TEXT	ENDS
PUBLIC	?construct@?$allocator@UGrandResetEXP@@@std@@QAEXPAUGrandResetEXP@@ABU3@@Z ; std::allocator<GrandResetEXP>::construct
PUBLIC	??$forward@ABUGrandResetEXP@@@std@@YAABUGrandResetEXP@@ABU1@@Z ; std::forward<GrandResetEXP const &>
; Function compile flags: /Odtp /ZI
;	COMDAT ??$_Cons_val@V?$allocator@UGrandResetEXP@@@std@@UGrandResetEXP@@ABU3@@std@@YAXAAV?$allocator@UGrandResetEXP@@@0@PAUGrandResetEXP@@ABU2@@Z
_TEXT	SEGMENT
__Alval$ = 8						; size = 4
__Pdest$ = 12						; size = 4
__Src$ = 16						; size = 4
??$_Cons_val@V?$allocator@UGrandResetEXP@@@std@@UGrandResetEXP@@ABU3@@std@@YAXAAV?$allocator@UGrandResetEXP@@@0@PAUGrandResetEXP@@ABU2@@Z PROC ; std::_Cons_val<std::allocator<GrandResetEXP>,GrandResetEXP,GrandResetEXP const &>, COMDAT

; 279  : 	{	// construct using allocator

  00000	55		 push	 ebp
  00001	8b ec		 mov	 ebp, esp
  00003	83 ec 40	 sub	 esp, 64			; 00000040H
  00006	53		 push	 ebx
  00007	56		 push	 esi
  00008	57		 push	 edi

; 280  : 	_Alval.construct(_Pdest, _STD forward<_Ty2>(_Src));

  00009	8b 45 10	 mov	 eax, DWORD PTR __Src$[ebp]
  0000c	50		 push	 eax
  0000d	e8 00 00 00 00	 call	 ??$forward@ABUGrandResetEXP@@@std@@YAABUGrandResetEXP@@ABU1@@Z ; std::forward<GrandResetEXP const &>
  00012	83 c4 04	 add	 esp, 4
  00015	50		 push	 eax
  00016	8b 4d 0c	 mov	 ecx, DWORD PTR __Pdest$[ebp]
  00019	51		 push	 ecx
  0001a	8b 4d 08	 mov	 ecx, DWORD PTR __Alval$[ebp]
  0001d	e8 00 00 00 00	 call	 ?construct@?$allocator@UGrandResetEXP@@@std@@QAEXPAUGrandResetEXP@@ABU3@@Z ; std::allocator<GrandResetEXP>::construct

; 281  : 	}

  00022	5f		 pop	 edi
  00023	5e		 pop	 esi
  00024	5b		 pop	 ebx
  00025	8b e5		 mov	 esp, ebp
  00027	5d		 pop	 ebp
  00028	c3		 ret	 0
??$_Cons_val@V?$allocator@UGrandResetEXP@@@std@@UGrandResetEXP@@ABU3@@std@@YAXAAV?$allocator@UGrandResetEXP@@@0@PAUGrandResetEXP@@ABU2@@Z ENDP ; std::_Cons_val<std::allocator<GrandResetEXP>,GrandResetEXP,GrandResetEXP const &>
; Function compile flags: /Odtp /ZI
_TEXT	ENDS
;	COMDAT ??$addressof@$$CBUGRANDSYSTEM_REWARD_DATA@@@std@@YAPBUGRANDSYSTEM_REWARD_DATA@@ABU1@@Z
_TEXT	SEGMENT
__Val$ = 8						; size = 4
??$addressof@$$CBUGRANDSYSTEM_REWARD_DATA@@@std@@YAPBUGRANDSYSTEM_REWARD_DATA@@ABU1@@Z PROC ; std::addressof<GRANDSYSTEM_REWARD_DATA const >, COMDAT

; 110  : 	{	// return address of _Val

  00000	55		 push	 ebp
  00001	8b ec		 mov	 ebp, esp
  00003	83 ec 40	 sub	 esp, 64			; 00000040H
  00006	53		 push	 ebx
  00007	56		 push	 esi
  00008	57		 push	 edi

; 111  : 	return ((_Ty *) &(char&)_Val);

  00009	8b 45 08	 mov	 eax, DWORD PTR __Val$[ebp]

; 112  : 	}

  0000c	5f		 pop	 edi
  0000d	5e		 pop	 esi
  0000e	5b		 pop	 ebx
  0000f	8b e5		 mov	 esp, ebp
  00011	5d		 pop	 ebp
  00012	c3		 ret	 0
??$addressof@$$CBUGRANDSYSTEM_REWARD_DATA@@@std@@YAPBUGRANDSYSTEM_REWARD_DATA@@ABU1@@Z ENDP ; std::addressof<GRANDSYSTEM_REWARD_DATA const >
_TEXT	ENDS
PUBLIC	??$construct@AAUGRANDSYSTEM_REWARD_DATA@@@?$allocator@UGRANDSYSTEM_REWARD_DATA@@@std@@QAEXPAUGRANDSYSTEM_REWARD_DATA@@AAU2@@Z ; std::allocator<GRANDSYSTEM_REWARD_DATA>::construct<GRANDSYSTEM_REWARD_DATA &>
PUBLIC	??$forward@AAUGRANDSYSTEM_REWARD_DATA@@@std@@YAAAUGRANDSYSTEM_REWARD_DATA@@AAU1@@Z ; std::forward<GRANDSYSTEM_REWARD_DATA &>
; Function compile flags: /Odtp /ZI
;	COMDAT ??$_Cons_val@V?$allocator@UGRANDSYSTEM_REWARD_DATA@@@std@@UGRANDSYSTEM_REWARD_DATA@@AAU3@@std@@YAXAAV?$allocator@UGRANDSYSTEM_REWARD_DATA@@@0@PAUGRANDSYSTEM_REWARD_DATA@@AAU2@@Z
_TEXT	SEGMENT
__Alval$ = 8						; size = 4
__Pdest$ = 12						; size = 4
__Src$ = 16						; size = 4
??$_Cons_val@V?$allocator@UGRANDSYSTEM_REWARD_DATA@@@std@@UGRANDSYSTEM_REWARD_DATA@@AAU3@@std@@YAXAAV?$allocator@UGRANDSYSTEM_REWARD_DATA@@@0@PAUGRANDSYSTEM_REWARD_DATA@@AAU2@@Z PROC ; std::_Cons_val<std::allocator<GRANDSYSTEM_REWARD_DATA>,GRANDSYSTEM_REWARD_DATA,GRANDSYSTEM_REWARD_DATA &>, COMDAT

; 279  : 	{	// construct using allocator

  00000	55		 push	 ebp
  00001	8b ec		 mov	 ebp, esp
  00003	83 ec 40	 sub	 esp, 64			; 00000040H
  00006	53		 push	 ebx
  00007	56		 push	 esi
  00008	57		 push	 edi

; 280  : 	_Alval.construct(_Pdest, _STD forward<_Ty2>(_Src));

  00009	8b 45 10	 mov	 eax, DWORD PTR __Src$[ebp]
  0000c	50		 push	 eax
  0000d	e8 00 00 00 00	 call	 ??$forward@AAUGRANDSYSTEM_REWARD_DATA@@@std@@YAAAUGRANDSYSTEM_REWARD_DATA@@AAU1@@Z ; std::forward<GRANDSYSTEM_REWARD_DATA &>
  00012	83 c4 04	 add	 esp, 4
  00015	50		 push	 eax
  00016	8b 4d 0c	 mov	 ecx, DWORD PTR __Pdest$[ebp]
  00019	51		 push	 ecx
  0001a	8b 4d 08	 mov	 ecx, DWORD PTR __Alval$[ebp]
  0001d	e8 00 00 00 00	 call	 ??$construct@AAUGRANDSYSTEM_REWARD_DATA@@@?$allocator@UGRANDSYSTEM_REWARD_DATA@@@std@@QAEXPAUGRANDSYSTEM_REWARD_DATA@@AAU2@@Z ; std::allocator<GRANDSYSTEM_REWARD_DATA>::construct<GRANDSYSTEM_REWARD_DATA &>

; 281  : 	}

  00022	5f		 pop	 edi
  00023	5e		 pop	 esi
  00024	5b		 pop	 ebx
  00025	8b e5		 mov	 esp, ebp
  00027	5d		 pop	 ebp
  00028	c3		 ret	 0
??$_Cons_val@V?$allocator@UGRANDSYSTEM_REWARD_DATA@@@std@@UGRANDSYSTEM_REWARD_DATA@@AAU3@@std@@YAXAAV?$allocator@UGRANDSYSTEM_REWARD_DATA@@@0@PAUGRANDSYSTEM_REWARD_DATA@@AAU2@@Z ENDP ; std::_Cons_val<std::allocator<GRANDSYSTEM_REWARD_DATA>,GRANDSYSTEM_REWARD_DATA,GRANDSYSTEM_REWARD_DATA &>
_TEXT	ENDS
PUBLIC	?construct@?$allocator@UGRANDSYSTEM_REWARD_DATA@@@std@@QAEXPAUGRANDSYSTEM_REWARD_DATA@@ABU3@@Z ; std::allocator<GRANDSYSTEM_REWARD_DATA>::construct
PUBLIC	??$forward@ABUGRANDSYSTEM_REWARD_DATA@@@std@@YAABUGRANDSYSTEM_REWARD_DATA@@ABU1@@Z ; std::forward<GRANDSYSTEM_REWARD_DATA const &>
; Function compile flags: /Odtp /ZI
;	COMDAT ??$_Cons_val@V?$allocator@UGRANDSYSTEM_REWARD_DATA@@@std@@UGRANDSYSTEM_REWARD_DATA@@ABU3@@std@@YAXAAV?$allocator@UGRANDSYSTEM_REWARD_DATA@@@0@PAUGRANDSYSTEM_REWARD_DATA@@ABU2@@Z
_TEXT	SEGMENT
__Alval$ = 8						; size = 4
__Pdest$ = 12						; size = 4
__Src$ = 16						; size = 4
??$_Cons_val@V?$allocator@UGRANDSYSTEM_REWARD_DATA@@@std@@UGRANDSYSTEM_REWARD_DATA@@ABU3@@std@@YAXAAV?$allocator@UGRANDSYSTEM_REWARD_DATA@@@0@PAUGRANDSYSTEM_REWARD_DATA@@ABU2@@Z PROC ; std::_Cons_val<std::allocator<GRANDSYSTEM_REWARD_DATA>,GRANDSYSTEM_REWARD_DATA,GRANDSYSTEM_REWARD_DATA const &>, COMDAT

; 279  : 	{	// construct using allocator

  00000	55		 push	 ebp
  00001	8b ec		 mov	 ebp, esp
  00003	83 ec 40	 sub	 esp, 64			; 00000040H
  00006	53		 push	 ebx
  00007	56		 push	 esi
  00008	57		 push	 edi

; 280  : 	_Alval.construct(_Pdest, _STD forward<_Ty2>(_Src));

  00009	8b 45 10	 mov	 eax, DWORD PTR __Src$[ebp]
  0000c	50		 push	 eax
  0000d	e8 00 00 00 00	 call	 ??$forward@ABUGRANDSYSTEM_REWARD_DATA@@@std@@YAABUGRANDSYSTEM_REWARD_DATA@@ABU1@@Z ; std::forward<GRANDSYSTEM_REWARD_DATA const &>
  00012	83 c4 04	 add	 esp, 4
  00015	50		 push	 eax
  00016	8b 4d 0c	 mov	 ecx, DWORD PTR __Pdest$[ebp]
  00019	51		 push	 ecx
  0001a	8b 4d 08	 mov	 ecx, DWORD PTR __Alval$[ebp]
  0001d	e8 00 00 00 00	 call	 ?construct@?$allocator@UGRANDSYSTEM_REWARD_DATA@@@std@@QAEXPAUGRANDSYSTEM_REWARD_DATA@@ABU3@@Z ; std::allocator<GRANDSYSTEM_REWARD_DATA>::construct

; 281  : 	}

  00022	5f		 pop	 edi
  00023	5e		 pop	 esi
  00024	5b		 pop	 ebx
  00025	8b e5		 mov	 esp, ebp
  00027	5d		 pop	 ebp
  00028	c3		 ret	 0
??$_Cons_val@V?$allocator@UGRANDSYSTEM_REWARD_DATA@@@std@@UGRANDSYSTEM_REWARD_DATA@@ABU3@@std@@YAXAAV?$allocator@UGRANDSYSTEM_REWARD_DATA@@@0@PAUGRANDSYSTEM_REWARD_DATA@@ABU2@@Z ENDP ; std::_Cons_val<std::allocator<GRANDSYSTEM_REWARD_DATA>,GRANDSYSTEM_REWARD_DATA,GRANDSYSTEM_REWARD_DATA const &>
_TEXT	ENDS
PUBLIC	??$_Move@PAUGrandResetEXP@@PAU1@@std@@YAPAUGrandResetEXP@@PAU1@00U_Nonscalar_ptr_iterator_tag@0@@Z ; std::_Move<GrandResetEXP *,GrandResetEXP *>
PUBLIC	??$_Ptr_cat@UGrandResetEXP@@U1@@std@@YA?AU_Nonscalar_ptr_iterator_tag@0@PAUGrandResetEXP@@0@Z ; std::_Ptr_cat<GrandResetEXP,GrandResetEXP>
; Function compile flags: /Odtp /ZI
; File d:\microsoft visual studio 10.0\vc\include\xutility
;	COMDAT ??$_Move@PAUGrandResetEXP@@PAU1@@std@@YAPAUGrandResetEXP@@PAU1@00@Z
_TEXT	SEGMENT
$T233717 = -65						; size = 1
__First$ = 8						; size = 4
__Last$ = 12						; size = 4
__Dest$ = 16						; size = 4
??$_Move@PAUGrandResetEXP@@PAU1@@std@@YAPAUGrandResetEXP@@PAU1@00@Z PROC ; std::_Move<GrandResetEXP *,GrandResetEXP *>, COMDAT

; 2533 : 	{	// move [_First, _Last) to [_Dest, ...), unchecked

  00000	55		 push	 ebp
  00001	8b ec		 mov	 ebp, esp
  00003	83 ec 44	 sub	 esp, 68			; 00000044H
  00006	53		 push	 ebx
  00007	56		 push	 esi
  00008	57		 push	 edi

; 2534 : 	return (_Move(_First, _Last,
; 2535 : 		_Dest, _Ptr_cat(_First, _Dest)));

  00009	8b 45 10	 mov	 eax, DWORD PTR __Dest$[ebp]
  0000c	50		 push	 eax
  0000d	8b 4d 08	 mov	 ecx, DWORD PTR __First$[ebp]
  00010	51		 push	 ecx
  00011	e8 00 00 00 00	 call	 ??$_Ptr_cat@UGrandResetEXP@@U1@@std@@YA?AU_Nonscalar_ptr_iterator_tag@0@PAUGrandResetEXP@@0@Z ; std::_Ptr_cat<GrandResetEXP,GrandResetEXP>
  00016	83 c4 08	 add	 esp, 8
  00019	88 45 bf	 mov	 BYTE PTR $T233717[ebp], al
  0001c	0f b6 55 bf	 movzx	 edx, BYTE PTR $T233717[ebp]
  00020	52		 push	 edx
  00021	8b 45 10	 mov	 eax, DWORD PTR __Dest$[ebp]
  00024	50		 push	 eax
  00025	8b 4d 0c	 mov	 ecx, DWORD PTR __Last$[ebp]
  00028	51		 push	 ecx
  00029	8b 55 08	 mov	 edx, DWORD PTR __First$[ebp]
  0002c	52		 push	 edx
  0002d	e8 00 00 00 00	 call	 ??$_Move@PAUGrandResetEXP@@PAU1@@std@@YAPAUGrandResetEXP@@PAU1@00U_Nonscalar_ptr_iterator_tag@0@@Z ; std::_Move<GrandResetEXP *,GrandResetEXP *>
  00032	83 c4 10	 add	 esp, 16			; 00000010H

; 2536 : 	}

  00035	5f		 pop	 edi
  00036	5e		 pop	 esi
  00037	5b		 pop	 ebx
  00038	8b e5		 mov	 esp, ebp
  0003a	5d		 pop	 ebp
  0003b	c3		 ret	 0
??$_Move@PAUGrandResetEXP@@PAU1@@std@@YAPAUGrandResetEXP@@PAU1@00@Z ENDP ; std::_Move<GrandResetEXP *,GrandResetEXP *>
_TEXT	ENDS
PUBLIC	??$_Uninitialized_move@PAUGrandResetEXP@@PAU1@V?$allocator@UGrandResetEXP@@@std@@@std@@YAPAUGrandResetEXP@@PAU1@00AAV?$allocator@UGrandResetEXP@@@0@@Z ; std::_Uninitialized_move<GrandResetEXP *,GrandResetEXP *,std::allocator<GrandResetEXP> >
; Function compile flags: /Odtp /ZI
; File d:\microsoft visual studio 10.0\vc\include\vector
;	COMDAT ??$_Umove@PAUGrandResetEXP@@@?$vector@UGrandResetEXP@@V?$allocator@UGrandResetEXP@@@std@@@std@@IAEPAUGrandResetEXP@@PAU2@00@Z
_TEXT	SEGMENT
_this$ = -4						; size = 4
__First$ = 8						; size = 4
__Last$ = 12						; size = 4
__Ptr$ = 16						; size = 4
??$_Umove@PAUGrandResetEXP@@@?$vector@UGrandResetEXP@@V?$allocator@UGrandResetEXP@@@std@@@std@@IAEPAUGrandResetEXP@@PAU2@00@Z PROC ; std::vector<GrandResetEXP,std::allocator<GrandResetEXP> >::_Umove<GrandResetEXP *>, COMDAT
; _this$ = ecx

; 1322 : 		pointer _Umove(_Iter _First, _Iter _Last, pointer _Ptr)

  00000	55		 push	 ebp
  00001	8b ec		 mov	 ebp, esp
  00003	83 ec 44	 sub	 esp, 68			; 00000044H
  00006	53		 push	 ebx
  00007	56		 push	 esi
  00008	57		 push	 edi
  00009	89 4d fc	 mov	 DWORD PTR _this$[ebp], ecx

; 1323 : 		{	// move initializing [_First, _Last), using allocator
; 1324 : 		return (_Uninitialized_move(_First, _Last,
; 1325 : 			_Ptr, this->_Alval));

  0000c	8b 45 fc	 mov	 eax, DWORD PTR _this$[ebp]
  0000f	83 c0 0c	 add	 eax, 12			; 0000000cH
  00012	50		 push	 eax
  00013	8b 4d 10	 mov	 ecx, DWORD PTR __Ptr$[ebp]
  00016	51		 push	 ecx
  00017	8b 55 0c	 mov	 edx, DWORD PTR __Last$[ebp]
  0001a	52		 push	 edx
  0001b	8b 45 08	 mov	 eax, DWORD PTR __First$[ebp]
  0001e	50		 push	 eax
  0001f	e8 00 00 00 00	 call	 ??$_Uninitialized_move@PAUGrandResetEXP@@PAU1@V?$allocator@UGrandResetEXP@@@std@@@std@@YAPAUGrandResetEXP@@PAU1@00AAV?$allocator@UGrandResetEXP@@@0@@Z ; std::_Uninitialized_move<GrandResetEXP *,GrandResetEXP *,std::allocator<GrandResetEXP> >
  00024	83 c4 10	 add	 esp, 16			; 00000010H

; 1326 : 		}

  00027	5f		 pop	 edi
  00028	5e		 pop	 esi
  00029	5b		 pop	 ebx
  0002a	8b e5		 mov	 esp, ebp
  0002c	5d		 pop	 ebp
  0002d	c2 0c 00	 ret	 12			; 0000000cH
??$_Umove@PAUGrandResetEXP@@@?$vector@UGrandResetEXP@@V?$allocator@UGrandResetEXP@@@std@@@std@@IAEPAUGrandResetEXP@@PAU2@00@Z ENDP ; std::vector<GrandResetEXP,std::allocator<GrandResetEXP> >::_Umove<GrandResetEXP *>
_TEXT	ENDS
PUBLIC	??$_Destroy_range@V?$allocator@UGrandResetEXP@@@std@@@std@@YAXPAUGrandResetEXP@@0AAV?$allocator@UGrandResetEXP@@@0@U_Nonscalar_ptr_iterator_tag@0@@Z ; std::_Destroy_range<std::allocator<GrandResetEXP> >
; Function compile flags: /Odtp /ZI
; File d:\microsoft visual studio 10.0\vc\include\xmemory
;	COMDAT ??$_Destroy_range@V?$allocator@UGrandResetEXP@@@std@@@std@@YAXPAUGrandResetEXP@@0AAV?$allocator@UGrandResetEXP@@@0@@Z
_TEXT	SEGMENT
$T233722 = -65						; size = 1
__First$ = 8						; size = 4
__Last$ = 12						; size = 4
__Al$ = 16						; size = 4
??$_Destroy_range@V?$allocator@UGrandResetEXP@@@std@@@std@@YAXPAUGrandResetEXP@@0AAV?$allocator@UGrandResetEXP@@@0@@Z PROC ; std::_Destroy_range<std::allocator<GrandResetEXP> >, COMDAT

; 87   : 	{	// destroy [_First, _Last)

  00000	55		 push	 ebp
  00001	8b ec		 mov	 ebp, esp
  00003	83 ec 44	 sub	 esp, 68			; 00000044H
  00006	53		 push	 ebx
  00007	56		 push	 esi
  00008	57		 push	 edi

; 88   : 	_Destroy_range(_First, _Last, _Al, _Ptr_cat(_First, _Last));

  00009	8b 45 0c	 mov	 eax, DWORD PTR __Last$[ebp]
  0000c	50		 push	 eax
  0000d	8b 4d 08	 mov	 ecx, DWORD PTR __First$[ebp]
  00010	51		 push	 ecx
  00011	e8 00 00 00 00	 call	 ??$_Ptr_cat@UGrandResetEXP@@U1@@std@@YA?AU_Nonscalar_ptr_iterator_tag@0@PAUGrandResetEXP@@0@Z ; std::_Ptr_cat<GrandResetEXP,GrandResetEXP>
  00016	83 c4 08	 add	 esp, 8
  00019	88 45 bf	 mov	 BYTE PTR $T233722[ebp], al
  0001c	0f b6 55 bf	 movzx	 edx, BYTE PTR $T233722[ebp]
  00020	52		 push	 edx
  00021	8b 45 10	 mov	 eax, DWORD PTR __Al$[ebp]
  00024	50		 push	 eax
  00025	8b 4d 0c	 mov	 ecx, DWORD PTR __Last$[ebp]
  00028	51		 push	 ecx
  00029	8b 55 08	 mov	 edx, DWORD PTR __First$[ebp]
  0002c	52		 push	 edx
  0002d	e8 00 00 00 00	 call	 ??$_Destroy_range@V?$allocator@UGrandResetEXP@@@std@@@std@@YAXPAUGrandResetEXP@@0AAV?$allocator@UGrandResetEXP@@@0@U_Nonscalar_ptr_iterator_tag@0@@Z ; std::_Destroy_range<std::allocator<GrandResetEXP> >
  00032	83 c4 10	 add	 esp, 16			; 00000010H

; 89   : 	}

  00035	5f		 pop	 edi
  00036	5e		 pop	 esi
  00037	5b		 pop	 ebx
  00038	8b e5		 mov	 esp, ebp
  0003a	5d		 pop	 ebp
  0003b	c3		 ret	 0
??$_Destroy_range@V?$allocator@UGrandResetEXP@@@std@@@std@@YAXPAUGrandResetEXP@@0AAV?$allocator@UGrandResetEXP@@@0@@Z ENDP ; std::_Destroy_range<std::allocator<GrandResetEXP> >
_TEXT	ENDS
PUBLIC	??$_Uninitialized_move@PAUGRANDSYSTEM_REWARD_DATA@@PAU1@V?$allocator@UGRANDSYSTEM_REWARD_DATA@@@std@@@std@@YAPAUGRANDSYSTEM_REWARD_DATA@@PAU1@00AAV?$allocator@UGRANDSYSTEM_REWARD_DATA@@@0@@Z ; std::_Uninitialized_move<GRANDSYSTEM_REWARD_DATA *,GRANDSYSTEM_REWARD_DATA *,std::allocator<GRANDSYSTEM_REWARD_DATA> >
; Function compile flags: /Odtp /ZI
; File d:\microsoft visual studio 10.0\vc\include\vector
;	COMDAT ??$_Umove@PAUGRANDSYSTEM_REWARD_DATA@@@?$vector@UGRANDSYSTEM_REWARD_DATA@@V?$allocator@UGRANDSYSTEM_REWARD_DATA@@@std@@@std@@IAEPAUGRANDSYSTEM_REWARD_DATA@@PAU2@00@Z
_TEXT	SEGMENT
_this$ = -4						; size = 4
__First$ = 8						; size = 4
__Last$ = 12						; size = 4
__Ptr$ = 16						; size = 4
??$_Umove@PAUGRANDSYSTEM_REWARD_DATA@@@?$vector@UGRANDSYSTEM_REWARD_DATA@@V?$allocator@UGRANDSYSTEM_REWARD_DATA@@@std@@@std@@IAEPAUGRANDSYSTEM_REWARD_DATA@@PAU2@00@Z PROC ; std::vector<GRANDSYSTEM_REWARD_DATA,std::allocator<GRANDSYSTEM_REWARD_DATA> >::_Umove<GRANDSYSTEM_REWARD_DATA *>, COMDAT
; _this$ = ecx

; 1322 : 		pointer _Umove(_Iter _First, _Iter _Last, pointer _Ptr)

  00000	55		 push	 ebp
  00001	8b ec		 mov	 ebp, esp
  00003	83 ec 44	 sub	 esp, 68			; 00000044H
  00006	53		 push	 ebx
  00007	56		 push	 esi
  00008	57		 push	 edi
  00009	89 4d fc	 mov	 DWORD PTR _this$[ebp], ecx

; 1323 : 		{	// move initializing [_First, _Last), using allocator
; 1324 : 		return (_Uninitialized_move(_First, _Last,
; 1325 : 			_Ptr, this->_Alval));

  0000c	8b 45 fc	 mov	 eax, DWORD PTR _this$[ebp]
  0000f	83 c0 0c	 add	 eax, 12			; 0000000cH
  00012	50		 push	 eax
  00013	8b 4d 10	 mov	 ecx, DWORD PTR __Ptr$[ebp]
  00016	51		 push	 ecx
  00017	8b 55 0c	 mov	 edx, DWORD PTR __Last$[ebp]
  0001a	52		 push	 edx
  0001b	8b 45 08	 mov	 eax, DWORD PTR __First$[ebp]
  0001e	50		 push	 eax
  0001f	e8 00 00 00 00	 call	 ??$_Uninitialized_move@PAUGRANDSYSTEM_REWARD_DATA@@PAU1@V?$allocator@UGRANDSYSTEM_REWARD_DATA@@@std@@@std@@YAPAUGRANDSYSTEM_REWARD_DATA@@PAU1@00AAV?$allocator@UGRANDSYSTEM_REWARD_DATA@@@0@@Z ; std::_Uninitialized_move<GRANDSYSTEM_REWARD_DATA *,GRANDSYSTEM_REWARD_DATA *,std::allocator<GRANDSYSTEM_REWARD_DATA> >
  00024	83 c4 10	 add	 esp, 16			; 00000010H

; 1326 : 		}

  00027	5f		 pop	 edi
  00028	5e		 pop	 esi
  00029	5b		 pop	 ebx
  0002a	8b e5		 mov	 esp, ebp
  0002c	5d		 pop	 ebp
  0002d	c2 0c 00	 ret	 12			; 0000000cH
??$_Umove@PAUGRANDSYSTEM_REWARD_DATA@@@?$vector@UGRANDSYSTEM_REWARD_DATA@@V?$allocator@UGRANDSYSTEM_REWARD_DATA@@@std@@@std@@IAEPAUGRANDSYSTEM_REWARD_DATA@@PAU2@00@Z ENDP ; std::vector<GRANDSYSTEM_REWARD_DATA,std::allocator<GRANDSYSTEM_REWARD_DATA> >::_Umove<GRANDSYSTEM_REWARD_DATA *>
_TEXT	ENDS
PUBLIC	??$_Destroy_range@V?$allocator@UGRANDSYSTEM_REWARD_DATA@@@std@@@std@@YAXPAUGRANDSYSTEM_REWARD_DATA@@0AAV?$allocator@UGRANDSYSTEM_REWARD_DATA@@@0@U_Nonscalar_ptr_iterator_tag@0@@Z ; std::_Destroy_range<std::allocator<GRANDSYSTEM_REWARD_DATA> >
PUBLIC	??$_Ptr_cat@UGRANDSYSTEM_REWARD_DATA@@U1@@std@@YA?AU_Nonscalar_ptr_iterator_tag@0@PAUGRANDSYSTEM_REWARD_DATA@@0@Z ; std::_Ptr_cat<GRANDSYSTEM_REWARD_DATA,GRANDSYSTEM_REWARD_DATA>
; Function compile flags: /Odtp /ZI
; File d:\microsoft visual studio 10.0\vc\include\xmemory
;	COMDAT ??$_Destroy_range@V?$allocator@UGRANDSYSTEM_REWARD_DATA@@@std@@@std@@YAXPAUGRANDSYSTEM_REWARD_DATA@@0AAV?$allocator@UGRANDSYSTEM_REWARD_DATA@@@0@@Z
_TEXT	SEGMENT
$T233727 = -65						; size = 1
__First$ = 8						; size = 4
__Last$ = 12						; size = 4
__Al$ = 16						; size = 4
??$_Destroy_range@V?$allocator@UGRANDSYSTEM_REWARD_DATA@@@std@@@std@@YAXPAUGRANDSYSTEM_REWARD_DATA@@0AAV?$allocator@UGRANDSYSTEM_REWARD_DATA@@@0@@Z PROC ; std::_Destroy_range<std::allocator<GRANDSYSTEM_REWARD_DATA> >, COMDAT

; 87   : 	{	// destroy [_First, _Last)

  00000	55		 push	 ebp
  00001	8b ec		 mov	 ebp, esp
  00003	83 ec 44	 sub	 esp, 68			; 00000044H
  00006	53		 push	 ebx
  00007	56		 push	 esi
  00008	57		 push	 edi

; 88   : 	_Destroy_range(_First, _Last, _Al, _Ptr_cat(_First, _Last));

  00009	8b 45 0c	 mov	 eax, DWORD PTR __Last$[ebp]
  0000c	50		 push	 eax
  0000d	8b 4d 08	 mov	 ecx, DWORD PTR __First$[ebp]
  00010	51		 push	 ecx
  00011	e8 00 00 00 00	 call	 ??$_Ptr_cat@UGRANDSYSTEM_REWARD_DATA@@U1@@std@@YA?AU_Nonscalar_ptr_iterator_tag@0@PAUGRANDSYSTEM_REWARD_DATA@@0@Z ; std::_Ptr_cat<GRANDSYSTEM_REWARD_DATA,GRANDSYSTEM_REWARD_DATA>
  00016	83 c4 08	 add	 esp, 8
  00019	88 45 bf	 mov	 BYTE PTR $T233727[ebp], al
  0001c	0f b6 55 bf	 movzx	 edx, BYTE PTR $T233727[ebp]
  00020	52		 push	 edx
  00021	8b 45 10	 mov	 eax, DWORD PTR __Al$[ebp]
  00024	50		 push	 eax
  00025	8b 4d 0c	 mov	 ecx, DWORD PTR __Last$[ebp]
  00028	51		 push	 ecx
  00029	8b 55 08	 mov	 edx, DWORD PTR __First$[ebp]
  0002c	52		 push	 edx
  0002d	e8 00 00 00 00	 call	 ??$_Destroy_range@V?$allocator@UGRANDSYSTEM_REWARD_DATA@@@std@@@std@@YAXPAUGRANDSYSTEM_REWARD_DATA@@0AAV?$allocator@UGRANDSYSTEM_REWARD_DATA@@@0@U_Nonscalar_ptr_iterator_tag@0@@Z ; std::_Destroy_range<std::allocator<GRANDSYSTEM_REWARD_DATA> >
  00032	83 c4 10	 add	 esp, 16			; 00000010H

; 89   : 	}

  00035	5f		 pop	 edi
  00036	5e		 pop	 esi
  00037	5b		 pop	 ebx
  00038	8b e5		 mov	 esp, ebp
  0003a	5d		 pop	 ebp
  0003b	c3		 ret	 0
??$_Destroy_range@V?$allocator@UGRANDSYSTEM_REWARD_DATA@@@std@@@std@@YAXPAUGRANDSYSTEM_REWARD_DATA@@0AAV?$allocator@UGRANDSYSTEM_REWARD_DATA@@@0@@Z ENDP ; std::_Destroy_range<std::allocator<GRANDSYSTEM_REWARD_DATA> >
_TEXT	ENDS
PUBLIC	__TI2?AVbad_alloc@std@@
PUBLIC	??0bad_alloc@std@@QAE@PBD@Z			; std::bad_alloc::bad_alloc
PUBLIC	??1bad_alloc@std@@UAE@XZ			; std::bad_alloc::~bad_alloc
PUBLIC	__CTA2?AVbad_alloc@std@@
PUBLIC	__CT??_R0?AVbad_alloc@std@@@8??0bad_alloc@std@@QAE@ABV01@@Z12
PUBLIC	??_R0?AVbad_alloc@std@@@8			; std::bad_alloc `RTTI Type Descriptor'
PUBLIC	??0bad_alloc@std@@QAE@ABV01@@Z			; std::bad_alloc::bad_alloc
PUBLIC	__CT??_R0?AVexception@std@@@8??0exception@std@@QAE@ABV01@@Z12
PUBLIC	??_R0?AVexception@std@@@8			; std::exception `RTTI Type Descriptor'
EXTRN	??2@YAPAXI@Z:PROC				; operator new
EXTRN	??_7type_info@@6B@:QWORD			; type_info::`vftable'
EXTRN	??0exception@std@@QAE@ABV01@@Z:PROC		; std::exception::exception
;	COMDAT ??_R0?AVexception@std@@@8
_DATA	SEGMENT
??_R0?AVexception@std@@@8 DD FLAT:??_7type_info@@6B@	; std::exception `RTTI Type Descriptor'
	DD	00H
	DB	'.?AVexception@std@@', 00H
_DATA	ENDS
;	COMDAT __CT??_R0?AVexception@std@@@8??0exception@std@@QAE@ABV01@@Z12
xdata$x	SEGMENT
__CT??_R0?AVexception@std@@@8??0exception@std@@QAE@ABV01@@Z12 DD 00H
	DD	FLAT:??_R0?AVexception@std@@@8
	DD	00H
	DD	0ffffffffH
	ORG $+4
	DD	0cH
	DD	FLAT:??0exception@std@@QAE@ABV01@@Z
xdata$x	ENDS
;	COMDAT ??_R0?AVbad_alloc@std@@@8
_DATA	SEGMENT
??_R0?AVbad_alloc@std@@@8 DD FLAT:??_7type_info@@6B@	; std::bad_alloc `RTTI Type Descriptor'
	DD	00H
	DB	'.?AVbad_alloc@std@@', 00H
_DATA	ENDS
;	COMDAT __CT??_R0?AVbad_alloc@std@@@8??0bad_alloc@std@@QAE@ABV01@@Z12
xdata$x	SEGMENT
__CT??_R0?AVbad_alloc@std@@@8??0bad_alloc@std@@QAE@ABV01@@Z12 DD 00H
	DD	FLAT:??_R0?AVbad_alloc@std@@@8
	DD	00H
	DD	0ffffffffH
	ORG $+4
	DD	0cH
	DD	FLAT:??0bad_alloc@std@@QAE@ABV01@@Z
xdata$x	ENDS
;	COMDAT __CTA2?AVbad_alloc@std@@
xdata$x	SEGMENT
__CTA2?AVbad_alloc@std@@ DD 02H
	DD	FLAT:__CT??_R0?AVbad_alloc@std@@@8??0bad_alloc@std@@QAE@ABV01@@Z12
	DD	FLAT:__CT??_R0?AVexception@std@@@8??0exception@std@@QAE@ABV01@@Z12
xdata$x	ENDS
;	COMDAT __TI2?AVbad_alloc@std@@
xdata$x	SEGMENT
__TI2?AVbad_alloc@std@@ DD 00H
	DD	FLAT:??1bad_alloc@std@@UAE@XZ
	DD	00H
	DD	FLAT:__CTA2?AVbad_alloc@std@@
; Function compile flags: /Odtp /ZI
xdata$x	ENDS
;	COMDAT ??$_Allocate@UGrandResetEXP@@@std@@YAPAUGrandResetEXP@@IPAU1@@Z
_TEXT	SEGMENT
$T233730 = -80						; size = 12
__Ptr$ = -4						; size = 4
__Count$ = 8						; size = 4
___formal$ = 12						; size = 4
??$_Allocate@UGrandResetEXP@@@std@@YAPAUGrandResetEXP@@IPAU1@@Z PROC ; std::_Allocate<GrandResetEXP>, COMDAT

; 30   : 	{	// allocate storage for _Count elements of type _Ty

  00000	55		 push	 ebp
  00001	8b ec		 mov	 ebp, esp
  00003	83 ec 50	 sub	 esp, 80			; 00000050H
  00006	53		 push	 ebx
  00007	56		 push	 esi
  00008	57		 push	 edi

; 31   : 	void *_Ptr = 0;

  00009	c7 45 fc 00 00
	00 00		 mov	 DWORD PTR __Ptr$[ebp], 0

; 32   : 
; 33   : 	if (_Count <= 0)

  00010	83 7d 08 00	 cmp	 DWORD PTR __Count$[ebp], 0
  00014	77 09		 ja	 SHORT $LN4@Allocate

; 34   : 		_Count = 0;

  00016	c7 45 08 00 00
	00 00		 mov	 DWORD PTR __Count$[ebp], 0

; 35   : 	else if (((_SIZT)(-1) / sizeof (_Ty) < _Count)

  0001d	eb 39		 jmp	 SHORT $LN3@Allocate
$LN4@Allocate:

; 36   : 		|| (_Ptr = ::operator new(_Count * sizeof (_Ty))) == 0)

  0001f	81 7d 08 ff ff
	ff 1f		 cmp	 DWORD PTR __Count$[ebp], 536870911 ; 1fffffffH
  00026	77 18		 ja	 SHORT $LN1@Allocate
  00028	8b 45 08	 mov	 eax, DWORD PTR __Count$[ebp]
  0002b	c1 e0 03	 shl	 eax, 3
  0002e	50		 push	 eax
  0002f	e8 00 00 00 00	 call	 ??2@YAPAXI@Z		; operator new
  00034	83 c4 04	 add	 esp, 4
  00037	89 45 fc	 mov	 DWORD PTR __Ptr$[ebp], eax
  0003a	83 7d fc 00	 cmp	 DWORD PTR __Ptr$[ebp], 0
  0003e	75 18		 jne	 SHORT $LN3@Allocate
$LN1@Allocate:

; 37   : 		_THROW_NCEE(bad_alloc, 0);

  00040	6a 00		 push	 0
  00042	8d 4d b0	 lea	 ecx, DWORD PTR $T233730[ebp]
  00045	e8 00 00 00 00	 call	 ??0bad_alloc@std@@QAE@PBD@Z ; std::bad_alloc::bad_alloc
  0004a	68 00 00 00 00	 push	 OFFSET __TI2?AVbad_alloc@std@@
  0004f	8d 45 b0	 lea	 eax, DWORD PTR $T233730[ebp]
  00052	50		 push	 eax
  00053	e8 00 00 00 00	 call	 __CxxThrowException@8
$LN3@Allocate:

; 38   : 
; 39   : 	return ((_Ty _FARQ *)_Ptr);

  00058	8b 45 fc	 mov	 eax, DWORD PTR __Ptr$[ebp]
$LN6@Allocate:

; 40   : 	}

  0005b	5f		 pop	 edi
  0005c	5e		 pop	 esi
  0005d	5b		 pop	 ebx
  0005e	8b e5		 mov	 esp, ebp
  00060	5d		 pop	 ebp
  00061	c3		 ret	 0
??$_Allocate@UGrandResetEXP@@@std@@YAPAUGrandResetEXP@@IPAU1@@Z ENDP ; std::_Allocate<GrandResetEXP>
; Function compile flags: /Odtp /ZI
_TEXT	ENDS
;	COMDAT ??$_Allocate@UGRANDSYSTEM_REWARD_DATA@@@std@@YAPAUGRANDSYSTEM_REWARD_DATA@@IPAU1@@Z
_TEXT	SEGMENT
$T233733 = -80						; size = 12
__Ptr$ = -4						; size = 4
__Count$ = 8						; size = 4
___formal$ = 12						; size = 4
??$_Allocate@UGRANDSYSTEM_REWARD_DATA@@@std@@YAPAUGRANDSYSTEM_REWARD_DATA@@IPAU1@@Z PROC ; std::_Allocate<GRANDSYSTEM_REWARD_DATA>, COMDAT

; 30   : 	{	// allocate storage for _Count elements of type _Ty

  00000	55		 push	 ebp
  00001	8b ec		 mov	 ebp, esp
  00003	83 ec 50	 sub	 esp, 80			; 00000050H
  00006	53		 push	 ebx
  00007	56		 push	 esi
  00008	57		 push	 edi

; 31   : 	void *_Ptr = 0;

  00009	c7 45 fc 00 00
	00 00		 mov	 DWORD PTR __Ptr$[ebp], 0

; 32   : 
; 33   : 	if (_Count <= 0)

  00010	83 7d 08 00	 cmp	 DWORD PTR __Count$[ebp], 0
  00014	77 09		 ja	 SHORT $LN4@Allocate@2

; 34   : 		_Count = 0;

  00016	c7 45 08 00 00
	00 00		 mov	 DWORD PTR __Count$[ebp], 0

; 35   : 	else if (((_SIZT)(-1) / sizeof (_Ty) < _Count)

  0001d	eb 39		 jmp	 SHORT $LN3@Allocate@2
$LN4@Allocate@2:

; 36   : 		|| (_Ptr = ::operator new(_Count * sizeof (_Ty))) == 0)

  0001f	81 7d 08 c7 71
	1c 07		 cmp	 DWORD PTR __Count$[ebp], 119304647 ; 071c71c7H
  00026	77 18		 ja	 SHORT $LN1@Allocate@2
  00028	8b 45 08	 mov	 eax, DWORD PTR __Count$[ebp]
  0002b	6b c0 24	 imul	 eax, 36			; 00000024H
  0002e	50		 push	 eax
  0002f	e8 00 00 00 00	 call	 ??2@YAPAXI@Z		; operator new
  00034	83 c4 04	 add	 esp, 4
  00037	89 45 fc	 mov	 DWORD PTR __Ptr$[ebp], eax
  0003a	83 7d fc 00	 cmp	 DWORD PTR __Ptr$[ebp], 0
  0003e	75 18		 jne	 SHORT $LN3@Allocate@2
$LN1@Allocate@2:

; 37   : 		_THROW_NCEE(bad_alloc, 0);

  00040	6a 00		 push	 0
  00042	8d 4d b0	 lea	 ecx, DWORD PTR $T233733[ebp]
  00045	e8 00 00 00 00	 call	 ??0bad_alloc@std@@QAE@PBD@Z ; std::bad_alloc::bad_alloc
  0004a	68 00 00 00 00	 push	 OFFSET __TI2?AVbad_alloc@std@@
  0004f	8d 45 b0	 lea	 eax, DWORD PTR $T233733[ebp]
  00052	50		 push	 eax
  00053	e8 00 00 00 00	 call	 __CxxThrowException@8
$LN3@Allocate@2:

; 38   : 
; 39   : 	return ((_Ty _FARQ *)_Ptr);

  00058	8b 45 fc	 mov	 eax, DWORD PTR __Ptr$[ebp]
$LN6@Allocate@2:

; 40   : 	}

  0005b	5f		 pop	 edi
  0005c	5e		 pop	 esi
  0005d	5b		 pop	 ebx
  0005e	8b e5		 mov	 esp, ebp
  00060	5d		 pop	 ebp
  00061	c3		 ret	 0
??$_Allocate@UGRANDSYSTEM_REWARD_DATA@@@std@@YAPAUGRANDSYSTEM_REWARD_DATA@@IPAU1@@Z ENDP ; std::_Allocate<GRANDSYSTEM_REWARD_DATA>
_TEXT	ENDS
PUBLIC	??$_Construct@UGrandResetEXP@@ABU1@@std@@YAXPAUGrandResetEXP@@ABU1@@Z ; std::_Construct<GrandResetEXP,GrandResetEXP const &>
; Function compile flags: /Odtp /ZI
;	COMDAT ?construct@?$allocator@UGrandResetEXP@@@std@@QAEXPAUGrandResetEXP@@ABU3@@Z
_TEXT	SEGMENT
_this$ = -4						; size = 4
__Ptr$ = 8						; size = 4
__Val$ = 12						; size = 4
?construct@?$allocator@UGrandResetEXP@@@std@@QAEXPAUGrandResetEXP@@ABU3@@Z PROC ; std::allocator<GrandResetEXP>::construct, COMDAT
; _this$ = ecx

; 196  : 		{	// construct object at _Ptr with value _Val

  00000	55		 push	 ebp
  00001	8b ec		 mov	 ebp, esp
  00003	83 ec 44	 sub	 esp, 68			; 00000044H
  00006	53		 push	 ebx
  00007	56		 push	 esi
  00008	57		 push	 edi
  00009	89 4d fc	 mov	 DWORD PTR _this$[ebp], ecx

; 197  : 		_Construct(_Ptr, _Val);

  0000c	8b 45 0c	 mov	 eax, DWORD PTR __Val$[ebp]
  0000f	50		 push	 eax
  00010	8b 4d 08	 mov	 ecx, DWORD PTR __Ptr$[ebp]
  00013	51		 push	 ecx
  00014	e8 00 00 00 00	 call	 ??$_Construct@UGrandResetEXP@@ABU1@@std@@YAXPAUGrandResetEXP@@ABU1@@Z ; std::_Construct<GrandResetEXP,GrandResetEXP const &>
  00019	83 c4 08	 add	 esp, 8

; 198  : 		}

  0001c	5f		 pop	 edi
  0001d	5e		 pop	 esi
  0001e	5b		 pop	 ebx
  0001f	8b e5		 mov	 esp, ebp
  00021	5d		 pop	 ebp
  00022	c2 08 00	 ret	 8
?construct@?$allocator@UGrandResetEXP@@@std@@QAEXPAUGrandResetEXP@@ABU3@@Z ENDP ; std::allocator<GrandResetEXP>::construct
_TEXT	ENDS
PUBLIC	??$_Construct@UGRANDSYSTEM_REWARD_DATA@@ABU1@@std@@YAXPAUGRANDSYSTEM_REWARD_DATA@@ABU1@@Z ; std::_Construct<GRANDSYSTEM_REWARD_DATA,GRANDSYSTEM_REWARD_DATA const &>
; Function compile flags: /Odtp /ZI
;	COMDAT ?construct@?$allocator@UGRANDSYSTEM_REWARD_DATA@@@std@@QAEXPAUGRANDSYSTEM_REWARD_DATA@@ABU3@@Z
_TEXT	SEGMENT
_this$ = -4						; size = 4
__Ptr$ = 8						; size = 4
__Val$ = 12						; size = 4
?construct@?$allocator@UGRANDSYSTEM_REWARD_DATA@@@std@@QAEXPAUGRANDSYSTEM_REWARD_DATA@@ABU3@@Z PROC ; std::allocator<GRANDSYSTEM_REWARD_DATA>::construct, COMDAT
; _this$ = ecx

; 196  : 		{	// construct object at _Ptr with value _Val

  00000	55		 push	 ebp
  00001	8b ec		 mov	 ebp, esp
  00003	83 ec 44	 sub	 esp, 68			; 00000044H
  00006	53		 push	 ebx
  00007	56		 push	 esi
  00008	57		 push	 edi
  00009	89 4d fc	 mov	 DWORD PTR _this$[ebp], ecx

; 197  : 		_Construct(_Ptr, _Val);

  0000c	8b 45 0c	 mov	 eax, DWORD PTR __Val$[ebp]
  0000f	50		 push	 eax
  00010	8b 4d 08	 mov	 ecx, DWORD PTR __Ptr$[ebp]
  00013	51		 push	 ecx
  00014	e8 00 00 00 00	 call	 ??$_Construct@UGRANDSYSTEM_REWARD_DATA@@ABU1@@std@@YAXPAUGRANDSYSTEM_REWARD_DATA@@ABU1@@Z ; std::_Construct<GRANDSYSTEM_REWARD_DATA,GRANDSYSTEM_REWARD_DATA const &>
  00019	83 c4 08	 add	 esp, 8

; 198  : 		}

  0001c	5f		 pop	 edi
  0001d	5e		 pop	 esi
  0001e	5b		 pop	 ebx
  0001f	8b e5		 mov	 esp, ebp
  00021	5d		 pop	 ebp
  00022	c2 08 00	 ret	 8
?construct@?$allocator@UGRANDSYSTEM_REWARD_DATA@@@std@@QAEXPAUGRANDSYSTEM_REWARD_DATA@@ABU3@@Z ENDP ; std::allocator<GRANDSYSTEM_REWARD_DATA>::construct
; Function compile flags: /Odtp /ZI
; File d:\microsoft visual studio 10.0\vc\include\utility
_TEXT	ENDS
;	COMDAT ??$forward@AAUGrandResetEXP@@@std@@YAAAUGrandResetEXP@@AAU1@@Z
_TEXT	SEGMENT
__Arg$ = 8						; size = 4
??$forward@AAUGrandResetEXP@@@std@@YAAAUGrandResetEXP@@AAU1@@Z PROC ; std::forward<GrandResetEXP &>, COMDAT

; 78   : 	{	// forward _Arg, given explicitly specified type parameter

  00000	55		 push	 ebp
  00001	8b ec		 mov	 ebp, esp
  00003	83 ec 40	 sub	 esp, 64			; 00000040H
  00006	53		 push	 ebx
  00007	56		 push	 esi
  00008	57		 push	 edi

; 79   : 	return ((_Ty&&)_Arg);

  00009	8b 45 08	 mov	 eax, DWORD PTR __Arg$[ebp]

; 80   : 	}

  0000c	5f		 pop	 edi
  0000d	5e		 pop	 esi
  0000e	5b		 pop	 ebx
  0000f	8b e5		 mov	 esp, ebp
  00011	5d		 pop	 ebp
  00012	c3		 ret	 0
??$forward@AAUGrandResetEXP@@@std@@YAAAUGrandResetEXP@@AAU1@@Z ENDP ; std::forward<GrandResetEXP &>
_TEXT	ENDS
PUBLIC	??3@YAXPAX0@Z					; operator delete
PUBLIC	??2@YAPAXIPAX@Z					; operator new
;	COMDAT xdata$x
; File d:\microsoft visual studio 10.0\vc\include\xmemory
xdata$x	SEGMENT
__unwindtable$??$construct@AAUGrandResetEXP@@@?$allocator@UGrandResetEXP@@@std@@QAEXPAUGrandResetEXP@@AAU2@@Z DD 0ffffffffH
	DD	FLAT:__unwindfunclet$??$construct@AAUGrandResetEXP@@@?$allocator@UGrandResetEXP@@@std@@QAEXPAUGrandResetEXP@@AAU2@@Z$0
__ehfuncinfo$??$construct@AAUGrandResetEXP@@@?$allocator@UGrandResetEXP@@@std@@QAEXPAUGrandResetEXP@@AAU2@@Z DD 019930522H
	DD	01H
	DD	FLAT:__unwindtable$??$construct@AAUGrandResetEXP@@@?$allocator@UGrandResetEXP@@@std@@QAEXPAUGrandResetEXP@@AAU2@@Z
	DD	2 DUP(00H)
	DD	2 DUP(00H)
	DD	00H
	DD	01H
; Function compile flags: /Odtp /ZI
xdata$x	ENDS
;	COMDAT ??$construct@AAUGrandResetEXP@@@?$allocator@UGrandResetEXP@@@std@@QAEXPAUGrandResetEXP@@AAU2@@Z
_TEXT	SEGMENT
tv74 = -92						; size = 4
$T233742 = -88						; size = 4
$T233743 = -84						; size = 4
_this$ = -16						; size = 4
__$EHRec$ = -12						; size = 12
__Ptr$ = 8						; size = 4
__Val$ = 12						; size = 4
??$construct@AAUGrandResetEXP@@@?$allocator@UGrandResetEXP@@@std@@QAEXPAUGrandResetEXP@@AAU2@@Z PROC ; std::allocator<GrandResetEXP>::construct<GrandResetEXP &>, COMDAT
; _this$ = ecx

; 206  : 		void construct(pointer _Ptr, _Other&& _Val)

  00000	55		 push	 ebp
  00001	8b ec		 mov	 ebp, esp
  00003	6a ff		 push	 -1
  00005	68 00 00 00 00	 push	 __ehhandler$??$construct@AAUGrandResetEXP@@@?$allocator@UGrandResetEXP@@@std@@QAEXPAUGrandResetEXP@@AAU2@@Z
  0000a	64 a1 00 00 00
	00		 mov	 eax, DWORD PTR fs:0
  00010	50		 push	 eax
  00011	83 ec 50	 sub	 esp, 80			; 00000050H
  00014	53		 push	 ebx
  00015	56		 push	 esi
  00016	57		 push	 edi
  00017	a1 00 00 00 00	 mov	 eax, DWORD PTR ___security_cookie
  0001c	33 c5		 xor	 eax, ebp
  0001e	50		 push	 eax
  0001f	8d 45 f4	 lea	 eax, DWORD PTR __$EHRec$[ebp]
  00022	64 a3 00 00 00
	00		 mov	 DWORD PTR fs:0, eax
  00028	89 4d f0	 mov	 DWORD PTR _this$[ebp], ecx

; 207  : 		{	// construct object at _Ptr with value _Val
; 208  : 		::new ((void _FARQ *)_Ptr) _Ty(_STD forward<_Other>(_Val));

  0002b	8b 45 08	 mov	 eax, DWORD PTR __Ptr$[ebp]
  0002e	50		 push	 eax
  0002f	6a 08		 push	 8
  00031	e8 00 00 00 00	 call	 ??2@YAPAXIPAX@Z		; operator new
  00036	83 c4 08	 add	 esp, 8
  00039	89 45 ac	 mov	 DWORD PTR $T233743[ebp], eax
  0003c	c7 45 fc 00 00
	00 00		 mov	 DWORD PTR __$EHRec$[ebp+8], 0
  00043	83 7d ac 00	 cmp	 DWORD PTR $T233743[ebp], 0
  00047	74 21		 je	 SHORT $LN3@construct
  00049	8b 4d 0c	 mov	 ecx, DWORD PTR __Val$[ebp]
  0004c	51		 push	 ecx
  0004d	e8 00 00 00 00	 call	 ??$forward@AAUGrandResetEXP@@@std@@YAAAUGrandResetEXP@@AAU1@@Z ; std::forward<GrandResetEXP &>
  00052	83 c4 04	 add	 esp, 4
  00055	8b 10		 mov	 edx, DWORD PTR [eax]
  00057	8b 40 04	 mov	 eax, DWORD PTR [eax+4]
  0005a	8b 4d ac	 mov	 ecx, DWORD PTR $T233743[ebp]
  0005d	89 11		 mov	 DWORD PTR [ecx], edx
  0005f	89 41 04	 mov	 DWORD PTR [ecx+4], eax
  00062	8b 55 ac	 mov	 edx, DWORD PTR $T233743[ebp]
  00065	89 55 a4	 mov	 DWORD PTR tv74[ebp], edx
  00068	eb 07		 jmp	 SHORT $LN4@construct
$LN3@construct:
  0006a	c7 45 a4 00 00
	00 00		 mov	 DWORD PTR tv74[ebp], 0
$LN4@construct:
  00071	8b 45 a4	 mov	 eax, DWORD PTR tv74[ebp]
  00074	89 45 a8	 mov	 DWORD PTR $T233742[ebp], eax
  00077	c7 45 fc ff ff
	ff ff		 mov	 DWORD PTR __$EHRec$[ebp+8], -1

; 209  : 		}

  0007e	8b 4d f4	 mov	 ecx, DWORD PTR __$EHRec$[ebp]
  00081	64 89 0d 00 00
	00 00		 mov	 DWORD PTR fs:0, ecx
  00088	59		 pop	 ecx
  00089	5f		 pop	 edi
  0008a	5e		 pop	 esi
  0008b	5b		 pop	 ebx
  0008c	8b e5		 mov	 esp, ebp
  0008e	5d		 pop	 ebp
  0008f	c2 08 00	 ret	 8
_TEXT	ENDS
;	COMDAT text$x
text$x	SEGMENT
__unwindfunclet$??$construct@AAUGrandResetEXP@@@?$allocator@UGrandResetEXP@@@std@@QAEXPAUGrandResetEXP@@AAU2@@Z$0:
  00000	8b 45 08	 mov	 eax, DWORD PTR __Ptr$[ebp]
  00003	50		 push	 eax
  00004	8b 4d ac	 mov	 ecx, DWORD PTR $T233743[ebp]
  00007	51		 push	 ecx
  00008	e8 00 00 00 00	 call	 ??3@YAXPAX0@Z		; operator delete
  0000d	83 c4 08	 add	 esp, 8
  00010	c3		 ret	 0
__ehhandler$??$construct@AAUGrandResetEXP@@@?$allocator@UGrandResetEXP@@@std@@QAEXPAUGrandResetEXP@@AAU2@@Z:
  00011	8b 54 24 08	 mov	 edx, DWORD PTR [esp+8]
  00015	8d 42 0c	 lea	 eax, DWORD PTR [edx+12]
  00018	8b 4a a0	 mov	 ecx, DWORD PTR [edx-96]
  0001b	33 c8		 xor	 ecx, eax
  0001d	e8 00 00 00 00	 call	 @__security_check_cookie@4
  00022	b8 00 00 00 00	 mov	 eax, OFFSET __ehfuncinfo$??$construct@AAUGrandResetEXP@@@?$allocator@UGrandResetEXP@@@std@@QAEXPAUGrandResetEXP@@AAU2@@Z
  00027	e9 00 00 00 00	 jmp	 ___CxxFrameHandler3
text$x	ENDS
??$construct@AAUGrandResetEXP@@@?$allocator@UGrandResetEXP@@@std@@QAEXPAUGrandResetEXP@@AAU2@@Z ENDP ; std::allocator<GrandResetEXP>::construct<GrandResetEXP &>
; Function compile flags: /Odtp /ZI
; File d:\microsoft visual studio 10.0\vc\include\new.h
;	COMDAT ??2@YAPAXIPAX@Z
_TEXT	SEGMENT
___formal$ = 8						; size = 4
__Where$ = 12						; size = 4
??2@YAPAXIPAX@Z PROC					; operator new, COMDAT

; 81   :         {return (_Where); }

  00000	55		 push	 ebp
  00001	8b ec		 mov	 ebp, esp
  00003	83 ec 40	 sub	 esp, 64			; 00000040H
  00006	53		 push	 ebx
  00007	56		 push	 esi
  00008	57		 push	 edi
  00009	8b 45 0c	 mov	 eax, DWORD PTR __Where$[ebp]
  0000c	5f		 pop	 edi
  0000d	5e		 pop	 esi
  0000e	5b		 pop	 ebx
  0000f	8b e5		 mov	 esp, ebp
  00011	5d		 pop	 ebp
  00012	c3		 ret	 0
??2@YAPAXIPAX@Z ENDP					; operator new
; Function compile flags: /Odtp /ZI
_TEXT	ENDS
;	COMDAT ??3@YAXPAX0@Z
_TEXT	SEGMENT
___formal$ = 8						; size = 4
___formal$ = 12						; size = 4
??3@YAXPAX0@Z PROC					; operator delete, COMDAT

; 83   :         {return; }

  00000	55		 push	 ebp
  00001	8b ec		 mov	 ebp, esp
  00003	83 ec 40	 sub	 esp, 64			; 00000040H
  00006	53		 push	 ebx
  00007	56		 push	 esi
  00008	57		 push	 edi
  00009	5f		 pop	 edi
  0000a	5e		 pop	 esi
  0000b	5b		 pop	 ebx
  0000c	8b e5		 mov	 esp, ebp
  0000e	5d		 pop	 ebp
  0000f	c3		 ret	 0
??3@YAXPAX0@Z ENDP					; operator delete
; Function compile flags: /Odtp /ZI
; File d:\microsoft visual studio 10.0\vc\include\utility
_TEXT	ENDS
;	COMDAT ??$forward@ABUGrandResetEXP@@@std@@YAABUGrandResetEXP@@ABU1@@Z
_TEXT	SEGMENT
__Arg$ = 8						; size = 4
??$forward@ABUGrandResetEXP@@@std@@YAABUGrandResetEXP@@ABU1@@Z PROC ; std::forward<GrandResetEXP const &>, COMDAT

; 78   : 	{	// forward _Arg, given explicitly specified type parameter

  00000	55		 push	 ebp
  00001	8b ec		 mov	 ebp, esp
  00003	83 ec 40	 sub	 esp, 64			; 00000040H
  00006	53		 push	 ebx
  00007	56		 push	 esi
  00008	57		 push	 edi

; 79   : 	return ((_Ty&&)_Arg);

  00009	8b 45 08	 mov	 eax, DWORD PTR __Arg$[ebp]

; 80   : 	}

  0000c	5f		 pop	 edi
  0000d	5e		 pop	 esi
  0000e	5b		 pop	 ebx
  0000f	8b e5		 mov	 esp, ebp
  00011	5d		 pop	 ebp
  00012	c3		 ret	 0
??$forward@ABUGrandResetEXP@@@std@@YAABUGrandResetEXP@@ABU1@@Z ENDP ; std::forward<GrandResetEXP const &>
; Function compile flags: /Odtp /ZI
_TEXT	ENDS
;	COMDAT ??$forward@AAUGRANDSYSTEM_REWARD_DATA@@@std@@YAAAUGRANDSYSTEM_REWARD_DATA@@AAU1@@Z
_TEXT	SEGMENT
__Arg$ = 8						; size = 4
??$forward@AAUGRANDSYSTEM_REWARD_DATA@@@std@@YAAAUGRANDSYSTEM_REWARD_DATA@@AAU1@@Z PROC ; std::forward<GRANDSYSTEM_REWARD_DATA &>, COMDAT

; 78   : 	{	// forward _Arg, given explicitly specified type parameter

  00000	55		 push	 ebp
  00001	8b ec		 mov	 ebp, esp
  00003	83 ec 40	 sub	 esp, 64			; 00000040H
  00006	53		 push	 ebx
  00007	56		 push	 esi
  00008	57		 push	 edi

; 79   : 	return ((_Ty&&)_Arg);

  00009	8b 45 08	 mov	 eax, DWORD PTR __Arg$[ebp]

; 80   : 	}

  0000c	5f		 pop	 edi
  0000d	5e		 pop	 esi
  0000e	5b		 pop	 ebx
  0000f	8b e5		 mov	 esp, ebp
  00011	5d		 pop	 ebp
  00012	c3		 ret	 0
??$forward@AAUGRANDSYSTEM_REWARD_DATA@@@std@@YAAAUGRANDSYSTEM_REWARD_DATA@@AAU1@@Z ENDP ; std::forward<GRANDSYSTEM_REWARD_DATA &>
_TEXT	ENDS
;	COMDAT xdata$x
; File d:\microsoft visual studio 10.0\vc\include\xmemory
xdata$x	SEGMENT
__unwindtable$??$construct@AAUGRANDSYSTEM_REWARD_DATA@@@?$allocator@UGRANDSYSTEM_REWARD_DATA@@@std@@QAEXPAUGRANDSYSTEM_REWARD_DATA@@AAU2@@Z DD 0ffffffffH
	DD	FLAT:__unwindfunclet$??$construct@AAUGRANDSYSTEM_REWARD_DATA@@@?$allocator@UGRANDSYSTEM_REWARD_DATA@@@std@@QAEXPAUGRANDSYSTEM_REWARD_DATA@@AAU2@@Z$0
__ehfuncinfo$??$construct@AAUGRANDSYSTEM_REWARD_DATA@@@?$allocator@UGRANDSYSTEM_REWARD_DATA@@@std@@QAEXPAUGRANDSYSTEM_REWARD_DATA@@AAU2@@Z DD 019930522H
	DD	01H
	DD	FLAT:__unwindtable$??$construct@AAUGRANDSYSTEM_REWARD_DATA@@@?$allocator@UGRANDSYSTEM_REWARD_DATA@@@std@@QAEXPAUGRANDSYSTEM_REWARD_DATA@@AAU2@@Z
	DD	2 DUP(00H)
	DD	2 DUP(00H)
	DD	00H
	DD	01H
; Function compile flags: /Odtp /ZI
xdata$x	ENDS
;	COMDAT ??$construct@AAUGRANDSYSTEM_REWARD_DATA@@@?$allocator@UGRANDSYSTEM_REWARD_DATA@@@std@@QAEXPAUGRANDSYSTEM_REWARD_DATA@@AAU2@@Z
_TEXT	SEGMENT
tv74 = -92						; size = 4
$T233763 = -88						; size = 4
$T233764 = -84						; size = 4
_this$ = -16						; size = 4
__$EHRec$ = -12						; size = 12
__Ptr$ = 8						; size = 4
__Val$ = 12						; size = 4
??$construct@AAUGRANDSYSTEM_REWARD_DATA@@@?$allocator@UGRANDSYSTEM_REWARD_DATA@@@std@@QAEXPAUGRANDSYSTEM_REWARD_DATA@@AAU2@@Z PROC ; std::allocator<GRANDSYSTEM_REWARD_DATA>::construct<GRANDSYSTEM_REWARD_DATA &>, COMDAT
; _this$ = ecx

; 206  : 		void construct(pointer _Ptr, _Other&& _Val)

  00000	55		 push	 ebp
  00001	8b ec		 mov	 ebp, esp
  00003	6a ff		 push	 -1
  00005	68 00 00 00 00	 push	 __ehhandler$??$construct@AAUGRANDSYSTEM_REWARD_DATA@@@?$allocator@UGRANDSYSTEM_REWARD_DATA@@@std@@QAEXPAUGRANDSYSTEM_REWARD_DATA@@AAU2@@Z
  0000a	64 a1 00 00 00
	00		 mov	 eax, DWORD PTR fs:0
  00010	50		 push	 eax
  00011	83 ec 50	 sub	 esp, 80			; 00000050H
  00014	53		 push	 ebx
  00015	56		 push	 esi
  00016	57		 push	 edi
  00017	a1 00 00 00 00	 mov	 eax, DWORD PTR ___security_cookie
  0001c	33 c5		 xor	 eax, ebp
  0001e	50		 push	 eax
  0001f	8d 45 f4	 lea	 eax, DWORD PTR __$EHRec$[ebp]
  00022	64 a3 00 00 00
	00		 mov	 DWORD PTR fs:0, eax
  00028	89 4d f0	 mov	 DWORD PTR _this$[ebp], ecx

; 207  : 		{	// construct object at _Ptr with value _Val
; 208  : 		::new ((void _FARQ *)_Ptr) _Ty(_STD forward<_Other>(_Val));

  0002b	8b 45 08	 mov	 eax, DWORD PTR __Ptr$[ebp]
  0002e	50		 push	 eax
  0002f	6a 24		 push	 36			; 00000024H
  00031	e8 00 00 00 00	 call	 ??2@YAPAXIPAX@Z		; operator new
  00036	83 c4 08	 add	 esp, 8
  00039	89 45 ac	 mov	 DWORD PTR $T233764[ebp], eax
  0003c	c7 45 fc 00 00
	00 00		 mov	 DWORD PTR __$EHRec$[ebp+8], 0
  00043	83 7d ac 00	 cmp	 DWORD PTR $T233764[ebp], 0
  00047	74 20		 je	 SHORT $LN3@construct@2
  00049	8b 4d 0c	 mov	 ecx, DWORD PTR __Val$[ebp]
  0004c	51		 push	 ecx
  0004d	e8 00 00 00 00	 call	 ??$forward@AAUGRANDSYSTEM_REWARD_DATA@@@std@@YAAAUGRANDSYSTEM_REWARD_DATA@@AAU1@@Z ; std::forward<GRANDSYSTEM_REWARD_DATA &>
  00052	83 c4 04	 add	 esp, 4
  00055	b9 09 00 00 00	 mov	 ecx, 9
  0005a	8b f0		 mov	 esi, eax
  0005c	8b 7d ac	 mov	 edi, DWORD PTR $T233764[ebp]
  0005f	f3 a5		 rep movsd
  00061	8b 55 ac	 mov	 edx, DWORD PTR $T233764[ebp]
  00064	89 55 a4	 mov	 DWORD PTR tv74[ebp], edx
  00067	eb 07		 jmp	 SHORT $LN4@construct@2
$LN3@construct@2:
  00069	c7 45 a4 00 00
	00 00		 mov	 DWORD PTR tv74[ebp], 0
$LN4@construct@2:
  00070	8b 45 a4	 mov	 eax, DWORD PTR tv74[ebp]
  00073	89 45 a8	 mov	 DWORD PTR $T233763[ebp], eax
  00076	c7 45 fc ff ff
	ff ff		 mov	 DWORD PTR __$EHRec$[ebp+8], -1

; 209  : 		}

  0007d	8b 4d f4	 mov	 ecx, DWORD PTR __$EHRec$[ebp]
  00080	64 89 0d 00 00
	00 00		 mov	 DWORD PTR fs:0, ecx
  00087	59		 pop	 ecx
  00088	5f		 pop	 edi
  00089	5e		 pop	 esi
  0008a	5b		 pop	 ebx
  0008b	8b e5		 mov	 esp, ebp
  0008d	5d		 pop	 ebp
  0008e	c2 08 00	 ret	 8
_TEXT	ENDS
;	COMDAT text$x
text$x	SEGMENT
__unwindfunclet$??$construct@AAUGRANDSYSTEM_REWARD_DATA@@@?$allocator@UGRANDSYSTEM_REWARD_DATA@@@std@@QAEXPAUGRANDSYSTEM_REWARD_DATA@@AAU2@@Z$0:
  00000	8b 45 08	 mov	 eax, DWORD PTR __Ptr$[ebp]
  00003	50		 push	 eax
  00004	8b 4d ac	 mov	 ecx, DWORD PTR $T233764[ebp]
  00007	51		 push	 ecx
  00008	e8 00 00 00 00	 call	 ??3@YAXPAX0@Z		; operator delete
  0000d	83 c4 08	 add	 esp, 8
  00010	c3		 ret	 0
__ehhandler$??$construct@AAUGRANDSYSTEM_REWARD_DATA@@@?$allocator@UGRANDSYSTEM_REWARD_DATA@@@std@@QAEXPAUGRANDSYSTEM_REWARD_DATA@@AAU2@@Z:
  00011	8b 54 24 08	 mov	 edx, DWORD PTR [esp+8]
  00015	8d 42 0c	 lea	 eax, DWORD PTR [edx+12]
  00018	8b 4a a0	 mov	 ecx, DWORD PTR [edx-96]
  0001b	33 c8		 xor	 ecx, eax
  0001d	e8 00 00 00 00	 call	 @__security_check_cookie@4
  00022	b8 00 00 00 00	 mov	 eax, OFFSET __ehfuncinfo$??$construct@AAUGRANDSYSTEM_REWARD_DATA@@@?$allocator@UGRANDSYSTEM_REWARD_DATA@@@std@@QAEXPAUGRANDSYSTEM_REWARD_DATA@@AAU2@@Z
  00027	e9 00 00 00 00	 jmp	 ___CxxFrameHandler3
text$x	ENDS
??$construct@AAUGRANDSYSTEM_REWARD_DATA@@@?$allocator@UGRANDSYSTEM_REWARD_DATA@@@std@@QAEXPAUGRANDSYSTEM_REWARD_DATA@@AAU2@@Z ENDP ; std::allocator<GRANDSYSTEM_REWARD_DATA>::construct<GRANDSYSTEM_REWARD_DATA &>
; Function compile flags: /Odtp /ZI
; File d:\microsoft visual studio 10.0\vc\include\utility
;	COMDAT ??$forward@ABUGRANDSYSTEM_REWARD_DATA@@@std@@YAABUGRANDSYSTEM_REWARD_DATA@@ABU1@@Z
_TEXT	SEGMENT
__Arg$ = 8						; size = 4
??$forward@ABUGRANDSYSTEM_REWARD_DATA@@@std@@YAABUGRANDSYSTEM_REWARD_DATA@@ABU1@@Z PROC ; std::forward<GRANDSYSTEM_REWARD_DATA const &>, COMDAT

; 78   : 	{	// forward _Arg, given explicitly specified type parameter

  00000	55		 push	 ebp
  00001	8b ec		 mov	 ebp, esp
  00003	83 ec 40	 sub	 esp, 64			; 00000040H
  00006	53		 push	 ebx
  00007	56		 push	 esi
  00008	57		 push	 edi

; 79   : 	return ((_Ty&&)_Arg);

  00009	8b 45 08	 mov	 eax, DWORD PTR __Arg$[ebp]

; 80   : 	}

  0000c	5f		 pop	 edi
  0000d	5e		 pop	 esi
  0000e	5b		 pop	 ebx
  0000f	8b e5		 mov	 esp, ebp
  00011	5d		 pop	 ebp
  00012	c3		 ret	 0
??$forward@ABUGRANDSYSTEM_REWARD_DATA@@@std@@YAABUGRANDSYSTEM_REWARD_DATA@@ABU1@@Z ENDP ; std::forward<GRANDSYSTEM_REWARD_DATA const &>
; Function compile flags: /Odtp /ZI
; File d:\microsoft visual studio 10.0\vc\include\xutility
_TEXT	ENDS
;	COMDAT ??$_Ptr_cat@UGrandResetEXP@@U1@@std@@YA?AU_Nonscalar_ptr_iterator_tag@0@PAUGrandResetEXP@@0@Z
_TEXT	SEGMENT
__Cat$ = -1						; size = 1
___formal$ = 8						; size = 4
___formal$ = 12						; size = 4
??$_Ptr_cat@UGrandResetEXP@@U1@@std@@YA?AU_Nonscalar_ptr_iterator_tag@0@PAUGrandResetEXP@@0@Z PROC ; std::_Ptr_cat<GrandResetEXP,GrandResetEXP>, COMDAT

; 516  : 	{	// return pointer category from pointers

  00000	55		 push	 ebp
  00001	8b ec		 mov	 ebp, esp
  00003	83 ec 44	 sub	 esp, 68			; 00000044H
  00006	53		 push	 ebx
  00007	56		 push	 esi
  00008	57		 push	 edi

; 517  : 	typename _Ptr_cat_helper<_Elem1, _Elem2>::_Type _Cat;
; 518  : 	return (_Cat);

  00009	8a 45 ff	 mov	 al, BYTE PTR __Cat$[ebp]

; 519  : 	}

  0000c	5f		 pop	 edi
  0000d	5e		 pop	 esi
  0000e	5b		 pop	 ebx
  0000f	8b e5		 mov	 esp, ebp
  00011	5d		 pop	 ebp
  00012	c3		 ret	 0
??$_Ptr_cat@UGrandResetEXP@@U1@@std@@YA?AU_Nonscalar_ptr_iterator_tag@0@PAUGrandResetEXP@@0@Z ENDP ; std::_Ptr_cat<GrandResetEXP,GrandResetEXP>
_TEXT	ENDS
PUBLIC	??$move@AAUGrandResetEXP@@@std@@YA$$QAUGrandResetEXP@@AAU1@@Z ; std::move<GrandResetEXP &>
; Function compile flags: /Odtp /ZI
;	COMDAT ??$_Move@PAUGrandResetEXP@@PAU1@@std@@YAPAUGrandResetEXP@@PAU1@00U_Nonscalar_ptr_iterator_tag@0@@Z
_TEXT	SEGMENT
__First$ = 8						; size = 4
__Last$ = 12						; size = 4
__Dest$ = 16						; size = 4
___formal$ = 20						; size = 1
??$_Move@PAUGrandResetEXP@@PAU1@@std@@YAPAUGrandResetEXP@@PAU1@00U_Nonscalar_ptr_iterator_tag@0@@Z PROC ; std::_Move<GrandResetEXP *,GrandResetEXP *>, COMDAT

; 2512 : 	{	// move [_First, _Last) to [_Dest, ...), arbitrary iterators

  00000	55		 push	 ebp
  00001	8b ec		 mov	 ebp, esp
  00003	83 ec 40	 sub	 esp, 64			; 00000040H
  00006	53		 push	 ebx
  00007	56		 push	 esi
  00008	57		 push	 edi

; 2513 : 	for (; _First != _Last; ++_Dest, ++_First)

  00009	eb 12		 jmp	 SHORT $LN3@Move
$LN2@Move:
  0000b	8b 45 10	 mov	 eax, DWORD PTR __Dest$[ebp]
  0000e	83 c0 08	 add	 eax, 8
  00011	89 45 10	 mov	 DWORD PTR __Dest$[ebp], eax
  00014	8b 4d 08	 mov	 ecx, DWORD PTR __First$[ebp]
  00017	83 c1 08	 add	 ecx, 8
  0001a	89 4d 08	 mov	 DWORD PTR __First$[ebp], ecx
$LN3@Move:
  0001d	8b 45 08	 mov	 eax, DWORD PTR __First$[ebp]
  00020	3b 45 0c	 cmp	 eax, DWORD PTR __Last$[ebp]
  00023	74 1b		 je	 SHORT $LN1@Move

; 2514 : 		*_Dest = _STD move(*_First);

  00025	8b 45 08	 mov	 eax, DWORD PTR __First$[ebp]
  00028	50		 push	 eax
  00029	e8 00 00 00 00	 call	 ??$move@AAUGrandResetEXP@@@std@@YA$$QAUGrandResetEXP@@AAU1@@Z ; std::move<GrandResetEXP &>
  0002e	83 c4 04	 add	 esp, 4
  00031	8b 08		 mov	 ecx, DWORD PTR [eax]
  00033	8b 50 04	 mov	 edx, DWORD PTR [eax+4]
  00036	8b 45 10	 mov	 eax, DWORD PTR __Dest$[ebp]
  00039	89 08		 mov	 DWORD PTR [eax], ecx
  0003b	89 50 04	 mov	 DWORD PTR [eax+4], edx
  0003e	eb cb		 jmp	 SHORT $LN2@Move
$LN1@Move:

; 2515 : 	return (_Dest);

  00040	8b 45 10	 mov	 eax, DWORD PTR __Dest$[ebp]

; 2516 : 	}

  00043	5f		 pop	 edi
  00044	5e		 pop	 esi
  00045	5b		 pop	 ebx
  00046	8b e5		 mov	 esp, ebp
  00048	5d		 pop	 ebp
  00049	c3		 ret	 0
??$_Move@PAUGrandResetEXP@@PAU1@@std@@YAPAUGrandResetEXP@@PAU1@00U_Nonscalar_ptr_iterator_tag@0@@Z ENDP ; std::_Move<GrandResetEXP *,GrandResetEXP *>
_TEXT	ENDS
PUBLIC	??$_Uninit_move@PAUGrandResetEXP@@PAU1@V?$allocator@UGrandResetEXP@@@std@@U1@@std@@YAPAUGrandResetEXP@@PAU1@00AAV?$allocator@UGrandResetEXP@@@0@0U_Nonscalar_ptr_iterator_tag@0@@Z ; std::_Uninit_move<GrandResetEXP *,GrandResetEXP *,std::allocator<GrandResetEXP>,GrandResetEXP>
PUBLIC	??$_Val_type@PAUGrandResetEXP@@@std@@YAPAUGrandResetEXP@@PAU1@@Z ; std::_Val_type<GrandResetEXP *>
; Function compile flags: /Odtp /ZI
; File d:\microsoft visual studio 10.0\vc\include\memory
;	COMDAT ??$_Uninitialized_move@PAUGrandResetEXP@@PAU1@V?$allocator@UGrandResetEXP@@@std@@@std@@YAPAUGrandResetEXP@@PAU1@00AAV?$allocator@UGrandResetEXP@@@0@@Z
_TEXT	SEGMENT
$T233782 = -65						; size = 1
__First$ = 8						; size = 4
__Last$ = 12						; size = 4
__Dest$ = 16						; size = 4
__Al$ = 20						; size = 4
??$_Uninitialized_move@PAUGrandResetEXP@@PAU1@V?$allocator@UGrandResetEXP@@@std@@@std@@YAPAUGrandResetEXP@@PAU1@00AAV?$allocator@UGrandResetEXP@@@0@@Z PROC ; std::_Uninitialized_move<GrandResetEXP *,GrandResetEXP *,std::allocator<GrandResetEXP> >, COMDAT

; 469  : 	{	// move [_First, _Last) to raw _Dest, using _Al

  00000	55		 push	 ebp
  00001	8b ec		 mov	 ebp, esp
  00003	83 ec 44	 sub	 esp, 68			; 00000044H
  00006	53		 push	 ebx
  00007	56		 push	 esi
  00008	57		 push	 edi

; 470  : 	return (_Uninit_move(_First, _Last, _Dest, _Al,
; 471  : 		_Val_type(_First), _Ptr_cat(_First, _Dest)));

  00009	8b 45 10	 mov	 eax, DWORD PTR __Dest$[ebp]
  0000c	50		 push	 eax
  0000d	8b 4d 08	 mov	 ecx, DWORD PTR __First$[ebp]
  00010	51		 push	 ecx
  00011	e8 00 00 00 00	 call	 ??$_Ptr_cat@UGrandResetEXP@@U1@@std@@YA?AU_Nonscalar_ptr_iterator_tag@0@PAUGrandResetEXP@@0@Z ; std::_Ptr_cat<GrandResetEXP,GrandResetEXP>
  00016	83 c4 08	 add	 esp, 8
  00019	88 45 bf	 mov	 BYTE PTR $T233782[ebp], al
  0001c	0f b6 55 bf	 movzx	 edx, BYTE PTR $T233782[ebp]
  00020	52		 push	 edx
  00021	8b 45 08	 mov	 eax, DWORD PTR __First$[ebp]
  00024	50		 push	 eax
  00025	e8 00 00 00 00	 call	 ??$_Val_type@PAUGrandResetEXP@@@std@@YAPAUGrandResetEXP@@PAU1@@Z ; std::_Val_type<GrandResetEXP *>
  0002a	83 c4 04	 add	 esp, 4
  0002d	50		 push	 eax
  0002e	8b 4d 14	 mov	 ecx, DWORD PTR __Al$[ebp]
  00031	51		 push	 ecx
  00032	8b 55 10	 mov	 edx, DWORD PTR __Dest$[ebp]
  00035	52		 push	 edx
  00036	8b 45 0c	 mov	 eax, DWORD PTR __Last$[ebp]
  00039	50		 push	 eax
  0003a	8b 4d 08	 mov	 ecx, DWORD PTR __First$[ebp]
  0003d	51		 push	 ecx
  0003e	e8 00 00 00 00	 call	 ??$_Uninit_move@PAUGrandResetEXP@@PAU1@V?$allocator@UGrandResetEXP@@@std@@U1@@std@@YAPAUGrandResetEXP@@PAU1@00AAV?$allocator@UGrandResetEXP@@@0@0U_Nonscalar_ptr_iterator_tag@0@@Z ; std::_Uninit_move<GrandResetEXP *,GrandResetEXP *,std::allocator<GrandResetEXP>,GrandResetEXP>
  00043	83 c4 18	 add	 esp, 24			; 00000018H

; 472  : 	}

  00046	5f		 pop	 edi
  00047	5e		 pop	 esi
  00048	5b		 pop	 ebx
  00049	8b e5		 mov	 esp, ebp
  0004b	5d		 pop	 ebp
  0004c	c3		 ret	 0
??$_Uninitialized_move@PAUGrandResetEXP@@PAU1@V?$allocator@UGrandResetEXP@@@std@@@std@@YAPAUGrandResetEXP@@PAU1@00AAV?$allocator@UGrandResetEXP@@@0@@Z ENDP ; std::_Uninitialized_move<GrandResetEXP *,GrandResetEXP *,std::allocator<GrandResetEXP> >
_TEXT	ENDS
PUBLIC	??$_Dest_val@V?$allocator@UGrandResetEXP@@@std@@UGrandResetEXP@@@std@@YAXAAV?$allocator@UGrandResetEXP@@@0@PAUGrandResetEXP@@@Z ; std::_Dest_val<std::allocator<GrandResetEXP>,GrandResetEXP>
; Function compile flags: /Odtp /ZI
; File d:\microsoft visual studio 10.0\vc\include\xmemory
;	COMDAT ??$_Destroy_range@V?$allocator@UGrandResetEXP@@@std@@@std@@YAXPAUGrandResetEXP@@0AAV?$allocator@UGrandResetEXP@@@0@U_Nonscalar_ptr_iterator_tag@0@@Z
_TEXT	SEGMENT
__First$ = 8						; size = 4
__Last$ = 12						; size = 4
__Al$ = 16						; size = 4
___formal$ = 20						; size = 1
??$_Destroy_range@V?$allocator@UGrandResetEXP@@@std@@@std@@YAXPAUGrandResetEXP@@0AAV?$allocator@UGrandResetEXP@@@0@U_Nonscalar_ptr_iterator_tag@0@@Z PROC ; std::_Destroy_range<std::allocator<GrandResetEXP> >, COMDAT

; 95   : 	{	// destroy [_First, _Last), arbitrary type

  00000	55		 push	 ebp
  00001	8b ec		 mov	 ebp, esp
  00003	83 ec 40	 sub	 esp, 64			; 00000040H
  00006	53		 push	 ebx
  00007	56		 push	 esi
  00008	57		 push	 edi

; 96   : 	for (; _First != _Last; ++_First)

  00009	eb 09		 jmp	 SHORT $LN3@Destroy_ra
$LN2@Destroy_ra:
  0000b	8b 45 08	 mov	 eax, DWORD PTR __First$[ebp]
  0000e	83 c0 08	 add	 eax, 8
  00011	89 45 08	 mov	 DWORD PTR __First$[ebp], eax
$LN3@Destroy_ra:
  00014	8b 45 08	 mov	 eax, DWORD PTR __First$[ebp]
  00017	3b 45 0c	 cmp	 eax, DWORD PTR __Last$[ebp]
  0001a	74 12		 je	 SHORT $LN4@Destroy_ra

; 97   : 		_Dest_val(_Al, _First);

  0001c	8b 45 08	 mov	 eax, DWORD PTR __First$[ebp]
  0001f	50		 push	 eax
  00020	8b 4d 10	 mov	 ecx, DWORD PTR __Al$[ebp]
  00023	51		 push	 ecx
  00024	e8 00 00 00 00	 call	 ??$_Dest_val@V?$allocator@UGrandResetEXP@@@std@@UGrandResetEXP@@@std@@YAXAAV?$allocator@UGrandResetEXP@@@0@PAUGrandResetEXP@@@Z ; std::_Dest_val<std::allocator<GrandResetEXP>,GrandResetEXP>
  00029	83 c4 08	 add	 esp, 8
  0002c	eb dd		 jmp	 SHORT $LN2@Destroy_ra
$LN4@Destroy_ra:

; 98   : 	}

  0002e	5f		 pop	 edi
  0002f	5e		 pop	 esi
  00030	5b		 pop	 ebx
  00031	8b e5		 mov	 esp, ebp
  00033	5d		 pop	 ebp
  00034	c3		 ret	 0
??$_Destroy_range@V?$allocator@UGrandResetEXP@@@std@@@std@@YAXPAUGrandResetEXP@@0AAV?$allocator@UGrandResetEXP@@@0@U_Nonscalar_ptr_iterator_tag@0@@Z ENDP ; std::_Destroy_range<std::allocator<GrandResetEXP> >
_TEXT	ENDS
PUBLIC	??$_Uninit_move@PAUGRANDSYSTEM_REWARD_DATA@@PAU1@V?$allocator@UGRANDSYSTEM_REWARD_DATA@@@std@@U1@@std@@YAPAUGRANDSYSTEM_REWARD_DATA@@PAU1@00AAV?$allocator@UGRANDSYSTEM_REWARD_DATA@@@0@0U_Nonscalar_ptr_iterator_tag@0@@Z ; std::_Uninit_move<GRANDSYSTEM_REWARD_DATA *,GRANDSYSTEM_REWARD_DATA *,std::allocator<GRANDSYSTEM_REWARD_DATA>,GRANDSYSTEM_REWARD_DATA>
PUBLIC	??$_Val_type@PAUGRANDSYSTEM_REWARD_DATA@@@std@@YAPAUGRANDSYSTEM_REWARD_DATA@@PAU1@@Z ; std::_Val_type<GRANDSYSTEM_REWARD_DATA *>
; Function compile flags: /Odtp /ZI
; File d:\microsoft visual studio 10.0\vc\include\memory
;	COMDAT ??$_Uninitialized_move@PAUGRANDSYSTEM_REWARD_DATA@@PAU1@V?$allocator@UGRANDSYSTEM_REWARD_DATA@@@std@@@std@@YAPAUGRANDSYSTEM_REWARD_DATA@@PAU1@00AAV?$allocator@UGRANDSYSTEM_REWARD_DATA@@@0@@Z
_TEXT	SEGMENT
$T233787 = -65						; size = 1
__First$ = 8						; size = 4
__Last$ = 12						; size = 4
__Dest$ = 16						; size = 4
__Al$ = 20						; size = 4
??$_Uninitialized_move@PAUGRANDSYSTEM_REWARD_DATA@@PAU1@V?$allocator@UGRANDSYSTEM_REWARD_DATA@@@std@@@std@@YAPAUGRANDSYSTEM_REWARD_DATA@@PAU1@00AAV?$allocator@UGRANDSYSTEM_REWARD_DATA@@@0@@Z PROC ; std::_Uninitialized_move<GRANDSYSTEM_REWARD_DATA *,GRANDSYSTEM_REWARD_DATA *,std::allocator<GRANDSYSTEM_REWARD_DATA> >, COMDAT

; 469  : 	{	// move [_First, _Last) to raw _Dest, using _Al

  00000	55		 push	 ebp
  00001	8b ec		 mov	 ebp, esp
  00003	83 ec 44	 sub	 esp, 68			; 00000044H
  00006	53		 push	 ebx
  00007	56		 push	 esi
  00008	57		 push	 edi

; 470  : 	return (_Uninit_move(_First, _Last, _Dest, _Al,
; 471  : 		_Val_type(_First), _Ptr_cat(_First, _Dest)));

  00009	8b 45 10	 mov	 eax, DWORD PTR __Dest$[ebp]
  0000c	50		 push	 eax
  0000d	8b 4d 08	 mov	 ecx, DWORD PTR __First$[ebp]
  00010	51		 push	 ecx
  00011	e8 00 00 00 00	 call	 ??$_Ptr_cat@UGRANDSYSTEM_REWARD_DATA@@U1@@std@@YA?AU_Nonscalar_ptr_iterator_tag@0@PAUGRANDSYSTEM_REWARD_DATA@@0@Z ; std::_Ptr_cat<GRANDSYSTEM_REWARD_DATA,GRANDSYSTEM_REWARD_DATA>
  00016	83 c4 08	 add	 esp, 8
  00019	88 45 bf	 mov	 BYTE PTR $T233787[ebp], al
  0001c	0f b6 55 bf	 movzx	 edx, BYTE PTR $T233787[ebp]
  00020	52		 push	 edx
  00021	8b 45 08	 mov	 eax, DWORD PTR __First$[ebp]
  00024	50		 push	 eax
  00025	e8 00 00 00 00	 call	 ??$_Val_type@PAUGRANDSYSTEM_REWARD_DATA@@@std@@YAPAUGRANDSYSTEM_REWARD_DATA@@PAU1@@Z ; std::_Val_type<GRANDSYSTEM_REWARD_DATA *>
  0002a	83 c4 04	 add	 esp, 4
  0002d	50		 push	 eax
  0002e	8b 4d 14	 mov	 ecx, DWORD PTR __Al$[ebp]
  00031	51		 push	 ecx
  00032	8b 55 10	 mov	 edx, DWORD PTR __Dest$[ebp]
  00035	52		 push	 edx
  00036	8b 45 0c	 mov	 eax, DWORD PTR __Last$[ebp]
  00039	50		 push	 eax
  0003a	8b 4d 08	 mov	 ecx, DWORD PTR __First$[ebp]
  0003d	51		 push	 ecx
  0003e	e8 00 00 00 00	 call	 ??$_Uninit_move@PAUGRANDSYSTEM_REWARD_DATA@@PAU1@V?$allocator@UGRANDSYSTEM_REWARD_DATA@@@std@@U1@@std@@YAPAUGRANDSYSTEM_REWARD_DATA@@PAU1@00AAV?$allocator@UGRANDSYSTEM_REWARD_DATA@@@0@0U_Nonscalar_ptr_iterator_tag@0@@Z ; std::_Uninit_move<GRANDSYSTEM_REWARD_DATA *,GRANDSYSTEM_REWARD_DATA *,std::allocator<GRANDSYSTEM_REWARD_DATA>,GRANDSYSTEM_REWARD_DATA>
  00043	83 c4 18	 add	 esp, 24			; 00000018H

; 472  : 	}

  00046	5f		 pop	 edi
  00047	5e		 pop	 esi
  00048	5b		 pop	 ebx
  00049	8b e5		 mov	 esp, ebp
  0004b	5d		 pop	 ebp
  0004c	c3		 ret	 0
??$_Uninitialized_move@PAUGRANDSYSTEM_REWARD_DATA@@PAU1@V?$allocator@UGRANDSYSTEM_REWARD_DATA@@@std@@@std@@YAPAUGRANDSYSTEM_REWARD_DATA@@PAU1@00AAV?$allocator@UGRANDSYSTEM_REWARD_DATA@@@0@@Z ENDP ; std::_Uninitialized_move<GRANDSYSTEM_REWARD_DATA *,GRANDSYSTEM_REWARD_DATA *,std::allocator<GRANDSYSTEM_REWARD_DATA> >
; Function compile flags: /Odtp /ZI
; File d:\microsoft visual studio 10.0\vc\include\xutility
_TEXT	ENDS
;	COMDAT ??$_Ptr_cat@UGRANDSYSTEM_REWARD_DATA@@U1@@std@@YA?AU_Nonscalar_ptr_iterator_tag@0@PAUGRANDSYSTEM_REWARD_DATA@@0@Z
_TEXT	SEGMENT
__Cat$ = -1						; size = 1
___formal$ = 8						; size = 4
___formal$ = 12						; size = 4
??$_Ptr_cat@UGRANDSYSTEM_REWARD_DATA@@U1@@std@@YA?AU_Nonscalar_ptr_iterator_tag@0@PAUGRANDSYSTEM_REWARD_DATA@@0@Z PROC ; std::_Ptr_cat<GRANDSYSTEM_REWARD_DATA,GRANDSYSTEM_REWARD_DATA>, COMDAT

; 516  : 	{	// return pointer category from pointers

  00000	55		 push	 ebp
  00001	8b ec		 mov	 ebp, esp
  00003	83 ec 44	 sub	 esp, 68			; 00000044H
  00006	53		 push	 ebx
  00007	56		 push	 esi
  00008	57		 push	 edi

; 517  : 	typename _Ptr_cat_helper<_Elem1, _Elem2>::_Type _Cat;
; 518  : 	return (_Cat);

  00009	8a 45 ff	 mov	 al, BYTE PTR __Cat$[ebp]

; 519  : 	}

  0000c	5f		 pop	 edi
  0000d	5e		 pop	 esi
  0000e	5b		 pop	 ebx
  0000f	8b e5		 mov	 esp, ebp
  00011	5d		 pop	 ebp
  00012	c3		 ret	 0
??$_Ptr_cat@UGRANDSYSTEM_REWARD_DATA@@U1@@std@@YA?AU_Nonscalar_ptr_iterator_tag@0@PAUGRANDSYSTEM_REWARD_DATA@@0@Z ENDP ; std::_Ptr_cat<GRANDSYSTEM_REWARD_DATA,GRANDSYSTEM_REWARD_DATA>
_TEXT	ENDS
PUBLIC	??$_Dest_val@V?$allocator@UGRANDSYSTEM_REWARD_DATA@@@std@@UGRANDSYSTEM_REWARD_DATA@@@std@@YAXAAV?$allocator@UGRANDSYSTEM_REWARD_DATA@@@0@PAUGRANDSYSTEM_REWARD_DATA@@@Z ; std::_Dest_val<std::allocator<GRANDSYSTEM_REWARD_DATA>,GRANDSYSTEM_REWARD_DATA>
; Function compile flags: /Odtp /ZI
; File d:\microsoft visual studio 10.0\vc\include\xmemory
;	COMDAT ??$_Destroy_range@V?$allocator@UGRANDSYSTEM_REWARD_DATA@@@std@@@std@@YAXPAUGRANDSYSTEM_REWARD_DATA@@0AAV?$allocator@UGRANDSYSTEM_REWARD_DATA@@@0@U_Nonscalar_ptr_iterator_tag@0@@Z
_TEXT	SEGMENT
__First$ = 8						; size = 4
__Last$ = 12						; size = 4
__Al$ = 16						; size = 4
___formal$ = 20						; size = 1
??$_Destroy_range@V?$allocator@UGRANDSYSTEM_REWARD_DATA@@@std@@@std@@YAXPAUGRANDSYSTEM_REWARD_DATA@@0AAV?$allocator@UGRANDSYSTEM_REWARD_DATA@@@0@U_Nonscalar_ptr_iterator_tag@0@@Z PROC ; std::_Destroy_range<std::allocator<GRANDSYSTEM_REWARD_DATA> >, COMDAT

; 95   : 	{	// destroy [_First, _Last), arbitrary type

  00000	55		 push	 ebp
  00001	8b ec		 mov	 ebp, esp
  00003	83 ec 40	 sub	 esp, 64			; 00000040H
  00006	53		 push	 ebx
  00007	56		 push	 esi
  00008	57		 push	 edi

; 96   : 	for (; _First != _Last; ++_First)

  00009	eb 09		 jmp	 SHORT $LN3@Destroy_ra@2
$LN2@Destroy_ra@2:
  0000b	8b 45 08	 mov	 eax, DWORD PTR __First$[ebp]
  0000e	83 c0 24	 add	 eax, 36			; 00000024H
  00011	89 45 08	 mov	 DWORD PTR __First$[ebp], eax
$LN3@Destroy_ra@2:
  00014	8b 45 08	 mov	 eax, DWORD PTR __First$[ebp]
  00017	3b 45 0c	 cmp	 eax, DWORD PTR __Last$[ebp]
  0001a	74 12		 je	 SHORT $LN4@Destroy_ra@2

; 97   : 		_Dest_val(_Al, _First);

  0001c	8b 45 08	 mov	 eax, DWORD PTR __First$[ebp]
  0001f	50		 push	 eax
  00020	8b 4d 10	 mov	 ecx, DWORD PTR __Al$[ebp]
  00023	51		 push	 ecx
  00024	e8 00 00 00 00	 call	 ??$_Dest_val@V?$allocator@UGRANDSYSTEM_REWARD_DATA@@@std@@UGRANDSYSTEM_REWARD_DATA@@@std@@YAXAAV?$allocator@UGRANDSYSTEM_REWARD_DATA@@@0@PAUGRANDSYSTEM_REWARD_DATA@@@Z ; std::_Dest_val<std::allocator<GRANDSYSTEM_REWARD_DATA>,GRANDSYSTEM_REWARD_DATA>
  00029	83 c4 08	 add	 esp, 8
  0002c	eb dd		 jmp	 SHORT $LN2@Destroy_ra@2
$LN4@Destroy_ra@2:

; 98   : 	}

  0002e	5f		 pop	 edi
  0002f	5e		 pop	 esi
  00030	5b		 pop	 ebx
  00031	8b e5		 mov	 esp, ebp
  00033	5d		 pop	 ebp
  00034	c3		 ret	 0
??$_Destroy_range@V?$allocator@UGRANDSYSTEM_REWARD_DATA@@@std@@@std@@YAXPAUGRANDSYSTEM_REWARD_DATA@@0AAV?$allocator@UGRANDSYSTEM_REWARD_DATA@@@0@U_Nonscalar_ptr_iterator_tag@0@@Z ENDP ; std::_Destroy_range<std::allocator<GRANDSYSTEM_REWARD_DATA> >
_TEXT	ENDS
;	COMDAT xdata$x
xdata$x	SEGMENT
__unwindtable$??$_Construct@UGrandResetEXP@@ABU1@@std@@YAXPAUGrandResetEXP@@ABU1@@Z DD 0ffffffffH
	DD	FLAT:__unwindfunclet$??$_Construct@UGrandResetEXP@@ABU1@@std@@YAXPAUGrandResetEXP@@ABU1@@Z$0
__ehfuncinfo$??$_Construct@UGrandResetEXP@@ABU1@@std@@YAXPAUGrandResetEXP@@ABU1@@Z DD 019930522H
	DD	01H
	DD	FLAT:__unwindtable$??$_Construct@UGrandResetEXP@@ABU1@@std@@YAXPAUGrandResetEXP@@ABU1@@Z
	DD	2 DUP(00H)
	DD	2 DUP(00H)
	DD	00H
	DD	01H
; Function compile flags: /Odtp /ZI
xdata$x	ENDS
;	COMDAT ??$_Construct@UGrandResetEXP@@ABU1@@std@@YAXPAUGrandResetEXP@@ABU1@@Z
_TEXT	SEGMENT
tv74 = -92						; size = 4
$T233794 = -88						; size = 4
$T233795 = -84						; size = 4
__Vptr$ = -16						; size = 4
__$EHRec$ = -12						; size = 12
__Ptr$ = 8						; size = 4
__Val$ = 12						; size = 4
??$_Construct@UGrandResetEXP@@ABU1@@std@@YAXPAUGrandResetEXP@@ABU1@@Z PROC ; std::_Construct<GrandResetEXP,GrandResetEXP const &>, COMDAT

; 46   : 	{	// construct object at _Ptr with value _Val

  00000	55		 push	 ebp
  00001	8b ec		 mov	 ebp, esp
  00003	6a ff		 push	 -1
  00005	68 00 00 00 00	 push	 __ehhandler$??$_Construct@UGrandResetEXP@@ABU1@@std@@YAXPAUGrandResetEXP@@ABU1@@Z
  0000a	64 a1 00 00 00
	00		 mov	 eax, DWORD PTR fs:0
  00010	50		 push	 eax
  00011	83 ec 50	 sub	 esp, 80			; 00000050H
  00014	53		 push	 ebx
  00015	56		 push	 esi
  00016	57		 push	 edi
  00017	a1 00 00 00 00	 mov	 eax, DWORD PTR ___security_cookie
  0001c	33 c5		 xor	 eax, ebp
  0001e	50		 push	 eax
  0001f	8d 45 f4	 lea	 eax, DWORD PTR __$EHRec$[ebp]
  00022	64 a3 00 00 00
	00		 mov	 DWORD PTR fs:0, eax

; 47   : 	void _FARQ *_Vptr = _Ptr;

  00028	8b 45 08	 mov	 eax, DWORD PTR __Ptr$[ebp]
  0002b	89 45 f0	 mov	 DWORD PTR __Vptr$[ebp], eax

; 48   : 	::new (_Vptr) _Ty1(_STD forward<_Ty2>(_Val));

  0002e	8b 45 f0	 mov	 eax, DWORD PTR __Vptr$[ebp]
  00031	50		 push	 eax
  00032	6a 08		 push	 8
  00034	e8 00 00 00 00	 call	 ??2@YAPAXIPAX@Z		; operator new
  00039	83 c4 08	 add	 esp, 8
  0003c	89 45 ac	 mov	 DWORD PTR $T233795[ebp], eax
  0003f	c7 45 fc 00 00
	00 00		 mov	 DWORD PTR __$EHRec$[ebp+8], 0
  00046	83 7d ac 00	 cmp	 DWORD PTR $T233795[ebp], 0
  0004a	74 21		 je	 SHORT $LN3@Construct
  0004c	8b 4d 0c	 mov	 ecx, DWORD PTR __Val$[ebp]
  0004f	51		 push	 ecx
  00050	e8 00 00 00 00	 call	 ??$forward@ABUGrandResetEXP@@@std@@YAABUGrandResetEXP@@ABU1@@Z ; std::forward<GrandResetEXP const &>
  00055	83 c4 04	 add	 esp, 4
  00058	8b 10		 mov	 edx, DWORD PTR [eax]
  0005a	8b 40 04	 mov	 eax, DWORD PTR [eax+4]
  0005d	8b 4d ac	 mov	 ecx, DWORD PTR $T233795[ebp]
  00060	89 11		 mov	 DWORD PTR [ecx], edx
  00062	89 41 04	 mov	 DWORD PTR [ecx+4], eax
  00065	8b 55 ac	 mov	 edx, DWORD PTR $T233795[ebp]
  00068	89 55 a4	 mov	 DWORD PTR tv74[ebp], edx
  0006b	eb 07		 jmp	 SHORT $LN4@Construct
$LN3@Construct:
  0006d	c7 45 a4 00 00
	00 00		 mov	 DWORD PTR tv74[ebp], 0
$LN4@Construct:
  00074	8b 45 a4	 mov	 eax, DWORD PTR tv74[ebp]
  00077	89 45 a8	 mov	 DWORD PTR $T233794[ebp], eax
  0007a	c7 45 fc ff ff
	ff ff		 mov	 DWORD PTR __$EHRec$[ebp+8], -1

; 49   : 	}

  00081	8b 4d f4	 mov	 ecx, DWORD PTR __$EHRec$[ebp]
  00084	64 89 0d 00 00
	00 00		 mov	 DWORD PTR fs:0, ecx
  0008b	59		 pop	 ecx
  0008c	5f		 pop	 edi
  0008d	5e		 pop	 esi
  0008e	5b		 pop	 ebx
  0008f	8b e5		 mov	 esp, ebp
  00091	5d		 pop	 ebp
  00092	c3		 ret	 0
_TEXT	ENDS
;	COMDAT text$x
text$x	SEGMENT
__unwindfunclet$??$_Construct@UGrandResetEXP@@ABU1@@std@@YAXPAUGrandResetEXP@@ABU1@@Z$0:
  00000	8b 45 f0	 mov	 eax, DWORD PTR __Vptr$[ebp]
  00003	50		 push	 eax
  00004	8b 4d ac	 mov	 ecx, DWORD PTR $T233795[ebp]
  00007	51		 push	 ecx
  00008	e8 00 00 00 00	 call	 ??3@YAXPAX0@Z		; operator delete
  0000d	83 c4 08	 add	 esp, 8
  00010	c3		 ret	 0
__ehhandler$??$_Construct@UGrandResetEXP@@ABU1@@std@@YAXPAUGrandResetEXP@@ABU1@@Z:
  00011	8b 54 24 08	 mov	 edx, DWORD PTR [esp+8]
  00015	8d 42 0c	 lea	 eax, DWORD PTR [edx+12]
  00018	8b 4a a0	 mov	 ecx, DWORD PTR [edx-96]
  0001b	33 c8		 xor	 ecx, eax
  0001d	e8 00 00 00 00	 call	 @__security_check_cookie@4
  00022	b8 00 00 00 00	 mov	 eax, OFFSET __ehfuncinfo$??$_Construct@UGrandResetEXP@@ABU1@@std@@YAXPAUGrandResetEXP@@ABU1@@Z
  00027	e9 00 00 00 00	 jmp	 ___CxxFrameHandler3
text$x	ENDS
??$_Construct@UGrandResetEXP@@ABU1@@std@@YAXPAUGrandResetEXP@@ABU1@@Z ENDP ; std::_Construct<GrandResetEXP,GrandResetEXP const &>
;	COMDAT xdata$x
xdata$x	SEGMENT
__unwindtable$??$_Construct@UGRANDSYSTEM_REWARD_DATA@@ABU1@@std@@YAXPAUGRANDSYSTEM_REWARD_DATA@@ABU1@@Z DD 0ffffffffH
	DD	FLAT:__unwindfunclet$??$_Construct@UGRANDSYSTEM_REWARD_DATA@@ABU1@@std@@YAXPAUGRANDSYSTEM_REWARD_DATA@@ABU1@@Z$0
__ehfuncinfo$??$_Construct@UGRANDSYSTEM_REWARD_DATA@@ABU1@@std@@YAXPAUGRANDSYSTEM_REWARD_DATA@@ABU1@@Z DD 019930522H
	DD	01H
	DD	FLAT:__unwindtable$??$_Construct@UGRANDSYSTEM_REWARD_DATA@@ABU1@@std@@YAXPAUGRANDSYSTEM_REWARD_DATA@@ABU1@@Z
	DD	2 DUP(00H)
	DD	2 DUP(00H)
	DD	00H
	DD	01H
; Function compile flags: /Odtp /ZI
xdata$x	ENDS
;	COMDAT ??$_Construct@UGRANDSYSTEM_REWARD_DATA@@ABU1@@std@@YAXPAUGRANDSYSTEM_REWARD_DATA@@ABU1@@Z
_TEXT	SEGMENT
tv74 = -92						; size = 4
$T233807 = -88						; size = 4
$T233808 = -84						; size = 4
__Vptr$ = -16						; size = 4
__$EHRec$ = -12						; size = 12
__Ptr$ = 8						; size = 4
__Val$ = 12						; size = 4
??$_Construct@UGRANDSYSTEM_REWARD_DATA@@ABU1@@std@@YAXPAUGRANDSYSTEM_REWARD_DATA@@ABU1@@Z PROC ; std::_Construct<GRANDSYSTEM_REWARD_DATA,GRANDSYSTEM_REWARD_DATA const &>, COMDAT

; 46   : 	{	// construct object at _Ptr with value _Val

  00000	55		 push	 ebp
  00001	8b ec		 mov	 ebp, esp
  00003	6a ff		 push	 -1
  00005	68 00 00 00 00	 push	 __ehhandler$??$_Construct@UGRANDSYSTEM_REWARD_DATA@@ABU1@@std@@YAXPAUGRANDSYSTEM_REWARD_DATA@@ABU1@@Z
  0000a	64 a1 00 00 00
	00		 mov	 eax, DWORD PTR fs:0
  00010	50		 push	 eax
  00011	83 ec 50	 sub	 esp, 80			; 00000050H
  00014	53		 push	 ebx
  00015	56		 push	 esi
  00016	57		 push	 edi
  00017	a1 00 00 00 00	 mov	 eax, DWORD PTR ___security_cookie
  0001c	33 c5		 xor	 eax, ebp
  0001e	50		 push	 eax
  0001f	8d 45 f4	 lea	 eax, DWORD PTR __$EHRec$[ebp]
  00022	64 a3 00 00 00
	00		 mov	 DWORD PTR fs:0, eax

; 47   : 	void _FARQ *_Vptr = _Ptr;

  00028	8b 45 08	 mov	 eax, DWORD PTR __Ptr$[ebp]
  0002b	89 45 f0	 mov	 DWORD PTR __Vptr$[ebp], eax

; 48   : 	::new (_Vptr) _Ty1(_STD forward<_Ty2>(_Val));

  0002e	8b 45 f0	 mov	 eax, DWORD PTR __Vptr$[ebp]
  00031	50		 push	 eax
  00032	6a 24		 push	 36			; 00000024H
  00034	e8 00 00 00 00	 call	 ??2@YAPAXIPAX@Z		; operator new
  00039	83 c4 08	 add	 esp, 8
  0003c	89 45 ac	 mov	 DWORD PTR $T233808[ebp], eax
  0003f	c7 45 fc 00 00
	00 00		 mov	 DWORD PTR __$EHRec$[ebp+8], 0
  00046	83 7d ac 00	 cmp	 DWORD PTR $T233808[ebp], 0
  0004a	74 20		 je	 SHORT $LN3@Construct@2
  0004c	8b 4d 0c	 mov	 ecx, DWORD PTR __Val$[ebp]
  0004f	51		 push	 ecx
  00050	e8 00 00 00 00	 call	 ??$forward@ABUGRANDSYSTEM_REWARD_DATA@@@std@@YAABUGRANDSYSTEM_REWARD_DATA@@ABU1@@Z ; std::forward<GRANDSYSTEM_REWARD_DATA const &>
  00055	83 c4 04	 add	 esp, 4
  00058	b9 09 00 00 00	 mov	 ecx, 9
  0005d	8b f0		 mov	 esi, eax
  0005f	8b 7d ac	 mov	 edi, DWORD PTR $T233808[ebp]
  00062	f3 a5		 rep movsd
  00064	8b 55 ac	 mov	 edx, DWORD PTR $T233808[ebp]
  00067	89 55 a4	 mov	 DWORD PTR tv74[ebp], edx
  0006a	eb 07		 jmp	 SHORT $LN4@Construct@2
$LN3@Construct@2:
  0006c	c7 45 a4 00 00
	00 00		 mov	 DWORD PTR tv74[ebp], 0
$LN4@Construct@2:
  00073	8b 45 a4	 mov	 eax, DWORD PTR tv74[ebp]
  00076	89 45 a8	 mov	 DWORD PTR $T233807[ebp], eax
  00079	c7 45 fc ff ff
	ff ff		 mov	 DWORD PTR __$EHRec$[ebp+8], -1

; 49   : 	}

  00080	8b 4d f4	 mov	 ecx, DWORD PTR __$EHRec$[ebp]
  00083	64 89 0d 00 00
	00 00		 mov	 DWORD PTR fs:0, ecx
  0008a	59		 pop	 ecx
  0008b	5f		 pop	 edi
  0008c	5e		 pop	 esi
  0008d	5b		 pop	 ebx
  0008e	8b e5		 mov	 esp, ebp
  00090	5d		 pop	 ebp
  00091	c3		 ret	 0
_TEXT	ENDS
;	COMDAT text$x
text$x	SEGMENT
__unwindfunclet$??$_Construct@UGRANDSYSTEM_REWARD_DATA@@ABU1@@std@@YAXPAUGRANDSYSTEM_REWARD_DATA@@ABU1@@Z$0:
  00000	8b 45 f0	 mov	 eax, DWORD PTR __Vptr$[ebp]
  00003	50		 push	 eax
  00004	8b 4d ac	 mov	 ecx, DWORD PTR $T233808[ebp]
  00007	51		 push	 ecx
  00008	e8 00 00 00 00	 call	 ??3@YAXPAX0@Z		; operator delete
  0000d	83 c4 08	 add	 esp, 8
  00010	c3		 ret	 0
__ehhandler$??$_Construct@UGRANDSYSTEM_REWARD_DATA@@ABU1@@std@@YAXPAUGRANDSYSTEM_REWARD_DATA@@ABU1@@Z:
  00011	8b 54 24 08	 mov	 edx, DWORD PTR [esp+8]
  00015	8d 42 0c	 lea	 eax, DWORD PTR [edx+12]
  00018	8b 4a a0	 mov	 ecx, DWORD PTR [edx-96]
  0001b	33 c8		 xor	 ecx, eax
  0001d	e8 00 00 00 00	 call	 @__security_check_cookie@4
  00022	b8 00 00 00 00	 mov	 eax, OFFSET __ehfuncinfo$??$_Construct@UGRANDSYSTEM_REWARD_DATA@@ABU1@@std@@YAXPAUGRANDSYSTEM_REWARD_DATA@@ABU1@@Z
  00027	e9 00 00 00 00	 jmp	 ___CxxFrameHandler3
text$x	ENDS
??$_Construct@UGRANDSYSTEM_REWARD_DATA@@ABU1@@std@@YAXPAUGRANDSYSTEM_REWARD_DATA@@ABU1@@Z ENDP ; std::_Construct<GRANDSYSTEM_REWARD_DATA,GRANDSYSTEM_REWARD_DATA const &>
; Function compile flags: /Odtp /ZI
; File d:\microsoft visual studio 10.0\vc\include\utility
;	COMDAT ??$move@AAUGrandResetEXP@@@std@@YA$$QAUGrandResetEXP@@AAU1@@Z
_TEXT	SEGMENT
__Arg$ = 8						; size = 4
??$move@AAUGrandResetEXP@@@std@@YA$$QAUGrandResetEXP@@AAU1@@Z PROC ; std::move<GrandResetEXP &>, COMDAT

; 86   : 	{	// forward _Arg as movable

  00000	55		 push	 ebp
  00001	8b ec		 mov	 ebp, esp
  00003	83 ec 40	 sub	 esp, 64			; 00000040H
  00006	53		 push	 ebx
  00007	56		 push	 esi
  00008	57		 push	 edi

; 87   : 	return ((typename tr1::_Remove_reference<_Ty>::_Type&&)_Arg);

  00009	8b 45 08	 mov	 eax, DWORD PTR __Arg$[ebp]

; 88   : 	}

  0000c	5f		 pop	 edi
  0000d	5e		 pop	 esi
  0000e	5b		 pop	 ebx
  0000f	8b e5		 mov	 esp, ebp
  00011	5d		 pop	 ebp
  00012	c3		 ret	 0
??$move@AAUGrandResetEXP@@@std@@YA$$QAUGrandResetEXP@@AAU1@@Z ENDP ; std::move<GrandResetEXP &>
; Function compile flags: /Odtp /ZI
; File d:\microsoft visual studio 10.0\vc\include\xutility
_TEXT	ENDS
;	COMDAT ??$_Val_type@PAUGrandResetEXP@@@std@@YAPAUGrandResetEXP@@PAU1@@Z
_TEXT	SEGMENT
___formal$ = 8						; size = 4
??$_Val_type@PAUGrandResetEXP@@@std@@YAPAUGrandResetEXP@@PAU1@@Z PROC ; std::_Val_type<GrandResetEXP *>, COMDAT

; 789  : 	{	// return value type from arbitrary argument

  00000	55		 push	 ebp
  00001	8b ec		 mov	 ebp, esp
  00003	83 ec 40	 sub	 esp, 64			; 00000040H
  00006	53		 push	 ebx
  00007	56		 push	 esi
  00008	57		 push	 edi

; 790  : 	return (0);

  00009	33 c0		 xor	 eax, eax

; 791  : 	}

  0000b	5f		 pop	 edi
  0000c	5e		 pop	 esi
  0000d	5b		 pop	 ebx
  0000e	8b e5		 mov	 esp, ebp
  00010	5d		 pop	 ebp
  00011	c3		 ret	 0
??$_Val_type@PAUGrandResetEXP@@@std@@YAPAUGrandResetEXP@@PAU1@@Z ENDP ; std::_Val_type<GrandResetEXP *>
_TEXT	ENDS
PUBLIC	??$_Cons_val@V?$allocator@UGrandResetEXP@@@std@@UGrandResetEXP@@U3@@std@@YAXAAV?$allocator@UGrandResetEXP@@@0@PAUGrandResetEXP@@$$QAU2@@Z ; std::_Cons_val<std::allocator<GrandResetEXP>,GrandResetEXP,GrandResetEXP>
;	COMDAT xdata$x
; File d:\microsoft visual studio 10.0\vc\include\memory
xdata$x	SEGMENT
__catchsym$??$_Uninit_move@PAUGrandResetEXP@@PAU1@V?$allocator@UGrandResetEXP@@@std@@U1@@std@@YAPAUGrandResetEXP@@PAU1@00AAV?$allocator@UGrandResetEXP@@@0@0U_Nonscalar_ptr_iterator_tag@0@@Z$2 DD 040H
	DD	00H
	DD	00H
	DD	FLAT:__catch$??$_Uninit_move@PAUGrandResetEXP@@PAU1@V?$allocator@UGrandResetEXP@@@std@@U1@@std@@YAPAUGrandResetEXP@@PAU1@00AAV?$allocator@UGrandResetEXP@@@0@0U_Nonscalar_ptr_iterator_tag@0@@Z$0
__unwindtable$??$_Uninit_move@PAUGrandResetEXP@@PAU1@V?$allocator@UGrandResetEXP@@@std@@U1@@std@@YAPAUGrandResetEXP@@PAU1@00AAV?$allocator@UGrandResetEXP@@@0@0U_Nonscalar_ptr_iterator_tag@0@@Z DD 0ffffffffH
	DD	00H
	DD	0ffffffffH
	DD	00H
__tryblocktable$??$_Uninit_move@PAUGrandResetEXP@@PAU1@V?$allocator@UGrandResetEXP@@@std@@U1@@std@@YAPAUGrandResetEXP@@PAU1@00AAV?$allocator@UGrandResetEXP@@@0@0U_Nonscalar_ptr_iterator_tag@0@@Z DD 00H
	DD	00H
	DD	01H
	DD	01H
	DD	FLAT:__catchsym$??$_Uninit_move@PAUGrandResetEXP@@PAU1@V?$allocator@UGrandResetEXP@@@std@@U1@@std@@YAPAUGrandResetEXP@@PAU1@00AAV?$allocator@UGrandResetEXP@@@0@0U_Nonscalar_ptr_iterator_tag@0@@Z$2
__ehfuncinfo$??$_Uninit_move@PAUGrandResetEXP@@PAU1@V?$allocator@UGrandResetEXP@@@std@@U1@@std@@YAPAUGrandResetEXP@@PAU1@00AAV?$allocator@UGrandResetEXP@@@0@0U_Nonscalar_ptr_iterator_tag@0@@Z DD 019930522H
	DD	02H
	DD	FLAT:__unwindtable$??$_Uninit_move@PAUGrandResetEXP@@PAU1@V?$allocator@UGrandResetEXP@@@std@@U1@@std@@YAPAUGrandResetEXP@@PAU1@00AAV?$allocator@UGrandResetEXP@@@0@0U_Nonscalar_ptr_iterator_tag@0@@Z
	DD	01H
	DD	FLAT:__tryblocktable$??$_Uninit_move@PAUGrandResetEXP@@PAU1@V?$allocator@UGrandResetEXP@@@std@@U1@@std@@YAPAUGrandResetEXP@@PAU1@00AAV?$allocator@UGrandResetEXP@@@0@0U_Nonscalar_ptr_iterator_tag@0@@Z
	DD	2 DUP(00H)
	DD	00H
	DD	01H
; Function compile flags: /Odtp /ZI
xdata$x	ENDS
;	COMDAT ??$_Uninit_move@PAUGrandResetEXP@@PAU1@V?$allocator@UGrandResetEXP@@@std@@U1@@std@@YAPAUGrandResetEXP@@PAU1@00AAV?$allocator@UGrandResetEXP@@@0@0U_Nonscalar_ptr_iterator_tag@0@@Z
_TEXT	SEGMENT
__Next$ = -20						; size = 4
__$EHRec$ = -16						; size = 16
__First$ = 8						; size = 4
__Last$ = 12						; size = 4
__Dest$ = 16						; size = 4
__Al$ = 20						; size = 4
___formal$ = 24						; size = 4
___formal$ = 28						; size = 1
??$_Uninit_move@PAUGrandResetEXP@@PAU1@V?$allocator@UGrandResetEXP@@@std@@U1@@std@@YAPAUGrandResetEXP@@PAU1@00AAV?$allocator@UGrandResetEXP@@@0@0U_Nonscalar_ptr_iterator_tag@0@@Z PROC ; std::_Uninit_move<GrandResetEXP *,GrandResetEXP *,std::allocator<GrandResetEXP>,GrandResetEXP>, COMDAT

; 424  : 	{	// move [_First, _Last) to raw _Dest, using _Al, arbitrary type

  00000	55		 push	 ebp
  00001	8b ec		 mov	 ebp, esp
  00003	6a ff		 push	 -1
  00005	68 00 00 00 00	 push	 __ehhandler$??$_Uninit_move@PAUGrandResetEXP@@PAU1@V?$allocator@UGrandResetEXP@@@std@@U1@@std@@YAPAUGrandResetEXP@@PAU1@00AAV?$allocator@UGrandResetEXP@@@0@0U_Nonscalar_ptr_iterator_tag@0@@Z
  0000a	64 a1 00 00 00
	00		 mov	 eax, DWORD PTR fs:0
  00010	50		 push	 eax
  00011	51		 push	 ecx
  00012	83 ec 44	 sub	 esp, 68			; 00000044H
  00015	53		 push	 ebx
  00016	56		 push	 esi
  00017	57		 push	 edi
  00018	a1 00 00 00 00	 mov	 eax, DWORD PTR ___security_cookie
  0001d	33 c5		 xor	 eax, ebp
  0001f	50		 push	 eax
  00020	8d 45 f4	 lea	 eax, DWORD PTR __$EHRec$[ebp+4]
  00023	64 a3 00 00 00
	00		 mov	 DWORD PTR fs:0, eax
  00029	89 65 f0	 mov	 DWORD PTR __$EHRec$[ebp], esp

; 425  : 	_DEBUG_RANGE(_First, _Last);
; 426  : 	_DEBUG_POINTER(_Dest);
; 427  : 	_FwdIt _Next = _Dest;

  0002c	8b 45 10	 mov	 eax, DWORD PTR __Dest$[ebp]
  0002f	89 45 ec	 mov	 DWORD PTR __Next$[ebp], eax

; 428  : 
; 429  : 	_TRY_BEGIN

  00032	c7 45 fc 00 00
	00 00		 mov	 DWORD PTR __$EHRec$[ebp+12], 0
  00039	eb 12		 jmp	 SHORT $LN6@Uninit_mov
$LN5@Uninit_mov:

; 430  : 	for (; _First != _Last; ++_Dest, ++_First)

  0003b	8b 45 10	 mov	 eax, DWORD PTR __Dest$[ebp]
  0003e	83 c0 08	 add	 eax, 8
  00041	89 45 10	 mov	 DWORD PTR __Dest$[ebp], eax
  00044	8b 4d 08	 mov	 ecx, DWORD PTR __First$[ebp]
  00047	83 c1 08	 add	 ecx, 8
  0004a	89 4d 08	 mov	 DWORD PTR __First$[ebp], ecx
$LN6@Uninit_mov:
  0004d	8b 45 08	 mov	 eax, DWORD PTR __First$[ebp]
  00050	3b 45 0c	 cmp	 eax, DWORD PTR __Last$[ebp]
  00053	74 16		 je	 SHORT $LN4@Uninit_mov

; 431  : 		_Cons_val(_Al, _Dest, (_Valty &&)*_First);

  00055	8b 45 08	 mov	 eax, DWORD PTR __First$[ebp]
  00058	50		 push	 eax
  00059	8b 4d 10	 mov	 ecx, DWORD PTR __Dest$[ebp]
  0005c	51		 push	 ecx
  0005d	8b 55 14	 mov	 edx, DWORD PTR __Al$[ebp]
  00060	52		 push	 edx
  00061	e8 00 00 00 00	 call	 ??$_Cons_val@V?$allocator@UGrandResetEXP@@@std@@UGrandResetEXP@@U3@@std@@YAXAAV?$allocator@UGrandResetEXP@@@0@PAUGrandResetEXP@@$$QAU2@@Z ; std::_Cons_val<std::allocator<GrandResetEXP>,GrandResetEXP,GrandResetEXP>
  00066	83 c4 0c	 add	 esp, 12			; 0000000cH
  00069	eb d0		 jmp	 SHORT $LN5@Uninit_mov
$LN4@Uninit_mov:
  0006b	eb 3b		 jmp	 SHORT $LN10@Uninit_mov
__catch$??$_Uninit_move@PAUGrandResetEXP@@PAU1@V?$allocator@UGrandResetEXP@@@std@@U1@@std@@YAPAUGrandResetEXP@@PAU1@00AAV?$allocator@UGrandResetEXP@@@0@0U_Nonscalar_ptr_iterator_tag@0@@Z$0:

; 432  : 	_CATCH_ALL

  0006d	eb 09		 jmp	 SHORT $LN3@Uninit_mov
$LN2@Uninit_mov:

; 433  : 	for (; _Next != _Dest; ++_Next)

  0006f	8b 45 ec	 mov	 eax, DWORD PTR __Next$[ebp]
  00072	83 c0 08	 add	 eax, 8
  00075	89 45 ec	 mov	 DWORD PTR __Next$[ebp], eax
$LN3@Uninit_mov:
  00078	8b 45 ec	 mov	 eax, DWORD PTR __Next$[ebp]
  0007b	3b 45 10	 cmp	 eax, DWORD PTR __Dest$[ebp]
  0007e	74 12		 je	 SHORT $LN1@Uninit_mov

; 434  : 		_Dest_val(_Al, _Next);

  00080	8b 45 ec	 mov	 eax, DWORD PTR __Next$[ebp]
  00083	50		 push	 eax
  00084	8b 4d 14	 mov	 ecx, DWORD PTR __Al$[ebp]
  00087	51		 push	 ecx
  00088	e8 00 00 00 00	 call	 ??$_Dest_val@V?$allocator@UGrandResetEXP@@@std@@UGrandResetEXP@@@std@@YAXAAV?$allocator@UGrandResetEXP@@@0@PAUGrandResetEXP@@@Z ; std::_Dest_val<std::allocator<GrandResetEXP>,GrandResetEXP>
  0008d	83 c4 08	 add	 esp, 8
  00090	eb dd		 jmp	 SHORT $LN2@Uninit_mov
$LN1@Uninit_mov:

; 435  : 	_RERAISE;

  00092	6a 00		 push	 0
  00094	6a 00		 push	 0
  00096	e8 00 00 00 00	 call	 __CxxThrowException@8

; 436  : 	_CATCH_END

  0009b	c7 45 fc ff ff
	ff ff		 mov	 DWORD PTR __$EHRec$[ebp+12], -1
  000a2	b8 00 00 00 00	 mov	 eax, __tryend$??$_Uninit_move@PAUGrandResetEXP@@PAU1@V?$allocator@UGrandResetEXP@@@std@@U1@@std@@YAPAUGrandResetEXP@@PAU1@00AAV?$allocator@UGrandResetEXP@@@0@0U_Nonscalar_ptr_iterator_tag@0@@Z$1
  000a7	c3		 ret	 0
$LN10@Uninit_mov:
  000a8	c7 45 fc ff ff
	ff ff		 mov	 DWORD PTR __$EHRec$[ebp+12], -1
__tryend$??$_Uninit_move@PAUGrandResetEXP@@PAU1@V?$allocator@UGrandResetEXP@@@std@@U1@@std@@YAPAUGrandResetEXP@@PAU1@00AAV?$allocator@UGrandResetEXP@@@0@0U_Nonscalar_ptr_iterator_tag@0@@Z$1:

; 437  : 	return (_Dest);

  000af	8b 45 10	 mov	 eax, DWORD PTR __Dest$[ebp]
$LN9@Uninit_mov:

; 438  : 	}

  000b2	8b 4d f4	 mov	 ecx, DWORD PTR __$EHRec$[ebp+4]
  000b5	64 89 0d 00 00
	00 00		 mov	 DWORD PTR fs:0, ecx
  000bc	59		 pop	 ecx
  000bd	5f		 pop	 edi
  000be	5e		 pop	 esi
  000bf	5b		 pop	 ebx
  000c0	8b e5		 mov	 esp, ebp
  000c2	5d		 pop	 ebp
  000c3	c3		 ret	 0
_TEXT	ENDS
;	COMDAT text$x
text$x	SEGMENT
__ehhandler$??$_Uninit_move@PAUGrandResetEXP@@PAU1@V?$allocator@UGrandResetEXP@@@std@@U1@@std@@YAPAUGrandResetEXP@@PAU1@00AAV?$allocator@UGrandResetEXP@@@0@0U_Nonscalar_ptr_iterator_tag@0@@Z:
  00000	8b 54 24 08	 mov	 edx, DWORD PTR [esp+8]
  00004	8d 42 0c	 lea	 eax, DWORD PTR [edx+12]
  00007	8b 4a a8	 mov	 ecx, DWORD PTR [edx-88]
  0000a	33 c8		 xor	 ecx, eax
  0000c	e8 00 00 00 00	 call	 @__security_check_cookie@4
  00011	b8 00 00 00 00	 mov	 eax, OFFSET __ehfuncinfo$??$_Uninit_move@PAUGrandResetEXP@@PAU1@V?$allocator@UGrandResetEXP@@@std@@U1@@std@@YAPAUGrandResetEXP@@PAU1@00AAV?$allocator@UGrandResetEXP@@@0@0U_Nonscalar_ptr_iterator_tag@0@@Z
  00016	e9 00 00 00 00	 jmp	 ___CxxFrameHandler3
text$x	ENDS
??$_Uninit_move@PAUGrandResetEXP@@PAU1@V?$allocator@UGrandResetEXP@@@std@@U1@@std@@YAPAUGrandResetEXP@@PAU1@00AAV?$allocator@UGrandResetEXP@@@0@0U_Nonscalar_ptr_iterator_tag@0@@Z ENDP ; std::_Uninit_move<GrandResetEXP *,GrandResetEXP *,std::allocator<GrandResetEXP>,GrandResetEXP>
PUBLIC	?destroy@?$allocator@UGrandResetEXP@@@std@@QAEXPAUGrandResetEXP@@@Z ; std::allocator<GrandResetEXP>::destroy
; Function compile flags: /Odtp /ZI
; File d:\microsoft visual studio 10.0\vc\include\xmemory
;	COMDAT ??$_Dest_val@V?$allocator@UGrandResetEXP@@@std@@UGrandResetEXP@@@std@@YAXAAV?$allocator@UGrandResetEXP@@@0@PAUGrandResetEXP@@@Z
_TEXT	SEGMENT
__Alval$ = 8						; size = 4
__Pdest$ = 12						; size = 4
??$_Dest_val@V?$allocator@UGrandResetEXP@@@std@@UGrandResetEXP@@@std@@YAXAAV?$allocator@UGrandResetEXP@@@0@PAUGrandResetEXP@@@Z PROC ; std::_Dest_val<std::allocator<GrandResetEXP>,GrandResetEXP>, COMDAT

; 286  : 	{	// destroy using allocator

  00000	55		 push	 ebp
  00001	8b ec		 mov	 ebp, esp
  00003	83 ec 40	 sub	 esp, 64			; 00000040H
  00006	53		 push	 ebx
  00007	56		 push	 esi
  00008	57		 push	 edi

; 287  : 	_Alval.destroy(_Pdest);

  00009	8b 45 0c	 mov	 eax, DWORD PTR __Pdest$[ebp]
  0000c	50		 push	 eax
  0000d	8b 4d 08	 mov	 ecx, DWORD PTR __Alval$[ebp]
  00010	e8 00 00 00 00	 call	 ?destroy@?$allocator@UGrandResetEXP@@@std@@QAEXPAUGrandResetEXP@@@Z ; std::allocator<GrandResetEXP>::destroy

; 288  : 	}

  00015	5f		 pop	 edi
  00016	5e		 pop	 esi
  00017	5b		 pop	 ebx
  00018	8b e5		 mov	 esp, ebp
  0001a	5d		 pop	 ebp
  0001b	c3		 ret	 0
??$_Dest_val@V?$allocator@UGrandResetEXP@@@std@@UGrandResetEXP@@@std@@YAXAAV?$allocator@UGrandResetEXP@@@0@PAUGrandResetEXP@@@Z ENDP ; std::_Dest_val<std::allocator<GrandResetEXP>,GrandResetEXP>
; Function compile flags: /Odtp /ZI
; File d:\microsoft visual studio 10.0\vc\include\xutility
_TEXT	ENDS
;	COMDAT ??$_Val_type@PAUGRANDSYSTEM_REWARD_DATA@@@std@@YAPAUGRANDSYSTEM_REWARD_DATA@@PAU1@@Z
_TEXT	SEGMENT
___formal$ = 8						; size = 4
??$_Val_type@PAUGRANDSYSTEM_REWARD_DATA@@@std@@YAPAUGRANDSYSTEM_REWARD_DATA@@PAU1@@Z PROC ; std::_Val_type<GRANDSYSTEM_REWARD_DATA *>, COMDAT

; 789  : 	{	// return value type from arbitrary argument

  00000	55		 push	 ebp
  00001	8b ec		 mov	 ebp, esp
  00003	83 ec 40	 sub	 esp, 64			; 00000040H
  00006	53		 push	 ebx
  00007	56		 push	 esi
  00008	57		 push	 edi

; 790  : 	return (0);

  00009	33 c0		 xor	 eax, eax

; 791  : 	}

  0000b	5f		 pop	 edi
  0000c	5e		 pop	 esi
  0000d	5b		 pop	 ebx
  0000e	8b e5		 mov	 esp, ebp
  00010	5d		 pop	 ebp
  00011	c3		 ret	 0
??$_Val_type@PAUGRANDSYSTEM_REWARD_DATA@@@std@@YAPAUGRANDSYSTEM_REWARD_DATA@@PAU1@@Z ENDP ; std::_Val_type<GRANDSYSTEM_REWARD_DATA *>
_TEXT	ENDS
PUBLIC	??$_Cons_val@V?$allocator@UGRANDSYSTEM_REWARD_DATA@@@std@@UGRANDSYSTEM_REWARD_DATA@@U3@@std@@YAXAAV?$allocator@UGRANDSYSTEM_REWARD_DATA@@@0@PAUGRANDSYSTEM_REWARD_DATA@@$$QAU2@@Z ; std::_Cons_val<std::allocator<GRANDSYSTEM_REWARD_DATA>,GRANDSYSTEM_REWARD_DATA,GRANDSYSTEM_REWARD_DATA>
;	COMDAT xdata$x
; File d:\microsoft visual studio 10.0\vc\include\memory
xdata$x	SEGMENT
__catchsym$??$_Uninit_move@PAUGRANDSYSTEM_REWARD_DATA@@PAU1@V?$allocator@UGRANDSYSTEM_REWARD_DATA@@@std@@U1@@std@@YAPAUGRANDSYSTEM_REWARD_DATA@@PAU1@00AAV?$allocator@UGRANDSYSTEM_REWARD_DATA@@@0@0U_Nonscalar_ptr_iterator_tag@0@@Z$2 DD 040H
	DD	00H
	DD	00H
	DD	FLAT:__catch$??$_Uninit_move@PAUGRANDSYSTEM_REWARD_DATA@@PAU1@V?$allocator@UGRANDSYSTEM_REWARD_DATA@@@std@@U1@@std@@YAPAUGRANDSYSTEM_REWARD_DATA@@PAU1@00AAV?$allocator@UGRANDSYSTEM_REWARD_DATA@@@0@0U_Nonscalar_ptr_iterator_tag@0@@Z$0
__unwindtable$??$_Uninit_move@PAUGRANDSYSTEM_REWARD_DATA@@PAU1@V?$allocator@UGRANDSYSTEM_REWARD_DATA@@@std@@U1@@std@@YAPAUGRANDSYSTEM_REWARD_DATA@@PAU1@00AAV?$allocator@UGRANDSYSTEM_REWARD_DATA@@@0@0U_Nonscalar_ptr_iterator_tag@0@@Z DD 0ffffffffH
	DD	00H
	DD	0ffffffffH
	DD	00H
__tryblocktable$??$_Uninit_move@PAUGRANDSYSTEM_REWARD_DATA@@PAU1@V?$allocator@UGRANDSYSTEM_REWARD_DATA@@@std@@U1@@std@@YAPAUGRANDSYSTEM_REWARD_DATA@@PAU1@00AAV?$allocator@UGRANDSYSTEM_REWARD_DATA@@@0@0U_Nonscalar_ptr_iterator_tag@0@@Z DD 00H
	DD	00H
	DD	01H
	DD	01H
	DD	FLAT:__catchsym$??$_Uninit_move@PAUGRANDSYSTEM_REWARD_DATA@@PAU1@V?$allocator@UGRANDSYSTEM_REWARD_DATA@@@std@@U1@@std@@YAPAUGRANDSYSTEM_REWARD_DATA@@PAU1@00AAV?$allocator@UGRANDSYSTEM_REWARD_DATA@@@0@0U_Nonscalar_ptr_iterator_tag@0@@Z$2
__ehfuncinfo$??$_Uninit_move@PAUGRANDSYSTEM_REWARD_DATA@@PAU1@V?$allocator@UGRANDSYSTEM_REWARD_DATA@@@std@@U1@@std@@YAPAUGRANDSYSTEM_REWARD_DATA@@PAU1@00AAV?$allocator@UGRANDSYSTEM_REWARD_DATA@@@0@0U_Nonscalar_ptr_iterator_tag@0@@Z DD 019930522H
	DD	02H
	DD	FLAT:__unwindtable$??$_Uninit_move@PAUGRANDSYSTEM_REWARD_DATA@@PAU1@V?$allocator@UGRANDSYSTEM_REWARD_DATA@@@std@@U1@@std@@YAPAUGRANDSYSTEM_REWARD_DATA@@PAU1@00AAV?$allocator@UGRANDSYSTEM_REWARD_DATA@@@0@0U_Nonscalar_ptr_iterator_tag@0@@Z
	DD	01H
	DD	FLAT:__tryblocktable$??$_Uninit_move@PAUGRANDSYSTEM_REWARD_DATA@@PAU1@V?$allocator@UGRANDSYSTEM_REWARD_DATA@@@std@@U1@@std@@YAPAUGRANDSYSTEM_REWARD_DATA@@PAU1@00AAV?$allocator@UGRANDSYSTEM_REWARD_DATA@@@0@0U_Nonscalar_ptr_iterator_tag@0@@Z
	DD	2 DUP(00H)
	DD	00H
	DD	01H
; Function compile flags: /Odtp /ZI
xdata$x	ENDS
;	COMDAT ??$_Uninit_move@PAUGRANDSYSTEM_REWARD_DATA@@PAU1@V?$allocator@UGRANDSYSTEM_REWARD_DATA@@@std@@U1@@std@@YAPAUGRANDSYSTEM_REWARD_DATA@@PAU1@00AAV?$allocator@UGRANDSYSTEM_REWARD_DATA@@@0@0U_Nonscalar_ptr_iterator_tag@0@@Z
_TEXT	SEGMENT
__Next$ = -20						; size = 4
__$EHRec$ = -16						; size = 16
__First$ = 8						; size = 4
__Last$ = 12						; size = 4
__Dest$ = 16						; size = 4
__Al$ = 20						; size = 4
___formal$ = 24						; size = 4
___formal$ = 28						; size = 1
??$_Uninit_move@PAUGRANDSYSTEM_REWARD_DATA@@PAU1@V?$allocator@UGRANDSYSTEM_REWARD_DATA@@@std@@U1@@std@@YAPAUGRANDSYSTEM_REWARD_DATA@@PAU1@00AAV?$allocator@UGRANDSYSTEM_REWARD_DATA@@@0@0U_Nonscalar_ptr_iterator_tag@0@@Z PROC ; std::_Uninit_move<GRANDSYSTEM_REWARD_DATA *,GRANDSYSTEM_REWARD_DATA *,std::allocator<GRANDSYSTEM_REWARD_DATA>,GRANDSYSTEM_REWARD_DATA>, COMDAT

; 424  : 	{	// move [_First, _Last) to raw _Dest, using _Al, arbitrary type

  00000	55		 push	 ebp
  00001	8b ec		 mov	 ebp, esp
  00003	6a ff		 push	 -1
  00005	68 00 00 00 00	 push	 __ehhandler$??$_Uninit_move@PAUGRANDSYSTEM_REWARD_DATA@@PAU1@V?$allocator@UGRANDSYSTEM_REWARD_DATA@@@std@@U1@@std@@YAPAUGRANDSYSTEM_REWARD_DATA@@PAU1@00AAV?$allocator@UGRANDSYSTEM_REWARD_DATA@@@0@0U_Nonscalar_ptr_iterator_tag@0@@Z
  0000a	64 a1 00 00 00
	00		 mov	 eax, DWORD PTR fs:0
  00010	50		 push	 eax
  00011	51		 push	 ecx
  00012	83 ec 44	 sub	 esp, 68			; 00000044H
  00015	53		 push	 ebx
  00016	56		 push	 esi
  00017	57		 push	 edi
  00018	a1 00 00 00 00	 mov	 eax, DWORD PTR ___security_cookie
  0001d	33 c5		 xor	 eax, ebp
  0001f	50		 push	 eax
  00020	8d 45 f4	 lea	 eax, DWORD PTR __$EHRec$[ebp+4]
  00023	64 a3 00 00 00
	00		 mov	 DWORD PTR fs:0, eax
  00029	89 65 f0	 mov	 DWORD PTR __$EHRec$[ebp], esp

; 425  : 	_DEBUG_RANGE(_First, _Last);
; 426  : 	_DEBUG_POINTER(_Dest);
; 427  : 	_FwdIt _Next = _Dest;

  0002c	8b 45 10	 mov	 eax, DWORD PTR __Dest$[ebp]
  0002f	89 45 ec	 mov	 DWORD PTR __Next$[ebp], eax

; 428  : 
; 429  : 	_TRY_BEGIN

  00032	c7 45 fc 00 00
	00 00		 mov	 DWORD PTR __$EHRec$[ebp+12], 0
  00039	eb 12		 jmp	 SHORT $LN6@Uninit_mov@2
$LN5@Uninit_mov@2:

; 430  : 	for (; _First != _Last; ++_Dest, ++_First)

  0003b	8b 45 10	 mov	 eax, DWORD PTR __Dest$[ebp]
  0003e	83 c0 24	 add	 eax, 36			; 00000024H
  00041	89 45 10	 mov	 DWORD PTR __Dest$[ebp], eax
  00044	8b 4d 08	 mov	 ecx, DWORD PTR __First$[ebp]
  00047	83 c1 24	 add	 ecx, 36			; 00000024H
  0004a	89 4d 08	 mov	 DWORD PTR __First$[ebp], ecx
$LN6@Uninit_mov@2:
  0004d	8b 45 08	 mov	 eax, DWORD PTR __First$[ebp]
  00050	3b 45 0c	 cmp	 eax, DWORD PTR __Last$[ebp]
  00053	74 16		 je	 SHORT $LN4@Uninit_mov@2

; 431  : 		_Cons_val(_Al, _Dest, (_Valty &&)*_First);

  00055	8b 45 08	 mov	 eax, DWORD PTR __First$[ebp]
  00058	50		 push	 eax
  00059	8b 4d 10	 mov	 ecx, DWORD PTR __Dest$[ebp]
  0005c	51		 push	 ecx
  0005d	8b 55 14	 mov	 edx, DWORD PTR __Al$[ebp]
  00060	52		 push	 edx
  00061	e8 00 00 00 00	 call	 ??$_Cons_val@V?$allocator@UGRANDSYSTEM_REWARD_DATA@@@std@@UGRANDSYSTEM_REWARD_DATA@@U3@@std@@YAXAAV?$allocator@UGRANDSYSTEM_REWARD_DATA@@@0@PAUGRANDSYSTEM_REWARD_DATA@@$$QAU2@@Z ; std::_Cons_val<std::allocator<GRANDSYSTEM_REWARD_DATA>,GRANDSYSTEM_REWARD_DATA,GRANDSYSTEM_REWARD_DATA>
  00066	83 c4 0c	 add	 esp, 12			; 0000000cH
  00069	eb d0		 jmp	 SHORT $LN5@Uninit_mov@2
$LN4@Uninit_mov@2:
  0006b	eb 3b		 jmp	 SHORT $LN10@Uninit_mov@2
__catch$??$_Uninit_move@PAUGRANDSYSTEM_REWARD_DATA@@PAU1@V?$allocator@UGRANDSYSTEM_REWARD_DATA@@@std@@U1@@std@@YAPAUGRANDSYSTEM_REWARD_DATA@@PAU1@00AAV?$allocator@UGRANDSYSTEM_REWARD_DATA@@@0@0U_Nonscalar_ptr_iterator_tag@0@@Z$0:

; 432  : 	_CATCH_ALL

  0006d	eb 09		 jmp	 SHORT $LN3@Uninit_mov@2
$LN2@Uninit_mov@2:

; 433  : 	for (; _Next != _Dest; ++_Next)

  0006f	8b 45 ec	 mov	 eax, DWORD PTR __Next$[ebp]
  00072	83 c0 24	 add	 eax, 36			; 00000024H
  00075	89 45 ec	 mov	 DWORD PTR __Next$[ebp], eax
$LN3@Uninit_mov@2:
  00078	8b 45 ec	 mov	 eax, DWORD PTR __Next$[ebp]
  0007b	3b 45 10	 cmp	 eax, DWORD PTR __Dest$[ebp]
  0007e	74 12		 je	 SHORT $LN1@Uninit_mov@2

; 434  : 		_Dest_val(_Al, _Next);

  00080	8b 45 ec	 mov	 eax, DWORD PTR __Next$[ebp]
  00083	50		 push	 eax
  00084	8b 4d 14	 mov	 ecx, DWORD PTR __Al$[ebp]
  00087	51		 push	 ecx
  00088	e8 00 00 00 00	 call	 ??$_Dest_val@V?$allocator@UGRANDSYSTEM_REWARD_DATA@@@std@@UGRANDSYSTEM_REWARD_DATA@@@std@@YAXAAV?$allocator@UGRANDSYSTEM_REWARD_DATA@@@0@PAUGRANDSYSTEM_REWARD_DATA@@@Z ; std::_Dest_val<std::allocator<GRANDSYSTEM_REWARD_DATA>,GRANDSYSTEM_REWARD_DATA>
  0008d	83 c4 08	 add	 esp, 8
  00090	eb dd		 jmp	 SHORT $LN2@Uninit_mov@2
$LN1@Uninit_mov@2:

; 435  : 	_RERAISE;

  00092	6a 00		 push	 0
  00094	6a 00		 push	 0
  00096	e8 00 00 00 00	 call	 __CxxThrowException@8

; 436  : 	_CATCH_END

  0009b	c7 45 fc ff ff
	ff ff		 mov	 DWORD PTR __$EHRec$[ebp+12], -1
  000a2	b8 00 00 00 00	 mov	 eax, __tryend$??$_Uninit_move@PAUGRANDSYSTEM_REWARD_DATA@@PAU1@V?$allocator@UGRANDSYSTEM_REWARD_DATA@@@std@@U1@@std@@YAPAUGRANDSYSTEM_REWARD_DATA@@PAU1@00AAV?$allocator@UGRANDSYSTEM_REWARD_DATA@@@0@0U_Nonscalar_ptr_iterator_tag@0@@Z$1
  000a7	c3		 ret	 0
$LN10@Uninit_mov@2:
  000a8	c7 45 fc ff ff
	ff ff		 mov	 DWORD PTR __$EHRec$[ebp+12], -1
__tryend$??$_Uninit_move@PAUGRANDSYSTEM_REWARD_DATA@@PAU1@V?$allocator@UGRANDSYSTEM_REWARD_DATA@@@std@@U1@@std@@YAPAUGRANDSYSTEM_REWARD_DATA@@PAU1@00AAV?$allocator@UGRANDSYSTEM_REWARD_DATA@@@0@0U_Nonscalar_ptr_iterator_tag@0@@Z$1:

; 437  : 	return (_Dest);

  000af	8b 45 10	 mov	 eax, DWORD PTR __Dest$[ebp]
$LN9@Uninit_mov@2:

; 438  : 	}

  000b2	8b 4d f4	 mov	 ecx, DWORD PTR __$EHRec$[ebp+4]
  000b5	64 89 0d 00 00
	00 00		 mov	 DWORD PTR fs:0, ecx
  000bc	59		 pop	 ecx
  000bd	5f		 pop	 edi
  000be	5e		 pop	 esi
  000bf	5b		 pop	 ebx
  000c0	8b e5		 mov	 esp, ebp
  000c2	5d		 pop	 ebp
  000c3	c3		 ret	 0
_TEXT	ENDS
;	COMDAT text$x
text$x	SEGMENT
__ehhandler$??$_Uninit_move@PAUGRANDSYSTEM_REWARD_DATA@@PAU1@V?$allocator@UGRANDSYSTEM_REWARD_DATA@@@std@@U1@@std@@YAPAUGRANDSYSTEM_REWARD_DATA@@PAU1@00AAV?$allocator@UGRANDSYSTEM_REWARD_DATA@@@0@0U_Nonscalar_ptr_iterator_tag@0@@Z:
  00000	8b 54 24 08	 mov	 edx, DWORD PTR [esp+8]
  00004	8d 42 0c	 lea	 eax, DWORD PTR [edx+12]
  00007	8b 4a a8	 mov	 ecx, DWORD PTR [edx-88]
  0000a	33 c8		 xor	 ecx, eax
  0000c	e8 00 00 00 00	 call	 @__security_check_cookie@4
  00011	b8 00 00 00 00	 mov	 eax, OFFSET __ehfuncinfo$??$_Uninit_move@PAUGRANDSYSTEM_REWARD_DATA@@PAU1@V?$allocator@UGRANDSYSTEM_REWARD_DATA@@@std@@U1@@std@@YAPAUGRANDSYSTEM_REWARD_DATA@@PAU1@00AAV?$allocator@UGRANDSYSTEM_REWARD_DATA@@@0@0U_Nonscalar_ptr_iterator_tag@0@@Z
  00016	e9 00 00 00 00	 jmp	 ___CxxFrameHandler3
text$x	ENDS
??$_Uninit_move@PAUGRANDSYSTEM_REWARD_DATA@@PAU1@V?$allocator@UGRANDSYSTEM_REWARD_DATA@@@std@@U1@@std@@YAPAUGRANDSYSTEM_REWARD_DATA@@PAU1@00AAV?$allocator@UGRANDSYSTEM_REWARD_DATA@@@0@0U_Nonscalar_ptr_iterator_tag@0@@Z ENDP ; std::_Uninit_move<GRANDSYSTEM_REWARD_DATA *,GRANDSYSTEM_REWARD_DATA *,std::allocator<GRANDSYSTEM_REWARD_DATA>,GRANDSYSTEM_REWARD_DATA>
PUBLIC	?destroy@?$allocator@UGRANDSYSTEM_REWARD_DATA@@@std@@QAEXPAUGRANDSYSTEM_REWARD_DATA@@@Z ; std::allocator<GRANDSYSTEM_REWARD_DATA>::destroy
; Function compile flags: /Odtp /ZI
; File d:\microsoft visual studio 10.0\vc\include\xmemory
;	COMDAT ??$_Dest_val@V?$allocator@UGRANDSYSTEM_REWARD_DATA@@@std@@UGRANDSYSTEM_REWARD_DATA@@@std@@YAXAAV?$allocator@UGRANDSYSTEM_REWARD_DATA@@@0@PAUGRANDSYSTEM_REWARD_DATA@@@Z
_TEXT	SEGMENT
__Alval$ = 8						; size = 4
__Pdest$ = 12						; size = 4
??$_Dest_val@V?$allocator@UGRANDSYSTEM_REWARD_DATA@@@std@@UGRANDSYSTEM_REWARD_DATA@@@std@@YAXAAV?$allocator@UGRANDSYSTEM_REWARD_DATA@@@0@PAUGRANDSYSTEM_REWARD_DATA@@@Z PROC ; std::_Dest_val<std::allocator<GRANDSYSTEM_REWARD_DATA>,GRANDSYSTEM_REWARD_DATA>, COMDAT

; 286  : 	{	// destroy using allocator

  00000	55		 push	 ebp
  00001	8b ec		 mov	 ebp, esp
  00003	83 ec 40	 sub	 esp, 64			; 00000040H
  00006	53		 push	 ebx
  00007	56		 push	 esi
  00008	57		 push	 edi

; 287  : 	_Alval.destroy(_Pdest);

  00009	8b 45 0c	 mov	 eax, DWORD PTR __Pdest$[ebp]
  0000c	50		 push	 eax
  0000d	8b 4d 08	 mov	 ecx, DWORD PTR __Alval$[ebp]
  00010	e8 00 00 00 00	 call	 ?destroy@?$allocator@UGRANDSYSTEM_REWARD_DATA@@@std@@QAEXPAUGRANDSYSTEM_REWARD_DATA@@@Z ; std::allocator<GRANDSYSTEM_REWARD_DATA>::destroy

; 288  : 	}

  00015	5f		 pop	 edi
  00016	5e		 pop	 esi
  00017	5b		 pop	 ebx
  00018	8b e5		 mov	 esp, ebp
  0001a	5d		 pop	 ebp
  0001b	c3		 ret	 0
??$_Dest_val@V?$allocator@UGRANDSYSTEM_REWARD_DATA@@@std@@UGRANDSYSTEM_REWARD_DATA@@@std@@YAXAAV?$allocator@UGRANDSYSTEM_REWARD_DATA@@@0@PAUGRANDSYSTEM_REWARD_DATA@@@Z ENDP ; std::_Dest_val<std::allocator<GRANDSYSTEM_REWARD_DATA>,GRANDSYSTEM_REWARD_DATA>
_TEXT	ENDS
PUBLIC	??$_Destroy@UGrandResetEXP@@@std@@YAXPAUGrandResetEXP@@@Z ; std::_Destroy<GrandResetEXP>
; Function compile flags: /Odtp /ZI
;	COMDAT ?destroy@?$allocator@UGrandResetEXP@@@std@@QAEXPAUGrandResetEXP@@@Z
_TEXT	SEGMENT
_this$ = -4						; size = 4
__Ptr$ = 8						; size = 4
?destroy@?$allocator@UGrandResetEXP@@@std@@QAEXPAUGrandResetEXP@@@Z PROC ; std::allocator<GrandResetEXP>::destroy, COMDAT
; _this$ = ecx

; 212  : 		{	// destroy object at _Ptr

  00000	55		 push	 ebp
  00001	8b ec		 mov	 ebp, esp
  00003	83 ec 44	 sub	 esp, 68			; 00000044H
  00006	53		 push	 ebx
  00007	56		 push	 esi
  00008	57		 push	 edi
  00009	89 4d fc	 mov	 DWORD PTR _this$[ebp], ecx

; 213  : 		_Destroy(_Ptr);

  0000c	8b 45 08	 mov	 eax, DWORD PTR __Ptr$[ebp]
  0000f	50		 push	 eax
  00010	e8 00 00 00 00	 call	 ??$_Destroy@UGrandResetEXP@@@std@@YAXPAUGrandResetEXP@@@Z ; std::_Destroy<GrandResetEXP>
  00015	83 c4 04	 add	 esp, 4

; 214  : 		}

  00018	5f		 pop	 edi
  00019	5e		 pop	 esi
  0001a	5b		 pop	 ebx
  0001b	8b e5		 mov	 esp, ebp
  0001d	5d		 pop	 ebp
  0001e	c2 04 00	 ret	 4
?destroy@?$allocator@UGrandResetEXP@@@std@@QAEXPAUGrandResetEXP@@@Z ENDP ; std::allocator<GrandResetEXP>::destroy
_TEXT	ENDS
PUBLIC	??$_Destroy@UGRANDSYSTEM_REWARD_DATA@@@std@@YAXPAUGRANDSYSTEM_REWARD_DATA@@@Z ; std::_Destroy<GRANDSYSTEM_REWARD_DATA>
; Function compile flags: /Odtp /ZI
;	COMDAT ?destroy@?$allocator@UGRANDSYSTEM_REWARD_DATA@@@std@@QAEXPAUGRANDSYSTEM_REWARD_DATA@@@Z
_TEXT	SEGMENT
_this$ = -4						; size = 4
__Ptr$ = 8						; size = 4
?destroy@?$allocator@UGRANDSYSTEM_REWARD_DATA@@@std@@QAEXPAUGRANDSYSTEM_REWARD_DATA@@@Z PROC ; std::allocator<GRANDSYSTEM_REWARD_DATA>::destroy, COMDAT
; _this$ = ecx

; 212  : 		{	// destroy object at _Ptr

  00000	55		 push	 ebp
  00001	8b ec		 mov	 ebp, esp
  00003	83 ec 44	 sub	 esp, 68			; 00000044H
  00006	53		 push	 ebx
  00007	56		 push	 esi
  00008	57		 push	 edi
  00009	89 4d fc	 mov	 DWORD PTR _this$[ebp], ecx

; 213  : 		_Destroy(_Ptr);

  0000c	8b 45 08	 mov	 eax, DWORD PTR __Ptr$[ebp]
  0000f	50		 push	 eax
  00010	e8 00 00 00 00	 call	 ??$_Destroy@UGRANDSYSTEM_REWARD_DATA@@@std@@YAXPAUGRANDSYSTEM_REWARD_DATA@@@Z ; std::_Destroy<GRANDSYSTEM_REWARD_DATA>
  00015	83 c4 04	 add	 esp, 4

; 214  : 		}

  00018	5f		 pop	 edi
  00019	5e		 pop	 esi
  0001a	5b		 pop	 ebx
  0001b	8b e5		 mov	 esp, ebp
  0001d	5d		 pop	 ebp
  0001e	c2 04 00	 ret	 4
?destroy@?$allocator@UGRANDSYSTEM_REWARD_DATA@@@std@@QAEXPAUGRANDSYSTEM_REWARD_DATA@@@Z ENDP ; std::allocator<GRANDSYSTEM_REWARD_DATA>::destroy
_TEXT	ENDS
PUBLIC	?construct@?$allocator@UGrandResetEXP@@@std@@QAEXPAUGrandResetEXP@@$$QAU3@@Z ; std::allocator<GrandResetEXP>::construct
PUBLIC	??$forward@UGrandResetEXP@@@std@@YA$$QAUGrandResetEXP@@AAU1@@Z ; std::forward<GrandResetEXP>
; Function compile flags: /Odtp /ZI
;	COMDAT ??$_Cons_val@V?$allocator@UGrandResetEXP@@@std@@UGrandResetEXP@@U3@@std@@YAXAAV?$allocator@UGrandResetEXP@@@0@PAUGrandResetEXP@@$$QAU2@@Z
_TEXT	SEGMENT
__Alval$ = 8						; size = 4
__Pdest$ = 12						; size = 4
__Src$ = 16						; size = 4
??$_Cons_val@V?$allocator@UGrandResetEXP@@@std@@UGrandResetEXP@@U3@@std@@YAXAAV?$allocator@UGrandResetEXP@@@0@PAUGrandResetEXP@@$$QAU2@@Z PROC ; std::_Cons_val<std::allocator<GrandResetEXP>,GrandResetEXP,GrandResetEXP>, COMDAT

; 279  : 	{	// construct using allocator

  00000	55		 push	 ebp
  00001	8b ec		 mov	 ebp, esp
  00003	83 ec 40	 sub	 esp, 64			; 00000040H
  00006	53		 push	 ebx
  00007	56		 push	 esi
  00008	57		 push	 edi

; 280  : 	_Alval.construct(_Pdest, _STD forward<_Ty2>(_Src));

  00009	8b 45 10	 mov	 eax, DWORD PTR __Src$[ebp]
  0000c	50		 push	 eax
  0000d	e8 00 00 00 00	 call	 ??$forward@UGrandResetEXP@@@std@@YA$$QAUGrandResetEXP@@AAU1@@Z ; std::forward<GrandResetEXP>
  00012	83 c4 04	 add	 esp, 4
  00015	50		 push	 eax
  00016	8b 4d 0c	 mov	 ecx, DWORD PTR __Pdest$[ebp]
  00019	51		 push	 ecx
  0001a	8b 4d 08	 mov	 ecx, DWORD PTR __Alval$[ebp]
  0001d	e8 00 00 00 00	 call	 ?construct@?$allocator@UGrandResetEXP@@@std@@QAEXPAUGrandResetEXP@@$$QAU3@@Z ; std::allocator<GrandResetEXP>::construct

; 281  : 	}

  00022	5f		 pop	 edi
  00023	5e		 pop	 esi
  00024	5b		 pop	 ebx
  00025	8b e5		 mov	 esp, ebp
  00027	5d		 pop	 ebp
  00028	c3		 ret	 0
??$_Cons_val@V?$allocator@UGrandResetEXP@@@std@@UGrandResetEXP@@U3@@std@@YAXAAV?$allocator@UGrandResetEXP@@@0@PAUGrandResetEXP@@$$QAU2@@Z ENDP ; std::_Cons_val<std::allocator<GrandResetEXP>,GrandResetEXP,GrandResetEXP>
_TEXT	ENDS
PUBLIC	?construct@?$allocator@UGRANDSYSTEM_REWARD_DATA@@@std@@QAEXPAUGRANDSYSTEM_REWARD_DATA@@$$QAU3@@Z ; std::allocator<GRANDSYSTEM_REWARD_DATA>::construct
PUBLIC	??$forward@UGRANDSYSTEM_REWARD_DATA@@@std@@YA$$QAUGRANDSYSTEM_REWARD_DATA@@AAU1@@Z ; std::forward<GRANDSYSTEM_REWARD_DATA>
; Function compile flags: /Odtp /ZI
;	COMDAT ??$_Cons_val@V?$allocator@UGRANDSYSTEM_REWARD_DATA@@@std@@UGRANDSYSTEM_REWARD_DATA@@U3@@std@@YAXAAV?$allocator@UGRANDSYSTEM_REWARD_DATA@@@0@PAUGRANDSYSTEM_REWARD_DATA@@$$QAU2@@Z
_TEXT	SEGMENT
__Alval$ = 8						; size = 4
__Pdest$ = 12						; size = 4
__Src$ = 16						; size = 4
??$_Cons_val@V?$allocator@UGRANDSYSTEM_REWARD_DATA@@@std@@UGRANDSYSTEM_REWARD_DATA@@U3@@std@@YAXAAV?$allocator@UGRANDSYSTEM_REWARD_DATA@@@0@PAUGRANDSYSTEM_REWARD_DATA@@$$QAU2@@Z PROC ; std::_Cons_val<std::allocator<GRANDSYSTEM_REWARD_DATA>,GRANDSYSTEM_REWARD_DATA,GRANDSYSTEM_REWARD_DATA>, COMDAT

; 279  : 	{	// construct using allocator

  00000	55		 push	 ebp
  00001	8b ec		 mov	 ebp, esp
  00003	83 ec 40	 sub	 esp, 64			; 00000040H
  00006	53		 push	 ebx
  00007	56		 push	 esi
  00008	57		 push	 edi

; 280  : 	_Alval.construct(_Pdest, _STD forward<_Ty2>(_Src));

  00009	8b 45 10	 mov	 eax, DWORD PTR __Src$[ebp]
  0000c	50		 push	 eax
  0000d	e8 00 00 00 00	 call	 ??$forward@UGRANDSYSTEM_REWARD_DATA@@@std@@YA$$QAUGRANDSYSTEM_REWARD_DATA@@AAU1@@Z ; std::forward<GRANDSYSTEM_REWARD_DATA>
  00012	83 c4 04	 add	 esp, 4
  00015	50		 push	 eax
  00016	8b 4d 0c	 mov	 ecx, DWORD PTR __Pdest$[ebp]
  00019	51		 push	 ecx
  0001a	8b 4d 08	 mov	 ecx, DWORD PTR __Alval$[ebp]
  0001d	e8 00 00 00 00	 call	 ?construct@?$allocator@UGRANDSYSTEM_REWARD_DATA@@@std@@QAEXPAUGRANDSYSTEM_REWARD_DATA@@$$QAU3@@Z ; std::allocator<GRANDSYSTEM_REWARD_DATA>::construct

; 281  : 	}

  00022	5f		 pop	 edi
  00023	5e		 pop	 esi
  00024	5b		 pop	 ebx
  00025	8b e5		 mov	 esp, ebp
  00027	5d		 pop	 ebp
  00028	c3		 ret	 0
??$_Cons_val@V?$allocator@UGRANDSYSTEM_REWARD_DATA@@@std@@UGRANDSYSTEM_REWARD_DATA@@U3@@std@@YAXAAV?$allocator@UGRANDSYSTEM_REWARD_DATA@@@0@PAUGRANDSYSTEM_REWARD_DATA@@$$QAU2@@Z ENDP ; std::_Cons_val<std::allocator<GRANDSYSTEM_REWARD_DATA>,GRANDSYSTEM_REWARD_DATA,GRANDSYSTEM_REWARD_DATA>
; Function compile flags: /Odtp /ZI
_TEXT	ENDS
;	COMDAT ??$_Destroy@UGrandResetEXP@@@std@@YAXPAUGrandResetEXP@@@Z
_TEXT	SEGMENT
__Ptr$ = 8						; size = 4
??$_Destroy@UGrandResetEXP@@@std@@YAXPAUGrandResetEXP@@@Z PROC ; std::_Destroy<GrandResetEXP>, COMDAT

; 62   : 	{	// destroy object at _Ptr

  00000	55		 push	 ebp
  00001	8b ec		 mov	 ebp, esp
  00003	83 ec 40	 sub	 esp, 64			; 00000040H
  00006	53		 push	 ebx
  00007	56		 push	 esi
  00008	57		 push	 edi

; 63   : 	_Ptr->~_Ty();
; 64   : 	}

  00009	5f		 pop	 edi
  0000a	5e		 pop	 esi
  0000b	5b		 pop	 ebx
  0000c	8b e5		 mov	 esp, ebp
  0000e	5d		 pop	 ebp
  0000f	c3		 ret	 0
??$_Destroy@UGrandResetEXP@@@std@@YAXPAUGrandResetEXP@@@Z ENDP ; std::_Destroy<GrandResetEXP>
; Function compile flags: /Odtp /ZI
_TEXT	ENDS
;	COMDAT ??$_Destroy@UGRANDSYSTEM_REWARD_DATA@@@std@@YAXPAUGRANDSYSTEM_REWARD_DATA@@@Z
_TEXT	SEGMENT
__Ptr$ = 8						; size = 4
??$_Destroy@UGRANDSYSTEM_REWARD_DATA@@@std@@YAXPAUGRANDSYSTEM_REWARD_DATA@@@Z PROC ; std::_Destroy<GRANDSYSTEM_REWARD_DATA>, COMDAT

; 62   : 	{	// destroy object at _Ptr

  00000	55		 push	 ebp
  00001	8b ec		 mov	 ebp, esp
  00003	83 ec 40	 sub	 esp, 64			; 00000040H
  00006	53		 push	 ebx
  00007	56		 push	 esi
  00008	57		 push	 edi

; 63   : 	_Ptr->~_Ty();
; 64   : 	}

  00009	5f		 pop	 edi
  0000a	5e		 pop	 esi
  0000b	5b		 pop	 ebx
  0000c	8b e5		 mov	 esp, ebp
  0000e	5d		 pop	 ebp
  0000f	c3		 ret	 0
??$_Destroy@UGRANDSYSTEM_REWARD_DATA@@@std@@YAXPAUGRANDSYSTEM_REWARD_DATA@@@Z ENDP ; std::_Destroy<GRANDSYSTEM_REWARD_DATA>
_TEXT	ENDS
;	COMDAT xdata$x
xdata$x	SEGMENT
__unwindtable$?construct@?$allocator@UGrandResetEXP@@@std@@QAEXPAUGrandResetEXP@@$$QAU3@@Z DD 0ffffffffH
	DD	FLAT:__unwindfunclet$?construct@?$allocator@UGrandResetEXP@@@std@@QAEXPAUGrandResetEXP@@$$QAU3@@Z$0
__ehfuncinfo$?construct@?$allocator@UGrandResetEXP@@@std@@QAEXPAUGrandResetEXP@@$$QAU3@@Z DD 019930522H
	DD	01H
	DD	FLAT:__unwindtable$?construct@?$allocator@UGrandResetEXP@@@std@@QAEXPAUGrandResetEXP@@$$QAU3@@Z
	DD	2 DUP(00H)
	DD	2 DUP(00H)
	DD	00H
	DD	01H
; Function compile flags: /Odtp /ZI
xdata$x	ENDS
;	COMDAT ?construct@?$allocator@UGrandResetEXP@@@std@@QAEXPAUGrandResetEXP@@$$QAU3@@Z
_TEXT	SEGMENT
tv74 = -92						; size = 4
$T233872 = -88						; size = 4
$T233873 = -84						; size = 4
_this$ = -16						; size = 4
__$EHRec$ = -12						; size = 12
__Ptr$ = 8						; size = 4
__Val$ = 12						; size = 4
?construct@?$allocator@UGrandResetEXP@@@std@@QAEXPAUGrandResetEXP@@$$QAU3@@Z PROC ; std::allocator<GrandResetEXP>::construct, COMDAT
; _this$ = ecx

; 201  : 		{	// construct object at _Ptr with value _Val

  00000	55		 push	 ebp
  00001	8b ec		 mov	 ebp, esp
  00003	6a ff		 push	 -1
  00005	68 00 00 00 00	 push	 __ehhandler$?construct@?$allocator@UGrandResetEXP@@@std@@QAEXPAUGrandResetEXP@@$$QAU3@@Z
  0000a	64 a1 00 00 00
	00		 mov	 eax, DWORD PTR fs:0
  00010	50		 push	 eax
  00011	83 ec 50	 sub	 esp, 80			; 00000050H
  00014	53		 push	 ebx
  00015	56		 push	 esi
  00016	57		 push	 edi
  00017	a1 00 00 00 00	 mov	 eax, DWORD PTR ___security_cookie
  0001c	33 c5		 xor	 eax, ebp
  0001e	50		 push	 eax
  0001f	8d 45 f4	 lea	 eax, DWORD PTR __$EHRec$[ebp]
  00022	64 a3 00 00 00
	00		 mov	 DWORD PTR fs:0, eax
  00028	89 4d f0	 mov	 DWORD PTR _this$[ebp], ecx

; 202  : 		::new ((void _FARQ *)_Ptr) _Ty(_STD forward<_Ty>(_Val));

  0002b	8b 45 08	 mov	 eax, DWORD PTR __Ptr$[ebp]
  0002e	50		 push	 eax
  0002f	6a 08		 push	 8
  00031	e8 00 00 00 00	 call	 ??2@YAPAXIPAX@Z		; operator new
  00036	83 c4 08	 add	 esp, 8
  00039	89 45 ac	 mov	 DWORD PTR $T233873[ebp], eax
  0003c	c7 45 fc 00 00
	00 00		 mov	 DWORD PTR __$EHRec$[ebp+8], 0
  00043	83 7d ac 00	 cmp	 DWORD PTR $T233873[ebp], 0
  00047	74 21		 je	 SHORT $LN3@construct@3
  00049	8b 4d 0c	 mov	 ecx, DWORD PTR __Val$[ebp]
  0004c	51		 push	 ecx
  0004d	e8 00 00 00 00	 call	 ??$forward@UGrandResetEXP@@@std@@YA$$QAUGrandResetEXP@@AAU1@@Z ; std::forward<GrandResetEXP>
  00052	83 c4 04	 add	 esp, 4
  00055	8b 10		 mov	 edx, DWORD PTR [eax]
  00057	8b 40 04	 mov	 eax, DWORD PTR [eax+4]
  0005a	8b 4d ac	 mov	 ecx, DWORD PTR $T233873[ebp]
  0005d	89 11		 mov	 DWORD PTR [ecx], edx
  0005f	89 41 04	 mov	 DWORD PTR [ecx+4], eax
  00062	8b 55 ac	 mov	 edx, DWORD PTR $T233873[ebp]
  00065	89 55 a4	 mov	 DWORD PTR tv74[ebp], edx
  00068	eb 07		 jmp	 SHORT $LN4@construct@3
$LN3@construct@3:
  0006a	c7 45 a4 00 00
	00 00		 mov	 DWORD PTR tv74[ebp], 0
$LN4@construct@3:
  00071	8b 45 a4	 mov	 eax, DWORD PTR tv74[ebp]
  00074	89 45 a8	 mov	 DWORD PTR $T233872[ebp], eax
  00077	c7 45 fc ff ff
	ff ff		 mov	 DWORD PTR __$EHRec$[ebp+8], -1

; 203  : 		}

  0007e	8b 4d f4	 mov	 ecx, DWORD PTR __$EHRec$[ebp]
  00081	64 89 0d 00 00
	00 00		 mov	 DWORD PTR fs:0, ecx
  00088	59		 pop	 ecx
  00089	5f		 pop	 edi
  0008a	5e		 pop	 esi
  0008b	5b		 pop	 ebx
  0008c	8b e5		 mov	 esp, ebp
  0008e	5d		 pop	 ebp
  0008f	c2 08 00	 ret	 8
_TEXT	ENDS
;	COMDAT text$x
text$x	SEGMENT
__unwindfunclet$?construct@?$allocator@UGrandResetEXP@@@std@@QAEXPAUGrandResetEXP@@$$QAU3@@Z$0:
  00000	8b 45 08	 mov	 eax, DWORD PTR __Ptr$[ebp]
  00003	50		 push	 eax
  00004	8b 4d ac	 mov	 ecx, DWORD PTR $T233873[ebp]
  00007	51		 push	 ecx
  00008	e8 00 00 00 00	 call	 ??3@YAXPAX0@Z		; operator delete
  0000d	83 c4 08	 add	 esp, 8
  00010	c3		 ret	 0
__ehhandler$?construct@?$allocator@UGrandResetEXP@@@std@@QAEXPAUGrandResetEXP@@$$QAU3@@Z:
  00011	8b 54 24 08	 mov	 edx, DWORD PTR [esp+8]
  00015	8d 42 0c	 lea	 eax, DWORD PTR [edx+12]
  00018	8b 4a a0	 mov	 ecx, DWORD PTR [edx-96]
  0001b	33 c8		 xor	 ecx, eax
  0001d	e8 00 00 00 00	 call	 @__security_check_cookie@4
  00022	b8 00 00 00 00	 mov	 eax, OFFSET __ehfuncinfo$?construct@?$allocator@UGrandResetEXP@@@std@@QAEXPAUGrandResetEXP@@$$QAU3@@Z
  00027	e9 00 00 00 00	 jmp	 ___CxxFrameHandler3
text$x	ENDS
?construct@?$allocator@UGrandResetEXP@@@std@@QAEXPAUGrandResetEXP@@$$QAU3@@Z ENDP ; std::allocator<GrandResetEXP>::construct
;	COMDAT xdata$x
xdata$x	SEGMENT
__unwindtable$?construct@?$allocator@UGRANDSYSTEM_REWARD_DATA@@@std@@QAEXPAUGRANDSYSTEM_REWARD_DATA@@$$QAU3@@Z DD 0ffffffffH
	DD	FLAT:__unwindfunclet$?construct@?$allocator@UGRANDSYSTEM_REWARD_DATA@@@std@@QAEXPAUGRANDSYSTEM_REWARD_DATA@@$$QAU3@@Z$0
__ehfuncinfo$?construct@?$allocator@UGRANDSYSTEM_REWARD_DATA@@@std@@QAEXPAUGRANDSYSTEM_REWARD_DATA@@$$QAU3@@Z DD 019930522H
	DD	01H
	DD	FLAT:__unwindtable$?construct@?$allocator@UGRANDSYSTEM_REWARD_DATA@@@std@@QAEXPAUGRANDSYSTEM_REWARD_DATA@@$$QAU3@@Z
	DD	2 DUP(00H)
	DD	2 DUP(00H)
	DD	00H
	DD	01H
; Function compile flags: /Odtp /ZI
xdata$x	ENDS
;	COMDAT ?construct@?$allocator@UGRANDSYSTEM_REWARD_DATA@@@std@@QAEXPAUGRANDSYSTEM_REWARD_DATA@@$$QAU3@@Z
_TEXT	SEGMENT
tv74 = -92						; size = 4
$T233885 = -88						; size = 4
$T233886 = -84						; size = 4
_this$ = -16						; size = 4
__$EHRec$ = -12						; size = 12
__Ptr$ = 8						; size = 4
__Val$ = 12						; size = 4
?construct@?$allocator@UGRANDSYSTEM_REWARD_DATA@@@std@@QAEXPAUGRANDSYSTEM_REWARD_DATA@@$$QAU3@@Z PROC ; std::allocator<GRANDSYSTEM_REWARD_DATA>::construct, COMDAT
; _this$ = ecx

; 201  : 		{	// construct object at _Ptr with value _Val

  00000	55		 push	 ebp
  00001	8b ec		 mov	 ebp, esp
  00003	6a ff		 push	 -1
  00005	68 00 00 00 00	 push	 __ehhandler$?construct@?$allocator@UGRANDSYSTEM_REWARD_DATA@@@std@@QAEXPAUGRANDSYSTEM_REWARD_DATA@@$$QAU3@@Z
  0000a	64 a1 00 00 00
	00		 mov	 eax, DWORD PTR fs:0
  00010	50		 push	 eax
  00011	83 ec 50	 sub	 esp, 80			; 00000050H
  00014	53		 push	 ebx
  00015	56		 push	 esi
  00016	57		 push	 edi
  00017	a1 00 00 00 00	 mov	 eax, DWORD PTR ___security_cookie
  0001c	33 c5		 xor	 eax, ebp
  0001e	50		 push	 eax
  0001f	8d 45 f4	 lea	 eax, DWORD PTR __$EHRec$[ebp]
  00022	64 a3 00 00 00
	00		 mov	 DWORD PTR fs:0, eax
  00028	89 4d f0	 mov	 DWORD PTR _this$[ebp], ecx

; 202  : 		::new ((void _FARQ *)_Ptr) _Ty(_STD forward<_Ty>(_Val));

  0002b	8b 45 08	 mov	 eax, DWORD PTR __Ptr$[ebp]
  0002e	50		 push	 eax
  0002f	6a 24		 push	 36			; 00000024H
  00031	e8 00 00 00 00	 call	 ??2@YAPAXIPAX@Z		; operator new
  00036	83 c4 08	 add	 esp, 8
  00039	89 45 ac	 mov	 DWORD PTR $T233886[ebp], eax
  0003c	c7 45 fc 00 00
	00 00		 mov	 DWORD PTR __$EHRec$[ebp+8], 0
  00043	83 7d ac 00	 cmp	 DWORD PTR $T233886[ebp], 0
  00047	74 20		 je	 SHORT $LN3@construct@4
  00049	8b 4d 0c	 mov	 ecx, DWORD PTR __Val$[ebp]
  0004c	51		 push	 ecx
  0004d	e8 00 00 00 00	 call	 ??$forward@UGRANDSYSTEM_REWARD_DATA@@@std@@YA$$QAUGRANDSYSTEM_REWARD_DATA@@AAU1@@Z ; std::forward<GRANDSYSTEM_REWARD_DATA>
  00052	83 c4 04	 add	 esp, 4
  00055	b9 09 00 00 00	 mov	 ecx, 9
  0005a	8b f0		 mov	 esi, eax
  0005c	8b 7d ac	 mov	 edi, DWORD PTR $T233886[ebp]
  0005f	f3 a5		 rep movsd
  00061	8b 55 ac	 mov	 edx, DWORD PTR $T233886[ebp]
  00064	89 55 a4	 mov	 DWORD PTR tv74[ebp], edx
  00067	eb 07		 jmp	 SHORT $LN4@construct@4
$LN3@construct@4:
  00069	c7 45 a4 00 00
	00 00		 mov	 DWORD PTR tv74[ebp], 0
$LN4@construct@4:
  00070	8b 45 a4	 mov	 eax, DWORD PTR tv74[ebp]
  00073	89 45 a8	 mov	 DWORD PTR $T233885[ebp], eax
  00076	c7 45 fc ff ff
	ff ff		 mov	 DWORD PTR __$EHRec$[ebp+8], -1

; 203  : 		}

  0007d	8b 4d f4	 mov	 ecx, DWORD PTR __$EHRec$[ebp]
  00080	64 89 0d 00 00
	00 00		 mov	 DWORD PTR fs:0, ecx
  00087	59		 pop	 ecx
  00088	5f		 pop	 edi
  00089	5e		 pop	 esi
  0008a	5b		 pop	 ebx
  0008b	8b e5		 mov	 esp, ebp
  0008d	5d		 pop	 ebp
  0008e	c2 08 00	 ret	 8
_TEXT	ENDS
;	COMDAT text$x
text$x	SEGMENT
__unwindfunclet$?construct@?$allocator@UGRANDSYSTEM_REWARD_DATA@@@std@@QAEXPAUGRANDSYSTEM_REWARD_DATA@@$$QAU3@@Z$0:
  00000	8b 45 08	 mov	 eax, DWORD PTR __Ptr$[ebp]
  00003	50		 push	 eax
  00004	8b 4d ac	 mov	 ecx, DWORD PTR $T233886[ebp]
  00007	51		 push	 ecx
  00008	e8 00 00 00 00	 call	 ??3@YAXPAX0@Z		; operator delete
  0000d	83 c4 08	 add	 esp, 8
  00010	c3		 ret	 0
__ehhandler$?construct@?$allocator@UGRANDSYSTEM_REWARD_DATA@@@std@@QAEXPAUGRANDSYSTEM_REWARD_DATA@@$$QAU3@@Z:
  00011	8b 54 24 08	 mov	 edx, DWORD PTR [esp+8]
  00015	8d 42 0c	 lea	 eax, DWORD PTR [edx+12]
  00018	8b 4a a0	 mov	 ecx, DWORD PTR [edx-96]
  0001b	33 c8		 xor	 ecx, eax
  0001d	e8 00 00 00 00	 call	 @__security_check_cookie@4
  00022	b8 00 00 00 00	 mov	 eax, OFFSET __ehfuncinfo$?construct@?$allocator@UGRANDSYSTEM_REWARD_DATA@@@std@@QAEXPAUGRANDSYSTEM_REWARD_DATA@@$$QAU3@@Z
  00027	e9 00 00 00 00	 jmp	 ___CxxFrameHandler3
text$x	ENDS
?construct@?$allocator@UGRANDSYSTEM_REWARD_DATA@@@std@@QAEXPAUGRANDSYSTEM_REWARD_DATA@@$$QAU3@@Z ENDP ; std::allocator<GRANDSYSTEM_REWARD_DATA>::construct
; Function compile flags: /Odtp /ZI
; File d:\microsoft visual studio 10.0\vc\include\utility
;	COMDAT ??$forward@UGrandResetEXP@@@std@@YA$$QAUGrandResetEXP@@AAU1@@Z
_TEXT	SEGMENT
__Arg$ = 8						; size = 4
??$forward@UGrandResetEXP@@@std@@YA$$QAUGrandResetEXP@@AAU1@@Z PROC ; std::forward<GrandResetEXP>, COMDAT

; 78   : 	{	// forward _Arg, given explicitly specified type parameter

  00000	55		 push	 ebp
  00001	8b ec		 mov	 ebp, esp
  00003	83 ec 40	 sub	 esp, 64			; 00000040H
  00006	53		 push	 ebx
  00007	56		 push	 esi
  00008	57		 push	 edi

; 79   : 	return ((_Ty&&)_Arg);

  00009	8b 45 08	 mov	 eax, DWORD PTR __Arg$[ebp]

; 80   : 	}

  0000c	5f		 pop	 edi
  0000d	5e		 pop	 esi
  0000e	5b		 pop	 ebx
  0000f	8b e5		 mov	 esp, ebp
  00011	5d		 pop	 ebp
  00012	c3		 ret	 0
??$forward@UGrandResetEXP@@@std@@YA$$QAUGrandResetEXP@@AAU1@@Z ENDP ; std::forward<GrandResetEXP>
; Function compile flags: /Odtp /ZI
_TEXT	ENDS
;	COMDAT ??$forward@UGRANDSYSTEM_REWARD_DATA@@@std@@YA$$QAUGRANDSYSTEM_REWARD_DATA@@AAU1@@Z
_TEXT	SEGMENT
__Arg$ = 8						; size = 4
??$forward@UGRANDSYSTEM_REWARD_DATA@@@std@@YA$$QAUGRANDSYSTEM_REWARD_DATA@@AAU1@@Z PROC ; std::forward<GRANDSYSTEM_REWARD_DATA>, COMDAT

; 78   : 	{	// forward _Arg, given explicitly specified type parameter

  00000	55		 push	 ebp
  00001	8b ec		 mov	 ebp, esp
  00003	83 ec 40	 sub	 esp, 64			; 00000040H
  00006	53		 push	 ebx
  00007	56		 push	 esi
  00008	57		 push	 edi

; 79   : 	return ((_Ty&&)_Arg);

  00009	8b 45 08	 mov	 eax, DWORD PTR __Arg$[ebp]

; 80   : 	}

  0000c	5f		 pop	 edi
  0000d	5e		 pop	 esi
  0000e	5b		 pop	 ebx
  0000f	8b e5		 mov	 esp, ebp
  00011	5d		 pop	 ebp
  00012	c3		 ret	 0
??$forward@UGRANDSYSTEM_REWARD_DATA@@@std@@YA$$QAUGRANDSYSTEM_REWARD_DATA@@AAU1@@Z ENDP ; std::forward<GRANDSYSTEM_REWARD_DATA>
_TEXT	ENDS
PUBLIC	??_7bad_alloc@std@@6B@				; std::bad_alloc::`vftable'
PUBLIC	??_R4bad_alloc@std@@6B@				; std::bad_alloc::`RTTI Complete Object Locator'
PUBLIC	??_R3bad_alloc@std@@8				; std::bad_alloc::`RTTI Class Hierarchy Descriptor'
PUBLIC	??_R2bad_alloc@std@@8				; std::bad_alloc::`RTTI Base Class Array'
PUBLIC	??_R1A@?0A@EA@bad_alloc@std@@8			; std::bad_alloc::`RTTI Base Class Descriptor at (0,-1,0,64)'
PUBLIC	??_R1A@?0A@EA@exception@std@@8			; std::exception::`RTTI Base Class Descriptor at (0,-1,0,64)'
PUBLIC	??_R3exception@std@@8				; std::exception::`RTTI Class Hierarchy Descriptor'
PUBLIC	??_R2exception@std@@8				; std::exception::`RTTI Base Class Array'
EXTRN	??0exception@std@@QAE@ABQBD@Z:PROC		; std::exception::exception
EXTRN	??_Ebad_alloc@std@@UAEPAXI@Z:PROC		; std::bad_alloc::`vector deleting destructor'
EXTRN	?what@exception@std@@UBEPBDXZ:PROC		; std::exception::what
;	COMDAT ??_R2exception@std@@8
; File d:\microsoft visual studio 10.0\vc\include\exception
rdata$r	SEGMENT
??_R2exception@std@@8 DD FLAT:??_R1A@?0A@EA@exception@std@@8 ; std::exception::`RTTI Base Class Array'
rdata$r	ENDS
;	COMDAT ??_R3exception@std@@8
rdata$r	SEGMENT
??_R3exception@std@@8 DD 00H				; std::exception::`RTTI Class Hierarchy Descriptor'
	DD	00H
	DD	01H
	DD	FLAT:??_R2exception@std@@8
rdata$r	ENDS
;	COMDAT ??_R1A@?0A@EA@exception@std@@8
rdata$r	SEGMENT
??_R1A@?0A@EA@exception@std@@8 DD FLAT:??_R0?AVexception@std@@@8 ; std::exception::`RTTI Base Class Descriptor at (0,-1,0,64)'
	DD	00H
	DD	00H
	DD	0ffffffffH
	DD	00H
	DD	040H
	DD	FLAT:??_R3exception@std@@8
rdata$r	ENDS
;	COMDAT ??_R1A@?0A@EA@bad_alloc@std@@8
rdata$r	SEGMENT
??_R1A@?0A@EA@bad_alloc@std@@8 DD FLAT:??_R0?AVbad_alloc@std@@@8 ; std::bad_alloc::`RTTI Base Class Descriptor at (0,-1,0,64)'
	DD	01H
	DD	00H
	DD	0ffffffffH
	DD	00H
	DD	040H
	DD	FLAT:??_R3bad_alloc@std@@8
rdata$r	ENDS
;	COMDAT ??_R2bad_alloc@std@@8
rdata$r	SEGMENT
??_R2bad_alloc@std@@8 DD FLAT:??_R1A@?0A@EA@bad_alloc@std@@8 ; std::bad_alloc::`RTTI Base Class Array'
	DD	FLAT:??_R1A@?0A@EA@exception@std@@8
rdata$r	ENDS
;	COMDAT ??_R3bad_alloc@std@@8
rdata$r	SEGMENT
??_R3bad_alloc@std@@8 DD 00H				; std::bad_alloc::`RTTI Class Hierarchy Descriptor'
	DD	00H
	DD	02H
	DD	FLAT:??_R2bad_alloc@std@@8
rdata$r	ENDS
;	COMDAT ??_R4bad_alloc@std@@6B@
rdata$r	SEGMENT
??_R4bad_alloc@std@@6B@ DD 00H				; std::bad_alloc::`RTTI Complete Object Locator'
	DD	00H
	DD	00H
	DD	FLAT:??_R0?AVbad_alloc@std@@@8
	DD	FLAT:??_R3bad_alloc@std@@8
rdata$r	ENDS
;	COMDAT ??_7bad_alloc@std@@6B@
CONST	SEGMENT
??_7bad_alloc@std@@6B@ DD FLAT:??_R4bad_alloc@std@@6B@	; std::bad_alloc::`vftable'
	DD	FLAT:??_Ebad_alloc@std@@UAEPAXI@Z
	DD	FLAT:?what@exception@std@@UBEPBDXZ
; Function compile flags: /Odtp /ZI
CONST	ENDS
;	COMDAT ??0bad_alloc@std@@QAE@PBD@Z
_TEXT	SEGMENT
_this$ = -4						; size = 4
__Message$ = 8						; size = 4
??0bad_alloc@std@@QAE@PBD@Z PROC			; std::bad_alloc::bad_alloc, COMDAT
; _this$ = ecx

; 345  : 		{	// construct from message string

  00000	55		 push	 ebp
  00001	8b ec		 mov	 ebp, esp
  00003	83 ec 44	 sub	 esp, 68			; 00000044H
  00006	53		 push	 ebx
  00007	56		 push	 esi
  00008	57		 push	 edi
  00009	89 4d fc	 mov	 DWORD PTR _this$[ebp], ecx
  0000c	8d 45 08	 lea	 eax, DWORD PTR __Message$[ebp]
  0000f	50		 push	 eax
  00010	8b 4d fc	 mov	 ecx, DWORD PTR _this$[ebp]
  00013	e8 00 00 00 00	 call	 ??0exception@std@@QAE@ABQBD@Z ; std::exception::exception
  00018	8b 45 fc	 mov	 eax, DWORD PTR _this$[ebp]
  0001b	c7 00 00 00 00
	00		 mov	 DWORD PTR [eax], OFFSET ??_7bad_alloc@std@@6B@

; 346  : 		}

  00021	8b 45 fc	 mov	 eax, DWORD PTR _this$[ebp]
  00024	5f		 pop	 edi
  00025	5e		 pop	 esi
  00026	5b		 pop	 ebx
  00027	8b e5		 mov	 esp, ebp
  00029	5d		 pop	 ebp
  0002a	c2 04 00	 ret	 4
??0bad_alloc@std@@QAE@PBD@Z ENDP			; std::bad_alloc::bad_alloc
_TEXT	ENDS
EXTRN	??1exception@std@@UAE@XZ:PROC			; std::exception::~exception
; Function compile flags: /Odtp /ZI
;	COMDAT ??1bad_alloc@std@@UAE@XZ
_TEXT	SEGMENT
_this$ = -4						; size = 4
??1bad_alloc@std@@UAE@XZ PROC				; std::bad_alloc::~bad_alloc, COMDAT
; _this$ = ecx

; 354  : 		{	// destroy the object

  00000	55		 push	 ebp
  00001	8b ec		 mov	 ebp, esp
  00003	83 ec 44	 sub	 esp, 68			; 00000044H
  00006	53		 push	 ebx
  00007	56		 push	 esi
  00008	57		 push	 edi
  00009	89 4d fc	 mov	 DWORD PTR _this$[ebp], ecx
  0000c	8b 45 fc	 mov	 eax, DWORD PTR _this$[ebp]
  0000f	c7 00 00 00 00
	00		 mov	 DWORD PTR [eax], OFFSET ??_7bad_alloc@std@@6B@

; 355  : 		}

  00015	8b 4d fc	 mov	 ecx, DWORD PTR _this$[ebp]
  00018	e8 00 00 00 00	 call	 ??1exception@std@@UAE@XZ ; std::exception::~exception
  0001d	5f		 pop	 edi
  0001e	5e		 pop	 esi
  0001f	5b		 pop	 ebx
  00020	8b e5		 mov	 esp, ebp
  00022	5d		 pop	 ebp
  00023	c3		 ret	 0
??1bad_alloc@std@@UAE@XZ ENDP				; std::bad_alloc::~bad_alloc
; Function compile flags: /Odtp /ZI
_TEXT	ENDS
;	COMDAT ??_Gbad_alloc@std@@UAEPAXI@Z
_TEXT	SEGMENT
_this$ = -4						; size = 4
___flags$ = 8						; size = 4
??_Gbad_alloc@std@@UAEPAXI@Z PROC			; std::bad_alloc::`scalar deleting destructor', COMDAT
; _this$ = ecx
  00000	55		 push	 ebp
  00001	8b ec		 mov	 ebp, esp
  00003	83 ec 44	 sub	 esp, 68			; 00000044H
  00006	53		 push	 ebx
  00007	56		 push	 esi
  00008	57		 push	 edi
  00009	89 4d fc	 mov	 DWORD PTR _this$[ebp], ecx
  0000c	8b 4d fc	 mov	 ecx, DWORD PTR _this$[ebp]
  0000f	e8 00 00 00 00	 call	 ??1bad_alloc@std@@UAE@XZ ; std::bad_alloc::~bad_alloc
  00014	8b 45 08	 mov	 eax, DWORD PTR ___flags$[ebp]
  00017	83 e0 01	 and	 eax, 1
  0001a	74 0c		 je	 SHORT $LN1@scalar
  0001c	8b 45 fc	 mov	 eax, DWORD PTR _this$[ebp]
  0001f	50		 push	 eax
  00020	e8 00 00 00 00	 call	 ??3@YAXPAX@Z		; operator delete
  00025	83 c4 04	 add	 esp, 4
$LN1@scalar:
  00028	8b 45 fc	 mov	 eax, DWORD PTR _this$[ebp]
  0002b	5f		 pop	 edi
  0002c	5e		 pop	 esi
  0002d	5b		 pop	 ebx
  0002e	8b e5		 mov	 esp, ebp
  00030	5d		 pop	 ebp
  00031	c2 04 00	 ret	 4
??_Gbad_alloc@std@@UAEPAXI@Z ENDP			; std::bad_alloc::`scalar deleting destructor'
; Function compile flags: /Odtp /ZI
; File d:\microsoft visual studio 10.0\vc\include\xutility
_TEXT	ENDS
;	COMDAT ?_Orphan_all@_Container_base0@std@@QAEXXZ
_TEXT	SEGMENT
_this$ = -4						; size = 4
?_Orphan_all@_Container_base0@std@@QAEXXZ PROC		; std::_Container_base0::_Orphan_all, COMDAT
; _this$ = ecx

; 37   : 		{	// orphan all iterators

  00000	55		 push	 ebp
  00001	8b ec		 mov	 ebp, esp
  00003	83 ec 44	 sub	 esp, 68			; 00000044H
  00006	53		 push	 ebx
  00007	56		 push	 esi
  00008	57		 push	 edi
  00009	89 4d fc	 mov	 DWORD PTR _this$[ebp], ecx

; 38   : 		}

  0000c	5f		 pop	 edi
  0000d	5e		 pop	 esi
  0000e	5b		 pop	 ebx
  0000f	8b e5		 mov	 esp, ebp
  00011	5d		 pop	 ebp
  00012	c3		 ret	 0
?_Orphan_all@_Container_base0@std@@QAEXXZ ENDP		; std::_Container_base0::_Orphan_all
; Function compile flags: /Odtp /ZI
_TEXT	ENDS
;	COMDAT ?_Adopt@_Iterator_base0@std@@QAEXPBX@Z
_TEXT	SEGMENT
_this$ = -4						; size = 4
___formal$ = 8						; size = 4
?_Adopt@_Iterator_base0@std@@QAEXPBX@Z PROC		; std::_Iterator_base0::_Adopt, COMDAT
; _this$ = ecx

; 48   : 		{	// adopt this iterator by parent

  00000	55		 push	 ebp
  00001	8b ec		 mov	 ebp, esp
  00003	83 ec 44	 sub	 esp, 68			; 00000044H
  00006	53		 push	 ebx
  00007	56		 push	 esi
  00008	57		 push	 edi
  00009	89 4d fc	 mov	 DWORD PTR _this$[ebp], ecx

; 49   : 		}

  0000c	5f		 pop	 edi
  0000d	5e		 pop	 esi
  0000e	5b		 pop	 ebx
  0000f	8b e5		 mov	 esp, ebp
  00011	5d		 pop	 ebp
  00012	c2 04 00	 ret	 4
?_Adopt@_Iterator_base0@std@@QAEXPBX@Z ENDP		; std::_Iterator_base0::_Adopt
; Function compile flags: /Odtp /ZI
_TEXT	ENDS
;	COMDAT ??0bad_alloc@std@@QAE@ABV01@@Z
_TEXT	SEGMENT
_this$ = -4						; size = 4
___that$ = 8						; size = 4
??0bad_alloc@std@@QAE@ABV01@@Z PROC			; std::bad_alloc::bad_alloc, COMDAT
; _this$ = ecx
  00000	55		 push	 ebp
  00001	8b ec		 mov	 ebp, esp
  00003	83 ec 44	 sub	 esp, 68			; 00000044H
  00006	53		 push	 ebx
  00007	56		 push	 esi
  00008	57		 push	 edi
  00009	89 4d fc	 mov	 DWORD PTR _this$[ebp], ecx
  0000c	8b 45 08	 mov	 eax, DWORD PTR ___that$[ebp]
  0000f	50		 push	 eax
  00010	8b 4d fc	 mov	 ecx, DWORD PTR _this$[ebp]
  00013	e8 00 00 00 00	 call	 ??0exception@std@@QAE@ABV01@@Z ; std::exception::exception
  00018	8b 45 fc	 mov	 eax, DWORD PTR _this$[ebp]
  0001b	c7 00 00 00 00
	00		 mov	 DWORD PTR [eax], OFFSET ??_7bad_alloc@std@@6B@
  00021	8b 45 fc	 mov	 eax, DWORD PTR _this$[ebp]
  00024	5f		 pop	 edi
  00025	5e		 pop	 esi
  00026	5b		 pop	 ebx
  00027	8b e5		 mov	 esp, ebp
  00029	5d		 pop	 ebp
  0002a	c2 04 00	 ret	 4
??0bad_alloc@std@@QAE@ABV01@@Z ENDP			; std::bad_alloc::bad_alloc
_TEXT	ENDS
PUBLIC	??0cGrandReset@@QAE@XZ				; cGrandReset::cGrandReset
EXTRN	_atexit:PROC
; Function compile flags: /Odtp /ZI
; File d:\projects\exteam6.3\source\gameserver\gameserver\grandreset.cpp
;	COMDAT ??__EgGrandReset@@YAXXZ
text$yc	SEGMENT
??__EgGrandReset@@YAXXZ PROC				; `dynamic initializer for 'gGrandReset'', COMDAT

; 20   : cGrandReset gGrandReset;

  00000	55		 push	 ebp
  00001	8b ec		 mov	 ebp, esp
  00003	83 ec 40	 sub	 esp, 64			; 00000040H
  00006	53		 push	 ebx
  00007	56		 push	 esi
  00008	57		 push	 edi
  00009	b9 00 00 00 00	 mov	 ecx, OFFSET ?gGrandReset@@3VcGrandReset@@A ; gGrandReset
  0000e	e8 00 00 00 00	 call	 ??0cGrandReset@@QAE@XZ
  00013	68 00 00 00 00	 push	 OFFSET ??__FgGrandReset@@YAXXZ ; `dynamic atexit destructor for 'gGrandReset''
  00018	e8 00 00 00 00	 call	 _atexit
  0001d	83 c4 04	 add	 esp, 4
  00020	5f		 pop	 edi
  00021	5e		 pop	 esi
  00022	5b		 pop	 ebx
  00023	8b e5		 mov	 esp, ebp
  00025	5d		 pop	 ebp
  00026	c3		 ret	 0
??__EgGrandReset@@YAXXZ ENDP				; `dynamic initializer for 'gGrandReset''
text$yc	ENDS
PUBLIC	??1?$vector@UGrandResetEXP@@V?$allocator@UGrandResetEXP@@@std@@@std@@QAE@XZ ; std::vector<GrandResetEXP,std::allocator<GrandResetEXP> >::~vector<GrandResetEXP,std::allocator<GrandResetEXP> >
PUBLIC	??0?$vector@UGRANDSYSTEM_REWARD_DATA@@V?$allocator@UGRANDSYSTEM_REWARD_DATA@@@std@@@std@@QAE@XZ ; std::vector<GRANDSYSTEM_REWARD_DATA,std::allocator<GRANDSYSTEM_REWARD_DATA> >::vector<GRANDSYSTEM_REWARD_DATA,std::allocator<GRANDSYSTEM_REWARD_DATA> >
PUBLIC	??0?$vector@UGrandResetEXP@@V?$allocator@UGrandResetEXP@@@std@@@std@@QAE@XZ ; std::vector<GrandResetEXP,std::allocator<GrandResetEXP> >::vector<GrandResetEXP,std::allocator<GrandResetEXP> >
;	COMDAT xdata$x
xdata$x	SEGMENT
__unwindtable$??0cGrandReset@@QAE@XZ DD 0ffffffffH
	DD	FLAT:__unwindfunclet$??0cGrandReset@@QAE@XZ$0
__ehfuncinfo$??0cGrandReset@@QAE@XZ DD 019930522H
	DD	01H
	DD	FLAT:__unwindtable$??0cGrandReset@@QAE@XZ
	DD	2 DUP(00H)
	DD	2 DUP(00H)
	DD	00H
	DD	01H
; Function compile flags: /Odtp /ZI
xdata$x	ENDS
;	COMDAT ??0cGrandReset@@QAE@XZ
_TEXT	SEGMENT
_this$ = -16						; size = 4
__$EHRec$ = -12						; size = 12
??0cGrandReset@@QAE@XZ PROC				; cGrandReset::cGrandReset, COMDAT
; _this$ = ecx
  00000	55		 push	 ebp
  00001	8b ec		 mov	 ebp, esp
  00003	6a ff		 push	 -1
  00005	68 00 00 00 00	 push	 __ehhandler$??0cGrandReset@@QAE@XZ
  0000a	64 a1 00 00 00
	00		 mov	 eax, DWORD PTR fs:0
  00010	50		 push	 eax
  00011	83 ec 44	 sub	 esp, 68			; 00000044H
  00014	53		 push	 ebx
  00015	56		 push	 esi
  00016	57		 push	 edi
  00017	a1 00 00 00 00	 mov	 eax, DWORD PTR ___security_cookie
  0001c	33 c5		 xor	 eax, ebp
  0001e	50		 push	 eax
  0001f	8d 45 f4	 lea	 eax, DWORD PTR __$EHRec$[ebp]
  00022	64 a3 00 00 00
	00		 mov	 DWORD PTR fs:0, eax
  00028	89 4d f0	 mov	 DWORD PTR _this$[ebp], ecx
  0002b	8b 4d f0	 mov	 ecx, DWORD PTR _this$[ebp]
  0002e	81 c1 b8 00 00
	00		 add	 ecx, 184		; 000000b8H
  00034	e8 00 00 00 00	 call	 ??0?$vector@UGrandResetEXP@@V?$allocator@UGrandResetEXP@@@std@@@std@@QAE@XZ ; std::vector<GrandResetEXP,std::allocator<GrandResetEXP> >::vector<GrandResetEXP,std::allocator<GrandResetEXP> >
  00039	c7 45 fc 00 00
	00 00		 mov	 DWORD PTR __$EHRec$[ebp+8], 0
  00040	8b 4d f0	 mov	 ecx, DWORD PTR _this$[ebp]
  00043	81 c1 dc 00 00
	00		 add	 ecx, 220		; 000000dcH
  00049	e8 00 00 00 00	 call	 ??0?$vector@UGRANDSYSTEM_REWARD_DATA@@V?$allocator@UGRANDSYSTEM_REWARD_DATA@@@std@@@std@@QAE@XZ ; std::vector<GRANDSYSTEM_REWARD_DATA,std::allocator<GRANDSYSTEM_REWARD_DATA> >::vector<GRANDSYSTEM_REWARD_DATA,std::allocator<GRANDSYSTEM_REWARD_DATA> >
  0004e	c7 45 fc ff ff
	ff ff		 mov	 DWORD PTR __$EHRec$[ebp+8], -1
  00055	8b 45 f0	 mov	 eax, DWORD PTR _this$[ebp]
  00058	8b 4d f4	 mov	 ecx, DWORD PTR __$EHRec$[ebp]
  0005b	64 89 0d 00 00
	00 00		 mov	 DWORD PTR fs:0, ecx
  00062	59		 pop	 ecx
  00063	5f		 pop	 edi
  00064	5e		 pop	 esi
  00065	5b		 pop	 ebx
  00066	8b e5		 mov	 esp, ebp
  00068	5d		 pop	 ebp
  00069	c3		 ret	 0
_TEXT	ENDS
;	COMDAT text$x
text$x	SEGMENT
__unwindfunclet$??0cGrandReset@@QAE@XZ$0:
  00000	8b 4d f0	 mov	 ecx, DWORD PTR _this$[ebp]
  00003	81 c1 b8 00 00
	00		 add	 ecx, 184		; 000000b8H
  00009	e9 00 00 00 00	 jmp	 ??1?$vector@UGrandResetEXP@@V?$allocator@UGrandResetEXP@@@std@@@std@@QAE@XZ ; std::vector<GrandResetEXP,std::allocator<GrandResetEXP> >::~vector<GrandResetEXP,std::allocator<GrandResetEXP> >
__ehhandler$??0cGrandReset@@QAE@XZ:
  0000e	8b 54 24 08	 mov	 edx, DWORD PTR [esp+8]
  00012	8d 42 0c	 lea	 eax, DWORD PTR [edx+12]
  00015	8b 4a ac	 mov	 ecx, DWORD PTR [edx-84]
  00018	33 c8		 xor	 ecx, eax
  0001a	e8 00 00 00 00	 call	 @__security_check_cookie@4
  0001f	b8 00 00 00 00	 mov	 eax, OFFSET __ehfuncinfo$??0cGrandReset@@QAE@XZ
  00024	e9 00 00 00 00	 jmp	 ___CxxFrameHandler3
text$x	ENDS
??0cGrandReset@@QAE@XZ ENDP				; cGrandReset::cGrandReset
PUBLIC	??0?$_Vector_val@UGrandResetEXP@@V?$allocator@UGrandResetEXP@@@std@@@std@@QAE@V?$allocator@UGrandResetEXP@@@1@@Z ; std::_Vector_val<GrandResetEXP,std::allocator<GrandResetEXP> >::_Vector_val<GrandResetEXP,std::allocator<GrandResetEXP> >
PUBLIC	??0?$allocator@UGrandResetEXP@@@std@@QAE@XZ	; std::allocator<GrandResetEXP>::allocator<GrandResetEXP>
; Function compile flags: /Odtp /ZI
; File d:\microsoft visual studio 10.0\vc\include\vector
;	COMDAT ??0?$vector@UGrandResetEXP@@V?$allocator@UGrandResetEXP@@@std@@@std@@QAE@XZ
_TEXT	SEGMENT
$T233928 = -72						; size = 4
_this$ = -4						; size = 4
??0?$vector@UGrandResetEXP@@V?$allocator@UGrandResetEXP@@@std@@@std@@QAE@XZ PROC ; std::vector<GrandResetEXP,std::allocator<GrandResetEXP> >::vector<GrandResetEXP,std::allocator<GrandResetEXP> >, COMDAT
; _this$ = ecx

; 507  : 		{	// construct empty vector

  00000	55		 push	 ebp
  00001	8b ec		 mov	 ebp, esp
  00003	83 ec 48	 sub	 esp, 72			; 00000048H
  00006	53		 push	 ebx
  00007	56		 push	 esi
  00008	57		 push	 edi
  00009	89 4d fc	 mov	 DWORD PTR _this$[ebp], ecx
  0000c	51		 push	 ecx
  0000d	8b cc		 mov	 ecx, esp
  0000f	89 65 b8	 mov	 DWORD PTR $T233928[ebp], esp
  00012	e8 00 00 00 00	 call	 ??0?$allocator@UGrandResetEXP@@@std@@QAE@XZ ; std::allocator<GrandResetEXP>::allocator<GrandResetEXP>
  00017	8b 4d fc	 mov	 ecx, DWORD PTR _this$[ebp]
  0001a	e8 00 00 00 00	 call	 ??0?$_Vector_val@UGrandResetEXP@@V?$allocator@UGrandResetEXP@@@std@@@std@@QAE@V?$allocator@UGrandResetEXP@@@1@@Z ; std::_Vector_val<GrandResetEXP,std::allocator<GrandResetEXP> >::_Vector_val<GrandResetEXP,std::allocator<GrandResetEXP> >

; 508  : 		}

  0001f	8b 45 fc	 mov	 eax, DWORD PTR _this$[ebp]
  00022	5f		 pop	 edi
  00023	5e		 pop	 esi
  00024	5b		 pop	 ebx
  00025	8b e5		 mov	 esp, ebp
  00027	5d		 pop	 ebp
  00028	c3		 ret	 0
??0?$vector@UGrandResetEXP@@V?$allocator@UGrandResetEXP@@@std@@@std@@QAE@XZ ENDP ; std::vector<GrandResetEXP,std::allocator<GrandResetEXP> >::vector<GrandResetEXP,std::allocator<GrandResetEXP> >
_TEXT	ENDS
PUBLIC	??1?$_Vector_val@UGrandResetEXP@@V?$allocator@UGrandResetEXP@@@std@@@std@@QAE@XZ ; std::_Vector_val<GrandResetEXP,std::allocator<GrandResetEXP> >::~_Vector_val<GrandResetEXP,std::allocator<GrandResetEXP> >
PUBLIC	?_Tidy@?$vector@UGrandResetEXP@@V?$allocator@UGrandResetEXP@@@std@@@std@@IAEXXZ ; std::vector<GrandResetEXP,std::allocator<GrandResetEXP> >::_Tidy
;	COMDAT xdata$x
xdata$x	SEGMENT
__unwindtable$??1?$vector@UGrandResetEXP@@V?$allocator@UGrandResetEXP@@@std@@@std@@QAE@XZ DD 0ffffffffH
	DD	FLAT:__unwindfunclet$??1?$vector@UGrandResetEXP@@V?$allocator@UGrandResetEXP@@@std@@@std@@QAE@XZ$0
__ehfuncinfo$??1?$vector@UGrandResetEXP@@V?$allocator@UGrandResetEXP@@@std@@@std@@QAE@XZ DD 019930522H
	DD	01H
	DD	FLAT:__unwindtable$??1?$vector@UGrandResetEXP@@V?$allocator@UGrandResetEXP@@@std@@@std@@QAE@XZ
	DD	2 DUP(00H)
	DD	2 DUP(00H)
	DD	00H
	DD	01H
; Function compile flags: /Odtp /ZI
xdata$x	ENDS
;	COMDAT ??1?$vector@UGrandResetEXP@@V?$allocator@UGrandResetEXP@@@std@@@std@@QAE@XZ
_TEXT	SEGMENT
_this$ = -16						; size = 4
__$EHRec$ = -12						; size = 12
??1?$vector@UGrandResetEXP@@V?$allocator@UGrandResetEXP@@@std@@@std@@QAE@XZ PROC ; std::vector<GrandResetEXP,std::allocator<GrandResetEXP> >::~vector<GrandResetEXP,std::allocator<GrandResetEXP> >, COMDAT
; _this$ = ecx

; 704  : 		{	// destroy the object

  00000	55		 push	 ebp
  00001	8b ec		 mov	 ebp, esp
  00003	6a ff		 push	 -1
  00005	68 00 00 00 00	 push	 __ehhandler$??1?$vector@UGrandResetEXP@@V?$allocator@UGrandResetEXP@@@std@@@std@@QAE@XZ
  0000a	64 a1 00 00 00
	00		 mov	 eax, DWORD PTR fs:0
  00010	50		 push	 eax
  00011	83 ec 44	 sub	 esp, 68			; 00000044H
  00014	53		 push	 ebx
  00015	56		 push	 esi
  00016	57		 push	 edi
  00017	a1 00 00 00 00	 mov	 eax, DWORD PTR ___security_cookie
  0001c	33 c5		 xor	 eax, ebp
  0001e	50		 push	 eax
  0001f	8d 45 f4	 lea	 eax, DWORD PTR __$EHRec$[ebp]
  00022	64 a3 00 00 00
	00		 mov	 DWORD PTR fs:0, eax
  00028	89 4d f0	 mov	 DWORD PTR _this$[ebp], ecx
  0002b	c7 45 fc 00 00
	00 00		 mov	 DWORD PTR __$EHRec$[ebp+8], 0

; 705  : 		_Tidy();

  00032	8b 4d f0	 mov	 ecx, DWORD PTR _this$[ebp]
  00035	e8 00 00 00 00	 call	 ?_Tidy@?$vector@UGrandResetEXP@@V?$allocator@UGrandResetEXP@@@std@@@std@@IAEXXZ ; std::vector<GrandResetEXP,std::allocator<GrandResetEXP> >::_Tidy

; 706  : 		}

  0003a	c7 45 fc ff ff
	ff ff		 mov	 DWORD PTR __$EHRec$[ebp+8], -1
  00041	8b 4d f0	 mov	 ecx, DWORD PTR _this$[ebp]
  00044	e8 00 00 00 00	 call	 ??1?$_Vector_val@UGrandResetEXP@@V?$allocator@UGrandResetEXP@@@std@@@std@@QAE@XZ ; std::_Vector_val<GrandResetEXP,std::allocator<GrandResetEXP> >::~_Vector_val<GrandResetEXP,std::allocator<GrandResetEXP> >
  00049	8b 4d f4	 mov	 ecx, DWORD PTR __$EHRec$[ebp]
  0004c	64 89 0d 00 00
	00 00		 mov	 DWORD PTR fs:0, ecx
  00053	59		 pop	 ecx
  00054	5f		 pop	 edi
  00055	5e		 pop	 esi
  00056	5b		 pop	 ebx
  00057	8b e5		 mov	 esp, ebp
  00059	5d		 pop	 ebp
  0005a	c3		 ret	 0
_TEXT	ENDS
;	COMDAT text$x
text$x	SEGMENT
__unwindfunclet$??1?$vector@UGrandResetEXP@@V?$allocator@UGrandResetEXP@@@std@@@std@@QAE@XZ$0:
  00000	8b 4d f0	 mov	 ecx, DWORD PTR _this$[ebp]
  00003	e9 00 00 00 00	 jmp	 ??1?$_Vector_val@UGrandResetEXP@@V?$allocator@UGrandResetEXP@@@std@@@std@@QAE@XZ ; std::_Vector_val<GrandResetEXP,std::allocator<GrandResetEXP> >::~_Vector_val<GrandResetEXP,std::allocator<GrandResetEXP> >
__ehhandler$??1?$vector@UGrandResetEXP@@V?$allocator@UGrandResetEXP@@@std@@@std@@QAE@XZ:
  00008	8b 54 24 08	 mov	 edx, DWORD PTR [esp+8]
  0000c	8d 42 0c	 lea	 eax, DWORD PTR [edx+12]
  0000f	8b 4a ac	 mov	 ecx, DWORD PTR [edx-84]
  00012	33 c8		 xor	 ecx, eax
  00014	e8 00 00 00 00	 call	 @__security_check_cookie@4
  00019	b8 00 00 00 00	 mov	 eax, OFFSET __ehfuncinfo$??1?$vector@UGrandResetEXP@@V?$allocator@UGrandResetEXP@@@std@@@std@@QAE@XZ
  0001e	e9 00 00 00 00	 jmp	 ___CxxFrameHandler3
text$x	ENDS
??1?$vector@UGrandResetEXP@@V?$allocator@UGrandResetEXP@@@std@@@std@@QAE@XZ ENDP ; std::vector<GrandResetEXP,std::allocator<GrandResetEXP> >::~vector<GrandResetEXP,std::allocator<GrandResetEXP> >
PUBLIC	??0?$_Vector_val@UGRANDSYSTEM_REWARD_DATA@@V?$allocator@UGRANDSYSTEM_REWARD_DATA@@@std@@@std@@QAE@V?$allocator@UGRANDSYSTEM_REWARD_DATA@@@1@@Z ; std::_Vector_val<GRANDSYSTEM_REWARD_DATA,std::allocator<GRANDSYSTEM_REWARD_DATA> >::_Vector_val<GRANDSYSTEM_REWARD_DATA,std::allocator<GRANDSYSTEM_REWARD_DATA> >
PUBLIC	??0?$allocator@UGRANDSYSTEM_REWARD_DATA@@@std@@QAE@XZ ; std::allocator<GRANDSYSTEM_REWARD_DATA>::allocator<GRANDSYSTEM_REWARD_DATA>
; Function compile flags: /Odtp /ZI
;	COMDAT ??0?$vector@UGRANDSYSTEM_REWARD_DATA@@V?$allocator@UGRANDSYSTEM_REWARD_DATA@@@std@@@std@@QAE@XZ
_TEXT	SEGMENT
$T233941 = -72						; size = 4
_this$ = -4						; size = 4
??0?$vector@UGRANDSYSTEM_REWARD_DATA@@V?$allocator@UGRANDSYSTEM_REWARD_DATA@@@std@@@std@@QAE@XZ PROC ; std::vector<GRANDSYSTEM_REWARD_DATA,std::allocator<GRANDSYSTEM_REWARD_DATA> >::vector<GRANDSYSTEM_REWARD_DATA,std::allocator<GRANDSYSTEM_REWARD_DATA> >, COMDAT
; _this$ = ecx

; 507  : 		{	// construct empty vector

  00000	55		 push	 ebp
  00001	8b ec		 mov	 ebp, esp
  00003	83 ec 48	 sub	 esp, 72			; 00000048H
  00006	53		 push	 ebx
  00007	56		 push	 esi
  00008	57		 push	 edi
  00009	89 4d fc	 mov	 DWORD PTR _this$[ebp], ecx
  0000c	51		 push	 ecx
  0000d	8b cc		 mov	 ecx, esp
  0000f	89 65 b8	 mov	 DWORD PTR $T233941[ebp], esp
  00012	e8 00 00 00 00	 call	 ??0?$allocator@UGRANDSYSTEM_REWARD_DATA@@@std@@QAE@XZ ; std::allocator<GRANDSYSTEM_REWARD_DATA>::allocator<GRANDSYSTEM_REWARD_DATA>
  00017	8b 4d fc	 mov	 ecx, DWORD PTR _this$[ebp]
  0001a	e8 00 00 00 00	 call	 ??0?$_Vector_val@UGRANDSYSTEM_REWARD_DATA@@V?$allocator@UGRANDSYSTEM_REWARD_DATA@@@std@@@std@@QAE@V?$allocator@UGRANDSYSTEM_REWARD_DATA@@@1@@Z ; std::_Vector_val<GRANDSYSTEM_REWARD_DATA,std::allocator<GRANDSYSTEM_REWARD_DATA> >::_Vector_val<GRANDSYSTEM_REWARD_DATA,std::allocator<GRANDSYSTEM_REWARD_DATA> >

; 508  : 		}

  0001f	8b 45 fc	 mov	 eax, DWORD PTR _this$[ebp]
  00022	5f		 pop	 edi
  00023	5e		 pop	 esi
  00024	5b		 pop	 ebx
  00025	8b e5		 mov	 esp, ebp
  00027	5d		 pop	 ebp
  00028	c3		 ret	 0
??0?$vector@UGRANDSYSTEM_REWARD_DATA@@V?$allocator@UGRANDSYSTEM_REWARD_DATA@@@std@@@std@@QAE@XZ ENDP ; std::vector<GRANDSYSTEM_REWARD_DATA,std::allocator<GRANDSYSTEM_REWARD_DATA> >::vector<GRANDSYSTEM_REWARD_DATA,std::allocator<GRANDSYSTEM_REWARD_DATA> >
; Function compile flags: /Odtp /ZI
_TEXT	ENDS
;	COMDAT ?_Tidy@?$vector@UGrandResetEXP@@V?$allocator@UGrandResetEXP@@@std@@@std@@IAEXXZ
_TEXT	SEGMENT
_this$ = -4						; size = 4
?_Tidy@?$vector@UGrandResetEXP@@V?$allocator@UGrandResetEXP@@@std@@@std@@IAEXXZ PROC ; std::vector<GrandResetEXP,std::allocator<GrandResetEXP> >::_Tidy, COMDAT
; _this$ = ecx

; 1301 : 		{	// free all storage

  00000	55		 push	 ebp
  00001	8b ec		 mov	 ebp, esp
  00003	83 ec 44	 sub	 esp, 68			; 00000044H
  00006	53		 push	 ebx
  00007	56		 push	 esi
  00008	57		 push	 edi
  00009	89 4d fc	 mov	 DWORD PTR _this$[ebp], ecx

; 1302 : 		if (this->_Myfirst != 0)

  0000c	8b 45 fc	 mov	 eax, DWORD PTR _this$[ebp]
  0000f	83 38 00	 cmp	 DWORD PTR [eax], 0
  00012	74 3d		 je	 SHORT $LN1@Tidy

; 1303 : 			{	// something to free, destroy and deallocate it
; 1304 : 			this->_Orphan_all();

  00014	8b 4d fc	 mov	 ecx, DWORD PTR _this$[ebp]
  00017	e8 00 00 00 00	 call	 ?_Orphan_all@_Container_base0@std@@QAEXXZ ; std::_Container_base0::_Orphan_all

; 1305 : 			_Destroy(this->_Myfirst, this->_Mylast);

  0001c	8b 45 fc	 mov	 eax, DWORD PTR _this$[ebp]
  0001f	8b 48 04	 mov	 ecx, DWORD PTR [eax+4]
  00022	51		 push	 ecx
  00023	8b 55 fc	 mov	 edx, DWORD PTR _this$[ebp]
  00026	8b 02		 mov	 eax, DWORD PTR [edx]
  00028	50		 push	 eax
  00029	8b 4d fc	 mov	 ecx, DWORD PTR _this$[ebp]
  0002c	e8 00 00 00 00	 call	 ?_Destroy@?$vector@UGrandResetEXP@@V?$allocator@UGrandResetEXP@@@std@@@std@@IAEXPAUGrandResetEXP@@0@Z ; std::vector<GrandResetEXP,std::allocator<GrandResetEXP> >::_Destroy

; 1306 : 			this->_Alval.deallocate(this->_Myfirst,
; 1307 : 				this->_Myend - this->_Myfirst);

  00031	8b 45 fc	 mov	 eax, DWORD PTR _this$[ebp]
  00034	8b 4d fc	 mov	 ecx, DWORD PTR _this$[ebp]
  00037	8b 50 08	 mov	 edx, DWORD PTR [eax+8]
  0003a	2b 11		 sub	 edx, DWORD PTR [ecx]
  0003c	c1 fa 03	 sar	 edx, 3
  0003f	52		 push	 edx
  00040	8b 45 fc	 mov	 eax, DWORD PTR _this$[ebp]
  00043	8b 08		 mov	 ecx, DWORD PTR [eax]
  00045	51		 push	 ecx
  00046	8b 4d fc	 mov	 ecx, DWORD PTR _this$[ebp]
  00049	83 c1 0c	 add	 ecx, 12			; 0000000cH
  0004c	e8 00 00 00 00	 call	 ?deallocate@?$allocator@UGrandResetEXP@@@std@@QAEXPAUGrandResetEXP@@I@Z ; std::allocator<GrandResetEXP>::deallocate
$LN1@Tidy:

; 1308 : 			}
; 1309 : 		this->_Myfirst = 0;

  00051	8b 45 fc	 mov	 eax, DWORD PTR _this$[ebp]
  00054	c7 00 00 00 00
	00		 mov	 DWORD PTR [eax], 0

; 1310 : 		this->_Mylast = 0;

  0005a	8b 45 fc	 mov	 eax, DWORD PTR _this$[ebp]
  0005d	c7 40 04 00 00
	00 00		 mov	 DWORD PTR [eax+4], 0

; 1311 : 		this->_Myend = 0;

  00064	8b 45 fc	 mov	 eax, DWORD PTR _this$[ebp]
  00067	c7 40 08 00 00
	00 00		 mov	 DWORD PTR [eax+8], 0

; 1312 : 		}

  0006e	5f		 pop	 edi
  0006f	5e		 pop	 esi
  00070	5b		 pop	 ebx
  00071	8b e5		 mov	 esp, ebp
  00073	5d		 pop	 ebp
  00074	c3		 ret	 0
?_Tidy@?$vector@UGrandResetEXP@@V?$allocator@UGrandResetEXP@@@std@@@std@@IAEXXZ ENDP ; std::vector<GrandResetEXP,std::allocator<GrandResetEXP> >::_Tidy
_TEXT	ENDS
PUBLIC	??0?$allocator@UGrandResetEXP@@@std@@QAE@ABV01@@Z ; std::allocator<GrandResetEXP>::allocator<GrandResetEXP>
; Function compile flags: /Odtp /ZI
;	COMDAT ??0?$_Vector_val@UGrandResetEXP@@V?$allocator@UGrandResetEXP@@@std@@@std@@QAE@V?$allocator@UGrandResetEXP@@@1@@Z
_TEXT	SEGMENT
_this$ = -4						; size = 4
__Al$ = 8						; size = 1
??0?$_Vector_val@UGrandResetEXP@@V?$allocator@UGrandResetEXP@@@std@@@std@@QAE@V?$allocator@UGrandResetEXP@@@1@@Z PROC ; std::_Vector_val<GrandResetEXP,std::allocator<GrandResetEXP> >::_Vector_val<GrandResetEXP,std::allocator<GrandResetEXP> >, COMDAT
; _this$ = ecx

; 426  : 		{	// construct allocator from _Al

  00000	55		 push	 ebp
  00001	8b ec		 mov	 ebp, esp
  00003	83 ec 44	 sub	 esp, 68			; 00000044H
  00006	53		 push	 ebx
  00007	56		 push	 esi
  00008	57		 push	 edi
  00009	89 4d fc	 mov	 DWORD PTR _this$[ebp], ecx
  0000c	8d 45 08	 lea	 eax, DWORD PTR __Al$[ebp]
  0000f	50		 push	 eax
  00010	8b 4d fc	 mov	 ecx, DWORD PTR _this$[ebp]
  00013	83 c1 0c	 add	 ecx, 12			; 0000000cH
  00016	e8 00 00 00 00	 call	 ??0?$allocator@UGrandResetEXP@@@std@@QAE@ABV01@@Z ; std::allocator<GrandResetEXP>::allocator<GrandResetEXP>

; 427  : 		_Myfirst = 0;

  0001b	8b 45 fc	 mov	 eax, DWORD PTR _this$[ebp]
  0001e	c7 00 00 00 00
	00		 mov	 DWORD PTR [eax], 0

; 428  : 		_Mylast = 0;

  00024	8b 45 fc	 mov	 eax, DWORD PTR _this$[ebp]
  00027	c7 40 04 00 00
	00 00		 mov	 DWORD PTR [eax+4], 0

; 429  : 		_Myend = 0;

  0002e	8b 45 fc	 mov	 eax, DWORD PTR _this$[ebp]
  00031	c7 40 08 00 00
	00 00		 mov	 DWORD PTR [eax+8], 0

; 430  : 		}

  00038	8b 45 fc	 mov	 eax, DWORD PTR _this$[ebp]
  0003b	5f		 pop	 edi
  0003c	5e		 pop	 esi
  0003d	5b		 pop	 ebx
  0003e	8b e5		 mov	 esp, ebp
  00040	5d		 pop	 ebp
  00041	c2 04 00	 ret	 4
??0?$_Vector_val@UGrandResetEXP@@V?$allocator@UGrandResetEXP@@@std@@@std@@QAE@V?$allocator@UGrandResetEXP@@@1@@Z ENDP ; std::_Vector_val<GrandResetEXP,std::allocator<GrandResetEXP> >::_Vector_val<GrandResetEXP,std::allocator<GrandResetEXP> >
; Function compile flags: /Odtp /ZI
_TEXT	ENDS
;	COMDAT ??1?$_Vector_val@UGrandResetEXP@@V?$allocator@UGrandResetEXP@@@std@@@std@@QAE@XZ
_TEXT	SEGMENT
_this$ = -4						; size = 4
??1?$_Vector_val@UGrandResetEXP@@V?$allocator@UGrandResetEXP@@@std@@@std@@QAE@XZ PROC ; std::_Vector_val<GrandResetEXP,std::allocator<GrandResetEXP> >::~_Vector_val<GrandResetEXP,std::allocator<GrandResetEXP> >, COMDAT
; _this$ = ecx

; 433  : 		{	// destroy proxy

  00000	55		 push	 ebp
  00001	8b ec		 mov	 ebp, esp
  00003	83 ec 44	 sub	 esp, 68			; 00000044H
  00006	53		 push	 ebx
  00007	56		 push	 esi
  00008	57		 push	 edi
  00009	89 4d fc	 mov	 DWORD PTR _this$[ebp], ecx

; 434  : 		}

  0000c	5f		 pop	 edi
  0000d	5e		 pop	 esi
  0000e	5b		 pop	 ebx
  0000f	8b e5		 mov	 esp, ebp
  00011	5d		 pop	 ebp
  00012	c3		 ret	 0
??1?$_Vector_val@UGrandResetEXP@@V?$allocator@UGrandResetEXP@@@std@@@std@@QAE@XZ ENDP ; std::_Vector_val<GrandResetEXP,std::allocator<GrandResetEXP> >::~_Vector_val<GrandResetEXP,std::allocator<GrandResetEXP> >
; Function compile flags: /Odtp /ZI
; File d:\microsoft visual studio 10.0\vc\include\xmemory
_TEXT	ENDS
;	COMDAT ??0?$allocator@UGrandResetEXP@@@std@@QAE@XZ
_TEXT	SEGMENT
_this$ = -4						; size = 4
??0?$allocator@UGrandResetEXP@@@std@@QAE@XZ PROC	; std::allocator<GrandResetEXP>::allocator<GrandResetEXP>, COMDAT
; _this$ = ecx

; 161  : 	_ALLOCATOR() _THROW0()

  00000	55		 push	 ebp
  00001	8b ec		 mov	 ebp, esp
  00003	83 ec 44	 sub	 esp, 68			; 00000044H
  00006	53		 push	 ebx
  00007	56		 push	 esi
  00008	57		 push	 edi
  00009	89 4d fc	 mov	 DWORD PTR _this$[ebp], ecx

; 162  : 		{	// construct default allocator (do nothing)
; 163  : 		}

  0000c	8b 45 fc	 mov	 eax, DWORD PTR _this$[ebp]
  0000f	5f		 pop	 edi
  00010	5e		 pop	 esi
  00011	5b		 pop	 ebx
  00012	8b e5		 mov	 esp, ebp
  00014	5d		 pop	 ebp
  00015	c3		 ret	 0
??0?$allocator@UGrandResetEXP@@@std@@QAE@XZ ENDP	; std::allocator<GrandResetEXP>::allocator<GrandResetEXP>
_TEXT	ENDS
PUBLIC	??0?$allocator@UGRANDSYSTEM_REWARD_DATA@@@std@@QAE@ABV01@@Z ; std::allocator<GRANDSYSTEM_REWARD_DATA>::allocator<GRANDSYSTEM_REWARD_DATA>
; Function compile flags: /Odtp /ZI
; File d:\microsoft visual studio 10.0\vc\include\vector
;	COMDAT ??0?$_Vector_val@UGRANDSYSTEM_REWARD_DATA@@V?$allocator@UGRANDSYSTEM_REWARD_DATA@@@std@@@std@@QAE@V?$allocator@UGRANDSYSTEM_REWARD_DATA@@@1@@Z
_TEXT	SEGMENT
_this$ = -4						; size = 4
__Al$ = 8						; size = 1
??0?$_Vector_val@UGRANDSYSTEM_REWARD_DATA@@V?$allocator@UGRANDSYSTEM_REWARD_DATA@@@std@@@std@@QAE@V?$allocator@UGRANDSYSTEM_REWARD_DATA@@@1@@Z PROC ; std::_Vector_val<GRANDSYSTEM_REWARD_DATA,std::allocator<GRANDSYSTEM_REWARD_DATA> >::_Vector_val<GRANDSYSTEM_REWARD_DATA,std::allocator<GRANDSYSTEM_REWARD_DATA> >, COMDAT
; _this$ = ecx

; 426  : 		{	// construct allocator from _Al

  00000	55		 push	 ebp
  00001	8b ec		 mov	 ebp, esp
  00003	83 ec 44	 sub	 esp, 68			; 00000044H
  00006	53		 push	 ebx
  00007	56		 push	 esi
  00008	57		 push	 edi
  00009	89 4d fc	 mov	 DWORD PTR _this$[ebp], ecx
  0000c	8d 45 08	 lea	 eax, DWORD PTR __Al$[ebp]
  0000f	50		 push	 eax
  00010	8b 4d fc	 mov	 ecx, DWORD PTR _this$[ebp]
  00013	83 c1 0c	 add	 ecx, 12			; 0000000cH
  00016	e8 00 00 00 00	 call	 ??0?$allocator@UGRANDSYSTEM_REWARD_DATA@@@std@@QAE@ABV01@@Z ; std::allocator<GRANDSYSTEM_REWARD_DATA>::allocator<GRANDSYSTEM_REWARD_DATA>

; 427  : 		_Myfirst = 0;

  0001b	8b 45 fc	 mov	 eax, DWORD PTR _this$[ebp]
  0001e	c7 00 00 00 00
	00		 mov	 DWORD PTR [eax], 0

; 428  : 		_Mylast = 0;

  00024	8b 45 fc	 mov	 eax, DWORD PTR _this$[ebp]
  00027	c7 40 04 00 00
	00 00		 mov	 DWORD PTR [eax+4], 0

; 429  : 		_Myend = 0;

  0002e	8b 45 fc	 mov	 eax, DWORD PTR _this$[ebp]
  00031	c7 40 08 00 00
	00 00		 mov	 DWORD PTR [eax+8], 0

; 430  : 		}

  00038	8b 45 fc	 mov	 eax, DWORD PTR _this$[ebp]
  0003b	5f		 pop	 edi
  0003c	5e		 pop	 esi
  0003d	5b		 pop	 ebx
  0003e	8b e5		 mov	 esp, ebp
  00040	5d		 pop	 ebp
  00041	c2 04 00	 ret	 4
??0?$_Vector_val@UGRANDSYSTEM_REWARD_DATA@@V?$allocator@UGRANDSYSTEM_REWARD_DATA@@@std@@@std@@QAE@V?$allocator@UGRANDSYSTEM_REWARD_DATA@@@1@@Z ENDP ; std::_Vector_val<GRANDSYSTEM_REWARD_DATA,std::allocator<GRANDSYSTEM_REWARD_DATA> >::_Vector_val<GRANDSYSTEM_REWARD_DATA,std::allocator<GRANDSYSTEM_REWARD_DATA> >
; Function compile flags: /Odtp /ZI
; File d:\microsoft visual studio 10.0\vc\include\xmemory
_TEXT	ENDS
;	COMDAT ??0?$allocator@UGRANDSYSTEM_REWARD_DATA@@@std@@QAE@XZ
_TEXT	SEGMENT
_this$ = -4						; size = 4
??0?$allocator@UGRANDSYSTEM_REWARD_DATA@@@std@@QAE@XZ PROC ; std::allocator<GRANDSYSTEM_REWARD_DATA>::allocator<GRANDSYSTEM_REWARD_DATA>, COMDAT
; _this$ = ecx

; 161  : 	_ALLOCATOR() _THROW0()

  00000	55		 push	 ebp
  00001	8b ec		 mov	 ebp, esp
  00003	83 ec 44	 sub	 esp, 68			; 00000044H
  00006	53		 push	 ebx
  00007	56		 push	 esi
  00008	57		 push	 edi
  00009	89 4d fc	 mov	 DWORD PTR _this$[ebp], ecx

; 162  : 		{	// construct default allocator (do nothing)
; 163  : 		}

  0000c	8b 45 fc	 mov	 eax, DWORD PTR _this$[ebp]
  0000f	5f		 pop	 edi
  00010	5e		 pop	 esi
  00011	5b		 pop	 ebx
  00012	8b e5		 mov	 esp, ebp
  00014	5d		 pop	 ebp
  00015	c3		 ret	 0
??0?$allocator@UGRANDSYSTEM_REWARD_DATA@@@std@@QAE@XZ ENDP ; std::allocator<GRANDSYSTEM_REWARD_DATA>::allocator<GRANDSYSTEM_REWARD_DATA>
; Function compile flags: /Odtp /ZI
_TEXT	ENDS
;	COMDAT ??0?$allocator@UGrandResetEXP@@@std@@QAE@ABV01@@Z
_TEXT	SEGMENT
_this$ = -4						; size = 4
___formal$ = 8						; size = 4
??0?$allocator@UGrandResetEXP@@@std@@QAE@ABV01@@Z PROC	; std::allocator<GrandResetEXP>::allocator<GrandResetEXP>, COMDAT
; _this$ = ecx

; 165  : 	_ALLOCATOR(const _ALLOCATOR<_Ty>&) _THROW0()

  00000	55		 push	 ebp
  00001	8b ec		 mov	 ebp, esp
  00003	83 ec 44	 sub	 esp, 68			; 00000044H
  00006	53		 push	 ebx
  00007	56		 push	 esi
  00008	57		 push	 edi
  00009	89 4d fc	 mov	 DWORD PTR _this$[ebp], ecx

; 166  : 		{	// construct by copying (do nothing)
; 167  : 		}

  0000c	8b 45 fc	 mov	 eax, DWORD PTR _this$[ebp]
  0000f	5f		 pop	 edi
  00010	5e		 pop	 esi
  00011	5b		 pop	 ebx
  00012	8b e5		 mov	 esp, ebp
  00014	5d		 pop	 ebp
  00015	c2 04 00	 ret	 4
??0?$allocator@UGrandResetEXP@@@std@@QAE@ABV01@@Z ENDP	; std::allocator<GrandResetEXP>::allocator<GrandResetEXP>
; Function compile flags: /Odtp /ZI
_TEXT	ENDS
;	COMDAT ??0?$allocator@UGRANDSYSTEM_REWARD_DATA@@@std@@QAE@ABV01@@Z
_TEXT	SEGMENT
_this$ = -4						; size = 4
___formal$ = 8						; size = 4
??0?$allocator@UGRANDSYSTEM_REWARD_DATA@@@std@@QAE@ABV01@@Z PROC ; std::allocator<GRANDSYSTEM_REWARD_DATA>::allocator<GRANDSYSTEM_REWARD_DATA>, COMDAT
; _this$ = ecx

; 165  : 	_ALLOCATOR(const _ALLOCATOR<_Ty>&) _THROW0()

  00000	55		 push	 ebp
  00001	8b ec		 mov	 ebp, esp
  00003	83 ec 44	 sub	 esp, 68			; 00000044H
  00006	53		 push	 ebx
  00007	56		 push	 esi
  00008	57		 push	 edi
  00009	89 4d fc	 mov	 DWORD PTR _this$[ebp], ecx

; 166  : 		{	// construct by copying (do nothing)
; 167  : 		}

  0000c	8b 45 fc	 mov	 eax, DWORD PTR _this$[ebp]
  0000f	5f		 pop	 edi
  00010	5e		 pop	 esi
  00011	5b		 pop	 ebx
  00012	8b e5		 mov	 esp, ebp
  00014	5d		 pop	 ebp
  00015	c2 04 00	 ret	 4
??0?$allocator@UGRANDSYSTEM_REWARD_DATA@@@std@@QAE@ABV01@@Z ENDP ; std::allocator<GRANDSYSTEM_REWARD_DATA>::allocator<GRANDSYSTEM_REWARD_DATA>
_TEXT	ENDS
PUBLIC	??1cGrandReset@@QAE@XZ				; cGrandReset::~cGrandReset
; Function compile flags: /Odtp /ZI
;	COMDAT ??__FgGrandReset@@YAXXZ
text$yd	SEGMENT
??__FgGrandReset@@YAXXZ PROC				; `dynamic atexit destructor for 'gGrandReset'', COMDAT
  00000	55		 push	 ebp
  00001	8b ec		 mov	 ebp, esp
  00003	83 ec 40	 sub	 esp, 64			; 00000040H
  00006	53		 push	 ebx
  00007	56		 push	 esi
  00008	57		 push	 edi
  00009	b9 00 00 00 00	 mov	 ecx, OFFSET ?gGrandReset@@3VcGrandReset@@A ; gGrandReset
  0000e	e8 00 00 00 00	 call	 ??1cGrandReset@@QAE@XZ
  00013	5f		 pop	 edi
  00014	5e		 pop	 esi
  00015	5b		 pop	 ebx
  00016	8b e5		 mov	 esp, ebp
  00018	5d		 pop	 ebp
  00019	c3		 ret	 0
??__FgGrandReset@@YAXXZ ENDP				; `dynamic atexit destructor for 'gGrandReset''
text$yd	ENDS
PUBLIC	??1?$vector@UGRANDSYSTEM_REWARD_DATA@@V?$allocator@UGRANDSYSTEM_REWARD_DATA@@@std@@@std@@QAE@XZ ; std::vector<GRANDSYSTEM_REWARD_DATA,std::allocator<GRANDSYSTEM_REWARD_DATA> >::~vector<GRANDSYSTEM_REWARD_DATA,std::allocator<GRANDSYSTEM_REWARD_DATA> >
;	COMDAT xdata$x
xdata$x	SEGMENT
__unwindtable$??1cGrandReset@@QAE@XZ DD 0ffffffffH
	DD	FLAT:__unwindfunclet$??1cGrandReset@@QAE@XZ$0
__ehfuncinfo$??1cGrandReset@@QAE@XZ DD 019930522H
	DD	01H
	DD	FLAT:__unwindtable$??1cGrandReset@@QAE@XZ
	DD	2 DUP(00H)
	DD	2 DUP(00H)
	DD	00H
	DD	01H
; Function compile flags: /Odtp /ZI
xdata$x	ENDS
;	COMDAT ??1cGrandReset@@QAE@XZ
_TEXT	SEGMENT
_this$ = -16						; size = 4
__$EHRec$ = -12						; size = 12
??1cGrandReset@@QAE@XZ PROC				; cGrandReset::~cGrandReset, COMDAT
; _this$ = ecx
  00000	55		 push	 ebp
  00001	8b ec		 mov	 ebp, esp
  00003	6a ff		 push	 -1
  00005	68 00 00 00 00	 push	 __ehhandler$??1cGrandReset@@QAE@XZ
  0000a	64 a1 00 00 00
	00		 mov	 eax, DWORD PTR fs:0
  00010	50		 push	 eax
  00011	83 ec 44	 sub	 esp, 68			; 00000044H
  00014	53		 push	 ebx
  00015	56		 push	 esi
  00016	57		 push	 edi
  00017	a1 00 00 00 00	 mov	 eax, DWORD PTR ___security_cookie
  0001c	33 c5		 xor	 eax, ebp
  0001e	50		 push	 eax
  0001f	8d 45 f4	 lea	 eax, DWORD PTR __$EHRec$[ebp]
  00022	64 a3 00 00 00
	00		 mov	 DWORD PTR fs:0, eax
  00028	89 4d f0	 mov	 DWORD PTR _this$[ebp], ecx
  0002b	c7 45 fc 00 00
	00 00		 mov	 DWORD PTR __$EHRec$[ebp+8], 0
  00032	8b 4d f0	 mov	 ecx, DWORD PTR _this$[ebp]
  00035	81 c1 dc 00 00
	00		 add	 ecx, 220		; 000000dcH
  0003b	e8 00 00 00 00	 call	 ??1?$vector@UGRANDSYSTEM_REWARD_DATA@@V?$allocator@UGRANDSYSTEM_REWARD_DATA@@@std@@@std@@QAE@XZ ; std::vector<GRANDSYSTEM_REWARD_DATA,std::allocator<GRANDSYSTEM_REWARD_DATA> >::~vector<GRANDSYSTEM_REWARD_DATA,std::allocator<GRANDSYSTEM_REWARD_DATA> >
  00040	c7 45 fc ff ff
	ff ff		 mov	 DWORD PTR __$EHRec$[ebp+8], -1
  00047	8b 4d f0	 mov	 ecx, DWORD PTR _this$[ebp]
  0004a	81 c1 b8 00 00
	00		 add	 ecx, 184		; 000000b8H
  00050	e8 00 00 00 00	 call	 ??1?$vector@UGrandResetEXP@@V?$allocator@UGrandResetEXP@@@std@@@std@@QAE@XZ ; std::vector<GrandResetEXP,std::allocator<GrandResetEXP> >::~vector<GrandResetEXP,std::allocator<GrandResetEXP> >
  00055	8b 4d f4	 mov	 ecx, DWORD PTR __$EHRec$[ebp]
  00058	64 89 0d 00 00
	00 00		 mov	 DWORD PTR fs:0, ecx
  0005f	59		 pop	 ecx
  00060	5f		 pop	 edi
  00061	5e		 pop	 esi
  00062	5b		 pop	 ebx
  00063	8b e5		 mov	 esp, ebp
  00065	5d		 pop	 ebp
  00066	c3		 ret	 0
_TEXT	ENDS
;	COMDAT text$x
text$x	SEGMENT
__unwindfunclet$??1cGrandReset@@QAE@XZ$0:
  00000	8b 4d f0	 mov	 ecx, DWORD PTR _this$[ebp]
  00003	81 c1 b8 00 00
	00		 add	 ecx, 184		; 000000b8H
  00009	e9 00 00 00 00	 jmp	 ??1?$vector@UGrandResetEXP@@V?$allocator@UGrandResetEXP@@@std@@@std@@QAE@XZ ; std::vector<GrandResetEXP,std::allocator<GrandResetEXP> >::~vector<GrandResetEXP,std::allocator<GrandResetEXP> >
__ehhandler$??1cGrandReset@@QAE@XZ:
  0000e	8b 54 24 08	 mov	 edx, DWORD PTR [esp+8]
  00012	8d 42 0c	 lea	 eax, DWORD PTR [edx+12]
  00015	8b 4a ac	 mov	 ecx, DWORD PTR [edx-84]
  00018	33 c8		 xor	 ecx, eax
  0001a	e8 00 00 00 00	 call	 @__security_check_cookie@4
  0001f	b8 00 00 00 00	 mov	 eax, OFFSET __ehfuncinfo$??1cGrandReset@@QAE@XZ
  00024	e9 00 00 00 00	 jmp	 ___CxxFrameHandler3
text$x	ENDS
??1cGrandReset@@QAE@XZ ENDP				; cGrandReset::~cGrandReset
PUBLIC	??1?$_Vector_val@UGRANDSYSTEM_REWARD_DATA@@V?$allocator@UGRANDSYSTEM_REWARD_DATA@@@std@@@std@@QAE@XZ ; std::_Vector_val<GRANDSYSTEM_REWARD_DATA,std::allocator<GRANDSYSTEM_REWARD_DATA> >::~_Vector_val<GRANDSYSTEM_REWARD_DATA,std::allocator<GRANDSYSTEM_REWARD_DATA> >
PUBLIC	?_Tidy@?$vector@UGRANDSYSTEM_REWARD_DATA@@V?$allocator@UGRANDSYSTEM_REWARD_DATA@@@std@@@std@@IAEXXZ ; std::vector<GRANDSYSTEM_REWARD_DATA,std::allocator<GRANDSYSTEM_REWARD_DATA> >::_Tidy
;	COMDAT xdata$x
; File d:\microsoft visual studio 10.0\vc\include\vector
xdata$x	SEGMENT
__unwindtable$??1?$vector@UGRANDSYSTEM_REWARD_DATA@@V?$allocator@UGRANDSYSTEM_REWARD_DATA@@@std@@@std@@QAE@XZ DD 0ffffffffH
	DD	FLAT:__unwindfunclet$??1?$vector@UGRANDSYSTEM_REWARD_DATA@@V?$allocator@UGRANDSYSTEM_REWARD_DATA@@@std@@@std@@QAE@XZ$0
__ehfuncinfo$??1?$vector@UGRANDSYSTEM_REWARD_DATA@@V?$allocator@UGRANDSYSTEM_REWARD_DATA@@@std@@@std@@QAE@XZ DD 019930522H
	DD	01H
	DD	FLAT:__unwindtable$??1?$vector@UGRANDSYSTEM_REWARD_DATA@@V?$allocator@UGRANDSYSTEM_REWARD_DATA@@@std@@@std@@QAE@XZ
	DD	2 DUP(00H)
	DD	2 DUP(00H)
	DD	00H
	DD	01H
; Function compile flags: /Odtp /ZI
xdata$x	ENDS
;	COMDAT ??1?$vector@UGRANDSYSTEM_REWARD_DATA@@V?$allocator@UGRANDSYSTEM_REWARD_DATA@@@std@@@std@@QAE@XZ
_TEXT	SEGMENT
_this$ = -16						; size = 4
__$EHRec$ = -12						; size = 12
??1?$vector@UGRANDSYSTEM_REWARD_DATA@@V?$allocator@UGRANDSYSTEM_REWARD_DATA@@@std@@@std@@QAE@XZ PROC ; std::vector<GRANDSYSTEM_REWARD_DATA,std::allocator<GRANDSYSTEM_REWARD_DATA> >::~vector<GRANDSYSTEM_REWARD_DATA,std::allocator<GRANDSYSTEM_REWARD_DATA> >, COMDAT
; _this$ = ecx

; 704  : 		{	// destroy the object

  00000	55		 push	 ebp
  00001	8b ec		 mov	 ebp, esp
  00003	6a ff		 push	 -1
  00005	68 00 00 00 00	 push	 __ehhandler$??1?$vector@UGRANDSYSTEM_REWARD_DATA@@V?$allocator@UGRANDSYSTEM_REWARD_DATA@@@std@@@std@@QAE@XZ
  0000a	64 a1 00 00 00
	00		 mov	 eax, DWORD PTR fs:0
  00010	50		 push	 eax
  00011	83 ec 44	 sub	 esp, 68			; 00000044H
  00014	53		 push	 ebx
  00015	56		 push	 esi
  00016	57		 push	 edi
  00017	a1 00 00 00 00	 mov	 eax, DWORD PTR ___security_cookie
  0001c	33 c5		 xor	 eax, ebp
  0001e	50		 push	 eax
  0001f	8d 45 f4	 lea	 eax, DWORD PTR __$EHRec$[ebp]
  00022	64 a3 00 00 00
	00		 mov	 DWORD PTR fs:0, eax
  00028	89 4d f0	 mov	 DWORD PTR _this$[ebp], ecx
  0002b	c7 45 fc 00 00
	00 00		 mov	 DWORD PTR __$EHRec$[ebp+8], 0

; 705  : 		_Tidy();

  00032	8b 4d f0	 mov	 ecx, DWORD PTR _this$[ebp]
  00035	e8 00 00 00 00	 call	 ?_Tidy@?$vector@UGRANDSYSTEM_REWARD_DATA@@V?$allocator@UGRANDSYSTEM_REWARD_DATA@@@std@@@std@@IAEXXZ ; std::vector<GRANDSYSTEM_REWARD_DATA,std::allocator<GRANDSYSTEM_REWARD_DATA> >::_Tidy

; 706  : 		}

  0003a	c7 45 fc ff ff
	ff ff		 mov	 DWORD PTR __$EHRec$[ebp+8], -1
  00041	8b 4d f0	 mov	 ecx, DWORD PTR _this$[ebp]
  00044	e8 00 00 00 00	 call	 ??1?$_Vector_val@UGRANDSYSTEM_REWARD_DATA@@V?$allocator@UGRANDSYSTEM_REWARD_DATA@@@std@@@std@@QAE@XZ ; std::_Vector_val<GRANDSYSTEM_REWARD_DATA,std::allocator<GRANDSYSTEM_REWARD_DATA> >::~_Vector_val<GRANDSYSTEM_REWARD_DATA,std::allocator<GRANDSYSTEM_REWARD_DATA> >
  00049	8b 4d f4	 mov	 ecx, DWORD PTR __$EHRec$[ebp]
  0004c	64 89 0d 00 00
	00 00		 mov	 DWORD PTR fs:0, ecx
  00053	59		 pop	 ecx
  00054	5f		 pop	 edi
  00055	5e		 pop	 esi
  00056	5b		 pop	 ebx
  00057	8b e5		 mov	 esp, ebp
  00059	5d		 pop	 ebp
  0005a	c3		 ret	 0
_TEXT	ENDS
;	COMDAT text$x
text$x	SEGMENT
__unwindfunclet$??1?$vector@UGRANDSYSTEM_REWARD_DATA@@V?$allocator@UGRANDSYSTEM_REWARD_DATA@@@std@@@std@@QAE@XZ$0:
  00000	8b 4d f0	 mov	 ecx, DWORD PTR _this$[ebp]
  00003	e9 00 00 00 00	 jmp	 ??1?$_Vector_val@UGRANDSYSTEM_REWARD_DATA@@V?$allocator@UGRANDSYSTEM_REWARD_DATA@@@std@@@std@@QAE@XZ ; std::_Vector_val<GRANDSYSTEM_REWARD_DATA,std::allocator<GRANDSYSTEM_REWARD_DATA> >::~_Vector_val<GRANDSYSTEM_REWARD_DATA,std::allocator<GRANDSYSTEM_REWARD_DATA> >
__ehhandler$??1?$vector@UGRANDSYSTEM_REWARD_DATA@@V?$allocator@UGRANDSYSTEM_REWARD_DATA@@@std@@@std@@QAE@XZ:
  00008	8b 54 24 08	 mov	 edx, DWORD PTR [esp+8]
  0000c	8d 42 0c	 lea	 eax, DWORD PTR [edx+12]
  0000f	8b 4a ac	 mov	 ecx, DWORD PTR [edx-84]
  00012	33 c8		 xor	 ecx, eax
  00014	e8 00 00 00 00	 call	 @__security_check_cookie@4
  00019	b8 00 00 00 00	 mov	 eax, OFFSET __ehfuncinfo$??1?$vector@UGRANDSYSTEM_REWARD_DATA@@V?$allocator@UGRANDSYSTEM_REWARD_DATA@@@std@@@std@@QAE@XZ
  0001e	e9 00 00 00 00	 jmp	 ___CxxFrameHandler3
text$x	ENDS
??1?$vector@UGRANDSYSTEM_REWARD_DATA@@V?$allocator@UGRANDSYSTEM_REWARD_DATA@@@std@@@std@@QAE@XZ ENDP ; std::vector<GRANDSYSTEM_REWARD_DATA,std::allocator<GRANDSYSTEM_REWARD_DATA> >::~vector<GRANDSYSTEM_REWARD_DATA,std::allocator<GRANDSYSTEM_REWARD_DATA> >
; Function compile flags: /Odtp /ZI
;	COMDAT ?_Tidy@?$vector@UGRANDSYSTEM_REWARD_DATA@@V?$allocator@UGRANDSYSTEM_REWARD_DATA@@@std@@@std@@IAEXXZ
_TEXT	SEGMENT
_this$ = -4						; size = 4
?_Tidy@?$vector@UGRANDSYSTEM_REWARD_DATA@@V?$allocator@UGRANDSYSTEM_REWARD_DATA@@@std@@@std@@IAEXXZ PROC ; std::vector<GRANDSYSTEM_REWARD_DATA,std::allocator<GRANDSYSTEM_REWARD_DATA> >::_Tidy, COMDAT
; _this$ = ecx

; 1301 : 		{	// free all storage

  00000	55		 push	 ebp
  00001	8b ec		 mov	 ebp, esp
  00003	83 ec 44	 sub	 esp, 68			; 00000044H
  00006	53		 push	 ebx
  00007	56		 push	 esi
  00008	57		 push	 edi
  00009	89 4d fc	 mov	 DWORD PTR _this$[ebp], ecx

; 1302 : 		if (this->_Myfirst != 0)

  0000c	8b 45 fc	 mov	 eax, DWORD PTR _this$[ebp]
  0000f	83 38 00	 cmp	 DWORD PTR [eax], 0
  00012	74 42		 je	 SHORT $LN1@Tidy@2

; 1303 : 			{	// something to free, destroy and deallocate it
; 1304 : 			this->_Orphan_all();

  00014	8b 4d fc	 mov	 ecx, DWORD PTR _this$[ebp]
  00017	e8 00 00 00 00	 call	 ?_Orphan_all@_Container_base0@std@@QAEXXZ ; std::_Container_base0::_Orphan_all

; 1305 : 			_Destroy(this->_Myfirst, this->_Mylast);

  0001c	8b 45 fc	 mov	 eax, DWORD PTR _this$[ebp]
  0001f	8b 48 04	 mov	 ecx, DWORD PTR [eax+4]
  00022	51		 push	 ecx
  00023	8b 55 fc	 mov	 edx, DWORD PTR _this$[ebp]
  00026	8b 02		 mov	 eax, DWORD PTR [edx]
  00028	50		 push	 eax
  00029	8b 4d fc	 mov	 ecx, DWORD PTR _this$[ebp]
  0002c	e8 00 00 00 00	 call	 ?_Destroy@?$vector@UGRANDSYSTEM_REWARD_DATA@@V?$allocator@UGRANDSYSTEM_REWARD_DATA@@@std@@@std@@IAEXPAUGRANDSYSTEM_REWARD_DATA@@0@Z ; std::vector<GRANDSYSTEM_REWARD_DATA,std::allocator<GRANDSYSTEM_REWARD_DATA> >::_Destroy

; 1306 : 			this->_Alval.deallocate(this->_Myfirst,
; 1307 : 				this->_Myend - this->_Myfirst);

  00031	8b 45 fc	 mov	 eax, DWORD PTR _this$[ebp]
  00034	8b 4d fc	 mov	 ecx, DWORD PTR _this$[ebp]
  00037	8b 40 08	 mov	 eax, DWORD PTR [eax+8]
  0003a	2b 01		 sub	 eax, DWORD PTR [ecx]
  0003c	99		 cdq
  0003d	b9 24 00 00 00	 mov	 ecx, 36			; 00000024H
  00042	f7 f9		 idiv	 ecx
  00044	50		 push	 eax
  00045	8b 55 fc	 mov	 edx, DWORD PTR _this$[ebp]
  00048	8b 02		 mov	 eax, DWORD PTR [edx]
  0004a	50		 push	 eax
  0004b	8b 4d fc	 mov	 ecx, DWORD PTR _this$[ebp]
  0004e	83 c1 0c	 add	 ecx, 12			; 0000000cH
  00051	e8 00 00 00 00	 call	 ?deallocate@?$allocator@UGRANDSYSTEM_REWARD_DATA@@@std@@QAEXPAUGRANDSYSTEM_REWARD_DATA@@I@Z ; std::allocator<GRANDSYSTEM_REWARD_DATA>::deallocate
$LN1@Tidy@2:

; 1308 : 			}
; 1309 : 		this->_Myfirst = 0;

  00056	8b 45 fc	 mov	 eax, DWORD PTR _this$[ebp]
  00059	c7 00 00 00 00
	00		 mov	 DWORD PTR [eax], 0

; 1310 : 		this->_Mylast = 0;

  0005f	8b 45 fc	 mov	 eax, DWORD PTR _this$[ebp]
  00062	c7 40 04 00 00
	00 00		 mov	 DWORD PTR [eax+4], 0

; 1311 : 		this->_Myend = 0;

  00069	8b 45 fc	 mov	 eax, DWORD PTR _this$[ebp]
  0006c	c7 40 08 00 00
	00 00		 mov	 DWORD PTR [eax+8], 0

; 1312 : 		}

  00073	5f		 pop	 edi
  00074	5e		 pop	 esi
  00075	5b		 pop	 ebx
  00076	8b e5		 mov	 esp, ebp
  00078	5d		 pop	 ebp
  00079	c3		 ret	 0
?_Tidy@?$vector@UGRANDSYSTEM_REWARD_DATA@@V?$allocator@UGRANDSYSTEM_REWARD_DATA@@@std@@@std@@IAEXXZ ENDP ; std::vector<GRANDSYSTEM_REWARD_DATA,std::allocator<GRANDSYSTEM_REWARD_DATA> >::_Tidy
; Function compile flags: /Odtp /ZI
_TEXT	ENDS
;	COMDAT ??1?$_Vector_val@UGRANDSYSTEM_REWARD_DATA@@V?$allocator@UGRANDSYSTEM_REWARD_DATA@@@std@@@std@@QAE@XZ
_TEXT	SEGMENT
_this$ = -4						; size = 4
??1?$_Vector_val@UGRANDSYSTEM_REWARD_DATA@@V?$allocator@UGRANDSYSTEM_REWARD_DATA@@@std@@@std@@QAE@XZ PROC ; std::_Vector_val<GRANDSYSTEM_REWARD_DATA,std::allocator<GRANDSYSTEM_REWARD_DATA> >::~_Vector_val<GRANDSYSTEM_REWARD_DATA,std::allocator<GRANDSYSTEM_REWARD_DATA> >, COMDAT
; _this$ = ecx

; 433  : 		{	// destroy proxy

  00000	55		 push	 ebp
  00001	8b ec		 mov	 ebp, esp
  00003	83 ec 44	 sub	 esp, 68			; 00000044H
  00006	53		 push	 ebx
  00007	56		 push	 esi
  00008	57		 push	 edi
  00009	89 4d fc	 mov	 DWORD PTR _this$[ebp], ecx

; 434  : 		}

  0000c	5f		 pop	 edi
  0000d	5e		 pop	 esi
  0000e	5b		 pop	 ebx
  0000f	8b e5		 mov	 esp, ebp
  00011	5d		 pop	 ebp
  00012	c3		 ret	 0
??1?$_Vector_val@UGRANDSYSTEM_REWARD_DATA@@V?$allocator@UGRANDSYSTEM_REWARD_DATA@@@std@@@std@@QAE@XZ ENDP ; std::_Vector_val<GRANDSYSTEM_REWARD_DATA,std::allocator<GRANDSYSTEM_REWARD_DATA> >::~_Vector_val<GRANDSYSTEM_REWARD_DATA,std::allocator<GRANDSYSTEM_REWARD_DATA> >
_TEXT	ENDS
PUBLIC	?gGrandReset@@3VcGrandReset@@A			; gGrandReset
_BSS	SEGMENT
?gGrandReset@@3VcGrandReset@@A DB 0ecH DUP (?)		; gGrandReset
_BSS	ENDS
CRT$XCU	SEGMENT
_gGrandReset$initializer$ DD FLAT:??__EgGrandReset@@YAXXZ
CRT$XCU	ENDS
END
