; Listing generated by Microsoft (R) Optimizing Compiler Version 16.00.40219.01 

	TITLE	D:\Projects\ExTeam6.3\Source\GameServer\GameServer\GuardianStatue.cpp
	.686P
	.XMM
	include listing.inc
	.model	flat

INCLUDELIB LIBCMT
INCLUDELIB OLDNAMES

PUBLIC	??_H@YGXPAXIHP6EPAX0@Z@Z			; `vector constructor iterator'
; Function compile flags: /Odtp /ZI
;	COMDAT ??_H@YGXPAXIHP6EPAX0@Z@Z
_TEXT	SEGMENT
___t$ = 8						; size = 4
___s$ = 12						; size = 4
___n$ = 16						; size = 4
___f$ = 20						; size = 4
??_H@YGXPAXIHP6EPAX0@Z@Z PROC				; `vector constructor iterator', COMDAT
  00000	55		 push	 ebp
  00001	8b ec		 mov	 ebp, esp
  00003	83 ec 40	 sub	 esp, 64			; 00000040H
  00006	53		 push	 ebx
  00007	56		 push	 esi
  00008	57		 push	 edi
$LN2@vector:
  00009	8b 45 10	 mov	 eax, DWORD PTR ___n$[ebp]
  0000c	83 e8 01	 sub	 eax, 1
  0000f	89 45 10	 mov	 DWORD PTR ___n$[ebp], eax
  00012	78 11		 js	 SHORT $LN3@vector
  00014	8b 4d 08	 mov	 ecx, DWORD PTR ___t$[ebp]
  00017	ff 55 14	 call	 DWORD PTR ___f$[ebp]
  0001a	8b 45 08	 mov	 eax, DWORD PTR ___t$[ebp]
  0001d	03 45 0c	 add	 eax, DWORD PTR ___s$[ebp]
  00020	89 45 08	 mov	 DWORD PTR ___t$[ebp], eax
  00023	eb e4		 jmp	 SHORT $LN2@vector
$LN3@vector:
  00025	5f		 pop	 edi
  00026	5e		 pop	 esi
  00027	5b		 pop	 ebx
  00028	8b e5		 mov	 esp, ebp
  0002a	5d		 pop	 ebp
  0002b	c2 10 00	 ret	 16			; 00000010H
??_H@YGXPAXIHP6EPAX0@Z@Z ENDP				; `vector constructor iterator'
_TEXT	ENDS
PUBLIC	??_7CGuardianStatue@@6B@			; CGuardianStatue::`vftable'
PUBLIC	??0CGuardianStatue@@QAE@XZ			; CGuardianStatue::CGuardianStatue
PUBLIC	??_R4CGuardianStatue@@6B@			; CGuardianStatue::`RTTI Complete Object Locator'
PUBLIC	??_R0?AVCGuardianStatue@@@8			; CGuardianStatue `RTTI Type Descriptor'
PUBLIC	??_R3CGuardianStatue@@8				; CGuardianStatue::`RTTI Class Hierarchy Descriptor'
PUBLIC	??_R2CGuardianStatue@@8				; CGuardianStatue::`RTTI Base Class Array'
PUBLIC	??_R1A@?0A@EA@CGuardianStatue@@8		; CGuardianStatue::`RTTI Base Class Descriptor at (0,-1,0,64)'
EXTRN	??_7type_info@@6B@:QWORD			; type_info::`vftable'
EXTRN	??_ECGuardianStatue@@UAEPAXI@Z:PROC		; CGuardianStatue::`vector deleting destructor'
;	COMDAT ??_R1A@?0A@EA@CGuardianStatue@@8
; File d:\projects\exteam6.3\source\gameserver\gameserver\guardianstatue.cpp
rdata$r	SEGMENT
??_R1A@?0A@EA@CGuardianStatue@@8 DD FLAT:??_R0?AVCGuardianStatue@@@8 ; CGuardianStatue::`RTTI Base Class Descriptor at (0,-1,0,64)'
	DD	00H
	DD	00H
	DD	0ffffffffH
	DD	00H
	DD	040H
	DD	FLAT:??_R3CGuardianStatue@@8
rdata$r	ENDS
;	COMDAT ??_R2CGuardianStatue@@8
rdata$r	SEGMENT
??_R2CGuardianStatue@@8 DD FLAT:??_R1A@?0A@EA@CGuardianStatue@@8 ; CGuardianStatue::`RTTI Base Class Array'
rdata$r	ENDS
;	COMDAT ??_R3CGuardianStatue@@8
rdata$r	SEGMENT
??_R3CGuardianStatue@@8 DD 00H				; CGuardianStatue::`RTTI Class Hierarchy Descriptor'
	DD	00H
	DD	01H
	DD	FLAT:??_R2CGuardianStatue@@8
rdata$r	ENDS
;	COMDAT ??_R0?AVCGuardianStatue@@@8
_DATA	SEGMENT
??_R0?AVCGuardianStatue@@@8 DD FLAT:??_7type_info@@6B@	; CGuardianStatue `RTTI Type Descriptor'
	DD	00H
	DB	'.?AVCGuardianStatue@@', 00H
_DATA	ENDS
;	COMDAT ??_R4CGuardianStatue@@6B@
rdata$r	SEGMENT
??_R4CGuardianStatue@@6B@ DD 00H			; CGuardianStatue::`RTTI Complete Object Locator'
	DD	00H
	DD	00H
	DD	FLAT:??_R0?AVCGuardianStatue@@@8
	DD	FLAT:??_R3CGuardianStatue@@8
rdata$r	ENDS
;	COMDAT ??_7CGuardianStatue@@6B@
CONST	SEGMENT
??_7CGuardianStatue@@6B@ DD FLAT:??_R4CGuardianStatue@@6B@ ; CGuardianStatue::`vftable'
	DD	FLAT:??_ECGuardianStatue@@UAEPAXI@Z
; Function compile flags: /Odtp /ZI
CONST	ENDS
_TEXT	SEGMENT
_this$ = -4						; size = 4
??0CGuardianStatue@@QAE@XZ PROC				; CGuardianStatue::CGuardianStatue
; _this$ = ecx

; 17   : {

  00000	55		 push	 ebp
  00001	8b ec		 mov	 ebp, esp
  00003	83 ec 44	 sub	 esp, 68			; 00000044H
  00006	53		 push	 ebx
  00007	56		 push	 esi
  00008	57		 push	 edi
  00009	89 4d fc	 mov	 DWORD PTR _this$[ebp], ecx
  0000c	8b 45 fc	 mov	 eax, DWORD PTR _this$[ebp]
  0000f	c7 00 00 00 00
	00		 mov	 DWORD PTR [eax], OFFSET ??_7CGuardianStatue@@6B@

; 18   : 
; 19   : }

  00015	8b 45 fc	 mov	 eax, DWORD PTR _this$[ebp]
  00018	5f		 pop	 edi
  00019	5e		 pop	 esi
  0001a	5b		 pop	 ebx
  0001b	8b e5		 mov	 esp, ebp
  0001d	5d		 pop	 ebp
  0001e	c3		 ret	 0
??0CGuardianStatue@@QAE@XZ ENDP				; CGuardianStatue::CGuardianStatue
_TEXT	ENDS
PUBLIC	??1CGuardianStatue@@UAE@XZ			; CGuardianStatue::~CGuardianStatue
EXTRN	??3@YAXPAX@Z:PROC				; operator delete
; Function compile flags: /Odtp /ZI
;	COMDAT ??_GCGuardianStatue@@UAEPAXI@Z
_TEXT	SEGMENT
_this$ = -4						; size = 4
___flags$ = 8						; size = 4
??_GCGuardianStatue@@UAEPAXI@Z PROC			; CGuardianStatue::`scalar deleting destructor', COMDAT
; _this$ = ecx
  00000	55		 push	 ebp
  00001	8b ec		 mov	 ebp, esp
  00003	83 ec 44	 sub	 esp, 68			; 00000044H
  00006	53		 push	 ebx
  00007	56		 push	 esi
  00008	57		 push	 edi
  00009	89 4d fc	 mov	 DWORD PTR _this$[ebp], ecx
  0000c	8b 4d fc	 mov	 ecx, DWORD PTR _this$[ebp]
  0000f	e8 00 00 00 00	 call	 ??1CGuardianStatue@@UAE@XZ ; CGuardianStatue::~CGuardianStatue
  00014	8b 45 08	 mov	 eax, DWORD PTR ___flags$[ebp]
  00017	83 e0 01	 and	 eax, 1
  0001a	74 0c		 je	 SHORT $LN1@scalar
  0001c	8b 45 fc	 mov	 eax, DWORD PTR _this$[ebp]
  0001f	50		 push	 eax
  00020	e8 00 00 00 00	 call	 ??3@YAXPAX@Z		; operator delete
  00025	83 c4 04	 add	 esp, 4
$LN1@scalar:
  00028	8b 45 fc	 mov	 eax, DWORD PTR _this$[ebp]
  0002b	5f		 pop	 edi
  0002c	5e		 pop	 esi
  0002d	5b		 pop	 ebx
  0002e	8b e5		 mov	 esp, ebp
  00030	5d		 pop	 ebp
  00031	c2 04 00	 ret	 4
??_GCGuardianStatue@@UAEPAXI@Z ENDP			; CGuardianStatue::`scalar deleting destructor'
; Function compile flags: /Odtp /ZI
_TEXT	ENDS
_TEXT	SEGMENT
_this$ = -4						; size = 4
??1CGuardianStatue@@UAE@XZ PROC				; CGuardianStatue::~CGuardianStatue
; _this$ = ecx

; 22   : {

  00020	55		 push	 ebp
  00021	8b ec		 mov	 ebp, esp
  00023	83 ec 44	 sub	 esp, 68			; 00000044H
  00026	53		 push	 ebx
  00027	56		 push	 esi
  00028	57		 push	 edi
  00029	89 4d fc	 mov	 DWORD PTR _this$[ebp], ecx
  0002c	8b 45 fc	 mov	 eax, DWORD PTR _this$[ebp]
  0002f	c7 00 00 00 00
	00		 mov	 DWORD PTR [eax], OFFSET ??_7CGuardianStatue@@6B@

; 23   : 
; 24   : }

  00035	5f		 pop	 edi
  00036	5e		 pop	 esi
  00037	5b		 pop	 ebx
  00038	8b e5		 mov	 esp, ebp
  0003a	5d		 pop	 ebp
  0003b	c3		 ret	 0
??1CGuardianStatue@@UAE@XZ ENDP				; CGuardianStatue::~CGuardianStatue
_TEXT	ENDS
PUBLIC	__real@4059000000000000
PUBLIC	?GuardianStatueAct@CGuardianStatue@@QAEXH@Z	; CGuardianStatue::GuardianStatueAct
EXTRN	?GCManaSend@@YAXHHEEH@Z:PROC			; GCManaSend
EXTRN	?GCReFillSend@@YAXHHEEH@Z:PROC			; GCReFillSend
EXTRN	_abs:PROC
EXTRN	?gObj@@3PAUOBJECTSTRUCT@@A:DWORD		; gObj
EXTRN	?gObjIsConnected@@YAHH@Z:PROC			; gObjIsConnected
EXTRN	__fltused:DWORD
EXTRN	__ftol2_sse:PROC
;	COMDAT __real@4059000000000000
CONST	SEGMENT
__real@4059000000000000 DQ 04059000000000000r	; 100
; Function compile flags: /Odtp /ZI
CONST	ENDS
_TEXT	SEGMENT
tv466 = -96						; size = 4
tv421 = -96						; size = 4
_bIsMaxBP$218905 = -28					; size = 4
_bIsMaxMana$218904 = -24				; size = 4
_bIsMaxLife$218903 = -20				; size = 4
_i$218894 = -16						; size = 4
_tObjNum$ = -12						; size = 4
_lpObj$ = -8						; size = 4
_this$ = -4						; size = 4
_iIndex$ = 8						; size = 4
?GuardianStatueAct@CGuardianStatue@@QAEXH@Z PROC	; CGuardianStatue::GuardianStatueAct
; _this$ = ecx

; 27   : {

  00040	55		 push	 ebp
  00041	8b ec		 mov	 ebp, esp
  00043	83 ec 60	 sub	 esp, 96			; 00000060H
  00046	53		 push	 ebx
  00047	56		 push	 esi
  00048	57		 push	 edi
  00049	89 4d fc	 mov	 DWORD PTR _this$[ebp], ecx

; 28   : 	if( ::gObjIsConnected(iIndex) == FALSE )

  0004c	8b 45 08	 mov	 eax, DWORD PTR _iIndex$[ebp]
  0004f	50		 push	 eax
  00050	e8 00 00 00 00	 call	 ?gObjIsConnected@@YAHH@Z ; gObjIsConnected
  00055	83 c4 04	 add	 esp, 4
  00058	85 c0		 test	 eax, eax
  0005a	75 05		 jne	 SHORT $LN19@GuardianSt

; 29   : 	{
; 30   : 		return;

  0005c	e9 c6 05 00 00	 jmp	 $LN20@GuardianSt
$LN19@GuardianSt:

; 31   : 	}
; 32   : 
; 33   : 	LPOBJ lpObj = &gObj[iIndex];

  00061	8b 45 08	 mov	 eax, DWORD PTR _iIndex$[ebp]
  00064	69 c0 38 2b 00
	00		 imul	 eax, 11064		; 00002b38H
  0006a	03 05 00 00 00
	00		 add	 eax, DWORD PTR ?gObj@@3PAUOBJECTSTRUCT@@A ; gObj
  00070	89 45 f8	 mov	 DWORD PTR _lpObj$[ebp], eax

; 34   : 
; 35   : 	if( lpObj->VPCount < 1 )

  00073	8b 45 f8	 mov	 eax, DWORD PTR _lpObj$[ebp]
  00076	83 b8 30 0c 00
	00 01		 cmp	 DWORD PTR [eax+3120], 1
  0007d	7d 05		 jge	 SHORT $LN18@GuardianSt

; 36   : 	{
; 37   : 		return;

  0007f	e9 a3 05 00 00	 jmp	 $LN20@GuardianSt
$LN18@GuardianSt:

; 38   : 	}
; 39   : 
; 40   : 	int tObjNum = -1;

  00084	c7 45 f4 ff ff
	ff ff		 mov	 DWORD PTR _tObjNum$[ebp], -1

; 41   : 
; 42   : 	for( int i = 0; i < MAX_VIEWPORT; i++ )

  0008b	c7 45 f0 00 00
	00 00		 mov	 DWORD PTR _i$218894[ebp], 0
  00092	eb 09		 jmp	 SHORT $LN17@GuardianSt
$LN16@GuardianSt:
  00094	8b 45 f0	 mov	 eax, DWORD PTR _i$218894[ebp]
  00097	83 c0 01	 add	 eax, 1
  0009a	89 45 f0	 mov	 DWORD PTR _i$218894[ebp], eax
$LN17@GuardianSt:
  0009d	83 7d f0 4b	 cmp	 DWORD PTR _i$218894[ebp], 75 ; 0000004bH
  000a1	0f 8d 80 05 00
	00		 jge	 $LN15@GuardianSt

; 43   : 	{
; 44   : 		tObjNum = lpObj->VpPlayer[i].number;

  000a7	8b 45 f0	 mov	 eax, DWORD PTR _i$218894[ebp]
  000aa	6b c0 0c	 imul	 eax, 12			; 0000000cH
  000ad	8b 4d f8	 mov	 ecx, DWORD PTR _lpObj$[ebp]
  000b0	0f bf 94 01 2a
	05 00 00	 movsx	 edx, WORD PTR [ecx+eax+1322]
  000b8	89 55 f4	 mov	 DWORD PTR _tObjNum$[ebp], edx

; 45   : 
; 46   : 		if( tObjNum >= 0 )

  000bb	83 7d f4 00	 cmp	 DWORD PTR _tObjNum$[ebp], 0
  000bf	0f 8c 5d 05 00
	00		 jl	 $LN2@GuardianSt

; 47   : 		{
; 48   : 			if( gObj[tObjNum].Type == OBJ_USER )

  000c5	8b 45 f4	 mov	 eax, DWORD PTR _tObjNum$[ebp]
  000c8	69 c0 38 2b 00
	00		 imul	 eax, 11064		; 00002b38H
  000ce	8b 0d 00 00 00
	00		 mov	 ecx, DWORD PTR ?gObj@@3PAUOBJECTSTRUCT@@A ; gObj
  000d4	0f b7 54 01 68	 movzx	 edx, WORD PTR [ecx+eax+104]
  000d9	83 fa 01	 cmp	 edx, 1
  000dc	0f 85 40 05 00
	00		 jne	 $LN2@GuardianSt

; 49   : 			{
; 50   : 				if( gObj[tObjNum].Live != FALSE )

  000e2	8b 45 f4	 mov	 eax, DWORD PTR _tObjNum$[ebp]
  000e5	69 c0 38 2b 00
	00		 imul	 eax, 11064		; 00002b38H
  000eb	8b 0d 00 00 00
	00		 mov	 ecx, DWORD PTR ?gObj@@3PAUOBJECTSTRUCT@@A ; gObj
  000f1	0f b6 54 01 6a	 movzx	 edx, BYTE PTR [ecx+eax+106]
  000f6	85 d2		 test	 edx, edx
  000f8	0f 84 24 05 00
	00		 je	 $LN2@GuardianSt

; 51   : 				{
; 52   : 					if( gObj[tObjNum].m_btCsJoinSide == 1 )

  000fe	8b 45 f4	 mov	 eax, DWORD PTR _tObjNum$[ebp]
  00101	69 c0 38 2b 00
	00		 imul	 eax, 11064		; 00002b38H
  00107	8b 0d 00 00 00
	00		 mov	 ecx, DWORD PTR ?gObj@@3PAUOBJECTSTRUCT@@A ; gObj
  0010d	0f b6 94 01 02
	1c 00 00	 movzx	 edx, BYTE PTR [ecx+eax+7170]
  00115	83 fa 01	 cmp	 edx, 1
  00118	0f 85 04 05 00
	00		 jne	 $LN2@GuardianSt

; 53   : 					{
; 54   : 						if( abs(lpObj->Y - gObj[tObjNum].Y) <= 3 && abs(lpObj->X - gObj[tObjNum].X) <= 3 )

  0011e	8b 45 f8	 mov	 eax, DWORD PTR _lpObj$[ebp]
  00121	0f bf 88 46 01
	00 00		 movsx	 ecx, WORD PTR [eax+326]
  00128	8b 55 f4	 mov	 edx, DWORD PTR _tObjNum$[ebp]
  0012b	69 d2 38 2b 00
	00		 imul	 edx, 11064		; 00002b38H
  00131	a1 00 00 00 00	 mov	 eax, DWORD PTR ?gObj@@3PAUOBJECTSTRUCT@@A ; gObj
  00136	0f bf 94 10 46
	01 00 00	 movsx	 edx, WORD PTR [eax+edx+326]
  0013e	2b ca		 sub	 ecx, edx
  00140	51		 push	 ecx
  00141	e8 00 00 00 00	 call	 _abs
  00146	83 c4 04	 add	 esp, 4
  00149	83 f8 03	 cmp	 eax, 3
  0014c	0f 8f d0 04 00
	00		 jg	 $LN2@GuardianSt
  00152	8b 45 f8	 mov	 eax, DWORD PTR _lpObj$[ebp]
  00155	0f bf 88 44 01
	00 00		 movsx	 ecx, WORD PTR [eax+324]
  0015c	8b 55 f4	 mov	 edx, DWORD PTR _tObjNum$[ebp]
  0015f	69 d2 38 2b 00
	00		 imul	 edx, 11064		; 00002b38H
  00165	a1 00 00 00 00	 mov	 eax, DWORD PTR ?gObj@@3PAUOBJECTSTRUCT@@A ; gObj
  0016a	0f bf 94 10 44
	01 00 00	 movsx	 edx, WORD PTR [eax+edx+324]
  00172	2b ca		 sub	 ecx, edx
  00174	51		 push	 ecx
  00175	e8 00 00 00 00	 call	 _abs
  0017a	83 c4 04	 add	 esp, 4
  0017d	83 f8 03	 cmp	 eax, 3
  00180	0f 8f 9c 04 00
	00		 jg	 $LN2@GuardianSt

; 55   : 						{
; 56   : 							BOOL bIsMaxLife = FALSE;

  00186	c7 45 ec 00 00
	00 00		 mov	 DWORD PTR _bIsMaxLife$218903[ebp], 0

; 57   : 							BOOL bIsMaxMana = FALSE;

  0018d	c7 45 e8 00 00
	00 00		 mov	 DWORD PTR _bIsMaxMana$218904[ebp], 0

; 58   : 							BOOL bIsMaxBP	= FALSE;

  00194	c7 45 e4 00 00
	00 00		 mov	 DWORD PTR _bIsMaxBP$218905[ebp], 0

; 59   : 
; 60   : 							if( gObj[tObjNum].Life < (gObj[tObjNum].MaxLife + gObj[tObjNum].AddLife) )

  0019b	8b 45 f4	 mov	 eax, DWORD PTR _tObjNum$[ebp]
  0019e	69 c0 38 2b 00
	00		 imul	 eax, 11064		; 00002b38H
  001a4	8b 4d f4	 mov	 ecx, DWORD PTR _tObjNum$[ebp]
  001a7	69 c9 38 2b 00
	00		 imul	 ecx, 11064		; 00002b38H
  001ad	8b 55 f4	 mov	 edx, DWORD PTR _tObjNum$[ebp]
  001b0	69 d2 38 2b 00
	00		 imul	 edx, 11064		; 00002b38H
  001b6	8b 35 00 00 00
	00		 mov	 esi, DWORD PTR ?gObj@@3PAUOBJECTSTRUCT@@A ; gObj
  001bc	db 84 16 4c 01
	00 00		 fild	 DWORD PTR [esi+edx+332]
  001c3	8b 15 00 00 00
	00		 mov	 edx, DWORD PTR ?gObj@@3PAUOBJECTSTRUCT@@A ; gObj
  001c9	d8 84 0a 00 01
	00 00		 fadd	 DWORD PTR [edx+ecx+256]
  001d0	8b 0d 00 00 00
	00		 mov	 ecx, DWORD PTR ?gObj@@3PAUOBJECTSTRUCT@@A ; gObj
  001d6	d9 84 01 fc 00
	00 00		 fld	 DWORD PTR [ecx+eax+252]
  001dd	de d9		 fcompp
  001df	df e0		 fnstsw	 ax
  001e1	f6 c4 05	 test	 ah, 5
  001e4	0f 8a 03 01 00
	00		 jp	 $LN9@GuardianSt

; 61   : 							{
; 62   : 								gObj[tObjNum].Life += ( (gObj[tObjNum].MaxLife + gObj[tObjNum].AddLife) * (lpObj->m_btCsNpcRgLevel+1) / 100 );

  001ea	8b 45 f4	 mov	 eax, DWORD PTR _tObjNum$[ebp]
  001ed	69 c0 38 2b 00
	00		 imul	 eax, 11064		; 00002b38H
  001f3	8b 4d f4	 mov	 ecx, DWORD PTR _tObjNum$[ebp]
  001f6	69 c9 38 2b 00
	00		 imul	 ecx, 11064		; 00002b38H
  001fc	8b 55 f4	 mov	 edx, DWORD PTR _tObjNum$[ebp]
  001ff	69 d2 38 2b 00
	00		 imul	 edx, 11064		; 00002b38H
  00205	8b 35 00 00 00
	00		 mov	 esi, DWORD PTR ?gObj@@3PAUOBJECTSTRUCT@@A ; gObj
  0020b	db 84 16 4c 01
	00 00		 fild	 DWORD PTR [esi+edx+332]
  00212	8b 15 00 00 00
	00		 mov	 edx, DWORD PTR ?gObj@@3PAUOBJECTSTRUCT@@A ; gObj
  00218	d8 84 0a 00 01
	00 00		 fadd	 DWORD PTR [edx+ecx+256]
  0021f	8b 4d f8	 mov	 ecx, DWORD PTR _lpObj$[ebp]
  00222	0f b6 91 01 1c
	00 00		 movzx	 edx, BYTE PTR [ecx+7169]
  00229	83 c2 01	 add	 edx, 1
  0022c	89 55 a0	 mov	 DWORD PTR tv421[ebp], edx
  0022f	da 4d a0	 fimul	 DWORD PTR tv421[ebp]
  00232	dc 35 00 00 00
	00		 fdiv	 QWORD PTR __real@4059000000000000
  00238	8b 0d 00 00 00
	00		 mov	 ecx, DWORD PTR ?gObj@@3PAUOBJECTSTRUCT@@A ; gObj
  0023e	d8 84 01 fc 00
	00 00		 fadd	 DWORD PTR [ecx+eax+252]
  00245	8b 55 f4	 mov	 edx, DWORD PTR _tObjNum$[ebp]
  00248	69 d2 38 2b 00
	00		 imul	 edx, 11064		; 00002b38H
  0024e	a1 00 00 00 00	 mov	 eax, DWORD PTR ?gObj@@3PAUOBJECTSTRUCT@@A ; gObj
  00253	d9 9c 10 fc 00
	00 00		 fstp	 DWORD PTR [eax+edx+252]

; 63   : 
; 64   : 								if( gObj[tObjNum].Life > (gObj[tObjNum].MaxLife + gObj[tObjNum].AddLife) )

  0025a	8b 45 f4	 mov	 eax, DWORD PTR _tObjNum$[ebp]
  0025d	69 c0 38 2b 00
	00		 imul	 eax, 11064		; 00002b38H
  00263	8b 4d f4	 mov	 ecx, DWORD PTR _tObjNum$[ebp]
  00266	69 c9 38 2b 00
	00		 imul	 ecx, 11064		; 00002b38H
  0026c	8b 55 f4	 mov	 edx, DWORD PTR _tObjNum$[ebp]
  0026f	69 d2 38 2b 00
	00		 imul	 edx, 11064		; 00002b38H
  00275	8b 35 00 00 00
	00		 mov	 esi, DWORD PTR ?gObj@@3PAUOBJECTSTRUCT@@A ; gObj
  0027b	db 84 16 4c 01
	00 00		 fild	 DWORD PTR [esi+edx+332]
  00282	8b 15 00 00 00
	00		 mov	 edx, DWORD PTR ?gObj@@3PAUOBJECTSTRUCT@@A ; gObj
  00288	d8 84 0a 00 01
	00 00		 fadd	 DWORD PTR [edx+ecx+256]
  0028f	8b 0d 00 00 00
	00		 mov	 ecx, DWORD PTR ?gObj@@3PAUOBJECTSTRUCT@@A ; gObj
  00295	d9 84 01 fc 00
	00 00		 fld	 DWORD PTR [ecx+eax+252]
  0029c	de d9		 fcompp
  0029e	df e0		 fnstsw	 ax
  002a0	f6 c4 41	 test	 ah, 65			; 00000041H
  002a3	75 41		 jne	 SHORT $LN8@GuardianSt

; 65   : 								{
; 66   : 									gObj[tObjNum].Life = gObj[tObjNum].MaxLife + gObj[tObjNum].AddLife;

  002a5	8b 45 f4	 mov	 eax, DWORD PTR _tObjNum$[ebp]
  002a8	69 c0 38 2b 00
	00		 imul	 eax, 11064		; 00002b38H
  002ae	8b 4d f4	 mov	 ecx, DWORD PTR _tObjNum$[ebp]
  002b1	69 c9 38 2b 00
	00		 imul	 ecx, 11064		; 00002b38H
  002b7	8b 15 00 00 00
	00		 mov	 edx, DWORD PTR ?gObj@@3PAUOBJECTSTRUCT@@A ; gObj
  002bd	db 84 0a 4c 01
	00 00		 fild	 DWORD PTR [edx+ecx+332]
  002c4	8b 0d 00 00 00
	00		 mov	 ecx, DWORD PTR ?gObj@@3PAUOBJECTSTRUCT@@A ; gObj
  002ca	d8 84 01 00 01
	00 00		 fadd	 DWORD PTR [ecx+eax+256]
  002d1	8b 55 f4	 mov	 edx, DWORD PTR _tObjNum$[ebp]
  002d4	69 d2 38 2b 00
	00		 imul	 edx, 11064		; 00002b38H
  002da	a1 00 00 00 00	 mov	 eax, DWORD PTR ?gObj@@3PAUOBJECTSTRUCT@@A ; gObj
  002df	d9 9c 10 fc 00
	00 00		 fstp	 DWORD PTR [eax+edx+252]
$LN8@GuardianSt:

; 67   : 								}
; 68   : 
; 69   : 								bIsMaxLife = TRUE;

  002e6	c7 45 ec 01 00
	00 00		 mov	 DWORD PTR _bIsMaxLife$218903[ebp], 1
$LN9@GuardianSt:

; 70   : 							}
; 71   : 							
; 72   : 							if( gObj[tObjNum].Mana < (gObj[tObjNum].MaxMana + gObj[tObjNum].AddMana) )

  002ed	8b 45 f4	 mov	 eax, DWORD PTR _tObjNum$[ebp]
  002f0	69 c0 38 2b 00
	00		 imul	 eax, 11064		; 00002b38H
  002f6	8b 4d f4	 mov	 ecx, DWORD PTR _tObjNum$[ebp]
  002f9	69 c9 38 2b 00
	00		 imul	 ecx, 11064		; 00002b38H
  002ff	8b 55 f4	 mov	 edx, DWORD PTR _tObjNum$[ebp]
  00302	69 d2 38 2b 00
	00		 imul	 edx, 11064		; 00002b38H
  00308	8b 35 00 00 00
	00		 mov	 esi, DWORD PTR ?gObj@@3PAUOBJECTSTRUCT@@A ; gObj
  0030e	db 84 16 50 01
	00 00		 fild	 DWORD PTR [esi+edx+336]
  00315	8b 15 00 00 00
	00		 mov	 edx, DWORD PTR ?gObj@@3PAUOBJECTSTRUCT@@A ; gObj
  0031b	d8 84 0a 14 01
	00 00		 fadd	 DWORD PTR [edx+ecx+276]
  00322	8b 0d 00 00 00
	00		 mov	 ecx, DWORD PTR ?gObj@@3PAUOBJECTSTRUCT@@A ; gObj
  00328	d9 84 01 10 01
	00 00		 fld	 DWORD PTR [ecx+eax+272]
  0032f	de d9		 fcompp
  00331	df e0		 fnstsw	 ax
  00333	f6 c4 05	 test	 ah, 5
  00336	0f 8a 03 01 00
	00		 jp	 $LN7@GuardianSt

; 73   : 							{
; 74   : 								gObj[tObjNum].Mana += ( (gObj[tObjNum].MaxMana + gObj[tObjNum].AddMana) * (lpObj->m_btCsNpcRgLevel+1)) / 100;

  0033c	8b 45 f4	 mov	 eax, DWORD PTR _tObjNum$[ebp]
  0033f	69 c0 38 2b 00
	00		 imul	 eax, 11064		; 00002b38H
  00345	8b 4d f4	 mov	 ecx, DWORD PTR _tObjNum$[ebp]
  00348	69 c9 38 2b 00
	00		 imul	 ecx, 11064		; 00002b38H
  0034e	8b 55 f4	 mov	 edx, DWORD PTR _tObjNum$[ebp]
  00351	69 d2 38 2b 00
	00		 imul	 edx, 11064		; 00002b38H
  00357	8b 35 00 00 00
	00		 mov	 esi, DWORD PTR ?gObj@@3PAUOBJECTSTRUCT@@A ; gObj
  0035d	db 84 16 50 01
	00 00		 fild	 DWORD PTR [esi+edx+336]
  00364	8b 15 00 00 00
	00		 mov	 edx, DWORD PTR ?gObj@@3PAUOBJECTSTRUCT@@A ; gObj
  0036a	d8 84 0a 14 01
	00 00		 fadd	 DWORD PTR [edx+ecx+276]
  00371	8b 4d f8	 mov	 ecx, DWORD PTR _lpObj$[ebp]
  00374	0f b6 91 01 1c
	00 00		 movzx	 edx, BYTE PTR [ecx+7169]
  0037b	83 c2 01	 add	 edx, 1
  0037e	89 55 a0	 mov	 DWORD PTR tv466[ebp], edx
  00381	da 4d a0	 fimul	 DWORD PTR tv466[ebp]
  00384	dc 35 00 00 00
	00		 fdiv	 QWORD PTR __real@4059000000000000
  0038a	8b 0d 00 00 00
	00		 mov	 ecx, DWORD PTR ?gObj@@3PAUOBJECTSTRUCT@@A ; gObj
  00390	d8 84 01 10 01
	00 00		 fadd	 DWORD PTR [ecx+eax+272]
  00397	8b 55 f4	 mov	 edx, DWORD PTR _tObjNum$[ebp]
  0039a	69 d2 38 2b 00
	00		 imul	 edx, 11064		; 00002b38H
  003a0	a1 00 00 00 00	 mov	 eax, DWORD PTR ?gObj@@3PAUOBJECTSTRUCT@@A ; gObj
  003a5	d9 9c 10 10 01
	00 00		 fstp	 DWORD PTR [eax+edx+272]

; 75   : 
; 76   : 								if( gObj[tObjNum].Mana > (gObj[tObjNum].MaxMana + gObj[tObjNum].AddMana) )

  003ac	8b 45 f4	 mov	 eax, DWORD PTR _tObjNum$[ebp]
  003af	69 c0 38 2b 00
	00		 imul	 eax, 11064		; 00002b38H
  003b5	8b 4d f4	 mov	 ecx, DWORD PTR _tObjNum$[ebp]
  003b8	69 c9 38 2b 00
	00		 imul	 ecx, 11064		; 00002b38H
  003be	8b 55 f4	 mov	 edx, DWORD PTR _tObjNum$[ebp]
  003c1	69 d2 38 2b 00
	00		 imul	 edx, 11064		; 00002b38H
  003c7	8b 35 00 00 00
	00		 mov	 esi, DWORD PTR ?gObj@@3PAUOBJECTSTRUCT@@A ; gObj
  003cd	db 84 16 50 01
	00 00		 fild	 DWORD PTR [esi+edx+336]
  003d4	8b 15 00 00 00
	00		 mov	 edx, DWORD PTR ?gObj@@3PAUOBJECTSTRUCT@@A ; gObj
  003da	d8 84 0a 14 01
	00 00		 fadd	 DWORD PTR [edx+ecx+276]
  003e1	8b 0d 00 00 00
	00		 mov	 ecx, DWORD PTR ?gObj@@3PAUOBJECTSTRUCT@@A ; gObj
  003e7	d9 84 01 10 01
	00 00		 fld	 DWORD PTR [ecx+eax+272]
  003ee	de d9		 fcompp
  003f0	df e0		 fnstsw	 ax
  003f2	f6 c4 41	 test	 ah, 65			; 00000041H
  003f5	75 41		 jne	 SHORT $LN6@GuardianSt

; 77   : 								{
; 78   : 									gObj[tObjNum].Mana = gObj[tObjNum].MaxMana + gObj[tObjNum].AddMana;

  003f7	8b 45 f4	 mov	 eax, DWORD PTR _tObjNum$[ebp]
  003fa	69 c0 38 2b 00
	00		 imul	 eax, 11064		; 00002b38H
  00400	8b 4d f4	 mov	 ecx, DWORD PTR _tObjNum$[ebp]
  00403	69 c9 38 2b 00
	00		 imul	 ecx, 11064		; 00002b38H
  00409	8b 15 00 00 00
	00		 mov	 edx, DWORD PTR ?gObj@@3PAUOBJECTSTRUCT@@A ; gObj
  0040f	db 84 0a 50 01
	00 00		 fild	 DWORD PTR [edx+ecx+336]
  00416	8b 0d 00 00 00
	00		 mov	 ecx, DWORD PTR ?gObj@@3PAUOBJECTSTRUCT@@A ; gObj
  0041c	d8 84 01 14 01
	00 00		 fadd	 DWORD PTR [ecx+eax+276]
  00423	8b 55 f4	 mov	 edx, DWORD PTR _tObjNum$[ebp]
  00426	69 d2 38 2b 00
	00		 imul	 edx, 11064		; 00002b38H
  0042c	a1 00 00 00 00	 mov	 eax, DWORD PTR ?gObj@@3PAUOBJECTSTRUCT@@A ; gObj
  00431	d9 9c 10 10 01
	00 00		 fstp	 DWORD PTR [eax+edx+272]
$LN6@GuardianSt:

; 79   : 								}
; 80   : 
; 81   : 								bIsMaxMana = TRUE;

  00438	c7 45 e8 01 00
	00 00		 mov	 DWORD PTR _bIsMaxMana$218904[ebp], 1
$LN7@GuardianSt:

; 82   : 							}
; 83   : 
; 84   : 							if( gObj[tObjNum].BP < (gObj[tObjNum].MaxBP + gObj[tObjNum].AddBP) )

  0043f	8b 45 f4	 mov	 eax, DWORD PTR _tObjNum$[ebp]
  00442	69 c0 38 2b 00
	00		 imul	 eax, 11064		; 00002b38H
  00448	8b 4d f4	 mov	 ecx, DWORD PTR _tObjNum$[ebp]
  0044b	69 c9 38 2b 00
	00		 imul	 ecx, 11064		; 00002b38H
  00451	8b 55 f4	 mov	 edx, DWORD PTR _tObjNum$[ebp]
  00454	69 d2 38 2b 00
	00		 imul	 edx, 11064		; 00002b38H
  0045a	8b 35 00 00 00
	00		 mov	 esi, DWORD PTR ?gObj@@3PAUOBJECTSTRUCT@@A ; gObj
  00460	8b 8c 0e 2c 01
	00 00		 mov	 ecx, DWORD PTR [esi+ecx+300]
  00467	8b 35 00 00 00
	00		 mov	 esi, DWORD PTR ?gObj@@3PAUOBJECTSTRUCT@@A ; gObj
  0046d	03 8c 16 30 01
	00 00		 add	 ecx, DWORD PTR [esi+edx+304]
  00474	8b 15 00 00 00
	00		 mov	 edx, DWORD PTR ?gObj@@3PAUOBJECTSTRUCT@@A ; gObj
  0047a	39 8c 02 28 01
	00 00		 cmp	 DWORD PTR [edx+eax+296], ecx
  00481	0f 8d fd 00 00
	00		 jge	 $LN5@GuardianSt

; 85   : 							{
; 86   : 								gObj[tObjNum].BP += ( (gObj[tObjNum].MaxBP + gObj[tObjNum].AddBP) * (lpObj->m_btCsNpcRgLevel+1) / 100);

  00487	8b 4d f4	 mov	 ecx, DWORD PTR _tObjNum$[ebp]
  0048a	69 c9 38 2b 00
	00		 imul	 ecx, 11064		; 00002b38H
  00490	8b 55 f4	 mov	 edx, DWORD PTR _tObjNum$[ebp]
  00493	69 d2 38 2b 00
	00		 imul	 edx, 11064		; 00002b38H
  00499	8b 45 f4	 mov	 eax, DWORD PTR _tObjNum$[ebp]
  0049c	69 c0 38 2b 00
	00		 imul	 eax, 11064		; 00002b38H
  004a2	8b 35 00 00 00
	00		 mov	 esi, DWORD PTR ?gObj@@3PAUOBJECTSTRUCT@@A ; gObj
  004a8	8b 94 16 2c 01
	00 00		 mov	 edx, DWORD PTR [esi+edx+300]
  004af	8b 35 00 00 00
	00		 mov	 esi, DWORD PTR ?gObj@@3PAUOBJECTSTRUCT@@A ; gObj
  004b5	03 94 06 30 01
	00 00		 add	 edx, DWORD PTR [esi+eax+304]
  004bc	8b 45 f8	 mov	 eax, DWORD PTR _lpObj$[ebp]
  004bf	0f b6 80 01 1c
	00 00		 movzx	 eax, BYTE PTR [eax+7169]
  004c6	83 c0 01	 add	 eax, 1
  004c9	0f af c2	 imul	 eax, edx
  004cc	99		 cdq
  004cd	be 64 00 00 00	 mov	 esi, 100		; 00000064H
  004d2	f7 fe		 idiv	 esi
  004d4	8b 15 00 00 00
	00		 mov	 edx, DWORD PTR ?gObj@@3PAUOBJECTSTRUCT@@A ; gObj
  004da	03 84 0a 28 01
	00 00		 add	 eax, DWORD PTR [edx+ecx+296]
  004e1	8b 4d f4	 mov	 ecx, DWORD PTR _tObjNum$[ebp]
  004e4	69 c9 38 2b 00
	00		 imul	 ecx, 11064		; 00002b38H
  004ea	8b 15 00 00 00
	00		 mov	 edx, DWORD PTR ?gObj@@3PAUOBJECTSTRUCT@@A ; gObj
  004f0	89 84 0a 28 01
	00 00		 mov	 DWORD PTR [edx+ecx+296], eax

; 87   : 
; 88   : 								if( gObj[tObjNum].BP > (gObj[tObjNum].MaxBP + gObj[tObjNum].AddBP) )

  004f7	8b 45 f4	 mov	 eax, DWORD PTR _tObjNum$[ebp]
  004fa	69 c0 38 2b 00
	00		 imul	 eax, 11064		; 00002b38H
  00500	8b 4d f4	 mov	 ecx, DWORD PTR _tObjNum$[ebp]
  00503	69 c9 38 2b 00
	00		 imul	 ecx, 11064		; 00002b38H
  00509	8b 55 f4	 mov	 edx, DWORD PTR _tObjNum$[ebp]
  0050c	69 d2 38 2b 00
	00		 imul	 edx, 11064		; 00002b38H
  00512	8b 35 00 00 00
	00		 mov	 esi, DWORD PTR ?gObj@@3PAUOBJECTSTRUCT@@A ; gObj
  00518	8b 8c 0e 2c 01
	00 00		 mov	 ecx, DWORD PTR [esi+ecx+300]
  0051f	8b 35 00 00 00
	00		 mov	 esi, DWORD PTR ?gObj@@3PAUOBJECTSTRUCT@@A ; gObj
  00525	03 8c 16 30 01
	00 00		 add	 ecx, DWORD PTR [esi+edx+304]
  0052c	8b 15 00 00 00
	00		 mov	 edx, DWORD PTR ?gObj@@3PAUOBJECTSTRUCT@@A ; gObj
  00532	39 8c 02 28 01
	00 00		 cmp	 DWORD PTR [edx+eax+296], ecx
  00539	7e 42		 jle	 SHORT $LN4@GuardianSt

; 89   : 								{
; 90   : 									gObj[tObjNum].BP = gObj[tObjNum].MaxBP + gObj[tObjNum].AddBP;

  0053b	8b 45 f4	 mov	 eax, DWORD PTR _tObjNum$[ebp]
  0053e	69 c0 38 2b 00
	00		 imul	 eax, 11064		; 00002b38H
  00544	8b 4d f4	 mov	 ecx, DWORD PTR _tObjNum$[ebp]
  00547	69 c9 38 2b 00
	00		 imul	 ecx, 11064		; 00002b38H
  0054d	8b 15 00 00 00
	00		 mov	 edx, DWORD PTR ?gObj@@3PAUOBJECTSTRUCT@@A ; gObj
  00553	8b 84 02 2c 01
	00 00		 mov	 eax, DWORD PTR [edx+eax+300]
  0055a	8b 15 00 00 00
	00		 mov	 edx, DWORD PTR ?gObj@@3PAUOBJECTSTRUCT@@A ; gObj
  00560	03 84 0a 30 01
	00 00		 add	 eax, DWORD PTR [edx+ecx+304]
  00567	8b 4d f4	 mov	 ecx, DWORD PTR _tObjNum$[ebp]
  0056a	69 c9 38 2b 00
	00		 imul	 ecx, 11064		; 00002b38H
  00570	8b 15 00 00 00
	00		 mov	 edx, DWORD PTR ?gObj@@3PAUOBJECTSTRUCT@@A ; gObj
  00576	89 84 0a 28 01
	00 00		 mov	 DWORD PTR [edx+ecx+296], eax
$LN4@GuardianSt:

; 91   : 								}
; 92   : 
; 93   : 								bIsMaxBP = TRUE;

  0057d	c7 45 e4 01 00
	00 00		 mov	 DWORD PTR _bIsMaxBP$218905[ebp], 1
$LN5@GuardianSt:

; 94   : 							}
; 95   : 
; 96   : 							if( bIsMaxLife != FALSE )

  00584	83 7d ec 00	 cmp	 DWORD PTR _bIsMaxLife$218903[ebp], 0
  00588	74 46		 je	 SHORT $LN3@GuardianSt

; 97   : 							{
; 98   : 								::GCReFillSend(tObjNum, gObj[tObjNum].Life, 0xFF, 1, gObj[tObjNum].iShield);

  0058a	8b 45 f4	 mov	 eax, DWORD PTR _tObjNum$[ebp]
  0058d	69 c0 38 2b 00
	00		 imul	 eax, 11064		; 00002b38H
  00593	8b 0d 00 00 00
	00		 mov	 ecx, DWORD PTR ?gObj@@3PAUOBJECTSTRUCT@@A ; gObj
  00599	8b 94 01 54 01
	00 00		 mov	 edx, DWORD PTR [ecx+eax+340]
  005a0	52		 push	 edx
  005a1	6a 01		 push	 1
  005a3	68 ff 00 00 00	 push	 255			; 000000ffH
  005a8	8b 45 f4	 mov	 eax, DWORD PTR _tObjNum$[ebp]
  005ab	69 c0 38 2b 00
	00		 imul	 eax, 11064		; 00002b38H
  005b1	8b 0d 00 00 00
	00		 mov	 ecx, DWORD PTR ?gObj@@3PAUOBJECTSTRUCT@@A ; gObj
  005b7	d9 84 01 fc 00
	00 00		 fld	 DWORD PTR [ecx+eax+252]
  005be	e8 00 00 00 00	 call	 __ftol2_sse
  005c3	50		 push	 eax
  005c4	8b 55 f4	 mov	 edx, DWORD PTR _tObjNum$[ebp]
  005c7	52		 push	 edx
  005c8	e8 00 00 00 00	 call	 ?GCReFillSend@@YAXHHEEH@Z ; GCReFillSend
  005cd	83 c4 14	 add	 esp, 20			; 00000014H
$LN3@GuardianSt:

; 99   : 							}
; 100  : 
; 101  : 							if( bIsMaxMana != FALSE || bIsMaxBP != FALSE )

  005d0	83 7d e8 00	 cmp	 DWORD PTR _bIsMaxMana$218904[ebp], 0
  005d4	75 06		 jne	 SHORT $LN1@GuardianSt
  005d6	83 7d e4 00	 cmp	 DWORD PTR _bIsMaxBP$218905[ebp], 0
  005da	74 46		 je	 SHORT $LN2@GuardianSt
$LN1@GuardianSt:

; 102  : 							{
; 103  : 								::GCManaSend(tObjNum, gObj[tObjNum].Mana, 0xFF, 0, gObj[tObjNum].BP);

  005dc	8b 45 f4	 mov	 eax, DWORD PTR _tObjNum$[ebp]
  005df	69 c0 38 2b 00
	00		 imul	 eax, 11064		; 00002b38H
  005e5	8b 0d 00 00 00
	00		 mov	 ecx, DWORD PTR ?gObj@@3PAUOBJECTSTRUCT@@A ; gObj
  005eb	8b 94 01 28 01
	00 00		 mov	 edx, DWORD PTR [ecx+eax+296]
  005f2	52		 push	 edx
  005f3	6a 00		 push	 0
  005f5	68 ff 00 00 00	 push	 255			; 000000ffH
  005fa	8b 45 f4	 mov	 eax, DWORD PTR _tObjNum$[ebp]
  005fd	69 c0 38 2b 00
	00		 imul	 eax, 11064		; 00002b38H
  00603	8b 0d 00 00 00
	00		 mov	 ecx, DWORD PTR ?gObj@@3PAUOBJECTSTRUCT@@A ; gObj
  00609	d9 84 01 10 01
	00 00		 fld	 DWORD PTR [ecx+eax+272]
  00610	e8 00 00 00 00	 call	 __ftol2_sse
  00615	50		 push	 eax
  00616	8b 55 f4	 mov	 edx, DWORD PTR _tObjNum$[ebp]
  00619	52		 push	 edx
  0061a	e8 00 00 00 00	 call	 ?GCManaSend@@YAXHHEEH@Z	; GCManaSend
  0061f	83 c4 14	 add	 esp, 20			; 00000014H
$LN2@GuardianSt:

; 104  : 							}
; 105  : 						}
; 106  : 					}
; 107  : 				}
; 108  : 			}
; 109  : 		}
; 110  : 	}

  00622	e9 6d fa ff ff	 jmp	 $LN16@GuardianSt
$LN15@GuardianSt:
$LN20@GuardianSt:

; 111  : }

  00627	5f		 pop	 edi
  00628	5e		 pop	 esi
  00629	5b		 pop	 ebx
  0062a	8b e5		 mov	 esp, ebp
  0062c	5d		 pop	 ebp
  0062d	c2 04 00	 ret	 4
?GuardianStatueAct@CGuardianStatue@@QAEXH@Z ENDP	; CGuardianStatue::GuardianStatueAct
_TEXT	ENDS
EXTRN	_atexit:PROC
; Function compile flags: /Odtp /ZI
;	COMDAT ??__Eg_CsNPC_GuardianStatue@@YAXXZ
text$yc	SEGMENT
??__Eg_CsNPC_GuardianStatue@@YAXXZ PROC			; `dynamic initializer for 'g_CsNPC_GuardianStatue'', COMDAT

; 11   : CGuardianStatue g_CsNPC_GuardianStatue;

  00000	55		 push	 ebp
  00001	8b ec		 mov	 ebp, esp
  00003	83 ec 40	 sub	 esp, 64			; 00000040H
  00006	53		 push	 ebx
  00007	56		 push	 esi
  00008	57		 push	 edi
  00009	b9 00 00 00 00	 mov	 ecx, OFFSET ?g_CsNPC_GuardianStatue@@3VCGuardianStatue@@A ; g_CsNPC_GuardianStatue
  0000e	e8 00 00 00 00	 call	 ??0CGuardianStatue@@QAE@XZ ; CGuardianStatue::CGuardianStatue
  00013	68 00 00 00 00	 push	 OFFSET ??__Fg_CsNPC_GuardianStatue@@YAXXZ ; `dynamic atexit destructor for 'g_CsNPC_GuardianStatue''
  00018	e8 00 00 00 00	 call	 _atexit
  0001d	83 c4 04	 add	 esp, 4
  00020	5f		 pop	 edi
  00021	5e		 pop	 esi
  00022	5b		 pop	 ebx
  00023	8b e5		 mov	 esp, ebp
  00025	5d		 pop	 ebp
  00026	c3		 ret	 0
??__Eg_CsNPC_GuardianStatue@@YAXXZ ENDP			; `dynamic initializer for 'g_CsNPC_GuardianStatue''
; Function compile flags: /Odtp /ZI
text$yc	ENDS
;	COMDAT ??__Fg_CsNPC_GuardianStatue@@YAXXZ
text$yd	SEGMENT
??__Fg_CsNPC_GuardianStatue@@YAXXZ PROC			; `dynamic atexit destructor for 'g_CsNPC_GuardianStatue'', COMDAT
  00000	55		 push	 ebp
  00001	8b ec		 mov	 ebp, esp
  00003	83 ec 40	 sub	 esp, 64			; 00000040H
  00006	53		 push	 ebx
  00007	56		 push	 esi
  00008	57		 push	 edi
  00009	b9 00 00 00 00	 mov	 ecx, OFFSET ?g_CsNPC_GuardianStatue@@3VCGuardianStatue@@A ; g_CsNPC_GuardianStatue
  0000e	e8 00 00 00 00	 call	 ??1CGuardianStatue@@UAE@XZ ; CGuardianStatue::~CGuardianStatue
  00013	5f		 pop	 edi
  00014	5e		 pop	 esi
  00015	5b		 pop	 ebx
  00016	8b e5		 mov	 esp, ebp
  00018	5d		 pop	 ebp
  00019	c3		 ret	 0
??__Fg_CsNPC_GuardianStatue@@YAXXZ ENDP			; `dynamic atexit destructor for 'g_CsNPC_GuardianStatue''
text$yd	ENDS
PUBLIC	?g_CsNPC_GuardianStatue@@3VCGuardianStatue@@A	; g_CsNPC_GuardianStatue
_BSS	SEGMENT
?g_CsNPC_GuardianStatue@@3VCGuardianStatue@@A DD 01H DUP (?) ; g_CsNPC_GuardianStatue
_BSS	ENDS
CRT$XCU	SEGMENT
_g_CsNPC_GuardianStatue$initializer$ DD FLAT:??__Eg_CsNPC_GuardianStatue@@YAXXZ
CRT$XCU	ENDS
END
