; Listing generated by Microsoft (R) Optimizing Compiler Version 16.00.40219.01 

	TITLE	D:\Projects\ExTeam6.3\Source\GameServer\GameServer\Guardian.cpp
	.686P
	.XMM
	include listing.inc
	.model	flat

INCLUDELIB LIBCMT
INCLUDELIB OLDNAMES

_DATA	SEGMENT
_g_iNpcUpDfLevel_CGATE DD 01H
	DD	02H
	DD	02dc6c0H
	DD	02H
	DD	03H
	DD	02dc6c0H
	DD	03H
	DD	04H
	DD	02dc6c0H
_g_iNpcUpDfLevel_CSTATUE DD 01H
	DD	03H
	DD	02dc6c0H
	DD	02H
	DD	05H
	DD	02dc6c0H
	DD	03H
	DD	07H
	DD	02dc6c0H
_g_iNpcUpMaxHP_CGATE DD 02625a0H
	DD	02H
	DD	0f4240H
	DD	03567e0H
	DD	03H
	DD	0f4240H
	DD	04f5880H
	DD	04H
	DD	0f4240H
_g_iNpcUpMaxHP_CSTATUE DD 02191c0H
	DD	03H
	DD	0f4240H
	DD	033e140H
	DD	05H
	DD	0f4240H
	DD	04c4b40H
	DD	07H
	DD	0f4240H
_g_iNpcUpRgLevel_CSTATUE DD 01H
	DD	03H
	DD	04c4b40H
	DD	02H
	DD	05H
	DD	04c4b40H
	DD	03H
	DD	07H
	DD	04c4b40H
_g_iCsUserReSpawnArea DD 023H
	DD	011H
	DD	090H
	DD	030H
	DD	04aH
	DD	090H
	DD	073H
	DD	09aH
	DD	023H
	DD	011H
	DD	090H
	DD	030H
_g_iNpcDefense_CGATE DD 064H
	DD	0b4H
	DD	012cH
	DD	0208H
_g_iNpcDefense_CSTATUE DD 050H
	DD	0b4H
	DD	0154H
	DD	0226H
_g_iCastleWallStepAxisY DD 071H
	DD	0a0H
	DD	0cbH
_DATA	ENDS
PUBLIC	??_H@YGXPAXIHP6EPAX0@Z@Z			; `vector constructor iterator'
; Function compile flags: /Odtp /ZI
;	COMDAT ??_H@YGXPAXIHP6EPAX0@Z@Z
_TEXT	SEGMENT
___t$ = 8						; size = 4
___s$ = 12						; size = 4
___n$ = 16						; size = 4
___f$ = 20						; size = 4
??_H@YGXPAXIHP6EPAX0@Z@Z PROC				; `vector constructor iterator', COMDAT
  00000	55		 push	 ebp
  00001	8b ec		 mov	 ebp, esp
  00003	83 ec 40	 sub	 esp, 64			; 00000040H
  00006	53		 push	 ebx
  00007	56		 push	 esi
  00008	57		 push	 edi
$LN2@vector:
  00009	8b 45 10	 mov	 eax, DWORD PTR ___n$[ebp]
  0000c	83 e8 01	 sub	 eax, 1
  0000f	89 45 10	 mov	 DWORD PTR ___n$[ebp], eax
  00012	78 11		 js	 SHORT $LN3@vector
  00014	8b 4d 08	 mov	 ecx, DWORD PTR ___t$[ebp]
  00017	ff 55 14	 call	 DWORD PTR ___f$[ebp]
  0001a	8b 45 08	 mov	 eax, DWORD PTR ___t$[ebp]
  0001d	03 45 0c	 add	 eax, DWORD PTR ___s$[ebp]
  00020	89 45 08	 mov	 DWORD PTR ___t$[ebp], eax
  00023	eb e4		 jmp	 SHORT $LN2@vector
$LN3@vector:
  00025	5f		 pop	 edi
  00026	5e		 pop	 esi
  00027	5b		 pop	 ebx
  00028	8b e5		 mov	 esp, ebp
  0002a	5d		 pop	 ebp
  0002b	c2 10 00	 ret	 16			; 00000010H
??_H@YGXPAXIHP6EPAX0@Z@Z ENDP				; `vector constructor iterator'
_TEXT	ENDS
PUBLIC	??_7CGuardian@@6B@				; CGuardian::`vftable'
PUBLIC	??0CGuardian@@QAE@XZ				; CGuardian::CGuardian
PUBLIC	??_R4CGuardian@@6B@				; CGuardian::`RTTI Complete Object Locator'
PUBLIC	??_R0?AVCGuardian@@@8				; CGuardian `RTTI Type Descriptor'
PUBLIC	??_R3CGuardian@@8				; CGuardian::`RTTI Class Hierarchy Descriptor'
PUBLIC	??_R2CGuardian@@8				; CGuardian::`RTTI Base Class Array'
PUBLIC	??_R1A@?0A@EA@CGuardian@@8			; CGuardian::`RTTI Base Class Descriptor at (0,-1,0,64)'
EXTRN	??_7type_info@@6B@:QWORD			; type_info::`vftable'
EXTRN	??_ECGuardian@@UAEPAXI@Z:PROC			; CGuardian::`vector deleting destructor'
;	COMDAT ??_R1A@?0A@EA@CGuardian@@8
; File d:\projects\exteam6.3\source\gameserver\gameserver\guardian.cpp
rdata$r	SEGMENT
??_R1A@?0A@EA@CGuardian@@8 DD FLAT:??_R0?AVCGuardian@@@8 ; CGuardian::`RTTI Base Class Descriptor at (0,-1,0,64)'
	DD	00H
	DD	00H
	DD	0ffffffffH
	DD	00H
	DD	040H
	DD	FLAT:??_R3CGuardian@@8
rdata$r	ENDS
;	COMDAT ??_R2CGuardian@@8
rdata$r	SEGMENT
??_R2CGuardian@@8 DD FLAT:??_R1A@?0A@EA@CGuardian@@8	; CGuardian::`RTTI Base Class Array'
rdata$r	ENDS
;	COMDAT ??_R3CGuardian@@8
rdata$r	SEGMENT
??_R3CGuardian@@8 DD 00H				; CGuardian::`RTTI Class Hierarchy Descriptor'
	DD	00H
	DD	01H
	DD	FLAT:??_R2CGuardian@@8
rdata$r	ENDS
;	COMDAT ??_R0?AVCGuardian@@@8
_DATA	SEGMENT
??_R0?AVCGuardian@@@8 DD FLAT:??_7type_info@@6B@	; CGuardian `RTTI Type Descriptor'
	DD	00H
	DB	'.?AVCGuardian@@', 00H
_DATA	ENDS
;	COMDAT ??_R4CGuardian@@6B@
rdata$r	SEGMENT
??_R4CGuardian@@6B@ DD 00H				; CGuardian::`RTTI Complete Object Locator'
	DD	00H
	DD	00H
	DD	FLAT:??_R0?AVCGuardian@@@8
	DD	FLAT:??_R3CGuardian@@8
rdata$r	ENDS
;	COMDAT ??_7CGuardian@@6B@
CONST	SEGMENT
??_7CGuardian@@6B@ DD FLAT:??_R4CGuardian@@6B@		; CGuardian::`vftable'
	DD	FLAT:??_ECGuardian@@UAEPAXI@Z
; Function compile flags: /Odtp /ZI
CONST	ENDS
_TEXT	SEGMENT
_this$ = -4						; size = 4
??0CGuardian@@QAE@XZ PROC				; CGuardian::CGuardian
; _this$ = ecx

; 11   : {

  00000	55		 push	 ebp
  00001	8b ec		 mov	 ebp, esp
  00003	83 ec 44	 sub	 esp, 68			; 00000044H
  00006	53		 push	 ebx
  00007	56		 push	 esi
  00008	57		 push	 edi
  00009	89 4d fc	 mov	 DWORD PTR _this$[ebp], ecx
  0000c	8b 45 fc	 mov	 eax, DWORD PTR _this$[ebp]
  0000f	c7 00 00 00 00
	00		 mov	 DWORD PTR [eax], OFFSET ??_7CGuardian@@6B@

; 12   : 	return;
; 13   : }

  00015	8b 45 fc	 mov	 eax, DWORD PTR _this$[ebp]
  00018	5f		 pop	 edi
  00019	5e		 pop	 esi
  0001a	5b		 pop	 ebx
  0001b	8b e5		 mov	 esp, ebp
  0001d	5d		 pop	 ebp
  0001e	c3		 ret	 0
??0CGuardian@@QAE@XZ ENDP				; CGuardian::CGuardian
_TEXT	ENDS
PUBLIC	??1CGuardian@@UAE@XZ				; CGuardian::~CGuardian
EXTRN	??3@YAXPAX@Z:PROC				; operator delete
; Function compile flags: /Odtp /ZI
;	COMDAT ??_GCGuardian@@UAEPAXI@Z
_TEXT	SEGMENT
_this$ = -4						; size = 4
___flags$ = 8						; size = 4
??_GCGuardian@@UAEPAXI@Z PROC				; CGuardian::`scalar deleting destructor', COMDAT
; _this$ = ecx
  00000	55		 push	 ebp
  00001	8b ec		 mov	 ebp, esp
  00003	83 ec 44	 sub	 esp, 68			; 00000044H
  00006	53		 push	 ebx
  00007	56		 push	 esi
  00008	57		 push	 edi
  00009	89 4d fc	 mov	 DWORD PTR _this$[ebp], ecx
  0000c	8b 4d fc	 mov	 ecx, DWORD PTR _this$[ebp]
  0000f	e8 00 00 00 00	 call	 ??1CGuardian@@UAE@XZ	; CGuardian::~CGuardian
  00014	8b 45 08	 mov	 eax, DWORD PTR ___flags$[ebp]
  00017	83 e0 01	 and	 eax, 1
  0001a	74 0c		 je	 SHORT $LN1@scalar
  0001c	8b 45 fc	 mov	 eax, DWORD PTR _this$[ebp]
  0001f	50		 push	 eax
  00020	e8 00 00 00 00	 call	 ??3@YAXPAX@Z		; operator delete
  00025	83 c4 04	 add	 esp, 4
$LN1@scalar:
  00028	8b 45 fc	 mov	 eax, DWORD PTR _this$[ebp]
  0002b	5f		 pop	 edi
  0002c	5e		 pop	 esi
  0002d	5b		 pop	 ebx
  0002e	8b e5		 mov	 esp, ebp
  00030	5d		 pop	 ebp
  00031	c2 04 00	 ret	 4
??_GCGuardian@@UAEPAXI@Z ENDP				; CGuardian::`scalar deleting destructor'
; Function compile flags: /Odtp /ZI
_TEXT	ENDS
_TEXT	SEGMENT
_this$ = -4						; size = 4
??1CGuardian@@UAE@XZ PROC				; CGuardian::~CGuardian
; _this$ = ecx

; 16   : {

  00020	55		 push	 ebp
  00021	8b ec		 mov	 ebp, esp
  00023	83 ec 44	 sub	 esp, 68			; 00000044H
  00026	53		 push	 ebx
  00027	56		 push	 esi
  00028	57		 push	 edi
  00029	89 4d fc	 mov	 DWORD PTR _this$[ebp], ecx
  0002c	8b 45 fc	 mov	 eax, DWORD PTR _this$[ebp]
  0002f	c7 00 00 00 00
	00		 mov	 DWORD PTR [eax], OFFSET ??_7CGuardian@@6B@

; 17   : 	return;
; 18   : }

  00035	5f		 pop	 edi
  00036	5e		 pop	 esi
  00037	5b		 pop	 ebx
  00038	8b e5		 mov	 esp, ebp
  0003a	5d		 pop	 ebp
  0003b	c3		 ret	 0
??1CGuardian@@UAE@XZ ENDP				; CGuardian::~CGuardian
_TEXT	ENDS
PUBLIC	?CreateGuardian@CGuardian@@QAEHH@Z		; CGuardian::CreateGuardian
EXTRN	?MsgOutput@@YAXHPADZZ:PROC			; MsgOutput
EXTRN	?Get@CMsg@@QAEPADH@Z:PROC			; CMsg::Get
EXTRN	?lMsg@@3VCMsg@@A:BYTE				; lMsg
; Function compile flags: /Odtp /ZI
_TEXT	SEGMENT
_this$ = -4						; size = 4
_iIndex$ = 8						; size = 4
?CreateGuardian@CGuardian@@QAEHH@Z PROC			; CGuardian::CreateGuardian
; _this$ = ecx

; 21   : {	

  00040	55		 push	 ebp
  00041	8b ec		 mov	 ebp, esp
  00043	83 ec 44	 sub	 esp, 68			; 00000044H
  00046	53		 push	 ebx
  00047	56		 push	 esi
  00048	57		 push	 edi
  00049	89 4d fc	 mov	 DWORD PTR _this$[ebp], ecx

; 22   : 	MsgOutput(iIndex, lMsg.Get( MSGGET(6,104) ));

  0004c	68 68 06 00 00	 push	 1640			; 00000668H
  00051	b9 00 00 00 00	 mov	 ecx, OFFSET ?lMsg@@3VCMsg@@A ; lMsg
  00056	e8 00 00 00 00	 call	 ?Get@CMsg@@QAEPADH@Z	; CMsg::Get
  0005b	50		 push	 eax
  0005c	8b 45 08	 mov	 eax, DWORD PTR _iIndex$[ebp]
  0005f	50		 push	 eax
  00060	e8 00 00 00 00	 call	 ?MsgOutput@@YAXHPADZZ	; MsgOutput
  00065	83 c4 08	 add	 esp, 8

; 23   : 	return true;

  00068	b8 01 00 00 00	 mov	 eax, 1

; 24   : }

  0006d	5f		 pop	 edi
  0006e	5e		 pop	 esi
  0006f	5b		 pop	 ebx
  00070	8b e5		 mov	 esp, ebp
  00072	5d		 pop	 ebp
  00073	c2 04 00	 ret	 4
?CreateGuardian@CGuardian@@QAEHH@Z ENDP			; CGuardian::CreateGuardian
_TEXT	ENDS
PUBLIC	__real@4059000000000000
PUBLIC	?GuardianAct@CGuardian@@QAEXH@Z			; CGuardian::GuardianAct
EXTRN	?GCManaSend@@YAXHHEEH@Z:PROC			; GCManaSend
EXTRN	?GCReFillSend@@YAXHHEEH@Z:PROC			; GCReFillSend
EXTRN	_abs:PROC
EXTRN	?gObj@@3PAUOBJECTSTRUCT@@A:DWORD		; gObj
EXTRN	?gObjIsConnected@@YAHH@Z:PROC			; gObjIsConnected
EXTRN	__fltused:DWORD
EXTRN	__ftol2_sse:PROC
;	COMDAT __real@4059000000000000
CONST	SEGMENT
__real@4059000000000000 DQ 04059000000000000r	; 100
; Function compile flags: /Odtp /ZI
CONST	ENDS
_TEXT	SEGMENT
_i$227042 = -16						; size = 4
_tObjNum$ = -12						; size = 4
_lpObj$ = -8						; size = 4
_this$ = -4						; size = 4
_iIndex$ = 8						; size = 4
?GuardianAct@CGuardian@@QAEXH@Z PROC			; CGuardian::GuardianAct
; _this$ = ecx

; 27   : {

  00080	55		 push	 ebp
  00081	8b ec		 mov	 ebp, esp
  00083	83 ec 50	 sub	 esp, 80			; 00000050H
  00086	53		 push	 ebx
  00087	56		 push	 esi
  00088	57		 push	 edi
  00089	89 4d fc	 mov	 DWORD PTR _this$[ebp], ecx

; 28   : //#if(GS_CASTLE==1)
; 29   : 	if( ::gObjIsConnected(iIndex) == FALSE )

  0008c	8b 45 08	 mov	 eax, DWORD PTR _iIndex$[ebp]
  0008f	50		 push	 eax
  00090	e8 00 00 00 00	 call	 ?gObjIsConnected@@YAHH@Z ; gObjIsConnected
  00095	83 c4 04	 add	 esp, 4
  00098	85 c0		 test	 eax, eax
  0009a	75 05		 jne	 SHORT $LN13@GuardianAc

; 30   : 	{
; 31   : 		return;

  0009c	e9 6a 03 00 00	 jmp	 $LN14@GuardianAc
$LN13@GuardianAc:

; 32   : 	}
; 33   : 
; 34   : 	LPOBJ lpObj = &gObj[iIndex];

  000a1	8b 45 08	 mov	 eax, DWORD PTR _iIndex$[ebp]
  000a4	69 c0 38 2b 00
	00		 imul	 eax, 11064		; 00002b38H
  000aa	03 05 00 00 00
	00		 add	 eax, DWORD PTR ?gObj@@3PAUOBJECTSTRUCT@@A ; gObj
  000b0	89 45 f8	 mov	 DWORD PTR _lpObj$[ebp], eax

; 35   : 
; 36   : 	if( lpObj->VPCount < 1 )

  000b3	8b 45 f8	 mov	 eax, DWORD PTR _lpObj$[ebp]
  000b6	83 b8 30 0c 00
	00 01		 cmp	 DWORD PTR [eax+3120], 1
  000bd	7d 05		 jge	 SHORT $LN12@GuardianAc

; 37   : 	{
; 38   : 		return;

  000bf	e9 47 03 00 00	 jmp	 $LN14@GuardianAc
$LN12@GuardianAc:

; 39   : 	}
; 40   : 
; 41   : 	int tObjNum = -1;

  000c4	c7 45 f4 ff ff
	ff ff		 mov	 DWORD PTR _tObjNum$[ebp], -1

; 42   : 
; 43   : 	for( int i = 0; i < MAX_VIEWPORT; i++ )

  000cb	c7 45 f0 00 00
	00 00		 mov	 DWORD PTR _i$227042[ebp], 0
  000d2	eb 09		 jmp	 SHORT $LN11@GuardianAc
$LN10@GuardianAc:
  000d4	8b 45 f0	 mov	 eax, DWORD PTR _i$227042[ebp]
  000d7	83 c0 01	 add	 eax, 1
  000da	89 45 f0	 mov	 DWORD PTR _i$227042[ebp], eax
$LN11@GuardianAc:
  000dd	83 7d f0 4b	 cmp	 DWORD PTR _i$227042[ebp], 75 ; 0000004bH
  000e1	0f 8d 24 03 00
	00		 jge	 $LN9@GuardianAc

; 44   : 	{
; 45   : 		tObjNum = lpObj->VpPlayer[i].number;

  000e7	8b 45 f0	 mov	 eax, DWORD PTR _i$227042[ebp]
  000ea	6b c0 0c	 imul	 eax, 12			; 0000000cH
  000ed	8b 4d f8	 mov	 ecx, DWORD PTR _lpObj$[ebp]
  000f0	0f bf 94 01 2a
	05 00 00	 movsx	 edx, WORD PTR [ecx+eax+1322]
  000f8	89 55 f4	 mov	 DWORD PTR _tObjNum$[ebp], edx

; 46   : 
; 47   : 		if( tObjNum >= 0 )

  000fb	83 7d f4 00	 cmp	 DWORD PTR _tObjNum$[ebp], 0
  000ff	0f 8c 01 03 00
	00		 jl	 $LN4@GuardianAc

; 48   : 		{
; 49   : 			if( gObj[tObjNum].Type == OBJ_USER )

  00105	8b 45 f4	 mov	 eax, DWORD PTR _tObjNum$[ebp]
  00108	69 c0 38 2b 00
	00		 imul	 eax, 11064		; 00002b38H
  0010e	8b 0d 00 00 00
	00		 mov	 ecx, DWORD PTR ?gObj@@3PAUOBJECTSTRUCT@@A ; gObj
  00114	0f b7 54 01 68	 movzx	 edx, WORD PTR [ecx+eax+104]
  00119	83 fa 01	 cmp	 edx, 1
  0011c	0f 85 e4 02 00
	00		 jne	 $LN4@GuardianAc

; 50   : 			{
; 51   : 				if( gObj[tObjNum].Live != FALSE )

  00122	8b 45 f4	 mov	 eax, DWORD PTR _tObjNum$[ebp]
  00125	69 c0 38 2b 00
	00		 imul	 eax, 11064		; 00002b38H
  0012b	8b 0d 00 00 00
	00		 mov	 ecx, DWORD PTR ?gObj@@3PAUOBJECTSTRUCT@@A ; gObj
  00131	0f b6 54 01 6a	 movzx	 edx, BYTE PTR [ecx+eax+106]
  00136	85 d2		 test	 edx, edx
  00138	0f 84 c8 02 00
	00		 je	 $LN4@GuardianAc

; 52   : 				{
; 53   : 					if( gObj[tObjNum].m_btCsJoinSide == lpObj->m_btCsJoinSide )

  0013e	8b 45 f4	 mov	 eax, DWORD PTR _tObjNum$[ebp]
  00141	69 c0 38 2b 00
	00		 imul	 eax, 11064		; 00002b38H
  00147	8b 0d 00 00 00
	00		 mov	 ecx, DWORD PTR ?gObj@@3PAUOBJECTSTRUCT@@A ; gObj
  0014d	0f b6 94 01 02
	1c 00 00	 movzx	 edx, BYTE PTR [ecx+eax+7170]
  00155	8b 45 f8	 mov	 eax, DWORD PTR _lpObj$[ebp]
  00158	0f b6 88 02 1c
	00 00		 movzx	 ecx, BYTE PTR [eax+7170]
  0015f	3b d1		 cmp	 edx, ecx
  00161	0f 85 9f 02 00
	00		 jne	 $LN4@GuardianAc

; 54   : 					{
; 55   : 						if( abs(lpObj->Y - gObj[tObjNum].Y) <= 3 && abs(lpObj->X - gObj[tObjNum].X) <= 3 )

  00167	8b 45 f8	 mov	 eax, DWORD PTR _lpObj$[ebp]
  0016a	0f bf 88 46 01
	00 00		 movsx	 ecx, WORD PTR [eax+326]
  00171	8b 55 f4	 mov	 edx, DWORD PTR _tObjNum$[ebp]
  00174	69 d2 38 2b 00
	00		 imul	 edx, 11064		; 00002b38H
  0017a	a1 00 00 00 00	 mov	 eax, DWORD PTR ?gObj@@3PAUOBJECTSTRUCT@@A ; gObj
  0017f	0f bf 94 10 46
	01 00 00	 movsx	 edx, WORD PTR [eax+edx+326]
  00187	2b ca		 sub	 ecx, edx
  00189	51		 push	 ecx
  0018a	e8 00 00 00 00	 call	 _abs
  0018f	83 c4 04	 add	 esp, 4
  00192	83 f8 03	 cmp	 eax, 3
  00195	0f 8f 6b 02 00
	00		 jg	 $LN4@GuardianAc
  0019b	8b 45 f8	 mov	 eax, DWORD PTR _lpObj$[ebp]
  0019e	0f bf 88 44 01
	00 00		 movsx	 ecx, WORD PTR [eax+324]
  001a5	8b 55 f4	 mov	 edx, DWORD PTR _tObjNum$[ebp]
  001a8	69 d2 38 2b 00
	00		 imul	 edx, 11064		; 00002b38H
  001ae	a1 00 00 00 00	 mov	 eax, DWORD PTR ?gObj@@3PAUOBJECTSTRUCT@@A ; gObj
  001b3	0f bf 94 10 44
	01 00 00	 movsx	 edx, WORD PTR [eax+edx+324]
  001bb	2b ca		 sub	 ecx, edx
  001bd	51		 push	 ecx
  001be	e8 00 00 00 00	 call	 _abs
  001c3	83 c4 04	 add	 esp, 4
  001c6	83 f8 03	 cmp	 eax, 3
  001c9	0f 8f 37 02 00
	00		 jg	 $LN4@GuardianAc

; 56   : 						{
; 57   : 							gObj[tObjNum].Life += 100.0f;

  001cf	8b 45 f4	 mov	 eax, DWORD PTR _tObjNum$[ebp]
  001d2	69 c0 38 2b 00
	00		 imul	 eax, 11064		; 00002b38H
  001d8	8b 0d 00 00 00
	00		 mov	 ecx, DWORD PTR ?gObj@@3PAUOBJECTSTRUCT@@A ; gObj
  001de	d9 84 01 fc 00
	00 00		 fld	 DWORD PTR [ecx+eax+252]
  001e5	dc 05 00 00 00
	00		 fadd	 QWORD PTR __real@4059000000000000
  001eb	8b 55 f4	 mov	 edx, DWORD PTR _tObjNum$[ebp]
  001ee	69 d2 38 2b 00
	00		 imul	 edx, 11064		; 00002b38H
  001f4	a1 00 00 00 00	 mov	 eax, DWORD PTR ?gObj@@3PAUOBJECTSTRUCT@@A ; gObj
  001f9	d9 9c 10 fc 00
	00 00		 fstp	 DWORD PTR [eax+edx+252]

; 58   : 							gObj[tObjNum].Mana += 100.0f;

  00200	8b 45 f4	 mov	 eax, DWORD PTR _tObjNum$[ebp]
  00203	69 c0 38 2b 00
	00		 imul	 eax, 11064		; 00002b38H
  00209	8b 0d 00 00 00
	00		 mov	 ecx, DWORD PTR ?gObj@@3PAUOBJECTSTRUCT@@A ; gObj
  0020f	d9 84 01 10 01
	00 00		 fld	 DWORD PTR [ecx+eax+272]
  00216	dc 05 00 00 00
	00		 fadd	 QWORD PTR __real@4059000000000000
  0021c	8b 55 f4	 mov	 edx, DWORD PTR _tObjNum$[ebp]
  0021f	69 d2 38 2b 00
	00		 imul	 edx, 11064		; 00002b38H
  00225	a1 00 00 00 00	 mov	 eax, DWORD PTR ?gObj@@3PAUOBJECTSTRUCT@@A ; gObj
  0022a	d9 9c 10 10 01
	00 00		 fstp	 DWORD PTR [eax+edx+272]

; 59   : 							gObj[tObjNum].BP += 100;

  00231	8b 45 f4	 mov	 eax, DWORD PTR _tObjNum$[ebp]
  00234	69 c0 38 2b 00
	00		 imul	 eax, 11064		; 00002b38H
  0023a	8b 0d 00 00 00
	00		 mov	 ecx, DWORD PTR ?gObj@@3PAUOBJECTSTRUCT@@A ; gObj
  00240	8b 94 01 28 01
	00 00		 mov	 edx, DWORD PTR [ecx+eax+296]
  00247	83 c2 64	 add	 edx, 100		; 00000064H
  0024a	8b 45 f4	 mov	 eax, DWORD PTR _tObjNum$[ebp]
  0024d	69 c0 38 2b 00
	00		 imul	 eax, 11064		; 00002b38H
  00253	8b 0d 00 00 00
	00		 mov	 ecx, DWORD PTR ?gObj@@3PAUOBJECTSTRUCT@@A ; gObj
  00259	89 94 01 28 01
	00 00		 mov	 DWORD PTR [ecx+eax+296], edx

; 60   : 
; 61   : 							if ( gObj[tObjNum].Life > gObj[tObjNum].MaxLife )

  00260	8b 45 f4	 mov	 eax, DWORD PTR _tObjNum$[ebp]
  00263	69 c0 38 2b 00
	00		 imul	 eax, 11064		; 00002b38H
  00269	8b 4d f4	 mov	 ecx, DWORD PTR _tObjNum$[ebp]
  0026c	69 c9 38 2b 00
	00		 imul	 ecx, 11064		; 00002b38H
  00272	8b 15 00 00 00
	00		 mov	 edx, DWORD PTR ?gObj@@3PAUOBJECTSTRUCT@@A ; gObj
  00278	d9 84 02 fc 00
	00 00		 fld	 DWORD PTR [edx+eax+252]
  0027f	a1 00 00 00 00	 mov	 eax, DWORD PTR ?gObj@@3PAUOBJECTSTRUCT@@A ; gObj
  00284	d9 84 08 00 01
	00 00		 fld	 DWORD PTR [eax+ecx+256]
  0028b	de d9		 fcompp
  0028d	df e0		 fnstsw	 ax
  0028f	f6 c4 05	 test	 ah, 5
  00292	7a 2c		 jp	 SHORT $LN3@GuardianAc

; 62   : 								gObj[tObjNum].Life = gObj[tObjNum].MaxLife;

  00294	8b 45 f4	 mov	 eax, DWORD PTR _tObjNum$[ebp]
  00297	69 c0 38 2b 00
	00		 imul	 eax, 11064		; 00002b38H
  0029d	8b 4d f4	 mov	 ecx, DWORD PTR _tObjNum$[ebp]
  002a0	69 c9 38 2b 00
	00		 imul	 ecx, 11064		; 00002b38H
  002a6	8b 15 00 00 00
	00		 mov	 edx, DWORD PTR ?gObj@@3PAUOBJECTSTRUCT@@A ; gObj
  002ac	8b 35 00 00 00
	00		 mov	 esi, DWORD PTR ?gObj@@3PAUOBJECTSTRUCT@@A ; gObj
  002b2	d9 84 06 00 01
	00 00		 fld	 DWORD PTR [esi+eax+256]
  002b9	d9 9c 0a fc 00
	00 00		 fstp	 DWORD PTR [edx+ecx+252]
$LN3@GuardianAc:

; 63   : 
; 64   : 							if ( gObj[tObjNum].Mana > gObj[tObjNum].MaxMana )

  002c0	8b 45 f4	 mov	 eax, DWORD PTR _tObjNum$[ebp]
  002c3	69 c0 38 2b 00
	00		 imul	 eax, 11064		; 00002b38H
  002c9	8b 4d f4	 mov	 ecx, DWORD PTR _tObjNum$[ebp]
  002cc	69 c9 38 2b 00
	00		 imul	 ecx, 11064		; 00002b38H
  002d2	8b 15 00 00 00
	00		 mov	 edx, DWORD PTR ?gObj@@3PAUOBJECTSTRUCT@@A ; gObj
  002d8	d9 84 02 10 01
	00 00		 fld	 DWORD PTR [edx+eax+272]
  002df	a1 00 00 00 00	 mov	 eax, DWORD PTR ?gObj@@3PAUOBJECTSTRUCT@@A ; gObj
  002e4	d9 84 08 14 01
	00 00		 fld	 DWORD PTR [eax+ecx+276]
  002eb	de d9		 fcompp
  002ed	df e0		 fnstsw	 ax
  002ef	f6 c4 05	 test	 ah, 5
  002f2	7a 2c		 jp	 SHORT $LN2@GuardianAc

; 65   : 								gObj[tObjNum].Mana = gObj[tObjNum].MaxMana;

  002f4	8b 45 f4	 mov	 eax, DWORD PTR _tObjNum$[ebp]
  002f7	69 c0 38 2b 00
	00		 imul	 eax, 11064		; 00002b38H
  002fd	8b 4d f4	 mov	 ecx, DWORD PTR _tObjNum$[ebp]
  00300	69 c9 38 2b 00
	00		 imul	 ecx, 11064		; 00002b38H
  00306	8b 15 00 00 00
	00		 mov	 edx, DWORD PTR ?gObj@@3PAUOBJECTSTRUCT@@A ; gObj
  0030c	8b 35 00 00 00
	00		 mov	 esi, DWORD PTR ?gObj@@3PAUOBJECTSTRUCT@@A ; gObj
  00312	d9 84 06 14 01
	00 00		 fld	 DWORD PTR [esi+eax+276]
  00319	d9 9c 0a 10 01
	00 00		 fstp	 DWORD PTR [edx+ecx+272]
$LN2@GuardianAc:

; 66   : 
; 67   : 							if ( gObj[tObjNum].BP > gObj[tObjNum].MaxBP )

  00320	8b 45 f4	 mov	 eax, DWORD PTR _tObjNum$[ebp]
  00323	69 c0 38 2b 00
	00		 imul	 eax, 11064		; 00002b38H
  00329	8b 4d f4	 mov	 ecx, DWORD PTR _tObjNum$[ebp]
  0032c	69 c9 38 2b 00
	00		 imul	 ecx, 11064		; 00002b38H
  00332	8b 15 00 00 00
	00		 mov	 edx, DWORD PTR ?gObj@@3PAUOBJECTSTRUCT@@A ; gObj
  00338	8b 35 00 00 00
	00		 mov	 esi, DWORD PTR ?gObj@@3PAUOBJECTSTRUCT@@A ; gObj
  0033e	8b 84 02 28 01
	00 00		 mov	 eax, DWORD PTR [edx+eax+296]
  00345	3b 84 0e 2c 01
	00 00		 cmp	 eax, DWORD PTR [esi+ecx+300]
  0034c	7e 2c		 jle	 SHORT $LN1@GuardianAc

; 68   : 								gObj[tObjNum].BP = gObj[tObjNum].MaxBP;

  0034e	8b 45 f4	 mov	 eax, DWORD PTR _tObjNum$[ebp]
  00351	69 c0 38 2b 00
	00		 imul	 eax, 11064		; 00002b38H
  00357	8b 4d f4	 mov	 ecx, DWORD PTR _tObjNum$[ebp]
  0035a	69 c9 38 2b 00
	00		 imul	 ecx, 11064		; 00002b38H
  00360	8b 15 00 00 00
	00		 mov	 edx, DWORD PTR ?gObj@@3PAUOBJECTSTRUCT@@A ; gObj
  00366	8b 35 00 00 00
	00		 mov	 esi, DWORD PTR ?gObj@@3PAUOBJECTSTRUCT@@A ; gObj
  0036c	8b 84 06 2c 01
	00 00		 mov	 eax, DWORD PTR [esi+eax+300]
  00373	89 84 0a 28 01
	00 00		 mov	 DWORD PTR [edx+ecx+296], eax
$LN1@GuardianAc:

; 69   : 
; 70   : 							GCReFillSend(tObjNum, gObj[tObjNum].Life, 0xFF, 1, gObj[tObjNum].iShield);

  0037a	8b 45 f4	 mov	 eax, DWORD PTR _tObjNum$[ebp]
  0037d	69 c0 38 2b 00
	00		 imul	 eax, 11064		; 00002b38H
  00383	8b 0d 00 00 00
	00		 mov	 ecx, DWORD PTR ?gObj@@3PAUOBJECTSTRUCT@@A ; gObj
  00389	8b 94 01 54 01
	00 00		 mov	 edx, DWORD PTR [ecx+eax+340]
  00390	52		 push	 edx
  00391	6a 01		 push	 1
  00393	68 ff 00 00 00	 push	 255			; 000000ffH
  00398	8b 45 f4	 mov	 eax, DWORD PTR _tObjNum$[ebp]
  0039b	69 c0 38 2b 00
	00		 imul	 eax, 11064		; 00002b38H
  003a1	8b 0d 00 00 00
	00		 mov	 ecx, DWORD PTR ?gObj@@3PAUOBJECTSTRUCT@@A ; gObj
  003a7	d9 84 01 fc 00
	00 00		 fld	 DWORD PTR [ecx+eax+252]
  003ae	e8 00 00 00 00	 call	 __ftol2_sse
  003b3	50		 push	 eax
  003b4	8b 55 f4	 mov	 edx, DWORD PTR _tObjNum$[ebp]
  003b7	52		 push	 edx
  003b8	e8 00 00 00 00	 call	 ?GCReFillSend@@YAXHHEEH@Z ; GCReFillSend
  003bd	83 c4 14	 add	 esp, 20			; 00000014H

; 71   : 							GCManaSend(tObjNum, gObj[tObjNum].Mana, 0xFF, 0, gObj[tObjNum].BP);

  003c0	8b 45 f4	 mov	 eax, DWORD PTR _tObjNum$[ebp]
  003c3	69 c0 38 2b 00
	00		 imul	 eax, 11064		; 00002b38H
  003c9	8b 0d 00 00 00
	00		 mov	 ecx, DWORD PTR ?gObj@@3PAUOBJECTSTRUCT@@A ; gObj
  003cf	8b 94 01 28 01
	00 00		 mov	 edx, DWORD PTR [ecx+eax+296]
  003d6	52		 push	 edx
  003d7	6a 00		 push	 0
  003d9	68 ff 00 00 00	 push	 255			; 000000ffH
  003de	8b 45 f4	 mov	 eax, DWORD PTR _tObjNum$[ebp]
  003e1	69 c0 38 2b 00
	00		 imul	 eax, 11064		; 00002b38H
  003e7	8b 0d 00 00 00
	00		 mov	 ecx, DWORD PTR ?gObj@@3PAUOBJECTSTRUCT@@A ; gObj
  003ed	d9 84 01 10 01
	00 00		 fld	 DWORD PTR [ecx+eax+272]
  003f4	e8 00 00 00 00	 call	 __ftol2_sse
  003f9	50		 push	 eax
  003fa	8b 55 f4	 mov	 edx, DWORD PTR _tObjNum$[ebp]
  003fd	52		 push	 edx
  003fe	e8 00 00 00 00	 call	 ?GCManaSend@@YAXHHEEH@Z	; GCManaSend
  00403	83 c4 14	 add	 esp, 20			; 00000014H
$LN4@GuardianAc:

; 72   : 						}
; 73   : 					}
; 74   : 				}
; 75   : 			}
; 76   : 		}
; 77   : 	}

  00406	e9 c9 fc ff ff	 jmp	 $LN10@GuardianAc
$LN9@GuardianAc:
$LN14@GuardianAc:

; 78   : //#endif
; 79   : }

  0040b	5f		 pop	 edi
  0040c	5e		 pop	 esi
  0040d	5b		 pop	 ebx
  0040e	8b e5		 mov	 esp, ebp
  00410	5d		 pop	 ebp
  00411	c2 04 00	 ret	 4
?GuardianAct@CGuardian@@QAEXH@Z ENDP			; CGuardian::GuardianAct
_TEXT	ENDS
EXTRN	_atexit:PROC
; Function compile flags: /Odtp /ZI
;	COMDAT ??__Eg_CsNPC_Guardian@@YAXXZ
text$yc	SEGMENT
??__Eg_CsNPC_Guardian@@YAXXZ PROC			; `dynamic initializer for 'g_CsNPC_Guardian'', COMDAT

; 8    : CGuardian g_CsNPC_Guardian;

  00000	55		 push	 ebp
  00001	8b ec		 mov	 ebp, esp
  00003	83 ec 40	 sub	 esp, 64			; 00000040H
  00006	53		 push	 ebx
  00007	56		 push	 esi
  00008	57		 push	 edi
  00009	b9 00 00 00 00	 mov	 ecx, OFFSET ?g_CsNPC_Guardian@@3VCGuardian@@A ; g_CsNPC_Guardian
  0000e	e8 00 00 00 00	 call	 ??0CGuardian@@QAE@XZ	; CGuardian::CGuardian
  00013	68 00 00 00 00	 push	 OFFSET ??__Fg_CsNPC_Guardian@@YAXXZ ; `dynamic atexit destructor for 'g_CsNPC_Guardian''
  00018	e8 00 00 00 00	 call	 _atexit
  0001d	83 c4 04	 add	 esp, 4
  00020	5f		 pop	 edi
  00021	5e		 pop	 esi
  00022	5b		 pop	 ebx
  00023	8b e5		 mov	 esp, ebp
  00025	5d		 pop	 ebp
  00026	c3		 ret	 0
??__Eg_CsNPC_Guardian@@YAXXZ ENDP			; `dynamic initializer for 'g_CsNPC_Guardian''
; Function compile flags: /Odtp /ZI
text$yc	ENDS
;	COMDAT ??__Fg_CsNPC_Guardian@@YAXXZ
text$yd	SEGMENT
??__Fg_CsNPC_Guardian@@YAXXZ PROC			; `dynamic atexit destructor for 'g_CsNPC_Guardian'', COMDAT
  00000	55		 push	 ebp
  00001	8b ec		 mov	 ebp, esp
  00003	83 ec 40	 sub	 esp, 64			; 00000040H
  00006	53		 push	 ebx
  00007	56		 push	 esi
  00008	57		 push	 edi
  00009	b9 00 00 00 00	 mov	 ecx, OFFSET ?g_CsNPC_Guardian@@3VCGuardian@@A ; g_CsNPC_Guardian
  0000e	e8 00 00 00 00	 call	 ??1CGuardian@@UAE@XZ	; CGuardian::~CGuardian
  00013	5f		 pop	 edi
  00014	5e		 pop	 esi
  00015	5b		 pop	 ebx
  00016	8b e5		 mov	 esp, ebp
  00018	5d		 pop	 ebp
  00019	c3		 ret	 0
??__Fg_CsNPC_Guardian@@YAXXZ ENDP			; `dynamic atexit destructor for 'g_CsNPC_Guardian''
text$yd	ENDS
PUBLIC	?g_CsNPC_Guardian@@3VCGuardian@@A		; g_CsNPC_Guardian
_BSS	SEGMENT
?g_CsNPC_Guardian@@3VCGuardian@@A DD 01H DUP (?)	; g_CsNPC_Guardian
_BSS	ENDS
CRT$XCU	SEGMENT
_g_CsNPC_Guardian$initializer$ DD FLAT:??__Eg_CsNPC_Guardian@@YAXXZ
CRT$XCU	ENDS
END
