; Listing generated by Microsoft (R) Optimizing Compiler Version 16.00.40219.01 

	TITLE	D:\Projects\ExTeam6.3\Source\GameServer\GameServer\GuildBank.cpp
	.686P
	.XMM
	include listing.inc
	.model	flat

INCLUDELIB LIBCMT
INCLUDELIB OLDNAMES

PUBLIC	?g_GuildBank@@3VCGuildBank@@A			; g_GuildBank
_BSS	SEGMENT
?g_GuildBank@@3VCGuildBank@@A DB 010H DUP (?)		; g_GuildBank
_BSS	ENDS
_DATA	SEGMENT
_g_iNpcUpDfLevel_CGATE DD 01H
	DD	02H
	DD	02dc6c0H
	DD	02H
	DD	03H
	DD	02dc6c0H
	DD	03H
	DD	04H
	DD	02dc6c0H
_g_iNpcUpDfLevel_CSTATUE DD 01H
	DD	03H
	DD	02dc6c0H
	DD	02H
	DD	05H
	DD	02dc6c0H
	DD	03H
	DD	07H
	DD	02dc6c0H
_g_iNpcUpMaxHP_CGATE DD 02625a0H
	DD	02H
	DD	0f4240H
	DD	03567e0H
	DD	03H
	DD	0f4240H
	DD	04f5880H
	DD	04H
	DD	0f4240H
_g_iNpcUpMaxHP_CSTATUE DD 02191c0H
	DD	03H
	DD	0f4240H
	DD	033e140H
	DD	05H
	DD	0f4240H
	DD	04c4b40H
	DD	07H
	DD	0f4240H
_g_iNpcUpRgLevel_CSTATUE DD 01H
	DD	03H
	DD	04c4b40H
	DD	02H
	DD	05H
	DD	04c4b40H
	DD	03H
	DD	07H
	DD	04c4b40H
_g_iCsUserReSpawnArea DD 023H
	DD	011H
	DD	090H
	DD	030H
	DD	04aH
	DD	090H
	DD	073H
	DD	09aH
	DD	023H
	DD	011H
	DD	090H
	DD	030H
_g_iNpcDefense_CGATE DD 064H
	DD	0b4H
	DD	012cH
	DD	0208H
_g_iNpcDefense_CSTATUE DD 050H
	DD	0b4H
	DD	0154H
	DD	0226H
_g_iCastleWallStepAxisY DD 071H
	DD	0a0H
	DD	0cbH
_DATA	ENDS
PUBLIC	??_H@YGXPAXIHP6EPAX0@Z@Z			; `vector constructor iterator'
; Function compile flags: /Odtp /ZI
;	COMDAT ??_H@YGXPAXIHP6EPAX0@Z@Z
_TEXT	SEGMENT
___t$ = 8						; size = 4
___s$ = 12						; size = 4
___n$ = 16						; size = 4
___f$ = 20						; size = 4
??_H@YGXPAXIHP6EPAX0@Z@Z PROC				; `vector constructor iterator', COMDAT
  00000	55		 push	 ebp
  00001	8b ec		 mov	 ebp, esp
  00003	83 ec 40	 sub	 esp, 64			; 00000040H
  00006	53		 push	 ebx
  00007	56		 push	 esi
  00008	57		 push	 edi
$LN2@vector:
  00009	8b 45 10	 mov	 eax, DWORD PTR ___n$[ebp]
  0000c	83 e8 01	 sub	 eax, 1
  0000f	89 45 10	 mov	 DWORD PTR ___n$[ebp], eax
  00012	78 11		 js	 SHORT $LN3@vector
  00014	8b 4d 08	 mov	 ecx, DWORD PTR ___t$[ebp]
  00017	ff 55 14	 call	 DWORD PTR ___f$[ebp]
  0001a	8b 45 08	 mov	 eax, DWORD PTR ___t$[ebp]
  0001d	03 45 0c	 add	 eax, DWORD PTR ___s$[ebp]
  00020	89 45 08	 mov	 DWORD PTR ___t$[ebp], eax
  00023	eb e4		 jmp	 SHORT $LN2@vector
$LN3@vector:
  00025	5f		 pop	 edi
  00026	5e		 pop	 esi
  00027	5b		 pop	 ebx
  00028	8b e5		 mov	 esp, ebp
  0002a	5d		 pop	 ebp
  0002b	c2 10 00	 ret	 16			; 00000010H
??_H@YGXPAXIHP6EPAX0@Z@Z ENDP				; `vector constructor iterator'
_TEXT	ENDS
PUBLIC	?Read@CGuildBank@@QAEXPAD@Z			; CGuildBank::Read
PUBLIC	??_C@_0BF@FNIAGCEK@ExData?2GuildBank?4ini?$AA@	; `string'
PUBLIC	?Load@CGuildBank@@QAEXXZ			; CGuildBank::Load
EXTRN	?GetNewPath@CDirPath@@QAEPADPAD@Z:PROC		; CDirPath::GetNewPath
EXTRN	?gDirPath@@3VCDirPath@@A:BYTE			; gDirPath
EXTRN	?CheckUser@CExLicense@@QAE_NH@Z:PROC		; CExLicense::CheckUser
EXTRN	?g_ExLicense@@3VCExLicense@@A:BYTE		; g_ExLicense
;	COMDAT ??_C@_0BF@FNIAGCEK@ExData?2GuildBank?4ini?$AA@
; File d:\projects\exteam6.3\source\gameserver\gameserver\guildbank.cpp
CONST	SEGMENT
??_C@_0BF@FNIAGCEK@ExData?2GuildBank?4ini?$AA@ DB 'ExData\GuildBank.ini', 00H ; `string'
; Function compile flags: /Odtp /ZI
CONST	ENDS
_TEXT	SEGMENT
_this$ = -4						; size = 4
?Load@CGuildBank@@QAEXXZ PROC				; CGuildBank::Load
; _this$ = ecx

; 17   : {

  00000	55		 push	 ebp
  00001	8b ec		 mov	 ebp, esp
  00003	83 ec 44	 sub	 esp, 68			; 00000044H
  00006	53		 push	 ebx
  00007	56		 push	 esi
  00008	57		 push	 edi
  00009	89 4d fc	 mov	 DWORD PTR _this$[ebp], ecx

; 18   : 	this->m_iEnable = 0;

  0000c	8b 45 fc	 mov	 eax, DWORD PTR _this$[ebp]
  0000f	c7 00 00 00 00
	00		 mov	 DWORD PTR [eax], 0

; 19   : 	this->m_iGuildBankMap = 0;

  00015	8b 45 fc	 mov	 eax, DWORD PTR _this$[ebp]
  00018	c7 40 04 00 00
	00 00		 mov	 DWORD PTR [eax+4], 0

; 20   : 
; 21   : 	if(g_ExLicense.CheckUser(eExUB::Local) ||
; 22   : 	   g_ExLicense.CheckUser(eExUB::MedoniAndrei) ||
; 23   : 	   g_ExLicense.CheckUser(eExUB::Gredy) || 
; 24   : 	   g_ExLicense.CheckUser(eExUB::GredyLocal) || 
; 25   : 	   g_ExLicense.CheckUser(eExUB::Gredy2) ||
; 26   : 	   g_ExLicense.CheckUser(eExUB::ProtectDebug) ||
; 27   : 	   g_ExLicense.CheckUser(eExUB::mu4you) ||
; 28   : 	   g_ExLicense.CheckUser(eExUB::Escalate) ||
; 29   : 	   g_ExLicense.CheckUser(eExUB::Artem) || 
; 30   : 	   g_ExLicense.CheckUser(eExUB::Artem2) ||
; 31   : 	   g_ExLicense.CheckUser(eExUB::eternalmu) ||
; 32   : 	   g_ExLicense.CheckUser(eExUB::SILVER1) ||
; 33   : 	   g_ExLicense.CheckUser(eExUB::SILVER2) ||
; 34   : 	   g_ExLicense.CheckUser(eExUB::SILVER_Local) ||
; 35   : 	   g_ExLicense.CheckUser(eExUB::NSGames))

  0001f	6a 00		 push	 0
  00021	b9 00 00 00 00	 mov	 ecx, OFFSET ?g_ExLicense@@3VCExLicense@@A ; g_ExLicense
  00026	e8 00 00 00 00	 call	 ?CheckUser@CExLicense@@QAE_NH@Z ; CExLicense::CheckUser
  0002b	0f b6 c0	 movzx	 eax, al
  0002e	85 c0		 test	 eax, eax
  00030	0f 85 26 01 00
	00		 jne	 $LN1@Load
  00036	6a 32		 push	 50			; 00000032H
  00038	b9 00 00 00 00	 mov	 ecx, OFFSET ?g_ExLicense@@3VCExLicense@@A ; g_ExLicense
  0003d	e8 00 00 00 00	 call	 ?CheckUser@CExLicense@@QAE_NH@Z ; CExLicense::CheckUser
  00042	0f b6 c0	 movzx	 eax, al
  00045	85 c0		 test	 eax, eax
  00047	0f 85 0f 01 00
	00		 jne	 $LN1@Load
  0004d	6a 20		 push	 32			; 00000020H
  0004f	b9 00 00 00 00	 mov	 ecx, OFFSET ?g_ExLicense@@3VCExLicense@@A ; g_ExLicense
  00054	e8 00 00 00 00	 call	 ?CheckUser@CExLicense@@QAE_NH@Z ; CExLicense::CheckUser
  00059	0f b6 c0	 movzx	 eax, al
  0005c	85 c0		 test	 eax, eax
  0005e	0f 85 f8 00 00
	00		 jne	 $LN1@Load
  00064	6a 21		 push	 33			; 00000021H
  00066	b9 00 00 00 00	 mov	 ecx, OFFSET ?g_ExLicense@@3VCExLicense@@A ; g_ExLicense
  0006b	e8 00 00 00 00	 call	 ?CheckUser@CExLicense@@QAE_NH@Z ; CExLicense::CheckUser
  00070	0f b6 c0	 movzx	 eax, al
  00073	85 c0		 test	 eax, eax
  00075	0f 85 e1 00 00
	00		 jne	 $LN1@Load
  0007b	6a 22		 push	 34			; 00000022H
  0007d	b9 00 00 00 00	 mov	 ecx, OFFSET ?g_ExLicense@@3VCExLicense@@A ; g_ExLicense
  00082	e8 00 00 00 00	 call	 ?CheckUser@CExLicense@@QAE_NH@Z ; CExLicense::CheckUser
  00087	0f b6 c0	 movzx	 eax, al
  0008a	85 c0		 test	 eax, eax
  0008c	0f 85 ca 00 00
	00		 jne	 $LN1@Load
  00092	6a 4b		 push	 75			; 0000004bH
  00094	b9 00 00 00 00	 mov	 ecx, OFFSET ?g_ExLicense@@3VCExLicense@@A ; g_ExLicense
  00099	e8 00 00 00 00	 call	 ?CheckUser@CExLicense@@QAE_NH@Z ; CExLicense::CheckUser
  0009e	0f b6 c0	 movzx	 eax, al
  000a1	85 c0		 test	 eax, eax
  000a3	0f 85 b3 00 00
	00		 jne	 $LN1@Load
  000a9	6a 4e		 push	 78			; 0000004eH
  000ab	b9 00 00 00 00	 mov	 ecx, OFFSET ?g_ExLicense@@3VCExLicense@@A ; g_ExLicense
  000b0	e8 00 00 00 00	 call	 ?CheckUser@CExLicense@@QAE_NH@Z ; CExLicense::CheckUser
  000b5	0f b6 c0	 movzx	 eax, al
  000b8	85 c0		 test	 eax, eax
  000ba	0f 85 9c 00 00
	00		 jne	 $LN1@Load
  000c0	6a 40		 push	 64			; 00000040H
  000c2	b9 00 00 00 00	 mov	 ecx, OFFSET ?g_ExLicense@@3VCExLicense@@A ; g_ExLicense
  000c7	e8 00 00 00 00	 call	 ?CheckUser@CExLicense@@QAE_NH@Z ; CExLicense::CheckUser
  000cc	0f b6 c0	 movzx	 eax, al
  000cf	85 c0		 test	 eax, eax
  000d1	0f 85 85 00 00
	00		 jne	 $LN1@Load
  000d7	6a 30		 push	 48			; 00000030H
  000d9	b9 00 00 00 00	 mov	 ecx, OFFSET ?g_ExLicense@@3VCExLicense@@A ; g_ExLicense
  000de	e8 00 00 00 00	 call	 ?CheckUser@CExLicense@@QAE_NH@Z ; CExLicense::CheckUser
  000e3	0f b6 c0	 movzx	 eax, al
  000e6	85 c0		 test	 eax, eax
  000e8	75 72		 jne	 SHORT $LN1@Load
  000ea	6a 31		 push	 49			; 00000031H
  000ec	b9 00 00 00 00	 mov	 ecx, OFFSET ?g_ExLicense@@3VCExLicense@@A ; g_ExLicense
  000f1	e8 00 00 00 00	 call	 ?CheckUser@CExLicense@@QAE_NH@Z ; CExLicense::CheckUser
  000f6	0f b6 c0	 movzx	 eax, al
  000f9	85 c0		 test	 eax, eax
  000fb	75 5f		 jne	 SHORT $LN1@Load
  000fd	6a 4f		 push	 79			; 0000004fH
  000ff	b9 00 00 00 00	 mov	 ecx, OFFSET ?g_ExLicense@@3VCExLicense@@A ; g_ExLicense
  00104	e8 00 00 00 00	 call	 ?CheckUser@CExLicense@@QAE_NH@Z ; CExLicense::CheckUser
  00109	0f b6 c0	 movzx	 eax, al
  0010c	85 c0		 test	 eax, eax
  0010e	75 4c		 jne	 SHORT $LN1@Load
  00110	6a 07		 push	 7
  00112	b9 00 00 00 00	 mov	 ecx, OFFSET ?g_ExLicense@@3VCExLicense@@A ; g_ExLicense
  00117	e8 00 00 00 00	 call	 ?CheckUser@CExLicense@@QAE_NH@Z ; CExLicense::CheckUser
  0011c	0f b6 c0	 movzx	 eax, al
  0011f	85 c0		 test	 eax, eax
  00121	75 39		 jne	 SHORT $LN1@Load
  00123	6a 08		 push	 8
  00125	b9 00 00 00 00	 mov	 ecx, OFFSET ?g_ExLicense@@3VCExLicense@@A ; g_ExLicense
  0012a	e8 00 00 00 00	 call	 ?CheckUser@CExLicense@@QAE_NH@Z ; CExLicense::CheckUser
  0012f	0f b6 c0	 movzx	 eax, al
  00132	85 c0		 test	 eax, eax
  00134	75 26		 jne	 SHORT $LN1@Load
  00136	6a 2b		 push	 43			; 0000002bH
  00138	b9 00 00 00 00	 mov	 ecx, OFFSET ?g_ExLicense@@3VCExLicense@@A ; g_ExLicense
  0013d	e8 00 00 00 00	 call	 ?CheckUser@CExLicense@@QAE_NH@Z ; CExLicense::CheckUser
  00142	0f b6 c0	 movzx	 eax, al
  00145	85 c0		 test	 eax, eax
  00147	75 13		 jne	 SHORT $LN1@Load
  00149	6a 51		 push	 81			; 00000051H
  0014b	b9 00 00 00 00	 mov	 ecx, OFFSET ?g_ExLicense@@3VCExLicense@@A ; g_ExLicense
  00150	e8 00 00 00 00	 call	 ?CheckUser@CExLicense@@QAE_NH@Z ; CExLicense::CheckUser
  00155	0f b6 c0	 movzx	 eax, al
  00158	85 c0		 test	 eax, eax
  0015a	74 18		 je	 SHORT $LN3@Load
$LN1@Load:

; 36   : 	{
; 37   : 		this->Read(gDirPath.GetNewPath("ExData\\GuildBank.ini"));

  0015c	68 00 00 00 00	 push	 OFFSET ??_C@_0BF@FNIAGCEK@ExData?2GuildBank?4ini?$AA@
  00161	b9 00 00 00 00	 mov	 ecx, OFFSET ?gDirPath@@3VCDirPath@@A ; gDirPath
  00166	e8 00 00 00 00	 call	 ?GetNewPath@CDirPath@@QAEPADPAD@Z ; CDirPath::GetNewPath
  0016b	50		 push	 eax
  0016c	8b 4d fc	 mov	 ecx, DWORD PTR _this$[ebp]
  0016f	e8 00 00 00 00	 call	 ?Read@CGuildBank@@QAEXPAD@Z ; CGuildBank::Read
$LN3@Load:

; 38   : 	}
; 39   : }

  00174	5f		 pop	 edi
  00175	5e		 pop	 esi
  00176	5b		 pop	 ebx
  00177	8b e5		 mov	 esp, ebp
  00179	5d		 pop	 ebp
  0017a	c3		 ret	 0
?Load@CGuildBank@@QAEXXZ ENDP				; CGuildBank::Load
_TEXT	ENDS
PUBLIC	??_C@_0L@GBNGFBCI@GuildBankY?$AA@		; `string'
PUBLIC	??_C@_0L@HIMNGAGJ@GuildBankX?$AA@		; `string'
PUBLIC	??_C@_0N@PIGALGDH@GuildBankMap?$AA@		; `string'
PUBLIC	??_C@_06MLPMCPDE@ExTeam?$AA@			; `string'
PUBLIC	??_C@_06CKGENIKG@Enable?$AA@			; `string'
EXTRN	__imp__GetPrivateProfileIntA@16:PROC
;	COMDAT ??_C@_0L@GBNGFBCI@GuildBankY?$AA@
CONST	SEGMENT
??_C@_0L@GBNGFBCI@GuildBankY?$AA@ DB 'GuildBankY', 00H	; `string'
CONST	ENDS
;	COMDAT ??_C@_0L@HIMNGAGJ@GuildBankX?$AA@
CONST	SEGMENT
??_C@_0L@HIMNGAGJ@GuildBankX?$AA@ DB 'GuildBankX', 00H	; `string'
CONST	ENDS
;	COMDAT ??_C@_0N@PIGALGDH@GuildBankMap?$AA@
CONST	SEGMENT
??_C@_0N@PIGALGDH@GuildBankMap?$AA@ DB 'GuildBankMap', 00H ; `string'
CONST	ENDS
;	COMDAT ??_C@_06MLPMCPDE@ExTeam?$AA@
CONST	SEGMENT
??_C@_06MLPMCPDE@ExTeam?$AA@ DB 'ExTeam', 00H		; `string'
CONST	ENDS
;	COMDAT ??_C@_06CKGENIKG@Enable?$AA@
CONST	SEGMENT
??_C@_06CKGENIKG@Enable?$AA@ DB 'Enable', 00H		; `string'
; Function compile flags: /Odtp /ZI
CONST	ENDS
_TEXT	SEGMENT
_this$ = -4						; size = 4
_filename$ = 8						; size = 4
?Read@CGuildBank@@QAEXPAD@Z PROC			; CGuildBank::Read
; _this$ = ecx

; 42   : {

  00180	55		 push	 ebp
  00181	8b ec		 mov	 ebp, esp
  00183	83 ec 44	 sub	 esp, 68			; 00000044H
  00186	53		 push	 ebx
  00187	56		 push	 esi
  00188	57		 push	 edi
  00189	89 4d fc	 mov	 DWORD PTR _this$[ebp], ecx

; 43   : 	this->m_iEnable = GetPrivateProfileInt("ExTeam", "Enable", 0, filename);

  0018c	8b 45 08	 mov	 eax, DWORD PTR _filename$[ebp]
  0018f	50		 push	 eax
  00190	6a 00		 push	 0
  00192	68 00 00 00 00	 push	 OFFSET ??_C@_06CKGENIKG@Enable?$AA@
  00197	68 00 00 00 00	 push	 OFFSET ??_C@_06MLPMCPDE@ExTeam?$AA@
  0019c	ff 15 00 00 00
	00		 call	 DWORD PTR __imp__GetPrivateProfileIntA@16
  001a2	8b 4d fc	 mov	 ecx, DWORD PTR _this$[ebp]
  001a5	89 01		 mov	 DWORD PTR [ecx], eax

; 44   : 	this->m_iGuildBankMap = GetPrivateProfileInt("ExTeam", "GuildBankMap", 0, filename);

  001a7	8b 45 08	 mov	 eax, DWORD PTR _filename$[ebp]
  001aa	50		 push	 eax
  001ab	6a 00		 push	 0
  001ad	68 00 00 00 00	 push	 OFFSET ??_C@_0N@PIGALGDH@GuildBankMap?$AA@
  001b2	68 00 00 00 00	 push	 OFFSET ??_C@_06MLPMCPDE@ExTeam?$AA@
  001b7	ff 15 00 00 00
	00		 call	 DWORD PTR __imp__GetPrivateProfileIntA@16
  001bd	8b 4d fc	 mov	 ecx, DWORD PTR _this$[ebp]
  001c0	89 41 04	 mov	 DWORD PTR [ecx+4], eax

; 45   : 	this->m_iGuildBankX = GetPrivateProfileInt("ExTeam", "GuildBankX", 0, filename);

  001c3	8b 45 08	 mov	 eax, DWORD PTR _filename$[ebp]
  001c6	50		 push	 eax
  001c7	6a 00		 push	 0
  001c9	68 00 00 00 00	 push	 OFFSET ??_C@_0L@HIMNGAGJ@GuildBankX?$AA@
  001ce	68 00 00 00 00	 push	 OFFSET ??_C@_06MLPMCPDE@ExTeam?$AA@
  001d3	ff 15 00 00 00
	00		 call	 DWORD PTR __imp__GetPrivateProfileIntA@16
  001d9	8b 4d fc	 mov	 ecx, DWORD PTR _this$[ebp]
  001dc	89 41 08	 mov	 DWORD PTR [ecx+8], eax

; 46   : 	this->m_iGuildBankY = GetPrivateProfileInt("ExTeam", "GuildBankY", 0, filename);

  001df	8b 45 08	 mov	 eax, DWORD PTR _filename$[ebp]
  001e2	50		 push	 eax
  001e3	6a 00		 push	 0
  001e5	68 00 00 00 00	 push	 OFFSET ??_C@_0L@GBNGFBCI@GuildBankY?$AA@
  001ea	68 00 00 00 00	 push	 OFFSET ??_C@_06MLPMCPDE@ExTeam?$AA@
  001ef	ff 15 00 00 00
	00		 call	 DWORD PTR __imp__GetPrivateProfileIntA@16
  001f5	8b 4d fc	 mov	 ecx, DWORD PTR _this$[ebp]
  001f8	89 41 0c	 mov	 DWORD PTR [ecx+12], eax

; 47   : }

  001fb	5f		 pop	 edi
  001fc	5e		 pop	 esi
  001fd	5b		 pop	 ebx
  001fe	8b e5		 mov	 esp, ebp
  00200	5d		 pop	 ebp
  00201	c2 04 00	 ret	 4
?Read@CGuildBank@@QAEXPAD@Z ENDP			; CGuildBank::Read
_TEXT	ENDS
PUBLIC	?ClearWarehouse@CGuildBank@@QAEXH@Z		; CGuildBank::ClearWarehouse
PUBLIC	??_C@_0DD@CMMLNNOO@Some?5other?5character?5is?5using?5th@ ; `string'
PUBLIC	??_C@_0DG@ILLMGJMA@You?5need?5to?5be?5in?5a?5Guild?5before@ ; `string'
PUBLIC	__$ArrayPad$
PUBLIC	?GDGetGuildWarehouseList@CGuildBank@@QAEXH@Z	; CGuildBank::GDGetGuildWarehouseList
EXTRN	?Send@DBSockMng@@QAEHPADH@Z:PROC		; DBSockMng::Send
EXTRN	?cDBSMng@@3VDBSockMng@@A:BYTE			; cDBSMng
EXTRN	_memcpy:PROC
EXTRN	?GCServerMsgStringSend@@YAXPADHE@Z:PROC		; GCServerMsgStringSend
EXTRN	_strlen:PROC
EXTRN	?gObj@@3PAUOBJECTSTRUCT@@A:DWORD		; gObj
EXTRN	___security_cookie:DWORD
EXTRN	@__security_check_cookie@4:PROC
;	COMDAT ??_C@_0DD@CMMLNNOO@Some?5other?5character?5is?5using?5th@
CONST	SEGMENT
??_C@_0DD@CMMLNNOO@Some?5other?5character?5is?5using?5th@ DB 'Some other '
	DB	'character is using this GuildWarehouse!', 00H ; `string'
CONST	ENDS
;	COMDAT ??_C@_0DG@ILLMGJMA@You?5need?5to?5be?5in?5a?5Guild?5before@
CONST	SEGMENT
??_C@_0DG@ILLMGJMA@You?5need?5to?5be?5in?5a?5Guild?5before@ DB 'You need '
	DB	'to be in a Guild before open GuildWarehouse!', 00H ; `string'
; Function compile flags: /Odtp /ZI
CONST	ENDS
_TEXT	SEGMENT
tv67 = -108						; size = 4
_pMsg$ = -40						; size = 32
_this$ = -8						; size = 4
__$ArrayPad$ = -4					; size = 4
_aIndex$ = 8						; size = 4
?GDGetGuildWarehouseList@CGuildBank@@QAEXH@Z PROC	; CGuildBank::GDGetGuildWarehouseList
; _this$ = ecx

; 50   : {

  00210	55		 push	 ebp
  00211	8b ec		 mov	 ebp, esp
  00213	83 ec 6c	 sub	 esp, 108		; 0000006cH
  00216	a1 00 00 00 00	 mov	 eax, DWORD PTR ___security_cookie
  0021b	33 c5		 xor	 eax, ebp
  0021d	89 45 fc	 mov	 DWORD PTR __$ArrayPad$[ebp], eax
  00220	53		 push	 ebx
  00221	56		 push	 esi
  00222	57		 push	 edi
  00223	89 4d f8	 mov	 DWORD PTR _this$[ebp], ecx

; 51   : 	if(OBJMAX_RANGE(aIndex) == 0)

  00226	83 7d 08 00	 cmp	 DWORD PTR _aIndex$[ebp], 0
  0022a	7d 09		 jge	 SHORT $LN8@GDGetGuild
  0022c	c7 45 94 00 00
	00 00		 mov	 DWORD PTR tv67[ebp], 0
  00233	eb 0f		 jmp	 SHORT $LN9@GDGetGuild
$LN8@GDGetGuild:
  00235	33 c0		 xor	 eax, eax
  00237	81 7d 08 97 3a
	00 00		 cmp	 DWORD PTR _aIndex$[ebp], 14999 ; 00003a97H
  0023e	0f 9e c0	 setle	 al
  00241	89 45 94	 mov	 DWORD PTR tv67[ebp], eax
$LN9@GDGetGuild:
  00244	83 7d 94 00	 cmp	 DWORD PTR tv67[ebp], 0
  00248	75 05		 jne	 SHORT $LN5@GDGetGuild

; 52   : 	{
; 53   : 		return;

  0024a	e9 02 03 00 00	 jmp	 $LN6@GDGetGuild
$LN5@GDGetGuild:

; 54   : 	}
; 55   : 
; 56   : 	if(strlen(gObj[aIndex].AccountID) < 1)

  0024f	8b 45 08	 mov	 eax, DWORD PTR _aIndex$[ebp]
  00252	69 c0 38 2b 00
	00		 imul	 eax, 11064		; 00002b38H
  00258	8b 0d 00 00 00
	00		 mov	 ecx, DWORD PTR ?gObj@@3PAUOBJECTSTRUCT@@A ; gObj
  0025e	8d 54 01 6c	 lea	 edx, DWORD PTR [ecx+eax+108]
  00262	52		 push	 edx
  00263	e8 00 00 00 00	 call	 _strlen
  00268	83 c4 04	 add	 esp, 4
  0026b	83 f8 01	 cmp	 eax, 1
  0026e	73 05		 jae	 SHORT $LN4@GDGetGuild

; 57   : 	{
; 58   : 		return;

  00270	e9 dc 02 00 00	 jmp	 $LN6@GDGetGuild
$LN4@GDGetGuild:

; 59   : 	}
; 60   : 
; 61   : 	if(strlen(gObj[aIndex].GuildName) < 1)

  00275	8b 45 08	 mov	 eax, DWORD PTR _aIndex$[ebp]
  00278	69 c0 38 2b 00
	00		 imul	 eax, 11064		; 00002b38H
  0027e	8b 0d 00 00 00
	00		 mov	 ecx, DWORD PTR ?gObj@@3PAUOBJECTSTRUCT@@A ; gObj
  00284	8d 94 01 3c 04
	00 00		 lea	 edx, DWORD PTR [ecx+eax+1084]
  0028b	52		 push	 edx
  0028c	e8 00 00 00 00	 call	 _strlen
  00291	83 c4 04	 add	 esp, 4
  00294	83 f8 01	 cmp	 eax, 1
  00297	0f 83 8d 00 00
	00		 jae	 $LN3@GDGetGuild

; 62   : 	{
; 63   : 		GCServerMsgStringSend("You need to be in a Guild before open GuildWarehouse!",aIndex, 0x01);

  0029d	6a 01		 push	 1
  0029f	8b 45 08	 mov	 eax, DWORD PTR _aIndex$[ebp]
  002a2	50		 push	 eax
  002a3	68 00 00 00 00	 push	 OFFSET ??_C@_0DG@ILLMGJMA@You?5need?5to?5be?5in?5a?5Guild?5before@
  002a8	e8 00 00 00 00	 call	 ?GCServerMsgStringSend@@YAXPADHE@Z ; GCServerMsgStringSend
  002ad	83 c4 0c	 add	 esp, 12			; 0000000cH

; 64   : 		gObj[aIndex].m_ReqWarehouseOpen = false;

  002b0	8b 45 08	 mov	 eax, DWORD PTR _aIndex$[ebp]
  002b3	69 c0 38 2b 00
	00		 imul	 eax, 11064		; 00002b38H
  002b9	8b 0d 00 00 00
	00		 mov	 ecx, DWORD PTR ?gObj@@3PAUOBJECTSTRUCT@@A ; gObj
  002bf	c6 84 01 1c 11
	00 00 00	 mov	 BYTE PTR [ecx+eax+4380], 0

; 65   : 		gObj[aIndex].m_IfState.use = 0;

  002c7	8b 45 08	 mov	 eax, DWORD PTR _aIndex$[ebp]
  002ca	69 c0 38 2b 00
	00		 imul	 eax, 11064		; 00002b38H
  002d0	8b 0d 00 00 00
	00		 mov	 ecx, DWORD PTR ?gObj@@3PAUOBJECTSTRUCT@@A ; gObj
  002d6	8b 94 01 1c 0e
	00 00		 mov	 edx, DWORD PTR [ecx+eax+3612]
  002dd	83 e2 fc	 and	 edx, -4			; fffffffcH
  002e0	8b 45 08	 mov	 eax, DWORD PTR _aIndex$[ebp]
  002e3	69 c0 38 2b 00
	00		 imul	 eax, 11064		; 00002b38H
  002e9	8b 0d 00 00 00
	00		 mov	 ecx, DWORD PTR ?gObj@@3PAUOBJECTSTRUCT@@A ; gObj
  002ef	89 94 01 1c 0e
	00 00		 mov	 DWORD PTR [ecx+eax+3612], edx

; 66   : 		gObj[aIndex].m_IfState.state = 0;

  002f6	8b 45 08	 mov	 eax, DWORD PTR _aIndex$[ebp]
  002f9	69 c0 38 2b 00
	00		 imul	 eax, 11064		; 00002b38H
  002ff	8b 0d 00 00 00
	00		 mov	 ecx, DWORD PTR ?gObj@@3PAUOBJECTSTRUCT@@A ; gObj
  00305	8b 94 01 1c 0e
	00 00		 mov	 edx, DWORD PTR [ecx+eax+3612]
  0030c	83 e2 c3	 and	 edx, -61		; ffffffc3H
  0030f	8b 45 08	 mov	 eax, DWORD PTR _aIndex$[ebp]
  00312	69 c0 38 2b 00
	00		 imul	 eax, 11064		; 00002b38H
  00318	8b 0d 00 00 00
	00		 mov	 ecx, DWORD PTR ?gObj@@3PAUOBJECTSTRUCT@@A ; gObj
  0031e	89 94 01 1c 0e
	00 00		 mov	 DWORD PTR [ecx+eax+3612], edx

; 67   : 		return;

  00325	e9 27 02 00 00	 jmp	 $LN6@GDGetGuild
$LN3@GDGetGuild:

; 68   : 	}
; 69   : 
; 70   : 	if(gObj[aIndex].GuildNumber <= 0)

  0032a	8b 45 08	 mov	 eax, DWORD PTR _aIndex$[ebp]
  0032d	69 c0 38 2b 00
	00		 imul	 eax, 11064		; 00002b38H
  00333	8b 0d 00 00 00
	00		 mov	 ecx, DWORD PTR ?gObj@@3PAUOBJECTSTRUCT@@A ; gObj
  00339	83 bc 01 34 04
	00 00 00	 cmp	 DWORD PTR [ecx+eax+1076], 0
  00341	0f 8f 8d 00 00
	00		 jg	 $LN2@GDGetGuild

; 71   : 	{
; 72   : 		GCServerMsgStringSend("You need to be in a Guild before open GuildWarehouse!",aIndex, 0x01);

  00347	6a 01		 push	 1
  00349	8b 45 08	 mov	 eax, DWORD PTR _aIndex$[ebp]
  0034c	50		 push	 eax
  0034d	68 00 00 00 00	 push	 OFFSET ??_C@_0DG@ILLMGJMA@You?5need?5to?5be?5in?5a?5Guild?5before@
  00352	e8 00 00 00 00	 call	 ?GCServerMsgStringSend@@YAXPADHE@Z ; GCServerMsgStringSend
  00357	83 c4 0c	 add	 esp, 12			; 0000000cH

; 73   : 		gObj[aIndex].m_ReqWarehouseOpen = false;

  0035a	8b 45 08	 mov	 eax, DWORD PTR _aIndex$[ebp]
  0035d	69 c0 38 2b 00
	00		 imul	 eax, 11064		; 00002b38H
  00363	8b 0d 00 00 00
	00		 mov	 ecx, DWORD PTR ?gObj@@3PAUOBJECTSTRUCT@@A ; gObj
  00369	c6 84 01 1c 11
	00 00 00	 mov	 BYTE PTR [ecx+eax+4380], 0

; 74   : 		gObj[aIndex].m_IfState.use = 0;

  00371	8b 45 08	 mov	 eax, DWORD PTR _aIndex$[ebp]
  00374	69 c0 38 2b 00
	00		 imul	 eax, 11064		; 00002b38H
  0037a	8b 0d 00 00 00
	00		 mov	 ecx, DWORD PTR ?gObj@@3PAUOBJECTSTRUCT@@A ; gObj
  00380	8b 94 01 1c 0e
	00 00		 mov	 edx, DWORD PTR [ecx+eax+3612]
  00387	83 e2 fc	 and	 edx, -4			; fffffffcH
  0038a	8b 45 08	 mov	 eax, DWORD PTR _aIndex$[ebp]
  0038d	69 c0 38 2b 00
	00		 imul	 eax, 11064		; 00002b38H
  00393	8b 0d 00 00 00
	00		 mov	 ecx, DWORD PTR ?gObj@@3PAUOBJECTSTRUCT@@A ; gObj
  00399	89 94 01 1c 0e
	00 00		 mov	 DWORD PTR [ecx+eax+3612], edx

; 75   : 		gObj[aIndex].m_IfState.state = 0;

  003a0	8b 45 08	 mov	 eax, DWORD PTR _aIndex$[ebp]
  003a3	69 c0 38 2b 00
	00		 imul	 eax, 11064		; 00002b38H
  003a9	8b 0d 00 00 00
	00		 mov	 ecx, DWORD PTR ?gObj@@3PAUOBJECTSTRUCT@@A ; gObj
  003af	8b 94 01 1c 0e
	00 00		 mov	 edx, DWORD PTR [ecx+eax+3612]
  003b6	83 e2 c3	 and	 edx, -61		; ffffffc3H
  003b9	8b 45 08	 mov	 eax, DWORD PTR _aIndex$[ebp]
  003bc	69 c0 38 2b 00
	00		 imul	 eax, 11064		; 00002b38H
  003c2	8b 0d 00 00 00
	00		 mov	 ecx, DWORD PTR ?gObj@@3PAUOBJECTSTRUCT@@A ; gObj
  003c8	89 94 01 1c 0e
	00 00		 mov	 DWORD PTR [ecx+eax+3612], edx

; 76   : 		return;

  003cf	e9 7d 01 00 00	 jmp	 $LN6@GDGetGuild
$LN2@GDGetGuild:

; 77   : 	}
; 78   : 
; 79   : 	if(gObj[aIndex].lpGuild->WareOpen == 1)

  003d4	8b 45 08	 mov	 eax, DWORD PTR _aIndex$[ebp]
  003d7	69 c0 38 2b 00
	00		 imul	 eax, 11064		; 00002b38H
  003dd	8b 0d 00 00 00
	00		 mov	 ecx, DWORD PTR ?gObj@@3PAUOBJECTSTRUCT@@A ; gObj
  003e3	8b 94 01 38 04
	00 00		 mov	 edx, DWORD PTR [ecx+eax+1080]
  003ea	83 ba 44 07 00
	00 01		 cmp	 DWORD PTR [edx+1860], 1
  003f1	0f 85 8d 00 00
	00		 jne	 $LN1@GDGetGuild

; 80   : 	{
; 81   : 		GCServerMsgStringSend("Some other character is using this GuildWarehouse!",aIndex, 0x01);

  003f7	6a 01		 push	 1
  003f9	8b 45 08	 mov	 eax, DWORD PTR _aIndex$[ebp]
  003fc	50		 push	 eax
  003fd	68 00 00 00 00	 push	 OFFSET ??_C@_0DD@CMMLNNOO@Some?5other?5character?5is?5using?5th@
  00402	e8 00 00 00 00	 call	 ?GCServerMsgStringSend@@YAXPADHE@Z ; GCServerMsgStringSend
  00407	83 c4 0c	 add	 esp, 12			; 0000000cH

; 82   : 		gObj[aIndex].m_ReqWarehouseOpen = false;

  0040a	8b 45 08	 mov	 eax, DWORD PTR _aIndex$[ebp]
  0040d	69 c0 38 2b 00
	00		 imul	 eax, 11064		; 00002b38H
  00413	8b 0d 00 00 00
	00		 mov	 ecx, DWORD PTR ?gObj@@3PAUOBJECTSTRUCT@@A ; gObj
  00419	c6 84 01 1c 11
	00 00 00	 mov	 BYTE PTR [ecx+eax+4380], 0

; 83   : 		gObj[aIndex].m_IfState.use = 0;

  00421	8b 45 08	 mov	 eax, DWORD PTR _aIndex$[ebp]
  00424	69 c0 38 2b 00
	00		 imul	 eax, 11064		; 00002b38H
  0042a	8b 0d 00 00 00
	00		 mov	 ecx, DWORD PTR ?gObj@@3PAUOBJECTSTRUCT@@A ; gObj
  00430	8b 94 01 1c 0e
	00 00		 mov	 edx, DWORD PTR [ecx+eax+3612]
  00437	83 e2 fc	 and	 edx, -4			; fffffffcH
  0043a	8b 45 08	 mov	 eax, DWORD PTR _aIndex$[ebp]
  0043d	69 c0 38 2b 00
	00		 imul	 eax, 11064		; 00002b38H
  00443	8b 0d 00 00 00
	00		 mov	 ecx, DWORD PTR ?gObj@@3PAUOBJECTSTRUCT@@A ; gObj
  00449	89 94 01 1c 0e
	00 00		 mov	 DWORD PTR [ecx+eax+3612], edx

; 84   : 		gObj[aIndex].m_IfState.state = 0;

  00450	8b 45 08	 mov	 eax, DWORD PTR _aIndex$[ebp]
  00453	69 c0 38 2b 00
	00		 imul	 eax, 11064		; 00002b38H
  00459	8b 0d 00 00 00
	00		 mov	 ecx, DWORD PTR ?gObj@@3PAUOBJECTSTRUCT@@A ; gObj
  0045f	8b 94 01 1c 0e
	00 00		 mov	 edx, DWORD PTR [ecx+eax+3612]
  00466	83 e2 c3	 and	 edx, -61		; ffffffc3H
  00469	8b 45 08	 mov	 eax, DWORD PTR _aIndex$[ebp]
  0046c	69 c0 38 2b 00
	00		 imul	 eax, 11064		; 00002b38H
  00472	8b 0d 00 00 00
	00		 mov	 ecx, DWORD PTR ?gObj@@3PAUOBJECTSTRUCT@@A ; gObj
  00478	89 94 01 1c 0e
	00 00		 mov	 DWORD PTR [ecx+eax+3612], edx

; 85   : 		return;

  0047f	e9 cd 00 00 00	 jmp	 $LN6@GDGetGuild
$LN1@GDGetGuild:

; 86   : 	}
; 87   : 
; 88   : 	gObj[aIndex].m_bGuildBank = true;

  00484	8b 45 08	 mov	 eax, DWORD PTR _aIndex$[ebp]
  00487	69 c0 38 2b 00
	00		 imul	 eax, 11064		; 00002b38H
  0048d	8b 0d 00 00 00
	00		 mov	 ecx, DWORD PTR ?gObj@@3PAUOBJECTSTRUCT@@A ; gObj
  00493	c6 84 01 25 2b
	00 00 01	 mov	 BYTE PTR [ecx+eax+11045], 1

; 89   : 
; 90   : 	gObj[aIndex].lpGuild->WareOpen = 1;

  0049b	8b 45 08	 mov	 eax, DWORD PTR _aIndex$[ebp]
  0049e	69 c0 38 2b 00
	00		 imul	 eax, 11064		; 00002b38H
  004a4	8b 0d 00 00 00
	00		 mov	 ecx, DWORD PTR ?gObj@@3PAUOBJECTSTRUCT@@A ; gObj
  004aa	8b 94 01 38 04
	00 00		 mov	 edx, DWORD PTR [ecx+eax+1080]
  004b1	c7 82 44 07 00
	00 01 00 00 00	 mov	 DWORD PTR [edx+1860], 1

; 91   : 
; 92   : 	/* Guild Bank Fix */
; 93   : 	this->ClearWarehouse(aIndex);

  004bb	8b 45 08	 mov	 eax, DWORD PTR _aIndex$[ebp]
  004be	50		 push	 eax
  004bf	8b 4d f8	 mov	 ecx, DWORD PTR _this$[ebp]
  004c2	e8 00 00 00 00	 call	 ?ClearWarehouse@CGuildBank@@QAEXH@Z ; CGuildBank::ClearWarehouse

; 94   : 
; 95   : 	SDHP_GETGUILDWAREHOUSEDB pMsg;
; 96   : 
; 97   : 	pMsg.h.c = 0xC1;

  004c7	c6 45 d8 c1	 mov	 BYTE PTR _pMsg$[ebp], 193 ; 000000c1H

; 98   : 	pMsg.h.headcode = Protocol_GSSend_GetGuildWarehouseList;

  004cb	c6 45 da db	 mov	 BYTE PTR _pMsg$[ebp+2], 219 ; 000000dbH

; 99   : 	pMsg.h.size = sizeof(SDHP_GETGUILDWAREHOUSEDB);

  004cf	c6 45 d9 20	 mov	 BYTE PTR _pMsg$[ebp+1], 32 ; 00000020H

; 100  : 	pMsg.aIndex = aIndex;

  004d3	66 8b 45 08	 mov	 ax, WORD PTR _aIndex$[ebp]
  004d7	66 89 45 f0	 mov	 WORD PTR _pMsg$[ebp+24], ax

; 101  : 	pMsg.Number = gObj[aIndex].WarehouseNumber;

  004db	8b 45 08	 mov	 eax, DWORD PTR _aIndex$[ebp]
  004de	69 c0 38 2b 00
	00		 imul	 eax, 11064		; 00002b38H
  004e4	8b 0d 00 00 00
	00		 mov	 ecx, DWORD PTR ?gObj@@3PAUOBJECTSTRUCT@@A ; gObj
  004ea	8b 94 01 e8 2a
	00 00		 mov	 edx, DWORD PTR [ecx+eax+10984]
  004f1	89 55 f4	 mov	 DWORD PTR _pMsg$[ebp+28], edx

; 102  : 
; 103  : 	//memcpy(pMsg.G_Name, gObj[aIndex].GuildName, sizeof(pMsg.G_Name));
; 104  : 	memcpy(pMsg.G_Name, gObj[aIndex].lpGuild->Name, sizeof(pMsg.G_Name));

  004f4	6a 0a		 push	 10			; 0000000aH
  004f6	8b 45 08	 mov	 eax, DWORD PTR _aIndex$[ebp]
  004f9	69 c0 38 2b 00
	00		 imul	 eax, 11064		; 00002b38H
  004ff	8b 0d 00 00 00
	00		 mov	 ecx, DWORD PTR ?gObj@@3PAUOBJECTSTRUCT@@A ; gObj
  00505	8b 94 01 38 04
	00 00		 mov	 edx, DWORD PTR [ecx+eax+1080]
  0050c	83 c2 04	 add	 edx, 4
  0050f	52		 push	 edx
  00510	8d 45 db	 lea	 eax, DWORD PTR _pMsg$[ebp+3]
  00513	50		 push	 eax
  00514	e8 00 00 00 00	 call	 _memcpy
  00519	83 c4 0c	 add	 esp, 12			; 0000000cH

; 105  : 	memcpy(pMsg.AccountID, gObj[aIndex].AccountID, sizeof(pMsg.AccountID));

  0051c	6a 0a		 push	 10			; 0000000aH
  0051e	8b 45 08	 mov	 eax, DWORD PTR _aIndex$[ebp]
  00521	69 c0 38 2b 00
	00		 imul	 eax, 11064		; 00002b38H
  00527	8b 0d 00 00 00
	00		 mov	 ecx, DWORD PTR ?gObj@@3PAUOBJECTSTRUCT@@A ; gObj
  0052d	8d 54 01 6c	 lea	 edx, DWORD PTR [ecx+eax+108]
  00531	52		 push	 edx
  00532	8d 45 e5	 lea	 eax, DWORD PTR _pMsg$[ebp+13]
  00535	50		 push	 eax
  00536	e8 00 00 00 00	 call	 _memcpy
  0053b	83 c4 0c	 add	 esp, 12			; 0000000cH

; 106  : 
; 107  : 	cDBSMng.Send((char*)&pMsg, pMsg.h.size);

  0053e	0f b6 45 d9	 movzx	 eax, BYTE PTR _pMsg$[ebp+1]
  00542	50		 push	 eax
  00543	8d 4d d8	 lea	 ecx, DWORD PTR _pMsg$[ebp]
  00546	51		 push	 ecx
  00547	b9 00 00 00 00	 mov	 ecx, OFFSET ?cDBSMng@@3VDBSockMng@@A ; cDBSMng
  0054c	e8 00 00 00 00	 call	 ?Send@DBSockMng@@QAEHPADH@Z ; DBSockMng::Send
$LN6@GDGetGuild:

; 108  : }

  00551	5f		 pop	 edi
  00552	5e		 pop	 esi
  00553	5b		 pop	 ebx
  00554	8b 4d fc	 mov	 ecx, DWORD PTR __$ArrayPad$[ebp]
  00557	33 cd		 xor	 ecx, ebp
  00559	e8 00 00 00 00	 call	 @__security_check_cookie@4
  0055e	8b e5		 mov	 esp, ebp
  00560	5d		 pop	 ebp
  00561	c2 04 00	 ret	 4
?GDGetGuildWarehouseList@CGuildBank@@QAEXH@Z ENDP	; CGuildBank::GDGetGuildWarehouseList
_TEXT	ENDS
PUBLIC	??_C@_0DF@JAGDICPG@You?5need?5to?5be?5in?5a?5Guild?5before@ ; `string'
PUBLIC	__$ArrayPad$
PUBLIC	?GDDelGuildWarehouseList@CGuildBank@@QAEXH@Z	; CGuildBank::GDDelGuildWarehouseList
;	COMDAT ??_C@_0DF@JAGDICPG@You?5need?5to?5be?5in?5a?5Guild?5before@
CONST	SEGMENT
??_C@_0DF@JAGDICPG@You?5need?5to?5be?5in?5a?5Guild?5before@ DB 'You need '
	DB	'to be in a Guild before Del GuildWarehouse!', 00H ; `string'
; Function compile flags: /Odtp /ZI
CONST	ENDS
_TEXT	SEGMENT
tv67 = -108						; size = 4
_pMsg$ = -40						; size = 32
_this$ = -8						; size = 4
__$ArrayPad$ = -4					; size = 4
_aIndex$ = 8						; size = 4
?GDDelGuildWarehouseList@CGuildBank@@QAEXH@Z PROC	; CGuildBank::GDDelGuildWarehouseList
; _this$ = ecx

; 111  : {

  00570	55		 push	 ebp
  00571	8b ec		 mov	 ebp, esp
  00573	83 ec 6c	 sub	 esp, 108		; 0000006cH
  00576	a1 00 00 00 00	 mov	 eax, DWORD PTR ___security_cookie
  0057b	33 c5		 xor	 eax, ebp
  0057d	89 45 fc	 mov	 DWORD PTR __$ArrayPad$[ebp], eax
  00580	53		 push	 ebx
  00581	56		 push	 esi
  00582	57		 push	 edi
  00583	89 4d f8	 mov	 DWORD PTR _this$[ebp], ecx

; 112  : 	if(OBJMAX_RANGE(aIndex) == 0)

  00586	83 7d 08 00	 cmp	 DWORD PTR _aIndex$[ebp], 0
  0058a	7d 09		 jge	 SHORT $LN7@GDDelGuild
  0058c	c7 45 94 00 00
	00 00		 mov	 DWORD PTR tv67[ebp], 0
  00593	eb 0f		 jmp	 SHORT $LN8@GDDelGuild
$LN7@GDDelGuild:
  00595	33 c0		 xor	 eax, eax
  00597	81 7d 08 97 3a
	00 00		 cmp	 DWORD PTR _aIndex$[ebp], 14999 ; 00003a97H
  0059e	0f 9e c0	 setle	 al
  005a1	89 45 94	 mov	 DWORD PTR tv67[ebp], eax
$LN8@GDDelGuild:
  005a4	83 7d 94 00	 cmp	 DWORD PTR tv67[ebp], 0
  005a8	75 05		 jne	 SHORT $LN4@GDDelGuild

; 113  : 	{
; 114  : 		return;

  005aa	e9 f0 01 00 00	 jmp	 $LN5@GDDelGuild
$LN4@GDDelGuild:

; 115  : 	}
; 116  : 
; 117  : 	if(strlen(gObj[aIndex].AccountID) < 1)

  005af	8b 45 08	 mov	 eax, DWORD PTR _aIndex$[ebp]
  005b2	69 c0 38 2b 00
	00		 imul	 eax, 11064		; 00002b38H
  005b8	8b 0d 00 00 00
	00		 mov	 ecx, DWORD PTR ?gObj@@3PAUOBJECTSTRUCT@@A ; gObj
  005be	8d 54 01 6c	 lea	 edx, DWORD PTR [ecx+eax+108]
  005c2	52		 push	 edx
  005c3	e8 00 00 00 00	 call	 _strlen
  005c8	83 c4 04	 add	 esp, 4
  005cb	83 f8 01	 cmp	 eax, 1
  005ce	73 05		 jae	 SHORT $LN3@GDDelGuild

; 118  : 	{
; 119  : 		return;

  005d0	e9 ca 01 00 00	 jmp	 $LN5@GDDelGuild
$LN3@GDDelGuild:

; 120  : 	}
; 121  : 
; 122  : 	if(strlen(gObj[aIndex].GuildName) < 1)

  005d5	8b 45 08	 mov	 eax, DWORD PTR _aIndex$[ebp]
  005d8	69 c0 38 2b 00
	00		 imul	 eax, 11064		; 00002b38H
  005de	8b 0d 00 00 00
	00		 mov	 ecx, DWORD PTR ?gObj@@3PAUOBJECTSTRUCT@@A ; gObj
  005e4	8d 94 01 3c 04
	00 00		 lea	 edx, DWORD PTR [ecx+eax+1084]
  005eb	52		 push	 edx
  005ec	e8 00 00 00 00	 call	 _strlen
  005f1	83 c4 04	 add	 esp, 4
  005f4	83 f8 01	 cmp	 eax, 1
  005f7	0f 83 8d 00 00
	00		 jae	 $LN2@GDDelGuild

; 123  : 	{
; 124  : 		GCServerMsgStringSend("You need to be in a Guild before Del GuildWarehouse!",aIndex, 0x01);

  005fd	6a 01		 push	 1
  005ff	8b 45 08	 mov	 eax, DWORD PTR _aIndex$[ebp]
  00602	50		 push	 eax
  00603	68 00 00 00 00	 push	 OFFSET ??_C@_0DF@JAGDICPG@You?5need?5to?5be?5in?5a?5Guild?5before@
  00608	e8 00 00 00 00	 call	 ?GCServerMsgStringSend@@YAXPADHE@Z ; GCServerMsgStringSend
  0060d	83 c4 0c	 add	 esp, 12			; 0000000cH

; 125  : 		gObj[aIndex].m_ReqWarehouseOpen = false;

  00610	8b 45 08	 mov	 eax, DWORD PTR _aIndex$[ebp]
  00613	69 c0 38 2b 00
	00		 imul	 eax, 11064		; 00002b38H
  00619	8b 0d 00 00 00
	00		 mov	 ecx, DWORD PTR ?gObj@@3PAUOBJECTSTRUCT@@A ; gObj
  0061f	c6 84 01 1c 11
	00 00 00	 mov	 BYTE PTR [ecx+eax+4380], 0

; 126  : 		gObj[aIndex].m_IfState.use = 0;

  00627	8b 45 08	 mov	 eax, DWORD PTR _aIndex$[ebp]
  0062a	69 c0 38 2b 00
	00		 imul	 eax, 11064		; 00002b38H
  00630	8b 0d 00 00 00
	00		 mov	 ecx, DWORD PTR ?gObj@@3PAUOBJECTSTRUCT@@A ; gObj
  00636	8b 94 01 1c 0e
	00 00		 mov	 edx, DWORD PTR [ecx+eax+3612]
  0063d	83 e2 fc	 and	 edx, -4			; fffffffcH
  00640	8b 45 08	 mov	 eax, DWORD PTR _aIndex$[ebp]
  00643	69 c0 38 2b 00
	00		 imul	 eax, 11064		; 00002b38H
  00649	8b 0d 00 00 00
	00		 mov	 ecx, DWORD PTR ?gObj@@3PAUOBJECTSTRUCT@@A ; gObj
  0064f	89 94 01 1c 0e
	00 00		 mov	 DWORD PTR [ecx+eax+3612], edx

; 127  : 		gObj[aIndex].m_IfState.state = 0;

  00656	8b 45 08	 mov	 eax, DWORD PTR _aIndex$[ebp]
  00659	69 c0 38 2b 00
	00		 imul	 eax, 11064		; 00002b38H
  0065f	8b 0d 00 00 00
	00		 mov	 ecx, DWORD PTR ?gObj@@3PAUOBJECTSTRUCT@@A ; gObj
  00665	8b 94 01 1c 0e
	00 00		 mov	 edx, DWORD PTR [ecx+eax+3612]
  0066c	83 e2 c3	 and	 edx, -61		; ffffffc3H
  0066f	8b 45 08	 mov	 eax, DWORD PTR _aIndex$[ebp]
  00672	69 c0 38 2b 00
	00		 imul	 eax, 11064		; 00002b38H
  00678	8b 0d 00 00 00
	00		 mov	 ecx, DWORD PTR ?gObj@@3PAUOBJECTSTRUCT@@A ; gObj
  0067e	89 94 01 1c 0e
	00 00		 mov	 DWORD PTR [ecx+eax+3612], edx

; 128  : 		return;

  00685	e9 15 01 00 00	 jmp	 $LN5@GDDelGuild
$LN2@GDDelGuild:

; 129  : 	}
; 130  : 
; 131  : 	if(gObj[aIndex].GuildNumber <= 0)

  0068a	8b 45 08	 mov	 eax, DWORD PTR _aIndex$[ebp]
  0068d	69 c0 38 2b 00
	00		 imul	 eax, 11064		; 00002b38H
  00693	8b 0d 00 00 00
	00		 mov	 ecx, DWORD PTR ?gObj@@3PAUOBJECTSTRUCT@@A ; gObj
  00699	83 bc 01 34 04
	00 00 00	 cmp	 DWORD PTR [ecx+eax+1076], 0
  006a1	0f 8f 8a 00 00
	00		 jg	 $LN1@GDDelGuild

; 132  : 	{
; 133  : 		GCServerMsgStringSend("You need to be in a Guild before Del GuildWarehouse!",aIndex, 0x01);

  006a7	6a 01		 push	 1
  006a9	8b 45 08	 mov	 eax, DWORD PTR _aIndex$[ebp]
  006ac	50		 push	 eax
  006ad	68 00 00 00 00	 push	 OFFSET ??_C@_0DF@JAGDICPG@You?5need?5to?5be?5in?5a?5Guild?5before@
  006b2	e8 00 00 00 00	 call	 ?GCServerMsgStringSend@@YAXPADHE@Z ; GCServerMsgStringSend
  006b7	83 c4 0c	 add	 esp, 12			; 0000000cH

; 134  : 		gObj[aIndex].m_ReqWarehouseOpen = false;

  006ba	8b 45 08	 mov	 eax, DWORD PTR _aIndex$[ebp]
  006bd	69 c0 38 2b 00
	00		 imul	 eax, 11064		; 00002b38H
  006c3	8b 0d 00 00 00
	00		 mov	 ecx, DWORD PTR ?gObj@@3PAUOBJECTSTRUCT@@A ; gObj
  006c9	c6 84 01 1c 11
	00 00 00	 mov	 BYTE PTR [ecx+eax+4380], 0

; 135  : 		gObj[aIndex].m_IfState.use = 0;

  006d1	8b 45 08	 mov	 eax, DWORD PTR _aIndex$[ebp]
  006d4	69 c0 38 2b 00
	00		 imul	 eax, 11064		; 00002b38H
  006da	8b 0d 00 00 00
	00		 mov	 ecx, DWORD PTR ?gObj@@3PAUOBJECTSTRUCT@@A ; gObj
  006e0	8b 94 01 1c 0e
	00 00		 mov	 edx, DWORD PTR [ecx+eax+3612]
  006e7	83 e2 fc	 and	 edx, -4			; fffffffcH
  006ea	8b 45 08	 mov	 eax, DWORD PTR _aIndex$[ebp]
  006ed	69 c0 38 2b 00
	00		 imul	 eax, 11064		; 00002b38H
  006f3	8b 0d 00 00 00
	00		 mov	 ecx, DWORD PTR ?gObj@@3PAUOBJECTSTRUCT@@A ; gObj
  006f9	89 94 01 1c 0e
	00 00		 mov	 DWORD PTR [ecx+eax+3612], edx

; 136  : 		gObj[aIndex].m_IfState.state = 0;

  00700	8b 45 08	 mov	 eax, DWORD PTR _aIndex$[ebp]
  00703	69 c0 38 2b 00
	00		 imul	 eax, 11064		; 00002b38H
  00709	8b 0d 00 00 00
	00		 mov	 ecx, DWORD PTR ?gObj@@3PAUOBJECTSTRUCT@@A ; gObj
  0070f	8b 94 01 1c 0e
	00 00		 mov	 edx, DWORD PTR [ecx+eax+3612]
  00716	83 e2 c3	 and	 edx, -61		; ffffffc3H
  00719	8b 45 08	 mov	 eax, DWORD PTR _aIndex$[ebp]
  0071c	69 c0 38 2b 00
	00		 imul	 eax, 11064		; 00002b38H
  00722	8b 0d 00 00 00
	00		 mov	 ecx, DWORD PTR ?gObj@@3PAUOBJECTSTRUCT@@A ; gObj
  00728	89 94 01 1c 0e
	00 00		 mov	 DWORD PTR [ecx+eax+3612], edx

; 137  : 		return;

  0072f	eb 6e		 jmp	 SHORT $LN5@GDDelGuild
$LN1@GDDelGuild:

; 138  : 	}
; 139  : 
; 140  : 	SDHP_GETGUILDWAREHOUSEDB pMsg;
; 141  : 
; 142  : 	pMsg.h.c = 0xC1;

  00731	c6 45 d8 c1	 mov	 BYTE PTR _pMsg$[ebp], 193 ; 000000c1H

; 143  : 	pMsg.h.headcode = Protocol_GSSend_DelGuildWarehouseList;

  00735	c6 45 da de	 mov	 BYTE PTR _pMsg$[ebp+2], 222 ; 000000deH

; 144  : 	pMsg.h.size = sizeof(SDHP_GETGUILDWAREHOUSEDB);

  00739	c6 45 d9 20	 mov	 BYTE PTR _pMsg$[ebp+1], 32 ; 00000020H

; 145  : 	pMsg.aIndex = aIndex;

  0073d	66 8b 45 08	 mov	 ax, WORD PTR _aIndex$[ebp]
  00741	66 89 45 f0	 mov	 WORD PTR _pMsg$[ebp+24], ax

; 146  : 
; 147  : 	memcpy(pMsg.G_Name, gObj[aIndex].GuildName, sizeof(pMsg.G_Name));

  00745	6a 0a		 push	 10			; 0000000aH
  00747	8b 45 08	 mov	 eax, DWORD PTR _aIndex$[ebp]
  0074a	69 c0 38 2b 00
	00		 imul	 eax, 11064		; 00002b38H
  00750	8b 0d 00 00 00
	00		 mov	 ecx, DWORD PTR ?gObj@@3PAUOBJECTSTRUCT@@A ; gObj
  00756	8d 94 01 3c 04
	00 00		 lea	 edx, DWORD PTR [ecx+eax+1084]
  0075d	52		 push	 edx
  0075e	8d 45 db	 lea	 eax, DWORD PTR _pMsg$[ebp+3]
  00761	50		 push	 eax
  00762	e8 00 00 00 00	 call	 _memcpy
  00767	83 c4 0c	 add	 esp, 12			; 0000000cH

; 148  : 	memcpy(pMsg.AccountID, gObj[aIndex].AccountID, sizeof(pMsg.AccountID));

  0076a	6a 0a		 push	 10			; 0000000aH
  0076c	8b 45 08	 mov	 eax, DWORD PTR _aIndex$[ebp]
  0076f	69 c0 38 2b 00
	00		 imul	 eax, 11064		; 00002b38H
  00775	8b 0d 00 00 00
	00		 mov	 ecx, DWORD PTR ?gObj@@3PAUOBJECTSTRUCT@@A ; gObj
  0077b	8d 54 01 6c	 lea	 edx, DWORD PTR [ecx+eax+108]
  0077f	52		 push	 edx
  00780	8d 45 e5	 lea	 eax, DWORD PTR _pMsg$[ebp+13]
  00783	50		 push	 eax
  00784	e8 00 00 00 00	 call	 _memcpy
  00789	83 c4 0c	 add	 esp, 12			; 0000000cH

; 149  : 
; 150  : 	cDBSMng.Send((char*)&pMsg, pMsg.h.size);

  0078c	0f b6 45 d9	 movzx	 eax, BYTE PTR _pMsg$[ebp+1]
  00790	50		 push	 eax
  00791	8d 4d d8	 lea	 ecx, DWORD PTR _pMsg$[ebp]
  00794	51		 push	 ecx
  00795	b9 00 00 00 00	 mov	 ecx, OFFSET ?cDBSMng@@3VDBSockMng@@A ; cDBSMng
  0079a	e8 00 00 00 00	 call	 ?Send@DBSockMng@@QAEHPADH@Z ; DBSockMng::Send
$LN5@GDDelGuild:

; 151  : }

  0079f	5f		 pop	 edi
  007a0	5e		 pop	 esi
  007a1	5b		 pop	 ebx
  007a2	8b 4d fc	 mov	 ecx, DWORD PTR __$ArrayPad$[ebp]
  007a5	33 cd		 xor	 ecx, ebp
  007a7	e8 00 00 00 00	 call	 @__security_check_cookie@4
  007ac	8b e5		 mov	 esp, ebp
  007ae	5d		 pop	 ebp
  007af	c2 04 00	 ret	 4
?GDDelGuildWarehouseList@CGuildBank@@QAEXH@Z ENDP	; CGuildBank::GDDelGuildWarehouseList
_TEXT	ENDS
PUBLIC	??_C@_0CI@MIGOHDHJ@?$FL?$CFs?$FN?$FL?$CFs?$FN?5WareHouse?5Save?5Fail?5?3?5N@ ; `string'
PUBLIC	??_C@_0DB@KEHKILBL@?$FL?$CFs?$FN?$FL?$CFs?$FN?5WareHouse?5Save?5Fail?5?3?5W@ ; `string'
PUBLIC	__$ArrayPad$
PUBLIC	?GDSetGuildWarehouseList@CGuildBank@@QAEXH@Z	; CGuildBank::GDSetGuildWarehouseList
EXTRN	?gObjWarehouseTextSave@@YAXPAUOBJECTSTRUCT@@@Z:PROC ; gObjWarehouseTextSave
EXTRN	?gObjSavePetItemInfo@@YAXHH@Z:PROC		; gObjSavePetItemInfo
EXTRN	?ItemByteConvert16@@YAXPAEQAVCItem@@H@Z:PROC	; ItemByteConvert16
EXTRN	_memset:PROC
EXTRN	?LogAddTD@@3P6AXPADZZA:DWORD			; LogAddTD
;	COMDAT ??_C@_0CI@MIGOHDHJ@?$FL?$CFs?$FN?$FL?$CFs?$FN?5WareHouse?5Save?5Fail?5?3?5N@
CONST	SEGMENT
??_C@_0CI@MIGOHDHJ@?$FL?$CFs?$FN?$FL?$CFs?$FN?5WareHouse?5Save?5Fail?5?3?5N@ DB '['
	DB	'%s][%s] WareHouse Save Fail : Not Open', 00H ; `string'
CONST	ENDS
;	COMDAT ??_C@_0DB@KEHKILBL@?$FL?$CFs?$FN?$FL?$CFs?$FN?5WareHouse?5Save?5Fail?5?3?5W@
CONST	SEGMENT
??_C@_0DB@KEHKILBL@?$FL?$CFs?$FN?$FL?$CFs?$FN?5WareHouse?5Save?5Fail?5?3?5W@ DB '['
	DB	'%s][%s] WareHouse Save Fail : WarehouseSave = 0', 00H ; `string'
; Function compile flags: /Odtp /ZI
CONST	ENDS
_TEXT	SEGMENT
tv67 = -3956						; size = 4
_pMsg$ = -3888						; size = 3880
_this$ = -8						; size = 4
__$ArrayPad$ = -4					; size = 4
_aIndex$ = 8						; size = 4
?GDSetGuildWarehouseList@CGuildBank@@QAEXH@Z PROC	; CGuildBank::GDSetGuildWarehouseList
; _this$ = ecx

; 154  : {

  007c0	55		 push	 ebp
  007c1	8b ec		 mov	 ebp, esp
  007c3	81 ec 74 0f 00
	00		 sub	 esp, 3956		; 00000f74H
  007c9	a1 00 00 00 00	 mov	 eax, DWORD PTR ___security_cookie
  007ce	33 c5		 xor	 eax, ebp
  007d0	89 45 fc	 mov	 DWORD PTR __$ArrayPad$[ebp], eax
  007d3	53		 push	 ebx
  007d4	56		 push	 esi
  007d5	57		 push	 edi
  007d6	89 4d f8	 mov	 DWORD PTR _this$[ebp], ecx

; 155  : 	if(OBJMAX_RANGE(aIndex) == 0)

  007d9	83 7d 08 00	 cmp	 DWORD PTR _aIndex$[ebp], 0
  007dd	7d 0c		 jge	 SHORT $LN9@GDSetGuild
  007df	c7 85 8c f0 ff
	ff 00 00 00 00	 mov	 DWORD PTR tv67[ebp], 0
  007e9	eb 12		 jmp	 SHORT $LN10@GDSetGuild
$LN9@GDSetGuild:
  007eb	33 c0		 xor	 eax, eax
  007ed	81 7d 08 97 3a
	00 00		 cmp	 DWORD PTR _aIndex$[ebp], 14999 ; 00003a97H
  007f4	0f 9e c0	 setle	 al
  007f7	89 85 8c f0 ff
	ff		 mov	 DWORD PTR tv67[ebp], eax
$LN10@GDSetGuild:
  007fd	83 bd 8c f0 ff
	ff 00		 cmp	 DWORD PTR tv67[ebp], 0
  00804	75 05		 jne	 SHORT $LN6@GDSetGuild

; 156  : 	{
; 157  : 		return;

  00806	e9 6c 03 00 00	 jmp	 $LN7@GDSetGuild
$LN6@GDSetGuild:

; 158  : 	}
; 159  : 
; 160  : 	SDHP_GETGUILDWAREHOUSEDB_SAVE pMsg;
; 161  : 
; 162  : 	if(strlen(gObj[aIndex].AccountID) < 1)

  0080b	8b 45 08	 mov	 eax, DWORD PTR _aIndex$[ebp]
  0080e	69 c0 38 2b 00
	00		 imul	 eax, 11064		; 00002b38H
  00814	8b 0d 00 00 00
	00		 mov	 ecx, DWORD PTR ?gObj@@3PAUOBJECTSTRUCT@@A ; gObj
  0081a	8d 54 01 6c	 lea	 edx, DWORD PTR [ecx+eax+108]
  0081e	52		 push	 edx
  0081f	e8 00 00 00 00	 call	 _strlen
  00824	83 c4 04	 add	 esp, 4
  00827	83 f8 01	 cmp	 eax, 1
  0082a	73 05		 jae	 SHORT $LN5@GDSetGuild

; 163  : 	{
; 164  : 		return;

  0082c	e9 46 03 00 00	 jmp	 $LN7@GDSetGuild
$LN5@GDSetGuild:

; 165  : 	}
; 166  : 
; 167  : 	if(strlen(gObj[aIndex].GuildName) < 1)	///NoGuild

  00831	8b 45 08	 mov	 eax, DWORD PTR _aIndex$[ebp]
  00834	69 c0 38 2b 00
	00		 imul	 eax, 11064		; 00002b38H
  0083a	8b 0d 00 00 00
	00		 mov	 ecx, DWORD PTR ?gObj@@3PAUOBJECTSTRUCT@@A ; gObj
  00840	8d 94 01 3c 04
	00 00		 lea	 edx, DWORD PTR [ecx+eax+1084]
  00847	52		 push	 edx
  00848	e8 00 00 00 00	 call	 _strlen
  0084d	83 c4 04	 add	 esp, 4
  00850	83 f8 01	 cmp	 eax, 1
  00853	73 7a		 jae	 SHORT $LN4@GDSetGuild

; 168  : 	{
; 169  : 		gObj[aIndex].m_ReqWarehouseOpen = false;

  00855	8b 45 08	 mov	 eax, DWORD PTR _aIndex$[ebp]
  00858	69 c0 38 2b 00
	00		 imul	 eax, 11064		; 00002b38H
  0085e	8b 0d 00 00 00
	00		 mov	 ecx, DWORD PTR ?gObj@@3PAUOBJECTSTRUCT@@A ; gObj
  00864	c6 84 01 1c 11
	00 00 00	 mov	 BYTE PTR [ecx+eax+4380], 0

; 170  : 		gObj[aIndex].m_IfState.use = 0;

  0086c	8b 45 08	 mov	 eax, DWORD PTR _aIndex$[ebp]
  0086f	69 c0 38 2b 00
	00		 imul	 eax, 11064		; 00002b38H
  00875	8b 0d 00 00 00
	00		 mov	 ecx, DWORD PTR ?gObj@@3PAUOBJECTSTRUCT@@A ; gObj
  0087b	8b 94 01 1c 0e
	00 00		 mov	 edx, DWORD PTR [ecx+eax+3612]
  00882	83 e2 fc	 and	 edx, -4			; fffffffcH
  00885	8b 45 08	 mov	 eax, DWORD PTR _aIndex$[ebp]
  00888	69 c0 38 2b 00
	00		 imul	 eax, 11064		; 00002b38H
  0088e	8b 0d 00 00 00
	00		 mov	 ecx, DWORD PTR ?gObj@@3PAUOBJECTSTRUCT@@A ; gObj
  00894	89 94 01 1c 0e
	00 00		 mov	 DWORD PTR [ecx+eax+3612], edx

; 171  : 		gObj[aIndex].m_IfState.state = 0;

  0089b	8b 45 08	 mov	 eax, DWORD PTR _aIndex$[ebp]
  0089e	69 c0 38 2b 00
	00		 imul	 eax, 11064		; 00002b38H
  008a4	8b 0d 00 00 00
	00		 mov	 ecx, DWORD PTR ?gObj@@3PAUOBJECTSTRUCT@@A ; gObj
  008aa	8b 94 01 1c 0e
	00 00		 mov	 edx, DWORD PTR [ecx+eax+3612]
  008b1	83 e2 c3	 and	 edx, -61		; ffffffc3H
  008b4	8b 45 08	 mov	 eax, DWORD PTR _aIndex$[ebp]
  008b7	69 c0 38 2b 00
	00		 imul	 eax, 11064		; 00002b38H
  008bd	8b 0d 00 00 00
	00		 mov	 ecx, DWORD PTR ?gObj@@3PAUOBJECTSTRUCT@@A ; gObj
  008c3	89 94 01 1c 0e
	00 00		 mov	 DWORD PTR [ecx+eax+3612], edx

; 172  : 		return;

  008ca	e9 a8 02 00 00	 jmp	 $LN7@GDSetGuild
$LN4@GDSetGuild:

; 173  : 	}
; 174  : 
; 175  : 	if(gObj[aIndex].GuildNumber <= 0)

  008cf	8b 45 08	 mov	 eax, DWORD PTR _aIndex$[ebp]
  008d2	69 c0 38 2b 00
	00		 imul	 eax, 11064		; 00002b38H
  008d8	8b 0d 00 00 00
	00		 mov	 ecx, DWORD PTR ?gObj@@3PAUOBJECTSTRUCT@@A ; gObj
  008de	83 bc 01 34 04
	00 00 00	 cmp	 DWORD PTR [ecx+eax+1076], 0
  008e6	7f 7a		 jg	 SHORT $LN3@GDSetGuild

; 176  : 	{
; 177  : 		gObj[aIndex].m_ReqWarehouseOpen = false;

  008e8	8b 45 08	 mov	 eax, DWORD PTR _aIndex$[ebp]
  008eb	69 c0 38 2b 00
	00		 imul	 eax, 11064		; 00002b38H
  008f1	8b 0d 00 00 00
	00		 mov	 ecx, DWORD PTR ?gObj@@3PAUOBJECTSTRUCT@@A ; gObj
  008f7	c6 84 01 1c 11
	00 00 00	 mov	 BYTE PTR [ecx+eax+4380], 0

; 178  : 		gObj[aIndex].m_IfState.use = 0;

  008ff	8b 45 08	 mov	 eax, DWORD PTR _aIndex$[ebp]
  00902	69 c0 38 2b 00
	00		 imul	 eax, 11064		; 00002b38H
  00908	8b 0d 00 00 00
	00		 mov	 ecx, DWORD PTR ?gObj@@3PAUOBJECTSTRUCT@@A ; gObj
  0090e	8b 94 01 1c 0e
	00 00		 mov	 edx, DWORD PTR [ecx+eax+3612]
  00915	83 e2 fc	 and	 edx, -4			; fffffffcH
  00918	8b 45 08	 mov	 eax, DWORD PTR _aIndex$[ebp]
  0091b	69 c0 38 2b 00
	00		 imul	 eax, 11064		; 00002b38H
  00921	8b 0d 00 00 00
	00		 mov	 ecx, DWORD PTR ?gObj@@3PAUOBJECTSTRUCT@@A ; gObj
  00927	89 94 01 1c 0e
	00 00		 mov	 DWORD PTR [ecx+eax+3612], edx

; 179  : 		gObj[aIndex].m_IfState.state = 0;

  0092e	8b 45 08	 mov	 eax, DWORD PTR _aIndex$[ebp]
  00931	69 c0 38 2b 00
	00		 imul	 eax, 11064		; 00002b38H
  00937	8b 0d 00 00 00
	00		 mov	 ecx, DWORD PTR ?gObj@@3PAUOBJECTSTRUCT@@A ; gObj
  0093d	8b 94 01 1c 0e
	00 00		 mov	 edx, DWORD PTR [ecx+eax+3612]
  00944	83 e2 c3	 and	 edx, -61		; ffffffc3H
  00947	8b 45 08	 mov	 eax, DWORD PTR _aIndex$[ebp]
  0094a	69 c0 38 2b 00
	00		 imul	 eax, 11064		; 00002b38H
  00950	8b 0d 00 00 00
	00		 mov	 ecx, DWORD PTR ?gObj@@3PAUOBJECTSTRUCT@@A ; gObj
  00956	89 94 01 1c 0e
	00 00		 mov	 DWORD PTR [ecx+eax+3612], edx

; 180  : 		return;

  0095d	e9 15 02 00 00	 jmp	 $LN7@GDSetGuild
$LN3@GDSetGuild:

; 181  : 	}
; 182  : 
; 183  : 	gObj[aIndex].lpGuild->WareOpen = 0;

  00962	8b 45 08	 mov	 eax, DWORD PTR _aIndex$[ebp]
  00965	69 c0 38 2b 00
	00		 imul	 eax, 11064		; 00002b38H
  0096b	8b 0d 00 00 00
	00		 mov	 ecx, DWORD PTR ?gObj@@3PAUOBJECTSTRUCT@@A ; gObj
  00971	8b 94 01 38 04
	00 00		 mov	 edx, DWORD PTR [ecx+eax+1080]
  00978	c7 82 44 07 00
	00 00 00 00 00	 mov	 DWORD PTR [edx+1860], 0

; 184  : 
; 185  : 	if(gObj[aIndex].WarehouseSave == 0)

  00982	8b 45 08	 mov	 eax, DWORD PTR _aIndex$[ebp]
  00985	69 c0 38 2b 00
	00		 imul	 eax, 11064		; 00002b38H
  0098b	8b 0d 00 00 00
	00		 mov	 ecx, DWORD PTR ?gObj@@3PAUOBJECTSTRUCT@@A ; gObj
  00991	83 bc 01 70 0e
	00 00 00	 cmp	 DWORD PTR [ecx+eax+3696], 0
  00999	75 3b		 jne	 SHORT $LN2@GDSetGuild

; 186  : 	{
; 187  : 		LogAddTD("[%s][%s] WareHouse Save Fail : WarehouseSave = 0", gObj[aIndex].AccountID, gObj[aIndex].Name);

  0099b	8b 45 08	 mov	 eax, DWORD PTR _aIndex$[ebp]
  0099e	69 c0 38 2b 00
	00		 imul	 eax, 11064		; 00002b38H
  009a4	8b 0d 00 00 00
	00		 mov	 ecx, DWORD PTR ?gObj@@3PAUOBJECTSTRUCT@@A ; gObj
  009aa	8d 54 01 77	 lea	 edx, DWORD PTR [ecx+eax+119]
  009ae	52		 push	 edx
  009af	8b 45 08	 mov	 eax, DWORD PTR _aIndex$[ebp]
  009b2	69 c0 38 2b 00
	00		 imul	 eax, 11064		; 00002b38H
  009b8	8b 0d 00 00 00
	00		 mov	 ecx, DWORD PTR ?gObj@@3PAUOBJECTSTRUCT@@A ; gObj
  009be	8d 54 01 6c	 lea	 edx, DWORD PTR [ecx+eax+108]
  009c2	52		 push	 edx
  009c3	68 00 00 00 00	 push	 OFFSET ??_C@_0DB@KEHKILBL@?$FL?$CFs?$FN?$FL?$CFs?$FN?5WareHouse?5Save?5Fail?5?3?5W@
  009c8	ff 15 00 00 00
	00		 call	 DWORD PTR ?LogAddTD@@3P6AXPADZZA ; LogAddTD
  009ce	83 c4 0c	 add	 esp, 12			; 0000000cH

; 188  : 		return;

  009d1	e9 a1 01 00 00	 jmp	 $LN7@GDSetGuild
$LN2@GDSetGuild:

; 189  : 	}
; 190  : 	
; 191  : 	if(gObj[aIndex].LoadWareHouseInfo == false)

  009d6	8b 45 08	 mov	 eax, DWORD PTR _aIndex$[ebp]
  009d9	69 c0 38 2b 00
	00		 imul	 eax, 11064		; 00002b38H
  009df	8b 0d 00 00 00
	00		 mov	 ecx, DWORD PTR ?gObj@@3PAUOBJECTSTRUCT@@A ; gObj
  009e5	0f b6 94 01 54
	10 00 00	 movzx	 edx, BYTE PTR [ecx+eax+4180]
  009ed	85 d2		 test	 edx, edx
  009ef	75 3b		 jne	 SHORT $LN1@GDSetGuild

; 192  : 	{
; 193  : 		LogAddTD("[%s][%s] WareHouse Save Fail : Not Open", gObj[aIndex].AccountID, gObj[aIndex].Name);

  009f1	8b 45 08	 mov	 eax, DWORD PTR _aIndex$[ebp]
  009f4	69 c0 38 2b 00
	00		 imul	 eax, 11064		; 00002b38H
  009fa	8b 0d 00 00 00
	00		 mov	 ecx, DWORD PTR ?gObj@@3PAUOBJECTSTRUCT@@A ; gObj
  00a00	8d 54 01 77	 lea	 edx, DWORD PTR [ecx+eax+119]
  00a04	52		 push	 edx
  00a05	8b 45 08	 mov	 eax, DWORD PTR _aIndex$[ebp]
  00a08	69 c0 38 2b 00
	00		 imul	 eax, 11064		; 00002b38H
  00a0e	8b 0d 00 00 00
	00		 mov	 ecx, DWORD PTR ?gObj@@3PAUOBJECTSTRUCT@@A ; gObj
  00a14	8d 54 01 6c	 lea	 edx, DWORD PTR [ecx+eax+108]
  00a18	52		 push	 edx
  00a19	68 00 00 00 00	 push	 OFFSET ??_C@_0CI@MIGOHDHJ@?$FL?$CFs?$FN?$FL?$CFs?$FN?5WareHouse?5Save?5Fail?5?3?5N@
  00a1e	ff 15 00 00 00
	00		 call	 DWORD PTR ?LogAddTD@@3P6AXPADZZA ; LogAddTD
  00a24	83 c4 0c	 add	 esp, 12			; 0000000cH

; 194  : 		return;

  00a27	e9 4b 01 00 00	 jmp	 $LN7@GDSetGuild
$LN1@GDSetGuild:

; 195  : 	}
; 196  : 
; 197  : 	//gObj[aIndex].m_bGuildBank = false;
; 198  : 
; 199  : 	//gObj[aIndex].lpGuild->WareOpen = 0;
; 200  : 
; 201  : 	memcpy(pMsg.AccountID, gObj[aIndex].AccountID, sizeof(pMsg.AccountID));

  00a2c	6a 0a		 push	 10			; 0000000aH
  00a2e	8b 45 08	 mov	 eax, DWORD PTR _aIndex$[ebp]
  00a31	69 c0 38 2b 00
	00		 imul	 eax, 11064		; 00002b38H
  00a37	8b 0d 00 00 00
	00		 mov	 ecx, DWORD PTR ?gObj@@3PAUOBJECTSTRUCT@@A ; gObj
  00a3d	8d 54 01 6c	 lea	 edx, DWORD PTR [ecx+eax+108]
  00a41	52		 push	 edx
  00a42	8d 85 de f0 ff
	ff		 lea	 eax, DWORD PTR _pMsg$[ebp+14]
  00a48	50		 push	 eax
  00a49	e8 00 00 00 00	 call	 _memcpy
  00a4e	83 c4 0c	 add	 esp, 12			; 0000000cH

; 202  : 	//memcpy(pMsg.G_Name, gObj[aIndex].GuildName, sizeof(pMsg.G_Name));
; 203  : 	memcpy(pMsg.G_Name, gObj[aIndex].lpGuild->Name, sizeof(pMsg.G_Name));

  00a51	6a 0a		 push	 10			; 0000000aH
  00a53	8b 45 08	 mov	 eax, DWORD PTR _aIndex$[ebp]
  00a56	69 c0 38 2b 00
	00		 imul	 eax, 11064		; 00002b38H
  00a5c	8b 0d 00 00 00
	00		 mov	 ecx, DWORD PTR ?gObj@@3PAUOBJECTSTRUCT@@A ; gObj
  00a62	8b 94 01 38 04
	00 00		 mov	 edx, DWORD PTR [ecx+eax+1080]
  00a69	83 c2 04	 add	 edx, 4
  00a6c	52		 push	 edx
  00a6d	8d 85 d4 f0 ff
	ff		 lea	 eax, DWORD PTR _pMsg$[ebp+4]
  00a73	50		 push	 eax
  00a74	e8 00 00 00 00	 call	 _memcpy
  00a79	83 c4 0c	 add	 esp, 12			; 0000000cH

; 204  : 	
; 205  : 	pMsg.aIndex = aIndex;

  00a7c	66 8b 45 08	 mov	 ax, WORD PTR _aIndex$[ebp]
  00a80	66 89 85 e8 f0
	ff ff		 mov	 WORD PTR _pMsg$[ebp+24], ax

; 206  : 	pMsg.h.c = 0xC2;

  00a87	c6 85 d0 f0 ff
	ff c2		 mov	 BYTE PTR _pMsg$[ebp], 194 ; 000000c2H

; 207  : 	pMsg.h.headcode = Protocol_GSSend_SetGuildWarehouseList;

  00a8e	c6 85 d3 f0 ff
	ff cb		 mov	 BYTE PTR _pMsg$[ebp+3], 203 ; 000000cbH

; 208  : 	pMsg.h.sizeH = HIBYTE(sizeof(pMsg));

  00a95	c6 85 d1 f0 ff
	ff 0f		 mov	 BYTE PTR _pMsg$[ebp+1], 15 ; 0000000fH

; 209  : 	pMsg.h.sizeL = LOBYTE(sizeof(pMsg));

  00a9c	c6 85 d2 f0 ff
	ff 28		 mov	 BYTE PTR _pMsg$[ebp+2], 40 ; 00000028H

; 210  : 	pMsg.Money = gObj[aIndex].WarehouseMoney;

  00aa3	8b 45 08	 mov	 eax, DWORD PTR _aIndex$[ebp]
  00aa6	69 c0 38 2b 00
	00		 imul	 eax, 11064		; 00002b38H
  00aac	8b 0d 00 00 00
	00		 mov	 ecx, DWORD PTR ?gObj@@3PAUOBJECTSTRUCT@@A ; gObj
  00ab2	8b 94 01 6c 0e
	00 00		 mov	 edx, DWORD PTR [ecx+eax+3692]
  00ab9	89 95 ec f0 ff
	ff		 mov	 DWORD PTR _pMsg$[ebp+28], edx

; 211  : 	pMsg.pw = gObj[aIndex].WarehousePW;

  00abf	8b 45 08	 mov	 eax, DWORD PTR _aIndex$[ebp]
  00ac2	69 c0 38 2b 00
	00		 imul	 eax, 11064		; 00002b38H
  00ac8	8b 0d 00 00 00
	00		 mov	 ecx, DWORD PTR ?gObj@@3PAUOBJECTSTRUCT@@A ; gObj
  00ace	66 8b 94 01 66
	0e 00 00	 mov	 dx, WORD PTR [ecx+eax+3686]
  00ad6	66 89 55 f2	 mov	 WORD PTR _pMsg$[ebp+3874], dx

; 212  : 	pMsg.DbVersion = 3;

  00ada	c6 45 f0 03	 mov	 BYTE PTR _pMsg$[ebp+3872], 3

; 213  : 	pMsg.Number	= gObj[aIndex].WarehouseNumber;

  00ade	8b 45 08	 mov	 eax, DWORD PTR _aIndex$[ebp]
  00ae1	69 c0 38 2b 00
	00		 imul	 eax, 11064		; 00002b38H
  00ae7	8b 0d 00 00 00
	00		 mov	 ecx, DWORD PTR ?gObj@@3PAUOBJECTSTRUCT@@A ; gObj
  00aed	8b 94 01 e8 2a
	00 00		 mov	 edx, DWORD PTR [ecx+eax+10984]
  00af4	89 55 f4	 mov	 DWORD PTR _pMsg$[ebp+3876], edx

; 214  : 
; 215  : 	memset(pMsg.dbItems,0xFF,sizeof(pMsg.dbItems));

  00af7	68 00 0f 00 00	 push	 3840			; 00000f00H
  00afc	68 ff 00 00 00	 push	 255			; 000000ffH
  00b01	8d 85 f0 f0 ff
	ff		 lea	 eax, DWORD PTR _pMsg$[ebp+32]
  00b07	50		 push	 eax
  00b08	e8 00 00 00 00	 call	 _memset
  00b0d	83 c4 0c	 add	 esp, 12			; 0000000cH

; 216  : 	ItemByteConvert16(pMsg.dbItems, gObj[aIndex].pWarehouse, WAREHOUSE_SIZE);

  00b10	68 f0 00 00 00	 push	 240			; 000000f0H
  00b15	8b 45 08	 mov	 eax, DWORD PTR _aIndex$[ebp]
  00b18	69 c0 38 2b 00
	00		 imul	 eax, 11064		; 00002b38H
  00b1e	8b 0d 00 00 00
	00		 mov	 ecx, DWORD PTR ?gObj@@3PAUOBJECTSTRUCT@@A ; gObj
  00b24	8b 94 01 5c 0e
	00 00		 mov	 edx, DWORD PTR [ecx+eax+3676]
  00b2b	52		 push	 edx
  00b2c	8d 85 f0 f0 ff
	ff		 lea	 eax, DWORD PTR _pMsg$[ebp+32]
  00b32	50		 push	 eax
  00b33	e8 00 00 00 00	 call	 ?ItemByteConvert16@@YAXPAEQAVCItem@@H@Z ; ItemByteConvert16
  00b38	83 c4 0c	 add	 esp, 12			; 0000000cH

; 217  : 
; 218  : 	cDBSMng.Send((PCHAR)&pMsg, sizeof(pMsg));

  00b3b	68 28 0f 00 00	 push	 3880			; 00000f28H
  00b40	8d 85 d0 f0 ff
	ff		 lea	 eax, DWORD PTR _pMsg$[ebp]
  00b46	50		 push	 eax
  00b47	b9 00 00 00 00	 mov	 ecx, OFFSET ?cDBSMng@@3VDBSockMng@@A ; cDBSMng
  00b4c	e8 00 00 00 00	 call	 ?Send@DBSockMng@@QAEHPADH@Z ; DBSockMng::Send

; 219  : 
; 220  : 	gObjSavePetItemInfo(aIndex, 1);

  00b51	6a 01		 push	 1
  00b53	8b 45 08	 mov	 eax, DWORD PTR _aIndex$[ebp]
  00b56	50		 push	 eax
  00b57	e8 00 00 00 00	 call	 ?gObjSavePetItemInfo@@YAXHH@Z ; gObjSavePetItemInfo
  00b5c	83 c4 08	 add	 esp, 8

; 221  : 	gObjWarehouseTextSave(&gObj[aIndex]);

  00b5f	8b 45 08	 mov	 eax, DWORD PTR _aIndex$[ebp]
  00b62	69 c0 38 2b 00
	00		 imul	 eax, 11064		; 00002b38H
  00b68	03 05 00 00 00
	00		 add	 eax, DWORD PTR ?gObj@@3PAUOBJECTSTRUCT@@A ; gObj
  00b6e	50		 push	 eax
  00b6f	e8 00 00 00 00	 call	 ?gObjWarehouseTextSave@@YAXPAUOBJECTSTRUCT@@@Z ; gObjWarehouseTextSave
  00b74	83 c4 04	 add	 esp, 4
$LN7@GDSetGuild:

; 222  : }

  00b77	5f		 pop	 edi
  00b78	5e		 pop	 esi
  00b79	5b		 pop	 ebx
  00b7a	8b 4d fc	 mov	 ecx, DWORD PTR __$ArrayPad$[ebp]
  00b7d	33 cd		 xor	 ecx, ebp
  00b7f	e8 00 00 00 00	 call	 @__security_check_cookie@4
  00b84	8b e5		 mov	 esp, ebp
  00b86	5d		 pop	 ebp
  00b87	c2 04 00	 ret	 4
?GDSetGuildWarehouseList@CGuildBank@@QAEXH@Z ENDP	; CGuildBank::GDSetGuildWarehouseList
_TEXT	ENDS
PUBLIC	?WarehousePassword@CGuildBank@@QAE_NH@Z		; CGuildBank::WarehousePassword
; Function compile flags: /Odtp /ZI
_TEXT	SEGMENT
tv68 = -72						; size = 4
_this$ = -4						; size = 4
_aIndex$ = 8						; size = 4
?WarehousePassword@CGuildBank@@QAE_NH@Z PROC		; CGuildBank::WarehousePassword
; _this$ = ecx

; 225  : {

  00b90	55		 push	 ebp
  00b91	8b ec		 mov	 ebp, esp
  00b93	83 ec 48	 sub	 esp, 72			; 00000048H
  00b96	53		 push	 ebx
  00b97	56		 push	 esi
  00b98	57		 push	 edi
  00b99	89 4d fc	 mov	 DWORD PTR _this$[ebp], ecx

; 226  : 	if(!this->m_iEnable)

  00b9c	8b 45 fc	 mov	 eax, DWORD PTR _this$[ebp]
  00b9f	83 38 00	 cmp	 DWORD PTR [eax], 0
  00ba2	75 07		 jne	 SHORT $LN5@WarehouseP

; 227  : 	{
; 228  : 		return true;

  00ba4	b0 01		 mov	 al, 1
  00ba6	e9 8f 00 00 00	 jmp	 $LN6@WarehouseP
$LN5@WarehouseP:

; 229  : 	}
; 230  : 
; 231  : 	if(OBJMAX_RANGE(aIndex) == 0)

  00bab	83 7d 08 00	 cmp	 DWORD PTR _aIndex$[ebp], 0
  00baf	7d 09		 jge	 SHORT $LN8@WarehouseP
  00bb1	c7 45 b8 00 00
	00 00		 mov	 DWORD PTR tv68[ebp], 0
  00bb8	eb 0f		 jmp	 SHORT $LN9@WarehouseP
$LN8@WarehouseP:
  00bba	33 c0		 xor	 eax, eax
  00bbc	81 7d 08 97 3a
	00 00		 cmp	 DWORD PTR _aIndex$[ebp], 14999 ; 00003a97H
  00bc3	0f 9e c0	 setle	 al
  00bc6	89 45 b8	 mov	 DWORD PTR tv68[ebp], eax
$LN9@WarehouseP:
  00bc9	83 7d b8 00	 cmp	 DWORD PTR tv68[ebp], 0
  00bcd	75 04		 jne	 SHORT $LN4@WarehouseP

; 232  : 	{
; 233  : 		return false;

  00bcf	32 c0		 xor	 al, al
  00bd1	eb 67		 jmp	 SHORT $LN6@WarehouseP
$LN4@WarehouseP:

; 234  : 	}
; 235  : 
; 236  : 	if(strlen(gObj[aIndex].GuildName) < 1)	///NoGuild

  00bd3	8b 45 08	 mov	 eax, DWORD PTR _aIndex$[ebp]
  00bd6	69 c0 38 2b 00
	00		 imul	 eax, 11064		; 00002b38H
  00bdc	8b 0d 00 00 00
	00		 mov	 ecx, DWORD PTR ?gObj@@3PAUOBJECTSTRUCT@@A ; gObj
  00be2	8d 94 01 3c 04
	00 00		 lea	 edx, DWORD PTR [ecx+eax+1084]
  00be9	52		 push	 edx
  00bea	e8 00 00 00 00	 call	 _strlen
  00bef	83 c4 04	 add	 esp, 4
  00bf2	83 f8 01	 cmp	 eax, 1
  00bf5	73 04		 jae	 SHORT $LN3@WarehouseP

; 237  : 	{
; 238  : 		return true;

  00bf7	b0 01		 mov	 al, 1
  00bf9	eb 3f		 jmp	 SHORT $LN6@WarehouseP
$LN3@WarehouseP:

; 239  : 	}
; 240  : 
; 241  : 	if(gObj[aIndex].GuildNumber <= 0)

  00bfb	8b 45 08	 mov	 eax, DWORD PTR _aIndex$[ebp]
  00bfe	69 c0 38 2b 00
	00		 imul	 eax, 11064		; 00002b38H
  00c04	8b 0d 00 00 00
	00		 mov	 ecx, DWORD PTR ?gObj@@3PAUOBJECTSTRUCT@@A ; gObj
  00c0a	83 bc 01 34 04
	00 00 00	 cmp	 DWORD PTR [ecx+eax+1076], 0
  00c12	7f 04		 jg	 SHORT $LN2@WarehouseP

; 242  : 	{
; 243  : 		return true;

  00c14	b0 01		 mov	 al, 1
  00c16	eb 22		 jmp	 SHORT $LN6@WarehouseP
$LN2@WarehouseP:

; 244  : 	}
; 245  : 
; 246  : 	if(gObj[aIndex].GuildStatus == GUILD_MASTER)

  00c18	8b 45 08	 mov	 eax, DWORD PTR _aIndex$[ebp]
  00c1b	69 c0 38 2b 00
	00		 imul	 eax, 11064		; 00002b38H
  00c21	8b 0d 00 00 00
	00		 mov	 ecx, DWORD PTR ?gObj@@3PAUOBJECTSTRUCT@@A ; gObj
  00c27	81 bc 01 48 04
	00 00 80 00 00
	00		 cmp	 DWORD PTR [ecx+eax+1096], 128 ; 00000080H
  00c32	75 04		 jne	 SHORT $LN1@WarehouseP

; 247  : 	{
; 248  : 		return true;

  00c34	b0 01		 mov	 al, 1
  00c36	eb 02		 jmp	 SHORT $LN6@WarehouseP
$LN1@WarehouseP:

; 249  : 	}
; 250  : 
; 251  : 	return false;

  00c38	32 c0		 xor	 al, al
$LN6@WarehouseP:

; 252  : }

  00c3a	5f		 pop	 edi
  00c3b	5e		 pop	 esi
  00c3c	5b		 pop	 ebx
  00c3d	8b e5		 mov	 esp, ebp
  00c3f	5d		 pop	 ebp
  00c40	c2 04 00	 ret	 4
?WarehousePassword@CGuildBank@@QAE_NH@Z ENDP		; CGuildBank::WarehousePassword
_TEXT	ENDS
PUBLIC	??_C@_0CG@NFDFKIHI@?$FLFix?5Inv?4Ptr?$FN?5False?5Location?5?9?5?$CF@ ; `string'
PUBLIC	??_C@_0EB@HHEGPBOL@d?3?2projects?2exteam6?43?2source?2gam@ ; `string'
PUBLIC	?__LINE__Var@?1??CGOpenGuildWarehouse@CGuildBank@@QAEXPAUPMSG_GUILD_BANK@@H@Z@4JA ; `CGuildBank::CGOpenGuildWarehouse'::`2'::__LINE__Var
PUBLIC	??_C@_0CP@GINMLCLK@?$FLANTI?9HACK?$FN?$FLNPC?5Talk?$FN?5Couldn?8t?5t@ ; `string'
PUBLIC	?CGOpenGuildWarehouse@CGuildBank@@QAEXPAUPMSG_GUILD_BANK@@H@Z ; CGuildBank::CGOpenGuildWarehouse
EXTRN	?WarehouseNumberSend@@YAXH@Z:PROC		; WarehouseNumberSend
EXTRN	__imp__GetTickCount@0:PROC
EXTRN	?LogAdd@@3P6AXPADZZA:DWORD			; LogAdd
EXTRN	?gObjFixInventoryPointer@@YA_NH@Z:PROC		; gObjFixInventoryPointer
EXTRN	?gObjIsConnectedGP@@YAHH@Z:PROC			; gObjIsConnectedGP
EXTRN	?PacketCheckTime@@YAHPAUOBJECTSTRUCT@@@Z:PROC	; PacketCheckTime
;	COMDAT ??_C@_0CG@NFDFKIHI@?$FLFix?5Inv?4Ptr?$FN?5False?5Location?5?9?5?$CF@
CONST	SEGMENT
??_C@_0CG@NFDFKIHI@?$FLFix?5Inv?4Ptr?$FN?5False?5Location?5?9?5?$CF@ DB '['
	DB	'Fix Inv.Ptr] False Location - %s, %d', 00H	; `string'
CONST	ENDS
;	COMDAT ??_C@_0EB@HHEGPBOL@d?3?2projects?2exteam6?43?2source?2gam@
CONST	SEGMENT
??_C@_0EB@HHEGPBOL@d?3?2projects?2exteam6?43?2source?2gam@ DB 'd:\project'
	DB	's\exteam6.3\source\gameserver\gameserver\guildbank.cpp', 00H ; `string'
CONST	ENDS
;	COMDAT ?__LINE__Var@?1??CGOpenGuildWarehouse@CGuildBank@@QAEXPAUPMSG_GUILD_BANK@@H@Z@4JA
_DATA	SEGMENT
?__LINE__Var@?1??CGOpenGuildWarehouse@CGuildBank@@QAEXPAUPMSG_GUILD_BANK@@H@Z@4JA DD 0ffH ; `CGuildBank::CGOpenGuildWarehouse'::`2'::__LINE__Var
_DATA	ENDS
;	COMDAT ??_C@_0CP@GINMLCLK@?$FLANTI?9HACK?$FN?$FLNPC?5Talk?$FN?5Couldn?8t?5t@
CONST	SEGMENT
??_C@_0CP@GINMLCLK@?$FLANTI?9HACK?$FN?$FLNPC?5Talk?$FN?5Couldn?8t?5t@ DB '['
	DB	'ANTI-HACK][NPC Talk] Couldn''t talk.. (%s)(%s)', 00H ; `string'
; Function compile flags: /Odtp /ZI
CONST	ENDS
_TEXT	SEGMENT
tv68 = -76						; size = 4
_lpObj$ = -8						; size = 4
_this$ = -4						; size = 4
_lpMsg$ = 8						; size = 4
_aIndex$ = 12						; size = 4
?CGOpenGuildWarehouse@CGuildBank@@QAEXPAUPMSG_GUILD_BANK@@H@Z PROC ; CGuildBank::CGOpenGuildWarehouse
; _this$ = ecx

; 255  : {

  00c50	55		 push	 ebp
  00c51	8b ec		 mov	 ebp, esp
  00c53	83 ec 4c	 sub	 esp, 76			; 0000004cH
  00c56	53		 push	 ebx
  00c57	56		 push	 esi
  00c58	57		 push	 edi
  00c59	89 4d fc	 mov	 DWORD PTR _this$[ebp], ecx

; 256  : 	if(!this->m_iEnable)

  00c5c	8b 45 fc	 mov	 eax, DWORD PTR _this$[ebp]
  00c5f	83 38 00	 cmp	 DWORD PTR [eax], 0
  00c62	75 05		 jne	 SHORT $LN8@CGOpenGuil

; 257  : 	{
; 258  : 		return;

  00c64	e9 11 02 00 00	 jmp	 $LN9@CGOpenGuil
$LN8@CGOpenGuil:

; 259  : 	}
; 260  : 
; 261  : 	if(OBJMAX_RANGE(aIndex) == 0)

  00c69	83 7d 0c 00	 cmp	 DWORD PTR _aIndex$[ebp], 0
  00c6d	7d 09		 jge	 SHORT $LN11@CGOpenGuil
  00c6f	c7 45 b4 00 00
	00 00		 mov	 DWORD PTR tv68[ebp], 0
  00c76	eb 0f		 jmp	 SHORT $LN12@CGOpenGuil
$LN11@CGOpenGuil:
  00c78	33 c0		 xor	 eax, eax
  00c7a	81 7d 0c 97 3a
	00 00		 cmp	 DWORD PTR _aIndex$[ebp], 14999 ; 00003a97H
  00c81	0f 9e c0	 setle	 al
  00c84	89 45 b4	 mov	 DWORD PTR tv68[ebp], eax
$LN12@CGOpenGuil:
  00c87	83 7d b4 00	 cmp	 DWORD PTR tv68[ebp], 0
  00c8b	75 05		 jne	 SHORT $LN7@CGOpenGuil

; 262  : 	{
; 263  : 		return;

  00c8d	e9 e8 01 00 00	 jmp	 $LN9@CGOpenGuil
$LN7@CGOpenGuil:

; 264  : 	}
; 265  : 
; 266  : 	LPOBJ lpObj = &gObj[aIndex];

  00c92	8b 45 0c	 mov	 eax, DWORD PTR _aIndex$[ebp]
  00c95	69 c0 38 2b 00
	00		 imul	 eax, 11064		; 00002b38H
  00c9b	03 05 00 00 00
	00		 add	 eax, DWORD PTR ?gObj@@3PAUOBJECTSTRUCT@@A ; gObj
  00ca1	89 45 f8	 mov	 DWORD PTR _lpObj$[ebp], eax

; 267  : 
; 268  : 	if(!PacketCheckTime(lpObj))

  00ca4	8b 45 f8	 mov	 eax, DWORD PTR _lpObj$[ebp]
  00ca7	50		 push	 eax
  00ca8	e8 00 00 00 00	 call	 ?PacketCheckTime@@YAHPAUOBJECTSTRUCT@@@Z ; PacketCheckTime
  00cad	83 c4 04	 add	 esp, 4
  00cb0	85 c0		 test	 eax, eax
  00cb2	75 05		 jne	 SHORT $LN6@CGOpenGuil

; 269  : 	{
; 270  : 		return;

  00cb4	e9 c1 01 00 00	 jmp	 $LN9@CGOpenGuil
$LN6@CGOpenGuil:

; 271  : 	}
; 272  : 
; 273  : 	if(gObj[aIndex].CloseType != -1)

  00cb9	8b 45 0c	 mov	 eax, DWORD PTR _aIndex$[ebp]
  00cbc	69 c0 38 2b 00
	00		 imul	 eax, 11064		; 00002b38H
  00cc2	8b 0d 00 00 00
	00		 mov	 ecx, DWORD PTR ?gObj@@3PAUOBJECTSTRUCT@@A ; gObj
  00cc8	0f be 54 01 0b	 movsx	 edx, BYTE PTR [ecx+eax+11]
  00ccd	83 fa ff	 cmp	 edx, -1
  00cd0	74 05		 je	 SHORT $LN5@CGOpenGuil

; 274  : 	{
; 275  : 		return;

  00cd2	e9 a3 01 00 00	 jmp	 $LN9@CGOpenGuil
$LN5@CGOpenGuil:

; 276  : 	}
; 277  : 
; 278  : 	if(!gObjIsConnectedGP(aIndex))

  00cd7	8b 45 0c	 mov	 eax, DWORD PTR _aIndex$[ebp]
  00cda	50		 push	 eax
  00cdb	e8 00 00 00 00	 call	 ?gObjIsConnectedGP@@YAHH@Z ; gObjIsConnectedGP
  00ce0	83 c4 04	 add	 esp, 4
  00ce3	85 c0		 test	 eax, eax
  00ce5	75 3b		 jne	 SHORT $LN4@CGOpenGuil

; 279  : 	{
; 280  : 		LogAddTD("[ANTI-HACK][NPC Talk] Couldn't talk.. (%s)(%s)", gObj[aIndex].AccountID, gObj[aIndex].Name);

  00ce7	8b 45 0c	 mov	 eax, DWORD PTR _aIndex$[ebp]
  00cea	69 c0 38 2b 00
	00		 imul	 eax, 11064		; 00002b38H
  00cf0	8b 0d 00 00 00
	00		 mov	 ecx, DWORD PTR ?gObj@@3PAUOBJECTSTRUCT@@A ; gObj
  00cf6	8d 54 01 77	 lea	 edx, DWORD PTR [ecx+eax+119]
  00cfa	52		 push	 edx
  00cfb	8b 45 0c	 mov	 eax, DWORD PTR _aIndex$[ebp]
  00cfe	69 c0 38 2b 00
	00		 imul	 eax, 11064		; 00002b38H
  00d04	8b 0d 00 00 00
	00		 mov	 ecx, DWORD PTR ?gObj@@3PAUOBJECTSTRUCT@@A ; gObj
  00d0a	8d 54 01 6c	 lea	 edx, DWORD PTR [ecx+eax+108]
  00d0e	52		 push	 edx
  00d0f	68 00 00 00 00	 push	 OFFSET ??_C@_0CP@GINMLCLK@?$FLANTI?9HACK?$FN?$FLNPC?5Talk?$FN?5Couldn?8t?5t@
  00d14	ff 15 00 00 00
	00		 call	 DWORD PTR ?LogAddTD@@3P6AXPADZZA ; LogAddTD
  00d1a	83 c4 0c	 add	 esp, 12			; 0000000cH

; 281  : 		return;

  00d1d	e9 58 01 00 00	 jmp	 $LN9@CGOpenGuil
$LN4@CGOpenGuil:

; 282  : 	}
; 283  : 
; 284  : 	if ( lpObj->m_IfState.use > 0 )

  00d22	8b 45 f8	 mov	 eax, DWORD PTR _lpObj$[ebp]
  00d25	8b 88 1c 0e 00
	00		 mov	 ecx, DWORD PTR [eax+3612]
  00d2b	83 e1 03	 and	 ecx, 3
  00d2e	76 05		 jbe	 SHORT $LN3@CGOpenGuil

; 285  : 	{
; 286  : 		return;

  00d30	e9 45 01 00 00	 jmp	 $LN9@CGOpenGuil
$LN3@CGOpenGuil:

; 287  : 	}
; 288  : 
; 289  : 	if ( ::gObjFixInventoryPointer(aIndex) == false )

  00d35	8b 45 0c	 mov	 eax, DWORD PTR _aIndex$[ebp]
  00d38	50		 push	 eax
  00d39	e8 00 00 00 00	 call	 ?gObjFixInventoryPointer@@YA_NH@Z ; gObjFixInventoryPointer
  00d3e	83 c4 04	 add	 esp, 4
  00d41	0f b6 c8	 movzx	 ecx, al
  00d44	85 c9		 test	 ecx, ecx
  00d46	75 1c		 jne	 SHORT $LN2@CGOpenGuil

; 290  : 	{
; 291  : 		LogAdd("[Fix Inv.Ptr] False Location - %s, %d", __FILE__, __LINE__);

  00d48	a1 00 00 00 00	 mov	 eax, DWORD PTR ?__LINE__Var@?1??CGOpenGuildWarehouse@CGuildBank@@QAEXPAUPMSG_GUILD_BANK@@H@Z@4JA
  00d4d	83 c0 24	 add	 eax, 36			; 00000024H
  00d50	50		 push	 eax
  00d51	68 00 00 00 00	 push	 OFFSET ??_C@_0EB@HHEGPBOL@d?3?2projects?2exteam6?43?2source?2gam@
  00d56	68 00 00 00 00	 push	 OFFSET ??_C@_0CG@NFDFKIHI@?$FLFix?5Inv?4Ptr?$FN?5False?5Location?5?9?5?$CF@
  00d5b	ff 15 00 00 00
	00		 call	 DWORD PTR ?LogAdd@@3P6AXPADZZA ; LogAdd
  00d61	83 c4 0c	 add	 esp, 12			; 0000000cH
$LN2@CGOpenGuil:

; 292  : 	}
; 293  : 
; 294  : 	lpObj->TargetShopNumber = 100;

  00d64	b8 64 00 00 00	 mov	 eax, 100		; 00000064H
  00d69	8b 4d f8	 mov	 ecx, DWORD PTR _lpObj$[ebp]
  00d6c	66 89 81 5a 04
	00 00		 mov	 WORD PTR [ecx+1114], ax

; 295  : 	lpObj->m_IfState.use = 1;

  00d73	8b 45 f8	 mov	 eax, DWORD PTR _lpObj$[ebp]
  00d76	8b 88 1c 0e 00
	00		 mov	 ecx, DWORD PTR [eax+3612]
  00d7c	83 e1 fc	 and	 ecx, -4			; fffffffcH
  00d7f	83 c9 01	 or	 ecx, 1
  00d82	8b 55 f8	 mov	 edx, DWORD PTR _lpObj$[ebp]
  00d85	89 8a 1c 0e 00
	00		 mov	 DWORD PTR [edx+3612], ecx

; 296  : 	//lpObj->m_IfState.type = 3;
; 297  : 	lpObj->m_ShopTime = 0;

  00d8b	8b 45 f8	 mov	 eax, DWORD PTR _lpObj$[ebp]
  00d8e	c6 80 90 03 00
	00 00		 mov	 BYTE PTR [eax+912], 0

; 298  : 
; 299  : 	if(gObj[aIndex].m_ReqWarehouseOpen != false)

  00d95	8b 45 0c	 mov	 eax, DWORD PTR _aIndex$[ebp]
  00d98	69 c0 38 2b 00
	00		 imul	 eax, 11064		; 00002b38H
  00d9e	8b 0d 00 00 00
	00		 mov	 ecx, DWORD PTR ?gObj@@3PAUOBJECTSTRUCT@@A ; gObj
  00da4	0f b6 94 01 1c
	11 00 00	 movzx	 edx, BYTE PTR [ecx+eax+4380]
  00dac	85 d2		 test	 edx, edx
  00dae	74 05		 je	 SHORT $LN1@CGOpenGuil

; 300  : 	{
; 301  : 		return;

  00db0	e9 c5 00 00 00	 jmp	 $LN9@CGOpenGuil
$LN1@CGOpenGuil:

; 302  : 	}
; 303  : 		
; 304  : 	gObj[aIndex].m_ReqWarehouseOpen = true;

  00db5	8b 45 0c	 mov	 eax, DWORD PTR _aIndex$[ebp]
  00db8	69 c0 38 2b 00
	00		 imul	 eax, 11064		; 00002b38H
  00dbe	8b 0d 00 00 00
	00		 mov	 ecx, DWORD PTR ?gObj@@3PAUOBJECTSTRUCT@@A ; gObj
  00dc4	c6 84 01 1c 11
	00 00 01	 mov	 BYTE PTR [ecx+eax+4380], 1

; 305  : 
; 306  : 	lpObj->m_IfState.type = 6;

  00dcc	8b 45 f8	 mov	 eax, DWORD PTR _lpObj$[ebp]
  00dcf	8b 88 1c 0e 00
	00		 mov	 ecx, DWORD PTR [eax+3612]
  00dd5	81 e1 3f 00 ff
	ff		 and	 ecx, -65473		; ffff003fH
  00ddb	81 c9 80 01 00
	00		 or	 ecx, 384		; 00000180H
  00de1	8b 55 f8	 mov	 edx, DWORD PTR _lpObj$[ebp]
  00de4	89 8a 1c 0e 00
	00		 mov	 DWORD PTR [edx+3612], ecx

; 307  : 	lpObj->m_IfState.state = 0;

  00dea	8b 45 f8	 mov	 eax, DWORD PTR _lpObj$[ebp]
  00ded	8b 88 1c 0e 00
	00		 mov	 ecx, DWORD PTR [eax+3612]
  00df3	83 e1 c3	 and	 ecx, -61		; ffffffc3H
  00df6	8b 55 f8	 mov	 edx, DWORD PTR _lpObj$[ebp]
  00df9	89 8a 1c 0e 00
	00		 mov	 DWORD PTR [edx+3612], ecx

; 308  : 
; 309  : 	gObj[aIndex].WarehouseTickCount = GetTickCount();

  00dff	ff 15 00 00 00
	00		 call	 DWORD PTR __imp__GetTickCount@0
  00e05	8b 4d 0c	 mov	 ecx, DWORD PTR _aIndex$[ebp]
  00e08	69 c9 38 2b 00
	00		 imul	 ecx, 11064		; 00002b38H
  00e0e	8b 15 00 00 00
	00		 mov	 edx, DWORD PTR ?gObj@@3PAUOBJECTSTRUCT@@A ; gObj
  00e14	89 84 0a 74 0e
	00 00		 mov	 DWORD PTR [edx+ecx+3700], eax

; 310  : 	gObj[aIndex].WarehouseCount = 0;

  00e1b	8b 45 0c	 mov	 eax, DWORD PTR _aIndex$[ebp]
  00e1e	69 c0 38 2b 00
	00		 imul	 eax, 11064		; 00002b38H
  00e24	8b 0d 00 00 00
	00		 mov	 ecx, DWORD PTR ?gObj@@3PAUOBJECTSTRUCT@@A ; gObj
  00e2a	c6 84 01 64 0e
	00 00 00	 mov	 BYTE PTR [ecx+eax+3684], 0

; 311  : 
; 312  : #if(CUSTOM_MULTIWAREHOUSE)
; 313  : 	lpObj->WareChange = false;

  00e32	8b 45 f8	 mov	 eax, DWORD PTR _lpObj$[ebp]
  00e35	c6 80 e5 2a 00
	00 00		 mov	 BYTE PTR [eax+10981], 0

; 314  : 	lpObj->WarehouseNumber = 0;

  00e3c	8b 45 f8	 mov	 eax, DWORD PTR _lpObj$[ebp]
  00e3f	c7 80 e8 2a 00
	00 00 00 00 00	 mov	 DWORD PTR [eax+10984], 0

; 315  : 	WarehouseNumberSend(lpObj->m_Index);

  00e49	8b 45 f8	 mov	 eax, DWORD PTR _lpObj$[ebp]
  00e4c	8b 08		 mov	 ecx, DWORD PTR [eax]
  00e4e	51		 push	 ecx
  00e4f	e8 00 00 00 00	 call	 ?WarehouseNumberSend@@YAXH@Z ; WarehouseNumberSend
  00e54	83 c4 04	 add	 esp, 4

; 316  : 
; 317  : 	gObj[aIndex].m_bGuildBank = false;

  00e57	8b 45 0c	 mov	 eax, DWORD PTR _aIndex$[ebp]
  00e5a	69 c0 38 2b 00
	00		 imul	 eax, 11064		; 00002b38H
  00e60	8b 0d 00 00 00
	00		 mov	 ecx, DWORD PTR ?gObj@@3PAUOBJECTSTRUCT@@A ; gObj
  00e66	c6 84 01 25 2b
	00 00 00	 mov	 BYTE PTR [ecx+eax+11045], 0

; 318  : 	this->GDGetGuildWarehouseList(aIndex);

  00e6e	8b 45 0c	 mov	 eax, DWORD PTR _aIndex$[ebp]
  00e71	50		 push	 eax
  00e72	8b 4d fc	 mov	 ecx, DWORD PTR _this$[ebp]
  00e75	e8 00 00 00 00	 call	 ?GDGetGuildWarehouseList@CGuildBank@@QAEXH@Z ; CGuildBank::GDGetGuildWarehouseList
$LN9@CGOpenGuil:

; 319  : 
; 320  : #else
; 321  : 	GDGetWarehouseListOLD(aIndex, gObj[aIndex].AccountID);
; 322  : #endif
; 323  : }

  00e7a	5f		 pop	 edi
  00e7b	5e		 pop	 esi
  00e7c	5b		 pop	 ebx
  00e7d	8b e5		 mov	 esp, ebp
  00e7f	5d		 pop	 ebp
  00e80	c2 08 00	 ret	 8
?CGOpenGuildWarehouse@CGuildBank@@QAEXPAUPMSG_GUILD_BANK@@H@Z ENDP ; CGuildBank::CGOpenGuildWarehouse
_TEXT	ENDS
EXTRN	?Clear@CItem@@QAEXXZ:PROC			; CItem::Clear
; Function compile flags: /Odtp /ZI
_TEXT	SEGMENT
tv67 = -80						; size = 4
_i$228174 = -12						; size = 4
_lpObj$ = -8						; size = 4
_this$ = -4						; size = 4
_aIndex$ = 8						; size = 4
?ClearWarehouse@CGuildBank@@QAEXH@Z PROC		; CGuildBank::ClearWarehouse
; _this$ = ecx

; 326  : {

  00e90	55		 push	 ebp
  00e91	8b ec		 mov	 ebp, esp
  00e93	83 ec 50	 sub	 esp, 80			; 00000050H
  00e96	53		 push	 ebx
  00e97	56		 push	 esi
  00e98	57		 push	 edi
  00e99	89 4d fc	 mov	 DWORD PTR _this$[ebp], ecx

; 327  : 	if(OBJMAX_RANGE(aIndex) == 0)

  00e9c	83 7d 08 00	 cmp	 DWORD PTR _aIndex$[ebp], 0
  00ea0	7d 09		 jge	 SHORT $LN8@ClearWareh
  00ea2	c7 45 b0 00 00
	00 00		 mov	 DWORD PTR tv67[ebp], 0
  00ea9	eb 0f		 jmp	 SHORT $LN9@ClearWareh
$LN8@ClearWareh:
  00eab	33 c0		 xor	 eax, eax
  00ead	81 7d 08 97 3a
	00 00		 cmp	 DWORD PTR _aIndex$[ebp], 14999 ; 00003a97H
  00eb4	0f 9e c0	 setle	 al
  00eb7	89 45 b0	 mov	 DWORD PTR tv67[ebp], eax
$LN9@ClearWareh:
  00eba	83 7d b0 00	 cmp	 DWORD PTR tv67[ebp], 0
  00ebe	75 02		 jne	 SHORT $LN5@ClearWareh

; 328  : 	{
; 329  : 		return;

  00ec0	eb 5f		 jmp	 SHORT $LN6@ClearWareh
$LN5@ClearWareh:

; 330  : 	}
; 331  : 	LPOBJ lpObj = &gObj[aIndex];

  00ec2	8b 45 08	 mov	 eax, DWORD PTR _aIndex$[ebp]
  00ec5	69 c0 38 2b 00
	00		 imul	 eax, 11064		; 00002b38H
  00ecb	03 05 00 00 00
	00		 add	 eax, DWORD PTR ?gObj@@3PAUOBJECTSTRUCT@@A ; gObj
  00ed1	89 45 f8	 mov	 DWORD PTR _lpObj$[ebp], eax

; 332  : 	/* Guild Bank Fix */
; 333  : 
; 334  : 	lpObj->WarehouseMoney = 0;

  00ed4	8b 45 f8	 mov	 eax, DWORD PTR _lpObj$[ebp]
  00ed7	c7 80 6c 0e 00
	00 00 00 00 00	 mov	 DWORD PTR [eax+3692], 0

; 335  : 
; 336  : 	if(lpObj->Type == OBJ_USER)

  00ee1	8b 45 f8	 mov	 eax, DWORD PTR _lpObj$[ebp]
  00ee4	0f b7 48 68	 movzx	 ecx, WORD PTR [eax+104]
  00ee8	83 f9 01	 cmp	 ecx, 1
  00eeb	75 34		 jne	 SHORT $LN6@ClearWareh

; 337  : 	{
; 338  : 		for(int i=0;i<WAREHOUSE_SIZE;i++)

  00eed	c7 45 f4 00 00
	00 00		 mov	 DWORD PTR _i$228174[ebp], 0
  00ef4	eb 09		 jmp	 SHORT $LN3@ClearWareh
$LN2@ClearWareh:
  00ef6	8b 45 f4	 mov	 eax, DWORD PTR _i$228174[ebp]
  00ef9	83 c0 01	 add	 eax, 1
  00efc	89 45 f4	 mov	 DWORD PTR _i$228174[ebp], eax
$LN3@ClearWareh:
  00eff	81 7d f4 f0 00
	00 00		 cmp	 DWORD PTR _i$228174[ebp], 240 ; 000000f0H
  00f06	7d 19		 jge	 SHORT $LN6@ClearWareh

; 339  : 		{
; 340  : 			lpObj->pWarehouse[i].Clear();

  00f08	8b 4d f4	 mov	 ecx, DWORD PTR _i$228174[ebp]
  00f0b	69 c9 d4 00 00
	00		 imul	 ecx, 212		; 000000d4H
  00f11	8b 45 f8	 mov	 eax, DWORD PTR _lpObj$[ebp]
  00f14	03 88 5c 0e 00
	00		 add	 ecx, DWORD PTR [eax+3676]
  00f1a	e8 00 00 00 00	 call	 ?Clear@CItem@@QAEXXZ	; CItem::Clear

; 341  : 		}

  00f1f	eb d5		 jmp	 SHORT $LN2@ClearWareh
$LN6@ClearWareh:

; 342  : 	}
; 343  : 
; 344  : }

  00f21	5f		 pop	 edi
  00f22	5e		 pop	 esi
  00f23	5b		 pop	 ebx
  00f24	8b e5		 mov	 esp, ebp
  00f26	5d		 pop	 ebp
  00f27	c2 04 00	 ret	 4
?ClearWarehouse@CGuildBank@@QAEXH@Z ENDP		; CGuildBank::ClearWarehouse
_TEXT	ENDS
END
