; Listing generated by Microsoft (R) Optimizing Compiler Version 16.00.40219.01 

	TITLE	D:\Projects\ExTeam6.3\Source\GameServer\GameServer\IllusionTempleProcess.cpp
	.686P
	.XMM
	include listing.inc
	.model	flat

INCLUDELIB LIBCMT
INCLUDELIB OLDNAMES

_DATA	SEGMENT
_g_iNpcUpDfLevel_CGATE DD 01H
	DD	02H
	DD	02dc6c0H
	DD	02H
	DD	03H
	DD	02dc6c0H
	DD	03H
	DD	04H
	DD	02dc6c0H
_g_iNpcUpDfLevel_CSTATUE DD 01H
	DD	03H
	DD	02dc6c0H
	DD	02H
	DD	05H
	DD	02dc6c0H
	DD	03H
	DD	07H
	DD	02dc6c0H
_g_iNpcUpMaxHP_CGATE DD 02625a0H
	DD	02H
	DD	0f4240H
	DD	03567e0H
	DD	03H
	DD	0f4240H
	DD	04f5880H
	DD	04H
	DD	0f4240H
_g_iNpcUpMaxHP_CSTATUE DD 02191c0H
	DD	03H
	DD	0f4240H
	DD	033e140H
	DD	05H
	DD	0f4240H
	DD	04c4b40H
	DD	07H
	DD	0f4240H
_g_iNpcUpRgLevel_CSTATUE DD 01H
	DD	03H
	DD	04c4b40H
	DD	02H
	DD	05H
	DD	04c4b40H
	DD	03H
	DD	07H
	DD	04c4b40H
_g_iCsUserReSpawnArea DD 023H
	DD	011H
	DD	090H
	DD	030H
	DD	04aH
	DD	090H
	DD	073H
	DD	09aH
	DD	023H
	DD	011H
	DD	090H
	DD	030H
_g_iNpcDefense_CGATE DD 064H
	DD	0b4H
	DD	012cH
	DD	0208H
_g_iNpcDefense_CSTATUE DD 050H
	DD	0b4H
	DD	0154H
	DD	0226H
_g_iCastleWallStepAxisY DD 071H
	DD	0a0H
	DD	0cbH
_g_sttBLOODCASTLE_LEVEL DD 0fH
	DD	050H
	DD	0aH
	DD	03cH
	DD	051H
	DD	082H
	DD	03dH
	DD	06eH
	DD	083H
	DD	0b4H
	DD	06fH
	DD	0a0H
	DD	0b5H
	DD	0e6H
	DD	0a1H
	DD	0d2H
	DD	0e7H
	DD	0118H
	DD	0d3H
	DD	0104H
	DD	0119H
	DD	014aH
	DD	0105H
	DD	0136H
	DD	014bH
	DD	0190H
	DD	0137H
	DD	0190H
	DD	0fH
	DD	0257H
	DD	0aH
	DD	0257H
_g_sttCHAOSCASTLE_LEVEL DD 0fH
	DD	031H
	DD	0fH
	DD	01dH
	DD	032H
	DD	077H
	DD	01eH
	DD	063H
	DD	078H
	DD	0b3H
	DD	064H
	DD	09fH
	DD	0b4H
	DD	0efH
	DD	0a0H
	DD	0dbH
	DD	0f0H
	DD	012bH
	DD	0dcH
	DD	0117H
	DD	012cH
	DD	0190H
	DD	0118H
	DD	0190H
	DD	0190H
	DD	0257H
	DD	0190H
	DD	0257H
_g_iChaosCastle_BlowOutDistance DD 03H
	DD	04H
	DD	03H
	DD	04H
	DD	02H
	DD	03H
	DD	00H
	DD	01H
_g_iChaosCastle_BlowOutDamage DD 0fH
	DD	0fH
	DD	0aH
	DD	05H
_g_iChaosCastle_EnterCost DD 061a8H
	DD	013880H
	DD	0249f0H
	DD	03d090H
	DD	061a80H
	DD	09eb10H
	DD	0f4240H
_g_iChaosCastle_GuardSetValue DD 09c4H
	DD	09c4H
	DD	09c4H
	DD	09c4H
	DD	09c4H
	DD	09c4H
	DD	09c4H
_g_iChaosCastle_MonsterItems DD 01c0dH
	DD	01H
	DD	01c0eH
	DD	02H
	DD	01c0dH
	DD	01H
	DD	01c0eH
	DD	03H
	DD	01c0dH
	DD	01H
	DD	01c0eH
	DD	03H
	DD	01c0dH
	DD	02H
	DD	01c0eH
	DD	02H
	DD	01c0dH
	DD	02H
	DD	01c0eH
	DD	03H
	DD	01c0dH
	DD	02H
	DD	01c0eH
	DD	03H
	DD	01c0dH
	DD	02H
	DD	01c0eH
	DD	04H
_g_iChaosCastle_MonsterItemsNewServer DD 00H
	DD	00H
	DD	01c0eH
	DD	02H
	DD	01c0dH
	DD	01H
	DD	01c0eH
	DD	01H
	DD	01c0dH
	DD	01H
	DD	01c0eH
	DD	02H
	DD	01c0dH
	DD	01H
	DD	01c0eH
	DD	02H
	DD	01c0dH
	DD	02H
	DD	01c0eH
	DD	01H
	DD	01c0dH
	DD	02H
	DD	01c0eH
	DD	02H
	DD	01c0dH
	DD	02H
	DD	01c0eH
	DD	03H
_g_iChaosCastle_GroundAxis DD 017H
	DD	04bH
	DD	02cH
	DD	06cH
_g_iChaosCastle_DamageAxis DD 017H
	DD	04bH
	DD	02cH
	DD	06cH
	DD	019H
	DD	04dH
	DD	02aH
	DD	06aH
	DD	01bH
	DD	04fH
	DD	028H
	DD	068H
	DD	01dH
	DD	051H
	DD	026H
	DD	066H
_g_iChaosCastle_MapHollowZone DD 017H
	DD	04bH
	DD	02cH
	DD	04cH
	DD	02bH
	DD	04dH
	DD	02cH
	DD	06cH
	DD	017H
	DD	06bH
	DD	02aH
	DD	06cH
	DD	017H
	DD	04dH
	DD	018H
	DD	06aH
	DD	017H
	DD	04bH
	DD	02cH
	DD	04cH
	DD	02bH
	DD	04dH
	DD	02cH
	DD	06cH
	DD	017H
	DD	06bH
	DD	02aH
	DD	06cH
	DD	017H
	DD	04dH
	DD	018H
	DD	06aH
	DD	019H
	DD	04dH
	DD	02aH
	DD	04eH
	DD	029H
	DD	04fH
	DD	02aH
	DD	06aH
	DD	019H
	DD	069H
	DD	028H
	DD	06aH
	DD	019H
	DD	04fH
	DD	01aH
	DD	068H
	DD	01bH
	DD	04fH
	DD	028H
	DD	050H
	DD	027H
	DD	051H
	DD	028H
	DD	068H
	DD	01bH
	DD	067H
	DD	026H
	DD	068H
	DD	01bH
	DD	051H
	DD	01cH
	DD	066H
_DATA	ENDS
CONST	SEGMENT
_g_IllusionTemple_Default_Exp DD 0493e0H
	DD	053020H
	DD	05cc60H
	DD	0668a0H
	DD	0704e0H
	DD	07a120H
_g_IllusionTemple_unk0 DD 0c350H
	DD	0ea60H
	DD	011170H
	DD	013880H
	DD	015f90H
	DD	0186a0H
_g_IllusionTemple_unk1 DD 0258H
	DD	04b0H
	DD	0708H
	DD	0960H
	DD	0bb8H
	DD	0dacH
_g_IllusionTemple_unk2 DD 04b0H
	DD	0960H
	DD	0e10H
	DD	012c0H
	DD	01770H
	DD	01c20H
_g_IllusionTemple_Team_Players DD 0aH
	DD	014H
	DD	01eH
	DD	028H
	DD	032H
CONST	ENDS
PUBLIC	??_H@YGXPAXIHP6EPAX0@Z@Z			; `vector constructor iterator'
; Function compile flags: /Odtp /ZI
;	COMDAT ??_H@YGXPAXIHP6EPAX0@Z@Z
_TEXT	SEGMENT
___t$ = 8						; size = 4
___s$ = 12						; size = 4
___n$ = 16						; size = 4
___f$ = 20						; size = 4
??_H@YGXPAXIHP6EPAX0@Z@Z PROC				; `vector constructor iterator', COMDAT
  00000	55		 push	 ebp
  00001	8b ec		 mov	 ebp, esp
  00003	83 ec 40	 sub	 esp, 64			; 00000040H
  00006	53		 push	 ebx
  00007	56		 push	 esi
  00008	57		 push	 edi
$LN2@vector:
  00009	8b 45 10	 mov	 eax, DWORD PTR ___n$[ebp]
  0000c	83 e8 01	 sub	 eax, 1
  0000f	89 45 10	 mov	 DWORD PTR ___n$[ebp], eax
  00012	78 11		 js	 SHORT $LN3@vector
  00014	8b 4d 08	 mov	 ecx, DWORD PTR ___t$[ebp]
  00017	ff 55 14	 call	 DWORD PTR ___f$[ebp]
  0001a	8b 45 08	 mov	 eax, DWORD PTR ___t$[ebp]
  0001d	03 45 0c	 add	 eax, DWORD PTR ___s$[ebp]
  00020	89 45 08	 mov	 DWORD PTR ___t$[ebp], eax
  00023	eb e4		 jmp	 SHORT $LN2@vector
$LN3@vector:
  00025	5f		 pop	 edi
  00026	5e		 pop	 esi
  00027	5b		 pop	 ebx
  00028	8b e5		 mov	 esp, ebp
  0002a	5d		 pop	 ebp
  0002b	c2 10 00	 ret	 16			; 00000010H
??_H@YGXPAXIHP6EPAX0@Z@Z ENDP				; `vector constructor iterator'
_TEXT	ENDS
PUBLIC	?ClearMonstersData@CIllusionTempleProcess@@QAEXXZ ; CIllusionTempleProcess::ClearMonstersData
PUBLIC	??0_ILLUSIONTEMPLE_FLOOR_DATA@@QAE@XZ		; _ILLUSIONTEMPLE_FLOOR_DATA::_ILLUSIONTEMPLE_FLOOR_DATA
PUBLIC	??_7CIllusionTempleProcess@@6B@			; CIllusionTempleProcess::`vftable'
PUBLIC	??0CIllusionTempleProcess@@QAE@XZ		; CIllusionTempleProcess::CIllusionTempleProcess
PUBLIC	??_R4CIllusionTempleProcess@@6B@		; CIllusionTempleProcess::`RTTI Complete Object Locator'
PUBLIC	??_R0?AVCIllusionTempleProcess@@@8		; CIllusionTempleProcess `RTTI Type Descriptor'
PUBLIC	??_R3CIllusionTempleProcess@@8			; CIllusionTempleProcess::`RTTI Class Hierarchy Descriptor'
PUBLIC	??_R2CIllusionTempleProcess@@8			; CIllusionTempleProcess::`RTTI Base Class Array'
PUBLIC	??_R1A@?0A@EA@CIllusionTempleProcess@@8		; CIllusionTempleProcess::`RTTI Base Class Descriptor at (0,-1,0,64)'
EXTRN	__imp__InitializeCriticalSection@4:PROC
EXTRN	??_7type_info@@6B@:QWORD			; type_info::`vftable'
EXTRN	??_ECIllusionTempleProcess@@UAEPAXI@Z:PROC	; CIllusionTempleProcess::`vector deleting destructor'
;	COMDAT ??_R1A@?0A@EA@CIllusionTempleProcess@@8
; File d:\projects\exteam6.3\source\gameserver\gameserver\illusiontempleprocess.cpp
rdata$r	SEGMENT
??_R1A@?0A@EA@CIllusionTempleProcess@@8 DD FLAT:??_R0?AVCIllusionTempleProcess@@@8 ; CIllusionTempleProcess::`RTTI Base Class Descriptor at (0,-1,0,64)'
	DD	00H
	DD	00H
	DD	0ffffffffH
	DD	00H
	DD	040H
	DD	FLAT:??_R3CIllusionTempleProcess@@8
rdata$r	ENDS
;	COMDAT ??_R2CIllusionTempleProcess@@8
rdata$r	SEGMENT
??_R2CIllusionTempleProcess@@8 DD FLAT:??_R1A@?0A@EA@CIllusionTempleProcess@@8 ; CIllusionTempleProcess::`RTTI Base Class Array'
rdata$r	ENDS
;	COMDAT ??_R3CIllusionTempleProcess@@8
rdata$r	SEGMENT
??_R3CIllusionTempleProcess@@8 DD 00H			; CIllusionTempleProcess::`RTTI Class Hierarchy Descriptor'
	DD	00H
	DD	01H
	DD	FLAT:??_R2CIllusionTempleProcess@@8
rdata$r	ENDS
;	COMDAT ??_R0?AVCIllusionTempleProcess@@@8
_DATA	SEGMENT
??_R0?AVCIllusionTempleProcess@@@8 DD FLAT:??_7type_info@@6B@ ; CIllusionTempleProcess `RTTI Type Descriptor'
	DD	00H
	DB	'.?AVCIllusionTempleProcess@@', 00H
_DATA	ENDS
;	COMDAT ??_R4CIllusionTempleProcess@@6B@
rdata$r	SEGMENT
??_R4CIllusionTempleProcess@@6B@ DD 00H			; CIllusionTempleProcess::`RTTI Complete Object Locator'
	DD	00H
	DD	00H
	DD	FLAT:??_R0?AVCIllusionTempleProcess@@@8
	DD	FLAT:??_R3CIllusionTempleProcess@@8
rdata$r	ENDS
;	COMDAT ??_7CIllusionTempleProcess@@6B@
CONST	SEGMENT
??_7CIllusionTempleProcess@@6B@ DD FLAT:??_R4CIllusionTempleProcess@@6B@ ; CIllusionTempleProcess::`vftable'
	DD	FLAT:??_ECIllusionTempleProcess@@UAEPAXI@Z
; Function compile flags: /Odtp /ZI
CONST	ENDS
_TEXT	SEGMENT
_this$ = -4						; size = 4
??0CIllusionTempleProcess@@QAE@XZ PROC			; CIllusionTempleProcess::CIllusionTempleProcess
; _this$ = ecx

; 25   : {

  00000	55		 push	 ebp
  00001	8b ec		 mov	 ebp, esp
  00003	83 ec 44	 sub	 esp, 68			; 00000044H
  00006	53		 push	 ebx
  00007	56		 push	 esi
  00008	57		 push	 edi
  00009	89 4d fc	 mov	 DWORD PTR _this$[ebp], ecx
  0000c	8b 45 fc	 mov	 eax, DWORD PTR _this$[ebp]
  0000f	c7 00 00 00 00
	00		 mov	 DWORD PTR [eax], OFFSET ??_7CIllusionTempleProcess@@6B@
  00015	68 00 00 00 00	 push	 OFFSET ??0_ILLUSIONTEMPLE_FLOOR_DATA@@QAE@XZ ; _ILLUSIONTEMPLE_FLOOR_DATA::_ILLUSIONTEMPLE_FLOOR_DATA
  0001a	6a 0a		 push	 10			; 0000000aH
  0001c	6a 30		 push	 48			; 00000030H
  0001e	8b 45 fc	 mov	 eax, DWORD PTR _this$[ebp]
  00021	83 c0 20	 add	 eax, 32			; 00000020H
  00024	50		 push	 eax
  00025	e8 00 00 00 00	 call	 ??_H@YGXPAXIHP6EPAX0@Z@Z
  0002a	8b 45 fc	 mov	 eax, DWORD PTR _this$[ebp]
  0002d	c6 80 2c 02 00
	00 ff		 mov	 BYTE PTR [eax+556], 255	; 000000ffH
  00034	8b 45 fc	 mov	 eax, DWORD PTR _this$[ebp]
  00037	c6 80 2d 02 00
	00 00		 mov	 BYTE PTR [eax+557], 0
  0003e	8b 45 fc	 mov	 eax, DWORD PTR _this$[ebp]
  00041	c7 80 a4 03 00
	00 00 00 00 00	 mov	 DWORD PTR [eax+932], 0
  0004b	8b 45 fc	 mov	 eax, DWORD PTR _this$[ebp]
  0004e	c7 80 c0 03 00
	00 00 00 00 00	 mov	 DWORD PTR [eax+960], 0
  00058	8b 45 fc	 mov	 eax, DWORD PTR _this$[ebp]
  0005b	c7 80 c4 03 00
	00 00 00 00 00	 mov	 DWORD PTR [eax+964], 0

; 26   : 	InitializeCriticalSection(&this->m_cs);

  00065	8b 45 fc	 mov	 eax, DWORD PTR _this$[ebp]
  00068	83 c0 08	 add	 eax, 8
  0006b	50		 push	 eax
  0006c	ff 15 00 00 00
	00		 call	 DWORD PTR __imp__InitializeCriticalSection@4

; 27   : 
; 28   : 	this->m_iEventBattleTimer = -1;

  00072	8b 45 fc	 mov	 eax, DWORD PTR _this$[ebp]
  00075	c7 80 9c 03 00
	00 ff ff ff ff	 mov	 DWORD PTR [eax+924], -1

; 29   : 
; 30   : 	this->ClearMonstersData();

  0007f	8b 4d fc	 mov	 ecx, DWORD PTR _this$[ebp]
  00082	e8 00 00 00 00	 call	 ?ClearMonstersData@CIllusionTempleProcess@@QAEXXZ ; CIllusionTempleProcess::ClearMonstersData

; 31   : }

  00087	8b 45 fc	 mov	 eax, DWORD PTR _this$[ebp]
  0008a	5f		 pop	 edi
  0008b	5e		 pop	 esi
  0008c	5b		 pop	 ebx
  0008d	8b e5		 mov	 esp, ebp
  0008f	5d		 pop	 ebp
  00090	c3		 ret	 0
??0CIllusionTempleProcess@@QAE@XZ ENDP			; CIllusionTempleProcess::CIllusionTempleProcess
; Function compile flags: /Odtp /ZI
; File d:\projects\exteam6.3\source\gameserver\gameserver\illusiontempleprocess.h
_TEXT	ENDS
;	COMDAT ??0_ILLUSIONTEMPLE_FLOOR_DATA@@QAE@XZ
_TEXT	SEGMENT
_this$ = -4						; size = 4
??0_ILLUSIONTEMPLE_FLOOR_DATA@@QAE@XZ PROC		; _ILLUSIONTEMPLE_FLOOR_DATA::_ILLUSIONTEMPLE_FLOOR_DATA, COMDAT
; _this$ = ecx

; 93   : 	_ILLUSIONTEMPLE_FLOOR_DATA()

  00000	55		 push	 ebp
  00001	8b ec		 mov	 ebp, esp
  00003	83 ec 44	 sub	 esp, 68			; 00000044H
  00006	53		 push	 ebx
  00007	56		 push	 esi
  00008	57		 push	 edi
  00009	89 4d fc	 mov	 DWORD PTR _this$[ebp], ecx

; 94   : 	{
; 95   : 		m_iTeamPlayerIndex = -1;

  0000c	8b 45 fc	 mov	 eax, DWORD PTR _this$[ebp]
  0000f	c7 00 ff ff ff
	ff		 mov	 DWORD PTR [eax], -1

; 96   : 		m_btPosNDur = -1;

  00015	8b 45 fc	 mov	 eax, DWORD PTR _this$[ebp]
  00018	c6 40 28 ff	 mov	 BYTE PTR [eax+40], 255	; 000000ffH

; 97   : 	}

  0001c	8b 45 fc	 mov	 eax, DWORD PTR _this$[ebp]
  0001f	5f		 pop	 edi
  00020	5e		 pop	 esi
  00021	5b		 pop	 ebx
  00022	8b e5		 mov	 esp, ebp
  00024	5d		 pop	 ebp
  00025	c3		 ret	 0
??0_ILLUSIONTEMPLE_FLOOR_DATA@@QAE@XZ ENDP		; _ILLUSIONTEMPLE_FLOOR_DATA::_ILLUSIONTEMPLE_FLOOR_DATA
_TEXT	ENDS
PUBLIC	??1CIllusionTempleProcess@@UAE@XZ		; CIllusionTempleProcess::~CIllusionTempleProcess
EXTRN	??3@YAXPAX@Z:PROC				; operator delete
; Function compile flags: /Odtp /ZI
;	COMDAT ??_GCIllusionTempleProcess@@UAEPAXI@Z
_TEXT	SEGMENT
_this$ = -4						; size = 4
___flags$ = 8						; size = 4
??_GCIllusionTempleProcess@@UAEPAXI@Z PROC		; CIllusionTempleProcess::`scalar deleting destructor', COMDAT
; _this$ = ecx
  00000	55		 push	 ebp
  00001	8b ec		 mov	 ebp, esp
  00003	83 ec 44	 sub	 esp, 68			; 00000044H
  00006	53		 push	 ebx
  00007	56		 push	 esi
  00008	57		 push	 edi
  00009	89 4d fc	 mov	 DWORD PTR _this$[ebp], ecx
  0000c	8b 4d fc	 mov	 ecx, DWORD PTR _this$[ebp]
  0000f	e8 00 00 00 00	 call	 ??1CIllusionTempleProcess@@UAE@XZ ; CIllusionTempleProcess::~CIllusionTempleProcess
  00014	8b 45 08	 mov	 eax, DWORD PTR ___flags$[ebp]
  00017	83 e0 01	 and	 eax, 1
  0001a	74 0c		 je	 SHORT $LN1@scalar
  0001c	8b 45 fc	 mov	 eax, DWORD PTR _this$[ebp]
  0001f	50		 push	 eax
  00020	e8 00 00 00 00	 call	 ??3@YAXPAX@Z		; operator delete
  00025	83 c4 04	 add	 esp, 4
$LN1@scalar:
  00028	8b 45 fc	 mov	 eax, DWORD PTR _this$[ebp]
  0002b	5f		 pop	 edi
  0002c	5e		 pop	 esi
  0002d	5b		 pop	 ebx
  0002e	8b e5		 mov	 esp, ebp
  00030	5d		 pop	 ebp
  00031	c2 04 00	 ret	 4
??_GCIllusionTempleProcess@@UAEPAXI@Z ENDP		; CIllusionTempleProcess::`scalar deleting destructor'
_TEXT	ENDS
EXTRN	__imp__DeleteCriticalSection@4:PROC
; Function compile flags: /Odtp /ZI
; File d:\projects\exteam6.3\source\gameserver\gameserver\illusiontempleprocess.cpp
_TEXT	SEGMENT
_this$ = -4						; size = 4
??1CIllusionTempleProcess@@UAE@XZ PROC			; CIllusionTempleProcess::~CIllusionTempleProcess
; _this$ = ecx

; 34   : {

  000a0	55		 push	 ebp
  000a1	8b ec		 mov	 ebp, esp
  000a3	83 ec 44	 sub	 esp, 68			; 00000044H
  000a6	53		 push	 ebx
  000a7	56		 push	 esi
  000a8	57		 push	 edi
  000a9	89 4d fc	 mov	 DWORD PTR _this$[ebp], ecx
  000ac	8b 45 fc	 mov	 eax, DWORD PTR _this$[ebp]
  000af	c7 00 00 00 00
	00		 mov	 DWORD PTR [eax], OFFSET ??_7CIllusionTempleProcess@@6B@

; 35   : 	DeleteCriticalSection(&this->m_cs);

  000b5	8b 45 fc	 mov	 eax, DWORD PTR _this$[ebp]
  000b8	83 c0 08	 add	 eax, 8
  000bb	50		 push	 eax
  000bc	ff 15 00 00 00
	00		 call	 DWORD PTR __imp__DeleteCriticalSection@4

; 36   : }

  000c2	5f		 pop	 edi
  000c3	5e		 pop	 esi
  000c4	5b		 pop	 ebx
  000c5	8b e5		 mov	 esp, ebp
  000c7	5d		 pop	 ebp
  000c8	c3		 ret	 0
??1CIllusionTempleProcess@@UAE@XZ ENDP			; CIllusionTempleProcess::~CIllusionTempleProcess
_TEXT	ENDS
PUBLIC	?CheckSync@CIllusionTempleProcess@@QAEXXZ	; CIllusionTempleProcess::CheckSync
PUBLIC	?ResetUserKillCountPoint@CIllusionTempleProcess@@QAEXXZ ; CIllusionTempleProcess::ResetUserKillCountPoint
PUBLIC	?InitFloorData@CIllusionTempleProcess@@QAEXH@Z	; CIllusionTempleProcess::InitFloorData
PUBLIC	?Init@CIllusionTempleProcess@@QAEXH@Z		; CIllusionTempleProcess::Init
EXTRN	__imp__GetTickCount@0:PROC
; Function compile flags: /Odtp /ZI
_TEXT	SEGMENT
_i$ = -8						; size = 4
_this$ = -4						; size = 4
_FloorIndex$ = 8					; size = 4
?Init@CIllusionTempleProcess@@QAEXH@Z PROC		; CIllusionTempleProcess::Init
; _this$ = ecx

; 39   : {

  000d0	55		 push	 ebp
  000d1	8b ec		 mov	 ebp, esp
  000d3	83 ec 48	 sub	 esp, 72			; 00000048H
  000d6	53		 push	 ebx
  000d7	56		 push	 esi
  000d8	57		 push	 edi
  000d9	89 4d fc	 mov	 DWORD PTR _this$[ebp], ecx

; 40   : 	if(this->m_btFloorIndex == (BYTE)-1)

  000dc	8b 45 fc	 mov	 eax, DWORD PTR _this$[ebp]
  000df	0f b6 88 2c 02
	00 00		 movzx	 ecx, BYTE PTR [eax+556]
  000e6	81 f9 ff 00 00
	00		 cmp	 ecx, 255		; 000000ffH
  000ec	75 0c		 jne	 SHORT $LN7@Init

; 41   : 	{
; 42   : 		this->m_btFloorIndex = FloorIndex;

  000ee	8b 45 fc	 mov	 eax, DWORD PTR _this$[ebp]
  000f1	8a 4d 08	 mov	 cl, BYTE PTR _FloorIndex$[ebp]
  000f4	88 88 2c 02 00
	00		 mov	 BYTE PTR [eax+556], cl
$LN7@Init:

; 43   : 	}
; 44   : 	
; 45   : 	int i;
; 46   : 	for(i = 0; i < MAX_FLOOR_USER; i++ )

  000fa	c7 45 f8 00 00
	00 00		 mov	 DWORD PTR _i$[ebp], 0
  00101	eb 09		 jmp	 SHORT $LN6@Init
$LN5@Init:
  00103	8b 45 f8	 mov	 eax, DWORD PTR _i$[ebp]
  00106	83 c0 01	 add	 eax, 1
  00109	89 45 f8	 mov	 DWORD PTR _i$[ebp], eax
$LN6@Init:
  0010c	83 7d f8 0a	 cmp	 DWORD PTR _i$[ebp], 10	; 0000000aH
  00110	7d 0e		 jge	 SHORT $LN4@Init

; 47   : 	{
; 48   : 		this->InitFloorData(i);

  00112	8b 45 f8	 mov	 eax, DWORD PTR _i$[ebp]
  00115	50		 push	 eax
  00116	8b 4d fc	 mov	 ecx, DWORD PTR _this$[ebp]
  00119	e8 00 00 00 00	 call	 ?InitFloorData@CIllusionTempleProcess@@QAEXH@Z ; CIllusionTempleProcess::InitFloorData

; 49   : 	}

  0011e	eb e3		 jmp	 SHORT $LN5@Init
$LN4@Init:

; 50   : 
; 51   : 	this->m_iCloseTickCount = GetTickCount();

  00120	ff 15 00 00 00
	00		 call	 DWORD PTR __imp__GetTickCount@0
  00126	8b 4d fc	 mov	 ecx, DWORD PTR _this$[ebp]
  00129	89 81 a0 03 00
	00		 mov	 DWORD PTR [ecx+928], eax

; 52   : 	this->m_iBallPlayerIndex = -1;

  0012f	8b 45 fc	 mov	 eax, DWORD PTR _this$[ebp]
  00132	c7 80 b8 03 00
	00 ff ff ff ff	 mov	 DWORD PTR [eax+952], -1

; 53   : 	this->m_btBallInventoryPosition = (BYTE)-1;

  0013c	8b 45 fc	 mov	 eax, DWORD PTR _this$[ebp]
  0013f	c6 80 bd 03 00
	00 ff		 mov	 BYTE PTR [eax+957], 255	; 000000ffH

; 54   : 	this->m_btAllowedRegPedestal = (BYTE)-1;

  00146	8b 45 fc	 mov	 eax, DWORD PTR _this$[ebp]
  00149	c6 80 bc 03 00
	00 ff		 mov	 BYTE PTR [eax+956], 255	; 000000ffH

; 55   : 	this->m_iYellowTeamUserCount = 0;

  00150	8b 45 fc	 mov	 eax, DWORD PTR _this$[ebp]
  00153	c7 80 c8 03 00
	00 00 00 00 00	 mov	 DWORD PTR [eax+968], 0

; 56   : 	this->m_iBlueTeamUserCount = 0;

  0015d	8b 45 fc	 mov	 eax, DWORD PTR _this$[ebp]
  00160	c7 80 cc 03 00
	00 00 00 00 00	 mov	 DWORD PTR [eax+972], 0

; 57   : 	this->m_btYellowTeamScore = 0;

  0016a	8b 45 fc	 mov	 eax, DWORD PTR _this$[ebp]
  0016d	c6 80 d0 03 00
	00 00		 mov	 BYTE PTR [eax+976], 0

; 58   : 	this->m_btBlueTeamScore = 0;

  00174	8b 45 fc	 mov	 eax, DWORD PTR _this$[ebp]
  00177	c6 80 d1 03 00
	00 00		 mov	 BYTE PTR [eax+977], 0

; 59   : 	this->m_iStatueRegenTickCount = -1;

  0017e	8b 45 fc	 mov	 eax, DWORD PTR _this$[ebp]
  00181	c7 80 94 03 00
	00 ff ff ff ff	 mov	 DWORD PTR [eax+916], -1

; 60   : 	this->m_btWinnerTeam = (BYTE)-1;

  0018b	8b 45 fc	 mov	 eax, DWORD PTR _this$[ebp]
  0018e	c6 80 d2 03 00
	00 ff		 mov	 BYTE PTR [eax+978], 255	; 000000ffH

; 61   : 	this->m_bOpenStatus = FALSE;

  00195	8b 45 fc	 mov	 eax, DWORD PTR _this$[ebp]
  00198	c7 80 90 03 00
	00 00 00 00 00	 mov	 DWORD PTR [eax+912], 0

; 62   : 	this->m_iEventBattleTimer = -1;

  001a2	8b 45 fc	 mov	 eax, DWORD PTR _this$[ebp]
  001a5	c7 80 9c 03 00
	00 ff ff ff ff	 mov	 DWORD PTR [eax+924], -1

; 63   : 	this->m_bIllusionTempleEventEnded = FALSE;

  001af	8b 45 fc	 mov	 eax, DWORD PTR _this$[ebp]
  001b2	c7 80 ac 03 00
	00 00 00 00 00	 mov	 DWORD PTR [eax+940], 0

; 64   : 	this->m_bMsgBeforeEnterTemple = FALSE;

  001bc	8b 45 fc	 mov	 eax, DWORD PTR _this$[ebp]
  001bf	c7 80 b0 03 00
	00 00 00 00 00	 mov	 DWORD PTR [eax+944], 0

; 65   : 	this->m_bMsgBeforeEnterBattle = FALSE;

  001c9	8b 45 fc	 mov	 eax, DWORD PTR _this$[ebp]
  001cc	c7 80 b4 03 00
	00 00 00 00 00	 mov	 DWORD PTR [eax+948], 0

; 66   : 	this->m_iLeftMinutesBeforeEnd = 0;

  001d6	8b 45 fc	 mov	 eax, DWORD PTR _this$[ebp]
  001d9	c7 80 a8 03 00
	00 00 00 00 00	 mov	 DWORD PTR [eax+936], 0

; 67   : 
; 68   : 	this->ResetUserKillCountPoint();

  001e3	8b 4d fc	 mov	 ecx, DWORD PTR _this$[ebp]
  001e6	e8 00 00 00 00	 call	 ?ResetUserKillCountPoint@CIllusionTempleProcess@@QAEXXZ ; CIllusionTempleProcess::ResetUserKillCountPoint

; 69   : 
; 70   : 	this->CheckSync();

  001eb	8b 4d fc	 mov	 ecx, DWORD PTR _this$[ebp]
  001ee	e8 00 00 00 00	 call	 ?CheckSync@CIllusionTempleProcess@@QAEXXZ ; CIllusionTempleProcess::CheckSync

; 71   : 
; 72   : 	this->m_bTimeCheckSync = FALSE;

  001f3	8b 45 fc	 mov	 eax, DWORD PTR _this$[ebp]
  001f6	c7 80 e4 03 00
	00 00 00 00 00	 mov	 DWORD PTR [eax+996], 0

; 73   : 
; 74   : 	for( i = 0; i < MAX_TYPE_PLAYER; i++ )

  00200	c7 45 f8 00 00
	00 00		 mov	 DWORD PTR _i$[ebp], 0
  00207	eb 09		 jmp	 SHORT $LN3@Init
$LN2@Init:
  00209	8b 45 f8	 mov	 eax, DWORD PTR _i$[ebp]
  0020c	83 c0 01	 add	 eax, 1
  0020f	89 45 f8	 mov	 DWORD PTR _i$[ebp], eax
$LN3@Init:
  00212	83 7d f8 07	 cmp	 DWORD PTR _i$[ebp], 7
  00216	7d 1c		 jge	 SHORT $LN1@Init

; 75   : 	{
; 76   : 		this->m_btYellowTeamClassCount[i] = 0;

  00218	8b 45 fc	 mov	 eax, DWORD PTR _this$[ebp]
  0021b	03 45 f8	 add	 eax, DWORD PTR _i$[ebp]
  0021e	c6 80 d3 03 00
	00 00		 mov	 BYTE PTR [eax+979], 0

; 77   : 		this->m_btBlueTeamClassCount[i] = 0;

  00225	8b 45 fc	 mov	 eax, DWORD PTR _this$[ebp]
  00228	03 45 f8	 add	 eax, DWORD PTR _i$[ebp]
  0022b	c6 80 da 03 00
	00 00		 mov	 BYTE PTR [eax+986], 0

; 78   : 	}

  00232	eb d5		 jmp	 SHORT $LN2@Init
$LN1@Init:

; 79   : 
; 80   : 	this->m_bScoreRankSet = FALSE;

  00234	8b 45 fc	 mov	 eax, DWORD PTR _this$[ebp]
  00237	c7 80 e8 03 00
	00 00 00 00 00	 mov	 DWORD PTR [eax+1000], 0

; 81   : }

  00241	5f		 pop	 edi
  00242	5e		 pop	 esi
  00243	5b		 pop	 ebx
  00244	8b e5		 mov	 esp, ebp
  00246	5d		 pop	 ebp
  00247	c2 04 00	 ret	 4
?Init@CIllusionTempleProcess@@QAEXH@Z ENDP		; CIllusionTempleProcess::Init
_TEXT	ENDS
PUBLIC	??_C@_0N@GGPGOPEN@return?5?$CFs?5?$CFd?$AA@	; `string'
PUBLIC	??_C@_0EN@FIHDICBF@d?3?2projects?2exteam6?43?2source?2gam@ ; `string'
PUBLIC	?__LINE__Var@?1??InitFloorData@CIllusionTempleProcess@@QAEXH@Z@4JA ; `CIllusionTempleProcess::InitFloorData'::`2'::__LINE__Var
EXTRN	?LogAdd@@3P6AXPADZZA:DWORD			; LogAdd
;	COMDAT ??_C@_0N@GGPGOPEN@return?5?$CFs?5?$CFd?$AA@
CONST	SEGMENT
??_C@_0N@GGPGOPEN@return?5?$CFs?5?$CFd?$AA@ DB 'return %s %d', 00H ; `string'
CONST	ENDS
;	COMDAT ??_C@_0EN@FIHDICBF@d?3?2projects?2exteam6?43?2source?2gam@
CONST	SEGMENT
??_C@_0EN@FIHDICBF@d?3?2projects?2exteam6?43?2source?2gam@ DB 'd:\project'
	DB	's\exteam6.3\source\gameserver\gameserver\illusiontempleproces'
	DB	's.cpp', 00H					; `string'
CONST	ENDS
;	COMDAT ?__LINE__Var@?1??InitFloorData@CIllusionTempleProcess@@QAEXH@Z@4JA
_DATA	SEGMENT
?__LINE__Var@?1??InitFloorData@CIllusionTempleProcess@@QAEXH@Z@4JA DD 054H ; `CIllusionTempleProcess::InitFloorData'::`2'::__LINE__Var
; Function compile flags: /Odtp /ZI
_DATA	ENDS
_TEXT	SEGMENT
tv67 = -72						; size = 4
_this$ = -4						; size = 4
_aIndex$ = 8						; size = 4
?InitFloorData@CIllusionTempleProcess@@QAEXH@Z PROC	; CIllusionTempleProcess::InitFloorData
; _this$ = ecx

; 84   : {

  00250	55		 push	 ebp
  00251	8b ec		 mov	 ebp, esp
  00253	83 ec 48	 sub	 esp, 72			; 00000048H
  00256	53		 push	 ebx
  00257	56		 push	 esi
  00258	57		 push	 edi
  00259	89 4d fc	 mov	 DWORD PTR _this$[ebp], ecx

; 85   : 	if( OBJMAX_RANGE(aIndex) == FALSE )

  0025c	83 7d 08 00	 cmp	 DWORD PTR _aIndex$[ebp], 0
  00260	7d 09		 jge	 SHORT $LN4@InitFloorD
  00262	c7 45 b8 00 00
	00 00		 mov	 DWORD PTR tv67[ebp], 0
  00269	eb 0f		 jmp	 SHORT $LN5@InitFloorD
$LN4@InitFloorD:
  0026b	33 c0		 xor	 eax, eax
  0026d	81 7d 08 97 3a
	00 00		 cmp	 DWORD PTR _aIndex$[ebp], 14999 ; 00003a97H
  00274	0f 9e c0	 setle	 al
  00277	89 45 b8	 mov	 DWORD PTR tv67[ebp], eax
$LN5@InitFloorD:
  0027a	83 7d b8 00	 cmp	 DWORD PTR tv67[ebp], 0
  0027e	75 21		 jne	 SHORT $LN1@InitFloorD

; 86   : 	{
; 87   : 		LogAdd("return %s %d", __FILE__, __LINE__);

  00280	a1 00 00 00 00	 mov	 eax, DWORD PTR ?__LINE__Var@?1??InitFloorData@CIllusionTempleProcess@@QAEXH@Z@4JA
  00285	83 c0 03	 add	 eax, 3
  00288	50		 push	 eax
  00289	68 00 00 00 00	 push	 OFFSET ??_C@_0EN@FIHDICBF@d?3?2projects?2exteam6?43?2source?2gam@
  0028e	68 00 00 00 00	 push	 OFFSET ??_C@_0N@GGPGOPEN@return?5?$CFs?5?$CFd?$AA@
  00293	ff 15 00 00 00
	00		 call	 DWORD PTR ?LogAdd@@3P6AXPADZZA ; LogAdd
  00299	83 c4 0c	 add	 esp, 12			; 0000000cH

; 88   : 		return;

  0029c	e9 c5 00 00 00	 jmp	 $LN2@InitFloorD
$LN1@InitFloorD:

; 89   : 	}
; 90   : 
; 91   : 	this->m_UserData[aIndex].m_UserIndex = 0;

  002a1	8b 45 08	 mov	 eax, DWORD PTR _aIndex$[ebp]
  002a4	8b 4d fc	 mov	 ecx, DWORD PTR _this$[ebp]
  002a7	c7 84 81 00 02
	00 00 00 00 00
	00		 mov	 DWORD PTR [ecx+eax*4+512], 0

; 92   : 
; 93   : 	this->m_FloorData[aIndex].m_dwShieldSpellTime = 0;

  002b2	8b 45 08	 mov	 eax, DWORD PTR _aIndex$[ebp]
  002b5	6b c0 30	 imul	 eax, 48			; 00000030H
  002b8	8b 4d fc	 mov	 ecx, DWORD PTR _this$[ebp]
  002bb	c7 44 01 28 00
	00 00 00	 mov	 DWORD PTR [ecx+eax+40], 0

; 94   : 
; 95   : 	this->m_FloorData[aIndex].m_dwRestrictionSpellTime = 0;

  002c3	8b 45 08	 mov	 eax, DWORD PTR _aIndex$[ebp]
  002c6	6b c0 30	 imul	 eax, 48			; 00000030H
  002c9	8b 4d fc	 mov	 ecx, DWORD PTR _this$[ebp]
  002cc	c7 44 01 2c 00
	00 00 00	 mov	 DWORD PTR [ecx+eax+44], 0

; 96   : 	this->m_FloorData[aIndex].m_iTeamPlayerIndex = -1;

  002d4	8b 45 08	 mov	 eax, DWORD PTR _aIndex$[ebp]
  002d7	6b c0 30	 imul	 eax, 48			; 00000030H
  002da	8b 4d fc	 mov	 ecx, DWORD PTR _this$[ebp]
  002dd	c7 44 01 20 ff
	ff ff ff	 mov	 DWORD PTR [ecx+eax+32], -1

; 97   : 	this->m_FloorData[aIndex].m_btTeamJoinSide = (BYTE)-1;

  002e5	8b 45 08	 mov	 eax, DWORD PTR _aIndex$[ebp]
  002e8	6b c0 30	 imul	 eax, 48			; 00000030H
  002eb	8b 4d fc	 mov	 ecx, DWORD PTR _this$[ebp]
  002ee	c6 44 01 24 ff	 mov	 BYTE PTR [ecx+eax+36], 255 ; 000000ffH

; 98   : 	this->m_FloorData[aIndex].m_btUserKillCount = 0;

  002f3	8b 45 08	 mov	 eax, DWORD PTR _aIndex$[ebp]
  002f6	6b c0 30	 imul	 eax, 48			; 00000030H
  002f9	8b 4d fc	 mov	 ecx, DWORD PTR _this$[ebp]
  002fc	c6 44 01 30 00	 mov	 BYTE PTR [ecx+eax+48], 0

; 99   : 	this->m_FloorData[aIndex].m_btMonsterRewardKillCount = 0;

  00301	8b 45 08	 mov	 eax, DWORD PTR _aIndex$[ebp]
  00304	6b c0 30	 imul	 eax, 48			; 00000030H
  00307	8b 4d fc	 mov	 ecx, DWORD PTR _this$[ebp]
  0030a	c6 44 01 31 00	 mov	 BYTE PTR [ecx+eax+49], 0

; 100  : 	this->m_FloorData[aIndex].m_btPlayerRewardKillCount = 0;

  0030f	8b 45 08	 mov	 eax, DWORD PTR _aIndex$[ebp]
  00312	6b c0 30	 imul	 eax, 48			; 00000030H
  00315	8b 4d fc	 mov	 ecx, DWORD PTR _this$[ebp]
  00318	c6 44 01 32 00	 mov	 BYTE PTR [ecx+eax+50], 0

; 101  : 	this->m_FloorData[aIndex].m_btUsedKillCountPoint = 0;

  0031d	8b 45 08	 mov	 eax, DWORD PTR _aIndex$[ebp]
  00320	6b c0 30	 imul	 eax, 48			; 00000030H
  00323	8b 4d fc	 mov	 ecx, DWORD PTR _this$[ebp]
  00326	c6 44 01 33 00	 mov	 BYTE PTR [ecx+eax+51], 0

; 102  : 
; 103  : 	this->m_FloorData[aIndex].m_i64ExpReward = 0;

  0032b	8b 45 08	 mov	 eax, DWORD PTR _aIndex$[ebp]
  0032e	6b c0 30	 imul	 eax, 48			; 00000030H
  00331	8b 4d fc	 mov	 ecx, DWORD PTR _this$[ebp]
  00334	c7 44 01 38 00
	00 00 00	 mov	 DWORD PTR [ecx+eax+56], 0
  0033c	c7 44 01 3c 00
	00 00 00	 mov	 DWORD PTR [ecx+eax+60], 0

; 104  : 	this->m_FloorData[aIndex].m_dwRankingPoint = 0;

  00344	8b 45 08	 mov	 eax, DWORD PTR _aIndex$[ebp]
  00347	6b c0 30	 imul	 eax, 48			; 00000030H
  0034a	8b 4d fc	 mov	 ecx, DWORD PTR _this$[ebp]
  0034d	c7 44 01 40 00
	00 00 00	 mov	 DWORD PTR [ecx+eax+64], 0

; 105  : 
; 106  : 	this->m_FloorData[aIndex].m_bDropReward = 0;

  00355	8b 45 08	 mov	 eax, DWORD PTR _aIndex$[ebp]
  00358	6b c0 30	 imul	 eax, 48			; 00000030H
  0035b	8b 4d fc	 mov	 ecx, DWORD PTR _this$[ebp]
  0035e	c7 44 01 44 00
	00 00 00	 mov	 DWORD PTR [ecx+eax+68], 0
$LN2@InitFloorD:

; 107  : }

  00366	5f		 pop	 edi
  00367	5e		 pop	 esi
  00368	5b		 pop	 ebx
  00369	8b e5		 mov	 esp, ebp
  0036b	5d		 pop	 ebp
  0036c	c2 04 00	 ret	 4
?InitFloorData@CIllusionTempleProcess@@QAEXH@Z ENDP	; CIllusionTempleProcess::InitFloorData
_TEXT	ENDS
PUBLIC	??_C@_0DG@NJOPLNIL@?$FLIllusion?5Temple?$FN?5?$CI?$CFd?$CJ?5Sync?5Open@ ; `string'
PUBLIC	??E?$_List_iterator@V?$_List_val@UILLUSIONTEMPLE_START_TIME@@V?$allocator@UILLUSIONTEMPLE_START_TIME@@@std@@@std@@@std@@QAE?AV01@H@Z ; std::_List_iterator<std::_List_val<ILLUSIONTEMPLE_START_TIME,std::allocator<ILLUSIONTEMPLE_START_TIME> > >::operator++
PUBLIC	??8?$_List_const_iterator@V?$_List_val@UILLUSIONTEMPLE_START_TIME@@V?$allocator@UILLUSIONTEMPLE_START_TIME@@@std@@@std@@@std@@QBE_NABV01@@Z ; std::_List_const_iterator<std::_List_val<ILLUSIONTEMPLE_START_TIME,std::allocator<ILLUSIONTEMPLE_START_TIME> > >::operator==
PUBLIC	??9?$_List_const_iterator@V?$_List_val@UILLUSIONTEMPLE_START_TIME@@V?$allocator@UILLUSIONTEMPLE_START_TIME@@@std@@@std@@@std@@QBE_NABV01@@Z ; std::_List_const_iterator<std::_List_val<ILLUSIONTEMPLE_START_TIME,std::allocator<ILLUSIONTEMPLE_START_TIME> > >::operator!=
PUBLIC	?end@?$list@UILLUSIONTEMPLE_START_TIME@@V?$allocator@UILLUSIONTEMPLE_START_TIME@@@std@@@std@@QAE?AV?$_List_iterator@V?$_List_val@UILLUSIONTEMPLE_START_TIME@@V?$allocator@UILLUSIONTEMPLE_START_TIME@@@std@@@std@@@2@XZ ; std::list<ILLUSIONTEMPLE_START_TIME,std::allocator<ILLUSIONTEMPLE_START_TIME> >::end
PUBLIC	??E?$_List_iterator@V?$_List_val@UILLUSIONTEMPLE_START_TIME@@V?$allocator@UILLUSIONTEMPLE_START_TIME@@@std@@@std@@@std@@QAEAAV01@XZ ; std::_List_iterator<std::_List_val<ILLUSIONTEMPLE_START_TIME,std::allocator<ILLUSIONTEMPLE_START_TIME> > >::operator++
PUBLIC	??D?$_List_iterator@V?$_List_val@UILLUSIONTEMPLE_START_TIME@@V?$allocator@UILLUSIONTEMPLE_START_TIME@@@std@@@std@@@std@@QBEAAUILLUSIONTEMPLE_START_TIME@@XZ ; std::_List_iterator<std::_List_val<ILLUSIONTEMPLE_START_TIME,std::allocator<ILLUSIONTEMPLE_START_TIME> > >::operator*
PUBLIC	?begin@?$list@UILLUSIONTEMPLE_START_TIME@@V?$allocator@UILLUSIONTEMPLE_START_TIME@@@std@@@std@@QAE?AV?$_List_iterator@V?$_List_val@UILLUSIONTEMPLE_START_TIME@@V?$allocator@UILLUSIONTEMPLE_START_TIME@@@std@@@std@@@2@XZ ; std::list<ILLUSIONTEMPLE_START_TIME,std::allocator<ILLUSIONTEMPLE_START_TIME> >::begin
PUBLIC	??_C@_0CM@GMBNLABJ@Error?5?3?5Illusion?5Temple?5StartTim@ ; `string'
PUBLIC	?size@?$list@UILLUSIONTEMPLE_START_TIME@@V?$allocator@UILLUSIONTEMPLE_START_TIME@@@std@@@std@@QBEIXZ ; std::list<ILLUSIONTEMPLE_START_TIME,std::allocator<ILLUSIONTEMPLE_START_TIME> >::size
PUBLIC	??0?$_List_iterator@V?$_List_val@UILLUSIONTEMPLE_START_TIME@@V?$allocator@UILLUSIONTEMPLE_START_TIME@@@std@@@std@@@std@@QAE@XZ ; std::_List_iterator<std::_List_val<ILLUSIONTEMPLE_START_TIME,std::allocator<ILLUSIONTEMPLE_START_TIME> > >::_List_iterator<std::_List_val<ILLUSIONTEMPLE_START_TIME,std::allocator<ILLUSIONTEMPLE_START_TIME> > >
EXTRN	?LogAddTD@@3P6AXPADZZA:DWORD			; LogAddTD
EXTRN	?m_i_IT_OpenTime@@3HA:DWORD			; m_i_IT_OpenTime
EXTRN	?MsgBox@@YAXPADZZ:PROC				; MsgBox
;	COMDAT ??_C@_0DG@NJOPLNIL@?$FLIllusion?5Temple?$FN?5?$CI?$CFd?$CJ?5Sync?5Open@
CONST	SEGMENT
??_C@_0DG@NJOPLNIL@?$FLIllusion?5Temple?$FN?5?$CI?$CFd?$CJ?5Sync?5Open@ DB '['
	DB	'Illusion Temple] (%d) Sync Open Time. [%d]min remain', 00H ; `string'
CONST	ENDS
;	COMDAT ??_C@_0CM@GMBNLABJ@Error?5?3?5Illusion?5Temple?5StartTim@
CONST	SEGMENT
??_C@_0CM@GMBNLABJ@Error?5?3?5Illusion?5Temple?5StartTim@ DB 'Error : Ill'
	DB	'usion Temple StartTime size is 0', 00H	; `string'
; Function compile flags: /Odtp /ZI
CONST	ENDS
_TEXT	SEGMENT
$T235689 = -148						; size = 4
$T235690 = -144						; size = 4
$T235691 = -140						; size = 4
$T235692 = -136						; size = 4
$T235693 = -132						; size = 4
$T235694 = -128						; size = 4
$T235695 = -124						; size = 4
_loc13$ = -56						; size = 4
_loc12$ = -52						; size = 4
_ltime$ = -48						; size = 8
_today$ = -40						; size = 4
_CurrentTime$ = -36					; size = 4
_CheckTime$ = -32					; size = 4
_BaseTime$ = -28					; size = 4
_WebzenVar2$ = -24					; size = 8
_WebzenVar1$ = -16					; size = 8
_it$ = -8						; size = 4
_this$ = -4						; size = 4
?CheckSync@CIllusionTempleProcess@@QAEXXZ PROC		; CIllusionTempleProcess::CheckSync
; _this$ = ecx

; 110  : {

  00370	55		 push	 ebp
  00371	8b ec		 mov	 ebp, esp
  00373	81 ec 94 00 00
	00		 sub	 esp, 148		; 00000094H
  00379	53		 push	 ebx
  0037a	56		 push	 esi
  0037b	57		 push	 edi
  0037c	89 4d fc	 mov	 DWORD PTR _this$[ebp], ecx

; 111  : 	std::list<ILLUSIONTEMPLE_START_TIME>::iterator it;

  0037f	8d 4d f8	 lea	 ecx, DWORD PTR _it$[ebp]
  00382	e8 00 00 00 00	 call	 ??0?$_List_iterator@V?$_List_val@UILLUSIONTEMPLE_START_TIME@@V?$allocator@UILLUSIONTEMPLE_START_TIME@@@std@@@std@@@std@@QAE@XZ ; std::_List_iterator<std::_List_val<ILLUSIONTEMPLE_START_TIME,std::allocator<ILLUSIONTEMPLE_START_TIME> > >::_List_iterator<std::_List_val<ILLUSIONTEMPLE_START_TIME,std::allocator<ILLUSIONTEMPLE_START_TIME> > >

; 112  : 	ILLUSIONTEMPLE_START_TIME WebzenVar1;
; 113  : 	ILLUSIONTEMPLE_START_TIME WebzenVar2;
; 114  : 	int BaseTime = 0;

  00387	c7 45 e4 00 00
	00 00		 mov	 DWORD PTR _BaseTime$[ebp], 0

; 115  : 	int CheckTime = 0;

  0038e	c7 45 e0 00 00
	00 00		 mov	 DWORD PTR _CheckTime$[ebp], 0

; 116  : 	DWORD CurrentTime = 0;

  00395	c7 45 dc 00 00
	00 00		 mov	 DWORD PTR _CurrentTime$[ebp], 0

; 117  : 	
; 118  : 	tm * today;
; 119  : 	time_t ltime;
; 120  : 
; 121  : 	int loc12;
; 122  : 	int loc13;
; 123  : 
; 124  : 	if(m_listIllusionTempleOpenTime.size() == 0)

  0039c	b9 00 00 00 00	 mov	 ecx, OFFSET ?m_listIllusionTempleOpenTime@@3V?$list@UILLUSIONTEMPLE_START_TIME@@V?$allocator@UILLUSIONTEMPLE_START_TIME@@@std@@@std@@A ; m_listIllusionTempleOpenTime
  003a1	e8 00 00 00 00	 call	 ?size@?$list@UILLUSIONTEMPLE_START_TIME@@V?$allocator@UILLUSIONTEMPLE_START_TIME@@@std@@@std@@QBEIXZ ; std::list<ILLUSIONTEMPLE_START_TIME,std::allocator<ILLUSIONTEMPLE_START_TIME> >::size
  003a6	85 c0		 test	 eax, eax
  003a8	75 12		 jne	 SHORT $LN16@CheckSync

; 125  : 	{
; 126  : 		MsgBox("Error : Illusion Temple StartTime size is 0");

  003aa	68 00 00 00 00	 push	 OFFSET ??_C@_0CM@GMBNLABJ@Error?5?3?5Illusion?5Temple?5StartTim@
  003af	e8 00 00 00 00	 call	 ?MsgBox@@YAXPADZZ	; MsgBox
  003b4	83 c4 04	 add	 esp, 4

; 127  : 		return;

  003b7	e9 56 02 00 00	 jmp	 $LN17@CheckSync
$LN16@CheckSync:

; 128  : 	}
; 129  : 
; 130  : 	time(&ltime);

  003bc	8d 45 d0	 lea	 eax, DWORD PTR _ltime$[ebp]
  003bf	50		 push	 eax
  003c0	e8 00 00 00 00	 call	 _time
  003c5	83 c4 04	 add	 esp, 4

; 131  : 	today = localtime(&ltime);

  003c8	8d 45 d0	 lea	 eax, DWORD PTR _ltime$[ebp]
  003cb	50		 push	 eax
  003cc	e8 00 00 00 00	 call	 _localtime
  003d1	83 c4 04	 add	 esp, 4
  003d4	89 45 d8	 mov	 DWORD PTR _today$[ebp], eax

; 132  : 
; 133  : 	
; 134  : 	CurrentTime = (today->tm_hour * 60) + today->tm_min;

  003d7	8b 45 d8	 mov	 eax, DWORD PTR _today$[ebp]
  003da	8b 48 08	 mov	 ecx, DWORD PTR [eax+8]
  003dd	6b c9 3c	 imul	 ecx, 60			; 0000003cH
  003e0	8b 55 d8	 mov	 edx, DWORD PTR _today$[ebp]
  003e3	03 4a 04	 add	 ecx, DWORD PTR [edx+4]
  003e6	89 4d dc	 mov	 DWORD PTR _CurrentTime$[ebp], ecx

; 135  : 	WebzenVar1 = *m_listIllusionTempleOpenTime.begin();

  003e9	8d 85 6c ff ff
	ff		 lea	 eax, DWORD PTR $T235689[ebp]
  003ef	50		 push	 eax
  003f0	b9 00 00 00 00	 mov	 ecx, OFFSET ?m_listIllusionTempleOpenTime@@3V?$list@UILLUSIONTEMPLE_START_TIME@@V?$allocator@UILLUSIONTEMPLE_START_TIME@@@std@@@std@@A ; m_listIllusionTempleOpenTime
  003f5	e8 00 00 00 00	 call	 ?begin@?$list@UILLUSIONTEMPLE_START_TIME@@V?$allocator@UILLUSIONTEMPLE_START_TIME@@@std@@@std@@QAE?AV?$_List_iterator@V?$_List_val@UILLUSIONTEMPLE_START_TIME@@V?$allocator@UILLUSIONTEMPLE_START_TIME@@@std@@@std@@@2@XZ ; std::list<ILLUSIONTEMPLE_START_TIME,std::allocator<ILLUSIONTEMPLE_START_TIME> >::begin
  003fa	8b c8		 mov	 ecx, eax
  003fc	e8 00 00 00 00	 call	 ??D?$_List_iterator@V?$_List_val@UILLUSIONTEMPLE_START_TIME@@V?$allocator@UILLUSIONTEMPLE_START_TIME@@@std@@@std@@@std@@QBEAAUILLUSIONTEMPLE_START_TIME@@XZ ; std::_List_iterator<std::_List_val<ILLUSIONTEMPLE_START_TIME,std::allocator<ILLUSIONTEMPLE_START_TIME> > >::operator*
  00401	8b 08		 mov	 ecx, DWORD PTR [eax]
  00403	8b 50 04	 mov	 edx, DWORD PTR [eax+4]
  00406	89 4d f0	 mov	 DWORD PTR _WebzenVar1$[ebp], ecx
  00409	89 55 f4	 mov	 DWORD PTR _WebzenVar1$[ebp+4], edx

; 136  : 
; 137  : 	for( it = m_listIllusionTempleOpenTime.begin(); it != m_listIllusionTempleOpenTime.end(); ++it )

  0040c	8d 85 70 ff ff
	ff		 lea	 eax, DWORD PTR $T235690[ebp]
  00412	50		 push	 eax
  00413	b9 00 00 00 00	 mov	 ecx, OFFSET ?m_listIllusionTempleOpenTime@@3V?$list@UILLUSIONTEMPLE_START_TIME@@V?$allocator@UILLUSIONTEMPLE_START_TIME@@@std@@@std@@A ; m_listIllusionTempleOpenTime
  00418	e8 00 00 00 00	 call	 ?begin@?$list@UILLUSIONTEMPLE_START_TIME@@V?$allocator@UILLUSIONTEMPLE_START_TIME@@@std@@@std@@QAE?AV?$_List_iterator@V?$_List_val@UILLUSIONTEMPLE_START_TIME@@V?$allocator@UILLUSIONTEMPLE_START_TIME@@@std@@@std@@@2@XZ ; std::list<ILLUSIONTEMPLE_START_TIME,std::allocator<ILLUSIONTEMPLE_START_TIME> >::begin
  0041d	8b 08		 mov	 ecx, DWORD PTR [eax]
  0041f	89 4d f8	 mov	 DWORD PTR _it$[ebp], ecx
  00422	eb 08		 jmp	 SHORT $LN15@CheckSync
$LN14@CheckSync:
  00424	8d 4d f8	 lea	 ecx, DWORD PTR _it$[ebp]
  00427	e8 00 00 00 00	 call	 ??E?$_List_iterator@V?$_List_val@UILLUSIONTEMPLE_START_TIME@@V?$allocator@UILLUSIONTEMPLE_START_TIME@@@std@@@std@@@std@@QAEAAV01@XZ ; std::_List_iterator<std::_List_val<ILLUSIONTEMPLE_START_TIME,std::allocator<ILLUSIONTEMPLE_START_TIME> > >::operator++
$LN15@CheckSync:
  0042c	8d 85 74 ff ff
	ff		 lea	 eax, DWORD PTR $T235691[ebp]
  00432	50		 push	 eax
  00433	b9 00 00 00 00	 mov	 ecx, OFFSET ?m_listIllusionTempleOpenTime@@3V?$list@UILLUSIONTEMPLE_START_TIME@@V?$allocator@UILLUSIONTEMPLE_START_TIME@@@std@@@std@@A ; m_listIllusionTempleOpenTime
  00438	e8 00 00 00 00	 call	 ?end@?$list@UILLUSIONTEMPLE_START_TIME@@V?$allocator@UILLUSIONTEMPLE_START_TIME@@@std@@@std@@QAE?AV?$_List_iterator@V?$_List_val@UILLUSIONTEMPLE_START_TIME@@V?$allocator@UILLUSIONTEMPLE_START_TIME@@@std@@@std@@@2@XZ ; std::list<ILLUSIONTEMPLE_START_TIME,std::allocator<ILLUSIONTEMPLE_START_TIME> >::end
  0043d	50		 push	 eax
  0043e	8d 4d f8	 lea	 ecx, DWORD PTR _it$[ebp]
  00441	e8 00 00 00 00	 call	 ??9?$_List_const_iterator@V?$_List_val@UILLUSIONTEMPLE_START_TIME@@V?$allocator@UILLUSIONTEMPLE_START_TIME@@@std@@@std@@@std@@QBE_NABV01@@Z ; std::_List_const_iterator<std::_List_val<ILLUSIONTEMPLE_START_TIME,std::allocator<ILLUSIONTEMPLE_START_TIME> > >::operator!=
  00446	0f b6 c8	 movzx	 ecx, al
  00449	85 c9		 test	 ecx, ecx
  0044b	74 7e		 je	 SHORT $LN13@CheckSync

; 138  : 	{
; 139  : 		WebzenVar2 = *it;

  0044d	8d 4d f8	 lea	 ecx, DWORD PTR _it$[ebp]
  00450	e8 00 00 00 00	 call	 ??D?$_List_iterator@V?$_List_val@UILLUSIONTEMPLE_START_TIME@@V?$allocator@UILLUSIONTEMPLE_START_TIME@@@std@@@std@@@std@@QBEAAUILLUSIONTEMPLE_START_TIME@@XZ ; std::_List_iterator<std::_List_val<ILLUSIONTEMPLE_START_TIME,std::allocator<ILLUSIONTEMPLE_START_TIME> > >::operator*
  00455	8b 08		 mov	 ecx, DWORD PTR [eax]
  00457	8b 50 04	 mov	 edx, DWORD PTR [eax+4]
  0045a	89 4d e8	 mov	 DWORD PTR _WebzenVar2$[ebp], ecx
  0045d	89 55 ec	 mov	 DWORD PTR _WebzenVar2$[ebp+4], edx

; 140  : 		BaseTime = (WebzenVar1.m_iHour * 60) + WebzenVar1.m_iMinute;

  00460	8b 45 f0	 mov	 eax, DWORD PTR _WebzenVar1$[ebp]
  00463	6b c0 3c	 imul	 eax, 60			; 0000003cH
  00466	03 45 f4	 add	 eax, DWORD PTR _WebzenVar1$[ebp+4]
  00469	89 45 e4	 mov	 DWORD PTR _BaseTime$[ebp], eax

; 141  : 		CheckTime =	(WebzenVar2.m_iHour * 60) + WebzenVar2.m_iMinute;

  0046c	8b 45 e8	 mov	 eax, DWORD PTR _WebzenVar2$[ebp]
  0046f	6b c0 3c	 imul	 eax, 60			; 0000003cH
  00472	03 45 ec	 add	 eax, DWORD PTR _WebzenVar2$[ebp+4]
  00475	89 45 e0	 mov	 DWORD PTR _CheckTime$[ebp], eax

; 142  : 
; 143  : 		if( BaseTime == CheckTime )

  00478	8b 45 e4	 mov	 eax, DWORD PTR _BaseTime$[ebp]
  0047b	3b 45 e0	 cmp	 eax, DWORD PTR _CheckTime$[ebp]
  0047e	75 1f		 jne	 SHORT $LN12@CheckSync

; 144  : 		{
; 145  : 			if( CurrentTime < CheckTime )

  00480	8b 45 dc	 mov	 eax, DWORD PTR _CurrentTime$[ebp]
  00483	3b 45 e0	 cmp	 eax, DWORD PTR _CheckTime$[ebp]
  00486	73 15		 jae	 SHORT $LN11@CheckSync

; 146  : 			{
; 147  : 				WebzenVar2 = *it;

  00488	8d 4d f8	 lea	 ecx, DWORD PTR _it$[ebp]
  0048b	e8 00 00 00 00	 call	 ??D?$_List_iterator@V?$_List_val@UILLUSIONTEMPLE_START_TIME@@V?$allocator@UILLUSIONTEMPLE_START_TIME@@@std@@@std@@@std@@QBEAAUILLUSIONTEMPLE_START_TIME@@XZ ; std::_List_iterator<std::_List_val<ILLUSIONTEMPLE_START_TIME,std::allocator<ILLUSIONTEMPLE_START_TIME> > >::operator*
  00490	8b 08		 mov	 ecx, DWORD PTR [eax]
  00492	8b 50 04	 mov	 edx, DWORD PTR [eax+4]
  00495	89 4d e8	 mov	 DWORD PTR _WebzenVar2$[ebp], ecx
  00498	89 55 ec	 mov	 DWORD PTR _WebzenVar2$[ebp+4], edx

; 148  : 				break;

  0049b	eb 2e		 jmp	 SHORT $LN13@CheckSync
$LN11@CheckSync:

; 149  : 			}
; 150  : 			continue;

  0049d	eb 85		 jmp	 SHORT $LN14@CheckSync
$LN12@CheckSync:

; 151  : 		}
; 152  : 		
; 153  : 		if( CurrentTime >= BaseTime && CurrentTime < CheckTime )

  0049f	8b 45 dc	 mov	 eax, DWORD PTR _CurrentTime$[ebp]
  004a2	3b 45 e4	 cmp	 eax, DWORD PTR _BaseTime$[ebp]
  004a5	72 0c		 jb	 SHORT $LN10@CheckSync
  004a7	8b 45 dc	 mov	 eax, DWORD PTR _CurrentTime$[ebp]
  004aa	3b 45 e0	 cmp	 eax, DWORD PTR _CheckTime$[ebp]
  004ad	73 04		 jae	 SHORT $LN10@CheckSync

; 154  : 		{
; 155  : 			break;

  004af	eb 1a		 jmp	 SHORT $LN13@CheckSync

; 156  : 		}
; 157  : 		else

  004b1	eb 13		 jmp	 SHORT $LN9@CheckSync
$LN10@CheckSync:

; 158  : 		{
; 159  : 			WebzenVar1 = *it;

  004b3	8d 4d f8	 lea	 ecx, DWORD PTR _it$[ebp]
  004b6	e8 00 00 00 00	 call	 ??D?$_List_iterator@V?$_List_val@UILLUSIONTEMPLE_START_TIME@@V?$allocator@UILLUSIONTEMPLE_START_TIME@@@std@@@std@@@std@@QBEAAUILLUSIONTEMPLE_START_TIME@@XZ ; std::_List_iterator<std::_List_val<ILLUSIONTEMPLE_START_TIME,std::allocator<ILLUSIONTEMPLE_START_TIME> > >::operator*
  004bb	8b 08		 mov	 ecx, DWORD PTR [eax]
  004bd	8b 50 04	 mov	 edx, DWORD PTR [eax+4]
  004c0	89 4d f0	 mov	 DWORD PTR _WebzenVar1$[ebp], ecx
  004c3	89 55 f4	 mov	 DWORD PTR _WebzenVar1$[ebp+4], edx
$LN9@CheckSync:

; 160  : 		}
; 161  : 	}

  004c6	e9 59 ff ff ff	 jmp	 $LN14@CheckSync
$LN13@CheckSync:

; 162  : 
; 163  : 	for(loc12 = 2;loc12--;)

  004cb	c7 45 cc 02 00
	00 00		 mov	 DWORD PTR _loc12$[ebp], 2
$LN8@CheckSync:
  004d2	8b 45 cc	 mov	 eax, DWORD PTR _loc12$[ebp]
  004d5	8b 4d cc	 mov	 ecx, DWORD PTR _loc12$[ebp]
  004d8	83 e9 01	 sub	 ecx, 1
  004db	89 4d cc	 mov	 DWORD PTR _loc12$[ebp], ecx
  004de	85 c0		 test	 eax, eax
  004e0	0f 84 df 00 00
	00		 je	 $LN7@CheckSync

; 164  : 	{
; 165  : 		if(it == m_listIllusionTempleOpenTime.end())

  004e6	8d 85 78 ff ff
	ff		 lea	 eax, DWORD PTR $T235692[ebp]
  004ec	50		 push	 eax
  004ed	b9 00 00 00 00	 mov	 ecx, OFFSET ?m_listIllusionTempleOpenTime@@3V?$list@UILLUSIONTEMPLE_START_TIME@@V?$allocator@UILLUSIONTEMPLE_START_TIME@@@std@@@std@@A ; m_listIllusionTempleOpenTime
  004f2	e8 00 00 00 00	 call	 ?end@?$list@UILLUSIONTEMPLE_START_TIME@@V?$allocator@UILLUSIONTEMPLE_START_TIME@@@std@@@std@@QAE?AV?$_List_iterator@V?$_List_val@UILLUSIONTEMPLE_START_TIME@@V?$allocator@UILLUSIONTEMPLE_START_TIME@@@std@@@std@@@2@XZ ; std::list<ILLUSIONTEMPLE_START_TIME,std::allocator<ILLUSIONTEMPLE_START_TIME> >::end
  004f7	50		 push	 eax
  004f8	8d 4d f8	 lea	 ecx, DWORD PTR _it$[ebp]
  004fb	e8 00 00 00 00	 call	 ??8?$_List_const_iterator@V?$_List_val@UILLUSIONTEMPLE_START_TIME@@V?$allocator@UILLUSIONTEMPLE_START_TIME@@@std@@@std@@@std@@QBE_NABV01@@Z ; std::_List_const_iterator<std::_List_val<ILLUSIONTEMPLE_START_TIME,std::allocator<ILLUSIONTEMPLE_START_TIME> > >::operator==
  00500	0f b6 c8	 movzx	 ecx, al
  00503	85 c9		 test	 ecx, ecx
  00505	74 29		 je	 SHORT $LN6@CheckSync

; 166  : 		{
; 167  : 			it = m_listIllusionTempleOpenTime.begin();

  00507	8d 85 7c ff ff
	ff		 lea	 eax, DWORD PTR $T235693[ebp]
  0050d	50		 push	 eax
  0050e	b9 00 00 00 00	 mov	 ecx, OFFSET ?m_listIllusionTempleOpenTime@@3V?$list@UILLUSIONTEMPLE_START_TIME@@V?$allocator@UILLUSIONTEMPLE_START_TIME@@@std@@@std@@A ; m_listIllusionTempleOpenTime
  00513	e8 00 00 00 00	 call	 ?begin@?$list@UILLUSIONTEMPLE_START_TIME@@V?$allocator@UILLUSIONTEMPLE_START_TIME@@@std@@@std@@QAE?AV?$_List_iterator@V?$_List_val@UILLUSIONTEMPLE_START_TIME@@V?$allocator@UILLUSIONTEMPLE_START_TIME@@@std@@@std@@@2@XZ ; std::list<ILLUSIONTEMPLE_START_TIME,std::allocator<ILLUSIONTEMPLE_START_TIME> >::begin
  00518	8b 08		 mov	 ecx, DWORD PTR [eax]
  0051a	89 4d f8	 mov	 DWORD PTR _it$[ebp], ecx

; 168  : 
; 169  : 			WebzenVar2 = (*it);

  0051d	8d 4d f8	 lea	 ecx, DWORD PTR _it$[ebp]
  00520	e8 00 00 00 00	 call	 ??D?$_List_iterator@V?$_List_val@UILLUSIONTEMPLE_START_TIME@@V?$allocator@UILLUSIONTEMPLE_START_TIME@@@std@@@std@@@std@@QBEAAUILLUSIONTEMPLE_START_TIME@@XZ ; std::_List_iterator<std::_List_val<ILLUSIONTEMPLE_START_TIME,std::allocator<ILLUSIONTEMPLE_START_TIME> > >::operator*
  00525	8b 08		 mov	 ecx, DWORD PTR [eax]
  00527	8b 50 04	 mov	 edx, DWORD PTR [eax+4]
  0052a	89 4d e8	 mov	 DWORD PTR _WebzenVar2$[ebp], ecx
  0052d	89 55 ec	 mov	 DWORD PTR _WebzenVar2$[ebp+4], edx
$LN6@CheckSync:

; 170  : 		}
; 171  : 
; 172  : 		CheckTime = WebzenVar2.m_iHour*60+WebzenVar2.m_iMinute;

  00530	8b 45 e8	 mov	 eax, DWORD PTR _WebzenVar2$[ebp]
  00533	6b c0 3c	 imul	 eax, 60			; 0000003cH
  00536	03 45 ec	 add	 eax, DWORD PTR _WebzenVar2$[ebp+4]
  00539	89 45 e0	 mov	 DWORD PTR _CheckTime$[ebp], eax

; 173  : 
; 174  : 		if(today->tm_hour <= WebzenVar2.m_iHour)

  0053c	8b 45 d8	 mov	 eax, DWORD PTR _today$[ebp]
  0053f	8b 48 08	 mov	 ecx, DWORD PTR [eax+8]
  00542	3b 4d e8	 cmp	 ecx, DWORD PTR _WebzenVar2$[ebp]
  00545	7f 11		 jg	 SHORT $LN5@CheckSync

; 175  : 		{
; 176  : 			this->m_iLeftMinutesBeforeOpen = CheckTime - CurrentTime;

  00547	8b 45 e0	 mov	 eax, DWORD PTR _CheckTime$[ebp]
  0054a	2b 45 dc	 sub	 eax, DWORD PTR _CurrentTime$[ebp]
  0054d	8b 4d fc	 mov	 ecx, DWORD PTR _this$[ebp]
  00550	89 81 98 03 00
	00		 mov	 DWORD PTR [ecx+920], eax

; 177  : 		}
; 178  : 		else

  00556	eb 14		 jmp	 SHORT $LN4@CheckSync
$LN5@CheckSync:

; 179  : 		{
; 180  : 			this->m_iLeftMinutesBeforeOpen = 1440-CurrentTime+CheckTime;

  00558	b8 a0 05 00 00	 mov	 eax, 1440		; 000005a0H
  0055d	2b 45 dc	 sub	 eax, DWORD PTR _CurrentTime$[ebp]
  00560	03 45 e0	 add	 eax, DWORD PTR _CheckTime$[ebp]
  00563	8b 4d fc	 mov	 ecx, DWORD PTR _this$[ebp]
  00566	89 81 98 03 00
	00		 mov	 DWORD PTR [ecx+920], eax
$LN4@CheckSync:

; 181  : 		}
; 182  : 
; 183  : 		if(this->m_iLeftMinutesBeforeOpen <= m_i_IT_OpenTime)

  0056c	8b 45 fc	 mov	 eax, DWORD PTR _this$[ebp]
  0056f	8b 88 98 03 00
	00		 mov	 ecx, DWORD PTR [eax+920]
  00575	3b 0d 00 00 00
	00		 cmp	 ecx, DWORD PTR ?m_i_IT_OpenTime@@3HA ; m_i_IT_OpenTime
  0057b	7f 41		 jg	 SHORT $LN3@CheckSync

; 184  : 		{
; 185  : 			it++;

  0057d	6a 00		 push	 0
  0057f	8d 45 80	 lea	 eax, DWORD PTR $T235694[ebp]
  00582	50		 push	 eax
  00583	8d 4d f8	 lea	 ecx, DWORD PTR _it$[ebp]
  00586	e8 00 00 00 00	 call	 ??E?$_List_iterator@V?$_List_val@UILLUSIONTEMPLE_START_TIME@@V?$allocator@UILLUSIONTEMPLE_START_TIME@@@std@@@std@@@std@@QAE?AV01@H@Z ; std::_List_iterator<std::_List_val<ILLUSIONTEMPLE_START_TIME,std::allocator<ILLUSIONTEMPLE_START_TIME> > >::operator++

; 186  : 
; 187  : 			if(it != m_listIllusionTempleOpenTime.end())

  0058b	8d 45 84	 lea	 eax, DWORD PTR $T235695[ebp]
  0058e	50		 push	 eax
  0058f	b9 00 00 00 00	 mov	 ecx, OFFSET ?m_listIllusionTempleOpenTime@@3V?$list@UILLUSIONTEMPLE_START_TIME@@V?$allocator@UILLUSIONTEMPLE_START_TIME@@@std@@@std@@A ; m_listIllusionTempleOpenTime
  00594	e8 00 00 00 00	 call	 ?end@?$list@UILLUSIONTEMPLE_START_TIME@@V?$allocator@UILLUSIONTEMPLE_START_TIME@@@std@@@std@@QAE?AV?$_List_iterator@V?$_List_val@UILLUSIONTEMPLE_START_TIME@@V?$allocator@UILLUSIONTEMPLE_START_TIME@@@std@@@std@@@2@XZ ; std::list<ILLUSIONTEMPLE_START_TIME,std::allocator<ILLUSIONTEMPLE_START_TIME> >::end
  00599	50		 push	 eax
  0059a	8d 4d f8	 lea	 ecx, DWORD PTR _it$[ebp]
  0059d	e8 00 00 00 00	 call	 ??9?$_List_const_iterator@V?$_List_val@UILLUSIONTEMPLE_START_TIME@@V?$allocator@UILLUSIONTEMPLE_START_TIME@@@std@@@std@@@std@@QBE_NABV01@@Z ; std::_List_const_iterator<std::_List_val<ILLUSIONTEMPLE_START_TIME,std::allocator<ILLUSIONTEMPLE_START_TIME> > >::operator!=
  005a2	0f b6 c8	 movzx	 ecx, al
  005a5	85 c9		 test	 ecx, ecx
  005a7	74 13		 je	 SHORT $LN2@CheckSync

; 188  : 			{
; 189  : 				WebzenVar2 = (*it);

  005a9	8d 4d f8	 lea	 ecx, DWORD PTR _it$[ebp]
  005ac	e8 00 00 00 00	 call	 ??D?$_List_iterator@V?$_List_val@UILLUSIONTEMPLE_START_TIME@@V?$allocator@UILLUSIONTEMPLE_START_TIME@@@std@@@std@@@std@@QBEAAUILLUSIONTEMPLE_START_TIME@@XZ ; std::_List_iterator<std::_List_val<ILLUSIONTEMPLE_START_TIME,std::allocator<ILLUSIONTEMPLE_START_TIME> > >::operator*
  005b1	8b 08		 mov	 ecx, DWORD PTR [eax]
  005b3	8b 50 04	 mov	 edx, DWORD PTR [eax+4]
  005b6	89 4d e8	 mov	 DWORD PTR _WebzenVar2$[ebp], ecx
  005b9	89 55 ec	 mov	 DWORD PTR _WebzenVar2$[ebp+4], edx
$LN2@CheckSync:

; 190  : 			}
; 191  : 		}
; 192  : 		else

  005bc	eb 02		 jmp	 SHORT $LN1@CheckSync
$LN3@CheckSync:

; 193  : 		{
; 194  : 			break;

  005be	eb 05		 jmp	 SHORT $LN7@CheckSync
$LN1@CheckSync:

; 195  : 		}
; 196  : 	}

  005c0	e9 0d ff ff ff	 jmp	 $LN8@CheckSync
$LN7@CheckSync:

; 197  : 
; 198  : 	loc13 = GetTickCount();

  005c5	ff 15 00 00 00
	00		 call	 DWORD PTR __imp__GetTickCount@0
  005cb	89 45 c8	 mov	 DWORD PTR _loc13$[ebp], eax

; 199  : 	this->m_iOpenTickCount = loc13 + (60000 - (today->tm_sec * 1000));

  005ce	8b 45 d8	 mov	 eax, DWORD PTR _today$[ebp]
  005d1	8b 08		 mov	 ecx, DWORD PTR [eax]
  005d3	69 c9 e8 03 00
	00		 imul	 ecx, 1000		; 000003e8H
  005d9	ba 60 ea 00 00	 mov	 edx, 60000		; 0000ea60H
  005de	2b d1		 sub	 edx, ecx
  005e0	03 55 c8	 add	 edx, DWORD PTR _loc13$[ebp]
  005e3	8b 45 fc	 mov	 eax, DWORD PTR _this$[ebp]
  005e6	89 90 a4 03 00
	00		 mov	 DWORD PTR [eax+932], edx

; 200  : 
; 201  : 	LogAddTD("[Illusion Temple] (%d) Sync Open Time. [%d]min remain", this->m_btFloorIndex+1, this->m_iLeftMinutesBeforeOpen);

  005ec	8b 45 fc	 mov	 eax, DWORD PTR _this$[ebp]
  005ef	8b 88 98 03 00
	00		 mov	 ecx, DWORD PTR [eax+920]
  005f5	51		 push	 ecx
  005f6	8b 55 fc	 mov	 edx, DWORD PTR _this$[ebp]
  005f9	0f b6 82 2c 02
	00 00		 movzx	 eax, BYTE PTR [edx+556]
  00600	83 c0 01	 add	 eax, 1
  00603	50		 push	 eax
  00604	68 00 00 00 00	 push	 OFFSET ??_C@_0DG@NJOPLNIL@?$FLIllusion?5Temple?$FN?5?$CI?$CFd?$CJ?5Sync?5Open@
  00609	ff 15 00 00 00
	00		 call	 DWORD PTR ?LogAddTD@@3P6AXPADZZA ; LogAddTD
  0060f	83 c4 0c	 add	 esp, 12			; 0000000cH
$LN17@CheckSync:

; 202  : }

  00612	5f		 pop	 edi
  00613	5e		 pop	 esi
  00614	5b		 pop	 ebx
  00615	8b e5		 mov	 esp, ebp
  00617	5d		 pop	 ebp
  00618	c3		 ret	 0
?CheckSync@CIllusionTempleProcess@@QAEXXZ ENDP		; CIllusionTempleProcess::CheckSync
_TEXT	ENDS
EXTRN	__localtime64:PROC
; Function compile flags: /Odtp /ZI
; File d:\microsoft visual studio 10.0\vc\include\time.inl
_TEXT	SEGMENT
__Time$ = 8						; size = 4
_localtime PROC

; 113  : {

  00620	55		 push	 ebp
  00621	8b ec		 mov	 ebp, esp
  00623	83 ec 40	 sub	 esp, 64			; 00000040H
  00626	53		 push	 ebx
  00627	56		 push	 esi
  00628	57		 push	 edi

; 114  : #pragma warning( push )
; 115  : #pragma warning( disable : 4996 )
; 116  :     return _localtime64(_Time);

  00629	8b 45 08	 mov	 eax, DWORD PTR __Time$[ebp]
  0062c	50		 push	 eax
  0062d	e8 00 00 00 00	 call	 __localtime64
  00632	83 c4 04	 add	 esp, 4

; 117  : #pragma warning( pop )
; 118  : }

  00635	5f		 pop	 edi
  00636	5e		 pop	 esi
  00637	5b		 pop	 ebx
  00638	8b e5		 mov	 esp, ebp
  0063a	5d		 pop	 ebp
  0063b	c3		 ret	 0
_localtime ENDP
_TEXT	ENDS
EXTRN	__time64:PROC
; Function compile flags: /Odtp /ZI
_TEXT	SEGMENT
__Time$ = 8						; size = 4
_time	PROC

; 132  : {

  00640	55		 push	 ebp
  00641	8b ec		 mov	 ebp, esp
  00643	83 ec 40	 sub	 esp, 64			; 00000040H
  00646	53		 push	 ebx
  00647	56		 push	 esi
  00648	57		 push	 edi

; 133  :     return _time64(_Time);

  00649	8b 45 08	 mov	 eax, DWORD PTR __Time$[ebp]
  0064c	50		 push	 eax
  0064d	e8 00 00 00 00	 call	 __time64
  00652	83 c4 04	 add	 esp, 4

; 134  : }

  00655	5f		 pop	 edi
  00656	5e		 pop	 esi
  00657	5b		 pop	 ebx
  00658	8b e5		 mov	 esp, ebp
  0065a	5d		 pop	 ebp
  0065b	c3		 ret	 0
_time	ENDP
_TEXT	ENDS
PUBLIC	?ProcState_Playend@CIllusionTempleProcess@@QAEXH@Z ; CIllusionTempleProcess::ProcState_Playend
PUBLIC	?ProcState_Playing@CIllusionTempleProcess@@QAEXH@Z ; CIllusionTempleProcess::ProcState_Playing
PUBLIC	?ProcState_Waiting@CIllusionTempleProcess@@QAEXH@Z ; CIllusionTempleProcess::ProcState_Waiting
PUBLIC	?ProcState_Closed@CIllusionTempleProcess@@QAEXH@Z ; CIllusionTempleProcess::ProcState_Closed
PUBLIC	?Run@CIllusionTempleProcess@@QAEXH@Z		; CIllusionTempleProcess::Run
; Function compile flags: /Odtp /ZI
; File d:\projects\exteam6.3\source\gameserver\gameserver\illusiontempleprocess.cpp
_TEXT	SEGMENT
tv66 = -76						; size = 4
_State$ = -5						; size = 1
_this$ = -4						; size = 4
_iTick$ = 8						; size = 4
?Run@CIllusionTempleProcess@@QAEXH@Z PROC		; CIllusionTempleProcess::Run
; _this$ = ecx

; 205  : {

  00660	55		 push	 ebp
  00661	8b ec		 mov	 ebp, esp
  00663	83 ec 4c	 sub	 esp, 76			; 0000004cH
  00666	53		 push	 ebx
  00667	56		 push	 esi
  00668	57		 push	 edi
  00669	89 4d fc	 mov	 DWORD PTR _this$[ebp], ecx

; 206  : 	BYTE State = this->m_btState;

  0066c	8b 45 fc	 mov	 eax, DWORD PTR _this$[ebp]
  0066f	8a 88 2d 02 00
	00		 mov	 cl, BYTE PTR [eax+557]
  00675	88 4d fb	 mov	 BYTE PTR _State$[ebp], cl

; 207  : 
; 208  : 	switch ( State )

  00678	0f b6 45 fb	 movzx	 eax, BYTE PTR _State$[ebp]
  0067c	89 45 b4	 mov	 DWORD PTR tv66[ebp], eax
  0067f	83 7d b4 03	 cmp	 DWORD PTR tv66[ebp], 3
  00683	77 40		 ja	 SHORT $LN7@Run
  00685	8b 4d b4	 mov	 ecx, DWORD PTR tv66[ebp]
  00688	ff 24 8d 00 00
	00 00		 jmp	 DWORD PTR $LN9@Run[ecx*4]
$LN4@Run:

; 209  : 	{	
; 210  : 		case 0:	this->ProcState_Closed(iTick);		break;

  0068f	8b 45 08	 mov	 eax, DWORD PTR _iTick$[ebp]
  00692	50		 push	 eax
  00693	8b 4d fc	 mov	 ecx, DWORD PTR _this$[ebp]
  00696	e8 00 00 00 00	 call	 ?ProcState_Closed@CIllusionTempleProcess@@QAEXH@Z ; CIllusionTempleProcess::ProcState_Closed
  0069b	eb 28		 jmp	 SHORT $LN7@Run
$LN3@Run:

; 211  : 		case 1:	this->ProcState_Waiting(iTick);		break;

  0069d	8b 45 08	 mov	 eax, DWORD PTR _iTick$[ebp]
  006a0	50		 push	 eax
  006a1	8b 4d fc	 mov	 ecx, DWORD PTR _this$[ebp]
  006a4	e8 00 00 00 00	 call	 ?ProcState_Waiting@CIllusionTempleProcess@@QAEXH@Z ; CIllusionTempleProcess::ProcState_Waiting
  006a9	eb 1a		 jmp	 SHORT $LN7@Run
$LN2@Run:

; 212  : 		case 2:	this->ProcState_Playing(iTick);		break;

  006ab	8b 45 08	 mov	 eax, DWORD PTR _iTick$[ebp]
  006ae	50		 push	 eax
  006af	8b 4d fc	 mov	 ecx, DWORD PTR _this$[ebp]
  006b2	e8 00 00 00 00	 call	 ?ProcState_Playing@CIllusionTempleProcess@@QAEXH@Z ; CIllusionTempleProcess::ProcState_Playing
  006b7	eb 0c		 jmp	 SHORT $LN7@Run
$LN1@Run:

; 213  : 		case 3: this->ProcState_Playend(iTick);		break;

  006b9	8b 45 08	 mov	 eax, DWORD PTR _iTick$[ebp]
  006bc	50		 push	 eax
  006bd	8b 4d fc	 mov	 ecx, DWORD PTR _this$[ebp]
  006c0	e8 00 00 00 00	 call	 ?ProcState_Playend@CIllusionTempleProcess@@QAEXH@Z ; CIllusionTempleProcess::ProcState_Playend
$LN7@Run:

; 214  : 	}
; 215  : }

  006c5	5f		 pop	 edi
  006c6	5e		 pop	 esi
  006c7	5b		 pop	 ebx
  006c8	8b e5		 mov	 esp, ebp
  006ca	5d		 pop	 ebp
  006cb	c2 04 00	 ret	 4
  006ce	8b ff		 npad	 2
$LN9@Run:
  006d0	00 00 00 00	 DD	 $LN4@Run
  006d4	00 00 00 00	 DD	 $LN3@Run
  006d8	00 00 00 00	 DD	 $LN2@Run
  006dc	00 00 00 00	 DD	 $LN1@Run
?Run@CIllusionTempleProcess@@QAEXH@Z ENDP		; CIllusionTempleProcess::Run
_TEXT	ENDS
PUBLIC	??_C@_0FL@NAKEGMLC@?$FLIllusion?5Temple?$FN?5?$CI?$CFd?$CJ?5Illusion?5@ ; `string'
PUBLIC	??_C@_0FJ@NIONHBBL@?$FLIllusion?5Temple?$FN?5?$CI?$CFd?$CJ?5Allied?5Te@ ; `string'
PUBLIC	??_C@_0L@BPBFEMAA@?$CI?$CFs?$CJ?0?$CI?$CFs?$CJ?5?$AA@ ; `string'
PUBLIC	??_C@_0DD@OHOGJPCE@?$FLIllusion?5Temple?$FN?5?$CI?$CFd?$CJ?5Party?5Add@ ; `string'
PUBLIC	??_C@_0DG@NEAACFEP@?$FLIllusion?5Temple?$FN?5?$CI?$CFd?$CJ?5Party?5Cre@ ; `string'
PUBLIC	__real@0000000000000000
PUBLIC	??_C@_0CI@JGHENCNJ@?$FLIllusion?5Temple?$FN?5?$CI?$CFd?$CJ?5?$FLIllusion@ ; `string'
PUBLIC	??_C@_0CF@JIFCGMEK@?$FLIllusion?5Temple?$FN?5?$CI?$CFd?$CJ?5?$FLAlliedTe@ ; `string'
PUBLIC	?SetState@CIllusionTempleProcess@@QAEXE@Z	; CIllusionTempleProcess::SetState
PUBLIC	??_C@_0EH@FBNKCLFD@?$FLIllusion?5Temple?$FN?5?$CI?$CFd?$CJ?5Failed?5to@ ; `string'
PUBLIC	??_C@_0EI@LKEJODBE@?$FLIllusion?5Temple?$FN?5?$CI?$CFd?$CJ?5Payback?5t@ ; `string'
PUBLIC	??_C@_0EK@LHEOMBJM@?$FLIllusion?5Temple?$FN?5?$CI?$CFd?$CJ?5Payback?5t@ ; `string'
PUBLIC	__real@3ff0000000000000
PUBLIC	__real@3f800000
PUBLIC	?RemoveInvalid@CIllusionTempleProcess@@QAEXXZ	; CIllusionTempleProcess::RemoveInvalid
PUBLIC	?SendAllUserAnyMsg@CIllusionTempleProcess@@QAEXPAEH@Z ; CIllusionTempleProcess::SendAllUserAnyMsg
PUBLIC	__$ArrayPad$
EXTRN	?CGPartyListAll@@YAXH@Z:PROC			; CGPartyListAll
EXTRN	_strlen:PROC
EXTRN	?gObjViewportListProtocolCreate@@YAXPAUOBJECTSTRUCT@@@Z:PROC ; gObjViewportListProtocolCreate
EXTRN	?Add@PartyClass@@QAEHHHHH@Z:PROC		; PartyClass::Add
EXTRN	?Create@PartyClass@@QAEHHHH@Z:PROC		; PartyClass::Create
EXTRN	?gParty@@3VPartyClass@@A:BYTE			; gParty
EXTRN	_rand:PROC
EXTRN	?GCInventoryItemDeleteSend@@YAXHEE@Z:PROC	; GCInventoryItemDeleteSend
EXTRN	?gObjInventoryDeleteItem@@YAEHH@Z:PROC		; gObjInventoryDeleteItem
EXTRN	_sprintf:PROC
EXTRN	?gObjMoveGate@@YAHHH@Z:PROC			; gObjMoveGate
EXTRN	?GCItemDurSend@@YAXHEEE@Z:PROC			; GCItemDurSend
EXTRN	?ExConfig@@3VcExConfigs@@A:BYTE			; ExConfig
EXTRN	?DataSend@@YAHHPAEK@Z:PROC			; DataSend
EXTRN	?gObj@@3PAUOBJECTSTRUCT@@A:DWORD		; gObj
EXTRN	?PHeadSetB@@YAXPAEEH@Z:PROC			; PHeadSetB
EXTRN	?MakeNoticeMsgEx@TNotice@@SAXPAXEPADZZ:PROC	; TNotice::MakeNoticeMsgEx
EXTRN	?Get@CMsg@@QAEPADH@Z:PROC			; CMsg::Get
EXTRN	?lMsg@@3VCMsg@@A:BYTE				; lMsg
EXTRN	___security_cookie:DWORD
EXTRN	__fltused:DWORD
EXTRN	@__security_check_cookie@4:PROC
;	COMDAT ??_C@_0FL@NAKEGMLC@?$FLIllusion?5Temple?$FN?5?$CI?$CFd?$CJ?5Illusion?5@
CONST	SEGMENT
??_C@_0FL@NAKEGMLC@?$FLIllusion?5Temple?$FN?5?$CI?$CFd?$CJ?5Illusion?5@ DB '['
	DB	'Illusion Temple] (%d) Illusion Team ', 0b9H, 0fdH, 0bbH, 0e7H
	DB	'(%d),', 0b1H, 0e2H, 0bbH, 0e7H, '(%d), ', 0bfH, 0e4H, 0c1H, 0a4H
	DB	'(%d), ', 0b8H, 0b6H, 0b0H, 0cbH, 0bbH, 0e7H, '(%d), ', 0b4H, 0d9H
	DB	0c5H, 0a9H, 0b7H, 0ceH, 0b5H, 0e5H, '(%d)', 00H ; `string'
CONST	ENDS
;	COMDAT ??_C@_0FJ@NIONHBBL@?$FLIllusion?5Temple?$FN?5?$CI?$CFd?$CJ?5Allied?5Te@
CONST	SEGMENT
??_C@_0FJ@NIONHBBL@?$FLIllusion?5Temple?$FN?5?$CI?$CFd?$CJ?5Allied?5Te@ DB '['
	DB	'Illusion Temple] (%d) Allied Team ', 0b9H, 0fdH, 0bbH, 0e7H, '('
	DB	'%d),', 0b1H, 0e2H, 0bbH, 0e7H, '(%d), ', 0bfH, 0e4H, 0c1H, 0a4H
	DB	'(%d), ', 0b8H, 0b6H, 0b0H, 0cbH, 0bbH, 0e7H, '(%d), ', 0b4H, 0d9H
	DB	0c5H, 0a9H, 0b7H, 0ceH, 0b5H, 0e5H, '(%d)', 00H ; `string'
CONST	ENDS
;	COMDAT ??_C@_0L@BPBFEMAA@?$CI?$CFs?$CJ?0?$CI?$CFs?$CJ?5?$AA@
CONST	SEGMENT
??_C@_0L@BPBFEMAA@?$CI?$CFs?$CJ?0?$CI?$CFs?$CJ?5?$AA@ DB '(%s),(%s) ', 00H ; `string'
CONST	ENDS
;	COMDAT ??_C@_0DD@OHOGJPCE@?$FLIllusion?5Temple?$FN?5?$CI?$CFd?$CJ?5Party?5Add@
CONST	SEGMENT
??_C@_0DD@OHOGJPCE@?$FLIllusion?5Temple?$FN?5?$CI?$CFd?$CJ?5Party?5Add@ DB '['
	DB	'Illusion Temple] (%d) Party Add Error, (Team: %d)', 00H ; `string'
CONST	ENDS
;	COMDAT ??_C@_0DG@NEAACFEP@?$FLIllusion?5Temple?$FN?5?$CI?$CFd?$CJ?5Party?5Cre@
CONST	SEGMENT
??_C@_0DG@NEAACFEP@?$FLIllusion?5Temple?$FN?5?$CI?$CFd?$CJ?5Party?5Cre@ DB '['
	DB	'Illusion Temple] (%d) Party Create Error, (Team: %d)', 00H ; `string'
CONST	ENDS
;	COMDAT __real@0000000000000000
CONST	SEGMENT
__real@0000000000000000 DQ 00000000000000000r	; 0
CONST	ENDS
;	COMDAT ??_C@_0CI@JGHENCNJ@?$FLIllusion?5Temple?$FN?5?$CI?$CFd?$CJ?5?$FLIllusion@
CONST	SEGMENT
??_C@_0CI@JGHENCNJ@?$FLIllusion?5Temple?$FN?5?$CI?$CFd?$CJ?5?$FLIllusion@ DB '['
	DB	'Illusion Temple] (%d) [IllusiondTeam] ', 00H ; `string'
CONST	ENDS
;	COMDAT ??_C@_0CF@JIFCGMEK@?$FLIllusion?5Temple?$FN?5?$CI?$CFd?$CJ?5?$FLAlliedTe@
CONST	SEGMENT
??_C@_0CF@JIFCGMEK@?$FLIllusion?5Temple?$FN?5?$CI?$CFd?$CJ?5?$FLAlliedTe@ DB '['
	DB	'Illusion Temple] (%d) [AlliedTeam] ', 00H	; `string'
CONST	ENDS
;	COMDAT ??_C@_0EH@FBNKCLFD@?$FLIllusion?5Temple?$FN?5?$CI?$CFd?$CJ?5Failed?5to@
CONST	SEGMENT
??_C@_0EH@FBNKCLFD@?$FLIllusion?5Temple?$FN?5?$CI?$CFd?$CJ?5Failed?5to@ DB '['
	DB	'Illusion Temple] (%d) Failed to Start Illusion Temple (UserCo'
	DB	'unt: %d)', 00H				; `string'
CONST	ENDS
;	COMDAT ??_C@_0EI@LKEJODBE@?$FLIllusion?5Temple?$FN?5?$CI?$CFd?$CJ?5Payback?5t@
CONST	SEGMENT
??_C@_0EI@LKEJODBE@?$FLIllusion?5Temple?$FN?5?$CI?$CFd?$CJ?5Payback?5t@ DB '['
	DB	'Illusion Temple] (%d) Payback to User Failed (%s)(%s) Scroll '
	DB	'Not Found', 00H				; `string'
CONST	ENDS
;	COMDAT ??_C@_0EK@LHEOMBJM@?$FLIllusion?5Temple?$FN?5?$CI?$CFd?$CJ?5Payback?5t@
CONST	SEGMENT
??_C@_0EK@LHEOMBJM@?$FLIllusion?5Temple?$FN?5?$CI?$CFd?$CJ?5Payback?5t@ DB '['
	DB	'Illusion Temple] (%d) Payback to User (%s)(%s) ', 0c7H, 0c7H, 0c0H
	DB	0c7H, ' ', 0b5H, 0ceH, 0b7H, 0e7H, 0b8H, 0b6H, 0b8H, 0aeH, ' ('
	DB	'Serial:%u)', 00H				; `string'
CONST	ENDS
;	COMDAT __real@3ff0000000000000
CONST	SEGMENT
__real@3ff0000000000000 DQ 03ff0000000000000r	; 1
CONST	ENDS
;	COMDAT __real@3f800000
CONST	SEGMENT
__real@3f800000 DD 03f800000r			; 1
; Function compile flags: /Odtp /ZI
CONST	ENDS
_TEXT	SEGMENT
tv1171 = -1196						; size = 4
tv1134 = -1196						; size = 4
tv1169 = -1192						; size = 4
tv1132 = -1192						; size = 4
tv207 = -1192						; size = 4
tv188 = -1192						; size = 4
tv208 = -1188						; size = 4
tv189 = -1188						; size = 4
tv1166 = -1186						; size = 2
tv1129 = -1186						; size = 2
_loc279$234075 = -1120					; size = 4
_loc278$234072 = -1116					; size = 4
_loc277$234066 = -1112					; size = 4
_loc276$234062 = -1108					; size = 4
_loc275$234038 = -1104					; size = 4
_loc274$234031 = -1100					; size = 4
_szTemp1$234029 = -1096					; size = 256
_szTemp0$234027 = -840					; size = 256
_loc145$234026 = -584					; size = 4
_loc144$234025 = -580					; size = 4
_loc143$234024 = -576					; size = 4
_loc142$234011 = -572					; size = 4
_n$234005 = -568					; size = 4
_pNotice$234000 = -564					; size = 272
_i$233973 = -292					; size = 4
_pMsg$233971 = -288					; size = 4
_pNotice$233959 = -284					; size = 272
_loc2$ = -12						; size = 4
_this$ = -8						; size = 4
__$ArrayPad$ = -4					; size = 4
_iTick$ = 8						; size = 4
?ProcState_Closed@CIllusionTempleProcess@@QAEXH@Z PROC	; CIllusionTempleProcess::ProcState_Closed
; _this$ = ecx

; 218  : {

  006e0	55		 push	 ebp
  006e1	8b ec		 mov	 ebp, esp
  006e3	81 ec ac 04 00
	00		 sub	 esp, 1196		; 000004acH
  006e9	a1 00 00 00 00	 mov	 eax, DWORD PTR ___security_cookie
  006ee	33 c5		 xor	 eax, ebp
  006f0	89 45 fc	 mov	 DWORD PTR __$ArrayPad$[ebp], eax
  006f3	53		 push	 ebx
  006f4	56		 push	 esi
  006f5	57		 push	 edi
  006f6	89 4d f8	 mov	 DWORD PTR _this$[ebp], ecx

; 219  : 	int loc2 = iTick - this->m_iCloseTickCount;

  006f9	8b 45 f8	 mov	 eax, DWORD PTR _this$[ebp]
  006fc	8b 4d 08	 mov	 ecx, DWORD PTR _iTick$[ebp]
  006ff	2b 88 a0 03 00
	00		 sub	 ecx, DWORD PTR [eax+928]
  00705	89 4d f4	 mov	 DWORD PTR _loc2$[ebp], ecx

; 220  : 
; 221  : 	if(this->m_iOpenTickCount < iTick)

  00708	8b 45 f8	 mov	 eax, DWORD PTR _this$[ebp]
  0070b	8b 88 a4 03 00
	00		 mov	 ecx, DWORD PTR [eax+932]
  00711	3b 4d 08	 cmp	 ecx, DWORD PTR _iTick$[ebp]
  00714	0f 8d 93 00 00
	00		 jge	 $LN69@ProcState_

; 222  : 	{
; 223  : 		this->m_iLeftMinutesBeforeOpen--;

  0071a	8b 45 f8	 mov	 eax, DWORD PTR _this$[ebp]
  0071d	8b 88 98 03 00
	00		 mov	 ecx, DWORD PTR [eax+920]
  00723	83 e9 01	 sub	 ecx, 1
  00726	8b 55 f8	 mov	 edx, DWORD PTR _this$[ebp]
  00729	89 8a 98 03 00
	00		 mov	 DWORD PTR [edx+920], ecx

; 224  : 		this->m_iOpenTickCount = iTick + 60000;

  0072f	8b 45 08	 mov	 eax, DWORD PTR _iTick$[ebp]
  00732	05 60 ea 00 00	 add	 eax, 60000		; 0000ea60H
  00737	8b 4d f8	 mov	 ecx, DWORD PTR _this$[ebp]
  0073a	89 81 a4 03 00
	00		 mov	 DWORD PTR [ecx+932], eax

; 225  : 
; 226  : 		if(this->m_iLeftMinutesBeforeOpen <= m_i_IT_OpenTime)

  00740	8b 45 f8	 mov	 eax, DWORD PTR _this$[ebp]
  00743	8b 88 98 03 00
	00		 mov	 ecx, DWORD PTR [eax+920]
  00749	3b 0d 00 00 00
	00		 cmp	 ecx, DWORD PTR ?m_i_IT_OpenTime@@3HA ; m_i_IT_OpenTime
  0074f	7f 5c		 jg	 SHORT $LN69@ProcState_

; 227  : 		{
; 228  : 			if(this->m_iLeftMinutesBeforeOpen > 0)

  00751	8b 45 f8	 mov	 eax, DWORD PTR _this$[ebp]
  00754	83 b8 98 03 00
	00 00		 cmp	 DWORD PTR [eax+920], 0
  0075b	7e 50		 jle	 SHORT $LN69@ProcState_

; 229  : 			{
; 230  : 				if(this->m_btFloorIndex == 0)

  0075d	8b 45 f8	 mov	 eax, DWORD PTR _this$[ebp]
  00760	0f b6 88 2c 02
	00 00		 movzx	 ecx, BYTE PTR [eax+556]
  00767	85 c9		 test	 ecx, ecx
  00769	75 42		 jne	 SHORT $LN69@ProcState_

; 231  : 				{
; 232  : 					PMSG_NOTICE pNotice;
; 233  : 					TNotice::MakeNoticeMsgEx(&pNotice, 0, lMsg.Get(3394), this->m_iLeftMinutesBeforeOpen);

  0076b	8b 45 f8	 mov	 eax, DWORD PTR _this$[ebp]
  0076e	8b 88 98 03 00
	00		 mov	 ecx, DWORD PTR [eax+920]
  00774	51		 push	 ecx
  00775	68 42 0d 00 00	 push	 3394			; 00000d42H
  0077a	b9 00 00 00 00	 mov	 ecx, OFFSET ?lMsg@@3VCMsg@@A ; lMsg
  0077f	e8 00 00 00 00	 call	 ?Get@CMsg@@QAEPADH@Z	; CMsg::Get
  00784	50		 push	 eax
  00785	6a 00		 push	 0
  00787	8d 95 e4 fe ff
	ff		 lea	 edx, DWORD PTR _pNotice$233959[ebp]
  0078d	52		 push	 edx
  0078e	e8 00 00 00 00	 call	 ?MakeNoticeMsgEx@TNotice@@SAXPAXEPADZZ ; TNotice::MakeNoticeMsgEx
  00793	83 c4 10	 add	 esp, 16			; 00000010H

; 234  : 					this->SendAllUserAnyMsg((LPBYTE)&pNotice, pNotice.h.size);

  00796	0f b6 85 e5 fe
	ff ff		 movzx	 eax, BYTE PTR _pNotice$233959[ebp+1]
  0079d	50		 push	 eax
  0079e	8d 8d e4 fe ff
	ff		 lea	 ecx, DWORD PTR _pNotice$233959[ebp]
  007a4	51		 push	 ecx
  007a5	8b 4d f8	 mov	 ecx, DWORD PTR _this$[ebp]
  007a8	e8 00 00 00 00	 call	 ?SendAllUserAnyMsg@CIllusionTempleProcess@@QAEXPAEH@Z ; CIllusionTempleProcess::SendAllUserAnyMsg
$LN69@ProcState_:

; 235  : 				}
; 236  : 			}
; 237  : 		}
; 238  : 	}
; 239  : 
; 240  : 	if(loc2 >= 1000)

  007ad	81 7d f4 e8 03
	00 00		 cmp	 DWORD PTR _loc2$[ebp], 1000 ; 000003e8H
  007b4	0f 8c 31 03 00
	00		 jl	 $LN50@ProcState_

; 241  : 	{
; 242  : 		if(this->m_iEventBattleTimer > 0)

  007ba	8b 45 f8	 mov	 eax, DWORD PTR _this$[ebp]
  007bd	83 b8 9c 03 00
	00 00		 cmp	 DWORD PTR [eax+924], 0
  007c4	7e 15		 jle	 SHORT $LN67@ProcState_

; 243  : 		{
; 244  : 			this->m_iEventBattleTimer -= loc2;

  007c6	8b 45 f8	 mov	 eax, DWORD PTR _this$[ebp]
  007c9	8b 88 9c 03 00
	00		 mov	 ecx, DWORD PTR [eax+924]
  007cf	2b 4d f4	 sub	 ecx, DWORD PTR _loc2$[ebp]
  007d2	8b 55 f8	 mov	 edx, DWORD PTR _this$[ebp]
  007d5	89 8a 9c 03 00
	00		 mov	 DWORD PTR [edx+924], ecx
$LN67@ProcState_:

; 245  : 		}
; 246  : 
; 247  : 		this->m_iCloseTickCount = iTick;

  007db	8b 45 f8	 mov	 eax, DWORD PTR _this$[ebp]
  007de	8b 4d 08	 mov	 ecx, DWORD PTR _iTick$[ebp]
  007e1	89 88 a0 03 00
	00		 mov	 DWORD PTR [eax+928], ecx

; 248  : 
; 249  : 		if(this->m_iLeftMinutesBeforeOpen <= m_i_IT_OpenTime+1)

  007e7	a1 00 00 00 00	 mov	 eax, DWORD PTR ?m_i_IT_OpenTime@@3HA ; m_i_IT_OpenTime
  007ec	83 c0 01	 add	 eax, 1
  007ef	8b 4d f8	 mov	 ecx, DWORD PTR _this$[ebp]
  007f2	39 81 98 03 00
	00		 cmp	 DWORD PTR [ecx+920], eax
  007f8	7f 26		 jg	 SHORT $LN65@ProcState_

; 250  : 		{
; 251  : 			if(this->m_iEventBattleTimer == -1)

  007fa	8b 45 f8	 mov	 eax, DWORD PTR _this$[ebp]
  007fd	83 b8 9c 03 00
	00 ff		 cmp	 DWORD PTR [eax+924], -1
  00804	75 1a		 jne	 SHORT $LN65@ProcState_

; 252  : 			{
; 253  : 				this->m_iEventBattleTimer = 1000 * ( (m_i_IT_OpenTime+1) * 60);

  00806	a1 00 00 00 00	 mov	 eax, DWORD PTR ?m_i_IT_OpenTime@@3HA ; m_i_IT_OpenTime
  0080b	83 c0 01	 add	 eax, 1
  0080e	6b c0 3c	 imul	 eax, 60			; 0000003cH
  00811	69 c0 e8 03 00
	00		 imul	 eax, 1000		; 000003e8H
  00817	8b 4d f8	 mov	 ecx, DWORD PTR _this$[ebp]
  0081a	89 81 9c 03 00
	00		 mov	 DWORD PTR [ecx+924], eax
$LN65@ProcState_:

; 254  : 			}
; 255  : 		}
; 256  : 
; 257  : 		if(this->m_iLeftMinutesBeforeOpen <= m_i_IT_OpenTime)

  00820	8b 45 f8	 mov	 eax, DWORD PTR _this$[ebp]
  00823	8b 88 98 03 00
	00		 mov	 ecx, DWORD PTR [eax+920]
  00829	3b 0d 00 00 00
	00		 cmp	 ecx, DWORD PTR ?m_i_IT_OpenTime@@3HA ; m_i_IT_OpenTime
  0082f	7f 28		 jg	 SHORT $LN62@ProcState_

; 258  : 		{
; 259  : 			if(this->m_iEventBattleTimer > 5000)

  00831	8b 45 f8	 mov	 eax, DWORD PTR _this$[ebp]
  00834	81 b8 9c 03 00
	00 88 13 00 00	 cmp	 DWORD PTR [eax+924], 5000 ; 00001388H
  0083e	7e 19		 jle	 SHORT $LN62@ProcState_

; 260  : 			{
; 261  : 				if(this->m_bOpenStatus == FALSE)

  00840	8b 45 f8	 mov	 eax, DWORD PTR _this$[ebp]
  00843	83 b8 90 03 00
	00 00		 cmp	 DWORD PTR [eax+912], 0
  0084a	75 0d		 jne	 SHORT $LN62@ProcState_

; 262  : 				{
; 263  : 					this->m_bOpenStatus = TRUE;

  0084c	8b 45 f8	 mov	 eax, DWORD PTR _this$[ebp]
  0084f	c7 80 90 03 00
	00 01 00 00 00	 mov	 DWORD PTR [eax+912], 1
$LN62@ProcState_:

; 264  : 				}
; 265  : 			}
; 266  : 		}
; 267  : 
; 268  : 		if(this->m_iEventBattleTimer <= 30000 && this->m_iEventBattleTimer > 0)

  00859	8b 45 f8	 mov	 eax, DWORD PTR _this$[ebp]
  0085c	81 b8 9c 03 00
	00 30 75 00 00	 cmp	 DWORD PTR [eax+924], 30000 ; 00007530H
  00866	0f 8f 11 02 00
	00		 jg	 $LN56@ProcState_
  0086c	8b 45 f8	 mov	 eax, DWORD PTR _this$[ebp]
  0086f	83 b8 9c 03 00
	00 00		 cmp	 DWORD PTR [eax+924], 0
  00876	0f 8e 01 02 00
	00		 jle	 $LN56@ProcState_

; 269  : 		{
; 270  : 			if(this->m_btFloorIndex == 0)

  0087c	8b 45 f8	 mov	 eax, DWORD PTR _this$[ebp]
  0087f	0f b6 88 2c 02
	00 00		 movzx	 ecx, BYTE PTR [eax+556]
  00886	85 c9		 test	 ecx, ecx
  00888	0f 85 ef 01 00
	00		 jne	 $LN56@ProcState_

; 271  : 			{
; 272  : 				if(this->m_bMsgBeforeEnterTemple == FALSE)

  0088e	8b 45 f8	 mov	 eax, DWORD PTR _this$[ebp]
  00891	83 b8 b0 03 00
	00 00		 cmp	 DWORD PTR [eax+944], 0
  00898	0f 85 df 01 00
	00		 jne	 $LN56@ProcState_

; 273  : 				{
; 274  : 					this->m_bMsgBeforeEnterTemple = TRUE;

  0089e	8b 45 f8	 mov	 eax, DWORD PTR _this$[ebp]
  008a1	c7 80 b0 03 00
	00 01 00 00 00	 mov	 DWORD PTR [eax+944], 1

; 275  : 
; 276  : 					PMSG_SET_DEVILSQUARE pMsg;
; 277  : 
; 278  : 					PHeadSetB((LPBYTE)&pMsg, 0x92, sizeof(pMsg));

  008ab	6a 04		 push	 4
  008ad	68 92 00 00 00	 push	 146			; 00000092H
  008b2	8d 85 e0 fe ff
	ff		 lea	 eax, DWORD PTR _pMsg$233971[ebp]
  008b8	50		 push	 eax
  008b9	e8 00 00 00 00	 call	 ?PHeadSetB@@YAXPAEEH@Z	; PHeadSetB
  008be	83 c4 0c	 add	 esp, 12			; 0000000cH

; 279  : 					pMsg.Type = 14;

  008c1	c6 85 e3 fe ff
	ff 0e		 mov	 BYTE PTR _pMsg$233971[ebp+3], 14 ; 0000000eH

; 280  : 
; 281  : 					for (int i= OBJ_STARTUSERINDEX;i<OBJMAX;i++)

  008c8	c7 85 dc fe ff
	ff b0 36 00 00	 mov	 DWORD PTR _i$233973[ebp], 14000 ; 000036b0H
  008d2	eb 0f		 jmp	 SHORT $LN58@ProcState_
$LN57@ProcState_:
  008d4	8b 85 dc fe ff
	ff		 mov	 eax, DWORD PTR _i$233973[ebp]
  008da	83 c0 01	 add	 eax, 1
  008dd	89 85 dc fe ff
	ff		 mov	 DWORD PTR _i$233973[ebp], eax
$LN58@ProcState_:
  008e3	81 bd dc fe ff
	ff 98 3a 00 00	 cmp	 DWORD PTR _i$233973[ebp], 15000 ; 00003a98H
  008ed	0f 8d 8a 01 00
	00		 jge	 $LN56@ProcState_

; 282  : 					{
; 283  : 						if ( gObj[i].Connected == PLAYER_PLAYING && gObj[i].Type == OBJ_USER)

  008f3	8b 85 dc fe ff
	ff		 mov	 eax, DWORD PTR _i$233973[ebp]
  008f9	69 c0 38 2b 00
	00		 imul	 eax, 11064		; 00002b38H
  008ff	8b 0d 00 00 00
	00		 mov	 ecx, DWORD PTR ?gObj@@3PAUOBJECTSTRUCT@@A ; gObj
  00905	83 7c 01 04 03	 cmp	 DWORD PTR [ecx+eax+4], 3
  0090a	0f 85 68 01 00
	00		 jne	 $LN53@ProcState_
  00910	8b 85 dc fe ff
	ff		 mov	 eax, DWORD PTR _i$233973[ebp]
  00916	69 c0 38 2b 00
	00		 imul	 eax, 11064		; 00002b38H
  0091c	8b 0d 00 00 00
	00		 mov	 ecx, DWORD PTR ?gObj@@3PAUOBJECTSTRUCT@@A ; gObj
  00922	0f b7 54 01 68	 movzx	 edx, WORD PTR [ecx+eax+104]
  00927	83 fa 01	 cmp	 edx, 1
  0092a	0f 85 48 01 00
	00		 jne	 $LN53@ProcState_

; 284  : 						{
; 285  : 							if ( BC_MAP_RANGE(gObj[i].MapNumber) == FALSE )

  00930	8b 85 dc fe ff
	ff		 mov	 eax, DWORD PTR _i$233973[ebp]
  00936	69 c0 38 2b 00
	00		 imul	 eax, 11064		; 00002b38H
  0093c	8b 0d 00 00 00
	00		 mov	 ecx, DWORD PTR ?gObj@@3PAUOBJECTSTRUCT@@A ; gObj
  00942	0f b6 94 01 49
	01 00 00	 movzx	 edx, BYTE PTR [ecx+eax+329]
  0094a	83 fa 34	 cmp	 edx, 52			; 00000034H
  0094d	75 0c		 jne	 SHORT $LN77@ProcState_
  0094f	c7 85 5c fb ff
	ff 01 00 00 00	 mov	 DWORD PTR tv189[ebp], 1
  00959	eb 5f		 jmp	 SHORT $LN78@ProcState_
$LN77@ProcState_:
  0095b	8b 85 dc fe ff
	ff		 mov	 eax, DWORD PTR _i$233973[ebp]
  00961	69 c0 38 2b 00
	00		 imul	 eax, 11064		; 00002b38H
  00967	8b 0d 00 00 00
	00		 mov	 ecx, DWORD PTR ?gObj@@3PAUOBJECTSTRUCT@@A ; gObj
  0096d	0f b6 94 01 49
	01 00 00	 movzx	 edx, BYTE PTR [ecx+eax+329]
  00975	83 fa 0b	 cmp	 edx, 11			; 0000000bH
  00978	7d 0c		 jge	 SHORT $LN75@ProcState_
  0097a	c7 85 58 fb ff
	ff 00 00 00 00	 mov	 DWORD PTR tv188[ebp], 0
  00984	eb 28		 jmp	 SHORT $LN76@ProcState_
$LN75@ProcState_:
  00986	8b 85 dc fe ff
	ff		 mov	 eax, DWORD PTR _i$233973[ebp]
  0098c	69 c0 38 2b 00
	00		 imul	 eax, 11064		; 00002b38H
  00992	8b 0d 00 00 00
	00		 mov	 ecx, DWORD PTR ?gObj@@3PAUOBJECTSTRUCT@@A ; gObj
  00998	0f b6 94 01 49
	01 00 00	 movzx	 edx, BYTE PTR [ecx+eax+329]
  009a0	33 c0		 xor	 eax, eax
  009a2	83 fa 11	 cmp	 edx, 17			; 00000011H
  009a5	0f 9e c0	 setle	 al
  009a8	89 85 58 fb ff
	ff		 mov	 DWORD PTR tv188[ebp], eax
$LN76@ProcState_:
  009ae	8b 8d 58 fb ff
	ff		 mov	 ecx, DWORD PTR tv188[ebp]
  009b4	89 8d 5c fb ff
	ff		 mov	 DWORD PTR tv189[ebp], ecx
$LN78@ProcState_:
  009ba	83 bd 5c fb ff
	ff 00		 cmp	 DWORD PTR tv189[ebp], 0
  009c1	0f 85 b1 00 00
	00		 jne	 $LN53@ProcState_

; 286  : 							{
; 287  : 								if ( CC_MAP_RANGE(gObj[i].MapNumber) == FALSE )

  009c7	8b 85 dc fe ff
	ff		 mov	 eax, DWORD PTR _i$233973[ebp]
  009cd	69 c0 38 2b 00
	00		 imul	 eax, 11064		; 00002b38H
  009d3	8b 0d 00 00 00
	00		 mov	 ecx, DWORD PTR ?gObj@@3PAUOBJECTSTRUCT@@A ; gObj
  009d9	0f b6 94 01 49
	01 00 00	 movzx	 edx, BYTE PTR [ecx+eax+329]
  009e1	83 fa 35	 cmp	 edx, 53			; 00000035H
  009e4	75 0c		 jne	 SHORT $LN81@ProcState_
  009e6	c7 85 5c fb ff
	ff 01 00 00 00	 mov	 DWORD PTR tv208[ebp], 1
  009f0	eb 5f		 jmp	 SHORT $LN82@ProcState_
$LN81@ProcState_:
  009f2	8b 85 dc fe ff
	ff		 mov	 eax, DWORD PTR _i$233973[ebp]
  009f8	69 c0 38 2b 00
	00		 imul	 eax, 11064		; 00002b38H
  009fe	8b 0d 00 00 00
	00		 mov	 ecx, DWORD PTR ?gObj@@3PAUOBJECTSTRUCT@@A ; gObj
  00a04	0f b6 94 01 49
	01 00 00	 movzx	 edx, BYTE PTR [ecx+eax+329]
  00a0c	83 fa 12	 cmp	 edx, 18			; 00000012H
  00a0f	7d 0c		 jge	 SHORT $LN79@ProcState_
  00a11	c7 85 58 fb ff
	ff 00 00 00 00	 mov	 DWORD PTR tv207[ebp], 0
  00a1b	eb 28		 jmp	 SHORT $LN80@ProcState_
$LN79@ProcState_:
  00a1d	8b 85 dc fe ff
	ff		 mov	 eax, DWORD PTR _i$233973[ebp]
  00a23	69 c0 38 2b 00
	00		 imul	 eax, 11064		; 00002b38H
  00a29	8b 0d 00 00 00
	00		 mov	 ecx, DWORD PTR ?gObj@@3PAUOBJECTSTRUCT@@A ; gObj
  00a2f	0f b6 94 01 49
	01 00 00	 movzx	 edx, BYTE PTR [ecx+eax+329]
  00a37	33 c0		 xor	 eax, eax
  00a39	83 fa 17	 cmp	 edx, 23			; 00000017H
  00a3c	0f 9e c0	 setle	 al
  00a3f	89 85 58 fb ff
	ff		 mov	 DWORD PTR tv207[ebp], eax
$LN80@ProcState_:
  00a45	8b 8d 58 fb ff
	ff		 mov	 ecx, DWORD PTR tv207[ebp]
  00a4b	89 8d 5c fb ff
	ff		 mov	 DWORD PTR tv208[ebp], ecx
$LN82@ProcState_:
  00a51	83 bd 5c fb ff
	ff 00		 cmp	 DWORD PTR tv208[ebp], 0
  00a58	75 1e		 jne	 SHORT $LN53@ProcState_

; 288  : 								{
; 289  : 									DataSend(i, (LPBYTE)&pMsg, pMsg.h.size);

  00a5a	0f b6 85 e1 fe
	ff ff		 movzx	 eax, BYTE PTR _pMsg$233971[ebp+1]
  00a61	50		 push	 eax
  00a62	8d 8d e0 fe ff
	ff		 lea	 ecx, DWORD PTR _pMsg$233971[ebp]
  00a68	51		 push	 ecx
  00a69	8b 95 dc fe ff
	ff		 mov	 edx, DWORD PTR _i$233973[ebp]
  00a6f	52		 push	 edx
  00a70	e8 00 00 00 00	 call	 ?DataSend@@YAHHPAEK@Z	; DataSend
  00a75	83 c4 0c	 add	 esp, 12			; 0000000cH
$LN53@ProcState_:

; 290  : 								}
; 291  : 							}
; 292  : 						}
; 293  : 					}

  00a78	e9 57 fe ff ff	 jmp	 $LN57@ProcState_
$LN56@ProcState_:

; 294  : 				}
; 295  : 			}
; 296  : 		}
; 297  : 
; 298  : 		if(this->m_iEventBattleTimer <= 5000)

  00a7d	8b 45 f8	 mov	 eax, DWORD PTR _this$[ebp]
  00a80	81 b8 9c 03 00
	00 88 13 00 00	 cmp	 DWORD PTR [eax+924], 5000 ; 00001388H
  00a8a	7f 5f		 jg	 SHORT $LN50@ProcState_

; 299  : 		{
; 300  : 			if(this->m_bOpenStatus == TRUE)

  00a8c	8b 45 f8	 mov	 eax, DWORD PTR _this$[ebp]
  00a8f	83 b8 90 03 00
	00 01		 cmp	 DWORD PTR [eax+912], 1
  00a96	75 53		 jne	 SHORT $LN50@ProcState_

; 301  : 			{
; 302  : 				this->m_bOpenStatus = FALSE;

  00a98	8b 45 f8	 mov	 eax, DWORD PTR _this$[ebp]
  00a9b	c7 80 90 03 00
	00 00 00 00 00	 mov	 DWORD PTR [eax+912], 0

; 303  : 
; 304  : 				if(this->m_btFloorIndex == 0)

  00aa5	8b 45 f8	 mov	 eax, DWORD PTR _this$[ebp]
  00aa8	0f b6 88 2c 02
	00 00		 movzx	 ecx, BYTE PTR [eax+556]
  00aaf	85 c9		 test	 ecx, ecx
  00ab1	75 38		 jne	 SHORT $LN50@ProcState_

; 305  : 				{
; 306  : 					PMSG_NOTICE pNotice;
; 307  : 					TNotice::MakeNoticeMsgEx(&pNotice, 0, lMsg.Get(3395));

  00ab3	68 43 0d 00 00	 push	 3395			; 00000d43H
  00ab8	b9 00 00 00 00	 mov	 ecx, OFFSET ?lMsg@@3VCMsg@@A ; lMsg
  00abd	e8 00 00 00 00	 call	 ?Get@CMsg@@QAEPADH@Z	; CMsg::Get
  00ac2	50		 push	 eax
  00ac3	6a 00		 push	 0
  00ac5	8d 85 cc fd ff
	ff		 lea	 eax, DWORD PTR _pNotice$234000[ebp]
  00acb	50		 push	 eax
  00acc	e8 00 00 00 00	 call	 ?MakeNoticeMsgEx@TNotice@@SAXPAXEPADZZ ; TNotice::MakeNoticeMsgEx
  00ad1	83 c4 0c	 add	 esp, 12			; 0000000cH

; 308  : 					this->SendAllUserAnyMsg((LPBYTE)&pNotice, pNotice.h.size);

  00ad4	0f b6 85 cd fd
	ff ff		 movzx	 eax, BYTE PTR _pNotice$234000[ebp+1]
  00adb	50		 push	 eax
  00adc	8d 8d cc fd ff
	ff		 lea	 ecx, DWORD PTR _pNotice$234000[ebp]
  00ae2	51		 push	 ecx
  00ae3	8b 4d f8	 mov	 ecx, DWORD PTR _this$[ebp]
  00ae6	e8 00 00 00 00	 call	 ?SendAllUserAnyMsg@CIllusionTempleProcess@@QAEXPAEH@Z ; CIllusionTempleProcess::SendAllUserAnyMsg
$LN50@ProcState_:

; 309  : 				}
; 310  : 			}
; 311  : 		}
; 312  : 	}
; 313  : 
; 314  : 
; 315  : 	if(this->m_iLeftMinutesBeforeOpen <= 0)

  00aeb	8b 45 f8	 mov	 eax, DWORD PTR _this$[ebp]
  00aee	83 b8 98 03 00
	00 00		 cmp	 DWORD PTR [eax+920], 0
  00af5	0f 8f a9 10 00
	00		 jg	 $LN48@ProcState_

; 316  : 	{
; 317  : 		if(this->m_iEventBattleTimer <= 0)

  00afb	8b 45 f8	 mov	 eax, DWORD PTR _this$[ebp]
  00afe	83 b8 9c 03 00
	00 00		 cmp	 DWORD PTR [eax+924], 0
  00b05	0f 8f 99 10 00
	00		 jg	 $LN48@ProcState_

; 318  : 		{
; 319  : 			this->m_bOpenStatus = FALSE;

  00b0b	8b 45 f8	 mov	 eax, DWORD PTR _this$[ebp]
  00b0e	c7 80 90 03 00
	00 00 00 00 00	 mov	 DWORD PTR [eax+912], 0

; 320  : 
; 321  : 			this->RemoveInvalid();

  00b18	8b 4d f8	 mov	 ecx, DWORD PTR _this$[ebp]
  00b1b	e8 00 00 00 00	 call	 ?RemoveInvalid@CIllusionTempleProcess@@QAEXXZ ; CIllusionTempleProcess::RemoveInvalid

; 322  : 
; 323  : 			//int Ex_IllusionTemplPlaerMin = GetPrivateProfileInt("IllusionTemple","ItMinPlayers",4,"..\\Data\\ExData\\Events.ini");
; 324  : 
; 325  : 			if(this->m_iEnteredUserCount < ExConfig.Event.Ex_IllusionTemplPlaerMin) //UserCount

  00b20	8b 45 f8	 mov	 eax, DWORD PTR _this$[ebp]
  00b23	8b 88 28 02 00
	00		 mov	 ecx, DWORD PTR [eax+552]
  00b29	3b 0d a4 06 00
	00		 cmp	 ecx, DWORD PTR ?ExConfig@@3VcExConfigs@@A+1700
  00b2f	0f 8d 5a 04 00
	00		 jge	 $LN47@ProcState_

; 326  : 			{
; 327  : 				for( int n = 0; n < MAX_FLOOR_USER; n++ )

  00b35	c7 85 c8 fd ff
	ff 00 00 00 00	 mov	 DWORD PTR _n$234005[ebp], 0
  00b3f	eb 0f		 jmp	 SHORT $LN46@ProcState_
$LN45@ProcState_:
  00b41	8b 85 c8 fd ff
	ff		 mov	 eax, DWORD PTR _n$234005[ebp]
  00b47	83 c0 01	 add	 eax, 1
  00b4a	89 85 c8 fd ff
	ff		 mov	 DWORD PTR _n$234005[ebp], eax
$LN46@ProcState_:
  00b50	83 bd c8 fd ff
	ff 0a		 cmp	 DWORD PTR _n$234005[ebp], 10 ; 0000000aH
  00b57	0f 8d fd 03 00
	00		 jge	 $LN44@ProcState_

; 328  : 				{
; 329  : 					if( this->m_FloorData[n].m_iTeamPlayerIndex != OBJ_EMPTY && gObj[this->m_FloorData[n].m_iTeamPlayerIndex].Connected > PLAYER_LOGGED)

  00b5d	8b 85 c8 fd ff
	ff		 mov	 eax, DWORD PTR _n$234005[ebp]
  00b63	6b c0 30	 imul	 eax, 48			; 00000030H
  00b66	8b 4d f8	 mov	 ecx, DWORD PTR _this$[ebp]
  00b69	83 7c 01 20 ff	 cmp	 DWORD PTR [ecx+eax+32], -1
  00b6e	0f 84 e1 03 00
	00		 je	 $LN42@ProcState_
  00b74	8b 85 c8 fd ff
	ff		 mov	 eax, DWORD PTR _n$234005[ebp]
  00b7a	6b c0 30	 imul	 eax, 48			; 00000030H
  00b7d	8b 4d f8	 mov	 ecx, DWORD PTR _this$[ebp]
  00b80	8b 54 01 20	 mov	 edx, DWORD PTR [ecx+eax+32]
  00b84	69 d2 38 2b 00
	00		 imul	 edx, 11064		; 00002b38H
  00b8a	a1 00 00 00 00	 mov	 eax, DWORD PTR ?gObj@@3PAUOBJECTSTRUCT@@A ; gObj
  00b8f	83 7c 10 04 02	 cmp	 DWORD PTR [eax+edx+4], 2
  00b94	0f 8e bb 03 00
	00		 jle	 $LN42@ProcState_

; 330  : 					{
; 331  : 						if( gObj[this->m_FloorData[n].m_iTeamPlayerIndex].MapNumber == (this->m_btFloorIndex + MAP_INDEX_ILLUSIONTEMPLE) )

  00b9a	8b 85 c8 fd ff
	ff		 mov	 eax, DWORD PTR _n$234005[ebp]
  00ba0	6b c0 30	 imul	 eax, 48			; 00000030H
  00ba3	8b 4d f8	 mov	 ecx, DWORD PTR _this$[ebp]
  00ba6	8b 54 01 20	 mov	 edx, DWORD PTR [ecx+eax+32]
  00baa	69 d2 38 2b 00
	00		 imul	 edx, 11064		; 00002b38H
  00bb0	a1 00 00 00 00	 mov	 eax, DWORD PTR ?gObj@@3PAUOBJECTSTRUCT@@A ; gObj
  00bb5	0f b6 8c 10 49
	01 00 00	 movzx	 ecx, BYTE PTR [eax+edx+329]
  00bbd	8b 55 f8	 mov	 edx, DWORD PTR _this$[ebp]
  00bc0	0f b6 82 2c 02
	00 00		 movzx	 eax, BYTE PTR [edx+556]
  00bc7	83 c0 2d	 add	 eax, 45			; 0000002dH
  00bca	3b c8		 cmp	 ecx, eax
  00bcc	0f 85 83 03 00
	00		 jne	 $LN42@ProcState_

; 332  : 						{
; 333  : 							int loc142 = this->m_FloorData[n].m_btPosNDur;

  00bd2	8b 85 c8 fd ff
	ff		 mov	 eax, DWORD PTR _n$234005[ebp]
  00bd8	6b c0 30	 imul	 eax, 48			; 00000030H
  00bdb	8b 4d f8	 mov	 ecx, DWORD PTR _this$[ebp]
  00bde	0f b6 54 01 48	 movzx	 edx, BYTE PTR [ecx+eax+72]
  00be3	89 95 c4 fd ff
	ff		 mov	 DWORD PTR _loc142$234011[ebp], edx

; 334  : 
; 335  : 							if(loc142 > -1)

  00be9	83 bd c4 fd ff
	ff ff		 cmp	 DWORD PTR _loc142$234011[ebp], -1
  00bf0	0f 8e e4 02 00
	00		 jle	 $LN41@ProcState_

; 336  : 							{
; 337  : 								if(gObj[this->m_FloorData[n].m_iTeamPlayerIndex].pInventory[loc142].m_Type == ITEMGET(13,51))

  00bf6	8b 85 c8 fd ff
	ff		 mov	 eax, DWORD PTR _n$234005[ebp]
  00bfc	6b c0 30	 imul	 eax, 48			; 00000030H
  00bff	8b 4d f8	 mov	 ecx, DWORD PTR _this$[ebp]
  00c02	8b 54 01 20	 mov	 edx, DWORD PTR [ecx+eax+32]
  00c06	69 d2 38 2b 00
	00		 imul	 edx, 11064		; 00002b38H
  00c0c	8b 85 c4 fd ff
	ff		 mov	 eax, DWORD PTR _loc142$234011[ebp]
  00c12	69 c0 d4 00 00
	00		 imul	 eax, 212		; 000000d4H
  00c18	8b 0d 00 00 00
	00		 mov	 ecx, DWORD PTR ?gObj@@3PAUOBJECTSTRUCT@@A ; gObj
  00c1e	8b 94 11 24 0e
	00 00		 mov	 edx, DWORD PTR [ecx+edx+3620]
  00c25	0f bf 44 02 06	 movsx	 eax, WORD PTR [edx+eax+6]
  00c2a	3d 33 1a 00 00	 cmp	 eax, 6707		; 00001a33H
  00c2f	0f 85 d1 00 00
	00		 jne	 $LN40@ProcState_

; 338  : 								{
; 339  : 									gObj[this->m_FloorData[n].m_iTeamPlayerIndex].pInventory[loc142].m_Durability = 1.0f;

  00c35	8b 85 c8 fd ff
	ff		 mov	 eax, DWORD PTR _n$234005[ebp]
  00c3b	6b c0 30	 imul	 eax, 48			; 00000030H
  00c3e	8b 4d f8	 mov	 ecx, DWORD PTR _this$[ebp]
  00c41	8b 54 01 20	 mov	 edx, DWORD PTR [ecx+eax+32]
  00c45	69 d2 38 2b 00
	00		 imul	 edx, 11064		; 00002b38H
  00c4b	8b 85 c4 fd ff
	ff		 mov	 eax, DWORD PTR _loc142$234011[ebp]
  00c51	69 c0 d4 00 00
	00		 imul	 eax, 212		; 000000d4H
  00c57	8b 0d 00 00 00
	00		 mov	 ecx, DWORD PTR ?gObj@@3PAUOBJECTSTRUCT@@A ; gObj
  00c5d	8b 94 11 24 0e
	00 00		 mov	 edx, DWORD PTR [ecx+edx+3620]
  00c64	d9 e8		 fld1
  00c66	d9 5c 02 24	 fstp	 DWORD PTR [edx+eax+36]

; 340  : 									GCItemDurSend(gObj[this->m_FloorData[n].m_iTeamPlayerIndex].m_Index, (BYTE)loc142,  (BYTE)gObj[this->m_FloorData[n].m_iTeamPlayerIndex].pInventory[loc142].m_Durability, 0);

  00c6a	6a 00		 push	 0
  00c6c	8b 85 c8 fd ff
	ff		 mov	 eax, DWORD PTR _n$234005[ebp]
  00c72	6b c0 30	 imul	 eax, 48			; 00000030H
  00c75	8b 4d f8	 mov	 ecx, DWORD PTR _this$[ebp]
  00c78	8b 54 01 20	 mov	 edx, DWORD PTR [ecx+eax+32]
  00c7c	69 d2 38 2b 00
	00		 imul	 edx, 11064		; 00002b38H
  00c82	8b 85 c4 fd ff
	ff		 mov	 eax, DWORD PTR _loc142$234011[ebp]
  00c88	69 c0 d4 00 00
	00		 imul	 eax, 212		; 000000d4H
  00c8e	8b 0d 00 00 00
	00		 mov	 ecx, DWORD PTR ?gObj@@3PAUOBJECTSTRUCT@@A ; gObj
  00c94	8b 94 11 24 0e
	00 00		 mov	 edx, DWORD PTR [ecx+edx+3620]
  00c9b	d9 44 02 24	 fld	 DWORD PTR [edx+eax+36]
  00c9f	d9 bd 5e fb ff
	ff		 fnstcw	 WORD PTR tv1129[ebp]
  00ca5	0f b7 85 5e fb
	ff ff		 movzx	 eax, WORD PTR tv1129[ebp]
  00cac	0d 00 0c 00 00	 or	 eax, 3072		; 00000c00H
  00cb1	89 85 58 fb ff
	ff		 mov	 DWORD PTR tv1132[ebp], eax
  00cb7	d9 ad 58 fb ff
	ff		 fldcw	 WORD PTR tv1132[ebp]
  00cbd	db 9d 54 fb ff
	ff		 fistp	 DWORD PTR tv1134[ebp]
  00cc3	d9 ad 5e fb ff
	ff		 fldcw	 WORD PTR tv1129[ebp]
  00cc9	0f b6 85 54 fb
	ff ff		 movzx	 eax, BYTE PTR tv1134[ebp]
  00cd0	50		 push	 eax
  00cd1	0f b6 8d c4 fd
	ff ff		 movzx	 ecx, BYTE PTR _loc142$234011[ebp]
  00cd8	51		 push	 ecx
  00cd9	8b 95 c8 fd ff
	ff		 mov	 edx, DWORD PTR _n$234005[ebp]
  00cdf	6b d2 30	 imul	 edx, 48			; 00000030H
  00ce2	8b 45 f8	 mov	 eax, DWORD PTR _this$[ebp]
  00ce5	8b 4c 10 20	 mov	 ecx, DWORD PTR [eax+edx+32]
  00ce9	69 c9 38 2b 00
	00		 imul	 ecx, 11064		; 00002b38H
  00cef	8b 15 00 00 00
	00		 mov	 edx, DWORD PTR ?gObj@@3PAUOBJECTSTRUCT@@A ; gObj
  00cf5	8b 04 0a	 mov	 eax, DWORD PTR [edx+ecx]
  00cf8	50		 push	 eax
  00cf9	e8 00 00 00 00	 call	 ?GCItemDurSend@@YAXHEEE@Z ; GCItemDurSend
  00cfe	83 c4 10	 add	 esp, 16			; 00000010H
  00d01	e9 42 01 00 00	 jmp	 $LN38@ProcState_
$LN40@ProcState_:

; 341  : 								}
; 342  : 								else if(gObj[this->m_FloorData[n].m_iTeamPlayerIndex].pInventory[loc142].m_Type == ITEMGET(13,61))

  00d06	8b 85 c8 fd ff
	ff		 mov	 eax, DWORD PTR _n$234005[ebp]
  00d0c	6b c0 30	 imul	 eax, 48			; 00000030H
  00d0f	8b 4d f8	 mov	 ecx, DWORD PTR _this$[ebp]
  00d12	8b 54 01 20	 mov	 edx, DWORD PTR [ecx+eax+32]
  00d16	69 d2 38 2b 00
	00		 imul	 edx, 11064		; 00002b38H
  00d1c	8b 85 c4 fd ff
	ff		 mov	 eax, DWORD PTR _loc142$234011[ebp]
  00d22	69 c0 d4 00 00
	00		 imul	 eax, 212		; 000000d4H
  00d28	8b 0d 00 00 00
	00		 mov	 ecx, DWORD PTR ?gObj@@3PAUOBJECTSTRUCT@@A ; gObj
  00d2e	8b 94 11 24 0e
	00 00		 mov	 edx, DWORD PTR [ecx+edx+3620]
  00d35	0f bf 44 02 06	 movsx	 eax, WORD PTR [edx+eax+6]
  00d3a	3d 3d 1a 00 00	 cmp	 eax, 6717		; 00001a3dH
  00d3f	0f 85 03 01 00
	00		 jne	 $LN38@ProcState_

; 343  : 								{
; 344  : 									gObj[this->m_FloorData[n].m_iTeamPlayerIndex].pInventory[loc142].m_Durability += 1.0f;

  00d45	8b 85 c8 fd ff
	ff		 mov	 eax, DWORD PTR _n$234005[ebp]
  00d4b	6b c0 30	 imul	 eax, 48			; 00000030H
  00d4e	8b 4d f8	 mov	 ecx, DWORD PTR _this$[ebp]
  00d51	8b 54 01 20	 mov	 edx, DWORD PTR [ecx+eax+32]
  00d55	69 d2 38 2b 00
	00		 imul	 edx, 11064		; 00002b38H
  00d5b	8b 85 c4 fd ff
	ff		 mov	 eax, DWORD PTR _loc142$234011[ebp]
  00d61	69 c0 d4 00 00
	00		 imul	 eax, 212		; 000000d4H
  00d67	8b 0d 00 00 00
	00		 mov	 ecx, DWORD PTR ?gObj@@3PAUOBJECTSTRUCT@@A ; gObj
  00d6d	8b 94 11 24 0e
	00 00		 mov	 edx, DWORD PTR [ecx+edx+3620]
  00d74	d9 44 02 24	 fld	 DWORD PTR [edx+eax+36]
  00d78	dc 05 00 00 00
	00		 fadd	 QWORD PTR __real@3ff0000000000000
  00d7e	8b 85 c8 fd ff
	ff		 mov	 eax, DWORD PTR _n$234005[ebp]
  00d84	6b c0 30	 imul	 eax, 48			; 00000030H
  00d87	8b 4d f8	 mov	 ecx, DWORD PTR _this$[ebp]
  00d8a	8b 54 01 20	 mov	 edx, DWORD PTR [ecx+eax+32]
  00d8e	69 d2 38 2b 00
	00		 imul	 edx, 11064		; 00002b38H
  00d94	8b 85 c4 fd ff
	ff		 mov	 eax, DWORD PTR _loc142$234011[ebp]
  00d9a	69 c0 d4 00 00
	00		 imul	 eax, 212		; 000000d4H
  00da0	8b 0d 00 00 00
	00		 mov	 ecx, DWORD PTR ?gObj@@3PAUOBJECTSTRUCT@@A ; gObj
  00da6	8b 94 11 24 0e
	00 00		 mov	 edx, DWORD PTR [ecx+edx+3620]
  00dad	d9 5c 02 24	 fstp	 DWORD PTR [edx+eax+36]

; 345  : 									GCItemDurSend(gObj[this->m_FloorData[n].m_iTeamPlayerIndex].m_Index, (BYTE)loc142,  (BYTE)gObj[this->m_FloorData[n].m_iTeamPlayerIndex].pInventory[loc142].m_Durability, 0);

  00db1	6a 00		 push	 0
  00db3	8b 85 c8 fd ff
	ff		 mov	 eax, DWORD PTR _n$234005[ebp]
  00db9	6b c0 30	 imul	 eax, 48			; 00000030H
  00dbc	8b 4d f8	 mov	 ecx, DWORD PTR _this$[ebp]
  00dbf	8b 54 01 20	 mov	 edx, DWORD PTR [ecx+eax+32]
  00dc3	69 d2 38 2b 00
	00		 imul	 edx, 11064		; 00002b38H
  00dc9	8b 85 c4 fd ff
	ff		 mov	 eax, DWORD PTR _loc142$234011[ebp]
  00dcf	69 c0 d4 00 00
	00		 imul	 eax, 212		; 000000d4H
  00dd5	8b 0d 00 00 00
	00		 mov	 ecx, DWORD PTR ?gObj@@3PAUOBJECTSTRUCT@@A ; gObj
  00ddb	8b 94 11 24 0e
	00 00		 mov	 edx, DWORD PTR [ecx+edx+3620]
  00de2	d9 44 02 24	 fld	 DWORD PTR [edx+eax+36]
  00de6	d9 bd 5e fb ff
	ff		 fnstcw	 WORD PTR tv1166[ebp]
  00dec	0f b7 85 5e fb
	ff ff		 movzx	 eax, WORD PTR tv1166[ebp]
  00df3	0d 00 0c 00 00	 or	 eax, 3072		; 00000c00H
  00df8	89 85 58 fb ff
	ff		 mov	 DWORD PTR tv1169[ebp], eax
  00dfe	d9 ad 58 fb ff
	ff		 fldcw	 WORD PTR tv1169[ebp]
  00e04	db 9d 54 fb ff
	ff		 fistp	 DWORD PTR tv1171[ebp]
  00e0a	d9 ad 5e fb ff
	ff		 fldcw	 WORD PTR tv1166[ebp]
  00e10	0f b6 85 54 fb
	ff ff		 movzx	 eax, BYTE PTR tv1171[ebp]
  00e17	50		 push	 eax
  00e18	0f b6 8d c4 fd
	ff ff		 movzx	 ecx, BYTE PTR _loc142$234011[ebp]
  00e1f	51		 push	 ecx
  00e20	8b 95 c8 fd ff
	ff		 mov	 edx, DWORD PTR _n$234005[ebp]
  00e26	6b d2 30	 imul	 edx, 48			; 00000030H
  00e29	8b 45 f8	 mov	 eax, DWORD PTR _this$[ebp]
  00e2c	8b 4c 10 20	 mov	 ecx, DWORD PTR [eax+edx+32]
  00e30	69 c9 38 2b 00
	00		 imul	 ecx, 11064		; 00002b38H
  00e36	8b 15 00 00 00
	00		 mov	 edx, DWORD PTR ?gObj@@3PAUOBJECTSTRUCT@@A ; gObj
  00e3c	8b 04 0a	 mov	 eax, DWORD PTR [edx+ecx]
  00e3f	50		 push	 eax
  00e40	e8 00 00 00 00	 call	 ?GCItemDurSend@@YAXHEEE@Z ; GCItemDurSend
  00e45	83 c4 10	 add	 esp, 16			; 00000010H
$LN38@ProcState_:

; 346  : 								}
; 347  : 
; 348  : 								LogAddTD("[Illusion Temple] (%d) Payback to User (%s)(%s)   (Serial:%u)", this->m_btFloorIndex+1, gObj[this->m_FloorData[n].m_iTeamPlayerIndex].AccountID, gObj[this->m_FloorData[n].m_iTeamPlayerIndex].Name, gObj[this->m_FloorData[n].m_iTeamPlayerIndex].pInventory[loc142].m_Number);

  00e48	8b 85 c8 fd ff
	ff		 mov	 eax, DWORD PTR _n$234005[ebp]
  00e4e	6b c0 30	 imul	 eax, 48			; 00000030H
  00e51	8b 4d f8	 mov	 ecx, DWORD PTR _this$[ebp]
  00e54	8b 54 01 20	 mov	 edx, DWORD PTR [ecx+eax+32]
  00e58	69 d2 38 2b 00
	00		 imul	 edx, 11064		; 00002b38H
  00e5e	8b 85 c4 fd ff
	ff		 mov	 eax, DWORD PTR _loc142$234011[ebp]
  00e64	69 c0 d4 00 00
	00		 imul	 eax, 212		; 000000d4H
  00e6a	8b 0d 00 00 00
	00		 mov	 ecx, DWORD PTR ?gObj@@3PAUOBJECTSTRUCT@@A ; gObj
  00e70	8b 94 11 24 0e
	00 00		 mov	 edx, DWORD PTR [ecx+edx+3620]
  00e77	8b 04 02	 mov	 eax, DWORD PTR [edx+eax]
  00e7a	50		 push	 eax
  00e7b	8b 8d c8 fd ff
	ff		 mov	 ecx, DWORD PTR _n$234005[ebp]
  00e81	6b c9 30	 imul	 ecx, 48			; 00000030H
  00e84	8b 55 f8	 mov	 edx, DWORD PTR _this$[ebp]
  00e87	8b 44 0a 20	 mov	 eax, DWORD PTR [edx+ecx+32]
  00e8b	69 c0 38 2b 00
	00		 imul	 eax, 11064		; 00002b38H
  00e91	8b 0d 00 00 00
	00		 mov	 ecx, DWORD PTR ?gObj@@3PAUOBJECTSTRUCT@@A ; gObj
  00e97	8d 54 01 77	 lea	 edx, DWORD PTR [ecx+eax+119]
  00e9b	52		 push	 edx
  00e9c	8b 85 c8 fd ff
	ff		 mov	 eax, DWORD PTR _n$234005[ebp]
  00ea2	6b c0 30	 imul	 eax, 48			; 00000030H
  00ea5	8b 4d f8	 mov	 ecx, DWORD PTR _this$[ebp]
  00ea8	8b 54 01 20	 mov	 edx, DWORD PTR [ecx+eax+32]
  00eac	69 d2 38 2b 00
	00		 imul	 edx, 11064		; 00002b38H
  00eb2	a1 00 00 00 00	 mov	 eax, DWORD PTR ?gObj@@3PAUOBJECTSTRUCT@@A ; gObj
  00eb7	8d 4c 10 6c	 lea	 ecx, DWORD PTR [eax+edx+108]
  00ebb	51		 push	 ecx
  00ebc	8b 55 f8	 mov	 edx, DWORD PTR _this$[ebp]
  00ebf	0f b6 82 2c 02
	00 00		 movzx	 eax, BYTE PTR [edx+556]
  00ec6	83 c0 01	 add	 eax, 1
  00ec9	50		 push	 eax
  00eca	68 00 00 00 00	 push	 OFFSET ??_C@_0EK@LHEOMBJM@?$FLIllusion?5Temple?$FN?5?$CI?$CFd?$CJ?5Payback?5t@
  00ecf	ff 15 00 00 00
	00		 call	 DWORD PTR ?LogAddTD@@3P6AXPADZZA ; LogAddTD
  00ed5	83 c4 14	 add	 esp, 20			; 00000014H

; 349  : 							}
; 350  : 							else

  00ed8	eb 5d		 jmp	 SHORT $LN37@ProcState_
$LN41@ProcState_:

; 351  : 							{
; 352  : 								LogAddTD("[Illusion Temple] (%d) Payback to User Failed (%s)(%s) Scroll Not Found", this->m_btFloorIndex+1, gObj[this->m_FloorData[n].m_iTeamPlayerIndex].AccountID, gObj[this->m_FloorData[n].m_iTeamPlayerIndex].Name);

  00eda	8b 85 c8 fd ff
	ff		 mov	 eax, DWORD PTR _n$234005[ebp]
  00ee0	6b c0 30	 imul	 eax, 48			; 00000030H
  00ee3	8b 4d f8	 mov	 ecx, DWORD PTR _this$[ebp]
  00ee6	8b 54 01 20	 mov	 edx, DWORD PTR [ecx+eax+32]
  00eea	69 d2 38 2b 00
	00		 imul	 edx, 11064		; 00002b38H
  00ef0	a1 00 00 00 00	 mov	 eax, DWORD PTR ?gObj@@3PAUOBJECTSTRUCT@@A ; gObj
  00ef5	8d 4c 10 77	 lea	 ecx, DWORD PTR [eax+edx+119]
  00ef9	51		 push	 ecx
  00efa	8b 95 c8 fd ff
	ff		 mov	 edx, DWORD PTR _n$234005[ebp]
  00f00	6b d2 30	 imul	 edx, 48			; 00000030H
  00f03	8b 45 f8	 mov	 eax, DWORD PTR _this$[ebp]
  00f06	8b 4c 10 20	 mov	 ecx, DWORD PTR [eax+edx+32]
  00f0a	69 c9 38 2b 00
	00		 imul	 ecx, 11064		; 00002b38H
  00f10	8b 15 00 00 00
	00		 mov	 edx, DWORD PTR ?gObj@@3PAUOBJECTSTRUCT@@A ; gObj
  00f16	8d 44 0a 6c	 lea	 eax, DWORD PTR [edx+ecx+108]
  00f1a	50		 push	 eax
  00f1b	8b 4d f8	 mov	 ecx, DWORD PTR _this$[ebp]
  00f1e	0f b6 91 2c 02
	00 00		 movzx	 edx, BYTE PTR [ecx+556]
  00f25	83 c2 01	 add	 edx, 1
  00f28	52		 push	 edx
  00f29	68 00 00 00 00	 push	 OFFSET ??_C@_0EI@LKEJODBE@?$FLIllusion?5Temple?$FN?5?$CI?$CFd?$CJ?5Payback?5t@
  00f2e	ff 15 00 00 00
	00		 call	 DWORD PTR ?LogAddTD@@3P6AXPADZZA ; LogAddTD
  00f34	83 c4 10	 add	 esp, 16			; 00000010H
$LN37@ProcState_:

; 353  : 							}
; 354  : 							gObjMoveGate(this->m_FloorData[n].m_iTeamPlayerIndex, 267); //Elbeland

  00f37	68 0b 01 00 00	 push	 267			; 0000010bH
  00f3c	8b 85 c8 fd ff
	ff		 mov	 eax, DWORD PTR _n$234005[ebp]
  00f42	6b c0 30	 imul	 eax, 48			; 00000030H
  00f45	8b 4d f8	 mov	 ecx, DWORD PTR _this$[ebp]
  00f48	8b 54 01 20	 mov	 edx, DWORD PTR [ecx+eax+32]
  00f4c	52		 push	 edx
  00f4d	e8 00 00 00 00	 call	 ?gObjMoveGate@@YAHHH@Z	; gObjMoveGate
  00f52	83 c4 08	 add	 esp, 8
$LN42@ProcState_:

; 355  : 						}
; 356  : 					}
; 357  : 				}

  00f55	e9 e7 fb ff ff	 jmp	 $LN45@ProcState_
$LN44@ProcState_:

; 358  : 
; 359  : 				LogAddTD("[Illusion Temple] (%d) Failed to Start Illusion Temple (UserCount: %d)", this->m_btFloorIndex+1, this->m_iEnteredUserCount);

  00f5a	8b 45 f8	 mov	 eax, DWORD PTR _this$[ebp]
  00f5d	8b 88 28 02 00
	00		 mov	 ecx, DWORD PTR [eax+552]
  00f63	51		 push	 ecx
  00f64	8b 55 f8	 mov	 edx, DWORD PTR _this$[ebp]
  00f67	0f b6 82 2c 02
	00 00		 movzx	 eax, BYTE PTR [edx+556]
  00f6e	83 c0 01	 add	 eax, 1
  00f71	50		 push	 eax
  00f72	68 00 00 00 00	 push	 OFFSET ??_C@_0EH@FBNKCLFD@?$FLIllusion?5Temple?$FN?5?$CI?$CFd?$CJ?5Failed?5to@
  00f77	ff 15 00 00 00
	00		 call	 DWORD PTR ?LogAddTD@@3P6AXPADZZA ; LogAddTD
  00f7d	83 c4 0c	 add	 esp, 12			; 0000000cH

; 360  : 				this->SetState(3);

  00f80	6a 03		 push	 3
  00f82	8b 4d f8	 mov	 ecx, DWORD PTR _this$[ebp]
  00f85	e8 00 00 00 00	 call	 ?SetState@CIllusionTempleProcess@@QAEXE@Z ; CIllusionTempleProcess::SetState

; 361  : 				return;

  00f8a	e9 15 0c 00 00	 jmp	 $LN73@ProcState_
$LN47@ProcState_:

; 362  : 			}
; 363  : 			
; 364  : 			int loc143 = 0;

  00f8f	c7 85 c0 fd ff
	ff 00 00 00 00	 mov	 DWORD PTR _loc143$234024[ebp], 0

; 365  : 			int loc144 = -1;

  00f99	c7 85 bc fd ff
	ff ff ff ff ff	 mov	 DWORD PTR _loc144$234025[ebp], -1

; 366  : 			int loc145 = -1;

  00fa3	c7 85 b8 fd ff
	ff ff ff ff ff	 mov	 DWORD PTR _loc145$234026[ebp], -1

; 367  : 
; 368  : 			char szTemp0[256];
; 369  : 			sprintf(szTemp0,"[Illusion Temple] (%d) [AlliedTeam] ", this->m_btFloorIndex+1);

  00fad	8b 45 f8	 mov	 eax, DWORD PTR _this$[ebp]
  00fb0	0f b6 88 2c 02
	00 00		 movzx	 ecx, BYTE PTR [eax+556]
  00fb7	83 c1 01	 add	 ecx, 1
  00fba	51		 push	 ecx
  00fbb	68 00 00 00 00	 push	 OFFSET ??_C@_0CF@JIFCGMEK@?$FLIllusion?5Temple?$FN?5?$CI?$CFd?$CJ?5?$FLAlliedTe@
  00fc0	8d 95 b8 fc ff
	ff		 lea	 edx, DWORD PTR _szTemp0$234027[ebp]
  00fc6	52		 push	 edx
  00fc7	e8 00 00 00 00	 call	 _sprintf
  00fcc	83 c4 0c	 add	 esp, 12			; 0000000cH

; 370  : 
; 371  : 			char szTemp1[256];
; 372  : 			sprintf(szTemp1,"[Illusion Temple] (%d) [IllusiondTeam] ", this->m_btFloorIndex+1);

  00fcf	8b 45 f8	 mov	 eax, DWORD PTR _this$[ebp]
  00fd2	0f b6 88 2c 02
	00 00		 movzx	 ecx, BYTE PTR [eax+556]
  00fd9	83 c1 01	 add	 ecx, 1
  00fdc	51		 push	 ecx
  00fdd	68 00 00 00 00	 push	 OFFSET ??_C@_0CI@JGHENCNJ@?$FLIllusion?5Temple?$FN?5?$CI?$CFd?$CJ?5?$FLIllusion@
  00fe2	8d 95 b8 fb ff
	ff		 lea	 edx, DWORD PTR _szTemp1$234029[ebp]
  00fe8	52		 push	 edx
  00fe9	e8 00 00 00 00	 call	 _sprintf
  00fee	83 c4 0c	 add	 esp, 12			; 0000000cH

; 373  : 
; 374  : 			for( int loc274 = 0; loc274 < MAX_FLOOR_USER; loc274++)

  00ff1	c7 85 b4 fb ff
	ff 00 00 00 00	 mov	 DWORD PTR _loc274$234031[ebp], 0
  00ffb	eb 0f		 jmp	 SHORT $LN36@ProcState_
$LN35@ProcState_:
  00ffd	8b 85 b4 fb ff
	ff		 mov	 eax, DWORD PTR _loc274$234031[ebp]
  01003	83 c0 01	 add	 eax, 1
  01006	89 85 b4 fb ff
	ff		 mov	 DWORD PTR _loc274$234031[ebp], eax
$LN36@ProcState_:
  0100c	83 bd b4 fb ff
	ff 0a		 cmp	 DWORD PTR _loc274$234031[ebp], 10 ; 0000000aH
  01013	0f 8d 9d 0a 00
	00		 jge	 $LN34@ProcState_

; 375  : 			{
; 376  : 				if( this->m_FloorData[loc274].m_iTeamPlayerIndex != OBJ_EMPTY && gObj[this->m_FloorData[loc274].m_iTeamPlayerIndex].m_iIllusionTempleIndex == loc274)

  01019	8b 85 b4 fb ff
	ff		 mov	 eax, DWORD PTR _loc274$234031[ebp]
  0101f	6b c0 30	 imul	 eax, 48			; 00000030H
  01022	8b 4d f8	 mov	 ecx, DWORD PTR _this$[ebp]
  01025	83 7c 01 20 ff	 cmp	 DWORD PTR [ecx+eax+32], -1
  0102a	0f 84 81 0a 00
	00		 je	 $LN6@ProcState_
  01030	8b 85 b4 fb ff
	ff		 mov	 eax, DWORD PTR _loc274$234031[ebp]
  01036	6b c0 30	 imul	 eax, 48			; 00000030H
  01039	8b 4d f8	 mov	 ecx, DWORD PTR _this$[ebp]
  0103c	8b 54 01 20	 mov	 edx, DWORD PTR [ecx+eax+32]
  01040	69 d2 38 2b 00
	00		 imul	 edx, 11064		; 00002b38H
  01046	a1 00 00 00 00	 mov	 eax, DWORD PTR ?gObj@@3PAUOBJECTSTRUCT@@A ; gObj
  0104b	8b 8c 10 78 20
	00 00		 mov	 ecx, DWORD PTR [eax+edx+8312]
  01052	3b 8d b4 fb ff
	ff		 cmp	 ecx, DWORD PTR _loc274$234031[ebp]
  01058	0f 85 53 0a 00
	00		 jne	 $LN6@ProcState_

; 377  : 				{
; 378  : 					if( gObj[this->m_FloorData[loc274].m_iTeamPlayerIndex].Class >= MAX_TYPE_PLAYER || gObj[this->m_FloorData[loc274].m_iTeamPlayerIndex].Class < 0)

  0105e	8b 85 b4 fb ff
	ff		 mov	 eax, DWORD PTR _loc274$234031[ebp]
  01064	6b c0 30	 imul	 eax, 48			; 00000030H
  01067	8b 4d f8	 mov	 ecx, DWORD PTR _this$[ebp]
  0106a	8b 54 01 20	 mov	 edx, DWORD PTR [ecx+eax+32]
  0106e	69 d2 38 2b 00
	00		 imul	 edx, 11064		; 00002b38H
  01074	a1 00 00 00 00	 mov	 eax, DWORD PTR ?gObj@@3PAUOBJECTSTRUCT@@A ; gObj
  01079	0f b7 8c 10 b8
	00 00 00	 movzx	 ecx, WORD PTR [eax+edx+184]
  01081	83 f9 07	 cmp	 ecx, 7
  01084	7d 27		 jge	 SHORT $LN31@ProcState_
  01086	8b 85 b4 fb ff
	ff		 mov	 eax, DWORD PTR _loc274$234031[ebp]
  0108c	6b c0 30	 imul	 eax, 48			; 00000030H
  0108f	8b 4d f8	 mov	 ecx, DWORD PTR _this$[ebp]
  01092	8b 54 01 20	 mov	 edx, DWORD PTR [ecx+eax+32]
  01096	69 d2 38 2b 00
	00		 imul	 edx, 11064		; 00002b38H
  0109c	a1 00 00 00 00	 mov	 eax, DWORD PTR ?gObj@@3PAUOBJECTSTRUCT@@A ; gObj
  010a1	0f b7 8c 10 b8
	00 00 00	 movzx	 ecx, WORD PTR [eax+edx+184]
  010a9	85 c9		 test	 ecx, ecx
  010ab	7d 05		 jge	 SHORT $LN32@ProcState_
$LN31@ProcState_:

; 379  : 					{
; 380  : 						continue;

  010ad	e9 4b ff ff ff	 jmp	 $LN35@ProcState_
$LN32@ProcState_:

; 381  : 					}
; 382  : 
; 383  : 					int loc275 = this->m_FloorData[loc274].m_btPosNDur; //season 3.0 changed

  010b2	8b 85 b4 fb ff
	ff		 mov	 eax, DWORD PTR _loc274$234031[ebp]
  010b8	6b c0 30	 imul	 eax, 48			; 00000030H
  010bb	8b 4d f8	 mov	 ecx, DWORD PTR _this$[ebp]
  010be	0f b6 54 01 48	 movzx	 edx, BYTE PTR [ecx+eax+72]
  010c3	89 95 b0 fb ff
	ff		 mov	 DWORD PTR _loc275$234038[ebp], edx

; 384  : 
; 385  : 					if(loc275 > -1)

  010c9	83 bd b0 fb ff
	ff ff		 cmp	 DWORD PTR _loc275$234038[ebp], -1
  010d0	0f 8e 89 01 00
	00		 jle	 $LN25@ProcState_

; 386  : 					{
; 387  : 						if(gObj[this->m_FloorData[loc274].m_iTeamPlayerIndex].pInventory[loc275].m_Durability <= 0.0f) //season 3.0 add-on

  010d6	8b 85 b4 fb ff
	ff		 mov	 eax, DWORD PTR _loc274$234031[ebp]
  010dc	6b c0 30	 imul	 eax, 48			; 00000030H
  010df	8b 4d f8	 mov	 ecx, DWORD PTR _this$[ebp]
  010e2	8b 54 01 20	 mov	 edx, DWORD PTR [ecx+eax+32]
  010e6	69 d2 38 2b 00
	00		 imul	 edx, 11064		; 00002b38H
  010ec	8b 85 b0 fb ff
	ff		 mov	 eax, DWORD PTR _loc275$234038[ebp]
  010f2	69 c0 d4 00 00
	00		 imul	 eax, 212		; 000000d4H
  010f8	8b 0d 00 00 00
	00		 mov	 ecx, DWORD PTR ?gObj@@3PAUOBJECTSTRUCT@@A ; gObj
  010fe	8b 94 11 24 0e
	00 00		 mov	 edx, DWORD PTR [ecx+edx+3620]
  01105	d9 44 02 24	 fld	 DWORD PTR [edx+eax+36]
  01109	dc 1d 00 00 00
	00		 fcomp	 QWORD PTR __real@0000000000000000
  0110f	df e0		 fnstsw	 ax
  01111	f6 c4 41	 test	 ah, 65			; 00000041H
  01114	0f 8a 45 01 00
	00		 jp	 $LN25@ProcState_

; 388  : 						{
; 389  : 							if(gObj[this->m_FloorData[loc274].m_iTeamPlayerIndex].pInventory[loc275].m_Type == ITEMGET(13,51))

  0111a	8b 85 b4 fb ff
	ff		 mov	 eax, DWORD PTR _loc274$234031[ebp]
  01120	6b c0 30	 imul	 eax, 48			; 00000030H
  01123	8b 4d f8	 mov	 ecx, DWORD PTR _this$[ebp]
  01126	8b 54 01 20	 mov	 edx, DWORD PTR [ecx+eax+32]
  0112a	69 d2 38 2b 00
	00		 imul	 edx, 11064		; 00002b38H
  01130	8b 85 b0 fb ff
	ff		 mov	 eax, DWORD PTR _loc275$234038[ebp]
  01136	69 c0 d4 00 00
	00		 imul	 eax, 212		; 000000d4H
  0113c	8b 0d 00 00 00
	00		 mov	 ecx, DWORD PTR ?gObj@@3PAUOBJECTSTRUCT@@A ; gObj
  01142	8b 94 11 24 0e
	00 00		 mov	 edx, DWORD PTR [ecx+edx+3620]
  01149	0f bf 44 02 06	 movsx	 eax, WORD PTR [edx+eax+6]
  0114e	3d 33 1a 00 00	 cmp	 eax, 6707		; 00001a33H
  01153	75 48		 jne	 SHORT $LN28@ProcState_

; 390  : 							{
; 391  : 								gObjInventoryDeleteItem(this->m_FloorData[loc274].m_iTeamPlayerIndex, loc275);

  01155	8b 85 b0 fb ff
	ff		 mov	 eax, DWORD PTR _loc275$234038[ebp]
  0115b	50		 push	 eax
  0115c	8b 8d b4 fb ff
	ff		 mov	 ecx, DWORD PTR _loc274$234031[ebp]
  01162	6b c9 30	 imul	 ecx, 48			; 00000030H
  01165	8b 55 f8	 mov	 edx, DWORD PTR _this$[ebp]
  01168	8b 44 0a 20	 mov	 eax, DWORD PTR [edx+ecx+32]
  0116c	50		 push	 eax
  0116d	e8 00 00 00 00	 call	 ?gObjInventoryDeleteItem@@YAEHH@Z ; gObjInventoryDeleteItem
  01172	83 c4 08	 add	 esp, 8

; 392  : 								GCInventoryItemDeleteSend(this->m_FloorData[loc274].m_iTeamPlayerIndex, loc275, 0);

  01175	6a 00		 push	 0
  01177	0f b6 85 b0 fb
	ff ff		 movzx	 eax, BYTE PTR _loc275$234038[ebp]
  0117e	50		 push	 eax
  0117f	8b 8d b4 fb ff
	ff		 mov	 ecx, DWORD PTR _loc274$234031[ebp]
  01185	6b c9 30	 imul	 ecx, 48			; 00000030H
  01188	8b 55 f8	 mov	 edx, DWORD PTR _this$[ebp]
  0118b	8b 44 0a 20	 mov	 eax, DWORD PTR [edx+ecx+32]
  0118f	50		 push	 eax
  01190	e8 00 00 00 00	 call	 ?GCInventoryItemDeleteSend@@YAXHEE@Z ; GCInventoryItemDeleteSend
  01195	83 c4 0c	 add	 esp, 12			; 0000000cH
  01198	e9 c2 00 00 00	 jmp	 $LN25@ProcState_
$LN28@ProcState_:

; 393  : 							}
; 394  : 							else if(gObj[this->m_FloorData[loc274].m_iTeamPlayerIndex].pInventory[loc275].m_Type == ITEMGET(13,61))

  0119d	8b 85 b4 fb ff
	ff		 mov	 eax, DWORD PTR _loc274$234031[ebp]
  011a3	6b c0 30	 imul	 eax, 48			; 00000030H
  011a6	8b 4d f8	 mov	 ecx, DWORD PTR _this$[ebp]
  011a9	8b 54 01 20	 mov	 edx, DWORD PTR [ecx+eax+32]
  011ad	69 d2 38 2b 00
	00		 imul	 edx, 11064		; 00002b38H
  011b3	8b 85 b0 fb ff
	ff		 mov	 eax, DWORD PTR _loc275$234038[ebp]
  011b9	69 c0 d4 00 00
	00		 imul	 eax, 212		; 000000d4H
  011bf	8b 0d 00 00 00
	00		 mov	 ecx, DWORD PTR ?gObj@@3PAUOBJECTSTRUCT@@A ; gObj
  011c5	8b 94 11 24 0e
	00 00		 mov	 edx, DWORD PTR [ecx+edx+3620]
  011cc	0f bf 44 02 06	 movsx	 eax, WORD PTR [edx+eax+6]
  011d1	3d 3d 1a 00 00	 cmp	 eax, 6717		; 00001a3dH
  011d6	0f 85 83 00 00
	00		 jne	 $LN25@ProcState_

; 395  : 							{
; 396  : 								if(gObj[this->m_FloorData[loc274].m_iTeamPlayerIndex].pInventory[loc275].m_Durability <= 0.0f)

  011dc	8b 85 b4 fb ff
	ff		 mov	 eax, DWORD PTR _loc274$234031[ebp]
  011e2	6b c0 30	 imul	 eax, 48			; 00000030H
  011e5	8b 4d f8	 mov	 ecx, DWORD PTR _this$[ebp]
  011e8	8b 54 01 20	 mov	 edx, DWORD PTR [ecx+eax+32]
  011ec	69 d2 38 2b 00
	00		 imul	 edx, 11064		; 00002b38H
  011f2	8b 85 b0 fb ff
	ff		 mov	 eax, DWORD PTR _loc275$234038[ebp]
  011f8	69 c0 d4 00 00
	00		 imul	 eax, 212		; 000000d4H
  011fe	8b 0d 00 00 00
	00		 mov	 ecx, DWORD PTR ?gObj@@3PAUOBJECTSTRUCT@@A ; gObj
  01204	8b 94 11 24 0e
	00 00		 mov	 edx, DWORD PTR [ecx+edx+3620]
  0120b	d9 44 02 24	 fld	 DWORD PTR [edx+eax+36]
  0120f	dc 1d 00 00 00
	00		 fcomp	 QWORD PTR __real@0000000000000000
  01215	df e0		 fnstsw	 ax
  01217	f6 c4 41	 test	 ah, 65			; 00000041H
  0121a	7a 43		 jp	 SHORT $LN25@ProcState_

; 397  : 								{
; 398  : 									gObjInventoryDeleteItem(this->m_FloorData[loc274].m_iTeamPlayerIndex, loc275);

  0121c	8b 85 b0 fb ff
	ff		 mov	 eax, DWORD PTR _loc275$234038[ebp]
  01222	50		 push	 eax
  01223	8b 8d b4 fb ff
	ff		 mov	 ecx, DWORD PTR _loc274$234031[ebp]
  01229	6b c9 30	 imul	 ecx, 48			; 00000030H
  0122c	8b 55 f8	 mov	 edx, DWORD PTR _this$[ebp]
  0122f	8b 44 0a 20	 mov	 eax, DWORD PTR [edx+ecx+32]
  01233	50		 push	 eax
  01234	e8 00 00 00 00	 call	 ?gObjInventoryDeleteItem@@YAEHH@Z ; gObjInventoryDeleteItem
  01239	83 c4 08	 add	 esp, 8

; 399  : 									GCInventoryItemDeleteSend(this->m_FloorData[loc274].m_iTeamPlayerIndex, loc275, 0);

  0123c	6a 00		 push	 0
  0123e	0f b6 85 b0 fb
	ff ff		 movzx	 eax, BYTE PTR _loc275$234038[ebp]
  01245	50		 push	 eax
  01246	8b 8d b4 fb ff
	ff		 mov	 ecx, DWORD PTR _loc274$234031[ebp]
  0124c	6b c9 30	 imul	 ecx, 48			; 00000030H
  0124f	8b 55 f8	 mov	 edx, DWORD PTR _this$[ebp]
  01252	8b 44 0a 20	 mov	 eax, DWORD PTR [edx+ecx+32]
  01256	50		 push	 eax
  01257	e8 00 00 00 00	 call	 ?GCInventoryItemDeleteSend@@YAXHEE@Z ; GCInventoryItemDeleteSend
  0125c	83 c4 0c	 add	 esp, 12			; 0000000cH
$LN25@ProcState_:

; 400  : 								}
; 401  : 							}
; 402  : 						}
; 403  : 					}
; 404  : 
; 405  : 					if(this->m_btYellowTeamClassCount[gObj[this->m_FloorData[loc274].m_iTeamPlayerIndex].Class] == this->m_btBlueTeamClassCount[gObj[this->m_FloorData[loc274].m_iTeamPlayerIndex].Class])

  0125f	8b 85 b4 fb ff
	ff		 mov	 eax, DWORD PTR _loc274$234031[ebp]
  01265	6b c0 30	 imul	 eax, 48			; 00000030H
  01268	8b 4d f8	 mov	 ecx, DWORD PTR _this$[ebp]
  0126b	8b 54 01 20	 mov	 edx, DWORD PTR [ecx+eax+32]
  0126f	69 d2 38 2b 00
	00		 imul	 edx, 11064		; 00002b38H
  01275	a1 00 00 00 00	 mov	 eax, DWORD PTR ?gObj@@3PAUOBJECTSTRUCT@@A ; gObj
  0127a	0f b7 8c 10 b8
	00 00 00	 movzx	 ecx, WORD PTR [eax+edx+184]
  01282	8b 55 f8	 mov	 edx, DWORD PTR _this$[ebp]
  01285	0f b6 84 0a d3
	03 00 00	 movzx	 eax, BYTE PTR [edx+ecx+979]
  0128d	8b 8d b4 fb ff
	ff		 mov	 ecx, DWORD PTR _loc274$234031[ebp]
  01293	6b c9 30	 imul	 ecx, 48			; 00000030H
  01296	8b 55 f8	 mov	 edx, DWORD PTR _this$[ebp]
  01299	8b 4c 0a 20	 mov	 ecx, DWORD PTR [edx+ecx+32]
  0129d	69 c9 38 2b 00
	00		 imul	 ecx, 11064		; 00002b38H
  012a3	8b 15 00 00 00
	00		 mov	 edx, DWORD PTR ?gObj@@3PAUOBJECTSTRUCT@@A ; gObj
  012a9	0f b7 8c 0a b8
	00 00 00	 movzx	 ecx, WORD PTR [edx+ecx+184]
  012b1	8b 55 f8	 mov	 edx, DWORD PTR _this$[ebp]
  012b4	0f b6 8c 0a da
	03 00 00	 movzx	 ecx, BYTE PTR [edx+ecx+986]
  012bc	3b c1		 cmp	 eax, ecx
  012be	75 74		 jne	 SHORT $LN24@ProcState_

; 406  : 					{
; 407  : 						if(this->m_iYellowTeamUserCount == this->m_iBlueTeamUserCount)

  012c0	8b 45 f8	 mov	 eax, DWORD PTR _this$[ebp]
  012c3	8b 4d f8	 mov	 ecx, DWORD PTR _this$[ebp]
  012c6	8b 90 c8 03 00
	00		 mov	 edx, DWORD PTR [eax+968]
  012cc	3b 91 cc 03 00
	00		 cmp	 edx, DWORD PTR [ecx+972]
  012d2	75 23		 jne	 SHORT $LN23@ProcState_

; 408  : 						{
; 409  : 							this->m_FloorData[loc274].m_btTeamJoinSide = rand()%2;

  012d4	e8 00 00 00 00	 call	 _rand
  012d9	25 01 00 00 80	 and	 eax, -2147483647	; 80000001H
  012de	79 05		 jns	 SHORT $LN83@ProcState_
  012e0	48		 dec	 eax
  012e1	83 c8 fe	 or	 eax, -2			; fffffffeH
  012e4	40		 inc	 eax
$LN83@ProcState_:
  012e5	8b 8d b4 fb ff
	ff		 mov	 ecx, DWORD PTR _loc274$234031[ebp]
  012eb	6b c9 30	 imul	 ecx, 48			; 00000030H
  012ee	8b 55 f8	 mov	 edx, DWORD PTR _this$[ebp]
  012f1	88 44 0a 24	 mov	 BYTE PTR [edx+ecx+36], al
  012f5	eb 38		 jmp	 SHORT $LN20@ProcState_
$LN23@ProcState_:

; 410  : 						}
; 411  : 						else if(this->m_iYellowTeamUserCount > this->m_iBlueTeamUserCount)

  012f7	8b 45 f8	 mov	 eax, DWORD PTR _this$[ebp]
  012fa	8b 4d f8	 mov	 ecx, DWORD PTR _this$[ebp]
  012fd	8b 90 c8 03 00
	00		 mov	 edx, DWORD PTR [eax+968]
  01303	3b 91 cc 03 00
	00		 cmp	 edx, DWORD PTR [ecx+972]
  01309	7e 13		 jle	 SHORT $LN21@ProcState_

; 412  : 						{
; 413  : 							this->m_FloorData[loc274].m_btTeamJoinSide = 1;

  0130b	8b 85 b4 fb ff
	ff		 mov	 eax, DWORD PTR _loc274$234031[ebp]
  01311	6b c0 30	 imul	 eax, 48			; 00000030H
  01314	8b 4d f8	 mov	 ecx, DWORD PTR _this$[ebp]
  01317	c6 44 01 24 01	 mov	 BYTE PTR [ecx+eax+36], 1

; 414  : 						}
; 415  : 						else

  0131c	eb 11		 jmp	 SHORT $LN20@ProcState_
$LN21@ProcState_:

; 416  : 						{
; 417  : 							this->m_FloorData[loc274].m_btTeamJoinSide = 0;

  0131e	8b 85 b4 fb ff
	ff		 mov	 eax, DWORD PTR _loc274$234031[ebp]
  01324	6b c0 30	 imul	 eax, 48			; 00000030H
  01327	8b 4d f8	 mov	 ecx, DWORD PTR _this$[ebp]
  0132a	c6 44 01 24 00	 mov	 BYTE PTR [ecx+eax+36], 0
$LN20@ProcState_:

; 418  : 						}

  0132f	e9 d3 00 00 00	 jmp	 $LN13@ProcState_
$LN24@ProcState_:

; 419  : 					}
; 420  : 					else if(this->m_btYellowTeamClassCount[gObj[this->m_FloorData[loc274].m_iTeamPlayerIndex].Class] < this->m_btBlueTeamClassCount[gObj[this->m_FloorData[loc274].m_iTeamPlayerIndex].Class])

  01334	8b 85 b4 fb ff
	ff		 mov	 eax, DWORD PTR _loc274$234031[ebp]
  0133a	6b c0 30	 imul	 eax, 48			; 00000030H
  0133d	8b 4d f8	 mov	 ecx, DWORD PTR _this$[ebp]
  01340	8b 54 01 20	 mov	 edx, DWORD PTR [ecx+eax+32]
  01344	69 d2 38 2b 00
	00		 imul	 edx, 11064		; 00002b38H
  0134a	a1 00 00 00 00	 mov	 eax, DWORD PTR ?gObj@@3PAUOBJECTSTRUCT@@A ; gObj
  0134f	0f b7 8c 10 b8
	00 00 00	 movzx	 ecx, WORD PTR [eax+edx+184]
  01357	8b 55 f8	 mov	 edx, DWORD PTR _this$[ebp]
  0135a	0f b6 84 0a d3
	03 00 00	 movzx	 eax, BYTE PTR [edx+ecx+979]
  01362	8b 8d b4 fb ff
	ff		 mov	 ecx, DWORD PTR _loc274$234031[ebp]
  01368	6b c9 30	 imul	 ecx, 48			; 00000030H
  0136b	8b 55 f8	 mov	 edx, DWORD PTR _this$[ebp]
  0136e	8b 4c 0a 20	 mov	 ecx, DWORD PTR [edx+ecx+32]
  01372	69 c9 38 2b 00
	00		 imul	 ecx, 11064		; 00002b38H
  01378	8b 15 00 00 00
	00		 mov	 edx, DWORD PTR ?gObj@@3PAUOBJECTSTRUCT@@A ; gObj
  0137e	0f b7 8c 0a b8
	00 00 00	 movzx	 ecx, WORD PTR [edx+ecx+184]
  01386	8b 55 f8	 mov	 edx, DWORD PTR _this$[ebp]
  01389	0f b6 8c 0a da
	03 00 00	 movzx	 ecx, BYTE PTR [edx+ecx+986]
  01391	3b c1		 cmp	 eax, ecx
  01393	7d 3a		 jge	 SHORT $LN18@ProcState_

; 421  : 					{
; 422  : 						if(this->m_iYellowTeamUserCount > this->m_iBlueTeamUserCount)

  01395	8b 45 f8	 mov	 eax, DWORD PTR _this$[ebp]
  01398	8b 4d f8	 mov	 ecx, DWORD PTR _this$[ebp]
  0139b	8b 90 c8 03 00
	00		 mov	 edx, DWORD PTR [eax+968]
  013a1	3b 91 cc 03 00
	00		 cmp	 edx, DWORD PTR [ecx+972]
  013a7	7e 13		 jle	 SHORT $LN17@ProcState_

; 423  : 						{
; 424  : 							this->m_FloorData[loc274].m_btTeamJoinSide = 1;

  013a9	8b 85 b4 fb ff
	ff		 mov	 eax, DWORD PTR _loc274$234031[ebp]
  013af	6b c0 30	 imul	 eax, 48			; 00000030H
  013b2	8b 4d f8	 mov	 ecx, DWORD PTR _this$[ebp]
  013b5	c6 44 01 24 01	 mov	 BYTE PTR [ecx+eax+36], 1

; 425  : 						}
; 426  : 						else

  013ba	eb 11		 jmp	 SHORT $LN16@ProcState_
$LN17@ProcState_:

; 427  : 						{
; 428  : 							this->m_FloorData[loc274].m_btTeamJoinSide = 0;

  013bc	8b 85 b4 fb ff
	ff		 mov	 eax, DWORD PTR _loc274$234031[ebp]
  013c2	6b c0 30	 imul	 eax, 48			; 00000030H
  013c5	8b 4d f8	 mov	 ecx, DWORD PTR _this$[ebp]
  013c8	c6 44 01 24 00	 mov	 BYTE PTR [ecx+eax+36], 0
$LN16@ProcState_:

; 429  : 						}

  013cd	eb 38		 jmp	 SHORT $LN13@ProcState_
$LN18@ProcState_:

; 430  : 					}
; 431  : 					else if(this->m_iYellowTeamUserCount < this->m_iBlueTeamUserCount)

  013cf	8b 45 f8	 mov	 eax, DWORD PTR _this$[ebp]
  013d2	8b 4d f8	 mov	 ecx, DWORD PTR _this$[ebp]
  013d5	8b 90 c8 03 00
	00		 mov	 edx, DWORD PTR [eax+968]
  013db	3b 91 cc 03 00
	00		 cmp	 edx, DWORD PTR [ecx+972]
  013e1	7d 13		 jge	 SHORT $LN14@ProcState_

; 432  : 					{
; 433  : 						this->m_FloorData[loc274].m_btTeamJoinSide = 0;

  013e3	8b 85 b4 fb ff
	ff		 mov	 eax, DWORD PTR _loc274$234031[ebp]
  013e9	6b c0 30	 imul	 eax, 48			; 00000030H
  013ec	8b 4d f8	 mov	 ecx, DWORD PTR _this$[ebp]
  013ef	c6 44 01 24 00	 mov	 BYTE PTR [ecx+eax+36], 0

; 434  : 					}
; 435  : 					else

  013f4	eb 11		 jmp	 SHORT $LN13@ProcState_
$LN14@ProcState_:

; 436  : 					{
; 437  : 						this->m_FloorData[loc274].m_btTeamJoinSide = 1;

  013f6	8b 85 b4 fb ff
	ff		 mov	 eax, DWORD PTR _loc274$234031[ebp]
  013fc	6b c0 30	 imul	 eax, 48			; 00000030H
  013ff	8b 4d f8	 mov	 ecx, DWORD PTR _this$[ebp]
  01402	c6 44 01 24 01	 mov	 BYTE PTR [ecx+eax+36], 1
$LN13@ProcState_:

; 438  : 					}
; 439  : 
; 440  : 					if(this->m_FloorData[loc274].m_btTeamJoinSide == 0)

  01407	8b 85 b4 fb ff
	ff		 mov	 eax, DWORD PTR _loc274$234031[ebp]
  0140d	6b c0 30	 imul	 eax, 48			; 00000030H
  01410	8b 4d f8	 mov	 ecx, DWORD PTR _this$[ebp]
  01413	0f b6 54 01 24	 movzx	 edx, BYTE PTR [ecx+eax+36]
  01418	85 d2		 test	 edx, edx
  0141a	0f 85 4b 03 00
	00		 jne	 $LN12@ProcState_

; 441  : 					{
; 442  : 						this->m_FloorData[loc274].m_btTeamJoinSide = 0; //wtf??

  01420	8b 85 b4 fb ff
	ff		 mov	 eax, DWORD PTR _loc274$234031[ebp]
  01426	6b c0 30	 imul	 eax, 48			; 00000030H
  01429	8b 4d f8	 mov	 ecx, DWORD PTR _this$[ebp]
  0142c	c6 44 01 24 00	 mov	 BYTE PTR [ecx+eax+36], 0

; 443  : 						this->m_btYellowTeamClassCount[gObj[this->m_FloorData[loc274].m_iTeamPlayerIndex].Class]++;

  01431	8b 85 b4 fb ff
	ff		 mov	 eax, DWORD PTR _loc274$234031[ebp]
  01437	6b c0 30	 imul	 eax, 48			; 00000030H
  0143a	8b 4d f8	 mov	 ecx, DWORD PTR _this$[ebp]
  0143d	8b 54 01 20	 mov	 edx, DWORD PTR [ecx+eax+32]
  01441	69 d2 38 2b 00
	00		 imul	 edx, 11064		; 00002b38H
  01447	a1 00 00 00 00	 mov	 eax, DWORD PTR ?gObj@@3PAUOBJECTSTRUCT@@A ; gObj
  0144c	0f b7 8c 10 b8
	00 00 00	 movzx	 ecx, WORD PTR [eax+edx+184]
  01454	8b 55 f8	 mov	 edx, DWORD PTR _this$[ebp]
  01457	8a 84 0a d3 03
	00 00		 mov	 al, BYTE PTR [edx+ecx+979]
  0145e	04 01		 add	 al, 1
  01460	8b 8d b4 fb ff
	ff		 mov	 ecx, DWORD PTR _loc274$234031[ebp]
  01466	6b c9 30	 imul	 ecx, 48			; 00000030H
  01469	8b 55 f8	 mov	 edx, DWORD PTR _this$[ebp]
  0146c	8b 4c 0a 20	 mov	 ecx, DWORD PTR [edx+ecx+32]
  01470	69 c9 38 2b 00
	00		 imul	 ecx, 11064		; 00002b38H
  01476	8b 15 00 00 00
	00		 mov	 edx, DWORD PTR ?gObj@@3PAUOBJECTSTRUCT@@A ; gObj
  0147c	0f b7 8c 0a b8
	00 00 00	 movzx	 ecx, WORD PTR [edx+ecx+184]
  01484	8b 55 f8	 mov	 edx, DWORD PTR _this$[ebp]
  01487	88 84 0a d3 03
	00 00		 mov	 BYTE PTR [edx+ecx+979], al

; 444  : 
; 445  : 						if(loc144 == -1 && gObj[this->m_FloorData[loc274].m_iTeamPlayerIndex].PartyNumber < 0)

  0148e	83 bd bc fd ff
	ff ff		 cmp	 DWORD PTR _loc144$234025[ebp], -1
  01495	0f 85 f3 00 00
	00		 jne	 $LN11@ProcState_
  0149b	8b 85 b4 fb ff
	ff		 mov	 eax, DWORD PTR _loc274$234031[ebp]
  014a1	6b c0 30	 imul	 eax, 48			; 00000030H
  014a4	8b 4d f8	 mov	 ecx, DWORD PTR _this$[ebp]
  014a7	8b 54 01 20	 mov	 edx, DWORD PTR [ecx+eax+32]
  014ab	69 d2 38 2b 00
	00		 imul	 edx, 11064		; 00002b38H
  014b1	a1 00 00 00 00	 mov	 eax, DWORD PTR ?gObj@@3PAUOBJECTSTRUCT@@A ; gObj
  014b6	83 bc 10 2c 04
	00 00 00	 cmp	 DWORD PTR [eax+edx+1068], 0
  014be	0f 8d ca 00 00
	00		 jge	 $LN11@ProcState_

; 446  : 						{
; 447  : 							loc144 = gParty.Create(this->m_FloorData[loc274].m_iTeamPlayerIndex, gObj[this->m_FloorData[loc274].m_iTeamPlayerIndex].DBNumber, gObj[this->m_FloorData[loc274].m_iTeamPlayerIndex].Level);

  014c4	8b 85 b4 fb ff
	ff		 mov	 eax, DWORD PTR _loc274$234031[ebp]
  014ca	6b c0 30	 imul	 eax, 48			; 00000030H
  014cd	8b 4d f8	 mov	 ecx, DWORD PTR _this$[ebp]
  014d0	8b 54 01 20	 mov	 edx, DWORD PTR [ecx+eax+32]
  014d4	69 d2 38 2b 00
	00		 imul	 edx, 11064		; 00002b38H
  014da	a1 00 00 00 00	 mov	 eax, DWORD PTR ?gObj@@3PAUOBJECTSTRUCT@@A ; gObj
  014df	0f bf 8c 10 be
	00 00 00	 movsx	 ecx, WORD PTR [eax+edx+190]
  014e7	51		 push	 ecx
  014e8	8b 95 b4 fb ff
	ff		 mov	 edx, DWORD PTR _loc274$234031[ebp]
  014ee	6b d2 30	 imul	 edx, 48			; 00000030H
  014f1	8b 45 f8	 mov	 eax, DWORD PTR _this$[ebp]
  014f4	8b 4c 10 20	 mov	 ecx, DWORD PTR [eax+edx+32]
  014f8	69 c9 38 2b 00
	00		 imul	 ecx, 11064		; 00002b38H
  014fe	8b 15 00 00 00
	00		 mov	 edx, DWORD PTR ?gObj@@3PAUOBJECTSTRUCT@@A ; gObj
  01504	8b 44 0a 2c	 mov	 eax, DWORD PTR [edx+ecx+44]
  01508	50		 push	 eax
  01509	8b 8d b4 fb ff
	ff		 mov	 ecx, DWORD PTR _loc274$234031[ebp]
  0150f	6b c9 30	 imul	 ecx, 48			; 00000030H
  01512	8b 55 f8	 mov	 edx, DWORD PTR _this$[ebp]
  01515	8b 44 0a 20	 mov	 eax, DWORD PTR [edx+ecx+32]
  01519	50		 push	 eax
  0151a	b9 00 00 00 00	 mov	 ecx, OFFSET ?gParty@@3VPartyClass@@A ; gParty
  0151f	e8 00 00 00 00	 call	 ?Create@PartyClass@@QAEHHHH@Z ; PartyClass::Create
  01524	89 85 bc fd ff
	ff		 mov	 DWORD PTR _loc144$234025[ebp], eax

; 448  : 
; 449  : 							if(loc144 == -1)

  0152a	83 bd bc fd ff
	ff ff		 cmp	 DWORD PTR _loc144$234025[ebp], -1
  01531	75 2e		 jne	 SHORT $LN10@ProcState_

; 450  : 							{
; 451  : 								LogAddTD("[Illusion Temple] (%d) Party Create Error, (Team: %d)", this->m_btFloorIndex+1, this->m_FloorData[loc274].m_btTeamJoinSide);	

  01533	8b 85 b4 fb ff
	ff		 mov	 eax, DWORD PTR _loc274$234031[ebp]
  01539	6b c0 30	 imul	 eax, 48			; 00000030H
  0153c	8b 4d f8	 mov	 ecx, DWORD PTR _this$[ebp]
  0153f	0f b6 54 01 24	 movzx	 edx, BYTE PTR [ecx+eax+36]
  01544	52		 push	 edx
  01545	8b 45 f8	 mov	 eax, DWORD PTR _this$[ebp]
  01548	0f b6 88 2c 02
	00 00		 movzx	 ecx, BYTE PTR [eax+556]
  0154f	83 c1 01	 add	 ecx, 1
  01552	51		 push	 ecx
  01553	68 00 00 00 00	 push	 OFFSET ??_C@_0DG@NEAACFEP@?$FLIllusion?5Temple?$FN?5?$CI?$CFd?$CJ?5Party?5Cre@
  01558	ff 15 00 00 00
	00		 call	 DWORD PTR ?LogAddTD@@3P6AXPADZZA ; LogAddTD
  0155e	83 c4 0c	 add	 esp, 12			; 0000000cH
$LN10@ProcState_:

; 452  : 							}
; 453  : 							gObj[this->m_FloorData[loc274].m_iTeamPlayerIndex].PartyNumber = loc144;

  01561	8b 85 b4 fb ff
	ff		 mov	 eax, DWORD PTR _loc274$234031[ebp]
  01567	6b c0 30	 imul	 eax, 48			; 00000030H
  0156a	8b 4d f8	 mov	 ecx, DWORD PTR _this$[ebp]
  0156d	8b 54 01 20	 mov	 edx, DWORD PTR [ecx+eax+32]
  01571	69 d2 38 2b 00
	00		 imul	 edx, 11064		; 00002b38H
  01577	a1 00 00 00 00	 mov	 eax, DWORD PTR ?gObj@@3PAUOBJECTSTRUCT@@A ; gObj
  0157c	8b 8d bc fd ff
	ff		 mov	 ecx, DWORD PTR _loc144$234025[ebp]
  01582	89 8c 10 2c 04
	00 00		 mov	 DWORD PTR [eax+edx+1068], ecx

; 454  : 						}
; 455  : 						else

  01589	e9 ce 00 00 00	 jmp	 $LN7@ProcState_
$LN11@ProcState_:

; 456  : 						{
; 457  : 							int loc276 = gParty.Add(loc144, this->m_FloorData[loc274].m_iTeamPlayerIndex, gObj[this->m_FloorData[loc274].m_iTeamPlayerIndex].DBNumber, gObj[this->m_FloorData[loc274].m_iTeamPlayerIndex].Level);

  0158e	8b 85 b4 fb ff
	ff		 mov	 eax, DWORD PTR _loc274$234031[ebp]
  01594	6b c0 30	 imul	 eax, 48			; 00000030H
  01597	8b 4d f8	 mov	 ecx, DWORD PTR _this$[ebp]
  0159a	8b 54 01 20	 mov	 edx, DWORD PTR [ecx+eax+32]
  0159e	69 d2 38 2b 00
	00		 imul	 edx, 11064		; 00002b38H
  015a4	a1 00 00 00 00	 mov	 eax, DWORD PTR ?gObj@@3PAUOBJECTSTRUCT@@A ; gObj
  015a9	0f bf 8c 10 be
	00 00 00	 movsx	 ecx, WORD PTR [eax+edx+190]
  015b1	51		 push	 ecx
  015b2	8b 95 b4 fb ff
	ff		 mov	 edx, DWORD PTR _loc274$234031[ebp]
  015b8	6b d2 30	 imul	 edx, 48			; 00000030H
  015bb	8b 45 f8	 mov	 eax, DWORD PTR _this$[ebp]
  015be	8b 4c 10 20	 mov	 ecx, DWORD PTR [eax+edx+32]
  015c2	69 c9 38 2b 00
	00		 imul	 ecx, 11064		; 00002b38H
  015c8	8b 15 00 00 00
	00		 mov	 edx, DWORD PTR ?gObj@@3PAUOBJECTSTRUCT@@A ; gObj
  015ce	8b 44 0a 2c	 mov	 eax, DWORD PTR [edx+ecx+44]
  015d2	50		 push	 eax
  015d3	8b 8d b4 fb ff
	ff		 mov	 ecx, DWORD PTR _loc274$234031[ebp]
  015d9	6b c9 30	 imul	 ecx, 48			; 00000030H
  015dc	8b 55 f8	 mov	 edx, DWORD PTR _this$[ebp]
  015df	8b 44 0a 20	 mov	 eax, DWORD PTR [edx+ecx+32]
  015e3	50		 push	 eax
  015e4	8b 8d bc fd ff
	ff		 mov	 ecx, DWORD PTR _loc144$234025[ebp]
  015ea	51		 push	 ecx
  015eb	b9 00 00 00 00	 mov	 ecx, OFFSET ?gParty@@3VPartyClass@@A ; gParty
  015f0	e8 00 00 00 00	 call	 ?Add@PartyClass@@QAEHHHHH@Z ; PartyClass::Add
  015f5	89 85 ac fb ff
	ff		 mov	 DWORD PTR _loc276$234062[ebp], eax

; 458  : 
; 459  : 							if(loc276 >= 0)

  015fb	83 bd ac fb ff
	ff 00		 cmp	 DWORD PTR _loc276$234062[ebp], 0
  01602	7c 2a		 jl	 SHORT $LN8@ProcState_

; 460  : 							{
; 461  : 								gObj[this->m_FloorData[loc274].m_iTeamPlayerIndex].PartyNumber = loc144;

  01604	8b 85 b4 fb ff
	ff		 mov	 eax, DWORD PTR _loc274$234031[ebp]
  0160a	6b c0 30	 imul	 eax, 48			; 00000030H
  0160d	8b 4d f8	 mov	 ecx, DWORD PTR _this$[ebp]
  01610	8b 54 01 20	 mov	 edx, DWORD PTR [ecx+eax+32]
  01614	69 d2 38 2b 00
	00		 imul	 edx, 11064		; 00002b38H
  0161a	a1 00 00 00 00	 mov	 eax, DWORD PTR ?gObj@@3PAUOBJECTSTRUCT@@A ; gObj
  0161f	8b 8d bc fd ff
	ff		 mov	 ecx, DWORD PTR _loc144$234025[ebp]
  01625	89 8c 10 2c 04
	00 00		 mov	 DWORD PTR [eax+edx+1068], ecx

; 462  : 							}
; 463  : 							else

  0162c	eb 2e		 jmp	 SHORT $LN7@ProcState_
$LN8@ProcState_:

; 464  : 							{
; 465  : 								LogAddTD("[Illusion Temple] (%d) Party Add Error, (Team: %d)", this->m_btFloorIndex+1, this->m_FloorData[loc274].m_btTeamJoinSide);

  0162e	8b 85 b4 fb ff
	ff		 mov	 eax, DWORD PTR _loc274$234031[ebp]
  01634	6b c0 30	 imul	 eax, 48			; 00000030H
  01637	8b 4d f8	 mov	 ecx, DWORD PTR _this$[ebp]
  0163a	0f b6 54 01 24	 movzx	 edx, BYTE PTR [ecx+eax+36]
  0163f	52		 push	 edx
  01640	8b 45 f8	 mov	 eax, DWORD PTR _this$[ebp]
  01643	0f b6 88 2c 02
	00 00		 movzx	 ecx, BYTE PTR [eax+556]
  0164a	83 c1 01	 add	 ecx, 1
  0164d	51		 push	 ecx
  0164e	68 00 00 00 00	 push	 OFFSET ??_C@_0DD@OHOGJPCE@?$FLIllusion?5Temple?$FN?5?$CI?$CFd?$CJ?5Party?5Add@
  01653	ff 15 00 00 00
	00		 call	 DWORD PTR ?LogAddTD@@3P6AXPADZZA ; LogAddTD
  01659	83 c4 0c	 add	 esp, 12			; 0000000cH
$LN7@ProcState_:

; 466  : 							}
; 467  : 						}
; 468  : 
; 469  : 						gObjMoveGate(this->m_FloorData[loc274].m_iTeamPlayerIndex, this->m_btFloorIndex+148); //Temple

  0165c	8b 45 f8	 mov	 eax, DWORD PTR _this$[ebp]
  0165f	0f b6 88 2c 02
	00 00		 movzx	 ecx, BYTE PTR [eax+556]
  01666	81 c1 94 00 00
	00		 add	 ecx, 148		; 00000094H
  0166c	51		 push	 ecx
  0166d	8b 95 b4 fb ff
	ff		 mov	 edx, DWORD PTR _loc274$234031[ebp]
  01673	6b d2 30	 imul	 edx, 48			; 00000030H
  01676	8b 45 f8	 mov	 eax, DWORD PTR _this$[ebp]
  01679	8b 4c 10 20	 mov	 ecx, DWORD PTR [eax+edx+32]
  0167d	51		 push	 ecx
  0167e	e8 00 00 00 00	 call	 ?gObjMoveGate@@YAHHH@Z	; gObjMoveGate
  01683	83 c4 08	 add	 esp, 8

; 470  : 						gObj[this->m_FloorData[loc274].m_iTeamPlayerIndex].m_Change = 404; //"MU Allies"

  01686	8b 85 b4 fb ff
	ff		 mov	 eax, DWORD PTR _loc274$234031[ebp]
  0168c	6b c0 30	 imul	 eax, 48			; 00000030H
  0168f	8b 4d f8	 mov	 ecx, DWORD PTR _this$[ebp]
  01692	8b 54 01 20	 mov	 edx, DWORD PTR [ecx+eax+32]
  01696	69 d2 38 2b 00
	00		 imul	 edx, 11064		; 00002b38H
  0169c	a1 00 00 00 00	 mov	 eax, DWORD PTR ?gObj@@3PAUOBJECTSTRUCT@@A ; gObj
  016a1	c7 84 10 54 04
	00 00 94 01 00
	00		 mov	 DWORD PTR [eax+edx+1108], 404 ; 00000194H

; 471  : 						gObjViewportListProtocolCreate(&gObj[this->m_FloorData[loc274].m_iTeamPlayerIndex]);

  016ac	8b 85 b4 fb ff
	ff		 mov	 eax, DWORD PTR _loc274$234031[ebp]
  016b2	6b c0 30	 imul	 eax, 48			; 00000030H
  016b5	8b 4d f8	 mov	 ecx, DWORD PTR _this$[ebp]
  016b8	8b 54 01 20	 mov	 edx, DWORD PTR [ecx+eax+32]
  016bc	69 d2 38 2b 00
	00		 imul	 edx, 11064		; 00002b38H
  016c2	03 15 00 00 00
	00		 add	 edx, DWORD PTR ?gObj@@3PAUOBJECTSTRUCT@@A ; gObj
  016c8	52		 push	 edx
  016c9	e8 00 00 00 00	 call	 ?gObjViewportListProtocolCreate@@YAXPAUOBJECTSTRUCT@@@Z ; gObjViewportListProtocolCreate
  016ce	83 c4 04	 add	 esp, 4

; 472  : 
; 473  : 						this->m_iYellowTeamUserCount++;

  016d1	8b 45 f8	 mov	 eax, DWORD PTR _this$[ebp]
  016d4	8b 88 c8 03 00
	00		 mov	 ecx, DWORD PTR [eax+968]
  016da	83 c1 01	 add	 ecx, 1
  016dd	8b 55 f8	 mov	 edx, DWORD PTR _this$[ebp]
  016e0	89 8a c8 03 00
	00		 mov	 DWORD PTR [edx+968], ecx

; 474  : 						loc143++;

  016e6	8b 85 c0 fd ff
	ff		 mov	 eax, DWORD PTR _loc143$234024[ebp]
  016ec	83 c0 01	 add	 eax, 1
  016ef	89 85 c0 fd ff
	ff		 mov	 DWORD PTR _loc143$234024[ebp], eax

; 475  : 
; 476  : 						int loc277 = strlen(szTemp0);

  016f5	8d 85 b8 fc ff
	ff		 lea	 eax, DWORD PTR _szTemp0$234027[ebp]
  016fb	50		 push	 eax
  016fc	e8 00 00 00 00	 call	 _strlen
  01701	83 c4 04	 add	 esp, 4
  01704	89 85 a8 fb ff
	ff		 mov	 DWORD PTR _loc277$234066[ebp], eax

; 477  : 
; 478  : 						sprintf(&szTemp0[loc277],"(%s),(%s) ",gObj[this->m_FloorData[loc274].m_iTeamPlayerIndex].AccountID,gObj[this->m_FloorData[loc274].m_iTeamPlayerIndex].Name);

  0170a	8b 85 b4 fb ff
	ff		 mov	 eax, DWORD PTR _loc274$234031[ebp]
  01710	6b c0 30	 imul	 eax, 48			; 00000030H
  01713	8b 4d f8	 mov	 ecx, DWORD PTR _this$[ebp]
  01716	8b 54 01 20	 mov	 edx, DWORD PTR [ecx+eax+32]
  0171a	69 d2 38 2b 00
	00		 imul	 edx, 11064		; 00002b38H
  01720	a1 00 00 00 00	 mov	 eax, DWORD PTR ?gObj@@3PAUOBJECTSTRUCT@@A ; gObj
  01725	8d 4c 10 77	 lea	 ecx, DWORD PTR [eax+edx+119]
  01729	51		 push	 ecx
  0172a	8b 95 b4 fb ff
	ff		 mov	 edx, DWORD PTR _loc274$234031[ebp]
  01730	6b d2 30	 imul	 edx, 48			; 00000030H
  01733	8b 45 f8	 mov	 eax, DWORD PTR _this$[ebp]
  01736	8b 4c 10 20	 mov	 ecx, DWORD PTR [eax+edx+32]
  0173a	69 c9 38 2b 00
	00		 imul	 ecx, 11064		; 00002b38H
  01740	8b 15 00 00 00
	00		 mov	 edx, DWORD PTR ?gObj@@3PAUOBJECTSTRUCT@@A ; gObj
  01746	8d 44 0a 6c	 lea	 eax, DWORD PTR [edx+ecx+108]
  0174a	50		 push	 eax
  0174b	68 00 00 00 00	 push	 OFFSET ??_C@_0L@BPBFEMAA@?$CI?$CFs?$CJ?0?$CI?$CFs?$CJ?5?$AA@
  01750	8b 8d a8 fb ff
	ff		 mov	 ecx, DWORD PTR _loc277$234066[ebp]
  01756	8d 94 0d b8 fc
	ff ff		 lea	 edx, DWORD PTR _szTemp0$234027[ebp+ecx]
  0175d	52		 push	 edx
  0175e	e8 00 00 00 00	 call	 _sprintf
  01763	83 c4 10	 add	 esp, 16			; 00000010H

; 479  : 					}
; 480  : 					else

  01766	e9 46 03 00 00	 jmp	 $LN6@ProcState_
$LN12@ProcState_:

; 481  : 					{
; 482  : 						this->m_FloorData[loc274].m_btTeamJoinSide = 1;

  0176b	8b 85 b4 fb ff
	ff		 mov	 eax, DWORD PTR _loc274$234031[ebp]
  01771	6b c0 30	 imul	 eax, 48			; 00000030H
  01774	8b 4d f8	 mov	 ecx, DWORD PTR _this$[ebp]
  01777	c6 44 01 24 01	 mov	 BYTE PTR [ecx+eax+36], 1

; 483  : 
; 484  : 						this->m_btBlueTeamClassCount[gObj[this->m_FloorData[loc274].m_iTeamPlayerIndex].Class]++;

  0177c	8b 85 b4 fb ff
	ff		 mov	 eax, DWORD PTR _loc274$234031[ebp]
  01782	6b c0 30	 imul	 eax, 48			; 00000030H
  01785	8b 4d f8	 mov	 ecx, DWORD PTR _this$[ebp]
  01788	8b 54 01 20	 mov	 edx, DWORD PTR [ecx+eax+32]
  0178c	69 d2 38 2b 00
	00		 imul	 edx, 11064		; 00002b38H
  01792	a1 00 00 00 00	 mov	 eax, DWORD PTR ?gObj@@3PAUOBJECTSTRUCT@@A ; gObj
  01797	0f b7 8c 10 b8
	00 00 00	 movzx	 ecx, WORD PTR [eax+edx+184]
  0179f	8b 55 f8	 mov	 edx, DWORD PTR _this$[ebp]
  017a2	8a 84 0a da 03
	00 00		 mov	 al, BYTE PTR [edx+ecx+986]
  017a9	04 01		 add	 al, 1
  017ab	8b 8d b4 fb ff
	ff		 mov	 ecx, DWORD PTR _loc274$234031[ebp]
  017b1	6b c9 30	 imul	 ecx, 48			; 00000030H
  017b4	8b 55 f8	 mov	 edx, DWORD PTR _this$[ebp]
  017b7	8b 4c 0a 20	 mov	 ecx, DWORD PTR [edx+ecx+32]
  017bb	69 c9 38 2b 00
	00		 imul	 ecx, 11064		; 00002b38H
  017c1	8b 15 00 00 00
	00		 mov	 edx, DWORD PTR ?gObj@@3PAUOBJECTSTRUCT@@A ; gObj
  017c7	0f b7 8c 0a b8
	00 00 00	 movzx	 ecx, WORD PTR [edx+ecx+184]
  017cf	8b 55 f8	 mov	 edx, DWORD PTR _this$[ebp]
  017d2	88 84 0a da 03
	00 00		 mov	 BYTE PTR [edx+ecx+986], al

; 485  : 
; 486  : 						if(loc145 == -1 && gObj[this->m_FloorData[loc274].m_iTeamPlayerIndex].PartyNumber < 0)

  017d9	83 bd b8 fd ff
	ff ff		 cmp	 DWORD PTR _loc145$234026[ebp], -1
  017e0	0f 85 f3 00 00
	00		 jne	 $LN5@ProcState_
  017e6	8b 85 b4 fb ff
	ff		 mov	 eax, DWORD PTR _loc274$234031[ebp]
  017ec	6b c0 30	 imul	 eax, 48			; 00000030H
  017ef	8b 4d f8	 mov	 ecx, DWORD PTR _this$[ebp]
  017f2	8b 54 01 20	 mov	 edx, DWORD PTR [ecx+eax+32]
  017f6	69 d2 38 2b 00
	00		 imul	 edx, 11064		; 00002b38H
  017fc	a1 00 00 00 00	 mov	 eax, DWORD PTR ?gObj@@3PAUOBJECTSTRUCT@@A ; gObj
  01801	83 bc 10 2c 04
	00 00 00	 cmp	 DWORD PTR [eax+edx+1068], 0
  01809	0f 8d ca 00 00
	00		 jge	 $LN5@ProcState_

; 487  : 						{
; 488  : 							loc145 = gParty.Create(this->m_FloorData[loc274].m_iTeamPlayerIndex, gObj[this->m_FloorData[loc274].m_iTeamPlayerIndex].DBNumber, gObj[this->m_FloorData[loc274].m_iTeamPlayerIndex].Level);

  0180f	8b 85 b4 fb ff
	ff		 mov	 eax, DWORD PTR _loc274$234031[ebp]
  01815	6b c0 30	 imul	 eax, 48			; 00000030H
  01818	8b 4d f8	 mov	 ecx, DWORD PTR _this$[ebp]
  0181b	8b 54 01 20	 mov	 edx, DWORD PTR [ecx+eax+32]
  0181f	69 d2 38 2b 00
	00		 imul	 edx, 11064		; 00002b38H
  01825	a1 00 00 00 00	 mov	 eax, DWORD PTR ?gObj@@3PAUOBJECTSTRUCT@@A ; gObj
  0182a	0f bf 8c 10 be
	00 00 00	 movsx	 ecx, WORD PTR [eax+edx+190]
  01832	51		 push	 ecx
  01833	8b 95 b4 fb ff
	ff		 mov	 edx, DWORD PTR _loc274$234031[ebp]
  01839	6b d2 30	 imul	 edx, 48			; 00000030H
  0183c	8b 45 f8	 mov	 eax, DWORD PTR _this$[ebp]
  0183f	8b 4c 10 20	 mov	 ecx, DWORD PTR [eax+edx+32]
  01843	69 c9 38 2b 00
	00		 imul	 ecx, 11064		; 00002b38H
  01849	8b 15 00 00 00
	00		 mov	 edx, DWORD PTR ?gObj@@3PAUOBJECTSTRUCT@@A ; gObj
  0184f	8b 44 0a 2c	 mov	 eax, DWORD PTR [edx+ecx+44]
  01853	50		 push	 eax
  01854	8b 8d b4 fb ff
	ff		 mov	 ecx, DWORD PTR _loc274$234031[ebp]
  0185a	6b c9 30	 imul	 ecx, 48			; 00000030H
  0185d	8b 55 f8	 mov	 edx, DWORD PTR _this$[ebp]
  01860	8b 44 0a 20	 mov	 eax, DWORD PTR [edx+ecx+32]
  01864	50		 push	 eax
  01865	b9 00 00 00 00	 mov	 ecx, OFFSET ?gParty@@3VPartyClass@@A ; gParty
  0186a	e8 00 00 00 00	 call	 ?Create@PartyClass@@QAEHHHH@Z ; PartyClass::Create
  0186f	89 85 b8 fd ff
	ff		 mov	 DWORD PTR _loc145$234026[ebp], eax

; 489  : 
; 490  : 							if(loc145 == -1)

  01875	83 bd b8 fd ff
	ff ff		 cmp	 DWORD PTR _loc145$234026[ebp], -1
  0187c	75 2e		 jne	 SHORT $LN4@ProcState_

; 491  : 							{
; 492  : 								LogAddTD("[Illusion Temple] (%d) Party Create Error, (Team: %d)", this->m_btFloorIndex+1, this->m_FloorData[loc274].m_btTeamJoinSide);	

  0187e	8b 85 b4 fb ff
	ff		 mov	 eax, DWORD PTR _loc274$234031[ebp]
  01884	6b c0 30	 imul	 eax, 48			; 00000030H
  01887	8b 4d f8	 mov	 ecx, DWORD PTR _this$[ebp]
  0188a	0f b6 54 01 24	 movzx	 edx, BYTE PTR [ecx+eax+36]
  0188f	52		 push	 edx
  01890	8b 45 f8	 mov	 eax, DWORD PTR _this$[ebp]
  01893	0f b6 88 2c 02
	00 00		 movzx	 ecx, BYTE PTR [eax+556]
  0189a	83 c1 01	 add	 ecx, 1
  0189d	51		 push	 ecx
  0189e	68 00 00 00 00	 push	 OFFSET ??_C@_0DG@NEAACFEP@?$FLIllusion?5Temple?$FN?5?$CI?$CFd?$CJ?5Party?5Cre@
  018a3	ff 15 00 00 00
	00		 call	 DWORD PTR ?LogAddTD@@3P6AXPADZZA ; LogAddTD
  018a9	83 c4 0c	 add	 esp, 12			; 0000000cH
$LN4@ProcState_:

; 493  : 							}
; 494  : 
; 495  : 							gObj[this->m_FloorData[loc274].m_iTeamPlayerIndex].PartyNumber = loc145;

  018ac	8b 85 b4 fb ff
	ff		 mov	 eax, DWORD PTR _loc274$234031[ebp]
  018b2	6b c0 30	 imul	 eax, 48			; 00000030H
  018b5	8b 4d f8	 mov	 ecx, DWORD PTR _this$[ebp]
  018b8	8b 54 01 20	 mov	 edx, DWORD PTR [ecx+eax+32]
  018bc	69 d2 38 2b 00
	00		 imul	 edx, 11064		; 00002b38H
  018c2	a1 00 00 00 00	 mov	 eax, DWORD PTR ?gObj@@3PAUOBJECTSTRUCT@@A ; gObj
  018c7	8b 8d b8 fd ff
	ff		 mov	 ecx, DWORD PTR _loc145$234026[ebp]
  018cd	89 8c 10 2c 04
	00 00		 mov	 DWORD PTR [eax+edx+1068], ecx

; 496  : 						}
; 497  : 						else

  018d4	e9 ce 00 00 00	 jmp	 $LN1@ProcState_
$LN5@ProcState_:

; 498  : 						{
; 499  : 							int loc278 = gParty.Add(loc145, this->m_FloorData[loc274].m_iTeamPlayerIndex, gObj[this->m_FloorData[loc274].m_iTeamPlayerIndex].DBNumber, gObj[this->m_FloorData[loc274].m_iTeamPlayerIndex].Level);

  018d9	8b 85 b4 fb ff
	ff		 mov	 eax, DWORD PTR _loc274$234031[ebp]
  018df	6b c0 30	 imul	 eax, 48			; 00000030H
  018e2	8b 4d f8	 mov	 ecx, DWORD PTR _this$[ebp]
  018e5	8b 54 01 20	 mov	 edx, DWORD PTR [ecx+eax+32]
  018e9	69 d2 38 2b 00
	00		 imul	 edx, 11064		; 00002b38H
  018ef	a1 00 00 00 00	 mov	 eax, DWORD PTR ?gObj@@3PAUOBJECTSTRUCT@@A ; gObj
  018f4	0f bf 8c 10 be
	00 00 00	 movsx	 ecx, WORD PTR [eax+edx+190]
  018fc	51		 push	 ecx
  018fd	8b 95 b4 fb ff
	ff		 mov	 edx, DWORD PTR _loc274$234031[ebp]
  01903	6b d2 30	 imul	 edx, 48			; 00000030H
  01906	8b 45 f8	 mov	 eax, DWORD PTR _this$[ebp]
  01909	8b 4c 10 20	 mov	 ecx, DWORD PTR [eax+edx+32]
  0190d	69 c9 38 2b 00
	00		 imul	 ecx, 11064		; 00002b38H
  01913	8b 15 00 00 00
	00		 mov	 edx, DWORD PTR ?gObj@@3PAUOBJECTSTRUCT@@A ; gObj
  01919	8b 44 0a 2c	 mov	 eax, DWORD PTR [edx+ecx+44]
  0191d	50		 push	 eax
  0191e	8b 8d b4 fb ff
	ff		 mov	 ecx, DWORD PTR _loc274$234031[ebp]
  01924	6b c9 30	 imul	 ecx, 48			; 00000030H
  01927	8b 55 f8	 mov	 edx, DWORD PTR _this$[ebp]
  0192a	8b 44 0a 20	 mov	 eax, DWORD PTR [edx+ecx+32]
  0192e	50		 push	 eax
  0192f	8b 8d b8 fd ff
	ff		 mov	 ecx, DWORD PTR _loc145$234026[ebp]
  01935	51		 push	 ecx
  01936	b9 00 00 00 00	 mov	 ecx, OFFSET ?gParty@@3VPartyClass@@A ; gParty
  0193b	e8 00 00 00 00	 call	 ?Add@PartyClass@@QAEHHHHH@Z ; PartyClass::Add
  01940	89 85 a4 fb ff
	ff		 mov	 DWORD PTR _loc278$234072[ebp], eax

; 500  : 
; 501  : 							if(loc278 >= 0)

  01946	83 bd a4 fb ff
	ff 00		 cmp	 DWORD PTR _loc278$234072[ebp], 0
  0194d	7c 2a		 jl	 SHORT $LN2@ProcState_

; 502  : 							{
; 503  : 								gObj[this->m_FloorData[loc274].m_iTeamPlayerIndex].PartyNumber = loc145;

  0194f	8b 85 b4 fb ff
	ff		 mov	 eax, DWORD PTR _loc274$234031[ebp]
  01955	6b c0 30	 imul	 eax, 48			; 00000030H
  01958	8b 4d f8	 mov	 ecx, DWORD PTR _this$[ebp]
  0195b	8b 54 01 20	 mov	 edx, DWORD PTR [ecx+eax+32]
  0195f	69 d2 38 2b 00
	00		 imul	 edx, 11064		; 00002b38H
  01965	a1 00 00 00 00	 mov	 eax, DWORD PTR ?gObj@@3PAUOBJECTSTRUCT@@A ; gObj
  0196a	8b 8d b8 fd ff
	ff		 mov	 ecx, DWORD PTR _loc145$234026[ebp]
  01970	89 8c 10 2c 04
	00 00		 mov	 DWORD PTR [eax+edx+1068], ecx

; 504  : 							}
; 505  : 							else

  01977	eb 2e		 jmp	 SHORT $LN1@ProcState_
$LN2@ProcState_:

; 506  : 							{
; 507  : 								LogAddTD("[Illusion Temple] (%d) Party Add Error, (Team: %d)", this->m_btFloorIndex+1, this->m_FloorData[loc274].m_btTeamJoinSide);

  01979	8b 85 b4 fb ff
	ff		 mov	 eax, DWORD PTR _loc274$234031[ebp]
  0197f	6b c0 30	 imul	 eax, 48			; 00000030H
  01982	8b 4d f8	 mov	 ecx, DWORD PTR _this$[ebp]
  01985	0f b6 54 01 24	 movzx	 edx, BYTE PTR [ecx+eax+36]
  0198a	52		 push	 edx
  0198b	8b 45 f8	 mov	 eax, DWORD PTR _this$[ebp]
  0198e	0f b6 88 2c 02
	00 00		 movzx	 ecx, BYTE PTR [eax+556]
  01995	83 c1 01	 add	 ecx, 1
  01998	51		 push	 ecx
  01999	68 00 00 00 00	 push	 OFFSET ??_C@_0DD@OHOGJPCE@?$FLIllusion?5Temple?$FN?5?$CI?$CFd?$CJ?5Party?5Add@
  0199e	ff 15 00 00 00
	00		 call	 DWORD PTR ?LogAddTD@@3P6AXPADZZA ; LogAddTD
  019a4	83 c4 0c	 add	 esp, 12			; 0000000cH
$LN1@ProcState_:

; 508  : 							}
; 509  : 						}
; 510  : 
; 511  : 						gObjMoveGate(this->m_FloorData[loc274].m_iTeamPlayerIndex, this->m_btFloorIndex+154); //Temple

  019a7	8b 45 f8	 mov	 eax, DWORD PTR _this$[ebp]
  019aa	0f b6 88 2c 02
	00 00		 movzx	 ecx, BYTE PTR [eax+556]
  019b1	81 c1 9a 00 00
	00		 add	 ecx, 154		; 0000009aH
  019b7	51		 push	 ecx
  019b8	8b 95 b4 fb ff
	ff		 mov	 edx, DWORD PTR _loc274$234031[ebp]
  019be	6b d2 30	 imul	 edx, 48			; 00000030H
  019c1	8b 45 f8	 mov	 eax, DWORD PTR _this$[ebp]
  019c4	8b 4c 10 20	 mov	 ecx, DWORD PTR [eax+edx+32]
  019c8	51		 push	 ecx
  019c9	e8 00 00 00 00	 call	 ?gObjMoveGate@@YAHHH@Z	; gObjMoveGate
  019ce	83 c4 08	 add	 esp, 8

; 512  : 						gObj[this->m_FloorData[loc274].m_iTeamPlayerIndex].m_Change = 405; //"Illusion Sorcerer"

  019d1	8b 85 b4 fb ff
	ff		 mov	 eax, DWORD PTR _loc274$234031[ebp]
  019d7	6b c0 30	 imul	 eax, 48			; 00000030H
  019da	8b 4d f8	 mov	 ecx, DWORD PTR _this$[ebp]
  019dd	8b 54 01 20	 mov	 edx, DWORD PTR [ecx+eax+32]
  019e1	69 d2 38 2b 00
	00		 imul	 edx, 11064		; 00002b38H
  019e7	a1 00 00 00 00	 mov	 eax, DWORD PTR ?gObj@@3PAUOBJECTSTRUCT@@A ; gObj
  019ec	c7 84 10 54 04
	00 00 95 01 00
	00		 mov	 DWORD PTR [eax+edx+1108], 405 ; 00000195H

; 513  : 						gObjViewportListProtocolCreate(&gObj[this->m_FloorData[loc274].m_iTeamPlayerIndex]);

  019f7	8b 85 b4 fb ff
	ff		 mov	 eax, DWORD PTR _loc274$234031[ebp]
  019fd	6b c0 30	 imul	 eax, 48			; 00000030H
  01a00	8b 4d f8	 mov	 ecx, DWORD PTR _this$[ebp]
  01a03	8b 54 01 20	 mov	 edx, DWORD PTR [ecx+eax+32]
  01a07	69 d2 38 2b 00
	00		 imul	 edx, 11064		; 00002b38H
  01a0d	03 15 00 00 00
	00		 add	 edx, DWORD PTR ?gObj@@3PAUOBJECTSTRUCT@@A ; gObj
  01a13	52		 push	 edx
  01a14	e8 00 00 00 00	 call	 ?gObjViewportListProtocolCreate@@YAXPAUOBJECTSTRUCT@@@Z ; gObjViewportListProtocolCreate
  01a19	83 c4 04	 add	 esp, 4

; 514  : 
; 515  : 						this->m_iBlueTeamUserCount++;

  01a1c	8b 45 f8	 mov	 eax, DWORD PTR _this$[ebp]
  01a1f	8b 88 cc 03 00
	00		 mov	 ecx, DWORD PTR [eax+972]
  01a25	83 c1 01	 add	 ecx, 1
  01a28	8b 55 f8	 mov	 edx, DWORD PTR _this$[ebp]
  01a2b	89 8a cc 03 00
	00		 mov	 DWORD PTR [edx+972], ecx

; 516  : 						loc143++;

  01a31	8b 85 c0 fd ff
	ff		 mov	 eax, DWORD PTR _loc143$234024[ebp]
  01a37	83 c0 01	 add	 eax, 1
  01a3a	89 85 c0 fd ff
	ff		 mov	 DWORD PTR _loc143$234024[ebp], eax

; 517  : 
; 518  : 						int loc279 = strlen(szTemp1);

  01a40	8d 85 b8 fb ff
	ff		 lea	 eax, DWORD PTR _szTemp1$234029[ebp]
  01a46	50		 push	 eax
  01a47	e8 00 00 00 00	 call	 _strlen
  01a4c	83 c4 04	 add	 esp, 4
  01a4f	89 85 a0 fb ff
	ff		 mov	 DWORD PTR _loc279$234075[ebp], eax

; 519  : 
; 520  : 						sprintf(&szTemp1[loc279],"(%s),(%s) ",gObj[this->m_FloorData[loc274].m_iTeamPlayerIndex].AccountID,gObj[this->m_FloorData[loc274].m_iTeamPlayerIndex].Name);

  01a55	8b 85 b4 fb ff
	ff		 mov	 eax, DWORD PTR _loc274$234031[ebp]
  01a5b	6b c0 30	 imul	 eax, 48			; 00000030H
  01a5e	8b 4d f8	 mov	 ecx, DWORD PTR _this$[ebp]
  01a61	8b 54 01 20	 mov	 edx, DWORD PTR [ecx+eax+32]
  01a65	69 d2 38 2b 00
	00		 imul	 edx, 11064		; 00002b38H
  01a6b	a1 00 00 00 00	 mov	 eax, DWORD PTR ?gObj@@3PAUOBJECTSTRUCT@@A ; gObj
  01a70	8d 4c 10 77	 lea	 ecx, DWORD PTR [eax+edx+119]
  01a74	51		 push	 ecx
  01a75	8b 95 b4 fb ff
	ff		 mov	 edx, DWORD PTR _loc274$234031[ebp]
  01a7b	6b d2 30	 imul	 edx, 48			; 00000030H
  01a7e	8b 45 f8	 mov	 eax, DWORD PTR _this$[ebp]
  01a81	8b 4c 10 20	 mov	 ecx, DWORD PTR [eax+edx+32]
  01a85	69 c9 38 2b 00
	00		 imul	 ecx, 11064		; 00002b38H
  01a8b	8b 15 00 00 00
	00		 mov	 edx, DWORD PTR ?gObj@@3PAUOBJECTSTRUCT@@A ; gObj
  01a91	8d 44 0a 6c	 lea	 eax, DWORD PTR [edx+ecx+108]
  01a95	50		 push	 eax
  01a96	68 00 00 00 00	 push	 OFFSET ??_C@_0L@BPBFEMAA@?$CI?$CFs?$CJ?0?$CI?$CFs?$CJ?5?$AA@
  01a9b	8b 8d a0 fb ff
	ff		 mov	 ecx, DWORD PTR _loc279$234075[ebp]
  01aa1	8d 94 0d b8 fb
	ff ff		 lea	 edx, DWORD PTR _szTemp1$234029[ebp+ecx]
  01aa8	52		 push	 edx
  01aa9	e8 00 00 00 00	 call	 _sprintf
  01aae	83 c4 10	 add	 esp, 16			; 00000010H
$LN6@ProcState_:

; 521  : 					}
; 522  : 				}
; 523  : 			}

  01ab1	e9 47 f5 ff ff	 jmp	 $LN35@ProcState_
$LN34@ProcState_:

; 524  : 
; 525  : 			CGPartyListAll(loc144);

  01ab6	8b 85 bc fd ff
	ff		 mov	 eax, DWORD PTR _loc144$234025[ebp]
  01abc	50		 push	 eax
  01abd	e8 00 00 00 00	 call	 ?CGPartyListAll@@YAXH@Z	; CGPartyListAll
  01ac2	83 c4 04	 add	 esp, 4

; 526  : 			CGPartyListAll(loc145);

  01ac5	8b 85 b8 fd ff
	ff		 mov	 eax, DWORD PTR _loc145$234026[ebp]
  01acb	50		 push	 eax
  01acc	e8 00 00 00 00	 call	 ?CGPartyListAll@@YAXH@Z	; CGPartyListAll
  01ad1	83 c4 04	 add	 esp, 4

; 527  : 
; 528  : 			this->SetState(1);

  01ad4	6a 01		 push	 1
  01ad6	8b 4d f8	 mov	 ecx, DWORD PTR _this$[ebp]
  01ad9	e8 00 00 00 00	 call	 ?SetState@CIllusionTempleProcess@@QAEXE@Z ; CIllusionTempleProcess::SetState

; 529  : 
; 530  : 			LogAddTD("[Illusion Temple] (%d) Allied Team (%d),(%d), (%d), (%d), (%d)", this->m_btFloorIndex+1, this->m_btYellowTeamClassCount[0], this->m_btYellowTeamClassCount[1], this->m_btYellowTeamClassCount[2], this->m_btYellowTeamClassCount[3], this->m_btYellowTeamClassCount[4]);

  01ade	8b 45 f8	 mov	 eax, DWORD PTR _this$[ebp]
  01ae1	0f b6 88 d7 03
	00 00		 movzx	 ecx, BYTE PTR [eax+983]
  01ae8	51		 push	 ecx
  01ae9	8b 55 f8	 mov	 edx, DWORD PTR _this$[ebp]
  01aec	0f b6 82 d6 03
	00 00		 movzx	 eax, BYTE PTR [edx+982]
  01af3	50		 push	 eax
  01af4	8b 4d f8	 mov	 ecx, DWORD PTR _this$[ebp]
  01af7	0f b6 91 d5 03
	00 00		 movzx	 edx, BYTE PTR [ecx+981]
  01afe	52		 push	 edx
  01aff	8b 45 f8	 mov	 eax, DWORD PTR _this$[ebp]
  01b02	0f b6 88 d4 03
	00 00		 movzx	 ecx, BYTE PTR [eax+980]
  01b09	51		 push	 ecx
  01b0a	8b 55 f8	 mov	 edx, DWORD PTR _this$[ebp]
  01b0d	0f b6 82 d3 03
	00 00		 movzx	 eax, BYTE PTR [edx+979]
  01b14	50		 push	 eax
  01b15	8b 4d f8	 mov	 ecx, DWORD PTR _this$[ebp]
  01b18	0f b6 91 2c 02
	00 00		 movzx	 edx, BYTE PTR [ecx+556]
  01b1f	83 c2 01	 add	 edx, 1
  01b22	52		 push	 edx
  01b23	68 00 00 00 00	 push	 OFFSET ??_C@_0FJ@NIONHBBL@?$FLIllusion?5Temple?$FN?5?$CI?$CFd?$CJ?5Allied?5Te@
  01b28	ff 15 00 00 00
	00		 call	 DWORD PTR ?LogAddTD@@3P6AXPADZZA ; LogAddTD
  01b2e	83 c4 1c	 add	 esp, 28			; 0000001cH

; 531  : 
; 532  : 			LogAddTD(szTemp0);

  01b31	8d 85 b8 fc ff
	ff		 lea	 eax, DWORD PTR _szTemp0$234027[ebp]
  01b37	50		 push	 eax
  01b38	ff 15 00 00 00
	00		 call	 DWORD PTR ?LogAddTD@@3P6AXPADZZA ; LogAddTD
  01b3e	83 c4 04	 add	 esp, 4

; 533  : 
; 534  : 			LogAddTD("[Illusion Temple] (%d) Illusion Team (%d),(%d), (%d), (%d), (%d)", this->m_btFloorIndex+1, this->m_btBlueTeamClassCount[0], this->m_btBlueTeamClassCount[1], this->m_btBlueTeamClassCount[2], this->m_btBlueTeamClassCount[3], this->m_btBlueTeamClassCount[4]);

  01b41	8b 45 f8	 mov	 eax, DWORD PTR _this$[ebp]
  01b44	0f b6 88 de 03
	00 00		 movzx	 ecx, BYTE PTR [eax+990]
  01b4b	51		 push	 ecx
  01b4c	8b 55 f8	 mov	 edx, DWORD PTR _this$[ebp]
  01b4f	0f b6 82 dd 03
	00 00		 movzx	 eax, BYTE PTR [edx+989]
  01b56	50		 push	 eax
  01b57	8b 4d f8	 mov	 ecx, DWORD PTR _this$[ebp]
  01b5a	0f b6 91 dc 03
	00 00		 movzx	 edx, BYTE PTR [ecx+988]
  01b61	52		 push	 edx
  01b62	8b 45 f8	 mov	 eax, DWORD PTR _this$[ebp]
  01b65	0f b6 88 db 03
	00 00		 movzx	 ecx, BYTE PTR [eax+987]
  01b6c	51		 push	 ecx
  01b6d	8b 55 f8	 mov	 edx, DWORD PTR _this$[ebp]
  01b70	0f b6 82 da 03
	00 00		 movzx	 eax, BYTE PTR [edx+986]
  01b77	50		 push	 eax
  01b78	8b 4d f8	 mov	 ecx, DWORD PTR _this$[ebp]
  01b7b	0f b6 91 2c 02
	00 00		 movzx	 edx, BYTE PTR [ecx+556]
  01b82	83 c2 01	 add	 edx, 1
  01b85	52		 push	 edx
  01b86	68 00 00 00 00	 push	 OFFSET ??_C@_0FL@NAKEGMLC@?$FLIllusion?5Temple?$FN?5?$CI?$CFd?$CJ?5Illusion?5@
  01b8b	ff 15 00 00 00
	00		 call	 DWORD PTR ?LogAddTD@@3P6AXPADZZA ; LogAddTD
  01b91	83 c4 1c	 add	 esp, 28			; 0000001cH

; 535  : 
; 536  : 			LogAddTD(szTemp1);

  01b94	8d 85 b8 fb ff
	ff		 lea	 eax, DWORD PTR _szTemp1$234029[ebp]
  01b9a	50		 push	 eax
  01b9b	ff 15 00 00 00
	00		 call	 DWORD PTR ?LogAddTD@@3P6AXPADZZA ; LogAddTD
  01ba1	83 c4 04	 add	 esp, 4
$LN48@ProcState_:
$LN73@ProcState_:

; 537  : 		}
; 538  : 	}
; 539  : }

  01ba4	5f		 pop	 edi
  01ba5	5e		 pop	 esi
  01ba6	5b		 pop	 ebx
  01ba7	8b 4d fc	 mov	 ecx, DWORD PTR __$ArrayPad$[ebp]
  01baa	33 cd		 xor	 ecx, ebp
  01bac	e8 00 00 00 00	 call	 @__security_check_cookie@4
  01bb1	8b e5		 mov	 esp, ebp
  01bb3	5d		 pop	 ebp
  01bb4	c2 04 00	 ret	 4
?ProcState_Closed@CIllusionTempleProcess@@QAEXH@Z ENDP	; CIllusionTempleProcess::ProcState_Closed
_TEXT	ENDS
PUBLIC	?OperateMiniMapWork@CIllusionTempleProcess@@QAEXE@Z ; CIllusionTempleProcess::OperateMiniMapWork
; Function compile flags: /Odtp /ZI
_TEXT	SEGMENT
_i$234089 = -16						; size = 4
_pMsg$234087 = -12					; size = 4
_loc2$ = -8						; size = 4
_this$ = -4						; size = 4
_iTick$ = 8						; size = 4
?ProcState_Waiting@CIllusionTempleProcess@@QAEXH@Z PROC	; CIllusionTempleProcess::ProcState_Waiting
; _this$ = ecx

; 542  : {

  01bc0	55		 push	 ebp
  01bc1	8b ec		 mov	 ebp, esp
  01bc3	83 ec 50	 sub	 esp, 80			; 00000050H
  01bc6	53		 push	 ebx
  01bc7	56		 push	 esi
  01bc8	57		 push	 edi
  01bc9	89 4d fc	 mov	 DWORD PTR _this$[ebp], ecx

; 543  : 	int loc2 = iTick - this->m_iCloseTickCount;

  01bcc	8b 45 fc	 mov	 eax, DWORD PTR _this$[ebp]
  01bcf	8b 4d 08	 mov	 ecx, DWORD PTR _iTick$[ebp]
  01bd2	2b 88 a0 03 00
	00		 sub	 ecx, DWORD PTR [eax+928]
  01bd8	89 4d f8	 mov	 DWORD PTR _loc2$[ebp], ecx

; 544  : 
; 545  : 	if(loc2 >= 1000)

  01bdb	81 7d f8 e8 03
	00 00		 cmp	 DWORD PTR _loc2$[ebp], 1000 ; 000003e8H
  01be2	0f 8c 18 01 00
	00		 jl	 $LN11@ProcState_@2

; 546  : 	{
; 547  : 		this->m_iEventBattleTimer -= loc2;

  01be8	8b 45 fc	 mov	 eax, DWORD PTR _this$[ebp]
  01beb	8b 88 9c 03 00
	00		 mov	 ecx, DWORD PTR [eax+924]
  01bf1	2b 4d f8	 sub	 ecx, DWORD PTR _loc2$[ebp]
  01bf4	8b 55 fc	 mov	 edx, DWORD PTR _this$[ebp]
  01bf7	89 8a 9c 03 00
	00		 mov	 DWORD PTR [edx+924], ecx

; 548  : 		this->m_iCloseTickCount = iTick;

  01bfd	8b 45 fc	 mov	 eax, DWORD PTR _this$[ebp]
  01c00	8b 4d 08	 mov	 ecx, DWORD PTR _iTick$[ebp]
  01c03	89 88 a0 03 00
	00		 mov	 DWORD PTR [eax+928], ecx

; 549  : 
; 550  : 		if(this->m_iEventBattleTimer <= 30000)

  01c09	8b 45 fc	 mov	 eax, DWORD PTR _this$[ebp]
  01c0c	81 b8 9c 03 00
	00 30 75 00 00	 cmp	 DWORD PTR [eax+924], 30000 ; 00007530H
  01c16	0f 8f e4 00 00
	00		 jg	 $LN11@ProcState_@2

; 551  : 		{
; 552  : 			if(this->m_iEventBattleTimer > 0)

  01c1c	8b 45 fc	 mov	 eax, DWORD PTR _this$[ebp]
  01c1f	83 b8 9c 03 00
	00 00		 cmp	 DWORD PTR [eax+924], 0
  01c26	0f 8e d4 00 00
	00		 jle	 $LN11@ProcState_@2

; 553  : 			{
; 554  : 				if(this->m_bMsgBeforeEnterBattle == FALSE)

  01c2c	8b 45 fc	 mov	 eax, DWORD PTR _this$[ebp]
  01c2f	83 b8 b4 03 00
	00 00		 cmp	 DWORD PTR [eax+948], 0
  01c36	0f 85 c4 00 00
	00		 jne	 $LN11@ProcState_@2

; 555  : 				{
; 556  : 					this->m_bMsgBeforeEnterBattle = TRUE;

  01c3c	8b 45 fc	 mov	 eax, DWORD PTR _this$[ebp]
  01c3f	c7 80 b4 03 00
	00 01 00 00 00	 mov	 DWORD PTR [eax+948], 1

; 557  : 
; 558  : 					PMSG_SET_DEVILSQUARE pMsg;
; 559  : 
; 560  : 					PHeadSetB((LPBYTE)&pMsg, 0x92, sizeof(pMsg));

  01c49	6a 04		 push	 4
  01c4b	68 92 00 00 00	 push	 146			; 00000092H
  01c50	8d 45 f4	 lea	 eax, DWORD PTR _pMsg$234087[ebp]
  01c53	50		 push	 eax
  01c54	e8 00 00 00 00	 call	 ?PHeadSetB@@YAXPAEEH@Z	; PHeadSetB
  01c59	83 c4 0c	 add	 esp, 12			; 0000000cH

; 561  : 					pMsg.Type = 15;

  01c5c	c6 45 f7 0f	 mov	 BYTE PTR _pMsg$234087[ebp+3], 15 ; 0000000fH

; 562  : 
; 563  : 					for( int i = 0; i < MAX_FLOOR_USER; i++ )

  01c60	c7 45 f0 00 00
	00 00		 mov	 DWORD PTR _i$234089[ebp], 0
  01c67	eb 09		 jmp	 SHORT $LN7@ProcState_@2
$LN6@ProcState_@2:
  01c69	8b 45 f0	 mov	 eax, DWORD PTR _i$234089[ebp]
  01c6c	83 c0 01	 add	 eax, 1
  01c6f	89 45 f0	 mov	 DWORD PTR _i$234089[ebp], eax
$LN7@ProcState_@2:
  01c72	83 7d f0 0a	 cmp	 DWORD PTR _i$234089[ebp], 10 ; 0000000aH
  01c76	0f 8d 84 00 00
	00		 jge	 $LN11@ProcState_@2

; 564  : 					{
; 565  : 						if( this->m_FloorData[i].m_iTeamPlayerIndex != OBJ_EMPTY && gObj[this->m_FloorData[i].m_iTeamPlayerIndex].Connected > PLAYER_LOGGED)

  01c7c	8b 45 f0	 mov	 eax, DWORD PTR _i$234089[ebp]
  01c7f	6b c0 30	 imul	 eax, 48			; 00000030H
  01c82	8b 4d fc	 mov	 ecx, DWORD PTR _this$[ebp]
  01c85	83 7c 01 20 ff	 cmp	 DWORD PTR [ecx+eax+32], -1
  01c8a	74 6f		 je	 SHORT $LN4@ProcState_@2
  01c8c	8b 45 f0	 mov	 eax, DWORD PTR _i$234089[ebp]
  01c8f	6b c0 30	 imul	 eax, 48			; 00000030H
  01c92	8b 4d fc	 mov	 ecx, DWORD PTR _this$[ebp]
  01c95	8b 54 01 20	 mov	 edx, DWORD PTR [ecx+eax+32]
  01c99	69 d2 38 2b 00
	00		 imul	 edx, 11064		; 00002b38H
  01c9f	a1 00 00 00 00	 mov	 eax, DWORD PTR ?gObj@@3PAUOBJECTSTRUCT@@A ; gObj
  01ca4	83 7c 10 04 02	 cmp	 DWORD PTR [eax+edx+4], 2
  01ca9	7e 50		 jle	 SHORT $LN4@ProcState_@2

; 566  : 						{
; 567  : 							if( gObj[this->m_FloorData[i].m_iTeamPlayerIndex].MapNumber == (this->m_btFloorIndex + MAP_INDEX_ILLUSIONTEMPLE) )

  01cab	8b 45 f0	 mov	 eax, DWORD PTR _i$234089[ebp]
  01cae	6b c0 30	 imul	 eax, 48			; 00000030H
  01cb1	8b 4d fc	 mov	 ecx, DWORD PTR _this$[ebp]
  01cb4	8b 54 01 20	 mov	 edx, DWORD PTR [ecx+eax+32]
  01cb8	69 d2 38 2b 00
	00		 imul	 edx, 11064		; 00002b38H
  01cbe	a1 00 00 00 00	 mov	 eax, DWORD PTR ?gObj@@3PAUOBJECTSTRUCT@@A ; gObj
  01cc3	0f b6 8c 10 49
	01 00 00	 movzx	 ecx, BYTE PTR [eax+edx+329]
  01ccb	8b 55 fc	 mov	 edx, DWORD PTR _this$[ebp]
  01cce	0f b6 82 2c 02
	00 00		 movzx	 eax, BYTE PTR [edx+556]
  01cd5	83 c0 2d	 add	 eax, 45			; 0000002dH
  01cd8	3b c8		 cmp	 ecx, eax
  01cda	75 1f		 jne	 SHORT $LN4@ProcState_@2

; 568  : 							{
; 569  : 								DataSend(this->m_FloorData[i].m_iTeamPlayerIndex, (LPBYTE)&pMsg, pMsg.h.size);

  01cdc	0f b6 45 f5	 movzx	 eax, BYTE PTR _pMsg$234087[ebp+1]
  01ce0	50		 push	 eax
  01ce1	8d 4d f4	 lea	 ecx, DWORD PTR _pMsg$234087[ebp]
  01ce4	51		 push	 ecx
  01ce5	8b 55 f0	 mov	 edx, DWORD PTR _i$234089[ebp]
  01ce8	6b d2 30	 imul	 edx, 48			; 00000030H
  01ceb	8b 45 fc	 mov	 eax, DWORD PTR _this$[ebp]
  01cee	8b 4c 10 20	 mov	 ecx, DWORD PTR [eax+edx+32]
  01cf2	51		 push	 ecx
  01cf3	e8 00 00 00 00	 call	 ?DataSend@@YAHHPAEK@Z	; DataSend
  01cf8	83 c4 0c	 add	 esp, 12			; 0000000cH
$LN4@ProcState_@2:

; 570  : 							}
; 571  : 						}
; 572  : 					}

  01cfb	e9 69 ff ff ff	 jmp	 $LN6@ProcState_@2
$LN11@ProcState_@2:

; 573  : 				}
; 574  : 			}
; 575  : 		}
; 576  : 	}
; 577  : 
; 578  : 	if(this->m_iEnteredUserCount == 0)

  01d00	8b 45 fc	 mov	 eax, DWORD PTR _this$[ebp]
  01d03	83 b8 28 02 00
	00 00		 cmp	 DWORD PTR [eax+552], 0
  01d0a	75 0c		 jne	 SHORT $LN2@ProcState_@2

; 579  : 	{
; 580  : 		this->SetState(3);

  01d0c	6a 03		 push	 3
  01d0e	8b 4d fc	 mov	 ecx, DWORD PTR _this$[ebp]
  01d11	e8 00 00 00 00	 call	 ?SetState@CIllusionTempleProcess@@QAEXE@Z ; CIllusionTempleProcess::SetState

; 581  : 		return;

  01d16	eb 2a		 jmp	 SHORT $LN12@ProcState_@2
$LN2@ProcState_@2:

; 582  : 	}
; 583  : 
; 584  : 	if(this->m_iEventBattleTimer <= 0)

  01d18	8b 45 fc	 mov	 eax, DWORD PTR _this$[ebp]
  01d1b	83 b8 9c 03 00
	00 00		 cmp	 DWORD PTR [eax+924], 0
  01d22	7f 1e		 jg	 SHORT $LN12@ProcState_@2

; 585  : 	{
; 586  : 		this->SetState(2);

  01d24	6a 02		 push	 2
  01d26	8b 4d fc	 mov	 ecx, DWORD PTR _this$[ebp]
  01d29	e8 00 00 00 00	 call	 ?SetState@CIllusionTempleProcess@@QAEXE@Z ; CIllusionTempleProcess::SetState

; 587  : 		this->OperateMiniMapWork(0);

  01d2e	6a 00		 push	 0
  01d30	8b 4d fc	 mov	 ecx, DWORD PTR _this$[ebp]
  01d33	e8 00 00 00 00	 call	 ?OperateMiniMapWork@CIllusionTempleProcess@@QAEXE@Z ; CIllusionTempleProcess::OperateMiniMapWork

; 588  : 		this->OperateMiniMapWork(1);

  01d38	6a 01		 push	 1
  01d3a	8b 4d fc	 mov	 ecx, DWORD PTR _this$[ebp]
  01d3d	e8 00 00 00 00	 call	 ?OperateMiniMapWork@CIllusionTempleProcess@@QAEXE@Z ; CIllusionTempleProcess::OperateMiniMapWork
$LN12@ProcState_@2:

; 589  : 	}
; 590  : }

  01d42	5f		 pop	 edi
  01d43	5e		 pop	 esi
  01d44	5b		 pop	 ebx
  01d45	8b e5		 mov	 esp, ebp
  01d47	5d		 pop	 ebp
  01d48	c2 04 00	 ret	 4
?ProcState_Waiting@CIllusionTempleProcess@@QAEXH@Z ENDP	; CIllusionTempleProcess::ProcState_Waiting
_TEXT	ENDS
PUBLIC	?RegenNPCStatus@CIllusionTempleProcess@@QAEXXZ	; CIllusionTempleProcess::RegenNPCStatus
; Function compile flags: /Odtp /ZI
_TEXT	SEGMENT
_loc2$ = -8						; size = 4
_this$ = -4						; size = 4
_iTick$ = 8						; size = 4
?ProcState_Playing@CIllusionTempleProcess@@QAEXH@Z PROC	; CIllusionTempleProcess::ProcState_Playing
; _this$ = ecx

; 593  : {

  01d50	55		 push	 ebp
  01d51	8b ec		 mov	 ebp, esp
  01d53	83 ec 48	 sub	 esp, 72			; 00000048H
  01d56	53		 push	 ebx
  01d57	56		 push	 esi
  01d58	57		 push	 edi
  01d59	89 4d fc	 mov	 DWORD PTR _this$[ebp], ecx

; 594  : 	int loc2 = iTick - this->m_iCloseTickCount;

  01d5c	8b 45 fc	 mov	 eax, DWORD PTR _this$[ebp]
  01d5f	8b 4d 08	 mov	 ecx, DWORD PTR _iTick$[ebp]
  01d62	2b 88 a0 03 00
	00		 sub	 ecx, DWORD PTR [eax+928]
  01d68	89 4d f8	 mov	 DWORD PTR _loc2$[ebp], ecx

; 595  : 
; 596  : 	if(loc2 >= 1000)

  01d6b	81 7d f8 e8 03
	00 00		 cmp	 DWORD PTR _loc2$[ebp], 1000 ; 000003e8H
  01d72	7c 63		 jl	 SHORT $LN10@ProcState_@3

; 597  : 	{
; 598  : 		this->m_iEventBattleTimer -= loc2;

  01d74	8b 45 fc	 mov	 eax, DWORD PTR _this$[ebp]
  01d77	8b 88 9c 03 00
	00		 mov	 ecx, DWORD PTR [eax+924]
  01d7d	2b 4d f8	 sub	 ecx, DWORD PTR _loc2$[ebp]
  01d80	8b 55 fc	 mov	 edx, DWORD PTR _this$[ebp]
  01d83	89 8a 9c 03 00
	00		 mov	 DWORD PTR [edx+924], ecx

; 599  : 		this->m_iCloseTickCount = iTick;

  01d89	8b 45 fc	 mov	 eax, DWORD PTR _this$[ebp]
  01d8c	8b 4d 08	 mov	 ecx, DWORD PTR _iTick$[ebp]
  01d8f	89 88 a0 03 00
	00		 mov	 DWORD PTR [eax+928], ecx

; 600  : 
; 601  : 		if(this->m_iEventBattleTimer > 0)

  01d95	8b 45 fc	 mov	 eax, DWORD PTR _this$[ebp]
  01d98	83 b8 9c 03 00
	00 00		 cmp	 DWORD PTR [eax+924], 0
  01d9f	7e 14		 jle	 SHORT $LN9@ProcState_@3

; 602  : 		{
; 603  : 			this->OperateMiniMapWork(0);

  01da1	6a 00		 push	 0
  01da3	8b 4d fc	 mov	 ecx, DWORD PTR _this$[ebp]
  01da6	e8 00 00 00 00	 call	 ?OperateMiniMapWork@CIllusionTempleProcess@@QAEXE@Z ; CIllusionTempleProcess::OperateMiniMapWork

; 604  : 			this->OperateMiniMapWork(1);

  01dab	6a 01		 push	 1
  01dad	8b 4d fc	 mov	 ecx, DWORD PTR _this$[ebp]
  01db0	e8 00 00 00 00	 call	 ?OperateMiniMapWork@CIllusionTempleProcess@@QAEXE@Z ; CIllusionTempleProcess::OperateMiniMapWork
$LN9@ProcState_@3:

; 605  : 		}
; 606  : 
; 607  : 		if(this->m_iStatueRegenTickCount != -1 && this->m_iStatueRegenTickCount < iTick)

  01db5	8b 45 fc	 mov	 eax, DWORD PTR _this$[ebp]
  01db8	83 b8 94 03 00
	00 ff		 cmp	 DWORD PTR [eax+916], -1
  01dbf	74 16		 je	 SHORT $LN10@ProcState_@3
  01dc1	8b 45 fc	 mov	 eax, DWORD PTR _this$[ebp]
  01dc4	8b 88 94 03 00
	00		 mov	 ecx, DWORD PTR [eax+916]
  01dca	3b 4d 08	 cmp	 ecx, DWORD PTR _iTick$[ebp]
  01dcd	7d 08		 jge	 SHORT $LN10@ProcState_@3

; 608  : 		{
; 609  : 			this->RegenNPCStatus();

  01dcf	8b 4d fc	 mov	 ecx, DWORD PTR _this$[ebp]
  01dd2	e8 00 00 00 00	 call	 ?RegenNPCStatus@CIllusionTempleProcess@@QAEXXZ ; CIllusionTempleProcess::RegenNPCStatus
$LN10@ProcState_@3:

; 610  : 		}
; 611  : 	}
; 612  : 
; 613  : 	if(this->m_iEnteredUserCount == 0)

  01dd7	8b 45 fc	 mov	 eax, DWORD PTR _this$[ebp]
  01dda	83 b8 28 02 00
	00 00		 cmp	 DWORD PTR [eax+552], 0
  01de1	75 0f		 jne	 SHORT $LN7@ProcState_@3

; 614  : 	{
; 615  : 		this->SetState(3);

  01de3	6a 03		 push	 3
  01de5	8b 4d fc	 mov	 ecx, DWORD PTR _this$[ebp]
  01de8	e8 00 00 00 00	 call	 ?SetState@CIllusionTempleProcess@@QAEXE@Z ; CIllusionTempleProcess::SetState

; 616  : 		return;

  01ded	e9 b3 00 00 00	 jmp	 $LN11@ProcState_@3
$LN7@ProcState_@3:

; 617  : 	}
; 618  : 
; 619  : 	if(this->m_iEventBattleTimer <= 0 || this->m_btYellowTeamScore >= 7 || this->m_btBlueTeamScore >= 7 || this->m_iYellowTeamUserCount == 0 || this->m_iBlueTeamUserCount == 0)

  01df2	8b 45 fc	 mov	 eax, DWORD PTR _this$[ebp]
  01df5	83 b8 9c 03 00
	00 00		 cmp	 DWORD PTR [eax+924], 0
  01dfc	7e 36		 jle	 SHORT $LN5@ProcState_@3
  01dfe	8b 45 fc	 mov	 eax, DWORD PTR _this$[ebp]
  01e01	0f b6 88 d0 03
	00 00		 movzx	 ecx, BYTE PTR [eax+976]
  01e08	83 f9 07	 cmp	 ecx, 7
  01e0b	7d 27		 jge	 SHORT $LN5@ProcState_@3
  01e0d	8b 45 fc	 mov	 eax, DWORD PTR _this$[ebp]
  01e10	0f b6 88 d1 03
	00 00		 movzx	 ecx, BYTE PTR [eax+977]
  01e17	83 f9 07	 cmp	 ecx, 7
  01e1a	7d 18		 jge	 SHORT $LN5@ProcState_@3
  01e1c	8b 45 fc	 mov	 eax, DWORD PTR _this$[ebp]
  01e1f	83 b8 c8 03 00
	00 00		 cmp	 DWORD PTR [eax+968], 0
  01e26	74 0c		 je	 SHORT $LN5@ProcState_@3
  01e28	8b 45 fc	 mov	 eax, DWORD PTR _this$[ebp]
  01e2b	83 b8 cc 03 00
	00 00		 cmp	 DWORD PTR [eax+972], 0
  01e32	75 71		 jne	 SHORT $LN11@ProcState_@3
$LN5@ProcState_@3:

; 620  : 	{
; 621  : 		if(this->m_btYellowTeamScore >= 7 || this->m_btBlueTeamScore >= 7)

  01e34	8b 45 fc	 mov	 eax, DWORD PTR _this$[ebp]
  01e37	0f b6 88 d0 03
	00 00		 movzx	 ecx, BYTE PTR [eax+976]
  01e3e	83 f9 07	 cmp	 ecx, 7
  01e41	7d 0f		 jge	 SHORT $LN3@ProcState_@3
  01e43	8b 45 fc	 mov	 eax, DWORD PTR _this$[ebp]
  01e46	0f b6 88 d1 03
	00 00		 movzx	 ecx, BYTE PTR [eax+977]
  01e4d	83 f9 07	 cmp	 ecx, 7
  01e50	7c 35		 jl	 SHORT $LN4@ProcState_@3
$LN3@ProcState_@3:

; 622  : 		{
; 623  : 			if(this->m_iEventBattleTimer <= 0)

  01e52	8b 45 fc	 mov	 eax, DWORD PTR _this$[ebp]
  01e55	83 b8 9c 03 00
	00 00		 cmp	 DWORD PTR [eax+924], 0
  01e5c	7f 0f		 jg	 SHORT $LN2@ProcState_@3

; 624  : 			{
; 625  : 				this->m_iLeftMinutesBeforeEnd = 0;

  01e5e	8b 45 fc	 mov	 eax, DWORD PTR _this$[ebp]
  01e61	c7 80 a8 03 00
	00 00 00 00 00	 mov	 DWORD PTR [eax+936], 0

; 626  : 			}
; 627  : 			else

  01e6b	eb 1a		 jmp	 SHORT $LN4@ProcState_@3
$LN2@ProcState_@3:

; 628  : 			{
; 629  : 				this->m_iLeftMinutesBeforeEnd = this->m_iEventBattleTimer / 1000;

  01e6d	8b 45 fc	 mov	 eax, DWORD PTR _this$[ebp]
  01e70	8b 80 9c 03 00
	00		 mov	 eax, DWORD PTR [eax+924]
  01e76	99		 cdq
  01e77	b9 e8 03 00 00	 mov	 ecx, 1000		; 000003e8H
  01e7c	f7 f9		 idiv	 ecx
  01e7e	8b 55 fc	 mov	 edx, DWORD PTR _this$[ebp]
  01e81	89 82 a8 03 00
	00		 mov	 DWORD PTR [edx+936], eax
$LN4@ProcState_@3:

; 630  : 			}
; 631  : 		}
; 632  : 
; 633  : 		this->OperateMiniMapWork(0); //A-Team

  01e87	6a 00		 push	 0
  01e89	8b 4d fc	 mov	 ecx, DWORD PTR _this$[ebp]
  01e8c	e8 00 00 00 00	 call	 ?OperateMiniMapWork@CIllusionTempleProcess@@QAEXE@Z ; CIllusionTempleProcess::OperateMiniMapWork

; 634  : 		this->OperateMiniMapWork(1); //B-Team

  01e91	6a 01		 push	 1
  01e93	8b 4d fc	 mov	 ecx, DWORD PTR _this$[ebp]
  01e96	e8 00 00 00 00	 call	 ?OperateMiniMapWork@CIllusionTempleProcess@@QAEXE@Z ; CIllusionTempleProcess::OperateMiniMapWork

; 635  : 
; 636  : 		this->SetState(3);

  01e9b	6a 03		 push	 3
  01e9d	8b 4d fc	 mov	 ecx, DWORD PTR _this$[ebp]
  01ea0	e8 00 00 00 00	 call	 ?SetState@CIllusionTempleProcess@@QAEXE@Z ; CIllusionTempleProcess::SetState
$LN11@ProcState_@3:

; 637  : 	}
; 638  : }

  01ea5	5f		 pop	 edi
  01ea6	5e		 pop	 esi
  01ea7	5b		 pop	 ebx
  01ea8	8b e5		 mov	 esp, ebp
  01eaa	5d		 pop	 ebp
  01eab	c2 04 00	 ret	 4
?ProcState_Playing@CIllusionTempleProcess@@QAEXH@Z ENDP	; CIllusionTempleProcess::ProcState_Playing
_TEXT	ENDS
PUBLIC	?SendRewardScore@CIllusionTempleProcess@@QAEXXZ	; CIllusionTempleProcess::SendRewardScore
PUBLIC	?CalcSendRewardEXP@CIllusionTempleProcess@@QAEXXZ ; CIllusionTempleProcess::CalcSendRewardEXP
PUBLIC	?FindItemBallPosition@CIllusionTempleProcess@@QAEHH@Z ; CIllusionTempleProcess::FindItemBallPosition
EXTRN	?gObjSetPosition@@YAXHHH@Z:PROC			; gObjSetPosition
EXTRN	?m_i_IT_RestTime@@3HA:DWORD			; m_i_IT_RestTime
; Function compile flags: /Odtp /ZI
_TEXT	SEGMENT
_i$234122 = -12						; size = 4
_loc2$ = -8						; size = 4
_this$ = -4						; size = 4
_iTick$ = 8						; size = 4
?ProcState_Playend@CIllusionTempleProcess@@QAEXH@Z PROC	; CIllusionTempleProcess::ProcState_Playend
; _this$ = ecx

; 641  : {

  01eb0	55		 push	 ebp
  01eb1	8b ec		 mov	 ebp, esp
  01eb3	83 ec 4c	 sub	 esp, 76			; 0000004cH
  01eb6	53		 push	 ebx
  01eb7	56		 push	 esi
  01eb8	57		 push	 edi
  01eb9	89 4d fc	 mov	 DWORD PTR _this$[ebp], ecx

; 642  : 	int loc2 = iTick - this->m_iCloseTickCount;

  01ebc	8b 45 fc	 mov	 eax, DWORD PTR _this$[ebp]
  01ebf	8b 4d 08	 mov	 ecx, DWORD PTR _iTick$[ebp]
  01ec2	2b 88 a0 03 00
	00		 sub	 ecx, DWORD PTR [eax+928]
  01ec8	89 4d f8	 mov	 DWORD PTR _loc2$[ebp], ecx

; 643  : 
; 644  : 	if(loc2 >= 1000)

  01ecb	81 7d f8 e8 03
	00 00		 cmp	 DWORD PTR _loc2$[ebp], 1000 ; 000003e8H
  01ed2	0f 8c 93 02 00
	00		 jl	 $LN19@ProcState_@4

; 645  : 	{
; 646  : 		this->m_iEventBattleTimer -= loc2;

  01ed8	8b 45 fc	 mov	 eax, DWORD PTR _this$[ebp]
  01edb	8b 88 9c 03 00
	00		 mov	 ecx, DWORD PTR [eax+924]
  01ee1	2b 4d f8	 sub	 ecx, DWORD PTR _loc2$[ebp]
  01ee4	8b 55 fc	 mov	 edx, DWORD PTR _this$[ebp]
  01ee7	89 8a 9c 03 00
	00		 mov	 DWORD PTR [edx+924], ecx

; 647  : 		this->m_iCloseTickCount = iTick;

  01eed	8b 45 fc	 mov	 eax, DWORD PTR _this$[ebp]
  01ef0	8b 4d 08	 mov	 ecx, DWORD PTR _iTick$[ebp]
  01ef3	89 88 a0 03 00
	00		 mov	 DWORD PTR [eax+928], ecx

; 648  : 
; 649  : 		if(this->m_iEventBattleTimer <= 1000 * (m_i_IT_RestTime * 60) - 3000)

  01ef9	a1 00 00 00 00	 mov	 eax, DWORD PTR ?m_i_IT_RestTime@@3HA ; m_i_IT_RestTime
  01efe	6b c0 3c	 imul	 eax, 60			; 0000003cH
  01f01	69 c0 e8 03 00
	00		 imul	 eax, 1000		; 000003e8H
  01f07	2d b8 0b 00 00	 sub	 eax, 3000		; 00000bb8H
  01f0c	8b 4d fc	 mov	 ecx, DWORD PTR _this$[ebp]
  01f0f	39 81 9c 03 00
	00		 cmp	 DWORD PTR [ecx+924], eax
  01f15	0f 8f 50 02 00
	00		 jg	 $LN19@ProcState_@4

; 650  : 		{
; 651  : 			if(this->m_iEventBattleTimer > 0)

  01f1b	8b 45 fc	 mov	 eax, DWORD PTR _this$[ebp]
  01f1e	83 b8 9c 03 00
	00 00		 cmp	 DWORD PTR [eax+924], 0
  01f25	0f 8e 40 02 00
	00		 jle	 $LN19@ProcState_@4

; 652  : 			{
; 653  : 				if(this->m_bIllusionTempleEventEnded == FALSE)

  01f2b	8b 45 fc	 mov	 eax, DWORD PTR _this$[ebp]
  01f2e	83 b8 ac 03 00
	00 00		 cmp	 DWORD PTR [eax+940], 0
  01f35	0f 85 30 02 00
	00		 jne	 $LN19@ProcState_@4

; 654  : 				{
; 655  : 					this->m_bIllusionTempleEventEnded = TRUE;

  01f3b	8b 45 fc	 mov	 eax, DWORD PTR _this$[ebp]
  01f3e	c7 80 ac 03 00
	00 01 00 00 00	 mov	 DWORD PTR [eax+940], 1

; 656  : 
; 657  : 					for( int i = 0; i < MAX_FLOOR_USER; i++ )

  01f48	c7 45 f4 00 00
	00 00		 mov	 DWORD PTR _i$234122[ebp], 0
  01f4f	eb 09		 jmp	 SHORT $LN15@ProcState_@4
$LN14@ProcState_@4:
  01f51	8b 45 f4	 mov	 eax, DWORD PTR _i$234122[ebp]
  01f54	83 c0 01	 add	 eax, 1
  01f57	89 45 f4	 mov	 DWORD PTR _i$234122[ebp], eax
$LN15@ProcState_@4:
  01f5a	83 7d f4 0a	 cmp	 DWORD PTR _i$234122[ebp], 10 ; 0000000aH
  01f5e	0f 8d 3f 01 00
	00		 jge	 $LN13@ProcState_@4

; 658  : 					{
; 659  : 						if( this->m_FloorData[i].m_iTeamPlayerIndex != OBJ_EMPTY && gObj[this->m_FloorData[i].m_iTeamPlayerIndex].Connected > PLAYER_LOGGED)

  01f64	8b 45 f4	 mov	 eax, DWORD PTR _i$234122[ebp]
  01f67	6b c0 30	 imul	 eax, 48			; 00000030H
  01f6a	8b 4d fc	 mov	 ecx, DWORD PTR _this$[ebp]
  01f6d	83 7c 01 20 ff	 cmp	 DWORD PTR [ecx+eax+32], -1
  01f72	0f 84 26 01 00
	00		 je	 $LN12@ProcState_@4
  01f78	8b 45 f4	 mov	 eax, DWORD PTR _i$234122[ebp]
  01f7b	6b c0 30	 imul	 eax, 48			; 00000030H
  01f7e	8b 4d fc	 mov	 ecx, DWORD PTR _this$[ebp]
  01f81	8b 54 01 20	 mov	 edx, DWORD PTR [ecx+eax+32]
  01f85	69 d2 38 2b 00
	00		 imul	 edx, 11064		; 00002b38H
  01f8b	a1 00 00 00 00	 mov	 eax, DWORD PTR ?gObj@@3PAUOBJECTSTRUCT@@A ; gObj
  01f90	83 7c 10 04 02	 cmp	 DWORD PTR [eax+edx+4], 2
  01f95	0f 8e 03 01 00
	00		 jle	 $LN12@ProcState_@4

; 660  : 						{
; 661  : 							if( gObj[this->m_FloorData[i].m_iTeamPlayerIndex].MapNumber == (this->m_btFloorIndex + MAP_INDEX_ILLUSIONTEMPLE) )

  01f9b	8b 45 f4	 mov	 eax, DWORD PTR _i$234122[ebp]
  01f9e	6b c0 30	 imul	 eax, 48			; 00000030H
  01fa1	8b 4d fc	 mov	 ecx, DWORD PTR _this$[ebp]
  01fa4	8b 54 01 20	 mov	 edx, DWORD PTR [ecx+eax+32]
  01fa8	69 d2 38 2b 00
	00		 imul	 edx, 11064		; 00002b38H
  01fae	a1 00 00 00 00	 mov	 eax, DWORD PTR ?gObj@@3PAUOBJECTSTRUCT@@A ; gObj
  01fb3	0f b6 8c 10 49
	01 00 00	 movzx	 ecx, BYTE PTR [eax+edx+329]
  01fbb	8b 55 fc	 mov	 edx, DWORD PTR _this$[ebp]
  01fbe	0f b6 82 2c 02
	00 00		 movzx	 eax, BYTE PTR [edx+556]
  01fc5	83 c0 2d	 add	 eax, 45			; 0000002dH
  01fc8	3b c8		 cmp	 ecx, eax
  01fca	0f 85 ce 00 00
	00		 jne	 $LN12@ProcState_@4

; 662  : 							{
; 663  : 								if(this->m_FloorData[i].m_btTeamJoinSide == 0)

  01fd0	8b 45 f4	 mov	 eax, DWORD PTR _i$234122[ebp]
  01fd3	6b c0 30	 imul	 eax, 48			; 00000030H
  01fd6	8b 4d fc	 mov	 ecx, DWORD PTR _this$[ebp]
  01fd9	0f b6 54 01 24	 movzx	 edx, BYTE PTR [ecx+eax+36]
  01fde	85 d2		 test	 edx, edx
  01fe0	75 29		 jne	 SHORT $LN10@ProcState_@4

; 664  : 								{
; 665  : 									gObjMoveGate(this->m_FloorData[i].m_iTeamPlayerIndex, this->m_btFloorIndex + 148); //Battle Map Scene

  01fe2	8b 45 fc	 mov	 eax, DWORD PTR _this$[ebp]
  01fe5	0f b6 88 2c 02
	00 00		 movzx	 ecx, BYTE PTR [eax+556]
  01fec	81 c1 94 00 00
	00		 add	 ecx, 148		; 00000094H
  01ff2	51		 push	 ecx
  01ff3	8b 55 f4	 mov	 edx, DWORD PTR _i$234122[ebp]
  01ff6	6b d2 30	 imul	 edx, 48			; 00000030H
  01ff9	8b 45 fc	 mov	 eax, DWORD PTR _this$[ebp]
  01ffc	8b 4c 10 20	 mov	 ecx, DWORD PTR [eax+edx+32]
  02000	51		 push	 ecx
  02001	e8 00 00 00 00	 call	 ?gObjMoveGate@@YAHHH@Z	; gObjMoveGate
  02006	83 c4 08	 add	 esp, 8
  02009	eb 3a		 jmp	 SHORT $LN9@ProcState_@4
$LN10@ProcState_@4:

; 666  : 								}
; 667  : 								else if(this->m_FloorData[i].m_btTeamJoinSide == 1)

  0200b	8b 45 f4	 mov	 eax, DWORD PTR _i$234122[ebp]
  0200e	6b c0 30	 imul	 eax, 48			; 00000030H
  02011	8b 4d fc	 mov	 ecx, DWORD PTR _this$[ebp]
  02014	0f b6 54 01 24	 movzx	 edx, BYTE PTR [ecx+eax+36]
  02019	83 fa 01	 cmp	 edx, 1
  0201c	75 27		 jne	 SHORT $LN9@ProcState_@4

; 668  : 								{
; 669  : 									gObjMoveGate(this->m_FloorData[i].m_iTeamPlayerIndex, this->m_btFloorIndex + 154); //Battle Map Scene

  0201e	8b 45 fc	 mov	 eax, DWORD PTR _this$[ebp]
  02021	0f b6 88 2c 02
	00 00		 movzx	 ecx, BYTE PTR [eax+556]
  02028	81 c1 9a 00 00
	00		 add	 ecx, 154		; 0000009aH
  0202e	51		 push	 ecx
  0202f	8b 55 f4	 mov	 edx, DWORD PTR _i$234122[ebp]
  02032	6b d2 30	 imul	 edx, 48			; 00000030H
  02035	8b 45 fc	 mov	 eax, DWORD PTR _this$[ebp]
  02038	8b 4c 10 20	 mov	 ecx, DWORD PTR [eax+edx+32]
  0203c	51		 push	 ecx
  0203d	e8 00 00 00 00	 call	 ?gObjMoveGate@@YAHHH@Z	; gObjMoveGate
  02042	83 c4 08	 add	 esp, 8
$LN9@ProcState_@4:

; 670  : 								}
; 671  : 
; 672  : 								gObjSetPosition(this->m_FloorData[i].m_iTeamPlayerIndex, gObj[this->m_FloorData[i].m_iTeamPlayerIndex].X, gObj[this->m_FloorData[i].m_iTeamPlayerIndex].Y);

  02045	8b 45 f4	 mov	 eax, DWORD PTR _i$234122[ebp]
  02048	6b c0 30	 imul	 eax, 48			; 00000030H
  0204b	8b 4d fc	 mov	 ecx, DWORD PTR _this$[ebp]
  0204e	8b 54 01 20	 mov	 edx, DWORD PTR [ecx+eax+32]
  02052	69 d2 38 2b 00
	00		 imul	 edx, 11064		; 00002b38H
  02058	a1 00 00 00 00	 mov	 eax, DWORD PTR ?gObj@@3PAUOBJECTSTRUCT@@A ; gObj
  0205d	0f bf 8c 10 46
	01 00 00	 movsx	 ecx, WORD PTR [eax+edx+326]
  02065	51		 push	 ecx
  02066	8b 55 f4	 mov	 edx, DWORD PTR _i$234122[ebp]
  02069	6b d2 30	 imul	 edx, 48			; 00000030H
  0206c	8b 45 fc	 mov	 eax, DWORD PTR _this$[ebp]
  0206f	8b 4c 10 20	 mov	 ecx, DWORD PTR [eax+edx+32]
  02073	69 c9 38 2b 00
	00		 imul	 ecx, 11064		; 00002b38H
  02079	8b 15 00 00 00
	00		 mov	 edx, DWORD PTR ?gObj@@3PAUOBJECTSTRUCT@@A ; gObj
  0207f	0f bf 84 0a 44
	01 00 00	 movsx	 eax, WORD PTR [edx+ecx+324]
  02087	50		 push	 eax
  02088	8b 4d f4	 mov	 ecx, DWORD PTR _i$234122[ebp]
  0208b	6b c9 30	 imul	 ecx, 48			; 00000030H
  0208e	8b 55 fc	 mov	 edx, DWORD PTR _this$[ebp]
  02091	8b 44 0a 20	 mov	 eax, DWORD PTR [edx+ecx+32]
  02095	50		 push	 eax
  02096	e8 00 00 00 00	 call	 ?gObjSetPosition@@YAXHHH@Z ; gObjSetPosition
  0209b	83 c4 0c	 add	 esp, 12			; 0000000cH
$LN12@ProcState_@4:

; 673  : 							}
; 674  : 						}
; 675  : 					}

  0209e	e9 ae fe ff ff	 jmp	 $LN14@ProcState_@4
$LN13@ProcState_@4:

; 676  : 
; 677  : 					if(this->m_iBallPlayerIndex >= 0 && FindItemBallPosition(iTick) >= 0)

  020a3	8b 45 fc	 mov	 eax, DWORD PTR _this$[ebp]
  020a6	83 b8 b8 03 00
	00 00		 cmp	 DWORD PTR [eax+952], 0
  020ad	0f 8c b0 00 00
	00		 jl	 $LN7@ProcState_@4
  020b3	8b 45 08	 mov	 eax, DWORD PTR _iTick$[ebp]
  020b6	50		 push	 eax
  020b7	8b 4d fc	 mov	 ecx, DWORD PTR _this$[ebp]
  020ba	e8 00 00 00 00	 call	 ?FindItemBallPosition@CIllusionTempleProcess@@QAEHH@Z ; CIllusionTempleProcess::FindItemBallPosition
  020bf	85 c0		 test	 eax, eax
  020c1	0f 8c 9c 00 00
	00		 jl	 $LN7@ProcState_@4

; 678  : 					{
; 679  : 						if(gObj[this->m_iBallPlayerIndex].pInventory[FindItemBallPosition(iTick)].m_Type == ITEMGET(14,64))

  020c7	8b 45 fc	 mov	 eax, DWORD PTR _this$[ebp]
  020ca	8b b0 b8 03 00
	00		 mov	 esi, DWORD PTR [eax+952]
  020d0	69 f6 38 2b 00
	00		 imul	 esi, 11064		; 00002b38H
  020d6	8b 4d 08	 mov	 ecx, DWORD PTR _iTick$[ebp]
  020d9	51		 push	 ecx
  020da	8b 4d fc	 mov	 ecx, DWORD PTR _this$[ebp]
  020dd	e8 00 00 00 00	 call	 ?FindItemBallPosition@CIllusionTempleProcess@@QAEHH@Z ; CIllusionTempleProcess::FindItemBallPosition
  020e2	69 c0 d4 00 00
	00		 imul	 eax, 212		; 000000d4H
  020e8	8b 15 00 00 00
	00		 mov	 edx, DWORD PTR ?gObj@@3PAUOBJECTSTRUCT@@A ; gObj
  020ee	8b 8c 32 24 0e
	00 00		 mov	 ecx, DWORD PTR [edx+esi+3620]
  020f5	0f bf 54 01 06	 movsx	 edx, WORD PTR [ecx+eax+6]
  020fa	81 fa 40 1c 00
	00		 cmp	 edx, 7232		; 00001c40H
  02100	75 61		 jne	 SHORT $LN7@ProcState_@4

; 680  : 						{
; 681  : 							::gObjInventoryDeleteItem(this->m_iBallPlayerIndex, FindItemBallPosition(iTick));

  02102	8b 45 08	 mov	 eax, DWORD PTR _iTick$[ebp]
  02105	50		 push	 eax
  02106	8b 4d fc	 mov	 ecx, DWORD PTR _this$[ebp]
  02109	e8 00 00 00 00	 call	 ?FindItemBallPosition@CIllusionTempleProcess@@QAEHH@Z ; CIllusionTempleProcess::FindItemBallPosition
  0210e	50		 push	 eax
  0210f	8b 4d fc	 mov	 ecx, DWORD PTR _this$[ebp]
  02112	8b 91 b8 03 00
	00		 mov	 edx, DWORD PTR [ecx+952]
  02118	52		 push	 edx
  02119	e8 00 00 00 00	 call	 ?gObjInventoryDeleteItem@@YAEHH@Z ; gObjInventoryDeleteItem
  0211e	83 c4 08	 add	 esp, 8

; 682  : 							::GCInventoryItemDeleteSend(this->m_iBallPlayerIndex, FindItemBallPosition(iTick), 0);

  02121	6a 00		 push	 0
  02123	8b 45 08	 mov	 eax, DWORD PTR _iTick$[ebp]
  02126	50		 push	 eax
  02127	8b 4d fc	 mov	 ecx, DWORD PTR _this$[ebp]
  0212a	e8 00 00 00 00	 call	 ?FindItemBallPosition@CIllusionTempleProcess@@QAEHH@Z ; CIllusionTempleProcess::FindItemBallPosition
  0212f	50		 push	 eax
  02130	8b 4d fc	 mov	 ecx, DWORD PTR _this$[ebp]
  02133	8b 91 b8 03 00
	00		 mov	 edx, DWORD PTR [ecx+952]
  02139	52		 push	 edx
  0213a	e8 00 00 00 00	 call	 ?GCInventoryItemDeleteSend@@YAXHEE@Z ; GCInventoryItemDeleteSend
  0213f	83 c4 0c	 add	 esp, 12			; 0000000cH

; 683  : 
; 684  : 							this->m_iBallPlayerIndex = -1;

  02142	8b 45 fc	 mov	 eax, DWORD PTR _this$[ebp]
  02145	c7 80 b8 03 00
	00 ff ff ff ff	 mov	 DWORD PTR [eax+952], -1

; 685  : 							this->m_btBallInventoryPosition = (BYTE)-1;

  0214f	8b 45 fc	 mov	 eax, DWORD PTR _this$[ebp]
  02152	c6 80 bd 03 00
	00 ff		 mov	 BYTE PTR [eax+957], 255	; 000000ffH

; 686  : 							this->m_btAllowedRegPedestal = (BYTE)-1;

  02159	8b 45 fc	 mov	 eax, DWORD PTR _this$[ebp]
  0215c	c6 80 bc 03 00
	00 ff		 mov	 BYTE PTR [eax+956], 255	; 000000ffH
$LN7@ProcState_@4:

; 687  : 						}
; 688  : 					}
; 689  : 
; 690  : 					this->CalcSendRewardEXP();

  02163	8b 4d fc	 mov	 ecx, DWORD PTR _this$[ebp]
  02166	e8 00 00 00 00	 call	 ?CalcSendRewardEXP@CIllusionTempleProcess@@QAEXXZ ; CIllusionTempleProcess::CalcSendRewardEXP
$LN19@ProcState_@4:

; 691  : 				}
; 692  : 			}
; 693  : 		}
; 694  : 	}
; 695  : 
; 696  : 	if(this->m_iEventBattleTimer <= 1000 * (m_i_IT_RestTime * 60) - 6000)

  0216b	a1 00 00 00 00	 mov	 eax, DWORD PTR ?m_i_IT_RestTime@@3HA ; m_i_IT_RestTime
  02170	6b c0 3c	 imul	 eax, 60			; 0000003cH
  02173	69 c0 e8 03 00
	00		 imul	 eax, 1000		; 000003e8H
  02179	2d 70 17 00 00	 sub	 eax, 6000		; 00001770H
  0217e	8b 4d fc	 mov	 ecx, DWORD PTR _this$[ebp]
  02181	39 81 9c 03 00
	00		 cmp	 DWORD PTR [ecx+924], eax
  02187	7f 39		 jg	 SHORT $LN5@ProcState_@4

; 697  : 	{
; 698  : 		if(this->m_iEventBattleTimer > 0)

  02189	8b 45 fc	 mov	 eax, DWORD PTR _this$[ebp]
  0218c	83 b8 9c 03 00
	00 00		 cmp	 DWORD PTR [eax+924], 0
  02193	7e 2d		 jle	 SHORT $LN5@ProcState_@4

; 699  : 		{
; 700  : 			if(this->m_bIllusionTempleEventEnded == TRUE)

  02195	8b 45 fc	 mov	 eax, DWORD PTR _this$[ebp]
  02198	83 b8 ac 03 00
	00 01		 cmp	 DWORD PTR [eax+940], 1
  0219f	75 21		 jne	 SHORT $LN5@ProcState_@4

; 701  : 			{
; 702  : 				if(this->m_bScoreRankSet == FALSE)

  021a1	8b 45 fc	 mov	 eax, DWORD PTR _this$[ebp]
  021a4	83 b8 e8 03 00
	00 00		 cmp	 DWORD PTR [eax+1000], 0
  021ab	75 15		 jne	 SHORT $LN5@ProcState_@4

; 703  : 				{
; 704  : 					this->SendRewardScore();

  021ad	8b 4d fc	 mov	 ecx, DWORD PTR _this$[ebp]
  021b0	e8 00 00 00 00	 call	 ?SendRewardScore@CIllusionTempleProcess@@QAEXXZ ; CIllusionTempleProcess::SendRewardScore

; 705  : 					this->m_bScoreRankSet = TRUE;

  021b5	8b 45 fc	 mov	 eax, DWORD PTR _this$[ebp]
  021b8	c7 80 e8 03 00
	00 01 00 00 00	 mov	 DWORD PTR [eax+1000], 1
$LN5@ProcState_@4:

; 706  : 				}
; 707  : 			}
; 708  : 		}
; 709  : 	}
; 710  : 
; 711  : 	if(this->m_iEventBattleTimer <= 0)

  021c2	8b 45 fc	 mov	 eax, DWORD PTR _this$[ebp]
  021c5	83 b8 9c 03 00
	00 00		 cmp	 DWORD PTR [eax+924], 0
  021cc	7f 0a		 jg	 SHORT $LN20@ProcState_@4

; 712  : 	{
; 713  : 		this->SetState(0);

  021ce	6a 00		 push	 0
  021d0	8b 4d fc	 mov	 ecx, DWORD PTR _this$[ebp]
  021d3	e8 00 00 00 00	 call	 ?SetState@CIllusionTempleProcess@@QAEXE@Z ; CIllusionTempleProcess::SetState
$LN20@ProcState_@4:

; 714  : 	}
; 715  : }

  021d8	5f		 pop	 edi
  021d9	5e		 pop	 esi
  021da	5b		 pop	 ebx
  021db	8b e5		 mov	 esp, ebp
  021dd	5d		 pop	 ebp
  021de	c2 04 00	 ret	 4
?ProcState_Playend@CIllusionTempleProcess@@QAEXH@Z ENDP	; CIllusionTempleProcess::ProcState_Playend
_TEXT	ENDS
PUBLIC	?SetState_END@CIllusionTempleProcess@@QAEXXZ	; CIllusionTempleProcess::SetState_END
PUBLIC	?SetState_PLAYING@CIllusionTempleProcess@@QAEXXZ ; CIllusionTempleProcess::SetState_PLAYING
PUBLIC	?SetState_READY@CIllusionTempleProcess@@QAEXXZ	; CIllusionTempleProcess::SetState_READY
PUBLIC	?SetState_NONE@CIllusionTempleProcess@@QAEXXZ	; CIllusionTempleProcess::SetState_NONE
; Function compile flags: /Odtp /ZI
_TEXT	SEGMENT
tv66 = -72						; size = 4
_this$ = -4						; size = 4
_State$ = 8						; size = 1
?SetState@CIllusionTempleProcess@@QAEXE@Z PROC		; CIllusionTempleProcess::SetState
; _this$ = ecx

; 718  : {

  021f0	55		 push	 ebp
  021f1	8b ec		 mov	 ebp, esp
  021f3	83 ec 48	 sub	 esp, 72			; 00000048H
  021f6	53		 push	 ebx
  021f7	56		 push	 esi
  021f8	57		 push	 edi
  021f9	89 4d fc	 mov	 DWORD PTR _this$[ebp], ecx

; 719  : 	this->m_btState = State;

  021fc	8b 45 fc	 mov	 eax, DWORD PTR _this$[ebp]
  021ff	8a 4d 08	 mov	 cl, BYTE PTR _State$[ebp]
  02202	88 88 2d 02 00
	00		 mov	 BYTE PTR [eax+557], cl

; 720  : 
; 721  : 	switch( State )

  02208	0f b6 45 08	 movzx	 eax, BYTE PTR _State$[ebp]
  0220c	89 45 b8	 mov	 DWORD PTR tv66[ebp], eax
  0220f	83 7d b8 03	 cmp	 DWORD PTR tv66[ebp], 3
  02213	77 30		 ja	 SHORT $LN7@SetState
  02215	8b 4d b8	 mov	 ecx, DWORD PTR tv66[ebp]
  02218	ff 24 8d 00 00
	00 00		 jmp	 DWORD PTR $LN9@SetState[ecx*4]
$LN4@SetState:

; 722  : 	{
; 723  : 		case 0: //Closed waiting for Open
; 724  : 			this->SetState_NONE();

  0221f	8b 4d fc	 mov	 ecx, DWORD PTR _this$[ebp]
  02222	e8 00 00 00 00	 call	 ?SetState_NONE@CIllusionTempleProcess@@QAEXXZ ; CIllusionTempleProcess::SetState_NONE

; 725  : 			break;

  02227	eb 1c		 jmp	 SHORT $LN7@SetState
$LN3@SetState:

; 726  : 		case 1: //Playing (inside temple before battle)
; 727  : 			this->SetState_READY();

  02229	8b 4d fc	 mov	 ecx, DWORD PTR _this$[ebp]
  0222c	e8 00 00 00 00	 call	 ?SetState_READY@CIllusionTempleProcess@@QAEXXZ ; CIllusionTempleProcess::SetState_READY

; 728  : 			break;

  02231	eb 12		 jmp	 SHORT $LN7@SetState
$LN2@SetState:

; 729  : 		case 2: //Battle of 15 minutes
; 730  : 			this->SetState_PLAYING();

  02233	8b 4d fc	 mov	 ecx, DWORD PTR _this$[ebp]
  02236	e8 00 00 00 00	 call	 ?SetState_PLAYING@CIllusionTempleProcess@@QAEXXZ ; CIllusionTempleProcess::SetState_PLAYING

; 731  : 			break;

  0223b	eb 08		 jmp	 SHORT $LN7@SetState
$LN1@SetState:

; 732  : 		case 3: //After Battle (Score waiting minutes)
; 733  : 			this->SetState_END();

  0223d	8b 4d fc	 mov	 ecx, DWORD PTR _this$[ebp]
  02240	e8 00 00 00 00	 call	 ?SetState_END@CIllusionTempleProcess@@QAEXXZ ; CIllusionTempleProcess::SetState_END
$LN7@SetState:

; 734  : 			break;
; 735  : 	}
; 736  : }

  02245	5f		 pop	 edi
  02246	5e		 pop	 esi
  02247	5b		 pop	 ebx
  02248	8b e5		 mov	 esp, ebp
  0224a	5d		 pop	 ebp
  0224b	c2 04 00	 ret	 4
  0224e	8b ff		 npad	 2
$LN9@SetState:
  02250	00 00 00 00	 DD	 $LN4@SetState
  02254	00 00 00 00	 DD	 $LN3@SetState
  02258	00 00 00 00	 DD	 $LN2@SetState
  0225c	00 00 00 00	 DD	 $LN1@SetState
?SetState@CIllusionTempleProcess@@QAEXE@Z ENDP		; CIllusionTempleProcess::SetState
_TEXT	ENDS
PUBLIC	?GetState@CIllusionTempleProcess@@QAEEXZ	; CIllusionTempleProcess::GetState
; Function compile flags: /Odtp /ZI
_TEXT	SEGMENT
_this$ = -4						; size = 4
?GetState@CIllusionTempleProcess@@QAEEXZ PROC		; CIllusionTempleProcess::GetState
; _this$ = ecx

; 739  : {

  02260	55		 push	 ebp
  02261	8b ec		 mov	 ebp, esp
  02263	83 ec 44	 sub	 esp, 68			; 00000044H
  02266	53		 push	 ebx
  02267	56		 push	 esi
  02268	57		 push	 edi
  02269	89 4d fc	 mov	 DWORD PTR _this$[ebp], ecx

; 740  : 	return this->m_btState;

  0226c	8b 45 fc	 mov	 eax, DWORD PTR _this$[ebp]
  0226f	8a 80 2d 02 00
	00		 mov	 al, BYTE PTR [eax+557]

; 741  : }

  02275	5f		 pop	 edi
  02276	5e		 pop	 esi
  02277	5b		 pop	 ebx
  02278	8b e5		 mov	 esp, ebp
  0227a	5d		 pop	 ebp
  0227b	c3		 ret	 0
?GetState@CIllusionTempleProcess@@QAEEXZ ENDP		; CIllusionTempleProcess::GetState
_TEXT	ENDS
PUBLIC	?NotifyTempleInfo@CIllusionTempleProcess@@QAEXEH@Z ; CIllusionTempleProcess::NotifyTempleInfo
; Function compile flags: /Odtp /ZI
_TEXT	SEGMENT
_i$234158 = -8						; size = 4
_this$ = -4						; size = 4
?SetState_NONE@CIllusionTempleProcess@@QAEXXZ PROC	; CIllusionTempleProcess::SetState_NONE
; _this$ = ecx

; 744  : {

  02280	55		 push	 ebp
  02281	8b ec		 mov	 ebp, esp
  02283	83 ec 48	 sub	 esp, 72			; 00000048H
  02286	53		 push	 ebx
  02287	56		 push	 esi
  02288	57		 push	 edi
  02289	89 4d fc	 mov	 DWORD PTR _this$[ebp], ecx

; 745  : 	this->NotifyTempleInfo(0,-1);

  0228c	6a ff		 push	 -1
  0228e	6a 00		 push	 0
  02290	8b 4d fc	 mov	 ecx, DWORD PTR _this$[ebp]
  02293	e8 00 00 00 00	 call	 ?NotifyTempleInfo@CIllusionTempleProcess@@QAEXEH@Z ; CIllusionTempleProcess::NotifyTempleInfo

; 746  : 
; 747  : 	for( int i = 0; i < MAX_FLOOR_USER; i++ )

  02298	c7 45 f8 00 00
	00 00		 mov	 DWORD PTR _i$234158[ebp], 0
  0229f	eb 09		 jmp	 SHORT $LN6@SetState_N
$LN5@SetState_N:
  022a1	8b 45 f8	 mov	 eax, DWORD PTR _i$234158[ebp]
  022a4	83 c0 01	 add	 eax, 1
  022a7	89 45 f8	 mov	 DWORD PTR _i$234158[ebp], eax
$LN6@SetState_N:
  022aa	83 7d f8 0a	 cmp	 DWORD PTR _i$234158[ebp], 10 ; 0000000aH
  022ae	0f 8d 80 00 00
	00		 jge	 $LN4@SetState_N

; 748  : 	{
; 749  : 		if( this->m_FloorData[i].m_iTeamPlayerIndex != OBJ_EMPTY )

  022b4	8b 45 f8	 mov	 eax, DWORD PTR _i$234158[ebp]
  022b7	6b c0 30	 imul	 eax, 48			; 00000030H
  022ba	8b 4d fc	 mov	 ecx, DWORD PTR _this$[ebp]
  022bd	83 7c 01 20 ff	 cmp	 DWORD PTR [ecx+eax+32], -1
  022c2	74 6b		 je	 SHORT $LN3@SetState_N

; 750  : 		{
; 751  : 			if( gObj[this->m_FloorData[i].m_iTeamPlayerIndex].Connected > PLAYER_LOGGED )

  022c4	8b 45 f8	 mov	 eax, DWORD PTR _i$234158[ebp]
  022c7	6b c0 30	 imul	 eax, 48			; 00000030H
  022ca	8b 4d fc	 mov	 ecx, DWORD PTR _this$[ebp]
  022cd	8b 54 01 20	 mov	 edx, DWORD PTR [ecx+eax+32]
  022d1	69 d2 38 2b 00
	00		 imul	 edx, 11064		; 00002b38H
  022d7	a1 00 00 00 00	 mov	 eax, DWORD PTR ?gObj@@3PAUOBJECTSTRUCT@@A ; gObj
  022dc	83 7c 10 04 02	 cmp	 DWORD PTR [eax+edx+4], 2
  022e1	7e 4c		 jle	 SHORT $LN3@SetState_N

; 752  : 			{
; 753  : 				if( gObj[this->m_FloorData[i].m_iTeamPlayerIndex].MapNumber == (this->m_btFloorIndex + MAP_INDEX_ILLUSIONTEMPLE) )

  022e3	8b 45 f8	 mov	 eax, DWORD PTR _i$234158[ebp]
  022e6	6b c0 30	 imul	 eax, 48			; 00000030H
  022e9	8b 4d fc	 mov	 ecx, DWORD PTR _this$[ebp]
  022ec	8b 54 01 20	 mov	 edx, DWORD PTR [ecx+eax+32]
  022f0	69 d2 38 2b 00
	00		 imul	 edx, 11064		; 00002b38H
  022f6	a1 00 00 00 00	 mov	 eax, DWORD PTR ?gObj@@3PAUOBJECTSTRUCT@@A ; gObj
  022fb	0f b6 8c 10 49
	01 00 00	 movzx	 ecx, BYTE PTR [eax+edx+329]
  02303	8b 55 fc	 mov	 edx, DWORD PTR _this$[ebp]
  02306	0f b6 82 2c 02
	00 00		 movzx	 eax, BYTE PTR [edx+556]
  0230d	83 c0 2d	 add	 eax, 45			; 0000002dH
  02310	3b c8		 cmp	 ecx, eax
  02312	75 1b		 jne	 SHORT $LN3@SetState_N

; 754  : 				{
; 755  : 					gObjMoveGate(this->m_FloorData[i].m_iTeamPlayerIndex, 267); //Elbeland

  02314	68 0b 01 00 00	 push	 267			; 0000010bH
  02319	8b 45 f8	 mov	 eax, DWORD PTR _i$234158[ebp]
  0231c	6b c0 30	 imul	 eax, 48			; 00000030H
  0231f	8b 4d fc	 mov	 ecx, DWORD PTR _this$[ebp]
  02322	8b 54 01 20	 mov	 edx, DWORD PTR [ecx+eax+32]
  02326	52		 push	 edx
  02327	e8 00 00 00 00	 call	 ?gObjMoveGate@@YAHHH@Z	; gObjMoveGate
  0232c	83 c4 08	 add	 esp, 8
$LN3@SetState_N:

; 756  : #if(DEBUG_IT == 1)
; 757  : 				GCServerMsgStringSend("CIllusionTempleProcess::SetState_NONE()", this->m_FloorData[i].m_iTeamPlayerIndex, 0);
; 758  : #endif
; 759  : 				}
; 760  : 			}
; 761  : 		}
; 762  : 	}

  0232f	e9 6d ff ff ff	 jmp	 $LN5@SetState_N
$LN4@SetState_N:

; 763  : 	this->Init(this->m_btFloorIndex);

  02334	8b 45 fc	 mov	 eax, DWORD PTR _this$[ebp]
  02337	0f b6 88 2c 02
	00 00		 movzx	 ecx, BYTE PTR [eax+556]
  0233e	51		 push	 ecx
  0233f	8b 4d fc	 mov	 ecx, DWORD PTR _this$[ebp]
  02342	e8 00 00 00 00	 call	 ?Init@CIllusionTempleProcess@@QAEXH@Z ; CIllusionTempleProcess::Init

; 764  : }

  02347	5f		 pop	 edi
  02348	5e		 pop	 esi
  02349	5b		 pop	 ebx
  0234a	8b e5		 mov	 esp, ebp
  0234c	5d		 pop	 ebp
  0234d	c3		 ret	 0
?SetState_NONE@CIllusionTempleProcess@@QAEXXZ ENDP	; CIllusionTempleProcess::SetState_NONE
_TEXT	ENDS
EXTRN	?GCSendIllusionTempleKillCount@@YAXHE@Z:PROC	; GCSendIllusionTempleKillCount
EXTRN	?m_i_IT_WaitTime@@3HA:DWORD			; m_i_IT_WaitTime
; Function compile flags: /Odtp /ZI
_TEXT	SEGMENT
_i$234168 = -8						; size = 4
_this$ = -4						; size = 4
?SetState_READY@CIllusionTempleProcess@@QAEXXZ PROC	; CIllusionTempleProcess::SetState_READY
; _this$ = ecx

; 767  : {

  02350	55		 push	 ebp
  02351	8b ec		 mov	 ebp, esp
  02353	83 ec 48	 sub	 esp, 72			; 00000048H
  02356	53		 push	 ebx
  02357	56		 push	 esi
  02358	57		 push	 edi
  02359	89 4d fc	 mov	 DWORD PTR _this$[ebp], ecx

; 768  : 	this->m_iEventBattleTimer = 1000 * (m_i_IT_WaitTime * 60);

  0235c	a1 00 00 00 00	 mov	 eax, DWORD PTR ?m_i_IT_WaitTime@@3HA ; m_i_IT_WaitTime
  02361	6b c0 3c	 imul	 eax, 60			; 0000003cH
  02364	69 c0 e8 03 00
	00		 imul	 eax, 1000		; 000003e8H
  0236a	8b 4d fc	 mov	 ecx, DWORD PTR _this$[ebp]
  0236d	89 81 9c 03 00
	00		 mov	 DWORD PTR [ecx+924], eax

; 769  : 
; 770  : 	this->NotifyTempleInfo(1,-1);

  02373	6a ff		 push	 -1
  02375	6a 01		 push	 1
  02377	8b 4d fc	 mov	 ecx, DWORD PTR _this$[ebp]
  0237a	e8 00 00 00 00	 call	 ?NotifyTempleInfo@CIllusionTempleProcess@@QAEXEH@Z ; CIllusionTempleProcess::NotifyTempleInfo

; 771  : 
; 772  : 	for( int i = 0; i < MAX_FLOOR_USER; i++ )

  0237f	c7 45 f8 00 00
	00 00		 mov	 DWORD PTR _i$234168[ebp], 0
  02386	eb 09		 jmp	 SHORT $LN5@SetState_R
$LN4@SetState_R:
  02388	8b 45 f8	 mov	 eax, DWORD PTR _i$234168[ebp]
  0238b	83 c0 01	 add	 eax, 1
  0238e	89 45 f8	 mov	 DWORD PTR _i$234168[ebp], eax
$LN5@SetState_R:
  02391	83 7d f8 0a	 cmp	 DWORD PTR _i$234168[ebp], 10 ; 0000000aH
  02395	7d 7d		 jge	 SHORT $LN6@SetState_R

; 773  : 	{
; 774  : 		if( this->m_FloorData[i].m_iTeamPlayerIndex != OBJ_EMPTY && gObj[this->m_FloorData[i].m_iTeamPlayerIndex].Connected > PLAYER_LOGGED)

  02397	8b 45 f8	 mov	 eax, DWORD PTR _i$234168[ebp]
  0239a	6b c0 30	 imul	 eax, 48			; 00000030H
  0239d	8b 4d fc	 mov	 ecx, DWORD PTR _this$[ebp]
  023a0	83 7c 01 20 ff	 cmp	 DWORD PTR [ecx+eax+32], -1
  023a5	74 68		 je	 SHORT $LN2@SetState_R
  023a7	8b 45 f8	 mov	 eax, DWORD PTR _i$234168[ebp]
  023aa	6b c0 30	 imul	 eax, 48			; 00000030H
  023ad	8b 4d fc	 mov	 ecx, DWORD PTR _this$[ebp]
  023b0	8b 54 01 20	 mov	 edx, DWORD PTR [ecx+eax+32]
  023b4	69 d2 38 2b 00
	00		 imul	 edx, 11064		; 00002b38H
  023ba	a1 00 00 00 00	 mov	 eax, DWORD PTR ?gObj@@3PAUOBJECTSTRUCT@@A ; gObj
  023bf	83 7c 10 04 02	 cmp	 DWORD PTR [eax+edx+4], 2
  023c4	7e 49		 jle	 SHORT $LN2@SetState_R

; 775  : 		{
; 776  : 			if( gObj[this->m_FloorData[i].m_iTeamPlayerIndex].MapNumber == (this->m_btFloorIndex + MAP_INDEX_ILLUSIONTEMPLE) )

  023c6	8b 45 f8	 mov	 eax, DWORD PTR _i$234168[ebp]
  023c9	6b c0 30	 imul	 eax, 48			; 00000030H
  023cc	8b 4d fc	 mov	 ecx, DWORD PTR _this$[ebp]
  023cf	8b 54 01 20	 mov	 edx, DWORD PTR [ecx+eax+32]
  023d3	69 d2 38 2b 00
	00		 imul	 edx, 11064		; 00002b38H
  023d9	a1 00 00 00 00	 mov	 eax, DWORD PTR ?gObj@@3PAUOBJECTSTRUCT@@A ; gObj
  023de	0f b6 8c 10 49
	01 00 00	 movzx	 ecx, BYTE PTR [eax+edx+329]
  023e6	8b 55 fc	 mov	 edx, DWORD PTR _this$[ebp]
  023e9	0f b6 82 2c 02
	00 00		 movzx	 eax, BYTE PTR [edx+556]
  023f0	83 c0 2d	 add	 eax, 45			; 0000002dH
  023f3	3b c8		 cmp	 ecx, eax
  023f5	75 18		 jne	 SHORT $LN2@SetState_R

; 777  : 			{
; 778  : 				::GCSendIllusionTempleKillCount(this->m_FloorData[i].m_iTeamPlayerIndex, 10); //10 Points

  023f7	6a 0a		 push	 10			; 0000000aH
  023f9	8b 45 f8	 mov	 eax, DWORD PTR _i$234168[ebp]
  023fc	6b c0 30	 imul	 eax, 48			; 00000030H
  023ff	8b 4d fc	 mov	 ecx, DWORD PTR _this$[ebp]
  02402	8b 54 01 20	 mov	 edx, DWORD PTR [ecx+eax+32]
  02406	52		 push	 edx
  02407	e8 00 00 00 00	 call	 ?GCSendIllusionTempleKillCount@@YAXHE@Z ; GCSendIllusionTempleKillCount
  0240c	83 c4 08	 add	 esp, 8
$LN2@SetState_R:

; 779  : #if(DEBUG_IT == 1)
; 780  : 				GCServerMsgStringSend("CIllusionTempleProcess::SetState_READY()", this->m_FloorData[i].m_iTeamPlayerIndex, 0);
; 781  : #endif
; 782  : 			}
; 783  : 		}
; 784  : 	}

  0240f	e9 74 ff ff ff	 jmp	 $LN4@SetState_R
$LN6@SetState_R:

; 785  : }

  02414	5f		 pop	 edi
  02415	5e		 pop	 esi
  02416	5b		 pop	 ebx
  02417	8b e5		 mov	 esp, ebp
  02419	5d		 pop	 ebp
  0241a	c3		 ret	 0
?SetState_READY@CIllusionTempleProcess@@QAEXXZ ENDP	; CIllusionTempleProcess::SetState_READY
_TEXT	ENDS
PUBLIC	?SetNpcStatueRegen@CIllusionTempleProcess@@QAEXXZ ; CIllusionTempleProcess::SetNpcStatueRegen
PUBLIC	?CreateMonsterToBattle@CIllusionTempleProcess@@QAEXXZ ; CIllusionTempleProcess::CreateMonsterToBattle
PUBLIC	?CreateNPC@CIllusionTempleProcess@@QAEXXZ	; CIllusionTempleProcess::CreateNPC
PUBLIC	?CreateNPCStatus@CIllusionTempleProcess@@QAEXXZ	; CIllusionTempleProcess::CreateNPCStatus
EXTRN	?m_i_IT_PlayTime@@3HA:DWORD			; m_i_IT_PlayTime
; Function compile flags: /Odtp /ZI
_TEXT	SEGMENT
_this$ = -4						; size = 4
?SetState_PLAYING@CIllusionTempleProcess@@QAEXXZ PROC	; CIllusionTempleProcess::SetState_PLAYING
; _this$ = ecx

; 788  : {

  02420	55		 push	 ebp
  02421	8b ec		 mov	 ebp, esp
  02423	83 ec 44	 sub	 esp, 68			; 00000044H
  02426	53		 push	 ebx
  02427	56		 push	 esi
  02428	57		 push	 edi
  02429	89 4d fc	 mov	 DWORD PTR _this$[ebp], ecx

; 789  : 	this->m_iEventBattleTimer = 1000 * (m_i_IT_PlayTime * 60);

  0242c	a1 00 00 00 00	 mov	 eax, DWORD PTR ?m_i_IT_PlayTime@@3HA ; m_i_IT_PlayTime
  02431	6b c0 3c	 imul	 eax, 60			; 0000003cH
  02434	69 c0 e8 03 00
	00		 imul	 eax, 1000		; 000003e8H
  0243a	8b 4d fc	 mov	 ecx, DWORD PTR _this$[ebp]
  0243d	89 81 9c 03 00
	00		 mov	 DWORD PTR [ecx+924], eax

; 790  : 
; 791  : 	this->CreateNPCStatus();

  02443	8b 4d fc	 mov	 ecx, DWORD PTR _this$[ebp]
  02446	e8 00 00 00 00	 call	 ?CreateNPCStatus@CIllusionTempleProcess@@QAEXXZ ; CIllusionTempleProcess::CreateNPCStatus

; 792  : 	this->CreateNPC();

  0244b	8b 4d fc	 mov	 ecx, DWORD PTR _this$[ebp]
  0244e	e8 00 00 00 00	 call	 ?CreateNPC@CIllusionTempleProcess@@QAEXXZ ; CIllusionTempleProcess::CreateNPC

; 793  : 	this->CreateMonsterToBattle();

  02453	8b 4d fc	 mov	 ecx, DWORD PTR _this$[ebp]
  02456	e8 00 00 00 00	 call	 ?CreateMonsterToBattle@CIllusionTempleProcess@@QAEXXZ ; CIllusionTempleProcess::CreateMonsterToBattle

; 794  : 	this->SetNpcStatueRegen();

  0245b	8b 4d fc	 mov	 ecx, DWORD PTR _this$[ebp]
  0245e	e8 00 00 00 00	 call	 ?SetNpcStatueRegen@CIllusionTempleProcess@@QAEXXZ ; CIllusionTempleProcess::SetNpcStatueRegen

; 795  : 	this->NotifyTempleInfo(2,-1);

  02463	6a ff		 push	 -1
  02465	6a 02		 push	 2
  02467	8b 4d fc	 mov	 ecx, DWORD PTR _this$[ebp]
  0246a	e8 00 00 00 00	 call	 ?NotifyTempleInfo@CIllusionTempleProcess@@QAEXEH@Z ; CIllusionTempleProcess::NotifyTempleInfo

; 796  : 
; 797  : #if(DEBUG_IT == 1)
; 798  : 	for( int i = 0; i < MAX_FLOOR_USER; i++ )
; 799  : 	{
; 800  : 		if( this->m_FloorData[i].m_iTeamPlayerIndex != OBJ_EMPTY && gObj[this->m_FloorData[i].m_iTeamPlayerIndex].Connected > PLAYER_LOGGED)
; 801  : 		{
; 802  : 			if( gObj[this->m_FloorData[i].m_iTeamPlayerIndex].MapNumber == (this->m_btFloorIndex + MAP_INDEX_ILLUSIONTEMPLE) )
; 803  : 			{
; 804  : 				GCServerMsgStringSend("CIllusionTempleProcess::SetState_PLAYING()", this->m_FloorData[i].m_iTeamPlayerIndex, 0);
; 805  : 			}
; 806  : 		}
; 807  : 	}
; 808  : #endif
; 809  : }

  0246f	5f		 pop	 edi
  02470	5e		 pop	 esi
  02471	5b		 pop	 ebx
  02472	8b e5		 mov	 esp, ebp
  02474	5d		 pop	 ebp
  02475	c3		 ret	 0
?SetState_PLAYING@CIllusionTempleProcess@@QAEXXZ ENDP	; CIllusionTempleProcess::SetState_PLAYING
_TEXT	ENDS
PUBLIC	?ClearAllBattleObjects@CIllusionTempleProcess@@QAEXXZ ; CIllusionTempleProcess::ClearAllBattleObjects
PUBLIC	?GCIllusionTempleSkillCancel@CIllusionTempleProcess@@QAEXPAUOBJECTSTRUCT@@G@Z ; CIllusionTempleProcess::GCIllusionTempleSkillCancel
EXTRN	?gObjRemoveBuffEffect@@YAEPAUOBJECTSTRUCT@@H@Z:PROC ; gObjRemoveBuffEffect
; Function compile flags: /Odtp /ZI
_TEXT	SEGMENT
_i$234180 = -8						; size = 4
_this$ = -4						; size = 4
?SetState_END@CIllusionTempleProcess@@QAEXXZ PROC	; CIllusionTempleProcess::SetState_END
; _this$ = ecx

; 812  : {

  02480	55		 push	 ebp
  02481	8b ec		 mov	 ebp, esp
  02483	83 ec 48	 sub	 esp, 72			; 00000048H
  02486	53		 push	 ebx
  02487	56		 push	 esi
  02488	57		 push	 edi
  02489	89 4d fc	 mov	 DWORD PTR _this$[ebp], ecx

; 813  : 	this->m_iEventBattleTimer = 1000 * (m_i_IT_RestTime * 60);

  0248c	a1 00 00 00 00	 mov	 eax, DWORD PTR ?m_i_IT_RestTime@@3HA ; m_i_IT_RestTime
  02491	6b c0 3c	 imul	 eax, 60			; 0000003cH
  02494	69 c0 e8 03 00
	00		 imul	 eax, 1000		; 000003e8H
  0249a	8b 4d fc	 mov	 ecx, DWORD PTR _this$[ebp]
  0249d	89 81 9c 03 00
	00		 mov	 DWORD PTR [ecx+924], eax

; 814  : 
; 815  : 	this->NotifyTempleInfo(3,-1);

  024a3	6a ff		 push	 -1
  024a5	6a 03		 push	 3
  024a7	8b 4d fc	 mov	 ecx, DWORD PTR _this$[ebp]
  024aa	e8 00 00 00 00	 call	 ?NotifyTempleInfo@CIllusionTempleProcess@@QAEXEH@Z ; CIllusionTempleProcess::NotifyTempleInfo

; 816  : 
; 817  : 	for( int i = 0; i < MAX_FLOOR_USER; i++ )

  024af	c7 45 f8 00 00
	00 00		 mov	 DWORD PTR _i$234180[ebp], 0
  024b6	eb 09		 jmp	 SHORT $LN7@SetState_E
$LN6@SetState_E:
  024b8	8b 45 f8	 mov	 eax, DWORD PTR _i$234180[ebp]
  024bb	83 c0 01	 add	 eax, 1
  024be	89 45 f8	 mov	 DWORD PTR _i$234180[ebp], eax
$LN7@SetState_E:
  024c1	83 7d f8 0a	 cmp	 DWORD PTR _i$234180[ebp], 10 ; 0000000aH
  024c5	0f 8d 49 01 00
	00		 jge	 $LN5@SetState_E

; 818  : 	{
; 819  : 		if( this->m_FloorData[i].m_iTeamPlayerIndex != OBJ_EMPTY && gObj[this->m_FloorData[i].m_iTeamPlayerIndex].Connected > PLAYER_LOGGED)

  024cb	8b 45 f8	 mov	 eax, DWORD PTR _i$234180[ebp]
  024ce	6b c0 30	 imul	 eax, 48			; 00000030H
  024d1	8b 4d fc	 mov	 ecx, DWORD PTR _this$[ebp]
  024d4	83 7c 01 20 ff	 cmp	 DWORD PTR [ecx+eax+32], -1
  024d9	0f 84 30 01 00
	00		 je	 $LN4@SetState_E
  024df	8b 45 f8	 mov	 eax, DWORD PTR _i$234180[ebp]
  024e2	6b c0 30	 imul	 eax, 48			; 00000030H
  024e5	8b 4d fc	 mov	 ecx, DWORD PTR _this$[ebp]
  024e8	8b 54 01 20	 mov	 edx, DWORD PTR [ecx+eax+32]
  024ec	69 d2 38 2b 00
	00		 imul	 edx, 11064		; 00002b38H
  024f2	a1 00 00 00 00	 mov	 eax, DWORD PTR ?gObj@@3PAUOBJECTSTRUCT@@A ; gObj
  024f7	83 7c 10 04 02	 cmp	 DWORD PTR [eax+edx+4], 2
  024fc	0f 8e 0d 01 00
	00		 jle	 $LN4@SetState_E

; 820  : 		{
; 821  : 			if( gObj[this->m_FloorData[i].m_iTeamPlayerIndex].MapNumber == (this->m_btFloorIndex + MAP_INDEX_ILLUSIONTEMPLE) )

  02502	8b 45 f8	 mov	 eax, DWORD PTR _i$234180[ebp]
  02505	6b c0 30	 imul	 eax, 48			; 00000030H
  02508	8b 4d fc	 mov	 ecx, DWORD PTR _this$[ebp]
  0250b	8b 54 01 20	 mov	 edx, DWORD PTR [ecx+eax+32]
  0250f	69 d2 38 2b 00
	00		 imul	 edx, 11064		; 00002b38H
  02515	a1 00 00 00 00	 mov	 eax, DWORD PTR ?gObj@@3PAUOBJECTSTRUCT@@A ; gObj
  0251a	0f b6 8c 10 49
	01 00 00	 movzx	 ecx, BYTE PTR [eax+edx+329]
  02522	8b 55 fc	 mov	 edx, DWORD PTR _this$[ebp]
  02525	0f b6 82 2c 02
	00 00		 movzx	 eax, BYTE PTR [edx+556]
  0252c	83 c0 2d	 add	 eax, 45			; 0000002dH
  0252f	3b c8		 cmp	 ecx, eax
  02531	0f 85 d8 00 00
	00		 jne	 $LN4@SetState_E

; 822  : 			{
; 823  : 				if(this->m_FloorData[i].m_dwShieldSpellTime > 0)

  02537	8b 45 f8	 mov	 eax, DWORD PTR _i$234180[ebp]
  0253a	6b c0 30	 imul	 eax, 48			; 00000030H
  0253d	8b 4d fc	 mov	 ecx, DWORD PTR _this$[ebp]
  02540	83 7c 01 28 00	 cmp	 DWORD PTR [ecx+eax+40], 0
  02545	76 5c		 jbe	 SHORT $LN2@SetState_E

; 824  : 				{
; 825  : 					this->m_FloorData[i].m_dwShieldSpellTime = 0;

  02547	8b 45 f8	 mov	 eax, DWORD PTR _i$234180[ebp]
  0254a	6b c0 30	 imul	 eax, 48			; 00000030H
  0254d	8b 4d fc	 mov	 ecx, DWORD PTR _this$[ebp]
  02550	c7 44 01 28 00
	00 00 00	 mov	 DWORD PTR [ecx+eax+40], 0

; 826  : 					gObjRemoveBuffEffect(&gObj[this->m_FloorData[i].m_iTeamPlayerIndex], AT_ILLUSION_SHIELD_SPELL); //season 3.0 add-on

  02558	6a 22		 push	 34			; 00000022H
  0255a	8b 45 f8	 mov	 eax, DWORD PTR _i$234180[ebp]
  0255d	6b c0 30	 imul	 eax, 48			; 00000030H
  02560	8b 4d fc	 mov	 ecx, DWORD PTR _this$[ebp]
  02563	8b 54 01 20	 mov	 edx, DWORD PTR [ecx+eax+32]
  02567	69 d2 38 2b 00
	00		 imul	 edx, 11064		; 00002b38H
  0256d	03 15 00 00 00
	00		 add	 edx, DWORD PTR ?gObj@@3PAUOBJECTSTRUCT@@A ; gObj
  02573	52		 push	 edx
  02574	e8 00 00 00 00	 call	 ?gObjRemoveBuffEffect@@YAEPAUOBJECTSTRUCT@@H@Z ; gObjRemoveBuffEffect
  02579	83 c4 08	 add	 esp, 8

; 827  : 					this->GCIllusionTempleSkillCancel(&gObj[this->m_FloorData[i].m_iTeamPlayerIndex], 210);

  0257c	68 d2 00 00 00	 push	 210			; 000000d2H
  02581	8b 45 f8	 mov	 eax, DWORD PTR _i$234180[ebp]
  02584	6b c0 30	 imul	 eax, 48			; 00000030H
  02587	8b 4d fc	 mov	 ecx, DWORD PTR _this$[ebp]
  0258a	8b 54 01 20	 mov	 edx, DWORD PTR [ecx+eax+32]
  0258e	69 d2 38 2b 00
	00		 imul	 edx, 11064		; 00002b38H
  02594	03 15 00 00 00
	00		 add	 edx, DWORD PTR ?gObj@@3PAUOBJECTSTRUCT@@A ; gObj
  0259a	52		 push	 edx
  0259b	8b 4d fc	 mov	 ecx, DWORD PTR _this$[ebp]
  0259e	e8 00 00 00 00	 call	 ?GCIllusionTempleSkillCancel@CIllusionTempleProcess@@QAEXPAUOBJECTSTRUCT@@G@Z ; CIllusionTempleProcess::GCIllusionTempleSkillCancel
$LN2@SetState_E:

; 828  : 				}
; 829  : 
; 830  : 				if(this->m_FloorData[i].m_dwRestrictionSpellTime > 0)

  025a3	8b 45 f8	 mov	 eax, DWORD PTR _i$234180[ebp]
  025a6	6b c0 30	 imul	 eax, 48			; 00000030H
  025a9	8b 4d fc	 mov	 ecx, DWORD PTR _this$[ebp]
  025ac	83 7c 01 2c 00	 cmp	 DWORD PTR [ecx+eax+44], 0
  025b1	76 5c		 jbe	 SHORT $LN4@SetState_E

; 831  : 				{
; 832  : 					this->m_FloorData[i].m_dwRestrictionSpellTime = 0;

  025b3	8b 45 f8	 mov	 eax, DWORD PTR _i$234180[ebp]
  025b6	6b c0 30	 imul	 eax, 48			; 00000030H
  025b9	8b 4d fc	 mov	 ecx, DWORD PTR _this$[ebp]
  025bc	c7 44 01 2c 00
	00 00 00	 mov	 DWORD PTR [ecx+eax+44], 0

; 833  : 					gObjRemoveBuffEffect(&gObj[this->m_FloorData[i].m_iTeamPlayerIndex], AT_ILLUSION_RESTRICTION_SPELL); //season 3.0 add-on

  025c4	6a 41		 push	 65			; 00000041H
  025c6	8b 45 f8	 mov	 eax, DWORD PTR _i$234180[ebp]
  025c9	6b c0 30	 imul	 eax, 48			; 00000030H
  025cc	8b 4d fc	 mov	 ecx, DWORD PTR _this$[ebp]
  025cf	8b 54 01 20	 mov	 edx, DWORD PTR [ecx+eax+32]
  025d3	69 d2 38 2b 00
	00		 imul	 edx, 11064		; 00002b38H
  025d9	03 15 00 00 00
	00		 add	 edx, DWORD PTR ?gObj@@3PAUOBJECTSTRUCT@@A ; gObj
  025df	52		 push	 edx
  025e0	e8 00 00 00 00	 call	 ?gObjRemoveBuffEffect@@YAEPAUOBJECTSTRUCT@@H@Z ; gObjRemoveBuffEffect
  025e5	83 c4 08	 add	 esp, 8

; 834  : 					this->GCIllusionTempleSkillCancel(&gObj[this->m_FloorData[i].m_iTeamPlayerIndex], 211);

  025e8	68 d3 00 00 00	 push	 211			; 000000d3H
  025ed	8b 45 f8	 mov	 eax, DWORD PTR _i$234180[ebp]
  025f0	6b c0 30	 imul	 eax, 48			; 00000030H
  025f3	8b 4d fc	 mov	 ecx, DWORD PTR _this$[ebp]
  025f6	8b 54 01 20	 mov	 edx, DWORD PTR [ecx+eax+32]
  025fa	69 d2 38 2b 00
	00		 imul	 edx, 11064		; 00002b38H
  02600	03 15 00 00 00
	00		 add	 edx, DWORD PTR ?gObj@@3PAUOBJECTSTRUCT@@A ; gObj
  02606	52		 push	 edx
  02607	8b 4d fc	 mov	 ecx, DWORD PTR _this$[ebp]
  0260a	e8 00 00 00 00	 call	 ?GCIllusionTempleSkillCancel@CIllusionTempleProcess@@QAEXPAUOBJECTSTRUCT@@G@Z ; CIllusionTempleProcess::GCIllusionTempleSkillCancel
$LN4@SetState_E:

; 835  : 				}
; 836  : #if(DEBUG_IT == 1)
; 837  : 				GCServerMsgStringSend("CIllusionTempleProcess::SetState_END()", this->m_FloorData[i].m_iTeamPlayerIndex, 0);
; 838  : #endif
; 839  : 			}
; 840  : 		}
; 841  : 	}

  0260f	e9 a4 fe ff ff	 jmp	 $LN6@SetState_E
$LN5@SetState_E:

; 842  : 
; 843  : 	this->ClearAllBattleObjects();

  02614	8b 4d fc	 mov	 ecx, DWORD PTR _this$[ebp]
  02617	e8 00 00 00 00	 call	 ?ClearAllBattleObjects@CIllusionTempleProcess@@QAEXXZ ; CIllusionTempleProcess::ClearAllBattleObjects

; 844  : }

  0261c	5f		 pop	 edi
  0261d	5e		 pop	 esi
  0261e	5b		 pop	 ebx
  0261f	8b e5		 mov	 esp, ebp
  02621	5d		 pop	 ebp
  02622	c3		 ret	 0
?SetState_END@CIllusionTempleProcess@@QAEXXZ ENDP	; CIllusionTempleProcess::SetState_END
_TEXT	ENDS
PUBLIC	??_C@_0CG@IGMLEOMK@Enter?5Error?3?5IllusionTempleIndex@ ; `string'
PUBLIC	?__LINE__Var@?1??AddBattleUser@CIllusionTempleProcess@@QAEHHEE@Z@4JA ; `CIllusionTempleProcess::AddBattleUser'::`2'::__LINE__Var
PUBLIC	?AddBattleUser@CIllusionTempleProcess@@QAEHHEE@Z ; CIllusionTempleProcess::AddBattleUser
EXTRN	__imp__LeaveCriticalSection@4:PROC
EXTRN	__imp__EnterCriticalSection@4:PROC
;	COMDAT ??_C@_0CG@IGMLEOMK@Enter?5Error?3?5IllusionTempleIndex@
CONST	SEGMENT
??_C@_0CG@IGMLEOMK@Enter?5Error?3?5IllusionTempleIndex@ DB 'Enter Error: '
	DB	'IllusionTempleIndex Fail', 00H		; `string'
CONST	ENDS
;	COMDAT ?__LINE__Var@?1??AddBattleUser@CIllusionTempleProcess@@QAEHHEE@Z@4JA
_DATA	SEGMENT
?__LINE__Var@?1??AddBattleUser@CIllusionTempleProcess@@QAEHHEE@Z@4JA DD 034fH ; `CIllusionTempleProcess::AddBattleUser'::`2'::__LINE__Var
; Function compile flags: /Odtp /ZI
_DATA	ENDS
_TEXT	SEGMENT
tv67 = -84						; size = 4
_i$234203 = -16						; size = 4
_loc3$ = -12						; size = 4
_loc2$ = -8						; size = 4
_this$ = -4						; size = 4
_aIndex$ = 8						; size = 4
_pos$ = 12						; size = 1
_pos_dur$ = 16						; size = 1
?AddBattleUser@CIllusionTempleProcess@@QAEHHEE@Z PROC	; CIllusionTempleProcess::AddBattleUser
; _this$ = ecx

; 847  : {

  02630	55		 push	 ebp
  02631	8b ec		 mov	 ebp, esp
  02633	83 ec 54	 sub	 esp, 84			; 00000054H
  02636	53		 push	 ebx
  02637	56		 push	 esi
  02638	57		 push	 edi
  02639	89 4d fc	 mov	 DWORD PTR _this$[ebp], ecx

; 848  : 	int loc2;
; 849  : 	int loc3;
; 850  : 
; 851  : 	if( OBJMAX_RANGE(aIndex) == FALSE )

  0263c	83 7d 08 00	 cmp	 DWORD PTR _aIndex$[ebp], 0
  02640	7d 09		 jge	 SHORT $LN12@AddBattleU
  02642	c7 45 ac 00 00
	00 00		 mov	 DWORD PTR tv67[ebp], 0
  02649	eb 0f		 jmp	 SHORT $LN13@AddBattleU
$LN12@AddBattleU:
  0264b	33 c0		 xor	 eax, eax
  0264d	81 7d 08 97 3a
	00 00		 cmp	 DWORD PTR _aIndex$[ebp], 14999 ; 00003a97H
  02654	0f 9e c0	 setle	 al
  02657	89 45 ac	 mov	 DWORD PTR tv67[ebp], eax
$LN13@AddBattleU:
  0265a	83 7d ac 00	 cmp	 DWORD PTR tv67[ebp], 0
  0265e	75 23		 jne	 SHORT $LN9@AddBattleU

; 852  : 	{
; 853  : 		LogAdd("return %s %d", __FILE__, __LINE__);

  02660	a1 00 00 00 00	 mov	 eax, DWORD PTR ?__LINE__Var@?1??AddBattleUser@CIllusionTempleProcess@@QAEHHEE@Z@4JA
  02665	83 c0 06	 add	 eax, 6
  02668	50		 push	 eax
  02669	68 00 00 00 00	 push	 OFFSET ??_C@_0EN@FIHDICBF@d?3?2projects?2exteam6?43?2source?2gam@
  0266e	68 00 00 00 00	 push	 OFFSET ??_C@_0N@GGPGOPEN@return?5?$CFs?5?$CFd?$AA@
  02673	ff 15 00 00 00
	00		 call	 DWORD PTR ?LogAdd@@3P6AXPADZZA ; LogAdd
  02679	83 c4 0c	 add	 esp, 12			; 0000000cH

; 854  : 		return FALSE;

  0267c	33 c0		 xor	 eax, eax
  0267e	e9 4e 01 00 00	 jmp	 $LN10@AddBattleU
$LN9@AddBattleU:

; 855  : 	}
; 856  : 
; 857  : 	if(this->GetState() >= 1)

  02683	8b 4d fc	 mov	 ecx, DWORD PTR _this$[ebp]
  02686	e8 00 00 00 00	 call	 ?GetState@CIllusionTempleProcess@@QAEEXZ ; CIllusionTempleProcess::GetState
  0268b	0f b6 c0	 movzx	 eax, al
  0268e	83 f8 01	 cmp	 eax, 1
  02691	7c 07		 jl	 SHORT $LN8@AddBattleU

; 858  : 	{
; 859  : 		return FALSE;

  02693	33 c0		 xor	 eax, eax
  02695	e9 37 01 00 00	 jmp	 $LN10@AddBattleU
$LN8@AddBattleU:

; 860  : 	}
; 861  : 
; 862  : 	if(gObj[aIndex].m_iIllusionTempleIndex != -1)

  0269a	8b 45 08	 mov	 eax, DWORD PTR _aIndex$[ebp]
  0269d	69 c0 38 2b 00
	00		 imul	 eax, 11064		; 00002b38H
  026a3	8b 0d 00 00 00
	00		 mov	 ecx, DWORD PTR ?gObj@@3PAUOBJECTSTRUCT@@A ; gObj
  026a9	83 bc 01 78 20
	00 00 ff	 cmp	 DWORD PTR [ecx+eax+8312], -1
  026b1	74 15		 je	 SHORT $LN7@AddBattleU

; 863  : 	{
; 864  : 		LogAddTD("Enter Error: IllusionTempleIndex Fail");

  026b3	68 00 00 00 00	 push	 OFFSET ??_C@_0CG@IGMLEOMK@Enter?5Error?3?5IllusionTempleIndex@
  026b8	ff 15 00 00 00
	00		 call	 DWORD PTR ?LogAddTD@@3P6AXPADZZA ; LogAddTD
  026be	83 c4 04	 add	 esp, 4

; 865  : 		return FALSE;

  026c1	33 c0		 xor	 eax, eax
  026c3	e9 09 01 00 00	 jmp	 $LN10@AddBattleU
$LN7@AddBattleU:

; 866  : 	}
; 867  : 
; 868  : 	loc2 = this->FindItemBallPosition(aIndex);

  026c8	8b 45 08	 mov	 eax, DWORD PTR _aIndex$[ebp]
  026cb	50		 push	 eax
  026cc	8b 4d fc	 mov	 ecx, DWORD PTR _this$[ebp]
  026cf	e8 00 00 00 00	 call	 ?FindItemBallPosition@CIllusionTempleProcess@@QAEHH@Z ; CIllusionTempleProcess::FindItemBallPosition
  026d4	89 45 f8	 mov	 DWORD PTR _loc2$[ebp], eax

; 869  : 
; 870  : 	if(loc2 >= 0)

  026d7	83 7d f8 00	 cmp	 DWORD PTR _loc2$[ebp], 0
  026db	7c 4f		 jl	 SHORT $LN6@AddBattleU

; 871  : 	{
; 872  : 		if( gObj[aIndex].pInventory[loc2].m_Type == ITEMGET(14,64) ) //Ball

  026dd	8b 45 08	 mov	 eax, DWORD PTR _aIndex$[ebp]
  026e0	69 c0 38 2b 00
	00		 imul	 eax, 11064		; 00002b38H
  026e6	8b 4d f8	 mov	 ecx, DWORD PTR _loc2$[ebp]
  026e9	69 c9 d4 00 00
	00		 imul	 ecx, 212		; 000000d4H
  026ef	8b 15 00 00 00
	00		 mov	 edx, DWORD PTR ?gObj@@3PAUOBJECTSTRUCT@@A ; gObj
  026f5	8b 84 02 24 0e
	00 00		 mov	 eax, DWORD PTR [edx+eax+3620]
  026fc	0f bf 4c 08 06	 movsx	 ecx, WORD PTR [eax+ecx+6]
  02701	81 f9 40 1c 00
	00		 cmp	 ecx, 7232		; 00001c40H
  02707	75 23		 jne	 SHORT $LN6@AddBattleU

; 873  : 		{
; 874  : 			::gObjInventoryDeleteItem(aIndex, loc2);

  02709	8b 45 f8	 mov	 eax, DWORD PTR _loc2$[ebp]
  0270c	50		 push	 eax
  0270d	8b 4d 08	 mov	 ecx, DWORD PTR _aIndex$[ebp]
  02710	51		 push	 ecx
  02711	e8 00 00 00 00	 call	 ?gObjInventoryDeleteItem@@YAEHH@Z ; gObjInventoryDeleteItem
  02716	83 c4 08	 add	 esp, 8

; 875  : 			::GCInventoryItemDeleteSend(aIndex, loc2, 0);

  02719	6a 00		 push	 0
  0271b	0f b6 45 f8	 movzx	 eax, BYTE PTR _loc2$[ebp]
  0271f	50		 push	 eax
  02720	8b 4d 08	 mov	 ecx, DWORD PTR _aIndex$[ebp]
  02723	51		 push	 ecx
  02724	e8 00 00 00 00	 call	 ?GCInventoryItemDeleteSend@@YAXHEE@Z ; GCInventoryItemDeleteSend
  02729	83 c4 0c	 add	 esp, 12			; 0000000cH
$LN6@AddBattleU:

; 876  : 		}
; 877  : 	}
; 878  : 
; 879  : 	loc3 = 0;

  0272c	c7 45 f4 00 00
	00 00		 mov	 DWORD PTR _loc3$[ebp], 0

; 880  : 
; 881  : 	EnterCriticalSection(&this->m_cs);

  02733	8b 45 fc	 mov	 eax, DWORD PTR _this$[ebp]
  02736	83 c0 08	 add	 eax, 8
  02739	50		 push	 eax
  0273a	ff 15 00 00 00
	00		 call	 DWORD PTR __imp__EnterCriticalSection@4

; 882  : 
; 883  : 	for( int i = 0; i < MAX_FLOOR_USER; i++ )

  02740	c7 45 f0 00 00
	00 00		 mov	 DWORD PTR _i$234203[ebp], 0
  02747	eb 09		 jmp	 SHORT $LN4@AddBattleU
$LN3@AddBattleU:
  02749	8b 45 f0	 mov	 eax, DWORD PTR _i$234203[ebp]
  0274c	83 c0 01	 add	 eax, 1
  0274f	89 45 f0	 mov	 DWORD PTR _i$234203[ebp], eax
$LN4@AddBattleU:
  02752	83 7d f0 0a	 cmp	 DWORD PTR _i$234203[ebp], 10 ; 0000000aH
  02756	7d 69		 jge	 SHORT $LN2@AddBattleU

; 884  : 	{
; 885  : 		if( this->m_FloorData[i].m_iTeamPlayerIndex == OBJ_EMPTY )

  02758	8b 45 f0	 mov	 eax, DWORD PTR _i$234203[ebp]
  0275b	6b c0 30	 imul	 eax, 48			; 00000030H
  0275e	8b 4d fc	 mov	 ecx, DWORD PTR _this$[ebp]
  02761	83 7c 01 20 ff	 cmp	 DWORD PTR [ecx+eax+32], -1
  02766	75 57		 jne	 SHORT $LN1@AddBattleU

; 886  : 		{
; 887  : 			this->m_FloorData[i].m_iTeamPlayerIndex = aIndex;

  02768	8b 45 f0	 mov	 eax, DWORD PTR _i$234203[ebp]
  0276b	6b c0 30	 imul	 eax, 48			; 00000030H
  0276e	8b 4d fc	 mov	 ecx, DWORD PTR _this$[ebp]
  02771	8b 55 08	 mov	 edx, DWORD PTR _aIndex$[ebp]
  02774	89 54 01 20	 mov	 DWORD PTR [ecx+eax+32], edx

; 888  : 			this->m_iEnteredUserCount++;

  02778	8b 45 fc	 mov	 eax, DWORD PTR _this$[ebp]
  0277b	8b 88 28 02 00
	00		 mov	 ecx, DWORD PTR [eax+552]
  02781	83 c1 01	 add	 ecx, 1
  02784	8b 55 fc	 mov	 edx, DWORD PTR _this$[ebp]
  02787	89 8a 28 02 00
	00		 mov	 DWORD PTR [edx+552], ecx

; 889  : 			gObj[aIndex].m_iIllusionTempleIndex = i;

  0278d	8b 45 08	 mov	 eax, DWORD PTR _aIndex$[ebp]
  02790	69 c0 38 2b 00
	00		 imul	 eax, 11064		; 00002b38H
  02796	8b 0d 00 00 00
	00		 mov	 ecx, DWORD PTR ?gObj@@3PAUOBJECTSTRUCT@@A ; gObj
  0279c	8b 55 f0	 mov	 edx, DWORD PTR _i$234203[ebp]
  0279f	89 94 01 78 20
	00 00		 mov	 DWORD PTR [ecx+eax+8312], edx

; 890  : 			loc3 = 1;

  027a6	c7 45 f4 01 00
	00 00		 mov	 DWORD PTR _loc3$[ebp], 1

; 891  : 			this->m_FloorData[i].m_btPosNDur = pos_dur; //webzen fix for ticket durability

  027ad	8b 45 f0	 mov	 eax, DWORD PTR _i$234203[ebp]
  027b0	6b c0 30	 imul	 eax, 48			; 00000030H
  027b3	8b 4d fc	 mov	 ecx, DWORD PTR _this$[ebp]
  027b6	8a 55 10	 mov	 dl, BYTE PTR _pos_dur$[ebp]
  027b9	88 54 01 48	 mov	 BYTE PTR [ecx+eax+72], dl

; 892  : 			break;

  027bd	eb 02		 jmp	 SHORT $LN2@AddBattleU
$LN1@AddBattleU:

; 893  : 		}
; 894  : 	}

  027bf	eb 88		 jmp	 SHORT $LN3@AddBattleU
$LN2@AddBattleU:

; 895  : 
; 896  : 	LeaveCriticalSection(&this->m_cs);

  027c1	8b 45 fc	 mov	 eax, DWORD PTR _this$[ebp]
  027c4	83 c0 08	 add	 eax, 8
  027c7	50		 push	 eax
  027c8	ff 15 00 00 00
	00		 call	 DWORD PTR __imp__LeaveCriticalSection@4

; 897  : 
; 898  : 	return loc3;

  027ce	8b 45 f4	 mov	 eax, DWORD PTR _loc3$[ebp]
$LN10@AddBattleU:

; 899  : }

  027d1	5f		 pop	 edi
  027d2	5e		 pop	 esi
  027d3	5b		 pop	 ebx
  027d4	8b e5		 mov	 esp, ebp
  027d6	5d		 pop	 ebp
  027d7	c2 0c 00	 ret	 12			; 0000000cH
?AddBattleUser@CIllusionTempleProcess@@QAEHHEE@Z ENDP	; CIllusionTempleProcess::AddBattleUser
_TEXT	ENDS
PUBLIC	??_C@_0CL@PJKIAECJ@?$FLIllusion?5Temple?$FN?5?$CI?$CFd?$CJ?5LeaveUser@ ; `string'
PUBLIC	?__LINE__Var@?1??LeaveBattleUser@CIllusionTempleProcess@@QAEHH@Z@4JA ; `CIllusionTempleProcess::LeaveBattleUser'::`2'::__LINE__Var
PUBLIC	?LeaveBattleUser@CIllusionTempleProcess@@QAEHH@Z ; CIllusionTempleProcess::LeaveBattleUser
EXTRN	?CGPartyDelUser@@YAXPAUPMSG_PARTYDELUSER@@H@Z:PROC ; CGPartyDelUser
EXTRN	?GetIndex@PartyClass@@QAEHHHH@Z:PROC		; PartyClass::GetIndex
EXTRN	?IsItem@CItem@@QAEHXZ:PROC			; CItem::IsItem
;	COMDAT ??_C@_0CL@PJKIAECJ@?$FLIllusion?5Temple?$FN?5?$CI?$CFd?$CJ?5LeaveUser@
CONST	SEGMENT
??_C@_0CL@PJKIAECJ@?$FLIllusion?5Temple?$FN?5?$CI?$CFd?$CJ?5LeaveUser@ DB '['
	DB	'Illusion Temple] (%d) LeaveUser: (%s)(%s)', 00H ; `string'
CONST	ENDS
;	COMDAT ?__LINE__Var@?1??LeaveBattleUser@CIllusionTempleProcess@@QAEHH@Z@4JA
_DATA	SEGMENT
?__LINE__Var@?1??LeaveBattleUser@CIllusionTempleProcess@@QAEHH@Z@4JA DD 0386H ; `CIllusionTempleProcess::LeaveBattleUser'::`2'::__LINE__Var
; Function compile flags: /Odtp /ZI
_DATA	ENDS
_TEXT	SEGMENT
tv67 = -88						; size = 4
_Index$234230 = -20					; size = 4
_pMsg$234229 = -16					; size = 4
_lpItem$234218 = -12					; size = 4
_FloorData$234216 = -8					; size = 4
_this$ = -4						; size = 4
_aIndex$ = 8						; size = 4
?LeaveBattleUser@CIllusionTempleProcess@@QAEHH@Z PROC	; CIllusionTempleProcess::LeaveBattleUser
; _this$ = ecx

; 902  : {

  027e0	55		 push	 ebp
  027e1	8b ec		 mov	 ebp, esp
  027e3	83 ec 58	 sub	 esp, 88			; 00000058H
  027e6	53		 push	 ebx
  027e7	56		 push	 esi
  027e8	57		 push	 edi
  027e9	89 4d fc	 mov	 DWORD PTR _this$[ebp], ecx

; 903  : 	if( OBJMAX_RANGE(aIndex) == FALSE )

  027ec	83 7d 08 00	 cmp	 DWORD PTR _aIndex$[ebp], 0
  027f0	7d 09		 jge	 SHORT $LN17@LeaveBattl
  027f2	c7 45 a8 00 00
	00 00		 mov	 DWORD PTR tv67[ebp], 0
  027f9	eb 0f		 jmp	 SHORT $LN18@LeaveBattl
$LN17@LeaveBattl:
  027fb	33 c0		 xor	 eax, eax
  027fd	81 7d 08 97 3a
	00 00		 cmp	 DWORD PTR _aIndex$[ebp], 14999 ; 00003a97H
  02804	0f 9e c0	 setle	 al
  02807	89 45 a8	 mov	 DWORD PTR tv67[ebp], eax
$LN18@LeaveBattl:
  0280a	83 7d a8 00	 cmp	 DWORD PTR tv67[ebp], 0
  0280e	75 23		 jne	 SHORT $LN14@LeaveBattl

; 904  : 	{
; 905  : 		LogAdd("return %s %d", __FILE__, __LINE__);

  02810	a1 00 00 00 00	 mov	 eax, DWORD PTR ?__LINE__Var@?1??LeaveBattleUser@CIllusionTempleProcess@@QAEHH@Z@4JA
  02815	83 c0 03	 add	 eax, 3
  02818	50		 push	 eax
  02819	68 00 00 00 00	 push	 OFFSET ??_C@_0EN@FIHDICBF@d?3?2projects?2exteam6?43?2source?2gam@
  0281e	68 00 00 00 00	 push	 OFFSET ??_C@_0N@GGPGOPEN@return?5?$CFs?5?$CFd?$AA@
  02823	ff 15 00 00 00
	00		 call	 DWORD PTR ?LogAdd@@3P6AXPADZZA ; LogAdd
  02829	83 c4 0c	 add	 esp, 12			; 0000000cH

; 906  : 		return FALSE;

  0282c	33 c0		 xor	 eax, eax
  0282e	e9 84 03 00 00	 jmp	 $LN15@LeaveBattl
$LN14@LeaveBattl:

; 907  : 	}
; 908  : 
; 909  : 	EnterCriticalSection(&this->m_cs);

  02833	8b 45 fc	 mov	 eax, DWORD PTR _this$[ebp]
  02836	83 c0 08	 add	 eax, 8
  02839	50		 push	 eax
  0283a	ff 15 00 00 00
	00		 call	 DWORD PTR __imp__EnterCriticalSection@4

; 910  : 
; 911  : 	if(gObj[aIndex].m_iIllusionTempleIndex != -1)

  02840	8b 45 08	 mov	 eax, DWORD PTR _aIndex$[ebp]
  02843	69 c0 38 2b 00
	00		 imul	 eax, 11064		; 00002b38H
  02849	8b 0d 00 00 00
	00		 mov	 ecx, DWORD PTR ?gObj@@3PAUOBJECTSTRUCT@@A ; gObj
  0284f	83 bc 01 78 20
	00 00 ff	 cmp	 DWORD PTR [ecx+eax+8312], -1
  02857	0f 84 87 02 00
	00		 je	 $LN12@LeaveBattl

; 912  : 	{
; 913  : 		if(aIndex == this->m_FloorData[gObj[aIndex].m_iIllusionTempleIndex].m_iTeamPlayerIndex)

  0285d	8b 45 08	 mov	 eax, DWORD PTR _aIndex$[ebp]
  02860	69 c0 38 2b 00
	00		 imul	 eax, 11064		; 00002b38H
  02866	8b 0d 00 00 00
	00		 mov	 ecx, DWORD PTR ?gObj@@3PAUOBJECTSTRUCT@@A ; gObj
  0286c	8b 94 01 78 20
	00 00		 mov	 edx, DWORD PTR [ecx+eax+8312]
  02873	6b d2 30	 imul	 edx, 48			; 00000030H
  02876	8b 45 fc	 mov	 eax, DWORD PTR _this$[ebp]
  02879	8b 4d 08	 mov	 ecx, DWORD PTR _aIndex$[ebp]
  0287c	3b 4c 10 20	 cmp	 ecx, DWORD PTR [eax+edx+32]
  02880	0f 85 5e 02 00
	00		 jne	 $LN12@LeaveBattl

; 914  : 		{
; 915  : 			_ILLUSIONTEMPLE_FLOOR_DATA * FloorData = &this->m_FloorData[gObj[aIndex].m_iIllusionTempleIndex];

  02886	8b 45 08	 mov	 eax, DWORD PTR _aIndex$[ebp]
  02889	69 c0 38 2b 00
	00		 imul	 eax, 11064		; 00002b38H
  0288f	8b 0d 00 00 00
	00		 mov	 ecx, DWORD PTR ?gObj@@3PAUOBJECTSTRUCT@@A ; gObj
  02895	8b 94 01 78 20
	00 00		 mov	 edx, DWORD PTR [ecx+eax+8312]
  0289c	6b d2 30	 imul	 edx, 48			; 00000030H
  0289f	8b 45 fc	 mov	 eax, DWORD PTR _this$[ebp]
  028a2	8d 4c 10 20	 lea	 ecx, DWORD PTR [eax+edx+32]
  028a6	89 4d f8	 mov	 DWORD PTR _FloorData$234216[ebp], ecx

; 916  : 
; 917  : 			if(FloorData->m_btPosNDur > -1)

  028a9	8b 45 f8	 mov	 eax, DWORD PTR _FloorData$234216[ebp]
  028ac	0f b6 48 28	 movzx	 ecx, BYTE PTR [eax+40]
  028b0	83 f9 ff	 cmp	 ecx, -1
  028b3	7e 72		 jle	 SHORT $LN8@LeaveBattl

; 918  : 			{
; 919  : 				CItem * lpItem = &gObj[aIndex].pInventory[FloorData->m_btPosNDur];

  028b5	8b 45 08	 mov	 eax, DWORD PTR _aIndex$[ebp]
  028b8	69 c0 38 2b 00
	00		 imul	 eax, 11064		; 00002b38H
  028be	8b 4d f8	 mov	 ecx, DWORD PTR _FloorData$234216[ebp]
  028c1	0f b6 51 28	 movzx	 edx, BYTE PTR [ecx+40]
  028c5	69 d2 d4 00 00
	00		 imul	 edx, 212		; 000000d4H
  028cb	8b 0d 00 00 00
	00		 mov	 ecx, DWORD PTR ?gObj@@3PAUOBJECTSTRUCT@@A ; gObj
  028d1	03 94 01 24 0e
	00 00		 add	 edx, DWORD PTR [ecx+eax+3620]
  028d8	89 55 f4	 mov	 DWORD PTR _lpItem$234218[ebp], edx

; 920  : 
; 921  : 				if(lpItem != NULL)

  028db	74 4a		 je	 SHORT $LN8@LeaveBattl

; 922  : 				{
; 923  : 					if(lpItem->IsItem() == TRUE)

  028dd	8b 4d f4	 mov	 ecx, DWORD PTR _lpItem$234218[ebp]
  028e0	e8 00 00 00 00	 call	 ?IsItem@CItem@@QAEHXZ	; CItem::IsItem
  028e5	83 f8 01	 cmp	 eax, 1
  028e8	75 3d		 jne	 SHORT $LN8@LeaveBattl

; 924  : 					{
; 925  : 						if(lpItem->m_Durability < 1.0f)

  028ea	8b 45 f4	 mov	 eax, DWORD PTR _lpItem$234218[ebp]
  028ed	d9 40 24	 fld	 DWORD PTR [eax+36]
  028f0	dc 1d 00 00 00
	00		 fcomp	 QWORD PTR __real@3ff0000000000000
  028f6	df e0		 fnstsw	 ax
  028f8	f6 c4 05	 test	 ah, 5
  028fb	7a 2a		 jp	 SHORT $LN8@LeaveBattl

; 926  : 						{
; 927  : 							gObjInventoryDeleteItem(aIndex, FloorData->m_btPosNDur);

  028fd	8b 45 f8	 mov	 eax, DWORD PTR _FloorData$234216[ebp]
  02900	0f b6 48 28	 movzx	 ecx, BYTE PTR [eax+40]
  02904	51		 push	 ecx
  02905	8b 55 08	 mov	 edx, DWORD PTR _aIndex$[ebp]
  02908	52		 push	 edx
  02909	e8 00 00 00 00	 call	 ?gObjInventoryDeleteItem@@YAEHH@Z ; gObjInventoryDeleteItem
  0290e	83 c4 08	 add	 esp, 8

; 928  : 							GCInventoryItemDeleteSend(aIndex, FloorData->m_btPosNDur, 0);

  02911	6a 00		 push	 0
  02913	8b 45 f8	 mov	 eax, DWORD PTR _FloorData$234216[ebp]
  02916	0f b6 48 28	 movzx	 ecx, BYTE PTR [eax+40]
  0291a	51		 push	 ecx
  0291b	8b 55 08	 mov	 edx, DWORD PTR _aIndex$[ebp]
  0291e	52		 push	 edx
  0291f	e8 00 00 00 00	 call	 ?GCInventoryItemDeleteSend@@YAXHEE@Z ; GCInventoryItemDeleteSend
  02924	83 c4 0c	 add	 esp, 12			; 0000000cH
$LN8@LeaveBattl:

; 929  : 						}
; 930  : 					}
; 931  : 				}
; 932  : 			}
; 933  : 
; 934  : 			if(this->m_FloorData[gObj[aIndex].m_iIllusionTempleIndex].m_dwShieldSpellTime > 0)

  02927	8b 45 08	 mov	 eax, DWORD PTR _aIndex$[ebp]
  0292a	69 c0 38 2b 00
	00		 imul	 eax, 11064		; 00002b38H
  02930	8b 0d 00 00 00
	00		 mov	 ecx, DWORD PTR ?gObj@@3PAUOBJECTSTRUCT@@A ; gObj
  02936	8b 94 01 78 20
	00 00		 mov	 edx, DWORD PTR [ecx+eax+8312]
  0293d	6b d2 30	 imul	 edx, 48			; 00000030H
  02940	8b 45 fc	 mov	 eax, DWORD PTR _this$[ebp]
  02943	83 7c 10 28 00	 cmp	 DWORD PTR [eax+edx+40], 0
  02948	76 37		 jbe	 SHORT $LN7@LeaveBattl

; 935  : 			{
; 936  : 				gObjRemoveBuffEffect(&gObj[aIndex], AT_ILLUSION_SHIELD_SPELL); //season 3.0 add-on

  0294a	6a 22		 push	 34			; 00000022H
  0294c	8b 45 08	 mov	 eax, DWORD PTR _aIndex$[ebp]
  0294f	69 c0 38 2b 00
	00		 imul	 eax, 11064		; 00002b38H
  02955	03 05 00 00 00
	00		 add	 eax, DWORD PTR ?gObj@@3PAUOBJECTSTRUCT@@A ; gObj
  0295b	50		 push	 eax
  0295c	e8 00 00 00 00	 call	 ?gObjRemoveBuffEffect@@YAEPAUOBJECTSTRUCT@@H@Z ; gObjRemoveBuffEffect
  02961	83 c4 08	 add	 esp, 8

; 937  : 				this->GCIllusionTempleSkillCancel(&gObj[aIndex], 210);

  02964	68 d2 00 00 00	 push	 210			; 000000d2H
  02969	8b 45 08	 mov	 eax, DWORD PTR _aIndex$[ebp]
  0296c	69 c0 38 2b 00
	00		 imul	 eax, 11064		; 00002b38H
  02972	03 05 00 00 00
	00		 add	 eax, DWORD PTR ?gObj@@3PAUOBJECTSTRUCT@@A ; gObj
  02978	50		 push	 eax
  02979	8b 4d fc	 mov	 ecx, DWORD PTR _this$[ebp]
  0297c	e8 00 00 00 00	 call	 ?GCIllusionTempleSkillCancel@CIllusionTempleProcess@@QAEXPAUOBJECTSTRUCT@@G@Z ; CIllusionTempleProcess::GCIllusionTempleSkillCancel
$LN7@LeaveBattl:

; 938  : 			}
; 939  : 
; 940  : 			if(this->m_FloorData[gObj[aIndex].m_iIllusionTempleIndex].m_dwRestrictionSpellTime > 0)

  02981	8b 45 08	 mov	 eax, DWORD PTR _aIndex$[ebp]
  02984	69 c0 38 2b 00
	00		 imul	 eax, 11064		; 00002b38H
  0298a	8b 0d 00 00 00
	00		 mov	 ecx, DWORD PTR ?gObj@@3PAUOBJECTSTRUCT@@A ; gObj
  02990	8b 94 01 78 20
	00 00		 mov	 edx, DWORD PTR [ecx+eax+8312]
  02997	6b d2 30	 imul	 edx, 48			; 00000030H
  0299a	8b 45 fc	 mov	 eax, DWORD PTR _this$[ebp]
  0299d	83 7c 10 2c 00	 cmp	 DWORD PTR [eax+edx+44], 0
  029a2	76 37		 jbe	 SHORT $LN6@LeaveBattl

; 941  : 			{
; 942  : 				gObjRemoveBuffEffect(&gObj[aIndex], AT_ILLUSION_RESTRICTION_SPELL); //season 3.0 add-on

  029a4	6a 41		 push	 65			; 00000041H
  029a6	8b 45 08	 mov	 eax, DWORD PTR _aIndex$[ebp]
  029a9	69 c0 38 2b 00
	00		 imul	 eax, 11064		; 00002b38H
  029af	03 05 00 00 00
	00		 add	 eax, DWORD PTR ?gObj@@3PAUOBJECTSTRUCT@@A ; gObj
  029b5	50		 push	 eax
  029b6	e8 00 00 00 00	 call	 ?gObjRemoveBuffEffect@@YAEPAUOBJECTSTRUCT@@H@Z ; gObjRemoveBuffEffect
  029bb	83 c4 08	 add	 esp, 8

; 943  : 				this->GCIllusionTempleSkillCancel(&gObj[aIndex], 211);

  029be	68 d3 00 00 00	 push	 211			; 000000d3H
  029c3	8b 45 08	 mov	 eax, DWORD PTR _aIndex$[ebp]
  029c6	69 c0 38 2b 00
	00		 imul	 eax, 11064		; 00002b38H
  029cc	03 05 00 00 00
	00		 add	 eax, DWORD PTR ?gObj@@3PAUOBJECTSTRUCT@@A ; gObj
  029d2	50		 push	 eax
  029d3	8b 4d fc	 mov	 ecx, DWORD PTR _this$[ebp]
  029d6	e8 00 00 00 00	 call	 ?GCIllusionTempleSkillCancel@CIllusionTempleProcess@@QAEXPAUOBJECTSTRUCT@@G@Z ; CIllusionTempleProcess::GCIllusionTempleSkillCancel
$LN6@LeaveBattl:

; 944  : 			}
; 945  : 
; 946  : 			if(this->m_FloorData[gObj[aIndex].m_iIllusionTempleIndex].m_btTeamJoinSide == 0)

  029db	8b 45 08	 mov	 eax, DWORD PTR _aIndex$[ebp]
  029de	69 c0 38 2b 00
	00		 imul	 eax, 11064		; 00002b38H
  029e4	8b 0d 00 00 00
	00		 mov	 ecx, DWORD PTR ?gObj@@3PAUOBJECTSTRUCT@@A ; gObj
  029ea	8b 94 01 78 20
	00 00		 mov	 edx, DWORD PTR [ecx+eax+8312]
  029f1	6b d2 30	 imul	 edx, 48			; 00000030H
  029f4	8b 45 fc	 mov	 eax, DWORD PTR _this$[ebp]
  029f7	0f b6 4c 10 24	 movzx	 ecx, BYTE PTR [eax+edx+36]
  029fc	85 c9		 test	 ecx, ecx
  029fe	75 17		 jne	 SHORT $LN5@LeaveBattl

; 947  : 			{
; 948  : 				this->m_iYellowTeamUserCount--;

  02a00	8b 45 fc	 mov	 eax, DWORD PTR _this$[ebp]
  02a03	8b 88 c8 03 00
	00		 mov	 ecx, DWORD PTR [eax+968]
  02a09	83 e9 01	 sub	 ecx, 1
  02a0c	8b 55 fc	 mov	 edx, DWORD PTR _this$[ebp]
  02a0f	89 8a c8 03 00
	00		 mov	 DWORD PTR [edx+968], ecx
  02a15	eb 3b		 jmp	 SHORT $LN3@LeaveBattl
$LN5@LeaveBattl:

; 949  : 			}
; 950  : 			else if(this->m_FloorData[gObj[aIndex].m_iIllusionTempleIndex].m_btTeamJoinSide == 1)

  02a17	8b 45 08	 mov	 eax, DWORD PTR _aIndex$[ebp]
  02a1a	69 c0 38 2b 00
	00		 imul	 eax, 11064		; 00002b38H
  02a20	8b 0d 00 00 00
	00		 mov	 ecx, DWORD PTR ?gObj@@3PAUOBJECTSTRUCT@@A ; gObj
  02a26	8b 94 01 78 20
	00 00		 mov	 edx, DWORD PTR [ecx+eax+8312]
  02a2d	6b d2 30	 imul	 edx, 48			; 00000030H
  02a30	8b 45 fc	 mov	 eax, DWORD PTR _this$[ebp]
  02a33	0f b6 4c 10 24	 movzx	 ecx, BYTE PTR [eax+edx+36]
  02a38	83 f9 01	 cmp	 ecx, 1
  02a3b	75 15		 jne	 SHORT $LN3@LeaveBattl

; 951  : 			{
; 952  : 				this->m_iBlueTeamUserCount--;

  02a3d	8b 45 fc	 mov	 eax, DWORD PTR _this$[ebp]
  02a40	8b 88 cc 03 00
	00		 mov	 ecx, DWORD PTR [eax+972]
  02a46	83 e9 01	 sub	 ecx, 1
  02a49	8b 55 fc	 mov	 edx, DWORD PTR _this$[ebp]
  02a4c	89 8a cc 03 00
	00		 mov	 DWORD PTR [edx+972], ecx
$LN3@LeaveBattl:

; 953  : 			}
; 954  : 
; 955  : 			this->InitFloorData(gObj[aIndex].m_iIllusionTempleIndex);

  02a52	8b 45 08	 mov	 eax, DWORD PTR _aIndex$[ebp]
  02a55	69 c0 38 2b 00
	00		 imul	 eax, 11064		; 00002b38H
  02a5b	8b 0d 00 00 00
	00		 mov	 ecx, DWORD PTR ?gObj@@3PAUOBJECTSTRUCT@@A ; gObj
  02a61	8b 94 01 78 20
	00 00		 mov	 edx, DWORD PTR [ecx+eax+8312]
  02a68	52		 push	 edx
  02a69	8b 4d fc	 mov	 ecx, DWORD PTR _this$[ebp]
  02a6c	e8 00 00 00 00	 call	 ?InitFloorData@CIllusionTempleProcess@@QAEXH@Z ; CIllusionTempleProcess::InitFloorData

; 956  : 
; 957  : 			gObj[aIndex].m_iIllusionTempleIndex = -1;

  02a71	8b 45 08	 mov	 eax, DWORD PTR _aIndex$[ebp]
  02a74	69 c0 38 2b 00
	00		 imul	 eax, 11064		; 00002b38H
  02a7a	8b 0d 00 00 00
	00		 mov	 ecx, DWORD PTR ?gObj@@3PAUOBJECTSTRUCT@@A ; gObj
  02a80	c7 84 01 78 20
	00 00 ff ff ff
	ff		 mov	 DWORD PTR [ecx+eax+8312], -1

; 958  : 
; 959  : 			this->m_iEnteredUserCount--;

  02a8b	8b 45 fc	 mov	 eax, DWORD PTR _this$[ebp]
  02a8e	8b 88 28 02 00
	00		 mov	 ecx, DWORD PTR [eax+552]
  02a94	83 e9 01	 sub	 ecx, 1
  02a97	8b 55 fc	 mov	 edx, DWORD PTR _this$[ebp]
  02a9a	89 8a 28 02 00
	00		 mov	 DWORD PTR [edx+552], ecx

; 960  : 
; 961  : 			LogAddTD("[Illusion Temple] (%d) LeaveUser: (%s)(%s)", this->m_btFloorIndex+1, gObj[aIndex].AccountID, gObj[aIndex].Name);

  02aa0	8b 45 08	 mov	 eax, DWORD PTR _aIndex$[ebp]
  02aa3	69 c0 38 2b 00
	00		 imul	 eax, 11064		; 00002b38H
  02aa9	8b 0d 00 00 00
	00		 mov	 ecx, DWORD PTR ?gObj@@3PAUOBJECTSTRUCT@@A ; gObj
  02aaf	8d 54 01 77	 lea	 edx, DWORD PTR [ecx+eax+119]
  02ab3	52		 push	 edx
  02ab4	8b 45 08	 mov	 eax, DWORD PTR _aIndex$[ebp]
  02ab7	69 c0 38 2b 00
	00		 imul	 eax, 11064		; 00002b38H
  02abd	8b 0d 00 00 00
	00		 mov	 ecx, DWORD PTR ?gObj@@3PAUOBJECTSTRUCT@@A ; gObj
  02ac3	8d 54 01 6c	 lea	 edx, DWORD PTR [ecx+eax+108]
  02ac7	52		 push	 edx
  02ac8	8b 45 fc	 mov	 eax, DWORD PTR _this$[ebp]
  02acb	0f b6 88 2c 02
	00 00		 movzx	 ecx, BYTE PTR [eax+556]
  02ad2	83 c1 01	 add	 ecx, 1
  02ad5	51		 push	 ecx
  02ad6	68 00 00 00 00	 push	 OFFSET ??_C@_0CL@PJKIAECJ@?$FLIllusion?5Temple?$FN?5?$CI?$CFd?$CJ?5LeaveUser@
  02adb	ff 15 00 00 00
	00		 call	 DWORD PTR ?LogAddTD@@3P6AXPADZZA ; LogAddTD
  02ae1	83 c4 10	 add	 esp, 16			; 00000010H
$LN12@LeaveBattl:

; 962  : 		}
; 963  : 	}
; 964  : 
; 965  : 	LeaveCriticalSection(&this->m_cs);

  02ae4	8b 45 fc	 mov	 eax, DWORD PTR _this$[ebp]
  02ae7	83 c0 08	 add	 eax, 8
  02aea	50		 push	 eax
  02aeb	ff 15 00 00 00
	00		 call	 DWORD PTR __imp__LeaveCriticalSection@4

; 966  : 
; 967  : 	if(gObj[aIndex].PartyNumber >= 0)

  02af1	8b 45 08	 mov	 eax, DWORD PTR _aIndex$[ebp]
  02af4	69 c0 38 2b 00
	00		 imul	 eax, 11064		; 00002b38H
  02afa	8b 0d 00 00 00
	00		 mov	 ecx, DWORD PTR ?gObj@@3PAUOBJECTSTRUCT@@A ; gObj
  02b00	83 bc 01 2c 04
	00 00 00	 cmp	 DWORD PTR [ecx+eax+1068], 0
  02b08	7c 76		 jl	 SHORT $LN1@LeaveBattl

; 968  : 	{
; 969  : 		PMSG_PARTYDELUSER pMsg;
; 970  : 
; 971  : 		int Index = gParty.GetIndex(gObj[aIndex].PartyNumber, gObj[aIndex].m_Index, gObj[aIndex].DBNumber);

  02b0a	8b 45 08	 mov	 eax, DWORD PTR _aIndex$[ebp]
  02b0d	69 c0 38 2b 00
	00		 imul	 eax, 11064		; 00002b38H
  02b13	8b 0d 00 00 00
	00		 mov	 ecx, DWORD PTR ?gObj@@3PAUOBJECTSTRUCT@@A ; gObj
  02b19	8b 54 01 2c	 mov	 edx, DWORD PTR [ecx+eax+44]
  02b1d	52		 push	 edx
  02b1e	8b 45 08	 mov	 eax, DWORD PTR _aIndex$[ebp]
  02b21	69 c0 38 2b 00
	00		 imul	 eax, 11064		; 00002b38H
  02b27	8b 0d 00 00 00
	00		 mov	 ecx, DWORD PTR ?gObj@@3PAUOBJECTSTRUCT@@A ; gObj
  02b2d	8b 14 01	 mov	 edx, DWORD PTR [ecx+eax]
  02b30	52		 push	 edx
  02b31	8b 45 08	 mov	 eax, DWORD PTR _aIndex$[ebp]
  02b34	69 c0 38 2b 00
	00		 imul	 eax, 11064		; 00002b38H
  02b3a	8b 0d 00 00 00
	00		 mov	 ecx, DWORD PTR ?gObj@@3PAUOBJECTSTRUCT@@A ; gObj
  02b40	8b 94 01 2c 04
	00 00		 mov	 edx, DWORD PTR [ecx+eax+1068]
  02b47	52		 push	 edx
  02b48	b9 00 00 00 00	 mov	 ecx, OFFSET ?gParty@@3VPartyClass@@A ; gParty
  02b4d	e8 00 00 00 00	 call	 ?GetIndex@PartyClass@@QAEHHHH@Z ; PartyClass::GetIndex
  02b52	89 45 ec	 mov	 DWORD PTR _Index$234230[ebp], eax

; 972  : 
; 973  : 		if(Index >= 0)

  02b55	83 7d ec 00	 cmp	 DWORD PTR _Index$234230[ebp], 0
  02b59	7c 25		 jl	 SHORT $LN1@LeaveBattl

; 974  : 		{
; 975  : 			pMsg.Number = Index;

  02b5b	8a 45 ec	 mov	 al, BYTE PTR _Index$234230[ebp]
  02b5e	88 45 f3	 mov	 BYTE PTR _pMsg$234229[ebp+3], al

; 976  : 			CGPartyDelUser(&pMsg, gObj[aIndex].m_Index);

  02b61	8b 45 08	 mov	 eax, DWORD PTR _aIndex$[ebp]
  02b64	69 c0 38 2b 00
	00		 imul	 eax, 11064		; 00002b38H
  02b6a	8b 0d 00 00 00
	00		 mov	 ecx, DWORD PTR ?gObj@@3PAUOBJECTSTRUCT@@A ; gObj
  02b70	8b 14 01	 mov	 edx, DWORD PTR [ecx+eax]
  02b73	52		 push	 edx
  02b74	8d 45 f0	 lea	 eax, DWORD PTR _pMsg$234229[ebp]
  02b77	50		 push	 eax
  02b78	e8 00 00 00 00	 call	 ?CGPartyDelUser@@YAXPAUPMSG_PARTYDELUSER@@H@Z ; CGPartyDelUser
  02b7d	83 c4 08	 add	 esp, 8
$LN1@LeaveBattl:

; 977  : 		}
; 978  : 	}
; 979  : 
; 980  : 	gObj[aIndex].m_Change = -1;

  02b80	8b 45 08	 mov	 eax, DWORD PTR _aIndex$[ebp]
  02b83	69 c0 38 2b 00
	00		 imul	 eax, 11064		; 00002b38H
  02b89	8b 0d 00 00 00
	00		 mov	 ecx, DWORD PTR ?gObj@@3PAUOBJECTSTRUCT@@A ; gObj
  02b8f	c7 84 01 54 04
	00 00 ff ff ff
	ff		 mov	 DWORD PTR [ecx+eax+1108], -1

; 981  : 	gObjViewportListProtocolCreate(&gObj[aIndex]);

  02b9a	8b 45 08	 mov	 eax, DWORD PTR _aIndex$[ebp]
  02b9d	69 c0 38 2b 00
	00		 imul	 eax, 11064		; 00002b38H
  02ba3	03 05 00 00 00
	00		 add	 eax, DWORD PTR ?gObj@@3PAUOBJECTSTRUCT@@A ; gObj
  02ba9	50		 push	 eax
  02baa	e8 00 00 00 00	 call	 ?gObjViewportListProtocolCreate@@YAXPAUOBJECTSTRUCT@@@Z ; gObjViewportListProtocolCreate
  02baf	83 c4 04	 add	 esp, 4

; 982  : 
; 983  : 	return TRUE;

  02bb2	b8 01 00 00 00	 mov	 eax, 1
$LN15@LeaveBattl:

; 984  : }

  02bb7	5f		 pop	 edi
  02bb8	5e		 pop	 esi
  02bb9	5b		 pop	 ebx
  02bba	8b e5		 mov	 esp, ebp
  02bbc	5d		 pop	 ebp
  02bbd	c2 04 00	 ret	 4
?LeaveBattleUser@CIllusionTempleProcess@@QAEHH@Z ENDP	; CIllusionTempleProcess::LeaveBattleUser
_TEXT	ENDS
PUBLIC	?__LINE__Var@?1??GetFloorIndex@CIllusionTempleProcess@@QAEHH@Z@4JA ; `CIllusionTempleProcess::GetFloorIndex'::`2'::__LINE__Var
PUBLIC	?GetFloorIndex@CIllusionTempleProcess@@QAEHH@Z	; CIllusionTempleProcess::GetFloorIndex
EXTRN	?g_iUseMaxLevelIllusionTemple@@3HA:DWORD	; g_iUseMaxLevelIllusionTemple
;	COMDAT ?__LINE__Var@?1??GetFloorIndex@CIllusionTempleProcess@@QAEHH@Z@4JA
_DATA	SEGMENT
?__LINE__Var@?1??GetFloorIndex@CIllusionTempleProcess@@QAEHH@Z@4JA DD 03dbH ; `CIllusionTempleProcess::GetFloorIndex'::`2'::__LINE__Var
; Function compile flags: /Odtp /ZI
_DATA	ENDS
_TEXT	SEGMENT
tv69 = -80						; size = 4
_lpObj$ = -12						; size = 4
_loc2$ = -8						; size = 4
_this$ = -4						; size = 4
_aIndex$ = 8						; size = 4
?GetFloorIndex@CIllusionTempleProcess@@QAEHH@Z PROC	; CIllusionTempleProcess::GetFloorIndex
; _this$ = ecx

; 987  : {

  02bc0	55		 push	 ebp
  02bc1	8b ec		 mov	 ebp, esp
  02bc3	83 ec 50	 sub	 esp, 80			; 00000050H
  02bc6	53		 push	 ebx
  02bc7	56		 push	 esi
  02bc8	57		 push	 edi
  02bc9	89 4d fc	 mov	 DWORD PTR _this$[ebp], ecx

; 988  : 	int loc2 = 0; //?? weird

  02bcc	c7 45 f8 00 00
	00 00		 mov	 DWORD PTR _loc2$[ebp], 0

; 989  : 
; 990  : 	LPOBJ lpObj = &gObj[aIndex];

  02bd3	8b 45 08	 mov	 eax, DWORD PTR _aIndex$[ebp]
  02bd6	69 c0 38 2b 00
	00		 imul	 eax, 11064		; 00002b38H
  02bdc	03 05 00 00 00
	00		 add	 eax, DWORD PTR ?gObj@@3PAUOBJECTSTRUCT@@A ; gObj
  02be2	89 45 f4	 mov	 DWORD PTR _lpObj$[ebp], eax

; 991  : 
; 992  : 	if( OBJMAX_RANGE(aIndex) == FALSE )

  02be5	83 7d 08 00	 cmp	 DWORD PTR _aIndex$[ebp], 0
  02be9	7d 09		 jge	 SHORT $LN13@GetFloorIn
  02beb	c7 45 b0 00 00
	00 00		 mov	 DWORD PTR tv69[ebp], 0
  02bf2	eb 0f		 jmp	 SHORT $LN14@GetFloorIn
$LN13@GetFloorIn:
  02bf4	33 c0		 xor	 eax, eax
  02bf6	81 7d 08 97 3a
	00 00		 cmp	 DWORD PTR _aIndex$[ebp], 14999 ; 00003a97H
  02bfd	0f 9e c0	 setle	 al
  02c00	89 45 b0	 mov	 DWORD PTR tv69[ebp], eax
$LN14@GetFloorIn:
  02c03	83 7d b0 00	 cmp	 DWORD PTR tv69[ebp], 0
  02c07	75 24		 jne	 SHORT $LN10@GetFloorIn

; 993  : 	{
; 994  : 		LogAdd("return %s %d", __FILE__, __LINE__);

  02c09	a1 00 00 00 00	 mov	 eax, DWORD PTR ?__LINE__Var@?1??GetFloorIndex@CIllusionTempleProcess@@QAEHH@Z@4JA
  02c0e	83 c0 07	 add	 eax, 7
  02c11	50		 push	 eax
  02c12	68 00 00 00 00	 push	 OFFSET ??_C@_0EN@FIHDICBF@d?3?2projects?2exteam6?43?2source?2gam@
  02c17	68 00 00 00 00	 push	 OFFSET ??_C@_0N@GGPGOPEN@return?5?$CFs?5?$CFd?$AA@
  02c1c	ff 15 00 00 00
	00		 call	 DWORD PTR ?LogAdd@@3P6AXPADZZA ; LogAdd
  02c22	83 c4 0c	 add	 esp, 12			; 0000000cH

; 995  : 		return -1;

  02c25	83 c8 ff	 or	 eax, -1
  02c28	e9 e6 00 00 00	 jmp	 $LN11@GetFloorIn
$LN10@GetFloorIn:

; 996  : 	}
; 997  : 
; 998  : 	if( lpObj->Level < 220 ) return 0;

  02c2d	8b 45 f4	 mov	 eax, DWORD PTR _lpObj$[ebp]
  02c30	0f bf 88 be 00
	00 00		 movsx	 ecx, WORD PTR [eax+190]
  02c37	81 f9 dc 00 00
	00		 cmp	 ecx, 220		; 000000dcH
  02c3d	7d 07		 jge	 SHORT $LN9@GetFloorIn
  02c3f	33 c0		 xor	 eax, eax
  02c41	e9 cd 00 00 00	 jmp	 $LN11@GetFloorIn
$LN9@GetFloorIn:

; 999  : 	if( lpObj->Level < 271 ) return 1;

  02c46	8b 45 f4	 mov	 eax, DWORD PTR _lpObj$[ebp]
  02c49	0f bf 88 be 00
	00 00		 movsx	 ecx, WORD PTR [eax+190]
  02c50	81 f9 0f 01 00
	00		 cmp	 ecx, 271		; 0000010fH
  02c56	7d 0a		 jge	 SHORT $LN8@GetFloorIn
  02c58	b8 01 00 00 00	 mov	 eax, 1
  02c5d	e9 b1 00 00 00	 jmp	 $LN11@GetFloorIn
$LN8@GetFloorIn:

; 1000 : 	if( lpObj->Level < 321 ) return 2;

  02c62	8b 45 f4	 mov	 eax, DWORD PTR _lpObj$[ebp]
  02c65	0f bf 88 be 00
	00 00		 movsx	 ecx, WORD PTR [eax+190]
  02c6c	81 f9 41 01 00
	00		 cmp	 ecx, 321		; 00000141H
  02c72	7d 0a		 jge	 SHORT $LN7@GetFloorIn
  02c74	b8 02 00 00 00	 mov	 eax, 2
  02c79	e9 95 00 00 00	 jmp	 $LN11@GetFloorIn
$LN7@GetFloorIn:

; 1001 : 	if( lpObj->Level < 351 ) return 3;

  02c7e	8b 45 f4	 mov	 eax, DWORD PTR _lpObj$[ebp]
  02c81	0f bf 88 be 00
	00 00		 movsx	 ecx, WORD PTR [eax+190]
  02c88	81 f9 5f 01 00
	00		 cmp	 ecx, 351		; 0000015fH
  02c8e	7d 07		 jge	 SHORT $LN6@GetFloorIn
  02c90	b8 03 00 00 00	 mov	 eax, 3
  02c95	eb 7c		 jmp	 SHORT $LN11@GetFloorIn
$LN6@GetFloorIn:

; 1002 : 	if( lpObj->Level < 381 ) return 4;

  02c97	8b 45 f4	 mov	 eax, DWORD PTR _lpObj$[ebp]
  02c9a	0f bf 88 be 00
	00 00		 movsx	 ecx, WORD PTR [eax+190]
  02ca1	81 f9 7d 01 00
	00		 cmp	 ecx, 381		; 0000017dH
  02ca7	7d 07		 jge	 SHORT $LN5@GetFloorIn
  02ca9	b8 04 00 00 00	 mov	 eax, 4
  02cae	eb 63		 jmp	 SHORT $LN11@GetFloorIn
$LN5@GetFloorIn:

; 1003 : 	if( lpObj->Level <= 400 && lpObj->ChangeUP3rd == 0) return 5;

  02cb0	8b 45 f4	 mov	 eax, DWORD PTR _lpObj$[ebp]
  02cb3	0f bf 88 be 00
	00 00		 movsx	 ecx, WORD PTR [eax+190]
  02cba	81 f9 90 01 00
	00		 cmp	 ecx, 400		; 00000190H
  02cc0	7f 15		 jg	 SHORT $LN4@GetFloorIn
  02cc2	8b 45 f4	 mov	 eax, DWORD PTR _lpObj$[ebp]
  02cc5	0f b6 88 bc 00
	00 00		 movzx	 ecx, BYTE PTR [eax+188]
  02ccc	85 c9		 test	 ecx, ecx
  02cce	75 07		 jne	 SHORT $LN4@GetFloorIn
  02cd0	b8 05 00 00 00	 mov	 eax, 5
  02cd5	eb 3c		 jmp	 SHORT $LN11@GetFloorIn
$LN4@GetFloorIn:

; 1004 : 	if( lpObj->Level == 400 && lpObj->ChangeUP3rd != 0){ if(g_iUseMaxLevelIllusionTemple != 0){	return 6;}else{return 5;}};

  02cd7	8b 45 f4	 mov	 eax, DWORD PTR _lpObj$[ebp]
  02cda	0f bf 88 be 00
	00 00		 movsx	 ecx, WORD PTR [eax+190]
  02ce1	81 f9 90 01 00
	00		 cmp	 ecx, 400		; 00000190H
  02ce7	75 27		 jne	 SHORT $LN3@GetFloorIn
  02ce9	8b 45 f4	 mov	 eax, DWORD PTR _lpObj$[ebp]
  02cec	0f b6 88 bc 00
	00 00		 movzx	 ecx, BYTE PTR [eax+188]
  02cf3	85 c9		 test	 ecx, ecx
  02cf5	74 19		 je	 SHORT $LN3@GetFloorIn
  02cf7	83 3d 00 00 00
	00 00		 cmp	 DWORD PTR ?g_iUseMaxLevelIllusionTemple@@3HA, 0 ; g_iUseMaxLevelIllusionTemple
  02cfe	74 09		 je	 SHORT $LN2@GetFloorIn
  02d00	b8 06 00 00 00	 mov	 eax, 6
  02d05	eb 0c		 jmp	 SHORT $LN11@GetFloorIn
  02d07	eb 07		 jmp	 SHORT $LN3@GetFloorIn
$LN2@GetFloorIn:
  02d09	b8 05 00 00 00	 mov	 eax, 5
  02d0e	eb 03		 jmp	 SHORT $LN11@GetFloorIn
$LN3@GetFloorIn:

; 1005 : 	return -1;

  02d10	83 c8 ff	 or	 eax, -1
$LN11@GetFloorIn:

; 1006 : }

  02d13	5f		 pop	 edi
  02d14	5e		 pop	 esi
  02d15	5b		 pop	 ebx
  02d16	8b e5		 mov	 esp, ebp
  02d18	5d		 pop	 ebp
  02d19	c2 04 00	 ret	 4
?GetFloorIndex@CIllusionTempleProcess@@QAEHH@Z ENDP	; CIllusionTempleProcess::GetFloorIndex
_TEXT	ENDS
EXTRN	?gObjIsConnected@@YAHH@Z:PROC			; gObjIsConnected
; Function compile flags: /Odtp /ZI
_TEXT	SEGMENT
_i$234252 = -8						; size = 4
_this$ = -4						; size = 4
?RemoveInvalid@CIllusionTempleProcess@@QAEXXZ PROC	; CIllusionTempleProcess::RemoveInvalid
; _this$ = ecx

; 1009 : {

  02d20	55		 push	 ebp
  02d21	8b ec		 mov	 ebp, esp
  02d23	83 ec 48	 sub	 esp, 72			; 00000048H
  02d26	53		 push	 ebx
  02d27	56		 push	 esi
  02d28	57		 push	 edi
  02d29	89 4d fc	 mov	 DWORD PTR _this$[ebp], ecx

; 1010 : 	EnterCriticalSection(&m_cs);

  02d2c	8b 45 fc	 mov	 eax, DWORD PTR _this$[ebp]
  02d2f	83 c0 08	 add	 eax, 8
  02d32	50		 push	 eax
  02d33	ff 15 00 00 00
	00		 call	 DWORD PTR __imp__EnterCriticalSection@4

; 1011 : 
; 1012 : 	this->m_iEnteredUserCount = 0;

  02d39	8b 45 fc	 mov	 eax, DWORD PTR _this$[ebp]
  02d3c	c7 80 28 02 00
	00 00 00 00 00	 mov	 DWORD PTR [eax+552], 0

; 1013 : 
; 1014 : 	for( int i = 0; i < MAX_FLOOR_USER; i++ )

  02d46	c7 45 f8 00 00
	00 00		 mov	 DWORD PTR _i$234252[ebp], 0
  02d4d	eb 09		 jmp	 SHORT $LN8@RemoveInva
$LN7@RemoveInva:
  02d4f	8b 45 f8	 mov	 eax, DWORD PTR _i$234252[ebp]
  02d52	83 c0 01	 add	 eax, 1
  02d55	89 45 f8	 mov	 DWORD PTR _i$234252[ebp], eax
$LN8@RemoveInva:
  02d58	83 7d f8 0a	 cmp	 DWORD PTR _i$234252[ebp], 10 ; 0000000aH
  02d5c	0f 8d db 00 00
	00		 jge	 $LN6@RemoveInva

; 1015 : 	{
; 1016 : 		if( this->m_FloorData[i].m_iTeamPlayerIndex != OBJ_EMPTY )

  02d62	8b 45 f8	 mov	 eax, DWORD PTR _i$234252[ebp]
  02d65	6b c0 30	 imul	 eax, 48			; 00000030H
  02d68	8b 4d fc	 mov	 ecx, DWORD PTR _this$[ebp]
  02d6b	83 7c 01 20 ff	 cmp	 DWORD PTR [ecx+eax+32], -1
  02d70	0f 84 c2 00 00
	00		 je	 $LN5@RemoveInva

; 1017 : 		{
; 1018 : 			if( gObjIsConnected(this->m_FloorData[i].m_iTeamPlayerIndex) == FALSE )

  02d76	8b 45 f8	 mov	 eax, DWORD PTR _i$234252[ebp]
  02d79	6b c0 30	 imul	 eax, 48			; 00000030H
  02d7c	8b 4d fc	 mov	 ecx, DWORD PTR _this$[ebp]
  02d7f	8b 54 01 20	 mov	 edx, DWORD PTR [ecx+eax+32]
  02d83	52		 push	 edx
  02d84	e8 00 00 00 00	 call	 ?gObjIsConnected@@YAHH@Z ; gObjIsConnected
  02d89	83 c4 04	 add	 esp, 4
  02d8c	85 c0		 test	 eax, eax
  02d8e	75 31		 jne	 SHORT $LN4@RemoveInva

; 1019 : 			{
; 1020 : 				gObj[this->m_FloorData[i].m_iTeamPlayerIndex].m_iIllusionTempleIndex = ILLUSIONTEMPLE_INVALID_INDEX;

  02d90	8b 45 f8	 mov	 eax, DWORD PTR _i$234252[ebp]
  02d93	6b c0 30	 imul	 eax, 48			; 00000030H
  02d96	8b 4d fc	 mov	 ecx, DWORD PTR _this$[ebp]
  02d99	8b 54 01 20	 mov	 edx, DWORD PTR [ecx+eax+32]
  02d9d	69 d2 38 2b 00
	00		 imul	 edx, 11064		; 00002b38H
  02da3	a1 00 00 00 00	 mov	 eax, DWORD PTR ?gObj@@3PAUOBJECTSTRUCT@@A ; gObj
  02da8	c7 84 10 78 20
	00 00 ff ff ff
	ff		 mov	 DWORD PTR [eax+edx+8312], -1

; 1021 : 				InitFloorData(i);

  02db3	8b 45 f8	 mov	 eax, DWORD PTR _i$234252[ebp]
  02db6	50		 push	 eax
  02db7	8b 4d fc	 mov	 ecx, DWORD PTR _this$[ebp]
  02dba	e8 00 00 00 00	 call	 ?InitFloorData@CIllusionTempleProcess@@QAEXH@Z ; CIllusionTempleProcess::InitFloorData
  02dbf	eb 77		 jmp	 SHORT $LN5@RemoveInva
$LN4@RemoveInva:

; 1022 : 			}
; 1023 : 			else if( gObj[this->m_FloorData[i].m_iTeamPlayerIndex].MapNumber != (MAP_INDEX_ILLUSIONTEMPLE + this->m_btFloorIndex) )

  02dc1	8b 45 f8	 mov	 eax, DWORD PTR _i$234252[ebp]
  02dc4	6b c0 30	 imul	 eax, 48			; 00000030H
  02dc7	8b 4d fc	 mov	 ecx, DWORD PTR _this$[ebp]
  02dca	8b 54 01 20	 mov	 edx, DWORD PTR [ecx+eax+32]
  02dce	69 d2 38 2b 00
	00		 imul	 edx, 11064		; 00002b38H
  02dd4	a1 00 00 00 00	 mov	 eax, DWORD PTR ?gObj@@3PAUOBJECTSTRUCT@@A ; gObj
  02dd9	0f b6 8c 10 49
	01 00 00	 movzx	 ecx, BYTE PTR [eax+edx+329]
  02de1	8b 55 fc	 mov	 edx, DWORD PTR _this$[ebp]
  02de4	0f b6 82 2c 02
	00 00		 movzx	 eax, BYTE PTR [edx+556]
  02deb	83 c0 2d	 add	 eax, 45			; 0000002dH
  02dee	3b c8		 cmp	 ecx, eax
  02df0	74 31		 je	 SHORT $LN2@RemoveInva

; 1024 : 			{
; 1025 : 				gObj[this->m_FloorData[i].m_iTeamPlayerIndex].m_iIllusionTempleIndex = ILLUSIONTEMPLE_INVALID_INDEX;

  02df2	8b 45 f8	 mov	 eax, DWORD PTR _i$234252[ebp]
  02df5	6b c0 30	 imul	 eax, 48			; 00000030H
  02df8	8b 4d fc	 mov	 ecx, DWORD PTR _this$[ebp]
  02dfb	8b 54 01 20	 mov	 edx, DWORD PTR [ecx+eax+32]
  02dff	69 d2 38 2b 00
	00		 imul	 edx, 11064		; 00002b38H
  02e05	a1 00 00 00 00	 mov	 eax, DWORD PTR ?gObj@@3PAUOBJECTSTRUCT@@A ; gObj
  02e0a	c7 84 10 78 20
	00 00 ff ff ff
	ff		 mov	 DWORD PTR [eax+edx+8312], -1

; 1026 : 				this->InitFloorData(i);

  02e15	8b 45 f8	 mov	 eax, DWORD PTR _i$234252[ebp]
  02e18	50		 push	 eax
  02e19	8b 4d fc	 mov	 ecx, DWORD PTR _this$[ebp]
  02e1c	e8 00 00 00 00	 call	 ?InitFloorData@CIllusionTempleProcess@@QAEXH@Z ; CIllusionTempleProcess::InitFloorData

; 1027 : 			}
; 1028 : 			else

  02e21	eb 15		 jmp	 SHORT $LN5@RemoveInva
$LN2@RemoveInva:

; 1029 : 			{
; 1030 : 				this->m_iEnteredUserCount++;

  02e23	8b 45 fc	 mov	 eax, DWORD PTR _this$[ebp]
  02e26	8b 88 28 02 00
	00		 mov	 ecx, DWORD PTR [eax+552]
  02e2c	83 c1 01	 add	 ecx, 1
  02e2f	8b 55 fc	 mov	 edx, DWORD PTR _this$[ebp]
  02e32	89 8a 28 02 00
	00		 mov	 DWORD PTR [edx+552], ecx
$LN5@RemoveInva:

; 1031 : 			}
; 1032 : 		}
; 1033 : 	}

  02e38	e9 12 ff ff ff	 jmp	 $LN7@RemoveInva
$LN6@RemoveInva:

; 1034 : 
; 1035 : 	LeaveCriticalSection(&m_cs);

  02e3d	8b 45 fc	 mov	 eax, DWORD PTR _this$[ebp]
  02e40	83 c0 08	 add	 eax, 8
  02e43	50		 push	 eax
  02e44	ff 15 00 00 00
	00		 call	 DWORD PTR __imp__LeaveCriticalSection@4

; 1036 : }

  02e4a	5f		 pop	 edi
  02e4b	5e		 pop	 esi
  02e4c	5b		 pop	 ebx
  02e4d	8b e5		 mov	 esp, ebp
  02e4f	5d		 pop	 ebp
  02e50	c3		 ret	 0
?RemoveInvalid@CIllusionTempleProcess@@QAEXXZ ENDP	; CIllusionTempleProcess::RemoveInvalid
_TEXT	ENDS
PUBLIC	?GetOpenStatus@CIllusionTempleProcess@@QAEHXZ	; CIllusionTempleProcess::GetOpenStatus
PUBLIC	?CheckLeftMinutesBeforeOpen@CIllusionTempleProcess@@QAEEXZ ; CIllusionTempleProcess::CheckLeftMinutesBeforeOpen
; Function compile flags: /Odtp /ZI
_TEXT	SEGMENT
_this$ = -4						; size = 4
?CheckLeftMinutesBeforeOpen@CIllusionTempleProcess@@QAEEXZ PROC ; CIllusionTempleProcess::CheckLeftMinutesBeforeOpen
; _this$ = ecx

; 1039 : {

  02e60	55		 push	 ebp
  02e61	8b ec		 mov	 ebp, esp
  02e63	83 ec 44	 sub	 esp, 68			; 00000044H
  02e66	53		 push	 ebx
  02e67	56		 push	 esi
  02e68	57		 push	 edi
  02e69	89 4d fc	 mov	 DWORD PTR _this$[ebp], ecx

; 1040 : 	if(this->GetState() == 0 && this->GetOpenStatus() == TRUE)

  02e6c	8b 4d fc	 mov	 ecx, DWORD PTR _this$[ebp]
  02e6f	e8 00 00 00 00	 call	 ?GetState@CIllusionTempleProcess@@QAEEXZ ; CIllusionTempleProcess::GetState
  02e74	0f b6 c0	 movzx	 eax, al
  02e77	85 c0		 test	 eax, eax
  02e79	75 18		 jne	 SHORT $LN1@CheckLeftM
  02e7b	8b 4d fc	 mov	 ecx, DWORD PTR _this$[ebp]
  02e7e	e8 00 00 00 00	 call	 ?GetOpenStatus@CIllusionTempleProcess@@QAEHXZ ; CIllusionTempleProcess::GetOpenStatus
  02e83	83 f8 01	 cmp	 eax, 1
  02e86	75 0b		 jne	 SHORT $LN1@CheckLeftM

; 1041 : 	{
; 1042 : 		return this->m_iLeftMinutesBeforeOpen;

  02e88	8b 45 fc	 mov	 eax, DWORD PTR _this$[ebp]
  02e8b	8a 80 98 03 00
	00		 mov	 al, BYTE PTR [eax+920]
  02e91	eb 02		 jmp	 SHORT $LN2@CheckLeftM
$LN1@CheckLeftM:

; 1043 : 	}
; 1044 : 	return FALSE;

  02e93	32 c0		 xor	 al, al
$LN2@CheckLeftM:

; 1045 : }

  02e95	5f		 pop	 edi
  02e96	5e		 pop	 esi
  02e97	5b		 pop	 ebx
  02e98	8b e5		 mov	 esp, ebp
  02e9a	5d		 pop	 ebp
  02e9b	c3		 ret	 0
?CheckLeftMinutesBeforeOpen@CIllusionTempleProcess@@QAEEXZ ENDP ; CIllusionTempleProcess::CheckLeftMinutesBeforeOpen
; Function compile flags: /Odtp /ZI
; File d:\projects\exteam6.3\source\gameserver\gameserver\illusiontempleprocess.h
_TEXT	ENDS
;	COMDAT ?GetOpenStatus@CIllusionTempleProcess@@QAEHXZ
_TEXT	SEGMENT
_this$ = -4						; size = 4
?GetOpenStatus@CIllusionTempleProcess@@QAEHXZ PROC	; CIllusionTempleProcess::GetOpenStatus, COMDAT
; _this$ = ecx

; 281  : 	BOOL GetOpenStatus(){return this->m_bOpenStatus;}

  00000	55		 push	 ebp
  00001	8b ec		 mov	 ebp, esp
  00003	83 ec 44	 sub	 esp, 68			; 00000044H
  00006	53		 push	 ebx
  00007	56		 push	 esi
  00008	57		 push	 edi
  00009	89 4d fc	 mov	 DWORD PTR _this$[ebp], ecx
  0000c	8b 45 fc	 mov	 eax, DWORD PTR _this$[ebp]
  0000f	8b 80 90 03 00
	00		 mov	 eax, DWORD PTR [eax+912]
  00015	5f		 pop	 edi
  00016	5e		 pop	 esi
  00017	5b		 pop	 ebx
  00018	8b e5		 mov	 esp, ebp
  0001a	5d		 pop	 ebp
  0001b	c3		 ret	 0
?GetOpenStatus@CIllusionTempleProcess@@QAEHXZ ENDP	; CIllusionTempleProcess::GetOpenStatus
_TEXT	ENDS
PUBLIC	?RemainTime@CIllusionTempleProcess@@QAEEXZ	; CIllusionTempleProcess::RemainTime
; Function compile flags: /Odtp /ZI
; File d:\projects\exteam6.3\source\gameserver\gameserver\illusiontempleprocess.cpp
_TEXT	SEGMENT
$T235744 = -152						; size = 4
$T235745 = -148						; size = 4
$T235746 = -144						; size = 4
$T235747 = -140						; size = 4
$T235748 = -136						; size = 4
$T235749 = -132						; size = 4
$T235750 = -128						; size = 4
_loc13$234286 = -60					; size = 4
_loc12$234285 = -56					; size = 4
_ltime$234284 = -52					; size = 8
_today$234283 = -44					; size = 4
_CurrentTime$234282 = -40				; size = 4
_CheckTime$234281 = -36					; size = 4
_BaseTime$234280 = -32					; size = 4
_WebzenVar2$234279 = -28				; size = 8
_WebzenVar1$234278 = -20				; size = 8
_it$234277 = -12					; size = 4
_loc2$ = -5						; size = 1
_this$ = -4						; size = 4
?RemainTime@CIllusionTempleProcess@@QAEEXZ PROC		; CIllusionTempleProcess::RemainTime
; _this$ = ecx

; 1048 : {

  02ea0	55		 push	 ebp
  02ea1	8b ec		 mov	 ebp, esp
  02ea3	81 ec 98 00 00
	00		 sub	 esp, 152		; 00000098H
  02ea9	53		 push	 ebx
  02eaa	56		 push	 esi
  02eab	57		 push	 edi
  02eac	89 4d fc	 mov	 DWORD PTR _this$[ebp], ecx

; 1049 : 	BYTE loc2 = 0;

  02eaf	c6 45 fb 00	 mov	 BYTE PTR _loc2$[ebp], 0

; 1050 : 	
; 1051 : 	if(this->GetState() == 0 && this->GetOpenStatus() == TRUE)

  02eb3	8b 4d fc	 mov	 ecx, DWORD PTR _this$[ebp]
  02eb6	e8 00 00 00 00	 call	 ?GetState@CIllusionTempleProcess@@QAEEXZ ; CIllusionTempleProcess::GetState
  02ebb	0f b6 c0	 movzx	 eax, al
  02ebe	85 c0		 test	 eax, eax
  02ec0	75 16		 jne	 SHORT $LN20@RemainTime
  02ec2	8b 4d fc	 mov	 ecx, DWORD PTR _this$[ebp]
  02ec5	e8 00 00 00 00	 call	 ?GetOpenStatus@CIllusionTempleProcess@@QAEHXZ ; CIllusionTempleProcess::GetOpenStatus
  02eca	83 f8 01	 cmp	 eax, 1
  02ecd	75 09		 jne	 SHORT $LN20@RemainTime

; 1052 : 	{
; 1053 : 		loc2 = 0;

  02ecf	c6 45 fb 00	 mov	 BYTE PTR _loc2$[ebp], 0
  02ed3	e9 a0 02 00 00	 jmp	 $LN19@RemainTime
$LN20@RemainTime:

; 1054 : 	}
; 1055 : 	else if(this->GetState() == 0 && this->GetOpenStatus() == FALSE)

  02ed8	8b 4d fc	 mov	 ecx, DWORD PTR _this$[ebp]
  02edb	e8 00 00 00 00	 call	 ?GetState@CIllusionTempleProcess@@QAEEXZ ; CIllusionTempleProcess::GetState
  02ee0	0f b6 c0	 movzx	 eax, al
  02ee3	85 c0		 test	 eax, eax
  02ee5	75 23		 jne	 SHORT $LN18@RemainTime
  02ee7	8b 4d fc	 mov	 ecx, DWORD PTR _this$[ebp]
  02eea	e8 00 00 00 00	 call	 ?GetOpenStatus@CIllusionTempleProcess@@QAEHXZ ; CIllusionTempleProcess::GetOpenStatus
  02eef	85 c0		 test	 eax, eax
  02ef1	75 17		 jne	 SHORT $LN18@RemainTime

; 1056 : 	{
; 1057 : 		loc2 = this->m_iLeftMinutesBeforeOpen - m_i_IT_OpenTime;

  02ef3	8b 45 fc	 mov	 eax, DWORD PTR _this$[ebp]
  02ef6	8b 88 98 03 00
	00		 mov	 ecx, DWORD PTR [eax+920]
  02efc	2b 0d 00 00 00
	00		 sub	 ecx, DWORD PTR ?m_i_IT_OpenTime@@3HA ; m_i_IT_OpenTime
  02f02	88 4d fb	 mov	 BYTE PTR _loc2$[ebp], cl

; 1058 : 	}
; 1059 : 	else

  02f05	e9 6e 02 00 00	 jmp	 $LN19@RemainTime
$LN18@RemainTime:

; 1060 : 	{
; 1061 : 		std::list<ILLUSIONTEMPLE_START_TIME>::iterator it; //loc2 -> ebp 4

  02f0a	8d 4d f4	 lea	 ecx, DWORD PTR _it$234277[ebp]
  02f0d	e8 00 00 00 00	 call	 ??0?$_List_iterator@V?$_List_val@UILLUSIONTEMPLE_START_TIME@@V?$allocator@UILLUSIONTEMPLE_START_TIME@@@std@@@std@@@std@@QAE@XZ ; std::_List_iterator<std::_List_val<ILLUSIONTEMPLE_START_TIME,std::allocator<ILLUSIONTEMPLE_START_TIME> > >::_List_iterator<std::_List_val<ILLUSIONTEMPLE_START_TIME,std::allocator<ILLUSIONTEMPLE_START_TIME> > >

; 1062 : 		ILLUSIONTEMPLE_START_TIME WebzenVar1; //loc 3-4 -> ebp C
; 1063 : 		ILLUSIONTEMPLE_START_TIME WebzenVar2; //loc 5-6 -> epb 14
; 1064 : 		int BaseTime = 0; // loc7 -> ebp 18

  02f12	c7 45 e0 00 00
	00 00		 mov	 DWORD PTR _BaseTime$234280[ebp], 0

; 1065 : 		int CheckTime = 0; // loc8 -> ebp 1C

  02f19	c7 45 dc 00 00
	00 00		 mov	 DWORD PTR _CheckTime$234281[ebp], 0

; 1066 : 		DWORD CurrentTime = 0;	// loc9 -> ebp 20

  02f20	c7 45 d8 00 00
	00 00		 mov	 DWORD PTR _CurrentTime$234282[ebp], 0

; 1067 : 		
; 1068 : 		tm * today; //loc10 -> ebp 28
; 1069 : 		time_t ltime; //loc11 -> ebp 2c
; 1070 : 
; 1071 : 		int loc12; //loc12 -> ebp30
; 1072 : 		int loc13; //loc13 -> ebp34
; 1073 : 
; 1074 : 		if(m_listIllusionTempleOpenTime.size() == 0)

  02f27	b9 00 00 00 00	 mov	 ecx, OFFSET ?m_listIllusionTempleOpenTime@@3V?$list@UILLUSIONTEMPLE_START_TIME@@V?$allocator@UILLUSIONTEMPLE_START_TIME@@@std@@@std@@A ; m_listIllusionTempleOpenTime
  02f2c	e8 00 00 00 00	 call	 ?size@?$list@UILLUSIONTEMPLE_START_TIME@@V?$allocator@UILLUSIONTEMPLE_START_TIME@@@std@@@std@@QBEIXZ ; std::list<ILLUSIONTEMPLE_START_TIME,std::allocator<ILLUSIONTEMPLE_START_TIME> >::size
  02f31	85 c0		 test	 eax, eax
  02f33	75 14		 jne	 SHORT $LN16@RemainTime

; 1075 : 		{
; 1076 : 			MsgBox("Error : Illusion Temple StartTime size is 0");

  02f35	68 00 00 00 00	 push	 OFFSET ??_C@_0CM@GMBNLABJ@Error?5?3?5Illusion?5Temple?5StartTim@
  02f3a	e8 00 00 00 00	 call	 ?MsgBox@@YAXPADZZ	; MsgBox
  02f3f	83 c4 04	 add	 esp, 4

; 1077 : 			return FALSE;

  02f42	32 c0		 xor	 al, al
  02f44	e9 32 02 00 00	 jmp	 $LN21@RemainTime
$LN16@RemainTime:

; 1078 : 		}
; 1079 : 
; 1080 : 		time(&ltime); //

  02f49	8d 45 cc	 lea	 eax, DWORD PTR _ltime$234284[ebp]
  02f4c	50		 push	 eax
  02f4d	e8 00 00 00 00	 call	 _time
  02f52	83 c4 04	 add	 esp, 4

; 1081 : 		today = localtime(&ltime); //

  02f55	8d 45 cc	 lea	 eax, DWORD PTR _ltime$234284[ebp]
  02f58	50		 push	 eax
  02f59	e8 00 00 00 00	 call	 _localtime
  02f5e	83 c4 04	 add	 esp, 4
  02f61	89 45 d4	 mov	 DWORD PTR _today$234283[ebp], eax

; 1082 : 
; 1083 : 		
; 1084 : 		CurrentTime = (today->tm_hour * 60) + today->tm_min;

  02f64	8b 45 d4	 mov	 eax, DWORD PTR _today$234283[ebp]
  02f67	8b 48 08	 mov	 ecx, DWORD PTR [eax+8]
  02f6a	6b c9 3c	 imul	 ecx, 60			; 0000003cH
  02f6d	8b 55 d4	 mov	 edx, DWORD PTR _today$234283[ebp]
  02f70	03 4a 04	 add	 ecx, DWORD PTR [edx+4]
  02f73	89 4d d8	 mov	 DWORD PTR _CurrentTime$234282[ebp], ecx

; 1085 : 		WebzenVar1 = *m_listIllusionTempleOpenTime.begin();

  02f76	8d 85 68 ff ff
	ff		 lea	 eax, DWORD PTR $T235744[ebp]
  02f7c	50		 push	 eax
  02f7d	b9 00 00 00 00	 mov	 ecx, OFFSET ?m_listIllusionTempleOpenTime@@3V?$list@UILLUSIONTEMPLE_START_TIME@@V?$allocator@UILLUSIONTEMPLE_START_TIME@@@std@@@std@@A ; m_listIllusionTempleOpenTime
  02f82	e8 00 00 00 00	 call	 ?begin@?$list@UILLUSIONTEMPLE_START_TIME@@V?$allocator@UILLUSIONTEMPLE_START_TIME@@@std@@@std@@QAE?AV?$_List_iterator@V?$_List_val@UILLUSIONTEMPLE_START_TIME@@V?$allocator@UILLUSIONTEMPLE_START_TIME@@@std@@@std@@@2@XZ ; std::list<ILLUSIONTEMPLE_START_TIME,std::allocator<ILLUSIONTEMPLE_START_TIME> >::begin
  02f87	8b c8		 mov	 ecx, eax
  02f89	e8 00 00 00 00	 call	 ??D?$_List_iterator@V?$_List_val@UILLUSIONTEMPLE_START_TIME@@V?$allocator@UILLUSIONTEMPLE_START_TIME@@@std@@@std@@@std@@QBEAAUILLUSIONTEMPLE_START_TIME@@XZ ; std::_List_iterator<std::_List_val<ILLUSIONTEMPLE_START_TIME,std::allocator<ILLUSIONTEMPLE_START_TIME> > >::operator*
  02f8e	8b 08		 mov	 ecx, DWORD PTR [eax]
  02f90	8b 50 04	 mov	 edx, DWORD PTR [eax+4]
  02f93	89 4d ec	 mov	 DWORD PTR _WebzenVar1$234278[ebp], ecx
  02f96	89 55 f0	 mov	 DWORD PTR _WebzenVar1$234278[ebp+4], edx

; 1086 : 
; 1087 : 		for( it = m_listIllusionTempleOpenTime.begin(); it != m_listIllusionTempleOpenTime.end(); ++it ) //for identical

  02f99	8d 85 6c ff ff
	ff		 lea	 eax, DWORD PTR $T235745[ebp]
  02f9f	50		 push	 eax
  02fa0	b9 00 00 00 00	 mov	 ecx, OFFSET ?m_listIllusionTempleOpenTime@@3V?$list@UILLUSIONTEMPLE_START_TIME@@V?$allocator@UILLUSIONTEMPLE_START_TIME@@@std@@@std@@A ; m_listIllusionTempleOpenTime
  02fa5	e8 00 00 00 00	 call	 ?begin@?$list@UILLUSIONTEMPLE_START_TIME@@V?$allocator@UILLUSIONTEMPLE_START_TIME@@@std@@@std@@QAE?AV?$_List_iterator@V?$_List_val@UILLUSIONTEMPLE_START_TIME@@V?$allocator@UILLUSIONTEMPLE_START_TIME@@@std@@@std@@@2@XZ ; std::list<ILLUSIONTEMPLE_START_TIME,std::allocator<ILLUSIONTEMPLE_START_TIME> >::begin
  02faa	8b 08		 mov	 ecx, DWORD PTR [eax]
  02fac	89 4d f4	 mov	 DWORD PTR _it$234277[ebp], ecx
  02faf	eb 08		 jmp	 SHORT $LN15@RemainTime
$LN14@RemainTime:
  02fb1	8d 4d f4	 lea	 ecx, DWORD PTR _it$234277[ebp]
  02fb4	e8 00 00 00 00	 call	 ??E?$_List_iterator@V?$_List_val@UILLUSIONTEMPLE_START_TIME@@V?$allocator@UILLUSIONTEMPLE_START_TIME@@@std@@@std@@@std@@QAEAAV01@XZ ; std::_List_iterator<std::_List_val<ILLUSIONTEMPLE_START_TIME,std::allocator<ILLUSIONTEMPLE_START_TIME> > >::operator++
$LN15@RemainTime:
  02fb9	8d 85 70 ff ff
	ff		 lea	 eax, DWORD PTR $T235746[ebp]
  02fbf	50		 push	 eax
  02fc0	b9 00 00 00 00	 mov	 ecx, OFFSET ?m_listIllusionTempleOpenTime@@3V?$list@UILLUSIONTEMPLE_START_TIME@@V?$allocator@UILLUSIONTEMPLE_START_TIME@@@std@@@std@@A ; m_listIllusionTempleOpenTime
  02fc5	e8 00 00 00 00	 call	 ?end@?$list@UILLUSIONTEMPLE_START_TIME@@V?$allocator@UILLUSIONTEMPLE_START_TIME@@@std@@@std@@QAE?AV?$_List_iterator@V?$_List_val@UILLUSIONTEMPLE_START_TIME@@V?$allocator@UILLUSIONTEMPLE_START_TIME@@@std@@@std@@@2@XZ ; std::list<ILLUSIONTEMPLE_START_TIME,std::allocator<ILLUSIONTEMPLE_START_TIME> >::end
  02fca	50		 push	 eax
  02fcb	8d 4d f4	 lea	 ecx, DWORD PTR _it$234277[ebp]
  02fce	e8 00 00 00 00	 call	 ??9?$_List_const_iterator@V?$_List_val@UILLUSIONTEMPLE_START_TIME@@V?$allocator@UILLUSIONTEMPLE_START_TIME@@@std@@@std@@@std@@QBE_NABV01@@Z ; std::_List_const_iterator<std::_List_val<ILLUSIONTEMPLE_START_TIME,std::allocator<ILLUSIONTEMPLE_START_TIME> > >::operator!=
  02fd3	0f b6 c8	 movzx	 ecx, al
  02fd6	85 c9		 test	 ecx, ecx
  02fd8	74 7e		 je	 SHORT $LN13@RemainTime

; 1088 : 		{
; 1089 : 			WebzenVar2 = *it; // loc5-6

  02fda	8d 4d f4	 lea	 ecx, DWORD PTR _it$234277[ebp]
  02fdd	e8 00 00 00 00	 call	 ??D?$_List_iterator@V?$_List_val@UILLUSIONTEMPLE_START_TIME@@V?$allocator@UILLUSIONTEMPLE_START_TIME@@@std@@@std@@@std@@QBEAAUILLUSIONTEMPLE_START_TIME@@XZ ; std::_List_iterator<std::_List_val<ILLUSIONTEMPLE_START_TIME,std::allocator<ILLUSIONTEMPLE_START_TIME> > >::operator*
  02fe2	8b 08		 mov	 ecx, DWORD PTR [eax]
  02fe4	8b 50 04	 mov	 edx, DWORD PTR [eax+4]
  02fe7	89 4d e4	 mov	 DWORD PTR _WebzenVar2$234279[ebp], ecx
  02fea	89 55 e8	 mov	 DWORD PTR _WebzenVar2$234279[ebp+4], edx

; 1090 : 			BaseTime = (WebzenVar1.m_iHour * 60) + WebzenVar1.m_iMinute;

  02fed	8b 45 ec	 mov	 eax, DWORD PTR _WebzenVar1$234278[ebp]
  02ff0	6b c0 3c	 imul	 eax, 60			; 0000003cH
  02ff3	03 45 f0	 add	 eax, DWORD PTR _WebzenVar1$234278[ebp+4]
  02ff6	89 45 e0	 mov	 DWORD PTR _BaseTime$234280[ebp], eax

; 1091 : 			CheckTime =	(WebzenVar2.m_iHour * 60) + WebzenVar2.m_iMinute;

  02ff9	8b 45 e4	 mov	 eax, DWORD PTR _WebzenVar2$234279[ebp]
  02ffc	6b c0 3c	 imul	 eax, 60			; 0000003cH
  02fff	03 45 e8	 add	 eax, DWORD PTR _WebzenVar2$234279[ebp+4]
  03002	89 45 dc	 mov	 DWORD PTR _CheckTime$234281[ebp], eax

; 1092 : 
; 1093 : 			if( BaseTime == CheckTime )

  03005	8b 45 e0	 mov	 eax, DWORD PTR _BaseTime$234280[ebp]
  03008	3b 45 dc	 cmp	 eax, DWORD PTR _CheckTime$234281[ebp]
  0300b	75 1f		 jne	 SHORT $LN12@RemainTime

; 1094 : 			{
; 1095 : 				if( CurrentTime < CheckTime )

  0300d	8b 45 d8	 mov	 eax, DWORD PTR _CurrentTime$234282[ebp]
  03010	3b 45 dc	 cmp	 eax, DWORD PTR _CheckTime$234281[ebp]
  03013	73 15		 jae	 SHORT $LN11@RemainTime

; 1096 : 				{
; 1097 : 					WebzenVar2 = *it;

  03015	8d 4d f4	 lea	 ecx, DWORD PTR _it$234277[ebp]
  03018	e8 00 00 00 00	 call	 ??D?$_List_iterator@V?$_List_val@UILLUSIONTEMPLE_START_TIME@@V?$allocator@UILLUSIONTEMPLE_START_TIME@@@std@@@std@@@std@@QBEAAUILLUSIONTEMPLE_START_TIME@@XZ ; std::_List_iterator<std::_List_val<ILLUSIONTEMPLE_START_TIME,std::allocator<ILLUSIONTEMPLE_START_TIME> > >::operator*
  0301d	8b 08		 mov	 ecx, DWORD PTR [eax]
  0301f	8b 50 04	 mov	 edx, DWORD PTR [eax+4]
  03022	89 4d e4	 mov	 DWORD PTR _WebzenVar2$234279[ebp], ecx
  03025	89 55 e8	 mov	 DWORD PTR _WebzenVar2$234279[ebp+4], edx

; 1098 : 					break;

  03028	eb 2e		 jmp	 SHORT $LN13@RemainTime
$LN11@RemainTime:

; 1099 : 				}
; 1100 : 				continue;

  0302a	eb 85		 jmp	 SHORT $LN14@RemainTime
$LN12@RemainTime:

; 1101 : 			}
; 1102 : 			
; 1103 : 			if( CurrentTime >= BaseTime && CurrentTime < CheckTime )

  0302c	8b 45 d8	 mov	 eax, DWORD PTR _CurrentTime$234282[ebp]
  0302f	3b 45 e0	 cmp	 eax, DWORD PTR _BaseTime$234280[ebp]
  03032	72 0c		 jb	 SHORT $LN10@RemainTime
  03034	8b 45 d8	 mov	 eax, DWORD PTR _CurrentTime$234282[ebp]
  03037	3b 45 dc	 cmp	 eax, DWORD PTR _CheckTime$234281[ebp]
  0303a	73 04		 jae	 SHORT $LN10@RemainTime

; 1104 : 			{
; 1105 : 				break;

  0303c	eb 1a		 jmp	 SHORT $LN13@RemainTime

; 1106 : 			}
; 1107 : 			else

  0303e	eb 13		 jmp	 SHORT $LN9@RemainTime
$LN10@RemainTime:

; 1108 : 			{
; 1109 : 				WebzenVar1 = *it;

  03040	8d 4d f4	 lea	 ecx, DWORD PTR _it$234277[ebp]
  03043	e8 00 00 00 00	 call	 ??D?$_List_iterator@V?$_List_val@UILLUSIONTEMPLE_START_TIME@@V?$allocator@UILLUSIONTEMPLE_START_TIME@@@std@@@std@@@std@@QBEAAUILLUSIONTEMPLE_START_TIME@@XZ ; std::_List_iterator<std::_List_val<ILLUSIONTEMPLE_START_TIME,std::allocator<ILLUSIONTEMPLE_START_TIME> > >::operator*
  03048	8b 08		 mov	 ecx, DWORD PTR [eax]
  0304a	8b 50 04	 mov	 edx, DWORD PTR [eax+4]
  0304d	89 4d ec	 mov	 DWORD PTR _WebzenVar1$234278[ebp], ecx
  03050	89 55 f0	 mov	 DWORD PTR _WebzenVar1$234278[ebp+4], edx
$LN9@RemainTime:

; 1110 : 			}
; 1111 : 		}

  03053	e9 59 ff ff ff	 jmp	 $LN14@RemainTime
$LN13@RemainTime:

; 1112 : 
; 1113 : 		for(loc12 = 2;loc12--;)

  03058	c7 45 c8 02 00
	00 00		 mov	 DWORD PTR _loc12$234285[ebp], 2
$LN8@RemainTime:
  0305f	8b 45 c8	 mov	 eax, DWORD PTR _loc12$234285[ebp]
  03062	8b 4d c8	 mov	 ecx, DWORD PTR _loc12$234285[ebp]
  03065	83 e9 01	 sub	 ecx, 1
  03068	89 4d c8	 mov	 DWORD PTR _loc12$234285[ebp], ecx
  0306b	85 c0		 test	 eax, eax
  0306d	0f 84 de 00 00
	00		 je	 $LN7@RemainTime

; 1114 : 		{
; 1115 : 			if(it == m_listIllusionTempleOpenTime.end())

  03073	8d 85 74 ff ff
	ff		 lea	 eax, DWORD PTR $T235747[ebp]
  03079	50		 push	 eax
  0307a	b9 00 00 00 00	 mov	 ecx, OFFSET ?m_listIllusionTempleOpenTime@@3V?$list@UILLUSIONTEMPLE_START_TIME@@V?$allocator@UILLUSIONTEMPLE_START_TIME@@@std@@@std@@A ; m_listIllusionTempleOpenTime
  0307f	e8 00 00 00 00	 call	 ?end@?$list@UILLUSIONTEMPLE_START_TIME@@V?$allocator@UILLUSIONTEMPLE_START_TIME@@@std@@@std@@QAE?AV?$_List_iterator@V?$_List_val@UILLUSIONTEMPLE_START_TIME@@V?$allocator@UILLUSIONTEMPLE_START_TIME@@@std@@@std@@@2@XZ ; std::list<ILLUSIONTEMPLE_START_TIME,std::allocator<ILLUSIONTEMPLE_START_TIME> >::end
  03084	50		 push	 eax
  03085	8d 4d f4	 lea	 ecx, DWORD PTR _it$234277[ebp]
  03088	e8 00 00 00 00	 call	 ??8?$_List_const_iterator@V?$_List_val@UILLUSIONTEMPLE_START_TIME@@V?$allocator@UILLUSIONTEMPLE_START_TIME@@@std@@@std@@@std@@QBE_NABV01@@Z ; std::_List_const_iterator<std::_List_val<ILLUSIONTEMPLE_START_TIME,std::allocator<ILLUSIONTEMPLE_START_TIME> > >::operator==
  0308d	0f b6 c8	 movzx	 ecx, al
  03090	85 c9		 test	 ecx, ecx
  03092	74 29		 je	 SHORT $LN6@RemainTime

; 1116 : 			{
; 1117 : 				it = m_listIllusionTempleOpenTime.begin();

  03094	8d 85 78 ff ff
	ff		 lea	 eax, DWORD PTR $T235748[ebp]
  0309a	50		 push	 eax
  0309b	b9 00 00 00 00	 mov	 ecx, OFFSET ?m_listIllusionTempleOpenTime@@3V?$list@UILLUSIONTEMPLE_START_TIME@@V?$allocator@UILLUSIONTEMPLE_START_TIME@@@std@@@std@@A ; m_listIllusionTempleOpenTime
  030a0	e8 00 00 00 00	 call	 ?begin@?$list@UILLUSIONTEMPLE_START_TIME@@V?$allocator@UILLUSIONTEMPLE_START_TIME@@@std@@@std@@QAE?AV?$_List_iterator@V?$_List_val@UILLUSIONTEMPLE_START_TIME@@V?$allocator@UILLUSIONTEMPLE_START_TIME@@@std@@@std@@@2@XZ ; std::list<ILLUSIONTEMPLE_START_TIME,std::allocator<ILLUSIONTEMPLE_START_TIME> >::begin
  030a5	8b 08		 mov	 ecx, DWORD PTR [eax]
  030a7	89 4d f4	 mov	 DWORD PTR _it$234277[ebp], ecx

; 1118 : 
; 1119 : 				WebzenVar2 = (*it);

  030aa	8d 4d f4	 lea	 ecx, DWORD PTR _it$234277[ebp]
  030ad	e8 00 00 00 00	 call	 ??D?$_List_iterator@V?$_List_val@UILLUSIONTEMPLE_START_TIME@@V?$allocator@UILLUSIONTEMPLE_START_TIME@@@std@@@std@@@std@@QBEAAUILLUSIONTEMPLE_START_TIME@@XZ ; std::_List_iterator<std::_List_val<ILLUSIONTEMPLE_START_TIME,std::allocator<ILLUSIONTEMPLE_START_TIME> > >::operator*
  030b2	8b 08		 mov	 ecx, DWORD PTR [eax]
  030b4	8b 50 04	 mov	 edx, DWORD PTR [eax+4]
  030b7	89 4d e4	 mov	 DWORD PTR _WebzenVar2$234279[ebp], ecx
  030ba	89 55 e8	 mov	 DWORD PTR _WebzenVar2$234279[ebp+4], edx
$LN6@RemainTime:

; 1120 : 			}
; 1121 : 
; 1122 : 			CheckTime = WebzenVar2.m_iHour*60+WebzenVar2.m_iMinute;

  030bd	8b 45 e4	 mov	 eax, DWORD PTR _WebzenVar2$234279[ebp]
  030c0	6b c0 3c	 imul	 eax, 60			; 0000003cH
  030c3	03 45 e8	 add	 eax, DWORD PTR _WebzenVar2$234279[ebp+4]
  030c6	89 45 dc	 mov	 DWORD PTR _CheckTime$234281[ebp], eax

; 1123 : 
; 1124 : 			if(today->tm_hour <= WebzenVar2.m_iHour)

  030c9	8b 45 d4	 mov	 eax, DWORD PTR _today$234283[ebp]
  030cc	8b 48 08	 mov	 ecx, DWORD PTR [eax+8]
  030cf	3b 4d e4	 cmp	 ecx, DWORD PTR _WebzenVar2$234279[ebp]
  030d2	7f 0b		 jg	 SHORT $LN5@RemainTime

; 1125 : 			{
; 1126 : 				loc2 = CheckTime - CurrentTime;

  030d4	8b 45 dc	 mov	 eax, DWORD PTR _CheckTime$234281[ebp]
  030d7	2b 45 d8	 sub	 eax, DWORD PTR _CurrentTime$234282[ebp]
  030da	88 45 fb	 mov	 BYTE PTR _loc2$[ebp], al

; 1127 : 			}
; 1128 : 			else

  030dd	eb 0e		 jmp	 SHORT $LN4@RemainTime
$LN5@RemainTime:

; 1129 : 			{
; 1130 : 				loc2 = 1440-CurrentTime+CheckTime;

  030df	b8 a0 05 00 00	 mov	 eax, 1440		; 000005a0H
  030e4	2b 45 d8	 sub	 eax, DWORD PTR _CurrentTime$234282[ebp]
  030e7	03 45 dc	 add	 eax, DWORD PTR _CheckTime$234281[ebp]
  030ea	88 45 fb	 mov	 BYTE PTR _loc2$[ebp], al
$LN4@RemainTime:

; 1131 : 			}
; 1132 : 
; 1133 : 			if(loc2 <= m_i_IT_OpenTime)

  030ed	0f b6 45 fb	 movzx	 eax, BYTE PTR _loc2$[ebp]
  030f1	3b 05 00 00 00
	00		 cmp	 eax, DWORD PTR ?m_i_IT_OpenTime@@3HA ; m_i_IT_OpenTime
  030f7	7f 44		 jg	 SHORT $LN3@RemainTime

; 1134 : 			{
; 1135 : 				it++;

  030f9	6a 00		 push	 0
  030fb	8d 85 7c ff ff
	ff		 lea	 eax, DWORD PTR $T235749[ebp]
  03101	50		 push	 eax
  03102	8d 4d f4	 lea	 ecx, DWORD PTR _it$234277[ebp]
  03105	e8 00 00 00 00	 call	 ??E?$_List_iterator@V?$_List_val@UILLUSIONTEMPLE_START_TIME@@V?$allocator@UILLUSIONTEMPLE_START_TIME@@@std@@@std@@@std@@QAE?AV01@H@Z ; std::_List_iterator<std::_List_val<ILLUSIONTEMPLE_START_TIME,std::allocator<ILLUSIONTEMPLE_START_TIME> > >::operator++

; 1136 : 
; 1137 : 				if(it != m_listIllusionTempleOpenTime.end())

  0310a	8d 45 80	 lea	 eax, DWORD PTR $T235750[ebp]
  0310d	50		 push	 eax
  0310e	b9 00 00 00 00	 mov	 ecx, OFFSET ?m_listIllusionTempleOpenTime@@3V?$list@UILLUSIONTEMPLE_START_TIME@@V?$allocator@UILLUSIONTEMPLE_START_TIME@@@std@@@std@@A ; m_listIllusionTempleOpenTime
  03113	e8 00 00 00 00	 call	 ?end@?$list@UILLUSIONTEMPLE_START_TIME@@V?$allocator@UILLUSIONTEMPLE_START_TIME@@@std@@@std@@QAE?AV?$_List_iterator@V?$_List_val@UILLUSIONTEMPLE_START_TIME@@V?$allocator@UILLUSIONTEMPLE_START_TIME@@@std@@@std@@@2@XZ ; std::list<ILLUSIONTEMPLE_START_TIME,std::allocator<ILLUSIONTEMPLE_START_TIME> >::end
  03118	50		 push	 eax
  03119	8d 4d f4	 lea	 ecx, DWORD PTR _it$234277[ebp]
  0311c	e8 00 00 00 00	 call	 ??9?$_List_const_iterator@V?$_List_val@UILLUSIONTEMPLE_START_TIME@@V?$allocator@UILLUSIONTEMPLE_START_TIME@@@std@@@std@@@std@@QBE_NABV01@@Z ; std::_List_const_iterator<std::_List_val<ILLUSIONTEMPLE_START_TIME,std::allocator<ILLUSIONTEMPLE_START_TIME> > >::operator!=
  03121	0f b6 c8	 movzx	 ecx, al
  03124	85 c9		 test	 ecx, ecx
  03126	74 13		 je	 SHORT $LN2@RemainTime

; 1138 : 				{
; 1139 : 					WebzenVar2 = (*it);

  03128	8d 4d f4	 lea	 ecx, DWORD PTR _it$234277[ebp]
  0312b	e8 00 00 00 00	 call	 ??D?$_List_iterator@V?$_List_val@UILLUSIONTEMPLE_START_TIME@@V?$allocator@UILLUSIONTEMPLE_START_TIME@@@std@@@std@@@std@@QBEAAUILLUSIONTEMPLE_START_TIME@@XZ ; std::_List_iterator<std::_List_val<ILLUSIONTEMPLE_START_TIME,std::allocator<ILLUSIONTEMPLE_START_TIME> > >::operator*
  03130	8b 08		 mov	 ecx, DWORD PTR [eax]
  03132	8b 50 04	 mov	 edx, DWORD PTR [eax+4]
  03135	89 4d e4	 mov	 DWORD PTR _WebzenVar2$234279[ebp], ecx
  03138	89 55 e8	 mov	 DWORD PTR _WebzenVar2$234279[ebp+4], edx
$LN2@RemainTime:

; 1140 : 				}
; 1141 : 			}
; 1142 : 			else

  0313b	eb 0f		 jmp	 SHORT $LN1@RemainTime
$LN3@RemainTime:

; 1143 : 			{
; 1144 : 				loc2 -= m_i_IT_OpenTime;

  0313d	0f b6 45 fb	 movzx	 eax, BYTE PTR _loc2$[ebp]
  03141	2b 05 00 00 00
	00		 sub	 eax, DWORD PTR ?m_i_IT_OpenTime@@3HA ; m_i_IT_OpenTime
  03147	88 45 fb	 mov	 BYTE PTR _loc2$[ebp], al

; 1145 : 				break;

  0314a	eb 05		 jmp	 SHORT $LN7@RemainTime
$LN1@RemainTime:

; 1146 : 			}
; 1147 : 		}

  0314c	e9 0e ff ff ff	 jmp	 $LN8@RemainTime
$LN7@RemainTime:

; 1148 : 
; 1149 : 		loc13 = GetTickCount();

  03151	ff 15 00 00 00
	00		 call	 DWORD PTR __imp__GetTickCount@0
  03157	89 45 c4	 mov	 DWORD PTR _loc13$234286[ebp], eax

; 1150 : 		this->m_iOpenTickCount = loc13 + (60000 - (today->tm_sec * 1000));

  0315a	8b 45 d4	 mov	 eax, DWORD PTR _today$234283[ebp]
  0315d	8b 08		 mov	 ecx, DWORD PTR [eax]
  0315f	69 c9 e8 03 00
	00		 imul	 ecx, 1000		; 000003e8H
  03165	ba 60 ea 00 00	 mov	 edx, 60000		; 0000ea60H
  0316a	2b d1		 sub	 edx, ecx
  0316c	03 55 c4	 add	 edx, DWORD PTR _loc13$234286[ebp]
  0316f	8b 45 fc	 mov	 eax, DWORD PTR _this$[ebp]
  03172	89 90 a4 03 00
	00		 mov	 DWORD PTR [eax+932], edx
$LN19@RemainTime:

; 1151 : 	}
; 1152 : 
; 1153 : 	return loc2;

  03178	8a 45 fb	 mov	 al, BYTE PTR _loc2$[ebp]
$LN21@RemainTime:

; 1154 : }

  0317b	5f		 pop	 edi
  0317c	5e		 pop	 esi
  0317d	5b		 pop	 ebx
  0317e	8b e5		 mov	 esp, ebp
  03180	5d		 pop	 ebp
  03181	c3		 ret	 0
?RemainTime@CIllusionTempleProcess@@QAEEXZ ENDP		; CIllusionTempleProcess::RemainTime
_TEXT	ENDS
PUBLIC	?SetBattleMonstersReady@CIllusionTempleProcess@@QAEXXZ ; CIllusionTempleProcess::SetBattleMonstersReady
PUBLIC	??_C@_0DN@KNCFCJAC@?$FLIllusion?5Temple?$FN?5?$CI?$CFd?$CJ?5?$FL?$CFs?$FN?$FL?$CFs?$FN?5@ ; `string'
PUBLIC	__real@00000000
PUBLIC	?NpcStatueProc@CIllusionTempleProcess@@QAEXPAUOBJECTSTRUCT@@0@Z ; CIllusionTempleProcess::NpcStatueProc
EXTRN	?ItemSerialCreateSend@@YAXHEEEHEEEEEHEE@Z:PROC	; ItemSerialCreateSend
EXTRN	?ItemGetNumberMake@@YAHHH@Z:PROC		; ItemGetNumberMake
EXTRN	?gObjLifeCheck@@YAXPAUOBJECTSTRUCT@@0HHHHGH@Z:PROC ; gObjLifeCheck
EXTRN	_abs:PROC
;	COMDAT ??_C@_0DN@KNCFCJAC@?$FLIllusion?5Temple?$FN?5?$CI?$CFd?$CJ?5?$FL?$CFs?$FN?$FL?$CFs?$FN?5@
CONST	SEGMENT
??_C@_0DN@KNCFCJAC@?$FLIllusion?5Temple?$FN?5?$CI?$CFd?$CJ?5?$FL?$CFs?$FN?$FL?$CFs?$FN?5@ DB '['
	DB	'Illusion Temple] (%d) [%s][%s] Click To Status (X:%d, Y:%d)', 00H ; `string'
CONST	ENDS
;	COMDAT __real@00000000
CONST	SEGMENT
__real@00000000 DD 000000000r			; 0
; Function compile flags: /Odtp /ZI
CONST	ENDS
_TEXT	SEGMENT
tv186 = -116						; size = 4
tv184 = -112						; size = 4
tv181 = -106						; size = 2
_loc10$ = -40						; size = 4
_loc9$ = -36						; size = 4
_loc8$ = -32						; size = 4
_loc7$ = -28						; size = 4
_loc6$ = -24						; size = 4
_loc5$ = -20						; size = 4
_loc4$ = -16						; size = 4
_loc3$ = -12						; size = 4
_loc2$ = -8						; size = 4
_this$ = -4						; size = 4
_lpObj$ = 8						; size = 4
_lpTargetObj$ = 12					; size = 4
?NpcStatueProc@CIllusionTempleProcess@@QAEXPAUOBJECTSTRUCT@@0@Z PROC ; CIllusionTempleProcess::NpcStatueProc
; _this$ = ecx

; 1157 : {

  03190	55		 push	 ebp
  03191	8b ec		 mov	 ebp, esp
  03193	83 ec 74	 sub	 esp, 116		; 00000074H
  03196	53		 push	 ebx
  03197	56		 push	 esi
  03198	57		 push	 edi
  03199	89 4d fc	 mov	 DWORD PTR _this$[ebp], ecx

; 1158 : 	if(lpObj->m_State == 0 || lpObj->m_PosNum == -1)

  0319c	8b 45 08	 mov	 eax, DWORD PTR _lpObj$[ebp]
  0319f	83 b8 20 02 00
	00 00		 cmp	 DWORD PTR [eax+544], 0
  031a6	74 0f		 je	 SHORT $LN3@NpcStatueP
  031a8	8b 45 08	 mov	 eax, DWORD PTR _lpObj$[ebp]
  031ab	0f bf 88 b0 03
	00 00		 movsx	 ecx, WORD PTR [eax+944]
  031b2	83 f9 ff	 cmp	 ecx, -1
  031b5	75 05		 jne	 SHORT $LN4@NpcStatueP
$LN3@NpcStatueP:

; 1159 : 	{
; 1160 : 		return;

  031b7	e9 a5 01 00 00	 jmp	 $LN5@NpcStatueP
$LN4@NpcStatueP:

; 1161 : 	}
; 1162 : 
; 1163 : 	if( (abs(lpTargetObj->Y - lpObj->Y)) > 3 || (abs(lpTargetObj->X - lpObj->X)) > 3)

  031bc	8b 45 0c	 mov	 eax, DWORD PTR _lpTargetObj$[ebp]
  031bf	0f bf 88 46 01
	00 00		 movsx	 ecx, WORD PTR [eax+326]
  031c6	8b 55 08	 mov	 edx, DWORD PTR _lpObj$[ebp]
  031c9	0f bf 82 46 01
	00 00		 movsx	 eax, WORD PTR [edx+326]
  031d0	2b c8		 sub	 ecx, eax
  031d2	51		 push	 ecx
  031d3	e8 00 00 00 00	 call	 _abs
  031d8	83 c4 04	 add	 esp, 4
  031db	83 f8 03	 cmp	 eax, 3
  031de	7f 24		 jg	 SHORT $LN1@NpcStatueP
  031e0	8b 45 0c	 mov	 eax, DWORD PTR _lpTargetObj$[ebp]
  031e3	0f bf 88 44 01
	00 00		 movsx	 ecx, WORD PTR [eax+324]
  031ea	8b 55 08	 mov	 edx, DWORD PTR _lpObj$[ebp]
  031ed	0f bf 82 44 01
	00 00		 movsx	 eax, WORD PTR [edx+324]
  031f4	2b c8		 sub	 ecx, eax
  031f6	51		 push	 ecx
  031f7	e8 00 00 00 00	 call	 _abs
  031fc	83 c4 04	 add	 esp, 4
  031ff	83 f8 03	 cmp	 eax, 3
  03202	7e 05		 jle	 SHORT $LN2@NpcStatueP
$LN1@NpcStatueP:

; 1164 : 	{
; 1165 : 		return;

  03204	e9 58 01 00 00	 jmp	 $LN5@NpcStatueP
$LN2@NpcStatueP:

; 1166 : 	}
; 1167 : 
; 1168 : 	lpObj->m_PosNum = -1;

  03209	83 c8 ff	 or	 eax, -1
  0320c	8b 4d 08	 mov	 ecx, DWORD PTR _lpObj$[ebp]
  0320f	66 89 81 b0 03
	00 00		 mov	 WORD PTR [ecx+944], ax

; 1169 : 	lpObj->Life = 0;

  03216	8b 45 08	 mov	 eax, DWORD PTR _lpObj$[ebp]
  03219	d9 ee		 fldz
  0321b	d9 98 fc 00 00
	00		 fstp	 DWORD PTR [eax+252]

; 1170 : 
; 1171 : 	gObjLifeCheck(lpObj, lpTargetObj, 0, 1, 0, 0, 0, 0);

  03221	6a 00		 push	 0
  03223	6a 00		 push	 0
  03225	6a 00		 push	 0
  03227	6a 00		 push	 0
  03229	6a 01		 push	 1
  0322b	6a 00		 push	 0
  0322d	8b 45 0c	 mov	 eax, DWORD PTR _lpTargetObj$[ebp]
  03230	50		 push	 eax
  03231	8b 4d 08	 mov	 ecx, DWORD PTR _lpObj$[ebp]
  03234	51		 push	 ecx
  03235	e8 00 00 00 00	 call	 ?gObjLifeCheck@@YAXPAUOBJECTSTRUCT@@0HHHHGH@Z ; gObjLifeCheck
  0323a	83 c4 20	 add	 esp, 32			; 00000020H

; 1172 : 
; 1173 : 	float loc2 = 0;

  0323d	d9 ee		 fldz
  0323f	d9 5d f8	 fstp	 DWORD PTR _loc2$[ebp]

; 1174 : 	int loc3 = 0;

  03242	c7 45 f4 00 00
	00 00		 mov	 DWORD PTR _loc3$[ebp], 0

; 1175 : 	int loc4 = 0;

  03249	c7 45 f0 00 00
	00 00		 mov	 DWORD PTR _loc4$[ebp], 0

; 1176 : 	int loc5 = 0;

  03250	c7 45 ec 00 00
	00 00		 mov	 DWORD PTR _loc5$[ebp], 0

; 1177 : 	int loc6 = 0;

  03257	c7 45 e8 00 00
	00 00		 mov	 DWORD PTR _loc6$[ebp], 0

; 1178 : 	int loc7 = 0;

  0325e	c7 45 e4 00 00
	00 00		 mov	 DWORD PTR _loc7$[ebp], 0

; 1179 : 	int loc8 = 0;

  03265	c7 45 e0 00 00
	00 00		 mov	 DWORD PTR _loc8$[ebp], 0

; 1180 : 	int loc9 = 0;

  0326c	c7 45 dc 00 00
	00 00		 mov	 DWORD PTR _loc9$[ebp], 0

; 1181 : 	int loc10 = 0;

  03273	c7 45 d8 00 00
	00 00		 mov	 DWORD PTR _loc10$[ebp], 0

; 1182 : 
; 1183 : 	loc3 = ItemGetNumberMake(14, 64);	//Ball

  0327a	6a 40		 push	 64			; 00000040H
  0327c	6a 0e		 push	 14			; 0000000eH
  0327e	e8 00 00 00 00	 call	 ?ItemGetNumberMake@@YAHHH@Z ; ItemGetNumberMake
  03283	83 c4 08	 add	 esp, 8
  03286	89 45 f4	 mov	 DWORD PTR _loc3$[ebp], eax

; 1184 : 	loc5 = 0;

  03289	c7 45 ec 00 00
	00 00		 mov	 DWORD PTR _loc5$[ebp], 0

; 1185 : 	loc6 = 0;

  03290	c7 45 e8 00 00
	00 00		 mov	 DWORD PTR _loc6$[ebp], 0

; 1186 : 	loc7 = 0;

  03297	c7 45 e4 00 00
	00 00		 mov	 DWORD PTR _loc7$[ebp], 0

; 1187 : 	loc4 = 0;

  0329e	c7 45 f0 00 00
	00 00		 mov	 DWORD PTR _loc4$[ebp], 0

; 1188 : 
; 1189 : 	ItemSerialCreateSend(lpTargetObj->m_Index, (BYTE)lpTargetObj->MapNumber, (BYTE)lpObj->X, (BYTE)lpObj->Y, loc3, (BYTE)loc4, (BYTE)loc2, (BYTE)loc5, (BYTE)loc6, (BYTE)loc7, lpTargetObj->m_Index, (BYTE)loc10, 0);

  032a5	6a 00		 push	 0
  032a7	0f b6 45 d8	 movzx	 eax, BYTE PTR _loc10$[ebp]
  032ab	50		 push	 eax
  032ac	8b 4d 0c	 mov	 ecx, DWORD PTR _lpTargetObj$[ebp]
  032af	8b 11		 mov	 edx, DWORD PTR [ecx]
  032b1	52		 push	 edx
  032b2	0f b6 45 e4	 movzx	 eax, BYTE PTR _loc7$[ebp]
  032b6	50		 push	 eax
  032b7	0f b6 4d e8	 movzx	 ecx, BYTE PTR _loc6$[ebp]
  032bb	51		 push	 ecx
  032bc	0f b6 55 ec	 movzx	 edx, BYTE PTR _loc5$[ebp]
  032c0	52		 push	 edx
  032c1	d9 45 f8	 fld	 DWORD PTR _loc2$[ebp]
  032c4	d9 7d 96	 fnstcw	 WORD PTR tv181[ebp]
  032c7	0f b7 45 96	 movzx	 eax, WORD PTR tv181[ebp]
  032cb	0d 00 0c 00 00	 or	 eax, 3072		; 00000c00H
  032d0	89 45 90	 mov	 DWORD PTR tv184[ebp], eax
  032d3	d9 6d 90	 fldcw	 WORD PTR tv184[ebp]
  032d6	db 5d 8c	 fistp	 DWORD PTR tv186[ebp]
  032d9	d9 6d 96	 fldcw	 WORD PTR tv181[ebp]
  032dc	0f b6 45 8c	 movzx	 eax, BYTE PTR tv186[ebp]
  032e0	50		 push	 eax
  032e1	0f b6 4d f0	 movzx	 ecx, BYTE PTR _loc4$[ebp]
  032e5	51		 push	 ecx
  032e6	8b 55 f4	 mov	 edx, DWORD PTR _loc3$[ebp]
  032e9	52		 push	 edx
  032ea	8b 45 08	 mov	 eax, DWORD PTR _lpObj$[ebp]
  032ed	0f b6 88 46 01
	00 00		 movzx	 ecx, BYTE PTR [eax+326]
  032f4	51		 push	 ecx
  032f5	8b 55 08	 mov	 edx, DWORD PTR _lpObj$[ebp]
  032f8	0f b6 82 44 01
	00 00		 movzx	 eax, BYTE PTR [edx+324]
  032ff	50		 push	 eax
  03300	8b 4d 0c	 mov	 ecx, DWORD PTR _lpTargetObj$[ebp]
  03303	0f b6 91 49 01
	00 00		 movzx	 edx, BYTE PTR [ecx+329]
  0330a	52		 push	 edx
  0330b	8b 45 0c	 mov	 eax, DWORD PTR _lpTargetObj$[ebp]
  0330e	8b 08		 mov	 ecx, DWORD PTR [eax]
  03310	51		 push	 ecx
  03311	e8 00 00 00 00	 call	 ?ItemSerialCreateSend@@YAXHEEEHEEEEEHEE@Z ; ItemSerialCreateSend
  03316	83 c4 34	 add	 esp, 52			; 00000034H

; 1190 : 
; 1191 : 	LogAddTD("[Illusion Temple] (%d) [%s][%s] Click To Status (X:%d, Y:%d)", this->m_btFloorIndex+1, lpTargetObj->AccountID, lpTargetObj->Name, lpObj->X, lpObj->Y);

  03319	8b 45 08	 mov	 eax, DWORD PTR _lpObj$[ebp]
  0331c	0f bf 88 46 01
	00 00		 movsx	 ecx, WORD PTR [eax+326]
  03323	51		 push	 ecx
  03324	8b 55 08	 mov	 edx, DWORD PTR _lpObj$[ebp]
  03327	0f bf 82 44 01
	00 00		 movsx	 eax, WORD PTR [edx+324]
  0332e	50		 push	 eax
  0332f	8b 4d 0c	 mov	 ecx, DWORD PTR _lpTargetObj$[ebp]
  03332	83 c1 77	 add	 ecx, 119		; 00000077H
  03335	51		 push	 ecx
  03336	8b 55 0c	 mov	 edx, DWORD PTR _lpTargetObj$[ebp]
  03339	83 c2 6c	 add	 edx, 108		; 0000006cH
  0333c	52		 push	 edx
  0333d	8b 45 fc	 mov	 eax, DWORD PTR _this$[ebp]
  03340	0f b6 88 2c 02
	00 00		 movzx	 ecx, BYTE PTR [eax+556]
  03347	83 c1 01	 add	 ecx, 1
  0334a	51		 push	 ecx
  0334b	68 00 00 00 00	 push	 OFFSET ??_C@_0DN@KNCFCJAC@?$FLIllusion?5Temple?$FN?5?$CI?$CFd?$CJ?5?$FL?$CFs?$FN?$FL?$CFs?$FN?5@
  03350	ff 15 00 00 00
	00		 call	 DWORD PTR ?LogAddTD@@3P6AXPADZZA ; LogAddTD
  03356	83 c4 18	 add	 esp, 24			; 00000018H

; 1192 : 
; 1193 : 	this->SetBattleMonstersReady();

  03359	8b 4d fc	 mov	 ecx, DWORD PTR _this$[ebp]
  0335c	e8 00 00 00 00	 call	 ?SetBattleMonstersReady@CIllusionTempleProcess@@QAEXXZ ; CIllusionTempleProcess::SetBattleMonstersReady
$LN5@NpcStatueP:

; 1194 : }

  03361	5f		 pop	 edi
  03362	5e		 pop	 esi
  03363	5b		 pop	 ebx
  03364	8b e5		 mov	 esp, ebp
  03366	5d		 pop	 ebp
  03367	c2 08 00	 ret	 8
?NpcStatueProc@CIllusionTempleProcess@@QAEXPAUOBJECTSTRUCT@@0@Z ENDP ; CIllusionTempleProcess::NpcStatueProc
_TEXT	ENDS
PUBLIC	??_C@_0EM@NAJEPMDL@?$FLIllusion?5Temple?$FN?5?$CI?$CFd?$CJ?5Increase?5@ ; `string'
PUBLIC	?IncreaseTeamPlayerReward@CIllusionTempleProcess@@QAEXH@Z ; CIllusionTempleProcess::IncreaseTeamPlayerReward
PUBLIC	?DeleteRelicsItem@CIllusionTempleProcess@@QAEXPAUOBJECTSTRUCT@@@Z ; CIllusionTempleProcess::DeleteRelicsItem
PUBLIC	?NpcAlliedPedestalProc@CIllusionTempleProcess@@QAEXPAUOBJECTSTRUCT@@0@Z ; CIllusionTempleProcess::NpcAlliedPedestalProc
;	COMDAT ??_C@_0EM@NAJEPMDL@?$FLIllusion?5Temple?$FN?5?$CI?$CFd?$CJ?5Increase?5@
CONST	SEGMENT
??_C@_0EM@NAJEPMDL@?$FLIllusion?5Temple?$FN?5?$CI?$CFd?$CJ?5Increase?5@ DB '['
	DB	'Illusion Temple] (%d) Increase AlliedTeam Relics Point: (%s)('
	DB	'%s)(Score:%d)', 00H				; `string'
; Function compile flags: /Odtp /ZI
CONST	ENDS
_TEXT	SEGMENT
_this$ = -4						; size = 4
_lpObj$ = 8						; size = 4
_lpTargetObj$ = 12					; size = 4
?NpcAlliedPedestalProc@CIllusionTempleProcess@@QAEXPAUOBJECTSTRUCT@@0@Z PROC ; CIllusionTempleProcess::NpcAlliedPedestalProc
; _this$ = ecx

; 1197 : {

  03370	55		 push	 ebp
  03371	8b ec		 mov	 ebp, esp
  03373	83 ec 44	 sub	 esp, 68			; 00000044H
  03376	53		 push	 ebx
  03377	56		 push	 esi
  03378	57		 push	 edi
  03379	89 4d fc	 mov	 DWORD PTR _this$[ebp], ecx

; 1198 : 	if(this->m_btAllowedRegPedestal == (BYTE)-1 || this->m_btAllowedRegPedestal != 0 || lpTargetObj->m_Index != this->m_iBallPlayerIndex)

  0337c	8b 45 fc	 mov	 eax, DWORD PTR _this$[ebp]
  0337f	0f b6 88 bc 03
	00 00		 movzx	 ecx, BYTE PTR [eax+956]
  03386	81 f9 ff 00 00
	00		 cmp	 ecx, 255		; 000000ffH
  0338c	74 1e		 je	 SHORT $LN2@NpcAlliedP
  0338e	8b 45 fc	 mov	 eax, DWORD PTR _this$[ebp]
  03391	0f b6 88 bc 03
	00 00		 movzx	 ecx, BYTE PTR [eax+956]
  03398	85 c9		 test	 ecx, ecx
  0339a	75 10		 jne	 SHORT $LN2@NpcAlliedP
  0339c	8b 45 0c	 mov	 eax, DWORD PTR _lpTargetObj$[ebp]
  0339f	8b 4d fc	 mov	 ecx, DWORD PTR _this$[ebp]
  033a2	8b 10		 mov	 edx, DWORD PTR [eax]
  033a4	3b 91 b8 03 00
	00		 cmp	 edx, DWORD PTR [ecx+952]
  033aa	74 05		 je	 SHORT $LN3@NpcAlliedP
$LN2@NpcAlliedP:

; 1199 : 	{
; 1200 : 		return;

  033ac	e9 bb 00 00 00	 jmp	 $LN4@NpcAlliedP
$LN3@NpcAlliedP:

; 1201 : 	}
; 1202 : 
; 1203 : 	if(lpTargetObj->pInventory[FindItemBallPosition(lpTargetObj->m_Index)].m_Type == ITEMGET(14,64))

  033b1	8b 45 0c	 mov	 eax, DWORD PTR _lpTargetObj$[ebp]
  033b4	8b 08		 mov	 ecx, DWORD PTR [eax]
  033b6	51		 push	 ecx
  033b7	8b 4d fc	 mov	 ecx, DWORD PTR _this$[ebp]
  033ba	e8 00 00 00 00	 call	 ?FindItemBallPosition@CIllusionTempleProcess@@QAEHH@Z ; CIllusionTempleProcess::FindItemBallPosition
  033bf	69 c0 d4 00 00
	00		 imul	 eax, 212		; 000000d4H
  033c5	8b 55 0c	 mov	 edx, DWORD PTR _lpTargetObj$[ebp]
  033c8	8b 8a 24 0e 00
	00		 mov	 ecx, DWORD PTR [edx+3620]
  033ce	0f bf 54 01 06	 movsx	 edx, WORD PTR [ecx+eax+6]
  033d3	81 fa 40 1c 00
	00		 cmp	 edx, 7232		; 00001c40H
  033d9	0f 85 85 00 00
	00		 jne	 $LN1@NpcAlliedP

; 1204 : 	{
; 1205 : 		this->m_btYellowTeamScore++;

  033df	8b 45 fc	 mov	 eax, DWORD PTR _this$[ebp]
  033e2	8a 88 d0 03 00
	00		 mov	 cl, BYTE PTR [eax+976]
  033e8	80 c1 01	 add	 cl, 1
  033eb	8b 55 fc	 mov	 edx, DWORD PTR _this$[ebp]
  033ee	88 8a d0 03 00
	00		 mov	 BYTE PTR [edx+976], cl

; 1206 : 		this->DeleteRelicsItem(lpTargetObj);

  033f4	8b 45 0c	 mov	 eax, DWORD PTR _lpTargetObj$[ebp]
  033f7	50		 push	 eax
  033f8	8b 4d fc	 mov	 ecx, DWORD PTR _this$[ebp]
  033fb	e8 00 00 00 00	 call	 ?DeleteRelicsItem@CIllusionTempleProcess@@QAEXPAUOBJECTSTRUCT@@@Z ; CIllusionTempleProcess::DeleteRelicsItem

; 1207 : 		this->m_btAllowedRegPedestal = (BYTE) -1;

  03400	8b 45 fc	 mov	 eax, DWORD PTR _this$[ebp]
  03403	c6 80 bc 03 00
	00 ff		 mov	 BYTE PTR [eax+956], 255	; 000000ffH

; 1208 : 		this->m_iBallPlayerIndex = -1;

  0340a	8b 45 fc	 mov	 eax, DWORD PTR _this$[ebp]
  0340d	c7 80 b8 03 00
	00 ff ff ff ff	 mov	 DWORD PTR [eax+952], -1

; 1209 : 		this->m_btBallInventoryPosition = (BYTE) -1;

  03417	8b 45 fc	 mov	 eax, DWORD PTR _this$[ebp]
  0341a	c6 80 bd 03 00
	00 ff		 mov	 BYTE PTR [eax+957], 255	; 000000ffH

; 1210 : 		this->IncreaseTeamPlayerReward(lpTargetObj->m_Index);

  03421	8b 45 0c	 mov	 eax, DWORD PTR _lpTargetObj$[ebp]
  03424	8b 08		 mov	 ecx, DWORD PTR [eax]
  03426	51		 push	 ecx
  03427	8b 4d fc	 mov	 ecx, DWORD PTR _this$[ebp]
  0342a	e8 00 00 00 00	 call	 ?IncreaseTeamPlayerReward@CIllusionTempleProcess@@QAEXH@Z ; CIllusionTempleProcess::IncreaseTeamPlayerReward

; 1211 : 
; 1212 : 		LogAddTD("[Illusion Temple] (%d) Increase AlliedTeam Relics Point: (%s)(%s)(Score:%d)", this->m_btFloorIndex+1, lpTargetObj->AccountID, lpTargetObj->Name, this->m_btYellowTeamScore);

  0342f	8b 45 fc	 mov	 eax, DWORD PTR _this$[ebp]
  03432	0f b6 88 d0 03
	00 00		 movzx	 ecx, BYTE PTR [eax+976]
  03439	51		 push	 ecx
  0343a	8b 55 0c	 mov	 edx, DWORD PTR _lpTargetObj$[ebp]
  0343d	83 c2 77	 add	 edx, 119		; 00000077H
  03440	52		 push	 edx
  03441	8b 45 0c	 mov	 eax, DWORD PTR _lpTargetObj$[ebp]
  03444	83 c0 6c	 add	 eax, 108		; 0000006cH
  03447	50		 push	 eax
  03448	8b 4d fc	 mov	 ecx, DWORD PTR _this$[ebp]
  0344b	0f b6 91 2c 02
	00 00		 movzx	 edx, BYTE PTR [ecx+556]
  03452	83 c2 01	 add	 edx, 1
  03455	52		 push	 edx
  03456	68 00 00 00 00	 push	 OFFSET ??_C@_0EM@NAJEPMDL@?$FLIllusion?5Temple?$FN?5?$CI?$CFd?$CJ?5Increase?5@
  0345b	ff 15 00 00 00
	00		 call	 DWORD PTR ?LogAddTD@@3P6AXPADZZA ; LogAddTD
  03461	83 c4 14	 add	 esp, 20			; 00000014H
$LN1@NpcAlliedP:

; 1213 : 	}
; 1214 : 	this->SetNpcStatueRegen();

  03464	8b 4d fc	 mov	 ecx, DWORD PTR _this$[ebp]
  03467	e8 00 00 00 00	 call	 ?SetNpcStatueRegen@CIllusionTempleProcess@@QAEXXZ ; CIllusionTempleProcess::SetNpcStatueRegen
$LN4@NpcAlliedP:

; 1215 : }

  0346c	5f		 pop	 edi
  0346d	5e		 pop	 esi
  0346e	5b		 pop	 ebx
  0346f	8b e5		 mov	 esp, ebp
  03471	5d		 pop	 ebp
  03472	c2 08 00	 ret	 8
?NpcAlliedPedestalProc@CIllusionTempleProcess@@QAEXPAUOBJECTSTRUCT@@0@Z ENDP ; CIllusionTempleProcess::NpcAlliedPedestalProc
_TEXT	ENDS
PUBLIC	??_C@_0EO@HGHKGJCL@?$FLIllusion?5Temple?$FN?5?$CI?$CFd?$CJ?5Increase?5@ ; `string'
PUBLIC	?NpcRelicsPedestalProc@CIllusionTempleProcess@@QAEXPAUOBJECTSTRUCT@@0@Z ; CIllusionTempleProcess::NpcRelicsPedestalProc
;	COMDAT ??_C@_0EO@HGHKGJCL@?$FLIllusion?5Temple?$FN?5?$CI?$CFd?$CJ?5Increase?5@
CONST	SEGMENT
??_C@_0EO@HGHKGJCL@?$FLIllusion?5Temple?$FN?5?$CI?$CFd?$CJ?5Increase?5@ DB '['
	DB	'Illusion Temple] (%d) Increase IllusionTeam Relics Point: (%s'
	DB	')(%s)(Score:%d)', 00H			; `string'
; Function compile flags: /Odtp /ZI
CONST	ENDS
_TEXT	SEGMENT
_this$ = -4						; size = 4
_lpObj$ = 8						; size = 4
_lpTargetObj$ = 12					; size = 4
?NpcRelicsPedestalProc@CIllusionTempleProcess@@QAEXPAUOBJECTSTRUCT@@0@Z PROC ; CIllusionTempleProcess::NpcRelicsPedestalProc
; _this$ = ecx

; 1218 : {

  03480	55		 push	 ebp
  03481	8b ec		 mov	 ebp, esp
  03483	83 ec 44	 sub	 esp, 68			; 00000044H
  03486	53		 push	 ebx
  03487	56		 push	 esi
  03488	57		 push	 edi
  03489	89 4d fc	 mov	 DWORD PTR _this$[ebp], ecx

; 1219 : 	if(this->m_btAllowedRegPedestal == (BYTE)-1 || this->m_btAllowedRegPedestal != 1 || lpTargetObj->m_Index != this->m_iBallPlayerIndex)

  0348c	8b 45 fc	 mov	 eax, DWORD PTR _this$[ebp]
  0348f	0f b6 88 bc 03
	00 00		 movzx	 ecx, BYTE PTR [eax+956]
  03496	81 f9 ff 00 00
	00		 cmp	 ecx, 255		; 000000ffH
  0349c	74 1f		 je	 SHORT $LN2@NpcRelicsP
  0349e	8b 45 fc	 mov	 eax, DWORD PTR _this$[ebp]
  034a1	0f b6 88 bc 03
	00 00		 movzx	 ecx, BYTE PTR [eax+956]
  034a8	83 f9 01	 cmp	 ecx, 1
  034ab	75 10		 jne	 SHORT $LN2@NpcRelicsP
  034ad	8b 45 0c	 mov	 eax, DWORD PTR _lpTargetObj$[ebp]
  034b0	8b 4d fc	 mov	 ecx, DWORD PTR _this$[ebp]
  034b3	8b 10		 mov	 edx, DWORD PTR [eax]
  034b5	3b 91 b8 03 00
	00		 cmp	 edx, DWORD PTR [ecx+952]
  034bb	74 05		 je	 SHORT $LN3@NpcRelicsP
$LN2@NpcRelicsP:

; 1220 : 	{
; 1221 : 		return;

  034bd	e9 bb 00 00 00	 jmp	 $LN4@NpcRelicsP
$LN3@NpcRelicsP:

; 1222 : 	}
; 1223 : 
; 1224 : 	if(lpTargetObj->pInventory[FindItemBallPosition(lpTargetObj->m_Index)].m_Type == ITEMGET(14,64))

  034c2	8b 45 0c	 mov	 eax, DWORD PTR _lpTargetObj$[ebp]
  034c5	8b 08		 mov	 ecx, DWORD PTR [eax]
  034c7	51		 push	 ecx
  034c8	8b 4d fc	 mov	 ecx, DWORD PTR _this$[ebp]
  034cb	e8 00 00 00 00	 call	 ?FindItemBallPosition@CIllusionTempleProcess@@QAEHH@Z ; CIllusionTempleProcess::FindItemBallPosition
  034d0	69 c0 d4 00 00
	00		 imul	 eax, 212		; 000000d4H
  034d6	8b 55 0c	 mov	 edx, DWORD PTR _lpTargetObj$[ebp]
  034d9	8b 8a 24 0e 00
	00		 mov	 ecx, DWORD PTR [edx+3620]
  034df	0f bf 54 01 06	 movsx	 edx, WORD PTR [ecx+eax+6]
  034e4	81 fa 40 1c 00
	00		 cmp	 edx, 7232		; 00001c40H
  034ea	0f 85 85 00 00
	00		 jne	 $LN1@NpcRelicsP

; 1225 : 	{
; 1226 : 		this->m_btBlueTeamScore++;

  034f0	8b 45 fc	 mov	 eax, DWORD PTR _this$[ebp]
  034f3	8a 88 d1 03 00
	00		 mov	 cl, BYTE PTR [eax+977]
  034f9	80 c1 01	 add	 cl, 1
  034fc	8b 55 fc	 mov	 edx, DWORD PTR _this$[ebp]
  034ff	88 8a d1 03 00
	00		 mov	 BYTE PTR [edx+977], cl

; 1227 : 		this->DeleteRelicsItem(lpTargetObj);

  03505	8b 45 0c	 mov	 eax, DWORD PTR _lpTargetObj$[ebp]
  03508	50		 push	 eax
  03509	8b 4d fc	 mov	 ecx, DWORD PTR _this$[ebp]
  0350c	e8 00 00 00 00	 call	 ?DeleteRelicsItem@CIllusionTempleProcess@@QAEXPAUOBJECTSTRUCT@@@Z ; CIllusionTempleProcess::DeleteRelicsItem

; 1228 : 		this->m_btAllowedRegPedestal = (BYTE) -1;

  03511	8b 45 fc	 mov	 eax, DWORD PTR _this$[ebp]
  03514	c6 80 bc 03 00
	00 ff		 mov	 BYTE PTR [eax+956], 255	; 000000ffH

; 1229 : 		this->m_iBallPlayerIndex = -1;

  0351b	8b 45 fc	 mov	 eax, DWORD PTR _this$[ebp]
  0351e	c7 80 b8 03 00
	00 ff ff ff ff	 mov	 DWORD PTR [eax+952], -1

; 1230 : 		this->m_btBallInventoryPosition = (BYTE) -1;

  03528	8b 45 fc	 mov	 eax, DWORD PTR _this$[ebp]
  0352b	c6 80 bd 03 00
	00 ff		 mov	 BYTE PTR [eax+957], 255	; 000000ffH

; 1231 : 		this->IncreaseTeamPlayerReward(lpTargetObj->m_Index);

  03532	8b 45 0c	 mov	 eax, DWORD PTR _lpTargetObj$[ebp]
  03535	8b 08		 mov	 ecx, DWORD PTR [eax]
  03537	51		 push	 ecx
  03538	8b 4d fc	 mov	 ecx, DWORD PTR _this$[ebp]
  0353b	e8 00 00 00 00	 call	 ?IncreaseTeamPlayerReward@CIllusionTempleProcess@@QAEXH@Z ; CIllusionTempleProcess::IncreaseTeamPlayerReward

; 1232 : 
; 1233 : 		LogAddTD("[Illusion Temple] (%d) Increase IllusionTeam Relics Point: (%s)(%s)(Score:%d)", this->m_btFloorIndex+1, lpTargetObj->AccountID, lpTargetObj->Name, this->m_btBlueTeamScore);

  03540	8b 45 fc	 mov	 eax, DWORD PTR _this$[ebp]
  03543	0f b6 88 d1 03
	00 00		 movzx	 ecx, BYTE PTR [eax+977]
  0354a	51		 push	 ecx
  0354b	8b 55 0c	 mov	 edx, DWORD PTR _lpTargetObj$[ebp]
  0354e	83 c2 77	 add	 edx, 119		; 00000077H
  03551	52		 push	 edx
  03552	8b 45 0c	 mov	 eax, DWORD PTR _lpTargetObj$[ebp]
  03555	83 c0 6c	 add	 eax, 108		; 0000006cH
  03558	50		 push	 eax
  03559	8b 4d fc	 mov	 ecx, DWORD PTR _this$[ebp]
  0355c	0f b6 91 2c 02
	00 00		 movzx	 edx, BYTE PTR [ecx+556]
  03563	83 c2 01	 add	 edx, 1
  03566	52		 push	 edx
  03567	68 00 00 00 00	 push	 OFFSET ??_C@_0EO@HGHKGJCL@?$FLIllusion?5Temple?$FN?5?$CI?$CFd?$CJ?5Increase?5@
  0356c	ff 15 00 00 00
	00		 call	 DWORD PTR ?LogAddTD@@3P6AXPADZZA ; LogAddTD
  03572	83 c4 14	 add	 esp, 20			; 00000014H
$LN1@NpcRelicsP:

; 1234 : 	}
; 1235 : 	this->SetNpcStatueRegen();

  03575	8b 4d fc	 mov	 ecx, DWORD PTR _this$[ebp]
  03578	e8 00 00 00 00	 call	 ?SetNpcStatueRegen@CIllusionTempleProcess@@QAEXXZ ; CIllusionTempleProcess::SetNpcStatueRegen
$LN4@NpcRelicsP:

; 1236 : }

  0357d	5f		 pop	 edi
  0357e	5e		 pop	 esi
  0357f	5b		 pop	 ebx
  03580	8b e5		 mov	 esp, ebp
  03582	5d		 pop	 ebp
  03583	c2 08 00	 ret	 8
?NpcRelicsPedestalProc@CIllusionTempleProcess@@QAEXPAUOBJECTSTRUCT@@0@Z ENDP ; CIllusionTempleProcess::NpcRelicsPedestalProc
_TEXT	ENDS
PUBLIC	?__LINE__Var@?1??FindItemBallPosition@CIllusionTempleProcess@@QAEHH@Z@4JA ; `CIllusionTempleProcess::FindItemBallPosition'::`2'::__LINE__Var
;	COMDAT ?__LINE__Var@?1??FindItemBallPosition@CIllusionTempleProcess@@QAEHH@Z@4JA
_DATA	SEGMENT
?__LINE__Var@?1??FindItemBallPosition@CIllusionTempleProcess@@QAEHH@Z@4JA DD 04d7H ; `CIllusionTempleProcess::FindItemBallPosition'::`2'::__LINE__Var
; Function compile flags: /Odtp /ZI
_DATA	ENDS
_TEXT	SEGMENT
tv67 = -76						; size = 4
_i$234369 = -8						; size = 4
_this$ = -4						; size = 4
_aIndex$ = 8						; size = 4
?FindItemBallPosition@CIllusionTempleProcess@@QAEHH@Z PROC ; CIllusionTempleProcess::FindItemBallPosition
; _this$ = ecx

; 1239 : {

  03590	55		 push	 ebp
  03591	8b ec		 mov	 ebp, esp
  03593	83 ec 4c	 sub	 esp, 76			; 0000004cH
  03596	53		 push	 ebx
  03597	56		 push	 esi
  03598	57		 push	 edi
  03599	89 4d fc	 mov	 DWORD PTR _this$[ebp], ecx

; 1240 : 	if( OBJMAX_RANGE(aIndex) == FALSE )

  0359c	83 7d 08 00	 cmp	 DWORD PTR _aIndex$[ebp], 0
  035a0	7d 09		 jge	 SHORT $LN9@FindItemBa
  035a2	c7 45 b4 00 00
	00 00		 mov	 DWORD PTR tv67[ebp], 0
  035a9	eb 0f		 jmp	 SHORT $LN10@FindItemBa
$LN9@FindItemBa:
  035ab	33 c0		 xor	 eax, eax
  035ad	81 7d 08 97 3a
	00 00		 cmp	 DWORD PTR _aIndex$[ebp], 14999 ; 00003a97H
  035b4	0f 9e c0	 setle	 al
  035b7	89 45 b4	 mov	 DWORD PTR tv67[ebp], eax
$LN10@FindItemBa:
  035ba	83 7d b4 00	 cmp	 DWORD PTR tv67[ebp], 0
  035be	75 21		 jne	 SHORT $LN6@FindItemBa

; 1241 : 	{
; 1242 : 		LogAdd("return %s %d", __FILE__, __LINE__);

  035c0	a1 00 00 00 00	 mov	 eax, DWORD PTR ?__LINE__Var@?1??FindItemBallPosition@CIllusionTempleProcess@@QAEHH@Z@4JA
  035c5	83 c0 03	 add	 eax, 3
  035c8	50		 push	 eax
  035c9	68 00 00 00 00	 push	 OFFSET ??_C@_0EN@FIHDICBF@d?3?2projects?2exteam6?43?2source?2gam@
  035ce	68 00 00 00 00	 push	 OFFSET ??_C@_0N@GGPGOPEN@return?5?$CFs?5?$CFd?$AA@
  035d3	ff 15 00 00 00
	00		 call	 DWORD PTR ?LogAdd@@3P6AXPADZZA ; LogAdd
  035d9	83 c4 0c	 add	 esp, 12			; 0000000cH

; 1243 : 		return -1;

  035dc	83 c8 ff	 or	 eax, -1
  035df	eb 7a		 jmp	 SHORT $LN7@FindItemBa
$LN6@FindItemBa:

; 1244 : 	}
; 1245 : 
; 1246 : 	for( int i = 0; i < INVENTORY_SIZE; i++ )

  035e1	c7 45 f8 00 00
	00 00		 mov	 DWORD PTR _i$234369[ebp], 0
  035e8	eb 09		 jmp	 SHORT $LN5@FindItemBa
$LN4@FindItemBa:
  035ea	8b 45 f8	 mov	 eax, DWORD PTR _i$234369[ebp]
  035ed	83 c0 01	 add	 eax, 1
  035f0	89 45 f8	 mov	 DWORD PTR _i$234369[ebp], eax
$LN5@FindItemBa:
  035f3	81 7d f8 ec 00
	00 00		 cmp	 DWORD PTR _i$234369[ebp], 236 ; 000000ecH
  035fa	7d 5c		 jge	 SHORT $LN3@FindItemBa

; 1247 : 	{
; 1248 : 		if( gObj[aIndex].pInventory[i].IsItem() == TRUE )

  035fc	8b 45 08	 mov	 eax, DWORD PTR _aIndex$[ebp]
  035ff	69 c0 38 2b 00
	00		 imul	 eax, 11064		; 00002b38H
  03605	8b 4d f8	 mov	 ecx, DWORD PTR _i$234369[ebp]
  03608	69 c9 d4 00 00
	00		 imul	 ecx, 212		; 000000d4H
  0360e	8b 15 00 00 00
	00		 mov	 edx, DWORD PTR ?gObj@@3PAUOBJECTSTRUCT@@A ; gObj
  03614	03 8c 02 24 0e
	00 00		 add	 ecx, DWORD PTR [edx+eax+3620]
  0361b	e8 00 00 00 00	 call	 ?IsItem@CItem@@QAEHXZ	; CItem::IsItem
  03620	83 f8 01	 cmp	 eax, 1
  03623	75 31		 jne	 SHORT $LN2@FindItemBa

; 1249 : 		{
; 1250 : 			if( gObj[aIndex].pInventory[i].m_Type == ITEMGET(14,64) ) //Ball

  03625	8b 45 08	 mov	 eax, DWORD PTR _aIndex$[ebp]
  03628	69 c0 38 2b 00
	00		 imul	 eax, 11064		; 00002b38H
  0362e	8b 4d f8	 mov	 ecx, DWORD PTR _i$234369[ebp]
  03631	69 c9 d4 00 00
	00		 imul	 ecx, 212		; 000000d4H
  03637	8b 15 00 00 00
	00		 mov	 edx, DWORD PTR ?gObj@@3PAUOBJECTSTRUCT@@A ; gObj
  0363d	8b 84 02 24 0e
	00 00		 mov	 eax, DWORD PTR [edx+eax+3620]
  03644	0f bf 4c 08 06	 movsx	 ecx, WORD PTR [eax+ecx+6]
  03649	81 f9 40 1c 00
	00		 cmp	 ecx, 7232		; 00001c40H
  0364f	75 05		 jne	 SHORT $LN2@FindItemBa

; 1251 : 			{
; 1252 : 				return i;

  03651	8b 45 f8	 mov	 eax, DWORD PTR _i$234369[ebp]
  03654	eb 05		 jmp	 SHORT $LN7@FindItemBa
$LN2@FindItemBa:

; 1253 : 			}
; 1254 : 		}
; 1255 : 	}

  03656	eb 92		 jmp	 SHORT $LN4@FindItemBa
$LN3@FindItemBa:

; 1256 : 	return -1;

  03658	83 c8 ff	 or	 eax, -1
$LN7@FindItemBa:

; 1257 : }

  0365b	5f		 pop	 edi
  0365c	5e		 pop	 esi
  0365d	5b		 pop	 ebx
  0365e	8b e5		 mov	 esp, ebp
  03660	5d		 pop	 ebp
  03661	c2 04 00	 ret	 4
?FindItemBallPosition@CIllusionTempleProcess@@QAEHH@Z ENDP ; CIllusionTempleProcess::FindItemBallPosition
_TEXT	ENDS
PUBLIC	??_C@_0EC@KBKIJFJA@?$FLIllusion?5Temple?$FN?5?$CI?$CFd?$CJ?5?$CI?$CFs?$CJ?$CI?$CFs?$CJ?5@ ; `string'
EXTRN	?gObjDeleteItemsCount@@YAHHFFH@Z:PROC		; gObjDeleteItemsCount
;	COMDAT ??_C@_0EC@KBKIJFJA@?$FLIllusion?5Temple?$FN?5?$CI?$CFd?$CJ?5?$CI?$CFs?$CJ?$CI?$CFs?$CJ?5@
CONST	SEGMENT
??_C@_0EC@KBKIJFJA@?$FLIllusion?5Temple?$FN?5?$CI?$CFd?$CJ?5?$CI?$CFs?$CJ?$CI?$CFs?$CJ?5@ DB '['
	DB	'Illusion Temple] (%d) (%s)(%s) to Delete Relics Item [Serial:'
	DB	'%u]', 00H					; `string'
; Function compile flags: /Odtp /ZI
CONST	ENDS
_TEXT	SEGMENT
_ItemType$234380 = -8					; size = 4
_this$ = -4						; size = 4
_lpObj$ = 8						; size = 4
?DeleteRelicsItem@CIllusionTempleProcess@@QAEXPAUOBJECTSTRUCT@@@Z PROC ; CIllusionTempleProcess::DeleteRelicsItem
; _this$ = ecx

; 1260 : {

  03670	55		 push	 ebp
  03671	8b ec		 mov	 ebp, esp
  03673	83 ec 48	 sub	 esp, 72			; 00000048H
  03676	53		 push	 ebx
  03677	56		 push	 esi
  03678	57		 push	 edi
  03679	89 4d fc	 mov	 DWORD PTR _this$[ebp], ecx

; 1261 : 	if(lpObj->pInventory[FindItemBallPosition(lpObj->m_Index)].m_Type == ITEMGET(14,64))

  0367c	8b 45 08	 mov	 eax, DWORD PTR _lpObj$[ebp]
  0367f	8b 08		 mov	 ecx, DWORD PTR [eax]
  03681	51		 push	 ecx
  03682	8b 4d fc	 mov	 ecx, DWORD PTR _this$[ebp]
  03685	e8 00 00 00 00	 call	 ?FindItemBallPosition@CIllusionTempleProcess@@QAEHH@Z ; CIllusionTempleProcess::FindItemBallPosition
  0368a	69 c0 d4 00 00
	00		 imul	 eax, 212		; 000000d4H
  03690	8b 55 08	 mov	 edx, DWORD PTR _lpObj$[ebp]
  03693	8b 8a 24 0e 00
	00		 mov	 ecx, DWORD PTR [edx+3620]
  03699	0f bf 54 01 06	 movsx	 edx, WORD PTR [ecx+eax+6]
  0369e	81 fa 40 1c 00
	00		 cmp	 edx, 7232		; 00001c40H
  036a4	0f 85 84 00 00
	00		 jne	 $LN2@DeleteReli

; 1262 : 	{
; 1263 : 
; 1264 : 		int ItemType = ITEMGET(14,64);

  036aa	c7 45 f8 40 1c
	00 00		 mov	 DWORD PTR _ItemType$234380[ebp], 7232 ; 00001c40H

; 1265 : 		//LogAddTD("[Illusion Temple] (%d) (%s)(%s) to Delete Relics Item [Serial:%u]", this->m_btFloorIndex+1, lpObj->AccountID, lpObj->Name, lpObj->pInventory[this->m_btBallInventoryPosition].m_Number);
; 1266 : 		//gObjInventoryDeleteItem(lpObj->m_Index, iItemPos);
; 1267 : 		//::gObjInventoryDeleteItem(lpObj->m_Index, iItemPos);
; 1268 : 		gObjDeleteItemsCount(lpObj->m_Index,ItemType,0,1);

  036b1	6a 01		 push	 1
  036b3	6a 00		 push	 0
  036b5	0f b7 45 f8	 movzx	 eax, WORD PTR _ItemType$234380[ebp]
  036b9	50		 push	 eax
  036ba	8b 4d 08	 mov	 ecx, DWORD PTR _lpObj$[ebp]
  036bd	8b 11		 mov	 edx, DWORD PTR [ecx]
  036bf	52		 push	 edx
  036c0	e8 00 00 00 00	 call	 ?gObjDeleteItemsCount@@YAHHFFH@Z ; gObjDeleteItemsCount
  036c5	83 c4 10	 add	 esp, 16			; 00000010H

; 1269 : 
; 1270 : 		GCInventoryItemDeleteSend(lpObj->m_Index, FindItemBallPosition(lpObj->m_Index), 0);

  036c8	6a 00		 push	 0
  036ca	8b 45 08	 mov	 eax, DWORD PTR _lpObj$[ebp]
  036cd	8b 08		 mov	 ecx, DWORD PTR [eax]
  036cf	51		 push	 ecx
  036d0	8b 4d fc	 mov	 ecx, DWORD PTR _this$[ebp]
  036d3	e8 00 00 00 00	 call	 ?FindItemBallPosition@CIllusionTempleProcess@@QAEHH@Z ; CIllusionTempleProcess::FindItemBallPosition
  036d8	50		 push	 eax
  036d9	8b 55 08	 mov	 edx, DWORD PTR _lpObj$[ebp]
  036dc	8b 02		 mov	 eax, DWORD PTR [edx]
  036de	50		 push	 eax
  036df	e8 00 00 00 00	 call	 ?GCInventoryItemDeleteSend@@YAXHEE@Z ; GCInventoryItemDeleteSend
  036e4	83 c4 0c	 add	 esp, 12			; 0000000cH

; 1271 : 		LogAddTD("[Illusion Temple] (%d) (%s)(%s) to Delete Relics Item [Serial:%u]", this->m_btFloorIndex+1, lpObj->AccountID, lpObj->Name, lpObj->pInventory[this->m_btBallInventoryPosition].m_Number);

  036e7	8b 45 fc	 mov	 eax, DWORD PTR _this$[ebp]
  036ea	0f b6 88 bd 03
	00 00		 movzx	 ecx, BYTE PTR [eax+957]
  036f1	69 c9 d4 00 00
	00		 imul	 ecx, 212		; 000000d4H
  036f7	8b 55 08	 mov	 edx, DWORD PTR _lpObj$[ebp]
  036fa	8b 82 24 0e 00
	00		 mov	 eax, DWORD PTR [edx+3620]
  03700	8b 0c 08	 mov	 ecx, DWORD PTR [eax+ecx]
  03703	51		 push	 ecx
  03704	8b 55 08	 mov	 edx, DWORD PTR _lpObj$[ebp]
  03707	83 c2 77	 add	 edx, 119		; 00000077H
  0370a	52		 push	 edx
  0370b	8b 45 08	 mov	 eax, DWORD PTR _lpObj$[ebp]
  0370e	83 c0 6c	 add	 eax, 108		; 0000006cH
  03711	50		 push	 eax
  03712	8b 4d fc	 mov	 ecx, DWORD PTR _this$[ebp]
  03715	0f b6 91 2c 02
	00 00		 movzx	 edx, BYTE PTR [ecx+556]
  0371c	83 c2 01	 add	 edx, 1
  0371f	52		 push	 edx
  03720	68 00 00 00 00	 push	 OFFSET ??_C@_0EC@KBKIJFJA@?$FLIllusion?5Temple?$FN?5?$CI?$CFd?$CJ?5?$CI?$CFs?$CJ?$CI?$CFs?$CJ?5@
  03725	ff 15 00 00 00
	00		 call	 DWORD PTR ?LogAddTD@@3P6AXPADZZA ; LogAddTD
  0372b	83 c4 14	 add	 esp, 20			; 00000014H
$LN2@DeleteReli:

; 1272 : 	}
; 1273 : }

  0372e	5f		 pop	 edi
  0372f	5e		 pop	 esi
  03730	5b		 pop	 ebx
  03731	8b e5		 mov	 esp, ebp
  03733	5d		 pop	 ebp
  03734	c2 04 00	 ret	 4
?DeleteRelicsItem@CIllusionTempleProcess@@QAEXPAUOBJECTSTRUCT@@@Z ENDP ; CIllusionTempleProcess::DeleteRelicsItem
_TEXT	ENDS
PUBLIC	??_C@_0EA@DBPKHFEA@?$FLIllusion?5Temple?$FN?5?$CI?$CFd?$CJ?5?$CI?$CFs?$CJ?$CI?$CFs?$CJ?5@ ; `string'
PUBLIC	??_C@_0N@HIFAJKLG@?$MA?z?A?V?$LJ?$NO?$MA?$LK?$LM?$LK?$LJ?$LA?$AA@ ; `string'
PUBLIC	?__LINE__Var@?1??DropRelicsItem@CIllusionTempleProcess@@QAEXH@Z@4JA ; `CIllusionTempleProcess::DropRelicsItem'::`2'::__LINE__Var
PUBLIC	__$ArrayPad$
PUBLIC	?DropRelicsItem@CIllusionTempleProcess@@QAEXH@Z	; CIllusionTempleProcess::DropRelicsItem
EXTRN	?ItemDrop@MapClass@@QAEHHHMHHEEEEEKHHHEQAEE@Z:PROC ; MapClass::ItemDrop
EXTRN	?GetAttr@MapClass@@QAEEHH@Z:PROC		; MapClass::GetAttr
EXTRN	?MapC@@3PAVMapClass@@A:BYTE			; MapC
EXTRN	?ItemIsBufExOption@@YAXPAEPAVCItem@@@Z:PROC	; ItemIsBufExOption
EXTRN	?GetItemOptionLevel@CJewelOfHarmonySystem@@QAEEPAVCItem@@@Z:PROC ; CJewelOfHarmonySystem::GetItemOptionLevel
EXTRN	?GetItemStrengthenOption@CJewelOfHarmonySystem@@QAEEPAVCItem@@@Z:PROC ; CJewelOfHarmonySystem::GetItemStrengthenOption
EXTRN	?g_kJewelOfHarmonySystem@@3VCJewelOfHarmonySystem@@A:BYTE ; g_kJewelOfHarmonySystem
EXTRN	__ftol2_sse:PROC
;	COMDAT ??_C@_0EA@DBPKHFEA@?$FLIllusion?5Temple?$FN?5?$CI?$CFd?$CJ?5?$CI?$CFs?$CJ?$CI?$CFs?$CJ?5@
CONST	SEGMENT
??_C@_0EA@DBPKHFEA@?$FLIllusion?5Temple?$FN?5?$CI?$CFd?$CJ?5?$CI?$CFs?$CJ?$CI?$CFs?$CJ?5@ DB '['
	DB	'Illusion Temple] (%d) (%s)(%s) to Drop Relics Item [Serial:%u'
	DB	']', 00H					; `string'
CONST	ENDS
;	COMDAT ??_C@_0N@HIFAJKLG@?$MA?z?A?V?$LJ?$NO?$MA?$LK?$LM?$LK?$LJ?$LA?$AA@
CONST	SEGMENT
??_C@_0N@HIFAJKLG@?$MA?z?A?V?$LJ?$NO?$MA?$LK?$LM?$LK?$LJ?$LA?$AA@ DB 0c0H
	DB	0faH, 0c1H, 0d6H, 0b9H, 0deH, 0c0H, 0baH, 0bcH, 0baH, 0b9H, 0b0H
	DB	00H						; `string'
CONST	ENDS
;	COMDAT ?__LINE__Var@?1??DropRelicsItem@CIllusionTempleProcess@@QAEXH@Z@4JA
_DATA	SEGMENT
?__LINE__Var@?1??DropRelicsItem@CIllusionTempleProcess@@QAEXH@Z@4JA DD 04fcH ; `CIllusionTempleProcess::DropRelicsItem'::`2'::__LINE__Var
; Function compile flags: /Odtp /ZI
_DATA	ENDS
_TEXT	SEGMENT
tv67 = -216						; size = 4
_btMapAttr$ = -145					; size = 1
_cY$ = -144						; size = 2
_cX$ = -140						; size = 2
_aAntiLootIndex$ = -136					; size = 4
_szItemName$ = -132					; size = 50
_item_number$ = -80					; size = 4
_ItemEffectEx$ = -74					; size = 1
_SOption$ = -73						; size = 1
_PetExp$ = -72						; size = 4
_PetLevel$ = -68					; size = 4
_NewOption$ = -64					; size = 8
_ItemExLevel$ = -54					; size = 1
_ItemExOption$ = -53					; size = 1
_s_num$ = -52						; size = 4
_NOption$ = -48						; size = 1
_Option3$ = -47						; size = 1
_Option2$ = -46						; size = 1
_Option1$ = -45						; size = 1
_ret$ = -44						; size = 4
_dur$ = -40						; size = 4
_level$ = -36						; size = 4
_type$ = -32						; size = 4
_map_num$ = -28						; size = 4
_pResult$ = -24						; size = 5
_iItemPos$ = -16					; size = 4
_lpObj$ = -12						; size = 4
_this$ = -8						; size = 4
__$ArrayPad$ = -4					; size = 4
_iIndex$ = 8						; size = 4
?DropRelicsItem@CIllusionTempleProcess@@QAEXH@Z PROC	; CIllusionTempleProcess::DropRelicsItem
; _this$ = ecx

; 1276 : {

  03740	55		 push	 ebp
  03741	8b ec		 mov	 ebp, esp
  03743	81 ec d8 00 00
	00		 sub	 esp, 216		; 000000d8H
  03749	a1 00 00 00 00	 mov	 eax, DWORD PTR ___security_cookie
  0374e	33 c5		 xor	 eax, ebp
  03750	89 45 fc	 mov	 DWORD PTR __$ArrayPad$[ebp], eax
  03753	53		 push	 ebx
  03754	56		 push	 esi
  03755	57		 push	 edi
  03756	89 4d f8	 mov	 DWORD PTR _this$[ebp], ecx

; 1277 : 	if( OBJMAX_RANGE(iIndex) == FALSE )

  03759	83 7d 08 00	 cmp	 DWORD PTR _iIndex$[ebp], 0
  0375d	7d 0c		 jge	 SHORT $LN12@DropRelics
  0375f	c7 85 28 ff ff
	ff 00 00 00 00	 mov	 DWORD PTR tv67[ebp], 0
  03769	eb 12		 jmp	 SHORT $LN13@DropRelics
$LN12@DropRelics:
  0376b	33 c0		 xor	 eax, eax
  0376d	81 7d 08 97 3a
	00 00		 cmp	 DWORD PTR _iIndex$[ebp], 14999 ; 00003a97H
  03774	0f 9e c0	 setle	 al
  03777	89 85 28 ff ff
	ff		 mov	 DWORD PTR tv67[ebp], eax
$LN13@DropRelics:
  0377d	83 bd 28 ff ff
	ff 00		 cmp	 DWORD PTR tv67[ebp], 0
  03784	75 21		 jne	 SHORT $LN9@DropRelics

; 1278 : 	{
; 1279 : 		LogAdd("return %s %d", __FILE__, __LINE__);

  03786	a1 00 00 00 00	 mov	 eax, DWORD PTR ?__LINE__Var@?1??DropRelicsItem@CIllusionTempleProcess@@QAEXH@Z@4JA
  0378b	83 c0 03	 add	 eax, 3
  0378e	50		 push	 eax
  0378f	68 00 00 00 00	 push	 OFFSET ??_C@_0EN@FIHDICBF@d?3?2projects?2exteam6?43?2source?2gam@
  03794	68 00 00 00 00	 push	 OFFSET ??_C@_0N@GGPGOPEN@return?5?$CFs?5?$CFd?$AA@
  03799	ff 15 00 00 00
	00		 call	 DWORD PTR ?LogAdd@@3P6AXPADZZA ; LogAdd
  0379f	83 c4 0c	 add	 esp, 12			; 0000000cH

; 1280 : 		return;

  037a2	e9 7a 06 00 00	 jmp	 $LN10@DropRelics
$LN9@DropRelics:

; 1281 : 	}
; 1282 : 
; 1283 : 	if(this->m_iBallPlayerIndex != iIndex)

  037a7	8b 45 f8	 mov	 eax, DWORD PTR _this$[ebp]
  037aa	8b 88 b8 03 00
	00		 mov	 ecx, DWORD PTR [eax+952]
  037b0	3b 4d 08	 cmp	 ecx, DWORD PTR _iIndex$[ebp]
  037b3	74 05		 je	 SHORT $LN8@DropRelics

; 1284 : 	{
; 1285 : 		return;

  037b5	e9 67 06 00 00	 jmp	 $LN10@DropRelics
$LN8@DropRelics:

; 1286 : 	}
; 1287 : 
; 1288 : 	LPOBJ lpObj = &gObj[iIndex]; //loc2

  037ba	8b 45 08	 mov	 eax, DWORD PTR _iIndex$[ebp]
  037bd	69 c0 38 2b 00
	00		 imul	 eax, 11064		; 00002b38H
  037c3	03 05 00 00 00
	00		 add	 eax, DWORD PTR ?gObj@@3PAUOBJECTSTRUCT@@A ; gObj
  037c9	89 45 f4	 mov	 DWORD PTR _lpObj$[ebp], eax

; 1289 : 
; 1290 : 	if(FindItemBallPosition(lpObj->m_Index) == -1)

  037cc	8b 45 f4	 mov	 eax, DWORD PTR _lpObj$[ebp]
  037cf	8b 08		 mov	 ecx, DWORD PTR [eax]
  037d1	51		 push	 ecx
  037d2	8b 4d f8	 mov	 ecx, DWORD PTR _this$[ebp]
  037d5	e8 00 00 00 00	 call	 ?FindItemBallPosition@CIllusionTempleProcess@@QAEHH@Z ; CIllusionTempleProcess::FindItemBallPosition
  037da	83 f8 ff	 cmp	 eax, -1
  037dd	75 05		 jne	 SHORT $LN7@DropRelics

; 1291 : 	{
; 1292 : 		return;

  037df	e9 3d 06 00 00	 jmp	 $LN10@DropRelics
$LN7@DropRelics:

; 1293 : 	}
; 1294 : 
; 1295 : 	if(lpObj->pInventory[FindItemBallPosition(lpObj->m_Index)].m_Type != ITEMGET(14,64))

  037e4	8b 45 f4	 mov	 eax, DWORD PTR _lpObj$[ebp]
  037e7	8b 08		 mov	 ecx, DWORD PTR [eax]
  037e9	51		 push	 ecx
  037ea	8b 4d f8	 mov	 ecx, DWORD PTR _this$[ebp]
  037ed	e8 00 00 00 00	 call	 ?FindItemBallPosition@CIllusionTempleProcess@@QAEHH@Z ; CIllusionTempleProcess::FindItemBallPosition
  037f2	69 c0 d4 00 00
	00		 imul	 eax, 212		; 000000d4H
  037f8	8b 55 f4	 mov	 edx, DWORD PTR _lpObj$[ebp]
  037fb	8b 8a 24 0e 00
	00		 mov	 ecx, DWORD PTR [edx+3620]
  03801	0f bf 54 01 06	 movsx	 edx, WORD PTR [ecx+eax+6]
  03806	81 fa 40 1c 00
	00		 cmp	 edx, 7232		; 00001c40H
  0380c	74 05		 je	 SHORT $LN6@DropRelics

; 1296 : 	{
; 1297 : 		return;

  0380e	e9 0e 06 00 00	 jmp	 $LN10@DropRelics
$LN6@DropRelics:

; 1298 : 	}
; 1299 : 
; 1300 : 	int iItemPos = FindItemBallPosition(lpObj->m_Index); //item position loc3

  03813	8b 45 f4	 mov	 eax, DWORD PTR _lpObj$[ebp]
  03816	8b 08		 mov	 ecx, DWORD PTR [eax]
  03818	51		 push	 ecx
  03819	8b 4d f8	 mov	 ecx, DWORD PTR _this$[ebp]
  0381c	e8 00 00 00 00	 call	 ?FindItemBallPosition@CIllusionTempleProcess@@QAEHH@Z ; CIllusionTempleProcess::FindItemBallPosition
  03821	89 45 f0	 mov	 DWORD PTR _iItemPos$[ebp], eax

; 1301 : 
; 1302 : 	PMSG_ITEMTHROW_RESULT pResult;
; 1303 : 
; 1304 : 	PHeadSetB((LPBYTE)&pResult, 0x23, sizeof(pResult));

  03824	6a 05		 push	 5
  03826	6a 23		 push	 35			; 00000023H
  03828	8d 45 e8	 lea	 eax, DWORD PTR _pResult$[ebp]
  0382b	50		 push	 eax
  0382c	e8 00 00 00 00	 call	 ?PHeadSetB@@YAXPAEEH@Z	; PHeadSetB
  03831	83 c4 0c	 add	 esp, 12			; 0000000cH

; 1305 : 	pResult.Result = TRUE;

  03834	c6 45 eb 01	 mov	 BYTE PTR _pResult$[ebp+3], 1

; 1306 : 	pResult.Ipos = iItemPos;

  03838	8a 45 f0	 mov	 al, BYTE PTR _iItemPos$[ebp]
  0383b	88 45 ec	 mov	 BYTE PTR _pResult$[ebp+4], al

; 1307 : 
; 1308 : 	int map_num = gObj[iIndex].MapNumber;

  0383e	8b 45 08	 mov	 eax, DWORD PTR _iIndex$[ebp]
  03841	69 c0 38 2b 00
	00		 imul	 eax, 11064		; 00002b38H
  03847	8b 0d 00 00 00
	00		 mov	 ecx, DWORD PTR ?gObj@@3PAUOBJECTSTRUCT@@A ; gObj
  0384d	0f b6 94 01 49
	01 00 00	 movzx	 edx, BYTE PTR [ecx+eax+329]
  03855	89 55 e4	 mov	 DWORD PTR _map_num$[ebp], edx

; 1309 : 	int type = gObj[iIndex].pInventory[iItemPos].m_Type;

  03858	8b 45 08	 mov	 eax, DWORD PTR _iIndex$[ebp]
  0385b	69 c0 38 2b 00
	00		 imul	 eax, 11064		; 00002b38H
  03861	8b 4d f0	 mov	 ecx, DWORD PTR _iItemPos$[ebp]
  03864	69 c9 d4 00 00
	00		 imul	 ecx, 212		; 000000d4H
  0386a	8b 15 00 00 00
	00		 mov	 edx, DWORD PTR ?gObj@@3PAUOBJECTSTRUCT@@A ; gObj
  03870	8b 84 02 24 0e
	00 00		 mov	 eax, DWORD PTR [edx+eax+3620]
  03877	0f bf 4c 08 06	 movsx	 ecx, WORD PTR [eax+ecx+6]
  0387c	89 4d e0	 mov	 DWORD PTR _type$[ebp], ecx

; 1310 : 	int level = gObj[iIndex].pInventory[iItemPos].m_Level;

  0387f	8b 45 08	 mov	 eax, DWORD PTR _iIndex$[ebp]
  03882	69 c0 38 2b 00
	00		 imul	 eax, 11064		; 00002b38H
  03888	8b 4d f0	 mov	 ecx, DWORD PTR _iItemPos$[ebp]
  0388b	69 c9 d4 00 00
	00		 imul	 ecx, 212		; 000000d4H
  03891	8b 15 00 00 00
	00		 mov	 edx, DWORD PTR ?gObj@@3PAUOBJECTSTRUCT@@A ; gObj
  03897	8b 84 02 24 0e
	00 00		 mov	 eax, DWORD PTR [edx+eax+3620]
  0389e	0f bf 4c 08 08	 movsx	 ecx, WORD PTR [eax+ecx+8]
  038a3	89 4d dc	 mov	 DWORD PTR _level$[ebp], ecx

; 1311 : 	float dur = gObj[iIndex].pInventory[iItemPos].m_Durability;

  038a6	8b 45 08	 mov	 eax, DWORD PTR _iIndex$[ebp]
  038a9	69 c0 38 2b 00
	00		 imul	 eax, 11064		; 00002b38H
  038af	8b 4d f0	 mov	 ecx, DWORD PTR _iItemPos$[ebp]
  038b2	69 c9 d4 00 00
	00		 imul	 ecx, 212		; 000000d4H
  038b8	8b 15 00 00 00
	00		 mov	 edx, DWORD PTR ?gObj@@3PAUOBJECTSTRUCT@@A ; gObj
  038be	8b 84 02 24 0e
	00 00		 mov	 eax, DWORD PTR [edx+eax+3620]
  038c5	d9 44 08 24	 fld	 DWORD PTR [eax+ecx+36]
  038c9	d9 5d d8	 fstp	 DWORD PTR _dur$[ebp]

; 1312 : 	BOOL ret = gObj[iIndex].pInventory[iItemPos].IsItem();

  038cc	8b 45 08	 mov	 eax, DWORD PTR _iIndex$[ebp]
  038cf	69 c0 38 2b 00
	00		 imul	 eax, 11064		; 00002b38H
  038d5	8b 4d f0	 mov	 ecx, DWORD PTR _iItemPos$[ebp]
  038d8	69 c9 d4 00 00
	00		 imul	 ecx, 212		; 000000d4H
  038de	8b 15 00 00 00
	00		 mov	 edx, DWORD PTR ?gObj@@3PAUOBJECTSTRUCT@@A ; gObj
  038e4	03 8c 02 24 0e
	00 00		 add	 ecx, DWORD PTR [edx+eax+3620]
  038eb	e8 00 00 00 00	 call	 ?IsItem@CItem@@QAEHXZ	; CItem::IsItem
  038f0	89 45 d4	 mov	 DWORD PTR _ret$[ebp], eax

; 1313 : 	BYTE Option1 = gObj[iIndex].pInventory[iItemPos].m_Option1;

  038f3	8b 45 08	 mov	 eax, DWORD PTR _iIndex$[ebp]
  038f6	69 c0 38 2b 00
	00		 imul	 eax, 11064		; 00002b38H
  038fc	8b 4d f0	 mov	 ecx, DWORD PTR _iItemPos$[ebp]
  038ff	69 c9 d4 00 00
	00		 imul	 ecx, 212		; 000000d4H
  03905	8b 15 00 00 00
	00		 mov	 edx, DWORD PTR ?gObj@@3PAUOBJECTSTRUCT@@A ; gObj
  0390b	8b 84 02 24 0e
	00 00		 mov	 eax, DWORD PTR [edx+eax+3620]
  03912	8a 8c 08 94 00
	00 00		 mov	 cl, BYTE PTR [eax+ecx+148]
  03919	88 4d d3	 mov	 BYTE PTR _Option1$[ebp], cl

; 1314 : 	BYTE Option2 = gObj[iIndex].pInventory[iItemPos].m_Option2;

  0391c	8b 45 08	 mov	 eax, DWORD PTR _iIndex$[ebp]
  0391f	69 c0 38 2b 00
	00		 imul	 eax, 11064		; 00002b38H
  03925	8b 4d f0	 mov	 ecx, DWORD PTR _iItemPos$[ebp]
  03928	69 c9 d4 00 00
	00		 imul	 ecx, 212		; 000000d4H
  0392e	8b 15 00 00 00
	00		 mov	 edx, DWORD PTR ?gObj@@3PAUOBJECTSTRUCT@@A ; gObj
  03934	8b 84 02 24 0e
	00 00		 mov	 eax, DWORD PTR [edx+eax+3620]
  0393b	8a 8c 08 95 00
	00 00		 mov	 cl, BYTE PTR [eax+ecx+149]
  03942	88 4d d2	 mov	 BYTE PTR _Option2$[ebp], cl

; 1315 : 	BYTE Option3 = gObj[iIndex].pInventory[iItemPos].m_Option3;

  03945	8b 45 08	 mov	 eax, DWORD PTR _iIndex$[ebp]
  03948	69 c0 38 2b 00
	00		 imul	 eax, 11064		; 00002b38H
  0394e	8b 4d f0	 mov	 ecx, DWORD PTR _iItemPos$[ebp]
  03951	69 c9 d4 00 00
	00		 imul	 ecx, 212		; 000000d4H
  03957	8b 15 00 00 00
	00		 mov	 edx, DWORD PTR ?gObj@@3PAUOBJECTSTRUCT@@A ; gObj
  0395d	8b 84 02 24 0e
	00 00		 mov	 eax, DWORD PTR [edx+eax+3620]
  03964	8a 8c 08 96 00
	00 00		 mov	 cl, BYTE PTR [eax+ecx+150]
  0396b	88 4d d1	 mov	 BYTE PTR _Option3$[ebp], cl

; 1316 : 	BYTE NOption = gObj[iIndex].pInventory[iItemPos].m_NewOption;

  0396e	8b 45 08	 mov	 eax, DWORD PTR _iIndex$[ebp]
  03971	69 c0 38 2b 00
	00		 imul	 eax, 11064		; 00002b38H
  03977	8b 4d f0	 mov	 ecx, DWORD PTR _iItemPos$[ebp]
  0397a	69 c9 d4 00 00
	00		 imul	 ecx, 212		; 000000d4H
  03980	8b 15 00 00 00
	00		 mov	 edx, DWORD PTR ?gObj@@3PAUOBJECTSTRUCT@@A ; gObj
  03986	8b 84 02 24 0e
	00 00		 mov	 eax, DWORD PTR [edx+eax+3620]
  0398d	8a 8c 08 97 00
	00 00		 mov	 cl, BYTE PTR [eax+ecx+151]
  03994	88 4d d0	 mov	 BYTE PTR _NOption$[ebp], cl

; 1317 : 	DWORD s_num = gObj[iIndex].pInventory[iItemPos].m_Number;

  03997	8b 45 08	 mov	 eax, DWORD PTR _iIndex$[ebp]
  0399a	69 c0 38 2b 00
	00		 imul	 eax, 11064		; 00002b38H
  039a0	8b 4d f0	 mov	 ecx, DWORD PTR _iItemPos$[ebp]
  039a3	69 c9 d4 00 00
	00		 imul	 ecx, 212		; 000000d4H
  039a9	8b 15 00 00 00
	00		 mov	 edx, DWORD PTR ?gObj@@3PAUOBJECTSTRUCT@@A ; gObj
  039af	8b 84 02 24 0e
	00 00		 mov	 eax, DWORD PTR [edx+eax+3620]
  039b6	8b 0c 01	 mov	 ecx, DWORD PTR [ecx+eax]
  039b9	89 4d cc	 mov	 DWORD PTR _s_num$[ebp], ecx

; 1318 : 	BYTE ItemExOption = g_kJewelOfHarmonySystem.GetItemStrengthenOption(&gObj[iIndex].pInventory[iItemPos]);

  039bc	8b 45 08	 mov	 eax, DWORD PTR _iIndex$[ebp]
  039bf	69 c0 38 2b 00
	00		 imul	 eax, 11064		; 00002b38H
  039c5	8b 4d f0	 mov	 ecx, DWORD PTR _iItemPos$[ebp]
  039c8	69 c9 d4 00 00
	00		 imul	 ecx, 212		; 000000d4H
  039ce	8b 15 00 00 00
	00		 mov	 edx, DWORD PTR ?gObj@@3PAUOBJECTSTRUCT@@A ; gObj
  039d4	03 8c 02 24 0e
	00 00		 add	 ecx, DWORD PTR [edx+eax+3620]
  039db	51		 push	 ecx
  039dc	b9 00 00 00 00	 mov	 ecx, OFFSET ?g_kJewelOfHarmonySystem@@3VCJewelOfHarmonySystem@@A ; g_kJewelOfHarmonySystem
  039e1	e8 00 00 00 00	 call	 ?GetItemStrengthenOption@CJewelOfHarmonySystem@@QAEEPAVCItem@@@Z ; CJewelOfHarmonySystem::GetItemStrengthenOption
  039e6	88 45 cb	 mov	 BYTE PTR _ItemExOption$[ebp], al

; 1319 : 	BYTE ItemExLevel = g_kJewelOfHarmonySystem.GetItemOptionLevel(&gObj[iIndex].pInventory[iItemPos]); //loc17

  039e9	8b 45 08	 mov	 eax, DWORD PTR _iIndex$[ebp]
  039ec	69 c0 38 2b 00
	00		 imul	 eax, 11064		; 00002b38H
  039f2	8b 4d f0	 mov	 ecx, DWORD PTR _iItemPos$[ebp]
  039f5	69 c9 d4 00 00
	00		 imul	 ecx, 212		; 000000d4H
  039fb	8b 15 00 00 00
	00		 mov	 edx, DWORD PTR ?gObj@@3PAUOBJECTSTRUCT@@A ; gObj
  03a01	03 8c 02 24 0e
	00 00		 add	 ecx, DWORD PTR [edx+eax+3620]
  03a08	51		 push	 ecx
  03a09	b9 00 00 00 00	 mov	 ecx, OFFSET ?g_kJewelOfHarmonySystem@@3VCJewelOfHarmonySystem@@A ; g_kJewelOfHarmonySystem
  03a0e	e8 00 00 00 00	 call	 ?GetItemOptionLevel@CJewelOfHarmonySystem@@QAEEPAVCItem@@@Z ; CJewelOfHarmonySystem::GetItemOptionLevel
  03a13	88 45 ca	 mov	 BYTE PTR _ItemExLevel$[ebp], al

; 1320 : 
; 1321 : 	BYTE NewOption[MAX_EXOPTION_SIZE];
; 1322 : 
; 1323 : 	::ItemIsBufExOption(NewOption, &gObj[iIndex].pInventory[iItemPos]);

  03a16	8b 45 08	 mov	 eax, DWORD PTR _iIndex$[ebp]
  03a19	69 c0 38 2b 00
	00		 imul	 eax, 11064		; 00002b38H
  03a1f	8b 4d f0	 mov	 ecx, DWORD PTR _iItemPos$[ebp]
  03a22	69 c9 d4 00 00
	00		 imul	 ecx, 212		; 000000d4H
  03a28	8b 15 00 00 00
	00		 mov	 edx, DWORD PTR ?gObj@@3PAUOBJECTSTRUCT@@A ; gObj
  03a2e	03 8c 02 24 0e
	00 00		 add	 ecx, DWORD PTR [edx+eax+3620]
  03a35	51		 push	 ecx
  03a36	8d 45 c0	 lea	 eax, DWORD PTR _NewOption$[ebp]
  03a39	50		 push	 eax
  03a3a	e8 00 00 00 00	 call	 ?ItemIsBufExOption@@YAXPAEPAVCItem@@@Z ; ItemIsBufExOption
  03a3f	83 c4 08	 add	 esp, 8

; 1324 : 
; 1325 : 	int PetLevel = gObj[iIndex].pInventory[iItemPos].m_PetItem_Level; //loc20

  03a42	8b 45 08	 mov	 eax, DWORD PTR _iIndex$[ebp]
  03a45	69 c0 38 2b 00
	00		 imul	 eax, 11064		; 00002b38H
  03a4b	8b 4d f0	 mov	 ecx, DWORD PTR _iItemPos$[ebp]
  03a4e	69 c9 d4 00 00
	00		 imul	 ecx, 212		; 000000d4H
  03a54	8b 15 00 00 00
	00		 mov	 edx, DWORD PTR ?gObj@@3PAUOBJECTSTRUCT@@A ; gObj
  03a5a	8b 84 02 24 0e
	00 00		 mov	 eax, DWORD PTR [edx+eax+3620]
  03a61	8b 8c 08 bc 00
	00 00		 mov	 ecx, DWORD PTR [eax+ecx+188]
  03a68	89 4d bc	 mov	 DWORD PTR _PetLevel$[ebp], ecx

; 1326 : 
; 1327 : 	int PetExp = gObj[iIndex].pInventory[iItemPos].m_PetItem_Exp; //loc21

  03a6b	8b 45 08	 mov	 eax, DWORD PTR _iIndex$[ebp]
  03a6e	69 c0 38 2b 00
	00		 imul	 eax, 11064		; 00002b38H
  03a74	8b 4d f0	 mov	 ecx, DWORD PTR _iItemPos$[ebp]
  03a77	69 c9 d4 00 00
	00		 imul	 ecx, 212		; 000000d4H
  03a7d	8b 15 00 00 00
	00		 mov	 edx, DWORD PTR ?gObj@@3PAUOBJECTSTRUCT@@A ; gObj
  03a83	8b 84 02 24 0e
	00 00		 mov	 eax, DWORD PTR [edx+eax+3620]
  03a8a	8b 8c 08 c0 00
	00 00		 mov	 ecx, DWORD PTR [eax+ecx+192]
  03a91	89 4d b8	 mov	 DWORD PTR _PetExp$[ebp], ecx

; 1328 : 	BYTE SOption = gObj[iIndex].pInventory[iItemPos].m_SetOption; //loc22

  03a94	8b 45 08	 mov	 eax, DWORD PTR _iIndex$[ebp]
  03a97	69 c0 38 2b 00
	00		 imul	 eax, 11064		; 00002b38H
  03a9d	8b 4d f0	 mov	 ecx, DWORD PTR _iItemPos$[ebp]
  03aa0	69 c9 d4 00 00
	00		 imul	 ecx, 212		; 000000d4H
  03aa6	8b 15 00 00 00
	00		 mov	 edx, DWORD PTR ?gObj@@3PAUOBJECTSTRUCT@@A ; gObj
  03aac	8b 84 02 24 0e
	00 00		 mov	 eax, DWORD PTR [edx+eax+3620]
  03ab3	8a 8c 08 ae 00
	00 00		 mov	 cl, BYTE PTR [eax+ecx+174]
  03aba	88 4d b7	 mov	 BYTE PTR _SOption$[ebp], cl

; 1329 : 
; 1330 : 	BYTE ItemEffectEx = gObj[iIndex].pInventory[iItemPos].m_ItemOptionEx; //loc23

  03abd	8b 45 08	 mov	 eax, DWORD PTR _iIndex$[ebp]
  03ac0	69 c0 38 2b 00
	00		 imul	 eax, 11064		; 00002b38H
  03ac6	8b 4d f0	 mov	 ecx, DWORD PTR _iItemPos$[ebp]
  03ac9	69 c9 d4 00 00
	00		 imul	 ecx, 212		; 000000d4H
  03acf	8b 15 00 00 00
	00		 mov	 edx, DWORD PTR ?gObj@@3PAUOBJECTSTRUCT@@A ; gObj
  03ad5	8b 84 02 24 0e
	00 00		 mov	 eax, DWORD PTR [edx+eax+3620]
  03adc	8a 8c 08 ca 00
	00 00		 mov	 cl, BYTE PTR [eax+ecx+202]
  03ae3	88 4d b6	 mov	 BYTE PTR _ItemEffectEx$[ebp], cl

; 1331 : 	int item_number = gObj[iIndex].pInventory[iItemPos].m_Number; //loc24

  03ae6	8b 45 08	 mov	 eax, DWORD PTR _iIndex$[ebp]
  03ae9	69 c0 38 2b 00
	00		 imul	 eax, 11064		; 00002b38H
  03aef	8b 4d f0	 mov	 ecx, DWORD PTR _iItemPos$[ebp]
  03af2	69 c9 d4 00 00
	00		 imul	 ecx, 212		; 000000d4H
  03af8	8b 15 00 00 00
	00		 mov	 edx, DWORD PTR ?gObj@@3PAUOBJECTSTRUCT@@A ; gObj
  03afe	8b 84 02 24 0e
	00 00		 mov	 eax, DWORD PTR [edx+eax+3620]
  03b05	8b 0c 01	 mov	 ecx, DWORD PTR [ecx+eax]
  03b08	89 4d b0	 mov	 DWORD PTR _item_number$[ebp], ecx

; 1332 : 
; 1333 : 	char szItemName[50] = "";

  03b0b	a1 00 00 00 00	 mov	 eax, DWORD PTR ??_C@_0N@HIFAJKLG@?$MA?z?A?V?$LJ?$NO?$MA?$LK?$LM?$LK?$LJ?$LA?$AA@
  03b10	89 85 7c ff ff
	ff		 mov	 DWORD PTR _szItemName$[ebp], eax
  03b16	8b 0d 04 00 00
	00		 mov	 ecx, DWORD PTR ??_C@_0N@HIFAJKLG@?$MA?z?A?V?$LJ?$NO?$MA?$LK?$LM?$LK?$LJ?$LA?$AA@+4
  03b1c	89 4d 80	 mov	 DWORD PTR _szItemName$[ebp+4], ecx
  03b1f	8b 15 08 00 00
	00		 mov	 edx, DWORD PTR ??_C@_0N@HIFAJKLG@?$MA?z?A?V?$LJ?$NO?$MA?$LK?$LM?$LK?$LJ?$LA?$AA@+8
  03b25	89 55 84	 mov	 DWORD PTR _szItemName$[ebp+8], edx
  03b28	a0 0c 00 00 00	 mov	 al, BYTE PTR ??_C@_0N@HIFAJKLG@?$MA?z?A?V?$LJ?$NO?$MA?$LK?$LM?$LK?$LJ?$LA?$AA@+12
  03b2d	88 45 88	 mov	 BYTE PTR _szItemName$[ebp+12], al
  03b30	33 c0		 xor	 eax, eax
  03b32	89 45 89	 mov	 DWORD PTR _szItemName$[ebp+13], eax
  03b35	89 45 8d	 mov	 DWORD PTR _szItemName$[ebp+17], eax
  03b38	89 45 91	 mov	 DWORD PTR _szItemName$[ebp+21], eax
  03b3b	89 45 95	 mov	 DWORD PTR _szItemName$[ebp+25], eax
  03b3e	89 45 99	 mov	 DWORD PTR _szItemName$[ebp+29], eax
  03b41	89 45 9d	 mov	 DWORD PTR _szItemName$[ebp+33], eax
  03b44	89 45 a1	 mov	 DWORD PTR _szItemName$[ebp+37], eax
  03b47	89 45 a5	 mov	 DWORD PTR _szItemName$[ebp+41], eax
  03b4a	89 45 a9	 mov	 DWORD PTR _szItemName$[ebp+45], eax
  03b4d	88 45 ad	 mov	 BYTE PTR _szItemName$[ebp+49], al

; 1334 : 
; 1335 : 	int aAntiLootIndex = -1; //loc38

  03b50	c7 85 78 ff ff
	ff ff ff ff ff	 mov	 DWORD PTR _aAntiLootIndex$[ebp], -1

; 1336 : 	short cX = 0; //loc39

  03b5a	33 c0		 xor	 eax, eax
  03b5c	66 89 85 74 ff
	ff ff		 mov	 WORD PTR _cX$[ebp], ax

; 1337 : 	short cY = 0; //loc40

  03b63	33 c0		 xor	 eax, eax
  03b65	66 89 85 70 ff
	ff ff		 mov	 WORD PTR _cY$[ebp], ax

; 1338 : 
; 1339 : 	BYTE btMapAttr = MapC[map_num].GetAttr(gObj[iIndex].X, gObj[iIndex].Y);

  03b6c	8b 45 08	 mov	 eax, DWORD PTR _iIndex$[ebp]
  03b6f	69 c0 38 2b 00
	00		 imul	 eax, 11064		; 00002b38H
  03b75	8b 0d 00 00 00
	00		 mov	 ecx, DWORD PTR ?gObj@@3PAUOBJECTSTRUCT@@A ; gObj
  03b7b	0f bf 94 01 46
	01 00 00	 movsx	 edx, WORD PTR [ecx+eax+326]
  03b83	52		 push	 edx
  03b84	8b 45 08	 mov	 eax, DWORD PTR _iIndex$[ebp]
  03b87	69 c0 38 2b 00
	00		 imul	 eax, 11064		; 00002b38H
  03b8d	8b 0d 00 00 00
	00		 mov	 ecx, DWORD PTR ?gObj@@3PAUOBJECTSTRUCT@@A ; gObj
  03b93	0f bf 94 01 44
	01 00 00	 movsx	 edx, WORD PTR [ecx+eax+324]
  03b9b	52		 push	 edx
  03b9c	8b 4d e4	 mov	 ecx, DWORD PTR _map_num$[ebp]
  03b9f	69 c9 b8 3d 05
	00		 imul	 ecx, 343480		; 00053db8H
  03ba5	81 c1 00 00 00
	00		 add	 ecx, OFFSET ?MapC@@3PAVMapClass@@A ; MapC
  03bab	e8 00 00 00 00	 call	 ?GetAttr@MapClass@@QAEEHH@Z ; MapClass::GetAttr
  03bb0	88 85 6f ff ff
	ff		 mov	 BYTE PTR _btMapAttr$[ebp], al

; 1340 : 
; 1341 : 	if((btMapAttr&4) == 4 || (btMapAttr&8) == 8)

  03bb6	0f b6 85 6f ff
	ff ff		 movzx	 eax, BYTE PTR _btMapAttr$[ebp]
  03bbd	83 e0 04	 and	 eax, 4
  03bc0	75 0c		 jne	 SHORT $LN4@DropRelics
  03bc2	0f b6 85 6f ff
	ff ff		 movzx	 eax, BYTE PTR _btMapAttr$[ebp]
  03bc9	83 e0 08	 and	 eax, 8
  03bcc	74 1a		 je	 SHORT $LN5@DropRelics
$LN4@DropRelics:

; 1342 : 	{
; 1343 : 		cX = 168;

  03bce	b8 a8 00 00 00	 mov	 eax, 168		; 000000a8H
  03bd3	66 89 85 74 ff
	ff ff		 mov	 WORD PTR _cX$[ebp], ax

; 1344 : 		cY = 85;

  03bda	b8 55 00 00 00	 mov	 eax, 85			; 00000055H
  03bdf	66 89 85 70 ff
	ff ff		 mov	 WORD PTR _cY$[ebp], ax

; 1345 : 	}
; 1346 : 	else

  03be6	eb 3c		 jmp	 SHORT $LN3@DropRelics
$LN5@DropRelics:

; 1347 : 	{
; 1348 : 		cX = gObj[iIndex].X;

  03be8	8b 45 08	 mov	 eax, DWORD PTR _iIndex$[ebp]
  03beb	69 c0 38 2b 00
	00		 imul	 eax, 11064		; 00002b38H
  03bf1	8b 0d 00 00 00
	00		 mov	 ecx, DWORD PTR ?gObj@@3PAUOBJECTSTRUCT@@A ; gObj
  03bf7	66 8b 94 01 44
	01 00 00	 mov	 dx, WORD PTR [ecx+eax+324]
  03bff	66 89 95 74 ff
	ff ff		 mov	 WORD PTR _cX$[ebp], dx

; 1349 : 		cY = gObj[iIndex].Y;

  03c06	8b 45 08	 mov	 eax, DWORD PTR _iIndex$[ebp]
  03c09	69 c0 38 2b 00
	00		 imul	 eax, 11064		; 00002b38H
  03c0f	8b 0d 00 00 00
	00		 mov	 ecx, DWORD PTR ?gObj@@3PAUOBJECTSTRUCT@@A ; gObj
  03c15	66 8b 94 01 46
	01 00 00	 mov	 dx, WORD PTR [ecx+eax+326]
  03c1d	66 89 95 70 ff
	ff ff		 mov	 WORD PTR _cY$[ebp], dx
$LN3@DropRelics:

; 1350 : 	}
; 1351 : 
; 1352 : 	if ( MapC[map_num].ItemDrop(type, level, dur, cX, cY,Option1, Option2, Option3, NOption, SOption, item_number, aAntiLootIndex, PetLevel, PetExp, ItemEffectEx, NULL, 0xFF) == TRUE )

  03c24	68 ff 00 00 00	 push	 255			; 000000ffH
  03c29	6a 00		 push	 0
  03c2b	0f b6 45 b6	 movzx	 eax, BYTE PTR _ItemEffectEx$[ebp]
  03c2f	50		 push	 eax
  03c30	8b 4d b8	 mov	 ecx, DWORD PTR _PetExp$[ebp]
  03c33	51		 push	 ecx
  03c34	8b 55 bc	 mov	 edx, DWORD PTR _PetLevel$[ebp]
  03c37	52		 push	 edx
  03c38	8b 85 78 ff ff
	ff		 mov	 eax, DWORD PTR _aAntiLootIndex$[ebp]
  03c3e	50		 push	 eax
  03c3f	8b 4d b0	 mov	 ecx, DWORD PTR _item_number$[ebp]
  03c42	51		 push	 ecx
  03c43	0f b6 55 b7	 movzx	 edx, BYTE PTR _SOption$[ebp]
  03c47	52		 push	 edx
  03c48	0f b6 45 d0	 movzx	 eax, BYTE PTR _NOption$[ebp]
  03c4c	50		 push	 eax
  03c4d	0f b6 4d d1	 movzx	 ecx, BYTE PTR _Option3$[ebp]
  03c51	51		 push	 ecx
  03c52	0f b6 55 d2	 movzx	 edx, BYTE PTR _Option2$[ebp]
  03c56	52		 push	 edx
  03c57	0f b6 45 d3	 movzx	 eax, BYTE PTR _Option1$[ebp]
  03c5b	50		 push	 eax
  03c5c	0f bf 8d 70 ff
	ff ff		 movsx	 ecx, WORD PTR _cY$[ebp]
  03c63	51		 push	 ecx
  03c64	0f bf 95 74 ff
	ff ff		 movsx	 edx, WORD PTR _cX$[ebp]
  03c6b	52		 push	 edx
  03c6c	51		 push	 ecx
  03c6d	d9 45 d8	 fld	 DWORD PTR _dur$[ebp]
  03c70	d9 1c 24	 fstp	 DWORD PTR [esp]
  03c73	8b 45 dc	 mov	 eax, DWORD PTR _level$[ebp]
  03c76	50		 push	 eax
  03c77	8b 4d e0	 mov	 ecx, DWORD PTR _type$[ebp]
  03c7a	51		 push	 ecx
  03c7b	8b 4d e4	 mov	 ecx, DWORD PTR _map_num$[ebp]
  03c7e	69 c9 b8 3d 05
	00		 imul	 ecx, 343480		; 00053db8H
  03c84	81 c1 00 00 00
	00		 add	 ecx, OFFSET ?MapC@@3PAVMapClass@@A ; MapC
  03c8a	e8 00 00 00 00	 call	 ?ItemDrop@MapClass@@QAEHHHMHHEEEEEKHHHEQAEE@Z ; MapClass::ItemDrop
  03c8f	83 f8 01	 cmp	 eax, 1
  03c92	0f 85 4f 01 00
	00		 jne	 $LN2@DropRelics

; 1353 : 	{
; 1354 : 		LogAddTD("[Illusion Temple] (%d) (%s)(%s) to Drop Relics Item [Serial:%u]",this->m_btFloorIndex+1, lpObj->AccountID, lpObj->Name, lpObj->pInventory[FindItemBallPosition(lpObj->m_Index)].m_Number);

  03c98	8b 45 f4	 mov	 eax, DWORD PTR _lpObj$[ebp]
  03c9b	8b 08		 mov	 ecx, DWORD PTR [eax]
  03c9d	51		 push	 ecx
  03c9e	8b 4d f8	 mov	 ecx, DWORD PTR _this$[ebp]
  03ca1	e8 00 00 00 00	 call	 ?FindItemBallPosition@CIllusionTempleProcess@@QAEHH@Z ; CIllusionTempleProcess::FindItemBallPosition
  03ca6	69 c0 d4 00 00
	00		 imul	 eax, 212		; 000000d4H
  03cac	8b 55 f4	 mov	 edx, DWORD PTR _lpObj$[ebp]
  03caf	8b 8a 24 0e 00
	00		 mov	 ecx, DWORD PTR [edx+3620]
  03cb5	8b 14 01	 mov	 edx, DWORD PTR [ecx+eax]
  03cb8	52		 push	 edx
  03cb9	8b 45 f4	 mov	 eax, DWORD PTR _lpObj$[ebp]
  03cbc	83 c0 77	 add	 eax, 119		; 00000077H
  03cbf	50		 push	 eax
  03cc0	8b 4d f4	 mov	 ecx, DWORD PTR _lpObj$[ebp]
  03cc3	83 c1 6c	 add	 ecx, 108		; 0000006cH
  03cc6	51		 push	 ecx
  03cc7	8b 55 f8	 mov	 edx, DWORD PTR _this$[ebp]
  03cca	0f b6 82 2c 02
	00 00		 movzx	 eax, BYTE PTR [edx+556]
  03cd1	83 c0 01	 add	 eax, 1
  03cd4	50		 push	 eax
  03cd5	68 00 00 00 00	 push	 OFFSET ??_C@_0EA@DBPKHFEA@?$FLIllusion?5Temple?$FN?5?$CI?$CFd?$CJ?5?$CI?$CFs?$CJ?$CI?$CFs?$CJ?5@
  03cda	ff 15 00 00 00
	00		 call	 DWORD PTR ?LogAddTD@@3P6AXPADZZA ; LogAddTD
  03ce0	83 c4 14	 add	 esp, 20			; 00000014H

; 1355 : 		
; 1356 : 		::gObjInventoryDeleteItem(iIndex, iItemPos);

  03ce3	8b 45 f0	 mov	 eax, DWORD PTR _iItemPos$[ebp]
  03ce6	50		 push	 eax
  03ce7	8b 4d 08	 mov	 ecx, DWORD PTR _iIndex$[ebp]
  03cea	51		 push	 ecx
  03ceb	e8 00 00 00 00	 call	 ?gObjInventoryDeleteItem@@YAEHH@Z ; gObjInventoryDeleteItem
  03cf0	83 c4 08	 add	 esp, 8

; 1357 : 		pResult.Result = TRUE;

  03cf3	c6 45 eb 01	 mov	 BYTE PTR _pResult$[ebp+3], 1

; 1358 : 
; 1359 : 		LogAddTD(lMsg.Get(479), gObj[iIndex].AccountID, gObj[iIndex].Name, gObj[iIndex].MapNumber,
; 1360 : 			gObj[iIndex].X, gObj[iIndex].Y, s_num, szItemName, type, level, Option1, Option2, Option3, (int)dur, NewOption[0],
; 1361 : 			NewOption[1], NewOption[2], NewOption[3], NewOption[4], NewOption[5], NewOption[6], SOption,
; 1362 : 			ItemEffectEx>>7, ItemExOption, ItemExLevel);

  03cf7	0f b6 45 ca	 movzx	 eax, BYTE PTR _ItemExLevel$[ebp]
  03cfb	50		 push	 eax
  03cfc	0f b6 4d cb	 movzx	 ecx, BYTE PTR _ItemExOption$[ebp]
  03d00	51		 push	 ecx
  03d01	0f b6 55 b6	 movzx	 edx, BYTE PTR _ItemEffectEx$[ebp]
  03d05	c1 fa 07	 sar	 edx, 7
  03d08	52		 push	 edx
  03d09	0f b6 45 b7	 movzx	 eax, BYTE PTR _SOption$[ebp]
  03d0d	50		 push	 eax
  03d0e	0f b6 4d c6	 movzx	 ecx, BYTE PTR _NewOption$[ebp+6]
  03d12	51		 push	 ecx
  03d13	0f b6 55 c5	 movzx	 edx, BYTE PTR _NewOption$[ebp+5]
  03d17	52		 push	 edx
  03d18	0f b6 45 c4	 movzx	 eax, BYTE PTR _NewOption$[ebp+4]
  03d1c	50		 push	 eax
  03d1d	0f b6 4d c3	 movzx	 ecx, BYTE PTR _NewOption$[ebp+3]
  03d21	51		 push	 ecx
  03d22	0f b6 55 c2	 movzx	 edx, BYTE PTR _NewOption$[ebp+2]
  03d26	52		 push	 edx
  03d27	0f b6 45 c1	 movzx	 eax, BYTE PTR _NewOption$[ebp+1]
  03d2b	50		 push	 eax
  03d2c	0f b6 4d c0	 movzx	 ecx, BYTE PTR _NewOption$[ebp]
  03d30	51		 push	 ecx
  03d31	d9 45 d8	 fld	 DWORD PTR _dur$[ebp]
  03d34	e8 00 00 00 00	 call	 __ftol2_sse
  03d39	50		 push	 eax
  03d3a	0f b6 55 d1	 movzx	 edx, BYTE PTR _Option3$[ebp]
  03d3e	52		 push	 edx
  03d3f	0f b6 45 d2	 movzx	 eax, BYTE PTR _Option2$[ebp]
  03d43	50		 push	 eax
  03d44	0f b6 4d d3	 movzx	 ecx, BYTE PTR _Option1$[ebp]
  03d48	51		 push	 ecx
  03d49	8b 55 dc	 mov	 edx, DWORD PTR _level$[ebp]
  03d4c	52		 push	 edx
  03d4d	8b 45 e0	 mov	 eax, DWORD PTR _type$[ebp]
  03d50	50		 push	 eax
  03d51	8d 8d 7c ff ff
	ff		 lea	 ecx, DWORD PTR _szItemName$[ebp]
  03d57	51		 push	 ecx
  03d58	8b 55 cc	 mov	 edx, DWORD PTR _s_num$[ebp]
  03d5b	52		 push	 edx
  03d5c	8b 45 08	 mov	 eax, DWORD PTR _iIndex$[ebp]
  03d5f	69 c0 38 2b 00
	00		 imul	 eax, 11064		; 00002b38H
  03d65	8b 0d 00 00 00
	00		 mov	 ecx, DWORD PTR ?gObj@@3PAUOBJECTSTRUCT@@A ; gObj
  03d6b	0f bf 94 01 46
	01 00 00	 movsx	 edx, WORD PTR [ecx+eax+326]
  03d73	52		 push	 edx
  03d74	8b 45 08	 mov	 eax, DWORD PTR _iIndex$[ebp]
  03d77	69 c0 38 2b 00
	00		 imul	 eax, 11064		; 00002b38H
  03d7d	8b 0d 00 00 00
	00		 mov	 ecx, DWORD PTR ?gObj@@3PAUOBJECTSTRUCT@@A ; gObj
  03d83	0f bf 94 01 44
	01 00 00	 movsx	 edx, WORD PTR [ecx+eax+324]
  03d8b	52		 push	 edx
  03d8c	8b 45 08	 mov	 eax, DWORD PTR _iIndex$[ebp]
  03d8f	69 c0 38 2b 00
	00		 imul	 eax, 11064		; 00002b38H
  03d95	8b 0d 00 00 00
	00		 mov	 ecx, DWORD PTR ?gObj@@3PAUOBJECTSTRUCT@@A ; gObj
  03d9b	0f b6 94 01 49
	01 00 00	 movzx	 edx, BYTE PTR [ecx+eax+329]
  03da3	52		 push	 edx
  03da4	8b 45 08	 mov	 eax, DWORD PTR _iIndex$[ebp]
  03da7	69 c0 38 2b 00
	00		 imul	 eax, 11064		; 00002b38H
  03dad	8b 0d 00 00 00
	00		 mov	 ecx, DWORD PTR ?gObj@@3PAUOBJECTSTRUCT@@A ; gObj
  03db3	8d 54 01 77	 lea	 edx, DWORD PTR [ecx+eax+119]
  03db7	52		 push	 edx
  03db8	8b 45 08	 mov	 eax, DWORD PTR _iIndex$[ebp]
  03dbb	69 c0 38 2b 00
	00		 imul	 eax, 11064		; 00002b38H
  03dc1	8b 0d 00 00 00
	00		 mov	 ecx, DWORD PTR ?gObj@@3PAUOBJECTSTRUCT@@A ; gObj
  03dc7	8d 54 01 6c	 lea	 edx, DWORD PTR [ecx+eax+108]
  03dcb	52		 push	 edx
  03dcc	68 df 01 00 00	 push	 479			; 000001dfH
  03dd1	b9 00 00 00 00	 mov	 ecx, OFFSET ?lMsg@@3VCMsg@@A ; lMsg
  03dd6	e8 00 00 00 00	 call	 ?Get@CMsg@@QAEPADH@Z	; CMsg::Get
  03ddb	50		 push	 eax
  03ddc	ff 15 00 00 00
	00		 call	 DWORD PTR ?LogAddTD@@3P6AXPADZZA ; LogAddTD
  03de2	83 c4 64	 add	 esp, 100		; 00000064H

; 1363 : 	}
; 1364 : 	else

  03de5	eb 04		 jmp	 SHORT $LN1@DropRelics
$LN2@DropRelics:

; 1365 : 	{
; 1366 : 		pResult.Result = FALSE;

  03de7	c6 45 eb 00	 mov	 BYTE PTR _pResult$[ebp+3], 0
$LN1@DropRelics:

; 1367 : 	}
; 1368 : 
; 1369 : 	this->m_iBallPlayerIndex = -1;

  03deb	8b 45 f8	 mov	 eax, DWORD PTR _this$[ebp]
  03dee	c7 80 b8 03 00
	00 ff ff ff ff	 mov	 DWORD PTR [eax+952], -1

; 1370 : 	this->m_btBallInventoryPosition = (BYTE)-1;

  03df8	8b 45 f8	 mov	 eax, DWORD PTR _this$[ebp]
  03dfb	c6 80 bd 03 00
	00 ff		 mov	 BYTE PTR [eax+957], 255	; 000000ffH

; 1371 : 	this->m_btAllowedRegPedestal = (BYTE)-1;

  03e02	8b 45 f8	 mov	 eax, DWORD PTR _this$[ebp]
  03e05	c6 80 bc 03 00
	00 ff		 mov	 BYTE PTR [eax+956], 255	; 000000ffH

; 1372 : 
; 1373 : 	DataSend(iIndex, (LPBYTE)&pResult, pResult.h.size);

  03e0c	0f b6 45 e9	 movzx	 eax, BYTE PTR _pResult$[ebp+1]
  03e10	50		 push	 eax
  03e11	8d 4d e8	 lea	 ecx, DWORD PTR _pResult$[ebp]
  03e14	51		 push	 ecx
  03e15	8b 55 08	 mov	 edx, DWORD PTR _iIndex$[ebp]
  03e18	52		 push	 edx
  03e19	e8 00 00 00 00	 call	 ?DataSend@@YAHHPAEK@Z	; DataSend
  03e1e	83 c4 0c	 add	 esp, 12			; 0000000cH
$LN10@DropRelics:

; 1374 : }

  03e21	5f		 pop	 edi
  03e22	5e		 pop	 esi
  03e23	5b		 pop	 ebx
  03e24	8b 4d fc	 mov	 ecx, DWORD PTR __$ArrayPad$[ebp]
  03e27	33 cd		 xor	 ecx, ebp
  03e29	e8 00 00 00 00	 call	 @__security_check_cookie@4
  03e2e	8b e5		 mov	 esp, ebp
  03e30	5d		 pop	 ebp
  03e31	c2 04 00	 ret	 4
?DropRelicsItem@CIllusionTempleProcess@@QAEXH@Z ENDP	; CIllusionTempleProcess::DropRelicsItem
_TEXT	ENDS
PUBLIC	?__LINE__Var@?1??UnlockTeamPedestal@CIllusionTempleProcess@@QAEXHE@Z@4JA ; `CIllusionTempleProcess::UnlockTeamPedestal'::`2'::__LINE__Var
PUBLIC	?UnlockTeamPedestal@CIllusionTempleProcess@@QAEXHE@Z ; CIllusionTempleProcess::UnlockTeamPedestal
;	COMDAT ?__LINE__Var@?1??UnlockTeamPedestal@CIllusionTempleProcess@@QAEXHE@Z@4JA
_DATA	SEGMENT
?__LINE__Var@?1??UnlockTeamPedestal@CIllusionTempleProcess@@QAEXHE@Z@4JA DD 0561H ; `CIllusionTempleProcess::UnlockTeamPedestal'::`2'::__LINE__Var
; Function compile flags: /Odtp /ZI
_DATA	ENDS
_TEXT	SEGMENT
tv67 = -72						; size = 4
_this$ = -4						; size = 4
_aIndex$ = 8						; size = 4
_pos$ = 12						; size = 1
?UnlockTeamPedestal@CIllusionTempleProcess@@QAEXHE@Z PROC ; CIllusionTempleProcess::UnlockTeamPedestal
; _this$ = ecx

; 1377 : {

  03e40	55		 push	 ebp
  03e41	8b ec		 mov	 ebp, esp
  03e43	83 ec 48	 sub	 esp, 72			; 00000048H
  03e46	53		 push	 ebx
  03e47	56		 push	 esi
  03e48	57		 push	 edi
  03e49	89 4d fc	 mov	 DWORD PTR _this$[ebp], ecx

; 1378 : 	if( OBJMAX_RANGE(aIndex) == FALSE )

  03e4c	83 7d 08 00	 cmp	 DWORD PTR _aIndex$[ebp], 0
  03e50	7d 09		 jge	 SHORT $LN5@UnlockTeam
  03e52	c7 45 b8 00 00
	00 00		 mov	 DWORD PTR tv67[ebp], 0
  03e59	eb 0f		 jmp	 SHORT $LN6@UnlockTeam
$LN5@UnlockTeam:
  03e5b	33 c0		 xor	 eax, eax
  03e5d	81 7d 08 97 3a
	00 00		 cmp	 DWORD PTR _aIndex$[ebp], 14999 ; 00003a97H
  03e64	0f 9e c0	 setle	 al
  03e67	89 45 b8	 mov	 DWORD PTR tv67[ebp], eax
$LN6@UnlockTeam:
  03e6a	83 7d b8 00	 cmp	 DWORD PTR tv67[ebp], 0
  03e6e	75 21		 jne	 SHORT $LN2@UnlockTeam

; 1379 : 	{
; 1380 : 		LogAdd("return %s %d", __FILE__, __LINE__);

  03e70	a1 00 00 00 00	 mov	 eax, DWORD PTR ?__LINE__Var@?1??UnlockTeamPedestal@CIllusionTempleProcess@@QAEXHE@Z@4JA
  03e75	83 c0 03	 add	 eax, 3
  03e78	50		 push	 eax
  03e79	68 00 00 00 00	 push	 OFFSET ??_C@_0EN@FIHDICBF@d?3?2projects?2exteam6?43?2source?2gam@
  03e7e	68 00 00 00 00	 push	 OFFSET ??_C@_0N@GGPGOPEN@return?5?$CFs?5?$CFd?$AA@
  03e83	ff 15 00 00 00
	00		 call	 DWORD PTR ?LogAdd@@3P6AXPADZZA ; LogAdd
  03e89	83 c4 0c	 add	 esp, 12			; 0000000cH

; 1381 : 		return;

  03e8c	e9 ab 00 00 00	 jmp	 $LN3@UnlockTeam
$LN2@UnlockTeam:

; 1382 : 	}
; 1383 : 
; 1384 : 	this->m_iBallPlayerIndex = aIndex;

  03e91	8b 45 fc	 mov	 eax, DWORD PTR _this$[ebp]
  03e94	8b 4d 08	 mov	 ecx, DWORD PTR _aIndex$[ebp]
  03e97	89 88 b8 03 00
	00		 mov	 DWORD PTR [eax+952], ecx

; 1385 : 	this->m_btBallInventoryPosition = FindItemBallPosition(aIndex);

  03e9d	8b 45 08	 mov	 eax, DWORD PTR _aIndex$[ebp]
  03ea0	50		 push	 eax
  03ea1	8b 4d fc	 mov	 ecx, DWORD PTR _this$[ebp]
  03ea4	e8 00 00 00 00	 call	 ?FindItemBallPosition@CIllusionTempleProcess@@QAEHH@Z ; CIllusionTempleProcess::FindItemBallPosition
  03ea9	8b 4d fc	 mov	 ecx, DWORD PTR _this$[ebp]
  03eac	88 81 bd 03 00
	00		 mov	 BYTE PTR [ecx+957], al

; 1386 : 	//this->m_btBallInventoryPosition = pos;
; 1387 : 
; 1388 : 	if(gObj[aIndex].m_iIllusionTempleIndex != -1 && this->m_FloorData[gObj[aIndex].m_iIllusionTempleIndex].m_iTeamPlayerIndex != -1 && this->m_FloorData[gObj[aIndex].m_iIllusionTempleIndex].m_iTeamPlayerIndex == aIndex)

  03eb2	8b 45 08	 mov	 eax, DWORD PTR _aIndex$[ebp]
  03eb5	69 c0 38 2b 00
	00		 imul	 eax, 11064		; 00002b38H
  03ebb	8b 0d 00 00 00
	00		 mov	 ecx, DWORD PTR ?gObj@@3PAUOBJECTSTRUCT@@A ; gObj
  03ec1	83 bc 01 78 20
	00 00 ff	 cmp	 DWORD PTR [ecx+eax+8312], -1
  03ec9	74 71		 je	 SHORT $LN3@UnlockTeam
  03ecb	8b 45 08	 mov	 eax, DWORD PTR _aIndex$[ebp]
  03ece	69 c0 38 2b 00
	00		 imul	 eax, 11064		; 00002b38H
  03ed4	8b 0d 00 00 00
	00		 mov	 ecx, DWORD PTR ?gObj@@3PAUOBJECTSTRUCT@@A ; gObj
  03eda	8b 94 01 78 20
	00 00		 mov	 edx, DWORD PTR [ecx+eax+8312]
  03ee1	6b d2 30	 imul	 edx, 48			; 00000030H
  03ee4	8b 45 fc	 mov	 eax, DWORD PTR _this$[ebp]
  03ee7	83 7c 10 20 ff	 cmp	 DWORD PTR [eax+edx+32], -1
  03eec	74 4e		 je	 SHORT $LN3@UnlockTeam
  03eee	8b 45 08	 mov	 eax, DWORD PTR _aIndex$[ebp]
  03ef1	69 c0 38 2b 00
	00		 imul	 eax, 11064		; 00002b38H
  03ef7	8b 0d 00 00 00
	00		 mov	 ecx, DWORD PTR ?gObj@@3PAUOBJECTSTRUCT@@A ; gObj
  03efd	8b 94 01 78 20
	00 00		 mov	 edx, DWORD PTR [ecx+eax+8312]
  03f04	6b d2 30	 imul	 edx, 48			; 00000030H
  03f07	8b 45 fc	 mov	 eax, DWORD PTR _this$[ebp]
  03f0a	8b 4c 10 20	 mov	 ecx, DWORD PTR [eax+edx+32]
  03f0e	3b 4d 08	 cmp	 ecx, DWORD PTR _aIndex$[ebp]
  03f11	75 29		 jne	 SHORT $LN3@UnlockTeam

; 1389 : 	{
; 1390 : 		this->m_btAllowedRegPedestal = this->m_FloorData[gObj[aIndex].m_iIllusionTempleIndex].m_btTeamJoinSide;

  03f13	8b 45 08	 mov	 eax, DWORD PTR _aIndex$[ebp]
  03f16	69 c0 38 2b 00
	00		 imul	 eax, 11064		; 00002b38H
  03f1c	8b 0d 00 00 00
	00		 mov	 ecx, DWORD PTR ?gObj@@3PAUOBJECTSTRUCT@@A ; gObj
  03f22	8b 94 01 78 20
	00 00		 mov	 edx, DWORD PTR [ecx+eax+8312]
  03f29	6b d2 30	 imul	 edx, 48			; 00000030H
  03f2c	8b 45 fc	 mov	 eax, DWORD PTR _this$[ebp]
  03f2f	8b 4d fc	 mov	 ecx, DWORD PTR _this$[ebp]
  03f32	8a 54 11 24	 mov	 dl, BYTE PTR [ecx+edx+36]
  03f36	88 90 bc 03 00
	00		 mov	 BYTE PTR [eax+956], dl
$LN3@UnlockTeam:

; 1391 : 	}
; 1392 : }

  03f3c	5f		 pop	 edi
  03f3d	5e		 pop	 esi
  03f3e	5b		 pop	 ebx
  03f3f	8b e5		 mov	 esp, ebp
  03f41	5d		 pop	 ebp
  03f42	c2 08 00	 ret	 8
?UnlockTeamPedestal@CIllusionTempleProcess@@QAEXHE@Z ENDP ; CIllusionTempleProcess::UnlockTeamPedestal
_TEXT	ENDS
PUBLIC	__$ArrayPad$
PUBLIC	?GCSendPlayerRelicsCarrier@CIllusionTempleProcess@@QAEXPAUOBJECTSTRUCT@@@Z ; CIllusionTempleProcess::GCSendPlayerRelicsCarrier
EXTRN	_memcpy:PROC
EXTRN	?PHeadSubSetB@@YAXPAEEEH@Z:PROC			; PHeadSubSetB
; Function compile flags: /Odtp /ZI
_TEXT	SEGMENT
_i$234443 = -28						; size = 4
_pMsg$ = -24						; size = 16
_this$ = -8						; size = 4
__$ArrayPad$ = -4					; size = 4
_lpObj$ = 8						; size = 4
?GCSendPlayerRelicsCarrier@CIllusionTempleProcess@@QAEXPAUOBJECTSTRUCT@@@Z PROC ; CIllusionTempleProcess::GCSendPlayerRelicsCarrier
; _this$ = ecx

; 1395 : {

  03f50	55		 push	 ebp
  03f51	8b ec		 mov	 ebp, esp
  03f53	83 ec 5c	 sub	 esp, 92			; 0000005cH
  03f56	a1 00 00 00 00	 mov	 eax, DWORD PTR ___security_cookie
  03f5b	33 c5		 xor	 eax, ebp
  03f5d	89 45 fc	 mov	 DWORD PTR __$ArrayPad$[ebp], eax
  03f60	53		 push	 ebx
  03f61	56		 push	 esi
  03f62	57		 push	 edi
  03f63	89 4d f8	 mov	 DWORD PTR _this$[ebp], ecx

; 1396 : 	PMSG_ANNOUNCE_BALL_PLAYER pMsg;
; 1397 : 
; 1398 : 	PHeadSubSetB((LPBYTE)&pMsg, 0xBF, 0x08, sizeof(pMsg));

  03f66	6a 10		 push	 16			; 00000010H
  03f68	6a 08		 push	 8
  03f6a	68 bf 00 00 00	 push	 191			; 000000bfH
  03f6f	8d 45 e8	 lea	 eax, DWORD PTR _pMsg$[ebp]
  03f72	50		 push	 eax
  03f73	e8 00 00 00 00	 call	 ?PHeadSubSetB@@YAXPAEEEH@Z ; PHeadSubSetB
  03f78	83 c4 10	 add	 esp, 16			; 00000010H

; 1399 : 
; 1400 : 	pMsg.m_sIndex = lpObj->m_Index;

  03f7b	8b 45 08	 mov	 eax, DWORD PTR _lpObj$[ebp]
  03f7e	66 8b 08	 mov	 cx, WORD PTR [eax]
  03f81	66 89 4d ec	 mov	 WORD PTR _pMsg$[ebp+4], cx

; 1401 : 
; 1402 : 	memcpy(pMsg.chCharacter, lpObj->Name, 10);

  03f85	6a 0a		 push	 10			; 0000000aH
  03f87	8b 45 08	 mov	 eax, DWORD PTR _lpObj$[ebp]
  03f8a	83 c0 77	 add	 eax, 119		; 00000077H
  03f8d	50		 push	 eax
  03f8e	8d 4d ee	 lea	 ecx, DWORD PTR _pMsg$[ebp+6]
  03f91	51		 push	 ecx
  03f92	e8 00 00 00 00	 call	 _memcpy
  03f97	83 c4 0c	 add	 esp, 12			; 0000000cH

; 1403 : 
; 1404 : 	for( int i = 0; i < MAX_FLOOR_USER; i++ )

  03f9a	c7 45 e4 00 00
	00 00		 mov	 DWORD PTR _i$234443[ebp], 0
  03fa1	eb 09		 jmp	 SHORT $LN5@GCSendPlay
$LN4@GCSendPlay:
  03fa3	8b 45 e4	 mov	 eax, DWORD PTR _i$234443[ebp]
  03fa6	83 c0 01	 add	 eax, 1
  03fa9	89 45 e4	 mov	 DWORD PTR _i$234443[ebp], eax
$LN5@GCSendPlay:
  03fac	83 7d e4 0a	 cmp	 DWORD PTR _i$234443[ebp], 10 ; 0000000aH
  03fb0	7d 50		 jge	 SHORT $LN6@GCSendPlay

; 1405 : 	{
; 1406 : 		if( this->m_FloorData[i].m_iTeamPlayerIndex != OBJ_EMPTY )

  03fb2	8b 45 e4	 mov	 eax, DWORD PTR _i$234443[ebp]
  03fb5	6b c0 30	 imul	 eax, 48			; 00000030H
  03fb8	8b 4d f8	 mov	 ecx, DWORD PTR _this$[ebp]
  03fbb	83 7c 01 20 ff	 cmp	 DWORD PTR [ecx+eax+32], -1
  03fc0	74 3e		 je	 SHORT $LN2@GCSendPlay

; 1407 : 		{
; 1408 : 			if( gObj[this->m_FloorData[i].m_iTeamPlayerIndex].Connected > PLAYER_LOGGED )

  03fc2	8b 45 e4	 mov	 eax, DWORD PTR _i$234443[ebp]
  03fc5	6b c0 30	 imul	 eax, 48			; 00000030H
  03fc8	8b 4d f8	 mov	 ecx, DWORD PTR _this$[ebp]
  03fcb	8b 54 01 20	 mov	 edx, DWORD PTR [ecx+eax+32]
  03fcf	69 d2 38 2b 00
	00		 imul	 edx, 11064		; 00002b38H
  03fd5	a1 00 00 00 00	 mov	 eax, DWORD PTR ?gObj@@3PAUOBJECTSTRUCT@@A ; gObj
  03fda	83 7c 10 04 02	 cmp	 DWORD PTR [eax+edx+4], 2
  03fdf	7e 1f		 jle	 SHORT $LN2@GCSendPlay

; 1409 : 			{
; 1410 : 				DataSend(this->m_FloorData[i].m_iTeamPlayerIndex,(LPBYTE)&pMsg,pMsg.h.size);

  03fe1	0f b6 45 e9	 movzx	 eax, BYTE PTR _pMsg$[ebp+1]
  03fe5	50		 push	 eax
  03fe6	8d 4d e8	 lea	 ecx, DWORD PTR _pMsg$[ebp]
  03fe9	51		 push	 ecx
  03fea	8b 55 e4	 mov	 edx, DWORD PTR _i$234443[ebp]
  03fed	6b d2 30	 imul	 edx, 48			; 00000030H
  03ff0	8b 45 f8	 mov	 eax, DWORD PTR _this$[ebp]
  03ff3	8b 4c 10 20	 mov	 ecx, DWORD PTR [eax+edx+32]
  03ff7	51		 push	 ecx
  03ff8	e8 00 00 00 00	 call	 ?DataSend@@YAHHPAEK@Z	; DataSend
  03ffd	83 c4 0c	 add	 esp, 12			; 0000000cH
$LN2@GCSendPlay:

; 1411 : 			}
; 1412 : 		}
; 1413 : 	}

  04000	eb a1		 jmp	 SHORT $LN4@GCSendPlay
$LN6@GCSendPlay:

; 1414 : }

  04002	5f		 pop	 edi
  04003	5e		 pop	 esi
  04004	5b		 pop	 ebx
  04005	8b 4d fc	 mov	 ecx, DWORD PTR __$ArrayPad$[ebp]
  04008	33 cd		 xor	 ecx, ebp
  0400a	e8 00 00 00 00	 call	 @__security_check_cookie@4
  0400f	8b e5		 mov	 esp, ebp
  04011	5d		 pop	 ebp
  04012	c2 04 00	 ret	 4
?GCSendPlayerRelicsCarrier@CIllusionTempleProcess@@QAEXPAUOBJECTSTRUCT@@@Z ENDP ; CIllusionTempleProcess::GCSendPlayerRelicsCarrier
_TEXT	ENDS
PUBLIC	?TestBattleScene@CIllusionTempleProcess@@QAEXXZ	; CIllusionTempleProcess::TestBattleScene
; Function compile flags: /Odtp /ZI
_TEXT	SEGMENT
_this$ = -4						; size = 4
?TestBattleScene@CIllusionTempleProcess@@QAEXXZ PROC	; CIllusionTempleProcess::TestBattleScene
; _this$ = ecx

; 1417 : {

  04020	55		 push	 ebp
  04021	8b ec		 mov	 ebp, esp
  04023	83 ec 44	 sub	 esp, 68			; 00000044H
  04026	53		 push	 ebx
  04027	56		 push	 esi
  04028	57		 push	 edi
  04029	89 4d fc	 mov	 DWORD PTR _this$[ebp], ecx

; 1418 : 	this->m_iLeftMinutesBeforeOpen = 0;

  0402c	8b 45 fc	 mov	 eax, DWORD PTR _this$[ebp]
  0402f	c7 80 98 03 00
	00 00 00 00 00	 mov	 DWORD PTR [eax+920], 0

; 1419 : 	this->m_iEventBattleTimer = 1000;

  04039	8b 45 fc	 mov	 eax, DWORD PTR _this$[ebp]
  0403c	c7 80 9c 03 00
	00 e8 03 00 00	 mov	 DWORD PTR [eax+924], 1000 ; 000003e8H

; 1420 : }

  04046	5f		 pop	 edi
  04047	5e		 pop	 esi
  04048	5b		 pop	 ebx
  04049	8b e5		 mov	 esp, ebp
  0404b	5d		 pop	 ebp
  0404c	c3		 ret	 0
?TestBattleScene@CIllusionTempleProcess@@QAEXXZ ENDP	; CIllusionTempleProcess::TestBattleScene
_TEXT	ENDS
PUBLIC	?SetNPCPosition@CIllusionTempleProcess@@QAEXHH@Z ; CIllusionTempleProcess::SetNPCPosition
; Function compile flags: /Odtp /ZI
_TEXT	SEGMENT
_this$ = -4						; size = 4
_Class$ = 8						; size = 4
_Position$ = 12						; size = 4
?SetNPCPosition@CIllusionTempleProcess@@QAEXHH@Z PROC	; CIllusionTempleProcess::SetNPCPosition
; _this$ = ecx

; 1423 : {

  04050	55		 push	 ebp
  04051	8b ec		 mov	 ebp, esp
  04053	83 ec 44	 sub	 esp, 68			; 00000044H
  04056	53		 push	 ebx
  04057	56		 push	 esi
  04058	57		 push	 edi
  04059	89 4d fc	 mov	 DWORD PTR _this$[ebp], ecx

; 1424 : 	if(Class == 380)

  0405c	81 7d 08 7c 01
	00 00		 cmp	 DWORD PTR _Class$[ebp], 380 ; 0000017cH
  04063	75 57		 jne	 SHORT $LN4@SetNPCPosi

; 1425 : 	{
; 1426 : 		if(this->m_iStatueCount > 2)

  04065	8b 45 fc	 mov	 eax, DWORD PTR _this$[ebp]
  04068	83 b8 c0 03 00
	00 02		 cmp	 DWORD PTR [eax+960], 2
  0406f	7e 05		 jle	 SHORT $LN3@SetNPCPosi

; 1427 : 		{
; 1428 : 			return;

  04071	e9 90 00 00 00	 jmp	 $LN5@SetNPCPosi
$LN3@SetNPCPosi:

; 1429 : 		}
; 1430 : 
; 1431 : 		this->m_StatueData[this->m_iStatueCount].m_iStatueIndex = -1;

  04076	8b 45 fc	 mov	 eax, DWORD PTR _this$[ebp]
  04079	8b 88 c0 03 00
	00		 mov	 ecx, DWORD PTR [eax+960]
  0407f	8b 55 fc	 mov	 edx, DWORD PTR _this$[ebp]
  04082	c7 84 ca 30 02
	00 00 ff ff ff
	ff		 mov	 DWORD PTR [edx+ecx*8+560], -1

; 1432 : 		this->m_StatueData[this->m_iStatueCount].m_sStatuePosition = (short)Position;

  0408d	8b 45 fc	 mov	 eax, DWORD PTR _this$[ebp]
  04090	8b 88 c0 03 00
	00		 mov	 ecx, DWORD PTR [eax+960]
  04096	8b 55 fc	 mov	 edx, DWORD PTR _this$[ebp]
  04099	66 8b 45 0c	 mov	 ax, WORD PTR _Position$[ebp]
  0409d	66 89 84 ca 34
	02 00 00	 mov	 WORD PTR [edx+ecx*8+564], ax

; 1433 : 
; 1434 : 		this->m_iStatueCount+=1;

  040a5	8b 45 fc	 mov	 eax, DWORD PTR _this$[ebp]
  040a8	8b 88 c0 03 00
	00		 mov	 ecx, DWORD PTR [eax+960]
  040ae	83 c1 01	 add	 ecx, 1
  040b1	8b 55 fc	 mov	 edx, DWORD PTR _this$[ebp]
  040b4	89 8a c0 03 00
	00		 mov	 DWORD PTR [edx+960], ecx

; 1435 : 		return;

  040ba	eb 4a		 jmp	 SHORT $LN5@SetNPCPosi
$LN4@SetNPCPosi:

; 1436 : 	}
; 1437 : 
; 1438 : 	if(Class == 383)

  040bc	81 7d 08 7f 01
	00 00		 cmp	 DWORD PTR _Class$[ebp], 383 ; 0000017fH
  040c3	75 1d		 jne	 SHORT $LN2@SetNPCPosi

; 1439 : 	{
; 1440 : 		this->m_iYellowPedestalIndex = -1;

  040c5	8b 45 fc	 mov	 eax, DWORD PTR _this$[ebp]
  040c8	c7 80 40 02 00
	00 ff ff ff ff	 mov	 DWORD PTR [eax+576], -1

; 1441 : 		this->m_sYellowPedestalPosition = Position;

  040d2	8b 45 fc	 mov	 eax, DWORD PTR _this$[ebp]
  040d5	66 8b 4d 0c	 mov	 cx, WORD PTR _Position$[ebp]
  040d9	66 89 88 44 02
	00 00		 mov	 WORD PTR [eax+580], cx

; 1442 : 		return;

  040e0	eb 24		 jmp	 SHORT $LN5@SetNPCPosi
$LN2@SetNPCPosi:

; 1443 : 	}
; 1444 : 
; 1445 : 	if(Class == 384)

  040e2	81 7d 08 80 01
	00 00		 cmp	 DWORD PTR _Class$[ebp], 384 ; 00000180H
  040e9	75 1b		 jne	 SHORT $LN5@SetNPCPosi

; 1446 : 	{
; 1447 : 		this->m_iBluePedestalIndex = -1;

  040eb	8b 45 fc	 mov	 eax, DWORD PTR _this$[ebp]
  040ee	c7 80 48 02 00
	00 ff ff ff ff	 mov	 DWORD PTR [eax+584], -1

; 1448 : 		this->m_sBluePedestalPosition = Position;

  040f8	8b 45 fc	 mov	 eax, DWORD PTR _this$[ebp]
  040fb	66 8b 4d 0c	 mov	 cx, WORD PTR _Position$[ebp]
  040ff	66 89 88 4c 02
	00 00		 mov	 WORD PTR [eax+588], cx
$LN5@SetNPCPosi:

; 1449 : 		return;
; 1450 : 	}
; 1451 : }

  04106	5f		 pop	 edi
  04107	5e		 pop	 esi
  04108	5b		 pop	 ebx
  04109	8b e5		 mov	 esp, ebp
  0410b	5d		 pop	 ebp
  0410c	c2 08 00	 ret	 8
?SetNPCPosition@CIllusionTempleProcess@@QAEXHH@Z ENDP	; CIllusionTempleProcess::SetNPCPosition
_TEXT	ENDS
PUBLIC	?SetMonsterPosition@CIllusionTempleProcess@@QAEXHH@Z ; CIllusionTempleProcess::SetMonsterPosition
; Function compile flags: /Odtp /ZI
_TEXT	SEGMENT
_this$ = -4						; size = 4
_Class$ = 8						; size = 4
_Position$ = 12						; size = 4
?SetMonsterPosition@CIllusionTempleProcess@@QAEXHH@Z PROC ; CIllusionTempleProcess::SetMonsterPosition
; _this$ = ecx

; 1454 : {

  04110	55		 push	 ebp
  04111	8b ec		 mov	 ebp, esp
  04113	83 ec 44	 sub	 esp, 68			; 00000044H
  04116	53		 push	 ebx
  04117	56		 push	 esi
  04118	57		 push	 edi
  04119	89 4d fc	 mov	 DWORD PTR _this$[ebp], ecx

; 1455 : 	if(this->m_iMonsterCount > 40)

  0411c	8b 45 fc	 mov	 eax, DWORD PTR _this$[ebp]
  0411f	83 b8 c4 03 00
	00 28		 cmp	 DWORD PTR [eax+964], 40	; 00000028H
  04126	7e 02		 jle	 SHORT $LN1@SetMonster

; 1456 : 	{
; 1457 : 		return;

  04128	eb 44		 jmp	 SHORT $LN2@SetMonster
$LN1@SetMonster:

; 1458 : 	}
; 1459 : 
; 1460 : 	this->m_MonsterData[this->m_iMonsterCount].m_iMonsterIndex = -1;

  0412a	8b 45 fc	 mov	 eax, DWORD PTR _this$[ebp]
  0412d	8b 88 c4 03 00
	00		 mov	 ecx, DWORD PTR [eax+964]
  04133	8b 55 fc	 mov	 edx, DWORD PTR _this$[ebp]
  04136	c7 84 ca 50 02
	00 00 ff ff ff
	ff		 mov	 DWORD PTR [edx+ecx*8+592], -1

; 1461 : 	this->m_MonsterData[this->m_iMonsterCount].m_sMonsterPosition = (short)Position;

  04141	8b 45 fc	 mov	 eax, DWORD PTR _this$[ebp]
  04144	8b 88 c4 03 00
	00		 mov	 ecx, DWORD PTR [eax+964]
  0414a	8b 55 fc	 mov	 edx, DWORD PTR _this$[ebp]
  0414d	66 8b 45 0c	 mov	 ax, WORD PTR _Position$[ebp]
  04151	66 89 84 ca 54
	02 00 00	 mov	 WORD PTR [edx+ecx*8+596], ax

; 1462 : 
; 1463 : 	this->m_iMonsterCount++;

  04159	8b 45 fc	 mov	 eax, DWORD PTR _this$[ebp]
  0415c	8b 88 c4 03 00
	00		 mov	 ecx, DWORD PTR [eax+964]
  04162	83 c1 01	 add	 ecx, 1
  04165	8b 55 fc	 mov	 edx, DWORD PTR _this$[ebp]
  04168	89 8a c4 03 00
	00		 mov	 DWORD PTR [edx+964], ecx
$LN2@SetMonster:

; 1464 : }

  0416e	5f		 pop	 edi
  0416f	5e		 pop	 esi
  04170	5b		 pop	 ebx
  04171	8b e5		 mov	 esp, ebp
  04173	5d		 pop	 ebp
  04174	c2 08 00	 ret	 8
?SetMonsterPosition@CIllusionTempleProcess@@QAEXHH@Z ENDP ; CIllusionTempleProcess::SetMonsterPosition
; Function compile flags: /Odtp /ZI
_i$ = -8						; size = 4
_this$ = -4						; size = 4
?ClearMonstersData@CIllusionTempleProcess@@QAEXXZ PROC	; CIllusionTempleProcess::ClearMonstersData
; _this$ = ecx

; 1467 : {

  04180	55		 push	 ebp
  04181	8b ec		 mov	 ebp, esp
  04183	83 ec 48	 sub	 esp, 72			; 00000048H
  04186	53		 push	 ebx
  04187	56		 push	 esi
  04188	57		 push	 edi
  04189	89 4d fc	 mov	 DWORD PTR _this$[ebp], ecx

; 1468 : 	int i;
; 1469 : 
; 1470 : 	for(i = 0; i< MAX_STATUE_MONSTER; i++)

  0418c	c7 45 f8 00 00
	00 00		 mov	 DWORD PTR _i$[ebp], 0
  04193	eb 09		 jmp	 SHORT $LN6@ClearMonst
$LN5@ClearMonst:
  04195	8b 45 f8	 mov	 eax, DWORD PTR _i$[ebp]
  04198	83 c0 01	 add	 eax, 1
  0419b	89 45 f8	 mov	 DWORD PTR _i$[ebp], eax
$LN6@ClearMonst:
  0419e	83 7d f8 02	 cmp	 DWORD PTR _i$[ebp], 2
  041a2	7d 24		 jge	 SHORT $LN4@ClearMonst

; 1471 : 	{
; 1472 : 		this->m_StatueData[i].m_iStatueIndex = -1;

  041a4	8b 45 f8	 mov	 eax, DWORD PTR _i$[ebp]
  041a7	8b 4d fc	 mov	 ecx, DWORD PTR _this$[ebp]
  041aa	c7 84 c1 30 02
	00 00 ff ff ff
	ff		 mov	 DWORD PTR [ecx+eax*8+560], -1

; 1473 : 		this->m_StatueData[i].m_sStatuePosition = -1;

  041b5	83 c8 ff	 or	 eax, -1
  041b8	8b 4d f8	 mov	 ecx, DWORD PTR _i$[ebp]
  041bb	8b 55 fc	 mov	 edx, DWORD PTR _this$[ebp]
  041be	66 89 84 ca 34
	02 00 00	 mov	 WORD PTR [edx+ecx*8+564], ax

; 1474 : 	}

  041c6	eb cd		 jmp	 SHORT $LN5@ClearMonst
$LN4@ClearMonst:

; 1475 : 
; 1476 : 	this->m_iStatueCount = 0;

  041c8	8b 45 fc	 mov	 eax, DWORD PTR _this$[ebp]
  041cb	c7 80 c0 03 00
	00 00 00 00 00	 mov	 DWORD PTR [eax+960], 0

; 1477 : 	this->m_iYellowPedestalIndex = -1;

  041d5	8b 45 fc	 mov	 eax, DWORD PTR _this$[ebp]
  041d8	c7 80 40 02 00
	00 ff ff ff ff	 mov	 DWORD PTR [eax+576], -1

; 1478 : 	this->m_sYellowPedestalPosition = -1;

  041e2	83 c8 ff	 or	 eax, -1
  041e5	8b 4d fc	 mov	 ecx, DWORD PTR _this$[ebp]
  041e8	66 89 81 44 02
	00 00		 mov	 WORD PTR [ecx+580], ax

; 1479 : 	this->m_iBluePedestalIndex = -1;

  041ef	8b 45 fc	 mov	 eax, DWORD PTR _this$[ebp]
  041f2	c7 80 48 02 00
	00 ff ff ff ff	 mov	 DWORD PTR [eax+584], -1

; 1480 : 	this->m_sBluePedestalPosition = -1;

  041fc	83 c8 ff	 or	 eax, -1
  041ff	8b 4d fc	 mov	 ecx, DWORD PTR _this$[ebp]
  04202	66 89 81 4c 02
	00 00		 mov	 WORD PTR [ecx+588], ax

; 1481 : 
; 1482 : 	for(i = 0; i< MAX_FLOOR_MONSTER; i++)

  04209	c7 45 f8 00 00
	00 00		 mov	 DWORD PTR _i$[ebp], 0
  04210	eb 09		 jmp	 SHORT $LN3@ClearMonst
$LN2@ClearMonst:
  04212	8b 45 f8	 mov	 eax, DWORD PTR _i$[ebp]
  04215	83 c0 01	 add	 eax, 1
  04218	89 45 f8	 mov	 DWORD PTR _i$[ebp], eax
$LN3@ClearMonst:
  0421b	83 7d f8 28	 cmp	 DWORD PTR _i$[ebp], 40	; 00000028H
  0421f	7d 24		 jge	 SHORT $LN1@ClearMonst

; 1483 : 	{
; 1484 : 		this->m_MonsterData[i].m_iMonsterIndex = -1;

  04221	8b 45 f8	 mov	 eax, DWORD PTR _i$[ebp]
  04224	8b 4d fc	 mov	 ecx, DWORD PTR _this$[ebp]
  04227	c7 84 c1 50 02
	00 00 ff ff ff
	ff		 mov	 DWORD PTR [ecx+eax*8+592], -1

; 1485 : 		this->m_MonsterData[i].m_sMonsterPosition = -1;

  04232	83 c8 ff	 or	 eax, -1
  04235	8b 4d f8	 mov	 ecx, DWORD PTR _i$[ebp]
  04238	8b 55 fc	 mov	 edx, DWORD PTR _this$[ebp]
  0423b	66 89 84 ca 54
	02 00 00	 mov	 WORD PTR [edx+ecx*8+596], ax

; 1486 : 	}

  04243	eb cd		 jmp	 SHORT $LN2@ClearMonst
$LN1@ClearMonst:

; 1487 : 
; 1488 : 	this->m_iMonsterCount = 0;

  04245	8b 45 fc	 mov	 eax, DWORD PTR _this$[ebp]
  04248	c7 80 c4 03 00
	00 00 00 00 00	 mov	 DWORD PTR [eax+964], 0

; 1489 : }

  04252	5f		 pop	 edi
  04253	5e		 pop	 esi
  04254	5b		 pop	 ebx
  04255	8b e5		 mov	 esp, ebp
  04257	5d		 pop	 ebp
  04258	c3		 ret	 0
?ClearMonstersData@CIllusionTempleProcess@@QAEXXZ ENDP	; CIllusionTempleProcess::ClearMonstersData
_TEXT	ENDS
PUBLIC	??_C@_0CI@MMAPFAFM@?$FLIllusion?5Temple?$FN?5?$CI?$CFd?$CJ?5Add?5Statu@ ; `string'
PUBLIC	??_C@_0DP@JFMMMCDJ@?$FLIllusion?5Temple?$FN?5?$CI?$CFd?$CJ?5Create?5NP@ ; `string'
EXTRN	?gObjSetMonster@@YAHHH@Z:PROC			; gObjSetMonster
EXTRN	?gObjSetPosMonster@@YAHHH@Z:PROC		; gObjSetPosMonster
EXTRN	?gObjAddMonster@@YAFH@Z:PROC			; gObjAddMonster
;	COMDAT ??_C@_0CI@MMAPFAFM@?$FLIllusion?5Temple?$FN?5?$CI?$CFd?$CJ?5Add?5Statu@
CONST	SEGMENT
??_C@_0CI@MMAPFAFM@?$FLIllusion?5Temple?$FN?5?$CI?$CFd?$CJ?5Add?5Statu@ DB '['
	DB	'Illusion Temple] (%d) Add Status Error', 00H ; `string'
CONST	ENDS
;	COMDAT ??_C@_0DP@JFMMMCDJ@?$FLIllusion?5Temple?$FN?5?$CI?$CFd?$CJ?5Create?5NP@
CONST	SEGMENT
??_C@_0DP@JFMMMCDJ@?$FLIllusion?5Temple?$FN?5?$CI?$CFd?$CJ?5Create?5NP@ DB '['
	DB	'Illusion Temple] (%d) Create NPC Status Name: %s, (%d: %d/%d)'
	DB	00H						; `string'
; Function compile flags: /Odtp /ZI
CONST	ENDS
_TEXT	SEGMENT
_loc3$234487 = -12					; size = 4
_i$234483 = -8						; size = 4
_this$ = -4						; size = 4
?CreateNPCStatus@CIllusionTempleProcess@@QAEXXZ PROC	; CIllusionTempleProcess::CreateNPCStatus
; _this$ = ecx

; 1492 : {

  04260	55		 push	 ebp
  04261	8b ec		 mov	 ebp, esp
  04263	83 ec 4c	 sub	 esp, 76			; 0000004cH
  04266	53		 push	 ebx
  04267	56		 push	 esi
  04268	57		 push	 edi
  04269	89 4d fc	 mov	 DWORD PTR _this$[ebp], ecx

; 1493 : 	for( int i = 0; i < this->m_iStatueCount; i++)

  0426c	c7 45 f8 00 00
	00 00		 mov	 DWORD PTR _i$234483[ebp], 0
  04273	eb 09		 jmp	 SHORT $LN5@CreateNPCS
$LN4@CreateNPCS:
  04275	8b 45 f8	 mov	 eax, DWORD PTR _i$234483[ebp]
  04278	83 c0 01	 add	 eax, 1
  0427b	89 45 f8	 mov	 DWORD PTR _i$234483[ebp], eax
$LN5@CreateNPCS:
  0427e	8b 45 fc	 mov	 eax, DWORD PTR _this$[ebp]
  04281	8b 4d f8	 mov	 ecx, DWORD PTR _i$234483[ebp]
  04284	3b 88 c0 03 00
	00		 cmp	 ecx, DWORD PTR [eax+960]
  0428a	0f 8d 78 01 00
	00		 jge	 $LN6@CreateNPCS

; 1494 : 	{
; 1495 : 		int loc3 = gObjAddMonster(this->m_btFloorIndex+MAP_INDEX_ILLUSIONTEMPLE);

  04290	8b 45 fc	 mov	 eax, DWORD PTR _this$[ebp]
  04293	0f b6 88 2c 02
	00 00		 movzx	 ecx, BYTE PTR [eax+556]
  0429a	83 c1 2d	 add	 ecx, 45			; 0000002dH
  0429d	51		 push	 ecx
  0429e	e8 00 00 00 00	 call	 ?gObjAddMonster@@YAFH@Z	; gObjAddMonster
  042a3	83 c4 04	 add	 esp, 4
  042a6	0f bf d0	 movsx	 edx, ax
  042a9	89 55 f4	 mov	 DWORD PTR _loc3$234487[ebp], edx

; 1496 : 
; 1497 : 		if(loc3 >= 0)

  042ac	83 7d f4 00	 cmp	 DWORD PTR _loc3$234487[ebp], 0
  042b0	0f 8c 31 01 00
	00		 jl	 $LN2@CreateNPCS

; 1498 : 		{
; 1499 : 			::gObjSetPosMonster(loc3, this->m_StatueData[i].m_sStatuePosition);

  042b6	8b 45 f8	 mov	 eax, DWORD PTR _i$234483[ebp]
  042b9	8b 4d fc	 mov	 ecx, DWORD PTR _this$[ebp]
  042bc	0f bf 94 c1 34
	02 00 00	 movsx	 edx, WORD PTR [ecx+eax*8+564]
  042c4	52		 push	 edx
  042c5	8b 45 f4	 mov	 eax, DWORD PTR _loc3$234487[ebp]
  042c8	50		 push	 eax
  042c9	e8 00 00 00 00	 call	 ?gObjSetPosMonster@@YAHHH@Z ; gObjSetPosMonster
  042ce	83 c4 08	 add	 esp, 8

; 1500 : 			::gObjSetMonster(loc3, 380);

  042d1	68 7c 01 00 00	 push	 380			; 0000017cH
  042d6	8b 45 f4	 mov	 eax, DWORD PTR _loc3$234487[ebp]
  042d9	50		 push	 eax
  042da	e8 00 00 00 00	 call	 ?gObjSetMonster@@YAHHH@Z ; gObjSetMonster
  042df	83 c4 08	 add	 esp, 8

; 1501 : 			gObj[loc3].m_PosNum = -1;

  042e2	8b 45 f4	 mov	 eax, DWORD PTR _loc3$234487[ebp]
  042e5	69 c0 38 2b 00
	00		 imul	 eax, 11064		; 00002b38H
  042eb	83 c9 ff	 or	 ecx, -1
  042ee	8b 15 00 00 00
	00		 mov	 edx, DWORD PTR ?gObj@@3PAUOBJECTSTRUCT@@A ; gObj
  042f4	66 89 8c 02 b0
	03 00 00	 mov	 WORD PTR [edx+eax+944], cx

; 1502 : 			gObj[loc3].Live = 0;

  042fc	8b 45 f4	 mov	 eax, DWORD PTR _loc3$234487[ebp]
  042ff	69 c0 38 2b 00
	00		 imul	 eax, 11064		; 00002b38H
  04305	8b 0d 00 00 00
	00		 mov	 ecx, DWORD PTR ?gObj@@3PAUOBJECTSTRUCT@@A ; gObj
  0430b	c6 44 01 6a 00	 mov	 BYTE PTR [ecx+eax+106], 0

; 1503 : 			gObj[loc3].DieRegen = 2;

  04310	8b 45 f4	 mov	 eax, DWORD PTR _loc3$234487[ebp]
  04313	69 c0 38 2b 00
	00		 imul	 eax, 11064		; 00002b38H
  04319	8b 0d 00 00 00
	00		 mov	 ecx, DWORD PTR ?gObj@@3PAUOBJECTSTRUCT@@A ; gObj
  0431f	c6 84 01 a2 03
	00 00 02	 mov	 BYTE PTR [ecx+eax+930], 2

; 1504 : 			gObj[loc3].m_State = 4;

  04327	8b 45 f4	 mov	 eax, DWORD PTR _loc3$234487[ebp]
  0432a	69 c0 38 2b 00
	00		 imul	 eax, 11064		; 00002b38H
  04330	8b 0d 00 00 00
	00		 mov	 ecx, DWORD PTR ?gObj@@3PAUOBJECTSTRUCT@@A ; gObj
  04336	c7 84 01 20 02
	00 00 04 00 00
	00		 mov	 DWORD PTR [ecx+eax+544], 4

; 1505 : 			gObj[loc3].RegenTime = GetTickCount();

  04341	ff 15 00 00 00
	00		 call	 DWORD PTR __imp__GetTickCount@0
  04347	8b 4d f4	 mov	 ecx, DWORD PTR _loc3$234487[ebp]
  0434a	69 c9 38 2b 00
	00		 imul	 ecx, 11064		; 00002b38H
  04350	8b 15 00 00 00
	00		 mov	 edx, DWORD PTR ?gObj@@3PAUOBJECTSTRUCT@@A ; gObj
  04356	89 84 0a a8 03
	00 00		 mov	 DWORD PTR [edx+ecx+936], eax

; 1506 : 			this->m_StatueData[i].m_iStatueIndex = loc3;

  0435d	8b 45 f8	 mov	 eax, DWORD PTR _i$234483[ebp]
  04360	8b 4d fc	 mov	 ecx, DWORD PTR _this$[ebp]
  04363	8b 55 f4	 mov	 edx, DWORD PTR _loc3$234487[ebp]
  04366	89 94 c1 30 02
	00 00		 mov	 DWORD PTR [ecx+eax*8+560], edx

; 1507 : 
; 1508 : 			LogAddTD("[Illusion Temple] (%d) Create NPC Status Name: %s, (%d: %d/%d)", this->m_btFloorIndex+1, gObj[loc3].Name, gObj[loc3].MapNumber, gObj[loc3].X, gObj[loc3].Y);

  0436d	8b 45 f4	 mov	 eax, DWORD PTR _loc3$234487[ebp]
  04370	69 c0 38 2b 00
	00		 imul	 eax, 11064		; 00002b38H
  04376	8b 0d 00 00 00
	00		 mov	 ecx, DWORD PTR ?gObj@@3PAUOBJECTSTRUCT@@A ; gObj
  0437c	0f bf 94 01 46
	01 00 00	 movsx	 edx, WORD PTR [ecx+eax+326]
  04384	52		 push	 edx
  04385	8b 45 f4	 mov	 eax, DWORD PTR _loc3$234487[ebp]
  04388	69 c0 38 2b 00
	00		 imul	 eax, 11064		; 00002b38H
  0438e	8b 0d 00 00 00
	00		 mov	 ecx, DWORD PTR ?gObj@@3PAUOBJECTSTRUCT@@A ; gObj
  04394	0f bf 94 01 44
	01 00 00	 movsx	 edx, WORD PTR [ecx+eax+324]
  0439c	52		 push	 edx
  0439d	8b 45 f4	 mov	 eax, DWORD PTR _loc3$234487[ebp]
  043a0	69 c0 38 2b 00
	00		 imul	 eax, 11064		; 00002b38H
  043a6	8b 0d 00 00 00
	00		 mov	 ecx, DWORD PTR ?gObj@@3PAUOBJECTSTRUCT@@A ; gObj
  043ac	0f b6 94 01 49
	01 00 00	 movzx	 edx, BYTE PTR [ecx+eax+329]
  043b4	52		 push	 edx
  043b5	8b 45 f4	 mov	 eax, DWORD PTR _loc3$234487[ebp]
  043b8	69 c0 38 2b 00
	00		 imul	 eax, 11064		; 00002b38H
  043be	8b 0d 00 00 00
	00		 mov	 ecx, DWORD PTR ?gObj@@3PAUOBJECTSTRUCT@@A ; gObj
  043c4	8d 54 01 77	 lea	 edx, DWORD PTR [ecx+eax+119]
  043c8	52		 push	 edx
  043c9	8b 45 fc	 mov	 eax, DWORD PTR _this$[ebp]
  043cc	0f b6 88 2c 02
	00 00		 movzx	 ecx, BYTE PTR [eax+556]
  043d3	83 c1 01	 add	 ecx, 1
  043d6	51		 push	 ecx
  043d7	68 00 00 00 00	 push	 OFFSET ??_C@_0DP@JFMMMCDJ@?$FLIllusion?5Temple?$FN?5?$CI?$CFd?$CJ?5Create?5NP@
  043dc	ff 15 00 00 00
	00		 call	 DWORD PTR ?LogAddTD@@3P6AXPADZZA ; LogAddTD
  043e2	83 c4 18	 add	 esp, 24			; 00000018H

; 1509 : 		}
; 1510 : 		else

  043e5	eb 1c		 jmp	 SHORT $LN1@CreateNPCS
$LN2@CreateNPCS:

; 1511 : 		{
; 1512 : 			LogAddTD("[Illusion Temple] (%d) Add Status Error", this->m_btFloorIndex+1);

  043e7	8b 45 fc	 mov	 eax, DWORD PTR _this$[ebp]
  043ea	0f b6 88 2c 02
	00 00		 movzx	 ecx, BYTE PTR [eax+556]
  043f1	83 c1 01	 add	 ecx, 1
  043f4	51		 push	 ecx
  043f5	68 00 00 00 00	 push	 OFFSET ??_C@_0CI@MMAPFAFM@?$FLIllusion?5Temple?$FN?5?$CI?$CFd?$CJ?5Add?5Statu@
  043fa	ff 15 00 00 00
	00		 call	 DWORD PTR ?LogAddTD@@3P6AXPADZZA ; LogAddTD
  04400	83 c4 08	 add	 esp, 8
$LN1@CreateNPCS:

; 1513 : 		}
; 1514 : 	}

  04403	e9 6d fe ff ff	 jmp	 $LN4@CreateNPCS
$LN6@CreateNPCS:

; 1515 : }

  04408	5f		 pop	 edi
  04409	5e		 pop	 esi
  0440a	5b		 pop	 ebx
  0440b	8b e5		 mov	 esp, ebp
  0440d	5d		 pop	 ebp
  0440e	c3		 ret	 0
?CreateNPCStatus@CIllusionTempleProcess@@QAEXXZ ENDP	; CIllusionTempleProcess::CreateNPCStatus
_TEXT	ENDS
PUBLIC	??_C@_0DD@CJHIKDCG@?$FLIllusion?5Temple?$FN?5?$CI?$CFd?$CJ?5Add?5Illus@ ; `string'
PUBLIC	??_C@_0EK@PBPNIPFI@?$FLIllusion?5Temple?$FN?5?$CI?$CFd?$CJ?5Create?5NP@ ; `string'
PUBLIC	??_C@_0DB@DDAFNEAA@?$FLIllusion?5Temple?$FN?5?$CI?$CFd?$CJ?5Add?5Allie@ ; `string'
PUBLIC	??_C@_0EI@FFEIEJHB@?$FLIllusion?5Temple?$FN?5?$CI?$CFd?$CJ?5Create?5NP@ ; `string'
;	COMDAT ??_C@_0DD@CJHIKDCG@?$FLIllusion?5Temple?$FN?5?$CI?$CFd?$CJ?5Add?5Illus@
CONST	SEGMENT
??_C@_0DD@CJHIKDCG@?$FLIllusion?5Temple?$FN?5?$CI?$CFd?$CJ?5Add?5Illus@ DB '['
	DB	'Illusion Temple] (%d) Add IllusionRelicsBox Error', 00H ; `string'
CONST	ENDS
;	COMDAT ??_C@_0EK@PBPNIPFI@?$FLIllusion?5Temple?$FN?5?$CI?$CFd?$CJ?5Create?5NP@
CONST	SEGMENT
??_C@_0EK@PBPNIPFI@?$FLIllusion?5Temple?$FN?5?$CI?$CFd?$CJ?5Create?5NP@ DB '['
	DB	'Illusion Temple] (%d) Create NPC IllusionRelicsBox Name: %s, '
	DB	'(%d: %d/%d)', 00H				; `string'
CONST	ENDS
;	COMDAT ??_C@_0DB@DDAFNEAA@?$FLIllusion?5Temple?$FN?5?$CI?$CFd?$CJ?5Add?5Allie@
CONST	SEGMENT
??_C@_0DB@DDAFNEAA@?$FLIllusion?5Temple?$FN?5?$CI?$CFd?$CJ?5Add?5Allie@ DB '['
	DB	'Illusion Temple] (%d) Add AlliedRelicsBox Error', 00H ; `string'
CONST	ENDS
;	COMDAT ??_C@_0EI@FFEIEJHB@?$FLIllusion?5Temple?$FN?5?$CI?$CFd?$CJ?5Create?5NP@
CONST	SEGMENT
??_C@_0EI@FFEIEJHB@?$FLIllusion?5Temple?$FN?5?$CI?$CFd?$CJ?5Create?5NP@ DB '['
	DB	'Illusion Temple] (%d) Create NPC AlliedRelicsBox Name: %s, (%'
	DB	'd: %d/%d)', 00H				; `string'
; Function compile flags: /Odtp /ZI
CONST	ENDS
_TEXT	SEGMENT
_loc2$ = -8						; size = 4
_this$ = -4						; size = 4
?CreateNPC@CIllusionTempleProcess@@QAEXXZ PROC		; CIllusionTempleProcess::CreateNPC
; _this$ = ecx

; 1518 : {

  04410	55		 push	 ebp
  04411	8b ec		 mov	 ebp, esp
  04413	83 ec 48	 sub	 esp, 72			; 00000048H
  04416	53		 push	 ebx
  04417	56		 push	 esi
  04418	57		 push	 edi
  04419	89 4d fc	 mov	 DWORD PTR _this$[ebp], ecx

; 1519 : 	int loc2;
; 1520 : 
; 1521 : 	loc2 = gObjAddMonster(this->m_btFloorIndex+MAP_INDEX_ILLUSIONTEMPLE);

  0441c	8b 45 fc	 mov	 eax, DWORD PTR _this$[ebp]
  0441f	0f b6 88 2c 02
	00 00		 movzx	 ecx, BYTE PTR [eax+556]
  04426	83 c1 2d	 add	 ecx, 45			; 0000002dH
  04429	51		 push	 ecx
  0442a	e8 00 00 00 00	 call	 ?gObjAddMonster@@YAFH@Z	; gObjAddMonster
  0442f	83 c4 04	 add	 esp, 4
  04432	0f bf d0	 movsx	 edx, ax
  04435	89 55 f8	 mov	 DWORD PTR _loc2$[ebp], edx

; 1522 : 
; 1523 : 	if(loc2 >= 0)

  04438	83 7d f8 00	 cmp	 DWORD PTR _loc2$[ebp], 0
  0443c	0f 8c 24 01 00
	00		 jl	 $LN4@CreateNPC

; 1524 : 	{
; 1525 : 		::gObjSetPosMonster(loc2, this->m_sYellowPedestalPosition);

  04442	8b 45 fc	 mov	 eax, DWORD PTR _this$[ebp]
  04445	0f bf 88 44 02
	00 00		 movsx	 ecx, WORD PTR [eax+580]
  0444c	51		 push	 ecx
  0444d	8b 55 f8	 mov	 edx, DWORD PTR _loc2$[ebp]
  04450	52		 push	 edx
  04451	e8 00 00 00 00	 call	 ?gObjSetPosMonster@@YAHHH@Z ; gObjSetPosMonster
  04456	83 c4 08	 add	 esp, 8

; 1526 : 		::gObjSetMonster(loc2, 383);

  04459	68 7f 01 00 00	 push	 383			; 0000017fH
  0445e	8b 45 f8	 mov	 eax, DWORD PTR _loc2$[ebp]
  04461	50		 push	 eax
  04462	e8 00 00 00 00	 call	 ?gObjSetMonster@@YAHHH@Z ; gObjSetMonster
  04467	83 c4 08	 add	 esp, 8

; 1527 : 		gObj[loc2].Dir = 1;

  0446a	8b 45 f8	 mov	 eax, DWORD PTR _loc2$[ebp]
  0446d	69 c0 38 2b 00
	00		 imul	 eax, 11064		; 00002b38H
  04473	8b 0d 00 00 00
	00		 mov	 ecx, DWORD PTR ?gObj@@3PAUOBJECTSTRUCT@@A ; gObj
  04479	c6 84 01 48 01
	00 00 01	 mov	 BYTE PTR [ecx+eax+328], 1

; 1528 : 		gObj[loc2].m_PosNum = -1;

  04481	8b 45 f8	 mov	 eax, DWORD PTR _loc2$[ebp]
  04484	69 c0 38 2b 00
	00		 imul	 eax, 11064		; 00002b38H
  0448a	83 c9 ff	 or	 ecx, -1
  0448d	8b 15 00 00 00
	00		 mov	 edx, DWORD PTR ?gObj@@3PAUOBJECTSTRUCT@@A ; gObj
  04493	66 89 8c 02 b0
	03 00 00	 mov	 WORD PTR [edx+eax+944], cx

; 1529 : 		gObj[loc2].Live = 1;

  0449b	8b 45 f8	 mov	 eax, DWORD PTR _loc2$[ebp]
  0449e	69 c0 38 2b 00
	00		 imul	 eax, 11064		; 00002b38H
  044a4	8b 0d 00 00 00
	00		 mov	 ecx, DWORD PTR ?gObj@@3PAUOBJECTSTRUCT@@A ; gObj
  044aa	c6 44 01 6a 01	 mov	 BYTE PTR [ecx+eax+106], 1

; 1530 : 		gObj[loc2].DieRegen = 0;

  044af	8b 45 f8	 mov	 eax, DWORD PTR _loc2$[ebp]
  044b2	69 c0 38 2b 00
	00		 imul	 eax, 11064		; 00002b38H
  044b8	8b 0d 00 00 00
	00		 mov	 ecx, DWORD PTR ?gObj@@3PAUOBJECTSTRUCT@@A ; gObj
  044be	c6 84 01 a2 03
	00 00 00	 mov	 BYTE PTR [ecx+eax+930], 0

; 1531 : 		gObj[loc2].m_State = 1;

  044c6	8b 45 f8	 mov	 eax, DWORD PTR _loc2$[ebp]
  044c9	69 c0 38 2b 00
	00		 imul	 eax, 11064		; 00002b38H
  044cf	8b 0d 00 00 00
	00		 mov	 ecx, DWORD PTR ?gObj@@3PAUOBJECTSTRUCT@@A ; gObj
  044d5	c7 84 01 20 02
	00 00 01 00 00
	00		 mov	 DWORD PTR [ecx+eax+544], 1

; 1532 : 		this->m_iYellowPedestalIndex = loc2;

  044e0	8b 45 fc	 mov	 eax, DWORD PTR _this$[ebp]
  044e3	8b 4d f8	 mov	 ecx, DWORD PTR _loc2$[ebp]
  044e6	89 88 40 02 00
	00		 mov	 DWORD PTR [eax+576], ecx

; 1533 : 
; 1534 : 		LogAddTD("[Illusion Temple] (%d) Create NPC AlliedRelicsBox Name: %s, (%d: %d/%d)", this->m_btFloorIndex+1, gObj[loc2].Name, gObj[loc2].MapNumber, gObj[loc2].X, gObj[loc2].Y);

  044ec	8b 45 f8	 mov	 eax, DWORD PTR _loc2$[ebp]
  044ef	69 c0 38 2b 00
	00		 imul	 eax, 11064		; 00002b38H
  044f5	8b 0d 00 00 00
	00		 mov	 ecx, DWORD PTR ?gObj@@3PAUOBJECTSTRUCT@@A ; gObj
  044fb	0f bf 94 01 46
	01 00 00	 movsx	 edx, WORD PTR [ecx+eax+326]
  04503	52		 push	 edx
  04504	8b 45 f8	 mov	 eax, DWORD PTR _loc2$[ebp]
  04507	69 c0 38 2b 00
	00		 imul	 eax, 11064		; 00002b38H
  0450d	8b 0d 00 00 00
	00		 mov	 ecx, DWORD PTR ?gObj@@3PAUOBJECTSTRUCT@@A ; gObj
  04513	0f bf 94 01 44
	01 00 00	 movsx	 edx, WORD PTR [ecx+eax+324]
  0451b	52		 push	 edx
  0451c	8b 45 f8	 mov	 eax, DWORD PTR _loc2$[ebp]
  0451f	69 c0 38 2b 00
	00		 imul	 eax, 11064		; 00002b38H
  04525	8b 0d 00 00 00
	00		 mov	 ecx, DWORD PTR ?gObj@@3PAUOBJECTSTRUCT@@A ; gObj
  0452b	0f b6 94 01 49
	01 00 00	 movzx	 edx, BYTE PTR [ecx+eax+329]
  04533	52		 push	 edx
  04534	8b 45 f8	 mov	 eax, DWORD PTR _loc2$[ebp]
  04537	69 c0 38 2b 00
	00		 imul	 eax, 11064		; 00002b38H
  0453d	8b 0d 00 00 00
	00		 mov	 ecx, DWORD PTR ?gObj@@3PAUOBJECTSTRUCT@@A ; gObj
  04543	8d 54 01 77	 lea	 edx, DWORD PTR [ecx+eax+119]
  04547	52		 push	 edx
  04548	8b 45 fc	 mov	 eax, DWORD PTR _this$[ebp]
  0454b	0f b6 88 2c 02
	00 00		 movzx	 ecx, BYTE PTR [eax+556]
  04552	83 c1 01	 add	 ecx, 1
  04555	51		 push	 ecx
  04556	68 00 00 00 00	 push	 OFFSET ??_C@_0EI@FFEIEJHB@?$FLIllusion?5Temple?$FN?5?$CI?$CFd?$CJ?5Create?5NP@
  0455b	ff 15 00 00 00
	00		 call	 DWORD PTR ?LogAddTD@@3P6AXPADZZA ; LogAddTD
  04561	83 c4 18	 add	 esp, 24			; 00000018H

; 1535 : 	}
; 1536 : 	else

  04564	eb 1c		 jmp	 SHORT $LN3@CreateNPC
$LN4@CreateNPC:

; 1537 : 	{
; 1538 : 		LogAddTD("[Illusion Temple] (%d) Add AlliedRelicsBox Error", this->m_btFloorIndex+1);

  04566	8b 45 fc	 mov	 eax, DWORD PTR _this$[ebp]
  04569	0f b6 88 2c 02
	00 00		 movzx	 ecx, BYTE PTR [eax+556]
  04570	83 c1 01	 add	 ecx, 1
  04573	51		 push	 ecx
  04574	68 00 00 00 00	 push	 OFFSET ??_C@_0DB@DDAFNEAA@?$FLIllusion?5Temple?$FN?5?$CI?$CFd?$CJ?5Add?5Allie@
  04579	ff 15 00 00 00
	00		 call	 DWORD PTR ?LogAddTD@@3P6AXPADZZA ; LogAddTD
  0457f	83 c4 08	 add	 esp, 8
$LN3@CreateNPC:

; 1539 : 	}
; 1540 : 
; 1541 : 	loc2 = gObjAddMonster(this->m_btFloorIndex+MAP_INDEX_ILLUSIONTEMPLE);

  04582	8b 45 fc	 mov	 eax, DWORD PTR _this$[ebp]
  04585	0f b6 88 2c 02
	00 00		 movzx	 ecx, BYTE PTR [eax+556]
  0458c	83 c1 2d	 add	 ecx, 45			; 0000002dH
  0458f	51		 push	 ecx
  04590	e8 00 00 00 00	 call	 ?gObjAddMonster@@YAFH@Z	; gObjAddMonster
  04595	83 c4 04	 add	 esp, 4
  04598	0f bf d0	 movsx	 edx, ax
  0459b	89 55 f8	 mov	 DWORD PTR _loc2$[ebp], edx

; 1542 : 
; 1543 : 	if(loc2 >= 0)

  0459e	83 7d f8 00	 cmp	 DWORD PTR _loc2$[ebp], 0
  045a2	0f 8c 24 01 00
	00		 jl	 $LN2@CreateNPC

; 1544 : 	{
; 1545 : 		::gObjSetPosMonster(loc2, this->m_sBluePedestalPosition);

  045a8	8b 45 fc	 mov	 eax, DWORD PTR _this$[ebp]
  045ab	0f bf 88 4c 02
	00 00		 movsx	 ecx, WORD PTR [eax+588]
  045b2	51		 push	 ecx
  045b3	8b 55 f8	 mov	 edx, DWORD PTR _loc2$[ebp]
  045b6	52		 push	 edx
  045b7	e8 00 00 00 00	 call	 ?gObjSetPosMonster@@YAHHH@Z ; gObjSetPosMonster
  045bc	83 c4 08	 add	 esp, 8

; 1546 : 		::gObjSetMonster(loc2, 384);

  045bf	68 80 01 00 00	 push	 384			; 00000180H
  045c4	8b 45 f8	 mov	 eax, DWORD PTR _loc2$[ebp]
  045c7	50		 push	 eax
  045c8	e8 00 00 00 00	 call	 ?gObjSetMonster@@YAHHH@Z ; gObjSetMonster
  045cd	83 c4 08	 add	 esp, 8

; 1547 : 		gObj[loc2].Dir = 1;

  045d0	8b 45 f8	 mov	 eax, DWORD PTR _loc2$[ebp]
  045d3	69 c0 38 2b 00
	00		 imul	 eax, 11064		; 00002b38H
  045d9	8b 0d 00 00 00
	00		 mov	 ecx, DWORD PTR ?gObj@@3PAUOBJECTSTRUCT@@A ; gObj
  045df	c6 84 01 48 01
	00 00 01	 mov	 BYTE PTR [ecx+eax+328], 1

; 1548 : 		gObj[loc2].m_PosNum = -1;

  045e7	8b 45 f8	 mov	 eax, DWORD PTR _loc2$[ebp]
  045ea	69 c0 38 2b 00
	00		 imul	 eax, 11064		; 00002b38H
  045f0	83 c9 ff	 or	 ecx, -1
  045f3	8b 15 00 00 00
	00		 mov	 edx, DWORD PTR ?gObj@@3PAUOBJECTSTRUCT@@A ; gObj
  045f9	66 89 8c 02 b0
	03 00 00	 mov	 WORD PTR [edx+eax+944], cx

; 1549 : 		gObj[loc2].Live = 1;

  04601	8b 45 f8	 mov	 eax, DWORD PTR _loc2$[ebp]
  04604	69 c0 38 2b 00
	00		 imul	 eax, 11064		; 00002b38H
  0460a	8b 0d 00 00 00
	00		 mov	 ecx, DWORD PTR ?gObj@@3PAUOBJECTSTRUCT@@A ; gObj
  04610	c6 44 01 6a 01	 mov	 BYTE PTR [ecx+eax+106], 1

; 1550 : 		gObj[loc2].DieRegen = 0;

  04615	8b 45 f8	 mov	 eax, DWORD PTR _loc2$[ebp]
  04618	69 c0 38 2b 00
	00		 imul	 eax, 11064		; 00002b38H
  0461e	8b 0d 00 00 00
	00		 mov	 ecx, DWORD PTR ?gObj@@3PAUOBJECTSTRUCT@@A ; gObj
  04624	c6 84 01 a2 03
	00 00 00	 mov	 BYTE PTR [ecx+eax+930], 0

; 1551 : 		gObj[loc2].m_State = 1;

  0462c	8b 45 f8	 mov	 eax, DWORD PTR _loc2$[ebp]
  0462f	69 c0 38 2b 00
	00		 imul	 eax, 11064		; 00002b38H
  04635	8b 0d 00 00 00
	00		 mov	 ecx, DWORD PTR ?gObj@@3PAUOBJECTSTRUCT@@A ; gObj
  0463b	c7 84 01 20 02
	00 00 01 00 00
	00		 mov	 DWORD PTR [ecx+eax+544], 1

; 1552 : 		this->m_iBluePedestalIndex = loc2;

  04646	8b 45 fc	 mov	 eax, DWORD PTR _this$[ebp]
  04649	8b 4d f8	 mov	 ecx, DWORD PTR _loc2$[ebp]
  0464c	89 88 48 02 00
	00		 mov	 DWORD PTR [eax+584], ecx

; 1553 : 
; 1554 : 		LogAddTD("[Illusion Temple] (%d) Create NPC IllusionRelicsBox Name: %s, (%d: %d/%d)", this->m_btFloorIndex+1, gObj[loc2].Name, gObj[loc2].MapNumber, gObj[loc2].X, gObj[loc2].Y);

  04652	8b 45 f8	 mov	 eax, DWORD PTR _loc2$[ebp]
  04655	69 c0 38 2b 00
	00		 imul	 eax, 11064		; 00002b38H
  0465b	8b 0d 00 00 00
	00		 mov	 ecx, DWORD PTR ?gObj@@3PAUOBJECTSTRUCT@@A ; gObj
  04661	0f bf 94 01 46
	01 00 00	 movsx	 edx, WORD PTR [ecx+eax+326]
  04669	52		 push	 edx
  0466a	8b 45 f8	 mov	 eax, DWORD PTR _loc2$[ebp]
  0466d	69 c0 38 2b 00
	00		 imul	 eax, 11064		; 00002b38H
  04673	8b 0d 00 00 00
	00		 mov	 ecx, DWORD PTR ?gObj@@3PAUOBJECTSTRUCT@@A ; gObj
  04679	0f bf 94 01 44
	01 00 00	 movsx	 edx, WORD PTR [ecx+eax+324]
  04681	52		 push	 edx
  04682	8b 45 f8	 mov	 eax, DWORD PTR _loc2$[ebp]
  04685	69 c0 38 2b 00
	00		 imul	 eax, 11064		; 00002b38H
  0468b	8b 0d 00 00 00
	00		 mov	 ecx, DWORD PTR ?gObj@@3PAUOBJECTSTRUCT@@A ; gObj
  04691	0f b6 94 01 49
	01 00 00	 movzx	 edx, BYTE PTR [ecx+eax+329]
  04699	52		 push	 edx
  0469a	8b 45 f8	 mov	 eax, DWORD PTR _loc2$[ebp]
  0469d	69 c0 38 2b 00
	00		 imul	 eax, 11064		; 00002b38H
  046a3	8b 0d 00 00 00
	00		 mov	 ecx, DWORD PTR ?gObj@@3PAUOBJECTSTRUCT@@A ; gObj
  046a9	8d 54 01 77	 lea	 edx, DWORD PTR [ecx+eax+119]
  046ad	52		 push	 edx
  046ae	8b 45 fc	 mov	 eax, DWORD PTR _this$[ebp]
  046b1	0f b6 88 2c 02
	00 00		 movzx	 ecx, BYTE PTR [eax+556]
  046b8	83 c1 01	 add	 ecx, 1
  046bb	51		 push	 ecx
  046bc	68 00 00 00 00	 push	 OFFSET ??_C@_0EK@PBPNIPFI@?$FLIllusion?5Temple?$FN?5?$CI?$CFd?$CJ?5Create?5NP@
  046c1	ff 15 00 00 00
	00		 call	 DWORD PTR ?LogAddTD@@3P6AXPADZZA ; LogAddTD
  046c7	83 c4 18	 add	 esp, 24			; 00000018H

; 1555 : 	}
; 1556 : 	else

  046ca	eb 1c		 jmp	 SHORT $LN5@CreateNPC
$LN2@CreateNPC:

; 1557 : 	{
; 1558 : 		LogAddTD("[Illusion Temple] (%d) Add IllusionRelicsBox Error", this->m_btFloorIndex+1);

  046cc	8b 45 fc	 mov	 eax, DWORD PTR _this$[ebp]
  046cf	0f b6 88 2c 02
	00 00		 movzx	 ecx, BYTE PTR [eax+556]
  046d6	83 c1 01	 add	 ecx, 1
  046d9	51		 push	 ecx
  046da	68 00 00 00 00	 push	 OFFSET ??_C@_0DD@CJHIKDCG@?$FLIllusion?5Temple?$FN?5?$CI?$CFd?$CJ?5Add?5Illus@
  046df	ff 15 00 00 00
	00		 call	 DWORD PTR ?LogAddTD@@3P6AXPADZZA ; LogAddTD
  046e5	83 c4 08	 add	 esp, 8
$LN5@CreateNPC:

; 1559 : 	}
; 1560 : }

  046e8	5f		 pop	 edi
  046e9	5e		 pop	 esi
  046ea	5b		 pop	 ebx
  046eb	8b e5		 mov	 esp, ebp
  046ed	5d		 pop	 ebp
  046ee	c3		 ret	 0
?CreateNPC@CIllusionTempleProcess@@QAEXXZ ENDP		; CIllusionTempleProcess::CreateNPC
_TEXT	ENDS
PUBLIC	??_C@_0CJ@ILDHLMNE@?$FLIllusion?5Temple?$FN?5?$CI?$CFd?$CJ?5Add?5Monst@ ; `string'
EXTRN	?gMSetBase@@3VCMonsterSetBase@@A:BYTE		; gMSetBase
;	COMDAT ??_C@_0CJ@ILDHLMNE@?$FLIllusion?5Temple?$FN?5?$CI?$CFd?$CJ?5Add?5Monst@
CONST	SEGMENT
??_C@_0CJ@ILDHLMNE@?$FLIllusion?5Temple?$FN?5?$CI?$CFd?$CJ?5Add?5Monst@ DB '['
	DB	'Illusion Temple] (%d) Add Monster Error', 00H ; `string'
; Function compile flags: /Odtp /ZI
CONST	ENDS
_TEXT	SEGMENT
_loc3$234511 = -12					; size = 4
_i$234507 = -8						; size = 4
_this$ = -4						; size = 4
?CreateMonsterToBattle@CIllusionTempleProcess@@QAEXXZ PROC ; CIllusionTempleProcess::CreateMonsterToBattle
; _this$ = ecx

; 1563 : {

  046f0	55		 push	 ebp
  046f1	8b ec		 mov	 ebp, esp
  046f3	83 ec 4c	 sub	 esp, 76			; 0000004cH
  046f6	53		 push	 ebx
  046f7	56		 push	 esi
  046f8	57		 push	 edi
  046f9	89 4d fc	 mov	 DWORD PTR _this$[ebp], ecx

; 1564 : 	for( int i = 0; i < this->m_iMonsterCount; i++)

  046fc	c7 45 f8 00 00
	00 00		 mov	 DWORD PTR _i$234507[ebp], 0
  04703	eb 09		 jmp	 SHORT $LN5@CreateMons
$LN4@CreateMons:
  04705	8b 45 f8	 mov	 eax, DWORD PTR _i$234507[ebp]
  04708	83 c0 01	 add	 eax, 1
  0470b	89 45 f8	 mov	 DWORD PTR _i$234507[ebp], eax
$LN5@CreateMons:
  0470e	8b 45 fc	 mov	 eax, DWORD PTR _this$[ebp]
  04711	8b 4d f8	 mov	 ecx, DWORD PTR _i$234507[ebp]
  04714	3b 88 c4 03 00
	00		 cmp	 ecx, DWORD PTR [eax+964]
  0471a	0f 8d 2b 01 00
	00		 jge	 $LN6@CreateMons

; 1565 : 	{
; 1566 : 		int loc3 = gObjAddMonster(this->m_btFloorIndex+MAP_INDEX_ILLUSIONTEMPLE);

  04720	8b 45 fc	 mov	 eax, DWORD PTR _this$[ebp]
  04723	0f b6 88 2c 02
	00 00		 movzx	 ecx, BYTE PTR [eax+556]
  0472a	83 c1 2d	 add	 ecx, 45			; 0000002dH
  0472d	51		 push	 ecx
  0472e	e8 00 00 00 00	 call	 ?gObjAddMonster@@YAFH@Z	; gObjAddMonster
  04733	83 c4 04	 add	 esp, 4
  04736	0f bf d0	 movsx	 edx, ax
  04739	89 55 f4	 mov	 DWORD PTR _loc3$234511[ebp], edx

; 1567 : 
; 1568 : 		if(loc3 >= 0)

  0473c	83 7d f4 00	 cmp	 DWORD PTR _loc3$234511[ebp], 0
  04740	0f 8c e4 00 00
	00		 jl	 $LN2@CreateMons

; 1569 : 		{
; 1570 : 			::gObjSetPosMonster(loc3, this->m_MonsterData[i].m_sMonsterPosition);

  04746	8b 45 f8	 mov	 eax, DWORD PTR _i$234507[ebp]
  04749	8b 4d fc	 mov	 ecx, DWORD PTR _this$[ebp]
  0474c	0f bf 94 c1 54
	02 00 00	 movsx	 edx, WORD PTR [ecx+eax*8+596]
  04754	52		 push	 edx
  04755	8b 45 f4	 mov	 eax, DWORD PTR _loc3$234511[ebp]
  04758	50		 push	 eax
  04759	e8 00 00 00 00	 call	 ?gObjSetPosMonster@@YAHHH@Z ; gObjSetPosMonster
  0475e	83 c4 08	 add	 esp, 8

; 1571 : 			::gObjSetMonster(loc3, gMSetBase.m_Mp[this->m_MonsterData[i].m_sMonsterPosition].m_Type);

  04761	8b 45 f8	 mov	 eax, DWORD PTR _i$234507[ebp]
  04764	8b 4d fc	 mov	 ecx, DWORD PTR _this$[ebp]
  04767	0f bf 94 c1 54
	02 00 00	 movsx	 edx, WORD PTR [ecx+eax*8+596]
  0476f	c1 e2 04	 shl	 edx, 4
  04772	0f b7 82 06 00
	00 00		 movzx	 eax, WORD PTR ?gMSetBase@@3VCMonsterSetBase@@A[edx+6]
  04779	50		 push	 eax
  0477a	8b 4d f4	 mov	 ecx, DWORD PTR _loc3$234511[ebp]
  0477d	51		 push	 ecx
  0477e	e8 00 00 00 00	 call	 ?gObjSetMonster@@YAHHH@Z ; gObjSetMonster
  04783	83 c4 08	 add	 esp, 8

; 1572 : 			gObj[loc3].Dir = 1;

  04786	8b 45 f4	 mov	 eax, DWORD PTR _loc3$234511[ebp]
  04789	69 c0 38 2b 00
	00		 imul	 eax, 11064		; 00002b38H
  0478f	8b 0d 00 00 00
	00		 mov	 ecx, DWORD PTR ?gObj@@3PAUOBJECTSTRUCT@@A ; gObj
  04795	c6 84 01 48 01
	00 00 01	 mov	 BYTE PTR [ecx+eax+328], 1

; 1573 : 			gObj[loc3].m_PosNum = -1;

  0479d	8b 45 f4	 mov	 eax, DWORD PTR _loc3$234511[ebp]
  047a0	69 c0 38 2b 00
	00		 imul	 eax, 11064		; 00002b38H
  047a6	83 c9 ff	 or	 ecx, -1
  047a9	8b 15 00 00 00
	00		 mov	 edx, DWORD PTR ?gObj@@3PAUOBJECTSTRUCT@@A ; gObj
  047af	66 89 8c 02 b0
	03 00 00	 mov	 WORD PTR [edx+eax+944], cx

; 1574 : 			gObj[loc3].Live = 0;

  047b7	8b 45 f4	 mov	 eax, DWORD PTR _loc3$234511[ebp]
  047ba	69 c0 38 2b 00
	00		 imul	 eax, 11064		; 00002b38H
  047c0	8b 0d 00 00 00
	00		 mov	 ecx, DWORD PTR ?gObj@@3PAUOBJECTSTRUCT@@A ; gObj
  047c6	c6 44 01 6a 00	 mov	 BYTE PTR [ecx+eax+106], 0

; 1575 : 			gObj[loc3].DieRegen = 0;

  047cb	8b 45 f4	 mov	 eax, DWORD PTR _loc3$234511[ebp]
  047ce	69 c0 38 2b 00
	00		 imul	 eax, 11064		; 00002b38H
  047d4	8b 0d 00 00 00
	00		 mov	 ecx, DWORD PTR ?gObj@@3PAUOBJECTSTRUCT@@A ; gObj
  047da	c6 84 01 a2 03
	00 00 00	 mov	 BYTE PTR [ecx+eax+930], 0

; 1576 : 			gObj[loc3].m_State = 4;

  047e2	8b 45 f4	 mov	 eax, DWORD PTR _loc3$234511[ebp]
  047e5	69 c0 38 2b 00
	00		 imul	 eax, 11064		; 00002b38H
  047eb	8b 0d 00 00 00
	00		 mov	 ecx, DWORD PTR ?gObj@@3PAUOBJECTSTRUCT@@A ; gObj
  047f1	c7 84 01 20 02
	00 00 04 00 00
	00		 mov	 DWORD PTR [ecx+eax+544], 4

; 1577 : 			gObj[loc3].RegenTime = GetTickCount();

  047fc	ff 15 00 00 00
	00		 call	 DWORD PTR __imp__GetTickCount@0
  04802	8b 4d f4	 mov	 ecx, DWORD PTR _loc3$234511[ebp]
  04805	69 c9 38 2b 00
	00		 imul	 ecx, 11064		; 00002b38H
  0480b	8b 15 00 00 00
	00		 mov	 edx, DWORD PTR ?gObj@@3PAUOBJECTSTRUCT@@A ; gObj
  04811	89 84 0a a8 03
	00 00		 mov	 DWORD PTR [edx+ecx+936], eax

; 1578 : 			this->m_MonsterData[i].m_iMonsterIndex = loc3;

  04818	8b 45 f8	 mov	 eax, DWORD PTR _i$234507[ebp]
  0481b	8b 4d fc	 mov	 ecx, DWORD PTR _this$[ebp]
  0481e	8b 55 f4	 mov	 edx, DWORD PTR _loc3$234511[ebp]
  04821	89 94 c1 50 02
	00 00		 mov	 DWORD PTR [ecx+eax*8+592], edx

; 1579 : 		}
; 1580 : 		else

  04828	eb 1c		 jmp	 SHORT $LN1@CreateMons
$LN2@CreateMons:

; 1581 : 		{
; 1582 : 			LogAddTD("[Illusion Temple] (%d) Add Monster Error", this->m_btFloorIndex+1);

  0482a	8b 45 fc	 mov	 eax, DWORD PTR _this$[ebp]
  0482d	0f b6 88 2c 02
	00 00		 movzx	 ecx, BYTE PTR [eax+556]
  04834	83 c1 01	 add	 ecx, 1
  04837	51		 push	 ecx
  04838	68 00 00 00 00	 push	 OFFSET ??_C@_0CJ@ILDHLMNE@?$FLIllusion?5Temple?$FN?5?$CI?$CFd?$CJ?5Add?5Monst@
  0483d	ff 15 00 00 00
	00		 call	 DWORD PTR ?LogAddTD@@3P6AXPADZZA ; LogAddTD
  04843	83 c4 08	 add	 esp, 8
$LN1@CreateMons:

; 1583 : 		}
; 1584 : 	}

  04846	e9 ba fe ff ff	 jmp	 $LN4@CreateMons
$LN6@CreateMons:

; 1585 : }

  0484b	5f		 pop	 edi
  0484c	5e		 pop	 esi
  0484d	5b		 pop	 ebx
  0484e	8b e5		 mov	 esp, ebp
  04850	5d		 pop	 ebp
  04851	c3		 ret	 0
?CreateMonsterToBattle@CIllusionTempleProcess@@QAEXXZ ENDP ; CIllusionTempleProcess::CreateMonsterToBattle
_TEXT	ENDS
PUBLIC	??_C@_0CJ@NGMJKIGG@?$FLIllusion?5Temple?$FN?5?$CI?$CFd?$CJ?5Remove?5Al@ ; `string'
PUBLIC	??_C@_0EF@COBKKPEE@?$FLIllusion?5Temple?$FN?5?$CI?$CFd?$CJ?5RemoveIll@ ; `string'
PUBLIC	??_C@_0ED@JCDEDHOA@?$FLIllusion?5Temple?$FN?5?$CI?$CFd?$CJ?5RemoveAll@ ; `string'
PUBLIC	??_C@_0DK@GOBHOKIP@?$FLIllusion?5Temple?$FN?5?$CI?$CFd?$CJ?5RemoveSta@ ; `string'
EXTRN	?gObjDel@@YAFH@Z:PROC				; gObjDel
;	COMDAT ??_C@_0CJ@NGMJKIGG@?$FLIllusion?5Temple?$FN?5?$CI?$CFd?$CJ?5Remove?5Al@
CONST	SEGMENT
??_C@_0CJ@NGMJKIGG@?$FLIllusion?5Temple?$FN?5?$CI?$CFd?$CJ?5Remove?5Al@ DB '['
	DB	'Illusion Temple] (%d) Remove All Object', 00H ; `string'
CONST	ENDS
;	COMDAT ??_C@_0EF@COBKKPEE@?$FLIllusion?5Temple?$FN?5?$CI?$CFd?$CJ?5RemoveIll@
CONST	SEGMENT
??_C@_0EF@COBKKPEE@?$FLIllusion?5Temple?$FN?5?$CI?$CFd?$CJ?5RemoveIll@ DB '['
	DB	'Illusion Temple] (%d) RemoveIllusionRelicsBox Name: %s, (%d: '
	DB	'%d/%d)', 00H				; `string'
CONST	ENDS
;	COMDAT ??_C@_0ED@JCDEDHOA@?$FLIllusion?5Temple?$FN?5?$CI?$CFd?$CJ?5RemoveAll@
CONST	SEGMENT
??_C@_0ED@JCDEDHOA@?$FLIllusion?5Temple?$FN?5?$CI?$CFd?$CJ?5RemoveAll@ DB '['
	DB	'Illusion Temple] (%d) RemoveAlliedRelicsBox Name: %s, (%d: %d'
	DB	'/%d)', 00H					; `string'
CONST	ENDS
;	COMDAT ??_C@_0DK@GOBHOKIP@?$FLIllusion?5Temple?$FN?5?$CI?$CFd?$CJ?5RemoveSta@
CONST	SEGMENT
??_C@_0DK@GOBHOKIP@?$FLIllusion?5Temple?$FN?5?$CI?$CFd?$CJ?5RemoveSta@ DB '['
	DB	'Illusion Temple] (%d) RemoveStatus Name: %s, (%d: %d/%d)', 00H ; `string'
; Function compile flags: /Odtp /ZI
CONST	ENDS
_TEXT	SEGMENT
_i$ = -8						; size = 4
_this$ = -4						; size = 4
?ClearAllBattleObjects@CIllusionTempleProcess@@QAEXXZ PROC ; CIllusionTempleProcess::ClearAllBattleObjects
; _this$ = ecx

; 1588 : {

  04860	55		 push	 ebp
  04861	8b ec		 mov	 ebp, esp
  04863	83 ec 48	 sub	 esp, 72			; 00000048H
  04866	53		 push	 ebx
  04867	56		 push	 esi
  04868	57		 push	 edi
  04869	89 4d fc	 mov	 DWORD PTR _this$[ebp], ecx

; 1589 : 	int i;
; 1590 : 
; 1591 : 	for(i = 0; i < this->m_iStatueCount; i++)

  0486c	c7 45 f8 00 00
	00 00		 mov	 DWORD PTR _i$[ebp], 0
  04873	eb 09		 jmp	 SHORT $LN10@ClearAllBa
$LN9@ClearAllBa:
  04875	8b 45 f8	 mov	 eax, DWORD PTR _i$[ebp]
  04878	83 c0 01	 add	 eax, 1
  0487b	89 45 f8	 mov	 DWORD PTR _i$[ebp], eax
$LN10@ClearAllBa:
  0487e	8b 45 fc	 mov	 eax, DWORD PTR _this$[ebp]
  04881	8b 4d f8	 mov	 ecx, DWORD PTR _i$[ebp]
  04884	3b 88 c0 03 00
	00		 cmp	 ecx, DWORD PTR [eax+960]
  0488a	0f 8d de 00 00
	00		 jge	 $LN8@ClearAllBa

; 1592 : 	{
; 1593 : 		if(this->m_StatueData[i].m_iStatueIndex != -1)

  04890	8b 45 f8	 mov	 eax, DWORD PTR _i$[ebp]
  04893	8b 4d fc	 mov	 ecx, DWORD PTR _this$[ebp]
  04896	83 bc c1 30 02
	00 00 ff	 cmp	 DWORD PTR [ecx+eax*8+560], -1
  0489e	0f 84 c5 00 00
	00		 je	 $LN7@ClearAllBa

; 1594 : 		{
; 1595 : 			LogAddTD("[Illusion Temple] (%d) RemoveStatus Name: %s, (%d: %d/%d)",this->m_btFloorIndex+1, gObj[this->m_StatueData[i].m_iStatueIndex].Name, gObj[this->m_StatueData[i].m_iStatueIndex].MapNumber, gObj[this->m_StatueData[i].m_iStatueIndex].X, gObj[this->m_StatueData[i].m_iStatueIndex].Y);

  048a4	8b 45 f8	 mov	 eax, DWORD PTR _i$[ebp]
  048a7	8b 4d fc	 mov	 ecx, DWORD PTR _this$[ebp]
  048aa	8b 94 c1 30 02
	00 00		 mov	 edx, DWORD PTR [ecx+eax*8+560]
  048b1	69 d2 38 2b 00
	00		 imul	 edx, 11064		; 00002b38H
  048b7	a1 00 00 00 00	 mov	 eax, DWORD PTR ?gObj@@3PAUOBJECTSTRUCT@@A ; gObj
  048bc	0f bf 8c 10 46
	01 00 00	 movsx	 ecx, WORD PTR [eax+edx+326]
  048c4	51		 push	 ecx
  048c5	8b 55 f8	 mov	 edx, DWORD PTR _i$[ebp]
  048c8	8b 45 fc	 mov	 eax, DWORD PTR _this$[ebp]
  048cb	8b 8c d0 30 02
	00 00		 mov	 ecx, DWORD PTR [eax+edx*8+560]
  048d2	69 c9 38 2b 00
	00		 imul	 ecx, 11064		; 00002b38H
  048d8	8b 15 00 00 00
	00		 mov	 edx, DWORD PTR ?gObj@@3PAUOBJECTSTRUCT@@A ; gObj
  048de	0f bf 84 0a 44
	01 00 00	 movsx	 eax, WORD PTR [edx+ecx+324]
  048e6	50		 push	 eax
  048e7	8b 4d f8	 mov	 ecx, DWORD PTR _i$[ebp]
  048ea	8b 55 fc	 mov	 edx, DWORD PTR _this$[ebp]
  048ed	8b 84 ca 30 02
	00 00		 mov	 eax, DWORD PTR [edx+ecx*8+560]
  048f4	69 c0 38 2b 00
	00		 imul	 eax, 11064		; 00002b38H
  048fa	8b 0d 00 00 00
	00		 mov	 ecx, DWORD PTR ?gObj@@3PAUOBJECTSTRUCT@@A ; gObj
  04900	0f b6 94 01 49
	01 00 00	 movzx	 edx, BYTE PTR [ecx+eax+329]
  04908	52		 push	 edx
  04909	8b 45 f8	 mov	 eax, DWORD PTR _i$[ebp]
  0490c	8b 4d fc	 mov	 ecx, DWORD PTR _this$[ebp]
  0490f	8b 94 c1 30 02
	00 00		 mov	 edx, DWORD PTR [ecx+eax*8+560]
  04916	69 d2 38 2b 00
	00		 imul	 edx, 11064		; 00002b38H
  0491c	a1 00 00 00 00	 mov	 eax, DWORD PTR ?gObj@@3PAUOBJECTSTRUCT@@A ; gObj
  04921	8d 4c 10 77	 lea	 ecx, DWORD PTR [eax+edx+119]
  04925	51		 push	 ecx
  04926	8b 55 fc	 mov	 edx, DWORD PTR _this$[ebp]
  04929	0f b6 82 2c 02
	00 00		 movzx	 eax, BYTE PTR [edx+556]
  04930	83 c0 01	 add	 eax, 1
  04933	50		 push	 eax
  04934	68 00 00 00 00	 push	 OFFSET ??_C@_0DK@GOBHOKIP@?$FLIllusion?5Temple?$FN?5?$CI?$CFd?$CJ?5RemoveSta@
  04939	ff 15 00 00 00
	00		 call	 DWORD PTR ?LogAddTD@@3P6AXPADZZA ; LogAddTD
  0493f	83 c4 18	 add	 esp, 24			; 00000018H

; 1596 : 			gObjDel(this->m_StatueData[i].m_iStatueIndex);

  04942	8b 45 f8	 mov	 eax, DWORD PTR _i$[ebp]
  04945	8b 4d fc	 mov	 ecx, DWORD PTR _this$[ebp]
  04948	8b 94 c1 30 02
	00 00		 mov	 edx, DWORD PTR [ecx+eax*8+560]
  0494f	52		 push	 edx
  04950	e8 00 00 00 00	 call	 ?gObjDel@@YAFH@Z	; gObjDel
  04955	83 c4 04	 add	 esp, 4

; 1597 : 			this->m_StatueData[i].m_iStatueIndex = -1;

  04958	8b 45 f8	 mov	 eax, DWORD PTR _i$[ebp]
  0495b	8b 4d fc	 mov	 ecx, DWORD PTR _this$[ebp]
  0495e	c7 84 c1 30 02
	00 00 ff ff ff
	ff		 mov	 DWORD PTR [ecx+eax*8+560], -1
$LN7@ClearAllBa:

; 1598 : 		}
; 1599 : 	}

  04969	e9 07 ff ff ff	 jmp	 $LN9@ClearAllBa
$LN8@ClearAllBa:

; 1600 : 
; 1601 : 	if(this->m_iYellowPedestalIndex != -1)

  0496e	8b 45 fc	 mov	 eax, DWORD PTR _this$[ebp]
  04971	83 b8 40 02 00
	00 ff		 cmp	 DWORD PTR [eax+576], -1
  04978	0f 84 ae 00 00
	00		 je	 $LN6@ClearAllBa

; 1602 : 	{
; 1603 : 		LogAddTD("[Illusion Temple] (%d) RemoveAlliedRelicsBox Name: %s, (%d: %d/%d)",this->m_btFloorIndex+1, gObj[this->m_iYellowPedestalIndex].Name, gObj[this->m_iYellowPedestalIndex].MapNumber, gObj[this->m_iYellowPedestalIndex].X, gObj[this->m_iYellowPedestalIndex].Y);

  0497e	8b 45 fc	 mov	 eax, DWORD PTR _this$[ebp]
  04981	8b 88 40 02 00
	00		 mov	 ecx, DWORD PTR [eax+576]
  04987	69 c9 38 2b 00
	00		 imul	 ecx, 11064		; 00002b38H
  0498d	8b 15 00 00 00
	00		 mov	 edx, DWORD PTR ?gObj@@3PAUOBJECTSTRUCT@@A ; gObj
  04993	0f bf 84 0a 46
	01 00 00	 movsx	 eax, WORD PTR [edx+ecx+326]
  0499b	50		 push	 eax
  0499c	8b 4d fc	 mov	 ecx, DWORD PTR _this$[ebp]
  0499f	8b 91 40 02 00
	00		 mov	 edx, DWORD PTR [ecx+576]
  049a5	69 d2 38 2b 00
	00		 imul	 edx, 11064		; 00002b38H
  049ab	a1 00 00 00 00	 mov	 eax, DWORD PTR ?gObj@@3PAUOBJECTSTRUCT@@A ; gObj
  049b0	0f bf 8c 10 44
	01 00 00	 movsx	 ecx, WORD PTR [eax+edx+324]
  049b8	51		 push	 ecx
  049b9	8b 55 fc	 mov	 edx, DWORD PTR _this$[ebp]
  049bc	8b 82 40 02 00
	00		 mov	 eax, DWORD PTR [edx+576]
  049c2	69 c0 38 2b 00
	00		 imul	 eax, 11064		; 00002b38H
  049c8	8b 0d 00 00 00
	00		 mov	 ecx, DWORD PTR ?gObj@@3PAUOBJECTSTRUCT@@A ; gObj
  049ce	0f b6 94 01 49
	01 00 00	 movzx	 edx, BYTE PTR [ecx+eax+329]
  049d6	52		 push	 edx
  049d7	8b 45 fc	 mov	 eax, DWORD PTR _this$[ebp]
  049da	8b 88 40 02 00
	00		 mov	 ecx, DWORD PTR [eax+576]
  049e0	69 c9 38 2b 00
	00		 imul	 ecx, 11064		; 00002b38H
  049e6	8b 15 00 00 00
	00		 mov	 edx, DWORD PTR ?gObj@@3PAUOBJECTSTRUCT@@A ; gObj
  049ec	8d 44 0a 77	 lea	 eax, DWORD PTR [edx+ecx+119]
  049f0	50		 push	 eax
  049f1	8b 4d fc	 mov	 ecx, DWORD PTR _this$[ebp]
  049f4	0f b6 91 2c 02
	00 00		 movzx	 edx, BYTE PTR [ecx+556]
  049fb	83 c2 01	 add	 edx, 1
  049fe	52		 push	 edx
  049ff	68 00 00 00 00	 push	 OFFSET ??_C@_0ED@JCDEDHOA@?$FLIllusion?5Temple?$FN?5?$CI?$CFd?$CJ?5RemoveAll@
  04a04	ff 15 00 00 00
	00		 call	 DWORD PTR ?LogAddTD@@3P6AXPADZZA ; LogAddTD
  04a0a	83 c4 18	 add	 esp, 24			; 00000018H

; 1604 : 		gObjDel(this->m_iYellowPedestalIndex);

  04a0d	8b 45 fc	 mov	 eax, DWORD PTR _this$[ebp]
  04a10	8b 88 40 02 00
	00		 mov	 ecx, DWORD PTR [eax+576]
  04a16	51		 push	 ecx
  04a17	e8 00 00 00 00	 call	 ?gObjDel@@YAFH@Z	; gObjDel
  04a1c	83 c4 04	 add	 esp, 4

; 1605 : 		this->m_iYellowPedestalIndex = -1;

  04a1f	8b 45 fc	 mov	 eax, DWORD PTR _this$[ebp]
  04a22	c7 80 40 02 00
	00 ff ff ff ff	 mov	 DWORD PTR [eax+576], -1
$LN6@ClearAllBa:

; 1606 : 	}
; 1607 : 
; 1608 : 	if(this->m_iBluePedestalIndex != -1)

  04a2c	8b 45 fc	 mov	 eax, DWORD PTR _this$[ebp]
  04a2f	83 b8 48 02 00
	00 ff		 cmp	 DWORD PTR [eax+584], -1
  04a36	0f 84 ae 00 00
	00		 je	 $LN5@ClearAllBa

; 1609 : 	{
; 1610 : 		LogAddTD("[Illusion Temple] (%d) RemoveIllusionRelicsBox Name: %s, (%d: %d/%d)",this->m_btFloorIndex+1, gObj[this->m_iBluePedestalIndex].Name, gObj[this->m_iBluePedestalIndex].MapNumber, gObj[this->m_iBluePedestalIndex].X, gObj[this->m_iBluePedestalIndex].Y);

  04a3c	8b 45 fc	 mov	 eax, DWORD PTR _this$[ebp]
  04a3f	8b 88 48 02 00
	00		 mov	 ecx, DWORD PTR [eax+584]
  04a45	69 c9 38 2b 00
	00		 imul	 ecx, 11064		; 00002b38H
  04a4b	8b 15 00 00 00
	00		 mov	 edx, DWORD PTR ?gObj@@3PAUOBJECTSTRUCT@@A ; gObj
  04a51	0f bf 84 0a 46
	01 00 00	 movsx	 eax, WORD PTR [edx+ecx+326]
  04a59	50		 push	 eax
  04a5a	8b 4d fc	 mov	 ecx, DWORD PTR _this$[ebp]
  04a5d	8b 91 48 02 00
	00		 mov	 edx, DWORD PTR [ecx+584]
  04a63	69 d2 38 2b 00
	00		 imul	 edx, 11064		; 00002b38H
  04a69	a1 00 00 00 00	 mov	 eax, DWORD PTR ?gObj@@3PAUOBJECTSTRUCT@@A ; gObj
  04a6e	0f bf 8c 10 44
	01 00 00	 movsx	 ecx, WORD PTR [eax+edx+324]
  04a76	51		 push	 ecx
  04a77	8b 55 fc	 mov	 edx, DWORD PTR _this$[ebp]
  04a7a	8b 82 48 02 00
	00		 mov	 eax, DWORD PTR [edx+584]
  04a80	69 c0 38 2b 00
	00		 imul	 eax, 11064		; 00002b38H
  04a86	8b 0d 00 00 00
	00		 mov	 ecx, DWORD PTR ?gObj@@3PAUOBJECTSTRUCT@@A ; gObj
  04a8c	0f b6 94 01 49
	01 00 00	 movzx	 edx, BYTE PTR [ecx+eax+329]
  04a94	52		 push	 edx
  04a95	8b 45 fc	 mov	 eax, DWORD PTR _this$[ebp]
  04a98	8b 88 48 02 00
	00		 mov	 ecx, DWORD PTR [eax+584]
  04a9e	69 c9 38 2b 00
	00		 imul	 ecx, 11064		; 00002b38H
  04aa4	8b 15 00 00 00
	00		 mov	 edx, DWORD PTR ?gObj@@3PAUOBJECTSTRUCT@@A ; gObj
  04aaa	8d 44 0a 77	 lea	 eax, DWORD PTR [edx+ecx+119]
  04aae	50		 push	 eax
  04aaf	8b 4d fc	 mov	 ecx, DWORD PTR _this$[ebp]
  04ab2	0f b6 91 2c 02
	00 00		 movzx	 edx, BYTE PTR [ecx+556]
  04ab9	83 c2 01	 add	 edx, 1
  04abc	52		 push	 edx
  04abd	68 00 00 00 00	 push	 OFFSET ??_C@_0EF@COBKKPEE@?$FLIllusion?5Temple?$FN?5?$CI?$CFd?$CJ?5RemoveIll@
  04ac2	ff 15 00 00 00
	00		 call	 DWORD PTR ?LogAddTD@@3P6AXPADZZA ; LogAddTD
  04ac8	83 c4 18	 add	 esp, 24			; 00000018H

; 1611 : 		gObjDel(this->m_iBluePedestalIndex);

  04acb	8b 45 fc	 mov	 eax, DWORD PTR _this$[ebp]
  04ace	8b 88 48 02 00
	00		 mov	 ecx, DWORD PTR [eax+584]
  04ad4	51		 push	 ecx
  04ad5	e8 00 00 00 00	 call	 ?gObjDel@@YAFH@Z	; gObjDel
  04ada	83 c4 04	 add	 esp, 4

; 1612 : 		this->m_iBluePedestalIndex = -1;

  04add	8b 45 fc	 mov	 eax, DWORD PTR _this$[ebp]
  04ae0	c7 80 48 02 00
	00 ff ff ff ff	 mov	 DWORD PTR [eax+584], -1
$LN5@ClearAllBa:

; 1613 : 	}
; 1614 : 
; 1615 : 	for(i = 0; i < this->m_iMonsterCount; i++)

  04aea	c7 45 f8 00 00
	00 00		 mov	 DWORD PTR _i$[ebp], 0
  04af1	eb 09		 jmp	 SHORT $LN4@ClearAllBa
$LN3@ClearAllBa:
  04af3	8b 45 f8	 mov	 eax, DWORD PTR _i$[ebp]
  04af6	83 c0 01	 add	 eax, 1
  04af9	89 45 f8	 mov	 DWORD PTR _i$[ebp], eax
$LN4@ClearAllBa:
  04afc	8b 45 fc	 mov	 eax, DWORD PTR _this$[ebp]
  04aff	8b 4d f8	 mov	 ecx, DWORD PTR _i$[ebp]
  04b02	3b 88 c4 03 00
	00		 cmp	 ecx, DWORD PTR [eax+964]
  04b08	7d 39		 jge	 SHORT $LN2@ClearAllBa

; 1616 : 	{
; 1617 : 		if(this->m_MonsterData[i].m_iMonsterIndex != -1)

  04b0a	8b 45 f8	 mov	 eax, DWORD PTR _i$[ebp]
  04b0d	8b 4d fc	 mov	 ecx, DWORD PTR _this$[ebp]
  04b10	83 bc c1 50 02
	00 00 ff	 cmp	 DWORD PTR [ecx+eax*8+592], -1
  04b18	74 27		 je	 SHORT $LN1@ClearAllBa

; 1618 : 		{
; 1619 : 			gObjDel(this->m_MonsterData[i].m_iMonsterIndex);

  04b1a	8b 45 f8	 mov	 eax, DWORD PTR _i$[ebp]
  04b1d	8b 4d fc	 mov	 ecx, DWORD PTR _this$[ebp]
  04b20	8b 94 c1 50 02
	00 00		 mov	 edx, DWORD PTR [ecx+eax*8+592]
  04b27	52		 push	 edx
  04b28	e8 00 00 00 00	 call	 ?gObjDel@@YAFH@Z	; gObjDel
  04b2d	83 c4 04	 add	 esp, 4

; 1620 : 			this->m_MonsterData[i].m_iMonsterIndex = -1;

  04b30	8b 45 f8	 mov	 eax, DWORD PTR _i$[ebp]
  04b33	8b 4d fc	 mov	 ecx, DWORD PTR _this$[ebp]
  04b36	c7 84 c1 50 02
	00 00 ff ff ff
	ff		 mov	 DWORD PTR [ecx+eax*8+592], -1
$LN1@ClearAllBa:

; 1621 : 		}
; 1622 : 	}

  04b41	eb b0		 jmp	 SHORT $LN3@ClearAllBa
$LN2@ClearAllBa:

; 1623 : 
; 1624 : 	LogAddTD("[Illusion Temple] (%d) Remove All Object", this->m_btFloorIndex+1);

  04b43	8b 45 fc	 mov	 eax, DWORD PTR _this$[ebp]
  04b46	0f b6 88 2c 02
	00 00		 movzx	 ecx, BYTE PTR [eax+556]
  04b4d	83 c1 01	 add	 ecx, 1
  04b50	51		 push	 ecx
  04b51	68 00 00 00 00	 push	 OFFSET ??_C@_0CJ@NGMJKIGG@?$FLIllusion?5Temple?$FN?5?$CI?$CFd?$CJ?5Remove?5Al@
  04b56	ff 15 00 00 00
	00		 call	 DWORD PTR ?LogAddTD@@3P6AXPADZZA ; LogAddTD
  04b5c	83 c4 08	 add	 esp, 8

; 1625 : }

  04b5f	5f		 pop	 edi
  04b60	5e		 pop	 esi
  04b61	5b		 pop	 ebx
  04b62	8b e5		 mov	 esp, ebp
  04b64	5d		 pop	 ebp
  04b65	c3		 ret	 0
?ClearAllBattleObjects@CIllusionTempleProcess@@QAEXXZ ENDP ; CIllusionTempleProcess::ClearAllBattleObjects
; Function compile flags: /Odtp /ZI
_this$ = -4						; size = 4
?SetNpcStatueRegen@CIllusionTempleProcess@@QAEXXZ PROC	; CIllusionTempleProcess::SetNpcStatueRegen
; _this$ = ecx

; 1628 : {

  04b70	55		 push	 ebp
  04b71	8b ec		 mov	 ebp, esp
  04b73	83 ec 44	 sub	 esp, 68			; 00000044H
  04b76	53		 push	 ebx
  04b77	56		 push	 esi
  04b78	57		 push	 edi
  04b79	89 4d fc	 mov	 DWORD PTR _this$[ebp], ecx

; 1629 : 	this->m_iStatueRegenTickCount = 5000 + GetTickCount(); //Appear after 5 seconds

  04b7c	ff 15 00 00 00
	00		 call	 DWORD PTR __imp__GetTickCount@0
  04b82	05 88 13 00 00	 add	 eax, 5000		; 00001388H
  04b87	8b 4d fc	 mov	 ecx, DWORD PTR _this$[ebp]
  04b8a	89 81 94 03 00
	00		 mov	 DWORD PTR [ecx+916], eax

; 1630 : }

  04b90	5f		 pop	 edi
  04b91	5e		 pop	 esi
  04b92	5b		 pop	 ebx
  04b93	8b e5		 mov	 esp, ebp
  04b95	5d		 pop	 ebp
  04b96	c3		 ret	 0
?SetNpcStatueRegen@CIllusionTempleProcess@@QAEXXZ ENDP	; CIllusionTempleProcess::SetNpcStatueRegen
_TEXT	ENDS
PUBLIC	??_C@_0FD@FFJHAHAN@?$FLIllusion?5Temple?$FN?5?$CI?$CFd?$CJ?5RegenStat@ ; `string'
;	COMDAT ??_C@_0FD@FFJHAHAN@?$FLIllusion?5Temple?$FN?5?$CI?$CFd?$CJ?5RegenStat@
CONST	SEGMENT
??_C@_0FD@FFJHAHAN@?$FLIllusion?5Temple?$FN?5?$CI?$CFd?$CJ?5RegenStat@ DB '['
	DB	'Illusion Temple] (%d) RegenStatus Name: %s, (%d: %d/%d), PosN'
	DB	'um(%d), connected:%d', 00H			; `string'
; Function compile flags: /Odtp /ZI
CONST	ENDS
_TEXT	SEGMENT
_lpObj$ = -12						; size = 4
_loc2$ = -8						; size = 4
_this$ = -4						; size = 4
?RegenNPCStatus@CIllusionTempleProcess@@QAEXXZ PROC	; CIllusionTempleProcess::RegenNPCStatus
; _this$ = ecx

; 1633 : {

  04ba0	55		 push	 ebp
  04ba1	8b ec		 mov	 ebp, esp
  04ba3	83 ec 4c	 sub	 esp, 76			; 0000004cH
  04ba6	53		 push	 ebx
  04ba7	56		 push	 esi
  04ba8	57		 push	 edi
  04ba9	89 4d fc	 mov	 DWORD PTR _this$[ebp], ecx

; 1634 : 	if(this->m_iBallPlayerIndex >= 0)

  04bac	8b 45 fc	 mov	 eax, DWORD PTR _this$[ebp]
  04baf	83 b8 b8 03 00
	00 00		 cmp	 DWORD PTR [eax+952], 0
  04bb6	7c 05		 jl	 SHORT $LN2@RegenNPCSt

; 1635 : 	{
; 1636 : 		return;

  04bb8	e9 c8 00 00 00	 jmp	 $LN3@RegenNPCSt
$LN2@RegenNPCSt:

; 1637 : 	}
; 1638 : 
; 1639 : 	int loc2 = rand()%this->m_iStatueCount;

  04bbd	e8 00 00 00 00	 call	 _rand
  04bc2	8b 4d fc	 mov	 ecx, DWORD PTR _this$[ebp]
  04bc5	99		 cdq
  04bc6	f7 b9 c0 03 00
	00		 idiv	 DWORD PTR [ecx+960]
  04bcc	89 55 f8	 mov	 DWORD PTR _loc2$[ebp], edx

; 1640 : 
; 1641 : 	if(this->m_StatueData[loc2].m_iStatueIndex == -1)

  04bcf	8b 45 f8	 mov	 eax, DWORD PTR _loc2$[ebp]
  04bd2	8b 4d fc	 mov	 ecx, DWORD PTR _this$[ebp]
  04bd5	83 bc c1 30 02
	00 00 ff	 cmp	 DWORD PTR [ecx+eax*8+560], -1
  04bdd	75 05		 jne	 SHORT $LN1@RegenNPCSt

; 1642 : 	{
; 1643 : 		return;

  04bdf	e9 a1 00 00 00	 jmp	 $LN3@RegenNPCSt
$LN1@RegenNPCSt:

; 1644 : 	}
; 1645 : 
; 1646 : 	LPOBJ lpObj = &gObj[this->m_StatueData[loc2].m_iStatueIndex];

  04be4	8b 45 f8	 mov	 eax, DWORD PTR _loc2$[ebp]
  04be7	8b 4d fc	 mov	 ecx, DWORD PTR _this$[ebp]
  04bea	8b 94 c1 30 02
	00 00		 mov	 edx, DWORD PTR [ecx+eax*8+560]
  04bf1	69 d2 38 2b 00
	00		 imul	 edx, 11064		; 00002b38H
  04bf7	03 15 00 00 00
	00		 add	 edx, DWORD PTR ?gObj@@3PAUOBJECTSTRUCT@@A ; gObj
  04bfd	89 55 f4	 mov	 DWORD PTR _lpObj$[ebp], edx

; 1647 : 
; 1648 : 	lpObj->m_PosNum = this->m_StatueData[loc2].m_sStatuePosition;

  04c00	8b 45 f4	 mov	 eax, DWORD PTR _lpObj$[ebp]
  04c03	8b 4d f8	 mov	 ecx, DWORD PTR _loc2$[ebp]
  04c06	8b 55 fc	 mov	 edx, DWORD PTR _this$[ebp]
  04c09	66 8b 8c ca 34
	02 00 00	 mov	 cx, WORD PTR [edx+ecx*8+564]
  04c11	66 89 88 b0 03
	00 00		 mov	 WORD PTR [eax+944], cx

; 1649 : 	lpObj->DieRegen = 2;

  04c18	8b 45 f4	 mov	 eax, DWORD PTR _lpObj$[ebp]
  04c1b	c6 80 a2 03 00
	00 02		 mov	 BYTE PTR [eax+930], 2

; 1650 : 	this->m_iStatueRegenTickCount = -1;

  04c22	8b 45 fc	 mov	 eax, DWORD PTR _this$[ebp]
  04c25	c7 80 94 03 00
	00 ff ff ff ff	 mov	 DWORD PTR [eax+916], -1

; 1651 : 
; 1652 : 	LogAddTD("[Illusion Temple] (%d) RegenStatus Name: %s, (%d: %d/%d), PosNum(%d), connected:%d", this->m_btFloorIndex+1, lpObj->Name, lpObj->MapNumber, lpObj->X, lpObj->Y, lpObj->m_PosNum, lpObj->Connected);

  04c2f	8b 45 f4	 mov	 eax, DWORD PTR _lpObj$[ebp]
  04c32	8b 48 04	 mov	 ecx, DWORD PTR [eax+4]
  04c35	51		 push	 ecx
  04c36	8b 55 f4	 mov	 edx, DWORD PTR _lpObj$[ebp]
  04c39	0f bf 82 b0 03
	00 00		 movsx	 eax, WORD PTR [edx+944]
  04c40	50		 push	 eax
  04c41	8b 4d f4	 mov	 ecx, DWORD PTR _lpObj$[ebp]
  04c44	0f bf 91 46 01
	00 00		 movsx	 edx, WORD PTR [ecx+326]
  04c4b	52		 push	 edx
  04c4c	8b 45 f4	 mov	 eax, DWORD PTR _lpObj$[ebp]
  04c4f	0f bf 88 44 01
	00 00		 movsx	 ecx, WORD PTR [eax+324]
  04c56	51		 push	 ecx
  04c57	8b 55 f4	 mov	 edx, DWORD PTR _lpObj$[ebp]
  04c5a	0f b6 82 49 01
	00 00		 movzx	 eax, BYTE PTR [edx+329]
  04c61	50		 push	 eax
  04c62	8b 4d f4	 mov	 ecx, DWORD PTR _lpObj$[ebp]
  04c65	83 c1 77	 add	 ecx, 119		; 00000077H
  04c68	51		 push	 ecx
  04c69	8b 55 fc	 mov	 edx, DWORD PTR _this$[ebp]
  04c6c	0f b6 82 2c 02
	00 00		 movzx	 eax, BYTE PTR [edx+556]
  04c73	83 c0 01	 add	 eax, 1
  04c76	50		 push	 eax
  04c77	68 00 00 00 00	 push	 OFFSET ??_C@_0FD@FFJHAHAN@?$FLIllusion?5Temple?$FN?5?$CI?$CFd?$CJ?5RegenStat@
  04c7c	ff 15 00 00 00
	00		 call	 DWORD PTR ?LogAddTD@@3P6AXPADZZA ; LogAddTD
  04c82	83 c4 20	 add	 esp, 32			; 00000020H
$LN3@RegenNPCSt:

; 1653 : }

  04c85	5f		 pop	 edi
  04c86	5e		 pop	 esi
  04c87	5b		 pop	 ebx
  04c88	8b e5		 mov	 esp, ebp
  04c8a	5d		 pop	 ebp
  04c8b	c3		 ret	 0
?RegenNPCStatus@CIllusionTempleProcess@@QAEXXZ ENDP	; CIllusionTempleProcess::RegenNPCStatus
; Function compile flags: /Odtp /ZI
_i$234547 = -8						; size = 4
_this$ = -4						; size = 4
?SetBattleMonstersReady@CIllusionTempleProcess@@QAEXXZ PROC ; CIllusionTempleProcess::SetBattleMonstersReady
; _this$ = ecx

; 1656 : {

  04c90	55		 push	 ebp
  04c91	8b ec		 mov	 ebp, esp
  04c93	83 ec 48	 sub	 esp, 72			; 00000048H
  04c96	53		 push	 ebx
  04c97	56		 push	 esi
  04c98	57		 push	 edi
  04c99	89 4d fc	 mov	 DWORD PTR _this$[ebp], ecx

; 1657 : 	for(int i = 0; i < MAX_FLOOR_MONSTER; i++)

  04c9c	c7 45 f8 00 00
	00 00		 mov	 DWORD PTR _i$234547[ebp], 0
  04ca3	eb 09		 jmp	 SHORT $LN4@SetBattleM
$LN3@SetBattleM:
  04ca5	8b 45 f8	 mov	 eax, DWORD PTR _i$234547[ebp]
  04ca8	83 c0 01	 add	 eax, 1
  04cab	89 45 f8	 mov	 DWORD PTR _i$234547[ebp], eax
$LN4@SetBattleM:
  04cae	83 7d f8 28	 cmp	 DWORD PTR _i$234547[ebp], 40 ; 00000028H
  04cb2	0f 8d 88 00 00
	00		 jge	 $LN5@SetBattleM

; 1658 : 	{
; 1659 : 		if(this->m_MonsterData[i].m_iMonsterIndex != -1 && gObj[this->m_MonsterData[i].m_iMonsterIndex].m_PosNum == -1)

  04cb8	8b 45 f8	 mov	 eax, DWORD PTR _i$234547[ebp]
  04cbb	8b 4d fc	 mov	 ecx, DWORD PTR _this$[ebp]
  04cbe	83 bc c1 50 02
	00 00 ff	 cmp	 DWORD PTR [ecx+eax*8+592], -1
  04cc6	74 73		 je	 SHORT $LN1@SetBattleM
  04cc8	8b 45 f8	 mov	 eax, DWORD PTR _i$234547[ebp]
  04ccb	8b 4d fc	 mov	 ecx, DWORD PTR _this$[ebp]
  04cce	8b 94 c1 50 02
	00 00		 mov	 edx, DWORD PTR [ecx+eax*8+592]
  04cd5	69 d2 38 2b 00
	00		 imul	 edx, 11064		; 00002b38H
  04cdb	a1 00 00 00 00	 mov	 eax, DWORD PTR ?gObj@@3PAUOBJECTSTRUCT@@A ; gObj
  04ce0	0f bf 8c 10 b0
	03 00 00	 movsx	 ecx, WORD PTR [eax+edx+944]
  04ce8	83 f9 ff	 cmp	 ecx, -1
  04ceb	75 4e		 jne	 SHORT $LN1@SetBattleM

; 1660 : 		{
; 1661 : 			gObj[this->m_MonsterData[i].m_iMonsterIndex].m_PosNum = this->m_MonsterData[i].m_sMonsterPosition; 

  04ced	8b 45 f8	 mov	 eax, DWORD PTR _i$234547[ebp]
  04cf0	8b 4d fc	 mov	 ecx, DWORD PTR _this$[ebp]
  04cf3	8b 94 c1 50 02
	00 00		 mov	 edx, DWORD PTR [ecx+eax*8+592]
  04cfa	69 d2 38 2b 00
	00		 imul	 edx, 11064		; 00002b38H
  04d00	a1 00 00 00 00	 mov	 eax, DWORD PTR ?gObj@@3PAUOBJECTSTRUCT@@A ; gObj
  04d05	8b 4d f8	 mov	 ecx, DWORD PTR _i$234547[ebp]
  04d08	8b 75 fc	 mov	 esi, DWORD PTR _this$[ebp]
  04d0b	66 8b 8c ce 54
	02 00 00	 mov	 cx, WORD PTR [esi+ecx*8+596]
  04d13	66 89 8c 10 b0
	03 00 00	 mov	 WORD PTR [eax+edx+944], cx

; 1662 : 			gObj[this->m_MonsterData[i].m_iMonsterIndex].DieRegen = 2;

  04d1b	8b 45 f8	 mov	 eax, DWORD PTR _i$234547[ebp]
  04d1e	8b 4d fc	 mov	 ecx, DWORD PTR _this$[ebp]
  04d21	8b 94 c1 50 02
	00 00		 mov	 edx, DWORD PTR [ecx+eax*8+592]
  04d28	69 d2 38 2b 00
	00		 imul	 edx, 11064		; 00002b38H
  04d2e	a1 00 00 00 00	 mov	 eax, DWORD PTR ?gObj@@3PAUOBJECTSTRUCT@@A ; gObj
  04d33	c6 84 10 a2 03
	00 00 02	 mov	 BYTE PTR [eax+edx+930], 2
$LN1@SetBattleM:

; 1663 : 		}
; 1664 : 	}

  04d3b	e9 65 ff ff ff	 jmp	 $LN3@SetBattleM
$LN5@SetBattleM:

; 1665 : }

  04d40	5f		 pop	 edi
  04d41	5e		 pop	 esi
  04d42	5b		 pop	 ebx
  04d43	8b e5		 mov	 esp, ebp
  04d45	5d		 pop	 ebp
  04d46	c3		 ret	 0
?SetBattleMonstersReady@CIllusionTempleProcess@@QAEXXZ ENDP ; CIllusionTempleProcess::SetBattleMonstersReady
_TEXT	ENDS
PUBLIC	__$ArrayPad$
PUBLIC	?SendNoticeToAll@CIllusionTempleProcess@@QAEXPAD@Z ; CIllusionTempleProcess::SendNoticeToAll
EXTRN	?MakeNoticeMsg@TNotice@@SAXPAXEPAD@Z:PROC	; TNotice::MakeNoticeMsg
; Function compile flags: /Odtp /ZI
_TEXT	SEGMENT
_i$234557 = -284					; size = 4
_pNotice$ = -280					; size = 272
_this$ = -8						; size = 4
__$ArrayPad$ = -4					; size = 4
_lpszMsg$ = 8						; size = 4
?SendNoticeToAll@CIllusionTempleProcess@@QAEXPAD@Z PROC	; CIllusionTempleProcess::SendNoticeToAll
; _this$ = ecx

; 1668 : {

  04d50	55		 push	 ebp
  04d51	8b ec		 mov	 ebp, esp
  04d53	81 ec 5c 01 00
	00		 sub	 esp, 348		; 0000015cH
  04d59	a1 00 00 00 00	 mov	 eax, DWORD PTR ___security_cookie
  04d5e	33 c5		 xor	 eax, ebp
  04d60	89 45 fc	 mov	 DWORD PTR __$ArrayPad$[ebp], eax
  04d63	53		 push	 ebx
  04d64	56		 push	 esi
  04d65	57		 push	 edi
  04d66	89 4d f8	 mov	 DWORD PTR _this$[ebp], ecx

; 1669 : 	PMSG_NOTICE pNotice;
; 1670 : 	TNotice::MakeNoticeMsg(&pNotice, 0, lpszMsg);

  04d69	8b 45 08	 mov	 eax, DWORD PTR _lpszMsg$[ebp]
  04d6c	50		 push	 eax
  04d6d	6a 00		 push	 0
  04d6f	8d 8d e8 fe ff
	ff		 lea	 ecx, DWORD PTR _pNotice$[ebp]
  04d75	51		 push	 ecx
  04d76	e8 00 00 00 00	 call	 ?MakeNoticeMsg@TNotice@@SAXPAXEPAD@Z ; TNotice::MakeNoticeMsg
  04d7b	83 c4 0c	 add	 esp, 12			; 0000000cH

; 1671 : 
; 1672 : 	for(int i = 0; i < MAX_FLOOR_USER; i++)

  04d7e	c7 85 e4 fe ff
	ff 00 00 00 00	 mov	 DWORD PTR _i$234557[ebp], 0
  04d88	eb 0f		 jmp	 SHORT $LN4@SendNotice
$LN3@SendNotice:
  04d8a	8b 85 e4 fe ff
	ff		 mov	 eax, DWORD PTR _i$234557[ebp]
  04d90	83 c0 01	 add	 eax, 1
  04d93	89 85 e4 fe ff
	ff		 mov	 DWORD PTR _i$234557[ebp], eax
$LN4@SendNotice:
  04d99	83 bd e4 fe ff
	ff 0a		 cmp	 DWORD PTR _i$234557[ebp], 10 ; 0000000aH
  04da0	7d 5f		 jge	 SHORT $LN5@SendNotice

; 1673 : 	{
; 1674 : 		if(this->m_FloorData[i].m_iTeamPlayerIndex != -1 && gObj[this->m_FloorData[i].m_iTeamPlayerIndex].Connected > PLAYER_LOGGED)

  04da2	8b 85 e4 fe ff
	ff		 mov	 eax, DWORD PTR _i$234557[ebp]
  04da8	6b c0 30	 imul	 eax, 48			; 00000030H
  04dab	8b 4d f8	 mov	 ecx, DWORD PTR _this$[ebp]
  04dae	83 7c 01 20 ff	 cmp	 DWORD PTR [ecx+eax+32], -1
  04db3	74 4a		 je	 SHORT $LN1@SendNotice
  04db5	8b 85 e4 fe ff
	ff		 mov	 eax, DWORD PTR _i$234557[ebp]
  04dbb	6b c0 30	 imul	 eax, 48			; 00000030H
  04dbe	8b 4d f8	 mov	 ecx, DWORD PTR _this$[ebp]
  04dc1	8b 54 01 20	 mov	 edx, DWORD PTR [ecx+eax+32]
  04dc5	69 d2 38 2b 00
	00		 imul	 edx, 11064		; 00002b38H
  04dcb	a1 00 00 00 00	 mov	 eax, DWORD PTR ?gObj@@3PAUOBJECTSTRUCT@@A ; gObj
  04dd0	83 7c 10 04 02	 cmp	 DWORD PTR [eax+edx+4], 2
  04dd5	7e 28		 jle	 SHORT $LN1@SendNotice

; 1675 : 		{
; 1676 : 			DataSend(this->m_FloorData[i].m_iTeamPlayerIndex,(LPBYTE)&pNotice,pNotice.h.size);

  04dd7	0f b6 85 e9 fe
	ff ff		 movzx	 eax, BYTE PTR _pNotice$[ebp+1]
  04dde	50		 push	 eax
  04ddf	8d 8d e8 fe ff
	ff		 lea	 ecx, DWORD PTR _pNotice$[ebp]
  04de5	51		 push	 ecx
  04de6	8b 95 e4 fe ff
	ff		 mov	 edx, DWORD PTR _i$234557[ebp]
  04dec	6b d2 30	 imul	 edx, 48			; 00000030H
  04def	8b 45 f8	 mov	 eax, DWORD PTR _this$[ebp]
  04df2	8b 4c 10 20	 mov	 ecx, DWORD PTR [eax+edx+32]
  04df6	51		 push	 ecx
  04df7	e8 00 00 00 00	 call	 ?DataSend@@YAHHPAEK@Z	; DataSend
  04dfc	83 c4 0c	 add	 esp, 12			; 0000000cH
$LN1@SendNotice:

; 1677 : 		}
; 1678 : 	}

  04dff	eb 89		 jmp	 SHORT $LN3@SendNotice
$LN5@SendNotice:

; 1679 : }

  04e01	5f		 pop	 edi
  04e02	5e		 pop	 esi
  04e03	5b		 pop	 ebx
  04e04	8b 4d fc	 mov	 ecx, DWORD PTR __$ArrayPad$[ebp]
  04e07	33 cd		 xor	 ecx, ebp
  04e09	e8 00 00 00 00	 call	 @__security_check_cookie@4
  04e0e	8b e5		 mov	 esp, ebp
  04e10	5d		 pop	 ebp
  04e11	c2 04 00	 ret	 4
?SendNoticeToAll@CIllusionTempleProcess@@QAEXPAD@Z ENDP	; CIllusionTempleProcess::SendNoticeToAll
_TEXT	ENDS
PUBLIC	__$ArrayPad$
; Function compile flags: /Odtp /ZI
_TEXT	SEGMENT
_i$234587 = -304					; size = 4
_pMsg$234581 = -300					; size = 6
_i$234576 = -292					; size = 4
_Count$ = -288						; size = 4
_pMsgHead$ = -284					; size = 14
_MessageBuff$ = -268					; size = 256
_iOfs$ = -12						; size = 4
_this$ = -8						; size = 4
__$ArrayPad$ = -4					; size = 4
_btTeam$ = 8						; size = 1
?OperateMiniMapWork@CIllusionTempleProcess@@QAEXE@Z PROC ; CIllusionTempleProcess::OperateMiniMapWork
; _this$ = ecx

; 1682 : {

  04e20	55		 push	 ebp
  04e21	8b ec		 mov	 ebp, esp
  04e23	81 ec 70 01 00
	00		 sub	 esp, 368		; 00000170H
  04e29	a1 00 00 00 00	 mov	 eax, DWORD PTR ___security_cookie
  04e2e	33 c5		 xor	 eax, ebp
  04e30	89 45 fc	 mov	 DWORD PTR __$ArrayPad$[ebp], eax
  04e33	53		 push	 ebx
  04e34	56		 push	 esi
  04e35	57		 push	 edi
  04e36	89 4d f8	 mov	 DWORD PTR _this$[ebp], ecx

; 1683 : 	int	iOfs = 0;

  04e39	c7 45 f4 00 00
	00 00		 mov	 DWORD PTR _iOfs$[ebp], 0

; 1684 : 
; 1685 : 	char MessageBuff[256];
; 1686 : 
; 1687 : 	PMSG_ILLUSIONTEMPLE_TEAMINFO_HEAD	pMsgHead;
; 1688 : 	
; 1689 : 	if( this->m_iEventBattleTimer < 0 )

  04e40	8b 45 f8	 mov	 eax, DWORD PTR _this$[ebp]
  04e43	83 b8 9c 03 00
	00 00		 cmp	 DWORD PTR [eax+924], 0
  04e4a	7d 0d		 jge	 SHORT $LN15@OperateMin

; 1690 : 	{
; 1691 : 		this->m_iEventBattleTimer = 0;

  04e4c	8b 45 f8	 mov	 eax, DWORD PTR _this$[ebp]
  04e4f	c7 80 9c 03 00
	00 00 00 00 00	 mov	 DWORD PTR [eax+924], 0
$LN15@OperateMin:

; 1692 : 	}
; 1693 : 
; 1694 : 	pMsgHead.m_wTimer = this->m_iEventBattleTimer / 1000;

  04e59	8b 45 f8	 mov	 eax, DWORD PTR _this$[ebp]
  04e5c	8b 80 9c 03 00
	00		 mov	 eax, DWORD PTR [eax+924]
  04e62	99		 cdq
  04e63	b9 e8 03 00 00	 mov	 ecx, 1000		; 000003e8H
  04e68	f7 f9		 idiv	 ecx
  04e6a	66 89 85 e8 fe
	ff ff		 mov	 WORD PTR _pMsgHead$[ebp+4], ax

; 1695 : 		
; 1696 : 	if( this->m_iBallPlayerIndex != OBJ_EMPTY ) //Ball

  04e71	8b 45 f8	 mov	 eax, DWORD PTR _this$[ebp]
  04e74	83 b8 b8 03 00
	00 ff		 cmp	 DWORD PTR [eax+952], -1
  04e7b	74 57		 je	 SHORT $LN14@OperateMin

; 1697 : 	{
; 1698 : 		pMsgHead.m_waIndex    = this->m_iBallPlayerIndex;

  04e7d	8b 45 f8	 mov	 eax, DWORD PTR _this$[ebp]
  04e80	66 8b 88 b8 03
	00 00		 mov	 cx, WORD PTR [eax+952]
  04e87	66 89 8d ea fe
	ff ff		 mov	 WORD PTR _pMsgHead$[ebp+6], cx

; 1699 : 		pMsgHead.m_btPositionX = gObj[this->m_iBallPlayerIndex].X;

  04e8e	8b 45 f8	 mov	 eax, DWORD PTR _this$[ebp]
  04e91	8b 88 b8 03 00
	00		 mov	 ecx, DWORD PTR [eax+952]
  04e97	69 c9 38 2b 00
	00		 imul	 ecx, 11064		; 00002b38H
  04e9d	8b 15 00 00 00
	00		 mov	 edx, DWORD PTR ?gObj@@3PAUOBJECTSTRUCT@@A ; gObj
  04ea3	8a 84 0a 44 01
	00 00		 mov	 al, BYTE PTR [edx+ecx+324]
  04eaa	88 85 ec fe ff
	ff		 mov	 BYTE PTR _pMsgHead$[ebp+8], al

; 1700 : 		pMsgHead.m_btPositionY = gObj[this->m_iBallPlayerIndex].Y;

  04eb0	8b 45 f8	 mov	 eax, DWORD PTR _this$[ebp]
  04eb3	8b 88 b8 03 00
	00		 mov	 ecx, DWORD PTR [eax+952]
  04eb9	69 c9 38 2b 00
	00		 imul	 ecx, 11064		; 00002b38H
  04ebf	8b 15 00 00 00
	00		 mov	 edx, DWORD PTR ?gObj@@3PAUOBJECTSTRUCT@@A ; gObj
  04ec5	8a 84 0a 46 01
	00 00		 mov	 al, BYTE PTR [edx+ecx+326]
  04ecc	88 85 ed fe ff
	ff		 mov	 BYTE PTR _pMsgHead$[ebp+9], al

; 1701 : 	}
; 1702 : 	else

  04ed2	eb 1a		 jmp	 SHORT $LN13@OperateMin
$LN14@OperateMin:

; 1703 : 	{
; 1704 : 		pMsgHead.m_waIndex    = OBJ_EMPTY;

  04ed4	b8 ff ff 00 00	 mov	 eax, 65535		; 0000ffffH
  04ed9	66 89 85 ea fe
	ff ff		 mov	 WORD PTR _pMsgHead$[ebp+6], ax

; 1705 : 		pMsgHead.m_btPositionX = (BYTE)-1;

  04ee0	c6 85 ec fe ff
	ff ff		 mov	 BYTE PTR _pMsgHead$[ebp+8], 255 ; 000000ffH

; 1706 : 		pMsgHead.m_btPositionY = (BYTE)-1;

  04ee7	c6 85 ed fe ff
	ff ff		 mov	 BYTE PTR _pMsgHead$[ebp+9], 255 ; 000000ffH
$LN13@OperateMin:

; 1707 : 	}
; 1708 : 	
; 1709 : 	pMsgHead.m_btRelicsTeamScore 	= this->m_btYellowTeamScore;

  04eee	8b 45 f8	 mov	 eax, DWORD PTR _this$[ebp]
  04ef1	8a 88 d0 03 00
	00		 mov	 cl, BYTE PTR [eax+976]
  04ef7	88 8d ee fe ff
	ff		 mov	 BYTE PTR _pMsgHead$[ebp+10], cl

; 1710 : 	pMsgHead.m_btIllusionRelicsScore= this->m_btBlueTeamScore;

  04efd	8b 45 f8	 mov	 eax, DWORD PTR _this$[ebp]
  04f00	8a 88 d1 03 00
	00		 mov	 cl, BYTE PTR [eax+977]
  04f06	88 8d ef fe ff
	ff		 mov	 BYTE PTR _pMsgHead$[ebp+11], cl

; 1711 : 	pMsgHead.m_btTeam				= btTeam;

  04f0c	8a 45 08	 mov	 al, BYTE PTR _btTeam$[ebp]
  04f0f	88 85 f0 fe ff
	ff		 mov	 BYTE PTR _pMsgHead$[ebp+12], al

; 1712 : 	
; 1713 : 	iOfs += sizeof(pMsgHead);

  04f15	8b 45 f4	 mov	 eax, DWORD PTR _iOfs$[ebp]
  04f18	83 c0 0e	 add	 eax, 14			; 0000000eH
  04f1b	89 45 f4	 mov	 DWORD PTR _iOfs$[ebp], eax

; 1714 : 	int Count = 0;

  04f1e	c7 85 e0 fe ff
	ff 00 00 00 00	 mov	 DWORD PTR _Count$[ebp], 0

; 1715 : 
; 1716 : 	for(int i = 0; i < MAX_FLOOR_USER; i++ )

  04f28	c7 85 dc fe ff
	ff 00 00 00 00	 mov	 DWORD PTR _i$234576[ebp], 0
  04f32	eb 0f		 jmp	 SHORT $LN12@OperateMin
$LN11@OperateMin:
  04f34	8b 85 dc fe ff
	ff		 mov	 eax, DWORD PTR _i$234576[ebp]
  04f3a	83 c0 01	 add	 eax, 1
  04f3d	89 85 dc fe ff
	ff		 mov	 DWORD PTR _i$234576[ebp], eax
$LN12@OperateMin:
  04f43	83 bd dc fe ff
	ff 0a		 cmp	 DWORD PTR _i$234576[ebp], 10 ; 0000000aH
  04f4a	0f 8d 23 01 00
	00		 jge	 $LN10@OperateMin

; 1717 : 	{
; 1718 : 		if( this->m_FloorData[i].m_iTeamPlayerIndex != OBJ_EMPTY && this->m_FloorData[i].m_btTeamJoinSide == btTeam && gObj[this->m_FloorData[i].m_iTeamPlayerIndex].Connected > PLAYER_LOGGED )

  04f50	8b 85 dc fe ff
	ff		 mov	 eax, DWORD PTR _i$234576[ebp]
  04f56	6b c0 30	 imul	 eax, 48			; 00000030H
  04f59	8b 4d f8	 mov	 ecx, DWORD PTR _this$[ebp]
  04f5c	83 7c 01 20 ff	 cmp	 DWORD PTR [ecx+eax+32], -1
  04f61	0f 84 07 01 00
	00		 je	 $LN9@OperateMin
  04f67	8b 85 dc fe ff
	ff		 mov	 eax, DWORD PTR _i$234576[ebp]
  04f6d	6b c0 30	 imul	 eax, 48			; 00000030H
  04f70	8b 4d f8	 mov	 ecx, DWORD PTR _this$[ebp]
  04f73	0f b6 54 01 24	 movzx	 edx, BYTE PTR [ecx+eax+36]
  04f78	0f b6 45 08	 movzx	 eax, BYTE PTR _btTeam$[ebp]
  04f7c	3b d0		 cmp	 edx, eax
  04f7e	0f 85 ea 00 00
	00		 jne	 $LN9@OperateMin
  04f84	8b 85 dc fe ff
	ff		 mov	 eax, DWORD PTR _i$234576[ebp]
  04f8a	6b c0 30	 imul	 eax, 48			; 00000030H
  04f8d	8b 4d f8	 mov	 ecx, DWORD PTR _this$[ebp]
  04f90	8b 54 01 20	 mov	 edx, DWORD PTR [ecx+eax+32]
  04f94	69 d2 38 2b 00
	00		 imul	 edx, 11064		; 00002b38H
  04f9a	a1 00 00 00 00	 mov	 eax, DWORD PTR ?gObj@@3PAUOBJECTSTRUCT@@A ; gObj
  04f9f	83 7c 10 04 02	 cmp	 DWORD PTR [eax+edx+4], 2
  04fa4	0f 8e c4 00 00
	00		 jle	 $LN9@OperateMin

; 1719 : 		{
; 1720 : 			PMSG_ILLUSIONTEMPLE_TEAMINFO_MEMBERDATA pMsg;
; 1721 : 
; 1722 : 			pMsg.m_waIndex    = this->m_FloorData[i].m_iTeamPlayerIndex;

  04faa	8b 85 dc fe ff
	ff		 mov	 eax, DWORD PTR _i$234576[ebp]
  04fb0	6b c0 30	 imul	 eax, 48			; 00000030H
  04fb3	8b 4d f8	 mov	 ecx, DWORD PTR _this$[ebp]
  04fb6	66 8b 54 01 20	 mov	 dx, WORD PTR [ecx+eax+32]
  04fbb	66 89 95 d4 fe
	ff ff		 mov	 WORD PTR _pMsg$234581[ebp], dx

; 1723 : 			pMsg.m_btMapNumber = gObj[this->m_FloorData[i].m_iTeamPlayerIndex].MapNumber;

  04fc2	8b 85 dc fe ff
	ff		 mov	 eax, DWORD PTR _i$234576[ebp]
  04fc8	6b c0 30	 imul	 eax, 48			; 00000030H
  04fcb	8b 4d f8	 mov	 ecx, DWORD PTR _this$[ebp]
  04fce	8b 54 01 20	 mov	 edx, DWORD PTR [ecx+eax+32]
  04fd2	69 d2 38 2b 00
	00		 imul	 edx, 11064		; 00002b38H
  04fd8	a1 00 00 00 00	 mov	 eax, DWORD PTR ?gObj@@3PAUOBJECTSTRUCT@@A ; gObj
  04fdd	8a 8c 10 49 01
	00 00		 mov	 cl, BYTE PTR [eax+edx+329]
  04fe4	88 8d d6 fe ff
	ff		 mov	 BYTE PTR _pMsg$234581[ebp+2], cl

; 1724 : 			pMsg.m_btPositionX = gObj[this->m_FloorData[i].m_iTeamPlayerIndex].X;

  04fea	8b 85 dc fe ff
	ff		 mov	 eax, DWORD PTR _i$234576[ebp]
  04ff0	6b c0 30	 imul	 eax, 48			; 00000030H
  04ff3	8b 4d f8	 mov	 ecx, DWORD PTR _this$[ebp]
  04ff6	8b 54 01 20	 mov	 edx, DWORD PTR [ecx+eax+32]
  04ffa	69 d2 38 2b 00
	00		 imul	 edx, 11064		; 00002b38H
  05000	a1 00 00 00 00	 mov	 eax, DWORD PTR ?gObj@@3PAUOBJECTSTRUCT@@A ; gObj
  05005	8a 8c 10 44 01
	00 00		 mov	 cl, BYTE PTR [eax+edx+324]
  0500c	88 8d d7 fe ff
	ff		 mov	 BYTE PTR _pMsg$234581[ebp+3], cl

; 1725 : 			pMsg.m_btPositionY = gObj[this->m_FloorData[i].m_iTeamPlayerIndex].Y;

  05012	8b 85 dc fe ff
	ff		 mov	 eax, DWORD PTR _i$234576[ebp]
  05018	6b c0 30	 imul	 eax, 48			; 00000030H
  0501b	8b 4d f8	 mov	 ecx, DWORD PTR _this$[ebp]
  0501e	8b 54 01 20	 mov	 edx, DWORD PTR [ecx+eax+32]
  05022	69 d2 38 2b 00
	00		 imul	 edx, 11064		; 00002b38H
  05028	a1 00 00 00 00	 mov	 eax, DWORD PTR ?gObj@@3PAUOBJECTSTRUCT@@A ; gObj
  0502d	8a 8c 10 46 01
	00 00		 mov	 cl, BYTE PTR [eax+edx+326]
  05034	88 8d d8 fe ff
	ff		 mov	 BYTE PTR _pMsg$234581[ebp+4], cl

; 1726 : 			
; 1727 : 			Count++;

  0503a	8b 85 e0 fe ff
	ff		 mov	 eax, DWORD PTR _Count$[ebp]
  05040	83 c0 01	 add	 eax, 1
  05043	89 85 e0 fe ff
	ff		 mov	 DWORD PTR _Count$[ebp], eax

; 1728 : 			
; 1729 : 			memcpy((MessageBuff+iOfs), &pMsg, sizeof(pMsg));

  05049	6a 06		 push	 6
  0504b	8d 85 d4 fe ff
	ff		 lea	 eax, DWORD PTR _pMsg$234581[ebp]
  05051	50		 push	 eax
  05052	8b 4d f4	 mov	 ecx, DWORD PTR _iOfs$[ebp]
  05055	8d 94 0d f4 fe
	ff ff		 lea	 edx, DWORD PTR _MessageBuff$[ebp+ecx]
  0505c	52		 push	 edx
  0505d	e8 00 00 00 00	 call	 _memcpy
  05062	83 c4 0c	 add	 esp, 12			; 0000000cH

; 1730 : 			
; 1731 : 			iOfs += sizeof(pMsg);

  05065	8b 45 f4	 mov	 eax, DWORD PTR _iOfs$[ebp]
  05068	83 c0 06	 add	 eax, 6
  0506b	89 45 f4	 mov	 DWORD PTR _iOfs$[ebp], eax
$LN9@OperateMin:

; 1732 : 		}
; 1733 : 	}

  0506e	e9 c1 fe ff ff	 jmp	 $LN11@OperateMin
$LN10@OperateMin:

; 1734 : 	
; 1735 : 	if( btTeam == 0 )

  05073	0f b6 45 08	 movzx	 eax, BYTE PTR _btTeam$[ebp]
  05077	85 c0		 test	 eax, eax
  05079	75 31		 jne	 SHORT $LN8@OperateMin

; 1736 : 	{
; 1737 : 		if( this->m_iYellowTeamUserCount != Count )

  0507b	8b 45 f8	 mov	 eax, DWORD PTR _this$[ebp]
  0507e	8b 88 c8 03 00
	00		 mov	 ecx, DWORD PTR [eax+968]
  05084	3b 8d e0 fe ff
	ff		 cmp	 ecx, DWORD PTR _Count$[ebp]
  0508a	74 0f		 je	 SHORT $LN7@OperateMin

; 1738 : 		{
; 1739 : 			this->m_iYellowTeamUserCount = Count;

  0508c	8b 45 f8	 mov	 eax, DWORD PTR _this$[ebp]
  0508f	8b 8d e0 fe ff
	ff		 mov	 ecx, DWORD PTR _Count$[ebp]
  05095	89 88 c8 03 00
	00		 mov	 DWORD PTR [eax+968], ecx
$LN7@OperateMin:

; 1740 : 		}
; 1741 : 
; 1742 : 		pMsgHead.m_btCount = this->m_iYellowTeamUserCount;

  0509b	8b 45 f8	 mov	 eax, DWORD PTR _this$[ebp]
  0509e	8a 88 c8 03 00
	00		 mov	 cl, BYTE PTR [eax+968]
  050a4	88 8d f1 fe ff
	ff		 mov	 BYTE PTR _pMsgHead$[ebp+13], cl

; 1743 : 	}
; 1744 : 	else 

  050aa	eb 2f		 jmp	 SHORT $LN6@OperateMin
$LN8@OperateMin:

; 1745 : 	{
; 1746 : 		if( this->m_iBlueTeamUserCount != Count )

  050ac	8b 45 f8	 mov	 eax, DWORD PTR _this$[ebp]
  050af	8b 88 cc 03 00
	00		 mov	 ecx, DWORD PTR [eax+972]
  050b5	3b 8d e0 fe ff
	ff		 cmp	 ecx, DWORD PTR _Count$[ebp]
  050bb	74 0f		 je	 SHORT $LN5@OperateMin

; 1747 : 		{
; 1748 : 			this->m_iBlueTeamUserCount = Count;

  050bd	8b 45 f8	 mov	 eax, DWORD PTR _this$[ebp]
  050c0	8b 8d e0 fe ff
	ff		 mov	 ecx, DWORD PTR _Count$[ebp]
  050c6	89 88 cc 03 00
	00		 mov	 DWORD PTR [eax+972], ecx
$LN5@OperateMin:

; 1749 : 		}
; 1750 : 		pMsgHead.m_btCount = this->m_iBlueTeamUserCount;

  050cc	8b 45 f8	 mov	 eax, DWORD PTR _this$[ebp]
  050cf	8a 88 cc 03 00
	00		 mov	 cl, BYTE PTR [eax+972]
  050d5	88 8d f1 fe ff
	ff		 mov	 BYTE PTR _pMsgHead$[ebp+13], cl
$LN6@OperateMin:

; 1751 : 	}
; 1752 : 	
; 1753 : 	PHeadSubSetB((LPBYTE)&pMsgHead, 0xBF, 0x01, iOfs);

  050db	8b 45 f4	 mov	 eax, DWORD PTR _iOfs$[ebp]
  050de	50		 push	 eax
  050df	6a 01		 push	 1
  050e1	68 bf 00 00 00	 push	 191			; 000000bfH
  050e6	8d 8d e4 fe ff
	ff		 lea	 ecx, DWORD PTR _pMsgHead$[ebp]
  050ec	51		 push	 ecx
  050ed	e8 00 00 00 00	 call	 ?PHeadSubSetB@@YAXPAEEEH@Z ; PHeadSubSetB
  050f2	83 c4 10	 add	 esp, 16			; 00000010H

; 1754 : 	
; 1755 : 	memcpy(MessageBuff, &pMsgHead, sizeof(pMsgHead));

  050f5	6a 0e		 push	 14			; 0000000eH
  050f7	8d 85 e4 fe ff
	ff		 lea	 eax, DWORD PTR _pMsgHead$[ebp]
  050fd	50		 push	 eax
  050fe	8d 8d f4 fe ff
	ff		 lea	 ecx, DWORD PTR _MessageBuff$[ebp]
  05104	51		 push	 ecx
  05105	e8 00 00 00 00	 call	 _memcpy
  0510a	83 c4 0c	 add	 esp, 12			; 0000000cH

; 1756 : 	
; 1757 : 	for(int i = 0; i < MAX_FLOOR_USER; i++ )

  0510d	c7 85 d0 fe ff
	ff 00 00 00 00	 mov	 DWORD PTR _i$234587[ebp], 0
  05117	eb 0f		 jmp	 SHORT $LN4@OperateMin
$LN3@OperateMin:
  05119	8b 85 d0 fe ff
	ff		 mov	 eax, DWORD PTR _i$234587[ebp]
  0511f	83 c0 01	 add	 eax, 1
  05122	89 85 d0 fe ff
	ff		 mov	 DWORD PTR _i$234587[ebp], eax
$LN4@OperateMin:
  05128	83 bd d0 fe ff
	ff 0a		 cmp	 DWORD PTR _i$234587[ebp], 10 ; 0000000aH
  0512f	7d 7b		 jge	 SHORT $LN16@OperateMin

; 1758 : 	{
; 1759 : 		if( this->m_FloorData[i].m_iTeamPlayerIndex != OBJ_EMPTY && gObj[this->m_FloorData[i].m_iTeamPlayerIndex].Connected > PLAYER_LOGGED && this->m_FloorData[i].m_btTeamJoinSide == btTeam )		

  05131	8b 85 d0 fe ff
	ff		 mov	 eax, DWORD PTR _i$234587[ebp]
  05137	6b c0 30	 imul	 eax, 48			; 00000030H
  0513a	8b 4d f8	 mov	 ecx, DWORD PTR _this$[ebp]
  0513d	83 7c 01 20 ff	 cmp	 DWORD PTR [ecx+eax+32], -1
  05142	74 63		 je	 SHORT $LN1@OperateMin
  05144	8b 85 d0 fe ff
	ff		 mov	 eax, DWORD PTR _i$234587[ebp]
  0514a	6b c0 30	 imul	 eax, 48			; 00000030H
  0514d	8b 4d f8	 mov	 ecx, DWORD PTR _this$[ebp]
  05150	8b 54 01 20	 mov	 edx, DWORD PTR [ecx+eax+32]
  05154	69 d2 38 2b 00
	00		 imul	 edx, 11064		; 00002b38H
  0515a	a1 00 00 00 00	 mov	 eax, DWORD PTR ?gObj@@3PAUOBJECTSTRUCT@@A ; gObj
  0515f	83 7c 10 04 02	 cmp	 DWORD PTR [eax+edx+4], 2
  05164	7e 41		 jle	 SHORT $LN1@OperateMin
  05166	8b 85 d0 fe ff
	ff		 mov	 eax, DWORD PTR _i$234587[ebp]
  0516c	6b c0 30	 imul	 eax, 48			; 00000030H
  0516f	8b 4d f8	 mov	 ecx, DWORD PTR _this$[ebp]
  05172	0f b6 54 01 24	 movzx	 edx, BYTE PTR [ecx+eax+36]
  05177	0f b6 45 08	 movzx	 eax, BYTE PTR _btTeam$[ebp]
  0517b	3b d0		 cmp	 edx, eax
  0517d	75 28		 jne	 SHORT $LN1@OperateMin

; 1760 : 		{
; 1761 : 			DataSend(this->m_FloorData[i].m_iTeamPlayerIndex, (LPBYTE)MessageBuff, pMsgHead.h.size);

  0517f	0f b6 85 e5 fe
	ff ff		 movzx	 eax, BYTE PTR _pMsgHead$[ebp+1]
  05186	50		 push	 eax
  05187	8d 8d f4 fe ff
	ff		 lea	 ecx, DWORD PTR _MessageBuff$[ebp]
  0518d	51		 push	 ecx
  0518e	8b 95 d0 fe ff
	ff		 mov	 edx, DWORD PTR _i$234587[ebp]
  05194	6b d2 30	 imul	 edx, 48			; 00000030H
  05197	8b 45 f8	 mov	 eax, DWORD PTR _this$[ebp]
  0519a	8b 4c 10 20	 mov	 ecx, DWORD PTR [eax+edx+32]
  0519e	51		 push	 ecx
  0519f	e8 00 00 00 00	 call	 ?DataSend@@YAHHPAEK@Z	; DataSend
  051a4	83 c4 0c	 add	 esp, 12			; 0000000cH
$LN1@OperateMin:

; 1762 : 		}
; 1763 : 	}

  051a7	e9 6d ff ff ff	 jmp	 $LN3@OperateMin
$LN16@OperateMin:

; 1764 : }

  051ac	5f		 pop	 edi
  051ad	5e		 pop	 esi
  051ae	5b		 pop	 ebx
  051af	8b 4d fc	 mov	 ecx, DWORD PTR __$ArrayPad$[ebp]
  051b2	33 cd		 xor	 ecx, ebp
  051b4	e8 00 00 00 00	 call	 @__security_check_cookie@4
  051b9	8b e5		 mov	 esp, ebp
  051bb	5d		 pop	 ebp
  051bc	c2 04 00	 ret	 4
?OperateMiniMapWork@CIllusionTempleProcess@@QAEXE@Z ENDP ; CIllusionTempleProcess::OperateMiniMapWork
; Function compile flags: /Odtp /ZI
_i$234602 = -16					; size = 4
_pMsg$ = -12						; size = 6
_this$ = -4						; size = 4
_btState$ = 8						; size = 1
_aIndex$ = 12						; size = 4
?NotifyTempleInfo@CIllusionTempleProcess@@QAEXEH@Z PROC	; CIllusionTempleProcess::NotifyTempleInfo
; _this$ = ecx

; 1767 : {

  051c0	55		 push	 ebp
  051c1	8b ec		 mov	 ebp, esp
  051c3	83 ec 50	 sub	 esp, 80			; 00000050H
  051c6	53		 push	 ebx
  051c7	56		 push	 esi
  051c8	57		 push	 edi
  051c9	89 4d fc	 mov	 DWORD PTR _this$[ebp], ecx

; 1768 : 	_ILLUSIONTEMPLE_BARRIER pMsg;
; 1769 : 
; 1770 : 	PHeadSubSetB((LPBYTE)&pMsg, 0xBF, 0x09, sizeof(pMsg));

  051cc	6a 06		 push	 6
  051ce	6a 09		 push	 9
  051d0	68 bf 00 00 00	 push	 191			; 000000bfH
  051d5	8d 45 f4	 lea	 eax, DWORD PTR _pMsg$[ebp]
  051d8	50		 push	 eax
  051d9	e8 00 00 00 00	 call	 ?PHeadSubSetB@@YAXPAEEEH@Z ; PHeadSubSetB
  051de	83 c4 10	 add	 esp, 16			; 00000010H

; 1771 : 
; 1772 : 	pMsg.m_btFloorIndex = this->m_btFloorIndex;

  051e1	8b 45 fc	 mov	 eax, DWORD PTR _this$[ebp]
  051e4	8a 88 2c 02 00
	00		 mov	 cl, BYTE PTR [eax+556]
  051ea	88 4d f8	 mov	 BYTE PTR _pMsg$[ebp+4], cl

; 1773 : 	pMsg.m_btState = btState;

  051ed	8a 45 08	 mov	 al, BYTE PTR _btState$[ebp]
  051f0	88 45 f9	 mov	 BYTE PTR _pMsg$[ebp+5], al

; 1774 : 
; 1775 : 	if(aIndex != -1)

  051f3	83 7d 0c ff	 cmp	 DWORD PTR _aIndex$[ebp], -1
  051f7	74 17		 je	 SHORT $LN5@NotifyTemp

; 1776 : 	{
; 1777 : 		DataSend(aIndex,(LPBYTE)&pMsg,pMsg.h.size);

  051f9	0f b6 45 f5	 movzx	 eax, BYTE PTR _pMsg$[ebp+1]
  051fd	50		 push	 eax
  051fe	8d 4d f4	 lea	 ecx, DWORD PTR _pMsg$[ebp]
  05201	51		 push	 ecx
  05202	8b 55 0c	 mov	 edx, DWORD PTR _aIndex$[ebp]
  05205	52		 push	 edx
  05206	e8 00 00 00 00	 call	 ?DataSend@@YAHHPAEK@Z	; DataSend
  0520b	83 c4 0c	 add	 esp, 12			; 0000000cH

; 1778 : 		return;

  0520e	eb 68		 jmp	 SHORT $LN6@NotifyTemp
$LN5@NotifyTemp:

; 1779 : 	}
; 1780 : 
; 1781 : 	for(int i = 0; i < MAX_FLOOR_USER; i++)

  05210	c7 45 f0 00 00
	00 00		 mov	 DWORD PTR _i$234602[ebp], 0
  05217	eb 09		 jmp	 SHORT $LN4@NotifyTemp
$LN3@NotifyTemp:
  05219	8b 45 f0	 mov	 eax, DWORD PTR _i$234602[ebp]
  0521c	83 c0 01	 add	 eax, 1
  0521f	89 45 f0	 mov	 DWORD PTR _i$234602[ebp], eax
$LN4@NotifyTemp:
  05222	83 7d f0 0a	 cmp	 DWORD PTR _i$234602[ebp], 10 ; 0000000aH
  05226	7d 50		 jge	 SHORT $LN6@NotifyTemp

; 1782 : 	{
; 1783 : 		if(this->m_FloorData[i].m_iTeamPlayerIndex != -1 && gObj[this->m_FloorData[i].m_iTeamPlayerIndex].Connected > PLAYER_LOGGED)

  05228	8b 45 f0	 mov	 eax, DWORD PTR _i$234602[ebp]
  0522b	6b c0 30	 imul	 eax, 48			; 00000030H
  0522e	8b 4d fc	 mov	 ecx, DWORD PTR _this$[ebp]
  05231	83 7c 01 20 ff	 cmp	 DWORD PTR [ecx+eax+32], -1
  05236	74 3e		 je	 SHORT $LN1@NotifyTemp
  05238	8b 45 f0	 mov	 eax, DWORD PTR _i$234602[ebp]
  0523b	6b c0 30	 imul	 eax, 48			; 00000030H
  0523e	8b 4d fc	 mov	 ecx, DWORD PTR _this$[ebp]
  05241	8b 54 01 20	 mov	 edx, DWORD PTR [ecx+eax+32]
  05245	69 d2 38 2b 00
	00		 imul	 edx, 11064		; 00002b38H
  0524b	a1 00 00 00 00	 mov	 eax, DWORD PTR ?gObj@@3PAUOBJECTSTRUCT@@A ; gObj
  05250	83 7c 10 04 02	 cmp	 DWORD PTR [eax+edx+4], 2
  05255	7e 1f		 jle	 SHORT $LN1@NotifyTemp

; 1784 : 		{
; 1785 : 			DataSend(this->m_FloorData[i].m_iTeamPlayerIndex,(LPBYTE)&pMsg,pMsg.h.size);

  05257	0f b6 45 f5	 movzx	 eax, BYTE PTR _pMsg$[ebp+1]
  0525b	50		 push	 eax
  0525c	8d 4d f4	 lea	 ecx, DWORD PTR _pMsg$[ebp]
  0525f	51		 push	 ecx
  05260	8b 55 f0	 mov	 edx, DWORD PTR _i$234602[ebp]
  05263	6b d2 30	 imul	 edx, 48			; 00000030H
  05266	8b 45 fc	 mov	 eax, DWORD PTR _this$[ebp]
  05269	8b 4c 10 20	 mov	 ecx, DWORD PTR [eax+edx+32]
  0526d	51		 push	 ecx
  0526e	e8 00 00 00 00	 call	 ?DataSend@@YAHHPAEK@Z	; DataSend
  05273	83 c4 0c	 add	 esp, 12			; 0000000cH
$LN1@NotifyTemp:

; 1786 : 		}
; 1787 : 	}

  05276	eb a1		 jmp	 SHORT $LN3@NotifyTemp
$LN6@NotifyTemp:

; 1788 : }

  05278	5f		 pop	 edi
  05279	5e		 pop	 esi
  0527a	5b		 pop	 ebx
  0527b	8b e5		 mov	 esp, ebp
  0527d	5d		 pop	 ebp
  0527e	c2 08 00	 ret	 8
?NotifyTempleInfo@CIllusionTempleProcess@@QAEXEH@Z ENDP	; CIllusionTempleProcess::NotifyTempleInfo
_TEXT	ENDS
PUBLIC	?__LINE__Var@?1??GetUserJoinSide@CIllusionTempleProcess@@QAEEH@Z@4JA ; `CIllusionTempleProcess::GetUserJoinSide'::`2'::__LINE__Var
PUBLIC	?GetUserJoinSide@CIllusionTempleProcess@@QAEEH@Z ; CIllusionTempleProcess::GetUserJoinSide
;	COMDAT ?__LINE__Var@?1??GetUserJoinSide@CIllusionTempleProcess@@QAEEH@Z@4JA
_DATA	SEGMENT
?__LINE__Var@?1??GetUserJoinSide@CIllusionTempleProcess@@QAEEH@Z@4JA DD 06ffH ; `CIllusionTempleProcess::GetUserJoinSide'::`2'::__LINE__Var
; Function compile flags: /Odtp /ZI
_DATA	ENDS
_TEXT	SEGMENT
tv67 = -72						; size = 4
_this$ = -4						; size = 4
_aIndex$ = 8						; size = 4
?GetUserJoinSide@CIllusionTempleProcess@@QAEEH@Z PROC	; CIllusionTempleProcess::GetUserJoinSide
; _this$ = ecx

; 1791 : {

  05290	55		 push	 ebp
  05291	8b ec		 mov	 ebp, esp
  05293	83 ec 48	 sub	 esp, 72			; 00000048H
  05296	53		 push	 ebx
  05297	56		 push	 esi
  05298	57		 push	 edi
  05299	89 4d fc	 mov	 DWORD PTR _this$[ebp], ecx

; 1792 : 	if( OBJMAX_RANGE(aIndex) == FALSE )

  0529c	83 7d 08 00	 cmp	 DWORD PTR _aIndex$[ebp], 0
  052a0	7d 09		 jge	 SHORT $LN7@GetUserJoi
  052a2	c7 45 b8 00 00
	00 00		 mov	 DWORD PTR tv67[ebp], 0
  052a9	eb 0f		 jmp	 SHORT $LN8@GetUserJoi
$LN7@GetUserJoi:
  052ab	33 c0		 xor	 eax, eax
  052ad	81 7d 08 97 3a
	00 00		 cmp	 DWORD PTR _aIndex$[ebp], 14999 ; 00003a97H
  052b4	0f 9e c0	 setle	 al
  052b7	89 45 b8	 mov	 DWORD PTR tv67[ebp], eax
$LN8@GetUserJoi:
  052ba	83 7d b8 00	 cmp	 DWORD PTR tv67[ebp], 0
  052be	75 20		 jne	 SHORT $LN4@GetUserJoi

; 1793 : 	{
; 1794 : 		LogAdd("return %s %d", __FILE__, __LINE__);

  052c0	a1 00 00 00 00	 mov	 eax, DWORD PTR ?__LINE__Var@?1??GetUserJoinSide@CIllusionTempleProcess@@QAEEH@Z@4JA
  052c5	83 c0 03	 add	 eax, 3
  052c8	50		 push	 eax
  052c9	68 00 00 00 00	 push	 OFFSET ??_C@_0EN@FIHDICBF@d?3?2projects?2exteam6?43?2source?2gam@
  052ce	68 00 00 00 00	 push	 OFFSET ??_C@_0N@GGPGOPEN@return?5?$CFs?5?$CFd?$AA@
  052d3	ff 15 00 00 00
	00		 call	 DWORD PTR ?LogAdd@@3P6AXPADZZA ; LogAdd
  052d9	83 c4 0c	 add	 esp, 12			; 0000000cH

; 1795 : 		return -1;

  052dc	0c ff		 or	 al, 255			; 000000ffH
  052de	eb 78		 jmp	 SHORT $LN5@GetUserJoi
$LN4@GetUserJoi:

; 1796 : 	}
; 1797 : 
; 1798 : 	if(gObj[aIndex].m_iIllusionTempleIndex != -1)

  052e0	8b 45 08	 mov	 eax, DWORD PTR _aIndex$[ebp]
  052e3	69 c0 38 2b 00
	00		 imul	 eax, 11064		; 00002b38H
  052e9	8b 0d 00 00 00
	00		 mov	 ecx, DWORD PTR ?gObj@@3PAUOBJECTSTRUCT@@A ; gObj
  052ef	83 bc 01 78 20
	00 00 ff	 cmp	 DWORD PTR [ecx+eax+8312], -1
  052f7	74 5d		 je	 SHORT $LN3@GetUserJoi

; 1799 : 	{
; 1800 : 		if(this->m_FloorData[gObj[aIndex].m_iIllusionTempleIndex].m_iTeamPlayerIndex == aIndex || gObj[aIndex].Connected > PLAYER_LOGGED)

  052f9	8b 45 08	 mov	 eax, DWORD PTR _aIndex$[ebp]
  052fc	69 c0 38 2b 00
	00		 imul	 eax, 11064		; 00002b38H
  05302	8b 0d 00 00 00
	00		 mov	 ecx, DWORD PTR ?gObj@@3PAUOBJECTSTRUCT@@A ; gObj
  05308	8b 94 01 78 20
	00 00		 mov	 edx, DWORD PTR [ecx+eax+8312]
  0530f	6b d2 30	 imul	 edx, 48			; 00000030H
  05312	8b 45 fc	 mov	 eax, DWORD PTR _this$[ebp]
  05315	8b 4c 10 20	 mov	 ecx, DWORD PTR [eax+edx+32]
  05319	3b 4d 08	 cmp	 ecx, DWORD PTR _aIndex$[ebp]
  0531c	74 16		 je	 SHORT $LN1@GetUserJoi
  0531e	8b 45 08	 mov	 eax, DWORD PTR _aIndex$[ebp]
  05321	69 c0 38 2b 00
	00		 imul	 eax, 11064		; 00002b38H
  05327	8b 0d 00 00 00
	00		 mov	 ecx, DWORD PTR ?gObj@@3PAUOBJECTSTRUCT@@A ; gObj
  0532d	83 7c 01 04 02	 cmp	 DWORD PTR [ecx+eax+4], 2
  05332	7e 22		 jle	 SHORT $LN3@GetUserJoi
$LN1@GetUserJoi:

; 1801 : 		{
; 1802 : 			return this->m_FloorData[gObj[aIndex].m_iIllusionTempleIndex].m_btTeamJoinSide;

  05334	8b 45 08	 mov	 eax, DWORD PTR _aIndex$[ebp]
  05337	69 c0 38 2b 00
	00		 imul	 eax, 11064		; 00002b38H
  0533d	8b 0d 00 00 00
	00		 mov	 ecx, DWORD PTR ?gObj@@3PAUOBJECTSTRUCT@@A ; gObj
  05343	8b 94 01 78 20
	00 00		 mov	 edx, DWORD PTR [ecx+eax+8312]
  0534a	6b d2 30	 imul	 edx, 48			; 00000030H
  0534d	8b 45 fc	 mov	 eax, DWORD PTR _this$[ebp]
  05350	8a 44 10 24	 mov	 al, BYTE PTR [eax+edx+36]
  05354	eb 02		 jmp	 SHORT $LN5@GetUserJoi
$LN3@GetUserJoi:

; 1803 : 		}
; 1804 : 	}
; 1805 : 
; 1806 : 	return -1;

  05356	0c ff		 or	 al, 255			; 000000ffH
$LN5@GetUserJoi:

; 1807 : }

  05358	5f		 pop	 edi
  05359	5e		 pop	 esi
  0535a	5b		 pop	 ebx
  0535b	8b e5		 mov	 esp, ebp
  0535d	5d		 pop	 ebp
  0535e	c2 04 00	 ret	 4
?GetUserJoinSide@CIllusionTempleProcess@@QAEEH@Z ENDP	; CIllusionTempleProcess::GetUserJoinSide
_TEXT	ENDS
PUBLIC	?__LINE__Var@?1??AddKillPointToUser@CIllusionTempleProcess@@QAEEHE@Z@4JA ; `CIllusionTempleProcess::AddKillPointToUser'::`2'::__LINE__Var
PUBLIC	?AddKillPointToUser@CIllusionTempleProcess@@QAEEHE@Z ; CIllusionTempleProcess::AddKillPointToUser
;	COMDAT ?__LINE__Var@?1??AddKillPointToUser@CIllusionTempleProcess@@QAEEHE@Z@4JA
_DATA	SEGMENT
?__LINE__Var@?1??AddKillPointToUser@CIllusionTempleProcess@@QAEEHE@Z@4JA DD 0712H ; `CIllusionTempleProcess::AddKillPointToUser'::`2'::__LINE__Var
; Function compile flags: /Odtp /ZI
_DATA	ENDS
_TEXT	SEGMENT
tv67 = -72						; size = 4
_this$ = -4						; size = 4
_aIndex$ = 8						; size = 4
_btPoint$ = 12						; size = 1
?AddKillPointToUser@CIllusionTempleProcess@@QAEEHE@Z PROC ; CIllusionTempleProcess::AddKillPointToUser
; _this$ = ecx

; 1810 : {

  05370	55		 push	 ebp
  05371	8b ec		 mov	 ebp, esp
  05373	83 ec 48	 sub	 esp, 72			; 00000048H
  05376	53		 push	 ebx
  05377	56		 push	 esi
  05378	57		 push	 edi
  05379	89 4d fc	 mov	 DWORD PTR _this$[ebp], ecx

; 1811 : 	if( OBJMAX_RANGE(aIndex) == FALSE )

  0537c	83 7d 08 00	 cmp	 DWORD PTR _aIndex$[ebp], 0
  05380	7d 09		 jge	 SHORT $LN8@AddKillPoi
  05382	c7 45 b8 00 00
	00 00		 mov	 DWORD PTR tv67[ebp], 0
  05389	eb 0f		 jmp	 SHORT $LN9@AddKillPoi
$LN8@AddKillPoi:
  0538b	33 c0		 xor	 eax, eax
  0538d	81 7d 08 97 3a
	00 00		 cmp	 DWORD PTR _aIndex$[ebp], 14999 ; 00003a97H
  05394	0f 9e c0	 setle	 al
  05397	89 45 b8	 mov	 DWORD PTR tv67[ebp], eax
$LN9@AddKillPoi:
  0539a	83 7d b8 00	 cmp	 DWORD PTR tv67[ebp], 0
  0539e	75 23		 jne	 SHORT $LN5@AddKillPoi

; 1812 : 	{
; 1813 : 		LogAdd("return %s %d", __FILE__, __LINE__);

  053a0	a1 00 00 00 00	 mov	 eax, DWORD PTR ?__LINE__Var@?1??AddKillPointToUser@CIllusionTempleProcess@@QAEEHE@Z@4JA
  053a5	83 c0 03	 add	 eax, 3
  053a8	50		 push	 eax
  053a9	68 00 00 00 00	 push	 OFFSET ??_C@_0EN@FIHDICBF@d?3?2projects?2exteam6?43?2source?2gam@
  053ae	68 00 00 00 00	 push	 OFFSET ??_C@_0N@GGPGOPEN@return?5?$CFs?5?$CFd?$AA@
  053b3	ff 15 00 00 00
	00		 call	 DWORD PTR ?LogAdd@@3P6AXPADZZA ; LogAdd
  053b9	83 c4 0c	 add	 esp, 12			; 0000000cH

; 1814 : 		return FALSE;

  053bc	32 c0		 xor	 al, al
  053be	e9 0e 01 00 00	 jmp	 $LN6@AddKillPoi
$LN5@AddKillPoi:

; 1815 : 	}
; 1816 : 
; 1817 : 	if(gObj[aIndex].m_iIllusionTempleIndex != -1)

  053c3	8b 45 08	 mov	 eax, DWORD PTR _aIndex$[ebp]
  053c6	69 c0 38 2b 00
	00		 imul	 eax, 11064		; 00002b38H
  053cc	8b 0d 00 00 00
	00		 mov	 ecx, DWORD PTR ?gObj@@3PAUOBJECTSTRUCT@@A ; gObj
  053d2	83 bc 01 78 20
	00 00 ff	 cmp	 DWORD PTR [ecx+eax+8312], -1
  053da	0f 84 ef 00 00
	00		 je	 $LN4@AddKillPoi

; 1818 : 	{
; 1819 : 		if(this->m_FloorData[gObj[aIndex].m_iIllusionTempleIndex].m_iTeamPlayerIndex == aIndex || gObj[aIndex].Connected > PLAYER_LOGGED)

  053e0	8b 45 08	 mov	 eax, DWORD PTR _aIndex$[ebp]
  053e3	69 c0 38 2b 00
	00		 imul	 eax, 11064		; 00002b38H
  053e9	8b 0d 00 00 00
	00		 mov	 ecx, DWORD PTR ?gObj@@3PAUOBJECTSTRUCT@@A ; gObj
  053ef	8b 94 01 78 20
	00 00		 mov	 edx, DWORD PTR [ecx+eax+8312]
  053f6	6b d2 30	 imul	 edx, 48			; 00000030H
  053f9	8b 45 fc	 mov	 eax, DWORD PTR _this$[ebp]
  053fc	8b 4c 10 20	 mov	 ecx, DWORD PTR [eax+edx+32]
  05400	3b 4d 08	 cmp	 ecx, DWORD PTR _aIndex$[ebp]
  05403	74 1a		 je	 SHORT $LN2@AddKillPoi
  05405	8b 45 08	 mov	 eax, DWORD PTR _aIndex$[ebp]
  05408	69 c0 38 2b 00
	00		 imul	 eax, 11064		; 00002b38H
  0540e	8b 0d 00 00 00
	00		 mov	 ecx, DWORD PTR ?gObj@@3PAUOBJECTSTRUCT@@A ; gObj
  05414	83 7c 01 04 02	 cmp	 DWORD PTR [ecx+eax+4], 2
  05419	0f 8e b0 00 00
	00		 jle	 $LN4@AddKillPoi
$LN2@AddKillPoi:

; 1820 : 		{
; 1821 : 			this->m_FloorData[gObj[aIndex].m_iIllusionTempleIndex].m_btKillCountPoint += btPoint;

  0541f	8b 45 08	 mov	 eax, DWORD PTR _aIndex$[ebp]
  05422	69 c0 38 2b 00
	00		 imul	 eax, 11064		; 00002b38H
  05428	8b 0d 00 00 00
	00		 mov	 ecx, DWORD PTR ?gObj@@3PAUOBJECTSTRUCT@@A ; gObj
  0542e	8b 94 01 78 20
	00 00		 mov	 edx, DWORD PTR [ecx+eax+8312]
  05435	6b d2 30	 imul	 edx, 48			; 00000030H
  05438	0f b6 45 0c	 movzx	 eax, BYTE PTR _btPoint$[ebp]
  0543c	8b 4d fc	 mov	 ecx, DWORD PTR _this$[ebp]
  0543f	0f b6 54 11 25	 movzx	 edx, BYTE PTR [ecx+edx+37]
  05444	03 d0		 add	 edx, eax
  05446	8b 45 08	 mov	 eax, DWORD PTR _aIndex$[ebp]
  05449	69 c0 38 2b 00
	00		 imul	 eax, 11064		; 00002b38H
  0544f	8b 0d 00 00 00
	00		 mov	 ecx, DWORD PTR ?gObj@@3PAUOBJECTSTRUCT@@A ; gObj
  05455	8b 84 01 78 20
	00 00		 mov	 eax, DWORD PTR [ecx+eax+8312]
  0545c	6b c0 30	 imul	 eax, 48			; 00000030H
  0545f	8b 4d fc	 mov	 ecx, DWORD PTR _this$[ebp]
  05462	88 54 01 25	 mov	 BYTE PTR [ecx+eax+37], dl

; 1822 : 
; 1823 : 			if(this->m_FloorData[gObj[aIndex].m_iIllusionTempleIndex].m_btKillCountPoint > 90)

  05466	8b 45 08	 mov	 eax, DWORD PTR _aIndex$[ebp]
  05469	69 c0 38 2b 00
	00		 imul	 eax, 11064		; 00002b38H
  0546f	8b 0d 00 00 00
	00		 mov	 ecx, DWORD PTR ?gObj@@3PAUOBJECTSTRUCT@@A ; gObj
  05475	8b 94 01 78 20
	00 00		 mov	 edx, DWORD PTR [ecx+eax+8312]
  0547c	6b d2 30	 imul	 edx, 48			; 00000030H
  0547f	8b 45 fc	 mov	 eax, DWORD PTR _this$[ebp]
  05482	0f b6 4c 10 25	 movzx	 ecx, BYTE PTR [eax+edx+37]
  05487	83 f9 5a	 cmp	 ecx, 90			; 0000005aH
  0548a	7e 21		 jle	 SHORT $LN1@AddKillPoi

; 1824 : 			{
; 1825 : 				this->m_FloorData[gObj[aIndex].m_iIllusionTempleIndex].m_btKillCountPoint = 90;

  0548c	8b 45 08	 mov	 eax, DWORD PTR _aIndex$[ebp]
  0548f	69 c0 38 2b 00
	00		 imul	 eax, 11064		; 00002b38H
  05495	8b 0d 00 00 00
	00		 mov	 ecx, DWORD PTR ?gObj@@3PAUOBJECTSTRUCT@@A ; gObj
  0549b	8b 94 01 78 20
	00 00		 mov	 edx, DWORD PTR [ecx+eax+8312]
  054a2	6b d2 30	 imul	 edx, 48			; 00000030H
  054a5	8b 45 fc	 mov	 eax, DWORD PTR _this$[ebp]
  054a8	c6 44 10 25 5a	 mov	 BYTE PTR [eax+edx+37], 90 ; 0000005aH
$LN1@AddKillPoi:

; 1826 : 			}
; 1827 : 
; 1828 : 			return this->m_FloorData[gObj[aIndex].m_iIllusionTempleIndex].m_btKillCountPoint;

  054ad	8b 45 08	 mov	 eax, DWORD PTR _aIndex$[ebp]
  054b0	69 c0 38 2b 00
	00		 imul	 eax, 11064		; 00002b38H
  054b6	8b 0d 00 00 00
	00		 mov	 ecx, DWORD PTR ?gObj@@3PAUOBJECTSTRUCT@@A ; gObj
  054bc	8b 94 01 78 20
	00 00		 mov	 edx, DWORD PTR [ecx+eax+8312]
  054c3	6b d2 30	 imul	 edx, 48			; 00000030H
  054c6	8b 45 fc	 mov	 eax, DWORD PTR _this$[ebp]
  054c9	8a 44 10 25	 mov	 al, BYTE PTR [eax+edx+37]
  054cd	eb 02		 jmp	 SHORT $LN6@AddKillPoi
$LN4@AddKillPoi:

; 1829 : 		}
; 1830 : 	}
; 1831 : 
; 1832 : 	return FALSE;

  054cf	32 c0		 xor	 al, al
$LN6@AddKillPoi:

; 1833 : }

  054d1	5f		 pop	 edi
  054d2	5e		 pop	 esi
  054d3	5b		 pop	 ebx
  054d4	8b e5		 mov	 esp, ebp
  054d6	5d		 pop	 ebp
  054d7	c2 08 00	 ret	 8
?AddKillPointToUser@CIllusionTempleProcess@@QAEEHE@Z ENDP ; CIllusionTempleProcess::AddKillPointToUser
_TEXT	ENDS
PUBLIC	?__LINE__Var@?1??RemoveKillPointFromUser@CIllusionTempleProcess@@QAEEHE@Z@4JA ; `CIllusionTempleProcess::RemoveKillPointFromUser'::`2'::__LINE__Var
PUBLIC	?RemoveKillPointFromUser@CIllusionTempleProcess@@QAEEHE@Z ; CIllusionTempleProcess::RemoveKillPointFromUser
;	COMDAT ?__LINE__Var@?1??RemoveKillPointFromUser@CIllusionTempleProcess@@QAEEHE@Z@4JA
_DATA	SEGMENT
?__LINE__Var@?1??RemoveKillPointFromUser@CIllusionTempleProcess@@QAEEHE@Z@4JA DD 072cH ; `CIllusionTempleProcess::RemoveKillPointFromUser'::`2'::__LINE__Var
; Function compile flags: /Odtp /ZI
_DATA	ENDS
_TEXT	SEGMENT
tv67 = -72						; size = 4
_this$ = -4						; size = 4
_aIndex$ = 8						; size = 4
_btPoint$ = 12						; size = 1
?RemoveKillPointFromUser@CIllusionTempleProcess@@QAEEHE@Z PROC ; CIllusionTempleProcess::RemoveKillPointFromUser
; _this$ = ecx

; 1836 : {

  054e0	55		 push	 ebp
  054e1	8b ec		 mov	 ebp, esp
  054e3	83 ec 48	 sub	 esp, 72			; 00000048H
  054e6	53		 push	 ebx
  054e7	56		 push	 esi
  054e8	57		 push	 edi
  054e9	89 4d fc	 mov	 DWORD PTR _this$[ebp], ecx

; 1837 : 	if( OBJMAX_RANGE(aIndex) == FALSE )

  054ec	83 7d 08 00	 cmp	 DWORD PTR _aIndex$[ebp], 0
  054f0	7d 09		 jge	 SHORT $LN8@RemoveKill
  054f2	c7 45 b8 00 00
	00 00		 mov	 DWORD PTR tv67[ebp], 0
  054f9	eb 0f		 jmp	 SHORT $LN9@RemoveKill
$LN8@RemoveKill:
  054fb	33 c0		 xor	 eax, eax
  054fd	81 7d 08 97 3a
	00 00		 cmp	 DWORD PTR _aIndex$[ebp], 14999 ; 00003a97H
  05504	0f 9e c0	 setle	 al
  05507	89 45 b8	 mov	 DWORD PTR tv67[ebp], eax
$LN9@RemoveKill:
  0550a	83 7d b8 00	 cmp	 DWORD PTR tv67[ebp], 0
  0550e	75 23		 jne	 SHORT $LN5@RemoveKill

; 1838 : 	{
; 1839 : 		LogAdd("return %s %d", __FILE__, __LINE__);

  05510	a1 00 00 00 00	 mov	 eax, DWORD PTR ?__LINE__Var@?1??RemoveKillPointFromUser@CIllusionTempleProcess@@QAEEHE@Z@4JA
  05515	83 c0 03	 add	 eax, 3
  05518	50		 push	 eax
  05519	68 00 00 00 00	 push	 OFFSET ??_C@_0EN@FIHDICBF@d?3?2projects?2exteam6?43?2source?2gam@
  0551e	68 00 00 00 00	 push	 OFFSET ??_C@_0N@GGPGOPEN@return?5?$CFs?5?$CFd?$AA@
  05523	ff 15 00 00 00
	00		 call	 DWORD PTR ?LogAdd@@3P6AXPADZZA ; LogAdd
  05529	83 c4 0c	 add	 esp, 12			; 0000000cH

; 1840 : 		return FALSE;

  0552c	32 c0		 xor	 al, al
  0552e	e9 f0 00 00 00	 jmp	 $LN6@RemoveKill
$LN5@RemoveKill:

; 1841 : 	}
; 1842 : 
; 1843 : 	if(gObj[aIndex].m_iIllusionTempleIndex != -1)

  05533	8b 45 08	 mov	 eax, DWORD PTR _aIndex$[ebp]
  05536	69 c0 38 2b 00
	00		 imul	 eax, 11064		; 00002b38H
  0553c	8b 0d 00 00 00
	00		 mov	 ecx, DWORD PTR ?gObj@@3PAUOBJECTSTRUCT@@A ; gObj
  05542	83 bc 01 78 20
	00 00 ff	 cmp	 DWORD PTR [ecx+eax+8312], -1
  0554a	0f 84 d1 00 00
	00		 je	 $LN4@RemoveKill

; 1844 : 	{
; 1845 : 		if(this->m_FloorData[gObj[aIndex].m_iIllusionTempleIndex].m_iTeamPlayerIndex == aIndex || gObj[aIndex].Connected > PLAYER_LOGGED)

  05550	8b 45 08	 mov	 eax, DWORD PTR _aIndex$[ebp]
  05553	69 c0 38 2b 00
	00		 imul	 eax, 11064		; 00002b38H
  05559	8b 0d 00 00 00
	00		 mov	 ecx, DWORD PTR ?gObj@@3PAUOBJECTSTRUCT@@A ; gObj
  0555f	8b 94 01 78 20
	00 00		 mov	 edx, DWORD PTR [ecx+eax+8312]
  05566	6b d2 30	 imul	 edx, 48			; 00000030H
  05569	8b 45 fc	 mov	 eax, DWORD PTR _this$[ebp]
  0556c	8b 4c 10 20	 mov	 ecx, DWORD PTR [eax+edx+32]
  05570	3b 4d 08	 cmp	 ecx, DWORD PTR _aIndex$[ebp]
  05573	74 1a		 je	 SHORT $LN2@RemoveKill
  05575	8b 45 08	 mov	 eax, DWORD PTR _aIndex$[ebp]
  05578	69 c0 38 2b 00
	00		 imul	 eax, 11064		; 00002b38H
  0557e	8b 0d 00 00 00
	00		 mov	 ecx, DWORD PTR ?gObj@@3PAUOBJECTSTRUCT@@A ; gObj
  05584	83 7c 01 04 02	 cmp	 DWORD PTR [ecx+eax+4], 2
  05589	0f 8e 92 00 00
	00		 jle	 $LN4@RemoveKill
$LN2@RemoveKill:

; 1846 : 		{
; 1847 : 			if(this->m_FloorData[gObj[aIndex].m_iIllusionTempleIndex].m_btKillCountPoint >= btPoint)

  0558f	8b 45 08	 mov	 eax, DWORD PTR _aIndex$[ebp]
  05592	69 c0 38 2b 00
	00		 imul	 eax, 11064		; 00002b38H
  05598	8b 0d 00 00 00
	00		 mov	 ecx, DWORD PTR ?gObj@@3PAUOBJECTSTRUCT@@A ; gObj
  0559e	8b 94 01 78 20
	00 00		 mov	 edx, DWORD PTR [ecx+eax+8312]
  055a5	6b d2 30	 imul	 edx, 48			; 00000030H
  055a8	8b 45 fc	 mov	 eax, DWORD PTR _this$[ebp]
  055ab	0f b6 4c 10 25	 movzx	 ecx, BYTE PTR [eax+edx+37]
  055b0	0f b6 55 0c	 movzx	 edx, BYTE PTR _btPoint$[ebp]
  055b4	3b ca		 cmp	 ecx, edx
  055b6	7c 69		 jl	 SHORT $LN4@RemoveKill

; 1848 : 			{
; 1849 : 				this->m_FloorData[gObj[aIndex].m_iIllusionTempleIndex].m_btKillCountPoint-= btPoint;

  055b8	8b 45 08	 mov	 eax, DWORD PTR _aIndex$[ebp]
  055bb	69 c0 38 2b 00
	00		 imul	 eax, 11064		; 00002b38H
  055c1	8b 0d 00 00 00
	00		 mov	 ecx, DWORD PTR ?gObj@@3PAUOBJECTSTRUCT@@A ; gObj
  055c7	8b 94 01 78 20
	00 00		 mov	 edx, DWORD PTR [ecx+eax+8312]
  055ce	6b d2 30	 imul	 edx, 48			; 00000030H
  055d1	0f b6 45 0c	 movzx	 eax, BYTE PTR _btPoint$[ebp]
  055d5	8b 4d fc	 mov	 ecx, DWORD PTR _this$[ebp]
  055d8	0f b6 54 11 25	 movzx	 edx, BYTE PTR [ecx+edx+37]
  055dd	2b d0		 sub	 edx, eax
  055df	8b 45 08	 mov	 eax, DWORD PTR _aIndex$[ebp]
  055e2	69 c0 38 2b 00
	00		 imul	 eax, 11064		; 00002b38H
  055e8	8b 0d 00 00 00
	00		 mov	 ecx, DWORD PTR ?gObj@@3PAUOBJECTSTRUCT@@A ; gObj
  055ee	8b 84 01 78 20
	00 00		 mov	 eax, DWORD PTR [ecx+eax+8312]
  055f5	6b c0 30	 imul	 eax, 48			; 00000030H
  055f8	8b 4d fc	 mov	 ecx, DWORD PTR _this$[ebp]
  055fb	88 54 01 25	 mov	 BYTE PTR [ecx+eax+37], dl

; 1850 : 				return this->m_FloorData[gObj[aIndex].m_iIllusionTempleIndex].m_btKillCountPoint;

  055ff	8b 45 08	 mov	 eax, DWORD PTR _aIndex$[ebp]
  05602	69 c0 38 2b 00
	00		 imul	 eax, 11064		; 00002b38H
  05608	8b 0d 00 00 00
	00		 mov	 ecx, DWORD PTR ?gObj@@3PAUOBJECTSTRUCT@@A ; gObj
  0560e	8b 94 01 78 20
	00 00		 mov	 edx, DWORD PTR [ecx+eax+8312]
  05615	6b d2 30	 imul	 edx, 48			; 00000030H
  05618	8b 45 fc	 mov	 eax, DWORD PTR _this$[ebp]
  0561b	8a 44 10 25	 mov	 al, BYTE PTR [eax+edx+37]
  0561f	eb 02		 jmp	 SHORT $LN6@RemoveKill
$LN4@RemoveKill:

; 1851 : 			}
; 1852 : 		}
; 1853 : 	}
; 1854 : 
; 1855 : 	return FALSE;

  05621	32 c0		 xor	 al, al
$LN6@RemoveKill:

; 1856 : }

  05623	5f		 pop	 edi
  05624	5e		 pop	 esi
  05625	5b		 pop	 ebx
  05626	8b e5		 mov	 esp, ebp
  05628	5d		 pop	 ebp
  05629	c2 08 00	 ret	 8
?RemoveKillPointFromUser@CIllusionTempleProcess@@QAEEHE@Z ENDP ; CIllusionTempleProcess::RemoveKillPointFromUser
_TEXT	ENDS
PUBLIC	?__LINE__Var@?1??GetKillCountPointFromUser@CIllusionTempleProcess@@QAEEH@Z@4JA ; `CIllusionTempleProcess::GetKillCountPointFromUser'::`2'::__LINE__Var
PUBLIC	?GetKillCountPointFromUser@CIllusionTempleProcess@@QAEEH@Z ; CIllusionTempleProcess::GetKillCountPointFromUser
;	COMDAT ?__LINE__Var@?1??GetKillCountPointFromUser@CIllusionTempleProcess@@QAEEH@Z@4JA
_DATA	SEGMENT
?__LINE__Var@?1??GetKillCountPointFromUser@CIllusionTempleProcess@@QAEEH@Z@4JA DD 0743H ; `CIllusionTempleProcess::GetKillCountPointFromUser'::`2'::__LINE__Var
; Function compile flags: /Odtp /ZI
_DATA	ENDS
_TEXT	SEGMENT
tv67 = -72						; size = 4
_this$ = -4						; size = 4
_aIndex$ = 8						; size = 4
?GetKillCountPointFromUser@CIllusionTempleProcess@@QAEEH@Z PROC ; CIllusionTempleProcess::GetKillCountPointFromUser
; _this$ = ecx

; 1859 : {

  05630	55		 push	 ebp
  05631	8b ec		 mov	 ebp, esp
  05633	83 ec 48	 sub	 esp, 72			; 00000048H
  05636	53		 push	 ebx
  05637	56		 push	 esi
  05638	57		 push	 edi
  05639	89 4d fc	 mov	 DWORD PTR _this$[ebp], ecx

; 1860 : 	if( OBJMAX_RANGE(aIndex) == FALSE )

  0563c	83 7d 08 00	 cmp	 DWORD PTR _aIndex$[ebp], 0
  05640	7d 09		 jge	 SHORT $LN7@GetKillCou
  05642	c7 45 b8 00 00
	00 00		 mov	 DWORD PTR tv67[ebp], 0
  05649	eb 0f		 jmp	 SHORT $LN8@GetKillCou
$LN7@GetKillCou:
  0564b	33 c0		 xor	 eax, eax
  0564d	81 7d 08 97 3a
	00 00		 cmp	 DWORD PTR _aIndex$[ebp], 14999 ; 00003a97H
  05654	0f 9e c0	 setle	 al
  05657	89 45 b8	 mov	 DWORD PTR tv67[ebp], eax
$LN8@GetKillCou:
  0565a	83 7d b8 00	 cmp	 DWORD PTR tv67[ebp], 0
  0565e	75 20		 jne	 SHORT $LN4@GetKillCou

; 1861 : 	{
; 1862 : 		LogAdd("return %s %d", __FILE__, __LINE__);

  05660	a1 00 00 00 00	 mov	 eax, DWORD PTR ?__LINE__Var@?1??GetKillCountPointFromUser@CIllusionTempleProcess@@QAEEH@Z@4JA
  05665	83 c0 03	 add	 eax, 3
  05668	50		 push	 eax
  05669	68 00 00 00 00	 push	 OFFSET ??_C@_0EN@FIHDICBF@d?3?2projects?2exteam6?43?2source?2gam@
  0566e	68 00 00 00 00	 push	 OFFSET ??_C@_0N@GGPGOPEN@return?5?$CFs?5?$CFd?$AA@
  05673	ff 15 00 00 00
	00		 call	 DWORD PTR ?LogAdd@@3P6AXPADZZA ; LogAdd
  05679	83 c4 0c	 add	 esp, 12			; 0000000cH

; 1863 : 		return FALSE;

  0567c	32 c0		 xor	 al, al
  0567e	eb 78		 jmp	 SHORT $LN5@GetKillCou
$LN4@GetKillCou:

; 1864 : 	}
; 1865 : 
; 1866 : 	if(gObj[aIndex].m_iIllusionTempleIndex != -1)

  05680	8b 45 08	 mov	 eax, DWORD PTR _aIndex$[ebp]
  05683	69 c0 38 2b 00
	00		 imul	 eax, 11064		; 00002b38H
  05689	8b 0d 00 00 00
	00		 mov	 ecx, DWORD PTR ?gObj@@3PAUOBJECTSTRUCT@@A ; gObj
  0568f	83 bc 01 78 20
	00 00 ff	 cmp	 DWORD PTR [ecx+eax+8312], -1
  05697	74 5d		 je	 SHORT $LN3@GetKillCou

; 1867 : 	{
; 1868 : 		if(this->m_FloorData[gObj[aIndex].m_iIllusionTempleIndex].m_iTeamPlayerIndex == aIndex || gObj[aIndex].Connected > PLAYER_LOGGED)

  05699	8b 45 08	 mov	 eax, DWORD PTR _aIndex$[ebp]
  0569c	69 c0 38 2b 00
	00		 imul	 eax, 11064		; 00002b38H
  056a2	8b 0d 00 00 00
	00		 mov	 ecx, DWORD PTR ?gObj@@3PAUOBJECTSTRUCT@@A ; gObj
  056a8	8b 94 01 78 20
	00 00		 mov	 edx, DWORD PTR [ecx+eax+8312]
  056af	6b d2 30	 imul	 edx, 48			; 00000030H
  056b2	8b 45 fc	 mov	 eax, DWORD PTR _this$[ebp]
  056b5	8b 4c 10 20	 mov	 ecx, DWORD PTR [eax+edx+32]
  056b9	3b 4d 08	 cmp	 ecx, DWORD PTR _aIndex$[ebp]
  056bc	74 16		 je	 SHORT $LN1@GetKillCou
  056be	8b 45 08	 mov	 eax, DWORD PTR _aIndex$[ebp]
  056c1	69 c0 38 2b 00
	00		 imul	 eax, 11064		; 00002b38H
  056c7	8b 0d 00 00 00
	00		 mov	 ecx, DWORD PTR ?gObj@@3PAUOBJECTSTRUCT@@A ; gObj
  056cd	83 7c 01 04 02	 cmp	 DWORD PTR [ecx+eax+4], 2
  056d2	7e 22		 jle	 SHORT $LN3@GetKillCou
$LN1@GetKillCou:

; 1869 : 		{
; 1870 : 			return this->m_FloorData[gObj[aIndex].m_iIllusionTempleIndex].m_btKillCountPoint;

  056d4	8b 45 08	 mov	 eax, DWORD PTR _aIndex$[ebp]
  056d7	69 c0 38 2b 00
	00		 imul	 eax, 11064		; 00002b38H
  056dd	8b 0d 00 00 00
	00		 mov	 ecx, DWORD PTR ?gObj@@3PAUOBJECTSTRUCT@@A ; gObj
  056e3	8b 94 01 78 20
	00 00		 mov	 edx, DWORD PTR [ecx+eax+8312]
  056ea	6b d2 30	 imul	 edx, 48			; 00000030H
  056ed	8b 45 fc	 mov	 eax, DWORD PTR _this$[ebp]
  056f0	8a 44 10 25	 mov	 al, BYTE PTR [eax+edx+37]
  056f4	eb 02		 jmp	 SHORT $LN5@GetKillCou
$LN3@GetKillCou:

; 1871 : 		}
; 1872 : 	}
; 1873 : 
; 1874 : 	return FALSE;

  056f6	32 c0		 xor	 al, al
$LN5@GetKillCou:

; 1875 : }

  056f8	5f		 pop	 edi
  056f9	5e		 pop	 esi
  056fa	5b		 pop	 ebx
  056fb	8b e5		 mov	 esp, ebp
  056fd	5d		 pop	 ebp
  056fe	c2 04 00	 ret	 4
?GetKillCountPointFromUser@CIllusionTempleProcess@@QAEEH@Z ENDP ; CIllusionTempleProcess::GetKillCountPointFromUser
_TEXT	ENDS
PUBLIC	?__LINE__Var@?1??UpdateKillCountPointFromUser@CIllusionTempleProcess@@QAEHHE@Z@4JA ; `CIllusionTempleProcess::UpdateKillCountPointFromUser'::`2'::__LINE__Var
PUBLIC	?UpdateKillCountPointFromUser@CIllusionTempleProcess@@QAEHHE@Z ; CIllusionTempleProcess::UpdateKillCountPointFromUser
;	COMDAT ?__LINE__Var@?1??UpdateKillCountPointFromUser@CIllusionTempleProcess@@QAEHHE@Z@4JA
_DATA	SEGMENT
?__LINE__Var@?1??UpdateKillCountPointFromUser@CIllusionTempleProcess@@QAEHHE@Z@4JA DD 0756H ; `CIllusionTempleProcess::UpdateKillCountPointFromUser'::`2'::__LINE__Var
; Function compile flags: /Odtp /ZI
_DATA	ENDS
_TEXT	SEGMENT
tv67 = -72						; size = 4
_this$ = -4						; size = 4
_aIndex$ = 8						; size = 4
_btPoint$ = 12						; size = 1
?UpdateKillCountPointFromUser@CIllusionTempleProcess@@QAEHHE@Z PROC ; CIllusionTempleProcess::UpdateKillCountPointFromUser
; _this$ = ecx

; 1878 : {

  05710	55		 push	 ebp
  05711	8b ec		 mov	 ebp, esp
  05713	83 ec 48	 sub	 esp, 72			; 00000048H
  05716	53		 push	 ebx
  05717	56		 push	 esi
  05718	57		 push	 edi
  05719	89 4d fc	 mov	 DWORD PTR _this$[ebp], ecx

; 1879 : 	if( OBJMAX_RANGE(aIndex) == FALSE )

  0571c	83 7d 08 00	 cmp	 DWORD PTR _aIndex$[ebp], 0
  05720	7d 09		 jge	 SHORT $LN7@UpdateKill
  05722	c7 45 b8 00 00
	00 00		 mov	 DWORD PTR tv67[ebp], 0
  05729	eb 0f		 jmp	 SHORT $LN8@UpdateKill
$LN7@UpdateKill:
  0572b	33 c0		 xor	 eax, eax
  0572d	81 7d 08 97 3a
	00 00		 cmp	 DWORD PTR _aIndex$[ebp], 14999 ; 00003a97H
  05734	0f 9e c0	 setle	 al
  05737	89 45 b8	 mov	 DWORD PTR tv67[ebp], eax
$LN8@UpdateKill:
  0573a	83 7d b8 00	 cmp	 DWORD PTR tv67[ebp], 0
  0573e	75 23		 jne	 SHORT $LN4@UpdateKill

; 1880 : 	{
; 1881 : 		LogAdd("return %s %d", __FILE__, __LINE__);

  05740	a1 00 00 00 00	 mov	 eax, DWORD PTR ?__LINE__Var@?1??UpdateKillCountPointFromUser@CIllusionTempleProcess@@QAEHHE@Z@4JA
  05745	83 c0 03	 add	 eax, 3
  05748	50		 push	 eax
  05749	68 00 00 00 00	 push	 OFFSET ??_C@_0EN@FIHDICBF@d?3?2projects?2exteam6?43?2source?2gam@
  0574e	68 00 00 00 00	 push	 OFFSET ??_C@_0N@GGPGOPEN@return?5?$CFs?5?$CFd?$AA@
  05753	ff 15 00 00 00
	00		 call	 DWORD PTR ?LogAdd@@3P6AXPADZZA ; LogAdd
  05759	83 c4 0c	 add	 esp, 12			; 0000000cH

; 1882 : 		return FALSE;

  0575c	33 c0		 xor	 eax, eax
  0575e	e9 80 00 00 00	 jmp	 $LN5@UpdateKill
$LN4@UpdateKill:

; 1883 : 	}
; 1884 : 
; 1885 : 	if(gObj[aIndex].m_iIllusionTempleIndex != -1)

  05763	8b 45 08	 mov	 eax, DWORD PTR _aIndex$[ebp]
  05766	69 c0 38 2b 00
	00		 imul	 eax, 11064		; 00002b38H
  0576c	8b 0d 00 00 00
	00		 mov	 ecx, DWORD PTR ?gObj@@3PAUOBJECTSTRUCT@@A ; gObj
  05772	83 bc 01 78 20
	00 00 ff	 cmp	 DWORD PTR [ecx+eax+8312], -1
  0577a	74 65		 je	 SHORT $LN3@UpdateKill

; 1886 : 	{
; 1887 : 		if(this->m_FloorData[gObj[aIndex].m_iIllusionTempleIndex].m_iTeamPlayerIndex == aIndex || gObj[aIndex].Connected > PLAYER_LOGGED)

  0577c	8b 45 08	 mov	 eax, DWORD PTR _aIndex$[ebp]
  0577f	69 c0 38 2b 00
	00		 imul	 eax, 11064		; 00002b38H
  05785	8b 0d 00 00 00
	00		 mov	 ecx, DWORD PTR ?gObj@@3PAUOBJECTSTRUCT@@A ; gObj
  0578b	8b 94 01 78 20
	00 00		 mov	 edx, DWORD PTR [ecx+eax+8312]
  05792	6b d2 30	 imul	 edx, 48			; 00000030H
  05795	8b 45 fc	 mov	 eax, DWORD PTR _this$[ebp]
  05798	8b 4c 10 20	 mov	 ecx, DWORD PTR [eax+edx+32]
  0579c	3b 4d 08	 cmp	 ecx, DWORD PTR _aIndex$[ebp]
  0579f	74 16		 je	 SHORT $LN1@UpdateKill
  057a1	8b 45 08	 mov	 eax, DWORD PTR _aIndex$[ebp]
  057a4	69 c0 38 2b 00
	00		 imul	 eax, 11064		; 00002b38H
  057aa	8b 0d 00 00 00
	00		 mov	 ecx, DWORD PTR ?gObj@@3PAUOBJECTSTRUCT@@A ; gObj
  057b0	83 7c 01 04 02	 cmp	 DWORD PTR [ecx+eax+4], 2
  057b5	7e 2a		 jle	 SHORT $LN3@UpdateKill
$LN1@UpdateKill:

; 1888 : 		{
; 1889 : 			this->m_FloorData[gObj[aIndex].m_iIllusionTempleIndex].m_btKillCountPoint = btPoint;

  057b7	8b 45 08	 mov	 eax, DWORD PTR _aIndex$[ebp]
  057ba	69 c0 38 2b 00
	00		 imul	 eax, 11064		; 00002b38H
  057c0	8b 0d 00 00 00
	00		 mov	 ecx, DWORD PTR ?gObj@@3PAUOBJECTSTRUCT@@A ; gObj
  057c6	8b 94 01 78 20
	00 00		 mov	 edx, DWORD PTR [ecx+eax+8312]
  057cd	6b d2 30	 imul	 edx, 48			; 00000030H
  057d0	8b 45 fc	 mov	 eax, DWORD PTR _this$[ebp]
  057d3	8a 4d 0c	 mov	 cl, BYTE PTR _btPoint$[ebp]
  057d6	88 4c 10 25	 mov	 BYTE PTR [eax+edx+37], cl

; 1890 : 			return TRUE;

  057da	b8 01 00 00 00	 mov	 eax, 1
  057df	eb 02		 jmp	 SHORT $LN5@UpdateKill
$LN3@UpdateKill:

; 1891 : 		}
; 1892 : 	}
; 1893 : 
; 1894 : 	return FALSE;

  057e1	33 c0		 xor	 eax, eax
$LN5@UpdateKill:

; 1895 : }

  057e3	5f		 pop	 edi
  057e4	5e		 pop	 esi
  057e5	5b		 pop	 ebx
  057e6	8b e5		 mov	 esp, ebp
  057e8	5d		 pop	 ebp
  057e9	c2 08 00	 ret	 8
?UpdateKillCountPointFromUser@CIllusionTempleProcess@@QAEHHE@Z ENDP ; CIllusionTempleProcess::UpdateKillCountPointFromUser
; Function compile flags: /Odtp /ZI
_i$234661 = -8						; size = 4
_this$ = -4						; size = 4
?ResetUserKillCountPoint@CIllusionTempleProcess@@QAEXXZ PROC ; CIllusionTempleProcess::ResetUserKillCountPoint
; _this$ = ecx

; 1898 : {

  057f0	55		 push	 ebp
  057f1	8b ec		 mov	 ebp, esp
  057f3	83 ec 48	 sub	 esp, 72			; 00000048H
  057f6	53		 push	 ebx
  057f7	56		 push	 esi
  057f8	57		 push	 edi
  057f9	89 4d fc	 mov	 DWORD PTR _this$[ebp], ecx

; 1899 : 	for(int i = 0; i < MAX_FLOOR_USER; i++)

  057fc	c7 45 f8 00 00
	00 00		 mov	 DWORD PTR _i$234661[ebp], 0
  05803	eb 09		 jmp	 SHORT $LN3@ResetUserK
$LN2@ResetUserK:
  05805	8b 45 f8	 mov	 eax, DWORD PTR _i$234661[ebp]
  05808	83 c0 01	 add	 eax, 1
  0580b	89 45 f8	 mov	 DWORD PTR _i$234661[ebp], eax
$LN3@ResetUserK:
  0580e	83 7d f8 0a	 cmp	 DWORD PTR _i$234661[ebp], 10 ; 0000000aH
  05812	7d 10		 jge	 SHORT $LN4@ResetUserK

; 1900 : 	{
; 1901 : 		this->m_FloorData[i].m_btKillCountPoint = MAX_FLOOR_USER;

  05814	8b 45 f8	 mov	 eax, DWORD PTR _i$234661[ebp]
  05817	6b c0 30	 imul	 eax, 48			; 00000030H
  0581a	8b 4d fc	 mov	 ecx, DWORD PTR _this$[ebp]
  0581d	c6 44 01 25 0a	 mov	 BYTE PTR [ecx+eax+37], 10 ; 0000000aH

; 1902 : 	}

  05822	eb e1		 jmp	 SHORT $LN2@ResetUserK
$LN4@ResetUserK:

; 1903 : }

  05824	5f		 pop	 edi
  05825	5e		 pop	 esi
  05826	5b		 pop	 ebx
  05827	8b e5		 mov	 esp, ebp
  05829	5d		 pop	 ebp
  0582a	c3		 ret	 0
?ResetUserKillCountPoint@CIllusionTempleProcess@@QAEXXZ ENDP ; CIllusionTempleProcess::ResetUserKillCountPoint
_TEXT	ENDS
PUBLIC	?__LINE__Var@?1??IncreaseUserKillCount@CIllusionTempleProcess@@QAEXH@Z@4JA ; `CIllusionTempleProcess::IncreaseUserKillCount'::`2'::__LINE__Var
PUBLIC	?IncreaseUserKillCount@CIllusionTempleProcess@@QAEXH@Z ; CIllusionTempleProcess::IncreaseUserKillCount
;	COMDAT ?__LINE__Var@?1??IncreaseUserKillCount@CIllusionTempleProcess@@QAEXH@Z@4JA
_DATA	SEGMENT
?__LINE__Var@?1??IncreaseUserKillCount@CIllusionTempleProcess@@QAEXH@Z@4JA DD 0772H ; `CIllusionTempleProcess::IncreaseUserKillCount'::`2'::__LINE__Var
; Function compile flags: /Odtp /ZI
_DATA	ENDS
_TEXT	SEGMENT
tv67 = -72						; size = 4
_this$ = -4						; size = 4
_aIndex$ = 8						; size = 4
?IncreaseUserKillCount@CIllusionTempleProcess@@QAEXH@Z PROC ; CIllusionTempleProcess::IncreaseUserKillCount
; _this$ = ecx

; 1906 : {

  05830	55		 push	 ebp
  05831	8b ec		 mov	 ebp, esp
  05833	83 ec 48	 sub	 esp, 72			; 00000048H
  05836	53		 push	 ebx
  05837	56		 push	 esi
  05838	57		 push	 edi
  05839	89 4d fc	 mov	 DWORD PTR _this$[ebp], ecx

; 1907 : 	if( OBJMAX_RANGE(aIndex) == FALSE )

  0583c	83 7d 08 00	 cmp	 DWORD PTR _aIndex$[ebp], 0
  05840	7d 09		 jge	 SHORT $LN8@IncreaseUs
  05842	c7 45 b8 00 00
	00 00		 mov	 DWORD PTR tv67[ebp], 0
  05849	eb 0f		 jmp	 SHORT $LN9@IncreaseUs
$LN8@IncreaseUs:
  0584b	33 c0		 xor	 eax, eax
  0584d	81 7d 08 97 3a
	00 00		 cmp	 DWORD PTR _aIndex$[ebp], 14999 ; 00003a97H
  05854	0f 9e c0	 setle	 al
  05857	89 45 b8	 mov	 DWORD PTR tv67[ebp], eax
$LN9@IncreaseUs:
  0585a	83 7d b8 00	 cmp	 DWORD PTR tv67[ebp], 0
  0585e	75 21		 jne	 SHORT $LN5@IncreaseUs

; 1908 : 	{
; 1909 : 		LogAdd("return %s %d", __FILE__, __LINE__);

  05860	a1 00 00 00 00	 mov	 eax, DWORD PTR ?__LINE__Var@?1??IncreaseUserKillCount@CIllusionTempleProcess@@QAEXH@Z@4JA
  05865	83 c0 03	 add	 eax, 3
  05868	50		 push	 eax
  05869	68 00 00 00 00	 push	 OFFSET ??_C@_0EN@FIHDICBF@d?3?2projects?2exteam6?43?2source?2gam@
  0586e	68 00 00 00 00	 push	 OFFSET ??_C@_0N@GGPGOPEN@return?5?$CFs?5?$CFd?$AA@
  05873	ff 15 00 00 00
	00		 call	 DWORD PTR ?LogAdd@@3P6AXPADZZA ; LogAdd
  05879	83 c4 0c	 add	 esp, 12			; 0000000cH

; 1910 : 		return;

  0587c	e9 c6 00 00 00	 jmp	 $LN6@IncreaseUs
$LN5@IncreaseUs:

; 1911 : 	}
; 1912 : 
; 1913 : 	if(gObj[aIndex].m_iIllusionTempleIndex != -1)

  05881	8b 45 08	 mov	 eax, DWORD PTR _aIndex$[ebp]
  05884	69 c0 38 2b 00
	00		 imul	 eax, 11064		; 00002b38H
  0588a	8b 0d 00 00 00
	00		 mov	 ecx, DWORD PTR ?gObj@@3PAUOBJECTSTRUCT@@A ; gObj
  05890	83 bc 01 78 20
	00 00 ff	 cmp	 DWORD PTR [ecx+eax+8312], -1
  05898	0f 84 a9 00 00
	00		 je	 $LN6@IncreaseUs

; 1914 : 	{
; 1915 : 		if(this->m_FloorData[gObj[aIndex].m_iIllusionTempleIndex].m_iTeamPlayerIndex == aIndex || gObj[aIndex].Connected > PLAYER_LOGGED)

  0589e	8b 45 08	 mov	 eax, DWORD PTR _aIndex$[ebp]
  058a1	69 c0 38 2b 00
	00		 imul	 eax, 11064		; 00002b38H
  058a7	8b 0d 00 00 00
	00		 mov	 ecx, DWORD PTR ?gObj@@3PAUOBJECTSTRUCT@@A ; gObj
  058ad	8b 94 01 78 20
	00 00		 mov	 edx, DWORD PTR [ecx+eax+8312]
  058b4	6b d2 30	 imul	 edx, 48			; 00000030H
  058b7	8b 45 fc	 mov	 eax, DWORD PTR _this$[ebp]
  058ba	8b 4c 10 20	 mov	 ecx, DWORD PTR [eax+edx+32]
  058be	3b 4d 08	 cmp	 ecx, DWORD PTR _aIndex$[ebp]
  058c1	74 16		 je	 SHORT $LN2@IncreaseUs
  058c3	8b 45 08	 mov	 eax, DWORD PTR _aIndex$[ebp]
  058c6	69 c0 38 2b 00
	00		 imul	 eax, 11064		; 00002b38H
  058cc	8b 0d 00 00 00
	00		 mov	 ecx, DWORD PTR ?gObj@@3PAUOBJECTSTRUCT@@A ; gObj
  058d2	83 7c 01 04 02	 cmp	 DWORD PTR [ecx+eax+4], 2
  058d7	7e 6e		 jle	 SHORT $LN6@IncreaseUs
$LN2@IncreaseUs:

; 1916 : 		{
; 1917 : 			if(this->m_FloorData[gObj[aIndex].m_iIllusionTempleIndex].m_btUserKillCount > (BYTE)-1)

  058d9	8b 45 08	 mov	 eax, DWORD PTR _aIndex$[ebp]
  058dc	69 c0 38 2b 00
	00		 imul	 eax, 11064		; 00002b38H
  058e2	8b 0d 00 00 00
	00		 mov	 ecx, DWORD PTR ?gObj@@3PAUOBJECTSTRUCT@@A ; gObj
  058e8	8b 94 01 78 20
	00 00		 mov	 edx, DWORD PTR [ecx+eax+8312]
  058ef	6b d2 30	 imul	 edx, 48			; 00000030H
  058f2	8b 45 fc	 mov	 eax, DWORD PTR _this$[ebp]
  058f5	0f b6 4c 10 30	 movzx	 ecx, BYTE PTR [eax+edx+48]
  058fa	81 f9 ff 00 00
	00		 cmp	 ecx, 255		; 000000ffH
  05900	7e 02		 jle	 SHORT $LN1@IncreaseUs

; 1918 : 			{
; 1919 : 				return;

  05902	eb 43		 jmp	 SHORT $LN6@IncreaseUs
$LN1@IncreaseUs:

; 1920 : 			}
; 1921 : 			this->m_FloorData[gObj[aIndex].m_iIllusionTempleIndex].m_btUserKillCount+= 1;

  05904	8b 45 08	 mov	 eax, DWORD PTR _aIndex$[ebp]
  05907	69 c0 38 2b 00
	00		 imul	 eax, 11064		; 00002b38H
  0590d	8b 0d 00 00 00
	00		 mov	 ecx, DWORD PTR ?gObj@@3PAUOBJECTSTRUCT@@A ; gObj
  05913	8b 94 01 78 20
	00 00		 mov	 edx, DWORD PTR [ecx+eax+8312]
  0591a	6b d2 30	 imul	 edx, 48			; 00000030H
  0591d	8b 45 fc	 mov	 eax, DWORD PTR _this$[ebp]
  05920	0f b6 4c 10 30	 movzx	 ecx, BYTE PTR [eax+edx+48]
  05925	83 c1 01	 add	 ecx, 1
  05928	8b 55 08	 mov	 edx, DWORD PTR _aIndex$[ebp]
  0592b	69 d2 38 2b 00
	00		 imul	 edx, 11064		; 00002b38H
  05931	a1 00 00 00 00	 mov	 eax, DWORD PTR ?gObj@@3PAUOBJECTSTRUCT@@A ; gObj
  05936	8b 94 10 78 20
	00 00		 mov	 edx, DWORD PTR [eax+edx+8312]
  0593d	6b d2 30	 imul	 edx, 48			; 00000030H
  05940	8b 45 fc	 mov	 eax, DWORD PTR _this$[ebp]
  05943	88 4c 10 30	 mov	 BYTE PTR [eax+edx+48], cl
$LN6@IncreaseUs:

; 1922 : 		}
; 1923 : 	}
; 1924 : }

  05947	5f		 pop	 edi
  05948	5e		 pop	 esi
  05949	5b		 pop	 ebx
  0594a	8b e5		 mov	 esp, ebp
  0594c	5d		 pop	 ebp
  0594d	c2 04 00	 ret	 4
?IncreaseUserKillCount@CIllusionTempleProcess@@QAEXH@Z ENDP ; CIllusionTempleProcess::IncreaseUserKillCount
_TEXT	ENDS
PUBLIC	?__LINE__Var@?1??IncreaseMonsterKillCount@CIllusionTempleProcess@@QAEXH@Z@4JA ; `CIllusionTempleProcess::IncreaseMonsterKillCount'::`2'::__LINE__Var
PUBLIC	?IncreaseMonsterKillCount@CIllusionTempleProcess@@QAEXH@Z ; CIllusionTempleProcess::IncreaseMonsterKillCount
;	COMDAT ?__LINE__Var@?1??IncreaseMonsterKillCount@CIllusionTempleProcess@@QAEXH@Z@4JA
_DATA	SEGMENT
?__LINE__Var@?1??IncreaseMonsterKillCount@CIllusionTempleProcess@@QAEXH@Z@4JA DD 0787H ; `CIllusionTempleProcess::IncreaseMonsterKillCount'::`2'::__LINE__Var
; Function compile flags: /Odtp /ZI
_DATA	ENDS
_TEXT	SEGMENT
tv67 = -72						; size = 4
_this$ = -4						; size = 4
_aIndex$ = 8						; size = 4
?IncreaseMonsterKillCount@CIllusionTempleProcess@@QAEXH@Z PROC ; CIllusionTempleProcess::IncreaseMonsterKillCount
; _this$ = ecx

; 1927 : {

  05950	55		 push	 ebp
  05951	8b ec		 mov	 ebp, esp
  05953	83 ec 48	 sub	 esp, 72			; 00000048H
  05956	53		 push	 ebx
  05957	56		 push	 esi
  05958	57		 push	 edi
  05959	89 4d fc	 mov	 DWORD PTR _this$[ebp], ecx

; 1928 : 	if( OBJMAX_RANGE(aIndex) == FALSE )

  0595c	83 7d 08 00	 cmp	 DWORD PTR _aIndex$[ebp], 0
  05960	7d 09		 jge	 SHORT $LN8@IncreaseMo
  05962	c7 45 b8 00 00
	00 00		 mov	 DWORD PTR tv67[ebp], 0
  05969	eb 0f		 jmp	 SHORT $LN9@IncreaseMo
$LN8@IncreaseMo:
  0596b	33 c0		 xor	 eax, eax
  0596d	81 7d 08 97 3a
	00 00		 cmp	 DWORD PTR _aIndex$[ebp], 14999 ; 00003a97H
  05974	0f 9e c0	 setle	 al
  05977	89 45 b8	 mov	 DWORD PTR tv67[ebp], eax
$LN9@IncreaseMo:
  0597a	83 7d b8 00	 cmp	 DWORD PTR tv67[ebp], 0
  0597e	75 21		 jne	 SHORT $LN5@IncreaseMo

; 1929 : 	{
; 1930 : 		LogAdd("return %s %d", __FILE__, __LINE__);

  05980	a1 00 00 00 00	 mov	 eax, DWORD PTR ?__LINE__Var@?1??IncreaseMonsterKillCount@CIllusionTempleProcess@@QAEXH@Z@4JA
  05985	83 c0 03	 add	 eax, 3
  05988	50		 push	 eax
  05989	68 00 00 00 00	 push	 OFFSET ??_C@_0EN@FIHDICBF@d?3?2projects?2exteam6?43?2source?2gam@
  0598e	68 00 00 00 00	 push	 OFFSET ??_C@_0N@GGPGOPEN@return?5?$CFs?5?$CFd?$AA@
  05993	ff 15 00 00 00
	00		 call	 DWORD PTR ?LogAdd@@3P6AXPADZZA ; LogAdd
  05999	83 c4 0c	 add	 esp, 12			; 0000000cH

; 1931 : 		return;

  0599c	e9 c6 00 00 00	 jmp	 $LN6@IncreaseMo
$LN5@IncreaseMo:

; 1932 : 	}
; 1933 : 
; 1934 : 	if(gObj[aIndex].m_iIllusionTempleIndex != -1)

  059a1	8b 45 08	 mov	 eax, DWORD PTR _aIndex$[ebp]
  059a4	69 c0 38 2b 00
	00		 imul	 eax, 11064		; 00002b38H
  059aa	8b 0d 00 00 00
	00		 mov	 ecx, DWORD PTR ?gObj@@3PAUOBJECTSTRUCT@@A ; gObj
  059b0	83 bc 01 78 20
	00 00 ff	 cmp	 DWORD PTR [ecx+eax+8312], -1
  059b8	0f 84 a9 00 00
	00		 je	 $LN6@IncreaseMo

; 1935 : 	{
; 1936 : 		if(this->m_FloorData[gObj[aIndex].m_iIllusionTempleIndex].m_iTeamPlayerIndex == aIndex || gObj[aIndex].Connected > PLAYER_LOGGED)

  059be	8b 45 08	 mov	 eax, DWORD PTR _aIndex$[ebp]
  059c1	69 c0 38 2b 00
	00		 imul	 eax, 11064		; 00002b38H
  059c7	8b 0d 00 00 00
	00		 mov	 ecx, DWORD PTR ?gObj@@3PAUOBJECTSTRUCT@@A ; gObj
  059cd	8b 94 01 78 20
	00 00		 mov	 edx, DWORD PTR [ecx+eax+8312]
  059d4	6b d2 30	 imul	 edx, 48			; 00000030H
  059d7	8b 45 fc	 mov	 eax, DWORD PTR _this$[ebp]
  059da	8b 4c 10 20	 mov	 ecx, DWORD PTR [eax+edx+32]
  059de	3b 4d 08	 cmp	 ecx, DWORD PTR _aIndex$[ebp]
  059e1	74 16		 je	 SHORT $LN2@IncreaseMo
  059e3	8b 45 08	 mov	 eax, DWORD PTR _aIndex$[ebp]
  059e6	69 c0 38 2b 00
	00		 imul	 eax, 11064		; 00002b38H
  059ec	8b 0d 00 00 00
	00		 mov	 ecx, DWORD PTR ?gObj@@3PAUOBJECTSTRUCT@@A ; gObj
  059f2	83 7c 01 04 02	 cmp	 DWORD PTR [ecx+eax+4], 2
  059f7	7e 6e		 jle	 SHORT $LN6@IncreaseMo
$LN2@IncreaseMo:

; 1937 : 		{
; 1938 : 			if(this->m_FloorData[gObj[aIndex].m_iIllusionTempleIndex].m_btMonsterRewardKillCount > (BYTE)-1)

  059f9	8b 45 08	 mov	 eax, DWORD PTR _aIndex$[ebp]
  059fc	69 c0 38 2b 00
	00		 imul	 eax, 11064		; 00002b38H
  05a02	8b 0d 00 00 00
	00		 mov	 ecx, DWORD PTR ?gObj@@3PAUOBJECTSTRUCT@@A ; gObj
  05a08	8b 94 01 78 20
	00 00		 mov	 edx, DWORD PTR [ecx+eax+8312]
  05a0f	6b d2 30	 imul	 edx, 48			; 00000030H
  05a12	8b 45 fc	 mov	 eax, DWORD PTR _this$[ebp]
  05a15	0f b6 4c 10 31	 movzx	 ecx, BYTE PTR [eax+edx+49]
  05a1a	81 f9 ff 00 00
	00		 cmp	 ecx, 255		; 000000ffH
  05a20	7e 02		 jle	 SHORT $LN1@IncreaseMo

; 1939 : 			{
; 1940 : 				return;

  05a22	eb 43		 jmp	 SHORT $LN6@IncreaseMo
$LN1@IncreaseMo:

; 1941 : 			}
; 1942 : 			this->m_FloorData[gObj[aIndex].m_iIllusionTempleIndex].m_btMonsterRewardKillCount+= 1;

  05a24	8b 45 08	 mov	 eax, DWORD PTR _aIndex$[ebp]
  05a27	69 c0 38 2b 00
	00		 imul	 eax, 11064		; 00002b38H
  05a2d	8b 0d 00 00 00
	00		 mov	 ecx, DWORD PTR ?gObj@@3PAUOBJECTSTRUCT@@A ; gObj
  05a33	8b 94 01 78 20
	00 00		 mov	 edx, DWORD PTR [ecx+eax+8312]
  05a3a	6b d2 30	 imul	 edx, 48			; 00000030H
  05a3d	8b 45 fc	 mov	 eax, DWORD PTR _this$[ebp]
  05a40	0f b6 4c 10 31	 movzx	 ecx, BYTE PTR [eax+edx+49]
  05a45	83 c1 01	 add	 ecx, 1
  05a48	8b 55 08	 mov	 edx, DWORD PTR _aIndex$[ebp]
  05a4b	69 d2 38 2b 00
	00		 imul	 edx, 11064		; 00002b38H
  05a51	a1 00 00 00 00	 mov	 eax, DWORD PTR ?gObj@@3PAUOBJECTSTRUCT@@A ; gObj
  05a56	8b 94 10 78 20
	00 00		 mov	 edx, DWORD PTR [eax+edx+8312]
  05a5d	6b d2 30	 imul	 edx, 48			; 00000030H
  05a60	8b 45 fc	 mov	 eax, DWORD PTR _this$[ebp]
  05a63	88 4c 10 31	 mov	 BYTE PTR [eax+edx+49], cl
$LN6@IncreaseMo:

; 1943 : 		}
; 1944 : 	}
; 1945 : }

  05a67	5f		 pop	 edi
  05a68	5e		 pop	 esi
  05a69	5b		 pop	 ebx
  05a6a	8b e5		 mov	 esp, ebp
  05a6c	5d		 pop	 ebp
  05a6d	c2 04 00	 ret	 4
?IncreaseMonsterKillCount@CIllusionTempleProcess@@QAEXH@Z ENDP ; CIllusionTempleProcess::IncreaseMonsterKillCount
_TEXT	ENDS
PUBLIC	?ResetAllKillCount@CIllusionTempleProcess@@QAEXXZ ; CIllusionTempleProcess::ResetAllKillCount
; Function compile flags: /Odtp /ZI
_TEXT	SEGMENT
_i$234690 = -8						; size = 4
_this$ = -4						; size = 4
?ResetAllKillCount@CIllusionTempleProcess@@QAEXXZ PROC	; CIllusionTempleProcess::ResetAllKillCount
; _this$ = ecx

; 1948 : {

  05a70	55		 push	 ebp
  05a71	8b ec		 mov	 ebp, esp
  05a73	83 ec 48	 sub	 esp, 72			; 00000048H
  05a76	53		 push	 ebx
  05a77	56		 push	 esi
  05a78	57		 push	 edi
  05a79	89 4d fc	 mov	 DWORD PTR _this$[ebp], ecx

; 1949 : 	for(int i = 0; i < MAX_FLOOR_USER; i++)

  05a7c	c7 45 f8 00 00
	00 00		 mov	 DWORD PTR _i$234690[ebp], 0
  05a83	eb 09		 jmp	 SHORT $LN3@ResetAllKi
$LN2@ResetAllKi:
  05a85	8b 45 f8	 mov	 eax, DWORD PTR _i$234690[ebp]
  05a88	83 c0 01	 add	 eax, 1
  05a8b	89 45 f8	 mov	 DWORD PTR _i$234690[ebp], eax
$LN3@ResetAllKi:
  05a8e	83 7d f8 0a	 cmp	 DWORD PTR _i$234690[ebp], 10 ; 0000000aH
  05a92	7d 1e		 jge	 SHORT $LN4@ResetAllKi

; 1950 : 	{
; 1951 : 		this->m_FloorData[i].m_btUserKillCount = 0;

  05a94	8b 45 f8	 mov	 eax, DWORD PTR _i$234690[ebp]
  05a97	6b c0 30	 imul	 eax, 48			; 00000030H
  05a9a	8b 4d fc	 mov	 ecx, DWORD PTR _this$[ebp]
  05a9d	c6 44 01 30 00	 mov	 BYTE PTR [ecx+eax+48], 0

; 1952 : 		this->m_FloorData[i].m_btMonsterRewardKillCount = 0;

  05aa2	8b 45 f8	 mov	 eax, DWORD PTR _i$234690[ebp]
  05aa5	6b c0 30	 imul	 eax, 48			; 00000030H
  05aa8	8b 4d fc	 mov	 ecx, DWORD PTR _this$[ebp]
  05aab	c6 44 01 31 00	 mov	 BYTE PTR [ecx+eax+49], 0

; 1953 : 	}

  05ab0	eb d3		 jmp	 SHORT $LN2@ResetAllKi
$LN4@ResetAllKi:

; 1954 : }

  05ab2	5f		 pop	 edi
  05ab3	5e		 pop	 esi
  05ab4	5b		 pop	 ebx
  05ab5	8b e5		 mov	 esp, ebp
  05ab7	5d		 pop	 ebp
  05ab8	c3		 ret	 0
?ResetAllKillCount@CIllusionTempleProcess@@QAEXXZ ENDP	; CIllusionTempleProcess::ResetAllKillCount
_TEXT	ENDS
PUBLIC	?__LINE__Var@?1??IncreaseTeamPlayerReward@CIllusionTempleProcess@@QAEXH@Z@4JA ; `CIllusionTempleProcess::IncreaseTeamPlayerReward'::`2'::__LINE__Var
;	COMDAT ?__LINE__Var@?1??IncreaseTeamPlayerReward@CIllusionTempleProcess@@QAEXH@Z@4JA
_DATA	SEGMENT
?__LINE__Var@?1??IncreaseTeamPlayerReward@CIllusionTempleProcess@@QAEXH@Z@4JA DD 07a5H ; `CIllusionTempleProcess::IncreaseTeamPlayerReward'::`2'::__LINE__Var
; Function compile flags: /Odtp /ZI
_DATA	ENDS
_TEXT	SEGMENT
tv67 = -72						; size = 4
_this$ = -4						; size = 4
_aIndex$ = 8						; size = 4
?IncreaseTeamPlayerReward@CIllusionTempleProcess@@QAEXH@Z PROC ; CIllusionTempleProcess::IncreaseTeamPlayerReward
; _this$ = ecx

; 1957 : {

  05ac0	55		 push	 ebp
  05ac1	8b ec		 mov	 ebp, esp
  05ac3	83 ec 48	 sub	 esp, 72			; 00000048H
  05ac6	53		 push	 ebx
  05ac7	56		 push	 esi
  05ac8	57		 push	 edi
  05ac9	89 4d fc	 mov	 DWORD PTR _this$[ebp], ecx

; 1958 : 	if( OBJMAX_RANGE(aIndex) == FALSE )

  05acc	83 7d 08 00	 cmp	 DWORD PTR _aIndex$[ebp], 0
  05ad0	7d 09		 jge	 SHORT $LN8@IncreaseTe
  05ad2	c7 45 b8 00 00
	00 00		 mov	 DWORD PTR tv67[ebp], 0
  05ad9	eb 0f		 jmp	 SHORT $LN9@IncreaseTe
$LN8@IncreaseTe:
  05adb	33 c0		 xor	 eax, eax
  05add	81 7d 08 97 3a
	00 00		 cmp	 DWORD PTR _aIndex$[ebp], 14999 ; 00003a97H
  05ae4	0f 9e c0	 setle	 al
  05ae7	89 45 b8	 mov	 DWORD PTR tv67[ebp], eax
$LN9@IncreaseTe:
  05aea	83 7d b8 00	 cmp	 DWORD PTR tv67[ebp], 0
  05aee	75 21		 jne	 SHORT $LN5@IncreaseTe

; 1959 : 	{
; 1960 : 		LogAdd("return %s %d", __FILE__, __LINE__);

  05af0	a1 00 00 00 00	 mov	 eax, DWORD PTR ?__LINE__Var@?1??IncreaseTeamPlayerReward@CIllusionTempleProcess@@QAEXH@Z@4JA
  05af5	83 c0 03	 add	 eax, 3
  05af8	50		 push	 eax
  05af9	68 00 00 00 00	 push	 OFFSET ??_C@_0EN@FIHDICBF@d?3?2projects?2exteam6?43?2source?2gam@
  05afe	68 00 00 00 00	 push	 OFFSET ??_C@_0N@GGPGOPEN@return?5?$CFs?5?$CFd?$AA@
  05b03	ff 15 00 00 00
	00		 call	 DWORD PTR ?LogAdd@@3P6AXPADZZA ; LogAdd
  05b09	83 c4 0c	 add	 esp, 12			; 0000000cH

; 1961 : 		return;

  05b0c	e9 c6 00 00 00	 jmp	 $LN6@IncreaseTe
$LN5@IncreaseTe:

; 1962 : 	}
; 1963 : 
; 1964 : 	if(gObj[aIndex].m_iIllusionTempleIndex != -1)

  05b11	8b 45 08	 mov	 eax, DWORD PTR _aIndex$[ebp]
  05b14	69 c0 38 2b 00
	00		 imul	 eax, 11064		; 00002b38H
  05b1a	8b 0d 00 00 00
	00		 mov	 ecx, DWORD PTR ?gObj@@3PAUOBJECTSTRUCT@@A ; gObj
  05b20	83 bc 01 78 20
	00 00 ff	 cmp	 DWORD PTR [ecx+eax+8312], -1
  05b28	0f 84 a9 00 00
	00		 je	 $LN6@IncreaseTe

; 1965 : 	{
; 1966 : 		if(this->m_FloorData[gObj[aIndex].m_iIllusionTempleIndex].m_iTeamPlayerIndex == aIndex || gObj[aIndex].Connected > PLAYER_LOGGED)

  05b2e	8b 45 08	 mov	 eax, DWORD PTR _aIndex$[ebp]
  05b31	69 c0 38 2b 00
	00		 imul	 eax, 11064		; 00002b38H
  05b37	8b 0d 00 00 00
	00		 mov	 ecx, DWORD PTR ?gObj@@3PAUOBJECTSTRUCT@@A ; gObj
  05b3d	8b 94 01 78 20
	00 00		 mov	 edx, DWORD PTR [ecx+eax+8312]
  05b44	6b d2 30	 imul	 edx, 48			; 00000030H
  05b47	8b 45 fc	 mov	 eax, DWORD PTR _this$[ebp]
  05b4a	8b 4c 10 20	 mov	 ecx, DWORD PTR [eax+edx+32]
  05b4e	3b 4d 08	 cmp	 ecx, DWORD PTR _aIndex$[ebp]
  05b51	74 16		 je	 SHORT $LN2@IncreaseTe
  05b53	8b 45 08	 mov	 eax, DWORD PTR _aIndex$[ebp]
  05b56	69 c0 38 2b 00
	00		 imul	 eax, 11064		; 00002b38H
  05b5c	8b 0d 00 00 00
	00		 mov	 ecx, DWORD PTR ?gObj@@3PAUOBJECTSTRUCT@@A ; gObj
  05b62	83 7c 01 04 02	 cmp	 DWORD PTR [ecx+eax+4], 2
  05b67	7e 6e		 jle	 SHORT $LN6@IncreaseTe
$LN2@IncreaseTe:

; 1967 : 		{
; 1968 : 			if(this->m_FloorData[gObj[aIndex].m_iIllusionTempleIndex].m_btPlayerRewardKillCount > (BYTE)-1)

  05b69	8b 45 08	 mov	 eax, DWORD PTR _aIndex$[ebp]
  05b6c	69 c0 38 2b 00
	00		 imul	 eax, 11064		; 00002b38H
  05b72	8b 0d 00 00 00
	00		 mov	 ecx, DWORD PTR ?gObj@@3PAUOBJECTSTRUCT@@A ; gObj
  05b78	8b 94 01 78 20
	00 00		 mov	 edx, DWORD PTR [ecx+eax+8312]
  05b7f	6b d2 30	 imul	 edx, 48			; 00000030H
  05b82	8b 45 fc	 mov	 eax, DWORD PTR _this$[ebp]
  05b85	0f b6 4c 10 32	 movzx	 ecx, BYTE PTR [eax+edx+50]
  05b8a	81 f9 ff 00 00
	00		 cmp	 ecx, 255		; 000000ffH
  05b90	7e 02		 jle	 SHORT $LN1@IncreaseTe

; 1969 : 			{
; 1970 : 				return;

  05b92	eb 43		 jmp	 SHORT $LN6@IncreaseTe
$LN1@IncreaseTe:

; 1971 : 			}
; 1972 : 			this->m_FloorData[gObj[aIndex].m_iIllusionTempleIndex].m_btPlayerRewardKillCount+= 1;

  05b94	8b 45 08	 mov	 eax, DWORD PTR _aIndex$[ebp]
  05b97	69 c0 38 2b 00
	00		 imul	 eax, 11064		; 00002b38H
  05b9d	8b 0d 00 00 00
	00		 mov	 ecx, DWORD PTR ?gObj@@3PAUOBJECTSTRUCT@@A ; gObj
  05ba3	8b 94 01 78 20
	00 00		 mov	 edx, DWORD PTR [ecx+eax+8312]
  05baa	6b d2 30	 imul	 edx, 48			; 00000030H
  05bad	8b 45 fc	 mov	 eax, DWORD PTR _this$[ebp]
  05bb0	0f b6 4c 10 32	 movzx	 ecx, BYTE PTR [eax+edx+50]
  05bb5	83 c1 01	 add	 ecx, 1
  05bb8	8b 55 08	 mov	 edx, DWORD PTR _aIndex$[ebp]
  05bbb	69 d2 38 2b 00
	00		 imul	 edx, 11064		; 00002b38H
  05bc1	a1 00 00 00 00	 mov	 eax, DWORD PTR ?gObj@@3PAUOBJECTSTRUCT@@A ; gObj
  05bc6	8b 94 10 78 20
	00 00		 mov	 edx, DWORD PTR [eax+edx+8312]
  05bcd	6b d2 30	 imul	 edx, 48			; 00000030H
  05bd0	8b 45 fc	 mov	 eax, DWORD PTR _this$[ebp]
  05bd3	88 4c 10 32	 mov	 BYTE PTR [eax+edx+50], cl
$LN6@IncreaseTe:

; 1973 : 		}
; 1974 : 	}
; 1975 : }

  05bd7	5f		 pop	 edi
  05bd8	5e		 pop	 esi
  05bd9	5b		 pop	 ebx
  05bda	8b e5		 mov	 esp, ebp
  05bdc	5d		 pop	 ebp
  05bdd	c2 04 00	 ret	 4
?IncreaseTeamPlayerReward@CIllusionTempleProcess@@QAEXH@Z ENDP ; CIllusionTempleProcess::IncreaseTeamPlayerReward
_TEXT	ENDS
PUBLIC	?ResetPlayerReward@CIllusionTempleProcess@@QAEXXZ ; CIllusionTempleProcess::ResetPlayerReward
; Function compile flags: /Odtp /ZI
_TEXT	SEGMENT
_i$234708 = -8						; size = 4
_this$ = -4						; size = 4
?ResetPlayerReward@CIllusionTempleProcess@@QAEXXZ PROC	; CIllusionTempleProcess::ResetPlayerReward
; _this$ = ecx

; 1978 : {

  05be0	55		 push	 ebp
  05be1	8b ec		 mov	 ebp, esp
  05be3	83 ec 48	 sub	 esp, 72			; 00000048H
  05be6	53		 push	 ebx
  05be7	56		 push	 esi
  05be8	57		 push	 edi
  05be9	89 4d fc	 mov	 DWORD PTR _this$[ebp], ecx

; 1979 : 	for(int i = 0; i < MAX_FLOOR_USER; i++)

  05bec	c7 45 f8 00 00
	00 00		 mov	 DWORD PTR _i$234708[ebp], 0
  05bf3	eb 09		 jmp	 SHORT $LN3@ResetPlaye
$LN2@ResetPlaye:
  05bf5	8b 45 f8	 mov	 eax, DWORD PTR _i$234708[ebp]
  05bf8	83 c0 01	 add	 eax, 1
  05bfb	89 45 f8	 mov	 DWORD PTR _i$234708[ebp], eax
$LN3@ResetPlaye:
  05bfe	83 7d f8 0a	 cmp	 DWORD PTR _i$234708[ebp], 10 ; 0000000aH
  05c02	7d 10		 jge	 SHORT $LN4@ResetPlaye

; 1980 : 	{
; 1981 : 		this->m_FloorData[i].m_btPlayerRewardKillCount = 0;

  05c04	8b 45 f8	 mov	 eax, DWORD PTR _i$234708[ebp]
  05c07	6b c0 30	 imul	 eax, 48			; 00000030H
  05c0a	8b 4d fc	 mov	 ecx, DWORD PTR _this$[ebp]
  05c0d	c6 44 01 32 00	 mov	 BYTE PTR [ecx+eax+50], 0

; 1982 : 	}

  05c12	eb e1		 jmp	 SHORT $LN2@ResetPlaye
$LN4@ResetPlaye:

; 1983 : }

  05c14	5f		 pop	 edi
  05c15	5e		 pop	 esi
  05c16	5b		 pop	 ebx
  05c17	8b e5		 mov	 esp, ebp
  05c19	5d		 pop	 ebp
  05c1a	c3		 ret	 0
?ResetPlayerReward@CIllusionTempleProcess@@QAEXXZ ENDP	; CIllusionTempleProcess::ResetPlayerReward
_TEXT	ENDS
PUBLIC	?__LINE__Var@?1??IncreaseUsedKillCount@CIllusionTempleProcess@@QAEXH@Z@4JA ; `CIllusionTempleProcess::IncreaseUsedKillCount'::`2'::__LINE__Var
PUBLIC	?IncreaseUsedKillCount@CIllusionTempleProcess@@QAEXH@Z ; CIllusionTempleProcess::IncreaseUsedKillCount
;	COMDAT ?__LINE__Var@?1??IncreaseUsedKillCount@CIllusionTempleProcess@@QAEXH@Z@4JA
_DATA	SEGMENT
?__LINE__Var@?1??IncreaseUsedKillCount@CIllusionTempleProcess@@QAEXH@Z@4JA DD 07c2H ; `CIllusionTempleProcess::IncreaseUsedKillCount'::`2'::__LINE__Var
; Function compile flags: /Odtp /ZI
_DATA	ENDS
_TEXT	SEGMENT
tv67 = -72						; size = 4
_this$ = -4						; size = 4
_aIndex$ = 8						; size = 4
?IncreaseUsedKillCount@CIllusionTempleProcess@@QAEXH@Z PROC ; CIllusionTempleProcess::IncreaseUsedKillCount
; _this$ = ecx

; 1986 : {

  05c20	55		 push	 ebp
  05c21	8b ec		 mov	 ebp, esp
  05c23	83 ec 48	 sub	 esp, 72			; 00000048H
  05c26	53		 push	 ebx
  05c27	56		 push	 esi
  05c28	57		 push	 edi
  05c29	89 4d fc	 mov	 DWORD PTR _this$[ebp], ecx

; 1987 : 	if( OBJMAX_RANGE(aIndex) == FALSE )

  05c2c	83 7d 08 00	 cmp	 DWORD PTR _aIndex$[ebp], 0
  05c30	7d 09		 jge	 SHORT $LN8@IncreaseUs@2
  05c32	c7 45 b8 00 00
	00 00		 mov	 DWORD PTR tv67[ebp], 0
  05c39	eb 0f		 jmp	 SHORT $LN9@IncreaseUs@2
$LN8@IncreaseUs@2:
  05c3b	33 c0		 xor	 eax, eax
  05c3d	81 7d 08 97 3a
	00 00		 cmp	 DWORD PTR _aIndex$[ebp], 14999 ; 00003a97H
  05c44	0f 9e c0	 setle	 al
  05c47	89 45 b8	 mov	 DWORD PTR tv67[ebp], eax
$LN9@IncreaseUs@2:
  05c4a	83 7d b8 00	 cmp	 DWORD PTR tv67[ebp], 0
  05c4e	75 21		 jne	 SHORT $LN5@IncreaseUs@2

; 1988 : 	{
; 1989 : 		LogAdd("return %s %d", __FILE__, __LINE__);

  05c50	a1 00 00 00 00	 mov	 eax, DWORD PTR ?__LINE__Var@?1??IncreaseUsedKillCount@CIllusionTempleProcess@@QAEXH@Z@4JA
  05c55	83 c0 03	 add	 eax, 3
  05c58	50		 push	 eax
  05c59	68 00 00 00 00	 push	 OFFSET ??_C@_0EN@FIHDICBF@d?3?2projects?2exteam6?43?2source?2gam@
  05c5e	68 00 00 00 00	 push	 OFFSET ??_C@_0N@GGPGOPEN@return?5?$CFs?5?$CFd?$AA@
  05c63	ff 15 00 00 00
	00		 call	 DWORD PTR ?LogAdd@@3P6AXPADZZA ; LogAdd
  05c69	83 c4 0c	 add	 esp, 12			; 0000000cH

; 1990 : 		return;

  05c6c	e9 c6 00 00 00	 jmp	 $LN6@IncreaseUs@2
$LN5@IncreaseUs@2:

; 1991 : 	}
; 1992 : 
; 1993 : 	if(gObj[aIndex].m_iIllusionTempleIndex != -1)

  05c71	8b 45 08	 mov	 eax, DWORD PTR _aIndex$[ebp]
  05c74	69 c0 38 2b 00
	00		 imul	 eax, 11064		; 00002b38H
  05c7a	8b 0d 00 00 00
	00		 mov	 ecx, DWORD PTR ?gObj@@3PAUOBJECTSTRUCT@@A ; gObj
  05c80	83 bc 01 78 20
	00 00 ff	 cmp	 DWORD PTR [ecx+eax+8312], -1
  05c88	0f 84 a9 00 00
	00		 je	 $LN6@IncreaseUs@2

; 1994 : 	{
; 1995 : 		if(this->m_FloorData[gObj[aIndex].m_iIllusionTempleIndex].m_iTeamPlayerIndex == aIndex || gObj[aIndex].Connected > PLAYER_LOGGED)

  05c8e	8b 45 08	 mov	 eax, DWORD PTR _aIndex$[ebp]
  05c91	69 c0 38 2b 00
	00		 imul	 eax, 11064		; 00002b38H
  05c97	8b 0d 00 00 00
	00		 mov	 ecx, DWORD PTR ?gObj@@3PAUOBJECTSTRUCT@@A ; gObj
  05c9d	8b 94 01 78 20
	00 00		 mov	 edx, DWORD PTR [ecx+eax+8312]
  05ca4	6b d2 30	 imul	 edx, 48			; 00000030H
  05ca7	8b 45 fc	 mov	 eax, DWORD PTR _this$[ebp]
  05caa	8b 4c 10 20	 mov	 ecx, DWORD PTR [eax+edx+32]
  05cae	3b 4d 08	 cmp	 ecx, DWORD PTR _aIndex$[ebp]
  05cb1	74 16		 je	 SHORT $LN2@IncreaseUs@2
  05cb3	8b 45 08	 mov	 eax, DWORD PTR _aIndex$[ebp]
  05cb6	69 c0 38 2b 00
	00		 imul	 eax, 11064		; 00002b38H
  05cbc	8b 0d 00 00 00
	00		 mov	 ecx, DWORD PTR ?gObj@@3PAUOBJECTSTRUCT@@A ; gObj
  05cc2	83 7c 01 04 02	 cmp	 DWORD PTR [ecx+eax+4], 2
  05cc7	7e 6e		 jle	 SHORT $LN6@IncreaseUs@2
$LN2@IncreaseUs@2:

; 1996 : 		{
; 1997 : 			if(this->m_FloorData[gObj[aIndex].m_iIllusionTempleIndex].m_btUsedKillCountPoint > (BYTE)-1)

  05cc9	8b 45 08	 mov	 eax, DWORD PTR _aIndex$[ebp]
  05ccc	69 c0 38 2b 00
	00		 imul	 eax, 11064		; 00002b38H
  05cd2	8b 0d 00 00 00
	00		 mov	 ecx, DWORD PTR ?gObj@@3PAUOBJECTSTRUCT@@A ; gObj
  05cd8	8b 94 01 78 20
	00 00		 mov	 edx, DWORD PTR [ecx+eax+8312]
  05cdf	6b d2 30	 imul	 edx, 48			; 00000030H
  05ce2	8b 45 fc	 mov	 eax, DWORD PTR _this$[ebp]
  05ce5	0f b6 4c 10 33	 movzx	 ecx, BYTE PTR [eax+edx+51]
  05cea	81 f9 ff 00 00
	00		 cmp	 ecx, 255		; 000000ffH
  05cf0	7e 02		 jle	 SHORT $LN1@IncreaseUs@2

; 1998 : 			{
; 1999 : 				return;

  05cf2	eb 43		 jmp	 SHORT $LN6@IncreaseUs@2
$LN1@IncreaseUs@2:

; 2000 : 			}
; 2001 : 			this->m_FloorData[gObj[aIndex].m_iIllusionTempleIndex].m_btUsedKillCountPoint+= 1;

  05cf4	8b 45 08	 mov	 eax, DWORD PTR _aIndex$[ebp]
  05cf7	69 c0 38 2b 00
	00		 imul	 eax, 11064		; 00002b38H
  05cfd	8b 0d 00 00 00
	00		 mov	 ecx, DWORD PTR ?gObj@@3PAUOBJECTSTRUCT@@A ; gObj
  05d03	8b 94 01 78 20
	00 00		 mov	 edx, DWORD PTR [ecx+eax+8312]
  05d0a	6b d2 30	 imul	 edx, 48			; 00000030H
  05d0d	8b 45 fc	 mov	 eax, DWORD PTR _this$[ebp]
  05d10	0f b6 4c 10 33	 movzx	 ecx, BYTE PTR [eax+edx+51]
  05d15	83 c1 01	 add	 ecx, 1
  05d18	8b 55 08	 mov	 edx, DWORD PTR _aIndex$[ebp]
  05d1b	69 d2 38 2b 00
	00		 imul	 edx, 11064		; 00002b38H
  05d21	a1 00 00 00 00	 mov	 eax, DWORD PTR ?gObj@@3PAUOBJECTSTRUCT@@A ; gObj
  05d26	8b 94 10 78 20
	00 00		 mov	 edx, DWORD PTR [eax+edx+8312]
  05d2d	6b d2 30	 imul	 edx, 48			; 00000030H
  05d30	8b 45 fc	 mov	 eax, DWORD PTR _this$[ebp]
  05d33	88 4c 10 33	 mov	 BYTE PTR [eax+edx+51], cl
$LN6@IncreaseUs@2:

; 2002 : 		}
; 2003 : 	}
; 2004 : }

  05d37	5f		 pop	 edi
  05d38	5e		 pop	 esi
  05d39	5b		 pop	 ebx
  05d3a	8b e5		 mov	 esp, ebp
  05d3c	5d		 pop	 ebp
  05d3d	c2 04 00	 ret	 4
?IncreaseUsedKillCount@CIllusionTempleProcess@@QAEXH@Z ENDP ; CIllusionTempleProcess::IncreaseUsedKillCount
_TEXT	ENDS
PUBLIC	?ResetUserUsedKillCount@CIllusionTempleProcess@@QAEXXZ ; CIllusionTempleProcess::ResetUserUsedKillCount
; Function compile flags: /Odtp /ZI
_TEXT	SEGMENT
_i$234726 = -8						; size = 4
_this$ = -4						; size = 4
?ResetUserUsedKillCount@CIllusionTempleProcess@@QAEXXZ PROC ; CIllusionTempleProcess::ResetUserUsedKillCount
; _this$ = ecx

; 2007 : {

  05d40	55		 push	 ebp
  05d41	8b ec		 mov	 ebp, esp
  05d43	83 ec 48	 sub	 esp, 72			; 00000048H
  05d46	53		 push	 ebx
  05d47	56		 push	 esi
  05d48	57		 push	 edi
  05d49	89 4d fc	 mov	 DWORD PTR _this$[ebp], ecx

; 2008 : 	for(int i = 0; i < MAX_FLOOR_USER; i++)

  05d4c	c7 45 f8 00 00
	00 00		 mov	 DWORD PTR _i$234726[ebp], 0
  05d53	eb 09		 jmp	 SHORT $LN3@ResetUserU
$LN2@ResetUserU:
  05d55	8b 45 f8	 mov	 eax, DWORD PTR _i$234726[ebp]
  05d58	83 c0 01	 add	 eax, 1
  05d5b	89 45 f8	 mov	 DWORD PTR _i$234726[ebp], eax
$LN3@ResetUserU:
  05d5e	83 7d f8 0a	 cmp	 DWORD PTR _i$234726[ebp], 10 ; 0000000aH
  05d62	7d 10		 jge	 SHORT $LN4@ResetUserU

; 2009 : 	{
; 2010 : 		this->m_FloorData[i].m_btUsedKillCountPoint = 0;

  05d64	8b 45 f8	 mov	 eax, DWORD PTR _i$234726[ebp]
  05d67	6b c0 30	 imul	 eax, 48			; 00000030H
  05d6a	8b 4d fc	 mov	 ecx, DWORD PTR _this$[ebp]
  05d6d	c6 44 01 33 00	 mov	 BYTE PTR [ecx+eax+51], 0

; 2011 : 	}

  05d72	eb e1		 jmp	 SHORT $LN2@ResetUserU
$LN4@ResetUserU:

; 2012 : }

  05d74	5f		 pop	 edi
  05d75	5e		 pop	 esi
  05d76	5b		 pop	 ebx
  05d77	8b e5		 mov	 esp, ebp
  05d79	5d		 pop	 ebp
  05d7a	c3		 ret	 0
?ResetUserUsedKillCount@CIllusionTempleProcess@@QAEXXZ ENDP ; CIllusionTempleProcess::ResetUserUsedKillCount
_TEXT	ENDS
PUBLIC	??_C@_0DG@DAAGPJBE@?$FLIllusion?5Temple?$FN?5?$CI?$CFd?$CJ?5Use?5Skill@ ; `string'
PUBLIC	?ShieldClashSpell@CIllusionTempleProcess@@QAEHPAUOBJECTSTRUCT@@0@Z ; CIllusionTempleProcess::ShieldClashSpell
PUBLIC	?PursuitSpell@CIllusionTempleProcess@@QAEHPAUOBJECTSTRUCT@@@Z ; CIllusionTempleProcess::PursuitSpell
PUBLIC	?RestrictionSpell@CIllusionTempleProcess@@QAEHPAUOBJECTSTRUCT@@0@Z ; CIllusionTempleProcess::RestrictionSpell
PUBLIC	?ShieldSpell@CIllusionTempleProcess@@QAEHPAUOBJECTSTRUCT@@@Z ; CIllusionTempleProcess::ShieldSpell
PUBLIC	??_C@_0DM@DBHFAIH@?$FLIllusion?5Temple?$FN?5?$CI?$CFd?$CJ?5Use?5Skill@ ; `string'
PUBLIC	?GCIllusionTempleSkillApply@CIllusionTempleProcess@@QAEXHHGE@Z ; CIllusionTempleProcess::GCIllusionTempleSkillApply
PUBLIC	?__LINE__Var@?1??RunningSkill@CIllusionTempleProcess@@QAEXHGHE@Z@4JA ; `CIllusionTempleProcess::RunningSkill'::`2'::__LINE__Var
PUBLIC	?RunningSkill@CIllusionTempleProcess@@QAEXHGHE@Z ; CIllusionTempleProcess::RunningSkill
EXTRN	?CheckKillCount@CMagicDamage@@QAEHHH@Z:PROC	; CMagicDamage::CheckKillCount
EXTRN	?MagicDamageC@@3VCMagicDamage@@A:BYTE		; MagicDamageC
;	COMDAT ??_C@_0DG@DAAGPJBE@?$FLIllusion?5Temple?$FN?5?$CI?$CFd?$CJ?5Use?5Skill@
CONST	SEGMENT
??_C@_0DG@DAAGPJBE@?$FLIllusion?5Temple?$FN?5?$CI?$CFd?$CJ?5Use?5Skill@ DB '['
	DB	'Illusion Temple] (%d) Use Skill (%d), (%s)(%s), (%d)', 00H ; `string'
CONST	ENDS
;	COMDAT ??_C@_0DM@DBHFAIH@?$FLIllusion?5Temple?$FN?5?$CI?$CFd?$CJ?5Use?5Skill@
CONST	SEGMENT
??_C@_0DM@DBHFAIH@?$FLIllusion?5Temple?$FN?5?$CI?$CFd?$CJ?5Use?5Skill@ DB '['
	DB	'Illusion Temple] (%d) Use Skill KillCount Error (Skill:%d)', 00H ; `string'
CONST	ENDS
;	COMDAT ?__LINE__Var@?1??RunningSkill@CIllusionTempleProcess@@QAEXHGHE@Z@4JA
_DATA	SEGMENT
?__LINE__Var@?1??RunningSkill@CIllusionTempleProcess@@QAEXHGHE@Z@4JA DD 07dfH ; `CIllusionTempleProcess::RunningSkill'::`2'::__LINE__Var
; Function compile flags: /Odtp /ZI
_DATA	ENDS
_TEXT	SEGMENT
tv156 = -92						; size = 4
tv76 = -92						; size = 4
tv67 = -92						; size = 4
_ebp18$234765 = -24					; size = 4
_ebp14$ = -20						; size = 4
_ebp10$ = -16						; size = 4
_lpTargetObj$ = -12					; size = 4
_lpObj$ = -8						; size = 4
_this$ = -4						; size = 4
_aIndex$ = 8						; size = 4
_skill$ = 12						; size = 2
_aTargetIndex$ = 16					; size = 4
_btDir$ = 20						; size = 1
?RunningSkill@CIllusionTempleProcess@@QAEXHGHE@Z PROC	; CIllusionTempleProcess::RunningSkill
; _this$ = ecx

; 2015 : {

  05d80	55		 push	 ebp
  05d81	8b ec		 mov	 ebp, esp
  05d83	83 ec 5c	 sub	 esp, 92			; 0000005cH
  05d86	53		 push	 ebx
  05d87	56		 push	 esi
  05d88	57		 push	 edi
  05d89	89 4d fc	 mov	 DWORD PTR _this$[ebp], ecx

; 2016 : 	if( OBJMAX_RANGE(aIndex) == FALSE )

  05d8c	83 7d 08 00	 cmp	 DWORD PTR _aIndex$[ebp], 0
  05d90	7d 09		 jge	 SHORT $LN26@RunningSki
  05d92	c7 45 a4 00 00
	00 00		 mov	 DWORD PTR tv67[ebp], 0
  05d99	eb 0f		 jmp	 SHORT $LN27@RunningSki
$LN26@RunningSki:
  05d9b	33 c0		 xor	 eax, eax
  05d9d	81 7d 08 97 3a
	00 00		 cmp	 DWORD PTR _aIndex$[ebp], 14999 ; 00003a97H
  05da4	0f 9e c0	 setle	 al
  05da7	89 45 a4	 mov	 DWORD PTR tv67[ebp], eax
$LN27@RunningSki:
  05daa	83 7d a4 00	 cmp	 DWORD PTR tv67[ebp], 0
  05dae	75 21		 jne	 SHORT $LN23@RunningSki

; 2017 : 	{
; 2018 : 		LogAdd("return %s %d", __FILE__, __LINE__);

  05db0	a1 00 00 00 00	 mov	 eax, DWORD PTR ?__LINE__Var@?1??RunningSkill@CIllusionTempleProcess@@QAEXHGHE@Z@4JA
  05db5	83 c0 03	 add	 eax, 3
  05db8	50		 push	 eax
  05db9	68 00 00 00 00	 push	 OFFSET ??_C@_0EN@FIHDICBF@d?3?2projects?2exteam6?43?2source?2gam@
  05dbe	68 00 00 00 00	 push	 OFFSET ??_C@_0N@GGPGOPEN@return?5?$CFs?5?$CFd?$AA@
  05dc3	ff 15 00 00 00
	00		 call	 DWORD PTR ?LogAdd@@3P6AXPADZZA ; LogAdd
  05dc9	83 c4 0c	 add	 esp, 12			; 0000000cH

; 2019 : 		return;

  05dcc	e9 db 03 00 00	 jmp	 $LN24@RunningSki
$LN23@RunningSki:

; 2020 : 	}
; 2021 : 
; 2022 : 	LPOBJ lpObj;
; 2023 : 	LPOBJ lpTargetObj;
; 2024 : 	
; 2025 : 	if( OBJMAX_RANGE(aTargetIndex) == FALSE )

  05dd1	83 7d 10 00	 cmp	 DWORD PTR _aTargetIndex$[ebp], 0
  05dd5	7d 09		 jge	 SHORT $LN28@RunningSki
  05dd7	c7 45 a4 00 00
	00 00		 mov	 DWORD PTR tv76[ebp], 0
  05dde	eb 0f		 jmp	 SHORT $LN29@RunningSki
$LN28@RunningSki:
  05de0	33 c0		 xor	 eax, eax
  05de2	81 7d 10 97 3a
	00 00		 cmp	 DWORD PTR _aTargetIndex$[ebp], 14999 ; 00003a97H
  05de9	0f 9e c0	 setle	 al
  05dec	89 45 a4	 mov	 DWORD PTR tv76[ebp], eax
$LN29@RunningSki:
  05def	83 7d a4 00	 cmp	 DWORD PTR tv76[ebp], 0
  05df3	75 21		 jne	 SHORT $LN22@RunningSki

; 2026 : 	{
; 2027 : 		LogAdd("return %s %d", __FILE__, __LINE__);

  05df5	a1 00 00 00 00	 mov	 eax, DWORD PTR ?__LINE__Var@?1??RunningSkill@CIllusionTempleProcess@@QAEXHGHE@Z@4JA
  05dfa	83 c0 0c	 add	 eax, 12			; 0000000cH
  05dfd	50		 push	 eax
  05dfe	68 00 00 00 00	 push	 OFFSET ??_C@_0EN@FIHDICBF@d?3?2projects?2exteam6?43?2source?2gam@
  05e03	68 00 00 00 00	 push	 OFFSET ??_C@_0N@GGPGOPEN@return?5?$CFs?5?$CFd?$AA@
  05e08	ff 15 00 00 00
	00		 call	 DWORD PTR ?LogAdd@@3P6AXPADZZA ; LogAdd
  05e0e	83 c4 0c	 add	 esp, 12			; 0000000cH

; 2028 : 		return;

  05e11	e9 96 03 00 00	 jmp	 $LN24@RunningSki
$LN22@RunningSki:

; 2029 : 	}
; 2030 : 
; 2031 : 	lpObj = &gObj[aIndex]; //ebp-8

  05e16	8b 45 08	 mov	 eax, DWORD PTR _aIndex$[ebp]
  05e19	69 c0 38 2b 00
	00		 imul	 eax, 11064		; 00002b38H
  05e1f	03 05 00 00 00
	00		 add	 eax, DWORD PTR ?gObj@@3PAUOBJECTSTRUCT@@A ; gObj
  05e25	89 45 f8	 mov	 DWORD PTR _lpObj$[ebp], eax

; 2032 : 	lpTargetObj = &gObj[aTargetIndex];

  05e28	8b 45 10	 mov	 eax, DWORD PTR _aTargetIndex$[ebp]
  05e2b	69 c0 38 2b 00
	00		 imul	 eax, 11064		; 00002b38H
  05e31	03 05 00 00 00
	00		 add	 eax, DWORD PTR ?gObj@@3PAUOBJECTSTRUCT@@A ; gObj
  05e37	89 45 f4	 mov	 DWORD PTR _lpTargetObj$[ebp], eax

; 2033 : 
; 2034 : 	if(this->GetState() != 2)

  05e3a	8b 4d fc	 mov	 ecx, DWORD PTR _this$[ebp]
  05e3d	e8 00 00 00 00	 call	 ?GetState@CIllusionTempleProcess@@QAEEXZ ; CIllusionTempleProcess::GetState
  05e42	0f b6 c0	 movzx	 eax, al
  05e45	83 f8 02	 cmp	 eax, 2
  05e48	74 20		 je	 SHORT $LN21@RunningSki

; 2035 : 	{
; 2036 : 		this->GCIllusionTempleSkillApply(lpObj->m_Index, lpTargetObj->m_Index, skill, 0);

  05e4a	6a 00		 push	 0
  05e4c	0f b7 45 0c	 movzx	 eax, WORD PTR _skill$[ebp]
  05e50	50		 push	 eax
  05e51	8b 4d f4	 mov	 ecx, DWORD PTR _lpTargetObj$[ebp]
  05e54	8b 11		 mov	 edx, DWORD PTR [ecx]
  05e56	52		 push	 edx
  05e57	8b 45 f8	 mov	 eax, DWORD PTR _lpObj$[ebp]
  05e5a	8b 08		 mov	 ecx, DWORD PTR [eax]
  05e5c	51		 push	 ecx
  05e5d	8b 4d fc	 mov	 ecx, DWORD PTR _this$[ebp]
  05e60	e8 00 00 00 00	 call	 ?GCIllusionTempleSkillApply@CIllusionTempleProcess@@QAEXHHGE@Z ; CIllusionTempleProcess::GCIllusionTempleSkillApply

; 2037 : 		return;

  05e65	e9 42 03 00 00	 jmp	 $LN24@RunningSki
$LN21@RunningSki:

; 2038 : 	}
; 2039 : 
; 2040 : 	if(lpObj->Connected <= PLAYER_LOGGED || lpTargetObj->Connected <= PLAYER_LOGGED)

  05e6a	8b 45 f8	 mov	 eax, DWORD PTR _lpObj$[ebp]
  05e6d	83 78 04 02	 cmp	 DWORD PTR [eax+4], 2
  05e71	7e 09		 jle	 SHORT $LN19@RunningSki
  05e73	8b 45 f4	 mov	 eax, DWORD PTR _lpTargetObj$[ebp]
  05e76	83 78 04 02	 cmp	 DWORD PTR [eax+4], 2
  05e7a	7f 20		 jg	 SHORT $LN20@RunningSki
$LN19@RunningSki:

; 2041 : 	{
; 2042 : 		this->GCIllusionTempleSkillApply(lpObj->m_Index, lpTargetObj->m_Index, skill, 0);

  05e7c	6a 00		 push	 0
  05e7e	0f b7 45 0c	 movzx	 eax, WORD PTR _skill$[ebp]
  05e82	50		 push	 eax
  05e83	8b 4d f4	 mov	 ecx, DWORD PTR _lpTargetObj$[ebp]
  05e86	8b 11		 mov	 edx, DWORD PTR [ecx]
  05e88	52		 push	 edx
  05e89	8b 45 f8	 mov	 eax, DWORD PTR _lpObj$[ebp]
  05e8c	8b 08		 mov	 ecx, DWORD PTR [eax]
  05e8e	51		 push	 ecx
  05e8f	8b 4d fc	 mov	 ecx, DWORD PTR _this$[ebp]
  05e92	e8 00 00 00 00	 call	 ?GCIllusionTempleSkillApply@CIllusionTempleProcess@@QAEXHHGE@Z ; CIllusionTempleProcess::GCIllusionTempleSkillApply

; 2043 : 		return;

  05e97	e9 10 03 00 00	 jmp	 $LN24@RunningSki
$LN20@RunningSki:

; 2044 : 	}
; 2045 : 
; 2046 : 	if(lpObj->MapNumber != lpTargetObj->MapNumber)

  05e9c	8b 45 f8	 mov	 eax, DWORD PTR _lpObj$[ebp]
  05e9f	0f b6 88 49 01
	00 00		 movzx	 ecx, BYTE PTR [eax+329]
  05ea6	8b 55 f4	 mov	 edx, DWORD PTR _lpTargetObj$[ebp]
  05ea9	0f b6 82 49 01
	00 00		 movzx	 eax, BYTE PTR [edx+329]
  05eb0	3b c8		 cmp	 ecx, eax
  05eb2	74 20		 je	 SHORT $LN18@RunningSki

; 2047 : 	{
; 2048 : 		this->GCIllusionTempleSkillApply(lpObj->m_Index, lpTargetObj->m_Index, skill, 0);

  05eb4	6a 00		 push	 0
  05eb6	0f b7 45 0c	 movzx	 eax, WORD PTR _skill$[ebp]
  05eba	50		 push	 eax
  05ebb	8b 4d f4	 mov	 ecx, DWORD PTR _lpTargetObj$[ebp]
  05ebe	8b 11		 mov	 edx, DWORD PTR [ecx]
  05ec0	52		 push	 edx
  05ec1	8b 45 f8	 mov	 eax, DWORD PTR _lpObj$[ebp]
  05ec4	8b 08		 mov	 ecx, DWORD PTR [eax]
  05ec6	51		 push	 ecx
  05ec7	8b 4d fc	 mov	 ecx, DWORD PTR _this$[ebp]
  05eca	e8 00 00 00 00	 call	 ?GCIllusionTempleSkillApply@CIllusionTempleProcess@@QAEXHHGE@Z ; CIllusionTempleProcess::GCIllusionTempleSkillApply

; 2049 : 		return;

  05ecf	e9 d8 02 00 00	 jmp	 $LN24@RunningSki
$LN18@RunningSki:

; 2050 : 	}
; 2051 : 
; 2052 : 	if(lpObj->m_iIllusionTempleIndex == -1 || lpTargetObj->m_iIllusionTempleIndex == -1)

  05ed4	8b 45 f8	 mov	 eax, DWORD PTR _lpObj$[ebp]
  05ed7	83 b8 78 20 00
	00 ff		 cmp	 DWORD PTR [eax+8312], -1
  05ede	74 0c		 je	 SHORT $LN16@RunningSki
  05ee0	8b 45 f4	 mov	 eax, DWORD PTR _lpTargetObj$[ebp]
  05ee3	83 b8 78 20 00
	00 ff		 cmp	 DWORD PTR [eax+8312], -1
  05eea	75 20		 jne	 SHORT $LN17@RunningSki
$LN16@RunningSki:

; 2053 : 	{
; 2054 : 		this->GCIllusionTempleSkillApply(lpObj->m_Index, lpTargetObj->m_Index, skill, 0);

  05eec	6a 00		 push	 0
  05eee	0f b7 45 0c	 movzx	 eax, WORD PTR _skill$[ebp]
  05ef2	50		 push	 eax
  05ef3	8b 4d f4	 mov	 ecx, DWORD PTR _lpTargetObj$[ebp]
  05ef6	8b 11		 mov	 edx, DWORD PTR [ecx]
  05ef8	52		 push	 edx
  05ef9	8b 45 f8	 mov	 eax, DWORD PTR _lpObj$[ebp]
  05efc	8b 08		 mov	 ecx, DWORD PTR [eax]
  05efe	51		 push	 ecx
  05eff	8b 4d fc	 mov	 ecx, DWORD PTR _this$[ebp]
  05f02	e8 00 00 00 00	 call	 ?GCIllusionTempleSkillApply@CIllusionTempleProcess@@QAEXHHGE@Z ; CIllusionTempleProcess::GCIllusionTempleSkillApply

; 2055 : 		return;

  05f07	e9 a0 02 00 00	 jmp	 $LN24@RunningSki
$LN17@RunningSki:

; 2056 : 	}
; 2057 : 
; 2058 : 	int ebp10 = -1; //loc4

  05f0c	c7 45 f0 ff ff
	ff ff		 mov	 DWORD PTR _ebp10$[ebp], -1

; 2059 : 	int ebp14 = 1; //loc5

  05f13	c7 45 ec 01 00
	00 00		 mov	 DWORD PTR _ebp14$[ebp], 1

; 2060 : 
; 2061 : 	switch(skill)

  05f1a	0f b7 45 0c	 movzx	 eax, WORD PTR _skill$[ebp]
  05f1e	89 45 a4	 mov	 DWORD PTR tv156[ebp], eax
  05f21	8b 4d a4	 mov	 ecx, DWORD PTR tv156[ebp]
  05f24	81 e9 d2 00 00
	00		 sub	 ecx, 210		; 000000d2H
  05f2a	89 4d a4	 mov	 DWORD PTR tv156[ebp], ecx
  05f2d	83 7d a4 03	 cmp	 DWORD PTR tv156[ebp], 3
  05f31	0f 87 b5 01 00
	00		 ja	 $LN5@RunningSki
  05f37	8b 55 a4	 mov	 edx, DWORD PTR tv156[ebp]
  05f3a	ff 24 95 00 00
	00 00		 jmp	 DWORD PTR $LN30@RunningSki[edx*4]
$LN13@RunningSki:

; 2062 : 	{
; 2063 : 		case 210:
; 2064 : 			{
; 2065 : 				ebp10 = MagicDamageC.CheckKillCount(210, this->GetKillCountPointFromUser(lpObj->m_Index) );

  05f41	8b 45 f8	 mov	 eax, DWORD PTR _lpObj$[ebp]
  05f44	8b 08		 mov	 ecx, DWORD PTR [eax]
  05f46	51		 push	 ecx
  05f47	8b 4d fc	 mov	 ecx, DWORD PTR _this$[ebp]
  05f4a	e8 00 00 00 00	 call	 ?GetKillCountPointFromUser@CIllusionTempleProcess@@QAEEH@Z ; CIllusionTempleProcess::GetKillCountPointFromUser
  05f4f	0f b6 d0	 movzx	 edx, al
  05f52	52		 push	 edx
  05f53	68 d2 00 00 00	 push	 210			; 000000d2H
  05f58	b9 00 00 00 00	 mov	 ecx, OFFSET ?MagicDamageC@@3VCMagicDamage@@A ; MagicDamageC
  05f5d	e8 00 00 00 00	 call	 ?CheckKillCount@CMagicDamage@@QAEHHH@Z ; CMagicDamage::CheckKillCount
  05f62	89 45 f0	 mov	 DWORD PTR _ebp10$[ebp], eax

; 2066 : 				
; 2067 : 				if(ebp10 < 0)

  05f65	83 7d f0 00	 cmp	 DWORD PTR _ebp10$[ebp], 0
  05f69	7d 2d		 jge	 SHORT $LN12@RunningSki

; 2068 : 				{
; 2069 : 					ebp14 = 0;

  05f6b	c7 45 ec 00 00
	00 00		 mov	 DWORD PTR _ebp14$[ebp], 0

; 2070 : 					LogAddTD("[Illusion Temple] (%d) Use Skill KillCount Error (Skill:%d)", this->m_btFloorIndex+1, skill);

  05f72	0f b7 45 0c	 movzx	 eax, WORD PTR _skill$[ebp]
  05f76	50		 push	 eax
  05f77	8b 4d fc	 mov	 ecx, DWORD PTR _this$[ebp]
  05f7a	0f b6 91 2c 02
	00 00		 movzx	 edx, BYTE PTR [ecx+556]
  05f81	83 c2 01	 add	 edx, 1
  05f84	52		 push	 edx
  05f85	68 00 00 00 00	 push	 OFFSET ??_C@_0DM@DBHFAIH@?$FLIllusion?5Temple?$FN?5?$CI?$CFd?$CJ?5Use?5Skill@
  05f8a	ff 15 00 00 00
	00		 call	 DWORD PTR ?LogAddTD@@3P6AXPADZZA ; LogAddTD
  05f90	83 c4 0c	 add	 esp, 12			; 0000000cH

; 2071 : 					break;

  05f93	e9 5b 01 00 00	 jmp	 $LN14@RunningSki
$LN12@RunningSki:

; 2072 : 				}
; 2073 : 				ebp14 = this->ShieldSpell(lpObj);

  05f98	8b 45 f8	 mov	 eax, DWORD PTR _lpObj$[ebp]
  05f9b	50		 push	 eax
  05f9c	8b 4d fc	 mov	 ecx, DWORD PTR _this$[ebp]
  05f9f	e8 00 00 00 00	 call	 ?ShieldSpell@CIllusionTempleProcess@@QAEHPAUOBJECTSTRUCT@@@Z ; CIllusionTempleProcess::ShieldSpell
  05fa4	89 45 ec	 mov	 DWORD PTR _ebp14$[ebp], eax

; 2074 : 			}
; 2075 : 			break;

  05fa7	e9 47 01 00 00	 jmp	 $LN14@RunningSki
$LN11@RunningSki:

; 2076 : 		case 211:
; 2077 : 			{
; 2078 : 				ebp10 = MagicDamageC.CheckKillCount(211, this->GetKillCountPointFromUser(lpObj->m_Index) );

  05fac	8b 45 f8	 mov	 eax, DWORD PTR _lpObj$[ebp]
  05faf	8b 08		 mov	 ecx, DWORD PTR [eax]
  05fb1	51		 push	 ecx
  05fb2	8b 4d fc	 mov	 ecx, DWORD PTR _this$[ebp]
  05fb5	e8 00 00 00 00	 call	 ?GetKillCountPointFromUser@CIllusionTempleProcess@@QAEEH@Z ; CIllusionTempleProcess::GetKillCountPointFromUser
  05fba	0f b6 d0	 movzx	 edx, al
  05fbd	52		 push	 edx
  05fbe	68 d3 00 00 00	 push	 211			; 000000d3H
  05fc3	b9 00 00 00 00	 mov	 ecx, OFFSET ?MagicDamageC@@3VCMagicDamage@@A ; MagicDamageC
  05fc8	e8 00 00 00 00	 call	 ?CheckKillCount@CMagicDamage@@QAEHHH@Z ; CMagicDamage::CheckKillCount
  05fcd	89 45 f0	 mov	 DWORD PTR _ebp10$[ebp], eax

; 2079 : 				
; 2080 : 				if(ebp10 < 0)

  05fd0	83 7d f0 00	 cmp	 DWORD PTR _ebp10$[ebp], 0
  05fd4	7d 2d		 jge	 SHORT $LN10@RunningSki

; 2081 : 				{
; 2082 : 					ebp14 = 0;

  05fd6	c7 45 ec 00 00
	00 00		 mov	 DWORD PTR _ebp14$[ebp], 0

; 2083 : 					LogAddTD("[Illusion Temple] (%d) Use Skill KillCount Error (Skill:%d)", this->m_btFloorIndex+1, skill);

  05fdd	0f b7 45 0c	 movzx	 eax, WORD PTR _skill$[ebp]
  05fe1	50		 push	 eax
  05fe2	8b 4d fc	 mov	 ecx, DWORD PTR _this$[ebp]
  05fe5	0f b6 91 2c 02
	00 00		 movzx	 edx, BYTE PTR [ecx+556]
  05fec	83 c2 01	 add	 edx, 1
  05fef	52		 push	 edx
  05ff0	68 00 00 00 00	 push	 OFFSET ??_C@_0DM@DBHFAIH@?$FLIllusion?5Temple?$FN?5?$CI?$CFd?$CJ?5Use?5Skill@
  05ff5	ff 15 00 00 00
	00		 call	 DWORD PTR ?LogAddTD@@3P6AXPADZZA ; LogAddTD
  05ffb	83 c4 0c	 add	 esp, 12			; 0000000cH

; 2084 : 					break;

  05ffe	e9 f0 00 00 00	 jmp	 $LN14@RunningSki
$LN10@RunningSki:

; 2085 : 				}
; 2086 : 				ebp14 = this->RestrictionSpell(lpObj, lpTargetObj);

  06003	8b 45 f4	 mov	 eax, DWORD PTR _lpTargetObj$[ebp]
  06006	50		 push	 eax
  06007	8b 4d f8	 mov	 ecx, DWORD PTR _lpObj$[ebp]
  0600a	51		 push	 ecx
  0600b	8b 4d fc	 mov	 ecx, DWORD PTR _this$[ebp]
  0600e	e8 00 00 00 00	 call	 ?RestrictionSpell@CIllusionTempleProcess@@QAEHPAUOBJECTSTRUCT@@0@Z ; CIllusionTempleProcess::RestrictionSpell
  06013	89 45 ec	 mov	 DWORD PTR _ebp14$[ebp], eax

; 2087 : 			}
; 2088 : 			break;

  06016	e9 d8 00 00 00	 jmp	 $LN14@RunningSki
$LN9@RunningSki:

; 2089 : 		case 212:
; 2090 : 			{
; 2091 : 				ebp10 = MagicDamageC.CheckKillCount(212, this->GetKillCountPointFromUser(lpObj->m_Index) );

  0601b	8b 45 f8	 mov	 eax, DWORD PTR _lpObj$[ebp]
  0601e	8b 08		 mov	 ecx, DWORD PTR [eax]
  06020	51		 push	 ecx
  06021	8b 4d fc	 mov	 ecx, DWORD PTR _this$[ebp]
  06024	e8 00 00 00 00	 call	 ?GetKillCountPointFromUser@CIllusionTempleProcess@@QAEEH@Z ; CIllusionTempleProcess::GetKillCountPointFromUser
  06029	0f b6 d0	 movzx	 edx, al
  0602c	52		 push	 edx
  0602d	68 d4 00 00 00	 push	 212			; 000000d4H
  06032	b9 00 00 00 00	 mov	 ecx, OFFSET ?MagicDamageC@@3VCMagicDamage@@A ; MagicDamageC
  06037	e8 00 00 00 00	 call	 ?CheckKillCount@CMagicDamage@@QAEHHH@Z ; CMagicDamage::CheckKillCount
  0603c	89 45 f0	 mov	 DWORD PTR _ebp10$[ebp], eax

; 2092 : 				
; 2093 : 				if(ebp10 < 0)

  0603f	83 7d f0 00	 cmp	 DWORD PTR _ebp10$[ebp], 0
  06043	7d 2d		 jge	 SHORT $LN8@RunningSki

; 2094 : 				{
; 2095 : 					ebp14 = 0;

  06045	c7 45 ec 00 00
	00 00		 mov	 DWORD PTR _ebp14$[ebp], 0

; 2096 : 					LogAddTD("[Illusion Temple] (%d) Use Skill KillCount Error (Skill:%d)", this->m_btFloorIndex+1, skill);

  0604c	0f b7 45 0c	 movzx	 eax, WORD PTR _skill$[ebp]
  06050	50		 push	 eax
  06051	8b 4d fc	 mov	 ecx, DWORD PTR _this$[ebp]
  06054	0f b6 91 2c 02
	00 00		 movzx	 edx, BYTE PTR [ecx+556]
  0605b	83 c2 01	 add	 edx, 1
  0605e	52		 push	 edx
  0605f	68 00 00 00 00	 push	 OFFSET ??_C@_0DM@DBHFAIH@?$FLIllusion?5Temple?$FN?5?$CI?$CFd?$CJ?5Use?5Skill@
  06064	ff 15 00 00 00
	00		 call	 DWORD PTR ?LogAddTD@@3P6AXPADZZA ; LogAddTD
  0606a	83 c4 0c	 add	 esp, 12			; 0000000cH

; 2097 : 					break;

  0606d	e9 81 00 00 00	 jmp	 $LN14@RunningSki
$LN8@RunningSki:

; 2098 : 				}
; 2099 : 				ebp14 = this->PursuitSpell(lpObj);

  06072	8b 45 f8	 mov	 eax, DWORD PTR _lpObj$[ebp]
  06075	50		 push	 eax
  06076	8b 4d fc	 mov	 ecx, DWORD PTR _this$[ebp]
  06079	e8 00 00 00 00	 call	 ?PursuitSpell@CIllusionTempleProcess@@QAEHPAUOBJECTSTRUCT@@@Z ; CIllusionTempleProcess::PursuitSpell
  0607e	89 45 ec	 mov	 DWORD PTR _ebp14$[ebp], eax

; 2100 : 			}
; 2101 : 			break;

  06081	eb 70		 jmp	 SHORT $LN14@RunningSki
$LN7@RunningSki:

; 2102 : 		case 213:
; 2103 : 			{
; 2104 : 				ebp10 = MagicDamageC.CheckKillCount(213, this->GetKillCountPointFromUser(lpObj->m_Index) );

  06083	8b 45 f8	 mov	 eax, DWORD PTR _lpObj$[ebp]
  06086	8b 08		 mov	 ecx, DWORD PTR [eax]
  06088	51		 push	 ecx
  06089	8b 4d fc	 mov	 ecx, DWORD PTR _this$[ebp]
  0608c	e8 00 00 00 00	 call	 ?GetKillCountPointFromUser@CIllusionTempleProcess@@QAEEH@Z ; CIllusionTempleProcess::GetKillCountPointFromUser
  06091	0f b6 d0	 movzx	 edx, al
  06094	52		 push	 edx
  06095	68 d5 00 00 00	 push	 213			; 000000d5H
  0609a	b9 00 00 00 00	 mov	 ecx, OFFSET ?MagicDamageC@@3VCMagicDamage@@A ; MagicDamageC
  0609f	e8 00 00 00 00	 call	 ?CheckKillCount@CMagicDamage@@QAEHHH@Z ; CMagicDamage::CheckKillCount
  060a4	89 45 f0	 mov	 DWORD PTR _ebp10$[ebp], eax

; 2105 : 				
; 2106 : 				if(ebp10 < 0)

  060a7	83 7d f0 00	 cmp	 DWORD PTR _ebp10$[ebp], 0
  060ab	7d 2a		 jge	 SHORT $LN6@RunningSki

; 2107 : 				{
; 2108 : 					ebp14 = 0;

  060ad	c7 45 ec 00 00
	00 00		 mov	 DWORD PTR _ebp14$[ebp], 0

; 2109 : 					LogAddTD("[Illusion Temple] (%d) Use Skill KillCount Error (Skill:%d)", this->m_btFloorIndex+1, skill);

  060b4	0f b7 45 0c	 movzx	 eax, WORD PTR _skill$[ebp]
  060b8	50		 push	 eax
  060b9	8b 4d fc	 mov	 ecx, DWORD PTR _this$[ebp]
  060bc	0f b6 91 2c 02
	00 00		 movzx	 edx, BYTE PTR [ecx+556]
  060c3	83 c2 01	 add	 edx, 1
  060c6	52		 push	 edx
  060c7	68 00 00 00 00	 push	 OFFSET ??_C@_0DM@DBHFAIH@?$FLIllusion?5Temple?$FN?5?$CI?$CFd?$CJ?5Use?5Skill@
  060cc	ff 15 00 00 00
	00		 call	 DWORD PTR ?LogAddTD@@3P6AXPADZZA ; LogAddTD
  060d2	83 c4 0c	 add	 esp, 12			; 0000000cH

; 2110 : 					break;

  060d5	eb 1c		 jmp	 SHORT $LN14@RunningSki
$LN6@RunningSki:

; 2111 : 				}
; 2112 : 				ebp14 = this->ShieldClashSpell(lpObj, lpTargetObj);

  060d7	8b 45 f4	 mov	 eax, DWORD PTR _lpTargetObj$[ebp]
  060da	50		 push	 eax
  060db	8b 4d f8	 mov	 ecx, DWORD PTR _lpObj$[ebp]
  060de	51		 push	 ecx
  060df	8b 4d fc	 mov	 ecx, DWORD PTR _this$[ebp]
  060e2	e8 00 00 00 00	 call	 ?ShieldClashSpell@CIllusionTempleProcess@@QAEHPAUOBJECTSTRUCT@@0@Z ; CIllusionTempleProcess::ShieldClashSpell
  060e7	89 45 ec	 mov	 DWORD PTR _ebp14$[ebp], eax

; 2113 : 			}
; 2114 : 			break;

  060ea	eb 07		 jmp	 SHORT $LN14@RunningSki
$LN5@RunningSki:

; 2115 : 		default:
; 2116 : 			ebp14 = 0;

  060ec	c7 45 ec 00 00
	00 00		 mov	 DWORD PTR _ebp14$[ebp], 0
$LN14@RunningSki:

; 2117 : 			break;
; 2118 : 	}
; 2119 : 
; 2120 : 	if(ebp14 == 1)

  060f3	83 7d ec 01	 cmp	 DWORD PTR _ebp14$[ebp], 1
  060f7	75 64		 jne	 SHORT $LN4@RunningSki

; 2121 : 	{
; 2122 : 		int ebp18 = this->UpdateKillCountPointFromUser(aIndex, ebp10);

  060f9	0f b6 45 f0	 movzx	 eax, BYTE PTR _ebp10$[ebp]
  060fd	50		 push	 eax
  060fe	8b 4d 08	 mov	 ecx, DWORD PTR _aIndex$[ebp]
  06101	51		 push	 ecx
  06102	8b 4d fc	 mov	 ecx, DWORD PTR _this$[ebp]
  06105	e8 00 00 00 00	 call	 ?UpdateKillCountPointFromUser@CIllusionTempleProcess@@QAEHHE@Z ; CIllusionTempleProcess::UpdateKillCountPointFromUser
  0610a	89 45 e8	 mov	 DWORD PTR _ebp18$234765[ebp], eax

; 2123 : 		GCSendIllusionTempleKillCount(aIndex, ebp10);

  0610d	0f b6 45 f0	 movzx	 eax, BYTE PTR _ebp10$[ebp]
  06111	50		 push	 eax
  06112	8b 4d 08	 mov	 ecx, DWORD PTR _aIndex$[ebp]
  06115	51		 push	 ecx
  06116	e8 00 00 00 00	 call	 ?GCSendIllusionTempleKillCount@@YAXHE@Z ; GCSendIllusionTempleKillCount
  0611b	83 c4 08	 add	 esp, 8

; 2124 : 		this->IncreaseUsedKillCount(aIndex);

  0611e	8b 45 08	 mov	 eax, DWORD PTR _aIndex$[ebp]
  06121	50		 push	 eax
  06122	8b 4d fc	 mov	 ecx, DWORD PTR _this$[ebp]
  06125	e8 00 00 00 00	 call	 ?IncreaseUsedKillCount@CIllusionTempleProcess@@QAEXH@Z ; CIllusionTempleProcess::IncreaseUsedKillCount

; 2125 : 		LogAddTD("[Illusion Temple] (%d) Use Skill (%d), (%s)(%s), (%d)",this->m_btFloorIndex+1, skill, lpObj->AccountID, lpObj->Name, ebp10);

  0612a	8b 45 f0	 mov	 eax, DWORD PTR _ebp10$[ebp]
  0612d	50		 push	 eax
  0612e	8b 4d f8	 mov	 ecx, DWORD PTR _lpObj$[ebp]
  06131	83 c1 77	 add	 ecx, 119		; 00000077H
  06134	51		 push	 ecx
  06135	8b 55 f8	 mov	 edx, DWORD PTR _lpObj$[ebp]
  06138	83 c2 6c	 add	 edx, 108		; 0000006cH
  0613b	52		 push	 edx
  0613c	0f b7 45 0c	 movzx	 eax, WORD PTR _skill$[ebp]
  06140	50		 push	 eax
  06141	8b 4d fc	 mov	 ecx, DWORD PTR _this$[ebp]
  06144	0f b6 91 2c 02
	00 00		 movzx	 edx, BYTE PTR [ecx+556]
  0614b	83 c2 01	 add	 edx, 1
  0614e	52		 push	 edx
  0614f	68 00 00 00 00	 push	 OFFSET ??_C@_0DG@DAAGPJBE@?$FLIllusion?5Temple?$FN?5?$CI?$CFd?$CJ?5Use?5Skill@
  06154	ff 15 00 00 00
	00		 call	 DWORD PTR ?LogAddTD@@3P6AXPADZZA ; LogAddTD
  0615a	83 c4 18	 add	 esp, 24			; 00000018H
$LN4@RunningSki:

; 2126 : 	}
; 2127 : 
; 2128 : 	if(skill != 212 )

  0615d	0f b7 45 0c	 movzx	 eax, WORD PTR _skill$[ebp]
  06161	3d d4 00 00 00	 cmp	 eax, 212		; 000000d4H
  06166	74 23		 je	 SHORT $LN3@RunningSki

; 2129 : 	{
; 2130 : 		if(ebp14 == 1)

  06168	83 7d ec 01	 cmp	 DWORD PTR _ebp14$[ebp], 1
  0616c	75 1d		 jne	 SHORT $LN3@RunningSki

; 2131 : 		{
; 2132 : 			this->GCIllusionTempleSkillApply(lpObj->m_Index, lpTargetObj->m_Index, skill, 1);

  0616e	6a 01		 push	 1
  06170	0f b7 45 0c	 movzx	 eax, WORD PTR _skill$[ebp]
  06174	50		 push	 eax
  06175	8b 4d f4	 mov	 ecx, DWORD PTR _lpTargetObj$[ebp]
  06178	8b 11		 mov	 edx, DWORD PTR [ecx]
  0617a	52		 push	 edx
  0617b	8b 45 f8	 mov	 eax, DWORD PTR _lpObj$[ebp]
  0617e	8b 08		 mov	 ecx, DWORD PTR [eax]
  06180	51		 push	 ecx
  06181	8b 4d fc	 mov	 ecx, DWORD PTR _this$[ebp]
  06184	e8 00 00 00 00	 call	 ?GCIllusionTempleSkillApply@CIllusionTempleProcess@@QAEXHHGE@Z ; CIllusionTempleProcess::GCIllusionTempleSkillApply

; 2133 : 			return;

  06189	eb 21		 jmp	 SHORT $LN24@RunningSki
$LN3@RunningSki:

; 2134 : 		}
; 2135 : 	}
; 2136 : 
; 2137 : 	if(ebp14 == 0)

  0618b	83 7d ec 00	 cmp	 DWORD PTR _ebp14$[ebp], 0
  0618f	75 1b		 jne	 SHORT $LN24@RunningSki

; 2138 : 	{
; 2139 : 		this->GCIllusionTempleSkillApply(lpObj->m_Index, lpTargetObj->m_Index, skill, 0);

  06191	6a 00		 push	 0
  06193	0f b7 45 0c	 movzx	 eax, WORD PTR _skill$[ebp]
  06197	50		 push	 eax
  06198	8b 4d f4	 mov	 ecx, DWORD PTR _lpTargetObj$[ebp]
  0619b	8b 11		 mov	 edx, DWORD PTR [ecx]
  0619d	52		 push	 edx
  0619e	8b 45 f8	 mov	 eax, DWORD PTR _lpObj$[ebp]
  061a1	8b 08		 mov	 ecx, DWORD PTR [eax]
  061a3	51		 push	 ecx
  061a4	8b 4d fc	 mov	 ecx, DWORD PTR _this$[ebp]
  061a7	e8 00 00 00 00	 call	 ?GCIllusionTempleSkillApply@CIllusionTempleProcess@@QAEXHHGE@Z ; CIllusionTempleProcess::GCIllusionTempleSkillApply
$LN24@RunningSki:

; 2140 : 	}
; 2141 : }

  061ac	5f		 pop	 edi
  061ad	5e		 pop	 esi
  061ae	5b		 pop	 ebx
  061af	8b e5		 mov	 esp, ebp
  061b1	5d		 pop	 ebp
  061b2	c2 10 00	 ret	 16			; 00000010H
  061b5	8d 49 00	 npad	 3
$LN30@RunningSki:
  061b8	00 00 00 00	 DD	 $LN13@RunningSki
  061bc	00 00 00 00	 DD	 $LN11@RunningSki
  061c0	00 00 00 00	 DD	 $LN9@RunningSki
  061c4	00 00 00 00	 DD	 $LN7@RunningSki
?RunningSkill@CIllusionTempleProcess@@QAEXHGHE@Z ENDP	; CIllusionTempleProcess::RunningSkill
_TEXT	ENDS
PUBLIC	?SkillSecondProc@CIllusionTempleProcess@@QAEXPAUOBJECTSTRUCT@@@Z ; CIllusionTempleProcess::SkillSecondProc
; Function compile flags: /Odtp /ZI
_TEXT	SEGMENT
_this$ = -4						; size = 4
_lpObj$ = 8						; size = 4
?SkillSecondProc@CIllusionTempleProcess@@QAEXPAUOBJECTSTRUCT@@@Z PROC ; CIllusionTempleProcess::SkillSecondProc
; _this$ = ecx

; 2144 : {

  061d0	55		 push	 ebp
  061d1	8b ec		 mov	 ebp, esp
  061d3	83 ec 44	 sub	 esp, 68			; 00000044H
  061d6	53		 push	 ebx
  061d7	56		 push	 esi
  061d8	57		 push	 edi
  061d9	89 4d fc	 mov	 DWORD PTR _this$[ebp], ecx

; 2145 : 	if(this->m_FloorData[lpObj->m_iIllusionTempleIndex].m_iTeamPlayerIndex != lpObj->m_Index)

  061dc	8b 45 08	 mov	 eax, DWORD PTR _lpObj$[ebp]
  061df	8b 88 78 20 00
	00		 mov	 ecx, DWORD PTR [eax+8312]
  061e5	6b c9 30	 imul	 ecx, 48			; 00000030H
  061e8	8b 55 fc	 mov	 edx, DWORD PTR _this$[ebp]
  061eb	8b 45 08	 mov	 eax, DWORD PTR _lpObj$[ebp]
  061ee	8b 4c 0a 20	 mov	 ecx, DWORD PTR [edx+ecx+32]
  061f2	3b 08		 cmp	 ecx, DWORD PTR [eax]
  061f4	74 05		 je	 SHORT $LN5@SkillSecon

; 2146 : 	{
; 2147 : 		return;

  061f6	e9 16 01 00 00	 jmp	 $LN6@SkillSecon
$LN5@SkillSecon:

; 2148 : 	}
; 2149 : 
; 2150 : 	if(this->m_FloorData[lpObj->m_iIllusionTempleIndex].m_dwShieldSpellTime > 0)

  061fb	8b 45 08	 mov	 eax, DWORD PTR _lpObj$[ebp]
  061fe	8b 88 78 20 00
	00		 mov	 ecx, DWORD PTR [eax+8312]
  06204	6b c9 30	 imul	 ecx, 48			; 00000030H
  06207	8b 55 fc	 mov	 edx, DWORD PTR _this$[ebp]
  0620a	83 7c 0a 28 00	 cmp	 DWORD PTR [edx+ecx+40], 0
  0620f	76 75		 jbe	 SHORT $LN4@SkillSecon

; 2151 : 	{
; 2152 : 		this->m_FloorData[lpObj->m_iIllusionTempleIndex].m_dwShieldSpellTime--;

  06211	8b 45 08	 mov	 eax, DWORD PTR _lpObj$[ebp]
  06214	8b 88 78 20 00
	00		 mov	 ecx, DWORD PTR [eax+8312]
  0621a	6b c9 30	 imul	 ecx, 48			; 00000030H
  0621d	8b 55 fc	 mov	 edx, DWORD PTR _this$[ebp]
  06220	8b 44 0a 28	 mov	 eax, DWORD PTR [edx+ecx+40]
  06224	83 e8 01	 sub	 eax, 1
  06227	8b 4d 08	 mov	 ecx, DWORD PTR _lpObj$[ebp]
  0622a	8b 91 78 20 00
	00		 mov	 edx, DWORD PTR [ecx+8312]
  06230	6b d2 30	 imul	 edx, 48			; 00000030H
  06233	8b 4d fc	 mov	 ecx, DWORD PTR _this$[ebp]
  06236	89 44 11 28	 mov	 DWORD PTR [ecx+edx+40], eax

; 2153 : 
; 2154 : 		if(this->m_FloorData[lpObj->m_iIllusionTempleIndex].m_dwShieldSpellTime <= 0)

  0623a	8b 45 08	 mov	 eax, DWORD PTR _lpObj$[ebp]
  0623d	8b 88 78 20 00
	00		 mov	 ecx, DWORD PTR [eax+8312]
  06243	6b c9 30	 imul	 ecx, 48			; 00000030H
  06246	8b 55 fc	 mov	 edx, DWORD PTR _this$[ebp]
  06249	83 7c 0a 28 00	 cmp	 DWORD PTR [edx+ecx+40], 0
  0624e	77 36		 ja	 SHORT $LN4@SkillSecon

; 2155 : 		{
; 2156 : 			this->m_FloorData[lpObj->m_iIllusionTempleIndex].m_dwShieldSpellTime = 0;

  06250	8b 45 08	 mov	 eax, DWORD PTR _lpObj$[ebp]
  06253	8b 88 78 20 00
	00		 mov	 ecx, DWORD PTR [eax+8312]
  06259	6b c9 30	 imul	 ecx, 48			; 00000030H
  0625c	8b 55 fc	 mov	 edx, DWORD PTR _this$[ebp]
  0625f	c7 44 0a 28 00
	00 00 00	 mov	 DWORD PTR [edx+ecx+40], 0

; 2157 : 			gObjRemoveBuffEffect(lpObj, AT_ILLUSION_SHIELD_SPELL); //season 3.0 add-on

  06267	6a 22		 push	 34			; 00000022H
  06269	8b 45 08	 mov	 eax, DWORD PTR _lpObj$[ebp]
  0626c	50		 push	 eax
  0626d	e8 00 00 00 00	 call	 ?gObjRemoveBuffEffect@@YAEPAUOBJECTSTRUCT@@H@Z ; gObjRemoveBuffEffect
  06272	83 c4 08	 add	 esp, 8

; 2158 : 			this->GCIllusionTempleSkillCancel(lpObj, 210);

  06275	68 d2 00 00 00	 push	 210			; 000000d2H
  0627a	8b 45 08	 mov	 eax, DWORD PTR _lpObj$[ebp]
  0627d	50		 push	 eax
  0627e	8b 4d fc	 mov	 ecx, DWORD PTR _this$[ebp]
  06281	e8 00 00 00 00	 call	 ?GCIllusionTempleSkillCancel@CIllusionTempleProcess@@QAEXPAUOBJECTSTRUCT@@G@Z ; CIllusionTempleProcess::GCIllusionTempleSkillCancel
$LN4@SkillSecon:

; 2159 : 		}
; 2160 : 	}
; 2161 : 	
; 2162 : 	if(this->m_FloorData[lpObj->m_iIllusionTempleIndex].m_dwRestrictionSpellTime > 0)

  06286	8b 45 08	 mov	 eax, DWORD PTR _lpObj$[ebp]
  06289	8b 88 78 20 00
	00		 mov	 ecx, DWORD PTR [eax+8312]
  0628f	6b c9 30	 imul	 ecx, 48			; 00000030H
  06292	8b 55 fc	 mov	 edx, DWORD PTR _this$[ebp]
  06295	83 7c 0a 2c 00	 cmp	 DWORD PTR [edx+ecx+44], 0
  0629a	76 75		 jbe	 SHORT $LN6@SkillSecon

; 2163 : 	{
; 2164 : 		this->m_FloorData[lpObj->m_iIllusionTempleIndex].m_dwRestrictionSpellTime--;

  0629c	8b 45 08	 mov	 eax, DWORD PTR _lpObj$[ebp]
  0629f	8b 88 78 20 00
	00		 mov	 ecx, DWORD PTR [eax+8312]
  062a5	6b c9 30	 imul	 ecx, 48			; 00000030H
  062a8	8b 55 fc	 mov	 edx, DWORD PTR _this$[ebp]
  062ab	8b 44 0a 2c	 mov	 eax, DWORD PTR [edx+ecx+44]
  062af	83 e8 01	 sub	 eax, 1
  062b2	8b 4d 08	 mov	 ecx, DWORD PTR _lpObj$[ebp]
  062b5	8b 91 78 20 00
	00		 mov	 edx, DWORD PTR [ecx+8312]
  062bb	6b d2 30	 imul	 edx, 48			; 00000030H
  062be	8b 4d fc	 mov	 ecx, DWORD PTR _this$[ebp]
  062c1	89 44 11 2c	 mov	 DWORD PTR [ecx+edx+44], eax

; 2165 : 
; 2166 : 		if(this->m_FloorData[lpObj->m_iIllusionTempleIndex].m_dwRestrictionSpellTime <= 0)

  062c5	8b 45 08	 mov	 eax, DWORD PTR _lpObj$[ebp]
  062c8	8b 88 78 20 00
	00		 mov	 ecx, DWORD PTR [eax+8312]
  062ce	6b c9 30	 imul	 ecx, 48			; 00000030H
  062d1	8b 55 fc	 mov	 edx, DWORD PTR _this$[ebp]
  062d4	83 7c 0a 2c 00	 cmp	 DWORD PTR [edx+ecx+44], 0
  062d9	77 36		 ja	 SHORT $LN6@SkillSecon

; 2167 : 		{
; 2168 : 			this->m_FloorData[lpObj->m_iIllusionTempleIndex].m_dwRestrictionSpellTime = 0;

  062db	8b 45 08	 mov	 eax, DWORD PTR _lpObj$[ebp]
  062de	8b 88 78 20 00
	00		 mov	 ecx, DWORD PTR [eax+8312]
  062e4	6b c9 30	 imul	 ecx, 48			; 00000030H
  062e7	8b 55 fc	 mov	 edx, DWORD PTR _this$[ebp]
  062ea	c7 44 0a 2c 00
	00 00 00	 mov	 DWORD PTR [edx+ecx+44], 0

; 2169 : 			gObjRemoveBuffEffect(lpObj, AT_ILLUSION_RESTRICTION_SPELL); //season 3.0 add-on

  062f2	6a 41		 push	 65			; 00000041H
  062f4	8b 45 08	 mov	 eax, DWORD PTR _lpObj$[ebp]
  062f7	50		 push	 eax
  062f8	e8 00 00 00 00	 call	 ?gObjRemoveBuffEffect@@YAEPAUOBJECTSTRUCT@@H@Z ; gObjRemoveBuffEffect
  062fd	83 c4 08	 add	 esp, 8

; 2170 : 			this->GCIllusionTempleSkillCancel(lpObj, 211);

  06300	68 d3 00 00 00	 push	 211			; 000000d3H
  06305	8b 45 08	 mov	 eax, DWORD PTR _lpObj$[ebp]
  06308	50		 push	 eax
  06309	8b 4d fc	 mov	 ecx, DWORD PTR _this$[ebp]
  0630c	e8 00 00 00 00	 call	 ?GCIllusionTempleSkillCancel@CIllusionTempleProcess@@QAEXPAUOBJECTSTRUCT@@G@Z ; CIllusionTempleProcess::GCIllusionTempleSkillCancel
$LN6@SkillSecon:

; 2171 : 		}
; 2172 : 	}
; 2173 : }

  06311	5f		 pop	 edi
  06312	5e		 pop	 esi
  06313	5b		 pop	 ebx
  06314	8b e5		 mov	 esp, ebp
  06316	5d		 pop	 ebp
  06317	c2 04 00	 ret	 4
?SkillSecondProc@CIllusionTempleProcess@@QAEXPAUOBJECTSTRUCT@@@Z ENDP ; CIllusionTempleProcess::SkillSecondProc
_TEXT	ENDS
EXTRN	?MsgSendV2@@YAXPAUOBJECTSTRUCT@@PAEH@Z:PROC	; MsgSendV2
; Function compile flags: /Odtp /ZI
_TEXT	SEGMENT
_pMsg$ = -12						; size = 8
_this$ = -4						; size = 4
_lpObj$ = 8						; size = 4
_skill$ = 12						; size = 2
?GCIllusionTempleSkillCancel@CIllusionTempleProcess@@QAEXPAUOBJECTSTRUCT@@G@Z PROC ; CIllusionTempleProcess::GCIllusionTempleSkillCancel
; _this$ = ecx

; 2176 : {

  06320	55		 push	 ebp
  06321	8b ec		 mov	 ebp, esp
  06323	83 ec 4c	 sub	 esp, 76			; 0000004cH
  06326	53		 push	 ebx
  06327	56		 push	 esi
  06328	57		 push	 edi
  06329	89 4d fc	 mov	 DWORD PTR _this$[ebp], ecx

; 2177 : 	PMSG_CANCEL_SKILL_STATE pMsg;
; 2178 : 
; 2179 : 	PHeadSubSetB((LPBYTE)&pMsg, 0xBF, 0x07, sizeof(pMsg));

  0632c	6a 08		 push	 8
  0632e	6a 07		 push	 7
  06330	68 bf 00 00 00	 push	 191			; 000000bfH
  06335	8d 45 f4	 lea	 eax, DWORD PTR _pMsg$[ebp]
  06338	50		 push	 eax
  06339	e8 00 00 00 00	 call	 ?PHeadSubSetB@@YAXPAEEEH@Z ; PHeadSubSetB
  0633e	83 c4 10	 add	 esp, 16			; 00000010H

; 2180 : 
; 2181 : 	pMsg.m_btSkillIDH = SET_NUMBERH(skill);

  06341	0f b7 45 0c	 movzx	 eax, WORD PTR _skill$[ebp]
  06345	c1 e8 08	 shr	 eax, 8
  06348	88 45 f8	 mov	 BYTE PTR _pMsg$[ebp+4], al

; 2182 : 	pMsg.m_btSkillIDL = SET_NUMBERL(skill);

  0634b	0f b7 45 0c	 movzx	 eax, WORD PTR _skill$[ebp]
  0634f	25 ff 00 00 00	 and	 eax, 255		; 000000ffH
  06354	88 45 f9	 mov	 BYTE PTR _pMsg$[ebp+5], al

; 2183 : 
; 2184 : 	pMsg.m_wTargetIndex = lpObj->m_Index;

  06357	8b 45 08	 mov	 eax, DWORD PTR _lpObj$[ebp]
  0635a	66 8b 08	 mov	 cx, WORD PTR [eax]
  0635d	66 89 4d fa	 mov	 WORD PTR _pMsg$[ebp+6], cx

; 2185 : 
; 2186 : 	DataSend(lpObj->m_Index,(LPBYTE)&pMsg,pMsg.h.size);

  06361	0f b6 45 f5	 movzx	 eax, BYTE PTR _pMsg$[ebp+1]
  06365	50		 push	 eax
  06366	8d 4d f4	 lea	 ecx, DWORD PTR _pMsg$[ebp]
  06369	51		 push	 ecx
  0636a	8b 55 08	 mov	 edx, DWORD PTR _lpObj$[ebp]
  0636d	8b 02		 mov	 eax, DWORD PTR [edx]
  0636f	50		 push	 eax
  06370	e8 00 00 00 00	 call	 ?DataSend@@YAHHPAEK@Z	; DataSend
  06375	83 c4 0c	 add	 esp, 12			; 0000000cH

; 2187 : 	MsgSendV2(lpObj, (LPBYTE)&pMsg, pMsg.h.size);

  06378	0f b6 45 f5	 movzx	 eax, BYTE PTR _pMsg$[ebp+1]
  0637c	50		 push	 eax
  0637d	8d 4d f4	 lea	 ecx, DWORD PTR _pMsg$[ebp]
  06380	51		 push	 ecx
  06381	8b 55 08	 mov	 edx, DWORD PTR _lpObj$[ebp]
  06384	52		 push	 edx
  06385	e8 00 00 00 00	 call	 ?MsgSendV2@@YAXPAUOBJECTSTRUCT@@PAEH@Z ; MsgSendV2
  0638a	83 c4 0c	 add	 esp, 12			; 0000000cH

; 2188 : }

  0638d	5f		 pop	 edi
  0638e	5e		 pop	 esi
  0638f	5b		 pop	 ebx
  06390	8b e5		 mov	 esp, ebp
  06392	5d		 pop	 ebp
  06393	c2 08 00	 ret	 8
?GCIllusionTempleSkillCancel@CIllusionTempleProcess@@QAEXPAUOBJECTSTRUCT@@G@Z ENDP ; CIllusionTempleProcess::GCIllusionTempleSkillCancel
_TEXT	ENDS
EXTRN	?gObjApplyBuffEffectDuration@@YAEPAUOBJECTSTRUCT@@HEHEHH@Z:PROC ; gObjApplyBuffEffectDuration
; Function compile flags: /Odtp /ZI
_TEXT	SEGMENT
_this$ = -4						; size = 4
_lpObj$ = 8						; size = 4
?ShieldSpell@CIllusionTempleProcess@@QAEHPAUOBJECTSTRUCT@@@Z PROC ; CIllusionTempleProcess::ShieldSpell
; _this$ = ecx

; 2191 : {

  063a0	55		 push	 ebp
  063a1	8b ec		 mov	 ebp, esp
  063a3	83 ec 44	 sub	 esp, 68			; 00000044H
  063a6	53		 push	 ebx
  063a7	56		 push	 esi
  063a8	57		 push	 edi
  063a9	89 4d fc	 mov	 DWORD PTR _this$[ebp], ecx

; 2192 : 	this->m_FloorData[lpObj->m_iIllusionTempleIndex].m_dwShieldSpellTime = 15;

  063ac	8b 45 08	 mov	 eax, DWORD PTR _lpObj$[ebp]
  063af	8b 88 78 20 00
	00		 mov	 ecx, DWORD PTR [eax+8312]
  063b5	6b c9 30	 imul	 ecx, 48			; 00000030H
  063b8	8b 55 fc	 mov	 edx, DWORD PTR _this$[ebp]
  063bb	c7 44 0a 28 0f
	00 00 00	 mov	 DWORD PTR [edx+ecx+40], 15 ; 0000000fH

; 2193 : 	gObjApplyBuffEffectDuration(lpObj, AT_ILLUSION_SHIELD_SPELL, 0, 0, 0, 0, -10); //season 3.0 add-on

  063c3	6a f6		 push	 -10			; fffffff6H
  063c5	6a 00		 push	 0
  063c7	6a 00		 push	 0
  063c9	6a 00		 push	 0
  063cb	6a 00		 push	 0
  063cd	6a 22		 push	 34			; 00000022H
  063cf	8b 45 08	 mov	 eax, DWORD PTR _lpObj$[ebp]
  063d2	50		 push	 eax
  063d3	e8 00 00 00 00	 call	 ?gObjApplyBuffEffectDuration@@YAEPAUOBJECTSTRUCT@@HEHEHH@Z ; gObjApplyBuffEffectDuration
  063d8	83 c4 1c	 add	 esp, 28			; 0000001cH

; 2194 : 	return TRUE;

  063db	b8 01 00 00 00	 mov	 eax, 1

; 2195 : }

  063e0	5f		 pop	 edi
  063e1	5e		 pop	 esi
  063e2	5b		 pop	 ebx
  063e3	8b e5		 mov	 esp, ebp
  063e5	5d		 pop	 ebp
  063e6	c2 04 00	 ret	 4
?ShieldSpell@CIllusionTempleProcess@@QAEHPAUOBJECTSTRUCT@@@Z ENDP ; CIllusionTempleProcess::ShieldSpell
_TEXT	ENDS
EXTRN	?gCheckSkillDistance@@YAHHHH@Z:PROC		; gCheckSkillDistance
; Function compile flags: /Odtp /ZI
_TEXT	SEGMENT
_this$ = -4						; size = 4
_lpObj$ = 8						; size = 4
_lpTargetObj$ = 12					; size = 4
?RestrictionSpell@CIllusionTempleProcess@@QAEHPAUOBJECTSTRUCT@@0@Z PROC ; CIllusionTempleProcess::RestrictionSpell
; _this$ = ecx

; 2198 : {

  063f0	55		 push	 ebp
  063f1	8b ec		 mov	 ebp, esp
  063f3	83 ec 44	 sub	 esp, 68			; 00000044H
  063f6	53		 push	 ebx
  063f7	56		 push	 esi
  063f8	57		 push	 edi
  063f9	89 4d fc	 mov	 DWORD PTR _this$[ebp], ecx

; 2199 : 	if(gCheckSkillDistance(lpObj->m_Index, lpTargetObj->m_Index, 211) == FALSE)

  063fc	68 d3 00 00 00	 push	 211			; 000000d3H
  06401	8b 45 0c	 mov	 eax, DWORD PTR _lpTargetObj$[ebp]
  06404	8b 08		 mov	 ecx, DWORD PTR [eax]
  06406	51		 push	 ecx
  06407	8b 55 08	 mov	 edx, DWORD PTR _lpObj$[ebp]
  0640a	8b 02		 mov	 eax, DWORD PTR [edx]
  0640c	50		 push	 eax
  0640d	e8 00 00 00 00	 call	 ?gCheckSkillDistance@@YAHHHH@Z ; gCheckSkillDistance
  06412	83 c4 0c	 add	 esp, 12			; 0000000cH
  06415	85 c0		 test	 eax, eax
  06417	75 04		 jne	 SHORT $LN1@Restrictio

; 2200 : 	{
; 2201 : 		return FALSE;

  06419	33 c0		 xor	 eax, eax
  0641b	eb 7b		 jmp	 SHORT $LN2@Restrictio
$LN1@Restrictio:

; 2202 : 	}
; 2203 : 
; 2204 : 	this->m_FloorData[lpTargetObj->m_iIllusionTempleIndex].m_dwRestrictionSpellTime = 15;

  0641d	8b 45 0c	 mov	 eax, DWORD PTR _lpTargetObj$[ebp]
  06420	8b 88 78 20 00
	00		 mov	 ecx, DWORD PTR [eax+8312]
  06426	6b c9 30	 imul	 ecx, 48			; 00000030H
  06429	8b 55 fc	 mov	 edx, DWORD PTR _this$[ebp]
  0642c	c7 44 0a 2c 0f
	00 00 00	 mov	 DWORD PTR [edx+ecx+44], 15 ; 0000000fH

; 2205 : 
; 2206 : 	lpTargetObj->lpAttackObj = lpObj;

  06434	8b 45 0c	 mov	 eax, DWORD PTR _lpTargetObj$[ebp]
  06437	8b 4d 08	 mov	 ecx, DWORD PTR _lpObj$[ebp]
  0643a	89 88 d4 03 00
	00		 mov	 DWORD PTR [eax+980], ecx

; 2207 : 	gObjApplyBuffEffectDuration(lpTargetObj, AT_ILLUSION_RESTRICTION_SPELL, 0, 0, 0, 0, -10); //season 3.0 add-on

  06440	6a f6		 push	 -10			; fffffff6H
  06442	6a 00		 push	 0
  06444	6a 00		 push	 0
  06446	6a 00		 push	 0
  06448	6a 00		 push	 0
  0644a	6a 41		 push	 65			; 00000041H
  0644c	8b 45 0c	 mov	 eax, DWORD PTR _lpTargetObj$[ebp]
  0644f	50		 push	 eax
  06450	e8 00 00 00 00	 call	 ?gObjApplyBuffEffectDuration@@YAEPAUOBJECTSTRUCT@@HEHEHH@Z ; gObjApplyBuffEffectDuration
  06455	83 c4 1c	 add	 esp, 28			; 0000001cH

; 2208 : 	lpTargetObj->PathCount = 0;

  06458	8b 45 0c	 mov	 eax, DWORD PTR _lpTargetObj$[ebp]
  0645b	c7 80 84 01 00
	00 00 00 00 00	 mov	 DWORD PTR [eax+388], 0

; 2209 : 	lpTargetObj->PathStartEnd = 0;

  06465	8b 45 0c	 mov	 eax, DWORD PTR _lpTargetObj$[ebp]
  06468	c6 80 8c 01 00
	00 00		 mov	 BYTE PTR [eax+396], 0

; 2210 : 
; 2211 : 	gObjSetPosition(lpTargetObj->m_Index, lpTargetObj->X, lpTargetObj->Y);

  0646f	8b 45 0c	 mov	 eax, DWORD PTR _lpTargetObj$[ebp]
  06472	0f bf 88 46 01
	00 00		 movsx	 ecx, WORD PTR [eax+326]
  06479	51		 push	 ecx
  0647a	8b 55 0c	 mov	 edx, DWORD PTR _lpTargetObj$[ebp]
  0647d	0f bf 82 44 01
	00 00		 movsx	 eax, WORD PTR [edx+324]
  06484	50		 push	 eax
  06485	8b 4d 0c	 mov	 ecx, DWORD PTR _lpTargetObj$[ebp]
  06488	8b 11		 mov	 edx, DWORD PTR [ecx]
  0648a	52		 push	 edx
  0648b	e8 00 00 00 00	 call	 ?gObjSetPosition@@YAXHHH@Z ; gObjSetPosition
  06490	83 c4 0c	 add	 esp, 12			; 0000000cH

; 2212 : 	return TRUE;

  06493	b8 01 00 00 00	 mov	 eax, 1
$LN2@Restrictio:

; 2213 : }

  06498	5f		 pop	 edi
  06499	5e		 pop	 esi
  0649a	5b		 pop	 ebx
  0649b	8b e5		 mov	 esp, ebp
  0649d	5d		 pop	 ebp
  0649e	c2 08 00	 ret	 8
?RestrictionSpell@CIllusionTempleProcess@@QAEHPAUOBJECTSTRUCT@@0@Z ENDP ; CIllusionTempleProcess::RestrictionSpell
_TEXT	ENDS
EXTRN	?gObjTeleportMagicUse@@YAXHEE@Z:PROC		; gObjTeleportMagicUse
EXTRN	?gObjCheckTeleportArea@@YAHHEE@Z:PROC		; gObjCheckTeleportArea
EXTRN	?gObjSearchActiveEffect@@YAEPAUOBJECTSTRUCT@@H@Z:PROC ; gObjSearchActiveEffect
; Function compile flags: /Odtp /ZI
_TEXT	SEGMENT
_loc6$ = -24						; size = 4
_loc5$ = -20						; size = 4
_loc4$ = -16						; size = 4
_loc3$ = -12						; size = 4
_loc2$ = -8						; size = 4
_this$ = -4						; size = 4
_lpObj$ = 8						; size = 4
?PursuitSpell@CIllusionTempleProcess@@QAEHPAUOBJECTSTRUCT@@@Z PROC ; CIllusionTempleProcess::PursuitSpell
; _this$ = ecx

; 2216 : {

  064b0	55		 push	 ebp
  064b1	8b ec		 mov	 ebp, esp
  064b3	83 ec 58	 sub	 esp, 88			; 00000058H
  064b6	53		 push	 ebx
  064b7	56		 push	 esi
  064b8	57		 push	 edi
  064b9	89 4d fc	 mov	 DWORD PTR _this$[ebp], ecx

; 2217 : 	int loc2;
; 2218 : 
; 2219 : 	if(gObjSearchActiveEffect(lpObj, AT_STUN) == TRUE) //season 3.0 add-on

  064bc	6a 3d		 push	 61			; 0000003dH
  064be	8b 45 08	 mov	 eax, DWORD PTR _lpObj$[ebp]
  064c1	50		 push	 eax
  064c2	e8 00 00 00 00	 call	 ?gObjSearchActiveEffect@@YAEPAUOBJECTSTRUCT@@H@Z ; gObjSearchActiveEffect
  064c7	83 c4 08	 add	 esp, 8
  064ca	0f b6 c8	 movzx	 ecx, al
  064cd	83 f9 01	 cmp	 ecx, 1
  064d0	75 22		 jne	 SHORT $LN8@PursuitSpe

; 2220 : 	{
; 2221 : 		this->GCIllusionTempleSkillApply(lpObj->m_Index, lpObj->m_Index, 212, 0);

  064d2	6a 00		 push	 0
  064d4	68 d4 00 00 00	 push	 212			; 000000d4H
  064d9	8b 45 08	 mov	 eax, DWORD PTR _lpObj$[ebp]
  064dc	8b 08		 mov	 ecx, DWORD PTR [eax]
  064de	51		 push	 ecx
  064df	8b 55 08	 mov	 edx, DWORD PTR _lpObj$[ebp]
  064e2	8b 02		 mov	 eax, DWORD PTR [edx]
  064e4	50		 push	 eax
  064e5	8b 4d fc	 mov	 ecx, DWORD PTR _this$[ebp]
  064e8	e8 00 00 00 00	 call	 ?GCIllusionTempleSkillApply@CIllusionTempleProcess@@QAEXHHGE@Z ; CIllusionTempleProcess::GCIllusionTempleSkillApply

; 2222 : 		return FALSE;

  064ed	33 c0		 xor	 eax, eax
  064ef	e9 ba 01 00 00	 jmp	 $LN9@PursuitSpe
$LN8@PursuitSpe:

; 2223 : 	}
; 2224 : 
; 2225 : 	if(gObjSearchActiveEffect(lpObj, AT_SLEEP) == TRUE) //season 3.0 add-on

  064f4	6a 48		 push	 72			; 00000048H
  064f6	8b 45 08	 mov	 eax, DWORD PTR _lpObj$[ebp]
  064f9	50		 push	 eax
  064fa	e8 00 00 00 00	 call	 ?gObjSearchActiveEffect@@YAEPAUOBJECTSTRUCT@@H@Z ; gObjSearchActiveEffect
  064ff	83 c4 08	 add	 esp, 8
  06502	0f b6 c8	 movzx	 ecx, al
  06505	83 f9 01	 cmp	 ecx, 1
  06508	75 22		 jne	 SHORT $LN7@PursuitSpe

; 2226 : 	{
; 2227 : 		this->GCIllusionTempleSkillApply(lpObj->m_Index, lpObj->m_Index, 212, 0);

  0650a	6a 00		 push	 0
  0650c	68 d4 00 00 00	 push	 212			; 000000d4H
  06511	8b 45 08	 mov	 eax, DWORD PTR _lpObj$[ebp]
  06514	8b 08		 mov	 ecx, DWORD PTR [eax]
  06516	51		 push	 ecx
  06517	8b 55 08	 mov	 edx, DWORD PTR _lpObj$[ebp]
  0651a	8b 02		 mov	 eax, DWORD PTR [edx]
  0651c	50		 push	 eax
  0651d	8b 4d fc	 mov	 ecx, DWORD PTR _this$[ebp]
  06520	e8 00 00 00 00	 call	 ?GCIllusionTempleSkillApply@CIllusionTempleProcess@@QAEXHHGE@Z ; CIllusionTempleProcess::GCIllusionTempleSkillApply

; 2228 : 		return FALSE;

  06525	33 c0		 xor	 eax, eax
  06527	e9 82 01 00 00	 jmp	 $LN9@PursuitSpe
$LN7@PursuitSpe:

; 2229 : 	}
; 2230 : 
; 2231 : 	loc2 = this->m_iBallPlayerIndex;

  0652c	8b 45 fc	 mov	 eax, DWORD PTR _this$[ebp]
  0652f	8b 88 b8 03 00
	00		 mov	 ecx, DWORD PTR [eax+952]
  06535	89 4d f8	 mov	 DWORD PTR _loc2$[ebp], ecx

; 2232 : 
; 2233 : 	if(loc2 == -1)

  06538	83 7d f8 ff	 cmp	 DWORD PTR _loc2$[ebp], -1
  0653c	75 22		 jne	 SHORT $LN6@PursuitSpe

; 2234 : 	{
; 2235 : 		this->GCIllusionTempleSkillApply(lpObj->m_Index, lpObj->m_Index, 212, 0);

  0653e	6a 00		 push	 0
  06540	68 d4 00 00 00	 push	 212			; 000000d4H
  06545	8b 45 08	 mov	 eax, DWORD PTR _lpObj$[ebp]
  06548	8b 08		 mov	 ecx, DWORD PTR [eax]
  0654a	51		 push	 ecx
  0654b	8b 55 08	 mov	 edx, DWORD PTR _lpObj$[ebp]
  0654e	8b 02		 mov	 eax, DWORD PTR [edx]
  06550	50		 push	 eax
  06551	8b 4d fc	 mov	 ecx, DWORD PTR _this$[ebp]
  06554	e8 00 00 00 00	 call	 ?GCIllusionTempleSkillApply@CIllusionTempleProcess@@QAEXHHGE@Z ; CIllusionTempleProcess::GCIllusionTempleSkillApply

; 2236 : 		return FALSE;

  06559	33 c0		 xor	 eax, eax
  0655b	e9 4e 01 00 00	 jmp	 $LN9@PursuitSpe
$LN6@PursuitSpe:

; 2237 : 	}
; 2238 : 
; 2239 : 	if(loc2 == lpObj->m_Index)

  06560	8b 45 08	 mov	 eax, DWORD PTR _lpObj$[ebp]
  06563	8b 4d f8	 mov	 ecx, DWORD PTR _loc2$[ebp]
  06566	3b 08		 cmp	 ecx, DWORD PTR [eax]
  06568	75 22		 jne	 SHORT $LN5@PursuitSpe

; 2240 : 	{
; 2241 : 		this->GCIllusionTempleSkillApply(lpObj->m_Index, lpObj->m_Index, 212, 0);

  0656a	6a 00		 push	 0
  0656c	68 d4 00 00 00	 push	 212			; 000000d4H
  06571	8b 45 08	 mov	 eax, DWORD PTR _lpObj$[ebp]
  06574	8b 08		 mov	 ecx, DWORD PTR [eax]
  06576	51		 push	 ecx
  06577	8b 55 08	 mov	 edx, DWORD PTR _lpObj$[ebp]
  0657a	8b 02		 mov	 eax, DWORD PTR [edx]
  0657c	50		 push	 eax
  0657d	8b 4d fc	 mov	 ecx, DWORD PTR _this$[ebp]
  06580	e8 00 00 00 00	 call	 ?GCIllusionTempleSkillApply@CIllusionTempleProcess@@QAEXHHGE@Z ; CIllusionTempleProcess::GCIllusionTempleSkillApply

; 2242 : 		return FALSE;

  06585	33 c0		 xor	 eax, eax
  06587	e9 22 01 00 00	 jmp	 $LN9@PursuitSpe
$LN5@PursuitSpe:

; 2243 : 	}
; 2244 : 
; 2245 : 	this->GCIllusionTempleSkillApply(lpObj->m_Index, lpObj->m_Index, 212, 1);

  0658c	6a 01		 push	 1
  0658e	68 d4 00 00 00	 push	 212			; 000000d4H
  06593	8b 45 08	 mov	 eax, DWORD PTR _lpObj$[ebp]
  06596	8b 08		 mov	 ecx, DWORD PTR [eax]
  06598	51		 push	 ecx
  06599	8b 55 08	 mov	 edx, DWORD PTR _lpObj$[ebp]
  0659c	8b 02		 mov	 eax, DWORD PTR [edx]
  0659e	50		 push	 eax
  0659f	8b 4d fc	 mov	 ecx, DWORD PTR _this$[ebp]
  065a2	e8 00 00 00 00	 call	 ?GCIllusionTempleSkillApply@CIllusionTempleProcess@@QAEXHHGE@Z ; CIllusionTempleProcess::GCIllusionTempleSkillApply

; 2246 : 
; 2247 : 	int loc3 = 0;

  065a7	c7 45 f4 00 00
	00 00		 mov	 DWORD PTR _loc3$[ebp], 0

; 2248 : 	int loc4 = 0;

  065ae	c7 45 f0 00 00
	00 00		 mov	 DWORD PTR _loc4$[ebp], 0

; 2249 : 	int loc5 = 50; //ebp14

  065b5	c7 45 ec 32 00
	00 00		 mov	 DWORD PTR _loc5$[ebp], 50 ; 00000032H

; 2250 : 	int loc6 = 0;

  065bc	c7 45 e8 00 00
	00 00		 mov	 DWORD PTR _loc6$[ebp], 0
$LN4@PursuitSpe:

; 2251 : 
; 2252 : 	while(loc5-- != 0)

  065c3	8b 45 ec	 mov	 eax, DWORD PTR _loc5$[ebp]
  065c6	8b 4d ec	 mov	 ecx, DWORD PTR _loc5$[ebp]
  065c9	83 e9 01	 sub	 ecx, 1
  065cc	89 4d ec	 mov	 DWORD PTR _loc5$[ebp], ecx
  065cf	85 c0		 test	 eax, eax
  065d1	0f 84 80 00 00
	00		 je	 $LN3@PursuitSpe

; 2253 : 	{
; 2254 : 		loc3 = gObj[loc2].X + rand()%3 - 1;

  065d7	8b 45 f8	 mov	 eax, DWORD PTR _loc2$[ebp]
  065da	69 c0 38 2b 00
	00		 imul	 eax, 11064		; 00002b38H
  065e0	8b 0d 00 00 00
	00		 mov	 ecx, DWORD PTR ?gObj@@3PAUOBJECTSTRUCT@@A ; gObj
  065e6	0f bf b4 01 44
	01 00 00	 movsx	 esi, WORD PTR [ecx+eax+324]
  065ee	e8 00 00 00 00	 call	 _rand
  065f3	99		 cdq
  065f4	b9 03 00 00 00	 mov	 ecx, 3
  065f9	f7 f9		 idiv	 ecx
  065fb	8d 54 16 ff	 lea	 edx, DWORD PTR [esi+edx-1]
  065ff	89 55 f4	 mov	 DWORD PTR _loc3$[ebp], edx

; 2255 : 		loc4 = gObj[loc2].Y + rand()%3 - 1;

  06602	8b 45 f8	 mov	 eax, DWORD PTR _loc2$[ebp]
  06605	69 c0 38 2b 00
	00		 imul	 eax, 11064		; 00002b38H
  0660b	8b 0d 00 00 00
	00		 mov	 ecx, DWORD PTR ?gObj@@3PAUOBJECTSTRUCT@@A ; gObj
  06611	0f bf b4 01 46
	01 00 00	 movsx	 esi, WORD PTR [ecx+eax+326]
  06619	e8 00 00 00 00	 call	 _rand
  0661e	99		 cdq
  0661f	b9 03 00 00 00	 mov	 ecx, 3
  06624	f7 f9		 idiv	 ecx
  06626	8d 54 16 ff	 lea	 edx, DWORD PTR [esi+edx-1]
  0662a	89 55 f0	 mov	 DWORD PTR _loc4$[ebp], edx

; 2256 : 
; 2257 : 		if(gObjCheckTeleportArea(lpObj->m_Index,loc3,loc4))

  0662d	0f b6 45 f0	 movzx	 eax, BYTE PTR _loc4$[ebp]
  06631	50		 push	 eax
  06632	0f b6 4d f4	 movzx	 ecx, BYTE PTR _loc3$[ebp]
  06636	51		 push	 ecx
  06637	8b 55 08	 mov	 edx, DWORD PTR _lpObj$[ebp]
  0663a	8b 02		 mov	 eax, DWORD PTR [edx]
  0663c	50		 push	 eax
  0663d	e8 00 00 00 00	 call	 ?gObjCheckTeleportArea@@YAHHEE@Z ; gObjCheckTeleportArea
  06642	83 c4 0c	 add	 esp, 12			; 0000000cH
  06645	85 c0		 test	 eax, eax
  06647	74 09		 je	 SHORT $LN2@PursuitSpe

; 2258 : 		{
; 2259 : 			loc6 = 1;

  06649	c7 45 e8 01 00
	00 00		 mov	 DWORD PTR _loc6$[ebp], 1

; 2260 : 			break;

  06650	eb 05		 jmp	 SHORT $LN3@PursuitSpe
$LN2@PursuitSpe:

; 2261 : 		}
; 2262 : 	}

  06652	e9 6c ff ff ff	 jmp	 $LN4@PursuitSpe
$LN3@PursuitSpe:

; 2263 : 
; 2264 : 	if(loc6 == 0)

  06657	83 7d e8 00	 cmp	 DWORD PTR _loc6$[ebp], 0
  0665b	75 34		 jne	 SHORT $LN1@PursuitSpe

; 2265 : 	{
; 2266 : 		loc3 = gObj[loc2].X;

  0665d	8b 45 f8	 mov	 eax, DWORD PTR _loc2$[ebp]
  06660	69 c0 38 2b 00
	00		 imul	 eax, 11064		; 00002b38H
  06666	8b 0d 00 00 00
	00		 mov	 ecx, DWORD PTR ?gObj@@3PAUOBJECTSTRUCT@@A ; gObj
  0666c	0f bf 94 01 44
	01 00 00	 movsx	 edx, WORD PTR [ecx+eax+324]
  06674	89 55 f4	 mov	 DWORD PTR _loc3$[ebp], edx

; 2267 : 		loc4 = gObj[loc2].Y;

  06677	8b 45 f8	 mov	 eax, DWORD PTR _loc2$[ebp]
  0667a	69 c0 38 2b 00
	00		 imul	 eax, 11064		; 00002b38H
  06680	8b 0d 00 00 00
	00		 mov	 ecx, DWORD PTR ?gObj@@3PAUOBJECTSTRUCT@@A ; gObj
  06686	0f bf 94 01 46
	01 00 00	 movsx	 edx, WORD PTR [ecx+eax+326]
  0668e	89 55 f0	 mov	 DWORD PTR _loc4$[ebp], edx
$LN1@PursuitSpe:

; 2268 : 	}
; 2269 : 
; 2270 : 	gObjTeleportMagicUse(lpObj->m_Index,loc3,loc4);

  06691	0f b6 45 f0	 movzx	 eax, BYTE PTR _loc4$[ebp]
  06695	50		 push	 eax
  06696	0f b6 4d f4	 movzx	 ecx, BYTE PTR _loc3$[ebp]
  0669a	51		 push	 ecx
  0669b	8b 55 08	 mov	 edx, DWORD PTR _lpObj$[ebp]
  0669e	8b 02		 mov	 eax, DWORD PTR [edx]
  066a0	50		 push	 eax
  066a1	e8 00 00 00 00	 call	 ?gObjTeleportMagicUse@@YAXHEE@Z ; gObjTeleportMagicUse
  066a6	83 c4 0c	 add	 esp, 12			; 0000000cH

; 2271 : 
; 2272 : 	return TRUE;

  066a9	b8 01 00 00 00	 mov	 eax, 1
$LN9@PursuitSpe:

; 2273 : }

  066ae	5f		 pop	 edi
  066af	5e		 pop	 esi
  066b0	5b		 pop	 ebx
  066b1	8b e5		 mov	 esp, ebp
  066b3	5d		 pop	 ebp
  066b4	c2 04 00	 ret	 4
?PursuitSpell@CIllusionTempleProcess@@QAEHPAUOBJECTSTRUCT@@@Z ENDP ; CIllusionTempleProcess::PursuitSpell
_TEXT	ENDS
EXTRN	?GCDamageSend@@YAXHHHHHH@Z:PROC			; GCDamageSend
; Function compile flags: /Odtp /ZI
_TEXT	SEGMENT
_loc2$ = -8						; size = 4
_this$ = -4						; size = 4
_lpObj$ = 8						; size = 4
_lpTargetObj$ = 12					; size = 4
?ShieldClashSpell@CIllusionTempleProcess@@QAEHPAUOBJECTSTRUCT@@0@Z PROC ; CIllusionTempleProcess::ShieldClashSpell
; _this$ = ecx

; 2276 : {

  066c0	55		 push	 ebp
  066c1	8b ec		 mov	 ebp, esp
  066c3	83 ec 48	 sub	 esp, 72			; 00000048H
  066c6	53		 push	 ebx
  066c7	56		 push	 esi
  066c8	57		 push	 edi
  066c9	89 4d fc	 mov	 DWORD PTR _this$[ebp], ecx

; 2277 : 	int loc2;
; 2278 : 	if(gCheckSkillDistance(lpObj->m_Index, lpTargetObj->m_Index, 213) == FALSE)

  066cc	68 d5 00 00 00	 push	 213			; 000000d5H
  066d1	8b 45 0c	 mov	 eax, DWORD PTR _lpTargetObj$[ebp]
  066d4	8b 08		 mov	 ecx, DWORD PTR [eax]
  066d6	51		 push	 ecx
  066d7	8b 55 08	 mov	 edx, DWORD PTR _lpObj$[ebp]
  066da	8b 02		 mov	 eax, DWORD PTR [edx]
  066dc	50		 push	 eax
  066dd	e8 00 00 00 00	 call	 ?gCheckSkillDistance@@YAHHHH@Z ; gCheckSkillDistance
  066e2	83 c4 0c	 add	 esp, 12			; 0000000cH
  066e5	85 c0		 test	 eax, eax
  066e7	75 04		 jne	 SHORT $LN2@ShieldClas

; 2279 : 	{
; 2280 : 		return FALSE;

  066e9	33 c0		 xor	 eax, eax
  066eb	eb 7b		 jmp	 SHORT $LN3@ShieldClas
$LN2@ShieldClas:

; 2281 : 	}
; 2282 : 
; 2283 : 	lpTargetObj->lpAttackObj = lpObj;

  066ed	8b 45 0c	 mov	 eax, DWORD PTR _lpTargetObj$[ebp]
  066f0	8b 4d 08	 mov	 ecx, DWORD PTR _lpObj$[ebp]
  066f3	89 88 d4 03 00
	00		 mov	 DWORD PTR [eax+980], ecx

; 2284 : 
; 2285 : 	if(lpTargetObj->iShield <= 1)

  066f9	8b 45 0c	 mov	 eax, DWORD PTR _lpTargetObj$[ebp]
  066fc	83 b8 54 01 00
	00 01		 cmp	 DWORD PTR [eax+340], 1
  06703	7f 23		 jg	 SHORT $LN1@ShieldClas

; 2286 : 	{
; 2287 : 		GCDamageSend(lpObj->m_Index, lpTargetObj->m_Index, 0, 0, 0, 0);

  06705	6a 00		 push	 0
  06707	6a 00		 push	 0
  06709	6a 00		 push	 0
  0670b	6a 00		 push	 0
  0670d	8b 45 0c	 mov	 eax, DWORD PTR _lpTargetObj$[ebp]
  06710	8b 08		 mov	 ecx, DWORD PTR [eax]
  06712	51		 push	 ecx
  06713	8b 55 08	 mov	 edx, DWORD PTR _lpObj$[ebp]
  06716	8b 02		 mov	 eax, DWORD PTR [edx]
  06718	50		 push	 eax
  06719	e8 00 00 00 00	 call	 ?GCDamageSend@@YAXHHHHHH@Z ; GCDamageSend
  0671e	83 c4 18	 add	 esp, 24			; 00000018H

; 2288 : 		return TRUE;

  06721	b8 01 00 00 00	 mov	 eax, 1
  06726	eb 40		 jmp	 SHORT $LN3@ShieldClas
$LN1@ShieldClas:

; 2289 : 	}
; 2290 : 
; 2291 : 	loc2 = lpTargetObj->iShield / 2;

  06728	8b 45 0c	 mov	 eax, DWORD PTR _lpTargetObj$[ebp]
  0672b	8b 80 54 01 00
	00		 mov	 eax, DWORD PTR [eax+340]
  06731	99		 cdq
  06732	2b c2		 sub	 eax, edx
  06734	d1 f8		 sar	 eax, 1
  06736	89 45 f8	 mov	 DWORD PTR _loc2$[ebp], eax

; 2292 : 
; 2293 : 	lpTargetObj->iShield = loc2;

  06739	8b 45 0c	 mov	 eax, DWORD PTR _lpTargetObj$[ebp]
  0673c	8b 4d f8	 mov	 ecx, DWORD PTR _loc2$[ebp]
  0673f	89 88 54 01 00
	00		 mov	 DWORD PTR [eax+340], ecx

; 2294 : 
; 2295 : 	GCDamageSend(lpObj->m_Index, lpTargetObj->m_Index, 0, 0, 0, loc2);

  06745	8b 45 f8	 mov	 eax, DWORD PTR _loc2$[ebp]
  06748	50		 push	 eax
  06749	6a 00		 push	 0
  0674b	6a 00		 push	 0
  0674d	6a 00		 push	 0
  0674f	8b 4d 0c	 mov	 ecx, DWORD PTR _lpTargetObj$[ebp]
  06752	8b 11		 mov	 edx, DWORD PTR [ecx]
  06754	52		 push	 edx
  06755	8b 45 08	 mov	 eax, DWORD PTR _lpObj$[ebp]
  06758	8b 08		 mov	 ecx, DWORD PTR [eax]
  0675a	51		 push	 ecx
  0675b	e8 00 00 00 00	 call	 ?GCDamageSend@@YAXHHHHHH@Z ; GCDamageSend
  06760	83 c4 18	 add	 esp, 24			; 00000018H

; 2296 : 	return TRUE;

  06763	b8 01 00 00 00	 mov	 eax, 1
$LN3@ShieldClas:

; 2297 : }

  06768	5f		 pop	 edi
  06769	5e		 pop	 esi
  0676a	5b		 pop	 ebx
  0676b	8b e5		 mov	 esp, ebp
  0676d	5d		 pop	 ebp
  0676e	c2 08 00	 ret	 8
?ShieldClashSpell@CIllusionTempleProcess@@QAEHPAUOBJECTSTRUCT@@0@Z ENDP ; CIllusionTempleProcess::ShieldClashSpell
_TEXT	ENDS
PUBLIC	__$ArrayPad$
; Function compile flags: /Odtp /ZI
_TEXT	SEGMENT
_pMsg$ = -20						; size = 12
_this$ = -8						; size = 4
__$ArrayPad$ = -4					; size = 4
_aIndex$ = 8						; size = 4
_aTargetIndex$ = 12					; size = 4
_skill$ = 16						; size = 2
_btUseType$ = 20					; size = 1
?GCIllusionTempleSkillApply@CIllusionTempleProcess@@QAEXHHGE@Z PROC ; CIllusionTempleProcess::GCIllusionTempleSkillApply
; _this$ = ecx

; 2300 : {

  06780	55		 push	 ebp
  06781	8b ec		 mov	 ebp, esp
  06783	83 ec 54	 sub	 esp, 84			; 00000054H
  06786	a1 00 00 00 00	 mov	 eax, DWORD PTR ___security_cookie
  0678b	33 c5		 xor	 eax, ebp
  0678d	89 45 fc	 mov	 DWORD PTR __$ArrayPad$[ebp], eax
  06790	53		 push	 ebx
  06791	56		 push	 esi
  06792	57		 push	 edi
  06793	89 4d f8	 mov	 DWORD PTR _this$[ebp], ecx

; 2301 : 	PMSG_APPLY_SKILL_STATE pMsg;
; 2302 : 
; 2303 : 	PHeadSubSetB((LPBYTE)&pMsg, 0xBF, 0x02, sizeof(pMsg));

  06796	6a 0c		 push	 12			; 0000000cH
  06798	6a 02		 push	 2
  0679a	68 bf 00 00 00	 push	 191			; 000000bfH
  0679f	8d 45 ec	 lea	 eax, DWORD PTR _pMsg$[ebp]
  067a2	50		 push	 eax
  067a3	e8 00 00 00 00	 call	 ?PHeadSubSetB@@YAXPAEEEH@Z ; PHeadSubSetB
  067a8	83 c4 10	 add	 esp, 16			; 00000010H

; 2304 : 
; 2305 : 	pMsg.m_btType = btUseType;

  067ab	8a 45 14	 mov	 al, BYTE PTR _btUseType$[ebp]
  067ae	88 45 f0	 mov	 BYTE PTR _pMsg$[ebp+4], al

; 2306 : 	pMsg.m_btSkillIDH = SET_NUMBERH(skill);

  067b1	0f b7 45 10	 movzx	 eax, WORD PTR _skill$[ebp]
  067b5	c1 e8 08	 shr	 eax, 8
  067b8	88 45 f1	 mov	 BYTE PTR _pMsg$[ebp+5], al

; 2307 : 	pMsg.m_btSkillIDL = SET_NUMBERL(skill);

  067bb	0f b7 45 10	 movzx	 eax, WORD PTR _skill$[ebp]
  067bf	25 ff 00 00 00	 and	 eax, 255		; 000000ffH
  067c4	88 45 f2	 mov	 BYTE PTR _pMsg$[ebp+6], al

; 2308 : 	pMsg.m_wIndex = aIndex;

  067c7	66 8b 45 08	 mov	 ax, WORD PTR _aIndex$[ebp]
  067cb	66 89 45 f4	 mov	 WORD PTR _pMsg$[ebp+8], ax

; 2309 : 	pMsg.m_wTargetIndex = aTargetIndex;

  067cf	66 8b 45 0c	 mov	 ax, WORD PTR _aTargetIndex$[ebp]
  067d3	66 89 45 f6	 mov	 WORD PTR _pMsg$[ebp+10], ax

; 2310 : 
; 2311 : 	DataSend(aIndex,(LPBYTE)&pMsg,pMsg.h.size);

  067d7	0f b6 45 ed	 movzx	 eax, BYTE PTR _pMsg$[ebp+1]
  067db	50		 push	 eax
  067dc	8d 4d ec	 lea	 ecx, DWORD PTR _pMsg$[ebp]
  067df	51		 push	 ecx
  067e0	8b 55 08	 mov	 edx, DWORD PTR _aIndex$[ebp]
  067e3	52		 push	 edx
  067e4	e8 00 00 00 00	 call	 ?DataSend@@YAHHPAEK@Z	; DataSend
  067e9	83 c4 0c	 add	 esp, 12			; 0000000cH

; 2312 : 
; 2313 : 	if(btUseType == 1)

  067ec	0f b6 45 14	 movzx	 eax, BYTE PTR _btUseType$[ebp]
  067f0	83 f8 01	 cmp	 eax, 1
  067f3	75 21		 jne	 SHORT $LN2@GCIllusion

; 2314 : 	{
; 2315 : 		MsgSendV2(&gObj[aIndex], (LPBYTE)&pMsg, pMsg.h.size);

  067f5	0f b6 45 ed	 movzx	 eax, BYTE PTR _pMsg$[ebp+1]
  067f9	50		 push	 eax
  067fa	8d 4d ec	 lea	 ecx, DWORD PTR _pMsg$[ebp]
  067fd	51		 push	 ecx
  067fe	8b 55 08	 mov	 edx, DWORD PTR _aIndex$[ebp]
  06801	69 d2 38 2b 00
	00		 imul	 edx, 11064		; 00002b38H
  06807	03 15 00 00 00
	00		 add	 edx, DWORD PTR ?gObj@@3PAUOBJECTSTRUCT@@A ; gObj
  0680d	52		 push	 edx
  0680e	e8 00 00 00 00	 call	 ?MsgSendV2@@YAXPAUOBJECTSTRUCT@@PAEH@Z ; MsgSendV2
  06813	83 c4 0c	 add	 esp, 12			; 0000000cH
$LN2@GCIllusion:

; 2316 : 	}
; 2317 : }

  06816	5f		 pop	 edi
  06817	5e		 pop	 esi
  06818	5b		 pop	 ebx
  06819	8b 4d fc	 mov	 ecx, DWORD PTR __$ArrayPad$[ebp]
  0681c	33 cd		 xor	 ecx, ebp
  0681e	e8 00 00 00 00	 call	 @__security_check_cookie@4
  06823	8b e5		 mov	 esp, ebp
  06825	5d		 pop	 ebp
  06826	c2 10 00	 ret	 16			; 00000010H
?GCIllusionTempleSkillApply@CIllusionTempleProcess@@QAEXHHGE@Z ENDP ; CIllusionTempleProcess::GCIllusionTempleSkillApply
_TEXT	ENDS
PUBLIC	?ResetAndClearSkills@CIllusionTempleProcess@@QAEXPAUOBJECTSTRUCT@@@Z ; CIllusionTempleProcess::ResetAndClearSkills
; Function compile flags: /Odtp /ZI
_TEXT	SEGMENT
_this$ = -4						; size = 4
_lpObj$ = 8						; size = 4
?ResetAndClearSkills@CIllusionTempleProcess@@QAEXPAUOBJECTSTRUCT@@@Z PROC ; CIllusionTempleProcess::ResetAndClearSkills
; _this$ = ecx

; 2320 : {

  06830	55		 push	 ebp
  06831	8b ec		 mov	 ebp, esp
  06833	83 ec 44	 sub	 esp, 68			; 00000044H
  06836	53		 push	 ebx
  06837	56		 push	 esi
  06838	57		 push	 edi
  06839	89 4d fc	 mov	 DWORD PTR _this$[ebp], ecx

; 2321 : 	if(lpObj->m_iIllusionTempleIndex == -1 || this->m_FloorData[lpObj->m_iIllusionTempleIndex].m_iTeamPlayerIndex != lpObj->m_Index)

  0683c	8b 45 08	 mov	 eax, DWORD PTR _lpObj$[ebp]
  0683f	83 b8 78 20 00
	00 ff		 cmp	 DWORD PTR [eax+8312], -1
  06846	74 1a		 je	 SHORT $LN3@ResetAndCl
  06848	8b 45 08	 mov	 eax, DWORD PTR _lpObj$[ebp]
  0684b	8b 88 78 20 00
	00		 mov	 ecx, DWORD PTR [eax+8312]
  06851	6b c9 30	 imul	 ecx, 48			; 00000030H
  06854	8b 55 fc	 mov	 edx, DWORD PTR _this$[ebp]
  06857	8b 45 08	 mov	 eax, DWORD PTR _lpObj$[ebp]
  0685a	8b 4c 0a 20	 mov	 ecx, DWORD PTR [edx+ecx+32]
  0685e	3b 08		 cmp	 ecx, DWORD PTR [eax]
  06860	74 05		 je	 SHORT $LN4@ResetAndCl
$LN3@ResetAndCl:

; 2322 : 	{
; 2323 : 		return;

  06862	e9 ca 00 00 00	 jmp	 $LN5@ResetAndCl
$LN4@ResetAndCl:

; 2324 : 	}
; 2325 : 
; 2326 : 	this->DropRelicsItem(lpObj->m_Index);

  06867	8b 45 08	 mov	 eax, DWORD PTR _lpObj$[ebp]
  0686a	8b 08		 mov	 ecx, DWORD PTR [eax]
  0686c	51		 push	 ecx
  0686d	8b 4d fc	 mov	 ecx, DWORD PTR _this$[ebp]
  06870	e8 00 00 00 00	 call	 ?DropRelicsItem@CIllusionTempleProcess@@QAEXH@Z ; CIllusionTempleProcess::DropRelicsItem

; 2327 : 
; 2328 : 	this->m_FloorData[lpObj->m_iIllusionTempleIndex].m_btKillCountPoint = 10;

  06875	8b 45 08	 mov	 eax, DWORD PTR _lpObj$[ebp]
  06878	8b 88 78 20 00
	00		 mov	 ecx, DWORD PTR [eax+8312]
  0687e	6b c9 30	 imul	 ecx, 48			; 00000030H
  06881	8b 55 fc	 mov	 edx, DWORD PTR _this$[ebp]
  06884	c6 44 0a 25 0a	 mov	 BYTE PTR [edx+ecx+37], 10 ; 0000000aH

; 2329 : 
; 2330 : 	GCSendIllusionTempleKillCount(lpObj->m_Index, 10);

  06889	6a 0a		 push	 10			; 0000000aH
  0688b	8b 45 08	 mov	 eax, DWORD PTR _lpObj$[ebp]
  0688e	8b 08		 mov	 ecx, DWORD PTR [eax]
  06890	51		 push	 ecx
  06891	e8 00 00 00 00	 call	 ?GCSendIllusionTempleKillCount@@YAXHE@Z ; GCSendIllusionTempleKillCount
  06896	83 c4 08	 add	 esp, 8

; 2331 : 
; 2332 : 	if(this->m_FloorData[lpObj->m_iIllusionTempleIndex].m_dwShieldSpellTime > 0) //Cancel Shield Skill

  06899	8b 45 08	 mov	 eax, DWORD PTR _lpObj$[ebp]
  0689c	8b 88 78 20 00
	00		 mov	 ecx, DWORD PTR [eax+8312]
  068a2	6b c9 30	 imul	 ecx, 48			; 00000030H
  068a5	8b 55 fc	 mov	 edx, DWORD PTR _this$[ebp]
  068a8	83 7c 0a 28 00	 cmp	 DWORD PTR [edx+ecx+40], 0
  068ad	76 36		 jbe	 SHORT $LN2@ResetAndCl

; 2333 : 	{
; 2334 : 		this->m_FloorData[lpObj->m_iIllusionTempleIndex].m_dwShieldSpellTime = 0;

  068af	8b 45 08	 mov	 eax, DWORD PTR _lpObj$[ebp]
  068b2	8b 88 78 20 00
	00		 mov	 ecx, DWORD PTR [eax+8312]
  068b8	6b c9 30	 imul	 ecx, 48			; 00000030H
  068bb	8b 55 fc	 mov	 edx, DWORD PTR _this$[ebp]
  068be	c7 44 0a 28 00
	00 00 00	 mov	 DWORD PTR [edx+ecx+40], 0

; 2335 : 		gObjRemoveBuffEffect(lpObj, AT_ILLUSION_SHIELD_SPELL); //season 3.0 add-on

  068c6	6a 22		 push	 34			; 00000022H
  068c8	8b 45 08	 mov	 eax, DWORD PTR _lpObj$[ebp]
  068cb	50		 push	 eax
  068cc	e8 00 00 00 00	 call	 ?gObjRemoveBuffEffect@@YAEPAUOBJECTSTRUCT@@H@Z ; gObjRemoveBuffEffect
  068d1	83 c4 08	 add	 esp, 8

; 2336 : 		this->GCIllusionTempleSkillCancel(lpObj, 210);

  068d4	68 d2 00 00 00	 push	 210			; 000000d2H
  068d9	8b 45 08	 mov	 eax, DWORD PTR _lpObj$[ebp]
  068dc	50		 push	 eax
  068dd	8b 4d fc	 mov	 ecx, DWORD PTR _this$[ebp]
  068e0	e8 00 00 00 00	 call	 ?GCIllusionTempleSkillCancel@CIllusionTempleProcess@@QAEXPAUOBJECTSTRUCT@@G@Z ; CIllusionTempleProcess::GCIllusionTempleSkillCancel
$LN2@ResetAndCl:

; 2337 : 	}
; 2338 : 
; 2339 : 	if(this->m_FloorData[lpObj->m_iIllusionTempleIndex].m_dwRestrictionSpellTime > 0) //Cancel Stern Skill

  068e5	8b 45 08	 mov	 eax, DWORD PTR _lpObj$[ebp]
  068e8	8b 88 78 20 00
	00		 mov	 ecx, DWORD PTR [eax+8312]
  068ee	6b c9 30	 imul	 ecx, 48			; 00000030H
  068f1	8b 55 fc	 mov	 edx, DWORD PTR _this$[ebp]
  068f4	83 7c 0a 2c 00	 cmp	 DWORD PTR [edx+ecx+44], 0
  068f9	76 36		 jbe	 SHORT $LN5@ResetAndCl

; 2340 : 	{
; 2341 : 		this->m_FloorData[lpObj->m_iIllusionTempleIndex].m_dwRestrictionSpellTime = 0;

  068fb	8b 45 08	 mov	 eax, DWORD PTR _lpObj$[ebp]
  068fe	8b 88 78 20 00
	00		 mov	 ecx, DWORD PTR [eax+8312]
  06904	6b c9 30	 imul	 ecx, 48			; 00000030H
  06907	8b 55 fc	 mov	 edx, DWORD PTR _this$[ebp]
  0690a	c7 44 0a 2c 00
	00 00 00	 mov	 DWORD PTR [edx+ecx+44], 0

; 2342 : 		gObjRemoveBuffEffect(lpObj, AT_ILLUSION_RESTRICTION_SPELL); //season 3.0 add-on

  06912	6a 41		 push	 65			; 00000041H
  06914	8b 45 08	 mov	 eax, DWORD PTR _lpObj$[ebp]
  06917	50		 push	 eax
  06918	e8 00 00 00 00	 call	 ?gObjRemoveBuffEffect@@YAEPAUOBJECTSTRUCT@@H@Z ; gObjRemoveBuffEffect
  0691d	83 c4 08	 add	 esp, 8

; 2343 : 		this->GCIllusionTempleSkillCancel(lpObj, 211);

  06920	68 d3 00 00 00	 push	 211			; 000000d3H
  06925	8b 45 08	 mov	 eax, DWORD PTR _lpObj$[ebp]
  06928	50		 push	 eax
  06929	8b 4d fc	 mov	 ecx, DWORD PTR _this$[ebp]
  0692c	e8 00 00 00 00	 call	 ?GCIllusionTempleSkillCancel@CIllusionTempleProcess@@QAEXPAUOBJECTSTRUCT@@G@Z ; CIllusionTempleProcess::GCIllusionTempleSkillCancel
$LN5@ResetAndCl:

; 2344 : 	}
; 2345 : }

  06931	5f		 pop	 edi
  06932	5e		 pop	 esi
  06933	5b		 pop	 ebx
  06934	8b e5		 mov	 esp, ebp
  06936	5d		 pop	 ebp
  06937	c2 04 00	 ret	 4
?ResetAndClearSkills@CIllusionTempleProcess@@QAEXPAUOBJECTSTRUCT@@@Z ENDP ; CIllusionTempleProcess::ResetAndClearSkills
_TEXT	ENDS
PUBLIC	?LevelUp@CIllusionTempleProcess@@QAEHHH@Z	; CIllusionTempleProcess::LevelUp
PUBLIC	??_C@_0DM@JLNJCFEN@?$FLIllusion?5Temple?$FN?5?$CI?$CFd?$CJ?5Result?5?$CIW@ ; `string'
PUBLIC	__$ArrayPad$
EXTRN	?DataSendEventChip@@YAXPADH@Z:PROC		; DataSendEventChip
EXTRN	?gGameServerCode@@3FA:WORD			; gGameServerCode
EXTRN	?g_iSaveIllusionTempleRankingPoint@@3HA:DWORD	; g_iSaveIllusionTempleRankingPoint
EXTRN	?GCKillPlayerExtSend@@YAXHH_JHH@Z:PROC		; GCKillPlayerExtSend
EXTRN	?CheckIsMasterLevelCharacter@CMasterLevelSystem@@QAEHPAUOBJECTSTRUCT@@@Z:PROC ; CMasterLevelSystem::CheckIsMasterLevelCharacter
EXTRN	?g_MasterLevelSystem@@3VCMasterLevelSystem@@A:BYTE ; g_MasterLevelSystem
EXTRN	?GetCount@PartyClass@@QAEHH@Z:PROC		; PartyClass::GetCount
EXTRN	?gObjUserSetExp@@YAXPAUOBJECTSTRUCT@@AA_J@Z:PROC ; gObjUserSetExp
EXTRN	?gObjSealUserSetExp@@YAXPAUOBJECTSTRUCT@@AA_JH@Z:PROC ; gObjSealUserSetExp
EXTRN	?g_iIllusionTempleRewardPercent@@3HA:DWORD	; g_iIllusionTempleRewardPercent
EXTRN	?g_iIllusionTempleRewardPercentMaster@@3HA:DWORD ; g_iIllusionTempleRewardPercentMaster
EXTRN	?g_iIllusionTempleMinUseSkillCnt@@3HA:DWORD	; g_iIllusionTempleMinUseSkillCnt
EXTRN	_memset:PROC
EXTRN	__alldiv:PROC
EXTRN	__allmul:PROC
;	COMDAT ??_C@_0DM@JLNJCFEN@?$FLIllusion?5Temple?$FN?5?$CI?$CFd?$CJ?5Result?5?$CIW@
CONST	SEGMENT
??_C@_0DM@JLNJCFEN@?$FLIllusion?5Temple?$FN?5?$CI?$CFd?$CJ?5Result?5?$CIW@ DB '['
	DB	'Illusion Temple] (%d) Result (WinTeam: %d)(Score:[%d][%d])', 00H ; `string'
; Function compile flags: /Odtp /ZI
CONST	ENDS
_TEXT	SEGMENT
tv278 = -160						; size = 4
_RankMsg$234905 = -92					; size = 56
_iIndex$234895 = -36					; size = 4
_loc7$234891 = -32					; size = 4
_loc6$234890 = -28					; size = 4
_iPartyCount$234887 = -24				; size = 4
_i$ = -20						; size = 4
_loc3$ = -16						; size = 4
_loc2$ = -12						; size = 4
_this$ = -8						; size = 4
__$ArrayPad$ = -4					; size = 4
?CalcSendRewardEXP@CIllusionTempleProcess@@QAEXXZ PROC	; CIllusionTempleProcess::CalcSendRewardEXP
; _this$ = ecx

; 2348 : {

  06940	55		 push	 ebp
  06941	8b ec		 mov	 ebp, esp
  06943	81 ec a0 00 00
	00		 sub	 esp, 160		; 000000a0H
  06949	a1 00 00 00 00	 mov	 eax, DWORD PTR ___security_cookie
  0694e	33 c5		 xor	 eax, ebp
  06950	89 45 fc	 mov	 DWORD PTR __$ArrayPad$[ebp], eax
  06953	53		 push	 ebx
  06954	56		 push	 esi
  06955	57		 push	 edi
  06956	89 4d f8	 mov	 DWORD PTR _this$[ebp], ecx

; 2349 : 	this->RemoveInvalid();

  06959	8b 4d f8	 mov	 ecx, DWORD PTR _this$[ebp]
  0695c	e8 00 00 00 00	 call	 ?RemoveInvalid@CIllusionTempleProcess@@QAEXXZ ; CIllusionTempleProcess::RemoveInvalid

; 2350 : 
; 2351 : 	int loc2 = 0;

  06961	c7 45 f4 00 00
	00 00		 mov	 DWORD PTR _loc2$[ebp], 0

; 2352 : 	int loc3 = 0;

  06968	c7 45 f0 00 00
	00 00		 mov	 DWORD PTR _loc3$[ebp], 0

; 2353 : 
; 2354 : 	if(this->m_btYellowTeamScore >= 2 && this->m_btYellowTeamScore > this->m_btBlueTeamScore) //Yellow

  0696f	8b 45 f8	 mov	 eax, DWORD PTR _this$[ebp]
  06972	0f b6 88 d0 03
	00 00		 movzx	 ecx, BYTE PTR [eax+976]
  06979	83 f9 02	 cmp	 ecx, 2
  0697c	0f 8c bf 00 00
	00		 jl	 $LN36@CalcSendRe
  06982	8b 45 f8	 mov	 eax, DWORD PTR _this$[ebp]
  06985	0f b6 88 d0 03
	00 00		 movzx	 ecx, BYTE PTR [eax+976]
  0698c	8b 55 f8	 mov	 edx, DWORD PTR _this$[ebp]
  0698f	0f b6 82 d1 03
	00 00		 movzx	 eax, BYTE PTR [edx+977]
  06996	3b c8		 cmp	 ecx, eax
  06998	0f 8e a3 00 00
	00		 jle	 $LN36@CalcSendRe

; 2355 : 	{
; 2356 : 		this->m_btWinnerTeam = 0;

  0699e	8b 45 f8	 mov	 eax, DWORD PTR _this$[ebp]
  069a1	c6 80 d2 03 00
	00 00		 mov	 BYTE PTR [eax+978], 0

; 2357 : 
; 2358 : 		loc2 = (g_IllusionTemple_Default_Exp[this->m_btFloorIndex]+((this->m_btYellowTeamScore-this->m_btBlueTeamScore)*g_IllusionTemple_unk0[this->m_btFloorIndex])) * 2;

  069a8	8b 45 f8	 mov	 eax, DWORD PTR _this$[ebp]
  069ab	0f b6 88 2c 02
	00 00		 movzx	 ecx, BYTE PTR [eax+556]
  069b2	8b 55 f8	 mov	 edx, DWORD PTR _this$[ebp]
  069b5	0f b6 82 d0 03
	00 00		 movzx	 eax, BYTE PTR [edx+976]
  069bc	8b 55 f8	 mov	 edx, DWORD PTR _this$[ebp]
  069bf	0f b6 92 d1 03
	00 00		 movzx	 edx, BYTE PTR [edx+977]
  069c6	2b c2		 sub	 eax, edx
  069c8	8b 55 f8	 mov	 edx, DWORD PTR _this$[ebp]
  069cb	0f b6 92 2c 02
	00 00		 movzx	 edx, BYTE PTR [edx+556]
  069d2	0f af 04 95 00
	00 00 00	 imul	 eax, DWORD PTR _g_IllusionTemple_unk0[edx*4]
  069da	8b 0c 8d 00 00
	00 00		 mov	 ecx, DWORD PTR _g_IllusionTemple_Default_Exp[ecx*4]
  069e1	03 c8		 add	 ecx, eax
  069e3	d1 e1		 shl	 ecx, 1
  069e5	89 4d f4	 mov	 DWORD PTR _loc2$[ebp], ecx

; 2359 : 
; 2360 : 		if(this->m_btBlueTeamScore == 0)

  069e8	8b 45 f8	 mov	 eax, DWORD PTR _this$[ebp]
  069eb	0f b6 88 d1 03
	00 00		 movzx	 ecx, BYTE PTR [eax+977]
  069f2	85 c9		 test	 ecx, ecx
  069f4	75 16		 jne	 SHORT $LN35@CalcSendRe

; 2361 : 		{
; 2362 : 			loc3 = g_IllusionTemple_Default_Exp[this->m_btFloorIndex];

  069f6	8b 45 f8	 mov	 eax, DWORD PTR _this$[ebp]
  069f9	0f b6 88 2c 02
	00 00		 movzx	 ecx, BYTE PTR [eax+556]
  06a00	8b 14 8d 00 00
	00 00		 mov	 edx, DWORD PTR _g_IllusionTemple_Default_Exp[ecx*4]
  06a07	89 55 f0	 mov	 DWORD PTR _loc3$[ebp], edx

; 2363 : 		}
; 2364 : 		else

  06a0a	eb 30		 jmp	 SHORT $LN34@CalcSendRe
$LN35@CalcSendRe:

; 2365 : 		{
; 2366 : 			loc3 = g_IllusionTemple_Default_Exp[this->m_btFloorIndex]+(this->m_btBlueTeamScore*g_IllusionTemple_unk0[this->m_btFloorIndex]);

  06a0c	8b 45 f8	 mov	 eax, DWORD PTR _this$[ebp]
  06a0f	0f b6 88 2c 02
	00 00		 movzx	 ecx, BYTE PTR [eax+556]
  06a16	8b 55 f8	 mov	 edx, DWORD PTR _this$[ebp]
  06a19	0f b6 82 d1 03
	00 00		 movzx	 eax, BYTE PTR [edx+977]
  06a20	8b 55 f8	 mov	 edx, DWORD PTR _this$[ebp]
  06a23	0f b6 92 2c 02
	00 00		 movzx	 edx, BYTE PTR [edx+556]
  06a2a	0f af 04 95 00
	00 00 00	 imul	 eax, DWORD PTR _g_IllusionTemple_unk0[edx*4]
  06a32	03 04 8d 00 00
	00 00		 add	 eax, DWORD PTR _g_IllusionTemple_Default_Exp[ecx*4]
  06a39	89 45 f0	 mov	 DWORD PTR _loc3$[ebp], eax
$LN34@CalcSendRe:

; 2367 : 		}

  06a3c	e9 7a 01 00 00	 jmp	 $LN33@CalcSendRe
$LN36@CalcSendRe:

; 2368 : 
; 2369 : 	}
; 2370 : 	else if(this->m_btBlueTeamScore >= 2 && this->m_btYellowTeamScore < this->m_btBlueTeamScore) //Blue

  06a41	8b 45 f8	 mov	 eax, DWORD PTR _this$[ebp]
  06a44	0f b6 88 d1 03
	00 00		 movzx	 ecx, BYTE PTR [eax+977]
  06a4b	83 f9 02	 cmp	 ecx, 2
  06a4e	0f 8c bf 00 00
	00		 jl	 $LN32@CalcSendRe
  06a54	8b 45 f8	 mov	 eax, DWORD PTR _this$[ebp]
  06a57	0f b6 88 d0 03
	00 00		 movzx	 ecx, BYTE PTR [eax+976]
  06a5e	8b 55 f8	 mov	 edx, DWORD PTR _this$[ebp]
  06a61	0f b6 82 d1 03
	00 00		 movzx	 eax, BYTE PTR [edx+977]
  06a68	3b c8		 cmp	 ecx, eax
  06a6a	0f 8d a3 00 00
	00		 jge	 $LN32@CalcSendRe

; 2371 : 	{
; 2372 : 		this->m_btWinnerTeam = 1;

  06a70	8b 45 f8	 mov	 eax, DWORD PTR _this$[ebp]
  06a73	c6 80 d2 03 00
	00 01		 mov	 BYTE PTR [eax+978], 1

; 2373 : 
; 2374 : 		loc3 = (g_IllusionTemple_Default_Exp[this->m_btFloorIndex]+((this->m_btBlueTeamScore-this->m_btYellowTeamScore)*g_IllusionTemple_unk0[this->m_btFloorIndex])) * 2;

  06a7a	8b 45 f8	 mov	 eax, DWORD PTR _this$[ebp]
  06a7d	0f b6 88 2c 02
	00 00		 movzx	 ecx, BYTE PTR [eax+556]
  06a84	8b 55 f8	 mov	 edx, DWORD PTR _this$[ebp]
  06a87	0f b6 82 d1 03
	00 00		 movzx	 eax, BYTE PTR [edx+977]
  06a8e	8b 55 f8	 mov	 edx, DWORD PTR _this$[ebp]
  06a91	0f b6 92 d0 03
	00 00		 movzx	 edx, BYTE PTR [edx+976]
  06a98	2b c2		 sub	 eax, edx
  06a9a	8b 55 f8	 mov	 edx, DWORD PTR _this$[ebp]
  06a9d	0f b6 92 2c 02
	00 00		 movzx	 edx, BYTE PTR [edx+556]
  06aa4	0f af 04 95 00
	00 00 00	 imul	 eax, DWORD PTR _g_IllusionTemple_unk0[edx*4]
  06aac	8b 0c 8d 00 00
	00 00		 mov	 ecx, DWORD PTR _g_IllusionTemple_Default_Exp[ecx*4]
  06ab3	03 c8		 add	 ecx, eax
  06ab5	d1 e1		 shl	 ecx, 1
  06ab7	89 4d f0	 mov	 DWORD PTR _loc3$[ebp], ecx

; 2375 : 
; 2376 : 		if(this->m_btBlueTeamScore == 0) //Must be m_btYellowTeamScore

  06aba	8b 45 f8	 mov	 eax, DWORD PTR _this$[ebp]
  06abd	0f b6 88 d1 03
	00 00		 movzx	 ecx, BYTE PTR [eax+977]
  06ac4	85 c9		 test	 ecx, ecx
  06ac6	75 16		 jne	 SHORT $LN31@CalcSendRe

; 2377 : 		{
; 2378 : 			loc2 = g_IllusionTemple_Default_Exp[this->m_btFloorIndex];

  06ac8	8b 45 f8	 mov	 eax, DWORD PTR _this$[ebp]
  06acb	0f b6 88 2c 02
	00 00		 movzx	 ecx, BYTE PTR [eax+556]
  06ad2	8b 14 8d 00 00
	00 00		 mov	 edx, DWORD PTR _g_IllusionTemple_Default_Exp[ecx*4]
  06ad9	89 55 f4	 mov	 DWORD PTR _loc2$[ebp], edx

; 2379 : 
; 2380 : 		}
; 2381 : 		else

  06adc	eb 30		 jmp	 SHORT $LN30@CalcSendRe
$LN31@CalcSendRe:

; 2382 : 		{
; 2383 : 			loc2 = g_IllusionTemple_Default_Exp[this->m_btFloorIndex]+(this->m_btYellowTeamScore*g_IllusionTemple_unk0[this->m_btFloorIndex]);

  06ade	8b 45 f8	 mov	 eax, DWORD PTR _this$[ebp]
  06ae1	0f b6 88 2c 02
	00 00		 movzx	 ecx, BYTE PTR [eax+556]
  06ae8	8b 55 f8	 mov	 edx, DWORD PTR _this$[ebp]
  06aeb	0f b6 82 d0 03
	00 00		 movzx	 eax, BYTE PTR [edx+976]
  06af2	8b 55 f8	 mov	 edx, DWORD PTR _this$[ebp]
  06af5	0f b6 92 2c 02
	00 00		 movzx	 edx, BYTE PTR [edx+556]
  06afc	0f af 04 95 00
	00 00 00	 imul	 eax, DWORD PTR _g_IllusionTemple_unk0[edx*4]
  06b04	03 04 8d 00 00
	00 00		 add	 eax, DWORD PTR _g_IllusionTemple_Default_Exp[ecx*4]
  06b0b	89 45 f4	 mov	 DWORD PTR _loc2$[ebp], eax
$LN30@CalcSendRe:

; 2384 : 		}
; 2385 : 
; 2386 : 	}
; 2387 : 	else

  06b0e	e9 a8 00 00 00	 jmp	 $LN33@CalcSendRe
$LN32@CalcSendRe:

; 2388 : 	{
; 2389 : 		if(this->m_btYellowTeamScore == 0)

  06b13	8b 45 f8	 mov	 eax, DWORD PTR _this$[ebp]
  06b16	0f b6 88 d0 03
	00 00		 movzx	 ecx, BYTE PTR [eax+976]
  06b1d	85 c9		 test	 ecx, ecx
  06b1f	75 16		 jne	 SHORT $LN28@CalcSendRe

; 2390 : 		{
; 2391 : 			loc2 = g_IllusionTemple_Default_Exp[this->m_btFloorIndex];

  06b21	8b 45 f8	 mov	 eax, DWORD PTR _this$[ebp]
  06b24	0f b6 88 2c 02
	00 00		 movzx	 ecx, BYTE PTR [eax+556]
  06b2b	8b 14 8d 00 00
	00 00		 mov	 edx, DWORD PTR _g_IllusionTemple_Default_Exp[ecx*4]
  06b32	89 55 f4	 mov	 DWORD PTR _loc2$[ebp], edx

; 2392 : 		}
; 2393 : 		else

  06b35	eb 30		 jmp	 SHORT $LN27@CalcSendRe
$LN28@CalcSendRe:

; 2394 : 		{
; 2395 : 			loc2 = g_IllusionTemple_Default_Exp[this->m_btFloorIndex]+(this->m_btYellowTeamScore*g_IllusionTemple_unk0[this->m_btFloorIndex]);

  06b37	8b 45 f8	 mov	 eax, DWORD PTR _this$[ebp]
  06b3a	0f b6 88 2c 02
	00 00		 movzx	 ecx, BYTE PTR [eax+556]
  06b41	8b 55 f8	 mov	 edx, DWORD PTR _this$[ebp]
  06b44	0f b6 82 d0 03
	00 00		 movzx	 eax, BYTE PTR [edx+976]
  06b4b	8b 55 f8	 mov	 edx, DWORD PTR _this$[ebp]
  06b4e	0f b6 92 2c 02
	00 00		 movzx	 edx, BYTE PTR [edx+556]
  06b55	0f af 04 95 00
	00 00 00	 imul	 eax, DWORD PTR _g_IllusionTemple_unk0[edx*4]
  06b5d	03 04 8d 00 00
	00 00		 add	 eax, DWORD PTR _g_IllusionTemple_Default_Exp[ecx*4]
  06b64	89 45 f4	 mov	 DWORD PTR _loc2$[ebp], eax
$LN27@CalcSendRe:

; 2396 : 		}
; 2397 : 
; 2398 : 		if(this->m_btBlueTeamScore == 0)

  06b67	8b 45 f8	 mov	 eax, DWORD PTR _this$[ebp]
  06b6a	0f b6 88 d1 03
	00 00		 movzx	 ecx, BYTE PTR [eax+977]
  06b71	85 c9		 test	 ecx, ecx
  06b73	75 16		 jne	 SHORT $LN26@CalcSendRe

; 2399 : 		{
; 2400 : 			loc3 = g_IllusionTemple_Default_Exp[this->m_btFloorIndex];

  06b75	8b 45 f8	 mov	 eax, DWORD PTR _this$[ebp]
  06b78	0f b6 88 2c 02
	00 00		 movzx	 ecx, BYTE PTR [eax+556]
  06b7f	8b 14 8d 00 00
	00 00		 mov	 edx, DWORD PTR _g_IllusionTemple_Default_Exp[ecx*4]
  06b86	89 55 f0	 mov	 DWORD PTR _loc3$[ebp], edx

; 2401 : 		}
; 2402 : 		else

  06b89	eb 30		 jmp	 SHORT $LN33@CalcSendRe
$LN26@CalcSendRe:

; 2403 : 		{
; 2404 : 			loc3 = g_IllusionTemple_Default_Exp[this->m_btFloorIndex]+(this->m_btBlueTeamScore*g_IllusionTemple_unk0[this->m_btFloorIndex]);

  06b8b	8b 45 f8	 mov	 eax, DWORD PTR _this$[ebp]
  06b8e	0f b6 88 2c 02
	00 00		 movzx	 ecx, BYTE PTR [eax+556]
  06b95	8b 55 f8	 mov	 edx, DWORD PTR _this$[ebp]
  06b98	0f b6 82 d1 03
	00 00		 movzx	 eax, BYTE PTR [edx+977]
  06b9f	8b 55 f8	 mov	 edx, DWORD PTR _this$[ebp]
  06ba2	0f b6 92 2c 02
	00 00		 movzx	 edx, BYTE PTR [edx+556]
  06ba9	0f af 04 95 00
	00 00 00	 imul	 eax, DWORD PTR _g_IllusionTemple_unk0[edx*4]
  06bb1	03 04 8d 00 00
	00 00		 add	 eax, DWORD PTR _g_IllusionTemple_Default_Exp[ecx*4]
  06bb8	89 45 f0	 mov	 DWORD PTR _loc3$[ebp], eax
$LN33@CalcSendRe:

; 2405 : 		}
; 2406 : 	}
; 2407 : 
; 2408 : 	LogAddTD("[Illusion Temple] (%d) Result (WinTeam: %d)(Score:[%d][%d])", this->m_btFloorIndex+1, this->m_btWinnerTeam, this->m_btYellowTeamScore, this->m_btBlueTeamScore);

  06bbb	8b 45 f8	 mov	 eax, DWORD PTR _this$[ebp]
  06bbe	0f b6 88 d1 03
	00 00		 movzx	 ecx, BYTE PTR [eax+977]
  06bc5	51		 push	 ecx
  06bc6	8b 55 f8	 mov	 edx, DWORD PTR _this$[ebp]
  06bc9	0f b6 82 d0 03
	00 00		 movzx	 eax, BYTE PTR [edx+976]
  06bd0	50		 push	 eax
  06bd1	8b 4d f8	 mov	 ecx, DWORD PTR _this$[ebp]
  06bd4	0f b6 91 d2 03
	00 00		 movzx	 edx, BYTE PTR [ecx+978]
  06bdb	52		 push	 edx
  06bdc	8b 45 f8	 mov	 eax, DWORD PTR _this$[ebp]
  06bdf	0f b6 88 2c 02
	00 00		 movzx	 ecx, BYTE PTR [eax+556]
  06be6	83 c1 01	 add	 ecx, 1
  06be9	51		 push	 ecx
  06bea	68 00 00 00 00	 push	 OFFSET ??_C@_0DM@JLNJCFEN@?$FLIllusion?5Temple?$FN?5?$CI?$CFd?$CJ?5Result?5?$CIW@
  06bef	ff 15 00 00 00
	00		 call	 DWORD PTR ?LogAddTD@@3P6AXPADZZA ; LogAddTD
  06bf5	83 c4 14	 add	 esp, 20			; 00000014H

; 2409 : 
; 2410 : 	int i; //loc4
; 2411 : 
; 2412 : 	for(i = 0;i < MAX_FLOOR_USER;i++)

  06bf8	c7 45 ec 00 00
	00 00		 mov	 DWORD PTR _i$[ebp], 0
  06bff	eb 09		 jmp	 SHORT $LN24@CalcSendRe
$LN23@CalcSendRe:
  06c01	8b 45 ec	 mov	 eax, DWORD PTR _i$[ebp]
  06c04	83 c0 01	 add	 eax, 1
  06c07	89 45 ec	 mov	 DWORD PTR _i$[ebp], eax
$LN24@CalcSendRe:
  06c0a	83 7d ec 0a	 cmp	 DWORD PTR _i$[ebp], 10	; 0000000aH
  06c0e	0f 8d 57 03 00
	00		 jge	 $LN22@CalcSendRe

; 2413 : 	{
; 2414 : 		if(this->m_FloorData[i].m_btTeamJoinSide == (BYTE)-1)

  06c14	8b 45 ec	 mov	 eax, DWORD PTR _i$[ebp]
  06c17	6b c0 30	 imul	 eax, 48			; 00000030H
  06c1a	8b 4d f8	 mov	 ecx, DWORD PTR _this$[ebp]
  06c1d	0f b6 54 01 24	 movzx	 edx, BYTE PTR [ecx+eax+36]
  06c22	81 fa ff 00 00
	00		 cmp	 edx, 255		; 000000ffH
  06c28	75 02		 jne	 SHORT $LN21@CalcSendRe

; 2415 : 		{
; 2416 : 			continue;

  06c2a	eb d5		 jmp	 SHORT $LN23@CalcSendRe
$LN21@CalcSendRe:

; 2417 : 		}
; 2418 : 
; 2419 : 		if(this->m_FloorData[i].m_iTeamPlayerIndex != -1 && gObj[this->m_FloorData[i].m_iTeamPlayerIndex].Connected > PLAYER_LOGGED && gObj[this->m_FloorData[i].m_iTeamPlayerIndex].MapNumber == this->m_btFloorIndex+MAP_INDEX_ILLUSIONTEMPLE &&	this->m_FloorData[i].m_btUsedKillCountPoint >= g_iIllusionTempleMinUseSkillCnt)

  06c2c	8b 45 ec	 mov	 eax, DWORD PTR _i$[ebp]
  06c2f	6b c0 30	 imul	 eax, 48			; 00000030H
  06c32	8b 4d f8	 mov	 ecx, DWORD PTR _this$[ebp]
  06c35	83 7c 01 20 ff	 cmp	 DWORD PTR [ecx+eax+32], -1
  06c3a	0f 84 26 03 00
	00		 je	 $LN20@CalcSendRe
  06c40	8b 45 ec	 mov	 eax, DWORD PTR _i$[ebp]
  06c43	6b c0 30	 imul	 eax, 48			; 00000030H
  06c46	8b 4d f8	 mov	 ecx, DWORD PTR _this$[ebp]
  06c49	8b 54 01 20	 mov	 edx, DWORD PTR [ecx+eax+32]
  06c4d	69 d2 38 2b 00
	00		 imul	 edx, 11064		; 00002b38H
  06c53	a1 00 00 00 00	 mov	 eax, DWORD PTR ?gObj@@3PAUOBJECTSTRUCT@@A ; gObj
  06c58	83 7c 10 04 02	 cmp	 DWORD PTR [eax+edx+4], 2
  06c5d	0f 8e 03 03 00
	00		 jle	 $LN20@CalcSendRe
  06c63	8b 45 ec	 mov	 eax, DWORD PTR _i$[ebp]
  06c66	6b c0 30	 imul	 eax, 48			; 00000030H
  06c69	8b 4d f8	 mov	 ecx, DWORD PTR _this$[ebp]
  06c6c	8b 54 01 20	 mov	 edx, DWORD PTR [ecx+eax+32]
  06c70	69 d2 38 2b 00
	00		 imul	 edx, 11064		; 00002b38H
  06c76	a1 00 00 00 00	 mov	 eax, DWORD PTR ?gObj@@3PAUOBJECTSTRUCT@@A ; gObj
  06c7b	0f b6 8c 10 49
	01 00 00	 movzx	 ecx, BYTE PTR [eax+edx+329]
  06c83	8b 55 f8	 mov	 edx, DWORD PTR _this$[ebp]
  06c86	0f b6 82 2c 02
	00 00		 movzx	 eax, BYTE PTR [edx+556]
  06c8d	83 c0 2d	 add	 eax, 45			; 0000002dH
  06c90	3b c8		 cmp	 ecx, eax
  06c92	0f 85 ce 02 00
	00		 jne	 $LN20@CalcSendRe
  06c98	8b 45 ec	 mov	 eax, DWORD PTR _i$[ebp]
  06c9b	6b c0 30	 imul	 eax, 48			; 00000030H
  06c9e	8b 4d f8	 mov	 ecx, DWORD PTR _this$[ebp]
  06ca1	0f b6 54 01 33	 movzx	 edx, BYTE PTR [ecx+eax+51]
  06ca6	3b 15 00 00 00
	00		 cmp	 edx, DWORD PTR ?g_iIllusionTempleMinUseSkillCnt@@3HA ; g_iIllusionTempleMinUseSkillCnt
  06cac	0f 8c b4 02 00
	00		 jl	 $LN20@CalcSendRe

; 2420 : 		{
; 2421 : 			switch(this->m_FloorData[i].m_btTeamJoinSide)

  06cb2	8b 45 ec	 mov	 eax, DWORD PTR _i$[ebp]
  06cb5	6b c0 30	 imul	 eax, 48			; 00000030H
  06cb8	8b 4d f8	 mov	 ecx, DWORD PTR _this$[ebp]
  06cbb	8a 54 01 24	 mov	 dl, BYTE PTR [ecx+eax+36]
  06cbf	88 95 60 ff ff
	ff		 mov	 BYTE PTR tv278[ebp], dl
  06cc5	80 bd 60 ff ff
	ff 00		 cmp	 BYTE PTR tv278[ebp], 0
  06ccc	74 0b		 je	 SHORT $LN17@CalcSendRe
  06cce	80 bd 60 ff ff
	ff 01		 cmp	 BYTE PTR tv278[ebp], 1
  06cd5	74 19		 je	 SHORT $LN16@CalcSendRe
  06cd7	eb 2c		 jmp	 SHORT $LN18@CalcSendRe
$LN17@CalcSendRe:

; 2422 : 			{
; 2423 : 				case 0:
; 2424 : 					this->m_FloorData[i].m_i64ExpReward = loc2;

  06cd9	8b 45 f4	 mov	 eax, DWORD PTR _loc2$[ebp]
  06cdc	99		 cdq
  06cdd	8b 4d ec	 mov	 ecx, DWORD PTR _i$[ebp]
  06ce0	6b c9 30	 imul	 ecx, 48			; 00000030H
  06ce3	8b 75 f8	 mov	 esi, DWORD PTR _this$[ebp]
  06ce6	89 44 0e 38	 mov	 DWORD PTR [esi+ecx+56], eax
  06cea	89 54 0e 3c	 mov	 DWORD PTR [esi+ecx+60], edx

; 2425 : 					break;

  06cee	eb 15		 jmp	 SHORT $LN18@CalcSendRe
$LN16@CalcSendRe:

; 2426 : 
; 2427 : 				case 1:
; 2428 : 					this->m_FloorData[i].m_i64ExpReward = loc3;

  06cf0	8b 45 f0	 mov	 eax, DWORD PTR _loc3$[ebp]
  06cf3	99		 cdq
  06cf4	8b 4d ec	 mov	 ecx, DWORD PTR _i$[ebp]
  06cf7	6b c9 30	 imul	 ecx, 48			; 00000030H
  06cfa	8b 75 f8	 mov	 esi, DWORD PTR _this$[ebp]
  06cfd	89 44 0e 38	 mov	 DWORD PTR [esi+ecx+56], eax
  06d01	89 54 0e 3c	 mov	 DWORD PTR [esi+ecx+60], edx
$LN18@CalcSendRe:

; 2429 : 					break;
; 2430 : 			}
; 2431 : 
; 2432 : 			if(gObj[this->m_FloorData[i].m_iTeamPlayerIndex].ChangeUP3rd != 0) //season4 add-on

  06d05	8b 45 ec	 mov	 eax, DWORD PTR _i$[ebp]
  06d08	6b c0 30	 imul	 eax, 48			; 00000030H
  06d0b	8b 4d f8	 mov	 ecx, DWORD PTR _this$[ebp]
  06d0e	8b 54 01 20	 mov	 edx, DWORD PTR [ecx+eax+32]
  06d12	69 d2 38 2b 00
	00		 imul	 edx, 11064		; 00002b38H
  06d18	a1 00 00 00 00	 mov	 eax, DWORD PTR ?gObj@@3PAUOBJECTSTRUCT@@A ; gObj
  06d1d	0f b6 8c 10 bc
	00 00 00	 movzx	 ecx, BYTE PTR [eax+edx+188]
  06d25	85 c9		 test	 ecx, ecx
  06d27	74 3e		 je	 SHORT $LN15@CalcSendRe

; 2433 : 			{
; 2434 : 				this->m_FloorData[i].m_i64ExpReward = this->m_FloorData[i].m_i64ExpReward*g_iIllusionTempleRewardPercentMaster/100;

  06d29	8b 4d ec	 mov	 ecx, DWORD PTR _i$[ebp]
  06d2c	6b c9 30	 imul	 ecx, 48			; 00000030H
  06d2f	a1 00 00 00 00	 mov	 eax, DWORD PTR ?g_iIllusionTempleRewardPercentMaster@@3HA ; g_iIllusionTempleRewardPercentMaster
  06d34	99		 cdq
  06d35	8b 75 f8	 mov	 esi, DWORD PTR _this$[ebp]
  06d38	52		 push	 edx
  06d39	50		 push	 eax
  06d3a	8b 54 0e 3c	 mov	 edx, DWORD PTR [esi+ecx+60]
  06d3e	52		 push	 edx
  06d3f	8b 44 0e 38	 mov	 eax, DWORD PTR [esi+ecx+56]
  06d43	50		 push	 eax
  06d44	e8 00 00 00 00	 call	 __allmul
  06d49	6a 00		 push	 0
  06d4b	6a 64		 push	 100			; 00000064H
  06d4d	52		 push	 edx
  06d4e	50		 push	 eax
  06d4f	e8 00 00 00 00	 call	 __alldiv
  06d54	8b 4d ec	 mov	 ecx, DWORD PTR _i$[ebp]
  06d57	6b c9 30	 imul	 ecx, 48			; 00000030H
  06d5a	8b 75 f8	 mov	 esi, DWORD PTR _this$[ebp]
  06d5d	89 44 0e 38	 mov	 DWORD PTR [esi+ecx+56], eax
  06d61	89 54 0e 3c	 mov	 DWORD PTR [esi+ecx+60], edx

; 2435 : 			}
; 2436 : 			else

  06d65	eb 3c		 jmp	 SHORT $LN14@CalcSendRe
$LN15@CalcSendRe:

; 2437 : 			{
; 2438 : 				this->m_FloorData[i].m_i64ExpReward = this->m_FloorData[i].m_i64ExpReward*g_iIllusionTempleRewardPercent/100;

  06d67	8b 4d ec	 mov	 ecx, DWORD PTR _i$[ebp]
  06d6a	6b c9 30	 imul	 ecx, 48			; 00000030H
  06d6d	a1 00 00 00 00	 mov	 eax, DWORD PTR ?g_iIllusionTempleRewardPercent@@3HA ; g_iIllusionTempleRewardPercent
  06d72	99		 cdq
  06d73	8b 75 f8	 mov	 esi, DWORD PTR _this$[ebp]
  06d76	52		 push	 edx
  06d77	50		 push	 eax
  06d78	8b 54 0e 3c	 mov	 edx, DWORD PTR [esi+ecx+60]
  06d7c	52		 push	 edx
  06d7d	8b 44 0e 38	 mov	 eax, DWORD PTR [esi+ecx+56]
  06d81	50		 push	 eax
  06d82	e8 00 00 00 00	 call	 __allmul
  06d87	6a 00		 push	 0
  06d89	6a 64		 push	 100			; 00000064H
  06d8b	52		 push	 edx
  06d8c	50		 push	 eax
  06d8d	e8 00 00 00 00	 call	 __alldiv
  06d92	8b 4d ec	 mov	 ecx, DWORD PTR _i$[ebp]
  06d95	6b c9 30	 imul	 ecx, 48			; 00000030H
  06d98	8b 75 f8	 mov	 esi, DWORD PTR _this$[ebp]
  06d9b	89 44 0e 38	 mov	 DWORD PTR [esi+ecx+56], eax
  06d9f	89 54 0e 3c	 mov	 DWORD PTR [esi+ecx+60], edx
$LN14@CalcSendRe:

; 2439 : 			}
; 2440 : 
; 2441 : 			gObjSealUserSetExp(&gObj[this->m_FloorData[i].m_iTeamPlayerIndex], this->m_FloorData[i].m_i64ExpReward, TRUE); //Seal Exp

  06da3	6a 01		 push	 1
  06da5	8b 45 ec	 mov	 eax, DWORD PTR _i$[ebp]
  06da8	6b c0 30	 imul	 eax, 48			; 00000030H
  06dab	8b 4d f8	 mov	 ecx, DWORD PTR _this$[ebp]
  06dae	8d 54 01 38	 lea	 edx, DWORD PTR [ecx+eax+56]
  06db2	52		 push	 edx
  06db3	8b 45 ec	 mov	 eax, DWORD PTR _i$[ebp]
  06db6	6b c0 30	 imul	 eax, 48			; 00000030H
  06db9	8b 4d f8	 mov	 ecx, DWORD PTR _this$[ebp]
  06dbc	8b 54 01 20	 mov	 edx, DWORD PTR [ecx+eax+32]
  06dc0	69 d2 38 2b 00
	00		 imul	 edx, 11064		; 00002b38H
  06dc6	03 15 00 00 00
	00		 add	 edx, DWORD PTR ?gObj@@3PAUOBJECTSTRUCT@@A ; gObj
  06dcc	52		 push	 edx
  06dcd	e8 00 00 00 00	 call	 ?gObjSealUserSetExp@@YAXPAUOBJECTSTRUCT@@AA_JH@Z ; gObjSealUserSetExp
  06dd2	83 c4 0c	 add	 esp, 12			; 0000000cH

; 2442 : 			gObjUserSetExp(&gObj[this->m_FloorData[i].m_iTeamPlayerIndex],this->m_FloorData[i].m_i64ExpReward);	//Panda Use

  06dd5	8b 45 ec	 mov	 eax, DWORD PTR _i$[ebp]
  06dd8	6b c0 30	 imul	 eax, 48			; 00000030H
  06ddb	8b 4d f8	 mov	 ecx, DWORD PTR _this$[ebp]
  06dde	8d 54 01 38	 lea	 edx, DWORD PTR [ecx+eax+56]
  06de2	52		 push	 edx
  06de3	8b 45 ec	 mov	 eax, DWORD PTR _i$[ebp]
  06de6	6b c0 30	 imul	 eax, 48			; 00000030H
  06de9	8b 4d f8	 mov	 ecx, DWORD PTR _this$[ebp]
  06dec	8b 54 01 20	 mov	 edx, DWORD PTR [ecx+eax+32]
  06df0	69 d2 38 2b 00
	00		 imul	 edx, 11064		; 00002b38H
  06df6	03 15 00 00 00
	00		 add	 edx, DWORD PTR ?gObj@@3PAUOBJECTSTRUCT@@A ; gObj
  06dfc	52		 push	 edx
  06dfd	e8 00 00 00 00	 call	 ?gObjUserSetExp@@YAXPAUOBJECTSTRUCT@@AA_J@Z ; gObjUserSetExp
  06e02	83 c4 08	 add	 esp, 8

; 2443 : 
; 2444 : 			int iPartyCount = 0; //loc5

  06e05	c7 45 e8 00 00
	00 00		 mov	 DWORD PTR _iPartyCount$234887[ebp], 0

; 2445 : 
; 2446 : 			if(gObj[this->m_FloorData[i].m_iTeamPlayerIndex].PartyNumber >= 0)

  06e0c	8b 45 ec	 mov	 eax, DWORD PTR _i$[ebp]
  06e0f	6b c0 30	 imul	 eax, 48			; 00000030H
  06e12	8b 4d f8	 mov	 ecx, DWORD PTR _this$[ebp]
  06e15	8b 54 01 20	 mov	 edx, DWORD PTR [ecx+eax+32]
  06e19	69 d2 38 2b 00
	00		 imul	 edx, 11064		; 00002b38H
  06e1f	a1 00 00 00 00	 mov	 eax, DWORD PTR ?gObj@@3PAUOBJECTSTRUCT@@A ; gObj
  06e24	83 bc 10 2c 04
	00 00 00	 cmp	 DWORD PTR [eax+edx+1068], 0
  06e2c	7c 2f		 jl	 SHORT $LN13@CalcSendRe

; 2447 : 			{
; 2448 : 				iPartyCount = gParty.GetCount(gObj[this->m_FloorData[i].m_iTeamPlayerIndex].PartyNumber);

  06e2e	8b 45 ec	 mov	 eax, DWORD PTR _i$[ebp]
  06e31	6b c0 30	 imul	 eax, 48			; 00000030H
  06e34	8b 4d f8	 mov	 ecx, DWORD PTR _this$[ebp]
  06e37	8b 54 01 20	 mov	 edx, DWORD PTR [ecx+eax+32]
  06e3b	69 d2 38 2b 00
	00		 imul	 edx, 11064		; 00002b38H
  06e41	a1 00 00 00 00	 mov	 eax, DWORD PTR ?gObj@@3PAUOBJECTSTRUCT@@A ; gObj
  06e46	8b 8c 10 2c 04
	00 00		 mov	 ecx, DWORD PTR [eax+edx+1068]
  06e4d	51		 push	 ecx
  06e4e	b9 00 00 00 00	 mov	 ecx, OFFSET ?gParty@@3VPartyClass@@A ; gParty
  06e53	e8 00 00 00 00	 call	 ?GetCount@PartyClass@@QAEHH@Z ; PartyClass::GetCount
  06e58	89 45 e8	 mov	 DWORD PTR _iPartyCount$234887[ebp], eax

; 2449 : 			}
; 2450 : 			else

  06e5b	eb 07		 jmp	 SHORT $LN12@CalcSendRe
$LN13@CalcSendRe:

; 2451 : 			{
; 2452 : 				iPartyCount = 1;

  06e5d	c7 45 e8 01 00
	00 00		 mov	 DWORD PTR _iPartyCount$234887[ebp], 1
$LN12@CalcSendRe:

; 2453 : 			}
; 2454 : 
; 2455 : 			this->m_FloorData[i].m_dwRankingPoint = ( this->m_FloorData[i].m_i64ExpReward + ( this->m_FloorData[i].m_btUserKillCount * g_IllusionTemple_unk1[this->m_btFloorIndex] ) + ( this->m_FloorData[i].m_btPlayerRewardKillCount * g_IllusionTemple_unk2[this->m_btFloorIndex] ) + g_IllusionTemple_Team_Players[iPartyCount] );

  06e64	8b 4d ec	 mov	 ecx, DWORD PTR _i$[ebp]
  06e67	6b c9 30	 imul	 ecx, 48			; 00000030H
  06e6a	8b 55 ec	 mov	 edx, DWORD PTR _i$[ebp]
  06e6d	6b d2 30	 imul	 edx, 48			; 00000030H
  06e70	8b 45 f8	 mov	 eax, DWORD PTR _this$[ebp]
  06e73	0f b6 44 10 30	 movzx	 eax, BYTE PTR [eax+edx+48]
  06e78	8b 55 f8	 mov	 edx, DWORD PTR _this$[ebp]
  06e7b	0f b6 92 2c 02
	00 00		 movzx	 edx, BYTE PTR [edx+556]
  06e82	0f af 04 95 00
	00 00 00	 imul	 eax, DWORD PTR _g_IllusionTemple_unk1[edx*4]
  06e8a	99		 cdq
  06e8b	8b f0		 mov	 esi, eax
  06e8d	8b fa		 mov	 edi, edx
  06e8f	8b 45 f8	 mov	 eax, DWORD PTR _this$[ebp]
  06e92	03 74 08 38	 add	 esi, DWORD PTR [eax+ecx+56]
  06e96	13 7c 08 3c	 adc	 edi, DWORD PTR [eax+ecx+60]
  06e9a	8b 4d ec	 mov	 ecx, DWORD PTR _i$[ebp]
  06e9d	6b c9 30	 imul	 ecx, 48			; 00000030H
  06ea0	8b 55 f8	 mov	 edx, DWORD PTR _this$[ebp]
  06ea3	0f b6 44 0a 32	 movzx	 eax, BYTE PTR [edx+ecx+50]
  06ea8	8b 4d f8	 mov	 ecx, DWORD PTR _this$[ebp]
  06eab	0f b6 91 2c 02
	00 00		 movzx	 edx, BYTE PTR [ecx+556]
  06eb2	0f af 04 95 00
	00 00 00	 imul	 eax, DWORD PTR _g_IllusionTemple_unk2[edx*4]
  06eba	99		 cdq
  06ebb	03 f0		 add	 esi, eax
  06ebd	13 fa		 adc	 edi, edx
  06ebf	8b 45 e8	 mov	 eax, DWORD PTR _iPartyCount$234887[ebp]
  06ec2	8b 04 85 00 00
	00 00		 mov	 eax, DWORD PTR _g_IllusionTemple_Team_Players[eax*4]
  06ec9	99		 cdq
  06eca	03 f0		 add	 esi, eax
  06ecc	13 fa		 adc	 edi, edx
  06ece	8b 4d ec	 mov	 ecx, DWORD PTR _i$[ebp]
  06ed1	6b c9 30	 imul	 ecx, 48			; 00000030H
  06ed4	8b 55 f8	 mov	 edx, DWORD PTR _this$[ebp]
  06ed7	89 74 0a 40	 mov	 DWORD PTR [edx+ecx+64], esi

; 2456 : 
; 2457 : 			int loc6 = this->m_FloorData[i].m_i64ExpReward;

  06edb	8b 45 ec	 mov	 eax, DWORD PTR _i$[ebp]
  06ede	6b c0 30	 imul	 eax, 48			; 00000030H
  06ee1	8b 4d f8	 mov	 ecx, DWORD PTR _this$[ebp]
  06ee4	8b 54 01 38	 mov	 edx, DWORD PTR [ecx+eax+56]
  06ee8	89 55 e4	 mov	 DWORD PTR _loc6$234890[ebp], edx

; 2458 : 			int loc7 = 0;

  06eeb	c7 45 e0 00 00
	00 00		 mov	 DWORD PTR _loc7$234891[ebp], 0
$LN11@CalcSendRe:

; 2459 : 
; 2460 : 			while(loc6 > 0)

  06ef2	83 7d e4 00	 cmp	 DWORD PTR _loc6$234890[ebp], 0
  06ef6	7e 25		 jle	 SHORT $LN10@CalcSendRe

; 2461 : 			{
; 2462 : 				loc7 = loc6;

  06ef8	8b 45 e4	 mov	 eax, DWORD PTR _loc6$234890[ebp]
  06efb	89 45 e0	 mov	 DWORD PTR _loc7$234891[ebp], eax

; 2463 : 				loc6 = this->LevelUp(this->m_FloorData[i].m_iTeamPlayerIndex, loc6);

  06efe	8b 45 e4	 mov	 eax, DWORD PTR _loc6$234890[ebp]
  06f01	50		 push	 eax
  06f02	8b 4d ec	 mov	 ecx, DWORD PTR _i$[ebp]
  06f05	6b c9 30	 imul	 ecx, 48			; 00000030H
  06f08	8b 55 f8	 mov	 edx, DWORD PTR _this$[ebp]
  06f0b	8b 44 0a 20	 mov	 eax, DWORD PTR [edx+ecx+32]
  06f0f	50		 push	 eax
  06f10	8b 4d f8	 mov	 ecx, DWORD PTR _this$[ebp]
  06f13	e8 00 00 00 00	 call	 ?LevelUp@CIllusionTempleProcess@@QAEHHH@Z ; CIllusionTempleProcess::LevelUp
  06f18	89 45 e4	 mov	 DWORD PTR _loc6$234890[ebp], eax

; 2464 : 			}

  06f1b	eb d5		 jmp	 SHORT $LN11@CalcSendRe
$LN10@CalcSendRe:

; 2465 : 
; 2466 : 			int iIndex = this->m_FloorData[i].m_iTeamPlayerIndex;

  06f1d	8b 45 ec	 mov	 eax, DWORD PTR _i$[ebp]
  06f20	6b c0 30	 imul	 eax, 48			; 00000030H
  06f23	8b 4d f8	 mov	 ecx, DWORD PTR _this$[ebp]
  06f26	8b 54 01 20	 mov	 edx, DWORD PTR [ecx+eax+32]
  06f2a	89 55 dc	 mov	 DWORD PTR _iIndex$234895[ebp], edx

; 2467 : 
; 2468 : 			if(g_MasterLevelSystem.CheckIsMasterLevelCharacter(&gObj[iIndex]) == FALSE)

  06f2d	8b 45 dc	 mov	 eax, DWORD PTR _iIndex$234895[ebp]
  06f30	69 c0 38 2b 00
	00		 imul	 eax, 11064		; 00002b38H
  06f36	03 05 00 00 00
	00		 add	 eax, DWORD PTR ?gObj@@3PAUOBJECTSTRUCT@@A ; gObj
  06f3c	50		 push	 eax
  06f3d	b9 00 00 00 00	 mov	 ecx, OFFSET ?g_MasterLevelSystem@@3VCMasterLevelSystem@@A ; g_MasterLevelSystem
  06f42	e8 00 00 00 00	 call	 ?CheckIsMasterLevelCharacter@CMasterLevelSystem@@QAEHPAUOBJECTSTRUCT@@@Z ; CMasterLevelSystem::CheckIsMasterLevelCharacter
  06f47	85 c0		 test	 eax, eax
  06f49	75 1b		 jne	 SHORT $LN20@CalcSendRe

; 2469 : 			{
; 2470 : 				GCKillPlayerExtSend(iIndex, (WORD)-1, loc7, 0, 0);

  06f4b	6a 00		 push	 0
  06f4d	6a 00		 push	 0
  06f4f	8b 45 e0	 mov	 eax, DWORD PTR _loc7$234891[ebp]
  06f52	99		 cdq
  06f53	52		 push	 edx
  06f54	50		 push	 eax
  06f55	68 ff ff 00 00	 push	 65535			; 0000ffffH
  06f5a	8b 45 dc	 mov	 eax, DWORD PTR _iIndex$234895[ebp]
  06f5d	50		 push	 eax
  06f5e	e8 00 00 00 00	 call	 ?GCKillPlayerExtSend@@YAXHH_JHH@Z ; GCKillPlayerExtSend
  06f63	83 c4 18	 add	 esp, 24			; 00000018H
$LN20@CalcSendRe:

; 2471 : 			}
; 2472 : 		}
; 2473 : 	}

  06f66	e9 96 fc ff ff	 jmp	 $LN23@CalcSendRe
$LN22@CalcSendRe:

; 2474 : 
; 2475 : 	if(g_iSaveIllusionTempleRankingPoint != FALSE)

  06f6b	83 3d 00 00 00
	00 00		 cmp	 DWORD PTR ?g_iSaveIllusionTempleRankingPoint@@3HA, 0 ; g_iSaveIllusionTempleRankingPoint
  06f72	0f 84 e3 01 00
	00		 je	 $LN37@CalcSendRe

; 2476 : 	{
; 2477 : 		for(i = 0;i < MAX_FLOOR_USER;i++)

  06f78	c7 45 ec 00 00
	00 00		 mov	 DWORD PTR _i$[ebp], 0
  06f7f	eb 09		 jmp	 SHORT $LN7@CalcSendRe
$LN6@CalcSendRe:
  06f81	8b 45 ec	 mov	 eax, DWORD PTR _i$[ebp]
  06f84	83 c0 01	 add	 eax, 1
  06f87	89 45 ec	 mov	 DWORD PTR _i$[ebp], eax
$LN7@CalcSendRe:
  06f8a	83 7d ec 0a	 cmp	 DWORD PTR _i$[ebp], 10	; 0000000aH
  06f8e	0f 8d c7 01 00
	00		 jge	 $LN37@CalcSendRe

; 2478 : 		{
; 2479 : 			if(this->m_FloorData[i].m_iTeamPlayerIndex != -1 && gObj[this->m_FloorData[i].m_iTeamPlayerIndex].Connected > PLAYER_LOGGED)

  06f94	8b 45 ec	 mov	 eax, DWORD PTR _i$[ebp]
  06f97	6b c0 30	 imul	 eax, 48			; 00000030H
  06f9a	8b 4d f8	 mov	 ecx, DWORD PTR _this$[ebp]
  06f9d	83 7c 01 20 ff	 cmp	 DWORD PTR [ecx+eax+32], -1
  06fa2	0f 84 ae 01 00
	00		 je	 $LN4@CalcSendRe
  06fa8	8b 45 ec	 mov	 eax, DWORD PTR _i$[ebp]
  06fab	6b c0 30	 imul	 eax, 48			; 00000030H
  06fae	8b 4d f8	 mov	 ecx, DWORD PTR _this$[ebp]
  06fb1	8b 54 01 20	 mov	 edx, DWORD PTR [ecx+eax+32]
  06fb5	69 d2 38 2b 00
	00		 imul	 edx, 11064		; 00002b38H
  06fbb	a1 00 00 00 00	 mov	 eax, DWORD PTR ?gObj@@3PAUOBJECTSTRUCT@@A ; gObj
  06fc0	83 7c 10 04 02	 cmp	 DWORD PTR [eax+edx+4], 2
  06fc5	0f 8e 8b 01 00
	00		 jle	 $LN4@CalcSendRe

; 2480 : 			{
; 2481 : 				if(this->m_FloorData[i].m_btTeamJoinSide == (BYTE)-1)

  06fcb	8b 45 ec	 mov	 eax, DWORD PTR _i$[ebp]
  06fce	6b c0 30	 imul	 eax, 48			; 00000030H
  06fd1	8b 4d f8	 mov	 ecx, DWORD PTR _this$[ebp]
  06fd4	0f b6 54 01 24	 movzx	 edx, BYTE PTR [ecx+eax+36]
  06fd9	81 fa ff 00 00
	00		 cmp	 edx, 255		; 000000ffH
  06fdf	75 02		 jne	 SHORT $LN3@CalcSendRe

; 2482 : 				{
; 2483 : 					continue;

  06fe1	eb 9e		 jmp	 SHORT $LN6@CalcSendRe
$LN3@CalcSendRe:

; 2484 : 				}
; 2485 : 
; 2486 : 				PMSG_ILLUSIONTEMPLE_RANKING_UPDATE RankMsg = {0}; //optimization

  06fe3	c6 45 a4 00	 mov	 BYTE PTR _RankMsg$234905[ebp], 0
  06fe7	6a 37		 push	 55			; 00000037H
  06fe9	6a 00		 push	 0
  06feb	8d 45 a5	 lea	 eax, DWORD PTR _RankMsg$234905[ebp+1]
  06fee	50		 push	 eax
  06fef	e8 00 00 00 00	 call	 _memset
  06ff4	83 c4 0c	 add	 esp, 12			; 0000000cH

; 2487 : 
; 2488 : 				RankMsg.h.c = 0xC1;

  06ff7	c6 45 a4 c1	 mov	 BYTE PTR _RankMsg$234905[ebp], 193 ; 000000c1H

; 2489 : 				RankMsg.h.headcode = 0x26;

  06ffb	c6 45 a6 26	 mov	 BYTE PTR _RankMsg$234905[ebp+2], 38 ; 00000026H

; 2490 : 				RankMsg.h.size = sizeof(RankMsg);

  06fff	c6 45 a5 38	 mov	 BYTE PTR _RankMsg$234905[ebp+1], 56 ; 00000038H

; 2491 : 
; 2492 : 				RankMsg.aIndex = this->m_FloorData[i].m_iTeamPlayerIndex;

  07003	8b 45 ec	 mov	 eax, DWORD PTR _i$[ebp]
  07006	6b c0 30	 imul	 eax, 48			; 00000030H
  07009	8b 4d f8	 mov	 ecx, DWORD PTR _this$[ebp]
  0700c	66 8b 54 01 20	 mov	 dx, WORD PTR [ecx+eax+32]
  07011	66 89 55 a8	 mov	 WORD PTR _RankMsg$234905[ebp+4], dx

; 2493 : 
; 2494 : 				memcpy(RankMsg.AccountID,gObj[this->m_FloorData[i].m_iTeamPlayerIndex].AccountID,10);

  07015	6a 0a		 push	 10			; 0000000aH
  07017	8b 45 ec	 mov	 eax, DWORD PTR _i$[ebp]
  0701a	6b c0 30	 imul	 eax, 48			; 00000030H
  0701d	8b 4d f8	 mov	 ecx, DWORD PTR _this$[ebp]
  07020	8b 54 01 20	 mov	 edx, DWORD PTR [ecx+eax+32]
  07024	69 d2 38 2b 00
	00		 imul	 edx, 11064		; 00002b38H
  0702a	a1 00 00 00 00	 mov	 eax, DWORD PTR ?gObj@@3PAUOBJECTSTRUCT@@A ; gObj
  0702f	8d 4c 10 6c	 lea	 ecx, DWORD PTR [eax+edx+108]
  07033	51		 push	 ecx
  07034	8d 55 aa	 lea	 edx, DWORD PTR _RankMsg$234905[ebp+6]
  07037	52		 push	 edx
  07038	e8 00 00 00 00	 call	 _memcpy
  0703d	83 c4 0c	 add	 esp, 12			; 0000000cH

; 2495 : 
; 2496 : 				RankMsg.AccountID[11] = '\0';

  07040	c6 45 b5 00	 mov	 BYTE PTR _RankMsg$234905[ebp+17], 0

; 2497 : 
; 2498 : 				memcpy(RankMsg.Name,gObj[this->m_FloorData[i].m_iTeamPlayerIndex].Name,10);

  07044	6a 0a		 push	 10			; 0000000aH
  07046	8b 45 ec	 mov	 eax, DWORD PTR _i$[ebp]
  07049	6b c0 30	 imul	 eax, 48			; 00000030H
  0704c	8b 4d f8	 mov	 ecx, DWORD PTR _this$[ebp]
  0704f	8b 54 01 20	 mov	 edx, DWORD PTR [ecx+eax+32]
  07053	69 d2 38 2b 00
	00		 imul	 edx, 11064		; 00002b38H
  07059	a1 00 00 00 00	 mov	 eax, DWORD PTR ?gObj@@3PAUOBJECTSTRUCT@@A ; gObj
  0705e	8d 4c 10 77	 lea	 ecx, DWORD PTR [eax+edx+119]
  07062	51		 push	 ecx
  07063	8d 55 b5	 lea	 edx, DWORD PTR _RankMsg$234905[ebp+17]
  07066	52		 push	 edx
  07067	e8 00 00 00 00	 call	 _memcpy
  0706c	83 c4 0c	 add	 esp, 12			; 0000000cH

; 2499 : 
; 2500 : 				RankMsg.Name[11] = '\0';

  0706f	c6 45 c0 00	 mov	 BYTE PTR _RankMsg$234905[ebp+28], 0

; 2501 : 
; 2502 : 				RankMsg.ServerCode = gGameServerCode / 20;

  07073	0f bf 05 00 00
	00 00		 movsx	 eax, WORD PTR ?gGameServerCode@@3FA ; gGameServerCode
  0707a	99		 cdq
  0707b	b9 14 00 00 00	 mov	 ecx, 20			; 00000014H
  07080	f7 f9		 idiv	 ecx
  07082	66 89 45 c0	 mov	 WORD PTR _RankMsg$234905[ebp+28], ax

; 2503 : 
; 2504 : 				RankMsg.iIllusionIndex = this->m_btFloorIndex+1;

  07086	8b 45 f8	 mov	 eax, DWORD PTR _this$[ebp]
  07089	0f b6 88 2c 02
	00 00		 movzx	 ecx, BYTE PTR [eax+556]
  07090	83 c1 01	 add	 ecx, 1
  07093	89 4d c4	 mov	 DWORD PTR _RankMsg$234905[ebp+32], ecx

; 2505 : 
; 2506 : 				RankMsg.iDbClass = gObj[this->m_FloorData[i].m_iTeamPlayerIndex].DbClass;

  07096	8b 45 ec	 mov	 eax, DWORD PTR _i$[ebp]
  07099	6b c0 30	 imul	 eax, 48			; 00000030H
  0709c	8b 4d f8	 mov	 ecx, DWORD PTR _this$[ebp]
  0709f	8b 54 01 20	 mov	 edx, DWORD PTR [ecx+eax+32]
  070a3	69 d2 38 2b 00
	00		 imul	 edx, 11064		; 00002b38H
  070a9	a1 00 00 00 00	 mov	 eax, DWORD PTR ?gObj@@3PAUOBJECTSTRUCT@@A ; gObj
  070ae	0f b6 8c 10 ba
	00 00 00	 movzx	 ecx, BYTE PTR [eax+edx+186]
  070b6	89 4d c8	 mov	 DWORD PTR _RankMsg$234905[ebp+36], ecx

; 2507 : 
; 2508 : 				RankMsg.iLevel = gObj[this->m_FloorData[i].m_iTeamPlayerIndex].Level;

  070b9	8b 45 ec	 mov	 eax, DWORD PTR _i$[ebp]
  070bc	6b c0 30	 imul	 eax, 48			; 00000030H
  070bf	8b 4d f8	 mov	 ecx, DWORD PTR _this$[ebp]
  070c2	8b 54 01 20	 mov	 edx, DWORD PTR [ecx+eax+32]
  070c6	69 d2 38 2b 00
	00		 imul	 edx, 11064		; 00002b38H
  070cc	a1 00 00 00 00	 mov	 eax, DWORD PTR ?gObj@@3PAUOBJECTSTRUCT@@A ; gObj
  070d1	0f bf 8c 10 be
	00 00 00	 movsx	 ecx, WORD PTR [eax+edx+190]
  070d9	89 4d cc	 mov	 DWORD PTR _RankMsg$234905[ebp+40], ecx

; 2509 : 
; 2510 : 				if(this->m_btWinnerTeam == (BYTE)-1)

  070dc	8b 45 f8	 mov	 eax, DWORD PTR _this$[ebp]
  070df	0f b6 88 d2 03
	00 00		 movzx	 ecx, BYTE PTR [eax+978]
  070e6	81 f9 ff 00 00
	00		 cmp	 ecx, 255		; 000000ffH
  070ec	75 06		 jne	 SHORT $LN2@CalcSendRe

; 2511 : 				{
; 2512 : 					RankMsg.IsWinner = false;

  070ee	c6 45 d0 00	 mov	 BYTE PTR _RankMsg$234905[ebp+44], 0

; 2513 : 				}
; 2514 : 				else

  070f2	eb 22		 jmp	 SHORT $LN1@CalcSendRe
$LN2@CalcSendRe:

; 2515 : 				{
; 2516 : 					RankMsg.IsWinner = (this->m_FloorData[i].m_btTeamJoinSide == this->m_btWinnerTeam);

  070f4	8b 45 ec	 mov	 eax, DWORD PTR _i$[ebp]
  070f7	6b c0 30	 imul	 eax, 48			; 00000030H
  070fa	8b 4d f8	 mov	 ecx, DWORD PTR _this$[ebp]
  070fd	0f b6 54 01 24	 movzx	 edx, BYTE PTR [ecx+eax+36]
  07102	8b 45 f8	 mov	 eax, DWORD PTR _this$[ebp]
  07105	0f b6 88 d2 03
	00 00		 movzx	 ecx, BYTE PTR [eax+978]
  0710c	33 c0		 xor	 eax, eax
  0710e	3b d1		 cmp	 edx, ecx
  07110	0f 94 c0	 sete	 al
  07113	88 45 d0	 mov	 BYTE PTR _RankMsg$234905[ebp+44], al
$LN1@CalcSendRe:

; 2517 : 				}
; 2518 : 
; 2519 : 				RankMsg.RankingPoint = this->m_FloorData[i].m_dwRankingPoint;

  07116	8b 45 ec	 mov	 eax, DWORD PTR _i$[ebp]
  07119	6b c0 30	 imul	 eax, 48			; 00000030H
  0711c	8b 4d f8	 mov	 ecx, DWORD PTR _this$[ebp]
  0711f	8b 54 01 40	 mov	 edx, DWORD PTR [ecx+eax+64]
  07123	89 55 d8	 mov	 DWORD PTR _RankMsg$234905[ebp+52], edx

; 2520 : 			
; 2521 : 				RankMsg.iPcBang = gObj[this->m_FloorData[i].m_iTeamPlayerIndex].m_iPcBangRoom;

  07126	8b 45 ec	 mov	 eax, DWORD PTR _i$[ebp]
  07129	6b c0 30	 imul	 eax, 48			; 00000030H
  0712c	8b 4d f8	 mov	 ecx, DWORD PTR _this$[ebp]
  0712f	8b 54 01 20	 mov	 edx, DWORD PTR [ecx+eax+32]
  07133	69 d2 38 2b 00
	00		 imul	 edx, 11064		; 00002b38H
  07139	a1 00 00 00 00	 mov	 eax, DWORD PTR ?gObj@@3PAUOBJECTSTRUCT@@A ; gObj
  0713e	8b 8c 10 c4 1f
	00 00		 mov	 ecx, DWORD PTR [eax+edx+8132]
  07145	89 4d d4	 mov	 DWORD PTR _RankMsg$234905[ebp+48], ecx

; 2522 : 
; 2523 : 				DataSendEventChip((char*)&RankMsg,sizeof(RankMsg));

  07148	6a 38		 push	 56			; 00000038H
  0714a	8d 45 a4	 lea	 eax, DWORD PTR _RankMsg$234905[ebp]
  0714d	50		 push	 eax
  0714e	e8 00 00 00 00	 call	 ?DataSendEventChip@@YAXPADH@Z ; DataSendEventChip
  07153	83 c4 08	 add	 esp, 8
$LN4@CalcSendRe:

; 2524 : 			}
; 2525 : 		}

  07156	e9 26 fe ff ff	 jmp	 $LN6@CalcSendRe
$LN37@CalcSendRe:

; 2526 : 	}
; 2527 : }

  0715b	5f		 pop	 edi
  0715c	5e		 pop	 esi
  0715d	5b		 pop	 ebx
  0715e	8b 4d fc	 mov	 ecx, DWORD PTR __$ArrayPad$[ebp]
  07161	33 cd		 xor	 ecx, ebp
  07163	e8 00 00 00 00	 call	 @__security_check_cookie@4
  07168	8b e5		 mov	 esp, ebp
  0716a	5d		 pop	 ebp
  0716b	c3		 ret	 0
?CalcSendRewardEXP@CIllusionTempleProcess@@QAEXXZ ENDP	; CIllusionTempleProcess::CalcSendRewardEXP
_TEXT	ENDS
PUBLIC	?DropRewardItem@CIllusionTempleProcess@@QAEXH@Z	; CIllusionTempleProcess::DropRewardItem
EXTRN	?GenExcOpt@@YAHH@Z:PROC				; GenExcOpt
; Function compile flags: /Odtp /ZI
_TEXT	SEGMENT
tv67 = -88						; size = 4
_loc3$ = -20						; size = 4
_Anc1$ = -16						; size = 4
_Exe1$ = -12						; size = 4
_loc2$ = -8						; size = 4
_this$ = -4						; size = 4
_aIndex$ = 8						; size = 4
?DropRewardItem@CIllusionTempleProcess@@QAEXH@Z PROC	; CIllusionTempleProcess::DropRewardItem
; _this$ = ecx

; 2530 : {

  07170	55		 push	 ebp
  07171	8b ec		 mov	 ebp, esp
  07173	83 ec 58	 sub	 esp, 88			; 00000058H
  07176	53		 push	 ebx
  07177	56		 push	 esi
  07178	57		 push	 edi
  07179	89 4d fc	 mov	 DWORD PTR _this$[ebp], ecx

; 2531 : 	if( OBJMAX_RANGE(aIndex) == FALSE )

  0717c	83 7d 08 00	 cmp	 DWORD PTR _aIndex$[ebp], 0
  07180	7d 09		 jge	 SHORT $LN13@DropReward
  07182	c7 45 a8 00 00
	00 00		 mov	 DWORD PTR tv67[ebp], 0
  07189	eb 0f		 jmp	 SHORT $LN14@DropReward
$LN13@DropReward:
  0718b	33 c0		 xor	 eax, eax
  0718d	81 7d 08 97 3a
	00 00		 cmp	 DWORD PTR _aIndex$[ebp], 14999 ; 00003a97H
  07194	0f 9e c0	 setle	 al
  07197	89 45 a8	 mov	 DWORD PTR tv67[ebp], eax
$LN14@DropReward:
  0719a	83 7d a8 00	 cmp	 DWORD PTR tv67[ebp], 0
  0719e	75 05		 jne	 SHORT $LN10@DropReward

; 2532 : 	{
; 2533 : 		return;

  071a0	e9 06 02 00 00	 jmp	 $LN11@DropReward
$LN10@DropReward:

; 2534 : 	}
; 2535 : 
; 2536 : 	if(this->m_FloorData[gObj[aIndex].m_iIllusionTempleIndex].m_iTeamPlayerIndex != gObj[aIndex].m_Index)

  071a5	8b 45 08	 mov	 eax, DWORD PTR _aIndex$[ebp]
  071a8	69 c0 38 2b 00
	00		 imul	 eax, 11064		; 00002b38H
  071ae	8b 0d 00 00 00
	00		 mov	 ecx, DWORD PTR ?gObj@@3PAUOBJECTSTRUCT@@A ; gObj
  071b4	8b 94 01 78 20
	00 00		 mov	 edx, DWORD PTR [ecx+eax+8312]
  071bb	6b d2 30	 imul	 edx, 48			; 00000030H
  071be	8b 45 08	 mov	 eax, DWORD PTR _aIndex$[ebp]
  071c1	69 c0 38 2b 00
	00		 imul	 eax, 11064		; 00002b38H
  071c7	8b 4d fc	 mov	 ecx, DWORD PTR _this$[ebp]
  071ca	8b 35 00 00 00
	00		 mov	 esi, DWORD PTR ?gObj@@3PAUOBJECTSTRUCT@@A ; gObj
  071d0	8b 54 11 20	 mov	 edx, DWORD PTR [ecx+edx+32]
  071d4	3b 14 06	 cmp	 edx, DWORD PTR [esi+eax]
  071d7	74 05		 je	 SHORT $LN9@DropReward

; 2537 : 	{
; 2538 : 		return;

  071d9	e9 cd 01 00 00	 jmp	 $LN11@DropReward
$LN9@DropReward:

; 2539 : 	}
; 2540 : 
; 2541 : 	if(this->GetState() != 3)

  071de	8b 4d fc	 mov	 ecx, DWORD PTR _this$[ebp]
  071e1	e8 00 00 00 00	 call	 ?GetState@CIllusionTempleProcess@@QAEEXZ ; CIllusionTempleProcess::GetState
  071e6	0f b6 c0	 movzx	 eax, al
  071e9	83 f8 03	 cmp	 eax, 3
  071ec	74 05		 je	 SHORT $LN8@DropReward

; 2542 : 	{
; 2543 : 		return;

  071ee	e9 b8 01 00 00	 jmp	 $LN11@DropReward
$LN8@DropReward:

; 2544 : 	}
; 2545 : 
; 2546 : 	if(this->m_FloorData[gObj[aIndex].m_iIllusionTempleIndex].m_btTeamJoinSide == (BYTE)-1)

  071f3	8b 45 08	 mov	 eax, DWORD PTR _aIndex$[ebp]
  071f6	69 c0 38 2b 00
	00		 imul	 eax, 11064		; 00002b38H
  071fc	8b 0d 00 00 00
	00		 mov	 ecx, DWORD PTR ?gObj@@3PAUOBJECTSTRUCT@@A ; gObj
  07202	8b 94 01 78 20
	00 00		 mov	 edx, DWORD PTR [ecx+eax+8312]
  07209	6b d2 30	 imul	 edx, 48			; 00000030H
  0720c	8b 45 fc	 mov	 eax, DWORD PTR _this$[ebp]
  0720f	0f b6 4c 10 24	 movzx	 ecx, BYTE PTR [eax+edx+36]
  07214	81 f9 ff 00 00
	00		 cmp	 ecx, 255		; 000000ffH
  0721a	75 05		 jne	 SHORT $LN7@DropReward

; 2547 : 	{
; 2548 : 		return;

  0721c	e9 8a 01 00 00	 jmp	 $LN11@DropReward
$LN7@DropReward:

; 2549 : 	}
; 2550 : 
; 2551 : 	if(this->m_btWinnerTeam == (BYTE)-1)

  07221	8b 45 fc	 mov	 eax, DWORD PTR _this$[ebp]
  07224	0f b6 88 d2 03
	00 00		 movzx	 ecx, BYTE PTR [eax+978]
  0722b	81 f9 ff 00 00
	00		 cmp	 ecx, 255		; 000000ffH
  07231	75 05		 jne	 SHORT $LN6@DropReward

; 2552 : 	{
; 2553 : 		return;

  07233	e9 73 01 00 00	 jmp	 $LN11@DropReward
$LN6@DropReward:

; 2554 : 	}
; 2555 : 
; 2556 : 	if(this->m_FloorData[gObj[aIndex].m_iIllusionTempleIndex].m_btTeamJoinSide != this->m_btWinnerTeam)

  07238	8b 45 08	 mov	 eax, DWORD PTR _aIndex$[ebp]
  0723b	69 c0 38 2b 00
	00		 imul	 eax, 11064		; 00002b38H
  07241	8b 0d 00 00 00
	00		 mov	 ecx, DWORD PTR ?gObj@@3PAUOBJECTSTRUCT@@A ; gObj
  07247	8b 94 01 78 20
	00 00		 mov	 edx, DWORD PTR [ecx+eax+8312]
  0724e	6b d2 30	 imul	 edx, 48			; 00000030H
  07251	8b 45 fc	 mov	 eax, DWORD PTR _this$[ebp]
  07254	0f b6 4c 10 24	 movzx	 ecx, BYTE PTR [eax+edx+36]
  07259	8b 55 fc	 mov	 edx, DWORD PTR _this$[ebp]
  0725c	0f b6 82 d2 03
	00 00		 movzx	 eax, BYTE PTR [edx+978]
  07263	3b c8		 cmp	 ecx, eax
  07265	74 05		 je	 SHORT $LN5@DropReward

; 2557 : 	{
; 2558 : 		return;

  07267	e9 3f 01 00 00	 jmp	 $LN11@DropReward
$LN5@DropReward:

; 2559 : 	}
; 2560 : 
; 2561 : 	if(this->m_FloorData[gObj[aIndex].m_iIllusionTempleIndex].m_bDropReward == 1)

  0726c	8b 45 08	 mov	 eax, DWORD PTR _aIndex$[ebp]
  0726f	69 c0 38 2b 00
	00		 imul	 eax, 11064		; 00002b38H
  07275	8b 0d 00 00 00
	00		 mov	 ecx, DWORD PTR ?gObj@@3PAUOBJECTSTRUCT@@A ; gObj
  0727b	8b 94 01 78 20
	00 00		 mov	 edx, DWORD PTR [ecx+eax+8312]
  07282	6b d2 30	 imul	 edx, 48			; 00000030H
  07285	8b 45 fc	 mov	 eax, DWORD PTR _this$[ebp]
  07288	83 7c 10 44 01	 cmp	 DWORD PTR [eax+edx+68], 1
  0728d	75 05		 jne	 SHORT $LN4@DropReward

; 2562 : 	{
; 2563 : 		return;

  0728f	e9 17 01 00 00	 jmp	 $LN11@DropReward
$LN4@DropReward:

; 2564 : 	}
; 2565 : 
; 2566 : 	this->m_FloorData[gObj[aIndex].m_iIllusionTempleIndex].m_bDropReward = 1;

  07294	8b 45 08	 mov	 eax, DWORD PTR _aIndex$[ebp]
  07297	69 c0 38 2b 00
	00		 imul	 eax, 11064		; 00002b38H
  0729d	8b 0d 00 00 00
	00		 mov	 ecx, DWORD PTR ?gObj@@3PAUOBJECTSTRUCT@@A ; gObj
  072a3	8b 94 01 78 20
	00 00		 mov	 edx, DWORD PTR [ecx+eax+8312]
  072aa	6b d2 30	 imul	 edx, 48			; 00000030H
  072ad	8b 45 fc	 mov	 eax, DWORD PTR _this$[ebp]
  072b0	c7 44 10 44 01
	00 00 00	 mov	 DWORD PTR [eax+edx+68], 1

; 2567 : 	int loc2 = aIndex;

  072b8	8b 45 08	 mov	 eax, DWORD PTR _aIndex$[ebp]
  072bb	89 45 f8	 mov	 DWORD PTR _loc2$[ebp], eax

; 2568 : 	//Configs
; 2569 : 	//int Ex_ItDropType	= GetPrivateProfileInt("IllusionTemple","ItDropType",12,"..\\Data\\ExData\\Events.ini");
; 2570 : 	//int Ex_ItDropID		= GetPrivateProfileInt("IllusionTemple","ItDropID",15,"..\\Data\\ExData\\Events.ini");
; 2571 : 	//int Ex_ItDropLevel	= GetPrivateProfileInt("IllusionTemple","ItDropLevel",0,"..\\Data\\ExData\\Events.ini");
; 2572 : 	//int Ex_ItDropSkill	= GetPrivateProfileInt("IllusionTemple","ItDropSkill",0,"..\\Data\\ExData\\Events.ini");
; 2573 : 	//int Ex_ItDropLuck	= GetPrivateProfileInt("IllusionTemple","ItDropLuck",0,"..\\Data\\ExData\\Events.ini");
; 2574 : 	//int Ex_ItDropOpt	= GetPrivateProfileInt("IllusionTemple","ItDropOpt",0,"..\\Data\\ExData\\Events.ini");
; 2575 : 	//int Ex_ItDropExcOpt	= GetPrivateProfileInt("IllusionTemple","ItDropExcOpt",0,"..\\Data\\ExData\\Events.ini");
; 2576 : 	//int Ex_ItDropAncOpt	= GetPrivateProfileInt("IllusionTemple","ItDropAncOpt",0,"..\\Data\\ExData\\Events.ini");
; 2577 : 
; 2578 : 	int Exe1 = 0;

  072be	c7 45 f4 00 00
	00 00		 mov	 DWORD PTR _Exe1$[ebp], 0

; 2579 : 	int Anc1 = 0;

  072c5	c7 45 f0 00 00
	00 00		 mov	 DWORD PTR _Anc1$[ebp], 0

; 2580 : 
; 2581 : 	if ( ExConfig.Event.Ex_ItDropExcOpt > 0 )

  072cc	83 3d c0 06 00
	00 00		 cmp	 DWORD PTR ?ExConfig@@3VcExConfigs@@A+1728, 0
  072d3	7e 11		 jle	 SHORT $LN3@DropReward

; 2582 : 		Exe1 = GenExcOpt(ExConfig.Event.Ex_ItDropExcOpt);

  072d5	a1 c0 06 00 00	 mov	 eax, DWORD PTR ?ExConfig@@3VcExConfigs@@A+1728
  072da	50		 push	 eax
  072db	e8 00 00 00 00	 call	 ?GenExcOpt@@YAHH@Z	; GenExcOpt
  072e0	83 c4 04	 add	 esp, 4
  072e3	89 45 f4	 mov	 DWORD PTR _Exe1$[ebp], eax
$LN3@DropReward:

; 2583 : 
; 2584 : 	if ( ExConfig.Event.Ex_ItDropAncOpt == 5 || ExConfig.Event.Ex_ItDropAncOpt == 10 )

  072e6	83 3d c4 06 00
	00 05		 cmp	 DWORD PTR ?ExConfig@@3VcExConfigs@@A+1732, 5
  072ed	74 09		 je	 SHORT $LN1@DropReward
  072ef	83 3d c4 06 00
	00 0a		 cmp	 DWORD PTR ?ExConfig@@3VcExConfigs@@A+1732, 10 ; 0000000aH
  072f6	75 08		 jne	 SHORT $LN2@DropReward
$LN1@DropReward:

; 2585 : 		Anc1 = ExConfig.Event.Ex_ItDropAncOpt;

  072f8	a1 c4 06 00 00	 mov	 eax, DWORD PTR ?ExConfig@@3VcExConfigs@@A+1732
  072fd	89 45 f0	 mov	 DWORD PTR _Anc1$[ebp], eax
$LN2@DropReward:

; 2586 : 
; 2587 : 	int loc3 = ItemGetNumberMake(ExConfig.Event.Ex_ItDropType, ExConfig.Event.Ex_ItDropID);	// Jewel of Chaos

  07300	a1 ac 06 00 00	 mov	 eax, DWORD PTR ?ExConfig@@3VcExConfigs@@A+1708
  07305	50		 push	 eax
  07306	8b 0d a8 06 00
	00		 mov	 ecx, DWORD PTR ?ExConfig@@3VcExConfigs@@A+1704
  0730c	51		 push	 ecx
  0730d	e8 00 00 00 00	 call	 ?ItemGetNumberMake@@YAHHH@Z ; ItemGetNumberMake
  07312	83 c4 08	 add	 esp, 8
  07315	89 45 ec	 mov	 DWORD PTR _loc3$[ebp], eax

; 2588 : 	ItemSerialCreateSend(gObj[aIndex].m_Index, (BYTE)gObj[aIndex].MapNumber, (BYTE)gObj[aIndex].X, gObj[aIndex].Y,loc3,
; 2589 : 		(BYTE)ExConfig.Event.Ex_ItDropLevel, 0, (BYTE)ExConfig.Event.Ex_ItDropSkill, (BYTE)ExConfig.Event.Ex_ItDropLuck, 
; 2590 : 		(BYTE)ExConfig.Event.Ex_ItDropOpt, loc2, (BYTE)Exe1, (BYTE)Anc1);

  07318	0f b6 45 f0	 movzx	 eax, BYTE PTR _Anc1$[ebp]
  0731c	50		 push	 eax
  0731d	0f b6 4d f4	 movzx	 ecx, BYTE PTR _Exe1$[ebp]
  07321	51		 push	 ecx
  07322	8b 55 f8	 mov	 edx, DWORD PTR _loc2$[ebp]
  07325	52		 push	 edx
  07326	0f b6 05 bc 06
	00 00		 movzx	 eax, BYTE PTR ?ExConfig@@3VcExConfigs@@A+1724
  0732d	50		 push	 eax
  0732e	0f b6 0d b8 06
	00 00		 movzx	 ecx, BYTE PTR ?ExConfig@@3VcExConfigs@@A+1720
  07335	51		 push	 ecx
  07336	0f b6 15 b4 06
	00 00		 movzx	 edx, BYTE PTR ?ExConfig@@3VcExConfigs@@A+1716
  0733d	52		 push	 edx
  0733e	6a 00		 push	 0
  07340	0f b6 05 b0 06
	00 00		 movzx	 eax, BYTE PTR ?ExConfig@@3VcExConfigs@@A+1712
  07347	50		 push	 eax
  07348	8b 4d ec	 mov	 ecx, DWORD PTR _loc3$[ebp]
  0734b	51		 push	 ecx
  0734c	8b 55 08	 mov	 edx, DWORD PTR _aIndex$[ebp]
  0734f	69 d2 38 2b 00
	00		 imul	 edx, 11064		; 00002b38H
  07355	a1 00 00 00 00	 mov	 eax, DWORD PTR ?gObj@@3PAUOBJECTSTRUCT@@A ; gObj
  0735a	0f b6 8c 10 46
	01 00 00	 movzx	 ecx, BYTE PTR [eax+edx+326]
  07362	51		 push	 ecx
  07363	8b 55 08	 mov	 edx, DWORD PTR _aIndex$[ebp]
  07366	69 d2 38 2b 00
	00		 imul	 edx, 11064		; 00002b38H
  0736c	a1 00 00 00 00	 mov	 eax, DWORD PTR ?gObj@@3PAUOBJECTSTRUCT@@A ; gObj
  07371	0f b6 8c 10 44
	01 00 00	 movzx	 ecx, BYTE PTR [eax+edx+324]
  07379	51		 push	 ecx
  0737a	8b 55 08	 mov	 edx, DWORD PTR _aIndex$[ebp]
  0737d	69 d2 38 2b 00
	00		 imul	 edx, 11064		; 00002b38H
  07383	a1 00 00 00 00	 mov	 eax, DWORD PTR ?gObj@@3PAUOBJECTSTRUCT@@A ; gObj
  07388	0f b6 8c 10 49
	01 00 00	 movzx	 ecx, BYTE PTR [eax+edx+329]
  07390	51		 push	 ecx
  07391	8b 55 08	 mov	 edx, DWORD PTR _aIndex$[ebp]
  07394	69 d2 38 2b 00
	00		 imul	 edx, 11064		; 00002b38H
  0739a	a1 00 00 00 00	 mov	 eax, DWORD PTR ?gObj@@3PAUOBJECTSTRUCT@@A ; gObj
  0739f	8b 0c 10	 mov	 ecx, DWORD PTR [eax+edx]
  073a2	51		 push	 ecx
  073a3	e8 00 00 00 00	 call	 ?ItemSerialCreateSend@@YAXHEEEHEEEEEHEE@Z ; ItemSerialCreateSend
  073a8	83 c4 34	 add	 esp, 52			; 00000034H
$LN11@DropReward:

; 2591 : }

  073ab	5f		 pop	 edi
  073ac	5e		 pop	 esi
  073ad	5b		 pop	 ebx
  073ae	8b e5		 mov	 esp, ebp
  073b0	5d		 pop	 ebp
  073b1	c2 04 00	 ret	 4
?DropRewardItem@CIllusionTempleProcess@@QAEXH@Z ENDP	; CIllusionTempleProcess::DropRewardItem
_TEXT	ENDS
PUBLIC	?__LINE__Var@?1??CheckEnterItemPosition@CIllusionTempleProcess@@QAEHHM@Z@4JA ; `CIllusionTempleProcess::CheckEnterItemPosition'::`2'::__LINE__Var
PUBLIC	?CheckEnterItemPosition@CIllusionTempleProcess@@QAEHHM@Z ; CIllusionTempleProcess::CheckEnterItemPosition
;	COMDAT ?__LINE__Var@?1??CheckEnterItemPosition@CIllusionTempleProcess@@QAEHHM@Z@4JA
_DATA	SEGMENT
?__LINE__Var@?1??CheckEnterItemPosition@CIllusionTempleProcess@@QAEHHM@Z@4JA DD 0a22H ; `CIllusionTempleProcess::CheckEnterItemPosition'::`2'::__LINE__Var
; Function compile flags: /Odtp /ZI
_DATA	ENDS
_TEXT	SEGMENT
tv67 = -80						; size = 4
_i$234946 = -12						; size = 4
_loc2$ = -8						; size = 4
_this$ = -4						; size = 4
_aIndex$ = 8						; size = 4
_Durability$ = 12					; size = 4
?CheckEnterItemPosition@CIllusionTempleProcess@@QAEHHM@Z PROC ; CIllusionTempleProcess::CheckEnterItemPosition
; _this$ = ecx

; 2594 : {

  073c0	55		 push	 ebp
  073c1	8b ec		 mov	 ebp, esp
  073c3	83 ec 50	 sub	 esp, 80			; 00000050H
  073c6	53		 push	 ebx
  073c7	56		 push	 esi
  073c8	57		 push	 edi
  073c9	89 4d fc	 mov	 DWORD PTR _this$[ebp], ecx

; 2595 : 	if(OBJMAX_RANGE(aIndex) == FALSE)

  073cc	83 7d 08 00	 cmp	 DWORD PTR _aIndex$[ebp], 0
  073d0	7d 09		 jge	 SHORT $LN13@CheckEnter
  073d2	c7 45 b0 00 00
	00 00		 mov	 DWORD PTR tv67[ebp], 0
  073d9	eb 0f		 jmp	 SHORT $LN14@CheckEnter
$LN13@CheckEnter:
  073db	33 c0		 xor	 eax, eax
  073dd	81 7d 08 97 3a
	00 00		 cmp	 DWORD PTR _aIndex$[ebp], 14999 ; 00003a97H
  073e4	0f 9e c0	 setle	 al
  073e7	89 45 b0	 mov	 DWORD PTR tv67[ebp], eax
$LN14@CheckEnter:
  073ea	83 7d b0 00	 cmp	 DWORD PTR tv67[ebp], 0
  073ee	75 24		 jne	 SHORT $LN10@CheckEnter

; 2596 : 	{
; 2597 : 		LogAdd("return %s %d", __FILE__, __LINE__);

  073f0	a1 00 00 00 00	 mov	 eax, DWORD PTR ?__LINE__Var@?1??CheckEnterItemPosition@CIllusionTempleProcess@@QAEHHM@Z@4JA
  073f5	83 c0 03	 add	 eax, 3
  073f8	50		 push	 eax
  073f9	68 00 00 00 00	 push	 OFFSET ??_C@_0EN@FIHDICBF@d?3?2projects?2exteam6?43?2source?2gam@
  073fe	68 00 00 00 00	 push	 OFFSET ??_C@_0N@GGPGOPEN@return?5?$CFs?5?$CFd?$AA@
  07403	ff 15 00 00 00
	00		 call	 DWORD PTR ?LogAdd@@3P6AXPADZZA ; LogAdd
  07409	83 c4 0c	 add	 esp, 12			; 0000000cH

; 2598 : 		return -1;

  0740c	83 c8 ff	 or	 eax, -1
  0740f	e9 5d 01 00 00	 jmp	 $LN11@CheckEnter
$LN10@CheckEnter:

; 2599 : 	}
; 2600 : 
; 2601 : 	int loc2 = -1;

  07414	c7 45 f8 ff ff
	ff ff		 mov	 DWORD PTR _loc2$[ebp], -1

; 2602 : 
; 2603 : 	for( int i = 0; i<INVENTORY_SIZE; i++ )

  0741b	c7 45 f4 00 00
	00 00		 mov	 DWORD PTR _i$234946[ebp], 0
  07422	eb 09		 jmp	 SHORT $LN9@CheckEnter
$LN8@CheckEnter:
  07424	8b 45 f4	 mov	 eax, DWORD PTR _i$234946[ebp]
  07427	83 c0 01	 add	 eax, 1
  0742a	89 45 f4	 mov	 DWORD PTR _i$234946[ebp], eax
$LN9@CheckEnter:
  0742d	81 7d f4 ec 00
	00 00		 cmp	 DWORD PTR _i$234946[ebp], 236 ; 000000ecH
  07434	0f 8d 29 01 00
	00		 jge	 $LN7@CheckEnter

; 2604 : 	{
; 2605 : 		if( gObj[aIndex].pInventory[i].IsItem() == TRUE )

  0743a	8b 45 08	 mov	 eax, DWORD PTR _aIndex$[ebp]
  0743d	69 c0 38 2b 00
	00		 imul	 eax, 11064		; 00002b38H
  07443	8b 4d f4	 mov	 ecx, DWORD PTR _i$234946[ebp]
  07446	69 c9 d4 00 00
	00		 imul	 ecx, 212		; 000000d4H
  0744c	8b 15 00 00 00
	00		 mov	 edx, DWORD PTR ?gObj@@3PAUOBJECTSTRUCT@@A ; gObj
  07452	03 8c 02 24 0e
	00 00		 add	 ecx, DWORD PTR [edx+eax+3620]
  07459	e8 00 00 00 00	 call	 ?IsItem@CItem@@QAEHXZ	; CItem::IsItem
  0745e	83 f8 01	 cmp	 eax, 1
  07461	0f 85 f7 00 00
	00		 jne	 $LN2@CheckEnter

; 2606 : 		{
; 2607 : 			if(gObj[aIndex].pInventory[i].m_Type == ITEMGET(13,51) && gObj[aIndex].pInventory[i].m_Level == this->m_btFloorIndex+1) //Blood Scroll

  07467	8b 45 08	 mov	 eax, DWORD PTR _aIndex$[ebp]
  0746a	69 c0 38 2b 00
	00		 imul	 eax, 11064		; 00002b38H
  07470	8b 4d f4	 mov	 ecx, DWORD PTR _i$234946[ebp]
  07473	69 c9 d4 00 00
	00		 imul	 ecx, 212		; 000000d4H
  07479	8b 15 00 00 00
	00		 mov	 edx, DWORD PTR ?gObj@@3PAUOBJECTSTRUCT@@A ; gObj
  0747f	8b 84 02 24 0e
	00 00		 mov	 eax, DWORD PTR [edx+eax+3620]
  07486	0f bf 4c 08 06	 movsx	 ecx, WORD PTR [eax+ecx+6]
  0748b	81 f9 33 1a 00
	00		 cmp	 ecx, 6707		; 00001a33H
  07491	75 69		 jne	 SHORT $LN4@CheckEnter
  07493	8b 45 08	 mov	 eax, DWORD PTR _aIndex$[ebp]
  07496	69 c0 38 2b 00
	00		 imul	 eax, 11064		; 00002b38H
  0749c	8b 4d f4	 mov	 ecx, DWORD PTR _i$234946[ebp]
  0749f	69 c9 d4 00 00
	00		 imul	 ecx, 212		; 000000d4H
  074a5	8b 15 00 00 00
	00		 mov	 edx, DWORD PTR ?gObj@@3PAUOBJECTSTRUCT@@A ; gObj
  074ab	8b 84 02 24 0e
	00 00		 mov	 eax, DWORD PTR [edx+eax+3620]
  074b2	0f bf 4c 08 08	 movsx	 ecx, WORD PTR [eax+ecx+8]
  074b7	8b 55 fc	 mov	 edx, DWORD PTR _this$[ebp]
  074ba	0f b6 82 2c 02
	00 00		 movzx	 eax, BYTE PTR [edx+556]
  074c1	83 c0 01	 add	 eax, 1
  074c4	3b c8		 cmp	 ecx, eax
  074c6	75 34		 jne	 SHORT $LN4@CheckEnter

; 2608 : 			{
; 2609 : 				if(gObj[aIndex].pInventory[i].m_Durability == Durability)

  074c8	8b 45 08	 mov	 eax, DWORD PTR _aIndex$[ebp]
  074cb	69 c0 38 2b 00
	00		 imul	 eax, 11064		; 00002b38H
  074d1	8b 4d f4	 mov	 ecx, DWORD PTR _i$234946[ebp]
  074d4	69 c9 d4 00 00
	00		 imul	 ecx, 212		; 000000d4H
  074da	8b 15 00 00 00
	00		 mov	 edx, DWORD PTR ?gObj@@3PAUOBJECTSTRUCT@@A ; gObj
  074e0	8b 84 02 24 0e
	00 00		 mov	 eax, DWORD PTR [edx+eax+3620]
  074e7	d9 44 08 24	 fld	 DWORD PTR [eax+ecx+36]
  074eb	d9 45 0c	 fld	 DWORD PTR _Durability$[ebp]
  074ee	da e9		 fucompp
  074f0	df e0		 fnstsw	 ax
  074f2	f6 c4 44	 test	 ah, 68			; 00000044H
  074f5	7a 05		 jp	 SHORT $LN4@CheckEnter

; 2610 : 				{
; 2611 : 					return i;

  074f7	8b 45 f4	 mov	 eax, DWORD PTR _i$234946[ebp]
  074fa	eb 75		 jmp	 SHORT $LN11@CheckEnter
$LN4@CheckEnter:

; 2612 : 				}
; 2613 : 			}
; 2614 : 			if(gObj[aIndex].pInventory[i].m_Type == ITEMGET(13,61)) //Illusion Temple Ticket (CashShop)

  074fc	8b 45 08	 mov	 eax, DWORD PTR _aIndex$[ebp]
  074ff	69 c0 38 2b 00
	00		 imul	 eax, 11064		; 00002b38H
  07505	8b 4d f4	 mov	 ecx, DWORD PTR _i$234946[ebp]
  07508	69 c9 d4 00 00
	00		 imul	 ecx, 212		; 000000d4H
  0750e	8b 15 00 00 00
	00		 mov	 edx, DWORD PTR ?gObj@@3PAUOBJECTSTRUCT@@A ; gObj
  07514	8b 84 02 24 0e
	00 00		 mov	 eax, DWORD PTR [edx+eax+3620]
  0751b	0f bf 4c 08 06	 movsx	 ecx, WORD PTR [eax+ecx+6]
  07520	81 f9 3d 1a 00
	00		 cmp	 ecx, 6717		; 00001a3dH
  07526	75 36		 jne	 SHORT $LN2@CheckEnter

; 2615 : 			{
; 2616 : 				if(gObj[aIndex].pInventory[i].m_Durability > 0.0f)

  07528	8b 45 08	 mov	 eax, DWORD PTR _aIndex$[ebp]
  0752b	69 c0 38 2b 00
	00		 imul	 eax, 11064		; 00002b38H
  07531	8b 4d f4	 mov	 ecx, DWORD PTR _i$234946[ebp]
  07534	69 c9 d4 00 00
	00		 imul	 ecx, 212		; 000000d4H
  0753a	8b 15 00 00 00
	00		 mov	 edx, DWORD PTR ?gObj@@3PAUOBJECTSTRUCT@@A ; gObj
  07540	8b 84 02 24 0e
	00 00		 mov	 eax, DWORD PTR [edx+eax+3620]
  07547	d9 44 08 24	 fld	 DWORD PTR [eax+ecx+36]
  0754b	dc 1d 00 00 00
	00		 fcomp	 QWORD PTR __real@0000000000000000
  07551	df e0		 fnstsw	 ax
  07553	f6 c4 41	 test	 ah, 65			; 00000041H
  07556	75 06		 jne	 SHORT $LN2@CheckEnter

; 2617 : 				{
; 2618 : 					loc2 = i;

  07558	8b 45 f4	 mov	 eax, DWORD PTR _i$234946[ebp]
  0755b	89 45 f8	 mov	 DWORD PTR _loc2$[ebp], eax
$LN2@CheckEnter:

; 2619 : 				}
; 2620 : 			}
; 2621 : 		}
; 2622 : 	}

  0755e	e9 c1 fe ff ff	 jmp	 $LN8@CheckEnter
$LN7@CheckEnter:

; 2623 : 
; 2624 : 	if(loc2 >= 0)

  07563	83 7d f8 00	 cmp	 DWORD PTR _loc2$[ebp], 0
  07567	7c 05		 jl	 SHORT $LN1@CheckEnter

; 2625 : 	{
; 2626 : 		return loc2;

  07569	8b 45 f8	 mov	 eax, DWORD PTR _loc2$[ebp]
  0756c	eb 03		 jmp	 SHORT $LN11@CheckEnter
$LN1@CheckEnter:

; 2627 : 	}
; 2628 : 
; 2629 : 	return -1;

  0756e	83 c8 ff	 or	 eax, -1
$LN11@CheckEnter:

; 2630 : }

  07571	5f		 pop	 edi
  07572	5e		 pop	 esi
  07573	5b		 pop	 ebx
  07574	8b e5		 mov	 esp, ebp
  07576	5d		 pop	 ebp
  07577	c2 08 00	 ret	 8
?CheckEnterItemPosition@CIllusionTempleProcess@@QAEHHM@Z ENDP ; CIllusionTempleProcess::CheckEnterItemPosition
_TEXT	ENDS
PUBLIC	?__LINE__Var@?1??CheckEnterItemPosition@CIllusionTempleProcess@@QAEHH@Z@4JA ; `CIllusionTempleProcess::CheckEnterItemPosition'::`2'::__LINE__Var
PUBLIC	?CheckEnterItemPosition@CIllusionTempleProcess@@QAEHH@Z ; CIllusionTempleProcess::CheckEnterItemPosition
;	COMDAT ?__LINE__Var@?1??CheckEnterItemPosition@CIllusionTempleProcess@@QAEHH@Z@4JA
_DATA	SEGMENT
?__LINE__Var@?1??CheckEnterItemPosition@CIllusionTempleProcess@@QAEHH@Z@4JA DD 0a49H ; `CIllusionTempleProcess::CheckEnterItemPosition'::`2'::__LINE__Var
; Function compile flags: /Odtp /ZI
_DATA	ENDS
_TEXT	SEGMENT
tv67 = -84						; size = 4
_lpItem$234967 = -16					; size = 4
_i$234963 = -12						; size = 4
_loc2$ = -8						; size = 4
_this$ = -4						; size = 4
_aIndex$ = 8						; size = 4
?CheckEnterItemPosition@CIllusionTempleProcess@@QAEHH@Z PROC ; CIllusionTempleProcess::CheckEnterItemPosition
; _this$ = ecx

; 2633 : {

  07580	55		 push	 ebp
  07581	8b ec		 mov	 ebp, esp
  07583	83 ec 54	 sub	 esp, 84			; 00000054H
  07586	53		 push	 ebx
  07587	56		 push	 esi
  07588	57		 push	 edi
  07589	89 4d fc	 mov	 DWORD PTR _this$[ebp], ecx

; 2634 : 	if(OBJMAX_RANGE(aIndex) == FALSE)

  0758c	83 7d 08 00	 cmp	 DWORD PTR _aIndex$[ebp], 0
  07590	7d 09		 jge	 SHORT $LN13@CheckEnter@2
  07592	c7 45 ac 00 00
	00 00		 mov	 DWORD PTR tv67[ebp], 0
  07599	eb 0f		 jmp	 SHORT $LN14@CheckEnter@2
$LN13@CheckEnter@2:
  0759b	33 c0		 xor	 eax, eax
  0759d	81 7d 08 97 3a
	00 00		 cmp	 DWORD PTR _aIndex$[ebp], 14999 ; 00003a97H
  075a4	0f 9e c0	 setle	 al
  075a7	89 45 ac	 mov	 DWORD PTR tv67[ebp], eax
$LN14@CheckEnter@2:
  075aa	83 7d ac 00	 cmp	 DWORD PTR tv67[ebp], 0
  075ae	75 24		 jne	 SHORT $LN10@CheckEnter@2

; 2635 : 	{
; 2636 : 		LogAdd("return %s %d", __FILE__, __LINE__);

  075b0	a1 00 00 00 00	 mov	 eax, DWORD PTR ?__LINE__Var@?1??CheckEnterItemPosition@CIllusionTempleProcess@@QAEHH@Z@4JA
  075b5	83 c0 03	 add	 eax, 3
  075b8	50		 push	 eax
  075b9	68 00 00 00 00	 push	 OFFSET ??_C@_0EN@FIHDICBF@d?3?2projects?2exteam6?43?2source?2gam@
  075be	68 00 00 00 00	 push	 OFFSET ??_C@_0N@GGPGOPEN@return?5?$CFs?5?$CFd?$AA@
  075c3	ff 15 00 00 00
	00		 call	 DWORD PTR ?LogAdd@@3P6AXPADZZA ; LogAdd
  075c9	83 c4 0c	 add	 esp, 12			; 0000000cH

; 2637 : 		return -1;

  075cc	83 c8 ff	 or	 eax, -1
  075cf	e9 29 01 00 00	 jmp	 $LN11@CheckEnter@2
$LN10@CheckEnter@2:

; 2638 : 	}
; 2639 : 
; 2640 : 	int loc2 = -1;

  075d4	c7 45 f8 ff ff
	ff ff		 mov	 DWORD PTR _loc2$[ebp], -1

; 2641 : 
; 2642 : 	for( int i = 0; i<INVENTORY_SIZE; i++ )

  075db	c7 45 f4 00 00
	00 00		 mov	 DWORD PTR _i$234963[ebp], 0
  075e2	eb 09		 jmp	 SHORT $LN9@CheckEnter@2
$LN8@CheckEnter@2:
  075e4	8b 45 f4	 mov	 eax, DWORD PTR _i$234963[ebp]
  075e7	83 c0 01	 add	 eax, 1
  075ea	89 45 f4	 mov	 DWORD PTR _i$234963[ebp], eax
$LN9@CheckEnter@2:
  075ed	81 7d f4 ec 00
	00 00		 cmp	 DWORD PTR _i$234963[ebp], 236 ; 000000ecH
  075f4	0f 8d 00 01 00
	00		 jge	 $LN7@CheckEnter@2

; 2643 : 	{
; 2644 : 		CItem * lpItem = &gObj[aIndex].pInventory[i];

  075fa	8b 45 08	 mov	 eax, DWORD PTR _aIndex$[ebp]
  075fd	69 c0 38 2b 00
	00		 imul	 eax, 11064		; 00002b38H
  07603	8b 4d f4	 mov	 ecx, DWORD PTR _i$234963[ebp]
  07606	69 c9 d4 00 00
	00		 imul	 ecx, 212		; 000000d4H
  0760c	8b 15 00 00 00
	00		 mov	 edx, DWORD PTR ?gObj@@3PAUOBJECTSTRUCT@@A ; gObj
  07612	03 8c 02 24 0e
	00 00		 add	 ecx, DWORD PTR [edx+eax+3620]
  07619	89 4d f0	 mov	 DWORD PTR _lpItem$234967[ebp], ecx

; 2645 : 
; 2646 : 		if( lpItem->IsItem() == TRUE )

  0761c	8b 4d f0	 mov	 ecx, DWORD PTR _lpItem$234967[ebp]
  0761f	e8 00 00 00 00	 call	 ?IsItem@CItem@@QAEHXZ	; CItem::IsItem
  07624	83 f8 01	 cmp	 eax, 1
  07627	0f 85 c8 00 00
	00		 jne	 $LN2@CheckEnter@2

; 2647 : 		{
; 2648 : 			if(lpItem->m_Type == ITEMGET(13,51) && lpItem->m_Level == this->m_btFloorIndex+1) //Blood Scroll

  0762d	8b 45 f0	 mov	 eax, DWORD PTR _lpItem$234967[ebp]
  07630	0f bf 48 06	 movsx	 ecx, WORD PTR [eax+6]
  07634	81 f9 33 1a 00
	00		 cmp	 ecx, 6707		; 00001a33H
  0763a	75 59		 jne	 SHORT $LN5@CheckEnter@2
  0763c	8b 45 f0	 mov	 eax, DWORD PTR _lpItem$234967[ebp]
  0763f	0f bf 48 08	 movsx	 ecx, WORD PTR [eax+8]
  07643	8b 55 fc	 mov	 edx, DWORD PTR _this$[ebp]
  07646	0f b6 82 2c 02
	00 00		 movzx	 eax, BYTE PTR [edx+556]
  0764d	83 c0 01	 add	 eax, 1
  07650	3b c8		 cmp	 ecx, eax
  07652	75 41		 jne	 SHORT $LN5@CheckEnter@2

; 2649 : 			{
; 2650 : 				if(lpItem->m_Durability > 0.0f)

  07654	8b 45 f0	 mov	 eax, DWORD PTR _lpItem$234967[ebp]
  07657	d9 40 24	 fld	 DWORD PTR [eax+36]
  0765a	dc 1d 00 00 00
	00		 fcomp	 QWORD PTR __real@0000000000000000
  07660	df e0		 fnstsw	 ax
  07662	f6 c4 41	 test	 ah, 65			; 00000041H
  07665	75 0b		 jne	 SHORT $LN4@CheckEnter@2

; 2651 : 				{
; 2652 : 					loc2 = i;

  07667	8b 45 f4	 mov	 eax, DWORD PTR _i$234963[ebp]
  0766a	89 45 f8	 mov	 DWORD PTR _loc2$[ebp], eax

; 2653 : 					break;

  0766d	e9 88 00 00 00	 jmp	 $LN7@CheckEnter@2
$LN4@CheckEnter@2:

; 2654 : 				}
; 2655 : 
; 2656 : 				gObjInventoryDeleteItem(aIndex, i);

  07672	8b 45 f4	 mov	 eax, DWORD PTR _i$234963[ebp]
  07675	50		 push	 eax
  07676	8b 4d 08	 mov	 ecx, DWORD PTR _aIndex$[ebp]
  07679	51		 push	 ecx
  0767a	e8 00 00 00 00	 call	 ?gObjInventoryDeleteItem@@YAEHH@Z ; gObjInventoryDeleteItem
  0767f	83 c4 08	 add	 esp, 8

; 2657 : 				GCInventoryItemDeleteSend(aIndex, i, 0);

  07682	6a 00		 push	 0
  07684	0f b6 45 f4	 movzx	 eax, BYTE PTR _i$234963[ebp]
  07688	50		 push	 eax
  07689	8b 4d 08	 mov	 ecx, DWORD PTR _aIndex$[ebp]
  0768c	51		 push	 ecx
  0768d	e8 00 00 00 00	 call	 ?GCInventoryItemDeleteSend@@YAXHEE@Z ; GCInventoryItemDeleteSend
  07692	83 c4 0c	 add	 esp, 12			; 0000000cH
$LN5@CheckEnter@2:

; 2658 : 			}
; 2659 : 			if(lpItem->m_Type == ITEMGET(13,61)) //Illusion Temple Ticket (CashShop)

  07695	8b 45 f0	 mov	 eax, DWORD PTR _lpItem$234967[ebp]
  07698	0f bf 48 06	 movsx	 ecx, WORD PTR [eax+6]
  0769c	81 f9 3d 1a 00
	00		 cmp	 ecx, 6717		; 00001a3dH
  076a2	75 51		 jne	 SHORT $LN2@CheckEnter@2

; 2660 : 			{
; 2661 : 				if(lpItem->m_Durability > 0.0f)

  076a4	8b 45 f0	 mov	 eax, DWORD PTR _lpItem$234967[ebp]
  076a7	d9 40 24	 fld	 DWORD PTR [eax+36]
  076aa	dc 1d 00 00 00
	00		 fcomp	 QWORD PTR __real@0000000000000000
  076b0	df e0		 fnstsw	 ax
  076b2	f6 c4 41	 test	 ah, 65			; 00000041H
  076b5	75 3e		 jne	 SHORT $LN2@CheckEnter@2

; 2662 : 				{
; 2663 : 					if(lpItem->m_Durability > 0.0f)

  076b7	8b 45 f0	 mov	 eax, DWORD PTR _lpItem$234967[ebp]
  076ba	d9 40 24	 fld	 DWORD PTR [eax+36]
  076bd	dc 1d 00 00 00
	00		 fcomp	 QWORD PTR __real@0000000000000000
  076c3	df e0		 fnstsw	 ax
  076c5	f6 c4 41	 test	 ah, 65			; 00000041H
  076c8	75 08		 jne	 SHORT $LN1@CheckEnter@2

; 2664 : 					{
; 2665 : 						loc2 = i;

  076ca	8b 45 f4	 mov	 eax, DWORD PTR _i$234963[ebp]
  076cd	89 45 f8	 mov	 DWORD PTR _loc2$[ebp], eax

; 2666 : 						break;

  076d0	eb 28		 jmp	 SHORT $LN7@CheckEnter@2
$LN1@CheckEnter@2:

; 2667 : 					}
; 2668 : 
; 2669 : 					gObjInventoryDeleteItem(aIndex, i);

  076d2	8b 45 f4	 mov	 eax, DWORD PTR _i$234963[ebp]
  076d5	50		 push	 eax
  076d6	8b 4d 08	 mov	 ecx, DWORD PTR _aIndex$[ebp]
  076d9	51		 push	 ecx
  076da	e8 00 00 00 00	 call	 ?gObjInventoryDeleteItem@@YAEHH@Z ; gObjInventoryDeleteItem
  076df	83 c4 08	 add	 esp, 8

; 2670 : 					GCInventoryItemDeleteSend(aIndex, i, 0);

  076e2	6a 00		 push	 0
  076e4	0f b6 45 f4	 movzx	 eax, BYTE PTR _i$234963[ebp]
  076e8	50		 push	 eax
  076e9	8b 4d 08	 mov	 ecx, DWORD PTR _aIndex$[ebp]
  076ec	51		 push	 ecx
  076ed	e8 00 00 00 00	 call	 ?GCInventoryItemDeleteSend@@YAXHEE@Z ; GCInventoryItemDeleteSend
  076f2	83 c4 0c	 add	 esp, 12			; 0000000cH
$LN2@CheckEnter@2:

; 2671 : 				}
; 2672 : 			}
; 2673 : 		}
; 2674 : 	}

  076f5	e9 ea fe ff ff	 jmp	 $LN8@CheckEnter@2
$LN7@CheckEnter@2:

; 2675 : 
; 2676 : 	return loc2;

  076fa	8b 45 f8	 mov	 eax, DWORD PTR _loc2$[ebp]
$LN11@CheckEnter@2:

; 2677 : }

  076fd	5f		 pop	 edi
  076fe	5e		 pop	 esi
  076ff	5b		 pop	 ebx
  07700	8b e5		 mov	 esp, ebp
  07702	5d		 pop	 ebp
  07703	c2 04 00	 ret	 4
?CheckEnterItemPosition@CIllusionTempleProcess@@QAEHH@Z ENDP ; CIllusionTempleProcess::CheckEnterItemPosition
_TEXT	ENDS
PUBLIC	?DropMonsterItem@CIllusionTempleProcess@@QAEXPAUOBJECTSTRUCT@@@Z ; CIllusionTempleProcess::DropMonsterItem
EXTRN	?IllusionTemple3ItemBag@@3PAVCProbabilityItemBag@@A:DWORD ; IllusionTemple3ItemBag
EXTRN	?IllusionTemple2ItemBag@@3PAVCProbabilityItemBag@@A:DWORD ; IllusionTemple2ItemBag
EXTRN	?DropIllusionTempleEventReward@CProbabilityItemBag@@QAEHHEEE@Z:PROC ; CProbabilityItemBag::DropIllusionTempleEventReward
EXTRN	?IllusionTemple1ItemBag@@3PAVCProbabilityItemBag@@A:DWORD ; IllusionTemple1ItemBag
; Function compile flags: /Odtp /ZI
_TEXT	SEGMENT
tv72 = -72						; size = 4
_this$ = -4						; size = 4
_lpObj$ = 8						; size = 4
?DropMonsterItem@CIllusionTempleProcess@@QAEXPAUOBJECTSTRUCT@@@Z PROC ; CIllusionTempleProcess::DropMonsterItem
; _this$ = ecx

; 2680 : {

  07710	55		 push	 ebp
  07711	8b ec		 mov	 ebp, esp
  07713	83 ec 48	 sub	 esp, 72			; 00000048H
  07716	53		 push	 ebx
  07717	56		 push	 esi
  07718	57		 push	 edi
  07719	89 4d fc	 mov	 DWORD PTR _this$[ebp], ecx

; 2681 : 	if(this->m_FloorData[lpObj->m_iIllusionTempleIndex].m_iTeamPlayerIndex != lpObj->m_Index)

  0771c	8b 45 08	 mov	 eax, DWORD PTR _lpObj$[ebp]
  0771f	8b 88 78 20 00
	00		 mov	 ecx, DWORD PTR [eax+8312]
  07725	6b c9 30	 imul	 ecx, 48			; 00000030H
  07728	8b 55 fc	 mov	 edx, DWORD PTR _this$[ebp]
  0772b	8b 45 08	 mov	 eax, DWORD PTR _lpObj$[ebp]
  0772e	8b 4c 0a 20	 mov	 ecx, DWORD PTR [edx+ecx+32]
  07732	3b 08		 cmp	 ecx, DWORD PTR [eax]
  07734	74 05		 je	 SHORT $LN6@DropMonste

; 2682 : 	{
; 2683 : 		return;

  07736	e9 be 00 00 00	 jmp	 $LN7@DropMonste
$LN6@DropMonste:

; 2684 : 	}
; 2685 : 
; 2686 : 	switch(lpObj->MapNumber - MAP_INDEX_ILLUSIONTEMPLE_MIN)

  0773b	8b 45 08	 mov	 eax, DWORD PTR _lpObj$[ebp]
  0773e	0f b6 88 49 01
	00 00		 movzx	 ecx, BYTE PTR [eax+329]
  07745	83 e9 2d	 sub	 ecx, 45			; 0000002dH
  07748	89 4d b8	 mov	 DWORD PTR tv72[ebp], ecx
  0774b	83 7d b8 05	 cmp	 DWORD PTR tv72[ebp], 5
  0774f	0f 87 a4 00 00
	00		 ja	 $LN7@DropMonste
  07755	8b 55 b8	 mov	 edx, DWORD PTR tv72[ebp]
  07758	ff 24 95 00 00
	00 00		 jmp	 DWORD PTR $LN9@DropMonste[edx*4]
$LN3@DropMonste:

; 2687 : 	{
; 2688 : 		case 0:
; 2689 : 		case 1:
; 2690 : 			IllusionTemple1ItemBag->DropIllusionTempleEventReward(lpObj->m_Index, lpObj->MapNumber, lpObj->X, lpObj->Y);

  0775f	8b 45 08	 mov	 eax, DWORD PTR _lpObj$[ebp]
  07762	0f b6 88 46 01
	00 00		 movzx	 ecx, BYTE PTR [eax+326]
  07769	51		 push	 ecx
  0776a	8b 55 08	 mov	 edx, DWORD PTR _lpObj$[ebp]
  0776d	0f b6 82 44 01
	00 00		 movzx	 eax, BYTE PTR [edx+324]
  07774	50		 push	 eax
  07775	8b 4d 08	 mov	 ecx, DWORD PTR _lpObj$[ebp]
  07778	0f b6 91 49 01
	00 00		 movzx	 edx, BYTE PTR [ecx+329]
  0777f	52		 push	 edx
  07780	8b 45 08	 mov	 eax, DWORD PTR _lpObj$[ebp]
  07783	8b 08		 mov	 ecx, DWORD PTR [eax]
  07785	51		 push	 ecx
  07786	8b 0d 00 00 00
	00		 mov	 ecx, DWORD PTR ?IllusionTemple1ItemBag@@3PAVCProbabilityItemBag@@A ; IllusionTemple1ItemBag
  0778c	e8 00 00 00 00	 call	 ?DropIllusionTempleEventReward@CProbabilityItemBag@@QAEHHEEE@Z ; CProbabilityItemBag::DropIllusionTempleEventReward

; 2691 : 			break;

  07791	eb 66		 jmp	 SHORT $LN7@DropMonste
$LN2@DropMonste:

; 2692 : 		case 2:
; 2693 : 		case 3:
; 2694 : 			IllusionTemple2ItemBag->DropIllusionTempleEventReward(lpObj->m_Index, lpObj->MapNumber, lpObj->X, lpObj->Y);

  07793	8b 45 08	 mov	 eax, DWORD PTR _lpObj$[ebp]
  07796	0f b6 88 46 01
	00 00		 movzx	 ecx, BYTE PTR [eax+326]
  0779d	51		 push	 ecx
  0779e	8b 55 08	 mov	 edx, DWORD PTR _lpObj$[ebp]
  077a1	0f b6 82 44 01
	00 00		 movzx	 eax, BYTE PTR [edx+324]
  077a8	50		 push	 eax
  077a9	8b 4d 08	 mov	 ecx, DWORD PTR _lpObj$[ebp]
  077ac	0f b6 91 49 01
	00 00		 movzx	 edx, BYTE PTR [ecx+329]
  077b3	52		 push	 edx
  077b4	8b 45 08	 mov	 eax, DWORD PTR _lpObj$[ebp]
  077b7	8b 08		 mov	 ecx, DWORD PTR [eax]
  077b9	51		 push	 ecx
  077ba	8b 0d 00 00 00
	00		 mov	 ecx, DWORD PTR ?IllusionTemple2ItemBag@@3PAVCProbabilityItemBag@@A ; IllusionTemple2ItemBag
  077c0	e8 00 00 00 00	 call	 ?DropIllusionTempleEventReward@CProbabilityItemBag@@QAEHHEEE@Z ; CProbabilityItemBag::DropIllusionTempleEventReward

; 2695 : 			break;

  077c5	eb 32		 jmp	 SHORT $LN7@DropMonste
$LN1@DropMonste:

; 2696 : 		case 4:
; 2697 : 		case 5:
; 2698 : 			IllusionTemple3ItemBag->DropIllusionTempleEventReward(lpObj->m_Index, lpObj->MapNumber, lpObj->X, lpObj->Y);

  077c7	8b 45 08	 mov	 eax, DWORD PTR _lpObj$[ebp]
  077ca	0f b6 88 46 01
	00 00		 movzx	 ecx, BYTE PTR [eax+326]
  077d1	51		 push	 ecx
  077d2	8b 55 08	 mov	 edx, DWORD PTR _lpObj$[ebp]
  077d5	0f b6 82 44 01
	00 00		 movzx	 eax, BYTE PTR [edx+324]
  077dc	50		 push	 eax
  077dd	8b 4d 08	 mov	 ecx, DWORD PTR _lpObj$[ebp]
  077e0	0f b6 91 49 01
	00 00		 movzx	 edx, BYTE PTR [ecx+329]
  077e7	52		 push	 edx
  077e8	8b 45 08	 mov	 eax, DWORD PTR _lpObj$[ebp]
  077eb	8b 08		 mov	 ecx, DWORD PTR [eax]
  077ed	51		 push	 ecx
  077ee	8b 0d 00 00 00
	00		 mov	 ecx, DWORD PTR ?IllusionTemple3ItemBag@@3PAVCProbabilityItemBag@@A ; IllusionTemple3ItemBag
  077f4	e8 00 00 00 00	 call	 ?DropIllusionTempleEventReward@CProbabilityItemBag@@QAEHHEEE@Z ; CProbabilityItemBag::DropIllusionTempleEventReward
$LN7@DropMonste:

; 2699 : 			break;
; 2700 : 	}
; 2701 : }

  077f9	5f		 pop	 edi
  077fa	5e		 pop	 esi
  077fb	5b		 pop	 ebx
  077fc	8b e5		 mov	 esp, ebp
  077fe	5d		 pop	 ebp
  077ff	c2 04 00	 ret	 4
  07802	8b ff		 npad	 2
$LN9@DropMonste:
  07804	00 00 00 00	 DD	 $LN3@DropMonste
  07808	00 00 00 00	 DD	 $LN3@DropMonste
  0780c	00 00 00 00	 DD	 $LN2@DropMonste
  07810	00 00 00 00	 DD	 $LN2@DropMonste
  07814	00 00 00 00	 DD	 $LN1@DropMonste
  07818	00 00 00 00	 DD	 $LN1@DropMonste
?DropMonsterItem@CIllusionTempleProcess@@QAEXPAUOBJECTSTRUCT@@@Z ENDP ; CIllusionTempleProcess::DropMonsterItem
; Function compile flags: /Odtp /ZI
_aIndex$234991 = -8					; size = 4
_this$ = -4						; size = 4
_lpMsg$ = 8						; size = 4
_iSize$ = 12						; size = 4
?SendAllUserAnyMsg@CIllusionTempleProcess@@QAEXPAEH@Z PROC ; CIllusionTempleProcess::SendAllUserAnyMsg
; _this$ = ecx

; 2704 : {

  07820	55		 push	 ebp
  07821	8b ec		 mov	 ebp, esp
  07823	83 ec 48	 sub	 esp, 72			; 00000048H
  07826	53		 push	 ebx
  07827	56		 push	 esi
  07828	57		 push	 edi
  07829	89 4d fc	 mov	 DWORD PTR _this$[ebp], ecx

; 2705 : 	for( int aIndex = OBJ_STARTUSERINDEX; aIndex<OBJMAX; aIndex++ )

  0782c	c7 45 f8 b0 36
	00 00		 mov	 DWORD PTR _aIndex$234991[ebp], 14000 ; 000036b0H
  07833	eb 09		 jmp	 SHORT $LN4@SendAllUse
$LN3@SendAllUse:
  07835	8b 45 f8	 mov	 eax, DWORD PTR _aIndex$234991[ebp]
  07838	83 c0 01	 add	 eax, 1
  0783b	89 45 f8	 mov	 DWORD PTR _aIndex$234991[ebp], eax
$LN4@SendAllUse:
  0783e	81 7d f8 98 3a
	00 00		 cmp	 DWORD PTR _aIndex$234991[ebp], 15000 ; 00003a98H
  07845	7d 45		 jge	 SHORT $LN5@SendAllUse

; 2706 : 	{
; 2707 : 		if(gObj[aIndex].Connected == PLAYER_PLAYING && gObj[aIndex].Type == OBJ_USER)

  07847	8b 45 f8	 mov	 eax, DWORD PTR _aIndex$234991[ebp]
  0784a	69 c0 38 2b 00
	00		 imul	 eax, 11064		; 00002b38H
  07850	8b 0d 00 00 00
	00		 mov	 ecx, DWORD PTR ?gObj@@3PAUOBJECTSTRUCT@@A ; gObj
  07856	83 7c 01 04 03	 cmp	 DWORD PTR [ecx+eax+4], 3
  0785b	75 2d		 jne	 SHORT $LN1@SendAllUse
  0785d	8b 45 f8	 mov	 eax, DWORD PTR _aIndex$234991[ebp]
  07860	69 c0 38 2b 00
	00		 imul	 eax, 11064		; 00002b38H
  07866	8b 0d 00 00 00
	00		 mov	 ecx, DWORD PTR ?gObj@@3PAUOBJECTSTRUCT@@A ; gObj
  0786c	0f b7 54 01 68	 movzx	 edx, WORD PTR [ecx+eax+104]
  07871	83 fa 01	 cmp	 edx, 1
  07874	75 14		 jne	 SHORT $LN1@SendAllUse

; 2708 : 		{
; 2709 : 			DataSend(aIndex,lpMsg,iSize);

  07876	8b 45 0c	 mov	 eax, DWORD PTR _iSize$[ebp]
  07879	50		 push	 eax
  0787a	8b 4d 08	 mov	 ecx, DWORD PTR _lpMsg$[ebp]
  0787d	51		 push	 ecx
  0787e	8b 55 f8	 mov	 edx, DWORD PTR _aIndex$234991[ebp]
  07881	52		 push	 edx
  07882	e8 00 00 00 00	 call	 ?DataSend@@YAHHPAEK@Z	; DataSend
  07887	83 c4 0c	 add	 esp, 12			; 0000000cH
$LN1@SendAllUse:

; 2710 : 		}
; 2711 : 	}

  0788a	eb a9		 jmp	 SHORT $LN3@SendAllUse
$LN5@SendAllUse:

; 2712 : }

  0788c	5f		 pop	 edi
  0788d	5e		 pop	 esi
  0788e	5b		 pop	 ebx
  0788f	8b e5		 mov	 esp, ebp
  07891	5d		 pop	 ebp
  07892	c2 08 00	 ret	 8
?SendAllUserAnyMsg@CIllusionTempleProcess@@QAEXPAEH@Z ENDP ; CIllusionTempleProcess::SendAllUserAnyMsg
_TEXT	ENDS
PUBLIC	??_C@_0L@MNKEEMGH@?0?$CI?$CFs?$CJ?$CI?$CFs?$CJ?5?$AA@ ; `string'
PUBLIC	??_C@_0BM@DJAOLMAF@400?5LevelUp?5?$CI?$CFs?$CJ?$CI?$CFs?$CJ?5Party?5?$AA@ ; `string'
PUBLIC	??_C@_0DA@KDBPKGIM@?$FL?$CFs?$FN?$FL?$CFs?$FN?5LevelUp?5PlusStatQuest?5C@ ; `string'
PUBLIC	??_C@_0DB@FGGBOBEB@Experience?5?3?5Map?$FL?$CFd?$FN?9?$CI?$CFd?0?$CFd?$CJ?5?$FL?$CFs@ ; `string'
PUBLIC	__$ArrayPad$
EXTRN	?LevelUp@CAchievements@@QAEXH@Z:PROC		; CAchievements::LevelUp
EXTRN	?g_Achievements@@3VCAchievements@@A:BYTE	; g_Achievements
EXTRN	?gObjCalcMaxLifePower@@YAXH@Z:PROC		; gObjCalcMaxLifePower
EXTRN	?GCLevelUpMsgSend@@YAXHH@Z:PROC			; GCLevelUpMsgSend
EXTRN	?gObjSetBP@@YAXH@Z:PROC				; gObjSetBP
EXTRN	?gObjNextExpCal@@YAXPAUOBJECTSTRUCT@@@Z:PROC	; gObjNextExpCal
EXTRN	?DCInfo@@3Vclassdef@@A:BYTE			; DCInfo
EXTRN	?GCServerMsgStringSend@@YAXPADHE@Z:PROC		; GCServerMsgStringSend
EXTRN	?gObjSetExpPetItem@@YAXHH@Z:PROC		; gObjSetExpPetItem
EXTRN	?MasterLevelUp@CMasterLevelSystem@@QAEHPAUOBJECTSTRUCT@@AA_J_NH@Z:PROC ; CMasterLevelSystem::MasterLevelUp
;	COMDAT ??_C@_0L@MNKEEMGH@?0?$CI?$CFs?$CJ?$CI?$CFs?$CJ?5?$AA@
CONST	SEGMENT
??_C@_0L@MNKEEMGH@?0?$CI?$CFs?$CJ?$CI?$CFs?$CJ?5?$AA@ DB ',(%s)(%s) ', 00H ; `string'
CONST	ENDS
;	COMDAT ??_C@_0BM@DJAOLMAF@400?5LevelUp?5?$CI?$CFs?$CJ?$CI?$CFs?$CJ?5Party?5?$AA@
CONST	SEGMENT
??_C@_0BM@DJAOLMAF@400?5LevelUp?5?$CI?$CFs?$CJ?$CI?$CFs?$CJ?5Party?5?$AA@ DB '4'
	DB	'00 LevelUp (%s)(%s) Party ', 00H		; `string'
CONST	ENDS
;	COMDAT ??_C@_0DA@KDBPKGIM@?$FL?$CFs?$FN?$FL?$CFs?$FN?5LevelUp?5PlusStatQuest?5C@
CONST	SEGMENT
??_C@_0DA@KDBPKGIM@?$FL?$CFs?$FN?$FL?$CFs?$FN?5LevelUp?5PlusStatQuest?5C@ DB '['
	DB	'%s][%s] LevelUp PlusStatQuest Clear AddStat %d', 00H ; `string'
CONST	ENDS
;	COMDAT ??_C@_0DB@FGGBOBEB@Experience?5?3?5Map?$FL?$CFd?$FN?9?$CI?$CFd?0?$CFd?$CJ?5?$FL?$CFs@
CONST	SEGMENT
??_C@_0DB@FGGBOBEB@Experience?5?3?5Map?$FL?$CFd?$FN?9?$CI?$CFd?0?$CFd?$CJ?5?$FL?$CFs@ DB 'E'
	DB	'xperience : Map[%d]-(%d,%d) [%s][%s](%d) %u %d ', 00H ; `string'
; Function compile flags: /Odtp /ZI
CONST	ENDS
_TEXT	SEGMENT
tv67 = -352						; size = 4
_iSize$235040 = -284					; size = 4
_i$235035 = -280					; size = 4
_iPartyNumIndex$235034 = -276				; size = 4
_szMsg$235032 = -272					; size = 256
_iPartyNumber$235031 = -16				; size = 4
_iLEFT_EXP$ = -12					; size = 4
_this$ = -8						; size = 4
__$ArrayPad$ = -4					; size = 4
_iUserIndex$ = 8					; size = 4
_iAddExp$ = 12						; size = 4
?LevelUp@CIllusionTempleProcess@@QAEHHH@Z PROC		; CIllusionTempleProcess::LevelUp
; _this$ = ecx

; 2715 : {

  078a0	55		 push	 ebp
  078a1	8b ec		 mov	 ebp, esp
  078a3	81 ec 60 01 00
	00		 sub	 esp, 352		; 00000160H
  078a9	a1 00 00 00 00	 mov	 eax, DWORD PTR ___security_cookie
  078ae	33 c5		 xor	 eax, ebp
  078b0	89 45 fc	 mov	 DWORD PTR __$ArrayPad$[ebp], eax
  078b3	53		 push	 ebx
  078b4	56		 push	 esi
  078b5	57		 push	 edi
  078b6	89 4d f8	 mov	 DWORD PTR _this$[ebp], ecx

; 2716 : 	if(OBJMAX_RANGE(iUserIndex ) == FALSE)

  078b9	83 7d 08 00	 cmp	 DWORD PTR _iUserIndex$[ebp], 0
  078bd	7d 0c		 jge	 SHORT $LN17@LevelUp
  078bf	c7 85 a0 fe ff
	ff 00 00 00 00	 mov	 DWORD PTR tv67[ebp], 0
  078c9	eb 12		 jmp	 SHORT $LN18@LevelUp
$LN17@LevelUp:
  078cb	33 c0		 xor	 eax, eax
  078cd	81 7d 08 97 3a
	00 00		 cmp	 DWORD PTR _iUserIndex$[ebp], 14999 ; 00003a97H
  078d4	0f 9e c0	 setle	 al
  078d7	89 85 a0 fe ff
	ff		 mov	 DWORD PTR tv67[ebp], eax
$LN18@LevelUp:
  078dd	83 bd a0 fe ff
	ff 00		 cmp	 DWORD PTR tv67[ebp], 0
  078e4	75 07		 jne	 SHORT $LN14@LevelUp

; 2717 : 	{
; 2718 : 		return 0;

  078e6	33 c0		 xor	 eax, eax
  078e8	e9 89 06 00 00	 jmp	 $LN15@LevelUp
$LN14@LevelUp:

; 2719 : 	}
; 2720 : 
; 2721 : 	if(g_MasterLevelSystem.MasterLevelUp(&gObj[iUserIndex], (__int64&)iAddExp,1,0) != 0) //season3 add-on

  078ed	6a 00		 push	 0
  078ef	6a 01		 push	 1
  078f1	8d 45 0c	 lea	 eax, DWORD PTR _iAddExp$[ebp]
  078f4	50		 push	 eax
  078f5	8b 4d 08	 mov	 ecx, DWORD PTR _iUserIndex$[ebp]
  078f8	69 c9 38 2b 00
	00		 imul	 ecx, 11064		; 00002b38H
  078fe	03 0d 00 00 00
	00		 add	 ecx, DWORD PTR ?gObj@@3PAUOBJECTSTRUCT@@A ; gObj
  07904	51		 push	 ecx
  07905	b9 00 00 00 00	 mov	 ecx, OFFSET ?g_MasterLevelSystem@@3VCMasterLevelSystem@@A ; g_MasterLevelSystem
  0790a	e8 00 00 00 00	 call	 ?MasterLevelUp@CMasterLevelSystem@@QAEHPAUOBJECTSTRUCT@@AA_J_NH@Z ; CMasterLevelSystem::MasterLevelUp
  0790f	85 c0		 test	 eax, eax
  07911	74 07		 je	 SHORT $LN13@LevelUp

; 2722 : 	{
; 2723 : 		return 0;

  07913	33 c0		 xor	 eax, eax
  07915	e9 5c 06 00 00	 jmp	 $LN15@LevelUp
$LN13@LevelUp:

; 2724 : 	}
; 2725 : 
; 2726 : 
; 2727 : 	gObjSetExpPetItem(iUserIndex, iAddExp);

  0791a	8b 45 0c	 mov	 eax, DWORD PTR _iAddExp$[ebp]
  0791d	50		 push	 eax
  0791e	8b 4d 08	 mov	 ecx, DWORD PTR _iUserIndex$[ebp]
  07921	51		 push	 ecx
  07922	e8 00 00 00 00	 call	 ?gObjSetExpPetItem@@YAXHH@Z ; gObjSetExpPetItem
  07927	83 c4 08	 add	 esp, 8

; 2728 : 
; 2729 : 	int iLEFT_EXP = 0;

  0792a	c7 45 f4 00 00
	00 00		 mov	 DWORD PTR _iLEFT_EXP$[ebp], 0

; 2730 : 
; 2731 : 	LogAddTD("Experience : Map[%d]-(%d,%d) [%s][%s](%d) %u %d ", gObj[iUserIndex].MapNumber, gObj[iUserIndex].X, gObj[iUserIndex].X, gObj[iUserIndex].AccountID, gObj[iUserIndex].Name,	gObj[iUserIndex].Level, gObj[iUserIndex].Experience, iAddExp);

  07931	8b 45 0c	 mov	 eax, DWORD PTR _iAddExp$[ebp]
  07934	50		 push	 eax
  07935	8b 4d 08	 mov	 ecx, DWORD PTR _iUserIndex$[ebp]
  07938	69 c9 38 2b 00
	00		 imul	 ecx, 11064		; 00002b38H
  0793e	8b 15 00 00 00
	00		 mov	 edx, DWORD PTR ?gObj@@3PAUOBJECTSTRUCT@@A ; gObj
  07944	8b 84 0a c8 00
	00 00		 mov	 eax, DWORD PTR [edx+ecx+200]
  0794b	50		 push	 eax
  0794c	8b 4d 08	 mov	 ecx, DWORD PTR _iUserIndex$[ebp]
  0794f	69 c9 38 2b 00
	00		 imul	 ecx, 11064		; 00002b38H
  07955	8b 15 00 00 00
	00		 mov	 edx, DWORD PTR ?gObj@@3PAUOBJECTSTRUCT@@A ; gObj
  0795b	0f bf 84 0a be
	00 00 00	 movsx	 eax, WORD PTR [edx+ecx+190]
  07963	50		 push	 eax
  07964	8b 4d 08	 mov	 ecx, DWORD PTR _iUserIndex$[ebp]
  07967	69 c9 38 2b 00
	00		 imul	 ecx, 11064		; 00002b38H
  0796d	8b 15 00 00 00
	00		 mov	 edx, DWORD PTR ?gObj@@3PAUOBJECTSTRUCT@@A ; gObj
  07973	8d 44 0a 77	 lea	 eax, DWORD PTR [edx+ecx+119]
  07977	50		 push	 eax
  07978	8b 4d 08	 mov	 ecx, DWORD PTR _iUserIndex$[ebp]
  0797b	69 c9 38 2b 00
	00		 imul	 ecx, 11064		; 00002b38H
  07981	8b 15 00 00 00
	00		 mov	 edx, DWORD PTR ?gObj@@3PAUOBJECTSTRUCT@@A ; gObj
  07987	8d 44 0a 6c	 lea	 eax, DWORD PTR [edx+ecx+108]
  0798b	50		 push	 eax
  0798c	8b 4d 08	 mov	 ecx, DWORD PTR _iUserIndex$[ebp]
  0798f	69 c9 38 2b 00
	00		 imul	 ecx, 11064		; 00002b38H
  07995	8b 15 00 00 00
	00		 mov	 edx, DWORD PTR ?gObj@@3PAUOBJECTSTRUCT@@A ; gObj
  0799b	0f bf 84 0a 44
	01 00 00	 movsx	 eax, WORD PTR [edx+ecx+324]
  079a3	50		 push	 eax
  079a4	8b 4d 08	 mov	 ecx, DWORD PTR _iUserIndex$[ebp]
  079a7	69 c9 38 2b 00
	00		 imul	 ecx, 11064		; 00002b38H
  079ad	8b 15 00 00 00
	00		 mov	 edx, DWORD PTR ?gObj@@3PAUOBJECTSTRUCT@@A ; gObj
  079b3	0f bf 84 0a 44
	01 00 00	 movsx	 eax, WORD PTR [edx+ecx+324]
  079bb	50		 push	 eax
  079bc	8b 4d 08	 mov	 ecx, DWORD PTR _iUserIndex$[ebp]
  079bf	69 c9 38 2b 00
	00		 imul	 ecx, 11064		; 00002b38H
  079c5	8b 15 00 00 00
	00		 mov	 edx, DWORD PTR ?gObj@@3PAUOBJECTSTRUCT@@A ; gObj
  079cb	0f b6 84 0a 49
	01 00 00	 movzx	 eax, BYTE PTR [edx+ecx+329]
  079d3	50		 push	 eax
  079d4	68 00 00 00 00	 push	 OFFSET ??_C@_0DB@FGGBOBEB@Experience?5?3?5Map?$FL?$CFd?$FN?9?$CI?$CFd?0?$CFd?$CJ?5?$FL?$CFs@
  079d9	ff 15 00 00 00
	00		 call	 DWORD PTR ?LogAddTD@@3P6AXPADZZA ; LogAddTD
  079df	83 c4 24	 add	 esp, 36			; 00000024H

; 2732 : 
; 2733 : 	if(gObj[iUserIndex].Level >= MAX_CHAR_LEVEL)

  079e2	8b 45 08	 mov	 eax, DWORD PTR _iUserIndex$[ebp]
  079e5	69 c0 38 2b 00
	00		 imul	 eax, 11064		; 00002b38H
  079eb	8b 0d 00 00 00
	00		 mov	 ecx, DWORD PTR ?gObj@@3PAUOBJECTSTRUCT@@A ; gObj
  079f1	0f bf 94 01 be
	00 00 00	 movsx	 edx, WORD PTR [ecx+eax+190]
  079f9	81 fa 90 01 00
	00		 cmp	 edx, 400		; 00000190H
  079ff	7c 34		 jl	 SHORT $LN12@LevelUp

; 2734 : 	{
; 2735 : 		GCServerMsgStringSend(lMsg.Get(MSGGET(4, 112)), gObj[iUserIndex].m_Index, 1);

  07a01	6a 01		 push	 1
  07a03	8b 45 08	 mov	 eax, DWORD PTR _iUserIndex$[ebp]
  07a06	69 c0 38 2b 00
	00		 imul	 eax, 11064		; 00002b38H
  07a0c	8b 0d 00 00 00
	00		 mov	 ecx, DWORD PTR ?gObj@@3PAUOBJECTSTRUCT@@A ; gObj
  07a12	8b 14 01	 mov	 edx, DWORD PTR [ecx+eax]
  07a15	52		 push	 edx
  07a16	68 70 04 00 00	 push	 1136			; 00000470H
  07a1b	b9 00 00 00 00	 mov	 ecx, OFFSET ?lMsg@@3VCMsg@@A ; lMsg
  07a20	e8 00 00 00 00	 call	 ?Get@CMsg@@QAEPADH@Z	; CMsg::Get
  07a25	50		 push	 eax
  07a26	e8 00 00 00 00	 call	 ?GCServerMsgStringSend@@YAXPADHE@Z ; GCServerMsgStringSend
  07a2b	83 c4 0c	 add	 esp, 12			; 0000000cH

; 2736 : 		return 0;

  07a2e	33 c0		 xor	 eax, eax
  07a30	e9 41 05 00 00	 jmp	 $LN15@LevelUp
$LN12@LevelUp:

; 2737 : 	}
; 2738 : 
; 2739 : 	if((gObj[iUserIndex].Experience + iAddExp) < gObj[iUserIndex].NextExp)

  07a35	8b 45 08	 mov	 eax, DWORD PTR _iUserIndex$[ebp]
  07a38	69 c0 38 2b 00
	00		 imul	 eax, 11064		; 00002b38H
  07a3e	8b 0d 00 00 00
	00		 mov	 ecx, DWORD PTR ?gObj@@3PAUOBJECTSTRUCT@@A ; gObj
  07a44	8b 94 01 c8 00
	00 00		 mov	 edx, DWORD PTR [ecx+eax+200]
  07a4b	03 55 0c	 add	 edx, DWORD PTR _iAddExp$[ebp]
  07a4e	8b 45 08	 mov	 eax, DWORD PTR _iUserIndex$[ebp]
  07a51	69 c0 38 2b 00
	00		 imul	 eax, 11064		; 00002b38H
  07a57	8b 0d 00 00 00
	00		 mov	 ecx, DWORD PTR ?gObj@@3PAUOBJECTSTRUCT@@A ; gObj
  07a5d	3b 94 01 cc 00
	00 00		 cmp	 edx, DWORD PTR [ecx+eax+204]
  07a64	73 34		 jae	 SHORT $LN11@LevelUp

; 2740 : 	{
; 2741 : 		gObj[iUserIndex].Experience += iAddExp;

  07a66	8b 45 08	 mov	 eax, DWORD PTR _iUserIndex$[ebp]
  07a69	69 c0 38 2b 00
	00		 imul	 eax, 11064		; 00002b38H
  07a6f	8b 0d 00 00 00
	00		 mov	 ecx, DWORD PTR ?gObj@@3PAUOBJECTSTRUCT@@A ; gObj
  07a75	8b 94 01 c8 00
	00 00		 mov	 edx, DWORD PTR [ecx+eax+200]
  07a7c	03 55 0c	 add	 edx, DWORD PTR _iAddExp$[ebp]
  07a7f	8b 45 08	 mov	 eax, DWORD PTR _iUserIndex$[ebp]
  07a82	69 c0 38 2b 00
	00		 imul	 eax, 11064		; 00002b38H
  07a88	8b 0d 00 00 00
	00		 mov	 ecx, DWORD PTR ?gObj@@3PAUOBJECTSTRUCT@@A ; gObj
  07a8e	89 94 01 c8 00
	00 00		 mov	 DWORD PTR [ecx+eax+200], edx

; 2742 : 	}
; 2743 : 	else

  07a95	e9 cb 04 00 00	 jmp	 $LN5@LevelUp
$LN11@LevelUp:

; 2744 : 	{
; 2745 : 		iLEFT_EXP = gObj[iUserIndex].Experience + iAddExp - gObj[iUserIndex].NextExp;

  07a9a	8b 45 08	 mov	 eax, DWORD PTR _iUserIndex$[ebp]
  07a9d	69 c0 38 2b 00
	00		 imul	 eax, 11064		; 00002b38H
  07aa3	8b 0d 00 00 00
	00		 mov	 ecx, DWORD PTR ?gObj@@3PAUOBJECTSTRUCT@@A ; gObj
  07aa9	8b 94 01 c8 00
	00 00		 mov	 edx, DWORD PTR [ecx+eax+200]
  07ab0	03 55 0c	 add	 edx, DWORD PTR _iAddExp$[ebp]
  07ab3	8b 45 08	 mov	 eax, DWORD PTR _iUserIndex$[ebp]
  07ab6	69 c0 38 2b 00
	00		 imul	 eax, 11064		; 00002b38H
  07abc	8b 0d 00 00 00
	00		 mov	 ecx, DWORD PTR ?gObj@@3PAUOBJECTSTRUCT@@A ; gObj
  07ac2	2b 94 01 cc 00
	00 00		 sub	 edx, DWORD PTR [ecx+eax+204]
  07ac9	89 55 f4	 mov	 DWORD PTR _iLEFT_EXP$[ebp], edx

; 2746 : 		gObj[iUserIndex].Experience = gObj[iUserIndex].NextExp;

  07acc	8b 45 08	 mov	 eax, DWORD PTR _iUserIndex$[ebp]
  07acf	69 c0 38 2b 00
	00		 imul	 eax, 11064		; 00002b38H
  07ad5	8b 4d 08	 mov	 ecx, DWORD PTR _iUserIndex$[ebp]
  07ad8	69 c9 38 2b 00
	00		 imul	 ecx, 11064		; 00002b38H
  07ade	8b 15 00 00 00
	00		 mov	 edx, DWORD PTR ?gObj@@3PAUOBJECTSTRUCT@@A ; gObj
  07ae4	8b 35 00 00 00
	00		 mov	 esi, DWORD PTR ?gObj@@3PAUOBJECTSTRUCT@@A ; gObj
  07aea	8b 84 06 cc 00
	00 00		 mov	 eax, DWORD PTR [esi+eax+204]
  07af1	89 84 0a c8 00
	00 00		 mov	 DWORD PTR [edx+ecx+200], eax

; 2747 : 		gObj[iUserIndex].Level++;

  07af8	8b 45 08	 mov	 eax, DWORD PTR _iUserIndex$[ebp]
  07afb	69 c0 38 2b 00
	00		 imul	 eax, 11064		; 00002b38H
  07b01	8b 0d 00 00 00
	00		 mov	 ecx, DWORD PTR ?gObj@@3PAUOBJECTSTRUCT@@A ; gObj
  07b07	66 8b 94 01 be
	00 00 00	 mov	 dx, WORD PTR [ecx+eax+190]
  07b0f	66 83 c2 01	 add	 dx, 1
  07b13	8b 45 08	 mov	 eax, DWORD PTR _iUserIndex$[ebp]
  07b16	69 c0 38 2b 00
	00		 imul	 eax, 11064		; 00002b38H
  07b1c	8b 0d 00 00 00
	00		 mov	 ecx, DWORD PTR ?gObj@@3PAUOBJECTSTRUCT@@A ; gObj
  07b22	66 89 94 01 be
	00 00 00	 mov	 WORD PTR [ecx+eax+190], dx

; 2748 : 
; 2749 : 		if(gObj[iUserIndex].Class == CLASS_DARKLORD || gObj[iUserIndex].Class == CLASS_MAGUMSA)

  07b2a	8b 45 08	 mov	 eax, DWORD PTR _iUserIndex$[ebp]
  07b2d	69 c0 38 2b 00
	00		 imul	 eax, 11064		; 00002b38H
  07b33	8b 0d 00 00 00
	00		 mov	 ecx, DWORD PTR ?gObj@@3PAUOBJECTSTRUCT@@A ; gObj
  07b39	0f b7 94 01 b8
	00 00 00	 movzx	 edx, WORD PTR [ecx+eax+184]
  07b41	83 fa 04	 cmp	 edx, 4
  07b44	74 1c		 je	 SHORT $LN8@LevelUp
  07b46	8b 45 08	 mov	 eax, DWORD PTR _iUserIndex$[ebp]
  07b49	69 c0 38 2b 00
	00		 imul	 eax, 11064		; 00002b38H
  07b4f	8b 0d 00 00 00
	00		 mov	 ecx, DWORD PTR ?gObj@@3PAUOBJECTSTRUCT@@A ; gObj
  07b55	0f b7 94 01 b8
	00 00 00	 movzx	 edx, WORD PTR [ecx+eax+184]
  07b5d	83 fa 03	 cmp	 edx, 3
  07b60	75 31		 jne	 SHORT $LN9@LevelUp
$LN8@LevelUp:

; 2750 : 		{
; 2751 : 			gObj[iUserIndex].LevelUpPoint += 7;

  07b62	8b 45 08	 mov	 eax, DWORD PTR _iUserIndex$[ebp]
  07b65	69 c0 38 2b 00
	00		 imul	 eax, 11064		; 00002b38H
  07b6b	8b 0d 00 00 00
	00		 mov	 ecx, DWORD PTR ?gObj@@3PAUOBJECTSTRUCT@@A ; gObj
  07b71	8b 94 01 c0 00
	00 00		 mov	 edx, DWORD PTR [ecx+eax+192]
  07b78	83 c2 07	 add	 edx, 7
  07b7b	8b 45 08	 mov	 eax, DWORD PTR _iUserIndex$[ebp]
  07b7e	69 c0 38 2b 00
	00		 imul	 eax, 11064		; 00002b38H
  07b84	8b 0d 00 00 00
	00		 mov	 ecx, DWORD PTR ?gObj@@3PAUOBJECTSTRUCT@@A ; gObj
  07b8a	89 94 01 c0 00
	00 00		 mov	 DWORD PTR [ecx+eax+192], edx

; 2752 : 		}
; 2753 : 		else

  07b91	eb 2f		 jmp	 SHORT $LN7@LevelUp
$LN9@LevelUp:

; 2754 : 		{
; 2755 : 			gObj[iUserIndex].LevelUpPoint += 5;

  07b93	8b 45 08	 mov	 eax, DWORD PTR _iUserIndex$[ebp]
  07b96	69 c0 38 2b 00
	00		 imul	 eax, 11064		; 00002b38H
  07b9c	8b 0d 00 00 00
	00		 mov	 ecx, DWORD PTR ?gObj@@3PAUOBJECTSTRUCT@@A ; gObj
  07ba2	8b 94 01 c0 00
	00 00		 mov	 edx, DWORD PTR [ecx+eax+192]
  07ba9	83 c2 05	 add	 edx, 5
  07bac	8b 45 08	 mov	 eax, DWORD PTR _iUserIndex$[ebp]
  07baf	69 c0 38 2b 00
	00		 imul	 eax, 11064		; 00002b38H
  07bb5	8b 0d 00 00 00
	00		 mov	 ecx, DWORD PTR ?gObj@@3PAUOBJECTSTRUCT@@A ; gObj
  07bbb	89 94 01 c0 00
	00 00		 mov	 DWORD PTR [ecx+eax+192], edx
$LN7@LevelUp:

; 2756 : 		}
; 2757 : 
; 2758 : 		if(gObj[iUserIndex].PlusStatQuestClear != false)

  07bc2	8b 45 08	 mov	 eax, DWORD PTR _iUserIndex$[ebp]
  07bc5	69 c0 38 2b 00
	00		 imul	 eax, 11064		; 00002b38H
  07bcb	8b 0d 00 00 00
	00		 mov	 ecx, DWORD PTR ?gObj@@3PAUOBJECTSTRUCT@@A ; gObj
  07bd1	0f b6 94 01 a5
	00 00 00	 movzx	 edx, BYTE PTR [ecx+eax+165]
  07bd9	85 d2		 test	 edx, edx
  07bdb	74 7c		 je	 SHORT $LN6@LevelUp

; 2759 : 		{
; 2760 : 			gObj[iUserIndex].LevelUpPoint++;

  07bdd	8b 45 08	 mov	 eax, DWORD PTR _iUserIndex$[ebp]
  07be0	69 c0 38 2b 00
	00		 imul	 eax, 11064		; 00002b38H
  07be6	8b 0d 00 00 00
	00		 mov	 ecx, DWORD PTR ?gObj@@3PAUOBJECTSTRUCT@@A ; gObj
  07bec	8b 94 01 c0 00
	00 00		 mov	 edx, DWORD PTR [ecx+eax+192]
  07bf3	83 c2 01	 add	 edx, 1
  07bf6	8b 45 08	 mov	 eax, DWORD PTR _iUserIndex$[ebp]
  07bf9	69 c0 38 2b 00
	00		 imul	 eax, 11064		; 00002b38H
  07bff	8b 0d 00 00 00
	00		 mov	 ecx, DWORD PTR ?gObj@@3PAUOBJECTSTRUCT@@A ; gObj
  07c05	89 94 01 c0 00
	00 00		 mov	 DWORD PTR [ecx+eax+192], edx

; 2761 : 
; 2762 : 			LogAddTD("[%s][%s] LevelUp PlusStatQuest Clear AddStat %d", gObj[iUserIndex].AccountID, gObj[iUserIndex].Name, gObj[iUserIndex].LevelUpPoint);

  07c0c	8b 45 08	 mov	 eax, DWORD PTR _iUserIndex$[ebp]
  07c0f	69 c0 38 2b 00
	00		 imul	 eax, 11064		; 00002b38H
  07c15	8b 0d 00 00 00
	00		 mov	 ecx, DWORD PTR ?gObj@@3PAUOBJECTSTRUCT@@A ; gObj
  07c1b	8b 94 01 c0 00
	00 00		 mov	 edx, DWORD PTR [ecx+eax+192]
  07c22	52		 push	 edx
  07c23	8b 45 08	 mov	 eax, DWORD PTR _iUserIndex$[ebp]
  07c26	69 c0 38 2b 00
	00		 imul	 eax, 11064		; 00002b38H
  07c2c	8b 0d 00 00 00
	00		 mov	 ecx, DWORD PTR ?gObj@@3PAUOBJECTSTRUCT@@A ; gObj
  07c32	8d 54 01 77	 lea	 edx, DWORD PTR [ecx+eax+119]
  07c36	52		 push	 edx
  07c37	8b 45 08	 mov	 eax, DWORD PTR _iUserIndex$[ebp]
  07c3a	69 c0 38 2b 00
	00		 imul	 eax, 11064		; 00002b38H
  07c40	8b 0d 00 00 00
	00		 mov	 ecx, DWORD PTR ?gObj@@3PAUOBJECTSTRUCT@@A ; gObj
  07c46	8d 54 01 6c	 lea	 edx, DWORD PTR [ecx+eax+108]
  07c4a	52		 push	 edx
  07c4b	68 00 00 00 00	 push	 OFFSET ??_C@_0DA@KDBPKGIM@?$FL?$CFs?$FN?$FL?$CFs?$FN?5LevelUp?5PlusStatQuest?5C@
  07c50	ff 15 00 00 00
	00		 call	 DWORD PTR ?LogAddTD@@3P6AXPADZZA ; LogAddTD
  07c56	83 c4 10	 add	 esp, 16			; 00000010H
$LN6@LevelUp:

; 2763 : 		}
; 2764 : 
; 2765 : 		gObj[iUserIndex].MaxLife += DCInfo.DefClass[gObj[iUserIndex].Class].LevelLife;

  07c59	8b 45 08	 mov	 eax, DWORD PTR _iUserIndex$[ebp]
  07c5c	69 c0 38 2b 00
	00		 imul	 eax, 11064		; 00002b38H
  07c62	8b 4d 08	 mov	 ecx, DWORD PTR _iUserIndex$[ebp]
  07c65	69 c9 38 2b 00
	00		 imul	 ecx, 11064		; 00002b38H
  07c6b	8b 15 00 00 00
	00		 mov	 edx, DWORD PTR ?gObj@@3PAUOBJECTSTRUCT@@A ; gObj
  07c71	0f b7 8c 0a b8
	00 00 00	 movzx	 ecx, WORD PTR [edx+ecx+184]
  07c79	69 c9 c8 0b 00
	00		 imul	 ecx, 3016		; 00000bc8H
  07c7f	8b 15 00 00 00
	00		 mov	 edx, DWORD PTR ?gObj@@3PAUOBJECTSTRUCT@@A ; gObj
  07c85	d9 84 02 00 01
	00 00		 fld	 DWORD PTR [edx+eax+256]
  07c8c	d8 81 10 00 00
	00		 fadd	 DWORD PTR ?DCInfo@@3Vclassdef@@A[ecx+16]
  07c92	8b 45 08	 mov	 eax, DWORD PTR _iUserIndex$[ebp]
  07c95	69 c0 38 2b 00
	00		 imul	 eax, 11064		; 00002b38H
  07c9b	8b 0d 00 00 00
	00		 mov	 ecx, DWORD PTR ?gObj@@3PAUOBJECTSTRUCT@@A ; gObj
  07ca1	d9 9c 01 00 01
	00 00		 fstp	 DWORD PTR [ecx+eax+256]

; 2766 : 		gObj[iUserIndex].MaxMana += DCInfo.DefClass[gObj[iUserIndex].Class].LevelMana;

  07ca8	8b 45 08	 mov	 eax, DWORD PTR _iUserIndex$[ebp]
  07cab	69 c0 38 2b 00
	00		 imul	 eax, 11064		; 00002b38H
  07cb1	8b 4d 08	 mov	 ecx, DWORD PTR _iUserIndex$[ebp]
  07cb4	69 c9 38 2b 00
	00		 imul	 ecx, 11064		; 00002b38H
  07cba	8b 15 00 00 00
	00		 mov	 edx, DWORD PTR ?gObj@@3PAUOBJECTSTRUCT@@A ; gObj
  07cc0	0f b7 8c 0a b8
	00 00 00	 movzx	 ecx, WORD PTR [edx+ecx+184]
  07cc8	69 c9 c8 0b 00
	00		 imul	 ecx, 3016		; 00000bc8H
  07cce	8b 15 00 00 00
	00		 mov	 edx, DWORD PTR ?gObj@@3PAUOBJECTSTRUCT@@A ; gObj
  07cd4	d9 84 02 14 01
	00 00		 fld	 DWORD PTR [edx+eax+276]
  07cdb	d8 81 1c 00 00
	00		 fadd	 DWORD PTR ?DCInfo@@3Vclassdef@@A[ecx+28]
  07ce1	8b 45 08	 mov	 eax, DWORD PTR _iUserIndex$[ebp]
  07ce4	69 c0 38 2b 00
	00		 imul	 eax, 11064		; 00002b38H
  07cea	8b 0d 00 00 00
	00		 mov	 ecx, DWORD PTR ?gObj@@3PAUOBJECTSTRUCT@@A ; gObj
  07cf0	d9 9c 01 14 01
	00 00		 fstp	 DWORD PTR [ecx+eax+276]

; 2767 : 		gObj[iUserIndex].Life = gObj[iUserIndex].MaxLife;

  07cf7	8b 45 08	 mov	 eax, DWORD PTR _iUserIndex$[ebp]
  07cfa	69 c0 38 2b 00
	00		 imul	 eax, 11064		; 00002b38H
  07d00	8b 4d 08	 mov	 ecx, DWORD PTR _iUserIndex$[ebp]
  07d03	69 c9 38 2b 00
	00		 imul	 ecx, 11064		; 00002b38H
  07d09	8b 15 00 00 00
	00		 mov	 edx, DWORD PTR ?gObj@@3PAUOBJECTSTRUCT@@A ; gObj
  07d0f	8b 35 00 00 00
	00		 mov	 esi, DWORD PTR ?gObj@@3PAUOBJECTSTRUCT@@A ; gObj
  07d15	d9 84 06 00 01
	00 00		 fld	 DWORD PTR [esi+eax+256]
  07d1c	d9 9c 0a fc 00
	00 00		 fstp	 DWORD PTR [edx+ecx+252]

; 2768 : 		gObj[iUserIndex].Mana = gObj[iUserIndex].MaxMana;

  07d23	8b 45 08	 mov	 eax, DWORD PTR _iUserIndex$[ebp]
  07d26	69 c0 38 2b 00
	00		 imul	 eax, 11064		; 00002b38H
  07d2c	8b 4d 08	 mov	 ecx, DWORD PTR _iUserIndex$[ebp]
  07d2f	69 c9 38 2b 00
	00		 imul	 ecx, 11064		; 00002b38H
  07d35	8b 15 00 00 00
	00		 mov	 edx, DWORD PTR ?gObj@@3PAUOBJECTSTRUCT@@A ; gObj
  07d3b	8b 35 00 00 00
	00		 mov	 esi, DWORD PTR ?gObj@@3PAUOBJECTSTRUCT@@A ; gObj
  07d41	d9 84 06 14 01
	00 00		 fld	 DWORD PTR [esi+eax+276]
  07d48	d9 9c 0a 10 01
	00 00		 fstp	 DWORD PTR [edx+ecx+272]

; 2769 : 		gObjNextExpCal(&gObj[iUserIndex]);

  07d4f	8b 45 08	 mov	 eax, DWORD PTR _iUserIndex$[ebp]
  07d52	69 c0 38 2b 00
	00		 imul	 eax, 11064		; 00002b38H
  07d58	03 05 00 00 00
	00		 add	 eax, DWORD PTR ?gObj@@3PAUOBJECTSTRUCT@@A ; gObj
  07d5e	50		 push	 eax
  07d5f	e8 00 00 00 00	 call	 ?gObjNextExpCal@@YAXPAUOBJECTSTRUCT@@@Z ; gObjNextExpCal
  07d64	83 c4 04	 add	 esp, 4

; 2770 : 		gObjSetBP(gObj[iUserIndex].m_Index);

  07d67	8b 45 08	 mov	 eax, DWORD PTR _iUserIndex$[ebp]
  07d6a	69 c0 38 2b 00
	00		 imul	 eax, 11064		; 00002b38H
  07d70	8b 0d 00 00 00
	00		 mov	 ecx, DWORD PTR ?gObj@@3PAUOBJECTSTRUCT@@A ; gObj
  07d76	8b 14 01	 mov	 edx, DWORD PTR [ecx+eax]
  07d79	52		 push	 edx
  07d7a	e8 00 00 00 00	 call	 ?gObjSetBP@@YAXH@Z	; gObjSetBP
  07d7f	83 c4 04	 add	 esp, 4

; 2771 : 		GCLevelUpMsgSend(gObj[iUserIndex].m_Index, 1);

  07d82	6a 01		 push	 1
  07d84	8b 45 08	 mov	 eax, DWORD PTR _iUserIndex$[ebp]
  07d87	69 c0 38 2b 00
	00		 imul	 eax, 11064		; 00002b38H
  07d8d	8b 0d 00 00 00
	00		 mov	 ecx, DWORD PTR ?gObj@@3PAUOBJECTSTRUCT@@A ; gObj
  07d93	8b 14 01	 mov	 edx, DWORD PTR [ecx+eax]
  07d96	52		 push	 edx
  07d97	e8 00 00 00 00	 call	 ?GCLevelUpMsgSend@@YAXHH@Z ; GCLevelUpMsgSend
  07d9c	83 c4 08	 add	 esp, 8

; 2772 : 		gObjCalcMaxLifePower(gObj[iUserIndex].m_Index);

  07d9f	8b 45 08	 mov	 eax, DWORD PTR _iUserIndex$[ebp]
  07da2	69 c0 38 2b 00
	00		 imul	 eax, 11064		; 00002b38H
  07da8	8b 0d 00 00 00
	00		 mov	 ecx, DWORD PTR ?gObj@@3PAUOBJECTSTRUCT@@A ; gObj
  07dae	8b 14 01	 mov	 edx, DWORD PTR [ecx+eax]
  07db1	52		 push	 edx
  07db2	e8 00 00 00 00	 call	 ?gObjCalcMaxLifePower@@YAXH@Z ; gObjCalcMaxLifePower
  07db7	83 c4 04	 add	 esp, 4

; 2773 : 
; 2774 : 		LogAddTD(lMsg.Get(MSGGET(2, 8)), gObj[iUserIndex].AccountID, gObj[iUserIndex].Name, gObj[iUserIndex].Level);

  07dba	8b 45 08	 mov	 eax, DWORD PTR _iUserIndex$[ebp]
  07dbd	69 c0 38 2b 00
	00		 imul	 eax, 11064		; 00002b38H
  07dc3	8b 0d 00 00 00
	00		 mov	 ecx, DWORD PTR ?gObj@@3PAUOBJECTSTRUCT@@A ; gObj
  07dc9	0f bf 94 01 be
	00 00 00	 movsx	 edx, WORD PTR [ecx+eax+190]
  07dd1	52		 push	 edx
  07dd2	8b 45 08	 mov	 eax, DWORD PTR _iUserIndex$[ebp]
  07dd5	69 c0 38 2b 00
	00		 imul	 eax, 11064		; 00002b38H
  07ddb	8b 0d 00 00 00
	00		 mov	 ecx, DWORD PTR ?gObj@@3PAUOBJECTSTRUCT@@A ; gObj
  07de1	8d 54 01 77	 lea	 edx, DWORD PTR [ecx+eax+119]
  07de5	52		 push	 edx
  07de6	8b 45 08	 mov	 eax, DWORD PTR _iUserIndex$[ebp]
  07de9	69 c0 38 2b 00
	00		 imul	 eax, 11064		; 00002b38H
  07def	8b 0d 00 00 00
	00		 mov	 ecx, DWORD PTR ?gObj@@3PAUOBJECTSTRUCT@@A ; gObj
  07df5	8d 54 01 6c	 lea	 edx, DWORD PTR [ecx+eax+108]
  07df9	52		 push	 edx
  07dfa	68 08 02 00 00	 push	 520			; 00000208H
  07dff	b9 00 00 00 00	 mov	 ecx, OFFSET ?lMsg@@3VCMsg@@A ; lMsg
  07e04	e8 00 00 00 00	 call	 ?Get@CMsg@@QAEPADH@Z	; CMsg::Get
  07e09	50		 push	 eax
  07e0a	ff 15 00 00 00
	00		 call	 DWORD PTR ?LogAddTD@@3P6AXPADZZA ; LogAddTD
  07e10	83 c4 10	 add	 esp, 16			; 00000010H

; 2775 : 
; 2776 : 		//----------------------------------------------------------------------------------------------
; 2777 : 
; 2778 : 		if( gObj[iUserIndex].Level == 400 && gObj[iUserIndex].PartyNumber >= 0 )

  07e13	8b 45 08	 mov	 eax, DWORD PTR _iUserIndex$[ebp]
  07e16	69 c0 38 2b 00
	00		 imul	 eax, 11064		; 00002b38H
  07e1c	8b 0d 00 00 00
	00		 mov	 ecx, DWORD PTR ?gObj@@3PAUOBJECTSTRUCT@@A ; gObj
  07e22	0f bf 94 01 be
	00 00 00	 movsx	 edx, WORD PTR [ecx+eax+190]
  07e2a	81 fa 90 01 00
	00		 cmp	 edx, 400		; 00000190H
  07e30	0f 85 2f 01 00
	00		 jne	 $LN5@LevelUp
  07e36	8b 45 08	 mov	 eax, DWORD PTR _iUserIndex$[ebp]
  07e39	69 c0 38 2b 00
	00		 imul	 eax, 11064		; 00002b38H
  07e3f	8b 0d 00 00 00
	00		 mov	 ecx, DWORD PTR ?gObj@@3PAUOBJECTSTRUCT@@A ; gObj
  07e45	83 bc 01 2c 04
	00 00 00	 cmp	 DWORD PTR [ecx+eax+1068], 0
  07e4d	0f 8c 12 01 00
	00		 jl	 $LN5@LevelUp

; 2779 : 		{
; 2780 : 			int iPartyNumber = gObj[iUserIndex].PartyNumber;

  07e53	8b 45 08	 mov	 eax, DWORD PTR _iUserIndex$[ebp]
  07e56	69 c0 38 2b 00
	00		 imul	 eax, 11064		; 00002b38H
  07e5c	8b 0d 00 00 00
	00		 mov	 ecx, DWORD PTR ?gObj@@3PAUOBJECTSTRUCT@@A ; gObj
  07e62	8b 94 01 2c 04
	00 00		 mov	 edx, DWORD PTR [ecx+eax+1068]
  07e69	89 55 f0	 mov	 DWORD PTR _iPartyNumber$235031[ebp], edx

; 2781 : 			char szMsg[256];
; 2782 : 			sprintf(szMsg,"400 LevelUp (%s)(%s) Party ",gObj[iUserIndex].AccountID,gObj[iUserIndex].Name);

  07e6c	8b 45 08	 mov	 eax, DWORD PTR _iUserIndex$[ebp]
  07e6f	69 c0 38 2b 00
	00		 imul	 eax, 11064		; 00002b38H
  07e75	8b 0d 00 00 00
	00		 mov	 ecx, DWORD PTR ?gObj@@3PAUOBJECTSTRUCT@@A ; gObj
  07e7b	8d 54 01 77	 lea	 edx, DWORD PTR [ecx+eax+119]
  07e7f	52		 push	 edx
  07e80	8b 45 08	 mov	 eax, DWORD PTR _iUserIndex$[ebp]
  07e83	69 c0 38 2b 00
	00		 imul	 eax, 11064		; 00002b38H
  07e89	8b 0d 00 00 00
	00		 mov	 ecx, DWORD PTR ?gObj@@3PAUOBJECTSTRUCT@@A ; gObj
  07e8f	8d 54 01 6c	 lea	 edx, DWORD PTR [ecx+eax+108]
  07e93	52		 push	 edx
  07e94	68 00 00 00 00	 push	 OFFSET ??_C@_0BM@DJAOLMAF@400?5LevelUp?5?$CI?$CFs?$CJ?$CI?$CFs?$CJ?5Party?5?$AA@
  07e99	8d 85 f0 fe ff
	ff		 lea	 eax, DWORD PTR _szMsg$235032[ebp]
  07e9f	50		 push	 eax
  07ea0	e8 00 00 00 00	 call	 _sprintf
  07ea5	83 c4 10	 add	 esp, 16			; 00000010H

; 2783 : 			int iPartyNumIndex;
; 2784 : 
; 2785 : 			for( int i = 0; i<MAX_USER_IN_PARTY; i++ )

  07ea8	c7 85 e8 fe ff
	ff 00 00 00 00	 mov	 DWORD PTR _i$235035[ebp], 0
  07eb2	eb 0f		 jmp	 SHORT $LN4@LevelUp
$LN3@LevelUp:
  07eb4	8b 85 e8 fe ff
	ff		 mov	 eax, DWORD PTR _i$235035[ebp]
  07eba	83 c0 01	 add	 eax, 1
  07ebd	89 85 e8 fe ff
	ff		 mov	 DWORD PTR _i$235035[ebp], eax
$LN4@LevelUp:
  07ec3	83 bd e8 fe ff
	ff 0a		 cmp	 DWORD PTR _i$235035[ebp], 10 ; 0000000aH
  07eca	0f 8d 85 00 00
	00		 jge	 $LN2@LevelUp

; 2786 : 			{
; 2787 : 				iPartyNumIndex = gParty.m_PartyS[iPartyNumber].Number[i];

  07ed0	8b 45 f0	 mov	 eax, DWORD PTR _iPartyNumber$235031[ebp]
  07ed3	6b c0 6c	 imul	 eax, 108		; 0000006cH
  07ed6	8b 8d e8 fe ff
	ff		 mov	 ecx, DWORD PTR _i$235035[ebp]
  07edc	8b 94 88 0c 00
	00 00		 mov	 edx, DWORD PTR ?gParty@@3VPartyClass@@A[eax+ecx*4+12]
  07ee3	89 95 ec fe ff
	ff		 mov	 DWORD PTR _iPartyNumIndex$235034[ebp], edx

; 2788 : 
; 2789 : 				if( iPartyNumIndex >= 0  )

  07ee9	83 bd ec fe ff
	ff 00		 cmp	 DWORD PTR _iPartyNumIndex$235034[ebp], 0
  07ef0	7c 5e		 jl	 SHORT $LN1@LevelUp

; 2790 : 				{
; 2791 : 					int iSize = strlen(szMsg);

  07ef2	8d 85 f0 fe ff
	ff		 lea	 eax, DWORD PTR _szMsg$235032[ebp]
  07ef8	50		 push	 eax
  07ef9	e8 00 00 00 00	 call	 _strlen
  07efe	83 c4 04	 add	 esp, 4
  07f01	89 85 e4 fe ff
	ff		 mov	 DWORD PTR _iSize$235040[ebp], eax

; 2792 : 					sprintf(&szMsg[iSize],",(%s)(%s) ",gObj[iPartyNumIndex].AccountID,gObj[iPartyNumIndex].Name);

  07f07	8b 85 ec fe ff
	ff		 mov	 eax, DWORD PTR _iPartyNumIndex$235034[ebp]
  07f0d	69 c0 38 2b 00
	00		 imul	 eax, 11064		; 00002b38H
  07f13	8b 0d 00 00 00
	00		 mov	 ecx, DWORD PTR ?gObj@@3PAUOBJECTSTRUCT@@A ; gObj
  07f19	8d 54 01 77	 lea	 edx, DWORD PTR [ecx+eax+119]
  07f1d	52		 push	 edx
  07f1e	8b 85 ec fe ff
	ff		 mov	 eax, DWORD PTR _iPartyNumIndex$235034[ebp]
  07f24	69 c0 38 2b 00
	00		 imul	 eax, 11064		; 00002b38H
  07f2a	8b 0d 00 00 00
	00		 mov	 ecx, DWORD PTR ?gObj@@3PAUOBJECTSTRUCT@@A ; gObj
  07f30	8d 54 01 6c	 lea	 edx, DWORD PTR [ecx+eax+108]
  07f34	52		 push	 edx
  07f35	68 00 00 00 00	 push	 OFFSET ??_C@_0L@MNKEEMGH@?0?$CI?$CFs?$CJ?$CI?$CFs?$CJ?5?$AA@
  07f3a	8b 85 e4 fe ff
	ff		 mov	 eax, DWORD PTR _iSize$235040[ebp]
  07f40	8d 8c 05 f0 fe
	ff ff		 lea	 ecx, DWORD PTR _szMsg$235032[ebp+eax]
  07f47	51		 push	 ecx
  07f48	e8 00 00 00 00	 call	 _sprintf
  07f4d	83 c4 10	 add	 esp, 16			; 00000010H
$LN1@LevelUp:

; 2793 : 				}
; 2794 : 			}

  07f50	e9 5f ff ff ff	 jmp	 $LN3@LevelUp
$LN2@LevelUp:

; 2795 : 			LogAddTD(szMsg);

  07f55	8d 85 f0 fe ff
	ff		 lea	 eax, DWORD PTR _szMsg$235032[ebp]
  07f5b	50		 push	 eax
  07f5c	ff 15 00 00 00
	00		 call	 DWORD PTR ?LogAddTD@@3P6AXPADZZA ; LogAddTD
  07f62	83 c4 04	 add	 esp, 4
$LN5@LevelUp:

; 2796 : 		}
; 2797 : 	}
; 2798 : #ifndef FIX_DS_CRASH
; 2799 : 	GJSetCharacterInfo(&gObj[iUserIndex], gObj[iUserIndex].m_Index, 0);
; 2800 : #endif
; 2801 : #if(SYSTEM_ACHIEVEMENTS)
; 2802 : 	g_Achievements.LevelUp(iUserIndex);

  07f65	8b 45 08	 mov	 eax, DWORD PTR _iUserIndex$[ebp]
  07f68	50		 push	 eax
  07f69	b9 00 00 00 00	 mov	 ecx, OFFSET ?g_Achievements@@3VCAchievements@@A ; g_Achievements
  07f6e	e8 00 00 00 00	 call	 ?LevelUp@CAchievements@@QAEXH@Z ; CAchievements::LevelUp

; 2803 : #endif
; 2804 : 
; 2805 : 	return iLEFT_EXP;

  07f73	8b 45 f4	 mov	 eax, DWORD PTR _iLEFT_EXP$[ebp]
$LN15@LevelUp:

; 2806 : }

  07f76	5f		 pop	 edi
  07f77	5e		 pop	 esi
  07f78	5b		 pop	 ebx
  07f79	8b 4d fc	 mov	 ecx, DWORD PTR __$ArrayPad$[ebp]
  07f7c	33 cd		 xor	 ecx, ebp
  07f7e	e8 00 00 00 00	 call	 @__security_check_cookie@4
  07f83	8b e5		 mov	 esp, ebp
  07f85	5d		 pop	 ebp
  07f86	c2 08 00	 ret	 8
?LevelUp@CIllusionTempleProcess@@QAEHHH@Z ENDP		; CIllusionTempleProcess::LevelUp
_TEXT	ENDS
PUBLIC	?GetRemainTime@CIllusionTempleProcess@@QAEEXZ	; CIllusionTempleProcess::GetRemainTime
; Function compile flags: /Odtp /ZI
_TEXT	SEGMENT
_this$ = -4						; size = 4
?GetRemainTime@CIllusionTempleProcess@@QAEEXZ PROC	; CIllusionTempleProcess::GetRemainTime
; _this$ = ecx

; 2809 : {

  07f90	55		 push	 ebp
  07f91	8b ec		 mov	 ebp, esp
  07f93	83 ec 44	 sub	 esp, 68			; 00000044H
  07f96	53		 push	 ebx
  07f97	56		 push	 esi
  07f98	57		 push	 edi
  07f99	89 4d fc	 mov	 DWORD PTR _this$[ebp], ecx

; 2810 : 	if(!this->GetState())

  07f9c	8b 4d fc	 mov	 ecx, DWORD PTR _this$[ebp]
  07f9f	e8 00 00 00 00	 call	 ?GetState@CIllusionTempleProcess@@QAEEXZ ; CIllusionTempleProcess::GetState
  07fa4	0f b6 c0	 movzx	 eax, al
  07fa7	85 c0		 test	 eax, eax
  07fa9	75 0b		 jne	 SHORT $LN1@GetRemainT

; 2811 : 	{
; 2812 : 		return this->m_iLeftMinutesBeforeOpen;

  07fab	8b 45 fc	 mov	 eax, DWORD PTR _this$[ebp]
  07fae	8a 80 98 03 00
	00		 mov	 al, BYTE PTR [eax+920]
  07fb4	eb 02		 jmp	 SHORT $LN2@GetRemainT
$LN1@GetRemainT:

; 2813 : 	}
; 2814 : 
; 2815 : 	return 0;

  07fb6	32 c0		 xor	 al, al
$LN2@GetRemainT:

; 2816 : }

  07fb8	5f		 pop	 edi
  07fb9	5e		 pop	 esi
  07fba	5b		 pop	 ebx
  07fbb	8b e5		 mov	 esp, ebp
  07fbd	5d		 pop	 ebp
  07fbe	c3		 ret	 0
?GetRemainTime@CIllusionTempleProcess@@QAEEXZ ENDP	; CIllusionTempleProcess::GetRemainTime
_TEXT	ENDS
PUBLIC	?CheckShieldSpellTime@CIllusionTempleProcess@@QAEHH@Z ; CIllusionTempleProcess::CheckShieldSpellTime
; Function compile flags: /Odtp /ZI
_TEXT	SEGMENT
tv67 = -72						; size = 4
_this$ = -4						; size = 4
_aIndex$ = 8						; size = 4
?CheckShieldSpellTime@CIllusionTempleProcess@@QAEHH@Z PROC ; CIllusionTempleProcess::CheckShieldSpellTime
; _this$ = ecx

; 2819 : {

  07fc0	55		 push	 ebp
  07fc1	8b ec		 mov	 ebp, esp
  07fc3	83 ec 48	 sub	 esp, 72			; 00000048H
  07fc6	53		 push	 ebx
  07fc7	56		 push	 esi
  07fc8	57		 push	 edi
  07fc9	89 4d fc	 mov	 DWORD PTR _this$[ebp], ecx

; 2820 : 	if(CHECK_LIMIT( (aIndex), MAX_FLOOR_USER) == FALSE)

  07fcc	83 7d 08 00	 cmp	 DWORD PTR _aIndex$[ebp], 0
  07fd0	7d 09		 jge	 SHORT $LN6@CheckShiel
  07fd2	c7 45 b8 00 00
	00 00		 mov	 DWORD PTR tv67[ebp], 0
  07fd9	eb 0c		 jmp	 SHORT $LN7@CheckShiel
$LN6@CheckShiel:
  07fdb	33 c0		 xor	 eax, eax
  07fdd	83 7d 08 09	 cmp	 DWORD PTR _aIndex$[ebp], 9
  07fe1	0f 9e c0	 setle	 al
  07fe4	89 45 b8	 mov	 DWORD PTR tv67[ebp], eax
$LN7@CheckShiel:
  07fe7	83 7d b8 00	 cmp	 DWORD PTR tv67[ebp], 0
  07feb	75 04		 jne	 SHORT $LN3@CheckShiel

; 2821 : 	{
; 2822 : 		return FALSE;

  07fed	33 c0		 xor	 eax, eax
  07fef	eb 29		 jmp	 SHORT $LN4@CheckShiel
$LN3@CheckShiel:

; 2823 : 	}
; 2824 : 
; 2825 : 	if(this->m_FloorData[aIndex].m_iTeamPlayerIndex != -1)

  07ff1	8b 45 08	 mov	 eax, DWORD PTR _aIndex$[ebp]
  07ff4	6b c0 30	 imul	 eax, 48			; 00000030H
  07ff7	8b 4d fc	 mov	 ecx, DWORD PTR _this$[ebp]
  07ffa	83 7c 01 20 ff	 cmp	 DWORD PTR [ecx+eax+32], -1
  07fff	74 17		 je	 SHORT $LN2@CheckShiel

; 2826 : 	{
; 2827 : 		if(this->m_FloorData[aIndex].m_dwShieldSpellTime > 0)

  08001	8b 45 08	 mov	 eax, DWORD PTR _aIndex$[ebp]
  08004	6b c0 30	 imul	 eax, 48			; 00000030H
  08007	8b 4d fc	 mov	 ecx, DWORD PTR _this$[ebp]
  0800a	83 7c 01 28 00	 cmp	 DWORD PTR [ecx+eax+40], 0
  0800f	76 07		 jbe	 SHORT $LN2@CheckShiel

; 2828 : 		{
; 2829 : 			return TRUE;

  08011	b8 01 00 00 00	 mov	 eax, 1
  08016	eb 02		 jmp	 SHORT $LN4@CheckShiel
$LN2@CheckShiel:

; 2830 : 		}
; 2831 : 	}
; 2832 : 
; 2833 : 	return FALSE;

  08018	33 c0		 xor	 eax, eax
$LN4@CheckShiel:

; 2834 : }

  0801a	5f		 pop	 edi
  0801b	5e		 pop	 esi
  0801c	5b		 pop	 ebx
  0801d	8b e5		 mov	 esp, ebp
  0801f	5d		 pop	 ebp
  08020	c2 04 00	 ret	 4
?CheckShieldSpellTime@CIllusionTempleProcess@@QAEHH@Z ENDP ; CIllusionTempleProcess::CheckShieldSpellTime
_TEXT	ENDS
PUBLIC	?CheckRestrictionSpellTime@CIllusionTempleProcess@@QAEHH@Z ; CIllusionTempleProcess::CheckRestrictionSpellTime
; Function compile flags: /Odtp /ZI
_TEXT	SEGMENT
tv67 = -72						; size = 4
_this$ = -4						; size = 4
_aIndex$ = 8						; size = 4
?CheckRestrictionSpellTime@CIllusionTempleProcess@@QAEHH@Z PROC ; CIllusionTempleProcess::CheckRestrictionSpellTime
; _this$ = ecx

; 2837 : {

  08030	55		 push	 ebp
  08031	8b ec		 mov	 ebp, esp
  08033	83 ec 48	 sub	 esp, 72			; 00000048H
  08036	53		 push	 ebx
  08037	56		 push	 esi
  08038	57		 push	 edi
  08039	89 4d fc	 mov	 DWORD PTR _this$[ebp], ecx

; 2838 : 	if(CHECK_LIMIT( (aIndex), MAX_FLOOR_USER) == FALSE)

  0803c	83 7d 08 00	 cmp	 DWORD PTR _aIndex$[ebp], 0
  08040	7d 09		 jge	 SHORT $LN6@CheckRestr
  08042	c7 45 b8 00 00
	00 00		 mov	 DWORD PTR tv67[ebp], 0
  08049	eb 0c		 jmp	 SHORT $LN7@CheckRestr
$LN6@CheckRestr:
  0804b	33 c0		 xor	 eax, eax
  0804d	83 7d 08 09	 cmp	 DWORD PTR _aIndex$[ebp], 9
  08051	0f 9e c0	 setle	 al
  08054	89 45 b8	 mov	 DWORD PTR tv67[ebp], eax
$LN7@CheckRestr:
  08057	83 7d b8 00	 cmp	 DWORD PTR tv67[ebp], 0
  0805b	75 04		 jne	 SHORT $LN3@CheckRestr

; 2839 : 	{
; 2840 : 		return FALSE;

  0805d	33 c0		 xor	 eax, eax
  0805f	eb 29		 jmp	 SHORT $LN4@CheckRestr
$LN3@CheckRestr:

; 2841 : 	}
; 2842 : 
; 2843 : 	if(this->m_FloorData[aIndex].m_iTeamPlayerIndex != -1)

  08061	8b 45 08	 mov	 eax, DWORD PTR _aIndex$[ebp]
  08064	6b c0 30	 imul	 eax, 48			; 00000030H
  08067	8b 4d fc	 mov	 ecx, DWORD PTR _this$[ebp]
  0806a	83 7c 01 20 ff	 cmp	 DWORD PTR [ecx+eax+32], -1
  0806f	74 17		 je	 SHORT $LN2@CheckRestr

; 2844 : 	{
; 2845 : 		if(this->m_FloorData[aIndex].m_dwRestrictionSpellTime > 0)

  08071	8b 45 08	 mov	 eax, DWORD PTR _aIndex$[ebp]
  08074	6b c0 30	 imul	 eax, 48			; 00000030H
  08077	8b 4d fc	 mov	 ecx, DWORD PTR _this$[ebp]
  0807a	83 7c 01 2c 00	 cmp	 DWORD PTR [ecx+eax+44], 0
  0807f	76 07		 jbe	 SHORT $LN2@CheckRestr

; 2846 : 		{
; 2847 : 			return TRUE;

  08081	b8 01 00 00 00	 mov	 eax, 1
  08086	eb 02		 jmp	 SHORT $LN4@CheckRestr
$LN2@CheckRestr:

; 2848 : 		}
; 2849 : 	}
; 2850 : 
; 2851 : 	return FALSE;

  08088	33 c0		 xor	 eax, eax
$LN4@CheckRestr:

; 2852 : }

  0808a	5f		 pop	 edi
  0808b	5e		 pop	 esi
  0808c	5b		 pop	 ebx
  0808d	8b e5		 mov	 esp, ebp
  0808f	5d		 pop	 ebp
  08090	c2 04 00	 ret	 4
?CheckRestrictionSpellTime@CIllusionTempleProcess@@QAEHH@Z ENDP ; CIllusionTempleProcess::CheckRestrictionSpellTime
_TEXT	ENDS
PUBLIC	??_C@_0JI@DILJDNAH@?$FLIllusion?5Temple?$FN?5?$CI?$CFd?$CJ?5RewardExp@ ; `string'
PUBLIC	__$ArrayPad$
;	COMDAT ??_C@_0JI@DILJDNAH@?$FLIllusion?5Temple?$FN?5?$CI?$CFd?$CJ?5RewardExp@
CONST	SEGMENT
??_C@_0JI@DILJDNAH@?$FLIllusion?5Temple?$FN?5?$CI?$CFd?$CJ?5RewardExp@ DB '['
	DB	'Illusion Temple] (%d) RewardExp Result  (Account:%s, Name:%s,'
	DB	' Team:%d, Class:%d, UserKillCount:%d, RelicsMoveCount:%d, Rew'
	DB	'ardExp:%d, RankingPoint: %d)', 00H		; `string'
; Function compile flags: /Odtp /ZI
CONST	ENDS
_TEXT	SEGMENT
_TempMsg$235071 = -300					; size = 20
_i$ = -280						; size = 4
_pMsg$ = -276						; size = 7
_cTEMP_BUF$ = -268					; size = 256
_loc2$ = -12						; size = 4
_this$ = -8						; size = 4
__$ArrayPad$ = -4					; size = 4
?SendRewardScore@CIllusionTempleProcess@@QAEXXZ PROC	; CIllusionTempleProcess::SendRewardScore
; _this$ = ecx

; 2855 : {

  080a0	55		 push	 ebp
  080a1	8b ec		 mov	 ebp, esp
  080a3	81 ec 6c 01 00
	00		 sub	 esp, 364		; 0000016cH
  080a9	a1 00 00 00 00	 mov	 eax, DWORD PTR ___security_cookie
  080ae	33 c5		 xor	 eax, ebp
  080b0	89 45 fc	 mov	 DWORD PTR __$ArrayPad$[ebp], eax
  080b3	53		 push	 ebx
  080b4	56		 push	 esi
  080b5	57		 push	 edi
  080b6	89 4d f8	 mov	 DWORD PTR _this$[ebp], ecx

; 2856 : 	int loc2 = 0;

  080b9	c7 45 f4 00 00
	00 00		 mov	 DWORD PTR _loc2$[ebp], 0

; 2857 : 
; 2858 : 	char cTEMP_BUF[256];
; 2859 : 	_ILLUSIONTEMPLE_RANKING_DATA pMsg;
; 2860 : 
; 2861 : 	pMsg.m_btYellowTeamScore = this->m_btYellowTeamScore;

  080c0	8b 45 f8	 mov	 eax, DWORD PTR _this$[ebp]
  080c3	8a 88 d0 03 00
	00		 mov	 cl, BYTE PTR [eax+976]
  080c9	88 8d f0 fe ff
	ff		 mov	 BYTE PTR _pMsg$[ebp+4], cl

; 2862 : 	pMsg.m_btBlueTeamScore = this->m_btBlueTeamScore;

  080cf	8b 45 f8	 mov	 eax, DWORD PTR _this$[ebp]
  080d2	8a 88 d1 03 00
	00		 mov	 cl, BYTE PTR [eax+977]
  080d8	88 8d f1 fe ff
	ff		 mov	 BYTE PTR _pMsg$[ebp+5], cl

; 2863 : 	pMsg.m_btEnteredUserCount = this->m_iEnteredUserCount;

  080de	8b 45 f8	 mov	 eax, DWORD PTR _this$[ebp]
  080e1	8a 88 28 02 00
	00		 mov	 cl, BYTE PTR [eax+552]
  080e7	88 8d f2 fe ff
	ff		 mov	 BYTE PTR _pMsg$[ebp+6], cl

; 2864 : 
; 2865 : 	loc2 += sizeof(_ILLUSIONTEMPLE_RANKING_DATA);

  080ed	8b 45 f4	 mov	 eax, DWORD PTR _loc2$[ebp]
  080f0	83 c0 07	 add	 eax, 7
  080f3	89 45 f4	 mov	 DWORD PTR _loc2$[ebp], eax

; 2866 : 
; 2867 : 	int i;
; 2868 : 
; 2869 : 	for(i = 0; i < MAX_FLOOR_USER; i++)

  080f6	c7 85 e8 fe ff
	ff 00 00 00 00	 mov	 DWORD PTR _i$[ebp], 0
  08100	eb 0f		 jmp	 SHORT $LN9@SendReward
$LN8@SendReward:
  08102	8b 85 e8 fe ff
	ff		 mov	 eax, DWORD PTR _i$[ebp]
  08108	83 c0 01	 add	 eax, 1
  0810b	89 85 e8 fe ff
	ff		 mov	 DWORD PTR _i$[ebp], eax
$LN9@SendReward:
  08111	83 bd e8 fe ff
	ff 0a		 cmp	 DWORD PTR _i$[ebp], 10	; 0000000aH
  08118	0f 8d de 01 00
	00		 jge	 $LN7@SendReward

; 2870 : 	{
; 2871 : 		_ILLUSIONTEMPLE_PLAYER_RANK_DATA TempMsg;
; 2872 : 
; 2873 : 		if(this->m_FloorData[i].m_iTeamPlayerIndex != -1 && gObj[this->m_FloorData[i].m_iTeamPlayerIndex].Connected > PLAYER_LOGGED)

  0811e	8b 85 e8 fe ff
	ff		 mov	 eax, DWORD PTR _i$[ebp]
  08124	6b c0 30	 imul	 eax, 48			; 00000030H
  08127	8b 4d f8	 mov	 ecx, DWORD PTR _this$[ebp]
  0812a	83 7c 01 20 ff	 cmp	 DWORD PTR [ecx+eax+32], -1
  0812f	0f 84 c2 01 00
	00		 je	 $LN6@SendReward
  08135	8b 85 e8 fe ff
	ff		 mov	 eax, DWORD PTR _i$[ebp]
  0813b	6b c0 30	 imul	 eax, 48			; 00000030H
  0813e	8b 4d f8	 mov	 ecx, DWORD PTR _this$[ebp]
  08141	8b 54 01 20	 mov	 edx, DWORD PTR [ecx+eax+32]
  08145	69 d2 38 2b 00
	00		 imul	 edx, 11064		; 00002b38H
  0814b	a1 00 00 00 00	 mov	 eax, DWORD PTR ?gObj@@3PAUOBJECTSTRUCT@@A ; gObj
  08150	83 7c 10 04 02	 cmp	 DWORD PTR [eax+edx+4], 2
  08155	0f 8e 9c 01 00
	00		 jle	 $LN6@SendReward

; 2874 : 		{
; 2875 : 			memcpy(TempMsg.szCharacterName, gObj[this->m_FloorData[i].m_iTeamPlayerIndex].Name, 10);

  0815b	6a 0a		 push	 10			; 0000000aH
  0815d	8b 85 e8 fe ff
	ff		 mov	 eax, DWORD PTR _i$[ebp]
  08163	6b c0 30	 imul	 eax, 48			; 00000030H
  08166	8b 4d f8	 mov	 ecx, DWORD PTR _this$[ebp]
  08169	8b 54 01 20	 mov	 edx, DWORD PTR [ecx+eax+32]
  0816d	69 d2 38 2b 00
	00		 imul	 edx, 11064		; 00002b38H
  08173	a1 00 00 00 00	 mov	 eax, DWORD PTR ?gObj@@3PAUOBJECTSTRUCT@@A ; gObj
  08178	8d 4c 10 77	 lea	 ecx, DWORD PTR [eax+edx+119]
  0817c	51		 push	 ecx
  0817d	8d 95 d4 fe ff
	ff		 lea	 edx, DWORD PTR _TempMsg$235071[ebp]
  08183	52		 push	 edx
  08184	e8 00 00 00 00	 call	 _memcpy
  08189	83 c4 0c	 add	 esp, 12			; 0000000cH

; 2876 : 			TempMsg.m_btMapNumber = this->m_btFloorIndex + MAP_INDEX_ILLUSIONTEMPLE_MIN;

  0818c	8b 45 f8	 mov	 eax, DWORD PTR _this$[ebp]
  0818f	0f b6 88 2c 02
	00 00		 movzx	 ecx, BYTE PTR [eax+556]
  08196	83 c1 2d	 add	 ecx, 45			; 0000002dH
  08199	88 8d de fe ff
	ff		 mov	 BYTE PTR _TempMsg$235071[ebp+10], cl

; 2877 : 			TempMsg.m_btTeamJoinSide = this->m_FloorData[i].m_btTeamJoinSide;

  0819f	8b 85 e8 fe ff
	ff		 mov	 eax, DWORD PTR _i$[ebp]
  081a5	6b c0 30	 imul	 eax, 48			; 00000030H
  081a8	8b 4d f8	 mov	 ecx, DWORD PTR _this$[ebp]
  081ab	8a 54 01 24	 mov	 dl, BYTE PTR [ecx+eax+36]
  081af	88 95 df fe ff
	ff		 mov	 BYTE PTR _TempMsg$235071[ebp+11], dl

; 2878 : 			TempMsg.m_btClass = gObj[this->m_FloorData[i].m_iTeamPlayerIndex].Class;

  081b5	8b 85 e8 fe ff
	ff		 mov	 eax, DWORD PTR _i$[ebp]
  081bb	6b c0 30	 imul	 eax, 48			; 00000030H
  081be	8b 4d f8	 mov	 ecx, DWORD PTR _this$[ebp]
  081c1	8b 54 01 20	 mov	 edx, DWORD PTR [ecx+eax+32]
  081c5	69 d2 38 2b 00
	00		 imul	 edx, 11064		; 00002b38H
  081cb	a1 00 00 00 00	 mov	 eax, DWORD PTR ?gObj@@3PAUOBJECTSTRUCT@@A ; gObj
  081d0	8a 8c 10 b8 00
	00 00		 mov	 cl, BYTE PTR [eax+edx+184]
  081d7	88 8d e0 fe ff
	ff		 mov	 BYTE PTR _TempMsg$235071[ebp+12], cl

; 2879 : 			TempMsg.m_dwExpReward = this->m_FloorData[i].m_i64ExpReward;

  081dd	8b 85 e8 fe ff
	ff		 mov	 eax, DWORD PTR _i$[ebp]
  081e3	6b c0 30	 imul	 eax, 48			; 00000030H
  081e6	8b 4d f8	 mov	 ecx, DWORD PTR _this$[ebp]
  081e9	8b 54 01 38	 mov	 edx, DWORD PTR [ecx+eax+56]
  081ed	89 95 e4 fe ff
	ff		 mov	 DWORD PTR _TempMsg$235071[ebp+16], edx

; 2880 : 
; 2881 : 			memcpy(&cTEMP_BUF[loc2],&TempMsg,sizeof(_ILLUSIONTEMPLE_PLAYER_RANK_DATA));

  081f3	6a 14		 push	 20			; 00000014H
  081f5	8d 85 d4 fe ff
	ff		 lea	 eax, DWORD PTR _TempMsg$235071[ebp]
  081fb	50		 push	 eax
  081fc	8b 4d f4	 mov	 ecx, DWORD PTR _loc2$[ebp]
  081ff	8d 94 0d f4 fe
	ff ff		 lea	 edx, DWORD PTR _cTEMP_BUF$[ebp+ecx]
  08206	52		 push	 edx
  08207	e8 00 00 00 00	 call	 _memcpy
  0820c	83 c4 0c	 add	 esp, 12			; 0000000cH

; 2882 : 
; 2883 : 			loc2 += sizeof(_ILLUSIONTEMPLE_PLAYER_RANK_DATA);

  0820f	8b 45 f4	 mov	 eax, DWORD PTR _loc2$[ebp]
  08212	83 c0 14	 add	 eax, 20			; 00000014H
  08215	89 45 f4	 mov	 DWORD PTR _loc2$[ebp], eax

; 2884 : 
; 2885 : 			LogAddTD("[Illusion Temple] (%d) RewardExp Result  (Account:%s, Name:%s, Team:%d, Class:%d, UserKillCount:%d, RelicsMoveCount:%d, RewardExp:%d, RankingPoint: %d)", this->m_btFloorIndex+1, gObj[this->m_FloorData[i].m_iTeamPlayerIndex].AccountID, gObj[this->m_FloorData[i].m_iTeamPlayerIndex].Name, this->m_FloorData[i].m_btTeamJoinSide, gObj[this->m_FloorData[i].m_iTeamPlayerIndex].DbClass, this->m_FloorData[i].m_btUserKillCount, this->m_FloorData[i].m_btPlayerRewardKillCount, this->m_FloorData[i].m_i64ExpReward, this->m_FloorData[i].m_dwRankingPoint);

  08218	8b 85 e8 fe ff
	ff		 mov	 eax, DWORD PTR _i$[ebp]
  0821e	6b c0 30	 imul	 eax, 48			; 00000030H
  08221	8b 4d f8	 mov	 ecx, DWORD PTR _this$[ebp]
  08224	8b 54 01 40	 mov	 edx, DWORD PTR [ecx+eax+64]
  08228	52		 push	 edx
  08229	8b 85 e8 fe ff
	ff		 mov	 eax, DWORD PTR _i$[ebp]
  0822f	6b c0 30	 imul	 eax, 48			; 00000030H
  08232	8b 4d f8	 mov	 ecx, DWORD PTR _this$[ebp]
  08235	8b 54 01 3c	 mov	 edx, DWORD PTR [ecx+eax+60]
  08239	52		 push	 edx
  0823a	8b 44 01 38	 mov	 eax, DWORD PTR [ecx+eax+56]
  0823e	50		 push	 eax
  0823f	8b 8d e8 fe ff
	ff		 mov	 ecx, DWORD PTR _i$[ebp]
  08245	6b c9 30	 imul	 ecx, 48			; 00000030H
  08248	8b 55 f8	 mov	 edx, DWORD PTR _this$[ebp]
  0824b	0f b6 44 0a 32	 movzx	 eax, BYTE PTR [edx+ecx+50]
  08250	50		 push	 eax
  08251	8b 8d e8 fe ff
	ff		 mov	 ecx, DWORD PTR _i$[ebp]
  08257	6b c9 30	 imul	 ecx, 48			; 00000030H
  0825a	8b 55 f8	 mov	 edx, DWORD PTR _this$[ebp]
  0825d	0f b6 44 0a 30	 movzx	 eax, BYTE PTR [edx+ecx+48]
  08262	50		 push	 eax
  08263	8b 8d e8 fe ff
	ff		 mov	 ecx, DWORD PTR _i$[ebp]
  08269	6b c9 30	 imul	 ecx, 48			; 00000030H
  0826c	8b 55 f8	 mov	 edx, DWORD PTR _this$[ebp]
  0826f	8b 44 0a 20	 mov	 eax, DWORD PTR [edx+ecx+32]
  08273	69 c0 38 2b 00
	00		 imul	 eax, 11064		; 00002b38H
  08279	8b 0d 00 00 00
	00		 mov	 ecx, DWORD PTR ?gObj@@3PAUOBJECTSTRUCT@@A ; gObj
  0827f	0f b6 94 01 ba
	00 00 00	 movzx	 edx, BYTE PTR [ecx+eax+186]
  08287	52		 push	 edx
  08288	8b 85 e8 fe ff
	ff		 mov	 eax, DWORD PTR _i$[ebp]
  0828e	6b c0 30	 imul	 eax, 48			; 00000030H
  08291	8b 4d f8	 mov	 ecx, DWORD PTR _this$[ebp]
  08294	0f b6 54 01 24	 movzx	 edx, BYTE PTR [ecx+eax+36]
  08299	52		 push	 edx
  0829a	8b 85 e8 fe ff
	ff		 mov	 eax, DWORD PTR _i$[ebp]
  082a0	6b c0 30	 imul	 eax, 48			; 00000030H
  082a3	8b 4d f8	 mov	 ecx, DWORD PTR _this$[ebp]
  082a6	8b 54 01 20	 mov	 edx, DWORD PTR [ecx+eax+32]
  082aa	69 d2 38 2b 00
	00		 imul	 edx, 11064		; 00002b38H
  082b0	a1 00 00 00 00	 mov	 eax, DWORD PTR ?gObj@@3PAUOBJECTSTRUCT@@A ; gObj
  082b5	8d 4c 10 77	 lea	 ecx, DWORD PTR [eax+edx+119]
  082b9	51		 push	 ecx
  082ba	8b 95 e8 fe ff
	ff		 mov	 edx, DWORD PTR _i$[ebp]
  082c0	6b d2 30	 imul	 edx, 48			; 00000030H
  082c3	8b 45 f8	 mov	 eax, DWORD PTR _this$[ebp]
  082c6	8b 4c 10 20	 mov	 ecx, DWORD PTR [eax+edx+32]
  082ca	69 c9 38 2b 00
	00		 imul	 ecx, 11064		; 00002b38H
  082d0	8b 15 00 00 00
	00		 mov	 edx, DWORD PTR ?gObj@@3PAUOBJECTSTRUCT@@A ; gObj
  082d6	8d 44 0a 6c	 lea	 eax, DWORD PTR [edx+ecx+108]
  082da	50		 push	 eax
  082db	8b 4d f8	 mov	 ecx, DWORD PTR _this$[ebp]
  082de	0f b6 91 2c 02
	00 00		 movzx	 edx, BYTE PTR [ecx+556]
  082e5	83 c2 01	 add	 edx, 1
  082e8	52		 push	 edx
  082e9	68 00 00 00 00	 push	 OFFSET ??_C@_0JI@DILJDNAH@?$FLIllusion?5Temple?$FN?5?$CI?$CFd?$CJ?5RewardExp@
  082ee	ff 15 00 00 00
	00		 call	 DWORD PTR ?LogAddTD@@3P6AXPADZZA ; LogAddTD
  082f4	83 c4 2c	 add	 esp, 44			; 0000002cH
$LN6@SendReward:

; 2886 : 		}
; 2887 : 	}

  082f7	e9 06 fe ff ff	 jmp	 $LN8@SendReward
$LN7@SendReward:

; 2888 : 
; 2889 : 	PHeadSubSetB((LPBYTE)&pMsg, 0xBF, 0x04, loc2);

  082fc	8b 45 f4	 mov	 eax, DWORD PTR _loc2$[ebp]
  082ff	50		 push	 eax
  08300	6a 04		 push	 4
  08302	68 bf 00 00 00	 push	 191			; 000000bfH
  08307	8d 8d ec fe ff
	ff		 lea	 ecx, DWORD PTR _pMsg$[ebp]
  0830d	51		 push	 ecx
  0830e	e8 00 00 00 00	 call	 ?PHeadSubSetB@@YAXPAEEEH@Z ; PHeadSubSetB
  08313	83 c4 10	 add	 esp, 16			; 00000010H

; 2890 : 
; 2891 : 	memcpy(cTEMP_BUF,&pMsg,sizeof(pMsg));

  08316	6a 07		 push	 7
  08318	8d 85 ec fe ff
	ff		 lea	 eax, DWORD PTR _pMsg$[ebp]
  0831e	50		 push	 eax
  0831f	8d 8d f4 fe ff
	ff		 lea	 ecx, DWORD PTR _cTEMP_BUF$[ebp]
  08325	51		 push	 ecx
  08326	e8 00 00 00 00	 call	 _memcpy
  0832b	83 c4 0c	 add	 esp, 12			; 0000000cH

; 2892 : 
; 2893 : 	for(i = 0; i < MAX_FLOOR_USER; i++)

  0832e	c7 85 e8 fe ff
	ff 00 00 00 00	 mov	 DWORD PTR _i$[ebp], 0
  08338	eb 0f		 jmp	 SHORT $LN5@SendReward
$LN4@SendReward:
  0833a	8b 85 e8 fe ff
	ff		 mov	 eax, DWORD PTR _i$[ebp]
  08340	83 c0 01	 add	 eax, 1
  08343	89 85 e8 fe ff
	ff		 mov	 DWORD PTR _i$[ebp], eax
$LN5@SendReward:
  08349	83 bd e8 fe ff
	ff 0a		 cmp	 DWORD PTR _i$[ebp], 10	; 0000000aH
  08350	7d 7d		 jge	 SHORT $LN10@SendReward

; 2894 : 	{
; 2895 : 		if(this->m_FloorData[i].m_btTeamJoinSide == (BYTE)-1)

  08352	8b 85 e8 fe ff
	ff		 mov	 eax, DWORD PTR _i$[ebp]
  08358	6b c0 30	 imul	 eax, 48			; 00000030H
  0835b	8b 4d f8	 mov	 ecx, DWORD PTR _this$[ebp]
  0835e	0f b6 54 01 24	 movzx	 edx, BYTE PTR [ecx+eax+36]
  08363	81 fa ff 00 00
	00		 cmp	 edx, 255		; 000000ffH
  08369	75 02		 jne	 SHORT $LN2@SendReward

; 2896 : 		{
; 2897 : 			continue;

  0836b	eb cd		 jmp	 SHORT $LN4@SendReward
$LN2@SendReward:

; 2898 : 		}
; 2899 : 
; 2900 : 		if(this->m_FloorData[i].m_iTeamPlayerIndex != -1 && gObj[this->m_FloorData[i].m_iTeamPlayerIndex].Connected > PLAYER_LOGGED)

  0836d	8b 85 e8 fe ff
	ff		 mov	 eax, DWORD PTR _i$[ebp]
  08373	6b c0 30	 imul	 eax, 48			; 00000030H
  08376	8b 4d f8	 mov	 ecx, DWORD PTR _this$[ebp]
  08379	83 7c 01 20 ff	 cmp	 DWORD PTR [ecx+eax+32], -1
  0837e	74 4a		 je	 SHORT $LN1@SendReward
  08380	8b 85 e8 fe ff
	ff		 mov	 eax, DWORD PTR _i$[ebp]
  08386	6b c0 30	 imul	 eax, 48			; 00000030H
  08389	8b 4d f8	 mov	 ecx, DWORD PTR _this$[ebp]
  0838c	8b 54 01 20	 mov	 edx, DWORD PTR [ecx+eax+32]
  08390	69 d2 38 2b 00
	00		 imul	 edx, 11064		; 00002b38H
  08396	a1 00 00 00 00	 mov	 eax, DWORD PTR ?gObj@@3PAUOBJECTSTRUCT@@A ; gObj
  0839b	83 7c 10 04 02	 cmp	 DWORD PTR [eax+edx+4], 2
  083a0	7e 28		 jle	 SHORT $LN1@SendReward

; 2901 : 		{
; 2902 : 			DataSend(this->m_FloorData[i].m_iTeamPlayerIndex,(LPBYTE)cTEMP_BUF,pMsg.h.size);

  083a2	0f b6 85 ed fe
	ff ff		 movzx	 eax, BYTE PTR _pMsg$[ebp+1]
  083a9	50		 push	 eax
  083aa	8d 8d f4 fe ff
	ff		 lea	 ecx, DWORD PTR _cTEMP_BUF$[ebp]
  083b0	51		 push	 ecx
  083b1	8b 95 e8 fe ff
	ff		 mov	 edx, DWORD PTR _i$[ebp]
  083b7	6b d2 30	 imul	 edx, 48			; 00000030H
  083ba	8b 45 f8	 mov	 eax, DWORD PTR _this$[ebp]
  083bd	8b 4c 10 20	 mov	 ecx, DWORD PTR [eax+edx+32]
  083c1	51		 push	 ecx
  083c2	e8 00 00 00 00	 call	 ?DataSend@@YAHHPAEK@Z	; DataSend
  083c7	83 c4 0c	 add	 esp, 12			; 0000000cH
$LN1@SendReward:

; 2903 : 		}
; 2904 : 	}

  083ca	e9 6b ff ff ff	 jmp	 $LN4@SendReward
$LN10@SendReward:

; 2905 : }

  083cf	5f		 pop	 edi
  083d0	5e		 pop	 esi
  083d1	5b		 pop	 ebx
  083d2	8b 4d fc	 mov	 ecx, DWORD PTR __$ArrayPad$[ebp]
  083d5	33 cd		 xor	 ecx, ebp
  083d7	e8 00 00 00 00	 call	 @__security_check_cookie@4
  083dc	8b e5		 mov	 esp, ebp
  083de	5d		 pop	 ebp
  083df	c3		 ret	 0
?SendRewardScore@CIllusionTempleProcess@@QAEXXZ ENDP	; CIllusionTempleProcess::SendRewardScore
_TEXT	ENDS
PUBLIC	??0?$_List_iterator@V?$_List_val@UILLUSIONTEMPLE_START_TIME@@V?$allocator@UILLUSIONTEMPLE_START_TIME@@@std@@@std@@@std@@QAE@PAU_Node@?$_List_nod@UILLUSIONTEMPLE_START_TIME@@V?$allocator@UILLUSIONTEMPLE_START_TIME@@@std@@@1@PBV?$_List_val@UILLUSIONTEMPLE_START_TIME@@V?$allocator@UILLUSIONTEMPLE_START_TIME@@@std@@@1@@Z ; std::_List_iterator<std::_List_val<ILLUSIONTEMPLE_START_TIME,std::allocator<ILLUSIONTEMPLE_START_TIME> > >::_List_iterator<std::_List_val<ILLUSIONTEMPLE_START_TIME,std::allocator<ILLUSIONTEMPLE_START_TIME> > >
PUBLIC	?_Nextnode@?$_List_val@UILLUSIONTEMPLE_START_TIME@@V?$allocator@UILLUSIONTEMPLE_START_TIME@@@std@@@std@@SAAAPAU_Node@?$_List_nod@UILLUSIONTEMPLE_START_TIME@@V?$allocator@UILLUSIONTEMPLE_START_TIME@@@std@@@2@PAU342@@Z ; std::_List_val<ILLUSIONTEMPLE_START_TIME,std::allocator<ILLUSIONTEMPLE_START_TIME> >::_Nextnode
; Function compile flags: /Odtp /ZI
; File d:\microsoft visual studio 10.0\vc\include\list
;	COMDAT ?begin@?$list@UILLUSIONTEMPLE_START_TIME@@V?$allocator@UILLUSIONTEMPLE_START_TIME@@@std@@@std@@QAE?AV?$_List_iterator@V?$_List_val@UILLUSIONTEMPLE_START_TIME@@V?$allocator@UILLUSIONTEMPLE_START_TIME@@@std@@@std@@@2@XZ
_TEXT	SEGMENT
_this$ = -4						; size = 4
___$ReturnUdt$ = 8					; size = 4
?begin@?$list@UILLUSIONTEMPLE_START_TIME@@V?$allocator@UILLUSIONTEMPLE_START_TIME@@@std@@@std@@QAE?AV?$_List_iterator@V?$_List_val@UILLUSIONTEMPLE_START_TIME@@V?$allocator@UILLUSIONTEMPLE_START_TIME@@@std@@@std@@@2@XZ PROC ; std::list<ILLUSIONTEMPLE_START_TIME,std::allocator<ILLUSIONTEMPLE_START_TIME> >::begin, COMDAT
; _this$ = ecx

; 781  : 		{	// return iterator for beginning of mutable sequence

  00000	55		 push	 ebp
  00001	8b ec		 mov	 ebp, esp
  00003	83 ec 44	 sub	 esp, 68			; 00000044H
  00006	53		 push	 ebx
  00007	56		 push	 esi
  00008	57		 push	 edi
  00009	89 4d fc	 mov	 DWORD PTR _this$[ebp], ecx

; 782  : 		return (iterator(this->_Nextnode(this->_Myhead), this));

  0000c	8b 45 fc	 mov	 eax, DWORD PTR _this$[ebp]
  0000f	50		 push	 eax
  00010	8b 4d fc	 mov	 ecx, DWORD PTR _this$[ebp]
  00013	8b 11		 mov	 edx, DWORD PTR [ecx]
  00015	52		 push	 edx
  00016	e8 00 00 00 00	 call	 ?_Nextnode@?$_List_val@UILLUSIONTEMPLE_START_TIME@@V?$allocator@UILLUSIONTEMPLE_START_TIME@@@std@@@std@@SAAAPAU_Node@?$_List_nod@UILLUSIONTEMPLE_START_TIME@@V?$allocator@UILLUSIONTEMPLE_START_TIME@@@std@@@2@PAU342@@Z ; std::_List_val<ILLUSIONTEMPLE_START_TIME,std::allocator<ILLUSIONTEMPLE_START_TIME> >::_Nextnode
  0001b	83 c4 04	 add	 esp, 4
  0001e	8b 00		 mov	 eax, DWORD PTR [eax]
  00020	50		 push	 eax
  00021	8b 4d 08	 mov	 ecx, DWORD PTR ___$ReturnUdt$[ebp]
  00024	e8 00 00 00 00	 call	 ??0?$_List_iterator@V?$_List_val@UILLUSIONTEMPLE_START_TIME@@V?$allocator@UILLUSIONTEMPLE_START_TIME@@@std@@@std@@@std@@QAE@PAU_Node@?$_List_nod@UILLUSIONTEMPLE_START_TIME@@V?$allocator@UILLUSIONTEMPLE_START_TIME@@@std@@@1@PBV?$_List_val@UILLUSIONTEMPLE_START_TIME@@V?$allocator@UILLUSIONTEMPLE_START_TIME@@@std@@@1@@Z ; std::_List_iterator<std::_List_val<ILLUSIONTEMPLE_START_TIME,std::allocator<ILLUSIONTEMPLE_START_TIME> > >::_List_iterator<std::_List_val<ILLUSIONTEMPLE_START_TIME,std::allocator<ILLUSIONTEMPLE_START_TIME> > >
  00029	8b 45 08	 mov	 eax, DWORD PTR ___$ReturnUdt$[ebp]

; 783  : 		}

  0002c	5f		 pop	 edi
  0002d	5e		 pop	 esi
  0002e	5b		 pop	 ebx
  0002f	8b e5		 mov	 esp, ebp
  00031	5d		 pop	 ebp
  00032	c2 04 00	 ret	 4
?begin@?$list@UILLUSIONTEMPLE_START_TIME@@V?$allocator@UILLUSIONTEMPLE_START_TIME@@@std@@@std@@QAE?AV?$_List_iterator@V?$_List_val@UILLUSIONTEMPLE_START_TIME@@V?$allocator@UILLUSIONTEMPLE_START_TIME@@@std@@@std@@@2@XZ ENDP ; std::list<ILLUSIONTEMPLE_START_TIME,std::allocator<ILLUSIONTEMPLE_START_TIME> >::begin
; Function compile flags: /Odtp /ZI
_TEXT	ENDS
;	COMDAT ?end@?$list@UILLUSIONTEMPLE_START_TIME@@V?$allocator@UILLUSIONTEMPLE_START_TIME@@@std@@@std@@QAE?AV?$_List_iterator@V?$_List_val@UILLUSIONTEMPLE_START_TIME@@V?$allocator@UILLUSIONTEMPLE_START_TIME@@@std@@@std@@@2@XZ
_TEXT	SEGMENT
_this$ = -4						; size = 4
___$ReturnUdt$ = 8					; size = 4
?end@?$list@UILLUSIONTEMPLE_START_TIME@@V?$allocator@UILLUSIONTEMPLE_START_TIME@@@std@@@std@@QAE?AV?$_List_iterator@V?$_List_val@UILLUSIONTEMPLE_START_TIME@@V?$allocator@UILLUSIONTEMPLE_START_TIME@@@std@@@std@@@2@XZ PROC ; std::list<ILLUSIONTEMPLE_START_TIME,std::allocator<ILLUSIONTEMPLE_START_TIME> >::end, COMDAT
; _this$ = ecx

; 791  : 		{	// return iterator for end of mutable sequence

  00000	55		 push	 ebp
  00001	8b ec		 mov	 ebp, esp
  00003	83 ec 44	 sub	 esp, 68			; 00000044H
  00006	53		 push	 ebx
  00007	56		 push	 esi
  00008	57		 push	 edi
  00009	89 4d fc	 mov	 DWORD PTR _this$[ebp], ecx

; 792  : 		return (iterator(this->_Myhead, this));

  0000c	8b 45 fc	 mov	 eax, DWORD PTR _this$[ebp]
  0000f	50		 push	 eax
  00010	8b 4d fc	 mov	 ecx, DWORD PTR _this$[ebp]
  00013	8b 11		 mov	 edx, DWORD PTR [ecx]
  00015	52		 push	 edx
  00016	8b 4d 08	 mov	 ecx, DWORD PTR ___$ReturnUdt$[ebp]
  00019	e8 00 00 00 00	 call	 ??0?$_List_iterator@V?$_List_val@UILLUSIONTEMPLE_START_TIME@@V?$allocator@UILLUSIONTEMPLE_START_TIME@@@std@@@std@@@std@@QAE@PAU_Node@?$_List_nod@UILLUSIONTEMPLE_START_TIME@@V?$allocator@UILLUSIONTEMPLE_START_TIME@@@std@@@1@PBV?$_List_val@UILLUSIONTEMPLE_START_TIME@@V?$allocator@UILLUSIONTEMPLE_START_TIME@@@std@@@1@@Z ; std::_List_iterator<std::_List_val<ILLUSIONTEMPLE_START_TIME,std::allocator<ILLUSIONTEMPLE_START_TIME> > >::_List_iterator<std::_List_val<ILLUSIONTEMPLE_START_TIME,std::allocator<ILLUSIONTEMPLE_START_TIME> > >
  0001e	8b 45 08	 mov	 eax, DWORD PTR ___$ReturnUdt$[ebp]

; 793  : 		}

  00021	5f		 pop	 edi
  00022	5e		 pop	 esi
  00023	5b		 pop	 ebx
  00024	8b e5		 mov	 esp, ebp
  00026	5d		 pop	 ebp
  00027	c2 04 00	 ret	 4
?end@?$list@UILLUSIONTEMPLE_START_TIME@@V?$allocator@UILLUSIONTEMPLE_START_TIME@@@std@@@std@@QAE?AV?$_List_iterator@V?$_List_val@UILLUSIONTEMPLE_START_TIME@@V?$allocator@UILLUSIONTEMPLE_START_TIME@@@std@@@std@@@2@XZ ENDP ; std::list<ILLUSIONTEMPLE_START_TIME,std::allocator<ILLUSIONTEMPLE_START_TIME> >::end
; Function compile flags: /Odtp /ZI
_TEXT	ENDS
;	COMDAT ?size@?$list@UILLUSIONTEMPLE_START_TIME@@V?$allocator@UILLUSIONTEMPLE_START_TIME@@@std@@@std@@QBEIXZ
_TEXT	SEGMENT
_this$ = -4						; size = 4
?size@?$list@UILLUSIONTEMPLE_START_TIME@@V?$allocator@UILLUSIONTEMPLE_START_TIME@@@std@@@std@@QBEIXZ PROC ; std::list<ILLUSIONTEMPLE_START_TIME,std::allocator<ILLUSIONTEMPLE_START_TIME> >::size, COMDAT
; _this$ = ecx

; 876  : 		{	// return length of sequence

  00000	55		 push	 ebp
  00001	8b ec		 mov	 ebp, esp
  00003	83 ec 44	 sub	 esp, 68			; 00000044H
  00006	53		 push	 ebx
  00007	56		 push	 esi
  00008	57		 push	 edi
  00009	89 4d fc	 mov	 DWORD PTR _this$[ebp], ecx

; 877  : 		return (this->_Mysize);

  0000c	8b 45 fc	 mov	 eax, DWORD PTR _this$[ebp]
  0000f	8b 40 04	 mov	 eax, DWORD PTR [eax+4]

; 878  : 		}

  00012	5f		 pop	 edi
  00013	5e		 pop	 esi
  00014	5b		 pop	 ebx
  00015	8b e5		 mov	 esp, ebp
  00017	5d		 pop	 ebp
  00018	c3		 ret	 0
?size@?$list@UILLUSIONTEMPLE_START_TIME@@V?$allocator@UILLUSIONTEMPLE_START_TIME@@@std@@@std@@QBEIXZ ENDP ; std::list<ILLUSIONTEMPLE_START_TIME,std::allocator<ILLUSIONTEMPLE_START_TIME> >::size
_TEXT	ENDS
PUBLIC	??0?$_List_const_iterator@V?$_List_val@UILLUSIONTEMPLE_START_TIME@@V?$allocator@UILLUSIONTEMPLE_START_TIME@@@std@@@std@@@std@@QAE@XZ ; std::_List_const_iterator<std::_List_val<ILLUSIONTEMPLE_START_TIME,std::allocator<ILLUSIONTEMPLE_START_TIME> > >::_List_const_iterator<std::_List_val<ILLUSIONTEMPLE_START_TIME,std::allocator<ILLUSIONTEMPLE_START_TIME> > >
; Function compile flags: /Odtp /ZI
;	COMDAT ??0?$_List_iterator@V?$_List_val@UILLUSIONTEMPLE_START_TIME@@V?$allocator@UILLUSIONTEMPLE_START_TIME@@@std@@@std@@@std@@QAE@XZ
_TEXT	SEGMENT
_this$ = -4						; size = 4
??0?$_List_iterator@V?$_List_val@UILLUSIONTEMPLE_START_TIME@@V?$allocator@UILLUSIONTEMPLE_START_TIME@@@std@@@std@@@std@@QAE@XZ PROC ; std::_List_iterator<std::_List_val<ILLUSIONTEMPLE_START_TIME,std::allocator<ILLUSIONTEMPLE_START_TIME> > >::_List_iterator<std::_List_val<ILLUSIONTEMPLE_START_TIME,std::allocator<ILLUSIONTEMPLE_START_TIME> > >, COMDAT
; _this$ = ecx

; 336  : 	_List_iterator()

  00000	55		 push	 ebp
  00001	8b ec		 mov	 ebp, esp
  00003	83 ec 44	 sub	 esp, 68			; 00000044H
  00006	53		 push	 ebx
  00007	56		 push	 esi
  00008	57		 push	 edi
  00009	89 4d fc	 mov	 DWORD PTR _this$[ebp], ecx
  0000c	8b 4d fc	 mov	 ecx, DWORD PTR _this$[ebp]
  0000f	e8 00 00 00 00	 call	 ??0?$_List_const_iterator@V?$_List_val@UILLUSIONTEMPLE_START_TIME@@V?$allocator@UILLUSIONTEMPLE_START_TIME@@@std@@@std@@@std@@QAE@XZ ; std::_List_const_iterator<std::_List_val<ILLUSIONTEMPLE_START_TIME,std::allocator<ILLUSIONTEMPLE_START_TIME> > >::_List_const_iterator<std::_List_val<ILLUSIONTEMPLE_START_TIME,std::allocator<ILLUSIONTEMPLE_START_TIME> > >

; 337  : 		{	// construct with null node
; 338  : 		}

  00014	8b 45 fc	 mov	 eax, DWORD PTR _this$[ebp]
  00017	5f		 pop	 edi
  00018	5e		 pop	 esi
  00019	5b		 pop	 ebx
  0001a	8b e5		 mov	 esp, ebp
  0001c	5d		 pop	 ebp
  0001d	c3		 ret	 0
??0?$_List_iterator@V?$_List_val@UILLUSIONTEMPLE_START_TIME@@V?$allocator@UILLUSIONTEMPLE_START_TIME@@@std@@@std@@@std@@QAE@XZ ENDP ; std::_List_iterator<std::_List_val<ILLUSIONTEMPLE_START_TIME,std::allocator<ILLUSIONTEMPLE_START_TIME> > >::_List_iterator<std::_List_val<ILLUSIONTEMPLE_START_TIME,std::allocator<ILLUSIONTEMPLE_START_TIME> > >
_TEXT	ENDS
PUBLIC	??D?$_List_const_iterator@V?$_List_val@UILLUSIONTEMPLE_START_TIME@@V?$allocator@UILLUSIONTEMPLE_START_TIME@@@std@@@std@@@std@@QBEABUILLUSIONTEMPLE_START_TIME@@XZ ; std::_List_const_iterator<std::_List_val<ILLUSIONTEMPLE_START_TIME,std::allocator<ILLUSIONTEMPLE_START_TIME> > >::operator*
; Function compile flags: /Odtp /ZI
;	COMDAT ??D?$_List_iterator@V?$_List_val@UILLUSIONTEMPLE_START_TIME@@V?$allocator@UILLUSIONTEMPLE_START_TIME@@@std@@@std@@@std@@QBEAAUILLUSIONTEMPLE_START_TIME@@XZ
_TEXT	SEGMENT
_this$ = -4						; size = 4
??D?$_List_iterator@V?$_List_val@UILLUSIONTEMPLE_START_TIME@@V?$allocator@UILLUSIONTEMPLE_START_TIME@@@std@@@std@@@std@@QBEAAUILLUSIONTEMPLE_START_TIME@@XZ PROC ; std::_List_iterator<std::_List_val<ILLUSIONTEMPLE_START_TIME,std::allocator<ILLUSIONTEMPLE_START_TIME> > >::operator*, COMDAT
; _this$ = ecx

; 359  : 		{	// return designated value

  00000	55		 push	 ebp
  00001	8b ec		 mov	 ebp, esp
  00003	83 ec 44	 sub	 esp, 68			; 00000044H
  00006	53		 push	 ebx
  00007	56		 push	 esi
  00008	57		 push	 edi
  00009	89 4d fc	 mov	 DWORD PTR _this$[ebp], ecx

; 360  : 		return ((reference)**(_Mybase *)this);

  0000c	8b 4d fc	 mov	 ecx, DWORD PTR _this$[ebp]
  0000f	e8 00 00 00 00	 call	 ??D?$_List_const_iterator@V?$_List_val@UILLUSIONTEMPLE_START_TIME@@V?$allocator@UILLUSIONTEMPLE_START_TIME@@@std@@@std@@@std@@QBEABUILLUSIONTEMPLE_START_TIME@@XZ ; std::_List_const_iterator<std::_List_val<ILLUSIONTEMPLE_START_TIME,std::allocator<ILLUSIONTEMPLE_START_TIME> > >::operator*

; 361  : 		}

  00014	5f		 pop	 edi
  00015	5e		 pop	 esi
  00016	5b		 pop	 ebx
  00017	8b e5		 mov	 esp, ebp
  00019	5d		 pop	 ebp
  0001a	c3		 ret	 0
??D?$_List_iterator@V?$_List_val@UILLUSIONTEMPLE_START_TIME@@V?$allocator@UILLUSIONTEMPLE_START_TIME@@@std@@@std@@@std@@QBEAAUILLUSIONTEMPLE_START_TIME@@XZ ENDP ; std::_List_iterator<std::_List_val<ILLUSIONTEMPLE_START_TIME,std::allocator<ILLUSIONTEMPLE_START_TIME> > >::operator*
_TEXT	ENDS
PUBLIC	??E?$_List_const_iterator@V?$_List_val@UILLUSIONTEMPLE_START_TIME@@V?$allocator@UILLUSIONTEMPLE_START_TIME@@@std@@@std@@@std@@QAEAAV01@XZ ; std::_List_const_iterator<std::_List_val<ILLUSIONTEMPLE_START_TIME,std::allocator<ILLUSIONTEMPLE_START_TIME> > >::operator++
; Function compile flags: /Odtp /ZI
;	COMDAT ??E?$_List_iterator@V?$_List_val@UILLUSIONTEMPLE_START_TIME@@V?$allocator@UILLUSIONTEMPLE_START_TIME@@@std@@@std@@@std@@QAEAAV01@XZ
_TEXT	SEGMENT
_this$ = -4						; size = 4
??E?$_List_iterator@V?$_List_val@UILLUSIONTEMPLE_START_TIME@@V?$allocator@UILLUSIONTEMPLE_START_TIME@@@std@@@std@@@std@@QAEAAV01@XZ PROC ; std::_List_iterator<std::_List_val<ILLUSIONTEMPLE_START_TIME,std::allocator<ILLUSIONTEMPLE_START_TIME> > >::operator++, COMDAT
; _this$ = ecx

; 369  : 		{	// preincrement

  00000	55		 push	 ebp
  00001	8b ec		 mov	 ebp, esp
  00003	83 ec 44	 sub	 esp, 68			; 00000044H
  00006	53		 push	 ebx
  00007	56		 push	 esi
  00008	57		 push	 edi
  00009	89 4d fc	 mov	 DWORD PTR _this$[ebp], ecx

; 370  : 		++(*(_Mybase *)this);

  0000c	8b 4d fc	 mov	 ecx, DWORD PTR _this$[ebp]
  0000f	e8 00 00 00 00	 call	 ??E?$_List_const_iterator@V?$_List_val@UILLUSIONTEMPLE_START_TIME@@V?$allocator@UILLUSIONTEMPLE_START_TIME@@@std@@@std@@@std@@QAEAAV01@XZ ; std::_List_const_iterator<std::_List_val<ILLUSIONTEMPLE_START_TIME,std::allocator<ILLUSIONTEMPLE_START_TIME> > >::operator++

; 371  : 		return (*this);

  00014	8b 45 fc	 mov	 eax, DWORD PTR _this$[ebp]

; 372  : 		}

  00017	5f		 pop	 edi
  00018	5e		 pop	 esi
  00019	5b		 pop	 ebx
  0001a	8b e5		 mov	 esp, ebp
  0001c	5d		 pop	 ebp
  0001d	c3		 ret	 0
??E?$_List_iterator@V?$_List_val@UILLUSIONTEMPLE_START_TIME@@V?$allocator@UILLUSIONTEMPLE_START_TIME@@@std@@@std@@@std@@QAEAAV01@XZ ENDP ; std::_List_iterator<std::_List_val<ILLUSIONTEMPLE_START_TIME,std::allocator<ILLUSIONTEMPLE_START_TIME> > >::operator++
; Function compile flags: /Odtp /ZI
_TEXT	ENDS
;	COMDAT ??E?$_List_iterator@V?$_List_val@UILLUSIONTEMPLE_START_TIME@@V?$allocator@UILLUSIONTEMPLE_START_TIME@@@std@@@std@@@std@@QAE?AV01@H@Z
_TEXT	SEGMENT
__Tmp$ = -8						; size = 4
_this$ = -4						; size = 4
___$ReturnUdt$ = 8					; size = 4
___formal$ = 12						; size = 4
??E?$_List_iterator@V?$_List_val@UILLUSIONTEMPLE_START_TIME@@V?$allocator@UILLUSIONTEMPLE_START_TIME@@@std@@@std@@@std@@QAE?AV01@H@Z PROC ; std::_List_iterator<std::_List_val<ILLUSIONTEMPLE_START_TIME,std::allocator<ILLUSIONTEMPLE_START_TIME> > >::operator++, COMDAT
; _this$ = ecx

; 375  : 		{	// postincrement

  00000	55		 push	 ebp
  00001	8b ec		 mov	 ebp, esp
  00003	83 ec 48	 sub	 esp, 72			; 00000048H
  00006	53		 push	 ebx
  00007	56		 push	 esi
  00008	57		 push	 edi
  00009	89 4d fc	 mov	 DWORD PTR _this$[ebp], ecx

; 376  : 		_Myiter _Tmp = *this;

  0000c	8b 45 fc	 mov	 eax, DWORD PTR _this$[ebp]
  0000f	8b 08		 mov	 ecx, DWORD PTR [eax]
  00011	89 4d f8	 mov	 DWORD PTR __Tmp$[ebp], ecx

; 377  : 		++*this;

  00014	8b 4d fc	 mov	 ecx, DWORD PTR _this$[ebp]
  00017	e8 00 00 00 00	 call	 ??E?$_List_iterator@V?$_List_val@UILLUSIONTEMPLE_START_TIME@@V?$allocator@UILLUSIONTEMPLE_START_TIME@@@std@@@std@@@std@@QAEAAV01@XZ ; std::_List_iterator<std::_List_val<ILLUSIONTEMPLE_START_TIME,std::allocator<ILLUSIONTEMPLE_START_TIME> > >::operator++

; 378  : 		return (_Tmp);

  0001c	8b 45 08	 mov	 eax, DWORD PTR ___$ReturnUdt$[ebp]
  0001f	8b 4d f8	 mov	 ecx, DWORD PTR __Tmp$[ebp]
  00022	89 08		 mov	 DWORD PTR [eax], ecx
  00024	8b 45 08	 mov	 eax, DWORD PTR ___$ReturnUdt$[ebp]

; 379  : 		}

  00027	5f		 pop	 edi
  00028	5e		 pop	 esi
  00029	5b		 pop	 ebx
  0002a	8b e5		 mov	 esp, ebp
  0002c	5d		 pop	 ebp
  0002d	c2 08 00	 ret	 8
??E?$_List_iterator@V?$_List_val@UILLUSIONTEMPLE_START_TIME@@V?$allocator@UILLUSIONTEMPLE_START_TIME@@@std@@@std@@@std@@QAE?AV01@H@Z ENDP ; std::_List_iterator<std::_List_val<ILLUSIONTEMPLE_START_TIME,std::allocator<ILLUSIONTEMPLE_START_TIME> > >::operator++
; Function compile flags: /Odtp /ZI
_TEXT	ENDS
;	COMDAT ??8?$_List_const_iterator@V?$_List_val@UILLUSIONTEMPLE_START_TIME@@V?$allocator@UILLUSIONTEMPLE_START_TIME@@@std@@@std@@@std@@QBE_NABV01@@Z
_TEXT	SEGMENT
_this$ = -4						; size = 4
__Right$ = 8						; size = 4
??8?$_List_const_iterator@V?$_List_val@UILLUSIONTEMPLE_START_TIME@@V?$allocator@UILLUSIONTEMPLE_START_TIME@@@std@@@std@@@std@@QBE_NABV01@@Z PROC ; std::_List_const_iterator<std::_List_val<ILLUSIONTEMPLE_START_TIME,std::allocator<ILLUSIONTEMPLE_START_TIME> > >::operator==, COMDAT
; _this$ = ecx

; 281  : 		{	// test for iterator equality

  00000	55		 push	 ebp
  00001	8b ec		 mov	 ebp, esp
  00003	83 ec 44	 sub	 esp, 68			; 00000044H
  00006	53		 push	 ebx
  00007	56		 push	 esi
  00008	57		 push	 edi
  00009	89 4d fc	 mov	 DWORD PTR _this$[ebp], ecx

; 282  :  #if _ITERATOR_DEBUG_LEVEL == 2
; 283  : 		if (this->_Getcont() == 0
; 284  : 			|| this->_Getcont() != _Right._Getcont())
; 285  : 			{	// report error
; 286  : 			_DEBUG_ERROR("list iterators incompatible");
; 287  : 			_SCL_SECURE_INVALID_ARGUMENT;
; 288  : 			}
; 289  : 
; 290  :  #elif _ITERATOR_DEBUG_LEVEL == 1
; 291  : 		_SCL_SECURE_VALIDATE(this->_Getcont() != 0
; 292  : 			&& this->_Getcont() == _Right._Getcont());
; 293  :  #endif /* _ITERATOR_DEBUG_LEVEL */
; 294  : 
; 295  : 		return (this->_Ptr == _Right._Ptr);

  0000c	8b 45 fc	 mov	 eax, DWORD PTR _this$[ebp]
  0000f	8b 4d 08	 mov	 ecx, DWORD PTR __Right$[ebp]
  00012	8b 10		 mov	 edx, DWORD PTR [eax]
  00014	33 c0		 xor	 eax, eax
  00016	3b 11		 cmp	 edx, DWORD PTR [ecx]
  00018	0f 94 c0	 sete	 al

; 296  : 		}

  0001b	5f		 pop	 edi
  0001c	5e		 pop	 esi
  0001d	5b		 pop	 ebx
  0001e	8b e5		 mov	 esp, ebp
  00020	5d		 pop	 ebp
  00021	c2 04 00	 ret	 4
??8?$_List_const_iterator@V?$_List_val@UILLUSIONTEMPLE_START_TIME@@V?$allocator@UILLUSIONTEMPLE_START_TIME@@@std@@@std@@@std@@QBE_NABV01@@Z ENDP ; std::_List_const_iterator<std::_List_val<ILLUSIONTEMPLE_START_TIME,std::allocator<ILLUSIONTEMPLE_START_TIME> > >::operator==
; Function compile flags: /Odtp /ZI
_TEXT	ENDS
;	COMDAT ??9?$_List_const_iterator@V?$_List_val@UILLUSIONTEMPLE_START_TIME@@V?$allocator@UILLUSIONTEMPLE_START_TIME@@@std@@@std@@@std@@QBE_NABV01@@Z
_TEXT	SEGMENT
_this$ = -4						; size = 4
__Right$ = 8						; size = 4
??9?$_List_const_iterator@V?$_List_val@UILLUSIONTEMPLE_START_TIME@@V?$allocator@UILLUSIONTEMPLE_START_TIME@@@std@@@std@@@std@@QBE_NABV01@@Z PROC ; std::_List_const_iterator<std::_List_val<ILLUSIONTEMPLE_START_TIME,std::allocator<ILLUSIONTEMPLE_START_TIME> > >::operator!=, COMDAT
; _this$ = ecx

; 299  : 		{	// test for iterator inequality

  00000	55		 push	 ebp
  00001	8b ec		 mov	 ebp, esp
  00003	83 ec 44	 sub	 esp, 68			; 00000044H
  00006	53		 push	 ebx
  00007	56		 push	 esi
  00008	57		 push	 edi
  00009	89 4d fc	 mov	 DWORD PTR _this$[ebp], ecx

; 300  : 		return (!(*this == _Right));

  0000c	8b 45 08	 mov	 eax, DWORD PTR __Right$[ebp]
  0000f	50		 push	 eax
  00010	8b 4d fc	 mov	 ecx, DWORD PTR _this$[ebp]
  00013	e8 00 00 00 00	 call	 ??8?$_List_const_iterator@V?$_List_val@UILLUSIONTEMPLE_START_TIME@@V?$allocator@UILLUSIONTEMPLE_START_TIME@@@std@@@std@@@std@@QBE_NABV01@@Z ; std::_List_const_iterator<std::_List_val<ILLUSIONTEMPLE_START_TIME,std::allocator<ILLUSIONTEMPLE_START_TIME> > >::operator==
  00018	0f b6 c0	 movzx	 eax, al
  0001b	f7 d8		 neg	 eax
  0001d	1b c0		 sbb	 eax, eax
  0001f	83 c0 01	 add	 eax, 1

; 301  : 		}

  00022	5f		 pop	 edi
  00023	5e		 pop	 esi
  00024	5b		 pop	 ebx
  00025	8b e5		 mov	 esp, ebp
  00027	5d		 pop	 ebp
  00028	c2 04 00	 ret	 4
??9?$_List_const_iterator@V?$_List_val@UILLUSIONTEMPLE_START_TIME@@V?$allocator@UILLUSIONTEMPLE_START_TIME@@@std@@@std@@@std@@QBE_NABV01@@Z ENDP ; std::_List_const_iterator<std::_List_val<ILLUSIONTEMPLE_START_TIME,std::allocator<ILLUSIONTEMPLE_START_TIME> > >::operator!=
; Function compile flags: /Odtp /ZI
_TEXT	ENDS
;	COMDAT ?_Nextnode@?$_List_val@UILLUSIONTEMPLE_START_TIME@@V?$allocator@UILLUSIONTEMPLE_START_TIME@@@std@@@std@@SAAAPAU_Node@?$_List_nod@UILLUSIONTEMPLE_START_TIME@@V?$allocator@UILLUSIONTEMPLE_START_TIME@@@std@@@2@PAU342@@Z
_TEXT	SEGMENT
__Pnode$ = 8						; size = 4
?_Nextnode@?$_List_val@UILLUSIONTEMPLE_START_TIME@@V?$allocator@UILLUSIONTEMPLE_START_TIME@@@std@@@std@@SAAAPAU_Node@?$_List_nod@UILLUSIONTEMPLE_START_TIME@@V?$allocator@UILLUSIONTEMPLE_START_TIME@@@std@@@2@PAU342@@Z PROC ; std::_List_val<ILLUSIONTEMPLE_START_TIME,std::allocator<ILLUSIONTEMPLE_START_TIME> >::_Nextnode, COMDAT

; 560  : 		{	// return reference to successor pointer in node

  00000	55		 push	 ebp
  00001	8b ec		 mov	 ebp, esp
  00003	83 ec 40	 sub	 esp, 64			; 00000040H
  00006	53		 push	 ebx
  00007	56		 push	 esi
  00008	57		 push	 edi

; 561  : 		return ((_Nodepref)(*_Pnode)._Next);

  00009	8b 45 08	 mov	 eax, DWORD PTR __Pnode$[ebp]

; 562  : 		}

  0000c	5f		 pop	 edi
  0000d	5e		 pop	 esi
  0000e	5b		 pop	 ebx
  0000f	8b e5		 mov	 esp, ebp
  00011	5d		 pop	 ebp
  00012	c3		 ret	 0
?_Nextnode@?$_List_val@UILLUSIONTEMPLE_START_TIME@@V?$allocator@UILLUSIONTEMPLE_START_TIME@@@std@@@std@@SAAAPAU_Node@?$_List_nod@UILLUSIONTEMPLE_START_TIME@@V?$allocator@UILLUSIONTEMPLE_START_TIME@@@std@@@2@PAU342@@Z ENDP ; std::_List_val<ILLUSIONTEMPLE_START_TIME,std::allocator<ILLUSIONTEMPLE_START_TIME> >::_Nextnode
_TEXT	ENDS
PUBLIC	??0?$_List_const_iterator@V?$_List_val@UILLUSIONTEMPLE_START_TIME@@V?$allocator@UILLUSIONTEMPLE_START_TIME@@@std@@@std@@@std@@QAE@PAU_Node@?$_List_nod@UILLUSIONTEMPLE_START_TIME@@V?$allocator@UILLUSIONTEMPLE_START_TIME@@@std@@@1@PBV?$_List_val@UILLUSIONTEMPLE_START_TIME@@V?$allocator@UILLUSIONTEMPLE_START_TIME@@@std@@@1@@Z ; std::_List_const_iterator<std::_List_val<ILLUSIONTEMPLE_START_TIME,std::allocator<ILLUSIONTEMPLE_START_TIME> > >::_List_const_iterator<std::_List_val<ILLUSIONTEMPLE_START_TIME,std::allocator<ILLUSIONTEMPLE_START_TIME> > >
; Function compile flags: /Odtp /ZI
;	COMDAT ??0?$_List_iterator@V?$_List_val@UILLUSIONTEMPLE_START_TIME@@V?$allocator@UILLUSIONTEMPLE_START_TIME@@@std@@@std@@@std@@QAE@PAU_Node@?$_List_nod@UILLUSIONTEMPLE_START_TIME@@V?$allocator@UILLUSIONTEMPLE_START_TIME@@@std@@@1@PBV?$_List_val@UILLUSIONTEMPLE_START_TIME@@V?$allocator@UILLUSIONTEMPLE_START_TIME@@@std@@@1@@Z
_TEXT	SEGMENT
_this$ = -4						; size = 4
__Pnode$ = 8						; size = 4
__Plist$ = 12						; size = 4
??0?$_List_iterator@V?$_List_val@UILLUSIONTEMPLE_START_TIME@@V?$allocator@UILLUSIONTEMPLE_START_TIME@@@std@@@std@@@std@@QAE@PAU_Node@?$_List_nod@UILLUSIONTEMPLE_START_TIME@@V?$allocator@UILLUSIONTEMPLE_START_TIME@@@std@@@1@PBV?$_List_val@UILLUSIONTEMPLE_START_TIME@@V?$allocator@UILLUSIONTEMPLE_START_TIME@@@std@@@1@@Z PROC ; std::_List_iterator<std::_List_val<ILLUSIONTEMPLE_START_TIME,std::allocator<ILLUSIONTEMPLE_START_TIME> > >::_List_iterator<std::_List_val<ILLUSIONTEMPLE_START_TIME,std::allocator<ILLUSIONTEMPLE_START_TIME> > >, COMDAT
; _this$ = ecx

; 342  : 		{	// construct with node pointer _Pnode

  00000	55		 push	 ebp
  00001	8b ec		 mov	 ebp, esp
  00003	83 ec 44	 sub	 esp, 68			; 00000044H
  00006	53		 push	 ebx
  00007	56		 push	 esi
  00008	57		 push	 edi
  00009	89 4d fc	 mov	 DWORD PTR _this$[ebp], ecx
  0000c	8b 45 0c	 mov	 eax, DWORD PTR __Plist$[ebp]
  0000f	50		 push	 eax
  00010	8b 4d 08	 mov	 ecx, DWORD PTR __Pnode$[ebp]
  00013	51		 push	 ecx
  00014	8b 4d fc	 mov	 ecx, DWORD PTR _this$[ebp]
  00017	e8 00 00 00 00	 call	 ??0?$_List_const_iterator@V?$_List_val@UILLUSIONTEMPLE_START_TIME@@V?$allocator@UILLUSIONTEMPLE_START_TIME@@@std@@@std@@@std@@QAE@PAU_Node@?$_List_nod@UILLUSIONTEMPLE_START_TIME@@V?$allocator@UILLUSIONTEMPLE_START_TIME@@@std@@@1@PBV?$_List_val@UILLUSIONTEMPLE_START_TIME@@V?$allocator@UILLUSIONTEMPLE_START_TIME@@@std@@@1@@Z ; std::_List_const_iterator<std::_List_val<ILLUSIONTEMPLE_START_TIME,std::allocator<ILLUSIONTEMPLE_START_TIME> > >::_List_const_iterator<std::_List_val<ILLUSIONTEMPLE_START_TIME,std::allocator<ILLUSIONTEMPLE_START_TIME> > >

; 343  : 		}

  0001c	8b 45 fc	 mov	 eax, DWORD PTR _this$[ebp]
  0001f	5f		 pop	 edi
  00020	5e		 pop	 esi
  00021	5b		 pop	 ebx
  00022	8b e5		 mov	 esp, ebp
  00024	5d		 pop	 ebp
  00025	c2 08 00	 ret	 8
??0?$_List_iterator@V?$_List_val@UILLUSIONTEMPLE_START_TIME@@V?$allocator@UILLUSIONTEMPLE_START_TIME@@@std@@@std@@@std@@QAE@PAU_Node@?$_List_nod@UILLUSIONTEMPLE_START_TIME@@V?$allocator@UILLUSIONTEMPLE_START_TIME@@@std@@@1@PBV?$_List_val@UILLUSIONTEMPLE_START_TIME@@V?$allocator@UILLUSIONTEMPLE_START_TIME@@@std@@@1@@Z ENDP ; std::_List_iterator<std::_List_val<ILLUSIONTEMPLE_START_TIME,std::allocator<ILLUSIONTEMPLE_START_TIME> > >::_List_iterator<std::_List_val<ILLUSIONTEMPLE_START_TIME,std::allocator<ILLUSIONTEMPLE_START_TIME> > >
_TEXT	ENDS
PUBLIC	??0?$_List_unchecked_const_iterator@V?$_List_val@UILLUSIONTEMPLE_START_TIME@@V?$allocator@UILLUSIONTEMPLE_START_TIME@@@std@@@std@@U_Iterator_base0@2@@std@@QAE@XZ ; std::_List_unchecked_const_iterator<std::_List_val<ILLUSIONTEMPLE_START_TIME,std::allocator<ILLUSIONTEMPLE_START_TIME> >,std::_Iterator_base0>::_List_unchecked_const_iterator<std::_List_val<ILLUSIONTEMPLE_START_TIME,std::allocator<ILLUSIONTEMPLE_START_TIME> >,std::_Iterator_base0>
; Function compile flags: /Odtp /ZI
;	COMDAT ??0?$_List_const_iterator@V?$_List_val@UILLUSIONTEMPLE_START_TIME@@V?$allocator@UILLUSIONTEMPLE_START_TIME@@@std@@@std@@@std@@QAE@XZ
_TEXT	SEGMENT
_this$ = -4						; size = 4
??0?$_List_const_iterator@V?$_List_val@UILLUSIONTEMPLE_START_TIME@@V?$allocator@UILLUSIONTEMPLE_START_TIME@@@std@@@std@@@std@@QAE@XZ PROC ; std::_List_const_iterator<std::_List_val<ILLUSIONTEMPLE_START_TIME,std::allocator<ILLUSIONTEMPLE_START_TIME> > >::_List_const_iterator<std::_List_val<ILLUSIONTEMPLE_START_TIME,std::allocator<ILLUSIONTEMPLE_START_TIME> > >, COMDAT
; _this$ = ecx

; 179  : 		{	// construct with null node pointer

  00000	55		 push	 ebp
  00001	8b ec		 mov	 ebp, esp
  00003	83 ec 44	 sub	 esp, 68			; 00000044H
  00006	53		 push	 ebx
  00007	56		 push	 esi
  00008	57		 push	 edi
  00009	89 4d fc	 mov	 DWORD PTR _this$[ebp], ecx
  0000c	8b 4d fc	 mov	 ecx, DWORD PTR _this$[ebp]
  0000f	e8 00 00 00 00	 call	 ??0?$_List_unchecked_const_iterator@V?$_List_val@UILLUSIONTEMPLE_START_TIME@@V?$allocator@UILLUSIONTEMPLE_START_TIME@@@std@@@std@@U_Iterator_base0@2@@std@@QAE@XZ ; std::_List_unchecked_const_iterator<std::_List_val<ILLUSIONTEMPLE_START_TIME,std::allocator<ILLUSIONTEMPLE_START_TIME> >,std::_Iterator_base0>::_List_unchecked_const_iterator<std::_List_val<ILLUSIONTEMPLE_START_TIME,std::allocator<ILLUSIONTEMPLE_START_TIME> >,std::_Iterator_base0>

; 180  : 		}

  00014	8b 45 fc	 mov	 eax, DWORD PTR _this$[ebp]
  00017	5f		 pop	 edi
  00018	5e		 pop	 esi
  00019	5b		 pop	 ebx
  0001a	8b e5		 mov	 esp, ebp
  0001c	5d		 pop	 ebp
  0001d	c3		 ret	 0
??0?$_List_const_iterator@V?$_List_val@UILLUSIONTEMPLE_START_TIME@@V?$allocator@UILLUSIONTEMPLE_START_TIME@@@std@@@std@@@std@@QAE@XZ ENDP ; std::_List_const_iterator<std::_List_val<ILLUSIONTEMPLE_START_TIME,std::allocator<ILLUSIONTEMPLE_START_TIME> > >::_List_const_iterator<std::_List_val<ILLUSIONTEMPLE_START_TIME,std::allocator<ILLUSIONTEMPLE_START_TIME> > >
_TEXT	ENDS
PUBLIC	?_Myval@?$_List_val@UILLUSIONTEMPLE_START_TIME@@V?$allocator@UILLUSIONTEMPLE_START_TIME@@@std@@@std@@SAAAUILLUSIONTEMPLE_START_TIME@@PAU_Node@?$_List_nod@UILLUSIONTEMPLE_START_TIME@@V?$allocator@UILLUSIONTEMPLE_START_TIME@@@std@@@2@@Z ; std::_List_val<ILLUSIONTEMPLE_START_TIME,std::allocator<ILLUSIONTEMPLE_START_TIME> >::_Myval
; Function compile flags: /Odtp /ZI
;	COMDAT ??D?$_List_const_iterator@V?$_List_val@UILLUSIONTEMPLE_START_TIME@@V?$allocator@UILLUSIONTEMPLE_START_TIME@@@std@@@std@@@std@@QBEABUILLUSIONTEMPLE_START_TIME@@XZ
_TEXT	SEGMENT
_this$ = -4						; size = 4
??D?$_List_const_iterator@V?$_List_val@UILLUSIONTEMPLE_START_TIME@@V?$allocator@UILLUSIONTEMPLE_START_TIME@@@std@@@std@@@std@@QBEABUILLUSIONTEMPLE_START_TIME@@XZ PROC ; std::_List_const_iterator<std::_List_val<ILLUSIONTEMPLE_START_TIME,std::allocator<ILLUSIONTEMPLE_START_TIME> > >::operator*, COMDAT
; _this$ = ecx

; 201  : 		{	// return designated value

  00000	55		 push	 ebp
  00001	8b ec		 mov	 ebp, esp
  00003	83 ec 44	 sub	 esp, 68			; 00000044H
  00006	53		 push	 ebx
  00007	56		 push	 esi
  00008	57		 push	 edi
  00009	89 4d fc	 mov	 DWORD PTR _this$[ebp], ecx

; 202  :  #if _ITERATOR_DEBUG_LEVEL == 2
; 203  : 		if (this->_Getcont() == 0
; 204  : 			|| this->_Ptr == 0
; 205  : 			|| this->_Ptr == ((_Mylist *)this->_Getcont())->_Myhead)
; 206  : 			{	// report error
; 207  : 			_DEBUG_ERROR("list iterator not dereferencable");
; 208  : 			_SCL_SECURE_OUT_OF_RANGE;
; 209  : 			}
; 210  : 
; 211  :  #elif _ITERATOR_DEBUG_LEVEL == 1
; 212  : 		_SCL_SECURE_VALIDATE(this->_Getcont() != 0 && this->_Ptr != 0);
; 213  : 		_SCL_SECURE_VALIDATE_RANGE(this->_Ptr !=
; 214  : 			((_Mylist *)this->_Getcont())->_Myhead);
; 215  :  #endif /* _ITERATOR_DEBUG_LEVEL */
; 216  : 
; 217  : 		return (_Mylist::_Myval(this->_Ptr));

  0000c	8b 45 fc	 mov	 eax, DWORD PTR _this$[ebp]
  0000f	8b 08		 mov	 ecx, DWORD PTR [eax]
  00011	51		 push	 ecx
  00012	e8 00 00 00 00	 call	 ?_Myval@?$_List_val@UILLUSIONTEMPLE_START_TIME@@V?$allocator@UILLUSIONTEMPLE_START_TIME@@@std@@@std@@SAAAUILLUSIONTEMPLE_START_TIME@@PAU_Node@?$_List_nod@UILLUSIONTEMPLE_START_TIME@@V?$allocator@UILLUSIONTEMPLE_START_TIME@@@std@@@2@@Z ; std::_List_val<ILLUSIONTEMPLE_START_TIME,std::allocator<ILLUSIONTEMPLE_START_TIME> >::_Myval
  00017	83 c4 04	 add	 esp, 4

; 218  : 		}

  0001a	5f		 pop	 edi
  0001b	5e		 pop	 esi
  0001c	5b		 pop	 ebx
  0001d	8b e5		 mov	 esp, ebp
  0001f	5d		 pop	 ebp
  00020	c3		 ret	 0
??D?$_List_const_iterator@V?$_List_val@UILLUSIONTEMPLE_START_TIME@@V?$allocator@UILLUSIONTEMPLE_START_TIME@@@std@@@std@@@std@@QBEABUILLUSIONTEMPLE_START_TIME@@XZ ENDP ; std::_List_const_iterator<std::_List_val<ILLUSIONTEMPLE_START_TIME,std::allocator<ILLUSIONTEMPLE_START_TIME> > >::operator*
; Function compile flags: /Odtp /ZI
_TEXT	ENDS
;	COMDAT ??E?$_List_const_iterator@V?$_List_val@UILLUSIONTEMPLE_START_TIME@@V?$allocator@UILLUSIONTEMPLE_START_TIME@@@std@@@std@@@std@@QAEAAV01@XZ
_TEXT	SEGMENT
_this$ = -4						; size = 4
??E?$_List_const_iterator@V?$_List_val@UILLUSIONTEMPLE_START_TIME@@V?$allocator@UILLUSIONTEMPLE_START_TIME@@@std@@@std@@@std@@QAEAAV01@XZ PROC ; std::_List_const_iterator<std::_List_val<ILLUSIONTEMPLE_START_TIME,std::allocator<ILLUSIONTEMPLE_START_TIME> > >::operator++, COMDAT
; _this$ = ecx

; 221  : 		{	// preincrement

  00000	55		 push	 ebp
  00001	8b ec		 mov	 ebp, esp
  00003	83 ec 44	 sub	 esp, 68			; 00000044H
  00006	53		 push	 ebx
  00007	56		 push	 esi
  00008	57		 push	 edi
  00009	89 4d fc	 mov	 DWORD PTR _this$[ebp], ecx

; 222  :  #if _ITERATOR_DEBUG_LEVEL == 2
; 223  : 		if (this->_Getcont() == 0
; 224  : 			|| this->_Ptr == 0
; 225  : 			|| this->_Ptr == ((_Mylist *)this->_Getcont())->_Myhead)
; 226  : 			{	// report error
; 227  : 			_DEBUG_ERROR("list iterator not incrementable");
; 228  : 			_SCL_SECURE_OUT_OF_RANGE;
; 229  : 			}
; 230  : 
; 231  :  #elif _ITERATOR_DEBUG_LEVEL == 1
; 232  : 		_SCL_SECURE_VALIDATE(this->_Getcont() != 0 && this->_Ptr != 0);
; 233  : 		_SCL_SECURE_VALIDATE_RANGE(this->_Ptr !=
; 234  : 			((_Mylist *)this->_Getcont())->_Myhead);
; 235  :  #endif /* _ITERATOR_DEBUG_LEVEL */
; 236  : 
; 237  : 		this->_Ptr = _Mylist::_Nextnode(this->_Ptr);

  0000c	8b 45 fc	 mov	 eax, DWORD PTR _this$[ebp]
  0000f	8b 08		 mov	 ecx, DWORD PTR [eax]
  00011	51		 push	 ecx
  00012	e8 00 00 00 00	 call	 ?_Nextnode@?$_List_val@UILLUSIONTEMPLE_START_TIME@@V?$allocator@UILLUSIONTEMPLE_START_TIME@@@std@@@std@@SAAAPAU_Node@?$_List_nod@UILLUSIONTEMPLE_START_TIME@@V?$allocator@UILLUSIONTEMPLE_START_TIME@@@std@@@2@PAU342@@Z ; std::_List_val<ILLUSIONTEMPLE_START_TIME,std::allocator<ILLUSIONTEMPLE_START_TIME> >::_Nextnode
  00017	83 c4 04	 add	 esp, 4
  0001a	8b 55 fc	 mov	 edx, DWORD PTR _this$[ebp]
  0001d	8b 00		 mov	 eax, DWORD PTR [eax]
  0001f	89 02		 mov	 DWORD PTR [edx], eax

; 238  : 		return (*this);

  00021	8b 45 fc	 mov	 eax, DWORD PTR _this$[ebp]

; 239  : 		}

  00024	5f		 pop	 edi
  00025	5e		 pop	 esi
  00026	5b		 pop	 ebx
  00027	8b e5		 mov	 esp, ebp
  00029	5d		 pop	 ebp
  0002a	c3		 ret	 0
??E?$_List_const_iterator@V?$_List_val@UILLUSIONTEMPLE_START_TIME@@V?$allocator@UILLUSIONTEMPLE_START_TIME@@@std@@@std@@@std@@QAEAAV01@XZ ENDP ; std::_List_const_iterator<std::_List_val<ILLUSIONTEMPLE_START_TIME,std::allocator<ILLUSIONTEMPLE_START_TIME> > >::operator++
; Function compile flags: /Odtp /ZI
_TEXT	ENDS
;	COMDAT ?_Myval@?$_List_val@UILLUSIONTEMPLE_START_TIME@@V?$allocator@UILLUSIONTEMPLE_START_TIME@@@std@@@std@@SAAAUILLUSIONTEMPLE_START_TIME@@PAU_Node@?$_List_nod@UILLUSIONTEMPLE_START_TIME@@V?$allocator@UILLUSIONTEMPLE_START_TIME@@@std@@@2@@Z
_TEXT	SEGMENT
__Pnode$ = 8						; size = 4
?_Myval@?$_List_val@UILLUSIONTEMPLE_START_TIME@@V?$allocator@UILLUSIONTEMPLE_START_TIME@@@std@@@std@@SAAAUILLUSIONTEMPLE_START_TIME@@PAU_Node@?$_List_nod@UILLUSIONTEMPLE_START_TIME@@V?$allocator@UILLUSIONTEMPLE_START_TIME@@@std@@@2@@Z PROC ; std::_List_val<ILLUSIONTEMPLE_START_TIME,std::allocator<ILLUSIONTEMPLE_START_TIME> >::_Myval, COMDAT

; 570  : 		{	// return reference to value in node

  00000	55		 push	 ebp
  00001	8b ec		 mov	 ebp, esp
  00003	83 ec 40	 sub	 esp, 64			; 00000040H
  00006	53		 push	 ebx
  00007	56		 push	 esi
  00008	57		 push	 edi

; 571  : 		return ((reference)(*_Pnode)._Myval);

  00009	8b 45 08	 mov	 eax, DWORD PTR __Pnode$[ebp]
  0000c	83 c0 08	 add	 eax, 8

; 572  : 		}

  0000f	5f		 pop	 edi
  00010	5e		 pop	 esi
  00011	5b		 pop	 ebx
  00012	8b e5		 mov	 esp, ebp
  00014	5d		 pop	 ebp
  00015	c3		 ret	 0
?_Myval@?$_List_val@UILLUSIONTEMPLE_START_TIME@@V?$allocator@UILLUSIONTEMPLE_START_TIME@@@std@@@std@@SAAAUILLUSIONTEMPLE_START_TIME@@PAU_Node@?$_List_nod@UILLUSIONTEMPLE_START_TIME@@V?$allocator@UILLUSIONTEMPLE_START_TIME@@@std@@@2@@Z ENDP ; std::_List_val<ILLUSIONTEMPLE_START_TIME,std::allocator<ILLUSIONTEMPLE_START_TIME> >::_Myval
_TEXT	ENDS
PUBLIC	??0?$_List_unchecked_const_iterator@V?$_List_val@UILLUSIONTEMPLE_START_TIME@@V?$allocator@UILLUSIONTEMPLE_START_TIME@@@std@@@std@@U_Iterator_base0@2@@std@@QAE@PAU_Node@?$_List_nod@UILLUSIONTEMPLE_START_TIME@@V?$allocator@UILLUSIONTEMPLE_START_TIME@@@std@@@1@PBV?$_List_val@UILLUSIONTEMPLE_START_TIME@@V?$allocator@UILLUSIONTEMPLE_START_TIME@@@std@@@1@@Z ; std::_List_unchecked_const_iterator<std::_List_val<ILLUSIONTEMPLE_START_TIME,std::allocator<ILLUSIONTEMPLE_START_TIME> >,std::_Iterator_base0>::_List_unchecked_const_iterator<std::_List_val<ILLUSIONTEMPLE_START_TIME,std::allocator<ILLUSIONTEMPLE_START_TIME> >,std::_Iterator_base0>
; Function compile flags: /Odtp /ZI
;	COMDAT ??0?$_List_const_iterator@V?$_List_val@UILLUSIONTEMPLE_START_TIME@@V?$allocator@UILLUSIONTEMPLE_START_TIME@@@std@@@std@@@std@@QAE@PAU_Node@?$_List_nod@UILLUSIONTEMPLE_START_TIME@@V?$allocator@UILLUSIONTEMPLE_START_TIME@@@std@@@1@PBV?$_List_val@UILLUSIONTEMPLE_START_TIME@@V?$allocator@UILLUSIONTEMPLE_START_TIME@@@std@@@1@@Z
_TEXT	SEGMENT
_this$ = -4						; size = 4
__Pnode$ = 8						; size = 4
__Plist$ = 12						; size = 4
??0?$_List_const_iterator@V?$_List_val@UILLUSIONTEMPLE_START_TIME@@V?$allocator@UILLUSIONTEMPLE_START_TIME@@@std@@@std@@@std@@QAE@PAU_Node@?$_List_nod@UILLUSIONTEMPLE_START_TIME@@V?$allocator@UILLUSIONTEMPLE_START_TIME@@@std@@@1@PBV?$_List_val@UILLUSIONTEMPLE_START_TIME@@V?$allocator@UILLUSIONTEMPLE_START_TIME@@@std@@@1@@Z PROC ; std::_List_const_iterator<std::_List_val<ILLUSIONTEMPLE_START_TIME,std::allocator<ILLUSIONTEMPLE_START_TIME> > >::_List_const_iterator<std::_List_val<ILLUSIONTEMPLE_START_TIME,std::allocator<ILLUSIONTEMPLE_START_TIME> > >, COMDAT
; _this$ = ecx

; 184  : 		{	// construct with node pointer _Pnode

  00000	55		 push	 ebp
  00001	8b ec		 mov	 ebp, esp
  00003	83 ec 44	 sub	 esp, 68			; 00000044H
  00006	53		 push	 ebx
  00007	56		 push	 esi
  00008	57		 push	 edi
  00009	89 4d fc	 mov	 DWORD PTR _this$[ebp], ecx
  0000c	8b 45 0c	 mov	 eax, DWORD PTR __Plist$[ebp]
  0000f	50		 push	 eax
  00010	8b 4d 08	 mov	 ecx, DWORD PTR __Pnode$[ebp]
  00013	51		 push	 ecx
  00014	8b 4d fc	 mov	 ecx, DWORD PTR _this$[ebp]
  00017	e8 00 00 00 00	 call	 ??0?$_List_unchecked_const_iterator@V?$_List_val@UILLUSIONTEMPLE_START_TIME@@V?$allocator@UILLUSIONTEMPLE_START_TIME@@@std@@@std@@U_Iterator_base0@2@@std@@QAE@PAU_Node@?$_List_nod@UILLUSIONTEMPLE_START_TIME@@V?$allocator@UILLUSIONTEMPLE_START_TIME@@@std@@@1@PBV?$_List_val@UILLUSIONTEMPLE_START_TIME@@V?$allocator@UILLUSIONTEMPLE_START_TIME@@@std@@@1@@Z ; std::_List_unchecked_const_iterator<std::_List_val<ILLUSIONTEMPLE_START_TIME,std::allocator<ILLUSIONTEMPLE_START_TIME> >,std::_Iterator_base0>::_List_unchecked_const_iterator<std::_List_val<ILLUSIONTEMPLE_START_TIME,std::allocator<ILLUSIONTEMPLE_START_TIME> >,std::_Iterator_base0>

; 185  : 		}

  0001c	8b 45 fc	 mov	 eax, DWORD PTR _this$[ebp]
  0001f	5f		 pop	 edi
  00020	5e		 pop	 esi
  00021	5b		 pop	 ebx
  00022	8b e5		 mov	 esp, ebp
  00024	5d		 pop	 ebp
  00025	c2 08 00	 ret	 8
??0?$_List_const_iterator@V?$_List_val@UILLUSIONTEMPLE_START_TIME@@V?$allocator@UILLUSIONTEMPLE_START_TIME@@@std@@@std@@@std@@QAE@PAU_Node@?$_List_nod@UILLUSIONTEMPLE_START_TIME@@V?$allocator@UILLUSIONTEMPLE_START_TIME@@@std@@@1@PBV?$_List_val@UILLUSIONTEMPLE_START_TIME@@V?$allocator@UILLUSIONTEMPLE_START_TIME@@@std@@@1@@Z ENDP ; std::_List_const_iterator<std::_List_val<ILLUSIONTEMPLE_START_TIME,std::allocator<ILLUSIONTEMPLE_START_TIME> > >::_List_const_iterator<std::_List_val<ILLUSIONTEMPLE_START_TIME,std::allocator<ILLUSIONTEMPLE_START_TIME> > >
; Function compile flags: /Odtp /ZI
_TEXT	ENDS
;	COMDAT ??0?$_List_unchecked_const_iterator@V?$_List_val@UILLUSIONTEMPLE_START_TIME@@V?$allocator@UILLUSIONTEMPLE_START_TIME@@@std@@@std@@U_Iterator_base0@2@@std@@QAE@XZ
_TEXT	SEGMENT
_this$ = -4						; size = 4
??0?$_List_unchecked_const_iterator@V?$_List_val@UILLUSIONTEMPLE_START_TIME@@V?$allocator@UILLUSIONTEMPLE_START_TIME@@@std@@@std@@U_Iterator_base0@2@@std@@QAE@XZ PROC ; std::_List_unchecked_const_iterator<std::_List_val<ILLUSIONTEMPLE_START_TIME,std::allocator<ILLUSIONTEMPLE_START_TIME> >,std::_Iterator_base0>::_List_unchecked_const_iterator<std::_List_val<ILLUSIONTEMPLE_START_TIME,std::allocator<ILLUSIONTEMPLE_START_TIME> >,std::_Iterator_base0>, COMDAT
; _this$ = ecx

; 36   : 		{	// construct with null node pointer

  00000	55		 push	 ebp
  00001	8b ec		 mov	 ebp, esp
  00003	83 ec 44	 sub	 esp, 68			; 00000044H
  00006	53		 push	 ebx
  00007	56		 push	 esi
  00008	57		 push	 edi
  00009	89 4d fc	 mov	 DWORD PTR _this$[ebp], ecx
  0000c	8b 45 fc	 mov	 eax, DWORD PTR _this$[ebp]
  0000f	c7 00 00 00 00
	00		 mov	 DWORD PTR [eax], 0

; 37   : 		}

  00015	8b 45 fc	 mov	 eax, DWORD PTR _this$[ebp]
  00018	5f		 pop	 edi
  00019	5e		 pop	 esi
  0001a	5b		 pop	 ebx
  0001b	8b e5		 mov	 esp, ebp
  0001d	5d		 pop	 ebp
  0001e	c3		 ret	 0
??0?$_List_unchecked_const_iterator@V?$_List_val@UILLUSIONTEMPLE_START_TIME@@V?$allocator@UILLUSIONTEMPLE_START_TIME@@@std@@@std@@U_Iterator_base0@2@@std@@QAE@XZ ENDP ; std::_List_unchecked_const_iterator<std::_List_val<ILLUSIONTEMPLE_START_TIME,std::allocator<ILLUSIONTEMPLE_START_TIME> >,std::_Iterator_base0>::_List_unchecked_const_iterator<std::_List_val<ILLUSIONTEMPLE_START_TIME,std::allocator<ILLUSIONTEMPLE_START_TIME> >,std::_Iterator_base0>
_TEXT	ENDS
PUBLIC	?_Adopt@_Iterator_base0@std@@QAEXPBX@Z		; std::_Iterator_base0::_Adopt
; Function compile flags: /Odtp /ZI
;	COMDAT ??0?$_List_unchecked_const_iterator@V?$_List_val@UILLUSIONTEMPLE_START_TIME@@V?$allocator@UILLUSIONTEMPLE_START_TIME@@@std@@@std@@U_Iterator_base0@2@@std@@QAE@PAU_Node@?$_List_nod@UILLUSIONTEMPLE_START_TIME@@V?$allocator@UILLUSIONTEMPLE_START_TIME@@@std@@@1@PBV?$_List_val@UILLUSIONTEMPLE_START_TIME@@V?$allocator@UILLUSIONTEMPLE_START_TIME@@@std@@@1@@Z
_TEXT	SEGMENT
_this$ = -4						; size = 4
__Pnode$ = 8						; size = 4
__Plist$ = 12						; size = 4
??0?$_List_unchecked_const_iterator@V?$_List_val@UILLUSIONTEMPLE_START_TIME@@V?$allocator@UILLUSIONTEMPLE_START_TIME@@@std@@@std@@U_Iterator_base0@2@@std@@QAE@PAU_Node@?$_List_nod@UILLUSIONTEMPLE_START_TIME@@V?$allocator@UILLUSIONTEMPLE_START_TIME@@@std@@@1@PBV?$_List_val@UILLUSIONTEMPLE_START_TIME@@V?$allocator@UILLUSIONTEMPLE_START_TIME@@@std@@@1@@Z PROC ; std::_List_unchecked_const_iterator<std::_List_val<ILLUSIONTEMPLE_START_TIME,std::allocator<ILLUSIONTEMPLE_START_TIME> >,std::_Iterator_base0>::_List_unchecked_const_iterator<std::_List_val<ILLUSIONTEMPLE_START_TIME,std::allocator<ILLUSIONTEMPLE_START_TIME> >,std::_Iterator_base0>, COMDAT
; _this$ = ecx

; 41   : 		{	// construct with node pointer _Pnode

  00000	55		 push	 ebp
  00001	8b ec		 mov	 ebp, esp
  00003	83 ec 44	 sub	 esp, 68			; 00000044H
  00006	53		 push	 ebx
  00007	56		 push	 esi
  00008	57		 push	 edi
  00009	89 4d fc	 mov	 DWORD PTR _this$[ebp], ecx
  0000c	8b 45 fc	 mov	 eax, DWORD PTR _this$[ebp]
  0000f	8b 4d 08	 mov	 ecx, DWORD PTR __Pnode$[ebp]
  00012	89 08		 mov	 DWORD PTR [eax], ecx

; 42   : 		this->_Adopt(_Plist);

  00014	8b 45 0c	 mov	 eax, DWORD PTR __Plist$[ebp]
  00017	50		 push	 eax
  00018	8b 4d fc	 mov	 ecx, DWORD PTR _this$[ebp]
  0001b	e8 00 00 00 00	 call	 ?_Adopt@_Iterator_base0@std@@QAEXPBX@Z ; std::_Iterator_base0::_Adopt

; 43   : 		}

  00020	8b 45 fc	 mov	 eax, DWORD PTR _this$[ebp]
  00023	5f		 pop	 edi
  00024	5e		 pop	 esi
  00025	5b		 pop	 ebx
  00026	8b e5		 mov	 esp, ebp
  00028	5d		 pop	 ebp
  00029	c2 08 00	 ret	 8
??0?$_List_unchecked_const_iterator@V?$_List_val@UILLUSIONTEMPLE_START_TIME@@V?$allocator@UILLUSIONTEMPLE_START_TIME@@@std@@@std@@U_Iterator_base0@2@@std@@QAE@PAU_Node@?$_List_nod@UILLUSIONTEMPLE_START_TIME@@V?$allocator@UILLUSIONTEMPLE_START_TIME@@@std@@@1@PBV?$_List_val@UILLUSIONTEMPLE_START_TIME@@V?$allocator@UILLUSIONTEMPLE_START_TIME@@@std@@@1@@Z ENDP ; std::_List_unchecked_const_iterator<std::_List_val<ILLUSIONTEMPLE_START_TIME,std::allocator<ILLUSIONTEMPLE_START_TIME> >,std::_Iterator_base0>::_List_unchecked_const_iterator<std::_List_val<ILLUSIONTEMPLE_START_TIME,std::allocator<ILLUSIONTEMPLE_START_TIME> >,std::_Iterator_base0>
; Function compile flags: /Odtp /ZI
; File d:\microsoft visual studio 10.0\vc\include\xutility
_TEXT	ENDS
;	COMDAT ?_Adopt@_Iterator_base0@std@@QAEXPBX@Z
_TEXT	SEGMENT
_this$ = -4						; size = 4
___formal$ = 8						; size = 4
?_Adopt@_Iterator_base0@std@@QAEXPBX@Z PROC		; std::_Iterator_base0::_Adopt, COMDAT
; _this$ = ecx

; 48   : 		{	// adopt this iterator by parent

  00000	55		 push	 ebp
  00001	8b ec		 mov	 ebp, esp
  00003	83 ec 44	 sub	 esp, 68			; 00000044H
  00006	53		 push	 ebx
  00007	56		 push	 esi
  00008	57		 push	 edi
  00009	89 4d fc	 mov	 DWORD PTR _this$[ebp], ecx

; 49   : 		}

  0000c	5f		 pop	 edi
  0000d	5e		 pop	 esi
  0000e	5b		 pop	 ebx
  0000f	8b e5		 mov	 esp, ebp
  00011	5d		 pop	 ebp
  00012	c2 04 00	 ret	 4
?_Adopt@_Iterator_base0@std@@QAEXPBX@Z ENDP		; std::_Iterator_base0::_Adopt
_TEXT	ENDS
PUBLIC	??0?$list@UILLUSIONTEMPLE_START_TIME@@V?$allocator@UILLUSIONTEMPLE_START_TIME@@@std@@@std@@QAE@XZ ; std::list<ILLUSIONTEMPLE_START_TIME,std::allocator<ILLUSIONTEMPLE_START_TIME> >::list<ILLUSIONTEMPLE_START_TIME,std::allocator<ILLUSIONTEMPLE_START_TIME> >
EXTRN	_atexit:PROC
; Function compile flags: /Odtp /ZI
; File d:\projects\exteam6.3\source\gameserver\gameserver\illusiontempleprocess.cpp
;	COMDAT ??__Em_listIllusionTempleOpenTime@@YAXXZ
text$yc	SEGMENT
??__Em_listIllusionTempleOpenTime@@YAXXZ PROC		; `dynamic initializer for 'm_listIllusionTempleOpenTime'', COMDAT

; 22   : std::list<ILLUSIONTEMPLE_START_TIME> m_listIllusionTempleOpenTime;

  00000	55		 push	 ebp
  00001	8b ec		 mov	 ebp, esp
  00003	83 ec 40	 sub	 esp, 64			; 00000040H
  00006	53		 push	 ebx
  00007	56		 push	 esi
  00008	57		 push	 edi
  00009	b9 00 00 00 00	 mov	 ecx, OFFSET ?m_listIllusionTempleOpenTime@@3V?$list@UILLUSIONTEMPLE_START_TIME@@V?$allocator@UILLUSIONTEMPLE_START_TIME@@@std@@@std@@A ; m_listIllusionTempleOpenTime
  0000e	e8 00 00 00 00	 call	 ??0?$list@UILLUSIONTEMPLE_START_TIME@@V?$allocator@UILLUSIONTEMPLE_START_TIME@@@std@@@std@@QAE@XZ ; std::list<ILLUSIONTEMPLE_START_TIME,std::allocator<ILLUSIONTEMPLE_START_TIME> >::list<ILLUSIONTEMPLE_START_TIME,std::allocator<ILLUSIONTEMPLE_START_TIME> >
  00013	68 00 00 00 00	 push	 OFFSET ??__Fm_listIllusionTempleOpenTime@@YAXXZ ; `dynamic atexit destructor for 'm_listIllusionTempleOpenTime''
  00018	e8 00 00 00 00	 call	 _atexit
  0001d	83 c4 04	 add	 esp, 4
  00020	5f		 pop	 edi
  00021	5e		 pop	 esi
  00022	5b		 pop	 ebx
  00023	8b e5		 mov	 esp, ebp
  00025	5d		 pop	 ebp
  00026	c3		 ret	 0
??__Em_listIllusionTempleOpenTime@@YAXXZ ENDP		; `dynamic initializer for 'm_listIllusionTempleOpenTime''
text$yc	ENDS
PUBLIC	??0?$_List_val@UILLUSIONTEMPLE_START_TIME@@V?$allocator@UILLUSIONTEMPLE_START_TIME@@@std@@@std@@QAE@V?$allocator@UILLUSIONTEMPLE_START_TIME@@@1@@Z ; std::_List_val<ILLUSIONTEMPLE_START_TIME,std::allocator<ILLUSIONTEMPLE_START_TIME> >::_List_val<ILLUSIONTEMPLE_START_TIME,std::allocator<ILLUSIONTEMPLE_START_TIME> >
PUBLIC	??0?$allocator@UILLUSIONTEMPLE_START_TIME@@@std@@QAE@XZ ; std::allocator<ILLUSIONTEMPLE_START_TIME>::allocator<ILLUSIONTEMPLE_START_TIME>
; Function compile flags: /Odtp /ZI
; File d:\microsoft visual studio 10.0\vc\include\list
;	COMDAT ??0?$list@UILLUSIONTEMPLE_START_TIME@@V?$allocator@UILLUSIONTEMPLE_START_TIME@@@std@@@std@@QAE@XZ
_TEXT	SEGMENT
$T235904 = -72						; size = 4
_this$ = -4						; size = 4
??0?$list@UILLUSIONTEMPLE_START_TIME@@V?$allocator@UILLUSIONTEMPLE_START_TIME@@@std@@@std@@QAE@XZ PROC ; std::list<ILLUSIONTEMPLE_START_TIME,std::allocator<ILLUSIONTEMPLE_START_TIME> >::list<ILLUSIONTEMPLE_START_TIME,std::allocator<ILLUSIONTEMPLE_START_TIME> >, COMDAT
; _this$ = ecx

; 607  : 		{	// construct empty list

  00000	55		 push	 ebp
  00001	8b ec		 mov	 ebp, esp
  00003	83 ec 48	 sub	 esp, 72			; 00000048H
  00006	53		 push	 ebx
  00007	56		 push	 esi
  00008	57		 push	 edi
  00009	89 4d fc	 mov	 DWORD PTR _this$[ebp], ecx
  0000c	51		 push	 ecx
  0000d	8b cc		 mov	 ecx, esp
  0000f	89 65 b8	 mov	 DWORD PTR $T235904[ebp], esp
  00012	e8 00 00 00 00	 call	 ??0?$allocator@UILLUSIONTEMPLE_START_TIME@@@std@@QAE@XZ ; std::allocator<ILLUSIONTEMPLE_START_TIME>::allocator<ILLUSIONTEMPLE_START_TIME>
  00017	8b 4d fc	 mov	 ecx, DWORD PTR _this$[ebp]
  0001a	e8 00 00 00 00	 call	 ??0?$_List_val@UILLUSIONTEMPLE_START_TIME@@V?$allocator@UILLUSIONTEMPLE_START_TIME@@@std@@@std@@QAE@V?$allocator@UILLUSIONTEMPLE_START_TIME@@@1@@Z ; std::_List_val<ILLUSIONTEMPLE_START_TIME,std::allocator<ILLUSIONTEMPLE_START_TIME> >::_List_val<ILLUSIONTEMPLE_START_TIME,std::allocator<ILLUSIONTEMPLE_START_TIME> >

; 608  : 		}

  0001f	8b 45 fc	 mov	 eax, DWORD PTR _this$[ebp]
  00022	5f		 pop	 edi
  00023	5e		 pop	 esi
  00024	5b		 pop	 ebx
  00025	8b e5		 mov	 esp, ebp
  00027	5d		 pop	 ebp
  00028	c3		 ret	 0
??0?$list@UILLUSIONTEMPLE_START_TIME@@V?$allocator@UILLUSIONTEMPLE_START_TIME@@@std@@@std@@QAE@XZ ENDP ; std::list<ILLUSIONTEMPLE_START_TIME,std::allocator<ILLUSIONTEMPLE_START_TIME> >::list<ILLUSIONTEMPLE_START_TIME,std::allocator<ILLUSIONTEMPLE_START_TIME> >
_TEXT	ENDS
PUBLIC	?_Prevnode@?$_List_val@UILLUSIONTEMPLE_START_TIME@@V?$allocator@UILLUSIONTEMPLE_START_TIME@@@std@@@std@@SAAAPAU_Node@?$_List_nod@UILLUSIONTEMPLE_START_TIME@@V?$allocator@UILLUSIONTEMPLE_START_TIME@@@std@@@2@PAU342@@Z ; std::_List_val<ILLUSIONTEMPLE_START_TIME,std::allocator<ILLUSIONTEMPLE_START_TIME> >::_Prevnode
PUBLIC	?allocate@?$allocator@U_Node@?$_List_nod@UILLUSIONTEMPLE_START_TIME@@V?$allocator@UILLUSIONTEMPLE_START_TIME@@@std@@@std@@@std@@QAEPAU_Node@?$_List_nod@UILLUSIONTEMPLE_START_TIME@@V?$allocator@UILLUSIONTEMPLE_START_TIME@@@std@@@2@I@Z ; std::allocator<std::_List_nod<ILLUSIONTEMPLE_START_TIME,std::allocator<ILLUSIONTEMPLE_START_TIME> >::_Node>::allocate
PUBLIC	??0?$_List_nod@UILLUSIONTEMPLE_START_TIME@@V?$allocator@UILLUSIONTEMPLE_START_TIME@@@std@@@std@@QAE@V?$allocator@UILLUSIONTEMPLE_START_TIME@@@1@@Z ; std::_List_nod<ILLUSIONTEMPLE_START_TIME,std::allocator<ILLUSIONTEMPLE_START_TIME> >::_List_nod<ILLUSIONTEMPLE_START_TIME,std::allocator<ILLUSIONTEMPLE_START_TIME> >
PUBLIC	??0?$allocator@UILLUSIONTEMPLE_START_TIME@@@std@@QAE@ABV01@@Z ; std::allocator<ILLUSIONTEMPLE_START_TIME>::allocator<ILLUSIONTEMPLE_START_TIME>
; Function compile flags: /Odtp /ZI
;	COMDAT ??0?$_List_val@UILLUSIONTEMPLE_START_TIME@@V?$allocator@UILLUSIONTEMPLE_START_TIME@@@std@@@std@@QAE@V?$allocator@UILLUSIONTEMPLE_START_TIME@@@1@@Z
_TEXT	SEGMENT
_this$ = -4						; size = 4
__Al$ = 8						; size = 1
??0?$_List_val@UILLUSIONTEMPLE_START_TIME@@V?$allocator@UILLUSIONTEMPLE_START_TIME@@@std@@@std@@QAE@V?$allocator@UILLUSIONTEMPLE_START_TIME@@@1@@Z PROC ; std::_List_val<ILLUSIONTEMPLE_START_TIME,std::allocator<ILLUSIONTEMPLE_START_TIME> >::_List_val<ILLUSIONTEMPLE_START_TIME,std::allocator<ILLUSIONTEMPLE_START_TIME> >, COMDAT
; _this$ = ecx

; 493  : 		{	// construct base, and allocator from _Al

  00000	55		 push	 ebp
  00001	8b ec		 mov	 ebp, esp
  00003	83 ec 48	 sub	 esp, 72			; 00000048H
  00006	53		 push	 ebx
  00007	56		 push	 esi
  00008	57		 push	 edi
  00009	89 4d fc	 mov	 DWORD PTR _this$[ebp], ecx
  0000c	51		 push	 ecx
  0000d	8b cc		 mov	 ecx, esp
  0000f	8d 45 08	 lea	 eax, DWORD PTR __Al$[ebp]
  00012	50		 push	 eax
  00013	e8 00 00 00 00	 call	 ??0?$allocator@UILLUSIONTEMPLE_START_TIME@@@std@@QAE@ABV01@@Z ; std::allocator<ILLUSIONTEMPLE_START_TIME>::allocator<ILLUSIONTEMPLE_START_TIME>
  00018	8b 4d fc	 mov	 ecx, DWORD PTR _this$[ebp]
  0001b	e8 00 00 00 00	 call	 ??0?$_List_nod@UILLUSIONTEMPLE_START_TIME@@V?$allocator@UILLUSIONTEMPLE_START_TIME@@@std@@@std@@QAE@V?$allocator@UILLUSIONTEMPLE_START_TIME@@@1@@Z ; std::_List_nod<ILLUSIONTEMPLE_START_TIME,std::allocator<ILLUSIONTEMPLE_START_TIME> >::_List_nod<ILLUSIONTEMPLE_START_TIME,std::allocator<ILLUSIONTEMPLE_START_TIME> >

; 494  : 		this->_Mysize = 0;

  00020	8b 45 fc	 mov	 eax, DWORD PTR _this$[ebp]
  00023	c7 40 04 00 00
	00 00		 mov	 DWORD PTR [eax+4], 0

; 495  : 		this->_Myhead = this->_Alnod.allocate(1);

  0002a	6a 01		 push	 1
  0002c	8b 4d fc	 mov	 ecx, DWORD PTR _this$[ebp]
  0002f	83 c1 08	 add	 ecx, 8
  00032	e8 00 00 00 00	 call	 ?allocate@?$allocator@U_Node@?$_List_nod@UILLUSIONTEMPLE_START_TIME@@V?$allocator@UILLUSIONTEMPLE_START_TIME@@@std@@@std@@@std@@QAEPAU_Node@?$_List_nod@UILLUSIONTEMPLE_START_TIME@@V?$allocator@UILLUSIONTEMPLE_START_TIME@@@std@@@2@I@Z ; std::allocator<std::_List_nod<ILLUSIONTEMPLE_START_TIME,std::allocator<ILLUSIONTEMPLE_START_TIME> >::_Node>::allocate
  00037	8b 4d fc	 mov	 ecx, DWORD PTR _this$[ebp]
  0003a	89 01		 mov	 DWORD PTR [ecx], eax

; 496  : 		this->_Nextnode(this->_Myhead) = this->_Myhead;

  0003c	8b 45 fc	 mov	 eax, DWORD PTR _this$[ebp]
  0003f	8b 08		 mov	 ecx, DWORD PTR [eax]
  00041	51		 push	 ecx
  00042	e8 00 00 00 00	 call	 ?_Nextnode@?$_List_val@UILLUSIONTEMPLE_START_TIME@@V?$allocator@UILLUSIONTEMPLE_START_TIME@@@std@@@std@@SAAAPAU_Node@?$_List_nod@UILLUSIONTEMPLE_START_TIME@@V?$allocator@UILLUSIONTEMPLE_START_TIME@@@std@@@2@PAU342@@Z ; std::_List_val<ILLUSIONTEMPLE_START_TIME,std::allocator<ILLUSIONTEMPLE_START_TIME> >::_Nextnode
  00047	83 c4 04	 add	 esp, 4
  0004a	8b 55 fc	 mov	 edx, DWORD PTR _this$[ebp]
  0004d	8b 0a		 mov	 ecx, DWORD PTR [edx]
  0004f	89 08		 mov	 DWORD PTR [eax], ecx

; 497  : 		this->_Prevnode(this->_Myhead) = this->_Myhead;

  00051	8b 45 fc	 mov	 eax, DWORD PTR _this$[ebp]
  00054	8b 08		 mov	 ecx, DWORD PTR [eax]
  00056	51		 push	 ecx
  00057	e8 00 00 00 00	 call	 ?_Prevnode@?$_List_val@UILLUSIONTEMPLE_START_TIME@@V?$allocator@UILLUSIONTEMPLE_START_TIME@@@std@@@std@@SAAAPAU_Node@?$_List_nod@UILLUSIONTEMPLE_START_TIME@@V?$allocator@UILLUSIONTEMPLE_START_TIME@@@std@@@2@PAU342@@Z ; std::_List_val<ILLUSIONTEMPLE_START_TIME,std::allocator<ILLUSIONTEMPLE_START_TIME> >::_Prevnode
  0005c	83 c4 04	 add	 esp, 4
  0005f	8b 55 fc	 mov	 edx, DWORD PTR _this$[ebp]
  00062	8b 0a		 mov	 ecx, DWORD PTR [edx]
  00064	89 08		 mov	 DWORD PTR [eax], ecx

; 498  : 		}

  00066	8b 45 fc	 mov	 eax, DWORD PTR _this$[ebp]
  00069	5f		 pop	 edi
  0006a	5e		 pop	 esi
  0006b	5b		 pop	 ebx
  0006c	8b e5		 mov	 esp, ebp
  0006e	5d		 pop	 ebp
  0006f	c2 04 00	 ret	 4
??0?$_List_val@UILLUSIONTEMPLE_START_TIME@@V?$allocator@UILLUSIONTEMPLE_START_TIME@@@std@@@std@@QAE@V?$allocator@UILLUSIONTEMPLE_START_TIME@@@1@@Z ENDP ; std::_List_val<ILLUSIONTEMPLE_START_TIME,std::allocator<ILLUSIONTEMPLE_START_TIME> >::_List_val<ILLUSIONTEMPLE_START_TIME,std::allocator<ILLUSIONTEMPLE_START_TIME> >
; Function compile flags: /Odtp /ZI
; File d:\microsoft visual studio 10.0\vc\include\xmemory
_TEXT	ENDS
;	COMDAT ??0?$allocator@UILLUSIONTEMPLE_START_TIME@@@std@@QAE@XZ
_TEXT	SEGMENT
_this$ = -4						; size = 4
??0?$allocator@UILLUSIONTEMPLE_START_TIME@@@std@@QAE@XZ PROC ; std::allocator<ILLUSIONTEMPLE_START_TIME>::allocator<ILLUSIONTEMPLE_START_TIME>, COMDAT
; _this$ = ecx

; 161  : 	_ALLOCATOR() _THROW0()

  00000	55		 push	 ebp
  00001	8b ec		 mov	 ebp, esp
  00003	83 ec 44	 sub	 esp, 68			; 00000044H
  00006	53		 push	 ebx
  00007	56		 push	 esi
  00008	57		 push	 edi
  00009	89 4d fc	 mov	 DWORD PTR _this$[ebp], ecx

; 162  : 		{	// construct default allocator (do nothing)
; 163  : 		}

  0000c	8b 45 fc	 mov	 eax, DWORD PTR _this$[ebp]
  0000f	5f		 pop	 edi
  00010	5e		 pop	 esi
  00011	5b		 pop	 ebx
  00012	8b e5		 mov	 esp, ebp
  00014	5d		 pop	 ebp
  00015	c3		 ret	 0
??0?$allocator@UILLUSIONTEMPLE_START_TIME@@@std@@QAE@XZ ENDP ; std::allocator<ILLUSIONTEMPLE_START_TIME>::allocator<ILLUSIONTEMPLE_START_TIME>
; Function compile flags: /Odtp /ZI
; File d:\microsoft visual studio 10.0\vc\include\list
_TEXT	ENDS
;	COMDAT ?_Prevnode@?$_List_val@UILLUSIONTEMPLE_START_TIME@@V?$allocator@UILLUSIONTEMPLE_START_TIME@@@std@@@std@@SAAAPAU_Node@?$_List_nod@UILLUSIONTEMPLE_START_TIME@@V?$allocator@UILLUSIONTEMPLE_START_TIME@@@std@@@2@PAU342@@Z
_TEXT	SEGMENT
__Pnode$ = 8						; size = 4
?_Prevnode@?$_List_val@UILLUSIONTEMPLE_START_TIME@@V?$allocator@UILLUSIONTEMPLE_START_TIME@@@std@@@std@@SAAAPAU_Node@?$_List_nod@UILLUSIONTEMPLE_START_TIME@@V?$allocator@UILLUSIONTEMPLE_START_TIME@@@std@@@2@PAU342@@Z PROC ; std::_List_val<ILLUSIONTEMPLE_START_TIME,std::allocator<ILLUSIONTEMPLE_START_TIME> >::_Prevnode, COMDAT

; 565  : 		{	// return reference to predecessor pointer in node

  00000	55		 push	 ebp
  00001	8b ec		 mov	 ebp, esp
  00003	83 ec 40	 sub	 esp, 64			; 00000040H
  00006	53		 push	 ebx
  00007	56		 push	 esi
  00008	57		 push	 edi

; 566  : 		return ((_Nodepref)(*_Pnode)._Prev);

  00009	8b 45 08	 mov	 eax, DWORD PTR __Pnode$[ebp]
  0000c	83 c0 04	 add	 eax, 4

; 567  : 		}

  0000f	5f		 pop	 edi
  00010	5e		 pop	 esi
  00011	5b		 pop	 ebx
  00012	8b e5		 mov	 esp, ebp
  00014	5d		 pop	 ebp
  00015	c3		 ret	 0
?_Prevnode@?$_List_val@UILLUSIONTEMPLE_START_TIME@@V?$allocator@UILLUSIONTEMPLE_START_TIME@@@std@@@std@@SAAAPAU_Node@?$_List_nod@UILLUSIONTEMPLE_START_TIME@@V?$allocator@UILLUSIONTEMPLE_START_TIME@@@std@@@2@PAU342@@Z ENDP ; std::_List_val<ILLUSIONTEMPLE_START_TIME,std::allocator<ILLUSIONTEMPLE_START_TIME> >::_Prevnode
_TEXT	ENDS
PUBLIC	??$?0UILLUSIONTEMPLE_START_TIME@@@?$allocator@U_Node@?$_List_nod@UILLUSIONTEMPLE_START_TIME@@V?$allocator@UILLUSIONTEMPLE_START_TIME@@@std@@@std@@@std@@QAE@ABV?$allocator@UILLUSIONTEMPLE_START_TIME@@@1@@Z ; std::allocator<std::_List_nod<ILLUSIONTEMPLE_START_TIME,std::allocator<ILLUSIONTEMPLE_START_TIME> >::_Node>::allocator<std::_List_nod<ILLUSIONTEMPLE_START_TIME,std::allocator<ILLUSIONTEMPLE_START_TIME> >::_Node><ILLUSIONTEMPLE_START_TIME>
; Function compile flags: /Odtp /ZI
;	COMDAT ??0?$_List_nod@UILLUSIONTEMPLE_START_TIME@@V?$allocator@UILLUSIONTEMPLE_START_TIME@@@std@@@std@@QAE@V?$allocator@UILLUSIONTEMPLE_START_TIME@@@1@@Z
_TEXT	SEGMENT
_this$ = -4						; size = 4
__Al$ = 8						; size = 1
??0?$_List_nod@UILLUSIONTEMPLE_START_TIME@@V?$allocator@UILLUSIONTEMPLE_START_TIME@@@std@@@std@@QAE@V?$allocator@UILLUSIONTEMPLE_START_TIME@@@1@@Z PROC ; std::_List_nod<ILLUSIONTEMPLE_START_TIME,std::allocator<ILLUSIONTEMPLE_START_TIME> >::_List_nod<ILLUSIONTEMPLE_START_TIME,std::allocator<ILLUSIONTEMPLE_START_TIME> >, COMDAT
; _this$ = ecx

; 438  : 		{	// construct allocators from _Al

  00000	55		 push	 ebp
  00001	8b ec		 mov	 ebp, esp
  00003	83 ec 44	 sub	 esp, 68			; 00000044H
  00006	53		 push	 ebx
  00007	56		 push	 esi
  00008	57		 push	 edi
  00009	89 4d fc	 mov	 DWORD PTR _this$[ebp], ecx
  0000c	8d 45 08	 lea	 eax, DWORD PTR __Al$[ebp]
  0000f	50		 push	 eax
  00010	8b 4d fc	 mov	 ecx, DWORD PTR _this$[ebp]
  00013	83 c1 08	 add	 ecx, 8
  00016	e8 00 00 00 00	 call	 ??$?0UILLUSIONTEMPLE_START_TIME@@@?$allocator@U_Node@?$_List_nod@UILLUSIONTEMPLE_START_TIME@@V?$allocator@UILLUSIONTEMPLE_START_TIME@@@std@@@std@@@std@@QAE@ABV?$allocator@UILLUSIONTEMPLE_START_TIME@@@1@@Z ; std::allocator<std::_List_nod<ILLUSIONTEMPLE_START_TIME,std::allocator<ILLUSIONTEMPLE_START_TIME> >::_Node>::allocator<std::_List_nod<ILLUSIONTEMPLE_START_TIME,std::allocator<ILLUSIONTEMPLE_START_TIME> >::_Node><ILLUSIONTEMPLE_START_TIME>
  0001b	8d 45 08	 lea	 eax, DWORD PTR __Al$[ebp]
  0001e	50		 push	 eax
  0001f	8b 4d fc	 mov	 ecx, DWORD PTR _this$[ebp]
  00022	83 c1 09	 add	 ecx, 9
  00025	e8 00 00 00 00	 call	 ??0?$allocator@UILLUSIONTEMPLE_START_TIME@@@std@@QAE@ABV01@@Z ; std::allocator<ILLUSIONTEMPLE_START_TIME>::allocator<ILLUSIONTEMPLE_START_TIME>

; 439  : 		}

  0002a	8b 45 fc	 mov	 eax, DWORD PTR _this$[ebp]
  0002d	5f		 pop	 edi
  0002e	5e		 pop	 esi
  0002f	5b		 pop	 ebx
  00030	8b e5		 mov	 esp, ebp
  00032	5d		 pop	 ebp
  00033	c2 04 00	 ret	 4
??0?$_List_nod@UILLUSIONTEMPLE_START_TIME@@V?$allocator@UILLUSIONTEMPLE_START_TIME@@@std@@@std@@QAE@V?$allocator@UILLUSIONTEMPLE_START_TIME@@@1@@Z ENDP ; std::_List_nod<ILLUSIONTEMPLE_START_TIME,std::allocator<ILLUSIONTEMPLE_START_TIME> >::_List_nod<ILLUSIONTEMPLE_START_TIME,std::allocator<ILLUSIONTEMPLE_START_TIME> >
; Function compile flags: /Odtp /ZI
; File d:\microsoft visual studio 10.0\vc\include\xmemory
_TEXT	ENDS
;	COMDAT ??0?$allocator@UILLUSIONTEMPLE_START_TIME@@@std@@QAE@ABV01@@Z
_TEXT	SEGMENT
_this$ = -4						; size = 4
___formal$ = 8						; size = 4
??0?$allocator@UILLUSIONTEMPLE_START_TIME@@@std@@QAE@ABV01@@Z PROC ; std::allocator<ILLUSIONTEMPLE_START_TIME>::allocator<ILLUSIONTEMPLE_START_TIME>, COMDAT
; _this$ = ecx

; 165  : 	_ALLOCATOR(const _ALLOCATOR<_Ty>&) _THROW0()

  00000	55		 push	 ebp
  00001	8b ec		 mov	 ebp, esp
  00003	83 ec 44	 sub	 esp, 68			; 00000044H
  00006	53		 push	 ebx
  00007	56		 push	 esi
  00008	57		 push	 edi
  00009	89 4d fc	 mov	 DWORD PTR _this$[ebp], ecx

; 166  : 		{	// construct by copying (do nothing)
; 167  : 		}

  0000c	8b 45 fc	 mov	 eax, DWORD PTR _this$[ebp]
  0000f	5f		 pop	 edi
  00010	5e		 pop	 esi
  00011	5b		 pop	 ebx
  00012	8b e5		 mov	 esp, ebp
  00014	5d		 pop	 ebp
  00015	c2 04 00	 ret	 4
??0?$allocator@UILLUSIONTEMPLE_START_TIME@@@std@@QAE@ABV01@@Z ENDP ; std::allocator<ILLUSIONTEMPLE_START_TIME>::allocator<ILLUSIONTEMPLE_START_TIME>
_TEXT	ENDS
PUBLIC	??$_Allocate@U_Node@?$_List_nod@UILLUSIONTEMPLE_START_TIME@@V?$allocator@UILLUSIONTEMPLE_START_TIME@@@std@@@std@@@std@@YAPAU_Node@?$_List_nod@UILLUSIONTEMPLE_START_TIME@@V?$allocator@UILLUSIONTEMPLE_START_TIME@@@std@@@0@IPAU120@@Z ; std::_Allocate<std::_List_nod<ILLUSIONTEMPLE_START_TIME,std::allocator<ILLUSIONTEMPLE_START_TIME> >::_Node>
; Function compile flags: /Odtp /ZI
;	COMDAT ?allocate@?$allocator@U_Node@?$_List_nod@UILLUSIONTEMPLE_START_TIME@@V?$allocator@UILLUSIONTEMPLE_START_TIME@@@std@@@std@@@std@@QAEPAU_Node@?$_List_nod@UILLUSIONTEMPLE_START_TIME@@V?$allocator@UILLUSIONTEMPLE_START_TIME@@@std@@@2@I@Z
_TEXT	SEGMENT
_this$ = -4						; size = 4
__Count$ = 8						; size = 4
?allocate@?$allocator@U_Node@?$_List_nod@UILLUSIONTEMPLE_START_TIME@@V?$allocator@UILLUSIONTEMPLE_START_TIME@@@std@@@std@@@std@@QAEPAU_Node@?$_List_nod@UILLUSIONTEMPLE_START_TIME@@V?$allocator@UILLUSIONTEMPLE_START_TIME@@@std@@@2@I@Z PROC ; std::allocator<std::_List_nod<ILLUSIONTEMPLE_START_TIME,std::allocator<ILLUSIONTEMPLE_START_TIME> >::_Node>::allocate, COMDAT
; _this$ = ecx

; 186  : 		{	// allocate array of _Count elements

  00000	55		 push	 ebp
  00001	8b ec		 mov	 ebp, esp
  00003	83 ec 44	 sub	 esp, 68			; 00000044H
  00006	53		 push	 ebx
  00007	56		 push	 esi
  00008	57		 push	 edi
  00009	89 4d fc	 mov	 DWORD PTR _this$[ebp], ecx

; 187  : 		return (_Allocate(_Count, (pointer)0));

  0000c	6a 00		 push	 0
  0000e	8b 45 08	 mov	 eax, DWORD PTR __Count$[ebp]
  00011	50		 push	 eax
  00012	e8 00 00 00 00	 call	 ??$_Allocate@U_Node@?$_List_nod@UILLUSIONTEMPLE_START_TIME@@V?$allocator@UILLUSIONTEMPLE_START_TIME@@@std@@@std@@@std@@YAPAU_Node@?$_List_nod@UILLUSIONTEMPLE_START_TIME@@V?$allocator@UILLUSIONTEMPLE_START_TIME@@@std@@@0@IPAU120@@Z ; std::_Allocate<std::_List_nod<ILLUSIONTEMPLE_START_TIME,std::allocator<ILLUSIONTEMPLE_START_TIME> >::_Node>
  00017	83 c4 08	 add	 esp, 8

; 188  : 		}

  0001a	5f		 pop	 edi
  0001b	5e		 pop	 esi
  0001c	5b		 pop	 ebx
  0001d	8b e5		 mov	 esp, ebp
  0001f	5d		 pop	 ebp
  00020	c2 04 00	 ret	 4
?allocate@?$allocator@U_Node@?$_List_nod@UILLUSIONTEMPLE_START_TIME@@V?$allocator@UILLUSIONTEMPLE_START_TIME@@@std@@@std@@@std@@QAEPAU_Node@?$_List_nod@UILLUSIONTEMPLE_START_TIME@@V?$allocator@UILLUSIONTEMPLE_START_TIME@@@std@@@2@I@Z ENDP ; std::allocator<std::_List_nod<ILLUSIONTEMPLE_START_TIME,std::allocator<ILLUSIONTEMPLE_START_TIME> >::_Node>::allocate
; Function compile flags: /Odtp /ZI
_TEXT	ENDS
;	COMDAT ??$?0UILLUSIONTEMPLE_START_TIME@@@?$allocator@U_Node@?$_List_nod@UILLUSIONTEMPLE_START_TIME@@V?$allocator@UILLUSIONTEMPLE_START_TIME@@@std@@@std@@@std@@QAE@ABV?$allocator@UILLUSIONTEMPLE_START_TIME@@@1@@Z
_TEXT	SEGMENT
_this$ = -4						; size = 4
___formal$ = 8						; size = 4
??$?0UILLUSIONTEMPLE_START_TIME@@@?$allocator@U_Node@?$_List_nod@UILLUSIONTEMPLE_START_TIME@@V?$allocator@UILLUSIONTEMPLE_START_TIME@@@std@@@std@@@std@@QAE@ABV?$allocator@UILLUSIONTEMPLE_START_TIME@@@1@@Z PROC ; std::allocator<std::_List_nod<ILLUSIONTEMPLE_START_TIME,std::allocator<ILLUSIONTEMPLE_START_TIME> >::_Node>::allocator<std::_List_nod<ILLUSIONTEMPLE_START_TIME,std::allocator<ILLUSIONTEMPLE_START_TIME> >::_Node><ILLUSIONTEMPLE_START_TIME>, COMDAT
; _this$ = ecx

; 170  : 		_ALLOCATOR(const _ALLOCATOR<_Other>&) _THROW0()

  00000	55		 push	 ebp
  00001	8b ec		 mov	 ebp, esp
  00003	83 ec 44	 sub	 esp, 68			; 00000044H
  00006	53		 push	 ebx
  00007	56		 push	 esi
  00008	57		 push	 edi
  00009	89 4d fc	 mov	 DWORD PTR _this$[ebp], ecx

; 171  : 		{	// construct from a related allocator (do nothing)
; 172  : 		}

  0000c	8b 45 fc	 mov	 eax, DWORD PTR _this$[ebp]
  0000f	5f		 pop	 edi
  00010	5e		 pop	 esi
  00011	5b		 pop	 ebx
  00012	8b e5		 mov	 esp, ebp
  00014	5d		 pop	 ebp
  00015	c2 04 00	 ret	 4
??$?0UILLUSIONTEMPLE_START_TIME@@@?$allocator@U_Node@?$_List_nod@UILLUSIONTEMPLE_START_TIME@@V?$allocator@UILLUSIONTEMPLE_START_TIME@@@std@@@std@@@std@@QAE@ABV?$allocator@UILLUSIONTEMPLE_START_TIME@@@1@@Z ENDP ; std::allocator<std::_List_nod<ILLUSIONTEMPLE_START_TIME,std::allocator<ILLUSIONTEMPLE_START_TIME> >::_Node>::allocator<std::_List_nod<ILLUSIONTEMPLE_START_TIME,std::allocator<ILLUSIONTEMPLE_START_TIME> >::_Node><ILLUSIONTEMPLE_START_TIME>
_TEXT	ENDS
PUBLIC	__TI2?AVbad_alloc@std@@
PUBLIC	??0bad_alloc@std@@QAE@PBD@Z			; std::bad_alloc::bad_alloc
PUBLIC	??1bad_alloc@std@@UAE@XZ			; std::bad_alloc::~bad_alloc
PUBLIC	__CTA2?AVbad_alloc@std@@
PUBLIC	__CT??_R0?AVbad_alloc@std@@@8??0bad_alloc@std@@QAE@ABV01@@Z12
PUBLIC	??_R0?AVbad_alloc@std@@@8			; std::bad_alloc `RTTI Type Descriptor'
PUBLIC	??0bad_alloc@std@@QAE@ABV01@@Z			; std::bad_alloc::bad_alloc
PUBLIC	__CT??_R0?AVexception@std@@@8??0exception@std@@QAE@ABV01@@Z12
PUBLIC	??_R0?AVexception@std@@@8			; std::exception `RTTI Type Descriptor'
EXTRN	??2@YAPAXI@Z:PROC				; operator new
EXTRN	__CxxThrowException@8:PROC
EXTRN	??0exception@std@@QAE@ABV01@@Z:PROC		; std::exception::exception
;	COMDAT ??_R0?AVexception@std@@@8
_DATA	SEGMENT
??_R0?AVexception@std@@@8 DD FLAT:??_7type_info@@6B@	; std::exception `RTTI Type Descriptor'
	DD	00H
	DB	'.?AVexception@std@@', 00H
_DATA	ENDS
;	COMDAT __CT??_R0?AVexception@std@@@8??0exception@std@@QAE@ABV01@@Z12
xdata$x	SEGMENT
__CT??_R0?AVexception@std@@@8??0exception@std@@QAE@ABV01@@Z12 DD 00H
	DD	FLAT:??_R0?AVexception@std@@@8
	DD	00H
	DD	0ffffffffH
	ORG $+4
	DD	0cH
	DD	FLAT:??0exception@std@@QAE@ABV01@@Z
xdata$x	ENDS
;	COMDAT ??_R0?AVbad_alloc@std@@@8
_DATA	SEGMENT
??_R0?AVbad_alloc@std@@@8 DD FLAT:??_7type_info@@6B@	; std::bad_alloc `RTTI Type Descriptor'
	DD	00H
	DB	'.?AVbad_alloc@std@@', 00H
_DATA	ENDS
;	COMDAT __CT??_R0?AVbad_alloc@std@@@8??0bad_alloc@std@@QAE@ABV01@@Z12
xdata$x	SEGMENT
__CT??_R0?AVbad_alloc@std@@@8??0bad_alloc@std@@QAE@ABV01@@Z12 DD 00H
	DD	FLAT:??_R0?AVbad_alloc@std@@@8
	DD	00H
	DD	0ffffffffH
	ORG $+4
	DD	0cH
	DD	FLAT:??0bad_alloc@std@@QAE@ABV01@@Z
xdata$x	ENDS
;	COMDAT __CTA2?AVbad_alloc@std@@
xdata$x	SEGMENT
__CTA2?AVbad_alloc@std@@ DD 02H
	DD	FLAT:__CT??_R0?AVbad_alloc@std@@@8??0bad_alloc@std@@QAE@ABV01@@Z12
	DD	FLAT:__CT??_R0?AVexception@std@@@8??0exception@std@@QAE@ABV01@@Z12
xdata$x	ENDS
;	COMDAT __TI2?AVbad_alloc@std@@
xdata$x	SEGMENT
__TI2?AVbad_alloc@std@@ DD 00H
	DD	FLAT:??1bad_alloc@std@@UAE@XZ
	DD	00H
	DD	FLAT:__CTA2?AVbad_alloc@std@@
; Function compile flags: /Odtp /ZI
xdata$x	ENDS
;	COMDAT ??$_Allocate@U_Node@?$_List_nod@UILLUSIONTEMPLE_START_TIME@@V?$allocator@UILLUSIONTEMPLE_START_TIME@@@std@@@std@@@std@@YAPAU_Node@?$_List_nod@UILLUSIONTEMPLE_START_TIME@@V?$allocator@UILLUSIONTEMPLE_START_TIME@@@std@@@0@IPAU120@@Z
_TEXT	SEGMENT
$T235923 = -80						; size = 12
__Ptr$ = -4						; size = 4
__Count$ = 8						; size = 4
___formal$ = 12						; size = 4
??$_Allocate@U_Node@?$_List_nod@UILLUSIONTEMPLE_START_TIME@@V?$allocator@UILLUSIONTEMPLE_START_TIME@@@std@@@std@@@std@@YAPAU_Node@?$_List_nod@UILLUSIONTEMPLE_START_TIME@@V?$allocator@UILLUSIONTEMPLE_START_TIME@@@std@@@0@IPAU120@@Z PROC ; std::_Allocate<std::_List_nod<ILLUSIONTEMPLE_START_TIME,std::allocator<ILLUSIONTEMPLE_START_TIME> >::_Node>, COMDAT

; 30   : 	{	// allocate storage for _Count elements of type _Ty

  00000	55		 push	 ebp
  00001	8b ec		 mov	 ebp, esp
  00003	83 ec 50	 sub	 esp, 80			; 00000050H
  00006	53		 push	 ebx
  00007	56		 push	 esi
  00008	57		 push	 edi

; 31   : 	void *_Ptr = 0;

  00009	c7 45 fc 00 00
	00 00		 mov	 DWORD PTR __Ptr$[ebp], 0

; 32   : 
; 33   : 	if (_Count <= 0)

  00010	83 7d 08 00	 cmp	 DWORD PTR __Count$[ebp], 0
  00014	77 09		 ja	 SHORT $LN4@Allocate

; 34   : 		_Count = 0;

  00016	c7 45 08 00 00
	00 00		 mov	 DWORD PTR __Count$[ebp], 0

; 35   : 	else if (((_SIZT)(-1) / sizeof (_Ty) < _Count)

  0001d	eb 39		 jmp	 SHORT $LN3@Allocate
$LN4@Allocate:

; 36   : 		|| (_Ptr = ::operator new(_Count * sizeof (_Ty))) == 0)

  0001f	81 7d 08 ff ff
	ff 0f		 cmp	 DWORD PTR __Count$[ebp], 268435455 ; 0fffffffH
  00026	77 18		 ja	 SHORT $LN1@Allocate
  00028	8b 45 08	 mov	 eax, DWORD PTR __Count$[ebp]
  0002b	c1 e0 04	 shl	 eax, 4
  0002e	50		 push	 eax
  0002f	e8 00 00 00 00	 call	 ??2@YAPAXI@Z		; operator new
  00034	83 c4 04	 add	 esp, 4
  00037	89 45 fc	 mov	 DWORD PTR __Ptr$[ebp], eax
  0003a	83 7d fc 00	 cmp	 DWORD PTR __Ptr$[ebp], 0
  0003e	75 18		 jne	 SHORT $LN3@Allocate
$LN1@Allocate:

; 37   : 		_THROW_NCEE(bad_alloc, 0);

  00040	6a 00		 push	 0
  00042	8d 4d b0	 lea	 ecx, DWORD PTR $T235923[ebp]
  00045	e8 00 00 00 00	 call	 ??0bad_alloc@std@@QAE@PBD@Z ; std::bad_alloc::bad_alloc
  0004a	68 00 00 00 00	 push	 OFFSET __TI2?AVbad_alloc@std@@
  0004f	8d 45 b0	 lea	 eax, DWORD PTR $T235923[ebp]
  00052	50		 push	 eax
  00053	e8 00 00 00 00	 call	 __CxxThrowException@8
$LN3@Allocate:

; 38   : 
; 39   : 	return ((_Ty _FARQ *)_Ptr);

  00058	8b 45 fc	 mov	 eax, DWORD PTR __Ptr$[ebp]
$LN6@Allocate:

; 40   : 	}

  0005b	5f		 pop	 edi
  0005c	5e		 pop	 esi
  0005d	5b		 pop	 ebx
  0005e	8b e5		 mov	 esp, ebp
  00060	5d		 pop	 ebp
  00061	c3		 ret	 0
??$_Allocate@U_Node@?$_List_nod@UILLUSIONTEMPLE_START_TIME@@V?$allocator@UILLUSIONTEMPLE_START_TIME@@@std@@@std@@@std@@YAPAU_Node@?$_List_nod@UILLUSIONTEMPLE_START_TIME@@V?$allocator@UILLUSIONTEMPLE_START_TIME@@@std@@@0@IPAU120@@Z ENDP ; std::_Allocate<std::_List_nod<ILLUSIONTEMPLE_START_TIME,std::allocator<ILLUSIONTEMPLE_START_TIME> >::_Node>
_TEXT	ENDS
PUBLIC	??_7bad_alloc@std@@6B@				; std::bad_alloc::`vftable'
PUBLIC	??_R4bad_alloc@std@@6B@				; std::bad_alloc::`RTTI Complete Object Locator'
PUBLIC	??_R3bad_alloc@std@@8				; std::bad_alloc::`RTTI Class Hierarchy Descriptor'
PUBLIC	??_R2bad_alloc@std@@8				; std::bad_alloc::`RTTI Base Class Array'
PUBLIC	??_R1A@?0A@EA@bad_alloc@std@@8			; std::bad_alloc::`RTTI Base Class Descriptor at (0,-1,0,64)'
PUBLIC	??_R1A@?0A@EA@exception@std@@8			; std::exception::`RTTI Base Class Descriptor at (0,-1,0,64)'
PUBLIC	??_R3exception@std@@8				; std::exception::`RTTI Class Hierarchy Descriptor'
PUBLIC	??_R2exception@std@@8				; std::exception::`RTTI Base Class Array'
EXTRN	??0exception@std@@QAE@ABQBD@Z:PROC		; std::exception::exception
EXTRN	??_Ebad_alloc@std@@UAEPAXI@Z:PROC		; std::bad_alloc::`vector deleting destructor'
EXTRN	?what@exception@std@@UBEPBDXZ:PROC		; std::exception::what
;	COMDAT ??_R2exception@std@@8
; File d:\microsoft visual studio 10.0\vc\include\exception
rdata$r	SEGMENT
??_R2exception@std@@8 DD FLAT:??_R1A@?0A@EA@exception@std@@8 ; std::exception::`RTTI Base Class Array'
rdata$r	ENDS
;	COMDAT ??_R3exception@std@@8
rdata$r	SEGMENT
??_R3exception@std@@8 DD 00H				; std::exception::`RTTI Class Hierarchy Descriptor'
	DD	00H
	DD	01H
	DD	FLAT:??_R2exception@std@@8
rdata$r	ENDS
;	COMDAT ??_R1A@?0A@EA@exception@std@@8
rdata$r	SEGMENT
??_R1A@?0A@EA@exception@std@@8 DD FLAT:??_R0?AVexception@std@@@8 ; std::exception::`RTTI Base Class Descriptor at (0,-1,0,64)'
	DD	00H
	DD	00H
	DD	0ffffffffH
	DD	00H
	DD	040H
	DD	FLAT:??_R3exception@std@@8
rdata$r	ENDS
;	COMDAT ??_R1A@?0A@EA@bad_alloc@std@@8
rdata$r	SEGMENT
??_R1A@?0A@EA@bad_alloc@std@@8 DD FLAT:??_R0?AVbad_alloc@std@@@8 ; std::bad_alloc::`RTTI Base Class Descriptor at (0,-1,0,64)'
	DD	01H
	DD	00H
	DD	0ffffffffH
	DD	00H
	DD	040H
	DD	FLAT:??_R3bad_alloc@std@@8
rdata$r	ENDS
;	COMDAT ??_R2bad_alloc@std@@8
rdata$r	SEGMENT
??_R2bad_alloc@std@@8 DD FLAT:??_R1A@?0A@EA@bad_alloc@std@@8 ; std::bad_alloc::`RTTI Base Class Array'
	DD	FLAT:??_R1A@?0A@EA@exception@std@@8
rdata$r	ENDS
;	COMDAT ??_R3bad_alloc@std@@8
rdata$r	SEGMENT
??_R3bad_alloc@std@@8 DD 00H				; std::bad_alloc::`RTTI Class Hierarchy Descriptor'
	DD	00H
	DD	02H
	DD	FLAT:??_R2bad_alloc@std@@8
rdata$r	ENDS
;	COMDAT ??_R4bad_alloc@std@@6B@
rdata$r	SEGMENT
??_R4bad_alloc@std@@6B@ DD 00H				; std::bad_alloc::`RTTI Complete Object Locator'
	DD	00H
	DD	00H
	DD	FLAT:??_R0?AVbad_alloc@std@@@8
	DD	FLAT:??_R3bad_alloc@std@@8
rdata$r	ENDS
;	COMDAT ??_7bad_alloc@std@@6B@
CONST	SEGMENT
??_7bad_alloc@std@@6B@ DD FLAT:??_R4bad_alloc@std@@6B@	; std::bad_alloc::`vftable'
	DD	FLAT:??_Ebad_alloc@std@@UAEPAXI@Z
	DD	FLAT:?what@exception@std@@UBEPBDXZ
; Function compile flags: /Odtp /ZI
CONST	ENDS
;	COMDAT ??0bad_alloc@std@@QAE@PBD@Z
_TEXT	SEGMENT
_this$ = -4						; size = 4
__Message$ = 8						; size = 4
??0bad_alloc@std@@QAE@PBD@Z PROC			; std::bad_alloc::bad_alloc, COMDAT
; _this$ = ecx

; 345  : 		{	// construct from message string

  00000	55		 push	 ebp
  00001	8b ec		 mov	 ebp, esp
  00003	83 ec 44	 sub	 esp, 68			; 00000044H
  00006	53		 push	 ebx
  00007	56		 push	 esi
  00008	57		 push	 edi
  00009	89 4d fc	 mov	 DWORD PTR _this$[ebp], ecx
  0000c	8d 45 08	 lea	 eax, DWORD PTR __Message$[ebp]
  0000f	50		 push	 eax
  00010	8b 4d fc	 mov	 ecx, DWORD PTR _this$[ebp]
  00013	e8 00 00 00 00	 call	 ??0exception@std@@QAE@ABQBD@Z ; std::exception::exception
  00018	8b 45 fc	 mov	 eax, DWORD PTR _this$[ebp]
  0001b	c7 00 00 00 00
	00		 mov	 DWORD PTR [eax], OFFSET ??_7bad_alloc@std@@6B@

; 346  : 		}

  00021	8b 45 fc	 mov	 eax, DWORD PTR _this$[ebp]
  00024	5f		 pop	 edi
  00025	5e		 pop	 esi
  00026	5b		 pop	 ebx
  00027	8b e5		 mov	 esp, ebp
  00029	5d		 pop	 ebp
  0002a	c2 04 00	 ret	 4
??0bad_alloc@std@@QAE@PBD@Z ENDP			; std::bad_alloc::bad_alloc
_TEXT	ENDS
EXTRN	??1exception@std@@UAE@XZ:PROC			; std::exception::~exception
; Function compile flags: /Odtp /ZI
;	COMDAT ??1bad_alloc@std@@UAE@XZ
_TEXT	SEGMENT
_this$ = -4						; size = 4
??1bad_alloc@std@@UAE@XZ PROC				; std::bad_alloc::~bad_alloc, COMDAT
; _this$ = ecx

; 354  : 		{	// destroy the object

  00000	55		 push	 ebp
  00001	8b ec		 mov	 ebp, esp
  00003	83 ec 44	 sub	 esp, 68			; 00000044H
  00006	53		 push	 ebx
  00007	56		 push	 esi
  00008	57		 push	 edi
  00009	89 4d fc	 mov	 DWORD PTR _this$[ebp], ecx
  0000c	8b 45 fc	 mov	 eax, DWORD PTR _this$[ebp]
  0000f	c7 00 00 00 00
	00		 mov	 DWORD PTR [eax], OFFSET ??_7bad_alloc@std@@6B@

; 355  : 		}

  00015	8b 4d fc	 mov	 ecx, DWORD PTR _this$[ebp]
  00018	e8 00 00 00 00	 call	 ??1exception@std@@UAE@XZ ; std::exception::~exception
  0001d	5f		 pop	 edi
  0001e	5e		 pop	 esi
  0001f	5b		 pop	 ebx
  00020	8b e5		 mov	 esp, ebp
  00022	5d		 pop	 ebp
  00023	c3		 ret	 0
??1bad_alloc@std@@UAE@XZ ENDP				; std::bad_alloc::~bad_alloc
; Function compile flags: /Odtp /ZI
_TEXT	ENDS
;	COMDAT ??_Gbad_alloc@std@@UAEPAXI@Z
_TEXT	SEGMENT
_this$ = -4						; size = 4
___flags$ = 8						; size = 4
??_Gbad_alloc@std@@UAEPAXI@Z PROC			; std::bad_alloc::`scalar deleting destructor', COMDAT
; _this$ = ecx
  00000	55		 push	 ebp
  00001	8b ec		 mov	 ebp, esp
  00003	83 ec 44	 sub	 esp, 68			; 00000044H
  00006	53		 push	 ebx
  00007	56		 push	 esi
  00008	57		 push	 edi
  00009	89 4d fc	 mov	 DWORD PTR _this$[ebp], ecx
  0000c	8b 4d fc	 mov	 ecx, DWORD PTR _this$[ebp]
  0000f	e8 00 00 00 00	 call	 ??1bad_alloc@std@@UAE@XZ ; std::bad_alloc::~bad_alloc
  00014	8b 45 08	 mov	 eax, DWORD PTR ___flags$[ebp]
  00017	83 e0 01	 and	 eax, 1
  0001a	74 0c		 je	 SHORT $LN1@scalar@2
  0001c	8b 45 fc	 mov	 eax, DWORD PTR _this$[ebp]
  0001f	50		 push	 eax
  00020	e8 00 00 00 00	 call	 ??3@YAXPAX@Z		; operator delete
  00025	83 c4 04	 add	 esp, 4
$LN1@scalar@2:
  00028	8b 45 fc	 mov	 eax, DWORD PTR _this$[ebp]
  0002b	5f		 pop	 edi
  0002c	5e		 pop	 esi
  0002d	5b		 pop	 ebx
  0002e	8b e5		 mov	 esp, ebp
  00030	5d		 pop	 ebp
  00031	c2 04 00	 ret	 4
??_Gbad_alloc@std@@UAEPAXI@Z ENDP			; std::bad_alloc::`scalar deleting destructor'
; Function compile flags: /Odtp /ZI
_TEXT	ENDS
;	COMDAT ??0bad_alloc@std@@QAE@ABV01@@Z
_TEXT	SEGMENT
_this$ = -4						; size = 4
___that$ = 8						; size = 4
??0bad_alloc@std@@QAE@ABV01@@Z PROC			; std::bad_alloc::bad_alloc, COMDAT
; _this$ = ecx
  00000	55		 push	 ebp
  00001	8b ec		 mov	 ebp, esp
  00003	83 ec 44	 sub	 esp, 68			; 00000044H
  00006	53		 push	 ebx
  00007	56		 push	 esi
  00008	57		 push	 edi
  00009	89 4d fc	 mov	 DWORD PTR _this$[ebp], ecx
  0000c	8b 45 08	 mov	 eax, DWORD PTR ___that$[ebp]
  0000f	50		 push	 eax
  00010	8b 4d fc	 mov	 ecx, DWORD PTR _this$[ebp]
  00013	e8 00 00 00 00	 call	 ??0exception@std@@QAE@ABV01@@Z ; std::exception::exception
  00018	8b 45 fc	 mov	 eax, DWORD PTR _this$[ebp]
  0001b	c7 00 00 00 00
	00		 mov	 DWORD PTR [eax], OFFSET ??_7bad_alloc@std@@6B@
  00021	8b 45 fc	 mov	 eax, DWORD PTR _this$[ebp]
  00024	5f		 pop	 edi
  00025	5e		 pop	 esi
  00026	5b		 pop	 ebx
  00027	8b e5		 mov	 esp, ebp
  00029	5d		 pop	 ebp
  0002a	c2 04 00	 ret	 4
??0bad_alloc@std@@QAE@ABV01@@Z ENDP			; std::bad_alloc::bad_alloc
_TEXT	ENDS
PUBLIC	??1?$list@UILLUSIONTEMPLE_START_TIME@@V?$allocator@UILLUSIONTEMPLE_START_TIME@@@std@@@std@@QAE@XZ ; std::list<ILLUSIONTEMPLE_START_TIME,std::allocator<ILLUSIONTEMPLE_START_TIME> >::~list<ILLUSIONTEMPLE_START_TIME,std::allocator<ILLUSIONTEMPLE_START_TIME> >
; Function compile flags: /Odtp /ZI
;	COMDAT ??__Fm_listIllusionTempleOpenTime@@YAXXZ
text$yd	SEGMENT
??__Fm_listIllusionTempleOpenTime@@YAXXZ PROC		; `dynamic atexit destructor for 'm_listIllusionTempleOpenTime'', COMDAT
  00000	55		 push	 ebp
  00001	8b ec		 mov	 ebp, esp
  00003	83 ec 40	 sub	 esp, 64			; 00000040H
  00006	53		 push	 ebx
  00007	56		 push	 esi
  00008	57		 push	 edi
  00009	b9 00 00 00 00	 mov	 ecx, OFFSET ?m_listIllusionTempleOpenTime@@3V?$list@UILLUSIONTEMPLE_START_TIME@@V?$allocator@UILLUSIONTEMPLE_START_TIME@@@std@@@std@@A ; m_listIllusionTempleOpenTime
  0000e	e8 00 00 00 00	 call	 ??1?$list@UILLUSIONTEMPLE_START_TIME@@V?$allocator@UILLUSIONTEMPLE_START_TIME@@@std@@@std@@QAE@XZ ; std::list<ILLUSIONTEMPLE_START_TIME,std::allocator<ILLUSIONTEMPLE_START_TIME> >::~list<ILLUSIONTEMPLE_START_TIME,std::allocator<ILLUSIONTEMPLE_START_TIME> >
  00013	5f		 pop	 edi
  00014	5e		 pop	 esi
  00015	5b		 pop	 ebx
  00016	8b e5		 mov	 esp, ebp
  00018	5d		 pop	 ebp
  00019	c3		 ret	 0
??__Fm_listIllusionTempleOpenTime@@YAXXZ ENDP		; `dynamic atexit destructor for 'm_listIllusionTempleOpenTime''
text$yd	ENDS
PUBLIC	??1?$_List_val@UILLUSIONTEMPLE_START_TIME@@V?$allocator@UILLUSIONTEMPLE_START_TIME@@@std@@@std@@QAE@XZ ; std::_List_val<ILLUSIONTEMPLE_START_TIME,std::allocator<ILLUSIONTEMPLE_START_TIME> >::~_List_val<ILLUSIONTEMPLE_START_TIME,std::allocator<ILLUSIONTEMPLE_START_TIME> >
PUBLIC	?_Tidy@?$list@UILLUSIONTEMPLE_START_TIME@@V?$allocator@UILLUSIONTEMPLE_START_TIME@@@std@@@std@@QAEXXZ ; std::list<ILLUSIONTEMPLE_START_TIME,std::allocator<ILLUSIONTEMPLE_START_TIME> >::_Tidy
EXTRN	___CxxFrameHandler3:PROC
;	COMDAT xdata$x
; File d:\microsoft visual studio 10.0\vc\include\list
xdata$x	SEGMENT
__unwindtable$??1?$list@UILLUSIONTEMPLE_START_TIME@@V?$allocator@UILLUSIONTEMPLE_START_TIME@@@std@@@std@@QAE@XZ DD 0ffffffffH
	DD	FLAT:__unwindfunclet$??1?$list@UILLUSIONTEMPLE_START_TIME@@V?$allocator@UILLUSIONTEMPLE_START_TIME@@@std@@@std@@QAE@XZ$0
__ehfuncinfo$??1?$list@UILLUSIONTEMPLE_START_TIME@@V?$allocator@UILLUSIONTEMPLE_START_TIME@@@std@@@std@@QAE@XZ DD 019930522H
	DD	01H
	DD	FLAT:__unwindtable$??1?$list@UILLUSIONTEMPLE_START_TIME@@V?$allocator@UILLUSIONTEMPLE_START_TIME@@@std@@@std@@QAE@XZ
	DD	2 DUP(00H)
	DD	2 DUP(00H)
	DD	00H
	DD	01H
; Function compile flags: /Odtp /ZI
xdata$x	ENDS
;	COMDAT ??1?$list@UILLUSIONTEMPLE_START_TIME@@V?$allocator@UILLUSIONTEMPLE_START_TIME@@@std@@@std@@QAE@XZ
_TEXT	SEGMENT
_this$ = -16						; size = 4
__$EHRec$ = -12						; size = 12
??1?$list@UILLUSIONTEMPLE_START_TIME@@V?$allocator@UILLUSIONTEMPLE_START_TIME@@@std@@@std@@QAE@XZ PROC ; std::list<ILLUSIONTEMPLE_START_TIME,std::allocator<ILLUSIONTEMPLE_START_TIME> >::~list<ILLUSIONTEMPLE_START_TIME,std::allocator<ILLUSIONTEMPLE_START_TIME> >, COMDAT
; _this$ = ecx

; 769  : 		{	// destroy the object

  00000	55		 push	 ebp
  00001	8b ec		 mov	 ebp, esp
  00003	6a ff		 push	 -1
  00005	68 00 00 00 00	 push	 __ehhandler$??1?$list@UILLUSIONTEMPLE_START_TIME@@V?$allocator@UILLUSIONTEMPLE_START_TIME@@@std@@@std@@QAE@XZ
  0000a	64 a1 00 00 00
	00		 mov	 eax, DWORD PTR fs:0
  00010	50		 push	 eax
  00011	83 ec 44	 sub	 esp, 68			; 00000044H
  00014	53		 push	 ebx
  00015	56		 push	 esi
  00016	57		 push	 edi
  00017	a1 00 00 00 00	 mov	 eax, DWORD PTR ___security_cookie
  0001c	33 c5		 xor	 eax, ebp
  0001e	50		 push	 eax
  0001f	8d 45 f4	 lea	 eax, DWORD PTR __$EHRec$[ebp]
  00022	64 a3 00 00 00
	00		 mov	 DWORD PTR fs:0, eax
  00028	89 4d f0	 mov	 DWORD PTR _this$[ebp], ecx
  0002b	c7 45 fc 00 00
	00 00		 mov	 DWORD PTR __$EHRec$[ebp+8], 0

; 770  : 		_Tidy();

  00032	8b 4d f0	 mov	 ecx, DWORD PTR _this$[ebp]
  00035	e8 00 00 00 00	 call	 ?_Tidy@?$list@UILLUSIONTEMPLE_START_TIME@@V?$allocator@UILLUSIONTEMPLE_START_TIME@@@std@@@std@@QAEXXZ ; std::list<ILLUSIONTEMPLE_START_TIME,std::allocator<ILLUSIONTEMPLE_START_TIME> >::_Tidy

; 771  : 		}

  0003a	c7 45 fc ff ff
	ff ff		 mov	 DWORD PTR __$EHRec$[ebp+8], -1
  00041	8b 4d f0	 mov	 ecx, DWORD PTR _this$[ebp]
  00044	e8 00 00 00 00	 call	 ??1?$_List_val@UILLUSIONTEMPLE_START_TIME@@V?$allocator@UILLUSIONTEMPLE_START_TIME@@@std@@@std@@QAE@XZ ; std::_List_val<ILLUSIONTEMPLE_START_TIME,std::allocator<ILLUSIONTEMPLE_START_TIME> >::~_List_val<ILLUSIONTEMPLE_START_TIME,std::allocator<ILLUSIONTEMPLE_START_TIME> >
  00049	8b 4d f4	 mov	 ecx, DWORD PTR __$EHRec$[ebp]
  0004c	64 89 0d 00 00
	00 00		 mov	 DWORD PTR fs:0, ecx
  00053	59		 pop	 ecx
  00054	5f		 pop	 edi
  00055	5e		 pop	 esi
  00056	5b		 pop	 ebx
  00057	8b e5		 mov	 esp, ebp
  00059	5d		 pop	 ebp
  0005a	c3		 ret	 0
_TEXT	ENDS
;	COMDAT text$x
text$x	SEGMENT
__unwindfunclet$??1?$list@UILLUSIONTEMPLE_START_TIME@@V?$allocator@UILLUSIONTEMPLE_START_TIME@@@std@@@std@@QAE@XZ$0:
  00000	8b 4d f0	 mov	 ecx, DWORD PTR _this$[ebp]
  00003	e9 00 00 00 00	 jmp	 ??1?$_List_val@UILLUSIONTEMPLE_START_TIME@@V?$allocator@UILLUSIONTEMPLE_START_TIME@@@std@@@std@@QAE@XZ ; std::_List_val<ILLUSIONTEMPLE_START_TIME,std::allocator<ILLUSIONTEMPLE_START_TIME> >::~_List_val<ILLUSIONTEMPLE_START_TIME,std::allocator<ILLUSIONTEMPLE_START_TIME> >
__ehhandler$??1?$list@UILLUSIONTEMPLE_START_TIME@@V?$allocator@UILLUSIONTEMPLE_START_TIME@@@std@@@std@@QAE@XZ:
  00008	8b 54 24 08	 mov	 edx, DWORD PTR [esp+8]
  0000c	8d 42 0c	 lea	 eax, DWORD PTR [edx+12]
  0000f	8b 4a ac	 mov	 ecx, DWORD PTR [edx-84]
  00012	33 c8		 xor	 ecx, eax
  00014	e8 00 00 00 00	 call	 @__security_check_cookie@4
  00019	b8 00 00 00 00	 mov	 eax, OFFSET __ehfuncinfo$??1?$list@UILLUSIONTEMPLE_START_TIME@@V?$allocator@UILLUSIONTEMPLE_START_TIME@@@std@@@std@@QAE@XZ
  0001e	e9 00 00 00 00	 jmp	 ___CxxFrameHandler3
text$x	ENDS
??1?$list@UILLUSIONTEMPLE_START_TIME@@V?$allocator@UILLUSIONTEMPLE_START_TIME@@@std@@@std@@QAE@XZ ENDP ; std::list<ILLUSIONTEMPLE_START_TIME,std::allocator<ILLUSIONTEMPLE_START_TIME> >::~list<ILLUSIONTEMPLE_START_TIME,std::allocator<ILLUSIONTEMPLE_START_TIME> >
PUBLIC	?clear@?$list@UILLUSIONTEMPLE_START_TIME@@V?$allocator@UILLUSIONTEMPLE_START_TIME@@@std@@@std@@QAEXXZ ; std::list<ILLUSIONTEMPLE_START_TIME,std::allocator<ILLUSIONTEMPLE_START_TIME> >::clear
; Function compile flags: /Odtp /ZI
;	COMDAT ?_Tidy@?$list@UILLUSIONTEMPLE_START_TIME@@V?$allocator@UILLUSIONTEMPLE_START_TIME@@@std@@@std@@QAEXXZ
_TEXT	SEGMENT
_this$ = -4						; size = 4
?_Tidy@?$list@UILLUSIONTEMPLE_START_TIME@@V?$allocator@UILLUSIONTEMPLE_START_TIME@@@std@@@std@@QAEXXZ PROC ; std::list<ILLUSIONTEMPLE_START_TIME,std::allocator<ILLUSIONTEMPLE_START_TIME> >::_Tidy, COMDAT
; _this$ = ecx

; 1496 : 		{	// free all storage

  00000	55		 push	 ebp
  00001	8b ec		 mov	 ebp, esp
  00003	83 ec 44	 sub	 esp, 68			; 00000044H
  00006	53		 push	 ebx
  00007	56		 push	 esi
  00008	57		 push	 edi
  00009	89 4d fc	 mov	 DWORD PTR _this$[ebp], ecx

; 1497 : 		clear();

  0000c	8b 4d fc	 mov	 ecx, DWORD PTR _this$[ebp]
  0000f	e8 00 00 00 00	 call	 ?clear@?$list@UILLUSIONTEMPLE_START_TIME@@V?$allocator@UILLUSIONTEMPLE_START_TIME@@@std@@@std@@QAEXXZ ; std::list<ILLUSIONTEMPLE_START_TIME,std::allocator<ILLUSIONTEMPLE_START_TIME> >::clear

; 1498 : 		}

  00014	5f		 pop	 edi
  00015	5e		 pop	 esi
  00016	5b		 pop	 ebx
  00017	8b e5		 mov	 esp, ebp
  00019	5d		 pop	 ebp
  0001a	c3		 ret	 0
?_Tidy@?$list@UILLUSIONTEMPLE_START_TIME@@V?$allocator@UILLUSIONTEMPLE_START_TIME@@@std@@@std@@QAEXXZ ENDP ; std::list<ILLUSIONTEMPLE_START_TIME,std::allocator<ILLUSIONTEMPLE_START_TIME> >::_Tidy
_TEXT	ENDS
PUBLIC	?deallocate@?$allocator@U_Node@?$_List_nod@UILLUSIONTEMPLE_START_TIME@@V?$allocator@UILLUSIONTEMPLE_START_TIME@@@std@@@std@@@std@@QAEXPAU_Node@?$_List_nod@UILLUSIONTEMPLE_START_TIME@@V?$allocator@UILLUSIONTEMPLE_START_TIME@@@std@@@2@I@Z ; std::allocator<std::_List_nod<ILLUSIONTEMPLE_START_TIME,std::allocator<ILLUSIONTEMPLE_START_TIME> >::_Node>::deallocate
; Function compile flags: /Odtp /ZI
;	COMDAT ??1?$_List_val@UILLUSIONTEMPLE_START_TIME@@V?$allocator@UILLUSIONTEMPLE_START_TIME@@@std@@@std@@QAE@XZ
_TEXT	SEGMENT
_this$ = -4						; size = 4
??1?$_List_val@UILLUSIONTEMPLE_START_TIME@@V?$allocator@UILLUSIONTEMPLE_START_TIME@@@std@@@std@@QAE@XZ PROC ; std::_List_val<ILLUSIONTEMPLE_START_TIME,std::allocator<ILLUSIONTEMPLE_START_TIME> >::~_List_val<ILLUSIONTEMPLE_START_TIME,std::allocator<ILLUSIONTEMPLE_START_TIME> >, COMDAT
; _this$ = ecx

; 501  : 		{	// destroy the object

  00000	55		 push	 ebp
  00001	8b ec		 mov	 ebp, esp
  00003	83 ec 44	 sub	 esp, 68			; 00000044H
  00006	53		 push	 ebx
  00007	56		 push	 esi
  00008	57		 push	 edi
  00009	89 4d fc	 mov	 DWORD PTR _this$[ebp], ecx

; 502  : 		this->_Alnod.deallocate(this->_Myhead, 1);

  0000c	6a 01		 push	 1
  0000e	8b 45 fc	 mov	 eax, DWORD PTR _this$[ebp]
  00011	8b 08		 mov	 ecx, DWORD PTR [eax]
  00013	51		 push	 ecx
  00014	8b 4d fc	 mov	 ecx, DWORD PTR _this$[ebp]
  00017	83 c1 08	 add	 ecx, 8
  0001a	e8 00 00 00 00	 call	 ?deallocate@?$allocator@U_Node@?$_List_nod@UILLUSIONTEMPLE_START_TIME@@V?$allocator@UILLUSIONTEMPLE_START_TIME@@@std@@@std@@@std@@QAEXPAU_Node@?$_List_nod@UILLUSIONTEMPLE_START_TIME@@V?$allocator@UILLUSIONTEMPLE_START_TIME@@@std@@@2@I@Z ; std::allocator<std::_List_nod<ILLUSIONTEMPLE_START_TIME,std::allocator<ILLUSIONTEMPLE_START_TIME> >::_Node>::deallocate

; 503  : 		}

  0001f	5f		 pop	 edi
  00020	5e		 pop	 esi
  00021	5b		 pop	 ebx
  00022	8b e5		 mov	 esp, ebp
  00024	5d		 pop	 ebp
  00025	c3		 ret	 0
??1?$_List_val@UILLUSIONTEMPLE_START_TIME@@V?$allocator@UILLUSIONTEMPLE_START_TIME@@@std@@@std@@QAE@XZ ENDP ; std::_List_val<ILLUSIONTEMPLE_START_TIME,std::allocator<ILLUSIONTEMPLE_START_TIME> >::~_List_val<ILLUSIONTEMPLE_START_TIME,std::allocator<ILLUSIONTEMPLE_START_TIME> >
_TEXT	ENDS
PUBLIC	??$_Dest_val@V?$allocator@U_Node@?$_List_nod@UILLUSIONTEMPLE_START_TIME@@V?$allocator@UILLUSIONTEMPLE_START_TIME@@@std@@@std@@@std@@U_Node@?$_List_nod@UILLUSIONTEMPLE_START_TIME@@V?$allocator@UILLUSIONTEMPLE_START_TIME@@@std@@@2@@std@@YAXAAV?$allocator@U_Node@?$_List_nod@UILLUSIONTEMPLE_START_TIME@@V?$allocator@UILLUSIONTEMPLE_START_TIME@@@std@@@std@@@0@PAU_Node@?$_List_nod@UILLUSIONTEMPLE_START_TIME@@V?$allocator@UILLUSIONTEMPLE_START_TIME@@@std@@@0@@Z ; std::_Dest_val<std::allocator<std::_List_nod<ILLUSIONTEMPLE_START_TIME,std::allocator<ILLUSIONTEMPLE_START_TIME> >::_Node>,std::_List_nod<ILLUSIONTEMPLE_START_TIME,std::allocator<ILLUSIONTEMPLE_START_TIME> >::_Node>
; Function compile flags: /Odtp /ZI
;	COMDAT ?clear@?$list@UILLUSIONTEMPLE_START_TIME@@V?$allocator@UILLUSIONTEMPLE_START_TIME@@@std@@@std@@QAEXXZ
_TEXT	SEGMENT
__Pnode$ = -12						; size = 4
__Pnext$ = -8						; size = 4
_this$ = -4						; size = 4
?clear@?$list@UILLUSIONTEMPLE_START_TIME@@V?$allocator@UILLUSIONTEMPLE_START_TIME@@@std@@@std@@QAEXXZ PROC ; std::list<ILLUSIONTEMPLE_START_TIME,std::allocator<ILLUSIONTEMPLE_START_TIME> >::clear, COMDAT
; _this$ = ecx

; 1096 : 		{	// erase all

  00000	55		 push	 ebp
  00001	8b ec		 mov	 ebp, esp
  00003	83 ec 4c	 sub	 esp, 76			; 0000004cH
  00006	53		 push	 ebx
  00007	56		 push	 esi
  00008	57		 push	 edi
  00009	89 4d fc	 mov	 DWORD PTR _this$[ebp], ecx

; 1097 :  #if _ITERATOR_DEBUG_LEVEL == 2
; 1098 : 		this->_Orphan_ptr(*this, 0);
; 1099 :  #endif /* _ITERATOR_DEBUG_LEVEL == 2 */
; 1100 : 
; 1101 : 		_Nodeptr _Pnext;
; 1102 : 		_Nodeptr _Pnode = this->_Nextnode(this->_Myhead);

  0000c	8b 45 fc	 mov	 eax, DWORD PTR _this$[ebp]
  0000f	8b 08		 mov	 ecx, DWORD PTR [eax]
  00011	51		 push	 ecx
  00012	e8 00 00 00 00	 call	 ?_Nextnode@?$_List_val@UILLUSIONTEMPLE_START_TIME@@V?$allocator@UILLUSIONTEMPLE_START_TIME@@@std@@@std@@SAAAPAU_Node@?$_List_nod@UILLUSIONTEMPLE_START_TIME@@V?$allocator@UILLUSIONTEMPLE_START_TIME@@@std@@@2@PAU342@@Z ; std::_List_val<ILLUSIONTEMPLE_START_TIME,std::allocator<ILLUSIONTEMPLE_START_TIME> >::_Nextnode
  00017	83 c4 04	 add	 esp, 4
  0001a	8b 10		 mov	 edx, DWORD PTR [eax]
  0001c	89 55 f4	 mov	 DWORD PTR __Pnode$[ebp], edx

; 1103 : 		this->_Nextnode(this->_Myhead) = this->_Myhead;

  0001f	8b 45 fc	 mov	 eax, DWORD PTR _this$[ebp]
  00022	8b 08		 mov	 ecx, DWORD PTR [eax]
  00024	51		 push	 ecx
  00025	e8 00 00 00 00	 call	 ?_Nextnode@?$_List_val@UILLUSIONTEMPLE_START_TIME@@V?$allocator@UILLUSIONTEMPLE_START_TIME@@@std@@@std@@SAAAPAU_Node@?$_List_nod@UILLUSIONTEMPLE_START_TIME@@V?$allocator@UILLUSIONTEMPLE_START_TIME@@@std@@@2@PAU342@@Z ; std::_List_val<ILLUSIONTEMPLE_START_TIME,std::allocator<ILLUSIONTEMPLE_START_TIME> >::_Nextnode
  0002a	83 c4 04	 add	 esp, 4
  0002d	8b 55 fc	 mov	 edx, DWORD PTR _this$[ebp]
  00030	8b 0a		 mov	 ecx, DWORD PTR [edx]
  00032	89 08		 mov	 DWORD PTR [eax], ecx

; 1104 : 		this->_Prevnode(this->_Myhead) = this->_Myhead;

  00034	8b 45 fc	 mov	 eax, DWORD PTR _this$[ebp]
  00037	8b 08		 mov	 ecx, DWORD PTR [eax]
  00039	51		 push	 ecx
  0003a	e8 00 00 00 00	 call	 ?_Prevnode@?$_List_val@UILLUSIONTEMPLE_START_TIME@@V?$allocator@UILLUSIONTEMPLE_START_TIME@@@std@@@std@@SAAAPAU_Node@?$_List_nod@UILLUSIONTEMPLE_START_TIME@@V?$allocator@UILLUSIONTEMPLE_START_TIME@@@std@@@2@PAU342@@Z ; std::_List_val<ILLUSIONTEMPLE_START_TIME,std::allocator<ILLUSIONTEMPLE_START_TIME> >::_Prevnode
  0003f	83 c4 04	 add	 esp, 4
  00042	8b 55 fc	 mov	 edx, DWORD PTR _this$[ebp]
  00045	8b 0a		 mov	 ecx, DWORD PTR [edx]
  00047	89 08		 mov	 DWORD PTR [eax], ecx

; 1105 : 		this->_Mysize = 0;

  00049	8b 45 fc	 mov	 eax, DWORD PTR _this$[ebp]
  0004c	c7 40 04 00 00
	00 00		 mov	 DWORD PTR [eax+4], 0
  00053	eb 06		 jmp	 SHORT $LN3@clear
$LN2@clear:

; 1106 : 
; 1107 : 		for (; _Pnode != this->_Myhead; _Pnode = _Pnext)

  00055	8b 45 f8	 mov	 eax, DWORD PTR __Pnext$[ebp]
  00058	89 45 f4	 mov	 DWORD PTR __Pnode$[ebp], eax
$LN3@clear:
  0005b	8b 45 fc	 mov	 eax, DWORD PTR _this$[ebp]
  0005e	8b 4d f4	 mov	 ecx, DWORD PTR __Pnode$[ebp]
  00061	3b 08		 cmp	 ecx, DWORD PTR [eax]
  00063	74 37		 je	 SHORT $LN4@clear

; 1108 : 			{	// delete an element
; 1109 : 			_Pnext = this->_Nextnode(_Pnode);

  00065	8b 45 f4	 mov	 eax, DWORD PTR __Pnode$[ebp]
  00068	50		 push	 eax
  00069	e8 00 00 00 00	 call	 ?_Nextnode@?$_List_val@UILLUSIONTEMPLE_START_TIME@@V?$allocator@UILLUSIONTEMPLE_START_TIME@@@std@@@std@@SAAAPAU_Node@?$_List_nod@UILLUSIONTEMPLE_START_TIME@@V?$allocator@UILLUSIONTEMPLE_START_TIME@@@std@@@2@PAU342@@Z ; std::_List_val<ILLUSIONTEMPLE_START_TIME,std::allocator<ILLUSIONTEMPLE_START_TIME> >::_Nextnode
  0006e	83 c4 04	 add	 esp, 4
  00071	8b 08		 mov	 ecx, DWORD PTR [eax]
  00073	89 4d f8	 mov	 DWORD PTR __Pnext$[ebp], ecx

; 1110 : 
; 1111 : 			_Dest_val(this->_Alnod, _Pnode);

  00076	8b 45 f4	 mov	 eax, DWORD PTR __Pnode$[ebp]
  00079	50		 push	 eax
  0007a	8b 4d fc	 mov	 ecx, DWORD PTR _this$[ebp]
  0007d	83 c1 08	 add	 ecx, 8
  00080	51		 push	 ecx
  00081	e8 00 00 00 00	 call	 ??$_Dest_val@V?$allocator@U_Node@?$_List_nod@UILLUSIONTEMPLE_START_TIME@@V?$allocator@UILLUSIONTEMPLE_START_TIME@@@std@@@std@@@std@@U_Node@?$_List_nod@UILLUSIONTEMPLE_START_TIME@@V?$allocator@UILLUSIONTEMPLE_START_TIME@@@std@@@2@@std@@YAXAAV?$allocator@U_Node@?$_List_nod@UILLUSIONTEMPLE_START_TIME@@V?$allocator@UILLUSIONTEMPLE_START_TIME@@@std@@@std@@@0@PAU_Node@?$_List_nod@UILLUSIONTEMPLE_START_TIME@@V?$allocator@UILLUSIONTEMPLE_START_TIME@@@std@@@0@@Z ; std::_Dest_val<std::allocator<std::_List_nod<ILLUSIONTEMPLE_START_TIME,std::allocator<ILLUSIONTEMPLE_START_TIME> >::_Node>,std::_List_nod<ILLUSIONTEMPLE_START_TIME,std::allocator<ILLUSIONTEMPLE_START_TIME> >::_Node>
  00086	83 c4 08	 add	 esp, 8

; 1112 : 			this->_Alnod.deallocate(_Pnode, 1);

  00089	6a 01		 push	 1
  0008b	8b 45 f4	 mov	 eax, DWORD PTR __Pnode$[ebp]
  0008e	50		 push	 eax
  0008f	8b 4d fc	 mov	 ecx, DWORD PTR _this$[ebp]
  00092	83 c1 08	 add	 ecx, 8
  00095	e8 00 00 00 00	 call	 ?deallocate@?$allocator@U_Node@?$_List_nod@UILLUSIONTEMPLE_START_TIME@@V?$allocator@UILLUSIONTEMPLE_START_TIME@@@std@@@std@@@std@@QAEXPAU_Node@?$_List_nod@UILLUSIONTEMPLE_START_TIME@@V?$allocator@UILLUSIONTEMPLE_START_TIME@@@std@@@2@I@Z ; std::allocator<std::_List_nod<ILLUSIONTEMPLE_START_TIME,std::allocator<ILLUSIONTEMPLE_START_TIME> >::_Node>::deallocate

; 1113 : 			}

  0009a	eb b9		 jmp	 SHORT $LN2@clear
$LN4@clear:

; 1114 : 		}

  0009c	5f		 pop	 edi
  0009d	5e		 pop	 esi
  0009e	5b		 pop	 ebx
  0009f	8b e5		 mov	 esp, ebp
  000a1	5d		 pop	 ebp
  000a2	c3		 ret	 0
?clear@?$list@UILLUSIONTEMPLE_START_TIME@@V?$allocator@UILLUSIONTEMPLE_START_TIME@@@std@@@std@@QAEXXZ ENDP ; std::list<ILLUSIONTEMPLE_START_TIME,std::allocator<ILLUSIONTEMPLE_START_TIME> >::clear
; Function compile flags: /Odtp /ZI
; File d:\microsoft visual studio 10.0\vc\include\xmemory
_TEXT	ENDS
;	COMDAT ?deallocate@?$allocator@U_Node@?$_List_nod@UILLUSIONTEMPLE_START_TIME@@V?$allocator@UILLUSIONTEMPLE_START_TIME@@@std@@@std@@@std@@QAEXPAU_Node@?$_List_nod@UILLUSIONTEMPLE_START_TIME@@V?$allocator@UILLUSIONTEMPLE_START_TIME@@@std@@@2@I@Z
_TEXT	SEGMENT
_this$ = -4						; size = 4
__Ptr$ = 8						; size = 4
___formal$ = 12						; size = 4
?deallocate@?$allocator@U_Node@?$_List_nod@UILLUSIONTEMPLE_START_TIME@@V?$allocator@UILLUSIONTEMPLE_START_TIME@@@std@@@std@@@std@@QAEXPAU_Node@?$_List_nod@UILLUSIONTEMPLE_START_TIME@@V?$allocator@UILLUSIONTEMPLE_START_TIME@@@std@@@2@I@Z PROC ; std::allocator<std::_List_nod<ILLUSIONTEMPLE_START_TIME,std::allocator<ILLUSIONTEMPLE_START_TIME> >::_Node>::deallocate, COMDAT
; _this$ = ecx

; 181  : 		{	// deallocate object at _Ptr, ignore size

  00000	55		 push	 ebp
  00001	8b ec		 mov	 ebp, esp
  00003	83 ec 44	 sub	 esp, 68			; 00000044H
  00006	53		 push	 ebx
  00007	56		 push	 esi
  00008	57		 push	 edi
  00009	89 4d fc	 mov	 DWORD PTR _this$[ebp], ecx

; 182  : 		::operator delete(_Ptr);

  0000c	8b 45 08	 mov	 eax, DWORD PTR __Ptr$[ebp]
  0000f	50		 push	 eax
  00010	e8 00 00 00 00	 call	 ??3@YAXPAX@Z		; operator delete
  00015	83 c4 04	 add	 esp, 4

; 183  : 		}

  00018	5f		 pop	 edi
  00019	5e		 pop	 esi
  0001a	5b		 pop	 ebx
  0001b	8b e5		 mov	 esp, ebp
  0001d	5d		 pop	 ebp
  0001e	c2 08 00	 ret	 8
?deallocate@?$allocator@U_Node@?$_List_nod@UILLUSIONTEMPLE_START_TIME@@V?$allocator@UILLUSIONTEMPLE_START_TIME@@@std@@@std@@@std@@QAEXPAU_Node@?$_List_nod@UILLUSIONTEMPLE_START_TIME@@V?$allocator@UILLUSIONTEMPLE_START_TIME@@@std@@@2@I@Z ENDP ; std::allocator<std::_List_nod<ILLUSIONTEMPLE_START_TIME,std::allocator<ILLUSIONTEMPLE_START_TIME> >::_Node>::deallocate
_TEXT	ENDS
PUBLIC	?destroy@?$allocator@U_Node@?$_List_nod@UILLUSIONTEMPLE_START_TIME@@V?$allocator@UILLUSIONTEMPLE_START_TIME@@@std@@@std@@@std@@QAEXPAU_Node@?$_List_nod@UILLUSIONTEMPLE_START_TIME@@V?$allocator@UILLUSIONTEMPLE_START_TIME@@@std@@@2@@Z ; std::allocator<std::_List_nod<ILLUSIONTEMPLE_START_TIME,std::allocator<ILLUSIONTEMPLE_START_TIME> >::_Node>::destroy
; Function compile flags: /Odtp /ZI
;	COMDAT ??$_Dest_val@V?$allocator@U_Node@?$_List_nod@UILLUSIONTEMPLE_START_TIME@@V?$allocator@UILLUSIONTEMPLE_START_TIME@@@std@@@std@@@std@@U_Node@?$_List_nod@UILLUSIONTEMPLE_START_TIME@@V?$allocator@UILLUSIONTEMPLE_START_TIME@@@std@@@2@@std@@YAXAAV?$allocator@U_Node@?$_List_nod@UILLUSIONTEMPLE_START_TIME@@V?$allocator@UILLUSIONTEMPLE_START_TIME@@@std@@@std@@@0@PAU_Node@?$_List_nod@UILLUSIONTEMPLE_START_TIME@@V?$allocator@UILLUSIONTEMPLE_START_TIME@@@std@@@0@@Z
_TEXT	SEGMENT
__Alval$ = 8						; size = 4
__Pdest$ = 12						; size = 4
??$_Dest_val@V?$allocator@U_Node@?$_List_nod@UILLUSIONTEMPLE_START_TIME@@V?$allocator@UILLUSIONTEMPLE_START_TIME@@@std@@@std@@@std@@U_Node@?$_List_nod@UILLUSIONTEMPLE_START_TIME@@V?$allocator@UILLUSIONTEMPLE_START_TIME@@@std@@@2@@std@@YAXAAV?$allocator@U_Node@?$_List_nod@UILLUSIONTEMPLE_START_TIME@@V?$allocator@UILLUSIONTEMPLE_START_TIME@@@std@@@std@@@0@PAU_Node@?$_List_nod@UILLUSIONTEMPLE_START_TIME@@V?$allocator@UILLUSIONTEMPLE_START_TIME@@@std@@@0@@Z PROC ; std::_Dest_val<std::allocator<std::_List_nod<ILLUSIONTEMPLE_START_TIME,std::allocator<ILLUSIONTEMPLE_START_TIME> >::_Node>,std::_List_nod<ILLUSIONTEMPLE_START_TIME,std::allocator<ILLUSIONTEMPLE_START_TIME> >::_Node>, COMDAT

; 286  : 	{	// destroy using allocator

  00000	55		 push	 ebp
  00001	8b ec		 mov	 ebp, esp
  00003	83 ec 40	 sub	 esp, 64			; 00000040H
  00006	53		 push	 ebx
  00007	56		 push	 esi
  00008	57		 push	 edi

; 287  : 	_Alval.destroy(_Pdest);

  00009	8b 45 0c	 mov	 eax, DWORD PTR __Pdest$[ebp]
  0000c	50		 push	 eax
  0000d	8b 4d 08	 mov	 ecx, DWORD PTR __Alval$[ebp]
  00010	e8 00 00 00 00	 call	 ?destroy@?$allocator@U_Node@?$_List_nod@UILLUSIONTEMPLE_START_TIME@@V?$allocator@UILLUSIONTEMPLE_START_TIME@@@std@@@std@@@std@@QAEXPAU_Node@?$_List_nod@UILLUSIONTEMPLE_START_TIME@@V?$allocator@UILLUSIONTEMPLE_START_TIME@@@std@@@2@@Z ; std::allocator<std::_List_nod<ILLUSIONTEMPLE_START_TIME,std::allocator<ILLUSIONTEMPLE_START_TIME> >::_Node>::destroy

; 288  : 	}

  00015	5f		 pop	 edi
  00016	5e		 pop	 esi
  00017	5b		 pop	 ebx
  00018	8b e5		 mov	 esp, ebp
  0001a	5d		 pop	 ebp
  0001b	c3		 ret	 0
??$_Dest_val@V?$allocator@U_Node@?$_List_nod@UILLUSIONTEMPLE_START_TIME@@V?$allocator@UILLUSIONTEMPLE_START_TIME@@@std@@@std@@@std@@U_Node@?$_List_nod@UILLUSIONTEMPLE_START_TIME@@V?$allocator@UILLUSIONTEMPLE_START_TIME@@@std@@@2@@std@@YAXAAV?$allocator@U_Node@?$_List_nod@UILLUSIONTEMPLE_START_TIME@@V?$allocator@UILLUSIONTEMPLE_START_TIME@@@std@@@std@@@0@PAU_Node@?$_List_nod@UILLUSIONTEMPLE_START_TIME@@V?$allocator@UILLUSIONTEMPLE_START_TIME@@@std@@@0@@Z ENDP ; std::_Dest_val<std::allocator<std::_List_nod<ILLUSIONTEMPLE_START_TIME,std::allocator<ILLUSIONTEMPLE_START_TIME> >::_Node>,std::_List_nod<ILLUSIONTEMPLE_START_TIME,std::allocator<ILLUSIONTEMPLE_START_TIME> >::_Node>
_TEXT	ENDS
PUBLIC	??$_Destroy@U_Node@?$_List_nod@UILLUSIONTEMPLE_START_TIME@@V?$allocator@UILLUSIONTEMPLE_START_TIME@@@std@@@std@@@std@@YAXPAU_Node@?$_List_nod@UILLUSIONTEMPLE_START_TIME@@V?$allocator@UILLUSIONTEMPLE_START_TIME@@@std@@@0@@Z ; std::_Destroy<std::_List_nod<ILLUSIONTEMPLE_START_TIME,std::allocator<ILLUSIONTEMPLE_START_TIME> >::_Node>
; Function compile flags: /Odtp /ZI
;	COMDAT ?destroy@?$allocator@U_Node@?$_List_nod@UILLUSIONTEMPLE_START_TIME@@V?$allocator@UILLUSIONTEMPLE_START_TIME@@@std@@@std@@@std@@QAEXPAU_Node@?$_List_nod@UILLUSIONTEMPLE_START_TIME@@V?$allocator@UILLUSIONTEMPLE_START_TIME@@@std@@@2@@Z
_TEXT	SEGMENT
_this$ = -4						; size = 4
__Ptr$ = 8						; size = 4
?destroy@?$allocator@U_Node@?$_List_nod@UILLUSIONTEMPLE_START_TIME@@V?$allocator@UILLUSIONTEMPLE_START_TIME@@@std@@@std@@@std@@QAEXPAU_Node@?$_List_nod@UILLUSIONTEMPLE_START_TIME@@V?$allocator@UILLUSIONTEMPLE_START_TIME@@@std@@@2@@Z PROC ; std::allocator<std::_List_nod<ILLUSIONTEMPLE_START_TIME,std::allocator<ILLUSIONTEMPLE_START_TIME> >::_Node>::destroy, COMDAT
; _this$ = ecx

; 212  : 		{	// destroy object at _Ptr

  00000	55		 push	 ebp
  00001	8b ec		 mov	 ebp, esp
  00003	83 ec 44	 sub	 esp, 68			; 00000044H
  00006	53		 push	 ebx
  00007	56		 push	 esi
  00008	57		 push	 edi
  00009	89 4d fc	 mov	 DWORD PTR _this$[ebp], ecx

; 213  : 		_Destroy(_Ptr);

  0000c	8b 45 08	 mov	 eax, DWORD PTR __Ptr$[ebp]
  0000f	50		 push	 eax
  00010	e8 00 00 00 00	 call	 ??$_Destroy@U_Node@?$_List_nod@UILLUSIONTEMPLE_START_TIME@@V?$allocator@UILLUSIONTEMPLE_START_TIME@@@std@@@std@@@std@@YAXPAU_Node@?$_List_nod@UILLUSIONTEMPLE_START_TIME@@V?$allocator@UILLUSIONTEMPLE_START_TIME@@@std@@@0@@Z ; std::_Destroy<std::_List_nod<ILLUSIONTEMPLE_START_TIME,std::allocator<ILLUSIONTEMPLE_START_TIME> >::_Node>
  00015	83 c4 04	 add	 esp, 4

; 214  : 		}

  00018	5f		 pop	 edi
  00019	5e		 pop	 esi
  0001a	5b		 pop	 ebx
  0001b	8b e5		 mov	 esp, ebp
  0001d	5d		 pop	 ebp
  0001e	c2 04 00	 ret	 4
?destroy@?$allocator@U_Node@?$_List_nod@UILLUSIONTEMPLE_START_TIME@@V?$allocator@UILLUSIONTEMPLE_START_TIME@@@std@@@std@@@std@@QAEXPAU_Node@?$_List_nod@UILLUSIONTEMPLE_START_TIME@@V?$allocator@UILLUSIONTEMPLE_START_TIME@@@std@@@2@@Z ENDP ; std::allocator<std::_List_nod<ILLUSIONTEMPLE_START_TIME,std::allocator<ILLUSIONTEMPLE_START_TIME> >::_Node>::destroy
; Function compile flags: /Odtp /ZI
_TEXT	ENDS
;	COMDAT ??$_Destroy@U_Node@?$_List_nod@UILLUSIONTEMPLE_START_TIME@@V?$allocator@UILLUSIONTEMPLE_START_TIME@@@std@@@std@@@std@@YAXPAU_Node@?$_List_nod@UILLUSIONTEMPLE_START_TIME@@V?$allocator@UILLUSIONTEMPLE_START_TIME@@@std@@@0@@Z
_TEXT	SEGMENT
__Ptr$ = 8						; size = 4
??$_Destroy@U_Node@?$_List_nod@UILLUSIONTEMPLE_START_TIME@@V?$allocator@UILLUSIONTEMPLE_START_TIME@@@std@@@std@@@std@@YAXPAU_Node@?$_List_nod@UILLUSIONTEMPLE_START_TIME@@V?$allocator@UILLUSIONTEMPLE_START_TIME@@@std@@@0@@Z PROC ; std::_Destroy<std::_List_nod<ILLUSIONTEMPLE_START_TIME,std::allocator<ILLUSIONTEMPLE_START_TIME> >::_Node>, COMDAT

; 62   : 	{	// destroy object at _Ptr

  00000	55		 push	 ebp
  00001	8b ec		 mov	 ebp, esp
  00003	83 ec 40	 sub	 esp, 64			; 00000040H
  00006	53		 push	 ebx
  00007	56		 push	 esi
  00008	57		 push	 edi

; 63   : 	_Ptr->~_Ty();
; 64   : 	}

  00009	5f		 pop	 edi
  0000a	5e		 pop	 esi
  0000b	5b		 pop	 ebx
  0000c	8b e5		 mov	 esp, ebp
  0000e	5d		 pop	 ebp
  0000f	c3		 ret	 0
??$_Destroy@U_Node@?$_List_nod@UILLUSIONTEMPLE_START_TIME@@V?$allocator@UILLUSIONTEMPLE_START_TIME@@@std@@@std@@@std@@YAXPAU_Node@?$_List_nod@UILLUSIONTEMPLE_START_TIME@@V?$allocator@UILLUSIONTEMPLE_START_TIME@@@std@@@0@@Z ENDP ; std::_Destroy<std::_List_nod<ILLUSIONTEMPLE_START_TIME,std::allocator<ILLUSIONTEMPLE_START_TIME> >::_Node>
_TEXT	ENDS
PUBLIC	?m_listIllusionTempleOpenTime@@3V?$list@UILLUSIONTEMPLE_START_TIME@@V?$allocator@UILLUSIONTEMPLE_START_TIME@@@std@@@std@@A ; m_listIllusionTempleOpenTime
_BSS	SEGMENT
?m_listIllusionTempleOpenTime@@3V?$list@UILLUSIONTEMPLE_START_TIME@@V?$allocator@UILLUSIONTEMPLE_START_TIME@@@std@@@std@@A DB 0cH DUP (?) ; m_listIllusionTempleOpenTime
_BSS	ENDS
CRT$XCU	SEGMENT
_m_listIllusionTempleOpenTime$initializer$ DD FLAT:??__Em_listIllusionTempleOpenTime@@YAXXZ
CRT$XCU	ENDS
END
