; Listing generated by Microsoft (R) Optimizing Compiler Version 16.00.40219.01 

	TITLE	D:\Projects\ExTeam6.3\Source\GameServer\GameServer\IllusionTempleEvent.cpp
	.686P
	.XMM
	include listing.inc
	.model	flat

INCLUDELIB LIBCMT
INCLUDELIB OLDNAMES

PUBLIC	?m_i_IT_PlayTime@@3HA				; m_i_IT_PlayTime
PUBLIC	?m_i_IT_OpenTime@@3HA				; m_i_IT_OpenTime
PUBLIC	?m_i_IT_CloseTime@@3HA				; m_i_IT_CloseTime
PUBLIC	?m_i_IT_RestTime@@3HA				; m_i_IT_RestTime
PUBLIC	?m_i_IT_WaitTime@@3HA				; m_i_IT_WaitTime
PUBLIC	?g_iIllusionTempleEvent@@3HA			; g_iIllusionTempleEvent
PUBLIC	?g_iOldScrollDropRate@@3HA			; g_iOldScrollDropRate
PUBLIC	?g_iCovenantOfIllusionDropRate@@3HA		; g_iCovenantOfIllusionDropRate
PUBLIC	?g_iUseMaxLevelIllusionTemple@@3HA		; g_iUseMaxLevelIllusionTemple
PUBLIC	?g_iSaveIllusionTempleRankingPoint@@3HA		; g_iSaveIllusionTempleRankingPoint
PUBLIC	?g_iIllusionTempleRewardPercent@@3HA		; g_iIllusionTempleRewardPercent
PUBLIC	?g_iIllusionTempleMinUseSkillCnt@@3HA		; g_iIllusionTempleMinUseSkillCnt
PUBLIC	?g_iIllusionTempleRewardPercentMaster@@3HA	; g_iIllusionTempleRewardPercentMaster
_BSS	SEGMENT
?m_i_IT_PlayTime@@3HA DD 01H DUP (?)			; m_i_IT_PlayTime
?m_i_IT_OpenTime@@3HA DD 01H DUP (?)			; m_i_IT_OpenTime
?m_i_IT_CloseTime@@3HA DD 01H DUP (?)			; m_i_IT_CloseTime
?m_i_IT_RestTime@@3HA DD 01H DUP (?)			; m_i_IT_RestTime
?m_i_IT_WaitTime@@3HA DD 01H DUP (?)			; m_i_IT_WaitTime
?g_iOldScrollDropRate@@3HA DD 01H DUP (?)		; g_iOldScrollDropRate
?g_iCovenantOfIllusionDropRate@@3HA DD 01H DUP (?)	; g_iCovenantOfIllusionDropRate
?g_iUseMaxLevelIllusionTemple@@3HA DD 01H DUP (?)	; g_iUseMaxLevelIllusionTemple
?g_iSaveIllusionTempleRankingPoint@@3HA DD 01H DUP (?)	; g_iSaveIllusionTempleRankingPoint
_BSS	ENDS
_DATA	SEGMENT
_g_iNpcUpDfLevel_CGATE DD 01H
	DD	02H
	DD	02dc6c0H
	DD	02H
	DD	03H
	DD	02dc6c0H
	DD	03H
	DD	04H
	DD	02dc6c0H
_g_iNpcUpDfLevel_CSTATUE DD 01H
	DD	03H
	DD	02dc6c0H
	DD	02H
	DD	05H
	DD	02dc6c0H
	DD	03H
	DD	07H
	DD	02dc6c0H
_g_iNpcUpMaxHP_CGATE DD 02625a0H
	DD	02H
	DD	0f4240H
	DD	03567e0H
	DD	03H
	DD	0f4240H
	DD	04f5880H
	DD	04H
	DD	0f4240H
_g_iNpcUpMaxHP_CSTATUE DD 02191c0H
	DD	03H
	DD	0f4240H
	DD	033e140H
	DD	05H
	DD	0f4240H
	DD	04c4b40H
	DD	07H
	DD	0f4240H
_g_iNpcUpRgLevel_CSTATUE DD 01H
	DD	03H
	DD	04c4b40H
	DD	02H
	DD	05H
	DD	04c4b40H
	DD	03H
	DD	07H
	DD	04c4b40H
_g_iCsUserReSpawnArea DD 023H
	DD	011H
	DD	090H
	DD	030H
	DD	04aH
	DD	090H
	DD	073H
	DD	09aH
	DD	023H
	DD	011H
	DD	090H
	DD	030H
_g_iNpcDefense_CGATE DD 064H
	DD	0b4H
	DD	012cH
	DD	0208H
_g_iNpcDefense_CSTATUE DD 050H
	DD	0b4H
	DD	0154H
	DD	0226H
_g_iCastleWallStepAxisY DD 071H
	DD	0a0H
	DD	0cbH
_g_sttDEVILSQUARE_LEVEL DD 0fH
	DD	082H
	DD	0aH
	DD	06eH
	DD	03aH
	DD	083H
	DD	0b4H
	DD	06fH
	DD	0a0H
	DD	03bH
	DD	0b5H
	DD	0e6H
	DD	0a1H
	DD	0d2H
	DD	03cH
	DD	0e7H
	DD	0118H
	DD	0d3H
	DD	0104H
	DD	03dH
	DD	0119H
	DD	014aH
	DD	0105H
	DD	0136H
	DD	06fH
	DD	014bH
	DD	0190H
	DD	0137H
	DD	0190H
	DD	070H
	DD	0fH
	DD	0257H
	DD	0aH
	DD	0257H
	DD	010eH
?g_iIllusionTempleEvent@@3HA DD 01H			; g_iIllusionTempleEvent
?g_iIllusionTempleRewardPercent@@3HA DD 064H		; g_iIllusionTempleRewardPercent
?g_iIllusionTempleMinUseSkillCnt@@3HA DD 03H		; g_iIllusionTempleMinUseSkillCnt
?g_iIllusionTempleRewardPercentMaster@@3HA DD 064H	; g_iIllusionTempleRewardPercentMaster
_DATA	ENDS
CONST	SEGMENT
_g_iIT_ChoasMixSuccessRate DD 046H
	DD	046H
	DD	046H
	DD	046H
	DD	046H
	DD	046H
_g_iIT_ChoasMixMoney DD 02dc6c0H
	DD	04c4b40H
	DD	06acfc0H
	DD	0895440H
	DD	0a7d8c0H
	DD	0c65d40H
CONST	ENDS
PUBLIC	??_H@YGXPAXIHP6EPAX0@Z@Z			; `vector constructor iterator'
; Function compile flags: /Odtp /ZI
;	COMDAT ??_H@YGXPAXIHP6EPAX0@Z@Z
_TEXT	SEGMENT
___t$ = 8						; size = 4
___s$ = 12						; size = 4
___n$ = 16						; size = 4
___f$ = 20						; size = 4
??_H@YGXPAXIHP6EPAX0@Z@Z PROC				; `vector constructor iterator', COMDAT
  00000	55		 push	 ebp
  00001	8b ec		 mov	 ebp, esp
  00003	83 ec 40	 sub	 esp, 64			; 00000040H
  00006	53		 push	 ebx
  00007	56		 push	 esi
  00008	57		 push	 edi
$LN2@vector:
  00009	8b 45 10	 mov	 eax, DWORD PTR ___n$[ebp]
  0000c	83 e8 01	 sub	 eax, 1
  0000f	89 45 10	 mov	 DWORD PTR ___n$[ebp], eax
  00012	78 11		 js	 SHORT $LN3@vector
  00014	8b 4d 08	 mov	 ecx, DWORD PTR ___t$[ebp]
  00017	ff 55 14	 call	 DWORD PTR ___f$[ebp]
  0001a	8b 45 08	 mov	 eax, DWORD PTR ___t$[ebp]
  0001d	03 45 0c	 add	 eax, DWORD PTR ___s$[ebp]
  00020	89 45 08	 mov	 DWORD PTR ___t$[ebp], eax
  00023	eb e4		 jmp	 SHORT $LN2@vector
$LN3@vector:
  00025	5f		 pop	 edi
  00026	5e		 pop	 esi
  00027	5b		 pop	 ebx
  00028	8b e5		 mov	 esp, ebp
  0002a	5d		 pop	 ebp
  0002b	c2 10 00	 ret	 16			; 00000010H
??_H@YGXPAXIHP6EPAX0@Z@Z ENDP				; `vector constructor iterator'
_TEXT	ENDS
PUBLIC	??_7CIllusionTempleEvent@@6B@			; CIllusionTempleEvent::`vftable'
PUBLIC	??0CIllusionTempleEvent@@QAE@XZ			; CIllusionTempleEvent::CIllusionTempleEvent
PUBLIC	??_R4CIllusionTempleEvent@@6B@			; CIllusionTempleEvent::`RTTI Complete Object Locator'
PUBLIC	??_R0?AVCIllusionTempleEvent@@@8		; CIllusionTempleEvent `RTTI Type Descriptor'
PUBLIC	??_R3CIllusionTempleEvent@@8			; CIllusionTempleEvent::`RTTI Class Hierarchy Descriptor'
PUBLIC	??_R2CIllusionTempleEvent@@8			; CIllusionTempleEvent::`RTTI Base Class Array'
PUBLIC	??_R1A@?0A@EA@CIllusionTempleEvent@@8		; CIllusionTempleEvent::`RTTI Base Class Descriptor at (0,-1,0,64)'
EXTRN	??_L@YGXPAXIHP6EX0@Z1@Z:PROC			; `eh vector constructor iterator'
EXTRN	??0CIllusionTempleProcess@@QAE@XZ:PROC		; CIllusionTempleProcess::CIllusionTempleProcess
EXTRN	??1CIllusionTempleProcess@@UAE@XZ:PROC		; CIllusionTempleProcess::~CIllusionTempleProcess
EXTRN	??_7type_info@@6B@:QWORD			; type_info::`vftable'
EXTRN	??_ECIllusionTempleEvent@@UAEPAXI@Z:PROC	; CIllusionTempleEvent::`vector deleting destructor'
;	COMDAT ??_R1A@?0A@EA@CIllusionTempleEvent@@8
; File d:\projects\exteam6.3\source\gameserver\gameserver\illusiontempleevent.cpp
rdata$r	SEGMENT
??_R1A@?0A@EA@CIllusionTempleEvent@@8 DD FLAT:??_R0?AVCIllusionTempleEvent@@@8 ; CIllusionTempleEvent::`RTTI Base Class Descriptor at (0,-1,0,64)'
	DD	00H
	DD	00H
	DD	0ffffffffH
	DD	00H
	DD	040H
	DD	FLAT:??_R3CIllusionTempleEvent@@8
rdata$r	ENDS
;	COMDAT ??_R2CIllusionTempleEvent@@8
rdata$r	SEGMENT
??_R2CIllusionTempleEvent@@8 DD FLAT:??_R1A@?0A@EA@CIllusionTempleEvent@@8 ; CIllusionTempleEvent::`RTTI Base Class Array'
rdata$r	ENDS
;	COMDAT ??_R3CIllusionTempleEvent@@8
rdata$r	SEGMENT
??_R3CIllusionTempleEvent@@8 DD 00H			; CIllusionTempleEvent::`RTTI Class Hierarchy Descriptor'
	DD	00H
	DD	01H
	DD	FLAT:??_R2CIllusionTempleEvent@@8
rdata$r	ENDS
;	COMDAT ??_R0?AVCIllusionTempleEvent@@@8
_DATA	SEGMENT
??_R0?AVCIllusionTempleEvent@@@8 DD FLAT:??_7type_info@@6B@ ; CIllusionTempleEvent `RTTI Type Descriptor'
	DD	00H
	DB	'.?AVCIllusionTempleEvent@@', 00H
_DATA	ENDS
;	COMDAT ??_R4CIllusionTempleEvent@@6B@
rdata$r	SEGMENT
??_R4CIllusionTempleEvent@@6B@ DD 00H			; CIllusionTempleEvent::`RTTI Complete Object Locator'
	DD	00H
	DD	00H
	DD	FLAT:??_R0?AVCIllusionTempleEvent@@@8
	DD	FLAT:??_R3CIllusionTempleEvent@@8
rdata$r	ENDS
;	COMDAT ??_7CIllusionTempleEvent@@6B@
CONST	SEGMENT
??_7CIllusionTempleEvent@@6B@ DD FLAT:??_R4CIllusionTempleEvent@@6B@ ; CIllusionTempleEvent::`vftable'
	DD	FLAT:??_ECIllusionTempleEvent@@UAEPAXI@Z
; Function compile flags: /Odtp /ZI
CONST	ENDS
_TEXT	SEGMENT
_this$ = -4						; size = 4
??0CIllusionTempleEvent@@QAE@XZ PROC			; CIllusionTempleEvent::CIllusionTempleEvent
; _this$ = ecx

; 37   : {

  00000	55		 push	 ebp
  00001	8b ec		 mov	 ebp, esp
  00003	83 ec 44	 sub	 esp, 68			; 00000044H
  00006	53		 push	 ebx
  00007	56		 push	 esi
  00008	57		 push	 edi
  00009	89 4d fc	 mov	 DWORD PTR _this$[ebp], ecx
  0000c	8b 45 fc	 mov	 eax, DWORD PTR _this$[ebp]
  0000f	c7 00 00 00 00
	00		 mov	 DWORD PTR [eax], OFFSET ??_7CIllusionTempleEvent@@6B@
  00015	68 00 00 00 00	 push	 OFFSET ??1CIllusionTempleProcess@@UAE@XZ ; CIllusionTempleProcess::~CIllusionTempleProcess
  0001a	68 00 00 00 00	 push	 OFFSET ??0CIllusionTempleProcess@@QAE@XZ ; CIllusionTempleProcess::CIllusionTempleProcess
  0001f	6a 06		 push	 6
  00021	68 f0 03 00 00	 push	 1008			; 000003f0H
  00026	8b 45 fc	 mov	 eax, DWORD PTR _this$[ebp]
  00029	83 c0 08	 add	 eax, 8
  0002c	50		 push	 eax
  0002d	e8 00 00 00 00	 call	 ??_L@YGXPAXIHP6EX0@Z1@Z

; 38   : 
; 39   : }

  00032	8b 45 fc	 mov	 eax, DWORD PTR _this$[ebp]
  00035	5f		 pop	 edi
  00036	5e		 pop	 esi
  00037	5b		 pop	 ebx
  00038	8b e5		 mov	 esp, ebp
  0003a	5d		 pop	 ebp
  0003b	c3		 ret	 0
??0CIllusionTempleEvent@@QAE@XZ ENDP			; CIllusionTempleEvent::CIllusionTempleEvent
_TEXT	ENDS
PUBLIC	??1CIllusionTempleEvent@@UAE@XZ			; CIllusionTempleEvent::~CIllusionTempleEvent
EXTRN	??3@YAXPAX@Z:PROC				; operator delete
; Function compile flags: /Odtp /ZI
;	COMDAT ??_GCIllusionTempleEvent@@UAEPAXI@Z
_TEXT	SEGMENT
_this$ = -4						; size = 4
___flags$ = 8						; size = 4
??_GCIllusionTempleEvent@@UAEPAXI@Z PROC		; CIllusionTempleEvent::`scalar deleting destructor', COMDAT
; _this$ = ecx
  00000	55		 push	 ebp
  00001	8b ec		 mov	 ebp, esp
  00003	83 ec 44	 sub	 esp, 68			; 00000044H
  00006	53		 push	 ebx
  00007	56		 push	 esi
  00008	57		 push	 edi
  00009	89 4d fc	 mov	 DWORD PTR _this$[ebp], ecx
  0000c	8b 4d fc	 mov	 ecx, DWORD PTR _this$[ebp]
  0000f	e8 00 00 00 00	 call	 ??1CIllusionTempleEvent@@UAE@XZ ; CIllusionTempleEvent::~CIllusionTempleEvent
  00014	8b 45 08	 mov	 eax, DWORD PTR ___flags$[ebp]
  00017	83 e0 01	 and	 eax, 1
  0001a	74 0c		 je	 SHORT $LN1@scalar
  0001c	8b 45 fc	 mov	 eax, DWORD PTR _this$[ebp]
  0001f	50		 push	 eax
  00020	e8 00 00 00 00	 call	 ??3@YAXPAX@Z		; operator delete
  00025	83 c4 04	 add	 esp, 4
$LN1@scalar:
  00028	8b 45 fc	 mov	 eax, DWORD PTR _this$[ebp]
  0002b	5f		 pop	 edi
  0002c	5e		 pop	 esi
  0002d	5b		 pop	 ebx
  0002e	8b e5		 mov	 esp, ebp
  00030	5d		 pop	 ebp
  00031	c2 04 00	 ret	 4
??_GCIllusionTempleEvent@@UAEPAXI@Z ENDP		; CIllusionTempleEvent::`scalar deleting destructor'
_TEXT	ENDS
EXTRN	??_M@YGXPAXIHP6EX0@Z@Z:PROC			; `eh vector destructor iterator'
; Function compile flags: /Odtp /ZI
_TEXT	SEGMENT
_this$ = -4						; size = 4
??1CIllusionTempleEvent@@UAE@XZ PROC			; CIllusionTempleEvent::~CIllusionTempleEvent
; _this$ = ecx

; 42   : {

  00040	55		 push	 ebp
  00041	8b ec		 mov	 ebp, esp
  00043	83 ec 44	 sub	 esp, 68			; 00000044H
  00046	53		 push	 ebx
  00047	56		 push	 esi
  00048	57		 push	 edi
  00049	89 4d fc	 mov	 DWORD PTR _this$[ebp], ecx
  0004c	8b 45 fc	 mov	 eax, DWORD PTR _this$[ebp]
  0004f	c7 00 00 00 00
	00		 mov	 DWORD PTR [eax], OFFSET ??_7CIllusionTempleEvent@@6B@

; 43   : 	
; 44   : }

  00055	68 00 00 00 00	 push	 OFFSET ??1CIllusionTempleProcess@@UAE@XZ ; CIllusionTempleProcess::~CIllusionTempleProcess
  0005a	6a 06		 push	 6
  0005c	68 f0 03 00 00	 push	 1008			; 000003f0H
  00061	8b 45 fc	 mov	 eax, DWORD PTR _this$[ebp]
  00064	83 c0 08	 add	 eax, 8
  00067	50		 push	 eax
  00068	e8 00 00 00 00	 call	 ??_M@YGXPAXIHP6EX0@Z@Z
  0006d	5f		 pop	 edi
  0006e	5e		 pop	 esi
  0006f	5b		 pop	 ebx
  00070	8b e5		 mov	 esp, ebp
  00072	5d		 pop	 ebp
  00073	c3		 ret	 0
??1CIllusionTempleEvent@@UAE@XZ ENDP			; CIllusionTempleEvent::~CIllusionTempleEvent
_TEXT	ENDS
PUBLIC	?Init@CIllusionTempleEvent@@QAEHXZ		; CIllusionTempleEvent::Init
EXTRN	?Init@CIllusionTempleProcess@@QAEXH@Z:PROC	; CIllusionTempleProcess::Init
; Function compile flags: /Odtp /ZI
_TEXT	SEGMENT
_i$235557 = -8						; size = 4
_this$ = -4						; size = 4
?Init@CIllusionTempleEvent@@QAEHXZ PROC			; CIllusionTempleEvent::Init
; _this$ = ecx

; 47   : {

  00080	55		 push	 ebp
  00081	8b ec		 mov	 ebp, esp
  00083	83 ec 48	 sub	 esp, 72			; 00000048H
  00086	53		 push	 ebx
  00087	56		 push	 esi
  00088	57		 push	 edi
  00089	89 4d fc	 mov	 DWORD PTR _this$[ebp], ecx

; 48   : 	for(int i = 0; i < MAX_FLOOR_DATA+1; i++)

  0008c	c7 45 f8 00 00
	00 00		 mov	 DWORD PTR _i$235557[ebp], 0
  00093	eb 09		 jmp	 SHORT $LN3@Init
$LN2@Init:
  00095	8b 45 f8	 mov	 eax, DWORD PTR _i$235557[ebp]
  00098	83 c0 01	 add	 eax, 1
  0009b	89 45 f8	 mov	 DWORD PTR _i$235557[ebp], eax
$LN3@Init:
  0009e	83 7d f8 06	 cmp	 DWORD PTR _i$235557[ebp], 6
  000a2	7d 1b		 jge	 SHORT $LN1@Init

; 49   : 	{
; 50   : 		this->m_IllusionTempleProcess[i].Init(i);

  000a4	8b 45 f8	 mov	 eax, DWORD PTR _i$235557[ebp]
  000a7	50		 push	 eax
  000a8	8b 4d f8	 mov	 ecx, DWORD PTR _i$235557[ebp]
  000ab	69 c9 f0 03 00
	00		 imul	 ecx, 1008		; 000003f0H
  000b1	8b 55 fc	 mov	 edx, DWORD PTR _this$[ebp]
  000b4	8d 4c 0a 08	 lea	 ecx, DWORD PTR [edx+ecx+8]
  000b8	e8 00 00 00 00	 call	 ?Init@CIllusionTempleProcess@@QAEXH@Z ; CIllusionTempleProcess::Init

; 51   : 	}

  000bd	eb d6		 jmp	 SHORT $LN2@Init
$LN1@Init:

; 52   : 	return TRUE;

  000bf	b8 01 00 00 00	 mov	 eax, 1

; 53   : }

  000c4	5f		 pop	 edi
  000c5	5e		 pop	 esi
  000c6	5b		 pop	 ebx
  000c7	8b e5		 mov	 esp, ebp
  000c9	5d		 pop	 ebp
  000ca	c3		 ret	 0
?Init@CIllusionTempleEvent@@QAEHXZ ENDP			; CIllusionTempleEvent::Init
_TEXT	ENDS
PUBLIC	??_C@_0CC@IKPGJAPL@IllusionTempleRewardPercentMaste@ ; `string'
PUBLIC	??_C@_0BN@GNGJMFMO@IllusionTempleMinUseSkillCnt?$AA@ ; `string'
PUBLIC	??_C@_0BM@HACPEIAK@IllusionTempleRewardPercent?$AA@ ; `string'
PUBLIC	??_C@_0BP@LBMGIHHN@SaveIllusionTempleRankingPoint?$AA@ ; `string'
PUBLIC	??_C@_0BK@OMFNOLEF@UseMaxLevelIllusionTemple?$AA@ ; `string'
PUBLIC	??_C@_0BL@LHECNIBM@CovenantOfIllusionDropRate?$AA@ ; `string'
PUBLIC	??_C@_0BC@DAFEECGD@OldScrollDropRate?$AA@	; `string'
PUBLIC	??_C@_0P@EMJDPFDH@GameServerInfo?$AA@		; `string'
PUBLIC	??_C@_0BE@IJNGJKML@IllusionTempleEvent?$AA@	; `string'
PUBLIC	??_C@_0BB@IGLHFEOF@commonserver?4cfg?$AA@	; `string'
PUBLIC	?Load@CIllusionTempleEvent@@QAEHPAD@Z		; CIllusionTempleEvent::Load
PUBLIC	??_C@_0BM@MDHKOHID@?4?2Events?2IllusionTemple?4dat?$AA@ ; `string'
PUBLIC	?ReadCommonServerInfo@CIllusionTempleEvent@@QAEHXZ ; CIllusionTempleEvent::ReadCommonServerInfo
EXTRN	__imp__GetPrivateProfileIntA@16:PROC
EXTRN	?GetNewPath@CDirPath@@QAEPADPAD@Z:PROC		; CDirPath::GetNewPath
EXTRN	?gDirPath@@3VCDirPath@@A:BYTE			; gDirPath
;	COMDAT ??_C@_0CC@IKPGJAPL@IllusionTempleRewardPercentMaste@
CONST	SEGMENT
??_C@_0CC@IKPGJAPL@IllusionTempleRewardPercentMaste@ DB 'IllusionTempleRe'
	DB	'wardPercentMaster', 00H			; `string'
CONST	ENDS
;	COMDAT ??_C@_0BN@GNGJMFMO@IllusionTempleMinUseSkillCnt?$AA@
CONST	SEGMENT
??_C@_0BN@GNGJMFMO@IllusionTempleMinUseSkillCnt?$AA@ DB 'IllusionTempleMi'
	DB	'nUseSkillCnt', 00H				; `string'
CONST	ENDS
;	COMDAT ??_C@_0BM@HACPEIAK@IllusionTempleRewardPercent?$AA@
CONST	SEGMENT
??_C@_0BM@HACPEIAK@IllusionTempleRewardPercent?$AA@ DB 'IllusionTempleRew'
	DB	'ardPercent', 00H				; `string'
CONST	ENDS
;	COMDAT ??_C@_0BP@LBMGIHHN@SaveIllusionTempleRankingPoint?$AA@
CONST	SEGMENT
??_C@_0BP@LBMGIHHN@SaveIllusionTempleRankingPoint?$AA@ DB 'SaveIllusionTe'
	DB	'mpleRankingPoint', 00H			; `string'
CONST	ENDS
;	COMDAT ??_C@_0BK@OMFNOLEF@UseMaxLevelIllusionTemple?$AA@
CONST	SEGMENT
??_C@_0BK@OMFNOLEF@UseMaxLevelIllusionTemple?$AA@ DB 'UseMaxLevelIllusion'
	DB	'Temple', 00H				; `string'
CONST	ENDS
;	COMDAT ??_C@_0BL@LHECNIBM@CovenantOfIllusionDropRate?$AA@
CONST	SEGMENT
??_C@_0BL@LHECNIBM@CovenantOfIllusionDropRate?$AA@ DB 'CovenantOfIllusion'
	DB	'DropRate', 00H				; `string'
CONST	ENDS
;	COMDAT ??_C@_0BC@DAFEECGD@OldScrollDropRate?$AA@
CONST	SEGMENT
??_C@_0BC@DAFEECGD@OldScrollDropRate?$AA@ DB 'OldScrollDropRate', 00H ; `string'
CONST	ENDS
;	COMDAT ??_C@_0P@EMJDPFDH@GameServerInfo?$AA@
CONST	SEGMENT
??_C@_0P@EMJDPFDH@GameServerInfo?$AA@ DB 'GameServerInfo', 00H ; `string'
CONST	ENDS
;	COMDAT ??_C@_0BE@IJNGJKML@IllusionTempleEvent?$AA@
CONST	SEGMENT
??_C@_0BE@IJNGJKML@IllusionTempleEvent?$AA@ DB 'IllusionTempleEvent', 00H ; `string'
CONST	ENDS
;	COMDAT ??_C@_0BB@IGLHFEOF@commonserver?4cfg?$AA@
CONST	SEGMENT
??_C@_0BB@IGLHFEOF@commonserver?4cfg?$AA@ DB 'commonserver.cfg', 00H ; `string'
CONST	ENDS
;	COMDAT ??_C@_0BM@MDHKOHID@?4?2Events?2IllusionTemple?4dat?$AA@
CONST	SEGMENT
??_C@_0BM@MDHKOHID@?4?2Events?2IllusionTemple?4dat?$AA@ DB '.\Events\Illu'
	DB	'sionTemple.dat', 00H			; `string'
; Function compile flags: /Odtp /ZI
CONST	ENDS
_TEXT	SEGMENT
_this$ = -4						; size = 4
?ReadCommonServerInfo@CIllusionTempleEvent@@QAEHXZ PROC	; CIllusionTempleEvent::ReadCommonServerInfo
; _this$ = ecx

; 56   : {

  000d0	55		 push	 ebp
  000d1	8b ec		 mov	 ebp, esp
  000d3	83 ec 44	 sub	 esp, 68			; 00000044H
  000d6	53		 push	 ebx
  000d7	56		 push	 esi
  000d8	57		 push	 edi
  000d9	89 4d fc	 mov	 DWORD PTR _this$[ebp], ecx

; 57   : 	this->Load(gDirPath.GetNewPath(".\\Events\\IllusionTemple.dat"));

  000dc	68 00 00 00 00	 push	 OFFSET ??_C@_0BM@MDHKOHID@?4?2Events?2IllusionTemple?4dat?$AA@
  000e1	b9 00 00 00 00	 mov	 ecx, OFFSET ?gDirPath@@3VCDirPath@@A ; gDirPath
  000e6	e8 00 00 00 00	 call	 ?GetNewPath@CDirPath@@QAEPADPAD@Z ; CDirPath::GetNewPath
  000eb	50		 push	 eax
  000ec	8b 4d fc	 mov	 ecx, DWORD PTR _this$[ebp]
  000ef	e8 00 00 00 00	 call	 ?Load@CIllusionTempleEvent@@QAEHPAD@Z ; CIllusionTempleEvent::Load

; 58   : 	g_iIllusionTempleEvent = GetPrivateProfileInt("GameServerInfo","IllusionTempleEvent",0, gDirPath.GetNewPath("commonserver.cfg"));

  000f4	68 00 00 00 00	 push	 OFFSET ??_C@_0BB@IGLHFEOF@commonserver?4cfg?$AA@
  000f9	b9 00 00 00 00	 mov	 ecx, OFFSET ?gDirPath@@3VCDirPath@@A ; gDirPath
  000fe	e8 00 00 00 00	 call	 ?GetNewPath@CDirPath@@QAEPADPAD@Z ; CDirPath::GetNewPath
  00103	50		 push	 eax
  00104	6a 00		 push	 0
  00106	68 00 00 00 00	 push	 OFFSET ??_C@_0BE@IJNGJKML@IllusionTempleEvent?$AA@
  0010b	68 00 00 00 00	 push	 OFFSET ??_C@_0P@EMJDPFDH@GameServerInfo?$AA@
  00110	ff 15 00 00 00
	00		 call	 DWORD PTR __imp__GetPrivateProfileIntA@16
  00116	a3 00 00 00 00	 mov	 DWORD PTR ?g_iIllusionTempleEvent@@3HA, eax ; g_iIllusionTempleEvent

; 59   : 	g_iOldScrollDropRate = GetPrivateProfileInt("GameServerInfo","OldScrollDropRate",0, gDirPath.GetNewPath("commonserver.cfg"));

  0011b	68 00 00 00 00	 push	 OFFSET ??_C@_0BB@IGLHFEOF@commonserver?4cfg?$AA@
  00120	b9 00 00 00 00	 mov	 ecx, OFFSET ?gDirPath@@3VCDirPath@@A ; gDirPath
  00125	e8 00 00 00 00	 call	 ?GetNewPath@CDirPath@@QAEPADPAD@Z ; CDirPath::GetNewPath
  0012a	50		 push	 eax
  0012b	6a 00		 push	 0
  0012d	68 00 00 00 00	 push	 OFFSET ??_C@_0BC@DAFEECGD@OldScrollDropRate?$AA@
  00132	68 00 00 00 00	 push	 OFFSET ??_C@_0P@EMJDPFDH@GameServerInfo?$AA@
  00137	ff 15 00 00 00
	00		 call	 DWORD PTR __imp__GetPrivateProfileIntA@16
  0013d	a3 00 00 00 00	 mov	 DWORD PTR ?g_iOldScrollDropRate@@3HA, eax ; g_iOldScrollDropRate

; 60   : 	g_iCovenantOfIllusionDropRate = GetPrivateProfileInt("GameServerInfo","CovenantOfIllusionDropRate",0, gDirPath.GetNewPath("commonserver.cfg"));

  00142	68 00 00 00 00	 push	 OFFSET ??_C@_0BB@IGLHFEOF@commonserver?4cfg?$AA@
  00147	b9 00 00 00 00	 mov	 ecx, OFFSET ?gDirPath@@3VCDirPath@@A ; gDirPath
  0014c	e8 00 00 00 00	 call	 ?GetNewPath@CDirPath@@QAEPADPAD@Z ; CDirPath::GetNewPath
  00151	50		 push	 eax
  00152	6a 00		 push	 0
  00154	68 00 00 00 00	 push	 OFFSET ??_C@_0BL@LHECNIBM@CovenantOfIllusionDropRate?$AA@
  00159	68 00 00 00 00	 push	 OFFSET ??_C@_0P@EMJDPFDH@GameServerInfo?$AA@
  0015e	ff 15 00 00 00
	00		 call	 DWORD PTR __imp__GetPrivateProfileIntA@16
  00164	a3 00 00 00 00	 mov	 DWORD PTR ?g_iCovenantOfIllusionDropRate@@3HA, eax ; g_iCovenantOfIllusionDropRate

; 61   : 	g_iUseMaxLevelIllusionTemple = GetPrivateProfileInt("GameServerInfo","UseMaxLevelIllusionTemple",0, gDirPath.GetNewPath("commonserver.cfg"));

  00169	68 00 00 00 00	 push	 OFFSET ??_C@_0BB@IGLHFEOF@commonserver?4cfg?$AA@
  0016e	b9 00 00 00 00	 mov	 ecx, OFFSET ?gDirPath@@3VCDirPath@@A ; gDirPath
  00173	e8 00 00 00 00	 call	 ?GetNewPath@CDirPath@@QAEPADPAD@Z ; CDirPath::GetNewPath
  00178	50		 push	 eax
  00179	6a 00		 push	 0
  0017b	68 00 00 00 00	 push	 OFFSET ??_C@_0BK@OMFNOLEF@UseMaxLevelIllusionTemple?$AA@
  00180	68 00 00 00 00	 push	 OFFSET ??_C@_0P@EMJDPFDH@GameServerInfo?$AA@
  00185	ff 15 00 00 00
	00		 call	 DWORD PTR __imp__GetPrivateProfileIntA@16
  0018b	a3 00 00 00 00	 mov	 DWORD PTR ?g_iUseMaxLevelIllusionTemple@@3HA, eax ; g_iUseMaxLevelIllusionTemple

; 62   : 	g_iSaveIllusionTempleRankingPoint = GetPrivateProfileInt("GameServerInfo","SaveIllusionTempleRankingPoint",0, gDirPath.GetNewPath("commonserver.cfg"));

  00190	68 00 00 00 00	 push	 OFFSET ??_C@_0BB@IGLHFEOF@commonserver?4cfg?$AA@
  00195	b9 00 00 00 00	 mov	 ecx, OFFSET ?gDirPath@@3VCDirPath@@A ; gDirPath
  0019a	e8 00 00 00 00	 call	 ?GetNewPath@CDirPath@@QAEPADPAD@Z ; CDirPath::GetNewPath
  0019f	50		 push	 eax
  001a0	6a 00		 push	 0
  001a2	68 00 00 00 00	 push	 OFFSET ??_C@_0BP@LBMGIHHN@SaveIllusionTempleRankingPoint?$AA@
  001a7	68 00 00 00 00	 push	 OFFSET ??_C@_0P@EMJDPFDH@GameServerInfo?$AA@
  001ac	ff 15 00 00 00
	00		 call	 DWORD PTR __imp__GetPrivateProfileIntA@16
  001b2	a3 00 00 00 00	 mov	 DWORD PTR ?g_iSaveIllusionTempleRankingPoint@@3HA, eax ; g_iSaveIllusionTempleRankingPoint

; 63   : 	g_iIllusionTempleRewardPercent = GetPrivateProfileInt("GameServerInfo","IllusionTempleRewardPercent",0, gDirPath.GetNewPath("commonserver.cfg"));

  001b7	68 00 00 00 00	 push	 OFFSET ??_C@_0BB@IGLHFEOF@commonserver?4cfg?$AA@
  001bc	b9 00 00 00 00	 mov	 ecx, OFFSET ?gDirPath@@3VCDirPath@@A ; gDirPath
  001c1	e8 00 00 00 00	 call	 ?GetNewPath@CDirPath@@QAEPADPAD@Z ; CDirPath::GetNewPath
  001c6	50		 push	 eax
  001c7	6a 00		 push	 0
  001c9	68 00 00 00 00	 push	 OFFSET ??_C@_0BM@HACPEIAK@IllusionTempleRewardPercent?$AA@
  001ce	68 00 00 00 00	 push	 OFFSET ??_C@_0P@EMJDPFDH@GameServerInfo?$AA@
  001d3	ff 15 00 00 00
	00		 call	 DWORD PTR __imp__GetPrivateProfileIntA@16
  001d9	a3 00 00 00 00	 mov	 DWORD PTR ?g_iIllusionTempleRewardPercent@@3HA, eax ; g_iIllusionTempleRewardPercent

; 64   : 	g_iIllusionTempleMinUseSkillCnt = GetPrivateProfileInt("GameServerInfo","IllusionTempleMinUseSkillCnt",0, gDirPath.GetNewPath("commonserver.cfg"));

  001de	68 00 00 00 00	 push	 OFFSET ??_C@_0BB@IGLHFEOF@commonserver?4cfg?$AA@
  001e3	b9 00 00 00 00	 mov	 ecx, OFFSET ?gDirPath@@3VCDirPath@@A ; gDirPath
  001e8	e8 00 00 00 00	 call	 ?GetNewPath@CDirPath@@QAEPADPAD@Z ; CDirPath::GetNewPath
  001ed	50		 push	 eax
  001ee	6a 00		 push	 0
  001f0	68 00 00 00 00	 push	 OFFSET ??_C@_0BN@GNGJMFMO@IllusionTempleMinUseSkillCnt?$AA@
  001f5	68 00 00 00 00	 push	 OFFSET ??_C@_0P@EMJDPFDH@GameServerInfo?$AA@
  001fa	ff 15 00 00 00
	00		 call	 DWORD PTR __imp__GetPrivateProfileIntA@16
  00200	a3 00 00 00 00	 mov	 DWORD PTR ?g_iIllusionTempleMinUseSkillCnt@@3HA, eax ; g_iIllusionTempleMinUseSkillCnt

; 65   : 	g_iIllusionTempleRewardPercentMaster = GetPrivateProfileInt("GameServerInfo","IllusionTempleRewardPercentMaster",0, gDirPath.GetNewPath("commonserver.cfg")); //season4 add-on

  00205	68 00 00 00 00	 push	 OFFSET ??_C@_0BB@IGLHFEOF@commonserver?4cfg?$AA@
  0020a	b9 00 00 00 00	 mov	 ecx, OFFSET ?gDirPath@@3VCDirPath@@A ; gDirPath
  0020f	e8 00 00 00 00	 call	 ?GetNewPath@CDirPath@@QAEPADPAD@Z ; CDirPath::GetNewPath
  00214	50		 push	 eax
  00215	6a 00		 push	 0
  00217	68 00 00 00 00	 push	 OFFSET ??_C@_0CC@IKPGJAPL@IllusionTempleRewardPercentMaste@
  0021c	68 00 00 00 00	 push	 OFFSET ??_C@_0P@EMJDPFDH@GameServerInfo?$AA@
  00221	ff 15 00 00 00
	00		 call	 DWORD PTR __imp__GetPrivateProfileIntA@16
  00227	a3 00 00 00 00	 mov	 DWORD PTR ?g_iIllusionTempleRewardPercentMaster@@3HA, eax ; g_iIllusionTempleRewardPercentMaster

; 66   : 	return TRUE;

  0022c	b8 01 00 00 00	 mov	 eax, 1

; 67   : }

  00231	5f		 pop	 edi
  00232	5e		 pop	 esi
  00233	5b		 pop	 ebx
  00234	8b e5		 mov	 esp, ebp
  00236	5d		 pop	 ebp
  00237	c3		 ret	 0
?ReadCommonServerInfo@CIllusionTempleEvent@@QAEHXZ ENDP	; CIllusionTempleEvent::ReadCommonServerInfo
_TEXT	ENDS
PUBLIC	??_C@_0O@CEHBAEMJ@?$CFs?5file?5load?$CB?$AA@	; `string'
PUBLIC	?push_back@?$list@UILLUSIONTEMPLE_START_TIME@@V?$allocator@UILLUSIONTEMPLE_START_TIME@@@std@@@std@@QAEXABUILLUSIONTEMPLE_START_TIME@@@Z ; std::list<ILLUSIONTEMPLE_START_TIME,std::allocator<ILLUSIONTEMPLE_START_TIME> >::push_back
PUBLIC	??_C@_03JBJLGPFL@end?$AA@			; `string'
PUBLIC	??_C@_0CL@GCHBFEEM@?$FLIllusion?5Temple?$FN?5Info?5file?5Load@ ; `string'
PUBLIC	??_C@_01KDCPPGHE@r?$AA@				; `string'
EXTRN	?LogAdd@@3P6AXPADZZA:DWORD			; LogAdd
EXTRN	_fclose:PROC
EXTRN	?m_listIllusionTempleOpenTime@@3V?$list@UILLUSIONTEMPLE_START_TIME@@V?$allocator@UILLUSIONTEMPLE_START_TIME@@@std@@@std@@A:BYTE ; m_listIllusionTempleOpenTime
EXTRN	_strcmp:PROC
EXTRN	?MsgBox@@YAXPADZZ:PROC				; MsgBox
EXTRN	_fopen:PROC
EXTRN	__ftol2_sse:PROC
_BSS	SEGMENT
_TokenString DB	064H DUP (?)
_TokenNumber DD	01H DUP (?)
_SMDFile DD	01H DUP (?)
_BSS	ENDS
;	COMDAT ??_C@_0O@CEHBAEMJ@?$CFs?5file?5load?$CB?$AA@
CONST	SEGMENT
??_C@_0O@CEHBAEMJ@?$CFs?5file?5load?$CB?$AA@ DB '%s file load!', 00H ; `string'
CONST	ENDS
;	COMDAT ??_C@_03JBJLGPFL@end?$AA@
CONST	SEGMENT
??_C@_03JBJLGPFL@end?$AA@ DB 'end', 00H			; `string'
CONST	ENDS
;	COMDAT ??_C@_0CL@GCHBFEEM@?$FLIllusion?5Temple?$FN?5Info?5file?5Load@
CONST	SEGMENT
??_C@_0CL@GCHBFEEM@?$FLIllusion?5Temple?$FN?5Info?5file?5Load@ DB '[Illus'
	DB	'ion Temple] Info file Load Fail [%s]', 00H	; `string'
CONST	ENDS
;	COMDAT ??_C@_01KDCPPGHE@r?$AA@
CONST	SEGMENT
??_C@_01KDCPPGHE@r?$AA@ DB 'r', 00H			; `string'
; Function compile flags: /Odtp /ZI
CONST	ENDS
_TEXT	SEGMENT
_Schedule$235602 = -20					; size = 8
_type$ = -12						; size = 4
_Token$ = -8						; size = 4
_this$ = -4						; size = 4
_lpszFileName$ = 8					; size = 4
?Load@CIllusionTempleEvent@@QAEHPAD@Z PROC		; CIllusionTempleEvent::Load
; _this$ = ecx

; 70   : {

  00240	55		 push	 ebp
  00241	8b ec		 mov	 ebp, esp
  00243	83 ec 54	 sub	 esp, 84			; 00000054H
  00246	53		 push	 ebx
  00247	56		 push	 esi
  00248	57		 push	 edi
  00249	89 4d fc	 mov	 DWORD PTR _this$[ebp], ecx

; 71   : 	SMDFile = fopen(lpszFileName, "r");

  0024c	68 00 00 00 00	 push	 OFFSET ??_C@_01KDCPPGHE@r?$AA@
  00251	8b 45 08	 mov	 eax, DWORD PTR _lpszFileName$[ebp]
  00254	50		 push	 eax
  00255	e8 00 00 00 00	 call	 _fopen
  0025a	83 c4 08	 add	 esp, 8
  0025d	a3 00 00 00 00	 mov	 DWORD PTR _SMDFile, eax

; 72   : 
; 73   : 	if ( SMDFile == NULL )

  00262	83 3d 00 00 00
	00 00		 cmp	 DWORD PTR _SMDFile, 0
  00269	75 18		 jne	 SHORT $LN11@Load

; 74   : 	{
; 75   : 		MsgBox("[Illusion Temple] Info file Load Fail [%s]", lpszFileName);

  0026b	8b 45 08	 mov	 eax, DWORD PTR _lpszFileName$[ebp]
  0026e	50		 push	 eax
  0026f	68 00 00 00 00	 push	 OFFSET ??_C@_0CL@GCHBFEEM@?$FLIllusion?5Temple?$FN?5Info?5file?5Load@
  00274	e8 00 00 00 00	 call	 ?MsgBox@@YAXPADZZ	; MsgBox
  00279	83 c4 08	 add	 esp, 8

; 76   : 		return false;

  0027c	33 c0		 xor	 eax, eax
  0027e	e9 45 01 00 00	 jmp	 $LN12@Load
$LN11@Load:

; 77   : 	}
; 78   : 
; 79   : 	int Token;
; 80   : 	int type;
; 81   : 
; 82   : 	while ( true )

  00283	b8 01 00 00 00	 mov	 eax, 1
  00288	85 c0		 test	 eax, eax
  0028a	0f 84 13 01 00
	00		 je	 $LN9@Load

; 83   : 	{
; 84   : 		Token = GetToken();

  00290	e8 00 00 00 00	 call	 ?GetToken@@YA?AW4SMDToken@@XZ ; GetToken
  00295	89 45 f8	 mov	 DWORD PTR _Token$[ebp], eax

; 85   : 
; 86   : 		if ( Token == 2 )

  00298	83 7d f8 02	 cmp	 DWORD PTR _Token$[ebp], 2
  0029c	75 05		 jne	 SHORT $LN8@Load

; 87   : 		{
; 88   : 			break;

  0029e	e9 00 01 00 00	 jmp	 $LN9@Load
$LN8@Load:

; 89   : 		}
; 90   : 
; 91   : 		type = (int)TokenNumber;

  002a3	d9 05 00 00 00
	00		 fld	 DWORD PTR _TokenNumber
  002a9	e8 00 00 00 00	 call	 __ftol2_sse
  002ae	89 45 f4	 mov	 DWORD PTR _type$[ebp], eax
$LN7@Load:

; 92   : 
; 93   : 		while ( true )

  002b1	b8 01 00 00 00	 mov	 eax, 1
  002b6	85 c0		 test	 eax, eax
  002b8	0f 84 e0 00 00
	00		 je	 $LN6@Load

; 94   : 		{
; 95   : 			if ( type == 0 )

  002be	83 7d f4 00	 cmp	 DWORD PTR _type$[ebp], 0
  002c2	75 7d		 jne	 SHORT $LN5@Load

; 96   : 			{
; 97   : 				Token = GetToken();

  002c4	e8 00 00 00 00	 call	 ?GetToken@@YA?AW4SMDToken@@XZ ; GetToken
  002c9	89 45 f8	 mov	 DWORD PTR _Token$[ebp], eax

; 98   : 
; 99   : 				if ( strcmp("end", TokenString) == 0 )

  002cc	68 00 00 00 00	 push	 OFFSET _TokenString
  002d1	68 00 00 00 00	 push	 OFFSET ??_C@_03JBJLGPFL@end?$AA@
  002d6	e8 00 00 00 00	 call	 _strcmp
  002db	83 c4 08	 add	 esp, 8
  002de	85 c0		 test	 eax, eax
  002e0	75 05		 jne	 SHORT $LN4@Load

; 100  : 				{
; 101  : 					break;

  002e2	e9 b7 00 00 00	 jmp	 $LN6@Load
$LN4@Load:

; 102  : 				}
; 103  : 
; 104  : 				m_i_IT_OpenTime = (int)TokenNumber;

  002e7	d9 05 00 00 00
	00		 fld	 DWORD PTR _TokenNumber
  002ed	e8 00 00 00 00	 call	 __ftol2_sse
  002f2	a3 00 00 00 00	 mov	 DWORD PTR ?m_i_IT_OpenTime@@3HA, eax ; m_i_IT_OpenTime

; 105  : 
; 106  : 				Token = GetToken();

  002f7	e8 00 00 00 00	 call	 ?GetToken@@YA?AW4SMDToken@@XZ ; GetToken
  002fc	89 45 f8	 mov	 DWORD PTR _Token$[ebp], eax

; 107  : 				m_i_IT_WaitTime = (int)TokenNumber;

  002ff	d9 05 00 00 00
	00		 fld	 DWORD PTR _TokenNumber
  00305	e8 00 00 00 00	 call	 __ftol2_sse
  0030a	a3 00 00 00 00	 mov	 DWORD PTR ?m_i_IT_WaitTime@@3HA, eax ; m_i_IT_WaitTime

; 108  : 
; 109  : 				Token = GetToken();

  0030f	e8 00 00 00 00	 call	 ?GetToken@@YA?AW4SMDToken@@XZ ; GetToken
  00314	89 45 f8	 mov	 DWORD PTR _Token$[ebp], eax

; 110  : 				m_i_IT_PlayTime = (int)TokenNumber;

  00317	d9 05 00 00 00
	00		 fld	 DWORD PTR _TokenNumber
  0031d	e8 00 00 00 00	 call	 __ftol2_sse
  00322	a3 00 00 00 00	 mov	 DWORD PTR ?m_i_IT_PlayTime@@3HA, eax ; m_i_IT_PlayTime

; 111  : 
; 112  : 				Token = GetToken();

  00327	e8 00 00 00 00	 call	 ?GetToken@@YA?AW4SMDToken@@XZ ; GetToken
  0032c	89 45 f8	 mov	 DWORD PTR _Token$[ebp], eax

; 113  : 				m_i_IT_RestTime = (int)TokenNumber;

  0032f	d9 05 00 00 00
	00		 fld	 DWORD PTR _TokenNumber
  00335	e8 00 00 00 00	 call	 __ftol2_sse
  0033a	a3 00 00 00 00	 mov	 DWORD PTR ?m_i_IT_RestTime@@3HA, eax ; m_i_IT_RestTime
  0033f	eb 58		 jmp	 SHORT $LN2@Load
$LN5@Load:

; 114  : 			}
; 115  : 			else if ( type == 1 )

  00341	83 7d f4 01	 cmp	 DWORD PTR _type$[ebp], 1
  00345	75 52		 jne	 SHORT $LN2@Load

; 116  : 			{
; 117  : 				Token = GetToken();

  00347	e8 00 00 00 00	 call	 ?GetToken@@YA?AW4SMDToken@@XZ ; GetToken
  0034c	89 45 f8	 mov	 DWORD PTR _Token$[ebp], eax

; 118  : 
; 119  : 				if ( strcmp("end", TokenString) == 0 )

  0034f	68 00 00 00 00	 push	 OFFSET _TokenString
  00354	68 00 00 00 00	 push	 OFFSET ??_C@_03JBJLGPFL@end?$AA@
  00359	e8 00 00 00 00	 call	 _strcmp
  0035e	83 c4 08	 add	 esp, 8
  00361	85 c0		 test	 eax, eax
  00363	75 02		 jne	 SHORT $LN1@Load

; 120  : 				{
; 121  : 					break;

  00365	eb 37		 jmp	 SHORT $LN6@Load
$LN1@Load:

; 122  : 				}
; 123  : 
; 124  : 				ILLUSIONTEMPLE_START_TIME Schedule;
; 125  : 
; 126  : 				Schedule.m_iHour = (int)TokenNumber;

  00367	d9 05 00 00 00
	00		 fld	 DWORD PTR _TokenNumber
  0036d	e8 00 00 00 00	 call	 __ftol2_sse
  00372	89 45 ec	 mov	 DWORD PTR _Schedule$235602[ebp], eax

; 127  : 
; 128  : 				Token = GetToken();

  00375	e8 00 00 00 00	 call	 ?GetToken@@YA?AW4SMDToken@@XZ ; GetToken
  0037a	89 45 f8	 mov	 DWORD PTR _Token$[ebp], eax

; 129  : 				Schedule.m_iMinute = (int)TokenNumber;

  0037d	d9 05 00 00 00
	00		 fld	 DWORD PTR _TokenNumber
  00383	e8 00 00 00 00	 call	 __ftol2_sse
  00388	89 45 f0	 mov	 DWORD PTR _Schedule$235602[ebp+4], eax

; 130  : 
; 131  : 				m_listIllusionTempleOpenTime.push_back(Schedule);

  0038b	8d 45 ec	 lea	 eax, DWORD PTR _Schedule$235602[ebp]
  0038e	50		 push	 eax
  0038f	b9 00 00 00 00	 mov	 ecx, OFFSET ?m_listIllusionTempleOpenTime@@3V?$list@UILLUSIONTEMPLE_START_TIME@@V?$allocator@UILLUSIONTEMPLE_START_TIME@@@std@@@std@@A ; m_listIllusionTempleOpenTime
  00394	e8 00 00 00 00	 call	 ?push_back@?$list@UILLUSIONTEMPLE_START_TIME@@V?$allocator@UILLUSIONTEMPLE_START_TIME@@@std@@@std@@QAEXABUILLUSIONTEMPLE_START_TIME@@@Z ; std::list<ILLUSIONTEMPLE_START_TIME,std::allocator<ILLUSIONTEMPLE_START_TIME> >::push_back
$LN2@Load:

; 132  : 			}
; 133  : 		}

  00399	e9 13 ff ff ff	 jmp	 $LN7@Load
$LN6@Load:

; 134  : 	}

  0039e	e9 e0 fe ff ff	 jmp	 $LN11@Load
$LN9@Load:

; 135  : 
; 136  : 	fclose(SMDFile);

  003a3	a1 00 00 00 00	 mov	 eax, DWORD PTR _SMDFile
  003a8	50		 push	 eax
  003a9	e8 00 00 00 00	 call	 _fclose
  003ae	83 c4 04	 add	 esp, 4

; 137  : 	LogAdd("%s file load!", lpszFileName);

  003b1	8b 45 08	 mov	 eax, DWORD PTR _lpszFileName$[ebp]
  003b4	50		 push	 eax
  003b5	68 00 00 00 00	 push	 OFFSET ??_C@_0O@CEHBAEMJ@?$CFs?5file?5load?$CB?$AA@
  003ba	ff 15 00 00 00
	00		 call	 DWORD PTR ?LogAdd@@3P6AXPADZZA ; LogAdd
  003c0	83 c4 08	 add	 esp, 8

; 138  : 
; 139  : 	return true;

  003c3	b8 01 00 00 00	 mov	 eax, 1
$LN12@Load:

; 140  : }

  003c8	5f		 pop	 edi
  003c9	5e		 pop	 esi
  003ca	5b		 pop	 ebx
  003cb	8b e5		 mov	 esp, ebp
  003cd	5d		 pop	 ebp
  003ce	c2 04 00	 ret	 4
?Load@CIllusionTempleEvent@@QAEHPAD@Z ENDP		; CIllusionTempleEvent::Load
_TEXT	ENDS
PUBLIC	__$ArrayPad$
EXTRN	_isalnum:PROC
EXTRN	_isalpha:PROC
EXTRN	_atof:PROC
EXTRN	_isdigit:PROC
EXTRN	_getc:PROC
EXTRN	_ungetc:PROC
EXTRN	_isspace:PROC
EXTRN	_fgetc:PROC
EXTRN	___security_cookie:DWORD
EXTRN	__fltused:DWORD
EXTRN	@__security_check_cookie@4:PROC
_BSS	SEGMENT
_CurrentToken DD 01H DUP (?)
; Function compile flags: /Odtp /ZI
; File d:\projects\exteam6.3\source\gameserver\include\readscript.h
_BSS	ENDS
_TEXT	SEGMENT
tv90 = -180						; size = 4
_TempString$ = -112					; size = 100
_p$ = -12						; size = 4
_ch$ = -5						; size = 1
__$ArrayPad$ = -4					; size = 4
?GetToken@@YA?AW4SMDToken@@XZ PROC			; GetToken

; 24   : {

  003e0	55		 push	 ebp
  003e1	8b ec		 mov	 ebp, esp
  003e3	81 ec b4 00 00
	00		 sub	 esp, 180		; 000000b4H
  003e9	a1 00 00 00 00	 mov	 eax, DWORD PTR ___security_cookie
  003ee	33 c5		 xor	 eax, ebp
  003f0	89 45 fc	 mov	 DWORD PTR __$ArrayPad$[ebp], eax
  003f3	53		 push	 ebx
  003f4	56		 push	 esi
  003f5	57		 push	 edi

; 25   : 	char ch;
; 26   : 	char* p;
; 27   : 	char TempString[100];
; 28   : 
; 29   : 	TokenString[0]=0;

  003f6	c6 05 00 00 00
	00 00		 mov	 BYTE PTR _TokenString, 0
$LN31@GetToken:

; 30   : 
; 31   : 	do
; 32   : 	{
; 33   : 		if ((ch=fgetc(SMDFile)) == -1)

  003fd	a1 00 00 00 00	 mov	 eax, DWORD PTR _SMDFile
  00402	50		 push	 eax
  00403	e8 00 00 00 00	 call	 _fgetc
  00408	83 c4 04	 add	 esp, 4
  0040b	88 45 fb	 mov	 BYTE PTR _ch$[ebp], al
  0040e	0f be 4d fb	 movsx	 ecx, BYTE PTR _ch$[ebp]
  00412	83 f9 ff	 cmp	 ecx, -1
  00415	75 0c		 jne	 SHORT $LN28@GetToken

; 34   : 		{
; 35   : 			return END;	// End of FILE (EOF)

  00417	b8 02 00 00 00	 mov	 eax, 2
  0041c	e9 f7 02 00 00	 jmp	 $LN32@GetToken

; 36   : 		}
; 37   : 		else

  00421	eb 5b		 jmp	 SHORT $LN22@GetToken
$LN28@GetToken:

; 38   : 		{	
; 39   : 			if (ch=='/')		// this is /

  00423	0f be 45 fb	 movsx	 eax, BYTE PTR _ch$[ebp]
  00427	83 f8 2f	 cmp	 eax, 47			; 0000002fH
  0042a	75 52		 jne	 SHORT $LN22@GetToken

; 40   : 			{
; 41   : 				if((ch=fgetc(SMDFile)) == '/')

  0042c	a1 00 00 00 00	 mov	 eax, DWORD PTR _SMDFile
  00431	50		 push	 eax
  00432	e8 00 00 00 00	 call	 _fgetc
  00437	83 c4 04	 add	 esp, 4
  0043a	88 45 fb	 mov	 BYTE PTR _ch$[ebp], al
  0043d	0f be 4d fb	 movsx	 ecx, BYTE PTR _ch$[ebp]
  00441	83 f9 2f	 cmp	 ecx, 47			; 0000002fH
  00444	75 38		 jne	 SHORT $LN22@GetToken
$LN24@GetToken:

; 42   : 				{
; 43   : 					while ((ch != '\n') && (ch != -1))	// End of Line (EOL)

  00446	0f be 45 fb	 movsx	 eax, BYTE PTR _ch$[ebp]
  0044a	83 f8 0a	 cmp	 eax, 10			; 0000000aH
  0044d	74 1c		 je	 SHORT $LN23@GetToken
  0044f	0f be 45 fb	 movsx	 eax, BYTE PTR _ch$[ebp]
  00453	83 f8 ff	 cmp	 eax, -1
  00456	74 13		 je	 SHORT $LN23@GetToken

; 44   : 					{
; 45   : 						ch=fgetc(SMDFile);

  00458	a1 00 00 00 00	 mov	 eax, DWORD PTR _SMDFile
  0045d	50		 push	 eax
  0045e	e8 00 00 00 00	 call	 _fgetc
  00463	83 c4 04	 add	 esp, 4
  00466	88 45 fb	 mov	 BYTE PTR _ch$[ebp], al

; 46   : 					}

  00469	eb db		 jmp	 SHORT $LN24@GetToken
$LN23@GetToken:

; 47   : 	
; 48   : 					if (ch == -1)

  0046b	0f be 45 fb	 movsx	 eax, BYTE PTR _ch$[ebp]
  0046f	83 f8 ff	 cmp	 eax, -1
  00472	75 0a		 jne	 SHORT $LN22@GetToken

; 49   : 					{
; 50   : 						return END;	// End of FILE

  00474	b8 02 00 00 00	 mov	 eax, 2
  00479	e9 9a 02 00 00	 jmp	 $LN32@GetToken
$LN22@GetToken:

; 51   : 					}
; 52   : 				}
; 53   : 			}
; 54   : 		}
; 55   : 	}
; 56   : 	while (isspace(ch) != 0);

  0047e	0f be 45 fb	 movsx	 eax, BYTE PTR _ch$[ebp]
  00482	50		 push	 eax
  00483	e8 00 00 00 00	 call	 _isspace
  00488	83 c4 04	 add	 esp, 4
  0048b	85 c0		 test	 eax, eax
  0048d	0f 85 6a ff ff
	ff		 jne	 $LN31@GetToken

; 57   : 
; 58   : 	
; 59   : 	switch(ch)

  00493	0f be 45 fb	 movsx	 eax, BYTE PTR _ch$[ebp]
  00497	89 85 4c ff ff
	ff		 mov	 DWORD PTR tv90[ebp], eax
  0049d	8b 8d 4c ff ff
	ff		 mov	 ecx, DWORD PTR tv90[ebp]
  004a3	83 e9 22	 sub	 ecx, 34			; 00000022H
  004a6	89 8d 4c ff ff
	ff		 mov	 DWORD PTR tv90[ebp], ecx
  004ac	83 bd 4c ff ff
	ff 5b		 cmp	 DWORD PTR tv90[ebp], 91	; 0000005bH
  004b3	0f 87 a3 01 00
	00		 ja	 $LN6@GetToken
  004b9	8b 95 4c ff ff
	ff		 mov	 edx, DWORD PTR tv90[ebp]
  004bf	0f b6 82 00 00
	00 00		 movzx	 eax, BYTE PTR $LN34@GetToken[edx]
  004c6	ff 24 85 00 00
	00 00		 jmp	 DWORD PTR $LN35@GetToken[eax*4]
$LN19@GetToken:

; 60   : 	{
; 61   : 
; 62   : 	case 0x23:	// #
; 63   : 		return CurrentToken=COMMAND;

  004cd	c7 05 00 00 00
	00 23 00 00 00	 mov	 DWORD PTR _CurrentToken, 35 ; 00000023H
  004d7	a1 00 00 00 00	 mov	 eax, DWORD PTR _CurrentToken
  004dc	e9 37 02 00 00	 jmp	 $LN32@GetToken

; 64   : 		break;

  004e1	e9 30 02 00 00	 jmp	 $LN20@GetToken
$LN18@GetToken:

; 65   : 	
; 66   : 	case 0x3B:	// ;
; 67   : 		return CurrentToken=SEMICOLON;

  004e6	c7 05 00 00 00
	00 3b 00 00 00	 mov	 DWORD PTR _CurrentToken, 59 ; 0000003bH
  004f0	a1 00 00 00 00	 mov	 eax, DWORD PTR _CurrentToken
  004f5	e9 1e 02 00 00	 jmp	 $LN32@GetToken

; 68   : 		break;

  004fa	e9 17 02 00 00	 jmp	 $LN20@GetToken
$LN17@GetToken:

; 69   : 	
; 70   : 	case 0x2C:	// ,
; 71   : 
; 72   : 		return CurrentToken=COMMA;

  004ff	c7 05 00 00 00
	00 2c 00 00 00	 mov	 DWORD PTR _CurrentToken, 44 ; 0000002cH
  00509	a1 00 00 00 00	 mov	 eax, DWORD PTR _CurrentToken
  0050e	e9 05 02 00 00	 jmp	 $LN32@GetToken

; 73   : 		break;

  00513	e9 fe 01 00 00	 jmp	 $LN20@GetToken
$LN16@GetToken:

; 74   : 	
; 75   : 	case 0x7B:	// {
; 76   : 		return CurrentToken = LP;

  00518	c7 05 00 00 00
	00 7b 00 00 00	 mov	 DWORD PTR _CurrentToken, 123 ; 0000007bH
  00522	a1 00 00 00 00	 mov	 eax, DWORD PTR _CurrentToken
  00527	e9 ec 01 00 00	 jmp	 $LN32@GetToken

; 77   : 		break;

  0052c	e9 e5 01 00 00	 jmp	 $LN20@GetToken
$LN15@GetToken:

; 78   : 
; 79   : 	case 0x7D:	// }
; 80   : 		return CurrentToken = RP;

  00531	c7 05 00 00 00
	00 7d 00 00 00	 mov	 DWORD PTR _CurrentToken, 125 ; 0000007dH
  0053b	a1 00 00 00 00	 mov	 eax, DWORD PTR _CurrentToken
  00540	e9 d3 01 00 00	 jmp	 $LN32@GetToken

; 81   : 		break;

  00545	e9 cc 01 00 00	 jmp	 $LN20@GetToken
$LN14@GetToken:

; 82   : 	// Nice Index Table :)	by Deathway
; 83   : 	// Numbers Case
; 84   : 	case 0x2D:	//-
; 85   : 	case 0x2E:	//.
; 86   : 	case '0':	//0
; 87   : 	case '1':	//1
; 88   : 	case '2':	//2
; 89   : 	case '3':	//3
; 90   : 	case '4':	//4		
; 91   : 	case '5':	//5
; 92   : 	case '6':	//6
; 93   : 	case '7':	//7
; 94   : 	case '8':	//8
; 95   : 	case '9':	//9
; 96   : 		ungetc(ch, SMDFile);

  0054a	a1 00 00 00 00	 mov	 eax, DWORD PTR _SMDFile
  0054f	50		 push	 eax
  00550	0f be 4d fb	 movsx	 ecx, BYTE PTR _ch$[ebp]
  00554	51		 push	 ecx
  00555	e8 00 00 00 00	 call	 _ungetc
  0055a	83 c4 08	 add	 esp, 8

; 97   : 		p = TempString;

  0055d	8d 45 90	 lea	 eax, DWORD PTR _TempString$[ebp]
  00560	89 45 f4	 mov	 DWORD PTR _p$[ebp], eax
$LN13@GetToken:

; 98   : 		
; 99   : 		while (((ch=getc(SMDFile)) != -1) && ((ch == 0x2E) || (isdigit(ch) != 0) || (ch == 0x2D)))  // 2e '.'  2D '-'

  00563	a1 00 00 00 00	 mov	 eax, DWORD PTR _SMDFile
  00568	50		 push	 eax
  00569	e8 00 00 00 00	 call	 _getc
  0056e	83 c4 04	 add	 esp, 4
  00571	88 45 fb	 mov	 BYTE PTR _ch$[ebp], al
  00574	0f be 4d fb	 movsx	 ecx, BYTE PTR _ch$[ebp]
  00578	83 f9 ff	 cmp	 ecx, -1
  0057b	74 36		 je	 SHORT $LN12@GetToken
  0057d	0f be 45 fb	 movsx	 eax, BYTE PTR _ch$[ebp]
  00581	83 f8 2e	 cmp	 eax, 46			; 0000002eH
  00584	74 1a		 je	 SHORT $LN11@GetToken
  00586	0f be 45 fb	 movsx	 eax, BYTE PTR _ch$[ebp]
  0058a	50		 push	 eax
  0058b	e8 00 00 00 00	 call	 _isdigit
  00590	83 c4 04	 add	 esp, 4
  00593	85 c0		 test	 eax, eax
  00595	75 09		 jne	 SHORT $LN11@GetToken
  00597	0f be 45 fb	 movsx	 eax, BYTE PTR _ch$[ebp]
  0059b	83 f8 2d	 cmp	 eax, 45			; 0000002dH
  0059e	75 13		 jne	 SHORT $LN12@GetToken
$LN11@GetToken:

; 100  : 		{
; 101  : 			*p = ch;	// Construct a String

  005a0	8b 45 f4	 mov	 eax, DWORD PTR _p$[ebp]
  005a3	8a 4d fb	 mov	 cl, BYTE PTR _ch$[ebp]
  005a6	88 08		 mov	 BYTE PTR [eax], cl

; 102  : 			p++;

  005a8	8b 45 f4	 mov	 eax, DWORD PTR _p$[ebp]
  005ab	83 c0 01	 add	 eax, 1
  005ae	89 45 f4	 mov	 DWORD PTR _p$[ebp], eax

; 103  : 		}		

  005b1	eb b0		 jmp	 SHORT $LN13@GetToken
$LN12@GetToken:

; 104  : 		*p = 0;

  005b3	8b 45 f4	 mov	 eax, DWORD PTR _p$[ebp]
  005b6	c6 00 00	 mov	 BYTE PTR [eax], 0

; 105  : 		TokenNumber = atof( TempString);	// Select the first Byte as Main ID

  005b9	8d 45 90	 lea	 eax, DWORD PTR _TempString$[ebp]
  005bc	50		 push	 eax
  005bd	e8 00 00 00 00	 call	 _atof
  005c2	83 c4 04	 add	 esp, 4
  005c5	d9 1d 00 00 00
	00		 fstp	 DWORD PTR _TokenNumber

; 106  : 		return CurrentToken  = NUMBER ;

  005cb	c7 05 00 00 00
	00 01 00 00 00	 mov	 DWORD PTR _CurrentToken, 1
  005d5	a1 00 00 00 00	 mov	 eax, DWORD PTR _CurrentToken
  005da	e9 39 01 00 00	 jmp	 $LN32@GetToken

; 107  : 		break;

  005df	e9 32 01 00 00	 jmp	 $LN20@GetToken
$LN10@GetToken:

; 108  : 
; 109  : 	case '\"':	// "	String Case
; 110  : 		p=&TokenString[0];

  005e4	c7 45 f4 00 00
	00 00		 mov	 DWORD PTR _p$[ebp], OFFSET _TokenString
$LN9@GetToken:

; 111  : 		
; 112  : 		while (((ch=getc(SMDFile)) != -1 ) && (ch != 0x22))	// nice

  005eb	a1 00 00 00 00	 mov	 eax, DWORD PTR _SMDFile
  005f0	50		 push	 eax
  005f1	e8 00 00 00 00	 call	 _getc
  005f6	83 c4 04	 add	 esp, 4
  005f9	88 45 fb	 mov	 BYTE PTR _ch$[ebp], al
  005fc	0f be 4d fb	 movsx	 ecx, BYTE PTR _ch$[ebp]
  00600	83 f9 ff	 cmp	 ecx, -1
  00603	74 1c		 je	 SHORT $LN8@GetToken
  00605	0f be 45 fb	 movsx	 eax, BYTE PTR _ch$[ebp]
  00609	83 f8 22	 cmp	 eax, 34			; 00000022H
  0060c	74 13		 je	 SHORT $LN8@GetToken

; 113  : 		{
; 114  : 			*p = ch;

  0060e	8b 45 f4	 mov	 eax, DWORD PTR _p$[ebp]
  00611	8a 4d fb	 mov	 cl, BYTE PTR _ch$[ebp]
  00614	88 08		 mov	 BYTE PTR [eax], cl

; 115  : 			p++;

  00616	8b 45 f4	 mov	 eax, DWORD PTR _p$[ebp]
  00619	83 c0 01	 add	 eax, 1
  0061c	89 45 f4	 mov	 DWORD PTR _p$[ebp], eax

; 116  : 		}

  0061f	eb ca		 jmp	 SHORT $LN9@GetToken
$LN8@GetToken:

; 117  : 		if (ch != 0x22 )

  00621	0f be 45 fb	 movsx	 eax, BYTE PTR _ch$[ebp]
  00625	83 f8 22	 cmp	 eax, 34			; 00000022H
  00628	74 13		 je	 SHORT $LN7@GetToken

; 118  : 		{
; 119  : 			ungetc(ch, SMDFile);

  0062a	a1 00 00 00 00	 mov	 eax, DWORD PTR _SMDFile
  0062f	50		 push	 eax
  00630	0f be 4d fb	 movsx	 ecx, BYTE PTR _ch$[ebp]
  00634	51		 push	 ecx
  00635	e8 00 00 00 00	 call	 _ungetc
  0063a	83 c4 08	 add	 esp, 8
$LN7@GetToken:

; 120  : 		}
; 121  : 		*p = 0;

  0063d	8b 45 f4	 mov	 eax, DWORD PTR _p$[ebp]
  00640	c6 00 00	 mov	 BYTE PTR [eax], 0

; 122  : 		return CurrentToken = NAME;

  00643	c7 05 00 00 00
	00 00 00 00 00	 mov	 DWORD PTR _CurrentToken, 0
  0064d	a1 00 00 00 00	 mov	 eax, DWORD PTR _CurrentToken
  00652	e9 c1 00 00 00	 jmp	 $LN32@GetToken

; 123  : 		break;

  00657	e9 ba 00 00 00	 jmp	 $LN20@GetToken
$LN6@GetToken:

; 124  : 
; 125  : 	default:	// Others
; 126  : 		if (isalpha(ch))

  0065c	0f be 45 fb	 movsx	 eax, BYTE PTR _ch$[ebp]
  00660	50		 push	 eax
  00661	e8 00 00 00 00	 call	 _isalpha
  00666	83 c4 04	 add	 esp, 4
  00669	85 c0		 test	 eax, eax
  0066b	0f 84 94 00 00
	00		 je	 $LN5@GetToken

; 127  : 		{
; 128  : 			p=&TokenString[0];

  00671	c7 45 f4 00 00
	00 00		 mov	 DWORD PTR _p$[ebp], OFFSET _TokenString

; 129  : 			*p=ch;

  00678	8b 45 f4	 mov	 eax, DWORD PTR _p$[ebp]
  0067b	8a 4d fb	 mov	 cl, BYTE PTR _ch$[ebp]
  0067e	88 08		 mov	 BYTE PTR [eax], cl

; 130  : 			p++;

  00680	8b 45 f4	 mov	 eax, DWORD PTR _p$[ebp]
  00683	83 c0 01	 add	 eax, 1
  00686	89 45 f4	 mov	 DWORD PTR _p$[ebp], eax
$LN4@GetToken:

; 131  : 
; 132  : 			while ( ((ch=getc(SMDFile)) != -1) && ( (ch == 0x2E) || (ch == 0x5F) || (isalnum(ch) != 0) ) )

  00689	a1 00 00 00 00	 mov	 eax, DWORD PTR _SMDFile
  0068e	50		 push	 eax
  0068f	e8 00 00 00 00	 call	 _getc
  00694	83 c4 04	 add	 esp, 4
  00697	88 45 fb	 mov	 BYTE PTR _ch$[ebp], al
  0069a	0f be 4d fb	 movsx	 ecx, BYTE PTR _ch$[ebp]
  0069e	83 f9 ff	 cmp	 ecx, -1
  006a1	74 36		 je	 SHORT $LN3@GetToken
  006a3	0f be 45 fb	 movsx	 eax, BYTE PTR _ch$[ebp]
  006a7	83 f8 2e	 cmp	 eax, 46			; 0000002eH
  006aa	74 1a		 je	 SHORT $LN2@GetToken
  006ac	0f be 45 fb	 movsx	 eax, BYTE PTR _ch$[ebp]
  006b0	83 f8 5f	 cmp	 eax, 95			; 0000005fH
  006b3	74 11		 je	 SHORT $LN2@GetToken
  006b5	0f be 45 fb	 movsx	 eax, BYTE PTR _ch$[ebp]
  006b9	50		 push	 eax
  006ba	e8 00 00 00 00	 call	 _isalnum
  006bf	83 c4 04	 add	 esp, 4
  006c2	85 c0		 test	 eax, eax
  006c4	74 13		 je	 SHORT $LN3@GetToken
$LN2@GetToken:

; 133  : 			{
; 134  : 				*p=ch;

  006c6	8b 45 f4	 mov	 eax, DWORD PTR _p$[ebp]
  006c9	8a 4d fb	 mov	 cl, BYTE PTR _ch$[ebp]
  006cc	88 08		 mov	 BYTE PTR [eax], cl

; 135  : 				p++;

  006ce	8b 45 f4	 mov	 eax, DWORD PTR _p$[ebp]
  006d1	83 c0 01	 add	 eax, 1
  006d4	89 45 f4	 mov	 DWORD PTR _p$[ebp], eax

; 136  : 				
; 137  : 			}

  006d7	eb b0		 jmp	 SHORT $LN4@GetToken
$LN3@GetToken:

; 138  : 
; 139  : 			ungetc(ch, SMDFile);

  006d9	a1 00 00 00 00	 mov	 eax, DWORD PTR _SMDFile
  006de	50		 push	 eax
  006df	0f be 4d fb	 movsx	 ecx, BYTE PTR _ch$[ebp]
  006e3	51		 push	 ecx
  006e4	e8 00 00 00 00	 call	 _ungetc
  006e9	83 c4 08	 add	 esp, 8

; 140  : 			*p=0;

  006ec	8b 45 f4	 mov	 eax, DWORD PTR _p$[ebp]
  006ef	c6 00 00	 mov	 BYTE PTR [eax], 0

; 141  : 			CurrentToken=NAME;

  006f2	c7 05 00 00 00
	00 00 00 00 00	 mov	 DWORD PTR _CurrentToken, 0

; 142  : 			return CurrentToken;

  006fc	a1 00 00 00 00	 mov	 eax, DWORD PTR _CurrentToken
  00701	eb 15		 jmp	 SHORT $LN32@GetToken

; 143  : 		}
; 144  : 		else

  00703	eb 11		 jmp	 SHORT $LN1@GetToken
$LN5@GetToken:

; 145  : 		{
; 146  : 			return CurrentToken = SMD_ERROR; // '<'

  00705	c7 05 00 00 00
	00 3c 00 00 00	 mov	 DWORD PTR _CurrentToken, 60 ; 0000003cH
  0070f	a1 00 00 00 00	 mov	 eax, DWORD PTR _CurrentToken
  00714	eb 02		 jmp	 SHORT $LN32@GetToken
$LN1@GetToken:
$LN20@GetToken:

; 147  : 		}
; 148  : 		break;
; 149  : 
; 150  : 	}
; 151  : 
; 152  : 	return NAME;

  00716	33 c0		 xor	 eax, eax
$LN32@GetToken:

; 153  : }

  00718	5f		 pop	 edi
  00719	5e		 pop	 esi
  0071a	5b		 pop	 ebx
  0071b	8b 4d fc	 mov	 ecx, DWORD PTR __$ArrayPad$[ebp]
  0071e	33 cd		 xor	 ecx, ebp
  00720	e8 00 00 00 00	 call	 @__security_check_cookie@4
  00725	8b e5		 mov	 esp, ebp
  00727	5d		 pop	 ebp
  00728	c3		 ret	 0
  00729	8d 49 00	 npad	 3
$LN35@GetToken:
  0072c	00 00 00 00	 DD	 $LN10@GetToken
  00730	00 00 00 00	 DD	 $LN19@GetToken
  00734	00 00 00 00	 DD	 $LN17@GetToken
  00738	00 00 00 00	 DD	 $LN14@GetToken
  0073c	00 00 00 00	 DD	 $LN18@GetToken
  00740	00 00 00 00	 DD	 $LN16@GetToken
  00744	00 00 00 00	 DD	 $LN15@GetToken
  00748	00 00 00 00	 DD	 $LN6@GetToken
$LN34@GetToken:
  0074c	00		 DB	 0
  0074d	01		 DB	 1
  0074e	07		 DB	 7
  0074f	07		 DB	 7
  00750	07		 DB	 7
  00751	07		 DB	 7
  00752	07		 DB	 7
  00753	07		 DB	 7
  00754	07		 DB	 7
  00755	07		 DB	 7
  00756	02		 DB	 2
  00757	03		 DB	 3
  00758	03		 DB	 3
  00759	07		 DB	 7
  0075a	03		 DB	 3
  0075b	03		 DB	 3
  0075c	03		 DB	 3
  0075d	03		 DB	 3
  0075e	03		 DB	 3
  0075f	03		 DB	 3
  00760	03		 DB	 3
  00761	03		 DB	 3
  00762	03		 DB	 3
  00763	03		 DB	 3
  00764	07		 DB	 7
  00765	04		 DB	 4
  00766	07		 DB	 7
  00767	07		 DB	 7
  00768	07		 DB	 7
  00769	07		 DB	 7
  0076a	07		 DB	 7
  0076b	07		 DB	 7
  0076c	07		 DB	 7
  0076d	07		 DB	 7
  0076e	07		 DB	 7
  0076f	07		 DB	 7
  00770	07		 DB	 7
  00771	07		 DB	 7
  00772	07		 DB	 7
  00773	07		 DB	 7
  00774	07		 DB	 7
  00775	07		 DB	 7
  00776	07		 DB	 7
  00777	07		 DB	 7
  00778	07		 DB	 7
  00779	07		 DB	 7
  0077a	07		 DB	 7
  0077b	07		 DB	 7
  0077c	07		 DB	 7
  0077d	07		 DB	 7
  0077e	07		 DB	 7
  0077f	07		 DB	 7
  00780	07		 DB	 7
  00781	07		 DB	 7
  00782	07		 DB	 7
  00783	07		 DB	 7
  00784	07		 DB	 7
  00785	07		 DB	 7
  00786	07		 DB	 7
  00787	07		 DB	 7
  00788	07		 DB	 7
  00789	07		 DB	 7
  0078a	07		 DB	 7
  0078b	07		 DB	 7
  0078c	07		 DB	 7
  0078d	07		 DB	 7
  0078e	07		 DB	 7
  0078f	07		 DB	 7
  00790	07		 DB	 7
  00791	07		 DB	 7
  00792	07		 DB	 7
  00793	07		 DB	 7
  00794	07		 DB	 7
  00795	07		 DB	 7
  00796	07		 DB	 7
  00797	07		 DB	 7
  00798	07		 DB	 7
  00799	07		 DB	 7
  0079a	07		 DB	 7
  0079b	07		 DB	 7
  0079c	07		 DB	 7
  0079d	07		 DB	 7
  0079e	07		 DB	 7
  0079f	07		 DB	 7
  007a0	07		 DB	 7
  007a1	07		 DB	 7
  007a2	07		 DB	 7
  007a3	07		 DB	 7
  007a4	07		 DB	 7
  007a5	05		 DB	 5
  007a6	07		 DB	 7
  007a7	06		 DB	 6
?GetToken@@YA?AW4SMDToken@@XZ ENDP			; GetToken
_TEXT	ENDS
PUBLIC	?LockTimeCheckSync@CIllusionTempleProcess@@QAEXXZ ; CIllusionTempleProcess::LockTimeCheckSync
PUBLIC	?GetTimeCheckSync@CIllusionTempleProcess@@QAEHXZ ; CIllusionTempleProcess::GetTimeCheckSync
PUBLIC	?Run@CIllusionTempleEvent@@QAEXXZ		; CIllusionTempleEvent::Run
EXTRN	?Run@CIllusionTempleProcess@@QAEXH@Z:PROC	; CIllusionTempleProcess::Run
EXTRN	?CheckSync@CIllusionTempleProcess@@QAEXXZ:PROC	; CIllusionTempleProcess::CheckSync
EXTRN	?GetRemainTime@CIllusionTempleProcess@@QAEEXZ:PROC ; CIllusionTempleProcess::GetRemainTime
EXTRN	__imp__GetTickCount@0:PROC
; Function compile flags: /Odtp /ZI
; File d:\projects\exteam6.3\source\gameserver\gameserver\illusiontempleevent.cpp
_TEXT	SEGMENT
_i$ = -16						; size = 4
_loc3$ = -12						; size = 4
_loc2$ = -8						; size = 4
_this$ = -4						; size = 4
?Run@CIllusionTempleEvent@@QAEXXZ PROC			; CIllusionTempleEvent::Run
; _this$ = ecx

; 143  : {

  007b0	55		 push	 ebp
  007b1	8b ec		 mov	 ebp, esp
  007b3	83 ec 50	 sub	 esp, 80			; 00000050H
  007b6	53		 push	 ebx
  007b7	56		 push	 esi
  007b8	57		 push	 edi
  007b9	89 4d fc	 mov	 DWORD PTR _this$[ebp], ecx

; 144  : 	if(g_iIllusionTempleEvent == 0)

  007bc	83 3d 00 00 00
	00 00		 cmp	 DWORD PTR ?g_iIllusionTempleEvent@@3HA, 0 ; g_iIllusionTempleEvent
  007c3	75 05		 jne	 SHORT $LN6@Run

; 145  : 	{
; 146  : 		return;

  007c5	e9 92 00 00 00	 jmp	 $LN7@Run
$LN6@Run:

; 147  : 	}
; 148  : 
; 149  : 	int loc2 = GetTickCount();

  007ca	ff 15 00 00 00
	00		 call	 DWORD PTR __imp__GetTickCount@0
  007d0	89 45 f8	 mov	 DWORD PTR _loc2$[ebp], eax

; 150  : 	int loc3 = 0;

  007d3	c7 45 f4 00 00
	00 00		 mov	 DWORD PTR _loc3$[ebp], 0

; 151  : 	int i;
; 152  : 
; 153  : 	if(this->m_IllusionTempleProcess[0].GetRemainTime() == 10 && this->m_IllusionTempleProcess[0].GetTimeCheckSync() == 0)

  007da	8b 4d fc	 mov	 ecx, DWORD PTR _this$[ebp]
  007dd	83 c1 08	 add	 ecx, 8
  007e0	e8 00 00 00 00	 call	 ?GetRemainTime@CIllusionTempleProcess@@QAEEXZ ; CIllusionTempleProcess::GetRemainTime
  007e5	0f b6 c0	 movzx	 eax, al
  007e8	83 f8 0a	 cmp	 eax, 10			; 0000000aH
  007eb	75 21		 jne	 SHORT $LN5@Run
  007ed	8b 4d fc	 mov	 ecx, DWORD PTR _this$[ebp]
  007f0	83 c1 08	 add	 ecx, 8
  007f3	e8 00 00 00 00	 call	 ?GetTimeCheckSync@CIllusionTempleProcess@@QAEHXZ ; CIllusionTempleProcess::GetTimeCheckSync
  007f8	85 c0		 test	 eax, eax
  007fa	75 12		 jne	 SHORT $LN5@Run

; 154  : 	{
; 155  : 		loc3 = 1;

  007fc	c7 45 f4 01 00
	00 00		 mov	 DWORD PTR _loc3$[ebp], 1

; 156  : 		this->m_IllusionTempleProcess[0].LockTimeCheckSync();

  00803	8b 4d fc	 mov	 ecx, DWORD PTR _this$[ebp]
  00806	83 c1 08	 add	 ecx, 8
  00809	e8 00 00 00 00	 call	 ?LockTimeCheckSync@CIllusionTempleProcess@@QAEXXZ ; CIllusionTempleProcess::LockTimeCheckSync
$LN5@Run:

; 157  : 	}
; 158  : 
; 159  : 	for(i = 0; i < MAX_FLOOR_DATA+1; i++)

  0080e	c7 45 f0 00 00
	00 00		 mov	 DWORD PTR _i$[ebp], 0
  00815	eb 09		 jmp	 SHORT $LN4@Run
$LN3@Run:
  00817	8b 45 f0	 mov	 eax, DWORD PTR _i$[ebp]
  0081a	83 c0 01	 add	 eax, 1
  0081d	89 45 f0	 mov	 DWORD PTR _i$[ebp], eax
$LN4@Run:
  00820	83 7d f0 06	 cmp	 DWORD PTR _i$[ebp], 6
  00824	7d 36		 jge	 SHORT $LN7@Run

; 160  : 	{
; 161  : 		if(loc3 == 1)

  00826	83 7d f4 01	 cmp	 DWORD PTR _loc3$[ebp], 1
  0082a	75 15		 jne	 SHORT $LN1@Run

; 162  : 		{
; 163  : 			this->m_IllusionTempleProcess[i].CheckSync();

  0082c	8b 45 f0	 mov	 eax, DWORD PTR _i$[ebp]
  0082f	69 c0 f0 03 00
	00		 imul	 eax, 1008		; 000003f0H
  00835	8b 4d fc	 mov	 ecx, DWORD PTR _this$[ebp]
  00838	8d 4c 01 08	 lea	 ecx, DWORD PTR [ecx+eax+8]
  0083c	e8 00 00 00 00	 call	 ?CheckSync@CIllusionTempleProcess@@QAEXXZ ; CIllusionTempleProcess::CheckSync
$LN1@Run:

; 164  : 		}
; 165  : 		this->m_IllusionTempleProcess[i].Run(loc2);

  00841	8b 45 f8	 mov	 eax, DWORD PTR _loc2$[ebp]
  00844	50		 push	 eax
  00845	8b 4d f0	 mov	 ecx, DWORD PTR _i$[ebp]
  00848	69 c9 f0 03 00
	00		 imul	 ecx, 1008		; 000003f0H
  0084e	8b 55 fc	 mov	 edx, DWORD PTR _this$[ebp]
  00851	8d 4c 0a 08	 lea	 ecx, DWORD PTR [edx+ecx+8]
  00855	e8 00 00 00 00	 call	 ?Run@CIllusionTempleProcess@@QAEXH@Z ; CIllusionTempleProcess::Run

; 166  : 	}

  0085a	eb bb		 jmp	 SHORT $LN3@Run
$LN7@Run:

; 167  : }

  0085c	5f		 pop	 edi
  0085d	5e		 pop	 esi
  0085e	5b		 pop	 ebx
  0085f	8b e5		 mov	 esp, ebp
  00861	5d		 pop	 ebp
  00862	c3		 ret	 0
?Run@CIllusionTempleEvent@@QAEXXZ ENDP			; CIllusionTempleEvent::Run
; Function compile flags: /Odtp /ZI
; File d:\projects\exteam6.3\source\gameserver\gameserver\illusiontempleprocess.h
_TEXT	ENDS
;	COMDAT ?LockTimeCheckSync@CIllusionTempleProcess@@QAEXXZ
_TEXT	SEGMENT
_this$ = -4						; size = 4
?LockTimeCheckSync@CIllusionTempleProcess@@QAEXXZ PROC	; CIllusionTempleProcess::LockTimeCheckSync, COMDAT
; _this$ = ecx

; 279  : 	void LockTimeCheckSync(){this->m_bTimeCheckSync = TRUE;}

  00000	55		 push	 ebp
  00001	8b ec		 mov	 ebp, esp
  00003	83 ec 44	 sub	 esp, 68			; 00000044H
  00006	53		 push	 ebx
  00007	56		 push	 esi
  00008	57		 push	 edi
  00009	89 4d fc	 mov	 DWORD PTR _this$[ebp], ecx
  0000c	8b 45 fc	 mov	 eax, DWORD PTR _this$[ebp]
  0000f	c7 80 e4 03 00
	00 01 00 00 00	 mov	 DWORD PTR [eax+996], 1
  00019	5f		 pop	 edi
  0001a	5e		 pop	 esi
  0001b	5b		 pop	 ebx
  0001c	8b e5		 mov	 esp, ebp
  0001e	5d		 pop	 ebp
  0001f	c3		 ret	 0
?LockTimeCheckSync@CIllusionTempleProcess@@QAEXXZ ENDP	; CIllusionTempleProcess::LockTimeCheckSync
; Function compile flags: /Odtp /ZI
_TEXT	ENDS
;	COMDAT ?GetTimeCheckSync@CIllusionTempleProcess@@QAEHXZ
_TEXT	SEGMENT
_this$ = -4						; size = 4
?GetTimeCheckSync@CIllusionTempleProcess@@QAEHXZ PROC	; CIllusionTempleProcess::GetTimeCheckSync, COMDAT
; _this$ = ecx

; 280  : 	BOOL GetTimeCheckSync(){return this->m_bTimeCheckSync;}

  00000	55		 push	 ebp
  00001	8b ec		 mov	 ebp, esp
  00003	83 ec 44	 sub	 esp, 68			; 00000044H
  00006	53		 push	 ebx
  00007	56		 push	 esi
  00008	57		 push	 edi
  00009	89 4d fc	 mov	 DWORD PTR _this$[ebp], ecx
  0000c	8b 45 fc	 mov	 eax, DWORD PTR _this$[ebp]
  0000f	8b 80 e4 03 00
	00		 mov	 eax, DWORD PTR [eax+996]
  00015	5f		 pop	 edi
  00016	5e		 pop	 esi
  00017	5b		 pop	 ebx
  00018	8b e5		 mov	 esp, ebp
  0001a	5d		 pop	 ebp
  0001b	c3		 ret	 0
?GetTimeCheckSync@CIllusionTempleProcess@@QAEHXZ ENDP	; CIllusionTempleProcess::GetTimeCheckSync
_TEXT	ENDS
PUBLIC	?SetRegPedestal@CIllusionTempleEvent@@QAEXEHE@Z	; CIllusionTempleEvent::SetRegPedestal
EXTRN	?UnlockTeamPedestal@CIllusionTempleProcess@@QAEXHE@Z:PROC ; CIllusionTempleProcess::UnlockTeamPedestal
; Function compile flags: /Odtp /ZI
; File d:\projects\exteam6.3\source\gameserver\gameserver\illusiontempleevent.cpp
_TEXT	SEGMENT
tv71 = -72						; size = 4
_this$ = -4						; size = 4
_btMapNumber$ = 8					; size = 1
_aIndex$ = 12						; size = 4
_pos$ = 16						; size = 1
?SetRegPedestal@CIllusionTempleEvent@@QAEXEHE@Z PROC	; CIllusionTempleEvent::SetRegPedestal
; _this$ = ecx

; 170  : {

  00870	55		 push	 ebp
  00871	8b ec		 mov	 ebp, esp
  00873	83 ec 48	 sub	 esp, 72			; 00000048H
  00876	53		 push	 ebx
  00877	56		 push	 esi
  00878	57		 push	 edi
  00879	89 4d fc	 mov	 DWORD PTR _this$[ebp], ecx

; 171  : 	if( CHECK_LIMIT( (btMapNumber - MAP_INDEX_ILLUSIONTEMPLE_MIN), MAX_FLOOR_DATA+1) == FALSE )

  0087c	0f b6 45 08	 movzx	 eax, BYTE PTR _btMapNumber$[ebp]
  00880	83 e8 2d	 sub	 eax, 45			; 0000002dH
  00883	79 09		 jns	 SHORT $LN4@SetRegPede
  00885	c7 45 b8 00 00
	00 00		 mov	 DWORD PTR tv71[ebp], 0
  0088c	eb 12		 jmp	 SHORT $LN5@SetRegPede
$LN4@SetRegPede:
  0088e	0f b6 4d 08	 movzx	 ecx, BYTE PTR _btMapNumber$[ebp]
  00892	83 e9 2d	 sub	 ecx, 45			; 0000002dH
  00895	33 d2		 xor	 edx, edx
  00897	83 f9 05	 cmp	 ecx, 5
  0089a	0f 9e c2	 setle	 dl
  0089d	89 55 b8	 mov	 DWORD PTR tv71[ebp], edx
$LN5@SetRegPede:
  008a0	83 7d b8 00	 cmp	 DWORD PTR tv71[ebp], 0
  008a4	75 02		 jne	 SHORT $LN1@SetRegPede

; 172  : 	{
; 173  : 		return;

  008a6	eb 22		 jmp	 SHORT $LN2@SetRegPede
$LN1@SetRegPede:

; 174  : 	}
; 175  : 	this->m_IllusionTempleProcess[btMapNumber - MAP_INDEX_ILLUSIONTEMPLE_MIN].UnlockTeamPedestal(aIndex, pos);

  008a8	0f b6 45 10	 movzx	 eax, BYTE PTR _pos$[ebp]
  008ac	50		 push	 eax
  008ad	8b 4d 0c	 mov	 ecx, DWORD PTR _aIndex$[ebp]
  008b0	51		 push	 ecx
  008b1	0f b6 55 08	 movzx	 edx, BYTE PTR _btMapNumber$[ebp]
  008b5	83 ea 2d	 sub	 edx, 45			; 0000002dH
  008b8	69 d2 f0 03 00
	00		 imul	 edx, 1008		; 000003f0H
  008be	8b 45 fc	 mov	 eax, DWORD PTR _this$[ebp]
  008c1	8d 4c 10 08	 lea	 ecx, DWORD PTR [eax+edx+8]
  008c5	e8 00 00 00 00	 call	 ?UnlockTeamPedestal@CIllusionTempleProcess@@QAEXHE@Z ; CIllusionTempleProcess::UnlockTeamPedestal
$LN2@SetRegPede:

; 176  : }

  008ca	5f		 pop	 edi
  008cb	5e		 pop	 esi
  008cc	5b		 pop	 ebx
  008cd	8b e5		 mov	 esp, ebp
  008cf	5d		 pop	 ebp
  008d0	c2 0c 00	 ret	 12			; 0000000cH
?SetRegPedestal@CIllusionTempleEvent@@QAEXEHE@Z ENDP	; CIllusionTempleEvent::SetRegPedestal
_TEXT	ENDS
PUBLIC	?SetRelicsCarrierViewState@CIllusionTempleEvent@@QAEXPAUOBJECTSTRUCT@@@Z ; CIllusionTempleEvent::SetRelicsCarrierViewState
EXTRN	?GCSendPlayerRelicsCarrier@CIllusionTempleProcess@@QAEXPAUOBJECTSTRUCT@@@Z:PROC ; CIllusionTempleProcess::GCSendPlayerRelicsCarrier
; Function compile flags: /Odtp /ZI
_TEXT	SEGMENT
tv73 = -72						; size = 4
_this$ = -4						; size = 4
_lpObj$ = 8						; size = 4
?SetRelicsCarrierViewState@CIllusionTempleEvent@@QAEXPAUOBJECTSTRUCT@@@Z PROC ; CIllusionTempleEvent::SetRelicsCarrierViewState
; _this$ = ecx

; 179  : {

  008e0	55		 push	 ebp
  008e1	8b ec		 mov	 ebp, esp
  008e3	83 ec 48	 sub	 esp, 72			; 00000048H
  008e6	53		 push	 ebx
  008e7	56		 push	 esi
  008e8	57		 push	 edi
  008e9	89 4d fc	 mov	 DWORD PTR _this$[ebp], ecx

; 180  : 	if( CHECK_LIMIT( (lpObj->MapNumber - MAP_INDEX_ILLUSIONTEMPLE_MIN), MAX_FLOOR_DATA+1) == FALSE )

  008ec	8b 45 08	 mov	 eax, DWORD PTR _lpObj$[ebp]
  008ef	0f b6 88 49 01
	00 00		 movzx	 ecx, BYTE PTR [eax+329]
  008f6	83 e9 2d	 sub	 ecx, 45			; 0000002dH
  008f9	79 09		 jns	 SHORT $LN4@SetRelicsC
  008fb	c7 45 b8 00 00
	00 00		 mov	 DWORD PTR tv73[ebp], 0
  00902	eb 18		 jmp	 SHORT $LN5@SetRelicsC
$LN4@SetRelicsC:
  00904	8b 55 08	 mov	 edx, DWORD PTR _lpObj$[ebp]
  00907	0f b6 82 49 01
	00 00		 movzx	 eax, BYTE PTR [edx+329]
  0090e	83 e8 2d	 sub	 eax, 45			; 0000002dH
  00911	33 c9		 xor	 ecx, ecx
  00913	83 f8 05	 cmp	 eax, 5
  00916	0f 9e c1	 setle	 cl
  00919	89 4d b8	 mov	 DWORD PTR tv73[ebp], ecx
$LN5@SetRelicsC:
  0091c	83 7d b8 00	 cmp	 DWORD PTR tv73[ebp], 0
  00920	75 02		 jne	 SHORT $LN1@SetRelicsC

; 181  : 	{
; 182  : 		return;

  00922	eb 23		 jmp	 SHORT $LN2@SetRelicsC
$LN1@SetRelicsC:

; 183  : 	}
; 184  : 	this->m_IllusionTempleProcess[lpObj->MapNumber - MAP_INDEX_ILLUSIONTEMPLE_MIN].GCSendPlayerRelicsCarrier(lpObj);

  00924	8b 45 08	 mov	 eax, DWORD PTR _lpObj$[ebp]
  00927	50		 push	 eax
  00928	8b 4d 08	 mov	 ecx, DWORD PTR _lpObj$[ebp]
  0092b	0f b6 91 49 01
	00 00		 movzx	 edx, BYTE PTR [ecx+329]
  00932	83 ea 2d	 sub	 edx, 45			; 0000002dH
  00935	69 d2 f0 03 00
	00		 imul	 edx, 1008		; 000003f0H
  0093b	8b 45 fc	 mov	 eax, DWORD PTR _this$[ebp]
  0093e	8d 4c 10 08	 lea	 ecx, DWORD PTR [eax+edx+8]
  00942	e8 00 00 00 00	 call	 ?GCSendPlayerRelicsCarrier@CIllusionTempleProcess@@QAEXPAUOBJECTSTRUCT@@@Z ; CIllusionTempleProcess::GCSendPlayerRelicsCarrier
$LN2@SetRelicsC:

; 185  : }

  00947	5f		 pop	 edi
  00948	5e		 pop	 esi
  00949	5b		 pop	 ebx
  0094a	8b e5		 mov	 esp, ebp
  0094c	5d		 pop	 ebp
  0094d	c2 04 00	 ret	 4
?SetRelicsCarrierViewState@CIllusionTempleEvent@@QAEXPAUOBJECTSTRUCT@@@Z ENDP ; CIllusionTempleEvent::SetRelicsCarrierViewState
_TEXT	ENDS
PUBLIC	?NotifyTempleEntranceInfo@CIllusionTempleEvent@@QAEXXZ ; CIllusionTempleEvent::NotifyTempleEntranceInfo
PUBLIC	??_C@_0EL@LOMGEPMJ@?$FLIllusion?5Temple?$FN?5?$CI?$CFd?$CJ?5EnterUser@ ; `string'
PUBLIC	__real@0000000000000000
PUBLIC	__real@00000000
PUBLIC	?CheckEnterLevel@CIllusionTempleEvent@@QAEHHH@Z	; CIllusionTempleEvent::CheckEnterLevel
PUBLIC	?GetEnterLevel@CIllusionTempleEvent@@QAEHH@Z	; CIllusionTempleEvent::GetEnterLevel
PUBLIC	__real@3ff0000000000000
PUBLIC	?GetOpenStatus@CIllusionTempleProcess@@QAEHXZ	; CIllusionTempleProcess::GetOpenStatus
PUBLIC	?CheckWearingMOPH@CIllusionTempleEvent@@QAEHH@Z	; CIllusionTempleEvent::CheckWearingMOPH
PUBLIC	?IllusionTempleAddUser@CIllusionTempleEvent@@QAEHHEE@Z ; CIllusionTempleEvent::IllusionTempleAddUser
EXTRN	?NotifyTempleInfo@CIllusionTempleProcess@@QAEXEH@Z:PROC ; CIllusionTempleProcess::NotifyTempleInfo
EXTRN	?gObjMoveGate@@YAHHH@Z:PROC			; gObjMoveGate
EXTRN	?LogAddTD@@3P6AXPADZZA:DWORD			; LogAddTD
EXTRN	?GCItemDurSend@@YAXHEEE@Z:PROC			; GCItemDurSend
EXTRN	?CGPartyDelUser@@YAXPAUPMSG_PARTYDELUSER@@H@Z:PROC ; CGPartyDelUser
EXTRN	?GetIndex@PartyClass@@QAEHHHH@Z:PROC		; PartyClass::GetIndex
EXTRN	?AddBattleUser@CIllusionTempleProcess@@QAEHHEE@Z:PROC ; CIllusionTempleProcess::AddBattleUser
EXTRN	?RemoveInvalid@CIllusionTempleProcess@@QAEXXZ:PROC ; CIllusionTempleProcess::RemoveInvalid
EXTRN	?IsItem@CItem@@QAEHXZ:PROC			; CItem::IsItem
EXTRN	?GetState@CIllusionTempleProcess@@QAEEXZ:PROC	; CIllusionTempleProcess::GetState
EXTRN	?DataSend@@YAHHPAEK@Z:PROC			; DataSend
EXTRN	?GetPkLevel@PartyClass@@QAEDH@Z:PROC		; PartyClass::GetPkLevel
EXTRN	?gParty@@3VPartyClass@@A:BYTE			; gParty
EXTRN	?ExConfig@@3VcExConfigs@@A:BYTE			; ExConfig
EXTRN	?CGPShopReqClose@@YAXH@Z:PROC			; CGPShopReqClose
EXTRN	?PHeadSubSetB@@YAXPAEEEH@Z:PROC			; PHeadSubSetB
EXTRN	?gObj@@3PAUOBJECTSTRUCT@@A:DWORD		; gObj
;	COMDAT ??_C@_0EL@LOMGEPMJ@?$FLIllusion?5Temple?$FN?5?$CI?$CFd?$CJ?5EnterUser@
CONST	SEGMENT
??_C@_0EL@LOMGEPMJ@?$FLIllusion?5Temple?$FN?5?$CI?$CFd?$CJ?5EnterUser@ DB '['
	DB	'Illusion Temple] (%d) EnterUser: (%s)(%s) class:%d (Serial:%u'
	DB	'). PCRoom:%d', 00H				; `string'
CONST	ENDS
;	COMDAT __real@0000000000000000
CONST	SEGMENT
__real@0000000000000000 DQ 00000000000000000r	; 0
CONST	ENDS
;	COMDAT __real@00000000
CONST	SEGMENT
__real@00000000 DD 000000000r			; 0
CONST	ENDS
;	COMDAT __real@3ff0000000000000
CONST	SEGMENT
__real@3ff0000000000000 DQ 03ff0000000000000r	; 1
; Function compile flags: /Odtp /ZI
CONST	ENDS
_TEXT	SEGMENT
tv533 = -116						; size = 4
tv511 = -116						; size = 4
tv531 = -112						; size = 4
tv509 = -112						; size = 4
tv209 = -108						; size = 4
tv70 = -108						; size = 4
tv528 = -106						; size = 2
tv506 = -106						; size = 2
_loc10$ = -40						; size = 4
_pMsg$ = -36						; size = 4
_loc8$ = -32						; size = 4
_loc7$ = -28						; size = 4
_loc6$ = -24						; size = 4
_bPlayerKiller$ = -20					; size = 4
_pResult$ = -16						; size = 5
_lpObj$ = -8						; size = 4
_this$ = -4						; size = 4
_aIndex$ = 8						; size = 4
_FloorIndex$ = 12					; size = 1
_TicketPos$ = 16					; size = 1
?IllusionTempleAddUser@CIllusionTempleEvent@@QAEHHEE@Z PROC ; CIllusionTempleEvent::IllusionTempleAddUser
; _this$ = ecx

; 188  : {

  00950	55		 push	 ebp
  00951	8b ec		 mov	 ebp, esp
  00953	83 ec 74	 sub	 esp, 116		; 00000074H
  00956	53		 push	 ebx
  00957	56		 push	 esi
  00958	57		 push	 edi
  00959	89 4d fc	 mov	 DWORD PTR _this$[ebp], ecx

; 189  : 	if(g_iIllusionTempleEvent == 0 )

  0095c	83 3d 00 00 00
	00 00		 cmp	 DWORD PTR ?g_iIllusionTempleEvent@@3HA, 0 ; g_iIllusionTempleEvent
  00963	75 07		 jne	 SHORT $LN28@IllusionTe

; 190  : 	{
; 191  : 		return FALSE;

  00965	33 c0		 xor	 eax, eax
  00967	e9 6e 06 00 00	 jmp	 $LN29@IllusionTe
$LN28@IllusionTe:

; 192  : 	}
; 193  : 
; 194  : 	LPOBJ lpObj;
; 195  : 	PMSG_SEND_ILLUSION_ENTER_RESULT pResult;
; 196  : 	BOOL bPlayerKiller;
; 197  : 	int loc6;
; 198  : 	int loc7;
; 199  : 	int loc8;
; 200  : 	PMSG_PARTYDELUSER pMsg;
; 201  : 	int loc10;
; 202  : 
; 203  : 	if(CHECK_LIMIT( (FloorIndex), MAX_FLOOR_DATA+1) == FALSE)

  0096c	0f b6 45 0c	 movzx	 eax, BYTE PTR _FloorIndex$[ebp]
  00970	85 c0		 test	 eax, eax
  00972	7d 09		 jge	 SHORT $LN31@IllusionTe
  00974	c7 45 94 00 00
	00 00		 mov	 DWORD PTR tv70[ebp], 0
  0097b	eb 0f		 jmp	 SHORT $LN32@IllusionTe
$LN31@IllusionTe:
  0097d	0f b6 4d 0c	 movzx	 ecx, BYTE PTR _FloorIndex$[ebp]
  00981	33 d2		 xor	 edx, edx
  00983	83 f9 05	 cmp	 ecx, 5
  00986	0f 9e c2	 setle	 dl
  00989	89 55 94	 mov	 DWORD PTR tv70[ebp], edx
$LN32@IllusionTe:
  0098c	83 7d 94 00	 cmp	 DWORD PTR tv70[ebp], 0
  00990	75 07		 jne	 SHORT $LN27@IllusionTe

; 204  : 	{
; 205  : 		return FALSE;

  00992	33 c0		 xor	 eax, eax
  00994	e9 41 06 00 00	 jmp	 $LN29@IllusionTe
$LN27@IllusionTe:

; 206  : 	}
; 207  : 
; 208  : 	lpObj = &gObj[aIndex];

  00999	8b 45 08	 mov	 eax, DWORD PTR _aIndex$[ebp]
  0099c	69 c0 38 2b 00
	00		 imul	 eax, 11064		; 00002b38H
  009a2	03 05 00 00 00
	00		 add	 eax, DWORD PTR ?gObj@@3PAUOBJECTSTRUCT@@A ; gObj
  009a8	89 45 f8	 mov	 DWORD PTR _lpObj$[ebp], eax

; 209  : 	PHeadSubSetB((LPBYTE)&pResult, 0xBF, 0x00, sizeof(pResult));

  009ab	6a 05		 push	 5
  009ad	6a 00		 push	 0
  009af	68 bf 00 00 00	 push	 191			; 000000bfH
  009b4	8d 45 f0	 lea	 eax, DWORD PTR _pResult$[ebp]
  009b7	50		 push	 eax
  009b8	e8 00 00 00 00	 call	 ?PHeadSubSetB@@YAXPAEEEH@Z ; PHeadSubSetB
  009bd	83 c4 10	 add	 esp, 16			; 00000010H

; 210  : 	pResult.btResult = 0;

  009c0	c6 45 f4 00	 mov	 BYTE PTR _pResult$[ebp+4], 0

; 211  : 
; 212  : 	if(lpObj->Type != 1 || lpObj->Connected <= PLAYER_LOGGED)

  009c4	8b 45 f8	 mov	 eax, DWORD PTR _lpObj$[ebp]
  009c7	0f b7 48 68	 movzx	 ecx, WORD PTR [eax+104]
  009cb	83 f9 01	 cmp	 ecx, 1
  009ce	75 09		 jne	 SHORT $LN25@IllusionTe
  009d0	8b 45 f8	 mov	 eax, DWORD PTR _lpObj$[ebp]
  009d3	83 78 04 02	 cmp	 DWORD PTR [eax+4], 2
  009d7	7f 07		 jg	 SHORT $LN26@IllusionTe
$LN25@IllusionTe:

; 213  : 	{
; 214  : 		return FALSE;

  009d9	33 c0		 xor	 eax, eax
  009db	e9 fa 05 00 00	 jmp	 $LN29@IllusionTe
$LN26@IllusionTe:

; 215  : 	}
; 216  : 
; 217  : 	if ( lpObj->m_IfState.use != 0 && lpObj->m_IfState.type != 12 )

  009e0	8b 45 f8	 mov	 eax, DWORD PTR _lpObj$[ebp]
  009e3	8b 88 1c 0e 00
	00		 mov	 ecx, DWORD PTR [eax+3612]
  009e9	83 e1 03	 and	 ecx, 3
  009ec	74 1e		 je	 SHORT $LN24@IllusionTe
  009ee	8b 45 f8	 mov	 eax, DWORD PTR _lpObj$[ebp]
  009f1	8b 88 1c 0e 00
	00		 mov	 ecx, DWORD PTR [eax+3612]
  009f7	c1 e9 06	 shr	 ecx, 6
  009fa	81 e1 ff 03 00
	00		 and	 ecx, 1023		; 000003ffH
  00a00	83 f9 0c	 cmp	 ecx, 12			; 0000000cH
  00a03	74 07		 je	 SHORT $LN24@IllusionTe

; 218  : 	{
; 219  : 		return FALSE;

  00a05	33 c0		 xor	 eax, eax
  00a07	e9 ce 05 00 00	 jmp	 $LN29@IllusionTe
$LN24@IllusionTe:

; 220  : 	}
; 221  : 
; 222  : 	if ( lpObj->m_bPShopOpen == true )

  00a0c	8b 45 f8	 mov	 eax, DWORD PTR _lpObj$[ebp]
  00a0f	0f b6 88 c4 0e
	00 00		 movzx	 ecx, BYTE PTR [eax+3780]
  00a16	83 f9 01	 cmp	 ecx, 1
  00a19	75 0e		 jne	 SHORT $LN23@IllusionTe

; 223  : 	{
; 224  : 		::CGPShopReqClose(lpObj->m_Index);

  00a1b	8b 45 f8	 mov	 eax, DWORD PTR _lpObj$[ebp]
  00a1e	8b 08		 mov	 ecx, DWORD PTR [eax]
  00a20	51		 push	 ecx
  00a21	e8 00 00 00 00	 call	 ?CGPShopReqClose@@YAXH@Z ; CGPShopReqClose
  00a26	83 c4 04	 add	 esp, 4
$LN23@IllusionTe:

; 225  : 	}
; 226  : 
; 227  : 	bPlayerKiller = FALSE;

  00a29	c7 45 ec 00 00
	00 00		 mov	 DWORD PTR _bPlayerKiller$[ebp], 0

; 228  : 
; 229  : 	if(ExConfig.PvP.ExPkPartySystem && lpObj->PartyNumber >= 0)

  00a30	83 3d d4 08 00
	00 00		 cmp	 DWORD PTR ?ExConfig@@3VcExConfigs@@A+2260, 0
  00a37	74 2f		 je	 SHORT $LN21@IllusionTe
  00a39	8b 45 f8	 mov	 eax, DWORD PTR _lpObj$[ebp]
  00a3c	83 b8 2c 04 00
	00 00		 cmp	 DWORD PTR [eax+1068], 0
  00a43	7c 23		 jl	 SHORT $LN21@IllusionTe

; 230  : 	{
; 231  : 		if( (gParty.GetPkLevel(lpObj->PartyNumber)) >= 5)

  00a45	8b 45 f8	 mov	 eax, DWORD PTR _lpObj$[ebp]
  00a48	8b 88 2c 04 00
	00		 mov	 ecx, DWORD PTR [eax+1068]
  00a4e	51		 push	 ecx
  00a4f	b9 00 00 00 00	 mov	 ecx, OFFSET ?gParty@@3VPartyClass@@A ; gParty
  00a54	e8 00 00 00 00	 call	 ?GetPkLevel@PartyClass@@QAEDH@Z ; PartyClass::GetPkLevel
  00a59	0f be d0	 movsx	 edx, al
  00a5c	83 fa 05	 cmp	 edx, 5
  00a5f	7c 07		 jl	 SHORT $LN21@IllusionTe

; 232  : 		{
; 233  : 			bPlayerKiller = TRUE;

  00a61	c7 45 ec 01 00
	00 00		 mov	 DWORD PTR _bPlayerKiller$[ebp], 1
$LN21@IllusionTe:

; 234  : 		}
; 235  : 	}
; 236  : 
; 237  : 	if( lpObj->m_PK_Level >= 4 )

  00a68	8b 45 f8	 mov	 eax, DWORD PTR _lpObj$[ebp]
  00a6b	0f be 88 3d 01
	00 00		 movsx	 ecx, BYTE PTR [eax+317]
  00a72	83 f9 04	 cmp	 ecx, 4
  00a75	7c 07		 jl	 SHORT $LN20@IllusionTe

; 238  : 	{
; 239  : 		bPlayerKiller = TRUE;

  00a77	c7 45 ec 01 00
	00 00		 mov	 DWORD PTR _bPlayerKiller$[ebp], 1
$LN20@IllusionTe:

; 240  : 	}
; 241  : 
; 242  : 	if(bPlayerKiller == TRUE)

  00a7e	83 7d ec 01	 cmp	 DWORD PTR _bPlayerKiller$[ebp], 1
  00a82	75 20		 jne	 SHORT $LN19@IllusionTe

; 243  : 	{
; 244  : 		pResult.btResult = 7;

  00a84	c6 45 f4 07	 mov	 BYTE PTR _pResult$[ebp+4], 7

; 245  : 		DataSend(aIndex,(LPBYTE)&pResult,pResult.h.size);

  00a88	0f b6 45 f1	 movzx	 eax, BYTE PTR _pResult$[ebp+1]
  00a8c	50		 push	 eax
  00a8d	8d 4d f0	 lea	 ecx, DWORD PTR _pResult$[ebp]
  00a90	51		 push	 ecx
  00a91	8b 55 08	 mov	 edx, DWORD PTR _aIndex$[ebp]
  00a94	52		 push	 edx
  00a95	e8 00 00 00 00	 call	 ?DataSend@@YAHHPAEK@Z	; DataSend
  00a9a	83 c4 0c	 add	 esp, 12			; 0000000cH

; 246  : 		return FALSE;

  00a9d	33 c0		 xor	 eax, eax
  00a9f	e9 36 05 00 00	 jmp	 $LN29@IllusionTe
$LN19@IllusionTe:

; 247  : 	}
; 248  : 
; 249  : 	if(this->CheckWearingMOPH(aIndex) != FALSE)

  00aa4	8b 45 08	 mov	 eax, DWORD PTR _aIndex$[ebp]
  00aa7	50		 push	 eax
  00aa8	8b 4d fc	 mov	 ecx, DWORD PTR _this$[ebp]
  00aab	e8 00 00 00 00	 call	 ?CheckWearingMOPH@CIllusionTempleEvent@@QAEHH@Z ; CIllusionTempleEvent::CheckWearingMOPH
  00ab0	85 c0		 test	 eax, eax
  00ab2	74 20		 je	 SHORT $LN18@IllusionTe

; 250  : 	{
; 251  : 		pResult.btResult = 8;

  00ab4	c6 45 f4 08	 mov	 BYTE PTR _pResult$[ebp+4], 8

; 252  : 		DataSend(aIndex,(LPBYTE)&pResult,pResult.h.size);

  00ab8	0f b6 45 f1	 movzx	 eax, BYTE PTR _pResult$[ebp+1]
  00abc	50		 push	 eax
  00abd	8d 4d f0	 lea	 ecx, DWORD PTR _pResult$[ebp]
  00ac0	51		 push	 ecx
  00ac1	8b 55 08	 mov	 edx, DWORD PTR _aIndex$[ebp]
  00ac4	52		 push	 edx
  00ac5	e8 00 00 00 00	 call	 ?DataSend@@YAHHPAEK@Z	; DataSend
  00aca	83 c4 0c	 add	 esp, 12			; 0000000cH

; 253  : 		return FALSE;

  00acd	33 c0		 xor	 eax, eax
  00acf	e9 06 05 00 00	 jmp	 $LN29@IllusionTe
$LN18@IllusionTe:

; 254  : 	}
; 255  : 
; 256  : 	if(this->m_IllusionTempleProcess[FloorIndex].GetState() != 0 || this->m_IllusionTempleProcess[FloorIndex].GetOpenStatus() == FALSE)

  00ad4	0f b6 45 0c	 movzx	 eax, BYTE PTR _FloorIndex$[ebp]
  00ad8	69 c0 f0 03 00
	00		 imul	 eax, 1008		; 000003f0H
  00ade	8b 4d fc	 mov	 ecx, DWORD PTR _this$[ebp]
  00ae1	8d 4c 01 08	 lea	 ecx, DWORD PTR [ecx+eax+8]
  00ae5	e8 00 00 00 00	 call	 ?GetState@CIllusionTempleProcess@@QAEEXZ ; CIllusionTempleProcess::GetState
  00aea	0f b6 d0	 movzx	 edx, al
  00aed	85 d2		 test	 edx, edx
  00aef	75 1a		 jne	 SHORT $LN16@IllusionTe
  00af1	0f b6 45 0c	 movzx	 eax, BYTE PTR _FloorIndex$[ebp]
  00af5	69 c0 f0 03 00
	00		 imul	 eax, 1008		; 000003f0H
  00afb	8b 4d fc	 mov	 ecx, DWORD PTR _this$[ebp]
  00afe	8d 4c 01 08	 lea	 ecx, DWORD PTR [ecx+eax+8]
  00b02	e8 00 00 00 00	 call	 ?GetOpenStatus@CIllusionTempleProcess@@QAEHXZ ; CIllusionTempleProcess::GetOpenStatus
  00b07	85 c0		 test	 eax, eax
  00b09	75 20		 jne	 SHORT $LN17@IllusionTe
$LN16@IllusionTe:

; 257  : 	{
; 258  : 		pResult.btResult = 2;

  00b0b	c6 45 f4 02	 mov	 BYTE PTR _pResult$[ebp+4], 2

; 259  : 		DataSend(aIndex,(LPBYTE)&pResult,pResult.h.size);

  00b0f	0f b6 45 f1	 movzx	 eax, BYTE PTR _pResult$[ebp+1]
  00b13	50		 push	 eax
  00b14	8d 4d f0	 lea	 ecx, DWORD PTR _pResult$[ebp]
  00b17	51		 push	 ecx
  00b18	8b 55 08	 mov	 edx, DWORD PTR _aIndex$[ebp]
  00b1b	52		 push	 edx
  00b1c	e8 00 00 00 00	 call	 ?DataSend@@YAHHPAEK@Z	; DataSend
  00b21	83 c4 0c	 add	 esp, 12			; 0000000cH

; 260  : 		return FALSE;

  00b24	33 c0		 xor	 eax, eax
  00b26	e9 af 04 00 00	 jmp	 $LN29@IllusionTe
$LN17@IllusionTe:

; 261  : 	}
; 262  : 
; 263  : 	if(gObj[aIndex].pInventory[TicketPos].IsItem() == TRUE)

  00b2b	8b 45 08	 mov	 eax, DWORD PTR _aIndex$[ebp]
  00b2e	69 c0 38 2b 00
	00		 imul	 eax, 11064		; 00002b38H
  00b34	0f b6 4d 10	 movzx	 ecx, BYTE PTR _TicketPos$[ebp]
  00b38	69 c9 d4 00 00
	00		 imul	 ecx, 212		; 000000d4H
  00b3e	8b 15 00 00 00
	00		 mov	 edx, DWORD PTR ?gObj@@3PAUOBJECTSTRUCT@@A ; gObj
  00b44	03 8c 02 24 0e
	00 00		 add	 ecx, DWORD PTR [edx+eax+3620]
  00b4b	e8 00 00 00 00	 call	 ?IsItem@CItem@@QAEHXZ	; CItem::IsItem
  00b50	83 f8 01	 cmp	 eax, 1
  00b53	0f 85 a7 01 00
	00		 jne	 $LN15@IllusionTe

; 264  : 	{
; 265  : 		if(gObj[aIndex].pInventory[TicketPos].m_Type == ITEMGET(13,51))

  00b59	8b 45 08	 mov	 eax, DWORD PTR _aIndex$[ebp]
  00b5c	69 c0 38 2b 00
	00		 imul	 eax, 11064		; 00002b38H
  00b62	0f b6 4d 10	 movzx	 ecx, BYTE PTR _TicketPos$[ebp]
  00b66	69 c9 d4 00 00
	00		 imul	 ecx, 212		; 000000d4H
  00b6c	8b 15 00 00 00
	00		 mov	 edx, DWORD PTR ?gObj@@3PAUOBJECTSTRUCT@@A ; gObj
  00b72	8b 84 02 24 0e
	00 00		 mov	 eax, DWORD PTR [edx+eax+3620]
  00b79	0f bf 4c 08 06	 movsx	 ecx, WORD PTR [eax+ecx+6]
  00b7e	81 f9 33 1a 00
	00		 cmp	 ecx, 6707		; 00001a33H
  00b84	0f 85 ca 00 00
	00		 jne	 $LN14@IllusionTe

; 266  : 		{
; 267  : 			loc6 = gObj[aIndex].pInventory[TicketPos].m_Level;

  00b8a	8b 45 08	 mov	 eax, DWORD PTR _aIndex$[ebp]
  00b8d	69 c0 38 2b 00
	00		 imul	 eax, 11064		; 00002b38H
  00b93	0f b6 4d 10	 movzx	 ecx, BYTE PTR _TicketPos$[ebp]
  00b97	69 c9 d4 00 00
	00		 imul	 ecx, 212		; 000000d4H
  00b9d	8b 15 00 00 00
	00		 mov	 edx, DWORD PTR ?gObj@@3PAUOBJECTSTRUCT@@A ; gObj
  00ba3	8b 84 02 24 0e
	00 00		 mov	 eax, DWORD PTR [edx+eax+3620]
  00baa	0f bf 4c 08 08	 movsx	 ecx, WORD PTR [eax+ecx+8]
  00baf	89 4d e8	 mov	 DWORD PTR _loc6$[ebp], ecx

; 268  : 			loc7 = gObj[aIndex].pInventory[TicketPos].m_Number;

  00bb2	8b 45 08	 mov	 eax, DWORD PTR _aIndex$[ebp]
  00bb5	69 c0 38 2b 00
	00		 imul	 eax, 11064		; 00002b38H
  00bbb	0f b6 4d 10	 movzx	 ecx, BYTE PTR _TicketPos$[ebp]
  00bbf	69 c9 d4 00 00
	00		 imul	 ecx, 212		; 000000d4H
  00bc5	8b 15 00 00 00
	00		 mov	 edx, DWORD PTR ?gObj@@3PAUOBJECTSTRUCT@@A ; gObj
  00bcb	8b 84 02 24 0e
	00 00		 mov	 eax, DWORD PTR [edx+eax+3620]
  00bd2	8b 0c 01	 mov	 ecx, DWORD PTR [ecx+eax]
  00bd5	89 4d e4	 mov	 DWORD PTR _loc7$[ebp], ecx

; 269  : 
; 270  : 			if(CHECK_LIMIT( loc6-1, MAX_FLOOR_DATA+1 ) == 0 && gObj[aIndex].pInventory[TicketPos].m_Durability != 1.0f)

  00bd8	8b 45 e8	 mov	 eax, DWORD PTR _loc6$[ebp]
  00bdb	83 e8 01	 sub	 eax, 1
  00bde	79 09		 jns	 SHORT $LN33@IllusionTe
  00be0	c7 45 94 00 00
	00 00		 mov	 DWORD PTR tv209[ebp], 0
  00be7	eb 11		 jmp	 SHORT $LN34@IllusionTe
$LN33@IllusionTe:
  00be9	8b 4d e8	 mov	 ecx, DWORD PTR _loc6$[ebp]
  00bec	83 e9 01	 sub	 ecx, 1
  00bef	33 d2		 xor	 edx, edx
  00bf1	83 f9 05	 cmp	 ecx, 5
  00bf4	0f 9e c2	 setle	 dl
  00bf7	89 55 94	 mov	 DWORD PTR tv209[ebp], edx
$LN34@IllusionTe:
  00bfa	83 7d 94 00	 cmp	 DWORD PTR tv209[ebp], 0
  00bfe	75 4f		 jne	 SHORT $LN13@IllusionTe
  00c00	8b 45 08	 mov	 eax, DWORD PTR _aIndex$[ebp]
  00c03	69 c0 38 2b 00
	00		 imul	 eax, 11064		; 00002b38H
  00c09	0f b6 4d 10	 movzx	 ecx, BYTE PTR _TicketPos$[ebp]
  00c0d	69 c9 d4 00 00
	00		 imul	 ecx, 212		; 000000d4H
  00c13	8b 15 00 00 00
	00		 mov	 edx, DWORD PTR ?gObj@@3PAUOBJECTSTRUCT@@A ; gObj
  00c19	8b 84 02 24 0e
	00 00		 mov	 eax, DWORD PTR [edx+eax+3620]
  00c20	d9 44 08 24	 fld	 DWORD PTR [eax+ecx+36]
  00c24	d9 e8		 fld1
  00c26	da e9		 fucompp
  00c28	df e0		 fnstsw	 ax
  00c2a	f6 c4 44	 test	 ah, 68			; 00000044H
  00c2d	7b 20		 jnp	 SHORT $LN13@IllusionTe

; 271  : 			{
; 272  : 				pResult.btResult = 1;

  00c2f	c6 45 f4 01	 mov	 BYTE PTR _pResult$[ebp+4], 1

; 273  : 				DataSend(aIndex,(LPBYTE)&pResult,pResult.h.size);

  00c33	0f b6 45 f1	 movzx	 eax, BYTE PTR _pResult$[ebp+1]
  00c37	50		 push	 eax
  00c38	8d 4d f0	 lea	 ecx, DWORD PTR _pResult$[ebp]
  00c3b	51		 push	 ecx
  00c3c	8b 55 08	 mov	 edx, DWORD PTR _aIndex$[ebp]
  00c3f	52		 push	 edx
  00c40	e8 00 00 00 00	 call	 ?DataSend@@YAHHPAEK@Z	; DataSend
  00c45	83 c4 0c	 add	 esp, 12			; 0000000cH

; 274  : 				return FALSE;

  00c48	33 c0		 xor	 eax, eax
  00c4a	e9 8b 03 00 00	 jmp	 $LN29@IllusionTe
$LN13@IllusionTe:

; 275  : 			}
; 276  : 		}

  00c4f	e9 aa 00 00 00	 jmp	 $LN9@IllusionTe
$LN14@IllusionTe:

; 277  : 		else if(gObj[aIndex].pInventory[TicketPos].m_Type == ITEMGET(13,61))

  00c54	8b 45 08	 mov	 eax, DWORD PTR _aIndex$[ebp]
  00c57	69 c0 38 2b 00
	00		 imul	 eax, 11064		; 00002b38H
  00c5d	0f b6 4d 10	 movzx	 ecx, BYTE PTR _TicketPos$[ebp]
  00c61	69 c9 d4 00 00
	00		 imul	 ecx, 212		; 000000d4H
  00c67	8b 15 00 00 00
	00		 mov	 edx, DWORD PTR ?gObj@@3PAUOBJECTSTRUCT@@A ; gObj
  00c6d	8b 84 02 24 0e
	00 00		 mov	 eax, DWORD PTR [edx+eax+3620]
  00c74	0f bf 4c 08 06	 movsx	 ecx, WORD PTR [eax+ecx+6]
  00c79	81 f9 3d 1a 00
	00		 cmp	 ecx, 6717		; 00001a3dH
  00c7f	75 5d		 jne	 SHORT $LN11@IllusionTe

; 278  : 	{
; 279  : 			loc7 = gObj[aIndex].pInventory[TicketPos].m_Number;

  00c81	8b 45 08	 mov	 eax, DWORD PTR _aIndex$[ebp]
  00c84	69 c0 38 2b 00
	00		 imul	 eax, 11064		; 00002b38H
  00c8a	0f b6 4d 10	 movzx	 ecx, BYTE PTR _TicketPos$[ebp]
  00c8e	69 c9 d4 00 00
	00		 imul	 ecx, 212		; 000000d4H
  00c94	8b 15 00 00 00
	00		 mov	 edx, DWORD PTR ?gObj@@3PAUOBJECTSTRUCT@@A ; gObj
  00c9a	8b 84 02 24 0e
	00 00		 mov	 eax, DWORD PTR [edx+eax+3620]
  00ca1	8b 0c 01	 mov	 ecx, DWORD PTR [ecx+eax]
  00ca4	89 4d e4	 mov	 DWORD PTR _loc7$[ebp], ecx

; 280  : 			loc6 = this->GetEnterLevel(aIndex);

  00ca7	8b 45 08	 mov	 eax, DWORD PTR _aIndex$[ebp]
  00caa	50		 push	 eax
  00cab	8b 4d fc	 mov	 ecx, DWORD PTR _this$[ebp]
  00cae	e8 00 00 00 00	 call	 ?GetEnterLevel@CIllusionTempleEvent@@QAEHH@Z ; CIllusionTempleEvent::GetEnterLevel
  00cb3	89 45 e8	 mov	 DWORD PTR _loc6$[ebp], eax

; 281  : 			
; 282  : 			if(loc6 <= 0)

  00cb6	83 7d e8 00	 cmp	 DWORD PTR _loc6$[ebp], 0
  00cba	7f 20		 jg	 SHORT $LN10@IllusionTe

; 283  : 			{
; 284  : 				pResult.btResult = 1;

  00cbc	c6 45 f4 01	 mov	 BYTE PTR _pResult$[ebp+4], 1

; 285  : 				DataSend(aIndex,(LPBYTE)&pResult,pResult.h.size);

  00cc0	0f b6 45 f1	 movzx	 eax, BYTE PTR _pResult$[ebp+1]
  00cc4	50		 push	 eax
  00cc5	8d 4d f0	 lea	 ecx, DWORD PTR _pResult$[ebp]
  00cc8	51		 push	 ecx
  00cc9	8b 55 08	 mov	 edx, DWORD PTR _aIndex$[ebp]
  00ccc	52		 push	 edx
  00ccd	e8 00 00 00 00	 call	 ?DataSend@@YAHHPAEK@Z	; DataSend
  00cd2	83 c4 0c	 add	 esp, 12			; 0000000cH

; 286  : 				return FALSE;

  00cd5	33 c0		 xor	 eax, eax
  00cd7	e9 fe 02 00 00	 jmp	 $LN29@IllusionTe
$LN10@IllusionTe:

; 287  : 			}
; 288  : 		}
; 289  : 		else

  00cdc	eb 20		 jmp	 SHORT $LN9@IllusionTe
$LN11@IllusionTe:

; 290  : 		{
; 291  : 			pResult.btResult = 1;

  00cde	c6 45 f4 01	 mov	 BYTE PTR _pResult$[ebp+4], 1

; 292  : 			DataSend(aIndex,(LPBYTE)&pResult,pResult.h.size);

  00ce2	0f b6 45 f1	 movzx	 eax, BYTE PTR _pResult$[ebp+1]
  00ce6	50		 push	 eax
  00ce7	8d 4d f0	 lea	 ecx, DWORD PTR _pResult$[ebp]
  00cea	51		 push	 ecx
  00ceb	8b 55 08	 mov	 edx, DWORD PTR _aIndex$[ebp]
  00cee	52		 push	 edx
  00cef	e8 00 00 00 00	 call	 ?DataSend@@YAHHPAEK@Z	; DataSend
  00cf4	83 c4 0c	 add	 esp, 12			; 0000000cH

; 293  : 			return FALSE;

  00cf7	33 c0		 xor	 eax, eax
  00cf9	e9 dc 02 00 00	 jmp	 $LN29@IllusionTe
$LN9@IllusionTe:

; 294  : 		}
; 295  : 	}
; 296  : 	else

  00cfe	eb 20		 jmp	 SHORT $LN8@IllusionTe
$LN15@IllusionTe:

; 297  : 	{
; 298  : 		pResult.btResult = 1;

  00d00	c6 45 f4 01	 mov	 BYTE PTR _pResult$[ebp+4], 1

; 299  : 		DataSend(aIndex,(LPBYTE)&pResult,pResult.h.size);

  00d04	0f b6 45 f1	 movzx	 eax, BYTE PTR _pResult$[ebp+1]
  00d08	50		 push	 eax
  00d09	8d 4d f0	 lea	 ecx, DWORD PTR _pResult$[ebp]
  00d0c	51		 push	 ecx
  00d0d	8b 55 08	 mov	 edx, DWORD PTR _aIndex$[ebp]
  00d10	52		 push	 edx
  00d11	e8 00 00 00 00	 call	 ?DataSend@@YAHHPAEK@Z	; DataSend
  00d16	83 c4 0c	 add	 esp, 12			; 0000000cH

; 300  : 		return FALSE;

  00d19	33 c0		 xor	 eax, eax
  00d1b	e9 ba 02 00 00	 jmp	 $LN29@IllusionTe
$LN8@IllusionTe:

; 301  : 	}
; 302  : 	
; 303  : 	//if(this->EGReqIllusionTempleEnter(aIndex, FloorIndex, TicketPos, loc6) != FALSE)
; 304  : 	//{
; 305  : 	//	return TRUE;
; 306  : 	//}
; 307  : 
; 308  : 	if(this->CheckEnterLevel(aIndex, loc6) == FALSE)

  00d20	8b 45 e8	 mov	 eax, DWORD PTR _loc6$[ebp]
  00d23	50		 push	 eax
  00d24	8b 4d 08	 mov	 ecx, DWORD PTR _aIndex$[ebp]
  00d27	51		 push	 ecx
  00d28	8b 4d fc	 mov	 ecx, DWORD PTR _this$[ebp]
  00d2b	e8 00 00 00 00	 call	 ?CheckEnterLevel@CIllusionTempleEvent@@QAEHHH@Z ; CIllusionTempleEvent::CheckEnterLevel
  00d30	85 c0		 test	 eax, eax
  00d32	75 20		 jne	 SHORT $LN7@IllusionTe

; 309  : 	{
; 310  : 		pResult.btResult = 3;

  00d34	c6 45 f4 03	 mov	 BYTE PTR _pResult$[ebp+4], 3

; 311  : 		DataSend(aIndex,(LPBYTE)&pResult,pResult.h.size);

  00d38	0f b6 45 f1	 movzx	 eax, BYTE PTR _pResult$[ebp+1]
  00d3c	50		 push	 eax
  00d3d	8d 4d f0	 lea	 ecx, DWORD PTR _pResult$[ebp]
  00d40	51		 push	 ecx
  00d41	8b 55 08	 mov	 edx, DWORD PTR _aIndex$[ebp]
  00d44	52		 push	 edx
  00d45	e8 00 00 00 00	 call	 ?DataSend@@YAHHPAEK@Z	; DataSend
  00d4a	83 c4 0c	 add	 esp, 12			; 0000000cH

; 312  : 		return FALSE;

  00d4d	33 c0		 xor	 eax, eax
  00d4f	e9 86 02 00 00	 jmp	 $LN29@IllusionTe
$LN7@IllusionTe:

; 313  : 	}
; 314  : 
; 315  : 	this->m_IllusionTempleProcess[loc6-1].RemoveInvalid();

  00d54	8b 45 e8	 mov	 eax, DWORD PTR _loc6$[ebp]
  00d57	83 e8 01	 sub	 eax, 1
  00d5a	69 c0 f0 03 00
	00		 imul	 eax, 1008		; 000003f0H
  00d60	8b 4d fc	 mov	 ecx, DWORD PTR _this$[ebp]
  00d63	8d 4c 01 08	 lea	 ecx, DWORD PTR [ecx+eax+8]
  00d67	e8 00 00 00 00	 call	 ?RemoveInvalid@CIllusionTempleProcess@@QAEXXZ ; CIllusionTempleProcess::RemoveInvalid

; 316  : 
; 317  : 	loc8 = this->m_IllusionTempleProcess[loc6-1].AddBattleUser(aIndex, FloorIndex, TicketPos);

  00d6c	0f b6 45 10	 movzx	 eax, BYTE PTR _TicketPos$[ebp]
  00d70	50		 push	 eax
  00d71	0f b6 4d 0c	 movzx	 ecx, BYTE PTR _FloorIndex$[ebp]
  00d75	51		 push	 ecx
  00d76	8b 55 08	 mov	 edx, DWORD PTR _aIndex$[ebp]
  00d79	52		 push	 edx
  00d7a	8b 45 e8	 mov	 eax, DWORD PTR _loc6$[ebp]
  00d7d	83 e8 01	 sub	 eax, 1
  00d80	69 c0 f0 03 00
	00		 imul	 eax, 1008		; 000003f0H
  00d86	8b 4d fc	 mov	 ecx, DWORD PTR _this$[ebp]
  00d89	8d 4c 01 08	 lea	 ecx, DWORD PTR [ecx+eax+8]
  00d8d	e8 00 00 00 00	 call	 ?AddBattleUser@CIllusionTempleProcess@@QAEHHEE@Z ; CIllusionTempleProcess::AddBattleUser
  00d92	89 45 e0	 mov	 DWORD PTR _loc8$[ebp], eax

; 318  : 
; 319  : 	if(loc8 == 1)

  00d95	83 7d e0 01	 cmp	 DWORD PTR _loc8$[ebp], 1
  00d99	0f 85 10 02 00
	00		 jne	 $LN6@IllusionTe

; 320  : 	{
; 321  : 		if(lpObj->PartyNumber >= 0)

  00d9f	8b 45 f8	 mov	 eax, DWORD PTR _lpObj$[ebp]
  00da2	83 b8 2c 04 00
	00 00		 cmp	 DWORD PTR [eax+1068], 0
  00da9	7c 42		 jl	 SHORT $LN4@IllusionTe

; 322  : 		{
; 323  : 			loc10 = gParty.GetIndex(lpObj->PartyNumber, lpObj->m_Index, lpObj->DBNumber);

  00dab	8b 45 f8	 mov	 eax, DWORD PTR _lpObj$[ebp]
  00dae	8b 48 2c	 mov	 ecx, DWORD PTR [eax+44]
  00db1	51		 push	 ecx
  00db2	8b 55 f8	 mov	 edx, DWORD PTR _lpObj$[ebp]
  00db5	8b 02		 mov	 eax, DWORD PTR [edx]
  00db7	50		 push	 eax
  00db8	8b 4d f8	 mov	 ecx, DWORD PTR _lpObj$[ebp]
  00dbb	8b 91 2c 04 00
	00		 mov	 edx, DWORD PTR [ecx+1068]
  00dc1	52		 push	 edx
  00dc2	b9 00 00 00 00	 mov	 ecx, OFFSET ?gParty@@3VPartyClass@@A ; gParty
  00dc7	e8 00 00 00 00	 call	 ?GetIndex@PartyClass@@QAEHHHH@Z ; PartyClass::GetIndex
  00dcc	89 45 d8	 mov	 DWORD PTR _loc10$[ebp], eax

; 324  : 
; 325  : 			if(loc10 >= 0)

  00dcf	83 7d d8 00	 cmp	 DWORD PTR _loc10$[ebp], 0
  00dd3	7c 18		 jl	 SHORT $LN4@IllusionTe

; 326  : 			{
; 327  : 				pMsg.Number = loc10;

  00dd5	8a 45 d8	 mov	 al, BYTE PTR _loc10$[ebp]
  00dd8	88 45 df	 mov	 BYTE PTR _pMsg$[ebp+3], al

; 328  : 				CGPartyDelUser(&pMsg, lpObj->m_Index);

  00ddb	8b 45 f8	 mov	 eax, DWORD PTR _lpObj$[ebp]
  00dde	8b 08		 mov	 ecx, DWORD PTR [eax]
  00de0	51		 push	 ecx
  00de1	8d 55 dc	 lea	 edx, DWORD PTR _pMsg$[ebp]
  00de4	52		 push	 edx
  00de5	e8 00 00 00 00	 call	 ?CGPartyDelUser@@YAXPAUPMSG_PARTYDELUSER@@H@Z ; CGPartyDelUser
  00dea	83 c4 08	 add	 esp, 8
$LN4@IllusionTe:

; 329  : 			}
; 330  : 		}
; 331  : 
; 332  : 		if(lpObj->pInventory[TicketPos].m_Type == ITEMGET(13,51) )

  00ded	0f b6 45 10	 movzx	 eax, BYTE PTR _TicketPos$[ebp]
  00df1	69 c0 d4 00 00
	00		 imul	 eax, 212		; 000000d4H
  00df7	8b 4d f8	 mov	 ecx, DWORD PTR _lpObj$[ebp]
  00dfa	8b 91 24 0e 00
	00		 mov	 edx, DWORD PTR [ecx+3620]
  00e00	0f bf 44 02 06	 movsx	 eax, WORD PTR [edx+eax+6]
  00e05	3d 33 1a 00 00	 cmp	 eax, 6707		; 00001a33H
  00e0a	75 67		 jne	 SHORT $LN3@IllusionTe

; 333  : 		{
; 334  : 			lpObj->pInventory[TicketPos].m_Durability = 0;

  00e0c	0f b6 45 10	 movzx	 eax, BYTE PTR _TicketPos$[ebp]
  00e10	69 c0 d4 00 00
	00		 imul	 eax, 212		; 000000d4H
  00e16	8b 4d f8	 mov	 ecx, DWORD PTR _lpObj$[ebp]
  00e19	8b 91 24 0e 00
	00		 mov	 edx, DWORD PTR [ecx+3620]
  00e1f	d9 ee		 fldz
  00e21	d9 5c 02 24	 fstp	 DWORD PTR [edx+eax+36]

; 335  : 			GCItemDurSend(lpObj->m_Index, (BYTE)TicketPos, (BYTE)lpObj->pInventory[TicketPos].m_Durability, 0);

  00e25	6a 00		 push	 0
  00e27	0f b6 45 10	 movzx	 eax, BYTE PTR _TicketPos$[ebp]
  00e2b	69 c0 d4 00 00
	00		 imul	 eax, 212		; 000000d4H
  00e31	8b 4d f8	 mov	 ecx, DWORD PTR _lpObj$[ebp]
  00e34	8b 91 24 0e 00
	00		 mov	 edx, DWORD PTR [ecx+3620]
  00e3a	d9 44 02 24	 fld	 DWORD PTR [edx+eax+36]
  00e3e	d9 7d 96	 fnstcw	 WORD PTR tv506[ebp]
  00e41	0f b7 45 96	 movzx	 eax, WORD PTR tv506[ebp]
  00e45	0d 00 0c 00 00	 or	 eax, 3072		; 00000c00H
  00e4a	89 45 90	 mov	 DWORD PTR tv509[ebp], eax
  00e4d	d9 6d 90	 fldcw	 WORD PTR tv509[ebp]
  00e50	db 5d 8c	 fistp	 DWORD PTR tv511[ebp]
  00e53	d9 6d 96	 fldcw	 WORD PTR tv506[ebp]
  00e56	0f b6 45 8c	 movzx	 eax, BYTE PTR tv511[ebp]
  00e5a	50		 push	 eax
  00e5b	0f b6 4d 10	 movzx	 ecx, BYTE PTR _TicketPos$[ebp]
  00e5f	51		 push	 ecx
  00e60	8b 55 f8	 mov	 edx, DWORD PTR _lpObj$[ebp]
  00e63	8b 02		 mov	 eax, DWORD PTR [edx]
  00e65	50		 push	 eax
  00e66	e8 00 00 00 00	 call	 ?GCItemDurSend@@YAXHEEE@Z ; GCItemDurSend
  00e6b	83 c4 10	 add	 esp, 16			; 00000010H
  00e6e	e9 c4 00 00 00	 jmp	 $LN1@IllusionTe
$LN3@IllusionTe:

; 336  : 		}
; 337  : 		else if(lpObj->pInventory[TicketPos].m_Type == ITEMGET(13,61) && lpObj->pInventory[TicketPos].m_Durability > 0.0f)

  00e73	0f b6 45 10	 movzx	 eax, BYTE PTR _TicketPos$[ebp]
  00e77	69 c0 d4 00 00
	00		 imul	 eax, 212		; 000000d4H
  00e7d	8b 4d f8	 mov	 ecx, DWORD PTR _lpObj$[ebp]
  00e80	8b 91 24 0e 00
	00		 mov	 edx, DWORD PTR [ecx+3620]
  00e86	0f bf 44 02 06	 movsx	 eax, WORD PTR [edx+eax+6]
  00e8b	3d 3d 1a 00 00	 cmp	 eax, 6717		; 00001a3dH
  00e90	0f 85 a1 00 00
	00		 jne	 $LN1@IllusionTe
  00e96	0f b6 45 10	 movzx	 eax, BYTE PTR _TicketPos$[ebp]
  00e9a	69 c0 d4 00 00
	00		 imul	 eax, 212		; 000000d4H
  00ea0	8b 4d f8	 mov	 ecx, DWORD PTR _lpObj$[ebp]
  00ea3	8b 91 24 0e 00
	00		 mov	 edx, DWORD PTR [ecx+3620]
  00ea9	d9 44 02 24	 fld	 DWORD PTR [edx+eax+36]
  00ead	dc 1d 00 00 00
	00		 fcomp	 QWORD PTR __real@0000000000000000
  00eb3	df e0		 fnstsw	 ax
  00eb5	f6 c4 41	 test	 ah, 65			; 00000041H
  00eb8	75 7d		 jne	 SHORT $LN1@IllusionTe

; 338  : 		{
; 339  : 			lpObj->pInventory[TicketPos].m_Durability -= 1.0f;

  00eba	0f b6 45 10	 movzx	 eax, BYTE PTR _TicketPos$[ebp]
  00ebe	69 c0 d4 00 00
	00		 imul	 eax, 212		; 000000d4H
  00ec4	8b 4d f8	 mov	 ecx, DWORD PTR _lpObj$[ebp]
  00ec7	8b 91 24 0e 00
	00		 mov	 edx, DWORD PTR [ecx+3620]
  00ecd	d9 44 02 24	 fld	 DWORD PTR [edx+eax+36]
  00ed1	dc 25 00 00 00
	00		 fsub	 QWORD PTR __real@3ff0000000000000
  00ed7	0f b6 45 10	 movzx	 eax, BYTE PTR _TicketPos$[ebp]
  00edb	69 c0 d4 00 00
	00		 imul	 eax, 212		; 000000d4H
  00ee1	8b 4d f8	 mov	 ecx, DWORD PTR _lpObj$[ebp]
  00ee4	8b 91 24 0e 00
	00		 mov	 edx, DWORD PTR [ecx+3620]
  00eea	d9 5c 02 24	 fstp	 DWORD PTR [edx+eax+36]

; 340  : 			GCItemDurSend(lpObj->m_Index, (BYTE)TicketPos, (BYTE)lpObj->pInventory[TicketPos].m_Durability, 0);

  00eee	6a 00		 push	 0
  00ef0	0f b6 45 10	 movzx	 eax, BYTE PTR _TicketPos$[ebp]
  00ef4	69 c0 d4 00 00
	00		 imul	 eax, 212		; 000000d4H
  00efa	8b 4d f8	 mov	 ecx, DWORD PTR _lpObj$[ebp]
  00efd	8b 91 24 0e 00
	00		 mov	 edx, DWORD PTR [ecx+3620]
  00f03	d9 44 02 24	 fld	 DWORD PTR [edx+eax+36]
  00f07	d9 7d 96	 fnstcw	 WORD PTR tv528[ebp]
  00f0a	0f b7 45 96	 movzx	 eax, WORD PTR tv528[ebp]
  00f0e	0d 00 0c 00 00	 or	 eax, 3072		; 00000c00H
  00f13	89 45 90	 mov	 DWORD PTR tv531[ebp], eax
  00f16	d9 6d 90	 fldcw	 WORD PTR tv531[ebp]
  00f19	db 5d 8c	 fistp	 DWORD PTR tv533[ebp]
  00f1c	d9 6d 96	 fldcw	 WORD PTR tv528[ebp]
  00f1f	0f b6 45 8c	 movzx	 eax, BYTE PTR tv533[ebp]
  00f23	50		 push	 eax
  00f24	0f b6 4d 10	 movzx	 ecx, BYTE PTR _TicketPos$[ebp]
  00f28	51		 push	 ecx
  00f29	8b 55 f8	 mov	 edx, DWORD PTR _lpObj$[ebp]
  00f2c	8b 02		 mov	 eax, DWORD PTR [edx]
  00f2e	50		 push	 eax
  00f2f	e8 00 00 00 00	 call	 ?GCItemDurSend@@YAXHEEE@Z ; GCItemDurSend
  00f34	83 c4 10	 add	 esp, 16			; 00000010H
$LN1@IllusionTe:

; 341  : 		}
; 342  : 
; 343  : 		LogAddTD("[Illusion Temple] (%d) EnterUser: (%s)(%s) class:%d (Serial:%u). PCRoom:%d", loc6, lpObj->AccountID, lpObj->Name, lpObj->DbClass, lpObj->pInventory[TicketPos].m_Number, lpObj->m_iPcBangRoom); //season4 changed

  00f37	8b 45 f8	 mov	 eax, DWORD PTR _lpObj$[ebp]
  00f3a	8b 88 c4 1f 00
	00		 mov	 ecx, DWORD PTR [eax+8132]
  00f40	51		 push	 ecx
  00f41	0f b6 55 10	 movzx	 edx, BYTE PTR _TicketPos$[ebp]
  00f45	69 d2 d4 00 00
	00		 imul	 edx, 212		; 000000d4H
  00f4b	8b 45 f8	 mov	 eax, DWORD PTR _lpObj$[ebp]
  00f4e	8b 88 24 0e 00
	00		 mov	 ecx, DWORD PTR [eax+3620]
  00f54	8b 14 11	 mov	 edx, DWORD PTR [ecx+edx]
  00f57	52		 push	 edx
  00f58	8b 45 f8	 mov	 eax, DWORD PTR _lpObj$[ebp]
  00f5b	0f b6 88 ba 00
	00 00		 movzx	 ecx, BYTE PTR [eax+186]
  00f62	51		 push	 ecx
  00f63	8b 55 f8	 mov	 edx, DWORD PTR _lpObj$[ebp]
  00f66	83 c2 77	 add	 edx, 119		; 00000077H
  00f69	52		 push	 edx
  00f6a	8b 45 f8	 mov	 eax, DWORD PTR _lpObj$[ebp]
  00f6d	83 c0 6c	 add	 eax, 108		; 0000006cH
  00f70	50		 push	 eax
  00f71	8b 4d e8	 mov	 ecx, DWORD PTR _loc6$[ebp]
  00f74	51		 push	 ecx
  00f75	68 00 00 00 00	 push	 OFFSET ??_C@_0EL@LOMGEPMJ@?$FLIllusion?5Temple?$FN?5?$CI?$CFd?$CJ?5EnterUser@
  00f7a	ff 15 00 00 00
	00		 call	 DWORD PTR ?LogAddTD@@3P6AXPADZZA ; LogAddTD
  00f80	83 c4 1c	 add	 esp, 28			; 0000001cH

; 344  : 		DataSend(aIndex,(LPBYTE)&pResult,pResult.h.size);

  00f83	0f b6 45 f1	 movzx	 eax, BYTE PTR _pResult$[ebp+1]
  00f87	50		 push	 eax
  00f88	8d 4d f0	 lea	 ecx, DWORD PTR _pResult$[ebp]
  00f8b	51		 push	 ecx
  00f8c	8b 55 08	 mov	 edx, DWORD PTR _aIndex$[ebp]
  00f8f	52		 push	 edx
  00f90	e8 00 00 00 00	 call	 ?DataSend@@YAHHPAEK@Z	; DataSend
  00f95	83 c4 0c	 add	 esp, 12			; 0000000cH

; 345  : 
; 346  : 		gObjMoveGate(lpObj->m_Index,loc6+141);

  00f98	8b 45 e8	 mov	 eax, DWORD PTR _loc6$[ebp]
  00f9b	05 8d 00 00 00	 add	 eax, 141		; 0000008dH
  00fa0	50		 push	 eax
  00fa1	8b 4d f8	 mov	 ecx, DWORD PTR _lpObj$[ebp]
  00fa4	8b 11		 mov	 edx, DWORD PTR [ecx]
  00fa6	52		 push	 edx
  00fa7	e8 00 00 00 00	 call	 ?gObjMoveGate@@YAHHH@Z	; gObjMoveGate
  00fac	83 c4 08	 add	 esp, 8
$LN6@IllusionTe:

; 347  : 	}
; 348  : 
; 349  : 	this->m_IllusionTempleProcess[FloorIndex].NotifyTempleInfo(0, lpObj->m_Index);

  00faf	8b 45 f8	 mov	 eax, DWORD PTR _lpObj$[ebp]
  00fb2	8b 08		 mov	 ecx, DWORD PTR [eax]
  00fb4	51		 push	 ecx
  00fb5	6a 00		 push	 0
  00fb7	0f b6 55 0c	 movzx	 edx, BYTE PTR _FloorIndex$[ebp]
  00fbb	69 d2 f0 03 00
	00		 imul	 edx, 1008		; 000003f0H
  00fc1	8b 45 fc	 mov	 eax, DWORD PTR _this$[ebp]
  00fc4	8d 4c 10 08	 lea	 ecx, DWORD PTR [eax+edx+8]
  00fc8	e8 00 00 00 00	 call	 ?NotifyTempleInfo@CIllusionTempleProcess@@QAEXEH@Z ; CIllusionTempleProcess::NotifyTempleInfo

; 350  : 	this->NotifyTempleEntranceInfo();

  00fcd	8b 4d fc	 mov	 ecx, DWORD PTR _this$[ebp]
  00fd0	e8 00 00 00 00	 call	 ?NotifyTempleEntranceInfo@CIllusionTempleEvent@@QAEXXZ ; CIllusionTempleEvent::NotifyTempleEntranceInfo

; 351  : 
; 352  : #if(DEBUG_IT == 1)
; 353  : 	GCServerMsgStringSend("CIllusionTempleEvent::IllusionTempleAddUser", lpObj->m_Index, 0);
; 354  : #endif
; 355  : 
; 356  : 	return TRUE;

  00fd5	b8 01 00 00 00	 mov	 eax, 1
$LN29@IllusionTe:

; 357  : }

  00fda	5f		 pop	 edi
  00fdb	5e		 pop	 esi
  00fdc	5b		 pop	 ebx
  00fdd	8b e5		 mov	 esp, ebp
  00fdf	5d		 pop	 ebp
  00fe0	c2 0c 00	 ret	 12			; 0000000cH
?IllusionTempleAddUser@CIllusionTempleEvent@@QAEHHEE@Z ENDP ; CIllusionTempleEvent::IllusionTempleAddUser
; Function compile flags: /Odtp /ZI
; File d:\projects\exteam6.3\source\gameserver\gameserver\illusiontempleprocess.h
_TEXT	ENDS
;	COMDAT ?GetOpenStatus@CIllusionTempleProcess@@QAEHXZ
_TEXT	SEGMENT
_this$ = -4						; size = 4
?GetOpenStatus@CIllusionTempleProcess@@QAEHXZ PROC	; CIllusionTempleProcess::GetOpenStatus, COMDAT
; _this$ = ecx

; 281  : 	BOOL GetOpenStatus(){return this->m_bOpenStatus;}

  00000	55		 push	 ebp
  00001	8b ec		 mov	 ebp, esp
  00003	83 ec 44	 sub	 esp, 68			; 00000044H
  00006	53		 push	 ebx
  00007	56		 push	 esi
  00008	57		 push	 edi
  00009	89 4d fc	 mov	 DWORD PTR _this$[ebp], ecx
  0000c	8b 45 fc	 mov	 eax, DWORD PTR _this$[ebp]
  0000f	8b 80 90 03 00
	00		 mov	 eax, DWORD PTR [eax+912]
  00015	5f		 pop	 edi
  00016	5e		 pop	 esi
  00017	5b		 pop	 ebx
  00018	8b e5		 mov	 esp, ebp
  0001a	5d		 pop	 ebp
  0001b	c3		 ret	 0
?GetOpenStatus@CIllusionTempleProcess@@QAEHXZ ENDP	; CIllusionTempleProcess::GetOpenStatus
_TEXT	ENDS
PUBLIC	__$ArrayPad$
PUBLIC	?EGReqIllusionTempleEnter@CIllusionTempleEvent@@QAEHHEEH@Z ; CIllusionTempleEvent::EGReqIllusionTempleEnter
EXTRN	?DataSendRank@@YAXPADH@Z:PROC			; DataSendRank
EXTRN	?gGameServerCode@@3FA:WORD			; gGameServerCode
EXTRN	_memcpy:PROC
EXTRN	?PHeadSetB@@YAXPAEEH@Z:PROC			; PHeadSetB
EXTRN	?DevilSquareEventConnect@@3HA:DWORD		; DevilSquareEventConnect
; Function compile flags: /Odtp /ZI
; File d:\projects\exteam6.3\source\gameserver\gameserver\illusiontempleevent.cpp
_TEXT	SEGMENT
_pMsg$ = -52						; size = 44
_this$ = -8						; size = 4
__$ArrayPad$ = -4					; size = 4
_aIndex$ = 8						; size = 4
_FloorIndex$ = 12					; size = 1
_TicketPos$ = 16					; size = 1
_Level$ = 20						; size = 4
?EGReqIllusionTempleEnter@CIllusionTempleEvent@@QAEHHEEH@Z PROC ; CIllusionTempleEvent::EGReqIllusionTempleEnter
; _this$ = ecx

; 360  : {

  00ff0	55		 push	 ebp
  00ff1	8b ec		 mov	 ebp, esp
  00ff3	83 ec 74	 sub	 esp, 116		; 00000074H
  00ff6	a1 00 00 00 00	 mov	 eax, DWORD PTR ___security_cookie
  00ffb	33 c5		 xor	 eax, ebp
  00ffd	89 45 fc	 mov	 DWORD PTR __$ArrayPad$[ebp], eax
  01000	53		 push	 ebx
  01001	56		 push	 esi
  01002	57		 push	 edi
  01003	89 4d f8	 mov	 DWORD PTR _this$[ebp], ecx

; 361  : 	if(DevilSquareEventConnect != 0) //season4 changed

  01006	83 3d 00 00 00
	00 00		 cmp	 DWORD PTR ?DevilSquareEventConnect@@3HA, 0 ; DevilSquareEventConnect
  0100d	74 07		 je	 SHORT $LN1@EGReqIllus

; 362  : 	{
; 363  : 		return FALSE;

  0100f	33 c0		 xor	 eax, eax
  01011	e9 8e 00 00 00	 jmp	 $LN2@EGReqIllus
$LN1@EGReqIllus:

; 364  : 	}
; 365  : 
; 366  : 	PMSG_REQ_ILLUSIONTEMPLE_ENTER pMsg;
; 367  : 
; 368  : 	PHeadSetB((LPBYTE)&pMsg, 0x12, sizeof(pMsg));

  01016	6a 2c		 push	 44			; 0000002cH
  01018	6a 12		 push	 18			; 00000012H
  0101a	8d 45 cc	 lea	 eax, DWORD PTR _pMsg$[ebp]
  0101d	50		 push	 eax
  0101e	e8 00 00 00 00	 call	 ?PHeadSetB@@YAXPAEEH@Z	; PHeadSetB
  01023	83 c4 0c	 add	 esp, 12			; 0000000cH

; 369  : 
; 370  : 	memcpy(pMsg.AccountID, gObj[aIndex].AccountID, 10);

  01026	6a 0a		 push	 10			; 0000000aH
  01028	8b 45 08	 mov	 eax, DWORD PTR _aIndex$[ebp]
  0102b	69 c0 38 2b 00
	00		 imul	 eax, 11064		; 00002b38H
  01031	8b 0d 00 00 00
	00		 mov	 ecx, DWORD PTR ?gObj@@3PAUOBJECTSTRUCT@@A ; gObj
  01037	8d 54 01 6c	 lea	 edx, DWORD PTR [ecx+eax+108]
  0103b	52		 push	 edx
  0103c	8d 45 cf	 lea	 eax, DWORD PTR _pMsg$[ebp+3]
  0103f	50		 push	 eax
  01040	e8 00 00 00 00	 call	 _memcpy
  01045	83 c4 0c	 add	 esp, 12			; 0000000cH

; 371  : 	memcpy(pMsg.CharacterName, gObj[aIndex].Name, 10);

  01048	6a 0a		 push	 10			; 0000000aH
  0104a	8b 45 08	 mov	 eax, DWORD PTR _aIndex$[ebp]
  0104d	69 c0 38 2b 00
	00		 imul	 eax, 11064		; 00002b38H
  01053	8b 0d 00 00 00
	00		 mov	 ecx, DWORD PTR ?gObj@@3PAUOBJECTSTRUCT@@A ; gObj
  01059	8d 54 01 77	 lea	 edx, DWORD PTR [ecx+eax+119]
  0105d	52		 push	 edx
  0105e	8d 45 d9	 lea	 eax, DWORD PTR _pMsg$[ebp+13]
  01061	50		 push	 eax
  01062	e8 00 00 00 00	 call	 _memcpy
  01067	83 c4 0c	 add	 esp, 12			; 0000000cH

; 372  : 
; 373  : 	pMsg.ServerCode = gGameServerCode;

  0106a	0f bf 05 00 00
	00 00		 movsx	 eax, WORD PTR ?gGameServerCode@@3FA ; gGameServerCode
  01071	89 45 e4	 mov	 DWORD PTR _pMsg$[ebp+24], eax

; 374  : 	pMsg.Index = aIndex;

  01074	8b 45 08	 mov	 eax, DWORD PTR _aIndex$[ebp]
  01077	89 45 e8	 mov	 DWORD PTR _pMsg$[ebp+28], eax

; 375  : 	pMsg.InventoryTicketPos = TicketPos;

  0107a	0f b6 45 10	 movzx	 eax, BYTE PTR _TicketPos$[ebp]
  0107e	89 45 ec	 mov	 DWORD PTR _pMsg$[ebp+32], eax

; 376  : 	pMsg.Level = Level;

  01081	8b 45 14	 mov	 eax, DWORD PTR _Level$[ebp]
  01084	89 45 f0	 mov	 DWORD PTR _pMsg$[ebp+36], eax

; 377  : 	pMsg.FloorIndex = FloorIndex;

  01087	0f b6 45 0c	 movzx	 eax, BYTE PTR _FloorIndex$[ebp]
  0108b	89 45 f4	 mov	 DWORD PTR _pMsg$[ebp+40], eax

; 378  : 	
; 379  : 	DataSendRank((char *)&pMsg, pMsg.h.size); //season4 changed

  0108e	0f b6 45 cd	 movzx	 eax, BYTE PTR _pMsg$[ebp+1]
  01092	50		 push	 eax
  01093	8d 4d cc	 lea	 ecx, DWORD PTR _pMsg$[ebp]
  01096	51		 push	 ecx
  01097	e8 00 00 00 00	 call	 ?DataSendRank@@YAXPADH@Z ; DataSendRank
  0109c	83 c4 08	 add	 esp, 8

; 380  : 
; 381  : 	return TRUE;

  0109f	b8 01 00 00 00	 mov	 eax, 1
$LN2@EGReqIllus:

; 382  : }

  010a4	5f		 pop	 edi
  010a5	5e		 pop	 esi
  010a6	5b		 pop	 ebx
  010a7	8b 4d fc	 mov	 ecx, DWORD PTR __$ArrayPad$[ebp]
  010aa	33 cd		 xor	 ecx, ebp
  010ac	e8 00 00 00 00	 call	 @__security_check_cookie@4
  010b1	8b e5		 mov	 esp, ebp
  010b3	5d		 pop	 ebp
  010b4	c2 10 00	 ret	 16			; 00000010H
?EGReqIllusionTempleEnter@CIllusionTempleEvent@@QAEHHEEH@Z ENDP ; CIllusionTempleEvent::EGReqIllusionTempleEnter
_TEXT	ENDS
PUBLIC	?EGSetIllusionTempleEnterCount@CIllusionTempleEvent@@QAEXPAUOBJECTSTRUCT@@@Z ; CIllusionTempleEvent::EGSetIllusionTempleEnterCount
PUBLIC	?EGAnsIllusionTempleEnter@CIllusionTempleEvent@@QAEXPAUPMSG_ANS_ILLUSIONTEMPLE_ENTER_RESULT@@@Z ; CIllusionTempleEvent::EGAnsIllusionTempleEnter
; Function compile flags: /Odtp /ZI
_TEXT	SEGMENT
tv517 = -120						; size = 4
tv496 = -120						; size = 4
tv515 = -116						; size = 4
tv494 = -116						; size = 4
tv181 = -112						; size = 4
tv83 = -112						; size = 4
tv76 = -112						; size = 4
tv69 = -112						; size = 4
tv512 = -110						; size = 2
tv491 = -110						; size = 2
_loc10$235735 = -44					; size = 4
_pPartyMsg$ = -40					; size = 4
_loc8$ = -36						; size = 4
_loc7$ = -32						; size = 4
_loc6$ = -28						; size = 4
_pMsg$ = -24						; size = 5
_loc4$ = -16						; size = 4
_loc3$ = -9						; size = 1
_lpObj$ = -8						; size = 4
_this$ = -4						; size = 4
_lpMsg$ = 8						; size = 4
?EGAnsIllusionTempleEnter@CIllusionTempleEvent@@QAEXPAUPMSG_ANS_ILLUSIONTEMPLE_ENTER_RESULT@@@Z PROC ; CIllusionTempleEvent::EGAnsIllusionTempleEnter
; _this$ = ecx

; 385  : {

  010c0	55		 push	 ebp
  010c1	8b ec		 mov	 ebp, esp
  010c3	83 ec 78	 sub	 esp, 120		; 00000078H
  010c6	53		 push	 ebx
  010c7	56		 push	 esi
  010c8	57		 push	 edi
  010c9	89 4d fc	 mov	 DWORD PTR _this$[ebp], ecx

; 386  : 	if( CHECK_LIMIT( (lpMsg->FloorIndex), MAX_FLOOR_DATA+1) == FALSE )

  010cc	8b 45 08	 mov	 eax, DWORD PTR _lpMsg$[ebp]
  010cf	83 78 2c 00	 cmp	 DWORD PTR [eax+44], 0
  010d3	7d 09		 jge	 SHORT $LN24@EGAnsIllus
  010d5	c7 45 90 00 00
	00 00		 mov	 DWORD PTR tv69[ebp], 0
  010dc	eb 0f		 jmp	 SHORT $LN25@EGAnsIllus
$LN24@EGAnsIllus:
  010de	8b 4d 08	 mov	 ecx, DWORD PTR _lpMsg$[ebp]
  010e1	33 d2		 xor	 edx, edx
  010e3	83 79 2c 05	 cmp	 DWORD PTR [ecx+44], 5
  010e7	0f 9e c2	 setle	 dl
  010ea	89 55 90	 mov	 DWORD PTR tv69[ebp], edx
$LN25@EGAnsIllus:
  010ed	83 7d 90 00	 cmp	 DWORD PTR tv69[ebp], 0
  010f1	75 05		 jne	 SHORT $LN21@EGAnsIllus

; 387  : 	{
; 388  : 		return;

  010f3	e9 98 05 00 00	 jmp	 $LN22@EGAnsIllus
$LN21@EGAnsIllus:

; 389  : 	}
; 390  : 
; 391  : 	if( OBJMAX_RANGE(lpMsg->Index) == FALSE )

  010f8	8b 45 08	 mov	 eax, DWORD PTR _lpMsg$[ebp]
  010fb	83 78 1c 00	 cmp	 DWORD PTR [eax+28], 0
  010ff	7d 09		 jge	 SHORT $LN26@EGAnsIllus
  01101	c7 45 90 00 00
	00 00		 mov	 DWORD PTR tv76[ebp], 0
  01108	eb 12		 jmp	 SHORT $LN27@EGAnsIllus
$LN26@EGAnsIllus:
  0110a	8b 4d 08	 mov	 ecx, DWORD PTR _lpMsg$[ebp]
  0110d	33 d2		 xor	 edx, edx
  0110f	81 79 1c 97 3a
	00 00		 cmp	 DWORD PTR [ecx+28], 14999 ; 00003a97H
  01116	0f 9e c2	 setle	 dl
  01119	89 55 90	 mov	 DWORD PTR tv76[ebp], edx
$LN27@EGAnsIllus:
  0111c	83 7d 90 00	 cmp	 DWORD PTR tv76[ebp], 0
  01120	75 05		 jne	 SHORT $LN20@EGAnsIllus

; 392  : 	{
; 393  : 		return;

  01122	e9 69 05 00 00	 jmp	 $LN22@EGAnsIllus
$LN20@EGAnsIllus:

; 394  : 	}
; 395  : 
; 396  : 	if( CHECK_LIMIT( (lpMsg->iPos), 75+1) == FALSE )

  01127	8b 45 08	 mov	 eax, DWORD PTR _lpMsg$[ebp]
  0112a	83 78 24 00	 cmp	 DWORD PTR [eax+36], 0
  0112e	7d 09		 jge	 SHORT $LN28@EGAnsIllus
  01130	c7 45 90 00 00
	00 00		 mov	 DWORD PTR tv83[ebp], 0
  01137	eb 0f		 jmp	 SHORT $LN29@EGAnsIllus
$LN28@EGAnsIllus:
  01139	8b 4d 08	 mov	 ecx, DWORD PTR _lpMsg$[ebp]
  0113c	33 d2		 xor	 edx, edx
  0113e	83 79 24 4b	 cmp	 DWORD PTR [ecx+36], 75	; 0000004bH
  01142	0f 9e c2	 setle	 dl
  01145	89 55 90	 mov	 DWORD PTR tv83[ebp], edx
$LN29@EGAnsIllus:
  01148	83 7d 90 00	 cmp	 DWORD PTR tv83[ebp], 0
  0114c	75 05		 jne	 SHORT $LN19@EGAnsIllus

; 397  : 	{
; 398  : 		return;

  0114e	e9 3d 05 00 00	 jmp	 $LN22@EGAnsIllus
$LN19@EGAnsIllus:

; 399  : 	}
; 400  : 
; 401  : 	LPOBJ lpObj = &gObj[lpMsg->Index];

  01153	8b 45 08	 mov	 eax, DWORD PTR _lpMsg$[ebp]
  01156	8b 48 1c	 mov	 ecx, DWORD PTR [eax+28]
  01159	69 c9 38 2b 00
	00		 imul	 ecx, 11064		; 00002b38H
  0115f	03 0d 00 00 00
	00		 add	 ecx, DWORD PTR ?gObj@@3PAUOBJECTSTRUCT@@A ; gObj
  01165	89 4d f8	 mov	 DWORD PTR _lpObj$[ebp], ecx

; 402  : 	BYTE loc3 = lpMsg->FloorIndex;

  01168	8b 45 08	 mov	 eax, DWORD PTR _lpMsg$[ebp]
  0116b	8a 48 2c	 mov	 cl, BYTE PTR [eax+44]
  0116e	88 4d f7	 mov	 BYTE PTR _loc3$[ebp], cl

; 403  : 	int loc4 = 0;

  01171	c7 45 f0 00 00
	00 00		 mov	 DWORD PTR _loc4$[ebp], 0

; 404  : 	PMSG_SEND_ILLUSION_ENTER_RESULT pMsg;
; 405  : 
; 406  : 
; 407  : 	PHeadSubSetB((LPBYTE)&pMsg, 0xBF, 0x00, sizeof(pMsg));

  01178	6a 05		 push	 5
  0117a	6a 00		 push	 0
  0117c	68 bf 00 00 00	 push	 191			; 000000bfH
  01181	8d 45 e8	 lea	 eax, DWORD PTR _pMsg$[ebp]
  01184	50		 push	 eax
  01185	e8 00 00 00 00	 call	 ?PHeadSubSetB@@YAXPAEEEH@Z ; PHeadSubSetB
  0118a	83 c4 10	 add	 esp, 16			; 00000010H

; 408  : 	pMsg.btResult = 0;

  0118d	c6 45 ec 00	 mov	 BYTE PTR _pMsg$[ebp+4], 0

; 409  : 
; 410  : 	int loc6;
; 411  : 	int loc7;
; 412  : 
; 413  : 	if(lpMsg->IsEntered == 0)

  01191	8b 45 08	 mov	 eax, DWORD PTR _lpMsg$[ebp]
  01194	83 78 20 00	 cmp	 DWORD PTR [eax+32], 0
  01198	75 21		 jne	 SHORT $LN18@EGAnsIllus

; 414  : 	{
; 415  : 		pMsg.btResult = 5;

  0119a	c6 45 ec 05	 mov	 BYTE PTR _pMsg$[ebp+4], 5

; 416  : 		DataSend(lpMsg->Index, (LPBYTE)&pMsg, pMsg.h.size);

  0119e	0f b6 45 e9	 movzx	 eax, BYTE PTR _pMsg$[ebp+1]
  011a2	50		 push	 eax
  011a3	8d 4d e8	 lea	 ecx, DWORD PTR _pMsg$[ebp]
  011a6	51		 push	 ecx
  011a7	8b 55 08	 mov	 edx, DWORD PTR _lpMsg$[ebp]
  011aa	8b 42 1c	 mov	 eax, DWORD PTR [edx+28]
  011ad	50		 push	 eax
  011ae	e8 00 00 00 00	 call	 ?DataSend@@YAHHPAEK@Z	; DataSend
  011b3	83 c4 0c	 add	 esp, 12			; 0000000cH

; 417  : 		return;

  011b6	e9 d5 04 00 00	 jmp	 $LN22@EGAnsIllus
$LN18@EGAnsIllus:

; 418  : 	}
; 419  : 
; 420  : 	if(this->m_IllusionTempleProcess[loc3].GetState() != 0 || this->m_IllusionTempleProcess[loc3].GetOpenStatus() == FALSE)

  011bb	0f b6 45 f7	 movzx	 eax, BYTE PTR _loc3$[ebp]
  011bf	69 c0 f0 03 00
	00		 imul	 eax, 1008		; 000003f0H
  011c5	8b 4d fc	 mov	 ecx, DWORD PTR _this$[ebp]
  011c8	8d 4c 01 08	 lea	 ecx, DWORD PTR [ecx+eax+8]
  011cc	e8 00 00 00 00	 call	 ?GetState@CIllusionTempleProcess@@QAEEXZ ; CIllusionTempleProcess::GetState
  011d1	0f b6 d0	 movzx	 edx, al
  011d4	85 d2		 test	 edx, edx
  011d6	75 1a		 jne	 SHORT $LN16@EGAnsIllus
  011d8	0f b6 45 f7	 movzx	 eax, BYTE PTR _loc3$[ebp]
  011dc	69 c0 f0 03 00
	00		 imul	 eax, 1008		; 000003f0H
  011e2	8b 4d fc	 mov	 ecx, DWORD PTR _this$[ebp]
  011e5	8d 4c 01 08	 lea	 ecx, DWORD PTR [ecx+eax+8]
  011e9	e8 00 00 00 00	 call	 ?GetOpenStatus@CIllusionTempleProcess@@QAEHXZ ; CIllusionTempleProcess::GetOpenStatus
  011ee	85 c0		 test	 eax, eax
  011f0	75 21		 jne	 SHORT $LN17@EGAnsIllus
$LN16@EGAnsIllus:

; 421  : 	{
; 422  : 		pMsg.btResult = 2;

  011f2	c6 45 ec 02	 mov	 BYTE PTR _pMsg$[ebp+4], 2

; 423  : 		DataSend(lpMsg->Index, (LPBYTE)&pMsg, pMsg.h.size);

  011f6	0f b6 45 e9	 movzx	 eax, BYTE PTR _pMsg$[ebp+1]
  011fa	50		 push	 eax
  011fb	8d 4d e8	 lea	 ecx, DWORD PTR _pMsg$[ebp]
  011fe	51		 push	 ecx
  011ff	8b 55 08	 mov	 edx, DWORD PTR _lpMsg$[ebp]
  01202	8b 42 1c	 mov	 eax, DWORD PTR [edx+28]
  01205	50		 push	 eax
  01206	e8 00 00 00 00	 call	 ?DataSend@@YAHHPAEK@Z	; DataSend
  0120b	83 c4 0c	 add	 esp, 12			; 0000000cH

; 424  : 		return;

  0120e	e9 7d 04 00 00	 jmp	 $LN22@EGAnsIllus
$LN17@EGAnsIllus:

; 425  : 	}
; 426  : 
; 427  : 	if(lpObj->pInventory[lpMsg->iPos].IsItem() == TRUE)

  01213	8b 45 08	 mov	 eax, DWORD PTR _lpMsg$[ebp]
  01216	8b 48 24	 mov	 ecx, DWORD PTR [eax+36]
  01219	69 c9 d4 00 00
	00		 imul	 ecx, 212		; 000000d4H
  0121f	8b 55 f8	 mov	 edx, DWORD PTR _lpObj$[ebp]
  01222	03 8a 24 0e 00
	00		 add	 ecx, DWORD PTR [edx+3620]
  01228	e8 00 00 00 00	 call	 ?IsItem@CItem@@QAEHXZ	; CItem::IsItem
  0122d	83 f8 01	 cmp	 eax, 1
  01230	0f 85 97 01 00
	00		 jne	 $LN15@EGAnsIllus

; 428  : 	{
; 429  : 		if(lpObj->pInventory[lpMsg->iPos].m_Type == ITEMGET(13,51))

  01236	8b 45 08	 mov	 eax, DWORD PTR _lpMsg$[ebp]
  01239	8b 48 24	 mov	 ecx, DWORD PTR [eax+36]
  0123c	69 c9 d4 00 00
	00		 imul	 ecx, 212		; 000000d4H
  01242	8b 55 f8	 mov	 edx, DWORD PTR _lpObj$[ebp]
  01245	8b 82 24 0e 00
	00		 mov	 eax, DWORD PTR [edx+3620]
  0124b	0f bf 4c 08 06	 movsx	 ecx, WORD PTR [eax+ecx+6]
  01250	81 f9 33 1a 00
	00		 cmp	 ecx, 6707		; 00001a33H
  01256	0f 85 a5 00 00
	00		 jne	 $LN13@EGAnsIllus

; 430  : 		{
; 431  : 			loc6 = lpObj->pInventory[lpMsg->iPos].m_Level;

  0125c	8b 45 08	 mov	 eax, DWORD PTR _lpMsg$[ebp]
  0125f	8b 48 24	 mov	 ecx, DWORD PTR [eax+36]
  01262	69 c9 d4 00 00
	00		 imul	 ecx, 212		; 000000d4H
  01268	8b 55 f8	 mov	 edx, DWORD PTR _lpObj$[ebp]
  0126b	8b 82 24 0e 00
	00		 mov	 eax, DWORD PTR [edx+3620]
  01271	0f bf 4c 08 08	 movsx	 ecx, WORD PTR [eax+ecx+8]
  01276	89 4d e4	 mov	 DWORD PTR _loc6$[ebp], ecx

; 432  : 			loc7 = lpObj->pInventory[lpMsg->iPos].m_Number;

  01279	8b 45 08	 mov	 eax, DWORD PTR _lpMsg$[ebp]
  0127c	8b 48 24	 mov	 ecx, DWORD PTR [eax+36]
  0127f	69 c9 d4 00 00
	00		 imul	 ecx, 212		; 000000d4H
  01285	8b 55 f8	 mov	 edx, DWORD PTR _lpObj$[ebp]
  01288	8b 82 24 0e 00
	00		 mov	 eax, DWORD PTR [edx+3620]
  0128e	8b 0c 01	 mov	 ecx, DWORD PTR [ecx+eax]
  01291	89 4d e0	 mov	 DWORD PTR _loc7$[ebp], ecx

; 433  : 
; 434  : 			if(CHECK_LIMIT( loc6-1, MAX_FLOOR_DATA+1 ) == 0 && lpObj->pInventory[lpMsg->iPos].m_Durability != 1.0f)

  01294	8b 45 e4	 mov	 eax, DWORD PTR _loc6$[ebp]
  01297	83 e8 01	 sub	 eax, 1
  0129a	79 09		 jns	 SHORT $LN30@EGAnsIllus
  0129c	c7 45 90 00 00
	00 00		 mov	 DWORD PTR tv181[ebp], 0
  012a3	eb 11		 jmp	 SHORT $LN31@EGAnsIllus
$LN30@EGAnsIllus:
  012a5	8b 4d e4	 mov	 ecx, DWORD PTR _loc6$[ebp]
  012a8	83 e9 01	 sub	 ecx, 1
  012ab	33 d2		 xor	 edx, edx
  012ad	83 f9 05	 cmp	 ecx, 5
  012b0	0f 9e c2	 setle	 dl
  012b3	89 55 90	 mov	 DWORD PTR tv181[ebp], edx
$LN31@EGAnsIllus:
  012b6	83 7d 90 00	 cmp	 DWORD PTR tv181[ebp], 0
  012ba	75 45		 jne	 SHORT $LN13@EGAnsIllus
  012bc	8b 45 08	 mov	 eax, DWORD PTR _lpMsg$[ebp]
  012bf	8b 48 24	 mov	 ecx, DWORD PTR [eax+36]
  012c2	69 c9 d4 00 00
	00		 imul	 ecx, 212		; 000000d4H
  012c8	8b 55 f8	 mov	 edx, DWORD PTR _lpObj$[ebp]
  012cb	8b 82 24 0e 00
	00		 mov	 eax, DWORD PTR [edx+3620]
  012d1	d9 44 08 24	 fld	 DWORD PTR [eax+ecx+36]
  012d5	d9 e8		 fld1
  012d7	da e9		 fucompp
  012d9	df e0		 fnstsw	 ax
  012db	f6 c4 44	 test	 ah, 68			; 00000044H
  012de	7b 21		 jnp	 SHORT $LN13@EGAnsIllus

; 435  : 			{
; 436  : 				pMsg.btResult = 1;

  012e0	c6 45 ec 01	 mov	 BYTE PTR _pMsg$[ebp+4], 1

; 437  : 				DataSend(lpMsg->Index, (LPBYTE)&pMsg, pMsg.h.size);

  012e4	0f b6 45 e9	 movzx	 eax, BYTE PTR _pMsg$[ebp+1]
  012e8	50		 push	 eax
  012e9	8d 4d e8	 lea	 ecx, DWORD PTR _pMsg$[ebp]
  012ec	51		 push	 ecx
  012ed	8b 55 08	 mov	 edx, DWORD PTR _lpMsg$[ebp]
  012f0	8b 42 1c	 mov	 eax, DWORD PTR [edx+28]
  012f3	50		 push	 eax
  012f4	e8 00 00 00 00	 call	 ?DataSend@@YAHHPAEK@Z	; DataSend
  012f9	83 c4 0c	 add	 esp, 12			; 0000000cH

; 438  : 				return;

  012fc	e9 8f 03 00 00	 jmp	 $LN22@EGAnsIllus
$LN13@EGAnsIllus:

; 439  : 			}
; 440  : 		}
; 441  : 
; 442  : 		if(lpObj->pInventory[lpMsg->iPos].m_Type == ITEMGET(13,61) && lpObj->pInventory[lpMsg->iPos].m_Durability > 0.0f) //fix the webzen bug

  01301	8b 45 08	 mov	 eax, DWORD PTR _lpMsg$[ebp]
  01304	8b 48 24	 mov	 ecx, DWORD PTR [eax+36]
  01307	69 c9 d4 00 00
	00		 imul	 ecx, 212		; 000000d4H
  0130d	8b 55 f8	 mov	 edx, DWORD PTR _lpObj$[ebp]
  01310	8b 82 24 0e 00
	00		 mov	 eax, DWORD PTR [edx+3620]
  01316	0f bf 4c 08 06	 movsx	 ecx, WORD PTR [eax+ecx+6]
  0131b	81 f9 3d 1a 00
	00		 cmp	 ecx, 6717		; 00001a3dH
  01321	0f 85 83 00 00
	00		 jne	 $LN12@EGAnsIllus
  01327	8b 45 08	 mov	 eax, DWORD PTR _lpMsg$[ebp]
  0132a	8b 48 24	 mov	 ecx, DWORD PTR [eax+36]
  0132d	69 c9 d4 00 00
	00		 imul	 ecx, 212		; 000000d4H
  01333	8b 55 f8	 mov	 edx, DWORD PTR _lpObj$[ebp]
  01336	8b 82 24 0e 00
	00		 mov	 eax, DWORD PTR [edx+3620]
  0133c	d9 44 08 24	 fld	 DWORD PTR [eax+ecx+36]
  01340	dc 1d 00 00 00
	00		 fcomp	 QWORD PTR __real@0000000000000000
  01346	df e0		 fnstsw	 ax
  01348	f6 c4 41	 test	 ah, 65			; 00000041H
  0134b	75 5d		 jne	 SHORT $LN12@EGAnsIllus

; 443  : 		{
; 444  : 			loc7 = lpObj->pInventory[lpMsg->iPos].m_Number;

  0134d	8b 45 08	 mov	 eax, DWORD PTR _lpMsg$[ebp]
  01350	8b 48 24	 mov	 ecx, DWORD PTR [eax+36]
  01353	69 c9 d4 00 00
	00		 imul	 ecx, 212		; 000000d4H
  01359	8b 55 f8	 mov	 edx, DWORD PTR _lpObj$[ebp]
  0135c	8b 82 24 0e 00
	00		 mov	 eax, DWORD PTR [edx+3620]
  01362	8b 0c 01	 mov	 ecx, DWORD PTR [ecx+eax]
  01365	89 4d e0	 mov	 DWORD PTR _loc7$[ebp], ecx

; 445  : 			loc4 = this->GetEnterLevel(lpObj->m_Index);

  01368	8b 45 f8	 mov	 eax, DWORD PTR _lpObj$[ebp]
  0136b	8b 08		 mov	 ecx, DWORD PTR [eax]
  0136d	51		 push	 ecx
  0136e	8b 4d fc	 mov	 ecx, DWORD PTR _this$[ebp]
  01371	e8 00 00 00 00	 call	 ?GetEnterLevel@CIllusionTempleEvent@@QAEHH@Z ; CIllusionTempleEvent::GetEnterLevel
  01376	89 45 f0	 mov	 DWORD PTR _loc4$[ebp], eax

; 446  : 			
; 447  : 			if(loc4 <= 0)

  01379	83 7d f0 00	 cmp	 DWORD PTR _loc4$[ebp], 0
  0137d	7f 23		 jg	 SHORT $LN11@EGAnsIllus

; 448  : 			{
; 449  : 				pMsg.btResult = 3;

  0137f	c6 45 ec 03	 mov	 BYTE PTR _pMsg$[ebp+4], 3

; 450  : 				DataSend(lpMsg->Index, (LPBYTE)&pMsg, pMsg.h.size);

  01383	0f b6 45 e9	 movzx	 eax, BYTE PTR _pMsg$[ebp+1]
  01387	50		 push	 eax
  01388	8d 4d e8	 lea	 ecx, DWORD PTR _pMsg$[ebp]
  0138b	51		 push	 ecx
  0138c	8b 55 08	 mov	 edx, DWORD PTR _lpMsg$[ebp]
  0138f	8b 42 1c	 mov	 eax, DWORD PTR [edx+28]
  01392	50		 push	 eax
  01393	e8 00 00 00 00	 call	 ?DataSend@@YAHHPAEK@Z	; DataSend
  01398	83 c4 0c	 add	 esp, 12			; 0000000cH

; 451  : 				return;

  0139b	e9 f0 02 00 00	 jmp	 $LN22@EGAnsIllus

; 452  : 			}
; 453  : 			else

  013a0	eb 06		 jmp	 SHORT $LN10@EGAnsIllus
$LN11@EGAnsIllus:

; 454  : 			{
; 455  : 				loc6 = loc4;

  013a2	8b 45 f0	 mov	 eax, DWORD PTR _loc4$[ebp]
  013a5	89 45 e4	 mov	 DWORD PTR _loc6$[ebp], eax
$LN10@EGAnsIllus:

; 456  : 			}
; 457  : 		}
; 458  : 		else

  013a8	eb 21		 jmp	 SHORT $LN9@EGAnsIllus
$LN12@EGAnsIllus:

; 459  : 		{
; 460  : 			pMsg.btResult = 1;

  013aa	c6 45 ec 01	 mov	 BYTE PTR _pMsg$[ebp+4], 1

; 461  : 			DataSend(lpMsg->Index, (LPBYTE)&pMsg, pMsg.h.size);

  013ae	0f b6 45 e9	 movzx	 eax, BYTE PTR _pMsg$[ebp+1]
  013b2	50		 push	 eax
  013b3	8d 4d e8	 lea	 ecx, DWORD PTR _pMsg$[ebp]
  013b6	51		 push	 ecx
  013b7	8b 55 08	 mov	 edx, DWORD PTR _lpMsg$[ebp]
  013ba	8b 42 1c	 mov	 eax, DWORD PTR [edx+28]
  013bd	50		 push	 eax
  013be	e8 00 00 00 00	 call	 ?DataSend@@YAHHPAEK@Z	; DataSend
  013c3	83 c4 0c	 add	 esp, 12			; 0000000cH

; 462  : 			return;

  013c6	e9 c5 02 00 00	 jmp	 $LN22@EGAnsIllus
$LN9@EGAnsIllus:

; 463  : 		}
; 464  : 	}
; 465  : 	else

  013cb	eb 21		 jmp	 SHORT $LN8@EGAnsIllus
$LN15@EGAnsIllus:

; 466  : 	{
; 467  : 		pMsg.btResult = 1;

  013cd	c6 45 ec 01	 mov	 BYTE PTR _pMsg$[ebp+4], 1

; 468  : 		DataSend(lpMsg->Index, (LPBYTE)&pMsg, pMsg.h.size);

  013d1	0f b6 45 e9	 movzx	 eax, BYTE PTR _pMsg$[ebp+1]
  013d5	50		 push	 eax
  013d6	8d 4d e8	 lea	 ecx, DWORD PTR _pMsg$[ebp]
  013d9	51		 push	 ecx
  013da	8b 55 08	 mov	 edx, DWORD PTR _lpMsg$[ebp]
  013dd	8b 42 1c	 mov	 eax, DWORD PTR [edx+28]
  013e0	50		 push	 eax
  013e1	e8 00 00 00 00	 call	 ?DataSend@@YAHHPAEK@Z	; DataSend
  013e6	83 c4 0c	 add	 esp, 12			; 0000000cH

; 469  : 		return;

  013e9	e9 a2 02 00 00	 jmp	 $LN22@EGAnsIllus
$LN8@EGAnsIllus:

; 470  : 	}
; 471  : 
; 472  : 	if(this->CheckEnterLevel(lpMsg->Index, loc6) == FALSE)

  013ee	8b 45 e4	 mov	 eax, DWORD PTR _loc6$[ebp]
  013f1	50		 push	 eax
  013f2	8b 4d 08	 mov	 ecx, DWORD PTR _lpMsg$[ebp]
  013f5	8b 51 1c	 mov	 edx, DWORD PTR [ecx+28]
  013f8	52		 push	 edx
  013f9	8b 4d fc	 mov	 ecx, DWORD PTR _this$[ebp]
  013fc	e8 00 00 00 00	 call	 ?CheckEnterLevel@CIllusionTempleEvent@@QAEHHH@Z ; CIllusionTempleEvent::CheckEnterLevel
  01401	85 c0		 test	 eax, eax
  01403	75 21		 jne	 SHORT $LN7@EGAnsIllus

; 473  : 	{
; 474  : 		pMsg.btResult = 3;

  01405	c6 45 ec 03	 mov	 BYTE PTR _pMsg$[ebp+4], 3

; 475  : 		DataSend(lpMsg->Index,(LPBYTE)&pMsg,pMsg.h.size);

  01409	0f b6 45 e9	 movzx	 eax, BYTE PTR _pMsg$[ebp+1]
  0140d	50		 push	 eax
  0140e	8d 4d e8	 lea	 ecx, DWORD PTR _pMsg$[ebp]
  01411	51		 push	 ecx
  01412	8b 55 08	 mov	 edx, DWORD PTR _lpMsg$[ebp]
  01415	8b 42 1c	 mov	 eax, DWORD PTR [edx+28]
  01418	50		 push	 eax
  01419	e8 00 00 00 00	 call	 ?DataSend@@YAHHPAEK@Z	; DataSend
  0141e	83 c4 0c	 add	 esp, 12			; 0000000cH

; 476  : 		return;

  01421	e9 6a 02 00 00	 jmp	 $LN22@EGAnsIllus
$LN7@EGAnsIllus:

; 477  : 	}
; 478  : 
; 479  : 	this->m_IllusionTempleProcess[loc6-1].RemoveInvalid();

  01426	8b 45 e4	 mov	 eax, DWORD PTR _loc6$[ebp]
  01429	83 e8 01	 sub	 eax, 1
  0142c	69 c0 f0 03 00
	00		 imul	 eax, 1008		; 000003f0H
  01432	8b 4d fc	 mov	 ecx, DWORD PTR _this$[ebp]
  01435	8d 4c 01 08	 lea	 ecx, DWORD PTR [ecx+eax+8]
  01439	e8 00 00 00 00	 call	 ?RemoveInvalid@CIllusionTempleProcess@@QAEXXZ ; CIllusionTempleProcess::RemoveInvalid

; 480  : 
; 481  : 	int loc8 = this->m_IllusionTempleProcess[loc6-1].AddBattleUser(lpMsg->Index, loc3, lpMsg->iPos);

  0143e	8b 45 08	 mov	 eax, DWORD PTR _lpMsg$[ebp]
  01441	0f b6 48 24	 movzx	 ecx, BYTE PTR [eax+36]
  01445	51		 push	 ecx
  01446	0f b6 55 f7	 movzx	 edx, BYTE PTR _loc3$[ebp]
  0144a	52		 push	 edx
  0144b	8b 45 08	 mov	 eax, DWORD PTR _lpMsg$[ebp]
  0144e	8b 48 1c	 mov	 ecx, DWORD PTR [eax+28]
  01451	51		 push	 ecx
  01452	8b 55 e4	 mov	 edx, DWORD PTR _loc6$[ebp]
  01455	83 ea 01	 sub	 edx, 1
  01458	69 d2 f0 03 00
	00		 imul	 edx, 1008		; 000003f0H
  0145e	8b 45 fc	 mov	 eax, DWORD PTR _this$[ebp]
  01461	8d 4c 10 08	 lea	 ecx, DWORD PTR [eax+edx+8]
  01465	e8 00 00 00 00	 call	 ?AddBattleUser@CIllusionTempleProcess@@QAEHHEE@Z ; CIllusionTempleProcess::AddBattleUser
  0146a	89 45 dc	 mov	 DWORD PTR _loc8$[ebp], eax

; 482  : 
; 483  : 	PMSG_PARTYDELUSER pPartyMsg;
; 484  : 
; 485  : 	if(loc8 == 1)

  0146d	83 7d dc 01	 cmp	 DWORD PTR _loc8$[ebp], 1
  01471	0f 85 c8 01 00
	00		 jne	 $LN6@EGAnsIllus

; 486  : 	{
; 487  : 		if(lpObj->PartyNumber >= 0)

  01477	8b 45 f8	 mov	 eax, DWORD PTR _lpObj$[ebp]
  0147a	83 b8 2c 04 00
	00 00		 cmp	 DWORD PTR [eax+1068], 0
  01481	7c 42		 jl	 SHORT $LN4@EGAnsIllus

; 488  : 		{
; 489  : 			int loc10 = gParty.GetIndex(lpObj->PartyNumber, lpObj->m_Index, lpObj->DBNumber);

  01483	8b 45 f8	 mov	 eax, DWORD PTR _lpObj$[ebp]
  01486	8b 48 2c	 mov	 ecx, DWORD PTR [eax+44]
  01489	51		 push	 ecx
  0148a	8b 55 f8	 mov	 edx, DWORD PTR _lpObj$[ebp]
  0148d	8b 02		 mov	 eax, DWORD PTR [edx]
  0148f	50		 push	 eax
  01490	8b 4d f8	 mov	 ecx, DWORD PTR _lpObj$[ebp]
  01493	8b 91 2c 04 00
	00		 mov	 edx, DWORD PTR [ecx+1068]
  01499	52		 push	 edx
  0149a	b9 00 00 00 00	 mov	 ecx, OFFSET ?gParty@@3VPartyClass@@A ; gParty
  0149f	e8 00 00 00 00	 call	 ?GetIndex@PartyClass@@QAEHHHH@Z ; PartyClass::GetIndex
  014a4	89 45 d4	 mov	 DWORD PTR _loc10$235735[ebp], eax

; 490  : 
; 491  : 			if(loc10 >= 0) //ebp28

  014a7	83 7d d4 00	 cmp	 DWORD PTR _loc10$235735[ebp], 0
  014ab	7c 18		 jl	 SHORT $LN4@EGAnsIllus

; 492  : 			{
; 493  : 				
; 494  : 				pPartyMsg.Number = loc10; //Index

  014ad	8a 45 d4	 mov	 al, BYTE PTR _loc10$235735[ebp]
  014b0	88 45 db	 mov	 BYTE PTR _pPartyMsg$[ebp+3], al

; 495  : 				CGPartyDelUser(&pPartyMsg, lpObj->m_Index);

  014b3	8b 45 f8	 mov	 eax, DWORD PTR _lpObj$[ebp]
  014b6	8b 08		 mov	 ecx, DWORD PTR [eax]
  014b8	51		 push	 ecx
  014b9	8d 55 d8	 lea	 edx, DWORD PTR _pPartyMsg$[ebp]
  014bc	52		 push	 edx
  014bd	e8 00 00 00 00	 call	 ?CGPartyDelUser@@YAXPAUPMSG_PARTYDELUSER@@H@Z ; CGPartyDelUser
  014c2	83 c4 08	 add	 esp, 8
$LN4@EGAnsIllus:

; 496  : 			}
; 497  : 		}
; 498  : 
; 499  : 		if(loc4 != 0)

  014c5	83 7d f0 00	 cmp	 DWORD PTR _loc4$[ebp], 0
  014c9	0f 84 88 00 00
	00		 je	 $LN3@EGAnsIllus

; 500  : 		{
; 501  : 			lpObj->pInventory[lpMsg->iPos].m_Durability -= 1.0f;

  014cf	8b 45 08	 mov	 eax, DWORD PTR _lpMsg$[ebp]
  014d2	8b 48 24	 mov	 ecx, DWORD PTR [eax+36]
  014d5	69 c9 d4 00 00
	00		 imul	 ecx, 212		; 000000d4H
  014db	8b 55 f8	 mov	 edx, DWORD PTR _lpObj$[ebp]
  014de	8b 82 24 0e 00
	00		 mov	 eax, DWORD PTR [edx+3620]
  014e4	d9 44 08 24	 fld	 DWORD PTR [eax+ecx+36]
  014e8	dc 25 00 00 00
	00		 fsub	 QWORD PTR __real@3ff0000000000000
  014ee	8b 4d 08	 mov	 ecx, DWORD PTR _lpMsg$[ebp]
  014f1	8b 51 24	 mov	 edx, DWORD PTR [ecx+36]
  014f4	69 d2 d4 00 00
	00		 imul	 edx, 212		; 000000d4H
  014fa	8b 45 f8	 mov	 eax, DWORD PTR _lpObj$[ebp]
  014fd	8b 88 24 0e 00
	00		 mov	 ecx, DWORD PTR [eax+3620]
  01503	d9 5c 11 24	 fstp	 DWORD PTR [ecx+edx+36]

; 502  : 			GCItemDurSend(lpObj->m_Index, (BYTE)lpMsg->iPos, (BYTE)lpObj->pInventory[lpMsg->iPos].m_Durability, 0);

  01507	6a 00		 push	 0
  01509	8b 45 08	 mov	 eax, DWORD PTR _lpMsg$[ebp]
  0150c	8b 48 24	 mov	 ecx, DWORD PTR [eax+36]
  0150f	69 c9 d4 00 00
	00		 imul	 ecx, 212		; 000000d4H
  01515	8b 55 f8	 mov	 edx, DWORD PTR _lpObj$[ebp]
  01518	8b 82 24 0e 00
	00		 mov	 eax, DWORD PTR [edx+3620]
  0151e	d9 44 08 24	 fld	 DWORD PTR [eax+ecx+36]
  01522	d9 7d 92	 fnstcw	 WORD PTR tv491[ebp]
  01525	0f b7 45 92	 movzx	 eax, WORD PTR tv491[ebp]
  01529	0d 00 0c 00 00	 or	 eax, 3072		; 00000c00H
  0152e	89 45 8c	 mov	 DWORD PTR tv494[ebp], eax
  01531	d9 6d 8c	 fldcw	 WORD PTR tv494[ebp]
  01534	db 5d 88	 fistp	 DWORD PTR tv496[ebp]
  01537	d9 6d 92	 fldcw	 WORD PTR tv491[ebp]
  0153a	0f b6 4d 88	 movzx	 ecx, BYTE PTR tv496[ebp]
  0153e	51		 push	 ecx
  0153f	8b 55 08	 mov	 edx, DWORD PTR _lpMsg$[ebp]
  01542	0f b6 42 24	 movzx	 eax, BYTE PTR [edx+36]
  01546	50		 push	 eax
  01547	8b 4d f8	 mov	 ecx, DWORD PTR _lpObj$[ebp]
  0154a	8b 11		 mov	 edx, DWORD PTR [ecx]
  0154c	52		 push	 edx
  0154d	e8 00 00 00 00	 call	 ?GCItemDurSend@@YAXHEEE@Z ; GCItemDurSend
  01552	83 c4 10	 add	 esp, 16			; 00000010H

; 503  : 		}
; 504  : 		else

  01555	eb 69		 jmp	 SHORT $LN2@EGAnsIllus
$LN3@EGAnsIllus:

; 505  : 		{
; 506  : 			lpObj->pInventory[lpMsg->iPos].m_Durability = 0;

  01557	8b 45 08	 mov	 eax, DWORD PTR _lpMsg$[ebp]
  0155a	8b 48 24	 mov	 ecx, DWORD PTR [eax+36]
  0155d	69 c9 d4 00 00
	00		 imul	 ecx, 212		; 000000d4H
  01563	8b 55 f8	 mov	 edx, DWORD PTR _lpObj$[ebp]
  01566	8b 82 24 0e 00
	00		 mov	 eax, DWORD PTR [edx+3620]
  0156c	d9 ee		 fldz
  0156e	d9 5c 08 24	 fstp	 DWORD PTR [eax+ecx+36]

; 507  : 			GCItemDurSend(lpObj->m_Index, (BYTE)lpMsg->iPos, (BYTE)lpObj->pInventory[lpMsg->iPos].m_Durability, 0);

  01572	6a 00		 push	 0
  01574	8b 45 08	 mov	 eax, DWORD PTR _lpMsg$[ebp]
  01577	8b 48 24	 mov	 ecx, DWORD PTR [eax+36]
  0157a	69 c9 d4 00 00
	00		 imul	 ecx, 212		; 000000d4H
  01580	8b 55 f8	 mov	 edx, DWORD PTR _lpObj$[ebp]
  01583	8b 82 24 0e 00
	00		 mov	 eax, DWORD PTR [edx+3620]
  01589	d9 44 08 24	 fld	 DWORD PTR [eax+ecx+36]
  0158d	d9 7d 92	 fnstcw	 WORD PTR tv512[ebp]
  01590	0f b7 45 92	 movzx	 eax, WORD PTR tv512[ebp]
  01594	0d 00 0c 00 00	 or	 eax, 3072		; 00000c00H
  01599	89 45 8c	 mov	 DWORD PTR tv515[ebp], eax
  0159c	d9 6d 8c	 fldcw	 WORD PTR tv515[ebp]
  0159f	db 5d 88	 fistp	 DWORD PTR tv517[ebp]
  015a2	d9 6d 92	 fldcw	 WORD PTR tv512[ebp]
  015a5	0f b6 4d 88	 movzx	 ecx, BYTE PTR tv517[ebp]
  015a9	51		 push	 ecx
  015aa	8b 55 08	 mov	 edx, DWORD PTR _lpMsg$[ebp]
  015ad	0f b6 42 24	 movzx	 eax, BYTE PTR [edx+36]
  015b1	50		 push	 eax
  015b2	8b 4d f8	 mov	 ecx, DWORD PTR _lpObj$[ebp]
  015b5	8b 11		 mov	 edx, DWORD PTR [ecx]
  015b7	52		 push	 edx
  015b8	e8 00 00 00 00	 call	 ?GCItemDurSend@@YAXHEEE@Z ; GCItemDurSend
  015bd	83 c4 10	 add	 esp, 16			; 00000010H
$LN2@EGAnsIllus:

; 508  : 		}
; 509  : 
; 510  : 		LogAddTD("[Illusion Temple] (%d) EnterUser: (%s)(%s) class:%d (Serial:%u). PCRoom:%d", loc6, lpObj->AccountID, lpObj->Name, lpObj->DbClass, lpObj->pInventory[lpMsg->iPos].m_Number, lpObj->m_iPcBangRoom); //season4 changed

  015c0	8b 45 f8	 mov	 eax, DWORD PTR _lpObj$[ebp]
  015c3	8b 88 c4 1f 00
	00		 mov	 ecx, DWORD PTR [eax+8132]
  015c9	51		 push	 ecx
  015ca	8b 55 08	 mov	 edx, DWORD PTR _lpMsg$[ebp]
  015cd	8b 42 24	 mov	 eax, DWORD PTR [edx+36]
  015d0	69 c0 d4 00 00
	00		 imul	 eax, 212		; 000000d4H
  015d6	8b 4d f8	 mov	 ecx, DWORD PTR _lpObj$[ebp]
  015d9	8b 91 24 0e 00
	00		 mov	 edx, DWORD PTR [ecx+3620]
  015df	8b 04 02	 mov	 eax, DWORD PTR [edx+eax]
  015e2	50		 push	 eax
  015e3	8b 4d f8	 mov	 ecx, DWORD PTR _lpObj$[ebp]
  015e6	0f b6 91 ba 00
	00 00		 movzx	 edx, BYTE PTR [ecx+186]
  015ed	52		 push	 edx
  015ee	8b 45 f8	 mov	 eax, DWORD PTR _lpObj$[ebp]
  015f1	83 c0 77	 add	 eax, 119		; 00000077H
  015f4	50		 push	 eax
  015f5	8b 4d f8	 mov	 ecx, DWORD PTR _lpObj$[ebp]
  015f8	83 c1 6c	 add	 ecx, 108		; 0000006cH
  015fb	51		 push	 ecx
  015fc	8b 55 e4	 mov	 edx, DWORD PTR _loc6$[ebp]
  015ff	52		 push	 edx
  01600	68 00 00 00 00	 push	 OFFSET ??_C@_0EL@LOMGEPMJ@?$FLIllusion?5Temple?$FN?5?$CI?$CFd?$CJ?5EnterUser@
  01605	ff 15 00 00 00
	00		 call	 DWORD PTR ?LogAddTD@@3P6AXPADZZA ; LogAddTD
  0160b	83 c4 1c	 add	 esp, 28			; 0000001cH

; 511  : 		DataSend(lpMsg->Index,(LPBYTE)&pMsg,pMsg.h.size);

  0160e	0f b6 45 e9	 movzx	 eax, BYTE PTR _pMsg$[ebp+1]
  01612	50		 push	 eax
  01613	8d 4d e8	 lea	 ecx, DWORD PTR _pMsg$[ebp]
  01616	51		 push	 ecx
  01617	8b 55 08	 mov	 edx, DWORD PTR _lpMsg$[ebp]
  0161a	8b 42 1c	 mov	 eax, DWORD PTR [edx+28]
  0161d	50		 push	 eax
  0161e	e8 00 00 00 00	 call	 ?DataSend@@YAHHPAEK@Z	; DataSend
  01623	83 c4 0c	 add	 esp, 12			; 0000000cH

; 512  : 
; 513  : 		gObjMoveGate(lpObj->m_Index,loc6+141);

  01626	8b 45 e4	 mov	 eax, DWORD PTR _loc6$[ebp]
  01629	05 8d 00 00 00	 add	 eax, 141		; 0000008dH
  0162e	50		 push	 eax
  0162f	8b 4d f8	 mov	 ecx, DWORD PTR _lpObj$[ebp]
  01632	8b 11		 mov	 edx, DWORD PTR [ecx]
  01634	52		 push	 edx
  01635	e8 00 00 00 00	 call	 ?gObjMoveGate@@YAHHH@Z	; gObjMoveGate
  0163a	83 c4 08	 add	 esp, 8

; 514  : 	}
; 515  : 	else

  0163d	eb 1e		 jmp	 SHORT $LN1@EGAnsIllus
$LN6@EGAnsIllus:

; 516  : 	{
; 517  : 		pMsg.btResult = 4;

  0163f	c6 45 ec 04	 mov	 BYTE PTR _pMsg$[ebp+4], 4

; 518  : 		DataSend(lpMsg->Index,(LPBYTE)&pMsg,pMsg.h.size);

  01643	0f b6 45 e9	 movzx	 eax, BYTE PTR _pMsg$[ebp+1]
  01647	50		 push	 eax
  01648	8d 4d e8	 lea	 ecx, DWORD PTR _pMsg$[ebp]
  0164b	51		 push	 ecx
  0164c	8b 55 08	 mov	 edx, DWORD PTR _lpMsg$[ebp]
  0164f	8b 42 1c	 mov	 eax, DWORD PTR [edx+28]
  01652	50		 push	 eax
  01653	e8 00 00 00 00	 call	 ?DataSend@@YAHHPAEK@Z	; DataSend
  01658	83 c4 0c	 add	 esp, 12			; 0000000cH

; 519  : 		return;

  0165b	eb 33		 jmp	 SHORT $LN22@EGAnsIllus
$LN1@EGAnsIllus:

; 520  : 	}
; 521  : 
; 522  : 	this->m_IllusionTempleProcess[loc3].NotifyTempleInfo(0, lpMsg->Index);

  0165d	8b 45 08	 mov	 eax, DWORD PTR _lpMsg$[ebp]
  01660	8b 48 1c	 mov	 ecx, DWORD PTR [eax+28]
  01663	51		 push	 ecx
  01664	6a 00		 push	 0
  01666	0f b6 55 f7	 movzx	 edx, BYTE PTR _loc3$[ebp]
  0166a	69 d2 f0 03 00
	00		 imul	 edx, 1008		; 000003f0H
  01670	8b 45 fc	 mov	 eax, DWORD PTR _this$[ebp]
  01673	8d 4c 10 08	 lea	 ecx, DWORD PTR [eax+edx+8]
  01677	e8 00 00 00 00	 call	 ?NotifyTempleInfo@CIllusionTempleProcess@@QAEXEH@Z ; CIllusionTempleProcess::NotifyTempleInfo

; 523  : 	this->NotifyTempleEntranceInfo();

  0167c	8b 4d fc	 mov	 ecx, DWORD PTR _this$[ebp]
  0167f	e8 00 00 00 00	 call	 ?NotifyTempleEntranceInfo@CIllusionTempleEvent@@QAEXXZ ; CIllusionTempleEvent::NotifyTempleEntranceInfo

; 524  : 	this->EGSetIllusionTempleEnterCount(lpObj);

  01684	8b 45 f8	 mov	 eax, DWORD PTR _lpObj$[ebp]
  01687	50		 push	 eax
  01688	8b 4d fc	 mov	 ecx, DWORD PTR _this$[ebp]
  0168b	e8 00 00 00 00	 call	 ?EGSetIllusionTempleEnterCount@CIllusionTempleEvent@@QAEXPAUOBJECTSTRUCT@@@Z ; CIllusionTempleEvent::EGSetIllusionTempleEnterCount
$LN22@EGAnsIllus:

; 525  : 
; 526  : #if(DEBUG_IT == 1)
; 527  : 	GCServerMsgStringSend("CIllusionTempleEvent::EGAnsIllusionTempleEnter", lpObj->m_Index, 0);
; 528  : #endif
; 529  : }

  01690	5f		 pop	 edi
  01691	5e		 pop	 esi
  01692	5b		 pop	 ebx
  01693	8b e5		 mov	 esp, ebp
  01695	5d		 pop	 ebp
  01696	c2 04 00	 ret	 4
?EGAnsIllusionTempleEnter@CIllusionTempleEvent@@QAEXPAUPMSG_ANS_ILLUSIONTEMPLE_ENTER_RESULT@@@Z ENDP ; CIllusionTempleEvent::EGAnsIllusionTempleEnter
_TEXT	ENDS
PUBLIC	__$ArrayPad$
; Function compile flags: /Odtp /ZI
_TEXT	SEGMENT
_pMsg$ = -36						; size = 28
_this$ = -8						; size = 4
__$ArrayPad$ = -4					; size = 4
_lpObj$ = 8						; size = 4
?EGSetIllusionTempleEnterCount@CIllusionTempleEvent@@QAEXPAUOBJECTSTRUCT@@@Z PROC ; CIllusionTempleEvent::EGSetIllusionTempleEnterCount
; _this$ = ecx

; 532  : {

  016a0	55		 push	 ebp
  016a1	8b ec		 mov	 ebp, esp
  016a3	83 ec 64	 sub	 esp, 100		; 00000064H
  016a6	a1 00 00 00 00	 mov	 eax, DWORD PTR ___security_cookie
  016ab	33 c5		 xor	 eax, ebp
  016ad	89 45 fc	 mov	 DWORD PTR __$ArrayPad$[ebp], eax
  016b0	53		 push	 ebx
  016b1	56		 push	 esi
  016b2	57		 push	 edi
  016b3	89 4d f8	 mov	 DWORD PTR _this$[ebp], ecx

; 533  : 	PMSG_REQ_ILLUSIONTEMPLE_ENTER_RESULT pMsg;
; 534  : 
; 535  : 	PHeadSetB((LPBYTE)&pMsg, 0x13, sizeof(pMsg));

  016b6	6a 1c		 push	 28			; 0000001cH
  016b8	6a 13		 push	 19			; 00000013H
  016ba	8d 45 dc	 lea	 eax, DWORD PTR _pMsg$[ebp]
  016bd	50		 push	 eax
  016be	e8 00 00 00 00	 call	 ?PHeadSetB@@YAXPAEEH@Z	; PHeadSetB
  016c3	83 c4 0c	 add	 esp, 12			; 0000000cH

; 536  : 
; 537  : 	memcpy(pMsg.AccountID, lpObj->AccountID, 10);

  016c6	6a 0a		 push	 10			; 0000000aH
  016c8	8b 45 08	 mov	 eax, DWORD PTR _lpObj$[ebp]
  016cb	83 c0 6c	 add	 eax, 108		; 0000006cH
  016ce	50		 push	 eax
  016cf	8d 4d df	 lea	 ecx, DWORD PTR _pMsg$[ebp+3]
  016d2	51		 push	 ecx
  016d3	e8 00 00 00 00	 call	 _memcpy
  016d8	83 c4 0c	 add	 esp, 12			; 0000000cH

; 538  : 	memcpy(pMsg.CharacterName, lpObj->Name, 10);

  016db	6a 0a		 push	 10			; 0000000aH
  016dd	8b 45 08	 mov	 eax, DWORD PTR _lpObj$[ebp]
  016e0	83 c0 77	 add	 eax, 119		; 00000077H
  016e3	50		 push	 eax
  016e4	8d 4d e9	 lea	 ecx, DWORD PTR _pMsg$[ebp+13]
  016e7	51		 push	 ecx
  016e8	e8 00 00 00 00	 call	 _memcpy
  016ed	83 c4 0c	 add	 esp, 12			; 0000000cH

; 539  : 	pMsg.ServerCode = gGameServerCode;

  016f0	0f bf 05 00 00
	00 00		 movsx	 eax, WORD PTR ?gGameServerCode@@3FA ; gGameServerCode
  016f7	89 45 f4	 mov	 DWORD PTR _pMsg$[ebp+24], eax

; 540  : 	
; 541  : 	DataSendRank((char *)&pMsg, pMsg.h.size); //season4 changed

  016fa	0f b6 45 dd	 movzx	 eax, BYTE PTR _pMsg$[ebp+1]
  016fe	50		 push	 eax
  016ff	8d 4d dc	 lea	 ecx, DWORD PTR _pMsg$[ebp]
  01702	51		 push	 ecx
  01703	e8 00 00 00 00	 call	 ?DataSendRank@@YAXPADH@Z ; DataSendRank
  01708	83 c4 08	 add	 esp, 8

; 542  : }

  0170b	5f		 pop	 edi
  0170c	5e		 pop	 esi
  0170d	5b		 pop	 ebx
  0170e	8b 4d fc	 mov	 ecx, DWORD PTR __$ArrayPad$[ebp]
  01711	33 cd		 xor	 ecx, ebp
  01713	e8 00 00 00 00	 call	 @__security_check_cookie@4
  01718	8b e5		 mov	 esp, ebp
  0171a	5d		 pop	 ebp
  0171b	c2 04 00	 ret	 4
?EGSetIllusionTempleEnterCount@CIllusionTempleEvent@@QAEXPAUOBJECTSTRUCT@@@Z ENDP ; CIllusionTempleEvent::EGSetIllusionTempleEnterCount
_TEXT	ENDS
PUBLIC	?BattleDeleteUser@CIllusionTempleEvent@@QAEHHE@Z ; CIllusionTempleEvent::BattleDeleteUser
EXTRN	?LeaveBattleUser@CIllusionTempleProcess@@QAEHH@Z:PROC ; CIllusionTempleProcess::LeaveBattleUser
; Function compile flags: /Odtp /ZI
_TEXT	SEGMENT
tv71 = -72						; size = 4
_this$ = -4						; size = 4
_aIndex$ = 8						; size = 4
_MapNumber$ = 12					; size = 1
?BattleDeleteUser@CIllusionTempleEvent@@QAEHHE@Z PROC	; CIllusionTempleEvent::BattleDeleteUser
; _this$ = ecx

; 545  : {

  01720	55		 push	 ebp
  01721	8b ec		 mov	 ebp, esp
  01723	83 ec 48	 sub	 esp, 72			; 00000048H
  01726	53		 push	 ebx
  01727	56		 push	 esi
  01728	57		 push	 edi
  01729	89 4d fc	 mov	 DWORD PTR _this$[ebp], ecx

; 546  : 	if( CHECK_LIMIT( (MapNumber - MAP_INDEX_ILLUSIONTEMPLE_MIN), MAX_FLOOR_DATA+1) == FALSE )

  0172c	0f b6 45 0c	 movzx	 eax, BYTE PTR _MapNumber$[ebp]
  01730	83 e8 2d	 sub	 eax, 45			; 0000002dH
  01733	79 09		 jns	 SHORT $LN4@BattleDele
  01735	c7 45 b8 00 00
	00 00		 mov	 DWORD PTR tv71[ebp], 0
  0173c	eb 12		 jmp	 SHORT $LN5@BattleDele
$LN4@BattleDele:
  0173e	0f b6 4d 0c	 movzx	 ecx, BYTE PTR _MapNumber$[ebp]
  01742	83 e9 2d	 sub	 ecx, 45			; 0000002dH
  01745	33 d2		 xor	 edx, edx
  01747	83 f9 05	 cmp	 ecx, 5
  0174a	0f 9e c2	 setle	 dl
  0174d	89 55 b8	 mov	 DWORD PTR tv71[ebp], edx
$LN5@BattleDele:
  01750	83 7d b8 00	 cmp	 DWORD PTR tv71[ebp], 0
  01754	75 04		 jne	 SHORT $LN1@BattleDele

; 547  : 	{
; 548  : 		return FALSE;

  01756	33 c0		 xor	 eax, eax
  01758	eb 2a		 jmp	 SHORT $LN2@BattleDele
$LN1@BattleDele:

; 549  : 	}
; 550  : 
; 551  : 	this->m_IllusionTempleProcess[MapNumber - MAP_INDEX_ILLUSIONTEMPLE_MIN].LeaveBattleUser(aIndex);

  0175a	8b 45 08	 mov	 eax, DWORD PTR _aIndex$[ebp]
  0175d	50		 push	 eax
  0175e	0f b6 4d 0c	 movzx	 ecx, BYTE PTR _MapNumber$[ebp]
  01762	83 e9 2d	 sub	 ecx, 45			; 0000002dH
  01765	69 c9 f0 03 00
	00		 imul	 ecx, 1008		; 000003f0H
  0176b	8b 55 fc	 mov	 edx, DWORD PTR _this$[ebp]
  0176e	8d 4c 0a 08	 lea	 ecx, DWORD PTR [edx+ecx+8]
  01772	e8 00 00 00 00	 call	 ?LeaveBattleUser@CIllusionTempleProcess@@QAEHH@Z ; CIllusionTempleProcess::LeaveBattleUser

; 552  : 	this->NotifyTempleEntranceInfo();

  01777	8b 4d fc	 mov	 ecx, DWORD PTR _this$[ebp]
  0177a	e8 00 00 00 00	 call	 ?NotifyTempleEntranceInfo@CIllusionTempleEvent@@QAEXXZ ; CIllusionTempleEvent::NotifyTempleEntranceInfo

; 553  : 
; 554  : 	return TRUE;

  0177f	b8 01 00 00 00	 mov	 eax, 1
$LN2@BattleDele:

; 555  : }

  01784	5f		 pop	 edi
  01785	5e		 pop	 esi
  01786	5b		 pop	 ebx
  01787	8b e5		 mov	 esp, ebp
  01789	5d		 pop	 ebp
  0178a	c2 08 00	 ret	 8
?BattleDeleteUser@CIllusionTempleEvent@@QAEHHE@Z ENDP	; CIllusionTempleEvent::BattleDeleteUser
; Function compile flags: /Odtp /ZI
_loc2$ = -8						; size = 4
_this$ = -4						; size = 4
_aIndex$ = 8						; size = 4
_TicketLevel$ = 12					; size = 4
?CheckEnterLevel@CIllusionTempleEvent@@QAEHHH@Z PROC	; CIllusionTempleEvent::CheckEnterLevel
; _this$ = ecx

; 558  : {

  01790	55		 push	 ebp
  01791	8b ec		 mov	 ebp, esp
  01793	83 ec 48	 sub	 esp, 72			; 00000048H
  01796	53		 push	 ebx
  01797	56		 push	 esi
  01798	57		 push	 edi
  01799	89 4d fc	 mov	 DWORD PTR _this$[ebp], ecx

; 559  : 	int loc2 = -1;

  0179c	c7 45 f8 ff ff
	ff ff		 mov	 DWORD PTR _loc2$[ebp], -1

; 560  : 
; 561  : 	if( gObj[aIndex].Level < 220 )

  017a3	8b 45 08	 mov	 eax, DWORD PTR _aIndex$[ebp]
  017a6	69 c0 38 2b 00
	00		 imul	 eax, 11064		; 00002b38H
  017ac	8b 0d 00 00 00
	00		 mov	 ecx, DWORD PTR ?gObj@@3PAUOBJECTSTRUCT@@A ; gObj
  017b2	0f bf 94 01 be
	00 00 00	 movsx	 edx, WORD PTR [ecx+eax+190]
  017ba	81 fa dc 00 00
	00		 cmp	 edx, 220		; 000000dcH
  017c0	7d 0c		 jge	 SHORT $LN19@CheckEnter

; 562  : 	{
; 563  : 		loc2 = -1;

  017c2	c7 45 f8 ff ff
	ff ff		 mov	 DWORD PTR _loc2$[ebp], -1
  017c9	e9 76 01 00 00	 jmp	 $LN18@CheckEnter
$LN19@CheckEnter:

; 564  : 	}
; 565  : 	else if( gObj[aIndex].Level < 271 )

  017ce	8b 45 08	 mov	 eax, DWORD PTR _aIndex$[ebp]
  017d1	69 c0 38 2b 00
	00		 imul	 eax, 11064		; 00002b38H
  017d7	8b 0d 00 00 00
	00		 mov	 ecx, DWORD PTR ?gObj@@3PAUOBJECTSTRUCT@@A ; gObj
  017dd	0f bf 94 01 be
	00 00 00	 movsx	 edx, WORD PTR [ecx+eax+190]
  017e5	81 fa 0f 01 00
	00		 cmp	 edx, 271		; 0000010fH
  017eb	7d 0c		 jge	 SHORT $LN17@CheckEnter

; 566  : 	{
; 567  : 		loc2 = 0;

  017ed	c7 45 f8 00 00
	00 00		 mov	 DWORD PTR _loc2$[ebp], 0
  017f4	e9 4b 01 00 00	 jmp	 $LN18@CheckEnter
$LN17@CheckEnter:

; 568  : 	}
; 569  : 	else if( gObj[aIndex].Level < 321 )

  017f9	8b 45 08	 mov	 eax, DWORD PTR _aIndex$[ebp]
  017fc	69 c0 38 2b 00
	00		 imul	 eax, 11064		; 00002b38H
  01802	8b 0d 00 00 00
	00		 mov	 ecx, DWORD PTR ?gObj@@3PAUOBJECTSTRUCT@@A ; gObj
  01808	0f bf 94 01 be
	00 00 00	 movsx	 edx, WORD PTR [ecx+eax+190]
  01810	81 fa 41 01 00
	00		 cmp	 edx, 321		; 00000141H
  01816	7d 0c		 jge	 SHORT $LN15@CheckEnter

; 570  : 	{
; 571  : 		loc2 = 1;

  01818	c7 45 f8 01 00
	00 00		 mov	 DWORD PTR _loc2$[ebp], 1
  0181f	e9 20 01 00 00	 jmp	 $LN18@CheckEnter
$LN15@CheckEnter:

; 572  : 	}
; 573  : 	else if( gObj[aIndex].Level < 351 )

  01824	8b 45 08	 mov	 eax, DWORD PTR _aIndex$[ebp]
  01827	69 c0 38 2b 00
	00		 imul	 eax, 11064		; 00002b38H
  0182d	8b 0d 00 00 00
	00		 mov	 ecx, DWORD PTR ?gObj@@3PAUOBJECTSTRUCT@@A ; gObj
  01833	0f bf 94 01 be
	00 00 00	 movsx	 edx, WORD PTR [ecx+eax+190]
  0183b	81 fa 5f 01 00
	00		 cmp	 edx, 351		; 0000015fH
  01841	7d 0c		 jge	 SHORT $LN13@CheckEnter

; 574  : 	{
; 575  : 		loc2 = 2;

  01843	c7 45 f8 02 00
	00 00		 mov	 DWORD PTR _loc2$[ebp], 2
  0184a	e9 f5 00 00 00	 jmp	 $LN18@CheckEnter
$LN13@CheckEnter:

; 576  : 	}
; 577  : 	else if( gObj[aIndex].Level < 381 )

  0184f	8b 45 08	 mov	 eax, DWORD PTR _aIndex$[ebp]
  01852	69 c0 38 2b 00
	00		 imul	 eax, 11064		; 00002b38H
  01858	8b 0d 00 00 00
	00		 mov	 ecx, DWORD PTR ?gObj@@3PAUOBJECTSTRUCT@@A ; gObj
  0185e	0f bf 94 01 be
	00 00 00	 movsx	 edx, WORD PTR [ecx+eax+190]
  01866	81 fa 7d 01 00
	00		 cmp	 edx, 381		; 0000017dH
  0186c	7d 0c		 jge	 SHORT $LN11@CheckEnter

; 578  : 	{
; 579  : 		loc2 = 3;

  0186e	c7 45 f8 03 00
	00 00		 mov	 DWORD PTR _loc2$[ebp], 3
  01875	e9 ca 00 00 00	 jmp	 $LN18@CheckEnter
$LN11@CheckEnter:

; 580  : 	}
; 581  : 	else if( gObj[aIndex].Level < 400 )

  0187a	8b 45 08	 mov	 eax, DWORD PTR _aIndex$[ebp]
  0187d	69 c0 38 2b 00
	00		 imul	 eax, 11064		; 00002b38H
  01883	8b 0d 00 00 00
	00		 mov	 ecx, DWORD PTR ?gObj@@3PAUOBJECTSTRUCT@@A ; gObj
  01889	0f bf 94 01 be
	00 00 00	 movsx	 edx, WORD PTR [ecx+eax+190]
  01891	81 fa 90 01 00
	00		 cmp	 edx, 400		; 00000190H
  01897	7d 0c		 jge	 SHORT $LN9@CheckEnter

; 582  : 	{
; 583  : 		loc2 = 4;

  01899	c7 45 f8 04 00
	00 00		 mov	 DWORD PTR _loc2$[ebp], 4
  018a0	e9 9f 00 00 00	 jmp	 $LN18@CheckEnter
$LN9@CheckEnter:

; 584  : 	}
; 585  : 	else if( gObj[aIndex].Level == 400 && gObj[aIndex].ChangeUP3rd == 0)

  018a5	8b 45 08	 mov	 eax, DWORD PTR _aIndex$[ebp]
  018a8	69 c0 38 2b 00
	00		 imul	 eax, 11064		; 00002b38H
  018ae	8b 0d 00 00 00
	00		 mov	 ecx, DWORD PTR ?gObj@@3PAUOBJECTSTRUCT@@A ; gObj
  018b4	0f bf 94 01 be
	00 00 00	 movsx	 edx, WORD PTR [ecx+eax+190]
  018bc	81 fa 90 01 00
	00		 cmp	 edx, 400		; 00000190H
  018c2	75 24		 jne	 SHORT $LN7@CheckEnter
  018c4	8b 45 08	 mov	 eax, DWORD PTR _aIndex$[ebp]
  018c7	69 c0 38 2b 00
	00		 imul	 eax, 11064		; 00002b38H
  018cd	8b 0d 00 00 00
	00		 mov	 ecx, DWORD PTR ?gObj@@3PAUOBJECTSTRUCT@@A ; gObj
  018d3	0f b6 94 01 bc
	00 00 00	 movzx	 edx, BYTE PTR [ecx+eax+188]
  018db	85 d2		 test	 edx, edx
  018dd	75 09		 jne	 SHORT $LN7@CheckEnter

; 586  : 	{
; 587  : 		loc2 = 4;

  018df	c7 45 f8 04 00
	00 00		 mov	 DWORD PTR _loc2$[ebp], 4
  018e6	eb 5c		 jmp	 SHORT $LN18@CheckEnter
$LN7@CheckEnter:

; 588  : 	}
; 589  : 	else if( gObj[aIndex].Level == 400 && gObj[aIndex].ChangeUP3rd != 0)

  018e8	8b 45 08	 mov	 eax, DWORD PTR _aIndex$[ebp]
  018eb	69 c0 38 2b 00
	00		 imul	 eax, 11064		; 00002b38H
  018f1	8b 0d 00 00 00
	00		 mov	 ecx, DWORD PTR ?gObj@@3PAUOBJECTSTRUCT@@A ; gObj
  018f7	0f bf 94 01 be
	00 00 00	 movsx	 edx, WORD PTR [ecx+eax+190]
  018ff	81 fa 90 01 00
	00		 cmp	 edx, 400		; 00000190H
  01905	75 36		 jne	 SHORT $LN5@CheckEnter
  01907	8b 45 08	 mov	 eax, DWORD PTR _aIndex$[ebp]
  0190a	69 c0 38 2b 00
	00		 imul	 eax, 11064		; 00002b38H
  01910	8b 0d 00 00 00
	00		 mov	 ecx, DWORD PTR ?gObj@@3PAUOBJECTSTRUCT@@A ; gObj
  01916	0f b6 94 01 bc
	00 00 00	 movzx	 edx, BYTE PTR [ecx+eax+188]
  0191e	85 d2		 test	 edx, edx
  01920	74 1b		 je	 SHORT $LN5@CheckEnter

; 590  : 	{
; 591  : 		if(g_iUseMaxLevelIllusionTemple != 0)

  01922	83 3d 00 00 00
	00 00		 cmp	 DWORD PTR ?g_iUseMaxLevelIllusionTemple@@3HA, 0 ; g_iUseMaxLevelIllusionTemple
  01929	74 09		 je	 SHORT $LN4@CheckEnter

; 592  : 		{
; 593  : 			loc2 = 5;

  0192b	c7 45 f8 05 00
	00 00		 mov	 DWORD PTR _loc2$[ebp], 5

; 594  : 		}
; 595  : 		else

  01932	eb 07		 jmp	 SHORT $LN3@CheckEnter
$LN4@CheckEnter:

; 596  : 		{
; 597  : 			loc2 = 4;

  01934	c7 45 f8 04 00
	00 00		 mov	 DWORD PTR _loc2$[ebp], 4
$LN3@CheckEnter:

; 598  : 		}
; 599  : 	}
; 600  : 	else

  0193b	eb 07		 jmp	 SHORT $LN18@CheckEnter
$LN5@CheckEnter:

; 601  : 	{
; 602  : 		loc2 = -1;

  0193d	c7 45 f8 ff ff
	ff ff		 mov	 DWORD PTR _loc2$[ebp], -1
$LN18@CheckEnter:

; 603  : 	}
; 604  : 
; 605  : 	if(loc2+1 == TicketLevel)

  01944	8b 45 f8	 mov	 eax, DWORD PTR _loc2$[ebp]
  01947	83 c0 01	 add	 eax, 1
  0194a	3b 45 0c	 cmp	 eax, DWORD PTR _TicketLevel$[ebp]
  0194d	75 07		 jne	 SHORT $LN1@CheckEnter

; 606  : 	{
; 607  : 		return TRUE;

  0194f	b8 01 00 00 00	 mov	 eax, 1
  01954	eb 02		 jmp	 SHORT $LN20@CheckEnter
$LN1@CheckEnter:

; 608  : 	}
; 609  : 	return FALSE;

  01956	33 c0		 xor	 eax, eax
$LN20@CheckEnter:

; 610  : }

  01958	5f		 pop	 edi
  01959	5e		 pop	 esi
  0195a	5b		 pop	 ebx
  0195b	8b e5		 mov	 esp, ebp
  0195d	5d		 pop	 ebp
  0195e	c2 08 00	 ret	 8
?CheckEnterLevel@CIllusionTempleEvent@@QAEHHH@Z ENDP	; CIllusionTempleEvent::CheckEnterLevel
_TEXT	ENDS
PUBLIC	?SetNpcStatueUser@CIllusionTempleEvent@@QAEXEPAUOBJECTSTRUCT@@0@Z ; CIllusionTempleEvent::SetNpcStatueUser
EXTRN	?NpcStatueProc@CIllusionTempleProcess@@QAEXPAUOBJECTSTRUCT@@0@Z:PROC ; CIllusionTempleProcess::NpcStatueProc
; Function compile flags: /Odtp /ZI
_TEXT	SEGMENT
tv71 = -72						; size = 4
_this$ = -4						; size = 4
_MapNumber$ = 8						; size = 1
_lpObj$ = 12						; size = 4
_lpTargetObj$ = 16					; size = 4
?SetNpcStatueUser@CIllusionTempleEvent@@QAEXEPAUOBJECTSTRUCT@@0@Z PROC ; CIllusionTempleEvent::SetNpcStatueUser
; _this$ = ecx

; 613  : {

  01970	55		 push	 ebp
  01971	8b ec		 mov	 ebp, esp
  01973	83 ec 48	 sub	 esp, 72			; 00000048H
  01976	53		 push	 ebx
  01977	56		 push	 esi
  01978	57		 push	 edi
  01979	89 4d fc	 mov	 DWORD PTR _this$[ebp], ecx

; 614  : 	if( CHECK_LIMIT( (MapNumber - MAP_INDEX_ILLUSIONTEMPLE_MIN), MAX_FLOOR_DATA+1) == FALSE )

  0197c	0f b6 45 08	 movzx	 eax, BYTE PTR _MapNumber$[ebp]
  01980	83 e8 2d	 sub	 eax, 45			; 0000002dH
  01983	79 09		 jns	 SHORT $LN4@SetNpcStat
  01985	c7 45 b8 00 00
	00 00		 mov	 DWORD PTR tv71[ebp], 0
  0198c	eb 12		 jmp	 SHORT $LN5@SetNpcStat
$LN4@SetNpcStat:
  0198e	0f b6 4d 08	 movzx	 ecx, BYTE PTR _MapNumber$[ebp]
  01992	83 e9 2d	 sub	 ecx, 45			; 0000002dH
  01995	33 d2		 xor	 edx, edx
  01997	83 f9 05	 cmp	 ecx, 5
  0199a	0f 9e c2	 setle	 dl
  0199d	89 55 b8	 mov	 DWORD PTR tv71[ebp], edx
$LN5@SetNpcStat:
  019a0	83 7d b8 00	 cmp	 DWORD PTR tv71[ebp], 0
  019a4	75 02		 jne	 SHORT $LN1@SetNpcStat

; 615  : 	{
; 616  : 		return;

  019a6	eb 21		 jmp	 SHORT $LN2@SetNpcStat
$LN1@SetNpcStat:

; 617  : 	}
; 618  : 
; 619  : 	this->m_IllusionTempleProcess[MapNumber - MAP_INDEX_ILLUSIONTEMPLE_MIN].NpcStatueProc(lpObj, lpTargetObj);

  019a8	8b 45 10	 mov	 eax, DWORD PTR _lpTargetObj$[ebp]
  019ab	50		 push	 eax
  019ac	8b 4d 0c	 mov	 ecx, DWORD PTR _lpObj$[ebp]
  019af	51		 push	 ecx
  019b0	0f b6 55 08	 movzx	 edx, BYTE PTR _MapNumber$[ebp]
  019b4	83 ea 2d	 sub	 edx, 45			; 0000002dH
  019b7	69 d2 f0 03 00
	00		 imul	 edx, 1008		; 000003f0H
  019bd	8b 45 fc	 mov	 eax, DWORD PTR _this$[ebp]
  019c0	8d 4c 10 08	 lea	 ecx, DWORD PTR [eax+edx+8]
  019c4	e8 00 00 00 00	 call	 ?NpcStatueProc@CIllusionTempleProcess@@QAEXPAUOBJECTSTRUCT@@0@Z ; CIllusionTempleProcess::NpcStatueProc
$LN2@SetNpcStat:

; 620  : }

  019c9	5f		 pop	 edi
  019ca	5e		 pop	 esi
  019cb	5b		 pop	 ebx
  019cc	8b e5		 mov	 esp, ebp
  019ce	5d		 pop	 ebp
  019cf	c2 0c 00	 ret	 12			; 0000000cH
?SetNpcStatueUser@CIllusionTempleEvent@@QAEXEPAUOBJECTSTRUCT@@0@Z ENDP ; CIllusionTempleEvent::SetNpcStatueUser
_TEXT	ENDS
PUBLIC	?SetNpcAlliedUser@CIllusionTempleEvent@@QAEXEPAUOBJECTSTRUCT@@0@Z ; CIllusionTempleEvent::SetNpcAlliedUser
EXTRN	?NpcAlliedPedestalProc@CIllusionTempleProcess@@QAEXPAUOBJECTSTRUCT@@0@Z:PROC ; CIllusionTempleProcess::NpcAlliedPedestalProc
; Function compile flags: /Odtp /ZI
_TEXT	SEGMENT
tv71 = -72						; size = 4
_this$ = -4						; size = 4
_MapNumber$ = 8						; size = 1
_lpObj$ = 12						; size = 4
_lpTargetObj$ = 16					; size = 4
?SetNpcAlliedUser@CIllusionTempleEvent@@QAEXEPAUOBJECTSTRUCT@@0@Z PROC ; CIllusionTempleEvent::SetNpcAlliedUser
; _this$ = ecx

; 623  : {

  019e0	55		 push	 ebp
  019e1	8b ec		 mov	 ebp, esp
  019e3	83 ec 48	 sub	 esp, 72			; 00000048H
  019e6	53		 push	 ebx
  019e7	56		 push	 esi
  019e8	57		 push	 edi
  019e9	89 4d fc	 mov	 DWORD PTR _this$[ebp], ecx

; 624  : 	if( CHECK_LIMIT( (MapNumber - MAP_INDEX_ILLUSIONTEMPLE_MIN), MAX_FLOOR_DATA+1) == FALSE )

  019ec	0f b6 45 08	 movzx	 eax, BYTE PTR _MapNumber$[ebp]
  019f0	83 e8 2d	 sub	 eax, 45			; 0000002dH
  019f3	79 09		 jns	 SHORT $LN4@SetNpcAlli
  019f5	c7 45 b8 00 00
	00 00		 mov	 DWORD PTR tv71[ebp], 0
  019fc	eb 12		 jmp	 SHORT $LN5@SetNpcAlli
$LN4@SetNpcAlli:
  019fe	0f b6 4d 08	 movzx	 ecx, BYTE PTR _MapNumber$[ebp]
  01a02	83 e9 2d	 sub	 ecx, 45			; 0000002dH
  01a05	33 d2		 xor	 edx, edx
  01a07	83 f9 05	 cmp	 ecx, 5
  01a0a	0f 9e c2	 setle	 dl
  01a0d	89 55 b8	 mov	 DWORD PTR tv71[ebp], edx
$LN5@SetNpcAlli:
  01a10	83 7d b8 00	 cmp	 DWORD PTR tv71[ebp], 0
  01a14	75 02		 jne	 SHORT $LN1@SetNpcAlli

; 625  : 	{
; 626  : 		return;

  01a16	eb 21		 jmp	 SHORT $LN2@SetNpcAlli
$LN1@SetNpcAlli:

; 627  : 	}
; 628  : 
; 629  : 	this->m_IllusionTempleProcess[MapNumber - MAP_INDEX_ILLUSIONTEMPLE_MIN].NpcAlliedPedestalProc(lpObj, lpTargetObj);

  01a18	8b 45 10	 mov	 eax, DWORD PTR _lpTargetObj$[ebp]
  01a1b	50		 push	 eax
  01a1c	8b 4d 0c	 mov	 ecx, DWORD PTR _lpObj$[ebp]
  01a1f	51		 push	 ecx
  01a20	0f b6 55 08	 movzx	 edx, BYTE PTR _MapNumber$[ebp]
  01a24	83 ea 2d	 sub	 edx, 45			; 0000002dH
  01a27	69 d2 f0 03 00
	00		 imul	 edx, 1008		; 000003f0H
  01a2d	8b 45 fc	 mov	 eax, DWORD PTR _this$[ebp]
  01a30	8d 4c 10 08	 lea	 ecx, DWORD PTR [eax+edx+8]
  01a34	e8 00 00 00 00	 call	 ?NpcAlliedPedestalProc@CIllusionTempleProcess@@QAEXPAUOBJECTSTRUCT@@0@Z ; CIllusionTempleProcess::NpcAlliedPedestalProc
$LN2@SetNpcAlli:

; 630  : }

  01a39	5f		 pop	 edi
  01a3a	5e		 pop	 esi
  01a3b	5b		 pop	 ebx
  01a3c	8b e5		 mov	 esp, ebp
  01a3e	5d		 pop	 ebp
  01a3f	c2 0c 00	 ret	 12			; 0000000cH
?SetNpcAlliedUser@CIllusionTempleEvent@@QAEXEPAUOBJECTSTRUCT@@0@Z ENDP ; CIllusionTempleEvent::SetNpcAlliedUser
_TEXT	ENDS
PUBLIC	?SetNpcRelicsUser@CIllusionTempleEvent@@QAEXEPAUOBJECTSTRUCT@@0@Z ; CIllusionTempleEvent::SetNpcRelicsUser
EXTRN	?NpcRelicsPedestalProc@CIllusionTempleProcess@@QAEXPAUOBJECTSTRUCT@@0@Z:PROC ; CIllusionTempleProcess::NpcRelicsPedestalProc
; Function compile flags: /Odtp /ZI
_TEXT	SEGMENT
tv71 = -72						; size = 4
_this$ = -4						; size = 4
_MapNumber$ = 8						; size = 1
_lpObj$ = 12						; size = 4
_lpTargetObj$ = 16					; size = 4
?SetNpcRelicsUser@CIllusionTempleEvent@@QAEXEPAUOBJECTSTRUCT@@0@Z PROC ; CIllusionTempleEvent::SetNpcRelicsUser
; _this$ = ecx

; 633  : {

  01a50	55		 push	 ebp
  01a51	8b ec		 mov	 ebp, esp
  01a53	83 ec 48	 sub	 esp, 72			; 00000048H
  01a56	53		 push	 ebx
  01a57	56		 push	 esi
  01a58	57		 push	 edi
  01a59	89 4d fc	 mov	 DWORD PTR _this$[ebp], ecx

; 634  : 	if( CHECK_LIMIT( (MapNumber - MAP_INDEX_ILLUSIONTEMPLE_MIN), MAX_FLOOR_DATA+1) == FALSE )

  01a5c	0f b6 45 08	 movzx	 eax, BYTE PTR _MapNumber$[ebp]
  01a60	83 e8 2d	 sub	 eax, 45			; 0000002dH
  01a63	79 09		 jns	 SHORT $LN4@SetNpcReli
  01a65	c7 45 b8 00 00
	00 00		 mov	 DWORD PTR tv71[ebp], 0
  01a6c	eb 12		 jmp	 SHORT $LN5@SetNpcReli
$LN4@SetNpcReli:
  01a6e	0f b6 4d 08	 movzx	 ecx, BYTE PTR _MapNumber$[ebp]
  01a72	83 e9 2d	 sub	 ecx, 45			; 0000002dH
  01a75	33 d2		 xor	 edx, edx
  01a77	83 f9 05	 cmp	 ecx, 5
  01a7a	0f 9e c2	 setle	 dl
  01a7d	89 55 b8	 mov	 DWORD PTR tv71[ebp], edx
$LN5@SetNpcReli:
  01a80	83 7d b8 00	 cmp	 DWORD PTR tv71[ebp], 0
  01a84	75 02		 jne	 SHORT $LN1@SetNpcReli

; 635  : 	{
; 636  : 		return;

  01a86	eb 21		 jmp	 SHORT $LN2@SetNpcReli
$LN1@SetNpcReli:

; 637  : 	}
; 638  : 
; 639  : 	this->m_IllusionTempleProcess[MapNumber - MAP_INDEX_ILLUSIONTEMPLE_MIN].NpcRelicsPedestalProc(lpObj, lpTargetObj);

  01a88	8b 45 10	 mov	 eax, DWORD PTR _lpTargetObj$[ebp]
  01a8b	50		 push	 eax
  01a8c	8b 4d 0c	 mov	 ecx, DWORD PTR _lpObj$[ebp]
  01a8f	51		 push	 ecx
  01a90	0f b6 55 08	 movzx	 edx, BYTE PTR _MapNumber$[ebp]
  01a94	83 ea 2d	 sub	 edx, 45			; 0000002dH
  01a97	69 d2 f0 03 00
	00		 imul	 edx, 1008		; 000003f0H
  01a9d	8b 45 fc	 mov	 eax, DWORD PTR _this$[ebp]
  01aa0	8d 4c 10 08	 lea	 ecx, DWORD PTR [eax+edx+8]
  01aa4	e8 00 00 00 00	 call	 ?NpcRelicsPedestalProc@CIllusionTempleProcess@@QAEXPAUOBJECTSTRUCT@@0@Z ; CIllusionTempleProcess::NpcRelicsPedestalProc
$LN2@SetNpcReli:

; 640  : }

  01aa9	5f		 pop	 edi
  01aaa	5e		 pop	 esi
  01aab	5b		 pop	 ebx
  01aac	8b e5		 mov	 esp, ebp
  01aae	5d		 pop	 ebp
  01aaf	c2 0c 00	 ret	 12			; 0000000cH
?SetNpcRelicsUser@CIllusionTempleEvent@@QAEXEPAUOBJECTSTRUCT@@0@Z ENDP ; CIllusionTempleEvent::SetNpcRelicsUser
_TEXT	ENDS
PUBLIC	?GetEnteredUserCount@CIllusionTempleProcess@@QAEEXZ ; CIllusionTempleProcess::GetEnteredUserCount
PUBLIC	__$ArrayPad$
PUBLIC	?SetNpcMirageUser@CIllusionTempleEvent@@QAEXPAUOBJECTSTRUCT@@0@Z ; CIllusionTempleEvent::SetNpcMirageUser
EXTRN	?CheckLeftMinutesBeforeOpen@CIllusionTempleProcess@@QAEEXZ:PROC ; CIllusionTempleProcess::CheckLeftMinutesBeforeOpen
EXTRN	?CheckEnterItemPosition@CIllusionTempleProcess@@QAEHH@Z:PROC ; CIllusionTempleProcess::CheckEnterItemPosition
EXTRN	?GCServerMsgStringSend@@YAXPADHE@Z:PROC		; GCServerMsgStringSend
EXTRN	?Get@CMsg@@QAEPADH@Z:PROC			; CMsg::Get
EXTRN	?lMsg@@3VCMsg@@A:BYTE				; lMsg
; Function compile flags: /Odtp /ZI
_TEXT	SEGMENT
tv148 = -96						; size = 4
_pMsg$ = -28						; size = 11
_loc3$ = -16						; size = 4
_loc2$ = -12						; size = 4
_this$ = -8						; size = 4
__$ArrayPad$ = -4					; size = 4
_lpObj$ = 8						; size = 4
_lpTargetObj$ = 12					; size = 4
?SetNpcMirageUser@CIllusionTempleEvent@@QAEXPAUOBJECTSTRUCT@@0@Z PROC ; CIllusionTempleEvent::SetNpcMirageUser
; _this$ = ecx

; 643  : {

  01ac0	55		 push	 ebp
  01ac1	8b ec		 mov	 ebp, esp
  01ac3	83 ec 60	 sub	 esp, 96			; 00000060H
  01ac6	a1 00 00 00 00	 mov	 eax, DWORD PTR ___security_cookie
  01acb	33 c5		 xor	 eax, ebp
  01acd	89 45 fc	 mov	 DWORD PTR __$ArrayPad$[ebp], eax
  01ad0	53		 push	 ebx
  01ad1	56		 push	 esi
  01ad2	57		 push	 edi
  01ad3	89 4d f8	 mov	 DWORD PTR _this$[ebp], ecx

; 644  : 	if(lpTargetObj->m_IfState.use != 0 && lpTargetObj->m_IfState.type != 12)

  01ad6	8b 45 0c	 mov	 eax, DWORD PTR _lpTargetObj$[ebp]
  01ad9	8b 88 1c 0e 00
	00		 mov	 ecx, DWORD PTR [eax+3612]
  01adf	83 e1 03	 and	 ecx, 3
  01ae2	74 1c		 je	 SHORT $LN25@SetNpcMira
  01ae4	8b 45 0c	 mov	 eax, DWORD PTR _lpTargetObj$[ebp]
  01ae7	8b 88 1c 0e 00
	00		 mov	 ecx, DWORD PTR [eax+3612]
  01aed	c1 e9 06	 shr	 ecx, 6
  01af0	81 e1 ff 03 00
	00		 and	 ecx, 1023		; 000003ffH
  01af6	83 f9 0c	 cmp	 ecx, 12			; 0000000cH
  01af9	74 05		 je	 SHORT $LN25@SetNpcMira

; 645  : 	{
; 646  : 		return;

  01afb	e9 d5 02 00 00	 jmp	 $LN26@SetNpcMira
$LN25@SetNpcMira:

; 647  : 	}
; 648  : 
; 649  : 	if(lpTargetObj->m_PK_Level >= 4)

  01b00	8b 45 0c	 mov	 eax, DWORD PTR _lpTargetObj$[ebp]
  01b03	0f be 88 3d 01
	00 00		 movsx	 ecx, BYTE PTR [eax+317]
  01b0a	83 f9 04	 cmp	 ecx, 4
  01b0d	7c 25		 jl	 SHORT $LN24@SetNpcMira

; 650  : 	{
; 651  : 		GCServerMsgStringSend(lMsg.Get(3400), lpTargetObj->m_Index, 1); //Player Killer are not allowed to enter Illusion Temple Event

  01b0f	6a 01		 push	 1
  01b11	8b 45 0c	 mov	 eax, DWORD PTR _lpTargetObj$[ebp]
  01b14	8b 08		 mov	 ecx, DWORD PTR [eax]
  01b16	51		 push	 ecx
  01b17	68 48 0d 00 00	 push	 3400			; 00000d48H
  01b1c	b9 00 00 00 00	 mov	 ecx, OFFSET ?lMsg@@3VCMsg@@A ; lMsg
  01b21	e8 00 00 00 00	 call	 ?Get@CMsg@@QAEPADH@Z	; CMsg::Get
  01b26	50		 push	 eax
  01b27	e8 00 00 00 00	 call	 ?GCServerMsgStringSend@@YAXPADHE@Z ; GCServerMsgStringSend
  01b2c	83 c4 0c	 add	 esp, 12			; 0000000cH

; 652  : 		return;

  01b2f	e9 a1 02 00 00	 jmp	 $LN26@SetNpcMira
$LN24@SetNpcMira:

; 653  : 	}
; 654  : 
; 655  : 	int loc2 = -1;

  01b34	c7 45 f4 ff ff
	ff ff		 mov	 DWORD PTR _loc2$[ebp], -1

; 656  : 
; 657  : 	if( lpTargetObj->Level < 220 )

  01b3b	8b 45 0c	 mov	 eax, DWORD PTR _lpTargetObj$[ebp]
  01b3e	0f bf 88 be 00
	00 00		 movsx	 ecx, WORD PTR [eax+190]
  01b45	81 f9 dc 00 00
	00		 cmp	 ecx, 220		; 000000dcH
  01b4b	7d 0c		 jge	 SHORT $LN23@SetNpcMira

; 658  : 	{
; 659  : 		loc2 = -1;

  01b4d	c7 45 f4 ff ff
	ff ff		 mov	 DWORD PTR _loc2$[ebp], -1
  01b54	e9 fe 00 00 00	 jmp	 $LN22@SetNpcMira
$LN23@SetNpcMira:

; 660  : 	}
; 661  : 	else if( lpTargetObj->Level < 271 )

  01b59	8b 45 0c	 mov	 eax, DWORD PTR _lpTargetObj$[ebp]
  01b5c	0f bf 88 be 00
	00 00		 movsx	 ecx, WORD PTR [eax+190]
  01b63	81 f9 0f 01 00
	00		 cmp	 ecx, 271		; 0000010fH
  01b69	7d 0c		 jge	 SHORT $LN21@SetNpcMira

; 662  : 	{
; 663  : 		loc2 = 0;

  01b6b	c7 45 f4 00 00
	00 00		 mov	 DWORD PTR _loc2$[ebp], 0
  01b72	e9 e0 00 00 00	 jmp	 $LN22@SetNpcMira
$LN21@SetNpcMira:

; 664  : 	}
; 665  : 	else if( lpTargetObj->Level < 321 )

  01b77	8b 45 0c	 mov	 eax, DWORD PTR _lpTargetObj$[ebp]
  01b7a	0f bf 88 be 00
	00 00		 movsx	 ecx, WORD PTR [eax+190]
  01b81	81 f9 41 01 00
	00		 cmp	 ecx, 321		; 00000141H
  01b87	7d 0c		 jge	 SHORT $LN19@SetNpcMira

; 666  : 	{
; 667  : 		loc2 = 1;

  01b89	c7 45 f4 01 00
	00 00		 mov	 DWORD PTR _loc2$[ebp], 1
  01b90	e9 c2 00 00 00	 jmp	 $LN22@SetNpcMira
$LN19@SetNpcMira:

; 668  : 	}
; 669  : 	else if( lpTargetObj->Level < 351 )

  01b95	8b 45 0c	 mov	 eax, DWORD PTR _lpTargetObj$[ebp]
  01b98	0f bf 88 be 00
	00 00		 movsx	 ecx, WORD PTR [eax+190]
  01b9f	81 f9 5f 01 00
	00		 cmp	 ecx, 351		; 0000015fH
  01ba5	7d 0c		 jge	 SHORT $LN17@SetNpcMira

; 670  : 	{
; 671  : 		loc2 = 2;

  01ba7	c7 45 f4 02 00
	00 00		 mov	 DWORD PTR _loc2$[ebp], 2
  01bae	e9 a4 00 00 00	 jmp	 $LN22@SetNpcMira
$LN17@SetNpcMira:

; 672  : 	}
; 673  : 	else if( lpTargetObj->Level < 381 )

  01bb3	8b 45 0c	 mov	 eax, DWORD PTR _lpTargetObj$[ebp]
  01bb6	0f bf 88 be 00
	00 00		 movsx	 ecx, WORD PTR [eax+190]
  01bbd	81 f9 7d 01 00
	00		 cmp	 ecx, 381		; 0000017dH
  01bc3	7d 0c		 jge	 SHORT $LN15@SetNpcMira

; 674  : 	{
; 675  : 		loc2 = 3;

  01bc5	c7 45 f4 03 00
	00 00		 mov	 DWORD PTR _loc2$[ebp], 3
  01bcc	e9 86 00 00 00	 jmp	 $LN22@SetNpcMira
$LN15@SetNpcMira:

; 676  : 	}
; 677  : 	else if( lpTargetObj->Level < 400 )

  01bd1	8b 45 0c	 mov	 eax, DWORD PTR _lpTargetObj$[ebp]
  01bd4	0f bf 88 be 00
	00 00		 movsx	 ecx, WORD PTR [eax+190]
  01bdb	81 f9 90 01 00
	00		 cmp	 ecx, 400		; 00000190H
  01be1	7d 09		 jge	 SHORT $LN13@SetNpcMira

; 678  : 	{
; 679  : 		loc2 = 4;

  01be3	c7 45 f4 04 00
	00 00		 mov	 DWORD PTR _loc2$[ebp], 4
  01bea	eb 6b		 jmp	 SHORT $LN22@SetNpcMira
$LN13@SetNpcMira:

; 680  : 	}
; 681  : 	else if( lpTargetObj->Level == 400 && lpTargetObj->ChangeUP3rd == 0)

  01bec	8b 45 0c	 mov	 eax, DWORD PTR _lpTargetObj$[ebp]
  01bef	0f bf 88 be 00
	00 00		 movsx	 ecx, WORD PTR [eax+190]
  01bf6	81 f9 90 01 00
	00		 cmp	 ecx, 400		; 00000190H
  01bfc	75 17		 jne	 SHORT $LN11@SetNpcMira
  01bfe	8b 45 0c	 mov	 eax, DWORD PTR _lpTargetObj$[ebp]
  01c01	0f b6 88 bc 00
	00 00		 movzx	 ecx, BYTE PTR [eax+188]
  01c08	85 c9		 test	 ecx, ecx
  01c0a	75 09		 jne	 SHORT $LN11@SetNpcMira

; 682  : 	{
; 683  : 		loc2 = 4;

  01c0c	c7 45 f4 04 00
	00 00		 mov	 DWORD PTR _loc2$[ebp], 4
  01c13	eb 42		 jmp	 SHORT $LN22@SetNpcMira
$LN11@SetNpcMira:

; 684  : 	}
; 685  : 	else if( lpTargetObj->Level == 400 && lpTargetObj->ChangeUP3rd != 0)

  01c15	8b 45 0c	 mov	 eax, DWORD PTR _lpTargetObj$[ebp]
  01c18	0f bf 88 be 00
	00 00		 movsx	 ecx, WORD PTR [eax+190]
  01c1f	81 f9 90 01 00
	00		 cmp	 ecx, 400		; 00000190H
  01c25	75 29		 jne	 SHORT $LN9@SetNpcMira
  01c27	8b 45 0c	 mov	 eax, DWORD PTR _lpTargetObj$[ebp]
  01c2a	0f b6 88 bc 00
	00 00		 movzx	 ecx, BYTE PTR [eax+188]
  01c31	85 c9		 test	 ecx, ecx
  01c33	74 1b		 je	 SHORT $LN9@SetNpcMira

; 686  : 	{
; 687  : 		if( g_iUseMaxLevelIllusionTemple != 0 )

  01c35	83 3d 00 00 00
	00 00		 cmp	 DWORD PTR ?g_iUseMaxLevelIllusionTemple@@3HA, 0 ; g_iUseMaxLevelIllusionTemple
  01c3c	74 09		 je	 SHORT $LN8@SetNpcMira

; 688  : 		{
; 689  : 			loc2 = 5;

  01c3e	c7 45 f4 05 00
	00 00		 mov	 DWORD PTR _loc2$[ebp], 5

; 690  : 		}
; 691  : 		else

  01c45	eb 07		 jmp	 SHORT $LN7@SetNpcMira
$LN8@SetNpcMira:

; 692  : 		{
; 693  : 			loc2 = 4;

  01c47	c7 45 f4 04 00
	00 00		 mov	 DWORD PTR _loc2$[ebp], 4
$LN7@SetNpcMira:

; 694  : 		}
; 695  : 	}
; 696  : 	else

  01c4e	eb 07		 jmp	 SHORT $LN22@SetNpcMira
$LN9@SetNpcMira:

; 697  : 	{
; 698  : 		loc2 = -1;

  01c50	c7 45 f4 ff ff
	ff ff		 mov	 DWORD PTR _loc2$[ebp], -1
$LN22@SetNpcMira:

; 699  : 	}
; 700  : 
; 701  : 	if(IT_TICKET_RANGE(loc2) == 0)

  01c57	83 7d f4 00	 cmp	 DWORD PTR _loc2$[ebp], 0
  01c5b	7d 09		 jge	 SHORT $LN28@SetNpcMira
  01c5d	c7 45 a0 00 00
	00 00		 mov	 DWORD PTR tv148[ebp], 0
  01c64	eb 0c		 jmp	 SHORT $LN29@SetNpcMira
$LN28@SetNpcMira:
  01c66	33 c0		 xor	 eax, eax
  01c68	83 7d f4 05	 cmp	 DWORD PTR _loc2$[ebp], 5
  01c6c	0f 9e c0	 setle	 al
  01c6f	89 45 a0	 mov	 DWORD PTR tv148[ebp], eax
$LN29@SetNpcMira:
  01c72	83 7d a0 00	 cmp	 DWORD PTR tv148[ebp], 0
  01c76	75 25		 jne	 SHORT $LN5@SetNpcMira

; 702  : 	{
; 703  : 		GCServerMsgStringSend(lMsg.Get(3401), lpTargetObj->m_Index, 1); //Your level is not enough to enter Illusion Temple Event

  01c78	6a 01		 push	 1
  01c7a	8b 45 0c	 mov	 eax, DWORD PTR _lpTargetObj$[ebp]
  01c7d	8b 08		 mov	 ecx, DWORD PTR [eax]
  01c7f	51		 push	 ecx
  01c80	68 49 0d 00 00	 push	 3401			; 00000d49H
  01c85	b9 00 00 00 00	 mov	 ecx, OFFSET ?lMsg@@3VCMsg@@A ; lMsg
  01c8a	e8 00 00 00 00	 call	 ?Get@CMsg@@QAEPADH@Z	; CMsg::Get
  01c8f	50		 push	 eax
  01c90	e8 00 00 00 00	 call	 ?GCServerMsgStringSend@@YAXPADHE@Z ; GCServerMsgStringSend
  01c95	83 c4 0c	 add	 esp, 12			; 0000000cH

; 704  : 		return;

  01c98	e9 38 01 00 00	 jmp	 $LN26@SetNpcMira
$LN5@SetNpcMira:

; 705  : 	}
; 706  : 
; 707  : 	int loc3 = this->m_IllusionTempleProcess[loc2].CheckEnterItemPosition(lpTargetObj->m_Index); //season 3.0 changed

  01c9d	8b 45 0c	 mov	 eax, DWORD PTR _lpTargetObj$[ebp]
  01ca0	8b 08		 mov	 ecx, DWORD PTR [eax]
  01ca2	51		 push	 ecx
  01ca3	8b 55 f4	 mov	 edx, DWORD PTR _loc2$[ebp]
  01ca6	69 d2 f0 03 00
	00		 imul	 edx, 1008		; 000003f0H
  01cac	8b 45 f8	 mov	 eax, DWORD PTR _this$[ebp]
  01caf	8d 4c 10 08	 lea	 ecx, DWORD PTR [eax+edx+8]
  01cb3	e8 00 00 00 00	 call	 ?CheckEnterItemPosition@CIllusionTempleProcess@@QAEHH@Z ; CIllusionTempleProcess::CheckEnterItemPosition
  01cb8	89 45 f0	 mov	 DWORD PTR _loc3$[ebp], eax

; 708  : 
; 709  : 	if(loc3 == -1)

  01cbb	83 7d f0 ff	 cmp	 DWORD PTR _loc3$[ebp], -1
  01cbf	75 25		 jne	 SHORT $LN4@SetNpcMira

; 710  : 	{
; 711  : 		GCServerMsgStringSend(lMsg.Get(3402), lpTargetObj->m_Index, 1); //You do not have Blood Scroll or the durability is broken to enter Illusion Temple Event

  01cc1	6a 01		 push	 1
  01cc3	8b 45 0c	 mov	 eax, DWORD PTR _lpTargetObj$[ebp]
  01cc6	8b 08		 mov	 ecx, DWORD PTR [eax]
  01cc8	51		 push	 ecx
  01cc9	68 4a 0d 00 00	 push	 3402			; 00000d4aH
  01cce	b9 00 00 00 00	 mov	 ecx, OFFSET ?lMsg@@3VCMsg@@A ; lMsg
  01cd3	e8 00 00 00 00	 call	 ?Get@CMsg@@QAEPADH@Z	; CMsg::Get
  01cd8	50		 push	 eax
  01cd9	e8 00 00 00 00	 call	 ?GCServerMsgStringSend@@YAXPADHE@Z ; GCServerMsgStringSend
  01cde	83 c4 0c	 add	 esp, 12			; 0000000cH

; 712  : 		return;

  01ce1	e9 ef 00 00 00	 jmp	 $LN26@SetNpcMira
$LN4@SetNpcMira:

; 713  : 	}
; 714  : 
; 715  : 	if(this->m_IllusionTempleProcess[loc2].GetState() != 0)

  01ce6	8b 45 f4	 mov	 eax, DWORD PTR _loc2$[ebp]
  01ce9	69 c0 f0 03 00
	00		 imul	 eax, 1008		; 000003f0H
  01cef	8b 4d f8	 mov	 ecx, DWORD PTR _this$[ebp]
  01cf2	8d 4c 01 08	 lea	 ecx, DWORD PTR [ecx+eax+8]
  01cf6	e8 00 00 00 00	 call	 ?GetState@CIllusionTempleProcess@@QAEEXZ ; CIllusionTempleProcess::GetState
  01cfb	0f b6 d0	 movzx	 edx, al
  01cfe	85 d2		 test	 edx, edx
  01d00	74 25		 je	 SHORT $LN3@SetNpcMira

; 716  : 	{
; 717  : 		GCServerMsgStringSend(lMsg.Get(3403), lpTargetObj->m_Index, 1); //Illusion Temple Event is not Open Yet!

  01d02	6a 01		 push	 1
  01d04	8b 45 0c	 mov	 eax, DWORD PTR _lpTargetObj$[ebp]
  01d07	8b 08		 mov	 ecx, DWORD PTR [eax]
  01d09	51		 push	 ecx
  01d0a	68 4b 0d 00 00	 push	 3403			; 00000d4bH
  01d0f	b9 00 00 00 00	 mov	 ecx, OFFSET ?lMsg@@3VCMsg@@A ; lMsg
  01d14	e8 00 00 00 00	 call	 ?Get@CMsg@@QAEPADH@Z	; CMsg::Get
  01d19	50		 push	 eax
  01d1a	e8 00 00 00 00	 call	 ?GCServerMsgStringSend@@YAXPADHE@Z ; GCServerMsgStringSend
  01d1f	83 c4 0c	 add	 esp, 12			; 0000000cH

; 718  : 		return;

  01d22	e9 ae 00 00 00	 jmp	 $LN26@SetNpcMira
$LN3@SetNpcMira:

; 719  : 	}
; 720  : 
; 721  : 	if(this->m_IllusionTempleProcess[loc2].GetState() != 0 || this->m_IllusionTempleProcess[loc2].GetOpenStatus() == FALSE)

  01d27	8b 45 f4	 mov	 eax, DWORD PTR _loc2$[ebp]
  01d2a	69 c0 f0 03 00
	00		 imul	 eax, 1008		; 000003f0H
  01d30	8b 4d f8	 mov	 ecx, DWORD PTR _this$[ebp]
  01d33	8d 4c 01 08	 lea	 ecx, DWORD PTR [ecx+eax+8]
  01d37	e8 00 00 00 00	 call	 ?GetState@CIllusionTempleProcess@@QAEEXZ ; CIllusionTempleProcess::GetState
  01d3c	0f b6 d0	 movzx	 edx, al
  01d3f	85 d2		 test	 edx, edx
  01d41	75 19		 jne	 SHORT $LN1@SetNpcMira
  01d43	8b 45 f4	 mov	 eax, DWORD PTR _loc2$[ebp]
  01d46	69 c0 f0 03 00
	00		 imul	 eax, 1008		; 000003f0H
  01d4c	8b 4d f8	 mov	 ecx, DWORD PTR _this$[ebp]
  01d4f	8d 4c 01 08	 lea	 ecx, DWORD PTR [ecx+eax+8]
  01d53	e8 00 00 00 00	 call	 ?GetOpenStatus@CIllusionTempleProcess@@QAEHXZ ; CIllusionTempleProcess::GetOpenStatus
  01d58	85 c0		 test	 eax, eax
  01d5a	75 22		 jne	 SHORT $LN2@SetNpcMira
$LN1@SetNpcMira:

; 722  : 	{
; 723  : 		GCServerMsgStringSend(lMsg.Get(3404), lpTargetObj->m_Index, 1); //This is not the appropriate time

  01d5c	6a 01		 push	 1
  01d5e	8b 45 0c	 mov	 eax, DWORD PTR _lpTargetObj$[ebp]
  01d61	8b 08		 mov	 ecx, DWORD PTR [eax]
  01d63	51		 push	 ecx
  01d64	68 4c 0d 00 00	 push	 3404			; 00000d4cH
  01d69	b9 00 00 00 00	 mov	 ecx, OFFSET ?lMsg@@3VCMsg@@A ; lMsg
  01d6e	e8 00 00 00 00	 call	 ?Get@CMsg@@QAEPADH@Z	; CMsg::Get
  01d73	50		 push	 eax
  01d74	e8 00 00 00 00	 call	 ?GCServerMsgStringSend@@YAXPADHE@Z ; GCServerMsgStringSend
  01d79	83 c4 0c	 add	 esp, 12			; 0000000cH

; 724  : 		return;

  01d7c	eb 57		 jmp	 SHORT $LN26@SetNpcMira
$LN2@SetNpcMira:

; 725  : 	}
; 726  : 
; 727  : 	PMSG_TALKRESULT pMsg;
; 728  : 
; 729  : 	pMsg.h.c = 0xC3;

  01d7e	c6 45 e4 c3	 mov	 BYTE PTR _pMsg$[ebp], 195 ; 000000c3H

; 730  : 	pMsg.h.headcode = 0x30;

  01d82	c6 45 e6 30	 mov	 BYTE PTR _pMsg$[ebp+2], 48 ; 00000030H

; 731  : 	pMsg.h.size = sizeof(pMsg);

  01d86	c6 45 e5 0b	 mov	 BYTE PTR _pMsg$[ebp+1], 11 ; 0000000bH

; 732  : 	pMsg.result = 0x14;

  01d8a	c6 45 e7 14	 mov	 BYTE PTR _pMsg$[ebp+3], 20 ; 00000014H

; 733  : 
; 734  : 	pMsg.level1 = this->m_IllusionTempleProcess[loc2].CheckLeftMinutesBeforeOpen();

  01d8e	8b 45 f4	 mov	 eax, DWORD PTR _loc2$[ebp]
  01d91	69 c0 f0 03 00
	00		 imul	 eax, 1008		; 000003f0H
  01d97	8b 4d f8	 mov	 ecx, DWORD PTR _this$[ebp]
  01d9a	8d 4c 01 08	 lea	 ecx, DWORD PTR [ecx+eax+8]
  01d9e	e8 00 00 00 00	 call	 ?CheckLeftMinutesBeforeOpen@CIllusionTempleProcess@@QAEEXZ ; CIllusionTempleProcess::CheckLeftMinutesBeforeOpen
  01da3	88 45 e8	 mov	 BYTE PTR _pMsg$[ebp+4], al

; 735  : 	pMsg.level2 = this->m_IllusionTempleProcess[loc2].GetEnteredUserCount();

  01da6	8b 45 f4	 mov	 eax, DWORD PTR _loc2$[ebp]
  01da9	69 c0 f0 03 00
	00		 imul	 eax, 1008		; 000003f0H
  01daf	8b 4d f8	 mov	 ecx, DWORD PTR _this$[ebp]
  01db2	8d 4c 01 08	 lea	 ecx, DWORD PTR [ecx+eax+8]
  01db6	e8 00 00 00 00	 call	 ?GetEnteredUserCount@CIllusionTempleProcess@@QAEEXZ ; CIllusionTempleProcess::GetEnteredUserCount
  01dbb	88 45 e9	 mov	 BYTE PTR _pMsg$[ebp+5], al

; 736  : 
; 737  : 	DataSend(lpTargetObj->m_Index,(LPBYTE)&pMsg,pMsg.h.size);

  01dbe	0f b6 45 e5	 movzx	 eax, BYTE PTR _pMsg$[ebp+1]
  01dc2	50		 push	 eax
  01dc3	8d 4d e4	 lea	 ecx, DWORD PTR _pMsg$[ebp]
  01dc6	51		 push	 ecx
  01dc7	8b 55 0c	 mov	 edx, DWORD PTR _lpTargetObj$[ebp]
  01dca	8b 02		 mov	 eax, DWORD PTR [edx]
  01dcc	50		 push	 eax
  01dcd	e8 00 00 00 00	 call	 ?DataSend@@YAHHPAEK@Z	; DataSend
  01dd2	83 c4 0c	 add	 esp, 12			; 0000000cH
$LN26@SetNpcMira:

; 738  : }

  01dd5	5f		 pop	 edi
  01dd6	5e		 pop	 esi
  01dd7	5b		 pop	 ebx
  01dd8	8b 4d fc	 mov	 ecx, DWORD PTR __$ArrayPad$[ebp]
  01ddb	33 cd		 xor	 ecx, ebp
  01ddd	e8 00 00 00 00	 call	 @__security_check_cookie@4
  01de2	8b e5		 mov	 esp, ebp
  01de4	5d		 pop	 ebp
  01de5	c2 08 00	 ret	 8
?SetNpcMirageUser@CIllusionTempleEvent@@QAEXPAUOBJECTSTRUCT@@0@Z ENDP ; CIllusionTempleEvent::SetNpcMirageUser
; Function compile flags: /Odtp /ZI
; File d:\projects\exteam6.3\source\gameserver\gameserver\illusiontempleprocess.h
_TEXT	ENDS
;	COMDAT ?GetEnteredUserCount@CIllusionTempleProcess@@QAEEXZ
_TEXT	SEGMENT
_this$ = -4						; size = 4
?GetEnteredUserCount@CIllusionTempleProcess@@QAEEXZ PROC ; CIllusionTempleProcess::GetEnteredUserCount, COMDAT
; _this$ = ecx

; 282  : 	BYTE GetEnteredUserCount(){return this->m_iEnteredUserCount;}

  00000	55		 push	 ebp
  00001	8b ec		 mov	 ebp, esp
  00003	83 ec 44	 sub	 esp, 68			; 00000044H
  00006	53		 push	 ebx
  00007	56		 push	 esi
  00008	57		 push	 edi
  00009	89 4d fc	 mov	 DWORD PTR _this$[ebp], ecx
  0000c	8b 45 fc	 mov	 eax, DWORD PTR _this$[ebp]
  0000f	8a 80 28 02 00
	00		 mov	 al, BYTE PTR [eax+552]
  00015	5f		 pop	 edi
  00016	5e		 pop	 esi
  00017	5b		 pop	 ebx
  00018	8b e5		 mov	 esp, ebp
  0001a	5d		 pop	 ebp
  0001b	c3		 ret	 0
?GetEnteredUserCount@CIllusionTempleProcess@@QAEEXZ ENDP ; CIllusionTempleProcess::GetEnteredUserCount
_TEXT	ENDS
PUBLIC	?SetDeleteRelicsItem@CIllusionTempleEvent@@QAEXEPAUOBJECTSTRUCT@@@Z ; CIllusionTempleEvent::SetDeleteRelicsItem
EXTRN	?DeleteRelicsItem@CIllusionTempleProcess@@QAEXPAUOBJECTSTRUCT@@@Z:PROC ; CIllusionTempleProcess::DeleteRelicsItem
; Function compile flags: /Odtp /ZI
; File d:\projects\exteam6.3\source\gameserver\gameserver\illusiontempleevent.cpp
_TEXT	SEGMENT
tv71 = -72						; size = 4
_this$ = -4						; size = 4
_MapNumber$ = 8						; size = 1
_lpObj$ = 12						; size = 4
?SetDeleteRelicsItem@CIllusionTempleEvent@@QAEXEPAUOBJECTSTRUCT@@@Z PROC ; CIllusionTempleEvent::SetDeleteRelicsItem
; _this$ = ecx

; 741  : {

  01df0	55		 push	 ebp
  01df1	8b ec		 mov	 ebp, esp
  01df3	83 ec 48	 sub	 esp, 72			; 00000048H
  01df6	53		 push	 ebx
  01df7	56		 push	 esi
  01df8	57		 push	 edi
  01df9	89 4d fc	 mov	 DWORD PTR _this$[ebp], ecx

; 742  : 	if( CHECK_LIMIT( (MapNumber - MAP_INDEX_ILLUSIONTEMPLE_MIN), MAX_FLOOR_DATA+1) == FALSE )

  01dfc	0f b6 45 08	 movzx	 eax, BYTE PTR _MapNumber$[ebp]
  01e00	83 e8 2d	 sub	 eax, 45			; 0000002dH
  01e03	79 09		 jns	 SHORT $LN4@SetDeleteR
  01e05	c7 45 b8 00 00
	00 00		 mov	 DWORD PTR tv71[ebp], 0
  01e0c	eb 12		 jmp	 SHORT $LN5@SetDeleteR
$LN4@SetDeleteR:
  01e0e	0f b6 4d 08	 movzx	 ecx, BYTE PTR _MapNumber$[ebp]
  01e12	83 e9 2d	 sub	 ecx, 45			; 0000002dH
  01e15	33 d2		 xor	 edx, edx
  01e17	83 f9 05	 cmp	 ecx, 5
  01e1a	0f 9e c2	 setle	 dl
  01e1d	89 55 b8	 mov	 DWORD PTR tv71[ebp], edx
$LN5@SetDeleteR:
  01e20	83 7d b8 00	 cmp	 DWORD PTR tv71[ebp], 0
  01e24	75 02		 jne	 SHORT $LN1@SetDeleteR

; 743  : 	{
; 744  : 		return;

  01e26	eb 1d		 jmp	 SHORT $LN2@SetDeleteR
$LN1@SetDeleteR:

; 745  : 	}
; 746  : 
; 747  : 	this->m_IllusionTempleProcess[MapNumber - MAP_INDEX_ILLUSIONTEMPLE_MIN].DeleteRelicsItem(lpObj);

  01e28	8b 45 0c	 mov	 eax, DWORD PTR _lpObj$[ebp]
  01e2b	50		 push	 eax
  01e2c	0f b6 4d 08	 movzx	 ecx, BYTE PTR _MapNumber$[ebp]
  01e30	83 e9 2d	 sub	 ecx, 45			; 0000002dH
  01e33	69 c9 f0 03 00
	00		 imul	 ecx, 1008		; 000003f0H
  01e39	8b 55 fc	 mov	 edx, DWORD PTR _this$[ebp]
  01e3c	8d 4c 0a 08	 lea	 ecx, DWORD PTR [edx+ecx+8]
  01e40	e8 00 00 00 00	 call	 ?DeleteRelicsItem@CIllusionTempleProcess@@QAEXPAUOBJECTSTRUCT@@@Z ; CIllusionTempleProcess::DeleteRelicsItem
$LN2@SetDeleteR:

; 748  : }

  01e45	5f		 pop	 edi
  01e46	5e		 pop	 esi
  01e47	5b		 pop	 ebx
  01e48	8b e5		 mov	 esp, ebp
  01e4a	5d		 pop	 ebp
  01e4b	c2 08 00	 ret	 8
?SetDeleteRelicsItem@CIllusionTempleEvent@@QAEXEPAUOBJECTSTRUCT@@@Z ENDP ; CIllusionTempleEvent::SetDeleteRelicsItem
_TEXT	ENDS
PUBLIC	?SearchUserDropQuestItem@CIllusionTempleEvent@@QAEXEH@Z ; CIllusionTempleEvent::SearchUserDropQuestItem
EXTRN	?DropRelicsItem@CIllusionTempleProcess@@QAEXH@Z:PROC ; CIllusionTempleProcess::DropRelicsItem
; Function compile flags: /Odtp /ZI
_TEXT	SEGMENT
tv71 = -72						; size = 4
_this$ = -4						; size = 4
_btMapNumber$ = 8					; size = 1
_aIndex$ = 12						; size = 4
?SearchUserDropQuestItem@CIllusionTempleEvent@@QAEXEH@Z PROC ; CIllusionTempleEvent::SearchUserDropQuestItem
; _this$ = ecx

; 751  : {

  01e50	55		 push	 ebp
  01e51	8b ec		 mov	 ebp, esp
  01e53	83 ec 48	 sub	 esp, 72			; 00000048H
  01e56	53		 push	 ebx
  01e57	56		 push	 esi
  01e58	57		 push	 edi
  01e59	89 4d fc	 mov	 DWORD PTR _this$[ebp], ecx

; 752  : 	if( CHECK_LIMIT( (btMapNumber - MAP_INDEX_ILLUSIONTEMPLE_MIN), MAX_FLOOR_DATA+1) == FALSE )

  01e5c	0f b6 45 08	 movzx	 eax, BYTE PTR _btMapNumber$[ebp]
  01e60	83 e8 2d	 sub	 eax, 45			; 0000002dH
  01e63	79 09		 jns	 SHORT $LN4@SearchUser
  01e65	c7 45 b8 00 00
	00 00		 mov	 DWORD PTR tv71[ebp], 0
  01e6c	eb 12		 jmp	 SHORT $LN5@SearchUser
$LN4@SearchUser:
  01e6e	0f b6 4d 08	 movzx	 ecx, BYTE PTR _btMapNumber$[ebp]
  01e72	83 e9 2d	 sub	 ecx, 45			; 0000002dH
  01e75	33 d2		 xor	 edx, edx
  01e77	83 f9 05	 cmp	 ecx, 5
  01e7a	0f 9e c2	 setle	 dl
  01e7d	89 55 b8	 mov	 DWORD PTR tv71[ebp], edx
$LN5@SearchUser:
  01e80	83 7d b8 00	 cmp	 DWORD PTR tv71[ebp], 0
  01e84	75 02		 jne	 SHORT $LN1@SearchUser

; 753  : 	{
; 754  : 		return;

  01e86	eb 1d		 jmp	 SHORT $LN2@SearchUser
$LN1@SearchUser:

; 755  : 	}
; 756  : 
; 757  : 	this->m_IllusionTempleProcess[btMapNumber - MAP_INDEX_ILLUSIONTEMPLE_MIN].DropRelicsItem(aIndex);

  01e88	8b 45 0c	 mov	 eax, DWORD PTR _aIndex$[ebp]
  01e8b	50		 push	 eax
  01e8c	0f b6 4d 08	 movzx	 ecx, BYTE PTR _btMapNumber$[ebp]
  01e90	83 e9 2d	 sub	 ecx, 45			; 0000002dH
  01e93	69 c9 f0 03 00
	00		 imul	 ecx, 1008		; 000003f0H
  01e99	8b 55 fc	 mov	 edx, DWORD PTR _this$[ebp]
  01e9c	8d 4c 0a 08	 lea	 ecx, DWORD PTR [edx+ecx+8]
  01ea0	e8 00 00 00 00	 call	 ?DropRelicsItem@CIllusionTempleProcess@@QAEXH@Z ; CIllusionTempleProcess::DropRelicsItem
$LN2@SearchUser:

; 758  : }

  01ea5	5f		 pop	 edi
  01ea6	5e		 pop	 esi
  01ea7	5b		 pop	 ebx
  01ea8	8b e5		 mov	 esp, ebp
  01eaa	5d		 pop	 ebp
  01eab	c2 08 00	 ret	 8
?SearchUserDropQuestItem@CIllusionTempleEvent@@QAEXEH@Z ENDP ; CIllusionTempleEvent::SearchUserDropQuestItem
_TEXT	ENDS
PUBLIC	?OperateGMCommand@CIllusionTempleEvent@@QAEXHE@Z ; CIllusionTempleEvent::OperateGMCommand
EXTRN	?SetState@CIllusionTempleProcess@@QAEXE@Z:PROC	; CIllusionTempleProcess::SetState
; Function compile flags: /Odtp /ZI
_TEXT	SEGMENT
tv64 = -72						; size = 4
_this$ = -4						; size = 4
_iCommand$ = 8						; size = 4
_btMapNumber$ = 12					; size = 1
?OperateGMCommand@CIllusionTempleEvent@@QAEXHE@Z PROC	; CIllusionTempleEvent::OperateGMCommand
; _this$ = ecx

; 761  : {

  01eb0	55		 push	 ebp
  01eb1	8b ec		 mov	 ebp, esp
  01eb3	83 ec 48	 sub	 esp, 72			; 00000048H
  01eb6	53		 push	 ebx
  01eb7	56		 push	 esi
  01eb8	57		 push	 edi
  01eb9	89 4d fc	 mov	 DWORD PTR _this$[ebp], ecx

; 762  : 	return;

  01ebc	e9 d8 00 00 00	 jmp	 $LN9@OperateGMC

; 763  : 	switch ( iCommand )

  01ec1	8b 45 08	 mov	 eax, DWORD PTR _iCommand$[ebp]
  01ec4	89 45 b8	 mov	 DWORD PTR tv64[ebp], eax
  01ec7	83 7d b8 01	 cmp	 DWORD PTR tv64[ebp], 1
  01ecb	74 15		 je	 SHORT $LN6@OperateGMC
  01ecd	83 7d b8 02	 cmp	 DWORD PTR tv64[ebp], 2
  01ed1	74 4c		 je	 SHORT $LN4@OperateGMC
  01ed3	83 7d b8 03	 cmp	 DWORD PTR tv64[ebp], 3
  01ed7	0f 84 80 00 00
	00		 je	 $LN2@OperateGMC
  01edd	e9 b7 00 00 00	 jmp	 $LN9@OperateGMC
$LN6@OperateGMC:

; 764  : 	{
; 765  : 		case 1:
; 766  : 			if ( this->m_IllusionTempleProcess[btMapNumber - MAP_INDEX_ILLUSIONTEMPLE_MIN].GetState() == 0 )

  01ee2	0f b6 45 0c	 movzx	 eax, BYTE PTR _btMapNumber$[ebp]
  01ee6	83 e8 2d	 sub	 eax, 45			; 0000002dH
  01ee9	69 c0 f0 03 00
	00		 imul	 eax, 1008		; 000003f0H
  01eef	8b 4d fc	 mov	 ecx, DWORD PTR _this$[ebp]
  01ef2	8d 4c 01 08	 lea	 ecx, DWORD PTR [ecx+eax+8]
  01ef6	e8 00 00 00 00	 call	 ?GetState@CIllusionTempleProcess@@QAEEXZ ; CIllusionTempleProcess::GetState
  01efb	0f b6 d0	 movzx	 edx, al
  01efe	85 d2		 test	 edx, edx
  01f00	75 1b		 jne	 SHORT $LN5@OperateGMC

; 767  : 			{
; 768  : 				this->m_IllusionTempleProcess[btMapNumber - MAP_INDEX_ILLUSIONTEMPLE_MIN].SetState(1);

  01f02	6a 01		 push	 1
  01f04	0f b6 45 0c	 movzx	 eax, BYTE PTR _btMapNumber$[ebp]
  01f08	83 e8 2d	 sub	 eax, 45			; 0000002dH
  01f0b	69 c0 f0 03 00
	00		 imul	 eax, 1008		; 000003f0H
  01f11	8b 4d fc	 mov	 ecx, DWORD PTR _this$[ebp]
  01f14	8d 4c 01 08	 lea	 ecx, DWORD PTR [ecx+eax+8]
  01f18	e8 00 00 00 00	 call	 ?SetState@CIllusionTempleProcess@@QAEXE@Z ; CIllusionTempleProcess::SetState
$LN5@OperateGMC:

; 769  : 			}
; 770  : 			break;

  01f1d	eb 7a		 jmp	 SHORT $LN9@OperateGMC
$LN4@OperateGMC:

; 771  : 
; 772  : 		case 2:
; 773  : 			if ( this->m_IllusionTempleProcess[btMapNumber - MAP_INDEX_ILLUSIONTEMPLE_MIN].GetState() == 1 )

  01f1f	0f b6 45 0c	 movzx	 eax, BYTE PTR _btMapNumber$[ebp]
  01f23	83 e8 2d	 sub	 eax, 45			; 0000002dH
  01f26	69 c0 f0 03 00
	00		 imul	 eax, 1008		; 000003f0H
  01f2c	8b 4d fc	 mov	 ecx, DWORD PTR _this$[ebp]
  01f2f	8d 4c 01 08	 lea	 ecx, DWORD PTR [ecx+eax+8]
  01f33	e8 00 00 00 00	 call	 ?GetState@CIllusionTempleProcess@@QAEEXZ ; CIllusionTempleProcess::GetState
  01f38	0f b6 d0	 movzx	 edx, al
  01f3b	83 fa 01	 cmp	 edx, 1
  01f3e	75 1b		 jne	 SHORT $LN3@OperateGMC

; 774  : 			{
; 775  : 				this->m_IllusionTempleProcess[btMapNumber - MAP_INDEX_ILLUSIONTEMPLE_MIN].SetState(2);

  01f40	6a 02		 push	 2
  01f42	0f b6 45 0c	 movzx	 eax, BYTE PTR _btMapNumber$[ebp]
  01f46	83 e8 2d	 sub	 eax, 45			; 0000002dH
  01f49	69 c0 f0 03 00
	00		 imul	 eax, 1008		; 000003f0H
  01f4f	8b 4d fc	 mov	 ecx, DWORD PTR _this$[ebp]
  01f52	8d 4c 01 08	 lea	 ecx, DWORD PTR [ecx+eax+8]
  01f56	e8 00 00 00 00	 call	 ?SetState@CIllusionTempleProcess@@QAEXE@Z ; CIllusionTempleProcess::SetState
$LN3@OperateGMC:

; 776  : 			}
; 777  : 			break;

  01f5b	eb 3c		 jmp	 SHORT $LN9@OperateGMC
$LN2@OperateGMC:

; 778  : 
; 779  : 		case 3:
; 780  : 			if ( this->m_IllusionTempleProcess[btMapNumber - MAP_INDEX_ILLUSIONTEMPLE_MIN].GetState() == 2 )

  01f5d	0f b6 45 0c	 movzx	 eax, BYTE PTR _btMapNumber$[ebp]
  01f61	83 e8 2d	 sub	 eax, 45			; 0000002dH
  01f64	69 c0 f0 03 00
	00		 imul	 eax, 1008		; 000003f0H
  01f6a	8b 4d fc	 mov	 ecx, DWORD PTR _this$[ebp]
  01f6d	8d 4c 01 08	 lea	 ecx, DWORD PTR [ecx+eax+8]
  01f71	e8 00 00 00 00	 call	 ?GetState@CIllusionTempleProcess@@QAEEXZ ; CIllusionTempleProcess::GetState
  01f76	0f b6 d0	 movzx	 edx, al
  01f79	83 fa 02	 cmp	 edx, 2
  01f7c	75 1b		 jne	 SHORT $LN9@OperateGMC

; 781  : 			{
; 782  : 				this->m_IllusionTempleProcess[btMapNumber - MAP_INDEX_ILLUSIONTEMPLE_MIN].SetState(3);

  01f7e	6a 03		 push	 3
  01f80	0f b6 45 0c	 movzx	 eax, BYTE PTR _btMapNumber$[ebp]
  01f84	83 e8 2d	 sub	 eax, 45			; 0000002dH
  01f87	69 c0 f0 03 00
	00		 imul	 eax, 1008		; 000003f0H
  01f8d	8b 4d fc	 mov	 ecx, DWORD PTR _this$[ebp]
  01f90	8d 4c 01 08	 lea	 ecx, DWORD PTR [ecx+eax+8]
  01f94	e8 00 00 00 00	 call	 ?SetState@CIllusionTempleProcess@@QAEXE@Z ; CIllusionTempleProcess::SetState
$LN9@OperateGMC:

; 783  : 			}
; 784  : 			break;
; 785  : 	}
; 786  : }

  01f99	5f		 pop	 edi
  01f9a	5e		 pop	 esi
  01f9b	5b		 pop	 ebx
  01f9c	8b e5		 mov	 esp, ebp
  01f9e	5d		 pop	 ebp
  01f9f	c2 08 00	 ret	 8
?OperateGMCommand@CIllusionTempleEvent@@QAEXHE@Z ENDP	; CIllusionTempleEvent::OperateGMCommand
_TEXT	ENDS
PUBLIC	?GetState@CIllusionTempleEvent@@QAEEE@Z		; CIllusionTempleEvent::GetState
; Function compile flags: /Odtp /ZI
_TEXT	SEGMENT
_this$ = -4						; size = 4
_btMapNumber$ = 8					; size = 1
?GetState@CIllusionTempleEvent@@QAEEE@Z PROC		; CIllusionTempleEvent::GetState
; _this$ = ecx

; 789  : {

  01fb0	55		 push	 ebp
  01fb1	8b ec		 mov	 ebp, esp
  01fb3	83 ec 44	 sub	 esp, 68			; 00000044H
  01fb6	53		 push	 ebx
  01fb7	56		 push	 esi
  01fb8	57		 push	 edi
  01fb9	89 4d fc	 mov	 DWORD PTR _this$[ebp], ecx

; 790  : 	return this->m_IllusionTempleProcess[btMapNumber - MAP_INDEX_ILLUSIONTEMPLE_MIN].GetState();

  01fbc	0f b6 45 08	 movzx	 eax, BYTE PTR _btMapNumber$[ebp]
  01fc0	83 e8 2d	 sub	 eax, 45			; 0000002dH
  01fc3	69 c0 f0 03 00
	00		 imul	 eax, 1008		; 000003f0H
  01fc9	8b 4d fc	 mov	 ecx, DWORD PTR _this$[ebp]
  01fcc	8d 4c 01 08	 lea	 ecx, DWORD PTR [ecx+eax+8]
  01fd0	e8 00 00 00 00	 call	 ?GetState@CIllusionTempleProcess@@QAEEXZ ; CIllusionTempleProcess::GetState

; 791  : }

  01fd5	5f		 pop	 edi
  01fd6	5e		 pop	 esi
  01fd7	5b		 pop	 ebx
  01fd8	8b e5		 mov	 esp, ebp
  01fda	5d		 pop	 ebp
  01fdb	c2 04 00	 ret	 4
?GetState@CIllusionTempleEvent@@QAEEE@Z ENDP		; CIllusionTempleEvent::GetState
_TEXT	ENDS
PUBLIC	?CreateNPCPosition@CIllusionTempleEvent@@QAEXEHH@Z ; CIllusionTempleEvent::CreateNPCPosition
EXTRN	?SetNPCPosition@CIllusionTempleProcess@@QAEXHH@Z:PROC ; CIllusionTempleProcess::SetNPCPosition
; Function compile flags: /Odtp /ZI
_TEXT	SEGMENT
tv71 = -72						; size = 4
_this$ = -4						; size = 4
_MapNumber$ = 8						; size = 1
_Class$ = 12						; size = 4
_Position$ = 16						; size = 4
?CreateNPCPosition@CIllusionTempleEvent@@QAEXEHH@Z PROC	; CIllusionTempleEvent::CreateNPCPosition
; _this$ = ecx

; 794  : {

  01fe0	55		 push	 ebp
  01fe1	8b ec		 mov	 ebp, esp
  01fe3	83 ec 48	 sub	 esp, 72			; 00000048H
  01fe6	53		 push	 ebx
  01fe7	56		 push	 esi
  01fe8	57		 push	 edi
  01fe9	89 4d fc	 mov	 DWORD PTR _this$[ebp], ecx

; 795  : 	if( CHECK_LIMIT( (MapNumber - MAP_INDEX_ILLUSIONTEMPLE_MIN), MAX_FLOOR_DATA+1) == FALSE )

  01fec	0f b6 45 08	 movzx	 eax, BYTE PTR _MapNumber$[ebp]
  01ff0	83 e8 2d	 sub	 eax, 45			; 0000002dH
  01ff3	79 09		 jns	 SHORT $LN4@CreateNPCP
  01ff5	c7 45 b8 00 00
	00 00		 mov	 DWORD PTR tv71[ebp], 0
  01ffc	eb 12		 jmp	 SHORT $LN5@CreateNPCP
$LN4@CreateNPCP:
  01ffe	0f b6 4d 08	 movzx	 ecx, BYTE PTR _MapNumber$[ebp]
  02002	83 e9 2d	 sub	 ecx, 45			; 0000002dH
  02005	33 d2		 xor	 edx, edx
  02007	83 f9 05	 cmp	 ecx, 5
  0200a	0f 9e c2	 setle	 dl
  0200d	89 55 b8	 mov	 DWORD PTR tv71[ebp], edx
$LN5@CreateNPCP:
  02010	83 7d b8 00	 cmp	 DWORD PTR tv71[ebp], 0
  02014	75 02		 jne	 SHORT $LN1@CreateNPCP

; 796  : 	{
; 797  : 		return;

  02016	eb 21		 jmp	 SHORT $LN2@CreateNPCP
$LN1@CreateNPCP:

; 798  : 	}
; 799  : 
; 800  : 	this->m_IllusionTempleProcess[MapNumber - MAP_INDEX_ILLUSIONTEMPLE_MIN].SetNPCPosition(Class, Position);

  02018	8b 45 10	 mov	 eax, DWORD PTR _Position$[ebp]
  0201b	50		 push	 eax
  0201c	8b 4d 0c	 mov	 ecx, DWORD PTR _Class$[ebp]
  0201f	51		 push	 ecx
  02020	0f b6 55 08	 movzx	 edx, BYTE PTR _MapNumber$[ebp]
  02024	83 ea 2d	 sub	 edx, 45			; 0000002dH
  02027	69 d2 f0 03 00
	00		 imul	 edx, 1008		; 000003f0H
  0202d	8b 45 fc	 mov	 eax, DWORD PTR _this$[ebp]
  02030	8d 4c 10 08	 lea	 ecx, DWORD PTR [eax+edx+8]
  02034	e8 00 00 00 00	 call	 ?SetNPCPosition@CIllusionTempleProcess@@QAEXHH@Z ; CIllusionTempleProcess::SetNPCPosition
$LN2@CreateNPCP:

; 801  : }

  02039	5f		 pop	 edi
  0203a	5e		 pop	 esi
  0203b	5b		 pop	 ebx
  0203c	8b e5		 mov	 esp, ebp
  0203e	5d		 pop	 ebp
  0203f	c2 0c 00	 ret	 12			; 0000000cH
?CreateNPCPosition@CIllusionTempleEvent@@QAEXEHH@Z ENDP	; CIllusionTempleEvent::CreateNPCPosition
_TEXT	ENDS
PUBLIC	?CreateMonsterPosition@CIllusionTempleEvent@@QAEXEHH@Z ; CIllusionTempleEvent::CreateMonsterPosition
EXTRN	?SetMonsterPosition@CIllusionTempleProcess@@QAEXHH@Z:PROC ; CIllusionTempleProcess::SetMonsterPosition
; Function compile flags: /Odtp /ZI
_TEXT	SEGMENT
tv71 = -72						; size = 4
_this$ = -4						; size = 4
_MapNumber$ = 8						; size = 1
_Class$ = 12						; size = 4
_Position$ = 16						; size = 4
?CreateMonsterPosition@CIllusionTempleEvent@@QAEXEHH@Z PROC ; CIllusionTempleEvent::CreateMonsterPosition
; _this$ = ecx

; 804  : {

  02050	55		 push	 ebp
  02051	8b ec		 mov	 ebp, esp
  02053	83 ec 48	 sub	 esp, 72			; 00000048H
  02056	53		 push	 ebx
  02057	56		 push	 esi
  02058	57		 push	 edi
  02059	89 4d fc	 mov	 DWORD PTR _this$[ebp], ecx

; 805  : 	if( CHECK_LIMIT( (MapNumber - MAP_INDEX_ILLUSIONTEMPLE_MIN), MAX_FLOOR_DATA+1) == FALSE )

  0205c	0f b6 45 08	 movzx	 eax, BYTE PTR _MapNumber$[ebp]
  02060	83 e8 2d	 sub	 eax, 45			; 0000002dH
  02063	79 09		 jns	 SHORT $LN4@CreateMons
  02065	c7 45 b8 00 00
	00 00		 mov	 DWORD PTR tv71[ebp], 0
  0206c	eb 12		 jmp	 SHORT $LN5@CreateMons
$LN4@CreateMons:
  0206e	0f b6 4d 08	 movzx	 ecx, BYTE PTR _MapNumber$[ebp]
  02072	83 e9 2d	 sub	 ecx, 45			; 0000002dH
  02075	33 d2		 xor	 edx, edx
  02077	83 f9 05	 cmp	 ecx, 5
  0207a	0f 9e c2	 setle	 dl
  0207d	89 55 b8	 mov	 DWORD PTR tv71[ebp], edx
$LN5@CreateMons:
  02080	83 7d b8 00	 cmp	 DWORD PTR tv71[ebp], 0
  02084	75 02		 jne	 SHORT $LN1@CreateMons

; 806  : 	{
; 807  : 		return;

  02086	eb 21		 jmp	 SHORT $LN2@CreateMons
$LN1@CreateMons:

; 808  : 	}
; 809  : 
; 810  : 	this->m_IllusionTempleProcess[MapNumber - MAP_INDEX_ILLUSIONTEMPLE_MIN].SetMonsterPosition(Class, Position);

  02088	8b 45 10	 mov	 eax, DWORD PTR _Position$[ebp]
  0208b	50		 push	 eax
  0208c	8b 4d 0c	 mov	 ecx, DWORD PTR _Class$[ebp]
  0208f	51		 push	 ecx
  02090	0f b6 55 08	 movzx	 edx, BYTE PTR _MapNumber$[ebp]
  02094	83 ea 2d	 sub	 edx, 45			; 0000002dH
  02097	69 d2 f0 03 00
	00		 imul	 edx, 1008		; 000003f0H
  0209d	8b 45 fc	 mov	 eax, DWORD PTR _this$[ebp]
  020a0	8d 4c 10 08	 lea	 ecx, DWORD PTR [eax+edx+8]
  020a4	e8 00 00 00 00	 call	 ?SetMonsterPosition@CIllusionTempleProcess@@QAEXHH@Z ; CIllusionTempleProcess::SetMonsterPosition
$LN2@CreateMons:

; 811  : }

  020a9	5f		 pop	 edi
  020aa	5e		 pop	 esi
  020ab	5b		 pop	 ebx
  020ac	8b e5		 mov	 esp, ebp
  020ae	5d		 pop	 ebp
  020af	c2 0c 00	 ret	 12			; 0000000cH
?CreateMonsterPosition@CIllusionTempleEvent@@QAEXEHH@Z ENDP ; CIllusionTempleEvent::CreateMonsterPosition
_TEXT	ENDS
PUBLIC	?AllObjReset@CIllusionTempleEvent@@QAEXXZ	; CIllusionTempleEvent::AllObjReset
EXTRN	?ClearMonstersData@CIllusionTempleProcess@@QAEXXZ:PROC ; CIllusionTempleProcess::ClearMonstersData
; Function compile flags: /Odtp /ZI
_TEXT	SEGMENT
_i$235887 = -8						; size = 4
_this$ = -4						; size = 4
?AllObjReset@CIllusionTempleEvent@@QAEXXZ PROC		; CIllusionTempleEvent::AllObjReset
; _this$ = ecx

; 814  : {

  020c0	55		 push	 ebp
  020c1	8b ec		 mov	 ebp, esp
  020c3	83 ec 48	 sub	 esp, 72			; 00000048H
  020c6	53		 push	 ebx
  020c7	56		 push	 esi
  020c8	57		 push	 edi
  020c9	89 4d fc	 mov	 DWORD PTR _this$[ebp], ecx

; 815  : 	for(int i = 0; i < MAX_FLOOR_DATA+1; i++)

  020cc	c7 45 f8 00 00
	00 00		 mov	 DWORD PTR _i$235887[ebp], 0
  020d3	eb 09		 jmp	 SHORT $LN3@AllObjRese
$LN2@AllObjRese:
  020d5	8b 45 f8	 mov	 eax, DWORD PTR _i$235887[ebp]
  020d8	83 c0 01	 add	 eax, 1
  020db	89 45 f8	 mov	 DWORD PTR _i$235887[ebp], eax
$LN3@AllObjRese:
  020de	83 7d f8 06	 cmp	 DWORD PTR _i$235887[ebp], 6
  020e2	7d 17		 jge	 SHORT $LN4@AllObjRese

; 816  : 	{
; 817  : 		this->m_IllusionTempleProcess[i].ClearMonstersData();

  020e4	8b 45 f8	 mov	 eax, DWORD PTR _i$235887[ebp]
  020e7	69 c0 f0 03 00
	00		 imul	 eax, 1008		; 000003f0H
  020ed	8b 4d fc	 mov	 ecx, DWORD PTR _this$[ebp]
  020f0	8d 4c 01 08	 lea	 ecx, DWORD PTR [ecx+eax+8]
  020f4	e8 00 00 00 00	 call	 ?ClearMonstersData@CIllusionTempleProcess@@QAEXXZ ; CIllusionTempleProcess::ClearMonstersData

; 818  : 	}

  020f9	eb da		 jmp	 SHORT $LN2@AllObjRese
$LN4@AllObjRese:

; 819  : }

  020fb	5f		 pop	 edi
  020fc	5e		 pop	 esi
  020fd	5b		 pop	 ebx
  020fe	8b e5		 mov	 esp, ebp
  02100	5d		 pop	 ebp
  02101	c3		 ret	 0
?AllObjReset@CIllusionTempleEvent@@QAEXXZ ENDP		; CIllusionTempleEvent::AllObjReset
_TEXT	ENDS
PUBLIC	?GetUserJoinSide@CIllusionTempleEvent@@QAEEEH@Z	; CIllusionTempleEvent::GetUserJoinSide
EXTRN	?GetUserJoinSide@CIllusionTempleProcess@@QAEEH@Z:PROC ; CIllusionTempleProcess::GetUserJoinSide
; Function compile flags: /Odtp /ZI
_TEXT	SEGMENT
tv71 = -72						; size = 4
_this$ = -4						; size = 4
_MapNumber$ = 8						; size = 1
_aIndex$ = 12						; size = 4
?GetUserJoinSide@CIllusionTempleEvent@@QAEEEH@Z PROC	; CIllusionTempleEvent::GetUserJoinSide
; _this$ = ecx

; 822  : {

  02110	55		 push	 ebp
  02111	8b ec		 mov	 ebp, esp
  02113	83 ec 48	 sub	 esp, 72			; 00000048H
  02116	53		 push	 ebx
  02117	56		 push	 esi
  02118	57		 push	 edi
  02119	89 4d fc	 mov	 DWORD PTR _this$[ebp], ecx

; 823  : 	if( CHECK_LIMIT( (MapNumber - MAP_INDEX_ILLUSIONTEMPLE_MIN), MAX_FLOOR_DATA+1) == FALSE )

  0211c	0f b6 45 08	 movzx	 eax, BYTE PTR _MapNumber$[ebp]
  02120	83 e8 2d	 sub	 eax, 45			; 0000002dH
  02123	79 09		 jns	 SHORT $LN4@GetUserJoi
  02125	c7 45 b8 00 00
	00 00		 mov	 DWORD PTR tv71[ebp], 0
  0212c	eb 12		 jmp	 SHORT $LN5@GetUserJoi
$LN4@GetUserJoi:
  0212e	0f b6 4d 08	 movzx	 ecx, BYTE PTR _MapNumber$[ebp]
  02132	83 e9 2d	 sub	 ecx, 45			; 0000002dH
  02135	33 d2		 xor	 edx, edx
  02137	83 f9 05	 cmp	 ecx, 5
  0213a	0f 9e c2	 setle	 dl
  0213d	89 55 b8	 mov	 DWORD PTR tv71[ebp], edx
$LN5@GetUserJoi:
  02140	83 7d b8 00	 cmp	 DWORD PTR tv71[ebp], 0
  02144	75 04		 jne	 SHORT $LN1@GetUserJoi

; 824  : 	{
; 825  : 		return -1;

  02146	0c ff		 or	 al, 255			; 000000ffH
  02148	eb 1d		 jmp	 SHORT $LN2@GetUserJoi
$LN1@GetUserJoi:

; 826  : 	}
; 827  : 	return this->m_IllusionTempleProcess[MapNumber - MAP_INDEX_ILLUSIONTEMPLE_MIN].GetUserJoinSide(aIndex);

  0214a	8b 45 0c	 mov	 eax, DWORD PTR _aIndex$[ebp]
  0214d	50		 push	 eax
  0214e	0f b6 4d 08	 movzx	 ecx, BYTE PTR _MapNumber$[ebp]
  02152	83 e9 2d	 sub	 ecx, 45			; 0000002dH
  02155	69 c9 f0 03 00
	00		 imul	 ecx, 1008		; 000003f0H
  0215b	8b 55 fc	 mov	 edx, DWORD PTR _this$[ebp]
  0215e	8d 4c 0a 08	 lea	 ecx, DWORD PTR [edx+ecx+8]
  02162	e8 00 00 00 00	 call	 ?GetUserJoinSide@CIllusionTempleProcess@@QAEEH@Z ; CIllusionTempleProcess::GetUserJoinSide
$LN2@GetUserJoi:

; 828  : }

  02167	5f		 pop	 edi
  02168	5e		 pop	 esi
  02169	5b		 pop	 ebx
  0216a	8b e5		 mov	 esp, ebp
  0216c	5d		 pop	 ebp
  0216d	c2 08 00	 ret	 8
?GetUserJoinSide@CIllusionTempleEvent@@QAEEEH@Z ENDP	; CIllusionTempleEvent::GetUserJoinSide
_TEXT	ENDS
PUBLIC	?SetNpcStatueRegen@CIllusionTempleEvent@@QAEXE@Z ; CIllusionTempleEvent::SetNpcStatueRegen
EXTRN	?SetNpcStatueRegen@CIllusionTempleProcess@@QAEXXZ:PROC ; CIllusionTempleProcess::SetNpcStatueRegen
; Function compile flags: /Odtp /ZI
_TEXT	SEGMENT
tv71 = -72						; size = 4
_this$ = -4						; size = 4
_MapNumber$ = 8						; size = 1
?SetNpcStatueRegen@CIllusionTempleEvent@@QAEXE@Z PROC	; CIllusionTempleEvent::SetNpcStatueRegen
; _this$ = ecx

; 831  : {

  02170	55		 push	 ebp
  02171	8b ec		 mov	 ebp, esp
  02173	83 ec 48	 sub	 esp, 72			; 00000048H
  02176	53		 push	 ebx
  02177	56		 push	 esi
  02178	57		 push	 edi
  02179	89 4d fc	 mov	 DWORD PTR _this$[ebp], ecx

; 832  : 	if( CHECK_LIMIT( (MapNumber - MAP_INDEX_ILLUSIONTEMPLE_MIN), MAX_FLOOR_DATA+1) == FALSE )

  0217c	0f b6 45 08	 movzx	 eax, BYTE PTR _MapNumber$[ebp]
  02180	83 e8 2d	 sub	 eax, 45			; 0000002dH
  02183	79 09		 jns	 SHORT $LN4@SetNpcStat@2
  02185	c7 45 b8 00 00
	00 00		 mov	 DWORD PTR tv71[ebp], 0
  0218c	eb 12		 jmp	 SHORT $LN5@SetNpcStat@2
$LN4@SetNpcStat@2:
  0218e	0f b6 4d 08	 movzx	 ecx, BYTE PTR _MapNumber$[ebp]
  02192	83 e9 2d	 sub	 ecx, 45			; 0000002dH
  02195	33 d2		 xor	 edx, edx
  02197	83 f9 05	 cmp	 ecx, 5
  0219a	0f 9e c2	 setle	 dl
  0219d	89 55 b8	 mov	 DWORD PTR tv71[ebp], edx
$LN5@SetNpcStat@2:
  021a0	83 7d b8 00	 cmp	 DWORD PTR tv71[ebp], 0
  021a4	75 02		 jne	 SHORT $LN1@SetNpcStat@2

; 833  : 	{
; 834  : 		return;

  021a6	eb 19		 jmp	 SHORT $LN2@SetNpcStat@2
$LN1@SetNpcStat@2:

; 835  : 	}
; 836  : 
; 837  : 	this->m_IllusionTempleProcess[MapNumber - MAP_INDEX_ILLUSIONTEMPLE_MIN].SetNpcStatueRegen();

  021a8	0f b6 45 08	 movzx	 eax, BYTE PTR _MapNumber$[ebp]
  021ac	83 e8 2d	 sub	 eax, 45			; 0000002dH
  021af	69 c0 f0 03 00
	00		 imul	 eax, 1008		; 000003f0H
  021b5	8b 4d fc	 mov	 ecx, DWORD PTR _this$[ebp]
  021b8	8d 4c 01 08	 lea	 ecx, DWORD PTR [ecx+eax+8]
  021bc	e8 00 00 00 00	 call	 ?SetNpcStatueRegen@CIllusionTempleProcess@@QAEXXZ ; CIllusionTempleProcess::SetNpcStatueRegen
$LN2@SetNpcStat@2:

; 838  : }

  021c1	5f		 pop	 edi
  021c2	5e		 pop	 esi
  021c3	5b		 pop	 ebx
  021c4	8b e5		 mov	 esp, ebp
  021c6	5d		 pop	 ebp
  021c7	c2 04 00	 ret	 4
?SetNpcStatueRegen@CIllusionTempleEvent@@QAEXE@Z ENDP	; CIllusionTempleEvent::SetNpcStatueRegen
_TEXT	ENDS
PUBLIC	?IllusionTempleChaosMix@CIllusionTempleEvent@@QAEEHHH@Z ; CIllusionTempleEvent::IllusionTempleChaosMix
PUBLIC	?CheckLuckyTalisman@CIllusionTempleEvent@@QAEHH@Z ; CIllusionTempleEvent::CheckLuckyTalisman
PUBLIC	?CheckChoasMixItem@CIllusionTempleEvent@@QAEHH@Z ; CIllusionTempleEvent::CheckChoasMixItem
PUBLIC	__$ArrayPad$
PUBLIC	?TicketChaosMix@CIllusionTempleEvent@@QAEXPAUOBJECTSTRUCT@@@Z ; CIllusionTempleEvent::TicketChaosMix
; Function compile flags: /Odtp /ZI
_TEXT	SEGMENT
tv90 = -104						; size = 4
tv80 = -104						; size = 4
_iRET_VAL$ = -36					; size = 4
_ebp18$ = -32						; size = 4
_aIndex$ = -28						; size = 4
_pMsg$ = -24						; size = 16
_this$ = -8						; size = 4
__$ArrayPad$ = -4					; size = 4
_lpObj$ = 8						; size = 4
?TicketChaosMix@CIllusionTempleEvent@@QAEXPAUOBJECTSTRUCT@@@Z PROC ; CIllusionTempleEvent::TicketChaosMix
; _this$ = ecx

; 841  : {

  021d0	55		 push	 ebp
  021d1	8b ec		 mov	 ebp, esp
  021d3	83 ec 68	 sub	 esp, 104		; 00000068H
  021d6	a1 00 00 00 00	 mov	 eax, DWORD PTR ___security_cookie
  021db	33 c5		 xor	 eax, ebp
  021dd	89 45 fc	 mov	 DWORD PTR __$ArrayPad$[ebp], eax
  021e0	53		 push	 ebx
  021e1	56		 push	 esi
  021e2	57		 push	 edi
  021e3	89 4d f8	 mov	 DWORD PTR _this$[ebp], ecx

; 842  : 	lpObj->ChaosLock = TRUE;

  021e6	8b 45 08	 mov	 eax, DWORD PTR _lpObj$[ebp]
  021e9	c7 80 88 0e 00
	00 01 00 00 00	 mov	 DWORD PTR [eax+3720], 1

; 843  : 
; 844  : 	PMSG_CHAOSMIXRESULT pMsg;
; 845  : 	PHeadSetB((LPBYTE)&pMsg.h, 0x86, sizeof(PMSG_CHAOSMIXRESULT));

  021f3	6a 10		 push	 16			; 00000010H
  021f5	68 86 00 00 00	 push	 134			; 00000086H
  021fa	8d 45 e8	 lea	 eax, DWORD PTR _pMsg$[ebp]
  021fd	50		 push	 eax
  021fe	e8 00 00 00 00	 call	 ?PHeadSetB@@YAXPAEEH@Z	; PHeadSetB
  02203	83 c4 0c	 add	 esp, 12			; 0000000cH

; 846  : 	pMsg.Result = CB_ERROR;

  02206	c6 45 eb 00	 mov	 BYTE PTR _pMsg$[ebp+3], 0

; 847  : 
; 848  : 	int aIndex;
; 849  : 	int ebp18;
; 850  : 	int iRET_VAL;
; 851  : 
; 852  : 	aIndex = lpObj->m_Index;

  0220a	8b 45 08	 mov	 eax, DWORD PTR _lpObj$[ebp]
  0220d	8b 08		 mov	 ecx, DWORD PTR [eax]
  0220f	89 4d e4	 mov	 DWORD PTR _aIndex$[ebp], ecx

; 853  : 	ebp18 = 0;

  02212	c7 45 e0 00 00
	00 00		 mov	 DWORD PTR _ebp18$[ebp], 0

; 854  : 	iRET_VAL = this->CheckChoasMixItem(aIndex);

  02219	8b 45 e4	 mov	 eax, DWORD PTR _aIndex$[ebp]
  0221c	50		 push	 eax
  0221d	8b 4d f8	 mov	 ecx, DWORD PTR _this$[ebp]
  02220	e8 00 00 00 00	 call	 ?CheckChoasMixItem@CIllusionTempleEvent@@QAEHH@Z ; CIllusionTempleEvent::CheckChoasMixItem
  02225	89 45 dc	 mov	 DWORD PTR _iRET_VAL$[ebp], eax

; 855  : 	ebp18 = this->CheckLuckyTalisman(aIndex);

  02228	8b 45 e4	 mov	 eax, DWORD PTR _aIndex$[ebp]
  0222b	50		 push	 eax
  0222c	8b 4d f8	 mov	 ecx, DWORD PTR _this$[ebp]
  0222f	e8 00 00 00 00	 call	 ?CheckLuckyTalisman@CIllusionTempleEvent@@QAEHH@Z ; CIllusionTempleEvent::CheckLuckyTalisman
  02234	89 45 e0	 mov	 DWORD PTR _ebp18$[ebp], eax

; 856  : 
; 857  : 	if(ebp18 > 10)

  02237	83 7d e0 0a	 cmp	 DWORD PTR _ebp18$[ebp], 10 ; 0000000aH
  0223b	7e 07		 jle	 SHORT $LN13@TicketChao

; 858  : 	{
; 859  : 		iRET_VAL = 15;

  0223d	c7 45 dc 0f 00
	00 00		 mov	 DWORD PTR _iRET_VAL$[ebp], 15 ; 0000000fH
$LN13@TicketChao:

; 860  : 	}
; 861  : 
; 862  : 	if ( IT_MAP_RANGE((iRET_VAL+(MAP_INDEX_ILLUSIONTEMPLE_MIN-1))) != FALSE )

  02244	8b 45 dc	 mov	 eax, DWORD PTR _iRET_VAL$[ebp]
  02247	83 c0 2c	 add	 eax, 44			; 0000002cH
  0224a	83 f8 2d	 cmp	 eax, 45			; 0000002dH
  0224d	7d 09		 jge	 SHORT $LN16@TicketChao
  0224f	c7 45 98 00 00
	00 00		 mov	 DWORD PTR tv80[ebp], 0
  02256	eb 11		 jmp	 SHORT $LN17@TicketChao
$LN16@TicketChao:
  02258	8b 4d dc	 mov	 ecx, DWORD PTR _iRET_VAL$[ebp]
  0225b	83 c1 2c	 add	 ecx, 44			; 0000002cH
  0225e	33 d2		 xor	 edx, edx
  02260	83 f9 32	 cmp	 ecx, 50			; 00000032H
  02263	0f 9e c2	 setle	 dl
  02266	89 55 98	 mov	 DWORD PTR tv80[ebp], edx
$LN17@TicketChao:
  02269	83 7d 98 00	 cmp	 DWORD PTR tv80[ebp], 0
  0226d	74 2d		 je	 SHORT $LN12@TicketChao

; 863  : 	{
; 864  : 		if(this->IllusionTempleChaosMix(aIndex, iRET_VAL, ebp18) == FALSE)

  0226f	8b 45 e0	 mov	 eax, DWORD PTR _ebp18$[ebp]
  02272	50		 push	 eax
  02273	8b 4d dc	 mov	 ecx, DWORD PTR _iRET_VAL$[ebp]
  02276	51		 push	 ecx
  02277	8b 55 e4	 mov	 edx, DWORD PTR _aIndex$[ebp]
  0227a	52		 push	 edx
  0227b	8b 4d f8	 mov	 ecx, DWORD PTR _this$[ebp]
  0227e	e8 00 00 00 00	 call	 ?IllusionTempleChaosMix@CIllusionTempleEvent@@QAEEHHH@Z ; CIllusionTempleEvent::IllusionTempleChaosMix
  02283	0f b6 c0	 movzx	 eax, al
  02286	85 c0		 test	 eax, eax
  02288	75 0d		 jne	 SHORT $LN11@TicketChao

; 865  : 		{
; 866  : 			lpObj->ChaosLock = FALSE;

  0228a	8b 45 08	 mov	 eax, DWORD PTR _lpObj$[ebp]
  0228d	c7 80 88 0e 00
	00 00 00 00 00	 mov	 DWORD PTR [eax+3720], 0
$LN11@TicketChao:

; 867  : 		}
; 868  : 		return;

  02297	e9 54 01 00 00	 jmp	 $LN14@TicketChao
$LN12@TicketChao:

; 869  : 	}
; 870  : 
; 871  : 	switch ( iRET_VAL )

  0229c	8b 45 dc	 mov	 eax, DWORD PTR _iRET_VAL$[ebp]
  0229f	89 45 98	 mov	 DWORD PTR tv90[ebp], eax
  022a2	8b 4d 98	 mov	 ecx, DWORD PTR tv90[ebp]
  022a5	83 e9 09	 sub	 ecx, 9
  022a8	89 4d 98	 mov	 DWORD PTR tv90[ebp], ecx
  022ab	83 7d 98 06	 cmp	 DWORD PTR tv90[ebp], 6
  022af	0f 87 2e 01 00
	00		 ja	 $LN1@TicketChao
  022b5	8b 55 98	 mov	 edx, DWORD PTR tv90[ebp]
  022b8	ff 24 95 00 00
	00 00		 jmp	 DWORD PTR $LN18@TicketChao[edx*4]
$LN8@TicketChao:

; 872  : 	{
; 873  : 		case 9:
; 874  : 			pMsg.Result = CB_NO_BC_CORRECT_ITEMS	;

  022bf	c6 45 eb 0a	 mov	 BYTE PTR _pMsg$[ebp+3], 10 ; 0000000aH

; 875  : 			DataSend(aIndex, (LPBYTE)&pMsg, pMsg.h.size);

  022c3	0f b6 45 e9	 movzx	 eax, BYTE PTR _pMsg$[ebp+1]
  022c7	50		 push	 eax
  022c8	8d 4d e8	 lea	 ecx, DWORD PTR _pMsg$[ebp]
  022cb	51		 push	 ecx
  022cc	8b 55 e4	 mov	 edx, DWORD PTR _aIndex$[ebp]
  022cf	52		 push	 edx
  022d0	e8 00 00 00 00	 call	 ?DataSend@@YAHHPAEK@Z	; DataSend
  022d5	83 c4 0c	 add	 esp, 12			; 0000000cH

; 876  : 			lpObj->m_Index;
; 877  : 			lpObj->ChaosLock = FALSE;

  022d8	8b 45 08	 mov	 eax, DWORD PTR _lpObj$[ebp]
  022db	c7 80 88 0e 00
	00 00 00 00 00	 mov	 DWORD PTR [eax+3720], 0

; 878  : 			break;

  022e5	e9 06 01 00 00	 jmp	 $LN14@TicketChao
$LN7@TicketChao:

; 879  : 
; 880  : 		case 10:
; 881  : 			pMsg.Result = CB_NO_BC_CORRECT_ITEMS	;

  022ea	c6 45 eb 0a	 mov	 BYTE PTR _pMsg$[ebp+3], 10 ; 0000000aH

; 882  : 			DataSend(aIndex, (LPBYTE)&pMsg, pMsg.h.size);

  022ee	0f b6 45 e9	 movzx	 eax, BYTE PTR _pMsg$[ebp+1]
  022f2	50		 push	 eax
  022f3	8d 4d e8	 lea	 ecx, DWORD PTR _pMsg$[ebp]
  022f6	51		 push	 ecx
  022f7	8b 55 e4	 mov	 edx, DWORD PTR _aIndex$[ebp]
  022fa	52		 push	 edx
  022fb	e8 00 00 00 00	 call	 ?DataSend@@YAHHPAEK@Z	; DataSend
  02300	83 c4 0c	 add	 esp, 12			; 0000000cH

; 883  : 			lpObj->m_Index;
; 884  : 			lpObj->ChaosLock = FALSE;

  02303	8b 45 08	 mov	 eax, DWORD PTR _lpObj$[ebp]
  02306	c7 80 88 0e 00
	00 00 00 00 00	 mov	 DWORD PTR [eax+3720], 0

; 885  : 			break;

  02310	e9 db 00 00 00	 jmp	 $LN14@TicketChao
$LN6@TicketChao:

; 886  : 
; 887  : 		case 11:
; 888  : 			pMsg.Result = CB_NO_BC_CORRECT_ITEMS	;

  02315	c6 45 eb 0a	 mov	 BYTE PTR _pMsg$[ebp+3], 10 ; 0000000aH

; 889  : 			DataSend(aIndex, (LPBYTE)&pMsg, pMsg.h.size);

  02319	0f b6 45 e9	 movzx	 eax, BYTE PTR _pMsg$[ebp+1]
  0231d	50		 push	 eax
  0231e	8d 4d e8	 lea	 ecx, DWORD PTR _pMsg$[ebp]
  02321	51		 push	 ecx
  02322	8b 55 e4	 mov	 edx, DWORD PTR _aIndex$[ebp]
  02325	52		 push	 edx
  02326	e8 00 00 00 00	 call	 ?DataSend@@YAHHPAEK@Z	; DataSend
  0232b	83 c4 0c	 add	 esp, 12			; 0000000cH

; 890  : 			lpObj->m_Index;
; 891  : 			lpObj->ChaosLock = FALSE;

  0232e	8b 45 08	 mov	 eax, DWORD PTR _lpObj$[ebp]
  02331	c7 80 88 0e 00
	00 00 00 00 00	 mov	 DWORD PTR [eax+3720], 0

; 892  : 			break;

  0233b	e9 b0 00 00 00	 jmp	 $LN14@TicketChao
$LN5@TicketChao:

; 893  : 
; 894  : 		case 12:
; 895  : 			pMsg.Result = CB_INVALID_ITEM_LEVEL	;

  02340	c6 45 eb 08	 mov	 BYTE PTR _pMsg$[ebp+3], 8

; 896  : 			DataSend(aIndex, (LPBYTE)&pMsg, pMsg.h.size);

  02344	0f b6 45 e9	 movzx	 eax, BYTE PTR _pMsg$[ebp+1]
  02348	50		 push	 eax
  02349	8d 4d e8	 lea	 ecx, DWORD PTR _pMsg$[ebp]
  0234c	51		 push	 ecx
  0234d	8b 55 e4	 mov	 edx, DWORD PTR _aIndex$[ebp]
  02350	52		 push	 edx
  02351	e8 00 00 00 00	 call	 ?DataSend@@YAHHPAEK@Z	; DataSend
  02356	83 c4 0c	 add	 esp, 12			; 0000000cH

; 897  : 			lpObj->m_Index;
; 898  : 			lpObj->ChaosLock = FALSE;

  02359	8b 45 08	 mov	 eax, DWORD PTR _lpObj$[ebp]
  0235c	c7 80 88 0e 00
	00 00 00 00 00	 mov	 DWORD PTR [eax+3720], 0

; 899  : 			break;

  02366	e9 85 00 00 00	 jmp	 $LN14@TicketChao
$LN4@TicketChao:

; 900  : 
; 901  : 		case 13:
; 902  : 			pMsg.Result = CB_BC_NOT_ENOUGH_ZEN	;

  0236b	c6 45 eb 0b	 mov	 BYTE PTR _pMsg$[ebp+3], 11 ; 0000000bH

; 903  : 			DataSend(aIndex, (LPBYTE)&pMsg, pMsg.h.size);

  0236f	0f b6 45 e9	 movzx	 eax, BYTE PTR _pMsg$[ebp+1]
  02373	50		 push	 eax
  02374	8d 4d e8	 lea	 ecx, DWORD PTR _pMsg$[ebp]
  02377	51		 push	 ecx
  02378	8b 55 e4	 mov	 edx, DWORD PTR _aIndex$[ebp]
  0237b	52		 push	 edx
  0237c	e8 00 00 00 00	 call	 ?DataSend@@YAHHPAEK@Z	; DataSend
  02381	83 c4 0c	 add	 esp, 12			; 0000000cH

; 904  : 			lpObj->m_Index;
; 905  : 			lpObj->ChaosLock = FALSE;

  02384	8b 45 08	 mov	 eax, DWORD PTR _lpObj$[ebp]
  02387	c7 80 88 0e 00
	00 00 00 00 00	 mov	 DWORD PTR [eax+3720], 0

; 906  : 			break;

  02391	eb 5d		 jmp	 SHORT $LN14@TicketChao
$LN3@TicketChao:

; 907  : 
; 908  : 		case 14:
; 909  : 			pMsg.Result = CB_USER_CLASS_LOW_LEVEL	;

  02393	c6 45 eb 09	 mov	 BYTE PTR _pMsg$[ebp+3], 9

; 910  : 			DataSend(aIndex, (LPBYTE)&pMsg, pMsg.h.size);

  02397	0f b6 45 e9	 movzx	 eax, BYTE PTR _pMsg$[ebp+1]
  0239b	50		 push	 eax
  0239c	8d 4d e8	 lea	 ecx, DWORD PTR _pMsg$[ebp]
  0239f	51		 push	 ecx
  023a0	8b 55 e4	 mov	 edx, DWORD PTR _aIndex$[ebp]
  023a3	52		 push	 edx
  023a4	e8 00 00 00 00	 call	 ?DataSend@@YAHHPAEK@Z	; DataSend
  023a9	83 c4 0c	 add	 esp, 12			; 0000000cH

; 911  : 			lpObj->m_Index;
; 912  : 			lpObj->ChaosLock = FALSE;

  023ac	8b 45 08	 mov	 eax, DWORD PTR _lpObj$[ebp]
  023af	c7 80 88 0e 00
	00 00 00 00 00	 mov	 DWORD PTR [eax+3720], 0

; 913  : 			break;

  023b9	eb 35		 jmp	 SHORT $LN14@TicketChao
$LN2@TicketChao:

; 914  : 		case 15:
; 915  : 			pMsg.Result = 0xF0;

  023bb	c6 45 eb f0	 mov	 BYTE PTR _pMsg$[ebp+3], 240 ; 000000f0H

; 916  : 			DataSend(aIndex, (LPBYTE)&pMsg, pMsg.h.size);

  023bf	0f b6 45 e9	 movzx	 eax, BYTE PTR _pMsg$[ebp+1]
  023c3	50		 push	 eax
  023c4	8d 4d e8	 lea	 ecx, DWORD PTR _pMsg$[ebp]
  023c7	51		 push	 ecx
  023c8	8b 55 e4	 mov	 edx, DWORD PTR _aIndex$[ebp]
  023cb	52		 push	 edx
  023cc	e8 00 00 00 00	 call	 ?DataSend@@YAHHPAEK@Z	; DataSend
  023d1	83 c4 0c	 add	 esp, 12			; 0000000cH

; 917  : 			lpObj->ChaosLock = FALSE;

  023d4	8b 45 08	 mov	 eax, DWORD PTR _lpObj$[ebp]
  023d7	c7 80 88 0e 00
	00 00 00 00 00	 mov	 DWORD PTR [eax+3720], 0

; 918  : 			break;

  023e1	eb 0d		 jmp	 SHORT $LN14@TicketChao
$LN1@TicketChao:

; 919  : 		default:
; 920  : 			lpObj->ChaosLock = FALSE;

  023e3	8b 45 08	 mov	 eax, DWORD PTR _lpObj$[ebp]
  023e6	c7 80 88 0e 00
	00 00 00 00 00	 mov	 DWORD PTR [eax+3720], 0
$LN14@TicketChao:

; 921  : 	}
; 922  : }

  023f0	5f		 pop	 edi
  023f1	5e		 pop	 esi
  023f2	5b		 pop	 ebx
  023f3	8b 4d fc	 mov	 ecx, DWORD PTR __$ArrayPad$[ebp]
  023f6	33 cd		 xor	 ecx, ebp
  023f8	e8 00 00 00 00	 call	 @__security_check_cookie@4
  023fd	8b e5		 mov	 esp, ebp
  023ff	5d		 pop	 ebp
  02400	c2 04 00	 ret	 4
  02403	90		 npad	 1
$LN18@TicketChao:
  02404	00 00 00 00	 DD	 $LN8@TicketChao
  02408	00 00 00 00	 DD	 $LN7@TicketChao
  0240c	00 00 00 00	 DD	 $LN6@TicketChao
  02410	00 00 00 00	 DD	 $LN5@TicketChao
  02414	00 00 00 00	 DD	 $LN4@TicketChao
  02418	00 00 00 00	 DD	 $LN3@TicketChao
  0241c	00 00 00 00	 DD	 $LN2@TicketChao
?TicketChaosMix@CIllusionTempleEvent@@QAEXPAUOBJECTSTRUCT@@@Z ENDP ; CIllusionTempleEvent::TicketChaosMix
_TEXT	ENDS
PUBLIC	??_C@_0EJ@CFKLBJNP@?$FL?G?G?$MA?G?5?$LF?N?$LH?g?$LI?$LG?$LI?$KO?5Mix?$FN?5?$FL?$CFs?$FN?$FL?$CFs?$FN?5CBM@ ; `string'
PUBLIC	??_C@_0EM@FKKOGKNO@?$FL?G?G?$MA?G?5?$LF?N?$LH?g?$LI?$LG?$LI?$KO?5Mix?$FN?5?$FL?$CFs?$FN?$FL?$CFs?$FN?5CBM@ ; `string'
PUBLIC	??_C@_0GI@KCIMIBDH@?$FLIllusion?5Temple?$FN?5?G?G?$MA?G?5?$LF?N?$LH?g?$LI?$LG?$LI?$KO?5@ ; `string'
PUBLIC	??_C@_0GE@DFBGLPMI@?$FLIllusion?5Temple?$FN?5?G?G?$MA?G?5?$LF?N?$LH?g?$LI?$LG?$LI?$KO?5@ ; `string'
PUBLIC	??_C@_0GM@COJEOJKJ@?$FLIllusion?5Temple?$FN?5?G?G?$MA?G?5?$LF?N?$LH?g?$LI?$LG?$LI?$KO?5@ ; `string'
PUBLIC	??_C@_0BF@BJNLBONB@?G?G?$MA?G?5?$LF?N?$LH?g?$LI?$LG?$LI?$KO?5Mix?0?$CFd?$AA@ ; `string'
PUBLIC	??_C@_0FE@BHIHACNF@?$FLIllusion?5Temple?$FN?5?G?G?$MA?G?5?$LF?N?$LH?g?$LI?$LG?$LI?$KO?5@ ; `string'
PUBLIC	__$ArrayPad$
EXTRN	?gObjInventoryCommit@@YAHH@Z:PROC		; gObjInventoryCommit
EXTRN	?GCUserChaosBoxSend@@YAXPAUOBJECTSTRUCT@@H@Z:PROC ; GCUserChaosBoxSend
EXTRN	?ChaosBoxInit@CMixSystem@@QAEHPAUOBJECTSTRUCT@@@Z:PROC ; CMixSystem::ChaosBoxInit
EXTRN	?ItemSerialCreateSend@@YAXHEEEHEEEEEHEE@Z:PROC	; ItemSerialCreateSend
EXTRN	_rand:PROC
EXTRN	?GCMoneySend@@YAXHK@Z:PROC			; GCMoneySend
EXTRN	?AddTributeMoney@CCastleSiegeSync@@QAEXH@Z:PROC	; CCastleSiegeSync::AddTributeMoney
EXTRN	?GetTaxRateChaos@CCastleSiegeSync@@QAEHH@Z:PROC	; CCastleSiegeSync::GetTaxRateChaos
EXTRN	?g_CastleSiegeSync@@3VCCastleSiegeSync@@A:BYTE	; g_CastleSiegeSync
EXTRN	?GetPlusChaosRate@CCrywolfSync@@QAEHXZ:PROC	; CCrywolfSync::GetPlusChaosRate
EXTRN	?g_iCrywolfApplyMvpBenefit@@3HA:DWORD		; g_iCrywolfApplyMvpBenefit
EXTRN	?GetOccupationState@CCrywolfSync@@QAEHXZ:PROC	; CCrywolfSync::GetOccupationState
EXTRN	?g_CrywolfSync@@3VCCrywolfSync@@A:BYTE		; g_CrywolfSync
EXTRN	?LogChaosItem@CMixSystem@@QAEXPAUOBJECTSTRUCT@@PAD@Z:PROC ; CMixSystem::LogChaosItem
EXTRN	?g_MixSystem@@3VCMixSystem@@A:BYTE		; g_MixSystem
EXTRN	__imp__wsprintfA:PROC
EXTRN	__alldiv:PROC
EXTRN	__allmul:PROC
;	COMDAT ??_C@_0EJ@CFKLBJNP@?$FL?G?G?$MA?G?5?$LF?N?$LH?g?$LI?$LG?$LI?$KO?5Mix?$FN?5?$FL?$CFs?$FN?$FL?$CFs?$FN?5CBM@
CONST	SEGMENT
??_C@_0EJ@CFKLBJNP@?$FL?G?G?$MA?G?5?$LF?N?$LH?g?$LI?$LG?$LI?$KO?5Mix?$FN?5?$FL?$CFs?$FN?$FL?$CFs?$FN?5CBM@ DB '['
	DB	0c7H, 0c7H, 0c0H, 0c7H, ' ', 0b5H, 0ceH, 0b7H, 0e7H, 0b8H, 0b6H
	DB	0b8H, 0aeH, ' Mix] [%s][%s] CBMix Fail %d Money : %d-%d, Charm'
	DB	'Rate : %d', 00H				; `string'
CONST	ENDS
;	COMDAT ??_C@_0EM@FKKOGKNO@?$FL?G?G?$MA?G?5?$LF?N?$LH?g?$LI?$LG?$LI?$KO?5Mix?$FN?5?$FL?$CFs?$FN?$FL?$CFs?$FN?5CBM@
CONST	SEGMENT
??_C@_0EM@FKKOGKNO@?$FL?G?G?$MA?G?5?$LF?N?$LH?g?$LI?$LG?$LI?$KO?5Mix?$FN?5?$FL?$CFs?$FN?$FL?$CFs?$FN?5CBM@ DB '['
	DB	0c7H, 0c7H, 0c0H, 0c7H, ' ', 0b5H, 0ceH, 0b7H, 0e7H, 0b8H, 0b6H
	DB	0b8H, 0aeH, ' Mix] [%s][%s] CBMix Success %d Money : %d-%d, Ch'
	DB	'armRate : %d', 00H				; `string'
CONST	ENDS
;	COMDAT ??_C@_0GI@KCIMIBDH@?$FLIllusion?5Temple?$FN?5?G?G?$MA?G?5?$LF?N?$LH?g?$LI?$LG?$LI?$KO?5@
CONST	SEGMENT
??_C@_0GI@KCIMIBDH@?$FLIllusion?5Temple?$FN?5?G?G?$MA?G?5?$LF?N?$LH?g?$LI?$LG?$LI?$KO?5@ DB '['
	DB	'Illusion Temple] ', 0c7H, 0c7H, 0c0H, 0c7H, ' ', 0b5H, 0ceH, 0b7H
	DB	0e7H, 0b8H, 0b6H, 0b8H, 0aeH, ' Mix Chaos Mix Failed - Not Eno'
	DB	'ugh Money (Account:%s, Name:%s, Level:%d)', 00H ; `string'
CONST	ENDS
;	COMDAT ??_C@_0GE@DFBGLPMI@?$FLIllusion?5Temple?$FN?5?G?G?$MA?G?5?$LF?N?$LH?g?$LI?$LG?$LI?$KO?5@
CONST	SEGMENT
??_C@_0GE@DFBGLPMI@?$FLIllusion?5Temple?$FN?5?G?G?$MA?G?5?$LF?N?$LH?g?$LI?$LG?$LI?$KO?5@ DB '['
	DB	'Illusion Temple] ', 0c7H, 0c7H, 0c0H, 0c7H, ' ', 0b5H, 0ceH, 0b7H
	DB	0e7H, 0b8H, 0b6H, 0b8H, 0aeH, ' Mix Chaos Mix Failed - MixMone'
	DB	'y < 0 (Account:%s, Name:%s, Level:%d)', 00H	; `string'
CONST	ENDS
;	COMDAT ??_C@_0GM@COJEOJKJ@?$FLIllusion?5Temple?$FN?5?G?G?$MA?G?5?$LF?N?$LH?g?$LI?$LG?$LI?$KO?5@
CONST	SEGMENT
??_C@_0GM@COJEOJKJ@?$FLIllusion?5Temple?$FN?5?G?G?$MA?G?5?$LF?N?$LH?g?$LI?$LG?$LI?$KO?5@ DB '['
	DB	'Illusion Temple] ', 0c7H, 0c7H, 0c0H, 0c7H, ' ', 0b5H, 0ceH, 0b7H
	DB	0e7H, 0b8H, 0b6H, 0b8H, 0aeH, ' Mix Chaos Mix Failed - MixRate'
	DB	' Out of Bound (Account:%s, Name:%s, Level:%d)', 00H ; `string'
CONST	ENDS
;	COMDAT ??_C@_0BF@BJNLBONB@?G?G?$MA?G?5?$LF?N?$LH?g?$LI?$LG?$LI?$KO?5Mix?0?$CFd?$AA@
CONST	SEGMENT
??_C@_0BF@BJNLBONB@?G?G?$MA?G?5?$LF?N?$LH?g?$LI?$LG?$LI?$KO?5Mix?0?$CFd?$AA@ DB 0c7H
	DB	0c7H, 0c0H, 0c7H, ' ', 0b5H, 0ceH, 0b7H, 0e7H, 0b8H, 0b6H, 0b8H
	DB	0aeH, ' Mix,%d', 00H				; `string'
CONST	ENDS
;	COMDAT ??_C@_0FE@BHIHACNF@?$FLIllusion?5Temple?$FN?5?G?G?$MA?G?5?$LF?N?$LH?g?$LI?$LG?$LI?$KO?5@
CONST	SEGMENT
??_C@_0FE@BHIHACNF@?$FLIllusion?5Temple?$FN?5?G?G?$MA?G?5?$LF?N?$LH?g?$LI?$LG?$LI?$KO?5@ DB '['
	DB	'Illusion Temple] ', 0c7H, 0c7H, 0c0H, 0c7H, ' ', 0b5H, 0ceH, 0b7H
	DB	0e7H, 0b8H, 0b6H, 0b8H, 0aeH, ' Mix Chaos Mix Start (Account:%'
	DB	's, Name:%s, Level:%d)', 00H			; `string'
; Function compile flags: /Odtp /ZI
CONST	ENDS
_TEXT	SEGMENT
tv74 = -132						; size = 4
tv67 = -132						; size = 4
_item_num$235969 = -64					; size = 4
_iChaosTaxMoney$ = -60					; size = 4
_iMIX_NEED_MONEY$ = -56					; size = 4
_iMIX_SUCCESS_RATE$ = -52				; size = 4
_szTemp$ = -48						; size = 17
_pMsg$ = -28						; size = 16
_loc2$ = -12						; size = 4
_this$ = -8						; size = 4
__$ArrayPad$ = -4					; size = 4
_arg1$ = 8						; size = 4
_arg2$ = 12						; size = 4
_arg3$ = 16						; size = 4
?IllusionTempleChaosMix@CIllusionTempleEvent@@QAEEHHH@Z PROC ; CIllusionTempleEvent::IllusionTempleChaosMix
; _this$ = ecx

; 925  : {

  02420	55		 push	 ebp
  02421	8b ec		 mov	 ebp, esp
  02423	81 ec 84 00 00
	00		 sub	 esp, 132		; 00000084H
  02429	a1 00 00 00 00	 mov	 eax, DWORD PTR ___security_cookie
  0242e	33 c5		 xor	 eax, ebp
  02430	89 45 fc	 mov	 DWORD PTR __$ArrayPad$[ebp], eax
  02433	53		 push	 ebx
  02434	56		 push	 esi
  02435	57		 push	 edi
  02436	89 4d f8	 mov	 DWORD PTR _this$[ebp], ecx

; 926  : 	if( OBJMAX_RANGE(arg1) == FALSE )

  02439	83 7d 08 00	 cmp	 DWORD PTR _arg1$[ebp], 0
  0243d	7d 0c		 jge	 SHORT $LN13@IllusionTe@2
  0243f	c7 85 7c ff ff
	ff 00 00 00 00	 mov	 DWORD PTR tv67[ebp], 0
  02449	eb 12		 jmp	 SHORT $LN14@IllusionTe@2
$LN13@IllusionTe@2:
  0244b	33 c0		 xor	 eax, eax
  0244d	81 7d 08 97 3a
	00 00		 cmp	 DWORD PTR _arg1$[ebp], 14999 ; 00003a97H
  02454	0f 9e c0	 setle	 al
  02457	89 85 7c ff ff
	ff		 mov	 DWORD PTR tv67[ebp], eax
$LN14@IllusionTe@2:
  0245d	83 bd 7c ff ff
	ff 00		 cmp	 DWORD PTR tv67[ebp], 0
  02464	75 07		 jne	 SHORT $LN10@IllusionTe@2

; 927  : 	{
; 928  : 		return FALSE;

  02466	32 c0		 xor	 al, al
  02468	e9 57 04 00 00	 jmp	 $LN11@IllusionTe@2
$LN10@IllusionTe@2:

; 929  : 	}
; 930  : 
; 931  : 	if ( IT_MAP_RANGE((arg2+(MAP_INDEX_ILLUSIONTEMPLE_MIN-1))) == FALSE )

  0246d	8b 45 0c	 mov	 eax, DWORD PTR _arg2$[ebp]
  02470	83 c0 2c	 add	 eax, 44			; 0000002cH
  02473	83 f8 2d	 cmp	 eax, 45			; 0000002dH
  02476	7d 0c		 jge	 SHORT $LN15@IllusionTe@2
  02478	c7 85 7c ff ff
	ff 00 00 00 00	 mov	 DWORD PTR tv74[ebp], 0
  02482	eb 14		 jmp	 SHORT $LN16@IllusionTe@2
$LN15@IllusionTe@2:
  02484	8b 4d 0c	 mov	 ecx, DWORD PTR _arg2$[ebp]
  02487	83 c1 2c	 add	 ecx, 44			; 0000002cH
  0248a	33 d2		 xor	 edx, edx
  0248c	83 f9 32	 cmp	 ecx, 50			; 00000032H
  0248f	0f 9e c2	 setle	 dl
  02492	89 95 7c ff ff
	ff		 mov	 DWORD PTR tv74[ebp], edx
$LN16@IllusionTe@2:
  02498	83 bd 7c ff ff
	ff 00		 cmp	 DWORD PTR tv74[ebp], 0
  0249f	75 07		 jne	 SHORT $LN9@IllusionTe@2

; 932  : 	{
; 933  : 		return FALSE;

  024a1	32 c0		 xor	 al, al
  024a3	e9 1c 04 00 00	 jmp	 $LN11@IllusionTe@2
$LN9@IllusionTe@2:

; 934  : 	}
; 935  : 
; 936  : 	int loc2 = 0;

  024a8	c7 45 f4 00 00
	00 00		 mov	 DWORD PTR _loc2$[ebp], 0

; 937  : 
; 938  : 	PMSG_CHAOSMIXRESULT pMsg;
; 939  : 	PHeadSetB((LPBYTE)&pMsg.h, 0x86, sizeof(PMSG_CHAOSMIXRESULT));

  024af	6a 10		 push	 16			; 00000010H
  024b1	68 86 00 00 00	 push	 134			; 00000086H
  024b6	8d 45 e4	 lea	 eax, DWORD PTR _pMsg$[ebp]
  024b9	50		 push	 eax
  024ba	e8 00 00 00 00	 call	 ?PHeadSetB@@YAXPAEEH@Z	; PHeadSetB
  024bf	83 c4 0c	 add	 esp, 12			; 0000000cH

; 940  : 	pMsg.Result = CB_ERROR;

  024c2	c6 45 e7 00	 mov	 BYTE PTR _pMsg$[ebp+3], 0

; 941  : 
; 942  : 	gObj[arg1].ChaosLock = TRUE;

  024c6	8b 45 08	 mov	 eax, DWORD PTR _arg1$[ebp]
  024c9	69 c0 38 2b 00
	00		 imul	 eax, 11064		; 00002b38H
  024cf	8b 0d 00 00 00
	00		 mov	 ecx, DWORD PTR ?gObj@@3PAUOBJECTSTRUCT@@A ; gObj
  024d5	c7 84 01 88 0e
	00 00 01 00 00
	00		 mov	 DWORD PTR [ecx+eax+3720], 1

; 943  : 	LogAddTD("[Illusion Temple]   Mix Chaos Mix Start (Account:%s, Name:%s, Level:%d)", gObj[arg1].AccountID, gObj[arg1].Name, arg2);

  024e0	8b 45 0c	 mov	 eax, DWORD PTR _arg2$[ebp]
  024e3	50		 push	 eax
  024e4	8b 4d 08	 mov	 ecx, DWORD PTR _arg1$[ebp]
  024e7	69 c9 38 2b 00
	00		 imul	 ecx, 11064		; 00002b38H
  024ed	8b 15 00 00 00
	00		 mov	 edx, DWORD PTR ?gObj@@3PAUOBJECTSTRUCT@@A ; gObj
  024f3	8d 44 0a 77	 lea	 eax, DWORD PTR [edx+ecx+119]
  024f7	50		 push	 eax
  024f8	8b 4d 08	 mov	 ecx, DWORD PTR _arg1$[ebp]
  024fb	69 c9 38 2b 00
	00		 imul	 ecx, 11064		; 00002b38H
  02501	8b 15 00 00 00
	00		 mov	 edx, DWORD PTR ?gObj@@3PAUOBJECTSTRUCT@@A ; gObj
  02507	8d 44 0a 6c	 lea	 eax, DWORD PTR [edx+ecx+108]
  0250b	50		 push	 eax
  0250c	68 00 00 00 00	 push	 OFFSET ??_C@_0FE@BHIHACNF@?$FLIllusion?5Temple?$FN?5?G?G?$MA?G?5?$LF?N?$LH?g?$LI?$LG?$LI?$KO?5@
  02511	ff 15 00 00 00
	00		 call	 DWORD PTR ?LogAddTD@@3P6AXPADZZA ; LogAddTD
  02517	83 c4 10	 add	 esp, 16			; 00000010H

; 944  : 
; 945  : 	char szTemp[17];
; 946  : 	wsprintf(szTemp, "  Mix,%d", arg2);

  0251a	8b 45 0c	 mov	 eax, DWORD PTR _arg2$[ebp]
  0251d	50		 push	 eax
  0251e	68 00 00 00 00	 push	 OFFSET ??_C@_0BF@BJNLBONB@?G?G?$MA?G?5?$LF?N?$LH?g?$LI?$LG?$LI?$KO?5Mix?0?$CFd?$AA@
  02523	8d 4d d0	 lea	 ecx, DWORD PTR _szTemp$[ebp]
  02526	51		 push	 ecx
  02527	ff 15 00 00 00
	00		 call	 DWORD PTR __imp__wsprintfA
  0252d	83 c4 0c	 add	 esp, 12			; 0000000cH

; 947  : 
; 948  : 	g_MixSystem.LogChaosItem(&gObj[arg1], szTemp);

  02530	8d 45 d0	 lea	 eax, DWORD PTR _szTemp$[ebp]
  02533	50		 push	 eax
  02534	8b 4d 08	 mov	 ecx, DWORD PTR _arg1$[ebp]
  02537	69 c9 38 2b 00
	00		 imul	 ecx, 11064		; 00002b38H
  0253d	03 0d 00 00 00
	00		 add	 ecx, DWORD PTR ?gObj@@3PAUOBJECTSTRUCT@@A ; gObj
  02543	51		 push	 ecx
  02544	b9 00 00 00 00	 mov	 ecx, OFFSET ?g_MixSystem@@3VCMixSystem@@A ; g_MixSystem
  02549	e8 00 00 00 00	 call	 ?LogChaosItem@CMixSystem@@QAEXPAUOBJECTSTRUCT@@PAD@Z ; CMixSystem::LogChaosItem

; 949  : 
; 950  : 	int iMIX_SUCCESS_RATE = g_iIT_ChoasMixSuccessRate[arg2-1]; //loc11

  0254e	8b 45 0c	 mov	 eax, DWORD PTR _arg2$[ebp]
  02551	8b 0c 85 fc ff
	ff ff		 mov	 ecx, DWORD PTR _g_iIT_ChoasMixSuccessRate[eax*4-4]
  02558	89 4d cc	 mov	 DWORD PTR _iMIX_SUCCESS_RATE$[ebp], ecx

; 951  : 
; 952  : 	if ( iMIX_SUCCESS_RATE < 0 || iMIX_SUCCESS_RATE > 100 )

  0255b	83 7d cc 00	 cmp	 DWORD PTR _iMIX_SUCCESS_RATE$[ebp], 0
  0255f	7c 06		 jl	 SHORT $LN7@IllusionTe@2
  02561	83 7d cc 64	 cmp	 DWORD PTR _iMIX_SUCCESS_RATE$[ebp], 100 ; 00000064H
  02565	7e 56		 jle	 SHORT $LN8@IllusionTe@2
$LN7@IllusionTe@2:

; 953  : 	{
; 954  : 		DataSend(arg1, (LPBYTE)&pMsg, pMsg.h.size);

  02567	0f b6 45 e5	 movzx	 eax, BYTE PTR _pMsg$[ebp+1]
  0256b	50		 push	 eax
  0256c	8d 4d e4	 lea	 ecx, DWORD PTR _pMsg$[ebp]
  0256f	51		 push	 ecx
  02570	8b 55 08	 mov	 edx, DWORD PTR _arg1$[ebp]
  02573	52		 push	 edx
  02574	e8 00 00 00 00	 call	 ?DataSend@@YAHHPAEK@Z	; DataSend
  02579	83 c4 0c	 add	 esp, 12			; 0000000cH

; 955  : 		LogAddTD("[Illusion Temple]   Mix Chaos Mix Failed - MixRate Out of Bound (Account:%s, Name:%s, Level:%d)", gObj[arg1].AccountID, gObj[arg1].Name, arg2);

  0257c	8b 45 0c	 mov	 eax, DWORD PTR _arg2$[ebp]
  0257f	50		 push	 eax
  02580	8b 4d 08	 mov	 ecx, DWORD PTR _arg1$[ebp]
  02583	69 c9 38 2b 00
	00		 imul	 ecx, 11064		; 00002b38H
  02589	8b 15 00 00 00
	00		 mov	 edx, DWORD PTR ?gObj@@3PAUOBJECTSTRUCT@@A ; gObj
  0258f	8d 44 0a 77	 lea	 eax, DWORD PTR [edx+ecx+119]
  02593	50		 push	 eax
  02594	8b 4d 08	 mov	 ecx, DWORD PTR _arg1$[ebp]
  02597	69 c9 38 2b 00
	00		 imul	 ecx, 11064		; 00002b38H
  0259d	8b 15 00 00 00
	00		 mov	 edx, DWORD PTR ?gObj@@3PAUOBJECTSTRUCT@@A ; gObj
  025a3	8d 44 0a 6c	 lea	 eax, DWORD PTR [edx+ecx+108]
  025a7	50		 push	 eax
  025a8	68 00 00 00 00	 push	 OFFSET ??_C@_0GM@COJEOJKJ@?$FLIllusion?5Temple?$FN?5?G?G?$MA?G?5?$LF?N?$LH?g?$LI?$LG?$LI?$KO?5@
  025ad	ff 15 00 00 00
	00		 call	 DWORD PTR ?LogAddTD@@3P6AXPADZZA ; LogAddTD
  025b3	83 c4 10	 add	 esp, 16			; 00000010H

; 956  : 		return FALSE;

  025b6	32 c0		 xor	 al, al
  025b8	e9 07 03 00 00	 jmp	 $LN11@IllusionTe@2
$LN8@IllusionTe@2:

; 957  : 	}
; 958  : 
; 959  : 	if ( g_CrywolfSync.GetOccupationState() == 0 && g_iCrywolfApplyMvpBenefit )

  025bd	b9 00 00 00 00	 mov	 ecx, OFFSET ?g_CrywolfSync@@3VCCrywolfSync@@A ; g_CrywolfSync
  025c2	e8 00 00 00 00	 call	 ?GetOccupationState@CCrywolfSync@@QAEHXZ ; CCrywolfSync::GetOccupationState
  025c7	85 c0		 test	 eax, eax
  025c9	75 19		 jne	 SHORT $LN6@IllusionTe@2
  025cb	83 3d 00 00 00
	00 00		 cmp	 DWORD PTR ?g_iCrywolfApplyMvpBenefit@@3HA, 0 ; g_iCrywolfApplyMvpBenefit
  025d2	74 10		 je	 SHORT $LN6@IllusionTe@2

; 960  : 	{
; 961  : 		iMIX_SUCCESS_RATE += g_CrywolfSync.GetPlusChaosRate();

  025d4	b9 00 00 00 00	 mov	 ecx, OFFSET ?g_CrywolfSync@@3VCCrywolfSync@@A ; g_CrywolfSync
  025d9	e8 00 00 00 00	 call	 ?GetPlusChaosRate@CCrywolfSync@@QAEHXZ ; CCrywolfSync::GetPlusChaosRate
  025de	03 45 cc	 add	 eax, DWORD PTR _iMIX_SUCCESS_RATE$[ebp]
  025e1	89 45 cc	 mov	 DWORD PTR _iMIX_SUCCESS_RATE$[ebp], eax
$LN6@IllusionTe@2:

; 962  : 	}
; 963  : 
; 964  : 	int iMIX_NEED_MONEY = g_iIT_ChoasMixMoney[arg2-1]; //loc12

  025e4	8b 45 0c	 mov	 eax, DWORD PTR _arg2$[ebp]
  025e7	8b 0c 85 fc ff
	ff ff		 mov	 ecx, DWORD PTR _g_iIT_ChoasMixMoney[eax*4-4]
  025ee	89 4d c8	 mov	 DWORD PTR _iMIX_NEED_MONEY$[ebp], ecx

; 965  : 
; 966  : 	int iChaosTaxMoney = (int)((__int64)(iMIX_NEED_MONEY) * (__int64)(g_CastleSiegeSync.GetTaxRateChaos(arg1)) / (__int64)100); //loc13

  025f1	8b 45 c8	 mov	 eax, DWORD PTR _iMIX_NEED_MONEY$[ebp]
  025f4	99		 cdq
  025f5	8b f0		 mov	 esi, eax
  025f7	8b fa		 mov	 edi, edx
  025f9	8b 45 08	 mov	 eax, DWORD PTR _arg1$[ebp]
  025fc	50		 push	 eax
  025fd	b9 00 00 00 00	 mov	 ecx, OFFSET ?g_CastleSiegeSync@@3VCCastleSiegeSync@@A ; g_CastleSiegeSync
  02602	e8 00 00 00 00	 call	 ?GetTaxRateChaos@CCastleSiegeSync@@QAEHH@Z ; CCastleSiegeSync::GetTaxRateChaos
  02607	99		 cdq
  02608	52		 push	 edx
  02609	50		 push	 eax
  0260a	57		 push	 edi
  0260b	56		 push	 esi
  0260c	e8 00 00 00 00	 call	 __allmul
  02611	6a 00		 push	 0
  02613	6a 64		 push	 100			; 00000064H
  02615	52		 push	 edx
  02616	50		 push	 eax
  02617	e8 00 00 00 00	 call	 __alldiv
  0261c	89 45 c4	 mov	 DWORD PTR _iChaosTaxMoney$[ebp], eax

; 967  : 
; 968  : 	if ( iChaosTaxMoney < 0 )

  0261f	83 7d c4 00	 cmp	 DWORD PTR _iChaosTaxMoney$[ebp], 0
  02623	7d 07		 jge	 SHORT $LN5@IllusionTe@2

; 969  : 	{
; 970  : 		iChaosTaxMoney = 0;

  02625	c7 45 c4 00 00
	00 00		 mov	 DWORD PTR _iChaosTaxMoney$[ebp], 0
$LN5@IllusionTe@2:

; 971  : 	}
; 972  : 
; 973  : 	iMIX_NEED_MONEY += iChaosTaxMoney;

  0262c	8b 45 c8	 mov	 eax, DWORD PTR _iMIX_NEED_MONEY$[ebp]
  0262f	03 45 c4	 add	 eax, DWORD PTR _iChaosTaxMoney$[ebp]
  02632	89 45 c8	 mov	 DWORD PTR _iMIX_NEED_MONEY$[ebp], eax

; 974  : 
; 975  : 	if ( iMIX_NEED_MONEY <  0 )

  02635	79 56		 jns	 SHORT $LN4@IllusionTe@2

; 976  : 	{
; 977  : 		DataSend(arg1, (LPBYTE)&pMsg, pMsg.h.size);

  02637	0f b6 45 e5	 movzx	 eax, BYTE PTR _pMsg$[ebp+1]
  0263b	50		 push	 eax
  0263c	8d 4d e4	 lea	 ecx, DWORD PTR _pMsg$[ebp]
  0263f	51		 push	 ecx
  02640	8b 55 08	 mov	 edx, DWORD PTR _arg1$[ebp]
  02643	52		 push	 edx
  02644	e8 00 00 00 00	 call	 ?DataSend@@YAHHPAEK@Z	; DataSend
  02649	83 c4 0c	 add	 esp, 12			; 0000000cH

; 978  : 		LogAddTD("[Illusion Temple]   Mix Chaos Mix Failed - MixMoney < 0 (Account:%s, Name:%s, Level:%d)",	gObj[arg1].AccountID, gObj[arg1].Name, arg2);

  0264c	8b 45 0c	 mov	 eax, DWORD PTR _arg2$[ebp]
  0264f	50		 push	 eax
  02650	8b 4d 08	 mov	 ecx, DWORD PTR _arg1$[ebp]
  02653	69 c9 38 2b 00
	00		 imul	 ecx, 11064		; 00002b38H
  02659	8b 15 00 00 00
	00		 mov	 edx, DWORD PTR ?gObj@@3PAUOBJECTSTRUCT@@A ; gObj
  0265f	8d 44 0a 77	 lea	 eax, DWORD PTR [edx+ecx+119]
  02663	50		 push	 eax
  02664	8b 4d 08	 mov	 ecx, DWORD PTR _arg1$[ebp]
  02667	69 c9 38 2b 00
	00		 imul	 ecx, 11064		; 00002b38H
  0266d	8b 15 00 00 00
	00		 mov	 edx, DWORD PTR ?gObj@@3PAUOBJECTSTRUCT@@A ; gObj
  02673	8d 44 0a 6c	 lea	 eax, DWORD PTR [edx+ecx+108]
  02677	50		 push	 eax
  02678	68 00 00 00 00	 push	 OFFSET ??_C@_0GE@DFBGLPMI@?$FLIllusion?5Temple?$FN?5?G?G?$MA?G?5?$LF?N?$LH?g?$LI?$LG?$LI?$KO?5@
  0267d	ff 15 00 00 00
	00		 call	 DWORD PTR ?LogAddTD@@3P6AXPADZZA ; LogAddTD
  02683	83 c4 10	 add	 esp, 16			; 00000010H

; 979  : 		return FALSE;

  02686	32 c0		 xor	 al, al
  02688	e9 37 02 00 00	 jmp	 $LN11@IllusionTe@2
$LN4@IllusionTe@2:

; 980  : 	}
; 981  : 
; 982  : 	if ( (gObj[arg1].Money - iMIX_NEED_MONEY) < 0 )

  0268d	8b 45 08	 mov	 eax, DWORD PTR _arg1$[ebp]
  02690	69 c0 38 2b 00
	00		 imul	 eax, 11064		; 00002b38H
  02696	8b 0d 00 00 00
	00		 mov	 ecx, DWORD PTR ?gObj@@3PAUOBJECTSTRUCT@@A ; gObj
  0269c	8b 94 01 f0 00
	00 00		 mov	 edx, DWORD PTR [ecx+eax+240]
  026a3	2b 55 c8	 sub	 edx, DWORD PTR _iMIX_NEED_MONEY$[ebp]
  026a6	79 5a		 jns	 SHORT $LN3@IllusionTe@2

; 983  : 	{
; 984  : 		pMsg.Result = CB_BC_NOT_ENOUGH_ZEN;

  026a8	c6 45 e7 0b	 mov	 BYTE PTR _pMsg$[ebp+3], 11 ; 0000000bH

; 985  : 		DataSend(arg1, (LPBYTE)&pMsg, pMsg.h.size);

  026ac	0f b6 45 e5	 movzx	 eax, BYTE PTR _pMsg$[ebp+1]
  026b0	50		 push	 eax
  026b1	8d 4d e4	 lea	 ecx, DWORD PTR _pMsg$[ebp]
  026b4	51		 push	 ecx
  026b5	8b 55 08	 mov	 edx, DWORD PTR _arg1$[ebp]
  026b8	52		 push	 edx
  026b9	e8 00 00 00 00	 call	 ?DataSend@@YAHHPAEK@Z	; DataSend
  026be	83 c4 0c	 add	 esp, 12			; 0000000cH

; 986  : 		LogAddTD("[Illusion Temple]   Mix Chaos Mix Failed - Not Enough Money (Account:%s, Name:%s, Level:%d)",	gObj[arg1].AccountID, gObj[arg1].Name, arg2);

  026c1	8b 45 0c	 mov	 eax, DWORD PTR _arg2$[ebp]
  026c4	50		 push	 eax
  026c5	8b 4d 08	 mov	 ecx, DWORD PTR _arg1$[ebp]
  026c8	69 c9 38 2b 00
	00		 imul	 ecx, 11064		; 00002b38H
  026ce	8b 15 00 00 00
	00		 mov	 edx, DWORD PTR ?gObj@@3PAUOBJECTSTRUCT@@A ; gObj
  026d4	8d 44 0a 77	 lea	 eax, DWORD PTR [edx+ecx+119]
  026d8	50		 push	 eax
  026d9	8b 4d 08	 mov	 ecx, DWORD PTR _arg1$[ebp]
  026dc	69 c9 38 2b 00
	00		 imul	 ecx, 11064		; 00002b38H
  026e2	8b 15 00 00 00
	00		 mov	 edx, DWORD PTR ?gObj@@3PAUOBJECTSTRUCT@@A ; gObj
  026e8	8d 44 0a 6c	 lea	 eax, DWORD PTR [edx+ecx+108]
  026ec	50		 push	 eax
  026ed	68 00 00 00 00	 push	 OFFSET ??_C@_0GI@KCIMIBDH@?$FLIllusion?5Temple?$FN?5?G?G?$MA?G?5?$LF?N?$LH?g?$LI?$LG?$LI?$KO?5@
  026f2	ff 15 00 00 00
	00		 call	 DWORD PTR ?LogAddTD@@3P6AXPADZZA ; LogAddTD
  026f8	83 c4 10	 add	 esp, 16			; 00000010H

; 987  : 		return FALSE;

  026fb	32 c0		 xor	 al, al
  026fd	e9 c2 01 00 00	 jmp	 $LN11@IllusionTe@2
$LN3@IllusionTe@2:

; 988  : 	}
; 989  : 
; 990  : 	gObj[arg1].Money -= iMIX_NEED_MONEY;

  02702	8b 45 08	 mov	 eax, DWORD PTR _arg1$[ebp]
  02705	69 c0 38 2b 00
	00		 imul	 eax, 11064		; 00002b38H
  0270b	8b 0d 00 00 00
	00		 mov	 ecx, DWORD PTR ?gObj@@3PAUOBJECTSTRUCT@@A ; gObj
  02711	8b 94 01 f0 00
	00 00		 mov	 edx, DWORD PTR [ecx+eax+240]
  02718	2b 55 c8	 sub	 edx, DWORD PTR _iMIX_NEED_MONEY$[ebp]
  0271b	8b 45 08	 mov	 eax, DWORD PTR _arg1$[ebp]
  0271e	69 c0 38 2b 00
	00		 imul	 eax, 11064		; 00002b38H
  02724	8b 0d 00 00 00
	00		 mov	 ecx, DWORD PTR ?gObj@@3PAUOBJECTSTRUCT@@A ; gObj
  0272a	89 94 01 f0 00
	00 00		 mov	 DWORD PTR [ecx+eax+240], edx

; 991  : 	g_CastleSiegeSync.AddTributeMoney(iChaosTaxMoney);

  02731	8b 45 c4	 mov	 eax, DWORD PTR _iChaosTaxMoney$[ebp]
  02734	50		 push	 eax
  02735	b9 00 00 00 00	 mov	 ecx, OFFSET ?g_CastleSiegeSync@@3VCCastleSiegeSync@@A ; g_CastleSiegeSync
  0273a	e8 00 00 00 00	 call	 ?AddTributeMoney@CCastleSiegeSync@@QAEXH@Z ; CCastleSiegeSync::AddTributeMoney

; 992  : 	GCMoneySend(arg1, gObj[arg1].Money);

  0273f	8b 45 08	 mov	 eax, DWORD PTR _arg1$[ebp]
  02742	69 c0 38 2b 00
	00		 imul	 eax, 11064		; 00002b38H
  02748	8b 0d 00 00 00
	00		 mov	 ecx, DWORD PTR ?gObj@@3PAUOBJECTSTRUCT@@A ; gObj
  0274e	8b 94 01 f0 00
	00 00		 mov	 edx, DWORD PTR [ecx+eax+240]
  02755	52		 push	 edx
  02756	8b 45 08	 mov	 eax, DWORD PTR _arg1$[ebp]
  02759	50		 push	 eax
  0275a	e8 00 00 00 00	 call	 ?GCMoneySend@@YAXHK@Z	; GCMoneySend
  0275f	83 c4 08	 add	 esp, 8

; 993  : 
; 994  : 	iMIX_SUCCESS_RATE += arg3; //season 3.0 moved

  02762	8b 45 cc	 mov	 eax, DWORD PTR _iMIX_SUCCESS_RATE$[ebp]
  02765	03 45 10	 add	 eax, DWORD PTR _arg3$[ebp]
  02768	89 45 cc	 mov	 DWORD PTR _iMIX_SUCCESS_RATE$[ebp], eax

; 995  : 
; 996  : 	if ( (rand()%100) < iMIX_SUCCESS_RATE )	// Success (season 3.0 changed)

  0276b	e8 00 00 00 00	 call	 _rand
  02770	99		 cdq
  02771	b9 64 00 00 00	 mov	 ecx, 100		; 00000064H
  02776	f7 f9		 idiv	 ecx
  02778	3b 55 cc	 cmp	 edx, DWORD PTR _iMIX_SUCCESS_RATE$[ebp]
  0277b	0f 8d 90 00 00
	00		 jge	 $LN2@IllusionTe@2

; 997  : 	{
; 998  : 		int item_num = ITEMGET(13,51);	// Blood Scroll loc14

  02781	c7 45 c0 33 1a
	00 00		 mov	 DWORD PTR _item_num$235969[ebp], 6707 ; 00001a33H

; 999  : 		ItemSerialCreateSend(arg1, -1, 0, 0, item_num, (BYTE)arg2, 0, 0, 0, 0, -1, 0, 0);

  02788	6a 00		 push	 0
  0278a	6a 00		 push	 0
  0278c	6a ff		 push	 -1
  0278e	6a 00		 push	 0
  02790	6a 00		 push	 0
  02792	6a 00		 push	 0
  02794	6a 00		 push	 0
  02796	0f b6 45 0c	 movzx	 eax, BYTE PTR _arg2$[ebp]
  0279a	50		 push	 eax
  0279b	8b 4d c0	 mov	 ecx, DWORD PTR _item_num$235969[ebp]
  0279e	51		 push	 ecx
  0279f	6a 00		 push	 0
  027a1	6a 00		 push	 0
  027a3	68 ff 00 00 00	 push	 255			; 000000ffH
  027a8	8b 55 08	 mov	 edx, DWORD PTR _arg1$[ebp]
  027ab	52		 push	 edx
  027ac	e8 00 00 00 00	 call	 ?ItemSerialCreateSend@@YAXHEEEHEEEEEHEE@Z ; ItemSerialCreateSend
  027b1	83 c4 34	 add	 esp, 52			; 00000034H

; 1000 : 		LogAddTD("[  Mix] [%s][%s] CBMix Success %d Money : %d-%d, CharmRate : %d",	gObj[arg1].AccountID, gObj[arg1].Name, iMIX_SUCCESS_RATE, gObj[arg1].Money, iMIX_NEED_MONEY, arg3);

  027b4	8b 45 10	 mov	 eax, DWORD PTR _arg3$[ebp]
  027b7	50		 push	 eax
  027b8	8b 4d c8	 mov	 ecx, DWORD PTR _iMIX_NEED_MONEY$[ebp]
  027bb	51		 push	 ecx
  027bc	8b 55 08	 mov	 edx, DWORD PTR _arg1$[ebp]
  027bf	69 d2 38 2b 00
	00		 imul	 edx, 11064		; 00002b38H
  027c5	a1 00 00 00 00	 mov	 eax, DWORD PTR ?gObj@@3PAUOBJECTSTRUCT@@A ; gObj
  027ca	8b 8c 10 f0 00
	00 00		 mov	 ecx, DWORD PTR [eax+edx+240]
  027d1	51		 push	 ecx
  027d2	8b 55 cc	 mov	 edx, DWORD PTR _iMIX_SUCCESS_RATE$[ebp]
  027d5	52		 push	 edx
  027d6	8b 45 08	 mov	 eax, DWORD PTR _arg1$[ebp]
  027d9	69 c0 38 2b 00
	00		 imul	 eax, 11064		; 00002b38H
  027df	8b 0d 00 00 00
	00		 mov	 ecx, DWORD PTR ?gObj@@3PAUOBJECTSTRUCT@@A ; gObj
  027e5	8d 54 01 77	 lea	 edx, DWORD PTR [ecx+eax+119]
  027e9	52		 push	 edx
  027ea	8b 45 08	 mov	 eax, DWORD PTR _arg1$[ebp]
  027ed	69 c0 38 2b 00
	00		 imul	 eax, 11064		; 00002b38H
  027f3	8b 0d 00 00 00
	00		 mov	 ecx, DWORD PTR ?gObj@@3PAUOBJECTSTRUCT@@A ; gObj
  027f9	8d 54 01 6c	 lea	 edx, DWORD PTR [ecx+eax+108]
  027fd	52		 push	 edx
  027fe	68 00 00 00 00	 push	 OFFSET ??_C@_0EM@FKKOGKNO@?$FL?G?G?$MA?G?5?$LF?N?$LH?g?$LI?$LG?$LI?$KO?5Mix?$FN?5?$FL?$CFs?$FN?$FL?$CFs?$FN?5CBM@
  02803	ff 15 00 00 00
	00		 call	 DWORD PTR ?LogAddTD@@3P6AXPADZZA ; LogAddTD
  02809	83 c4 1c	 add	 esp, 28			; 0000001cH

; 1001 : 	}
; 1002 : 	else

  0280c	e9 a5 00 00 00	 jmp	 $LN1@IllusionTe@2
$LN2@IllusionTe@2:

; 1003 : 	{
; 1004 : 		g_MixSystem.ChaosBoxInit(&gObj[arg1]);

  02811	8b 45 08	 mov	 eax, DWORD PTR _arg1$[ebp]
  02814	69 c0 38 2b 00
	00		 imul	 eax, 11064		; 00002b38H
  0281a	03 05 00 00 00
	00		 add	 eax, DWORD PTR ?gObj@@3PAUOBJECTSTRUCT@@A ; gObj
  02820	50		 push	 eax
  02821	b9 00 00 00 00	 mov	 ecx, OFFSET ?g_MixSystem@@3VCMixSystem@@A ; g_MixSystem
  02826	e8 00 00 00 00	 call	 ?ChaosBoxInit@CMixSystem@@QAEHPAUOBJECTSTRUCT@@@Z ; CMixSystem::ChaosBoxInit

; 1005 : 		GCUserChaosBoxSend(&gObj[arg1], 0);

  0282b	6a 00		 push	 0
  0282d	8b 45 08	 mov	 eax, DWORD PTR _arg1$[ebp]
  02830	69 c0 38 2b 00
	00		 imul	 eax, 11064		; 00002b38H
  02836	03 05 00 00 00
	00		 add	 eax, DWORD PTR ?gObj@@3PAUOBJECTSTRUCT@@A ; gObj
  0283c	50		 push	 eax
  0283d	e8 00 00 00 00	 call	 ?GCUserChaosBoxSend@@YAXPAUOBJECTSTRUCT@@H@Z ; GCUserChaosBoxSend
  02842	83 c4 08	 add	 esp, 8

; 1006 : 		DataSend(arg1, (LPBYTE)&pMsg, pMsg.h.size);

  02845	0f b6 45 e5	 movzx	 eax, BYTE PTR _pMsg$[ebp+1]
  02849	50		 push	 eax
  0284a	8d 4d e4	 lea	 ecx, DWORD PTR _pMsg$[ebp]
  0284d	51		 push	 ecx
  0284e	8b 55 08	 mov	 edx, DWORD PTR _arg1$[ebp]
  02851	52		 push	 edx
  02852	e8 00 00 00 00	 call	 ?DataSend@@YAHHPAEK@Z	; DataSend
  02857	83 c4 0c	 add	 esp, 12			; 0000000cH

; 1007 : 		LogAddTD("[  Mix] [%s][%s] CBMix Fail %d Money : %d-%d, CharmRate : %d", gObj[arg1].AccountID, gObj[arg1].Name, iMIX_SUCCESS_RATE, gObj[arg1].Money, iMIX_NEED_MONEY, arg3);

  0285a	8b 45 10	 mov	 eax, DWORD PTR _arg3$[ebp]
  0285d	50		 push	 eax
  0285e	8b 4d c8	 mov	 ecx, DWORD PTR _iMIX_NEED_MONEY$[ebp]
  02861	51		 push	 ecx
  02862	8b 55 08	 mov	 edx, DWORD PTR _arg1$[ebp]
  02865	69 d2 38 2b 00
	00		 imul	 edx, 11064		; 00002b38H
  0286b	a1 00 00 00 00	 mov	 eax, DWORD PTR ?gObj@@3PAUOBJECTSTRUCT@@A ; gObj
  02870	8b 8c 10 f0 00
	00 00		 mov	 ecx, DWORD PTR [eax+edx+240]
  02877	51		 push	 ecx
  02878	8b 55 cc	 mov	 edx, DWORD PTR _iMIX_SUCCESS_RATE$[ebp]
  0287b	52		 push	 edx
  0287c	8b 45 08	 mov	 eax, DWORD PTR _arg1$[ebp]
  0287f	69 c0 38 2b 00
	00		 imul	 eax, 11064		; 00002b38H
  02885	8b 0d 00 00 00
	00		 mov	 ecx, DWORD PTR ?gObj@@3PAUOBJECTSTRUCT@@A ; gObj
  0288b	8d 54 01 77	 lea	 edx, DWORD PTR [ecx+eax+119]
  0288f	52		 push	 edx
  02890	8b 45 08	 mov	 eax, DWORD PTR _arg1$[ebp]
  02893	69 c0 38 2b 00
	00		 imul	 eax, 11064		; 00002b38H
  02899	8b 0d 00 00 00
	00		 mov	 ecx, DWORD PTR ?gObj@@3PAUOBJECTSTRUCT@@A ; gObj
  0289f	8d 54 01 6c	 lea	 edx, DWORD PTR [ecx+eax+108]
  028a3	52		 push	 edx
  028a4	68 00 00 00 00	 push	 OFFSET ??_C@_0EJ@CFKLBJNP@?$FL?G?G?$MA?G?5?$LF?N?$LH?g?$LI?$LG?$LI?$KO?5Mix?$FN?5?$FL?$CFs?$FN?$FL?$CFs?$FN?5CBM@
  028a9	ff 15 00 00 00
	00		 call	 DWORD PTR ?LogAddTD@@3P6AXPADZZA ; LogAddTD
  028af	83 c4 1c	 add	 esp, 28			; 0000001cH

; 1008 : 		return FALSE;

  028b2	32 c0		 xor	 al, al
  028b4	eb 0e		 jmp	 SHORT $LN11@IllusionTe@2
$LN1@IllusionTe@2:

; 1009 : 	}
; 1010 : 
; 1011 : 	::gObjInventoryCommit(arg1);

  028b6	8b 45 08	 mov	 eax, DWORD PTR _arg1$[ebp]
  028b9	50		 push	 eax
  028ba	e8 00 00 00 00	 call	 ?gObjInventoryCommit@@YAHH@Z ; gObjInventoryCommit
  028bf	83 c4 04	 add	 esp, 4

; 1012 : 	return TRUE;

  028c2	b0 01		 mov	 al, 1
$LN11@IllusionTe@2:

; 1013 : }

  028c4	5f		 pop	 edi
  028c5	5e		 pop	 esi
  028c6	5b		 pop	 ebx
  028c7	8b 4d fc	 mov	 ecx, DWORD PTR __$ArrayPad$[ebp]
  028ca	33 cd		 xor	 ecx, ebp
  028cc	e8 00 00 00 00	 call	 @__security_check_cookie@4
  028d1	8b e5		 mov	 esp, ebp
  028d3	5d		 pop	 ebp
  028d4	c2 0c 00	 ret	 12			; 0000000cH
?IllusionTempleChaosMix@CIllusionTempleEvent@@QAEEHHH@Z ENDP ; CIllusionTempleEvent::IllusionTempleChaosMix
; Function compile flags: /Odtp /ZI
tv186 = -120						; size = 4
tv179 = -120						; size = 4
tv67 = -120						; size = 4
_loc13$236000 = -52					; size = 4
_loc12$235997 = -48					; size = 4
_n$235989 = -44						; size = 4
_loc10$ = -40						; size = 4
_loc9$ = -36						; size = 4
_loc8$ = -32						; size = 4
_loc7$ = -28						; size = 4
_loc6$ = -24						; size = 4
_loc5$ = -20						; size = 4
_loc4$ = -16						; size = 4
_loc3$ = -12						; size = 4
_loc2$ = -8						; size = 4
_this$ = -4						; size = 4
_arg1$ = 8						; size = 4
?CheckChoasMixItem@CIllusionTempleEvent@@QAEHH@Z PROC	; CIllusionTempleEvent::CheckChoasMixItem
; _this$ = ecx

; 1016 : {

  028e0	55		 push	 ebp
  028e1	8b ec		 mov	 ebp, esp
  028e3	83 ec 78	 sub	 esp, 120		; 00000078H
  028e6	53		 push	 ebx
  028e7	56		 push	 esi
  028e8	57		 push	 edi
  028e9	89 4d fc	 mov	 DWORD PTR _this$[ebp], ecx

; 1017 : 	if( OBJMAX_RANGE(arg1) == FALSE )

  028ec	83 7d 08 00	 cmp	 DWORD PTR _arg1$[ebp], 0
  028f0	7d 09		 jge	 SHORT $LN27@CheckChoas
  028f2	c7 45 88 00 00
	00 00		 mov	 DWORD PTR tv67[ebp], 0
  028f9	eb 0f		 jmp	 SHORT $LN28@CheckChoas
$LN27@CheckChoas:
  028fb	33 c0		 xor	 eax, eax
  028fd	81 7d 08 97 3a
	00 00		 cmp	 DWORD PTR _arg1$[ebp], 14999 ; 00003a97H
  02904	0f 9e c0	 setle	 al
  02907	89 45 88	 mov	 DWORD PTR tv67[ebp], eax
$LN28@CheckChoas:
  0290a	83 7d 88 00	 cmp	 DWORD PTR tv67[ebp], 0
  0290e	75 07		 jne	 SHORT $LN24@CheckChoas

; 1018 : 	{
; 1019 : 		return FALSE;

  02910	33 c0		 xor	 eax, eax
  02912	e9 03 03 00 00	 jmp	 $LN25@CheckChoas
$LN24@CheckChoas:

; 1020 : 	}
; 1021 : 
; 1022 : 	int loc2 = 0;

  02917	c7 45 f8 00 00
	00 00		 mov	 DWORD PTR _loc2$[ebp], 0

; 1023 : 	int loc3 = 0;

  0291e	c7 45 f4 00 00
	00 00		 mov	 DWORD PTR _loc3$[ebp], 0

; 1024 : 	int loc4 = 0;

  02925	c7 45 f0 00 00
	00 00		 mov	 DWORD PTR _loc4$[ebp], 0

; 1025 : 	int loc5 = 0;

  0292c	c7 45 ec 00 00
	00 00		 mov	 DWORD PTR _loc5$[ebp], 0

; 1026 : 	int loc6 = 0;

  02933	c7 45 e8 00 00
	00 00		 mov	 DWORD PTR _loc6$[ebp], 0

; 1027 : 	int loc7 = 0;

  0293a	c7 45 e4 00 00
	00 00		 mov	 DWORD PTR _loc7$[ebp], 0

; 1028 : 	int loc8 = 0;

  02941	c7 45 e0 00 00
	00 00		 mov	 DWORD PTR _loc8$[ebp], 0

; 1029 : 	int loc9 = 0;

  02948	c7 45 dc 00 00
	00 00		 mov	 DWORD PTR _loc9$[ebp], 0

; 1030 : 	int loc10 = 0;

  0294f	c7 45 d8 00 00
	00 00		 mov	 DWORD PTR _loc10$[ebp], 0

; 1031 : 
; 1032 : 	for ( int n=0;n<CHAOS_BOX_SIZE;n++) //loc11

  02956	c7 45 d4 00 00
	00 00		 mov	 DWORD PTR _n$235989[ebp], 0
  0295d	eb 09		 jmp	 SHORT $LN23@CheckChoas
$LN22@CheckChoas:
  0295f	8b 45 d4	 mov	 eax, DWORD PTR _n$235989[ebp]
  02962	83 c0 01	 add	 eax, 1
  02965	89 45 d4	 mov	 DWORD PTR _n$235989[ebp], eax
$LN23@CheckChoas:
  02968	83 7d d4 20	 cmp	 DWORD PTR _n$235989[ebp], 32 ; 00000020H
  0296c	0f 8d a6 01 00
	00		 jge	 $LN21@CheckChoas

; 1033 : 	{
; 1034 : 		if ( gObj[arg1].pChaosBox[n].IsItem() == TRUE )

  02972	8b 45 08	 mov	 eax, DWORD PTR _arg1$[ebp]
  02975	69 c0 38 2b 00
	00		 imul	 eax, 11064		; 00002b38H
  0297b	8b 4d d4	 mov	 ecx, DWORD PTR _n$235989[ebp]
  0297e	69 c9 d4 00 00
	00		 imul	 ecx, 212		; 000000d4H
  02984	8b 15 00 00 00
	00		 mov	 edx, DWORD PTR ?gObj@@3PAUOBJECTSTRUCT@@A ; gObj
  0298a	03 8c 02 78 0e
	00 00		 add	 ecx, DWORD PTR [edx+eax+3704]
  02991	e8 00 00 00 00	 call	 ?IsItem@CItem@@QAEHXZ	; CItem::IsItem
  02996	83 f8 01	 cmp	 eax, 1
  02999	0f 85 74 01 00
	00		 jne	 $LN12@CheckChoas

; 1035 : 		{
; 1036 : 			if( gObj[arg1].pChaosBox[n].m_Type == ITEMGET(12,15))

  0299f	8b 45 08	 mov	 eax, DWORD PTR _arg1$[ebp]
  029a2	69 c0 38 2b 00
	00		 imul	 eax, 11064		; 00002b38H
  029a8	8b 4d d4	 mov	 ecx, DWORD PTR _n$235989[ebp]
  029ab	69 c9 d4 00 00
	00		 imul	 ecx, 212		; 000000d4H
  029b1	8b 15 00 00 00
	00		 mov	 edx, DWORD PTR ?gObj@@3PAUOBJECTSTRUCT@@A ; gObj
  029b7	8b 84 02 78 0e
	00 00		 mov	 eax, DWORD PTR [edx+eax+3704]
  029be	0f bf 4c 08 06	 movsx	 ecx, WORD PTR [eax+ecx+6]
  029c3	81 f9 0f 18 00
	00		 cmp	 ecx, 6159		; 0000180fH
  029c9	75 0c		 jne	 SHORT $LN19@CheckChoas

; 1037 : 			{
; 1038 : 				loc3 = 1;

  029cb	c7 45 f4 01 00
	00 00		 mov	 DWORD PTR _loc3$[ebp], 1
  029d2	e9 3c 01 00 00	 jmp	 $LN12@CheckChoas
$LN19@CheckChoas:

; 1039 : 			}
; 1040 : 			else if( gObj[arg1].pChaosBox[n].m_Type == ITEMGET(13,49))

  029d7	8b 45 08	 mov	 eax, DWORD PTR _arg1$[ebp]
  029da	69 c0 38 2b 00
	00		 imul	 eax, 11064		; 00002b38H
  029e0	8b 4d d4	 mov	 ecx, DWORD PTR _n$235989[ebp]
  029e3	69 c9 d4 00 00
	00		 imul	 ecx, 212		; 000000d4H
  029e9	8b 15 00 00 00
	00		 mov	 edx, DWORD PTR ?gObj@@3PAUOBJECTSTRUCT@@A ; gObj
  029ef	8b 84 02 78 0e
	00 00		 mov	 eax, DWORD PTR [edx+eax+3704]
  029f6	0f bf 4c 08 06	 movsx	 ecx, WORD PTR [eax+ecx+6]
  029fb	81 f9 31 1a 00
	00		 cmp	 ecx, 6705		; 00001a31H
  02a01	75 42		 jne	 SHORT $LN17@CheckChoas

; 1041 : 			{
; 1042 : 				int loc12 = gObj[arg1].pChaosBox[n].m_Level;

  02a03	8b 45 08	 mov	 eax, DWORD PTR _arg1$[ebp]
  02a06	69 c0 38 2b 00
	00		 imul	 eax, 11064		; 00002b38H
  02a0c	8b 4d d4	 mov	 ecx, DWORD PTR _n$235989[ebp]
  02a0f	69 c9 d4 00 00
	00		 imul	 ecx, 212		; 000000d4H
  02a15	8b 15 00 00 00
	00		 mov	 edx, DWORD PTR ?gObj@@3PAUOBJECTSTRUCT@@A ; gObj
  02a1b	8b 84 02 78 0e
	00 00		 mov	 eax, DWORD PTR [edx+eax+3704]
  02a22	0f bf 4c 08 08	 movsx	 ecx, WORD PTR [eax+ecx+8]
  02a27	89 4d d0	 mov	 DWORD PTR _loc12$235997[ebp], ecx

; 1043 : 				loc7++;

  02a2a	8b 45 e4	 mov	 eax, DWORD PTR _loc7$[ebp]
  02a2d	83 c0 01	 add	 eax, 1
  02a30	89 45 e4	 mov	 DWORD PTR _loc7$[ebp], eax

; 1044 : 				loc4 = 1; //IsItem??

  02a33	c7 45 f0 01 00
	00 00		 mov	 DWORD PTR _loc4$[ebp], 1

; 1045 : 				loc8 = loc12;

  02a3a	8b 45 d0	 mov	 eax, DWORD PTR _loc12$235997[ebp]
  02a3d	89 45 e0	 mov	 DWORD PTR _loc8$[ebp], eax
  02a40	e9 ce 00 00 00	 jmp	 $LN12@CheckChoas
$LN17@CheckChoas:

; 1046 : 			}
; 1047 : 			else if( gObj[arg1].pChaosBox[n].m_Type == ITEMGET(13,50))

  02a45	8b 45 08	 mov	 eax, DWORD PTR _arg1$[ebp]
  02a48	69 c0 38 2b 00
	00		 imul	 eax, 11064		; 00002b38H
  02a4e	8b 4d d4	 mov	 ecx, DWORD PTR _n$235989[ebp]
  02a51	69 c9 d4 00 00
	00		 imul	 ecx, 212		; 000000d4H
  02a57	8b 15 00 00 00
	00		 mov	 edx, DWORD PTR ?gObj@@3PAUOBJECTSTRUCT@@A ; gObj
  02a5d	8b 84 02 78 0e
	00 00		 mov	 eax, DWORD PTR [edx+eax+3704]
  02a64	0f bf 4c 08 06	 movsx	 ecx, WORD PTR [eax+ecx+6]
  02a69	81 f9 32 1a 00
	00		 cmp	 ecx, 6706		; 00001a32H
  02a6f	75 3f		 jne	 SHORT $LN15@CheckChoas

; 1048 : 			{
; 1049 : 				int loc13 = gObj[arg1].pChaosBox[n].m_Level;

  02a71	8b 45 08	 mov	 eax, DWORD PTR _arg1$[ebp]
  02a74	69 c0 38 2b 00
	00		 imul	 eax, 11064		; 00002b38H
  02a7a	8b 4d d4	 mov	 ecx, DWORD PTR _n$235989[ebp]
  02a7d	69 c9 d4 00 00
	00		 imul	 ecx, 212		; 000000d4H
  02a83	8b 15 00 00 00
	00		 mov	 edx, DWORD PTR ?gObj@@3PAUOBJECTSTRUCT@@A ; gObj
  02a89	8b 84 02 78 0e
	00 00		 mov	 eax, DWORD PTR [edx+eax+3704]
  02a90	0f bf 4c 08 08	 movsx	 ecx, WORD PTR [eax+ecx+8]
  02a95	89 4d cc	 mov	 DWORD PTR _loc13$236000[ebp], ecx

; 1050 : 				loc7++;

  02a98	8b 45 e4	 mov	 eax, DWORD PTR _loc7$[ebp]
  02a9b	83 c0 01	 add	 eax, 1
  02a9e	89 45 e4	 mov	 DWORD PTR _loc7$[ebp], eax

; 1051 : 				loc5 = 1; //IsItem??

  02aa1	c7 45 ec 01 00
	00 00		 mov	 DWORD PTR _loc5$[ebp], 1

; 1052 : 				loc9 = loc13;

  02aa8	8b 45 cc	 mov	 eax, DWORD PTR _loc13$236000[ebp]
  02aab	89 45 dc	 mov	 DWORD PTR _loc9$[ebp], eax
  02aae	eb 63		 jmp	 SHORT $LN12@CheckChoas
$LN15@CheckChoas:

; 1053 : 			}
; 1054 : 			else if( gObj[arg1].pChaosBox[n].m_Type == ITEMGET(14,53) )

  02ab0	8b 45 08	 mov	 eax, DWORD PTR _arg1$[ebp]
  02ab3	69 c0 38 2b 00
	00		 imul	 eax, 11064		; 00002b38H
  02ab9	8b 4d d4	 mov	 ecx, DWORD PTR _n$235989[ebp]
  02abc	69 c9 d4 00 00
	00		 imul	 ecx, 212		; 000000d4H
  02ac2	8b 15 00 00 00
	00		 mov	 edx, DWORD PTR ?gObj@@3PAUOBJECTSTRUCT@@A ; gObj
  02ac8	8b 84 02 78 0e
	00 00		 mov	 eax, DWORD PTR [edx+eax+3704]
  02acf	0f bf 4c 08 06	 movsx	 ecx, WORD PTR [eax+ecx+6]
  02ad4	81 f9 35 1c 00
	00		 cmp	 ecx, 7221		; 00001c35H
  02ada	75 30		 jne	 SHORT $LN13@CheckChoas

; 1055 : 			{
; 1056 : 				loc10+= (int)gObj[arg1].pChaosBox[n].m_Durability;

  02adc	8b 45 08	 mov	 eax, DWORD PTR _arg1$[ebp]
  02adf	69 c0 38 2b 00
	00		 imul	 eax, 11064		; 00002b38H
  02ae5	8b 4d d4	 mov	 ecx, DWORD PTR _n$235989[ebp]
  02ae8	69 c9 d4 00 00
	00		 imul	 ecx, 212		; 000000d4H
  02aee	8b 15 00 00 00
	00		 mov	 edx, DWORD PTR ?gObj@@3PAUOBJECTSTRUCT@@A ; gObj
  02af4	8b 84 02 78 0e
	00 00		 mov	 eax, DWORD PTR [edx+eax+3704]
  02afb	d9 44 08 24	 fld	 DWORD PTR [eax+ecx+36]
  02aff	e8 00 00 00 00	 call	 __ftol2_sse
  02b04	03 45 d8	 add	 eax, DWORD PTR _loc10$[ebp]
  02b07	89 45 d8	 mov	 DWORD PTR _loc10$[ebp], eax

; 1057 : 			}
; 1058 : 			else

  02b0a	eb 07		 jmp	 SHORT $LN12@CheckChoas
$LN13@CheckChoas:

; 1059 : 			{
; 1060 : 				loc6 = 1; //invalid

  02b0c	c7 45 e8 01 00
	00 00		 mov	 DWORD PTR _loc6$[ebp], 1
$LN12@CheckChoas:

; 1061 : 			}
; 1062 : 		}
; 1063 : 	}

  02b13	e9 47 fe ff ff	 jmp	 $LN22@CheckChoas
$LN21@CheckChoas:

; 1064 : 
; 1065 : 	if(loc6 != 0)

  02b18	83 7d e8 00	 cmp	 DWORD PTR _loc6$[ebp], 0
  02b1c	74 0a		 je	 SHORT $LN11@CheckChoas

; 1066 : 	{
; 1067 : 		return 8;

  02b1e	b8 08 00 00 00	 mov	 eax, 8
  02b23	e9 f2 00 00 00	 jmp	 $LN25@CheckChoas
$LN11@CheckChoas:

; 1068 : 	}
; 1069 : 
; 1070 : 	if(loc4 == 0 && loc5 == 0)

  02b28	83 7d f0 00	 cmp	 DWORD PTR _loc4$[ebp], 0
  02b2c	75 0d		 jne	 SHORT $LN10@CheckChoas
  02b2e	83 7d ec 00	 cmp	 DWORD PTR _loc5$[ebp], 0
  02b32	75 07		 jne	 SHORT $LN10@CheckChoas

; 1071 : 	{
; 1072 : 		return FALSE;

  02b34	33 c0		 xor	 eax, eax
  02b36	e9 df 00 00 00	 jmp	 $LN25@CheckChoas
$LN10@CheckChoas:

; 1073 : 	}
; 1074 : 
; 1075 : 	if(loc4 == 0 || loc5 == 0)

  02b3b	83 7d f0 00	 cmp	 DWORD PTR _loc4$[ebp], 0
  02b3f	74 06		 je	 SHORT $LN8@CheckChoas
  02b41	83 7d ec 00	 cmp	 DWORD PTR _loc5$[ebp], 0
  02b45	75 0a		 jne	 SHORT $LN9@CheckChoas
$LN8@CheckChoas:

; 1076 : 	{
; 1077 : 		return 11;

  02b47	b8 0b 00 00 00	 mov	 eax, 11			; 0000000bH
  02b4c	e9 c9 00 00 00	 jmp	 $LN25@CheckChoas
$LN9@CheckChoas:

; 1078 : 	}
; 1079 : 
; 1080 : 	if(loc7 > 2)

  02b51	83 7d e4 02	 cmp	 DWORD PTR _loc7$[ebp], 2
  02b55	7e 0a		 jle	 SHORT $LN7@CheckChoas

; 1081 : 	{
; 1082 : 		return 12;

  02b57	b8 0c 00 00 00	 mov	 eax, 12			; 0000000cH
  02b5c	e9 b9 00 00 00	 jmp	 $LN25@CheckChoas
$LN7@CheckChoas:

; 1083 : 	}
; 1084 : 
; 1085 : 	if(loc8 != loc9)

  02b61	8b 45 e0	 mov	 eax, DWORD PTR _loc8$[ebp]
  02b64	3b 45 dc	 cmp	 eax, DWORD PTR _loc9$[ebp]
  02b67	74 0a		 je	 SHORT $LN6@CheckChoas

; 1086 : 	{
; 1087 : 		return 9;

  02b69	b8 09 00 00 00	 mov	 eax, 9
  02b6e	e9 a7 00 00 00	 jmp	 $LN25@CheckChoas
$LN6@CheckChoas:

; 1088 : 	}
; 1089 : 
; 1090 : 	if(IT_TICKET_RANGE(loc8-1) == FALSE)

  02b73	8b 45 e0	 mov	 eax, DWORD PTR _loc8$[ebp]
  02b76	83 e8 01	 sub	 eax, 1
  02b79	79 09		 jns	 SHORT $LN29@CheckChoas
  02b7b	c7 45 88 00 00
	00 00		 mov	 DWORD PTR tv179[ebp], 0
  02b82	eb 11		 jmp	 SHORT $LN30@CheckChoas
$LN29@CheckChoas:
  02b84	8b 4d e0	 mov	 ecx, DWORD PTR _loc8$[ebp]
  02b87	83 e9 01	 sub	 ecx, 1
  02b8a	33 d2		 xor	 edx, edx
  02b8c	83 f9 05	 cmp	 ecx, 5
  02b8f	0f 9e c2	 setle	 dl
  02b92	89 55 88	 mov	 DWORD PTR tv179[ebp], edx
$LN30@CheckChoas:
  02b95	83 7d 88 00	 cmp	 DWORD PTR tv179[ebp], 0
  02b99	75 07		 jne	 SHORT $LN5@CheckChoas

; 1091 : 	{
; 1092 : 		return 9;

  02b9b	b8 09 00 00 00	 mov	 eax, 9
  02ba0	eb 78		 jmp	 SHORT $LN25@CheckChoas
$LN5@CheckChoas:

; 1093 : 	}
; 1094 : 
; 1095 : 	if(IT_TICKET_RANGE(loc9-1) == FALSE)

  02ba2	8b 45 dc	 mov	 eax, DWORD PTR _loc9$[ebp]
  02ba5	83 e8 01	 sub	 eax, 1
  02ba8	79 09		 jns	 SHORT $LN31@CheckChoas
  02baa	c7 45 88 00 00
	00 00		 mov	 DWORD PTR tv186[ebp], 0
  02bb1	eb 11		 jmp	 SHORT $LN32@CheckChoas
$LN31@CheckChoas:
  02bb3	8b 4d dc	 mov	 ecx, DWORD PTR _loc9$[ebp]
  02bb6	83 e9 01	 sub	 ecx, 1
  02bb9	33 d2		 xor	 edx, edx
  02bbb	83 f9 05	 cmp	 ecx, 5
  02bbe	0f 9e c2	 setle	 dl
  02bc1	89 55 88	 mov	 DWORD PTR tv186[ebp], edx
$LN32@CheckChoas:
  02bc4	83 7d 88 00	 cmp	 DWORD PTR tv186[ebp], 0
  02bc8	75 07		 jne	 SHORT $LN4@CheckChoas

; 1096 : 	{
; 1097 : 		return 9;

  02bca	b8 09 00 00 00	 mov	 eax, 9
  02bcf	eb 49		 jmp	 SHORT $LN25@CheckChoas
$LN4@CheckChoas:

; 1098 : 	}
; 1099 : 
; 1100 : 	if(loc3 == 0)

  02bd1	83 7d f4 00	 cmp	 DWORD PTR _loc3$[ebp], 0
  02bd5	75 07		 jne	 SHORT $LN3@CheckChoas

; 1101 : 	{
; 1102 : 		return 10;

  02bd7	b8 0a 00 00 00	 mov	 eax, 10			; 0000000aH
  02bdc	eb 3c		 jmp	 SHORT $LN25@CheckChoas
$LN3@CheckChoas:

; 1103 : 	}
; 1104 : 
; 1105 : 	if(gObj[arg1].Level < 10)

  02bde	8b 45 08	 mov	 eax, DWORD PTR _arg1$[ebp]
  02be1	69 c0 38 2b 00
	00		 imul	 eax, 11064		; 00002b38H
  02be7	8b 0d 00 00 00
	00		 mov	 ecx, DWORD PTR ?gObj@@3PAUOBJECTSTRUCT@@A ; gObj
  02bed	0f bf 94 01 be
	00 00 00	 movsx	 edx, WORD PTR [ecx+eax+190]
  02bf5	83 fa 0a	 cmp	 edx, 10			; 0000000aH
  02bf8	7d 07		 jge	 SHORT $LN2@CheckChoas

; 1106 : 	{
; 1107 : 		return 14;

  02bfa	b8 0e 00 00 00	 mov	 eax, 14			; 0000000eH
  02bff	eb 19		 jmp	 SHORT $LN25@CheckChoas
$LN2@CheckChoas:

; 1108 : 	}
; 1109 : 
; 1110 : 	if(loc3 != 0 && loc4 != 0 && loc5 != 0)

  02c01	83 7d f4 00	 cmp	 DWORD PTR _loc3$[ebp], 0
  02c05	74 11		 je	 SHORT $LN1@CheckChoas
  02c07	83 7d f0 00	 cmp	 DWORD PTR _loc4$[ebp], 0
  02c0b	74 0b		 je	 SHORT $LN1@CheckChoas
  02c0d	83 7d ec 00	 cmp	 DWORD PTR _loc5$[ebp], 0
  02c11	74 05		 je	 SHORT $LN1@CheckChoas

; 1111 : 	{
; 1112 : 		return loc8;

  02c13	8b 45 e0	 mov	 eax, DWORD PTR _loc8$[ebp]
  02c16	eb 02		 jmp	 SHORT $LN25@CheckChoas
$LN1@CheckChoas:

; 1113 : 	}
; 1114 : 
; 1115 : 	return FALSE;

  02c18	33 c0		 xor	 eax, eax
$LN25@CheckChoas:

; 1116 : }

  02c1a	5f		 pop	 edi
  02c1b	5e		 pop	 esi
  02c1c	5b		 pop	 ebx
  02c1d	8b e5		 mov	 esp, ebp
  02c1f	5d		 pop	 ebp
  02c20	c2 04 00	 ret	 4
?CheckChoasMixItem@CIllusionTempleEvent@@QAEHH@Z ENDP	; CIllusionTempleEvent::CheckChoasMixItem
_TEXT	ENDS
PUBLIC	?SetKillCount@CIllusionTempleEvent@@QAEEHEE@Z	; CIllusionTempleEvent::SetKillCount
EXTRN	?AddKillPointToUser@CIllusionTempleProcess@@QAEEHE@Z:PROC ; CIllusionTempleProcess::AddKillPointToUser
EXTRN	?IncreaseMonsterKillCount@CIllusionTempleProcess@@QAEXH@Z:PROC ; CIllusionTempleProcess::IncreaseMonsterKillCount
EXTRN	?IncreaseUserKillCount@CIllusionTempleProcess@@QAEXH@Z:PROC ; CIllusionTempleProcess::IncreaseUserKillCount
; Function compile flags: /Odtp /ZI
_TEXT	SEGMENT
tv76 = -76						; size = 4
tv67 = -76						; size = 4
_loc2$ = -5						; size = 1
_this$ = -4						; size = 4
_aIndex$ = 8						; size = 4
_btMapNumber$ = 12					; size = 1
_btObjType$ = 16					; size = 1
?SetKillCount@CIllusionTempleEvent@@QAEEHEE@Z PROC	; CIllusionTempleEvent::SetKillCount
; _this$ = ecx

; 1119 : {

  02c30	55		 push	 ebp
  02c31	8b ec		 mov	 ebp, esp
  02c33	83 ec 4c	 sub	 esp, 76			; 0000004cH
  02c36	53		 push	 ebx
  02c37	56		 push	 esi
  02c38	57		 push	 edi
  02c39	89 4d fc	 mov	 DWORD PTR _this$[ebp], ecx

; 1120 : 	if( OBJMAX_RANGE(aIndex) == FALSE )

  02c3c	83 7d 08 00	 cmp	 DWORD PTR _aIndex$[ebp], 0
  02c40	7d 09		 jge	 SHORT $LN7@SetKillCou
  02c42	c7 45 b4 00 00
	00 00		 mov	 DWORD PTR tv67[ebp], 0
  02c49	eb 0f		 jmp	 SHORT $LN8@SetKillCou
$LN7@SetKillCou:
  02c4b	33 c0		 xor	 eax, eax
  02c4d	81 7d 08 97 3a
	00 00		 cmp	 DWORD PTR _aIndex$[ebp], 14999 ; 00003a97H
  02c54	0f 9e c0	 setle	 al
  02c57	89 45 b4	 mov	 DWORD PTR tv67[ebp], eax
$LN8@SetKillCou:
  02c5a	83 7d b4 00	 cmp	 DWORD PTR tv67[ebp], 0
  02c5e	75 07		 jne	 SHORT $LN4@SetKillCou

; 1121 : 	{
; 1122 : 		return FALSE;

  02c60	32 c0		 xor	 al, al
  02c62	e9 a1 00 00 00	 jmp	 $LN5@SetKillCou
$LN4@SetKillCou:

; 1123 : 	}
; 1124 : 
; 1125 : 	if( CHECK_LIMIT( (btMapNumber - MAP_INDEX_ILLUSIONTEMPLE_MIN), MAX_FLOOR_DATA+1) == FALSE )

  02c67	0f b6 45 0c	 movzx	 eax, BYTE PTR _btMapNumber$[ebp]
  02c6b	83 e8 2d	 sub	 eax, 45			; 0000002dH
  02c6e	79 09		 jns	 SHORT $LN9@SetKillCou
  02c70	c7 45 b4 00 00
	00 00		 mov	 DWORD PTR tv76[ebp], 0
  02c77	eb 12		 jmp	 SHORT $LN10@SetKillCou
$LN9@SetKillCou:
  02c79	0f b6 4d 0c	 movzx	 ecx, BYTE PTR _btMapNumber$[ebp]
  02c7d	83 e9 2d	 sub	 ecx, 45			; 0000002dH
  02c80	33 d2		 xor	 edx, edx
  02c82	83 f9 05	 cmp	 ecx, 5
  02c85	0f 9e c2	 setle	 dl
  02c88	89 55 b4	 mov	 DWORD PTR tv76[ebp], edx
$LN10@SetKillCou:
  02c8b	83 7d b4 00	 cmp	 DWORD PTR tv76[ebp], 0
  02c8f	75 04		 jne	 SHORT $LN3@SetKillCou

; 1126 : 	{
; 1127 : 		return FALSE;

  02c91	32 c0		 xor	 al, al
  02c93	eb 73		 jmp	 SHORT $LN5@SetKillCou
$LN3@SetKillCou:

; 1128 : 	}
; 1129 : 
; 1130 : 	BYTE loc2 = 0;

  02c95	c6 45 fb 00	 mov	 BYTE PTR _loc2$[ebp], 0

; 1131 : 
; 1132 : 	if(btObjType == 1)

  02c99	0f b6 45 10	 movzx	 eax, BYTE PTR _btObjType$[ebp]
  02c9d	83 f8 01	 cmp	 eax, 1
  02ca0	75 23		 jne	 SHORT $LN2@SetKillCou

; 1133 : 	{
; 1134 : 		this->m_IllusionTempleProcess[btMapNumber - MAP_INDEX_ILLUSIONTEMPLE_MIN].IncreaseUserKillCount(aIndex);

  02ca2	8b 45 08	 mov	 eax, DWORD PTR _aIndex$[ebp]
  02ca5	50		 push	 eax
  02ca6	0f b6 4d 0c	 movzx	 ecx, BYTE PTR _btMapNumber$[ebp]
  02caa	83 e9 2d	 sub	 ecx, 45			; 0000002dH
  02cad	69 c9 f0 03 00
	00		 imul	 ecx, 1008		; 000003f0H
  02cb3	8b 55 fc	 mov	 edx, DWORD PTR _this$[ebp]
  02cb6	8d 4c 0a 08	 lea	 ecx, DWORD PTR [edx+ecx+8]
  02cba	e8 00 00 00 00	 call	 ?IncreaseUserKillCount@CIllusionTempleProcess@@QAEXH@Z ; CIllusionTempleProcess::IncreaseUserKillCount

; 1135 : 		loc2 = 5;

  02cbf	c6 45 fb 05	 mov	 BYTE PTR _loc2$[ebp], 5

; 1136 : 	}
; 1137 : 	else

  02cc3	eb 21		 jmp	 SHORT $LN1@SetKillCou
$LN2@SetKillCou:

; 1138 : 	{
; 1139 : 		this->m_IllusionTempleProcess[btMapNumber - MAP_INDEX_ILLUSIONTEMPLE_MIN].IncreaseMonsterKillCount(aIndex);

  02cc5	8b 45 08	 mov	 eax, DWORD PTR _aIndex$[ebp]
  02cc8	50		 push	 eax
  02cc9	0f b6 4d 0c	 movzx	 ecx, BYTE PTR _btMapNumber$[ebp]
  02ccd	83 e9 2d	 sub	 ecx, 45			; 0000002dH
  02cd0	69 c9 f0 03 00
	00		 imul	 ecx, 1008		; 000003f0H
  02cd6	8b 55 fc	 mov	 edx, DWORD PTR _this$[ebp]
  02cd9	8d 4c 0a 08	 lea	 ecx, DWORD PTR [edx+ecx+8]
  02cdd	e8 00 00 00 00	 call	 ?IncreaseMonsterKillCount@CIllusionTempleProcess@@QAEXH@Z ; CIllusionTempleProcess::IncreaseMonsterKillCount

; 1140 : 		loc2 = 2;

  02ce2	c6 45 fb 02	 mov	 BYTE PTR _loc2$[ebp], 2
$LN1@SetKillCou:

; 1141 : 	}
; 1142 : 
; 1143 : 	return this->m_IllusionTempleProcess[btMapNumber - MAP_INDEX_ILLUSIONTEMPLE_MIN].AddKillPointToUser(aIndex, loc2);

  02ce6	0f b6 45 fb	 movzx	 eax, BYTE PTR _loc2$[ebp]
  02cea	50		 push	 eax
  02ceb	8b 4d 08	 mov	 ecx, DWORD PTR _aIndex$[ebp]
  02cee	51		 push	 ecx
  02cef	0f b6 55 0c	 movzx	 edx, BYTE PTR _btMapNumber$[ebp]
  02cf3	83 ea 2d	 sub	 edx, 45			; 0000002dH
  02cf6	69 d2 f0 03 00
	00		 imul	 edx, 1008		; 000003f0H
  02cfc	8b 45 fc	 mov	 eax, DWORD PTR _this$[ebp]
  02cff	8d 4c 10 08	 lea	 ecx, DWORD PTR [eax+edx+8]
  02d03	e8 00 00 00 00	 call	 ?AddKillPointToUser@CIllusionTempleProcess@@QAEEHE@Z ; CIllusionTempleProcess::AddKillPointToUser
$LN5@SetKillCou:

; 1144 : }

  02d08	5f		 pop	 edi
  02d09	5e		 pop	 esi
  02d0a	5b		 pop	 ebx
  02d0b	8b e5		 mov	 esp, ebp
  02d0d	5d		 pop	 ebp
  02d0e	c2 0c 00	 ret	 12			; 0000000cH
?SetKillCount@CIllusionTempleEvent@@QAEEHEE@Z ENDP	; CIllusionTempleEvent::SetKillCount
_TEXT	ENDS
PUBLIC	?RemoveKillPointFromUser@CIllusionTempleEvent@@QAEEHEE@Z ; CIllusionTempleEvent::RemoveKillPointFromUser
EXTRN	?RemoveKillPointFromUser@CIllusionTempleProcess@@QAEEHE@Z:PROC ; CIllusionTempleProcess::RemoveKillPointFromUser
; Function compile flags: /Odtp /ZI
_TEXT	SEGMENT
tv76 = -72						; size = 4
tv67 = -72						; size = 4
_this$ = -4						; size = 4
_aIndex$ = 8						; size = 4
_MapNumber$ = 12					; size = 1
_KillPoint$ = 16					; size = 1
?RemoveKillPointFromUser@CIllusionTempleEvent@@QAEEHEE@Z PROC ; CIllusionTempleEvent::RemoveKillPointFromUser
; _this$ = ecx

; 1147 : {

  02d20	55		 push	 ebp
  02d21	8b ec		 mov	 ebp, esp
  02d23	83 ec 48	 sub	 esp, 72			; 00000048H
  02d26	53		 push	 ebx
  02d27	56		 push	 esi
  02d28	57		 push	 edi
  02d29	89 4d fc	 mov	 DWORD PTR _this$[ebp], ecx

; 1148 : 	if( OBJMAX_RANGE(aIndex) == FALSE )

  02d2c	83 7d 08 00	 cmp	 DWORD PTR _aIndex$[ebp], 0
  02d30	7d 09		 jge	 SHORT $LN5@RemoveKill
  02d32	c7 45 b8 00 00
	00 00		 mov	 DWORD PTR tv67[ebp], 0
  02d39	eb 0f		 jmp	 SHORT $LN6@RemoveKill
$LN5@RemoveKill:
  02d3b	33 c0		 xor	 eax, eax
  02d3d	81 7d 08 97 3a
	00 00		 cmp	 DWORD PTR _aIndex$[ebp], 14999 ; 00003a97H
  02d44	0f 9e c0	 setle	 al
  02d47	89 45 b8	 mov	 DWORD PTR tv67[ebp], eax
$LN6@RemoveKill:
  02d4a	83 7d b8 00	 cmp	 DWORD PTR tv67[ebp], 0
  02d4e	75 04		 jne	 SHORT $LN2@RemoveKill

; 1149 : 	{
; 1150 : 		return FALSE;

  02d50	32 c0		 xor	 al, al
  02d52	eb 50		 jmp	 SHORT $LN3@RemoveKill
$LN2@RemoveKill:

; 1151 : 	}
; 1152 : 
; 1153 : 	if( CHECK_LIMIT( (MapNumber - MAP_INDEX_ILLUSIONTEMPLE_MIN), MAX_FLOOR_DATA+1) == FALSE )

  02d54	0f b6 45 0c	 movzx	 eax, BYTE PTR _MapNumber$[ebp]
  02d58	83 e8 2d	 sub	 eax, 45			; 0000002dH
  02d5b	79 09		 jns	 SHORT $LN7@RemoveKill
  02d5d	c7 45 b8 00 00
	00 00		 mov	 DWORD PTR tv76[ebp], 0
  02d64	eb 12		 jmp	 SHORT $LN8@RemoveKill
$LN7@RemoveKill:
  02d66	0f b6 4d 0c	 movzx	 ecx, BYTE PTR _MapNumber$[ebp]
  02d6a	83 e9 2d	 sub	 ecx, 45			; 0000002dH
  02d6d	33 d2		 xor	 edx, edx
  02d6f	83 f9 05	 cmp	 ecx, 5
  02d72	0f 9e c2	 setle	 dl
  02d75	89 55 b8	 mov	 DWORD PTR tv76[ebp], edx
$LN8@RemoveKill:
  02d78	83 7d b8 00	 cmp	 DWORD PTR tv76[ebp], 0
  02d7c	75 04		 jne	 SHORT $LN1@RemoveKill

; 1154 : 	{
; 1155 : 		return FALSE;

  02d7e	32 c0		 xor	 al, al
  02d80	eb 22		 jmp	 SHORT $LN3@RemoveKill
$LN1@RemoveKill:

; 1156 : 	}
; 1157 : 
; 1158 : 	return this->m_IllusionTempleProcess[MapNumber - MAP_INDEX_ILLUSIONTEMPLE_MIN].RemoveKillPointFromUser(aIndex, KillPoint);

  02d82	0f b6 45 10	 movzx	 eax, BYTE PTR _KillPoint$[ebp]
  02d86	50		 push	 eax
  02d87	8b 4d 08	 mov	 ecx, DWORD PTR _aIndex$[ebp]
  02d8a	51		 push	 ecx
  02d8b	0f b6 55 0c	 movzx	 edx, BYTE PTR _MapNumber$[ebp]
  02d8f	83 ea 2d	 sub	 edx, 45			; 0000002dH
  02d92	69 d2 f0 03 00
	00		 imul	 edx, 1008		; 000003f0H
  02d98	8b 45 fc	 mov	 eax, DWORD PTR _this$[ebp]
  02d9b	8d 4c 10 08	 lea	 ecx, DWORD PTR [eax+edx+8]
