; Listing generated by Microsoft (R) Optimizing Compiler Version 16.00.40219.01 

	TITLE	D:\Projects\ExTeam6.3\Source\GameServer\GameServer\IllusionTempleProcess.cpp
	.686P
	.XMM
	include listing.inc
	.model	flat

INCLUDELIB LIBCMT
INCLUDELIB OLDNAMES

_DATA	SEGMENT
_g_iNpcUpDfLevel_CGATE DD 01H
	DD	02H
	DD	02dc6c0H
	DD	02H
	DD	03H
	DD	02dc6c0H
	DD	03H
	DD	04H
	DD	02dc6c0H
_g_iNpcUpDfLevel_CSTATUE DD 01H
	DD	03H
	DD	02dc6c0H
	DD	02H
	DD	05H
	DD	02dc6c0H
	DD	03H
	DD	07H
	DD	02dc6c0H
_g_iNpcUpMaxHP_CGATE DD 02625a0H
	DD	02H
	DD	0f4240H
	DD	03567e0H
	DD	03H
	DD	0f4240H
	DD	04f5880H
	DD	04H
	DD	0f4240H
_g_iNpcUpMaxHP_CSTATUE DD 02191c0H
	DD	03H
	DD	0f4240H
	DD	033e140H
	DD	05H
	DD	0f4240H
	DD	04c4b40H
	DD	07H
	DD	0f4240H
_g_iNpcUpRgLevel_CSTATUE DD 01H
	DD	03H
	DD	04c4b40H
	DD	02H
	DD	05H
	DD	04c4b40H
	DD	03H
	DD	07H
	DD	04c4b40H
_g_iCsUserReSpawnArea DD 023H
	DD	011H
	DD	090H
	DD	030H
	DD	04aH
	DD	090H
	DD	073H
	DD	09aH
	DD	023H
	DD	011H
	DD	090H
	DD	030H
_g_iNpcDefense_CGATE DD 064H
	DD	0b4H
	DD	012cH
	DD	0208H
_g_iNpcDefense_CSTATUE DD 050H
	DD	0b4H
	DD	0154H
	DD	0226H
_g_iCastleWallStepAxisY DD 071H
	DD	0a0H
	DD	0cbH
_g_sttBLOODCASTLE_LEVEL DD 0fH
	DD	050H
	DD	0aH
	DD	03cH
	DD	051H
	DD	082H
	DD	03dH
	DD	06eH
	DD	083H
	DD	0b4H
	DD	06fH
	DD	0a0H
	DD	0b5H
	DD	0e6H
	DD	0a1H
	DD	0d2H
	DD	0e7H
	DD	0118H
	DD	0d3H
	DD	0104H
	DD	0119H
	DD	014aH
	DD	0105H
	DD	0136H
	DD	014bH
	DD	0190H
	DD	0137H
	DD	0190H
	DD	0fH
	DD	0257H
	DD	0aH
	DD	0257H
_g_sttCHAOSCASTLE_LEVEL DD 0fH
	DD	031H
	DD	0fH
	DD	01dH
	DD	032H
	DD	077H
	DD	01eH
	DD	063H
	DD	078H
	DD	0b3H
	DD	064H
	DD	09fH
	DD	0b4H
	DD	0efH
	DD	0a0H
	DD	0dbH
	DD	0f0H
	DD	012bH
	DD	0dcH
	DD	0117H
	DD	012cH
	DD	0190H
	DD	0118H
	DD	0190H
	DD	0190H
	DD	0257H
	DD	0190H
	DD	0257H
_g_iChaosCastle_BlowOutDistance DD 03H
	DD	04H
	DD	03H
	DD	04H
	DD	02H
	DD	03H
	DD	00H
	DD	01H
_g_iChaosCastle_BlowOutDamage DD 0fH
	DD	0fH
	DD	0aH
	DD	05H
_g_iChaosCastle_EnterCost DD 061a8H
	DD	013880H
	DD	0249f0H
	DD	03d090H
	DD	061a80H
	DD	09eb10H
	DD	0f4240H
_g_iChaosCastle_GuardSetValue DD 09c4H
	DD	09c4H
	DD	09c4H
	DD	09c4H
	DD	09c4H
	DD	09c4H
	DD	09c4H
_g_iChaosCastle_MonsterItems DD 01c0dH
	DD	01H
	DD	01c0eH
	DD	02H
	DD	01c0dH
	DD	01H
	DD	01c0eH
	DD	03H
	DD	01c0dH
	DD	01H
	DD	01c0eH
	DD	03H
	DD	01c0dH
	DD	02H
	DD	01c0eH
	DD	02H
	DD	01c0dH
	DD	02H
	DD	01c0eH
	DD	03H
	DD	01c0dH
	DD	02H
	DD	01c0eH
	DD	03H
	DD	01c0dH
	DD	02H
	DD	01c0eH
	DD	04H
_g_iChaosCastle_MonsterItemsNewServer DD 00H
	DD	00H
	DD	01c0eH
	DD	02H
	DD	01c0dH
	DD	01H
	DD	01c0eH
	DD	01H
	DD	01c0dH
	DD	01H
	DD	01c0eH
	DD	02H
	DD	01c0dH
	DD	01H
	DD	01c0eH
	DD	02H
	DD	01c0dH
	DD	02H
	DD	01c0eH
	DD	01H
	DD	01c0dH
	DD	02H
	DD	01c0eH
	DD	02H
	DD	01c0dH
	DD	02H
	DD	01c0eH
	DD	03H
_g_iChaosCastle_GroundAxis DD 017H
	DD	04bH
	DD	02cH
	DD	06cH
_g_iChaosCastle_DamageAxis DD 017H
	DD	04bH
	DD	02cH
	DD	06cH
	DD	019H
	DD	04dH
	DD	02aH
	DD	06aH
	DD	01bH
	DD	04fH
	DD	028H
	DD	068H
	DD	01dH
	DD	051H
	DD	026H
	DD	066H
_g_iChaosCastle_MapHollowZone DD 017H
	DD	04bH
	DD	02cH
	DD	04cH
	DD	02bH
	DD	04dH
	DD	02cH
	DD	06cH
	DD	017H
	DD	06bH
	DD	02aH
	DD	06cH
	DD	017H
	DD	04dH
	DD	018H
	DD	06aH
	DD	017H
	DD	04bH
	DD	02cH
	DD	04cH
	DD	02bH
	DD	04dH
	DD	02cH
	DD	06cH
	DD	017H
	DD	06bH
	DD	02aH
	DD	06cH
	DD	017H
	DD	04dH
	DD	018H
	DD	06aH
	DD	019H
	DD	04dH
	DD	02aH
	DD	04eH
	DD	029H
	DD	04fH
	DD	02aH
	DD	06aH
	DD	019H
	DD	069H
	DD	028H
	DD	06aH
	DD	019H
	DD	04fH
	DD	01aH
	DD	068H
	DD	01bH
	DD	04fH
	DD	028H
	DD	050H
	DD	027H
	DD	051H
	DD	028H
	DD	068H
	DD	01bH
	DD	067H
	DD	026H
	DD	068H
	DD	01bH
	DD	051H
	DD	01cH
	DD	066H
_DATA	ENDS
CONST	SEGMENT
_g_IllusionTemple_Default_Exp DD 0493e0H
	DD	053020H
	DD	05cc60H
	DD	0668a0H
	DD	0704e0H
	DD	07a120H
_g_IllusionTemple_unk0 DD 0c350H
	DD	0ea60H
	DD	011170H
	DD	013880H
	DD	015f90H
	DD	0186a0H
_g_IllusionTemple_unk1 DD 0258H
	DD	04b0H
	DD	0708H
	DD	0960H
	DD	0bb8H
	DD	0dacH
_g_IllusionTemple_unk2 DD 04b0H
	DD	0960H
	DD	0e10H
	DD	012c0H
	DD	01770H
	DD	01c20H
_g_IllusionTemple_Team_Players DD 0aH
	DD	014H
	DD	01eH
	DD	028H
	DD	032H
CONST	ENDS
PUBLIC	??_H@YGXPAXIHP6EPAX0@Z@Z			; `vector constructor iterator'
; Function compile flags: /Odtp /ZI
;	COMDAT ??_H@YGXPAXIHP6EPAX0@Z@Z
_TEXT	SEGMENT
___t$ = 8						; size = 4
___s$ = 12						; size = 4
___n$ = 16						; size = 4
___f$ = 20						; size = 4
??_H@YGXPAXIHP6EPAX0@Z@Z PROC				; `vector constructor iterator', COMDAT
  00000	55		 push	 ebp
  00001	8b ec		 mov	 ebp, esp
  00003	83 ec 40	 sub	 esp, 64			; 00000040H
  00006	53		 push	 ebx
  00007	56		 push	 esi
  00008	57		 push	 edi
$LN2@vector:
  00009	8b 45 10	 mov	 eax, DWORD PTR ___n$[ebp]
  0000c	83 e8 01	 sub	 eax, 1
  0000f	89 45 10	 mov	 DWORD PTR ___n$[ebp], eax
  00012	78 11		 js	 SHORT $LN3@vector
  00014	8b 4d 08	 mov	 ecx, DWORD PTR ___t$[ebp]
  00017	ff 55 14	 call	 DWORD PTR ___f$[ebp]
  0001a	8b 45 08	 mov	 eax, DWORD PTR ___t$[ebp]
  0001d	03 45 0c	 add	 eax, DWORD PTR ___s$[ebp]
  00020	89 45 08	 mov	 DWORD PTR ___t$[ebp], eax
  00023	eb e4		 jmp	 SHORT $LN2@vector
$LN3@vector:
  00025	5f		 pop	 edi
  00026	5e		 pop	 esi
  00027	5b		 pop	 ebx
  00028	8b e5		 mov	 esp, ebp
  0002a	5d		 pop	 ebp
  0002b	c2 10 00	 ret	 16			; 00000010H
??_H@YGXPAXIHP6EPAX0@Z@Z ENDP				; `vector constructor iterator'
_TEXT	ENDS
PUBLIC	?ClearMonstersData@CIllusionTempleProcess@@QAEXXZ ; CIllusionTempleProcess::ClearMonstersData
PUBLIC	??0_ILLUSIONTEMPLE_FLOOR_DATA@@QAE@XZ		; _ILLUSIONTEMPLE_FLOOR_DATA::_ILLUSIONTEMPLE_FLOOR_DATA
PUBLIC	??_7CIllusionTempleProcess@@6B@			; CIllusionTempleProcess::`vftable'
PUBLIC	??0CIllusionTempleProcess@@QAE@XZ		; CIllusionTempleProcess::CIllusionTempleProcess
PUBLIC	??_R4CIllusionTempleProcess@@6B@		; CIllusionTempleProcess::`RTTI Complete Object Locator'
PUBLIC	??_R0?AVCIllusionTempleProcess@@@8		; CIllusionTempleProcess `RTTI Type Descriptor'
PUBLIC	??_R3CIllusionTempleProcess@@8			; CIllusionTempleProcess::`RTTI Class Hierarchy Descriptor'
PUBLIC	??_R2CIllusionTempleProcess@@8			; CIllusionTempleProcess::`RTTI Base Class Array'
PUBLIC	??_R1A@?0A@EA@CIllusionTempleProcess@@8		; CIllusionTempleProcess::`RTTI Base Class Descriptor at (0,-1,0,64)'
EXTRN	__imp__InitializeCriticalSection@4:PROC
EXTRN	??_7type_info@@6B@:QWORD			; type_info::`vftable'
EXTRN	??_ECIllusionTempleProcess@@UAEPAXI@Z:PROC	; CIllusionTempleProcess::`vector deleting destructor'
;	COMDAT ??_R1A@?0A@EA@CIllusionTempleProcess@@8
; File d:\projects\exteam6.3\source\gameserver\gameserver\illusiontempleprocess.cpp
rdata$r	SEGMENT
??_R1A@?0A@EA@CIllusionTempleProcess@@8 DD FLAT:??_R0?AVCIllusionTempleProcess@@@8 ; CIllusionTempleProcess::`RTTI Base Class Descriptor at (0,-1,0,64)'
	DD	00H
	DD	00H
	DD	0ffffffffH
	DD	00H
	DD	040H
	DD	FLAT:??_R3CIllusionTempleProcess@@8
rdata$r	ENDS
;	COMDAT ??_R2CIllusionTempleProcess@@8
rdata$r	SEGMENT
??_R2CIllusionTempleProcess@@8 DD FLAT:??_R1A@?0A@EA@CIllusionTempleProcess@@8 ; CIllusionTempleProcess::`RTTI Base Class Array'
rdata$r	ENDS
;	COMDAT ??_R3CIllusionTempleProcess@@8
rdata$r	SEGMENT
??_R3CIllusionTempleProcess@@8 DD 00H			; CIllusionTempleProcess::`RTTI Class Hierarchy Descriptor'
	DD	00H
	DD	01H
	DD	FLAT:??_R2CIllusionTempleProcess@@8
rdata$r	ENDS
;	COMDAT ??_R0?AVCIllusionTempleProcess@@@8
_DATA	SEGMENT
??_R0?AVCIllusionTempleProcess@@@8 DD FLAT:??_7type_info@@6B@ ; CIllusionTempleProcess `RTTI Type Descriptor'
	DD	00H
	DB	'.?AVCIllusionTempleProcess@@', 00H
_DATA	ENDS
;	COMDAT ??_R4CIllusionTempleProcess@@6B@
rdata$r	SEGMENT
??_R4CIllusionTempleProcess@@6B@ DD 00H			; CIllusionTempleProcess::`RTTI Complete Object Locator'
	DD	00H
	DD	00H
	DD	FLAT:??_R0?AVCIllusionTempleProcess@@@8
	DD	FLAT:??_R3CIllusionTempleProcess@@8
rdata$r	ENDS
;	COMDAT ??_7CIllusionTempleProcess@@6B@
CONST	SEGMENT
??_7CIllusionTempleProcess@@6B@ DD FLAT:??_R4CIllusionTempleProcess@@6B@ ; CIllusionTempleProcess::`vftable'
	DD	FLAT:??_ECIllusionTempleProcess@@UAEPAXI@Z
; Function compile flags: /Odtp /ZI
CONST	ENDS
_TEXT	SEGMENT
_this$ = -4						; size = 4
??0CIllusionTempleProcess@@QAE@XZ PROC			; CIllusionTempleProcess::CIllusionTempleProcess
; _this$ = ecx

; 25   : {

  00000	55		 push	 ebp
  00001	8b ec		 mov	 ebp, esp
  00003	83 ec 44	 sub	 esp, 68			; 00000044H
  00006	53		 push	 ebx
  00007	56		 push	 esi
  00008	57		 push	 edi
  00009	89 4d fc	 mov	 DWORD PTR _this$[ebp], ecx
  0000c	8b 45 fc	 mov	 eax, DWORD PTR _this$[ebp]
  0000f	c7 00 00 00 00
	00		 mov	 DWORD PTR [eax], OFFSET ??_7CIllusionTempleProcess@@6B@
  00015	68 00 00 00 00	 push	 OFFSET ??0_ILLUSIONTEMPLE_FLOOR_DATA@@QAE@XZ ; _ILLUSIONTEMPLE_FLOOR_DATA::_ILLUSIONTEMPLE_FLOOR_DATA
  0001a	6a 0a		 push	 10			; 0000000aH
  0001c	6a 30		 push	 48			; 00000030H
  0001e	8b 45 fc	 mov	 eax, DWORD PTR _this$[ebp]
  00021	83 c0 20	 add	 eax, 32			; 00000020H
  00024	50		 push	 eax
  00025	e8 00 00 00 00	 call	 ??_H@YGXPAXIHP6EPAX0@Z@Z
  0002a	8b 45 fc	 mov	 eax, DWORD PTR _this$[ebp]
  0002d	c6 80 2c 02 00
	00 ff		 mov	 BYTE PTR [eax+556], 255	; 000000ffH
  00034	8b 45 fc	 mov	 eax, DWORD PTR _this$[ebp]
  00037	c6 80 2d 02 00
	00 00		 mov	 BYTE PTR [eax+557], 0
  0003e	8b 45 fc	 mov	 eax, DWORD PTR _this$[ebp]
  00041	c7 80 a4 03 00
	00 00 00 00 00	 mov	 DWORD PTR [eax+932], 0
  0004b	8b 45 fc	 mov	 eax, DWORD PTR _this$[ebp]
  0004e	c7 80 c0 03 00
	00 00 00 00 00	 mov	 DWORD PTR [eax+960], 0
  00058	8b 45 fc	 mov	 eax, DWORD PTR _this$[ebp]
  0005b	c7 80 c4 03 00
	00 00 00 00 00	 mov	 DWORD PTR [eax+964], 0

; 26   : 	InitializeCriticalSection(&this->m_cs);

  00065	8b 45 fc	 mov	 eax, DWORD PTR _this$[ebp]
  00068	83 c0 08	 add	 eax, 8
  0006b	50		 push	 eax
  0006c	ff 15 00 00 00
	00		 call	 DWORD PTR __imp__InitializeCriticalSection@4

; 27   : 
; 28   : 	this->m_iEventBattleTimer = -1;

  00072	8b 45 fc	 mov	 eax, DWORD PTR _this$[ebp]
  00075	c7 80 9c 03 00
	00 ff ff ff ff	 mov	 DWORD PTR [eax+924], -1

; 29   : 
; 30   : 	this->ClearMonstersData();

  0007f	8b 4d fc	 mov	 ecx, DWORD PTR _this$[ebp]
  00082	e8 00 00 00 00	 call	 ?ClearMonstersData@CIllusionTempleProcess@@QAEXXZ ; CIllusionTempleProcess::ClearMonstersData

; 31   : }

  00087	8b 45 fc	 mov	 eax, DWORD PTR _this$[ebp]
  0008a	5f		 pop	 edi
  0008b	5e		 pop	 esi
  0008c	5b		 pop	 ebx
  0008d	8b e5		 mov	 esp, ebp
  0008f	5d		 pop	 ebp
  00090	c3		 ret	 0
??0CIllusionTempleProcess@@QAE@XZ ENDP			; CIllusionTempleProcess::CIllusionTempleProcess
; Function compile flags: /Odtp /ZI
; File d:\projects\exteam6.3\source\gameserver\gameserver\illusiontempleprocess.h
_TEXT	ENDS
;	COMDAT ??0_ILLUSIONTEMPLE_FLOOR_DATA@@QAE@XZ
_TEXT	SEGMENT
_this$ = -4						; size = 4
??0_ILLUSIONTEMPLE_FLOOR_DATA@@QAE@XZ PROC		; _ILLUSIONTEMPLE_FLOOR_DATA::_ILLUSIONTEMPLE_FLOOR_DATA, COMDAT
; _this$ = ecx

; 93   : 	_ILLUSIONTEMPLE_FLOOR_DATA()

  00000	55		 push	 ebp
  00001	8b ec		 mov	 ebp, esp
  00003	83 ec 44	 sub	 esp, 68			; 00000044H
  00006	53		 push	 ebx
  00007	56		 push	 esi
  00008	57		 push	 edi
  00009	89 4d fc	 mov	 DWORD PTR _this$[ebp], ecx

; 94   : 	{
; 95   : 		m_iTeamPlayerIndex = -1;

  0000c	8b 45 fc	 mov	 eax, DWORD PTR _this$[ebp]
  0000f	c7 00 ff ff ff
	ff		 mov	 DWORD PTR [eax], -1

; 96   : 		m_btPosNDur = -1;

  00015	8b 45 fc	 mov	 eax, DWORD PTR _this$[ebp]
  00018	c6 40 28 ff	 mov	 BYTE PTR [eax+40], 255	; 000000ffH

; 97   : 	}

  0001c	8b 45 fc	 mov	 eax, DWORD PTR _this$[ebp]
  0001f	5f		 pop	 edi
  00020	5e		 pop	 esi
  00021	5b		 pop	 ebx
  00022	8b e5		 mov	 esp, ebp
  00024	5d		 pop	 ebp
  00025	c3		 ret	 0
??0_ILLUSIONTEMPLE_FLOOR_DATA@@QAE@XZ ENDP		; _ILLUSIONTEMPLE_FLOOR_DATA::_ILLUSIONTEMPLE_FLOOR_DATA
_TEXT	ENDS
PUBLIC	??1CIllusionTempleProcess@@UAE@XZ		; CIllusionTempleProcess::~CIllusionTempleProcess
EXTRN	??3@YAXPAX@Z:PROC				; operator delete
; Function compile flags: /Odtp /ZI
;	COMDAT ??_GCIllusionTempleProcess@@UAEPAXI@Z
_TEXT	SEGMENT
_this$ = -4						; size = 4
___flags$ = 8						; size = 4
??_GCIllusionTempleProcess@@UAEPAXI@Z PROC		; CIllusionTempleProcess::`scalar deleting destructor', COMDAT
; _this$ = ecx
  00000	55		 push	 ebp
  00001	8b ec		 mov	 ebp, esp
  00003	83 ec 44	 sub	 esp, 68			; 00000044H
  00006	53		 push	 ebx
  00007	56		 push	 esi
  00008	57		 push	 edi
  00009	89 4d fc	 mov	 DWORD PTR _this$[ebp], ecx
  0000c	8b 4d fc	 mov	 ecx, DWORD PTR _this$[ebp]
  0000f	e8 00 00 00 00	 call	 ??1CIllusionTempleProcess@@UAE@XZ ; CIllusionTempleProcess::~CIllusionTempleProcess
  00014	8b 45 08	 mov	 eax, DWORD PTR ___flags$[ebp]
  00017	83 e0 01	 and	 eax, 1
  0001a	74 0c		 je	 SHORT $LN1@scalar
  0001c	8b 45 fc	 mov	 eax, DWORD PTR _this$[ebp]
  0001f	50		 push	 eax
  00020	e8 00 00 00 00	 call	 ??3@YAXPAX@Z		; operator delete
  00025	83 c4 04	 add	 esp, 4
$LN1@scalar:
  00028	8b 45 fc	 mov	 eax, DWORD PTR _this$[ebp]
  0002b	5f		 pop	 edi
  0002c	5e		 pop	 esi
  0002d	5b		 pop	 ebx
  0002e	8b e5		 mov	 esp, ebp
  00030	5d		 pop	 ebp
  00031	c2 04 00	 ret	 4
??_GCIllusionTempleProcess@@UAEPAXI@Z ENDP		; CIllusionTempleProcess::`scalar deleting destructor'
_TEXT	ENDS
EXTRN	__imp__DeleteCriticalSection@4:PROC
; Function compile flags: /Odtp /ZI
; File d:\projects\exteam6.3\source\gameserver\gameserver\illusiontempleprocess.cpp
_TEXT	SEGMENT
_this$ = -4						; size = 4
??1CIllusionTempleProcess@@UAE@XZ PROC			; CIllusionTempleProcess::~CIllusionTempleProcess
; _this$ = ecx

; 34   : {

  000a0	55		 push	 ebp
  000a1	8b ec		 mov	 ebp, esp
  000a3	83 ec 44	 sub	 esp, 68			; 00000044H
  000a6	53		 push	 ebx
  000a7	56		 push	 esi
  000a8	57		 push	 edi
  000a9	89 4d fc	 mov	 DWORD PTR _this$[ebp], ecx
  000ac	8b 45 fc	 mov	 eax, DWORD PTR _this$[ebp]
  000af	c7 00 00 00 00
	00		 mov	 DWORD PTR [eax], OFFSET ??_7CIllusionTempleProcess@@6B@

; 35   : 	DeleteCriticalSection(&this->m_cs);

  000b5	8b 45 fc	 mov	 eax, DWORD PTR _this$[ebp]
  000b8	83 c0 08	 add	 eax, 8
  000bb	50		 push	 eax
  000bc	ff 15 00 00 00
	00		 call	 DWORD PTR __imp__DeleteCriticalSection@4

; 36   : }

  000c2	5f		 pop	 edi
  000c3	5e		 pop	 esi
  000c4	5b		 pop	 ebx
  000c5	8b e5		 mov	 esp, ebp
  000c7	5d		 pop	 ebp
  000c8	c3		 ret	 0
??1CIllusionTempleProcess@@UAE@XZ ENDP			; CIllusionTempleProcess::~CIllusionTempleProcess
_TEXT	ENDS
PUBLIC	?CheckSync@CIllusionTempleProcess@@QAEXXZ	; CIllusionTempleProcess::CheckSync
PUBLIC	?ResetUserKillCountPoint@CIllusionTempleProcess@@QAEXXZ ; CIllusionTempleProcess::ResetUserKillCountPoint
PUBLIC	?InitFloorData@CIllusionTempleProcess@@QAEXH@Z	; CIllusionTempleProcess::InitFloorData
PUBLIC	?Init@CIllusionTempleProcess@@QAEXH@Z		; CIllusionTempleProcess::Init
EXTRN	__imp__GetTickCount@0:PROC
; Function compile flags: /Odtp /ZI
_TEXT	SEGMENT
_i$ = -8						; size = 4
_this$ = -4						; size = 4
_FloorIndex$ = 8					; size = 4
?Init@CIllusionTempleProcess@@QAEXH@Z PROC		; CIllusionTempleProcess::Init
; _this$ = ecx

; 39   : {

  000d0	55		 push	 ebp
  000d1	8b ec		 mov	 ebp, esp
  000d3	83 ec 48	 sub	 esp, 72			; 00000048H
  000d6	53		 push	 ebx
  000d7	56		 push	 esi
  000d8	57		 push	 edi
  000d9	89 4d fc	 mov	 DWORD PTR _this$[ebp], ecx

; 40   : 	if(this->m_btFloorIndex == (BYTE)-1)

  000dc	8b 45 fc	 mov	 eax, DWORD PTR _this$[ebp]
  000df	0f b6 88 2c 02
	00 00		 movzx	 ecx, BYTE PTR [eax+556]
  000e6	81 f9 ff 00 00
	00		 cmp	 ecx, 255		; 000000ffH
  000ec	75 0c		 jne	 SHORT $LN7@Init

; 41   : 	{
; 42   : 		this->m_btFloorIndex = FloorIndex;

  000ee	8b 45 fc	 mov	 eax, DWORD PTR _this$[ebp]
  000f1	8a 4d 08	 mov	 cl, BYTE PTR _FloorIndex$[ebp]
  000f4	88 88 2c 02 00
	00		 mov	 BYTE PTR [eax+556], cl
$LN7@Init:

; 43   : 	}
; 44   : 	
; 45   : 	int i;
; 46   : 	for(i = 0; i < MAX_FLOOR_USER; i++ )

  000fa	c7 45 f8 00 00
	00 00		 mov	 DWORD PTR _i$[ebp], 0
  00101	eb 09		 jmp	 SHORT $LN6@Init
$LN5@Init:
  00103	8b 45 f8	 mov	 eax, DWORD PTR _i$[ebp]
  00106	83 c0 01	 add	 eax, 1
  00109	89 45 f8	 mov	 DWORD PTR _i$[ebp], eax
$LN6@Init:
  0010c	83 7d f8 0a	 cmp	 DWORD PTR _i$[ebp], 10	; 0000000aH
  00110	7d 0e		 jge	 SHORT $LN4@Init

; 47   : 	{
; 48   : 		this->InitFloorData(i);

  00112	8b 45 f8	 mov	 eax, DWORD PTR _i$[ebp]
  00115	50		 push	 eax
  00116	8b 4d fc	 mov	 ecx, DWORD PTR _this$[ebp]
  00119	e8 00 00 00 00	 call	 ?InitFloorData@CIllusionTempleProcess@@QAEXH@Z ; CIllusionTempleProcess::InitFloorData

; 49   : 	}

  0011e	eb e3		 jmp	 SHORT $LN5@Init
$LN4@Init:

; 50   : 
; 51   : 	this->m_iCloseTickCount = GetTickCount();

  00120	ff 15 00 00 00
	00		 call	 DWORD PTR __imp__GetTickCount@0
  00126	8b 4d fc	 mov	 ecx, DWORD PTR _this$[ebp]
  00129	89 81 a0 03 00
	00		 mov	 DWORD PTR [ecx+928], eax

; 52   : 	this->m_iBallPlayerIndex = -1;

  0012f	8b 45 fc	 mov	 eax, DWORD PTR _this$[ebp]
  00132	c7 80 b8 03 00
	00 ff ff ff ff	 mov	 DWORD PTR [eax+952], -1

; 53   : 	this->m_btBallInventoryPosition = (BYTE)-1;

  0013c	8b 45 fc	 mov	 eax, DWORD PTR _this$[ebp]
  0013f	c6 80 bd 03 00
	00 ff		 mov	 BYTE PTR [eax+957], 255	; 000000ffH

; 54   : 	this->m_btAllowedRegPedestal = (BYTE)-1;

  00146	8b 45 fc	 mov	 eax, DWORD PTR _this$[ebp]
  00149	c6 80 bc 03 00
	00 ff		 mov	 BYTE PTR [eax+956], 255	; 000000ffH

; 55   : 	this->m_iYellowTeamUserCount = 0;

  00150	8b 45 fc	 mov	 eax, DWORD PTR _this$[ebp]
  00153	c7 80 c8 03 00
	00 00 00 00 00	 mov	 DWORD PTR [eax+968], 0

; 56   : 	this->m_iBlueTeamUserCount = 0;

  0015d	8b 45 fc	 mov	 eax, DWORD PTR _this$[ebp]
  00160	c7 80 cc 03 00
	00 00 00 00 00	 mov	 DWORD PTR [eax+972], 0

; 57   : 	this->m_btYellowTeamScore = 0;

  0016a	8b 45 fc	 mov	 eax, DWORD PTR _this$[ebp]
  0016d	c6 80 d0 03 00
	00 00		 mov	 BYTE PTR [eax+976], 0

; 58   : 	this->m_btBlueTeamScore = 0;

  00174	8b 45 fc	 mov	 eax, DWORD PTR _this$[ebp]
  00177	c6 80 d1 03 00
	00 00		 mov	 BYTE PTR [eax+977], 0

; 59   : 	this->m_iStatueRegenTickCount = -1;

  0017e	8b 45 fc	 mov	 eax, DWORD PTR _this$[ebp]
  00181	c7 80 94 03 00
	00 ff ff ff ff	 mov	 DWORD PTR [eax+916], -1

; 60   : 	this->m_btWinnerTeam = (BYTE)-1;

  0018b	8b 45 fc	 mov	 eax, DWORD PTR _this$[ebp]
  0018e	c6 80 d2 03 00
	00 ff		 mov	 BYTE PTR [eax+978], 255	; 000000ffH

; 61   : 	this->m_bOpenStatus = FALSE;

  00195	8b 45 fc	 mov	 eax, DWORD PTR _this$[ebp]
  00198	c7 80 90 03 00
	00 00 00 00 00	 mov	 DWORD PTR [eax+912], 0

; 62   : 	this->m_iEventBattleTimer = -1;

  001a2	8b 45 fc	 mov	 eax, DWORD PTR _this$[ebp]
  001a5	c7 80 9c 03 00
	00 ff ff ff ff	 mov	 DWORD PTR [eax+924], -1

; 63   : 	this->m_bIllusionTempleEventEnded = FALSE;

  001af	8b 45 fc	 mov	 eax, DWORD PTR _this$[ebp]
  001b2	c7 80 ac 03 00
	00 00 00 00 00	 mov	 DWORD PTR [eax+940], 0

; 64   : 	this->m_bMsgBeforeEnterTemple = FALSE;

  001bc	8b 45 fc	 mov	 eax, DWORD PTR _this$[ebp]
  001bf	c7 80 b0 03 00
	00 00 00 00 00	 mov	 DWORD PTR [eax+944], 0

; 65   : 	this->m_bMsgBeforeEnterBattle = FALSE;

  001c9	8b 45 fc	 mov	 eax, DWORD PTR _this$[ebp]
  001cc	c7 80 b4 03 00
	00 00 00 00 00	 mov	 DWORD PTR [eax+948], 0

; 66   : 	this->m_iLeftMinutesBeforeEnd = 0;

  001d6	8b 45 fc	 mov	 eax, DWORD PTR _this$[ebp]
  001d9	c7 80 a8 03 00
	00 00 00 00 00	 mov	 DWORD PTR [eax+936], 0

; 67   : 
; 68   : 	this->ResetUserKillCountPoint();

  001e3	8b 4d fc	 mov	 ecx, DWORD PTR _this$[ebp]
  001e6	e8 00 00 00 00	 call	 ?ResetUserKillCountPoint@CIllusionTempleProcess@@QAEXXZ ; CIllusionTempleProcess::ResetUserKillCountPoint

; 69   : 
; 70   : 	this->CheckSync();

  001eb	8b 4d fc	 mov	 ecx, DWORD PTR _this$[ebp]
  001ee	e8 00 00 00 00	 call	 ?CheckSync@CIllusionTempleProcess@@QAEXXZ ; CIllusionTempleProcess::CheckSync

; 71   : 
; 72   : 	this->m_bTimeCheckSync = FALSE;

  001f3	8b 45 fc	 mov	 eax, DWORD PTR _this$[ebp]
  001f6	c7 80 e4 03 00
	00 00 00 00 00	 mov	 DWORD PTR [eax+996], 0

; 73   : 
; 74   : 	for( i = 0; i < MAX_TYPE_PLAYER; i++ )

  00200	c7 45 f8 00 00
	00 00		 mov	 DWORD PTR _i$[ebp], 0
  00207	eb 09		 jmp	 SHORT $LN3@Init
$LN2@Init:
  00209	8b 45 f8	 mov	 eax, DWORD PTR _i$[ebp]
  0020c	83 c0 01	 add	 eax, 1
  0020f	89 45 f8	 mov	 DWORD PTR _i$[ebp], eax
$LN3@Init:
  00212	83 7d f8 07	 cmp	 DWORD PTR _i$[ebp], 7
  00216	7d 1c		 jge	 SHORT $LN1@Init

; 75   : 	{
; 76   : 		this->m_btYellowTeamClassCount[i] = 0;

  00218	8b 45 fc	 mov	 eax, DWORD PTR _this$[ebp]
  0021b	03 45 f8	 add	 eax, DWORD PTR _i$[ebp]
  0021e	c6 80 d3 03 00
	00 00		 mov	 BYTE PTR [eax+979], 0

; 77   : 		this->m_btBlueTeamClassCount[i] = 0;

  00225	8b 45 fc	 mov	 eax, DWORD PTR _this$[ebp]
  00228	03 45 f8	 add	 eax, DWORD PTR _i$[ebp]
  0022b	c6 80 da 03 00
	00 00		 mov	 BYTE PTR [eax+986], 0

; 78   : 	}

  00232	eb d5		 jmp	 SHORT $LN2@Init
$LN1@Init:

; 79   : 
; 80   : 	this->m_bScoreRankSet = FALSE;

  00234	8b 45 fc	 mov	 eax, DWORD PTR _this$[ebp]
  00237	c7 80 e8 03 00
	00 00 00 00 00	 mov	 DWORD PTR [eax+1000], 0

; 81   : }

  00241	5f		 pop	 edi
  00242	5e		 pop	 esi
  00243	5b		 pop	 ebx
  00244	8b e5		 mov	 esp, ebp
  00246	5d		 pop	 ebp
  00247	c2 04 00	 ret	 4
?Init@CIllusionTempleProcess@@QAEXH@Z ENDP		; CIllusionTempleProcess::Init
_TEXT	ENDS
PUBLIC	??_C@_0N@GGPGOPEN@return?5?$CFs?5?$CFd?$AA@	; `string'
PUBLIC	??_C@_0EN@FIHDICBF@d?3?2projects?2exteam6?43?2source?2gam@ ; `string'
PUBLIC	?__LINE__Var@?1??InitFloorData@CIllusionTempleProcess@@QAEXH@Z@4JA ; `CIllusionTempleProcess::InitFloorData'::`2'::__LINE__Var
EXTRN	?LogAdd@@3P6AXPADZZA:DWORD			; LogAdd
;	COMDAT ??_C@_0N@GGPGOPEN@return?5?$CFs?5?$CFd?$AA@
CONST	SEGMENT
??_C@_0N@GGPGOPEN@return?5?$CFs?5?$CFd?$AA@ DB 'return %s %d', 00H ; `string'
CONST	ENDS
;	COMDAT ??_C@_0EN@FIHDICBF@d?3?2projects?2exteam6?43?2source?2gam@
CONST	SEGMENT
??_C@_0EN@FIHDICBF@d?3?2projects?2exteam6?43?2source?2gam@ DB 'd:\project'
	DB	's\exteam6.3\source\gameserver\gameserver\illusiontempleproces'
	DB	's.cpp', 00H					; `string'
CONST	ENDS
;	COMDAT ?__LINE__Var@?1??InitFloorData@CIllusionTempleProcess@@QAEXH@Z@4JA
_DATA	SEGMENT
?__LINE__Var@?1??InitFloorData@CIllusionTempleProcess@@QAEXH@Z@4JA DD 054H ; `CIllusionTempleProcess::InitFloorData'::`2'::__LINE__Var
; Function compile flags: /Odtp /ZI
_DATA	ENDS
_TEXT	SEGMENT
tv67 = -72						; size = 4
_this$ = -4						; size = 4
_aIndex$ = 8						; size = 4
?InitFloorData@CIllusionTempleProcess@@QAEXH@Z PROC	; CIllusionTempleProcess::InitFloorData
; _this$ = ecx

; 84   : {

  00250	55		 push	 ebp
  00251	8b ec		 mov	 ebp, esp
  00253	83 ec 48	 sub	 esp, 72			; 00000048H
  00256	53		 push	 ebx
  00257	56		 push	 esi
  00258	57		 push	 edi
  00259	89 4d fc	 mov	 DWORD PTR _this$[ebp], ecx

; 85   : 	if( OBJMAX_RANGE(aIndex) == FALSE )

  0025c	83 7d 08 00	 cmp	 DWORD PTR _aIndex$[ebp], 0
  00260	7d 09		 jge	 SHORT $LN4@InitFloorD
  00262	c7 45 b8 00 00
	00 00		 mov	 DWORD PTR tv67[ebp], 0
  00269	eb 0f		 jmp	 SHORT $LN5@InitFloorD
$LN4@InitFloorD:
  0026b	33 c0		 xor	 eax, eax
  0026d	81 7d 08 97 3a
	00 00		 cmp	 DWORD PTR _aIndex$[ebp], 14999 ; 00003a97H
  00274	0f 9e c0	 setle	 al
  00277	89 45 b8	 mov	 DWORD PTR tv67[ebp], eax
$LN5@InitFloorD:
  0027a	83 7d b8 00	 cmp	 DWORD PTR tv67[ebp], 0
  0027e	75 21		 jne	 SHORT $LN1@InitFloorD

; 86   : 	{
; 87   : 		LogAdd("return %s %d", __FILE__, __LINE__);

  00280	a1 00 00 00 00	 mov	 eax, DWORD PTR ?__LINE__Var@?1??InitFloorData@CIllusionTempleProcess@@QAEXH@Z@4JA
  00285	83 c0 03	 add	 eax, 3
  00288	50		 push	 eax
  00289	68 00 00 00 00	 push	 OFFSET ??_C@_0EN@FIHDICBF@d?3?2projects?2exteam6?43?2source?2gam@
  0028e	68 00 00 00 00	 push	 OFFSET ??_C@_0N@GGPGOPEN@return?5?$CFs?5?$CFd?$AA@
  00293	ff 15 00 00 00
	00		 call	 DWORD PTR ?LogAdd@@3P6AXPADZZA ; LogAdd
  00299	83 c4 0c	 add	 esp, 12			; 0000000cH

; 88   : 		return;

  0029c	e9 c5 00 00 00	 jmp	 $LN2@InitFloorD
$LN1@InitFloorD:

; 89   : 	}
; 90   : 
; 91   : 	this->m_UserData[aIndex].m_UserIndex = 0;

  002a1	8b 45 08	 mov	 eax, DWORD PTR _aIndex$[ebp]
  002a4	8b 4d fc	 mov	 ecx, DWORD PTR _this$[ebp]
  002a7	c7 84 81 00 02
	00 00 00 00 00
	00		 mov	 DWORD PTR [ecx+eax*4+512], 0

; 92   : 
; 93   : 	this->m_FloorData[aIndex].m_dwShieldSpellTime = 0;

  002b2	8b 45 08	 mov	 eax, DWORD PTR _aIndex$[ebp]
  002b5	6b c0 30	 imul	 eax, 48			; 00000030H
  002b8	8b 4d fc	 mov	 ecx, DWORD PTR _this$[ebp]
  002bb	c7 44 01 28 00
	00 00 00	 mov	 DWORD PTR [ecx+eax+40], 0

; 94   : 
; 95   : 	this->m_FloorData[aIndex].m_dwRestrictionSpellTime = 0;

  002c3	8b 45 08	 mov	 eax, DWORD PTR _aIndex$[ebp]
  002c6	6b c0 30	 imul	 eax, 48			; 00000030H
  002c9	8b 4d fc	 mov	 ecx, DWORD PTR _this$[ebp]
  002cc	c7 44 01 2c 00
	00 00 00	 mov	 DWORD PTR [ecx+eax+44], 0

; 96   : 	this->m_FloorData[aIndex].m_iTeamPlayerIndex = -1;

  002d4	8b 45 08	 mov	 eax, DWORD PTR _aIndex$[ebp]
  002d7	6b c0 30	 imul	 eax, 48			; 00000030H
  002da	8b 4d fc	 mov	 ecx, DWORD PTR _this$[ebp]
  002dd	c7 44 01 20 ff
	ff ff ff	 mov	 DWORD PTR [ecx+eax+32], -1

; 97   : 	this->m_FloorData[aIndex].m_btTeamJoinSide = (BYTE)-1;

  002e5	8b 45 08	 mov	 eax, DWORD PTR _aIndex$[ebp]
  002e8	6b c0 30	 imul	 eax, 48			; 00000030H
  002eb	8b 4d fc	 mov	 ecx, DWORD PTR _this$[ebp]
  002ee	c6 44 01 24 ff	 mov	 BYTE PTR [ecx+eax+36], 255 ; 000000ffH

; 98   : 	this->m_FloorData[aIndex].m_btUserKillCount = 0;

  002f3	8b 45 08	 mov	 eax, DWORD PTR _aIndex$[ebp]
  002f6	6b c0 30	 imul	 eax, 48			; 00000030H
  002f9	8b 4d fc	 mov	 ecx, DWORD PTR _this$[ebp]
  002fc	c6 44 01 30 00	 mov	 BYTE PTR [ecx+eax+48], 0

; 99   : 	this->m_FloorData[aIndex].m_btMonsterRewardKillCount = 0;

  00301	8b 45 08	 mov	 eax, DWORD PTR _aIndex$[ebp]
  00304	6b c0 30	 imul	 eax, 48			; 00000030H
  00307	8b 4d fc	 mov	 ecx, DWORD PTR _this$[ebp]
  0030a	c6 44 01 31 00	 mov	 BYTE PTR [ecx+eax+49], 0

; 100  : 	this->m_FloorData[aIndex].m_btPlayerRewardKillCount = 0;

  0030f	8b 45 08	 mov	 eax, DWORD PTR _aIndex$[ebp]
  00312	6b c0 30	 imul	 eax, 48			; 00000030H
  00315	8b 4d fc	 mov	 ecx, DWORD PTR _this$[ebp]
  00318	c6 44 01 32 00	 mov	 BYTE PTR [ecx+eax+50], 0

; 101  : 	this->m_FloorData[aIndex].m_btUsedKillCountPoint = 0;

  0031d	8b 45 08	 mov	 eax, DWORD PTR _aIndex$[ebp]
  00320	6b c0 30	 imul	 eax, 48			; 00000030H
  00323	8b 4d fc	 mov	 ecx, DWORD PTR _this$[ebp]
  00326	c6 44 01 33 00	 mov	 BYTE PTR [ecx+eax+51], 0

; 102  : 
; 103  : 	this->m_FloorData[aIndex].m_i64ExpReward = 0;

  0032b	8b 45 08	 mov	 eax, DWORD PTR _aIndex$[ebp]
  0032e	6b c0 30	 imul	 eax, 48			; 00000030H
  00331	8b 4d fc	 mov	 ecx, DWORD PTR _this$[ebp]
  00334	c7 44 01 38 00
	00 00 00	 mov	 DWORD PTR [ecx+eax+56], 0
  0033c	c7 44 01 3c 00
	00 00 00	 mov	 DWORD PTR [ecx+eax+60], 0

; 104  : 	this->m_FloorData[aIndex].m_dwRankingPoint = 0;

  00344	8b 45 08	 mov	 eax, DWORD PTR _aIndex$[ebp]
  00347	6b c0 30	 imul	 eax, 48			; 00000030H
  0034a	8b 4d fc	 mov	 ecx, DWORD PTR _this$[ebp]
  0034d	c7 44 01 40 00
	00 00 00	 mov	 DWORD PTR [ecx+eax+64], 0

; 105  : 
; 106  : 	this->m_FloorData[aIndex].m_bDropReward = 0;

  00355	8b 45 08	 mov	 eax, DWORD PTR _aIndex$[ebp]
  00358	6b c0 30	 imul	 eax, 48			; 00000030H
  0035b	8b 4d fc	 mov	 ecx, DWORD PTR _this$[ebp]
  0035e	c7 44 01 44 00
	00 00 00	 mov	 DWORD PTR [ecx+eax+68], 0
$LN2@InitFloorD:

; 107  : }

  00366	5f		 pop	 edi
  00367	5e		 pop	 esi
  00368	5b		 pop	 ebx
  00369	8b e5		 mov	 esp, ebp
  0036b	5d		 pop	 ebp
  0036c	c2 04 00	 ret	 4
?InitFloorData@CIllusionTempleProcess@@QAEXH@Z ENDP	; CIllusionTempleProcess::InitFloorData
_TEXT	ENDS
PUBLIC	??_C@_0DG@NJOPLNIL@?$FLIllusion?5Temple?$FN?5?$CI?$CFd?$CJ?5Sync?5Open@ ; `string'
PUBLIC	??E?$_List_iterator@V?$_List_val@UILLUSIONTEMPLE_START_TIME@@V?$allocator@UILLUSIONTEMPLE_START_TIME@@@std@@@std@@@std@@QAE?AV01@H@Z ; std::_List_iterator<std::_List_val<ILLUSIONTEMPLE_START_TIME,std::allocator<ILLUSIONTEMPLE_START_TIME> > >::operator++
PUBLIC	??8?$_List_const_iterator@V?$_List_val@UILLUSIONTEMPLE_START_TIME@@V?$allocator@UILLUSIONTEMPLE_START_TIME@@@std@@@std@@@std@@QBE_NABV01@@Z ; std::_List_const_iterator<std::_List_val<ILLUSIONTEMPLE_START_TIME,std::allocator<ILLUSIONTEMPLE_START_TIME> > >::operator==
PUBLIC	??9?$_List_const_iterator@V?$_List_val@UILLUSIONTEMPLE_START_TIME@@V?$allocator@UILLUSIONTEMPLE_START_TIME@@@std@@@std@@@std@@QBE_NABV01@@Z ; std::_List_const_iterator<std::_List_val<ILLUSIONTEMPLE_START_TIME,std::allocator<ILLUSIONTEMPLE_START_TIME> > >::operator!=
PUBLIC	?end@?$list@UILLUSIONTEMPLE_START_TIME@@V?$allocator@UILLUSIONTEMPLE_START_TIME@@@std@@@std@@QAE?AV?$_List_iterator@V?$_List_val@UILLUSIONTEMPLE_START_TIME@@V?$allocator@UILLUSIONTEMPLE_START_TIME@@@std@@@std@@@2@XZ ; std::list<ILLUSIONTEMPLE_START_TIME,std::allocator<ILLUSIONTEMPLE_START_TIME> >::end
PUBLIC	??E?$_List_iterator@V?$_List_val@UILLUSIONTEMPLE_START_TIME@@V?$allocator@UILLUSIONTEMPLE_START_TIME@@@std@@@std@@@std@@QAEAAV01@XZ ; std::_List_iterator<std::_List_val<ILLUSIONTEMPLE_START_TIME,std::allocator<ILLUSIONTEMPLE_START_TIME> > >::operator++
PUBLIC	??D?$_List_iterator@V?$_List_val@UILLUSIONTEMPLE_START_TIME@@V?$allocator@UILLUSIONTEMPLE_START_TIME@@@std@@@std@@@std@@QBEAAUILLUSIONTEMPLE_START_TIME@@XZ ; std::_List_iterator<std::_List_val<ILLUSIONTEMPLE_START_TIME,std::allocator<ILLUSIONTEMPLE_START_TIME> > >::operator*
PUBLIC	?begin@?$list@UILLUSIONTEMPLE_START_TIME@@V?$allocator@UILLUSIONTEMPLE_START_TIME@@@std@@@std@@QAE?AV?$_List_iterator@V?$_List_val@UILLUSIONTEMPLE_START_TIME@@V?$allocator@UILLUSIONTEMPLE_START_TIME@@@std@@@std@@@2@XZ ; std::list<ILLUSIONTEMPLE_START_TIME,std::allocator<ILLUSIONTEMPLE_START_TIME> >::begin
PUBLIC	??_C@_0CM@GMBNLABJ@Error?5?3?5Illusion?5Temple?5StartTim@ ; `string'
PUBLIC	?size@?$list@UILLUSIONTEMPLE_START_TIME@@V?$allocator@UILLUSIONTEMPLE_START_TIME@@@std@@@std@@QBEIXZ ; std::list<ILLUSIONTEMPLE_START_TIME,std::allocator<ILLUSIONTEMPLE_START_TIME> >::size
PUBLIC	??0?$_List_iterator@V?$_List_val@UILLUSIONTEMPLE_START_TIME@@V?$allocator@UILLUSIONTEMPLE_START_TIME@@@std@@@std@@@std@@QAE@XZ ; std::_List_iterator<std::_List_val<ILLUSIONTEMPLE_START_TIME,std::allocator<ILLUSIONTEMPLE_START_TIME> > >::_List_iterator<std::_List_val<ILLUSIONTEMPLE_START_TIME,std::allocator<ILLUSIONTEMPLE_START_TIME> > >
EXTRN	?LogAddTD@@3P6AXPADZZA:DWORD			; LogAddTD
EXTRN	?m_i_IT_OpenTime@@3HA:DWORD			; m_i_IT_OpenTime
EXTRN	?MsgBox@@YAXPADZZ:PROC				; MsgBox
;	COMDAT ??_C@_0DG@NJOPLNIL@?$FLIllusion?5Temple?$FN?5?$CI?$CFd?$CJ?5Sync?5Open@
CONST	SEGMENT
??_C@_0DG@NJOPLNIL@?$FLIllusion?5Temple?$FN?5?$CI?$CFd?$CJ?5Sync?5Open@ DB '['
	DB	'Illusion Temple] (%d) Sync Open Time. [%d]min remain', 00H ; `string'
CONST	ENDS
;	COMDAT ??_C@_0CM@GMBNLABJ@Error?5?3?5Illusion?5Temple?5StartTim@
CONST	SEGMENT
??_C@_0CM@GMBNLABJ@Error?5?3?5Illusion?5Temple?5StartTim@ DB 'Error : Ill'
	DB	'usion Temple StartTime size is 0', 00H	; `string'
; Function compile flags: /Odtp /ZI
CONST	ENDS
_TEXT	SEGMENT
$T235689 = -148						; size = 4
$T235690 = -144						; size = 4
$T235691 = -140						; size = 4
$T235692 = -136						; size = 4
$T235693 = -132						; size = 4
$T235694 = -128						; size = 4
$T235695 = -124						; size = 4
_loc13$ = -56						; size = 4
_loc12$ = -52						; size = 4
_ltime$ = -48						; size = 8
_today$ = -40						; size = 4
_CurrentTime$ = -36					; size = 4
_CheckTime$ = -32					; size = 4
_BaseTime$ = -28					; size = 4
_WebzenVar2$ = -24					; size = 8
_WebzenVar1$ = -16					; size = 8
_it$ = -8						; size = 4
_this$ = -4						; size = 4
?CheckSync@CIllusionTempleProcess@@QAEXXZ PROC		; CIllusionTempleProcess::CheckSync
; _this$ = ecx

; 110  : {

  00370	55		 push	 ebp
  00371	8b ec		 mov	 ebp, esp
  00373	81 ec 94 00 00
	00		 sub	 esp, 148		; 00000094H
  00379	53		 push	 ebx
  0037a	56		 push	 esi
  0037b	57		 push	 edi
  0037c	89 4d fc	 mov	 DWORD PTR _this$[ebp], ecx

; 111  : 	std::list<ILLUSIONTEMPLE_START_TIME>::iterator it;

  0037f	8d 4d f8	 lea	 ecx, DWORD PTR _it$[ebp]
  00382	e8 00 00 00 00	 call	 ??0?$_List_iterator@V?$_List_val@UILLUSIONTEMPLE_START_TIME@@V?$allocator@UILLUSIONTEMPLE_START_TIME@@@std@@@std@@@std@@QAE@XZ ; std::_List_iterator<std::_List_val<ILLUSIONTEMPLE_START_TIME,std::allocator<ILLUSIONTEMPLE_START_TIME> > >::_List_iterator<std::_List_val<ILLUSIONTEMPLE_START_TIME,std::allocator<ILLUSIONTEMPLE_START_TIME> > >

; 112  : 	ILLUSIONTEMPLE_START_TIME WebzenVar1;
; 113  : 	ILLUSIONTEMPLE_START_TIME WebzenVar2;
; 114  : 	int BaseTime = 0;

  00387	c7 45 e4 00 00
	00 00		 mov	 DWORD PTR _BaseTime$[ebp], 0

; 115  : 	int CheckTime = 0;

  0038e	c7 45 e0 00 00
	00 00		 mov	 DWORD PTR _CheckTime$[ebp], 0

; 116  : 	DWORD CurrentTime = 0;

  00395	c7 45 dc 00 00
	00 00		 mov	 DWORD PTR _CurrentTime$[ebp], 0

; 117  : 	
; 118  : 	tm * today;
; 119  : 	time_t ltime;
; 120  : 
; 121  : 	int loc12;
; 122  : 	int loc13;
; 123  : 
; 124  : 	if(m_listIllusionTempleOpenTime.size() == 0)

  0039c	b9 00 00 00 00	 mov	 ecx, OFFSET ?m_listIllusionTempleOpenTime@@3V?$list@UILLUSIONTEMPLE_START_TIME@@V?$allocator@UILLUSIONTEMPLE_START_TIME@@@std@@@std@@A ; m_listIllusionTempleOpenTime
  003a1	e8 00 00 00 00	 call	 ?size@?$list@UILLUSIONTEMPLE_START_TIME@@V?$allocator@UILLUSIONTEMPLE_START_TIME@@@std@@@std@@QBEIXZ ; std::list<ILLUSIONTEMPLE_START_TIME,std::allocator<ILLUSIONTEMPLE_START_TIME> >::size
  003a6	85 c0		 test	 eax, eax
  003a8	75 12		 jne	 SHORT $LN16@CheckSync

; 125  : 	{
; 126  : 		MsgBox("Error : Illusion Temple StartTime size is 0");

  003aa	68 00 00 00 00	 push	 OFFSET ??_C@_0CM@GMBNLABJ@Error?5?3?5Illusion?5Temple?5StartTim@
  003af	e8 00 00 00 00	 call	 ?MsgBox@@YAXPADZZ	; MsgBox
  003b4	83 c4 04	 add	 esp, 4

; 127  : 		return;

  003b7	e9 56 02 00 00	 jmp	 $LN17@CheckSync
$LN16@CheckSync:

; 128  : 	}
; 129  : 
; 130  : 	time(&ltime);

  003bc	8d 45 d0	 lea	 eax, DWORD PTR _ltime$[ebp]
  003bf	50		 push	 eax
  003c0	e8 00 00 00 00	 call	 _time
  003c5	83 c4 04	 add	 esp, 4

; 131  : 	today = localtime(&ltime);

  003c8	8d 45 d0	 lea	 eax, DWORD PTR _ltime$[ebp]
  003cb	50		 push	 eax
  003cc	e8 00 00 00 00	 call	 _localtime
  003d1	83 c4 04	 add	 esp, 4
  003d4	89 45 d8	 mov	 DWORD PTR _today$[ebp], eax

; 132  : 
; 133  : 	
; 134  : 	CurrentTime = (today->tm_hour * 60) + today->tm_min;

  003d7	8b 45 d8	 mov	 eax, DWORD PTR _today$[ebp]
  003da	8b 48 08	 mov	 ecx, DWORD PTR [eax+8]
  003dd	6b c9 3c	 imul	 ecx, 60			; 0000003cH
  003e0	8b 55 d8	 mov	 edx, DWORD PTR _today$[ebp]
  003e3	03 4a 04	 add	 ecx, DWORD PTR [edx+4]
  003e6	89 4d dc	 mov	 DWORD PTR _CurrentTime$[ebp], ecx

; 135  : 	WebzenVar1 = *m_listIllusionTempleOpenTime.begin();

  003e9	8d 85 6c ff ff
	ff		 lea	 eax, DWORD PTR $T235689[ebp]
  003ef	50		 push	 eax
  003f0	b9 00 00 00 00	 mov	 ecx, OFFSET ?m_listIllusionTempleOpenTime@@3V?$list@UILLUSIONTEMPLE_START_TIME@@V?$allocator@UILLUSIONTEMPLE_START_TIME@@@std@@@std@@A ; m_listIllusionTempleOpenTime
  003f5	e8 00 00 00 00	 call	 ?begin@?$list@UILLUSIONTEMPLE_START_TIME@@V?$allocator@UILLUSIONTEMPLE_START_TIME@@@std@@@std@@QAE?AV?$_List_iterator@V?$_List_val@UILLUSIONTEMPLE_START_TIME@@V?$allocator@UILLUSIONTEMPLE_START_TIME@@@std@@@std@@@2@XZ ; std::list<ILLUSIONTEMPLE_START_TIME,std::allocator<ILLUSIONTEMPLE_START_TIME> >::begin
  003fa	8b c8		 mov	 ecx, eax
  003fc	e8 00 00 00 00	 call	 ??D?$_List_iterator@V?$_List_val@UILLUSIONTEMPLE_START_TIME@@V?$allocator@UILLUSIONTEMPLE_START_TIME@@@std@@@std@@@std@@QBEAAUILLUSIONTEMPLE_START_TIME@@XZ ; std::_List_iterator<std::_List_val<ILLUSIONTEMPLE_START_TIME,std::allocator<ILLUSIONTEMPLE_START_TIME> > >::operator*
  00401	8b 08		 mov	 ecx, DWORD PTR [eax]
  00403	8b 50 04	 mov	 edx, DWORD PTR [eax+4]
  00406	89 4d f0	 mov	 DWORD PTR _WebzenVar1$[ebp], ecx
  00409	89 55 f4	 mov	 DWORD PTR _WebzenVar1$[ebp+4], edx

; 136  : 
; 137  : 	for( it = m_listIllusionTempleOpenTime.begin(); it != m_listIllusionTempleOpenTime.end(); ++it )

  0040c	8d 85 70 ff ff
	ff		 lea	 eax, DWORD PTR $T235690[ebp]
  00412	50		 push	 eax
  00413	b9 00 00 00 00	 mov	 ecx, OFFSET ?m_listIllusionTempleOpenTime@@3V?$list@UILLUSIONTEMPLE_START_TIME@@V?$allocator@UILLUSIONTEMPLE_START_TIME@@@std@@@std@@A ; m_listIllusionTempleOpenTime
  00418	e8 00 00 00 00	 call	 ?begin@?$list@UILLUSIONTEMPLE_START_TIME@@V?$allocator@UILLUSIONTEMPLE_START_TIME@@@std@@@std@@QAE?AV?$_List_iterator@V?$_List_val@UILLUSIONTEMPLE_START_TIME@@V?$allocator@UILLUSIONTEMPLE_START_TIME@@@std@@@std@@@2@XZ ; std::list<ILLUSIONTEMPLE_START_TIME,std::allocator<ILLUSIONTEMPLE_START_TIME> >::begin
  0041d	8b 08		 mov	 ecx, DWORD PTR [eax]
  0041f	89 4d f8	 mov	 DWORD PTR _it$[ebp], ecx
  00422	eb 08		 jmp	 SHORT $LN15@CheckSync
$LN14@CheckSync:
  00424	8d 4d f8	 lea	 ecx, DWORD PTR _it$[ebp]
  00427	e8 00 00 00 00	 call	 ??E?$_List_iterator@V?$_List_val@UILLUSIONTEMPLE_START_TIME@@V?$allocator@UILLUSIONTEMPLE_START_TIME@@@std@@@std@@@std@@QAEAAV01@XZ ; std::_List_iterator<std::_List_val<ILLUSIONTEMPLE_START_TIME,std::allocator<ILLUSIONTEMPLE_START_TIME> > >::operator++
$LN15@CheckSync:
  0042c	8d 85 74 ff ff
	ff		 lea	 eax, DWORD PTR $T235691[ebp]
  00432	50		 push	 eax
  00433	b9 00 00 00 00	 mov	 ecx, OFFSET ?m_listIllusionTempleOpenTime@@3V?$list@UILLUSIONTEMPLE_START_TIME@@V?$allocator@UILLUSIONTEMPLE_START_TIME@@@std@@@std@@A ; m_listIllusionTempleOpenTime
  00438	e8 00 00 00 00	 call	 ?end@?$list@UILLUSIONTEMPLE_START_TIME@@V?$allocator@UILLUSIONTEMPLE_START_TIME@@@std@@@std@@QAE?AV?$_List_iterator@V?$_List_val@UILLUSIONTEMPLE_START_TIME@@V?$allocator@UILLUSIONTEMPLE_START_TIME@@@std@@@std@@@2@XZ ; std::list<ILLUSIONTEMPLE_START_TIME,std::allocator<ILLUSIONTEMPLE_START_TIME> >::end
  0043d	50		 push	 eax
  0043e	8d 4d f8	 lea	 ecx, DWORD PTR _it$[ebp]
  00441	e8 00 00 00 00	 call	 ??9?$_List_const_iterator@V?$_List_val@UILLUSIONTEMPLE_START_TIME@@V?$allocator@UILLUSIONTEMPLE_START_TIME@@@std@@@std@@@std@@QBE_NABV01@@Z ; std::_List_const_iterator<std::_List_val<ILLUSIONTEMPLE_START_TIME,std::allocator<ILLUSIONTEMPLE_START_TIME> > >::operator!=
  00446	0f b6 c8	 movzx	 ecx, al
  00449	85 c9		 test	 ecx, ecx
  0044b	74 7e		 je	 SHORT $LN13@CheckSync

; 138  : 	{
; 139  : 		WebzenVar2 = *it;

  0044d	8d 4d f8	 lea	 ecx, DWORD PTR _it$[ebp]
  00450	e8 00 00 00 00	 call	 ??D?$_List_iterator@V?$_List_val@UILLUSIONTEMPLE_START_TIME@@V?$allocator@UILLUSIONTEMPLE_START_TIME@@@std@@@std@@@std@@QBEAAUILLUSIONTEMPLE_START_TIME@@XZ ; std::_List_iterator<std::_List_val<ILLUSIONTEMPLE_START_TIME,std::allocator<ILLUSIONTEMPLE_START_TIME> > >::operator*
  00455	8b 08		 mov	 ecx, DWORD PTR [eax]
  00457	8b 50 04	 mov	 edx, DWORD PTR [eax+4]
  0045a	89 4d e8	 mov	 DWORD PTR _WebzenVar2$[ebp], ecx
  0045d	89 55 ec	 mov	 DWORD PTR _WebzenVar2$[ebp+4], edx

; 140  : 		BaseTime = (WebzenVar1.m_iHour * 60) + WebzenVar1.m_iMinute;

  00460	8b 45 f0	 mov	 eax, DWORD PTR _WebzenVar1$[ebp]
  00463	6b c0 3c	 imul	 eax, 60			; 0000003cH
  00466	03 45 f4	 add	 eax, DWORD PTR _WebzenVar1$[ebp+4]
  00469	89 45 e4	 mov	 DWORD PTR _BaseTime$[ebp], eax

; 141  : 		CheckTime =	(WebzenVar2.m_iHour * 60) + WebzenVar2.m_iMinute;

  0046c	8b 45 e8	 mov	 eax, DWORD PTR _WebzenVar2$[ebp]
  0046f	6b c0 3c	 imul	 eax, 60			; 0000003cH
  00472	03 45 ec	 add	 eax, DWORD PTR _WebzenVar2$[ebp+4]
  00475	89 45 e0	 mov	 DWORD PTR _CheckTime$[ebp], eax

; 142  : 
; 143  : 		if( BaseTime == CheckTime )

  00478	8b 45 e4	 mov	 eax, DWORD PTR _BaseTime$[ebp]
  0047b	3b 45 e0	 cmp	 eax, DWORD PTR _CheckTime$[ebp]
  0047e	75 1f		 jne	 SHORT $LN12@CheckSync

; 144  : 		{
; 145  : 			if( CurrentTime < CheckTime )

  00480	8b 45 dc	 mov	 eax, DWORD PTR _CurrentTime$[ebp]
  00483	3b 45 e0	 cmp	 eax, DWORD PTR _CheckTime$[ebp]
  00486	73 15		 jae	 SHORT $LN11@CheckSync

; 146  : 			{
; 147  : 				WebzenVar2 = *it;

  00488	8d 4d f8	 lea	 ecx, DWORD PTR _it$[ebp]
  0048b	e8 00 00 00 00	 call	 ??D?$_List_iterator@V?$_List_val@UILLUSIONTEMPLE_START_TIME@@V?$allocator@UILLUSIONTEMPLE_START_TIME@@@std@@@std@@@std@@QBEAAUILLUSIONTEMPLE_START_TIME@@XZ ; std::_List_iterator<std::_List_val<ILLUSIONTEMPLE_START_TIME,std::allocator<ILLUSIONTEMPLE_START_TIME> > >::operator*
  00490	8b 08		 mov	 ecx, DWORD PTR [eax]
  00492	8b 50 04	 mov	 edx, DWORD PTR [eax+4]
  00495	89 4d e8	 mov	 DWORD PTR _WebzenVar2$[ebp], ecx
  00498	89 55 ec	 mov	 DWORD PTR _WebzenVar2$[ebp+4], edx

; 148  : 				break;

  0049b	eb 2e		 jmp	 SHORT $LN13@CheckSync
$LN11@CheckSync:

; 149  : 			}
; 150  : 			continue;

  0049d	eb 85		 jmp	 SHORT $LN14@CheckSync
$LN12@CheckSync:

; 151  : 		}
; 152  : 		
; 153  : 		if( CurrentTime >= BaseTime && CurrentTime < CheckTime )

  0049f	8b 45 dc	 mov	 eax, DWORD PTR _CurrentTime$[ebp]
  004a2	3b 45 e4	 cmp	 eax, DWORD PTR _BaseTime$[ebp]
  004a5	72 0c		 jb	 SHORT $LN10@CheckSync
  004a7	8b 45 dc	 mov	 eax, DWORD PTR _CurrentTime$[ebp]
  004aa	3b 45 e0	 cmp	 eax, DWORD PTR _CheckTime$[ebp]
  004ad	73 04		 jae	 SHORT $LN10@CheckSync

; 154  : 		{
; 155  : 			break;

  004af	eb 1a		 jmp	 SHORT $LN13@CheckSync

; 156  : 		}
; 157  : 		else

  004b1	eb 13		 jmp	 SHORT $LN9@CheckSync
$LN10@CheckSync:

; 158  : 		{
; 159  : 			WebzenVar1 = *it;

  004b3	8d 4d f8	 lea	 ecx, DWORD PTR _it$[ebp]
  004b6	e8 00 00 00 00	 call	 ??D?$_List_iterator@V?$_List_val@UILLUSIONTEMPLE_START_TIME@@V?$allocator@UILLUSIONTEMPLE_START_TIME@@@std@@@std@@@std@@QBEAAUILLUSIONTEMPLE_START_TIME@@XZ ; std::_List_iterator<std::_List_val<ILLUSIONTEMPLE_START_TIME,std::allocator<ILLUSIONTEMPLE_START_TIME> > >::operator*
  004bb	8b 08		 mov	 ecx, DWORD PTR [eax]
  004bd	8b 50 04	 mov	 edx, DWORD PTR [eax+4]
  004c0	89 4d f0	 mov	 DWORD PTR _WebzenVar1$[ebp], ecx
  004c3	89 55 f4	 mov	 DWORD PTR _WebzenVar1$[ebp+4], edx
$LN9@CheckSync:

; 160  : 		}
; 161  : 	}

  004c6	e9 59 ff ff ff	 jmp	 $LN14@CheckSync
$LN13@CheckSync:

; 162  : 
; 163  : 	for(loc12 = 2;loc12--;)

  004cb	c7 45 cc 02 00
	00 00		 mov	 DWORD PTR _loc12$[ebp], 2
$LN8@CheckSync:
  004d2	8b 45 cc	 mov	 eax, DWORD PTR _loc12$[ebp]
  004d5	8b 4d cc	 mov	 ecx, DWORD PTR _loc12$[ebp]
  004d8	83 e9 01	 sub	 ecx, 1
  004db	89 4d cc	 mov	 DWORD PTR _loc12$[ebp], ecx
  004de	85 c0		 test	 eax, eax
  004e0	0f 84 df 00 00
	00		 je	 $LN7@CheckSync

; 164  : 	{
; 165  : 		if(it == m_listIllusionTempleOpenTime.end())

  004e6	8d 85 78 ff ff
	ff		 lea	 eax, DWORD PTR $T235692[ebp]
  004ec	50		 push	 eax
  004ed	b9 00 00 00 00	 mov	 ecx, OFFSET ?m_listIllusionTempleOpenTime@@3V?$list@UILLUSIONTEMPLE_START_TIME@@V?$allocator@UILLUSIONTEMPLE_START_TIME@@@std@@@std@@A ; m_listIllusionTempleOpenTime
  004f2	e8 00 00 00 00	 call	 ?end@?$list@UILLUSIONTEMPLE_START_TIME@@V?$allocator@UILLUSIONTEMPLE_START_TIME@@@std@@@std@@QAE?AV?$_List_iterator@V?$_List_val@UILLUSIONTEMPLE_START_TIME@@V?$allocator@UILLUSIONTEMPLE_START_TIME@@@std@@@std@@@2@XZ ; std::list<ILLUSIONTEMPLE_START_TIME,std::allocator<ILLUSIONTEMPLE_START_TIME> >::end
  004f7	50		 push	 eax
  004f8	8d 4d f8	 lea	 ecx, DWORD PTR _it$[ebp]
  004fb	e8 00 00 00 00	 call	 ??8?$_List_const_iterator@V?$_List_val@UILLUSIONTEMPLE_START_TIME@@V?$allocator@UILLUSIONTEMPLE_START_TIME@@@std@@@std@@@std@@QBE_NABV01@@Z ; std::_List_const_iterator<std::_List_val<ILLUSIONTEMPLE_START_TIME,std::allocator<ILLUSIONTEMPLE_START_TIME> > >::operator==
  00500	0f b6 c8	 movzx	 ecx, al
  00503	85 c9		 test	 ecx, ecx
  00505	74 29		 je	 SHORT $LN6@CheckSync

; 166  : 		{
; 167  : 			it = m_listIllusionTempleOpenTime.begin();

  00507	8d 85 7c ff ff
	ff		 lea	 eax, DWORD PTR $T235693[ebp]
  0050d	50		 push	 eax
  0050e	b9 00 00 00 00	 mov	 ecx, OFFSET ?m_listIllusionTempleOpenTime@@3V?$list@UILLUSIONTEMPLE_START_TIME@@V?$allocator@UILLUSIONTEMPLE_START_TIME@@@std@@@std@@A ; m_listIllusionTempleOpenTime
  00513	e8 00 00 00 00	 call	 ?begin@?$list@UILLUSIONTEMPLE_START_TIME@@V?$allocator@UILLUSIONTEMPLE_START_TIME@@@std@@@std@@QAE?AV?$_List_iterator@V?$_List_val@UILLUSIONTEMPLE_START_TIME@@V?$allocator@UILLUSIONTEMPLE_START_TIME@@@std@@@std@@@2@XZ ; std::list<ILLUSIONTEMPLE_START_TIME,std::allocator<ILLUSIONTEMPLE_START_TIME> >::begin
  00518	8b 08		 mov	 ecx, DWORD PTR [eax]
  0051a	89 4d f8	 mov	 DWORD PTR _it$[ebp], ecx

; 168  : 
; 169  : 			WebzenVar2 = (*it);

  0051d	8d 4d f8	 lea	 ecx, DWORD PTR _it$[ebp]
  00520	e8 00 00 00 00	 call	 ??D?$_List_iterator@V?$_List_val@UILLUSIONTEMPLE_START_TIME@@V?$allocator@UILLUSIONTEMPLE_START_TIME@@@std@@@std@@@std@@QBEAAUILLUSIONTEMPLE_START_TIME@@XZ ; std::_List_iterator<std::_List_val<ILLUSIONTEMPLE_START_TIME,std::allocator<ILLUSIONTEMPLE_START_TIME> > >::operator*
  00525	8b 08		 mov	 ecx, DWORD PTR [eax]
  00527	8b 50 04	 mov	 edx, DWORD PTR [eax+4]
  0052a	89 4d e8	 mov	 DWORD PTR _WebzenVar2$[ebp], ecx
  0052d	89 55 ec	 mov	 DWORD PTR _WebzenVar2$[ebp+4], edx
$LN6@CheckSync:

; 170  : 		}
; 171  : 
; 172  : 		CheckTime = WebzenVar2.m_iHour*60+WebzenVar2.m_iMinute;

  00530	8b 45 e8	 mov	 eax, DWORD PTR _WebzenVar2$[ebp]
  00533	6b c0 3c	 imul	 eax, 60			; 0000003cH
  00536	03 45 ec	 add	 eax, DWORD PTR _WebzenVar2$[ebp+4]
  00539	89 45 e0	 mov	 DWORD PTR _CheckTime$[ebp], eax

; 173  : 
; 174  : 		if(today->tm_hour <= WebzenVar2.m_iHour)

  0053c	8b 45 d8	 mov	 eax, DWORD PTR _today$[ebp]
  0053f	8b 48 08	 mov	 ecx, DWORD PTR [eax+8]
  00542	3b 4d e8	 cmp	 ecx, DWORD PTR _WebzenVar2$[ebp]
  00545	7f 11		 jg	 SHORT $LN5@CheckSync

; 175  : 		{
; 176  : 			this->m_iLeftMinutesBeforeOpen = CheckTime - CurrentTime;

  00547	8b 45 e0	 mov	 eax, DWORD PTR _CheckTime$[ebp]
  0054a	2b 45 dc	 sub	 eax, DWORD PTR _CurrentTime$[ebp]
  0054d	8b 4d fc	 mov	 ecx, DWORD PTR _this$[ebp]
  00550	89 81 98 03 00
	00		 mov	 DWORD PTR [ecx+920], eax

; 177  : 		}
; 178  : 		else

  00556	eb 14		 jmp	 SHORT $LN4@CheckSync
$LN5@CheckSync:

; 179  : 		{
; 180  : 			this->m_iLeftMinutesBeforeOpen = 1440-CurrentTime+CheckTime;

  00558	b8 a0 05 00 00	 mov	 eax, 1440		; 000005a0H
  0055d	2b 45 dc	 sub	 eax, DWORD PTR _CurrentTime$[ebp]
  00560	03 45 e0	 add	 eax, DWORD PTR _CheckTime$[ebp]
  00563	8b 4d fc	 mov	 ecx, DWORD PTR _this$[ebp]
  00566	89 81 98 03 00
	00		 mov	 DWORD PTR [ecx+920], eax
$LN4@CheckSync:

; 181  : 		}
; 182  : 
; 183  : 		if(this->m_iLeftMinutesBeforeOpen <= m_i_IT_OpenTime)

  0056c	8b 45 fc	 mov	 eax, DWORD PTR _this$[ebp]
  0056f	8b 88 98 03 00
	00		 mov	 ecx, DWORD PTR [eax+920]
  00575	3b 0d 00 00 00
	00		 cmp	 ecx, DWORD PTR ?m_i_IT_OpenTime@@3HA ; m_i_IT_OpenTime
  0057b	7f 41		 jg	 SHORT $LN3@CheckSync

; 184  : 		{
; 185  : 			it++;

  0057d	6a 00		 push	 0
  0057f	8d 45 80	 lea	 eax, DWORD PTR $T235694[ebp]
  00582	50		 push	 eax
  00583	8d 4d f8	 lea	 ecx, DWORD PTR _it$[ebp]
  00586	e8 00 00 00 00	 call	 ??E?$_List_iterator@V?$_List_val@UILLUSIONTEMPLE_START_TIME@@V?$allocator@UILLUSIONTEMPLE_START_TIME@@@std@@@std@@@std@@QAE?AV01@H@Z ; std::_List_iterator<std::_List_val<ILLUSIONTEMPLE_START_TIME,std::allocator<ILLUSIONTEMPLE_START_TIME> > >::operator++

; 186  : 
; 187  : 			if(it != m_listIllusionTempleOpenTime.end())

  0058b	8d 45 84	 lea	 eax, DWORD PTR $T235695[ebp]
  0058e	50		 push	 eax
  0058f	b9 00 00 00 00	 mov	 ecx, OFFSET ?m_listIllusionTempleOpenTime@@3V?$list@UILLUSIONTEMPLE_START_TIME@@V?$allocator@UILLUSIONTEMPLE_START_TIME@@@std@@@std@@A ; m_listIllusionTempleOpenTime
  00594	e8 00 00 00 00	 call	 ?end@?$list@UILLUSIONTEMPLE_START_TIME@@V?$allocator@UILLUSIONTEMPLE_START_TIME@@@std@@@std@@QAE?AV?$_List_iterator@V?$_List_val@UILLUSIONTEMPLE_START_TIME@@V?$allocator@UILLUSIONTEMPLE_START_TIME@@@std@@@std@@@2@XZ ; std::list<ILLUSIONTEMPLE_START_TIME,std::allocator<ILLUSIONTEMPLE_START_TIME> >::end
  00599	50		 push	 eax
  0059a	8d 4d f8	 lea	 ecx, DWORD PTR _it$[ebp]
  0059d	e8 00 00 00 00	 call	 ??9?$_List_const_iterator@V?$_List_val@UILLUSIONTEMPLE_START_TIME@@V?$allocator@UILLUSIONTEMPLE_START_TIME@@@std@@@std@@@std@@QBE_NABV01@@Z ; std::_List_const_iterator<std::_List_val<ILLUSIONTEMPLE_START_TIME,std::allocator<ILLUSIONTEMPLE_START_TIME> > >::operator!=
  005a2	0f b6 c8	 movzx	 ecx, al
  005a5	85 c9		 test	 ecx, ecx
  005a7	74 13		 je	 SHORT $LN2@CheckSync

; 188  : 			{
; 189  : 				WebzenVar2 = (*it);

  005a9	8d 4d f8	 lea	 ecx, DWORD PTR _it$[ebp]
  005ac	e8 00 00 00 00	 call	 ??D?$_List_iterator@V?$_List_val@UILLUSIONTEMPLE_START_TIME@@V?$allocator@UILLUSIONTEMPLE_START_TIME@@@std@@@std@@@std@@QBEAAUILLUSIONTEMPLE_START_TIME@@XZ ; std::_List_iterator<std::_List_val<ILLUSIONTEMPLE_START_TIME,std::allocator<ILLUSIONTEMPLE_START_TIME> > >::operator*
  005b1	8b 08		 mov	 ecx, DWORD PTR [eax]
  005b3	8b 50 04	 mov	 edx, DWORD PTR [eax+4]
  005b6	89 4d e8	 mov	 DWORD PTR _WebzenVar2$[ebp], ecx
  005b9	89 55 ec	 mov	 DWORD PTR _WebzenVar2$[ebp+4], edx
$LN2@CheckSync:

; 190  : 			}
; 191  : 		}
; 192  : 		else

  005bc	eb 02		 jmp	 SHORT $LN1@CheckSync
$LN3@CheckSync:

; 193  : 		{
; 194  : 			break;

  005be	eb 05		 jmp	 SHORT $LN7@CheckSync
$LN1@CheckSync:

; 195  : 		}
; 196  : 	}

  005c0	e9 0d ff ff ff	 jmp	 $LN8@CheckSync
$LN7@CheckSync:

; 197  : 
; 198  : 	loc13 = GetTickCount();

  005c5	ff 15 00 00 00
	00		 call	 DWORD PTR __imp__GetTickCount@0
  005cb	89 45 c8	 mov	 DWORD PTR _loc13$[ebp], eax

; 199  : 	this->m_iOpenTickCount = loc13 + (60000 - (today->tm_sec * 1000));

  005ce	8b 45 d8	 mov	 eax, DWORD PTR _today$[ebp]
  005d1	8b 08		 mov	 ecx, DWORD PTR [eax]
  005d3	69 c9 e8 03 00
	00		 imul	 ecx, 1000		; 000003e8H
  005d9	ba 60 ea 00 00	 mov	 edx, 60000		; 0000ea60H
  005de	2b d1		 sub	 edx, ecx
  005e0	03 55 c8	 add	 edx, DWORD PTR _loc13$[ebp]
  005e3	8b 45 fc	 mov	 eax, DWORD PTR _this$[ebp]
  005e6	89 90 a4 03 00
	00		 mov	 DWORD PTR [eax+932], edx

; 200  : 
; 201  : 	LogAddTD("[Illusion Temple] (%d) Sync Open Time. [%d]min remain", this->m_btFloorIndex+1, this->m_iLeftMinutesBeforeOpen);

  005ec	8b 45 fc	 mov	 eax, DWORD PTR _this$[ebp]
  005ef	8b 88 98 03 00
	00		 mov	 ecx, DWORD PTR [eax+920]
  005f5	51		 push	 ecx
  005f6	8b 55 fc	 mov	 edx, DWORD PTR _this$[ebp]
  005f9	0f b6 82 2c 02
	00 00		 movzx	 eax, BYTE PTR [edx+556]
  00600	83 c0 01	 add	 eax, 1
  00603	50		 push	 eax
  00604	68 00 00 00 00	 push	 OFFSET ??_C@_0DG@NJOPLNIL@?$FLIllusion?5Temple?$FN?5?$CI?$CFd?$CJ?5Sync?5Open@
  00609	ff 15 00 00 00
	00		 call	 DWORD PTR ?LogAddTD@@3P6AXPADZZA ; LogAddTD
  0060f	83 c4 0c	 add	 esp, 12			; 0000000cH
$LN17@CheckSync:

; 202  : }

  00612	5f		 pop	 edi
  00613	5e		 pop	 esi
  00614	5b		 pop	 ebx
  00615	8b e5		 mov	 esp, ebp
  00617	5d		 pop	 ebp
  00618	c3		 ret	 0
?CheckSync@CIllusionTempleProcess@@QAEXXZ ENDP		; CIllusionTempleProcess::CheckSync
_TEXT	ENDS
EXTRN	__localtime64:PROC
; Function compile flags: /Odtp /ZI
; File d:\microsoft visual studio 10.0\vc\include\time.inl
_TEXT	SEGMENT
__Time$ = 8						; size = 4
_localtime PROC

; 113  : {

  00620	55		 push	 ebp
  00621	8b ec		 mov	 ebp, esp
  00623	83 ec 40	 sub	 esp, 64			; 00000040H
  00626	53		 push	 ebx
  00627	56		 push	 esi
  00628	57		 push	 edi

; 114  : #pragma warning( push )
; 115  : #pragma warning( disable : 4996 )
; 116  :     return _localtime64(_Time);

  00629	8b 45 08	 mov	 eax, DWORD PTR __Time$[ebp]
  0062c	50		 push	 eax
  0062d	e8 00 00 00 00	 call	 __localtime64
  00632	83 c4 04	 add	 esp, 4

; 117  : #pragma warning( pop )
; 118  : }

  00635	5f		 pop	 edi
  00636	5e		 pop	 esi
  00637	5b		 pop	 ebx
  00638	8b e5		 mov	 esp, ebp
  0063a	5d		 pop	 ebp
  0063b	c3		 ret	 0
_localtime ENDP
_TEXT	ENDS
EXTRN	__time64:PROC
; Function compile flags: /Odtp /ZI
_TEXT	SEGMENT
__Time$ = 8						; size = 4
_time	PROC

; 132  : {

  00640	55		 push	 ebp
  00641	8b ec		 mov	 ebp, esp
  00643	83 ec 40	 sub	 esp, 64			; 00000040H
  00646	53		 push	 ebx
  00647	56		 push	 esi
  00648	57		 push	 edi

; 133  :     return _time64(_Time);

  00649	8b 45 08	 mov	 eax, DWORD PTR __Time$[ebp]
  0064c	50		 push	 eax
  0064d	e8 00 00 00 00	 call	 __time64
  00652	83 c4 04	 add	 esp, 4

; 134  : }

  00655	5f		 pop	 edi
  00656	5e		 pop	 esi
  00657	5b		 pop	 ebx
  00658	8b e5		 mov	 esp, ebp
  0065a	5d		 pop	 ebp
  0065b	c3		 ret	 0
_time	ENDP
_TEXT	ENDS
PUBLIC	?ProcState_Playend@CIllusionTempleProcess@@QAEXH@Z ; CIllusionTempleProcess::ProcState_Playend
PUBLIC	?ProcState_Playing@CIllusionTempleProcess@@QAEXH@Z ; CIllusionTempleProcess::ProcState_Playing
PUBLIC	?ProcState_Waiting@CIllusionTempleProcess@@QAEXH@Z ; CIllusionTempleProcess::ProcState_Waiting
PUBLIC	?ProcState_Closed@CIllusionTempleProcess@@QAEXH@Z ; CIllusionTempleProcess::ProcState_Closed
PUBLIC	?Run@CIllusionTempleProcess@@QAEXH@Z		; CIllusionTempleProcess::Run
; Function compile flags: /Odtp /ZI
; File d:\projects\exteam6.3\source\gameserver\gameserver\illusiontempleprocess.cpp
_TEXT	SEGMENT
tv66 = -76						; size = 4
_State$ = -5						; size = 1
_this$ = -4						; size = 4
_iTick$ = 8						; size = 4
?Run@CIllusionTempleProcess@@QAEXH@Z PROC		; CIllusionTempleProcess::Run
; _this$ = ecx

; 205  : {

  00660	55		 push	 ebp
  00661	8b ec		 mov	 ebp, esp
  00663	83 ec 4c	 sub	 esp, 76			; 0000004cH
  00666	53		 push	 ebx
  00667	56		 push	 esi
  00668	57		 push	 edi
  00669	89 4d fc	 mov	 DWORD PTR _this$[ebp], ecx

; 206  : 	BYTE State = this->m_btState;

  0066c	8b 45 fc	 mov	 eax, DWORD PTR _this$[ebp]
  0066f	8a 88 2d 02 00
	00		 mov	 cl, BYTE PTR [eax+557]
  00675	88 4d fb	 mov	 BYTE PTR _State$[ebp], cl

; 207  : 
; 208  : 	switch ( State )

  00678	0f b6 45 fb	 movzx	 eax, BYTE PTR _State$[ebp]
  0067c	89 45 b4	 mov	 DWORD PTR tv66[ebp], eax
  0067f	83 7d b4 03	 cmp	 DWORD PTR tv66[ebp], 3
  00683	77 40		 ja	 SHORT $LN7@Run
  00685	8b 4d b4	 mov	 ecx, DWORD PTR tv66[ebp]
  00688	ff 24 8d 00 00
	00 00		 jmp	 DWORD PTR $LN9@Run[ecx*4]
$LN4@Run:

; 209  : 	{	
; 210  : 		case 0:	this->ProcState_Closed(iTick);		break;

  0068f	8b 45 08	 mov	 eax, DWORD PTR _iTick$[ebp]
  00692	50		 push	 eax
  00693	8b 4d fc	 mov	 ecx, DWORD PTR _this$[ebp]
  00696	e8 00 00 00 00	 call	 ?ProcState_Closed@CIllusionTempleProcess@@QAEXH@Z ; CIllusionTempleProcess::ProcState_Closed
  0069b	eb 28		 jmp	 SHORT $LN7@Run
$LN3@Run:

; 211  : 		case 1:	this->ProcState_Waiting(iTick);		break;

  0069d	8b 45 08	 mov	 eax, DWORD PTR _iTick$[ebp]
  006a0	50		 push	 eax
  006a1	8b 4d fc	 mov	 ecx, DWORD PTR _this$[ebp]
  006a4	e8 00 00 00 00	 call	 ?ProcState_Waiting@CIllusionTempleProcess@@QAEXH@Z ; CIllusionTempleProcess::ProcState_Waiting
  006a9	eb 1a		 jmp	 SHORT $LN7@Run
$LN2@Run:

; 212  : 		case 2:	this->ProcState_Playing(iTick);		break;

  006ab	8b 45 08	 mov	 eax, DWORD PTR _iTick$[ebp]
  006ae	50		 push	 eax
  006af	8b 4d fc	 mov	 ecx, DWORD PTR _this$[ebp]
  006b2	e8 00 00 00 00	 call	 ?ProcState_Playing@CIllusionTempleProcess@@QAEXH@Z ; CIllusionTempleProcess::ProcState_Playing
  006b7	eb 0c		 jmp	 SHORT $LN7@Run
$LN1@Run:

; 213  : 		case 3: this->ProcState_Playend(iTick);		break;

  006b9	8b 45 08	 mov	 eax, DWORD PTR _iTick$[ebp]
  006bc	50		 push	 eax
  006bd	8b 4d fc	 mov	 ecx, DWORD PTR _this$[ebp]
  006c0	e8 00 00 00 00	 call	 ?ProcState_Playend@CIllusionTempleProcess@@QAEXH@Z ; CIllusionTempleProcess::ProcState_Playend
$LN7@Run:

; 214  : 	}
; 215  : }

  006c5	5f		 pop	 edi
  006c6	5e		 pop	 esi
  006c7	5b		 pop	 ebx
  006c8	8b e5		 mov	 esp, ebp
  006ca	5d		 pop	 ebp
  006cb	c2 04 00	 ret	 4
  006ce	8b ff		 npad	 2
$LN9@Run:
  006d0	00 00 00 00	 DD	 $LN4@Run
  006d4	00 00 00 00	 DD	 $LN3@Run
  006d8	00 00 00 00	 DD	 $LN2@Run
  006dc	00 00 00 00	 DD	 $LN1@Run
?Run@CIllusionTempleProcess@@QAEXH@Z ENDP		; CIllusionTempleProcess::Run
_TEXT	ENDS
PUBLIC	??_C@_0FL@NAKEGMLC@?$FLIllusion?5Temple?$FN?5?$CI?$CFd?$CJ?5Illusion?5@ ; `string'
PUBLIC	??_C@_0FJ@NIONHBBL@?$FLIllusion?5Temple?$FN?5?$CI?$CFd?$CJ?5Allied?5Te@ ; `string'
PUBLIC	??_C@_0L@BPBFEMAA@?$CI?$CFs?$CJ?0?$CI?$CFs?$CJ?5?$AA@ ; `string'
PUBLIC	??_C@_0DD@OHOGJPCE@?$FLIllusion?5Temple?$FN?5?$CI?$CFd?$CJ?5Party?5Add@ ; `string'
PUBLIC	??_C@_0DG@NEAACFEP@?$FLIllusion?5Temple?$FN?5?$CI?$CFd?$CJ?5Party?5Cre@ ; `string'
PUBLIC	__real@0000000000000000
PUBLIC	??_C@_0CI@JGHENCNJ@?$FLIllusion?5Temple?$FN?5?$CI?$CFd?$CJ?5?$FLIllusion@ ; `string'
PUBLIC	??_C@_0CF@JIFCGMEK@?$FLIllusion?5Temple?$FN?5?$CI?$CFd?$CJ?5?$FLAlliedTe@ ; `string'
PUBLIC	?SetState@CIllusionTempleProcess@@QAEXE@Z	; CIllusionTempleProcess::SetState
PUBLIC	??_C@_0EH@FBNKCLFD@?$FLIllusion?5Temple?$FN?5?$CI?$CFd?$CJ?5Failed?5to@ ; `string'
PUBLIC	??_C@_0EI@LKEJODBE@?$FLIllusion?5Temple?$FN?5?$CI?$CFd?$CJ?5Payback?5t@ ; `string'
PUBLIC	??_C@_0EK@LHEOMBJM@?$FLIllusion?5Temple?$FN?5?$CI?$CFd?$CJ?5Payback?5t@ ; `string'
PUBLIC	__real@3ff0000000000000
PUBLIC	__real@3f800000
PUBLIC	?RemoveInvalid@CIllusionTempleProcess@@QAEXXZ	; CIllusionTempleProcess::RemoveInvalid
PUBLIC	?SendAllUserAnyMsg@CIllusionTempleProcess@@QAEXPAEH@Z ; CIllusionTempleProcess::SendAllUserAnyMsg
PUBLIC	__$ArrayPad$
EXTRN	?CGPartyListAll@@YAXH@Z:PROC			; CGPartyListAll
EXTRN	_strlen:PROC
EXTRN	?gObjViewportListProtocolCreate@@YAXPAUOBJECTSTRUCT@@@Z:PROC ; gObjViewportListProtocolCreate
EXTRN	?Add@PartyClass@@QAEHHHHH@Z:PROC		; PartyClass::Add
EXTRN	?Create@PartyClass@@QAEHHHH@Z:PROC		; PartyClass::Create
EXTRN	?gParty@@3VPartyClass@@A:BYTE			; gParty
EXTRN	_rand:PROC
EXTRN	?GCInventoryItemDeleteSend@@YAXHEE@Z:PROC	; GCInventoryItemDeleteSend
EXTRN	?gObjInventoryDeleteItem@@YAEHH@Z:PROC		; gObjInventoryDeleteItem
EXTRN	_sprintf:PROC
EXTRN	?gObjMoveGate@@YAHHH@Z:PROC			; gObjMoveGate
EXTRN	?GCItemDurSend@@YAXHEEE@Z:PROC			; GCItemDurSend
EXTRN	?ExConfig@@3VcExConfigs@@A:BYTE			; ExConfig
EXTRN	?DataSend@@YAHHPAEK@Z:PROC			; DataSend
EXTRN	?gObj@@3PAUOBJECTSTRUCT@@A:DWORD		; gObj
EXTRN	?PHeadSetB@@YAXPAEEH@Z:PROC			; PHeadSetB
EXTRN	?MakeNoticeMsgEx@TNotice@@SAXPAXEPADZZ:PROC	; TNotice::MakeNoticeMsgEx
EXTRN	?Get@CMsg@@QAEPADH@Z:PROC			; CMsg::Get
EXTRN	?lMsg@@3VCMsg@@A:BYTE				; lMsg
EXTRN	___security_cookie:DWORD
EXTRN	__fltused:DWORD
EXTRN	@__security_check_cookie@4:PROC
;	COMDAT ??_C@_0FL@NAKEGMLC@?$FLIllusion?5Temple?$FN?5?$CI?$CFd?$CJ?5Illusion?5@
CONST	SEGMENT
??_C@_0FL@NAKEGMLC@?$FLIllusion?5Temple?$FN?5?$CI?$CFd?$CJ?5Illusion?5@ DB '['
	DB	'Illusion Temple] (%d) Illusion Team ', 0b9H, 0fdH, 0bbH, 0e7H
	DB	'(%d),', 0b1H, 0e2H, 0bbH, 0e7H, '(%d), ', 0bfH, 0e4H, 0c1H, 0a4H
	DB	'(%d), ', 0b8H, 0b6H, 0b0H, 0cbH, 0bbH, 0e7H, '(%d), ', 0b4H, 0d9H
	DB	0c5H, 0a9H, 0b7H, 0ceH, 0b5H, 0e5H, '(%d)', 00H ; `string'
CONST	ENDS
;	COMDAT ??_C@_0FJ@NIONHBBL@?$FLIllusion?5Temple?$FN?5?$CI?$CFd?$CJ?5Allied?5Te@
CONST	SEGMENT
??_C@_0FJ@NIONHBBL@?$FLIllusion?5Temple?$FN?5?$CI?$CFd?$CJ?5Allied?5Te@ DB '['
	DB	'Illusion Temple] (%d) Allied Team ', 0b9H, 0fdH, 0bbH, 0e7H, '('
	DB	'%d),', 0b1H, 0e2H, 0bbH, 0e7H, '(%d), ', 0bfH, 0e4H, 0c1H, 0a4H
	DB	'(%d), ', 0b8H, 0b6H, 0b0H, 0cbH, 0bbH, 0e7H, '(%d), ', 0b4H, 0d9H
	DB	0c5H, 0a9H, 0b7H, 0ceH, 0b5H, 0e5H, '(%d)', 00H ; `string'
CONST	ENDS
;	COMDAT ??_C@_0L@BPBFEMAA@?$CI?$CFs?$CJ?0?$CI?$CFs?$CJ?5?$AA@
CONST	SEGMENT
??_C@_0L@BPBFEMAA@?$CI?$CFs?$CJ?0?$CI?$CFs?$CJ?5?$AA@ DB '(%s),(%s) ', 00H ; `string'
CONST	ENDS
;	COMDAT ??_C@_0DD@OHOGJPCE@?$FLIllusion?5Temple?$FN?5?$CI?$CFd?$CJ?5Party?5Add@
CONST	SEGMENT
??_C@_0DD@OHOGJPCE@?$FLIllusion?5Temple?$FN?5?$CI?$CFd?$CJ?5Party?5Add@ DB '['
	DB	'Illusion Temple] (%d) Party Add Error, (Team: %d)', 00H ; `string'
CONST	ENDS
;	COMDAT ??_C@_0DG@NEAACFEP@?$FLIllusion?5Temple?$FN?5?$CI?$CFd?$CJ?5Party?5Cre@
CONST	SEGMENT
??_C@_0DG@NEAACFEP@?$FLIllusion?5Temple?$FN?5?$CI?$CFd?$CJ?5Party?5Cre@ DB '['
	DB	'Illusion Temple] (%d) Party Create Error, (Team: %d)', 00H ; `string'
CONST	ENDS
;	COMDAT __real@0000000000000000
CONST	SEGMENT
__real@0000000000000000 DQ 00000000000000000r	; 0
CONST	ENDS
;	COMDAT ??_C@_0CI@JGHENCNJ@?$FLIllusion?5Temple?$FN?5?$CI?$CFd?$CJ?5?$FLIllusion@
CONST	SEGMENT
??_C@_0CI@JGHENCNJ@?$FLIllusion?5Temple?$FN?5?$CI?$CFd?$CJ?5?$FLIllusion@ DB '['
	DB	'Illusion Temple] (%d) [IllusiondTeam] ', 00H ; `string'
CONST	ENDS
;	COMDAT ??_C@_0CF@JIFCGMEK@?$FLIllusion?5Temple?$FN?5?$CI?$CFd?$CJ?5?$FLAlliedTe@
CONST	SEGMENT
??_C@_0CF@JIFCGMEK@?$FLIllusion?5Temple?$FN?5?$CI?$CFd?$CJ?5?$FLAlliedTe@ DB '['
	DB	'Illusion Temple] (%d) [AlliedTeam] ', 00H	; `string'
CONST	ENDS
;	COMDAT ??_C@_0EH@FBNKCLFD@?$FLIllusion?5Temple?$FN?5?$CI?$CFd?$CJ?5Failed?5to@
CONST	SEGMENT
??_C@_0EH@FBNKCLFD@?$FLIllusion?5Temple?$FN?5?$CI?$CFd?$CJ?5Failed?5to@ DB '['
	DB	'Illusion Temple] (%d) Failed to Start Illusion Temple (UserCo'
	DB	'unt: %d)', 00H				; `string'
CONST	ENDS
;	COMDAT ??_C@_0EI@LKEJODBE@?$FLIllusion?5Temple?$FN?5?$CI?$CFd?$CJ?5Payback?5t@
CONST	SEGMENT
??_C@_0EI@LKEJODBE@?$FLIllusion?5Temple?$FN?5?$CI?$CFd?$CJ?5Payback?5t@ DB '['
	DB	'Illusion Temple] (%d) Payback to User Failed (%s)(%s) Scroll '
	DB	'Not Found', 00H				; `string'
CONST	ENDS
;	COMDAT ??_C@_0EK@LHEOMBJM@?$FLIllusion?5Temple?$FN?5?$CI?$CFd?$CJ?5Payback?5t@
CONST	SEGMENT
??_C@_0EK@LHEOMBJM@?$FLIllusion?5Temple?$FN?5?$CI?$CFd?$CJ?5Payback?5t@ DB '['
	DB	'Illusion Temple] (%d) Payback to User (%s)(%s) ', 0c7H, 0c7H, 0c0H
	DB	0c7H, ' ', 0b5H, 0ceH, 0b7H, 0e7H, 0b8H, 0b6H, 0b8H, 0aeH, ' ('
	DB	'Serial:%u)', 00H				; `string'
CONST	ENDS
;	COMDAT __real@3ff0000000000000
CONST	SEGMENT
__real@3ff0000000000000 DQ 03ff0000000000000r	; 1
CONST	ENDS
;	COMDAT __real@3f800000
CONST	SEGMENT
__real@3f800000 DD 03f800000r			; 1
; Function compile flags: /Odtp /ZI
CONST	ENDS
_TEXT	SEGMENT
tv1171 = -1196						; size = 4
tv1134 = -1196						; size = 4
tv1169 = -1192						; size = 4
tv1132 = -1192						; size = 4
tv207 = -1192						; size = 4
tv188 = -1192						; size = 4
tv208 = -1188						; size = 4
tv189 = -1188						; size = 4
tv1166 = -1186						; size = 2
tv1129 = -1186						; size = 2
_loc279$234075 = -1120					; size = 4
_loc278$234072 = -1116					; size = 4
_loc277$234066 = -1112					; size = 4
_loc276$234062 = -1108					; size = 4
_loc275$234038 = -1104					; size = 4
_loc274$234031 = -1100					; size = 4
_szTemp1$234029 = -1096					; size = 256
_szTemp0$234027 = -840					; size = 256
_loc145$234026 = -584					; size = 4
_loc144$234025 = -580					; size = 4
_loc143$234024 = -576					; size = 4
_loc142$234011 = -572					; size = 4
_n$234005 = -568					; size = 4
_pNotice$234000 = -564					; size = 272
_i$233973 = -292					; size = 4
_pMsg$233971 = -288					; size = 4
_pNotice$233959 = -284					; size = 272
_loc2$ = -12						; size = 4
_this$ = -8						; size = 4
__$ArrayPad$ = -4					; size = 4
_iTick$ = 8						; size = 4
?ProcState_Closed@CIllusionTempleProcess@@QAEXH@Z PROC	; CIllusionTempleProcess::ProcState_Closed
; _this$ = ecx

; 218  : {

  006e0	55		 push	 ebp
  006e1	8b ec		 mov	 ebp, esp
  006e3	81 ec ac 04 00
	00		 sub	 esp, 1196		; 000004acH
  006e9	a1 00 00 00 00	 mov	 eax, DWORD PTR ___security_cookie
  006ee	33 c5		 xor	 eax, ebp
  006f0	89 45 fc	 mov	 DWORD PTR __$ArrayPad$[ebp], eax
  006f3	53		 push	 ebx
  006f4	56		 push	 esi
  006f5	57		 push	 edi
  006f6	89 4d f8	 mov	 DWORD PTR _this$[ebp], ecx

; 219  : 	int loc2 = iTick - this->m_iCloseTickCount;

  006f9	8b 45 f8	 mov	 eax, DWORD PTR _this$[ebp]
  006fc	8b 4d 08	 mov	 ecx, DWORD PTR _iTick$[ebp]
  006ff	2b 88 a0 03 00
	00		 sub	 ecx, DWORD PTR [eax+928]
  00705	89 4d f4	 mov	 DWORD PTR _loc2$[ebp], ecx

; 220  : 
; 221  : 	if(this->m_iOpenTickCount < iTick)

  00708	8b 45 f8	 mov	 eax, DWORD PTR _this$[ebp]
  0070b	8b 88 a4 03 00
	00		 mov	 ecx, DWORD PTR [eax+932]
  00711	3b 4d 08	 cmp	 ecx, DWORD PTR _iTick$[ebp]
  00714	0f 8d 93 00 00
	00		 jge	 $LN69@ProcState_

; 222  : 	{
; 223  : 		this->m_iLeftMinutesBeforeOpen--;

  0071a	8b 45 f8	 mov	 eax, DWORD PTR _this$[ebp]
  0071d	8b 88 98 03 00
	00		 mov	 ecx, DWORD PTR [eax+920]
  00723	83 e9 01	 sub	 ecx, 1
  00726	8b 55 f8	 mov	 edx, DWORD PTR _this$[ebp]
  00729	89 8a 98 03 00
	00		 mov	 DWORD PTR [edx+920], ecx

; 224  : 		this->m_iOpenTickCount = iTick + 60000;

  0072f	8b 45 08	 mov	 eax, DWORD PTR _iTick$[ebp]
  00732	05 60 ea 00 00	 add	 eax, 60000		; 0000ea60H
  00737	8b 4d f8	 mov	 ecx, DWORD PTR _this$[ebp]
  0073a	89 81 a4 03 00
	00		 mov	 DWORD PTR [ecx+932], eax

; 225  : 
; 226  : 		if(this->m_iLeftMinutesBeforeOpen <= m_i_IT_OpenTime)

  00740	8b 45 f8	 mov	 eax, DWORD PTR _this$[ebp]
  00743	8b 88 98 03 00
	00		 mov	 ecx, DWORD PTR [eax+920]
  00749	3b 0d 00 00 00
	00		 cmp	 ecx, DWORD PTR ?m_i_IT_OpenTime@@3HA ; m_i_IT_OpenTime
  0074f	7f 5c		 jg	 SHORT $LN69@ProcState_

; 227  : 		{
; 228  : 			if(this->m_iLeftMinutesBeforeOpen > 0)

  00751	8b 45 f8	 mov	 eax, DWORD PTR _this$[ebp]
  00754	83 b8 98 03 00
	00 00		 cmp	 DWORD PTR [eax+920], 0
  0075b	7e 50		 jle	 SHORT $LN69@ProcState_

; 229  : 			{
; 230  : 				if(this->m_btFloorIndex == 0)

  0075d	8b 45 f8	 mov	 eax, DWORD PTR _this$[ebp]
  00760	0f b6 88 2c 02
	00 00		 movzx	 ecx, BYTE PTR [eax+556]
  00767	85 c9		 test	 ecx, ecx
  00769	75 42		 jne	 SHORT $LN69@ProcState_

; 231  : 				{
; 232  : 					PMSG_NOTICE pNotice;
; 233  : 					TNotice::MakeNoticeMsgEx(&pNotice, 0, lMsg.Get(3394), this->m_iLeftMinutesBeforeOpen);

  0076b	8b 45 f8	 mov	 eax, DWORD PTR _this$[ebp]
  0076e	8b 88 98 03 00
	00		 mov	 ecx, DWORD PTR [eax+920]
  00774	51		 push	 ecx
  00775	68 42 0d 00 00	 push	 3394			; 00000d42H
  0077a	b9 00 00 00 00	 mov	 ecx, OFFSET ?lMsg@@3VCMsg@@A ; lMsg
  0077f	e8 00 00 00 00	 call	 ?Get@CMsg@@QAEPADH@Z	; CMsg::Get
  00784	50		 push	 eax
  00785	6a 00		 push	 0
  00787	8d 95 e4 fe ff
	ff		 lea	 edx, DWORD PTR _pNotice$233959[ebp]
  0078d	52		 push	 edx
  0078e	e8 00 00 00 00	 call	 ?MakeNoticeMsgEx@TNotice@@SAXPAXEPADZZ ; TNotice::MakeNoticeMsgEx
  00793	83 c4 10	 add	 esp, 16			; 00000010H

; 234  : 					this->SendAllUserAnyMsg((LPBYTE)&pNotice, pNotice.h.size);

  00796	0f b6 85 e5 fe
	ff ff		 movzx	 eax, BYTE PTR _pNotice$233959[ebp+1]
  0079d	50		 push	 eax
  0079e	8d 8d e4 fe ff
	ff		 lea	 ecx, DWORD PTR _pNotice$233959[ebp]
  007a4	51		 push	 ecx
  007a5	8b 4d f8	 mov	 ecx, DWORD PTR _this$[ebp]
  007a8	e8 00 00 00 00	 call	 ?SendAllUserAnyMsg@CIllusionTempleProcess@@QAEXPAEH@Z ; CIllusionTempleProcess::SendAllUserAnyMsg
$LN69@ProcState_:

; 235  : 				}
; 236  : 			}
; 237  : 		}
; 238  : 	}
; 239  : 
; 240  : 	if(loc2 >= 1000)

  007ad	81 7d f4 e8 03
	00 00		 cmp	 DWORD PTR _loc2$[ebp], 1000 ; 000003e8H
  007b4	0f 8c 31 03 00
	00		 jl	 $LN50@ProcState_

; 241  : 	{
; 242  : 		if(this->m_iEventBattleTimer > 0)

  007ba	8b 45 f8	 mov	 eax, DWORD PTR _this$[ebp]
  007bd	83 b8 9c 03 00
	00 00		 cmp	 DWORD PTR [eax+924], 0
  007c4	7e 15		 jle	 SHORT $LN67@ProcState_

; 243  : 		{
; 244  : 			this->m_iEventBattleTimer -= loc2;

  007c6	8b 45 f8	 mov	 eax, DWORD PTR _this$[ebp]
  007c9	8b 88 9c 03 00
	00		 mov	 ecx, DWORD PTR [eax+924]
  007cf	2b 4d f4	 sub	 ecx, DWORD PTR _loc2$[ebp]
  007d2	8b 55 f8	 mov	 edx, DWORD PTR _this$[ebp]
  007d5	89 8a 9c 03 00
	00		 mov	 DWORD PTR [edx+924], ecx
$LN67@ProcState_:

; 245  : 		}
; 246  : 
; 247  : 		this->m_iCloseTickCount = iTick;

  007db	8b 45 f8	 mov	 eax, DWORD PTR _this$[ebp]
  007de	8b 4d 08	 mov	 ecx, DWORD PTR _iTick$[ebp]
  007e1	89 88 a0 03 00
	00		 mov	 DWORD PTR [eax+928], ecx

; 248  : 
; 249  : 		if(this->m_iLeftMinutesBeforeOpen <= m_i_IT_OpenTime+1)

  007e7	a1 00 00 00 00	 mov	 eax, DWORD PTR ?m_i_IT_OpenTime@@3HA ; m_i_IT_OpenTime
  007ec	83 c0 01	 add	 eax, 1
  007ef	8b 4d f8	 mov	 ecx, DWORD PTR _this$[ebp]
  007f2	39 81 98 03 00
	00		 cmp	 DWORD PTR [ecx+920], eax
  007f8	7f 26		 jg	 SHORT $LN65@ProcState_

; 250  : 		{
; 251  : 			if(this->m_iEventBattleTimer == -1)

  007fa	8b 45 f8	 mov	 eax, DWORD PTR _this$[ebp]
  007fd	83 b8 9c 03 00
	00 ff		 cmp	 DWORD PTR [eax+924], -1
  00804	75 1a		 jne	 SHORT $LN65@ProcState_

; 252  : 			{
; 253  : 				this->m_iEventBattleTimer = 1000 * ( (m_i_IT_OpenTime+1) * 60);

  00806	a1 00 00 00 00	 mov	 eax, DWORD PTR ?m_i_IT_OpenTime@@3HA ; m_i_IT_OpenTime
  0080b	83 c0 01	 add	 eax, 1
  0080e	6b c0 3c	 imul	 eax, 60			; 0000003cH
  00811	69 c0 e8 03 00
	00		 imul	 eax, 1000		; 000003e8H
  00817	8b 4d f8	 mov	 ecx, DWORD PTR _this$[ebp]
  0081a	89 81 9c 03 00
	00		 mov	 DWORD PTR [ecx+924], eax
$LN65@ProcState_:

; 254  : 			}
; 255  : 		}
; 256  : 
; 257  : 		if(this->m_iLeftMinutesBeforeOpen <= m_i_IT_OpenTime)

  00820	8b 45 f8	 mov	 eax, DWORD PTR _this$[ebp]
  00823	8b 88 98 03 00
	00		 mov	 ecx, DWORD PTR [eax+920]
  00829	3b 0d 00 00 00
	00		 cmp	 ecx, DWORD PTR ?m_i_IT_OpenTime@@3HA ; m_i_IT_OpenTime
  0082f	7f 28		 jg	 SHORT $LN62@ProcState_

; 258  : 		{
; 259  : 			if(this->m_iEventBattleTimer > 5000)

  00831	8b 45 f8	 mov	 eax, DWORD PTR _this$[ebp]
  00834	81 b8 9c 03 00
	00 88 13 00 00	 cmp	 DWORD PTR [eax+924], 5000 ; 00001388H
  0083e	7e 19		 jle	 SHORT $LN62@ProcState_

; 260  : 			{
; 261  : 				if(this->m_bOpenStatus == FALSE)

  00840	8b 45 f8	 mov	 eax, DWORD PTR _this$[ebp]
  00843	83 b8 90 03 00
	00 00		 cmp	 DWORD PTR [eax+912], 0
  0084a	75 0d		 jne	 SHORT $LN62@ProcState_

; 262  : 				{
; 263  : 					this->m_bOpenStatus = TRUE;

  0084c	8b 45 f8	 mov	 eax, DWORD PTR _this$[ebp]
  0084f	c7 80 90 03 00
	00 01 00 00 00	 mov	 DWORD PTR [eax+912], 1
$LN62@ProcState_:

; 264  : 				}
; 265  : 			}
; 266  : 		}
; 267  : 
; 268  : 		if(this->m_iEventBattleTimer <= 30000 && this->m_iEventBattleTimer > 0)

  00859	8b 45 f8	 mov	 eax, DWORD PTR _this$[ebp]
  0085c	81 b8 9c 03 00
	00 30 75 00 00	 cmp	 DWORD PTR [eax+924], 30000 ; 00007530H
  00866	0f 8f 11 02 00
	00		 jg	 $LN56@ProcState_
  0086c	8b 45 f8	 mov	 eax, DWORD PTR _this$[ebp]
  0086f	83 b8 9c 03 00
	00 00		 cmp	 DWORD PTR [eax+924], 0
  00876	0f 8e 01 02 00
	00		 jle	 $LN56@ProcState_

; 269  : 		{
; 270  : 			if(this->m_btFloorIndex == 0)

  0087c	8b 45 f8	 mov	 eax, DWORD PTR _this$[ebp]
  0087f	0f b6 88 2c 02
	00 00		 movzx	 ecx, BYTE PTR [eax+556]
  00886	85 c9		 test	 ecx, ecx
  00888	0f 85 ef 01 00
	00		 jne	 $LN56@ProcState_

; 271  : 			{
; 272  : 				if(this->m_bMsgBeforeEnterTemple == FALSE)

  0088e	8b 45 f8	 mov	 eax, DWORD PTR _this$[ebp]
  00891	83 b8 b0 03 00
	00 00		 cmp	 DWORD PTR [eax+944], 0
  00898	0f 85 df 01 00
	00		 jne	 $LN56@ProcState_

; 273  : 				{
; 274  : 					this->m_bMsgBeforeEnterTemple = TRUE;

  0089e	8b 45 f8	 mov	 eax, DWORD PTR _this$[ebp]
  008a1	c7 80 b0 03 00
	00 01 00 00 00	 mov	 DWORD PTR [eax+944], 1

; 275  : 
; 276  : 					PMSG_SET_DEVILSQUARE pMsg;
; 277  : 
; 278  : 					PHeadSetB((LPBYTE)&pMsg, 0x92, sizeof(pMsg));

  008ab	6a 04		 push	 4
  008ad	68 92 00 00 00	 push	 146			; 00000092H
  008b2	8d 85 e0 fe ff
	ff		 lea	 eax, DWORD PTR _pMsg$233971[ebp]
  008b8	50		 push	 eax
  008b9	e8 00 00 00 00	 call	 ?PHeadSetB@@YAXPAEEH@Z	; PHeadSetB
  008be	83 c4 0c	 add	 esp, 12			; 0000000cH

; 279  : 					pMsg.Type = 14;

  008c1	c6 85 e3 fe ff
	ff 0e		 mov	 BYTE PTR _pMsg$233971[ebp+3], 14 ; 0000000eH

; 280  : 
; 281  : 					for (int i= OBJ_STARTUSERINDEX;i<OBJMAX;i++)

  008c8	c7 85 dc fe ff
	ff b0 36 00 00	 mov	 DWORD PTR _i$233973[ebp], 14000 ; 000036b0H
  008d2	eb 0f		 jmp	 SHORT $LN58@ProcState_
$LN57@ProcState_:
  008d4	8b 85 dc fe ff
	ff		 mov	 eax, DWORD PTR _i$233973[ebp]
  008da	83 c0 01	 add	 eax, 1
  008dd	89 85 dc fe ff
	ff		 mov	 DWORD PTR _i$233973[ebp], eax
$LN58@ProcState_:
  008e3	81 bd dc fe ff
	ff 98 3a 00 00	 cmp	 DWORD PTR _i$233973[ebp], 15000 ; 00003a98H
  008ed	0f 8d 8a 01 00
	00		 jge	 $LN56@ProcState_

; 282  : 					{
; 283  : 						if ( gObj[i].Connected == PLAYER_PLAYING && gObj[i].Type == OBJ_USER)

  008f3	8b 85 dc fe ff
	ff		 mov	 eax, DWORD PTR _i$233973[ebp]
  008f9	69 c0 38 2b 00
	00		 imul	 eax, 11064		; 00002b38H
  008ff	8b 0d 00 00 00
	00		 mov	 ecx, DWORD PTR ?gObj@@3PAUOBJECTSTRUCT@@A ; gObj
  00905	83 7c 01 04 03	 cmp	 DWORD PTR [ecx+eax+4], 3
  0090a	0f 85 68 01 00
	00		 jne	 $LN53@ProcState_
  00910	8b 85 dc fe ff
	ff		 mov	 eax, DWORD PTR _i$233973[ebp]
  00916	69 c0 38 2b 00
	00		 imul	 eax, 11064		; 00002b38H
  0091c	8b 0d 00 00 00
	00		 mov	 ecx, DWORD PTR ?gObj@@3PAUOBJECTSTRUCT@@A ; gObj
  00922	0f b7 54 01 68	 movzx	 edx, WORD PTR [ecx+eax+104]
  00927	83 fa 01	 cmp	 edx, 1
  0092a	0f 85 48 01 00
	00		 jne	 $LN53@ProcState_

; 284  : 						{
; 285  : 							if ( BC_MAP_RANGE(gObj[i].MapNumber) == FALSE )

  00930	8b 85 dc fe ff
	ff		 mov	 eax, DWORD PTR _i$233973[ebp]
  00936	69 c0 38 2b 00
	00		 imul	 eax, 11064		; 00002b38H
  0093c	8b 0d 00 00 00
	00		 mov	 ecx, DWORD PTR ?gObj@@3PAUOBJECTSTRUCT@@A ; gObj
  00942	0f b6 94 01 49
	01 00 00	 movzx	 edx, BYTE PTR [ecx+eax+329]
  0094a	83 fa 34	 cmp	 edx, 52			; 00000034H
  0094d	75 0c		 jne	 SHORT $LN77@ProcState_
  0094f	c7 85 5c fb ff
	ff 01 00 00 00	 mov	 DWORD PTR tv189[ebp], 1
  00959	eb 5f		 jmp	 SHORT $LN78@ProcState_
$LN77@ProcState_:
  0095b	8b 85 dc fe ff
	ff		 mov	 eax, DWORD PTR _i$233973[ebp]
  00961	69 c0 38 2b 00
	00		 imul	 eax, 11064		; 00002b38H
  00967	8b 0d 00 00 00
	00		 mov	 ecx, DWORD PTR ?gObj@@3PAUOBJECTSTRUCT@@A ; gObj
  0096d	0f b6 94 01 49
	01 00 00	 movzx	 edx, BYTE PTR [ecx+eax+329]
  00975	83 fa 0b	 cmp	 edx, 11			; 0000000bH
  00978	7d 0c		 jge	 SHORT $LN75@ProcState_
  0097a	c7 85 58 fb ff
	ff 00 00 00 00	 mov	 DWORD PTR tv188[ebp], 0
  00984	eb 28		 jmp	 SHORT $LN76@ProcState_
$LN75@ProcState_:
  00986	8b 85 dc fe ff
	ff		 mov	 eax, DWORD PTR _i$233973[ebp]
  0098c	69 c0 38 2b 00
	00		 imul	 eax, 11064		; 00002b38H
  00992	8b 0d 00 00 00
	00		 mov	 ecx, DWORD PTR ?gObj@@3PAUOBJECTSTRUCT@@A ; gObj
  00998	0f b6 94 01 49
	01 00 00	 movzx	 edx, BYTE PTR [ecx+eax+329]
  009a0	33 c0		 xor	 eax, eax
  009a2	83 fa 11	 cmp	 edx, 17			; 00000011H
  009a5	0f 9e c0	 setle	 al
  009a8	89 85 58 fb ff
	ff		 mov	 DWORD PTR tv188[ebp], eax
$LN76@ProcState_:
  009ae	8b 8d 58 fb ff
	ff		 mov	 ecx, DWORD PTR tv188[ebp]
  009b4	89 8d 5c fb ff
	ff		 mov	 DWORD PTR tv189[ebp], ecx
$LN78@ProcState_:
  009ba	83 bd 5c fb ff
	ff 00		 cmp	 DWORD PTR tv189[ebp], 0
  009c1	0f 85 b1 00 00
	00		 jne	 $LN53@ProcState_

; 286  : 							{
; 287  : 								if ( CC_MAP_RANGE(gObj[i].MapNumber) == FALSE )

  009c7	8b 85 dc fe ff
	ff		 mov	 eax, DWORD PTR _i$233973[ebp]
  009cd	69 c0 38 2b 00
	00		 imul	 eax, 11064		; 00002b38H
  009d3	8b 0d 00 00 00
	00		 mov	 ecx, DWORD PTR ?gObj@@3PAUOBJECTSTRUCT@@A ; gObj
  009d9	0f b6 94 01 49
	01 00 00	 movzx	 edx, BYTE PTR [ecx+eax+329]
  009e1	83 fa 35	 cmp	 edx, 53			; 00000035H
  009e4	75 0c		 jne	 SHORT $LN81@ProcState_
  009e6	c7 85 5c fb ff
	ff 01 00 00 00	 mov	 DWORD PTR tv208[ebp], 1
  009f0	eb 5f		 jmp	 SHORT $LN82@ProcState_
$LN81@ProcState_:
  009f2	8b 85 dc fe ff
	ff		 mov	 eax, DWORD PTR _i$233973[ebp]
  009f8	69 c0 38 2b 00
	00		 imul	 eax, 11064		; 00002b38H
  009fe	8b 0d 00 00 00
	00		 mov	 ecx, DWORD PTR ?gObj@@3PAUOBJECTSTRUCT@@A ; gObj
  00a04	0f b6 94 01 49
	01 00 00	 movzx	 edx, BYTE PTR [ecx+eax+329]
  00a0c	83 fa 12	 cmp	 edx, 18			; 00000012H
  00a0f	7d 0c		 jge	 SHORT $LN79@ProcState_
  00a11	c7 85 58 fb ff
	ff 00 00 00 00	 mov	 DWORD PTR tv207[ebp], 0
  00a1b	eb 28		 jmp	 SHORT $LN80@ProcState_
$LN79@ProcState_:
  00a1d	8b 85 dc fe ff
	ff		 mov	 eax, DWORD PTR _i$233973[ebp]
  00a23	69 c0 38 2b 00
	00		 imul	 eax, 11064		; 00002b38H
  00a29	8b 0d 00 00 00
	00		 mov	 ecx, DWORD PTR ?gObj@@3PAUOBJECTSTRUCT@@A ; gObj
  00a2f	0f b6 94 01 49
	01 00 00	 movzx	 edx, BYTE PTR [ecx+eax+329]
  00a37	33 c0		 xor	 eax, eax
  00a39	83 fa 17	 cmp	 edx, 23			; 00000017H
  00a3c	0f 9e c0	 setle	 al
  00a3f	89 85 58 fb ff
	ff		 mov	 DWORD PTR tv207[ebp], eax
$LN80@ProcState_:
  00a45	8b 8d 58 fb ff
	ff		 mov	 ecx, DWORD PTR tv207[ebp]
  00a4b	89 8d 5c fb ff
	ff		 mov	 DWORD PTR tv208[ebp], ecx
$LN82@ProcState_:
  00a51	83 bd 5c fb ff
	ff 00		 cmp	 DWORD PTR tv208[ebp], 0
  00a58	75 1e		 jne	 SHORT $LN53@ProcState_

; 288  : 								{
; 289  : 									DataSend(i, (LPBYTE)&pMsg, pMsg.h.size);

  00a5a	0f b6 85 e1 fe
	ff ff		 movzx	 eax, BYTE PTR _pMsg$233971[ebp+1]
  00a61	50		 push	 eax
  00a62	8d 8d e0 fe ff
	ff		 lea	 ecx, DWORD PTR _pMsg$233971[ebp]
  00a68	51		 push	 ecx
  00a69	8b 95 dc fe ff
	ff		 mov	 edx, DWORD PTR _i$233973[ebp]
  00a6f	52		 push	 edx
  00a70	e8 00 00 00 00	 call	 ?DataSend@@YAHHPAEK@Z	; DataSend
  00a75	83 c4 0c	 add	 esp, 12			; 0000000cH
$LN53@ProcState_:

; 290  : 								}
; 291  : 							}
; 292  : 						}
; 293  : 					}

  00a78	e9 57 fe ff ff	 jmp	 $LN57@ProcState_
$LN56@ProcState_:

; 294  : 				}
; 295  : 			}
; 296  : 		}
; 297  : 
; 298  : 		if(this->m_iEventBattleTimer <= 5000)

  00a7d	8b 45 f8	 mov	 eax, DWORD PTR _this$[ebp]
  00a80	81 b8 9c 03 00
	00 88 13 00 00	 cmp	 DWORD PTR [eax+924], 5000 ; 00001388H
  00a8a	7f 5f		 jg	 SHORT $LN50@ProcState_

; 299  : 		{
; 300  : 			if(this->m_bOpenStatus == TRUE)

  00a8c	8b 45 f8	 mov	 eax, DWORD PTR _this$[ebp]
  00a8f	83 b8 90 03 00
	00 01		 cmp	 DWORD PTR [eax+912], 1
  00a96	75 53		 jne	 SHORT $LN50@ProcState_

; 301  : 			{
; 302  : 				this->m_bOpenStatus = FALSE;

  00a98	8b 45 f8	 mov	 eax, DWORD PTR _this$[ebp]
  00a9b	c7 80 90 03 00
	00 00 00 00 00	 mov	 DWORD PTR [eax+912], 0

; 303  : 
; 304  : 				if(this->m_btFloorIndex == 0)

  00aa5	8b 45 f8	 mov	 eax, DWORD PTR _this$[ebp]
  00aa8	0f b6 88 2c 02
	00 00		 movzx	 ecx, BYTE PTR [eax+556]
  00aaf	85 c9		 test	 ecx, ecx
  00ab1	75 38		 jne	 SHORT $LN50@ProcState_

; 305  : 				{
; 306  : 					PMSG_NOTICE pNotice;
; 307  : 					TNotice::MakeNoticeMsgEx(&pNotice, 0, lMsg.Get(3395));

  00ab3	68 43 0d 00 00	 push	 3395			; 00000d43H
  00ab8	b9 00 00 00 00	 mov	 ecx, OFFSET ?lMsg@@3VCMsg@@A ; lMsg
  00abd	e8 00 00 00 00	 call	 ?Get@CMsg@@QAEPADH@Z	; CMsg::Get
  00ac2	50		 push	 eax
  00ac3	6a 00		 push	 0
  00ac5	8d 85 cc fd ff
	ff		 lea	 eax, DWORD PTR _pNotice$234000[ebp]
  00acb	50		 push	 eax
  00acc	e8 00 00 00 00	 call	 ?MakeNoticeMsgEx@TNotice@@SAXPAXEPADZZ ; TNotice::MakeNoticeMsgEx
  00ad1	83 c4 0c	 add	 esp, 12			; 0000000cH

; 308  : 					this->SendAllUserAnyMsg((LPBYTE)&pNotice, pNotice.h.size);

  00ad4	0f b6 85 cd fd
	ff ff		 movzx	 eax, BYTE PTR _pNotice$234000[ebp+1]
  00adb	50		 push	 eax
  00adc	8d 8d cc fd ff
	ff		 lea	 ecx, DWORD PTR _pNotice$234000[ebp]
  00ae2	51		 push	 ecx
  00ae3	8b 4d f8	 mov	 ecx, DWORD PTR _this$[ebp]
  00ae6	e8 00 00 00 00	 call	 ?SendAllUserAnyMsg@CIllusionTempleProcess@@QAEXPAEH@Z ; CIllusionTempleProcess::SendAllUserAnyMsg
$LN50@ProcState_:

; 309  : 				}
; 310  : 			}
; 311  : 		}
; 312  : 	}
; 313  : 
; 314  : 
; 315  : 	if(this->m_iLeftMinutesBeforeOpen <= 0)

  00aeb	8b 45 f8	 mov	 eax, DWORD PTR _this$[ebp]
  00aee	83 b8 98 03 00
	00 00		 cmp	 DWORD PTR [eax+920], 0
  00af5	0f 8f a9 10 00
	00		 jg	 $LN48@ProcState_

; 316  : 	{
; 317  : 		if(this->m_iEventBattleTimer <= 0)

  00afb	8b 45 f8	 mov	 eax, DWORD PTR _this$[ebp]
  00afe	83 b8 9c 03 00
	00 00		 cmp	 DWORD PTR [eax+924], 0
  00b05	0f 8f 99 10 00
	00		 jg	 $LN48@ProcState_

; 318  : 		{
; 319  : 			this->m_bOpenStatus = FALSE;

  00b0b	8b 45 f8	 mov	 eax, DWORD PTR _this$[ebp]
  00b0e	c7 80 90 03 00
	00 00 00 00 00	 mov	 DWORD PTR [eax+912], 0

; 320  : 
; 321  : 			this->RemoveInvalid();

  00b18	8b 4d f8	 mov	 ecx, DWORD PTR _this$[ebp]
  00b1b	e8 00 00 00 00	 call	 ?RemoveInvalid@CIllusionTempleProcess@@QAEXXZ ; CIllusionTempleProcess::RemoveInvalid

; 322  : 
; 323  : 			//int Ex_IllusionTemplPlaerMin = GetPrivateProfileInt("IllusionTemple","ItMinPlayers",4,"..\\Data\\ExData\\Events.ini");
; 324  : 
; 325  : 			if(this->m_iEnteredUserCount < ExConfig.Event.Ex_IllusionTemplPlaerMin) //UserCount

  00b20	8b 45 f8	 mov	 eax, DWORD PTR _this$[ebp]
  00b23	8b 88 28 02 00
	00		 mov	 ecx, DWORD PTR [eax+552]
  00b29	3b 0d a4 06 00
	00		 cmp	 ecx, DWORD PTR ?ExConfig@@3VcExConfigs@@A+1700
  00b2f	0f 8d 5a 04 00
	00		 jge	 $LN47@ProcState_

; 326  : 			{
; 327  : 				for( int n = 0; n < MAX_FLOOR_USER; n++ )

  00b35	c7 85 c8 fd ff
	ff 00 00 00 00	 mov	 DWORD PTR _n$234005[ebp], 0
  00b3f	eb 0f		 jmp	 SHORT $LN46@ProcState_
$LN45@ProcState_:
  00b41	8b 85 c8 fd ff
	ff		 mov	 eax, DWORD PTR _n$234005[ebp]
  00b47	83 c0 01	 add	 eax, 1
  00b4a	89 85 c8 fd ff
	ff		 mov	 DWORD PTR _n$234005[ebp], eax
$LN46@ProcState_:
  00b50	83 bd c8 fd ff
	ff 0a		 cmp	 DWORD PTR _n$234005[ebp], 10 ; 0000000aH
  00b57	0f 8d fd 03 00
	00		 jge	 $LN44@ProcState_

; 328  : 				{
; 329  : 					if( this->m_FloorData[n].m_iTeamPlayerIndex != OBJ_EMPTY && gObj[this->m_FloorData[n].m_iTeamPlayerIndex].Connected > PLAYER_LOGGED)

  00b5d	8b 85 c8 fd ff
	ff		 mov	 eax, DWORD PTR _n$234005[ebp]
  00b63	6b c0 30	 imul	 eax, 48			; 00000030H
  00b66	8b 4d f8	 mov	 ecx, DWORD PTR _this$[ebp]
  00b69	83 7c 01 20 ff	 cmp	 DWORD PTR [ecx+eax+32], -1
  00b6e	0f 84 e1 03 00
	00		 je	 $LN42@ProcState_
  00b74	8b 85 c8 fd ff
	ff		 mov	 eax, DWORD PTR _n$234005[ebp]
  00b7a	6b c0 30	 imul	 eax, 48			; 00000030H
  00b7d	8b 4d f8	 mov	 ecx, DWORD PTR _this$[ebp]
  00b80	8b 54 01 20	 mov	 edx, DWORD PTR [ecx+eax+32]
  00b84	69 d2 38 2b 00
	00		 imul	 edx, 11064		; 00002b38H
  00b8a	a1 00 00 00 00	 mov	 eax, DWORD PTR ?gObj@@3PAUOBJECTSTRUCT@@A ; gObj
  00b8f	83 7c 10 04 02	 cmp	 DWORD PTR [eax+edx+4], 2
  00b94	0f 8e bb 03 00
	00		 jle	 $LN42@ProcState_

; 330  : 					{
; 331  : 						if( gObj[this->m_FloorData[n].m_iTeamPlayerIndex].MapNumber == (this->m_btFloorIndex + MAP_INDEX_ILLUSIONTEMPLE) )

  00b9a	8b 85 c8 fd ff
	ff		 mov	 eax, DWORD PTR _n$234005[ebp]
  00ba0	6b c0 30	 imul	 eax, 48			; 00000030H
  00ba3	8b 4d f8	 mov	 ecx, DWORD PTR _this$[ebp]
  00ba6	8b 54 01 20	 mov	 edx, DWORD PTR [ecx+eax+32]
  00baa	69 d2 38 2b 00
	00		 imul	 edx, 11064		; 00002b38H
  00bb0	a1 00 00 00 00	 mov	 eax, DWORD PTR ?gObj@@3PAUOBJECTSTRUCT@@A ; gObj
  00bb5	0f b6 8c 10 49
	01 00 00	 movzx	 ecx, BYTE PTR [eax+edx+329]
  00bbd	8b 55 f8	 mov	 edx, DWORD PTR _this$[ebp]
  00bc0	0f b6 82 2c 02
	00 00		 movzx	 eax, BYTE PTR [edx+556]
  00bc7	83 c0 2d	 add	 eax, 45			; 0000002dH
  00bca	3b c8		 cmp	 ecx, eax
  00bcc	0f 85 83 03 00
	00		 jne	 $LN42@ProcState_

; 332  : 						{
; 333  : 							int loc142 = this->m_FloorData[n].m_btPosNDur;

  00bd2	8b 85 c8 fd ff
	ff		 mov	 eax, DWORD PTR _n$234005[ebp]
  00bd8	6b c0 30	 imul	 eax, 48			; 00000030H
  00bdb	8b 4d f8	 mov	 ecx, DWORD PTR _this$[ebp]
  00bde	0f b6 54 01 48	 movzx	 edx, BYTE PTR [ecx+eax+72]
  00be3	89 95 c4 fd ff
	ff		 mov	 DWORD PTR _loc142$234011[ebp], edx

; 334  : 
; 335  : 							if(loc142 > -1)

  00be9	83 bd c4 fd ff
	ff ff		 cmp	 DWORD PTR _loc142$234011[ebp], -1
  00bf0	0f 8e e4 02 00
	00		 jle	 $LN41@ProcState_

; 336  : 							{
; 337  : 								if(gObj[this->m_FloorData[n].m_iTeamPlayerIndex].pInventory[loc142].m_Type == ITEMGET(13,51))

  00bf6	8b 85 c8 fd ff
	ff		 mov	 eax, DWORD PTR _n$234005[ebp]
  00bfc	6b c0 30	 imul	 eax, 48			; 00000030H
  00bff	8b 4d f8	 mov	 ecx, DWORD PTR _this$[ebp]
  00c02	8b 54 01 20	 mov	 edx, DWORD PTR [ecx+eax+32]
  00c06	69 d2 38 2b 00
	00		 imul	 edx, 11064		; 00002b38H
  00c0c	8b 85 c4 fd ff
	ff		 mov	 eax, DWORD PTR _loc142$234011[ebp]
  00c12	69 c0 d4 00 00
	00		 imul	 eax, 212		; 000000d4H
  00c18	8b 0d 00 00 00
	00		 mov	 ecx, DWORD PTR ?gObj@@3PAUOBJECTSTRUCT@@A ; gObj
  00c1e	8b 94 11 24 0e
	00 00		 mov	 edx, DWORD PTR [ecx+edx+3620]
  00c25	0f bf 44 02 06	 movsx	 eax, WORD PTR [edx+eax+6]
  00c2a	3d 33 1a 00 00	 cmp	 eax, 6707		; 00001a33H
  00c2f	0f 85 d1 00 00
	00		 jne	 $LN40@ProcState_

; 338  : 								{
; 339  : 									gObj[this->m_FloorData[n].m_iTeamPlayerIndex].pInventory[loc142].m_Durability = 1.0f;

  00c35	8b 85 c8 fd ff
	ff		 mov	 eax, DWORD PTR _n$234005[ebp]
  00c3b	6b c0 30	 imul	 eax, 48			; 00000030H
  00c3e	8b 4d f8	 mov	 ecx, DWORD PTR _this$[ebp]
  00c41	8b 54 01 20	 mov	 edx, DWORD PTR [ecx+eax+32]
  00c45	69 d2 38 2b 00
	00		 imul	 edx, 11064		; 00002b38H
  00c4b	8b 85 c4 fd ff
	ff		 mov	 eax, DWORD PTR _loc142$234011[ebp]
  00c51	69 c0 d4 00 00
	00		 imul	 eax, 212		; 000000d4H
  00c57	8b 0d 00 00 00
	00		 mov	 ecx, DWORD PTR ?gObj@@3PAUOBJECTSTRUCT@@A ; gObj
  00c5d	8b 94 11 24 0e
	00 00		 mov	 edx, DWORD PTR [ecx+edx+3620]
  00c64	d9 e8		 fld1
  00c66	d9 5c 02 24	 fstp	 DWORD PTR [edx+eax+36]

; 340  : 									GCItemDurSend(gObj[this->m_FloorData[n].m_iTeamPlayerIndex].m_Index, (BYTE)loc142,  (BYTE)gObj[this->m_FloorData[n].m_iTeamPlayerIndex].pInventory[loc142].m_Durability, 0);

  00c6a	6a 00		 push	 0
  00c6c	8b 85 c8 fd ff
	ff		 mov	 eax, DWORD PTR _n$234005[ebp]
  00c72	6b c0 30	 imul	 eax, 48			; 00000030H
  00c75	8b 4d f8	 mov	 ecx, DWORD PTR _this$[ebp]
  00c78	8b 54 01 20	 mov	 edx, DWORD PTR [ecx+eax+32]
  00c7c	69 d2 38 2b 00
	00		 imul	 edx, 11064		; 00002b38H
  00c82	8b 85 c4 fd ff
	ff		 mov	 eax, DWORD PTR _loc142$234011[ebp]
  00c88	69 c0 d4 00 00
	00		 imul	 eax, 212		; 000000d4H
  00c8e	8b 0d 00 00 00
	00		 mov	 ecx, DWORD PTR ?gObj@@3PAUOBJECTSTRUCT@@A ; gObj
  00c94	8b 94 11 24 0e
	00 00		 mov	 edx, DWORD PTR [ecx+edx+3620]
  00c9b	d9 44 02 24	 fld	 DWORD PTR [edx+eax+36]
  00c9f	d9 bd 5e fb ff
	ff		 fnstcw	 WORD PTR tv1129[ebp]
  00ca5	0f b7 85 5e fb
	ff ff		 movzx	 eax, WORD PTR tv1129[ebp]
  00cac	0d 00 0c 00 00	 or	 eax, 3072		; 00000c00H
  00cb1	89 85 58 fb ff
	ff		 mov	 DWORD PTR tv1132[ebp], eax
  00cb7	d9 ad 58 fb ff
	ff		 fldcw	 WORD PTR tv1132[ebp]
  00cbd	db 9d 54 fb ff
	ff		 fistp	 DWORD PTR tv1134[ebp]
  00cc3	d9 ad 5e fb ff
	ff		 fldcw	 WORD PTR tv1129[ebp]
  00cc9	0f b6 85 54 fb
	ff ff		 movzx	 eax, BYTE PTR tv1134[ebp]
  00cd0	50		 push	 eax
  00cd1	0f b6 8d c4 fd
	ff ff		 movzx	 ecx, BYTE PTR _loc142$234011[ebp]
  00cd8	51		 push	 ecx
  00cd9	8b 95 c8 fd ff
	ff		 mov	 edx, DWORD PTR _n$234005[ebp]
  00cdf	6b d2 30	 imul	 edx, 48			; 00000030H
  00ce2	8b 45 f8	 mov	 eax, DWORD PTR _this$[ebp]
  00ce5	8b 4c 10 20	 mov	 ecx, DWORD PTR [eax+edx+32]
  00ce9	69 c9 38 2b 00
	00		 imul	 ecx, 11064		; 00002b38H
  00cef	8b 15 00 00 00
	00		 mov	 edx, DWORD PTR ?gObj@@3PAUOBJECTSTRUCT@@A ; gObj
  00cf5	8b 04 0a	 mov	 eax, DWORD PTR [edx+ecx]
  00cf8	50		 push	 eax
  00cf9	e8 00 00 00 00	 call	 ?GCItemDurSend@@YAXHEEE@Z ; GCItemDurSend
  00cfe	83 c4 10	 add	 esp, 16			; 00000010H
  00d01	e9 42 01 00 00	 jmp	 $LN38@ProcState_
$LN40@ProcState_:

; 341  : 								}
; 342  : 								else if(gObj[this->m_FloorData[n].m_iTeamPlayerIndex].pInventory[loc142].m_Type == ITEMGET(13,61))

  00d06	8b 85 c8 fd ff
	ff		 mov	 eax, DWORD PTR _n$234005[ebp]
  00d0c	6b c0 30	 imul	 eax, 48			; 00000030H
  00d0f	8b 4d f8	 mov	 ecx, DWORD PTR _this$[ebp]
  00d12	8b 54 01 20	 mov	 edx, DWORD PTR [ecx+eax+32]
  00d16	69 d2 38 2b 00
	00		 imul	 edx, 11064		; 00002b38H
  00d1c	8b 85 c4 fd ff
	ff		 mov	 eax, DWORD PTR _loc142$234011[ebp]
  00d22	69 c0 d4 00 00
	00		 imul	 eax, 212		; 000000d4H
  00d28	8b 0d 00 00 00
	00		 mov	 ecx, DWORD PTR ?gObj@@3PAUOBJECTSTRUCT@@A ; gObj
  00d2e	8b 94 11 24 0e
	00 00		 mov	 edx, DWORD PTR [ecx+edx+3620]
  00d35	0f bf 44 02 06	 movsx	 eax, WORD PTR [edx+eax+6]
  00d3a	3d 3d 1a 00 00	 cmp	 eax, 6717		; 00001a3dH
  00d3f	0f 85 03 01 00
	00		 jne	 $LN38@ProcState_

; 343  : 								{
; 344  : 									gObj[this->m_FloorData[n].m_iTeamPlayerIndex].pInventory[loc142].m_Durability += 1.0f;

  00d45	8b 85 c8 fd ff
	ff		 mov	 eax, DWORD PTR _n$234005[ebp]
  00d4b	6b c0 30	 imul	 eax, 48			; 00000030H
  00d4e	8b 4d f8	 mov	 ecx, DWORD PTR _this$[ebp]
  00d51	8b 54 01 20	 mov	 edx, DWORD PTR [ecx+eax+32]
  00d55	69 d2 38 2b 00
	00		 imul	 edx, 11064		; 00002b38H
  00d5b	8b 85 c4 fd ff
	ff		 mov	 eax, DWORD PTR _loc142$234011[ebp]
  00d61	69 c0 d4 00 00
	00		 imul	 eax, 212		; 000000d4H
  00d67	8b 0d 00 00 00
	00		 mov	 ecx, DWORD PTR ?gObj@@3PAUOBJECTSTRUCT@@A ; gObj
  00d6d	8b 94 11 24 0e
	00 00		 mov	 edx, DWORD PTR [ecx+edx+3620]
  00d74	d9 44 02 24	 fld	 DWORD PTR [edx+eax+36]
  00d78	dc 05 00 00 00
	00		 fadd	 QWORD PTR __real@3ff0000000000000
  00d7e	8b 85 c8 fd ff
	ff		 mov	 eax, DWORD PTR _n$234005[ebp]
  00d84	6b c0 30	 imul	 eax, 48			; 00000030H
  00d87	8b 4d f8	 mov	 ecx, DWORD PTR _this$[ebp]
  00d8a	8b 54 01 20	 mov	 edx, DWORD PTR [ecx+eax+32]
  00d8e	69 d2 38 2b 00
	00		 imul	 edx, 11064		; 00002b38H
  00d94	8b 85 c4 fd ff
	ff		 mov	 eax, DWORD PTR _loc142$234011[ebp]
  00d9a	69 c0 d4 00 00
	00		 imul	 eax, 212		; 000000d4H
  00da0	8b 0d 00 00 00
	00		 mov	 ecx, DWORD PTR ?gObj@@3PAUOBJECTSTRUCT@@A ; gObj
  00da6	8b 94 11 24 0e
	00 00		 mov	 edx, DWORD PTR [ecx+edx+3620]
  00dad	d9 5c 02 24	 fstp	 DWORD PTR [edx+eax+36]

; 345  : 									GCItemDurSend(gObj[this->m_FloorData[n].m_iTeamPlayerIndex].m_Index, (BYTE)loc142,  (BYTE)gObj[this->m_FloorData[n].m_iTeamPlayerIndex].pInventory[loc142].m_Durability, 0);

  00db1	6a 00		 push	 0
  00db3	8b 85 c8 fd ff
	ff		 mov	 eax, DWORD PTR _n$234005[ebp]
  00db9	6b c0 30	 imul	 eax, 48			; 00000030H
  00dbc	8b 4d f8	 mov	 ecx, DWORD PTR _this$[ebp]
  00dbf	8b 54 01 20	 mov	 edx, DWORD PTR [ecx+eax+32]
  00dc3	69 d2 38 2b 00
	00		 imul	 edx, 11064		; 00002b38H
  00dc9	8b 85 c4 fd ff
	ff		 mov	 eax, DWORD PTR _loc142$234011[ebp]
  00dcf	69 c0 d4 00 00
	00		 imul	 eax, 212		; 000000d4H
  00dd5	8b 0d 00 00 00
	00		 mov	 ecx, DWORD PTR ?gObj@@3PAUOBJECTSTRUCT@@A ; gObj
  00ddb	8b 94 11 24 0e
	00 00		 mov	 edx, DWORD PTR [ecx+edx+3620]
  00de2	d9 44 02 24	 fld	 DWORD PTR [edx+eax+36]
  00de6	d9 bd 5e fb ff
	ff		 fnstcw	 WORD PTR tv1166[ebp]
  00dec	0f b7 85 5e fb
	ff ff		 movzx	 eax, WORD PTR tv1166[ebp]
  00df3	0d 00 0c 00 00	 or	 eax, 3072		; 00000c00H
  00df8	89 85 58 fb ff
	ff		 mov	 DWORD PTR tv1169[ebp], eax
  00dfe	d9 ad 58 fb ff
	ff		 fldcw	 WORD PTR tv1169[ebp]
  00e04	db 9d 54 fb ff
	ff		 fistp	 DWORD PTR tv1171[ebp]
  00e0a	d9 ad 5e fb ff
	ff		 fldcw	 WORD PTR tv1166[ebp]
  00e10	0f b6 85 54 fb
	ff ff		 movzx	 eax, BYTE PTR tv1171[ebp]
  00e17	50		 push	 eax
  00e18	0f b6 8d c4 fd
	ff ff		 movzx	 ecx, BYTE PTR _loc142$234011[ebp]
  00e1f	51		 push	 ecx
  00e20	8b 95 c8 fd ff
	ff		 mov	 edx, DWORD PTR _n$234005[ebp]
  00e26	6b d2 30	 imul	 edx, 48			; 00000030H
  00e29	8b 45 f8	 mov	 eax, DWORD PTR _this$[ebp]
  00e2c	8b 4c 10 20	 mov	 ecx, DWORD PTR [eax+edx+32]
  00e30	69 c9 38 2b 00
	00		 imul	 ecx, 11064		; 00002b38H
  00e36	8b 15 00 00 00
	00		 mov	 edx, DWORD PTR ?gObj@@3PAUOBJECTSTRUCT@@A ; gObj
  00e3c	8b 04 0a	 mov	 eax, DWORD PTR [edx+ecx]
  00e3f	50		 push	 eax
  00e40	e8 00 00 00 00	 call	 ?GCItemDurSend@@YAXHEEE@Z ; GCItemDurSend
  00e45	83 c4 10	 add	 esp, 16			; 00000010H
$LN38@ProcState_:

; 346  : 								}
; 347  : 
; 348  : 								LogAddTD("[Illusion Temple] (%d) Payback to User (%s)(%s)   (Serial:%u)", this->m_btFloorIndex+1, gObj[this->m_FloorData[n].m_iTeamPlayerIndex].AccountID, gObj[this->m_FloorData[n].m_iTeamPlayerIndex].Name, gObj[this->m_FloorData[n].m_iTeamPlayerIndex].pInventory[loc142].m_Number);

  00e48	8b 85 c8 fd ff
	ff		 mov	 eax, DWORD PTR _n$234005[ebp]
  00e4e	6b c0 30	 imul	 eax, 48			; 00000030H
  00e51	8b 4d f8	 mov	 ecx, DWORD PTR _this$[ebp]
  00e54	8b 54 01 20	 mov	 edx, DWORD PTR [ecx+eax+32]
  00e58	69 d2 38 2b 00
	00		 imul	 edx, 11064		; 00002b38H
  00e5e	8b 85 c4 fd ff
	ff		 mov	 eax, DWORD PTR _loc142$234011[ebp]
  00e64	69 c0 d4 00 00
	00		 imul	 eax, 212		; 000000d4H
  00e6a	8b 0d 00 00 00
	00		 mov	 ecx, DWORD PTR ?gObj@@3PAUOBJECTSTRUCT@@A ; gObj
  00e70	8b 94 11 24 0e
	00 00		 mov	 edx, DWORD PTR [ecx+edx+3620]
  00e77	8b 04 02	 mov	 eax, DWORD PTR [edx+eax]
  00e7a	50		 push	 eax
  00e7b	8b 8d c8 fd ff
	ff		 mov	 ecx, DWORD PTR _n$234005[ebp]
  00e81	6b c9 30	 imul	 ecx, 48			; 00000030H
  00e84	8b 55 f8	 mov	 edx, DWORD PTR _this$[ebp]
  00e87	8b 44 0a 20	 mov	 eax, DWORD PTR [edx+ecx+32]
  00e8b	69 c0 38 2b 00
	00		 imul	 eax, 11064		; 00002b38H
  00e91	8b 0d 00 00 00
	00		 mov	 ecx, DWORD PTR ?gObj@@3PAUOBJECTSTRUCT@@A ; gObj
  00e97	8d 54 01 77	 lea	 edx, DWORD PTR [ecx+eax+119]
  00e9b	52		 push	 edx
  00e9c	8b 85 c8 fd ff
	ff		 mov	 eax, DWORD PTR _n$234005[ebp]
  00ea2	6b c0 30	 imul	 eax, 48			; 00000030H
  00ea5	8b 4d f8	 mov	 ecx, DWORD PTR _this$[ebp]
  00ea8	8b 54 01 20	 mov	 edx, DWORD PTR [ecx+eax+32]
  00eac	69 d2 38 2b 00
	00		 imul	 edx, 11064		; 00002b38H
  00eb2	a1 00 00 00 00	 mov	 eax, DWORD PTR ?gObj@@3PAUOBJECTSTRUCT@@A ; gObj
  00eb7	8d 4c 10 6c	 lea	 ecx, DWORD PTR [eax+edx+108]
  00ebb	51		 push	 ecx
  00ebc	8b 55 f8	 mov	 edx, DWORD PTR _this$[ebp]
  00ebf	0f b6 82 2c 02
	00 00		 movzx	 eax, BYTE PTR [edx+556]
  00ec6	83 c0 01	 add	 eax, 1
  00ec9	50		 push	 eax
  00eca	68 00 00 00 00	 push	 OFFSET ??_C@_0EK@LHEOMBJM@?$FLIllusion?5Temple?$FN?5?$CI?$CFd?$CJ?5Payback?5t@
  00ecf	ff 15 00 00 00
	00		 call	 DWORD PTR ?LogAddTD@@3P6AXPADZZA ; LogAddTD
  00ed5	83 c4 14	 add	 esp, 20			; 00000014H

; 349  : 							}
; 350  : 							else

  00ed8	eb 5d		 jmp	 SHORT $LN37@ProcState_
$LN41@ProcState_:

; 351  : 							{
; 352  : 								LogAddTD("[Illusion Temple] (%d) Payback to User Failed (%s)(%s) Scroll Not Found", this->m_btFloorIndex+1, gObj[this->m_FloorData[n].m_iTeamPlayerIndex].AccountID, gObj[this->m_FloorData[n].m_iTeamPlayerIndex].Name);

  00eda	8b 85 c8 fd ff
	ff		 mov	 eax, DWORD PTR _n$234005[ebp]
  00ee0	6b c0 30	 imul	 eax, 48			; 00000030H
  00ee3	8b 4d f8	 mov	 ecx, DWORD PTR _this$[ebp]
  00ee6	8b 54 01 20	 mov	 edx, DWORD PTR [ecx+eax+32]
  00eea	69 d2 38 2b 00
	00		 imul	 edx, 11064		; 00002b38H
  00ef0	a1 00 00 00 00	 mov	 eax, DWORD PTR ?gObj@@3PAUOBJECTSTRUCT@@A ; gObj
  00ef5	8d 4c 10 77	 lea	 ecx, DWORD PTR [eax+edx+119]
  00ef9	51		 push	 ecx
  00efa	8b 95 c8 fd ff
	ff		 mov	 edx, DWORD PTR _n$234005[ebp]
  00f00	6b d2 30	 imul	 edx, 48			; 00000030H
  00f03	8b 45 f8	 mov	 eax, DWORD PTR _this$[ebp]
  00f06	8b 4c 10 20	 mov	 ecx, DWORD PTR [eax+edx+32]
  00f0a	69 c9 38 2b 00
	00		 imul	 ecx, 11064		; 00002b38H
  00f10	8b 15 00 00 00
	00		 mov	 edx, DWORD PTR ?gObj@@3PAUOBJECTSTRUCT@@A ; gObj
  00f16	8d 44 0a 6c	 lea	 eax, DWORD PTR [edx+ecx+108]
  00f1a	50		 push	 eax
  00f1b	8b 4d f8	 mov	 ecx, DWORD PTR _this$[ebp]
  00f1e	0f b6 91 2c 02
	00 00		 movzx	 edx, BYTE PTR [ecx+556]
  00f25	83 c2 01	 add	 edx, 1
  00f28	52		 push	 edx
  00f29	68 00 00 00 00	 push	 OFFSET ??_C@_0EI@LKEJODBE@?$FLIllusion?5Temple?$FN?5?$CI?$CFd?$CJ?5Payback?5t@
  00f2e	ff 15 00 00 00
	00		 call	 DWORD PTR ?LogAddTD@@3P6AXPADZZA ; LogAddTD
  00f34	83 c4 10	 add	 esp, 16			; 00000010H
$LN37@ProcState_:

; 353  : 							}
; 354  : 							gObjMoveGate(this->m_FloorData[n].m_iTeamPlayerIndex, 267); //Elbeland

  00f37	68 0b 01 00 00	 push	 267			; 0000010bH
  00f3c	8b 85 c8 fd ff
	ff		 mov	 eax, DWORD PTR _n$234005[ebp]
  00f42	6b c0 30	 imul	 eax, 48			; 00000030H
  00f45	8b 4d f8	 mov	 ecx, DWORD PTR _this$[ebp]
  00f48	8b 54 01 20	 mov	 edx, DWORD PTR [ecx+eax+32]
  00f4c	52		 push	 edx
  00f4d	e8 00 00 00 00	 call	 ?gObjMoveGate@@YAHHH@Z	; gObjMoveGate
  00f52	83 c4 08	 add	 esp, 8
$LN42@ProcState_:

; 355  : 						}
; 356  : 					}
; 357  : 				}

  00f55	e9 e7 fb ff ff	 jmp	 $LN45@ProcState_
$LN44@ProcState_:

; 358  : 
; 359  : 				LogAddTD("[Illusion Temple] (%d) Failed to Start Illusion Temple (UserCount: %d)", this->m_btFloorIndex+1, this->m_iEnteredUserCount);

  00f5a	8b 45 f8	 mov	 eax, DWORD PTR _this$[ebp]
  00f5d	8b 88 28 02 00
	00		 mov	 ecx, DWORD PTR [eax+552]
  00f63	51		 push	 ecx
  00f64	8b 55 f8	 mov	 edx, DWORD PTR _this$[ebp]
  00f67	0f b6 82 2c 02
	00 00		 movzx	 eax, BYTE PTR [edx+556]
  00f6e	83 c0 01	 add	 eax, 1
  00f71	50		 push	 eax
  00f72	68 00 00 00 00	 push	 OFFSET ??_C@_0EH@FBNKCLFD@?$FLIllusion?5Temple?$FN?5?$CI?$CFd?$CJ?5Failed?5to@
  00f77	ff 15 00 00 00
	00		 call	 DWORD PTR ?LogAddTD@@3P6AXPADZZA ; LogAddTD
  00f7d	83 c4 0c	 add	 esp, 12			; 0000000cH

; 360  : 				this->SetState(3);

  00f80	6a 03		 push	 3
  00f82	8b 4d f8	 mov	 ecx, DWORD PTR _this$[ebp]
  00f85	e8 00 00 00 00	 call	 ?SetState@CIllusionTempleProcess@@QAEXE@Z ; CIllusionTempleProcess::SetState

; 361  : 				return;

  00f8a	e9 15 0c 00 00	 jmp	 $LN73@ProcState_
$LN47@ProcState_:

; 362  : 			}
; 363  : 			
; 364  : 			int loc143 = 0;

  00f8f	c7 85 c0 fd ff
	ff 00 00 00 00	 mov	 DWORD PTR _loc143$234024[ebp], 0

; 365  : 			int loc144 = -1;

  00f99	c7 85 bc fd ff
	ff ff ff ff ff	 mov	 DWORD PTR _loc144$234025[ebp], -1

; 366  : 			int loc145 = -1;

  00fa3	c7 85 b8 fd ff
	ff ff ff ff ff	 mov	 DWORD PTR _loc145$234026[ebp], -1

; 367  : 
; 368  : 			char szTemp0[256];
; 369  : 			sprintf(szTemp0,"[Illusion Temple] (%d) [AlliedTeam] ", this->m_btFloorIndex+1);

  00fad	8b 45 f8	 mov	 eax, DWORD PTR _this$[ebp]
  00fb0	0f b6 88 2c 02
	00 00		 movzx	 ecx, BYTE PTR [eax+556]
  00fb7	83 c1 01	 add	 ecx, 1
  00fba	51		 push	 ecx
  00fbb	68 00 00 00 00	 push	 OFFSET ??_C@_0CF@JIFCGMEK@?$FLIllusion?5Temple?$FN?5?$CI?$CFd?$CJ?5?$FLAlliedTe@
  00fc0	8d 95 b8 fc ff
	ff		 lea	 edx, DWORD PTR _szTemp0$234027[ebp]
  00fc6	52		 push	 edx
  00fc7	e8 00 00 00 00	 call	 _sprintf
  00fcc	83 c4 0c	 add	 esp, 12			; 0000000cH

; 370  : 
; 371  : 			char szTemp1[256];
; 372  : 			sprintf(szTemp1,"[Illusion Temple] (%d) [IllusiondTeam] ", this->m_btFloorIndex+1);

  00fcf	8b 45 f8	 mov	 eax, DWORD PTR _this$[ebp]
  00fd2	0f b6 88 2c 02
	00 00		 movzx	 ecx, BYTE PTR [eax+556]
  00fd9	83 c1 01	 add	 ecx, 1
  00fdc	51		 push	 ecx
  00fdd	68 00 00 00 00	 push	 OFFSET ??_C@_0CI@JGHENCNJ@?$FLIllusion?5Temple?$FN?5?$CI?$CFd?$CJ?5?$FLIllusion@
  00fe2	8d 95 b8 fb ff
	ff		 lea	 edx, DWORD PTR _szTemp1$234029[ebp]
  00fe8	52		 push	 edx
  00fe9	e8 00 00 00 00	 call	 _sprintf
  00fee	83 c4 0c	 add	 esp, 12			; 0000000cH

; 373  : 
; 374  : 			for( int loc274 = 0; loc274 < MAX_FLOOR_USER; loc274++)

  00ff1	c7 85 b4 fb ff
	ff 00 00 00 00	 mov	 DWORD PTR _loc274$234031[ebp], 0
  00ffb	eb 0f		 jmp	 SHORT $LN36@ProcState_
$LN35@ProcState_:
  00ffd	8b 85 b4 fb ff
	ff		 mov	 eax, DWORD PTR _loc274$234031[ebp]
  01003	83 c0 01	 add	 eax, 1
  01006	89 85 b4 fb ff
	ff		 mov	 DWORD PTR _loc274$234031[ebp], eax
$LN36@ProcState_:
  0100c	83 bd b4 fb ff
	ff 0a		 cmp	 DWORD PTR _loc274$234031[ebp], 10 ; 0000000aH
  01013	0f 8d 9d 0a 00
	00		 jge	 $LN34@ProcState_

; 375  : 			{
; 376  : 				if( this->m_FloorData[loc274].m_iTeamPlayerIndex != OBJ_EMPTY && gObj[this->m_FloorData[loc274].m_iTeamPlayerIndex].m_iIllusionTempleIndex == loc274)

  01019	8b 85 b4 fb ff
	ff		 mov	 eax, DWORD PTR _loc274$234031[ebp]
  0101f	6b c0 30	 imul	 eax, 48			; 00000030H
  01022	8b 4d f8	 mov	 ecx, DWORD PTR _this$[ebp]
  01025	83 7c 01 20 ff	 cmp	 DWORD PTR [ecx+eax+32], -1
  0102a	0f 84 81 0a 00
	00		 je	 $LN6@ProcState_
  01030	8b 85 b4 fb ff
	ff		 mov	 eax, DWORD PTR _loc274$234031[ebp]
  01036	6b c0 30	 imul	 eax, 48			; 00000030H
  01039	8b 4d f8	 mov	 ecx, DWORD PTR _this$[ebp]
  0103c	8b 54 01 20	 mov	 edx, DWORD PTR [ecx+eax+32]
  01040	69 d2 38 2b 00
	00		 imul	 edx, 11064		; 00002b38H
  01046	a1 00 00 00 00	 mov	 eax, DWORD PTR ?gObj@@3PAUOBJECTSTRUCT@@A ; gObj
  0104b	8b 8c 10 78 20
	00 00		 mov	 ecx, DWORD PTR [eax+edx+8312]
  01052	3b 8d b4 fb ff
	ff		 cmp	 ecx, DWORD PTR _loc274$234031[ebp]
  01058	0f 85 53 0a 00
	00		 jne	 $LN6@ProcState_

; 377  : 				{
; 378  : 					if( gObj[this->m_FloorData[loc274].m_iTeamPlayerIndex].Class >= MAX_TYPE_PLAYER || gObj[this->m_FloorData[loc274].m_iTeamPlayerIndex].Class < 0)

  0105e	8b 85 b4 fb ff
	ff		 mov	 eax, DWORD PTR _loc274$234031[ebp]
  01064	6b c0 30	 imul	 eax, 48			; 00000030H
  01067	8b 4d f8	 mov	 ecx, DWORD PTR _this$[ebp]
  0106a	8b 54 01 20	 mov	 edx, DWORD PTR [ecx+eax+32]
  0106e	69 d2 38 2b 00
	00		 imul	 edx, 11064		; 00002b38H
  01074	a1 00 00 00 00	 mov	 eax, DWORD PTR ?gObj@@3PAUOBJECTSTRUCT@@A ; gObj
  01079	0f b7 8c 10 b8
	00 00 00	 movzx	 ecx, WORD PTR [eax+edx+184]
  01081	83 f9 07	 cmp	 ecx, 7
  01084	7d 27		 jge	 SHORT $LN31@ProcState_
  01086	8b 85 b4 fb ff
	ff		 mov	 eax, DWORD PTR _loc274$234031[ebp]
  0108c	6b c0 30	 imul	 eax, 48			; 00000030H
  0108f	8b 4d f8	 mov	 ecx, DWORD PTR _this$[ebp]
  01092	8b 54 01 20	 mov	 edx, DWORD PTR [ecx+eax+32]
  01096	69 d2 38 2b 00
	00		 imul	 edx, 11064		; 00002b38H
  0109c	a1 00 00 00 00	 mov	 eax, DWORD PTR ?gObj@@3PAUOBJECTSTRUCT@@A ; gObj
  010a1	0f b7 8c 10 b8
	00 00 00	 movzx	 ecx, WORD PTR [eax+edx+184]
  010a9	85 c9		 test	 ecx, ecx
  010ab	7d 05		 jge	 SHORT $LN32@ProcState_
$LN31@ProcState_:

; 379  : 					{
; 380  : 						continue;

  010ad	e9 4b ff ff ff	 jmp	 $LN35@ProcState_
$LN32@ProcState_:

; 381  : 					}
; 382  : 
; 383  : 					int loc275 = this->m_FloorData[loc274].m_btPosNDur; //season 3.0 changed

  010b2	8b 85 b4 fb ff
	ff		 mov	 eax, DWORD PTR _loc274$234031[ebp]
  010b8	6b c0 30	 imul	 eax, 48			; 00000030H
  010bb	8b 4d f8	 mov	 ecx, DWORD PTR _this$[ebp]
  010be	0f b6 54 01 48	 movzx	 edx, BYTE PTR [ecx+eax+72]
  010c3	89 95 b0 fb ff
	ff		 mov	 DWORD PTR _loc275$234038[ebp], edx

; 384  : 
; 385  : 					if(loc275 > -1)

  010c9	83 bd b0 fb ff
	ff ff		 cmp	 DWORD PTR _loc275$234038[ebp], -1
  010d0	0f 8e 89 01 00
	00		 jle	 $LN25@ProcState_

; 386  : 					{
; 387  : 						if(gObj[this->m_FloorData[loc274].m_iTeamPlayerIndex].pInventory[loc275].m_Durability <= 0.0f) //season 3.0 add-on

  010d6	8b 85 b4 fb ff
	ff		 mov	 eax, DWORD PTR _loc274$234031[ebp]
  010dc	6b c0 30	 imul	 eax, 48			; 00000030H
  010df	8b 4d f8	 mov	 ecx, DWORD PTR _this$[ebp]
  010e2	8b 54 01 20	 mov	 edx, DWORD PTR [ecx+eax+32]
  010e6	69 d2 38 2b 00
	00		 imul	 edx, 11064		; 00002b38H
  010ec	8b 85 b0 fb ff
	ff		 mov	 eax, DWORD PTR _loc275$234038[ebp]
  010f2	69 c0 d4 00 00
	00		 imul	 eax, 212		; 000000d4H
  010f8	8b 0d 00 00 00
	00		 mov	 ecx, DWORD PTR ?gObj@@3PAUOBJECTSTRUCT@@A ; gObj
  010fe	8b 94 11 24 0e
	00 00		 mov	 edx, DWORD PTR [ecx+edx+3620]
  01105	d9 44 02 24	 fld	 DWORD PTR [edx+eax+36]
  01109	dc 1d 00 00 00
	00		 fcomp	 QWORD PTR __real@0000000000000000
  0110f	df e0		 fnstsw	 ax
  01111	f6 c4 41	 test	 ah, 65			; 00000041H
  01114	0f 8a 45 01 00
	00		 jp	 $LN25@ProcState_

; 388  : 						{
; 389  : 							if(gObj[this->m_FloorData[loc274].m_iTeamPlayerIndex].pInventory[loc275].m_Type == ITEMGET(13,51))

  0111a	8b 85 b4 fb ff
	ff		 mov	 eax, DWORD PTR _loc274$234031[ebp]
  01120	6b c0 30	 imul	 eax, 48			; 00000030H
  01123	8b 4d f8	 mov	 ecx, DWORD PTR _this$[ebp]
  01126	8b 54 01 20	 mov	 edx, DWORD PTR [ecx+eax+32]
  0112a	69 d2 38 2b 00
	00		 imul	 edx, 11064		; 00002b38H
  01130	8b 85 b0 fb ff
	ff		 mov	 eax, DWORD PTR _loc275$234038[ebp]
  01136	69 c0 d4 00 00
	00		 imul	 eax, 212		; 000000d4H
  0113c	8b 0d 00 00 00
	00		 mov	 ecx, DWORD PTR ?gObj@@3PAUOBJECTSTRUCT@@A ; gObj
  01142	8b 94 11 24 0e
	00 00		 mov	 edx, DWORD PTR [ecx+edx+3620]
  01149	0f bf 44 02 06	 movsx	 eax, WORD PTR [edx+eax+6]
  0114e	3d 33 1a 00 00	 cmp	 eax, 6707		; 00001a33H
  01153	75 48		 jne	 SHORT $LN28@ProcState_

; 390  : 							{
; 391  : 								gObjInventoryDeleteItem(this->m_FloorData[loc274].m_iTeamPlayerIndex, loc275);

  01155	8b 85 b0 fb ff
	ff		 mov	 eax, DWORD PTR _loc275$234038[ebp]
  0115b	50		 push	 eax
  0115c	8b 8d b4 fb ff
	ff		 mov	 ecx, DWORD PTR _loc274$234031[ebp]
  01162	6b c9 30	 imul	 ecx, 48			; 00000030H
  01165	8b 55 f8	 mov	 edx, DWORD PTR _this$[ebp]
  01168	8b 44 0a 20	 mov	 eax, DWORD PTR [edx+ecx+32]
  0116c	50		 push	 eax
  0116d	e8 00 00 00 00	 call	 ?gObjInventoryDeleteItem@@YAEHH@Z ; gObjInventoryDeleteItem
  01172	83 c4 08	 add	 esp, 8

; 392  : 								GCInventoryItemDeleteSend(this->m_FloorData[loc274].m_iTeamPlayerIndex, loc275, 0);

  01175	6a 00		 push	 0
  01177	0f b6 85 b0 fb
	ff ff		 movzx	 eax, BYTE PTR _loc275$234038[ebp]
  0117e	50		 push	 eax
  0117f	8b 8d b4 fb ff
	ff		 mov	 ecx, DWORD PTR _loc274$234031[ebp]
  01185	6b c9 30	 imul	 ecx, 48			; 00000030H
  01188	8b 55 f8	 mov	 edx, DWORD PTR _this$[ebp]
  0118b	8b 44 0a 20	 mov	 eax, DWORD PTR [edx+ecx+32]
  0118f	50		 push	 eax
  01190	e8 00 00 00 00	 call	 ?GCInventoryItemDeleteSend@@YAXHEE@Z ; GCInventoryItemDeleteSend
  01195	83 c4 0c	 add	 esp, 12			; 0000000cH
  01198	e9 c2 00 00 00	 jmp	 $LN25@ProcState_
$LN28@ProcState_:

; 393  : 							}
; 394  : 							else if(gObj[this->m_FloorData[loc274].m_iTeamPlayerIndex].pInventory[loc275].m_Type == ITEMGET(13,61))

  0119d	8b 85 b4 fb ff
	ff		 mov	 eax, DWORD PTR _loc274$234031[ebp]
  011a3	6b c0 30	 imul	 eax, 48			; 00000030H
  011a6	8b 4d f8	 mov	 ecx, DWORD PTR _this$[ebp]
  011a9	8b 54 01 20	 mov	 edx, DWORD PTR [ecx+eax+32]
  011ad	69 d2 38 2b 00
	00		 imul	 edx, 11064		; 00002b38H
  011b3	8b 85 b0 fb ff
	ff		 mov	 eax, DWORD PTR _loc275$234038[ebp]
  011b9	69 c0 d4 00 00
	00		 imul	 eax, 212		; 000000d4H
  011bf	8b 0d 00 00 00
	00		 mov	 ecx, DWORD PTR ?gObj@@3PAUOBJECTSTRUCT@@A ; gObj
  011c5	8b 94 11 24 0e
	00 00		 mov	 edx, DWORD PTR [ecx+edx+3620]
  011cc	0f bf 44 02 06	 movsx	 eax, WORD PTR [edx+eax+6]
  011d1	3d 3d 1a 00 00	 cmp	 eax, 6717		; 00001a3dH
  011d6	0f 85 83 00 00
	00		 jne	 $LN25@ProcState_

; 395  : 							{
; 396  : 								if(gObj[this->m_FloorData[loc274].m_iTeamPlayerIndex].pInventory[loc275].m_Durability <= 0.0f)

  011dc	8b 85 b4 fb ff
	ff		 mov	 eax, DWORD PTR _loc274$234031[ebp]
  011e2	6b c0 30	 imul	 eax, 48			; 00000030H
  011e5	8b 4d f8	 mov	 ecx, DWORD PTR _this$[ebp]
  011e8	8b 54 01 20	 mov	 edx, DWORD PTR [ecx+eax+32]
  011ec	69 d2 38 2b 00
	00		 imul	 edx, 11064		; 00002b38H
  011f2	8b 85 b0 fb ff
	ff		 mov	 eax, DWORD PTR _loc275$234038[ebp]
  011f8	69 c0 d4 00 00
	00		 imul	 eax, 212		; 000000d4H
  011fe	8b 0d 00 00 00
	00		 mov	 ecx, DWORD PTR ?gObj@@3PAUOBJECTSTRUCT@@A ; gObj
  01204	8b 94 11 24 0e
	00 00		 mov	 edx, DWORD PTR [ecx+edx+3620]
  0120b	d9 44 02 24	 fld	 DWORD PTR [edx+eax+36]
  0120f	dc 1d 00 00 00
	00		 fcomp	 QWORD PTR __real@0000000000000000
  01215	df e0		 fnstsw	 ax
  01217	f6 c4 41	 test	 ah, 65			; 00000041H
  0121a	7a 43		 jp	 SHORT $LN25@ProcState_

; 397  : 								{
; 398  : 									gObjInventoryDeleteItem(this->m_FloorData[loc274].m_iTeamPlayerIndex, loc275);

  0121c	8b 85 b0 fb ff
	ff		 mov	 eax, DWORD PTR _loc275$234038[ebp]
  01222	50		 push	 eax
  01223	8b 8d b4 fb ff
	ff		 mov	 ecx, DWORD PTR _loc274$234031[ebp]
  01229	6b c9 30	 imul	 ecx, 48			; 00000030H
  0122c	8b 55 f8	 mov	 edx, DWORD PTR _this$[ebp]
  0122f	8b 44 0a 20	 mov	 eax, DWORD PTR [edx+ecx+32]
  01233	50		 push	 eax
  01234	e8 00 00 00 00	 call	 ?gObjInventoryDeleteItem@@YAEHH@Z ; gObjInventoryDeleteItem
  01239	83 c4 08	 add	 esp, 8

; 399  : 									GCInventoryItemDeleteSend(this->m_FloorData[loc274].m_iTeamPlayerIndex, loc275, 0);

  0123c	6a 00		 push	 0
  0123e	0f b6 85 b0 fb
	ff ff		 movzx	 eax, BYTE PTR _loc275$234038[ebp]
  01245	50		 push	 eax
  01246	8b 8d b4 fb ff
	ff		 mov	 ecx, DWORD PTR _loc274$234031[ebp]
  0124c	6b c9 30	 imul	 ecx, 48			; 00000030H
  0124f	8b 55 f8	 mov	 edx, DWORD PTR _this$[ebp]
  01252	8b 44 0a 20	 mov	 eax, DWORD PTR [edx+ecx+32]
  01256	50		 push	 eax
  01257	e8 00 00 00 00	 call	 ?GCInventoryItemDeleteSend@@YAXHEE@Z ; GCInventoryItemDeleteSend
  0125c	83 c4 0c	 add	 esp, 12			; 0000000cH
$LN25@ProcState_:

; 400  : 								}
; 401  : 							}
; 402  : 						}
; 403  : 					}
; 404  : 
; 405  : 					if(this->m_btYellowTeamClassCount[gObj[this->m_FloorData[loc274].m_iTeamPlayerIndex].Class] == this->m_btBlueTeamClassCount[gObj[this->m_FloorData[loc274].m_iTeamPlayerIndex].Class])

  0125f	8b 85 b4 fb ff
	ff		 mov	 eax, DWORD PTR _loc274$234031[ebp]
  01265	6b c0 30	 imul	 eax, 48			; 00000030H
  01268	8b 4d f8	 mov	 ecx, DWORD PTR _this$[ebp]
  0126b	8b 54 01 20	 mov	 edx, DWORD PTR [ecx+eax+32]
  0126f	69 d2 38 2b 00
	00		 imul	 edx, 11064		; 00002b38H
  01275	a1 00 00 00 00	 mov	 eax, DWORD PTR ?gObj@@3PAUOBJECTSTRUCT@@A ; gObj
  0127a	0f b7 8c 10 b8
	00 00 00	 movzx	 ecx, WORD PTR [eax+edx+184]
  01282	8b 55 f8	 mov	 edx, DWORD PTR _this$[ebp]
  01285	0f b6 84 0a d3
	03 00 00	 movzx	 eax, BYTE PTR [edx+ecx+979]
  0128d	8b 8d b4 fb ff
	ff		 mov	 ecx, DWORD PTR _loc274$234031[ebp]
  01293	6b c9 30	 imul	 ecx, 48			; 00000030H
  01296	8b 55 f8	 mov	 edx, DWORD PTR _this$[ebp]
  01299	8b 4c 0a 20	 mov	 ecx, DWORD PTR [edx+ecx+32]
  0129d	69 c9 38 2b 00
	00		 imul	 ecx, 11064		; 00002b38H
  012a3	8b 15 00 00 00
	00		 mov	 edx, DWORD PTR ?gObj@@3PAUOBJECTSTRUCT@@A ; gObj
  012a9	0f b7 8c 0a b8
	00 00 00	 movzx	 ecx, WORD PTR [edx+ecx+184]
  012b1	8b 55 f8	 mov	 edx, DWORD PTR _this$[ebp]
  012b4	0f b6 8c 0a da
	03 00 00	 movzx	 ecx, BYTE PTR [edx+ecx+986]
  012bc	3b c1		 cmp	 eax, ecx
  012be	75 74		 jne	 SHORT $LN24@ProcState_

; 406  : 					{
; 407  : 						if(this->m_iYellowTeamUserCount == this->m_iBlueTeamUserCount)

  012c0	8b 45 f8	 mov	 eax, DWORD PTR _this$[ebp]
  012c3	8b 4d f8	 mov	 ecx, DWORD PTR _this$[ebp]
  012c6	8b 90 c8 03 00
	00		 mov	 edx, DWORD PTR [eax+968]
  012cc	3b 91 cc 03 00
	00		 cmp	 edx, DWORD PTR [ecx+972]
  012d2	75 23		 jne	 SHORT $LN23@ProcState_

; 408  : 						{
; 409  : 							this->m_FloorData[loc274].m_btTeamJoinSide = rand()%2;

  012d4	e8 00 00 00 00	 call	 _rand
  012d9	25 01 00 00 80	 and	 eax, -2147483647	; 80000001H
  012de	79 05		 jns	 SHORT $LN83@ProcState_
  012e0	48		 dec	 eax
  012e1	83 c8 fe	 or	 eax, -2			; fffffffeH
  012e4	40		 inc	 eax
$LN83@ProcState_:
  012e5	8b 8d b4 fb ff
	ff		 mov	 ecx, DWORD PTR _loc274$234031[ebp]
  012eb	6b c9 30	 imul	 ecx, 48			; 00000030H
  012ee	8b 55 f8	 mov	 edx, DWORD PTR _this$[ebp]
  012f1	88 44 0a 24	 mov	 BYTE PTR [edx+ecx+36], al
  012f5	eb 38		 jmp	 SHORT $LN20@ProcState_
$LN23@ProcState_:

; 410  : 						}
; 411  : 						else if(this->m_iYellowTeamUserCount > this->m_iBlueTeamUserCount)

  012f7	8b 45 f8	 mov	 eax, DWORD PTR _this$[ebp]
  012fa	8b 4d f8	 mov	 ecx, DWORD PTR _this$[ebp]
  012fd	8b 90 c8 03 00
	00		 mov	 edx, DWORD PTR [eax+968]
  01303	3b 91 cc 03 00
	00		 cmp	 edx, DWORD PTR [ecx+972]
  01309	7e 13		 jle	 SHORT $LN21@ProcState_

; 412  : 						{
; 413  : 							this->m_FloorData[loc274].m_btTeamJoinSide = 1;

  0130b	8b 85 b4 fb ff
	ff		 mov	 eax, DWORD PTR _loc274$234031[ebp]
  01311	6b c0 30	 imul	 eax, 48			; 00000030H
  01314	8b 4d f8	 mov	 ecx, DWORD PTR _this$[ebp]
  01317	c6 44 01 24 01	 mov	 BYTE PTR [ecx+eax+36], 1

; 414  : 						}
; 415  : 						else

  0131c	eb 11		 jmp	 SHORT $LN20@ProcState_
$LN21@ProcState_:

; 416  : 						{
; 417  : 							this->m_FloorData[loc274].m_btTeamJoinSide = 0;

  0131e	8b 85 b4 fb ff
	ff		 mov	 eax, DWORD PTR _loc274$234031[ebp]
  01324	6b c0 30	 imul	 eax, 48			; 00000030H
  01327	8b 4d f8	 mov	 ecx, DWORD PTR _this$[ebp]
  0132a	c6 44 01 24 00	 mov	 BYTE PTR [ecx+eax+36], 0
$LN20@ProcState_:

; 418  : 						}

  0132f	e9 d3 00 00 00	 jmp	 $LN13@ProcState_
$LN24@ProcState_:

; 419  : 					}
; 420  : 					else if(this->m_btYellowTeamClassCount[gObj[this->m_FloorData[loc274].m_iTeamPlayerIndex].Class] < this->m_btBlueTeamClassCount[gObj[this->m_FloorData[loc274].m_iTeamPlayerIndex].Class])

  01334	8b 85 b4 fb ff
	ff		 mov	 eax, DWORD PTR _loc274$234031[ebp]
  0133a	6b c0 30	 imul	 eax, 48			; 00000030H
  0133d	8b 4d f8	 mov	 ecx, DWORD PTR _this$[ebp]
  01340	8b 54 01 20	 mov	 edx, DWORD PTR [ecx+eax+32]
  01344	69 d2 38 2b 00
	00		 imul	 edx, 11064		; 00002b38H
  0134a	a1 00 00 00 00	 mov	 eax, DWORD PTR ?gObj@@3PAUOBJECTSTRUCT@@A ; gObj
  0134f	0f b7 8c 10 b8
	00 00 00	 movzx	 ecx, WORD PTR [eax+edx+184]
  01357	8b 55 f8	 mov	 edx, DWORD PTR _this$[ebp]
  0135a	0f b6 84 0a d3
	03 00 00	 movzx	 eax, BYTE PTR [edx+ecx+979]
  01362	8b 8d b4 fb ff
	ff		 mov	 ecx, DWORD PTR _loc274$234031[ebp]
  01368	6b c9 30	 imul	 ecx, 48			; 00000030H
  0136b	8b 55 f8	 mov	 edx, DWORD PTR _this$[ebp]
  0136e	8b 4c 0a 20	 mov	 ecx, DWORD PTR [edx+ecx+32]
  01372	69 c9 38 2b 00
	00		 imul	 ecx, 11064		; 00002b38H
  01378	8b 15 00 00 00
	00		 mov	 edx, DWORD PTR ?gObj@@3PAUOBJECTSTRUCT@@A ; gObj
  0137e	0f b7 8c 0a b8
	00 00 00	 movzx	 ecx, WORD PTR [edx+ecx+184]
  01386	8b 55 f8	 mov	 edx, DWORD PTR _this$[ebp]
  01389	0f b6 8c 0a da
	03 00 00	 movzx	 ecx, BYTE PTR [edx+ecx+986]
  01391	3b c1		 cmp	 eax, ecx
  01393	7d 3a		 jge	 SHORT $LN18@ProcState_

; 421  : 					{
; 422  : 						if(this->m_iYellowTeamUserCount > this->m_iBlueTeamUserCount)

  01395	8b 45 f8	 mov	 eax, DWORD PTR _this$[ebp]
  01398	8b 4d f8	 mov	 ecx, DWORD PTR _this$[ebp]
  0139b	8b 90 c8 03 00
	00		 mov	 edx, DWORD PTR [eax+968]
  013a1	3b 91 cc 03 00
	00		 cmp	 edx, DWORD PTR [ecx+972]
  013a7	7e 13		 jle	 SHORT $LN17@ProcState_

; 423  : 						{
; 424  : 							this->m_FloorData[loc274].m_btTeamJoinSide = 1;

  013a9	8b 85 b4 fb ff
	ff		 mov	 eax, DWORD PTR _loc274$234031[ebp]
  013af	6b c0 30	 imul	 eax, 48			; 00000030H
  013b2	8b 4d f8	 mov	 ecx, DWORD PTR _this$[ebp]
  013b5	c6 44 01 24 01	 mov	 BYTE PTR [ecx+eax+36], 1

; 425  : 						}
; 426  : 						else

  013ba	eb 11		 jmp	 SHORT $LN16@ProcState_
$LN17@ProcState_:

; 427  : 						{
; 428  : 							this->m_FloorData[loc274].m_btTeamJoinSide = 0;

  013bc	8b 85 b4 fb ff
	ff		 mov	 eax, DWORD PTR _loc274$234031[ebp]
  013c2	6b c0 30	 imul	 eax, 48			; 00000030H
  013c5	8b 4d f8	 mov	 ecx, DWORD PTR _this$[ebp]
  013c8	c6 44 01 24 00	 mov	 BYTE PTR [ecx+eax+36], 0
$LN16@ProcState_:

; 429  : 						}

  013cd	eb 38		 jmp	 SHORT $LN13@ProcState_
$LN18@ProcState_:

; 430  : 					}
; 431  : 					else if(this->m_iYellowTeamUserCount < this->m_iBlueTeamUserCount)

  013cf	8b 45 f8	 mov	 eax, DWORD PTR _this$[ebp]
  013d2	8b 4d f8	 mov	 ecx, DWORD PTR _this$[ebp]
  013d5	8b 90 c8 03 00
	00		 mov	 edx, DWORD PTR [eax+968]
  013db	3b 91 cc 03 00
	00		 cmp	 edx, DWORD PTR [ecx+972]
  013e1	7d 13		 jge	 SHORT $LN14@ProcState_

; 432  : 					{
; 433  : 						this->m_FloorData[loc274].m_btTeamJoinSide = 0;

  013e3	8b 85 b4 fb ff
	ff		 mov	 eax, DWORD PTR _loc274$234031[ebp]
  013e9	6b c0 30	 imul	 eax, 48			; 00000030H
  013ec	8b 4d f8	 mov	 ecx, DWORD PTR _this$[ebp]
  013ef	c6 44 01 24 00	 mov	 BYTE PTR [ecx+eax+36], 0

; 434  : 					}
; 435  : 					else

  013f4	eb 11		 jmp	 SHORT $LN13@ProcState_
$LN14@ProcState_:

; 436  : 					{
; 437  : 						this->m_FloorData[loc274].m_btTeamJoinSide = 1;

  013f6	8b 85 b4 fb ff
	ff		 mov	 eax, DWORD PTR _loc274$234031[ebp]
  013fc	6b c0 30	 imul	 eax, 48			; 00000030H
  013ff	8b 4d f8	 mov	 ecx, DWORD PTR _this$[ebp]
  01402	c6 44 01 24 01	 mov	 BYTE PTR [ecx+eax+36], 1
$LN13@ProcState_:

; 438  : 					}
; 439  : 
; 440  : 					if(this->m_FloorData[loc274].m_btTeamJoinSide == 0)

  01407	8b 85 b4 fb ff
	ff		 mov	 eax, DWORD PTR _loc274$234031[ebp]
  0140d	6b c0 30	 imul	 eax, 48			; 00000030H
  01410	8b 4d f8	 mov	 ecx, DWORD PTR _this$[ebp]
  01413	0f b6 54 01 24	 movzx	 edx, BYTE PTR [ecx+eax+36]
  01418	85 d2		 test	 edx, edx
  0141a	0f 85 4b 03 00
	00		 jne	 $LN12@ProcState_

; 441  : 					{
; 442  : 						this->m_FloorData[loc274].m_btTeamJoinSide = 0; //wtf??

  01420	8b 85 b4 fb ff
	ff		 mov	 eax, DWORD PTR _loc274$234031[ebp]
  01426	6b c0 30	 imul	 eax, 48			; 00000030H
  01429	8b 4d f8	 mov	 ecx, DWORD PTR _this$[ebp]
  0142c	c6 44 01 24 00	 mov	 BYTE PTR [ecx+eax+36], 0

; 443  : 						this->m_btYellowTeamClassCount[gObj[this->m_FloorData[loc274].m_iTeamPlayerIndex].Class]++;

  01431	8b 85 b4 fb ff
	ff		 mov	 eax, DWORD PTR _loc274$234031[ebp]
  01437	6b c0 30	 imul	 eax, 48			; 00000030H
  0143a	8b 4d f8	 mov	 ecx, DWORD PTR _this$[ebp]
  0143d	8b 54 01 20	 mov	 edx, DWORD PTR [ecx+eax+32]
  01441	69 d2 38 2b 00
	00		 imul	 edx, 11064		; 00002b38H
  01447	a1 00 00 00 00	 mov	 eax, DWORD PTR ?gObj@@3PAUOBJECTSTRUCT@@A ; gObj
  0144c	0f b7 8c 10 b8
	00 00 00	 movzx	 ecx, WORD PTR [eax+edx+184]
  01454	8b 55 f8	 mov	 edx, DWORD PTR _this$[ebp]
  01457	8a 84 0a d3 03
	00 00		 mov	 al, BYTE PTR [edx+ecx+979]
  0145e	04 01		 add	 al, 1
  01460	8b 8d b4 fb ff
	ff		 mov	 ecx, DWORD PTR _loc274$234031[ebp]
  01466	6b c9 30	 imul	 ecx, 48			; 00000030H
  01469	8b 55 f8	 mov	 edx, DWORD PTR _this$[ebp]
  0146c	8b 4c 0a 20	 mov	 ecx, DWORD PTR [edx+ecx+32]
  01470	69 c9 38 2b 00
	00		 imul	 ecx, 11064		; 00002b38H
  01476	8b 15 00 00 00
	00		 mov	 edx, DWORD PTR ?gObj@@3PAUOBJECTSTRUCT@@A ; gObj
  0147c	0f b7 8c 0a b8
	00 00 00	 movzx	 ecx, WORD PTR [edx+ecx+184]
  01484	8b 55 f8	 mov	 edx, DWORD PTR _this$[ebp]
  01487	88 84 0a d3 03
	00 00		 mov	 BYTE PTR [edx+ecx+979], al

; 444  : 
; 445  : 						if(loc144 == -1 && gObj[this->m_FloorData[loc274].m_iTeamPlayerIndex].PartyNumber < 0)

  0148e	83 bd bc fd ff
	ff ff		 cmp	 DWORD PTR _loc144$234025[ebp], -1
  01495	0f 85 f3 00 00
	00		 jne	 $LN11@ProcState_
  0149b	8b 85 b4 fb ff
	ff		 mov	 eax, DWORD PTR _loc274$234031[ebp]
  014a1	6b c0 30	 imul	 eax, 48			; 00000030H
  014a4	8b 4d f8	 mov	 ecx, DWORD PTR _this$[ebp]
  014a7	8b 54 01 20	 mov	 edx, DWORD PTR [ecx+eax+32]
  014ab	69 d2 38 2b 00
	00		 imul	 edx, 11064		; 00002b38H
  014b1	a1 00 00 00 00	 mov	 eax, DWORD PTR ?gObj@@3PAUOBJECTSTRUCT@@A ; gObj
  014b6	83 bc 10 2c 04
	00 00 00	 cmp	 DWORD PTR [eax+edx+1068], 0
  014be	0f 8d ca 00 00
	00		 jge	 $LN11@ProcState_

; 446  : 						{
; 447  : 							loc144 = gParty.Create(this->m_FloorData[loc274].m_iTeamPlayerIndex, gObj[this->m_FloorData[loc274].m_iTeamPlayerIndex].DBNumber, gObj[this->m_FloorData[loc274].m_iTeamPlayerIndex].Level);

  014c4	8b 85 b4 fb ff
	ff		 mov	 eax, DWORD PTR _loc274$234031[ebp]
  014ca	6b c0 30	 imul	 eax, 48			; 00000030H
  014cd	8b 4d f8	 mov	 ecx, DWORD PTR _this$[ebp]
  014d0	8b 54 01 20	 mov	 edx, DWORD PTR [ecx+eax+32]
  014d4	69 d2 38 2b 00
	00		 imul	 edx, 11064		; 00002b38H
  014da	a1 00 00 00 00	 mov	 eax, DWORD PTR ?gObj@@3PAUOBJECTSTRUCT@@A ; gObj
  014df	0f bf 8c 10 be
	00 00 00	 movsx	 ecx, WORD PTR [eax+edx+190]
  014e7	51		 push	 ecx
  014e8	8b 95 b4 fb ff
	ff		 mov	 edx, DWORD PTR _loc274$234031[ebp]
  014ee	6b d2 30	 imul	 edx, 48			; 00000030H
  014f1	8b 45 f8	 mov	 eax, DWORD PTR _this$[ebp]
  014f4	8b 4c 10 20	 mov	 ecx, DWORD PTR [eax+edx+32]
  014f8	69 c9 38 2b 00
	00		 imul	 ecx, 11064		; 00002b38H
  014fe	8b 15 00 00 00
	00		 mov	 edx, DWORD PTR ?gObj@@3PAUOBJECTSTRUCT@@A ; gObj
  01504	8b 44 0a 2c	 mov	 eax, DWORD PTR [edx+ecx+44]
  01508	50		 push	 eax
  01509	8b 8d b4 fb ff
	ff		 mov	 ecx, DWORD PTR _loc274$234031[ebp]
  0150f	6b c9 30	 imul	 ecx, 48			; 00000030H
  01512	8b 55 f8	 mov	 edx, DWORD PTR _this$[ebp]
  01515	8b 44 0a 20	 mov	 eax, DWORD PTR [edx+ecx+32]
  01519	50		 push	 eax
  0151a	b9 00 00 00 00	 mov	 ecx, OFFSET ?gParty@@3VPartyClass@@A ; gParty
  0151f	e8 00 00 00 00	 call	 ?Create@PartyClass@@QAEHHHH@Z ; PartyClass::Create
  01524	89 85 bc fd ff
	ff		 mov	 DWORD PTR _loc144$234025[ebp], eax

; 448  : 
; 449  : 							if(loc144 == -1)

  0152a	83 bd bc fd ff
	ff ff		 cmp	 DWORD PTR _loc144$234025[ebp], -1
  01531	75 2e		 jne	 SHORT $LN10@ProcState_

; 450  : 							{
; 451  : 								LogAddTD("[Illusion Temple] (%d) Party Create Error, (Team: %d)", this->m_btFloorIndex+1, this->m_FloorData[loc274].m_btTeamJoinSide);	

  01533	8b 85 b4 fb ff
	ff		 mov	 eax, DWORD PTR _loc274$234031[ebp]
  01539	6b c0 30	 imul	 eax, 48			; 00000030H
  0153c	8b 4d f8	 mov	 ecx, DWORD PTR _this$[ebp]
  0153f	0f b6 54 01 24	 movzx	 edx, BYTE PTR [ecx+eax+36]
  01544	52		 push	 edx
  01545	8b 45 f8	 mov	 eax, DWORD PTR _this$[ebp]
  01548	0f b6 88 2c 02
	00 00		 movzx	 ecx, BYTE PTR [eax+556]
  0154f	83 c1 01	 add	 ecx, 1
  01552	51		 push	 ecx
  01553	68 00 00 00 00	 push	 OFFSET ??_C@_0DG@NEAACFEP@?$FLIllusion?5Temple?$FN?5?$CI?$CFd?$CJ?5Party?5Cre@
  01558	ff 15 00 00 00
	00		 call	 DWORD PTR ?LogAddTD@@3P6AXPADZZA ; LogAddTD
  0155e	83 c4 0c	 add	 esp, 12			; 0000000cH
$LN10@ProcState_:

; 452  : 							}
; 453  : 							gObj[this->m_FloorData[loc274].m_iTeamPlayerIndex].PartyNumber = loc144;

  01561	8b 85 b4 fb ff
	ff		 mov	 eax, DWORD PTR _loc274$234031[ebp]
  01567	6b c0 30	 imul	 eax, 48			; 00000030H
  0156a	8b 4d f8	 mov	 ecx, DWORD PTR _this$[ebp]
  0156d	8b 54 01 20	 mov	 edx, DWORD PTR [ecx+eax+32]
  01571	69 d2 38 2b 00
	00		 imul	 edx, 11064		; 00002b38H
  01577	a1 00 00 00 00	 mov	 eax, DWORD PTR ?gObj@@3PAUOBJECTSTRUCT@@A ; gObj
  0157c	8b 8d bc fd ff
	ff		 mov	 ecx, DWORD PTR _loc144$234025[ebp]
  01582	89 8c 10 2c 04
	00 00		 mov	 DWORD PTR [eax+edx+1068], ecx

; 454  : 						}
; 455  : 						else

  01589	e9 ce 00 00 00	 jmp	 $LN7@ProcState_
$LN11@ProcState_:

; 456  : 						{
; 457  : 							int loc276 = gParty.Add(loc144, this->m_FloorData[loc274].m_iTeamPlayerIndex, gObj[this->m_FloorData[loc274].m_iTeamPlayerIndex].DBNumber, gObj[this->m_FloorData[loc274].m_iTeamPlayerIndex].Level);

  0158e	8b 85 b4 fb ff
	ff		 mov	 eax, DWORD PTR _loc274$234031[ebp]
  01594	6b c0 30	 imul	 eax, 48			; 00000030H
  01597	8b 4d f8	 mov	 ecx, DWORD PTR _this$[ebp]
  0159a	8b 54 01 20	 mov	 edx, DWORD PTR [ecx+eax+32]
  0159e	69 d2 38 2b 00
	00		 imul	 edx, 11064		; 00002b38H
  015a4	a1 00 00 00 00	 mov	 eax, DWORD PTR ?gObj@@3PAUOBJECTSTRUCT@@A ; gObj
  015a9	0f bf 8c 10 be
	00 00 00	 movsx	 ecx, WORD PTR [eax+edx+190]
  015b1	51		 push	 ecx
  015b2	8b 95 b4 fb ff
	ff		 mov	 edx, DWORD PTR _loc274$234031[ebp]
  015b8	6b d2 30	 imul	 edx, 48			; 00000030H
  015bb	8b 45 f8	 mov	 eax, DWORD PTR _this$[ebp]
  015be	8b 4c 10 20	 mov	 ecx, DWORD PTR [eax+edx+32]
  015c2	69 c9 38 2b 00
	00		 imul	 ecx, 11064		; 00002b38H
  015c8	8b 15 00 00 00
	00		 mov	 edx, DWORD PTR ?gObj@@3PAUOBJECTSTRUCT@@A ; gObj
  015ce	8b 44 0a 2c	 mov	 eax, DWORD PTR [edx+ecx+44]
  015d2	50		 push	 eax
  015d3	8b 8d b4 fb ff
	ff		 mov	 ecx, DWORD PTR _loc274$234031[ebp]
  015d9	6b c9 30	 imul	 ecx, 48			; 00000030H
  015dc	8b 55 f8	 mov	 edx, DWORD PTR _this$[ebp]
  015df	8b 44 0a 20	 mov	 eax, DWORD PTR [edx+ecx+32]
  015e3	50		 push	 eax
  015e4	8b 8d bc fd ff
	ff		 mov	 ecx, DWORD PTR _loc144$234025[ebp]
  015ea	51		 push	 ecx
  015eb	b9 00 00 00 00	 mov	 ecx, OFFSET ?gParty@@3VPartyClass@@A ; gParty
  015f0	e8 00 00 00 00	 call	 ?Add@PartyClass@@QAEHHHHH@Z ; PartyClass::Add
  015f5	89 85 ac fb ff
	ff		 mov	 DWORD PTR _loc276$234062[ebp], eax

; 458  : 
; 459  : 							if(loc276 >= 0)

  015fb	83 bd ac fb ff
	ff 00		 cmp	 DWORD PTR _loc276$234062[ebp], 0
  01602	7c 2a		 jl	 SHORT $LN8@ProcState_

; 460  : 							{
; 461  : 								gObj[this->m_FloorData[loc274].m_iTeamPlayerIndex].PartyNumber = loc144;

  01604	8b 85 b4 fb ff
	ff		 mov	 eax, DWORD PTR _loc274$234031[ebp]
  0160a	6b c0 30	 imul	 eax, 48			; 00000030H
  0160d	8b 4d f8	 mov	 ecx, DWORD PTR _this$[ebp]
  01610	8b 54 01 20	 mov	 edx, DWORD PTR [ecx+eax+32]
  01614	69 d2 38 2b 00
	00		 imul	 edx, 11064		; 00002b38H
  0161a	a1 00 00 00 00	 mov	 eax, DWORD PTR ?gObj@@3PAUOBJECTSTRUCT@@A ; gObj
  0161f	8b 8d bc fd ff
	ff		 mov	 ecx, DWORD PTR _loc144$234025[ebp]
  01625	89 8c 10 2c 04
	00 00		 mov	 DWORD PTR [eax+edx+1068], ecx

; 462  : 							}
; 463  : 							else

  0162c	eb 2e		 jmp	 SHORT $LN7@ProcState_
$LN8@ProcState_:

; 464  : 							{
; 465  : 								LogAddTD("[Illusion Temple] (%d) Party Add Error, (Team: %d)", this->m_btFloorIndex+1, this->m_FloorData[loc274].m_btTeamJoinSide);

  0162e	8b 85 b4 fb ff
	ff		 mov	 eax, DWORD PTR _loc274$234031[ebp]
  01634	6b c0 30	 imul	 eax, 48			; 00000030H
  01637	8b 4d f8	 mov	 ecx, DWORD PTR _this$[ebp]
  0163a	0f b6 54 01 24	 movzx	 edx, BYTE PTR [ecx+eax+36]
  0163f	52		 push	 edx
  01640	8b 45 f8	 mov	 eax, DWORD PTR _this$[ebp]
  01643	0f b6 88 2c 02
	00 00		 movzx	 ecx, BYTE PTR [eax+556]
  0164a	83 c1 01	 add	 ecx, 1
  0164d	51		 push	 ecx
  0164e	68 00 00 00 00	 push	 OFFSET ??_C@_0DD@OHOGJPCE@?$FLIllusion?5Temple?$FN?5?$CI?$CFd?$CJ?5Party?5Add@
  01653	ff 15 00 00 00
	00		 call	 DWORD PTR ?LogAddTD@@3P6AXPADZZA ; LogAddTD
  01659	83 c4 0c	 add	 esp, 12			; 0000000cH
$LN7@ProcState_:

; 466  : 							}
; 467  : 						}
; 468  : 
; 469  : 						gObjMoveGate(this->m_FloorData[loc274].m_iTeamPlayerIndex, this->m_btFloorIndex+148); //Temple

  0165c	8b 45 f8	 mov	 eax, DWORD PTR _this$[ebp]
  0165f	0f b6 88 2c 02
	00 00		 movzx	 ecx, BYTE PTR [eax+556]
  01666	81 c1 94 00 00
	00		 add	 ecx, 148		; 00000094H
  0166c	51		 push	 ecx
  0166d	8b 95 b4 fb ff
	ff		 mov	 edx, DWORD PTR _loc274$234031[ebp]
  01673	6b d2 30	 imul	 edx, 48			; 00000030H
  01676	8b 45 f8	 mov	 eax, DWORD PTR _this$[ebp]
  01679	8b 4c 10 20	 mov	 ecx, DWORD PTR [eax+edx+32]
  0167d	51		 push	 ecx
  0167e	e8 00 00 00 00	 call	 ?gObjMoveGate@@YAHHH@Z	; gObjMoveGate
  01683	83 c4 08	 add	 esp, 8

; 470  : 						gObj[this->m_FloorData[loc274].m_iTeamPlayerIndex].m_Change = 404; //"MU Allies"

  01686	8b 85 b4 fb ff
	ff		 mov	 eax, DWORD PTR _loc274$234031[ebp]
  0168c	6b c0 30	 imul	 eax, 48			; 00000030H
  0168f	8b 4d f8	 mov	 ecx, DWORD PTR _this$[ebp]
  01692	8b 54 01 20	 mov	 edx, DWORD PTR [ecx+eax+32]
  01696	69 d2 38 2b 00
	00		 imul	 edx, 11064		; 00002b38H
  0169c	a1 00 00 00 00	 mov	 eax, DWORD PTR ?gObj@@3PAUOBJECTSTRUCT@@A ; gObj
  016a1	c7 84 10 54 04
	00 00 94 01 00
	00		 mov	 DWORD PTR [eax+edx+1108], 404 ; 00000194H

; 471  : 						gObjViewportListProtocolCreate(&gObj[this->m_FloorData[loc274].m_iTeamPlayerIndex]);

  016ac	8b 85 b4 fb ff
	ff		 mov	 eax, DWORD PTR _loc274$234031[ebp]
  016b2	6b c0 30	 imul	 eax, 48			; 00000030H
  016b5	8b 4d f8	 mov	 ecx, DWORD PTR _this$[ebp]
  016b8	8b 54 01 20	 mov	 edx, DWORD PTR [ecx+eax+32]
  016bc	69 d2 38 2b 00
	00		 imul	 edx, 11064		; 00002b38H
  016c2	03 15 00 00 00
	00		 add	 edx, DWORD PTR ?gObj@@3PAUOBJECTSTRUCT@@A ; gObj
  016c8	52		 push	 edx
  016c9	e8 00 00 00 00	 call	 ?gObjViewportListProtocolCreate@@YAXPAUOBJECTSTRUCT@@@Z ; gObjViewportListProtocolCreate
  016ce	83 c4 04	 add	 esp, 4

; 472  : 
; 473  : 						this->m_iYellowTeamUserCount++;

  016d1	8b 45 f8	 mov	 eax, DWORD PTR _this$[ebp]
  016d4	8b 88 c8 03 00
	00		 mov	 ecx, DWORD PTR [eax+968]
  016da	83 c1 01	 add	 ecx, 1
  016dd	8b 55 f8	 mov	 edx, DWORD PTR _this$[ebp]
  016e0	89 8a c8 03 00
	00		 mov	 DWORD PTR [edx+968], ecx

; 474  : 						loc143++;

  016e6	8b 85 c0 fd ff
	ff		 mov	 eax, DWORD PTR _loc143$234024[ebp]
  016ec	83 c0 01	 add	 eax, 1
  016ef	89 85 c0 fd ff
	ff		 mov	 DWORD PTR _loc143$234024[ebp], eax

; 475  : 
; 476  : 						int loc277 = strlen(szTemp0);

  016f5	8d 85 b8 fc ff
	ff		 lea	 eax, DWORD PTR _szTemp0$234027[ebp]
  016fb	50		 push	 eax
  016fc	e8 00 00 00 00	 call	 _strlen
  01701	83 c4 04	 add	 esp, 4
  01704	89 85 a8 fb ff
	ff		 mov	 DWORD PTR _loc277$234066[ebp], eax

; 477  : 
; 478  : 						sprintf(&szTemp0[loc277],"(%s),(%s) ",gObj[this->m_FloorData[loc274].m_iTeamPlayerIndex].AccountID,gObj[this->m_FloorData[loc274].m_iTeamPlayerIndex].Name);

  0170a	8b 85 b4 fb ff
	ff		 mov	 eax, DWORD PTR _loc274$234031[ebp]
  01710	6b c0 30	 imul	 eax, 48			; 00000030H
  01713	8b 4d f8	 mov	 ecx, DWORD PTR _this$[ebp]
  01716	8b 54 01 20	 mov	 edx, DWORD PTR [ecx+eax+32]
  0171a	69 d2 38 2b 00
	00		 imul	 edx, 11064		; 00002b38H
  01720	a1 00 00 00 00	 mov	 eax, DWORD PTR ?gObj@@3PAUOBJECTSTRUCT@@A ; gObj
  01725	8d 4c 10 77	 lea	 ecx, DWORD PTR [eax+edx+119]
  01729	51		 push	 ecx
  0172a	8b 95 b4 fb ff
	ff		 mov	 edx, DWORD PTR _loc274$234031[ebp]
  01730	6b d2 30	 imul	 edx, 48			; 00000030H
  01733	8b 45 f8	 mov	 eax, DWORD PTR _this$[ebp]
  01736	8b 4c 10 20	 mov	 ecx, DWORD PTR [eax+edx+32]
  0173a	69 c9 38 2b 00
	00		 imul	 ecx, 11064		; 00002b38H
  01740	8b 15 00 00 00
	00		 mov	 edx, DWORD PTR ?gObj@@3PAUOBJECTSTRUCT@@A ; gObj
  01746	8d 44 0a 6c	 lea	 eax, DWORD PTR [edx+ecx+108]
  0174a	50		 push	 eax
  0174b	68 00 00 00 00	 push	 OFFSET ??_C@_0L@BPBFEMAA@?$CI?$CFs?$CJ?0?$CI?$CFs?$CJ?5?$AA@
  01750	8b 8d a8 fb ff
	ff		 mov	 ecx, DWORD PTR _loc277$234066[ebp]
  01756	8d 94 0d b8 fc
	ff ff		 lea	 edx, DWORD PTR _szTemp0$234027[ebp+ecx]
  0175d	52		 push	 edx
  0175e	e8 00 00 00 00	 call	 _sprintf
  01763	83 c4 10	 add	 esp, 16			; 00000010H

; 479  : 					}
; 480  : 					else

  01766	e9 46 03 00 00	 jmp	 $LN6@ProcState_
$LN12@ProcState_:

; 481  : 					{
; 482  : 						this->m_FloorData[loc274].m_btTeamJoinSide = 1;

  0176b	8b 85 b4 fb ff
	ff		 mov	 eax, DWORD PTR _loc274$234031[ebp]
  01771	6b c0 30	 imul	 eax, 48			; 00000030H
  01774	8b 4d f8	 mov	 ecx, DWORD PTR _this$[ebp]
  01777	c6 44 01 24 01	 mov	 BYTE PTR [ecx+eax+36], 1

; 483  : 
; 484  : 						this->m_btBlueTeamClassCount[gObj[this->m_FloorData[loc274].m_iTeamPlayerIndex].Class]++;

  0177c	8b 85 b4 fb ff
	ff		 mov	 eax, DWORD PTR _loc274$234031[ebp]
  01782	6b c0 30	 imul	 eax, 48			; 00000030H
  01785	8b 4d f8	 mov	 ecx, DWORD PTR _this$[ebp]
  01788	8b 54 01 20	 mov	 edx, DWORD PTR [ecx+eax+32]
  0178c	69 d2 38 2b 00
	00		 imul	 edx, 11064		; 00002b38H
  01792	a1 00 00 00 00	 mov	 eax, DWORD PTR ?gObj@@3PAUOBJECTSTRUCT@@A ; gObj
  01797	0f b7 8c 10 b8
	00 00 00	 movzx	 ecx, WORD PTR [eax+edx+184]
  0179f	8b 55 f8	 mov	 edx, DWORD PTR _this$[ebp]
  017a2	8a 84 0a da 03
	00 00		 mov	 al, BYTE PTR [edx+ecx+986]
  017a9	04 01		 add	 al, 1
  017ab	8b 8d b4 fb ff
	ff		 mov	 ecx, DWORD PTR _loc274$234031[ebp]
  017b1	6b c9 30	 imul	 ecx, 48			; 00000030H
  017b4	8b 55 f8	 mov	 edx, DWORD PTR _this$[ebp]
  017b7	8b 4c 0a 20	 mov	 ecx, DWORD PTR [edx+ecx+32]
  017bb	69 c9 38 2b 00
	00		 imul	 ecx, 11064		; 00002b38H
  017c1	8b 15 00 00 00
	00		 mov	 edx, DWORD PTR ?gObj@@3PAUOBJECTSTRUCT@@A ; gObj
  017c7	0f b7 8c 0a b8
	00 00 00	 movzx	 ecx, WORD PTR [edx+ecx+184]
  017cf	8b 55 f8	 mov	 edx, DWORD PTR _this$[ebp]
  017d2	88 84 0a da 03
	00 00		 mov	 BYTE PTR [edx+ecx+986], al

; 485  : 
; 486  : 						if(loc145 == -1 && gObj[this->m_FloorData[loc274].m_iTeamPlayerIndex].PartyNumber < 0)

  017d9	83 bd b8 fd ff
	ff ff		 cmp	 DWORD PTR _loc145$234026[ebp], -1
  017e0	0f 85 f3 00 00
	00		 jne	 $LN5@ProcState_
  017e6	8b 85 b4 fb ff
	ff		 mov	 eax, DWORD PTR _loc274$234031[ebp]
  017ec	6b c0 30	 imul	 eax, 48			; 00000030H
  017ef	8b 4d f8	 mov	 ecx, DWORD PTR _this$[ebp]
  017f2	8b 54 01 20	 mov	 edx, DWORD PTR [ecx+eax+32]
  017f6	69 d2 38 2b 00
	00		 imul	 edx, 11064		; 00002b38H
  017fc	a1 00 00 00 00	 mov	 eax, DWORD PTR ?gObj@@3PAUOBJECTSTRUCT@@A ; gObj
  01801	83 bc 10 2c 04
	00 00 00	 cmp	 DWORD PTR [eax+edx+1068], 0
  01809	0f 8d ca 00 00
	00		 jge	 $LN5@ProcState_

; 487  : 						{
; 488  : 							loc145 = gParty.Create(this->m_FloorData[loc274].m_iTeamPlayerIndex, gObj[this->m_FloorData[loc274].m_iTeamPlayerIndex].DBNumber, gObj[this->m_FloorData[loc274].m_iTeamPlayerIndex].Level);

  0180f	8b 85 b4 fb ff
	ff		 mov	 eax, DWORD PTR _loc274$234031[ebp]
  01815	6b c0 30	 imul	 eax, 48			; 00000030H
  01818	8b 4d f8	 mov	 ecx, DWORD PTR _this$[ebp]
  0181b	8b 54 01 20	 mov	 edx, DWORD PTR [ecx+eax+32]
  0181f	69 d2 38 2b 00
	00		 imul	 edx, 11064		; 00002b38H
  01825	a1 00 00 00 00	 mov	 eax, DWORD PTR ?gObj@@3PAUOBJECTSTRUCT@@A ; gObj
  0182a	0f bf 8c 10 be
	00 00 00	 movsx	 ecx, WORD PTR [eax+edx+190]
  01832	51		 push	 ecx
  01833	8b 95 b4 fb ff
	ff		 mov	 edx, DWORD PTR _loc274$234031[ebp]
  01839	6b d2 30	 imul	 edx, 48			; 00000030H
  0183c	8b 45 f8	 mov	 eax, DWORD PTR _this$[ebp]
  0183f	8b 4c 10 20	 mov	 ecx, DWORD PTR [eax+edx+32]
  01843	69 c9 38 2b 00
	00		 imul	 ecx, 11064		; 00002b38H
  01849	8b 15 00 00 00
	00		 mov	 edx, DWORD PTR ?gObj@@3PAUOBJECTSTRUCT@@A ; gObj
  0184f	8b 44 0a 2c	 mov	 eax, DWORD PTR [edx+ecx+44]
  01853	50		 push	 eax
  01854	8b 8d b4 fb ff
	ff		 mov	 ecx, DWORD PTR _loc274$234031[ebp]
  0185a	6b c9 30	 imul	 ecx, 48			; 00000030H
  0185d	8b 55 f8	 mov	 edx, DWORD PTR _this$[ebp]
  01860	8b 44 0a 20	 mov	 eax, DWORD PTR [edx+ecx+32]
  01864	50		 push	 eax
  01865	b9 00 00 00 00	 mov	 ecx, OFFSET ?gParty@@3VPartyClass@@A ; gParty
  0186a	e8 00 00 00 00	 call	 ?Create@PartyClass@@QAEHHHH@Z ; PartyClass::Create
  0186f	89 85 b8 fd ff
	ff		 mov	 DWORD PTR _loc145$234026[ebp], eax

; 489  : 
; 490  : 							if(loc145 == -1)

  01875	83 bd b8 fd ff
	ff ff		 cmp	 DWORD PTR _loc145$234026[ebp], -1
  0187c	75 2e		 jne	 SHORT $LN4@ProcState_

; 491  : 							{
; 492  : 								LogAddTD("[Illusion Temple] (%d) Party Create Error, (Team: %d)", this->m_btFloorIndex+1, this->m_FloorData[loc274].m_btTeamJoinSide);	

  0187e	8b 85 b4 fb ff
	ff		 mov	 eax, DWORD PTR _loc274$234031[ebp]
  01884	6b c0 30	 imul	 eax, 48			; 00000030H
  01887	8b 4d f8	 mov	 ecx, DWORD PTR _this$[ebp]
  0188a	0f b6 54 01 24	 movzx	 edx, BYTE PTR [ecx+eax+36]
  0188f	52		 push	 edx
  01890	8b 45 f8	 mov	 eax, DWORD PTR _this$[ebp]
  01893	0f b6 88 2c 02
	00 00		 movzx	 ecx, BYTE PTR [eax+556]
  0189a	83 c1 01	 add	 ecx, 1
  0189d	51		 push	 ecx
  0189e	68 00 00 00 00	 push	 OFFSET ??_C@_0DG@NEAACFEP@?$FLIllusion?5Temple?$FN?5?$CI?$CFd?$CJ?5Party?5Cre@
  018a3	ff 15 00 00 00
	00		 call	 DWORD PTR ?LogAddTD@@3P6AXPADZZA ; LogAddTD
  018a9	83 c4 0c	 add	 esp, 12			; 0000000cH
$LN4@ProcState_:

; 493  : 							}
; 494  : 
; 495  : 							gObj[this->m_FloorData[loc274].m_iTeamPlayerIndex].PartyNumber = loc145;

  018ac	8b 85 b4 fb ff
	ff		 mov	 eax, DWORD PTR _loc274$234031[ebp]
  018b2	6b c0 30	 imul	 eax, 48			; 00000030H
  018b5	8b 4d f8	 mov	 ecx, DWORD PTR _this$[ebp]
  018b8	8b 54 01 20	 mov	 edx, DWORD PTR [ecx+eax+32]
  018bc	69 d2 38 2b 00
	00		 imul	 edx, 11064		; 00002b38H
  018c2	a1 00 00 00 00	 mov	 eax, DWORD PTR ?gObj@@3PAUOBJECTSTRUCT@@A ; gObj
  018c7	8b 8d b8 fd ff
	ff		 mov	 ecx, DWORD PTR _loc145$234026[ebp]
  018cd	89 8c 10 2c 04
	00 00		 mov	 DWORD PTR [eax+edx+1068], ecx

; 496  : 						}
; 497  : 						else

  018d4	e9 ce 00 00 00	 jmp	 $LN1@ProcState_
$LN5@ProcState_:

; 498  : 						{
; 499  : 							int loc278 = gParty.Add(loc145, this->m_FloorData[loc274].m_iTeamPlayerIndex, gObj[this->m_FloorData[loc274].m_iTeamPlayerIndex].DBNumber, gObj[this->m_FloorData[loc274].m_iTeamPlayerIndex].Level);

  018d9	8b 85 b4 fb ff
	ff		 mov	 eax, DWORD PTR _loc274$234031[ebp]
  018df	6b c0 30	 imul	 eax, 48			; 00000030H
  018e2	8b 4d f8	 mov	 ecx, DWORD PTR _this$[ebp]
  018e5	8b 54 01 20	 mov	 edx, DWORD PTR [ecx+eax+32]
  018e9	69 d2 38 2b 00
	00		 imul	 edx, 11064		; 00002b38H
  018ef	a1 00 00 00 00	 mov	 eax, DWORD PTR ?gObj@@3PAUOBJECTSTRUCT@@A ; gObj
  018f4	0f bf 8c 10 be
	00 00 00	 movsx	 ecx, WORD PTR [eax+edx+190]
  018fc	51		 push	 ecx
  018fd	8b 95 b4 fb ff
	ff		 mov	 edx, DWORD PTR _loc274$234031[ebp]
  01903	6b d2 30	 imul	 edx, 48			; 00000030H
  01906	8b 45 f8	 mov	 eax, DWORD PTR _this$[ebp]
  01909	8b 4c 10 20	 mov	 ecx, DWORD PTR [eax+edx+32]
  0190d	69 c9 38 2b 00
	00		 imul	 ecx, 11064		; 00002b38H
  01913	8b 15 00 00 00
	00		 mov	 edx, DWORD PTR ?gObj@@3PAUOBJECTSTRUCT@@A ; gObj
  01919	8b 44 0a 2c	 mov	 eax, DWORD PTR [edx+ecx+44]
  0191d	50		 push	 eax
  0191e	8b 8d b4 fb ff
	ff		 mov	 ecx, DWORD PTR _loc274$234031[ebp]
  01924	6b c9 30	 imul	 ecx, 48			; 00000030H
  01927	8b 55 f8	 mov	 edx, DWORD PTR _this$[ebp]
  0192a	8b 44 0a 20	 mov	 eax, DWORD PTR [edx+ecx+32]
  0192e	50		 push	 eax
  0192f	8b 8d b8 fd ff
	ff		 mov	 ecx, DWORD PTR _loc145$234026[ebp]
  01935	51		 push	 ecx
  01936	b9 00 00 00 00	 mov	 ecx, OFFSET ?gParty@@3VPartyClass@@A ; gParty
  0193b	e8 00 00 00 00	 call	 ?Add@PartyClass@@QAEHHHHH@Z ; PartyClass::Add
  01940	89 85 a4 fb ff
	ff		 mov	 DWORD PTR _loc278$234072[ebp], eax

; 500  : 
; 501  : 							if(loc278 >= 0)

  01946	83 bd a4 fb ff
	ff 00		 cmp	 DWORD PTR _loc278$234072[ebp], 0
  0194d	7c 2a		 jl	 SHORT $LN2@ProcState_

; 502  : 							{
; 503  : 								gObj[this->m_FloorData[loc274].m_iTeamPlayerIndex].PartyNumber = loc145;

  0194f	8b 85 b4 fb ff
	ff		 mov	 eax, DWORD PTR _loc274$234031[ebp]
  01955	6b c0 30	 imul	 eax, 48			; 00000030H
  01958	8b 4d f8	 mov	 ecx, DWORD PTR _this$[ebp]
  0195b	8b 54 01 20	 mov	 edx, DWORD PTR [ecx+eax+32]
  0195f	69 d2 38 2b 00
	00		 imul	 edx, 11064		; 00002b38H
  01965	a1 00 00 00 00	 mov	 eax, DWORD PTR ?gObj@@3PAUOBJECTSTRUCT@@A ; gObj
  0196a	8b 8d b8 fd ff
	ff		 mov	 ecx, DWORD PTR _loc145$234026[ebp]
  01970	89 8c 10 2c 04
	00 00		 mov	 DWORD PTR [eax+edx+1068], ecx

; 504  : 							}
; 505  : 							else

  01977	eb 2e		 jmp	 SHORT $LN1@ProcState_
$LN2@ProcState_:

; 506  : 							{
; 507  : 								LogAddTD("[Illusion Temple] (%d) Party Add Error, (Team: %d)", this->m_btFloorIndex+1, this->m_FloorData[loc274].m_btTeamJoinSide);

  01979	8b 85 b4 fb ff
	ff		 mov	 eax, DWORD PTR _loc274$234031[ebp]
  0197f	6b c0 30	 imul	 eax, 48			; 00000030H
  01982	8b 4d f8	 mov	 ecx, DWORD PTR _this$[ebp]
  01985	0f b6 54 01 24	 movzx	 edx, BYTE PTR [ecx+eax+36]
  0198a	52		 push	 edx
  0198b	8b 45 f8	 mov	 eax, DWORD PTR _this$[ebp]
  0198e	0f b6 88 2c 02
	00 00		 movzx	 ecx, BYTE PTR [eax+556]
  01995	83 c1 01	 add	 ecx, 1
  01998	51		 push	 ecx
  01999	68 00 00 00 00	 push	 OFFSET ??_C@_0DD@OHOGJPCE@?$FLIllusion?5Temple?$FN?5?$CI?$CFd?$CJ?5Party?5Add@
  0199e	ff 15 00 00 00
	00		 call	 DWORD PTR ?LogAddTD@@3P6AXPADZZA ; LogAddTD
  019a4	83 c4 0c	 add	 esp, 12			; 0000000cH
$LN1@ProcState_:

; 508  : 							}
; 509  : 						}
; 510  : 
; 511  : 						gObjMoveGate(this->m_FloorData[loc274].m_iTeamPlayerIndex, this->m_btFloorIndex+154); //Temple

  019a7	8b 45 f8	 mov	 eax, DWORD PTR _this$[ebp]
  019aa	0f b6 88 2c 02
	00 00		 movzx	 ecx, BYTE PTR [eax+556]
  019b1	81 c1 9a 00 00
	00		 add	 ecx, 154		; 0000009aH
  019b7	51		 push	 ecx
  019b8	8b 95 b4 fb ff
	ff		 mov	 edx, DWORD PTR _loc274$234031[ebp]
  019be	6b d2 30	 imul	 edx, 48			; 00000030H
  019c1	8b 45 f8	 mov	 eax, DWORD PTR _this$[ebp]
  019c4	8b 4c 10 20	 mov	 ecx, DWORD PTR [eax+edx+32]
  019c8	51		 push	 ecx
  019c9	e8 00 00 00 00	 call	 ?gObjMoveGate@@YAHHH@Z	; gObjMoveGate
  019ce	83 c4 08	 add	 esp, 8

; 512  : 						gObj[this->m_FloorData[loc274].m_iTeamPlayerIndex].m_Change = 405; //"Illusion Sorcerer"

  019d1	8b 85 b4 fb ff
	ff		 mov	 eax, DWORD PTR _loc274$234031[ebp]
  019d7	6b c0 30	 imul	 eax, 48			; 00000030H
  019da	8b 4d f8	 mov	 ecx, DWORD PTR _this$[ebp]
  019dd	8b 54 01 20	 mov	 edx, DWORD PTR [ecx+eax+32]
  019e1	69 d2 38 2b 00
	00		 imul	 edx, 11064		; 00002b38H
  019e7	a1 00 00 00 00	 mov	 eax, DWORD PTR ?gObj@@3PAUOBJECTSTRUCT@@A ; gObj
  019ec	c7 84 10 54 04
	00 00 95 01 00
	00		 mov	 DWORD PTR [eax+edx+1108], 405 ; 00000195H

; 513  : 						gObjViewportListProtocolCreate(&gObj[this->m_FloorData[loc274].m_iTeamPlayerIndex]);

  019f7	8b 85 b4 fb ff
	ff		 mov	 eax, DWORD PTR _loc274$234031[ebp]
  019fd	6b c0 30	 imul	 eax, 48			; 00000030H
  01a00	8b 4d f8	 mov	 ecx, DWORD PTR _this$[ebp]
  01a03	8b 54 01 20	 mov	 edx, DWORD PTR [ecx+eax+32]
  01a07	69 d2 38 2b 00
	00		 imul	 edx, 11064		; 00002b38H
  01a0d	03 15 00 00 00
	00		 add	 edx, DWORD PTR ?gObj@@3PAUOBJECTSTRUCT@@A ; gObj
  01a13	52		 push	 edx
  01a14	e8 00 00 00 00	 call	 ?gObjViewportListProtocolCreate@@YAXPAUOBJECTSTRUCT@@@Z ; gObjViewportListProtocolCreate
  01a19	83 c4 04	 add	 esp, 4

; 514  : 
; 515  : 						this->m_iBlueTeamUserCount++;

  01a1c	8b 45 f8	 mov	 eax, DWORD PTR _this$[ebp]
  01a1f	8b 88 cc 03 00
	00		 mov	 ecx, DWORD PTR [eax+972]
  01a25	83 c1 01	 add	 ecx, 1
  01a28	8b 55 f8	 mov	 edx, DWORD PTR _this$[ebp]
  01a2b	89 8a cc 03 00
	00		 mov	 DWORD PTR [edx+972], ecx

; 516  : 						loc143++;

  01a31	8b 85 c0 fd ff
	ff		 mov	 eax, DWORD PTR _loc143$234024[ebp]
  01a37	83 c0 01	 add	 eax, 1
  01a3a	89 85 c0 fd ff
	ff		 mov	 DWORD PTR _loc143$234024[ebp], eax

; 517  : 
; 518  : 						int loc279 = strlen(szTemp1);

  01a40	8d 85 b8 fb ff
	ff		 lea	 eax, DWORD PTR _szTemp1$234029[ebp]
  01a46	50		 push	 eax
  01a47	e8 00 00 00 00	 call	 _strlen
  01a4c	83 c4 04	 add	 esp, 4
  01a4f	89 85 a0 fb ff
	ff		 mov	 DWORD PTR _loc279$234075[ebp], eax

; 519  : 
; 520  : 						sprintf(&szTemp1[loc279],"(%s),(%s) ",gObj[this->m_FloorData[loc274].m_iTeamPlayerIndex].AccountID,gObj[this->m_FloorData[loc274].m_iTeamPlayerIndex].Name);

  01a55	8b 85 b4 fb ff
	ff		 mov	 eax, DWORD PTR _loc274$234031[ebp]
  01a5b	6b c0 30	 imul	 eax, 48			; 00000030H
  01a5e	8b 4d f8	 mov	 ecx, DWORD PTR _this$[ebp]
  01a61	8b 54 01 20	 mov	 edx, DWORD PTR [ecx+eax+32]
  01a65	69 d2 38 2b 00
	00		 imul	 edx, 11064		; 00002b38H
  01a6b	a1 00 00 00 00	 mov	 eax, DWORD PTR ?gObj@@3PAUOBJECTSTRUCT@@A ; gObj
  01a70	8d 4c 10 77	 lea	 ecx, DWORD PTR [eax+edx+119]
  01a74	51		 push	 ecx
  01a75	8b 95 b4 fb ff
	ff		 mov	 edx, DWORD PTR _loc274$234031[ebp]
  01a7b	6b d2 30	 imul	 edx, 48			; 00000030H
  01a7e	8b 45 f8	 mov	 eax, DWORD PTR _this$[ebp]
  01a81	8b 4c 10 20	 mov	 ecx, DWORD PTR [eax+edx+32]
  01a85	69 c9 38 2b 00
	00		 imul	 ecx, 11064		; 00002b38H
  01a8b	8b 15 00 00 00
	00		 mov	 edx, DWORD PTR ?gObj@@3PAUOBJECTSTRUCT@@A ; gObj
  01a91	8d 44 0a 6c	 lea	 eax, DWORD PTR [edx+ecx+108]
  01a95	50		 push	 eax
  01a96	68 00 00 00 00	 push	 OFFSET ??_C@_0L@BPBFEMAA@?$CI?$CFs?$CJ?0?$CI?$CFs?$CJ?5?$AA@
  01a9b	8b 8d a0 fb ff
	ff		 mov	 ecx, DWORD PTR _loc279$234075[ebp]
  01aa1	8d 94 0d b8 fb
	ff ff		 lea	 edx, DWORD PTR _szTemp1$234029[ebp+ecx]
  01aa8	52		 push	 edx
  01aa9	e8 00 00 00 00	 call	 _sprintf
  01aae	83 c4 10	 add	 esp, 16			; 00000010H
$LN6@ProcState_:

; 521  : 					}
; 522  : 				}
; 523  : 			}

  01ab1	e9 47 f5 ff ff	 jmp	 $LN35@ProcState_
$LN34@ProcState_:

; 524  : 
; 525  : 			CGPartyListAll(loc144);

  01ab6	8b 85 bc fd ff
	ff		 mov	 eax, DWORD PTR _loc144$234025[ebp]
  01abc	50		 push	 eax
  01abd	e8 00 00 00 00	 call	 ?CGPartyListAll@@YAXH@Z	; CGPartyListAll
  01ac2	83 c4 04	 add	 esp, 4

; 526  : 			CGPartyListAll(loc145);

  01ac5	8b 85 b8 fd ff
	ff		 mov	 eax, DWORD PTR _loc145$234026[ebp]
  01acb	50		 push	 eax
  01acc	e8 00 00 00 00	 call	 ?CGPartyListAll@@YAXH@Z	; CGPartyListAll
  01ad1	83 c4 04	 add	 esp, 4

; 527  : 
; 528  : 			this->SetState(1);

  01ad4	6a 01		 push	 1
  01ad6	8b 4d f8	 mov	 ecx, DWORD PTR _this$[ebp]
  01ad9	e8 00 00 00 00	 call	 ?SetState@CIllusionTempleProcess@@QAEXE@Z ; CIllusionTempleProcess::SetState

; 529  : 
; 530  : 			LogAddTD("[Illusion Temple] (%d) Allied Team (%d),(%d), (%d), (%d), (%d)", this->m_btFloorIndex+1, this->m_btYellowTeamClassCount[0], this->m_btYellowTeamClassCount[1], this->m_btYellowTeamClassCount[2], this->m_btYellowTeamClassCount[3], this->m_btYellowTeamClassCount[4]);

  01ade	8b 45 f8	 mov	 eax, DWORD PTR _this$[ebp]
  01ae1	0f b6 88 d7 03
	00 00		 movzx	 ecx, BYTE PTR [eax+983]
  01ae8	51		 push	 ecx
  01ae9	8b 55 f8	 mov	 edx, DWORD PTR _this$[ebp]
  01aec	0f b6 82 d6 03
	00 00		 movzx	 eax, BYTE PTR [edx+982]
  01af3	50		 push	 eax
  01af4	8b 4d f8	 mov	 ecx, DWORD PTR _this$[ebp]
  01af7	0f b6 91 d5 03
	00 00		 movzx	 edx, BYTE PTR [ecx+981]
  01afe	52		 push	 edx
  01aff	8b 45 f8	 mov	 eax, DWORD PTR _this$[ebp]
  01b02	0f b6 88 d4 03
	00 00		 movzx	 ecx, BYTE PTR [eax+980]
  01b09	51		 push	 ecx
  01b0a	8b 55 f8	 mov	 edx, DWORD PTR _this$[ebp]
  01b0d	0f b6 82 d3 03
	00 00		 movzx	 eax, BYTE PTR [edx+979]
  01b14	50		 push	 eax
  01b15	8b 4d f8	 mov	 ecx, DWORD PTR _this$[ebp]
  01b18	0f b6 91 2c 02
	00 00		 movzx	 edx, BYTE PTR [ecx+556]
  01b1f	83 c2 01	 add	 edx, 1
  01b22	52		 push	 edx
  01b23	68 00 00 00 00	 push	 OFFSET ??_C@_0FJ@NIONHBBL@?$FLIllusion?5Temple?$FN?5?$CI?$CFd?$CJ?5Allied?5Te@
  01b28	ff 15 00 00 00
	00		 call	 DWORD PTR ?LogAddTD@@3P6AXPADZZA ; LogAddTD
  01b2e	83 c4 1c	 add	 esp, 28			; 0000001cH

; 531  : 
; 532  : 			LogAddTD(szTemp0);

  01b31	8d 85 b8 fc ff
	ff		 lea	 eax, DWORD PTR _szTemp0$234027[ebp]
  01b37	50		 push	 eax
  01b38	ff 15 00 00 00
	00		 call	 DWORD PTR ?LogAddTD@@3P6AXPADZZA ; LogAddTD
  01b3e	83 c4 04	 add	 esp, 4

; 533  : 
; 534  : 			LogAddTD("[Illusion Temple] (%d) Illusion Team (%d),(%d), (%d), (%d), (%d)", this->m_btFloorIndex+1, this->m_btBlueTeamClassCount[0], this->m_btBlueTeamClassCount[1], this->m_btBlueTeamClassCount[2], this->m_btBlueTeamClassCount[3], this->m_btBlueTeamClassCount[4]);

  01b41	8b 45 f8	 mov	 eax, DWORD PTR _this$[ebp]
  01b44	0f b6 88 de 03
	00 00		 movzx	 ecx, BYTE PTR [eax+990]
  01b4b	51		 push	 ecx
  01b4c	8b 55 f8	 mov	 edx, DWORD PTR _this$[ebp]
  01b4f	0f b6 82 dd 03
	00 00		 movzx	 eax, BYTE PTR [edx+989]
  01b56	50		 push	 eax
  01b57	8b 4d f8	 mov	 ecx, DWORD PTR _this$[ebp]
  01b5a	0f b6 91 dc 03
	00 00		 movzx	 edx, BYTE PTR [ecx+988]
  01b61	52		 push	 edx
  01b62	8b 45 f8	 mov	 eax, DWORD PTR _this$[ebp]
  01b65	0f b6 88 db 03
	00 00		 movzx	 ecx, BYTE PTR [eax+987]
  01b6c	51		 push	 ecx
  01b6d	8b 55 f8	 mov	 edx, DWORD PTR _this$[ebp]
  01b70	0f b6 82 da 03
	00 00		 movzx	 eax, BYTE PTR [edx+986]
  01b77	50		 push	 eax
  01b78	8b 4d f8	 mov	 ecx, DWORD PTR _this$[ebp]
  01b7b	0f b6 91 2c 02
	00 00		 movzx	 edx, BYTE PTR [ecx+556]
  01b82	83 c2 01	 add	 edx, 1
  01b85	52		 push	 edx
  01b86	68 00 00 00 00	 push	 OFFSET ??_C@_0FL@NAKEGMLC@?$FLIllusion?5Temple?$FN?5?$CI?$CFd?$CJ?5Illusion?5@
  01b8b	ff 15 00 00 00
	00		 call	 DWORD PTR ?LogAddTD@@3P6AXPADZZA ; LogAddTD
  01b91	83 c4 1c	 add	 esp, 28			; 0000001cH

; 535  : 
; 536  : 			LogAddTD(szTemp1);

  01b94	8d 85 b8 fb ff
	ff		 lea	 eax, DWORD PTR _szTemp1$234029[ebp]
  01b9a	50		 push	 eax
  01b9b	ff 15 00 00 00
	00		 call	 DWORD PTR ?LogAddTD@@3P6AXPADZZA ; LogAddTD
  01ba1	83 c4 04	 add	 esp, 4
$LN48@ProcState_:
$LN73@ProcState_:

; 537  : 		}
; 538  : 	}
; 539  : }

  01ba4	5f		 pop	 edi
  01ba5	5e		 pop	 esi
  01ba6	5b		 pop	 ebx
  01ba7	8b 4d fc	 mov	 ecx, DWORD PTR __$ArrayPad$[ebp]
  01baa	33 cd		 xor	 ecx, ebp
  01bac	e8 00 00 00 00	 call	 @__security_check_cookie@4
  01bb1	8b e5		 mov	 esp, ebp
  01bb3	5d		 pop	 ebp
  01bb4	c2 04 00	 ret	 4
?ProcState_Closed@CIllusionTempleProcess@@QAEXH@Z ENDP	; CIllusionTempleProcess::ProcState_Closed
_TEXT	ENDS
PUBLIC	?OperateMiniMapWork@CIllusionTempleProcess@@QAEXE@Z ; CIllusionTempleProcess::OperateMiniMapWork
; Function compile flags: /Odtp /ZI
_TEXT	SEGMENT
_i$234089 = -16						; size = 4
_pMsg$234087 = -12					; size = 4
_loc2$ = -8						; size = 4
_this$ = -4						; size = 4
_iTick$ = 8						; size = 4
?ProcState_Waiting@CIllusionTempleProcess@@QAEXH@Z PROC	; CIllusionTempleProcess::ProcState_Waiting
; _this$ = ecx

; 542  : {

  01bc0	55		 push	 ebp
  01bc1	8b ec		 mov	 ebp, esp
  01bc3	83 ec 50	 sub	 esp, 80			; 00000050H
  01bc6	53		 push	 ebx
  01bc7	56		 push	 esi
  01bc8	57		 push	 edi
  01bc9	89 4d fc	 mov	 DWORD PTR _this$[ebp], ecx

; 543  : 	int loc2 = iTick - this->m_iCloseTickCount;

  01bcc	8b 45 fc	 mov	 eax, DWORD PTR _this$[ebp]
  01bcf	8b 4d 08	 mov	 ecx, DWORD PTR _iTick$[ebp]
  01bd2	2b 88 a0 03 00
	00		 sub	 ecx, DWORD PTR [eax+928]
  01bd8	89 4d f8	 mov	 DWORD PTR _loc2$[ebp], ecx

; 544  : 
; 545  : 	if(loc2 >= 1000)

  01bdb	81 7d f8 e8 03
	00 00		 cmp	 DWORD PTR _loc2$[ebp], 1000 ; 000003e8H
  01be2	0f 8c 18 01 00
	00		 jl	 $LN11@ProcState_@2

; 546  : 	{
; 547  : 		this->m_iEventBattleTimer -= loc2;

  01be8	8b 45 fc	 mov	 eax, DWORD PTR _this$[ebp]
  01beb	8b 88 9c 03 00
	00		 mov	 ecx, DWORD PTR [eax+924]
  01bf1	2b 4d f8	 sub	 ecx, DWORD PTR _loc2$[ebp]
  01bf4	8b 55 fc	 mov	 edx, DWORD PTR _this$[ebp]
  01bf7	89 8a 9c 03 00
	00		 mov	 DWORD PTR [edx+924], ecx

; 548  : 		this->m_iCloseTickCount = iTick;

  01bfd	8b 45 fc	 mov	 eax, DWORD PTR _this$[ebp]
  01c00	8b 4d 08	 mov	 ecx, DWORD PTR _iTick$[ebp]
  01c03	89 88 a0 03 00
	00		 mov	 DWORD PTR [eax+928], ecx

; 549  : 
; 550  : 		if(this->m_iEventBattleTimer <= 30000)

  01c09	8b 45 fc	 mov	 eax, DWORD PTR _this$[ebp]
  01c0c	81 b8 9c 03 00
	00 30 75 00 00	 cmp	 DWORD PTR [eax+924], 30000 ; 00007530H
  01c16	0f 8f e4 00 00
	00		 jg	 $LN11@ProcState_@2

; 551  : 		{
; 552  : 			if(this->m_iEventBattleTimer > 0)

  01c1c	8b 45 fc	 mov	 eax, DWORD PTR _this$[ebp]
  01c1f	83 b8 9c 03 00
	00 00		 cmp	 DWORD PTR [eax+924], 0
  01c26	0f 8e d4 00 00
	00		 jle	 $LN11@ProcState_@2

; 553  : 			{
; 554  : 				if(this->m_bMsgBeforeEnterBattle == FALSE)

  01c2c	8b 45 fc	 mov	 eax, DWORD PTR _this$[ebp]
  01c2f	83 b8 b4 03 00
	00 00		 cmp	 DWORD PTR [eax+948], 0
  01c36	0f 85 c4 00 00
	00		 jne	 $LN11@ProcState_@2

; 555  : 				{
; 556  : 					this->m_bMsgBeforeEnterBattle = TRUE;

  01c3c	8b 45 fc	 mov	 eax, DWORD PTR _this$[ebp]
  01c3f	c7 80 b4 03 00
	00 01 00 00 00	 mov	 DWORD PTR [eax+948], 1

; 557  : 
; 558  : 					PMSG_SET_DEVILSQUARE pMsg;
; 559  : 
; 560  : 					PHeadSetB((LPBYTE)&pMsg, 0x92, sizeof(pMsg));

  01c49	6a 04		 push	 4
  01c4b	68 92 00 00 00	 push	 146			; 00000092H
  01c50	8d 45 f4	 lea	 eax, DWORD PTR _pMsg$234087[ebp]
  01c53	50		 push	 eax
  01c54	e8 00 00 00 00	 call	 ?PHeadSetB@@YAXPAEEH@Z	; PHeadSetB
  01c59	83 c4 0c	 add	 esp, 12			; 0000000cH

; 561  : 					pMsg.Type = 15;

  01c5c	c6 45 f7 0f	 mov	 BYTE PTR _pMsg$234087[ebp+3], 15 ; 0000000fH

; 562  : 
; 563  : 					for( int i = 0; i < MAX_FLOOR_USER; i++ )

  01c60	c7 45 f0 00 00
	00 00		 mov	 DWORD PTR _i$234089[ebp], 0
  01c67	eb 09		 jmp	 SHORT $LN7@ProcState_@2
$LN6@ProcState_@2:
  01c69	8b 45 f0	 mov	 eax, DWORD PTR _i$234089[ebp]
  01c6c	83 c0 01	 add	 eax, 1
  01c6f	89 45 f0	 mov	 DWORD PTR _i$234089[ebp], eax
$LN7@ProcState_@2:
  01c72	83 7d f0 0a	 cmp	 DWORD PTR _i$234089[ebp], 10 ; 0000000aH
  01c76	0f 8d 84 00 00
	00		 jge	 $LN11@ProcState_@2

; 564  : 					{
; 565  : 						if( this->m_FloorData[i].m_iTeamPlayerIndex != OBJ_EMPTY && gObj[this->m_FloorData[i].m_iTeamPlayerIndex].Connected > PLAYER_LOGGED)

  01c7c	8b 45 f0	 mov	 eax, DWORD PTR _i$234089[ebp]
  01c7f	6b c0 30	 imul	 eax, 48			; 00000030H
  01c82	8b 4d fc	 mov	 ecx, DWORD PTR _this$[ebp]
  01c85	83 7c 01 20 ff	 cmp	 DWORD PTR [ecx+eax+32], -1
  01c8a	74 6f		 je	 SHORT $LN4@ProcState_@2
  01c8c	8b 45 f0	 mov	 eax, DWORD PTR _i$234089[ebp]
  01c8f	6b c0 30	 imul	 eax, 48			; 00000030H
  01c92	8b 4d fc	 mov	 ecx, DWORD PTR _this$[ebp]
  01c95	8b 54 01 20	 mov	 edx, DWORD PTR [ecx+eax+32]
  01c99	69 d2 38 2b 00
	00		 imul	 edx, 11064		; 00002b38H
  01c9f	a1 00 00 00 00	 mov	 eax, DWORD PTR ?gObj@@3PAUOBJECTSTRUCT@@A ; gObj
  01ca4	83 7c 10 04 02	 cmp	 DWORD PTR [eax+edx+4], 2
  01ca9	7e 50		 jle	 SHORT $LN4@ProcState_@2

; 566  : 						{
; 567  : 							if( gObj[this->m_FloorData[i].m_iTeamPlayerIndex].MapNumber == (this->m_btFloorIndex + MAP_INDEX_ILLUSIONTEMPLE) )

  01cab	8b 45 f0	 mov	 eax, DWORD PTR _i$234089[ebp]
  01cae	6b c0 30	 imul	 eax, 48			; 00000030H
  01cb1	8b 4d fc	 mov	 ecx, DWORD PTR _this$[ebp]
  01cb4	8b 54 01 20	 mov	 edx, DWORD PTR [ecx+eax+32]
  01cb8	69 d2 38 2b 00
	00		 imul	 edx, 11064		; 00002b38H
  01cbe	a1 00 00 00 00	 mov	 eax, DWORD PTR ?gObj@@3PAUOBJECTSTRUCT@@A ; gObj
  01cc3	0f b6 8c 10 49
	01 00 00	 movzx	 ecx, BYTE PTR [eax+edx+329]
  01ccb	8b 55 fc	 mov	 edx, DWORD PTR _this$[ebp]
  01cce	0f b6 82 2c 02
	00 00		 movzx	 eax, BYTE PTR [edx+556]
  01cd5	83 c0 2d	 add	 eax, 45			; 0000002dH
  01cd8	3b c8		 cmp	 ecx, eax
  01cda	75 1f		 jne	 SHORT $LN4@ProcState_@2

; 568  : 							{
; 569  : 								DataSend(this->m_FloorData[i].m_iTeamPlayerIndex, (LPBYTE)&pMsg, pMsg.h.size);

  01cdc	0f b6 45 f5	 movzx	 eax, BYTE PTR _pMsg$234087[ebp+1]
  01ce0	50		 push	 eax
  01ce1	8d 4d f4	 lea	 ecx, DWORD PTR _pMsg$234087[ebp]
  01ce4	51		 push	 ecx
  01ce5	8b 55 f0	 mov	 edx, DWORD PTR _i$234089[ebp]
  01ce8	6b d2 30	 imul	 edx, 48			; 00000030H
  01ceb	8b 45 fc	 mov	 eax, DWORD PTR _this$[ebp]
  01cee	8b 4c 10 20	 mov	 ecx, DWORD PTR [eax+edx+32]
  01cf2	51		 push	 ecx
  01cf3	e8 00 00 00 00	 call	 ?DataSend@@YAHHPAEK@Z	; DataSend
  01cf8	83 c4 0c	 add	 esp, 12			; 0000000cH
$LN4@ProcState_@2:

; 570  : 							}
; 571  : 						}
; 572  : 					}

  01cfb	e9 69 ff ff ff	 jmp	 $LN6@ProcState_@2
$LN11@ProcState_@2:

; 573  : 				}
; 574  : 			}
; 575  : 		}
; 576  : 	}
; 577  : 
; 578  : 	if(this->m_iEnteredUserCount == 0)

  01d00	8b 45 fc	 mov	 eax, DWORD PTR _this$[ebp]
  01d03	83 b8 28 02 00
	00 00		 cmp	 DWORD PTR [eax+552], 0
  01d0a	75 0c		 jne	 SHORT $LN2@ProcState_@2

; 579  : 	{
; 580  : 		this->SetState(3);

  01d0c	6a 03		 push	 3
  01d0e	8b 4d fc	 mov	 ecx, DWORD PTR _this$[ebp]
  01d11	e8 00 00 00 00	 call	 ?SetState@CIllusionTempleProcess@@QAEXE@Z ; CIllusionTempleProcess::SetState

; 581  : 		return;

  01d16	eb 2a		 jmp	 SHORT $LN12@ProcState_@2
$LN2@ProcState_@2:

; 582  : 	}
; 583  : 
; 584  : 	if(this->m_iEventBattleTimer <= 0)

  01d18	8b 45 fc	 mov	 eax, DWORD PTR _this$[ebp]
  01d1b	83 b8 9c 03 00
	00 00		 cmp	 DWORD PTR [eax+924], 0
  01d22	7f 1e		 jg	 SHORT $LN12@ProcState_@2

; 585  : 	{
; 586  : 		this->SetState(2);

  01d24	6a 02		 push	 2
  01d26	8b 4d fc	 mov	 ecx, DWORD PTR _this$[ebp]
  01d29	e8 00 00 00 00	 call	 ?SetState@CIllusionTempleProcess@@QAEXE@Z ; CIllusionTempleProcess::SetState

; 587  : 		this->OperateMiniMapWork(0);

  01d2e	6a 00		 push	 0
  01d30	8b 4d fc	 mov	 ecx, DWORD PTR _this$[ebp]
  01d33	e8 00 00 00 00	 call	 ?OperateMiniMapWork@CIllusionTempleProcess@@QAEXE@Z ; CIllusionTempleProcess::OperateMiniMapWork

; 588  : 		this->OperateMiniMapWork(1);

  01d38	6a 01		 push	 1
  01d3a	8b 4d fc	 mov	 ecx, DWORD PTR _this$[ebp]
  01d3d	e8 00 00 00 00	 call	 ?OperateMiniMapWork@CIllusionTempleProcess@@QAEXE@Z ; CIllusionTempleProcess::OperateMiniMapWork
$LN12@ProcState_@2:

; 589  : 	}
; 590  : }

  01d42	5f		 pop	 edi
  01d43	5e		 pop	 esi
  01d44	5b		 pop	 ebx
  01d45	8b e5		 mov	 esp, ebp
  01d47	5d		 pop	 ebp
  01d48	c2 04 00	 ret	 4
?ProcState_Waiting@CIllusionTempleProcess@@QAEXH@Z ENDP	; CIllusionTempleProcess::ProcState_Waiting
_TEXT	ENDS
PUBLIC	?RegenNPCStatus@CIllusionTempleProcess@@QAEXXZ	; CIllusionTempleProcess::RegenNPCStatus
; Function compile flags: /Odtp /ZI
_TEXT	SEGMENT
_loc2$ = -8						; size = 4
_this$ = -4						; size = 4
_iTick$ = 8						; size = 4
?ProcState_Playing@CIllusionTempleProcess@@QAEXH@Z PROC	; CIllusionTempleProcess::ProcState_Playing
; _this$ = ecx

; 593  : {

  01d50	55		 push	 ebp
  01d51	8b ec		 mov	 ebp, esp
  01d53	83 ec 48	 sub	 esp, 72			; 00000048H
  01d56	53		 push	 ebx
  01d57	56		 push	 esi
  01d58	57		 push	 edi
  01d59	89 4d fc	 mov	 DWORD PTR _this$[ebp], ecx

; 594  : 	int loc2 = iTick - this->m_iCloseTickCount;

  01d5c	8b 45 fc	 mov	 eax, DWORD PTR _this$[ebp]
  01d5f	8b 4d 08	 mov	 ecx, DWORD PTR _iTick$[ebp]
  01d62	2b 88 a0 03 00
	00		 sub	 ecx, DWORD PTR [eax+928]
  01d68	89 4d f8	 mov	 DWORD PTR _loc2$[ebp], ecx

; 595  : 
; 596  : 	if(loc2 >= 1000)

  01d6b	81 7d f8 e8 03
	00 00		 cmp	 DWORD PTR _loc2$[ebp], 1000 ; 000003e8H
  01d72	7c 63		 jl	 SHORT $LN10@ProcState_@3

; 597  : 	{
; 598  : 		this->m_iEventBattleTimer -= loc2;

  01d74	8b 45 fc	 mov	 eax, DWORD PTR _this$[ebp]
  01d77	8b 88 9c 03 00
	00		 mov	 ecx, DWORD PTR [eax+924]
  01d7d	2b 4d f8	 sub	 ecx, DWORD PTR _loc2$[ebp]
  01d80	8b 55 fc	 mov	 edx, DWORD PTR _this$[ebp]
  01d83	89 8a 9c 03 00
	00		 mov	 DWORD PTR [edx+924], ecx

; 599  : 		this->m_iCloseTickCount = iTick;

  01d89	8b 45 fc	 mov	 eax, DWORD PTR _this$[ebp]
  01d8c	8b 4d 08	 mov	 ecx, DWORD PTR _iTick$[ebp]
  01d8f	89 88 a0 03 00
	00		 mov	 DWORD PTR [eax+928], ecx

; 600  : 
; 601  : 		if(this->m_iEventBattleTimer > 0)

  01d95	8b 45 fc	 mov	 eax, DWORD PTR _this$[ebp]
  01d98	83 b8 9c 03 00
	00 00		 cmp	 DWORD PTR [eax+924], 0
  01d9f	7e 14		 jle	 SHORT $LN9@ProcState_@3

; 602  : 		{
; 603  : 			this->OperateMiniMapWork(0);

  01da1	6a 00		 push	 0
  01da3	8b 4d fc	 mov	 ecx, DWORD PTR _this$[ebp]
  01da6	e8 00 00 00 00	 call	 ?OperateMiniMapWork@CIllusionTempleProcess@@QAEXE@Z ; CIllusionTempleProcess::OperateMiniMapWork

; 604  : 			this->OperateMiniMapWork(1);

  01dab	6a 01		 push	 1
  01dad	8b 4d fc	 mov	 ecx, DWORD PTR _this$[ebp]
  01db0	e8 00 00 00 00	 call	 ?OperateMiniMapWork@CIllusionTempleProcess@@QAEXE@Z ; CIllusionTempleProcess::OperateMiniMapWork
$LN9@ProcState_@3:

; 605  : 		}
; 606  : 
; 607  : 		if(this->m_iStatueRegenTickCount != -1 && this->m_iStatueRegenTickCount < iTick)

  01db5	8b 45 fc	 mov	 eax, DWORD PTR _this$[ebp]
  01db8	83 b8 94 03 00
	00 ff		 cmp	 DWORD PTR [eax+916], -1
  01dbf	74 16		 je	 SHORT $LN10@ProcState_@3
  01dc1	8b 45 fc	 mov	 eax, DWORD PTR _this$[ebp]
  01dc4	8b 88 94 03 00
	00		 mov	 ecx, DWORD PTR [eax+916]
  01dca	3b 4d 08	 cmp	 ecx, DWORD PTR _iTick$[ebp]
  01dcd	7d 08		 jge	 SHORT $LN10@ProcState_@3

; 608  : 		{
; 609  : 			this->RegenNPCStatus();

  01dcf	8b 4d fc	 mov	 ecx, DWORD PTR _this$[ebp]
  01dd2	e8 00 00 00 00	 call	 ?RegenNPCStatus@CIllusionTempleProcess@@QAEXXZ ; CIllusionTempleProcess::RegenNPCStatus
$LN10@ProcState_@3:

; 610  : 		}
; 611  : 	}
; 612  : 
; 613  : 	if(this->m_iEnteredUserCount == 0)

  01dd7	8b 45 fc	 mov	 eax, DWORD PTR _this$[ebp]
  01dda	83 b8 28 02 00
	00 00		 cmp	 DWORD PTR [eax+552], 0
  01de1	75 0f		 jne	 SHORT $LN7@ProcState_@3

; 614  : 	{
; 615  : 		this->SetState(3);

  01de3	6a 03		 push	 3
  01de5	8b 4d fc	 mov	 ecx, DWORD PTR _this$[ebp]
  01de8	e8 00 00 00 00	 call	 ?SetState@CIllusionTempleProcess@@QAEXE@Z ; CIllusionTempleProcess::SetState

; 616  : 		return;

  01ded	e9 b3 00 00 00	 jmp	 $LN11@ProcState_@3
$LN7@ProcState_@3:

; 617  : 	}
; 618  : 
; 619  : 	if(this->m_iEventBattleTimer <= 0 || this->m_btYellowTeamScore >= 7 || this->m_btBlueTeamScore >= 7 || this->m_iYellowTeamUserCount == 0 || this->m_iBlueTeamUserCount == 0)

  01df2	8b 45 fc	 mov	 eax, DWORD PTR _this$[ebp]
  01df5	83 b8 9c 03 00
	00 00		 cmp	 DWORD PTR [eax+924], 0
  01dfc	7e 36		 jle	 SHORT $LN5@ProcState_@3
  01dfe	8b 45 fc	 mov	 eax, DWORD PTR _this$[ebp]
  01e01	0f b6 88 d0 03
	00 00		 movzx	 ecx, BYTE PTR [eax+976]
  01e08	83 f9 07	 cmp	 ecx, 7
  01e0b	7d 27		 jge	 SHORT $LN5@ProcState_@3
  01e0d	8b 45 fc	 mov	 eax, DWORD PTR _this$[ebp]
  01e10	0f b6 88 d1 03
	00 00		 movzx	 ecx, BYTE PTR [eax+977]
  01e17	83 f9 07	 cmp	 ecx, 7
  01e1a	7d 18		 jge	 SHORT $LN5@ProcState_@3
  01e1c	8b 45 fc	 mov	 eax, DWORD PTR _this$[ebp]
  01e1f	83 b8 c8 03 00
	00 00		 cmp	 DWORD PTR [eax+968], 0
  01e26	74 0c		 je	 SHORT $LN5@ProcState_@3
  01e28	8b 45 fc	 mov	 eax, DWORD PTR _this$[ebp]
  01e2b	83 b8 cc 03 00
	00 00		 cmp	 DWORD PTR [eax+972], 0
  01e32	75 71		 jne	 SHORT $LN11@ProcState_@3
$LN5@ProcState_@3:

; 620  : 	{
; 621  : 		if(this->m_btYellowTeamScore >= 7 || this->m_btBlueTeamScore >= 7)

  01e34	8b 45 fc	 mov	 eax, DWORD PTR _this$[ebp]
  01e37	0f b6 88 d0 03
	00 00		 movzx	 ecx, BYTE PTR [eax+976]
  01e3e	83 f9 07	 cmp	 ecx, 7
  01e41	7d 0f		 jge	 SHORT $LN3@ProcState_@3
  01e43	8b 45 fc	 mov	 eax, DWORD PTR _this$[ebp]
  01e46	0f b6 88 d1 03
	00 00		 movzx	 ecx, BYTE PTR [eax+977]
  01e4d	83 f9 07	 cmp	 ecx, 7
  01e50	7c 35		 jl	 SHORT $LN4@ProcState_@3
$LN3@ProcState_@3:

; 622  : 		{
; 623  : 			if(this->m_iEventBattleTimer <= 0)

  01e52	8b 45 fc	 mov	 eax, DWORD PTR _this$[ebp]
  01e55	83 b8 9c 03 00
	00 00		 cmp	 DWORD PTR [eax+924], 0
  01e5c	7f 0f		 jg	 SHORT $LN2@ProcState_@3

; 624  : 			{
; 625  : 				this->m_iLeftMinutesBeforeEnd = 0;

  01e5e	8b 45 fc	 mov	 eax, DWORD PTR _this$[ebp]
  01e61	c7 80 a8 03 00
	00 00 00 00 00	 mov	 DWORD PTR [eax+936], 0

; 626  : 			}
; 627  : 			else

  01e6b	eb 1a		 jmp	 SHORT $LN4@ProcState_@3
$LN2@ProcState_@3:

; 628  : 			{
; 629  : 				this->m_iLeftMinutesBeforeEnd = this->m_iEventBattleTimer / 1000;

  01e6d	8b 45 fc	 mov	 eax, DWORD PTR _this$[ebp]
  01e70	8b 80 9c 03 00
	00		 mov	 eax, DWORD PTR [eax+924]
  01e76	99		 cdq
  01e77	b9 e8 03 00 00	 mov	 ecx, 1000		; 000003e8H
  01e7c	f7 f9		 idiv	 ecx
  01e7e	8b 55 fc	 mov	 edx, DWORD PTR _this$[ebp]
  01e81	89 82 a8 03 00
	00		 mov	 DWORD PTR [edx+936], eax
$LN4@ProcState_@3:

; 630  : 			}
; 631  : 		}
; 632  : 
; 633  : 		this->OperateMiniMapWork(0); //A-Team

  01e87	6a 00		 push	 0
  01e89	8b 4d fc	 mov	 ecx, DWORD PTR _this$[ebp]
  01e8c	e8 00 00 00 00	 call	 ?OperateMiniMapWork@CIllusionTempleProcess@@QAEXE@Z ; CIllusionTempleProcess::OperateMiniMapWork

; 634  : 		this->OperateMiniMapWork(1); //B-Team

  01e91	6a 01		 push	 1
  01e93	8b 4d fc	 mov	 ecx, DWORD PTR _this$[ebp]
  01e96	e8 00 00 00 00	 call	 ?OperateMiniMapWork@CIllusionTempleProcess@@QAEXE@Z ; CIllusionTempleProcess::OperateMiniMapWork

; 635  : 
; 636  : 		this->SetState(3);

  01e9b	6a 03		 push	 3
  01e9d	8b 4d fc	 mov	 ecx, DWORD PTR _this$[ebp]
  01ea0	e8 00 00 00 00	 call	 ?SetState@CIllusionTempleProcess@@QAEXE@Z ; CIllusionTempleProcess::SetState
$LN11@ProcState_@3:

; 637  : 	}
; 638  : }

  01ea5	5f		 pop	 edi
  01ea6	5e		 pop	 esi
  01ea7	5b		 pop	 ebx
  01ea8	8b e5		 mov	 esp, ebp
  01eaa	5d		 pop	 ebp
  01eab	c2 04 00	 ret	 4
?ProcState_Playing@CIllusionTempleProcess@@QAEXH@Z ENDP	; CIllusionTempleProcess::ProcState_Playing
_TEXT	ENDS
PUBLIC	?SendRewardScore@CIllusionTempleProcess@@QAEXXZ	; CIllusionTempleProcess::SendRewardScore
PUBLIC	?CalcSendRewardEXP@CIllusionTempleProcess@@QAEXXZ ; CIllusionTempleProcess::CalcSendRewardEXP
PUBLIC	?FindItemBallPosition@CIllusionTempleProcess@@QAEHH@Z ; CIllusionTempleProcess::FindItemBallPosition
EXTRN	?gObjSetPosition@@YAXHHH@Z:PROC			; gObjSetPosition
EXTRN	?m_i_IT_RestTime@@3HA:DWORD			; m_i_IT_RestTime
; Function compile flags: /Odtp /ZI
_TEXT	SEGMENT
_i$234122 = -12						; size = 4
_loc2$ = -8						; size = 4
_this$ = -4						; size = 4
_iTick$ = 8						; size = 4
?ProcState_Playend@CIllusionTempleProcess@@QAEXH@Z PROC	; CIllusionTempleProcess::ProcState_Playend
; _this$ = ecx

; 641  : {

  01eb0	55		 push	 ebp
  01eb1	8b ec		 mov	 ebp, esp
  01eb3	83 ec 4c	 sub	 esp, 76			; 0000004cH
  01eb6	53		 push	 ebx
  01eb7	56		 push	 esi
  01eb8	57		 push	 edi
  01eb9	89 4d fc	 mov	 DWORD PTR _this$[ebp], ecx

; 642  : 	int loc2 = iTick - this->m_iCloseTickCount;

  01ebc	8b 45 fc	 mov	 eax, DWORD PTR _this$[ebp]
  01ebf	8b 4d 08	 mov	 ecx, DWORD PTR _iTick$[ebp]
  01ec2	2b 88 a0 03 00
	00		 sub	 ecx, DWORD PTR [eax+928]
  01ec8	89 4d f8	 mov	 DWORD PTR _loc2$[ebp], ecx

; 643  : 
; 644  : 	if(loc2 >= 1000)

  01ecb	81 7d f8 e8 03
	00 00		 cmp	 DWORD PTR _loc2$[ebp], 1000 ; 000003e8H
  01ed2	0f 8c 93 02 00
	00		 jl	 $LN19@ProcState_@4

; 645  : 	{
; 646  : 		this->m_iEventBattleTimer -= loc2;

  01ed8	8b 45 fc	 mov	 eax, DWORD PTR _this$[ebp]
  01edb	8b 88 9c 03 00
	00		 mov	 ecx, DWORD PTR [eax+924]
  01ee1	2b 4d f8	 sub	 ecx, DWORD PTR _loc2$[ebp]
  01ee4	8b 55 fc	 mov	 edx, DWORD PTR _this$[ebp]
  01ee7	89 8a 9c 03 00
	00		 mov	 DWORD PTR [edx+924], ecx

; 647  : 		this->m_iCloseTickCount = iTick;

  01eed	8b 45 fc	 mov	 eax, DWORD PTR _this$[ebp]
  01ef0	8b 4d 08	 mov	 ecx, DWORD PTR _iTick$[ebp]
  01ef3	89 88 a0 03 00
	00		 mov	 DWORD PTR [eax+928], ecx

; 648  : 
; 649  : 		if(this->m_iEventBattleTimer <= 1000 * (m_i_IT_RestTime * 60) - 3000)

  01ef9	a1 00 00 00 00	 mov	 eax, DWORD PTR ?m_i_IT_RestTime@@3HA ; m_i_IT_RestTime
  01efe	6b c0 3c	 imul	 eax, 60			; 0000003cH
  01f01	69 c0 e8 03 00
	00		 imul	 eax, 1000		; 000003e8H
  01f07	2d b8 0b 00 00	 sub	 eax, 3000		; 00000bb8H
  01f0c	8b 4d fc	 mov	 ecx, DWORD PTR _this$[ebp]
  01f0f	39 81 9c 03 00
	00		 cmp	 DWORD PTR [ecx+924], eax
  01f15	0f 8f 50 02 00
	00		 jg	 $LN19@ProcState_@4

; 650  : 		{
; 651  : 			if(this->m_iEventBattleTimer > 0)

  01f1b	8b 45 fc	 mov	 eax, DWORD PTR _this$[ebp]
  01f1e	83 b8 9c 03 00
	00 00		 cmp	 DWORD PTR [eax+924], 0
  01f25	0f 8e 40 02 00
	00		 jle	 $LN19@ProcState_@4

; 652  : 			{
; 653  : 				if(this->m_bIllusionTempleEventEnded == FALSE)

  01f2b	8b 45 fc	 mov	 eax, DWORD PTR _this$[ebp]
  01f2e	83 b8 ac 03 00
	00 00		 cmp	 DWORD PTR [eax+940], 0
  01f35	0f 85 30 02 00
	00		 jne	 $LN19@ProcState_@4

; 654  : 				{
; 655  : 					this->m_bIllusionTempleEventEnded = TRUE;

  01f3b	8b 45 fc	 mov	 eax, DWORD PTR _this$[ebp]
  01f3e	c7 80 ac 03 00
	00 01 00 00 00	 mov	 DWORD PTR [eax+940], 1

; 656  : 
; 657  : 					for( int i = 0; i < MAX_FLOOR_USER; i++ )

  01f48	c7 45 f4 00 00
	00 00		 mov	 DWORD PTR _i$234122[ebp], 0
  01f4f	eb 09		 jmp	 SHORT $LN15@ProcState_@4
$LN14@ProcState_@4:
  01f51	8b 45 f4	 mov	 eax, DWORD PTR _i$234122[ebp]
  01f54	83 c0 01	 add	 eax, 1
  01f57	89 45 f4	 mov	 DWORD PTR _i$234122[ebp], eax
$LN15@ProcState_@4:
  01f5a	83 7d f4 0a	 cmp	 DWORD PTR _i$234122[ebp], 10 ; 0000000aH
  01f5e	0f 8d 3f 01 00
	00		 jge	 $LN13@ProcState_@4

; 658  : 					{
; 659  : 						if( this->m_FloorData[i].m_iTeamPlayerIndex != OBJ_EMPTY && gObj[this->m_FloorData[i].m_iTeamPlayerIndex].Connected > PLAYER_LOGGED)

  01f64	8b 45 f4	 mov	 eax, DWORD PTR _i$234122[ebp]
  01f67	6b c0 30	 imul	 eax, 48			; 00000030H
  01f6a	8b 4d fc	 mov	 ecx, DWORD PTR _this$[ebp]
  01f6d	83 7c 01 20 ff	 cmp	 DWORD PTR [ecx+eax+32], -1
  01f72	0f 84 26 01 00
	00		 je	 $LN12@ProcState_@4
  01f78	8b 45 f4	 mov	 eax, DWORD PTR _i$234122[ebp]
  01f7b	6b c0 30	 imul	 eax, 48			; 00000030H
  01f7e	8b 4d fc	 mov	 ecx, DWORD PTR _this$[ebp]
  01f81	8b 54 01 20	 mov	 edx, DWORD PTR [ecx+eax+32]
  01f85	69 d2 38 2b 00
	00		 imul	 edx, 11064		; 00002b38H
  01f8b	a1 00 00 00 00	 mov	 eax, DWORD PTR ?gObj@@3PAUOBJECTSTRUCT@@A ; gObj
  01f90	83 7c 10 04 02	 cmp	 DWORD PTR [eax+edx+4], 2
  01f95	0f 8e 03 01 00
	00		 jle	 $LN12@ProcState_@4

; 660  : 						{
; 661  : 							if( gObj[this->m_FloorData[i].m_iTeamPlayerIndex].MapNumber == (this->m_btFloorIndex + MAP_INDEX_ILLUSIONTEMPLE) )

  01f9b	8b 45 f4	 mov	 eax, DWORD PTR _i$234122[ebp]
  01f9e	6b c0 30	 imul	 eax, 48			; 00000030H
  01fa1	8b 4d fc	 mov	 ecx, DWORD PTR _this$[ebp]
  01fa4	8b 54 01 20	 mov	 edx, DWORD PTR [ecx+eax+32]
  01fa8	69 d2 38 2b 00
	00		 imul	 edx, 11064		; 00002b38H
  01fae	a1 00 00 00 00	 mov	 eax, DWORD PTR ?gObj@@3PAUOBJECTSTRUCT@@A ; gObj
  01fb3	0f b6 8c 10 49
	01 00 00	 movzx	 ecx, BYTE PTR [eax+edx+329]
  01fbb	8b 55 fc	 mov	 edx, DWORD PTR _this$[ebp]
  01fbe	0f b6 82 2c 02
	00 00		 movzx	 eax, BYTE PTR [edx+556]
  01fc5	83 c0 2d	 add	 eax, 45			; 0000002dH
  01fc8	3b c8		 cmp	 ecx, eax
  01fca	0f 85 ce 00 00
	00		 jne	 $LN12@ProcState_@4

; 662  : 							{
; 663  : 								if(this->m_FloorData[i].m_btTeamJoinSide == 0)

  01fd0	8b 45 f4	 mov	 eax, DWORD PTR _i$234122[ebp]
  01fd3	6b c0 30	 imul	 eax, 48			; 00000030H
  01fd6	8b 4d fc	 mov	 ecx, DWORD PTR _this$[ebp]
  01fd9	0f b6 54 01 24	 movzx	 edx, BYTE PTR [ecx+eax+36]
  01fde	85 d2		 test	 edx, edx
  01fe0	75 29		 jne	 SHORT $LN10@ProcState_@4

; 664  : 								{
; 665  : 									gObjMoveGate(this->m_FloorData[i].m_iTeamPlayerIndex, this->m_btFloorIndex + 148); //Battle Map Scene

  01fe2	8b 45 fc	 mov	 eax, DWORD PTR _this$[ebp]
  01fe5	0f b6 88 2c 02
	00 00		 movzx	 ecx, BYTE PTR [eax+556]
  01fec	81 c1 94 00 00
	00		 add	 ecx, 148		; 00000094H
  01ff2	51		 push	 ecx
  01ff3	8b 55 f4	 mov	 edx, DWORD PTR _i$234122[ebp]
  01ff6	6b d2 30	 imul	 edx, 48			; 00000030H
  01ff9	8b 45 fc	 mov	 eax, DWORD PTR _this$[ebp]
  01ffc	8b 4c 10 20	 mov	 ecx, DWORD PTR [eax+edx+32]
  02000	51		 push	 ecx
  02001	e8 00 00 00 00	 call	 ?gObjMoveGate@@YAHHH@Z	; gObjMoveGate
  02006	83 c4 08	 add	 esp, 8
  02009	eb 3a		 jmp	 SHORT $LN9@ProcState_@4
$LN10@ProcState_@4:

; 666  : 								}
; 667  : 								else if(this->m_FloorData[i].m_btTeamJoinSide == 1)

  0200b	8b 45 f4	 mov	 eax, DWORD PTR _i$234122[ebp]
  0200e	6b c0 30	 imul	 eax, 48			; 00000030H
  02011	8b 4d fc	 mov	 ecx, DWORD PTR _this$[ebp]
  02014	0f b6 54 01 24	 movzx	 edx, BYTE PTR [ecx+eax+36]
  02019	83 fa 01	 cmp	 edx, 1
  0201c	75 27		 jne	 SHORT $LN9@ProcState_@4

; 668  : 								{
; 669  : 									gObjMoveGate(this->m_FloorData[i].m_iTeamPlayerIndex, this->m_btFloorIndex + 154); //Battle Map Scene

  0201e	8b 45 fc	 mov	 eax, DWORD PTR _this$[ebp]
  02021	0f b6 88 2c 02
	00 00		 movzx	 ecx, BYTE PTR [eax+556]
  02028	81 c1 9a 00 00
	00		 add	 ecx, 154		; 0000009aH
  0202e	51		 push	 ecx
  0202f	8b 55 f4	 mov	 edx, DWORD PTR _i$234122[ebp]
  02032	6b d2 30	 imul	 edx, 48			; 00000030H
  02035	8b 45 fc	 mov	 eax, DWORD PTR _this$[ebp]
  02038	8b 4c 10 20	 mov	 ecx, DWORD PTR [eax+edx+32]
  0203c	51		 push	 ecx
  0203d	e8 00 00 00 00	 call	 ?gObjMoveGate@@YAHHH@Z	; gObjMoveGate
  02042	83 c4 08	 add	 esp, 8
$LN9@ProcState_@4:

; 670  : 								}
; 671  : 
; 672  : 								gObjSetPosition(this->m_FloorData[i].m_iTeamPlayerIndex, gObj[this->m_FloorData[i].m_iTeamPlayerIndex].X, gObj[this->m_FloorData[i].m_iTeamPlayerIndex].Y);

  02045	8b 45 f4	 mov	 eax, DWORD PTR _i$234122[ebp]
  02048	6b c0 30	 imul	 eax, 48			; 00000030H
  0204b	8b 4d fc	 mov	 ecx, DWORD PTR _this$[ebp]
  0204e	8b 54 01 20	 mov	 edx, DWORD PTR [ecx+eax+32]
  02052	69 d2 38 2b 00
	00		 imul	 edx, 11064		; 00002b38H
  02058	a1 00 00 00 00	 mov	 eax, DWORD PTR ?gObj@@3PAUOBJECTSTRUCT@@A ; gObj
  0205d	0f bf 8c 10 46
	01 00 00	 movsx	 ecx, WORD PTR [eax+edx+326]
  02065	51		 push	 ecx
  02066	8b 55 f4	 mov	 edx, DWORD PTR _i$234122[ebp]
  02069	6b d2 30	 imul	 edx, 48			; 00000030H
  0206c	8b 45 fc	 mov	 eax, DWORD PTR _this$[ebp]
  0206f	8b 4c 10 20	 mov	 ecx, DWORD PTR [eax+edx+32]
  02073	69 c9 38 2b 00
	00		 imul	 ecx, 11064		; 00002b38H
  02079	8b 15 00 00 00
	00		 mov	 edx, DWORD PTR ?gObj@@3PAUOBJECTSTRUCT@@A ; gObj
  0207f	0f bf 84 0a 44
	01 00 00	 movsx	 eax, WORD PTR [edx+ecx+324]
  02087	50		 push	 eax
  02088	8b 4d f4	 mov	 ecx, DWORD PTR _i$234122[ebp]
  0208b	6b c9 30	 imul	 ecx, 48			; 00000030H
  0208e	8b 55 fc	 mov	 edx, DWORD PTR _this$[ebp]
  02091	8b 44 0a 20	 mov	 eax, DWORD PTR [edx+ecx+32]
  02095	50		 push	 eax
  02096	e8 00 00 00 00	 call	 ?gObjSetPosition@@YAXHHH@Z ; gObjSetPosition
  0209b	83 c4 0c	 add	 esp, 12			; 0000000cH
$LN12@ProcState_@4:

; 673  : 							}
; 674  : 						}
; 675  : 					}

  0209e	e9 ae fe ff ff	 jmp	 $LN14@ProcState_@4
$LN13@ProcState_@4:

; 676  : 
; 677  : 					if(this->m_iBallPlayerIndex >= 0 && FindItemBallPosition(iTick) >= 0)

  020a3	8b 45 fc	 mov	 eax, DWORD PTR _this$[ebp]
  020a6	83 b8 b8 03 00
	00 00		 cmp	 DWORD PTR [eax+952], 0
  020ad	0f 8c b0 00 00
	00		 jl	 $LN7@ProcState_@4
  020b3	8b 45 08	 mov	 eax, DWORD PTR _iTick$[ebp]
  020b6	50		 push	 eax
  020b7	8b 4d fc	 mov	 ecx, DWORD PTR _this$[ebp]
  020ba	e8 00 00 00 00	 call	 ?FindItemBallPosition@CIllusionTempleProcess@@QAEHH@Z ; CIllusionTempleProcess::FindItemBallPosition
  020bf	85 c0		 test	 eax, eax
  020c1	0f 8c 9c 00 00
	00		 jl	 $LN7@ProcState_@4

; 678  : 					{
; 679  : 						if(gObj[this->m_iBallPlayerIndex].pInventory[FindItemBallPosition(iTick)].m_Type == ITEMGET(14,64))

  020c7	8b 45 fc	 mov	 eax, DWORD PTR _this$[ebp]
  020ca	8b b0 b8 03 00
	00		 mov	 esi, DWORD PTR [eax+952]
  020d0	69 f6 38 2b 00
	00		 imul	 esi, 11064		; 00002b38H
  020d6	8b 4d 08	 mov	 ecx, DWORD PTR _iTick$[ebp]
  020d9	51		 push	 ecx
  020da	8b 4d fc	 mov	 ecx, DWORD PTR _this$[ebp]
  020dd	e8 00 00 00 00	 call	 ?FindItemBallPosition@CIllusionTempleProcess@@QAEHH@Z ; CIllusionTempleProcess::FindItemBallPosition
  020e2	69 c0 d4 00 00
	00		 imul	 eax, 212		; 000000d4H
  020e8	8b 15 00 00 00
	00		 mov	 edx, DWORD PTR ?gObj@@3PAUOBJECTSTRUCT@@A ; gObj
  020ee	8b 8c 32 24 0e
	00 00		 mov	 ecx, DWORD PTR [edx+esi+3620]
  020f5	0f bf 54 01 06	 movsx	 edx, WORD PTR [ecx+eax+6]
  020fa	81 fa 40 1c 00
	00		 cmp	 edx, 7232		; 00001c40H
  02100	75 61		 jne	 SHORT $LN7@ProcState_@4

; 680  : 						{
; 681  : 							::gObjInventoryDeleteItem(this->m_iBallPlayerIndex, FindItemBallPosition(iTick));

  02102	8b 45 08	 mov	 eax, DWORD PTR _iTick$[ebp]
  02105	50		 push	 eax
  02106	8b 4d fc	 mov	 ecx, DWORD PTR _this$[ebp]
  02109	e8 00 00 00 00	 call	 ?FindItemBallPosition@CIllusionTempleProcess@@QAEHH@Z ; CIllusionTempleProcess::FindItemBallPosition
  0210e	50		 push	 eax
  0210f	8b 4d fc	 mov	 ecx, DWORD PTR _this$[ebp]
  02112	8b 91 b8 03 00
	00		 mov	 edx, DWORD PTR [ecx+952]
  02118	52		 push	 edx
  02119	e8 00 00 00 00	 call	 ?gObjInventoryDeleteItem@@YAEHH@Z ; gObjInventoryDeleteItem
  0211e	83 c4 08	 add	 esp, 8

; 682  : 							::GCInventoryItemDeleteSend(this->m_iBallPlayerIndex, FindItemBallPosition(iTick), 0);

  02121	6a 00		 push	 0
  02123	8b 45 08	 mov	 eax, DWORD PTR _iTick$[ebp]
  02126	50		 push	 eax
  02127	8b 4d fc	 mov	 ecx, DWORD PTR _this$[ebp]
  0212a	e8 00 00 00 00	 call	 ?FindItemBallPosition@CIllusionTempleProcess@@QAEHH@Z ; CIllusionTempleProcess::FindItemBallPosition
  0212f	50		 push	 eax
  02130	8b 4d fc	 mov	 ecx, DWORD PTR _this$[ebp]
  02133	8b 91 b8 03 00
	00		 mov	 edx, DWORD PTR [ecx+952]
  02139	52		 push	 edx
  0213a	e8 00 00 00 00	 call	 ?GCInventoryItemDeleteSend@@YAXHEE@Z ; GCInventoryItemDeleteSend
  0213f	83 c4 0c	 add	 esp, 12			; 0000000cH

; 683  : 
; 684  : 							this->m_iBallPlayerIndex = -1;

  02142	8b 45 fc	 mov	 eax, DWORD PTR _this$[ebp]
  02145	c7 80 b8 03 00
	00 ff ff ff ff	 mov	 DWORD PTR [eax+952], -1

; 685  : 							this->m_btBallInventoryPosition = (BYTE)-1;

  0214f	8b 45 fc	 mov	 eax, DWORD PTR _this$[ebp]
  02152	c6 80 bd 03 00
	00 ff		 mov	 BYTE PTR [eax+957], 255	; 000000ffH

; 686  : 							this->m_btAllowedRegPedestal = (BYTE)-1;

  02159	8b 45 fc	 mov	 eax, DWORD PTR _this$[ebp]
  0215c	c6 80 bc 03 00
	00 ff		 mov	 BYTE PTR [eax+956], 255	; 000000ffH
$LN7@ProcState_@4:

; 687  : 						}
; 688  : 					}
; 689  : 
; 690  : 					this->CalcSendRewardEXP();

  02163	8b 4d fc	 mov	 ecx, DWORD PTR _this$[ebp]
  02166	e8 00 00 00 00	 call	 ?CalcSendRewardEXP@CIllusionTempleProcess@@QAEXXZ ; CIllusionTempleProcess::CalcSendRewardEXP
$LN19@ProcState_@4:

; 691  : 				}
; 692  : 			}
; 693  : 		}
; 694  : 	}
; 695  : 
; 696  : 	if(this->m_iEventBattleTimer <= 1000 * (m_i_IT_RestTime * 60) - 6000)

  0216b	a1 00 00 00 00	 mov	 eax, DWORD PTR ?m_i_IT_RestTime@@3HA ; m_i_IT_RestTime
  02170	6b c0 3c	 imul	 eax, 60			; 0000003cH
  02173	69 c0 e8 03 00
	00		 imul	 eax, 1000		; 000003e8H
  02179	2d 70 17 00 00	 sub	 eax, 6000		; 00001770H
  0217e	8b 4d fc	 mov	 ecx, DWORD PTR _this$[ebp]
  02181	39 81 9c 03 00
	00		 cmp	 DWORD PTR [ecx+924], eax
  02187	7f 39		 jg	 SHORT $LN5@ProcState_@4

; 697  : 	{
; 698  : 		if(this->m_iEventBattleTimer > 0)

  02189	8b 45 fc	 mov	 eax, DWORD PTR _this$[ebp]
  0218c	83 b8 9c 03 00
	00 00		 cmp	 DWORD PTR [eax+924], 0
  02193	7e 2d		 jle	 SHORT $LN5@ProcState_@4

; 699  : 		{
; 700  : 			if(this->m_bIllusionTempleEventEnded == TRUE)

  02195	8b 45 fc	 mov	 eax, DWORD PTR _this$[ebp]
  02198	83 b8 ac 03 00
	00 01		 cmp	 DWORD PTR [eax+940], 1
  0219f	75 21		 jne	 SHORT $LN5@ProcState_@4

; 701  : 			{
; 702  : 				if(this->m_bScoreRankSet == FALSE)

  021a1	8b 45 fc	 mov	 eax, DWORD PTR _this$[ebp]
  021a4	83 b8 e8 03 00
	00 00		 cmp	 DWORD PTR [eax+1000], 0
  021ab	75 15		 jne	 SHORT $LN5@ProcState_@4

; 703  : 				{
; 704  : 					this->SendRewardScore();

  021ad	8b 4d fc	 mov	 ecx, DWORD PTR _this$[ebp]
  021b0	e8 00 00 00 00	 call	 ?SendRewardScore@CIllusionTempleProcess@@QAEXXZ ; CIllusionTempleProcess::SendRewardScore

; 705  : 					this->m_bScoreRankSet = TRUE;

  021b5	8b 45 fc	 mov	 eax, DWORD PTR _this$[ebp]
  021b8	c7 80 e8 03 00
	00 01 00 00 00	 mov	 DWORD PTR [eax+1000], 1
$LN5@ProcState_@4:

; 706  : 				}
; 707  : 			}
; 708  : 		}
; 709  : 	}
; 710  : 
; 711  : 	if(this->m_iEventBattleTimer <= 0)

  021c2	8b 45 fc	 mov	 eax, DWORD PTR _this$[ebp]
  021c5	83 b8 9c 03 00
	00 00		 cmp	 DWORD PTR [eax+924], 0
  021cc	7f 0a		 jg	 SHORT $LN20@ProcState_@4

; 712  : 	{
; 713  : 		this->SetState(0);

  021ce	6a 00		 push	 0
  021d0	8b 4d fc	 mov	 ecx, DWORD PTR _this$[ebp]
  021d3	e8 00 00 00 00	 call	 ?SetState@CIllusionTempleProcess@@QAEXE@Z ; CIllusionTempleProcess::SetState
$LN20@ProcState_@4:

; 714  : 	}
; 715  : }

  021d8	5f		 pop	 edi
  021d9	5e		 pop	 esi
  021da	5b		 pop	 ebx
  021db	8b e5		 mov	 esp, ebp
  021dd	5d		 pop	 ebp
  021de	c2 04 00	 ret	 4
?ProcState_Playend@CIllusionTempleProcess@@QAEXH@Z ENDP	; CIllusionTempleProcess::ProcState_Playend
_TEXT	ENDS
PUBLIC	?SetState_END@CIllusionTempleProcess@@QAEXXZ	; CIllusionTempleProcess::SetState_END
PUBLIC	?SetState_PLAYING@CIllusionTempleProcess@@QAEXXZ ; CIllusionTempleProcess::SetState_PLAYING
PUBLIC	?SetState_READY@CIllusionTempleProcess@@QAEXXZ	; CIllusionTempleProcess::SetState_READY
PUBLIC	?SetState_NONE@CIllusionTempleProcess@@QAEXXZ	; CIllusionTempleProcess::SetState_NONE
; Function compile flags: /Odtp /ZI
_TEXT	SEGMENT
tv66 = -72						; size = 4
_this$ = -4						; size = 4
_State$ = 8						; size = 1
?SetState@CIllusionTempleProcess@@QAEXE@Z PROC		; CIllusionTempleProcess::SetState
; _this$ = ecx

; 718  : {

  021f0	55		 push	 ebp
  021f1	8b ec		 mov	 ebp, esp
  021f3	83 ec 48	 sub	 esp, 72			; 00000048H
  021f6	53		 push	 ebx
  021f7	56		 push	 esi
  021f8	57		 push	 edi
  021f9	89 4d fc	 mov	 DWORD PTR _this$[ebp], ecx

; 719  : 	this->m_btState = State;

  021fc	8b 45 fc	 mov	 eax, DWORD PTR _this$[ebp]
  021ff	8a 4d 08	 mov	 cl, BYTE PTR _State$[ebp]
  02202	88 88 2d 02 00
	00		 mov	 BYTE PTR [eax+557], cl

; 720  : 
; 721  : 	switch( State )

  02208	0f b6 45 08	 movzx	 eax, BYTE PTR _State$[ebp]
  0220c	89 45 b8	 mov	 DWORD PTR tv66[ebp], eax
  0220f	83 7d b8 03	 cmp	 DWORD PTR tv66[ebp], 3
  02213	77 30		 ja	 SHORT $LN7@SetState
  02215	8b 4d b8	 mov	 ecx, DWORD PTR tv66[ebp]
  02218	ff 24 8d 00 00
	00 00		 jmp	 DWORD PTR $LN9@SetState[ecx*4]
$LN4@SetState:

; 722  : 	{
; 723  : 		case 0: //Closed waiting for Open
; 724  : 			this->SetState_NONE();

  0221f	8b 4d fc	 mov	 ecx, DWORD PTR _this$[ebp]
  02222	e8 00 00 00 00	 call	 ?SetState_NONE@CIllusionTempleProcess@@QAEXXZ ; CIllusionTempleProcess::SetState_NONE

; 725  : 			break;

  02227	eb 1c		 jmp	 SHORT $LN7@SetState
$LN3@SetState:

; 726  : 		case 1: //Playing (inside temple before battle)
; 727  : 			this->SetState_READY();

  02229	8b 4d fc	 mov	 ecx, DWORD PTR _this$[ebp]
  0222c	e8 00 00 00 00	 call	 ?SetState_READY@CIllusionTempleProcess@@QAEXXZ ; CIllusionTempleProcess::SetState_READY

; 728  : 			break;

  02231	eb 12		 jmp	 SHORT $LN7@SetState
$LN2@SetState:

; 729  : 		case 2: //Battle of 15 minutes
; 730  : 			this->SetState_PLAYING();

  02233	8b 4d fc	 mov	 ecx, DWORD PTR _this$[ebp]
  02236	e8 00 00 00 00	 call	 ?SetState_PLAYING@CIllusionTempleProcess@@QAEXXZ ; CIllusionTempleProcess::SetState_PLAYING

; 731  : 			break;

  0223b	eb 08		 jmp	 SHORT $LN7@SetState
$LN1@SetState:

; 732  : 		case 3: //After Battle (Score waiting minutes)
; 733  : 			this->SetState_END();

  0223d	8b 4d fc	 mov	 ecx, DWORD PTR _this$[ebp]
  02240	e8 00 00 00 00	 call	 ?SetState_END@CIllusionTempleProcess@@QAEXXZ ; CIllusionTempleProcess::SetState_END
$LN7@SetState:

; 734  : 			break;
; 735  : 	}
; 736  : }

  02245	5f		 pop	 edi
  02246	5e		 pop	 esi
  02247	5b		 pop	 ebx
  02248	8b e5		 mov	 esp, ebp
  0224a	5d		 pop	 ebp
  0224b	c2 04 00	 ret	 4
  0224e	8b ff		 npad	 2
$LN9@SetState:
  02250	00 00 00 00	 DD	 $LN4@SetState
  02254	00 00 00 00	 DD	 $LN3@SetState
  02258	00 00 00 00	 DD	 $LN2@SetState
  0225c	00 00 00 00	 DD	 $LN1@SetState
?SetState@CIllusionTempleProcess@@QAEXE@Z ENDP		; CIllusionTempleProcess::SetState
_TEXT	ENDS
PUBLIC	?GetState@CIllusionTempleProcess@@QAEEXZ	; CIllusionTempleProcess::GetState
; Function compile flags: /Odtp /ZI
_TEXT	SEGMENT
_this$ = -4						; size = 4
?GetState@CIllusionTempleProcess@@QAEEXZ PROC		; CIllusionTempleProcess::GetState
; _this$ = ecx

; 739  : {

  02260	55		 push	 ebp
  02261	8b ec		 mov	 ebp, esp
  02263	83 ec 44	 sub	 esp, 68			; 00000044H
  02266	53		 push	 ebx
  02267	56		 push	 esi
  02268	57		 push	 edi
  02269	89 4d fc	 mov	 DWORD PTR _this$[ebp], ecx

; 740  : 	return this->m_btState;

  0226c	8b 45 fc	 mov	 eax, DWORD PTR _this$[ebp]
  0226f	8a 80 2d 02 00
	00		 mov	 al, BYTE PTR [eax+557]

; 741  : }

  02275	5f		 pop	 edi
  02276	5e		 pop	 esi
  02277	5b		 pop	 ebx
  02278	8b e5		 mov	 esp, ebp
  0227a	5d		 pop	 ebp
  0227b	c3		 ret	 0
?GetState@CIllusionTempleProcess@@QAEEXZ ENDP		; CIllusionTempleProcess::GetState
_TEXT	ENDS
PUBLIC	?NotifyTempleInfo@CIllusionTempleProcess@@QAEXEH@Z ; CIllusionTempleProcess::NotifyTempleInfo
; Function compile flags: /Odtp /ZI
_TEXT	SEGMENT
_i$234158 = -8						; size = 4
_this$ = -4						; size = 4
?SetState_NONE@CIllusionTempleProcess@@QAEXXZ PROC	; CIllusionTempleProcess::SetState_NONE
; _this$ = ecx

; 744  : {

  02280	55		 push	 ebp
  02281	8b ec		 mov	 ebp, esp
  02283	83 ec 48	 sub	 esp, 72			; 00000048H
  02286	53		 push	 ebx
  02287	56		 push	 esi
  02288	57		 push	 edi
  02289	89 4d fc	 mov	 DWORD PTR _this$[ebp], ecx

; 745  : 	this->NotifyTempleInfo(0,-1);

  0228c	6a ff		 push	 -1
  0228e	6a 00		 push	 0
  02290	8b 4d fc	 mov	 ecx, DWORD PTR _this$[ebp]
  02293	e8 00 00 00 00	 call	 ?NotifyTempleInfo@CIllusionTempleProcess@@QAEXEH@Z ; CIllusionTempleProcess::NotifyTempleInfo

; 746  : 
; 747  : 	for( int i = 0; i < MAX_FLOOR_USER; i++ )

  02298	c7 45 f8 00 00
	00 00		 mov	 DWORD PTR _i$234158[ebp], 0
  0229f	eb 09		 jmp	 SHORT $LN6@SetState_N
$LN5@SetState_N:
  022a1	8b 45 f8	 mov	 eax, DWORD PTR _i$234158[ebp]
  022a4	83 c0 01	 add	 eax, 1
  022a7	89 45 f8	 mov	 DWORD PTR _i$234158[ebp], eax
$LN6@SetState_N:
  022aa	83 7d f8 0a	 cmp	 DWORD PTR _i$234158[ebp], 10 ; 0000000aH
  022ae	0f 8d 80 00 00
	00		 jge	 $LN4@SetState_N

; 748  : 	{
; 749  : 		if( this->m_FloorData[i].m_iTeamPlayerIndex != OBJ_EMPTY )

  022b4	8b 45 f8	 mov	 eax, DWORD PTR _i$234158[ebp]
  022b7	6b c0 30	 imul	 eax, 48			; 00000030H
  022ba	8b 4d fc	 mov	 ecx, DWORD PTR _this$[ebp]
  022bd	83 7c 01 20 ff	 cmp	 DWORD PTR [ecx+eax+32], -1
  022c2	74 6b		 je	 SHORT $LN3@SetState_N

; 750  : 		{
; 751  : 			if( gObj[this->m_FloorData[i].m_iTeamPlayerIndex].Connected > PLAYER_LOGGED )

  022c4	8b 45 f8	 mov	 eax, DWORD PTR _i$234158[ebp]
  022c7	6b c0 30	 imul	 eax, 48			; 00000030H
  022ca	8b 4d fc	 mov	 ecx, DWORD PTR _this$[ebp]
  022cd	8b 54 01 20	 mov	 edx, DWORD PTR [ecx+eax+32]
  022d1	69 d2 38 2b 00
	00		 imul	 edx, 11064		; 00002b38H
  022d7	a1 00 00 00 00	 mov	 eax, DWORD PTR ?gObj@@3PAUOBJECTSTRUCT@@A ; gObj
  022dc	83 7c 10 04 02	 cmp	 DWORD PTR [eax+edx+4], 2
  022e1	7e 4c		 jle	 SHORT $LN3@SetState_N

; 752  : 			{
; 753  : 				if( gObj[this->m_FloorData[i].m_iTeamPlayerIndex].MapNumber == (this->m_btFloorIndex + MAP_INDEX_ILLUSIONTEMPLE) )

  022e3	8b 45 f8	 mov	 eax, DWORD PTR _i$234158[ebp]
  022e6	6b c0 30	 imul	 eax, 48			; 00000030H
  022e9	8b 4d fc	 mov	 ecx, DWORD PTR _this$[ebp]
  022ec	8b 54 01 20	 mov	 edx, DWORD PTR [ecx+eax+32]
  022f0	69 d2 38 2b 00
	00		 imul	 edx, 11064		; 00002b38H
  022f6	a1 00 00 00 00	 mov	 eax, DWORD PTR ?gObj@@3PAUOBJECTSTRUCT@@A ; gObj
  022fb	0f b6 8c 10 49
	01 00 00	 movzx	 ecx, BYTE PTR [eax+edx+329]
  02303	8b 55 fc	 mov	 edx, DWORD PTR _this$[ebp]
  02306	0f b6 82 2c 02
	00 00		 movzx	 eax, BYTE PTR [edx+556]
  0230d	83 c0 2d	 add	 eax, 45			; 0000002dH
  02310	3b c8		 cmp	 ecx, eax
  02312	75 1b		 jne	 SHORT $LN3@SetState_N

; 754  : 				{
; 755  : 					gObjMoveGate(this->m_FloorData[i].m_iTeamPlayerIndex, 267); //Elbeland

  02314	68 0b 01 00 00	 push	 267			; 0000010bH
  02319	8b 45 f8	 mov	 eax, DWORD PTR _i$234158[ebp]
  0231c	6b c0 30	 imul	 eax, 48			; 00000030H
  0231f	8b 4d fc	 mov	 ecx, DWORD PTR _this$[ebp]
  02322	8b 54 01 20	 mov	 edx, DWORD PTR [ecx+eax+32]
  02326	52		 push	 edx
  02327	e8 00 00 00 00	 call	 ?gObjMoveGate@@YAHHH@Z	; gObjMoveGate
  0232c	83 c4 08	 add	 esp, 8
$LN3@SetState_N:

; 756  : #if(DEBUG_IT == 1)
; 757  : 				GCServerMsgStringSend("CIllusionTempleProcess::SetState_NONE()", this->m_FloorData[i].m_iTeamPlayerIndex, 0);
; 758  : #endif
; 759  : 				}
; 760  : 			}
; 761  : 		}
; 762  : 	}

  0232f	e9 6d ff ff ff	 jmp	 $LN5@SetState_N
$LN4@SetState_N:

; 763  : 	this->Init(this->m_btFloorIndex);

  02334	8b 45 fc	 mov	 eax, DWORD PTR _this$[ebp]
  02337	0f b6 88 2c 02
	00 00		 movzx	 ecx, BYTE PTR [eax+556]
  0233e	51		 push	 ecx
  0233f	8b 4d fc	 mov	 ecx, DWORD PTR _this$[ebp]
  02342	e8 00 00 00 00	 call	 ?Init@CIllusionTempleProcess@@QAEXH@Z ; CIllusionTempleProcess::Init

; 764  : }

  02347	5f		 pop	 edi
  02348	5e		 pop	 esi
  02349	5b		 pop	 ebx
  0234a	8b e5		 mov	 esp, ebp
  0234c	5d		 pop	 ebp
  0234d	c3		 ret	 0
?SetState_NONE@CIllusionTempleProcess@@QAEXXZ ENDP	; CIllusionTempleProcess::SetState_NONE
_TEXT	ENDS
EXTRN	?GCSendIllusionTempleKillCount@@YAXHE@Z:PROC	; GCSendIllusionTempleKillCount
EXTRN	?m_i_IT_WaitTime@@3HA:DWORD			; m_i_IT_WaitTime
; Function compile flags: /Odtp /ZI
_TEXT	SEGMENT
_i$234168 = -8						; size = 4
_this$ = -4						; size = 4
?SetState_READY@CIllusionTempleProcess@@QAEXXZ PROC	; CIllusionTempleProcess::SetState_READY
; _this$ = ecx

; 767  : {

  02350	55		 push	 ebp
  02351	8b ec		 mov	 ebp, esp
  02353	83 ec 48	 sub	 esp, 72			; 00000048H
  02356	53		 push	 ebx
  02357	56		 push	 esi
  02358	57		 push	 edi
  02359	89 4d fc	 mov	 DWORD PTR _this$[ebp], ecx

; 768  : 	this->m_iEventBattleTimer = 1000 * (m_i_IT_WaitTime * 60);

  0235c	a1 00 00 00 00	 mov	 eax, DWORD PTR ?m_i_IT_WaitTime@@3HA ; m_i_IT_WaitTime
  02361	6b c0 3c	 imul	 eax, 60			; 0000003cH
  02364	69 c0 e8 03 00
	00		 imul	 eax, 1000		; 000003e8H
  0236a	8b 4d fc	 mov	 ecx, DWORD PTR _this$[ebp]
  0236d	89 81 9c 03 00
	00		 mov	 DWORD PTR [ecx+924], eax

; 769  : 
; 770  : 	this->NotifyTempleInfo(1,-1);

  02373	6a ff		 push	 -1
  02375	6a 01		 push	 1
  02377	8b 4d fc	 mov	 ecx, DWORD PTR _this$[ebp]
  0237a	e8 00 00 00 00	 call	 ?NotifyTempleInfo@CIllusionTempleProcess@@QAEXEH@Z ; CIllusionTempleProcess::NotifyTempleInfo

; 771  : 
; 772  : 	for( int i = 0; i < MAX_FLOOR_USER; i++ )

  0237f	c7 45 f8 00 00
	00 00		 mov	 DWORD PTR _i$234168[ebp], 0
  02386	eb 09		 jmp	 SHORT $LN5@SetState_R
$LN4@SetState_R:
  02388	8b 45 f8	 mov	 eax, DWORD PTR _i$234168[ebp]
  0238b	83 c0 01	 add	 eax, 1
  0238e	89 45 f8	 mov	 DWORD PTR _i$234168[ebp], eax
$LN5@SetState_R:
  02391	83 7d f8 0a	 cmp	 DWORD PTR _i$234168[ebp], 10 ; 0000000aH
  02395	7d 7d		 jge	 SHORT $LN6@SetState_R

; 773  : 	{
; 774  : 		if( this->m_FloorData[i].m_iTeamPlayerIndex != OBJ_EMPTY && gObj[this->m_FloorData[i].m_iTeamPlayerIndex].Connected > PLAYER_LOGGED)

  02397	8b 45 f8	 mov	 eax, DWORD PTR _i$234168[ebp]
  0239a	6b c0 30	 imul	 eax, 48			; 00000030H
  0239d	8b 4d fc	 mov	 ecx, DWORD PTR _this$[ebp]
  023a0	83 7c 01 20 ff	 cmp	 DWORD PTR [ecx+eax+32], -1
  023a5	74 68		 je	 SHORT $LN2@SetState_R
  023a7	8b 45 f8	 mov	 eax, DWORD PTR _i$234168[ebp]
  023aa	6b c0 30	 imul	 eax, 48			; 00000030H
  023ad	8b 4d fc	 mov	 ecx, DWORD PTR _this$[ebp]
  023b0	8b 54 01 20	 mov	 edx, DWORD PTR [ecx+eax+32]
  023b4	69 d2 38 2b 00
	00		 imul	 edx, 11064		; 00002b38H
  023ba	a1 00 00 00 00	 mov	 eax, DWORD PTR ?gObj@@3PAUOBJECTSTRUCT@@A ; gObj
  023bf	83 7c 10 04 02	 cmp	 DWORD PTR [eax+edx+4], 2
  023c4	7e 49		 jle	 SHORT $LN2@SetState_R

; 775  : 		{
; 776  : 			if( gObj[this->m_FloorData[i].m_iTeamPlayerIndex].MapNumber == (this->m_btFloorIndex + MAP_INDEX_ILLUSIONTEMPLE) )

  023c6	8b 45 f8	 mov	 eax, DWORD PTR _i$234168[ebp]
  023c9	6b c0 30	 imul	 eax, 48			; 00000030H
  023cc	8b 4d fc	 mov	 ecx, DWORD PTR _this$[ebp]
  023cf	8b 54 01 20	 mov	 edx, DWORD PTR [ecx+eax+32]
  023d3	69 d2 38 2b 00
	00		 imul	 edx, 11064		; 00002b38H
  023d9	a1 00 00 00 00	 mov	 eax, DWORD PTR ?gObj@@3PAUOBJECTSTRUCT@@A ; gObj
  023de	0f b6 8c 10 49
	01 00 00	 movzx	 ecx, BYTE PTR [eax+edx+329]
  023e6	8b 55 fc	 mov	 edx, DWORD PTR _this$[ebp]
  023e9	0f b6 82 2c 02
	00 00		 movzx	 eax, BYTE PTR [edx+556]
  023f0	83 c0 2d	 add	 eax, 45			; 0000002dH
  023f3	3b c8		 cmp	 ecx, eax
  023f5	75 18		 jne	 SHORT $LN2@SetState_R

; 777  : 			{
; 778  : 				::GCSendIllusionTempleKillCount(this->m_FloorData[i].m_iTeamPlayerIndex, 10); //10 Points

  023f7	6a 0a		 push	 10			; 0000000aH
  023f9	8b 45 f8	 mov	 eax, DWORD PTR _i$234168[ebp]
  023fc	6b c0 30	 imul	 eax, 48			; 00000030H
  023ff	8b 4d fc	 mov	 ecx, DWORD PTR _this$[ebp]
  02402	8b 54 01 20	 mov	 edx, DWORD PTR [ecx+eax+32]
  02406	52		 push	 edx
  02407	e8 00 00 00 00	 call	 ?GCSendIllusionTempleKillCount@@YAXHE@Z ; GCSendIllusionTempleKillCount
  0240c	83 c4 08	 add	 esp, 8
$LN2@SetState_R:

; 779  : #if(DEBUG_IT == 1)
; 780  : 				GCServerMsgStringSend("CIllusionTempleProcess::SetState_READY()", this->m_FloorData[i].m_iTeamPlayerIndex, 0);
; 781  : #endif
; 782  : 			}
; 783  : 		}
; 784  : 	}

  0240f	e9 74 ff ff ff	 jmp	 $LN4@SetState_R
$LN6@SetState_R:

; 785  : }

  02414	5f		 pop	 edi
  02415	5e		 pop	 esi
  02416	5b		 pop	 ebx
  02417	8b e5		 mov	 esp, ebp
  02419	5d		 pop	 ebp
  0241a	c3		 ret	 0
?SetState_READY@CIllusionTempleProcess@@QAEXXZ ENDP	; CIllusionTempleProcess::SetState_READY
_TEXT	ENDS
PUBLIC	?SetNpcStatueRegen@CIllusionTempleProcess@@QAEXXZ ; CIllusionTempleProcess::SetNpcStatueRegen
PUBLIC	?CreateMonsterToBattle@CIllusionTempleProcess@@QAEXXZ ; CIllusionTempleProcess::CreateMonsterToBattle
PUBLIC	?CreateNPC@CIllusionTempleProcess@@QAEXXZ	; CIllusionTempleProcess::CreateNPC
PUBLIC	?CreateNPCStatus@CIllusionTempleProcess@@QAEXXZ	; CIllusionTempleProcess::CreateNPCStatus
EXTRN	?m_i_IT_PlayTime@@3HA:DWORD			; m_i_IT_PlayTime
; Function compile flags: /Odtp /ZI
_TEXT	SEGMENT
_this$ = -4						; size = 4
?SetState_PLAYING@CIllusionTempleProcess@@QAEXXZ PROC	; CIllusionTempleProcess::SetState_PLAYING
; _this$ = ecx

; 788  : {

  02420	55		 push	 ebp
  02421	8b ec		 mov	 ebp, esp
  02423	83 ec 44	 sub	 esp, 68			; 00000044H
  02426	53		 push	 ebx
  02427	56		 push	 esi
  02428	57		 push	 edi
  02429	89 4d fc	 mov	 DWORD PTR _this$[ebp], ecx

; 789  : 	this->m_iEventBattleTimer = 1000 * (m_i_IT_PlayTime * 60);

  0242c	a1 00 00 00 00	 mov	 eax, DWORD PTR ?m_i_IT_PlayTime@@3HA ; m_i_IT_PlayTime
  02431	6b c0 3c	 imul	 eax, 60			; 0000003cH
  02434	69 c0 e8 03 00
	00		 imul	 eax, 1000		; 000003e8H
  0243a	8b 4d fc	 mov	 ecx, DWORD PTR _this$[ebp]
  0243d	89 81 9c 03 00
	00		 mov	 DWORD PTR [ecx+924], eax

; 790  : 
; 791  : 	this->CreateNPCStatus();

  02443	8b 4d fc	 mov	 ecx, DWORD PTR _this$[ebp]
  02446	e8 00 00 00 00	 call	 ?CreateNPCStatus@CIllusionTempleProcess@@QAEXXZ ; CIllusionTempleProcess::CreateNPCStatus

; 792  : 	this->CreateNPC();

  0244b	8b 4d fc	 mov	 ecx, DWORD PTR _this$[ebp]
  0244e	e8 00 00 00 00	 call	 ?CreateNPC@CIllusionTempleProcess@@QAEXXZ ; CIllusionTempleProcess::CreateNPC

; 793  : 	this->CreateMonsterToBattle();

  02453	8b 4d fc	 mov	 ecx, DWORD PTR _this$[ebp]
  02456	e8 00 00 00 00	 call	 ?CreateMonsterToBattle@CIllusionTempleProcess@@QAEXXZ ; CIllusionTempleProcess::CreateMonsterToBattle

; 794  : 	this->SetNpcStatueRegen();

  0245b	8b 4d fc	 mov	 ecx, DWORD PTR _this$[ebp]
  0245e	e8 00 00 00 00	 call	 ?SetNpcStatueRegen@CIllusionTempleProcess@@QAEXXZ ; CIllusionTempleProcess::SetNpcStatueRegen

; 795  : 	this->NotifyTempleInfo(2,-1);

  02463	6a ff		 push	 -1
  02465	6a 02		 push	 2
  02467	8b 4d fc	 mov	 ecx, DWORD PTR _this$[ebp]
  0246a	e8 00 00 00 00	 call	 ?NotifyTempleInfo@CIllusionTempleProcess@@QAEXEH@Z ; CIllusionTempleProcess::NotifyTempleInfo

; 796  : 
; 797  : #if(DEBUG_IT == 1)
; 798  : 	for( int i = 0; i < MAX_FLOOR_USER; i++ )
; 799  : 	{
; 800  : 		if( this->m_FloorData[i].m_iTeamPlayerIndex != OBJ_EMPTY && gObj[this->m_FloorData[i].m_iTeamPlayerIndex].Connected > PLAYER_LOGGED)
; 801  : 		{
; 802  : 			if( gObj[this->m_FloorData[i].m_iTeamPlayerIndex].MapNumber == (this->m_btFloorIndex + MAP_INDEX_ILLUSIONTEMPLE) )
; 803  : 			{
; 804  : 				GCServerMsgStringSend("CIllusionTempleProcess::SetState_PLAYING()", this->m_FloorData[i].m_iTeamPlayerIndex, 0);
; 805  : 			}
; 806  : 		}
; 807  : 	}
; 808  : #endif
; 809  : }

  0246f	5f		 pop	 edi
  02470	5e		 pop	 esi
  02471	5b		 pop	 ebx
  02472	8b e5		 mov	 esp, ebp
  02474	5d		 pop	 ebp
  02475	c3		 ret	 0
?SetState_PLAYING@CIllusionTempleProcess@@QAEXXZ ENDP	; CIllusionTempleProcess::SetState_PLAYING
_TEXT	ENDS
PUBLIC	?ClearAllBattleObjects@CIllusionTempleProcess@@QAEXXZ ; CIllusionTempleProcess::ClearAllBattleObjects
PUBLIC	?GCIllusionTempleSkillCancel@CIllusionTempleProcess@@QAEXPAUOBJECTSTRUCT@@G@Z ; CIllusionTempleProcess::GCIllusionTempleSkillCancel
EXTRN	?gObjRemoveBuffEffect@@YAEPAUOBJECTSTRUCT@@H@Z:PROC ; gObjRemoveBuffEffect
; Function compile flags: /Odtp /ZI
_TEXT	SEGMENT
_i$234180 = -8						; size = 4
_this$ = -4						; size = 4
?SetState_END@CIllusionTempleProcess@@QAEXXZ PROC	; CIllusionTempleProcess::SetState_END
; _this$ = ecx

; 812  : {

  02480	55		 push	 ebp
  02481	8b ec		 mov	 ebp, esp
  02483	83 ec 48	 sub	 esp, 72			; 00000048H
  02486	53		 push	 ebx
  02487	56		 push	 esi
  02488	57		 push	 edi
  02489	89 4d fc	 mov	 DWORD PTR _this$[ebp], ecx

; 813  : 	this->m_iEventBattleTimer = 1000 * (m_i_IT_RestTime * 60);

  0248c	a1 00 00 00 00	 mov	 eax, DWORD PTR ?m_i_IT_RestTime@@3HA ; m_i_IT_RestTime
  02491	6b c0 3c	 imul	 eax, 60			; 0000003cH
  02494	69 c0 e8 03 00
	00		 imul	 eax, 1000		; 000003e8H
  0249a	8b 4d fc	 mov	 ecx, DWORD PTR _this$[ebp]
  0249d	89 81 9c 03 00
	00		 mov	 DWORD PTR [ecx+924], eax

; 814  : 
; 815  : 	this->NotifyTempleInfo(3,-1);

  024a3	6a ff		 push	 -1
  024a5	6a 03		 push	 3
  024a7	8b 4d fc	 mov	 ecx, DWORD PTR _this$[ebp]
  024aa	e8 00 00 00 00	 call	 ?NotifyTempleInfo@CIllusionTempleProcess@@QAEXEH@Z ; CIllusionTempleProcess::NotifyTempleInfo

; 816  : 
; 817  : 	for( int i = 0; i < MAX_FLOOR_USER; i++ )

  024af	c7 45 f8 00 00
	00 00		 mov	 DWORD PTR _i$234180[ebp], 0
  024b6	eb 09		 jmp	 SHORT $LN7@SetState_E
$LN6@SetState_E:
  024b8	8b 45 f8	 mov	 eax, DWORD PTR _i$234180[ebp]
  024bb	83 c0 01	 add	 eax, 1
  024be	89 45 f8	 mov	 DWORD PTR _i$234180[ebp], eax
$LN7@SetState_E:
  024c1	83 7d f8 0a	 cmp	 DWORD PTR _i$234180[ebp], 10 ; 0000000aH
  024c5	0f 8d 49 01 00
	00		 jge	 $LN5@SetState_E

; 818  : 	{
; 819  : 		if( this->m_FloorData[i].m_iTeamPlayerIndex != OBJ_EMPTY && gObj[this->m_FloorData[i].m_iTeamPlayerIndex].Connected > PLAYER_LOGGED)

  024cb	8b 45 f8	 mov	 eax, DWORD PTR _i$234180[ebp]
  024ce	6b c0 30	 imul	 eax, 48			; 00000030H
  024d1	8b 4d fc	 mov	 ecx, DWORD PTR _this$[ebp]
  024d4	83 7c 01 20 ff	 cmp	 DWORD PTR [ecx+eax+32], -1
  024d9	0f 84 30 01 00
	00		 je	 $LN4@SetState_E
  024df	8b 45 f8	 mov	 eax, DWORD PTR _i$234180[ebp]
  024e2	6b c0 30	 imul	 eax, 48			; 00000030H
  024e5	8b 4d fc	 mov	 ecx, DWORD PTR _this$[ebp]
  024e8	8b 54 01 20	 mov	 edx, DWORD PTR [ecx+eax+32]
  024ec	69 d2 38 2b 00
	00		 imul	 edx, 11064		; 00002b38H
  024f2	a1 00 00 00 00	 mov	 eax, DWORD PTR ?gObj@@3PAUOBJECTSTRUCT@@A ; gObj
  024f7	83 7c 10 04 02	 cmp	 DWORD PTR [eax+edx+4], 2
  024fc	0f 8e 0d 01 00
	00		 jle	 $LN4@SetState_E

; 820  : 		{
; 821  : 			if( gObj[this->m_FloorData[i].m_iTeamPlayerIndex].MapNumber == (this->m_btFloorIndex + MAP_INDEX_ILLUSIONTEMPLE) )

  02502	8b 45 f8	 mov	 eax, DWORD PTR _i$234180[ebp]
  02505	6b c0 30	 imul	 eax, 48			; 00000030H
  02508	8b 4d fc	 mov	 ecx, DWORD PTR _this$[ebp]
  0250b	8b 54 01 20	 mov	 edx, DWORD PTR [ecx+eax+32]
  0250f	69 d2 38 2b 00
	00		 imul	 edx, 11064		; 00002b38H
  02515	a1 00 00 00 00	 mov	 eax, DWORD PTR ?gObj@@3PAUOBJECTSTRUCT@@A ; gObj
  0251a	0f b6 8c 10 49
	01 00 00	 movzx	 ecx, BYTE PTR [eax+edx+329]
  02522	8b 55 fc	 mov	 edx, DWORD PTR _this$[ebp]
  02525	0f b6 82 2c 02
	00 00		 movzx	 eax, BYTE PTR [edx+556]
  0252c	83 c0 2d	 add	 eax, 45			; 0000002dH
  0252f	3b c8		 cmp	 ecx, eax
  02531	0f 85 d8 00 00
	00		 jne	 $LN4@SetState_E

; 822  : 			{
; 823  : 				if(this->m_FloorData[i].m_dwShieldSpellTime > 0)

  02537	8b 45 f8	 mov	 eax, DWORD PTR _i$234180[ebp]
  0253a	6b c0 30	 imul	 eax, 48			; 00000030H
  0253d	8b 4d fc	 mov	 ecx, DWORD PTR _this$[ebp]
  02540	83 7c 01 28 00	 cmp	 DWORD PTR [ecx+eax+40], 0
  02545	76 5c		 jbe	 SHORT $LN2@SetState_E

; 824  : 				{
; 825  : 					this->m_FloorData[i].m_dwShieldSpellTime = 0;

  02547	8b 45 f8	 mov	 eax, DWORD PTR _i$234180[ebp]
  0254a	6b c0 30	 imul	 eax, 48			; 00000030H
  0254d	8b 4d fc	 mov	 ecx, DWORD PTR _this$[ebp]
  02550	c7 44 01 28 00
	00 00 00	 mov	 DWORD PTR [ecx+eax+40], 0

; 826  : 					gObjRemoveBuffEffect(&gObj[this->m_FloorData[i].m_iTeamPlayerIndex], AT_ILLUSION_SHIELD_SPELL); //season 3.0 add-on

  02558	6a 22		 push	 34			; 00000022H
  0255a	8b 45 f8	 mov	 eax, DWORD PTR _i$234180[ebp]
  0255d	6b c0 30	 imul	 eax, 48			; 00000030H
  02560	8b 4d fc	 mov	 ecx, DWORD PTR _this$[ebp]
  02563	8b 54 01 20	 mov	 edx, DWORD PTR [ecx+eax+32]
  02567	69 d2 38 2b 00
	00		 imul	 edx, 11064		; 00002b38H
  0256d	03 15 00 00 00
	00		 add	 edx, DWORD PTR ?gObj@@3PAUOBJECTSTRUCT@@A ; gObj
  02573	52		 push	 edx
  02574	e8 00 00 00 00	 call	 ?gObjRemoveBuffEffect@@YAEPAUOBJECTSTRUCT@@H@Z ; gObjRemoveBuffEffect
  02579	83 c4 08	 add	 esp, 8

; 827  : 					this->GCIllusionTempleSkillCancel(&gObj[this->m_FloorData[i].m_iTeamPlayerIndex], 210);

  0257c	68 d2 00 00 00	 push	 210			; 000000d2H
  02581	8b 45 f8	 mov	 eax, DWORD PTR _i$234180[ebp]
  02584	6b c0 30	 imul	 eax, 48			; 00000030H
  02587	8b 4d fc	 mov	 ecx, DWORD PTR _this$[ebp]
  0258a	8b 54 01 20	 mov	 edx, DWORD PTR [ecx+eax+32]
  0258e	69 d2 38 2b 00
	00		 imul	 edx, 11064		; 00002b38H
  02594	03 15 00 00 00
	00		 add	 edx, DWORD PTR ?gObj@@3PAUOBJECTSTRUCT@@A ; gObj
  0259a	52		 push	 edx
  0259b	8b 4d fc	 mov	 ecx, DWORD PTR _this$[ebp]
  0259e	e8 00 00 00 00	 call	 ?GCIllusionTempleSkillCancel@CIllusionTempleProcess@@QAEXPAUOBJECTSTRUCT@@G@Z ; CIllusionTempleProcess::GCIllusionTempleSkillCancel
$LN2@SetState_E:

; 828  : 				}
; 829  : 
; 830  : 				if(this->m_FloorData[i].m_dwRestrictionSpellTime > 0)

  025a3	8b 45 f8	 mov	 eax, DWORD PTR _i$234180[ebp]
  025a6	6b c0 30	 imul	 eax, 48			; 00000030H
  025a9	8b 4d fc	 mov	 ecx, DWORD PTR _this$[ebp]
  025ac	83 7c 01 2c 00	 cmp	 DWORD PTR [ecx+eax+44], 0
  025b1	76 5c		 jbe	 SHORT $LN4@SetState_E

; 831  : 				{
; 832  : 					this->m_FloorData[i].m_dwRestrictionSpellTime = 0;

  025b3	8b 45 f8	 mov	 eax, DWORD PTR _i$234180[ebp]
  025b6	6b c0 30	 imul	 eax, 48			; 00000030H
  025b9	8b 4d fc	 mov	 ecx, DWORD PTR _this$[ebp]
  025bc	c7 44 01 2c 00
	00 00 00	 mov	 DWORD PTR [ecx+eax+44], 0

; 833  : 					gObjRemoveBuffEffect(&gObj[this->m_FloorData[i].m_iTeamPlayerIndex], AT_ILLUSION_RESTRICTION_SPELL); //season 3.0 add-on

  025c4	6a 41		 push	 65			; 00000041H
  025c6	8b 45 f8	 mov	 eax, DWORD PTR _i$234180[ebp]
  025c9	6b c0 30	 imul	 eax, 48			; 00000030H
  025cc	8b 4d fc	 mov	 ecx, DWORD PTR _this$[ebp]
  025cf	8b 54 01 20	 mov	 edx, DWORD PTR [ecx+eax+32]
  025d3	69 d2 38 2b 00
	00		 imul	 edx, 11064		; 00002b38H
  025d9	03 15 00 00 00
	00		 add	 edx, DWORD PTR ?gObj@@3PAUOBJECTSTRUCT@@A ; gObj
  025df	52		 push	 edx
  025e0	e8 00 00 00 00	 call	 ?gObjRemoveBuffEffect@@YAEPAUOBJECTSTRUCT@@H@Z ; gObjRemoveBuffEffect
  025e5	83 c4 08	 add	 esp, 8

; 834  : 					this->GCIllusionTempleSkillCancel(&gObj[this->m_FloorData[i].m_iTeamPlayerIndex], 211);

  025e8	68 d3 00 00 00	 push	 211			; 000000d3H
  025ed	8b 45 f8	 mov	 eax, DWORD PTR _i$234180[ebp]
  025f0	6b c0 30	 imul	 eax, 48			; 00000030H
  025f3	8b 4d fc	 mov	 ecx, DWORD PTR _this$[ebp]
  025f6	8b 54 01 20	 mov	 edx, DWORD PTR [ecx+eax+32]
  025fa	69 d2 38 2b 00
	00		 imul	 edx, 11064		; 00002b38H
  02600	03 15 00 00 00
	00		 add	 edx, DWORD PTR ?gObj@@3PAUOBJECTSTRUCT@@A ; gObj
  02606	52		 push	 edx
  02607	8b 4d fc	 mov	 ecx, DWORD PTR _this$[ebp]
  0260a	e8 00 00 00 00	 call	 ?GCIllusionTempleSkillCancel@CIllusionTempleProcess@@QAEXPAUOBJECTSTRUCT@@G@Z ; CIllusionTempleProcess::GCIllusionTempleSkillCancel
$LN4@SetState_E:

; 835  : 				}
; 836  : #if(DEBUG_IT == 1)
; 837  : 				GCServerMsgStringSend("CIllusionTempleProcess::SetState_END()", this->m_FloorData[i].m_iTeamPlayerIndex, 0);
; 838  : #endif
; 839  : 			}
; 840  : 		}
; 841  : 	}

  0260f	e9 a4 fe ff ff	 jmp	 $LN6@SetState_E
$LN5@SetState_E:

; 842  : 
; 843  : 	this->ClearAllBattleObjects();

  02614	8b 4d fc	 mov	 ecx, DWORD PTR _this$[ebp]
  02617	e8 00 00 00 00	 call	 ?ClearAllBattleObjects@CIllusionTempleProcess@@QAEXXZ ; CIllusionTempleProcess::ClearAllBattleObjects

; 844  : }

  0261c	5f		 pop	 edi
  0261d	5e		 pop	 esi
  0261e	5b		 pop	 ebx
  0261f	8b e5		 mov	 esp, ebp
  02621	5d		 pop	 ebp
  02622	c3		 ret	 0
?SetState_END@CIllusionTempleProcess@@QAEXXZ ENDP	; CIllusionTempleProcess::SetState_END
_TEXT	ENDS
PUBLIC	??_C@_0CG@IGMLEOMK@Enter?5Error?3?5IllusionTempleIndex@ ; `string'
PUBLIC	?__LINE__Var@?1??AddBattleUser@CIllusionTempleProcess@@QAEHHEE@Z@4JA ; `CIllusionTempleProcess::AddBattleUser'::`2'::__LINE__Var
PUBLIC	?AddBattleUser@CIllusionTempleProcess@@QAEHHEE@Z ; CIllusionTempleProcess::AddBattleUser
EXTRN	__imp__LeaveCriticalSection@4:PROC
EXTRN	__imp__EnterCriticalSection@4:PROC
;	COMDAT ??_C@_0CG@IGMLEOMK@Enter?5Error?3?5IllusionTempleIndex@
CONST	SEGMENT
??_C@_0CG@IGMLEOMK@Enter?5Error?3?5IllusionTempleIndex@ DB 'Enter Error: '
	DB	'IllusionTempleIndex Fail', 00H		; `string'
CONST	ENDS
;	COMDAT ?__LINE__Var@?1??AddBattleUser@CIllusionTempleProcess@@QAEHHEE@Z@4JA
_DATA	SEGMENT
?__LINE__Var@?1??AddBattleUser@CIllusionTempleProcess@@QAEHHEE@Z@4JA DD 034fH ; `CIllusionTempleProcess::AddBattleUser'::`2'::__LINE__Var
; Function compile flags: /Odtp /ZI
_DATA	ENDS
_TEXT	SEGMENT
tv67 = -84						; size = 4
_i$234203 = -16						; size = 4
_loc3$ = -12						; size = 4
_loc2$ = -8						; size = 4
_this$ = -4						; size = 4
_aIndex$ = 8						; size = 4
_pos$ = 12						; size = 1
_pos_dur$ = 16						; size = 1
?AddBattleUser@CIllusionTempleProcess@@QAEHHEE@Z PROC	; CIllusionTempleProcess::AddBattleUser
; _this$ = ecx

; 847  : {

  02630	55		 push	 ebp
  02631	8b ec		 mov	 ebp, esp
  02633	83 ec 54	 sub	 esp, 84			; 00000054H
  02636	53		 push	 ebx
  02637	56		 push	 esi
  02638	57		 push	 edi
  02639	89 4d fc	 mov	 DWORD PTR _this$[ebp], ecx

; 848  : 	int loc2;
; 849  : 	int loc3;
; 850  : 
; 851  : 	if( OBJMAX_RANGE(aIndex) == FALSE )

  0263c	83 7d 08 00	 cmp	 DWORD PTR _aIndex$[ebp], 0
  02640	7d 09		 jge	 SHORT $LN12@AddBattleU
  02642	c7 45 ac 00 00
	00 00		 mov	 DWORD PTR tv67[ebp], 0
  02649	eb 0f		 jmp	 SHORT $LN13@AddBattleU
$LN12@AddBattleU:
  0264b	33 c0		 xor	 eax, eax
  0264d	81 7d 08 97 3a
	00 00		 cmp	 DWORD PTR _aIndex$[ebp], 14999 ; 00003a97H
  02654	0f 9e c0	 setle	 al
  02657	89 45 ac	 mov	 DWORD PTR tv67[ebp], eax
$LN13@AddBattleU:
  0265a	83 7d ac 00	 cmp	 DWORD PTR tv67[ebp], 0
  0265e	75 23		 jne	 SHORT $LN9@AddBattleU

; 852  : 	{
; 853  : 		LogAdd("return %s %d", __FILE__, __LINE__);

  02660	a1 00 00 00 00	 mov	 eax, DWORD PTR ?__LINE__Var@?1??AddBattleUser@CIllusionTempleProcess@@QAEHHEE@Z@4JA
  02665	83 c0 06	 add	 eax, 6
  02668	50		 push	 eax
  02669	68 00 00 00 00	 push	 OFFSET ??_C@_0EN@FIHDICBF@d?3?2projects?2exteam6?43?2source?2gam@
  0266e	68 00 00 00 00	 push	 OFFSET ??_C@_0N@GGPGOPEN@return?5?$CFs?5?$CFd?$AA@
  02673	ff 15 00 00 00
	00		 call	 DWORD PTR ?LogAdd@@3P6AXPADZZA ; LogAdd
  02679	83 c4 0c	 add	 esp, 12			; 0000000cH

; 854  : 		return FALSE;

  0267c	33 c0		 xor	 eax, eax
  0267e	e9 4e 01 00 00	 jmp	 $LN10@AddBattleU
$LN9@AddBattleU:

; 855  : 	}
; 856  : 
; 857  : 	if(this->GetState() >= 1)

  02683	8b 4d fc	 mov	 ecx, DWORD PTR _this$[ebp]
  02686	e8 00 00 00 00	 call	 ?GetState@CIllusionTempleProcess@@QAEEXZ ; CIllusionTempleProcess::GetState
  0268b	0f b6 c0	 movzx	 eax, al
  0268e	83 f8 01	 cmp	 eax, 1
  02691	7c 07		 jl	 SHORT $LN8@AddBattleU

; 858  : 	{
; 859  : 		return FALSE;

  02693	33 c0		 xor	 eax, eax
  02695	e9 37 01 00 00	 jmp	 $LN10@AddBattleU
$LN8@AddBattleU:

; 860  : 	}
; 861  : 
; 862  : 	if(gObj[aIndex].m_iIllusionTempleIndex != -1)

  0269a	8b 45 08	 mov	 eax, DWORD PTR _aIndex$[ebp]
  0269d	69 c0 38 2b 00
	00		 imul	 eax, 11064		; 00002b38H
  026a3	8b 0d 00 00 00
	00		 mov	 ecx, DWORD PTR ?gObj@@3PAUOBJECTSTRUCT@@A ; gObj
  026a9	83 bc 01 78 20
	00 00 ff	 cmp	 DWORD PTR [ecx+eax+8312], -1
  026b1	74 15		 je	 SHORT $LN7@AddBattleU

; 863  : 	{
; 864  : 		LogAddTD("Enter Error: IllusionTempleIndex Fail");

  026b3	68 00 00 00 00	 push	 OFFSET ??_C@_0CG@IGMLEOMK@Enter?5Error?3?5IllusionTempleIndex@
  026b8	ff 15 00 00 00
	00		 call	 DWORD PTR ?LogAddTD@@3P6AXPADZZA ; LogAddTD
  026be	83 c4 04	 add	 esp, 4

; 865  : 		return FALSE;

  026c1	33 c0		 xor	 eax, eax
  026c3	e9 09 01 00 00	 jmp	 $LN10@AddBattleU
$LN7@AddBattleU:

; 866  : 	}
; 867  : 
; 868  : 	loc2 = this->FindItemBallPosition(aIndex);

  026c8	8b 45 08	 mov	 eax, DWORD PTR _aIndex$[ebp]
  026cb	50		 push	 eax
  026cc	8b 4d fc	 mov	 ecx, DWORD PTR _this$[ebp]
  026cf	e8 00 00 00 00	 call	 ?FindItemBallPosition@CIllusionTempleProcess@@QAEHH@Z ; CIllusionTempleProcess::FindItemBallPosition
  026d4	89 45 f8	 mov	 DWORD PTR _loc2$[ebp], eax

; 869  : 
; 870  : 	if(loc2 >= 0)

  026d7	83 7d f8 00	 cmp	 DWORD PTR _loc2$[ebp], 0
  026db	7c 4f		 jl	 SHORT $LN6@AddBattleU

; 871  : 	{
; 872  : 		if( gObj[aIndex].pInventory[loc2].m_Type == ITEMGET(14,64) ) //Ball

  026dd	8b 45 08	 mov	 eax, DWORD PTR _aIndex$[ebp]
  026e0	69 c0 38 2b 00
	00		 imul	 eax, 11064		; 00002b38H
  026e6	8b 4d f8	 mov	 ecx, DWORD PTR _loc2$[ebp]
  026e9	69 c9 d4 00 00
	00		 imul	 ecx, 212		; 000000d4H
  026ef	8b 15 00 00 00
	00		 mov	 edx, DWORD PTR ?gObj@@3PAUOBJECTSTRUCT@@A ; gObj
  026f5	8b 84 02 24 0e
	00 00		 mov	 eax, DWORD PTR [edx+eax+3620]
  026fc	0f bf 4c 08 06	 movsx	 ecx, WORD PTR [eax+ecx+6]
  02701	81 f9 40 1c 00
	00		 cmp	 ecx, 7232		; 00001c40H
  02707	75 23		 jne	 SHORT $LN6@AddBattleU

; 873  : 		{
; 874  : 			::gObjInventoryDeleteItem(aIndex, loc2);

  02709	8b 45 f8	 mov	 eax, DWORD PTR _loc2$[ebp]
  0270c	50		 push	 eax
  0270d	8b 4d 08	 mov	 ecx, DWORD PTR _aIndex$[ebp]
  02710	51		 push	 ecx
  02711	e8 00 00 00 00	 call	 ?gObjInventoryDeleteItem@@YAEHH@Z ; gObjInventoryDeleteItem
  02716	83 c4 08	 add	 esp, 8

; 875  : 			::GCInventoryItemDeleteSend(aIndex, loc2, 0);

  02719	6a 00		 push	 0
  0271b	0f b6 45 f8	 movzx	 eax, BYTE PTR _loc2$[ebp]
  0271f	50		 push	 eax
  02720	8b 4d 08	 mov	 ecx, DWORD PTR _aIndex$[ebp]
  02723	51		 push	 ecx
  02724	e8 00 00 00 00	 call	 ?GCInventoryItemDeleteSend@@YAXHEE@Z ; GCInventoryItemDeleteSend
  02729	83 c4 0c	 add	 esp, 12			; 0000000cH
$LN6@AddBattleU:

; 876  : 		}
; 877  : 	}
; 878  : 
; 879  : 	loc3 = 0;

  0272c	c7 45 f4 00 00
	00 00		 mov	 DWORD PTR _loc3$[ebp], 0

; 880  : 
; 881  : 	EnterCriticalSection(&this->m_cs);

  02733	8b 45 fc	 mov	 eax, DWORD PTR _this$[ebp]
  02736	83 c0 08	 add	 eax, 8
  02739	50		 push	 eax
  0273a	ff 15 00 00 00
	00		 call	 DWORD PTR __imp__EnterCriticalSection@4

; 882  : 
; 883  : 	for( int i = 0; i < MAX_FLOOR_USER; i++ )

  02740	c7 45 f0 00 00
	00 00		 mov	 DWORD PTR _i$234203[ebp], 0
  02747	eb 09		 jmp	 SHORT $LN4@AddBattleU
$LN3@AddBattleU:
  02749	8b 45 f0	 mov	 eax, DWORD PTR _i$234203[ebp]
  0274c	83 c0 01	 add	 eax, 1
  0274f	89 45 f0	 mov	 DWORD PTR _i$234203[ebp], eax
$LN4@AddBattleU:
  02752	83 7d f0 0a	 cmp	 DWORD PTR _i$234203[ebp], 10 ; 0000000aH
  02756	7d 69		 jge	 SHORT $LN2@AddBattleU

; 884  : 	{
; 885  : 		if( this->m_FloorData[i].m_iTeamPlayerIndex == OBJ_EMPTY )

  02758	8b 45 f0	 mov	 eax, DWORD PTR _i$234203[ebp]
  0275b	6b c0 30	 imul	 eax, 48			; 00000030H
  0275e	8b 4d fc	 mov	 ecx, DWORD PTR _this$[ebp]
  02761	83 7c 01 20 ff	 cmp	 DWORD PTR [ecx+eax+32], -1
  02766	75 57		 jne	 SHORT $LN1@AddBattleU

; 886  : 		{
; 887  : 			this->m_FloorData[i].m_iTeamPlayerIndex = aIndex;

  02768	8b 45 f0	 mov	 eax, DWORD PTR _i$234203[ebp]
  0276b	6b c0 30	 imul	 eax, 48			; 00000030H
  0276e	8b 4d fc	 mov	 ecx, DWORD PTR _this$[ebp]
  02771	8b 55 08	 mov	 edx, DWORD PTR _aIndex$[ebp]
  02774	89 54 01 20	 mov	 DWORD PTR [ecx+eax+32], edx

; 888  : 			this->m_iEnteredUserCount++;

  02778	8b 45 fc	 mov	 eax, DWORD PTR _this$[ebp]
  0277b	8b 88 28 02 00
	00		 mov	 ecx, DWORD PTR [eax+552]
  02781	83 c1 01	 add	 ecx, 1
  02784	8b 55 fc	 mov	 edx, DWORD PTR _this$[ebp]
  02787	89 8a 28 02 00
	00		 mov	 DWORD PTR [edx+552], ecx

; 889  : 			gObj[aIndex].m_iIllusionTempleIndex = i;

  0278d	8b 45 08	 mov	 eax, DWORD PTR _aIndex$[ebp]
  02790	69 c0 38 2b 00
	00		 imul	 eax, 11064		; 00002b38H
  02796	8b 0d 00 00 00
	00		 mov	 ecx, DWORD PTR ?gObj@@3PAUOBJECTSTRUCT@@A ; gObj
  0279c	8b 55 f0	 mov	 edx, DWORD PTR _i$234203[ebp]
  0279f	89 94 01 78 20
	00 00		 mov	 DWORD PTR [ecx+eax+8312], edx

; 890  : 			loc3 = 1;

  027a6	c7 45 f4 01 00
	00 00		 mov	 DWORD PTR _loc3$[ebp], 1

; 891  : 			this->m_FloorData[i].m_btPosNDur = pos_dur; //webzen fix for ticket durability

  027ad	8b 45 f0	 mov	 eax, DWORD PTR _i$234203[ebp]
  027b0	6b c0 30	 imul	 eax, 48			; 00000030H
  027b3	8b 4d fc	 mov	 ecx, DWORD PTR _this$[ebp]
  027b6	8a 55 10	 mov	 dl, BYTE PTR _pos_dur$[ebp]
  027b9	88 54 01 48	 mov	 BYTE PTR [ecx+eax+72], dl

; 892  : 			break;

  027bd	eb 02		 jmp	 SHORT $LN2@AddBattleU
$LN1@AddBattleU:

; 893  : 		}
; 894  : 	}

  027bf	eb 88		 jmp	 SHORT $LN3@AddBattleU
$LN2@AddBattleU:

; 895  : 
; 896  : 	LeaveCriticalSection(&this->m_cs);

  027c1	8b 45 fc	 mov	 eax, DWORD PTR _this$[ebp]
  027c4	83 c0 08	 add	 eax, 8
  027c7	50		 push	 eax
  027c8	ff 15 00 00 00
	00		 call	 DWORD PTR __imp__LeaveCriticalSection@4

; 897  : 
; 898  : 	return loc3;

  027ce	8b 45 f4	 mov	 eax, DWORD PTR _loc3$[ebp]
$LN10@AddBattleU:

; 899  : }

  027d1	5f		 pop	 edi
  027d2	5e		 pop	 esi
  027d3	5b		 pop	 ebx
  027d4	8b e5		 mov	 esp, ebp
  027d6	5d		 pop	 ebp
  027d7	c2 0c 00	 ret	 12			; 0000000cH
?AddBattleUser@CIllusionTempleProcess@@QAEHHEE@Z ENDP	; CIllusionTempleProcess::AddBattleUser
_TEXT	ENDS
PUBLIC	??_C@_0CL@PJKIAECJ@?$FLIllusion?5Temple?$FN?5?$CI?$CFd?$CJ?5LeaveUser@ ; `string'
PUBLIC	?__LINE__Var@?1??LeaveBattleUser@CIllusionTempleProcess@@QAEHH@Z@4JA ; `CIllusionTempleProcess::LeaveBattleUser'::`2'::__LINE__Var
PUBLIC	?LeaveBattleUser@CIllusionTempleProcess@@QAEHH@Z ; CIllusionTempleProcess::LeaveBattleUser
EXTRN	?CGPartyDelUser@@YAXPAUPMSG_PARTYDELUSER@@H@Z:PROC ; CGPartyDelUser
EXTRN	?GetIndex@PartyClass@@QAEHHHH@Z:PROC		; PartyClass::GetIndex
EXTRN	?IsItem@CItem@@QAEHXZ:PROC			; CItem::IsItem
;	COMDAT ??_C@_0CL@PJKIAECJ@?$FLIllusion?5Temple?$FN?5?$CI?$CFd?$CJ?5LeaveUser@
CONST	SEGMENT
??_C@_0CL@PJKIAECJ@?$FLIllusion?5Temple?$FN?5?$CI?$CFd?$CJ?5LeaveUser@ DB '['
	DB	'Illusion Temple] (%d) LeaveUser: (%s)(%s)', 00H ; `string'
CONST	ENDS
;	COMDAT ?__LINE__Var@?1??LeaveBattleUser@CIllusionTempleProcess@@QAEHH@Z@4JA
_DATA	SEGMENT
?__LINE__Var@?1??LeaveBattleUser@CIllusionTempleProcess@@QAEHH@Z@4JA DD 0386H ; `CIllusionTempleProcess::LeaveBattleUser'::`2'::__LINE__Var
; Function compile flags: /Odtp /ZI
_DATA	ENDS
_TEXT	SEGMENT
tv67 = -88						; size = 4
_Index$234230 = -20					; size = 4
_pMsg$234229 = -16					; size = 4
_lpItem$234218 = -12					; size = 4
_FloorData$234216 = -8					; size = 4
_this$ = -4						; size = 4
_aIndex$ = 8						; size = 4
?LeaveBattleUser@CIllusionTempleProcess@@QAEHH@Z PROC	; CIllusionTempleProcess::LeaveBattleUser
; _this$ = ecx

; 902  : {

  027e0	55		 push	 ebp
  027e1	8b ec		 mov	 ebp, esp
  027e3	83 ec 58	 sub	 esp, 88			; 00000058H
  027e6	53		 push	 ebx
  027e7	56		 push	 esi
  027e8	57		 push	 edi
  027e9	89 4d fc	 mov	 DWORD PTR _this$[ebp], ecx

; 903  : 	if( OBJMAX_RANGE(aIndex) == FALSE )

  027ec	83 7d 08 00	 cmp	 DWORD PTR _aIndex$[ebp], 0
  027f0	7d 09		 jge	 SHORT $LN17@LeaveBattl
  027f2	c7 45 a8 00 00
	00 00		 mov	 DWORD PTR tv67[ebp], 0
  027f9	eb 0f		 jmp	 SHORT $LN18@LeaveBattl
$LN17@LeaveBattl:
  027fb	33 c0		 xor	 eax, eax
  027fd	81 7d 08 97 3a
	00 00		 cmp	 DWORD PTR _aIndex$[ebp], 14999 ; 00003a97H
  02804	0f 9e c0	 setle	 al
  02807	89 45 a8	 mov	 DWORD PTR tv67[ebp], eax
$LN18@LeaveBattl:
  0280a	83 7d a8 00	 cmp	 DWORD PTR tv67[ebp], 0
  0280e	75 23		 jne	 SHORT $LN14@LeaveBattl

; 904  : 	{
; 905  : 		LogAdd("return %s %d", __FILE__, __LINE__);

  02810	a1 00 00 00 00	 mov	 eax, DWORD PTR ?__LINE__Var@?1??LeaveBattleUser@CIllusionTempleProcess@@QAEHH@Z@4JA
  02815	83 c0 03	 add	 eax, 3
  02818	50		 push	 eax
  02819	68 00 00 00 00	 push	 OFFSET ??_C@_0EN@FIHDICBF@d?3?2projects?2exteam6?43?2source?2gam@
  0281e	68 00 00 00 00	 push	 OFFSET ??_C@_0N@GGPGOPEN@return?5?$CFs?5?$CFd?$AA@
  02823	ff 15 00 00 00
	00		 call	 DWORD PTR ?LogAdd@@3P6AXPADZZA ; LogAdd
  02829	83 c4 0c	 add	 esp, 12			; 0000000cH

; 906  : 		return FALSE;

  0282c	33 c0		 xor	 eax, eax
  0282e	e9 84 03 00 00	 jmp	 $LN15@LeaveBattl
$LN14@LeaveBattl:

; 907  : 	}
; 908  : 
; 909  : 	EnterCriticalSection(&this->m_cs);

  02833	8b 45 fc	 mov	 eax, DWORD PTR _this$[ebp]
  02836	83 c0 08	 add	 eax, 8
  02839	50		 push	 eax
  0283a	ff 15 00 00 00
	00		 call	 DWORD PTR __imp__EnterCriticalSection@4

; 910  : 
; 911  : 	if(gObj[aIndex].m_iIllusionTempleIndex != -1)

  02840	8b 45 08	 mov	 eax, DWORD PTR _aIndex$[ebp]
  02843	69 c0 38 2b 00
	00		 imul	 eax, 11064		; 00002b38H
  02849	8b 0d 00 00 00
	00		 mov	 ecx, DWORD PTR ?gObj@@3PAUOBJECTSTRUCT@@A ; gObj
  0284f	83 bc 01 78 20
	00 00 ff	 cmp	 DWORD PTR [ecx+eax+8312], -1
  02857	0f 84 87 02 00
	00		 je	 $LN12@LeaveBattl

; 912  : 	{
; 913  : 		if(aIndex == this->m_FloorData[gObj[aIndex].m_iIllusionTempleIndex].m_iTeamPlayerIndex)

  0285d	8b 45 08	 mov	 eax, DWORD PTR _aIndex$[ebp]
  02860	69 c0 38 2b 00
	00		 imul	 eax, 11064		; 00002b38H
  02866	8b 0d 00 00 00
	00		 mov	 ecx, DWORD PTR ?gObj@@3PAUOBJECTSTRUCT@@A ; gObj
  0286c	8b 94 01 78 20
	00 00		 mov	 edx, DWORD PTR [ecx+eax+8312]
  02873	6b d2 30	 imul	 edx, 48			; 00000030H
  02876	8b 45 fc	 mov	 eax, DWORD PTR _this$[ebp]
  02879	8b 4d 08	 mov	 ecx, DWORD PTR _aIndex$[ebp]
  0287c	3b 4c 10 20	 cmp	 ecx, DWORD PTR [eax+edx+32]
  02880	0f 85 5e 02 00
	00		 jne	 $LN12@LeaveBattl

; 914  : 		{
; 915  : 			_ILLUSIONTEMPLE_FLOOR_DATA * FloorData = &this->m_FloorData[gObj[aIndex].m_iIllusionTempleIndex];

  02886	8b 45 08	 mov	 eax, DWORD PTR _aIndex$[ebp]
  02889	69 c0 38 2b 00
	00		 imul	 eax, 11064		; 00002b38H
  0288f	8b 0d 00 00 00
	00		 mov	 ecx, DWORD PTR ?gObj@@3PAUOBJECTSTRUCT@@A ; gObj
  02895	8b 94 01 78 20
	00 00		 mov	 edx, DWORD PTR [ecx+eax+8312]
  0289c	6b d2 30	 imul	 edx, 48			; 00000030H
  0289f	8b 45 fc	 mov	 eax, DWORD PTR _this$[ebp]
  028a2	8d 4c 10 20	 lea	 ecx, DWORD PTR [eax+edx+32]
  028a6	89 4d f8	 mov	 DWORD PTR _FloorData$234216[ebp], ecx

; 916  : 
; 917  : 			if(FloorData->m_btPosNDur > -1)

  028a9	8b 45 f8	 mov	 eax, DWORD PTR _FloorData$234216[ebp]
  028ac	0f b6 48 28	 movzx	 ecx, BYTE PTR [eax+40]
  028b0	83 f9 ff	 cmp	 ecx, -1
  028b3	7e 72		 jle	 SHORT $LN8@LeaveBattl

; 918  : 			{
; 919  : 				CItem * lpItem = &gObj[aIndex].pInventory[FloorData->m_btPosNDur];

  028b5	8b 45 08	 mov	 eax, DWORD PTR _aIndex$[ebp]
  028b8	69 c0 38 2b 00
	00		 imul	 eax, 11064		; 00002b38H
  028be	8b 4d f8	 mov	 ecx, DWORD PTR _FloorData$234216[ebp]
  028c1	0f b6 51 28	 movzx	 edx, BYTE PTR [ecx+40]
  028c5	69 d2 d4 00 00
	00		 imul	 edx, 212		; 000000d4H
  028cb	8b 0d 00 00 00
	00		 mov	 ecx, DWORD PTR ?gObj@@3PAUOBJECTSTRUCT@@A ; gObj
  028d1	03 94 01 24 0e
	00 00		 add	 edx, DWORD PTR [ecx+eax+3620]
  028d8	89 55 f4	 mov	 DWORD PTR _lpItem$234218[ebp], edx

; 920  : 
; 921  : 				if(lpItem != NULL)

  028db	74 4a		 je	 SHORT $LN8@LeaveBattl

; 922  : 				{
; 923  : 					if(lpItem->IsItem() == TRUE)

  028dd	8b 4d f4	 mov	 ecx, DWORD PTR _lpItem$234218[ebp]
  028e0	e8 00 00 00 00	 call	 ?IsItem@CItem@@QAEHXZ	; CItem::IsItem
  028e5	83 f8 01	 cmp	 eax, 1
  028e8	75 3d		 jne	 SHORT $LN8@LeaveBattl

; 924  : 					{
; 925  : 						if(lpItem->m_Durability < 1.0f)

  028ea	8b 45 f4	 mov	 eax, DWORD PTR _lpItem$234218[ebp]
  028ed	d9 40 24	 fld	 DWORD PTR [eax+36]
  028f0	dc 1d 00 00 00
	00		 fcomp	 QWORD PTR __real@3ff0000000000000
  028f6	df e0		 fnstsw	 ax
  028f8	f6 c4 05	 test	 ah, 5
  028fb	7a 2a		 jp	 SHORT $LN8@LeaveBattl

; 926  : 						{
; 927  : 							gObjInventoryDeleteItem(aIndex, FloorData->m_btPosNDur);

  028fd	8b 45 f8	 mov	 eax, DWORD PTR _FloorData$234216[ebp]
  02900	0f b6 48 28	 movzx	 ecx, BYTE PTR [eax+40]
  02904	51		 push	 ecx
  02905	8b 55 08	 mov	 edx, DWORD PTR _aIndex$[ebp]
  02908	52		 push	 edx
  02909	e8 00 00 00 00	 call	 ?gObjInventoryDeleteItem@@YAEHH@Z ; gObjInventoryDeleteItem
  0290e	83 c4 08	 add	 esp, 8

; 928  : 							GCInventoryItemDeleteSend(aIndex, FloorData->m_btPosNDur, 0);

  02911	6a 00		 push	 0
  02913	8b 45 f8	 mov	 eax, DWORD PTR _FloorData$234216[ebp]
  02916	0f b6 48 28	 movzx	 ecx, BYTE PTR [eax+40]
  0291a	51		 push	 ecx
  0291b	8b 55 08	 mov	 edx, DWORD PTR _aIndex$[ebp]
  0291e	52		 push	 edx
  0291f	e8 00 00 00 00	 call	 ?GCInventoryItemDeleteSend@@YAXHEE@Z ; GCInventoryItemDeleteSend
  02924	83 c4 0c	 add	 esp, 12			; 0000000cH
$LN8@LeaveBattl:

; 929  : 						}
; 930  : 					}
; 931  : 				}
; 932  : 			}
; 933  : 
; 934  : 			if(this->m_FloorData[gObj[aIndex].m_iIllusionTempleIndex].m_dwShieldSpellTime > 0)

  02927	8b 45 08	 mov	 eax, DWORD PTR _aIndex$[ebp]
  0292a	69 c0 38 2b 00
	00		 imul	 eax, 11064		; 00002b38H
  02930	8b 0d 00 00 00
	00		 mov	 ecx, DWORD PTR ?gObj@@3PAUOBJECTSTRUCT@@A ; gObj
  02936	8b 94 01 78 20
	00 00		 mov	 edx, DWORD PTR [ecx+eax+8312]
  0293d	6b d2 30	 imul	 edx, 48			; 00000030H
  02940	8b 45 fc	 mov	 eax, DWORD PTR _this$[ebp]
  02943	83 7c 10 28 00	 cmp	 DWORD PTR [eax+edx+40], 0
  02948	76 37		 jbe	 SHORT $LN7@LeaveBattl

; 935  : 			{
; 936  : 				gObjRemoveBuffEffect(&gObj[aIndex], AT_ILLUSION_SHIELD_SPELL); //season 3.0 add-on

  0294a	6a 22		 push	 34			; 00000022H
  0294c	8b 45 08	 mov	 eax, DWORD PTR _aIndex$[ebp]
  0294f	69 c0 38 2b 00
	00		 imul	 eax, 11064		; 00002b38H
  02955	03 05 00 00 00
	00		 add	 eax, DWORD PTR ?gObj@@3PAUOBJECTSTRUCT@@A ; gObj
  0295b	50		 push	 eax
  0295c	e8 00 00 00 00	 call	 ?gObjRemoveBuffEffect@@YAEPAUOBJECTSTRUCT@@H@Z ; gObjRemoveBuffEffect
  02961	83 c4 08	 add	 esp, 8

; 937  : 				this->GCIllusionTempleSkillCancel(&gObj[aIndex], 210);

  02964	68 d2 00 00 00	 push	 210			; 000000d2H
  02969	8b 45 08	 mov	 eax, DWORD PTR _aIndex$[ebp]
  0296c	69 c0 38 2b 00
	00		 imul	 eax, 11064		; 00002b38H
  02972	03 05 00 00 00
	00		 add	 eax, DWORD PTR ?gObj@@3PAUOBJECTSTRUCT@@A ; gObj
  02978	50		 push	 eax
  02979	8b 4d fc	 mov	 ecx, DWORD PTR _this$[ebp]
  0297c	e8 00 00 00 00	 call	 ?GCIllusionTempleSkillCancel@CIllusionTempleProcess@@QAEXPAUOBJECTSTRUCT@@G@Z ; CIllusionTempleProcess::GCIllusionTempleSkillCancel
$LN7@LeaveBattl:

; 938  : 			}
; 939  : 
; 940  : 			if(this->m_FloorData[gObj[aIndex].m_iIllusionTempleIndex].m_dwRestrictionSpellTime > 0)

  02981	8b 45 08	 mov	 eax, DWORD PTR _aIndex$[ebp]
  02984	69 c0 38 2b 00
	00		 imul	 eax, 11064		; 00002b38H
  0298a	8b 0d 00 00 00
	00		 mov	 ecx, DWORD PTR ?gObj@@3PAUOBJECTSTRUCT@@A ; gObj
  02990	8b 94 01 78 20
	00 00		 mov	 edx, DWORD PTR [ecx+eax+8312]
  02997	6b d2 30	 imul	 edx, 48			; 00000030H
  0299a	8b 45 fc	 mov	 eax, DWORD PTR _this$[ebp]
  0299d	83 7c 10 2c 00	 cmp	 DWORD PTR [eax+edx+44], 0
  029a2	76 37		 jbe	 SHORT $LN6@LeaveBattl

; 941  : 			{
; 942  : 				gObjRemoveBuffEffect(&gObj[aIndex], AT_ILLUSION_RESTRICTION_SPELL); //season 3.0 add-on

  029a4	6a 41		 push	 65			; 00000041H
  029a6	8b 45 08	 mov	 eax, DWORD PTR _aIndex$[ebp]
  029a9	69 c0 38 2b 00
	00		 imul	 eax, 11064		; 00002b38H
  029af	03 05 00 00 00
	00		 add	 eax, DWORD PTR ?gObj@@3PAUOBJECTSTRUCT@@A ; gObj
  029b5	50		 push	 eax
  029b6	e8 00 00 00 00	 call	 ?gObjRemoveBuffEffect@@YAEPAUOBJECTSTRUCT@@H@Z ; gObjRemoveBuffEffect
  029bb	83 c4 08	 add	 esp, 8

; 943  : 				this->GCIllusionTempleSkillCancel(&gObj[aIndex], 211);

  029be	68 d3 00 00 00	 push	 211			; 000000d3H
  029c3	8b 45 08	 mov	 eax, DWORD PTR _aIndex$[ebp]
  029c6	69 c0 38 2b 00
	00		 imul	 eax, 11064		; 00002b38H
  029cc	03 05 00 00 00
	00		 add	 eax, DWORD PTR ?gObj@@3PAUOBJECTSTRUCT@@A ; gObj
  029d2	50		 push	 eax
  029d3	8b 4d fc	 mov	 ecx, DWORD PTR _this$[ebp]
  029d6	e8 00 00 00 00	 call	 ?GCIllusionTempleSkillCancel@CIllusionTempleProcess@@QAEXPAUOBJECTSTRUCT@@G@Z ; CIllusionTempleProcess::GCIllusionTempleSkillCancel
$LN6@LeaveBattl:

; 944  : 			}
; 945  : 
; 946  : 			if(this->m_FloorData[gObj[aIndex].m_iIllusionTempleIndex].m_btTeamJoinSide == 0)

  029db	8b 45 08	 mov	 eax, DWORD PTR _aIndex$[ebp]
  029de	69 c0 38 2b 00
	00		 imul	 eax, 11064		; 00002b38H
  029e4	8b 0d 00 00 00
	00		 mov	 ecx, DWORD PTR ?gObj@@3PAUOBJECTSTRUCT@@A ; gObj
  029ea	8b 94 01 78 20
	00 00		 mov	 edx, DWORD PTR [ecx+eax+8312]
  029f1	6b d2 30	 imul	 edx, 48			; 00000030H
  029f4	8b 45 fc	 mov	 eax, DWORD PTR _this$[ebp]
  029f7	0f b6 4c 10 24	 movzx	 ecx, BYTE PTR [eax+edx+36]
  029fc	85 c9		 test	 ecx, ecx
  029fe	75 17		 jne	 SHORT $LN5@LeaveBattl

; 947  : 			{
; 948  : 				this->m_iYellowTeamUserCount--;

  02a00	8b 45 fc	 mov	 eax, DWORD PTR _this$[ebp]
  02a03	8b 88 c8 03 00
	00		 mov	 ecx, DWORD PTR [eax+968]
  02a09	83 e9 01	 sub	 ecx, 1
  02a0c	8b 55 fc	 mov	 edx, DWORD PTR _this$[ebp]
  02a0f	89 8a c8 03 00
	00		 mov	 DWORD PTR [edx+968], ecx
  02a15	eb 3b		 jmp	 SHORT $LN3@LeaveBattl
$LN5@LeaveBattl:

; 949  : 			}
; 950  : 			else if(this->m_FloorData[gObj[aIndex].m_iIllusionTempleIndex].m_btTeamJoinSide == 1)

  02a17	8b 45 08	 mov	 eax, DWORD PTR _aIndex$[ebp]
  02a1a	69 c0 38 2b 00
	00		 imul	 eax, 11064		; 00002b38H
  02a20	8b 0d 00 00 00
	00		 mov	 ecx, DWORD PTR ?gObj@@3PAUOBJECTSTRUCT@@A ; gObj
  02a26	8b 94 01 78 20
	00 00		 mov	 edx, DWORD PTR [ecx+eax+8312]
  02a2d	6b d2 30	 imul	 edx, 48			; 00000030H
  02a30	8b 45 fc	 mov	 eax, DWORD PTR _this$[ebp]
  02a33	0f b6 4c 10 24	 movzx	 ecx, BYTE PTR [eax+edx+36]
  02a38	83 f9 01	 cmp	 ecx, 1
  02a3b	75 15		 jne	 SHORT $LN3@LeaveBattl

; 951  : 			{
; 952  : 				this->m_iBlueTeamUserCount--;

  02a3d	8b 45 fc	 mov	 eax, DWORD PTR _this$[ebp]
  02a40	8b 88 cc 03 00
	00		 mov	 ecx, DWORD PTR [eax+972]
  02a46	83 e9 01	 sub	 ecx, 1
  02a49	8b 55 fc	 mov	 edx, DWORD PTR _this$[ebp]
  02a4c	89 8a cc 03 00
	00		 mov	 DWORD PTR [edx+972], ecx
$LN3@LeaveBattl:

; 953  : 			}
; 954  : 
; 955  : 			this->InitFloorData(gObj[aIndex].m_iIllusionTempleIndex);

  02a52	8b 45 08	 mov	 eax, DWORD PTR _aIndex$[ebp]
  02a55	69 c0 38 2b 00
	00		 imul	 eax, 11064		; 00002b38H
  02a5b	8b 0d 00 00 00
	00		 mov	 ecx, DWORD PTR ?gObj@@3PAUOBJECTSTRUCT@@A ; gObj
  02a61	8b 94 01 78 20
	00 00		 mov	 edx, DWORD PTR [ecx+eax+8312]
  02a68	52		 push	 edx
  02a69	8b 4d fc	 mov	 ecx, DWORD PTR _this$[ebp]
  02a6c	e8 00 00 00 00	 call	 ?InitFloorData@CIllusionTempleProcess@@QAEXH@Z ; CIllusionTempleProcess::InitFloorData

; 956  : 
; 957  : 			gObj[aIndex].m_iIllusionTempleIndex = -1;

  02a71	8b 45 08	 mov	 eax, DWORD PTR _aIndex$[ebp]
  02a74	69 c0 38 2b 00
	00		 imul	 eax, 11064		; 00002b38H
  02a7a	8b 0d 00 00 00
	00		 mov	 ecx, DWORD PTR ?gObj@@3PAUOBJECTSTRUCT@@A ; gObj
  02a80	c7 84 01 78 20
	00 00 ff ff ff
	ff		 mov	 DWORD PTR [ecx+eax+8312], -1

; 958  : 
; 959  : 			this->m_iEnteredUserCount--;

  02a8b	8b 45 fc	 mov	 eax, DWORD PTR _this$[ebp]
  02a8e	8b 88 28 02 00
	00		 mov	 ecx, DWORD PTR [eax+552]
  02a94	83 e9 01	 sub	 ecx, 1
  02a97	8b 55 fc	 mov	 edx, DWORD PTR _this$[ebp]
  02a9a	89 8a 28 02 00
	00		 mov	 DWORD PTR [edx+552], ecx

; 960  : 
; 961  : 			LogAddTD("[Illusion Temple] (%d) LeaveUser: (%s)(%s)", this->m_btFloorIndex+1, gObj[aIndex].AccountID, gObj[aIndex].Name);

  02aa0	8b 45 08	 mov	 eax, DWORD PTR _aIndex$[ebp]
  02aa3	69 c0 38 2b 00
	00		 imul	 eax, 11064		; 00002b38H
  02aa9	8b 0d 00 00 00
	00		 mov	 ecx, DWORD PTR ?gObj@@3PAUOBJECTSTRUCT@@A ; gObj
  02aaf	8d 54 01 77	 lea	 edx, DWORD PTR [ecx+eax+119]
  02ab3	52		 push	 edx
  02ab4	8b 45 08	 mov	 eax, DWORD PTR _aIndex$[ebp]
  02ab7	69 c0 38 2b 00
	00		 imul	 eax, 11064		; 00002b38H
  02abd	8b 0d 00 00 00
	00		 mov	 ecx, DWORD PTR ?gObj@@3PAUOBJECTSTRUCT@@A ; gObj
  02ac3	8d 54 01 6c	 lea	 edx, DWORD PTR [ecx+eax+108]
  02ac7	52		 push	 edx
  02ac8	8b 45 fc	 mov	 eax, DWORD PTR _this$[ebp]
  02acb	0f b6 88 2c 02
	00 00		 movzx	 ecx, BYTE PTR [eax+556]
  02ad2	83 c1 01	 add	 ecx, 1
  02ad5	51		 push	 ecx
  02ad6	68 00 00 00 00	 push	 OFFSET ??_C@_0CL@PJKIAECJ@?$FLIllusion?5Temple?$FN?5?$CI?$CFd?$CJ?5LeaveUser@
  02adb	ff 15 00 00 00
	00		 call	 DWORD PTR ?LogAddTD@@3P6AXPADZZA ; LogAddTD
  02ae1	83 c4 10	 add	 esp, 16			; 00000010H
$LN12@LeaveBattl:

; 962  : 		}
; 963  : 	}
; 964  : 
; 965  : 	LeaveCriticalSection(&this->m_cs);

  02ae4	8b 45 fc	 mov	 eax, DWORD PTR _this$[ebp]
  02ae7	83 c0 08	 add	 eax, 8
  02aea	50		 push	 eax
  02aeb	ff 15 00 00 00
	00		 call	 DWORD PTR __imp__LeaveCriticalSection@4

; 966  : 
; 967  : 	if(gObj[aIndex].PartyNumber >= 0)

  02af1	8b 45 08	 mov	 eax, DWORD PTR _aIndex$[ebp]
  02af4	69 c0 38 2b 00
	00		 imul	 eax, 11064		; 00002b38H
  02afa	8b 0d 00 00 00
	00		 mov	 ecx, DWORD PTR ?gObj@@3PAUOBJECTSTRUCT@@A ; gObj
  02b00	83 bc 01 2c 04
	00 00 00	 cmp	 DWORD PTR [ecx+eax+1068], 0
  02b08	7c 76		 jl	 SHORT $LN1@LeaveBattl

; 968  : 	{
; 969  : 		PMSG_PARTYDELUSER pMsg;
; 970  : 
; 971  : 		int Index = gParty.GetIndex(gObj[aIndex].PartyNumber, gObj[aIndex].m_Index, gObj[aIndex].DBNumber);

  02b0a	8b 45 08	 mov	 eax, DWORD PTR _aIndex$[ebp]
  02b0d	69 c0 38 2b 00
	00		 imul	 eax, 11064		; 00002b38H
  02b13	8b 0d 00 00 00
	00		 mov	 ecx, DWORD PTR ?gObj@@3PAUOBJECTSTRUCT@@A ; gObj
  02b19	8b 54 01 2c	 mov	 edx, DWORD PTR [ecx+eax+44]
  02b1d	52		 push	 edx
  02b1e	8b 45 08	 mov	 eax, DWORD PTR _aIndex$[ebp]
  02b21	69 c0 38 2b 00
	00		 imul	 eax, 11064		; 00002b38H
  02b27	8b 0d 00 00 00
	00		 mov	 ecx, DWORD PTR ?gObj@@3PAUOBJECTSTRUCT@@A ; gObj
  02b2d	8b 14 01	 mov	 edx, DWORD PTR [ecx+eax]
  02b30	52		 push	 edx
  02b31	8b 45 08	 mov	 eax, DWORD PTR _aIndex$[ebp]
  02b34	69 c0 38 2b 00
	00		 imul	 eax, 11064		; 00002b38H
  02b3a	8b 0d 00 00 00
	00		 mov	 ecx, DWORD PTR ?gObj@@3PAUOBJECTSTRUCT@@A ; gObj
  02b40	8b 94 01 2c 04
	00 00		 mov	 edx, DWORD PTR [ecx+eax+1068]
  02b47	52		 push	 edx
  02b48	b9 00 00 00 00	 mov	 ecx, OFFSET ?gParty@@3VPartyClass@@A ; gParty
  02b4d	e8 00 00 00 00	 call	 ?GetIndex@PartyClass@@QAEHHHH@Z ; PartyClass::GetIndex
  02b52	89 45 ec	 mov	 DWORD PTR _Index$234230[ebp], eax

; 972  : 
; 973  : 		if(Index >= 0)

  02b55	83 7d ec 00	 cmp	 DWORD PTR _Index$234230[ebp], 0
  02b59	7c 25		 jl	 SHORT $LN1@LeaveBattl

; 974  : 		{
; 975  : 			pMsg.Number = Index;

  02b5b	8a 45 ec	 mov	 al, BYTE PTR _Index$234230[ebp]
  02b5e	88 45 f3	 mov	 BYTE PTR _pMsg$234229[ebp+3], al

; 976  : 			CGPartyDelUser(&pMsg, gObj[aIndex].m_Index);

  02b61	8b 45 08	 mov	 eax, DWORD PTR _aIndex$[ebp]
  02b64	69 c0 38 2b 00
	00		 imul	 eax, 11064		; 00002b38H
  02b6a	8b 0d 00 00 00
	00		 mov	 ecx, DWORD PTR ?gObj@@3PAUOBJECTSTRUCT@@A ; gObj
  02b70	8b 14 01	 mov	 edx, DWORD PTR [ecx+eax]
  02b73	52		 push	 edx
  02b74	8d 45 f0	 lea	 eax, DWORD PTR _pMsg$234229[ebp]
  02b77	50		 push	 eax
  02b78	e8 00 00 00 00	 call	 ?CGPartyDelUser@@YAXPAUPMSG_PARTYDELUSER@@H@Z ; CGPartyDelUser
  02b7d	83 c4 08	 add	 esp, 8
$LN1@LeaveBattl:

; 977  : 		}
; 978  : 	}
; 979  : 
; 980  : 	gObj[aIndex].m_Change = -1;

  02b80	8b 45 08	 mov	 eax, DWORD PTR _aIndex$[ebp]
  02b83	69 c0 38 2b 00
	00		 imul	 eax, 11064		; 00002b38H
  02b89	8b 0d 00 00 00
	00		 mov	 ecx, DWORD PTR ?gObj@@3PAUOBJECTSTRUCT@@A ; gObj
  02b8f	c7 84 01 54 04
	00 00 ff ff ff
	ff		 mov	 DWORD PTR [ecx+eax+1108], -1

; 981  : 	gObjViewportListProtocolCreate(&gObj[aIndex]);

  02b9a	8b 45 08	 mov	 eax, DWORD PTR _aIndex$[ebp]
  02b9d	69 c0 38 2b 00
	00		 imul	 eax, 11064		; 00002b38H
  02ba3	03 05 00 00 00
	00		 add	 eax, DWORD PTR ?gObj@@3PAUOBJECTSTRUCT@@A ; gObj
  02ba9	50		 push	 eax
  02baa	e8 00 00 00 00	 call	 ?gObjViewportListProtocolCreate@@YAXPAUOBJECTSTRUCT@@@Z ; gObjViewportListProtocolCreate
  02baf	83 c4 04	 add	 esp, 4

; 982  : 
; 983  : 	return TRUE;

  02bb2	b8 01 00 00 00	 mov	 eax, 1
$LN15@LeaveBattl:

; 984  : }

  02bb7	5f		 pop	 edi
  02bb8	5e		 pop	 esi
  02bb9	5b		 pop	 ebx
  02bba	8b e5		 mov	 esp, ebp
  02bbc	5d		 pop	 ebp
  02bbd	c2 04 00	 ret	 4
?LeaveBattleUser@CIllusionTempleProcess@@QAEHH@Z ENDP	; CIllusionTempleProcess::LeaveBattleUser
_TEXT	ENDS
PUBLIC	?__LINE__Var@?1??GetFloorIndex@CIllusionTempleProcess@@QAEHH@Z@4JA ; `CIllusionTempleProcess::GetFloorIndex'::`2'::__LINE__Var
PUBLIC	?GetFloorIndex@CIllusionTempleProcess@@QAEHH@Z	; CIllusionTempleProcess::GetFloorIndex
EXTRN	?g_iUseMaxLevelIllusionTemple@@3HA:DWORD	; g_iUseMaxLevelIllusionTemple
;	COMDAT ?__LINE__Var@?1??GetFloorIndex@CIllusionTempleProcess@@QAEHH@Z@4JA
_DATA	SEGMENT
?__LINE__Var@?1??GetFloorIndex@CIllusionTempleProcess@@QAEHH@Z@4JA DD 03dbH ; `CIllusionTempleProcess::GetFloorIndex'::`2'::__LINE__Var
; Function compile flags: /Odtp /ZI
_DATA	ENDS
_TEXT	SEGMENT
tv69 = -80						; size = 4
_lpObj$ = -12						; size = 4
_loc2$ = -8						; size = 4
_this$ = -4						; size = 4
_aIndex$ = 8						; size = 4
?GetFloorIndex@CIllusionTempleProcess@@QAEHH@Z PROC	; CIllusionTempleProcess::GetFloorIndex
; _this$ = ecx

; 987  : {

  02bc0	55		 push	 ebp
  02bc1	8b ec		 mov	 ebp, esp
  02bc3	83 ec 50	 sub	 esp, 80			; 00000050H
  02bc6	53		 push	 ebx
  02bc7	56		 push	 esi
  02bc8	57		 push	 edi
  02bc9	89 4d fc	 mov	 DWORD PTR _this$[ebp], ecx

; 988  : 	int loc2 = 0; //?? weird

  02bcc	c7 45 f8 00 00
	00 00		 mov	 DWORD PTR _loc2$[ebp], 0

; 989  : 
; 990  : 	LPOBJ lpObj = &gObj[aIndex];

  02bd3	8b 45 08	 mov	 eax, DWORD PTR _aIndex$[ebp]
  02bd6	69 c0 38 2b 00
	00		 imul	 eax, 11064		; 00002b38H
  02bdc	03 05 00 00 00
	00		 add	 eax, DWORD PTR ?gObj@@3PAUOBJECTSTRUCT@@A ; gObj
  02be2	89 45 f4	 mov	 DWORD PTR _lpObj$[ebp], eax

; 991  : 
; 992  : 	if( OBJMAX_RANGE(aIndex) == FALSE )

  02be5	83 7d 08 00	 cmp	 DWORD PTR _aIndex$[ebp], 0
  02be9	7d 09		 jge	 SHORT $LN13@GetFloorIn
  02beb	c7 45 b0 00 00
	00 00		 mov	 DWORD PTR tv69[ebp], 0
  02bf2	eb 0f		 jmp	 SHORT $LN14@GetFloorIn
$LN13@GetFloorIn:
  02bf4	33 c0		 xor	 eax, eax
  02bf6	81 7d 08 97 3a
	00 00		 cmp	 DWORD PTR _aIndex$[ebp], 14999 ; 00003a97H
  02bfd	0f 9e c0	 setle	 al
  02c00	89 45 b0	 mov	 DWORD PTR tv69[ebp], eax
$LN14@GetFloorIn:
  02c03	83 7d b0 00	 cmp	 DWORD PTR tv69[ebp], 0
  02c07	75 24		 jne	 SHORT $LN10@GetFloorIn

; 993  : 	{
; 994  : 		LogAdd("return %s %d", __FILE__, __LINE__);

  02c09	a1 00 00 00 00	 mov	 eax, DWORD PTR ?__LINE__Var@?1??GetFloorIndex@CIllusionTempleProcess@@QAEHH@Z@4JA
  02c0e	83 c0 07	 add	 eax, 7
  02c11	50		 push	 eax
  02c12	68 00 00 00 00	 push	 OFFSET ??_C@_0EN@FIHDICBF@d?3?2projects?2exteam6?43?2source?2gam@
  02c17	68 00 00 00 00	 push	 OFFSET ??_C@_0N@GGPGOPEN@return?5?$CFs?5?$CFd?$AA@
  02c1c	ff 15 00 00 00
	00		 call	 DWORD PTR ?LogAdd@@3P6AXPADZZA ; LogAdd
  02c22	83 c4 0c	 add	 esp, 12			; 0000000cH

; 995  : 		return -1;

  02c25	83 c8 ff	 or	 eax, -1
  02c28	e9 e6 00 00 00	 jmp	 $LN11@GetFloorIn
$LN10@GetFloorIn:

; 996  : 	}
; 997  : 
; 998  : 	if( lpObj->Level < 220 ) return 0;

  02c2d	8b 45 f4	 mov	 eax, DWORD PTR _lpObj$[ebp]
  02c30	0f bf 88 be 00
	00 00		 movsx	 ecx, WORD PTR [eax+190]
  02c37	81 f9 dc 00 00
	00		 cmp	 ecx, 220		; 000000dcH
  02c3d	7d 07		 jge	 SHORT $LN9@GetFloorIn
  02c3f	33 c0		 xor	 eax, eax
  02c41	e9 cd 00 00 00	 jmp	 $LN11@GetFloorIn
$LN9@GetFloorIn:

; 999  : 	if( lpObj->Level < 271 ) return 1;

  02c46	8b 45 f4	 mov	 eax, DWORD PTR _lpObj$[ebp]
  02c49	0f bf 88 be 00
	00 00		 movsx	 ecx, WORD PTR [eax+190]
  02c50	81 f9 0f 01 00
	00		 cmp	 ecx, 271		; 0000010fH
  02c56	7d 0a		 jge	 SHORT $LN8@GetFloorIn
  02c58	b8 01 00 00 00	 mov	 eax, 1
  02c5d	e9 b1 00 00 00	 jmp	 $LN11@GetFloorIn
$LN8@GetFloorIn:

; 1000 : 	if( lpObj->Level < 321 ) return 2;

  02c62	8b 45 f4	 mov	 eax, DWORD PTR _lpObj$[ebp]
  02c65	0f bf 88 be 00
	00 00		 movsx	 ecx, WORD PTR [eax+190]
  02c6c	81 f9 41 01 00
	00		 cmp	 ecx, 321		; 00000141H
  02c72	7d 0a		 jge	 SHORT $LN7@GetFloorIn
  02c74	b8 02 00 00 00	 mov	 eax, 2
  02c79	e9 95 00 00 00	 jmp	 $LN11@GetFloorIn
$LN7@GetFloorIn:

; 1001 : 	if( lpObj->Level < 351 ) return 3;

  02c7e	8b 45 f4	 mov	 eax, DWORD PTR _lpObj$[ebp]
  02c81	0f bf 88 be 00
	00 00		 movsx	 ecx, WORD PTR [eax+190]
  02c88	81 f9 5f 01 00
	00		 cmp	 ecx, 351		; 0000015fH
  02c8e	7d 07		 jge	 SHORT $LN6@GetFloorIn
  02c90	b8 03 00 00 00	 mov	 eax, 3
  02c95	eb 7c		 jmp	 SHORT $LN11@GetFloorIn
$LN6@GetFloorIn:

; 1002 : 	if( lpObj->Level < 381 ) return 4;

  02c97	8b 45 f4	 mov	 eax, DWORD PTR _lpObj$[ebp]
  02c9a	0f bf 88 be 00
	00 00		 movsx	 ecx, WORD PTR [eax+190]
  02ca1	81 f9 7d 01 00
	00		 cmp	 ecx, 381		; 0000017dH
  02ca7	7d 07		 jge	 SHORT $LN5@GetFloorIn
  02ca9	b8 04 00 00 00	 mov	 eax, 4
  02cae	eb 63		 jmp	 SHORT $LN11@GetFloorIn
$LN5@GetFloorIn:

; 1003 : 	if( lpObj->Level <= 400 && lpObj->ChangeUP3rd == 0) return 5;

  02cb0	8b 45 f4	 mov	 eax, DWORD PTR _lpObj$[ebp]
  02cb3	0f bf 88 be 00
	00 00		 movsx	 ecx, WORD PTR [eax+190]
  02cba	81 f9 90 01 00
	00		 cmp	 ecx, 400		; 00000190H
  02cc0	7f 15		 jg	 SHORT $LN4@GetFloorIn
  02cc2	8b 45 f4	 mov	 eax, DWORD PTR _lpObj$[ebp]
  02cc5	0f b6 88 bc 00
	00 00		 movzx	 ecx, BYTE PTR [eax+188]
  02ccc	85 c9		 test	 ecx, ecx
  02cce	75 07		 jne	 SHORT $LN4@GetFloorIn
  02cd0	b8 05 00 00 00	 mov	 eax, 5
  02cd5	eb 3c		 jmp	 SHORT $LN11@GetFloorIn
$LN4@GetFloorIn:

; 1004 : 	if( lpObj->Level == 400 && lpObj->ChangeUP3rd != 0){ if(g_iUseMaxLevelIllusionTemple != 0){	return 6;}else{return 5;}};

  02cd7	8b 45 f4	 mov	 eax, DWORD PTR _lpObj$[ebp]
  02cda	0f bf 88 be 00
	00 00		 movsx	 ecx, WORD PTR [eax+190]
  02ce1	81 f9 90 01 00
	00		 cmp	 ecx, 400		; 00000190H
  02ce7	75 27		 jne	 SHORT $LN3@GetFloorIn
  02ce9	8b 45 f4	 mov	 eax, DWORD PTR _lpObj$[ebp]
  02cec	0f b6 88 bc 00
	00 00		 movzx	 ecx, BYTE PTR [eax+188]
  02cf3	85 c9		 test	 ecx, ecx
  02cf5	74 19		 je	 SHORT $LN3@GetFloorIn
  02cf7	83 3d 00 00 00
	00 00		 cmp	 DWORD PTR ?g_iUseMaxLevelIllusionTemple@@3HA, 0 ; g_iUseMaxLevelIllusionTemple
  02cfe	74 09		 je	 SHORT $LN2@GetFloorIn
  02d00	b8 06 00 00 00	 mov	 eax, 6
  02d05	eb 0c		 jmp	 SHORT $LN11@GetFloorIn
  02d07	eb 07		 jmp	 SHORT $LN3@GetFloorIn
$LN2@GetFloorIn:
  02d09	b8 05 00 00 00	 mov	 eax, 5
  02d0e	eb 03		 jmp	 SHORT $LN11@GetFloorIn
$LN3@GetFloorIn:

; 1005 : 	return -1;

  02d10	83 c8 ff	 or	 eax, -1
$LN11@GetFloorIn:

; 1006 : }

  02d13	5f		 pop	 edi
  02d14	5e		 pop	 esi
  02d15	5b		 pop	 ebx
  02d16	8b e5		 mov	 esp, ebp
  02d18	5d		 pop	 ebp
  02d19	c2 04 00	 ret	 4
?GetFloorIndex@CIllusionTempleProcess@@QAEHH@Z ENDP	; CIllusionTempleProcess::GetFloorIndex
_TEXT	ENDS
EXTRN	?gObjIsConnected@@YAHH@Z:PROC			; gObjIsConnected
; Function compile flags: /Odtp /ZI
_TEXT	SEGMENT
_i$234252 = -8						; size = 4
_this$ = -4						; size = 4
?RemoveInvalid@CIllusionTempleProcess@@QAEXXZ PROC	; CIllusionTempleProcess::RemoveInvalid
; _this$ = ecx

; 1009 : {

  02d20	55		 push	 ebp
  02d21	8b ec		 mov	 ebp, esp
  02d23	83 ec 48	 sub	 esp, 72			; 00000048H
  02d26	53		 push	 ebx
  02d27	56		 push	 esi
  02d28	57		 push	 edi
  02d29	89 4d fc	 mov	 DWORD PTR _this$[ebp], ecx

; 1010 : 	EnterCriticalSection(&m_cs);

  02d2c	8b 45 fc	 mov	 eax, DWORD PTR _this$[ebp]
  02d2f	83 c0 08	 add	 eax, 8
  02d32	50		 push	 eax
  02d33	ff 15 00 00 00
	00		 call	 DWORD PTR __imp__EnterCriticalSection@4

; 1011 : 
; 1012 : 	this->m_iEnteredUserCount = 0;

  02d39	8b 45 fc	 mov	 eax, DWORD PTR _this$[ebp]
  02d3c	c7 80 28 02 00
	00 00 00 00 00	 mov	 DWORD PTR [eax+552], 0

; 1013 : 
; 1014 : 	for( int i = 0; i < MAX_FLOOR_USER; i++ )

  02d46	c7 45 f8 00 00
	00 00		 mov	 DWORD PTR _i$234252[ebp], 0
  02d4d	eb 09		 jmp	 SHORT $LN8@RemoveInva
$LN7@RemoveInva:
  02d4f	8b 45 f8	 mov	 eax, DWORD PTR _i$234252[ebp]
  02d52	83 c0 01	 add	 eax, 1
  02d55	89 45 f8	 mov	 DWORD PTR _i$234252[ebp], eax
$LN8@RemoveInva:
  02d58	83 7d f8 0a	 cmp	 DWORD PTR _i$234252[ebp], 10 ; 0000000aH
  02d5c	0f 8d db 00 00
	00		 jge	 $LN6@RemoveInva

; 1015 : 	{
; 1016 : 		if( this->m_FloorData[i].m_iTeamPlayerIndex != OBJ_EMPTY )

  02d62	8b 45 f8	 mov	 eax, DWORD PTR _i$234252[ebp]
  02d65	6b c0 30	 imul	 eax, 48			; 00000030H
  02d68	8b 4d fc	 mov	 ecx, DWORD PTR _this$[ebp]
  02d6b	83 7c 01 20 ff	 cmp	 DWORD PTR [ecx+eax+32], -1
  02d70	0f 84 c2 00 00
	00		 je	 $LN5@RemoveInva

; 1017 : 		{
; 1018 : 			if( gObjIsConnected(this->m_FloorData[i].m_iTeamPlayerIndex) == FALSE )

  02d76	8b 45 f8	 mov	 eax, DWORD PTR _i$234252[ebp]
  02d79	6b c0 30	 imul	 eax, 48			; 00000030H
  02d7c	8b 4d fc	 mov	 ecx, DWORD PTR _this$[ebp]
  02d7f	8b 54 01 20	 mov	 edx, DWORD PTR [ecx+eax+32]
  02d83	52		 push	 edx
  02d84	e8 00 00 00 00	 call	 ?gObjIsConnected@@YAHH@Z ; gObjIsConnected
  02d89	83 c4 04	 add	 esp, 4
  02d8c	85 c0		 test	 eax, eax
  02d8e	75 31		 jne	 SHORT $LN4@RemoveInva

; 1019 : 			{
; 1020 : 				gObj[this->m_FloorData[i].m_iTeamPlayerIndex].m_iIllusionTempleIndex = ILLUSIONTEMPLE_INVALID_INDEX;

  02d90	8b 45 f8	 mov	 eax, DWORD PTR _i$234252[ebp]
  02d93	6b c0 30	 imul	 eax, 48			; 00000030H
  02d96	8b 4d fc	 mov	 ecx, DWORD PTR _this$[ebp]
  02d99	8b 54 01 20	 mov	 edx, DWORD PTR [ecx+eax+32]
  02d9d	69 d2 38 2b 00
	00		 imul	 edx, 11064		; 00002b38H
  02da3	a1 00 00 00 00	 mov	 eax, DWORD PTR ?gObj@@3PAUOBJECTSTRUCT@@A ; gObj
  02da8	c7 84 10 78 20
	00 00 ff ff ff
	ff		 mov	 DWORD PTR [eax+edx+8312], -1

; 1021 : 				InitFloorData(i);

  02db3	8b 45 f8	 mov	 eax, DWORD PTR _i$234252[ebp]
  02db6	50		 push	 eax
  02db7	8b 4d fc	 mov	 ecx, DWORD PTR _this$[ebp]
  02dba	e8 00 00 00 00	 call	 ?InitFloorData@CIllusionTempleProcess@@QAEXH@Z ; CIllusionTempleProcess::InitFloorData
  02dbf	eb 77		 jmp	 SHORT $LN5@RemoveInva
$LN4@RemoveInva:

; 1022 : 			}
; 1023 : 			else if( gObj[this->m_FloorData[i].m_iTeamPlayerIndex].MapNumber != (MAP_INDEX_ILLUSIONTEMPLE + this->m_btFloorIndex) )

  02dc1	8b 45 f8	 mov	 eax, DWORD PTR _i$234252[ebp]
  02dc4	6b c0 30	 imul	 eax, 48			; 00000030H
  02dc7	8b 4d fc	 mov	 ecx, DWORD PTR _this$[ebp]
  02dca	8b 54 01 20	 mov	 edx, DWORD PTR [ecx+eax+32]
  02dce	69 d2 38 2b 00
	00		 imul	 edx, 11064		; 00002b38H
  02dd4	a1 00 00 00 00	 mov	 eax, DWORD PTR ?gObj@@3PAUOBJECTSTRUCT@@A ; gObj
  02dd9	0f b6 8c 10 49
	01 00 00	 movzx	 ecx, BYTE PTR [eax+edx+329]
  02de1	8b 55 fc	 mov	 edx, DWORD PTR _this$[ebp]
  02de4	0f b6 82 2c 02
	00 00		 movzx	 eax, BYTE PTR [edx+556]
  02deb	83 c0 2d	 add	 eax, 45			; 0000002dH
  02dee	3b c8		 cmp	 ecx, eax
  02df0	74 31		 je	 SHORT $LN2@RemoveInva

; 1024 : 			{
; 1025 : 				gObj[this->m_FloorData[i].m_iTeamPlayerIndex].m_iIllusionTempleIndex = ILLUSIONTEMPLE_INVALID_INDEX;

  02df2	8b 45 f8	 mov	 eax, DWORD PTR _i$234252[ebp]
  02df5	6b c0 30	 imul	 eax, 48			; 00000030H
  02df8	8b 4d fc	 mov	 ecx, DWORD PTR _this$[ebp]
  02dfb	8b 54 01 20	 mov	 edx, DWORD PTR [ecx+eax+32]
  02dff	69 d2 38 2b 00
	00		 imul	 edx, 11064		; 00002b38H
  02e05	a1 00 00 00 00	 mov	 eax, DWORD PTR ?gObj@@3PAUOBJECTSTRUCT@@A ; gObj
  02e0a	c7 84 10 78 20
	00 00 ff ff ff
	ff		 mov	 DWORD PTR [eax+edx+8312], -1

; 1026 : 				this->InitFloorData(i);

  02e15	8b 45 f8	 mov	 eax, DWORD PTR _i$234252[ebp]
  02e18	50		 push	 eax
  02e19	8b 4d fc	 mov	 ecx, DWORD PTR _this$[ebp]
  02e1c	e8 00 00 00 00	 call	 ?InitFloorData@CIllusionTempleProcess@@QAEXH@Z ; CIllusionTempleProcess::InitFloorData

; 1027 : 			}
; 1028 : 			else

  02e21	eb 15		 jmp	 SHORT $LN5@RemoveInva
$LN2@RemoveInva:

; 1029 : 			{
; 1030 : 				this->m_iEnteredUserCount++;

  02e23	8b 45 fc	 mov	 eax, DWORD PTR _this$[ebp]
  02e26	8b 88 28 02 00
	00		 mov	 ecx, DWORD PTR [eax+552]
  02e2c	83 c1 01	 add	 ecx, 1
  02e2f	8b 55 fc	 mov	 edx, DWORD PTR _this$[ebp]
  02e32	89 8a 28 02 00
	00		 mov	 DWORD PTR [edx+552], ecx
$LN5@RemoveInva:

; 1031 : 			}
; 1032 : 		}
; 1033 : 	}

  02e38	e9 12 ff ff ff	 jmp	 $LN7@RemoveInva
$LN6@RemoveInva:

; 1034 : 
; 1035 : 	LeaveCriticalSection(&m_cs);

  02e3d	8b 45 fc	 mov	 eax, DWORD PTR _this$[ebp]
  02e40	83 c0 08	 add	 eax, 8
  02e43	50		 push	 eax
  02e44	ff 15 00 00 00
	00		 call	 DWORD PTR __imp__LeaveCriticalSection@4

; 1036 : }

  02e4a	5f		 pop	 edi
  02e4b	5e		 pop	 esi
  02e4c	5b		 pop	 ebx
  02e4d	8b e5		 mov	 esp, ebp
  02e4f	5d		 pop	 ebp
  02e50	c3		 ret	 0
?RemoveInvalid@CIllusionTempleProcess@@QAEXXZ ENDP	; CIllusionTempleProcess::RemoveInvalid
_TEXT	ENDS
PUBLIC	?GetOpenStatus@CIllusionTempleProcess@@QAEHXZ	; CIllusionTempleProcess::GetOpenStatus
PUBLIC	?CheckLeftMinutesBeforeOpen@CIllusionTempleProcess@@QAEEXZ ; CIllusionTempleProcess::CheckLeftMinutesBeforeOpen
; Function compile flags: /Odtp /ZI
_TEXT	SEGMENT
_this$ = -4						; size = 4
?CheckLeftMinutesBeforeOpen@CIllusionTempleProcess@@QAEEXZ PROC ; CIllusionTempleProcess::CheckLeftMinutesBeforeOpen
; _this$ = ecx

; 1039 : {

  02e60	55		 push	 ebp
  02e61	8b ec		 mov	 ebp, esp
  02e63	83 ec 44	 sub	 esp, 68			; 00000044H
  02e66	53		 push	 ebx
  02e67	56		 push	 esi
  02e68	57		 push	 edi
  02e69	89 4d fc	 mov	 DWORD PTR _this$[ebp], ecx

; 1040 : 	if(this->GetState() == 0 && this->GetOpenStatus() == TRUE)

  02e6c	8b 4d fc	 mov	 ecx, DWORD PTR _this$[ebp]
  02e6f	e8 00 00 00 00	 call	 ?GetState@CIllusionTempleProcess@@QAEEXZ ; CIllusionTempleProcess::GetState
  02e74	0f b6 c0	 movzx	 eax, al
  02e77	85 c0		 test	 eax, eax
  02e79	75 18		 jne	 SHORT $LN1@CheckLeftM
  02e7b	8b 4d fc	 mov	 ecx, DWORD PTR _this$[ebp]
  02e7e	e8 00 00 00 00	 call	 ?GetOpenStatus@CIllusionTempleProcess@@QAEHXZ ; CIllusionTempleProcess::GetOpenStatus
  02e83	83 f8 01	 cmp	 eax, 1
  02e86	75 0b		 jne	 SHORT $LN1@CheckLeftM

; 1041 : 	{
; 1042 : 		return this->m_iLeftMinutesBeforeOpen;

  02e88	8b 45 fc	 mov	 eax, DWORD PTR _this$[ebp]
  02e8b	8a 80 98 03 00
	00		 mov	 al, BYTE PTR [eax+920]
  02e91	eb 02		 jmp	 SHORT $LN2@CheckLeftM
$LN1@CheckLeftM:

; 1043 : 	}
; 1044 : 	return FALSE;

  02e93	32 c0		 xor	 al, al
$LN2@CheckLeftM:

; 1045 : }

  02e95	5f		 pop	 edi
  02e96	5e		 pop	 esi
  02e97	5b		 pop	 ebx
  02e98	8b e5		 mov	 esp, ebp
  02e9a	5d		 pop	 ebp
  02e9b	c3		 ret	 0
?CheckLeftMinutesBeforeOpen@CIllusionTempleProcess@@QAEEXZ ENDP ; CIllusionTempleProcess::CheckLeftMinutesBeforeOpen
; Function compile flags: /Odtp /ZI
; File d:\projects\exteam6.3\source\gameserver\gameserver\illusiontempleprocess.h
_TEXT	ENDS
;	COMDAT ?GetOpenStatus@CIllusionTempleProcess@@QAEHXZ
_TEXT	SEGMENT
_this$ = -4						; size = 4
?GetOpenStatus@CIllusionTempleProcess@@QAEHXZ PROC	; CIllusionTempleProcess::GetOpenStatus, COMDAT
; _this$ = ecx

; 281  : 	BOOL GetOpenStatus(){return this->m_bOpenStatus;}

  00000	55		 push	 ebp
  00001	8b ec		 mov	 ebp, esp
  00003	83 ec 44	 sub	 esp, 68			; 00000044H
  00006	53		 push	 ebx
  00007	56		 push	 esi
  00008	57		 push	 edi
  00009	89 4d fc	 mov	 DWORD PTR _this$[ebp], ecx
  0000c	8b 45 fc	 mov	 eax, DWORD PTR _this$[ebp]
  0000f	8b 80 90 03 00
	00		 mov	 eax, DWORD PTR [eax+912]
  00015	5f		 pop	 edi
  00016	5e		 pop	 esi
  00017	5b		 pop	 ebx
  00018	8b e5		 mov	 esp, ebp
  0001a	5d		 pop	 ebp
  0001b	c3		 ret	 0
?GetOpenStatus@CIllusionTempleProcess@@QAEHXZ ENDP	; CIllusionTempleProcess::GetOpenStatus
_TEXT	ENDS
PUBLIC	?RemainTime@CIllusionTempleProcess@@QAEEXZ	; CIllusionTempleProcess::RemainTime
; Function compile flags: /Odtp /ZI
; File d:\projects\exteam6.3\source\gameserver\gameserver\illusiontempleprocess.cpp
_TEXT	SEGMENT
$T235744 = -152						; size = 4
$T235745 = -148						; size = 4
$T235746 = -144						; size = 4
$T235747 = -140						; size = 4
$T235748 = -136						; size = 4
$T235749 = -132						; size = 4
$T235750 = -128						; size = 4
_loc13$234286 = -60					; size = 4
_loc12$234285 = -56					; size = 4
_ltime$234284 = -52					; size = 8
_today$234283 = -44					; size = 4
_CurrentTime$234282 = -40				; size = 4
_CheckTime$234281 = -36					; size = 4
_BaseTime$234280 = -32					; size = 4
_WebzenVar2$234279 = -28				; size = 8
_WebzenVar1$234278 = -20				; size = 8
_it$234277 = -12					; size = 4
_loc2$ = -5						; size = 1
_this$ = -4						; size = 4
?RemainTime@CIllusionTempleProcess@@QAEEXZ PROC		; CIllusionTempleProcess::RemainTime
; _this$ = ecx

; 1048 : {

  02ea0	55		 push	 ebp
  02ea1	8b ec		 mov	 ebp, esp
  02ea3	81 ec 98 00 00
	00		 sub	 esp, 152		; 00000098H
  02ea9	53		 push	 ebx
  02eaa	56		 push	 esi
  02eab	57		 push	 edi
  02eac	89 4d fc	 mov	 DWORD PTR _this$[ebp], ecx

; 1049 : 	BYTE loc2 = 0;

  02eaf	c6 45 fb 00	 mov	 BYTE PTR _loc2$[ebp], 0

; 1050 : 	
; 1051 : 	if(this->GetState() == 0 && this->GetOpenStatus() == TRUE)

  02eb3	8b 4d fc	 mov	 ecx, DWORD PTR _this$[ebp]
  02eb6	e8 00 00 00 00	 call	 ?GetState@CIllusionTempleProcess@@QAEEXZ ; CIllusionTempleProcess::GetState
  02ebb	0f b6 c0	 movzx	 eax, al
  02ebe	85 c0		 test	 eax, eax
  02ec0	75 16		 jne	 SHORT $LN20@RemainTime
  02ec2	8b 4d fc	 mov	 ecx, DWORD PTR _this$[ebp]
  02ec5	e8 00 00 00 00	 call	 ?GetOpenStatus@CIllusionTempleProcess@@QAEHXZ ; CIllusionTempleProcess::GetOpenStatus
  02eca	83 f8 01	 cmp	 eax, 1
  02ecd	75 09		 jne	 SHORT $LN20@RemainTime

; 1052 : 	{
; 1053 : 		loc2 = 0;

  02ecf	c6 45 fb 00	 mov	 BYTE PTR _loc2$[ebp], 0
  02ed3	e9 a0 02 00 00	 jmp	 $LN19@RemainTime
$LN20@RemainTime:

; 1054 : 	}
; 1055 : 	else if(this->GetState() == 0 && this->GetOpenStatus() == FALSE)

  02ed8	8b 4d fc	 mov	 ecx, DWORD PTR _this$[ebp]
  02edb	e8 00 00 00 00	 call	 ?GetState@CIllusionTempleProcess@@QAEEXZ ; CIllusionTempleProcess::GetState
  02ee0	0f b6 c0	 movzx	 eax, al
  02ee3	85 c0		 test	 eax, eax
  02ee5	75 23		 jne	 SHORT $LN18@RemainTime
  02ee7	8b 4d fc	 mov	 ecx, DWORD PTR _this$[ebp]
  02eea	e8 00 00 00 00	 call	 ?GetOpenStatus@CIllusionTempleProcess@@QAEHXZ ; CIllusionTempleProcess::GetOpenStatus
  02eef	85 c0		 test	 eax, eax
  02ef1	75 17		 jne	 SHORT $LN18@RemainTime

; 1056 : 	{
; 1057 : 		loc2 = this->m_iLeftMinutesBeforeOpen - m_i_IT_OpenTime;

  02ef3	8b 45 fc	 mov	 eax, DWORD PTR _this$[ebp]
  02ef6	8b 88 98 03 00
	00		 mov	 ecx, DWORD PTR [eax+920]
  02efc	2b 0d 00 00 00
	00		 sub	 ecx, DWORD PTR ?m_i_IT_OpenTime@@3HA ; m_i_IT_OpenTime
  02f02	88 4d fb	 mov	 BYTE PTR _loc2$[ebp], cl

; 1058 : 	}
; 1059 : 	else

  02f05	e9 6e 02 00 00	 jmp	 $LN19@RemainTime
$LN18@RemainTime:

; 1060 : 	{
; 1061 : 		std::list<ILLUSIONTEMPLE_START_TIME>::iterator it; //loc2 -> ebp 4

  02f0a	8d 4d f4	 lea	 ecx, DWORD PTR _it$234277[ebp]
  02f0d	e8 00 00 00 00	 call	 ??0?$_List_iterator@V?$_List_val@UILLUSIONTEMPLE_START_TIME@@V?$allocator@UILLUSIONTEMPLE_START_TIME@@@std@@@std@@@std@@QAE@XZ ; std::_List_iterator<std::_List_val<ILLUSIONTEMPLE_START_TIME,std::allocator<ILLUSIONTEMPLE_START_TIME> > >::_List_iterator<std::_List_val<ILLUSIONTEMPLE_START_TIME,std::allocator<ILLUSIONTEMPLE_START_TIME> > >

; 1062 : 		ILLUSIONTEMPLE_START_TIME WebzenVar1; //loc 3-4 -> ebp C
; 1063 : 		ILLUSIONTEMPLE_START_TIME WebzenVar2; //loc 5-6 -> epb 14
; 1064 : 		int BaseTime = 0; // loc7 -> ebp 18

  02f12	c7 45 e0 00 00
	00 00		 mov	 DWORD PTR _BaseTime$234280[ebp], 0

; 1065 : 		int CheckTime = 0; // loc8 -> ebp 1C

  02f19	c7 45 dc 00 00
	00 00		 mov	 DWORD PTR _CheckTime$234281[ebp], 0

; 1066 : 		DWORD CurrentTime = 0;	// loc9 -> ebp 20

  02f20	c7 45 d8 00 00
	00 00		 mov	 DWORD PTR _CurrentTime$234282[ebp], 0

; 1067 : 		
; 1068 : 		tm * today; //loc10 -> ebp 28
; 1069 : 		time_t ltime; //loc11 -> ebp 2c
; 1070 : 
; 1071 : 		int loc12; //loc12 -> ebp30
; 1072 : 		int loc13; //loc13 -> ebp34
; 1073 : 
; 1074 : 		if(m_listIllusionTempleOpenTime.size() == 0)

  02f27	b9 00 00 00 00	 mov	 ecx, OFFSET ?m_listIllusionTempleOpenTime@@3V?$list@UILLUSIONTEMPLE_START_TIME@@V?$allocator@UILLUSIONTEMPLE_START_TIME@@@std@@@std@@A ; m_listIllusionTempleOpenTime
  02f2c	e8 00 00 00 00	 call	 ?size@?$list@UILLUSIONTEMPLE_START_TIME@@V?$allocator@UILLUSIONTEMPLE_START_TIME@@@std@@@std@@QBEIXZ ; std::list<ILLUSIONTEMPLE_START_TIME,std::allocator<ILLUSIONTEMPLE_START_TIME> >::size
  02f31	85 c0		 test	 eax, eax
  02f33	75 14		 jne	 SHORT $LN16@RemainTime

; 1075 : 		{
; 1076 : 			MsgBox("Error : Illusion Temple StartTime size is 0");

  02f35	68 00 00 00 00	 push	 OFFSET ??_C@_0CM@GMBNLABJ@Error?5?3?5Illusion?5Temple?5StartTim@
  02f3a	e8 00 00 00 00	 call	 ?MsgBox@@YAXPADZZ	; MsgBox
  02f3f	83 c4 04	 add	 esp, 4

; 1077 : 			return FALSE;

  02f42	32 c0		 xor	 al, al
  02f44	e9 32 02 00 00	 jmp	 $LN21@RemainTime
$LN16@RemainTime:

; 1078 : 		}
; 1079 : 
; 1080 : 		time(&ltime); //

  02f49	8d 45 cc	 lea	 eax, DWORD PTR _ltime$234284[ebp]
  02f4c	50		 push	 eax
  02f4d	e8 00 00 00 00	 call	 _time
  02f52	83 c4 04	 add	 esp, 4

; 1081 : 		today = localtime(&ltime); //

  02f55	8d 45 cc	 lea	 eax, DWORD PTR _ltime$234284[ebp]
  02f58	50		 push	 eax
  02f59	e8 00 00 00 00	 call	 _localtime
  02f5e	83 c4 04	 add	 esp, 4
  02f61	89 45 d4	 mov	 DWORD PTR _today$234283[ebp], eax

; 1082 : 
; 1083 : 		
; 1084 : 		CurrentTime = (today->tm_hour * 60) + today->tm_min;

  02f64	8b 45 d4	 mov	 eax, DWORD PTR _today$234283[ebp]
  02f67	8b 48 08	 mov	 ecx, DWORD PTR [eax+8]
  02f6a	6b c9 3c	 imul	 ecx, 60			; 0000003cH
  02f6d	8b 55 d4	 mov	 edx, DWORD PTR _today$234283[ebp]
  02f70	03 4a 04	 add	 ecx, DWORD PTR [edx+4]
  02f73	89 4d d8	 mov	 DWORD PTR _CurrentTime$234282[ebp], ecx

; 1085 : 		WebzenVar1 = *m_listIllusionTempleOpenTime.begin();

  02f76	8d 85 68 ff ff
	ff		 lea	 eax, DWORD PTR $T235744[ebp]
  02f7c	50		 push	 eax
  02f7d	b9 00 00 00 00	 mov	 ecx, OFFSET ?m_listIllusionTempleOpenTime@@3V?$list@UILLUSIONTEMPLE_START_TIME@@V?$allocator@UILLUSIONTEMPLE_START_TIME@@@std@@@std@@A ; m_listIllusionTempleOpenTime
  02f82	e8 00 00 00 00	 call	 ?begin@?$list@UILLUSIONTEMPLE_START_TIME@@V?$allocator@UILLUSIONTEMPLE_START_TIME@@@std@@@std@@QAE?AV?$_List_iterator@V?$_List_val@UILLUSIONTEMPLE_START_TIME@@V?$allocator@UILLUSIONTEMPLE_START_TIME@@@std@@@std@@@2@XZ ; std::list<ILLUSIONTEMPLE_START_TIME,std::allocator<ILLUSIONTEMPLE_START_TIME> >::begin
  02f87	8b c8		 mov	 ecx, eax
  02f89	e8 00 00 00 00	 call	 ??D?$_List_iterator@V?$_List_val@UILLUSIONTEMPLE_START_TIME@@V?$allocator@UILLUSIONTEMPLE_START_TIME@@@std@@@std@@@std@@QBEAAUILLUSIONTEMPLE_START_TIME@@XZ ; std::_List_iterator<std::_List_val<ILLUSIONTEMPLE_START_TIME,std::allocator<ILLUSIONTEMPLE_START_TIME> > >::operator*
  02f8e	8b 08		 mov	 ecx, DWORD PTR [eax]
  02f90	8b 50 04	 mov	 edx, DWORD PTR [eax+4]
  02f93	89 4d ec	 mov	 DWORD PTR _WebzenVar1$234278[ebp], ecx
  02f96	89 55 f0	 mov	 DWORD PTR _WebzenVar1$234278[ebp+4], edx

; 1086 : 
; 1087 : 		for( it = m_listIllusionTempleOpenTime.begin(); it != m_listIllusionTempleOpenTime.end(); ++it ) //for identical

  02f99	8d 85 6c ff ff
	ff		 lea	 eax, DWORD PTR $T235745[ebp]
  02f9f	50		 push	 eax
  02fa0	b9 00 00 00 00	 mov	 ecx, OFFSET ?m_listIllusionTempleOpenTime@@3V?$list@UILLUSIONTEMPLE_START_TIME@@V?$allocator@UILLUSIONTEMPLE_START_TIME@@@std@@@std@@A ; m_listIllusionTempleOpenTime
  02fa5	e8 00 00 00 00	 call	 ?begin@?$list@UILLUSIONTEMPLE_START_TIME@@V?$allocator@UILLUSIONTEMPLE_START_TIME@@@std@@@std@@QAE?AV?$_List_iterator@V?$_List_val@UILLUSIONTEMPLE_START_TIME@@V?$allocator@UILLUSIONTEMPLE_START_TIME@@@std@@@std@@@2@XZ ; std::list<ILLUSIONTEMPLE_START_TIME,std::allocator<ILLUSIONTEMPLE_START_TIME> >::begin
  02faa	8b 08		 mov	 ecx, DWORD PTR [eax]
  02fac	89 4d f4	 mov	 DWORD PTR _it$234277[ebp], ecx
  02faf	eb 08		 jmp	 SHORT $LN15@RemainTime
$LN14@RemainTime:
  02fb1	8d 4d f4	 lea	 ecx, DWORD PTR _it$234277[ebp]
  02fb4	e8 00 00 00 00	 call	 ??E?$_List_iterator@V?$_List_val@UILLUSIONTEMPLE_START_TIME@@V?$allocator@UILLUSIONTEMPLE_START_TIME@@@std@@@std@@@std@@QAEAAV01@XZ ; std::_List_iterator<std::_List_val<ILLUSIONTEMPLE_START_TIME,std::allocator<ILLUSIONTEMPLE_START_TIME> > >::operator++
$LN15@RemainTime:
  02fb9	8d 85 70 ff ff
	ff		 lea	 eax, DWORD PTR $T235746[ebp]
  02fbf	50		 push	 eax
  02fc0	b9 00 00 00 00	 mov	 ecx, OFFSET ?m_listIllusionTempleOpenTime@@3V?$list@UILLUSIONTEMPLE_START_TIME@@V?$allocator@UILLUSIONTEMPLE_START_TIME@@@std@@@std@@A ; m_listIllusionTempleOpenTime
  02fc5	e8 00 00 00 00	 call	 ?end@?$list@UILLUSIONTEMPLE_START_TIME@@V?$allocator@UILLUSIONTEMPLE_START_TIME@@@std@@@std@@QAE?AV?$_List_iterator@V?$_List_val@UILLUSIONTEMPLE_START_TIME@@V?$allocator@UILLUSIONTEMPLE_START_TIME@@@std@@@std@@@2@XZ ; std::list<ILLUSIONTEMPLE_START_TIME,std::allocator<ILLUSIONTEMPLE_START_TIME> >::end
  02fca	50		 push	 eax
  02fcb	8d 4d f4	 lea	 ecx, DWORD PTR _it$234277[ebp]
  02fce	e8 00 00 00 00	 call	 ??9?$_List_const_iterator@V?$_List_val@UILLUSIONTEMPLE_START_TIME@@V?$allocator@UILLUSIONTEMPLE_START_TIME@@@std@@@std@@@std@@QBE_NABV01@@Z ; std::_List_const_iterator<std::_List_val<ILLUSIONTEMPLE_START_TIME,std::allocator<ILLUSIONTEMPLE_START_TIME> > >::operator!=
  02fd3	0f b6 c8	 movzx	 ecx, al
  02fd6	85 c9		 test	 ecx, ecx
  02fd8	74 7e		 je	 SHORT $LN13@RemainTime

; 1088 : 		{
; 1089 : 			WebzenVar2 = *it; // loc5-6

  02fda	8d 4d f4	 lea	 ecx, DWORD PTR _it$234277[ebp]
