; Listing generated by Microsoft (R) Optimizing Compiler Version 16.00.40219.01 

	TITLE	D:\Projects\ExTeam6.3\Source\GameServer\GameServer\Imperial.cpp
	.686P
	.XMM
	include listing.inc
	.model	flat

INCLUDELIB LIBCMT
INCLUDELIB OLDNAMES

_DATA	SEGMENT
_g_sttBLOODCASTLE_LEVEL DD 0fH
	DD	050H
	DD	0aH
	DD	03cH
	DD	051H
	DD	082H
	DD	03dH
	DD	06eH
	DD	083H
	DD	0b4H
	DD	06fH
	DD	0a0H
	DD	0b5H
	DD	0e6H
	DD	0a1H
	DD	0d2H
	DD	0e7H
	DD	0118H
	DD	0d3H
	DD	0104H
	DD	0119H
	DD	014aH
	DD	0105H
	DD	0136H
	DD	014bH
	DD	0190H
	DD	0137H
	DD	0190H
	DD	0fH
	DD	0257H
	DD	0aH
	DD	0257H
_g_iNpcUpDfLevel_CGATE DD 01H
	DD	02H
	DD	02dc6c0H
	DD	02H
	DD	03H
	DD	02dc6c0H
	DD	03H
	DD	04H
	DD	02dc6c0H
_g_iNpcUpDfLevel_CSTATUE DD 01H
	DD	03H
	DD	02dc6c0H
	DD	02H
	DD	05H
	DD	02dc6c0H
	DD	03H
	DD	07H
	DD	02dc6c0H
_g_iNpcUpMaxHP_CGATE DD 02625a0H
	DD	02H
	DD	0f4240H
	DD	03567e0H
	DD	03H
	DD	0f4240H
	DD	04f5880H
	DD	04H
	DD	0f4240H
_g_iNpcUpMaxHP_CSTATUE DD 02191c0H
	DD	03H
	DD	0f4240H
	DD	033e140H
	DD	05H
	DD	0f4240H
	DD	04c4b40H
	DD	07H
	DD	0f4240H
_g_iNpcUpRgLevel_CSTATUE DD 01H
	DD	03H
	DD	04c4b40H
	DD	02H
	DD	05H
	DD	04c4b40H
	DD	03H
	DD	07H
	DD	04c4b40H
_g_iCsUserReSpawnArea DD 023H
	DD	011H
	DD	090H
	DD	030H
	DD	04aH
	DD	090H
	DD	073H
	DD	09aH
	DD	023H
	DD	011H
	DD	090H
	DD	030H
_g_iNpcDefense_CGATE DD 064H
	DD	0b4H
	DD	012cH
	DD	0208H
_g_iNpcDefense_CSTATUE DD 050H
	DD	0b4H
	DD	0154H
	DD	0226H
_g_iCastleWallStepAxisY DD 071H
	DD	0a0H
	DD	0cbH
_DATA	ENDS
CONST	SEGMENT
_g_ImperialGate DD 01H
	DD	0133H
	DD	02H
	DD	0138H
	DD	03H
	DD	013dH
	DD	04H
	DD	0133H
	DD	05H
	DD	0138H
	DD	06H
	DD	013dH
	DD	07H
	DD	0142H
_g_ExpTable DD	01H
	ORG $+4
	DQ	000000000007a120H
	DD	02H
	ORG $+4
	DQ	00000000000927c0H
	DD	03H
	ORG $+4
	DQ	00000000000aae60H
	DD	04H
	ORG $+4
	DQ	00000000000c3500H
	DD	05H
	ORG $+4
	DQ	00000000000dbba0H
	DD	06H
	ORG $+4
	DQ	00000000000f4240H
	DD	07H
	ORG $+4
	DQ	00000000004c4b40H
CONST	ENDS
PUBLIC	??_H@YGXPAXIHP6EPAX0@Z@Z			; `vector constructor iterator'
; Function compile flags: /Odtp /ZI
;	COMDAT ??_H@YGXPAXIHP6EPAX0@Z@Z
_TEXT	SEGMENT
___t$ = 8						; size = 4
___s$ = 12						; size = 4
___n$ = 16						; size = 4
___f$ = 20						; size = 4
??_H@YGXPAXIHP6EPAX0@Z@Z PROC				; `vector constructor iterator', COMDAT
  00000	55		 push	 ebp
  00001	8b ec		 mov	 ebp, esp
  00003	83 ec 40	 sub	 esp, 64			; 00000040H
  00006	53		 push	 ebx
  00007	56		 push	 esi
  00008	57		 push	 edi
$LN2@vector:
  00009	8b 45 10	 mov	 eax, DWORD PTR ___n$[ebp]
  0000c	83 e8 01	 sub	 eax, 1
  0000f	89 45 10	 mov	 DWORD PTR ___n$[ebp], eax
  00012	78 11		 js	 SHORT $LN3@vector
  00014	8b 4d 08	 mov	 ecx, DWORD PTR ___t$[ebp]
  00017	ff 55 14	 call	 DWORD PTR ___f$[ebp]
  0001a	8b 45 08	 mov	 eax, DWORD PTR ___t$[ebp]
  0001d	03 45 0c	 add	 eax, DWORD PTR ___s$[ebp]
  00020	89 45 08	 mov	 DWORD PTR ___t$[ebp], eax
  00023	eb e4		 jmp	 SHORT $LN2@vector
$LN3@vector:
  00025	5f		 pop	 edi
  00026	5e		 pop	 esi
  00027	5b		 pop	 ebx
  00028	8b e5		 mov	 esp, ebp
  0002a	5d		 pop	 ebp
  0002b	c2 10 00	 ret	 16			; 00000010H
??_H@YGXPAXIHP6EPAX0@Z@Z ENDP				; `vector constructor iterator'
_TEXT	ENDS
PUBLIC	?Reset@IMPERIAL_EVENT_INFO@@QAEXXZ		; IMPERIAL_EVENT_INFO::Reset
PUBLIC	??_7CImperial@@6B@				; CImperial::`vftable'
PUBLIC	??0CImperial@@QAE@XZ				; CImperial::CImperial
PUBLIC	??_R4CImperial@@6B@				; CImperial::`RTTI Complete Object Locator'
PUBLIC	??_R0?AVCImperial@@@8				; CImperial `RTTI Type Descriptor'
PUBLIC	??_R3CImperial@@8				; CImperial::`RTTI Class Hierarchy Descriptor'
PUBLIC	??_R2CImperial@@8				; CImperial::`RTTI Base Class Array'
PUBLIC	??_R1A@?0A@EA@CImperial@@8			; CImperial::`RTTI Base Class Descriptor at (0,-1,0,64)'
EXTRN	??1CImperialBattleOfGaion@@UAE@XZ:PROC		; CImperialBattleOfGaion::~CImperialBattleOfGaion
EXTRN	??1CImperialBattleOfRaymond@@UAE@XZ:PROC	; CImperialBattleOfRaymond::~CImperialBattleOfRaymond
EXTRN	??1CImperialBattleOfErkanne@@UAE@XZ:PROC	; CImperialBattleOfErkanne::~CImperialBattleOfErkanne
EXTRN	??1CImperialBattleOfGalia@@UAE@XZ:PROC		; CImperialBattleOfGalia::~CImperialBattleOfGalia
EXTRN	??1CImperialBattleOfKato@@UAE@XZ:PROC		; CImperialBattleOfKato::~CImperialBattleOfKato
EXTRN	??1CImperialBattleOfVermont@@UAE@XZ:PROC	; CImperialBattleOfVermont::~CImperialBattleOfVermont
EXTRN	??1CImperialBattleOfDestler@@UAE@XZ:PROC	; CImperialBattleOfDestler::~CImperialBattleOfDestler
EXTRN	??0CImperialBattleOfGaion@@QAE@XZ:PROC		; CImperialBattleOfGaion::CImperialBattleOfGaion
EXTRN	??0CImperialBattleOfRaymond@@QAE@XZ:PROC	; CImperialBattleOfRaymond::CImperialBattleOfRaymond
EXTRN	??0CImperialBattleOfErkanne@@QAE@XZ:PROC	; CImperialBattleOfErkanne::CImperialBattleOfErkanne
EXTRN	??0CImperialBattleOfGalia@@QAE@XZ:PROC		; CImperialBattleOfGalia::CImperialBattleOfGalia
EXTRN	??0CImperialBattleOfKato@@QAE@XZ:PROC		; CImperialBattleOfKato::CImperialBattleOfKato
EXTRN	??0CImperialBattleOfVermont@@QAE@XZ:PROC	; CImperialBattleOfVermont::CImperialBattleOfVermont
EXTRN	??0CImperialBattleOfDestler@@QAE@XZ:PROC	; CImperialBattleOfDestler::CImperialBattleOfDestler
EXTRN	___security_cookie:DWORD
EXTRN	___CxxFrameHandler3:PROC
EXTRN	@__security_check_cookie@4:PROC
EXTRN	??_7type_info@@6B@:QWORD			; type_info::`vftable'
EXTRN	??_ECImperial@@UAEPAXI@Z:PROC			; CImperial::`vector deleting destructor'
;	COMDAT ??_R1A@?0A@EA@CImperial@@8
; File d:\projects\exteam6.3\source\gameserver\gameserver\imperial.cpp
rdata$r	SEGMENT
??_R1A@?0A@EA@CImperial@@8 DD FLAT:??_R0?AVCImperial@@@8 ; CImperial::`RTTI Base Class Descriptor at (0,-1,0,64)'
	DD	00H
	DD	00H
	DD	0ffffffffH
	DD	00H
	DD	040H
	DD	FLAT:??_R3CImperial@@8
rdata$r	ENDS
;	COMDAT ??_R2CImperial@@8
rdata$r	SEGMENT
??_R2CImperial@@8 DD FLAT:??_R1A@?0A@EA@CImperial@@8	; CImperial::`RTTI Base Class Array'
rdata$r	ENDS
;	COMDAT ??_R3CImperial@@8
rdata$r	SEGMENT
??_R3CImperial@@8 DD 00H				; CImperial::`RTTI Class Hierarchy Descriptor'
	DD	00H
	DD	01H
	DD	FLAT:??_R2CImperial@@8
rdata$r	ENDS
;	COMDAT ??_R0?AVCImperial@@@8
_DATA	SEGMENT
??_R0?AVCImperial@@@8 DD FLAT:??_7type_info@@6B@	; CImperial `RTTI Type Descriptor'
	DD	00H
	DB	'.?AVCImperial@@', 00H
_DATA	ENDS
;	COMDAT ??_R4CImperial@@6B@
rdata$r	SEGMENT
??_R4CImperial@@6B@ DD 00H				; CImperial::`RTTI Complete Object Locator'
	DD	00H
	DD	00H
	DD	FLAT:??_R0?AVCImperial@@@8
	DD	FLAT:??_R3CImperial@@8
rdata$r	ENDS
;	COMDAT ??_7CImperial@@6B@
CONST	SEGMENT
??_7CImperial@@6B@ DD FLAT:??_R4CImperial@@6B@		; CImperial::`vftable'
	DD	FLAT:??_ECImperial@@UAEPAXI@Z
CONST	ENDS
xdata$x	SEGMENT
__ehfuncinfo$??0CImperial@@QAE@XZ DD 019930522H
	DD	07H
	DD	FLAT:__unwindtable$??0CImperial@@QAE@XZ
	DD	2 DUP(00H)
	DD	2 DUP(00H)
	DD	00H
	DD	01H
__unwindtable$??0CImperial@@QAE@XZ DD 0ffffffffH
	DD	FLAT:__unwindfunclet$??0CImperial@@QAE@XZ$0
	DD	00H
	DD	FLAT:__unwindfunclet$??0CImperial@@QAE@XZ$1
	DD	01H
	DD	FLAT:__unwindfunclet$??0CImperial@@QAE@XZ$2
	DD	02H
	DD	FLAT:__unwindfunclet$??0CImperial@@QAE@XZ$3
	DD	03H
	DD	FLAT:__unwindfunclet$??0CImperial@@QAE@XZ$4
	DD	04H
	DD	FLAT:__unwindfunclet$??0CImperial@@QAE@XZ$5
	DD	05H
	DD	FLAT:__unwindfunclet$??0CImperial@@QAE@XZ$6
; Function compile flags: /Odtp /ZI
xdata$x	ENDS
_TEXT	SEGMENT
_this$ = -16						; size = 4
__$EHRec$ = -12						; size = 12
??0CImperial@@QAE@XZ PROC				; CImperial::CImperial
; _this$ = ecx

; 20   : {

  00000	55		 push	 ebp
  00001	8b ec		 mov	 ebp, esp
  00003	6a ff		 push	 -1
  00005	68 00 00 00 00	 push	 __ehhandler$??0CImperial@@QAE@XZ
  0000a	64 a1 00 00 00
	00		 mov	 eax, DWORD PTR fs:0
  00010	50		 push	 eax
  00011	83 ec 44	 sub	 esp, 68			; 00000044H
  00014	53		 push	 ebx
  00015	56		 push	 esi
  00016	57		 push	 edi
  00017	a1 00 00 00 00	 mov	 eax, DWORD PTR ___security_cookie
  0001c	33 c5		 xor	 eax, ebp
  0001e	50		 push	 eax
  0001f	8d 45 f4	 lea	 eax, DWORD PTR __$EHRec$[ebp]
  00022	64 a3 00 00 00
	00		 mov	 DWORD PTR fs:0, eax
  00028	89 4d f0	 mov	 DWORD PTR _this$[ebp], ecx
  0002b	8b 45 f0	 mov	 eax, DWORD PTR _this$[ebp]
  0002e	c7 00 00 00 00
	00		 mov	 DWORD PTR [eax], OFFSET ??_7CImperial@@6B@
  00034	8b 4d f0	 mov	 ecx, DWORD PTR _this$[ebp]
  00037	81 c1 34 af 00
	00		 add	 ecx, 44852		; 0000af34H
  0003d	e8 00 00 00 00	 call	 ??0CImperialBattleOfDestler@@QAE@XZ ; CImperialBattleOfDestler::CImperialBattleOfDestler
  00042	c7 45 fc 00 00
	00 00		 mov	 DWORD PTR __$EHRec$[ebp+8], 0
  00049	8b 4d f0	 mov	 ecx, DWORD PTR _this$[ebp]
  0004c	81 c1 90 af 00
	00		 add	 ecx, 44944		; 0000af90H
  00052	e8 00 00 00 00	 call	 ??0CImperialBattleOfVermont@@QAE@XZ ; CImperialBattleOfVermont::CImperialBattleOfVermont
  00057	c6 45 fc 01	 mov	 BYTE PTR __$EHRec$[ebp+8], 1
  0005b	8b 4d f0	 mov	 ecx, DWORD PTR _this$[ebp]
  0005e	81 c1 ec af 00
	00		 add	 ecx, 45036		; 0000afecH
  00064	e8 00 00 00 00	 call	 ??0CImperialBattleOfKato@@QAE@XZ ; CImperialBattleOfKato::CImperialBattleOfKato
  00069	c6 45 fc 02	 mov	 BYTE PTR __$EHRec$[ebp+8], 2
  0006d	8b 4d f0	 mov	 ecx, DWORD PTR _this$[ebp]
  00070	81 c1 48 b0 00
	00		 add	 ecx, 45128		; 0000b048H
  00076	e8 00 00 00 00	 call	 ??0CImperialBattleOfGalia@@QAE@XZ ; CImperialBattleOfGalia::CImperialBattleOfGalia
  0007b	c6 45 fc 03	 mov	 BYTE PTR __$EHRec$[ebp+8], 3
  0007f	8b 4d f0	 mov	 ecx, DWORD PTR _this$[ebp]
  00082	81 c1 a4 b0 00
	00		 add	 ecx, 45220		; 0000b0a4H
  00088	e8 00 00 00 00	 call	 ??0CImperialBattleOfErkanne@@QAE@XZ ; CImperialBattleOfErkanne::CImperialBattleOfErkanne
  0008d	c6 45 fc 04	 mov	 BYTE PTR __$EHRec$[ebp+8], 4
  00091	8b 4d f0	 mov	 ecx, DWORD PTR _this$[ebp]
  00094	81 c1 00 b1 00
	00		 add	 ecx, 45312		; 0000b100H
  0009a	e8 00 00 00 00	 call	 ??0CImperialBattleOfRaymond@@QAE@XZ ; CImperialBattleOfRaymond::CImperialBattleOfRaymond
  0009f	c6 45 fc 05	 mov	 BYTE PTR __$EHRec$[ebp+8], 5
  000a3	8b 4d f0	 mov	 ecx, DWORD PTR _this$[ebp]
  000a6	81 c1 50 b1 00
	00		 add	 ecx, 45392		; 0000b150H
  000ac	e8 00 00 00 00	 call	 ??0CImperialBattleOfGaion@@QAE@XZ ; CImperialBattleOfGaion::CImperialBattleOfGaion
  000b1	c6 45 fc 06	 mov	 BYTE PTR __$EHRec$[ebp+8], 6

; 21   : 	this->m_ImperialData.Reset();

  000b5	8b 4d f0	 mov	 ecx, DWORD PTR _this$[ebp]
  000b8	81 c1 20 af 00
	00		 add	 ecx, 44832		; 0000af20H
  000be	e8 00 00 00 00	 call	 ?Reset@IMPERIAL_EVENT_INFO@@QAEXXZ ; IMPERIAL_EVENT_INFO::Reset

; 22   : }

  000c3	c7 45 fc ff ff
	ff ff		 mov	 DWORD PTR __$EHRec$[ebp+8], -1
  000ca	8b 45 f0	 mov	 eax, DWORD PTR _this$[ebp]
  000cd	8b 4d f4	 mov	 ecx, DWORD PTR __$EHRec$[ebp]
  000d0	64 89 0d 00 00
	00 00		 mov	 DWORD PTR fs:0, ecx
  000d7	59		 pop	 ecx
  000d8	5f		 pop	 edi
  000d9	5e		 pop	 esi
  000da	5b		 pop	 ebx
  000db	8b e5		 mov	 esp, ebp
  000dd	5d		 pop	 ebp
  000de	c3		 ret	 0
_TEXT	ENDS
text$x	SEGMENT
__unwindfunclet$??0CImperial@@QAE@XZ$0:
  00000	8b 4d f0	 mov	 ecx, DWORD PTR _this$[ebp]
  00003	81 c1 34 af 00
	00		 add	 ecx, 44852		; 0000af34H
  00009	e9 00 00 00 00	 jmp	 ??1CImperialBattleOfDestler@@UAE@XZ ; CImperialBattleOfDestler::~CImperialBattleOfDestler
__unwindfunclet$??0CImperial@@QAE@XZ$1:
  0000e	8b 4d f0	 mov	 ecx, DWORD PTR _this$[ebp]
  00011	81 c1 90 af 00
	00		 add	 ecx, 44944		; 0000af90H
  00017	e9 00 00 00 00	 jmp	 ??1CImperialBattleOfVermont@@UAE@XZ ; CImperialBattleOfVermont::~CImperialBattleOfVermont
__unwindfunclet$??0CImperial@@QAE@XZ$2:
  0001c	8b 4d f0	 mov	 ecx, DWORD PTR _this$[ebp]
  0001f	81 c1 ec af 00
	00		 add	 ecx, 45036		; 0000afecH
  00025	e9 00 00 00 00	 jmp	 ??1CImperialBattleOfKato@@UAE@XZ ; CImperialBattleOfKato::~CImperialBattleOfKato
__unwindfunclet$??0CImperial@@QAE@XZ$3:
  0002a	8b 4d f0	 mov	 ecx, DWORD PTR _this$[ebp]
  0002d	81 c1 48 b0 00
	00		 add	 ecx, 45128		; 0000b048H
  00033	e9 00 00 00 00	 jmp	 ??1CImperialBattleOfGalia@@UAE@XZ ; CImperialBattleOfGalia::~CImperialBattleOfGalia
__unwindfunclet$??0CImperial@@QAE@XZ$4:
  00038	8b 4d f0	 mov	 ecx, DWORD PTR _this$[ebp]
  0003b	81 c1 a4 b0 00
	00		 add	 ecx, 45220		; 0000b0a4H
  00041	e9 00 00 00 00	 jmp	 ??1CImperialBattleOfErkanne@@UAE@XZ ; CImperialBattleOfErkanne::~CImperialBattleOfErkanne
__unwindfunclet$??0CImperial@@QAE@XZ$5:
  00046	8b 4d f0	 mov	 ecx, DWORD PTR _this$[ebp]
  00049	81 c1 00 b1 00
	00		 add	 ecx, 45312		; 0000b100H
  0004f	e9 00 00 00 00	 jmp	 ??1CImperialBattleOfRaymond@@UAE@XZ ; CImperialBattleOfRaymond::~CImperialBattleOfRaymond
__unwindfunclet$??0CImperial@@QAE@XZ$6:
  00054	8b 4d f0	 mov	 ecx, DWORD PTR _this$[ebp]
  00057	81 c1 50 b1 00
	00		 add	 ecx, 45392		; 0000b150H
  0005d	e9 00 00 00 00	 jmp	 ??1CImperialBattleOfGaion@@UAE@XZ ; CImperialBattleOfGaion::~CImperialBattleOfGaion
__ehhandler$??0CImperial@@QAE@XZ:
  00062	8b 54 24 08	 mov	 edx, DWORD PTR [esp+8]
  00066	8d 42 0c	 lea	 eax, DWORD PTR [edx+12]
  00069	8b 4a ac	 mov	 ecx, DWORD PTR [edx-84]
  0006c	33 c8		 xor	 ecx, eax
  0006e	e8 00 00 00 00	 call	 @__security_check_cookie@4
  00073	b8 00 00 00 00	 mov	 eax, OFFSET __ehfuncinfo$??0CImperial@@QAE@XZ
  00078	e9 00 00 00 00	 jmp	 ___CxxFrameHandler3
text$x	ENDS
??0CImperial@@QAE@XZ ENDP				; CImperial::CImperial
; Function compile flags: /Odtp /ZI
; File d:\projects\exteam6.3\source\gameserver\gameserver\imperial.h
;	COMDAT ?Reset@IMPERIAL_EVENT_INFO@@QAEXXZ
_TEXT	SEGMENT
_this$ = -4						; size = 4
?Reset@IMPERIAL_EVENT_INFO@@QAEXXZ PROC			; IMPERIAL_EVENT_INFO::Reset, COMDAT
; _this$ = ecx

; 28   : 	{

  00000	55		 push	 ebp
  00001	8b ec		 mov	 ebp, esp
  00003	83 ec 44	 sub	 esp, 68			; 00000044H
  00006	53		 push	 ebx
  00007	56		 push	 esi
  00008	57		 push	 edi
  00009	89 4d fc	 mov	 DWORD PTR _this$[ebp], ecx

; 29   : 		this->PartyID = -1;

  0000c	83 c8 ff	 or	 eax, -1
  0000f	8b 4d fc	 mov	 ecx, DWORD PTR _this$[ebp]
  00012	66 89 01	 mov	 WORD PTR [ecx], ax

; 30   : 		this->iState = 0;

  00015	8b 45 fc	 mov	 eax, DWORD PTR _this$[ebp]
  00018	c7 40 04 00 00
	00 00		 mov	 DWORD PTR [eax+4], 0

; 31   : 		Tick = 0;

  0001f	8b 45 fc	 mov	 eax, DWORD PTR _this$[ebp]
  00022	c7 40 08 00 00
	00 00		 mov	 DWORD PTR [eax+8], 0

; 32   : 		Time = 0;

  00029	8b 45 fc	 mov	 eax, DWORD PTR _this$[ebp]
  0002c	c7 40 0c 00 00
	00 00		 mov	 DWORD PTR [eax+12], 0

; 33   : 	}

  00033	5f		 pop	 edi
  00034	5e		 pop	 esi
  00035	5b		 pop	 ebx
  00036	8b e5		 mov	 esp, ebp
  00038	5d		 pop	 ebp
  00039	c3		 ret	 0
?Reset@IMPERIAL_EVENT_INFO@@QAEXXZ ENDP			; IMPERIAL_EVENT_INFO::Reset
_TEXT	ENDS
PUBLIC	??1CImperial@@UAE@XZ				; CImperial::~CImperial
EXTRN	??3@YAXPAX@Z:PROC				; operator delete
; Function compile flags: /Odtp /ZI
;	COMDAT ??_GCImperial@@UAEPAXI@Z
_TEXT	SEGMENT
_this$ = -4						; size = 4
___flags$ = 8						; size = 4
??_GCImperial@@UAEPAXI@Z PROC				; CImperial::`scalar deleting destructor', COMDAT
; _this$ = ecx
  00000	55		 push	 ebp
  00001	8b ec		 mov	 ebp, esp
  00003	83 ec 44	 sub	 esp, 68			; 00000044H
  00006	53		 push	 ebx
  00007	56		 push	 esi
  00008	57		 push	 edi
  00009	89 4d fc	 mov	 DWORD PTR _this$[ebp], ecx
  0000c	8b 4d fc	 mov	 ecx, DWORD PTR _this$[ebp]
  0000f	e8 00 00 00 00	 call	 ??1CImperial@@UAE@XZ	; CImperial::~CImperial
  00014	8b 45 08	 mov	 eax, DWORD PTR ___flags$[ebp]
  00017	83 e0 01	 and	 eax, 1
  0001a	74 0c		 je	 SHORT $LN1@scalar
  0001c	8b 45 fc	 mov	 eax, DWORD PTR _this$[ebp]
  0001f	50		 push	 eax
  00020	e8 00 00 00 00	 call	 ??3@YAXPAX@Z		; operator delete
  00025	83 c4 04	 add	 esp, 4
$LN1@scalar:
  00028	8b 45 fc	 mov	 eax, DWORD PTR _this$[ebp]
  0002b	5f		 pop	 edi
  0002c	5e		 pop	 esi
  0002d	5b		 pop	 ebx
  0002e	8b e5		 mov	 esp, ebp
  00030	5d		 pop	 ebp
  00031	c2 04 00	 ret	 4
??_GCImperial@@UAEPAXI@Z ENDP				; CImperial::`scalar deleting destructor'
_TEXT	ENDS
xdata$x	SEGMENT
__ehfuncinfo$??1CImperial@@UAE@XZ DD 019930522H
	DD	06H
	DD	FLAT:__unwindtable$??1CImperial@@UAE@XZ
	DD	2 DUP(00H)
	DD	2 DUP(00H)
	DD	00H
	DD	01H
__unwindtable$??1CImperial@@UAE@XZ DD 0ffffffffH
	DD	FLAT:__unwindfunclet$??1CImperial@@UAE@XZ$0
	DD	00H
	DD	FLAT:__unwindfunclet$??1CImperial@@UAE@XZ$1
	DD	01H
	DD	FLAT:__unwindfunclet$??1CImperial@@UAE@XZ$2
	DD	02H
	DD	FLAT:__unwindfunclet$??1CImperial@@UAE@XZ$3
	DD	03H
	DD	FLAT:__unwindfunclet$??1CImperial@@UAE@XZ$4
	DD	04H
	DD	FLAT:__unwindfunclet$??1CImperial@@UAE@XZ$5
; Function compile flags: /Odtp /ZI
; File d:\projects\exteam6.3\source\gameserver\gameserver\imperial.cpp
xdata$x	ENDS
_TEXT	SEGMENT
_this$ = -16						; size = 4
__$EHRec$ = -12						; size = 12
??1CImperial@@UAE@XZ PROC				; CImperial::~CImperial
; _this$ = ecx

; 25   : {

  000e0	55		 push	 ebp
  000e1	8b ec		 mov	 ebp, esp
  000e3	6a ff		 push	 -1
  000e5	68 00 00 00 00	 push	 __ehhandler$??1CImperial@@UAE@XZ
  000ea	64 a1 00 00 00
	00		 mov	 eax, DWORD PTR fs:0
  000f0	50		 push	 eax
  000f1	83 ec 44	 sub	 esp, 68			; 00000044H
  000f4	53		 push	 ebx
  000f5	56		 push	 esi
  000f6	57		 push	 edi
  000f7	a1 00 00 00 00	 mov	 eax, DWORD PTR ___security_cookie
  000fc	33 c5		 xor	 eax, ebp
  000fe	50		 push	 eax
  000ff	8d 45 f4	 lea	 eax, DWORD PTR __$EHRec$[ebp]
  00102	64 a3 00 00 00
	00		 mov	 DWORD PTR fs:0, eax
  00108	89 4d f0	 mov	 DWORD PTR _this$[ebp], ecx
  0010b	8b 45 f0	 mov	 eax, DWORD PTR _this$[ebp]
  0010e	c7 00 00 00 00
	00		 mov	 DWORD PTR [eax], OFFSET ??_7CImperial@@6B@
  00114	c7 45 fc 05 00
	00 00		 mov	 DWORD PTR __$EHRec$[ebp+8], 5

; 26   : }

  0011b	8b 4d f0	 mov	 ecx, DWORD PTR _this$[ebp]
  0011e	81 c1 50 b1 00
	00		 add	 ecx, 45392		; 0000b150H
  00124	e8 00 00 00 00	 call	 ??1CImperialBattleOfGaion@@UAE@XZ ; CImperialBattleOfGaion::~CImperialBattleOfGaion
  00129	c6 45 fc 04	 mov	 BYTE PTR __$EHRec$[ebp+8], 4
  0012d	8b 4d f0	 mov	 ecx, DWORD PTR _this$[ebp]
  00130	81 c1 00 b1 00
	00		 add	 ecx, 45312		; 0000b100H
  00136	e8 00 00 00 00	 call	 ??1CImperialBattleOfRaymond@@UAE@XZ ; CImperialBattleOfRaymond::~CImperialBattleOfRaymond
  0013b	c6 45 fc 03	 mov	 BYTE PTR __$EHRec$[ebp+8], 3
  0013f	8b 4d f0	 mov	 ecx, DWORD PTR _this$[ebp]
  00142	81 c1 a4 b0 00
	00		 add	 ecx, 45220		; 0000b0a4H
  00148	e8 00 00 00 00	 call	 ??1CImperialBattleOfErkanne@@UAE@XZ ; CImperialBattleOfErkanne::~CImperialBattleOfErkanne
  0014d	c6 45 fc 02	 mov	 BYTE PTR __$EHRec$[ebp+8], 2
  00151	8b 4d f0	 mov	 ecx, DWORD PTR _this$[ebp]
  00154	81 c1 48 b0 00
	00		 add	 ecx, 45128		; 0000b048H
  0015a	e8 00 00 00 00	 call	 ??1CImperialBattleOfGalia@@UAE@XZ ; CImperialBattleOfGalia::~CImperialBattleOfGalia
  0015f	c6 45 fc 01	 mov	 BYTE PTR __$EHRec$[ebp+8], 1
  00163	8b 4d f0	 mov	 ecx, DWORD PTR _this$[ebp]
  00166	81 c1 ec af 00
	00		 add	 ecx, 45036		; 0000afecH
  0016c	e8 00 00 00 00	 call	 ??1CImperialBattleOfKato@@UAE@XZ ; CImperialBattleOfKato::~CImperialBattleOfKato
  00171	c6 45 fc 00	 mov	 BYTE PTR __$EHRec$[ebp+8], 0
  00175	8b 4d f0	 mov	 ecx, DWORD PTR _this$[ebp]
  00178	81 c1 90 af 00
	00		 add	 ecx, 44944		; 0000af90H
  0017e	e8 00 00 00 00	 call	 ??1CImperialBattleOfVermont@@UAE@XZ ; CImperialBattleOfVermont::~CImperialBattleOfVermont
  00183	c7 45 fc ff ff
	ff ff		 mov	 DWORD PTR __$EHRec$[ebp+8], -1
  0018a	8b 4d f0	 mov	 ecx, DWORD PTR _this$[ebp]
  0018d	81 c1 34 af 00
	00		 add	 ecx, 44852		; 0000af34H
  00193	e8 00 00 00 00	 call	 ??1CImperialBattleOfDestler@@UAE@XZ ; CImperialBattleOfDestler::~CImperialBattleOfDestler
  00198	8b 4d f4	 mov	 ecx, DWORD PTR __$EHRec$[ebp]
  0019b	64 89 0d 00 00
	00 00		 mov	 DWORD PTR fs:0, ecx
  001a2	59		 pop	 ecx
  001a3	5f		 pop	 edi
  001a4	5e		 pop	 esi
  001a5	5b		 pop	 ebx
  001a6	8b e5		 mov	 esp, ebp
  001a8	5d		 pop	 ebp
  001a9	c3		 ret	 0
_TEXT	ENDS
text$x	SEGMENT
__unwindfunclet$??1CImperial@@UAE@XZ$0:
  0007d	8b 4d f0	 mov	 ecx, DWORD PTR _this$[ebp]
  00080	81 c1 34 af 00
	00		 add	 ecx, 44852		; 0000af34H
  00086	e9 00 00 00 00	 jmp	 ??1CImperialBattleOfDestler@@UAE@XZ ; CImperialBattleOfDestler::~CImperialBattleOfDestler
__unwindfunclet$??1CImperial@@UAE@XZ$1:
  0008b	8b 4d f0	 mov	 ecx, DWORD PTR _this$[ebp]
  0008e	81 c1 90 af 00
	00		 add	 ecx, 44944		; 0000af90H
  00094	e9 00 00 00 00	 jmp	 ??1CImperialBattleOfVermont@@UAE@XZ ; CImperialBattleOfVermont::~CImperialBattleOfVermont
__unwindfunclet$??1CImperial@@UAE@XZ$2:
  00099	8b 4d f0	 mov	 ecx, DWORD PTR _this$[ebp]
  0009c	81 c1 ec af 00
	00		 add	 ecx, 45036		; 0000afecH
  000a2	e9 00 00 00 00	 jmp	 ??1CImperialBattleOfKato@@UAE@XZ ; CImperialBattleOfKato::~CImperialBattleOfKato
__unwindfunclet$??1CImperial@@UAE@XZ$3:
  000a7	8b 4d f0	 mov	 ecx, DWORD PTR _this$[ebp]
  000aa	81 c1 48 b0 00
	00		 add	 ecx, 45128		; 0000b048H
  000b0	e9 00 00 00 00	 jmp	 ??1CImperialBattleOfGalia@@UAE@XZ ; CImperialBattleOfGalia::~CImperialBattleOfGalia
__unwindfunclet$??1CImperial@@UAE@XZ$4:
  000b5	8b 4d f0	 mov	 ecx, DWORD PTR _this$[ebp]
  000b8	81 c1 a4 b0 00
	00		 add	 ecx, 45220		; 0000b0a4H
  000be	e9 00 00 00 00	 jmp	 ??1CImperialBattleOfErkanne@@UAE@XZ ; CImperialBattleOfErkanne::~CImperialBattleOfErkanne
__unwindfunclet$??1CImperial@@UAE@XZ$5:
  000c3	8b 4d f0	 mov	 ecx, DWORD PTR _this$[ebp]
  000c6	81 c1 00 b1 00
	00		 add	 ecx, 45312		; 0000b100H
  000cc	e9 00 00 00 00	 jmp	 ??1CImperialBattleOfRaymond@@UAE@XZ ; CImperialBattleOfRaymond::~CImperialBattleOfRaymond
__ehhandler$??1CImperial@@UAE@XZ:
  000d1	8b 54 24 08	 mov	 edx, DWORD PTR [esp+8]
  000d5	8d 42 0c	 lea	 eax, DWORD PTR [edx+12]
  000d8	8b 4a ac	 mov	 ecx, DWORD PTR [edx-84]
  000db	33 c8		 xor	 ecx, eax
  000dd	e8 00 00 00 00	 call	 @__security_check_cookie@4
  000e2	b8 00 00 00 00	 mov	 eax, OFFSET __ehfuncinfo$??1CImperial@@UAE@XZ
  000e7	e9 00 00 00 00	 jmp	 ___CxxFrameHandler3
text$x	ENDS
??1CImperial@@UAE@XZ ENDP				; CImperial::~CImperial
PUBLIC	?SetState@CImperial@@QAEXH@Z			; CImperial::SetState
PUBLIC	?Init@CImperial@@QAEXXZ				; CImperial::Init
; Function compile flags: /Odtp /ZI
_TEXT	SEGMENT
_this$ = -4						; size = 4
?Init@CImperial@@QAEXXZ PROC				; CImperial::Init
; _this$ = ecx

; 29   : {

  001b0	55		 push	 ebp
  001b1	8b ec		 mov	 ebp, esp
  001b3	83 ec 44	 sub	 esp, 68			; 00000044H
  001b6	53		 push	 ebx
  001b7	56		 push	 esi
  001b8	57		 push	 edi
  001b9	89 4d fc	 mov	 DWORD PTR _this$[ebp], ecx

; 30   : 	this->m_ImperialData.Reset();

  001bc	8b 4d fc	 mov	 ecx, DWORD PTR _this$[ebp]
  001bf	81 c1 20 af 00
	00		 add	 ecx, 44832		; 0000af20H
  001c5	e8 00 00 00 00	 call	 ?Reset@IMPERIAL_EVENT_INFO@@QAEXXZ ; IMPERIAL_EVENT_INFO::Reset

; 31   : 
; 32   : 	this->SetState(IMPERIAL_STATE_OPEN);

  001ca	6a 01		 push	 1
  001cc	8b 4d fc	 mov	 ecx, DWORD PTR _this$[ebp]
  001cf	e8 00 00 00 00	 call	 ?SetState@CImperial@@QAEXH@Z ; CImperial::SetState

; 33   : }

  001d4	5f		 pop	 edi
  001d5	5e		 pop	 esi
  001d6	5b		 pop	 ebx
  001d7	8b e5		 mov	 esp, ebp
  001d9	5d		 pop	 ebp
  001da	c3		 ret	 0
?Init@CImperial@@QAEXXZ ENDP				; CImperial::Init
_TEXT	ENDS
PUBLIC	?SetState_ENDED@CImperial@@QAEXXZ		; CImperial::SetState_ENDED
PUBLIC	?SetState_GAION@CImperial@@QAEXXZ		; CImperial::SetState_GAION
PUBLIC	?SetState_RAYMOND@CImperial@@QAEXXZ		; CImperial::SetState_RAYMOND
PUBLIC	?SetState_ERKANNE@CImperial@@QAEXXZ		; CImperial::SetState_ERKANNE
PUBLIC	?SetState_GALIA@CImperial@@QAEXXZ		; CImperial::SetState_GALIA
PUBLIC	?SetState_KATO@CImperial@@QAEXXZ		; CImperial::SetState_KATO
PUBLIC	?SetState_VERMONT@CImperial@@QAEXXZ		; CImperial::SetState_VERMONT
PUBLIC	?SetState_DESTLER@CImperial@@QAEXXZ		; CImperial::SetState_DESTLER
PUBLIC	?SetState_OPEN@CImperial@@QAEXXZ		; CImperial::SetState_OPEN
; Function compile flags: /Odtp /ZI
_TEXT	SEGMENT
tv64 = -72						; size = 4
_this$ = -4						; size = 4
_iState$ = 8						; size = 4
?SetState@CImperial@@QAEXH@Z PROC			; CImperial::SetState
; _this$ = ecx

; 36   : {

  001e0	55		 push	 ebp
  001e1	8b ec		 mov	 ebp, esp
  001e3	83 ec 48	 sub	 esp, 72			; 00000048H
  001e6	53		 push	 ebx
  001e7	56		 push	 esi
  001e8	57		 push	 edi
  001e9	89 4d fc	 mov	 DWORD PTR _this$[ebp], ecx

; 37   : 	switch ( iState )

  001ec	8b 45 08	 mov	 eax, DWORD PTR _iState$[ebp]
  001ef	89 45 b8	 mov	 DWORD PTR tv64[ebp], eax
  001f2	83 7d b8 09	 cmp	 DWORD PTR tv64[ebp], 9
  001f6	77 64		 ja	 SHORT $LN13@SetState
  001f8	8b 4d b8	 mov	 ecx, DWORD PTR tv64[ebp]
  001fb	ff 24 8d 00 00
	00 00		 jmp	 DWORD PTR $LN15@SetState[ecx*4]
$LN10@SetState:

; 38   : 	{
; 39   : 		case IMPERIAL_STATE_NONE:
; 40   : 			return;

  00202	eb 58		 jmp	 SHORT $LN13@SetState
$LN9@SetState:

; 41   : 		case IMPERIAL_STATE_OPEN:
; 42   : 			this->SetState_OPEN();

  00204	8b 4d fc	 mov	 ecx, DWORD PTR _this$[ebp]
  00207	e8 00 00 00 00	 call	 ?SetState_OPEN@CImperial@@QAEXXZ ; CImperial::SetState_OPEN

; 43   : 			break;

  0020c	eb 4e		 jmp	 SHORT $LN13@SetState
$LN8@SetState:

; 44   : 		case IMPERIAL_STATE_DESTLER:
; 45   : 			this->SetState_DESTLER();

  0020e	8b 4d fc	 mov	 ecx, DWORD PTR _this$[ebp]
  00211	e8 00 00 00 00	 call	 ?SetState_DESTLER@CImperial@@QAEXXZ ; CImperial::SetState_DESTLER

; 46   : 			break;

  00216	eb 44		 jmp	 SHORT $LN13@SetState
$LN7@SetState:

; 47   : 		case IMPERIAL_STATE_VERMONT:
; 48   : 			this->SetState_VERMONT();

  00218	8b 4d fc	 mov	 ecx, DWORD PTR _this$[ebp]
  0021b	e8 00 00 00 00	 call	 ?SetState_VERMONT@CImperial@@QAEXXZ ; CImperial::SetState_VERMONT

; 49   : 			break;

  00220	eb 3a		 jmp	 SHORT $LN13@SetState
$LN6@SetState:

; 50   : 		case IMPERIAL_STATE_KATO:
; 51   : 			this->SetState_KATO();

  00222	8b 4d fc	 mov	 ecx, DWORD PTR _this$[ebp]
  00225	e8 00 00 00 00	 call	 ?SetState_KATO@CImperial@@QAEXXZ ; CImperial::SetState_KATO

; 52   : 			break;

  0022a	eb 30		 jmp	 SHORT $LN13@SetState
$LN5@SetState:

; 53   : 		case IMPERIAL_STATE_GALIA:
; 54   : 			this->SetState_GALIA();

  0022c	8b 4d fc	 mov	 ecx, DWORD PTR _this$[ebp]
  0022f	e8 00 00 00 00	 call	 ?SetState_GALIA@CImperial@@QAEXXZ ; CImperial::SetState_GALIA

; 55   : 			break;

  00234	eb 26		 jmp	 SHORT $LN13@SetState
$LN4@SetState:

; 56   : 		case IMPERIAL_STATE_ERKANNE:
; 57   : 			this->SetState_ERKANNE();

  00236	8b 4d fc	 mov	 ecx, DWORD PTR _this$[ebp]
  00239	e8 00 00 00 00	 call	 ?SetState_ERKANNE@CImperial@@QAEXXZ ; CImperial::SetState_ERKANNE

; 58   : 			break;

  0023e	eb 1c		 jmp	 SHORT $LN13@SetState
$LN3@SetState:

; 59   : 		case IMPERIAL_STATE_RAYMOND:
; 60   : 			this->SetState_RAYMOND();

  00240	8b 4d fc	 mov	 ecx, DWORD PTR _this$[ebp]
  00243	e8 00 00 00 00	 call	 ?SetState_RAYMOND@CImperial@@QAEXXZ ; CImperial::SetState_RAYMOND

; 61   : 			break;

  00248	eb 12		 jmp	 SHORT $LN13@SetState
$LN2@SetState:

; 62   : 		case IMPERIAL_STATE_GAION:
; 63   : 			this->SetState_GAION();

  0024a	8b 4d fc	 mov	 ecx, DWORD PTR _this$[ebp]
  0024d	e8 00 00 00 00	 call	 ?SetState_GAION@CImperial@@QAEXXZ ; CImperial::SetState_GAION

; 64   : 			break;

  00252	eb 08		 jmp	 SHORT $LN13@SetState
$LN1@SetState:

; 65   : 		case IMPERIAL_STATE_ENDED:
; 66   : 			this->SetState_ENDED();

  00254	8b 4d fc	 mov	 ecx, DWORD PTR _this$[ebp]
  00257	e8 00 00 00 00	 call	 ?SetState_ENDED@CImperial@@QAEXXZ ; CImperial::SetState_ENDED
$LN13@SetState:

; 67   : 			break;
; 68   : 	}
; 69   : }

  0025c	5f		 pop	 edi
  0025d	5e		 pop	 esi
  0025e	5b		 pop	 ebx
  0025f	8b e5		 mov	 esp, ebp
  00261	5d		 pop	 ebp
  00262	c2 04 00	 ret	 4
  00265	8d 49 00	 npad	 3
$LN15@SetState:
  00268	00 00 00 00	 DD	 $LN10@SetState
  0026c	00 00 00 00	 DD	 $LN9@SetState
  00270	00 00 00 00	 DD	 $LN8@SetState
  00274	00 00 00 00	 DD	 $LN7@SetState
  00278	00 00 00 00	 DD	 $LN6@SetState
  0027c	00 00 00 00	 DD	 $LN5@SetState
  00280	00 00 00 00	 DD	 $LN4@SetState
  00284	00 00 00 00	 DD	 $LN3@SetState
  00288	00 00 00 00	 DD	 $LN2@SetState
  0028c	00 00 00 00	 DD	 $LN1@SetState
?SetState@CImperial@@QAEXH@Z ENDP			; CImperial::SetState
_TEXT	ENDS
PUBLIC	??_C@_0CE@INEABKAN@?$FL?5IMPERIAL?5FORT?5?$FN?5State?$CI?$CFd?$CJ?5?9?$DO?5O@ ; `string'
EXTRN	?ResetAllData@CImperialBattleUserMng@@QAEXXZ:PROC ; CImperialBattleUserMng::ResetAllData
EXTRN	?g_ImperialBattleUserMng@@3VCImperialBattleUserMng@@A:BYTE ; g_ImperialBattleUserMng
EXTRN	?SetState@CImperialBattleOfGaion@@QAEXH@Z:PROC	; CImperialBattleOfGaion::SetState
EXTRN	?GetEventState@CImperialBattleOfGaion@@QAEHXZ:PROC ; CImperialBattleOfGaion::GetEventState
EXTRN	?SetState@CImperialBattleOfRaymond@@QAEXH@Z:PROC ; CImperialBattleOfRaymond::SetState
EXTRN	?GetEventState@CImperialBattleOfRaymond@@QAEHXZ:PROC ; CImperialBattleOfRaymond::GetEventState
EXTRN	?SetState@CImperialBattleOfErkanne@@QAEXH@Z:PROC ; CImperialBattleOfErkanne::SetState
EXTRN	?GetEventState@CImperialBattleOfErkanne@@QAEHXZ:PROC ; CImperialBattleOfErkanne::GetEventState
EXTRN	?SetState@CImperialBattleOfGalia@@QAEXH@Z:PROC	; CImperialBattleOfGalia::SetState
EXTRN	?GetEventState@CImperialBattleOfGalia@@QAEHXZ:PROC ; CImperialBattleOfGalia::GetEventState
EXTRN	?SetState@CImperialBattleOfKato@@QAEXH@Z:PROC	; CImperialBattleOfKato::SetState
EXTRN	?GetEventState@CImperialBattleOfKato@@QAEHXZ:PROC ; CImperialBattleOfKato::GetEventState
EXTRN	?SetState@CImperialBattleOfVermont@@QAEXH@Z:PROC ; CImperialBattleOfVermont::SetState
EXTRN	?GetEventState@CImperialBattleOfVermont@@QAEHXZ:PROC ; CImperialBattleOfVermont::GetEventState
EXTRN	?SetState@CImperialBattleOfDestler@@QAEXH@Z:PROC ; CImperialBattleOfDestler::SetState
EXTRN	?GetEventState@CImperialBattleOfDestler@@QAEHXZ:PROC ; CImperialBattleOfDestler::GetEventState
EXTRN	?gObjDel@@YAFH@Z:PROC				; gObjDel
EXTRN	?gObjIsConnected@@YAHH@Z:PROC			; gObjIsConnected
EXTRN	?gObjMoveGate@@YAHHH@Z:PROC			; gObjMoveGate
EXTRN	?gObj@@3PAUOBJECTSTRUCT@@A:DWORD		; gObj
EXTRN	?LogAddC@@3P6AXEPADZZA:DWORD			; LogAddC
;	COMDAT ??_C@_0CE@INEABKAN@?$FL?5IMPERIAL?5FORT?5?$FN?5State?$CI?$CFd?$CJ?5?9?$DO?5O@
CONST	SEGMENT
??_C@_0CE@INEABKAN@?$FL?5IMPERIAL?5FORT?5?$FN?5State?$CI?$CFd?$CJ?5?9?$DO?5O@ DB '['
	DB	' IMPERIAL FORT ] State(%d) -> OPEN', 00H	; `string'
; Function compile flags: /Odtp /ZI
CONST	ENDS
_TEXT	SEGMENT
tv138 = -80						; size = 4
tv82 = -80						; size = 4
_i$230639 = -12						; size = 4
_i$230634 = -8						; size = 4
_this$ = -4						; size = 4
?SetState_OPEN@CImperial@@QAEXXZ PROC			; CImperial::SetState_OPEN
; _this$ = ecx

; 72   : {

  00290	55		 push	 ebp
  00291	8b ec		 mov	 ebp, esp
  00293	83 ec 50	 sub	 esp, 80			; 00000050H
  00296	53		 push	 ebx
  00297	56		 push	 esi
  00298	57		 push	 edi
  00299	89 4d fc	 mov	 DWORD PTR _this$[ebp], ecx

; 73   : 	LogAddC(4, "[ IMPERIAL FORT ] State(%d) -> OPEN", this->m_ImperialData.iState);

  0029c	8b 45 fc	 mov	 eax, DWORD PTR _this$[ebp]
  0029f	8b 88 24 af 00
	00		 mov	 ecx, DWORD PTR [eax+44836]
  002a5	51		 push	 ecx
  002a6	68 00 00 00 00	 push	 OFFSET ??_C@_0CE@INEABKAN@?$FL?5IMPERIAL?5FORT?5?$FN?5State?$CI?$CFd?$CJ?5?9?$DO?5O@
  002ab	6a 04		 push	 4
  002ad	ff 15 00 00 00
	00		 call	 DWORD PTR ?LogAddC@@3P6AXEPADZZA ; LogAddC
  002b3	83 c4 0c	 add	 esp, 12			; 0000000cH

; 74   : 	for(int i=OBJ_STARTUSERINDEX;i<OBJMAX;++i)

  002b6	c7 45 f8 b0 36
	00 00		 mov	 DWORD PTR _i$230634[ebp], 14000 ; 000036b0H
  002bd	eb 09		 jmp	 SHORT $LN15@SetState_O
$LN14@SetState_O:
  002bf	8b 45 f8	 mov	 eax, DWORD PTR _i$230634[ebp]
  002c2	83 c0 01	 add	 eax, 1
  002c5	89 45 f8	 mov	 DWORD PTR _i$230634[ebp], eax
$LN15@SetState_O:
  002c8	81 7d f8 98 3a
	00 00		 cmp	 DWORD PTR _i$230634[ebp], 15000 ; 00003a98H
  002cf	7d 79		 jge	 SHORT $LN13@SetState_O

; 75   : 	{
; 76   : 		if(IMPERIAL_MAP_RANGE(gObj[i].MapNumber) && gObj[i].Connected == PLAYER_PLAYING)

  002d1	8b 45 f8	 mov	 eax, DWORD PTR _i$230634[ebp]
  002d4	69 c0 38 2b 00
	00		 imul	 eax, 11064		; 00002b38H
  002da	8b 0d 00 00 00
	00		 mov	 ecx, DWORD PTR ?gObj@@3PAUOBJECTSTRUCT@@A ; gObj
  002e0	0f b6 94 01 49
	01 00 00	 movzx	 edx, BYTE PTR [ecx+eax+329]
  002e8	83 fa 45	 cmp	 edx, 69			; 00000045H
  002eb	7d 09		 jge	 SHORT $LN18@SetState_O
  002ed	c7 45 b0 00 00
	00 00		 mov	 DWORD PTR tv82[ebp], 0
  002f4	eb 22		 jmp	 SHORT $LN19@SetState_O
$LN18@SetState_O:
  002f6	8b 45 f8	 mov	 eax, DWORD PTR _i$230634[ebp]
  002f9	69 c0 38 2b 00
	00		 imul	 eax, 11064		; 00002b38H
  002ff	8b 0d 00 00 00
	00		 mov	 ecx, DWORD PTR ?gObj@@3PAUOBJECTSTRUCT@@A ; gObj
  00305	0f b6 94 01 49
	01 00 00	 movzx	 edx, BYTE PTR [ecx+eax+329]
  0030d	33 c0		 xor	 eax, eax
  0030f	83 fa 48	 cmp	 edx, 72			; 00000048H
  00312	0f 9e c0	 setle	 al
  00315	89 45 b0	 mov	 DWORD PTR tv82[ebp], eax
$LN19@SetState_O:
  00318	83 7d b0 00	 cmp	 DWORD PTR tv82[ebp], 0
  0031c	74 27		 je	 SHORT $LN12@SetState_O
  0031e	8b 45 f8	 mov	 eax, DWORD PTR _i$230634[ebp]
  00321	69 c0 38 2b 00
	00		 imul	 eax, 11064		; 00002b38H
  00327	8b 0d 00 00 00
	00		 mov	 ecx, DWORD PTR ?gObj@@3PAUOBJECTSTRUCT@@A ; gObj
  0032d	83 7c 01 04 03	 cmp	 DWORD PTR [ecx+eax+4], 3
  00332	75 11		 jne	 SHORT $LN12@SetState_O

; 77   : 		{
; 78   : 			gObjMoveGate(i, 267);

  00334	68 0b 01 00 00	 push	 267			; 0000010bH
  00339	8b 45 f8	 mov	 eax, DWORD PTR _i$230634[ebp]
  0033c	50		 push	 eax
  0033d	e8 00 00 00 00	 call	 ?gObjMoveGate@@YAHHH@Z	; gObjMoveGate
  00342	83 c4 08	 add	 esp, 8
$LN12@SetState_O:

; 79   : 		}
; 80   : 	}

  00345	e9 75 ff ff ff	 jmp	 $LN14@SetState_O
$LN13@SetState_O:

; 81   : 	for(int i=0;i<OBJ_MAXMONSTER;++i)

  0034a	c7 45 f4 00 00
	00 00		 mov	 DWORD PTR _i$230639[ebp], 0
  00351	eb 09		 jmp	 SHORT $LN11@SetState_O
$LN10@SetState_O:
  00353	8b 45 f4	 mov	 eax, DWORD PTR _i$230639[ebp]
  00356	83 c0 01	 add	 eax, 1
  00359	89 45 f4	 mov	 DWORD PTR _i$230639[ebp], eax
$LN11@SetState_O:
  0035c	81 7d f4 c8 32
	00 00		 cmp	 DWORD PTR _i$230639[ebp], 13000 ; 000032c8H
  00363	0f 8d 8d 00 00
	00		 jge	 $LN9@SetState_O

; 82   : 	{
; 83   : 		if(gObjIsConnected(i) && IMPERIAL_MAP_RANGE(gObj[i].MapNumber) && gObj[i].Class != 523)

  00369	8b 45 f4	 mov	 eax, DWORD PTR _i$230639[ebp]
  0036c	50		 push	 eax
  0036d	e8 00 00 00 00	 call	 ?gObjIsConnected@@YAHH@Z ; gObjIsConnected
  00372	83 c4 04	 add	 esp, 4
  00375	85 c0		 test	 eax, eax
  00377	74 78		 je	 SHORT $LN8@SetState_O
  00379	8b 45 f4	 mov	 eax, DWORD PTR _i$230639[ebp]
  0037c	69 c0 38 2b 00
	00		 imul	 eax, 11064		; 00002b38H
  00382	8b 0d 00 00 00
	00		 mov	 ecx, DWORD PTR ?gObj@@3PAUOBJECTSTRUCT@@A ; gObj
  00388	0f b6 94 01 49
	01 00 00	 movzx	 edx, BYTE PTR [ecx+eax+329]
  00390	83 fa 45	 cmp	 edx, 69			; 00000045H
  00393	7d 09		 jge	 SHORT $LN20@SetState_O
  00395	c7 45 b0 00 00
	00 00		 mov	 DWORD PTR tv138[ebp], 0
  0039c	eb 22		 jmp	 SHORT $LN21@SetState_O
$LN20@SetState_O:
  0039e	8b 45 f4	 mov	 eax, DWORD PTR _i$230639[ebp]
  003a1	69 c0 38 2b 00
	00		 imul	 eax, 11064		; 00002b38H
  003a7	8b 0d 00 00 00
	00		 mov	 ecx, DWORD PTR ?gObj@@3PAUOBJECTSTRUCT@@A ; gObj
  003ad	0f b6 94 01 49
	01 00 00	 movzx	 edx, BYTE PTR [ecx+eax+329]
  003b5	33 c0		 xor	 eax, eax
  003b7	83 fa 48	 cmp	 edx, 72			; 00000048H
  003ba	0f 9e c0	 setle	 al
  003bd	89 45 b0	 mov	 DWORD PTR tv138[ebp], eax
$LN21@SetState_O:
  003c0	83 7d b0 00	 cmp	 DWORD PTR tv138[ebp], 0
  003c4	74 2b		 je	 SHORT $LN8@SetState_O
  003c6	8b 45 f4	 mov	 eax, DWORD PTR _i$230639[ebp]
  003c9	69 c0 38 2b 00
	00		 imul	 eax, 11064		; 00002b38H
  003cf	8b 0d 00 00 00
	00		 mov	 ecx, DWORD PTR ?gObj@@3PAUOBJECTSTRUCT@@A ; gObj
  003d5	0f b7 94 01 b8
	00 00 00	 movzx	 edx, WORD PTR [ecx+eax+184]
  003dd	81 fa 0b 02 00
	00		 cmp	 edx, 523		; 0000020bH
  003e3	74 0c		 je	 SHORT $LN8@SetState_O

; 84   : 			gObjDel(i);

  003e5	8b 45 f4	 mov	 eax, DWORD PTR _i$230639[ebp]
  003e8	50		 push	 eax
  003e9	e8 00 00 00 00	 call	 ?gObjDel@@YAFH@Z	; gObjDel
  003ee	83 c4 04	 add	 esp, 4
$LN8@SetState_O:

; 85   : 	}

  003f1	e9 5d ff ff ff	 jmp	 $LN10@SetState_O
$LN9@SetState_O:

; 86   : 
; 87   : 	if(this->m_BattleOfDestler.GetEventState() != 3)

  003f6	8b 4d fc	 mov	 ecx, DWORD PTR _this$[ebp]
  003f9	81 c1 34 af 00
	00		 add	 ecx, 44852		; 0000af34H
  003ff	e8 00 00 00 00	 call	 ?GetEventState@CImperialBattleOfDestler@@QAEHXZ ; CImperialBattleOfDestler::GetEventState
  00404	83 f8 03	 cmp	 eax, 3
  00407	74 10		 je	 SHORT $LN7@SetState_O

; 88   : 	{
; 89   : 		this->m_BattleOfDestler.SetState(0);

  00409	6a 00		 push	 0
  0040b	8b 4d fc	 mov	 ecx, DWORD PTR _this$[ebp]
  0040e	81 c1 34 af 00
	00		 add	 ecx, 44852		; 0000af34H
  00414	e8 00 00 00 00	 call	 ?SetState@CImperialBattleOfDestler@@QAEXH@Z ; CImperialBattleOfDestler::SetState
$LN7@SetState_O:

; 90   : 	}
; 91   : 
; 92   : 	if(this->m_BattleOfVermont.GetEventState() != 3)

  00419	8b 4d fc	 mov	 ecx, DWORD PTR _this$[ebp]
  0041c	81 c1 90 af 00
	00		 add	 ecx, 44944		; 0000af90H
  00422	e8 00 00 00 00	 call	 ?GetEventState@CImperialBattleOfVermont@@QAEHXZ ; CImperialBattleOfVermont::GetEventState
  00427	83 f8 03	 cmp	 eax, 3
  0042a	74 10		 je	 SHORT $LN6@SetState_O

; 93   : 	{
; 94   : 		this->m_BattleOfVermont.SetState(0);

  0042c	6a 00		 push	 0
  0042e	8b 4d fc	 mov	 ecx, DWORD PTR _this$[ebp]
  00431	81 c1 90 af 00
	00		 add	 ecx, 44944		; 0000af90H
  00437	e8 00 00 00 00	 call	 ?SetState@CImperialBattleOfVermont@@QAEXH@Z ; CImperialBattleOfVermont::SetState
$LN6@SetState_O:

; 95   : 	}
; 96   : 
; 97   : 	if(this->m_BattleOfKato.GetEventState() != 3)

  0043c	8b 4d fc	 mov	 ecx, DWORD PTR _this$[ebp]
  0043f	81 c1 ec af 00
	00		 add	 ecx, 45036		; 0000afecH
  00445	e8 00 00 00 00	 call	 ?GetEventState@CImperialBattleOfKato@@QAEHXZ ; CImperialBattleOfKato::GetEventState
  0044a	83 f8 03	 cmp	 eax, 3
  0044d	74 10		 je	 SHORT $LN5@SetState_O

; 98   : 	{
; 99   : 		this->m_BattleOfKato.SetState(0);

  0044f	6a 00		 push	 0
  00451	8b 4d fc	 mov	 ecx, DWORD PTR _this$[ebp]
  00454	81 c1 ec af 00
	00		 add	 ecx, 45036		; 0000afecH
  0045a	e8 00 00 00 00	 call	 ?SetState@CImperialBattleOfKato@@QAEXH@Z ; CImperialBattleOfKato::SetState
$LN5@SetState_O:

; 100  : 	}
; 101  : 
; 102  : 	if(this->m_BattleOfGalia.GetEventState() != 3)

  0045f	8b 4d fc	 mov	 ecx, DWORD PTR _this$[ebp]
  00462	81 c1 48 b0 00
	00		 add	 ecx, 45128		; 0000b048H
  00468	e8 00 00 00 00	 call	 ?GetEventState@CImperialBattleOfGalia@@QAEHXZ ; CImperialBattleOfGalia::GetEventState
  0046d	83 f8 03	 cmp	 eax, 3
  00470	74 10		 je	 SHORT $LN4@SetState_O

; 103  : 	{
; 104  : 		this->m_BattleOfGalia.SetState(0);

  00472	6a 00		 push	 0
  00474	8b 4d fc	 mov	 ecx, DWORD PTR _this$[ebp]
  00477	81 c1 48 b0 00
	00		 add	 ecx, 45128		; 0000b048H
  0047d	e8 00 00 00 00	 call	 ?SetState@CImperialBattleOfGalia@@QAEXH@Z ; CImperialBattleOfGalia::SetState
$LN4@SetState_O:

; 105  : 	}
; 106  : 
; 107  : 	if(this->m_BattleOfErkanne.GetEventState() != 3)

  00482	8b 4d fc	 mov	 ecx, DWORD PTR _this$[ebp]
  00485	81 c1 a4 b0 00
	00		 add	 ecx, 45220		; 0000b0a4H
  0048b	e8 00 00 00 00	 call	 ?GetEventState@CImperialBattleOfErkanne@@QAEHXZ ; CImperialBattleOfErkanne::GetEventState
  00490	83 f8 03	 cmp	 eax, 3
  00493	74 10		 je	 SHORT $LN3@SetState_O

; 108  : 	{
; 109  : 		this->m_BattleOfErkanne.SetState(0);

  00495	6a 00		 push	 0
  00497	8b 4d fc	 mov	 ecx, DWORD PTR _this$[ebp]
  0049a	81 c1 a4 b0 00
	00		 add	 ecx, 45220		; 0000b0a4H
  004a0	e8 00 00 00 00	 call	 ?SetState@CImperialBattleOfErkanne@@QAEXH@Z ; CImperialBattleOfErkanne::SetState
$LN3@SetState_O:

; 110  : 	}
; 111  : 
; 112  : 	if(this->m_BattleOfRaymond.GetEventState() != 3)

  004a5	8b 4d fc	 mov	 ecx, DWORD PTR _this$[ebp]
  004a8	81 c1 00 b1 00
	00		 add	 ecx, 45312		; 0000b100H
  004ae	e8 00 00 00 00	 call	 ?GetEventState@CImperialBattleOfRaymond@@QAEHXZ ; CImperialBattleOfRaymond::GetEventState
  004b3	83 f8 03	 cmp	 eax, 3
  004b6	74 10		 je	 SHORT $LN2@SetState_O

; 113  : 	{
; 114  : 		this->m_BattleOfRaymond.SetState(0);

  004b8	6a 00		 push	 0
  004ba	8b 4d fc	 mov	 ecx, DWORD PTR _this$[ebp]
  004bd	81 c1 00 b1 00
	00		 add	 ecx, 45312		; 0000b100H
  004c3	e8 00 00 00 00	 call	 ?SetState@CImperialBattleOfRaymond@@QAEXH@Z ; CImperialBattleOfRaymond::SetState
$LN2@SetState_O:

; 115  : 	}
; 116  : 
; 117  : 	if(this->m_BattleOfGaion.GetEventState() != 3)

  004c8	8b 4d fc	 mov	 ecx, DWORD PTR _this$[ebp]
  004cb	81 c1 50 b1 00
	00		 add	 ecx, 45392		; 0000b150H
  004d1	e8 00 00 00 00	 call	 ?GetEventState@CImperialBattleOfGaion@@QAEHXZ ; CImperialBattleOfGaion::GetEventState
  004d6	83 f8 03	 cmp	 eax, 3
  004d9	74 10		 je	 SHORT $LN1@SetState_O

; 118  : 	{
; 119  : 		this->m_BattleOfGaion.SetState(0);

  004db	6a 00		 push	 0
  004dd	8b 4d fc	 mov	 ecx, DWORD PTR _this$[ebp]
  004e0	81 c1 50 b1 00
	00		 add	 ecx, 45392		; 0000b150H
  004e6	e8 00 00 00 00	 call	 ?SetState@CImperialBattleOfGaion@@QAEXH@Z ; CImperialBattleOfGaion::SetState
$LN1@SetState_O:

; 120  : 	}
; 121  : 
; 122  : 	this->m_ImperialData.Reset();

  004eb	8b 4d fc	 mov	 ecx, DWORD PTR _this$[ebp]
  004ee	81 c1 20 af 00
	00		 add	 ecx, 44832		; 0000af20H
  004f4	e8 00 00 00 00	 call	 ?Reset@IMPERIAL_EVENT_INFO@@QAEXXZ ; IMPERIAL_EVENT_INFO::Reset

; 123  : 	g_ImperialBattleUserMng.ResetAllData();

  004f9	b9 00 00 00 00	 mov	 ecx, OFFSET ?g_ImperialBattleUserMng@@3VCImperialBattleUserMng@@A ; g_ImperialBattleUserMng
  004fe	e8 00 00 00 00	 call	 ?ResetAllData@CImperialBattleUserMng@@QAEXXZ ; CImperialBattleUserMng::ResetAllData

; 124  : 	this->m_ImperialData.iState = IMPERIAL_STATE_OPEN;

  00503	8b 45 fc	 mov	 eax, DWORD PTR _this$[ebp]
  00506	c7 80 24 af 00
	00 01 00 00 00	 mov	 DWORD PTR [eax+44836], 1

; 125  : }

  00510	5f		 pop	 edi
  00511	5e		 pop	 esi
  00512	5b		 pop	 ebx
  00513	8b e5		 mov	 esp, ebp
  00515	5d		 pop	 ebp
  00516	c3		 ret	 0
?SetState_OPEN@CImperial@@QAEXXZ ENDP			; CImperial::SetState_OPEN
_TEXT	ENDS
PUBLIC	??_C@_0DB@EBEDKJKN@?$FL?5IMPERIAL?5FORT?5?$FN?5State?$CI?$CFd?$CJ?5?9?$DO?5B@ ; `string'
;	COMDAT ??_C@_0DB@EBEDKJKN@?$FL?5IMPERIAL?5FORT?5?$FN?5State?$CI?$CFd?$CJ?5?9?$DO?5B@
CONST	SEGMENT
??_C@_0DB@EBEDKJKN@?$FL?5IMPERIAL?5FORT?5?$FN?5State?$CI?$CFd?$CJ?5?9?$DO?5B@ DB '['
	DB	' IMPERIAL FORT ] State(%d) -> BATTLE_OF_DESTLER', 00H ; `string'
; Function compile flags: /Odtp /ZI
CONST	ENDS
_TEXT	SEGMENT
_this$ = -4						; size = 4
?SetState_DESTLER@CImperial@@QAEXXZ PROC		; CImperial::SetState_DESTLER
; _this$ = ecx

; 128  : {

  00520	55		 push	 ebp
  00521	8b ec		 mov	 ebp, esp
  00523	83 ec 44	 sub	 esp, 68			; 00000044H
  00526	53		 push	 ebx
  00527	56		 push	 esi
  00528	57		 push	 edi
  00529	89 4d fc	 mov	 DWORD PTR _this$[ebp], ecx

; 129  : 	LogAddC(4, "[ IMPERIAL FORT ] State(%d) -> BATTLE_OF_DESTLER", this->m_ImperialData.iState);

  0052c	8b 45 fc	 mov	 eax, DWORD PTR _this$[ebp]
  0052f	8b 88 24 af 00
	00		 mov	 ecx, DWORD PTR [eax+44836]
  00535	51		 push	 ecx
  00536	68 00 00 00 00	 push	 OFFSET ??_C@_0DB@EBEDKJKN@?$FL?5IMPERIAL?5FORT?5?$FN?5State?$CI?$CFd?$CJ?5?9?$DO?5B@
  0053b	6a 04		 push	 4
  0053d	ff 15 00 00 00
	00		 call	 DWORD PTR ?LogAddC@@3P6AXEPADZZA ; LogAddC
  00543	83 c4 0c	 add	 esp, 12			; 0000000cH

; 130  : 	this->m_BattleOfDestler.SetState(1);

  00546	6a 01		 push	 1
  00548	8b 4d fc	 mov	 ecx, DWORD PTR _this$[ebp]
  0054b	81 c1 34 af 00
	00		 add	 ecx, 44852		; 0000af34H
  00551	e8 00 00 00 00	 call	 ?SetState@CImperialBattleOfDestler@@QAEXH@Z ; CImperialBattleOfDestler::SetState

; 131  : 	this->m_ImperialData.iState = IMPERIAL_STATE_DESTLER;

  00556	8b 45 fc	 mov	 eax, DWORD PTR _this$[ebp]
  00559	c7 80 24 af 00
	00 02 00 00 00	 mov	 DWORD PTR [eax+44836], 2

; 132  : }

  00563	5f		 pop	 edi
  00564	5e		 pop	 esi
  00565	5b		 pop	 ebx
  00566	8b e5		 mov	 esp, ebp
  00568	5d		 pop	 ebp
  00569	c3		 ret	 0
?SetState_DESTLER@CImperial@@QAEXXZ ENDP		; CImperial::SetState_DESTLER
_TEXT	ENDS
PUBLIC	??_C@_0DB@JBMLFOCE@?$FL?5IMPERIAL?5FORT?5?$FN?5State?$CI?$CFd?$CJ?5?9?$DO?5B@ ; `string'
;	COMDAT ??_C@_0DB@JBMLFOCE@?$FL?5IMPERIAL?5FORT?5?$FN?5State?$CI?$CFd?$CJ?5?9?$DO?5B@
CONST	SEGMENT
??_C@_0DB@JBMLFOCE@?$FL?5IMPERIAL?5FORT?5?$FN?5State?$CI?$CFd?$CJ?5?9?$DO?5B@ DB '['
	DB	' IMPERIAL FORT ] State(%d) -> BATTLE_OF_VERMONT', 00H ; `string'
; Function compile flags: /Odtp /ZI
CONST	ENDS
_TEXT	SEGMENT
_this$ = -4						; size = 4
?SetState_VERMONT@CImperial@@QAEXXZ PROC		; CImperial::SetState_VERMONT
; _this$ = ecx

; 135  : {

  00570	55		 push	 ebp
  00571	8b ec		 mov	 ebp, esp
  00573	83 ec 44	 sub	 esp, 68			; 00000044H
  00576	53		 push	 ebx
  00577	56		 push	 esi
  00578	57		 push	 edi
  00579	89 4d fc	 mov	 DWORD PTR _this$[ebp], ecx

; 136  : 	LogAddC(4, "[ IMPERIAL FORT ] State(%d) -> BATTLE_OF_VERMONT", this->m_ImperialData.iState);

  0057c	8b 45 fc	 mov	 eax, DWORD PTR _this$[ebp]
  0057f	8b 88 24 af 00
	00		 mov	 ecx, DWORD PTR [eax+44836]
  00585	51		 push	 ecx
  00586	68 00 00 00 00	 push	 OFFSET ??_C@_0DB@JBMLFOCE@?$FL?5IMPERIAL?5FORT?5?$FN?5State?$CI?$CFd?$CJ?5?9?$DO?5B@
  0058b	6a 04		 push	 4
  0058d	ff 15 00 00 00
	00		 call	 DWORD PTR ?LogAddC@@3P6AXEPADZZA ; LogAddC
  00593	83 c4 0c	 add	 esp, 12			; 0000000cH

; 137  : 	this->m_BattleOfVermont.SetState(1);

  00596	6a 01		 push	 1
  00598	8b 4d fc	 mov	 ecx, DWORD PTR _this$[ebp]
  0059b	81 c1 90 af 00
	00		 add	 ecx, 44944		; 0000af90H
  005a1	e8 00 00 00 00	 call	 ?SetState@CImperialBattleOfVermont@@QAEXH@Z ; CImperialBattleOfVermont::SetState

; 138  : 	this->m_ImperialData.iState = IMPERIAL_STATE_VERMONT;

  005a6	8b 45 fc	 mov	 eax, DWORD PTR _this$[ebp]
  005a9	c7 80 24 af 00
	00 03 00 00 00	 mov	 DWORD PTR [eax+44836], 3

; 139  : }

  005b3	5f		 pop	 edi
  005b4	5e		 pop	 esi
  005b5	5b		 pop	 ebx
  005b6	8b e5		 mov	 esp, ebp
  005b8	5d		 pop	 ebp
  005b9	c3		 ret	 0
?SetState_VERMONT@CImperial@@QAEXXZ ENDP		; CImperial::SetState_VERMONT
_TEXT	ENDS
PUBLIC	??_C@_0CO@LHAKLPLJ@?$FL?5IMPERIAL?5FORT?5?$FN?5State?$CI?$CFd?$CJ?5?9?$DO?5B@ ; `string'
;	COMDAT ??_C@_0CO@LHAKLPLJ@?$FL?5IMPERIAL?5FORT?5?$FN?5State?$CI?$CFd?$CJ?5?9?$DO?5B@
CONST	SEGMENT
??_C@_0CO@LHAKLPLJ@?$FL?5IMPERIAL?5FORT?5?$FN?5State?$CI?$CFd?$CJ?5?9?$DO?5B@ DB '['
	DB	' IMPERIAL FORT ] State(%d) -> BATTLE_OF_KATO', 00H ; `string'
; Function compile flags: /Odtp /ZI
CONST	ENDS
_TEXT	SEGMENT
_this$ = -4						; size = 4
?SetState_KATO@CImperial@@QAEXXZ PROC			; CImperial::SetState_KATO
; _this$ = ecx

; 142  : {

  005c0	55		 push	 ebp
  005c1	8b ec		 mov	 ebp, esp
  005c3	83 ec 44	 sub	 esp, 68			; 00000044H
  005c6	53		 push	 ebx
  005c7	56		 push	 esi
  005c8	57		 push	 edi
  005c9	89 4d fc	 mov	 DWORD PTR _this$[ebp], ecx

; 143  : 	LogAddC(4, "[ IMPERIAL FORT ] State(%d) -> BATTLE_OF_KATO", this->m_ImperialData.iState);

  005cc	8b 45 fc	 mov	 eax, DWORD PTR _this$[ebp]
  005cf	8b 88 24 af 00
	00		 mov	 ecx, DWORD PTR [eax+44836]
  005d5	51		 push	 ecx
  005d6	68 00 00 00 00	 push	 OFFSET ??_C@_0CO@LHAKLPLJ@?$FL?5IMPERIAL?5FORT?5?$FN?5State?$CI?$CFd?$CJ?5?9?$DO?5B@
  005db	6a 04		 push	 4
  005dd	ff 15 00 00 00
	00		 call	 DWORD PTR ?LogAddC@@3P6AXEPADZZA ; LogAddC
  005e3	83 c4 0c	 add	 esp, 12			; 0000000cH

; 144  : 	this->m_BattleOfKato.SetState(1);

  005e6	6a 01		 push	 1
  005e8	8b 4d fc	 mov	 ecx, DWORD PTR _this$[ebp]
  005eb	81 c1 ec af 00
	00		 add	 ecx, 45036		; 0000afecH
  005f1	e8 00 00 00 00	 call	 ?SetState@CImperialBattleOfKato@@QAEXH@Z ; CImperialBattleOfKato::SetState

; 145  : 	this->m_ImperialData.iState = IMPERIAL_STATE_KATO;

  005f6	8b 45 fc	 mov	 eax, DWORD PTR _this$[ebp]
  005f9	c7 80 24 af 00
	00 04 00 00 00	 mov	 DWORD PTR [eax+44836], 4

; 146  : }

  00603	5f		 pop	 edi
  00604	5e		 pop	 esi
  00605	5b		 pop	 ebx
  00606	8b e5		 mov	 esp, ebp
  00608	5d		 pop	 ebp
  00609	c3		 ret	 0
?SetState_KATO@CImperial@@QAEXXZ ENDP			; CImperial::SetState_KATO
_TEXT	ENDS
PUBLIC	??_C@_0CP@LNIKLMGK@?$FL?5IMPERIAL?5FORT?5?$FN?5State?$CI?$CFd?$CJ?5?9?$DO?5B@ ; `string'
;	COMDAT ??_C@_0CP@LNIKLMGK@?$FL?5IMPERIAL?5FORT?5?$FN?5State?$CI?$CFd?$CJ?5?9?$DO?5B@
CONST	SEGMENT
??_C@_0CP@LNIKLMGK@?$FL?5IMPERIAL?5FORT?5?$FN?5State?$CI?$CFd?$CJ?5?9?$DO?5B@ DB '['
	DB	' IMPERIAL FORT ] State(%d) -> BATTLE_OF_GALIA', 00H ; `string'
; Function compile flags: /Odtp /ZI
CONST	ENDS
_TEXT	SEGMENT
_this$ = -4						; size = 4
?SetState_GALIA@CImperial@@QAEXXZ PROC			; CImperial::SetState_GALIA
; _this$ = ecx

; 149  : {

  00610	55		 push	 ebp
  00611	8b ec		 mov	 ebp, esp
  00613	83 ec 44	 sub	 esp, 68			; 00000044H
  00616	53		 push	 ebx
  00617	56		 push	 esi
  00618	57		 push	 edi
  00619	89 4d fc	 mov	 DWORD PTR _this$[ebp], ecx

; 150  : 	LogAddC(4, "[ IMPERIAL FORT ] State(%d) -> BATTLE_OF_GALIA", this->m_ImperialData.iState);

  0061c	8b 45 fc	 mov	 eax, DWORD PTR _this$[ebp]
  0061f	8b 88 24 af 00
	00		 mov	 ecx, DWORD PTR [eax+44836]
  00625	51		 push	 ecx
  00626	68 00 00 00 00	 push	 OFFSET ??_C@_0CP@LNIKLMGK@?$FL?5IMPERIAL?5FORT?5?$FN?5State?$CI?$CFd?$CJ?5?9?$DO?5B@
  0062b	6a 04		 push	 4
  0062d	ff 15 00 00 00
	00		 call	 DWORD PTR ?LogAddC@@3P6AXEPADZZA ; LogAddC
  00633	83 c4 0c	 add	 esp, 12			; 0000000cH

; 151  : 	this->m_BattleOfGalia.SetState(1);

  00636	6a 01		 push	 1
  00638	8b 4d fc	 mov	 ecx, DWORD PTR _this$[ebp]
  0063b	81 c1 48 b0 00
	00		 add	 ecx, 45128		; 0000b048H
  00641	e8 00 00 00 00	 call	 ?SetState@CImperialBattleOfGalia@@QAEXH@Z ; CImperialBattleOfGalia::SetState

; 152  : 	this->m_ImperialData.iState = IMPERIAL_STATE_GALIA;

  00646	8b 45 fc	 mov	 eax, DWORD PTR _this$[ebp]
  00649	c7 80 24 af 00
	00 05 00 00 00	 mov	 DWORD PTR [eax+44836], 5

; 153  : }

  00653	5f		 pop	 edi
  00654	5e		 pop	 esi
  00655	5b		 pop	 ebx
  00656	8b e5		 mov	 esp, ebp
  00658	5d		 pop	 ebp
  00659	c3		 ret	 0
?SetState_GALIA@CImperial@@QAEXXZ ENDP			; CImperial::SetState_GALIA
_TEXT	ENDS
PUBLIC	??_C@_0DB@MLMKDAIL@?$FL?5IMPERIAL?5FORT?5?$FN?5State?$CI?$CFd?$CJ?5?9?$DO?5B@ ; `string'
;	COMDAT ??_C@_0DB@MLMKDAIL@?$FL?5IMPERIAL?5FORT?5?$FN?5State?$CI?$CFd?$CJ?5?9?$DO?5B@
CONST	SEGMENT
??_C@_0DB@MLMKDAIL@?$FL?5IMPERIAL?5FORT?5?$FN?5State?$CI?$CFd?$CJ?5?9?$DO?5B@ DB '['
	DB	' IMPERIAL FORT ] State(%d) -> BATTLE_OF_ERKANNE', 00H ; `string'
; Function compile flags: /Odtp /ZI
CONST	ENDS
_TEXT	SEGMENT
_this$ = -4						; size = 4
?SetState_ERKANNE@CImperial@@QAEXXZ PROC		; CImperial::SetState_ERKANNE
; _this$ = ecx

; 156  : {

  00660	55		 push	 ebp
  00661	8b ec		 mov	 ebp, esp
  00663	83 ec 44	 sub	 esp, 68			; 00000044H
  00666	53		 push	 ebx
  00667	56		 push	 esi
  00668	57		 push	 edi
  00669	89 4d fc	 mov	 DWORD PTR _this$[ebp], ecx

; 157  : 	LogAddC(4, "[ IMPERIAL FORT ] State(%d) -> BATTLE_OF_ERKANNE", this->m_ImperialData.iState);

  0066c	8b 45 fc	 mov	 eax, DWORD PTR _this$[ebp]
  0066f	8b 88 24 af 00
	00		 mov	 ecx, DWORD PTR [eax+44836]
  00675	51		 push	 ecx
  00676	68 00 00 00 00	 push	 OFFSET ??_C@_0DB@MLMKDAIL@?$FL?5IMPERIAL?5FORT?5?$FN?5State?$CI?$CFd?$CJ?5?9?$DO?5B@
  0067b	6a 04		 push	 4
  0067d	ff 15 00 00 00
	00		 call	 DWORD PTR ?LogAddC@@3P6AXEPADZZA ; LogAddC
  00683	83 c4 0c	 add	 esp, 12			; 0000000cH

; 158  : 	this->m_BattleOfErkanne.SetState(1);

  00686	6a 01		 push	 1
  00688	8b 4d fc	 mov	 ecx, DWORD PTR _this$[ebp]
  0068b	81 c1 a4 b0 00
	00		 add	 ecx, 45220		; 0000b0a4H
  00691	e8 00 00 00 00	 call	 ?SetState@CImperialBattleOfErkanne@@QAEXH@Z ; CImperialBattleOfErkanne::SetState

; 159  : 	this->m_ImperialData.iState = IMPERIAL_STATE_ERKANNE;

  00696	8b 45 fc	 mov	 eax, DWORD PTR _this$[ebp]
  00699	c7 80 24 af 00
	00 06 00 00 00	 mov	 DWORD PTR [eax+44836], 6

; 160  : }

  006a3	5f		 pop	 edi
  006a4	5e		 pop	 esi
  006a5	5b		 pop	 ebx
  006a6	8b e5		 mov	 esp, ebp
  006a8	5d		 pop	 ebp
  006a9	c3		 ret	 0
?SetState_ERKANNE@CImperial@@QAEXXZ ENDP		; CImperial::SetState_ERKANNE
_TEXT	ENDS
PUBLIC	??_C@_0DB@MBMLJGFP@?$FL?5IMPERIAL?5FORT?5?$FN?5State?$CI?$CFd?$CJ?5?9?$DO?5B@ ; `string'
;	COMDAT ??_C@_0DB@MBMLJGFP@?$FL?5IMPERIAL?5FORT?5?$FN?5State?$CI?$CFd?$CJ?5?9?$DO?5B@
CONST	SEGMENT
??_C@_0DB@MBMLJGFP@?$FL?5IMPERIAL?5FORT?5?$FN?5State?$CI?$CFd?$CJ?5?9?$DO?5B@ DB '['
	DB	' IMPERIAL FORT ] State(%d) -> BATTLE_OF_RAYMOND', 00H ; `string'
; Function compile flags: /Odtp /ZI
CONST	ENDS
_TEXT	SEGMENT
_this$ = -4						; size = 4
?SetState_RAYMOND@CImperial@@QAEXXZ PROC		; CImperial::SetState_RAYMOND
; _this$ = ecx

; 163  : {

  006b0	55		 push	 ebp
  006b1	8b ec		 mov	 ebp, esp
  006b3	83 ec 44	 sub	 esp, 68			; 00000044H
  006b6	53		 push	 ebx
  006b7	56		 push	 esi
  006b8	57		 push	 edi
  006b9	89 4d fc	 mov	 DWORD PTR _this$[ebp], ecx

; 164  : 	LogAddC(4, "[ IMPERIAL FORT ] State(%d) -> BATTLE_OF_RAYMOND", this->m_ImperialData.iState);

  006bc	8b 45 fc	 mov	 eax, DWORD PTR _this$[ebp]
  006bf	8b 88 24 af 00
	00		 mov	 ecx, DWORD PTR [eax+44836]
  006c5	51		 push	 ecx
  006c6	68 00 00 00 00	 push	 OFFSET ??_C@_0DB@MBMLJGFP@?$FL?5IMPERIAL?5FORT?5?$FN?5State?$CI?$CFd?$CJ?5?9?$DO?5B@
  006cb	6a 04		 push	 4
  006cd	ff 15 00 00 00
	00		 call	 DWORD PTR ?LogAddC@@3P6AXEPADZZA ; LogAddC
  006d3	83 c4 0c	 add	 esp, 12			; 0000000cH

; 165  : 	this->m_BattleOfRaymond.SetState(1);

  006d6	6a 01		 push	 1
  006d8	8b 4d fc	 mov	 ecx, DWORD PTR _this$[ebp]
  006db	81 c1 00 b1 00
	00		 add	 ecx, 45312		; 0000b100H
  006e1	e8 00 00 00 00	 call	 ?SetState@CImperialBattleOfRaymond@@QAEXH@Z ; CImperialBattleOfRaymond::SetState

; 166  : 	this->m_ImperialData.iState = IMPERIAL_STATE_RAYMOND;

  006e6	8b 45 fc	 mov	 eax, DWORD PTR _this$[ebp]
  006e9	c7 80 24 af 00
	00 07 00 00 00	 mov	 DWORD PTR [eax+44836], 7

; 167  : }

  006f3	5f		 pop	 edi
  006f4	5e		 pop	 esi
  006f5	5b		 pop	 ebx
  006f6	8b e5		 mov	 esp, ebp
  006f8	5d		 pop	 ebp
  006f9	c3		 ret	 0
?SetState_RAYMOND@CImperial@@QAEXXZ ENDP		; CImperial::SetState_RAYMOND
_TEXT	ENDS
PUBLIC	??_C@_0CP@JEBCMCF@?$FL?5IMPERIAL?5FORT?5?$FN?5State?$CI?$CFd?$CJ?5?9?$DO?5B@ ; `string'
;	COMDAT ??_C@_0CP@JEBCMCF@?$FL?5IMPERIAL?5FORT?5?$FN?5State?$CI?$CFd?$CJ?5?9?$DO?5B@
CONST	SEGMENT
??_C@_0CP@JEBCMCF@?$FL?5IMPERIAL?5FORT?5?$FN?5State?$CI?$CFd?$CJ?5?9?$DO?5B@ DB '['
	DB	' IMPERIAL FORT ] State(%d) -> BATTLE_OF_GAION', 00H ; `string'
; Function compile flags: /Odtp /ZI
CONST	ENDS
_TEXT	SEGMENT
_this$ = -4						; size = 4
?SetState_GAION@CImperial@@QAEXXZ PROC			; CImperial::SetState_GAION
; _this$ = ecx

; 170  : {

  00700	55		 push	 ebp
  00701	8b ec		 mov	 ebp, esp
  00703	83 ec 44	 sub	 esp, 68			; 00000044H
  00706	53		 push	 ebx
  00707	56		 push	 esi
  00708	57		 push	 edi
  00709	89 4d fc	 mov	 DWORD PTR _this$[ebp], ecx

; 171  : 	LogAddC(4, "[ IMPERIAL FORT ] State(%d) -> BATTLE_OF_GAION", this->m_ImperialData.iState);

  0070c	8b 45 fc	 mov	 eax, DWORD PTR _this$[ebp]
  0070f	8b 88 24 af 00
	00		 mov	 ecx, DWORD PTR [eax+44836]
  00715	51		 push	 ecx
  00716	68 00 00 00 00	 push	 OFFSET ??_C@_0CP@JEBCMCF@?$FL?5IMPERIAL?5FORT?5?$FN?5State?$CI?$CFd?$CJ?5?9?$DO?5B@
  0071b	6a 04		 push	 4
  0071d	ff 15 00 00 00
	00		 call	 DWORD PTR ?LogAddC@@3P6AXEPADZZA ; LogAddC
  00723	83 c4 0c	 add	 esp, 12			; 0000000cH

; 172  : 	this->m_BattleOfGaion.SetState(1);

  00726	6a 01		 push	 1
  00728	8b 4d fc	 mov	 ecx, DWORD PTR _this$[ebp]
  0072b	81 c1 50 b1 00
	00		 add	 ecx, 45392		; 0000b150H
  00731	e8 00 00 00 00	 call	 ?SetState@CImperialBattleOfGaion@@QAEXH@Z ; CImperialBattleOfGaion::SetState

; 173  : 	this->m_ImperialData.iState = IMPERIAL_STATE_GAION;

  00736	8b 45 fc	 mov	 eax, DWORD PTR _this$[ebp]
  00739	c7 80 24 af 00
	00 08 00 00 00	 mov	 DWORD PTR [eax+44836], 8

; 174  : }

  00743	5f		 pop	 edi
  00744	5e		 pop	 esi
  00745	5b		 pop	 ebx
  00746	8b e5		 mov	 esp, ebp
  00748	5d		 pop	 ebp
  00749	c3		 ret	 0
?SetState_GAION@CImperial@@QAEXXZ ENDP			; CImperial::SetState_GAION
_TEXT	ENDS
PUBLIC	??_C@_0CF@CAILDEKH@?$FL?5IMPERIAL?5FORT?5?$FN?5State?$CI?$CFd?$CJ?5?9?$DO?5E@ ; `string'
EXTRN	__imp__GetTickCount@0:PROC
;	COMDAT ??_C@_0CF@CAILDEKH@?$FL?5IMPERIAL?5FORT?5?$FN?5State?$CI?$CFd?$CJ?5?9?$DO?5E@
CONST	SEGMENT
??_C@_0CF@CAILDEKH@?$FL?5IMPERIAL?5FORT?5?$FN?5State?$CI?$CFd?$CJ?5?9?$DO?5E@ DB '['
	DB	' IMPERIAL FORT ] State(%d) -> ENDED', 00H	; `string'
; Function compile flags: /Odtp /ZI
CONST	ENDS
_TEXT	SEGMENT
_this$ = -4						; size = 4
?SetState_ENDED@CImperial@@QAEXXZ PROC			; CImperial::SetState_ENDED
; _this$ = ecx

; 177  : {

  00750	55		 push	 ebp
  00751	8b ec		 mov	 ebp, esp
  00753	83 ec 44	 sub	 esp, 68			; 00000044H
  00756	53		 push	 ebx
  00757	56		 push	 esi
  00758	57		 push	 edi
  00759	89 4d fc	 mov	 DWORD PTR _this$[ebp], ecx

; 178  : 	LogAddC(4, "[ IMPERIAL FORT ] State(%d) -> ENDED", this->m_ImperialData.iState);

  0075c	8b 45 fc	 mov	 eax, DWORD PTR _this$[ebp]
  0075f	8b 88 24 af 00
	00		 mov	 ecx, DWORD PTR [eax+44836]
  00765	51		 push	 ecx
  00766	68 00 00 00 00	 push	 OFFSET ??_C@_0CF@CAILDEKH@?$FL?5IMPERIAL?5FORT?5?$FN?5State?$CI?$CFd?$CJ?5?9?$DO?5E@
  0076b	6a 04		 push	 4
  0076d	ff 15 00 00 00
	00		 call	 DWORD PTR ?LogAddC@@3P6AXEPADZZA ; LogAddC
  00773	83 c4 0c	 add	 esp, 12			; 0000000cH

; 179  : 	this->m_ImperialData.iState = IMPERIAL_STATE_ENDED;

  00776	8b 45 fc	 mov	 eax, DWORD PTR _this$[ebp]
  00779	c7 80 24 af 00
	00 09 00 00 00	 mov	 DWORD PTR [eax+44836], 9

; 180  : 	g_ImperialBattleUserMng.ResetAllData();

  00783	b9 00 00 00 00	 mov	 ecx, OFFSET ?g_ImperialBattleUserMng@@3VCImperialBattleUserMng@@A ; g_ImperialBattleUserMng
  00788	e8 00 00 00 00	 call	 ?ResetAllData@CImperialBattleUserMng@@QAEXXZ ; CImperialBattleUserMng::ResetAllData

; 181  : 	this->m_ImperialData.Time = 60000;	

  0078d	8b 45 fc	 mov	 eax, DWORD PTR _this$[ebp]
  00790	c7 80 2c af 00
	00 60 ea 00 00	 mov	 DWORD PTR [eax+44844], 60000 ; 0000ea60H

; 182  : 	this->m_ImperialData.Tick = GetTickCount();

  0079a	ff 15 00 00 00
	00		 call	 DWORD PTR __imp__GetTickCount@0
  007a0	8b 4d fc	 mov	 ecx, DWORD PTR _this$[ebp]
  007a3	89 81 28 af 00
	00		 mov	 DWORD PTR [ecx+44840], eax

; 183  : }

  007a9	5f		 pop	 edi
  007aa	5e		 pop	 esi
  007ab	5b		 pop	 ebx
  007ac	8b e5		 mov	 esp, ebp
  007ae	5d		 pop	 ebp
  007af	c3		 ret	 0
?SetState_ENDED@CImperial@@QAEXXZ ENDP			; CImperial::SetState_ENDED
_TEXT	ENDS
PUBLIC	?ProcState_ENDED@CImperial@@QAEXXZ		; CImperial::ProcState_ENDED
PUBLIC	?ProcState_GAION@CImperial@@QAEXXZ		; CImperial::ProcState_GAION
PUBLIC	?ProcState_RAYMOND@CImperial@@QAEXXZ		; CImperial::ProcState_RAYMOND
PUBLIC	?ProcState_ERKANNE@CImperial@@QAEXXZ		; CImperial::ProcState_ERKANNE
PUBLIC	?ProcState_GALIA@CImperial@@QAEXXZ		; CImperial::ProcState_GALIA
PUBLIC	?ProcState_KATO@CImperial@@QAEXXZ		; CImperial::ProcState_KATO
PUBLIC	?ProcState_VERMONT@CImperial@@QAEXXZ		; CImperial::ProcState_VERMONT
PUBLIC	?ProcState_DESTLER@CImperial@@QAEXXZ		; CImperial::ProcState_DESTLER
PUBLIC	?ProcState_OPEN@CImperial@@QAEXXZ		; CImperial::ProcState_OPEN
PUBLIC	?Run@CImperial@@QAEXXZ				; CImperial::Run
EXTRN	?CheckUserState@CImperialBattleUserMng@@QAEXXZ:PROC ; CImperialBattleUserMng::CheckUserState
; Function compile flags: /Odtp /ZI
_TEXT	SEGMENT
tv67 = -72						; size = 4
_this$ = -4						; size = 4
?Run@CImperial@@QAEXXZ PROC				; CImperial::Run
; _this$ = ecx

; 187  : {

  007b0	55		 push	 ebp
  007b1	8b ec		 mov	 ebp, esp
  007b3	83 ec 48	 sub	 esp, 72			; 00000048H
  007b6	53		 push	 ebx
  007b7	56		 push	 esi
  007b8	57		 push	 edi
  007b9	89 4d fc	 mov	 DWORD PTR _this$[ebp], ecx

; 188  : 	g_ImperialBattleUserMng.CheckUserState();

  007bc	b9 00 00 00 00	 mov	 ecx, OFFSET ?g_ImperialBattleUserMng@@3VCImperialBattleUserMng@@A ; g_ImperialBattleUserMng
  007c1	e8 00 00 00 00	 call	 ?CheckUserState@CImperialBattleUserMng@@QAEXXZ ; CImperialBattleUserMng::CheckUserState

; 189  : 	switch ( this->m_ImperialData.iState )

  007c6	8b 45 fc	 mov	 eax, DWORD PTR _this$[ebp]
  007c9	8b 88 24 af 00
	00		 mov	 ecx, DWORD PTR [eax+44836]
  007cf	89 4d b8	 mov	 DWORD PTR tv67[ebp], ecx
  007d2	83 7d b8 09	 cmp	 DWORD PTR tv67[ebp], 9
  007d6	77 64		 ja	 SHORT $LN13@Run
  007d8	8b 55 b8	 mov	 edx, DWORD PTR tv67[ebp]
  007db	ff 24 95 00 00
	00 00		 jmp	 DWORD PTR $LN15@Run[edx*4]
$LN10@Run:

; 190  : 	{
; 191  : 		case IMPERIAL_STATE_NONE:
; 192  : 			return;

  007e2	eb 58		 jmp	 SHORT $LN13@Run
$LN9@Run:

; 193  : 		case IMPERIAL_STATE_OPEN:
; 194  : 			this->ProcState_OPEN();

  007e4	8b 4d fc	 mov	 ecx, DWORD PTR _this$[ebp]
  007e7	e8 00 00 00 00	 call	 ?ProcState_OPEN@CImperial@@QAEXXZ ; CImperial::ProcState_OPEN

; 195  : 			break;

  007ec	eb 4e		 jmp	 SHORT $LN13@Run
$LN8@Run:

; 196  : 		case IMPERIAL_STATE_DESTLER:
; 197  : 			this->ProcState_DESTLER();

  007ee	8b 4d fc	 mov	 ecx, DWORD PTR _this$[ebp]
  007f1	e8 00 00 00 00	 call	 ?ProcState_DESTLER@CImperial@@QAEXXZ ; CImperial::ProcState_DESTLER

; 198  : 			break;

  007f6	eb 44		 jmp	 SHORT $LN13@Run
$LN7@Run:

; 199  : 		case IMPERIAL_STATE_VERMONT:
; 200  : 			this->ProcState_VERMONT();

  007f8	8b 4d fc	 mov	 ecx, DWORD PTR _this$[ebp]
  007fb	e8 00 00 00 00	 call	 ?ProcState_VERMONT@CImperial@@QAEXXZ ; CImperial::ProcState_VERMONT

; 201  : 			break;

  00800	eb 3a		 jmp	 SHORT $LN13@Run
$LN6@Run:

; 202  : 		case IMPERIAL_STATE_KATO:
; 203  : 			this->ProcState_KATO();

  00802	8b 4d fc	 mov	 ecx, DWORD PTR _this$[ebp]
  00805	e8 00 00 00 00	 call	 ?ProcState_KATO@CImperial@@QAEXXZ ; CImperial::ProcState_KATO

; 204  : 			break;

  0080a	eb 30		 jmp	 SHORT $LN13@Run
$LN5@Run:

; 205  : 		case IMPERIAL_STATE_GALIA:
; 206  : 			this->ProcState_GALIA();

  0080c	8b 4d fc	 mov	 ecx, DWORD PTR _this$[ebp]
  0080f	e8 00 00 00 00	 call	 ?ProcState_GALIA@CImperial@@QAEXXZ ; CImperial::ProcState_GALIA

; 207  : 			break;

  00814	eb 26		 jmp	 SHORT $LN13@Run
$LN4@Run:

; 208  : 		case IMPERIAL_STATE_ERKANNE:
; 209  : 			this->ProcState_ERKANNE();

  00816	8b 4d fc	 mov	 ecx, DWORD PTR _this$[ebp]
  00819	e8 00 00 00 00	 call	 ?ProcState_ERKANNE@CImperial@@QAEXXZ ; CImperial::ProcState_ERKANNE

; 210  : 			break;

  0081e	eb 1c		 jmp	 SHORT $LN13@Run
$LN3@Run:

; 211  : 		case IMPERIAL_STATE_RAYMOND:
; 212  : 			this->ProcState_RAYMOND();

  00820	8b 4d fc	 mov	 ecx, DWORD PTR _this$[ebp]
  00823	e8 00 00 00 00	 call	 ?ProcState_RAYMOND@CImperial@@QAEXXZ ; CImperial::ProcState_RAYMOND

; 213  : 			break;

  00828	eb 12		 jmp	 SHORT $LN13@Run
$LN2@Run:

; 214  : 		case IMPERIAL_STATE_GAION:
; 215  : 			this->ProcState_GAION();

  0082a	8b 4d fc	 mov	 ecx, DWORD PTR _this$[ebp]
  0082d	e8 00 00 00 00	 call	 ?ProcState_GAION@CImperial@@QAEXXZ ; CImperial::ProcState_GAION

; 216  : 			break;

  00832	eb 08		 jmp	 SHORT $LN13@Run
$LN1@Run:

; 217  : 		case IMPERIAL_STATE_ENDED:
; 218  : 			this->ProcState_ENDED();

  00834	8b 4d fc	 mov	 ecx, DWORD PTR _this$[ebp]
  00837	e8 00 00 00 00	 call	 ?ProcState_ENDED@CImperial@@QAEXXZ ; CImperial::ProcState_ENDED
$LN13@Run:

; 219  : 			break;
; 220  : 	}
; 221  : }

  0083c	5f		 pop	 edi
  0083d	5e		 pop	 esi
  0083e	5b		 pop	 ebx
  0083f	8b e5		 mov	 esp, ebp
  00841	5d		 pop	 ebp
  00842	c3		 ret	 0
  00843	90		 npad	 1
$LN15@Run:
  00844	00 00 00 00	 DD	 $LN10@Run
  00848	00 00 00 00	 DD	 $LN9@Run
  0084c	00 00 00 00	 DD	 $LN8@Run
  00850	00 00 00 00	 DD	 $LN7@Run
  00854	00 00 00 00	 DD	 $LN6@Run
  00858	00 00 00 00	 DD	 $LN5@Run
  0085c	00 00 00 00	 DD	 $LN4@Run
  00860	00 00 00 00	 DD	 $LN3@Run
  00864	00 00 00 00	 DD	 $LN2@Run
  00868	00 00 00 00	 DD	 $LN1@Run
?Run@CImperial@@QAEXXZ ENDP				; CImperial::Run
_TEXT	ENDS
PUBLIC	?GetCurrentDay@CImperial@@QAEHXZ		; CImperial::GetCurrentDay
EXTRN	?GetUserCount@CImperialBattleUserMng@@QAEHXZ:PROC ; CImperialBattleUserMng::GetUserCount
; Function compile flags: /Odtp /ZI
_TEXT	SEGMENT
tv69 = -76						; size = 4
_Day$230704 = -8					; size = 4
_this$ = -4						; size = 4
?ProcState_OPEN@CImperial@@QAEXXZ PROC			; CImperial::ProcState_OPEN
; _this$ = ecx

; 224  : {

  00870	55		 push	 ebp
  00871	8b ec		 mov	 ebp, esp
  00873	83 ec 4c	 sub	 esp, 76			; 0000004cH
  00876	53		 push	 ebx
  00877	56		 push	 esi
  00878	57		 push	 edi
  00879	89 4d fc	 mov	 DWORD PTR _this$[ebp], ecx

; 225  : 	if ( g_ImperialBattleUserMng.GetUserCount() > 0 )

  0087c	b9 00 00 00 00	 mov	 ecx, OFFSET ?g_ImperialBattleUserMng@@3VCImperialBattleUserMng@@A ; g_ImperialBattleUserMng
  00881	e8 00 00 00 00	 call	 ?GetUserCount@CImperialBattleUserMng@@QAEHXZ ; CImperialBattleUserMng::GetUserCount
  00886	85 c0		 test	 eax, eax
  00888	7e 7c		 jle	 SHORT $LN11@ProcState_

; 226  : 	{
; 227  : 		int Day = this->GetCurrentDay();

  0088a	8b 4d fc	 mov	 ecx, DWORD PTR _this$[ebp]
  0088d	e8 00 00 00 00	 call	 ?GetCurrentDay@CImperial@@QAEHXZ ; CImperial::GetCurrentDay
  00892	89 45 f8	 mov	 DWORD PTR _Day$230704[ebp], eax

; 228  : 
; 229  : 		switch ( Day )

  00895	8b 45 f8	 mov	 eax, DWORD PTR _Day$230704[ebp]
  00898	89 45 b4	 mov	 DWORD PTR tv69[ebp], eax
  0089b	8b 4d b4	 mov	 ecx, DWORD PTR tv69[ebp]
  0089e	83 e9 01	 sub	 ecx, 1
  008a1	89 4d b4	 mov	 DWORD PTR tv69[ebp], ecx
  008a4	83 7d b4 06	 cmp	 DWORD PTR tv69[ebp], 6
  008a8	77 5c		 ja	 SHORT $LN11@ProcState_
  008aa	8b 55 b4	 mov	 edx, DWORD PTR tv69[ebp]
  008ad	ff 24 95 00 00
	00 00		 jmp	 DWORD PTR $LN13@ProcState_[edx*4]
$LN7@ProcState_:

; 230  : 		{
; 231  : 			case 1:
; 232  : 				this->SetState(IMPERIAL_STATE_DESTLER);

  008b4	6a 02		 push	 2
  008b6	8b 4d fc	 mov	 ecx, DWORD PTR _this$[ebp]
  008b9	e8 00 00 00 00	 call	 ?SetState@CImperial@@QAEXH@Z ; CImperial::SetState

; 233  : 				break;

  008be	eb 46		 jmp	 SHORT $LN11@ProcState_
$LN6@ProcState_:

; 234  : 			case 2:
; 235  : 				this->SetState(IMPERIAL_STATE_VERMONT);

  008c0	6a 03		 push	 3
  008c2	8b 4d fc	 mov	 ecx, DWORD PTR _this$[ebp]
  008c5	e8 00 00 00 00	 call	 ?SetState@CImperial@@QAEXH@Z ; CImperial::SetState

; 236  : 				break;

  008ca	eb 3a		 jmp	 SHORT $LN11@ProcState_
$LN5@ProcState_:

; 237  : 			case 3:
; 238  : 				this->SetState(IMPERIAL_STATE_KATO);

  008cc	6a 04		 push	 4
  008ce	8b 4d fc	 mov	 ecx, DWORD PTR _this$[ebp]
  008d1	e8 00 00 00 00	 call	 ?SetState@CImperial@@QAEXH@Z ; CImperial::SetState

; 239  : 				break;

  008d6	eb 2e		 jmp	 SHORT $LN11@ProcState_
$LN4@ProcState_:

; 240  : 			case 4:
; 241  : 				this->SetState(IMPERIAL_STATE_GALIA);

  008d8	6a 05		 push	 5
  008da	8b 4d fc	 mov	 ecx, DWORD PTR _this$[ebp]
  008dd	e8 00 00 00 00	 call	 ?SetState@CImperial@@QAEXH@Z ; CImperial::SetState

; 242  : 				break;

  008e2	eb 22		 jmp	 SHORT $LN11@ProcState_
$LN3@ProcState_:

; 243  : 			case 5:
; 244  : 				this->SetState(IMPERIAL_STATE_ERKANNE);

  008e4	6a 06		 push	 6
  008e6	8b 4d fc	 mov	 ecx, DWORD PTR _this$[ebp]
  008e9	e8 00 00 00 00	 call	 ?SetState@CImperial@@QAEXH@Z ; CImperial::SetState

; 245  : 				break;

  008ee	eb 16		 jmp	 SHORT $LN11@ProcState_
$LN2@ProcState_:

; 246  : 			case 6:
; 247  : 				this->SetState(IMPERIAL_STATE_RAYMOND);

  008f0	6a 07		 push	 7
  008f2	8b 4d fc	 mov	 ecx, DWORD PTR _this$[ebp]
  008f5	e8 00 00 00 00	 call	 ?SetState@CImperial@@QAEXH@Z ; CImperial::SetState

; 248  : 				break;

  008fa	eb 0a		 jmp	 SHORT $LN11@ProcState_
$LN1@ProcState_:

; 249  : 			case 7:
; 250  : 				this->SetState(IMPERIAL_STATE_GAION);

  008fc	6a 08		 push	 8
  008fe	8b 4d fc	 mov	 ecx, DWORD PTR _this$[ebp]
  00901	e8 00 00 00 00	 call	 ?SetState@CImperial@@QAEXH@Z ; CImperial::SetState
$LN11@ProcState_:

; 251  : 				break;
; 252  : 		}
; 253  : 	}
; 254  : }

  00906	5f		 pop	 edi
  00907	5e		 pop	 esi
  00908	5b		 pop	 ebx
  00909	8b e5		 mov	 esp, ebp
  0090b	5d		 pop	 ebp
  0090c	c3		 ret	 0
  0090d	8d 49 00	 npad	 3
$LN13@ProcState_:
  00910	00 00 00 00	 DD	 $LN7@ProcState_
  00914	00 00 00 00	 DD	 $LN6@ProcState_
  00918	00 00 00 00	 DD	 $LN5@ProcState_
  0091c	00 00 00 00	 DD	 $LN4@ProcState_
  00920	00 00 00 00	 DD	 $LN3@ProcState_
  00924	00 00 00 00	 DD	 $LN2@ProcState_
  00928	00 00 00 00	 DD	 $LN1@ProcState_
?ProcState_OPEN@CImperial@@QAEXXZ ENDP			; CImperial::ProcState_OPEN
_TEXT	ENDS
PUBLIC	?GiveRewardExp@CImperial@@QAEHHH@Z		; CImperial::GiveRewardExp
PUBLIC	?GetIndex@CImperialBattleUser@@QAEHXZ		; CImperialBattleUser::GetIndex
PUBLIC	?GetSuccessValue@CImperialBattleOfDestler@@QAE_NXZ ; CImperialBattleOfDestler::GetSuccessValue
EXTRN	?Run@CImperialBattleOfDestler@@QAEXXZ:PROC	; CImperialBattleOfDestler::Run
; Function compile flags: /Odtp /ZI
_TEXT	SEGMENT
_i$230722 = -8						; size = 4
_this$ = -4						; size = 4
?ProcState_DESTLER@CImperial@@QAEXXZ PROC		; CImperial::ProcState_DESTLER
; _this$ = ecx

; 257  : {

  00930	55		 push	 ebp
  00931	8b ec		 mov	 ebp, esp
  00933	83 ec 48	 sub	 esp, 72			; 00000048H
  00936	53		 push	 ebx
  00937	56		 push	 esi
  00938	57		 push	 edi
  00939	89 4d fc	 mov	 DWORD PTR _this$[ebp], ecx

; 258  : 	if ( g_ImperialBattleUserMng.GetUserCount() <= 0 )

  0093c	b9 00 00 00 00	 mov	 ecx, OFFSET ?g_ImperialBattleUserMng@@3VCImperialBattleUserMng@@A ; g_ImperialBattleUserMng
  00941	e8 00 00 00 00	 call	 ?GetUserCount@CImperialBattleUserMng@@QAEHXZ ; CImperialBattleUserMng::GetUserCount
  00946	85 c0		 test	 eax, eax
  00948	7f 1f		 jg	 SHORT $LN6@ProcState_@2

; 259  : 	{
; 260  : 		this->m_BattleOfDestler.SetState(7);

  0094a	6a 07		 push	 7
  0094c	8b 4d fc	 mov	 ecx, DWORD PTR _this$[ebp]
  0094f	81 c1 34 af 00
	00		 add	 ecx, 44852		; 0000af34H
  00955	e8 00 00 00 00	 call	 ?SetState@CImperialBattleOfDestler@@QAEXH@Z ; CImperialBattleOfDestler::SetState

; 261  : 		#if(FIX_IMPERIAL)
; 262  : 		this->SetState(IMPERIAL_STATE_ENDED);

  0095a	6a 09		 push	 9
  0095c	8b 4d fc	 mov	 ecx, DWORD PTR _this$[ebp]
  0095f	e8 00 00 00 00	 call	 ?SetState@CImperial@@QAEXH@Z ; CImperial::SetState

; 263  : 		#endif
; 264  : 		return;

  00964	e9 b8 00 00 00	 jmp	 $LN7@ProcState_@2
$LN6@ProcState_@2:

; 265  : 	}	
; 266  : 	if ( this->m_BattleOfDestler.GetEventState() == 0 )

  00969	8b 4d fc	 mov	 ecx, DWORD PTR _this$[ebp]
  0096c	81 c1 34 af 00
	00		 add	 ecx, 44852		; 0000af34H
  00972	e8 00 00 00 00	 call	 ?GetEventState@CImperialBattleOfDestler@@QAEHXZ ; CImperialBattleOfDestler::GetEventState
  00977	85 c0		 test	 eax, eax
  00979	0f 85 82 00 00
	00		 jne	 $LN5@ProcState_@2

; 267  : 	{
; 268  : 		if(this->m_BattleOfDestler.GetSuccessValue() == true)

  0097f	8b 4d fc	 mov	 ecx, DWORD PTR _this$[ebp]
  00982	81 c1 34 af 00
	00		 add	 ecx, 44852		; 0000af34H
  00988	e8 00 00 00 00	 call	 ?GetSuccessValue@CImperialBattleOfDestler@@QAE_NXZ ; CImperialBattleOfDestler::GetSuccessValue
  0098d	0f b6 c0	 movzx	 eax, al
  00990	83 f8 01	 cmp	 eax, 1
  00993	75 50		 jne	 SHORT $LN4@ProcState_@2

; 269  : 		{
; 270  : 			for(int i=0;i<g_ImperialBattleUserMng.GetUserCount();++i)

  00995	c7 45 f8 00 00
	00 00		 mov	 DWORD PTR _i$230722[ebp], 0
  0099c	eb 09		 jmp	 SHORT $LN3@ProcState_@2
$LN2@ProcState_@2:
  0099e	8b 45 f8	 mov	 eax, DWORD PTR _i$230722[ebp]
  009a1	83 c0 01	 add	 eax, 1
  009a4	89 45 f8	 mov	 DWORD PTR _i$230722[ebp], eax
$LN3@ProcState_@2:
  009a7	b9 00 00 00 00	 mov	 ecx, OFFSET ?g_ImperialBattleUserMng@@3VCImperialBattleUserMng@@A ; g_ImperialBattleUserMng
  009ac	e8 00 00 00 00	 call	 ?GetUserCount@CImperialBattleUserMng@@QAEHXZ ; CImperialBattleUserMng::GetUserCount
  009b1	39 45 f8	 cmp	 DWORD PTR _i$230722[ebp], eax
  009b4	7d 2f		 jge	 SHORT $LN4@ProcState_@2

; 271  : 			{
; 272  : 				this->GiveRewardExp(g_ImperialBattleUserMng.m_BattleUser[i].GetIndex(), g_ExpTable[this->m_ImperialData.Day].Experience);

  009b6	8b 45 fc	 mov	 eax, DWORD PTR _this$[ebp]
  009b9	8b 88 30 af 00
	00		 mov	 ecx, DWORD PTR [eax+44848]
  009bf	c1 e1 04	 shl	 ecx, 4
  009c2	8b 91 08 00 00
	00		 mov	 edx, DWORD PTR _g_ExpTable[ecx+8]
  009c8	52		 push	 edx
  009c9	8b 4d f8	 mov	 ecx, DWORD PTR _i$230722[ebp]
  009cc	6b c9 0c	 imul	 ecx, 12			; 0000000cH
  009cf	81 c1 04 00 00
	00		 add	 ecx, OFFSET ?g_ImperialBattleUserMng@@3VCImperialBattleUserMng@@A+4
  009d5	e8 00 00 00 00	 call	 ?GetIndex@CImperialBattleUser@@QAEHXZ ; CImperialBattleUser::GetIndex
  009da	50		 push	 eax
  009db	8b 4d fc	 mov	 ecx, DWORD PTR _this$[ebp]
  009de	e8 00 00 00 00	 call	 ?GiveRewardExp@CImperial@@QAEHHH@Z ; CImperial::GiveRewardExp

; 273  : 			}

  009e3	eb b9		 jmp	 SHORT $LN2@ProcState_@2
$LN4@ProcState_@2:

; 274  : 		}
; 275  : 		this->m_BattleOfDestler.SetState(0);

  009e5	6a 00		 push	 0
  009e7	8b 4d fc	 mov	 ecx, DWORD PTR _this$[ebp]
  009ea	81 c1 34 af 00
	00		 add	 ecx, 44852		; 0000af34H
  009f0	e8 00 00 00 00	 call	 ?SetState@CImperialBattleOfDestler@@QAEXH@Z ; CImperialBattleOfDestler::SetState

; 276  : 		this->SetState(IMPERIAL_STATE_ENDED);

  009f5	6a 09		 push	 9
  009f7	8b 4d fc	 mov	 ecx, DWORD PTR _this$[ebp]
  009fa	e8 00 00 00 00	 call	 ?SetState@CImperial@@QAEXH@Z ; CImperial::SetState

; 277  : 		return;

  009ff	eb 20		 jmp	 SHORT $LN7@ProcState_@2
$LN5@ProcState_@2:

; 278  : 	}
; 279  : 	this->m_ImperialData.Time = this->m_BattleOfDestler.m_BattleData.Time;

  00a01	8b 45 fc	 mov	 eax, DWORD PTR _this$[ebp]
  00a04	8b 4d fc	 mov	 ecx, DWORD PTR _this$[ebp]
  00a07	8b 91 6c af 00
	00		 mov	 edx, DWORD PTR [ecx+44908]
  00a0d	89 90 2c af 00
	00		 mov	 DWORD PTR [eax+44844], edx

; 280  : 	this->m_BattleOfDestler.Run();

  00a13	8b 4d fc	 mov	 ecx, DWORD PTR _this$[ebp]
  00a16	81 c1 34 af 00
	00		 add	 ecx, 44852		; 0000af34H
  00a1c	e8 00 00 00 00	 call	 ?Run@CImperialBattleOfDestler@@QAEXXZ ; CImperialBattleOfDestler::Run
$LN7@ProcState_@2:

; 281  : }

  00a21	5f		 pop	 edi
  00a22	5e		 pop	 esi
  00a23	5b		 pop	 ebx
  00a24	8b e5		 mov	 esp, ebp
  00a26	5d		 pop	 ebp
  00a27	c3		 ret	 0
?ProcState_DESTLER@CImperial@@QAEXXZ ENDP		; CImperial::ProcState_DESTLER
; Function compile flags: /Odtp /ZI
; File d:\projects\exteam6.3\source\gameserver\gameserver\imperialbattleofdestler.h
_TEXT	ENDS
;	COMDAT ?GetSuccessValue@CImperialBattleOfDestler@@QAE_NXZ
_TEXT	SEGMENT
_this$ = -4						; size = 4
?GetSuccessValue@CImperialBattleOfDestler@@QAE_NXZ PROC	; CImperialBattleOfDestler::GetSuccessValue, COMDAT
; _this$ = ecx

; 82   : 	bool GetSuccessValue() { return this->SuccessValue; }

  00000	55		 push	 ebp
  00001	8b ec		 mov	 ebp, esp
  00003	83 ec 44	 sub	 esp, 68			; 00000044H
  00006	53		 push	 ebx
  00007	56		 push	 esi
  00008	57		 push	 edi
  00009	89 4d fc	 mov	 DWORD PTR _this$[ebp], ecx
  0000c	8b 45 fc	 mov	 eax, DWORD PTR _this$[ebp]
  0000f	8a 40 59	 mov	 al, BYTE PTR [eax+89]
  00012	5f		 pop	 edi
  00013	5e		 pop	 esi
  00014	5b		 pop	 ebx
  00015	8b e5		 mov	 esp, ebp
  00017	5d		 pop	 ebp
  00018	c3		 ret	 0
?GetSuccessValue@CImperialBattleOfDestler@@QAE_NXZ ENDP	; CImperialBattleOfDestler::GetSuccessValue
; Function compile flags: /Odtp /ZI
; File d:\projects\exteam6.3\source\gameserver\gameserver\imperialbattleuser.h
_TEXT	ENDS
;	COMDAT ?GetIndex@CImperialBattleUser@@QAEHXZ
_TEXT	SEGMENT
_this$ = -4						; size = 4
?GetIndex@CImperialBattleUser@@QAEHXZ PROC		; CImperialBattleUser::GetIndex, COMDAT
; _this$ = ecx

; 22   : 	{

  00000	55		 push	 ebp
  00001	8b ec		 mov	 ebp, esp
  00003	83 ec 44	 sub	 esp, 68			; 00000044H
  00006	53		 push	 ebx
  00007	56		 push	 esi
  00008	57		 push	 edi
  00009	89 4d fc	 mov	 DWORD PTR _this$[ebp], ecx

; 23   : 		return this->m_iIndex;

  0000c	8b 45 fc	 mov	 eax, DWORD PTR _this$[ebp]
  0000f	8b 40 04	 mov	 eax, DWORD PTR [eax+4]

; 24   : 	}

  00012	5f		 pop	 edi
  00013	5e		 pop	 esi
  00014	5b		 pop	 ebx
  00015	8b e5		 mov	 esp, ebp
  00017	5d		 pop	 ebp
  00018	c3		 ret	 0
?GetIndex@CImperialBattleUser@@QAEHXZ ENDP		; CImperialBattleUser::GetIndex
_TEXT	ENDS
PUBLIC	?GetSuccessValue@CImperialBattleOfVermont@@QAE_NXZ ; CImperialBattleOfVermont::GetSuccessValue
EXTRN	?Run@CImperialBattleOfVermont@@QAEXXZ:PROC	; CImperialBattleOfVermont::Run
; Function compile flags: /Odtp /ZI
; File d:\projects\exteam6.3\source\gameserver\gameserver\imperial.cpp
_TEXT	SEGMENT
_i$230732 = -8						; size = 4
_this$ = -4						; size = 4
?ProcState_VERMONT@CImperial@@QAEXXZ PROC		; CImperial::ProcState_VERMONT
; _this$ = ecx

; 284  : {

  00a30	55		 push	 ebp
  00a31	8b ec		 mov	 ebp, esp
  00a33	83 ec 48	 sub	 esp, 72			; 00000048H
  00a36	53		 push	 ebx
  00a37	56		 push	 esi
  00a38	57		 push	 edi
  00a39	89 4d fc	 mov	 DWORD PTR _this$[ebp], ecx

; 285  : 	if ( g_ImperialBattleUserMng.GetUserCount() <= 0 )

  00a3c	b9 00 00 00 00	 mov	 ecx, OFFSET ?g_ImperialBattleUserMng@@3VCImperialBattleUserMng@@A ; g_ImperialBattleUserMng
  00a41	e8 00 00 00 00	 call	 ?GetUserCount@CImperialBattleUserMng@@QAEHXZ ; CImperialBattleUserMng::GetUserCount
  00a46	85 c0		 test	 eax, eax
  00a48	7f 1f		 jg	 SHORT $LN6@ProcState_@3

; 286  : 	{
; 287  : 		this->m_BattleOfVermont.SetState(7);

  00a4a	6a 07		 push	 7
  00a4c	8b 4d fc	 mov	 ecx, DWORD PTR _this$[ebp]
  00a4f	81 c1 90 af 00
	00		 add	 ecx, 44944		; 0000af90H
  00a55	e8 00 00 00 00	 call	 ?SetState@CImperialBattleOfVermont@@QAEXH@Z ; CImperialBattleOfVermont::SetState

; 288  : 		#if(FIX_IMPERIAL)
; 289  : 		this->SetState(IMPERIAL_STATE_ENDED);

  00a5a	6a 09		 push	 9
  00a5c	8b 4d fc	 mov	 ecx, DWORD PTR _this$[ebp]
  00a5f	e8 00 00 00 00	 call	 ?SetState@CImperial@@QAEXH@Z ; CImperial::SetState

; 290  : 		#endif
; 291  : 		return;

  00a64	e9 b8 00 00 00	 jmp	 $LN7@ProcState_@3
$LN6@ProcState_@3:

; 292  : 	}	
; 293  : 	if ( this->m_BattleOfVermont.GetEventState() == 0 )

  00a69	8b 4d fc	 mov	 ecx, DWORD PTR _this$[ebp]
  00a6c	81 c1 90 af 00
	00		 add	 ecx, 44944		; 0000af90H
  00a72	e8 00 00 00 00	 call	 ?GetEventState@CImperialBattleOfVermont@@QAEHXZ ; CImperialBattleOfVermont::GetEventState
  00a77	85 c0		 test	 eax, eax
  00a79	0f 85 82 00 00
	00		 jne	 $LN5@ProcState_@3

; 294  : 	{
; 295  : 		if(this->m_BattleOfVermont.GetSuccessValue() == true)

  00a7f	8b 4d fc	 mov	 ecx, DWORD PTR _this$[ebp]
  00a82	81 c1 90 af 00
	00		 add	 ecx, 44944		; 0000af90H
  00a88	e8 00 00 00 00	 call	 ?GetSuccessValue@CImperialBattleOfVermont@@QAE_NXZ ; CImperialBattleOfVermont::GetSuccessValue
  00a8d	0f b6 c0	 movzx	 eax, al
  00a90	83 f8 01	 cmp	 eax, 1
  00a93	75 50		 jne	 SHORT $LN4@ProcState_@3

; 296  : 		{
; 297  : 			for(int i=0;i<g_ImperialBattleUserMng.GetUserCount();++i)

  00a95	c7 45 f8 00 00
	00 00		 mov	 DWORD PTR _i$230732[ebp], 0
  00a9c	eb 09		 jmp	 SHORT $LN3@ProcState_@3
$LN2@ProcState_@3:
  00a9e	8b 45 f8	 mov	 eax, DWORD PTR _i$230732[ebp]
  00aa1	83 c0 01	 add	 eax, 1
  00aa4	89 45 f8	 mov	 DWORD PTR _i$230732[ebp], eax
$LN3@ProcState_@3:
  00aa7	b9 00 00 00 00	 mov	 ecx, OFFSET ?g_ImperialBattleUserMng@@3VCImperialBattleUserMng@@A ; g_ImperialBattleUserMng
  00aac	e8 00 00 00 00	 call	 ?GetUserCount@CImperialBattleUserMng@@QAEHXZ ; CImperialBattleUserMng::GetUserCount
  00ab1	39 45 f8	 cmp	 DWORD PTR _i$230732[ebp], eax
  00ab4	7d 2f		 jge	 SHORT $LN4@ProcState_@3

; 298  : 			{
; 299  : 				this->GiveRewardExp(g_ImperialBattleUserMng.m_BattleUser[i].GetIndex(), g_ExpTable[this->m_ImperialData.Day].Experience);

  00ab6	8b 45 fc	 mov	 eax, DWORD PTR _this$[ebp]
  00ab9	8b 88 30 af 00
	00		 mov	 ecx, DWORD PTR [eax+44848]
  00abf	c1 e1 04	 shl	 ecx, 4
  00ac2	8b 91 08 00 00
	00		 mov	 edx, DWORD PTR _g_ExpTable[ecx+8]
  00ac8	52		 push	 edx
  00ac9	8b 4d f8	 mov	 ecx, DWORD PTR _i$230732[ebp]
  00acc	6b c9 0c	 imul	 ecx, 12			; 0000000cH
  00acf	81 c1 04 00 00
	00		 add	 ecx, OFFSET ?g_ImperialBattleUserMng@@3VCImperialBattleUserMng@@A+4
  00ad5	e8 00 00 00 00	 call	 ?GetIndex@CImperialBattleUser@@QAEHXZ ; CImperialBattleUser::GetIndex
  00ada	50		 push	 eax
  00adb	8b 4d fc	 mov	 ecx, DWORD PTR _this$[ebp]
  00ade	e8 00 00 00 00	 call	 ?GiveRewardExp@CImperial@@QAEHHH@Z ; CImperial::GiveRewardExp

; 300  : 			}

  00ae3	eb b9		 jmp	 SHORT $LN2@ProcState_@3
$LN4@ProcState_@3:

; 301  : 		}
; 302  : 		this->m_BattleOfVermont.SetState(0);

  00ae5	6a 00		 push	 0
  00ae7	8b 4d fc	 mov	 ecx, DWORD PTR _this$[ebp]
  00aea	81 c1 90 af 00
	00		 add	 ecx, 44944		; 0000af90H
  00af0	e8 00 00 00 00	 call	 ?SetState@CImperialBattleOfVermont@@QAEXH@Z ; CImperialBattleOfVermont::SetState

; 303  : 		this->SetState(IMPERIAL_STATE_ENDED);

  00af5	6a 09		 push	 9
  00af7	8b 4d fc	 mov	 ecx, DWORD PTR _this$[ebp]
  00afa	e8 00 00 00 00	 call	 ?SetState@CImperial@@QAEXH@Z ; CImperial::SetState

; 304  : 		return;

  00aff	eb 20		 jmp	 SHORT $LN7@ProcState_@3
$LN5@ProcState_@3:

; 305  : 	}
; 306  : 	this->m_ImperialData.Time = this->m_BattleOfVermont.m_BattleData.Time;

  00b01	8b 45 fc	 mov	 eax, DWORD PTR _this$[ebp]
  00b04	8b 4d fc	 mov	 ecx, DWORD PTR _this$[ebp]
  00b07	8b 91 c8 af 00
	00		 mov	 edx, DWORD PTR [ecx+45000]
  00b0d	89 90 2c af 00
	00		 mov	 DWORD PTR [eax+44844], edx

; 307  : 	this->m_BattleOfVermont.Run();

  00b13	8b 4d fc	 mov	 ecx, DWORD PTR _this$[ebp]
  00b16	81 c1 90 af 00
	00		 add	 ecx, 44944		; 0000af90H
  00b1c	e8 00 00 00 00	 call	 ?Run@CImperialBattleOfVermont@@QAEXXZ ; CImperialBattleOfVermont::Run
$LN7@ProcState_@3:

; 308  : }

  00b21	5f		 pop	 edi
  00b22	5e		 pop	 esi
  00b23	5b		 pop	 ebx
  00b24	8b e5		 mov	 esp, ebp
  00b26	5d		 pop	 ebp
  00b27	c3		 ret	 0
?ProcState_VERMONT@CImperial@@QAEXXZ ENDP		; CImperial::ProcState_VERMONT
; Function compile flags: /Odtp /ZI
; File d:\projects\exteam6.3\source\gameserver\gameserver\imperialbattleofvermont.h
_TEXT	ENDS
;	COMDAT ?GetSuccessValue@CImperialBattleOfVermont@@QAE_NXZ
_TEXT	SEGMENT
_this$ = -4						; size = 4
?GetSuccessValue@CImperialBattleOfVermont@@QAE_NXZ PROC	; CImperialBattleOfVermont::GetSuccessValue, COMDAT
; _this$ = ecx

; 82   : 	bool GetSuccessValue() { return this->SuccessValue; }

  00000	55		 push	 ebp
  00001	8b ec		 mov	 ebp, esp
  00003	83 ec 44	 sub	 esp, 68			; 00000044H
  00006	53		 push	 ebx
  00007	56		 push	 esi
  00008	57		 push	 edi
  00009	89 4d fc	 mov	 DWORD PTR _this$[ebp], ecx
  0000c	8b 45 fc	 mov	 eax, DWORD PTR _this$[ebp]
  0000f	8a 40 59	 mov	 al, BYTE PTR [eax+89]
  00012	5f		 pop	 edi
  00013	5e		 pop	 esi
  00014	5b		 pop	 ebx
  00015	8b e5		 mov	 esp, ebp
  00017	5d		 pop	 ebp
  00018	c3		 ret	 0
?GetSuccessValue@CImperialBattleOfVermont@@QAE_NXZ ENDP	; CImperialBattleOfVermont::GetSuccessValue
_TEXT	ENDS
PUBLIC	?GetSuccessValue@CImperialBattleOfKato@@QAE_NXZ	; CImperialBattleOfKato::GetSuccessValue
EXTRN	?Run@CImperialBattleOfKato@@QAEXXZ:PROC		; CImperialBattleOfKato::Run
; Function compile flags: /Odtp /ZI
; File d:\projects\exteam6.3\source\gameserver\gameserver\imperial.cpp
_TEXT	SEGMENT
_i$230742 = -8						; size = 4
_this$ = -4						; size = 4
?ProcState_KATO@CImperial@@QAEXXZ PROC			; CImperial::ProcState_KATO
; _this$ = ecx

; 311  : {

  00b30	55		 push	 ebp
  00b31	8b ec		 mov	 ebp, esp
  00b33	83 ec 48	 sub	 esp, 72			; 00000048H
  00b36	53		 push	 ebx
  00b37	56		 push	 esi
  00b38	57		 push	 edi
  00b39	89 4d fc	 mov	 DWORD PTR _this$[ebp], ecx

; 312  : 	if ( g_ImperialBattleUserMng.GetUserCount() <= 0 )

  00b3c	b9 00 00 00 00	 mov	 ecx, OFFSET ?g_ImperialBattleUserMng@@3VCImperialBattleUserMng@@A ; g_ImperialBattleUserMng
  00b41	e8 00 00 00 00	 call	 ?GetUserCount@CImperialBattleUserMng@@QAEHXZ ; CImperialBattleUserMng::GetUserCount
  00b46	85 c0		 test	 eax, eax
  00b48	7f 1f		 jg	 SHORT $LN6@ProcState_@4

; 313  : 	{
; 314  : 		this->m_BattleOfKato.SetState(7);

  00b4a	6a 07		 push	 7
  00b4c	8b 4d fc	 mov	 ecx, DWORD PTR _this$[ebp]
  00b4f	81 c1 ec af 00
	00		 add	 ecx, 45036		; 0000afecH
  00b55	e8 00 00 00 00	 call	 ?SetState@CImperialBattleOfKato@@QAEXH@Z ; CImperialBattleOfKato::SetState

; 315  : 		#if(FIX_IMPERIAL)
; 316  : 		this->SetState(IMPERIAL_STATE_ENDED);

  00b5a	6a 09		 push	 9
  00b5c	8b 4d fc	 mov	 ecx, DWORD PTR _this$[ebp]
  00b5f	e8 00 00 00 00	 call	 ?SetState@CImperial@@QAEXH@Z ; CImperial::SetState

; 317  : 		#endif
; 318  : 		return;

  00b64	e9 b8 00 00 00	 jmp	 $LN7@ProcState_@4
$LN6@ProcState_@4:

; 319  : 	}	
; 320  : 	if ( this->m_BattleOfKato.GetEventState() == 0 )

  00b69	8b 4d fc	 mov	 ecx, DWORD PTR _this$[ebp]
  00b6c	81 c1 ec af 00
	00		 add	 ecx, 45036		; 0000afecH
  00b72	e8 00 00 00 00	 call	 ?GetEventState@CImperialBattleOfKato@@QAEHXZ ; CImperialBattleOfKato::GetEventState
  00b77	85 c0		 test	 eax, eax
  00b79	0f 85 82 00 00
	00		 jne	 $LN5@ProcState_@4

; 321  : 	{
; 322  : 		if(this->m_BattleOfKato.GetSuccessValue() == true)

  00b7f	8b 4d fc	 mov	 ecx, DWORD PTR _this$[ebp]
  00b82	81 c1 ec af 00
	00		 add	 ecx, 45036		; 0000afecH
  00b88	e8 00 00 00 00	 call	 ?GetSuccessValue@CImperialBattleOfKato@@QAE_NXZ ; CImperialBattleOfKato::GetSuccessValue
  00b8d	0f b6 c0	 movzx	 eax, al
  00b90	83 f8 01	 cmp	 eax, 1
  00b93	75 50		 jne	 SHORT $LN4@ProcState_@4

; 323  : 		{
; 324  : 			for(int i=0;i<g_ImperialBattleUserMng.GetUserCount();++i)

  00b95	c7 45 f8 00 00
	00 00		 mov	 DWORD PTR _i$230742[ebp], 0
  00b9c	eb 09		 jmp	 SHORT $LN3@ProcState_@4
$LN2@ProcState_@4:
  00b9e	8b 45 f8	 mov	 eax, DWORD PTR _i$230742[ebp]
  00ba1	83 c0 01	 add	 eax, 1
  00ba4	89 45 f8	 mov	 DWORD PTR _i$230742[ebp], eax
$LN3@ProcState_@4:
  00ba7	b9 00 00 00 00	 mov	 ecx, OFFSET ?g_ImperialBattleUserMng@@3VCImperialBattleUserMng@@A ; g_ImperialBattleUserMng
  00bac	e8 00 00 00 00	 call	 ?GetUserCount@CImperialBattleUserMng@@QAEHXZ ; CImperialBattleUserMng::GetUserCount
  00bb1	39 45 f8	 cmp	 DWORD PTR _i$230742[ebp], eax
  00bb4	7d 2f		 jge	 SHORT $LN4@ProcState_@4

; 325  : 			{
; 326  : 				this->GiveRewardExp(g_ImperialBattleUserMng.m_BattleUser[i].GetIndex(), g_ExpTable[this->m_ImperialData.Day].Experience);

  00bb6	8b 45 fc	 mov	 eax, DWORD PTR _this$[ebp]
  00bb9	8b 88 30 af 00
	00		 mov	 ecx, DWORD PTR [eax+44848]
  00bbf	c1 e1 04	 shl	 ecx, 4
  00bc2	8b 91 08 00 00
	00		 mov	 edx, DWORD PTR _g_ExpTable[ecx+8]
  00bc8	52		 push	 edx
  00bc9	8b 4d f8	 mov	 ecx, DWORD PTR _i$230742[ebp]
  00bcc	6b c9 0c	 imul	 ecx, 12			; 0000000cH
  00bcf	81 c1 04 00 00
	00		 add	 ecx, OFFSET ?g_ImperialBattleUserMng@@3VCImperialBattleUserMng@@A+4
  00bd5	e8 00 00 00 00	 call	 ?GetIndex@CImperialBattleUser@@QAEHXZ ; CImperialBattleUser::GetIndex
  00bda	50		 push	 eax
  00bdb	8b 4d fc	 mov	 ecx, DWORD PTR _this$[ebp]
  00bde	e8 00 00 00 00	 call	 ?GiveRewardExp@CImperial@@QAEHHH@Z ; CImperial::GiveRewardExp

; 327  : 			}

  00be3	eb b9		 jmp	 SHORT $LN2@ProcState_@4
$LN4@ProcState_@4:

; 328  : 		}
; 329  : 
; 330  : 		this->m_BattleOfKato.SetState(0);

  00be5	6a 00		 push	 0
  00be7	8b 4d fc	 mov	 ecx, DWORD PTR _this$[ebp]
  00bea	81 c1 ec af 00
	00		 add	 ecx, 45036		; 0000afecH
  00bf0	e8 00 00 00 00	 call	 ?SetState@CImperialBattleOfKato@@QAEXH@Z ; CImperialBattleOfKato::SetState

; 331  : 		this->SetState(IMPERIAL_STATE_ENDED);

  00bf5	6a 09		 push	 9
  00bf7	8b 4d fc	 mov	 ecx, DWORD PTR _this$[ebp]
  00bfa	e8 00 00 00 00	 call	 ?SetState@CImperial@@QAEXH@Z ; CImperial::SetState

; 332  : 		return;

  00bff	eb 20		 jmp	 SHORT $LN7@ProcState_@4
$LN5@ProcState_@4:

; 333  : 	}
; 334  : 	this->m_ImperialData.Time = this->m_BattleOfKato.m_BattleData.Time;

  00c01	8b 45 fc	 mov	 eax, DWORD PTR _this$[ebp]
  00c04	8b 4d fc	 mov	 ecx, DWORD PTR _this$[ebp]
  00c07	8b 91 24 b0 00
	00		 mov	 edx, DWORD PTR [ecx+45092]
  00c0d	89 90 2c af 00
	00		 mov	 DWORD PTR [eax+44844], edx

; 335  : 	this->m_BattleOfKato.Run();

  00c13	8b 4d fc	 mov	 ecx, DWORD PTR _this$[ebp]
  00c16	81 c1 ec af 00
	00		 add	 ecx, 45036		; 0000afecH
  00c1c	e8 00 00 00 00	 call	 ?Run@CImperialBattleOfKato@@QAEXXZ ; CImperialBattleOfKato::Run
$LN7@ProcState_@4:

; 336  : }

  00c21	5f		 pop	 edi
  00c22	5e		 pop	 esi
  00c23	5b		 pop	 ebx
  00c24	8b e5		 mov	 esp, ebp
  00c26	5d		 pop	 ebp
  00c27	c3		 ret	 0
?ProcState_KATO@CImperial@@QAEXXZ ENDP			; CImperial::ProcState_KATO
; Function compile flags: /Odtp /ZI
; File d:\projects\exteam6.3\source\gameserver\gameserver\imperialbattleofkato.h
_TEXT	ENDS
;	COMDAT ?GetSuccessValue@CImperialBattleOfKato@@QAE_NXZ
_TEXT	SEGMENT
_this$ = -4						; size = 4
?GetSuccessValue@CImperialBattleOfKato@@QAE_NXZ PROC	; CImperialBattleOfKato::GetSuccessValue, COMDAT
; _this$ = ecx

; 81   : 	bool GetSuccessValue() { return this->SuccessValue; }

  00000	55		 push	 ebp
  00001	8b ec		 mov	 ebp, esp
  00003	83 ec 44	 sub	 esp, 68			; 00000044H
  00006	53		 push	 ebx
  00007	56		 push	 esi
  00008	57		 push	 edi
  00009	89 4d fc	 mov	 DWORD PTR _this$[ebp], ecx
  0000c	8b 45 fc	 mov	 eax, DWORD PTR _this$[ebp]
  0000f	8a 40 59	 mov	 al, BYTE PTR [eax+89]
  00012	5f		 pop	 edi
  00013	5e		 pop	 esi
  00014	5b		 pop	 ebx
  00015	8b e5		 mov	 esp, ebp
  00017	5d		 pop	 ebp
  00018	c3		 ret	 0
?GetSuccessValue@CImperialBattleOfKato@@QAE_NXZ ENDP	; CImperialBattleOfKato::GetSuccessValue
_TEXT	ENDS
PUBLIC	?GetSuccessValue@CImperialBattleOfGalia@@QAE_NXZ ; CImperialBattleOfGalia::GetSuccessValue
EXTRN	?Run@CImperialBattleOfGalia@@QAEXXZ:PROC	; CImperialBattleOfGalia::Run
; Function compile flags: /Odtp /ZI
; File d:\projects\exteam6.3\source\gameserver\gameserver\imperial.cpp
_TEXT	SEGMENT
_i$230752 = -8						; size = 4
_this$ = -4						; size = 4
?ProcState_GALIA@CImperial@@QAEXXZ PROC			; CImperial::ProcState_GALIA
; _this$ = ecx

; 339  : {

  00c30	55		 push	 ebp
  00c31	8b ec		 mov	 ebp, esp
  00c33	83 ec 48	 sub	 esp, 72			; 00000048H
  00c36	53		 push	 ebx
  00c37	56		 push	 esi
  00c38	57		 push	 edi
  00c39	89 4d fc	 mov	 DWORD PTR _this$[ebp], ecx

; 340  : 	if ( g_ImperialBattleUserMng.GetUserCount() <= 0 )

  00c3c	b9 00 00 00 00	 mov	 ecx, OFFSET ?g_ImperialBattleUserMng@@3VCImperialBattleUserMng@@A ; g_ImperialBattleUserMng
  00c41	e8 00 00 00 00	 call	 ?GetUserCount@CImperialBattleUserMng@@QAEHXZ ; CImperialBattleUserMng::GetUserCount
  00c46	85 c0		 test	 eax, eax
  00c48	7f 1f		 jg	 SHORT $LN6@ProcState_@5

; 341  : 	{
; 342  : 		this->m_BattleOfGalia.SetState(7);

  00c4a	6a 07		 push	 7
  00c4c	8b 4d fc	 mov	 ecx, DWORD PTR _this$[ebp]
  00c4f	81 c1 48 b0 00
	00		 add	 ecx, 45128		; 0000b048H
  00c55	e8 00 00 00 00	 call	 ?SetState@CImperialBattleOfGalia@@QAEXH@Z ; CImperialBattleOfGalia::SetState

; 343  : 		#if(FIX_IMPERIAL)
; 344  : 		this->SetState(IMPERIAL_STATE_ENDED);

  00c5a	6a 09		 push	 9
  00c5c	8b 4d fc	 mov	 ecx, DWORD PTR _this$[ebp]
  00c5f	e8 00 00 00 00	 call	 ?SetState@CImperial@@QAEXH@Z ; CImperial::SetState

; 345  : 		#endif
; 346  : 		return;

  00c64	e9 b8 00 00 00	 jmp	 $LN7@ProcState_@5
$LN6@ProcState_@5:

; 347  : 	}	
; 348  : 	if ( this->m_BattleOfGalia.GetEventState() == 0 )

  00c69	8b 4d fc	 mov	 ecx, DWORD PTR _this$[ebp]
  00c6c	81 c1 48 b0 00
	00		 add	 ecx, 45128		; 0000b048H
  00c72	e8 00 00 00 00	 call	 ?GetEventState@CImperialBattleOfGalia@@QAEHXZ ; CImperialBattleOfGalia::GetEventState
  00c77	85 c0		 test	 eax, eax
  00c79	0f 85 82 00 00
	00		 jne	 $LN5@ProcState_@5

; 349  : 	{
; 350  : 		if(this->m_BattleOfGalia.GetSuccessValue() == true)

  00c7f	8b 4d fc	 mov	 ecx, DWORD PTR _this$[ebp]
  00c82	81 c1 48 b0 00
	00		 add	 ecx, 45128		; 0000b048H
  00c88	e8 00 00 00 00	 call	 ?GetSuccessValue@CImperialBattleOfGalia@@QAE_NXZ ; CImperialBattleOfGalia::GetSuccessValue
  00c8d	0f b6 c0	 movzx	 eax, al
  00c90	83 f8 01	 cmp	 eax, 1
  00c93	75 50		 jne	 SHORT $LN4@ProcState_@5

; 351  : 		{
; 352  : 			for(int i=0;i<g_ImperialBattleUserMng.GetUserCount();++i)

  00c95	c7 45 f8 00 00
	00 00		 mov	 DWORD PTR _i$230752[ebp], 0
  00c9c	eb 09		 jmp	 SHORT $LN3@ProcState_@5
$LN2@ProcState_@5:
  00c9e	8b 45 f8	 mov	 eax, DWORD PTR _i$230752[ebp]
  00ca1	83 c0 01	 add	 eax, 1
  00ca4	89 45 f8	 mov	 DWORD PTR _i$230752[ebp], eax
$LN3@ProcState_@5:
  00ca7	b9 00 00 00 00	 mov	 ecx, OFFSET ?g_ImperialBattleUserMng@@3VCImperialBattleUserMng@@A ; g_ImperialBattleUserMng
  00cac	e8 00 00 00 00	 call	 ?GetUserCount@CImperialBattleUserMng@@QAEHXZ ; CImperialBattleUserMng::GetUserCount
  00cb1	39 45 f8	 cmp	 DWORD PTR _i$230752[ebp], eax
  00cb4	7d 2f		 jge	 SHORT $LN4@ProcState_@5

; 353  : 			{
; 354  : 				this->GiveRewardExp(g_ImperialBattleUserMng.m_BattleUser[i].GetIndex(), g_ExpTable[this->m_ImperialData.Day].Experience);

  00cb6	8b 45 fc	 mov	 eax, DWORD PTR _this$[ebp]
  00cb9	8b 88 30 af 00
	00		 mov	 ecx, DWORD PTR [eax+44848]
  00cbf	c1 e1 04	 shl	 ecx, 4
  00cc2	8b 91 08 00 00
	00		 mov	 edx, DWORD PTR _g_ExpTable[ecx+8]
  00cc8	52		 push	 edx
  00cc9	8b 4d f8	 mov	 ecx, DWORD PTR _i$230752[ebp]
  00ccc	6b c9 0c	 imul	 ecx, 12			; 0000000cH
  00ccf	81 c1 04 00 00
	00		 add	 ecx, OFFSET ?g_ImperialBattleUserMng@@3VCImperialBattleUserMng@@A+4
  00cd5	e8 00 00 00 00	 call	 ?GetIndex@CImperialBattleUser@@QAEHXZ ; CImperialBattleUser::GetIndex
  00cda	50		 push	 eax
  00cdb	8b 4d fc	 mov	 ecx, DWORD PTR _this$[ebp]
  00cde	e8 00 00 00 00	 call	 ?GiveRewardExp@CImperial@@QAEHHH@Z ; CImperial::GiveRewardExp

; 355  : 			}

  00ce3	eb b9		 jmp	 SHORT $LN2@ProcState_@5
$LN4@ProcState_@5:

; 356  : 		}
; 357  : 		this->m_BattleOfGalia.SetState(0);

  00ce5	6a 00		 push	 0
  00ce7	8b 4d fc	 mov	 ecx, DWORD PTR _this$[ebp]
  00cea	81 c1 48 b0 00
	00		 add	 ecx, 45128		; 0000b048H
  00cf0	e8 00 00 00 00	 call	 ?SetState@CImperialBattleOfGalia@@QAEXH@Z ; CImperialBattleOfGalia::SetState

; 358  : 		this->SetState(IMPERIAL_STATE_ENDED);

  00cf5	6a 09		 push	 9
  00cf7	8b 4d fc	 mov	 ecx, DWORD PTR _this$[ebp]
  00cfa	e8 00 00 00 00	 call	 ?SetState@CImperial@@QAEXH@Z ; CImperial::SetState

; 359  : 		return;

  00cff	eb 20		 jmp	 SHORT $LN7@ProcState_@5
$LN5@ProcState_@5:

; 360  : 	}
; 361  : 	this->m_ImperialData.Time = this->m_BattleOfGalia.m_BattleData.Time;

  00d01	8b 45 fc	 mov	 eax, DWORD PTR _this$[ebp]
  00d04	8b 4d fc	 mov	 ecx, DWORD PTR _this$[ebp]
  00d07	8b 91 80 b0 00
	00		 mov	 edx, DWORD PTR [ecx+45184]
  00d0d	89 90 2c af 00
	00		 mov	 DWORD PTR [eax+44844], edx

; 362  : 	this->m_BattleOfGalia.Run();

  00d13	8b 4d fc	 mov	 ecx, DWORD PTR _this$[ebp]
  00d16	81 c1 48 b0 00
	00		 add	 ecx, 45128		; 0000b048H
  00d1c	e8 00 00 00 00	 call	 ?Run@CImperialBattleOfGalia@@QAEXXZ ; CImperialBattleOfGalia::Run
$LN7@ProcState_@5:

; 363  : }

  00d21	5f		 pop	 edi
  00d22	5e		 pop	 esi
  00d23	5b		 pop	 ebx
  00d24	8b e5		 mov	 esp, ebp
  00d26	5d		 pop	 ebp
  00d27	c3		 ret	 0
?ProcState_GALIA@CImperial@@QAEXXZ ENDP			; CImperial::ProcState_GALIA
; Function compile flags: /Odtp /ZI
; File d:\projects\exteam6.3\source\gameserver\gameserver\imperialbattleofgalia.h
_TEXT	ENDS
;	COMDAT ?GetSuccessValue@CImperialBattleOfGalia@@QAE_NXZ
_TEXT	SEGMENT
_this$ = -4						; size = 4
?GetSuccessValue@CImperialBattleOfGalia@@QAE_NXZ PROC	; CImperialBattleOfGalia::GetSuccessValue, COMDAT
; _this$ = ecx

; 80   : 	bool GetSuccessValue() { return this->SuccessValue; }

  00000	55		 push	 ebp
  00001	8b ec		 mov	 ebp, esp
  00003	83 ec 44	 sub	 esp, 68			; 00000044H
  00006	53		 push	 ebx
  00007	56		 push	 esi
  00008	57		 push	 edi
  00009	89 4d fc	 mov	 DWORD PTR _this$[ebp], ecx
  0000c	8b 45 fc	 mov	 eax, DWORD PTR _this$[ebp]
  0000f	8a 40 59	 mov	 al, BYTE PTR [eax+89]
  00012	5f		 pop	 edi
  00013	5e		 pop	 esi
  00014	5b		 pop	 ebx
  00015	8b e5		 mov	 esp, ebp
  00017	5d		 pop	 ebp
  00018	c3		 ret	 0
?GetSuccessValue@CImperialBattleOfGalia@@QAE_NXZ ENDP	; CImperialBattleOfGalia::GetSuccessValue
_TEXT	ENDS
PUBLIC	?GetSuccessValue@CImperialBattleOfErkanne@@QAE_NXZ ; CImperialBattleOfErkanne::GetSuccessValue
PUBLIC	??_C@_0CJ@OFPDEFOD@?$FL?5IMPERIAL?5FORT?5?$FN?5Quest?5Failed?5?9@ ; `string'
EXTRN	?Run@CImperialBattleOfErkanne@@QAEXXZ:PROC	; CImperialBattleOfErkanne::Run
EXTRN	?LogAddTD@@3P6AXPADZZA:DWORD			; LogAddTD
;	COMDAT ??_C@_0CJ@OFPDEFOD@?$FL?5IMPERIAL?5FORT?5?$FN?5Quest?5Failed?5?9@
; File d:\projects\exteam6.3\source\gameserver\gameserver\imperial.cpp
CONST	SEGMENT
??_C@_0CJ@OFPDEFOD@?$FL?5IMPERIAL?5FORT?5?$FN?5Quest?5Failed?5?9@ DB '[ I'
	DB	'MPERIAL FORT ] Quest Failed - No User', 00H	; `string'
; Function compile flags: /Odtp /ZI
CONST	ENDS
_TEXT	SEGMENT
_i$230763 = -8						; size = 4
_this$ = -4						; size = 4
?ProcState_ERKANNE@CImperial@@QAEXXZ PROC		; CImperial::ProcState_ERKANNE
; _this$ = ecx

; 366  : {

  00d30	55		 push	 ebp
  00d31	8b ec		 mov	 ebp, esp
  00d33	83 ec 48	 sub	 esp, 72			; 00000048H
  00d36	53		 push	 ebx
  00d37	56		 push	 esi
  00d38	57		 push	 edi
  00d39	89 4d fc	 mov	 DWORD PTR _this$[ebp], ecx

; 367  : 	if ( g_ImperialBattleUserMng.GetUserCount() <= 0 )

  00d3c	b9 00 00 00 00	 mov	 ecx, OFFSET ?g_ImperialBattleUserMng@@3VCImperialBattleUserMng@@A ; g_ImperialBattleUserMng
  00d41	e8 00 00 00 00	 call	 ?GetUserCount@CImperialBattleUserMng@@QAEHXZ ; CImperialBattleUserMng::GetUserCount
  00d46	85 c0		 test	 eax, eax
  00d48	7f 2d		 jg	 SHORT $LN6@ProcState_@6

; 368  : 	{
; 369  : 		LogAddTD("[ IMPERIAL FORT ] Quest Failed - No User");

  00d4a	68 00 00 00 00	 push	 OFFSET ??_C@_0CJ@OFPDEFOD@?$FL?5IMPERIAL?5FORT?5?$FN?5Quest?5Failed?5?9@
  00d4f	ff 15 00 00 00
	00		 call	 DWORD PTR ?LogAddTD@@3P6AXPADZZA ; LogAddTD
  00d55	83 c4 04	 add	 esp, 4

; 370  : 		this->m_BattleOfErkanne.SetState(7);

  00d58	6a 07		 push	 7
  00d5a	8b 4d fc	 mov	 ecx, DWORD PTR _this$[ebp]
  00d5d	81 c1 a4 b0 00
	00		 add	 ecx, 45220		; 0000b0a4H
  00d63	e8 00 00 00 00	 call	 ?SetState@CImperialBattleOfErkanne@@QAEXH@Z ; CImperialBattleOfErkanne::SetState

; 371  : 		#if(FIX_IMPERIAL)
; 372  : 		this->SetState(IMPERIAL_STATE_ENDED);

  00d68	6a 09		 push	 9
  00d6a	8b 4d fc	 mov	 ecx, DWORD PTR _this$[ebp]
  00d6d	e8 00 00 00 00	 call	 ?SetState@CImperial@@QAEXH@Z ; CImperial::SetState

; 373  : 		return;

  00d72	e9 b8 00 00 00	 jmp	 $LN7@ProcState_@6
$LN6@ProcState_@6:

; 374  : 		#endif
; 375  : 	}	
; 376  : 	if ( this->m_BattleOfErkanne.GetEventState() == 0 )

  00d77	8b 4d fc	 mov	 ecx, DWORD PTR _this$[ebp]
  00d7a	81 c1 a4 b0 00
	00		 add	 ecx, 45220		; 0000b0a4H
  00d80	e8 00 00 00 00	 call	 ?GetEventState@CImperialBattleOfErkanne@@QAEHXZ ; CImperialBattleOfErkanne::GetEventState
  00d85	85 c0		 test	 eax, eax
  00d87	0f 85 82 00 00
	00		 jne	 $LN5@ProcState_@6

; 377  : 	{
; 378  : 		if(this->m_BattleOfErkanne.GetSuccessValue() == true)

  00d8d	8b 4d fc	 mov	 ecx, DWORD PTR _this$[ebp]
  00d90	81 c1 a4 b0 00
	00		 add	 ecx, 45220		; 0000b0a4H
  00d96	e8 00 00 00 00	 call	 ?GetSuccessValue@CImperialBattleOfErkanne@@QAE_NXZ ; CImperialBattleOfErkanne::GetSuccessValue
  00d9b	0f b6 c0	 movzx	 eax, al
  00d9e	83 f8 01	 cmp	 eax, 1
  00da1	75 50		 jne	 SHORT $LN4@ProcState_@6

; 379  : 		{
; 380  : 			for(int i=0;i<g_ImperialBattleUserMng.GetUserCount();++i)

  00da3	c7 45 f8 00 00
	00 00		 mov	 DWORD PTR _i$230763[ebp], 0
  00daa	eb 09		 jmp	 SHORT $LN3@ProcState_@6
$LN2@ProcState_@6:
  00dac	8b 45 f8	 mov	 eax, DWORD PTR _i$230763[ebp]
  00daf	83 c0 01	 add	 eax, 1
  00db2	89 45 f8	 mov	 DWORD PTR _i$230763[ebp], eax
$LN3@ProcState_@6:
  00db5	b9 00 00 00 00	 mov	 ecx, OFFSET ?g_ImperialBattleUserMng@@3VCImperialBattleUserMng@@A ; g_ImperialBattleUserMng
  00dba	e8 00 00 00 00	 call	 ?GetUserCount@CImperialBattleUserMng@@QAEHXZ ; CImperialBattleUserMng::GetUserCount
  00dbf	39 45 f8	 cmp	 DWORD PTR _i$230763[ebp], eax
  00dc2	7d 2f		 jge	 SHORT $LN4@ProcState_@6

; 381  : 			{
; 382  : 				this->GiveRewardExp(g_ImperialBattleUserMng.m_BattleUser[i].GetIndex(), g_ExpTable[this->m_ImperialData.Day].Experience);

  00dc4	8b 45 fc	 mov	 eax, DWORD PTR _this$[ebp]
  00dc7	8b 88 30 af 00
	00		 mov	 ecx, DWORD PTR [eax+44848]
  00dcd	c1 e1 04	 shl	 ecx, 4
  00dd0	8b 91 08 00 00
	00		 mov	 edx, DWORD PTR _g_ExpTable[ecx+8]
  00dd6	52		 push	 edx
  00dd7	8b 4d f8	 mov	 ecx, DWORD PTR _i$230763[ebp]
  00dda	6b c9 0c	 imul	 ecx, 12			; 0000000cH
  00ddd	81 c1 04 00 00
	00		 add	 ecx, OFFSET ?g_ImperialBattleUserMng@@3VCImperialBattleUserMng@@A+4
  00de3	e8 00 00 00 00	 call	 ?GetIndex@CImperialBattleUser@@QAEHXZ ; CImperialBattleUser::GetIndex
  00de8	50		 push	 eax
  00de9	8b 4d fc	 mov	 ecx, DWORD PTR _this$[ebp]
  00dec	e8 00 00 00 00	 call	 ?GiveRewardExp@CImperial@@QAEHHH@Z ; CImperial::GiveRewardExp

; 383  : 			}

  00df1	eb b9		 jmp	 SHORT $LN2@ProcState_@6
$LN4@ProcState_@6:

; 384  : 		}
; 385  : 		this->m_BattleOfErkanne.SetState(0);

  00df3	6a 00		 push	 0
  00df5	8b 4d fc	 mov	 ecx, DWORD PTR _this$[ebp]
  00df8	81 c1 a4 b0 00
	00		 add	 ecx, 45220		; 0000b0a4H
  00dfe	e8 00 00 00 00	 call	 ?SetState@CImperialBattleOfErkanne@@QAEXH@Z ; CImperialBattleOfErkanne::SetState

; 386  : 		this->SetState(IMPERIAL_STATE_ENDED);

  00e03	6a 09		 push	 9
  00e05	8b 4d fc	 mov	 ecx, DWORD PTR _this$[ebp]
  00e08	e8 00 00 00 00	 call	 ?SetState@CImperial@@QAEXH@Z ; CImperial::SetState

; 387  : 		return;

  00e0d	eb 20		 jmp	 SHORT $LN7@ProcState_@6
$LN5@ProcState_@6:

; 388  : 	}
; 389  : 	this->m_ImperialData.Time = this->m_BattleOfErkanne.m_BattleData.Time;

  00e0f	8b 45 fc	 mov	 eax, DWORD PTR _this$[ebp]
  00e12	8b 4d fc	 mov	 ecx, DWORD PTR _this$[ebp]
  00e15	8b 91 dc b0 00
	00		 mov	 edx, DWORD PTR [ecx+45276]
  00e1b	89 90 2c af 00
	00		 mov	 DWORD PTR [eax+44844], edx

; 390  : 	this->m_BattleOfErkanne.Run();

  00e21	8b 4d fc	 mov	 ecx, DWORD PTR _this$[ebp]
  00e24	81 c1 a4 b0 00
	00		 add	 ecx, 45220		; 0000b0a4H
  00e2a	e8 00 00 00 00	 call	 ?Run@CImperialBattleOfErkanne@@QAEXXZ ; CImperialBattleOfErkanne::Run
$LN7@ProcState_@6:

; 391  : }

  00e2f	5f		 pop	 edi
  00e30	5e		 pop	 esi
  00e31	5b		 pop	 ebx
  00e32	8b e5		 mov	 esp, ebp
  00e34	5d		 pop	 ebp
  00e35	c3		 ret	 0
?ProcState_ERKANNE@CImperial@@QAEXXZ ENDP		; CImperial::ProcState_ERKANNE
; Function compile flags: /Odtp /ZI
; File d:\projects\exteam6.3\source\gameserver\gameserver\imperialbattleoferkanne.h
_TEXT	ENDS
;	COMDAT ?GetSuccessValue@CImperialBattleOfErkanne@@QAE_NXZ
_TEXT	SEGMENT
_this$ = -4						; size = 4
?GetSuccessValue@CImperialBattleOfErkanne@@QAE_NXZ PROC	; CImperialBattleOfErkanne::GetSuccessValue, COMDAT
; _this$ = ecx

; 80   : 	bool GetSuccessValue() { return this->SuccessValue; }

  00000	55		 push	 ebp
  00001	8b ec		 mov	 ebp, esp
  00003	83 ec 44	 sub	 esp, 68			; 00000044H
  00006	53		 push	 ebx
  00007	56		 push	 esi
  00008	57		 push	 edi
  00009	89 4d fc	 mov	 DWORD PTR _this$[ebp], ecx
  0000c	8b 45 fc	 mov	 eax, DWORD PTR _this$[ebp]
  0000f	8a 40 59	 mov	 al, BYTE PTR [eax+89]
  00012	5f		 pop	 edi
  00013	5e		 pop	 esi
  00014	5b		 pop	 ebx
  00015	8b e5		 mov	 esp, ebp
  00017	5d		 pop	 ebp
  00018	c3		 ret	 0
?GetSuccessValue@CImperialBattleOfErkanne@@QAE_NXZ ENDP	; CImperialBattleOfErkanne::GetSuccessValue
_TEXT	ENDS
PUBLIC	?GetSuccessValue@CImperialBattleOfRaymond@@QAE_NXZ ; CImperialBattleOfRaymond::GetSuccessValue
EXTRN	?Run@CImperialBattleOfRaymond@@QAEXXZ:PROC	; CImperialBattleOfRaymond::Run
; Function compile flags: /Odtp /ZI
; File d:\projects\exteam6.3\source\gameserver\gameserver\imperial.cpp
_TEXT	SEGMENT
_i$230773 = -8						; size = 4
_this$ = -4						; size = 4
?ProcState_RAYMOND@CImperial@@QAEXXZ PROC		; CImperial::ProcState_RAYMOND
; _this$ = ecx

; 394  : {

  00e40	55		 push	 ebp
  00e41	8b ec		 mov	 ebp, esp
  00e43	83 ec 48	 sub	 esp, 72			; 00000048H
  00e46	53		 push	 ebx
  00e47	56		 push	 esi
  00e48	57		 push	 edi
  00e49	89 4d fc	 mov	 DWORD PTR _this$[ebp], ecx

; 395  : 	if ( g_ImperialBattleUserMng.GetUserCount() <= 0 )

  00e4c	b9 00 00 00 00	 mov	 ecx, OFFSET ?g_ImperialBattleUserMng@@3VCImperialBattleUserMng@@A ; g_ImperialBattleUserMng
  00e51	e8 00 00 00 00	 call	 ?GetUserCount@CImperialBattleUserMng@@QAEHXZ ; CImperialBattleUserMng::GetUserCount
  00e56	85 c0		 test	 eax, eax
  00e58	7f 2d		 jg	 SHORT $LN6@ProcState_@7

; 396  : 	{
; 397  : 		LogAddTD("[ IMPERIAL FORT ] Quest Failed - No User");

  00e5a	68 00 00 00 00	 push	 OFFSET ??_C@_0CJ@OFPDEFOD@?$FL?5IMPERIAL?5FORT?5?$FN?5Quest?5Failed?5?9@
  00e5f	ff 15 00 00 00
	00		 call	 DWORD PTR ?LogAddTD@@3P6AXPADZZA ; LogAddTD
  00e65	83 c4 04	 add	 esp, 4

; 398  : 		this->m_BattleOfRaymond.SetState(7);

  00e68	6a 07		 push	 7
  00e6a	8b 4d fc	 mov	 ecx, DWORD PTR _this$[ebp]
  00e6d	81 c1 00 b1 00
	00		 add	 ecx, 45312		; 0000b100H
  00e73	e8 00 00 00 00	 call	 ?SetState@CImperialBattleOfRaymond@@QAEXH@Z ; CImperialBattleOfRaymond::SetState

; 399  : 		#if(FIX_IMPERIAL)
; 400  : 		this->SetState(IMPERIAL_STATE_ENDED);

  00e78	6a 09		 push	 9
  00e7a	8b 4d fc	 mov	 ecx, DWORD PTR _this$[ebp]
  00e7d	e8 00 00 00 00	 call	 ?SetState@CImperial@@QAEXH@Z ; CImperial::SetState

; 401  : 		return;

  00e82	e9 b8 00 00 00	 jmp	 $LN7@ProcState_@7
$LN6@ProcState_@7:

; 402  : 		#endif		
; 403  : 	}	
; 404  : 	if ( this->m_BattleOfRaymond.GetEventState() == 0 )

  00e87	8b 4d fc	 mov	 ecx, DWORD PTR _this$[ebp]
  00e8a	81 c1 00 b1 00
	00		 add	 ecx, 45312		; 0000b100H
  00e90	e8 00 00 00 00	 call	 ?GetEventState@CImperialBattleOfRaymond@@QAEHXZ ; CImperialBattleOfRaymond::GetEventState
  00e95	85 c0		 test	 eax, eax
  00e97	0f 85 82 00 00
	00		 jne	 $LN5@ProcState_@7

; 405  : 	{
; 406  : 		if(this->m_BattleOfRaymond.GetSuccessValue() == true)

  00e9d	8b 4d fc	 mov	 ecx, DWORD PTR _this$[ebp]
  00ea0	81 c1 00 b1 00
	00		 add	 ecx, 45312		; 0000b100H
  00ea6	e8 00 00 00 00	 call	 ?GetSuccessValue@CImperialBattleOfRaymond@@QAE_NXZ ; CImperialBattleOfRaymond::GetSuccessValue
  00eab	0f b6 c0	 movzx	 eax, al
  00eae	83 f8 01	 cmp	 eax, 1
  00eb1	75 50		 jne	 SHORT $LN4@ProcState_@7

; 407  : 		{
; 408  : 			for(int i=0;i<g_ImperialBattleUserMng.GetUserCount();++i)

  00eb3	c7 45 f8 00 00
	00 00		 mov	 DWORD PTR _i$230773[ebp], 0
  00eba	eb 09		 jmp	 SHORT $LN3@ProcState_@7
$LN2@ProcState_@7:
  00ebc	8b 45 f8	 mov	 eax, DWORD PTR _i$230773[ebp]
  00ebf	83 c0 01	 add	 eax, 1
  00ec2	89 45 f8	 mov	 DWORD PTR _i$230773[ebp], eax
$LN3@ProcState_@7:
  00ec5	b9 00 00 00 00	 mov	 ecx, OFFSET ?g_ImperialBattleUserMng@@3VCImperialBattleUserMng@@A ; g_ImperialBattleUserMng
  00eca	e8 00 00 00 00	 call	 ?GetUserCount@CImperialBattleUserMng@@QAEHXZ ; CImperialBattleUserMng::GetUserCount
  00ecf	39 45 f8	 cmp	 DWORD PTR _i$230773[ebp], eax
  00ed2	7d 2f		 jge	 SHORT $LN4@ProcState_@7

; 409  : 			{
; 410  : 				this->GiveRewardExp(g_ImperialBattleUserMng.m_BattleUser[i].GetIndex(), g_ExpTable[this->m_ImperialData.Day].Experience);

  00ed4	8b 45 fc	 mov	 eax, DWORD PTR _this$[ebp]
  00ed7	8b 88 30 af 00
	00		 mov	 ecx, DWORD PTR [eax+44848]
  00edd	c1 e1 04	 shl	 ecx, 4
  00ee0	8b 91 08 00 00
	00		 mov	 edx, DWORD PTR _g_ExpTable[ecx+8]
  00ee6	52		 push	 edx
  00ee7	8b 4d f8	 mov	 ecx, DWORD PTR _i$230773[ebp]
  00eea	6b c9 0c	 imul	 ecx, 12			; 0000000cH
  00eed	81 c1 04 00 00
	00		 add	 ecx, OFFSET ?g_ImperialBattleUserMng@@3VCImperialBattleUserMng@@A+4
  00ef3	e8 00 00 00 00	 call	 ?GetIndex@CImperialBattleUser@@QAEHXZ ; CImperialBattleUser::GetIndex
  00ef8	50		 push	 eax
  00ef9	8b 4d fc	 mov	 ecx, DWORD PTR _this$[ebp]
  00efc	e8 00 00 00 00	 call	 ?GiveRewardExp@CImperial@@QAEHHH@Z ; CImperial::GiveRewardExp

; 411  : 			}

  00f01	eb b9		 jmp	 SHORT $LN2@ProcState_@7
$LN4@ProcState_@7:

; 412  : 		}
; 413  : 		this->m_BattleOfRaymond.SetState(0);

  00f03	6a 00		 push	 0
  00f05	8b 4d fc	 mov	 ecx, DWORD PTR _this$[ebp]
  00f08	81 c1 00 b1 00
	00		 add	 ecx, 45312		; 0000b100H
  00f0e	e8 00 00 00 00	 call	 ?SetState@CImperialBattleOfRaymond@@QAEXH@Z ; CImperialBattleOfRaymond::SetState

; 414  : 		this->SetState(IMPERIAL_STATE_ENDED);

  00f13	6a 09		 push	 9
  00f15	8b 4d fc	 mov	 ecx, DWORD PTR _this$[ebp]
  00f18	e8 00 00 00 00	 call	 ?SetState@CImperial@@QAEXH@Z ; CImperial::SetState

; 415  : 		return;

  00f1d	eb 20		 jmp	 SHORT $LN7@ProcState_@7
$LN5@ProcState_@7:

; 416  : 	}
; 417  : 	this->m_ImperialData.Time = this->m_BattleOfRaymond.m_BattleData.Time;

  00f1f	8b 45 fc	 mov	 eax, DWORD PTR _this$[ebp]
  00f22	8b 4d fc	 mov	 ecx, DWORD PTR _this$[ebp]
  00f25	8b 91 2c b1 00
	00		 mov	 edx, DWORD PTR [ecx+45356]
  00f2b	89 90 2c af 00
	00		 mov	 DWORD PTR [eax+44844], edx

; 418  : 	this->m_BattleOfRaymond.Run();

  00f31	8b 4d fc	 mov	 ecx, DWORD PTR _this$[ebp]
  00f34	81 c1 00 b1 00
	00		 add	 ecx, 45312		; 0000b100H
  00f3a	e8 00 00 00 00	 call	 ?Run@CImperialBattleOfRaymond@@QAEXXZ ; CImperialBattleOfRaymond::Run
$LN7@ProcState_@7:

; 419  : }

  00f3f	5f		 pop	 edi
  00f40	5e		 pop	 esi
  00f41	5b		 pop	 ebx
  00f42	8b e5		 mov	 esp, ebp
  00f44	5d		 pop	 ebp
  00f45	c3		 ret	 0
?ProcState_RAYMOND@CImperial@@QAEXXZ ENDP		; CImperial::ProcState_RAYMOND
; Function compile flags: /Odtp /ZI
; File d:\projects\exteam6.3\source\gameserver\gameserver\imperialbattleofraymond.h
_TEXT	ENDS
;	COMDAT ?GetSuccessValue@CImperialBattleOfRaymond@@QAE_NXZ
_TEXT	SEGMENT
_this$ = -4						; size = 4
?GetSuccessValue@CImperialBattleOfRaymond@@QAE_NXZ PROC	; CImperialBattleOfRaymond::GetSuccessValue, COMDAT
; _this$ = ecx

; 76   : 	bool GetSuccessValue() { return this->SuccessValue; }

  00000	55		 push	 ebp
  00001	8b ec		 mov	 ebp, esp
  00003	83 ec 44	 sub	 esp, 68			; 00000044H
  00006	53		 push	 ebx
  00007	56		 push	 esi
  00008	57		 push	 edi
  00009	89 4d fc	 mov	 DWORD PTR _this$[ebp], ecx
  0000c	8b 45 fc	 mov	 eax, DWORD PTR _this$[ebp]
  0000f	8a 40 4d	 mov	 al, BYTE PTR [eax+77]
  00012	5f		 pop	 edi
  00013	5e		 pop	 esi
  00014	5b		 pop	 ebx
  00015	8b e5		 mov	 esp, ebp
  00017	5d		 pop	 ebp
  00018	c3		 ret	 0
?GetSuccessValue@CImperialBattleOfRaymond@@QAE_NXZ ENDP	; CImperialBattleOfRaymond::GetSuccessValue
_TEXT	ENDS
PUBLIC	?GetSuccessValue@CImperialBattleOfGaion@@QAE_NXZ ; CImperialBattleOfGaion::GetSuccessValue
EXTRN	?Run@CImperialBattleOfGaion@@QAEXXZ:PROC	; CImperialBattleOfGaion::Run
; Function compile flags: /Odtp /ZI
; File d:\projects\exteam6.3\source\gameserver\gameserver\imperial.cpp
_TEXT	SEGMENT
_i$230783 = -8						; size = 4
_this$ = -4						; size = 4
?ProcState_GAION@CImperial@@QAEXXZ PROC			; CImperial::ProcState_GAION
; _this$ = ecx

; 422  : {

  00f50	55		 push	 ebp
  00f51	8b ec		 mov	 ebp, esp
  00f53	83 ec 48	 sub	 esp, 72			; 00000048H
  00f56	53		 push	 ebx
  00f57	56		 push	 esi
  00f58	57		 push	 edi
  00f59	89 4d fc	 mov	 DWORD PTR _this$[ebp], ecx

; 423  : 	if ( g_ImperialBattleUserMng.GetUserCount() <= 0 )

  00f5c	b9 00 00 00 00	 mov	 ecx, OFFSET ?g_ImperialBattleUserMng@@3VCImperialBattleUserMng@@A ; g_ImperialBattleUserMng
  00f61	e8 00 00 00 00	 call	 ?GetUserCount@CImperialBattleUserMng@@QAEHXZ ; CImperialBattleUserMng::GetUserCount
  00f66	85 c0		 test	 eax, eax
  00f68	7f 2d		 jg	 SHORT $LN6@ProcState_@8

; 424  : 	{
; 425  : 		LogAddTD("[ IMPERIAL FORT ] Quest Failed - No User");

  00f6a	68 00 00 00 00	 push	 OFFSET ??_C@_0CJ@OFPDEFOD@?$FL?5IMPERIAL?5FORT?5?$FN?5Quest?5Failed?5?9@
  00f6f	ff 15 00 00 00
	00		 call	 DWORD PTR ?LogAddTD@@3P6AXPADZZA ; LogAddTD
  00f75	83 c4 04	 add	 esp, 4

; 426  : 		this->m_BattleOfGaion.SetState(9);

  00f78	6a 09		 push	 9
  00f7a	8b 4d fc	 mov	 ecx, DWORD PTR _this$[ebp]
  00f7d	81 c1 50 b1 00
	00		 add	 ecx, 45392		; 0000b150H
  00f83	e8 00 00 00 00	 call	 ?SetState@CImperialBattleOfGaion@@QAEXH@Z ; CImperialBattleOfGaion::SetState

; 427  : 		#if(FIX_IMPERIAL)
; 428  : 		this->SetState(IMPERIAL_STATE_ENDED);

  00f88	6a 09		 push	 9
  00f8a	8b 4d fc	 mov	 ecx, DWORD PTR _this$[ebp]
  00f8d	e8 00 00 00 00	 call	 ?SetState@CImperial@@QAEXH@Z ; CImperial::SetState

; 429  : 		return;

  00f92	e9 a4 00 00 00	 jmp	 $LN7@ProcState_@8
$LN6@ProcState_@8:

; 430  : 		#endif
; 431  : 	}	
; 432  : 	if ( this->m_BattleOfGaion.GetEventState() == 0 )

  00f97	8b 4d fc	 mov	 ecx, DWORD PTR _this$[ebp]
  00f9a	81 c1 50 b1 00
	00		 add	 ecx, 45392		; 0000b150H
  00fa0	e8 00 00 00 00	 call	 ?GetEventState@CImperialBattleOfGaion@@QAEHXZ ; CImperialBattleOfGaion::GetEventState
  00fa5	85 c0		 test	 eax, eax
  00fa7	75 72		 jne	 SHORT $LN5@ProcState_@8

; 433  : 	{
; 434  : 		if(this->m_BattleOfGaion.GetSuccessValue() == true)

  00fa9	8b 4d fc	 mov	 ecx, DWORD PTR _this$[ebp]
  00fac	81 c1 50 b1 00
	00		 add	 ecx, 45392		; 0000b150H
  00fb2	e8 00 00 00 00	 call	 ?GetSuccessValue@CImperialBattleOfGaion@@QAE_NXZ ; CImperialBattleOfGaion::GetSuccessValue
  00fb7	0f b6 c0	 movzx	 eax, al
  00fba	83 f8 01	 cmp	 eax, 1
  00fbd	75 50		 jne	 SHORT $LN4@ProcState_@8

; 435  : 		{
; 436  : 			for(int i=0;i<g_ImperialBattleUserMng.GetUserCount();++i)

  00fbf	c7 45 f8 00 00
	00 00		 mov	 DWORD PTR _i$230783[ebp], 0
  00fc6	eb 09		 jmp	 SHORT $LN3@ProcState_@8
$LN2@ProcState_@8:
  00fc8	8b 45 f8	 mov	 eax, DWORD PTR _i$230783[ebp]
  00fcb	83 c0 01	 add	 eax, 1
  00fce	89 45 f8	 mov	 DWORD PTR _i$230783[ebp], eax
$LN3@ProcState_@8:
  00fd1	b9 00 00 00 00	 mov	 ecx, OFFSET ?g_ImperialBattleUserMng@@3VCImperialBattleUserMng@@A ; g_ImperialBattleUserMng
  00fd6	e8 00 00 00 00	 call	 ?GetUserCount@CImperialBattleUserMng@@QAEHXZ ; CImperialBattleUserMng::GetUserCount
  00fdb	39 45 f8	 cmp	 DWORD PTR _i$230783[ebp], eax
  00fde	7d 2f		 jge	 SHORT $LN4@ProcState_@8

; 437  : 			{
; 438  : 				this->GiveRewardExp(g_ImperialBattleUserMng.m_BattleUser[i].GetIndex(), g_ExpTable[this->m_ImperialData.Day].Experience);

  00fe0	8b 45 fc	 mov	 eax, DWORD PTR _this$[ebp]
  00fe3	8b 88 30 af 00
	00		 mov	 ecx, DWORD PTR [eax+44848]
  00fe9	c1 e1 04	 shl	 ecx, 4
  00fec	8b 91 08 00 00
	00		 mov	 edx, DWORD PTR _g_ExpTable[ecx+8]
  00ff2	52		 push	 edx
  00ff3	8b 4d f8	 mov	 ecx, DWORD PTR _i$230783[ebp]
  00ff6	6b c9 0c	 imul	 ecx, 12			; 0000000cH
  00ff9	81 c1 04 00 00
	00		 add	 ecx, OFFSET ?g_ImperialBattleUserMng@@3VCImperialBattleUserMng@@A+4
  00fff	e8 00 00 00 00	 call	 ?GetIndex@CImperialBattleUser@@QAEHXZ ; CImperialBattleUser::GetIndex
  01004	50		 push	 eax
  01005	8b 4d fc	 mov	 ecx, DWORD PTR _this$[ebp]
  01008	e8 00 00 00 00	 call	 ?GiveRewardExp@CImperial@@QAEHHH@Z ; CImperial::GiveRewardExp

; 439  : 			}

  0100d	eb b9		 jmp	 SHORT $LN2@ProcState_@8
$LN4@ProcState_@8:

; 440  : 		}
; 441  : 		this->SetState(IMPERIAL_STATE_ENDED);

  0100f	6a 09		 push	 9
  01011	8b 4d fc	 mov	 ecx, DWORD PTR _this$[ebp]
  01014	e8 00 00 00 00	 call	 ?SetState@CImperial@@QAEXH@Z ; CImperial::SetState

; 442  : 		return;

  01019	eb 20		 jmp	 SHORT $LN7@ProcState_@8
$LN5@ProcState_@8:

; 443  : 	}
; 444  : 	this->m_ImperialData.Time = this->m_BattleOfGaion.m_BattleData.Time;

  0101b	8b 45 fc	 mov	 eax, DWORD PTR _this$[ebp]
  0101e	8b 4d fc	 mov	 ecx, DWORD PTR _this$[ebp]
  01021	8b 91 80 b1 00
	00		 mov	 edx, DWORD PTR [ecx+45440]
  01027	89 90 2c af 00
	00		 mov	 DWORD PTR [eax+44844], edx

; 445  : 	this->m_BattleOfGaion.Run();

  0102d	8b 4d fc	 mov	 ecx, DWORD PTR _this$[ebp]
  01030	81 c1 50 b1 00
	00		 add	 ecx, 45392		; 0000b150H
  01036	e8 00 00 00 00	 call	 ?Run@CImperialBattleOfGaion@@QAEXXZ ; CImperialBattleOfGaion::Run
$LN7@ProcState_@8:

; 446  : }

  0103b	5f		 pop	 edi
  0103c	5e		 pop	 esi
  0103d	5b		 pop	 ebx
  0103e	8b e5		 mov	 esp, ebp
  01040	5d		 pop	 ebp
  01041	c3		 ret	 0
?ProcState_GAION@CImperial@@QAEXXZ ENDP			; CImperial::ProcState_GAION
; Function compile flags: /Odtp /ZI
; File d:\projects\exteam6.3\source\gameserver\gameserver\imperialbattleofgaion.h
_TEXT	ENDS
;	COMDAT ?GetSuccessValue@CImperialBattleOfGaion@@QAE_NXZ
_TEXT	SEGMENT
_this$ = -4						; size = 4
?GetSuccessValue@CImperialBattleOfGaion@@QAE_NXZ PROC	; CImperialBattleOfGaion::GetSuccessValue, COMDAT
; _this$ = ecx

; 82   : 	bool GetSuccessValue() { return this->SuccessValue; }

  00000	55		 push	 ebp
  00001	8b ec		 mov	 ebp, esp
  00003	83 ec 44	 sub	 esp, 68			; 00000044H
  00006	53		 push	 ebx
  00007	56		 push	 esi
  00008	57		 push	 edi
  00009	89 4d fc	 mov	 DWORD PTR _this$[ebp], ecx
  0000c	8b 45 fc	 mov	 eax, DWORD PTR _this$[ebp]
  0000f	8a 40 51	 mov	 al, BYTE PTR [eax+81]
  00012	5f		 pop	 edi
  00013	5e		 pop	 esi
  00014	5b		 pop	 ebx
  00015	8b e5		 mov	 esp, ebp
  00017	5d		 pop	 ebp
  00018	c3		 ret	 0
?GetSuccessValue@CImperialBattleOfGaion@@QAE_NXZ ENDP	; CImperialBattleOfGaion::GetSuccessValue
; Function compile flags: /Odtp /ZI
; File d:\projects\exteam6.3\source\gameserver\gameserver\imperial.cpp
_TEXT	ENDS
_TEXT	SEGMENT
_Tick$ = -8						; size = 4
_this$ = -4						; size = 4
?ProcState_ENDED@CImperial@@QAEXXZ PROC			; CImperial::ProcState_ENDED
; _this$ = ecx

; 449  : {

  01050	55		 push	 ebp
  01051	8b ec		 mov	 ebp, esp
  01053	83 ec 48	 sub	 esp, 72			; 00000048H
  01056	53		 push	 ebx
  01057	56		 push	 esi
  01058	57		 push	 edi
  01059	89 4d fc	 mov	 DWORD PTR _this$[ebp], ecx

; 450  : 	int Tick = GetTickCount() - this->m_ImperialData.Tick;

  0105c	ff 15 00 00 00
	00		 call	 DWORD PTR __imp__GetTickCount@0
  01062	8b 4d fc	 mov	 ecx, DWORD PTR _this$[ebp]
  01065	2b 81 28 af 00
	00		 sub	 eax, DWORD PTR [ecx+44840]
  0106b	89 45 f8	 mov	 DWORD PTR _Tick$[ebp], eax

; 451  : 	if(Tick >= 1000)

  0106e	81 7d f8 e8 03
	00 00		 cmp	 DWORD PTR _Tick$[ebp], 1000 ; 000003e8H
  01075	7c 3a		 jl	 SHORT $LN3@ProcState_@9

; 452  : 	{
; 453  : 		this->m_ImperialData.Time -= Tick;

  01077	8b 45 fc	 mov	 eax, DWORD PTR _this$[ebp]
  0107a	8b 88 2c af 00
	00		 mov	 ecx, DWORD PTR [eax+44844]
  01080	2b 4d f8	 sub	 ecx, DWORD PTR _Tick$[ebp]
  01083	8b 55 fc	 mov	 edx, DWORD PTR _this$[ebp]
  01086	89 8a 2c af 00
	00		 mov	 DWORD PTR [edx+44844], ecx

; 454  : 		this->m_ImperialData.Tick = GetTickCount();

  0108c	ff 15 00 00 00
	00		 call	 DWORD PTR __imp__GetTickCount@0
  01092	8b 4d fc	 mov	 ecx, DWORD PTR _this$[ebp]
  01095	89 81 28 af 00
	00		 mov	 DWORD PTR [ecx+44840], eax

; 455  : 
; 456  : 		if(this->m_ImperialData.Time <= 0)

  0109b	8b 45 fc	 mov	 eax, DWORD PTR _this$[ebp]
  0109e	83 b8 2c af 00
	00 00		 cmp	 DWORD PTR [eax+44844], 0
  010a5	7f 0a		 jg	 SHORT $LN3@ProcState_@9

; 457  : 		{
; 458  : 			this->SetState(IMPERIAL_STATE_OPEN);

  010a7	6a 01		 push	 1
  010a9	8b 4d fc	 mov	 ecx, DWORD PTR _this$[ebp]
  010ac	e8 00 00 00 00	 call	 ?SetState@CImperial@@QAEXH@Z ; CImperial::SetState
$LN3@ProcState_@9:

; 459  : 		}
; 460  : 	}
; 461  : }

  010b1	5f		 pop	 edi
  010b2	5e		 pop	 esi
  010b3	5b		 pop	 ebx
  010b4	8b e5		 mov	 esp, ebp
  010b6	5d		 pop	 ebp
  010b7	c3		 ret	 0
?ProcState_ENDED@CImperial@@QAEXXZ ENDP			; CImperial::ProcState_ENDED
_TEXT	ENDS
PUBLIC	??_C@_0EL@DDPCOPEA@?$FLImperial?$FN?5?$CI?$CFs?$CJ?$CI?$CFs?$CJ?5Entered?5to?5I@ ; `string'
PUBLIC	?GetSpecificState@CImperial@@QAEHXZ		; CImperial::GetSpecificState
PUBLIC	__$ArrayPad$
PUBLIC	?EnterEvent@CImperial@@QAE_NF@Z			; CImperial::EnterEvent
EXTRN	?GCInventoryItemDeleteSend@@YAXHEE@Z:PROC	; GCInventoryItemDeleteSend
EXTRN	?gObjInventoryDeleteItem@@YAEHH@Z:PROC		; gObjInventoryDeleteItem
EXTRN	?AddUserData@CImperialBattleUserMng@@QAEHH@Z:PROC ; CImperialBattleUserMng::AddUserData
EXTRN	?DataSend@@YAHHPAEK@Z:PROC			; DataSend
EXTRN	?gObjIsConnectedGP@@YAHH@Z:PROC			; gObjIsConnectedGP
EXTRN	_rand:PROC
EXTRN	?PHeadSubSetB@@YAXPAEEEH@Z:PROC			; PHeadSubSetB
;	COMDAT ??_C@_0EL@DDPCOPEA@?$FLImperial?$FN?5?$CI?$CFs?$CJ?$CI?$CFs?$CJ?5Entered?5to?5I@
CONST	SEGMENT
??_C@_0EL@DDPCOPEA@?$FLImperial?$FN?5?$CI?$CFs?$CJ?$CI?$CFs?$CJ?5Entered?5to?5I@ DB '['
	DB	'Imperial] (%s)(%s) Entered to Imperial Fort Event | Day: %d |'
	DB	' PartyID: %d', 00H				; `string'
; Function compile flags: /Odtp /ZI
CONST	ENDS
_TEXT	SEGMENT
_i$230813 = -36						; size = 2
_i$230805 = -32						; size = 2
_invitationpos$ = -28					; size = 4
_Day$ = -24						; size = 4
_pMsg$ = -20						; size = 12
_this$ = -8						; size = 4
__$ArrayPad$ = -4					; size = 4
_aIndex$ = 8						; size = 2
?EnterEvent@CImperial@@QAE_NF@Z PROC			; CImperial::EnterEvent
; _this$ = ecx

; 464  : {

  010c0	55		 push	 ebp
  010c1	8b ec		 mov	 ebp, esp
  010c3	83 ec 64	 sub	 esp, 100		; 00000064H
  010c6	a1 00 00 00 00	 mov	 eax, DWORD PTR ___security_cookie
  010cb	33 c5		 xor	 eax, ebp
  010cd	89 45 fc	 mov	 DWORD PTR __$ArrayPad$[ebp], eax
  010d0	53		 push	 ebx
  010d1	56		 push	 esi
  010d2	57		 push	 edi
  010d3	89 4d f8	 mov	 DWORD PTR _this$[ebp], ecx

; 465  : 	PMSG_FORT_ENTER_RESULT pMsg;
; 466  : 	PHeadSubSetB((LPBYTE)&pMsg, 0xF7, 0x02, sizeof(pMsg));

  010d6	6a 0c		 push	 12			; 0000000cH
  010d8	6a 02		 push	 2
  010da	68 f7 00 00 00	 push	 247			; 000000f7H
  010df	8d 45 ec	 lea	 eax, DWORD PTR _pMsg$[ebp]
  010e2	50		 push	 eax
  010e3	e8 00 00 00 00	 call	 ?PHeadSubSetB@@YAXPAEEEH@Z ; PHeadSubSetB
  010e8	83 c4 10	 add	 esp, 16			; 00000010H

; 467  : 
; 468  : 	int Day = this->GetCurrentDay();

  010eb	8b 4d f8	 mov	 ecx, DWORD PTR _this$[ebp]
  010ee	e8 00 00 00 00	 call	 ?GetCurrentDay@CImperial@@QAEHXZ ; CImperial::GetCurrentDay
  010f3	89 45 e8	 mov	 DWORD PTR _Day$[ebp], eax

; 469  : 	int invitationpos = -1;

  010f6	c7 45 e4 ff ff
	ff ff		 mov	 DWORD PTR _invitationpos$[ebp], -1

; 470  : 	pMsg.Index = aIndex;

  010fd	66 8b 45 08	 mov	 ax, WORD PTR _aIndex$[ebp]
  01101	66 89 45 f4	 mov	 WORD PTR _pMsg$[ebp+8], ax

; 471  : 	pMsg.Day = Day;

  01105	8a 45 e8	 mov	 al, BYTE PTR _Day$[ebp]
  01108	88 45 f1	 mov	 BYTE PTR _pMsg$[ebp+5], al

; 472  : 	pMsg.State = 1;

  0110b	c6 45 f2 01	 mov	 BYTE PTR _pMsg$[ebp+6], 1

; 473  : 	pMsg.Unk = rand()%4; // weather

  0110f	e8 00 00 00 00	 call	 _rand
  01114	25 03 00 00 80	 and	 eax, -2147483645	; 80000003H
  01119	79 05		 jns	 SHORT $LN22@EnterEvent
  0111b	48		 dec	 eax
  0111c	83 c8 fc	 or	 eax, -4			; fffffffcH
  0111f	40		 inc	 eax
$LN22@EnterEvent:
  01120	88 45 f3	 mov	 BYTE PTR _pMsg$[ebp+7], al

; 474  : 	if(!gObjIsConnectedGP(aIndex))

  01123	0f bf 45 08	 movsx	 eax, WORD PTR _aIndex$[ebp]
  01127	50		 push	 eax
  01128	e8 00 00 00 00	 call	 ?gObjIsConnectedGP@@YAHH@Z ; gObjIsConnectedGP
  0112d	83 c4 04	 add	 esp, 4
  01130	85 c0		 test	 eax, eax
  01132	75 07		 jne	 SHORT $LN19@EnterEvent

; 475  : 	{
; 476  : 		return false;

  01134	32 c0		 xor	 al, al
  01136	e9 5a 03 00 00	 jmp	 $LN20@EnterEvent
$LN19@EnterEvent:

; 477  : 	}
; 478  : 
; 479  : 	if(gObj[aIndex].PartyNumber == -1)

  0113b	0f bf 45 08	 movsx	 eax, WORD PTR _aIndex$[ebp]
  0113f	69 c0 38 2b 00
	00		 imul	 eax, 11064		; 00002b38H
  01145	8b 0d 00 00 00
	00		 mov	 ecx, DWORD PTR ?gObj@@3PAUOBJECTSTRUCT@@A ; gObj
  0114b	83 bc 01 2c 04
	00 00 ff	 cmp	 DWORD PTR [ecx+eax+1068], -1
  01153	75 21		 jne	 SHORT $LN18@EnterEvent

; 480  : 	{
; 481  : 		pMsg.Result = 6;

  01155	c6 45 f0 06	 mov	 BYTE PTR _pMsg$[ebp+4], 6

; 482  : 		DataSend(aIndex, (LPBYTE)&pMsg, pMsg.h.size);

  01159	0f b6 45 ed	 movzx	 eax, BYTE PTR _pMsg$[ebp+1]
  0115d	50		 push	 eax
  0115e	8d 4d ec	 lea	 ecx, DWORD PTR _pMsg$[ebp]
  01161	51		 push	 ecx
  01162	0f bf 55 08	 movsx	 edx, WORD PTR _aIndex$[ebp]
  01166	52		 push	 edx
  01167	e8 00 00 00 00	 call	 ?DataSend@@YAHHPAEK@Z	; DataSend
  0116c	83 c4 0c	 add	 esp, 12			; 0000000cH

; 483  : 		return false;

  0116f	32 c0		 xor	 al, al
  01171	e9 1f 03 00 00	 jmp	 $LN20@EnterEvent
$LN18@EnterEvent:

; 484  : 	}
; 485  : 
; 486  : 	if(Day == 7)

  01176	83 7d e8 07	 cmp	 DWORD PTR _Day$[ebp], 7
  0117a	0f 85 af 00 00
	00		 jne	 $LN17@EnterEvent

; 487  : 	{
; 488  : 		for(short i = 12 ; i < 76; ++i)

  01180	b8 0c 00 00 00	 mov	 eax, 12			; 0000000cH
  01185	66 89 45 e0	 mov	 WORD PTR _i$230805[ebp], ax
  01189	eb 0c		 jmp	 SHORT $LN16@EnterEvent
$LN15@EnterEvent:
  0118b	66 8b 45 e0	 mov	 ax, WORD PTR _i$230805[ebp]
  0118f	66 83 c0 01	 add	 ax, 1
  01193	66 89 45 e0	 mov	 WORD PTR _i$230805[ebp], ax
$LN16@EnterEvent:
  01197	0f bf 45 e0	 movsx	 eax, WORD PTR _i$230805[ebp]
  0119b	83 f8 4c	 cmp	 eax, 76			; 0000004cH
  0119e	7d 63		 jge	 SHORT $LN14@EnterEvent

; 489  : 		{
; 490  : 			if(gObj[aIndex].pInventory[i].m_Type > 0 && gObj[aIndex].pInventory[i].m_Type == ITEMGET(14,109))

  011a0	0f bf 45 08	 movsx	 eax, WORD PTR _aIndex$[ebp]
  011a4	69 c0 38 2b 00
	00		 imul	 eax, 11064		; 00002b38H
  011aa	0f bf 4d e0	 movsx	 ecx, WORD PTR _i$230805[ebp]
  011ae	69 c9 d4 00 00
	00		 imul	 ecx, 212		; 000000d4H
  011b4	8b 15 00 00 00
	00		 mov	 edx, DWORD PTR ?gObj@@3PAUOBJECTSTRUCT@@A ; gObj
  011ba	8b 84 02 24 0e
	00 00		 mov	 eax, DWORD PTR [edx+eax+3620]
  011c1	0f bf 4c 08 06	 movsx	 ecx, WORD PTR [eax+ecx+6]
  011c6	85 c9		 test	 ecx, ecx
  011c8	7e 37		 jle	 SHORT $LN13@EnterEvent
  011ca	0f bf 45 08	 movsx	 eax, WORD PTR _aIndex$[ebp]
  011ce	69 c0 38 2b 00
	00		 imul	 eax, 11064		; 00002b38H
  011d4	0f bf 4d e0	 movsx	 ecx, WORD PTR _i$230805[ebp]
  011d8	69 c9 d4 00 00
	00		 imul	 ecx, 212		; 000000d4H
  011de	8b 15 00 00 00
	00		 mov	 edx, DWORD PTR ?gObj@@3PAUOBJECTSTRUCT@@A ; gObj
  011e4	8b 84 02 24 0e
	00 00		 mov	 eax, DWORD PTR [edx+eax+3620]
  011eb	0f bf 4c 08 06	 movsx	 ecx, WORD PTR [eax+ecx+6]
  011f0	81 f9 6d 1c 00
	00		 cmp	 ecx, 7277		; 00001c6dH
  011f6	75 09		 jne	 SHORT $LN13@EnterEvent

; 491  : 			{
; 492  : 				invitationpos = i;

  011f8	0f bf 45 e0	 movsx	 eax, WORD PTR _i$230805[ebp]
  011fc	89 45 e4	 mov	 DWORD PTR _invitationpos$[ebp], eax

; 493  : 				break;

  011ff	eb 02		 jmp	 SHORT $LN14@EnterEvent
$LN13@EnterEvent:

; 494  : 			}
; 495  : 		}

  01201	eb 88		 jmp	 SHORT $LN15@EnterEvent
$LN14@EnterEvent:

; 496  : 		if(invitationpos == -1)

  01203	83 7d e4 ff	 cmp	 DWORD PTR _invitationpos$[ebp], -1
  01207	75 21		 jne	 SHORT $LN12@EnterEvent

; 497  : 		{
; 498  : 			pMsg.Result = 2;

  01209	c6 45 f0 02	 mov	 BYTE PTR _pMsg$[ebp+4], 2

; 499  : 			DataSend(aIndex, (LPBYTE)&pMsg, pMsg.h.size);

  0120d	0f b6 45 ed	 movzx	 eax, BYTE PTR _pMsg$[ebp+1]
  01211	50		 push	 eax
  01212	8d 4d ec	 lea	 ecx, DWORD PTR _pMsg$[ebp]
  01215	51		 push	 ecx
  01216	0f bf 55 08	 movsx	 edx, WORD PTR _aIndex$[ebp]
  0121a	52		 push	 edx
  0121b	e8 00 00 00 00	 call	 ?DataSend@@YAHHPAEK@Z	; DataSend
  01220	83 c4 0c	 add	 esp, 12			; 0000000cH

; 500  : 			return false;

  01223	32 c0		 xor	 al, al
  01225	e9 6b 02 00 00	 jmp	 $LN20@EnterEvent
$LN12@EnterEvent:

; 501  : 		}
; 502  : 	}
; 503  : 	else

  0122a	e9 aa 00 00 00	 jmp	 $LN11@EnterEvent
$LN17@EnterEvent:

; 504  : 	{
; 505  : 		for(short i = 12 ; i < 76; ++i)

  0122f	b8 0c 00 00 00	 mov	 eax, 12			; 0000000cH
  01234	66 89 45 dc	 mov	 WORD PTR _i$230813[ebp], ax
  01238	eb 0c		 jmp	 SHORT $LN10@EnterEvent
$LN9@EnterEvent:
  0123a	66 8b 45 dc	 mov	 ax, WORD PTR _i$230813[ebp]
  0123e	66 83 c0 01	 add	 ax, 1
  01242	66 89 45 dc	 mov	 WORD PTR _i$230813[ebp], ax
$LN10@EnterEvent:
  01246	0f bf 45 dc	 movsx	 eax, WORD PTR _i$230813[ebp]
  0124a	83 f8 4c	 cmp	 eax, 76			; 0000004cH
  0124d	7d 63		 jge	 SHORT $LN8@EnterEvent

; 506  : 		{
; 507  : 			if(gObj[aIndex].pInventory[i].m_Type > 0 && gObj[aIndex].pInventory[i].m_Type == ITEMGET(14,102))

  0124f	0f bf 45 08	 movsx	 eax, WORD PTR _aIndex$[ebp]
  01253	69 c0 38 2b 00
	00		 imul	 eax, 11064		; 00002b38H
  01259	0f bf 4d dc	 movsx	 ecx, WORD PTR _i$230813[ebp]
  0125d	69 c9 d4 00 00
	00		 imul	 ecx, 212		; 000000d4H
  01263	8b 15 00 00 00
	00		 mov	 edx, DWORD PTR ?gObj@@3PAUOBJECTSTRUCT@@A ; gObj
  01269	8b 84 02 24 0e
	00 00		 mov	 eax, DWORD PTR [edx+eax+3620]
  01270	0f bf 4c 08 06	 movsx	 ecx, WORD PTR [eax+ecx+6]
  01275	85 c9		 test	 ecx, ecx
  01277	7e 37		 jle	 SHORT $LN7@EnterEvent
  01279	0f bf 45 08	 movsx	 eax, WORD PTR _aIndex$[ebp]
  0127d	69 c0 38 2b 00
	00		 imul	 eax, 11064		; 00002b38H
  01283	0f bf 4d dc	 movsx	 ecx, WORD PTR _i$230813[ebp]
  01287	69 c9 d4 00 00
	00		 imul	 ecx, 212		; 000000d4H
  0128d	8b 15 00 00 00
	00		 mov	 edx, DWORD PTR ?gObj@@3PAUOBJECTSTRUCT@@A ; gObj
  01293	8b 84 02 24 0e
	00 00		 mov	 eax, DWORD PTR [edx+eax+3620]
  0129a	0f bf 4c 08 06	 movsx	 ecx, WORD PTR [eax+ecx+6]
  0129f	81 f9 66 1c 00
	00		 cmp	 ecx, 7270		; 00001c66H
  012a5	75 09		 jne	 SHORT $LN7@EnterEvent

; 508  : 			{
; 509  : 				invitationpos = i;

  012a7	0f bf 45 dc	 movsx	 eax, WORD PTR _i$230813[ebp]
  012ab	89 45 e4	 mov	 DWORD PTR _invitationpos$[ebp], eax

; 510  : 				break;

  012ae	eb 02		 jmp	 SHORT $LN8@EnterEvent
$LN7@EnterEvent:

; 511  : 			}
; 512  : 		}

  012b0	eb 88		 jmp	 SHORT $LN9@EnterEvent
$LN8@EnterEvent:

; 513  : 		if(invitationpos == -1)

  012b2	83 7d e4 ff	 cmp	 DWORD PTR _invitationpos$[ebp], -1
  012b6	75 21		 jne	 SHORT $LN11@EnterEvent

; 514  : 		{
; 515  : 			pMsg.Result = 2;

  012b8	c6 45 f0 02	 mov	 BYTE PTR _pMsg$[ebp+4], 2

; 516  : 			DataSend(aIndex, (LPBYTE)&pMsg, pMsg.h.size);

  012bc	0f b6 45 ed	 movzx	 eax, BYTE PTR _pMsg$[ebp+1]
  012c0	50		 push	 eax
  012c1	8d 4d ec	 lea	 ecx, DWORD PTR _pMsg$[ebp]
  012c4	51		 push	 ecx
  012c5	0f bf 55 08	 movsx	 edx, WORD PTR _aIndex$[ebp]
  012c9	52		 push	 edx
  012ca	e8 00 00 00 00	 call	 ?DataSend@@YAHHPAEK@Z	; DataSend
  012cf	83 c4 0c	 add	 esp, 12			; 0000000cH

; 517  : 			return false;

  012d2	32 c0		 xor	 al, al
  012d4	e9 bc 01 00 00	 jmp	 $LN20@EnterEvent
$LN11@EnterEvent:

; 518  : 		}
; 519  : 	}
; 520  : 
; 521  : #if(FIX_IMPERIAL)
; 522  : 
; 523  : 	/*
; 524  : 	3 -  
; 525  : 	4 -     
; 526  : 	5 - D       
; 527  : 	*/
; 528  : 
; 529  : 	if(this->m_ImperialData.PartyID >= 0)

  012d9	8b 45 f8	 mov	 eax, DWORD PTR _this$[ebp]
  012dc	0f bf 88 20 af
	00 00		 movsx	 ecx, WORD PTR [eax+44832]
  012e3	85 c9		 test	 ecx, ecx
  012e5	7c 44		 jl	 SHORT $LN5@EnterEvent

; 530  : 	{
; 531  : 		if(gObj[aIndex].PartyNumber != this->m_ImperialData.PartyID)

  012e7	0f bf 45 08	 movsx	 eax, WORD PTR _aIndex$[ebp]
  012eb	69 c0 38 2b 00
	00		 imul	 eax, 11064		; 00002b38H
  012f1	8b 4d f8	 mov	 ecx, DWORD PTR _this$[ebp]
  012f4	0f bf 91 20 af
	00 00		 movsx	 edx, WORD PTR [ecx+44832]
  012fb	8b 0d 00 00 00
	00		 mov	 ecx, DWORD PTR ?gObj@@3PAUOBJECTSTRUCT@@A ; gObj
  01301	39 94 01 2c 04
	00 00		 cmp	 DWORD PTR [ecx+eax+1068], edx
  01308	74 21		 je	 SHORT $LN5@EnterEvent

; 532  : 		{
; 533  : 			pMsg.Result = 5;

  0130a	c6 45 f0 05	 mov	 BYTE PTR _pMsg$[ebp+4], 5

; 534  : 			DataSend(aIndex, (LPBYTE)&pMsg, pMsg.h.size);

  0130e	0f b6 45 ed	 movzx	 eax, BYTE PTR _pMsg$[ebp+1]
  01312	50		 push	 eax
  01313	8d 4d ec	 lea	 ecx, DWORD PTR _pMsg$[ebp]
  01316	51		 push	 ecx
  01317	0f bf 55 08	 movsx	 edx, WORD PTR _aIndex$[ebp]
  0131b	52		 push	 edx
  0131c	e8 00 00 00 00	 call	 ?DataSend@@YAHHPAEK@Z	; DataSend
  01321	83 c4 0c	 add	 esp, 12			; 0000000cH

; 535  : 			return false;

  01324	32 c0		 xor	 al, al
  01326	e9 6a 01 00 00	 jmp	 $LN20@EnterEvent
$LN5@EnterEvent:

; 536  : 		}
; 537  : 	}
; 538  : 
; 539  : 	if(this->m_ImperialData.iState != IMPERIAL_STATE_OPEN)

  0132b	8b 45 f8	 mov	 eax, DWORD PTR _this$[ebp]
  0132e	83 b8 24 af 00
	00 01		 cmp	 DWORD PTR [eax+44836], 1
  01335	74 4e		 je	 SHORT $LN3@EnterEvent

; 540  : 	{
; 541  : 		if(this->GetSpecificState() != 1)

  01337	8b 4d f8	 mov	 ecx, DWORD PTR _this$[ebp]
  0133a	e8 00 00 00 00	 call	 ?GetSpecificState@CImperial@@QAEHXZ ; CImperial::GetSpecificState
  0133f	83 f8 01	 cmp	 eax, 1
  01342	74 41		 je	 SHORT $LN3@EnterEvent

; 542  : 		{
; 543  : 			pMsg.Result = 1;

  01344	c6 45 f0 01	 mov	 BYTE PTR _pMsg$[ebp+4], 1

; 544  : 			pMsg.EntryTime = ((this->m_ImperialData.Time / 60) / 1000) + 1;

  01348	8b 45 f8	 mov	 eax, DWORD PTR _this$[ebp]
  0134b	8b 80 2c af 00
	00		 mov	 eax, DWORD PTR [eax+44844]
  01351	99		 cdq
  01352	b9 3c 00 00 00	 mov	 ecx, 60			; 0000003cH
  01357	f7 f9		 idiv	 ecx
  01359	99		 cdq
  0135a	b9 e8 03 00 00	 mov	 ecx, 1000		; 000003e8H
  0135f	f7 f9		 idiv	 ecx
  01361	83 c0 01	 add	 eax, 1
  01364	66 89 45 f6	 mov	 WORD PTR _pMsg$[ebp+10], ax

; 545  : 			DataSend(aIndex, (LPBYTE)&pMsg, pMsg.h.size);

  01368	0f b6 45 ed	 movzx	 eax, BYTE PTR _pMsg$[ebp+1]
  0136c	50		 push	 eax
  0136d	8d 4d ec	 lea	 ecx, DWORD PTR _pMsg$[ebp]
  01370	51		 push	 ecx
  01371	0f bf 55 08	 movsx	 edx, WORD PTR _aIndex$[ebp]
  01375	52		 push	 edx
  01376	e8 00 00 00 00	 call	 ?DataSend@@YAHHPAEK@Z	; DataSend
  0137b	83 c4 0c	 add	 esp, 12			; 0000000cH

; 546  : 			return false;

  0137e	32 c0		 xor	 al, al
  01380	e9 10 01 00 00	 jmp	 $LN20@EnterEvent
$LN3@EnterEvent:

; 547  : 		}
; 548  : 	}
; 549  : 
; 550  : 	/*if(this->m_ImperialData.iState > IMPERIAL_STATE_OPEN)
; 551  : 	{
; 552  : 		pMsg.Result = 4;
; 553  : 		DataSend(aIndex, (LPBYTE)&pMsg, pMsg.h.size);
; 554  : 		return false;
; 555  : 	}*/
; 556  : 
; 557  : #else
; 558  : 
; 559  : 	if(this->m_ImperialData.iState != IMPERIAL_STATE_OPEN)
; 560  : 	{
; 561  : 		if(gObj[aIndex].PartyNumber != this->m_ImperialData.PartyID)
; 562  : 		{
; 563  : 			int CurrState = this->GetSpecificState();
; 564  : 			if(CurrState != 1) // STANDBY1
; 565  : 			{
; 566  : 				pMsg.Result = 1;
; 567  : 				pMsg.EntryTime = ((this->m_ImperialData.Time / 60) / 1000);
; 568  : 				DataSend(aIndex, (LPBYTE)&pMsg, pMsg.h.size);
; 569  : 				return false;
; 570  : 			}
; 571  : 		}
; 572  : 	}
; 573  : 
; 574  : #endif
; 575  : 
; 576  : 	if(g_ImperialBattleUserMng.AddUserData(aIndex) )

  01385	0f bf 45 08	 movsx	 eax, WORD PTR _aIndex$[ebp]
  01389	50		 push	 eax
  0138a	b9 00 00 00 00	 mov	 ecx, OFFSET ?g_ImperialBattleUserMng@@3VCImperialBattleUserMng@@A ; g_ImperialBattleUserMng
  0138f	e8 00 00 00 00	 call	 ?AddUserData@CImperialBattleUserMng@@QAEHH@Z ; CImperialBattleUserMng::AddUserData
  01394	85 c0		 test	 eax, eax
  01396	0f 84 f7 00 00
	00		 je	 $LN1@EnterEvent

; 577  : 	{
; 578  : 		gObjInventoryDeleteItem(aIndex, invitationpos);

  0139c	8b 45 e4	 mov	 eax, DWORD PTR _invitationpos$[ebp]
  0139f	50		 push	 eax
  013a0	0f bf 4d 08	 movsx	 ecx, WORD PTR _aIndex$[ebp]
  013a4	51		 push	 ecx
  013a5	e8 00 00 00 00	 call	 ?gObjInventoryDeleteItem@@YAEHH@Z ; gObjInventoryDeleteItem
  013aa	83 c4 08	 add	 esp, 8

; 579  : 		GCInventoryItemDeleteSend(aIndex, invitationpos, 1);

  013ad	6a 01		 push	 1
  013af	0f b6 45 e4	 movzx	 eax, BYTE PTR _invitationpos$[ebp]
  013b3	50		 push	 eax
  013b4	0f bf 4d 08	 movsx	 ecx, WORD PTR _aIndex$[ebp]
  013b8	51		 push	 ecx
  013b9	e8 00 00 00 00	 call	 ?GCInventoryItemDeleteSend@@YAXHEE@Z ; GCInventoryItemDeleteSend
  013be	83 c4 0c	 add	 esp, 12			; 0000000cH

; 580  : 		gObj[aIndex].TargetShopNumber = 0;

  013c1	0f bf 45 08	 movsx	 eax, WORD PTR _aIndex$[ebp]
  013c5	69 c0 38 2b 00
	00		 imul	 eax, 11064		; 00002b38H
  013cb	33 c9		 xor	 ecx, ecx
  013cd	8b 15 00 00 00
	00		 mov	 edx, DWORD PTR ?gObj@@3PAUOBJECTSTRUCT@@A ; gObj
  013d3	66 89 8c 02 5a
	04 00 00	 mov	 WORD PTR [edx+eax+1114], cx

; 581  : 
; 582  : 		pMsg.Result = 0;

  013db	c6 45 f0 00	 mov	 BYTE PTR _pMsg$[ebp+4], 0

; 583  : 
; 584  : 		this->m_ImperialData.PartyID = gObj[aIndex].PartyNumber;

  013df	0f bf 45 08	 movsx	 eax, WORD PTR _aIndex$[ebp]
  013e3	69 c0 38 2b 00
	00		 imul	 eax, 11064		; 00002b38H
  013e9	8b 4d f8	 mov	 ecx, DWORD PTR _this$[ebp]
  013ec	8b 15 00 00 00
	00		 mov	 edx, DWORD PTR ?gObj@@3PAUOBJECTSTRUCT@@A ; gObj
  013f2	66 8b 84 02 2c
	04 00 00	 mov	 ax, WORD PTR [edx+eax+1068]
  013fa	66 89 81 20 af
	00 00		 mov	 WORD PTR [ecx+44832], ax

; 585  : 		this->m_ImperialData.Day = Day;

  01401	8b 45 f8	 mov	 eax, DWORD PTR _this$[ebp]
  01404	8b 4d e8	 mov	 ecx, DWORD PTR _Day$[ebp]
  01407	89 88 30 af 00
	00		 mov	 DWORD PTR [eax+44848], ecx

; 586  : 
; 587  : 		DataSend(aIndex, (LPBYTE)&pMsg, pMsg.h.size);

  0140d	0f b6 45 ed	 movzx	 eax, BYTE PTR _pMsg$[ebp+1]
  01411	50		 push	 eax
  01412	8d 4d ec	 lea	 ecx, DWORD PTR _pMsg$[ebp]
  01415	51		 push	 ecx
  01416	0f bf 55 08	 movsx	 edx, WORD PTR _aIndex$[ebp]
  0141a	52		 push	 edx
  0141b	e8 00 00 00 00	 call	 ?DataSend@@YAHHPAEK@Z	; DataSend
  01420	83 c4 0c	 add	 esp, 12			; 0000000cH

; 588  : 		gObjMoveGate(aIndex, g_ImperialGate[Day-1].Gate);

  01423	8b 45 e8	 mov	 eax, DWORD PTR _Day$[ebp]
  01426	8b 0c c5 fc ff
	ff ff		 mov	 ecx, DWORD PTR _g_ImperialGate[eax*8-4]
  0142d	51		 push	 ecx
  0142e	0f bf 55 08	 movsx	 edx, WORD PTR _aIndex$[ebp]
  01432	52		 push	 edx
  01433	e8 00 00 00 00	 call	 ?gObjMoveGate@@YAHHH@Z	; gObjMoveGate
  01438	83 c4 08	 add	 esp, 8

; 589  : 		LogAddTD("[Imperial] (%s)(%s) Entered to Imperial Fort Event | Day: %d | PartyID: %d", gObj[aIndex].AccountID, gObj[aIndex].Name, Day, gObj[aIndex].PartyNumber);

  0143b	0f bf 45 08	 movsx	 eax, WORD PTR _aIndex$[ebp]
  0143f	69 c0 38 2b 00
	00		 imul	 eax, 11064		; 00002b38H
  01445	8b 0d 00 00 00
	00		 mov	 ecx, DWORD PTR ?gObj@@3PAUOBJECTSTRUCT@@A ; gObj
  0144b	8b 94 01 2c 04
	00 00		 mov	 edx, DWORD PTR [ecx+eax+1068]
  01452	52		 push	 edx
  01453	8b 45 e8	 mov	 eax, DWORD PTR _Day$[ebp]
  01456	50		 push	 eax
  01457	0f bf 4d 08	 movsx	 ecx, WORD PTR _aIndex$[ebp]
  0145b	69 c9 38 2b 00
	00		 imul	 ecx, 11064		; 00002b38H
  01461	8b 15 00 00 00
	00		 mov	 edx, DWORD PTR ?gObj@@3PAUOBJECTSTRUCT@@A ; gObj
  01467	8d 44 0a 77	 lea	 eax, DWORD PTR [edx+ecx+119]
  0146b	50		 push	 eax
  0146c	0f bf 4d 08	 movsx	 ecx, WORD PTR _aIndex$[ebp]
  01470	69 c9 38 2b 00
	00		 imul	 ecx, 11064		; 00002b38H
  01476	8b 15 00 00 00
	00		 mov	 edx, DWORD PTR ?gObj@@3PAUOBJECTSTRUCT@@A ; gObj
  0147c	8d 44 0a 6c	 lea	 eax, DWORD PTR [edx+ecx+108]
  01480	50		 push	 eax
  01481	68 00 00 00 00	 push	 OFFSET ??_C@_0EL@DDPCOPEA@?$FLImperial?$FN?5?$CI?$CFs?$CJ?$CI?$CFs?$CJ?5Entered?5to?5I@
  01486	ff 15 00 00 00
	00		 call	 DWORD PTR ?LogAddTD@@3P6AXPADZZA ; LogAddTD
  0148c	83 c4 14	 add	 esp, 20			; 00000014H

; 590  : 		return true;

  0148f	b0 01		 mov	 al, 1
  01491	eb 02		 jmp	 SHORT $LN20@EnterEvent
$LN1@EnterEvent:

; 591  : 	}
; 592  : 
; 593  : 	return false;

  01493	32 c0		 xor	 al, al
$LN20@EnterEvent:

; 594  : }

  01495	5f		 pop	 edi
  01496	5e		 pop	 esi
  01497	5b		 pop	 ebx
  01498	8b 4d fc	 mov	 ecx, DWORD PTR __$ArrayPad$[ebp]
  0149b	33 cd		 xor	 ecx, ebp
  0149d	e8 00 00 00 00	 call	 @__security_check_cookie@4
  014a2	8b e5		 mov	 esp, ebp
  014a4	5d		 pop	 ebp
  014a5	c2 04 00	 ret	 4
?EnterEvent@CImperial@@QAE_NF@Z ENDP			; CImperial::EnterEvent
_TEXT	ENDS
PUBLIC	__$ArrayPad$
EXTRN	__imp__GetSystemTime@4:PROC
; Function compile flags: /Odtp /ZI
_TEXT	SEGMENT
_Time$ = -24						; size = 16
_this$ = -8						; size = 4
__$ArrayPad$ = -4					; size = 4
?GetCurrentDay@CImperial@@QAEHXZ PROC			; CImperial::GetCurrentDay
; _this$ = ecx

; 597  : {

  014b0	55		 push	 ebp
  014b1	8b ec		 mov	 ebp, esp
  014b3	83 ec 58	 sub	 esp, 88			; 00000058H
  014b6	a1 00 00 00 00	 mov	 eax, DWORD PTR ___security_cookie
  014bb	33 c5		 xor	 eax, ebp
  014bd	89 45 fc	 mov	 DWORD PTR __$ArrayPad$[ebp], eax
  014c0	53		 push	 ebx
  014c1	56		 push	 esi
  014c2	57		 push	 edi
  014c3	89 4d f8	 mov	 DWORD PTR _this$[ebp], ecx

; 598  : 	SYSTEMTIME Time;
; 599  : 	GetSystemTime(&Time);

  014c6	8d 45 e8	 lea	 eax, DWORD PTR _Time$[ebp]
  014c9	50		 push	 eax
  014ca	ff 15 00 00 00
	00		 call	 DWORD PTR __imp__GetSystemTime@4

; 600  : 	if(Time.wDayOfWeek == 0)

  014d0	0f b7 45 ec	 movzx	 eax, WORD PTR _Time$[ebp+4]
  014d4	85 c0		 test	 eax, eax
  014d6	75 09		 jne	 SHORT $LN2@GetCurrent

; 601  : 		return 7;

  014d8	b8 07 00 00 00	 mov	 eax, 7
  014dd	eb 06		 jmp	 SHORT $LN3@GetCurrent
  014df	eb 04		 jmp	 SHORT $LN3@GetCurrent
$LN2@GetCurrent:

; 602  : 	else return Time.wDayOfWeek;

  014e1	0f b7 45 ec	 movzx	 eax, WORD PTR _Time$[ebp+4]
$LN3@GetCurrent:

; 603  : }

  014e5	5f		 pop	 edi
  014e6	5e		 pop	 esi
  014e7	5b		 pop	 ebx
  014e8	8b 4d fc	 mov	 ecx, DWORD PTR __$ArrayPad$[ebp]
  014eb	33 cd		 xor	 ecx, ebp
  014ed	e8 00 00 00 00	 call	 @__security_check_cookie@4
  014f2	8b e5		 mov	 esp, ebp
  014f4	5d		 pop	 ebp
  014f5	c3		 ret	 0
?GetCurrentDay@CImperial@@QAEHXZ ENDP			; CImperial::GetCurrentDay
_TEXT	ENDS
PUBLIC	?SetTrapIndex@CImperial@@QAEXFH@Z		; CImperial::SetTrapIndex
; Function compile flags: /Odtp /ZI
_TEXT	SEGMENT
tv64 = -72						; size = 4
_this$ = -4						; size = 4
_aIndex$ = 8						; size = 2
_MapNumber$ = 12					; size = 4
?SetTrapIndex@CImperial@@QAEXFH@Z PROC			; CImperial::SetTrapIndex
; _this$ = ecx

; 606  : {

  01500	55		 push	 ebp
  01501	8b ec		 mov	 ebp, esp
  01503	83 ec 48	 sub	 esp, 72			; 00000048H
  01506	53		 push	 ebx
  01507	56		 push	 esi
  01508	57		 push	 edi
  01509	89 4d fc	 mov	 DWORD PTR _this$[ebp], ecx

; 607  : 	switch ( MapNumber )

  0150c	8b 45 0c	 mov	 eax, DWORD PTR _MapNumber$[ebp]
  0150f	89 45 b8	 mov	 DWORD PTR tv64[ebp], eax
  01512	8b 4d b8	 mov	 ecx, DWORD PTR tv64[ebp]
  01515	83 e9 45	 sub	 ecx, 69			; 00000045H
  01518	89 4d b8	 mov	 DWORD PTR tv64[ebp], ecx
  0151b	83 7d b8 03	 cmp	 DWORD PTR tv64[ebp], 3
  0151f	77 6b		 ja	 SHORT $LN7@SetTrapInd
  01521	8b 55 b8	 mov	 edx, DWORD PTR tv64[ebp]
  01524	ff 24 95 00 00
	00 00		 jmp	 DWORD PTR $LN9@SetTrapInd[edx*4]
$LN4@SetTrapInd:

; 608  : 	{
; 609  : 		case 69:
; 610  : 			{
; 611  : 				this->m_BattleOfDestler.m_BattleData.TrapIndex = aIndex;

  0152b	0f bf 45 08	 movsx	 eax, WORD PTR _aIndex$[ebp]
  0152f	8b 4d fc	 mov	 ecx, DWORD PTR _this$[ebp]
  01532	89 81 80 af 00
	00		 mov	 DWORD PTR [ecx+44928], eax

; 612  : 				this->m_BattleOfGalia.m_BattleData.TrapIndex = aIndex;

  01538	0f bf 45 08	 movsx	 eax, WORD PTR _aIndex$[ebp]
  0153c	8b 4d fc	 mov	 ecx, DWORD PTR _this$[ebp]
  0153f	89 81 94 b0 00
	00		 mov	 DWORD PTR [ecx+45204], eax

; 613  : 			}
; 614  : 			break;

  01545	eb 45		 jmp	 SHORT $LN7@SetTrapInd
$LN3@SetTrapInd:

; 615  : 		case 70:
; 616  : 			{
; 617  : 				this->m_BattleOfVermont.m_BattleData.TrapIndex = aIndex;

  01547	0f bf 45 08	 movsx	 eax, WORD PTR _aIndex$[ebp]
  0154b	8b 4d fc	 mov	 ecx, DWORD PTR _this$[ebp]
  0154e	89 81 dc af 00
	00		 mov	 DWORD PTR [ecx+45020], eax

; 618  : 				this->m_BattleOfErkanne.m_BattleData.TrapIndex = aIndex;

  01554	0f bf 45 08	 movsx	 eax, WORD PTR _aIndex$[ebp]
  01558	8b 4d fc	 mov	 ecx, DWORD PTR _this$[ebp]
  0155b	89 81 f0 b0 00
	00		 mov	 DWORD PTR [ecx+45296], eax

; 619  : 			}
; 620  : 			break;

  01561	eb 29		 jmp	 SHORT $LN7@SetTrapInd
$LN2@SetTrapInd:

; 621  : 		case 71:
; 622  : 			{
; 623  : 				this->m_BattleOfKato.m_BattleData.TrapIndex = aIndex;

  01563	0f bf 45 08	 movsx	 eax, WORD PTR _aIndex$[ebp]
  01567	8b 4d fc	 mov	 ecx, DWORD PTR _this$[ebp]
  0156a	89 81 38 b0 00
	00		 mov	 DWORD PTR [ecx+45112], eax

; 624  : 				this->m_BattleOfRaymond.m_BattleData.TrapIndex = aIndex;

  01570	0f bf 45 08	 movsx	 eax, WORD PTR _aIndex$[ebp]
  01574	8b 4d fc	 mov	 ecx, DWORD PTR _this$[ebp]
  01577	89 81 40 b1 00
	00		 mov	 DWORD PTR [ecx+45376], eax

; 625  : 			}
; 626  : 			break;

  0157d	eb 0d		 jmp	 SHORT $LN7@SetTrapInd
$LN1@SetTrapInd:

; 627  : 		case 72:
; 628  : 			{
; 629  : 				this->m_BattleOfGaion.m_BattleData.TrapIndex = aIndex;

  0157f	0f bf 45 08	 movsx	 eax, WORD PTR _aIndex$[ebp]
  01583	8b 4d fc	 mov	 ecx, DWORD PTR _this$[ebp]
  01586	89 81 94 b1 00
	00		 mov	 DWORD PTR [ecx+45460], eax
$LN7@SetTrapInd:

; 630  : 			}
; 631  : 			break;
; 632  : 	}
; 633  : }

  0158c	5f		 pop	 edi
  0158d	5e		 pop	 esi
  0158e	5b		 pop	 ebx
  0158f	8b e5		 mov	 esp, ebp
  01591	5d		 pop	 ebp
  01592	c2 08 00	 ret	 8
  01595	8d 49 00	 npad	 3
$LN9@SetTrapInd:
  01598	00 00 00 00	 DD	 $LN4@SetTrapInd
  0159c	00 00 00 00	 DD	 $LN3@SetTrapInd
  015a0	00 00 00 00	 DD	 $LN2@SetTrapInd
  015a4	00 00 00 00	 DD	 $LN1@SetTrapInd
?SetTrapIndex@CImperial@@QAEXFH@Z ENDP			; CImperial::SetTrapIndex
_TEXT	ENDS
PUBLIC	?UsePortalGate@CImperial@@QAE_NPAUOBJECTSTRUCT@@H@Z ; CImperial::UsePortalGate
EXTRN	?EnterPortal@CImperialBattleOfGaion@@QAE_NPAUOBJECTSTRUCT@@@Z:PROC ; CImperialBattleOfGaion::EnterPortal
EXTRN	?EnterPortal@CImperialBattleOfRaymond@@QAE_NPAUOBJECTSTRUCT@@@Z:PROC ; CImperialBattleOfRaymond::EnterPortal
EXTRN	?EnterPortal@CImperialBattleOfKato@@QAE_NPAUOBJECTSTRUCT@@@Z:PROC ; CImperialBattleOfKato::EnterPortal
EXTRN	?EnterPortal@CImperialBattleOfErkanne@@QAE_NPAUOBJECTSTRUCT@@@Z:PROC ; CImperialBattleOfErkanne::EnterPortal
EXTRN	?EnterPortal@CImperialBattleOfVermont@@QAE_NPAUOBJECTSTRUCT@@@Z:PROC ; CImperialBattleOfVermont::EnterPortal
EXTRN	?EnterPortal@CImperialBattleOfGalia@@QAE_NPAUOBJECTSTRUCT@@@Z:PROC ; CImperialBattleOfGalia::EnterPortal
EXTRN	?EnterPortal@CImperialBattleOfDestler@@QAE_NPAUOBJECTSTRUCT@@@Z:PROC ; CImperialBattleOfDestler::EnterPortal
; Function compile flags: /Odtp /ZI
_TEXT	SEGMENT
tv64 = -72						; size = 4
_this$ = -4						; size = 4
_lpObj$ = 8						; size = 4
_gt$ = 12						; size = 4
?UsePortalGate@CImperial@@QAE_NPAUOBJECTSTRUCT@@H@Z PROC ; CImperial::UsePortalGate
; _this$ = ecx

; 636  : {

  015b0	55		 push	 ebp
  015b1	8b ec		 mov	 ebp, esp
  015b3	83 ec 48	 sub	 esp, 72			; 00000048H
  015b6	53		 push	 ebx
  015b7	56		 push	 esi
  015b8	57		 push	 edi
  015b9	89 4d fc	 mov	 DWORD PTR _this$[ebp], ecx

; 637  : 	switch ( gt )

  015bc	8b 45 0c	 mov	 eax, DWORD PTR _gt$[ebp]
  015bf	89 45 b8	 mov	 DWORD PTR tv64[ebp], eax
  015c2	8b 4d b8	 mov	 ecx, DWORD PTR tv64[ebp]
  015c5	81 e9 33 01 00
	00		 sub	 ecx, 307		; 00000133H
  015cb	89 4d b8	 mov	 DWORD PTR tv64[ebp], ecx
  015ce	83 7d b8 15	 cmp	 DWORD PTR tv64[ebp], 21	; 00000015H
  015d2	0f 87 10 01 00
	00		 ja	 $LN15@UsePortalG
  015d8	8b 55 b8	 mov	 edx, DWORD PTR tv64[ebp]
  015db	0f b6 82 00 00
	00 00		 movzx	 eax, BYTE PTR $LN19@UsePortalG[edx]
  015e2	ff 24 85 00 00
	00 00		 jmp	 DWORD PTR $LN20@UsePortalG[eax*4]
$LN14@UsePortalG:

; 638  : 	{
; 639  : 		case 307:
; 640  : 		case 308:
; 641  : 		case 309:
; 642  : 		case 310:
; 643  : 		case 311:
; 644  : 			{
; 645  : 				if(this->GetCurrentDay() == 1)

  015e9	8b 4d fc	 mov	 ecx, DWORD PTR _this$[ebp]
  015ec	e8 00 00 00 00	 call	 ?GetCurrentDay@CImperial@@QAEHXZ ; CImperial::GetCurrentDay
  015f1	83 f8 01	 cmp	 eax, 1
  015f4	75 19		 jne	 SHORT $LN13@UsePortalG

; 646  : 				{
; 647  : 					return this->m_BattleOfDestler.EnterPortal(lpObj);		

  015f6	8b 45 08	 mov	 eax, DWORD PTR _lpObj$[ebp]
  015f9	50		 push	 eax
  015fa	8b 4d fc	 mov	 ecx, DWORD PTR _this$[ebp]
  015fd	81 c1 34 af 00
	00		 add	 ecx, 44852		; 0000af34H
  01603	e8 00 00 00 00	 call	 ?EnterPortal@CImperialBattleOfDestler@@QAE_NPAUOBJECTSTRUCT@@@Z ; CImperialBattleOfDestler::EnterPortal
  01608	e9 dd 00 00 00	 jmp	 $LN17@UsePortalG
  0160d	eb 24		 jmp	 SHORT $LN12@UsePortalG
$LN13@UsePortalG:

; 648  : 				}
; 649  : 				else if(this->GetCurrentDay() == 4)

  0160f	8b 4d fc	 mov	 ecx, DWORD PTR _this$[ebp]
  01612	e8 00 00 00 00	 call	 ?GetCurrentDay@CImperial@@QAEHXZ ; CImperial::GetCurrentDay
  01617	83 f8 04	 cmp	 eax, 4
  0161a	75 17		 jne	 SHORT $LN12@UsePortalG

; 650  : 				{
; 651  : 					return this->m_BattleOfGalia.EnterPortal(lpObj);

  0161c	8b 45 08	 mov	 eax, DWORD PTR _lpObj$[ebp]
  0161f	50		 push	 eax
  01620	8b 4d fc	 mov	 ecx, DWORD PTR _this$[ebp]
  01623	81 c1 48 b0 00
	00		 add	 ecx, 45128		; 0000b048H
  01629	e8 00 00 00 00	 call	 ?EnterPortal@CImperialBattleOfGalia@@QAE_NPAUOBJECTSTRUCT@@@Z ; CImperialBattleOfGalia::EnterPortal
  0162e	e9 b7 00 00 00	 jmp	 $LN17@UsePortalG
$LN12@UsePortalG:

; 652  : 				}
; 653  : 			}
; 654  : 			break;

  01633	e9 b0 00 00 00	 jmp	 $LN15@UsePortalG
$LN10@UsePortalG:

; 655  : 		case 312:
; 656  : 		case 313:
; 657  : 		case 314:
; 658  : 		case 315:
; 659  : 		case 316:
; 660  : 			{
; 661  : 				if(this->GetCurrentDay() == 2)

  01638	8b 4d fc	 mov	 ecx, DWORD PTR _this$[ebp]
  0163b	e8 00 00 00 00	 call	 ?GetCurrentDay@CImperial@@QAEHXZ ; CImperial::GetCurrentDay
  01640	83 f8 02	 cmp	 eax, 2
  01643	75 19		 jne	 SHORT $LN9@UsePortalG

; 662  : 				{
; 663  : 					return this->m_BattleOfVermont.EnterPortal(lpObj);

  01645	8b 45 08	 mov	 eax, DWORD PTR _lpObj$[ebp]
  01648	50		 push	 eax
  01649	8b 4d fc	 mov	 ecx, DWORD PTR _this$[ebp]
  0164c	81 c1 90 af 00
	00		 add	 ecx, 44944		; 0000af90H
  01652	e8 00 00 00 00	 call	 ?EnterPortal@CImperialBattleOfVermont@@QAE_NPAUOBJECTSTRUCT@@@Z ; CImperialBattleOfVermont::EnterPortal
  01657	e9 8e 00 00 00	 jmp	 $LN17@UsePortalG
  0165c	eb 21		 jmp	 SHORT $LN8@UsePortalG
$LN9@UsePortalG:

; 664  : 				}
; 665  : 				else if(this->GetCurrentDay() == 5)

  0165e	8b 4d fc	 mov	 ecx, DWORD PTR _this$[ebp]
  01661	e8 00 00 00 00	 call	 ?GetCurrentDay@CImperial@@QAEHXZ ; CImperial::GetCurrentDay
  01666	83 f8 05	 cmp	 eax, 5
  01669	75 14		 jne	 SHORT $LN8@UsePortalG

; 666  : 				{
; 667  : 					return this->m_BattleOfErkanne.EnterPortal(lpObj);

  0166b	8b 45 08	 mov	 eax, DWORD PTR _lpObj$[ebp]
  0166e	50		 push	 eax
  0166f	8b 4d fc	 mov	 ecx, DWORD PTR _this$[ebp]
  01672	81 c1 a4 b0 00
	00		 add	 ecx, 45220		; 0000b0a4H
  01678	e8 00 00 00 00	 call	 ?EnterPortal@CImperialBattleOfErkanne@@QAE_NPAUOBJECTSTRUCT@@@Z ; CImperialBattleOfErkanne::EnterPortal
  0167d	eb 6b		 jmp	 SHORT $LN17@UsePortalG
$LN8@UsePortalG:

; 668  : 				}
; 669  : 			}
; 670  : 			break;

  0167f	eb 67		 jmp	 SHORT $LN15@UsePortalG
$LN6@UsePortalG:

; 671  : 		case 317:
; 672  : 		case 318:
; 673  : 		case 319:
; 674  : 		case 320:
; 675  : 		case 321:
; 676  : 			{
; 677  : 				if(this->GetCurrentDay() == 3)

  01681	8b 4d fc	 mov	 ecx, DWORD PTR _this$[ebp]
  01684	e8 00 00 00 00	 call	 ?GetCurrentDay@CImperial@@QAEHXZ ; CImperial::GetCurrentDay
  01689	83 f8 03	 cmp	 eax, 3
  0168c	75 16		 jne	 SHORT $LN5@UsePortalG

; 678  : 				{
; 679  : 					return this->m_BattleOfKato.EnterPortal(lpObj);

  0168e	8b 45 08	 mov	 eax, DWORD PTR _lpObj$[ebp]
  01691	50		 push	 eax
  01692	8b 4d fc	 mov	 ecx, DWORD PTR _this$[ebp]
  01695	81 c1 ec af 00
	00		 add	 ecx, 45036		; 0000afecH
  0169b	e8 00 00 00 00	 call	 ?EnterPortal@CImperialBattleOfKato@@QAE_NPAUOBJECTSTRUCT@@@Z ; CImperialBattleOfKato::EnterPortal
  016a0	eb 48		 jmp	 SHORT $LN17@UsePortalG
  016a2	eb 21		 jmp	 SHORT $LN4@UsePortalG
$LN5@UsePortalG:

; 680  : 				}
; 681  : 				else if(this->GetCurrentDay() == 6)

  016a4	8b 4d fc	 mov	 ecx, DWORD PTR _this$[ebp]
  016a7	e8 00 00 00 00	 call	 ?GetCurrentDay@CImperial@@QAEHXZ ; CImperial::GetCurrentDay
  016ac	83 f8 06	 cmp	 eax, 6
  016af	75 14		 jne	 SHORT $LN4@UsePortalG

; 682  : 				{
; 683  : 					return this->m_BattleOfRaymond.EnterPortal(lpObj);

  016b1	8b 45 08	 mov	 eax, DWORD PTR _lpObj$[ebp]
  016b4	50		 push	 eax
  016b5	8b 4d fc	 mov	 ecx, DWORD PTR _this$[ebp]
  016b8	81 c1 00 b1 00
	00		 add	 ecx, 45312		; 0000b100H
  016be	e8 00 00 00 00	 call	 ?EnterPortal@CImperialBattleOfRaymond@@QAE_NPAUOBJECTSTRUCT@@@Z ; CImperialBattleOfRaymond::EnterPortal
  016c3	eb 25		 jmp	 SHORT $LN17@UsePortalG
$LN4@UsePortalG:

; 684  : 				}
; 685  : 			}
; 686  : 			break;

  016c5	eb 21		 jmp	 SHORT $LN15@UsePortalG
$LN2@UsePortalG:

; 687  : 		case 322:
; 688  : 		case 323:
; 689  : 		case 324:
; 690  : 		case 325:
; 691  : 		case 326:
; 692  : 		case 327:
; 693  : 		case 328:
; 694  : 			{
; 695  : 				if(this->GetCurrentDay() == 7)

  016c7	8b 4d fc	 mov	 ecx, DWORD PTR _this$[ebp]
  016ca	e8 00 00 00 00	 call	 ?GetCurrentDay@CImperial@@QAEHXZ ; CImperial::GetCurrentDay
  016cf	83 f8 07	 cmp	 eax, 7
  016d2	75 14		 jne	 SHORT $LN15@UsePortalG

; 696  : 				{
; 697  : 					return this->m_BattleOfGaion.EnterPortal(lpObj);

  016d4	8b 45 08	 mov	 eax, DWORD PTR _lpObj$[ebp]
  016d7	50		 push	 eax
  016d8	8b 4d fc	 mov	 ecx, DWORD PTR _this$[ebp]
  016db	81 c1 50 b1 00
	00		 add	 ecx, 45392		; 0000b150H
  016e1	e8 00 00 00 00	 call	 ?EnterPortal@CImperialBattleOfGaion@@QAE_NPAUOBJECTSTRUCT@@@Z ; CImperialBattleOfGaion::EnterPortal
  016e6	eb 02		 jmp	 SHORT $LN17@UsePortalG
$LN15@UsePortalG:

; 698  : 				}
; 699  : 			}
; 700  : 			break;
; 701  : 	}
; 702  : 	return false;

  016e8	32 c0		 xor	 al, al
$LN17@UsePortalG:

; 703  : }

  016ea	5f		 pop	 edi
  016eb	5e		 pop	 esi
  016ec	5b		 pop	 ebx
  016ed	8b e5		 mov	 esp, ebp
  016ef	5d		 pop	 ebp
  016f0	c2 08 00	 ret	 8
  016f3	90		 npad	 1
$LN20@UsePortalG:
  016f4	00 00 00 00	 DD	 $LN14@UsePortalG
  016f8	00 00 00 00	 DD	 $LN10@UsePortalG
  016fc	00 00 00 00	 DD	 $LN6@UsePortalG
  01700	00 00 00 00	 DD	 $LN2@UsePortalG
$LN19@UsePortalG:
  01704	00		 DB	 0
  01705	00		 DB	 0
  01706	00		 DB	 0
  01707	00		 DB	 0
  01708	00		 DB	 0
  01709	01		 DB	 1
  0170a	01		 DB	 1
  0170b	01		 DB	 1
  0170c	01		 DB	 1
  0170d	01		 DB	 1
  0170e	02		 DB	 2
  0170f	02		 DB	 2
  01710	02		 DB	 2
  01711	02		 DB	 2
  01712	02		 DB	 2
  01713	03		 DB	 3
  01714	03		 DB	 3
  01715	03		 DB	 3
  01716	03		 DB	 3
  01717	03		 DB	 3
  01718	03		 DB	 3
  01719	03		 DB	 3
?UsePortalGate@CImperial@@QAE_NPAUOBJECTSTRUCT@@H@Z ENDP ; CImperial::UsePortalGate
; Function compile flags: /Odtp /ZI
tv66 = -72						; size = 4
_this$ = -4						; size = 4
?GetSpecificState@CImperial@@QAEHXZ PROC		; CImperial::GetSpecificState
; _this$ = ecx

; 706  : {

  01720	55		 push	 ebp
  01721	8b ec		 mov	 ebp, esp
  01723	83 ec 48	 sub	 esp, 72			; 00000048H
  01726	53		 push	 ebx
  01727	56		 push	 esi
  01728	57		 push	 edi
  01729	89 4d fc	 mov	 DWORD PTR _this$[ebp], ecx

; 707  : 	switch ( this->m_ImperialData.Day )

  0172c	8b 45 fc	 mov	 eax, DWORD PTR _this$[ebp]
  0172f	8b 88 30 af 00
	00		 mov	 ecx, DWORD PTR [eax+44848]
  01735	89 4d b8	 mov	 DWORD PTR tv66[ebp], ecx
  01738	8b 55 b8	 mov	 edx, DWORD PTR tv66[ebp]
  0173b	83 ea 01	 sub	 edx, 1
  0173e	89 55 b8	 mov	 DWORD PTR tv66[ebp], edx
  01741	83 7d b8 06	 cmp	 DWORD PTR tv66[ebp], 6
  01745	77 57		 ja	 SHORT $LN8@GetSpecifi
  01747	8b 45 b8	 mov	 eax, DWORD PTR tv66[ebp]
  0174a	ff 24 85 00 00
	00 00		 jmp	 DWORD PTR $LN12@GetSpecifi[eax*4]
$LN7@GetSpecifi:

; 708  : 	{
; 709  : 		case 1:
; 710  : 			return this->m_BattleOfDestler.m_BattleData.CurrentState;

  01751	8b 45 fc	 mov	 eax, DWORD PTR _this$[ebp]
  01754	8b 80 74 af 00
	00		 mov	 eax, DWORD PTR [eax+44916]
  0175a	eb 45		 jmp	 SHORT $LN10@GetSpecifi
$LN6@GetSpecifi:

; 711  : 		case 2:
; 712  : 			return this->m_BattleOfVermont.m_BattleData.CurrentState;

  0175c	8b 45 fc	 mov	 eax, DWORD PTR _this$[ebp]
  0175f	8b 80 d0 af 00
	00		 mov	 eax, DWORD PTR [eax+45008]
  01765	eb 3a		 jmp	 SHORT $LN10@GetSpecifi
$LN5@GetSpecifi:

; 713  : 		case 3:
; 714  : 			return this->m_BattleOfKato.m_BattleData.CurrentState;

  01767	8b 45 fc	 mov	 eax, DWORD PTR _this$[ebp]
  0176a	8b 80 2c b0 00
	00		 mov	 eax, DWORD PTR [eax+45100]
  01770	eb 2f		 jmp	 SHORT $LN10@GetSpecifi
$LN4@GetSpecifi:

; 715  : 		case 4:
; 716  : 			return this->m_BattleOfGalia.m_BattleData.CurrentState;

  01772	8b 45 fc	 mov	 eax, DWORD PTR _this$[ebp]
  01775	8b 80 88 b0 00
	00		 mov	 eax, DWORD PTR [eax+45192]
  0177b	eb 24		 jmp	 SHORT $LN10@GetSpecifi
$LN3@GetSpecifi:

; 717  : 		case 5:
; 718  : 			return this->m_BattleOfErkanne.m_BattleData.CurrentState;

  0177d	8b 45 fc	 mov	 eax, DWORD PTR _this$[ebp]
  01780	8b 80 e4 b0 00
	00		 mov	 eax, DWORD PTR [eax+45284]
  01786	eb 19		 jmp	 SHORT $LN10@GetSpecifi
$LN2@GetSpecifi:

; 719  : 		case 6:
; 720  : 			return this->m_BattleOfRaymond.m_BattleData.CurrentState;

  01788	8b 45 fc	 mov	 eax, DWORD PTR _this$[ebp]
  0178b	8b 80 34 b1 00
	00		 mov	 eax, DWORD PTR [eax+45364]
  01791	eb 0e		 jmp	 SHORT $LN10@GetSpecifi
$LN1@GetSpecifi:

; 721  : 		case 7:
; 722  : 			return this->m_BattleOfGaion.m_BattleData.CurrentState;

  01793	8b 45 fc	 mov	 eax, DWORD PTR _this$[ebp]
  01796	8b 80 88 b1 00
	00		 mov	 eax, DWORD PTR [eax+45448]
  0179c	eb 03		 jmp	 SHORT $LN10@GetSpecifi
$LN8@GetSpecifi:

; 723  : 	}
; 724  : 
; 725  : 	return -1;

  0179e	83 c8 ff	 or	 eax, -1
$LN10@GetSpecifi:

; 726  : }

  017a1	5f		 pop	 edi
  017a2	5e		 pop	 esi
  017a3	5b		 pop	 ebx
  017a4	8b e5		 mov	 esp, ebp
  017a6	5d		 pop	 ebp
  017a7	c3		 ret	 0
$LN12@GetSpecifi:
  017a8	00 00 00 00	 DD	 $LN7@GetSpecifi
  017ac	00 00 00 00	 DD	 $LN6@GetSpecifi
  017b0	00 00 00 00	 DD	 $LN5@GetSpecifi
  017b4	00 00 00 00	 DD	 $LN4@GetSpecifi
  017b8	00 00 00 00	 DD	 $LN3@GetSpecifi
  017bc	00 00 00 00	 DD	 $LN2@GetSpecifi
  017c0	00 00 00 00	 DD	 $LN1@GetSpecifi
?GetSpecificState@CImperial@@QAEHXZ ENDP		; CImperial::GetSpecificState
_TEXT	ENDS
PUBLIC	??_C@_0DI@DGDPBAIK@?$FL?5IMPERIAL?5FORT?5?$FN?$FLGiveRewardExp?$FN@ ; `string'
PUBLIC	?LevelUp@CImperial@@QAEHHH@Z			; CImperial::LevelUp
PUBLIC	__$ArrayPad$
EXTRN	?PHeadSetBE@@YAXPAEEH@Z:PROC			; PHeadSetBE
;	COMDAT ??_C@_0DI@DGDPBAIK@?$FL?5IMPERIAL?5FORT?5?$FN?$FLGiveRewardExp?$FN@
CONST	SEGMENT
??_C@_0DI@DGDPBAIK@?$FL?5IMPERIAL?5FORT?5?$FN?$FLGiveRewardExp?$FN@ DB '['
	DB	' IMPERIAL FORT ][GiveRewardExp] LevelUp Error [%s][%s]', 00H ; `string'
; Function compile flags: /Odtp /ZI
CONST	ENDS
_TEXT	SEGMENT
_pExp$230911 = -52					; size = 16
_pMsg$230903 = -36					; size = 16
_iMAX_LEVCOUNT$ = -20					; size = 4
_iCAL_EXP$ = -16					; size = 4
_iRET_EXP$ = -12					; size = 4
_this$ = -8						; size = 4
__$ArrayPad$ = -4					; size = 4
_aIndex$ = 8						; size = 4
_Exp$ = 12						; size = 4
?GiveRewardExp@CImperial@@QAEHHH@Z PROC			; CImperial::GiveRewardExp
; _this$ = ecx

; 729  : {

  017d0	55		 push	 ebp
  017d1	8b ec		 mov	 ebp, esp
  017d3	83 ec 74	 sub	 esp, 116		; 00000074H
  017d6	a1 00 00 00 00	 mov	 eax, DWORD PTR ___security_cookie
  017db	33 c5		 xor	 eax, ebp
  017dd	89 45 fc	 mov	 DWORD PTR __$ArrayPad$[ebp], eax
  017e0	53		 push	 ebx
  017e1	56		 push	 esi
  017e2	57		 push	 edi
  017e3	89 4d f8	 mov	 DWORD PTR _this$[ebp], ecx

; 730  : 	if ( !gObjIsConnected(aIndex))

  017e6	8b 45 08	 mov	 eax, DWORD PTR _aIndex$[ebp]
  017e9	50		 push	 eax
  017ea	e8 00 00 00 00	 call	 ?gObjIsConnected@@YAHH@Z ; gObjIsConnected
  017ef	83 c4 04	 add	 esp, 4
  017f2	85 c0		 test	 eax, eax
  017f4	75 07		 jne	 SHORT $LN8@GiveReward

; 731  : 		return 0;

  017f6	33 c0		 xor	 eax, eax
  017f8	e9 67 01 00 00	 jmp	 $LN9@GiveReward
$LN8@GiveReward:

; 732  : 
; 733  : 	if ( Exp <= -1 )

  017fd	83 7d 0c ff	 cmp	 DWORD PTR _Exp$[ebp], -1
  01801	7f 07		 jg	 SHORT $LN7@GiveReward

; 734  : 		return 0;

  01803	33 c0		 xor	 eax, eax
  01805	e9 5a 01 00 00	 jmp	 $LN9@GiveReward
$LN7@GiveReward:

; 735  : 
; 736  : 	int iRET_EXP = 0;

  0180a	c7 45 f4 00 00
	00 00		 mov	 DWORD PTR _iRET_EXP$[ebp], 0

; 737  : 	int iCAL_EXP = Exp;

  01811	8b 45 0c	 mov	 eax, DWORD PTR _Exp$[ebp]
  01814	89 45 f0	 mov	 DWORD PTR _iCAL_EXP$[ebp], eax

; 738  : 	int iMAX_LEVCOUNT = 0;

  01817	c7 45 ec 00 00
	00 00		 mov	 DWORD PTR _iMAX_LEVCOUNT$[ebp], 0

; 739  : 
; 740  : 	if ( !gObjIsConnected(aIndex))

  0181e	8b 45 08	 mov	 eax, DWORD PTR _aIndex$[ebp]
  01821	50		 push	 eax
  01822	e8 00 00 00 00	 call	 ?gObjIsConnected@@YAHH@Z ; gObjIsConnected
  01827	83 c4 04	 add	 esp, 4
  0182a	85 c0		 test	 eax, eax
  0182c	75 07		 jne	 SHORT $LN6@GiveReward

; 741  : 		return 0;

  0182e	33 c0		 xor	 eax, eax
  01830	e9 2f 01 00 00	 jmp	 $LN9@GiveReward
$LN6@GiveReward:

; 742  : 
; 743  : 	iRET_EXP = iCAL_EXP;

  01835	8b 45 f0	 mov	 eax, DWORD PTR _iCAL_EXP$[ebp]
  01838	89 45 f4	 mov	 DWORD PTR _iRET_EXP$[ebp], eax

; 744  : 
; 745  : 	if ( gObj[aIndex].Type == OBJ_USER )

  0183b	8b 45 08	 mov	 eax, DWORD PTR _aIndex$[ebp]
  0183e	69 c0 38 2b 00
	00		 imul	 eax, 11064		; 00002b38H
  01844	8b 0d 00 00 00
	00		 mov	 ecx, DWORD PTR ?gObj@@3PAUOBJECTSTRUCT@@A ; gObj
  0184a	0f b7 54 01 68	 movzx	 edx, WORD PTR [ecx+eax+104]
  0184f	83 fa 01	 cmp	 edx, 1
  01852	0f 85 07 01 00
	00		 jne	 $LN5@GiveReward
$LN4@GiveReward:

; 746  : 	{
; 747  : 		while ( iCAL_EXP > 0 )

  01858	83 7d f0 00	 cmp	 DWORD PTR _iCAL_EXP$[ebp], 0
  0185c	7e 62		 jle	 SHORT $LN3@GiveReward

; 748  : 		{
; 749  : 			if ( iCAL_EXP > 0 )

  0185e	83 7d f0 00	 cmp	 DWORD PTR _iCAL_EXP$[ebp], 0
  01862	7e 13		 jle	 SHORT $LN2@GiveReward

; 750  : 			{
; 751  : 				iCAL_EXP = this->LevelUp(aIndex, iCAL_EXP);

  01864	8b 45 f0	 mov	 eax, DWORD PTR _iCAL_EXP$[ebp]
  01867	50		 push	 eax
  01868	8b 4d 08	 mov	 ecx, DWORD PTR _aIndex$[ebp]
  0186b	51		 push	 ecx
  0186c	8b 4d f8	 mov	 ecx, DWORD PTR _this$[ebp]
  0186f	e8 00 00 00 00	 call	 ?LevelUp@CImperial@@QAEHHH@Z ; CImperial::LevelUp
  01874	89 45 f0	 mov	 DWORD PTR _iCAL_EXP$[ebp], eax
$LN2@GiveReward:

; 752  : 			}
; 753  : 
; 754  : 			iMAX_LEVCOUNT++;

  01877	8b 45 ec	 mov	 eax, DWORD PTR _iMAX_LEVCOUNT$[ebp]
  0187a	83 c0 01	 add	 eax, 1
  0187d	89 45 ec	 mov	 DWORD PTR _iMAX_LEVCOUNT$[ebp], eax

; 755  : 
; 756  : 			if ( iMAX_LEVCOUNT > 5 )

  01880	83 7d ec 05	 cmp	 DWORD PTR _iMAX_LEVCOUNT$[ebp], 5
  01884	7e 38		 jle	 SHORT $LN1@GiveReward

; 757  : 			{
; 758  : 				LogAddTD("[ IMPERIAL FORT ][GiveRewardExp] LevelUp Error [%s][%s]",
; 759  : 					gObj[aIndex].AccountID, gObj[aIndex].Name);

  01886	8b 45 08	 mov	 eax, DWORD PTR _aIndex$[ebp]
  01889	69 c0 38 2b 00
	00		 imul	 eax, 11064		; 00002b38H
  0188f	8b 0d 00 00 00
	00		 mov	 ecx, DWORD PTR ?gObj@@3PAUOBJECTSTRUCT@@A ; gObj
  01895	8d 54 01 77	 lea	 edx, DWORD PTR [ecx+eax+119]
  01899	52		 push	 edx
  0189a	8b 45 08	 mov	 eax, DWORD PTR _aIndex$[ebp]
  0189d	69 c0 38 2b 00
	00		 imul	 eax, 11064		; 00002b38H
  018a3	8b 0d 00 00 00
	00		 mov	 ecx, DWORD PTR ?gObj@@3PAUOBJECTSTRUCT@@A ; gObj
  018a9	8d 54 01 6c	 lea	 edx, DWORD PTR [ecx+eax+108]
  018ad	52		 push	 edx
  018ae	68 00 00 00 00	 push	 OFFSET ??_C@_0DI@DGDPBAIK@?$FL?5IMPERIAL?5FORT?5?$FN?$FLGiveRewardExp?$FN@
  018b3	ff 15 00 00 00
	00		 call	 DWORD PTR ?LogAddTD@@3P6AXPADZZA ; LogAddTD
  018b9	83 c4 0c	 add	 esp, 12			; 0000000cH

; 760  : 
; 761  : 				break;

  018bc	eb 02		 jmp	 SHORT $LN3@GiveReward
$LN1@GiveReward:

; 762  : 			}
; 763  : 		}

  018be	eb 98		 jmp	 SHORT $LN4@GiveReward
$LN3@GiveReward:

; 764  : 
; 765  : 		PMSG_KILLPLAYER_EXT pMsg;
; 766  : 
; 767  : 		PHeadSetBE((LPBYTE)&pMsg, 0x9C, sizeof(pMsg));

  018c0	6a 10		 push	 16			; 00000010H
  018c2	68 9c 00 00 00	 push	 156			; 0000009cH
  018c7	8d 45 dc	 lea	 eax, DWORD PTR _pMsg$230903[ebp]
  018ca	50		 push	 eax
  018cb	e8 00 00 00 00	 call	 ?PHeadSetBE@@YAXPAEEH@Z	; PHeadSetBE
  018d0	83 c4 0c	 add	 esp, 12			; 0000000cH

; 768  : 		pMsg.NumberH = -1;

  018d3	c6 45 df ff	 mov	 BYTE PTR _pMsg$230903[ebp+3], 255 ; 000000ffH

; 769  : 		pMsg.NumberL = -1;

  018d7	c6 45 e0 ff	 mov	 BYTE PTR _pMsg$230903[ebp+4], 255 ; 000000ffH

; 770  : 		pMsg.ExpH = SET_NUMBERHW(Exp);

  018db	8b 45 0c	 mov	 eax, DWORD PTR _Exp$[ebp]
  018de	c1 e8 10	 shr	 eax, 16			; 00000010H
  018e1	66 89 45 e2	 mov	 WORD PTR _pMsg$230903[ebp+6], ax

; 771  : 		pMsg.ExpL = SET_NUMBERLW(Exp);

  018e5	8b 45 0c	 mov	 eax, DWORD PTR _Exp$[ebp]
  018e8	25 ff ff 00 00	 and	 eax, 65535		; 0000ffffH
  018ed	66 89 45 e4	 mov	 WORD PTR _pMsg$230903[ebp+8], ax

; 772  : 		pMsg.DamageH = 0;

  018f1	c6 45 e6 00	 mov	 BYTE PTR _pMsg$230903[ebp+10], 0

; 773  : 		pMsg.DamageL = 0;

  018f5	c6 45 e7 00	 mov	 BYTE PTR _pMsg$230903[ebp+11], 0

; 774  : 
; 775  : 		pMsg.ExDamage = 0;

  018f9	c7 45 e8 00 00
	00 00		 mov	 DWORD PTR _pMsg$230903[ebp+12], 0

; 776  : 
; 777  : 		DataSend(aIndex, (LPBYTE)&pMsg, pMsg.h.size);

  01900	0f b6 45 dd	 movzx	 eax, BYTE PTR _pMsg$230903[ebp+1]
  01904	50		 push	 eax
  01905	8d 4d dc	 lea	 ecx, DWORD PTR _pMsg$230903[ebp]
  01908	51		 push	 ecx
  01909	8b 55 08	 mov	 edx, DWORD PTR _aIndex$[ebp]
  0190c	52		 push	 edx
  0190d	e8 00 00 00 00	 call	 ?DataSend@@YAHHPAEK@Z	; DataSend
  01912	83 c4 0c	 add	 esp, 12			; 0000000cH

; 778  : 
; 779  : 		PMSG_FORT_END_MESSAGE pExp = {0};

  01915	c6 45 cc 00	 mov	 BYTE PTR _pExp$230911[ebp], 0
  01919	33 c0		 xor	 eax, eax
  0191b	89 45 cd	 mov	 DWORD PTR _pExp$230911[ebp+1], eax
  0191e	89 45 d1	 mov	 DWORD PTR _pExp$230911[ebp+5], eax
  01921	89 45 d5	 mov	 DWORD PTR _pExp$230911[ebp+9], eax
  01924	66 89 45 d9	 mov	 WORD PTR _pExp$230911[ebp+13], ax
  01928	88 45 db	 mov	 BYTE PTR _pExp$230911[ebp+15], al

; 780  : 		PHeadSubSetB((LPBYTE)&pExp, 0xF7, 0x06, sizeof(pExp));

  0192b	6a 10		 push	 16			; 00000010H
  0192d	6a 06		 push	 6
  0192f	68 f7 00 00 00	 push	 247			; 000000f7H
  01934	8d 45 cc	 lea	 eax, DWORD PTR _pExp$230911[ebp]
  01937	50		 push	 eax
  01938	e8 00 00 00 00	 call	 ?PHeadSubSetB@@YAXPAEEEH@Z ; PHeadSubSetB
  0193d	83 c4 10	 add	 esp, 16			; 00000010H

; 781  : 		pExp.Type = 2;

  01940	c6 45 d0 02	 mov	 BYTE PTR _pExp$230911[ebp+4], 2

; 782  : 		pExp.Experience = Exp;

  01944	8b 45 0c	 mov	 eax, DWORD PTR _Exp$[ebp]
  01947	89 45 d4	 mov	 DWORD PTR _pExp$230911[ebp+8], eax

; 783  : 		DataSend(aIndex, (LPBYTE)&pExp, pExp.h.size);

  0194a	0f b6 45 cd	 movzx	 eax, BYTE PTR _pExp$230911[ebp+1]
  0194e	50		 push	 eax
  0194f	8d 4d cc	 lea	 ecx, DWORD PTR _pExp$230911[ebp]
  01952	51		 push	 ecx
  01953	8b 55 08	 mov	 edx, DWORD PTR _aIndex$[ebp]
  01956	52		 push	 edx
  01957	e8 00 00 00 00	 call	 ?DataSend@@YAHHPAEK@Z	; DataSend
  0195c	83 c4 0c	 add	 esp, 12			; 0000000cH
$LN5@GiveReward:

; 784  : 	}
; 785  : 	return 1;

  0195f	b8 01 00 00 00	 mov	 eax, 1
$LN9@GiveReward:

; 786  : }

  01964	5f		 pop	 edi
  01965	5e		 pop	 esi
  01966	5b		 pop	 ebx
  01967	8b 4d fc	 mov	 ecx, DWORD PTR __$ArrayPad$[ebp]
  0196a	33 cd		 xor	 ecx, ebp
  0196c	e8 00 00 00 00	 call	 @__security_check_cookie@4
  01971	8b e5		 mov	 esp, ebp
  01973	5d		 pop	 ebp
  01974	c2 08 00	 ret	 8
?GiveRewardExp@CImperial@@QAEHHH@Z ENDP			; CImperial::GiveRewardExp
_TEXT	ENDS
PUBLIC	??_C@_0EO@CEPDBKBN@?$FL?5IMPERIAL?5FORT?5?$FN?$FL?5ExpPrize?5?$FN?5?$FL?$CF@ ; `string'
PUBLIC	??_C@_0BL@JIDIIGMB@You?5have?5reached?5max?5level?$AA@ ; `string'
PUBLIC	??_C@_0FC@MCCJHJPM@Experience?5?3?5Map?$FL?$CFd?$FN?9?$CI?$CFd?0?$CFd?$CJ?5?$FL?$CFs@ ; `string'
PUBLIC	??_C@_0DD@LJLHBLFH@?$FL?5IMPERIAL?5FORT?5?$FN?$FL?5ExpPrize?5?$FN?5?3?5@ ; `string'
EXTRN	?gObjCalcMaxLifePower@@YAXH@Z:PROC		; gObjCalcMaxLifePower
EXTRN	?GCLevelUpMsgSend@@YAXHH@Z:PROC			; GCLevelUpMsgSend
EXTRN	?gObjSetBP@@YAXH@Z:PROC				; gObjSetBP
EXTRN	?gObjNextExpCal@@YAXPAUOBJECTSTRUCT@@@Z:PROC	; gObjNextExpCal
EXTRN	?DCInfo@@3Vclassdef@@A:BYTE			; DCInfo
EXTRN	?GCServerMsgStringSend@@YAXPADHE@Z:PROC		; GCServerMsgStringSend
EXTRN	?gObjSetExpPetItem@@YAXHH@Z:PROC		; gObjSetExpPetItem
EXTRN	?MasterLevelUp@CMasterLevelSystem@@QAEHPAUOBJECTSTRUCT@@AA_J_NH@Z:PROC ; CMasterLevelSystem::MasterLevelUp
EXTRN	?CheckIsMasterLevelCharacter@CMasterLevelSystem@@QAEHPAUOBJECTSTRUCT@@@Z:PROC ; CMasterLevelSystem::CheckIsMasterLevelCharacter
EXTRN	?g_MasterLevelSystem@@3VCMasterLevelSystem@@A:BYTE ; g_MasterLevelSystem
EXTRN	__fltused:DWORD
;	COMDAT ??_C@_0EO@CEPDBKBN@?$FL?5IMPERIAL?5FORT?5?$FN?$FL?5ExpPrize?5?$FN?5?$FL?$CF@
CONST	SEGMENT
??_C@_0EO@CEPDBKBN@?$FL?5IMPERIAL?5FORT?5?$FN?$FL?5ExpPrize?5?$FN?5?$FL?$CF@ DB '['
	DB	' IMPERIAL FORT ][ ExpPrize ] [%s][%s] LevelUp PlusStatQuest C'
	DB	'lear AddStat %d', 00H			; `string'
CONST	ENDS
;	COMDAT ??_C@_0BL@JIDIIGMB@You?5have?5reached?5max?5level?$AA@
CONST	SEGMENT
??_C@_0BL@JIDIIGMB@You?5have?5reached?5max?5level?$AA@ DB 'You have reach'
	DB	'ed max level', 00H				; `string'
CONST	ENDS
;	COMDAT ??_C@_0FC@MCCJHJPM@Experience?5?3?5Map?$FL?$CFd?$FN?9?$CI?$CFd?0?$CFd?$CJ?5?$FL?$CFs@
CONST	SEGMENT
??_C@_0FC@MCCJHJPM@Experience?5?3?5Map?$FL?$CFd?$FN?9?$CI?$CFd?0?$CFd?$CJ?5?$FL?$CFs@ DB 'E'
	DB	'xperience : Map[%d]-(%d,%d) [%s][%s](%d) %u %d MonsterIndex :'
	DB	' %d, EventType : %d', 00H			; `string'
CONST	ENDS
;	COMDAT ??_C@_0DD@LJLHBLFH@?$FL?5IMPERIAL?5FORT?5?$FN?$FL?5ExpPrize?5?$FN?5?3?5@
CONST	SEGMENT
??_C@_0DD@LJLHBLFH@?$FL?5IMPERIAL?5FORT?5?$FN?$FL?5ExpPrize?5?$FN?5?3?5@ DB '['
	DB	' IMPERIAL FORT ][ ExpPrize ] : [%s][%s](%d) %u %d', 00H ; `string'
; Function compile flags: /Odtp /ZI
CONST	ENDS
_TEXT	SEGMENT
tv67 = -76						; size = 4
_iLEFT_EXP$ = -8					; size = 4
_this$ = -4						; size = 4
_iUserIndex$ = 8					; size = 4
_iAddExp$ = 12						; size = 4
?LevelUp@CImperial@@QAEHHH@Z PROC			; CImperial::LevelUp
; _this$ = ecx

; 789  : {

  01980	55		 push	 ebp
  01981	8b ec		 mov	 ebp, esp
  01983	83 ec 4c	 sub	 esp, 76			; 0000004cH
  01986	53		 push	 ebx
  01987	56		 push	 esi
  01988	57		 push	 edi
  01989	89 4d fc	 mov	 DWORD PTR _this$[ebp], ecx

; 790  : 	if ( !OBJMAX_RANGE(iUserIndex ) )

  0198c	83 7d 08 00	 cmp	 DWORD PTR _iUserIndex$[ebp], 0
  01990	7d 09		 jge	 SHORT $LN12@LevelUp
  01992	c7 45 b4 00 00
	00 00		 mov	 DWORD PTR tv67[ebp], 0
  01999	eb 0f		 jmp	 SHORT $LN13@LevelUp
$LN12@LevelUp:
  0199b	33 c0		 xor	 eax, eax
  0199d	81 7d 08 97 3a
	00 00		 cmp	 DWORD PTR _iUserIndex$[ebp], 14999 ; 00003a97H
  019a4	0f 9e c0	 setle	 al
  019a7	89 45 b4	 mov	 DWORD PTR tv67[ebp], eax
$LN13@LevelUp:
  019aa	83 7d b4 00	 cmp	 DWORD PTR tv67[ebp], 0
  019ae	75 07		 jne	 SHORT $LN9@LevelUp

; 791  : 		return 0;

  019b0	33 c0		 xor	 eax, eax
  019b2	e9 4a 05 00 00	 jmp	 $LN10@LevelUp
$LN9@LevelUp:

; 792  : 
; 793  : 	int iLEFT_EXP = 0;

  019b7	c7 45 f8 00 00
	00 00		 mov	 DWORD PTR _iLEFT_EXP$[ebp], 0

; 794  : 
; 795  : 	LogAddTD("[ IMPERIAL FORT ][ ExpPrize ] : [%s][%s](%d) %u %d",
; 796  : 		gObj[iUserIndex].AccountID, gObj[iUserIndex].Name,
; 797  : 		gObj[iUserIndex].Level, gObj[iUserIndex].Experience,
; 798  : 		iAddExp);

  019be	8b 45 0c	 mov	 eax, DWORD PTR _iAddExp$[ebp]
  019c1	50		 push	 eax
  019c2	8b 4d 08	 mov	 ecx, DWORD PTR _iUserIndex$[ebp]
  019c5	69 c9 38 2b 00
	00		 imul	 ecx, 11064		; 00002b38H
  019cb	8b 15 00 00 00
	00		 mov	 edx, DWORD PTR ?gObj@@3PAUOBJECTSTRUCT@@A ; gObj
  019d1	8b 84 0a c8 00
	00 00		 mov	 eax, DWORD PTR [edx+ecx+200]
  019d8	50		 push	 eax
  019d9	8b 4d 08	 mov	 ecx, DWORD PTR _iUserIndex$[ebp]
  019dc	69 c9 38 2b 00
	00		 imul	 ecx, 11064		; 00002b38H
  019e2	8b 15 00 00 00
	00		 mov	 edx, DWORD PTR ?gObj@@3PAUOBJECTSTRUCT@@A ; gObj
  019e8	0f bf 84 0a be
	00 00 00	 movsx	 eax, WORD PTR [edx+ecx+190]
  019f0	50		 push	 eax
  019f1	8b 4d 08	 mov	 ecx, DWORD PTR _iUserIndex$[ebp]
  019f4	69 c9 38 2b 00
	00		 imul	 ecx, 11064		; 00002b38H
  019fa	8b 15 00 00 00
	00		 mov	 edx, DWORD PTR ?gObj@@3PAUOBJECTSTRUCT@@A ; gObj
  01a00	8d 44 0a 77	 lea	 eax, DWORD PTR [edx+ecx+119]
  01a04	50		 push	 eax
  01a05	8b 4d 08	 mov	 ecx, DWORD PTR _iUserIndex$[ebp]
  01a08	69 c9 38 2b 00
	00		 imul	 ecx, 11064		; 00002b38H
  01a0e	8b 15 00 00 00
	00		 mov	 edx, DWORD PTR ?gObj@@3PAUOBJECTSTRUCT@@A ; gObj
  01a14	8d 44 0a 6c	 lea	 eax, DWORD PTR [edx+ecx+108]
  01a18	50		 push	 eax
  01a19	68 00 00 00 00	 push	 OFFSET ??_C@_0DD@LJLHBLFH@?$FL?5IMPERIAL?5FORT?5?$FN?$FL?5ExpPrize?5?$FN?5?3?5@
  01a1e	ff 15 00 00 00
	00		 call	 DWORD PTR ?LogAddTD@@3P6AXPADZZA ; LogAddTD
  01a24	83 c4 18	 add	 esp, 24			; 00000018H

; 799  : 
; 800  : 	if ( g_MasterLevelSystem.CheckIsMasterLevelCharacter(&gObj[iUserIndex]))

  01a27	8b 45 08	 mov	 eax, DWORD PTR _iUserIndex$[ebp]
  01a2a	69 c0 38 2b 00
	00		 imul	 eax, 11064		; 00002b38H
  01a30	03 05 00 00 00
	00		 add	 eax, DWORD PTR ?gObj@@3PAUOBJECTSTRUCT@@A ; gObj
  01a36	50		 push	 eax
  01a37	b9 00 00 00 00	 mov	 ecx, OFFSET ?g_MasterLevelSystem@@3VCMasterLevelSystem@@A ; g_MasterLevelSystem
  01a3c	e8 00 00 00 00	 call	 ?CheckIsMasterLevelCharacter@CMasterLevelSystem@@QAEHPAUOBJECTSTRUCT@@@Z ; CMasterLevelSystem::CheckIsMasterLevelCharacter
  01a41	85 c0		 test	 eax, eax
  01a43	74 27		 je	 SHORT $LN8@LevelUp

; 801  : 	{
; 802  : 		return g_MasterLevelSystem.MasterLevelUp(&gObj[iUserIndex], (__int64&)iAddExp,1,0);

  01a45	6a 00		 push	 0
  01a47	6a 01		 push	 1
  01a49	8d 45 0c	 lea	 eax, DWORD PTR _iAddExp$[ebp]
  01a4c	50		 push	 eax
  01a4d	8b 4d 08	 mov	 ecx, DWORD PTR _iUserIndex$[ebp]
  01a50	69 c9 38 2b 00
	00		 imul	 ecx, 11064		; 00002b38H
  01a56	03 0d 00 00 00
	00		 add	 ecx, DWORD PTR ?gObj@@3PAUOBJECTSTRUCT@@A ; gObj
  01a5c	51		 push	 ecx
  01a5d	b9 00 00 00 00	 mov	 ecx, OFFSET ?g_MasterLevelSystem@@3VCMasterLevelSystem@@A ; g_MasterLevelSystem
  01a62	e8 00 00 00 00	 call	 ?MasterLevelUp@CMasterLevelSystem@@QAEHPAUOBJECTSTRUCT@@AA_J_NH@Z ; CMasterLevelSystem::MasterLevelUp
  01a67	e9 95 04 00 00	 jmp	 $LN10@LevelUp
$LN8@LevelUp:

; 803  : 	}
; 804  : 
; 805  : 	LogAddTD("Experience : Map[%d]-(%d,%d) [%s][%s](%d) %u %d MonsterIndex : %d, EventType : %d",
; 806  : 		gObj[iUserIndex].MapNumber, gObj[iUserIndex].X, gObj[iUserIndex].Y,
; 807  : 		gObj[iUserIndex].AccountID, gObj[iUserIndex].Name,
; 808  : 		gObj[iUserIndex].Level, gObj[iUserIndex].Experience, iAddExp, 0, EVENT_TYPE_CRYWOLF);

  01a6c	6a 05		 push	 5
  01a6e	6a 00		 push	 0
  01a70	8b 45 0c	 mov	 eax, DWORD PTR _iAddExp$[ebp]
  01a73	50		 push	 eax
  01a74	8b 4d 08	 mov	 ecx, DWORD PTR _iUserIndex$[ebp]
  01a77	69 c9 38 2b 00
	00		 imul	 ecx, 11064		; 00002b38H
  01a7d	8b 15 00 00 00
	00		 mov	 edx, DWORD PTR ?gObj@@3PAUOBJECTSTRUCT@@A ; gObj
  01a83	8b 84 0a c8 00
	00 00		 mov	 eax, DWORD PTR [edx+ecx+200]
  01a8a	50		 push	 eax
  01a8b	8b 4d 08	 mov	 ecx, DWORD PTR _iUserIndex$[ebp]
  01a8e	69 c9 38 2b 00
	00		 imul	 ecx, 11064		; 00002b38H
  01a94	8b 15 00 00 00
	00		 mov	 edx, DWORD PTR ?gObj@@3PAUOBJECTSTRUCT@@A ; gObj
  01a9a	0f bf 84 0a be
	00 00 00	 movsx	 eax, WORD PTR [edx+ecx+190]
  01aa2	50		 push	 eax
  01aa3	8b 4d 08	 mov	 ecx, DWORD PTR _iUserIndex$[ebp]
  01aa6	69 c9 38 2b 00
	00		 imul	 ecx, 11064		; 00002b38H
  01aac	8b 15 00 00 00
	00		 mov	 edx, DWORD PTR ?gObj@@3PAUOBJECTSTRUCT@@A ; gObj
  01ab2	8d 44 0a 77	 lea	 eax, DWORD PTR [edx+ecx+119]
  01ab6	50		 push	 eax
  01ab7	8b 4d 08	 mov	 ecx, DWORD PTR _iUserIndex$[ebp]
  01aba	69 c9 38 2b 00
	00		 imul	 ecx, 11064		; 00002b38H
  01ac0	8b 15 00 00 00
	00		 mov	 edx, DWORD PTR ?gObj@@3PAUOBJECTSTRUCT@@A ; gObj
  01ac6	8d 44 0a 6c	 lea	 eax, DWORD PTR [edx+ecx+108]
  01aca	50		 push	 eax
  01acb	8b 4d 08	 mov	 ecx, DWORD PTR _iUserIndex$[ebp]
  01ace	69 c9 38 2b 00
	00		 imul	 ecx, 11064		; 00002b38H
  01ad4	8b 15 00 00 00
	00		 mov	 edx, DWORD PTR ?gObj@@3PAUOBJECTSTRUCT@@A ; gObj
  01ada	0f bf 84 0a 46
	01 00 00	 movsx	 eax, WORD PTR [edx+ecx+326]
  01ae2	50		 push	 eax
  01ae3	8b 4d 08	 mov	 ecx, DWORD PTR _iUserIndex$[ebp]
  01ae6	69 c9 38 2b 00
	00		 imul	 ecx, 11064		; 00002b38H
  01aec	8b 15 00 00 00
	00		 mov	 edx, DWORD PTR ?gObj@@3PAUOBJECTSTRUCT@@A ; gObj
  01af2	0f bf 84 0a 44
	01 00 00	 movsx	 eax, WORD PTR [edx+ecx+324]
  01afa	50		 push	 eax
  01afb	8b 4d 08	 mov	 ecx, DWORD PTR _iUserIndex$[ebp]
  01afe	69 c9 38 2b 00
	00		 imul	 ecx, 11064		; 00002b38H
  01b04	8b 15 00 00 00
	00		 mov	 edx, DWORD PTR ?gObj@@3PAUOBJECTSTRUCT@@A ; gObj
  01b0a	0f b6 84 0a 49
	01 00 00	 movzx	 eax, BYTE PTR [edx+ecx+329]
  01b12	50		 push	 eax
  01b13	68 00 00 00 00	 push	 OFFSET ??_C@_0FC@MCCJHJPM@Experience?5?3?5Map?$FL?$CFd?$FN?9?$CI?$CFd?0?$CFd?$CJ?5?$FL?$CFs@
  01b18	ff 15 00 00 00
	00		 call	 DWORD PTR ?LogAddTD@@3P6AXPADZZA ; LogAddTD
  01b1e	83 c4 2c	 add	 esp, 44			; 0000002cH

; 809  : 
; 810  : 	gObjSetExpPetItem(iUserIndex, iAddExp);

  01b21	8b 45 0c	 mov	 eax, DWORD PTR _iAddExp$[ebp]
  01b24	50		 push	 eax
  01b25	8b 4d 08	 mov	 ecx, DWORD PTR _iUserIndex$[ebp]
  01b28	51		 push	 ecx
  01b29	e8 00 00 00 00	 call	 ?gObjSetExpPetItem@@YAXHH@Z ; gObjSetExpPetItem
  01b2e	83 c4 08	 add	 esp, 8

; 811  : 
; 812  : 	if ( gObj[iUserIndex].Level >= MAX_CHAR_LEVEL )

  01b31	8b 45 08	 mov	 eax, DWORD PTR _iUserIndex$[ebp]
  01b34	69 c0 38 2b 00
	00		 imul	 eax, 11064		; 00002b38H
  01b3a	8b 0d 00 00 00
	00		 mov	 ecx, DWORD PTR ?gObj@@3PAUOBJECTSTRUCT@@A ; gObj
  01b40	0f bf 94 01 be
	00 00 00	 movsx	 edx, WORD PTR [ecx+eax+190]
  01b48	81 fa 90 01 00
	00		 cmp	 edx, 400		; 00000190H
  01b4e	7c 29		 jl	 SHORT $LN7@LevelUp

; 813  : 	{
; 814  : 		GCServerMsgStringSend("You have reached max level", gObj[iUserIndex].m_Index, 1);

  01b50	6a 01		 push	 1
  01b52	8b 45 08	 mov	 eax, DWORD PTR _iUserIndex$[ebp]
  01b55	69 c0 38 2b 00
	00		 imul	 eax, 11064		; 00002b38H
  01b5b	8b 0d 00 00 00
	00		 mov	 ecx, DWORD PTR ?gObj@@3PAUOBJECTSTRUCT@@A ; gObj
  01b61	8b 14 01	 mov	 edx, DWORD PTR [ecx+eax]
  01b64	52		 push	 edx
  01b65	68 00 00 00 00	 push	 OFFSET ??_C@_0BL@JIDIIGMB@You?5have?5reached?5max?5level?$AA@
  01b6a	e8 00 00 00 00	 call	 ?GCServerMsgStringSend@@YAXPADHE@Z ; GCServerMsgStringSend
  01b6f	83 c4 0c	 add	 esp, 12			; 0000000cH

; 815  : 		return 0;

  01b72	33 c0		 xor	 eax, eax
  01b74	e9 88 03 00 00	 jmp	 $LN10@LevelUp
$LN7@LevelUp:

; 816  : 	}
; 817  : 
; 818  : 	if ( (gObj[iUserIndex].Experience + iAddExp) < gObj[iUserIndex].NextExp )

  01b79	8b 45 08	 mov	 eax, DWORD PTR _iUserIndex$[ebp]
  01b7c	69 c0 38 2b 00
	00		 imul	 eax, 11064		; 00002b38H
  01b82	8b 0d 00 00 00
	00		 mov	 ecx, DWORD PTR ?gObj@@3PAUOBJECTSTRUCT@@A ; gObj
  01b88	8b 94 01 c8 00
	00 00		 mov	 edx, DWORD PTR [ecx+eax+200]
  01b8f	03 55 0c	 add	 edx, DWORD PTR _iAddExp$[ebp]
  01b92	8b 45 08	 mov	 eax, DWORD PTR _iUserIndex$[ebp]
  01b95	69 c0 38 2b 00
	00		 imul	 eax, 11064		; 00002b38H
  01b9b	8b 0d 00 00 00
	00		 mov	 ecx, DWORD PTR ?gObj@@3PAUOBJECTSTRUCT@@A ; gObj
  01ba1	3b 94 01 cc 00
	00 00		 cmp	 edx, DWORD PTR [ecx+eax+204]
  01ba8	73 34		 jae	 SHORT $LN6@LevelUp

; 819  : 	{
; 820  : 		gObj[iUserIndex].Experience += iAddExp;

  01baa	8b 45 08	 mov	 eax, DWORD PTR _iUserIndex$[ebp]
  01bad	69 c0 38 2b 00
	00		 imul	 eax, 11064		; 00002b38H
  01bb3	8b 0d 00 00 00
	00		 mov	 ecx, DWORD PTR ?gObj@@3PAUOBJECTSTRUCT@@A ; gObj
  01bb9	8b 94 01 c8 00
	00 00		 mov	 edx, DWORD PTR [ecx+eax+200]
  01bc0	03 55 0c	 add	 edx, DWORD PTR _iAddExp$[ebp]
  01bc3	8b 45 08	 mov	 eax, DWORD PTR _iUserIndex$[ebp]
  01bc6	69 c0 38 2b 00
	00		 imul	 eax, 11064		; 00002b38H
  01bcc	8b 0d 00 00 00
	00		 mov	 ecx, DWORD PTR ?gObj@@3PAUOBJECTSTRUCT@@A ; gObj
  01bd2	89 94 01 c8 00
	00 00		 mov	 DWORD PTR [ecx+eax+200], edx

; 821  : 	}
; 822  : 	else

  01bd9	e9 20 03 00 00	 jmp	 $LN5@LevelUp
$LN6@LevelUp:

; 823  : 	{
; 824  : 		iLEFT_EXP = gObj[iUserIndex].Experience + iAddExp - gObj[iUserIndex].NextExp;

  01bde	8b 45 08	 mov	 eax, DWORD PTR _iUserIndex$[ebp]
  01be1	69 c0 38 2b 00
	00		 imul	 eax, 11064		; 00002b38H
  01be7	8b 0d 00 00 00
	00		 mov	 ecx, DWORD PTR ?gObj@@3PAUOBJECTSTRUCT@@A ; gObj
  01bed	8b 94 01 c8 00
	00 00		 mov	 edx, DWORD PTR [ecx+eax+200]
  01bf4	03 55 0c	 add	 edx, DWORD PTR _iAddExp$[ebp]
  01bf7	8b 45 08	 mov	 eax, DWORD PTR _iUserIndex$[ebp]
  01bfa	69 c0 38 2b 00
	00		 imul	 eax, 11064		; 00002b38H
  01c00	8b 0d 00 00 00
	00		 mov	 ecx, DWORD PTR ?gObj@@3PAUOBJECTSTRUCT@@A ; gObj
  01c06	2b 94 01 cc 00
	00 00		 sub	 edx, DWORD PTR [ecx+eax+204]
  01c0d	89 55 f8	 mov	 DWORD PTR _iLEFT_EXP$[ebp], edx

; 825  : 		gObj[iUserIndex].Experience = gObj[iUserIndex].NextExp;

  01c10	8b 45 08	 mov	 eax, DWORD PTR _iUserIndex$[ebp]
  01c13	69 c0 38 2b 00
	00		 imul	 eax, 11064		; 00002b38H
  01c19	8b 4d 08	 mov	 ecx, DWORD PTR _iUserIndex$[ebp]
  01c1c	69 c9 38 2b 00
	00		 imul	 ecx, 11064		; 00002b38H
  01c22	8b 15 00 00 00
	00		 mov	 edx, DWORD PTR ?gObj@@3PAUOBJECTSTRUCT@@A ; gObj
  01c28	8b 35 00 00 00
	00		 mov	 esi, DWORD PTR ?gObj@@3PAUOBJECTSTRUCT@@A ; gObj
  01c2e	8b 84 06 cc 00
	00 00		 mov	 eax, DWORD PTR [esi+eax+204]
  01c35	89 84 0a c8 00
	00 00		 mov	 DWORD PTR [edx+ecx+200], eax

; 826  : 		gObj[iUserIndex].Level++;

  01c3c	8b 45 08	 mov	 eax, DWORD PTR _iUserIndex$[ebp]
  01c3f	69 c0 38 2b 00
	00		 imul	 eax, 11064		; 00002b38H
  01c45	8b 0d 00 00 00
	00		 mov	 ecx, DWORD PTR ?gObj@@3PAUOBJECTSTRUCT@@A ; gObj
  01c4b	66 8b 94 01 be
	00 00 00	 mov	 dx, WORD PTR [ecx+eax+190]
  01c53	66 83 c2 01	 add	 dx, 1
  01c57	8b 45 08	 mov	 eax, DWORD PTR _iUserIndex$[ebp]
  01c5a	69 c0 38 2b 00
	00		 imul	 eax, 11064		; 00002b38H
  01c60	8b 0d 00 00 00
	00		 mov	 ecx, DWORD PTR ?gObj@@3PAUOBJECTSTRUCT@@A ; gObj
  01c66	66 89 94 01 be
	00 00 00	 mov	 WORD PTR [ecx+eax+190], dx

; 827  : 
; 828  : 		if ( gObj[iUserIndex].Class == CLASS_DARKLORD || gObj[iUserIndex].Class == CLASS_MAGUMSA )

  01c6e	8b 45 08	 mov	 eax, DWORD PTR _iUserIndex$[ebp]
  01c71	69 c0 38 2b 00
	00		 imul	 eax, 11064		; 00002b38H
  01c77	8b 0d 00 00 00
	00		 mov	 ecx, DWORD PTR ?gObj@@3PAUOBJECTSTRUCT@@A ; gObj
  01c7d	0f b7 94 01 b8
	00 00 00	 movzx	 edx, WORD PTR [ecx+eax+184]
  01c85	83 fa 04	 cmp	 edx, 4
  01c88	74 1c		 je	 SHORT $LN3@LevelUp
  01c8a	8b 45 08	 mov	 eax, DWORD PTR _iUserIndex$[ebp]
  01c8d	69 c0 38 2b 00
	00		 imul	 eax, 11064		; 00002b38H
  01c93	8b 0d 00 00 00
	00		 mov	 ecx, DWORD PTR ?gObj@@3PAUOBJECTSTRUCT@@A ; gObj
  01c99	0f b7 94 01 b8
	00 00 00	 movzx	 edx, WORD PTR [ecx+eax+184]
  01ca1	83 fa 03	 cmp	 edx, 3
  01ca4	75 31		 jne	 SHORT $LN4@LevelUp
$LN3@LevelUp:

; 829  : 		{
; 830  : 			gObj[iUserIndex].LevelUpPoint += 7;

  01ca6	8b 45 08	 mov	 eax, DWORD PTR _iUserIndex$[ebp]
  01ca9	69 c0 38 2b 00
	00		 imul	 eax, 11064		; 00002b38H
  01caf	8b 0d 00 00 00
	00		 mov	 ecx, DWORD PTR ?gObj@@3PAUOBJECTSTRUCT@@A ; gObj
  01cb5	8b 94 01 c0 00
	00 00		 mov	 edx, DWORD PTR [ecx+eax+192]
  01cbc	83 c2 07	 add	 edx, 7
  01cbf	8b 45 08	 mov	 eax, DWORD PTR _iUserIndex$[ebp]
  01cc2	69 c0 38 2b 00
	00		 imul	 eax, 11064		; 00002b38H
  01cc8	8b 0d 00 00 00
	00		 mov	 ecx, DWORD PTR ?gObj@@3PAUOBJECTSTRUCT@@A ; gObj
  01cce	89 94 01 c0 00
	00 00		 mov	 DWORD PTR [ecx+eax+192], edx

; 831  : 		}
; 832  : 		else

  01cd5	eb 2f		 jmp	 SHORT $LN2@LevelUp
$LN4@LevelUp:

; 833  : 		{
; 834  : 			gObj[iUserIndex].LevelUpPoint += 5;

  01cd7	8b 45 08	 mov	 eax, DWORD PTR _iUserIndex$[ebp]
  01cda	69 c0 38 2b 00
	00		 imul	 eax, 11064		; 00002b38H
  01ce0	8b 0d 00 00 00
	00		 mov	 ecx, DWORD PTR ?gObj@@3PAUOBJECTSTRUCT@@A ; gObj
  01ce6	8b 94 01 c0 00
	00 00		 mov	 edx, DWORD PTR [ecx+eax+192]
  01ced	83 c2 05	 add	 edx, 5
  01cf0	8b 45 08	 mov	 eax, DWORD PTR _iUserIndex$[ebp]
  01cf3	69 c0 38 2b 00
	00		 imul	 eax, 11064		; 00002b38H
  01cf9	8b 0d 00 00 00
	00		 mov	 ecx, DWORD PTR ?gObj@@3PAUOBJECTSTRUCT@@A ; gObj
  01cff	89 94 01 c0 00
	00 00		 mov	 DWORD PTR [ecx+eax+192], edx
$LN2@LevelUp:

; 835  : 		}
; 836  : 
; 837  : 		if ( gObj[iUserIndex].PlusStatQuestClear != false )

  01d06	8b 45 08	 mov	 eax, DWORD PTR _iUserIndex$[ebp]
  01d09	69 c0 38 2b 00
	00		 imul	 eax, 11064		; 00002b38H
  01d0f	8b 0d 00 00 00
	00		 mov	 ecx, DWORD PTR ?gObj@@3PAUOBJECTSTRUCT@@A ; gObj
  01d15	0f b6 94 01 a5
	00 00 00	 movzx	 edx, BYTE PTR [ecx+eax+165]
  01d1d	85 d2		 test	 edx, edx
  01d1f	74 7c		 je	 SHORT $LN1@LevelUp

; 838  : 		{
; 839  : 			gObj[iUserIndex].LevelUpPoint++;

  01d21	8b 45 08	 mov	 eax, DWORD PTR _iUserIndex$[ebp]
  01d24	69 c0 38 2b 00
	00		 imul	 eax, 11064		; 00002b38H
  01d2a	8b 0d 00 00 00
	00		 mov	 ecx, DWORD PTR ?gObj@@3PAUOBJECTSTRUCT@@A ; gObj
  01d30	8b 94 01 c0 00
	00 00		 mov	 edx, DWORD PTR [ecx+eax+192]
  01d37	83 c2 01	 add	 edx, 1
  01d3a	8b 45 08	 mov	 eax, DWORD PTR _iUserIndex$[ebp]
  01d3d	69 c0 38 2b 00
	00		 imul	 eax, 11064		; 00002b38H
  01d43	8b 0d 00 00 00
	00		 mov	 ecx, DWORD PTR ?gObj@@3PAUOBJECTSTRUCT@@A ; gObj
  01d49	89 94 01 c0 00
	00 00		 mov	 DWORD PTR [ecx+eax+192], edx

; 840  : 
; 841  : 			LogAddTD("[ IMPERIAL FORT ][ ExpPrize ] [%s][%s] LevelUp PlusStatQuest Clear AddStat %d",
; 842  : 				gObj[iUserIndex].AccountID, gObj[iUserIndex].Name,
; 843  : 				gObj[iUserIndex].LevelUpPoint);

  01d50	8b 45 08	 mov	 eax, DWORD PTR _iUserIndex$[ebp]
  01d53	69 c0 38 2b 00
	00		 imul	 eax, 11064		; 00002b38H
  01d59	8b 0d 00 00 00
	00		 mov	 ecx, DWORD PTR ?gObj@@3PAUOBJECTSTRUCT@@A ; gObj
  01d5f	8b 94 01 c0 00
	00 00		 mov	 edx, DWORD PTR [ecx+eax+192]
  01d66	52		 push	 edx
  01d67	8b 45 08	 mov	 eax, DWORD PTR _iUserIndex$[ebp]
  01d6a	69 c0 38 2b 00
	00		 imul	 eax, 11064		; 00002b38H
  01d70	8b 0d 00 00 00
	00		 mov	 ecx, DWORD PTR ?gObj@@3PAUOBJECTSTRUCT@@A ; gObj
  01d76	8d 54 01 77	 lea	 edx, DWORD PTR [ecx+eax+119]
  01d7a	52		 push	 edx
  01d7b	8b 45 08	 mov	 eax, DWORD PTR _iUserIndex$[ebp]
  01d7e	69 c0 38 2b 00
	00		 imul	 eax, 11064		; 00002b38H
  01d84	8b 0d 00 00 00
	00		 mov	 ecx, DWORD PTR ?gObj@@3PAUOBJECTSTRUCT@@A ; gObj
  01d8a	8d 54 01 6c	 lea	 edx, DWORD PTR [ecx+eax+108]
  01d8e	52		 push	 edx
  01d8f	68 00 00 00 00	 push	 OFFSET ??_C@_0EO@CEPDBKBN@?$FL?5IMPERIAL?5FORT?5?$FN?$FL?5ExpPrize?5?$FN?5?$FL?$CF@
  01d94	ff 15 00 00 00
	00		 call	 DWORD PTR ?LogAddTD@@3P6AXPADZZA ; LogAddTD
  01d9a	83 c4 10	 add	 esp, 16			; 00000010H
$LN1@LevelUp:

; 844  : 		}
; 845  : 
; 846  : 		gObj[iUserIndex].MaxLife += DCInfo.DefClass[gObj[iUserIndex].Class].LevelLife;

  01d9d	8b 45 08	 mov	 eax, DWORD PTR _iUserIndex$[ebp]
  01da0	69 c0 38 2b 00
	00		 imul	 eax, 11064		; 00002b38H
  01da6	8b 4d 08	 mov	 ecx, DWORD PTR _iUserIndex$[ebp]
  01da9	69 c9 38 2b 00
	00		 imul	 ecx, 11064		; 00002b38H
  01daf	8b 15 00 00 00
	00		 mov	 edx, DWORD PTR ?gObj@@3PAUOBJECTSTRUCT@@A ; gObj
  01db5	0f b7 8c 0a b8
	00 00 00	 movzx	 ecx, WORD PTR [edx+ecx+184]
  01dbd	69 c9 c8 0b 00
	00		 imul	 ecx, 3016		; 00000bc8H
  01dc3	8b 15 00 00 00
	00		 mov	 edx, DWORD PTR ?gObj@@3PAUOBJECTSTRUCT@@A ; gObj
  01dc9	d9 84 02 00 01
	00 00		 fld	 DWORD PTR [edx+eax+256]
  01dd0	d8 81 10 00 00
	00		 fadd	 DWORD PTR ?DCInfo@@3Vclassdef@@A[ecx+16]
  01dd6	8b 45 08	 mov	 eax, DWORD PTR _iUserIndex$[ebp]
  01dd9	69 c0 38 2b 00
	00		 imul	 eax, 11064		; 00002b38H
  01ddf	8b 0d 00 00 00
	00		 mov	 ecx, DWORD PTR ?gObj@@3PAUOBJECTSTRUCT@@A ; gObj
  01de5	d9 9c 01 00 01
	00 00		 fstp	 DWORD PTR [ecx+eax+256]

; 847  : 		gObj[iUserIndex].MaxMana += DCInfo.DefClass[gObj[iUserIndex].Class].LevelMana;

  01dec	8b 45 08	 mov	 eax, DWORD PTR _iUserIndex$[ebp]
  01def	69 c0 38 2b 00
	00		 imul	 eax, 11064		; 00002b38H
  01df5	8b 4d 08	 mov	 ecx, DWORD PTR _iUserIndex$[ebp]
  01df8	69 c9 38 2b 00
	00		 imul	 ecx, 11064		; 00002b38H
  01dfe	8b 15 00 00 00
	00		 mov	 edx, DWORD PTR ?gObj@@3PAUOBJECTSTRUCT@@A ; gObj
  01e04	0f b7 8c 0a b8
	00 00 00	 movzx	 ecx, WORD PTR [edx+ecx+184]
  01e0c	69 c9 c8 0b 00
	00		 imul	 ecx, 3016		; 00000bc8H
  01e12	8b 15 00 00 00
	00		 mov	 edx, DWORD PTR ?gObj@@3PAUOBJECTSTRUCT@@A ; gObj
  01e18	d9 84 02 14 01
	00 00		 fld	 DWORD PTR [edx+eax+276]
  01e1f	d8 81 1c 00 00
	00		 fadd	 DWORD PTR ?DCInfo@@3Vclassdef@@A[ecx+28]
  01e25	8b 45 08	 mov	 eax, DWORD PTR _iUserIndex$[ebp]
  01e28	69 c0 38 2b 00
	00		 imul	 eax, 11064		; 00002b38H
  01e2e	8b 0d 00 00 00
	00		 mov	 ecx, DWORD PTR ?gObj@@3PAUOBJECTSTRUCT@@A ; gObj
  01e34	d9 9c 01 14 01
	00 00		 fstp	 DWORD PTR [ecx+eax+276]

; 848  : 		gObj[iUserIndex].Life = gObj[iUserIndex].MaxLife;

  01e3b	8b 45 08	 mov	 eax, DWORD PTR _iUserIndex$[ebp]
  01e3e	69 c0 38 2b 00
	00		 imul	 eax, 11064		; 00002b38H
  01e44	8b 4d 08	 mov	 ecx, DWORD PTR _iUserIndex$[ebp]
  01e47	69 c9 38 2b 00
	00		 imul	 ecx, 11064		; 00002b38H
  01e4d	8b 15 00 00 00
	00		 mov	 edx, DWORD PTR ?gObj@@3PAUOBJECTSTRUCT@@A ; gObj
  01e53	8b 35 00 00 00
	00		 mov	 esi, DWORD PTR ?gObj@@3PAUOBJECTSTRUCT@@A ; gObj
  01e59	d9 84 06 00 01
	00 00		 fld	 DWORD PTR [esi+eax+256]
  01e60	d9 9c 0a fc 00
	00 00		 fstp	 DWORD PTR [edx+ecx+252]

; 849  : 		gObj[iUserIndex].Mana = gObj[iUserIndex].MaxMana;

  01e67	8b 45 08	 mov	 eax, DWORD PTR _iUserIndex$[ebp]
  01e6a	69 c0 38 2b 00
	00		 imul	 eax, 11064		; 00002b38H
  01e70	8b 4d 08	 mov	 ecx, DWORD PTR _iUserIndex$[ebp]
  01e73	69 c9 38 2b 00
	00		 imul	 ecx, 11064		; 00002b38H
  01e79	8b 15 00 00 00
	00		 mov	 edx, DWORD PTR ?gObj@@3PAUOBJECTSTRUCT@@A ; gObj
  01e7f	8b 35 00 00 00
	00		 mov	 esi, DWORD PTR ?gObj@@3PAUOBJECTSTRUCT@@A ; gObj
  01e85	d9 84 06 14 01
	00 00		 fld	 DWORD PTR [esi+eax+276]
  01e8c	d9 9c 0a 10 01
	00 00		 fstp	 DWORD PTR [edx+ecx+272]

; 850  : 		gObjNextExpCal(&gObj[iUserIndex]);

  01e93	8b 45 08	 mov	 eax, DWORD PTR _iUserIndex$[ebp]
  01e96	69 c0 38 2b 00
	00		 imul	 eax, 11064		; 00002b38H
  01e9c	03 05 00 00 00
	00		 add	 eax, DWORD PTR ?gObj@@3PAUOBJECTSTRUCT@@A ; gObj
  01ea2	50		 push	 eax
  01ea3	e8 00 00 00 00	 call	 ?gObjNextExpCal@@YAXPAUOBJECTSTRUCT@@@Z ; gObjNextExpCal
  01ea8	83 c4 04	 add	 esp, 4

; 851  : 		gObjSetBP(gObj[iUserIndex].m_Index);

  01eab	8b 45 08	 mov	 eax, DWORD PTR _iUserIndex$[ebp]
  01eae	69 c0 38 2b 00
	00		 imul	 eax, 11064		; 00002b38H
  01eb4	8b 0d 00 00 00
	00		 mov	 ecx, DWORD PTR ?gObj@@3PAUOBJECTSTRUCT@@A ; gObj
  01eba	8b 14 01	 mov	 edx, DWORD PTR [ecx+eax]
  01ebd	52		 push	 edx
  01ebe	e8 00 00 00 00	 call	 ?gObjSetBP@@YAXH@Z	; gObjSetBP
  01ec3	83 c4 04	 add	 esp, 4

; 852  : 		GCLevelUpMsgSend(gObj[iUserIndex].m_Index, 1);

  01ec6	6a 01		 push	 1
  01ec8	8b 45 08	 mov	 eax, DWORD PTR _iUserIndex$[ebp]
  01ecb	69 c0 38 2b 00
	00		 imul	 eax, 11064		; 00002b38H
  01ed1	8b 0d 00 00 00
	00		 mov	 ecx, DWORD PTR ?gObj@@3PAUOBJECTSTRUCT@@A ; gObj
  01ed7	8b 14 01	 mov	 edx, DWORD PTR [ecx+eax]
  01eda	52		 push	 edx
  01edb	e8 00 00 00 00	 call	 ?GCLevelUpMsgSend@@YAXHH@Z ; GCLevelUpMsgSend
  01ee0	83 c4 08	 add	 esp, 8

; 853  : 		gObjCalcMaxLifePower(gObj[iUserIndex].m_Index);

  01ee3	8b 45 08	 mov	 eax, DWORD PTR _iUserIndex$[ebp]
  01ee6	69 c0 38 2b 00
	00		 imul	 eax, 11064		; 00002b38H
  01eec	8b 0d 00 00 00
	00		 mov	 ecx, DWORD PTR ?gObj@@3PAUOBJECTSTRUCT@@A ; gObj
  01ef2	8b 14 01	 mov	 edx, DWORD PTR [ecx+eax]
  01ef5	52		 push	 edx
  01ef6	e8 00 00 00 00	 call	 ?gObjCalcMaxLifePower@@YAXH@Z ; gObjCalcMaxLifePower
  01efb	83 c4 04	 add	 esp, 4
$LN5@LevelUp:

; 854  : 	}
; 855  : 
; 856  : 	return iLEFT_EXP;

  01efe	8b 45 f8	 mov	 eax, DWORD PTR _iLEFT_EXP$[ebp]
$LN10@LevelUp:

; 857  : }

  01f01	5f		 pop	 edi
  01f02	5e		 pop	 esi
  01f03	5b		 pop	 ebx
  01f04	8b e5		 mov	 esp, ebp
  01f06	5d		 pop	 ebp
  01f07	c2 08 00	 ret	 8
?LevelUp@CImperial@@QAEHHH@Z ENDP			; CImperial::LevelUp
_TEXT	ENDS
PUBLIC	__$ArrayPad$
PUBLIC	?SendFailMessage@CImperial@@QAEXH@Z		; CImperial::SendFailMessage
; Function compile flags: /Odtp /ZI
_TEXT	SEGMENT
_pMsg$ = -24						; size = 16
_this$ = -8						; size = 4
__$ArrayPad$ = -4					; size = 4
_aIndex$ = 8						; size = 4
?SendFailMessage@CImperial@@QAEXH@Z PROC		; CImperial::SendFailMessage
; _this$ = ecx

; 860  : {

  01f10	55		 push	 ebp
  01f11	8b ec		 mov	 ebp, esp
  01f13	83 ec 58	 sub	 esp, 88			; 00000058H
  01f16	a1 00 00 00 00	 mov	 eax, DWORD PTR ___security_cookie
  01f1b	33 c5		 xor	 eax, ebp
  01f1d	89 45 fc	 mov	 DWORD PTR __$ArrayPad$[ebp], eax
  01f20	53		 push	 ebx
  01f21	56		 push	 esi
  01f22	57		 push	 edi
  01f23	89 4d f8	 mov	 DWORD PTR _this$[ebp], ecx

; 861  : 	PMSG_FORT_END_MESSAGE pMsg = {0};

  01f26	c6 45 e8 00	 mov	 BYTE PTR _pMsg$[ebp], 0
  01f2a	33 c0		 xor	 eax, eax
  01f2c	89 45 e9	 mov	 DWORD PTR _pMsg$[ebp+1], eax
  01f2f	89 45 ed	 mov	 DWORD PTR _pMsg$[ebp+5], eax
  01f32	89 45 f1	 mov	 DWORD PTR _pMsg$[ebp+9], eax
  01f35	66 89 45 f5	 mov	 WORD PTR _pMsg$[ebp+13], ax
  01f39	88 45 f7	 mov	 BYTE PTR _pMsg$[ebp+15], al

; 862  : 	pMsg.Type = 0;

  01f3c	c6 45 ec 00	 mov	 BYTE PTR _pMsg$[ebp+4], 0

; 863  : 	DataSend(aIndex, (LPBYTE)&pMsg, pMsg.h.size);

  01f40	0f b6 45 e9	 movzx	 eax, BYTE PTR _pMsg$[ebp+1]
  01f44	50		 push	 eax
  01f45	8d 4d e8	 lea	 ecx, DWORD PTR _pMsg$[ebp]
  01f48	51		 push	 ecx
  01f49	8b 55 08	 mov	 edx, DWORD PTR _aIndex$[ebp]
  01f4c	52		 push	 edx
  01f4d	e8 00 00 00 00	 call	 ?DataSend@@YAHHPAEK@Z	; DataSend
  01f52	83 c4 0c	 add	 esp, 12			; 0000000cH

; 864  : }

  01f55	5f		 pop	 edi
  01f56	5e		 pop	 esi
  01f57	5b		 pop	 ebx
  01f58	8b 4d fc	 mov	 ecx, DWORD PTR __$ArrayPad$[ebp]
  01f5b	33 cd		 xor	 ecx, ebp
  01f5d	e8 00 00 00 00	 call	 @__security_check_cookie@4
  01f62	8b e5		 mov	 esp, ebp
  01f64	5d		 pop	 ebp
  01f65	c2 04 00	 ret	 4
?SendFailMessage@CImperial@@QAEXH@Z ENDP		; CImperial::SendFailMessage
_TEXT	ENDS
PUBLIC	?GateAttack@CImperial@@QAE_NH@Z			; CImperial::GateAttack
; Function compile flags: /Odtp /ZI
_TEXT	SEGMENT
tv71 = -80						; size = 4
_iCurrent$230963 = -12					; size = 4
_iPhaze$230962 = -8					; size = 4
_this$ = -4						; size = 4
_Class$ = 8						; size = 4
?GateAttack@CImperial@@QAE_NH@Z PROC			; CImperial::GateAttack
; _this$ = ecx

; 867  : {

  01f70	55		 push	 ebp
  01f71	8b ec		 mov	 ebp, esp
  01f73	83 ec 50	 sub	 esp, 80			; 00000050H
  01f76	53		 push	 ebx
  01f77	56		 push	 esi
  01f78	57		 push	 edi
  01f79	89 4d fc	 mov	 DWORD PTR _this$[ebp], ecx

; 868  : 	if( Class == 524 || 
; 869  : 	    Class == 525 || 
; 870  : 		Class == 526 || 
; 871  : 		Class == 527 ||
; 872  : 		Class == 528 )

  01f7c	81 7d 08 0c 02
	00 00		 cmp	 DWORD PTR _Class$[ebp], 524 ; 0000020cH
  01f83	74 28		 je	 SHORT $LN14@GateAttack
  01f85	81 7d 08 0d 02
	00 00		 cmp	 DWORD PTR _Class$[ebp], 525 ; 0000020dH
  01f8c	74 1f		 je	 SHORT $LN14@GateAttack
  01f8e	81 7d 08 0e 02
	00 00		 cmp	 DWORD PTR _Class$[ebp], 526 ; 0000020eH
  01f95	74 16		 je	 SHORT $LN14@GateAttack
  01f97	81 7d 08 0f 02
	00 00		 cmp	 DWORD PTR _Class$[ebp], 527 ; 0000020fH
  01f9e	74 0d		 je	 SHORT $LN14@GateAttack
  01fa0	81 7d 08 10 02
	00 00		 cmp	 DWORD PTR _Class$[ebp], 528 ; 00000210H
  01fa7	0f 85 29 01 00
	00		 jne	 $LN15@GateAttack
$LN14@GateAttack:

; 873  : 	{
; 874  : 			int iPhaze = 0;

  01fad	c7 45 f8 00 00
	00 00		 mov	 DWORD PTR _iPhaze$230962[ebp], 0

; 875  : 			int iCurrent = 0;

  01fb4	c7 45 f4 00 00
	00 00		 mov	 DWORD PTR _iCurrent$230963[ebp], 0

; 876  : 			switch ( this->m_ImperialData.Day )

  01fbb	8b 45 fc	 mov	 eax, DWORD PTR _this$[ebp]
  01fbe	8b 88 30 af 00
	00		 mov	 ecx, DWORD PTR [eax+44848]
  01fc4	89 4d b0	 mov	 DWORD PTR tv71[ebp], ecx
  01fc7	8b 55 b0	 mov	 edx, DWORD PTR tv71[ebp]
  01fca	83 ea 01	 sub	 edx, 1
  01fcd	89 55 b0	 mov	 DWORD PTR tv71[ebp], edx
  01fd0	83 7d b0 06	 cmp	 DWORD PTR tv71[ebp], 6
  01fd4	0f 87 c4 00 00
	00		 ja	 $LN12@GateAttack
  01fda	8b 45 b0	 mov	 eax, DWORD PTR tv71[ebp]
  01fdd	ff 24 85 00 00
	00 00		 jmp	 DWORD PTR $LN18@GateAttack[eax*4]
$LN11@GateAttack:

; 877  : 			{
; 878  : 				case 1:
; 879  : 					{
; 880  : 						iPhaze = this->m_BattleOfDestler.m_BattleData.PhazeStep;

  01fe4	8b 45 fc	 mov	 eax, DWORD PTR _this$[ebp]
  01fe7	8b 88 84 af 00
	00		 mov	 ecx, DWORD PTR [eax+44932]
  01fed	89 4d f8	 mov	 DWORD PTR _iPhaze$230962[ebp], ecx

; 881  : 						iCurrent = this->m_BattleOfDestler.m_BattleData.CurrentState;

  01ff0	8b 45 fc	 mov	 eax, DWORD PTR _this$[ebp]
  01ff3	8b 88 74 af 00
	00		 mov	 ecx, DWORD PTR [eax+44916]
  01ff9	89 4d f4	 mov	 DWORD PTR _iCurrent$230963[ebp], ecx

; 882  : 					}
; 883  : 					break;

  01ffc	e9 9d 00 00 00	 jmp	 $LN12@GateAttack
$LN10@GateAttack:

; 884  : 				case 2:
; 885  : 					{
; 886  : 						iPhaze = this->m_BattleOfVermont.m_BattleData.PhazeStep;

  02001	8b 45 fc	 mov	 eax, DWORD PTR _this$[ebp]
  02004	8b 88 e0 af 00
	00		 mov	 ecx, DWORD PTR [eax+45024]
  0200a	89 4d f8	 mov	 DWORD PTR _iPhaze$230962[ebp], ecx

; 887  : 						iCurrent = this->m_BattleOfVermont.m_BattleData.CurrentState;

  0200d	8b 45 fc	 mov	 eax, DWORD PTR _this$[ebp]
  02010	8b 88 d0 af 00
	00		 mov	 ecx, DWORD PTR [eax+45008]
  02016	89 4d f4	 mov	 DWORD PTR _iCurrent$230963[ebp], ecx

; 888  : 					}
; 889  : 					break;

  02019	e9 80 00 00 00	 jmp	 $LN12@GateAttack
$LN9@GateAttack:

; 890  : 				case 3:
; 891  : 					{
; 892  : 					iPhaze = this->m_BattleOfKato.m_BattleData.PhazeStep;

  0201e	8b 45 fc	 mov	 eax, DWORD PTR _this$[ebp]
  02021	8b 88 3c b0 00
	00		 mov	 ecx, DWORD PTR [eax+45116]
  02027	89 4d f8	 mov	 DWORD PTR _iPhaze$230962[ebp], ecx

; 893  : 					iCurrent = this->m_BattleOfKato.m_BattleData.CurrentState;

  0202a	8b 45 fc	 mov	 eax, DWORD PTR _this$[ebp]
  0202d	8b 88 2c b0 00
	00		 mov	 ecx, DWORD PTR [eax+45100]
  02033	89 4d f4	 mov	 DWORD PTR _iCurrent$230963[ebp], ecx

; 894  : 					}
; 895  : 					break;

  02036	eb 66		 jmp	 SHORT $LN12@GateAttack
$LN8@GateAttack:

; 896  : 				case 4:
; 897  : 					{
; 898  : 					iPhaze = this->m_BattleOfGalia.m_BattleData.PhazeStep;

  02038	8b 45 fc	 mov	 eax, DWORD PTR _this$[ebp]
  0203b	8b 88 98 b0 00
	00		 mov	 ecx, DWORD PTR [eax+45208]
  02041	89 4d f8	 mov	 DWORD PTR _iPhaze$230962[ebp], ecx

; 899  : 					iCurrent = this->m_BattleOfGalia.m_BattleData.CurrentState;

  02044	8b 45 fc	 mov	 eax, DWORD PTR _this$[ebp]
  02047	8b 88 88 b0 00
	00		 mov	 ecx, DWORD PTR [eax+45192]
  0204d	89 4d f4	 mov	 DWORD PTR _iCurrent$230963[ebp], ecx

; 900  : 					}
; 901  : 					break;

  02050	eb 4c		 jmp	 SHORT $LN12@GateAttack
$LN7@GateAttack:

; 902  : 				case 5:
; 903  : 					{
; 904  : 					iPhaze = this->m_BattleOfErkanne.m_BattleData.PhazeStep;

  02052	8b 45 fc	 mov	 eax, DWORD PTR _this$[ebp]
  02055	8b 88 f4 b0 00
	00		 mov	 ecx, DWORD PTR [eax+45300]
  0205b	89 4d f8	 mov	 DWORD PTR _iPhaze$230962[ebp], ecx

; 905  : 					iCurrent = this->m_BattleOfErkanne.m_BattleData.CurrentState;

  0205e	8b 45 fc	 mov	 eax, DWORD PTR _this$[ebp]
  02061	8b 88 e4 b0 00
	00		 mov	 ecx, DWORD PTR [eax+45284]
  02067	89 4d f4	 mov	 DWORD PTR _iCurrent$230963[ebp], ecx

; 906  : 					}
; 907  : 					break;

  0206a	eb 32		 jmp	 SHORT $LN12@GateAttack
$LN6@GateAttack:

; 908  : 				case 6:
; 909  : 					{
; 910  : 					iPhaze = this->m_BattleOfRaymond.m_BattleData.PhazeStep;

  0206c	8b 45 fc	 mov	 eax, DWORD PTR _this$[ebp]
  0206f	8b 88 44 b1 00
	00		 mov	 ecx, DWORD PTR [eax+45380]
  02075	89 4d f8	 mov	 DWORD PTR _iPhaze$230962[ebp], ecx

; 911  : 					iCurrent = this->m_BattleOfRaymond.m_BattleData.CurrentState;

  02078	8b 45 fc	 mov	 eax, DWORD PTR _this$[ebp]
  0207b	8b 88 34 b1 00
	00		 mov	 ecx, DWORD PTR [eax+45364]
  02081	89 4d f4	 mov	 DWORD PTR _iCurrent$230963[ebp], ecx

; 912  : 					}
; 913  : 					break;

  02084	eb 18		 jmp	 SHORT $LN12@GateAttack
$LN5@GateAttack:

; 914  : 				case 7:
; 915  : 					{
; 916  : 					iPhaze = this->m_BattleOfGaion.m_BattleData.PhazeStep;

  02086	8b 45 fc	 mov	 eax, DWORD PTR _this$[ebp]
  02089	8b 88 98 b1 00
	00		 mov	 ecx, DWORD PTR [eax+45464]
  0208f	89 4d f8	 mov	 DWORD PTR _iPhaze$230962[ebp], ecx

; 917  : 					iCurrent = this->m_BattleOfGaion.m_BattleData.CurrentState;

  02092	8b 45 fc	 mov	 eax, DWORD PTR _this$[ebp]
  02095	8b 88 88 b1 00
	00		 mov	 ecx, DWORD PTR [eax+45448]
  0209b	89 4d f4	 mov	 DWORD PTR _iCurrent$230963[ebp], ecx
$LN12@GateAttack:

; 918  : 					}
; 919  : 					break;
; 920  : 			}
; 921  : 			if(iCurrent == 1 || iCurrent == 3 || iCurrent == 5 || iCurrent == 7 || iPhaze == 1) return false;

  0209e	83 7d f4 01	 cmp	 DWORD PTR _iCurrent$230963[ebp], 1
  020a2	74 18		 je	 SHORT $LN3@GateAttack
  020a4	83 7d f4 03	 cmp	 DWORD PTR _iCurrent$230963[ebp], 3
  020a8	74 12		 je	 SHORT $LN3@GateAttack
  020aa	83 7d f4 05	 cmp	 DWORD PTR _iCurrent$230963[ebp], 5
  020ae	74 0c		 je	 SHORT $LN3@GateAttack
  020b0	83 7d f4 07	 cmp	 DWORD PTR _iCurrent$230963[ebp], 7
  020b4	74 06		 je	 SHORT $LN3@GateAttack
  020b6	83 7d f8 01	 cmp	 DWORD PTR _iPhaze$230962[ebp], 1
  020ba	75 04		 jne	 SHORT $LN4@GateAttack
$LN3@GateAttack:
  020bc	32 c0		 xor	 al, al
  020be	eb 18		 jmp	 SHORT $LN16@GateAttack
$LN4@GateAttack:

; 922  : 			if(iPhaze == 0 || iPhaze == 2 || iPhaze == 3) return true;

  020c0	83 7d f8 00	 cmp	 DWORD PTR _iPhaze$230962[ebp], 0
  020c4	74 0c		 je	 SHORT $LN1@GateAttack
  020c6	83 7d f8 02	 cmp	 DWORD PTR _iPhaze$230962[ebp], 2
  020ca	74 06		 je	 SHORT $LN1@GateAttack
  020cc	83 7d f8 03	 cmp	 DWORD PTR _iPhaze$230962[ebp], 3
  020d0	75 04		 jne	 SHORT $LN15@GateAttack
$LN1@GateAttack:
  020d2	b0 01		 mov	 al, 1
  020d4	eb 02		 jmp	 SHORT $LN16@GateAttack
$LN15@GateAttack:

; 923  : 		}
; 924  : 	return true;

  020d6	b0 01		 mov	 al, 1
$LN16@GateAttack:

; 925  : }

  020d8	5f		 pop	 edi
  020d9	5e		 pop	 esi
  020da	5b		 pop	 ebx
  020db	8b e5		 mov	 esp, ebp
  020dd	5d		 pop	 ebp
  020de	c2 04 00	 ret	 4
  020e1	8d 49 00	 npad	 3
$LN18@GateAttack:
  020e4	00 00 00 00	 DD	 $LN11@GateAttack
  020e8	00 00 00 00	 DD	 $LN10@GateAttack
  020ec	00 00 00 00	 DD	 $LN9@GateAttack
  020f0	00 00 00 00	 DD	 $LN8@GateAttack
  020f4	00 00 00 00	 DD	 $LN7@GateAttack
  020f8	00 00 00 00	 DD	 $LN6@GateAttack
  020fc	00 00 00 00	 DD	 $LN5@GateAttack
?GateAttack@CImperial@@QAE_NH@Z ENDP			; CImperial::GateAttack
_TEXT	ENDS
PUBLIC	??_C@_0BI@HDMMBKBM@?$CFd?5?$CFd?5?$CFd?5?$CFd?5?$CFd?5?$CFd?5?$CFd?5?$CFd?$AA@ ; `string'
PUBLIC	??_C@_0EF@HFJNMHEI@?$FLMossMerchant?$FN?5Info?5file?5Load?5Fa@ ; `string'
PUBLIC	??_C@_0P@BPENEPNJ@CRITICAL?5ERROR?$AA@		; `string'
PUBLIC	??_C@_0CA@LLHPDGKO@?4?4?2Data?2Events?2ImperialFort?4ini?$AA@ ; `string'
PUBLIC	??_C@_01KDCPPGHE@r?$AA@				; `string'
PUBLIC	__$ArrayPad$
PUBLIC	?LoadRewardItem@CImperial@@QAEXXZ		; CImperial::LoadRewardItem
EXTRN	_fclose:PROC
EXTRN	_sscanf:PROC
EXTRN	?Ex_IsBadFileLine@@YA_NPADAAH@Z:PROC		; Ex_IsBadFileLine
EXTRN	_fgets:PROC
EXTRN	_feof:PROC
EXTRN	_memset:PROC
EXTRN	__imp__ExitProcess@4:PROC
EXTRN	__imp__MessageBoxA@16:PROC
EXTRN	_fopen:PROC
;	COMDAT ??_C@_0BI@HDMMBKBM@?$CFd?5?$CFd?5?$CFd?5?$CFd?5?$CFd?5?$CFd?5?$CFd?5?$CFd?$AA@
CONST	SEGMENT
??_C@_0BI@HDMMBKBM@?$CFd?5?$CFd?5?$CFd?5?$CFd?5?$CFd?5?$CFd?5?$CFd?5?$CFd?$AA@ DB '%'
	DB	'd %d %d %d %d %d %d %d', 00H		; `string'
CONST	ENDS
;	COMDAT ??_C@_0EF@HFJNMHEI@?$FLMossMerchant?$FN?5Info?5file?5Load?5Fa@
CONST	SEGMENT
??_C@_0EF@HFJNMHEI@?$FLMossMerchant?$FN?5Info?5file?5Load?5Fa@ DB '[MossM'
	DB	'erchant] Info file Load Fail [..\Data\Events\ImperialFort.ini'
	DB	']', 00H					; `string'
CONST	ENDS
;	COMDAT ??_C@_0P@BPENEPNJ@CRITICAL?5ERROR?$AA@
CONST	SEGMENT
??_C@_0P@BPENEPNJ@CRITICAL?5ERROR?$AA@ DB 'CRITICAL ERROR', 00H ; `string'
CONST	ENDS
;	COMDAT ??_C@_0CA@LLHPDGKO@?4?4?2Data?2Events?2ImperialFort?4ini?$AA@
CONST	SEGMENT
??_C@_0CA@LLHPDGKO@?4?4?2Data?2Events?2ImperialFort?4ini?$AA@ DB '..\Data'
	DB	'\Events\ImperialFort.ini', 00H		; `string'
CONST	ENDS
;	COMDAT ??_C@_01KDCPPGHE@r?$AA@
CONST	SEGMENT
??_C@_01KDCPPGHE@r?$AA@ DB 'r', 00H			; `string'
; Function compile flags: /Odtp /ZI
CONST	ENDS
_TEXT	SEGMENT
_a$231029 = -532					; size = 4
_n$231028 = -528					; size = 32
_a$231025 = -496					; size = 4
_n$231024 = -492					; size = 32
_a$231021 = -460					; size = 4
_n$231020 = -456					; size = 32
_a$231017 = -424					; size = 4
_n$231016 = -420					; size = 32
_a$231013 = -388					; size = 4
_n$231012 = -384					; size = 32
_a$231009 = -352					; size = 4
_n$231008 = -348					; size = 32
_a$231004 = -316					; size = 4
_n$231003 = -312					; size = 32
_Flag$ = -280						; size = 4
_Buff$ = -276						; size = 256
_file$ = -20						; size = 4
_j$230986 = -16						; size = 4
_i$230982 = -12						; size = 4
_this$ = -8						; size = 4
__$ArrayPad$ = -4					; size = 4
?LoadRewardItem@CImperial@@QAEXXZ PROC			; CImperial::LoadRewardItem
; _this$ = ecx

; 928  : {

  02100	55		 push	 ebp
  02101	8b ec		 mov	 ebp, esp
  02103	81 ec 54 02 00
	00		 sub	 esp, 596		; 00000254H
  02109	a1 00 00 00 00	 mov	 eax, DWORD PTR ___security_cookie
  0210e	33 c5		 xor	 eax, ebp
  02110	89 45 fc	 mov	 DWORD PTR __$ArrayPad$[ebp], eax
  02113	53		 push	 ebx
  02114	56		 push	 esi
  02115	57		 push	 edi
  02116	89 4d f8	 mov	 DWORD PTR _this$[ebp], ecx

; 929  : 	for(int i=0;i<7;i++)

  02119	c7 45 f4 00 00
	00 00		 mov	 DWORD PTR _i$230982[ebp], 0
  02120	eb 09		 jmp	 SHORT $LN23@LoadReward
$LN22@LoadReward:
  02122	8b 45 f4	 mov	 eax, DWORD PTR _i$230982[ebp]
  02125	83 c0 01	 add	 eax, 1
  02128	89 45 f4	 mov	 DWORD PTR _i$230982[ebp], eax
$LN23@LoadReward:
  0212b	83 7d f4 07	 cmp	 DWORD PTR _i$230982[ebp], 7
  0212f	0f 8d 18 01 00
	00		 jge	 $LN21@LoadReward

; 930  : 	{
; 931  : 		for(int j=0;j<200;j++)

  02135	c7 45 f0 00 00
	00 00		 mov	 DWORD PTR _j$230986[ebp], 0
  0213c	eb 09		 jmp	 SHORT $LN20@LoadReward
$LN19@LoadReward:
  0213e	8b 45 f0	 mov	 eax, DWORD PTR _j$230986[ebp]
  02141	83 c0 01	 add	 eax, 1
  02144	89 45 f0	 mov	 DWORD PTR _j$230986[ebp], eax
$LN20@LoadReward:
  02147	81 7d f0 c8 00
	00 00		 cmp	 DWORD PTR _j$230986[ebp], 200 ; 000000c8H
  0214e	0f 8d f4 00 00
	00		 jge	 $LN18@LoadReward

; 932  : 		{
; 933  : 			this->iItem[i][j].Type = 0;

  02154	8b 45 f4	 mov	 eax, DWORD PTR _i$230982[ebp]
  02157	69 c0 00 19 00
	00		 imul	 eax, 6400		; 00001900H
  0215d	8b 4d f8	 mov	 ecx, DWORD PTR _this$[ebp]
  02160	8d 54 01 04	 lea	 edx, DWORD PTR [ecx+eax+4]
  02164	8b 45 f0	 mov	 eax, DWORD PTR _j$230986[ebp]
  02167	c1 e0 05	 shl	 eax, 5
  0216a	c7 04 02 00 00
	00 00		 mov	 DWORD PTR [edx+eax], 0

; 934  : 			this->iItem[i][j].Index = 0;

  02171	8b 45 f4	 mov	 eax, DWORD PTR _i$230982[ebp]
  02174	69 c0 00 19 00
	00		 imul	 eax, 6400		; 00001900H
  0217a	8b 4d f8	 mov	 ecx, DWORD PTR _this$[ebp]
  0217d	8d 54 01 04	 lea	 edx, DWORD PTR [ecx+eax+4]
  02181	8b 45 f0	 mov	 eax, DWORD PTR _j$230986[ebp]
  02184	c1 e0 05	 shl	 eax, 5
  02187	c7 44 02 04 00
	00 00 00	 mov	 DWORD PTR [edx+eax+4], 0

; 935  : 			this->iItem[i][j].Level = 0;

  0218f	8b 45 f4	 mov	 eax, DWORD PTR _i$230982[ebp]
  02192	69 c0 00 19 00
	00		 imul	 eax, 6400		; 00001900H
  02198	8b 4d f8	 mov	 ecx, DWORD PTR _this$[ebp]
  0219b	8d 54 01 04	 lea	 edx, DWORD PTR [ecx+eax+4]
  0219f	8b 45 f0	 mov	 eax, DWORD PTR _j$230986[ebp]
  021a2	c1 e0 05	 shl	 eax, 5
  021a5	c7 44 02 08 00
	00 00 00	 mov	 DWORD PTR [edx+eax+8], 0

; 936  : 			this->iItem[i][j].Skill = 0;

  021ad	8b 45 f4	 mov	 eax, DWORD PTR _i$230982[ebp]
  021b0	69 c0 00 19 00
	00		 imul	 eax, 6400		; 00001900H
  021b6	8b 4d f8	 mov	 ecx, DWORD PTR _this$[ebp]
  021b9	8d 54 01 04	 lea	 edx, DWORD PTR [ecx+eax+4]
  021bd	8b 45 f0	 mov	 eax, DWORD PTR _j$230986[ebp]
  021c0	c1 e0 05	 shl	 eax, 5
  021c3	c7 44 02 0c 00
	00 00 00	 mov	 DWORD PTR [edx+eax+12], 0

; 937  : 			this->iItem[i][j].Luck = 0;

  021cb	8b 45 f4	 mov	 eax, DWORD PTR _i$230982[ebp]
  021ce	69 c0 00 19 00
	00		 imul	 eax, 6400		; 00001900H
  021d4	8b 4d f8	 mov	 ecx, DWORD PTR _this$[ebp]
  021d7	8d 54 01 04	 lea	 edx, DWORD PTR [ecx+eax+4]
  021db	8b 45 f0	 mov	 eax, DWORD PTR _j$230986[ebp]
  021de	c1 e0 05	 shl	 eax, 5
  021e1	c7 44 02 10 00
	00 00 00	 mov	 DWORD PTR [edx+eax+16], 0

; 938  : 			this->iItem[i][j].Opt = 0;

  021e9	8b 45 f4	 mov	 eax, DWORD PTR _i$230982[ebp]
  021ec	69 c0 00 19 00
	00		 imul	 eax, 6400		; 00001900H
  021f2	8b 4d f8	 mov	 ecx, DWORD PTR _this$[ebp]
  021f5	8d 54 01 04	 lea	 edx, DWORD PTR [ecx+eax+4]
  021f9	8b 45 f0	 mov	 eax, DWORD PTR _j$230986[ebp]
  021fc	c1 e0 05	 shl	 eax, 5
  021ff	c7 44 02 14 00
	00 00 00	 mov	 DWORD PTR [edx+eax+20], 0

; 939  : 			this->iItem[i][j].Exl = 0;

  02207	8b 45 f4	 mov	 eax, DWORD PTR _i$230982[ebp]
  0220a	69 c0 00 19 00
	00		 imul	 eax, 6400		; 00001900H
  02210	8b 4d f8	 mov	 ecx, DWORD PTR _this$[ebp]
  02213	8d 54 01 04	 lea	 edx, DWORD PTR [ecx+eax+4]
  02217	8b 45 f0	 mov	 eax, DWORD PTR _j$230986[ebp]
  0221a	c1 e0 05	 shl	 eax, 5
  0221d	c7 44 02 18 00
	00 00 00	 mov	 DWORD PTR [edx+eax+24], 0

; 940  : 			this->iItem[i][j].Anc = 0;

  02225	8b 45 f4	 mov	 eax, DWORD PTR _i$230982[ebp]
  02228	69 c0 00 19 00
	00		 imul	 eax, 6400		; 00001900H
  0222e	8b 4d f8	 mov	 ecx, DWORD PTR _this$[ebp]
  02231	8d 54 01 04	 lea	 edx, DWORD PTR [ecx+eax+4]
  02235	8b 45 f0	 mov	 eax, DWORD PTR _j$230986[ebp]
  02238	c1 e0 05	 shl	 eax, 5
  0223b	c7 44 02 1c 00
	00 00 00	 mov	 DWORD PTR [edx+eax+28], 0

; 941  : 		}

  02243	e9 f6 fe ff ff	 jmp	 $LN19@LoadReward
$LN18@LoadReward:

; 942  : 	}

  02248	e9 d5 fe ff ff	 jmp	 $LN22@LoadReward
$LN21@LoadReward:

; 943  : 	FILE * file = fopen(IMPERIAL_REWARD_DIR,"r");

  0224d	68 00 00 00 00	 push	 OFFSET ??_C@_01KDCPPGHE@r?$AA@
  02252	68 00 00 00 00	 push	 OFFSET ??_C@_0CA@LLHPDGKO@?4?4?2Data?2Events?2ImperialFort?4ini?$AA@
  02257	e8 00 00 00 00	 call	 _fopen
  0225c	83 c4 08	 add	 esp, 8
  0225f	89 45 ec	 mov	 DWORD PTR _file$[ebp], eax

; 944  : 
; 945  : 	if (file == NULL)

  02262	83 7d ec 00	 cmp	 DWORD PTR _file$[ebp], 0
  02266	75 21		 jne	 SHORT $LN17@LoadReward

; 946  : 	{
; 947  : 		MessageBoxA(0,"[MossMerchant] Info file Load Fail [..\\Data\\Events\\ImperialFort.ini]","CRITICAL ERROR",0);

  02268	6a 00		 push	 0
  0226a	68 00 00 00 00	 push	 OFFSET ??_C@_0P@BPENEPNJ@CRITICAL?5ERROR?$AA@
  0226f	68 00 00 00 00	 push	 OFFSET ??_C@_0EF@HFJNMHEI@?$FLMossMerchant?$FN?5Info?5file?5Load?5Fa@
  02274	6a 00		 push	 0
  02276	ff 15 00 00 00
	00		 call	 DWORD PTR __imp__MessageBoxA@16

; 948  : 		ExitProcess(1);

  0227c	6a 01		 push	 1
  0227e	ff 15 00 00 00
	00		 call	 DWORD PTR __imp__ExitProcess@4

; 949  : 		return;

  02284	e9 df 0e 00 00	 jmp	 $LN25@LoadReward
$LN17@LoadReward:

; 950  : 	}
; 951  : 
; 952  : 	char Buff[256];
; 953  : 	int Flag = 0;

  02289	c7 85 e8 fe ff
	ff 00 00 00 00	 mov	 DWORD PTR _Flag$[ebp], 0

; 954  : 	memset(this->iCount, 0, sizeof(this->iCount));

  02293	6a 1c		 push	 28			; 0000001cH
  02295	6a 00		 push	 0
  02297	8b 45 f8	 mov	 eax, DWORD PTR _this$[ebp]
  0229a	05 04 af 00 00	 add	 eax, 44804		; 0000af04H
  0229f	50		 push	 eax
  022a0	e8 00 00 00 00	 call	 _memset
  022a5	83 c4 0c	 add	 esp, 12			; 0000000cH
$LN16@LoadReward:

; 955  : 	while (!feof(file))

  022a8	8b 45 ec	 mov	 eax, DWORD PTR _file$[ebp]
  022ab	50		 push	 eax
  022ac	e8 00 00 00 00	 call	 _feof
  022b1	83 c4 04	 add	 esp, 4
  022b4	85 c0		 test	 eax, eax
  022b6	0f 85 a0 0e 00
	00		 jne	 $LN15@LoadReward

; 956  : 	{
; 957  : 		fgets(Buff,256,file);

  022bc	8b 45 ec	 mov	 eax, DWORD PTR _file$[ebp]
  022bf	50		 push	 eax
  022c0	68 00 01 00 00	 push	 256			; 00000100H
  022c5	8d 8d ec fe ff
	ff		 lea	 ecx, DWORD PTR _Buff$[ebp]
  022cb	51		 push	 ecx
  022cc	e8 00 00 00 00	 call	 _fgets
  022d1	83 c4 0c	 add	 esp, 12			; 0000000cH

; 958  : 		if(Ex_IsBadFileLine(Buff, Flag)) continue;

  022d4	8d 85 e8 fe ff
	ff		 lea	 eax, DWORD PTR _Flag$[ebp]
  022da	50		 push	 eax
  022db	8d 8d ec fe ff
	ff		 lea	 ecx, DWORD PTR _Buff$[ebp]
  022e1	51		 push	 ecx
  022e2	e8 00 00 00 00	 call	 ?Ex_IsBadFileLine@@YA_NPADAAH@Z ; Ex_IsBadFileLine
  022e7	83 c4 08	 add	 esp, 8
  022ea	0f b6 d0	 movzx	 edx, al
  022ed	85 d2		 test	 edx, edx
  022ef	74 02		 je	 SHORT $LN14@LoadReward
  022f1	eb b5		 jmp	 SHORT $LN16@LoadReward
$LN14@LoadReward:

; 959  : 		if (Flag == 1)

  022f3	83 bd e8 fe ff
	ff 01		 cmp	 DWORD PTR _Flag$[ebp], 1
  022fa	0f 85 02 02 00
	00		 jne	 $LN13@LoadReward

; 960  : 		{
; 961  : 			int n[8];
; 962  : 			int a = Flag-1;

  02300	8b 85 e8 fe ff
	ff		 mov	 eax, DWORD PTR _Flag$[ebp]
  02306	83 e8 01	 sub	 eax, 1
  02309	89 85 c4 fe ff
	ff		 mov	 DWORD PTR _a$231004[ebp], eax

; 963  : 			sscanf(Buff,"%d %d %d %d %d %d %d %d", &n[0], &n[1], &n[2], &n[3], &n[4], &n[5], &n[6], &n[7]);

  0230f	8d 85 e4 fe ff
	ff		 lea	 eax, DWORD PTR _n$231003[ebp+28]
  02315	50		 push	 eax
  02316	8d 8d e0 fe ff
	ff		 lea	 ecx, DWORD PTR _n$231003[ebp+24]
  0231c	51		 push	 ecx
  0231d	8d 95 dc fe ff
	ff		 lea	 edx, DWORD PTR _n$231003[ebp+20]
  02323	52		 push	 edx
  02324	8d 85 d8 fe ff
	ff		 lea	 eax, DWORD PTR _n$231003[ebp+16]
  0232a	50		 push	 eax
  0232b	8d 8d d4 fe ff
	ff		 lea	 ecx, DWORD PTR _n$231003[ebp+12]
  02331	51		 push	 ecx
  02332	8d 95 d0 fe ff
	ff		 lea	 edx, DWORD PTR _n$231003[ebp+8]
  02338	52		 push	 edx
  02339	8d 85 cc fe ff
	ff		 lea	 eax, DWORD PTR _n$231003[ebp+4]
  0233f	50		 push	 eax
  02340	8d 8d c8 fe ff
	ff		 lea	 ecx, DWORD PTR _n$231003[ebp]
  02346	51		 push	 ecx
  02347	68 00 00 00 00	 push	 OFFSET ??_C@_0BI@HDMMBKBM@?$CFd?5?$CFd?5?$CFd?5?$CFd?5?$CFd?5?$CFd?5?$CFd?5?$CFd?$AA@
  0234c	8d 95 ec fe ff
	ff		 lea	 edx, DWORD PTR _Buff$[ebp]
  02352	52		 push	 edx
  02353	e8 00 00 00 00	 call	 _sscanf
  02358	83 c4 28	 add	 esp, 40			; 00000028H

; 964  : 			this->iItem[a][this->iCount[a]].Type	 = n[0];

  0235b	8b 85 c4 fe ff
	ff		 mov	 eax, DWORD PTR _a$231004[ebp]
  02361	69 c0 00 19 00
	00		 imul	 eax, 6400		; 00001900H
  02367	8b 4d f8	 mov	 ecx, DWORD PTR _this$[ebp]
  0236a	8d 54 01 04	 lea	 edx, DWORD PTR [ecx+eax+4]
  0236e	8b 85 c4 fe ff
	ff		 mov	 eax, DWORD PTR _a$231004[ebp]
  02374	8b 4d f8	 mov	 ecx, DWORD PTR _this$[ebp]
  02377	8b 84 81 04 af
	00 00		 mov	 eax, DWORD PTR [ecx+eax*4+44804]
  0237e	c1 e0 05	 shl	 eax, 5
  02381	8b 8d c8 fe ff
	ff		 mov	 ecx, DWORD PTR _n$231003[ebp]
  02387	89 0c 02	 mov	 DWORD PTR [edx+eax], ecx

; 965  : 			this->iItem[a][this->iCount[a]].Index = n[1];

  0238a	8b 85 c4 fe ff
	ff		 mov	 eax, DWORD PTR _a$231004[ebp]
  02390	69 c0 00 19 00
	00		 imul	 eax, 6400		; 00001900H
  02396	8b 4d f8	 mov	 ecx, DWORD PTR _this$[ebp]
  02399	8d 54 01 04	 lea	 edx, DWORD PTR [ecx+eax+4]
  0239d	8b 85 c4 fe ff
	ff		 mov	 eax, DWORD PTR _a$231004[ebp]
  023a3	8b 4d f8	 mov	 ecx, DWORD PTR _this$[ebp]
  023a6	8b 84 81 04 af
	00 00		 mov	 eax, DWORD PTR [ecx+eax*4+44804]
  023ad	c1 e0 05	 shl	 eax, 5
  023b0	8b 8d cc fe ff
	ff		 mov	 ecx, DWORD PTR _n$231003[ebp+4]
  023b6	89 4c 02 04	 mov	 DWORD PTR [edx+eax+4], ecx

; 966  : 			this->iItem[a][this->iCount[a]].Level = n[2];

  023ba	8b 85 c4 fe ff
	ff		 mov	 eax, DWORD PTR _a$231004[ebp]
  023c0	69 c0 00 19 00
	00		 imul	 eax, 6400		; 00001900H
  023c6	8b 4d f8	 mov	 ecx, DWORD PTR _this$[ebp]
  023c9	8d 54 01 04	 lea	 edx, DWORD PTR [ecx+eax+4]
  023cd	8b 85 c4 fe ff
	ff		 mov	 eax, DWORD PTR _a$231004[ebp]
  023d3	8b 4d f8	 mov	 ecx, DWORD PTR _this$[ebp]
  023d6	8b 84 81 04 af
	00 00		 mov	 eax, DWORD PTR [ecx+eax*4+44804]
  023dd	c1 e0 05	 shl	 eax, 5
  023e0	8b 8d d0 fe ff
	ff		 mov	 ecx, DWORD PTR _n$231003[ebp+8]
  023e6	89 4c 02 08	 mov	 DWORD PTR [edx+eax+8], ecx

; 967  : 			this->iItem[a][this->iCount[a]].Skill = n[3];

  023ea	8b 85 c4 fe ff
	ff		 mov	 eax, DWORD PTR _a$231004[ebp]
  023f0	69 c0 00 19 00
	00		 imul	 eax, 6400		; 00001900H
  023f6	8b 4d f8	 mov	 ecx, DWORD PTR _this$[ebp]
  023f9	8d 54 01 04	 lea	 edx, DWORD PTR [ecx+eax+4]
  023fd	8b 85 c4 fe ff
	ff		 mov	 eax, DWORD PTR _a$231004[ebp]
  02403	8b 4d f8	 mov	 ecx, DWORD PTR _this$[ebp]
  02406	8b 84 81 04 af
	00 00		 mov	 eax, DWORD PTR [ecx+eax*4+44804]
  0240d	c1 e0 05	 shl	 eax, 5
  02410	8b 8d d4 fe ff
	ff		 mov	 ecx, DWORD PTR _n$231003[ebp+12]
  02416	89 4c 02 0c	 mov	 DWORD PTR [edx+eax+12], ecx

; 968  : 			this->iItem[a][this->iCount[a]].Luck = n[4];

  0241a	8b 85 c4 fe ff
	ff		 mov	 eax, DWORD PTR _a$231004[ebp]
  02420	69 c0 00 19 00
	00		 imul	 eax, 6400		; 00001900H
  02426	8b 4d f8	 mov	 ecx, DWORD PTR _this$[ebp]
  02429	8d 54 01 04	 lea	 edx, DWORD PTR [ecx+eax+4]
  0242d	8b 85 c4 fe ff
	ff		 mov	 eax, DWORD PTR _a$231004[ebp]
  02433	8b 4d f8	 mov	 ecx, DWORD PTR _this$[ebp]
  02436	8b 84 81 04 af
	00 00		 mov	 eax, DWORD PTR [ecx+eax*4+44804]
  0243d	c1 e0 05	 shl	 eax, 5
  02440	8b 8d d8 fe ff
	ff		 mov	 ecx, DWORD PTR _n$231003[ebp+16]
  02446	89 4c 02 10	 mov	 DWORD PTR [edx+eax+16], ecx

; 969  : 			this->iItem[a][this->iCount[a]].Opt = n[5];

  0244a	8b 85 c4 fe ff
	ff		 mov	 eax, DWORD PTR _a$231004[ebp]
  02450	69 c0 00 19 00
	00		 imul	 eax, 6400		; 00001900H
  02456	8b 4d f8	 mov	 ecx, DWORD PTR _this$[ebp]
  02459	8d 54 01 04	 lea	 edx, DWORD PTR [ecx+eax+4]
  0245d	8b 85 c4 fe ff
	ff		 mov	 eax, DWORD PTR _a$231004[ebp]
  02463	8b 4d f8	 mov	 ecx, DWORD PTR _this$[ebp]
  02466	8b 84 81 04 af
	00 00		 mov	 eax, DWORD PTR [ecx+eax*4+44804]
  0246d	c1 e0 05	 shl	 eax, 5
  02470	8b 8d dc fe ff
	ff		 mov	 ecx, DWORD PTR _n$231003[ebp+20]
  02476	89 4c 02 14	 mov	 DWORD PTR [edx+eax+20], ecx

; 970  : 			this->iItem[a][this->iCount[a]].Exl = n[6];

  0247a	8b 85 c4 fe ff
	ff		 mov	 eax, DWORD PTR _a$231004[ebp]
  02480	69 c0 00 19 00
	00		 imul	 eax, 6400		; 00001900H
  02486	8b 4d f8	 mov	 ecx, DWORD PTR _this$[ebp]
  02489	8d 54 01 04	 lea	 edx, DWORD PTR [ecx+eax+4]
  0248d	8b 85 c4 fe ff
	ff		 mov	 eax, DWORD PTR _a$231004[ebp]
  02493	8b 4d f8	 mov	 ecx, DWORD PTR _this$[ebp]
  02496	8b 84 81 04 af
	00 00		 mov	 eax, DWORD PTR [ecx+eax*4+44804]
  0249d	c1 e0 05	 shl	 eax, 5
  024a0	8b 8d e0 fe ff
	ff		 mov	 ecx, DWORD PTR _n$231003[ebp+24]
  024a6	89 4c 02 18	 mov	 DWORD PTR [edx+eax+24], ecx

; 971  : 			this->iItem[a][this->iCount[a]].Anc = n[7];

  024aa	8b 85 c4 fe ff
	ff		 mov	 eax, DWORD PTR _a$231004[ebp]
  024b0	69 c0 00 19 00
	00		 imul	 eax, 6400		; 00001900H
  024b6	8b 4d f8	 mov	 ecx, DWORD PTR _this$[ebp]
  024b9	8d 54 01 04	 lea	 edx, DWORD PTR [ecx+eax+4]
  024bd	8b 85 c4 fe ff
	ff		 mov	 eax, DWORD PTR _a$231004[ebp]
  024c3	8b 4d f8	 mov	 ecx, DWORD PTR _this$[ebp]
  024c6	8b 84 81 04 af
	00 00		 mov	 eax, DWORD PTR [ecx+eax*4+44804]
  024cd	c1 e0 05	 shl	 eax, 5
  024d0	8b 8d e4 fe ff
	ff		 mov	 ecx, DWORD PTR _n$231003[ebp+28]
  024d6	89 4c 02 1c	 mov	 DWORD PTR [edx+eax+28], ecx

; 972  : 			this->iCount[a]++;

  024da	8b 85 c4 fe ff
	ff		 mov	 eax, DWORD PTR _a$231004[ebp]
  024e0	8b 4d f8	 mov	 ecx, DWORD PTR _this$[ebp]
  024e3	8b 94 81 04 af
	00 00		 mov	 edx, DWORD PTR [ecx+eax*4+44804]
  024ea	83 c2 01	 add	 edx, 1
  024ed	8b 85 c4 fe ff
	ff		 mov	 eax, DWORD PTR _a$231004[ebp]
  024f3	8b 4d f8	 mov	 ecx, DWORD PTR _this$[ebp]
  024f6	89 94 81 04 af
	00 00		 mov	 DWORD PTR [ecx+eax*4+44804], edx
  024fd	e9 55 0c 00 00	 jmp	 $LN12@LoadReward
$LN13@LoadReward:

; 973  : 		}
; 974  : 		else if (Flag == 2)

  02502	83 bd e8 fe ff
	ff 02		 cmp	 DWORD PTR _Flag$[ebp], 2
  02509	0f 85 02 02 00
	00		 jne	 $LN11@LoadReward

; 975  : 		{
; 976  : 			int n[8];
; 977  : 			int a = Flag-1;

  0250f	8b 85 e8 fe ff
	ff		 mov	 eax, DWORD PTR _Flag$[ebp]
  02515	83 e8 01	 sub	 eax, 1
  02518	89 85 a0 fe ff
	ff		 mov	 DWORD PTR _a$231009[ebp], eax

; 978  : 			sscanf(Buff,"%d %d %d %d %d %d %d %d", &n[0], &n[1], &n[2], &n[3], &n[4], &n[5], &n[6], &n[7]);

  0251e	8d 85 c0 fe ff
	ff		 lea	 eax, DWORD PTR _n$231008[ebp+28]
  02524	50		 push	 eax
  02525	8d 8d bc fe ff
	ff		 lea	 ecx, DWORD PTR _n$231008[ebp+24]
  0252b	51		 push	 ecx
  0252c	8d 95 b8 fe ff
	ff		 lea	 edx, DWORD PTR _n$231008[ebp+20]
  02532	52		 push	 edx
  02533	8d 85 b4 fe ff
	ff		 lea	 eax, DWORD PTR _n$231008[ebp+16]
  02539	50		 push	 eax
  0253a	8d 8d b0 fe ff
	ff		 lea	 ecx, DWORD PTR _n$231008[ebp+12]
  02540	51		 push	 ecx
  02541	8d 95 ac fe ff
	ff		 lea	 edx, DWORD PTR _n$231008[ebp+8]
  02547	52		 push	 edx
  02548	8d 85 a8 fe ff
	ff		 lea	 eax, DWORD PTR _n$231008[ebp+4]
  0254e	50		 push	 eax
  0254f	8d 8d a4 fe ff
	ff		 lea	 ecx, DWORD PTR _n$231008[ebp]
  02555	51		 push	 ecx
  02556	68 00 00 00 00	 push	 OFFSET ??_C@_0BI@HDMMBKBM@?$CFd?5?$CFd?5?$CFd?5?$CFd?5?$CFd?5?$CFd?5?$CFd?5?$CFd?$AA@
  0255b	8d 95 ec fe ff
	ff		 lea	 edx, DWORD PTR _Buff$[ebp]
  02561	52		 push	 edx
  02562	e8 00 00 00 00	 call	 _sscanf
  02567	83 c4 28	 add	 esp, 40			; 00000028H

; 979  : 			this->iItem[a][this->iCount[a]].Type	 = n[0];

  0256a	8b 85 a0 fe ff
	ff		 mov	 eax, DWORD PTR _a$231009[ebp]
  02570	69 c0 00 19 00
	00		 imul	 eax, 6400		; 00001900H
  02576	8b 4d f8	 mov	 ecx, DWORD PTR _this$[ebp]
  02579	8d 54 01 04	 lea	 edx, DWORD PTR [ecx+eax+4]
  0257d	8b 85 a0 fe ff
	ff		 mov	 eax, DWORD PTR _a$231009[ebp]
  02583	8b 4d f8	 mov	 ecx, DWORD PTR _this$[ebp]
  02586	8b 84 81 04 af
	00 00		 mov	 eax, DWORD PTR [ecx+eax*4+44804]
  0258d	c1 e0 05	 shl	 eax, 5
  02590	8b 8d a4 fe ff
	ff		 mov	 ecx, DWORD PTR _n$231008[ebp]
  02596	89 0c 02	 mov	 DWORD PTR [edx+eax], ecx

; 980  : 			this->iItem[a][this->iCount[a]].Index = n[1];

  02599	8b 85 a0 fe ff
	ff		 mov	 eax, DWORD PTR _a$231009[ebp]
  0259f	69 c0 00 19 00
	00		 imul	 eax, 6400		; 00001900H
  025a5	8b 4d f8	 mov	 ecx, DWORD PTR _this$[ebp]
  025a8	8d 54 01 04	 lea	 edx, DWORD PTR [ecx+eax+4]
  025ac	8b 85 a0 fe ff
	ff		 mov	 eax, DWORD PTR _a$231009[ebp]
  025b2	8b 4d f8	 mov	 ecx, DWORD PTR _this$[ebp]
  025b5	8b 84 81 04 af
	00 00		 mov	 eax, DWORD PTR [ecx+eax*4+44804]
  025bc	c1 e0 05	 shl	 eax, 5
  025bf	8b 8d a8 fe ff
	ff		 mov	 ecx, DWORD PTR _n$231008[ebp+4]
  025c5	89 4c 02 04	 mov	 DWORD PTR [edx+eax+4], ecx

; 981  : 			this->iItem[a][this->iCount[a]].Level = n[2];

  025c9	8b 85 a0 fe ff
	ff		 mov	 eax, DWORD PTR _a$231009[ebp]
  025cf	69 c0 00 19 00
	00		 imul	 eax, 6400		; 00001900H
  025d5	8b 4d f8	 mov	 ecx, DWORD PTR _this$[ebp]
  025d8	8d 54 01 04	 lea	 edx, DWORD PTR [ecx+eax+4]
  025dc	8b 85 a0 fe ff
	ff		 mov	 eax, DWORD PTR _a$231009[ebp]
  025e2	8b 4d f8	 mov	 ecx, DWORD PTR _this$[ebp]
  025e5	8b 84 81 04 af
	00 00		 mov	 eax, DWORD PTR [ecx+eax*4+44804]
  025ec	c1 e0 05	 shl	 eax, 5
  025ef	8b 8d ac fe ff
	ff		 mov	 ecx, DWORD PTR _n$231008[ebp+8]
  025f5	89 4c 02 08	 mov	 DWORD PTR [edx+eax+8], ecx

; 982  : 			this->iItem[a][this->iCount[a]].Skill = n[3];

  025f9	8b 85 a0 fe ff
	ff		 mov	 eax, DWORD PTR _a$231009[ebp]
  025ff	69 c0 00 19 00
	00		 imul	 eax, 6400		; 00001900H
  02605	8b 4d f8	 mov	 ecx, DWORD PTR _this$[ebp]
  02608	8d 54 01 04	 lea	 edx, DWORD PTR [ecx+eax+4]
  0260c	8b 85 a0 fe ff
	ff		 mov	 eax, DWORD PTR _a$231009[ebp]
  02612	8b 4d f8	 mov	 ecx, DWORD PTR _this$[ebp]
  02615	8b 84 81 04 af
	00 00		 mov	 eax, DWORD PTR [ecx+eax*4+44804]
  0261c	c1 e0 05	 shl	 eax, 5
  0261f	8b 8d b0 fe ff
	ff		 mov	 ecx, DWORD PTR _n$231008[ebp+12]
  02625	89 4c 02 0c	 mov	 DWORD PTR [edx+eax+12], ecx

; 983  : 			this->iItem[a][this->iCount[a]].Luck = n[4];

  02629	8b 85 a0 fe ff
	ff		 mov	 eax, DWORD PTR _a$231009[ebp]
  0262f	69 c0 00 19 00
	00		 imul	 eax, 6400		; 00001900H
  02635	8b 4d f8	 mov	 ecx, DWORD PTR _this$[ebp]
  02638	8d 54 01 04	 lea	 edx, DWORD PTR [ecx+eax+4]
  0263c	8b 85 a0 fe ff
	ff		 mov	 eax, DWORD PTR _a$231009[ebp]
  02642	8b 4d f8	 mov	 ecx, DWORD PTR _this$[ebp]
  02645	8b 84 81 04 af
	00 00		 mov	 eax, DWORD PTR [ecx+eax*4+44804]
  0264c	c1 e0 05	 shl	 eax, 5
  0264f	8b 8d b4 fe ff
	ff		 mov	 ecx, DWORD PTR _n$231008[ebp+16]
  02655	89 4c 02 10	 mov	 DWORD PTR [edx+eax+16], ecx

; 984  : 			this->iItem[a][this->iCount[a]].Opt = n[5];

  02659	8b 85 a0 fe ff
	ff		 mov	 eax, DWORD PTR _a$231009[ebp]
  0265f	69 c0 00 19 00
	00		 imul	 eax, 6400		; 00001900H
  02665	8b 4d f8	 mov	 ecx, DWORD PTR _this$[ebp]
  02668	8d 54 01 04	 lea	 edx, DWORD PTR [ecx+eax+4]
  0266c	8b 85 a0 fe ff
	ff		 mov	 eax, DWORD PTR _a$231009[ebp]
  02672	8b 4d f8	 mov	 ecx, DWORD PTR _this$[ebp]
  02675	8b 84 81 04 af
	00 00		 mov	 eax, DWORD PTR [ecx+eax*4+44804]
  0267c	c1 e0 05	 shl	 eax, 5
  0267f	8b 8d b8 fe ff
	ff		 mov	 ecx, DWORD PTR _n$231008[ebp+20]
  02685	89 4c 02 14	 mov	 DWORD PTR [edx+eax+20], ecx

; 985  : 			this->iItem[a][this->iCount[a]].Exl = n[6];

  02689	8b 85 a0 fe ff
	ff		 mov	 eax, DWORD PTR _a$231009[ebp]
  0268f	69 c0 00 19 00
	00		 imul	 eax, 6400		; 00001900H
  02695	8b 4d f8	 mov	 ecx, DWORD PTR _this$[ebp]
  02698	8d 54 01 04	 lea	 edx, DWORD PTR [ecx+eax+4]
  0269c	8b 85 a0 fe ff
	ff		 mov	 eax, DWORD PTR _a$231009[ebp]
  026a2	8b 4d f8	 mov	 ecx, DWORD PTR _this$[ebp]
  026a5	8b 84 81 04 af
	00 00		 mov	 eax, DWORD PTR [ecx+eax*4+44804]
  026ac	c1 e0 05	 shl	 eax, 5
  026af	8b 8d bc fe ff
	ff		 mov	 ecx, DWORD PTR _n$231008[ebp+24]
  026b5	89 4c 02 18	 mov	 DWORD PTR [edx+eax+24], ecx

; 986  : 			this->iItem[a][this->iCount[a]].Anc = n[7];

  026b9	8b 85 a0 fe ff
	ff		 mov	 eax, DWORD PTR _a$231009[ebp]
  026bf	69 c0 00 19 00
	00		 imul	 eax, 6400		; 00001900H
  026c5	8b 4d f8	 mov	 ecx, DWORD PTR _this$[ebp]
  026c8	8d 54 01 04	 lea	 edx, DWORD PTR [ecx+eax+4]
  026cc	8b 85 a0 fe ff
	ff		 mov	 eax, DWORD PTR _a$231009[ebp]
  026d2	8b 4d f8	 mov	 ecx, DWORD PTR _this$[ebp]
  026d5	8b 84 81 04 af
	00 00		 mov	 eax, DWORD PTR [ecx+eax*4+44804]
  026dc	c1 e0 05	 shl	 eax, 5
  026df	8b 8d c0 fe ff
	ff		 mov	 ecx, DWORD PTR _n$231008[ebp+28]
  026e5	89 4c 02 1c	 mov	 DWORD PTR [edx+eax+28], ecx

; 987  : 			this->iCount[a]++;

  026e9	8b 85 a0 fe ff
	ff		 mov	 eax, DWORD PTR _a$231009[ebp]
  026ef	8b 4d f8	 mov	 ecx, DWORD PTR _this$[ebp]
  026f2	8b 94 81 04 af
	00 00		 mov	 edx, DWORD PTR [ecx+eax*4+44804]
  026f9	83 c2 01	 add	 edx, 1
  026fc	8b 85 a0 fe ff
	ff		 mov	 eax, DWORD PTR _a$231009[ebp]
  02702	8b 4d f8	 mov	 ecx, DWORD PTR _this$[ebp]
  02705	89 94 81 04 af
	00 00		 mov	 DWORD PTR [ecx+eax*4+44804], edx
  0270c	e9 46 0a 00 00	 jmp	 $LN12@LoadReward
$LN11@LoadReward:

; 988  : 		}
; 989  : 		else if (Flag == 3)

  02711	83 bd e8 fe ff
	ff 03		 cmp	 DWORD PTR _Flag$[ebp], 3
  02718	0f 85 02 02 00
	00		 jne	 $LN9@LoadReward

; 990  : 		{
; 991  : 			int n[8];
; 992  : 			int a = Flag-1;

  0271e	8b 85 e8 fe ff
	ff		 mov	 eax, DWORD PTR _Flag$[ebp]
  02724	83 e8 01	 sub	 eax, 1
  02727	89 85 7c fe ff
	ff		 mov	 DWORD PTR _a$231013[ebp], eax

; 993  : 			sscanf(Buff,"%d %d %d %d %d %d %d %d", &n[0], &n[1], &n[2], &n[3], &n[4], &n[5], &n[6], &n[7]);

  0272d	8d 85 9c fe ff
	ff		 lea	 eax, DWORD PTR _n$231012[ebp+28]
  02733	50		 push	 eax
  02734	8d 8d 98 fe ff
	ff		 lea	 ecx, DWORD PTR _n$231012[ebp+24]
  0273a	51		 push	 ecx
  0273b	8d 95 94 fe ff
	ff		 lea	 edx, DWORD PTR _n$231012[ebp+20]
  02741	52		 push	 edx
  02742	8d 85 90 fe ff
	ff		 lea	 eax, DWORD PTR _n$231012[ebp+16]
  02748	50		 push	 eax
  02749	8d 8d 8c fe ff
	ff		 lea	 ecx, DWORD PTR _n$231012[ebp+12]
  0274f	51		 push	 ecx
  02750	8d 95 88 fe ff
	ff		 lea	 edx, DWORD PTR _n$231012[ebp+8]
  02756	52		 push	 edx
  02757	8d 85 84 fe ff
	ff		 lea	 eax, DWORD PTR _n$231012[ebp+4]
  0275d	50		 push	 eax
  0275e	8d 8d 80 fe ff
	ff		 lea	 ecx, DWORD PTR _n$231012[ebp]
  02764	51		 push	 ecx
  02765	68 00 00 00 00	 push	 OFFSET ??_C@_0BI@HDMMBKBM@?$CFd?5?$CFd?5?$CFd?5?$CFd?5?$CFd?5?$CFd?5?$CFd?5?$CFd?$AA@
  0276a	8d 95 ec fe ff
	ff		 lea	 edx, DWORD PTR _Buff$[ebp]
  02770	52		 push	 edx
  02771	e8 00 00 00 00	 call	 _sscanf
  02776	83 c4 28	 add	 esp, 40			; 00000028H

; 994  : 			this->iItem[a][this->iCount[a]].Type	 = n[0];

  02779	8b 85 7c fe ff
	ff		 mov	 eax, DWORD PTR _a$231013[ebp]
  0277f	69 c0 00 19 00
	00		 imul	 eax, 6400		; 00001900H
  02785	8b 4d f8	 mov	 ecx, DWORD PTR _this$[ebp]
  02788	8d 54 01 04	 lea	 edx, DWORD PTR [ecx+eax+4]
  0278c	8b 85 7c fe ff
	ff		 mov	 eax, DWORD PTR _a$231013[ebp]
  02792	8b 4d f8	 mov	 ecx, DWORD PTR _this$[ebp]
  02795	8b 84 81 04 af
	00 00		 mov	 eax, DWORD PTR [ecx+eax*4+44804]
  0279c	c1 e0 05	 shl	 eax, 5
  0279f	8b 8d 80 fe ff
	ff		 mov	 ecx, DWORD PTR _n$231012[ebp]
  027a5	89 0c 02	 mov	 DWORD PTR [edx+eax], ecx

; 995  : 			this->iItem[a][this->iCount[a]].Index = n[1];

  027a8	8b 85 7c fe ff
	ff		 mov	 eax, DWORD PTR _a$231013[ebp]
  027ae	69 c0 00 19 00
	00		 imul	 eax, 6400		; 00001900H
  027b4	8b 4d f8	 mov	 ecx, DWORD PTR _this$[ebp]
  027b7	8d 54 01 04	 lea	 edx, DWORD PTR [ecx+eax+4]
  027bb	8b 85 7c fe ff
	ff		 mov	 eax, DWORD PTR _a$231013[ebp]
  027c1	8b 4d f8	 mov	 ecx, DWORD PTR _this$[ebp]
  027c4	8b 84 81 04 af
	00 00		 mov	 eax, DWORD PTR [ecx+eax*4+44804]
  027cb	c1 e0 05	 shl	 eax, 5
  027ce	8b 8d 84 fe ff
	ff		 mov	 ecx, DWORD PTR _n$231012[ebp+4]
  027d4	89 4c 02 04	 mov	 DWORD PTR [edx+eax+4], ecx

; 996  : 			this->iItem[a][this->iCount[a]].Level = n[2];

  027d8	8b 85 7c fe ff
	ff		 mov	 eax, DWORD PTR _a$231013[ebp]
  027de	69 c0 00 19 00
	00		 imul	 eax, 6400		; 00001900H
  027e4	8b 4d f8	 mov	 ecx, DWORD PTR _this$[ebp]
  027e7	8d 54 01 04	 lea	 edx, DWORD PTR [ecx+eax+4]
  027eb	8b 85 7c fe ff
	ff		 mov	 eax, DWORD PTR _a$231013[ebp]
  027f1	8b 4d f8	 mov	 ecx, DWORD PTR _this$[ebp]
  027f4	8b 84 81 04 af
	00 00		 mov	 eax, DWORD PTR [ecx+eax*4+44804]
  027fb	c1 e0 05	 shl	 eax, 5
  027fe	8b 8d 88 fe ff
	ff		 mov	 ecx, DWORD PTR _n$231012[ebp+8]
  02804	89 4c 02 08	 mov	 DWORD PTR [edx+eax+8], ecx

; 997  : 			this->iItem[a][this->iCount[a]].Skill = n[3];

  02808	8b 85 7c fe ff
	ff		 mov	 eax, DWORD PTR _a$231013[ebp]
  0280e	69 c0 00 19 00
	00		 imul	 eax, 6400		; 00001900H
  02814	8b 4d f8	 mov	 ecx, DWORD PTR _this$[ebp]
  02817	8d 54 01 04	 lea	 edx, DWORD PTR [ecx+eax+4]
  0281b	8b 85 7c fe ff
	ff		 mov	 eax, DWORD PTR _a$231013[ebp]
  02821	8b 4d f8	 mov	 ecx, DWORD PTR _this$[ebp]
  02824	8b 84 81 04 af
	00 00		 mov	 eax, DWORD PTR [ecx+eax*4+44804]
  0282b	c1 e0 05	 shl	 eax, 5
  0282e	8b 8d 8c fe ff
	ff		 mov	 ecx, DWORD PTR _n$231012[ebp+12]
  02834	89 4c 02 0c	 mov	 DWORD PTR [edx+eax+12], ecx

; 998  : 			this->iItem[a][this->iCount[a]].Luck = n[4];

  02838	8b 85 7c fe ff
	ff		 mov	 eax, DWORD PTR _a$231013[ebp]
  0283e	69 c0 00 19 00
	00		 imul	 eax, 6400		; 00001900H
  02844	8b 4d f8	 mov	 ecx, DWORD PTR _this$[ebp]
  02847	8d 54 01 04	 lea	 edx, DWORD PTR [ecx+eax+4]
  0284b	8b 85 7c fe ff
	ff		 mov	 eax, DWORD PTR _a$231013[ebp]
  02851	8b 4d f8	 mov	 ecx, DWORD PTR _this$[ebp]
  02854	8b 84 81 04 af
	00 00		 mov	 eax, DWORD PTR [ecx+eax*4+44804]
  0285b	c1 e0 05	 shl	 eax, 5
  0285e	8b 8d 90 fe ff
	ff		 mov	 ecx, DWORD PTR _n$231012[ebp+16]
  02864	89 4c 02 10	 mov	 DWORD PTR [edx+eax+16], ecx

; 999  : 			this->iItem[a][this->iCount[a]].Opt = n[5];

  02868	8b 85 7c fe ff
	ff		 mov	 eax, DWORD PTR _a$231013[ebp]
  0286e	69 c0 00 19 00
	00		 imul	 eax, 6400		; 00001900H
  02874	8b 4d f8	 mov	 ecx, DWORD PTR _this$[ebp]
  02877	8d 54 01 04	 lea	 edx, DWORD PTR [ecx+eax+4]
  0287b	8b 85 7c fe ff
	ff		 mov	 eax, DWORD PTR _a$231013[ebp]
  02881	8b 4d f8	 mov	 ecx, DWORD PTR _this$[ebp]
  02884	8b 84 81 04 af
	00 00		 mov	 eax, DWORD PTR [ecx+eax*4+44804]
  0288b	c1 e0 05	 shl	 eax, 5
  0288e	8b 8d 94 fe ff
	ff		 mov	 ecx, DWORD PTR _n$231012[ebp+20]
  02894	89 4c 02 14	 mov	 DWORD PTR [edx+eax+20], ecx

; 1000 : 			this->iItem[a][this->iCount[a]].Exl = n[6];

  02898	8b 85 7c fe ff
	ff		 mov	 eax, DWORD PTR _a$231013[ebp]
  0289e	69 c0 00 19 00
	00		 imul	 eax, 6400		; 00001900H
  028a4	8b 4d f8	 mov	 ecx, DWORD PTR _this$[ebp]
  028a7	8d 54 01 04	 lea	 edx, DWORD PTR [ecx+eax+4]
  028ab	8b 85 7c fe ff
	ff		 mov	 eax, DWORD PTR _a$231013[ebp]
  028b1	8b 4d f8	 mov	 ecx, DWORD PTR _this$[ebp]
  028b4	8b 84 81 04 af
	00 00		 mov	 eax, DWORD PTR [ecx+eax*4+44804]
  028bb	c1 e0 05	 shl	 eax, 5
  028be	8b 8d 98 fe ff
	ff		 mov	 ecx, DWORD PTR _n$231012[ebp+24]
  028c4	89 4c 02 18	 mov	 DWORD PTR [edx+eax+24], ecx

; 1001 : 			this->iItem[a][this->iCount[a]].Anc = n[7];

  028c8	8b 85 7c fe ff
	ff		 mov	 eax, DWORD PTR _a$231013[ebp]
  028ce	69 c0 00 19 00
	00		 imul	 eax, 6400		; 00001900H
  028d4	8b 4d f8	 mov	 ecx, DWORD PTR _this$[ebp]
  028d7	8d 54 01 04	 lea	 edx, DWORD PTR [ecx+eax+4]
  028db	8b 85 7c fe ff
	ff		 mov	 eax, DWORD PTR _a$231013[ebp]
  028e1	8b 4d f8	 mov	 ecx, DWORD PTR _this$[ebp]
  028e4	8b 84 81 04 af
	00 00		 mov	 eax, DWORD PTR [ecx+eax*4+44804]
  028eb	c1 e0 05	 shl	 eax, 5
  028ee	8b 8d 9c fe ff
	ff		 mov	 ecx, DWORD PTR _n$231012[ebp+28]
  028f4	89 4c 02 1c	 mov	 DWORD PTR [edx+eax+28], ecx

; 1002 : 			this->iCount[a]++;

  028f8	8b 85 7c fe ff
	ff		 mov	 eax, DWORD PTR _a$231013[ebp]
  028fe	8b 4d f8	 mov	 ecx, DWORD PTR _this$[ebp]
  02901	8b 94 81 04 af
	00 00		 mov	 edx, DWORD PTR [ecx+eax*4+44804]
  02908	83 c2 01	 add	 edx, 1
  0290b	8b 85 7c fe ff
	ff		 mov	 eax, DWORD PTR _a$231013[ebp]
  02911	8b 4d f8	 mov	 ecx, DWORD PTR _this$[ebp]
  02914	89 94 81 04 af
	00 00		 mov	 DWORD PTR [ecx+eax*4+44804], edx
  0291b	e9 37 08 00 00	 jmp	 $LN12@LoadReward
$LN9@LoadReward:

; 1003 : 		}
; 1004 : 		else if (Flag == 4)

  02920	83 bd e8 fe ff
	ff 04		 cmp	 DWORD PTR _Flag$[ebp], 4
  02927	0f 85 02 02 00
	00		 jne	 $LN7@LoadReward

; 1005 : 		{
; 1006 : 			int n[8];
; 1007 : 			int a = Flag-1;

  0292d	8b 85 e8 fe ff
	ff		 mov	 eax, DWORD PTR _Flag$[ebp]
  02933	83 e8 01	 sub	 eax, 1
  02936	89 85 58 fe ff
	ff		 mov	 DWORD PTR _a$231017[ebp], eax

; 1008 : 			sscanf(Buff,"%d %d %d %d %d %d %d %d", &n[0], &n[1], &n[2], &n[3], &n[4], &n[5], &n[6], &n[7]);

  0293c	8d 85 78 fe ff
	ff		 lea	 eax, DWORD PTR _n$231016[ebp+28]
  02942	50		 push	 eax
  02943	8d 8d 74 fe ff
	ff		 lea	 ecx, DWORD PTR _n$231016[ebp+24]
  02949	51		 push	 ecx
  0294a	8d 95 70 fe ff
	ff		 lea	 edx, DWORD PTR _n$231016[ebp+20]
  02950	52		 push	 edx
  02951	8d 85 6c fe ff
	ff		 lea	 eax, DWORD PTR _n$231016[ebp+16]
  02957	50		 push	 eax
  02958	8d 8d 68 fe ff
	ff		 lea	 ecx, DWORD PTR _n$231016[ebp+12]
  0295e	51		 push	 ecx
  0295f	8d 95 64 fe ff
	ff		 lea	 edx, DWORD PTR _n$231016[ebp+8]
  02965	52		 push	 edx
  02966	8d 85 60 fe ff
	ff		 lea	 eax, DWORD PTR _n$231016[ebp+4]
  0296c	50		 push	 eax
  0296d	8d 8d 5c fe ff
	ff		 lea	 ecx, DWORD PTR _n$231016[ebp]
  02973	51		 push	 ecx
  02974	68 00 00 00 00	 push	 OFFSET ??_C@_0BI@HDMMBKBM@?$CFd?5?$CFd?5?$CFd?5?$CFd?5?$CFd?5?$CFd?5?$CFd?5?$CFd?$AA@
  02979	8d 95 ec fe ff
	ff		 lea	 edx, DWORD PTR _Buff$[ebp]
  0297f	52		 push	 edx
  02980	e8 00 00 00 00	 call	 _sscanf
  02985	83 c4 28	 add	 esp, 40			; 00000028H

; 1009 : 			this->iItem[a][this->iCount[a]].Type	 = n[0];

  02988	8b 85 58 fe ff
	ff		 mov	 eax, DWORD PTR _a$231017[ebp]
  0298e	69 c0 00 19 00
	00		 imul	 eax, 6400		; 00001900H
  02994	8b 4d f8	 mov	 ecx, DWORD PTR _this$[ebp]
  02997	8d 54 01 04	 lea	 edx, DWORD PTR [ecx+eax+4]
  0299b	8b 85 58 fe ff
	ff		 mov	 eax, DWORD PTR _a$231017[ebp]
  029a1	8b 4d f8	 mov	 ecx, DWORD PTR _this$[ebp]
  029a4	8b 84 81 04 af
	00 00		 mov	 eax, DWORD PTR [ecx+eax*4+44804]
  029ab	c1 e0 05	 shl	 eax, 5
  029ae	8b 8d 5c fe ff
	ff		 mov	 ecx, DWORD PTR _n$231016[ebp]
  029b4	89 0c 02	 mov	 DWORD PTR [edx+eax], ecx

; 1010 : 			this->iItem[a][this->iCount[a]].Index = n[1];

  029b7	8b 85 58 fe ff
	ff		 mov	 eax, DWORD PTR _a$231017[ebp]
  029bd	69 c0 00 19 00
	00		 imul	 eax, 6400		; 00001900H
  029c3	8b 4d f8	 mov	 ecx, DWORD PTR _this$[ebp]
  029c6	8d 54 01 04	 lea	 edx, DWORD PTR [ecx+eax+4]
  029ca	8b 85 58 fe ff
	ff		 mov	 eax, DWORD PTR _a$231017[ebp]
  029d0	8b 4d f8	 mov	 ecx, DWORD PTR _this$[ebp]
  029d3	8b 84 81 04 af
	00 00		 mov	 eax, DWORD PTR [ecx+eax*4+44804]
  029da	c1 e0 05	 shl	 eax, 5
  029dd	8b 8d 60 fe ff
	ff		 mov	 ecx, DWORD PTR _n$231016[ebp+4]
  029e3	89 4c 02 04	 mov	 DWORD PTR [edx+eax+4], ecx

; 1011 : 			this->iItem[a][this->iCount[a]].Level = n[2];

  029e7	8b 85 58 fe ff
	ff		 mov	 eax, DWORD PTR _a$231017[ebp]
  029ed	69 c0 00 19 00
	00		 imul	 eax, 6400		; 00001900H
  029f3	8b 4d f8	 mov	 ecx, DWORD PTR _this$[ebp]
  029f6	8d 54 01 04	 lea	 edx, DWORD PTR [ecx+eax+4]
  029fa	8b 85 58 fe ff
	ff		 mov	 eax, DWORD PTR _a$231017[ebp]
  02a00	8b 4d f8	 mov	 ecx, DWORD PTR _this$[ebp]
  02a03	8b 84 81 04 af
	00 00		 mov	 eax, DWORD PTR [ecx+eax*4+44804]
  02a0a	c1 e0 05	 shl	 eax, 5
  02a0d	8b 8d 64 fe ff
	ff		 mov	 ecx, DWORD PTR _n$231016[ebp+8]
  02a13	89 4c 02 08	 mov	 DWORD PTR [edx+eax+8], ecx

; 1012 : 			this->iItem[a][this->iCount[a]].Skill = n[3];

  02a17	8b 85 58 fe ff
	ff		 mov	 eax, DWORD PTR _a$231017[ebp]
  02a1d	69 c0 00 19 00
	00		 imul	 eax, 6400		; 00001900H
  02a23	8b 4d f8	 mov	 ecx, DWORD PTR _this$[ebp]
  02a26	8d 54 01 04	 lea	 edx, DWORD PTR [ecx+eax+4]
  02a2a	8b 85 58 fe ff
	ff		 mov	 eax, DWORD PTR _a$231017[ebp]
  02a30	8b 4d f8	 mov	 ecx, DWORD PTR _this$[ebp]
  02a33	8b 84 81 04 af
	00 00		 mov	 eax, DWORD PTR [ecx+eax*4+44804]
  02a3a	c1 e0 05	 shl	 eax, 5
  02a3d	8b 8d 68 fe ff
	ff		 mov	 ecx, DWORD PTR _n$231016[ebp+12]
  02a43	89 4c 02 0c	 mov	 DWORD PTR [edx+eax+12], ecx

; 1013 : 			this->iItem[a][this->iCount[a]].Luck = n[4];

  02a47	8b 85 58 fe ff
	ff		 mov	 eax, DWORD PTR _a$231017[ebp]
  02a4d	69 c0 00 19 00
	00		 imul	 eax, 6400		; 00001900H
  02a53	8b 4d f8	 mov	 ecx, DWORD PTR _this$[ebp]
  02a56	8d 54 01 04	 lea	 edx, DWORD PTR [ecx+eax+4]
  02a5a	8b 85 58 fe ff
	ff		 mov	 eax, DWORD PTR _a$231017[ebp]
  02a60	8b 4d f8	 mov	 ecx, DWORD PTR _this$[ebp]
  02a63	8b 84 81 04 af
	00 00		 mov	 eax, DWORD PTR [ecx+eax*4+44804]
  02a6a	c1 e0 05	 shl	 eax, 5
  02a6d	8b 8d 6c fe ff
	ff		 mov	 ecx, DWORD PTR _n$231016[ebp+16]
  02a73	89 4c 02 10	 mov	 DWORD PTR [edx+eax+16], ecx

; 1014 : 			this->iItem[a][this->iCount[a]].Opt = n[5];

  02a77	8b 85 58 fe ff
	ff		 mov	 eax, DWORD PTR _a$231017[ebp]
  02a7d	69 c0 00 19 00
	00		 imul	 eax, 6400		; 00001900H
  02a83	8b 4d f8	 mov	 ecx, DWORD PTR _this$[ebp]
  02a86	8d 54 01 04	 lea	 edx, DWORD PTR [ecx+eax+4]
  02a8a	8b 85 58 fe ff
	ff		 mov	 eax, DWORD PTR _a$231017[ebp]
  02a90	8b 4d f8	 mov	 ecx, DWORD PTR _this$[ebp]
  02a93	8b 84 81 04 af
	00 00		 mov	 eax, DWORD PTR [ecx+eax*4+44804]
  02a9a	c1 e0 05	 shl	 eax, 5
  02a9d	8b 8d 70 fe ff
	ff		 mov	 ecx, DWORD PTR _n$231016[ebp+20]
  02aa3	89 4c 02 14	 mov	 DWORD PTR [edx+eax+20], ecx

; 1015 : 			this->iItem[a][this->iCount[a]].Exl = n[6];

  02aa7	8b 85 58 fe ff
	ff		 mov	 eax, DWORD PTR _a$231017[ebp]
  02aad	69 c0 00 19 00
	00		 imul	 eax, 6400		; 00001900H
  02ab3	8b 4d f8	 mov	 ecx, DWORD PTR _this$[ebp]
  02ab6	8d 54 01 04	 lea	 edx, DWORD PTR [ecx+eax+4]
  02aba	8b 85 58 fe ff
	ff		 mov	 eax, DWORD PTR _a$231017[ebp]
  02ac0	8b 4d f8	 mov	 ecx, DWORD PTR _this$[ebp]
  02ac3	8b 84 81 04 af
	00 00		 mov	 eax, DWORD PTR [ecx+eax*4+44804]
  02aca	c1 e0 05	 shl	 eax, 5
  02acd	8b 8d 74 fe ff
	ff		 mov	 ecx, DWORD PTR _n$231016[ebp+24]
  02ad3	89 4c 02 18	 mov	 DWORD PTR [edx+eax+24], ecx

; 1016 : 			this->iItem[a][this->iCount[a]].Anc = n[7];

  02ad7	8b 85 58 fe ff
	ff		 mov	 eax, DWORD PTR _a$231017[ebp]
  02add	69 c0 00 19 00
	00		 imul	 eax, 6400		; 00001900H
  02ae3	8b 4d f8	 mov	 ecx, DWORD PTR _this$[ebp]
  02ae6	8d 54 01 04	 lea	 edx, DWORD PTR [ecx+eax+4]
  02aea	8b 85 58 fe ff
	ff		 mov	 eax, DWORD PTR _a$231017[ebp]
  02af0	8b 4d f8	 mov	 ecx, DWORD PTR _this$[ebp]
  02af3	8b 84 81 04 af
	00 00		 mov	 eax, DWORD PTR [ecx+eax*4+44804]
  02afa	c1 e0 05	 shl	 eax, 5
  02afd	8b 8d 78 fe ff
	ff		 mov	 ecx, DWORD PTR _n$231016[ebp+28]
  02b03	89 4c 02 1c	 mov	 DWORD PTR [edx+eax+28], ecx

; 1017 : 			this->iCount[a]++;

  02b07	8b 85 58 fe ff
	ff		 mov	 eax, DWORD PTR _a$231017[ebp]
  02b0d	8b 4d f8	 mov	 ecx, DWORD PTR _this$[ebp]
  02b10	8b 94 81 04 af
	00 00		 mov	 edx, DWORD PTR [ecx+eax*4+44804]
  02b17	83 c2 01	 add	 edx, 1
  02b1a	8b 85 58 fe ff
	ff		 mov	 eax, DWORD PTR _a$231017[ebp]
  02b20	8b 4d f8	 mov	 ecx, DWORD PTR _this$[ebp]
  02b23	89 94 81 04 af
	00 00		 mov	 DWORD PTR [ecx+eax*4+44804], edx
  02b2a	e9 28 06 00 00	 jmp	 $LN12@LoadReward
$LN7@LoadReward:

; 1018 : 		}
; 1019 : 		else if (Flag == 5)

  02b2f	83 bd e8 fe ff
	ff 05		 cmp	 DWORD PTR _Flag$[ebp], 5
  02b36	0f 85 02 02 00
	00		 jne	 $LN5@LoadReward

; 1020 : 		{
; 1021 : 			int n[8];
; 1022 : 			int a = Flag-1;

  02b3c	8b 85 e8 fe ff
	ff		 mov	 eax, DWORD PTR _Flag$[ebp]
  02b42	83 e8 01	 sub	 eax, 1
  02b45	89 85 34 fe ff
	ff		 mov	 DWORD PTR _a$231021[ebp], eax

; 1023 : 			sscanf(Buff,"%d %d %d %d %d %d %d %d", &n[0], &n[1], &n[2], &n[3], &n[4], &n[5], &n[6], &n[7]);

  02b4b	8d 85 54 fe ff
	ff		 lea	 eax, DWORD PTR _n$231020[ebp+28]
  02b51	50		 push	 eax
  02b52	8d 8d 50 fe ff
	ff		 lea	 ecx, DWORD PTR _n$231020[ebp+24]
  02b58	51		 push	 ecx
  02b59	8d 95 4c fe ff
	ff		 lea	 edx, DWORD PTR _n$231020[ebp+20]
  02b5f	52		 push	 edx
  02b60	8d 85 48 fe ff
	ff		 lea	 eax, DWORD PTR _n$231020[ebp+16]
  02b66	50		 push	 eax
  02b67	8d 8d 44 fe ff
	ff		 lea	 ecx, DWORD PTR _n$231020[ebp+12]
  02b6d	51		 push	 ecx
  02b6e	8d 95 40 fe ff
	ff		 lea	 edx, DWORD PTR _n$231020[ebp+8]
  02b74	52		 push	 edx
  02b75	8d 85 3c fe ff
	ff		 lea	 eax, DWORD PTR _n$231020[ebp+4]
  02b7b	50		 push	 eax
  02b7c	8d 8d 38 fe ff
	ff		 lea	 ecx, DWORD PTR _n$231020[ebp]
  02b82	51		 push	 ecx
  02b83	68 00 00 00 00	 push	 OFFSET ??_C@_0BI@HDMMBKBM@?$CFd?5?$CFd?5?$CFd?5?$CFd?5?$CFd?5?$CFd?5?$CFd?5?$CFd?$AA@
  02b88	8d 95 ec fe ff
	ff		 lea	 edx, DWORD PTR _Buff$[ebp]
  02b8e	52		 push	 edx
  02b8f	e8 00 00 00 00	 call	 _sscanf
  02b94	83 c4 28	 add	 esp, 40			; 00000028H

; 1024 : 			this->iItem[a][this->iCount[a]].Type	 = n[0];

  02b97	8b 85 34 fe ff
	ff		 mov	 eax, DWORD PTR _a$231021[ebp]
  02b9d	69 c0 00 19 00
	00		 imul	 eax, 6400		; 00001900H
  02ba3	8b 4d f8	 mov	 ecx, DWORD PTR _this$[ebp]
  02ba6	8d 54 01 04	 lea	 edx, DWORD PTR [ecx+eax+4]
  02baa	8b 85 34 fe ff
	ff		 mov	 eax, DWORD PTR _a$231021[ebp]
  02bb0	8b 4d f8	 mov	 ecx, DWORD PTR _this$[ebp]
  02bb3	8b 84 81 04 af
	00 00		 mov	 eax, DWORD PTR [ecx+eax*4+44804]
  02bba	c1 e0 05	 shl	 eax, 5
  02bbd	8b 8d 38 fe ff
	ff		 mov	 ecx, DWORD PTR _n$231020[ebp]
  02bc3	89 0c 02	 mov	 DWORD PTR [edx+eax], ecx

; 1025 : 			this->iItem[a][this->iCount[a]].Index = n[1];

  02bc6	8b 85 34 fe ff
	ff		 mov	 eax, DWORD PTR _a$231021[ebp]
  02bcc	69 c0 00 19 00
	00		 imul	 eax, 6400		; 00001900H
  02bd2	8b 4d f8	 mov	 ecx, DWORD PTR _this$[ebp]
  02bd5	8d 54 01 04	 lea	 edx, DWORD PTR [ecx+eax+4]
  02bd9	8b 85 34 fe ff
	ff		 mov	 eax, DWORD PTR _a$231021[ebp]
  02bdf	8b 4d f8	 mov	 ecx, DWORD PTR _this$[ebp]
  02be2	8b 84 81 04 af
	00 00		 mov	 eax, DWORD PTR [ecx+eax*4+44804]
  02be9	c1 e0 05	 shl	 eax, 5
  02bec	8b 8d 3c fe ff
	ff		 mov	 ecx, DWORD PTR _n$231020[ebp+4]
  02bf2	89 4c 02 04	 mov	 DWORD PTR [edx+eax+4], ecx

; 1026 : 			this->iItem[a][this->iCount[a]].Level = n[2];

  02bf6	8b 85 34 fe ff
	ff		 mov	 eax, DWORD PTR _a$231021[ebp]
  02bfc	69 c0 00 19 00
	00		 imul	 eax, 6400		; 00001900H
  02c02	8b 4d f8	 mov	 ecx, DWORD PTR _this$[ebp]
  02c05	8d 54 01 04	 lea	 edx, DWORD PTR [ecx+eax+4]
  02c09	8b 85 34 fe ff
	ff		 mov	 eax, DWORD PTR _a$231021[ebp]
  02c0f	8b 4d f8	 mov	 ecx, DWORD PTR _this$[ebp]
  02c12	8b 84 81 04 af
	00 00		 mov	 eax, DWORD PTR [ecx+eax*4+44804]
  02c19	c1 e0 05	 shl	 eax, 5
  02c1c	8b 8d 40 fe ff
	ff		 mov	 ecx, DWORD PTR _n$231020[ebp+8]
  02c22	89 4c 02 08	 mov	 DWORD PTR [edx+eax+8], ecx

; 1027 : 			this->iItem[a][this->iCount[a]].Skill = n[3];

  02c26	8b 85 34 fe ff
	ff		 mov	 eax, DWORD PTR _a$231021[ebp]
  02c2c	69 c0 00 19 00
	00		 imul	 eax, 6400		; 00001900H
  02c32	8b 4d f8	 mov	 ecx, DWORD PTR _this$[ebp]
  02c35	8d 54 01 04	 lea	 edx, DWORD PTR [ecx+eax+4]
  02c39	8b 85 34 fe ff
	ff		 mov	 eax, DWORD PTR _a$231021[ebp]
  02c3f	8b 4d f8	 mov	 ecx, DWORD PTR _this$[ebp]
  02c42	8b 84 81 04 af
	00 00		 mov	 eax, DWORD PTR [ecx+eax*4+44804]
  02c49	c1 e0 05	 shl	 eax, 5
  02c4c	8b 8d 44 fe ff
	ff		 mov	 ecx, DWORD PTR _n$231020[ebp+12]
  02c52	89 4c 02 0c	 mov	 DWORD PTR [edx+eax+12], ecx

; 1028 : 			this->iItem[a][this->iCount[a]].Luck = n[4];

  02c56	8b 85 34 fe ff
	ff		 mov	 eax, DWORD PTR _a$231021[ebp]
  02c5c	69 c0 00 19 00
	00		 imul	 eax, 6400		; 00001900H
  02c62	8b 4d f8	 mov	 ecx, DWORD PTR _this$[ebp]
  02c65	8d 54 01 04	 lea	 edx, DWORD PTR [ecx+eax+4]
  02c69	8b 85 34 fe ff
	ff		 mov	 eax, DWORD PTR _a$231021[ebp]
  02c6f	8b 4d f8	 mov	 ecx, DWORD PTR _this$[ebp]
  02c72	8b 84 81 04 af
	00 00		 mov	 eax, DWORD PTR [ecx+eax*4+44804]
  02c79	c1 e0 05	 shl	 eax, 5
  02c7c	8b 8d 48 fe ff
	ff		 mov	 ecx, DWORD PTR _n$231020[ebp+16]
  02c82	89 4c 02 10	 mov	 DWORD PTR [edx+eax+16], ecx

; 1029 : 			this->iItem[a][this->iCount[a]].Opt = n[5];

  02c86	8b 85 34 fe ff
	ff		 mov	 eax, DWORD PTR _a$231021[ebp]
  02c8c	69 c0 00 19 00
	00		 imul	 eax, 6400		; 00001900H
  02c92	8b 4d f8	 mov	 ecx, DWORD PTR _this$[ebp]
  02c95	8d 54 01 04	 lea	 edx, DWORD PTR [ecx+eax+4]
  02c99	8b 85 34 fe ff
	ff		 mov	 eax, DWORD PTR _a$231021[ebp]
  02c9f	8b 4d f8	 mov	 ecx, DWORD PTR _this$[ebp]
  02ca2	8b 84 81 04 af
	00 00		 mov	 eax, DWORD PTR [ecx+eax*4+44804]
  02ca9	c1 e0 05	 shl	 eax, 5
  02cac	8b 8d 4c fe ff
	ff		 mov	 ecx, DWORD PTR _n$231020[ebp+20]
  02cb2	89 4c 02 14	 mov	 DWORD PTR [edx+eax+20], ecx

; 1030 : 			this->iItem[a][this->iCount[a]].Exl = n[6];

  02cb6	8b 85 34 fe ff
	ff		 mov	 eax, DWORD PTR _a$231021[ebp]
  02cbc	69 c0 00 19 00
	00		 imul	 eax, 6400		; 00001900H
  02cc2	8b 4d f8	 mov	 ecx, DWORD PTR _this$[ebp]
  02cc5	8d 54 01 04	 lea	 edx, DWORD PTR [ecx+eax+4]
  02cc9	8b 85 34 fe ff
	ff		 mov	 eax, DWORD PTR _a$231021[ebp]
  02ccf	8b 4d f8	 mov	 ecx, DWORD PTR _this$[ebp]
  02cd2	8b 84 81 04 af
	00 00		 mov	 eax, DWORD PTR [ecx+eax*4+44804]
  02cd9	c1 e0 05	 shl	 eax, 5
  02cdc	8b 8d 50 fe ff
	ff		 mov	 ecx, DWORD PTR _n$231020[ebp+24]
  02ce2	89 4c 02 18	 mov	 DWORD PTR [edx+eax+24], ecx

; 1031 : 			this->iItem[a][this->iCount[a]].Anc = n[7];

  02ce6	8b 85 34 fe ff
	ff		 mov	 eax, DWORD PTR _a$231021[ebp]
  02cec	69 c0 00 19 00
	00		 imul	 eax, 6400		; 00001900H
  02cf2	8b 4d f8	 mov	 ecx, DWORD PTR _this$[ebp]
  02cf5	8d 54 01 04	 lea	 edx, DWORD PTR [ecx+eax+4]
  02cf9	8b 85 34 fe ff
	ff		 mov	 eax, DWORD PTR _a$231021[ebp]
  02cff	8b 4d f8	 mov	 ecx, DWORD PTR _this$[ebp]
  02d02	8b 84 81 04 af
	00 00		 mov	 eax, DWORD PTR [ecx+eax*4+44804]
  02d09	c1 e0 05	 shl	 eax, 5
  02d0c	8b 8d 54 fe ff
	ff		 mov	 ecx, DWORD PTR _n$231020[ebp+28]
  02d12	89 4c 02 1c	 mov	 DWORD PTR [edx+eax+28], ecx

; 1032 : 			this->iCount[a]++;

  02d16	8b 85 34 fe ff
	ff		 mov	 eax, DWORD PTR _a$231021[ebp]
  02d1c	8b 4d f8	 mov	 ecx, DWORD PTR _this$[ebp]
  02d1f	8b 94 81 04 af
	00 00		 mov	 edx, DWORD PTR [ecx+eax*4+44804]
  02d26	83 c2 01	 add	 edx, 1
  02d29	8b 85 34 fe ff
	ff		 mov	 eax, DWORD PTR _a$231021[ebp]
  02d2f	8b 4d f8	 mov	 ecx, DWORD PTR _this$[ebp]
  02d32	89 94 81 04 af
	00 00		 mov	 DWORD PTR [ecx+eax*4+44804], edx
  02d39	e9 19 04 00 00	 jmp	 $LN12@LoadReward
$LN5@LoadReward:

; 1033 : 		}
; 1034 : 		else if (Flag == 6)

  02d3e	83 bd e8 fe ff
	ff 06		 cmp	 DWORD PTR _Flag$[ebp], 6
  02d45	0f 85 02 02 00
	00		 jne	 $LN3@LoadReward

; 1035 : 		{
; 1036 : 			int n[8];
; 1037 : 			int a = Flag-1;

  02d4b	8b 85 e8 fe ff
	ff		 mov	 eax, DWORD PTR _Flag$[ebp]
  02d51	83 e8 01	 sub	 eax, 1
  02d54	89 85 10 fe ff
	ff		 mov	 DWORD PTR _a$231025[ebp], eax

; 1038 : 			sscanf(Buff,"%d %d %d %d %d %d %d %d", &n[0], &n[1], &n[2], &n[3], &n[4], &n[5], &n[6], &n[7]);

  02d5a	8d 85 30 fe ff
	ff		 lea	 eax, DWORD PTR _n$231024[ebp+28]
  02d60	50		 push	 eax
  02d61	8d 8d 2c fe ff
	ff		 lea	 ecx, DWORD PTR _n$231024[ebp+24]
  02d67	51		 push	 ecx
  02d68	8d 95 28 fe ff
	ff		 lea	 edx, DWORD PTR _n$231024[ebp+20]
  02d6e	52		 push	 edx
  02d6f	8d 85 24 fe ff
	ff		 lea	 eax, DWORD PTR _n$231024[ebp+16]
  02d75	50		 push	 eax
  02d76	8d 8d 20 fe ff
	ff		 lea	 ecx, DWORD PTR _n$231024[ebp+12]
  02d7c	51		 push	 ecx
  02d7d	8d 95 1c fe ff
	ff		 lea	 edx, DWORD PTR _n$231024[ebp+8]
  02d83	52		 push	 edx
  02d84	8d 85 18 fe ff
	ff		 lea	 eax, DWORD PTR _n$231024[ebp+4]
  02d8a	50		 push	 eax
  02d8b	8d 8d 14 fe ff
	ff		 lea	 ecx, DWORD PTR _n$231024[ebp]
  02d91	51		 push	 ecx
  02d92	68 00 00 00 00	 push	 OFFSET ??_C@_0BI@HDMMBKBM@?$CFd?5?$CFd?5?$CFd?5?$CFd?5?$CFd?5?$CFd?5?$CFd?5?$CFd?$AA@
  02d97	8d 95 ec fe ff
	ff		 lea	 edx, DWORD PTR _Buff$[ebp]
  02d9d	52		 push	 edx
  02d9e	e8 00 00 00 00	 call	 _sscanf
  02da3	83 c4 28	 add	 esp, 40			; 00000028H

; 1039 : 			this->iItem[a][this->iCount[a]].Type	 = n[0];

  02da6	8b 85 10 fe ff
	ff		 mov	 eax, DWORD PTR _a$231025[ebp]
  02dac	69 c0 00 19 00
	00		 imul	 eax, 6400		; 00001900H
  02db2	8b 4d f8	 mov	 ecx, DWORD PTR _this$[ebp]
  02db5	8d 54 01 04	 lea	 edx, DWORD PTR [ecx+eax+4]
  02db9	8b 85 10 fe ff
	ff		 mov	 eax, DWORD PTR _a$231025[ebp]
  02dbf	8b 4d f8	 mov	 ecx, DWORD PTR _this$[ebp]
  02dc2	8b 84 81 04 af
	00 00		 mov	 eax, DWORD PTR [ecx+eax*4+44804]
  02dc9	c1 e0 05	 shl	 eax, 5
  02dcc	8b 8d 14 fe ff
	ff		 mov	 ecx, DWORD PTR _n$231024[ebp]
  02dd2	89 0c 02	 mov	 DWORD PTR [edx+eax], ecx

; 1040 : 			this->iItem[a][this->iCount[a]].Index = n[1];

  02dd5	8b 85 10 fe ff
	ff		 mov	 eax, DWORD PTR _a$231025[ebp]
  02ddb	69 c0 00 19 00
	00		 imul	 eax, 6400		; 00001900H
  02de1	8b 4d f8	 mov	 ecx, DWORD PTR _this$[ebp]
  02de4	8d 54 01 04	 lea	 edx, DWORD PTR [ecx+eax+4]
  02de8	8b 85 10 fe ff
	ff		 mov	 eax, DWORD PTR _a$231025[ebp]
  02dee	8b 4d f8	 mov	 ecx, DWORD PTR _this$[ebp]
  02df1	8b 84 81 04 af
	00 00		 mov	 eax, DWORD PTR [ecx+eax*4+44804]
  02df8	c1 e0 05	 shl	 eax, 5
  02dfb	8b 8d 18 fe ff
	ff		 mov	 ecx, DWORD PTR _n$231024[ebp+4]
  02e01	89 4c 02 04	 mov	 DWORD PTR [edx+eax+4], ecx

; 1041 : 			this->iItem[a][this->iCount[a]].Level = n[2];

  02e05	8b 85 10 fe ff
	ff		 mov	 eax, DWORD PTR _a$231025[ebp]
  02e0b	69 c0 00 19 00
	00		 imul	 eax, 6400		; 00001900H
  02e11	8b 4d f8	 mov	 ecx, DWORD PTR _this$[ebp]
  02e14	8d 54 01 04	 lea	 edx, DWORD PTR [ecx+eax+4]
  02e18	8b 85 10 fe ff
	ff		 mov	 eax, DWORD PTR _a$231025[ebp]
  02e1e	8b 4d f8	 mov	 ecx, DWORD PTR _this$[ebp]
  02e21	8b 84 81 04 af
	00 00		 mov	 eax, DWORD PTR [ecx+eax*4+44804]
  02e28	c1 e0 05	 shl	 eax, 5
  02e2b	8b 8d 1c fe ff
	ff		 mov	 ecx, DWORD PTR _n$231024[ebp+8]
  02e31	89 4c 02 08	 mov	 DWORD PTR [edx+eax+8], ecx

; 1042 : 			this->iItem[a][this->iCount[a]].Skill = n[3];

  02e35	8b 85 10 fe ff
	ff		 mov	 eax, DWORD PTR _a$231025[ebp]
  02e3b	69 c0 00 19 00
	00		 imul	 eax, 6400		; 00001900H
  02e41	8b 4d f8	 mov	 ecx, DWORD PTR _this$[ebp]
  02e44	8d 54 01 04	 lea	 edx, DWORD PTR [ecx+eax+4]
  02e48	8b 85 10 fe ff
	ff		 mov	 eax, DWORD PTR _a$231025[ebp]
  02e4e	8b 4d f8	 mov	 ecx, DWORD PTR _this$[ebp]
  02e51	8b 84 81 04 af
	00 00		 mov	 eax, DWORD PTR [ecx+eax*4+44804]
  02e58	c1 e0 05	 shl	 eax, 5
  02e5b	8b 8d 20 fe ff
	ff		 mov	 ecx, DWORD PTR _n$231024[ebp+12]
  02e61	89 4c 02 0c	 mov	 DWORD PTR [edx+eax+12], ecx

; 1043 : 			this->iItem[a][this->iCount[a]].Luck = n[4];

  02e65	8b 85 10 fe ff
	ff		 mov	 eax, DWORD PTR _a$231025[ebp]
  02e6b	69 c0 00 19 00
	00		 imul	 eax, 6400		; 00001900H
  02e71	8b 4d f8	 mov	 ecx, DWORD PTR _this$[ebp]
  02e74	8d 54 01 04	 lea	 edx, DWORD PTR [ecx+eax+4]
  02e78	8b 85 10 fe ff
	ff		 mov	 eax, DWORD PTR _a$231025[ebp]
  02e7e	8b 4d f8	 mov	 ecx, DWORD PTR _this$[ebp]
  02e81	8b 84 81 04 af
	00 00		 mov	 eax, DWORD PTR [ecx+eax*4+44804]
  02e88	c1 e0 05	 shl	 eax, 5
  02e8b	8b 8d 24 fe ff
	ff		 mov	 ecx, DWORD PTR _n$231024[ebp+16]
  02e91	89 4c 02 10	 mov	 DWORD PTR [edx+eax+16], ecx

; 1044 : 			this->iItem[a][this->iCount[a]].Opt = n[5];

  02e95	8b 85 10 fe ff
	ff		 mov	 eax, DWORD PTR _a$231025[ebp]
  02e9b	69 c0 00 19 00
	00		 imul	 eax, 6400		; 00001900H
  02ea1	8b 4d f8	 mov	 ecx, DWORD PTR _this$[ebp]
  02ea4	8d 54 01 04	 lea	 edx, DWORD PTR [ecx+eax+4]
  02ea8	8b 85 10 fe ff
	ff		 mov	 eax, DWORD PTR _a$231025[ebp]
  02eae	8b 4d f8	 mov	 ecx, DWORD PTR _this$[ebp]
  02eb1	8b 84 81 04 af
	00 00		 mov	 eax, DWORD PTR [ecx+eax*4+44804]
  02eb8	c1 e0 05	 shl	 eax, 5
  02ebb	8b 8d 28 fe ff
	ff		 mov	 ecx, DWORD PTR _n$231024[ebp+20]
  02ec1	89 4c 02 14	 mov	 DWORD PTR [edx+eax+20], ecx

; 1045 : 			this->iItem[a][this->iCount[a]].Exl = n[6];

  02ec5	8b 85 10 fe ff
	ff		 mov	 eax, DWORD PTR _a$231025[ebp]
  02ecb	69 c0 00 19 00
	00		 imul	 eax, 6400		; 00001900H
  02ed1	8b 4d f8	 mov	 ecx, DWORD PTR _this$[ebp]
  02ed4	8d 54 01 04	 lea	 edx, DWORD PTR [ecx+eax+4]
  02ed8	8b 85 10 fe ff
	ff		 mov	 eax, DWORD PTR _a$231025[ebp]
  02ede	8b 4d f8	 mov	 ecx, DWORD PTR _this$[ebp]
  02ee1	8b 84 81 04 af
	00 00		 mov	 eax, DWORD PTR [ecx+eax*4+44804]
  02ee8	c1 e0 05	 shl	 eax, 5
  02eeb	8b 8d 2c fe ff
	ff		 mov	 ecx, DWORD PTR _n$231024[ebp+24]
  02ef1	89 4c 02 18	 mov	 DWORD PTR [edx+eax+24], ecx

; 1046 : 			this->iItem[a][this->iCount[a]].Anc = n[7];

  02ef5	8b 85 10 fe ff
	ff		 mov	 eax, DWORD PTR _a$231025[ebp]
  02efb	69 c0 00 19 00
	00		 imul	 eax, 6400		; 00001900H
  02f01	8b 4d f8	 mov	 ecx, DWORD PTR _this$[ebp]
  02f04	8d 54 01 04	 lea	 edx, DWORD PTR [ecx+eax+4]
  02f08	8b 85 10 fe ff
	ff		 mov	 eax, DWORD PTR _a$231025[ebp]
  02f0e	8b 4d f8	 mov	 ecx, DWORD PTR _this$[ebp]
  02f11	8b 84 81 04 af
	00 00		 mov	 eax, DWORD PTR [ecx+eax*4+44804]
  02f18	c1 e0 05	 shl	 eax, 5
  02f1b	8b 8d 30 fe ff
	ff		 mov	 ecx, DWORD PTR _n$231024[ebp+28]
  02f21	89 4c 02 1c	 mov	 DWORD PTR [edx+eax+28], ecx

; 1047 : 			this->iCount[a]++;

  02f25	8b 85 10 fe ff
	ff		 mov	 eax, DWORD PTR _a$231025[ebp]
  02f2b	8b 4d f8	 mov	 ecx, DWORD PTR _this$[ebp]
  02f2e	8b 94 81 04 af
	00 00		 mov	 edx, DWORD PTR [ecx+eax*4+44804]
  02f35	83 c2 01	 add	 edx, 1
  02f38	8b 85 10 fe ff
	ff		 mov	 eax, DWORD PTR _a$231025[ebp]
  02f3e	8b 4d f8	 mov	 ecx, DWORD PTR _this$[ebp]
  02f41	89 94 81 04 af
	00 00		 mov	 DWORD PTR [ecx+eax*4+44804], edx
  02f48	e9 0a 02 00 00	 jmp	 $LN12@LoadReward
$LN3@LoadReward:

; 1048 : 		}
; 1049 : 		else if (Flag == 7)

  02f4d	83 bd e8 fe ff
	ff 07		 cmp	 DWORD PTR _Flag$[ebp], 7
  02f54	0f 85 fd 01 00
	00		 jne	 $LN12@LoadReward

; 1050 : 		{
; 1051 : 			int n[8];
; 1052 : 			int a = Flag-1;

  02f5a	8b 85 e8 fe ff
	ff		 mov	 eax, DWORD PTR _Flag$[ebp]
  02f60	83 e8 01	 sub	 eax, 1
  02f63	89 85 ec fd ff
	ff		 mov	 DWORD PTR _a$231029[ebp], eax

; 1053 : 			sscanf(Buff,"%d %d %d %d %d %d %d %d", &n[0], &n[1], &n[2], &n[3], &n[4], &n[5], &n[6], &n[7]);

  02f69	8d 85 0c fe ff
	ff		 lea	 eax, DWORD PTR _n$231028[ebp+28]
  02f6f	50		 push	 eax
  02f70	8d 8d 08 fe ff
	ff		 lea	 ecx, DWORD PTR _n$231028[ebp+24]
  02f76	51		 push	 ecx
  02f77	8d 95 04 fe ff
	ff		 lea	 edx, DWORD PTR _n$231028[ebp+20]
  02f7d	52		 push	 edx
  02f7e	8d 85 00 fe ff
	ff		 lea	 eax, DWORD PTR _n$231028[ebp+16]
  02f84	50		 push	 eax
  02f85	8d 8d fc fd ff
	ff		 lea	 ecx, DWORD PTR _n$231028[ebp+12]
  02f8b	51		 push	 ecx
  02f8c	8d 95 f8 fd ff
	ff		 lea	 edx, DWORD PTR _n$231028[ebp+8]
  02f92	52		 push	 edx
  02f93	8d 85 f4 fd ff
	ff		 lea	 eax, DWORD PTR _n$231028[ebp+4]
  02f99	50		 push	 eax
  02f9a	8d 8d f0 fd ff
	ff		 lea	 ecx, DWORD PTR _n$231028[ebp]
  02fa0	51		 push	 ecx
  02fa1	68 00 00 00 00	 push	 OFFSET ??_C@_0BI@HDMMBKBM@?$CFd?5?$CFd?5?$CFd?5?$CFd?5?$CFd?5?$CFd?5?$CFd?5?$CFd?$AA@
  02fa6	8d 95 ec fe ff
	ff		 lea	 edx, DWORD PTR _Buff$[ebp]
  02fac	52		 push	 edx
  02fad	e8 00 00 00 00	 call	 _sscanf
  02fb2	83 c4 28	 add	 esp, 40			; 00000028H

; 1054 : 			this->iItem[a][this->iCount[a]].Type	 = n[0];

  02fb5	8b 85 ec fd ff
