; Listing generated by Microsoft (R) Optimizing Compiler Version 16.00.40219.01 

	TITLE	D:\Projects\ExTeam6.3\Source\GameServer\GameServer\JewelsBank.cpp
	.686P
	.XMM
	include listing.inc
	.model	flat

INCLUDELIB LIBCMT
INCLUDELIB OLDNAMES

PUBLIC	?gJewelsBank@@3VJewelsBank@@A			; gJewelsBank
_BSS	SEGMENT
?gJewelsBank@@3VJewelsBank@@A DB 010cH DUP (?)		; gJewelsBank
_BSS	ENDS
PUBLIC	??_H@YGXPAXIHP6EPAX0@Z@Z			; `vector constructor iterator'
; Function compile flags: /Odtp /ZI
;	COMDAT ??_H@YGXPAXIHP6EPAX0@Z@Z
_TEXT	SEGMENT
___t$ = 8						; size = 4
___s$ = 12						; size = 4
___n$ = 16						; size = 4
___f$ = 20						; size = 4
??_H@YGXPAXIHP6EPAX0@Z@Z PROC				; `vector constructor iterator', COMDAT
  00000	55		 push	 ebp
  00001	8b ec		 mov	 ebp, esp
  00003	83 ec 40	 sub	 esp, 64			; 00000040H
  00006	53		 push	 ebx
  00007	56		 push	 esi
  00008	57		 push	 edi
$LN2@vector:
  00009	8b 45 10	 mov	 eax, DWORD PTR ___n$[ebp]
  0000c	83 e8 01	 sub	 eax, 1
  0000f	89 45 10	 mov	 DWORD PTR ___n$[ebp], eax
  00012	78 11		 js	 SHORT $LN3@vector
  00014	8b 4d 08	 mov	 ecx, DWORD PTR ___t$[ebp]
  00017	ff 55 14	 call	 DWORD PTR ___f$[ebp]
  0001a	8b 45 08	 mov	 eax, DWORD PTR ___t$[ebp]
  0001d	03 45 0c	 add	 eax, DWORD PTR ___s$[ebp]
  00020	89 45 08	 mov	 DWORD PTR ___t$[ebp], eax
  00023	eb e4		 jmp	 SHORT $LN2@vector
$LN3@vector:
  00025	5f		 pop	 edi
  00026	5e		 pop	 esi
  00027	5b		 pop	 ebx
  00028	8b e5		 mov	 esp, ebp
  0002a	5d		 pop	 ebp
  0002b	c2 10 00	 ret	 16			; 00000010H
??_H@YGXPAXIHP6EPAX0@Z@Z ENDP				; `vector constructor iterator'
_TEXT	ENDS
PUBLIC	??_C@_0BC@MAALIPKD@ExGemStoneHundred?$AA@	; `string'
PUBLIC	??_C@_0BA@HAEDIHCP@ExGemStoneFifty?$AA@		; `string'
PUBLIC	??_C@_0BA@CAHILCEH@ExGemStoneForty?$AA@		; `string'
PUBLIC	??_C@_0BB@MBKCLJHN@ExGemStoneThirty?$AA@	; `string'
PUBLIC	??_C@_0BB@OMBNAMBF@ExGemStoneTwenty?$AA@	; `string'
PUBLIC	??_C@_0P@OCDHFGEF@ExGemStoneTeen?$AA@		; `string'
PUBLIC	??_C@_0BD@KMLODKHN@ExHighStoneHundred?$AA@	; `string'
PUBLIC	??_C@_0BB@DGAKPNNH@ExHighStoneFifty?$AA@	; `string'
PUBLIC	??_C@_0BB@GGDBMILP@ExHighStoneForty?$AA@	; `string'
PUBLIC	??_C@_0BC@HCICIKCJ@ExHighStoneThirty?$AA@	; `string'
PUBLIC	??_C@_0BC@FPDNDPEB@ExHighStoneTwenty?$AA@	; `string'
PUBLIC	??_C@_0BA@MCPDNHOK@ExHighStoneTeen?$AA@		; `string'
PUBLIC	??_C@_0BC@EJFKDPPP@ExLowStoneHundred?$AA@	; `string'
PUBLIC	??_C@_0BA@ODALNPHJ@ExLowStoneFifty?$AA@		; `string'
PUBLIC	??_C@_0BA@LDDAOKBB@ExLowStoneForty?$AA@		; `string'
PUBLIC	??_C@_0BB@EDDJAFOE@ExLowStoneThirty?$AA@	; `string'
PUBLIC	??_C@_0BB@GOIGLAIM@ExLowStoneTwenty?$AA@	; `string'
PUBLIC	??_C@_0P@KDJAJNMI@ExLowStoneTeen?$AA@		; `string'
PUBLIC	??_C@_0BB@IPKFKDFP@ExHarmonyHundred?$AA@	; `string'
PUBLIC	??_C@_0P@BPGIKNGL@ExHarmonyFifty?$AA@		; `string'
PUBLIC	??_C@_0P@EPFDJIAD@ExHarmonyForty?$AA@		; `string'
PUBLIC	??_C@_0BA@LAHMBHNO@ExHarmonyThirty?$AA@		; `string'
PUBLIC	??_C@_0BA@JNMDKCLG@ExHarmonyTwenty?$AA@		; `string'
PUBLIC	??_C@_0O@HJGKPDJD@ExHarmonyTeen?$AA@		; `string'
PUBLIC	??_C@_0BC@FHIHPBFO@ExGuardianHundred?$AA@	; `string'
PUBLIC	??_C@_0BA@JMPICFH@ExGuardianFifty?$AA@		; `string'
PUBLIC	??_C@_0BA@FJPELHDP@ExGuardianForty?$AA@		; `string'
PUBLIC	??_C@_0BB@JPAFMMHG@ExGuardianThirty?$AA@	; `string'
PUBLIC	??_C@_0BB@LCLKHJBO@ExGuardianTwenty?$AA@	; `string'
PUBLIC	??_C@_0P@LCIKIKEM@ExGuardianTeen?$AA@		; `string'
PUBLIC	??_C@_0BC@BABNLIEE@ExCreateonHundred?$AA@	; `string'
PUBLIC	??_C@_0BA@INBCPCGP@ExCreateonFifty?$AA@		; `string'
PUBLIC	??_C@_0BA@NNCJMHAH@ExCreateonForty?$AA@		; `string'
PUBLIC	??_C@_0BB@LHIDKJJI@ExCreateonThirty?$AA@	; `string'
PUBLIC	??_C@_0BB@JKDMBMPA@ExCreateonTwenty?$AA@	; `string'
PUBLIC	??_C@_0P@NBLLGMFP@ExCreateonTeen?$AA@		; `string'
PUBLIC	??_C@_0O@ELILAEFB@ExLifeHundred?$AA@		; `string'
PUBLIC	??_C@_0M@CNCMAGMI@ExLifeFifty?$AA@		; `string'
PUBLIC	??_C@_0M@HNBHDDKA@ExLifeForty?$AA@		; `string'
PUBLIC	??_C@_0N@PPJBKBCH@ExLifeThirty?$AA@		; `string'
PUBLIC	??_C@_0N@NCCOBEEP@ExLifeTwenty?$AA@		; `string'
PUBLIC	??_C@_0L@OFKNLDLP@ExLifeTeen?$AA@		; `string'
PUBLIC	??_C@_0O@LNIIDACP@ExSoulHundred?$AA@		; `string'
PUBLIC	??_C@_0M@OPDPNGDM@ExSoulFifty?$AA@		; `string'
PUBLIC	??_C@_0M@LPAEODFE@ExSoulForty?$AA@		; `string'
PUBLIC	??_C@_0N@EFIDIEPC@ExSoulThirty?$AA@		; `string'
PUBLIC	??_C@_0N@GIDMDBJK@ExSoulTwenty?$AA@		; `string'
PUBLIC	??_C@_0L@CBICOAAD@ExSoulTeen?$AA@		; `string'
PUBLIC	??_C@_0P@JJODDMAJ@ExBlessHundred?$AA@		; `string'
PUBLIC	??_C@_0N@CAFAOGJA@ExBlessFifty?$AA@		; `string'
PUBLIC	??_C@_0N@HAGLNDPI@ExBlessForty?$AA@		; `string'
PUBLIC	??_C@_0O@JKCMAEAB@ExBlessThirty?$AA@		; `string'
PUBLIC	??_C@_0O@LHJDLBGJ@ExBlessTwenty?$AA@		; `string'
PUBLIC	??_C@_0M@PECHNFDF@ExBlessTeen?$AA@		; `string'
PUBLIC	??_C@_0P@MKDIMMBH@ExChaosHundred?$AA@		; `string'
PUBLIC	??_C@_0N@JOMNOMEC@ExChaosFifty?$AA@		; `string'
PUBLIC	??_C@_0N@MOPGNJCK@ExChaosForty?$AA@		; `string'
PUBLIC	??_C@_0O@PCEPCKPD@ExChaosThirty?$AA@		; `string'
PUBLIC	??_C@_0O@NPPAJPJL@ExChaosTwenty?$AA@		; `string'
PUBLIC	??_C@_0M@GCDNBHEH@ExChaosTeen?$AA@		; `string'
PUBLIC	??_C@_06MLPMCPDE@ExTeam?$AA@			; `string'
PUBLIC	??_C@_06CKGENIKG@Enable?$AA@			; `string'
PUBLIC	??_C@_0BO@LNDIKJNF@?4?4?2Data?2ExData?2JewelsBank?4ini?$AA@ ; `string'
PUBLIC	?Load@JewelsBank@@QAEXXZ			; JewelsBank::Load
EXTRN	?CheckUser@CExLicense@@QAE_NH@Z:PROC		; CExLicense::CheckUser
EXTRN	?g_ExLicense@@3VCExLicense@@A:BYTE		; g_ExLicense
EXTRN	__imp__GetPrivateProfileIntA@16:PROC
;	COMDAT ??_C@_0BC@MAALIPKD@ExGemStoneHundred?$AA@
; File d:\projects\exteam6.3\source\gameserver\gameserver\jewelsbank.cpp
CONST	SEGMENT
??_C@_0BC@MAALIPKD@ExGemStoneHundred?$AA@ DB 'ExGemStoneHundred', 00H ; `string'
CONST	ENDS
;	COMDAT ??_C@_0BA@HAEDIHCP@ExGemStoneFifty?$AA@
CONST	SEGMENT
??_C@_0BA@HAEDIHCP@ExGemStoneFifty?$AA@ DB 'ExGemStoneFifty', 00H ; `string'
CONST	ENDS
;	COMDAT ??_C@_0BA@CAHILCEH@ExGemStoneForty?$AA@
CONST	SEGMENT
??_C@_0BA@CAHILCEH@ExGemStoneForty?$AA@ DB 'ExGemStoneForty', 00H ; `string'
CONST	ENDS
;	COMDAT ??_C@_0BB@MBKCLJHN@ExGemStoneThirty?$AA@
CONST	SEGMENT
??_C@_0BB@MBKCLJHN@ExGemStoneThirty?$AA@ DB 'ExGemStoneThirty', 00H ; `string'
CONST	ENDS
;	COMDAT ??_C@_0BB@OMBNAMBF@ExGemStoneTwenty?$AA@
CONST	SEGMENT
??_C@_0BB@OMBNAMBF@ExGemStoneTwenty?$AA@ DB 'ExGemStoneTwenty', 00H ; `string'
CONST	ENDS
;	COMDAT ??_C@_0P@OCDHFGEF@ExGemStoneTeen?$AA@
CONST	SEGMENT
??_C@_0P@OCDHFGEF@ExGemStoneTeen?$AA@ DB 'ExGemStoneTeen', 00H ; `string'
CONST	ENDS
;	COMDAT ??_C@_0BD@KMLODKHN@ExHighStoneHundred?$AA@
CONST	SEGMENT
??_C@_0BD@KMLODKHN@ExHighStoneHundred?$AA@ DB 'ExHighStoneHundred', 00H ; `string'
CONST	ENDS
;	COMDAT ??_C@_0BB@DGAKPNNH@ExHighStoneFifty?$AA@
CONST	SEGMENT
??_C@_0BB@DGAKPNNH@ExHighStoneFifty?$AA@ DB 'ExHighStoneFifty', 00H ; `string'
CONST	ENDS
;	COMDAT ??_C@_0BB@GGDBMILP@ExHighStoneForty?$AA@
CONST	SEGMENT
??_C@_0BB@GGDBMILP@ExHighStoneForty?$AA@ DB 'ExHighStoneForty', 00H ; `string'
CONST	ENDS
;	COMDAT ??_C@_0BC@HCICIKCJ@ExHighStoneThirty?$AA@
CONST	SEGMENT
??_C@_0BC@HCICIKCJ@ExHighStoneThirty?$AA@ DB 'ExHighStoneThirty', 00H ; `string'
CONST	ENDS
;	COMDAT ??_C@_0BC@FPDNDPEB@ExHighStoneTwenty?$AA@
CONST	SEGMENT
??_C@_0BC@FPDNDPEB@ExHighStoneTwenty?$AA@ DB 'ExHighStoneTwenty', 00H ; `string'
CONST	ENDS
;	COMDAT ??_C@_0BA@MCPDNHOK@ExHighStoneTeen?$AA@
CONST	SEGMENT
??_C@_0BA@MCPDNHOK@ExHighStoneTeen?$AA@ DB 'ExHighStoneTeen', 00H ; `string'
CONST	ENDS
;	COMDAT ??_C@_0BC@EJFKDPPP@ExLowStoneHundred?$AA@
CONST	SEGMENT
??_C@_0BC@EJFKDPPP@ExLowStoneHundred?$AA@ DB 'ExLowStoneHundred', 00H ; `string'
CONST	ENDS
;	COMDAT ??_C@_0BA@ODALNPHJ@ExLowStoneFifty?$AA@
CONST	SEGMENT
??_C@_0BA@ODALNPHJ@ExLowStoneFifty?$AA@ DB 'ExLowStoneFifty', 00H ; `string'
CONST	ENDS
;	COMDAT ??_C@_0BA@LDDAOKBB@ExLowStoneForty?$AA@
CONST	SEGMENT
??_C@_0BA@LDDAOKBB@ExLowStoneForty?$AA@ DB 'ExLowStoneForty', 00H ; `string'
CONST	ENDS
;	COMDAT ??_C@_0BB@EDDJAFOE@ExLowStoneThirty?$AA@
CONST	SEGMENT
??_C@_0BB@EDDJAFOE@ExLowStoneThirty?$AA@ DB 'ExLowStoneThirty', 00H ; `string'
CONST	ENDS
;	COMDAT ??_C@_0BB@GOIGLAIM@ExLowStoneTwenty?$AA@
CONST	SEGMENT
??_C@_0BB@GOIGLAIM@ExLowStoneTwenty?$AA@ DB 'ExLowStoneTwenty', 00H ; `string'
CONST	ENDS
;	COMDAT ??_C@_0P@KDJAJNMI@ExLowStoneTeen?$AA@
CONST	SEGMENT
??_C@_0P@KDJAJNMI@ExLowStoneTeen?$AA@ DB 'ExLowStoneTeen', 00H ; `string'
CONST	ENDS
;	COMDAT ??_C@_0BB@IPKFKDFP@ExHarmonyHundred?$AA@
CONST	SEGMENT
??_C@_0BB@IPKFKDFP@ExHarmonyHundred?$AA@ DB 'ExHarmonyHundred', 00H ; `string'
CONST	ENDS
;	COMDAT ??_C@_0P@BPGIKNGL@ExHarmonyFifty?$AA@
CONST	SEGMENT
??_C@_0P@BPGIKNGL@ExHarmonyFifty?$AA@ DB 'ExHarmonyFifty', 00H ; `string'
CONST	ENDS
;	COMDAT ??_C@_0P@EPFDJIAD@ExHarmonyForty?$AA@
CONST	SEGMENT
??_C@_0P@EPFDJIAD@ExHarmonyForty?$AA@ DB 'ExHarmonyForty', 00H ; `string'
CONST	ENDS
;	COMDAT ??_C@_0BA@LAHMBHNO@ExHarmonyThirty?$AA@
CONST	SEGMENT
??_C@_0BA@LAHMBHNO@ExHarmonyThirty?$AA@ DB 'ExHarmonyThirty', 00H ; `string'
CONST	ENDS
;	COMDAT ??_C@_0BA@JNMDKCLG@ExHarmonyTwenty?$AA@
CONST	SEGMENT
??_C@_0BA@JNMDKCLG@ExHarmonyTwenty?$AA@ DB 'ExHarmonyTwenty', 00H ; `string'
CONST	ENDS
;	COMDAT ??_C@_0O@HJGKPDJD@ExHarmonyTeen?$AA@
CONST	SEGMENT
??_C@_0O@HJGKPDJD@ExHarmonyTeen?$AA@ DB 'ExHarmonyTeen', 00H ; `string'
CONST	ENDS
;	COMDAT ??_C@_0BC@FHIHPBFO@ExGuardianHundred?$AA@
CONST	SEGMENT
??_C@_0BC@FHIHPBFO@ExGuardianHundred?$AA@ DB 'ExGuardianHundred', 00H ; `string'
CONST	ENDS
;	COMDAT ??_C@_0BA@JMPICFH@ExGuardianFifty?$AA@
CONST	SEGMENT
??_C@_0BA@JMPICFH@ExGuardianFifty?$AA@ DB 'ExGuardianFifty', 00H ; `string'
CONST	ENDS
;	COMDAT ??_C@_0BA@FJPELHDP@ExGuardianForty?$AA@
CONST	SEGMENT
??_C@_0BA@FJPELHDP@ExGuardianForty?$AA@ DB 'ExGuardianForty', 00H ; `string'
CONST	ENDS
;	COMDAT ??_C@_0BB@JPAFMMHG@ExGuardianThirty?$AA@
CONST	SEGMENT
??_C@_0BB@JPAFMMHG@ExGuardianThirty?$AA@ DB 'ExGuardianThirty', 00H ; `string'
CONST	ENDS
;	COMDAT ??_C@_0BB@LCLKHJBO@ExGuardianTwenty?$AA@
CONST	SEGMENT
??_C@_0BB@LCLKHJBO@ExGuardianTwenty?$AA@ DB 'ExGuardianTwenty', 00H ; `string'
CONST	ENDS
;	COMDAT ??_C@_0P@LCIKIKEM@ExGuardianTeen?$AA@
CONST	SEGMENT
??_C@_0P@LCIKIKEM@ExGuardianTeen?$AA@ DB 'ExGuardianTeen', 00H ; `string'
CONST	ENDS
;	COMDAT ??_C@_0BC@BABNLIEE@ExCreateonHundred?$AA@
CONST	SEGMENT
??_C@_0BC@BABNLIEE@ExCreateonHundred?$AA@ DB 'ExCreateonHundred', 00H ; `string'
CONST	ENDS
;	COMDAT ??_C@_0BA@INBCPCGP@ExCreateonFifty?$AA@
CONST	SEGMENT
??_C@_0BA@INBCPCGP@ExCreateonFifty?$AA@ DB 'ExCreateonFifty', 00H ; `string'
CONST	ENDS
;	COMDAT ??_C@_0BA@NNCJMHAH@ExCreateonForty?$AA@
CONST	SEGMENT
??_C@_0BA@NNCJMHAH@ExCreateonForty?$AA@ DB 'ExCreateonForty', 00H ; `string'
CONST	ENDS
;	COMDAT ??_C@_0BB@LHIDKJJI@ExCreateonThirty?$AA@
CONST	SEGMENT
??_C@_0BB@LHIDKJJI@ExCreateonThirty?$AA@ DB 'ExCreateonThirty', 00H ; `string'
CONST	ENDS
;	COMDAT ??_C@_0BB@JKDMBMPA@ExCreateonTwenty?$AA@
CONST	SEGMENT
??_C@_0BB@JKDMBMPA@ExCreateonTwenty?$AA@ DB 'ExCreateonTwenty', 00H ; `string'
CONST	ENDS
;	COMDAT ??_C@_0P@NBLLGMFP@ExCreateonTeen?$AA@
CONST	SEGMENT
??_C@_0P@NBLLGMFP@ExCreateonTeen?$AA@ DB 'ExCreateonTeen', 00H ; `string'
CONST	ENDS
;	COMDAT ??_C@_0O@ELILAEFB@ExLifeHundred?$AA@
CONST	SEGMENT
??_C@_0O@ELILAEFB@ExLifeHundred?$AA@ DB 'ExLifeHundred', 00H ; `string'
CONST	ENDS
;	COMDAT ??_C@_0M@CNCMAGMI@ExLifeFifty?$AA@
CONST	SEGMENT
??_C@_0M@CNCMAGMI@ExLifeFifty?$AA@ DB 'ExLifeFifty', 00H ; `string'
CONST	ENDS
;	COMDAT ??_C@_0M@HNBHDDKA@ExLifeForty?$AA@
CONST	SEGMENT
??_C@_0M@HNBHDDKA@ExLifeForty?$AA@ DB 'ExLifeForty', 00H ; `string'
CONST	ENDS
;	COMDAT ??_C@_0N@PPJBKBCH@ExLifeThirty?$AA@
CONST	SEGMENT
??_C@_0N@PPJBKBCH@ExLifeThirty?$AA@ DB 'ExLifeThirty', 00H ; `string'
CONST	ENDS
;	COMDAT ??_C@_0N@NCCOBEEP@ExLifeTwenty?$AA@
CONST	SEGMENT
??_C@_0N@NCCOBEEP@ExLifeTwenty?$AA@ DB 'ExLifeTwenty', 00H ; `string'
CONST	ENDS
;	COMDAT ??_C@_0L@OFKNLDLP@ExLifeTeen?$AA@
CONST	SEGMENT
??_C@_0L@OFKNLDLP@ExLifeTeen?$AA@ DB 'ExLifeTeen', 00H	; `string'
CONST	ENDS
;	COMDAT ??_C@_0O@LNIIDACP@ExSoulHundred?$AA@
CONST	SEGMENT
??_C@_0O@LNIIDACP@ExSoulHundred?$AA@ DB 'ExSoulHundred', 00H ; `string'
CONST	ENDS
;	COMDAT ??_C@_0M@OPDPNGDM@ExSoulFifty?$AA@
CONST	SEGMENT
??_C@_0M@OPDPNGDM@ExSoulFifty?$AA@ DB 'ExSoulFifty', 00H ; `string'
CONST	ENDS
;	COMDAT ??_C@_0M@LPAEODFE@ExSoulForty?$AA@
CONST	SEGMENT
??_C@_0M@LPAEODFE@ExSoulForty?$AA@ DB 'ExSoulForty', 00H ; `string'
CONST	ENDS
;	COMDAT ??_C@_0N@EFIDIEPC@ExSoulThirty?$AA@
CONST	SEGMENT
??_C@_0N@EFIDIEPC@ExSoulThirty?$AA@ DB 'ExSoulThirty', 00H ; `string'
CONST	ENDS
;	COMDAT ??_C@_0N@GIDMDBJK@ExSoulTwenty?$AA@
CONST	SEGMENT
??_C@_0N@GIDMDBJK@ExSoulTwenty?$AA@ DB 'ExSoulTwenty', 00H ; `string'
CONST	ENDS
;	COMDAT ??_C@_0L@CBICOAAD@ExSoulTeen?$AA@
CONST	SEGMENT
??_C@_0L@CBICOAAD@ExSoulTeen?$AA@ DB 'ExSoulTeen', 00H	; `string'
CONST	ENDS
;	COMDAT ??_C@_0P@JJODDMAJ@ExBlessHundred?$AA@
CONST	SEGMENT
??_C@_0P@JJODDMAJ@ExBlessHundred?$AA@ DB 'ExBlessHundred', 00H ; `string'
CONST	ENDS
;	COMDAT ??_C@_0N@CAFAOGJA@ExBlessFifty?$AA@
CONST	SEGMENT
??_C@_0N@CAFAOGJA@ExBlessFifty?$AA@ DB 'ExBlessFifty', 00H ; `string'
CONST	ENDS
;	COMDAT ??_C@_0N@HAGLNDPI@ExBlessForty?$AA@
CONST	SEGMENT
??_C@_0N@HAGLNDPI@ExBlessForty?$AA@ DB 'ExBlessForty', 00H ; `string'
CONST	ENDS
;	COMDAT ??_C@_0O@JKCMAEAB@ExBlessThirty?$AA@
CONST	SEGMENT
??_C@_0O@JKCMAEAB@ExBlessThirty?$AA@ DB 'ExBlessThirty', 00H ; `string'
CONST	ENDS
;	COMDAT ??_C@_0O@LHJDLBGJ@ExBlessTwenty?$AA@
CONST	SEGMENT
??_C@_0O@LHJDLBGJ@ExBlessTwenty?$AA@ DB 'ExBlessTwenty', 00H ; `string'
CONST	ENDS
;	COMDAT ??_C@_0M@PECHNFDF@ExBlessTeen?$AA@
CONST	SEGMENT
??_C@_0M@PECHNFDF@ExBlessTeen?$AA@ DB 'ExBlessTeen', 00H ; `string'
CONST	ENDS
;	COMDAT ??_C@_0P@MKDIMMBH@ExChaosHundred?$AA@
CONST	SEGMENT
??_C@_0P@MKDIMMBH@ExChaosHundred?$AA@ DB 'ExChaosHundred', 00H ; `string'
CONST	ENDS
;	COMDAT ??_C@_0N@JOMNOMEC@ExChaosFifty?$AA@
CONST	SEGMENT
??_C@_0N@JOMNOMEC@ExChaosFifty?$AA@ DB 'ExChaosFifty', 00H ; `string'
CONST	ENDS
;	COMDAT ??_C@_0N@MOPGNJCK@ExChaosForty?$AA@
CONST	SEGMENT
??_C@_0N@MOPGNJCK@ExChaosForty?$AA@ DB 'ExChaosForty', 00H ; `string'
CONST	ENDS
;	COMDAT ??_C@_0O@PCEPCKPD@ExChaosThirty?$AA@
CONST	SEGMENT
??_C@_0O@PCEPCKPD@ExChaosThirty?$AA@ DB 'ExChaosThirty', 00H ; `string'
CONST	ENDS
;	COMDAT ??_C@_0O@NPPAJPJL@ExChaosTwenty?$AA@
CONST	SEGMENT
??_C@_0O@NPPAJPJL@ExChaosTwenty?$AA@ DB 'ExChaosTwenty', 00H ; `string'
CONST	ENDS
;	COMDAT ??_C@_0M@GCDNBHEH@ExChaosTeen?$AA@
CONST	SEGMENT
??_C@_0M@GCDNBHEH@ExChaosTeen?$AA@ DB 'ExChaosTeen', 00H ; `string'
CONST	ENDS
;	COMDAT ??_C@_06MLPMCPDE@ExTeam?$AA@
CONST	SEGMENT
??_C@_06MLPMCPDE@ExTeam?$AA@ DB 'ExTeam', 00H		; `string'
CONST	ENDS
;	COMDAT ??_C@_06CKGENIKG@Enable?$AA@
CONST	SEGMENT
??_C@_06CKGENIKG@Enable?$AA@ DB 'Enable', 00H		; `string'
CONST	ENDS
;	COMDAT ??_C@_0BO@LNDIKJNF@?4?4?2Data?2ExData?2JewelsBank?4ini?$AA@
CONST	SEGMENT
??_C@_0BO@LNDIKJNF@?4?4?2Data?2ExData?2JewelsBank?4ini?$AA@ DB '..\Data\E'
	DB	'xData\JewelsBank.ini', 00H			; `string'
; Function compile flags: /Odtp /ZI
CONST	ENDS
_TEXT	SEGMENT
_this$ = -4						; size = 4
?Load@JewelsBank@@QAEXXZ PROC				; JewelsBank::Load
; _this$ = ecx

; 15   : {

  00000	55		 push	 ebp
  00001	8b ec		 mov	 ebp, esp
  00003	83 ec 44	 sub	 esp, 68			; 00000044H
  00006	53		 push	 ebx
  00007	56		 push	 esi
  00008	57		 push	 edi
  00009	89 4d fc	 mov	 DWORD PTR _this$[ebp], ecx

; 16   : 	this->Enable = GetPrivateProfileInt("ExTeam","Enable",0,JEWELSBANK_DIR); 

  0000c	68 00 00 00 00	 push	 OFFSET ??_C@_0BO@LNDIKJNF@?4?4?2Data?2ExData?2JewelsBank?4ini?$AA@
  00011	6a 00		 push	 0
  00013	68 00 00 00 00	 push	 OFFSET ??_C@_06CKGENIKG@Enable?$AA@
  00018	68 00 00 00 00	 push	 OFFSET ??_C@_06MLPMCPDE@ExTeam?$AA@
  0001d	ff 15 00 00 00
	00		 call	 DWORD PTR __imp__GetPrivateProfileIntA@16
  00023	85 c0		 test	 eax, eax
  00025	0f 95 c0	 setne	 al
  00028	8b 4d fc	 mov	 ecx, DWORD PTR _this$[ebp]
  0002b	88 01		 mov	 BYTE PTR [ecx], al

; 17   : #ifdef PRIVATE_MODULE
; 18   : #if _CONFLICT_
; 19   : 	if(g_ExLicense.CheckUser(eExUB::Local3) || g_ExLicense.CheckUser(SILVER1) || g_ExLicense.CheckUser(SILVER2) || g_ExLicense.CheckUser(eExUB::drynea))

  0002d	6a 1c		 push	 28			; 0000001cH
  0002f	b9 00 00 00 00	 mov	 ecx, OFFSET ?g_ExLicense@@3VCExLicense@@A ; g_ExLicense
  00034	e8 00 00 00 00	 call	 ?CheckUser@CExLicense@@QAE_NH@Z ; CExLicense::CheckUser
  00039	0f b6 c0	 movzx	 eax, al
  0003c	85 c0		 test	 eax, eax
  0003e	75 3d		 jne	 SHORT $LN1@Load
  00040	6a 07		 push	 7
  00042	b9 00 00 00 00	 mov	 ecx, OFFSET ?g_ExLicense@@3VCExLicense@@A ; g_ExLicense
  00047	e8 00 00 00 00	 call	 ?CheckUser@CExLicense@@QAE_NH@Z ; CExLicense::CheckUser
  0004c	0f b6 c0	 movzx	 eax, al
  0004f	85 c0		 test	 eax, eax
  00051	75 2a		 jne	 SHORT $LN1@Load
  00053	6a 08		 push	 8
  00055	b9 00 00 00 00	 mov	 ecx, OFFSET ?g_ExLicense@@3VCExLicense@@A ; g_ExLicense
  0005a	e8 00 00 00 00	 call	 ?CheckUser@CExLicense@@QAE_NH@Z ; CExLicense::CheckUser
  0005f	0f b6 c0	 movzx	 eax, al
  00062	85 c0		 test	 eax, eax
  00064	75 17		 jne	 SHORT $LN1@Load
  00066	6a 01		 push	 1
  00068	b9 00 00 00 00	 mov	 ecx, OFFSET ?g_ExLicense@@3VCExLicense@@A ; g_ExLicense
  0006d	e8 00 00 00 00	 call	 ?CheckUser@CExLicense@@QAE_NH@Z ; CExLicense::CheckUser
  00072	0f b6 c0	 movzx	 eax, al
  00075	85 c0		 test	 eax, eax
  00077	0f 84 23 07 00
	00		 je	 $LN3@Load
$LN1@Load:

; 20   : 	{
; 21   : 		this->ExChaosTeen = GetPrivateProfileInt("ExTeam","ExChaosTeen",0,JEWELSBANK_DIR);

  0007d	68 00 00 00 00	 push	 OFFSET ??_C@_0BO@LNDIKJNF@?4?4?2Data?2ExData?2JewelsBank?4ini?$AA@
  00082	6a 00		 push	 0
  00084	68 00 00 00 00	 push	 OFFSET ??_C@_0M@GCDNBHEH@ExChaosTeen?$AA@
  00089	68 00 00 00 00	 push	 OFFSET ??_C@_06MLPMCPDE@ExTeam?$AA@
  0008e	ff 15 00 00 00
	00		 call	 DWORD PTR __imp__GetPrivateProfileIntA@16
  00094	8b 4d fc	 mov	 ecx, DWORD PTR _this$[ebp]
  00097	89 41 04	 mov	 DWORD PTR [ecx+4], eax

; 22   : 		this->ExChaosTwenty = GetPrivateProfileInt("ExTeam","ExChaosTwenty",0,JEWELSBANK_DIR);

  0009a	68 00 00 00 00	 push	 OFFSET ??_C@_0BO@LNDIKJNF@?4?4?2Data?2ExData?2JewelsBank?4ini?$AA@
  0009f	6a 00		 push	 0
  000a1	68 00 00 00 00	 push	 OFFSET ??_C@_0O@NPPAJPJL@ExChaosTwenty?$AA@
  000a6	68 00 00 00 00	 push	 OFFSET ??_C@_06MLPMCPDE@ExTeam?$AA@
  000ab	ff 15 00 00 00
	00		 call	 DWORD PTR __imp__GetPrivateProfileIntA@16
  000b1	8b 4d fc	 mov	 ecx, DWORD PTR _this$[ebp]
  000b4	89 41 08	 mov	 DWORD PTR [ecx+8], eax

; 23   : 		this->ExChaosThirty = GetPrivateProfileInt("ExTeam","ExChaosThirty",0,JEWELSBANK_DIR);

  000b7	68 00 00 00 00	 push	 OFFSET ??_C@_0BO@LNDIKJNF@?4?4?2Data?2ExData?2JewelsBank?4ini?$AA@
  000bc	6a 00		 push	 0
  000be	68 00 00 00 00	 push	 OFFSET ??_C@_0O@PCEPCKPD@ExChaosThirty?$AA@
  000c3	68 00 00 00 00	 push	 OFFSET ??_C@_06MLPMCPDE@ExTeam?$AA@
  000c8	ff 15 00 00 00
	00		 call	 DWORD PTR __imp__GetPrivateProfileIntA@16
  000ce	8b 4d fc	 mov	 ecx, DWORD PTR _this$[ebp]
  000d1	89 41 0c	 mov	 DWORD PTR [ecx+12], eax

; 24   : 		this->ExChaosForty = GetPrivateProfileInt("ExTeam","ExChaosForty",0,JEWELSBANK_DIR);

  000d4	68 00 00 00 00	 push	 OFFSET ??_C@_0BO@LNDIKJNF@?4?4?2Data?2ExData?2JewelsBank?4ini?$AA@
  000d9	6a 00		 push	 0
  000db	68 00 00 00 00	 push	 OFFSET ??_C@_0N@MOPGNJCK@ExChaosForty?$AA@
  000e0	68 00 00 00 00	 push	 OFFSET ??_C@_06MLPMCPDE@ExTeam?$AA@
  000e5	ff 15 00 00 00
	00		 call	 DWORD PTR __imp__GetPrivateProfileIntA@16
  000eb	8b 4d fc	 mov	 ecx, DWORD PTR _this$[ebp]
  000ee	89 41 10	 mov	 DWORD PTR [ecx+16], eax

; 25   : 		this->ExChaosFifty = GetPrivateProfileInt("ExTeam","ExChaosFifty",0,JEWELSBANK_DIR);

  000f1	68 00 00 00 00	 push	 OFFSET ??_C@_0BO@LNDIKJNF@?4?4?2Data?2ExData?2JewelsBank?4ini?$AA@
  000f6	6a 00		 push	 0
  000f8	68 00 00 00 00	 push	 OFFSET ??_C@_0N@JOMNOMEC@ExChaosFifty?$AA@
  000fd	68 00 00 00 00	 push	 OFFSET ??_C@_06MLPMCPDE@ExTeam?$AA@
  00102	ff 15 00 00 00
	00		 call	 DWORD PTR __imp__GetPrivateProfileIntA@16
  00108	8b 4d fc	 mov	 ecx, DWORD PTR _this$[ebp]
  0010b	89 41 14	 mov	 DWORD PTR [ecx+20], eax

; 26   : 		this->ExChaosHundred = GetPrivateProfileInt("ExTeam","ExChaosHundred",0,JEWELSBANK_DIR);

  0010e	68 00 00 00 00	 push	 OFFSET ??_C@_0BO@LNDIKJNF@?4?4?2Data?2ExData?2JewelsBank?4ini?$AA@
  00113	6a 00		 push	 0
  00115	68 00 00 00 00	 push	 OFFSET ??_C@_0P@MKDIMMBH@ExChaosHundred?$AA@
  0011a	68 00 00 00 00	 push	 OFFSET ??_C@_06MLPMCPDE@ExTeam?$AA@
  0011f	ff 15 00 00 00
	00		 call	 DWORD PTR __imp__GetPrivateProfileIntA@16
  00125	8b 4d fc	 mov	 ecx, DWORD PTR _this$[ebp]
  00128	89 41 18	 mov	 DWORD PTR [ecx+24], eax

; 27   : 
; 28   : 		this->ExBlessTeen = GetPrivateProfileInt("ExTeam","ExBlessTeen",0,JEWELSBANK_DIR);

  0012b	68 00 00 00 00	 push	 OFFSET ??_C@_0BO@LNDIKJNF@?4?4?2Data?2ExData?2JewelsBank?4ini?$AA@
  00130	6a 00		 push	 0
  00132	68 00 00 00 00	 push	 OFFSET ??_C@_0M@PECHNFDF@ExBlessTeen?$AA@
  00137	68 00 00 00 00	 push	 OFFSET ??_C@_06MLPMCPDE@ExTeam?$AA@
  0013c	ff 15 00 00 00
	00		 call	 DWORD PTR __imp__GetPrivateProfileIntA@16
  00142	8b 4d fc	 mov	 ecx, DWORD PTR _this$[ebp]
  00145	89 41 1c	 mov	 DWORD PTR [ecx+28], eax

; 29   : 		this->ExBlessTwenty = GetPrivateProfileInt("ExTeam","ExBlessTwenty",0,JEWELSBANK_DIR);

  00148	68 00 00 00 00	 push	 OFFSET ??_C@_0BO@LNDIKJNF@?4?4?2Data?2ExData?2JewelsBank?4ini?$AA@
  0014d	6a 00		 push	 0
  0014f	68 00 00 00 00	 push	 OFFSET ??_C@_0O@LHJDLBGJ@ExBlessTwenty?$AA@
  00154	68 00 00 00 00	 push	 OFFSET ??_C@_06MLPMCPDE@ExTeam?$AA@
  00159	ff 15 00 00 00
	00		 call	 DWORD PTR __imp__GetPrivateProfileIntA@16
  0015f	8b 4d fc	 mov	 ecx, DWORD PTR _this$[ebp]
  00162	89 41 20	 mov	 DWORD PTR [ecx+32], eax

; 30   : 		this->ExBlessThirty = GetPrivateProfileInt("ExTeam","ExBlessThirty",0,JEWELSBANK_DIR);

  00165	68 00 00 00 00	 push	 OFFSET ??_C@_0BO@LNDIKJNF@?4?4?2Data?2ExData?2JewelsBank?4ini?$AA@
  0016a	6a 00		 push	 0
  0016c	68 00 00 00 00	 push	 OFFSET ??_C@_0O@JKCMAEAB@ExBlessThirty?$AA@
  00171	68 00 00 00 00	 push	 OFFSET ??_C@_06MLPMCPDE@ExTeam?$AA@
  00176	ff 15 00 00 00
	00		 call	 DWORD PTR __imp__GetPrivateProfileIntA@16
  0017c	8b 4d fc	 mov	 ecx, DWORD PTR _this$[ebp]
  0017f	89 41 24	 mov	 DWORD PTR [ecx+36], eax

; 31   : 		this->ExBlessForty = GetPrivateProfileInt("ExTeam","ExBlessForty",0,JEWELSBANK_DIR);

  00182	68 00 00 00 00	 push	 OFFSET ??_C@_0BO@LNDIKJNF@?4?4?2Data?2ExData?2JewelsBank?4ini?$AA@
  00187	6a 00		 push	 0
  00189	68 00 00 00 00	 push	 OFFSET ??_C@_0N@HAGLNDPI@ExBlessForty?$AA@
  0018e	68 00 00 00 00	 push	 OFFSET ??_C@_06MLPMCPDE@ExTeam?$AA@
  00193	ff 15 00 00 00
	00		 call	 DWORD PTR __imp__GetPrivateProfileIntA@16
  00199	8b 4d fc	 mov	 ecx, DWORD PTR _this$[ebp]
  0019c	89 41 28	 mov	 DWORD PTR [ecx+40], eax

; 32   : 		this->ExBlessFifty = GetPrivateProfileInt("ExTeam","ExBlessFifty",0,JEWELSBANK_DIR);

  0019f	68 00 00 00 00	 push	 OFFSET ??_C@_0BO@LNDIKJNF@?4?4?2Data?2ExData?2JewelsBank?4ini?$AA@
  001a4	6a 00		 push	 0
  001a6	68 00 00 00 00	 push	 OFFSET ??_C@_0N@CAFAOGJA@ExBlessFifty?$AA@
  001ab	68 00 00 00 00	 push	 OFFSET ??_C@_06MLPMCPDE@ExTeam?$AA@
  001b0	ff 15 00 00 00
	00		 call	 DWORD PTR __imp__GetPrivateProfileIntA@16
  001b6	8b 4d fc	 mov	 ecx, DWORD PTR _this$[ebp]
  001b9	89 41 2c	 mov	 DWORD PTR [ecx+44], eax

; 33   : 		this->ExBlessHundred = GetPrivateProfileInt("ExTeam","ExBlessHundred",0,JEWELSBANK_DIR);

  001bc	68 00 00 00 00	 push	 OFFSET ??_C@_0BO@LNDIKJNF@?4?4?2Data?2ExData?2JewelsBank?4ini?$AA@
  001c1	6a 00		 push	 0
  001c3	68 00 00 00 00	 push	 OFFSET ??_C@_0P@JJODDMAJ@ExBlessHundred?$AA@
  001c8	68 00 00 00 00	 push	 OFFSET ??_C@_06MLPMCPDE@ExTeam?$AA@
  001cd	ff 15 00 00 00
	00		 call	 DWORD PTR __imp__GetPrivateProfileIntA@16
  001d3	8b 4d fc	 mov	 ecx, DWORD PTR _this$[ebp]
  001d6	89 41 30	 mov	 DWORD PTR [ecx+48], eax

; 34   : 
; 35   : 		this->ExSoulTeen = GetPrivateProfileInt("ExTeam","ExSoulTeen",0,JEWELSBANK_DIR);

  001d9	68 00 00 00 00	 push	 OFFSET ??_C@_0BO@LNDIKJNF@?4?4?2Data?2ExData?2JewelsBank?4ini?$AA@
  001de	6a 00		 push	 0
  001e0	68 00 00 00 00	 push	 OFFSET ??_C@_0L@CBICOAAD@ExSoulTeen?$AA@
  001e5	68 00 00 00 00	 push	 OFFSET ??_C@_06MLPMCPDE@ExTeam?$AA@
  001ea	ff 15 00 00 00
	00		 call	 DWORD PTR __imp__GetPrivateProfileIntA@16
  001f0	8b 4d fc	 mov	 ecx, DWORD PTR _this$[ebp]
  001f3	89 41 34	 mov	 DWORD PTR [ecx+52], eax

; 36   : 		this->ExSoulTwenty = GetPrivateProfileInt("ExTeam","ExSoulTwenty",0,JEWELSBANK_DIR);

  001f6	68 00 00 00 00	 push	 OFFSET ??_C@_0BO@LNDIKJNF@?4?4?2Data?2ExData?2JewelsBank?4ini?$AA@
  001fb	6a 00		 push	 0
  001fd	68 00 00 00 00	 push	 OFFSET ??_C@_0N@GIDMDBJK@ExSoulTwenty?$AA@
  00202	68 00 00 00 00	 push	 OFFSET ??_C@_06MLPMCPDE@ExTeam?$AA@
  00207	ff 15 00 00 00
	00		 call	 DWORD PTR __imp__GetPrivateProfileIntA@16
  0020d	8b 4d fc	 mov	 ecx, DWORD PTR _this$[ebp]
  00210	89 41 38	 mov	 DWORD PTR [ecx+56], eax

; 37   : 		this->ExSoulThirty = GetPrivateProfileInt("ExTeam","ExSoulThirty",0,JEWELSBANK_DIR);

  00213	68 00 00 00 00	 push	 OFFSET ??_C@_0BO@LNDIKJNF@?4?4?2Data?2ExData?2JewelsBank?4ini?$AA@
  00218	6a 00		 push	 0
  0021a	68 00 00 00 00	 push	 OFFSET ??_C@_0N@EFIDIEPC@ExSoulThirty?$AA@
  0021f	68 00 00 00 00	 push	 OFFSET ??_C@_06MLPMCPDE@ExTeam?$AA@
  00224	ff 15 00 00 00
	00		 call	 DWORD PTR __imp__GetPrivateProfileIntA@16
  0022a	8b 4d fc	 mov	 ecx, DWORD PTR _this$[ebp]
  0022d	89 41 3c	 mov	 DWORD PTR [ecx+60], eax

; 38   : 		this->ExSoulForty = GetPrivateProfileInt("ExTeam","ExSoulForty",0,JEWELSBANK_DIR);

  00230	68 00 00 00 00	 push	 OFFSET ??_C@_0BO@LNDIKJNF@?4?4?2Data?2ExData?2JewelsBank?4ini?$AA@
  00235	6a 00		 push	 0
  00237	68 00 00 00 00	 push	 OFFSET ??_C@_0M@LPAEODFE@ExSoulForty?$AA@
  0023c	68 00 00 00 00	 push	 OFFSET ??_C@_06MLPMCPDE@ExTeam?$AA@
  00241	ff 15 00 00 00
	00		 call	 DWORD PTR __imp__GetPrivateProfileIntA@16
  00247	8b 4d fc	 mov	 ecx, DWORD PTR _this$[ebp]
  0024a	89 41 40	 mov	 DWORD PTR [ecx+64], eax

; 39   : 		this->ExSoulFifty = GetPrivateProfileInt("ExTeam","ExSoulFifty",0,JEWELSBANK_DIR);

  0024d	68 00 00 00 00	 push	 OFFSET ??_C@_0BO@LNDIKJNF@?4?4?2Data?2ExData?2JewelsBank?4ini?$AA@
  00252	6a 00		 push	 0
  00254	68 00 00 00 00	 push	 OFFSET ??_C@_0M@OPDPNGDM@ExSoulFifty?$AA@
  00259	68 00 00 00 00	 push	 OFFSET ??_C@_06MLPMCPDE@ExTeam?$AA@
  0025e	ff 15 00 00 00
	00		 call	 DWORD PTR __imp__GetPrivateProfileIntA@16
  00264	8b 4d fc	 mov	 ecx, DWORD PTR _this$[ebp]
  00267	89 41 44	 mov	 DWORD PTR [ecx+68], eax

; 40   : 		this->ExSoulHundred = GetPrivateProfileInt("ExTeam","ExSoulHundred",0,JEWELSBANK_DIR);

  0026a	68 00 00 00 00	 push	 OFFSET ??_C@_0BO@LNDIKJNF@?4?4?2Data?2ExData?2JewelsBank?4ini?$AA@
  0026f	6a 00		 push	 0
  00271	68 00 00 00 00	 push	 OFFSET ??_C@_0O@LNIIDACP@ExSoulHundred?$AA@
  00276	68 00 00 00 00	 push	 OFFSET ??_C@_06MLPMCPDE@ExTeam?$AA@
  0027b	ff 15 00 00 00
	00		 call	 DWORD PTR __imp__GetPrivateProfileIntA@16
  00281	8b 4d fc	 mov	 ecx, DWORD PTR _this$[ebp]
  00284	89 41 48	 mov	 DWORD PTR [ecx+72], eax

; 41   : 
; 42   : 		this->ExLifeTeen = GetPrivateProfileInt("ExTeam","ExLifeTeen",0,JEWELSBANK_DIR);

  00287	68 00 00 00 00	 push	 OFFSET ??_C@_0BO@LNDIKJNF@?4?4?2Data?2ExData?2JewelsBank?4ini?$AA@
  0028c	6a 00		 push	 0
  0028e	68 00 00 00 00	 push	 OFFSET ??_C@_0L@OFKNLDLP@ExLifeTeen?$AA@
  00293	68 00 00 00 00	 push	 OFFSET ??_C@_06MLPMCPDE@ExTeam?$AA@
  00298	ff 15 00 00 00
	00		 call	 DWORD PTR __imp__GetPrivateProfileIntA@16
  0029e	8b 4d fc	 mov	 ecx, DWORD PTR _this$[ebp]
  002a1	89 41 4c	 mov	 DWORD PTR [ecx+76], eax

; 43   : 		this->ExLifeTwenty = GetPrivateProfileInt("ExTeam","ExLifeTwenty",0,JEWELSBANK_DIR);

  002a4	68 00 00 00 00	 push	 OFFSET ??_C@_0BO@LNDIKJNF@?4?4?2Data?2ExData?2JewelsBank?4ini?$AA@
  002a9	6a 00		 push	 0
  002ab	68 00 00 00 00	 push	 OFFSET ??_C@_0N@NCCOBEEP@ExLifeTwenty?$AA@
  002b0	68 00 00 00 00	 push	 OFFSET ??_C@_06MLPMCPDE@ExTeam?$AA@
  002b5	ff 15 00 00 00
	00		 call	 DWORD PTR __imp__GetPrivateProfileIntA@16
  002bb	8b 4d fc	 mov	 ecx, DWORD PTR _this$[ebp]
  002be	89 41 50	 mov	 DWORD PTR [ecx+80], eax

; 44   : 		this->ExLifeThirty = GetPrivateProfileInt("ExTeam","ExLifeThirty",0,JEWELSBANK_DIR);

  002c1	68 00 00 00 00	 push	 OFFSET ??_C@_0BO@LNDIKJNF@?4?4?2Data?2ExData?2JewelsBank?4ini?$AA@
  002c6	6a 00		 push	 0
  002c8	68 00 00 00 00	 push	 OFFSET ??_C@_0N@PPJBKBCH@ExLifeThirty?$AA@
  002cd	68 00 00 00 00	 push	 OFFSET ??_C@_06MLPMCPDE@ExTeam?$AA@
  002d2	ff 15 00 00 00
	00		 call	 DWORD PTR __imp__GetPrivateProfileIntA@16
  002d8	8b 4d fc	 mov	 ecx, DWORD PTR _this$[ebp]
  002db	89 41 54	 mov	 DWORD PTR [ecx+84], eax

; 45   : 		this->ExLifeForty = GetPrivateProfileInt("ExTeam","ExLifeForty",0,JEWELSBANK_DIR);

  002de	68 00 00 00 00	 push	 OFFSET ??_C@_0BO@LNDIKJNF@?4?4?2Data?2ExData?2JewelsBank?4ini?$AA@
  002e3	6a 00		 push	 0
  002e5	68 00 00 00 00	 push	 OFFSET ??_C@_0M@HNBHDDKA@ExLifeForty?$AA@
  002ea	68 00 00 00 00	 push	 OFFSET ??_C@_06MLPMCPDE@ExTeam?$AA@
  002ef	ff 15 00 00 00
	00		 call	 DWORD PTR __imp__GetPrivateProfileIntA@16
  002f5	8b 4d fc	 mov	 ecx, DWORD PTR _this$[ebp]
  002f8	89 41 58	 mov	 DWORD PTR [ecx+88], eax

; 46   : 		this->ExLifeFifty = GetPrivateProfileInt("ExTeam","ExLifeFifty",0,JEWELSBANK_DIR);

  002fb	68 00 00 00 00	 push	 OFFSET ??_C@_0BO@LNDIKJNF@?4?4?2Data?2ExData?2JewelsBank?4ini?$AA@
  00300	6a 00		 push	 0
  00302	68 00 00 00 00	 push	 OFFSET ??_C@_0M@CNCMAGMI@ExLifeFifty?$AA@
  00307	68 00 00 00 00	 push	 OFFSET ??_C@_06MLPMCPDE@ExTeam?$AA@
  0030c	ff 15 00 00 00
	00		 call	 DWORD PTR __imp__GetPrivateProfileIntA@16
  00312	8b 4d fc	 mov	 ecx, DWORD PTR _this$[ebp]
  00315	89 41 5c	 mov	 DWORD PTR [ecx+92], eax

; 47   : 		this->ExLifeHundred = GetPrivateProfileInt("ExTeam","ExLifeHundred",0,JEWELSBANK_DIR);

  00318	68 00 00 00 00	 push	 OFFSET ??_C@_0BO@LNDIKJNF@?4?4?2Data?2ExData?2JewelsBank?4ini?$AA@
  0031d	6a 00		 push	 0
  0031f	68 00 00 00 00	 push	 OFFSET ??_C@_0O@ELILAEFB@ExLifeHundred?$AA@
  00324	68 00 00 00 00	 push	 OFFSET ??_C@_06MLPMCPDE@ExTeam?$AA@
  00329	ff 15 00 00 00
	00		 call	 DWORD PTR __imp__GetPrivateProfileIntA@16
  0032f	8b 4d fc	 mov	 ecx, DWORD PTR _this$[ebp]
  00332	89 41 60	 mov	 DWORD PTR [ecx+96], eax

; 48   : 
; 49   : 		this->ExCreateonTeen = GetPrivateProfileInt("ExTeam","ExCreateonTeen",0,JEWELSBANK_DIR);

  00335	68 00 00 00 00	 push	 OFFSET ??_C@_0BO@LNDIKJNF@?4?4?2Data?2ExData?2JewelsBank?4ini?$AA@
  0033a	6a 00		 push	 0
  0033c	68 00 00 00 00	 push	 OFFSET ??_C@_0P@NBLLGMFP@ExCreateonTeen?$AA@
  00341	68 00 00 00 00	 push	 OFFSET ??_C@_06MLPMCPDE@ExTeam?$AA@
  00346	ff 15 00 00 00
	00		 call	 DWORD PTR __imp__GetPrivateProfileIntA@16
  0034c	8b 4d fc	 mov	 ecx, DWORD PTR _this$[ebp]
  0034f	89 41 64	 mov	 DWORD PTR [ecx+100], eax

; 50   : 		this->ExCreateonTwenty = GetPrivateProfileInt("ExTeam","ExCreateonTwenty",0,JEWELSBANK_DIR);

  00352	68 00 00 00 00	 push	 OFFSET ??_C@_0BO@LNDIKJNF@?4?4?2Data?2ExData?2JewelsBank?4ini?$AA@
  00357	6a 00		 push	 0
  00359	68 00 00 00 00	 push	 OFFSET ??_C@_0BB@JKDMBMPA@ExCreateonTwenty?$AA@
  0035e	68 00 00 00 00	 push	 OFFSET ??_C@_06MLPMCPDE@ExTeam?$AA@
  00363	ff 15 00 00 00
	00		 call	 DWORD PTR __imp__GetPrivateProfileIntA@16
  00369	8b 4d fc	 mov	 ecx, DWORD PTR _this$[ebp]
  0036c	89 41 68	 mov	 DWORD PTR [ecx+104], eax

; 51   : 		this->ExCreateonThirty = GetPrivateProfileInt("ExTeam","ExCreateonThirty",0,JEWELSBANK_DIR);

  0036f	68 00 00 00 00	 push	 OFFSET ??_C@_0BO@LNDIKJNF@?4?4?2Data?2ExData?2JewelsBank?4ini?$AA@
  00374	6a 00		 push	 0
  00376	68 00 00 00 00	 push	 OFFSET ??_C@_0BB@LHIDKJJI@ExCreateonThirty?$AA@
  0037b	68 00 00 00 00	 push	 OFFSET ??_C@_06MLPMCPDE@ExTeam?$AA@
  00380	ff 15 00 00 00
	00		 call	 DWORD PTR __imp__GetPrivateProfileIntA@16
  00386	8b 4d fc	 mov	 ecx, DWORD PTR _this$[ebp]
  00389	89 41 6c	 mov	 DWORD PTR [ecx+108], eax

; 52   : 		this->ExCreateonForty = GetPrivateProfileInt("ExTeam","ExCreateonForty",0,JEWELSBANK_DIR);

  0038c	68 00 00 00 00	 push	 OFFSET ??_C@_0BO@LNDIKJNF@?4?4?2Data?2ExData?2JewelsBank?4ini?$AA@
  00391	6a 00		 push	 0
  00393	68 00 00 00 00	 push	 OFFSET ??_C@_0BA@NNCJMHAH@ExCreateonForty?$AA@
  00398	68 00 00 00 00	 push	 OFFSET ??_C@_06MLPMCPDE@ExTeam?$AA@
  0039d	ff 15 00 00 00
	00		 call	 DWORD PTR __imp__GetPrivateProfileIntA@16
  003a3	8b 4d fc	 mov	 ecx, DWORD PTR _this$[ebp]
  003a6	89 41 70	 mov	 DWORD PTR [ecx+112], eax

; 53   : 		this->ExCreateonFifty = GetPrivateProfileInt("ExTeam","ExCreateonFifty",0,JEWELSBANK_DIR);

  003a9	68 00 00 00 00	 push	 OFFSET ??_C@_0BO@LNDIKJNF@?4?4?2Data?2ExData?2JewelsBank?4ini?$AA@
  003ae	6a 00		 push	 0
  003b0	68 00 00 00 00	 push	 OFFSET ??_C@_0BA@INBCPCGP@ExCreateonFifty?$AA@
  003b5	68 00 00 00 00	 push	 OFFSET ??_C@_06MLPMCPDE@ExTeam?$AA@
  003ba	ff 15 00 00 00
	00		 call	 DWORD PTR __imp__GetPrivateProfileIntA@16
  003c0	8b 4d fc	 mov	 ecx, DWORD PTR _this$[ebp]
  003c3	89 41 74	 mov	 DWORD PTR [ecx+116], eax

; 54   : 		this->ExCreateonHundred = GetPrivateProfileInt("ExTeam","ExCreateonHundred",0,JEWELSBANK_DIR);

  003c6	68 00 00 00 00	 push	 OFFSET ??_C@_0BO@LNDIKJNF@?4?4?2Data?2ExData?2JewelsBank?4ini?$AA@
  003cb	6a 00		 push	 0
  003cd	68 00 00 00 00	 push	 OFFSET ??_C@_0BC@BABNLIEE@ExCreateonHundred?$AA@
  003d2	68 00 00 00 00	 push	 OFFSET ??_C@_06MLPMCPDE@ExTeam?$AA@
  003d7	ff 15 00 00 00
	00		 call	 DWORD PTR __imp__GetPrivateProfileIntA@16
  003dd	8b 4d fc	 mov	 ecx, DWORD PTR _this$[ebp]
  003e0	89 41 78	 mov	 DWORD PTR [ecx+120], eax

; 55   : 
; 56   : 	/**/
; 57   : 		this->ExGuardianTeen = GetPrivateProfileInt("ExTeam","ExGuardianTeen",0,JEWELSBANK_DIR);

  003e3	68 00 00 00 00	 push	 OFFSET ??_C@_0BO@LNDIKJNF@?4?4?2Data?2ExData?2JewelsBank?4ini?$AA@
  003e8	6a 00		 push	 0
  003ea	68 00 00 00 00	 push	 OFFSET ??_C@_0P@LCIKIKEM@ExGuardianTeen?$AA@
  003ef	68 00 00 00 00	 push	 OFFSET ??_C@_06MLPMCPDE@ExTeam?$AA@
  003f4	ff 15 00 00 00
	00		 call	 DWORD PTR __imp__GetPrivateProfileIntA@16
  003fa	8b 4d fc	 mov	 ecx, DWORD PTR _this$[ebp]
  003fd	89 41 7c	 mov	 DWORD PTR [ecx+124], eax

; 58   : 		this->ExGuardianTwenty = GetPrivateProfileInt("ExTeam","ExGuardianTwenty",0,JEWELSBANK_DIR);

  00400	68 00 00 00 00	 push	 OFFSET ??_C@_0BO@LNDIKJNF@?4?4?2Data?2ExData?2JewelsBank?4ini?$AA@
  00405	6a 00		 push	 0
  00407	68 00 00 00 00	 push	 OFFSET ??_C@_0BB@LCLKHJBO@ExGuardianTwenty?$AA@
  0040c	68 00 00 00 00	 push	 OFFSET ??_C@_06MLPMCPDE@ExTeam?$AA@
  00411	ff 15 00 00 00
	00		 call	 DWORD PTR __imp__GetPrivateProfileIntA@16
  00417	8b 4d fc	 mov	 ecx, DWORD PTR _this$[ebp]
  0041a	89 81 80 00 00
	00		 mov	 DWORD PTR [ecx+128], eax

; 59   : 		this->ExGuardianThirty = GetPrivateProfileInt("ExTeam","ExGuardianThirty",0,JEWELSBANK_DIR);

  00420	68 00 00 00 00	 push	 OFFSET ??_C@_0BO@LNDIKJNF@?4?4?2Data?2ExData?2JewelsBank?4ini?$AA@
  00425	6a 00		 push	 0
  00427	68 00 00 00 00	 push	 OFFSET ??_C@_0BB@JPAFMMHG@ExGuardianThirty?$AA@
  0042c	68 00 00 00 00	 push	 OFFSET ??_C@_06MLPMCPDE@ExTeam?$AA@
  00431	ff 15 00 00 00
	00		 call	 DWORD PTR __imp__GetPrivateProfileIntA@16
  00437	8b 4d fc	 mov	 ecx, DWORD PTR _this$[ebp]
  0043a	89 81 84 00 00
	00		 mov	 DWORD PTR [ecx+132], eax

; 60   : 		this->ExGuardianForty = GetPrivateProfileInt("ExTeam","ExGuardianForty",0,JEWELSBANK_DIR);

  00440	68 00 00 00 00	 push	 OFFSET ??_C@_0BO@LNDIKJNF@?4?4?2Data?2ExData?2JewelsBank?4ini?$AA@
  00445	6a 00		 push	 0
  00447	68 00 00 00 00	 push	 OFFSET ??_C@_0BA@FJPELHDP@ExGuardianForty?$AA@
  0044c	68 00 00 00 00	 push	 OFFSET ??_C@_06MLPMCPDE@ExTeam?$AA@
  00451	ff 15 00 00 00
	00		 call	 DWORD PTR __imp__GetPrivateProfileIntA@16
  00457	8b 4d fc	 mov	 ecx, DWORD PTR _this$[ebp]
  0045a	89 81 88 00 00
	00		 mov	 DWORD PTR [ecx+136], eax

; 61   : 		this->ExGuardianFifty = GetPrivateProfileInt("ExTeam","ExGuardianFifty",0,JEWELSBANK_DIR);

  00460	68 00 00 00 00	 push	 OFFSET ??_C@_0BO@LNDIKJNF@?4?4?2Data?2ExData?2JewelsBank?4ini?$AA@
  00465	6a 00		 push	 0
  00467	68 00 00 00 00	 push	 OFFSET ??_C@_0BA@JMPICFH@ExGuardianFifty?$AA@
  0046c	68 00 00 00 00	 push	 OFFSET ??_C@_06MLPMCPDE@ExTeam?$AA@
  00471	ff 15 00 00 00
	00		 call	 DWORD PTR __imp__GetPrivateProfileIntA@16
  00477	8b 4d fc	 mov	 ecx, DWORD PTR _this$[ebp]
  0047a	89 81 8c 00 00
	00		 mov	 DWORD PTR [ecx+140], eax

; 62   : 		this->ExGuardianHundred = GetPrivateProfileInt("ExTeam","ExGuardianHundred",0,JEWELSBANK_DIR);

  00480	68 00 00 00 00	 push	 OFFSET ??_C@_0BO@LNDIKJNF@?4?4?2Data?2ExData?2JewelsBank?4ini?$AA@
  00485	6a 00		 push	 0
  00487	68 00 00 00 00	 push	 OFFSET ??_C@_0BC@FHIHPBFO@ExGuardianHundred?$AA@
  0048c	68 00 00 00 00	 push	 OFFSET ??_C@_06MLPMCPDE@ExTeam?$AA@
  00491	ff 15 00 00 00
	00		 call	 DWORD PTR __imp__GetPrivateProfileIntA@16
  00497	8b 4d fc	 mov	 ecx, DWORD PTR _this$[ebp]
  0049a	89 81 90 00 00
	00		 mov	 DWORD PTR [ecx+144], eax

; 63   : 
; 64   : 		this->ExHarmonyTeen = GetPrivateProfileInt("ExTeam","ExHarmonyTeen",0,JEWELSBANK_DIR);

  004a0	68 00 00 00 00	 push	 OFFSET ??_C@_0BO@LNDIKJNF@?4?4?2Data?2ExData?2JewelsBank?4ini?$AA@
  004a5	6a 00		 push	 0
  004a7	68 00 00 00 00	 push	 OFFSET ??_C@_0O@HJGKPDJD@ExHarmonyTeen?$AA@
  004ac	68 00 00 00 00	 push	 OFFSET ??_C@_06MLPMCPDE@ExTeam?$AA@
  004b1	ff 15 00 00 00
	00		 call	 DWORD PTR __imp__GetPrivateProfileIntA@16
  004b7	8b 4d fc	 mov	 ecx, DWORD PTR _this$[ebp]
  004ba	89 81 94 00 00
	00		 mov	 DWORD PTR [ecx+148], eax

; 65   : 		this->ExHarmonyTwenty = GetPrivateProfileInt("ExTeam","ExHarmonyTwenty",0,JEWELSBANK_DIR);

  004c0	68 00 00 00 00	 push	 OFFSET ??_C@_0BO@LNDIKJNF@?4?4?2Data?2ExData?2JewelsBank?4ini?$AA@
  004c5	6a 00		 push	 0
  004c7	68 00 00 00 00	 push	 OFFSET ??_C@_0BA@JNMDKCLG@ExHarmonyTwenty?$AA@
  004cc	68 00 00 00 00	 push	 OFFSET ??_C@_06MLPMCPDE@ExTeam?$AA@
  004d1	ff 15 00 00 00
	00		 call	 DWORD PTR __imp__GetPrivateProfileIntA@16
  004d7	8b 4d fc	 mov	 ecx, DWORD PTR _this$[ebp]
  004da	89 81 98 00 00
	00		 mov	 DWORD PTR [ecx+152], eax

; 66   : 		this->ExHarmonyThirty = GetPrivateProfileInt("ExTeam","ExHarmonyThirty",0,JEWELSBANK_DIR);

  004e0	68 00 00 00 00	 push	 OFFSET ??_C@_0BO@LNDIKJNF@?4?4?2Data?2ExData?2JewelsBank?4ini?$AA@
  004e5	6a 00		 push	 0
  004e7	68 00 00 00 00	 push	 OFFSET ??_C@_0BA@LAHMBHNO@ExHarmonyThirty?$AA@
  004ec	68 00 00 00 00	 push	 OFFSET ??_C@_06MLPMCPDE@ExTeam?$AA@
  004f1	ff 15 00 00 00
	00		 call	 DWORD PTR __imp__GetPrivateProfileIntA@16
  004f7	8b 4d fc	 mov	 ecx, DWORD PTR _this$[ebp]
  004fa	89 81 9c 00 00
	00		 mov	 DWORD PTR [ecx+156], eax

; 67   : 		this->ExHarmonyForty = GetPrivateProfileInt("ExTeam","ExHarmonyForty",0,JEWELSBANK_DIR);

  00500	68 00 00 00 00	 push	 OFFSET ??_C@_0BO@LNDIKJNF@?4?4?2Data?2ExData?2JewelsBank?4ini?$AA@
  00505	6a 00		 push	 0
  00507	68 00 00 00 00	 push	 OFFSET ??_C@_0P@EPFDJIAD@ExHarmonyForty?$AA@
  0050c	68 00 00 00 00	 push	 OFFSET ??_C@_06MLPMCPDE@ExTeam?$AA@
  00511	ff 15 00 00 00
	00		 call	 DWORD PTR __imp__GetPrivateProfileIntA@16
  00517	8b 4d fc	 mov	 ecx, DWORD PTR _this$[ebp]
  0051a	89 81 a0 00 00
	00		 mov	 DWORD PTR [ecx+160], eax

; 68   : 		this->ExHarmonyFifty = GetPrivateProfileInt("ExTeam","ExHarmonyFifty",0,JEWELSBANK_DIR);

  00520	68 00 00 00 00	 push	 OFFSET ??_C@_0BO@LNDIKJNF@?4?4?2Data?2ExData?2JewelsBank?4ini?$AA@
  00525	6a 00		 push	 0
  00527	68 00 00 00 00	 push	 OFFSET ??_C@_0P@BPGIKNGL@ExHarmonyFifty?$AA@
  0052c	68 00 00 00 00	 push	 OFFSET ??_C@_06MLPMCPDE@ExTeam?$AA@
  00531	ff 15 00 00 00
	00		 call	 DWORD PTR __imp__GetPrivateProfileIntA@16
  00537	8b 4d fc	 mov	 ecx, DWORD PTR _this$[ebp]
  0053a	89 81 a4 00 00
	00		 mov	 DWORD PTR [ecx+164], eax

; 69   : 		this->ExHarmonyHundred = GetPrivateProfileInt("ExTeam","ExHarmonyHundred",0,JEWELSBANK_DIR);

  00540	68 00 00 00 00	 push	 OFFSET ??_C@_0BO@LNDIKJNF@?4?4?2Data?2ExData?2JewelsBank?4ini?$AA@
  00545	6a 00		 push	 0
  00547	68 00 00 00 00	 push	 OFFSET ??_C@_0BB@IPKFKDFP@ExHarmonyHundred?$AA@
  0054c	68 00 00 00 00	 push	 OFFSET ??_C@_06MLPMCPDE@ExTeam?$AA@
  00551	ff 15 00 00 00
	00		 call	 DWORD PTR __imp__GetPrivateProfileIntA@16
  00557	8b 4d fc	 mov	 ecx, DWORD PTR _this$[ebp]
  0055a	89 81 a8 00 00
	00		 mov	 DWORD PTR [ecx+168], eax

; 70   : 
; 71   : 		this->ExLowStoneTeen = GetPrivateProfileInt("ExTeam","ExLowStoneTeen",0,JEWELSBANK_DIR);

  00560	68 00 00 00 00	 push	 OFFSET ??_C@_0BO@LNDIKJNF@?4?4?2Data?2ExData?2JewelsBank?4ini?$AA@
  00565	6a 00		 push	 0
  00567	68 00 00 00 00	 push	 OFFSET ??_C@_0P@KDJAJNMI@ExLowStoneTeen?$AA@
  0056c	68 00 00 00 00	 push	 OFFSET ??_C@_06MLPMCPDE@ExTeam?$AA@
  00571	ff 15 00 00 00
	00		 call	 DWORD PTR __imp__GetPrivateProfileIntA@16
  00577	8b 4d fc	 mov	 ecx, DWORD PTR _this$[ebp]
  0057a	89 81 ac 00 00
	00		 mov	 DWORD PTR [ecx+172], eax

; 72   : 		this->ExLowStoneTwenty = GetPrivateProfileInt("ExTeam","ExLowStoneTwenty",0,JEWELSBANK_DIR);

  00580	68 00 00 00 00	 push	 OFFSET ??_C@_0BO@LNDIKJNF@?4?4?2Data?2ExData?2JewelsBank?4ini?$AA@
  00585	6a 00		 push	 0
  00587	68 00 00 00 00	 push	 OFFSET ??_C@_0BB@GOIGLAIM@ExLowStoneTwenty?$AA@
  0058c	68 00 00 00 00	 push	 OFFSET ??_C@_06MLPMCPDE@ExTeam?$AA@
  00591	ff 15 00 00 00
	00		 call	 DWORD PTR __imp__GetPrivateProfileIntA@16
  00597	8b 4d fc	 mov	 ecx, DWORD PTR _this$[ebp]
  0059a	89 81 b0 00 00
	00		 mov	 DWORD PTR [ecx+176], eax

; 73   : 		this->ExLowStoneThirty = GetPrivateProfileInt("ExTeam","ExLowStoneThirty",0,JEWELSBANK_DIR);

  005a0	68 00 00 00 00	 push	 OFFSET ??_C@_0BO@LNDIKJNF@?4?4?2Data?2ExData?2JewelsBank?4ini?$AA@
  005a5	6a 00		 push	 0
  005a7	68 00 00 00 00	 push	 OFFSET ??_C@_0BB@EDDJAFOE@ExLowStoneThirty?$AA@
  005ac	68 00 00 00 00	 push	 OFFSET ??_C@_06MLPMCPDE@ExTeam?$AA@
  005b1	ff 15 00 00 00
	00		 call	 DWORD PTR __imp__GetPrivateProfileIntA@16
  005b7	8b 4d fc	 mov	 ecx, DWORD PTR _this$[ebp]
  005ba	89 81 b4 00 00
	00		 mov	 DWORD PTR [ecx+180], eax

; 74   : 		this->ExLowStoneForty = GetPrivateProfileInt("ExTeam","ExLowStoneForty",0,JEWELSBANK_DIR);

  005c0	68 00 00 00 00	 push	 OFFSET ??_C@_0BO@LNDIKJNF@?4?4?2Data?2ExData?2JewelsBank?4ini?$AA@
  005c5	6a 00		 push	 0
  005c7	68 00 00 00 00	 push	 OFFSET ??_C@_0BA@LDDAOKBB@ExLowStoneForty?$AA@
  005cc	68 00 00 00 00	 push	 OFFSET ??_C@_06MLPMCPDE@ExTeam?$AA@
  005d1	ff 15 00 00 00
	00		 call	 DWORD PTR __imp__GetPrivateProfileIntA@16
  005d7	8b 4d fc	 mov	 ecx, DWORD PTR _this$[ebp]
  005da	89 81 b8 00 00
	00		 mov	 DWORD PTR [ecx+184], eax

; 75   : 		this->ExLowStoneFifty = GetPrivateProfileInt("ExTeam","ExLowStoneFifty",0,JEWELSBANK_DIR);

  005e0	68 00 00 00 00	 push	 OFFSET ??_C@_0BO@LNDIKJNF@?4?4?2Data?2ExData?2JewelsBank?4ini?$AA@
  005e5	6a 00		 push	 0
  005e7	68 00 00 00 00	 push	 OFFSET ??_C@_0BA@ODALNPHJ@ExLowStoneFifty?$AA@
  005ec	68 00 00 00 00	 push	 OFFSET ??_C@_06MLPMCPDE@ExTeam?$AA@
  005f1	ff 15 00 00 00
	00		 call	 DWORD PTR __imp__GetPrivateProfileIntA@16
  005f7	8b 4d fc	 mov	 ecx, DWORD PTR _this$[ebp]
  005fa	89 81 bc 00 00
	00		 mov	 DWORD PTR [ecx+188], eax

; 76   : 		this->ExLowStoneHundred = GetPrivateProfileInt("ExTeam","ExLowStoneHundred",0,JEWELSBANK_DIR);

  00600	68 00 00 00 00	 push	 OFFSET ??_C@_0BO@LNDIKJNF@?4?4?2Data?2ExData?2JewelsBank?4ini?$AA@
  00605	6a 00		 push	 0
  00607	68 00 00 00 00	 push	 OFFSET ??_C@_0BC@EJFKDPPP@ExLowStoneHundred?$AA@
  0060c	68 00 00 00 00	 push	 OFFSET ??_C@_06MLPMCPDE@ExTeam?$AA@
  00611	ff 15 00 00 00
	00		 call	 DWORD PTR __imp__GetPrivateProfileIntA@16
  00617	8b 4d fc	 mov	 ecx, DWORD PTR _this$[ebp]
  0061a	89 81 c0 00 00
	00		 mov	 DWORD PTR [ecx+192], eax

; 77   : 
; 78   : 		this->ExHighStoneTeen = GetPrivateProfileInt("ExTeam","ExHighStoneTeen",0,JEWELSBANK_DIR);

  00620	68 00 00 00 00	 push	 OFFSET ??_C@_0BO@LNDIKJNF@?4?4?2Data?2ExData?2JewelsBank?4ini?$AA@
  00625	6a 00		 push	 0
  00627	68 00 00 00 00	 push	 OFFSET ??_C@_0BA@MCPDNHOK@ExHighStoneTeen?$AA@
  0062c	68 00 00 00 00	 push	 OFFSET ??_C@_06MLPMCPDE@ExTeam?$AA@
  00631	ff 15 00 00 00
	00		 call	 DWORD PTR __imp__GetPrivateProfileIntA@16
  00637	8b 4d fc	 mov	 ecx, DWORD PTR _this$[ebp]
  0063a	89 81 c4 00 00
	00		 mov	 DWORD PTR [ecx+196], eax

; 79   : 		this->ExHighStoneTwenty = GetPrivateProfileInt("ExTeam","ExHighStoneTwenty",0,JEWELSBANK_DIR);

  00640	68 00 00 00 00	 push	 OFFSET ??_C@_0BO@LNDIKJNF@?4?4?2Data?2ExData?2JewelsBank?4ini?$AA@
  00645	6a 00		 push	 0
  00647	68 00 00 00 00	 push	 OFFSET ??_C@_0BC@FPDNDPEB@ExHighStoneTwenty?$AA@
  0064c	68 00 00 00 00	 push	 OFFSET ??_C@_06MLPMCPDE@ExTeam?$AA@
  00651	ff 15 00 00 00
	00		 call	 DWORD PTR __imp__GetPrivateProfileIntA@16
  00657	8b 4d fc	 mov	 ecx, DWORD PTR _this$[ebp]
  0065a	89 81 c8 00 00
	00		 mov	 DWORD PTR [ecx+200], eax

; 80   : 		this->ExHighStoneThirty = GetPrivateProfileInt("ExTeam","ExHighStoneThirty",0,JEWELSBANK_DIR);

  00660	68 00 00 00 00	 push	 OFFSET ??_C@_0BO@LNDIKJNF@?4?4?2Data?2ExData?2JewelsBank?4ini?$AA@
  00665	6a 00		 push	 0
  00667	68 00 00 00 00	 push	 OFFSET ??_C@_0BC@HCICIKCJ@ExHighStoneThirty?$AA@
  0066c	68 00 00 00 00	 push	 OFFSET ??_C@_06MLPMCPDE@ExTeam?$AA@
  00671	ff 15 00 00 00
	00		 call	 DWORD PTR __imp__GetPrivateProfileIntA@16
  00677	8b 4d fc	 mov	 ecx, DWORD PTR _this$[ebp]
  0067a	89 81 cc 00 00
	00		 mov	 DWORD PTR [ecx+204], eax

; 81   : 		this->ExHighStoneForty = GetPrivateProfileInt("ExTeam","ExHighStoneForty",0,JEWELSBANK_DIR);

  00680	68 00 00 00 00	 push	 OFFSET ??_C@_0BO@LNDIKJNF@?4?4?2Data?2ExData?2JewelsBank?4ini?$AA@
  00685	6a 00		 push	 0
  00687	68 00 00 00 00	 push	 OFFSET ??_C@_0BB@GGDBMILP@ExHighStoneForty?$AA@
  0068c	68 00 00 00 00	 push	 OFFSET ??_C@_06MLPMCPDE@ExTeam?$AA@
  00691	ff 15 00 00 00
	00		 call	 DWORD PTR __imp__GetPrivateProfileIntA@16
  00697	8b 4d fc	 mov	 ecx, DWORD PTR _this$[ebp]
  0069a	89 81 d0 00 00
	00		 mov	 DWORD PTR [ecx+208], eax

; 82   : 		this->ExHighStoneFifty = GetPrivateProfileInt("ExTeam","ExHighStoneFifty",0,JEWELSBANK_DIR);

  006a0	68 00 00 00 00	 push	 OFFSET ??_C@_0BO@LNDIKJNF@?4?4?2Data?2ExData?2JewelsBank?4ini?$AA@
  006a5	6a 00		 push	 0
  006a7	68 00 00 00 00	 push	 OFFSET ??_C@_0BB@DGAKPNNH@ExHighStoneFifty?$AA@
  006ac	68 00 00 00 00	 push	 OFFSET ??_C@_06MLPMCPDE@ExTeam?$AA@
  006b1	ff 15 00 00 00
	00		 call	 DWORD PTR __imp__GetPrivateProfileIntA@16
  006b7	8b 4d fc	 mov	 ecx, DWORD PTR _this$[ebp]
  006ba	89 81 d4 00 00
	00		 mov	 DWORD PTR [ecx+212], eax

; 83   : 		this->ExHighStoneHundred = GetPrivateProfileInt("ExTeam","ExHighStoneHundred",0,JEWELSBANK_DIR);

  006c0	68 00 00 00 00	 push	 OFFSET ??_C@_0BO@LNDIKJNF@?4?4?2Data?2ExData?2JewelsBank?4ini?$AA@
  006c5	6a 00		 push	 0
  006c7	68 00 00 00 00	 push	 OFFSET ??_C@_0BD@KMLODKHN@ExHighStoneHundred?$AA@
  006cc	68 00 00 00 00	 push	 OFFSET ??_C@_06MLPMCPDE@ExTeam?$AA@
  006d1	ff 15 00 00 00
	00		 call	 DWORD PTR __imp__GetPrivateProfileIntA@16
  006d7	8b 4d fc	 mov	 ecx, DWORD PTR _this$[ebp]
  006da	89 81 d8 00 00
	00		 mov	 DWORD PTR [ecx+216], eax

; 84   : 
; 85   : 		this->ExGemStoneTeen = GetPrivateProfileInt("ExTeam","ExGemStoneTeen",0,JEWELSBANK_DIR);

  006e0	68 00 00 00 00	 push	 OFFSET ??_C@_0BO@LNDIKJNF@?4?4?2Data?2ExData?2JewelsBank?4ini?$AA@
  006e5	6a 00		 push	 0
  006e7	68 00 00 00 00	 push	 OFFSET ??_C@_0P@OCDHFGEF@ExGemStoneTeen?$AA@
  006ec	68 00 00 00 00	 push	 OFFSET ??_C@_06MLPMCPDE@ExTeam?$AA@
  006f1	ff 15 00 00 00
	00		 call	 DWORD PTR __imp__GetPrivateProfileIntA@16
  006f7	8b 4d fc	 mov	 ecx, DWORD PTR _this$[ebp]
  006fa	89 81 dc 00 00
	00		 mov	 DWORD PTR [ecx+220], eax

; 86   : 		this->ExGemStoneTwenty = GetPrivateProfileInt("ExTeam","ExGemStoneTwenty",0,JEWELSBANK_DIR);

  00700	68 00 00 00 00	 push	 OFFSET ??_C@_0BO@LNDIKJNF@?4?4?2Data?2ExData?2JewelsBank?4ini?$AA@
  00705	6a 00		 push	 0
  00707	68 00 00 00 00	 push	 OFFSET ??_C@_0BB@OMBNAMBF@ExGemStoneTwenty?$AA@
  0070c	68 00 00 00 00	 push	 OFFSET ??_C@_06MLPMCPDE@ExTeam?$AA@
  00711	ff 15 00 00 00
	00		 call	 DWORD PTR __imp__GetPrivateProfileIntA@16
  00717	8b 4d fc	 mov	 ecx, DWORD PTR _this$[ebp]
  0071a	89 81 e0 00 00
	00		 mov	 DWORD PTR [ecx+224], eax

; 87   : 		this->ExGemStoneThirty = GetPrivateProfileInt("ExTeam","ExGemStoneThirty",0,JEWELSBANK_DIR);

  00720	68 00 00 00 00	 push	 OFFSET ??_C@_0BO@LNDIKJNF@?4?4?2Data?2ExData?2JewelsBank?4ini?$AA@
  00725	6a 00		 push	 0
  00727	68 00 00 00 00	 push	 OFFSET ??_C@_0BB@MBKCLJHN@ExGemStoneThirty?$AA@
  0072c	68 00 00 00 00	 push	 OFFSET ??_C@_06MLPMCPDE@ExTeam?$AA@
  00731	ff 15 00 00 00
	00		 call	 DWORD PTR __imp__GetPrivateProfileIntA@16
  00737	8b 4d fc	 mov	 ecx, DWORD PTR _this$[ebp]
  0073a	89 81 e4 00 00
	00		 mov	 DWORD PTR [ecx+228], eax

; 88   : 		this->ExGemStoneForty = GetPrivateProfileInt("ExTeam","ExGemStoneForty",0,JEWELSBANK_DIR);

  00740	68 00 00 00 00	 push	 OFFSET ??_C@_0BO@LNDIKJNF@?4?4?2Data?2ExData?2JewelsBank?4ini?$AA@
  00745	6a 00		 push	 0
  00747	68 00 00 00 00	 push	 OFFSET ??_C@_0BA@CAHILCEH@ExGemStoneForty?$AA@
  0074c	68 00 00 00 00	 push	 OFFSET ??_C@_06MLPMCPDE@ExTeam?$AA@
  00751	ff 15 00 00 00
	00		 call	 DWORD PTR __imp__GetPrivateProfileIntA@16
  00757	8b 4d fc	 mov	 ecx, DWORD PTR _this$[ebp]
  0075a	89 81 e8 00 00
	00		 mov	 DWORD PTR [ecx+232], eax

; 89   : 		this->ExGemStoneFifty = GetPrivateProfileInt("ExTeam","ExGemStoneFifty",0,JEWELSBANK_DIR);

  00760	68 00 00 00 00	 push	 OFFSET ??_C@_0BO@LNDIKJNF@?4?4?2Data?2ExData?2JewelsBank?4ini?$AA@
  00765	6a 00		 push	 0
  00767	68 00 00 00 00	 push	 OFFSET ??_C@_0BA@HAEDIHCP@ExGemStoneFifty?$AA@
  0076c	68 00 00 00 00	 push	 OFFSET ??_C@_06MLPMCPDE@ExTeam?$AA@
  00771	ff 15 00 00 00
	00		 call	 DWORD PTR __imp__GetPrivateProfileIntA@16
  00777	8b 4d fc	 mov	 ecx, DWORD PTR _this$[ebp]
  0077a	89 81 ec 00 00
	00		 mov	 DWORD PTR [ecx+236], eax

; 90   : 		this->ExGemStoneHundred = GetPrivateProfileInt("ExTeam","ExGemStoneHundred",0,JEWELSBANK_DIR);

  00780	68 00 00 00 00	 push	 OFFSET ??_C@_0BO@LNDIKJNF@?4?4?2Data?2ExData?2JewelsBank?4ini?$AA@
  00785	6a 00		 push	 0
  00787	68 00 00 00 00	 push	 OFFSET ??_C@_0BC@MAALIPKD@ExGemStoneHundred?$AA@
  0078c	68 00 00 00 00	 push	 OFFSET ??_C@_06MLPMCPDE@ExTeam?$AA@
  00791	ff 15 00 00 00
	00		 call	 DWORD PTR __imp__GetPrivateProfileIntA@16
  00797	8b 4d fc	 mov	 ecx, DWORD PTR _this$[ebp]
  0079a	89 81 f0 00 00
	00		 mov	 DWORD PTR [ecx+240], eax
$LN3@Load:

; 91   : 	/**/
; 92   : 	}
; 93   : #endif
; 94   : #endif
; 95   : }

  007a0	5f		 pop	 edi
  007a1	5e		 pop	 esi
  007a2	5b		 pop	 ebx
  007a3	8b e5		 mov	 esp, ebp
  007a5	5d		 pop	 ebp
  007a6	c3		 ret	 0
?Load@JewelsBank@@QAEXXZ ENDP				; JewelsBank::Load
_TEXT	ENDS
PUBLIC	?sendchaosbank@JewelsBank@@QAEXHH@Z		; JewelsBank::sendchaosbank
EXTRN	?ExUserDataSend@@YAXH@Z:PROC			; ExUserDataSend
EXTRN	?gObj@@3PAUOBJECTSTRUCT@@A:DWORD		; gObj
EXTRN	?gObjDeleteItemsCount@@YAHHFFH@Z:PROC		; gObjDeleteItemsCount
EXTRN	?MsgNormal@@YAXHPADZZ:PROC			; MsgNormal
EXTRN	?GetText@CExText@@QAEPADH@Z:PROC		; CExText::GetText
EXTRN	?g_ExText@@3VCExText@@A:BYTE			; g_ExText
EXTRN	?gObjGetItemCountInInventory@@YAHHHH@Z:PROC	; gObjGetItemCountInInventory
; Function compile flags: /Odtp /ZI
_TEXT	SEGMENT
_lpObj$ = -8						; size = 4
_this$ = -4						; size = 4
_aIndex$ = 8						; size = 4
_Count$ = 12						; size = 4
?sendchaosbank@JewelsBank@@QAEXHH@Z PROC		; JewelsBank::sendchaosbank
; _this$ = ecx

; 98   : {

  007b0	55		 push	 ebp
  007b1	8b ec		 mov	 ebp, esp
  007b3	83 ec 48	 sub	 esp, 72			; 00000048H
  007b6	53		 push	 ebx
  007b7	56		 push	 esi
  007b8	57		 push	 edi
  007b9	89 4d fc	 mov	 DWORD PTR _this$[ebp], ecx

; 99   : 	if(!this->Enable) return;

  007bc	8b 45 fc	 mov	 eax, DWORD PTR _this$[ebp]
  007bf	0f b6 08	 movzx	 ecx, BYTE PTR [eax]
  007c2	85 c9		 test	 ecx, ecx
  007c4	75 05		 jne	 SHORT $LN2@sendchaosb
  007c6	e9 a4 00 00 00	 jmp	 $LN3@sendchaosb
$LN2@sendchaosb:

; 100  : 	if(gObjGetItemCountInInventory(aIndex,ITEMGET(12,15),0) < Count)

  007cb	6a 00		 push	 0
  007cd	68 0f 18 00 00	 push	 6159			; 0000180fH
  007d2	8b 45 08	 mov	 eax, DWORD PTR _aIndex$[ebp]
  007d5	50		 push	 eax
  007d6	e8 00 00 00 00	 call	 ?gObjGetItemCountInInventory@@YAHHHH@Z ; gObjGetItemCountInInventory
  007db	83 c4 0c	 add	 esp, 12			; 0000000cH
  007de	3b 45 0c	 cmp	 eax, DWORD PTR _Count$[ebp]
  007e1	7d 22		 jge	 SHORT $LN1@sendchaosb

; 101  : 	{
; 102  : 		MsgNormal(aIndex,g_ExText.GetText(147),Count);

  007e3	8b 45 0c	 mov	 eax, DWORD PTR _Count$[ebp]
  007e6	50		 push	 eax
  007e7	68 93 00 00 00	 push	 147			; 00000093H
  007ec	b9 00 00 00 00	 mov	 ecx, OFFSET ?g_ExText@@3VCExText@@A ; g_ExText
  007f1	e8 00 00 00 00	 call	 ?GetText@CExText@@QAEPADH@Z ; CExText::GetText
  007f6	50		 push	 eax
  007f7	8b 4d 08	 mov	 ecx, DWORD PTR _aIndex$[ebp]
  007fa	51		 push	 ecx
  007fb	e8 00 00 00 00	 call	 ?MsgNormal@@YAXHPADZZ	; MsgNormal
  00800	83 c4 0c	 add	 esp, 12			; 0000000cH

; 103  : 		return;

  00803	eb 6a		 jmp	 SHORT $LN3@sendchaosb
$LN1@sendchaosb:

; 104  : 	}
; 105  : 	gObjDeleteItemsCount(aIndex,ITEMGET(12,15),0,Count);

  00805	8b 45 0c	 mov	 eax, DWORD PTR _Count$[ebp]
  00808	50		 push	 eax
  00809	6a 00		 push	 0
  0080b	68 0f 18 00 00	 push	 6159			; 0000180fH
  00810	8b 4d 08	 mov	 ecx, DWORD PTR _aIndex$[ebp]
  00813	51		 push	 ecx
  00814	e8 00 00 00 00	 call	 ?gObjDeleteItemsCount@@YAHHFFH@Z ; gObjDeleteItemsCount
  00819	83 c4 10	 add	 esp, 16			; 00000010H

; 106  : 	LPOBJ lpObj = &gObj[aIndex];

  0081c	8b 45 08	 mov	 eax, DWORD PTR _aIndex$[ebp]
  0081f	69 c0 38 2b 00
	00		 imul	 eax, 11064		; 00002b38H
  00825	03 05 00 00 00
	00		 add	 eax, DWORD PTR ?gObj@@3PAUOBJECTSTRUCT@@A ; gObj
  0082b	89 45 f8	 mov	 DWORD PTR _lpObj$[ebp], eax

; 107  : 	lpObj->ChaosBank += Count;

  0082e	8b 45 f8	 mov	 eax, DWORD PTR _lpObj$[ebp]
  00831	8b 88 e0 27 00
	00		 mov	 ecx, DWORD PTR [eax+10208]
  00837	03 4d 0c	 add	 ecx, DWORD PTR _Count$[ebp]
  0083a	8b 55 f8	 mov	 edx, DWORD PTR _lpObj$[ebp]
  0083d	89 8a e0 27 00
	00		 mov	 DWORD PTR [edx+10208], ecx

; 108  : 	ExUserDataSend(aIndex);

  00843	8b 45 08	 mov	 eax, DWORD PTR _aIndex$[ebp]
  00846	50		 push	 eax
  00847	e8 00 00 00 00	 call	 ?ExUserDataSend@@YAXH@Z	; ExUserDataSend
  0084c	83 c4 04	 add	 esp, 4

; 109  : 	MsgNormal(aIndex,g_ExText.GetText(148),Count);

  0084f	8b 45 0c	 mov	 eax, DWORD PTR _Count$[ebp]
  00852	50		 push	 eax
  00853	68 94 00 00 00	 push	 148			; 00000094H
  00858	b9 00 00 00 00	 mov	 ecx, OFFSET ?g_ExText@@3VCExText@@A ; g_ExText
  0085d	e8 00 00 00 00	 call	 ?GetText@CExText@@QAEPADH@Z ; CExText::GetText
  00862	50		 push	 eax
  00863	8b 4d 08	 mov	 ecx, DWORD PTR _aIndex$[ebp]
  00866	51		 push	 ecx
  00867	e8 00 00 00 00	 call	 ?MsgNormal@@YAXHPADZZ	; MsgNormal
  0086c	83 c4 0c	 add	 esp, 12			; 0000000cH
$LN3@sendchaosb:

; 110  : }

  0086f	5f		 pop	 edi
  00870	5e		 pop	 esi
  00871	5b		 pop	 ebx
  00872	8b e5		 mov	 esp, ebp
  00874	5d		 pop	 ebp
  00875	c2 08 00	 ret	 8
?sendchaosbank@JewelsBank@@QAEXHH@Z ENDP		; JewelsBank::sendchaosbank
_TEXT	ENDS
PUBLIC	?sendblessbank@JewelsBank@@QAEXHH@Z		; JewelsBank::sendblessbank
; Function compile flags: /Odtp /ZI
_TEXT	SEGMENT
_lpObj$ = -8						; size = 4
_this$ = -4						; size = 4
_aIndex$ = 8						; size = 4
_Count$ = 12						; size = 4
?sendblessbank@JewelsBank@@QAEXHH@Z PROC		; JewelsBank::sendblessbank
; _this$ = ecx

; 113  : {

  00880	55		 push	 ebp
  00881	8b ec		 mov	 ebp, esp
  00883	83 ec 48	 sub	 esp, 72			; 00000048H
  00886	53		 push	 ebx
  00887	56		 push	 esi
  00888	57		 push	 edi
  00889	89 4d fc	 mov	 DWORD PTR _this$[ebp], ecx

; 114  : 	if(!this->Enable) return;

  0088c	8b 45 fc	 mov	 eax, DWORD PTR _this$[ebp]
  0088f	0f b6 08	 movzx	 ecx, BYTE PTR [eax]
  00892	85 c9		 test	 ecx, ecx
  00894	75 05		 jne	 SHORT $LN2@sendblessb
  00896	e9 a4 00 00 00	 jmp	 $LN3@sendblessb
$LN2@sendblessb:

; 115  : 	if(gObjGetItemCountInInventory(aIndex,ITEMGET(14,13),0) < Count)

  0089b	6a 00		 push	 0
  0089d	68 0d 1c 00 00	 push	 7181			; 00001c0dH
  008a2	8b 45 08	 mov	 eax, DWORD PTR _aIndex$[ebp]
  008a5	50		 push	 eax
  008a6	e8 00 00 00 00	 call	 ?gObjGetItemCountInInventory@@YAHHHH@Z ; gObjGetItemCountInInventory
  008ab	83 c4 0c	 add	 esp, 12			; 0000000cH
  008ae	3b 45 0c	 cmp	 eax, DWORD PTR _Count$[ebp]
  008b1	7d 22		 jge	 SHORT $LN1@sendblessb

; 116  : 	{
; 117  : 		MsgNormal(aIndex,g_ExText.GetText(149),Count);

  008b3	8b 45 0c	 mov	 eax, DWORD PTR _Count$[ebp]
  008b6	50		 push	 eax
  008b7	68 95 00 00 00	 push	 149			; 00000095H
  008bc	b9 00 00 00 00	 mov	 ecx, OFFSET ?g_ExText@@3VCExText@@A ; g_ExText
  008c1	e8 00 00 00 00	 call	 ?GetText@CExText@@QAEPADH@Z ; CExText::GetText
  008c6	50		 push	 eax
  008c7	8b 4d 08	 mov	 ecx, DWORD PTR _aIndex$[ebp]
  008ca	51		 push	 ecx
  008cb	e8 00 00 00 00	 call	 ?MsgNormal@@YAXHPADZZ	; MsgNormal
  008d0	83 c4 0c	 add	 esp, 12			; 0000000cH

; 118  : 		return;

  008d3	eb 6a		 jmp	 SHORT $LN3@sendblessb
$LN1@sendblessb:

; 119  : 	}
; 120  : 	gObjDeleteItemsCount(aIndex,ITEMGET(14,13),0,Count);

  008d5	8b 45 0c	 mov	 eax, DWORD PTR _Count$[ebp]
  008d8	50		 push	 eax
  008d9	6a 00		 push	 0
  008db	68 0d 1c 00 00	 push	 7181			; 00001c0dH
  008e0	8b 4d 08	 mov	 ecx, DWORD PTR _aIndex$[ebp]
  008e3	51		 push	 ecx
  008e4	e8 00 00 00 00	 call	 ?gObjDeleteItemsCount@@YAHHFFH@Z ; gObjDeleteItemsCount
  008e9	83 c4 10	 add	 esp, 16			; 00000010H

; 121  : 	LPOBJ lpObj = &gObj[aIndex];

  008ec	8b 45 08	 mov	 eax, DWORD PTR _aIndex$[ebp]
  008ef	69 c0 38 2b 00
	00		 imul	 eax, 11064		; 00002b38H
  008f5	03 05 00 00 00
	00		 add	 eax, DWORD PTR ?gObj@@3PAUOBJECTSTRUCT@@A ; gObj
  008fb	89 45 f8	 mov	 DWORD PTR _lpObj$[ebp], eax

; 122  : 	lpObj->BlessBank += Count;

  008fe	8b 45 f8	 mov	 eax, DWORD PTR _lpObj$[ebp]
  00901	8b 88 e4 27 00
	00		 mov	 ecx, DWORD PTR [eax+10212]
  00907	03 4d 0c	 add	 ecx, DWORD PTR _Count$[ebp]
  0090a	8b 55 f8	 mov	 edx, DWORD PTR _lpObj$[ebp]
  0090d	89 8a e4 27 00
	00		 mov	 DWORD PTR [edx+10212], ecx

; 123  : 	ExUserDataSend(aIndex);

  00913	8b 45 08	 mov	 eax, DWORD PTR _aIndex$[ebp]
  00916	50		 push	 eax
  00917	e8 00 00 00 00	 call	 ?ExUserDataSend@@YAXH@Z	; ExUserDataSend
  0091c	83 c4 04	 add	 esp, 4

; 124  : 	MsgNormal(aIndex,g_ExText.GetText(150),Count);

  0091f	8b 45 0c	 mov	 eax, DWORD PTR _Count$[ebp]
  00922	50		 push	 eax
  00923	68 96 00 00 00	 push	 150			; 00000096H
  00928	b9 00 00 00 00	 mov	 ecx, OFFSET ?g_ExText@@3VCExText@@A ; g_ExText
  0092d	e8 00 00 00 00	 call	 ?GetText@CExText@@QAEPADH@Z ; CExText::GetText
  00932	50		 push	 eax
  00933	8b 4d 08	 mov	 ecx, DWORD PTR _aIndex$[ebp]
  00936	51		 push	 ecx
  00937	e8 00 00 00 00	 call	 ?MsgNormal@@YAXHPADZZ	; MsgNormal
  0093c	83 c4 0c	 add	 esp, 12			; 0000000cH
$LN3@sendblessb:

; 125  : }

  0093f	5f		 pop	 edi
  00940	5e		 pop	 esi
  00941	5b		 pop	 ebx
  00942	8b e5		 mov	 esp, ebp
  00944	5d		 pop	 ebp
  00945	c2 08 00	 ret	 8
?sendblessbank@JewelsBank@@QAEXHH@Z ENDP		; JewelsBank::sendblessbank
_TEXT	ENDS
PUBLIC	?sendsoulbank@JewelsBank@@QAEXHH@Z		; JewelsBank::sendsoulbank
; Function compile flags: /Odtp /ZI
_TEXT	SEGMENT
_lpObj$ = -8						; size = 4
_this$ = -4						; size = 4
_aIndex$ = 8						; size = 4
_Count$ = 12						; size = 4
?sendsoulbank@JewelsBank@@QAEXHH@Z PROC			; JewelsBank::sendsoulbank
; _this$ = ecx

; 128  : {

  00950	55		 push	 ebp
  00951	8b ec		 mov	 ebp, esp
  00953	83 ec 48	 sub	 esp, 72			; 00000048H
  00956	53		 push	 ebx
  00957	56		 push	 esi
  00958	57		 push	 edi
  00959	89 4d fc	 mov	 DWORD PTR _this$[ebp], ecx

; 129  : 	if(!this->Enable) return;

  0095c	8b 45 fc	 mov	 eax, DWORD PTR _this$[ebp]
  0095f	0f b6 08	 movzx	 ecx, BYTE PTR [eax]
  00962	85 c9		 test	 ecx, ecx
  00964	75 05		 jne	 SHORT $LN2@sendsoulba
  00966	e9 a4 00 00 00	 jmp	 $LN3@sendsoulba
$LN2@sendsoulba:

; 130  : 	if(gObjGetItemCountInInventory(aIndex,ITEMGET(14,14),0) < Count)

  0096b	6a 00		 push	 0
  0096d	68 0e 1c 00 00	 push	 7182			; 00001c0eH
  00972	8b 45 08	 mov	 eax, DWORD PTR _aIndex$[ebp]
  00975	50		 push	 eax
  00976	e8 00 00 00 00	 call	 ?gObjGetItemCountInInventory@@YAHHHH@Z ; gObjGetItemCountInInventory
  0097b	83 c4 0c	 add	 esp, 12			; 0000000cH
  0097e	3b 45 0c	 cmp	 eax, DWORD PTR _Count$[ebp]
  00981	7d 22		 jge	 SHORT $LN1@sendsoulba

; 131  : 	{
; 132  : 		MsgNormal(aIndex,g_ExText.GetText(151),Count);

  00983	8b 45 0c	 mov	 eax, DWORD PTR _Count$[ebp]
  00986	50		 push	 eax
  00987	68 97 00 00 00	 push	 151			; 00000097H
  0098c	b9 00 00 00 00	 mov	 ecx, OFFSET ?g_ExText@@3VCExText@@A ; g_ExText
  00991	e8 00 00 00 00	 call	 ?GetText@CExText@@QAEPADH@Z ; CExText::GetText
  00996	50		 push	 eax
  00997	8b 4d 08	 mov	 ecx, DWORD PTR _aIndex$[ebp]
  0099a	51		 push	 ecx
  0099b	e8 00 00 00 00	 call	 ?MsgNormal@@YAXHPADZZ	; MsgNormal
  009a0	83 c4 0c	 add	 esp, 12			; 0000000cH

; 133  : 		return;

  009a3	eb 6a		 jmp	 SHORT $LN3@sendsoulba
$LN1@sendsoulba:

; 134  : 	}
; 135  : 	gObjDeleteItemsCount(aIndex,ITEMGET(14,14),0,Count);

  009a5	8b 45 0c	 mov	 eax, DWORD PTR _Count$[ebp]
  009a8	50		 push	 eax
  009a9	6a 00		 push	 0
  009ab	68 0e 1c 00 00	 push	 7182			; 00001c0eH
  009b0	8b 4d 08	 mov	 ecx, DWORD PTR _aIndex$[ebp]
  009b3	51		 push	 ecx
  009b4	e8 00 00 00 00	 call	 ?gObjDeleteItemsCount@@YAHHFFH@Z ; gObjDeleteItemsCount
  009b9	83 c4 10	 add	 esp, 16			; 00000010H

; 136  : 	LPOBJ lpObj = &gObj[aIndex];

  009bc	8b 45 08	 mov	 eax, DWORD PTR _aIndex$[ebp]
  009bf	69 c0 38 2b 00
	00		 imul	 eax, 11064		; 00002b38H
  009c5	03 05 00 00 00
	00		 add	 eax, DWORD PTR ?gObj@@3PAUOBJECTSTRUCT@@A ; gObj
  009cb	89 45 f8	 mov	 DWORD PTR _lpObj$[ebp], eax

; 137  : 	lpObj->SoulBank += Count;

  009ce	8b 45 f8	 mov	 eax, DWORD PTR _lpObj$[ebp]
  009d1	8b 88 e8 27 00
	00		 mov	 ecx, DWORD PTR [eax+10216]
  009d7	03 4d 0c	 add	 ecx, DWORD PTR _Count$[ebp]
  009da	8b 55 f8	 mov	 edx, DWORD PTR _lpObj$[ebp]
  009dd	89 8a e8 27 00
	00		 mov	 DWORD PTR [edx+10216], ecx

; 138  : 	ExUserDataSend(aIndex);

  009e3	8b 45 08	 mov	 eax, DWORD PTR _aIndex$[ebp]
  009e6	50		 push	 eax
  009e7	e8 00 00 00 00	 call	 ?ExUserDataSend@@YAXH@Z	; ExUserDataSend
  009ec	83 c4 04	 add	 esp, 4

; 139  : 	MsgNormal(aIndex,g_ExText.GetText(152),Count);

  009ef	8b 45 0c	 mov	 eax, DWORD PTR _Count$[ebp]
  009f2	50		 push	 eax
  009f3	68 98 00 00 00	 push	 152			; 00000098H
  009f8	b9 00 00 00 00	 mov	 ecx, OFFSET ?g_ExText@@3VCExText@@A ; g_ExText
  009fd	e8 00 00 00 00	 call	 ?GetText@CExText@@QAEPADH@Z ; CExText::GetText
  00a02	50		 push	 eax
  00a03	8b 4d 08	 mov	 ecx, DWORD PTR _aIndex$[ebp]
  00a06	51		 push	 ecx
  00a07	e8 00 00 00 00	 call	 ?MsgNormal@@YAXHPADZZ	; MsgNormal
  00a0c	83 c4 0c	 add	 esp, 12			; 0000000cH
$LN3@sendsoulba:

; 140  : }

  00a0f	5f		 pop	 edi
  00a10	5e		 pop	 esi
  00a11	5b		 pop	 ebx
  00a12	8b e5		 mov	 esp, ebp
  00a14	5d		 pop	 ebp
  00a15	c2 08 00	 ret	 8
?sendsoulbank@JewelsBank@@QAEXHH@Z ENDP			; JewelsBank::sendsoulbank
_TEXT	ENDS
PUBLIC	??_C@_0BJ@FKPKFIHO@?$FLJewelsBank?$FN?5Send?5?$CFd?5JoR?$AA@ ; `string'
PUBLIC	??_C@_0BJ@DAKNEPJL@?$FLJewelsBank?$FN?5Need?5?$CFd?5JoR?$AA@ ; `string'
PUBLIC	?sendlifebank@JewelsBank@@QAEXHH@Z		; JewelsBank::sendlifebank
;	COMDAT ??_C@_0BJ@FKPKFIHO@?$FLJewelsBank?$FN?5Send?5?$CFd?5JoR?$AA@
CONST	SEGMENT
??_C@_0BJ@FKPKFIHO@?$FLJewelsBank?$FN?5Send?5?$CFd?5JoR?$AA@ DB '[JewelsB'
	DB	'ank] Send %d JoR', 00H			; `string'
CONST	ENDS
;	COMDAT ??_C@_0BJ@DAKNEPJL@?$FLJewelsBank?$FN?5Need?5?$CFd?5JoR?$AA@
CONST	SEGMENT
??_C@_0BJ@DAKNEPJL@?$FLJewelsBank?$FN?5Need?5?$CFd?5JoR?$AA@ DB '[JewelsB'
	DB	'ank] Need %d JoR', 00H			; `string'
; Function compile flags: /Odtp /ZI
CONST	ENDS
_TEXT	SEGMENT
_lpObj$220614 = -12					; size = 4
_lpObj$220610 = -8					; size = 4
_this$ = -4						; size = 4
_aIndex$ = 8						; size = 4
_Count$ = 12						; size = 4
?sendlifebank@JewelsBank@@QAEXHH@Z PROC			; JewelsBank::sendlifebank
; _this$ = ecx

; 143  : {

  00a20	55		 push	 ebp
  00a21	8b ec		 mov	 ebp, esp
  00a23	83 ec 4c	 sub	 esp, 76			; 0000004cH
  00a26	53		 push	 ebx
  00a27	56		 push	 esi
  00a28	57		 push	 edi
  00a29	89 4d fc	 mov	 DWORD PTR _this$[ebp], ecx

; 144  : 	if(!this->Enable) return;

  00a2c	8b 45 fc	 mov	 eax, DWORD PTR _this$[ebp]
  00a2f	0f b6 08	 movzx	 ecx, BYTE PTR [eax]
  00a32	85 c9		 test	 ecx, ecx
  00a34	75 05		 jne	 SHORT $LN5@sendlifeba
  00a36	e9 51 01 00 00	 jmp	 $LN6@sendlifeba
$LN5@sendlifeba:

; 145  : #ifdef PRIVATE_MODULE
; 146  : 	if(g_ExLicense.CheckUser(eExUB::Vadim))

  00a3b	6a 09		 push	 9
  00a3d	b9 00 00 00 00	 mov	 ecx, OFFSET ?g_ExLicense@@3VCExLicense@@A ; g_ExLicense
  00a42	e8 00 00 00 00	 call	 ?CheckUser@CExLicense@@QAE_NH@Z ; CExLicense::CheckUser
  00a47	0f b6 c0	 movzx	 eax, al
  00a4a	85 c0		 test	 eax, eax
  00a4c	0f 84 96 00 00
	00		 je	 $LN4@sendlifeba

; 147  : 	{
; 148  : 		if(gObjGetItemCountInInventory(aIndex,ITEMGET(14,187),0) < Count)

  00a52	6a 00		 push	 0
  00a54	68 bb 1c 00 00	 push	 7355			; 00001cbbH
  00a59	8b 45 08	 mov	 eax, DWORD PTR _aIndex$[ebp]
  00a5c	50		 push	 eax
  00a5d	e8 00 00 00 00	 call	 ?gObjGetItemCountInInventory@@YAHHHH@Z ; gObjGetItemCountInInventory
  00a62	83 c4 0c	 add	 esp, 12			; 0000000cH
  00a65	3b 45 0c	 cmp	 eax, DWORD PTR _Count$[ebp]
  00a68	7d 1a		 jge	 SHORT $LN3@sendlifeba

; 149  : 		{
; 150  : 			MsgNormal(aIndex,"[JewelsBank] Need %d JoR",Count);

  00a6a	8b 45 0c	 mov	 eax, DWORD PTR _Count$[ebp]
  00a6d	50		 push	 eax
  00a6e	68 00 00 00 00	 push	 OFFSET ??_C@_0BJ@DAKNEPJL@?$FLJewelsBank?$FN?5Need?5?$CFd?5JoR?$AA@
  00a73	8b 4d 08	 mov	 ecx, DWORD PTR _aIndex$[ebp]
  00a76	51		 push	 ecx
  00a77	e8 00 00 00 00	 call	 ?MsgNormal@@YAXHPADZZ	; MsgNormal
  00a7c	83 c4 0c	 add	 esp, 12			; 0000000cH

; 151  : 			return;

  00a7f	e9 08 01 00 00	 jmp	 $LN6@sendlifeba
$LN3@sendlifeba:

; 152  : 		}
; 153  : 		gObjDeleteItemsCount(aIndex,ITEMGET(14,187),0,Count);

  00a84	8b 45 0c	 mov	 eax, DWORD PTR _Count$[ebp]
  00a87	50		 push	 eax
  00a88	6a 00		 push	 0
  00a8a	68 bb 1c 00 00	 push	 7355			; 00001cbbH
  00a8f	8b 4d 08	 mov	 ecx, DWORD PTR _aIndex$[ebp]
  00a92	51		 push	 ecx
  00a93	e8 00 00 00 00	 call	 ?gObjDeleteItemsCount@@YAHHFFH@Z ; gObjDeleteItemsCount
  00a98	83 c4 10	 add	 esp, 16			; 00000010H

; 154  : 		LPOBJ lpObj = &gObj[aIndex];

  00a9b	8b 45 08	 mov	 eax, DWORD PTR _aIndex$[ebp]
  00a9e	69 c0 38 2b 00
	00		 imul	 eax, 11064		; 00002b38H
  00aa4	03 05 00 00 00
	00		 add	 eax, DWORD PTR ?gObj@@3PAUOBJECTSTRUCT@@A ; gObj
  00aaa	89 45 f8	 mov	 DWORD PTR _lpObj$220610[ebp], eax

; 155  : 		lpObj->LifeBank += Count;

  00aad	8b 45 f8	 mov	 eax, DWORD PTR _lpObj$220610[ebp]
  00ab0	8b 88 ec 27 00
	00		 mov	 ecx, DWORD PTR [eax+10220]
  00ab6	03 4d 0c	 add	 ecx, DWORD PTR _Count$[ebp]
  00ab9	8b 55 f8	 mov	 edx, DWORD PTR _lpObj$220610[ebp]
  00abc	89 8a ec 27 00
	00		 mov	 DWORD PTR [edx+10220], ecx

; 156  : 		ExUserDataSend(aIndex);

  00ac2	8b 45 08	 mov	 eax, DWORD PTR _aIndex$[ebp]
  00ac5	50		 push	 eax
  00ac6	e8 00 00 00 00	 call	 ?ExUserDataSend@@YAXH@Z	; ExUserDataSend
  00acb	83 c4 04	 add	 esp, 4

; 157  : 
; 158  : 		MsgNormal(aIndex,"[JewelsBank] Send %d JoR",Count);

  00ace	8b 45 0c	 mov	 eax, DWORD PTR _Count$[ebp]
  00ad1	50		 push	 eax
  00ad2	68 00 00 00 00	 push	 OFFSET ??_C@_0BJ@FKPKFIHO@?$FLJewelsBank?$FN?5Send?5?$CFd?5JoR?$AA@
  00ad7	8b 4d 08	 mov	 ecx, DWORD PTR _aIndex$[ebp]
  00ada	51		 push	 ecx
  00adb	e8 00 00 00 00	 call	 ?MsgNormal@@YAXHPADZZ	; MsgNormal
  00ae0	83 c4 0c	 add	 esp, 12			; 0000000cH

; 159  : 	}
; 160  : 	else

  00ae3	e9 a4 00 00 00	 jmp	 $LN6@sendlifeba
$LN4@sendlifeba:

; 161  : 	{
; 162  : 		if(gObjGetItemCountInInventory(aIndex,ITEMGET(14,16),0) < Count)

  00ae8	6a 00		 push	 0
  00aea	68 10 1c 00 00	 push	 7184			; 00001c10H
  00aef	8b 45 08	 mov	 eax, DWORD PTR _aIndex$[ebp]
  00af2	50		 push	 eax
  00af3	e8 00 00 00 00	 call	 ?gObjGetItemCountInInventory@@YAHHHH@Z ; gObjGetItemCountInInventory
  00af8	83 c4 0c	 add	 esp, 12			; 0000000cH
  00afb	3b 45 0c	 cmp	 eax, DWORD PTR _Count$[ebp]
  00afe	7d 22		 jge	 SHORT $LN1@sendlifeba

; 163  : 		{
; 164  : 			MsgNormal(aIndex,g_ExText.GetText(153),Count);

  00b00	8b 45 0c	 mov	 eax, DWORD PTR _Count$[ebp]
  00b03	50		 push	 eax
  00b04	68 99 00 00 00	 push	 153			; 00000099H
  00b09	b9 00 00 00 00	 mov	 ecx, OFFSET ?g_ExText@@3VCExText@@A ; g_ExText
  00b0e	e8 00 00 00 00	 call	 ?GetText@CExText@@QAEPADH@Z ; CExText::GetText
  00b13	50		 push	 eax
  00b14	8b 4d 08	 mov	 ecx, DWORD PTR _aIndex$[ebp]
  00b17	51		 push	 ecx
  00b18	e8 00 00 00 00	 call	 ?MsgNormal@@YAXHPADZZ	; MsgNormal
  00b1d	83 c4 0c	 add	 esp, 12			; 0000000cH

; 165  : 			return;

  00b20	eb 6a		 jmp	 SHORT $LN6@sendlifeba
$LN1@sendlifeba:

; 166  : 		}
; 167  : 		gObjDeleteItemsCount(aIndex,ITEMGET(14,16),0,Count);

  00b22	8b 45 0c	 mov	 eax, DWORD PTR _Count$[ebp]
  00b25	50		 push	 eax
  00b26	6a 00		 push	 0
  00b28	68 10 1c 00 00	 push	 7184			; 00001c10H
  00b2d	8b 4d 08	 mov	 ecx, DWORD PTR _aIndex$[ebp]
  00b30	51		 push	 ecx
  00b31	e8 00 00 00 00	 call	 ?gObjDeleteItemsCount@@YAHHFFH@Z ; gObjDeleteItemsCount
  00b36	83 c4 10	 add	 esp, 16			; 00000010H

; 168  : 		LPOBJ lpObj = &gObj[aIndex];

  00b39	8b 45 08	 mov	 eax, DWORD PTR _aIndex$[ebp]
  00b3c	69 c0 38 2b 00
	00		 imul	 eax, 11064		; 00002b38H
  00b42	03 05 00 00 00
	00		 add	 eax, DWORD PTR ?gObj@@3PAUOBJECTSTRUCT@@A ; gObj
  00b48	89 45 f4	 mov	 DWORD PTR _lpObj$220614[ebp], eax

; 169  : 		lpObj->LifeBank += Count;

  00b4b	8b 45 f4	 mov	 eax, DWORD PTR _lpObj$220614[ebp]
  00b4e	8b 88 ec 27 00
	00		 mov	 ecx, DWORD PTR [eax+10220]
  00b54	03 4d 0c	 add	 ecx, DWORD PTR _Count$[ebp]
  00b57	8b 55 f4	 mov	 edx, DWORD PTR _lpObj$220614[ebp]
  00b5a	89 8a ec 27 00
	00		 mov	 DWORD PTR [edx+10220], ecx

; 170  : 		ExUserDataSend(aIndex);

  00b60	8b 45 08	 mov	 eax, DWORD PTR _aIndex$[ebp]
  00b63	50		 push	 eax
  00b64	e8 00 00 00 00	 call	 ?ExUserDataSend@@YAXH@Z	; ExUserDataSend
  00b69	83 c4 04	 add	 esp, 4

; 171  : 
; 172  : 		MsgNormal(aIndex,g_ExText.GetText(154),Count);

  00b6c	8b 45 0c	 mov	 eax, DWORD PTR _Count$[ebp]
  00b6f	50		 push	 eax
  00b70	68 9a 00 00 00	 push	 154			; 0000009aH
  00b75	b9 00 00 00 00	 mov	 ecx, OFFSET ?g_ExText@@3VCExText@@A ; g_ExText
  00b7a	e8 00 00 00 00	 call	 ?GetText@CExText@@QAEPADH@Z ; CExText::GetText
  00b7f	50		 push	 eax
  00b80	8b 4d 08	 mov	 ecx, DWORD PTR _aIndex$[ebp]
  00b83	51		 push	 ecx
  00b84	e8 00 00 00 00	 call	 ?MsgNormal@@YAXHPADZZ	; MsgNormal
  00b89	83 c4 0c	 add	 esp, 12			; 0000000cH
$LN6@sendlifeba:

; 173  : 	}
; 174  : #else
; 175  : 	if(gObjGetItemCountInInventory(aIndex,ITEMGET(14,16),0) < Count)
; 176  : 	{
; 177  : 		MsgNormal(aIndex,"[JewelsBank] Need %d Life",Count);
; 178  : 		return;
; 179  : 	}
; 180  : 	gObjDeleteItemsCount(aIndex,ITEMGET(14,16),0,Count);
; 181  : 	LPOBJ lpObj = &gObj[aIndex];
; 182  : 	lpObj->LifeBank += Count;
; 183  : 	ExUserDataSend(aIndex);
; 184  : 
; 185  : 	MsgNormal(aIndex,"[JewelsBank] Send %d Life",Count);
; 186  : #endif
; 187  : }

  00b8c	5f		 pop	 edi
  00b8d	5e		 pop	 esi
  00b8e	5b		 pop	 ebx
  00b8f	8b e5		 mov	 esp, ebp
  00b91	5d		 pop	 ebp
  00b92	c2 08 00	 ret	 8
?sendlifebank@JewelsBank@@QAEXHH@Z ENDP			; JewelsBank::sendlifebank
_TEXT	ENDS
PUBLIC	??_C@_0BO@ONHCGELD@?$FLJewelsBank?$FN?5Send?5?$CFd?5Createon?$AA@ ; `string'
PUBLIC	??_C@_0BO@DGGJPICC@?$FLJewelsBank?$FN?5Need?5?$CFd?5Createon?$AA@ ; `string'
PUBLIC	?sendcreateonbank@JewelsBank@@QAEXHH@Z		; JewelsBank::sendcreateonbank
;	COMDAT ??_C@_0BO@ONHCGELD@?$FLJewelsBank?$FN?5Send?5?$CFd?5Createon?$AA@
CONST	SEGMENT
??_C@_0BO@ONHCGELD@?$FLJewelsBank?$FN?5Send?5?$CFd?5Createon?$AA@ DB '[Je'
	DB	'welsBank] Send %d Createon', 00H		; `string'
CONST	ENDS
;	COMDAT ??_C@_0BO@DGGJPICC@?$FLJewelsBank?$FN?5Need?5?$CFd?5Createon?$AA@
CONST	SEGMENT
??_C@_0BO@DGGJPICC@?$FLJewelsBank?$FN?5Need?5?$CFd?5Createon?$AA@ DB '[Je'
	DB	'welsBank] Need %d Createon', 00H		; `string'
; Function compile flags: /Odtp /ZI
CONST	ENDS
_TEXT	SEGMENT
_lpObj$ = -8						; size = 4
_this$ = -4						; size = 4
_aIndex$ = 8						; size = 4
_Count$ = 12						; size = 4
?sendcreateonbank@JewelsBank@@QAEXHH@Z PROC		; JewelsBank::sendcreateonbank
; _this$ = ecx

; 190  : {

  00ba0	55		 push	 ebp
  00ba1	8b ec		 mov	 ebp, esp
  00ba3	83 ec 48	 sub	 esp, 72			; 00000048H
  00ba6	53		 push	 ebx
  00ba7	56		 push	 esi
  00ba8	57		 push	 edi
  00ba9	89 4d fc	 mov	 DWORD PTR _this$[ebp], ecx

; 191  : 	if(!this->Enable) return;

  00bac	8b 45 fc	 mov	 eax, DWORD PTR _this$[ebp]
  00baf	0f b6 08	 movzx	 ecx, BYTE PTR [eax]
  00bb2	85 c9		 test	 ecx, ecx
  00bb4	75 05		 jne	 SHORT $LN2@sendcreate
  00bb6	e9 8e 00 00 00	 jmp	 $LN3@sendcreate
$LN2@sendcreate:

; 192  : 
; 193  : 	if(gObjGetItemCountInInventory(aIndex,ITEMGET(14,22),0) < Count)

  00bbb	6a 00		 push	 0
  00bbd	68 16 1c 00 00	 push	 7190			; 00001c16H
  00bc2	8b 45 08	 mov	 eax, DWORD PTR _aIndex$[ebp]
  00bc5	50		 push	 eax
  00bc6	e8 00 00 00 00	 call	 ?gObjGetItemCountInInventory@@YAHHHH@Z ; gObjGetItemCountInInventory
  00bcb	83 c4 0c	 add	 esp, 12			; 0000000cH
  00bce	3b 45 0c	 cmp	 eax, DWORD PTR _Count$[ebp]
  00bd1	7d 17		 jge	 SHORT $LN1@sendcreate

; 194  : 	{
; 195  : 		MsgNormal(aIndex,"[JewelsBank] Need %d Createon",Count);

  00bd3	8b 45 0c	 mov	 eax, DWORD PTR _Count$[ebp]
  00bd6	50		 push	 eax
  00bd7	68 00 00 00 00	 push	 OFFSET ??_C@_0BO@DGGJPICC@?$FLJewelsBank?$FN?5Need?5?$CFd?5Createon?$AA@
  00bdc	8b 4d 08	 mov	 ecx, DWORD PTR _aIndex$[ebp]
  00bdf	51		 push	 ecx
  00be0	e8 00 00 00 00	 call	 ?MsgNormal@@YAXHPADZZ	; MsgNormal
  00be5	83 c4 0c	 add	 esp, 12			; 0000000cH

; 196  : 		return;

  00be8	eb 5f		 jmp	 SHORT $LN3@sendcreate
$LN1@sendcreate:

; 197  : 	}
; 198  : 	gObjDeleteItemsCount(aIndex,ITEMGET(14,22),0,Count);

  00bea	8b 45 0c	 mov	 eax, DWORD PTR _Count$[ebp]
  00bed	50		 push	 eax
  00bee	6a 00		 push	 0
  00bf0	68 16 1c 00 00	 push	 7190			; 00001c16H
  00bf5	8b 4d 08	 mov	 ecx, DWORD PTR _aIndex$[ebp]
  00bf8	51		 push	 ecx
  00bf9	e8 00 00 00 00	 call	 ?gObjDeleteItemsCount@@YAHHFFH@Z ; gObjDeleteItemsCount
  00bfe	83 c4 10	 add	 esp, 16			; 00000010H

; 199  : 	LPOBJ lpObj = &gObj[aIndex];

  00c01	8b 45 08	 mov	 eax, DWORD PTR _aIndex$[ebp]
  00c04	69 c0 38 2b 00
	00		 imul	 eax, 11064		; 00002b38H
  00c0a	03 05 00 00 00
	00		 add	 eax, DWORD PTR ?gObj@@3PAUOBJECTSTRUCT@@A ; gObj
  00c10	89 45 f8	 mov	 DWORD PTR _lpObj$[ebp], eax

; 200  : 	lpObj->CreateonBank += Count;

  00c13	8b 45 f8	 mov	 eax, DWORD PTR _lpObj$[ebp]
  00c16	8b 88 f0 27 00
	00		 mov	 ecx, DWORD PTR [eax+10224]
  00c1c	03 4d 0c	 add	 ecx, DWORD PTR _Count$[ebp]
  00c1f	8b 55 f8	 mov	 edx, DWORD PTR _lpObj$[ebp]
  00c22	89 8a f0 27 00
	00		 mov	 DWORD PTR [edx+10224], ecx

; 201  : 	ExUserDataSend(aIndex);

  00c28	8b 45 08	 mov	 eax, DWORD PTR _aIndex$[ebp]
  00c2b	50		 push	 eax
  00c2c	e8 00 00 00 00	 call	 ?ExUserDataSend@@YAXH@Z	; ExUserDataSend
  00c31	83 c4 04	 add	 esp, 4

; 202  : 
; 203  : 	MsgNormal(aIndex,"[JewelsBank] Send %d Createon",Count);

  00c34	8b 45 0c	 mov	 eax, DWORD PTR _Count$[ebp]
  00c37	50		 push	 eax
  00c38	68 00 00 00 00	 push	 OFFSET ??_C@_0BO@ONHCGELD@?$FLJewelsBank?$FN?5Send?5?$CFd?5Createon?$AA@
  00c3d	8b 4d 08	 mov	 ecx, DWORD PTR _aIndex$[ebp]
  00c40	51		 push	 ecx
  00c41	e8 00 00 00 00	 call	 ?MsgNormal@@YAXHPADZZ	; MsgNormal
  00c46	83 c4 0c	 add	 esp, 12			; 0000000cH
$LN3@sendcreate:

; 204  : }

  00c49	5f		 pop	 edi
  00c4a	5e		 pop	 esi
  00c4b	5b		 pop	 ebx
  00c4c	8b e5		 mov	 esp, ebp
  00c4e	5d		 pop	 ebp
  00c4f	c2 08 00	 ret	 8
?sendcreateonbank@JewelsBank@@QAEXHH@Z ENDP		; JewelsBank::sendcreateonbank
_TEXT	ENDS
PUBLIC	?recvchaosbank@JewelsBank@@QAEXHH@Z		; JewelsBank::recvchaosbank
EXTRN	?ItemSerialCreateSend@@YAXHEEEHEEEEEHEE@Z:PROC	; ItemSerialCreateSend
EXTRN	?ExCheckInventoryEmptySpace@@YAHH@Z:PROC	; ExCheckInventoryEmptySpace
; Function compile flags: /Odtp /ZI
_TEXT	SEGMENT
_i$220634 = -12						; size = 4
_lpObj$ = -8						; size = 4
_this$ = -4						; size = 4
_aIndex$ = 8						; size = 4
_Count$ = 12						; size = 4
?recvchaosbank@JewelsBank@@QAEXHH@Z PROC		; JewelsBank::recvchaosbank
; _this$ = ecx

; 209  : {

  00c60	55		 push	 ebp
  00c61	8b ec		 mov	 ebp, esp
  00c63	83 ec 4c	 sub	 esp, 76			; 0000004cH
  00c66	53		 push	 ebx
  00c67	56		 push	 esi
  00c68	57		 push	 edi
  00c69	89 4d fc	 mov	 DWORD PTR _this$[ebp], ecx

; 210  : 	if(!this->Enable) return;

  00c6c	8b 45 fc	 mov	 eax, DWORD PTR _this$[ebp]
  00c6f	0f b6 08	 movzx	 ecx, BYTE PTR [eax]
  00c72	85 c9		 test	 ecx, ecx
  00c74	75 05		 jne	 SHORT $LN6@recvchaosb
  00c76	e9 16 01 00 00	 jmp	 $LN7@recvchaosb
$LN6@recvchaosb:

; 211  : 	LPOBJ lpObj = &gObj[aIndex];

  00c7b	8b 45 08	 mov	 eax, DWORD PTR _aIndex$[ebp]
  00c7e	69 c0 38 2b 00
	00		 imul	 eax, 11064		; 00002b38H
  00c84	03 05 00 00 00
	00		 add	 eax, DWORD PTR ?gObj@@3PAUOBJECTSTRUCT@@A ; gObj
  00c8a	89 45 f8	 mov	 DWORD PTR _lpObj$[ebp], eax

; 212  : 	if(lpObj->ChaosBank < Count)

  00c8d	8b 45 f8	 mov	 eax, DWORD PTR _lpObj$[ebp]
  00c90	8b 88 e0 27 00
	00		 mov	 ecx, DWORD PTR [eax+10208]
  00c96	3b 4d 0c	 cmp	 ecx, DWORD PTR _Count$[ebp]
  00c99	7d 25		 jge	 SHORT $LN5@recvchaosb

; 213  : 	{
; 214  : 		MsgNormal(aIndex,g_ExText.GetText(155),Count);

  00c9b	8b 45 0c	 mov	 eax, DWORD PTR _Count$[ebp]
  00c9e	50		 push	 eax
  00c9f	68 9b 00 00 00	 push	 155			; 0000009bH
  00ca4	b9 00 00 00 00	 mov	 ecx, OFFSET ?g_ExText@@3VCExText@@A ; g_ExText
  00ca9	e8 00 00 00 00	 call	 ?GetText@CExText@@QAEPADH@Z ; CExText::GetText
  00cae	50		 push	 eax
  00caf	8b 4d 08	 mov	 ecx, DWORD PTR _aIndex$[ebp]
  00cb2	51		 push	 ecx
  00cb3	e8 00 00 00 00	 call	 ?MsgNormal@@YAXHPADZZ	; MsgNormal
  00cb8	83 c4 0c	 add	 esp, 12			; 0000000cH

; 215  : 		return;

  00cbb	e9 d1 00 00 00	 jmp	 $LN7@recvchaosb
$LN5@recvchaosb:

; 216  : 	}
; 217  : 
; 218  : 	//if(CheckInventoryEmptySpace(lpObj,4,2) == false )
; 219  : 	if(ExCheckInventoryEmptySpace(aIndex) < Count)

  00cc0	8b 45 08	 mov	 eax, DWORD PTR _aIndex$[ebp]
  00cc3	50		 push	 eax
  00cc4	e8 00 00 00 00	 call	 ?ExCheckInventoryEmptySpace@@YAHH@Z ; ExCheckInventoryEmptySpace
  00cc9	83 c4 04	 add	 esp, 4
  00ccc	3b 45 0c	 cmp	 eax, DWORD PTR _Count$[ebp]
  00ccf	7d 25		 jge	 SHORT $LN4@recvchaosb

; 220  : 	{
; 221  : 		MsgNormal(aIndex,g_ExText.GetText(156),Count);

  00cd1	8b 45 0c	 mov	 eax, DWORD PTR _Count$[ebp]
  00cd4	50		 push	 eax
  00cd5	68 9c 00 00 00	 push	 156			; 0000009cH
  00cda	b9 00 00 00 00	 mov	 ecx, OFFSET ?g_ExText@@3VCExText@@A ; g_ExText
  00cdf	e8 00 00 00 00	 call	 ?GetText@CExText@@QAEPADH@Z ; CExText::GetText
  00ce4	50		 push	 eax
  00ce5	8b 4d 08	 mov	 ecx, DWORD PTR _aIndex$[ebp]
  00ce8	51		 push	 ecx
  00ce9	e8 00 00 00 00	 call	 ?MsgNormal@@YAXHPADZZ	; MsgNormal
  00cee	83 c4 0c	 add	 esp, 12			; 0000000cH

; 222  : 		return;

  00cf1	e9 9b 00 00 00	 jmp	 $LN7@recvchaosb
$LN4@recvchaosb:

; 223  : 	}
; 224  : 	lpObj->ChaosBank -= Count;

  00cf6	8b 45 f8	 mov	 eax, DWORD PTR _lpObj$[ebp]
  00cf9	8b 88 e0 27 00
	00		 mov	 ecx, DWORD PTR [eax+10208]
  00cff	2b 4d 0c	 sub	 ecx, DWORD PTR _Count$[ebp]
  00d02	8b 55 f8	 mov	 edx, DWORD PTR _lpObj$[ebp]
  00d05	89 8a e0 27 00
	00		 mov	 DWORD PTR [edx+10208], ecx

; 225  : 	for(int i=0;i<Count;i++)

  00d0b	c7 45 f4 00 00
	00 00		 mov	 DWORD PTR _i$220634[ebp], 0
  00d12	eb 09		 jmp	 SHORT $LN3@recvchaosb
$LN2@recvchaosb:
  00d14	8b 45 f4	 mov	 eax, DWORD PTR _i$220634[ebp]
  00d17	83 c0 01	 add	 eax, 1
  00d1a	89 45 f4	 mov	 DWORD PTR _i$220634[ebp], eax
$LN3@recvchaosb:
  00d1d	8b 45 f4	 mov	 eax, DWORD PTR _i$220634[ebp]
  00d20	3b 45 0c	 cmp	 eax, DWORD PTR _Count$[ebp]
  00d23	7d 40		 jge	 SHORT $LN1@recvchaosb

; 226  : 	{
; 227  : 		ItemSerialCreateSend(aIndex,235,lpObj->X,lpObj->Y,ITEMGET(12,15),0,0,0,0,0,aIndex,0,0);

  00d25	6a 00		 push	 0
  00d27	6a 00		 push	 0
  00d29	8b 45 08	 mov	 eax, DWORD PTR _aIndex$[ebp]
  00d2c	50		 push	 eax
  00d2d	6a 00		 push	 0
  00d2f	6a 00		 push	 0
  00d31	6a 00		 push	 0
  00d33	6a 00		 push	 0
  00d35	6a 00		 push	 0
  00d37	68 0f 18 00 00	 push	 6159			; 0000180fH
  00d3c	8b 4d f8	 mov	 ecx, DWORD PTR _lpObj$[ebp]
  00d3f	0f b6 91 46 01
	00 00		 movzx	 edx, BYTE PTR [ecx+326]
  00d46	52		 push	 edx
  00d47	8b 45 f8	 mov	 eax, DWORD PTR _lpObj$[ebp]
  00d4a	0f b6 88 44 01
	00 00		 movzx	 ecx, BYTE PTR [eax+324]
  00d51	51		 push	 ecx
  00d52	68 eb 00 00 00	 push	 235			; 000000ebH
  00d57	8b 55 08	 mov	 edx, DWORD PTR _aIndex$[ebp]
  00d5a	52		 push	 edx
  00d5b	e8 00 00 00 00	 call	 ?ItemSerialCreateSend@@YAXHEEEHEEEEEHEE@Z ; ItemSerialCreateSend
  00d60	83 c4 34	 add	 esp, 52			; 00000034H

; 228  : 	}

  00d63	eb af		 jmp	 SHORT $LN2@recvchaosb
$LN1@recvchaosb:

; 229  : 	ExUserDataSend(aIndex);

  00d65	8b 45 08	 mov	 eax, DWORD PTR _aIndex$[ebp]
  00d68	50		 push	 eax
  00d69	e8 00 00 00 00	 call	 ?ExUserDataSend@@YAXH@Z	; ExUserDataSend
  00d6e	83 c4 04	 add	 esp, 4

; 230  : 	MsgNormal(aIndex,g_ExText.GetText(157),Count);

  00d71	8b 45 0c	 mov	 eax, DWORD PTR _Count$[ebp]
  00d74	50		 push	 eax
  00d75	68 9d 00 00 00	 push	 157			; 0000009dH
  00d7a	b9 00 00 00 00	 mov	 ecx, OFFSET ?g_ExText@@3VCExText@@A ; g_ExText
  00d7f	e8 00 00 00 00	 call	 ?GetText@CExText@@QAEPADH@Z ; CExText::GetText
  00d84	50		 push	 eax
  00d85	8b 4d 08	 mov	 ecx, DWORD PTR _aIndex$[ebp]
  00d88	51		 push	 ecx
  00d89	e8 00 00 00 00	 call	 ?MsgNormal@@YAXHPADZZ	; MsgNormal
  00d8e	83 c4 0c	 add	 esp, 12			; 0000000cH
$LN7@recvchaosb:

; 231  : }

  00d91	5f		 pop	 edi
  00d92	5e		 pop	 esi
  00d93	5b		 pop	 ebx
  00d94	8b e5		 mov	 esp, ebp
  00d96	5d		 pop	 ebp
  00d97	c2 08 00	 ret	 8
?recvchaosbank@JewelsBank@@QAEXHH@Z ENDP		; JewelsBank::recvchaosbank
_TEXT	ENDS
PUBLIC	?recvblessbank@JewelsBank@@QAEXHH@Z		; JewelsBank::recvblessbank
; Function compile flags: /Odtp /ZI
_TEXT	SEGMENT
_i$220647 = -12						; size = 4
_lpObj$ = -8						; size = 4
_this$ = -4						; size = 4
_aIndex$ = 8						; size = 4
_Count$ = 12						; size = 4
?recvblessbank@JewelsBank@@QAEXHH@Z PROC		; JewelsBank::recvblessbank
; _this$ = ecx

; 234  : {

  00da0	55		 push	 ebp
  00da1	8b ec		 mov	 ebp, esp
  00da3	83 ec 4c	 sub	 esp, 76			; 0000004cH
  00da6	53		 push	 ebx
  00da7	56		 push	 esi
  00da8	57		 push	 edi
  00da9	89 4d fc	 mov	 DWORD PTR _this$[ebp], ecx

; 235  : 	if(!this->Enable) return;

  00dac	8b 45 fc	 mov	 eax, DWORD PTR _this$[ebp]
  00daf	0f b6 08	 movzx	 ecx, BYTE PTR [eax]
  00db2	85 c9		 test	 ecx, ecx
  00db4	75 05		 jne	 SHORT $LN6@recvblessb
  00db6	e9 16 01 00 00	 jmp	 $LN7@recvblessb
$LN6@recvblessb:

; 236  : 	LPOBJ lpObj = &gObj[aIndex];

  00dbb	8b 45 08	 mov	 eax, DWORD PTR _aIndex$[ebp]
  00dbe	69 c0 38 2b 00
	00		 imul	 eax, 11064		; 00002b38H
  00dc4	03 05 00 00 00
	00		 add	 eax, DWORD PTR ?gObj@@3PAUOBJECTSTRUCT@@A ; gObj
  00dca	89 45 f8	 mov	 DWORD PTR _lpObj$[ebp], eax

; 237  : 	if(lpObj->BlessBank < Count)

  00dcd	8b 45 f8	 mov	 eax, DWORD PTR _lpObj$[ebp]
  00dd0	8b 88 e4 27 00
	00		 mov	 ecx, DWORD PTR [eax+10212]
  00dd6	3b 4d 0c	 cmp	 ecx, DWORD PTR _Count$[ebp]
  00dd9	7d 25		 jge	 SHORT $LN5@recvblessb

; 238  : 	{
; 239  : 		MsgNormal(aIndex,g_ExText.GetText(158),Count);

  00ddb	8b 45 0c	 mov	 eax, DWORD PTR _Count$[ebp]
  00dde	50		 push	 eax
  00ddf	68 9e 00 00 00	 push	 158			; 0000009eH
  00de4	b9 00 00 00 00	 mov	 ecx, OFFSET ?g_ExText@@3VCExText@@A ; g_ExText
  00de9	e8 00 00 00 00	 call	 ?GetText@CExText@@QAEPADH@Z ; CExText::GetText
  00dee	50		 push	 eax
  00def	8b 4d 08	 mov	 ecx, DWORD PTR _aIndex$[ebp]
  00df2	51		 push	 ecx
  00df3	e8 00 00 00 00	 call	 ?MsgNormal@@YAXHPADZZ	; MsgNormal
  00df8	83 c4 0c	 add	 esp, 12			; 0000000cH

; 240  : 		return;

  00dfb	e9 d1 00 00 00	 jmp	 $LN7@recvblessb
$LN5@recvblessb:

; 241  : 	}
; 242  : 	if(ExCheckInventoryEmptySpace(aIndex) < Count)

  00e00	8b 45 08	 mov	 eax, DWORD PTR _aIndex$[ebp]
  00e03	50		 push	 eax
  00e04	e8 00 00 00 00	 call	 ?ExCheckInventoryEmptySpace@@YAHH@Z ; ExCheckInventoryEmptySpace
  00e09	83 c4 04	 add	 esp, 4
  00e0c	3b 45 0c	 cmp	 eax, DWORD PTR _Count$[ebp]
  00e0f	7d 25		 jge	 SHORT $LN4@recvblessb

; 243  : 	{
; 244  : 		MsgNormal(aIndex,g_ExText.GetText(156),Count);

  00e11	8b 45 0c	 mov	 eax, DWORD PTR _Count$[ebp]
  00e14	50		 push	 eax
  00e15	68 9c 00 00 00	 push	 156			; 0000009cH
  00e1a	b9 00 00 00 00	 mov	 ecx, OFFSET ?g_ExText@@3VCExText@@A ; g_ExText
  00e1f	e8 00 00 00 00	 call	 ?GetText@CExText@@QAEPADH@Z ; CExText::GetText
  00e24	50		 push	 eax
  00e25	8b 4d 08	 mov	 ecx, DWORD PTR _aIndex$[ebp]
  00e28	51		 push	 ecx
  00e29	e8 00 00 00 00	 call	 ?MsgNormal@@YAXHPADZZ	; MsgNormal
  00e2e	83 c4 0c	 add	 esp, 12			; 0000000cH

; 245  : 		return;

  00e31	e9 9b 00 00 00	 jmp	 $LN7@recvblessb
$LN4@recvblessb:

; 246  : 	}
; 247  : 	lpObj->BlessBank -= Count;

  00e36	8b 45 f8	 mov	 eax, DWORD PTR _lpObj$[ebp]
  00e39	8b 88 e4 27 00
	00		 mov	 ecx, DWORD PTR [eax+10212]
  00e3f	2b 4d 0c	 sub	 ecx, DWORD PTR _Count$[ebp]
  00e42	8b 55 f8	 mov	 edx, DWORD PTR _lpObj$[ebp]
  00e45	89 8a e4 27 00
	00		 mov	 DWORD PTR [edx+10212], ecx

; 248  : 	for(int i=0;i<Count;i++)

  00e4b	c7 45 f4 00 00
	00 00		 mov	 DWORD PTR _i$220647[ebp], 0
  00e52	eb 09		 jmp	 SHORT $LN3@recvblessb
$LN2@recvblessb:
  00e54	8b 45 f4	 mov	 eax, DWORD PTR _i$220647[ebp]
  00e57	83 c0 01	 add	 eax, 1
  00e5a	89 45 f4	 mov	 DWORD PTR _i$220647[ebp], eax
$LN3@recvblessb:
  00e5d	8b 45 f4	 mov	 eax, DWORD PTR _i$220647[ebp]
  00e60	3b 45 0c	 cmp	 eax, DWORD PTR _Count$[ebp]
  00e63	7d 40		 jge	 SHORT $LN1@recvblessb

; 249  : 	{
; 250  : 		ItemSerialCreateSend(aIndex,235,lpObj->X,lpObj->Y,ITEMGET(14,13),0,0,0,0,0,aIndex,0,0);

  00e65	6a 00		 push	 0
  00e67	6a 00		 push	 0
  00e69	8b 45 08	 mov	 eax, DWORD PTR _aIndex$[ebp]
  00e6c	50		 push	 eax
  00e6d	6a 00		 push	 0
  00e6f	6a 00		 push	 0
  00e71	6a 00		 push	 0
  00e73	6a 00		 push	 0
  00e75	6a 00		 push	 0
  00e77	68 0d 1c 00 00	 push	 7181			; 00001c0dH
  00e7c	8b 4d f8	 mov	 ecx, DWORD PTR _lpObj$[ebp]
  00e7f	0f b6 91 46 01
	00 00		 movzx	 edx, BYTE PTR [ecx+326]
  00e86	52		 push	 edx
  00e87	8b 45 f8	 mov	 eax, DWORD PTR _lpObj$[ebp]
  00e8a	0f b6 88 44 01
	00 00		 movzx	 ecx, BYTE PTR [eax+324]
  00e91	51		 push	 ecx
  00e92	68 eb 00 00 00	 push	 235			; 000000ebH
  00e97	8b 55 08	 mov	 edx, DWORD PTR _aIndex$[ebp]
  00e9a	52		 push	 edx
  00e9b	e8 00 00 00 00	 call	 ?ItemSerialCreateSend@@YAXHEEEHEEEEEHEE@Z ; ItemSerialCreateSend
  00ea0	83 c4 34	 add	 esp, 52			; 00000034H

; 251  : 	}

  00ea3	eb af		 jmp	 SHORT $LN2@recvblessb
$LN1@recvblessb:

; 252  : 	ExUserDataSend(aIndex);

  00ea5	8b 45 08	 mov	 eax, DWORD PTR _aIndex$[ebp]
  00ea8	50		 push	 eax
  00ea9	e8 00 00 00 00	 call	 ?ExUserDataSend@@YAXH@Z	; ExUserDataSend
  00eae	83 c4 04	 add	 esp, 4

; 253  : 	MsgNormal(aIndex,g_ExText.GetText(159),Count);

  00eb1	8b 45 0c	 mov	 eax, DWORD PTR _Count$[ebp]
  00eb4	50		 push	 eax
  00eb5	68 9f 00 00 00	 push	 159			; 0000009fH
  00eba	b9 00 00 00 00	 mov	 ecx, OFFSET ?g_ExText@@3VCExText@@A ; g_ExText
  00ebf	e8 00 00 00 00	 call	 ?GetText@CExText@@QAEPADH@Z ; CExText::GetText
  00ec4	50		 push	 eax
  00ec5	8b 4d 08	 mov	 ecx, DWORD PTR _aIndex$[ebp]
  00ec8	51		 push	 ecx
  00ec9	e8 00 00 00 00	 call	 ?MsgNormal@@YAXHPADZZ	; MsgNormal
  00ece	83 c4 0c	 add	 esp, 12			; 0000000cH
$LN7@recvblessb:

; 254  : }

  00ed1	5f		 pop	 edi
  00ed2	5e		 pop	 esi
  00ed3	5b		 pop	 ebx
  00ed4	8b e5		 mov	 esp, ebp
  00ed6	5d		 pop	 ebp
  00ed7	c2 08 00	 ret	 8
?recvblessbank@JewelsBank@@QAEXHH@Z ENDP		; JewelsBank::recvblessbank
_TEXT	ENDS
PUBLIC	?recvsoulbank@JewelsBank@@QAEXHH@Z		; JewelsBank::recvsoulbank
; Function compile flags: /Odtp /ZI
_TEXT	SEGMENT
_i$220660 = -12						; size = 4
_lpObj$ = -8						; size = 4
_this$ = -4						; size = 4
_aIndex$ = 8						; size = 4
_Count$ = 12						; size = 4
?recvsoulbank@JewelsBank@@QAEXHH@Z PROC			; JewelsBank::recvsoulbank
; _this$ = ecx

; 257  : {

  00ee0	55		 push	 ebp
  00ee1	8b ec		 mov	 ebp, esp
  00ee3	83 ec 4c	 sub	 esp, 76			; 0000004cH
  00ee6	53		 push	 ebx
  00ee7	56		 push	 esi
  00ee8	57		 push	 edi
  00ee9	89 4d fc	 mov	 DWORD PTR _this$[ebp], ecx

; 258  : 	if(!this->Enable) return;

  00eec	8b 45 fc	 mov	 eax, DWORD PTR _this$[ebp]
  00eef	0f b6 08	 movzx	 ecx, BYTE PTR [eax]
  00ef2	85 c9		 test	 ecx, ecx
  00ef4	75 05		 jne	 SHORT $LN6@recvsoulba
  00ef6	e9 16 01 00 00	 jmp	 $LN7@recvsoulba
$LN6@recvsoulba:

; 259  : 	LPOBJ lpObj = &gObj[aIndex];

  00efb	8b 45 08	 mov	 eax, DWORD PTR _aIndex$[ebp]
  00efe	69 c0 38 2b 00
	00		 imul	 eax, 11064		; 00002b38H
  00f04	03 05 00 00 00
	00		 add	 eax, DWORD PTR ?gObj@@3PAUOBJECTSTRUCT@@A ; gObj
  00f0a	89 45 f8	 mov	 DWORD PTR _lpObj$[ebp], eax

; 260  : 	if(lpObj->SoulBank < Count)

  00f0d	8b 45 f8	 mov	 eax, DWORD PTR _lpObj$[ebp]
  00f10	8b 88 e8 27 00
	00		 mov	 ecx, DWORD PTR [eax+10216]
  00f16	3b 4d 0c	 cmp	 ecx, DWORD PTR _Count$[ebp]
  00f19	7d 25		 jge	 SHORT $LN5@recvsoulba

; 261  : 	{
; 262  : 		MsgNormal(aIndex,g_ExText.GetText(160),Count);

  00f1b	8b 45 0c	 mov	 eax, DWORD PTR _Count$[ebp]
  00f1e	50		 push	 eax
  00f1f	68 a0 00 00 00	 push	 160			; 000000a0H
  00f24	b9 00 00 00 00	 mov	 ecx, OFFSET ?g_ExText@@3VCExText@@A ; g_ExText
  00f29	e8 00 00 00 00	 call	 ?GetText@CExText@@QAEPADH@Z ; CExText::GetText
  00f2e	50		 push	 eax
  00f2f	8b 4d 08	 mov	 ecx, DWORD PTR _aIndex$[ebp]
  00f32	51		 push	 ecx
  00f33	e8 00 00 00 00	 call	 ?MsgNormal@@YAXHPADZZ	; MsgNormal
  00f38	83 c4 0c	 add	 esp, 12			; 0000000cH

; 263  : 		return;

  00f3b	e9 d1 00 00 00	 jmp	 $LN7@recvsoulba
$LN5@recvsoulba:

; 264  : 	}
; 265  : 	if(ExCheckInventoryEmptySpace(aIndex) < Count)

  00f40	8b 45 08	 mov	 eax, DWORD PTR _aIndex$[ebp]
  00f43	50		 push	 eax
  00f44	e8 00 00 00 00	 call	 ?ExCheckInventoryEmptySpace@@YAHH@Z ; ExCheckInventoryEmptySpace
  00f49	83 c4 04	 add	 esp, 4
  00f4c	3b 45 0c	 cmp	 eax, DWORD PTR _Count$[ebp]
  00f4f	7d 25		 jge	 SHORT $LN4@recvsoulba

; 266  : 	{
; 267  : 		MsgNormal(aIndex,g_ExText.GetText(156),Count);

  00f51	8b 45 0c	 mov	 eax, DWORD PTR _Count$[ebp]
  00f54	50		 push	 eax
  00f55	68 9c 00 00 00	 push	 156			; 0000009cH
  00f5a	b9 00 00 00 00	 mov	 ecx, OFFSET ?g_ExText@@3VCExText@@A ; g_ExText
  00f5f	e8 00 00 00 00	 call	 ?GetText@CExText@@QAEPADH@Z ; CExText::GetText
  00f64	50		 push	 eax
  00f65	8b 4d 08	 mov	 ecx, DWORD PTR _aIndex$[ebp]
  00f68	51		 push	 ecx
  00f69	e8 00 00 00 00	 call	 ?MsgNormal@@YAXHPADZZ	; MsgNormal
  00f6e	83 c4 0c	 add	 esp, 12			; 0000000cH

; 268  : 		return;

  00f71	e9 9b 00 00 00	 jmp	 $LN7@recvsoulba
$LN4@recvsoulba:

; 269  : 	}
; 270  : 	lpObj->SoulBank -= Count;

  00f76	8b 45 f8	 mov	 eax, DWORD PTR _lpObj$[ebp]
  00f79	8b 88 e8 27 00
	00		 mov	 ecx, DWORD PTR [eax+10216]
  00f7f	2b 4d 0c	 sub	 ecx, DWORD PTR _Count$[ebp]
  00f82	8b 55 f8	 mov	 edx, DWORD PTR _lpObj$[ebp]
  00f85	89 8a e8 27 00
	00		 mov	 DWORD PTR [edx+10216], ecx

; 271  : 	for(int i=0;i<Count;i++)

  00f8b	c7 45 f4 00 00
	00 00		 mov	 DWORD PTR _i$220660[ebp], 0
  00f92	eb 09		 jmp	 SHORT $LN3@recvsoulba
$LN2@recvsoulba:
  00f94	8b 45 f4	 mov	 eax, DWORD PTR _i$220660[ebp]
  00f97	83 c0 01	 add	 eax, 1
  00f9a	89 45 f4	 mov	 DWORD PTR _i$220660[ebp], eax
$LN3@recvsoulba:
  00f9d	8b 45 f4	 mov	 eax, DWORD PTR _i$220660[ebp]
  00fa0	3b 45 0c	 cmp	 eax, DWORD PTR _Count$[ebp]
  00fa3	7d 40		 jge	 SHORT $LN1@recvsoulba

; 272  : 	{
; 273  : 		ItemSerialCreateSend(aIndex,235,lpObj->X,lpObj->Y,ITEMGET(14,14),0,0,0,0,0,aIndex,0,0);

  00fa5	6a 00		 push	 0
  00fa7	6a 00		 push	 0
  00fa9	8b 45 08	 mov	 eax, DWORD PTR _aIndex$[ebp]
  00fac	50		 push	 eax
  00fad	6a 00		 push	 0
  00faf	6a 00		 push	 0
  00fb1	6a 00		 push	 0
  00fb3	6a 00		 push	 0
  00fb5	6a 00		 push	 0
  00fb7	68 0e 1c 00 00	 push	 7182			; 00001c0eH
  00fbc	8b 4d f8	 mov	 ecx, DWORD PTR _lpObj$[ebp]
  00fbf	0f b6 91 46 01
	00 00		 movzx	 edx, BYTE PTR [ecx+326]
  00fc6	52		 push	 edx
  00fc7	8b 45 f8	 mov	 eax, DWORD PTR _lpObj$[ebp]
  00fca	0f b6 88 44 01
	00 00		 movzx	 ecx, BYTE PTR [eax+324]
  00fd1	51		 push	 ecx
  00fd2	68 eb 00 00 00	 push	 235			; 000000ebH
  00fd7	8b 55 08	 mov	 edx, DWORD PTR _aIndex$[ebp]
  00fda	52		 push	 edx
  00fdb	e8 00 00 00 00	 call	 ?ItemSerialCreateSend@@YAXHEEEHEEEEEHEE@Z ; ItemSerialCreateSend
  00fe0	83 c4 34	 add	 esp, 52			; 00000034H

; 274  : 	}

  00fe3	eb af		 jmp	 SHORT $LN2@recvsoulba
$LN1@recvsoulba:

; 275  : 	ExUserDataSend(aIndex);

  00fe5	8b 45 08	 mov	 eax, DWORD PTR _aIndex$[ebp]
  00fe8	50		 push	 eax
  00fe9	e8 00 00 00 00	 call	 ?ExUserDataSend@@YAXH@Z	; ExUserDataSend
  00fee	83 c4 04	 add	 esp, 4

; 276  : 	MsgNormal(aIndex,g_ExText.GetText(161),Count);

  00ff1	8b 45 0c	 mov	 eax, DWORD PTR _Count$[ebp]
  00ff4	50		 push	 eax
  00ff5	68 a1 00 00 00	 push	 161			; 000000a1H
  00ffa	b9 00 00 00 00	 mov	 ecx, OFFSET ?g_ExText@@3VCExText@@A ; g_ExText
  00fff	e8 00 00 00 00	 call	 ?GetText@CExText@@QAEPADH@Z ; CExText::GetText
  01004	50		 push	 eax
  01005	8b 4d 08	 mov	 ecx, DWORD PTR _aIndex$[ebp]
  01008	51		 push	 ecx
  01009	e8 00 00 00 00	 call	 ?MsgNormal@@YAXHPADZZ	; MsgNormal
  0100e	83 c4 0c	 add	 esp, 12			; 0000000cH
$LN7@recvsoulba:

; 277  : }

  01011	5f		 pop	 edi
  01012	5e		 pop	 esi
  01013	5b		 pop	 ebx
  01014	8b e5		 mov	 esp, ebp
  01016	5d		 pop	 ebp
  01017	c2 08 00	 ret	 8
?recvsoulbank@JewelsBank@@QAEXHH@Z ENDP			; JewelsBank::recvsoulbank
_TEXT	ENDS
PUBLIC	??_C@_0BJ@LGJHPFFG@?$FLJewelsBank?$FN?5Recv?5?$CFd?5JoR?$AA@ ; `string'
PUBLIC	??_C@_0BH@CJAOJBDF@?$FLJewelsBank?$FN?5No?5?$CFd?5JoR?$AA@ ; `string'
PUBLIC	?recvlifebank@JewelsBank@@QAEXHH@Z		; JewelsBank::recvlifebank
;	COMDAT ??_C@_0BJ@LGJHPFFG@?$FLJewelsBank?$FN?5Recv?5?$CFd?5JoR?$AA@
CONST	SEGMENT
??_C@_0BJ@LGJHPFFG@?$FLJewelsBank?$FN?5Recv?5?$CFd?5JoR?$AA@ DB '[JewelsB'
	DB	'ank] Recv %d JoR', 00H			; `string'
CONST	ENDS
;	COMDAT ??_C@_0BH@CJAOJBDF@?$FLJewelsBank?$FN?5No?5?$CFd?5JoR?$AA@
CONST	SEGMENT
??_C@_0BH@CJAOJBDF@?$FLJewelsBank?$FN?5No?5?$CFd?5JoR?$AA@ DB '[JewelsBan'
	DB	'k] No %d JoR', 00H				; `string'
; Function compile flags: /Odtp /ZI
CONST	ENDS
_TEXT	SEGMENT
_i$220684 = -20						; size = 4
_lpObj$220681 = -16					; size = 4
_i$220675 = -12						; size = 4
_lpObj$220671 = -8					; size = 4
_this$ = -4						; size = 4
_aIndex$ = 8						; size = 4
_Count$ = 12						; size = 4
?recvlifebank@JewelsBank@@QAEXHH@Z PROC			; JewelsBank::recvlifebank
; _this$ = ecx

; 280  : {

  01020	55		 push	 ebp
  01021	8b ec		 mov	 ebp, esp
  01023	83 ec 54	 sub	 esp, 84			; 00000054H
  01026	53		 push	 ebx
  01027	56		 push	 esi
  01028	57		 push	 edi
  01029	89 4d fc	 mov	 DWORD PTR _this$[ebp], ecx

; 281  : 	if(!this->Enable) return;

  0102c	8b 45 fc	 mov	 eax, DWORD PTR _this$[ebp]
  0102f	0f b6 08	 movzx	 ecx, BYTE PTR [eax]
  01032	85 c9		 test	 ecx, ecx
  01034	75 05		 jne	 SHORT $LN13@recvlifeba
  01036	e9 32 02 00 00	 jmp	 $LN14@recvlifeba
$LN13@recvlifeba:

; 282  : 
; 283  : #ifdef PRIVATE_MODULE
; 284  : 	if(g_ExLicense.CheckUser(eExUB::Vadim))

  0103b	6a 09		 push	 9
  0103d	b9 00 00 00 00	 mov	 ecx, OFFSET ?g_ExLicense@@3VCExLicense@@A ; g_ExLicense
  01042	e8 00 00 00 00	 call	 ?CheckUser@CExLicense@@QAE_NH@Z ; CExLicense::CheckUser
  01047	0f b6 c0	 movzx	 eax, al
  0104a	85 c0		 test	 eax, eax
  0104c	0f 84 05 01 00
	00		 je	 $LN12@recvlifeba

; 285  : 	{
; 286  : 		LPOBJ lpObj = &gObj[aIndex];

  01052	8b 45 08	 mov	 eax, DWORD PTR _aIndex$[ebp]
  01055	69 c0 38 2b 00
	00		 imul	 eax, 11064		; 00002b38H
  0105b	03 05 00 00 00
	00		 add	 eax, DWORD PTR ?gObj@@3PAUOBJECTSTRUCT@@A ; gObj
  01061	89 45 f8	 mov	 DWORD PTR _lpObj$220671[ebp], eax

; 287  : 		if(lpObj->LifeBank < Count)

  01064	8b 45 f8	 mov	 eax, DWORD PTR _lpObj$220671[ebp]
  01067	8b 88 ec 27 00
	00		 mov	 ecx, DWORD PTR [eax+10220]
  0106d	3b 4d 0c	 cmp	 ecx, DWORD PTR _Count$[ebp]
  01070	7d 1a		 jge	 SHORT $LN11@recvlifeba

; 288  : 		{
; 289  : 			MsgNormal(aIndex,"[JewelsBank] No %d JoR",Count);

  01072	8b 45 0c	 mov	 eax, DWORD PTR _Count$[ebp]
  01075	50		 push	 eax
  01076	68 00 00 00 00	 push	 OFFSET ??_C@_0BH@CJAOJBDF@?$FLJewelsBank?$FN?5No?5?$CFd?5JoR?$AA@
  0107b	8b 4d 08	 mov	 ecx, DWORD PTR _aIndex$[ebp]
  0107e	51		 push	 ecx
  0107f	e8 00 00 00 00	 call	 ?MsgNormal@@YAXHPADZZ	; MsgNormal
  01084	83 c4 0c	 add	 esp, 12			; 0000000cH

; 290  : 			return;

  01087	e9 e1 01 00 00	 jmp	 $LN14@recvlifeba
$LN11@recvlifeba:

; 291  : 		}
; 292  : 		if(ExCheckInventoryEmptySpace(aIndex) < Count)

  0108c	8b 45 08	 mov	 eax, DWORD PTR _aIndex$[ebp]
  0108f	50		 push	 eax
  01090	e8 00 00 00 00	 call	 ?ExCheckInventoryEmptySpace@@YAHH@Z ; ExCheckInventoryEmptySpace
  01095	83 c4 04	 add	 esp, 4
  01098	3b 45 0c	 cmp	 eax, DWORD PTR _Count$[ebp]
  0109b	7d 25		 jge	 SHORT $LN10@recvlifeba

; 293  : 		{
; 294  : 			MsgNormal(aIndex,g_ExText.GetText(156),Count);

  0109d	8b 45 0c	 mov	 eax, DWORD PTR _Count$[ebp]
  010a0	50		 push	 eax
  010a1	68 9c 00 00 00	 push	 156			; 0000009cH
  010a6	b9 00 00 00 00	 mov	 ecx, OFFSET ?g_ExText@@3VCExText@@A ; g_ExText
  010ab	e8 00 00 00 00	 call	 ?GetText@CExText@@QAEPADH@Z ; CExText::GetText
  010b0	50		 push	 eax
  010b1	8b 4d 08	 mov	 ecx, DWORD PTR _aIndex$[ebp]
  010b4	51		 push	 ecx
  010b5	e8 00 00 00 00	 call	 ?MsgNormal@@YAXHPADZZ	; MsgNormal
  010ba	83 c4 0c	 add	 esp, 12			; 0000000cH

; 295  : 			return;

  010bd	e9 ab 01 00 00	 jmp	 $LN14@recvlifeba
$LN10@recvlifeba:

; 296  : 		}
; 297  : 		lpObj->LifeBank -= Count;

  010c2	8b 45 f8	 mov	 eax, DWORD PTR _lpObj$220671[ebp]
  010c5	8b 88 ec 27 00
	00		 mov	 ecx, DWORD PTR [eax+10220]
  010cb	2b 4d 0c	 sub	 ecx, DWORD PTR _Count$[ebp]
  010ce	8b 55 f8	 mov	 edx, DWORD PTR _lpObj$220671[ebp]
  010d1	89 8a ec 27 00
	00		 mov	 DWORD PTR [edx+10220], ecx

; 298  : 		for(int i=0;i<Count;i++)

  010d7	c7 45 f4 00 00
	00 00		 mov	 DWORD PTR _i$220675[ebp], 0
  010de	eb 09		 jmp	 SHORT $LN9@recvlifeba
$LN8@recvlifeba:
  010e0	8b 45 f4	 mov	 eax, DWORD PTR _i$220675[ebp]
  010e3	83 c0 01	 add	 eax, 1
  010e6	89 45 f4	 mov	 DWORD PTR _i$220675[ebp], eax
$LN9@recvlifeba:
  010e9	8b 45 f4	 mov	 eax, DWORD PTR _i$220675[ebp]
  010ec	3b 45 0c	 cmp	 eax, DWORD PTR _Count$[ebp]
  010ef	7d 40		 jge	 SHORT $LN7@recvlifeba

; 299  : 		{
; 300  : 			ItemSerialCreateSend(aIndex,235,lpObj->X,lpObj->Y,ITEMGET(14,187),0,0,0,0,0,aIndex,0,0);

  010f1	6a 00		 push	 0
  010f3	6a 00		 push	 0
  010f5	8b 45 08	 mov	 eax, DWORD PTR _aIndex$[ebp]
  010f8	50		 push	 eax
  010f9	6a 00		 push	 0
  010fb	6a 00		 push	 0
  010fd	6a 00		 push	 0
  010ff	6a 00		 push	 0
  01101	6a 00		 push	 0
  01103	68 bb 1c 00 00	 push	 7355			; 00001cbbH
  01108	8b 4d f8	 mov	 ecx, DWORD PTR _lpObj$220671[ebp]
  0110b	0f b6 91 46 01
	00 00		 movzx	 edx, BYTE PTR [ecx+326]
  01112	52		 push	 edx
  01113	8b 45 f8	 mov	 eax, DWORD PTR _lpObj$220671[ebp]
  01116	0f b6 88 44 01
	00 00		 movzx	 ecx, BYTE PTR [eax+324]
  0111d	51		 push	 ecx
  0111e	68 eb 00 00 00	 push	 235			; 000000ebH
  01123	8b 55 08	 mov	 edx, DWORD PTR _aIndex$[ebp]
  01126	52		 push	 edx
  01127	e8 00 00 00 00	 call	 ?ItemSerialCreateSend@@YAXHEEEHEEEEEHEE@Z ; ItemSerialCreateSend
  0112c	83 c4 34	 add	 esp, 52			; 00000034H

; 301  : 		}

  0112f	eb af		 jmp	 SHORT $LN8@recvlifeba
$LN7@recvlifeba:

; 302  : 		ExUserDataSend(aIndex);

  01131	8b 45 08	 mov	 eax, DWORD PTR _aIndex$[ebp]
  01134	50		 push	 eax
  01135	e8 00 00 00 00	 call	 ?ExUserDataSend@@YAXH@Z	; ExUserDataSend
  0113a	83 c4 04	 add	 esp, 4

; 303  : 
; 304  : 		MsgNormal(aIndex,"[JewelsBank] Recv %d JoR",Count);

  0113d	8b 45 0c	 mov	 eax, DWORD PTR _Count$[ebp]
  01140	50		 push	 eax
  01141	68 00 00 00 00	 push	 OFFSET ??_C@_0BJ@LGJHPFFG@?$FLJewelsBank?$FN?5Recv?5?$CFd?5JoR?$AA@
  01146	8b 4d 08	 mov	 ecx, DWORD PTR _aIndex$[ebp]
  01149	51		 push	 ecx
  0114a	e8 00 00 00 00	 call	 ?MsgNormal@@YAXHPADZZ	; MsgNormal
  0114f	83 c4 0c	 add	 esp, 12			; 0000000cH

; 305  : 	}
; 306  : 	else

  01152	e9 16 01 00 00	 jmp	 $LN14@recvlifeba
$LN12@recvlifeba:

; 307  : 	{
; 308  : 		LPOBJ lpObj = &gObj[aIndex];

  01157	8b 45 08	 mov	 eax, DWORD PTR _aIndex$[ebp]
  0115a	69 c0 38 2b 00
	00		 imul	 eax, 11064		; 00002b38H
  01160	03 05 00 00 00
	00		 add	 eax, DWORD PTR ?gObj@@3PAUOBJECTSTRUCT@@A ; gObj
  01166	89 45 f0	 mov	 DWORD PTR _lpObj$220681[ebp], eax

; 309  : 		if(lpObj->LifeBank < Count)

  01169	8b 45 f0	 mov	 eax, DWORD PTR _lpObj$220681[ebp]
  0116c	8b 88 ec 27 00
	00		 mov	 ecx, DWORD PTR [eax+10220]
  01172	3b 4d 0c	 cmp	 ecx, DWORD PTR _Count$[ebp]
  01175	7d 25		 jge	 SHORT $LN5@recvlifeba

; 310  : 		{
; 311  : 			MsgNormal(aIndex,g_ExText.GetText(162),Count);

  01177	8b 45 0c	 mov	 eax, DWORD PTR _Count$[ebp]
  0117a	50		 push	 eax
  0117b	68 a2 00 00 00	 push	 162			; 000000a2H
  01180	b9 00 00 00 00	 mov	 ecx, OFFSET ?g_ExText@@3VCExText@@A ; g_ExText
  01185	e8 00 00 00 00	 call	 ?GetText@CExText@@QAEPADH@Z ; CExText::GetText
  0118a	50		 push	 eax
  0118b	8b 4d 08	 mov	 ecx, DWORD PTR _aIndex$[ebp]
  0118e	51		 push	 ecx
  0118f	e8 00 00 00 00	 call	 ?MsgNormal@@YAXHPADZZ	; MsgNormal
  01194	83 c4 0c	 add	 esp, 12			; 0000000cH

; 312  : 			return;

  01197	e9 d1 00 00 00	 jmp	 $LN14@recvlifeba
$LN5@recvlifeba:

; 313  : 		}
; 314  : 		if(ExCheckInventoryEmptySpace(aIndex) < Count)

  0119c	8b 45 08	 mov	 eax, DWORD PTR _aIndex$[ebp]
  0119f	50		 push	 eax
  011a0	e8 00 00 00 00	 call	 ?ExCheckInventoryEmptySpace@@YAHH@Z ; ExCheckInventoryEmptySpace
  011a5	83 c4 04	 add	 esp, 4
  011a8	3b 45 0c	 cmp	 eax, DWORD PTR _Count$[ebp]
  011ab	7d 25		 jge	 SHORT $LN4@recvlifeba

; 315  : 		{
; 316  : 			MsgNormal(aIndex,g_ExText.GetText(156),Count);

  011ad	8b 45 0c	 mov	 eax, DWORD PTR _Count$[ebp]
  011b0	50		 push	 eax
  011b1	68 9c 00 00 00	 push	 156			; 0000009cH
  011b6	b9 00 00 00 00	 mov	 ecx, OFFSET ?g_ExText@@3VCExText@@A ; g_ExText
  011bb	e8 00 00 00 00	 call	 ?GetText@CExText@@QAEPADH@Z ; CExText::GetText
  011c0	50		 push	 eax
  011c1	8b 4d 08	 mov	 ecx, DWORD PTR _aIndex$[ebp]
  011c4	51		 push	 ecx
  011c5	e8 00 00 00 00	 call	 ?MsgNormal@@YAXHPADZZ	; MsgNormal
  011ca	83 c4 0c	 add	 esp, 12			; 0000000cH

; 317  : 			return;

  011cd	e9 9b 00 00 00	 jmp	 $LN14@recvlifeba
$LN4@recvlifeba:

; 318  : 		}
; 319  : 		lpObj->LifeBank -= Count;

  011d2	8b 45 f0	 mov	 eax, DWORD PTR _lpObj$220681[ebp]
  011d5	8b 88 ec 27 00
	00		 mov	 ecx, DWORD PTR [eax+10220]
  011db	2b 4d 0c	 sub	 ecx, DWORD PTR _Count$[ebp]
  011de	8b 55 f0	 mov	 edx, DWORD PTR _lpObj$220681[ebp]
  011e1	89 8a ec 27 00
	00		 mov	 DWORD PTR [edx+10220], ecx

; 320  : 		for(int i=0;i<Count;i++)

  011e7	c7 45 ec 00 00
	00 00		 mov	 DWORD PTR _i$220684[ebp], 0
  011ee	eb 09		 jmp	 SHORT $LN3@recvlifeba
$LN2@recvlifeba:
  011f0	8b 45 ec	 mov	 eax, DWORD PTR _i$220684[ebp]
  011f3	83 c0 01	 add	 eax, 1
  011f6	89 45 ec	 mov	 DWORD PTR _i$220684[ebp], eax
$LN3@recvlifeba:
  011f9	8b 45 ec	 mov	 eax, DWORD PTR _i$220684[ebp]
  011fc	3b 45 0c	 cmp	 eax, DWORD PTR _Count$[ebp]
  011ff	7d 40		 jge	 SHORT $LN1@recvlifeba

; 321  : 		{
; 322  : 			ItemSerialCreateSend(aIndex,235,lpObj->X,lpObj->Y,ITEMGET(14,16),0,0,0,0,0,aIndex,0,0);

  01201	6a 00		 push	 0
  01203	6a 00		 push	 0
  01205	8b 45 08	 mov	 eax, DWORD PTR _aIndex$[ebp]
  01208	50		 push	 eax
  01209	6a 00		 push	 0
  0120b	6a 00		 push	 0
  0120d	6a 00		 push	 0
  0120f	6a 00		 push	 0
  01211	6a 00		 push	 0
  01213	68 10 1c 00 00	 push	 7184			; 00001c10H
  01218	8b 4d f0	 mov	 ecx, DWORD PTR _lpObj$220681[ebp]
  0121b	0f b6 91 46 01
	00 00		 movzx	 edx, BYTE PTR [ecx+326]
  01222	52		 push	 edx
  01223	8b 45 f0	 mov	 eax, DWORD PTR _lpObj$220681[ebp]
  01226	0f b6 88 44 01
	00 00		 movzx	 ecx, BYTE PTR [eax+324]
  0122d	51		 push	 ecx
  0122e	68 eb 00 00 00	 push	 235			; 000000ebH
  01233	8b 55 08	 mov	 edx, DWORD PTR _aIndex$[ebp]
  01236	52		 push	 edx
  01237	e8 00 00 00 00	 call	 ?ItemSerialCreateSend@@YAXHEEEHEEEEEHEE@Z ; ItemSerialCreateSend
  0123c	83 c4 34	 add	 esp, 52			; 00000034H

; 323  : 		}

  0123f	eb af		 jmp	 SHORT $LN2@recvlifeba
$LN1@recvlifeba:

; 324  : 		ExUserDataSend(aIndex);

  01241	8b 45 08	 mov	 eax, DWORD PTR _aIndex$[ebp]
  01244	50		 push	 eax
  01245	e8 00 00 00 00	 call	 ?ExUserDataSend@@YAXH@Z	; ExUserDataSend
  0124a	83 c4 04	 add	 esp, 4

; 325  : 
; 326  : 		MsgNormal(aIndex,g_ExText.GetText(163),Count);

  0124d	8b 45 0c	 mov	 eax, DWORD PTR _Count$[ebp]
  01250	50		 push	 eax
  01251	68 a3 00 00 00	 push	 163			; 000000a3H
  01256	b9 00 00 00 00	 mov	 ecx, OFFSET ?g_ExText@@3VCExText@@A ; g_ExText
  0125b	e8 00 00 00 00	 call	 ?GetText@CExText@@QAEPADH@Z ; CExText::GetText
  01260	50		 push	 eax
  01261	8b 4d 08	 mov	 ecx, DWORD PTR _aIndex$[ebp]
  01264	51		 push	 ecx
  01265	e8 00 00 00 00	 call	 ?MsgNormal@@YAXHPADZZ	; MsgNormal
  0126a	83 c4 0c	 add	 esp, 12			; 0000000cH
$LN14@recvlifeba:

; 327  : 	}
; 328  : #else
; 329  : 	LPOBJ lpObj = &gObj[aIndex];
; 330  : 	if(lpObj->LifeBank < Count)
; 331  : 	{
; 332  : 		MsgNormal(aIndex,"[JewelsBank] No %d Life",Count);
; 333  : 		return;
; 334  : 	}
; 335  : 	if(ExCheckInventoryEmptySpace(aIndex) < Count)
; 336  : 	{
; 337  : 		MsgNormal(aIndex,"[JewelsBank] Inventory %d",Count);
; 338  : 		return;
; 339  : 	}
; 340  : 	lpObj->LifeBank -= Count;
; 341  : 	for(int i=0;i<Count;i++)
; 342  : 	{
; 343  : 		ItemSerialCreateSend(aIndex,235,lpObj->X,lpObj->Y,ITEMGET(14,16),0,0,0,0,0,aIndex,0,0);
; 344  : 	}
; 345  : 	ExUserDataSend(aIndex);
; 346  : 
; 347  : 	MsgNormal(aIndex,"[JewelsBank] Recv %d Life",Count);
; 348  : #endif
; 349  : }

  0126d	5f		 pop	 edi
  0126e	5e		 pop	 esi
  0126f	5b		 pop	 ebx
  01270	8b e5		 mov	 esp, ebp
  01272	5d		 pop	 ebp
  01273	c2 08 00	 ret	 8
?recvlifebank@JewelsBank@@QAEXHH@Z ENDP			; JewelsBank::recvlifebank
_TEXT	ENDS
PUBLIC	??_C@_0BO@BBAGCFDN@?$FLJewelsBank?$FN?5Recv?5?$CFd?5Createon?$AA@ ; `string'
PUBLIC	??_C@_0BK@KJOAAKB@?$FLJewelsBank?$FN?5Inventory?5?$CFd?$AA@ ; `string'
PUBLIC	??_C@_0BM@HPMLFNFO@?$FLJewelsBank?$FN?5No?5?$CFd?5Createon?$AA@ ; `string'
PUBLIC	?recvcreateonbank@JewelsBank@@QAEXHH@Z		; JewelsBank::recvcreateonbank
;	COMDAT ??_C@_0BO@BBAGCFDN@?$FLJewelsBank?$FN?5Recv?5?$CFd?5Createon?$AA@
CONST	SEGMENT
??_C@_0BO@BBAGCFDN@?$FLJewelsBank?$FN?5Recv?5?$CFd?5Createon?$AA@ DB '[Je'
	DB	'welsBank] Recv %d Createon', 00H		; `string'
CONST	ENDS
;	COMDAT ??_C@_0BK@KJOAAKB@?$FLJewelsBank?$FN?5Inventory?5?$CFd?$AA@
CONST	SEGMENT
??_C@_0BK@KJOAAKB@?$FLJewelsBank?$FN?5Inventory?5?$CFd?$AA@ DB '[JewelsBa'
	DB	'nk] Inventory %d', 00H			; `string'
CONST	ENDS
;	COMDAT ??_C@_0BM@HPMLFNFO@?$FLJewelsBank?$FN?5No?5?$CFd?5Createon?$AA@
CONST	SEGMENT
??_C@_0BM@HPMLFNFO@?$FLJewelsBank?$FN?5No?5?$CFd?5Createon?$AA@ DB '[Jewe'
	DB	'lsBank] No %d Createon', 00H		; `string'
; Function compile flags: /Odtp /ZI
CONST	ENDS
_TEXT	SEGMENT
_i$220699 = -12						; size = 4
_lpObj$ = -8						; size = 4
_this$ = -4						; size = 4
_aIndex$ = 8						; size = 4
_Count$ = 12						; size = 4
?recvcreateonbank@JewelsBank@@QAEXHH@Z PROC		; JewelsBank::recvcreateonbank
; _this$ = ecx

; 352  : {

  01280	55		 push	 ebp
  01281	8b ec		 mov	 ebp, esp
  01283	83 ec 4c	 sub	 esp, 76			; 0000004cH
  01286	53		 push	 ebx
  01287	56		 push	 esi
  01288	57		 push	 edi
  01289	89 4d fc	 mov	 DWORD PTR _this$[ebp], ecx

; 353  : 	if(!this->Enable) return;

  0128c	8b 45 fc	 mov	 eax, DWORD PTR _this$[ebp]
  0128f	0f b6 08	 movzx	 ecx, BYTE PTR [eax]
  01292	85 c9		 test	 ecx, ecx
  01294	75 05		 jne	 SHORT $LN6@recvcreate
  01296	e9 f5 00 00 00	 jmp	 $LN7@recvcreate
$LN6@recvcreate:

; 354  : 
; 355  : 	LPOBJ lpObj = &gObj[aIndex];

  0129b	8b 45 08	 mov	 eax, DWORD PTR _aIndex$[ebp]
  0129e	69 c0 38 2b 00
	00		 imul	 eax, 11064		; 00002b38H
  012a4	03 05 00 00 00
	00		 add	 eax, DWORD PTR ?gObj@@3PAUOBJECTSTRUCT@@A ; gObj
  012aa	89 45 f8	 mov	 DWORD PTR _lpObj$[ebp], eax

; 356  : 	if(lpObj->CreateonBank < Count)

  012ad	8b 45 f8	 mov	 eax, DWORD PTR _lpObj$[ebp]
  012b0	8b 88 f0 27 00
	00		 mov	 ecx, DWORD PTR [eax+10224]
  012b6	3b 4d 0c	 cmp	 ecx, DWORD PTR _Count$[ebp]
  012b9	7d 1a		 jge	 SHORT $LN5@recvcreate

; 357  : 	{
; 358  : 		MsgNormal(aIndex,"[JewelsBank] No %d Createon",Count);

  012bb	8b 45 0c	 mov	 eax, DWORD PTR _Count$[ebp]
  012be	50		 push	 eax
  012bf	68 00 00 00 00	 push	 OFFSET ??_C@_0BM@HPMLFNFO@?$FLJewelsBank?$FN?5No?5?$CFd?5Createon?$AA@
  012c4	8b 4d 08	 mov	 ecx, DWORD PTR _aIndex$[ebp]
  012c7	51		 push	 ecx
  012c8	e8 00 00 00 00	 call	 ?MsgNormal@@YAXHPADZZ	; MsgNormal
  012cd	83 c4 0c	 add	 esp, 12			; 0000000cH

; 359  : 		return;

  012d0	e9 bb 00 00 00	 jmp	 $LN7@recvcreate
$LN5@recvcreate:

; 360  : 	}
; 361  : 	if(ExCheckInventoryEmptySpace(aIndex) < Count)

  012d5	8b 45 08	 mov	 eax, DWORD PTR _aIndex$[ebp]
  012d8	50		 push	 eax
  012d9	e8 00 00 00 00	 call	 ?ExCheckInventoryEmptySpace@@YAHH@Z ; ExCheckInventoryEmptySpace
  012de	83 c4 04	 add	 esp, 4
  012e1	3b 45 0c	 cmp	 eax, DWORD PTR _Count$[ebp]
  012e4	7d 1a		 jge	 SHORT $LN4@recvcreate

; 362  : 	{
; 363  : 		MsgNormal(aIndex,"[JewelsBank] Inventory %d",Count);

  012e6	8b 45 0c	 mov	 eax, DWORD PTR _Count$[ebp]
  012e9	50		 push	 eax
  012ea	68 00 00 00 00	 push	 OFFSET ??_C@_0BK@KJOAAKB@?$FLJewelsBank?$FN?5Inventory?5?$CFd?$AA@
  012ef	8b 4d 08	 mov	 ecx, DWORD PTR _aIndex$[ebp]
  012f2	51		 push	 ecx
  012f3	e8 00 00 00 00	 call	 ?MsgNormal@@YAXHPADZZ	; MsgNormal
  012f8	83 c4 0c	 add	 esp, 12			; 0000000cH

; 364  : 		return;

  012fb	e9 90 00 00 00	 jmp	 $LN7@recvcreate
$LN4@recvcreate:

; 365  : 	}
; 366  : 	lpObj->CreateonBank -= Count;

  01300	8b 45 f8	 mov	 eax, DWORD PTR _lpObj$[ebp]
  01303	8b 88 f0 27 00
	00		 mov	 ecx, DWORD PTR [eax+10224]
  01309	2b 4d 0c	 sub	 ecx, DWORD PTR _Count$[ebp]
  0130c	8b 55 f8	 mov	 edx, DWORD PTR _lpObj$[ebp]
  0130f	89 8a f0 27 00
	00		 mov	 DWORD PTR [edx+10224], ecx

; 367  : 	for(int i=0;i<Count;i++)

  01315	c7 45 f4 00 00
	00 00		 mov	 DWORD PTR _i$220699[ebp], 0
  0131c	eb 09		 jmp	 SHORT $LN3@recvcreate
$LN2@recvcreate:
  0131e	8b 45 f4	 mov	 eax, DWORD PTR _i$220699[ebp]
  01321	83 c0 01	 add	 eax, 1
  01324	89 45 f4	 mov	 DWORD PTR _i$220699[ebp], eax
$LN3@recvcreate:
  01327	8b 45 f4	 mov	 eax, DWORD PTR _i$220699[ebp]
  0132a	3b 45 0c	 cmp	 eax, DWORD PTR _Count$[ebp]
  0132d	7d 40		 jge	 SHORT $LN1@recvcreate

; 368  : 	{
; 369  : 		ItemSerialCreateSend(aIndex,235,lpObj->X,lpObj->Y,ITEMGET(14,22),0,0,0,0,0,aIndex,0,0);

  0132f	6a 00		 push	 0
  01331	6a 00		 push	 0
  01333	8b 45 08	 mov	 eax, DWORD PTR _aIndex$[ebp]
  01336	50		 push	 eax
  01337	6a 00		 push	 0
  01339	6a 00		 push	 0
  0133b	6a 00		 push	 0
  0133d	6a 00		 push	 0
  0133f	6a 00		 push	 0
  01341	68 16 1c 00 00	 push	 7190			; 00001c16H
  01346	8b 4d f8	 mov	 ecx, DWORD PTR _lpObj$[ebp]
  01349	0f b6 91 46 01
	00 00		 movzx	 edx, BYTE PTR [ecx+326]
  01350	52		 push	 edx
  01351	8b 45 f8	 mov	 eax, DWORD PTR _lpObj$[ebp]
  01354	0f b6 88 44 01
	00 00		 movzx	 ecx, BYTE PTR [eax+324]
  0135b	51		 push	 ecx
  0135c	68 eb 00 00 00	 push	 235			; 000000ebH
  01361	8b 55 08	 mov	 edx, DWORD PTR _aIndex$[ebp]
  01364	52		 push	 edx
  01365	e8 00 00 00 00	 call	 ?ItemSerialCreateSend@@YAXHEEEHEEEEEHEE@Z ; ItemSerialCreateSend
  0136a	83 c4 34	 add	 esp, 52			; 00000034H

; 370  : 	}

  0136d	eb af		 jmp	 SHORT $LN2@recvcreate
$LN1@recvcreate:

; 371  : 	ExUserDataSend(aIndex);

  0136f	8b 45 08	 mov	 eax, DWORD PTR _aIndex$[ebp]
  01372	50		 push	 eax
  01373	e8 00 00 00 00	 call	 ?ExUserDataSend@@YAXH@Z	; ExUserDataSend
  01378	83 c4 04	 add	 esp, 4

; 372  : 
; 373  : 	MsgNormal(aIndex,"[JewelsBank] Recv %d Createon",Count);

  0137b	8b 45 0c	 mov	 eax, DWORD PTR _Count$[ebp]
  0137e	50		 push	 eax
  0137f	68 00 00 00 00	 push	 OFFSET ??_C@_0BO@BBAGCFDN@?$FLJewelsBank?$FN?5Recv?5?$CFd?5Createon?$AA@
  01384	8b 4d 08	 mov	 ecx, DWORD PTR _aIndex$[ebp]
  01387	51		 push	 ecx
  01388	e8 00 00 00 00	 call	 ?MsgNormal@@YAXHPADZZ	; MsgNormal
  0138d	83 c4 0c	 add	 esp, 12			; 0000000cH
$LN7@recvcreate:

; 374  : 
; 375  : }

  01390	5f		 pop	 edi
  01391	5e		 pop	 esi
  01392	5b		 pop	 ebx
  01393	8b e5		 mov	 esp, ebp
  01395	5d		 pop	 ebp
  01396	c2 08 00	 ret	 8
?recvcreateonbank@JewelsBank@@QAEXHH@Z ENDP		; JewelsBank::recvcreateonbank
_TEXT	ENDS
PUBLIC	??_C@_0DJ@EBIONFKC@?$FLJewelsBank?$FN?5Exchange?5?$CFd?5Jewel?5o@ ; `string'
PUBLIC	??_C@_0CO@ECEIAILJ@?$FLJewelsBank?$FN?5Exchange?5Only?510?520@ ; `string'
PUBLIC	??_C@_0BJ@BFBBDENF@?$FLJewelsBank?$FN?5No?5?$CFd?5Chaos?$AA@ ; `string'
PUBLIC	?exchaos@JewelsBank@@QAEXHH@Z			; JewelsBank::exchaos
EXTRN	__fltused:DWORD
;	COMDAT ??_C@_0DJ@EBIONFKC@?$FLJewelsBank?$FN?5Exchange?5?$CFd?5Jewel?5o@
CONST	SEGMENT
??_C@_0DJ@EBIONFKC@?$FLJewelsBank?$FN?5Exchange?5?$CFd?5Jewel?5o@ DB '[Je'
	DB	'welsBank] Exchange %d Jewel of Chaos Added %d Credits', 00H ; `string'
CONST	ENDS
;	COMDAT ??_C@_0CO@ECEIAILJ@?$FLJewelsBank?$FN?5Exchange?5Only?510?520@
CONST	SEGMENT
??_C@_0CO@ECEIAILJ@?$FLJewelsBank?$FN?5Exchange?5Only?510?520@ DB '[Jewel'
	DB	'sBank] Exchange Only 10 20 30 40 50 100', 00H ; `string'
CONST	ENDS
;	COMDAT ??_C@_0BJ@BFBBDENF@?$FLJewelsBank?$FN?5No?5?$CFd?5Chaos?$AA@
CONST	SEGMENT
??_C@_0BJ@BFBBDENF@?$FLJewelsBank?$FN?5No?5?$CFd?5Chaos?$AA@ DB '[JewelsB'
	DB	'ank] No %d Chaos', 00H			; `string'
; Function compile flags: /Odtp /ZI
CONST	ENDS
_TEXT	SEGMENT
_lpObj$220712 = -8					; size = 4
_this$ = -4						; size = 4
_aIndex$ = 8						; size = 4
_Count$ = 12						; size = 4
?exchaos@JewelsBank@@QAEXHH@Z PROC			; JewelsBank::exchaos
; _this$ = ecx

; 380  : {

  013a0	55		 push	 ebp
  013a1	8b ec		 mov	 ebp, esp
  013a3	83 ec 48	 sub	 esp, 72			; 00000048H
  013a6	53		 push	 ebx
  013a7	56		 push	 esi
  013a8	57		 push	 edi
  013a9	89 4d fc	 mov	 DWORD PTR _this$[ebp], ecx

; 381  : 	if(g_ExLicense.CheckUser(eExUB::Local3) || g_ExLicense.CheckUser(SILVER1) || g_ExLicense.CheckUser(SILVER2) || g_ExLicense.CheckUser(eExUB::drynea))

  013ac	6a 1c		 push	 28			; 0000001cH
  013ae	b9 00 00 00 00	 mov	 ecx, OFFSET ?g_ExLicense@@3VCExLicense@@A ; g_ExLicense
  013b3	e8 00 00 00 00	 call	 ?CheckUser@CExLicense@@QAE_NH@Z ; CExLicense::CheckUser
  013b8	0f b6 c0	 movzx	 eax, al
  013bb	85 c0		 test	 eax, eax
  013bd	75 3d		 jne	 SHORT $LN15@exchaos
  013bf	6a 07		 push	 7
  013c1	b9 00 00 00 00	 mov	 ecx, OFFSET ?g_ExLicense@@3VCExLicense@@A ; g_ExLicense
  013c6	e8 00 00 00 00	 call	 ?CheckUser@CExLicense@@QAE_NH@Z ; CExLicense::CheckUser
  013cb	0f b6 c0	 movzx	 eax, al
  013ce	85 c0		 test	 eax, eax
  013d0	75 2a		 jne	 SHORT $LN15@exchaos
  013d2	6a 08		 push	 8
  013d4	b9 00 00 00 00	 mov	 ecx, OFFSET ?g_ExLicense@@3VCExLicense@@A ; g_ExLicense
  013d9	e8 00 00 00 00	 call	 ?CheckUser@CExLicense@@QAE_NH@Z ; CExLicense::CheckUser
  013de	0f b6 c0	 movzx	 eax, al
  013e1	85 c0		 test	 eax, eax
  013e3	75 17		 jne	 SHORT $LN15@exchaos
  013e5	6a 01		 push	 1
  013e7	b9 00 00 00 00	 mov	 ecx, OFFSET ?g_ExLicense@@3VCExLicense@@A ; g_ExLicense
  013ec	e8 00 00 00 00	 call	 ?CheckUser@CExLicense@@QAE_NH@Z ; CExLicense::CheckUser
  013f1	0f b6 c0	 movzx	 eax, al
  013f4	85 c0		 test	 eax, eax
  013f6	0f 84 2b 02 00
	00		 je	 $LN16@exchaos
$LN15@exchaos:

; 382  : 	{
; 383  : 		if(!this->Enable) return;

  013fc	8b 45 fc	 mov	 eax, DWORD PTR _this$[ebp]
  013ff	0f b6 08	 movzx	 ecx, BYTE PTR [eax]
  01402	85 c9		 test	 ecx, ecx
  01404	75 05		 jne	 SHORT $LN14@exchaos
  01406	e9 1c 02 00 00	 jmp	 $LN17@exchaos
$LN14@exchaos:

; 384  : 		LPOBJ lpObj = &gObj[aIndex];

  0140b	8b 45 08	 mov	 eax, DWORD PTR _aIndex$[ebp]
  0140e	69 c0 38 2b 00
	00		 imul	 eax, 11064		; 00002b38H
  01414	03 05 00 00 00
	00		 add	 eax, DWORD PTR ?gObj@@3PAUOBJECTSTRUCT@@A ; gObj
  0141a	89 45 f8	 mov	 DWORD PTR _lpObj$220712[ebp], eax

; 385  : 		if(lpObj->ChaosBank < Count)

  0141d	8b 45 f8	 mov	 eax, DWORD PTR _lpObj$220712[ebp]
  01420	8b 88 e0 27 00
	00		 mov	 ecx, DWORD PTR [eax+10208]
  01426	3b 4d 0c	 cmp	 ecx, DWORD PTR _Count$[ebp]
  01429	7d 1a		 jge	 SHORT $LN13@exchaos

; 386  : 		{
; 387  : 			MsgNormal(aIndex,"[JewelsBank] No %d Chaos",Count);

  0142b	8b 45 0c	 mov	 eax, DWORD PTR _Count$[ebp]
  0142e	50		 push	 eax
  0142f	68 00 00 00 00	 push	 OFFSET ??_C@_0BJ@BFBBDENF@?$FLJewelsBank?$FN?5No?5?$CFd?5Chaos?$AA@
  01434	8b 4d 08	 mov	 ecx, DWORD PTR _aIndex$[ebp]
  01437	51		 push	 ecx
  01438	e8 00 00 00 00	 call	 ?MsgNormal@@YAXHPADZZ	; MsgNormal
  0143d	83 c4 0c	 add	 esp, 12			; 0000000cH

; 388  : 			return;

  01440	e9 e2 01 00 00	 jmp	 $LN17@exchaos
$LN13@exchaos:

; 389  : 		}
; 390  : 
; 391  : 		if (Count == 10)

  01445	83 7d 0c 0a	 cmp	 DWORD PTR _Count$[ebp], 10 ; 0000000aH
  01449	75 41		 jne	 SHORT $LN12@exchaos

; 392  : 		{
; 393  : 			lpObj->ChaosBank -= Count;

  0144b	8b 45 f8	 mov	 eax, DWORD PTR _lpObj$220712[ebp]
  0144e	8b 88 e0 27 00
	00		 mov	 ecx, DWORD PTR [eax+10208]
  01454	2b 4d 0c	 sub	 ecx, DWORD PTR _Count$[ebp]
  01457	8b 55 f8	 mov	 edx, DWORD PTR _lpObj$220712[ebp]
  0145a	89 8a e0 27 00
	00		 mov	 DWORD PTR [edx+10208], ecx

; 394  : 			lpObj->ExCred += ExChaosTeen;

  01460	8b 45 fc	 mov	 eax, DWORD PTR _this$[ebp]
  01463	db 40 04	 fild	 DWORD PTR [eax+4]
  01466	8b 4d f8	 mov	 ecx, DWORD PTR _lpObj$220712[ebp]
  01469	d8 81 a8 22 00
	00		 fadd	 DWORD PTR [ecx+8872]
  0146f	8b 55 f8	 mov	 edx, DWORD PTR _lpObj$220712[ebp]
  01472	d9 9a a8 22 00
	00		 fstp	 DWORD PTR [edx+8872]

; 395  : 			CountExChaos = ExChaosTeen;

  01478	8b 45 fc	 mov	 eax, DWORD PTR _this$[ebp]
  0147b	8b 4d fc	 mov	 ecx, DWORD PTR _this$[ebp]
  0147e	8b 51 04	 mov	 edx, DWORD PTR [ecx+4]
  01481	89 90 f8 00 00
	00		 mov	 DWORD PTR [eax+248], edx
  01487	e9 70 01 00 00	 jmp	 $LN1@exchaos
$LN12@exchaos:

; 396  : 		}
; 397  : 		else if (Count == 20)

  0148c	83 7d 0c 14	 cmp	 DWORD PTR _Count$[ebp], 20 ; 00000014H
  01490	75 41		 jne	 SHORT $LN10@exchaos

; 398  : 		{
; 399  : 			lpObj->ChaosBank -= Count;

  01492	8b 45 f8	 mov	 eax, DWORD PTR _lpObj$220712[ebp]
  01495	8b 88 e0 27 00
	00		 mov	 ecx, DWORD PTR [eax+10208]
  0149b	2b 4d 0c	 sub	 ecx, DWORD PTR _Count$[ebp]
  0149e	8b 55 f8	 mov	 edx, DWORD PTR _lpObj$220712[ebp]
  014a1	89 8a e0 27 00
	00		 mov	 DWORD PTR [edx+10208], ecx

; 400  : 			lpObj->ExCred += ExChaosTwenty;

  014a7	8b 45 fc	 mov	 eax, DWORD PTR _this$[ebp]
  014aa	db 40 08	 fild	 DWORD PTR [eax+8]
  014ad	8b 4d f8	 mov	 ecx, DWORD PTR _lpObj$220712[ebp]
  014b0	d8 81 a8 22 00
	00		 fadd	 DWORD PTR [ecx+8872]
  014b6	8b 55 f8	 mov	 edx, DWORD PTR _lpObj$220712[ebp]
  014b9	d9 9a a8 22 00
	00		 fstp	 DWORD PTR [edx+8872]

; 401  : 			CountExChaos = ExChaosTwenty;

  014bf	8b 45 fc	 mov	 eax, DWORD PTR _this$[ebp]
  014c2	8b 4d fc	 mov	 ecx, DWORD PTR _this$[ebp]
  014c5	8b 51 08	 mov	 edx, DWORD PTR [ecx+8]
  014c8	89 90 f8 00 00
	00		 mov	 DWORD PTR [eax+248], edx
  014ce	e9 29 01 00 00	 jmp	 $LN1@exchaos
$LN10@exchaos:

; 402  : 		}
; 403  : 		else if (Count == 30)

  014d3	83 7d 0c 1e	 cmp	 DWORD PTR _Count$[ebp], 30 ; 0000001eH
  014d7	75 41		 jne	 SHORT $LN8@exchaos

; 404  : 		{
; 405  : 			lpObj->ChaosBank -= Count;

  014d9	8b 45 f8	 mov	 eax, DWORD PTR _lpObj$220712[ebp]
  014dc	8b 88 e0 27 00
	00		 mov	 ecx, DWORD PTR [eax+10208]
  014e2	2b 4d 0c	 sub	 ecx, DWORD PTR _Count$[ebp]
  014e5	8b 55 f8	 mov	 edx, DWORD PTR _lpObj$220712[ebp]
  014e8	89 8a e0 27 00
	00		 mov	 DWORD PTR [edx+10208], ecx

; 406  : 			lpObj->ExCred += ExChaosThirty;

  014ee	8b 45 fc	 mov	 eax, DWORD PTR _this$[ebp]
  014f1	db 40 0c	 fild	 DWORD PTR [eax+12]
  014f4	8b 4d f8	 mov	 ecx, DWORD PTR _lpObj$220712[ebp]
  014f7	d8 81 a8 22 00
	00		 fadd	 DWORD PTR [ecx+8872]
  014fd	8b 55 f8	 mov	 edx, DWORD PTR _lpObj$220712[ebp]
  01500	d9 9a a8 22 00
	00		 fstp	 DWORD PTR [edx+8872]

; 407  : 			CountExChaos = ExChaosThirty;

  01506	8b 45 fc	 mov	 eax, DWORD PTR _this$[ebp]
  01509	8b 4d fc	 mov	 ecx, DWORD PTR _this$[ebp]
  0150c	8b 51 0c	 mov	 edx, DWORD PTR [ecx+12]
  0150f	89 90 f8 00 00
	00		 mov	 DWORD PTR [eax+248], edx
  01515	e9 e2 00 00 00	 jmp	 $LN1@exchaos
$LN8@exchaos:

; 408  : 		}
; 409  : 		else if (Count == 40)

  0151a	83 7d 0c 28	 cmp	 DWORD PTR _Count$[ebp], 40 ; 00000028H
  0151e	75 41		 jne	 SHORT $LN6@exchaos

; 410  : 		{
; 411  : 			lpObj->ChaosBank -= Count;

  01520	8b 45 f8	 mov	 eax, DWORD PTR _lpObj$220712[ebp]
  01523	8b 88 e0 27 00
	00		 mov	 ecx, DWORD PTR [eax+10208]
  01529	2b 4d 0c	 sub	 ecx, DWORD PTR _Count$[ebp]
  0152c	8b 55 f8	 mov	 edx, DWORD PTR _lpObj$220712[ebp]
  0152f	89 8a e0 27 00
	00		 mov	 DWORD PTR [edx+10208], ecx

; 412  : 			lpObj->ExCred += ExChaosForty;

  01535	8b 45 fc	 mov	 eax, DWORD PTR _this$[ebp]
  01538	db 40 10	 fild	 DWORD PTR [eax+16]
  0153b	8b 4d f8	 mov	 ecx, DWORD PTR _lpObj$220712[ebp]
  0153e	d8 81 a8 22 00
	00		 fadd	 DWORD PTR [ecx+8872]
  01544	8b 55 f8	 mov	 edx, DWORD PTR _lpObj$220712[ebp]
  01547	d9 9a a8 22 00
	00		 fstp	 DWORD PTR [edx+8872]

; 413  : 			CountExChaos = ExChaosForty;

  0154d	8b 45 fc	 mov	 eax, DWORD PTR _this$[ebp]
  01550	8b 4d fc	 mov	 ecx, DWORD PTR _this$[ebp]
  01553	8b 51 10	 mov	 edx, DWORD PTR [ecx+16]
  01556	89 90 f8 00 00
	00		 mov	 DWORD PTR [eax+248], edx
  0155c	e9 9b 00 00 00	 jmp	 $LN1@exchaos
$LN6@exchaos:

; 414  : 		}
; 415  : 		else if (Count == 50)

  01561	83 7d 0c 32	 cmp	 DWORD PTR _Count$[ebp], 50 ; 00000032H
  01565	75 3e		 jne	 SHORT $LN4@exchaos

; 416  : 		{
; 417  : 			lpObj->ChaosBank -= Count;

  01567	8b 45 f8	 mov	 eax, DWORD PTR _lpObj$220712[ebp]
  0156a	8b 88 e0 27 00
	00		 mov	 ecx, DWORD PTR [eax+10208]
  01570	2b 4d 0c	 sub	 ecx, DWORD PTR _Count$[ebp]
  01573	8b 55 f8	 mov	 edx, DWORD PTR _lpObj$220712[ebp]
  01576	89 8a e0 27 00
	00		 mov	 DWORD PTR [edx+10208], ecx

; 418  : 			lpObj->ExCred += ExChaosFifty;

  0157c	8b 45 fc	 mov	 eax, DWORD PTR _this$[ebp]
  0157f	db 40 14	 fild	 DWORD PTR [eax+20]
  01582	8b 4d f8	 mov	 ecx, DWORD PTR _lpObj$220712[ebp]
  01585	d8 81 a8 22 00
	00		 fadd	 DWORD PTR [ecx+8872]
  0158b	8b 55 f8	 mov	 edx, DWORD PTR _lpObj$220712[ebp]
  0158e	d9 9a a8 22 00
	00		 fstp	 DWORD PTR [edx+8872]

; 419  : 			CountExChaos = ExChaosFifty;

  01594	8b 45 fc	 mov	 eax, DWORD PTR _this$[ebp]
  01597	8b 4d fc	 mov	 ecx, DWORD PTR _this$[ebp]
  0159a	8b 51 14	 mov	 edx, DWORD PTR [ecx+20]
  0159d	89 90 f8 00 00
	00		 mov	 DWORD PTR [eax+248], edx
  015a3	eb 57		 jmp	 SHORT $LN1@exchaos
$LN4@exchaos:

; 420  : 		}
; 421  : 		else if (Count == 100)

  015a5	83 7d 0c 64	 cmp	 DWORD PTR _Count$[ebp], 100 ; 00000064H
  015a9	75 3e		 jne	 SHORT $LN2@exchaos

; 422  : 		{
; 423  : 			lpObj->ChaosBank -= Count;

  015ab	8b 45 f8	 mov	 eax, DWORD PTR _lpObj$220712[ebp]
  015ae	8b 88 e0 27 00
	00		 mov	 ecx, DWORD PTR [eax+10208]
  015b4	2b 4d 0c	 sub	 ecx, DWORD PTR _Count$[ebp]
  015b7	8b 55 f8	 mov	 edx, DWORD PTR _lpObj$220712[ebp]
  015ba	89 8a e0 27 00
	00		 mov	 DWORD PTR [edx+10208], ecx

; 424  : 			lpObj->ExCred += ExChaosHundred;

  015c0	8b 45 fc	 mov	 eax, DWORD PTR _this$[ebp]
  015c3	db 40 18	 fild	 DWORD PTR [eax+24]
  015c6	8b 4d f8	 mov	 ecx, DWORD PTR _lpObj$220712[ebp]
  015c9	d8 81 a8 22 00
	00		 fadd	 DWORD PTR [ecx+8872]
  015cf	8b 55 f8	 mov	 edx, DWORD PTR _lpObj$220712[ebp]
  015d2	d9 9a a8 22 00
	00		 fstp	 DWORD PTR [edx+8872]

; 425  : 			CountExChaos = ExChaosHundred;

  015d8	8b 45 fc	 mov	 eax, DWORD PTR _this$[ebp]
  015db	8b 4d fc	 mov	 ecx, DWORD PTR _this$[ebp]
  015de	8b 51 18	 mov	 edx, DWORD PTR [ecx+24]
  015e1	89 90 f8 00 00
	00		 mov	 DWORD PTR [eax+248], edx

; 426  : 		}
; 427  : 		else

  015e7	eb 13		 jmp	 SHORT $LN1@exchaos
$LN2@exchaos:

; 428  : 		{
; 429  : 			MsgNormal(aIndex,"[JewelsBank] Exchange Only 10 20 30 40 50 100");

  015e9	68 00 00 00 00	 push	 OFFSET ??_C@_0CO@ECEIAILJ@?$FLJewelsBank?$FN?5Exchange?5Only?510?520@
  015ee	8b 45 08	 mov	 eax, DWORD PTR _aIndex$[ebp]
  015f1	50		 push	 eax
  015f2	e8 00 00 00 00	 call	 ?MsgNormal@@YAXHPADZZ	; MsgNormal
  015f7	83 c4 08	 add	 esp, 8

; 430  : 			return;

  015fa	eb 2b		 jmp	 SHORT $LN17@exchaos
$LN1@exchaos:

; 431  : 		}
; 432  : 		
; 433  : 		/*int ExChaosForty;
; 434  : 	int ExChaosFifty;
; 435  : 	int ExChaosHundred;*/
; 436  : 
; 437  : 		ExUserDataSend(aIndex);

  015fc	8b 45 08	 mov	 eax, DWORD PTR _aIndex$[ebp]
  015ff	50		 push	 eax
  01600	e8 00 00 00 00	 call	 ?ExUserDataSend@@YAXH@Z	; ExUserDataSend
  01605	83 c4 04	 add	 esp, 4

; 438  : 		MsgNormal(aIndex,"[JewelsBank] Exchange %d Jewel of Chaos Added %d Credits" ,Count, CountExChaos);

  01608	8b 45 fc	 mov	 eax, DWORD PTR _this$[ebp]
  0160b	8b 88 f8 00 00
	00		 mov	 ecx, DWORD PTR [eax+248]
  01611	51		 push	 ecx
  01612	8b 55 0c	 mov	 edx, DWORD PTR _Count$[ebp]
  01615	52		 push	 edx
  01616	68 00 00 00 00	 push	 OFFSET ??_C@_0DJ@EBIONFKC@?$FLJewelsBank?$FN?5Exchange?5?$CFd?5Jewel?5o@
  0161b	8b 45 08	 mov	 eax, DWORD PTR _aIndex$[ebp]
  0161e	50		 push	 eax
  0161f	e8 00 00 00 00	 call	 ?MsgNormal@@YAXHPADZZ	; MsgNormal
  01624	83 c4 10	 add	 esp, 16			; 00000010H
$LN16@exchaos:
$LN17@exchaos:

; 439  : 	}
; 440  : }

  01627	5f		 pop	 edi
  01628	5e		 pop	 esi
  01629	5b		 pop	 ebx
  0162a	8b e5		 mov	 esp, ebp
  0162c	5d		 pop	 ebp
  0162d	c2 08 00	 ret	 8
?exchaos@JewelsBank@@QAEXHH@Z ENDP			; JewelsBank::exchaos
_TEXT	ENDS
PUBLIC	??_C@_0DJ@KHFFDOAD@?$FLJewelsBank?$FN?5Exchange?5?$CFd?5Jewel?5o@ ; `string'
PUBLIC	??_C@_0BJ@LBJDIMPD@?$FLJewelsBank?$FN?5No?5?$CFd?5Bless?$AA@ ; `string'
PUBLIC	?exbless@JewelsBank@@QAEXHH@Z			; JewelsBank::exbless
;	COMDAT ??_C@_0DJ@KHFFDOAD@?$FLJewelsBank?$FN?5Exchange?5?$CFd?5Jewel?5o@
CONST	SEGMENT
??_C@_0DJ@KHFFDOAD@?$FLJewelsBank?$FN?5Exchange?5?$CFd?5Jewel?5o@ DB '[Je'
	DB	'welsBank] Exchange %d Jewel of Bless Added %d Credits', 00H ; `string'
CONST	ENDS
;	COMDAT ??_C@_0BJ@LBJDIMPD@?$FLJewelsBank?$FN?5No?5?$CFd?5Bless?$AA@
CONST	SEGMENT
??_C@_0BJ@LBJDIMPD@?$FLJewelsBank?$FN?5No?5?$CFd?5Bless?$AA@ DB '[JewelsB'
	DB	'ank] No %d Bless', 00H			; `string'
; Function compile flags: /Odtp /ZI
CONST	ENDS
_TEXT	SEGMENT
_lpObj$220737 = -8					; size = 4
_this$ = -4						; size = 4
_aIndex$ = 8						; size = 4
_Count$ = 12						; size = 4
?exbless@JewelsBank@@QAEXHH@Z PROC			; JewelsBank::exbless
; _this$ = ecx

; 443  : {

  01630	55		 push	 ebp
  01631	8b ec		 mov	 ebp, esp
  01633	83 ec 48	 sub	 esp, 72			; 00000048H
  01636	53		 push	 ebx
  01637	56		 push	 esi
  01638	57		 push	 edi
  01639	89 4d fc	 mov	 DWORD PTR _this$[ebp], ecx

; 444  : 	if(g_ExLicense.CheckUser(eExUB::Local3) || g_ExLicense.CheckUser(SILVER1) || g_ExLicense.CheckUser(SILVER2) || g_ExLicense.CheckUser(eExUB::drynea))

  0163c	6a 1c		 push	 28			; 0000001cH
  0163e	b9 00 00 00 00	 mov	 ecx, OFFSET ?g_ExLicense@@3VCExLicense@@A ; g_ExLicense
  01643	e8 00 00 00 00	 call	 ?CheckUser@CExLicense@@QAE_NH@Z ; CExLicense::CheckUser
  01648	0f b6 c0	 movzx	 eax, al
  0164b	85 c0		 test	 eax, eax
  0164d	75 3d		 jne	 SHORT $LN15@exbless
  0164f	6a 07		 push	 7
  01651	b9 00 00 00 00	 mov	 ecx, OFFSET ?g_ExLicense@@3VCExLicense@@A ; g_ExLicense
  01656	e8 00 00 00 00	 call	 ?CheckUser@CExLicense@@QAE_NH@Z ; CExLicense::CheckUser
  0165b	0f b6 c0	 movzx	 eax, al
  0165e	85 c0		 test	 eax, eax
  01660	75 2a		 jne	 SHORT $LN15@exbless
  01662	6a 08		 push	 8
  01664	b9 00 00 00 00	 mov	 ecx, OFFSET ?g_ExLicense@@3VCExLicense@@A ; g_ExLicense
  01669	e8 00 00 00 00	 call	 ?CheckUser@CExLicense@@QAE_NH@Z ; CExLicense::CheckUser
  0166e	0f b6 c0	 movzx	 eax, al
  01671	85 c0		 test	 eax, eax
  01673	75 17		 jne	 SHORT $LN15@exbless
  01675	6a 01		 push	 1
  01677	b9 00 00 00 00	 mov	 ecx, OFFSET ?g_ExLicense@@3VCExLicense@@A ; g_ExLicense
  0167c	e8 00 00 00 00	 call	 ?CheckUser@CExLicense@@QAE_NH@Z ; CExLicense::CheckUser
  01681	0f b6 c0	 movzx	 eax, al
  01684	85 c0		 test	 eax, eax
  01686	0f 84 2b 02 00
	00		 je	 $LN16@exbless
$LN15@exbless:

; 445  : 	{
; 446  : 		if(!this->Enable) return;

  0168c	8b 45 fc	 mov	 eax, DWORD PTR _this$[ebp]
  0168f	0f b6 08	 movzx	 ecx, BYTE PTR [eax]
  01692	85 c9		 test	 ecx, ecx
  01694	75 05		 jne	 SHORT $LN14@exbless
  01696	e9 1c 02 00 00	 jmp	 $LN17@exbless
$LN14@exbless:

; 447  : 		LPOBJ lpObj = &gObj[aIndex];

  0169b	8b 45 08	 mov	 eax, DWORD PTR _aIndex$[ebp]
  0169e	69 c0 38 2b 00
	00		 imul	 eax, 11064		; 00002b38H
  016a4	03 05 00 00 00
	00		 add	 eax, DWORD PTR ?gObj@@3PAUOBJECTSTRUCT@@A ; gObj
  016aa	89 45 f8	 mov	 DWORD PTR _lpObj$220737[ebp], eax

; 448  : 		if(lpObj->BlessBank < Count)

  016ad	8b 45 f8	 mov	 eax, DWORD PTR _lpObj$220737[ebp]
  016b0	8b 88 e4 27 00
	00		 mov	 ecx, DWORD PTR [eax+10212]
  016b6	3b 4d 0c	 cmp	 ecx, DWORD PTR _Count$[ebp]
  016b9	7d 1a		 jge	 SHORT $LN13@exbless

; 449  : 		{
; 450  : 			MsgNormal(aIndex,"[JewelsBank] No %d Bless",Count);

  016bb	8b 45 0c	 mov	 eax, DWORD PTR _Count$[ebp]
  016be	50		 push	 eax
  016bf	68 00 00 00 00	 push	 OFFSET ??_C@_0BJ@LBJDIMPD@?$FLJewelsBank?$FN?5No?5?$CFd?5Bless?$AA@
  016c4	8b 4d 08	 mov	 ecx, DWORD PTR _aIndex$[ebp]
  016c7	51		 push	 ecx
  016c8	e8 00 00 00 00	 call	 ?MsgNormal@@YAXHPADZZ	; MsgNormal
  016cd	83 c4 0c	 add	 esp, 12			; 0000000cH

; 451  : 			return;

  016d0	e9 e2 01 00 00	 jmp	 $LN17@exbless
$LN13@exbless:

; 452  : 		}
; 453  : 		if (Count == 10)

  016d5	83 7d 0c 0a	 cmp	 DWORD PTR _Count$[ebp], 10 ; 0000000aH
  016d9	75 41		 jne	 SHORT $LN12@exbless

; 454  : 		{
; 455  : 			lpObj->BlessBank -= Count;

  016db	8b 45 f8	 mov	 eax, DWORD PTR _lpObj$220737[ebp]
  016de	8b 88 e4 27 00
	00		 mov	 ecx, DWORD PTR [eax+10212]
  016e4	2b 4d 0c	 sub	 ecx, DWORD PTR _Count$[ebp]
  016e7	8b 55 f8	 mov	 edx, DWORD PTR _lpObj$220737[ebp]
  016ea	89 8a e4 27 00
	00		 mov	 DWORD PTR [edx+10212], ecx

; 456  : 			lpObj->ExCred += ExBlessTeen;

  016f0	8b 45 fc	 mov	 eax, DWORD PTR _this$[ebp]
  016f3	db 40 1c	 fild	 DWORD PTR [eax+28]
  016f6	8b 4d f8	 mov	 ecx, DWORD PTR _lpObj$220737[ebp]
  016f9	d8 81 a8 22 00
	00		 fadd	 DWORD PTR [ecx+8872]
  016ff	8b 55 f8	 mov	 edx, DWORD PTR _lpObj$220737[ebp]
  01702	d9 9a a8 22 00
	00		 fstp	 DWORD PTR [edx+8872]

; 457  : 			CountExBless = ExBlessTeen;

  01708	8b 45 fc	 mov	 eax, DWORD PTR _this$[ebp]
  0170b	8b 4d fc	 mov	 ecx, DWORD PTR _this$[ebp]
  0170e	8b 51 1c	 mov	 edx, DWORD PTR [ecx+28]
  01711	89 90 fc 00 00
	00		 mov	 DWORD PTR [eax+252], edx
  01717	e9 70 01 00 00	 jmp	 $LN1@exbless
$LN12@exbless:

; 458  : 		}
; 459  : 		else if (Count == 20)

  0171c	83 7d 0c 14	 cmp	 DWORD PTR _Count$[ebp], 20 ; 00000014H
  01720	75 41		 jne	 SHORT $LN10@exbless

; 460  : 		{
; 461  : 			lpObj->BlessBank -= Count;

  01722	8b 45 f8	 mov	 eax, DWORD PTR _lpObj$220737[ebp]
  01725	8b 88 e4 27 00
	00		 mov	 ecx, DWORD PTR [eax+10212]
  0172b	2b 4d 0c	 sub	 ecx, DWORD PTR _Count$[ebp]
  0172e	8b 55 f8	 mov	 edx, DWORD PTR _lpObj$220737[ebp]
  01731	89 8a e4 27 00
	00		 mov	 DWORD PTR [edx+10212], ecx

; 462  : 			lpObj->ExCred += ExBlessTwenty;

  01737	8b 45 fc	 mov	 eax, DWORD PTR _this$[ebp]
  0173a	db 40 20	 fild	 DWORD PTR [eax+32]
  0173d	8b 4d f8	 mov	 ecx, DWORD PTR _lpObj$220737[ebp]
  01740	d8 81 a8 22 00
	00		 fadd	 DWORD PTR [ecx+8872]
  01746	8b 55 f8	 mov	 edx, DWORD PTR _lpObj$220737[ebp]
  01749	d9 9a a8 22 00
	00		 fstp	 DWORD PTR [edx+8872]

; 463  : 			CountExBless = ExBlessTwenty;

  0174f	8b 45 fc	 mov	 eax, DWORD PTR _this$[ebp]
  01752	8b 4d fc	 mov	 ecx, DWORD PTR _this$[ebp]
  01755	8b 51 20	 mov	 edx, DWORD PTR [ecx+32]
  01758	89 90 fc 00 00
	00		 mov	 DWORD PTR [eax+252], edx
  0175e	e9 29 01 00 00	 jmp	 $LN1@exbless
$LN10@exbless:

; 464  : 		}
; 465  : 		else if (Count == 30)

  01763	83 7d 0c 1e	 cmp	 DWORD PTR _Count$[ebp], 30 ; 0000001eH
  01767	75 41		 jne	 SHORT $LN8@exbless

; 466  : 		{
; 467  : 			lpObj->BlessBank -= Count;

  01769	8b 45 f8	 mov	 eax, DWORD PTR _lpObj$220737[ebp]
  0176c	8b 88 e4 27 00
	00		 mov	 ecx, DWORD PTR [eax+10212]
  01772	2b 4d 0c	 sub	 ecx, DWORD PTR _Count$[ebp]
  01775	8b 55 f8	 mov	 edx, DWORD PTR _lpObj$220737[ebp]
  01778	89 8a e4 27 00
	00		 mov	 DWORD PTR [edx+10212], ecx

; 468  : 			lpObj->ExCred += ExBlessThirty;

  0177e	8b 45 fc	 mov	 eax, DWORD PTR _this$[ebp]
  01781	db 40 24	 fild	 DWORD PTR [eax+36]
  01784	8b 4d f8	 mov	 ecx, DWORD PTR _lpObj$220737[ebp]
  01787	d8 81 a8 22 00
	00		 fadd	 DWORD PTR [ecx+8872]
  0178d	8b 55 f8	 mov	 edx, DWORD PTR _lpObj$220737[ebp]
  01790	d9 9a a8 22 00
	00		 fstp	 DWORD PTR [edx+8872]

; 469  : 			CountExBless = ExBlessThirty;

  01796	8b 45 fc	 mov	 eax, DWORD PTR _this$[ebp]
  01799	8b 4d fc	 mov	 ecx, DWORD PTR _this$[ebp]
  0179c	8b 51 24	 mov	 edx, DWORD PTR [ecx+36]
  0179f	89 90 fc 00 00
	00		 mov	 DWORD PTR [eax+252], edx
  017a5	e9 e2 00 00 00	 jmp	 $LN1@exbless
$LN8@exbless:

; 470  : 		}		
; 471  : 		else if (Count == 40)

  017aa	83 7d 0c 28	 cmp	 DWORD PTR _Count$[ebp], 40 ; 00000028H
  017ae	75 41		 jne	 SHORT $LN6@exbless

; 472  : 		{
; 473  : 			lpObj->BlessBank -= Count;

  017b0	8b 45 f8	 mov	 eax, DWORD PTR _lpObj$220737[ebp]
  017b3	8b 88 e4 27 00
	00		 mov	 ecx, DWORD PTR [eax+10212]
  017b9	2b 4d 0c	 sub	 ecx, DWORD PTR _Count$[ebp]
  017bc	8b 55 f8	 mov	 edx, DWORD PTR _lpObj$220737[ebp]
  017bf	89 8a e4 27 00
	00		 mov	 DWORD PTR [edx+10212], ecx

; 474  : 			lpObj->ExCred += ExBlessForty;

  017c5	8b 45 fc	 mov	 eax, DWORD PTR _this$[ebp]
  017c8	db 40 28	 fild	 DWORD PTR [eax+40]
  017cb	8b 4d f8	 mov	 ecx, DWORD PTR _lpObj$220737[ebp]
  017ce	d8 81 a8 22 00
	00		 fadd	 DWORD PTR [ecx+8872]
  017d4	8b 55 f8	 mov	 edx, DWORD PTR _lpObj$220737[ebp]
  017d7	d9 9a a8 22 00
	00		 fstp	 DWORD PTR [edx+8872]

; 475  : 			CountExBless = ExBlessForty;

  017dd	8b 45 fc	 mov	 eax, DWORD PTR _this$[ebp]
  017e0	8b 4d fc	 mov	 ecx, DWORD PTR _this$[ebp]
  017e3	8b 51 28	 mov	 edx, DWORD PTR [ecx+40]
  017e6	89 90 fc 00 00
	00		 mov	 DWORD PTR [eax+252], edx
  017ec	e9 9b 00 00 00	 jmp	 $LN1@exbless
$LN6@exbless:

; 476  : 		}
; 477  : 		else if (Count == 50)

  017f1	83 7d 0c 32	 cmp	 DWORD PTR _Count$[ebp], 50 ; 00000032H
  017f5	75 3e		 jne	 SHORT $LN4@exbless

; 478  : 		{
; 479  : 			lpObj->BlessBank -= Count;

  017f7	8b 45 f8	 mov	 eax, DWORD PTR _lpObj$220737[ebp]
  017fa	8b 88 e4 27 00
	00		 mov	 ecx, DWORD PTR [eax+10212]
  01800	2b 4d 0c	 sub	 ecx, DWORD PTR _Count$[ebp]
  01803	8b 55 f8	 mov	 edx, DWORD PTR _lpObj$220737[ebp]
  01806	89 8a e4 27 00
	00		 mov	 DWORD PTR [edx+10212], ecx

; 480  : 			lpObj->ExCred += ExBlessFifty;

  0180c	8b 45 fc	 mov	 eax, DWORD PTR _this$[ebp]
  0180f	db 40 2c	 fild	 DWORD PTR [eax+44]
  01812	8b 4d f8	 mov	 ecx, DWORD PTR _lpObj$220737[ebp]
  01815	d8 81 a8 22 00
	00		 fadd	 DWORD PTR [ecx+8872]
  0181b	8b 55 f8	 mov	 edx, DWORD PTR _lpObj$220737[ebp]
  0181e	d9 9a a8 22 00
	00		 fstp	 DWORD PTR [edx+8872]

; 481  : 			CountExBless = ExBlessFifty;

  01824	8b 45 fc	 mov	 eax, DWORD PTR _this$[ebp]
  01827	8b 4d fc	 mov	 ecx, DWORD PTR _this$[ebp]
  0182a	8b 51 2c	 mov	 edx, DWORD PTR [ecx+44]
  0182d	89 90 fc 00 00
	00		 mov	 DWORD PTR [eax+252], edx
  01833	eb 57		 jmp	 SHORT $LN1@exbless
$LN4@exbless:

; 482  : 		}
; 483  : 		else if (Count == 100)

  01835	83 7d 0c 64	 cmp	 DWORD PTR _Count$[ebp], 100 ; 00000064H
  01839	75 3e		 jne	 SHORT $LN2@exbless

; 484  : 		{
; 485  : 			lpObj->BlessBank -= Count;

  0183b	8b 45 f8	 mov	 eax, DWORD PTR _lpObj$220737[ebp]
  0183e	8b 88 e4 27 00
	00		 mov	 ecx, DWORD PTR [eax+10212]
  01844	2b 4d 0c	 sub	 ecx, DWORD PTR _Count$[ebp]
  01847	8b 55 f8	 mov	 edx, DWORD PTR _lpObj$220737[ebp]
  0184a	89 8a e4 27 00
	00		 mov	 DWORD PTR [edx+10212], ecx

; 486  : 			lpObj->ExCred += ExBlessHundred;

  01850	8b 45 fc	 mov	 eax, DWORD PTR _this$[ebp]
  01853	db 40 30	 fild	 DWORD PTR [eax+48]
  01856	8b 4d f8	 mov	 ecx, DWORD PTR _lpObj$220737[ebp]
  01859	d8 81 a8 22 00
	00		 fadd	 DWORD PTR [ecx+8872]
  0185f	8b 55 f8	 mov	 edx, DWORD PTR _lpObj$220737[ebp]
  01862	d9 9a a8 22 00
	00		 fstp	 DWORD PTR [edx+8872]

; 487  : 			CountExBless = ExBlessHundred;

  01868	8b 45 fc	 mov	 eax, DWORD PTR _this$[ebp]
  0186b	8b 4d fc	 mov	 ecx, DWORD PTR _this$[ebp]
  0186e	8b 51 30	 mov	 edx, DWORD PTR [ecx+48]
  01871	89 90 fc 00 00
	00		 mov	 DWORD PTR [eax+252], edx

; 488  : 		}
; 489  : 		else{

  01877	eb 13		 jmp	 SHORT $LN1@exbless
$LN2@exbless:

; 490  : 			MsgNormal(aIndex,"[JewelsBank] Exchange Only 10 20 30 40 50 100");

  01879	68 00 00 00 00	 push	 OFFSET ??_C@_0CO@ECEIAILJ@?$FLJewelsBank?$FN?5Exchange?5Only?510?520@
  0187e	8b 45 08	 mov	 eax, DWORD PTR _aIndex$[ebp]
  01881	50		 push	 eax
  01882	e8 00 00 00 00	 call	 ?MsgNormal@@YAXHPADZZ	; MsgNormal
  01887	83 c4 08	 add	 esp, 8

; 491  : 			return;

  0188a	eb 2b		 jmp	 SHORT $LN17@exbless
$LN1@exbless:

; 492  : 		}
; 493  : 
; 494  : 		ExUserDataSend(aIndex);

  0188c	8b 45 08	 mov	 eax, DWORD PTR _aIndex$[ebp]
  0188f	50		 push	 eax
  01890	e8 00 00 00 00	 call	 ?ExUserDataSend@@YAXH@Z	; ExUserDataSend
  01895	83 c4 04	 add	 esp, 4

; 495  : 		MsgNormal(aIndex,"[JewelsBank] Exchange %d Jewel of Bless Added %d Credits" ,Count, CountExBless);

  01898	8b 45 fc	 mov	 eax, DWORD PTR _this$[ebp]
  0189b	8b 88 fc 00 00
	00		 mov	 ecx, DWORD PTR [eax+252]
  018a1	51		 push	 ecx
  018a2	8b 55 0c	 mov	 edx, DWORD PTR _Count$[ebp]
  018a5	52		 push	 edx
  018a6	68 00 00 00 00	 push	 OFFSET ??_C@_0DJ@KHFFDOAD@?$FLJewelsBank?$FN?5Exchange?5?$CFd?5Jewel?5o@
  018ab	8b 45 08	 mov	 eax, DWORD PTR _aIndex$[ebp]
  018ae	50		 push	 eax
  018af	e8 00 00 00 00	 call	 ?MsgNormal@@YAXHPADZZ	; MsgNormal
  018b4	83 c4 10	 add	 esp, 16			; 00000010H
$LN16@exbless:
$LN17@exbless:

; 496  : 	}
; 497  : }

  018b7	5f		 pop	 edi
  018b8	5e		 pop	 esi
  018b9	5b		 pop	 ebx
  018ba	8b e5		 mov	 esp, ebp
  018bc	5d		 pop	 ebp
  018bd	c2 08 00	 ret	 8
?exbless@JewelsBank@@QAEXHH@Z ENDP			; JewelsBank::exbless
_TEXT	ENDS
PUBLIC	??_C@_0DI@EDPIGJGC@?$FLJewelsBank?$FN?5Exchange?5?$CFd?5Jewel?5o@ ; `string'
PUBLIC	??_C@_0BI@MPCAELIP@?$FLJewelsBank?$FN?5No?5?$CFd?5Soul?$AA@ ; `string'
PUBLIC	?exsoul@JewelsBank@@QAEXHH@Z			; JewelsBank::exsoul
;	COMDAT ??_C@_0DI@EDPIGJGC@?$FLJewelsBank?$FN?5Exchange?5?$CFd?5Jewel?5o@
CONST	SEGMENT
??_C@_0DI@EDPIGJGC@?$FLJewelsBank?$FN?5Exchange?5?$CFd?5Jewel?5o@ DB '[Je'
	DB	'welsBank] Exchange %d Jewel of Soul Added %d Credits', 00H ; `string'
CONST	ENDS
;	COMDAT ??_C@_0BI@MPCAELIP@?$FLJewelsBank?$FN?5No?5?$CFd?5Soul?$AA@
CONST	SEGMENT
??_C@_0BI@MPCAELIP@?$FLJewelsBank?$FN?5No?5?$CFd?5Soul?$AA@ DB '[JewelsBa'
	DB	'nk] No %d Soul', 00H			; `string'
; Function compile flags: /Odtp /ZI
CONST	ENDS
_TEXT	SEGMENT
_lpObj$220761 = -8					; size = 4
_this$ = -4						; size = 4
_aIndex$ = 8						; size = 4
_Count$ = 12						; size = 4
?exsoul@JewelsBank@@QAEXHH@Z PROC			; JewelsBank::exsoul
; _this$ = ecx

; 500  : {

  018c0	55		 push	 ebp
  018c1	8b ec		 mov	 ebp, esp
  018c3	83 ec 48	 sub	 esp, 72			; 00000048H
  018c6	53		 push	 ebx
  018c7	56		 push	 esi
  018c8	57		 push	 edi
  018c9	89 4d fc	 mov	 DWORD PTR _this$[ebp], ecx

; 501  : 	if(g_ExLicense.CheckUser(eExUB::Local3) || g_ExLicense.CheckUser(SILVER1) || g_ExLicense.CheckUser(SILVER2) || g_ExLicense.CheckUser(eExUB::drynea))

  018cc	6a 1c		 push	 28			; 0000001cH
  018ce	b9 00 00 00 00	 mov	 ecx, OFFSET ?g_ExLicense@@3VCExLicense@@A ; g_ExLicense
  018d3	e8 00 00 00 00	 call	 ?CheckUser@CExLicense@@QAE_NH@Z ; CExLicense::CheckUser
  018d8	0f b6 c0	 movzx	 eax, al
  018db	85 c0		 test	 eax, eax
  018dd	75 3d		 jne	 SHORT $LN15@exsoul
  018df	6a 07		 push	 7
  018e1	b9 00 00 00 00	 mov	 ecx, OFFSET ?g_ExLicense@@3VCExLicense@@A ; g_ExLicense
  018e6	e8 00 00 00 00	 call	 ?CheckUser@CExLicense@@QAE_NH@Z ; CExLicense::CheckUser
  018eb	0f b6 c0	 movzx	 eax, al
  018ee	85 c0		 test	 eax, eax
  018f0	75 2a		 jne	 SHORT $LN15@exsoul
  018f2	6a 08		 push	 8
  018f4	b9 00 00 00 00	 mov	 ecx, OFFSET ?g_ExLicense@@3VCExLicense@@A ; g_ExLicense
  018f9	e8 00 00 00 00	 call	 ?CheckUser@CExLicense@@QAE_NH@Z ; CExLicense::CheckUser
  018fe	0f b6 c0	 movzx	 eax, al
  01901	85 c0		 test	 eax, eax
  01903	75 17		 jne	 SHORT $LN15@exsoul
  01905	6a 01		 push	 1
  01907	b9 00 00 00 00	 mov	 ecx, OFFSET ?g_ExLicense@@3VCExLicense@@A ; g_ExLicense
  0190c	e8 00 00 00 00	 call	 ?CheckUser@CExLicense@@QAE_NH@Z ; CExLicense::CheckUser
  01911	0f b6 c0	 movzx	 eax, al
  01914	85 c0		 test	 eax, eax
  01916	0f 84 2b 02 00
	00		 je	 $LN16@exsoul
$LN15@exsoul:

; 502  : 	{
; 503  : 	if(!this->Enable) return;

  0191c	8b 45 fc	 mov	 eax, DWORD PTR _this$[ebp]
  0191f	0f b6 08	 movzx	 ecx, BYTE PTR [eax]
  01922	85 c9		 test	 ecx, ecx
  01924	75 05		 jne	 SHORT $LN14@exsoul
  01926	e9 1c 02 00 00	 jmp	 $LN17@exsoul
$LN14@exsoul:

; 504  : 		LPOBJ lpObj = &gObj[aIndex];

  0192b	8b 45 08	 mov	 eax, DWORD PTR _aIndex$[ebp]
  0192e	69 c0 38 2b 00
	00		 imul	 eax, 11064		; 00002b38H
  01934	03 05 00 00 00
	00		 add	 eax, DWORD PTR ?gObj@@3PAUOBJECTSTRUCT@@A ; gObj
  0193a	89 45 f8	 mov	 DWORD PTR _lpObj$220761[ebp], eax

; 505  : 		if(lpObj->SoulBank < Count)

  0193d	8b 45 f8	 mov	 eax, DWORD PTR _lpObj$220761[ebp]
  01940	8b 88 e8 27 00
	00		 mov	 ecx, DWORD PTR [eax+10216]
  01946	3b 4d 0c	 cmp	 ecx, DWORD PTR _Count$[ebp]
  01949	7d 1a		 jge	 SHORT $LN13@exsoul

; 506  : 		{
; 507  : 			MsgNormal(aIndex,"[JewelsBank] No %d Soul",Count);

  0194b	8b 45 0c	 mov	 eax, DWORD PTR _Count$[ebp]
  0194e	50		 push	 eax
  0194f	68 00 00 00 00	 push	 OFFSET ??_C@_0BI@MPCAELIP@?$FLJewelsBank?$FN?5No?5?$CFd?5Soul?$AA@
  01954	8b 4d 08	 mov	 ecx, DWORD PTR _aIndex$[ebp]
  01957	51		 push	 ecx
  01958	e8 00 00 00 00	 call	 ?MsgNormal@@YAXHPADZZ	; MsgNormal
  0195d	83 c4 0c	 add	 esp, 12			; 0000000cH

; 508  : 			return;

  01960	e9 e2 01 00 00	 jmp	 $LN17@exsoul
$LN13@exsoul:

; 509  : 		}
; 510  : 		
; 511  : 		if (Count == 10)

  01965	83 7d 0c 0a	 cmp	 DWORD PTR _Count$[ebp], 10 ; 0000000aH
  01969	75 41		 jne	 SHORT $LN12@exsoul

; 512  : 		{
; 513  : 			lpObj->SoulBank -= Count;

  0196b	8b 45 f8	 mov	 eax, DWORD PTR _lpObj$220761[ebp]
  0196e	8b 88 e8 27 00
	00		 mov	 ecx, DWORD PTR [eax+10216]
  01974	2b 4d 0c	 sub	 ecx, DWORD PTR _Count$[ebp]
  01977	8b 55 f8	 mov	 edx, DWORD PTR _lpObj$220761[ebp]
  0197a	89 8a e8 27 00
	00		 mov	 DWORD PTR [edx+10216], ecx

; 514  : 			lpObj->ExCred += ExSoulTeen;

  01980	8b 45 fc	 mov	 eax, DWORD PTR _this$[ebp]
  01983	db 40 34	 fild	 DWORD PTR [eax+52]
  01986	8b 4d f8	 mov	 ecx, DWORD PTR _lpObj$220761[ebp]
  01989	d8 81 a8 22 00
	00		 fadd	 DWORD PTR [ecx+8872]
  0198f	8b 55 f8	 mov	 edx, DWORD PTR _lpObj$220761[ebp]
  01992	d9 9a a8 22 00
	00		 fstp	 DWORD PTR [edx+8872]

; 515  : 			CountExSoul = ExSoulTeen;

  01998	8b 45 fc	 mov	 eax, DWORD PTR _this$[ebp]
  0199b	8b 4d fc	 mov	 ecx, DWORD PTR _this$[ebp]
  0199e	8b 51 34	 mov	 edx, DWORD PTR [ecx+52]
  019a1	89 90 00 01 00
	00		 mov	 DWORD PTR [eax+256], edx
  019a7	e9 70 01 00 00	 jmp	 $LN1@exsoul
$LN12@exsoul:

; 516  : 		}
; 517  : 		else if (Count == 20)

  019ac	83 7d 0c 14	 cmp	 DWORD PTR _Count$[ebp], 20 ; 00000014H
  019b0	75 41		 jne	 SHORT $LN10@exsoul

; 518  : 		{
; 519  : 			lpObj->SoulBank -= Count;

  019b2	8b 45 f8	 mov	 eax, DWORD PTR _lpObj$220761[ebp]
  019b5	8b 88 e8 27 00
	00		 mov	 ecx, DWORD PTR [eax+10216]
  019bb	2b 4d 0c	 sub	 ecx, DWORD PTR _Count$[ebp]
  019be	8b 55 f8	 mov	 edx, DWORD PTR _lpObj$220761[ebp]
  019c1	89 8a e8 27 00
	00		 mov	 DWORD PTR [edx+10216], ecx

; 520  : 			lpObj->ExCred += ExSoulTwenty;

  019c7	8b 45 fc	 mov	 eax, DWORD PTR _this$[ebp]
  019ca	db 40 38	 fild	 DWORD PTR [eax+56]
  019cd	8b 4d f8	 mov	 ecx, DWORD PTR _lpObj$220761[ebp]
  019d0	d8 81 a8 22 00
	00		 fadd	 DWORD PTR [ecx+8872]
  019d6	8b 55 f8	 mov	 edx, DWORD PTR _lpObj$220761[ebp]
  019d9	d9 9a a8 22 00
	00		 fstp	 DWORD PTR [edx+8872]

; 521  : 			CountExSoul = ExSoulTwenty;

  019df	8b 45 fc	 mov	 eax, DWORD PTR _this$[ebp]
  019e2	8b 4d fc	 mov	 ecx, DWORD PTR _this$[ebp]
  019e5	8b 51 38	 mov	 edx, DWORD PTR [ecx+56]
  019e8	89 90 00 01 00
	00		 mov	 DWORD PTR [eax+256], edx
  019ee	e9 29 01 00 00	 jmp	 $LN1@exsoul
$LN10@exsoul:

; 522  : 		}
; 523  : 		else if (Count == 30)

  019f3	83 7d 0c 1e	 cmp	 DWORD PTR _Count$[ebp], 30 ; 0000001eH
  019f7	75 41		 jne	 SHORT $LN8@exsoul

; 524  : 		{
; 525  : 			lpObj->SoulBank -= Count;

  019f9	8b 45 f8	 mov	 eax, DWORD PTR _lpObj$220761[ebp]
  019fc	8b 88 e8 27 00
	00		 mov	 ecx, DWORD PTR [eax+10216]
  01a02	2b 4d 0c	 sub	 ecx, DWORD PTR _Count$[ebp]
  01a05	8b 55 f8	 mov	 edx, DWORD PTR _lpObj$220761[ebp]
  01a08	89 8a e8 27 00
	00		 mov	 DWORD PTR [edx+10216], ecx

; 526  : 			lpObj->ExCred += ExSoulThirty;

  01a0e	8b 45 fc	 mov	 eax, DWORD PTR _this$[ebp]
  01a11	db 40 3c	 fild	 DWORD PTR [eax+60]
  01a14	8b 4d f8	 mov	 ecx, DWORD PTR _lpObj$220761[ebp]
  01a17	d8 81 a8 22 00
	00		 fadd	 DWORD PTR [ecx+8872]
  01a1d	8b 55 f8	 mov	 edx, DWORD PTR _lpObj$220761[ebp]
  01a20	d9 9a a8 22 00
	00		 fstp	 DWORD PTR [edx+8872]

; 527  : 			CountExSoul = ExSoulThirty;

  01a26	8b 45 fc	 mov	 eax, DWORD PTR _this$[ebp]
  01a29	8b 4d fc	 mov	 ecx, DWORD PTR _this$[ebp]
  01a2c	8b 51 3c	 mov	 edx, DWORD PTR [ecx+60]
  01a2f	89 90 00 01 00
	00		 mov	 DWORD PTR [eax+256], edx
  01a35	e9 e2 00 00 00	 jmp	 $LN1@exsoul
$LN8@exsoul:

; 528  : 		}
; 529  : 		else if (Count == 40)

  01a3a	83 7d 0c 28	 cmp	 DWORD PTR _Count$[ebp], 40 ; 00000028H
  01a3e	75 41		 jne	 SHORT $LN6@exsoul

; 530  : 		{
; 531  : 			lpObj->SoulBank -= Count;

  01a40	8b 45 f8	 mov	 eax, DWORD PTR _lpObj$220761[ebp]
  01a43	8b 88 e8 27 00
	00		 mov	 ecx, DWORD PTR [eax+10216]
  01a49	2b 4d 0c	 sub	 ecx, DWORD PTR _Count$[ebp]
  01a4c	8b 55 f8	 mov	 edx, DWORD PTR _lpObj$220761[ebp]
  01a4f	89 8a e8 27 00
	00		 mov	 DWORD PTR [edx+10216], ecx

; 532  : 			lpObj->ExCred += ExSoulForty;

  01a55	8b 45 fc	 mov	 eax, DWORD PTR _this$[ebp]
  01a58	db 40 40	 fild	 DWORD PTR [eax+64]
  01a5b	8b 4d f8	 mov	 ecx, DWORD PTR _lpObj$220761[ebp]
  01a5e	d8 81 a8 22 00
	00		 fadd	 DWORD PTR [ecx+8872]
  01a64	8b 55 f8	 mov	 edx, DWORD PTR _lpObj$220761[ebp]
  01a67	d9 9a a8 22 00
	00		 fstp	 DWORD PTR [edx+8872]

; 533  : 			CountExSoul = ExSoulForty;

  01a6d	8b 45 fc	 mov	 eax, DWORD PTR _this$[ebp]
  01a70	8b 4d fc	 mov	 ecx, DWORD PTR _this$[ebp]
  01a73	8b 51 40	 mov	 edx, DWORD PTR [ecx+64]
  01a76	89 90 00 01 00
	00		 mov	 DWORD PTR [eax+256], edx
  01a7c	e9 9b 00 00 00	 jmp	 $LN1@exsoul
$LN6@exsoul:

; 534  : 		}
; 535  : 		else if (Count == 50)

  01a81	83 7d 0c 32	 cmp	 DWORD PTR _Count$[ebp], 50 ; 00000032H
  01a85	75 3e		 jne	 SHORT $LN4@exsoul

; 536  : 		{
; 537  : 			lpObj->SoulBank -= Count;

  01a87	8b 45 f8	 mov	 eax, DWORD PTR _lpObj$220761[ebp]
  01a8a	8b 88 e8 27 00
	00		 mov	 ecx, DWORD PTR [eax+10216]
  01a90	2b 4d 0c	 sub	 ecx, DWORD PTR _Count$[ebp]
  01a93	8b 55 f8	 mov	 edx, DWORD PTR _lpObj$220761[ebp]
  01a96	89 8a e8 27 00
	00		 mov	 DWORD PTR [edx+10216], ecx

; 538  : 			lpObj->ExCred += ExSoulFifty;

  01a9c	8b 45 fc	 mov	 eax, DWORD PTR _this$[ebp]
  01a9f	db 40 44	 fild	 DWORD PTR [eax+68]
  01aa2	8b 4d f8	 mov	 ecx, DWORD PTR _lpObj$220761[ebp]
  01aa5	d8 81 a8 22 00
	00		 fadd	 DWORD PTR [ecx+8872]
  01aab	8b 55 f8	 mov	 edx, DWORD PTR _lpObj$220761[ebp]
  01aae	d9 9a a8 22 00
	00		 fstp	 DWORD PTR [edx+8872]

; 539  : 			CountExSoul = ExSoulFifty;

  01ab4	8b 45 fc	 mov	 eax, DWORD PTR _this$[ebp]
  01ab7	8b 4d fc	 mov	 ecx, DWORD PTR _this$[ebp]
  01aba	8b 51 44	 mov	 edx, DWORD PTR [ecx+68]
  01abd	89 90 00 01 00
	00		 mov	 DWORD PTR [eax+256], edx
  01ac3	eb 57		 jmp	 SHORT $LN1@exsoul
$LN4@exsoul:

; 540  : 		}
; 541  : 		else if (Count == 100)

  01ac5	83 7d 0c 64	 cmp	 DWORD PTR _Count$[ebp], 100 ; 00000064H
  01ac9	75 3e		 jne	 SHORT $LN2@exsoul

; 542  : 		{
; 543  : 			lpObj->SoulBank -= Count;

  01acb	8b 45 f8	 mov	 eax, DWORD PTR _lpObj$220761[ebp]
  01ace	8b 88 e8 27 00
	00		 mov	 ecx, DWORD PTR [eax+10216]
  01ad4	2b 4d 0c	 sub	 ecx, DWORD PTR _Count$[ebp]
  01ad7	8b 55 f8	 mov	 edx, DWORD PTR _lpObj$220761[ebp]
  01ada	89 8a e8 27 00
	00		 mov	 DWORD PTR [edx+10216], ecx

; 544  : 			lpObj->ExCred += ExSoulHundred;

  01ae0	8b 45 fc	 mov	 eax, DWORD PTR _this$[ebp]
  01ae3	db 40 48	 fild	 DWORD PTR [eax+72]
  01ae6	8b 4d f8	 mov	 ecx, DWORD PTR _lpObj$220761[ebp]
  01ae9	d8 81 a8 22 00
	00		 fadd	 DWORD PTR [ecx+8872]
  01aef	8b 55 f8	 mov	 edx, DWORD PTR _lpObj$220761[ebp]
  01af2	d9 9a a8 22 00
	00		 fstp	 DWORD PTR [edx+8872]

; 545  : 			CountExSoul = ExSoulHundred;

  01af8	8b 45 fc	 mov	 eax, DWORD PTR _this$[ebp]
  01afb	8b 4d fc	 mov	 ecx, DWORD PTR _this$[ebp]
  01afe	8b 51 48	 mov	 edx, DWORD PTR [ecx+72]
  01b01	89 90 00 01 00
	00		 mov	 DWORD PTR [eax+256], edx

; 546  : 		}
; 547  : 		else{

  01b07	eb 13		 jmp	 SHORT $LN1@exsoul
$LN2@exsoul:

; 548  : 			MsgNormal(aIndex,"[JewelsBank] Exchange Only 10 20 30 40 50 100");

  01b09	68 00 00 00 00	 push	 OFFSET ??_C@_0CO@ECEIAILJ@?$FLJewelsBank?$FN?5Exchange?5Only?510?520@
  01b0e	8b 45 08	 mov	 eax, DWORD PTR _aIndex$[ebp]
  01b11	50		 push	 eax
  01b12	e8 00 00 00 00	 call	 ?MsgNormal@@YAXHPADZZ	; MsgNormal
  01b17	83 c4 08	 add	 esp, 8

; 549  : 			return;

  01b1a	eb 2b		 jmp	 SHORT $LN17@exsoul
$LN1@exsoul:

; 550  : 		}
; 551  : 		
; 552  : 		
; 553  : 		ExUserDataSend(aIndex);

  01b1c	8b 45 08	 mov	 eax, DWORD PTR _aIndex$[ebp]
  01b1f	50		 push	 eax
  01b20	e8 00 00 00 00	 call	 ?ExUserDataSend@@YAXH@Z	; ExUserDataSend
  01b25	83 c4 04	 add	 esp, 4

; 554  : 		MsgNormal(aIndex,"[JewelsBank] Exchange %d Jewel of Soul Added %d Credits" ,Count, CountExSoul);

  01b28	8b 45 fc	 mov	 eax, DWORD PTR _this$[ebp]
  01b2b	8b 88 00 01 00
	00		 mov	 ecx, DWORD PTR [eax+256]
  01b31	51		 push	 ecx
  01b32	8b 55 0c	 mov	 edx, DWORD PTR _Count$[ebp]
  01b35	52		 push	 edx
  01b36	68 00 00 00 00	 push	 OFFSET ??_C@_0DI@EDPIGJGC@?$FLJewelsBank?$FN?5Exchange?5?$CFd?5Jewel?5o@
  01b3b	8b 45 08	 mov	 eax, DWORD PTR _aIndex$[ebp]
  01b3e	50		 push	 eax
  01b3f	e8 00 00 00 00	 call	 ?MsgNormal@@YAXHPADZZ	; MsgNormal
  01b44	83 c4 10	 add	 esp, 16			; 00000010H
$LN16@exsoul:
$LN17@exsoul:

; 555  : 	}
; 556  : }

  01b47	5f		 pop	 edi
  01b48	5e		 pop	 esi
  01b49	5b		 pop	 ebx
  01b4a	8b e5		 mov	 esp, ebp
  01b4c	5d		 pop	 ebp
  01b4d	c2 08 00	 ret	 8
?exsoul@JewelsBank@@QAEXHH@Z ENDP			; JewelsBank::exsoul
_TEXT	ENDS
PUBLIC	??_C@_0DJ@PLLOKGAA@?$FLJewelsBank?$FN?5Exchange?5?$CFd?5Jewel?5o@ ; `string'
PUBLIC	??_C@_0BI@MHFJLCGA@?$FLJewelsBank?$FN?5No?5?$CFd?5Life?$AA@ ; `string'
PUBLIC	?exlife@JewelsBank@@QAEXHH@Z			; JewelsBank::exlife
;	COMDAT ??_C@_0DJ@PLLOKGAA@?$FLJewelsBank?$FN?5Exchange?5?$CFd?5Jewel?5o@
CONST	SEGMENT
??_C@_0DJ@PLLOKGAA@?$FLJewelsBank?$FN?5Exchange?5?$CFd?5Jewel?5o@ DB '[Je'
	DB	'welsBank] Exchange %d Jewel of Life Added %d Credits ', 00H ; `string'
CONST	ENDS
;	COMDAT ??_C@_0BI@MHFJLCGA@?$FLJewelsBank?$FN?5No?5?$CFd?5Life?$AA@
CONST	SEGMENT
??_C@_0BI@MHFJLCGA@?$FLJewelsBank?$FN?5No?5?$CFd?5Life?$AA@ DB '[JewelsBa'
	DB	'nk] No %d Life', 00H			; `string'
; Function compile flags: /Odtp /ZI
CONST	ENDS
_TEXT	SEGMENT
_lpObj$220785 = -8					; size = 4
_this$ = -4						; size = 4
_aIndex$ = 8						; size = 4
_Count$ = 12						; size = 4
?exlife@JewelsBank@@QAEXHH@Z PROC			; JewelsBank::exlife
; _this$ = ecx

; 559  : {

  01b50	55		 push	 ebp
  01b51	8b ec		 mov	 ebp, esp
  01b53	83 ec 48	 sub	 esp, 72			; 00000048H
  01b56	53		 push	 ebx
  01b57	56		 push	 esi
  01b58	57		 push	 edi
  01b59	89 4d fc	 mov	 DWORD PTR _this$[ebp], ecx

; 560  : 	if(g_ExLicense.CheckUser(eExUB::Local3) || g_ExLicense.CheckUser(SILVER1) || g_ExLicense.CheckUser(SILVER2) || g_ExLicense.CheckUser(eExUB::drynea))

  01b5c	6a 1c		 push	 28			; 0000001cH
  01b5e	b9 00 00 00 00	 mov	 ecx, OFFSET ?g_ExLicense@@3VCExLicense@@A ; g_ExLicense
  01b63	e8 00 00 00 00	 call	 ?CheckUser@CExLicense@@QAE_NH@Z ; CExLicense::CheckUser
  01b68	0f b6 c0	 movzx	 eax, al
  01b6b	85 c0		 test	 eax, eax
  01b6d	75 3d		 jne	 SHORT $LN15@exlife
  01b6f	6a 07		 push	 7
  01b71	b9 00 00 00 00	 mov	 ecx, OFFSET ?g_ExLicense@@3VCExLicense@@A ; g_ExLicense
  01b76	e8 00 00 00 00	 call	 ?CheckUser@CExLicense@@QAE_NH@Z ; CExLicense::CheckUser
  01b7b	0f b6 c0	 movzx	 eax, al
  01b7e	85 c0		 test	 eax, eax
  01b80	75 2a		 jne	 SHORT $LN15@exlife
  01b82	6a 08		 push	 8
  01b84	b9 00 00 00 00	 mov	 ecx, OFFSET ?g_ExLicense@@3VCExLicense@@A ; g_ExLicense
  01b89	e8 00 00 00 00	 call	 ?CheckUser@CExLicense@@QAE_NH@Z ; CExLicense::CheckUser
  01b8e	0f b6 c0	 movzx	 eax, al
  01b91	85 c0		 test	 eax, eax
  01b93	75 17		 jne	 SHORT $LN15@exlife
  01b95	6a 01		 push	 1
  01b97	b9 00 00 00 00	 mov	 ecx, OFFSET ?g_ExLicense@@3VCExLicense@@A ; g_ExLicense
  01b9c	e8 00 00 00 00	 call	 ?CheckUser@CExLicense@@QAE_NH@Z ; CExLicense::CheckUser
  01ba1	0f b6 c0	 movzx	 eax, al
  01ba4	85 c0		 test	 eax, eax
  01ba6	0f 84 2b 02 00
	00		 je	 $LN16@exlife
$LN15@exlife:

; 561  : 	{
; 562  : 		if(!this->Enable) return;

  01bac	8b 45 fc	 mov	 eax, DWORD PTR _this$[ebp]
  01baf	0f b6 08	 movzx	 ecx, BYTE PTR [eax]
  01bb2	85 c9		 test	 ecx, ecx
  01bb4	75 05		 jne	 SHORT $LN14@exlife
  01bb6	e9 1c 02 00 00	 jmp	 $LN17@exlife
$LN14@exlife:

; 563  : 		LPOBJ lpObj = &gObj[aIndex];

  01bbb	8b 45 08	 mov	 eax, DWORD PTR _aIndex$[ebp]
  01bbe	69 c0 38 2b 00
	00		 imul	 eax, 11064		; 00002b38H
  01bc4	03 05 00 00 00
	00		 add	 eax, DWORD PTR ?gObj@@3PAUOBJECTSTRUCT@@A ; gObj
  01bca	89 45 f8	 mov	 DWORD PTR _lpObj$220785[ebp], eax

; 564  : 		if(lpObj->LifeBank < Count)

  01bcd	8b 45 f8	 mov	 eax, DWORD PTR _lpObj$220785[ebp]
  01bd0	8b 88 ec 27 00
	00		 mov	 ecx, DWORD PTR [eax+10220]
  01bd6	3b 4d 0c	 cmp	 ecx, DWORD PTR _Count$[ebp]
  01bd9	7d 1a		 jge	 SHORT $LN13@exlife

; 565  : 		{
; 566  : 			MsgNormal(aIndex,"[JewelsBank] No %d Life",Count);

  01bdb	8b 45 0c	 mov	 eax, DWORD PTR _Count$[ebp]
  01bde	50		 push	 eax
  01bdf	68 00 00 00 00	 push	 OFFSET ??_C@_0BI@MHFJLCGA@?$FLJewelsBank?$FN?5No?5?$CFd?5Life?$AA@
  01be4	8b 4d 08	 mov	 ecx, DWORD PTR _aIndex$[ebp]
  01be7	51		 push	 ecx
  01be8	e8 00 00 00 00	 call	 ?MsgNormal@@YAXHPADZZ	; MsgNormal
  01bed	83 c4 0c	 add	 esp, 12			; 0000000cH

; 567  : 			return;

  01bf0	e9 e2 01 00 00	 jmp	 $LN17@exlife
$LN13@exlife:

; 568  : 		}
; 569  : 		if (Count == 10)

  01bf5	83 7d 0c 0a	 cmp	 DWORD PTR _Count$[ebp], 10 ; 0000000aH
  01bf9	75 41		 jne	 SHORT $LN12@exlife

; 570  : 			{
; 571  : 				lpObj->LifeBank -= Count;

  01bfb	8b 45 f8	 mov	 eax, DWORD PTR _lpObj$220785[ebp]
  01bfe	8b 88 ec 27 00
	00		 mov	 ecx, DWORD PTR [eax+10220]
  01c04	2b 4d 0c	 sub	 ecx, DWORD PTR _Count$[ebp]
  01c07	8b 55 f8	 mov	 edx, DWORD PTR _lpObj$220785[ebp]
  01c0a	89 8a ec 27 00
	00		 mov	 DWORD PTR [edx+10220], ecx

; 572  : 				lpObj->ExCred += ExLifeTeen;

  01c10	8b 45 fc	 mov	 eax, DWORD PTR _this$[ebp]
  01c13	db 40 4c	 fild	 DWORD PTR [eax+76]
  01c16	8b 4d f8	 mov	 ecx, DWORD PTR _lpObj$220785[ebp]
  01c19	d8 81 a8 22 00
	00		 fadd	 DWORD PTR [ecx+8872]
  01c1f	8b 55 f8	 mov	 edx, DWORD PTR _lpObj$220785[ebp]
  01c22	d9 9a a8 22 00
	00		 fstp	 DWORD PTR [edx+8872]

; 573  : 				CountExLife = ExLifeTeen;

  01c28	8b 45 fc	 mov	 eax, DWORD PTR _this$[ebp]
  01c2b	8b 4d fc	 mov	 ecx, DWORD PTR _this$[ebp]
  01c2e	8b 51 4c	 mov	 edx, DWORD PTR [ecx+76]
  01c31	89 90 04 01 00
	00		 mov	 DWORD PTR [eax+260], edx
  01c37	e9 70 01 00 00	 jmp	 $LN1@exlife
$LN12@exlife:

; 574  : 			}
; 575  : 			else if (Count == 20)

  01c3c	83 7d 0c 14	 cmp	 DWORD PTR _Count$[ebp], 20 ; 00000014H
  01c40	75 41		 jne	 SHORT $LN10@exlife

; 576  : 			{
; 577  : 				lpObj->LifeBank -= Count;

  01c42	8b 45 f8	 mov	 eax, DWORD PTR _lpObj$220785[ebp]
  01c45	8b 88 ec 27 00
	00		 mov	 ecx, DWORD PTR [eax+10220]
  01c4b	2b 4d 0c	 sub	 ecx, DWORD PTR _Count$[ebp]
  01c4e	8b 55 f8	 mov	 edx, DWORD PTR _lpObj$220785[ebp]
  01c51	89 8a ec 27 00
	00		 mov	 DWORD PTR [edx+10220], ecx

; 578  : 				lpObj->ExCred += ExLifeTwenty;

  01c57	8b 45 fc	 mov	 eax, DWORD PTR _this$[ebp]
  01c5a	db 40 50	 fild	 DWORD PTR [eax+80]
  01c5d	8b 4d f8	 mov	 ecx, DWORD PTR _lpObj$220785[ebp]
  01c60	d8 81 a8 22 00
	00		 fadd	 DWORD PTR [ecx+8872]
  01c66	8b 55 f8	 mov	 edx, DWORD PTR _lpObj$220785[ebp]
  01c69	d9 9a a8 22 00
	00		 fstp	 DWORD PTR [edx+8872]

; 579  : 				CountExLife = ExLifeTwenty;

  01c6f	8b 45 fc	 mov	 eax, DWORD PTR _this$[ebp]
  01c72	8b 4d fc	 mov	 ecx, DWORD PTR _this$[ebp]
  01c75	8b 51 50	 mov	 edx, DWORD PTR [ecx+80]
  01c78	89 90 04 01 00
	00		 mov	 DWORD PTR [eax+260], edx
  01c7e	e9 29 01 00 00	 jmp	 $LN1@exlife
$LN10@exlife:

; 580  : 			}
; 581  : 			else if (Count == 30)

  01c83	83 7d 0c 1e	 cmp	 DWORD PTR _Count$[ebp], 30 ; 0000001eH
  01c87	75 41		 jne	 SHORT $LN8@exlife

; 582  : 			{
; 583  : 				lpObj->LifeBank -= Count;

  01c89	8b 45 f8	 mov	 eax, DWORD PTR _lpObj$220785[ebp]
  01c8c	8b 88 ec 27 00
	00		 mov	 ecx, DWORD PTR [eax+10220]
  01c92	2b 4d 0c	 sub	 ecx, DWORD PTR _Count$[ebp]
  01c95	8b 55 f8	 mov	 edx, DWORD PTR _lpObj$220785[ebp]
  01c98	89 8a ec 27 00
	00		 mov	 DWORD PTR [edx+10220], ecx

; 584  : 				lpObj->ExCred += ExLifeThirty;

  01c9e	8b 45 fc	 mov	 eax, DWORD PTR _this$[ebp]
  01ca1	db 40 54	 fild	 DWORD PTR [eax+84]
  01ca4	8b 4d f8	 mov	 ecx, DWORD PTR _lpObj$220785[ebp]
  01ca7	d8 81 a8 22 00
	00		 fadd	 DWORD PTR [ecx+8872]
  01cad	8b 55 f8	 mov	 edx, DWORD PTR _lpObj$220785[ebp]
  01cb0	d9 9a a8 22 00
	00		 fstp	 DWORD PTR [edx+8872]

; 585  : 				CountExLife = ExLifeThirty;

  01cb6	8b 45 fc	 mov	 eax, DWORD PTR _this$[ebp]
  01cb9	8b 4d fc	 mov	 ecx, DWORD PTR _this$[ebp]
  01cbc	8b 51 54	 mov	 edx, DWORD PTR [ecx+84]
  01cbf	89 90 04 01 00
	00		 mov	 DWORD PTR [eax+260], edx
  01cc5	e9 e2 00 00 00	 jmp	 $LN1@exlife
$LN8@exlife:

; 586  : 			}
; 587  : 		else if (Count == 40)

  01cca	83 7d 0c 28	 cmp	 DWORD PTR _Count$[ebp], 40 ; 00000028H
  01cce	75 41		 jne	 SHORT $LN6@exlife

; 588  : 		{
; 589  : 			lpObj->LifeBank -= Count;

  01cd0	8b 45 f8	 mov	 eax, DWORD PTR _lpObj$220785[ebp]
  01cd3	8b 88 ec 27 00
	00		 mov	 ecx, DWORD PTR [eax+10220]
  01cd9	2b 4d 0c	 sub	 ecx, DWORD PTR _Count$[ebp]
  01cdc	8b 55 f8	 mov	 edx, DWORD PTR _lpObj$220785[ebp]
  01cdf	89 8a ec 27 00
	00		 mov	 DWORD PTR [edx+10220], ecx

; 590  : 			lpObj->ExCred += ExLifeForty;

  01ce5	8b 45 fc	 mov	 eax, DWORD PTR _this$[ebp]
  01ce8	db 40 58	 fild	 DWORD PTR [eax+88]
  01ceb	8b 4d f8	 mov	 ecx, DWORD PTR _lpObj$220785[ebp]
  01cee	d8 81 a8 22 00
	00		 fadd	 DWORD PTR [ecx+8872]
  01cf4	8b 55 f8	 mov	 edx, DWORD PTR _lpObj$220785[ebp]
  01cf7	d9 9a a8 22 00
	00		 fstp	 DWORD PTR [edx+8872]

; 591  : 			CountExLife = ExLifeForty;

  01cfd	8b 45 fc	 mov	 eax, DWORD PTR _this$[ebp]
  01d00	8b 4d fc	 mov	 ecx, DWORD PTR _this$[ebp]
  01d03	8b 51 58	 mov	 edx, DWORD PTR [ecx+88]
  01d06	89 90 04 01 00
	00		 mov	 DWORD PTR [eax+260], edx
  01d0c	e9 9b 00 00 00	 jmp	 $LN1@exlife
$LN6@exlife:

; 592  : 		}
; 593  : 		else if (Count == 50)

  01d11	83 7d 0c 32	 cmp	 DWORD PTR _Count$[ebp], 50 ; 00000032H
  01d15	75 3e		 jne	 SHORT $LN4@exlife

; 594  : 		{
; 595  : 			lpObj->LifeBank -= Count;

  01d17	8b 45 f8	 mov	 eax, DWORD PTR _lpObj$220785[ebp]
  01d1a	8b 88 ec 27 00
	00		 mov	 ecx, DWORD PTR [eax+10220]
  01d20	2b 4d 0c	 sub	 ecx, DWORD PTR _Count$[ebp]
  01d23	8b 55 f8	 mov	 edx, DWORD PTR _lpObj$220785[ebp]
  01d26	89 8a ec 27 00
	00		 mov	 DWORD PTR [edx+10220], ecx

; 596  : 			lpObj->ExCred += ExLifeFifty;

  01d2c	8b 45 fc	 mov	 eax, DWORD PTR _this$[ebp]
  01d2f	db 40 5c	 fild	 DWORD PTR [eax+92]
  01d32	8b 4d f8	 mov	 ecx, DWORD PTR _lpObj$220785[ebp]
  01d35	d8 81 a8 22 00
	00		 fadd	 DWORD PTR [ecx+8872]
  01d3b	8b 55 f8	 mov	 edx, DWORD PTR _lpObj$220785[ebp]
  01d3e	d9 9a a8 22 00
	00		 fstp	 DWORD PTR [edx+8872]

; 597  : 			CountExLife = ExLifeFifty;

  01d44	8b 45 fc	 mov	 eax, DWORD PTR _this$[ebp]
  01d47	8b 4d fc	 mov	 ecx, DWORD PTR _this$[ebp]
  01d4a	8b 51 5c	 mov	 edx, DWORD PTR [ecx+92]
  01d4d	89 90 04 01 00
	00		 mov	 DWORD PTR [eax+260], edx
  01d53	eb 57		 jmp	 SHORT $LN1@exlife
$LN4@exlife:

; 598  : 		}
; 599  : 		else if (Count == 100)

  01d55	83 7d 0c 64	 cmp	 DWORD PTR _Count$[ebp], 100 ; 00000064H
  01d59	75 3e		 jne	 SHORT $LN2@exlife

; 600  : 		{
; 601  : 			lpObj->LifeBank -= Count;

  01d5b	8b 45 f8	 mov	 eax, DWORD PTR _lpObj$220785[ebp]
  01d5e	8b 88 ec 27 00
	00		 mov	 ecx, DWORD PTR [eax+10220]
  01d64	2b 4d 0c	 sub	 ecx, DWORD PTR _Count$[ebp]
  01d67	8b 55 f8	 mov	 edx, DWORD PTR _lpObj$220785[ebp]
  01d6a	89 8a ec 27 00
	00		 mov	 DWORD PTR [edx+10220], ecx

; 602  : 			lpObj->ExCred += ExLifeHundred;

  01d70	8b 45 fc	 mov	 eax, DWORD PTR _this$[ebp]
  01d73	db 40 60	 fild	 DWORD PTR [eax+96]
  01d76	8b 4d f8	 mov	 ecx, DWORD PTR _lpObj$220785[ebp]
  01d79	d8 81 a8 22 00
	00		 fadd	 DWORD PTR [ecx+8872]
  01d7f	8b 55 f8	 mov	 edx, DWORD PTR _lpObj$220785[ebp]
  01d82	d9 9a a8 22 00
	00		 fstp	 DWORD PTR [edx+8872]

; 603  : 			CountExLife = ExLifeHundred;

  01d88	8b 45 fc	 mov	 eax, DWORD PTR _this$[ebp]
  01d8b	8b 4d fc	 mov	 ecx, DWORD PTR _this$[ebp]
  01d8e	8b 51 60	 mov	 edx, DWORD PTR [ecx+96]
  01d91	89 90 04 01 00
	00		 mov	 DWORD PTR [eax+260], edx

; 604  : 		}
; 605  : 		else{

  01d97	eb 13		 jmp	 SHORT $LN1@exlife
$LN2@exlife:

; 606  : 				MsgNormal(aIndex,"[JewelsBank] Exchange Only 10 20 30 40 50 100");

  01d99	68 00 00 00 00	 push	 OFFSET ??_C@_0CO@ECEIAILJ@?$FLJewelsBank?$FN?5Exchange?5Only?510?520@
  01d9e	8b 45 08	 mov	 eax, DWORD PTR _aIndex$[ebp]
  01da1	50		 push	 eax
  01da2	e8 00 00 00 00	 call	 ?MsgNormal@@YAXHPADZZ	; MsgNormal
  01da7	83 c4 08	 add	 esp, 8

; 607  : 				return;

  01daa	eb 2b		 jmp	 SHORT $LN17@exlife
$LN1@exlife:

; 608  : 			}
; 609  : 
; 610  : 		ExUserDataSend(aIndex);

  01dac	8b 45 08	 mov	 eax, DWORD PTR _aIndex$[ebp]
  01daf	50		 push	 eax
  01db0	e8 00 00 00 00	 call	 ?ExUserDataSend@@YAXH@Z	; ExUserDataSend
  01db5	83 c4 04	 add	 esp, 4

; 611  : 
; 612  : 		MsgNormal(aIndex,"[JewelsBank] Exchange %d Jewel of Life Added %d Credits " ,Count, CountExLife);

  01db8	8b 45 fc	 mov	 eax, DWORD PTR _this$[ebp]
  01dbb	8b 88 04 01 00
	00		 mov	 ecx, DWORD PTR [eax+260]
  01dc1	51		 push	 ecx
  01dc2	8b 55 0c	 mov	 edx, DWORD PTR _Count$[ebp]
  01dc5	52		 push	 edx
  01dc6	68 00 00 00 00	 push	 OFFSET ??_C@_0DJ@PLLOKGAA@?$FLJewelsBank?$FN?5Exchange?5?$CFd?5Jewel?5o@
  01dcb	8b 45 08	 mov	 eax, DWORD PTR _aIndex$[ebp]
  01dce	50		 push	 eax
  01dcf	e8 00 00 00 00	 call	 ?MsgNormal@@YAXHPADZZ	; MsgNormal
  01dd4	83 c4 10	 add	 esp, 16			; 00000010H
$LN16@exlife:
$LN17@exlife:

; 613  : 	}
; 614  : }

  01dd7	5f		 pop	 edi
  01dd8	5e		 pop	 esi
  01dd9	5b		 pop	 ebx
  01dda	8b e5		 mov	 esp, ebp
  01ddc	5d		 pop	 ebp
  01ddd	c2 08 00	 ret	 8
?exlife@JewelsBank@@QAEXHH@Z ENDP			; JewelsBank::exlife
_TEXT	ENDS
PUBLIC	??_C@_0DN@MPNJMNLN@?$FLJewelsBank?$FN?5Exchange?5?$CFd?5Jewel?5o@ ; `string'
PUBLIC	?excreateon@JewelsBank@@QAEXHH@Z		; JewelsBank::excreateon
;	COMDAT ??_C@_0DN@MPNJMNLN@?$FLJewelsBank?$FN?5Exchange?5?$CFd?5Jewel?5o@
CONST	SEGMENT
??_C@_0DN@MPNJMNLN@?$FLJewelsBank?$FN?5Exchange?5?$CFd?5Jewel?5o@ DB '[Je'
	DB	'welsBank] Exchange %d Jewel of Createon Added %d Credits ', 00H ; `string'
; Function compile flags: /Odtp /ZI
CONST	ENDS
_TEXT	SEGMENT
_lpObj$220809 = -8					; size = 4
_this$ = -4						; size = 4
_aIndex$ = 8						; size = 4
_Count$ = 12						; size = 4
?excreateon@JewelsBank@@QAEXHH@Z PROC			; JewelsBank::excreateon
; _this$ = ecx

; 617  : {

  01de0	55		 push	 ebp
  01de1	8b ec		 mov	 ebp, esp
  01de3	83 ec 48	 sub	 esp, 72			; 00000048H
  01de6	53		 push	 ebx
  01de7	56		 push	 esi
  01de8	57		 push	 edi
  01de9	89 4d fc	 mov	 DWORD PTR _this$[ebp], ecx

; 618  : 	if(g_ExLicense.CheckUser(eExUB::Local3) || g_ExLicense.CheckUser(SILVER1) || g_ExLicense.CheckUser(SILVER2) || g_ExLicense.CheckUser(eExUB::drynea))

  01dec	6a 1c		 push	 28			; 0000001cH
  01dee	b9 00 00 00 00	 mov	 ecx, OFFSET ?g_ExLicense@@3VCExLicense@@A ; g_ExLicense
  01df3	e8 00 00 00 00	 call	 ?CheckUser@CExLicense@@QAE_NH@Z ; CExLicense::CheckUser
  01df8	0f b6 c0	 movzx	 eax, al
  01dfb	85 c0		 test	 eax, eax
  01dfd	75 3d		 jne	 SHORT $LN15@excreateon
  01dff	6a 07		 push	 7
  01e01	b9 00 00 00 00	 mov	 ecx, OFFSET ?g_ExLicense@@3VCExLicense@@A ; g_ExLicense
  01e06	e8 00 00 00 00	 call	 ?CheckUser@CExLicense@@QAE_NH@Z ; CExLicense::CheckUser
  01e0b	0f b6 c0	 movzx	 eax, al
  01e0e	85 c0		 test	 eax, eax
  01e10	75 2a		 jne	 SHORT $LN15@excreateon
  01e12	6a 08		 push	 8
  01e14	b9 00 00 00 00	 mov	 ecx, OFFSET ?g_ExLicense@@3VCExLicense@@A ; g_ExLicense
  01e19	e8 00 00 00 00	 call	 ?CheckUser@CExLicense@@QAE_NH@Z ; CExLicense::CheckUser
  01e1e	0f b6 c0	 movzx	 eax, al
  01e21	85 c0		 test	 eax, eax
  01e23	75 17		 jne	 SHORT $LN15@excreateon
  01e25	6a 01		 push	 1
  01e27	b9 00 00 00 00	 mov	 ecx, OFFSET ?g_ExLicense@@3VCExLicense@@A ; g_ExLicense
  01e2c	e8 00 00 00 00	 call	 ?CheckUser@CExLicense@@QAE_NH@Z ; CExLicense::CheckUser
  01e31	0f b6 c0	 movzx	 eax, al
  01e34	85 c0		 test	 eax, eax
  01e36	0f 84 2b 02 00
	00		 je	 $LN16@excreateon
$LN15@excreateon:

; 619  : 	{
; 620  : 		if(!this->Enable) return;

  01e3c	8b 45 fc	 mov	 eax, DWORD PTR _this$[ebp]
  01e3f	0f b6 08	 movzx	 ecx, BYTE PTR [eax]
  01e42	85 c9		 test	 ecx, ecx
  01e44	75 05		 jne	 SHORT $LN14@excreateon
  01e46	e9 1c 02 00 00	 jmp	 $LN17@excreateon
$LN14@excreateon:

; 621  : 		LPOBJ lpObj = &gObj[aIndex];

  01e4b	8b 45 08	 mov	 eax, DWORD PTR _aIndex$[ebp]
  01e4e	69 c0 38 2b 00
	00		 imul	 eax, 11064		; 00002b38H
  01e54	03 05 00 00 00
	00		 add	 eax, DWORD PTR ?gObj@@3PAUOBJECTSTRUCT@@A ; gObj
  01e5a	89 45 f8	 mov	 DWORD PTR _lpObj$220809[ebp], eax

; 622  : 		if(lpObj->CreateonBank < Count)

  01e5d	8b 45 f8	 mov	 eax, DWORD PTR _lpObj$220809[ebp]
  01e60	8b 88 f0 27 00
	00		 mov	 ecx, DWORD PTR [eax+10224]
  01e66	3b 4d 0c	 cmp	 ecx, DWORD PTR _Count$[ebp]
  01e69	7d 1a		 jge	 SHORT $LN13@excreateon

; 623  : 		{
; 624  : 			MsgNormal(aIndex,"[JewelsBank] No %d Createon",Count);

  01e6b	8b 45 0c	 mov	 eax, DWORD PTR _Count$[ebp]
  01e6e	50		 push	 eax
  01e6f	68 00 00 00 00	 push	 OFFSET ??_C@_0BM@HPMLFNFO@?$FLJewelsBank?$FN?5No?5?$CFd?5Createon?$AA@
  01e74	8b 4d 08	 mov	 ecx, DWORD PTR _aIndex$[ebp]
  01e77	51		 push	 ecx
  01e78	e8 00 00 00 00	 call	 ?MsgNormal@@YAXHPADZZ	; MsgNormal
  01e7d	83 c4 0c	 add	 esp, 12			; 0000000cH

; 625  : 			return;

  01e80	e9 e2 01 00 00	 jmp	 $LN17@excreateon
$LN13@excreateon:

; 626  : 		}
; 627  : 		if (Count == 10)

  01e85	83 7d 0c 0a	 cmp	 DWORD PTR _Count$[ebp], 10 ; 0000000aH
  01e89	75 41		 jne	 SHORT $LN12@excreateon

; 628  : 			{
; 629  : 				lpObj->CreateonBank -= Count;

  01e8b	8b 45 f8	 mov	 eax, DWORD PTR _lpObj$220809[ebp]
  01e8e	8b 88 f0 27 00
	00		 mov	 ecx, DWORD PTR [eax+10224]
  01e94	2b 4d 0c	 sub	 ecx, DWORD PTR _Count$[ebp]
  01e97	8b 55 f8	 mov	 edx, DWORD PTR _lpObj$220809[ebp]
  01e9a	89 8a f0 27 00
	00		 mov	 DWORD PTR [edx+10224], ecx

; 630  : 				lpObj->ExCred += ExCreateonTeen;

  01ea0	8b 45 fc	 mov	 eax, DWORD PTR _this$[ebp]
  01ea3	db 40 64	 fild	 DWORD PTR [eax+100]
  01ea6	8b 4d f8	 mov	 ecx, DWORD PTR _lpObj$220809[ebp]
  01ea9	d8 81 a8 22 00
	00		 fadd	 DWORD PTR [ecx+8872]
  01eaf	8b 55 f8	 mov	 edx, DWORD PTR _lpObj$220809[ebp]
  01eb2	d9 9a a8 22 00
	00		 fstp	 DWORD PTR [edx+8872]

; 631  : 				CountExCreateon = ExCreateonTeen;

  01eb8	8b 45 fc	 mov	 eax, DWORD PTR _this$[ebp]
  01ebb	8b 4d fc	 mov	 ecx, DWORD PTR _this$[ebp]
  01ebe	8b 51 64	 mov	 edx, DWORD PTR [ecx+100]
  01ec1	89 90 08 01 00
	00		 mov	 DWORD PTR [eax+264], edx
  01ec7	e9 70 01 00 00	 jmp	 $LN1@excreateon
$LN12@excreateon:

; 632  : 			}
; 633  : 			else if (Count == 20)

  01ecc	83 7d 0c 14	 cmp	 DWORD PTR _Count$[ebp], 20 ; 00000014H
  01ed0	75 41		 jne	 SHORT $LN10@excreateon

; 634  : 			{
; 635  : 				lpObj->CreateonBank -= Count;

  01ed2	8b 45 f8	 mov	 eax, DWORD PTR _lpObj$220809[ebp]
  01ed5	8b 88 f0 27 00
	00		 mov	 ecx, DWORD PTR [eax+10224]
  01edb	2b 4d 0c	 sub	 ecx, DWORD PTR _Count$[ebp]
  01ede	8b 55 f8	 mov	 edx, DWORD PTR _lpObj$220809[ebp]
  01ee1	89 8a f0 27 00
	00		 mov	 DWORD PTR [edx+10224], ecx

; 636  : 				lpObj->ExCred += ExCreateonTwenty;

  01ee7	8b 45 fc	 mov	 eax, DWORD PTR _this$[ebp]
  01eea	db 40 68	 fild	 DWORD PTR [eax+104]
  01eed	8b 4d f8	 mov	 ecx, DWORD PTR _lpObj$220809[ebp]
  01ef0	d8 81 a8 22 00
	00		 fadd	 DWORD PTR [ecx+8872]
  01ef6	8b 55 f8	 mov	 edx, DWORD PTR _lpObj$220809[ebp]
  01ef9	d9 9a a8 22 00
	00		 fstp	 DWORD PTR [edx+8872]

; 637  : 				CountExCreateon = ExCreateonTwenty;

  01eff	8b 45 fc	 mov	 eax, DWORD PTR _this$[ebp]
  01f02	8b 4d fc	 mov	 ecx, DWORD PTR _this$[ebp]
  01f05	8b 51 68	 mov	 edx, DWORD PTR [ecx+104]
  01f08	89 90 08 01 00
	00		 mov	 DWORD PTR [eax+264], edx
  01f0e	e9 29 01 00 00	 jmp	 $LN1@excreateon
$LN10@excreateon:

; 638  : 			}
; 639  : 			else if (Count == 30)

  01f13	83 7d 0c 1e	 cmp	 DWORD PTR _Count$[ebp], 30 ; 0000001eH
  01f17	75 41		 jne	 SHORT $LN8@excreateon

; 640  : 			{
; 641  : 				lpObj->CreateonBank -= Count;

  01f19	8b 45 f8	 mov	 eax, DWORD PTR _lpObj$220809[ebp]
  01f1c	8b 88 f0 27 00
	00		 mov	 ecx, DWORD PTR [eax+10224]
  01f22	2b 4d 0c	 sub	 ecx, DWORD PTR _Count$[ebp]
  01f25	8b 55 f8	 mov	 edx, DWORD PTR _lpObj$220809[ebp]
  01f28	89 8a f0 27 00
	00		 mov	 DWORD PTR [edx+10224], ecx

; 642  : 				lpObj->ExCred += ExCreateonThirty;

  01f2e	8b 45 fc	 mov	 eax, DWORD PTR _this$[ebp]
  01f31	db 40 6c	 fild	 DWORD PTR [eax+108]
  01f34	8b 4d f8	 mov	 ecx, DWORD PTR _lpObj$220809[ebp]
  01f37	d8 81 a8 22 00
	00		 fadd	 DWORD PTR [ecx+8872]
  01f3d	8b 55 f8	 mov	 edx, DWORD PTR _lpObj$220809[ebp]
  01f40	d9 9a a8 22 00
	00		 fstp	 DWORD PTR [edx+8872]

; 643  : 				CountExCreateon = ExCreateonThirty;

  01f46	8b 45 fc	 mov	 eax, DWORD PTR _this$[ebp]
  01f49	8b 4d fc	 mov	 ecx, DWORD PTR _this$[ebp]
  01f4c	8b 51 6c	 mov	 edx, DWORD PTR [ecx+108]
  01f4f	89 90 08 01 00
	00		 mov	 DWORD PTR [eax+264], edx
  01f55	e9 e2 00 00 00	 jmp	 $LN1@excreateon
$LN8@excreateon:

; 644  : 			}
; 645  : 		else if (Count == 40)

  01f5a	83 7d 0c 28	 cmp	 DWORD PTR _Count$[ebp], 40 ; 00000028H
  01f5e	75 41		 jne	 SHORT $LN6@excreateon

; 646  : 		{
; 647  : 			lpObj->CreateonBank -= Count;

  01f60	8b 45 f8	 mov	 eax, DWORD PTR _lpObj$220809[ebp]
  01f63	8b 88 f0 27 00
	00		 mov	 ecx, DWORD PTR [eax+10224]
  01f69	2b 4d 0c	 sub	 ecx, DWORD PTR _Count$[ebp]
  01f6c	8b 55 f8	 mov	 edx, DWORD PTR _lpObj$220809[ebp]
  01f6f	89 8a f0 27 00
	00		 mov	 DWORD PTR [edx+10224], ecx

; 648  : 			lpObj->ExCred += ExCreateonForty;

  01f75	8b 45 fc	 mov	 eax, DWORD PTR _this$[ebp]
  01f78	db 40 70	 fild	 DWORD PTR [eax+112]
  01f7b	8b 4d f8	 mov	 ecx, DWORD PTR _lpObj$220809[ebp]
  01f7e	d8 81 a8 22 00
	00		 fadd	 DWORD PTR [ecx+8872]
  01f84	8b 55 f8	 mov	 edx, DWORD PTR _lpObj$220809[ebp]
  01f87	d9 9a a8 22 00
	00		 fstp	 DWORD PTR [edx+8872]

; 649  : 			CountExCreateon = ExCreateonForty;

  01f8d	8b 45 fc	 mov	 eax, DWORD PTR _this$[ebp]
  01f90	8b 4d fc	 mov	 ecx, DWORD PTR _this$[ebp]
  01f93	8b 51 70	 mov	 edx, DWORD PTR [ecx+112]
  01f96	89 90 08 01 00
	00		 mov	 DWORD PTR [eax+264], edx
  01f9c	e9 9b 00 00 00	 jmp	 $LN1@excreateon
$LN6@excreateon:

; 650  : 		}
; 651  : 		else if (Count == 50)

  01fa1	83 7d 0c 32	 cmp	 DWORD PTR _Count$[ebp], 50 ; 00000032H
  01fa5	75 3e		 jne	 SHORT $LN4@excreateon

; 652  : 		{
; 653  : 			lpObj->CreateonBank -= Count;

  01fa7	8b 45 f8	 mov	 eax, DWORD PTR _lpObj$220809[ebp]
  01faa	8b 88 f0 27 00
	00		 mov	 ecx, DWORD PTR [eax+10224]
  01fb0	2b 4d 0c	 sub	 ecx, DWORD PTR _Count$[ebp]
  01fb3	8b 55 f8	 mov	 edx, DWORD PTR _lpObj$220809[ebp]
  01fb6	89 8a f0 27 00
	00		 mov	 DWORD PTR [edx+10224], ecx

; 654  : 			lpObj->ExCred += ExCreateonFifty;

  01fbc	8b 45 fc	 mov	 eax, DWORD PTR _this$[ebp]
  01fbf	db 40 74	 fild	 DWORD PTR [eax+116]
  01fc2	8b 4d f8	 mov	 ecx, DWORD PTR _lpObj$220809[ebp]
  01fc5	d8 81 a8 22 00
	00		 fadd	 DWORD PTR [ecx+8872]
  01fcb	8b 55 f8	 mov	 edx, DWORD PTR _lpObj$220809[ebp]
  01fce	d9 9a a8 22 00
	00		 fstp	 DWORD PTR [edx+8872]

; 655  : 			CountExCreateon = ExCreateonFifty;

  01fd4	8b 45 fc	 mov	 eax, DWORD PTR _this$[ebp]
  01fd7	8b 4d fc	 mov	 ecx, DWORD PTR _this$[ebp]
  01fda	8b 51 74	 mov	 edx, DWORD PTR [ecx+116]
  01fdd	89 90 08 01 00
	00		 mov	 DWORD PTR [eax+264], edx
  01fe3	eb 57		 jmp	 SHORT $LN1@excreateon
$LN4@excreateon:

; 656  : 		}
; 657  : 		else if (Count == 100)

  01fe5	83 7d 0c 64	 cmp	 DWORD PTR _Count$[ebp], 100 ; 00000064H
  01fe9	75 3e		 jne	 SHORT $LN2@excreateon

; 658  : 		{
; 659  : 			lpObj->CreateonBank -= Count;

  01feb	8b 45 f8	 mov	 eax, DWORD PTR _lpObj$220809[ebp]
  01fee	8b 88 f0 27 00
	00		 mov	 ecx, DWORD PTR [eax+10224]
  01ff4	2b 4d 0c	 sub	 ecx, DWORD PTR _Count$[ebp]
  01ff7	8b 55 f8	 mov	 edx, DWORD PTR _lpObj$220809[ebp]
  01ffa	89 8a f0 27 00
	00		 mov	 DWORD PTR [edx+10224], ecx

; 660  : 			lpObj->ExCred += ExCreateonHundred;

  02000	8b 45 fc	 mov	 eax, DWORD PTR _this$[ebp]
  02003	db 40 78	 fild	 DWORD PTR [eax+120]
  02006	8b 4d f8	 mov	 ecx, DWORD PTR _lpObj$220809[ebp]
  02009	d8 81 a8 22 00
	00		 fadd	 DWORD PTR [ecx+8872]
  0200f	8b 55 f8	 mov	 edx, DWORD PTR _lpObj$220809[ebp]
  02012	d9 9a a8 22 00
	00		 fstp	 DWORD PTR [edx+8872]

; 661  : 			CountExCreateon = ExCreateonHundred;

  02018	8b 45 fc	 mov	 eax, DWORD PTR _this$[ebp]
  0201b	8b 4d fc	 mov	 ecx, DWORD PTR _this$[ebp]
  0201e	8b 51 78	 mov	 edx, DWORD PTR [ecx+120]
  02021	89 90 08 01 00
	00		 mov	 DWORD PTR [eax+264], edx

; 662  : 		}
; 663  : 		else{

  02027	eb 13		 jmp	 SHORT $LN1@excreateon
$LN2@excreateon:

; 664  : 				MsgNormal(aIndex,"[JewelsBank] Exchange Only 10 20 30 40 50 100");

  02029	68 00 00 00 00	 push	 OFFSET ??_C@_0CO@ECEIAILJ@?$FLJewelsBank?$FN?5Exchange?5Only?510?520@
  0202e	8b 45 08	 mov	 eax, DWORD PTR _aIndex$[ebp]
  02031	50		 push	 eax
  02032	e8 00 00 00 00	 call	 ?MsgNormal@@YAXHPADZZ	; MsgNormal
  02037	83 c4 08	 add	 esp, 8

; 665  : 				return;

  0203a	eb 2b		 jmp	 SHORT $LN17@excreateon
$LN1@excreateon:

; 666  : 			}
; 667  : 
; 668  : 		ExUserDataSend(aIndex);

  0203c	8b 45 08	 mov	 eax, DWORD PTR _aIndex$[ebp]
  0203f	50		 push	 eax
  02040	e8 00 00 00 00	 call	 ?ExUserDataSend@@YAXH@Z	; ExUserDataSend
  02045	83 c4 04	 add	 esp, 4

; 669  : 
; 670  : 		MsgNormal(aIndex,"[JewelsBank] Exchange %d Jewel of Createon Added %d Credits " ,Count, CountExCreateon);

  02048	8b 45 fc	 mov	 eax, DWORD PTR _this$[ebp]
  0204b	8b 88 08 01 00
	00		 mov	 ecx, DWORD PTR [eax+264]
  02051	51		 push	 ecx
  02052	8b 55 0c	 mov	 edx, DWORD PTR _Count$[ebp]
  02055	52		 push	 edx
  02056	68 00 00 00 00	 push	 OFFSET ??_C@_0DN@MPNJMNLN@?$FLJewelsBank?$FN?5Exchange?5?$CFd?5Jewel?5o@
  0205b	8b 45 08	 mov	 eax, DWORD PTR _aIndex$[ebp]
  0205e	50		 push	 eax
  0205f	e8 00 00 00 00	 call	 ?MsgNormal@@YAXHPADZZ	; MsgNormal
  02064	83 c4 10	 add	 esp, 16			; 00000010H
$LN16@excreateon:
$LN17@excreateon:

; 671  : 	}
; 672  : }

  02067	5f		 pop	 edi
  02068	5e		 pop	 esi
  02069	5b		 pop	 ebx
  0206a	8b e5		 mov	 esp, ebp
  0206c	5d		 pop	 ebp
  0206d	c2 08 00	 ret	 8
?excreateon@JewelsBank@@QAEXHH@Z ENDP			; JewelsBank::excreateon
_TEXT	ENDS
PUBLIC	??_C@_0DN@JNMMHOMM@?$FLJewelsBank?$FN?5Exchange?5?$CFd?5Jewel?5o@ ; `string'
PUBLIC	??_C@_0BM@HJEHFEFN@?$FLJewelsBank?$FN?5No?5?$CFd?5Guardian?$AA@ ; `string'
PUBLIC	?exGuardian@JewelsBank@@QAEXHH@Z		; JewelsBank::exGuardian
;	COMDAT ??_C@_0DN@JNMMHOMM@?$FLJewelsBank?$FN?5Exchange?5?$CFd?5Jewel?5o@
CONST	SEGMENT
??_C@_0DN@JNMMHOMM@?$FLJewelsBank?$FN?5Exchange?5?$CFd?5Jewel?5o@ DB '[Je'
	DB	'welsBank] Exchange %d Jewel of Guardian Added %d Credits ', 00H ; `string'
CONST	ENDS
;	COMDAT ??_C@_0BM@HJEHFEFN@?$FLJewelsBank?$FN?5No?5?$CFd?5Guardian?$AA@
CONST	SEGMENT
??_C@_0BM@HJEHFEFN@?$FLJewelsBank?$FN?5No?5?$CFd?5Guardian?$AA@ DB '[Jewe'
	DB	'lsBank] No %d Guardian', 00H		; `string'
; Function compile flags: /Odtp /ZI
CONST	ENDS
_TEXT	SEGMENT
_CountJewels$ = -12					; size = 4
_lpObj$ = -8						; size = 4
_this$ = -4						; size = 4
_aIndex$ = 8						; size = 4
_Count$ = 12						; size = 4
?exGuardian@JewelsBank@@QAEXHH@Z PROC			; JewelsBank::exGuardian
; _this$ = ecx

; 675  : {

  02070	55		 push	 ebp
  02071	8b ec		 mov	 ebp, esp
  02073	83 ec 4c	 sub	 esp, 76			; 0000004cH
  02076	53		 push	 ebx
  02077	56		 push	 esi
  02078	57		 push	 edi
  02079	89 4d fc	 mov	 DWORD PTR _this$[ebp], ecx

; 676  : 	if( !g_ExLicense.CheckUser(eExUB::Local3)  && 
; 677  : 		!g_ExLicense.CheckUser(eExUB::SILVER1) &&
; 678  : 		!g_ExLicense.CheckUser(eExUB::SILVER2) && 
; 679  : 		!g_ExLicense.CheckUser(eExUB::drynea) )

  0207c	6a 1c		 push	 28			; 0000001cH
  0207e	b9 00 00 00 00	 mov	 ecx, OFFSET ?g_ExLicense@@3VCExLicense@@A ; g_ExLicense
  02083	e8 00 00 00 00	 call	 ?CheckUser@CExLicense@@QAE_NH@Z ; CExLicense::CheckUser
  02088	0f b6 c0	 movzx	 eax, al
  0208b	85 c0		 test	 eax, eax
  0208d	75 3e		 jne	 SHORT $LN15@exGuardian
  0208f	6a 07		 push	 7
  02091	b9 00 00 00 00	 mov	 ecx, OFFSET ?g_ExLicense@@3VCExLicense@@A ; g_ExLicense
  02096	e8 00 00 00 00	 call	 ?CheckUser@CExLicense@@QAE_NH@Z ; CExLicense::CheckUser
  0209b	0f b6 c0	 movzx	 eax, al
  0209e	85 c0		 test	 eax, eax
  020a0	75 2b		 jne	 SHORT $LN15@exGuardian
  020a2	6a 08		 push	 8
  020a4	b9 00 00 00 00	 mov	 ecx, OFFSET ?g_ExLicense@@3VCExLicense@@A ; g_ExLicense
  020a9	e8 00 00 00 00	 call	 ?CheckUser@CExLicense@@QAE_NH@Z ; CExLicense::CheckUser
  020ae	0f b6 c0	 movzx	 eax, al
  020b1	85 c0		 test	 eax, eax
  020b3	75 18		 jne	 SHORT $LN15@exGuardian
  020b5	6a 01		 push	 1
  020b7	b9 00 00 00 00	 mov	 ecx, OFFSET ?g_ExLicense@@3VCExLicense@@A ; g_ExLicense
  020bc	e8 00 00 00 00	 call	 ?CheckUser@CExLicense@@QAE_NH@Z ; CExLicense::CheckUser
  020c1	0f b6 c0	 movzx	 eax, al
  020c4	85 c0		 test	 eax, eax
  020c6	75 05		 jne	 SHORT $LN15@exGuardian

; 680  : 	{
; 681  : 		return;

  020c8	e9 26 02 00 00	 jmp	 $LN16@exGuardian
$LN15@exGuardian:

; 682  : 	}
; 683  : 
; 684  : 	if(!this->Enable) return;

  020cd	8b 45 fc	 mov	 eax, DWORD PTR _this$[ebp]
  020d0	0f b6 08	 movzx	 ecx, BYTE PTR [eax]
  020d3	85 c9		 test	 ecx, ecx
  020d5	75 05		 jne	 SHORT $LN14@exGuardian
  020d7	e9 17 02 00 00	 jmp	 $LN16@exGuardian
$LN14@exGuardian:

; 685  : 
; 686  : 	LPOBJ lpObj = &gObj[aIndex];

  020dc	8b 45 08	 mov	 eax, DWORD PTR _aIndex$[ebp]
  020df	69 c0 38 2b 00
	00		 imul	 eax, 11064		; 00002b38H
  020e5	03 05 00 00 00
	00		 add	 eax, DWORD PTR ?gObj@@3PAUOBJECTSTRUCT@@A ; gObj
  020eb	89 45 f8	 mov	 DWORD PTR _lpObj$[ebp], eax

; 687  : 
; 688  : 	if(lpObj->GuardianBank < Count)

  020ee	8b 45 f8	 mov	 eax, DWORD PTR _lpObj$[ebp]
  020f1	8b 88 f4 27 00
	00		 mov	 ecx, DWORD PTR [eax+10228]
  020f7	3b 4d 0c	 cmp	 ecx, DWORD PTR _Count$[ebp]
  020fa	7d 1a		 jge	 SHORT $LN13@exGuardian

; 689  : 	{
; 690  : 		MsgNormal(aIndex,"[JewelsBank] No %d Guardian",Count);

  020fc	8b 45 0c	 mov	 eax, DWORD PTR _Count$[ebp]
  020ff	50		 push	 eax
  02100	68 00 00 00 00	 push	 OFFSET ??_C@_0BM@HJEHFEFN@?$FLJewelsBank?$FN?5No?5?$CFd?5Guardian?$AA@
  02105	8b 4d 08	 mov	 ecx, DWORD PTR _aIndex$[ebp]
  02108	51		 push	 ecx
  02109	e8 00 00 00 00	 call	 ?MsgNormal@@YAXHPADZZ	; MsgNormal
  0210e	83 c4 0c	 add	 esp, 12			; 0000000cH

; 691  : 		return;

  02111	e9 dd 01 00 00	 jmp	 $LN16@exGuardian
$LN13@exGuardian:

; 692  : 	}
; 693  : 
; 694  : 	int CountJewels = 0;

  02116	c7 45 f4 00 00
	00 00		 mov	 DWORD PTR _CountJewels$[ebp], 0

; 695  : 
; 696  : 	if (Count == 10)

  0211d	83 7d 0c 0a	 cmp	 DWORD PTR _Count$[ebp], 10 ; 0000000aH
  02121	75 3b		 jne	 SHORT $LN12@exGuardian

; 697  : 	{
; 698  : 		lpObj->GuardianBank -= Count;

  02123	8b 45 f8	 mov	 eax, DWORD PTR _lpObj$[ebp]
  02126	8b 88 f4 27 00
	00		 mov	 ecx, DWORD PTR [eax+10228]
  0212c	2b 4d 0c	 sub	 ecx, DWORD PTR _Count$[ebp]
  0212f	8b 55 f8	 mov	 edx, DWORD PTR _lpObj$[ebp]
  02132	89 8a f4 27 00
	00		 mov	 DWORD PTR [edx+10228], ecx

; 699  : 		lpObj->ExCred += this->ExGuardianTeen;

  02138	8b 45 fc	 mov	 eax, DWORD PTR _this$[ebp]
  0213b	db 40 7c	 fild	 DWORD PTR [eax+124]
  0213e	8b 4d f8	 mov	 ecx, DWORD PTR _lpObj$[ebp]
  02141	d8 81 a8 22 00
	00		 fadd	 DWORD PTR [ecx+8872]
  02147	8b 55 f8	 mov	 edx, DWORD PTR _lpObj$[ebp]
  0214a	d9 9a a8 22 00
	00		 fstp	 DWORD PTR [edx+8872]

; 700  : 		CountJewels = this->ExGuardianTeen;

  02150	8b 45 fc	 mov	 eax, DWORD PTR _this$[ebp]
  02153	8b 48 7c	 mov	 ecx, DWORD PTR [eax+124]
  02156	89 4d f4	 mov	 DWORD PTR _CountJewels$[ebp], ecx
  02159	e9 70 01 00 00	 jmp	 $LN1@exGuardian
$LN12@exGuardian:

; 701  : 	}
; 702  : 	else if (Count == 20)

  0215e	83 7d 0c 14	 cmp	 DWORD PTR _Count$[ebp], 20 ; 00000014H
  02162	75 41		 jne	 SHORT $LN10@exGuardian

; 703  : 	{
; 704  : 		lpObj->GuardianBank -= Count;

  02164	8b 45 f8	 mov	 eax, DWORD PTR _lpObj$[ebp]
  02167	8b 88 f4 27 00
	00		 mov	 ecx, DWORD PTR [eax+10228]
  0216d	2b 4d 0c	 sub	 ecx, DWORD PTR _Count$[ebp]
  02170	8b 55 f8	 mov	 edx, DWORD PTR _lpObj$[ebp]
  02173	89 8a f4 27 00
	00		 mov	 DWORD PTR [edx+10228], ecx

; 705  : 		lpObj->ExCred += this->ExGuardianTwenty;

  02179	8b 45 fc	 mov	 eax, DWORD PTR _this$[ebp]
  0217c	db 80 80 00 00
	00		 fild	 DWORD PTR [eax+128]
  02182	8b 4d f8	 mov	 ecx, DWORD PTR _lpObj$[ebp]
  02185	d8 81 a8 22 00
	00		 fadd	 DWORD PTR [ecx+8872]
  0218b	8b 55 f8	 mov	 edx, DWORD PTR _lpObj$[ebp]
  0218e	d9 9a a8 22 00
	00		 fstp	 DWORD PTR [edx+8872]

; 706  : 		CountJewels = this->ExGuardianTwenty;

  02194	8b 45 fc	 mov	 eax, DWORD PTR _this$[ebp]
  02197	8b 88 80 00 00
	00		 mov	 ecx, DWORD PTR [eax+128]
  0219d	89 4d f4	 mov	 DWORD PTR _CountJewels$[ebp], ecx
  021a0	e9 29 01 00 00	 jmp	 $LN1@exGuardian
$LN10@exGuardian:

; 707  : 	}
; 708  : 	else if (Count == 30)

  021a5	83 7d 0c 1e	 cmp	 DWORD PTR _Count$[ebp], 30 ; 0000001eH
  021a9	75 41		 jne	 SHORT $LN8@exGuardian

; 709  : 	{
; 710  : 		lpObj->GuardianBank -= Count;

  021ab	8b 45 f8	 mov	 eax, DWORD PTR _lpObj$[ebp]
  021ae	8b 88 f4 27 00
	00		 mov	 ecx, DWORD PTR [eax+10228]
  021b4	2b 4d 0c	 sub	 ecx, DWORD PTR _Count$[ebp]
  021b7	8b 55 f8	 mov	 edx, DWORD PTR _lpObj$[ebp]
  021ba	89 8a f4 27 00
	00		 mov	 DWORD PTR [edx+10228], ecx

; 711  : 		lpObj->ExCred += this->ExGuardianThirty;

  021c0	8b 45 fc	 mov	 eax, DWORD PTR _this$[ebp]
  021c3	db 80 84 00 00
	00		 fild	 DWORD PTR [eax+132]
  021c9	8b 4d f8	 mov	 ecx, DWORD PTR _lpObj$[ebp]
  021cc	d8 81 a8 22 00
	00		 fadd	 DWORD PTR [ecx+8872]
  021d2	8b 55 f8	 mov	 edx, DWORD PTR _lpObj$[ebp]
  021d5	d9 9a a8 22 00
	00		 fstp	 DWORD PTR [edx+8872]

; 712  : 		CountJewels = this->ExGuardianThirty;

  021db	8b 45 fc	 mov	 eax, DWORD PTR _this$[ebp]
  021de	8b 88 84 00 00
	00		 mov	 ecx, DWORD PTR [eax+132]
  021e4	89 4d f4	 mov	 DWORD PTR _CountJewels$[ebp], ecx
  021e7	e9 e2 00 00 00	 jmp	 $LN1@exGuardian
$LN8@exGuardian:

; 713  : 	}
; 714  : 	else if (Count == 40)

  021ec	83 7d 0c 28	 cmp	 DWORD PTR _Count$[ebp], 40 ; 00000028H
  021f0	75 41		 jne	 SHORT $LN6@exGuardian

; 715  : 	{
; 716  : 		lpObj->GuardianBank -= Count;

  021f2	8b 45 f8	 mov	 eax, DWORD PTR _lpObj$[ebp]
  021f5	8b 88 f4 27 00
	00		 mov	 ecx, DWORD PTR [eax+10228]
  021fb	2b 4d 0c	 sub	 ecx, DWORD PTR _Count$[ebp]
  021fe	8b 55 f8	 mov	 edx, DWORD PTR _lpObj$[ebp]
  02201	89 8a f4 27 00
	00		 mov	 DWORD PTR [edx+10228], ecx

; 717  : 		lpObj->ExCred += this->ExGuardianForty;

  02207	8b 45 fc	 mov	 eax, DWORD PTR _this$[ebp]
  0220a	db 80 88 00 00
	00		 fild	 DWORD PTR [eax+136]
  02210	8b 4d f8	 mov	 ecx, DWORD PTR _lpObj$[ebp]
  02213	d8 81 a8 22 00
	00		 fadd	 DWORD PTR [ecx+8872]
  02219	8b 55 f8	 mov	 edx, DWORD PTR _lpObj$[ebp]
  0221c	d9 9a a8 22 00
	00		 fstp	 DWORD PTR [edx+8872]

; 718  : 		CountJewels = this->ExGuardianForty;

  02222	8b 45 fc	 mov	 eax, DWORD PTR _this$[ebp]
  02225	8b 88 88 00 00
	00		 mov	 ecx, DWORD PTR [eax+136]
  0222b	89 4d f4	 mov	 DWORD PTR _CountJewels$[ebp], ecx
  0222e	e9 9b 00 00 00	 jmp	 $LN1@exGuardian
$LN6@exGuardian:

; 719  : 	}
; 720  : 	else if (Count == 50)

  02233	83 7d 0c 32	 cmp	 DWORD PTR _Count$[ebp], 50 ; 00000032H
  02237	75 3e		 jne	 SHORT $LN4@exGuardian

; 721  : 	{
; 722  : 		lpObj->GuardianBank -= Count;

  02239	8b 45 f8	 mov	 eax, DWORD PTR _lpObj$[ebp]
  0223c	8b 88 f4 27 00
	00		 mov	 ecx, DWORD PTR [eax+10228]
  02242	2b 4d 0c	 sub	 ecx, DWORD PTR _Count$[ebp]
  02245	8b 55 f8	 mov	 edx, DWORD PTR _lpObj$[ebp]
  02248	89 8a f4 27 00
	00		 mov	 DWORD PTR [edx+10228], ecx

; 723  : 		lpObj->ExCred += this->ExGuardianFifty;

  0224e	8b 45 fc	 mov	 eax, DWORD PTR _this$[ebp]
  02251	db 80 8c 00 00
	00		 fild	 DWORD PTR [eax+140]
  02257	8b 4d f8	 mov	 ecx, DWORD PTR _lpObj$[ebp]
  0225a	d8 81 a8 22 00
	00		 fadd	 DWORD PTR [ecx+8872]
  02260	8b 55 f8	 mov	 edx, DWORD PTR _lpObj$[ebp]
  02263	d9 9a a8 22 00
	00		 fstp	 DWORD PTR [edx+8872]

; 724  : 		CountJewels = this->ExGuardianFifty;

  02269	8b 45 fc	 mov	 eax, DWORD PTR _this$[ebp]
  0226c	8b 88 8c 00 00
	00		 mov	 ecx, DWORD PTR [eax+140]
  02272	89 4d f4	 mov	 DWORD PTR _CountJewels$[ebp], ecx
  02275	eb 57		 jmp	 SHORT $LN1@exGuardian
$LN4@exGuardian:

; 725  : 	}
; 726  : 	else if (Count == 100)

  02277	83 7d 0c 64	 cmp	 DWORD PTR _Count$[ebp], 100 ; 00000064H
  0227b	75 3e		 jne	 SHORT $LN2@exGuardian

; 727  : 	{
; 728  : 		lpObj->GuardianBank -= Count;

  0227d	8b 45 f8	 mov	 eax, DWORD PTR _lpObj$[ebp]
  02280	8b 88 f4 27 00
	00		 mov	 ecx, DWORD PTR [eax+10228]
  02286	2b 4d 0c	 sub	 ecx, DWORD PTR _Count$[ebp]
  02289	8b 55 f8	 mov	 edx, DWORD PTR _lpObj$[ebp]
  0228c	89 8a f4 27 00
	00		 mov	 DWORD PTR [edx+10228], ecx

; 729  : 		lpObj->ExCred += this->ExGuardianHundred;

  02292	8b 45 fc	 mov	 eax, DWORD PTR _this$[ebp]
  02295	db 80 90 00 00
	00		 fild	 DWORD PTR [eax+144]
  0229b	8b 4d f8	 mov	 ecx, DWORD PTR _lpObj$[ebp]
  0229e	d8 81 a8 22 00
	00		 fadd	 DWORD PTR [ecx+8872]
  022a4	8b 55 f8	 mov	 edx, DWORD PTR _lpObj$[ebp]
  022a7	d9 9a a8 22 00
	00		 fstp	 DWORD PTR [edx+8872]

; 730  : 		CountJewels = this->ExGuardianHundred;

  022ad	8b 45 fc	 mov	 eax, DWORD PTR _this$[ebp]
  022b0	8b 88 90 00 00
	00		 mov	 ecx, DWORD PTR [eax+144]
  022b6	89 4d f4	 mov	 DWORD PTR _CountJewels$[ebp], ecx

; 731  : 	}
; 732  : 	else

  022b9	eb 13		 jmp	 SHORT $LN1@exGuardian
$LN2@exGuardian:

; 733  : 	{
; 734  : 		MsgNormal(aIndex,"[JewelsBank] Exchange Only 10 20 30 40 50 100");

  022bb	68 00 00 00 00	 push	 OFFSET ??_C@_0CO@ECEIAILJ@?$FLJewelsBank?$FN?5Exchange?5Only?510?520@
  022c0	8b 45 08	 mov	 eax, DWORD PTR _aIndex$[ebp]
  022c3	50		 push	 eax
  022c4	e8 00 00 00 00	 call	 ?MsgNormal@@YAXHPADZZ	; MsgNormal
  022c9	83 c4 08	 add	 esp, 8

; 735  : 		return;

  022cc	eb 25		 jmp	 SHORT $LN16@exGuardian
$LN1@exGuardian:

; 736  : 	}
; 737  : 
; 738  : 	ExUserDataSend(aIndex);

  022ce	8b 45 08	 mov	 eax, DWORD PTR _aIndex$[ebp]
  022d1	50		 push	 eax
  022d2	e8 00 00 00 00	 call	 ?ExUserDataSend@@YAXH@Z	; ExUserDataSend
  022d7	83 c4 04	 add	 esp, 4

; 739  : 
; 740  : 	MsgNormal(aIndex,"[JewelsBank] Exchange %d Jewel of Guardian Added %d Credits " ,Count, CountJewels);

  022da	8b 45 f4	 mov	 eax, DWORD PTR _CountJewels$[ebp]
  022dd	50		 push	 eax
  022de	8b 4d 0c	 mov	 ecx, DWORD PTR _Count$[ebp]
  022e1	51		 push	 ecx
  022e2	68 00 00 00 00	 push	 OFFSET ??_C@_0DN@JNMMHOMM@?$FLJewelsBank?$FN?5Exchange?5?$CFd?5Jewel?5o@
  022e7	8b 55 08	 mov	 edx, DWORD PTR _aIndex$[ebp]
  022ea	52		 push	 edx
  022eb	e8 00 00 00 00	 call	 ?MsgNormal@@YAXHPADZZ	; MsgNormal
  022f0	83 c4 10	 add	 esp, 16			; 00000010H
$LN16@exGuardian:

; 741  : }

  022f3	5f		 pop	 edi
  022f4	5e		 pop	 esi
  022f5	5b		 pop	 ebx
  022f6	8b e5		 mov	 esp, ebp
  022f8	5d		 pop	 ebp
  022f9	c2 08 00	 ret	 8
?exGuardian@JewelsBank@@QAEXHH@Z ENDP			; JewelsBank::exGuardian
_TEXT	ENDS
PUBLIC	??_C@_0DM@OGCMCKF@?$FLJewelsBank?$FN?5Exchange?5?$CFd?5Jewel?5o@ ; `string'
PUBLIC	??_C@_0BL@EMPAGGJM@?$FLJewelsBank?$FN?5No?5?$CFd?5Harmony?$AA@ ; `string'
PUBLIC	?exHarmony@JewelsBank@@QAEXHH@Z			; JewelsBank::exHarmony
;	COMDAT ??_C@_0DM@OGCMCKF@?$FLJewelsBank?$FN?5Exchange?5?$CFd?5Jewel?5o@
CONST	SEGMENT
??_C@_0DM@OGCMCKF@?$FLJewelsBank?$FN?5Exchange?5?$CFd?5Jewel?5o@ DB '[Jew'
	DB	'elsBank] Exchange %d Jewel of Harmony Added %d Credits ', 00H ; `string'
CONST	ENDS
;	COMDAT ??_C@_0BL@EMPAGGJM@?$FLJewelsBank?$FN?5No?5?$CFd?5Harmony?$AA@
CONST	SEGMENT
??_C@_0BL@EMPAGGJM@?$FLJewelsBank?$FN?5No?5?$CFd?5Harmony?$AA@ DB '[Jewel'
	DB	'sBank] No %d Harmony', 00H			; `string'
; Function compile flags: /Odtp /ZI
CONST	ENDS
_TEXT	SEGMENT
_CountJewels$ = -12					; size = 4
_lpObj$ = -8						; size = 4
_this$ = -4						; size = 4
_aIndex$ = 8						; size = 4
_Count$ = 12						; size = 4
?exHarmony@JewelsBank@@QAEXHH@Z PROC			; JewelsBank::exHarmony
; _this$ = ecx

; 744  : {

  02300	55		 push	 ebp
  02301	8b ec		 mov	 ebp, esp
  02303	83 ec 4c	 sub	 esp, 76			; 0000004cH
  02306	53		 push	 ebx
  02307	56		 push	 esi
  02308	57		 push	 edi
  02309	89 4d fc	 mov	 DWORD PTR _this$[ebp], ecx

; 745  : 	if( !g_ExLicense.CheckUser(eExUB::Local3)  && 
; 746  : 		!g_ExLicense.CheckUser(eExUB::SILVER1) &&
; 747  : 		!g_ExLicense.CheckUser(eExUB::SILVER2) && 
; 748  : 		!g_ExLicense.CheckUser(eExUB::drynea) )

  0230c	6a 1c		 push	 28			; 0000001cH
  0230e	b9 00 00 00 00	 mov	 ecx, OFFSET ?g_ExLicense@@3VCExLicense@@A ; g_ExLicense
  02313	e8 00 00 00 00	 call	 ?CheckUser@CExLicense@@QAE_NH@Z ; CExLicense::CheckUser
  02318	0f b6 c0	 movzx	 eax, al
  0231b	85 c0		 test	 eax, eax
  0231d	75 3e		 jne	 SHORT $LN15@exHarmony
  0231f	6a 07		 push	 7
  02321	b9 00 00 00 00	 mov	 ecx, OFFSET ?g_ExLicense@@3VCExLicense@@A ; g_ExLicense
  02326	e8 00 00 00 00	 call	 ?CheckUser@CExLicense@@QAE_NH@Z ; CExLicense::CheckUser
  0232b	0f b6 c0	 movzx	 eax, al
  0232e	85 c0		 test	 eax, eax
  02330	75 2b		 jne	 SHORT $LN15@exHarmony
  02332	6a 08		 push	 8
  02334	b9 00 00 00 00	 mov	 ecx, OFFSET ?g_ExLicense@@3VCExLicense@@A ; g_ExLicense
  02339	e8 00 00 00 00	 call	 ?CheckUser@CExLicense@@QAE_NH@Z ; CExLicense::CheckUser
  0233e	0f b6 c0	 movzx	 eax, al
  02341	85 c0		 test	 eax, eax
  02343	75 18		 jne	 SHORT $LN15@exHarmony
  02345	6a 01		 push	 1
  02347	b9 00 00 00 00	 mov	 ecx, OFFSET ?g_ExLicense@@3VCExLicense@@A ; g_ExLicense
  0234c	e8 00 00 00 00	 call	 ?CheckUser@CExLicense@@QAE_NH@Z ; CExLicense::CheckUser
  02351	0f b6 c0	 movzx	 eax, al
  02354	85 c0		 test	 eax, eax
  02356	75 05		 jne	 SHORT $LN15@exHarmony

; 749  : 	{
; 750  : 		return;

  02358	e9 2c 02 00 00	 jmp	 $LN16@exHarmony
$LN15@exHarmony:

; 751  : 	}
; 752  : 
; 753  : 	if(!this->Enable) return;

  0235d	8b 45 fc	 mov	 eax, DWORD PTR _this$[ebp]
  02360	0f b6 08	 movzx	 ecx, BYTE PTR [eax]
  02363	85 c9		 test	 ecx, ecx
  02365	75 05		 jne	 SHORT $LN14@exHarmony
  02367	e9 1d 02 00 00	 jmp	 $LN16@exHarmony
$LN14@exHarmony:

; 754  : 
; 755  : 	LPOBJ lpObj = &gObj[aIndex];

  0236c	8b 45 08	 mov	 eax, DWORD PTR _aIndex$[ebp]
  0236f	69 c0 38 2b 00
	00		 imul	 eax, 11064		; 00002b38H
  02375	03 05 00 00 00
	00		 add	 eax, DWORD PTR ?gObj@@3PAUOBJECTSTRUCT@@A ; gObj
  0237b	89 45 f8	 mov	 DWORD PTR _lpObj$[ebp], eax

; 756  : 
; 757  : 	if(lpObj->HarmonyBank < Count)

  0237e	8b 45 f8	 mov	 eax, DWORD PTR _lpObj$[ebp]
  02381	8b 88 f8 27 00
	00		 mov	 ecx, DWORD PTR [eax+10232]
  02387	3b 4d 0c	 cmp	 ecx, DWORD PTR _Count$[ebp]
  0238a	7d 1a		 jge	 SHORT $LN13@exHarmony

; 758  : 	{
; 759  : 		MsgNormal(aIndex,"[JewelsBank] No %d Harmony",Count);

  0238c	8b 45 0c	 mov	 eax, DWORD PTR _Count$[ebp]
  0238f	50		 push	 eax
  02390	68 00 00 00 00	 push	 OFFSET ??_C@_0BL@EMPAGGJM@?$FLJewelsBank?$FN?5No?5?$CFd?5Harmony?$AA@
  02395	8b 4d 08	 mov	 ecx, DWORD PTR _aIndex$[ebp]
  02398	51		 push	 ecx
  02399	e8 00 00 00 00	 call	 ?MsgNormal@@YAXHPADZZ	; MsgNormal
  0239e	83 c4 0c	 add	 esp, 12			; 0000000cH

; 760  : 		return;

  023a1	e9 e3 01 00 00	 jmp	 $LN16@exHarmony
$LN13@exHarmony:

; 761  : 	}
; 762  : 
; 763  : 	int CountJewels = 0;

  023a6	c7 45 f4 00 00
	00 00		 mov	 DWORD PTR _CountJewels$[ebp], 0

; 764  : 
; 765  : 	if (Count == 10)

  023ad	83 7d 0c 0a	 cmp	 DWORD PTR _Count$[ebp], 10 ; 0000000aH
  023b1	75 41		 jne	 SHORT $LN12@exHarmony

; 766  : 	{
; 767  : 		lpObj->HarmonyBank -= Count;

  023b3	8b 45 f8	 mov	 eax, DWORD PTR _lpObj$[ebp]
  023b6	8b 88 f8 27 00
	00		 mov	 ecx, DWORD PTR [eax+10232]
  023bc	2b 4d 0c	 sub	 ecx, DWORD PTR _Count$[ebp]
  023bf	8b 55 f8	 mov	 edx, DWORD PTR _lpObj$[ebp]
  023c2	89 8a f8 27 00
	00		 mov	 DWORD PTR [edx+10232], ecx

; 768  : 		lpObj->ExCred += this->ExHarmonyTeen;

  023c8	8b 45 fc	 mov	 eax, DWORD PTR _this$[ebp]
  023cb	db 80 94 00 00
	00		 fild	 DWORD PTR [eax+148]
  023d1	8b 4d f8	 mov	 ecx, DWORD PTR _lpObj$[ebp]
  023d4	d8 81 a8 22 00
	00		 fadd	 DWORD PTR [ecx+8872]
  023da	8b 55 f8	 mov	 edx, DWORD PTR _lpObj$[ebp]
  023dd	d9 9a a8 22 00
	00		 fstp	 DWORD PTR [edx+8872]

; 769  : 		CountJewels = this->ExHarmonyTeen;

  023e3	8b 45 fc	 mov	 eax, DWORD PTR _this$[ebp]
  023e6	8b 88 94 00 00
	00		 mov	 ecx, DWORD PTR [eax+148]
  023ec	89 4d f4	 mov	 DWORD PTR _CountJewels$[ebp], ecx
  023ef	e9 70 01 00 00	 jmp	 $LN1@exHarmony
$LN12@exHarmony:

; 770  : 	}
; 771  : 	else if (Count == 20)

  023f4	83 7d 0c 14	 cmp	 DWORD PTR _Count$[ebp], 20 ; 00000014H
  023f8	75 41		 jne	 SHORT $LN10@exHarmony

; 772  : 	{
; 773  : 		lpObj->HarmonyBank -= Count;

  023fa	8b 45 f8	 mov	 eax, DWORD PTR _lpObj$[ebp]
  023fd	8b 88 f8 27 00
	00		 mov	 ecx, DWORD PTR [eax+10232]
  02403	2b 4d 0c	 sub	 ecx, DWORD PTR _Count$[ebp]
  02406	8b 55 f8	 mov	 edx, DWORD PTR _lpObj$[ebp]
  02409	89 8a f8 27 00
	00		 mov	 DWORD PTR [edx+10232], ecx

; 774  : 		lpObj->ExCred += this->ExHarmonyTwenty;

  0240f	8b 45 fc	 mov	 eax, DWORD PTR _this$[ebp]
  02412	db 80 98 00 00
	00		 fild	 DWORD PTR [eax+152]
  02418	8b 4d f8	 mov	 ecx, DWORD PTR _lpObj$[ebp]
  0241b	d8 81 a8 22 00
	00		 fadd	 DWORD PTR [ecx+8872]
  02421	8b 55 f8	 mov	 edx, DWORD PTR _lpObj$[ebp]
  02424	d9 9a a8 22 00
	00		 fstp	 DWORD PTR [edx+8872]

; 775  : 		CountJewels = this->ExHarmonyTwenty;

  0242a	8b 45 fc	 mov	 eax, DWORD PTR _this$[ebp]
  0242d	8b 88 98 00 00
	00		 mov	 ecx, DWORD PTR [eax+152]
  02433	89 4d f4	 mov	 DWORD PTR _CountJewels$[ebp], ecx
  02436	e9 29 01 00 00	 jmp	 $LN1@exHarmony
$LN10@exHarmony:

; 776  : 	}
; 777  : 	else if (Count == 30)

  0243b	83 7d 0c 1e	 cmp	 DWORD PTR _Count$[ebp], 30 ; 0000001eH
  0243f	75 41		 jne	 SHORT $LN8@exHarmony

; 778  : 	{
; 779  : 		lpObj->HarmonyBank -= Count;

  02441	8b 45 f8	 mov	 eax, DWORD PTR _lpObj$[ebp]
  02444	8b 88 f8 27 00
	00		 mov	 ecx, DWORD PTR [eax+10232]
  0244a	2b 4d 0c	 sub	 ecx, DWORD PTR _Count$[ebp]
  0244d	8b 55 f8	 mov	 edx, DWORD PTR _lpObj$[ebp]
  02450	89 8a f8 27 00
	00		 mov	 DWORD PTR [edx+10232], ecx

; 780  : 		lpObj->ExCred += this->ExHarmonyThirty;

  02456	8b 45 fc	 mov	 eax, DWORD PTR _this$[ebp]
  02459	db 80 9c 00 00
	00		 fild	 DWORD PTR [eax+156]
  0245f	8b 4d f8	 mov	 ecx, DWORD PTR _lpObj$[ebp]
  02462	d8 81 a8 22 00
	00		 fadd	 DWORD PTR [ecx+8872]
  02468	8b 55 f8	 mov	 edx, DWORD PTR _lpObj$[ebp]
  0246b	d9 9a a8 22 00
	00		 fstp	 DWORD PTR [edx+8872]

; 781  : 		CountJewels = this->ExHarmonyThirty;

  02471	8b 45 fc	 mov	 eax, DWORD PTR _this$[ebp]
  02474	8b 88 9c 00 00
	00		 mov	 ecx, DWORD PTR [eax+156]
  0247a	89 4d f4	 mov	 DWORD PTR _CountJewels$[ebp], ecx
  0247d	e9 e2 00 00 00	 jmp	 $LN1@exHarmony
$LN8@exHarmony:

; 782  : 	}
; 783  : 	else if (Count == 40)

  02482	83 7d 0c 28	 cmp	 DWORD PTR _Count$[ebp], 40 ; 00000028H
  02486	75 41		 jne	 SHORT $LN6@exHarmony

; 784  : 	{
; 785  : 		lpObj->HarmonyBank -= Count;

  02488	8b 45 f8	 mov	 eax, DWORD PTR _lpObj$[ebp]
  0248b	8b 88 f8 27 00
	00		 mov	 ecx, DWORD PTR [eax+10232]
  02491	2b 4d 0c	 sub	 ecx, DWORD PTR _Count$[ebp]
  02494	8b 55 f8	 mov	 edx, DWORD PTR _lpObj$[ebp]
  02497	89 8a f8 27 00
	00		 mov	 DWORD PTR [edx+10232], ecx

; 786  : 		lpObj->ExCred += this->ExHarmonyForty;

  0249d	8b 45 fc	 mov	 eax, DWORD PTR _this$[ebp]
  024a0	db 80 a0 00 00
	00		 fild	 DWORD PTR [eax+160]
  024a6	8b 4d f8	 mov	 ecx, DWORD PTR _lpObj$[ebp]
  024a9	d8 81 a8 22 00
	00		 fadd	 DWORD PTR [ecx+8872]
  024af	8b 55 f8	 mov	 edx, DWORD PTR _lpObj$[ebp]
  024b2	d9 9a a8 22 00
	00		 fstp	 DWORD PTR [edx+8872]

; 787  : 		CountJewels = this->ExHarmonyForty;

  024b8	8b 45 fc	 mov	 eax, DWORD PTR _this$[ebp]
  024bb	8b 88 a0 00 00
	00		 mov	 ecx, DWORD PTR [eax+160]
  024c1	89 4d f4	 mov	 DWORD PTR _CountJewels$[ebp], ecx
  024c4	e9 9b 00 00 00	 jmp	 $LN1@exHarmony
$LN6@exHarmony:

; 788  : 	}
; 789  : 	else if (Count == 50)

  024c9	83 7d 0c 32	 cmp	 DWORD PTR _Count$[ebp], 50 ; 00000032H
  024cd	75 3e		 jne	 SHORT $LN4@exHarmony

; 790  : 	{
; 791  : 		lpObj->HarmonyBank -= Count;

  024cf	8b 45 f8	 mov	 eax, DWORD PTR _lpObj$[ebp]
  024d2	8b 88 f8 27 00
	00		 mov	 ecx, DWORD PTR [eax+10232]
  024d8	2b 4d 0c	 sub	 ecx, DWORD PTR _Count$[ebp]
  024db	8b 55 f8	 mov	 edx, DWORD PTR _lpObj$[ebp]
  024de	89 8a f8 27 00
	00		 mov	 DWORD PTR [edx+10232], ecx

; 792  : 		lpObj->ExCred += this->ExHarmonyFifty;

  024e4	8b 45 fc	 mov	 eax, DWORD PTR _this$[ebp]
  024e7	db 80 a4 00 00
	00		 fild	 DWORD PTR [eax+164]
  024ed	8b 4d f8	 mov	 ecx, DWORD PTR _lpObj$[ebp]
  024f0	d8 81 a8 22 00
	00		 fadd	 DWORD PTR [ecx+8872]
  024f6	8b 55 f8	 mov	 edx, DWORD PTR _lpObj$[ebp]
  024f9	d9 9a a8 22 00
	00		 fstp	 DWORD PTR [edx+8872]

; 793  : 		CountJewels = this->ExHarmonyFifty;

  024ff	8b 45 fc	 mov	 eax, DWORD PTR _this$[ebp]
  02502	8b 88 a4 00 00
	00		 mov	 ecx, DWORD PTR [eax+164]
  02508	89 4d f4	 mov	 DWORD PTR _CountJewels$[ebp], ecx
  0250b	eb 57		 jmp	 SHORT $LN1@exHarmony
$LN4@exHarmony:

; 794  : 	}
; 795  : 	else if (Count == 100)

  0250d	83 7d 0c 64	 cmp	 DWORD PTR _Count$[ebp], 100 ; 00000064H
  02511	75 3e		 jne	 SHORT $LN2@exHarmony

; 796  : 	{
; 797  : 		lpObj->HarmonyBank -= Count;

  02513	8b 45 f8	 mov	 eax, DWORD PTR _lpObj$[ebp]
  02516	8b 88 f8 27 00
	00		 mov	 ecx, DWORD PTR [eax+10232]
  0251c	2b 4d 0c	 sub	 ecx, DWORD PTR _Count$[ebp]
  0251f	8b 55 f8	 mov	 edx, DWORD PTR _lpObj$[ebp]
  02522	89 8a f8 27 00
	00		 mov	 DWORD PTR [edx+10232], ecx

; 798  : 		lpObj->ExCred += this->ExHarmonyHundred;

  02528	8b 45 fc	 mov	 eax, DWORD PTR _this$[ebp]
  0252b	db 80 a8 00 00
	00		 fild	 DWORD PTR [eax+168]
  02531	8b 4d f8	 mov	 ecx, DWORD PTR _lpObj$[ebp]
  02534	d8 81 a8 22 00
	00		 fadd	 DWORD PTR [ecx+8872]
  0253a	8b 55 f8	 mov	 edx, DWORD PTR _lpObj$[ebp]
  0253d	d9 9a a8 22 00
	00		 fstp	 DWORD PTR [edx+8872]

; 799  : 		CountJewels = this->ExHarmonyHundred;

  02543	8b 45 fc	 mov	 eax, DWORD PTR _this$[ebp]
  02546	8b 88 a8 00 00
	00		 mov	 ecx, DWORD PTR [eax+168]
  0254c	89 4d f4	 mov	 DWORD PTR _CountJewels$[ebp], ecx

; 800  : 	}
; 801  : 	else

  0254f	eb 13		 jmp	 SHORT $LN1@exHarmony
$LN2@exHarmony:

; 802  : 	{
; 803  : 		MsgNormal(aIndex,"[JewelsBank] Exchange Only 10 20 30 40 50 100");

  02551	68 00 00 00 00	 push	 OFFSET ??_C@_0CO@ECEIAILJ@?$FLJewelsBank?$FN?5Exchange?5Only?510?520@
  02556	8b 45 08	 mov	 eax, DWORD PTR _aIndex$[ebp]
  02559	50		 push	 eax
  0255a	e8 00 00 00 00	 call	 ?MsgNormal@@YAXHPADZZ	; MsgNormal
  0255f	83 c4 08	 add	 esp, 8

; 804  : 		return;

  02562	eb 25		 jmp	 SHORT $LN16@exHarmony
$LN1@exHarmony:

; 805  : 	}
; 806  : 
; 807  : 	ExUserDataSend(aIndex);

  02564	8b 45 08	 mov	 eax, DWORD PTR _aIndex$[ebp]
  02567	50		 push	 eax
  02568	e8 00 00 00 00	 call	 ?ExUserDataSend@@YAXH@Z	; ExUserDataSend
  0256d	83 c4 04	 add	 esp, 4

; 808  : 
; 809  : 	MsgNormal(aIndex,"[JewelsBank] Exchange %d Jewel of Harmony Added %d Credits " ,Count, CountJewels);

  02570	8b 45 f4	 mov	 eax, DWORD PTR _CountJewels$[ebp]
  02573	50		 push	 eax
  02574	8b 4d 0c	 mov	 ecx, DWORD PTR _Count$[ebp]
  02577	51		 push	 ecx
  02578	68 00 00 00 00	 push	 OFFSET ??_C@_0DM@OGCMCKF@?$FLJewelsBank?$FN?5Exchange?5?$CFd?5Jewel?5o@
  0257d	8b 55 08	 mov	 edx, DWORD PTR _aIndex$[ebp]
  02580	52		 push	 edx
  02581	e8 00 00 00 00	 call	 ?MsgNormal@@YAXHPADZZ	; MsgNormal
  02586	83 c4 10	 add	 esp, 16			; 00000010H
$LN16@exHarmony:

; 810  : }

  02589	5f		 pop	 edi
  0258a	5e		 pop	 esi
  0258b	5b		 pop	 ebx
  0258c	8b e5		 mov	 esp, ebp
  0258e	5d		 pop	 ebp
  0258f	c2 08 00	 ret	 8
?exHarmony@JewelsBank@@QAEXHH@Z ENDP			; JewelsBank::exHarmony
_TEXT	ENDS
PUBLIC	??_C@_0DN@EHDAKACB@?$FLJewelsBank?$FN?5Exchange?5?$CFd?5Jewel?5o@ ; `string'
PUBLIC	??_C@_0BM@HDLEMOKM@?$FLJewelsBank?$FN?5No?5?$CFd?5LowStone?$AA@ ; `string'
PUBLIC	?exLowStone@JewelsBank@@QAEXHH@Z		; JewelsBank::exLowStone
;	COMDAT ??_C@_0DN@EHDAKACB@?$FLJewelsBank?$FN?5Exchange?5?$CFd?5Jewel?5o@
CONST	SEGMENT
??_C@_0DN@EHDAKACB@?$FLJewelsBank?$FN?5Exchange?5?$CFd?5Jewel?5o@ DB '[Je'
	DB	'welsBank] Exchange %d Jewel of LowStone Added %d Credits ', 00H ; `string'
CONST	ENDS
;	COMDAT ??_C@_0BM@HDLEMOKM@?$FLJewelsBank?$FN?5No?5?$CFd?5LowStone?$AA@
CONST	SEGMENT
??_C@_0BM@HDLEMOKM@?$FLJewelsBank?$FN?5No?5?$CFd?5LowStone?$AA@ DB '[Jewe'
	DB	'lsBank] No %d LowStone', 00H		; `string'
; Function compile flags: /Odtp /ZI
CONST	ENDS
_TEXT	SEGMENT
_CountJewels$ = -12					; size = 4
_lpObj$ = -8						; size = 4
_this$ = -4						; size = 4
_aIndex$ = 8						; size = 4
_Count$ = 12						; size = 4
?exLowStone@JewelsBank@@QAEXHH@Z PROC			; JewelsBank::exLowStone
; _this$ = ecx

; 813  : {

  025a0	55		 push	 ebp
  025a1	8b ec		 mov	 ebp, esp
  025a3	83 ec 4c	 sub	 esp, 76			; 0000004cH
  025a6	53		 push	 ebx
  025a7	56		 push	 esi
  025a8	57		 push	 edi
  025a9	89 4d fc	 mov	 DWORD PTR _this$[ebp], ecx

; 814  : 	if( !g_ExLicense.CheckUser(eExUB::Local3)  && 
; 815  : 		!g_ExLicense.CheckUser(eExUB::SILVER1) &&
; 816  : 		!g_ExLicense.CheckUser(eExUB::SILVER2) && 
; 817  : 		!g_ExLicense.CheckUser(eExUB::drynea) )

  025ac	6a 1c		 push	 28			; 0000001cH
  025ae	b9 00 00 00 00	 mov	 ecx, OFFSET ?g_ExLicense@@3VCExLicense@@A ; g_ExLicense
  025b3	e8 00 00 00 00	 call	 ?CheckUser@CExLicense@@QAE_NH@Z ; CExLicense::CheckUser
  025b8	0f b6 c0	 movzx	 eax, al
  025bb	85 c0		 test	 eax, eax
  025bd	75 3e		 jne	 SHORT $LN15@exLowStone
  025bf	6a 07		 push	 7
  025c1	b9 00 00 00 00	 mov	 ecx, OFFSET ?g_ExLicense@@3VCExLicense@@A ; g_ExLicense
  025c6	e8 00 00 00 00	 call	 ?CheckUser@CExLicense@@QAE_NH@Z ; CExLicense::CheckUser
  025cb	0f b6 c0	 movzx	 eax, al
  025ce	85 c0		 test	 eax, eax
  025d0	75 2b		 jne	 SHORT $LN15@exLowStone
  025d2	6a 08		 push	 8
  025d4	b9 00 00 00 00	 mov	 ecx, OFFSET ?g_ExLicense@@3VCExLicense@@A ; g_ExLicense
  025d9	e8 00 00 00 00	 call	 ?CheckUser@CExLicense@@QAE_NH@Z ; CExLicense::CheckUser
  025de	0f b6 c0	 movzx	 eax, al
  025e1	85 c0		 test	 eax, eax
  025e3	75 18		 jne	 SHORT $LN15@exLowStone
  025e5	6a 01		 push	 1
  025e7	b9 00 00 00 00	 mov	 ecx, OFFSET ?g_ExLicense@@3VCExLicense@@A ; g_ExLicense
  025ec	e8 00 00 00 00	 call	 ?CheckUser@CExLicense@@QAE_NH@Z ; CExLicense::CheckUser
  025f1	0f b6 c0	 movzx	 eax, al
  025f4	85 c0		 test	 eax, eax
  025f6	75 05		 jne	 SHORT $LN15@exLowStone

; 818  : 	{
; 819  : 		return;

  025f8	e9 2c 02 00 00	 jmp	 $LN16@exLowStone
$LN15@exLowStone:

; 820  : 	}
; 821  : 
; 822  : 	if(!this->Enable) return;

  025fd	8b 45 fc	 mov	 eax, DWORD PTR _this$[ebp]
  02600	0f b6 08	 movzx	 ecx, BYTE PTR [eax]
  02603	85 c9		 test	 ecx, ecx
  02605	75 05		 jne	 SHORT $LN14@exLowStone
  02607	e9 1d 02 00 00	 jmp	 $LN16@exLowStone
$LN14@exLowStone:

; 823  : 
; 824  : 	LPOBJ lpObj = &gObj[aIndex];

  0260c	8b 45 08	 mov	 eax, DWORD PTR _aIndex$[ebp]
  0260f	69 c0 38 2b 00
	00		 imul	 eax, 11064		; 00002b38H
  02615	03 05 00 00 00
	00		 add	 eax, DWORD PTR ?gObj@@3PAUOBJECTSTRUCT@@A ; gObj
  0261b	89 45 f8	 mov	 DWORD PTR _lpObj$[ebp], eax

; 825  : 
; 826  : 	if(lpObj->LowStoneBank < Count)

  0261e	8b 45 f8	 mov	 eax, DWORD PTR _lpObj$[ebp]
  02621	8b 88 fc 27 00
	00		 mov	 ecx, DWORD PTR [eax+10236]
  02627	3b 4d 0c	 cmp	 ecx, DWORD PTR _Count$[ebp]
  0262a	7d 1a		 jge	 SHORT $LN13@exLowStone

; 827  : 	{
; 828  : 		MsgNormal(aIndex,"[JewelsBank] No %d LowStone",Count);

  0262c	8b 45 0c	 mov	 eax, DWORD PTR _Count$[ebp]
  0262f	50		 push	 eax
  02630	68 00 00 00 00	 push	 OFFSET ??_C@_0BM@HDLEMOKM@?$FLJewelsBank?$FN?5No?5?$CFd?5LowStone?$AA@
  02635	8b 4d 08	 mov	 ecx, DWORD PTR _aIndex$[ebp]
  02638	51		 push	 ecx
  02639	e8 00 00 00 00	 call	 ?MsgNormal@@YAXHPADZZ	; MsgNormal
  0263e	83 c4 0c	 add	 esp, 12			; 0000000cH

; 829  : 		return;

  02641	e9 e3 01 00 00	 jmp	 $LN16@exLowStone
$LN13@exLowStone:

; 830  : 	}
; 831  : 
; 832  : 	int CountJewels = 0;

  02646	c7 45 f4 00 00
	00 00		 mov	 DWORD PTR _CountJewels$[ebp], 0

; 833  : 
; 834  : 	if (Count == 10)

  0264d	83 7d 0c 0a	 cmp	 DWORD PTR _Count$[ebp], 10 ; 0000000aH
  02651	75 41		 jne	 SHORT $LN12@exLowStone

; 835  : 	{
; 836  : 		lpObj->LowStoneBank -= Count;

  02653	8b 45 f8	 mov	 eax, DWORD PTR _lpObj$[ebp]
  02656	8b 88 fc 27 00
	00		 mov	 ecx, DWORD PTR [eax+10236]
  0265c	2b 4d 0c	 sub	 ecx, DWORD PTR _Count$[ebp]
  0265f	8b 55 f8	 mov	 edx, DWORD PTR _lpObj$[ebp]
  02662	89 8a fc 27 00
	00		 mov	 DWORD PTR [edx+10236], ecx

; 837  : 		lpObj->ExCred += this->ExLowStoneTeen;

  02668	8b 45 fc	 mov	 eax, DWORD PTR _this$[ebp]
  0266b	db 80 ac 00 00
	00		 fild	 DWORD PTR [eax+172]
  02671	8b 4d f8	 mov	 ecx, DWORD PTR _lpObj$[ebp]
  02674	d8 81 a8 22 00
	00		 fadd	 DWORD PTR [ecx+8872]
  0267a	8b 55 f8	 mov	 edx, DWORD PTR _lpObj$[ebp]
  0267d	d9 9a a8 22 00
	00		 fstp	 DWORD PTR [edx+8872]

; 838  : 		CountJewels = this->ExLowStoneTeen;

  02683	8b 45 fc	 mov	 eax, DWORD PTR _this$[ebp]
  02686	8b 88 ac 00 00
	00		 mov	 ecx, DWORD PTR [eax+172]
  0268c	89 4d f4	 mov	 DWORD PTR _CountJewels$[ebp], ecx
  0268f	e9 70 01 00 00	 jmp	 $LN1@exLowStone
$LN12@exLowStone:

; 839  : 	}
; 840  : 	else if (Count == 20)

  02694	83 7d 0c 14	 cmp	 DWORD PTR _Count$[ebp], 20 ; 00000014H
  02698	75 41		 jne	 SHORT $LN10@exLowStone

; 841  : 	{
; 842  : 		lpObj->LowStoneBank -= Count;

  0269a	8b 45 f8	 mov	 eax, DWORD PTR _lpObj$[ebp]
  0269d	8b 88 fc 27 00
	00		 mov	 ecx, DWORD PTR [eax+10236]
  026a3	2b 4d 0c	 sub	 ecx, DWORD PTR _Count$[ebp]
  026a6	8b 55 f8	 mov	 edx, DWORD PTR _lpObj$[ebp]
  026a9	89 8a fc 27 00
	00		 mov	 DWORD PTR [edx+10236], ecx

; 843  : 		lpObj->ExCred += this->ExLowStoneTwenty;

  026af	8b 45 fc	 mov	 eax, DWORD PTR _this$[ebp]
  026b2	db 80 b0 00 00
	00		 fild	 DWORD PTR [eax+176]
  026b8	8b 4d f8	 mov	 ecx, DWORD PTR _lpObj$[ebp]
  026bb	d8 81 a8 22 00
	00		 fadd	 DWORD PTR [ecx+8872]
  026c1	8b 55 f8	 mov	 edx, DWORD PTR _lpObj$[ebp]
  026c4	d9 9a a8 22 00
	00		 fstp	 DWORD PTR [edx+8872]

; 844  : 		CountJewels = this->ExLowStoneTwenty;

  026ca	8b 45 fc	 mov	 eax, DWORD PTR _this$[ebp]
  026cd	8b 88 b0 00 00
	00		 mov	 ecx, DWORD PTR [eax+176]
  026d3	89 4d f4	 mov	 DWORD PTR _CountJewels$[ebp], ecx
  026d6	e9 29 01 00 00	 jmp	 $LN1@exLowStone
$LN10@exLowStone:

; 845  : 	}
; 846  : 	else if (Count == 30)

  026db	83 7d 0c 1e	 cmp	 DWORD PTR _Count$[ebp], 30 ; 0000001eH
  026df	75 41		 jne	 SHORT $LN8@exLowStone

; 847  : 	{
; 848  : 		lpObj->LowStoneBank -= Count;

  026e1	8b 45 f8	 mov	 eax, DWORD PTR _lpObj$[ebp]
  026e4	8b 88 fc 27 00
	00		 mov	 ecx, DWORD PTR [eax+10236]
  026ea	2b 4d 0c	 sub	 ecx, DWORD PTR _Count$[ebp]
  026ed	8b 55 f8	 mov	 edx, DWORD PTR _lpObj$[ebp]
  026f0	89 8a fc 27 00
	00		 mov	 DWORD PTR [edx+10236], ecx

; 849  : 		lpObj->ExCred += this->ExLowStoneThirty;

  026f6	8b 45 fc	 mov	 eax, DWORD PTR _this$[ebp]
  026f9	db 80 b4 00 00
	00		 fild	 DWORD PTR [eax+180]
  026ff	8b 4d f8	 mov	 ecx, DWORD PTR _lpObj$[ebp]
  02702	d8 81 a8 22 00
	00		 fadd	 DWORD PTR [ecx+8872]
  02708	8b 55 f8	 mov	 edx, DWORD PTR _lpObj$[ebp]
  0270b	d9 9a a8 22 00
	00		 fstp	 DWORD PTR [edx+8872]

; 850  : 		CountJewels = this->ExLowStoneThirty;

  02711	8b 45 fc	 mov	 eax, DWORD PTR _this$[ebp]
  02714	8b 88 b4 00 00
	00		 mov	 ecx, DWORD PTR [eax+180]
  0271a	89 4d f4	 mov	 DWORD PTR _CountJewels$[ebp], ecx
  0271d	e9 e2 00 00 00	 jmp	 $LN1@exLowStone
$LN8@exLowStone:

; 851  : 	}
; 852  : 	else if (Count == 40)

  02722	83 7d 0c 28	 cmp	 DWORD PTR _Count$[ebp], 40 ; 00000028H
  02726	75 41		 jne	 SHORT $LN6@exLowStone

; 853  : 	{
; 854  : 		lpObj->LowStoneBank -= Count;

  02728	8b 45 f8	 mov	 eax, DWORD PTR _lpObj$[ebp]
  0272b	8b 88 fc 27 00
	00		 mov	 ecx, DWORD PTR [eax+10236]
  02731	2b 4d 0c	 sub	 ecx, DWORD PTR _Count$[ebp]
  02734	8b 55 f8	 mov	 edx, DWORD PTR _lpObj$[ebp]
  02737	89 8a fc 27 00
	00		 mov	 DWORD PTR [edx+10236], ecx

; 855  : 		lpObj->ExCred += this->ExLowStoneForty;

  0273d	8b 45 fc	 mov	 eax, DWORD PTR _this$[ebp]
  02740	db 80 b8 00 00
	00		 fild	 DWORD PTR [eax+184]
  02746	8b 4d f8	 mov	 ecx, DWORD PTR _lpObj$[ebp]
  02749	d8 81 a8 22 00
	00		 fadd	 DWORD PTR [ecx+8872]
  0274f	8b 55 f8	 mov	 edx, DWORD PTR _lpObj$[ebp]
  02752	d9 9a a8 22 00
	00		 fstp	 DWORD PTR [edx+8872]

; 856  : 		CountJewels = this->ExLowStoneForty;

  02758	8b 45 fc	 mov	 eax, DWORD PTR _this$[ebp]
  0275b	8b 88 b8 00 00
	00		 mov	 ecx, DWORD PTR [eax+184]
  02761	89 4d f4	 mov	 DWORD PTR _CountJewels$[ebp], ecx
  02764	e9 9b 00 00 00	 jmp	 $LN1@exLowStone
$LN6@exLowStone:

; 857  : 	}
; 858  : 	else if (Count == 50)

  02769	83 7d 0c 32	 cmp	 DWORD PTR _Count$[ebp], 50 ; 00000032H
  0276d	75 3e		 jne	 SHORT $LN4@exLowStone

; 859  : 	{
; 860  : 		lpObj->LowStoneBank -= Count;

  0276f	8b 45 f8	 mov	 eax, DWORD PTR _lpObj$[ebp]
  02772	8b 88 fc 27 00
	00		 mov	 ecx, DWORD PTR [eax+10236]
  02778	2b 4d 0c	 sub	 ecx, DWORD PTR _Count$[ebp]
  0277b	8b 55 f8	 mov	 edx, DWORD PTR _lpObj$[ebp]
  0277e	89 8a fc 27 00
	00		 mov	 DWORD PTR [edx+10236], ecx

; 861  : 		lpObj->ExCred += this->ExLowStoneFifty;

  02784	8b 45 fc	 mov	 eax, DWORD PTR _this$[ebp]
  02787	db 80 bc 00 00
	00		 fild	 DWORD PTR [eax+188]
  0278d	8b 4d f8	 mov	 ecx, DWORD PTR _lpObj$[ebp]
  02790	d8 81 a8 22 00
	00		 fadd	 DWORD PTR [ecx+8872]
  02796	8b 55 f8	 mov	 edx, DWORD PTR _lpObj$[ebp]
  02799	d9 9a a8 22 00
	00		 fstp	 DWORD PTR [edx+8872]

; 862  : 		CountJewels = this->ExLowStoneFifty;

  0279f	8b 45 fc	 mov	 eax, DWORD PTR _this$[ebp]
  027a2	8b 88 bc 00 00
	00		 mov	 ecx, DWORD PTR [eax+188]
  027a8	89 4d f4	 mov	 DWORD PTR _CountJewels$[ebp], ecx
  027ab	eb 57		 jmp	 SHORT $LN1@exLowStone
$LN4@exLowStone:

; 863  : 	}
; 864  : 	else if (Count == 100)

  027ad	83 7d 0c 64	 cmp	 DWORD PTR _Count$[ebp], 100 ; 00000064H
  027b1	75 3e		 jne	 SHORT $LN2@exLowStone

; 865  : 	{
; 866  : 		lpObj->LowStoneBank -= Count;

  027b3	8b 45 f8	 mov	 eax, DWORD PTR _lpObj$[ebp]
  027b6	8b 88 fc 27 00
	00		 mov	 ecx, DWORD PTR [eax+10236]
  027bc	2b 4d 0c	 sub	 ecx, DWORD PTR _Count$[ebp]
  027bf	8b 55 f8	 mov	 edx, DWORD PTR _lpObj$[ebp]
  027c2	89 8a fc 27 00
	00		 mov	 DWORD PTR [edx+10236], ecx

; 867  : 		lpObj->ExCred += this->ExLowStoneHundred;

  027c8	8b 45 fc	 mov	 eax, DWORD PTR _this$[ebp]
  027cb	db 80 c0 00 00
	00		 fild	 DWORD PTR [eax+192]
  027d1	8b 4d f8	 mov	 ecx, DWORD PTR _lpObj$[ebp]
  027d4	d8 81 a8 22 00
	00		 fadd	 DWORD PTR [ecx+8872]
  027da	8b 55 f8	 mov	 edx, DWORD PTR _lpObj$[ebp]
  027dd	d9 9a a8 22 00
	00		 fstp	 DWORD PTR [edx+8872]

; 868  : 		CountJewels = this->ExLowStoneHundred;

  027e3	8b 45 fc	 mov	 eax, DWORD PTR _this$[ebp]
  027e6	8b 88 c0 00 00
	00		 mov	 ecx, DWORD PTR [eax+192]
  027ec	89 4d f4	 mov	 DWORD PTR _CountJewels$[ebp], ecx

; 869  : 	}
; 870  : 	else

  027ef	eb 13		 jmp	 SHORT $LN1@exLowStone
$LN2@exLowStone:

; 871  : 	{
; 872  : 		MsgNormal(aIndex,"[JewelsBank] Exchange Only 10 20 30 40 50 100");

  027f1	68 00 00 00 00	 push	 OFFSET ??_C@_0CO@ECEIAILJ@?$FLJewelsBank?$FN?5Exchange?5Only?510?520@
  027f6	8b 45 08	 mov	 eax, DWORD PTR _aIndex$[ebp]
  027f9	50		 push	 eax
  027fa	e8 00 00 00 00	 call	 ?MsgNormal@@YAXHPADZZ	; MsgNormal
  027ff	83 c4 08	 add	 esp, 8

; 873  : 		return;

  02802	eb 25		 jmp	 SHORT $LN16@exLowStone
$LN1@exLowStone:

; 874  : 	}
; 875  : 
; 876  : 	ExUserDataSend(aIndex);

  02804	8b 45 08	 mov	 eax, DWORD PTR _aIndex$[ebp]
  02807	50		 push	 eax
  02808	e8 00 00 00 00	 call	 ?ExUserDataSend@@YAXH@Z	; ExUserDataSend
  0280d	83 c4 04	 add	 esp, 4

; 877  : 
; 878  : 	MsgNormal(aIndex,"[JewelsBank] Exchange %d Jewel of LowStone Added %d Credits " ,Count, CountJewels);

  02810	8b 45 f4	 mov	 eax, DWORD PTR _CountJewels$[ebp]
  02813	50		 push	 eax
  02814	8b 4d 0c	 mov	 ecx, DWORD PTR _Count$[ebp]
  02817	51		 push	 ecx
  02818	68 00 00 00 00	 push	 OFFSET ??_C@_0DN@EHDAKACB@?$FLJewelsBank?$FN?5Exchange?5?$CFd?5Jewel?5o@
  0281d	8b 55 08	 mov	 edx, DWORD PTR _aIndex$[ebp]
  02820	52		 push	 edx
  02821	e8 00 00 00 00	 call	 ?MsgNormal@@YAXHPADZZ	; MsgNormal
  02826	83 c4 10	 add	 esp, 16			; 00000010H
$LN16@exLowStone:

; 879  : }

  02829	5f		 pop	 edi
  0282a	5e		 pop	 esi
  0282b	5b		 pop	 ebx
  0282c	8b e5		 mov	 esp, ebp
  0282e	5d		 pop	 ebp
  0282f	c2 08 00	 ret	 8
?exLowStone@JewelsBank@@QAEXHH@Z ENDP			; JewelsBank::exLowStone
_TEXT	ENDS
PUBLIC	??_C@_0DO@EJIDHDNP@?$FLJewelsBank?$FN?5Exchange?5?$CFd?5Jewel?5o@ ; `string'
PUBLIC	??_C@_0BN@NCMHMGAF@?$FLJewelsBank?$FN?5No?5?$CFd?5HighStone?$AA@ ; `string'
PUBLIC	?exHighStone@JewelsBank@@QAEXHH@Z		; JewelsBank::exHighStone
;	COMDAT ??_C@_0DO@EJIDHDNP@?$FLJewelsBank?$FN?5Exchange?5?$CFd?5Jewel?5o@
CONST	SEGMENT
??_C@_0DO@EJIDHDNP@?$FLJewelsBank?$FN?5Exchange?5?$CFd?5Jewel?5o@ DB '[Je'
	DB	'welsBank] Exchange %d Jewel of HighStone Added %d Credits ', 00H ; `string'
CONST	ENDS
;	COMDAT ??_C@_0BN@NCMHMGAF@?$FLJewelsBank?$FN?5No?5?$CFd?5HighStone?$AA@
CONST	SEGMENT
??_C@_0BN@NCMHMGAF@?$FLJewelsBank?$FN?5No?5?$CFd?5HighStone?$AA@ DB '[Jew'
	DB	'elsBank] No %d HighStone', 00H		; `string'
; Function compile flags: /Odtp /ZI
CONST	ENDS
_TEXT	SEGMENT
_CountJewels$ = -12					; size = 4
_lpObj$ = -8						; size = 4
_this$ = -4						; size = 4
_aIndex$ = 8						; size = 4
_Count$ = 12						; size = 4
?exHighStone@JewelsBank@@QAEXHH@Z PROC			; JewelsBank::exHighStone
; _this$ = ecx

; 882  : {

  02840	55		 push	 ebp
  02841	8b ec		 mov	 ebp, esp
  02843	83 ec 4c	 sub	 esp, 76			; 0000004cH
  02846	53		 push	 ebx
  02847	56		 push	 esi
  02848	57		 push	 edi
  02849	89 4d fc	 mov	 DWORD PTR _this$[ebp], ecx

; 883  : 	if( !g_ExLicense.CheckUser(eExUB::Local3)  && 
; 884  : 		!g_ExLicense.CheckUser(eExUB::SILVER1) &&
; 885  : 		!g_ExLicense.CheckUser(eExUB::SILVER2) && 
; 886  : 		!g_ExLicense.CheckUser(eExUB::drynea) )

  0284c	6a 1c		 push	 28			; 0000001cH
  0284e	b9 00 00 00 00	 mov	 ecx, OFFSET ?g_ExLicense@@3VCExLicense@@A ; g_ExLicense
  02853	e8 00 00 00 00	 call	 ?CheckUser@CExLicense@@QAE_NH@Z ; CExLicense::CheckUser
  02858	0f b6 c0	 movzx	 eax, al
  0285b	85 c0		 test	 eax, eax
  0285d	75 3e		 jne	 SHORT $LN15@exHighSton
  0285f	6a 07		 push	 7
  02861	b9 00 00 00 00	 mov	 ecx, OFFSET ?g_ExLicense@@3VCExLicense@@A ; g_ExLicense
  02866	e8 00 00 00 00	 call	 ?CheckUser@CExLicense@@QAE_NH@Z ; CExLicense::CheckUser
  0286b	0f b6 c0	 movzx	 eax, al
  0286e	85 c0		 test	 eax, eax
  02870	75 2b		 jne	 SHORT $LN15@exHighSton
  02872	6a 08		 push	 8
  02874	b9 00 00 00 00	 mov	 ecx, OFFSET ?g_ExLicense@@3VCExLicense@@A ; g_ExLicense
  02879	e8 00 00 00 00	 call	 ?CheckUser@CExLicense@@QAE_NH@Z ; CExLicense::CheckUser
  0287e	0f b6 c0	 movzx	 eax, al
  02881	85 c0		 test	 eax, eax
  02883	75 18		 jne	 SHORT $LN15@exHighSton
  02885	6a 01		 push	 1
  02887	b9 00 00 00 00	 mov	 ecx, OFFSET ?g_ExLicense@@3VCExLicense@@A ; g_ExLicense
  0288c	e8 00 00 00 00	 call	 ?CheckUser@CExLicense@@QAE_NH@Z ; CExLicense::CheckUser
  02891	0f b6 c0	 movzx	 eax, al
  02894	85 c0		 test	 eax, eax
  02896	75 05		 jne	 SHORT $LN15@exHighSton

; 887  : 	{
; 888  : 		return;

  02898	e9 2c 02 00 00	 jmp	 $LN16@exHighSton
$LN15@exHighSton:

; 889  : 	}
; 890  : 
; 891  : 	if(!this->Enable) return;

  0289d	8b 45 fc	 mov	 eax, DWORD PTR _this$[ebp]
  028a0	0f b6 08	 movzx	 ecx, BYTE PTR [eax]
  028a3	85 c9		 test	 ecx, ecx
  028a5	75 05		 jne	 SHORT $LN14@exHighSton
  028a7	e9 1d 02 00 00	 jmp	 $LN16@exHighSton
$LN14@exHighSton:

; 892  : 
; 893  : 	LPOBJ lpObj = &gObj[aIndex];

  028ac	8b 45 08	 mov	 eax, DWORD PTR _aIndex$[ebp]
  028af	69 c0 38 2b 00
	00		 imul	 eax, 11064		; 00002b38H
  028b5	03 05 00 00 00
	00		 add	 eax, DWORD PTR ?gObj@@3PAUOBJECTSTRUCT@@A ; gObj
  028bb	89 45 f8	 mov	 DWORD PTR _lpObj$[ebp], eax

; 894  : 
; 895  : 	if(lpObj->HighStoneBank < Count)

  028be	8b 45 f8	 mov	 eax, DWORD PTR _lpObj$[ebp]
  028c1	8b 88 00 28 00
	00		 mov	 ecx, DWORD PTR [eax+10240]
  028c7	3b 4d 0c	 cmp	 ecx, DWORD PTR _Count$[ebp]
  028ca	7d 1a		 jge	 SHORT $LN13@exHighSton

; 896  : 	{
; 897  : 		MsgNormal(aIndex,"[JewelsBank] No %d HighStone",Count);

  028cc	8b 45 0c	 mov	 eax, DWORD PTR _Count$[ebp]
  028cf	50		 push	 eax
  028d0	68 00 00 00 00	 push	 OFFSET ??_C@_0BN@NCMHMGAF@?$FLJewelsBank?$FN?5No?5?$CFd?5HighStone?$AA@
  028d5	8b 4d 08	 mov	 ecx, DWORD PTR _aIndex$[ebp]
  028d8	51		 push	 ecx
  028d9	e8 00 00 00 00	 call	 ?MsgNormal@@YAXHPADZZ	; MsgNormal
  028de	83 c4 0c	 add	 esp, 12			; 0000000cH

; 898  : 		return;

  028e1	e9 e3 01 00 00	 jmp	 $LN16@exHighSton
$LN13@exHighSton:

; 899  : 	}
; 900  : 
; 901  : 	int CountJewels = 0;

  028e6	c7 45 f4 00 00
	00 00		 mov	 DWORD PTR _CountJewels$[ebp], 0

; 902  : 
; 903  : 	if (Count == 10)

  028ed	83 7d 0c 0a	 cmp	 DWORD PTR _Count$[ebp], 10 ; 0000000aH
  028f1	75 41		 jne	 SHORT $LN12@exHighSton

; 904  : 	{
; 905  : 		lpObj->HighStoneBank -= Count;

  028f3	8b 45 f8	 mov	 eax, DWORD PTR _lpObj$[ebp]
  028f6	8b 88 00 28 00
	00		 mov	 ecx, DWORD PTR [eax+10240]
  028fc	2b 4d 0c	 sub	 ecx, DWORD PTR _Count$[ebp]
  028ff	8b 55 f8	 mov	 edx, DWORD PTR _lpObj$[ebp]
  02902	89 8a 00 28 00
	00		 mov	 DWORD PTR [edx+10240], ecx

; 906  : 		lpObj->ExCred += this->ExHighStoneTeen;

  02908	8b 45 fc	 mov	 eax, DWORD PTR _this$[ebp]
  0290b	db 80 c4 00 00
	00		 fild	 DWORD PTR [eax+196]
  02911	8b 4d f8	 mov	 ecx, DWORD PTR _lpObj$[ebp]
  02914	d8 81 a8 22 00
	00		 fadd	 DWORD PTR [ecx+8872]
  0291a	8b 55 f8	 mov	 edx, DWORD PTR _lpObj$[ebp]
  0291d	d9 9a a8 22 00
	00		 fstp	 DWORD PTR [edx+8872]

; 907  : 		CountJewels = this->ExHighStoneTeen;

  02923	8b 45 fc	 mov	 eax, DWORD PTR _this$[ebp]
  02926	8b 88 c4 00 00
	00		 mov	 ecx, DWORD PTR [eax+196]
  0292c	89 4d f4	 mov	 DWORD PTR _CountJewels$[ebp], ecx
  0292f	e9 70 01 00 00	 jmp	 $LN1@exHighSton
$LN12@exHighSton:

; 908  : 	}
; 909  : 	else if (Count == 20)

  02934	83 7d 0c 14	 cmp	 DWORD PTR _Count$[ebp], 20 ; 00000014H
  02938	75 41		 jne	 SHORT $LN10@exHighSton

; 910  : 	{
; 911  : 		lpObj->HighStoneBank -= Count;

  0293a	8b 45 f8	 mov	 eax, DWORD PTR _lpObj$[ebp]
  0293d	8b 88 00 28 00
	00		 mov	 ecx, DWORD PTR [eax+10240]
  02943	2b 4d 0c	 sub	 ecx, DWORD PTR _Count$[ebp]
  02946	8b 55 f8	 mov	 edx, DWORD PTR _lpObj$[ebp]
  02949	89 8a 00 28 00
	00		 mov	 DWORD PTR [edx+10240], ecx

; 912  : 		lpObj->ExCred += this->ExHighStoneTwenty;

  0294f	8b 45 fc	 mov	 eax, DWORD PTR _this$[ebp]
  02952	db 80 c8 00 00
	00		 fild	 DWORD PTR [eax+200]
  02958	8b 4d f8	 mov	 ecx, DWORD PTR _lpObj$[ebp]
  0295b	d8 81 a8 22 00
	00		 fadd	 DWORD PTR [ecx+8872]
  02961	8b 55 f8	 mov	 edx, DWORD PTR _lpObj$[ebp]
  02964	d9 9a a8 22 00
	00		 fstp	 DWORD PTR [edx+8872]

; 913  : 		CountJewels = this->ExHighStoneTwenty;

  0296a	8b 45 fc	 mov	 eax, DWORD PTR _this$[ebp]
  0296d	8b 88 c8 00 00
	00		 mov	 ecx, DWORD PTR [eax+200]
  02973	89 4d f4	 mov	 DWORD PTR _CountJewels$[ebp], ecx
  02976	e9 29 01 00 00	 jmp	 $LN1@exHighSton
$LN10@exHighSton:

; 914  : 	}
; 915  : 	else if (Count == 30)

  0297b	83 7d 0c 1e	 cmp	 DWORD PTR _Count$[ebp], 30 ; 0000001eH
  0297f	75 41		 jne	 SHORT $LN8@exHighSton

; 916  : 	{
; 917  : 		lpObj->HighStoneBank -= Count;

  02981	8b 45 f8	 mov	 eax, DWORD PTR _lpObj$[ebp]
  02984	8b 88 00 28 00
	00		 mov	 ecx, DWORD PTR [eax+10240]
  0298a	2b 4d 0c	 sub	 ecx, DWORD PTR _Count$[ebp]
  0298d	8b 55 f8	 mov	 edx, DWORD PTR _lpObj$[ebp]
  02990	89 8a 00 28 00
	00		 mov	 DWORD PTR [edx+10240], ecx

; 918  : 		lpObj->ExCred += this->ExHighStoneThirty;

  02996	8b 45 fc	 mov	 eax, DWORD PTR _this$[ebp]
  02999	db 80 cc 00 00
	00		 fild	 DWORD PTR [eax+204]
  0299f	8b 4d f8	 mov	 ecx, DWORD PTR _lpObj$[ebp]
  029a2	d8 81 a8 22 00
	00		 fadd	 DWORD PTR [ecx+8872]
  029a8	8b 55 f8	 mov	 edx, DWORD PTR _lpObj$[ebp]
  029ab	d9 9a a8 22 00
	00		 fstp	 DWORD PTR [edx+8872]

; 919  : 		CountJewels = this->ExHighStoneThirty;

  029b1	8b 45 fc	 mov	 eax, DWORD PTR _this$[ebp]
  029b4	8b 88 cc 00 00
	00		 mov	 ecx, DWORD PTR [eax+204]
  029ba	89 4d f4	 mov	 DWORD PTR _CountJewels$[ebp], ecx
  029bd	e9 e2 00 00 00	 jmp	 $LN1@exHighSton
$LN8@exHighSton:

; 920  : 	}
; 921  : 	else if (Count == 40)

  029c2	83 7d 0c 28	 cmp	 DWORD PTR _Count$[ebp], 40 ; 00000028H
  029c6	75 41		 jne	 SHORT $LN6@exHighSton

; 922  : 	{
; 923  : 		lpObj->HighStoneBank -= Count;

  029c8	8b 45 f8	 mov	 eax, DWORD PTR _lpObj$[ebp]
  029cb	8b 88 00 28 00
	00		 mov	 ecx, DWORD PTR [eax+10240]
  029d1	2b 4d 0c	 sub	 ecx, DWORD PTR _Count$[ebp]
  029d4	8b 55 f8	 mov	 edx, DWORD PTR _lpObj$[ebp]
  029d7	89 8a 00 28 00
	00		 mov	 DWORD PTR [edx+10240], ecx

; 924  : 		lpObj->ExCred += this->ExHighStoneForty;

  029dd	8b 45 fc	 mov	 eax, DWORD PTR _this$[ebp]
  029e0	db 80 d0 00 00
	00		 fild	 DWORD PTR [eax+208]
  029e6	8b 4d f8	 mov	 ecx, DWORD PTR _lpObj$[ebp]
  029e9	d8 81 a8 22 00
	00		 fadd	 DWORD PTR [ecx+8872]
  029ef	8b 55 f8	 mov	 edx, DWORD PTR _lpObj$[ebp]
  029f2	d9 9a a8 22 00
	00		 fstp	 DWORD PTR [edx+8872]

; 925  : 		CountJewels = this->ExHighStoneForty;

  029f8	8b 45 fc	 mov	 eax, DWORD PTR _this$[ebp]
  029fb	8b 88 d0 00 00
	00		 mov	 ecx, DWORD PTR [eax+208]
  02a01	89 4d f4	 mov	 DWORD PTR _CountJewels$[ebp], ecx
  02a04	e9 9b 00 00 00	 jmp	 $LN1@exHighSton
$LN6@exHighSton:

; 926  : 	}
; 927  : 	else if (Count == 50)

  02a09	83 7d 0c 32	 cmp	 DWORD PTR _Count$[ebp], 50 ; 00000032H
  02a0d	75 3e		 jne	 SHORT $LN4@exHighSton

; 928  : 	{
; 929  : 		lpObj->HighStoneBank -= Count;

  02a0f	8b 45 f8	 mov	 eax, DWORD PTR _lpObj$[ebp]
  02a12	8b 88 00 28 00
	00		 mov	 ecx, DWORD PTR [eax+10240]
  02a18	2b 4d 0c	 sub	 ecx, DWORD PTR _Count$[ebp]
  02a1b	8b 55 f8	 mov	 edx, DWORD PTR _lpObj$[ebp]
  02a1e	89 8a 00 28 00
	00		 mov	 DWORD PTR [edx+10240], ecx

; 930  : 		lpObj->ExCred += this->ExHighStoneFifty;

  02a24	8b 45 fc	 mov	 eax, DWORD PTR _this$[ebp]
  02a27	db 80 d4 00 00
	00		 fild	 DWORD PTR [eax+212]
  02a2d	8b 4d f8	 mov	 ecx, DWORD PTR _lpObj$[ebp]
  02a30	d8 81 a8 22 00
	00		 fadd	 DWORD PTR [ecx+8872]
  02a36	8b 55 f8	 mov	 edx, DWORD PTR _lpObj$[ebp]
  02a39	d9 9a a8 22 00
	00		 fstp	 DWORD PTR [edx+8872]

; 931  : 		CountJewels = this->ExHighStoneFifty;

  02a3f	8b 45 fc	 mov	 eax, DWORD PTR _this$[ebp]
  02a42	8b 88 d4 00 00
	00		 mov	 ecx, DWORD PTR [eax+212]
  02a48	89 4d f4	 mov	 DWORD PTR _CountJewels$[ebp], ecx
  02a4b	eb 57		 jmp	 SHORT $LN1@exHighSton
$LN4@exHighSton:

; 932  : 	}
; 933  : 	else if (Count == 100)

  02a4d	83 7d 0c 64	 cmp	 DWORD PTR _Count$[ebp], 100 ; 00000064H
  02a51	75 3e		 jne	 SHORT $LN2@exHighSton

; 934  : 	{
; 935  : 		lpObj->HighStoneBank -= Count;

  02a53	8b 45 f8	 mov	 eax, DWORD PTR _lpObj$[ebp]
  02a56	8b 88 00 28 00
	00		 mov	 ecx, DWORD PTR [eax+10240]
  02a5c	2b 4d 0c	 sub	 ecx, DWORD PTR _Count$[ebp]
  02a5f	8b 55 f8	 mov	 edx, DWORD PTR _lpObj$[ebp]
  02a62	89 8a 00 28 00
	00		 mov	 DWORD PTR [edx+10240], ecx

; 936  : 		lpObj->ExCred += this->ExHighStoneHundred;

  02a68	8b 45 fc	 mov	 eax, DWORD PTR _this$[ebp]
  02a6b	db 80 d8 00 00
	00		 fild	 DWORD PTR [eax+216]
  02a71	8b 4d f8	 mov	 ecx, DWORD PTR _lpObj$[ebp]
  02a74	d8 81 a8 22 00
	00		 fadd	 DWORD PTR [ecx+8872]
  02a7a	8b 55 f8	 mov	 edx, DWORD PTR _lpObj$[ebp]
  02a7d	d9 9a a8 22 00
	00		 fstp	 DWORD PTR [edx+8872]

; 937  : 		CountJewels = this->ExHighStoneHundred;

  02a83	8b 45 fc	 mov	 eax, DWORD PTR _this$[ebp]
  02a86	8b 88 d8 00 00
	00		 mov	 ecx, DWORD PTR [eax+216]
  02a8c	89 4d f4	 mov	 DWORD PTR _CountJewels$[ebp], ecx

; 938  : 	}
; 939  : 	else

  02a8f	eb 13		 jmp	 SHORT $LN1@exHighSton
$LN2@exHighSton:

; 940  : 	{
; 941  : 		MsgNormal(aIndex,"[JewelsBank] Exchange Only 10 20 30 40 50 100");

  02a91	68 00 00 00 00	 push	 OFFSET ??_C@_0CO@ECEIAILJ@?$FLJewelsBank?$FN?5Exchange?5Only?510?520@
  02a96	8b 45 08	 mov	 eax, DWORD PTR _aIndex$[ebp]
  02a99	50		 push	 eax
  02a9a	e8 00 00 00 00	 call	 ?MsgNormal@@YAXHPADZZ	; MsgNormal
  02a9f	83 c4 08	 add	 esp, 8

; 942  : 		return;

  02aa2	eb 25		 jmp	 SHORT $LN16@exHighSton
$LN1@exHighSton:

; 943  : 	}
; 944  : 
; 945  : 	ExUserDataSend(aIndex);

  02aa4	8b 45 08	 mov	 eax, DWORD PTR _aIndex$[ebp]
  02aa7	50		 push	 eax
  02aa8	e8 00 00 00 00	 call	 ?ExUserDataSend@@YAXH@Z	; ExUserDataSend
  02aad	83 c4 04	 add	 esp, 4

; 946  : 
; 947  : 	MsgNormal(aIndex,"[JewelsBank] Exchange %d Jewel of HighStone Added %d Credits " ,Count, CountJewels);

  02ab0	8b 45 f4	 mov	 eax, DWORD PTR _CountJewels$[ebp]
  02ab3	50		 push	 eax
  02ab4	8b 4d 0c	 mov	 ecx, DWORD PTR _Count$[ebp]
  02ab7	51		 push	 ecx
  02ab8	68 00 00 00 00	 push	 OFFSET ??_C@_0DO@EJIDHDNP@?$FLJewelsBank?$FN?5Exchange?5?$CFd?5Jewel?5o@
  02abd	8b 55 08	 mov	 edx, DWORD PTR _aIndex$[ebp]
  02ac0	52		 push	 edx
  02ac1	e8 00 00 00 00	 call	 ?MsgNormal@@YAXHPADZZ	; MsgNormal
  02ac6	83 c4 10	 add	 esp, 16			; 00000010H
$LN16@exHighSton:

; 948  : }

  02ac9	5f		 pop	 edi
  02aca	5e		 pop	 esi
  02acb	5b		 pop	 ebx
  02acc	8b e5		 mov	 esp, ebp
  02ace	5d		 pop	 ebp
  02acf	c2 08 00	 ret	 8
?exHighStone@JewelsBank@@QAEXHH@Z ENDP			; JewelsBank::exHighStone
_TEXT	ENDS
PUBLIC	??_C@_0DN@JCDPKPDP@?$FLJewelsBank?$FN?5Exchange?5?$CFd?5Jewel?5o@ ; `string'
PUBLIC	??_C@_0BM@KDIPIPDJ@?$FLJewelsBank?$FN?5No?5?$CFd?5GemStone?$AA@ ; `string'
PUBLIC	?exGemStone@JewelsBank@@QAEXHH@Z		; JewelsBank::exGemStone
;	COMDAT ??_C@_0DN@JCDPKPDP@?$FLJewelsBank?$FN?5Exchange?5?$CFd?5Jewel?5o@
CONST	SEGMENT
??_C@_0DN@JCDPKPDP@?$FLJewelsBank?$FN?5Exchange?5?$CFd?5Jewel?5o@ DB '[Je'
	DB	'welsBank] Exchange %d Jewel of GemStone Added %d Credits ', 00H ; `string'
CONST	ENDS
;	COMDAT ??_C@_0BM@KDIPIPDJ@?$FLJewelsBank?$FN?5No?5?$CFd?5GemStone?$AA@
CONST	SEGMENT
??_C@_0BM@KDIPIPDJ@?$FLJewelsBank?$FN?5No?5?$CFd?5GemStone?$AA@ DB '[Jewe'
	DB	'lsBank] No %d GemStone', 00H		; `string'
; Function compile flags: /Odtp /ZI
CONST	ENDS
_TEXT	SEGMENT
_CountJewels$ = -12					; size = 4
_lpObj$ = -8						; size = 4
_this$ = -4						; size = 4
_aIndex$ = 8						; size = 4
_Count$ = 12						; size = 4
?exGemStone@JewelsBank@@QAEXHH@Z PROC			; JewelsBank::exGemStone
; _this$ = ecx

; 951  : {

  02ae0	55		 push	 ebp
  02ae1	8b ec		 mov	 ebp, esp
  02ae3	83 ec 4c	 sub	 esp, 76			; 0000004cH
  02ae6	53		 push	 ebx
  02ae7	56		 push	 esi
  02ae8	57		 push	 edi
  02ae9	89 4d fc	 mov	 DWORD PTR _this$[ebp], ecx

; 952  : 	if( !g_ExLicense.CheckUser(eExUB::Local3)  && 
; 953  : 		!g_ExLicense.CheckUser(eExUB::SILVER1) &&
; 954  : 		!g_ExLicense.CheckUser(eExUB::SILVER2) && 
; 955  : 		!g_ExLicense.CheckUser(eExUB::drynea) )

  02aec	6a 1c		 push	 28			; 0000001cH
  02aee	b9 00 00 00 00	 mov	 ecx, OFFSET ?g_ExLicense@@3VCExLicense@@A ; g_ExLicense
  02af3	e8 00 00 00 00	 call	 ?CheckUser@CExLicense@@QAE_NH@Z ; CExLicense::CheckUser
  02af8	0f b6 c0	 movzx	 eax, al
  02afb	85 c0		 test	 eax, eax
  02afd	75 3e		 jne	 SHORT $LN15@exGemStone
  02aff	6a 07		 push	 7
  02b01	b9 00 00 00 00	 mov	 ecx, OFFSET ?g_ExLicense@@3VCExLicense@@A ; g_ExLicense
  02b06	e8 00 00 00 00	 call	 ?CheckUser@CExLicense@@QAE_NH@Z ; CExLicense::CheckUser
  02b0b	0f b6 c0	 movzx	 eax, al
  02b0e	85 c0		 test	 eax, eax
  02b10	75 2b		 jne	 SHORT $LN15@exGemStone
  02b12	6a 08		 push	 8
  02b14	b9 00 00 00 00	 mov	 ecx, OFFSET ?g_ExLicense@@3VCExLicense@@A ; g_ExLicense
  02b19	e8 00 00 00 00	 call	 ?CheckUser@CExLicense@@QAE_NH@Z ; CExLicense::CheckUser
  02b1e	0f b6 c0	 movzx	 eax, al
  02b21	85 c0		 test	 eax, eax
  02b23	75 18		 jne	 SHORT $LN15@exGemStone
  02b25	6a 01		 push	 1
  02b27	b9 00 00 00 00	 mov	 ecx, OFFSET ?g_ExLicense@@3VCExLicense@@A ; g_ExLicense
  02b2c	e8 00 00 00 00	 call	 ?CheckUser@CExLicense@@QAE_NH@Z ; CExLicense::CheckUser
  02b31	0f b6 c0	 movzx	 eax, al
  02b34	85 c0		 test	 eax, eax
  02b36	75 05		 jne	 SHORT $LN15@exGemStone

; 956  : 	{
; 957  : 		return;

  02b38	e9 2c 02 00 00	 jmp	 $LN16@exGemStone
$LN15@exGemStone:

; 958  : 	}
; 959  : 
; 960  : 	if(!this->Enable) return;

  02b3d	8b 45 fc	 mov	 eax, DWORD PTR _this$[ebp]
  02b40	0f b6 08	 movzx	 ecx, BYTE PTR [eax]
  02b43	85 c9		 test	 ecx, ecx
  02b45	75 05		 jne	 SHORT $LN14@exGemStone
  02b47	e9 1d 02 00 00	 jmp	 $LN16@exGemStone
$LN14@exGemStone:

; 961  : 
; 962  : 	LPOBJ lpObj = &gObj[aIndex];

  02b4c	8b 45 08	 mov	 eax, DWORD PTR _aIndex$[ebp]
  02b4f	69 c0 38 2b 00
	00		 imul	 eax, 11064		; 00002b38H
  02b55	03 05 00 00 00
	00		 add	 eax, DWORD PTR ?gObj@@3PAUOBJECTSTRUCT@@A ; gObj
  02b5b	89 45 f8	 mov	 DWORD PTR _lpObj$[ebp], eax

; 963  : 
; 964  : 	if(lpObj->GemStoneBank < Count)

  02b5e	8b 45 f8	 mov	 eax, DWORD PTR _lpObj$[ebp]
  02b61	8b 88 04 28 00
	00		 mov	 ecx, DWORD PTR [eax+10244]
  02b67	3b 4d 0c	 cmp	 ecx, DWORD PTR _Count$[ebp]
  02b6a	7d 1a		 jge	 SHORT $LN13@exGemStone

; 965  : 	{
; 966  : 		MsgNormal(aIndex,"[JewelsBank] No %d GemStone",Count);

  02b6c	8b 45 0c	 mov	 eax, DWORD PTR _Count$[ebp]
  02b6f	50		 push	 eax
  02b70	68 00 00 00 00	 push	 OFFSET ??_C@_0BM@KDIPIPDJ@?$FLJewelsBank?$FN?5No?5?$CFd?5GemStone?$AA@
  02b75	8b 4d 08	 mov	 ecx, DWORD PTR _aIndex$[ebp]
  02b78	51		 push	 ecx
  02b79	e8 00 00 00 00	 call	 ?MsgNormal@@YAXHPADZZ	; MsgNormal
  02b7e	83 c4 0c	 add	 esp, 12			; 0000000cH

; 967  : 		return;

  02b81	e9 e3 01 00 00	 jmp	 $LN16@exGemStone
$LN13@exGemStone:

; 968  : 	}
; 969  : 
; 970  : 	int CountJewels = 0;

  02b86	c7 45 f4 00 00
	00 00		 mov	 DWORD PTR _CountJewels$[ebp], 0

; 971  : 
; 972  : 	if (Count == 10)

  02b8d	83 7d 0c 0a	 cmp	 DWORD PTR _Count$[ebp], 10 ; 0000000aH
  02b91	75 41		 jne	 SHORT $LN12@exGemStone

; 973  : 	{
; 974  : 		lpObj->GemStoneBank -= Count;

  02b93	8b 45 f8	 mov	 eax, DWORD PTR _lpObj$[ebp]
  02b96	8b 88 04 28 00
	00		 mov	 ecx, DWORD PTR [eax+10244]
  02b9c	2b 4d 0c	 sub	 ecx, DWORD PTR _Count$[ebp]
  02b9f	8b 55 f8	 mov	 edx, DWORD PTR _lpObj$[ebp]
  02ba2	89 8a 04 28 00
	00		 mov	 DWORD PTR [edx+10244], ecx

; 975  : 		lpObj->ExCred += this->ExGemStoneTeen;

  02ba8	8b 45 fc	 mov	 eax, DWORD PTR _this$[ebp]
  02bab	db 80 dc 00 00
	00		 fild	 DWORD PTR [eax+220]
  02bb1	8b 4d f8	 mov	 ecx, DWORD PTR _lpObj$[ebp]
  02bb4	d8 81 a8 22 00
	00		 fadd	 DWORD PTR [ecx+8872]
  02bba	8b 55 f8	 mov	 edx, DWORD PTR _lpObj$[ebp]
  02bbd	d9 9a a8 22 00
	00		 fstp	 DWORD PTR [edx+8872]

; 976  : 		CountJewels = this->ExGemStoneTeen;

  02bc3	8b 45 fc	 mov	 eax, DWORD PTR _this$[ebp]
  02bc6	8b 88 dc 00 00
	00		 mov	 ecx, DWORD PTR [eax+220]
  02bcc	89 4d f4	 mov	 DWORD PTR _CountJewels$[ebp], ecx
  02bcf	e9 70 01 00 00	 jmp	 $LN1@exGemStone
$LN12@exGemStone:

; 977  : 	}
; 978  : 	else if (Count == 20)

  02bd4	83 7d 0c 14	 cmp	 DWORD PTR _Count$[ebp], 20 ; 00000014H
  02bd8	75 41		 jne	 SHORT $LN10@exGemStone

; 979  : 	{
; 980  : 		lpObj->GemStoneBank -= Count;

  02bda	8b 45 f8	 mov	 eax, DWORD PTR _lpObj$[ebp]
  02bdd	8b 88 04 28 00
	00		 mov	 ecx, DWORD PTR [eax+10244]
  02be3	2b 4d 0c	 sub	 ecx, DWORD PTR _Count$[ebp]
  02be6	8b 55 f8	 mov	 edx, DWORD PTR _lpObj$[ebp]
  02be9	89 8a 04 28 00
	00		 mov	 DWORD PTR [edx+10244], ecx

; 981  : 		lpObj->ExCred += this->ExGemStoneTwenty;

  02bef	8b 45 fc	 mov	 eax, DWORD PTR _this$[ebp]
  02bf2	db 80 e0 00 00
	00		 fild	 DWORD PTR [eax+224]
  02bf8	8b 4d f8	 mov	 ecx, DWORD PTR _lpObj$[ebp]
  02bfb	d8 81 a8 22 00
	00		 fadd	 DWORD PTR [ecx+8872]
  02c01	8b 55 f8	 mov	 edx, DWORD PTR _lpObj$[ebp]
  02c04	d9 9a a8 22 00
	00		 fstp	 DWORD PTR [edx+8872]

; 982  : 		CountJewels = this->ExGemStoneTwenty;

  02c0a	8b 45 fc	 mov	 eax, DWORD PTR _this$[ebp]
  02c0d	8b 88 e0 00 00
	00		 mov	 ecx, DWORD PTR [eax+224]
  02c13	89 4d f4	 mov	 DWORD PTR _CountJewels$[ebp], ecx
  02c16	e9 29 01 00 00	 jmp	 $LN1@exGemStone
$LN10@exGemStone:

; 983  : 	}
; 984  : 	else if (Count == 30)

  02c1b	83 7d 0c 1e	 cmp	 DWORD PTR _Count$[ebp], 30 ; 0000001eH
  02c1f	75 41		 jne	 SHORT $LN8@exGemStone

; 985  : 	{
; 986  : 		lpObj->GemStoneBank -= Count;

  02c21	8b 45 f8	 mov	 eax, DWORD PTR _lpObj$[ebp]
  02c24	8b 88 04 28 00
	00		 mov	 ecx, DWORD PTR [eax+10244]
  02c2a	2b 4d 0c	 sub	 ecx, DWORD PTR _Count$[ebp]
  02c2d	8b 55 f8	 mov	 edx, DWORD PTR _lpObj$[ebp]
  02c30	89 8a 04 28 00
	00		 mov	 DWORD PTR [edx+10244], ecx

; 987  : 		lpObj->ExCred += this->ExGemStoneThirty;

  02c36	8b 45 fc	 mov	 eax, DWORD PTR _this$[ebp]
  02c39	db 80 e4 00 00
	00		 fild	 DWORD PTR [eax+228]
  02c3f	8b 4d f8	 mov	 ecx, DWORD PTR _lpObj$[ebp]
  02c42	d8 81 a8 22 00
	00		 fadd	 DWORD PTR [ecx+8872]
  02c48	8b 55 f8	 mov	 edx, DWORD PTR _lpObj$[ebp]
  02c4b	d9 9a a8 22 00
	00		 fstp	 DWORD PTR [edx+8872]

; 988  : 		CountJewels = this->ExGemStoneThirty;

  02c51	8b 45 fc	 mov	 eax, DWORD PTR _this$[ebp]
  02c54	8b 88 e4 00 00
	00		 mov	 ecx, DWORD PTR [eax+228]
  02c5a	89 4d f4	 mov	 DWORD PTR _CountJewels$[ebp], ecx
  02c5d	e9 e2 00 00 00	 jmp	 $LN1@exGemStone
$LN8@exGemStone:

; 989  : 	}
; 990  : 	else if (Count == 40)

  02c62	83 7d 0c 28	 cmp	 DWORD PTR _Count$[ebp], 40 ; 00000028H
  02c66	75 41		 jne	 SHORT $LN6@exGemStone

; 991  : 	{
; 992  : 		lpObj->GemStoneBank -= Count;

  02c68	8b 45 f8	 mov	 eax, DWORD PTR _lpObj$[ebp]
  02c6b	8b 88 04 28 00
	00		 mov	 ecx, DWORD PTR [eax+10244]
  02c71	2b 4d 0c	 sub	 ecx, DWORD PTR _Count$[ebp]
  02c74	8b 55 f8	 mov	 edx, DWORD PTR _lpObj$[ebp]
  02c77	89 8a 04 28 00
	00		 mov	 DWORD PTR [edx+10244], ecx

; 993  : 		lpObj->ExCred += this->ExGemStoneForty;

  02c7d	8b 45 fc	 mov	 eax, DWORD PTR _this$[ebp]
  02c80	db 80 e8 00 00
	00		 fild	 DWORD PTR [eax+232]
  02c86	8b 4d f8	 mov	 ecx, DWORD PTR _lpObj$[ebp]
  02c89	d8 81 a8 22 00
	00		 fadd	 DWORD PTR [ecx+8872]
  02c8f	8b 55 f8	 mov	 edx, DWORD PTR _lpObj$[ebp]
  02c92	d9 9a a8 22 00
	00		 fstp	 DWORD PTR [edx+8872]

; 994  : 		CountJewels = this->ExGemStoneForty;

  02c98	8b 45 fc	 mov	 eax, DWORD PTR _this$[ebp]
  02c9b	8b 88 e8 00 00
	00		 mov	 ecx, DWORD PTR [eax+232]
  02ca1	89 4d f4	 mov	 DWORD PTR _CountJewels$[ebp], ecx
  02ca4	e9 9b 00 00 00	 jmp	 $LN1@exGemStone
$LN6@exGemStone:

; 995  : 	}
; 996  : 	else if (Count == 50)

  02ca9	83 7d 0c 32	 cmp	 DWORD PTR _Count$[ebp], 50 ; 00000032H
  02cad	75 3e		 jne	 SHORT $LN4@exGemStone

; 997  : 	{
; 998  : 		lpObj->GemStoneBank -= Count;

  02caf	8b 45 f8	 mov	 eax, DWORD PTR _lpObj$[ebp]
  02cb2	8b 88 04 28 00
	00		 mov	 ecx, DWORD PTR [eax+10244]
  02cb8	2b 4d 0c	 sub	 ecx, DWORD PTR _Count$[ebp]
  02cbb	8b 55 f8	 mov	 edx, DWORD PTR _lpObj$[ebp]
  02cbe	89 8a 04 28 00
	00		 mov	 DWORD PTR [edx+10244], ecx

; 999  : 		lpObj->ExCred += this->ExGemStoneFifty;

  02cc4	8b 45 fc	 mov	 eax, DWORD PTR _this$[ebp]
  02cc7	db 80 ec 00 00
	00		 fild	 DWORD PTR [eax+236]
  02ccd	8b 4d f8	 mov	 ecx, DWORD PTR _lpObj$[ebp]
  02cd0	d8 81 a8 22 00
	00		 fadd	 DWORD PTR [ecx+8872]
  02cd6	8b 55 f8	 mov	 edx, DWORD PTR _lpObj$[ebp]
  02cd9	d9 9a a8 22 00
	00		 fstp	 DWORD PTR [edx+8872]

; 1000 : 		CountJewels = this->ExGemStoneFifty;

  02cdf	8b 45 fc	 mov	 eax, DWORD PTR _this$[ebp]
  02ce2	8b 88 ec 00 00
	00		 mov	 ecx, DWORD PTR [eax+236]
  02ce8	89 4d f4	 mov	 DWORD PTR _CountJewels$[ebp], ecx
  02ceb	eb 57		 jmp	 SHORT $LN1@exGemStone
$LN4@exGemStone:

; 1001 : 	}
; 1002 : 	else if (Count == 100)

  02ced	83 7d 0c 64	 cmp	 DWORD PTR _Count$[ebp], 100 ; 00000064H
  02cf1	75 3e		 jne	 SHORT $LN2@exGemStone

; 1003 : 	{
; 1004 : 		lpObj->GemStoneBank -= Count;

  02cf3	8b 45 f8	 mov	 eax, DWORD PTR _lpObj$[ebp]
  02cf6	8b 88 04 28 00
	00		 mov	 ecx, DWORD PTR [eax+10244]
  02cfc	2b 4d 0c	 sub	 ecx, DWORD PTR _Count$[ebp]
  02cff	8b 55 f8	 mov	 edx, DWORD PTR _lpObj$[ebp]
  02d02	89 8a 04 28 00
	00		 mov	 DWORD PTR [edx+10244], ecx

; 1005 : 		lpObj->ExCred += this->ExGemStoneHundred;

  02d08	8b 45 fc	 mov	 eax, DWORD PTR _this$[ebp]
  02d0b	db 80 f0 00 00
	00		 fild	 DWORD PTR [eax+240]
  02d11	8b 4d f8	 mov	 ecx, DWORD PTR _lpObj$[ebp]
  02d14	d8 81 a8 22 00
	00		 fadd	 DWORD PTR [ecx+8872]
  02d1a	8b 55 f8	 mov	 edx, DWORD PTR _lpObj$[ebp]
  02d1d	d9 9a a8 22 00
	00		 fstp	 DWORD PTR [edx+8872]

; 1006 : 		CountJewels = this->ExGemStoneHundred;

  02d23	8b 45 fc	 mov	 eax, DWORD PTR _this$[ebp]
  02d26	8b 88 f0 00 00
	00		 mov	 ecx, DWORD PTR [eax+240]
  02d2c	89 4d f4	 mov	 DWORD PTR _CountJewels$[ebp], ecx

; 1007 : 	}
; 1008 : 	else

  02d2f	eb 13		 jmp	 SHORT $LN1@exGemStone
$LN2@exGemStone:

; 1009 : 	{
; 1010 : 		MsgNormal(aIndex,"[JewelsBank] Exchange Only 10 20 30 40 50 100");

  02d31	68 00 00 00 00	 push	 OFFSET ??_C@_0CO@ECEIAILJ@?$FLJewelsBank?$FN?5Exchange?5Only?510?520@
  02d36	8b 45 08	 mov	 eax, DWORD PTR _aIndex$[ebp]
  02d39	50		 push	 eax
  02d3a	e8 00 00 00 00	 call	 ?MsgNormal@@YAXHPADZZ	; MsgNormal
  02d3f	83 c4 08	 add	 esp, 8

; 1011 : 		return;

  02d42	eb 25		 jmp	 SHORT $LN16@exGemStone
$LN1@exGemStone:

; 1012 : 	}
; 1013 : 
; 1014 : 	ExUserDataSend(aIndex);

  02d44	8b 45 08	 mov	 eax, DWORD PTR _aIndex$[ebp]
  02d47	50		 push	 eax
  02d48	e8 00 00 00 00	 call	 ?ExUserDataSend@@YAXH@Z	; ExUserDataSend
  02d4d	83 c4 04	 add	 esp, 4

; 1015 : 
; 1016 : 	MsgNormal(aIndex,"[JewelsBank] Exchange %d Jewel of GemStone Added %d Credits " ,Count, CountJewels);

  02d50	8b 45 f4	 mov	 eax, DWORD PTR _CountJewels$[ebp]
  02d53	50		 push	 eax
  02d54	8b 4d 0c	 mov	 ecx, DWORD PTR _Count$[ebp]
  02d57	51		 push	 ecx
  02d58	68 00 00 00 00	 push	 OFFSET ??_C@_0DN@JCDPKPDP@?$FLJewelsBank?$FN?5Exchange?5?$CFd?5Jewel?5o@
  02d5d	8b 55 08	 mov	 edx, DWORD PTR _aIndex$[ebp]
  02d60	52		 push	 edx
  02d61	e8 00 00 00 00	 call	 ?MsgNormal@@YAXHPADZZ	; MsgNormal
  02d66	83 c4 10	 add	 esp, 16			; 00000010H
$LN16@exGemStone:

; 1017 : }

  02d69	5f		 pop	 edi
  02d6a	5e		 pop	 esi
  02d6b	5b		 pop	 ebx
  02d6c	8b e5		 mov	 esp, ebp
  02d6e	5d		 pop	 ebp
  02d6f	c2 08 00	 ret	 8
?exGemStone@JewelsBank@@QAEXHH@Z ENDP			; JewelsBank::exGemStone
_TEXT	ENDS
PUBLIC	?sendzen@JewelsBank@@QAEXHH@Z			; JewelsBank::sendzen
EXTRN	?GCMoneySend@@YAXHK@Z:PROC			; GCMoneySend
; Function compile flags: /Odtp /ZI
_TEXT	SEGMENT
_M$ = -12						; size = 4
_lpUser$ = -8						; size = 4
_this$ = -4						; size = 4
_aIndex$ = 8						; size = 4
_Count$ = 12						; size = 4
?sendzen@JewelsBank@@QAEXHH@Z PROC			; JewelsBank::sendzen
; _this$ = ecx

; 1024 : {

  02d80	55		 push	 ebp
  02d81	8b ec		 mov	 ebp, esp
  02d83	83 ec 4c	 sub	 esp, 76			; 0000004cH
  02d86	53		 push	 ebx
  02d87	56		 push	 esi
  02d88	57		 push	 edi
  02d89	89 4d fc	 mov	 DWORD PTR _this$[ebp], ecx

; 1025 : 	LPOBJ lpUser = &gObj[aIndex];

  02d8c	8b 45 08	 mov	 eax, DWORD PTR _aIndex$[ebp]
  02d8f	69 c0 38 2b 00
	00		 imul	 eax, 11064		; 00002b38H
  02d95	03 05 00 00 00
	00		 add	 eax, DWORD PTR ?gObj@@3PAUOBJECTSTRUCT@@A ; gObj
  02d9b	89 45 f8	 mov	 DWORD PTR _lpUser$[ebp], eax

; 1026 : 	unsigned int M = 1000000 * Count;

  02d9e	8b 45 0c	 mov	 eax, DWORD PTR _Count$[ebp]
  02da1	69 c0 40 42 0f
	00		 imul	 eax, 1000000		; 000f4240H
  02da7	89 45 f4	 mov	 DWORD PTR _M$[ebp], eax

; 1027 : 	if(M > lpUser->Money) return;

  02daa	8b 45 f8	 mov	 eax, DWORD PTR _lpUser$[ebp]
  02dad	8b 4d f4	 mov	 ecx, DWORD PTR _M$[ebp]
  02db0	3b 88 f0 00 00
	00		 cmp	 ecx, DWORD PTR [eax+240]
  02db6	76 02		 jbe	 SHORT $LN1@sendzen
  02db8	eb 4c		 jmp	 SHORT $LN2@sendzen
$LN1@sendzen:

; 1028 : 	lpUser->Money -= M;

  02dba	8b 45 f8	 mov	 eax, DWORD PTR _lpUser$[ebp]
  02dbd	8b 88 f0 00 00
	00		 mov	 ecx, DWORD PTR [eax+240]
  02dc3	2b 4d f4	 sub	 ecx, DWORD PTR _M$[ebp]
  02dc6	8b 55 f8	 mov	 edx, DWORD PTR _lpUser$[ebp]
  02dc9	89 8a f0 00 00
	00		 mov	 DWORD PTR [edx+240], ecx

; 1029 : 	lpUser->Zen += Count;

  02dcf	8b 45 f8	 mov	 eax, DWORD PTR _lpUser$[ebp]
  02dd2	8b 88 10 28 00
	00		 mov	 ecx, DWORD PTR [eax+10256]
  02dd8	03 4d 0c	 add	 ecx, DWORD PTR _Count$[ebp]
  02ddb	8b 55 f8	 mov	 edx, DWORD PTR _lpUser$[ebp]
  02dde	89 8a 10 28 00
	00		 mov	 DWORD PTR [edx+10256], ecx

; 1030 : 	GCMoneySend(aIndex,lpUser->Money);

  02de4	8b 45 f8	 mov	 eax, DWORD PTR _lpUser$[ebp]
  02de7	8b 88 f0 00 00
	00		 mov	 ecx, DWORD PTR [eax+240]
  02ded	51		 push	 ecx
  02dee	8b 55 08	 mov	 edx, DWORD PTR _aIndex$[ebp]
  02df1	52		 push	 edx
  02df2	e8 00 00 00 00	 call	 ?GCMoneySend@@YAXHK@Z	; GCMoneySend
  02df7	83 c4 08	 add	 esp, 8

; 1031 : 	ExUserDataSend(aIndex);

  02dfa	8b 45 08	 mov	 eax, DWORD PTR _aIndex$[ebp]
  02dfd	50		 push	 eax
  02dfe	e8 00 00 00 00	 call	 ?ExUserDataSend@@YAXH@Z	; ExUserDataSend
  02e03	83 c4 04	 add	 esp, 4
$LN2@sendzen:

; 1032 : }

  02e06	5f		 pop	 edi
  02e07	5e		 pop	 esi
  02e08	5b		 pop	 ebx
  02e09	8b e5		 mov	 esp, ebp
  02e0b	5d		 pop	 ebp
  02e0c	c2 08 00	 ret	 8
?sendzen@JewelsBank@@QAEXHH@Z ENDP			; JewelsBank::sendzen
_TEXT	ENDS
PUBLIC	?recvzen@JewelsBank@@QAEXHH@Z			; JewelsBank::recvzen
; Function compile flags: /Odtp /ZI
_TEXT	SEGMENT
_totalzen$ = -20					; size = 8
_M$ = -12						; size = 4
_lpUser$ = -8						; size = 4
_this$ = -4						; size = 4
_aIndex$ = 8						; size = 4
_Count$ = 12						; size = 4
?recvzen@JewelsBank@@QAEXHH@Z PROC			; JewelsBank::recvzen
; _this$ = ecx

; 1035 : {

  02e10	55		 push	 ebp
  02e11	8b ec		 mov	 ebp, esp
  02e13	83 ec 54	 sub	 esp, 84			; 00000054H
  02e16	53		 push	 ebx
  02e17	56		 push	 esi
  02e18	57		 push	 edi
  02e19	89 4d fc	 mov	 DWORD PTR _this$[ebp], ecx

; 1036 : 	LPOBJ lpUser = &gObj[aIndex];

  02e1c	8b 45 08	 mov	 eax, DWORD PTR _aIndex$[ebp]
  02e1f	69 c0 38 2b 00
	00		 imul	 eax, 11064		; 00002b38H
  02e25	03 05 00 00 00
	00		 add	 eax, DWORD PTR ?gObj@@3PAUOBJECTSTRUCT@@A ; gObj
  02e2b	89 45 f8	 mov	 DWORD PTR _lpUser$[ebp], eax

; 1037 : 	int M = 1000000;

  02e2e	c7 45 f4 40 42
	0f 00		 mov	 DWORD PTR _M$[ebp], 1000000 ; 000f4240H

; 1038 : 	unsigned long long totalzen = M + lpUser->Money;

  02e35	8b 45 f8	 mov	 eax, DWORD PTR _lpUser$[ebp]
  02e38	8b 4d f4	 mov	 ecx, DWORD PTR _M$[ebp]
  02e3b	03 88 f0 00 00
	00		 add	 ecx, DWORD PTR [eax+240]
  02e41	8b c1		 mov	 eax, ecx
  02e43	99		 cdq
  02e44	89 45 ec	 mov	 DWORD PTR _totalzen$[ebp], eax
  02e47	89 55 f0	 mov	 DWORD PTR _totalzen$[ebp+4], edx

; 1039 : 	if(totalzen > MAX_ZEN) return;

  02e4a	83 7d f0 00	 cmp	 DWORD PTR _totalzen$[ebp+4], 0
  02e4e	77 09		 ja	 SHORT $LN5@recvzen
  02e50	81 7d ec 00 94
	35 77		 cmp	 DWORD PTR _totalzen$[ebp], 2000000000 ; 77359400H
  02e57	76 02		 jbe	 SHORT $LN2@recvzen
$LN5@recvzen:
  02e59	eb 5c		 jmp	 SHORT $LN3@recvzen
$LN2@recvzen:

; 1040 : 	if(Count > lpUser->Zen) return;

  02e5b	8b 45 f8	 mov	 eax, DWORD PTR _lpUser$[ebp]
  02e5e	8b 4d 0c	 mov	 ecx, DWORD PTR _Count$[ebp]
  02e61	3b 88 10 28 00
	00		 cmp	 ecx, DWORD PTR [eax+10256]
  02e67	7e 02		 jle	 SHORT $LN1@recvzen
  02e69	eb 4c		 jmp	 SHORT $LN3@recvzen
$LN1@recvzen:

; 1041 : 	lpUser->Money += M;

  02e6b	8b 45 f8	 mov	 eax, DWORD PTR _lpUser$[ebp]
  02e6e	8b 88 f0 00 00
	00		 mov	 ecx, DWORD PTR [eax+240]
  02e74	03 4d f4	 add	 ecx, DWORD PTR _M$[ebp]
  02e77	8b 55 f8	 mov	 edx, DWORD PTR _lpUser$[ebp]
  02e7a	89 8a f0 00 00
	00		 mov	 DWORD PTR [edx+240], ecx

; 1042 : 	lpUser->Zen -= Count;

  02e80	8b 45 f8	 mov	 eax, DWORD PTR _lpUser$[ebp]
  02e83	8b 88 10 28 00
	00		 mov	 ecx, DWORD PTR [eax+10256]
  02e89	2b 4d 0c	 sub	 ecx, DWORD PTR _Count$[ebp]
  02e8c	8b 55 f8	 mov	 edx, DWORD PTR _lpUser$[ebp]
  02e8f	89 8a 10 28 00
	00		 mov	 DWORD PTR [edx+10256], ecx

; 1043 : 	GCMoneySend(aIndex,lpUser->Money);

  02e95	8b 45 f8	 mov	 eax, DWORD PTR _lpUser$[ebp]
  02e98	8b 88 f0 00 00
	00		 mov	 ecx, DWORD PTR [eax+240]
  02e9e	51		 push	 ecx
  02e9f	8b 55 08	 mov	 edx, DWORD PTR _aIndex$[ebp]
  02ea2	52		 push	 edx
  02ea3	e8 00 00 00 00	 call	 ?GCMoneySend@@YAXHK@Z	; GCMoneySend
  02ea8	83 c4 08	 add	 esp, 8

; 1044 : 	ExUserDataSend(aIndex);

  02eab	8b 45 08	 mov	 eax, DWORD PTR _aIndex$[ebp]
  02eae	50		 push	 eax
  02eaf	e8 00 00 00 00	 call	 ?ExUserDataSend@@YAXH@Z	; ExUserDataSend
  02eb4	83 c4 04	 add	 esp, 4
$LN3@recvzen:

; 1045 : }

  02eb7	5f		 pop	 edi
  02eb8	5e		 pop	 esi
  02eb9	5b		 pop	 ebx
  02eba	8b e5		 mov	 esp, ebp
  02ebc	5d		 pop	 ebp
  02ebd	c2 08 00	 ret	 8
?recvzen@JewelsBank@@QAEXHH@Z ENDP			; JewelsBank::recvzen
_TEXT	ENDS
PUBLIC	??_C@_0BO@OLPOGNLA@?$FLJewelsBank?$FN?5Send?5?$CFd?5Guardian?$AA@ ; `string'
PUBLIC	??_C@_0BO@DAOFPBCB@?$FLJewelsBank?$FN?5Need?5?$CFd?5Guardian?$AA@ ; `string'
PUBLIC	?sendGuardianBank@JewelsBank@@QAEXHH@Z		; JewelsBank::sendGuardianBank
;	COMDAT ??_C@_0BO@OLPOGNLA@?$FLJewelsBank?$FN?5Send?5?$CFd?5Guardian?$AA@
CONST	SEGMENT
??_C@_0BO@OLPOGNLA@?$FLJewelsBank?$FN?5Send?5?$CFd?5Guardian?$AA@ DB '[Je'
	DB	'welsBank] Send %d Guardian', 00H		; `string'
CONST	ENDS
;	COMDAT ??_C@_0BO@DAOFPBCB@?$FLJewelsBank?$FN?5Need?5?$CFd?5Guardian?$AA@
CONST	SEGMENT
??_C@_0BO@DAOFPBCB@?$FLJewelsBank?$FN?5Need?5?$CFd?5Guardian?$AA@ DB '[Je'
	DB	'welsBank] Need %d Guardian', 00H		; `string'
; Function compile flags: /Odtp /ZI
CONST	ENDS
_TEXT	SEGMENT
_lpObj$ = -8						; size = 4
_this$ = -4						; size = 4
_aIndex$ = 8						; size = 4
_Count$ = 12						; size = 4
?sendGuardianBank@JewelsBank@@QAEXHH@Z PROC		; JewelsBank::sendGuardianBank
; _this$ = ecx

; 1048 : {

  02ec0	55		 push	 ebp
  02ec1	8b ec		 mov	 ebp, esp
  02ec3	83 ec 48	 sub	 esp, 72			; 00000048H
  02ec6	53		 push	 ebx
  02ec7	56		 push	 esi
  02ec8	57		 push	 edi
  02ec9	89 4d fc	 mov	 DWORD PTR _this$[ebp], ecx

; 1049 : 	if(gObjGetItemCountInInventory(aIndex,ITEMGET(14,31),0) < Count)

  02ecc	6a 00		 push	 0
  02ece	68 1f 1c 00 00	 push	 7199			; 00001c1fH
  02ed3	8b 45 08	 mov	 eax, DWORD PTR _aIndex$[ebp]
  02ed6	50		 push	 eax
  02ed7	e8 00 00 00 00	 call	 ?gObjGetItemCountInInventory@@YAHHHH@Z ; gObjGetItemCountInInventory
  02edc	83 c4 0c	 add	 esp, 12			; 0000000cH
  02edf	3b 45 0c	 cmp	 eax, DWORD PTR _Count$[ebp]
  02ee2	7d 17		 jge	 SHORT $LN1@sendGuardi

; 1050 : 	{
; 1051 : 		MsgNormal(aIndex,"[JewelsBank] Need %d Guardian",Count);

  02ee4	8b 45 0c	 mov	 eax, DWORD PTR _Count$[ebp]
  02ee7	50		 push	 eax
  02ee8	68 00 00 00 00	 push	 OFFSET ??_C@_0BO@DAOFPBCB@?$FLJewelsBank?$FN?5Need?5?$CFd?5Guardian?$AA@
  02eed	8b 4d 08	 mov	 ecx, DWORD PTR _aIndex$[ebp]
  02ef0	51		 push	 ecx
  02ef1	e8 00 00 00 00	 call	 ?MsgNormal@@YAXHPADZZ	; MsgNormal
  02ef6	83 c4 0c	 add	 esp, 12			; 0000000cH

; 1052 : 		return;

  02ef9	eb 5f		 jmp	 SHORT $LN2@sendGuardi
$LN1@sendGuardi:

; 1053 : 	}
; 1054 : 	gObjDeleteItemsCount(aIndex,ITEMGET(14,31),0,Count);

  02efb	8b 45 0c	 mov	 eax, DWORD PTR _Count$[ebp]
  02efe	50		 push	 eax
  02eff	6a 00		 push	 0
  02f01	68 1f 1c 00 00	 push	 7199			; 00001c1fH
  02f06	8b 4d 08	 mov	 ecx, DWORD PTR _aIndex$[ebp]
  02f09	51		 push	 ecx
  02f0a	e8 00 00 00 00	 call	 ?gObjDeleteItemsCount@@YAHHFFH@Z ; gObjDeleteItemsCount
  02f0f	83 c4 10	 add	 esp, 16			; 00000010H

; 1055 : 	LPOBJ lpObj = &gObj[aIndex];

  02f12	8b 45 08	 mov	 eax, DWORD PTR _aIndex$[ebp]
  02f15	69 c0 38 2b 00
	00		 imul	 eax, 11064		; 00002b38H
  02f1b	03 05 00 00 00
	00		 add	 eax, DWORD PTR ?gObj@@3PAUOBJECTSTRUCT@@A ; gObj
  02f21	89 45 f8	 mov	 DWORD PTR _lpObj$[ebp], eax

; 1056 : 	lpObj->GuardianBank += Count;

  02f24	8b 45 f8	 mov	 eax, DWORD PTR _lpObj$[ebp]
  02f27	8b 88 f4 27 00
	00		 mov	 ecx, DWORD PTR [eax+10228]
  02f2d	03 4d 0c	 add	 ecx, DWORD PTR _Count$[ebp]
  02f30	8b 55 f8	 mov	 edx, DWORD PTR _lpObj$[ebp]
  02f33	89 8a f4 27 00
	00		 mov	 DWORD PTR [edx+10228], ecx

; 1057 : 	ExUserDataSend(aIndex);

  02f39	8b 45 08	 mov	 eax, DWORD PTR _aIndex$[ebp]
  02f3c	50		 push	 eax
  02f3d	e8 00 00 00 00	 call	 ?ExUserDataSend@@YAXH@Z	; ExUserDataSend
  02f42	83 c4 04	 add	 esp, 4

; 1058 : 
; 1059 : 	MsgNormal(aIndex,"[JewelsBank] Send %d Guardian",Count);

  02f45	8b 45 0c	 mov	 eax, DWORD PTR _Count$[ebp]
  02f48	50		 push	 eax
  02f49	68 00 00 00 00	 push	 OFFSET ??_C@_0BO@OLPOGNLA@?$FLJewelsBank?$FN?5Send?5?$CFd?5Guardian?$AA@
  02f4e	8b 4d 08	 mov	 ecx, DWORD PTR _aIndex$[ebp]
  02f51	51		 push	 ecx
  02f52	e8 00 00 00 00	 call	 ?MsgNormal@@YAXHPADZZ	; MsgNormal
  02f57	83 c4 0c	 add	 esp, 12			; 0000000cH
$LN2@sendGuardi:

; 1060 : }

  02f5a	5f		 pop	 edi
  02f5b	5e		 pop	 esi
  02f5c	5b		 pop	 ebx
  02f5d	8b e5		 mov	 esp, ebp
  02f5f	5d		 pop	 ebp
  02f60	c2 08 00	 ret	 8
?sendGuardianBank@JewelsBank@@QAEXHH@Z ENDP		; JewelsBank::sendGuardianBank
_TEXT	ENDS
PUBLIC	??_C@_0BN@CHEHBAFA@?$FLJewelsBank?$FN?5Send?5?$CFd?5Harmony?$AA@ ; `string'
PUBLIC	??_C@_0BN@IHBCFHHK@?$FLJewelsBank?$FN?5Need?5?$CFd?5Harmony?$AA@ ; `string'
PUBLIC	?sendHarmonyBank@JewelsBank@@QAEXHH@Z		; JewelsBank::sendHarmonyBank
;	COMDAT ??_C@_0BN@CHEHBAFA@?$FLJewelsBank?$FN?5Send?5?$CFd?5Harmony?$AA@
CONST	SEGMENT
??_C@_0BN@CHEHBAFA@?$FLJewelsBank?$FN?5Send?5?$CFd?5Harmony?$AA@ DB '[Jew'
	DB	'elsBank] Send %d Harmony', 00H		; `string'
CONST	ENDS
;	COMDAT ??_C@_0BN@IHBCFHHK@?$FLJewelsBank?$FN?5Need?5?$CFd?5Harmony?$AA@
CONST	SEGMENT
??_C@_0BN@IHBCFHHK@?$FLJewelsBank?$FN?5Need?5?$CFd?5Harmony?$AA@ DB '[Jew'
	DB	'elsBank] Need %d Harmony', 00H		; `string'
; Function compile flags: /Odtp /ZI
CONST	ENDS
_TEXT	SEGMENT
_lpObj$ = -8						; size = 4
_this$ = -4						; size = 4
_aIndex$ = 8						; size = 4
_Count$ = 12						; size = 4
?sendHarmonyBank@JewelsBank@@QAEXHH@Z PROC		; JewelsBank::sendHarmonyBank
; _this$ = ecx

; 1063 : {

  02f70	55		 push	 ebp
  02f71	8b ec		 mov	 ebp, esp
  02f73	83 ec 48	 sub	 esp, 72			; 00000048H
  02f76	53		 push	 ebx
  02f77	56		 push	 esi
  02f78	57		 push	 edi
  02f79	89 4d fc	 mov	 DWORD PTR _this$[ebp], ecx

; 1064 : 	if(gObjGetItemCountInInventory(aIndex,ITEMGET(14,42),0) < Count)

  02f7c	6a 00		 push	 0
  02f7e	68 2a 1c 00 00	 push	 7210			; 00001c2aH
  02f83	8b 45 08	 mov	 eax, DWORD PTR _aIndex$[ebp]
  02f86	50		 push	 eax
  02f87	e8 00 00 00 00	 call	 ?gObjGetItemCountInInventory@@YAHHHH@Z ; gObjGetItemCountInInventory
  02f8c	83 c4 0c	 add	 esp, 12			; 0000000cH
  02f8f	3b 45 0c	 cmp	 eax, DWORD PTR _Count$[ebp]
  02f92	7d 17		 jge	 SHORT $LN1@sendHarmon

; 1065 : 	{
; 1066 : 		MsgNormal(aIndex,"[JewelsBank] Need %d Harmony",Count);

  02f94	8b 45 0c	 mov	 eax, DWORD PTR _Count$[ebp]
  02f97	50		 push	 eax
  02f98	68 00 00 00 00	 push	 OFFSET ??_C@_0BN@IHBCFHHK@?$FLJewelsBank?$FN?5Need?5?$CFd?5Harmony?$AA@
  02f9d	8b 4d 08	 mov	 ecx, DWORD PTR _aIndex$[ebp]
  02fa0	51		 push	 ecx
  02fa1	e8 00 00 00 00	 call	 ?MsgNormal@@YAXHPADZZ	; MsgNormal
  02fa6	83 c4 0c	 add	 esp, 12			; 0000000cH

; 1067 : 		return;

  02fa9	eb 5f		 jmp	 SHORT $LN2@sendHarmon
$LN1@sendHarmon:

; 1068 : 	}
; 1069 : 	gObjDeleteItemsCount(aIndex,ITEMGET(14,42),0,Count);

  02fab	8b 45 0c	 mov	 eax, DWORD PTR _Count$[ebp]
  02fae	50		 push	 eax
  02faf	6a 00		 push	 0
  02fb1	68 2a 1c 00 00	 push	 7210			; 00001c2aH
  02fb6	8b 4d 08	 mov	 ecx, DWORD PTR _aIndex$[ebp]
  02fb9	51		 push	 ecx
  02fba	e8 00 00 00 00	 call	 ?gObjDeleteItemsCount@@YAHHFFH@Z ; gObjDeleteItemsCount
  02fbf	83 c4 10	 add	 esp, 16			; 00000010H

; 1070 : 	LPOBJ lpObj = &gObj[aIndex];

