; Listing generated by Microsoft (R) Optimizing Compiler Version 16.00.40219.01 

	TITLE	D:\Projects\ExTeam6.3\Source\GameServer\GameServer\KanturuBattleOfMaya.cpp
	.686P
	.XMM
	include listing.inc
	.model	flat

INCLUDELIB LIBCMT
INCLUDELIB OLDNAMES

_DATA	SEGMENT
_g_iNpcUpDfLevel_CGATE DD 01H
	DD	02H
	DD	02dc6c0H
	DD	02H
	DD	03H
	DD	02dc6c0H
	DD	03H
	DD	04H
	DD	02dc6c0H
_g_iNpcUpDfLevel_CSTATUE DD 01H
	DD	03H
	DD	02dc6c0H
	DD	02H
	DD	05H
	DD	02dc6c0H
	DD	03H
	DD	07H
	DD	02dc6c0H
_g_iNpcUpMaxHP_CGATE DD 02625a0H
	DD	02H
	DD	0f4240H
	DD	03567e0H
	DD	03H
	DD	0f4240H
	DD	04f5880H
	DD	04H
	DD	0f4240H
_g_iNpcUpMaxHP_CSTATUE DD 02191c0H
	DD	03H
	DD	0f4240H
	DD	033e140H
	DD	05H
	DD	0f4240H
	DD	04c4b40H
	DD	07H
	DD	0f4240H
_g_iNpcUpRgLevel_CSTATUE DD 01H
	DD	03H
	DD	04c4b40H
	DD	02H
	DD	05H
	DD	04c4b40H
	DD	03H
	DD	07H
	DD	04c4b40H
_g_iCsUserReSpawnArea DD 023H
	DD	011H
	DD	090H
	DD	030H
	DD	04aH
	DD	090H
	DD	073H
	DD	09aH
	DD	023H
	DD	011H
	DD	090H
	DD	030H
_g_iNpcDefense_CGATE DD 064H
	DD	0b4H
	DD	012cH
	DD	0208H
_g_iNpcDefense_CSTATUE DD 050H
	DD	0b4H
	DD	0154H
	DD	0226H
_g_iCastleWallStepAxisY DD 071H
	DD	0a0H
	DD	0cbH
_DATA	ENDS
PUBLIC	??_H@YGXPAXIHP6EPAX0@Z@Z			; `vector constructor iterator'
; Function compile flags: /Odtp /ZI
;	COMDAT ??_H@YGXPAXIHP6EPAX0@Z@Z
_TEXT	SEGMENT
___t$ = 8						; size = 4
___s$ = 12						; size = 4
___n$ = 16						; size = 4
___f$ = 20						; size = 4
??_H@YGXPAXIHP6EPAX0@Z@Z PROC				; `vector constructor iterator', COMDAT
  00000	55		 push	 ebp
  00001	8b ec		 mov	 ebp, esp
  00003	83 ec 40	 sub	 esp, 64			; 00000040H
  00006	53		 push	 ebx
  00007	56		 push	 esi
  00008	57		 push	 edi
$LN2@vector:
  00009	8b 45 10	 mov	 eax, DWORD PTR ___n$[ebp]
  0000c	83 e8 01	 sub	 eax, 1
  0000f	89 45 10	 mov	 DWORD PTR ___n$[ebp], eax
  00012	78 11		 js	 SHORT $LN3@vector
  00014	8b 4d 08	 mov	 ecx, DWORD PTR ___t$[ebp]
  00017	ff 55 14	 call	 DWORD PTR ___f$[ebp]
  0001a	8b 45 08	 mov	 eax, DWORD PTR ___t$[ebp]
  0001d	03 45 0c	 add	 eax, DWORD PTR ___s$[ebp]
  00020	89 45 08	 mov	 DWORD PTR ___t$[ebp], eax
  00023	eb e4		 jmp	 SHORT $LN2@vector
$LN3@vector:
  00025	5f		 pop	 edi
  00026	5e		 pop	 esi
  00027	5b		 pop	 ebx
  00028	8b e5		 mov	 esp, ebp
  0002a	5d		 pop	 ebp
  0002b	c2 10 00	 ret	 16			; 00000010H
??_H@YGXPAXIHP6EPAX0@Z@Z ENDP				; `vector constructor iterator'
_TEXT	ENDS
PUBLIC	?ResetAllData@CKanturuBattleOfMaya@@QAEXXZ	; CKanturuBattleOfMaya::ResetAllData
PUBLIC	?SetBattleSceneState@CKanturuBattleOfMaya@@QAEXH@Z ; CKanturuBattleOfMaya::SetBattleSceneState
PUBLIC	?SetBattleOfMayaState@CKanturuBattleOfMaya@@QAEXH@Z ; CKanturuBattleOfMaya::SetBattleOfMayaState
PUBLIC	??_7CKanturuBattleOfMaya@@6B@			; CKanturuBattleOfMaya::`vftable'
PUBLIC	??0CKanturuBattleOfMaya@@QAE@XZ			; CKanturuBattleOfMaya::CKanturuBattleOfMaya
PUBLIC	??_R4CKanturuBattleOfMaya@@6B@			; CKanturuBattleOfMaya::`RTTI Complete Object Locator'
PUBLIC	??_R0?AVCKanturuBattleOfMaya@@@8		; CKanturuBattleOfMaya `RTTI Type Descriptor'
PUBLIC	??_R3CKanturuBattleOfMaya@@8			; CKanturuBattleOfMaya::`RTTI Class Hierarchy Descriptor'
PUBLIC	??_R2CKanturuBattleOfMaya@@8			; CKanturuBattleOfMaya::`RTTI Base Class Array'
PUBLIC	??_R1A@?0A@EA@CKanturuBattleOfMaya@@8		; CKanturuBattleOfMaya::`RTTI Base Class Descriptor at (0,-1,0,64)'
EXTRN	??1CKanturuMaya@@UAE@XZ:PROC			; CKanturuMaya::~CKanturuMaya
EXTRN	??_M@YGXPAXIHP6EX0@Z@Z:PROC			; `eh vector destructor iterator'
EXTRN	??0CKanturuMaya@@QAE@XZ:PROC			; CKanturuMaya::CKanturuMaya
EXTRN	??_L@YGXPAXIHP6EX0@Z1@Z:PROC			; `eh vector constructor iterator'
EXTRN	??0CKanturuStateInfo@@QAE@XZ:PROC		; CKanturuStateInfo::CKanturuStateInfo
EXTRN	??1CKanturuStateInfo@@UAE@XZ:PROC		; CKanturuStateInfo::~CKanturuStateInfo
EXTRN	___security_cookie:DWORD
EXTRN	___CxxFrameHandler3:PROC
EXTRN	@__security_check_cookie@4:PROC
EXTRN	??_7type_info@@6B@:QWORD			; type_info::`vftable'
EXTRN	??_ECKanturuBattleOfMaya@@UAEPAXI@Z:PROC	; CKanturuBattleOfMaya::`vector deleting destructor'
;	COMDAT ??_R1A@?0A@EA@CKanturuBattleOfMaya@@8
; File d:\projects\exteam6.3\source\gameserver\gameserver\kanturubattleofmaya.cpp
rdata$r	SEGMENT
??_R1A@?0A@EA@CKanturuBattleOfMaya@@8 DD FLAT:??_R0?AVCKanturuBattleOfMaya@@@8 ; CKanturuBattleOfMaya::`RTTI Base Class Descriptor at (0,-1,0,64)'
	DD	00H
	DD	00H
	DD	0ffffffffH
	DD	00H
	DD	040H
	DD	FLAT:??_R3CKanturuBattleOfMaya@@8
rdata$r	ENDS
;	COMDAT ??_R2CKanturuBattleOfMaya@@8
rdata$r	SEGMENT
??_R2CKanturuBattleOfMaya@@8 DD FLAT:??_R1A@?0A@EA@CKanturuBattleOfMaya@@8 ; CKanturuBattleOfMaya::`RTTI Base Class Array'
rdata$r	ENDS
;	COMDAT ??_R3CKanturuBattleOfMaya@@8
rdata$r	SEGMENT
??_R3CKanturuBattleOfMaya@@8 DD 00H			; CKanturuBattleOfMaya::`RTTI Class Hierarchy Descriptor'
	DD	00H
	DD	01H
	DD	FLAT:??_R2CKanturuBattleOfMaya@@8
rdata$r	ENDS
;	COMDAT ??_R0?AVCKanturuBattleOfMaya@@@8
_DATA	SEGMENT
??_R0?AVCKanturuBattleOfMaya@@@8 DD FLAT:??_7type_info@@6B@ ; CKanturuBattleOfMaya `RTTI Type Descriptor'
	DD	00H
	DB	'.?AVCKanturuBattleOfMaya@@', 00H
_DATA	ENDS
;	COMDAT ??_R4CKanturuBattleOfMaya@@6B@
rdata$r	SEGMENT
??_R4CKanturuBattleOfMaya@@6B@ DD 00H			; CKanturuBattleOfMaya::`RTTI Complete Object Locator'
	DD	00H
	DD	00H
	DD	FLAT:??_R0?AVCKanturuBattleOfMaya@@@8
	DD	FLAT:??_R3CKanturuBattleOfMaya@@8
rdata$r	ENDS
;	COMDAT ??_7CKanturuBattleOfMaya@@6B@
CONST	SEGMENT
??_7CKanturuBattleOfMaya@@6B@ DD FLAT:??_R4CKanturuBattleOfMaya@@6B@ ; CKanturuBattleOfMaya::`vftable'
	DD	FLAT:??_ECKanturuBattleOfMaya@@UAEPAXI@Z
CONST	ENDS
xdata$x	SEGMENT
__unwindtable$??0CKanturuBattleOfMaya@@QAE@XZ DD 0ffffffffH
	DD	FLAT:__unwindfunclet$??0CKanturuBattleOfMaya@@QAE@XZ$0
	DD	00H
	DD	FLAT:__unwindfunclet$??0CKanturuBattleOfMaya@@QAE@XZ$1
	DD	01H
	DD	FLAT:__unwindfunclet$??0CKanturuBattleOfMaya@@QAE@XZ$2
__ehfuncinfo$??0CKanturuBattleOfMaya@@QAE@XZ DD 019930522H
	DD	03H
	DD	FLAT:__unwindtable$??0CKanturuBattleOfMaya@@QAE@XZ
	DD	2 DUP(00H)
	DD	2 DUP(00H)
	DD	00H
	DD	01H
; Function compile flags: /Odtp /ZI
xdata$x	ENDS
_TEXT	SEGMENT
_iCount$228018 = -24					; size = 4
_iCount$228014 = -20					; size = 4
_this$ = -16						; size = 4
__$EHRec$ = -12						; size = 12
??0CKanturuBattleOfMaya@@QAE@XZ PROC			; CKanturuBattleOfMaya::CKanturuBattleOfMaya
; _this$ = ecx

; 24   : {

  00000	55		 push	 ebp
  00001	8b ec		 mov	 ebp, esp
  00003	6a ff		 push	 -1
  00005	68 00 00 00 00	 push	 __ehhandler$??0CKanturuBattleOfMaya@@QAE@XZ
  0000a	64 a1 00 00 00
	00		 mov	 eax, DWORD PTR fs:0
  00010	50		 push	 eax
  00011	83 ec 4c	 sub	 esp, 76			; 0000004cH
  00014	53		 push	 ebx
  00015	56		 push	 esi
  00016	57		 push	 edi
  00017	a1 00 00 00 00	 mov	 eax, DWORD PTR ___security_cookie
  0001c	33 c5		 xor	 eax, ebp
  0001e	50		 push	 eax
  0001f	8d 45 f4	 lea	 eax, DWORD PTR __$EHRec$[ebp]
  00022	64 a3 00 00 00
	00		 mov	 DWORD PTR fs:0, eax
  00028	89 4d f0	 mov	 DWORD PTR _this$[ebp], ecx
  0002b	8b 45 f0	 mov	 eax, DWORD PTR _this$[ebp]
  0002e	c7 00 00 00 00
	00		 mov	 DWORD PTR [eax], OFFSET ??_7CKanturuBattleOfMaya@@6B@
  00034	68 00 00 00 00	 push	 OFFSET ??1CKanturuStateInfo@@UAE@XZ ; CKanturuStateInfo::~CKanturuStateInfo
  00039	68 00 00 00 00	 push	 OFFSET ??0CKanturuStateInfo@@QAE@XZ ; CKanturuStateInfo::CKanturuStateInfo
  0003e	6a 03		 push	 3
  00040	6a 14		 push	 20			; 00000014H
  00042	8b 45 f0	 mov	 eax, DWORD PTR _this$[ebp]
  00045	83 c0 10	 add	 eax, 16			; 00000010H
  00048	50		 push	 eax
  00049	e8 00 00 00 00	 call	 ??_L@YGXPAXIHP6EX0@Z1@Z
  0004e	c7 45 fc 00 00
	00 00		 mov	 DWORD PTR __$EHRec$[ebp+8], 0
  00055	68 00 00 00 00	 push	 OFFSET ??1CKanturuStateInfo@@UAE@XZ ; CKanturuStateInfo::~CKanturuStateInfo
  0005a	68 00 00 00 00	 push	 OFFSET ??0CKanturuStateInfo@@QAE@XZ ; CKanturuStateInfo::CKanturuStateInfo
  0005f	6a 13		 push	 19			; 00000013H
  00061	6a 14		 push	 20			; 00000014H
  00063	8b 45 f0	 mov	 eax, DWORD PTR _this$[ebp]
  00066	83 c0 50	 add	 eax, 80			; 00000050H
  00069	50		 push	 eax
  0006a	e8 00 00 00 00	 call	 ??_L@YGXPAXIHP6EX0@Z1@Z
  0006f	c6 45 fc 01	 mov	 BYTE PTR __$EHRec$[ebp+8], 1
  00073	8b 4d f0	 mov	 ecx, DWORD PTR _this$[ebp]
  00076	81 c1 dc 01 00
	00		 add	 ecx, 476		; 000001dcH
  0007c	e8 00 00 00 00	 call	 ??0CKanturuMaya@@QAE@XZ	; CKanturuMaya::CKanturuMaya
  00081	c6 45 fc 02	 mov	 BYTE PTR __$EHRec$[ebp+8], 2

; 25   : 	this->SetBattleOfMayaState(0);

  00085	6a 00		 push	 0
  00087	8b 4d f0	 mov	 ecx, DWORD PTR _this$[ebp]
  0008a	e8 00 00 00 00	 call	 ?SetBattleOfMayaState@CKanturuBattleOfMaya@@QAEXH@Z ; CKanturuBattleOfMaya::SetBattleOfMayaState

; 26   : 	this->SetBattleSceneState(-1);

  0008f	6a ff		 push	 -1
  00091	8b 4d f0	 mov	 ecx, DWORD PTR _this$[ebp]
  00094	e8 00 00 00 00	 call	 ?SetBattleSceneState@CKanturuBattleOfMaya@@QAEXH@Z ; CKanturuBattleOfMaya::SetBattleSceneState

; 27   : 	this->m_iMayaLeftHandObjIndex = -1;

  00099	8b 45 f0	 mov	 eax, DWORD PTR _this$[ebp]
  0009c	c7 80 f4 01 00
	00 ff ff ff ff	 mov	 DWORD PTR [eax+500], -1

; 28   : 	this->m_iMayaRightHandObjIndex = -1;

  000a6	8b 45 f0	 mov	 eax, DWORD PTR _this$[ebp]
  000a9	c7 80 f8 01 00
	00 ff ff ff ff	 mov	 DWORD PTR [eax+504], -1

; 29   : 
; 30   : 	for ( int iCount=0;iCount<KANTURU_MAYA_AI_CHANGE_TIME;iCount++)

  000b3	c7 45 ec 00 00
	00 00		 mov	 DWORD PTR _iCount$228014[ebp], 0
  000ba	eb 09		 jmp	 SHORT $LN6@CKanturuBa
$LN5@CKanturuBa:
  000bc	8b 45 ec	 mov	 eax, DWORD PTR _iCount$228014[ebp]
  000bf	83 c0 01	 add	 eax, 1
  000c2	89 45 ec	 mov	 DWORD PTR _iCount$228014[ebp], eax
$LN6@CKanturuBa:
  000c5	83 7d ec 04	 cmp	 DWORD PTR _iCount$228014[ebp], 4
  000c9	7d 13		 jge	 SHORT $LN4@CKanturuBa

; 31   : 	{
; 32   : 		this->m_iMayaHandAIChangeTime[iCount] = -1;

  000cb	8b 45 ec	 mov	 eax, DWORD PTR _iCount$228014[ebp]
  000ce	8b 4d f0	 mov	 ecx, DWORD PTR _this$[ebp]
  000d1	c7 84 81 fc 01
	00 00 ff ff ff
	ff		 mov	 DWORD PTR [ecx+eax*4+508], -1

; 33   : 	}

  000dc	eb de		 jmp	 SHORT $LN5@CKanturuBa
$LN4@CKanturuBa:

; 34   : 
; 35   : 	this->m_iMayaHandAIAppliedTime = 0;

  000de	8b 45 f0	 mov	 eax, DWORD PTR _this$[ebp]
  000e1	c7 80 10 02 00
	00 00 00 00 00	 mov	 DWORD PTR [eax+528], 0

; 36   : 	this->m_iMayaHandCurrentAI = 0;

  000eb	8b 45 f0	 mov	 eax, DWORD PTR _this$[ebp]
  000ee	c7 80 14 02 00
	00 00 00 00 00	 mov	 DWORD PTR [eax+532], 0

; 37   : 
; 38   : 	for (int iCount=0;iCount<KANTURU_MAYA_GROUP_NUMBER;iCount++)

  000f8	c7 45 e8 00 00
	00 00		 mov	 DWORD PTR _iCount$228018[ebp], 0
  000ff	eb 09		 jmp	 SHORT $LN3@CKanturuBa
$LN2@CKanturuBa:
  00101	8b 45 e8	 mov	 eax, DWORD PTR _iCount$228018[ebp]
  00104	83 c0 01	 add	 eax, 1
  00107	89 45 e8	 mov	 DWORD PTR _iCount$228018[ebp], eax
$LN3@CKanturuBa:
  0010a	83 7d e8 03	 cmp	 DWORD PTR _iCount$228018[ebp], 3
  0010e	7d 13		 jge	 SHORT $LN1@CKanturuBa

; 39   : 	{
; 40   : 		this->m_iMayaHandGroupNumber[iCount] = -1;

  00110	8b 45 e8	 mov	 eax, DWORD PTR _iCount$228018[ebp]
  00113	8b 4d f0	 mov	 ecx, DWORD PTR _this$[ebp]
  00116	c7 84 81 18 02
	00 00 ff ff ff
	ff		 mov	 DWORD PTR [ecx+eax*4+536], -1

; 41   : 	}

  00121	eb de		 jmp	 SHORT $LN2@CKanturuBa
$LN1@CKanturuBa:

; 42   : 
; 43   : 	this->m_iMayaHandDieTimeCounter = 0;

  00123	8b 45 f0	 mov	 eax, DWORD PTR _this$[ebp]
  00126	c7 80 f0 01 00
	00 00 00 00 00	 mov	 DWORD PTR [eax+496], 0

; 44   : 	this->ResetAllData();

  00130	8b 4d f0	 mov	 ecx, DWORD PTR _this$[ebp]
  00133	e8 00 00 00 00	 call	 ?ResetAllData@CKanturuBattleOfMaya@@QAEXXZ ; CKanturuBattleOfMaya::ResetAllData

; 45   : }

  00138	c7 45 fc ff ff
	ff ff		 mov	 DWORD PTR __$EHRec$[ebp+8], -1
  0013f	8b 45 f0	 mov	 eax, DWORD PTR _this$[ebp]
  00142	8b 4d f4	 mov	 ecx, DWORD PTR __$EHRec$[ebp]
  00145	64 89 0d 00 00
	00 00		 mov	 DWORD PTR fs:0, ecx
  0014c	59		 pop	 ecx
  0014d	5f		 pop	 edi
  0014e	5e		 pop	 esi
  0014f	5b		 pop	 ebx
  00150	8b e5		 mov	 esp, ebp
  00152	5d		 pop	 ebp
  00153	c3		 ret	 0
_TEXT	ENDS
text$x	SEGMENT
__unwindfunclet$??0CKanturuBattleOfMaya@@QAE@XZ$0:
  00000	68 00 00 00 00	 push	 OFFSET ??1CKanturuStateInfo@@UAE@XZ ; CKanturuStateInfo::~CKanturuStateInfo
  00005	6a 03		 push	 3
  00007	6a 14		 push	 20			; 00000014H
  00009	8b 45 f0	 mov	 eax, DWORD PTR _this$[ebp]
  0000c	83 c0 10	 add	 eax, 16			; 00000010H
  0000f	50		 push	 eax
  00010	e8 00 00 00 00	 call	 ??_M@YGXPAXIHP6EX0@Z@Z
  00015	c3		 ret	 0
__unwindfunclet$??0CKanturuBattleOfMaya@@QAE@XZ$1:
  00016	68 00 00 00 00	 push	 OFFSET ??1CKanturuStateInfo@@UAE@XZ ; CKanturuStateInfo::~CKanturuStateInfo
  0001b	6a 13		 push	 19			; 00000013H
  0001d	6a 14		 push	 20			; 00000014H
  0001f	8b 45 f0	 mov	 eax, DWORD PTR _this$[ebp]
  00022	83 c0 50	 add	 eax, 80			; 00000050H
  00025	50		 push	 eax
  00026	e8 00 00 00 00	 call	 ??_M@YGXPAXIHP6EX0@Z@Z
  0002b	c3		 ret	 0
__unwindfunclet$??0CKanturuBattleOfMaya@@QAE@XZ$2:
  0002c	8b 4d f0	 mov	 ecx, DWORD PTR _this$[ebp]
  0002f	81 c1 dc 01 00
	00		 add	 ecx, 476		; 000001dcH
  00035	e9 00 00 00 00	 jmp	 ??1CKanturuMaya@@UAE@XZ	; CKanturuMaya::~CKanturuMaya
__ehhandler$??0CKanturuBattleOfMaya@@QAE@XZ:
  0003a	8b 54 24 08	 mov	 edx, DWORD PTR [esp+8]
  0003e	8d 42 0c	 lea	 eax, DWORD PTR [edx+12]
  00041	8b 4a a4	 mov	 ecx, DWORD PTR [edx-92]
  00044	33 c8		 xor	 ecx, eax
  00046	e8 00 00 00 00	 call	 @__security_check_cookie@4
  0004b	b8 00 00 00 00	 mov	 eax, OFFSET __ehfuncinfo$??0CKanturuBattleOfMaya@@QAE@XZ
  00050	e9 00 00 00 00	 jmp	 ___CxxFrameHandler3
text$x	ENDS
??0CKanturuBattleOfMaya@@QAE@XZ ENDP			; CKanturuBattleOfMaya::CKanturuBattleOfMaya
; Function compile flags: /Odtp /ZI
; File d:\projects\exteam6.3\source\gameserver\gameserver\kanturubattleofmaya.h
;	COMDAT ?SetBattleOfMayaState@CKanturuBattleOfMaya@@QAEXH@Z
_TEXT	SEGMENT
_this$ = -4						; size = 4
_iState$ = 8						; size = 4
?SetBattleOfMayaState@CKanturuBattleOfMaya@@QAEXH@Z PROC ; CKanturuBattleOfMaya::SetBattleOfMayaState, COMDAT
; _this$ = ecx

; 93   : 	void SetBattleOfMayaState(int iState){this->m_iBattleOfMayaState = iState;}

  00000	55		 push	 ebp
  00001	8b ec		 mov	 ebp, esp
  00003	83 ec 44	 sub	 esp, 68			; 00000044H
  00006	53		 push	 ebx
  00007	56		 push	 esi
  00008	57		 push	 edi
  00009	89 4d fc	 mov	 DWORD PTR _this$[ebp], ecx
  0000c	8b 45 fc	 mov	 eax, DWORD PTR _this$[ebp]
  0000f	8b 4d 08	 mov	 ecx, DWORD PTR _iState$[ebp]
  00012	89 48 08	 mov	 DWORD PTR [eax+8], ecx
  00015	5f		 pop	 edi
  00016	5e		 pop	 esi
  00017	5b		 pop	 ebx
  00018	8b e5		 mov	 esp, ebp
  0001a	5d		 pop	 ebp
  0001b	c2 04 00	 ret	 4
?SetBattleOfMayaState@CKanturuBattleOfMaya@@QAEXH@Z ENDP ; CKanturuBattleOfMaya::SetBattleOfMayaState
; Function compile flags: /Odtp /ZI
_TEXT	ENDS
;	COMDAT ?SetBattleSceneState@CKanturuBattleOfMaya@@QAEXH@Z
_TEXT	SEGMENT
_this$ = -4						; size = 4
_iScene$ = 8						; size = 4
?SetBattleSceneState@CKanturuBattleOfMaya@@QAEXH@Z PROC	; CKanturuBattleOfMaya::SetBattleSceneState, COMDAT
; _this$ = ecx

; 96   : 	{

  00000	55		 push	 ebp
  00001	8b ec		 mov	 ebp, esp
  00003	83 ec 44	 sub	 esp, 68			; 00000044H
  00006	53		 push	 ebx
  00007	56		 push	 esi
  00008	57		 push	 edi
  00009	89 4d fc	 mov	 DWORD PTR _this$[ebp], ecx

; 97   : 		this->m_iSceneState = iScene;

  0000c	8b 45 fc	 mov	 eax, DWORD PTR _this$[ebp]
  0000f	8b 4d 08	 mov	 ecx, DWORD PTR _iScene$[ebp]
  00012	89 48 0c	 mov	 DWORD PTR [eax+12], ecx

; 98   : 		this->m_bIsSceneSuccess = FALSE;

  00015	8b 45 fc	 mov	 eax, DWORD PTR _this$[ebp]
  00018	c7 80 d8 01 00
	00 00 00 00 00	 mov	 DWORD PTR [eax+472], 0

; 99   : 	}

  00022	5f		 pop	 edi
  00023	5e		 pop	 esi
  00024	5b		 pop	 ebx
  00025	8b e5		 mov	 esp, ebp
  00027	5d		 pop	 ebp
  00028	c2 04 00	 ret	 4
?SetBattleSceneState@CKanturuBattleOfMaya@@QAEXH@Z ENDP	; CKanturuBattleOfMaya::SetBattleSceneState
_TEXT	ENDS
PUBLIC	??1CKanturuBattleOfMaya@@UAE@XZ			; CKanturuBattleOfMaya::~CKanturuBattleOfMaya
EXTRN	??3@YAXPAX@Z:PROC				; operator delete
; Function compile flags: /Odtp /ZI
;	COMDAT ??_GCKanturuBattleOfMaya@@UAEPAXI@Z
_TEXT	SEGMENT
_this$ = -4						; size = 4
___flags$ = 8						; size = 4
??_GCKanturuBattleOfMaya@@UAEPAXI@Z PROC		; CKanturuBattleOfMaya::`scalar deleting destructor', COMDAT
; _this$ = ecx
  00000	55		 push	 ebp
  00001	8b ec		 mov	 ebp, esp
  00003	83 ec 44	 sub	 esp, 68			; 00000044H
  00006	53		 push	 ebx
  00007	56		 push	 esi
  00008	57		 push	 edi
  00009	89 4d fc	 mov	 DWORD PTR _this$[ebp], ecx
  0000c	8b 4d fc	 mov	 ecx, DWORD PTR _this$[ebp]
  0000f	e8 00 00 00 00	 call	 ??1CKanturuBattleOfMaya@@UAE@XZ ; CKanturuBattleOfMaya::~CKanturuBattleOfMaya
  00014	8b 45 08	 mov	 eax, DWORD PTR ___flags$[ebp]
  00017	83 e0 01	 and	 eax, 1
  0001a	74 0c		 je	 SHORT $LN1@scalar
  0001c	8b 45 fc	 mov	 eax, DWORD PTR _this$[ebp]
  0001f	50		 push	 eax
  00020	e8 00 00 00 00	 call	 ??3@YAXPAX@Z		; operator delete
  00025	83 c4 04	 add	 esp, 4
$LN1@scalar:
  00028	8b 45 fc	 mov	 eax, DWORD PTR _this$[ebp]
  0002b	5f		 pop	 edi
  0002c	5e		 pop	 esi
  0002d	5b		 pop	 ebx
  0002e	8b e5		 mov	 esp, ebp
  00030	5d		 pop	 ebp
  00031	c2 04 00	 ret	 4
??_GCKanturuBattleOfMaya@@UAEPAXI@Z ENDP		; CKanturuBattleOfMaya::`scalar deleting destructor'
_TEXT	ENDS
xdata$x	SEGMENT
__unwindtable$??1CKanturuBattleOfMaya@@UAE@XZ DD 0ffffffffH
	DD	FLAT:__unwindfunclet$??1CKanturuBattleOfMaya@@UAE@XZ$0
	DD	00H
	DD	FLAT:__unwindfunclet$??1CKanturuBattleOfMaya@@UAE@XZ$1
__ehfuncinfo$??1CKanturuBattleOfMaya@@UAE@XZ DD 019930522H
	DD	02H
	DD	FLAT:__unwindtable$??1CKanturuBattleOfMaya@@UAE@XZ
	DD	2 DUP(00H)
	DD	2 DUP(00H)
	DD	00H
	DD	01H
; Function compile flags: /Odtp /ZI
; File d:\projects\exteam6.3\source\gameserver\gameserver\kanturubattleofmaya.cpp
xdata$x	ENDS
_TEXT	SEGMENT
_this$ = -16						; size = 4
__$EHRec$ = -12						; size = 12
??1CKanturuBattleOfMaya@@UAE@XZ PROC			; CKanturuBattleOfMaya::~CKanturuBattleOfMaya
; _this$ = ecx

; 51   : {

  00160	55		 push	 ebp
  00161	8b ec		 mov	 ebp, esp
  00163	6a ff		 push	 -1
  00165	68 00 00 00 00	 push	 __ehhandler$??1CKanturuBattleOfMaya@@UAE@XZ
  0016a	64 a1 00 00 00
	00		 mov	 eax, DWORD PTR fs:0
  00170	50		 push	 eax
  00171	83 ec 44	 sub	 esp, 68			; 00000044H
  00174	53		 push	 ebx
  00175	56		 push	 esi
  00176	57		 push	 edi
  00177	a1 00 00 00 00	 mov	 eax, DWORD PTR ___security_cookie
  0017c	33 c5		 xor	 eax, ebp
  0017e	50		 push	 eax
  0017f	8d 45 f4	 lea	 eax, DWORD PTR __$EHRec$[ebp]
  00182	64 a3 00 00 00
	00		 mov	 DWORD PTR fs:0, eax
  00188	89 4d f0	 mov	 DWORD PTR _this$[ebp], ecx
  0018b	8b 45 f0	 mov	 eax, DWORD PTR _this$[ebp]
  0018e	c7 00 00 00 00
	00		 mov	 DWORD PTR [eax], OFFSET ??_7CKanturuBattleOfMaya@@6B@
  00194	c7 45 fc 01 00
	00 00		 mov	 DWORD PTR __$EHRec$[ebp+8], 1

; 52   : 	return;
; 53   : }

  0019b	8b 4d f0	 mov	 ecx, DWORD PTR _this$[ebp]
  0019e	81 c1 dc 01 00
	00		 add	 ecx, 476		; 000001dcH
  001a4	e8 00 00 00 00	 call	 ??1CKanturuMaya@@UAE@XZ	; CKanturuMaya::~CKanturuMaya
  001a9	c6 45 fc 00	 mov	 BYTE PTR __$EHRec$[ebp+8], 0
  001ad	68 00 00 00 00	 push	 OFFSET ??1CKanturuStateInfo@@UAE@XZ ; CKanturuStateInfo::~CKanturuStateInfo
  001b2	6a 13		 push	 19			; 00000013H
  001b4	6a 14		 push	 20			; 00000014H
  001b6	8b 45 f0	 mov	 eax, DWORD PTR _this$[ebp]
  001b9	83 c0 50	 add	 eax, 80			; 00000050H
  001bc	50		 push	 eax
  001bd	e8 00 00 00 00	 call	 ??_M@YGXPAXIHP6EX0@Z@Z
  001c2	c7 45 fc ff ff
	ff ff		 mov	 DWORD PTR __$EHRec$[ebp+8], -1
  001c9	68 00 00 00 00	 push	 OFFSET ??1CKanturuStateInfo@@UAE@XZ ; CKanturuStateInfo::~CKanturuStateInfo
  001ce	6a 03		 push	 3
  001d0	6a 14		 push	 20			; 00000014H
  001d2	8b 4d f0	 mov	 ecx, DWORD PTR _this$[ebp]
  001d5	83 c1 10	 add	 ecx, 16			; 00000010H
  001d8	51		 push	 ecx
  001d9	e8 00 00 00 00	 call	 ??_M@YGXPAXIHP6EX0@Z@Z
  001de	8b 4d f4	 mov	 ecx, DWORD PTR __$EHRec$[ebp]
  001e1	64 89 0d 00 00
	00 00		 mov	 DWORD PTR fs:0, ecx
  001e8	59		 pop	 ecx
  001e9	5f		 pop	 edi
  001ea	5e		 pop	 esi
  001eb	5b		 pop	 ebx
  001ec	8b e5		 mov	 esp, ebp
  001ee	5d		 pop	 ebp
  001ef	c3		 ret	 0
_TEXT	ENDS
text$x	SEGMENT
__unwindfunclet$??1CKanturuBattleOfMaya@@UAE@XZ$0:
  00055	68 00 00 00 00	 push	 OFFSET ??1CKanturuStateInfo@@UAE@XZ ; CKanturuStateInfo::~CKanturuStateInfo
  0005a	6a 03		 push	 3
  0005c	6a 14		 push	 20			; 00000014H
  0005e	8b 45 f0	 mov	 eax, DWORD PTR _this$[ebp]
  00061	83 c0 10	 add	 eax, 16			; 00000010H
  00064	50		 push	 eax
  00065	e8 00 00 00 00	 call	 ??_M@YGXPAXIHP6EX0@Z@Z
  0006a	c3		 ret	 0
__unwindfunclet$??1CKanturuBattleOfMaya@@UAE@XZ$1:
  0006b	68 00 00 00 00	 push	 OFFSET ??1CKanturuStateInfo@@UAE@XZ ; CKanturuStateInfo::~CKanturuStateInfo
  00070	6a 13		 push	 19			; 00000013H
  00072	6a 14		 push	 20			; 00000014H
  00074	8b 45 f0	 mov	 eax, DWORD PTR _this$[ebp]
  00077	83 c0 50	 add	 eax, 80			; 00000050H
  0007a	50		 push	 eax
  0007b	e8 00 00 00 00	 call	 ??_M@YGXPAXIHP6EX0@Z@Z
  00080	c3		 ret	 0
__ehhandler$??1CKanturuBattleOfMaya@@UAE@XZ:
  00081	8b 54 24 08	 mov	 edx, DWORD PTR [esp+8]
  00085	8d 42 0c	 lea	 eax, DWORD PTR [edx+12]
  00088	8b 4a ac	 mov	 ecx, DWORD PTR [edx-84]
  0008b	33 c8		 xor	 ecx, eax
  0008d	e8 00 00 00 00	 call	 @__security_check_cookie@4
  00092	b8 00 00 00 00	 mov	 eax, OFFSET __ehfuncinfo$??1CKanturuBattleOfMaya@@UAE@XZ
  00097	e9 00 00 00 00	 jmp	 ___CxxFrameHandler3
text$x	ENDS
??1CKanturuBattleOfMaya@@UAE@XZ ENDP			; CKanturuBattleOfMaya::~CKanturuBattleOfMaya
PUBLIC	?SetEntrancePermit@CKanturuBattleOfMaya@@QAEXH@Z ; CKanturuBattleOfMaya::SetEntrancePermit
PUBLIC	?SetSceneSuccessValue@CKanturuBattleOfMaya@@QAEXH@Z ; CKanturuBattleOfMaya::SetSceneSuccessValue
PUBLIC	?SetSuccessValue@CKanturuBattleOfMaya@@QAEXH@Z	; CKanturuBattleOfMaya::SetSuccessValue
PUBLIC	?ResetTimeInfo@CKanturuStateInfo@@QAEXXZ	; CKanturuStateInfo::ResetTimeInfo
; Function compile flags: /Odtp /ZI
_TEXT	SEGMENT
_iCount$228038 = -12					; size = 4
_iCount$228034 = -8					; size = 4
_this$ = -4						; size = 4
?ResetAllData@CKanturuBattleOfMaya@@QAEXXZ PROC		; CKanturuBattleOfMaya::ResetAllData
; _this$ = ecx

; 57   : {

  001f0	55		 push	 ebp
  001f1	8b ec		 mov	 ebp, esp
  001f3	83 ec 4c	 sub	 esp, 76			; 0000004cH
  001f6	53		 push	 ebx
  001f7	56		 push	 esi
  001f8	57		 push	 edi
  001f9	89 4d fc	 mov	 DWORD PTR _this$[ebp], ecx

; 58   : 	this->m_bFileDataLoad = FALSE;

  001fc	8b 45 fc	 mov	 eax, DWORD PTR _this$[ebp]
  001ff	c7 40 04 00 00
	00 00		 mov	 DWORD PTR [eax+4], 0

; 59   : 
; 60   : 	for ( int iCount=0;iCount<KANTURU_MAYA_TIME_INFO;iCount++)

  00206	c7 45 f8 00 00
	00 00		 mov	 DWORD PTR _iCount$228034[ebp], 0
  0020d	eb 09		 jmp	 SHORT $LN6@ResetAllDa
$LN5@ResetAllDa:
  0020f	8b 45 f8	 mov	 eax, DWORD PTR _iCount$228034[ebp]
  00212	83 c0 01	 add	 eax, 1
  00215	89 45 f8	 mov	 DWORD PTR _iCount$228034[ebp], eax
$LN6@ResetAllDa:
  00218	83 7d f8 03	 cmp	 DWORD PTR _iCount$228034[ebp], 3
  0021c	7d 14		 jge	 SHORT $LN4@ResetAllDa

; 61   : 	{
; 62   : 		this->m_BattleTimeInfo[iCount].ResetTimeInfo();

  0021e	8b 45 f8	 mov	 eax, DWORD PTR _iCount$228034[ebp]
  00221	6b c0 14	 imul	 eax, 20			; 00000014H
  00224	8b 4d fc	 mov	 ecx, DWORD PTR _this$[ebp]
  00227	8d 4c 01 10	 lea	 ecx, DWORD PTR [ecx+eax+16]
  0022b	e8 00 00 00 00	 call	 ?ResetTimeInfo@CKanturuStateInfo@@QAEXXZ ; CKanturuStateInfo::ResetTimeInfo

; 63   : 	}

  00230	eb dd		 jmp	 SHORT $LN5@ResetAllDa
$LN4@ResetAllDa:

; 64   : 
; 65   : 	for (int iCount=0;iCount<KANTURU_MAYA_STATE_INFO;iCount++)

  00232	c7 45 f4 00 00
	00 00		 mov	 DWORD PTR _iCount$228038[ebp], 0
  00239	eb 09		 jmp	 SHORT $LN3@ResetAllDa
$LN2@ResetAllDa:
  0023b	8b 45 f4	 mov	 eax, DWORD PTR _iCount$228038[ebp]
  0023e	83 c0 01	 add	 eax, 1
  00241	89 45 f4	 mov	 DWORD PTR _iCount$228038[ebp], eax
$LN3@ResetAllDa:
  00244	83 7d f4 13	 cmp	 DWORD PTR _iCount$228038[ebp], 19 ; 00000013H
  00248	7d 14		 jge	 SHORT $LN1@ResetAllDa

; 66   : 	{
; 67   : 		this->m_StateInfo[iCount].ResetTimeInfo();

  0024a	8b 45 f4	 mov	 eax, DWORD PTR _iCount$228038[ebp]
  0024d	6b c0 14	 imul	 eax, 20			; 00000014H
  00250	8b 4d fc	 mov	 ecx, DWORD PTR _this$[ebp]
  00253	8d 4c 01 50	 lea	 ecx, DWORD PTR [ecx+eax+80]
  00257	e8 00 00 00 00	 call	 ?ResetTimeInfo@CKanturuStateInfo@@QAEXXZ ; CKanturuStateInfo::ResetTimeInfo

; 68   : 	}

  0025c	eb dd		 jmp	 SHORT $LN2@ResetAllDa
$LN1@ResetAllDa:

; 69   : 
; 70   : 	this->m_StateInfoCount = 0;

  0025e	8b 45 fc	 mov	 eax, DWORD PTR _this$[ebp]
  00261	c7 80 cc 01 00
	00 00 00 00 00	 mov	 DWORD PTR [eax+460], 0

; 71   : 	this->m_BattleTimeInfoCount = 0;

  0026b	8b 45 fc	 mov	 eax, DWORD PTR _this$[ebp]
  0026e	c7 40 4c 00 00
	00 00		 mov	 DWORD PTR [eax+76], 0

; 72   : 
; 73   : 	this->SetSuccessValue(FALSE);

  00275	6a 00		 push	 0
  00277	8b 4d fc	 mov	 ecx, DWORD PTR _this$[ebp]
  0027a	e8 00 00 00 00	 call	 ?SetSuccessValue@CKanturuBattleOfMaya@@QAEXH@Z ; CKanturuBattleOfMaya::SetSuccessValue

; 74   : 	this->SetSceneSuccessValue(FALSE);

  0027f	6a 00		 push	 0
  00281	8b 4d fc	 mov	 ecx, DWORD PTR _this$[ebp]
  00284	e8 00 00 00 00	 call	 ?SetSceneSuccessValue@CKanturuBattleOfMaya@@QAEXH@Z ; CKanturuBattleOfMaya::SetSceneSuccessValue

; 75   : 	this->SetEntrancePermit(FALSE);

  00289	6a 00		 push	 0
  0028b	8b 4d fc	 mov	 ecx, DWORD PTR _this$[ebp]
  0028e	e8 00 00 00 00	 call	 ?SetEntrancePermit@CKanturuBattleOfMaya@@QAEXH@Z ; CKanturuBattleOfMaya::SetEntrancePermit

; 76   : 
; 77   : 	this->m_iMayaHandAIChangeTimeCount = 0;

  00293	8b 45 fc	 mov	 eax, DWORD PTR _this$[ebp]
  00296	c7 80 0c 02 00
	00 00 00 00 00	 mov	 DWORD PTR [eax+524], 0

; 78   : 	this->m_iMayaHAndGroupNumberCount = 0;

  002a0	8b 45 fc	 mov	 eax, DWORD PTR _this$[ebp]
  002a3	c7 80 24 02 00
	00 00 00 00 00	 mov	 DWORD PTR [eax+548], 0

; 79   : 	this->m_iMayaIceStormUsingRate = 0;

  002ad	8b 45 fc	 mov	 eax, DWORD PTR _this$[ebp]
  002b0	c7 80 28 02 00
	00 00 00 00 00	 mov	 DWORD PTR [eax+552], 0

; 80   : }

  002ba	5f		 pop	 edi
  002bb	5e		 pop	 esi
  002bc	5b		 pop	 ebx
  002bd	8b e5		 mov	 esp, ebp
  002bf	5d		 pop	 ebp
  002c0	c3		 ret	 0
?ResetAllData@CKanturuBattleOfMaya@@QAEXXZ ENDP		; CKanturuBattleOfMaya::ResetAllData
_TEXT	ENDS
PUBLIC	?SetValue@CKanturuStateInfo@@QAEXH@Z		; CKanturuStateInfo::SetValue
PUBLIC	?SetCondition@CKanturuStateInfo@@QAEXH@Z	; CKanturuStateInfo::SetCondition
PUBLIC	?SetStateInfo@CKanturuStateInfo@@QAEXH@Z	; CKanturuStateInfo::SetStateInfo
; Function compile flags: /Odtp /ZI
; File d:\projects\exteam6.3\source\gameserver\gameserver\kanturustateinfo.h
;	COMDAT ?ResetTimeInfo@CKanturuStateInfo@@QAEXXZ
_TEXT	SEGMENT
_this$ = -4						; size = 4
?ResetTimeInfo@CKanturuStateInfo@@QAEXXZ PROC		; CKanturuStateInfo::ResetTimeInfo, COMDAT
; _this$ = ecx

; 21   : 	{

  00000	55		 push	 ebp
  00001	8b ec		 mov	 ebp, esp
  00003	83 ec 44	 sub	 esp, 68			; 00000044H
  00006	53		 push	 ebx
  00007	56		 push	 esi
  00008	57		 push	 edi
  00009	89 4d fc	 mov	 DWORD PTR _this$[ebp], ecx

; 22   : 		this->SetStateInfo(0);

  0000c	6a 00		 push	 0
  0000e	8b 4d fc	 mov	 ecx, DWORD PTR _this$[ebp]
  00011	e8 00 00 00 00	 call	 ?SetStateInfo@CKanturuStateInfo@@QAEXH@Z ; CKanturuStateInfo::SetStateInfo

; 23   : 		this->SetCondition(0);

  00016	6a 00		 push	 0
  00018	8b 4d fc	 mov	 ecx, DWORD PTR _this$[ebp]
  0001b	e8 00 00 00 00	 call	 ?SetCondition@CKanturuStateInfo@@QAEXH@Z ; CKanturuStateInfo::SetCondition

; 24   : 		this->SetValue(0);

  00020	6a 00		 push	 0
  00022	8b 4d fc	 mov	 ecx, DWORD PTR _this$[ebp]
  00025	e8 00 00 00 00	 call	 ?SetValue@CKanturuStateInfo@@QAEXH@Z ; CKanturuStateInfo::SetValue

; 25   : 	}

  0002a	5f		 pop	 edi
  0002b	5e		 pop	 esi
  0002c	5b		 pop	 ebx
  0002d	8b e5		 mov	 esp, ebp
  0002f	5d		 pop	 ebp
  00030	c3		 ret	 0
?ResetTimeInfo@CKanturuStateInfo@@QAEXXZ ENDP		; CKanturuStateInfo::ResetTimeInfo
; Function compile flags: /Odtp /ZI
_TEXT	ENDS
;	COMDAT ?SetStateInfo@CKanturuStateInfo@@QAEXH@Z
_TEXT	SEGMENT
_this$ = -4						; size = 4
_iStateTimeInfo$ = 8					; size = 4
?SetStateInfo@CKanturuStateInfo@@QAEXH@Z PROC		; CKanturuStateInfo::SetStateInfo, COMDAT
; _this$ = ecx

; 29   : 	{

  00000	55		 push	 ebp
  00001	8b ec		 mov	 ebp, esp
  00003	83 ec 44	 sub	 esp, 68			; 00000044H
  00006	53		 push	 ebx
  00007	56		 push	 esi
  00008	57		 push	 edi
  00009	89 4d fc	 mov	 DWORD PTR _this$[ebp], ecx

; 30   : 		this->m_iState = iStateTimeInfo;

  0000c	8b 45 fc	 mov	 eax, DWORD PTR _this$[ebp]
  0000f	8b 4d 08	 mov	 ecx, DWORD PTR _iStateTimeInfo$[ebp]
  00012	89 48 04	 mov	 DWORD PTR [eax+4], ecx

; 31   : 	}

  00015	5f		 pop	 edi
  00016	5e		 pop	 esi
  00017	5b		 pop	 ebx
  00018	8b e5		 mov	 esp, ebp
  0001a	5d		 pop	 ebp
  0001b	c2 04 00	 ret	 4
?SetStateInfo@CKanturuStateInfo@@QAEXH@Z ENDP		; CKanturuStateInfo::SetStateInfo
; Function compile flags: /Odtp /ZI
_TEXT	ENDS
;	COMDAT ?SetCondition@CKanturuStateInfo@@QAEXH@Z
_TEXT	SEGMENT
_this$ = -4						; size = 4
_iCondition$ = 8					; size = 4
?SetCondition@CKanturuStateInfo@@QAEXH@Z PROC		; CKanturuStateInfo::SetCondition, COMDAT
; _this$ = ecx

; 34   : 	{

  00000	55		 push	 ebp
  00001	8b ec		 mov	 ebp, esp
  00003	83 ec 44	 sub	 esp, 68			; 00000044H
  00006	53		 push	 ebx
  00007	56		 push	 esi
  00008	57		 push	 edi
  00009	89 4d fc	 mov	 DWORD PTR _this$[ebp], ecx

; 35   : 		this->m_iCondition = iCondition;

  0000c	8b 45 fc	 mov	 eax, DWORD PTR _this$[ebp]
  0000f	8b 4d 08	 mov	 ecx, DWORD PTR _iCondition$[ebp]
  00012	89 48 08	 mov	 DWORD PTR [eax+8], ecx

; 36   : 	}

  00015	5f		 pop	 edi
  00016	5e		 pop	 esi
  00017	5b		 pop	 ebx
  00018	8b e5		 mov	 esp, ebp
  0001a	5d		 pop	 ebp
  0001b	c2 04 00	 ret	 4
?SetCondition@CKanturuStateInfo@@QAEXH@Z ENDP		; CKanturuStateInfo::SetCondition
; Function compile flags: /Odtp /ZI
_TEXT	ENDS
;	COMDAT ?SetValue@CKanturuStateInfo@@QAEXH@Z
_TEXT	SEGMENT
_this$ = -4						; size = 4
_iValue$ = 8						; size = 4
?SetValue@CKanturuStateInfo@@QAEXH@Z PROC		; CKanturuStateInfo::SetValue, COMDAT
; _this$ = ecx

; 45   : 	{

  00000	55		 push	 ebp
  00001	8b ec		 mov	 ebp, esp
  00003	83 ec 44	 sub	 esp, 68			; 00000044H
  00006	53		 push	 ebx
  00007	56		 push	 esi
  00008	57		 push	 edi
  00009	89 4d fc	 mov	 DWORD PTR _this$[ebp], ecx

; 46   : 		this->m_iValue = iValue;

  0000c	8b 45 fc	 mov	 eax, DWORD PTR _this$[ebp]
  0000f	8b 4d 08	 mov	 ecx, DWORD PTR _iValue$[ebp]
  00012	89 48 0c	 mov	 DWORD PTR [eax+12], ecx

; 47   : 	}

  00015	5f		 pop	 edi
  00016	5e		 pop	 esi
  00017	5b		 pop	 ebx
  00018	8b e5		 mov	 esp, ebp
  0001a	5d		 pop	 ebp
  0001b	c2 04 00	 ret	 4
?SetValue@CKanturuStateInfo@@QAEXH@Z ENDP		; CKanturuStateInfo::SetValue
; Function compile flags: /Odtp /ZI
; File d:\projects\exteam6.3\source\gameserver\gameserver\kanturubattleofmaya.h
_TEXT	ENDS
;	COMDAT ?SetSuccessValue@CKanturuBattleOfMaya@@QAEXH@Z
_TEXT	SEGMENT
_this$ = -4						; size = 4
_bIsSuccess$ = 8					; size = 4
?SetSuccessValue@CKanturuBattleOfMaya@@QAEXH@Z PROC	; CKanturuBattleOfMaya::SetSuccessValue, COMDAT
; _this$ = ecx

; 102  : 	void SetSuccessValue(BOOL bIsSuccess){this->m_bIsSucccess = bIsSuccess;}

  00000	55		 push	 ebp
  00001	8b ec		 mov	 ebp, esp
  00003	83 ec 44	 sub	 esp, 68			; 00000044H
  00006	53		 push	 ebx
  00007	56		 push	 esi
  00008	57		 push	 edi
  00009	89 4d fc	 mov	 DWORD PTR _this$[ebp], ecx
  0000c	8b 45 fc	 mov	 eax, DWORD PTR _this$[ebp]
  0000f	8b 4d 08	 mov	 ecx, DWORD PTR _bIsSuccess$[ebp]
  00012	89 88 d4 01 00
	00		 mov	 DWORD PTR [eax+468], ecx
  00018	5f		 pop	 edi
  00019	5e		 pop	 esi
  0001a	5b		 pop	 ebx
  0001b	8b e5		 mov	 esp, ebp
  0001d	5d		 pop	 ebp
  0001e	c2 04 00	 ret	 4
?SetSuccessValue@CKanturuBattleOfMaya@@QAEXH@Z ENDP	; CKanturuBattleOfMaya::SetSuccessValue
; Function compile flags: /Odtp /ZI
_TEXT	ENDS
;	COMDAT ?SetSceneSuccessValue@CKanturuBattleOfMaya@@QAEXH@Z
_TEXT	SEGMENT
_this$ = -4						; size = 4
_bIsSuccess$ = 8					; size = 4
?SetSceneSuccessValue@CKanturuBattleOfMaya@@QAEXH@Z PROC ; CKanturuBattleOfMaya::SetSceneSuccessValue, COMDAT
; _this$ = ecx

; 104  : 	void SetSceneSuccessValue(BOOL bIsSuccess){this->m_bIsSceneSuccess = bIsSuccess;}

  00000	55		 push	 ebp
  00001	8b ec		 mov	 ebp, esp
  00003	83 ec 44	 sub	 esp, 68			; 00000044H
  00006	53		 push	 ebx
  00007	56		 push	 esi
  00008	57		 push	 edi
  00009	89 4d fc	 mov	 DWORD PTR _this$[ebp], ecx
  0000c	8b 45 fc	 mov	 eax, DWORD PTR _this$[ebp]
  0000f	8b 4d 08	 mov	 ecx, DWORD PTR _bIsSuccess$[ebp]
  00012	89 88 d8 01 00
	00		 mov	 DWORD PTR [eax+472], ecx
  00018	5f		 pop	 edi
  00019	5e		 pop	 esi
  0001a	5b		 pop	 ebx
  0001b	8b e5		 mov	 esp, ebp
  0001d	5d		 pop	 ebp
  0001e	c2 04 00	 ret	 4
?SetSceneSuccessValue@CKanturuBattleOfMaya@@QAEXH@Z ENDP ; CKanturuBattleOfMaya::SetSceneSuccessValue
; Function compile flags: /Odtp /ZI
_TEXT	ENDS
;	COMDAT ?SetEntrancePermit@CKanturuBattleOfMaya@@QAEXH@Z
_TEXT	SEGMENT
_this$ = -4						; size = 4
_bEntrancePermit$ = 8					; size = 4
?SetEntrancePermit@CKanturuBattleOfMaya@@QAEXH@Z PROC	; CKanturuBattleOfMaya::SetEntrancePermit, COMDAT
; _this$ = ecx

; 106  : 	void SetEntrancePermit(BOOL bEntrancePermit){this->m_bEntrancePermit = bEntrancePermit;}

  00000	55		 push	 ebp
  00001	8b ec		 mov	 ebp, esp
  00003	83 ec 44	 sub	 esp, 68			; 00000044H
  00006	53		 push	 ebx
  00007	56		 push	 esi
  00008	57		 push	 edi
  00009	89 4d fc	 mov	 DWORD PTR _this$[ebp], ecx
  0000c	8b 45 fc	 mov	 eax, DWORD PTR _this$[ebp]
  0000f	8b 4d 08	 mov	 ecx, DWORD PTR _bEntrancePermit$[ebp]
  00012	89 88 d0 01 00
	00		 mov	 DWORD PTR [eax+464], ecx
  00018	5f		 pop	 edi
  00019	5e		 pop	 esi
  0001a	5b		 pop	 ebx
  0001b	8b e5		 mov	 esp, ebp
  0001d	5d		 pop	 ebp
  0001e	c2 04 00	 ret	 4
?SetEntrancePermit@CKanturuBattleOfMaya@@QAEXH@Z ENDP	; CKanturuBattleOfMaya::SetEntrancePermit
_TEXT	ENDS
PUBLIC	??_C@_0EC@IDACLHLE@?$FL?5KANTURU?5?$FN?$FL?5BattleOfMaya?5?$FN?5?9?5Lo@ ; `string'
PUBLIC	??_C@_0CO@FIGOKMGP@?$FL?5KANTURU?5?$FN?$FL?5BattleOfMaya?5?$FN?5?$CFs?5f@ ; `string'
PUBLIC	??_C@_0DJ@DJFAMIGH@?$FL?5KANTURU?5?$FN?$FL?5BattleOfMaya?5?$FN?5IceS@ ; `string'
PUBLIC	??_C@_0EG@MJODBFHP@?$FL?5KANTURU?5?$FN?$FL?5BattleOfMaya?5?$FN?5?9?5Ma@ ; `string'
PUBLIC	??_C@_0EA@DAGPCMG@?$FL?5KANTURU?5?$FN?$FL?5BattleOfMaya?5?$FN?5?9?5Ma@ ; `string'
PUBLIC	??_C@_0EC@DMJEACFN@?$FL?5KANTURU?5?$FN?$FL?5BattleOfMaya?5?$FN?5?9?5Ex@ ; `string'
PUBLIC	??_C@_0DJ@NFMCCNGI@?$FL?5KANTURU?5?$FN?$FL?5BattleOfMaya?5?$FN?5?9?5Ex@ ; `string'
PUBLIC	??_C@_0DE@FILFCBGG@?$FL?5KANTURU?5?$FN?$FL?5BattleOfMaya?5?$FN?5?9?5Ex@ ; `string'
PUBLIC	??_C@_03JBJLGPFL@end?$AA@			; `string'
PUBLIC	??_C@_0CN@FHELGPON@?$FL?5KANTURU?5?$FN?$FL?5BattleOfMaya?5?$FN?5?9?5Ca@ ; `string'
PUBLIC	??_C@_01KDCPPGHE@r?$AA@				; `string'
PUBLIC	??_C@_0EA@GJKFHDBF@?$FL?5KANTURU?5?$FN?$FL?5BattleOfMaya?5?$FN?5?9?5Fi@ ; `string'
PUBLIC	??_C@_00CNPNBAHC@?$AA@				; `string'
PUBLIC	?LoadData@CKanturuBattleOfMaya@@QAEHPAD@Z	; CKanturuBattleOfMaya::LoadData
EXTRN	?LogAddC@@3P6AXEPADZZA:DWORD			; LogAddC
EXTRN	_fclose:PROC
EXTRN	?LogAddTD@@3P6AXPADZZA:DWORD			; LogAddTD
EXTRN	_fopen:PROC
EXTRN	?MsgBox@@YAXPADZZ:PROC				; MsgBox
EXTRN	_strcmp:PROC
EXTRN	__ftol2_sse:PROC
_BSS	SEGMENT
_TokenString DB	064H DUP (?)
_TokenNumber DD	01H DUP (?)
_SMDFile DD	01H DUP (?)
_BSS	ENDS
;	COMDAT ??_C@_0EC@IDACLHLE@?$FL?5KANTURU?5?$FN?$FL?5BattleOfMaya?5?$FN?5?9?5Lo@
; File d:\projects\exteam6.3\source\gameserver\gameserver\kanturubattleofmaya.cpp
CONST	SEGMENT
??_C@_0EC@IDACLHLE@?$FL?5KANTURU?5?$FN?$FL?5BattleOfMaya?5?$FN?5?9?5Lo@ DB '['
	DB	' KANTURU ][ BattleOfMaya ] - Loading Exception Error (%s) Fil'
	DB	'e. ', 00H					; `string'
CONST	ENDS
;	COMDAT ??_C@_0CO@FIGOKMGP@?$FL?5KANTURU?5?$FN?$FL?5BattleOfMaya?5?$FN?5?$CFs?5f@
CONST	SEGMENT
??_C@_0CO@FIGOKMGP@?$FL?5KANTURU?5?$FN?$FL?5BattleOfMaya?5?$FN?5?$CFs?5f@ DB '['
	DB	' KANTURU ][ BattleOfMaya ] %s file is Loaded', 00H ; `string'
CONST	ENDS
;	COMDAT ??_C@_0DJ@DJFAMIGH@?$FL?5KANTURU?5?$FN?$FL?5BattleOfMaya?5?$FN?5IceS@
CONST	SEGMENT
??_C@_0DJ@DJFAMIGH@?$FL?5KANTURU?5?$FN?$FL?5BattleOfMaya?5?$FN?5IceS@ DB '['
	DB	' KANTURU ][ BattleOfMaya ] IceStorm Using Rate Load: %d', 00H ; `string'
CONST	ENDS
;	COMDAT ??_C@_0EG@MJODBFHP@?$FL?5KANTURU?5?$FN?$FL?5BattleOfMaya?5?$FN?5?9?5Ma@
CONST	SEGMENT
??_C@_0EG@MJODBFHP@?$FL?5KANTURU?5?$FN?$FL?5BattleOfMaya?5?$FN?5?9?5Ma@ DB '['
	DB	' KANTURU ][ BattleOfMaya ] - Maya IceStorm Using Rate Load Er'
	DB	'ror(%d)', 00H				; `string'
CONST	ENDS
;	COMDAT ??_C@_0EA@DAGPCMG@?$FL?5KANTURU?5?$FN?$FL?5BattleOfMaya?5?$FN?5?9?5Ma@
CONST	SEGMENT
??_C@_0EA@DAGPCMG@?$FL?5KANTURU?5?$FN?$FL?5BattleOfMaya?5?$FN?5?9?5Ma@ DB '['
	DB	' KANTURU ][ BattleOfMaya ] - Maya Hand AI Group Read Error(%d'
	DB	')', 00H					; `string'
CONST	ENDS
;	COMDAT ??_C@_0EC@DMJEACFN@?$FL?5KANTURU?5?$FN?$FL?5BattleOfMaya?5?$FN?5?9?5Ex@
CONST	SEGMENT
??_C@_0EC@DMJEACFN@?$FL?5KANTURU?5?$FN?$FL?5BattleOfMaya?5?$FN?5?9?5Ex@ DB '['
	DB	' KANTURU ][ BattleOfMaya ] - Exceed Maya Hand AI Change Time('
	DB	'%d)', 00H					; `string'
CONST	ENDS
;	COMDAT ??_C@_0DJ@NFMCCNGI@?$FL?5KANTURU?5?$FN?$FL?5BattleOfMaya?5?$FN?5?9?5Ex@
CONST	SEGMENT
??_C@_0DJ@NFMCCNGI@?$FL?5KANTURU?5?$FN?$FL?5BattleOfMaya?5?$FN?5?9?5Ex@ DB '['
	DB	' KANTURU ][ BattleOfMaya ] - Exceed Max State Time (%d)', 00H ; `string'
CONST	ENDS
;	COMDAT ??_C@_0DE@FILFCBGG@?$FL?5KANTURU?5?$FN?$FL?5BattleOfMaya?5?$FN?5?9?5Ex@
CONST	SEGMENT
??_C@_0DE@FILFCBGG@?$FL?5KANTURU?5?$FN?$FL?5BattleOfMaya?5?$FN?5?9?5Ex@ DB '['
	DB	' KANTURU ][ BattleOfMaya ] - Exceed Max Scene (%d)', 00H ; `string'
CONST	ENDS
;	COMDAT ??_C@_03JBJLGPFL@end?$AA@
CONST	SEGMENT
??_C@_03JBJLGPFL@end?$AA@ DB 'end', 00H			; `string'
CONST	ENDS
;	COMDAT ??_C@_0CN@FHELGPON@?$FL?5KANTURU?5?$FN?$FL?5BattleOfMaya?5?$FN?5?9?5Ca@
CONST	SEGMENT
??_C@_0CN@FHELGPON@?$FL?5KANTURU?5?$FN?$FL?5BattleOfMaya?5?$FN?5?9?5Ca@ DB '['
	DB	' KANTURU ][ BattleOfMaya ] - Can''t Open %s ', 00H ; `string'
CONST	ENDS
;	COMDAT ??_C@_01KDCPPGHE@r?$AA@
CONST	SEGMENT
??_C@_01KDCPPGHE@r?$AA@ DB 'r', 00H			; `string'
CONST	ENDS
;	COMDAT ??_C@_0EA@GJKFHDBF@?$FL?5KANTURU?5?$FN?$FL?5BattleOfMaya?5?$FN?5?9?5Fi@
CONST	SEGMENT
??_C@_0EA@GJKFHDBF@?$FL?5KANTURU?5?$FN?$FL?5BattleOfMaya?5?$FN?5?9?5Fi@ DB '['
	DB	' KANTURU ][ BattleOfMaya ] - File load error : File Name Erro'
	DB	'r', 00H					; `string'
CONST	ENDS
;	COMDAT ??_C@_00CNPNBAHC@?$AA@
CONST	SEGMENT
??_C@_00CNPNBAHC@?$AA@ DB 00H				; `string'
CONST	ENDS
xdata$x	SEGMENT
__catchsym$?LoadData@CKanturuBattleOfMaya@@QAEHPAD@Z$2 DD 040H
	DD	00H
	DD	00H
	DD	FLAT:__catch$?LoadData@CKanturuBattleOfMaya@@QAEHPAD@Z$0
__unwindtable$?LoadData@CKanturuBattleOfMaya@@QAEHPAD@Z DD 0ffffffffH
	DD	00H
	DD	0ffffffffH
	DD	00H
__tryblocktable$?LoadData@CKanturuBattleOfMaya@@QAEHPAD@Z DD 00H
	DD	00H
	DD	01H
	DD	01H
	DD	FLAT:__catchsym$?LoadData@CKanturuBattleOfMaya@@QAEHPAD@Z$2
__ehfuncinfo$?LoadData@CKanturuBattleOfMaya@@QAEHPAD@Z DD 019930522H
	DD	02H
	DD	FLAT:__unwindtable$?LoadData@CKanturuBattleOfMaya@@QAEHPAD@Z
	DD	01H
	DD	FLAT:__tryblocktable$?LoadData@CKanturuBattleOfMaya@@QAEHPAD@Z
	DD	2 DUP(00H)
	DD	00H
	DD	01H
; Function compile flags: /Odtp /ZI
xdata$x	ENDS
_TEXT	SEGMENT
tv282 = -120						; size = 4
tv281 = -120						; size = 4
tv280 = -120						; size = 4
tv279 = -120						; size = 4
tv278 = -120						; size = 4
tv277 = -120						; size = 4
tv276 = -120						; size = 4
tv275 = -120						; size = 4
tv274 = -120						; size = 4
tv273 = -120						; size = 4
tv272 = -120						; size = 4
_iValue$228120 = -52					; size = 4
_iValue$228112 = -48					; size = 4
_iValue$228104 = -44					; size = 4
_iValue$228057 = -40					; size = 4
_iCondition$228056 = -36				; size = 4
_iState$228055 = -32					; size = 4
_iType$228054 = -28					; size = 4
_Token$228050 = -24					; size = 4
_this$ = -20						; size = 4
__$EHRec$ = -16						; size = 16
_lpszFileName$ = 8					; size = 4
?LoadData@CKanturuBattleOfMaya@@QAEHPAD@Z PROC		; CKanturuBattleOfMaya::LoadData
; _this$ = ecx

; 84   : {

  002d0	55		 push	 ebp
  002d1	8b ec		 mov	 ebp, esp
  002d3	6a ff		 push	 -1
  002d5	68 00 00 00 00	 push	 __ehhandler$?LoadData@CKanturuBattleOfMaya@@QAEHPAD@Z
  002da	64 a1 00 00 00
	00		 mov	 eax, DWORD PTR fs:0
  002e0	50		 push	 eax
  002e1	51		 push	 ecx
  002e2	83 ec 68	 sub	 esp, 104		; 00000068H
  002e5	53		 push	 ebx
  002e6	56		 push	 esi
  002e7	57		 push	 edi
  002e8	a1 00 00 00 00	 mov	 eax, DWORD PTR ___security_cookie
  002ed	33 c5		 xor	 eax, ebp
  002ef	50		 push	 eax
  002f0	8d 45 f4	 lea	 eax, DWORD PTR __$EHRec$[ebp+4]
  002f3	64 a3 00 00 00
	00		 mov	 DWORD PTR fs:0, eax
  002f9	89 65 f0	 mov	 DWORD PTR __$EHRec$[ebp], esp
  002fc	89 4d ec	 mov	 DWORD PTR _this$[ebp], ecx

; 85   : 	this->m_bFileDataLoad = FALSE;

  002ff	8b 45 ec	 mov	 eax, DWORD PTR _this$[ebp]
  00302	c7 40 04 00 00
	00 00		 mov	 DWORD PTR [eax+4], 0

; 86   : 
; 87   : 	if ( !lpszFileName || !strcmp(lpszFileName , "") )

  00309	83 7d 08 00	 cmp	 DWORD PTR _lpszFileName$[ebp], 0
  0030d	74 15		 je	 SHORT $LN35@LoadData
  0030f	68 00 00 00 00	 push	 OFFSET ??_C@_00CNPNBAHC@?$AA@
  00314	8b 45 08	 mov	 eax, DWORD PTR _lpszFileName$[ebp]
  00317	50		 push	 eax
  00318	e8 00 00 00 00	 call	 _strcmp
  0031d	83 c4 08	 add	 esp, 8
  00320	85 c0		 test	 eax, eax
  00322	75 14		 jne	 SHORT $LN36@LoadData
$LN35@LoadData:

; 88   : 	{
; 89   : 		MsgBox("[ KANTURU ][ BattleOfMaya ] - File load error : File Name Error");

  00324	68 00 00 00 00	 push	 OFFSET ??_C@_0EA@GJKFHDBF@?$FL?5KANTURU?5?$FN?$FL?5BattleOfMaya?5?$FN?5?9?5Fi@
  00329	e8 00 00 00 00	 call	 ?MsgBox@@YAXPADZZ	; MsgBox
  0032e	83 c4 04	 add	 esp, 4

; 90   : 		return FALSE;

  00331	33 c0		 xor	 eax, eax
  00333	e9 7a 05 00 00	 jmp	 $LN37@LoadData
$LN36@LoadData:

; 91   : 	}
; 92   : 
; 93   : 	try
; 94   : 	{

  00338	c7 45 fc 00 00
	00 00		 mov	 DWORD PTR __$EHRec$[ebp+12], 0

; 95   : 		enum SMDToken Token;
; 96   : 		SMDFile = fopen(lpszFileName, "r");

  0033f	68 00 00 00 00	 push	 OFFSET ??_C@_01KDCPPGHE@r?$AA@
  00344	8b 45 08	 mov	 eax, DWORD PTR _lpszFileName$[ebp]
  00347	50		 push	 eax
  00348	e8 00 00 00 00	 call	 _fopen
  0034d	83 c4 08	 add	 esp, 8
  00350	a3 00 00 00 00	 mov	 DWORD PTR _SMDFile, eax

; 97   : 
; 98   : 		if ( SMDFile == NULL )

  00355	83 3d 00 00 00
	00 00		 cmp	 DWORD PTR _SMDFile, 0
  0035c	75 18		 jne	 SHORT $LN33@LoadData

; 99   : 		{
; 100  : 			MsgBox("[ KANTURU ][ BattleOfMaya ] - Can't Open %s ", lpszFileName);

  0035e	8b 45 08	 mov	 eax, DWORD PTR _lpszFileName$[ebp]
  00361	50		 push	 eax
  00362	68 00 00 00 00	 push	 OFFSET ??_C@_0CN@FHELGPON@?$FL?5KANTURU?5?$FN?$FL?5BattleOfMaya?5?$FN?5?9?5Ca@
  00367	e8 00 00 00 00	 call	 ?MsgBox@@YAXPADZZ	; MsgBox
  0036c	83 c4 08	 add	 esp, 8

; 101  : 			return FALSE;

  0036f	33 c0		 xor	 eax, eax
  00371	e9 3c 05 00 00	 jmp	 $LN37@LoadData
$LN33@LoadData:

; 102  : 		}
; 103  : 
; 104  : 		this->ResetAllData();

  00376	8b 4d ec	 mov	 ecx, DWORD PTR _this$[ebp]
  00379	e8 00 00 00 00	 call	 ?ResetAllData@CKanturuBattleOfMaya@@QAEXXZ ; CKanturuBattleOfMaya::ResetAllData

; 105  : 	
; 106  : 		int iType = -1;

  0037e	c7 45 e4 ff ff
	ff ff		 mov	 DWORD PTR _iType$228054[ebp], -1

; 107  : 		int iState = 0;

  00385	c7 45 e0 00 00
	00 00		 mov	 DWORD PTR _iState$228055[ebp], 0

; 108  : 		int iCondition = 0;

  0038c	c7 45 dc 00 00
	00 00		 mov	 DWORD PTR _iCondition$228056[ebp], 0

; 109  : 		int iValue = 0;

  00393	c7 45 d8 00 00
	00 00		 mov	 DWORD PTR _iValue$228057[ebp], 0
$LN32@LoadData:

; 110  : 
; 111  : 		while ( true )

  0039a	b8 01 00 00 00	 mov	 eax, 1
  0039f	85 c0		 test	 eax, eax
  003a1	0f 84 b2 04 00
	00		 je	 $LN31@LoadData

; 112  : 		{
; 113  : 			Token = GetToken();

  003a7	e8 00 00 00 00	 call	 ?GetToken@@YA?AW4SMDToken@@XZ ; GetToken
  003ac	89 45 88	 mov	 DWORD PTR tv272[ebp], eax
  003af	8b 45 88	 mov	 eax, DWORD PTR tv272[ebp]
  003b2	89 45 e8	 mov	 DWORD PTR _Token$228050[ebp], eax

; 114  : 			
; 115  : 			if ( Token == END )

  003b5	83 7d e8 02	 cmp	 DWORD PTR _Token$228050[ebp], 2
  003b9	75 05		 jne	 SHORT $LN30@LoadData

; 116  : 			{
; 117  : 				break;

  003bb	e9 99 04 00 00	 jmp	 $LN31@LoadData
$LN30@LoadData:

; 118  : 			}
; 119  : 
; 120  : 			iType = (int)TokenNumber;

  003c0	d9 05 00 00 00
	00		 fld	 DWORD PTR _TokenNumber
  003c6	e8 00 00 00 00	 call	 __ftol2_sse
  003cb	89 45 e4	 mov	 DWORD PTR _iType$228054[ebp], eax
$LN29@LoadData:

; 121  : 
; 122  : 			while ( true )

  003ce	b8 01 00 00 00	 mov	 eax, 1
  003d3	85 c0		 test	 eax, eax
  003d5	0f 84 79 04 00
	00		 je	 $LN28@LoadData

; 123  : 			{
; 124  : 				if ( iType == 2 )

  003db	83 7d e4 02	 cmp	 DWORD PTR _iType$228054[ebp], 2
  003df	0f 85 20 01 00
	00		 jne	 $LN27@LoadData

; 125  : 				{
; 126  : 					iState = 0;

  003e5	c7 45 e0 00 00
	00 00		 mov	 DWORD PTR _iState$228055[ebp], 0

; 127  : 					iCondition = 0;

  003ec	c7 45 dc 00 00
	00 00		 mov	 DWORD PTR _iCondition$228056[ebp], 0

; 128  : 					iValue = 0;

  003f3	c7 45 d8 00 00
	00 00		 mov	 DWORD PTR _iValue$228057[ebp], 0

; 129  : 
; 130  : 					Token = GetToken();

  003fa	e8 00 00 00 00	 call	 ?GetToken@@YA?AW4SMDToken@@XZ ; GetToken
  003ff	89 45 88	 mov	 DWORD PTR tv273[ebp], eax
  00402	8b 45 88	 mov	 eax, DWORD PTR tv273[ebp]
  00405	89 45 e8	 mov	 DWORD PTR _Token$228050[ebp], eax

; 131  : 
; 132  : 					if ( !strcmp("end", TokenString))

  00408	68 00 00 00 00	 push	 OFFSET _TokenString
  0040d	68 00 00 00 00	 push	 OFFSET ??_C@_03JBJLGPFL@end?$AA@
  00412	e8 00 00 00 00	 call	 _strcmp
  00417	83 c4 08	 add	 esp, 8
  0041a	85 c0		 test	 eax, eax
  0041c	75 05		 jne	 SHORT $LN26@LoadData

; 133  : 					{
; 134  : 						break;

  0041e	e9 31 04 00 00	 jmp	 $LN28@LoadData
$LN26@LoadData:

; 135  : 					}
; 136  : 
; 137  : 					iState = (int)TokenNumber;

  00423	d9 05 00 00 00
	00		 fld	 DWORD PTR _TokenNumber
  00429	e8 00 00 00 00	 call	 __ftol2_sse
  0042e	89 45 e0	 mov	 DWORD PTR _iState$228055[ebp], eax

; 138  : 
; 139  : 					Token = GetToken();

  00431	e8 00 00 00 00	 call	 ?GetToken@@YA?AW4SMDToken@@XZ ; GetToken
  00436	89 45 88	 mov	 DWORD PTR tv274[ebp], eax
  00439	8b 45 88	 mov	 eax, DWORD PTR tv274[ebp]
  0043c	89 45 e8	 mov	 DWORD PTR _Token$228050[ebp], eax

; 140  : 					iCondition = (int)TokenNumber;

  0043f	d9 05 00 00 00
	00		 fld	 DWORD PTR _TokenNumber
  00445	e8 00 00 00 00	 call	 __ftol2_sse
  0044a	89 45 dc	 mov	 DWORD PTR _iCondition$228056[ebp], eax

; 141  : 
; 142  : 					Token = GetToken();

  0044d	e8 00 00 00 00	 call	 ?GetToken@@YA?AW4SMDToken@@XZ ; GetToken
  00452	89 45 88	 mov	 DWORD PTR tv275[ebp], eax
  00455	8b 45 88	 mov	 eax, DWORD PTR tv275[ebp]
  00458	89 45 e8	 mov	 DWORD PTR _Token$228050[ebp], eax

; 143  : 					iValue = (int)TokenNumber;

  0045b	d9 05 00 00 00
	00		 fld	 DWORD PTR _TokenNumber
  00461	e8 00 00 00 00	 call	 __ftol2_sse
  00466	89 45 d8	 mov	 DWORD PTR _iValue$228057[ebp], eax

; 144  : 
; 145  : 					if ( this->m_BattleTimeInfoCount < 0 ||
; 146  : 						 this->m_BattleTimeInfoCount >= KANTURU_MAYA_TIME_INFO )

  00469	8b 45 ec	 mov	 eax, DWORD PTR _this$[ebp]
  0046c	83 78 4c 00	 cmp	 DWORD PTR [eax+76], 0
  00470	7c 09		 jl	 SHORT $LN24@LoadData
  00472	8b 45 ec	 mov	 eax, DWORD PTR _this$[ebp]
  00475	83 78 4c 03	 cmp	 DWORD PTR [eax+76], 3
  00479	7c 19		 jl	 SHORT $LN25@LoadData
$LN24@LoadData:

; 147  : 					{
; 148  : 						MsgBox("[ KANTURU ][ BattleOfMaya ] - Exceed Max Scene (%d)",
; 149  : 							this->m_BattleTimeInfoCount);

  0047b	8b 45 ec	 mov	 eax, DWORD PTR _this$[ebp]
  0047e	8b 48 4c	 mov	 ecx, DWORD PTR [eax+76]
  00481	51		 push	 ecx
  00482	68 00 00 00 00	 push	 OFFSET ??_C@_0DE@FILFCBGG@?$FL?5KANTURU?5?$FN?$FL?5BattleOfMaya?5?$FN?5?9?5Ex@
  00487	e8 00 00 00 00	 call	 ?MsgBox@@YAXPADZZ	; MsgBox
  0048c	83 c4 08	 add	 esp, 8

; 150  : 
; 151  : 						break;

  0048f	e9 c0 03 00 00	 jmp	 $LN28@LoadData
$LN25@LoadData:

; 152  : 					}
; 153  : 
; 154  : 					this->m_BattleTimeInfo[this->m_BattleTimeInfoCount].SetStateInfo(iState);

  00494	8b 45 e0	 mov	 eax, DWORD PTR _iState$228055[ebp]
  00497	50		 push	 eax
  00498	8b 4d ec	 mov	 ecx, DWORD PTR _this$[ebp]
  0049b	8b 51 4c	 mov	 edx, DWORD PTR [ecx+76]
  0049e	6b d2 14	 imul	 edx, 20			; 00000014H
  004a1	8b 45 ec	 mov	 eax, DWORD PTR _this$[ebp]
  004a4	8d 4c 10 10	 lea	 ecx, DWORD PTR [eax+edx+16]
  004a8	e8 00 00 00 00	 call	 ?SetStateInfo@CKanturuStateInfo@@QAEXH@Z ; CKanturuStateInfo::SetStateInfo

; 155  : 					this->m_BattleTimeInfo[this->m_BattleTimeInfoCount].SetCondition(iCondition);

  004ad	8b 45 dc	 mov	 eax, DWORD PTR _iCondition$228056[ebp]
  004b0	50		 push	 eax
  004b1	8b 4d ec	 mov	 ecx, DWORD PTR _this$[ebp]
  004b4	8b 51 4c	 mov	 edx, DWORD PTR [ecx+76]
  004b7	6b d2 14	 imul	 edx, 20			; 00000014H
  004ba	8b 45 ec	 mov	 eax, DWORD PTR _this$[ebp]
  004bd	8d 4c 10 10	 lea	 ecx, DWORD PTR [eax+edx+16]
  004c1	e8 00 00 00 00	 call	 ?SetCondition@CKanturuStateInfo@@QAEXH@Z ; CKanturuStateInfo::SetCondition

; 156  : 
; 157  : 					if ( iCondition == 1 )

  004c6	83 7d dc 01	 cmp	 DWORD PTR _iCondition$228056[ebp], 1
  004ca	75 0c		 jne	 SHORT $LN23@LoadData

; 158  : 					{
; 159  : 						iValue *= 1000;

  004cc	8b 45 d8	 mov	 eax, DWORD PTR _iValue$228057[ebp]
  004cf	69 c0 e8 03 00
	00		 imul	 eax, 1000		; 000003e8H
  004d5	89 45 d8	 mov	 DWORD PTR _iValue$228057[ebp], eax
$LN23@LoadData:

; 160  : 					}
; 161  : 
; 162  : 					this->m_BattleTimeInfo[this->m_BattleTimeInfoCount].SetValue(iValue);

  004d8	8b 45 d8	 mov	 eax, DWORD PTR _iValue$228057[ebp]
  004db	50		 push	 eax
  004dc	8b 4d ec	 mov	 ecx, DWORD PTR _this$[ebp]
  004df	8b 51 4c	 mov	 edx, DWORD PTR [ecx+76]
  004e2	6b d2 14	 imul	 edx, 20			; 00000014H
  004e5	8b 45 ec	 mov	 eax, DWORD PTR _this$[ebp]
  004e8	8d 4c 10 10	 lea	 ecx, DWORD PTR [eax+edx+16]
  004ec	e8 00 00 00 00	 call	 ?SetValue@CKanturuStateInfo@@QAEXH@Z ; CKanturuStateInfo::SetValue

; 163  : 					this->m_BattleTimeInfoCount++;

  004f1	8b 45 ec	 mov	 eax, DWORD PTR _this$[ebp]
  004f4	8b 48 4c	 mov	 ecx, DWORD PTR [eax+76]
  004f7	83 c1 01	 add	 ecx, 1
  004fa	8b 55 ec	 mov	 edx, DWORD PTR _this$[ebp]
  004fd	89 4a 4c	 mov	 DWORD PTR [edx+76], ecx
  00500	e9 4a 03 00 00	 jmp	 $LN1@LoadData
$LN27@LoadData:

; 164  : 				}
; 165  : 				else if ( iType == 3 )

  00505	83 7d e4 03	 cmp	 DWORD PTR _iType$228054[ebp], 3
  00509	0f 85 38 01 00
	00		 jne	 $LN21@LoadData

; 166  : 				{
; 167  : 					iState = 0;

  0050f	c7 45 e0 00 00
	00 00		 mov	 DWORD PTR _iState$228055[ebp], 0

; 168  : 					iCondition = 0;

  00516	c7 45 dc 00 00
	00 00		 mov	 DWORD PTR _iCondition$228056[ebp], 0

; 169  : 					iValue = 0;

  0051d	c7 45 d8 00 00
	00 00		 mov	 DWORD PTR _iValue$228057[ebp], 0

; 170  : 
; 171  : 					Token = GetToken();

  00524	e8 00 00 00 00	 call	 ?GetToken@@YA?AW4SMDToken@@XZ ; GetToken
  00529	89 45 88	 mov	 DWORD PTR tv276[ebp], eax
  0052c	8b 45 88	 mov	 eax, DWORD PTR tv276[ebp]
  0052f	89 45 e8	 mov	 DWORD PTR _Token$228050[ebp], eax

; 172  : 
; 173  : 					if ( !strcmp("end", TokenString))

  00532	68 00 00 00 00	 push	 OFFSET _TokenString
  00537	68 00 00 00 00	 push	 OFFSET ??_C@_03JBJLGPFL@end?$AA@
  0053c	e8 00 00 00 00	 call	 _strcmp
  00541	83 c4 08	 add	 esp, 8
  00544	85 c0		 test	 eax, eax
  00546	75 05		 jne	 SHORT $LN20@LoadData

; 174  : 					{
; 175  : 						break;

  00548	e9 07 03 00 00	 jmp	 $LN28@LoadData
$LN20@LoadData:

; 176  : 					}
; 177  : 
; 178  : 					iState = (int)TokenNumber;

  0054d	d9 05 00 00 00
	00		 fld	 DWORD PTR _TokenNumber
  00553	e8 00 00 00 00	 call	 __ftol2_sse
  00558	89 45 e0	 mov	 DWORD PTR _iState$228055[ebp], eax

; 179  : 
; 180  : 					Token = GetToken();

  0055b	e8 00 00 00 00	 call	 ?GetToken@@YA?AW4SMDToken@@XZ ; GetToken
  00560	89 45 88	 mov	 DWORD PTR tv277[ebp], eax
  00563	8b 45 88	 mov	 eax, DWORD PTR tv277[ebp]
  00566	89 45 e8	 mov	 DWORD PTR _Token$228050[ebp], eax

; 181  : 					iCondition = (int)TokenNumber;

  00569	d9 05 00 00 00
	00		 fld	 DWORD PTR _TokenNumber
  0056f	e8 00 00 00 00	 call	 __ftol2_sse
  00574	89 45 dc	 mov	 DWORD PTR _iCondition$228056[ebp], eax

; 182  : 
; 183  : 					Token = GetToken();

  00577	e8 00 00 00 00	 call	 ?GetToken@@YA?AW4SMDToken@@XZ ; GetToken
  0057c	89 45 88	 mov	 DWORD PTR tv278[ebp], eax
  0057f	8b 45 88	 mov	 eax, DWORD PTR tv278[ebp]
  00582	89 45 e8	 mov	 DWORD PTR _Token$228050[ebp], eax

; 184  : 					iValue = (int)TokenNumber;

  00585	d9 05 00 00 00
	00		 fld	 DWORD PTR _TokenNumber
  0058b	e8 00 00 00 00	 call	 __ftol2_sse
  00590	89 45 d8	 mov	 DWORD PTR _iValue$228057[ebp], eax

; 185  : 
; 186  : 					if ( this->m_StateInfoCount < 0 ||
; 187  : 						 this->m_StateInfoCount >= KANTURU_MAYA_STATE_INFO )

  00593	8b 45 ec	 mov	 eax, DWORD PTR _this$[ebp]
  00596	83 b8 cc 01 00
	00 00		 cmp	 DWORD PTR [eax+460], 0
  0059d	7c 0c		 jl	 SHORT $LN18@LoadData
  0059f	8b 45 ec	 mov	 eax, DWORD PTR _this$[ebp]
  005a2	83 b8 cc 01 00
	00 13		 cmp	 DWORD PTR [eax+460], 19	; 00000013H
  005a9	7c 1c		 jl	 SHORT $LN19@LoadData
$LN18@LoadData:

; 188  : 					{
; 189  : 						MsgBox("[ KANTURU ][ BattleOfMaya ] - Exceed Max State Time (%d)",
; 190  : 							this->m_StateInfoCount);

  005ab	8b 45 ec	 mov	 eax, DWORD PTR _this$[ebp]
  005ae	8b 88 cc 01 00
	00		 mov	 ecx, DWORD PTR [eax+460]
  005b4	51		 push	 ecx
  005b5	68 00 00 00 00	 push	 OFFSET ??_C@_0DJ@NFMCCNGI@?$FL?5KANTURU?5?$FN?$FL?5BattleOfMaya?5?$FN?5?9?5Ex@
  005ba	e8 00 00 00 00	 call	 ?MsgBox@@YAXPADZZ	; MsgBox
  005bf	83 c4 08	 add	 esp, 8

; 191  : 
; 192  : 						break;

  005c2	e9 8d 02 00 00	 jmp	 $LN28@LoadData
$LN19@LoadData:

; 193  : 					}
; 194  : 
; 195  : 					this->m_StateInfo[this->m_StateInfoCount].SetStateInfo(iState);

  005c7	8b 45 e0	 mov	 eax, DWORD PTR _iState$228055[ebp]
  005ca	50		 push	 eax
  005cb	8b 4d ec	 mov	 ecx, DWORD PTR _this$[ebp]
  005ce	8b 91 cc 01 00
	00		 mov	 edx, DWORD PTR [ecx+460]
  005d4	6b d2 14	 imul	 edx, 20			; 00000014H
  005d7	8b 45 ec	 mov	 eax, DWORD PTR _this$[ebp]
  005da	8d 4c 10 50	 lea	 ecx, DWORD PTR [eax+edx+80]
  005de	e8 00 00 00 00	 call	 ?SetStateInfo@CKanturuStateInfo@@QAEXH@Z ; CKanturuStateInfo::SetStateInfo

; 196  : 					this->m_StateInfo[this->m_StateInfoCount].SetCondition(iCondition);

  005e3	8b 45 dc	 mov	 eax, DWORD PTR _iCondition$228056[ebp]
  005e6	50		 push	 eax
  005e7	8b 4d ec	 mov	 ecx, DWORD PTR _this$[ebp]
  005ea	8b 91 cc 01 00
	00		 mov	 edx, DWORD PTR [ecx+460]
  005f0	6b d2 14	 imul	 edx, 20			; 00000014H
  005f3	8b 45 ec	 mov	 eax, DWORD PTR _this$[ebp]
  005f6	8d 4c 10 50	 lea	 ecx, DWORD PTR [eax+edx+80]
  005fa	e8 00 00 00 00	 call	 ?SetCondition@CKanturuStateInfo@@QAEXH@Z ; CKanturuStateInfo::SetCondition

; 197  : 
; 198  : 					if ( iCondition == 1 )

  005ff	83 7d dc 01	 cmp	 DWORD PTR _iCondition$228056[ebp], 1
  00603	75 0c		 jne	 SHORT $LN17@LoadData

; 199  : 					{
; 200  : 						iValue *= 1000;

  00605	8b 45 d8	 mov	 eax, DWORD PTR _iValue$228057[ebp]
  00608	69 c0 e8 03 00
	00		 imul	 eax, 1000		; 000003e8H
  0060e	89 45 d8	 mov	 DWORD PTR _iValue$228057[ebp], eax
$LN17@LoadData:

; 201  : 					}
; 202  : 
; 203  : 					this->m_StateInfo[this->m_StateInfoCount].SetValue(iValue);

  00611	8b 45 d8	 mov	 eax, DWORD PTR _iValue$228057[ebp]
  00614	50		 push	 eax
  00615	8b 4d ec	 mov	 ecx, DWORD PTR _this$[ebp]
  00618	8b 91 cc 01 00
	00		 mov	 edx, DWORD PTR [ecx+460]
  0061e	6b d2 14	 imul	 edx, 20			; 00000014H
  00621	8b 45 ec	 mov	 eax, DWORD PTR _this$[ebp]
  00624	8d 4c 10 50	 lea	 ecx, DWORD PTR [eax+edx+80]
  00628	e8 00 00 00 00	 call	 ?SetValue@CKanturuStateInfo@@QAEXH@Z ; CKanturuStateInfo::SetValue

; 204  : 					this->m_StateInfoCount++;

  0062d	8b 45 ec	 mov	 eax, DWORD PTR _this$[ebp]
  00630	8b 88 cc 01 00
	00		 mov	 ecx, DWORD PTR [eax+460]
  00636	83 c1 01	 add	 ecx, 1
  00639	8b 55 ec	 mov	 edx, DWORD PTR _this$[ebp]
  0063c	89 8a cc 01 00
	00		 mov	 DWORD PTR [edx+460], ecx
  00642	e9 08 02 00 00	 jmp	 $LN1@LoadData
$LN21@LoadData:

; 205  : 				}
; 206  : 				else if ( iType == 4 )

  00647	83 7d e4 04	 cmp	 DWORD PTR _iType$228054[ebp], 4
  0064b	0f 85 a7 00 00
	00		 jne	 $LN15@LoadData

; 207  : 				{
; 208  : 					int iValue = 0;

  00651	c7 45 d4 00 00
	00 00		 mov	 DWORD PTR _iValue$228104[ebp], 0

; 209  : 
; 210  : 					Token = GetToken();

  00658	e8 00 00 00 00	 call	 ?GetToken@@YA?AW4SMDToken@@XZ ; GetToken
  0065d	89 45 88	 mov	 DWORD PTR tv279[ebp], eax
  00660	8b 45 88	 mov	 eax, DWORD PTR tv279[ebp]
  00663	89 45 e8	 mov	 DWORD PTR _Token$228050[ebp], eax

; 211  : 
; 212  : 					if ( !strcmp("end", TokenString))

  00666	68 00 00 00 00	 push	 OFFSET _TokenString
  0066b	68 00 00 00 00	 push	 OFFSET ??_C@_03JBJLGPFL@end?$AA@
  00670	e8 00 00 00 00	 call	 _strcmp
  00675	83 c4 08	 add	 esp, 8
  00678	85 c0		 test	 eax, eax
  0067a	75 05		 jne	 SHORT $LN14@LoadData

; 213  : 					{
; 214  : 						break;

  0067c	e9 d3 01 00 00	 jmp	 $LN28@LoadData
$LN14@LoadData:

; 215  : 					}
; 216  : 
; 217  : 					iValue = (int)TokenNumber;

  00681	d9 05 00 00 00
	00		 fld	 DWORD PTR _TokenNumber
  00687	e8 00 00 00 00	 call	 __ftol2_sse
  0068c	89 45 d4	 mov	 DWORD PTR _iValue$228104[ebp], eax

; 218  : 
; 219  : 					if ( this->m_iMayaHandAIChangeTimeCount < 0 ||
; 220  : 						 this->m_iMayaHandAIChangeTimeCount >= KANTURU_MAYA_AI_CHANGE_TIME )

  0068f	8b 45 ec	 mov	 eax, DWORD PTR _this$[ebp]
  00692	83 b8 0c 02 00
	00 00		 cmp	 DWORD PTR [eax+524], 0
  00699	7c 0c		 jl	 SHORT $LN12@LoadData
  0069b	8b 45 ec	 mov	 eax, DWORD PTR _this$[ebp]
  0069e	83 b8 0c 02 00
	00 04		 cmp	 DWORD PTR [eax+524], 4
  006a5	7c 1b		 jl	 SHORT $LN13@LoadData
$LN12@LoadData:

; 221  : 					{
; 222  : 						MsgBox("[ KANTURU ][ BattleOfMaya ] - Exceed Maya Hand AI Change Time(%d)",
; 223  : 							this->m_iMayaHandAIChangeTime);

  006a7	8b 45 ec	 mov	 eax, DWORD PTR _this$[ebp]
  006aa	05 fc 01 00 00	 add	 eax, 508		; 000001fcH
  006af	50		 push	 eax
  006b0	68 00 00 00 00	 push	 OFFSET ??_C@_0EC@DMJEACFN@?$FL?5KANTURU?5?$FN?$FL?5BattleOfMaya?5?$FN?5?9?5Ex@
  006b5	e8 00 00 00 00	 call	 ?MsgBox@@YAXPADZZ	; MsgBox
  006ba	83 c4 08	 add	 esp, 8

; 224  : 
; 225  : 						break;

  006bd	e9 92 01 00 00	 jmp	 $LN28@LoadData
$LN13@LoadData:

; 226  : 					}
; 227  : 					
; 228  : 					this->m_iMayaHandAIChangeTime[this->m_iMayaHandAIChangeTimeCount] = iValue * 1000;

  006c2	8b 45 ec	 mov	 eax, DWORD PTR _this$[ebp]
  006c5	8b 88 0c 02 00
	00		 mov	 ecx, DWORD PTR [eax+524]
  006cb	8b 55 d4	 mov	 edx, DWORD PTR _iValue$228104[ebp]
  006ce	69 d2 e8 03 00
	00		 imul	 edx, 1000		; 000003e8H
  006d4	8b 45 ec	 mov	 eax, DWORD PTR _this$[ebp]
  006d7	89 94 88 fc 01
	00 00		 mov	 DWORD PTR [eax+ecx*4+508], edx

; 229  : 					this->m_iMayaHandAIChangeTimeCount++;

  006de	8b 45 ec	 mov	 eax, DWORD PTR _this$[ebp]
  006e1	8b 88 0c 02 00
	00		 mov	 ecx, DWORD PTR [eax+524]
  006e7	83 c1 01	 add	 ecx, 1
  006ea	8b 55 ec	 mov	 edx, DWORD PTR _this$[ebp]
  006ed	89 8a 0c 02 00
	00		 mov	 DWORD PTR [edx+524], ecx
  006f3	e9 57 01 00 00	 jmp	 $LN1@LoadData
$LN15@LoadData:

; 230  : 				}
; 231  : 				else if ( iType == 5 )

  006f8	83 7d e4 05	 cmp	 DWORD PTR _iType$228054[ebp], 5
  006fc	0f 85 a2 00 00
	00		 jne	 $LN10@LoadData

; 232  : 				{
; 233  : 					int iValue = 0;

  00702	c7 45 d0 00 00
	00 00		 mov	 DWORD PTR _iValue$228112[ebp], 0

; 234  : 
; 235  : 					Token = GetToken();

  00709	e8 00 00 00 00	 call	 ?GetToken@@YA?AW4SMDToken@@XZ ; GetToken
  0070e	89 45 88	 mov	 DWORD PTR tv280[ebp], eax
  00711	8b 45 88	 mov	 eax, DWORD PTR tv280[ebp]
  00714	89 45 e8	 mov	 DWORD PTR _Token$228050[ebp], eax

; 236  : 
; 237  : 					if ( !strcmp("end", TokenString))

  00717	68 00 00 00 00	 push	 OFFSET _TokenString
  0071c	68 00 00 00 00	 push	 OFFSET ??_C@_03JBJLGPFL@end?$AA@
  00721	e8 00 00 00 00	 call	 _strcmp
  00726	83 c4 08	 add	 esp, 8
  00729	85 c0		 test	 eax, eax
  0072b	75 05		 jne	 SHORT $LN9@LoadData

; 238  : 					{
; 239  : 						break;

  0072d	e9 22 01 00 00	 jmp	 $LN28@LoadData
$LN9@LoadData:

; 240  : 					}
; 241  : 
; 242  : 					iValue = (int)TokenNumber;

  00732	d9 05 00 00 00
	00		 fld	 DWORD PTR _TokenNumber
  00738	e8 00 00 00 00	 call	 __ftol2_sse
  0073d	89 45 d0	 mov	 DWORD PTR _iValue$228112[ebp], eax

; 243  : 
; 244  : 					if ( this->m_iMayaHAndGroupNumberCount < 0 ||
; 245  : 						 this->m_iMayaHAndGroupNumberCount >= KANTURU_MAYA_GROUP_NUMBER )

  00740	8b 45 ec	 mov	 eax, DWORD PTR _this$[ebp]
  00743	83 b8 24 02 00
	00 00		 cmp	 DWORD PTR [eax+548], 0
  0074a	7c 0c		 jl	 SHORT $LN7@LoadData
  0074c	8b 45 ec	 mov	 eax, DWORD PTR _this$[ebp]
  0074f	83 b8 24 02 00
	00 03		 cmp	 DWORD PTR [eax+548], 3
  00756	7c 1c		 jl	 SHORT $LN8@LoadData
$LN7@LoadData:

; 246  : 					{
; 247  : 						MsgBox("[ KANTURU ][ BattleOfMaya ] - Maya Hand AI Group Read Error(%d)",
; 248  : 							this->m_iMayaHAndGroupNumberCount);

  00758	8b 45 ec	 mov	 eax, DWORD PTR _this$[ebp]
  0075b	8b 88 24 02 00
	00		 mov	 ecx, DWORD PTR [eax+548]
  00761	51		 push	 ecx
  00762	68 00 00 00 00	 push	 OFFSET ??_C@_0EA@DAGPCMG@?$FL?5KANTURU?5?$FN?$FL?5BattleOfMaya?5?$FN?5?9?5Ma@
  00767	e8 00 00 00 00	 call	 ?MsgBox@@YAXPADZZ	; MsgBox
  0076c	83 c4 08	 add	 esp, 8

; 249  : 
; 250  : 						break;

  0076f	e9 e0 00 00 00	 jmp	 $LN28@LoadData
$LN8@LoadData:

; 251  : 					}
; 252  : 					
; 253  : 					this->m_iMayaHandGroupNumber[this->m_iMayaHAndGroupNumberCount] = iValue;

  00774	8b 45 ec	 mov	 eax, DWORD PTR _this$[ebp]
  00777	8b 88 24 02 00
	00		 mov	 ecx, DWORD PTR [eax+548]
  0077d	8b 55 ec	 mov	 edx, DWORD PTR _this$[ebp]
  00780	8b 45 d0	 mov	 eax, DWORD PTR _iValue$228112[ebp]
  00783	89 84 8a 18 02
	00 00		 mov	 DWORD PTR [edx+ecx*4+536], eax

; 254  : 					this->m_iMayaHAndGroupNumberCount++;

  0078a	8b 45 ec	 mov	 eax, DWORD PTR _this$[ebp]
  0078d	8b 88 24 02 00
	00		 mov	 ecx, DWORD PTR [eax+548]
  00793	83 c1 01	 add	 ecx, 1
  00796	8b 55 ec	 mov	 edx, DWORD PTR _this$[ebp]
  00799	89 8a 24 02 00
	00		 mov	 DWORD PTR [edx+548], ecx
  0079f	e9 ab 00 00 00	 jmp	 $LN1@LoadData
$LN10@LoadData:

; 255  : 				}
; 256  : 				else if ( iType == 6 )

  007a4	83 7d e4 06	 cmp	 DWORD PTR _iType$228054[ebp], 6
  007a8	75 7f		 jne	 SHORT $LN5@LoadData

; 257  : 				{
; 258  : 					int iValue = 0;

  007aa	c7 45 cc 00 00
	00 00		 mov	 DWORD PTR _iValue$228120[ebp], 0

; 259  : 
; 260  : 					Token = GetToken();

  007b1	e8 00 00 00 00	 call	 ?GetToken@@YA?AW4SMDToken@@XZ ; GetToken
  007b6	89 45 88	 mov	 DWORD PTR tv281[ebp], eax
  007b9	8b 45 88	 mov	 eax, DWORD PTR tv281[ebp]
  007bc	89 45 e8	 mov	 DWORD PTR _Token$228050[ebp], eax

; 261  : 
; 262  : 					if ( !strcmp("end", TokenString))

  007bf	68 00 00 00 00	 push	 OFFSET _TokenString
  007c4	68 00 00 00 00	 push	 OFFSET ??_C@_03JBJLGPFL@end?$AA@
  007c9	e8 00 00 00 00	 call	 _strcmp
  007ce	83 c4 08	 add	 esp, 8
  007d1	85 c0		 test	 eax, eax
  007d3	75 02		 jne	 SHORT $LN4@LoadData

; 263  : 					{
; 264  : 						break;

  007d5	eb 7d		 jmp	 SHORT $LN28@LoadData
$LN4@LoadData:

; 265  : 					}
; 266  : 
; 267  : 					iValue = (int)TokenNumber;

  007d7	d9 05 00 00 00
	00		 fld	 DWORD PTR _TokenNumber
  007dd	e8 00 00 00 00	 call	 __ftol2_sse
  007e2	89 45 cc	 mov	 DWORD PTR _iValue$228120[ebp], eax

; 268  : 
; 269  : 					if ( iValue < 0 )

  007e5	83 7d cc 00	 cmp	 DWORD PTR _iValue$228120[ebp], 0
  007e9	7d 18		 jge	 SHORT $LN3@LoadData

; 270  : 					{
; 271  : 						MsgBox("[ KANTURU ][ BattleOfMaya ] - Maya IceStorm Using Rate Load Error(%d)",
; 272  : 							iValue);

  007eb	8b 45 cc	 mov	 eax, DWORD PTR _iValue$228120[ebp]
  007ee	50		 push	 eax
  007ef	68 00 00 00 00	 push	 OFFSET ??_C@_0EG@MJODBFHP@?$FL?5KANTURU?5?$FN?$FL?5BattleOfMaya?5?$FN?5?9?5Ma@
  007f4	e8 00 00 00 00	 call	 ?MsgBox@@YAXPADZZ	; MsgBox
  007f9	83 c4 08	 add	 esp, 8

; 273  : 
; 274  : 						iValue = 60;

  007fc	c7 45 cc 3c 00
	00 00		 mov	 DWORD PTR _iValue$228120[ebp], 60 ; 0000003cH
$LN3@LoadData:

; 275  : 					}
; 276  : 					
; 277  : 					this->m_iMayaIceStormUsingRate = iValue;

  00803	8b 45 ec	 mov	 eax, DWORD PTR _this$[ebp]
  00806	8b 4d cc	 mov	 ecx, DWORD PTR _iValue$228120[ebp]
  00809	89 88 28 02 00
	00		 mov	 DWORD PTR [eax+552], ecx

; 278  : 					
; 279  : 					LogAddTD("[ KANTURU ][ BattleOfMaya ] IceStorm Using Rate Load: %d",
; 280  : 						this->m_iMayaIceStormUsingRate);

  0080f	8b 45 ec	 mov	 eax, DWORD PTR _this$[ebp]
  00812	8b 88 28 02 00
	00		 mov	 ecx, DWORD PTR [eax+552]
  00818	51		 push	 ecx
  00819	68 00 00 00 00	 push	 OFFSET ??_C@_0DJ@DJFAMIGH@?$FL?5KANTURU?5?$FN?$FL?5BattleOfMaya?5?$FN?5IceS@
  0081e	ff 15 00 00 00
	00		 call	 DWORD PTR ?LogAddTD@@3P6AXPADZZA ; LogAddTD
  00824	83 c4 08	 add	 esp, 8

; 281  : 				}
; 282  : 				else

  00827	eb 26		 jmp	 SHORT $LN1@LoadData
$LN5@LoadData:

; 283  : 				{
; 284  : 					Token = GetToken();

  00829	e8 00 00 00 00	 call	 ?GetToken@@YA?AW4SMDToken@@XZ ; GetToken
  0082e	89 45 88	 mov	 DWORD PTR tv282[ebp], eax
  00831	8b 45 88	 mov	 eax, DWORD PTR tv282[ebp]
  00834	89 45 e8	 mov	 DWORD PTR _Token$228050[ebp], eax

; 285  : 
; 286  : 					if ( !strcmp("end", TokenString))

  00837	68 00 00 00 00	 push	 OFFSET _TokenString
  0083c	68 00 00 00 00	 push	 OFFSET ??_C@_03JBJLGPFL@end?$AA@
  00841	e8 00 00 00 00	 call	 _strcmp
  00846	83 c4 08	 add	 esp, 8
  00849	85 c0		 test	 eax, eax
  0084b	75 02		 jne	 SHORT $LN1@LoadData

; 287  : 					{
; 288  : 						break;

  0084d	eb 05		 jmp	 SHORT $LN28@LoadData
$LN1@LoadData:

; 289  : 					}
; 290  : 				}
; 291  : 			}	// while ( true )

  0084f	e9 7a fb ff ff	 jmp	 $LN29@LoadData
$LN28@LoadData:

; 292  : 		}	// while ( true )

  00854	e9 41 fb ff ff	 jmp	 $LN32@LoadData
$LN31@LoadData:

; 293  : 
; 294  : 		fclose(SMDFile);

  00859	a1 00 00 00 00	 mov	 eax, DWORD PTR _SMDFile
  0085e	50		 push	 eax
  0085f	e8 00 00 00 00	 call	 _fclose
  00864	83 c4 04	 add	 esp, 4

; 295  : 		LogAddC(2, "[ KANTURU ][ BattleOfMaya ] %s file is Loaded",
; 296  : 			lpszFileName);

  00867	8b 45 08	 mov	 eax, DWORD PTR _lpszFileName$[ebp]
  0086a	50		 push	 eax
  0086b	68 00 00 00 00	 push	 OFFSET ??_C@_0CO@FIGOKMGP@?$FL?5KANTURU?5?$FN?$FL?5BattleOfMaya?5?$FN?5?$CFs?5f@
  00870	6a 02		 push	 2
  00872	ff 15 00 00 00
	00		 call	 DWORD PTR ?LogAddC@@3P6AXEPADZZA ; LogAddC
  00878	83 c4 0c	 add	 esp, 12			; 0000000cH

; 297  : 
; 298  : 		this->m_bFileDataLoad = TRUE;

  0087b	8b 45 ec	 mov	 eax, DWORD PTR _this$[ebp]
  0087e	c7 40 04 01 00
	00 00		 mov	 DWORD PTR [eax+4], 1

; 299  : 	}	// __try

  00885	eb 1e		 jmp	 SHORT $LN39@LoadData
__catch$?LoadData@CKanturuBattleOfMaya@@QAEHPAD@Z$0:

; 300  : 	catch (...)
; 301  : 	{
; 302  : 		MsgBox("[ KANTURU ][ BattleOfMaya ] - Loading Exception Error (%s) File. ", lpszFileName);

  00887	8b 45 08	 mov	 eax, DWORD PTR _lpszFileName$[ebp]
  0088a	50		 push	 eax
  0088b	68 00 00 00 00	 push	 OFFSET ??_C@_0EC@IDACLHLE@?$FL?5KANTURU?5?$FN?$FL?5BattleOfMaya?5?$FN?5?9?5Lo@
  00890	e8 00 00 00 00	 call	 ?MsgBox@@YAXPADZZ	; MsgBox
  00895	83 c4 08	 add	 esp, 8

; 303  : 	}

  00898	c7 45 fc ff ff
	ff ff		 mov	 DWORD PTR __$EHRec$[ebp+12], -1
  0089f	b8 00 00 00 00	 mov	 eax, $LN42@LoadData
  008a4	c3		 ret	 0
$LN39@LoadData:
  008a5	c7 45 fc ff ff
	ff ff		 mov	 DWORD PTR __$EHRec$[ebp+12], -1
$LN42@LoadData:

; 304  : 
; 305  : 	return this->m_bFileDataLoad;

  008ac	8b 45 ec	 mov	 eax, DWORD PTR _this$[ebp]
  008af	8b 40 04	 mov	 eax, DWORD PTR [eax+4]
$LN37@LoadData:

; 306  : }

  008b2	8b 4d f4	 mov	 ecx, DWORD PTR __$EHRec$[ebp+4]
  008b5	64 89 0d 00 00
	00 00		 mov	 DWORD PTR fs:0, ecx
  008bc	59		 pop	 ecx
  008bd	5f		 pop	 edi
  008be	5e		 pop	 esi
  008bf	5b		 pop	 ebx
  008c0	8b e5		 mov	 esp, ebp
  008c2	5d		 pop	 ebp
  008c3	c2 04 00	 ret	 4
_TEXT	ENDS
text$x	SEGMENT
__ehhandler$?LoadData@CKanturuBattleOfMaya@@QAEHPAD@Z:
  0009c	8b 54 24 08	 mov	 edx, DWORD PTR [esp+8]
  000a0	8d 42 0c	 lea	 eax, DWORD PTR [edx+12]
  000a3	8b 4a 84	 mov	 ecx, DWORD PTR [edx-124]
  000a6	33 c8		 xor	 ecx, eax
  000a8	e8 00 00 00 00	 call	 @__security_check_cookie@4
  000ad	b8 00 00 00 00	 mov	 eax, OFFSET __ehfuncinfo$?LoadData@CKanturuBattleOfMaya@@QAEHPAD@Z
  000b2	e9 00 00 00 00	 jmp	 ___CxxFrameHandler3
text$x	ENDS
?LoadData@CKanturuBattleOfMaya@@QAEHPAD@Z ENDP		; CKanturuBattleOfMaya::LoadData
PUBLIC	__$ArrayPad$
EXTRN	_isalnum:PROC
EXTRN	_isalpha:PROC
EXTRN	_atof:PROC
EXTRN	_isdigit:PROC
EXTRN	_getc:PROC
EXTRN	_ungetc:PROC
EXTRN	_isspace:PROC
EXTRN	_fgetc:PROC
EXTRN	__fltused:DWORD
_BSS	SEGMENT
_CurrentToken DD 01H DUP (?)
; Function compile flags: /Odtp /ZI
; File d:\projects\exteam6.3\source\gameserver\include\readscript.h
_BSS	ENDS
_TEXT	SEGMENT
tv90 = -180						; size = 4
_TempString$ = -112					; size = 100
_p$ = -12						; size = 4
_ch$ = -5						; size = 1
__$ArrayPad$ = -4					; size = 4
?GetToken@@YA?AW4SMDToken@@XZ PROC			; GetToken

; 24   : {

  008d0	55		 push	 ebp
  008d1	8b ec		 mov	 ebp, esp
  008d3	81 ec b4 00 00
	00		 sub	 esp, 180		; 000000b4H
  008d9	a1 00 00 00 00	 mov	 eax, DWORD PTR ___security_cookie
  008de	33 c5		 xor	 eax, ebp
  008e0	89 45 fc	 mov	 DWORD PTR __$ArrayPad$[ebp], eax
  008e3	53		 push	 ebx
  008e4	56		 push	 esi
  008e5	57		 push	 edi

; 25   : 	char ch;
; 26   : 	char* p;
; 27   : 	char TempString[100];
; 28   : 
; 29   : 	TokenString[0]=0;

  008e6	c6 05 00 00 00
	00 00		 mov	 BYTE PTR _TokenString, 0
$LN31@GetToken:

; 30   : 
; 31   : 	do
; 32   : 	{
; 33   : 		if ((ch=fgetc(SMDFile)) == -1)

  008ed	a1 00 00 00 00	 mov	 eax, DWORD PTR _SMDFile
  008f2	50		 push	 eax
  008f3	e8 00 00 00 00	 call	 _fgetc
  008f8	83 c4 04	 add	 esp, 4
  008fb	88 45 fb	 mov	 BYTE PTR _ch$[ebp], al
  008fe	0f be 4d fb	 movsx	 ecx, BYTE PTR _ch$[ebp]
  00902	83 f9 ff	 cmp	 ecx, -1
  00905	75 0c		 jne	 SHORT $LN28@GetToken

; 34   : 		{
; 35   : 			return END;	// End of FILE (EOF)

  00907	b8 02 00 00 00	 mov	 eax, 2
  0090c	e9 f7 02 00 00	 jmp	 $LN32@GetToken

; 36   : 		}
; 37   : 		else

  00911	eb 5b		 jmp	 SHORT $LN22@GetToken
$LN28@GetToken:

; 38   : 		{	
; 39   : 			if (ch=='/')		// this is /

  00913	0f be 45 fb	 movsx	 eax, BYTE PTR _ch$[ebp]
  00917	83 f8 2f	 cmp	 eax, 47			; 0000002fH
  0091a	75 52		 jne	 SHORT $LN22@GetToken

; 40   : 			{
; 41   : 				if((ch=fgetc(SMDFile)) == '/')

  0091c	a1 00 00 00 00	 mov	 eax, DWORD PTR _SMDFile
  00921	50		 push	 eax
  00922	e8 00 00 00 00	 call	 _fgetc
  00927	83 c4 04	 add	 esp, 4
  0092a	88 45 fb	 mov	 BYTE PTR _ch$[ebp], al
  0092d	0f be 4d fb	 movsx	 ecx, BYTE PTR _ch$[ebp]
  00931	83 f9 2f	 cmp	 ecx, 47			; 0000002fH
  00934	75 38		 jne	 SHORT $LN22@GetToken
$LN24@GetToken:

; 42   : 				{
; 43   : 					while ((ch != '\n') && (ch != -1))	// End of Line (EOL)

  00936	0f be 45 fb	 movsx	 eax, BYTE PTR _ch$[ebp]
  0093a	83 f8 0a	 cmp	 eax, 10			; 0000000aH
  0093d	74 1c		 je	 SHORT $LN23@GetToken
  0093f	0f be 45 fb	 movsx	 eax, BYTE PTR _ch$[ebp]
  00943	83 f8 ff	 cmp	 eax, -1
  00946	74 13		 je	 SHORT $LN23@GetToken

; 44   : 					{
; 45   : 						ch=fgetc(SMDFile);

  00948	a1 00 00 00 00	 mov	 eax, DWORD PTR _SMDFile
  0094d	50		 push	 eax
  0094e	e8 00 00 00 00	 call	 _fgetc
  00953	83 c4 04	 add	 esp, 4
  00956	88 45 fb	 mov	 BYTE PTR _ch$[ebp], al

; 46   : 					}

  00959	eb db		 jmp	 SHORT $LN24@GetToken
$LN23@GetToken:

; 47   : 	
; 48   : 					if (ch == -1)

  0095b	0f be 45 fb	 movsx	 eax, BYTE PTR _ch$[ebp]
  0095f	83 f8 ff	 cmp	 eax, -1
  00962	75 0a		 jne	 SHORT $LN22@GetToken

; 49   : 					{
; 50   : 						return END;	// End of FILE

  00964	b8 02 00 00 00	 mov	 eax, 2
  00969	e9 9a 02 00 00	 jmp	 $LN32@GetToken
$LN22@GetToken:

; 51   : 					}
; 52   : 				}
; 53   : 			}
; 54   : 		}
; 55   : 	}
; 56   : 	while (isspace(ch) != 0);

  0096e	0f be 45 fb	 movsx	 eax, BYTE PTR _ch$[ebp]
  00972	50		 push	 eax
  00973	e8 00 00 00 00	 call	 _isspace
  00978	83 c4 04	 add	 esp, 4
  0097b	85 c0		 test	 eax, eax
  0097d	0f 85 6a ff ff
	ff		 jne	 $LN31@GetToken

; 57   : 
; 58   : 	
; 59   : 	switch(ch)

  00983	0f be 45 fb	 movsx	 eax, BYTE PTR _ch$[ebp]
  00987	89 85 4c ff ff
	ff		 mov	 DWORD PTR tv90[ebp], eax
  0098d	8b 8d 4c ff ff
	ff		 mov	 ecx, DWORD PTR tv90[ebp]
  00993	83 e9 22	 sub	 ecx, 34			; 00000022H
  00996	89 8d 4c ff ff
	ff		 mov	 DWORD PTR tv90[ebp], ecx
  0099c	83 bd 4c ff ff
	ff 5b		 cmp	 DWORD PTR tv90[ebp], 91	; 0000005bH
  009a3	0f 87 a3 01 00
	00		 ja	 $LN6@GetToken
  009a9	8b 95 4c ff ff
	ff		 mov	 edx, DWORD PTR tv90[ebp]
  009af	0f b6 82 00 00
	00 00		 movzx	 eax, BYTE PTR $LN34@GetToken[edx]
  009b6	ff 24 85 00 00
	00 00		 jmp	 DWORD PTR $LN35@GetToken[eax*4]
$LN19@GetToken:

; 60   : 	{
; 61   : 
; 62   : 	case 0x23:	// #
; 63   : 		return CurrentToken=COMMAND;

  009bd	c7 05 00 00 00
	00 23 00 00 00	 mov	 DWORD PTR _CurrentToken, 35 ; 00000023H
  009c7	a1 00 00 00 00	 mov	 eax, DWORD PTR _CurrentToken
  009cc	e9 37 02 00 00	 jmp	 $LN32@GetToken

; 64   : 		break;

  009d1	e9 30 02 00 00	 jmp	 $LN20@GetToken
$LN18@GetToken:

; 65   : 	
; 66   : 	case 0x3B:	// ;
; 67   : 		return CurrentToken=SEMICOLON;

  009d6	c7 05 00 00 00
	00 3b 00 00 00	 mov	 DWORD PTR _CurrentToken, 59 ; 0000003bH
  009e0	a1 00 00 00 00	 mov	 eax, DWORD PTR _CurrentToken
  009e5	e9 1e 02 00 00	 jmp	 $LN32@GetToken

; 68   : 		break;

  009ea	e9 17 02 00 00	 jmp	 $LN20@GetToken
$LN17@GetToken:

; 69   : 	
; 70   : 	case 0x2C:	// ,
; 71   : 
; 72   : 		return CurrentToken=COMMA;

  009ef	c7 05 00 00 00
	00 2c 00 00 00	 mov	 DWORD PTR _CurrentToken, 44 ; 0000002cH
  009f9	a1 00 00 00 00	 mov	 eax, DWORD PTR _CurrentToken
  009fe	e9 05 02 00 00	 jmp	 $LN32@GetToken

; 73   : 		break;

  00a03	e9 fe 01 00 00	 jmp	 $LN20@GetToken
$LN16@GetToken:

; 74   : 	
; 75   : 	case 0x7B:	// {
; 76   : 		return CurrentToken = LP;

  00a08	c7 05 00 00 00
	00 7b 00 00 00	 mov	 DWORD PTR _CurrentToken, 123 ; 0000007bH
  00a12	a1 00 00 00 00	 mov	 eax, DWORD PTR _CurrentToken
  00a17	e9 ec 01 00 00	 jmp	 $LN32@GetToken

; 77   : 		break;

  00a1c	e9 e5 01 00 00	 jmp	 $LN20@GetToken
$LN15@GetToken:

; 78   : 
; 79   : 	case 0x7D:	// }
; 80   : 		return CurrentToken = RP;

  00a21	c7 05 00 00 00
	00 7d 00 00 00	 mov	 DWORD PTR _CurrentToken, 125 ; 0000007dH
  00a2b	a1 00 00 00 00	 mov	 eax, DWORD PTR _CurrentToken
  00a30	e9 d3 01 00 00	 jmp	 $LN32@GetToken

; 81   : 		break;

  00a35	e9 cc 01 00 00	 jmp	 $LN20@GetToken
$LN14@GetToken:

; 82   : 	// Nice Index Table :)	by Deathway
; 83   : 	// Numbers Case
; 84   : 	case 0x2D:	//-
; 85   : 	case 0x2E:	//.
; 86   : 	case '0':	//0
; 87   : 	case '1':	//1
; 88   : 	case '2':	//2
; 89   : 	case '3':	//3
; 90   : 	case '4':	//4		
; 91   : 	case '5':	//5
; 92   : 	case '6':	//6
; 93   : 	case '7':	//7
; 94   : 	case '8':	//8
; 95   : 	case '9':	//9
; 96   : 		ungetc(ch, SMDFile);

  00a3a	a1 00 00 00 00	 mov	 eax, DWORD PTR _SMDFile
  00a3f	50		 push	 eax
  00a40	0f be 4d fb	 movsx	 ecx, BYTE PTR _ch$[ebp]
  00a44	51		 push	 ecx
  00a45	e8 00 00 00 00	 call	 _ungetc
  00a4a	83 c4 08	 add	 esp, 8

; 97   : 		p = TempString;

  00a4d	8d 45 90	 lea	 eax, DWORD PTR _TempString$[ebp]
  00a50	89 45 f4	 mov	 DWORD PTR _p$[ebp], eax
$LN13@GetToken:

; 98   : 		
; 99   : 		while (((ch=getc(SMDFile)) != -1) && ((ch == 0x2E) || (isdigit(ch) != 0) || (ch == 0x2D)))  // 2e '.'  2D '-'

  00a53	a1 00 00 00 00	 mov	 eax, DWORD PTR _SMDFile
  00a58	50		 push	 eax
  00a59	e8 00 00 00 00	 call	 _getc
  00a5e	83 c4 04	 add	 esp, 4
  00a61	88 45 fb	 mov	 BYTE PTR _ch$[ebp], al
  00a64	0f be 4d fb	 movsx	 ecx, BYTE PTR _ch$[ebp]
  00a68	83 f9 ff	 cmp	 ecx, -1
  00a6b	74 36		 je	 SHORT $LN12@GetToken
  00a6d	0f be 45 fb	 movsx	 eax, BYTE PTR _ch$[ebp]
  00a71	83 f8 2e	 cmp	 eax, 46			; 0000002eH
  00a74	74 1a		 je	 SHORT $LN11@GetToken
  00a76	0f be 45 fb	 movsx	 eax, BYTE PTR _ch$[ebp]
  00a7a	50		 push	 eax
  00a7b	e8 00 00 00 00	 call	 _isdigit
  00a80	83 c4 04	 add	 esp, 4
  00a83	85 c0		 test	 eax, eax
  00a85	75 09		 jne	 SHORT $LN11@GetToken
  00a87	0f be 45 fb	 movsx	 eax, BYTE PTR _ch$[ebp]
  00a8b	83 f8 2d	 cmp	 eax, 45			; 0000002dH
  00a8e	75 13		 jne	 SHORT $LN12@GetToken
$LN11@GetToken:

; 100  : 		{
; 101  : 			*p = ch;	// Construct a String

  00a90	8b 45 f4	 mov	 eax, DWORD PTR _p$[ebp]
  00a93	8a 4d fb	 mov	 cl, BYTE PTR _ch$[ebp]
  00a96	88 08		 mov	 BYTE PTR [eax], cl

; 102  : 			p++;

  00a98	8b 45 f4	 mov	 eax, DWORD PTR _p$[ebp]
  00a9b	83 c0 01	 add	 eax, 1
  00a9e	89 45 f4	 mov	 DWORD PTR _p$[ebp], eax

; 103  : 		}		

  00aa1	eb b0		 jmp	 SHORT $LN13@GetToken
$LN12@GetToken:

; 104  : 		*p = 0;

  00aa3	8b 45 f4	 mov	 eax, DWORD PTR _p$[ebp]
  00aa6	c6 00 00	 mov	 BYTE PTR [eax], 0

; 105  : 		TokenNumber = atof( TempString);	// Select the first Byte as Main ID

  00aa9	8d 45 90	 lea	 eax, DWORD PTR _TempString$[ebp]
  00aac	50		 push	 eax
  00aad	e8 00 00 00 00	 call	 _atof
  00ab2	83 c4 04	 add	 esp, 4
  00ab5	d9 1d 00 00 00
	00		 fstp	 DWORD PTR _TokenNumber

; 106  : 		return CurrentToken  = NUMBER ;

  00abb	c7 05 00 00 00
	00 01 00 00 00	 mov	 DWORD PTR _CurrentToken, 1
  00ac5	a1 00 00 00 00	 mov	 eax, DWORD PTR _CurrentToken
  00aca	e9 39 01 00 00	 jmp	 $LN32@GetToken

; 107  : 		break;

  00acf	e9 32 01 00 00	 jmp	 $LN20@GetToken
$LN10@GetToken:

; 108  : 
; 109  : 	case '\"':	// "	String Case
; 110  : 		p=&TokenString[0];

  00ad4	c7 45 f4 00 00
	00 00		 mov	 DWORD PTR _p$[ebp], OFFSET _TokenString
$LN9@GetToken:

; 111  : 		
; 112  : 		while (((ch=getc(SMDFile)) != -1 ) && (ch != 0x22))	// nice

  00adb	a1 00 00 00 00	 mov	 eax, DWORD PTR _SMDFile
  00ae0	50		 push	 eax
  00ae1	e8 00 00 00 00	 call	 _getc
  00ae6	83 c4 04	 add	 esp, 4
  00ae9	88 45 fb	 mov	 BYTE PTR _ch$[ebp], al
  00aec	0f be 4d fb	 movsx	 ecx, BYTE PTR _ch$[ebp]
  00af0	83 f9 ff	 cmp	 ecx, -1
  00af3	74 1c		 je	 SHORT $LN8@GetToken
  00af5	0f be 45 fb	 movsx	 eax, BYTE PTR _ch$[ebp]
  00af9	83 f8 22	 cmp	 eax, 34			; 00000022H
  00afc	74 13		 je	 SHORT $LN8@GetToken

; 113  : 		{
; 114  : 			*p = ch;

  00afe	8b 45 f4	 mov	 eax, DWORD PTR _p$[ebp]
  00b01	8a 4d fb	 mov	 cl, BYTE PTR _ch$[ebp]
  00b04	88 08		 mov	 BYTE PTR [eax], cl

; 115  : 			p++;

  00b06	8b 45 f4	 mov	 eax, DWORD PTR _p$[ebp]
  00b09	83 c0 01	 add	 eax, 1
  00b0c	89 45 f4	 mov	 DWORD PTR _p$[ebp], eax

; 116  : 		}

  00b0f	eb ca		 jmp	 SHORT $LN9@GetToken
$LN8@GetToken:

; 117  : 		if (ch != 0x22 )

  00b11	0f be 45 fb	 movsx	 eax, BYTE PTR _ch$[ebp]
  00b15	83 f8 22	 cmp	 eax, 34			; 00000022H
  00b18	74 13		 je	 SHORT $LN7@GetToken

; 118  : 		{
; 119  : 			ungetc(ch, SMDFile);

  00b1a	a1 00 00 00 00	 mov	 eax, DWORD PTR _SMDFile
  00b1f	50		 push	 eax
  00b20	0f be 4d fb	 movsx	 ecx, BYTE PTR _ch$[ebp]
  00b24	51		 push	 ecx
  00b25	e8 00 00 00 00	 call	 _ungetc
  00b2a	83 c4 08	 add	 esp, 8
$LN7@GetToken:

; 120  : 		}
; 121  : 		*p = 0;

  00b2d	8b 45 f4	 mov	 eax, DWORD PTR _p$[ebp]
  00b30	c6 00 00	 mov	 BYTE PTR [eax], 0

; 122  : 		return CurrentToken = NAME;

  00b33	c7 05 00 00 00
	00 00 00 00 00	 mov	 DWORD PTR _CurrentToken, 0
  00b3d	a1 00 00 00 00	 mov	 eax, DWORD PTR _CurrentToken
  00b42	e9 c1 00 00 00	 jmp	 $LN32@GetToken

; 123  : 		break;

  00b47	e9 ba 00 00 00	 jmp	 $LN20@GetToken
$LN6@GetToken:

; 124  : 
; 125  : 	default:	// Others
; 126  : 		if (isalpha(ch))

  00b4c	0f be 45 fb	 movsx	 eax, BYTE PTR _ch$[ebp]
  00b50	50		 push	 eax
  00b51	e8 00 00 00 00	 call	 _isalpha
  00b56	83 c4 04	 add	 esp, 4
  00b59	85 c0		 test	 eax, eax
  00b5b	0f 84 94 00 00
	00		 je	 $LN5@GetToken

; 127  : 		{
; 128  : 			p=&TokenString[0];

  00b61	c7 45 f4 00 00
	00 00		 mov	 DWORD PTR _p$[ebp], OFFSET _TokenString

; 129  : 			*p=ch;

  00b68	8b 45 f4	 mov	 eax, DWORD PTR _p$[ebp]
  00b6b	8a 4d fb	 mov	 cl, BYTE PTR _ch$[ebp]
  00b6e	88 08		 mov	 BYTE PTR [eax], cl

; 130  : 			p++;

  00b70	8b 45 f4	 mov	 eax, DWORD PTR _p$[ebp]
  00b73	83 c0 01	 add	 eax, 1
  00b76	89 45 f4	 mov	 DWORD PTR _p$[ebp], eax
$LN4@GetToken:

; 131  : 
; 132  : 			while ( ((ch=getc(SMDFile)) != -1) && ( (ch == 0x2E) || (ch == 0x5F) || (isalnum(ch) != 0) ) )

  00b79	a1 00 00 00 00	 mov	 eax, DWORD PTR _SMDFile
  00b7e	50		 push	 eax
  00b7f	e8 00 00 00 00	 call	 _getc
  00b84	83 c4 04	 add	 esp, 4
  00b87	88 45 fb	 mov	 BYTE PTR _ch$[ebp], al
  00b8a	0f be 4d fb	 movsx	 ecx, BYTE PTR _ch$[ebp]
  00b8e	83 f9 ff	 cmp	 ecx, -1
  00b91	74 36		 je	 SHORT $LN3@GetToken
  00b93	0f be 45 fb	 movsx	 eax, BYTE PTR _ch$[ebp]
  00b97	83 f8 2e	 cmp	 eax, 46			; 0000002eH
  00b9a	74 1a		 je	 SHORT $LN2@GetToken
  00b9c	0f be 45 fb	 movsx	 eax, BYTE PTR _ch$[ebp]
  00ba0	83 f8 5f	 cmp	 eax, 95			; 0000005fH
  00ba3	74 11		 je	 SHORT $LN2@GetToken
  00ba5	0f be 45 fb	 movsx	 eax, BYTE PTR _ch$[ebp]
  00ba9	50		 push	 eax
  00baa	e8 00 00 00 00	 call	 _isalnum
  00baf	83 c4 04	 add	 esp, 4
  00bb2	85 c0		 test	 eax, eax
  00bb4	74 13		 je	 SHORT $LN3@GetToken
$LN2@GetToken:

; 133  : 			{
; 134  : 				*p=ch;

  00bb6	8b 45 f4	 mov	 eax, DWORD PTR _p$[ebp]
  00bb9	8a 4d fb	 mov	 cl, BYTE PTR _ch$[ebp]
  00bbc	88 08		 mov	 BYTE PTR [eax], cl

; 135  : 				p++;

  00bbe	8b 45 f4	 mov	 eax, DWORD PTR _p$[ebp]
  00bc1	83 c0 01	 add	 eax, 1
  00bc4	89 45 f4	 mov	 DWORD PTR _p$[ebp], eax

; 136  : 				
; 137  : 			}

  00bc7	eb b0		 jmp	 SHORT $LN4@GetToken
$LN3@GetToken:

; 138  : 
; 139  : 			ungetc(ch, SMDFile);

  00bc9	a1 00 00 00 00	 mov	 eax, DWORD PTR _SMDFile
  00bce	50		 push	 eax
  00bcf	0f be 4d fb	 movsx	 ecx, BYTE PTR _ch$[ebp]
  00bd3	51		 push	 ecx
  00bd4	e8 00 00 00 00	 call	 _ungetc
  00bd9	83 c4 08	 add	 esp, 8

; 140  : 			*p=0;

  00bdc	8b 45 f4	 mov	 eax, DWORD PTR _p$[ebp]
  00bdf	c6 00 00	 mov	 BYTE PTR [eax], 0

; 141  : 			CurrentToken=NAME;

  00be2	c7 05 00 00 00
	00 00 00 00 00	 mov	 DWORD PTR _CurrentToken, 0

; 142  : 			return CurrentToken;

  00bec	a1 00 00 00 00	 mov	 eax, DWORD PTR _CurrentToken
  00bf1	eb 15		 jmp	 SHORT $LN32@GetToken

; 143  : 		}
; 144  : 		else

  00bf3	eb 11		 jmp	 SHORT $LN1@GetToken
$LN5@GetToken:

; 145  : 		{
; 146  : 			return CurrentToken = SMD_ERROR; // '<'

  00bf5	c7 05 00 00 00
	00 3c 00 00 00	 mov	 DWORD PTR _CurrentToken, 60 ; 0000003cH
  00bff	a1 00 00 00 00	 mov	 eax, DWORD PTR _CurrentToken
  00c04	eb 02		 jmp	 SHORT $LN32@GetToken
$LN1@GetToken:
$LN20@GetToken:

; 147  : 		}
; 148  : 		break;
; 149  : 
; 150  : 	}
; 151  : 
; 152  : 	return NAME;

  00c06	33 c0		 xor	 eax, eax
$LN32@GetToken:

; 153  : }

  00c08	5f		 pop	 edi
  00c09	5e		 pop	 esi
  00c0a	5b		 pop	 ebx
  00c0b	8b 4d fc	 mov	 ecx, DWORD PTR __$ArrayPad$[ebp]
  00c0e	33 cd		 xor	 ecx, ebp
  00c10	e8 00 00 00 00	 call	 @__security_check_cookie@4
  00c15	8b e5		 mov	 esp, ebp
  00c17	5d		 pop	 ebp
  00c18	c3		 ret	 0
  00c19	8d 49 00	 npad	 3
$LN35@GetToken:
  00c1c	00 00 00 00	 DD	 $LN10@GetToken
  00c20	00 00 00 00	 DD	 $LN19@GetToken
  00c24	00 00 00 00	 DD	 $LN17@GetToken
  00c28	00 00 00 00	 DD	 $LN14@GetToken
  00c2c	00 00 00 00	 DD	 $LN18@GetToken
  00c30	00 00 00 00	 DD	 $LN16@GetToken
  00c34	00 00 00 00	 DD	 $LN15@GetToken
  00c38	00 00 00 00	 DD	 $LN6@GetToken
$LN34@GetToken:
  00c3c	00		 DB	 0
  00c3d	01		 DB	 1
  00c3e	07		 DB	 7
  00c3f	07		 DB	 7
  00c40	07		 DB	 7
  00c41	07		 DB	 7
  00c42	07		 DB	 7
  00c43	07		 DB	 7
  00c44	07		 DB	 7
  00c45	07		 DB	 7
  00c46	02		 DB	 2
  00c47	03		 DB	 3
  00c48	03		 DB	 3
  00c49	07		 DB	 7
  00c4a	03		 DB	 3
  00c4b	03		 DB	 3
  00c4c	03		 DB	 3
  00c4d	03		 DB	 3
  00c4e	03		 DB	 3
  00c4f	03		 DB	 3
  00c50	03		 DB	 3
  00c51	03		 DB	 3
  00c52	03		 DB	 3
  00c53	03		 DB	 3
  00c54	07		 DB	 7
  00c55	04		 DB	 4
  00c56	07		 DB	 7
  00c57	07		 DB	 7
  00c58	07		 DB	 7
  00c59	07		 DB	 7
  00c5a	07		 DB	 7
  00c5b	07		 DB	 7
  00c5c	07		 DB	 7
  00c5d	07		 DB	 7
  00c5e	07		 DB	 7
  00c5f	07		 DB	 7
  00c60	07		 DB	 7
  00c61	07		 DB	 7
  00c62	07		 DB	 7
  00c63	07		 DB	 7
  00c64	07		 DB	 7
  00c65	07		 DB	 7
  00c66	07		 DB	 7
  00c67	07		 DB	 7
  00c68	07		 DB	 7
  00c69	07		 DB	 7
  00c6a	07		 DB	 7
  00c6b	07		 DB	 7
  00c6c	07		 DB	 7
  00c6d	07		 DB	 7
  00c6e	07		 DB	 7
  00c6f	07		 DB	 7
  00c70	07		 DB	 7
  00c71	07		 DB	 7
  00c72	07		 DB	 7
  00c73	07		 DB	 7
  00c74	07		 DB	 7
  00c75	07		 DB	 7
  00c76	07		 DB	 7
  00c77	07		 DB	 7
  00c78	07		 DB	 7
  00c79	07		 DB	 7
  00c7a	07		 DB	 7
  00c7b	07		 DB	 7
  00c7c	07		 DB	 7
  00c7d	07		 DB	 7
  00c7e	07		 DB	 7
  00c7f	07		 DB	 7
  00c80	07		 DB	 7
  00c81	07		 DB	 7
  00c82	07		 DB	 7
  00c83	07		 DB	 7
  00c84	07		 DB	 7
  00c85	07		 DB	 7
  00c86	07		 DB	 7
  00c87	07		 DB	 7
  00c88	07		 DB	 7
  00c89	07		 DB	 7
  00c8a	07		 DB	 7
  00c8b	07		 DB	 7
  00c8c	07		 DB	 7
  00c8d	07		 DB	 7
  00c8e	07		 DB	 7
  00c8f	07		 DB	 7
  00c90	07		 DB	 7
  00c91	07		 DB	 7
  00c92	07		 DB	 7
  00c93	07		 DB	 7
  00c94	07		 DB	 7
  00c95	05		 DB	 5
  00c96	07		 DB	 7
  00c97	06		 DB	 6
?GetToken@@YA?AW4SMDToken@@XZ ENDP			; GetToken
_TEXT	ENDS
PUBLIC	?ProcState_ENDCYCLE@CKanturuBattleOfMaya@@QAEXXZ ; CKanturuBattleOfMaya::ProcState_ENDCYCLE
PUBLIC	?ProcState_END@CKanturuBattleOfMaya@@QAEXXZ	; CKanturuBattleOfMaya::ProcState_END
PUBLIC	?ProcState_ENDCYCLE_MAYA3@CKanturuBattleOfMaya@@QAEXXZ ; CKanturuBattleOfMaya::ProcState_ENDCYCLE_MAYA3
PUBLIC	?ProcState_END_MAYA3@CKanturuBattleOfMaya@@QAEXXZ ; CKanturuBattleOfMaya::ProcState_END_MAYA3
PUBLIC	?ProcState_MAYA3@CKanturuBattleOfMaya@@QAEXXZ	; CKanturuBattleOfMaya::ProcState_MAYA3
PUBLIC	?ProcState_START3@CKanturuBattleOfMaya@@QAEXXZ	; CKanturuBattleOfMaya::ProcState_START3
PUBLIC	?ProcState_STANBY3@CKanturuBattleOfMaya@@QAEXXZ	; CKanturuBattleOfMaya::ProcState_STANBY3
PUBLIC	?ProcState_ENDCYCLE_MAYA2@CKanturuBattleOfMaya@@QAEXXZ ; CKanturuBattleOfMaya::ProcState_ENDCYCLE_MAYA2
PUBLIC	?ProcState_END_MAYA2@CKanturuBattleOfMaya@@QAEXXZ ; CKanturuBattleOfMaya::ProcState_END_MAYA2
PUBLIC	?ProcState_MAYA2@CKanturuBattleOfMaya@@QAEXXZ	; CKanturuBattleOfMaya::ProcState_MAYA2
PUBLIC	?ProcState_START2@CKanturuBattleOfMaya@@QAEXXZ	; CKanturuBattleOfMaya::ProcState_START2
PUBLIC	?ProcState_STANBY2@CKanturuBattleOfMaya@@QAEXXZ	; CKanturuBattleOfMaya::ProcState_STANBY2
PUBLIC	?ProcState_ENDCYCLE_MAYA1@CKanturuBattleOfMaya@@QAEXXZ ; CKanturuBattleOfMaya::ProcState_ENDCYCLE_MAYA1
PUBLIC	?ProcState_END_MAYA1@CKanturuBattleOfMaya@@QAEXXZ ; CKanturuBattleOfMaya::ProcState_END_MAYA1
PUBLIC	?ProcState_MAYA1@CKanturuBattleOfMaya@@QAEXXZ	; CKanturuBattleOfMaya::ProcState_MAYA1
PUBLIC	?ProcState_START1@CKanturuBattleOfMaya@@QAEXXZ	; CKanturuBattleOfMaya::ProcState_START1
PUBLIC	?ProcState_NOTIFY1@CKanturuBattleOfMaya@@QAEXXZ	; CKanturuBattleOfMaya::ProcState_NOTIFY1
PUBLIC	?ProcState_STANBY1@CKanturuBattleOfMaya@@QAEXXZ	; CKanturuBattleOfMaya::ProcState_STANBY1
PUBLIC	?ProcState_NONE@CKanturuBattleOfMaya@@QAEXXZ	; CKanturuBattleOfMaya::ProcState_NONE
PUBLIC	?CheckMayaBattleUser@CKanturuBattleOfMaya@@QAEXXZ ; CKanturuBattleOfMaya::CheckMayaBattleUser
PUBLIC	?CheckStateTime@CKanturuBattleOfMaya@@QAEHXZ	; CKanturuBattleOfMaya::CheckStateTime
PUBLIC	?Run@CKanturuBattleOfMaya@@QAEXXZ		; CKanturuBattleOfMaya::Run
EXTRN	?CheckUserState@CKanturuBattleUserMng@@QAEXXZ:PROC ; CKanturuBattleUserMng::CheckUserState
EXTRN	?g_KanturuBattleUserMng@@3VCKanturuBattleUserMng@@A:BYTE ; g_KanturuBattleUserMng
; Function compile flags: /Odtp /ZI
; File d:\projects\exteam6.3\source\gameserver\gameserver\kanturubattleofmaya.cpp
_TEXT	SEGMENT
tv68 = -72						; size = 4
_this$ = -4						; size = 4
?Run@CKanturuBattleOfMaya@@QAEXXZ PROC			; CKanturuBattleOfMaya::Run
; _this$ = ecx

; 312  : {

  00ca0	55		 push	 ebp
  00ca1	8b ec		 mov	 ebp, esp
  00ca3	83 ec 48	 sub	 esp, 72			; 00000048H
  00ca6	53		 push	 ebx
  00ca7	56		 push	 esi
  00ca8	57		 push	 edi
  00ca9	89 4d fc	 mov	 DWORD PTR _this$[ebp], ecx

; 313  : 	this->CheckStateTime();

  00cac	8b 4d fc	 mov	 ecx, DWORD PTR _this$[ebp]
  00caf	e8 00 00 00 00	 call	 ?CheckStateTime@CKanturuBattleOfMaya@@QAEHXZ ; CKanturuBattleOfMaya::CheckStateTime

; 314  : 	this->CheckMayaBattleUser();

  00cb4	8b 4d fc	 mov	 ecx, DWORD PTR _this$[ebp]
  00cb7	e8 00 00 00 00	 call	 ?CheckMayaBattleUser@CKanturuBattleOfMaya@@QAEXXZ ; CKanturuBattleOfMaya::CheckMayaBattleUser

; 315  : 	g_KanturuBattleUserMng.CheckUserState();

  00cbc	b9 00 00 00 00	 mov	 ecx, OFFSET ?g_KanturuBattleUserMng@@3VCKanturuBattleUserMng@@A ; g_KanturuBattleUserMng
  00cc1	e8 00 00 00 00	 call	 ?CheckUserState@CKanturuBattleUserMng@@QAEXXZ ; CKanturuBattleUserMng::CheckUserState

; 316  : 
; 317  : 	switch ( this->m_iBattleOfMayaState )

  00cc6	8b 45 fc	 mov	 eax, DWORD PTR _this$[ebp]
  00cc9	8b 48 08	 mov	 ecx, DWORD PTR [eax+8]
  00ccc	89 4d b8	 mov	 DWORD PTR tv68[ebp], ecx
  00ccf	83 7d b8 12	 cmp	 DWORD PTR tv68[ebp], 18	; 00000012H
  00cd3	0f 87 d8 00 00
	00		 ja	 $LN22@Run
  00cd9	8b 55 b8	 mov	 edx, DWORD PTR tv68[ebp]
  00cdc	ff 24 95 00 00
	00 00		 jmp	 DWORD PTR $LN24@Run[edx*4]
$LN19@Run:

; 318  : 	{
; 319  : 		case KANTURU_MAYA_NONE:
; 320  : 			this->ProcState_NONE();

  00ce3	8b 4d fc	 mov	 ecx, DWORD PTR _this$[ebp]
  00ce6	e8 00 00 00 00	 call	 ?ProcState_NONE@CKanturuBattleOfMaya@@QAEXXZ ; CKanturuBattleOfMaya::ProcState_NONE

; 321  : 			break;

  00ceb	e9 c1 00 00 00	 jmp	 $LN22@Run
$LN18@Run:

; 322  : 		case KANTURU_MAYA_STANBY1:
; 323  : 			this->ProcState_STANBY1();

  00cf0	8b 4d fc	 mov	 ecx, DWORD PTR _this$[ebp]
  00cf3	e8 00 00 00 00	 call	 ?ProcState_STANBY1@CKanturuBattleOfMaya@@QAEXXZ ; CKanturuBattleOfMaya::ProcState_STANBY1

; 324  : 			break;

  00cf8	e9 b4 00 00 00	 jmp	 $LN22@Run
$LN17@Run:

; 325  : 		case KANTURU_MAYA_NOTIFY1:
; 326  : 			this->ProcState_NOTIFY1();

  00cfd	8b 4d fc	 mov	 ecx, DWORD PTR _this$[ebp]
  00d00	e8 00 00 00 00	 call	 ?ProcState_NOTIFY1@CKanturuBattleOfMaya@@QAEXXZ ; CKanturuBattleOfMaya::ProcState_NOTIFY1

; 327  : 			break;

  00d05	e9 a7 00 00 00	 jmp	 $LN22@Run
$LN16@Run:

; 328  : 		case KANTURU_MAYA_START1:
; 329  : 			this->ProcState_START1();

  00d0a	8b 4d fc	 mov	 ecx, DWORD PTR _this$[ebp]
  00d0d	e8 00 00 00 00	 call	 ?ProcState_START1@CKanturuBattleOfMaya@@QAEXXZ ; CKanturuBattleOfMaya::ProcState_START1

; 330  : 			break;

  00d12	e9 9a 00 00 00	 jmp	 $LN22@Run
$LN15@Run:

; 331  : 		case KANTURU_MAYA1:
; 332  : 			this->ProcState_MAYA1();

  00d17	8b 4d fc	 mov	 ecx, DWORD PTR _this$[ebp]
  00d1a	e8 00 00 00 00	 call	 ?ProcState_MAYA1@CKanturuBattleOfMaya@@QAEXXZ ; CKanturuBattleOfMaya::ProcState_MAYA1

; 333  : 			break;

  00d1f	e9 8d 00 00 00	 jmp	 $LN22@Run
$LN14@Run:

; 334  : 		case KANTURU_MAYA_END1:
; 335  : 			this->ProcState_END_MAYA1();

  00d24	8b 4d fc	 mov	 ecx, DWORD PTR _this$[ebp]
  00d27	e8 00 00 00 00	 call	 ?ProcState_END_MAYA1@CKanturuBattleOfMaya@@QAEXXZ ; CKanturuBattleOfMaya::ProcState_END_MAYA1

; 336  : 			break;

  00d2c	e9 80 00 00 00	 jmp	 $LN22@Run
$LN13@Run:

; 337  : 		case KANTURU_MAYA_ENDCYCLE1:
; 338  : 			this->ProcState_ENDCYCLE_MAYA1();

  00d31	8b 4d fc	 mov	 ecx, DWORD PTR _this$[ebp]
  00d34	e8 00 00 00 00	 call	 ?ProcState_ENDCYCLE_MAYA1@CKanturuBattleOfMaya@@QAEXXZ ; CKanturuBattleOfMaya::ProcState_ENDCYCLE_MAYA1

; 339  : 			break;

  00d39	eb 76		 jmp	 SHORT $LN22@Run
$LN12@Run:

; 340  : 		case KANTURU_MAYA_STANBY2:
; 341  : 			this->ProcState_STANBY2();

  00d3b	8b 4d fc	 mov	 ecx, DWORD PTR _this$[ebp]
  00d3e	e8 00 00 00 00	 call	 ?ProcState_STANBY2@CKanturuBattleOfMaya@@QAEXXZ ; CKanturuBattleOfMaya::ProcState_STANBY2

; 342  : 			break;

  00d43	eb 6c		 jmp	 SHORT $LN22@Run
$LN11@Run:

; 343  : 		case KANTURU_MAYA_START2:
; 344  : 			this->ProcState_START2();

  00d45	8b 4d fc	 mov	 ecx, DWORD PTR _this$[ebp]
  00d48	e8 00 00 00 00	 call	 ?ProcState_START2@CKanturuBattleOfMaya@@QAEXXZ ; CKanturuBattleOfMaya::ProcState_START2

; 345  : 			break;

  00d4d	eb 62		 jmp	 SHORT $LN22@Run
$LN10@Run:

; 346  : 		case KANTURU_MAYA2:
; 347  : 			this->ProcState_MAYA2();

  00d4f	8b 4d fc	 mov	 ecx, DWORD PTR _this$[ebp]
  00d52	e8 00 00 00 00	 call	 ?ProcState_MAYA2@CKanturuBattleOfMaya@@QAEXXZ ; CKanturuBattleOfMaya::ProcState_MAYA2

; 348  : 			break;

  00d57	eb 58		 jmp	 SHORT $LN22@Run
$LN9@Run:

; 349  : 		case KANTURU_MAYA_END2:
; 350  : 			this->ProcState_END_MAYA2();

  00d59	8b 4d fc	 mov	 ecx, DWORD PTR _this$[ebp]
  00d5c	e8 00 00 00 00	 call	 ?ProcState_END_MAYA2@CKanturuBattleOfMaya@@QAEXXZ ; CKanturuBattleOfMaya::ProcState_END_MAYA2

; 351  : 			break;

  00d61	eb 4e		 jmp	 SHORT $LN22@Run
$LN8@Run:

; 352  : 		case KANTURU_MAYA_ENDCYCLE2:
; 353  : 			this->ProcState_ENDCYCLE_MAYA2();

  00d63	8b 4d fc	 mov	 ecx, DWORD PTR _this$[ebp]
  00d66	e8 00 00 00 00	 call	 ?ProcState_ENDCYCLE_MAYA2@CKanturuBattleOfMaya@@QAEXXZ ; CKanturuBattleOfMaya::ProcState_ENDCYCLE_MAYA2

; 354  : 			break;

  00d6b	eb 44		 jmp	 SHORT $LN22@Run
$LN7@Run:

; 355  : 		case KANTURU_MAYA_STANBY3:
; 356  : 			this->ProcState_STANBY3();

  00d6d	8b 4d fc	 mov	 ecx, DWORD PTR _this$[ebp]
  00d70	e8 00 00 00 00	 call	 ?ProcState_STANBY3@CKanturuBattleOfMaya@@QAEXXZ ; CKanturuBattleOfMaya::ProcState_STANBY3

; 357  : 			break;

  00d75	eb 3a		 jmp	 SHORT $LN22@Run
$LN6@Run:

; 358  : 		case KANTURU_MAYA_START3:
; 359  : 			this->ProcState_START3();

  00d77	8b 4d fc	 mov	 ecx, DWORD PTR _this$[ebp]
  00d7a	e8 00 00 00 00	 call	 ?ProcState_START3@CKanturuBattleOfMaya@@QAEXXZ ; CKanturuBattleOfMaya::ProcState_START3

; 360  : 			break;

  00d7f	eb 30		 jmp	 SHORT $LN22@Run
$LN5@Run:

; 361  : 		case KANTURU_MAYA3:
; 362  : 			this->ProcState_MAYA3();

  00d81	8b 4d fc	 mov	 ecx, DWORD PTR _this$[ebp]
  00d84	e8 00 00 00 00	 call	 ?ProcState_MAYA3@CKanturuBattleOfMaya@@QAEXXZ ; CKanturuBattleOfMaya::ProcState_MAYA3

; 363  : 			break;

  00d89	eb 26		 jmp	 SHORT $LN22@Run
$LN4@Run:

; 364  : 		case KANTURU_MAYA_END3:
; 365  : 			this->ProcState_END_MAYA3();

  00d8b	8b 4d fc	 mov	 ecx, DWORD PTR _this$[ebp]
  00d8e	e8 00 00 00 00	 call	 ?ProcState_END_MAYA3@CKanturuBattleOfMaya@@QAEXXZ ; CKanturuBattleOfMaya::ProcState_END_MAYA3

; 366  : 			break;

  00d93	eb 1c		 jmp	 SHORT $LN22@Run
$LN3@Run:

; 367  : 		case KANTURU_MAYA_ENDCYCLE3:
; 368  : 			this->ProcState_ENDCYCLE_MAYA3();

  00d95	8b 4d fc	 mov	 ecx, DWORD PTR _this$[ebp]
  00d98	e8 00 00 00 00	 call	 ?ProcState_ENDCYCLE_MAYA3@CKanturuBattleOfMaya@@QAEXXZ ; CKanturuBattleOfMaya::ProcState_ENDCYCLE_MAYA3

; 369  : 			break;

  00d9d	eb 12		 jmp	 SHORT $LN22@Run
$LN2@Run:

; 370  : 		case KANTURU_MAYA_END:
; 371  : 			this->ProcState_END();

  00d9f	8b 4d fc	 mov	 ecx, DWORD PTR _this$[ebp]
  00da2	e8 00 00 00 00	 call	 ?ProcState_END@CKanturuBattleOfMaya@@QAEXXZ ; CKanturuBattleOfMaya::ProcState_END

; 372  : 			break;

  00da7	eb 08		 jmp	 SHORT $LN22@Run
$LN1@Run:

; 373  : 		case KANTURU_MAYA_ENDCYCLE:
; 374  : 			this->ProcState_ENDCYCLE();

  00da9	8b 4d fc	 mov	 ecx, DWORD PTR _this$[ebp]
  00dac	e8 00 00 00 00	 call	 ?ProcState_ENDCYCLE@CKanturuBattleOfMaya@@QAEXXZ ; CKanturuBattleOfMaya::ProcState_ENDCYCLE
$LN22@Run:

; 375  : 			break;
; 376  : 	}
; 377  : }

  00db1	5f		 pop	 edi
  00db2	5e		 pop	 esi
  00db3	5b		 pop	 ebx
  00db4	8b e5		 mov	 esp, ebp
  00db6	5d		 pop	 ebp
  00db7	c3		 ret	 0
$LN24@Run:
  00db8	00 00 00 00	 DD	 $LN19@Run
  00dbc	00 00 00 00	 DD	 $LN18@Run
  00dc0	00 00 00 00	 DD	 $LN17@Run
  00dc4	00 00 00 00	 DD	 $LN16@Run
  00dc8	00 00 00 00	 DD	 $LN15@Run
  00dcc	00 00 00 00	 DD	 $LN14@Run
  00dd0	00 00 00 00	 DD	 $LN13@Run
  00dd4	00 00 00 00	 DD	 $LN12@Run
  00dd8	00 00 00 00	 DD	 $LN11@Run
  00ddc	00 00 00 00	 DD	 $LN10@Run
  00de0	00 00 00 00	 DD	 $LN9@Run
  00de4	00 00 00 00	 DD	 $LN8@Run
  00de8	00 00 00 00	 DD	 $LN7@Run
  00dec	00 00 00 00	 DD	 $LN6@Run
  00df0	00 00 00 00	 DD	 $LN5@Run
  00df4	00 00 00 00	 DD	 $LN4@Run
  00df8	00 00 00 00	 DD	 $LN3@Run
  00dfc	00 00 00 00	 DD	 $LN2@Run
  00e00	00 00 00 00	 DD	 $LN1@Run
?Run@CKanturuBattleOfMaya@@QAEXXZ ENDP			; CKanturuBattleOfMaya::Run
_TEXT	ENDS
PUBLIC	?SetState_ENDCYCLE@CKanturuBattleOfMaya@@QAEXXZ	; CKanturuBattleOfMaya::SetState_ENDCYCLE
PUBLIC	?SetState_END@CKanturuBattleOfMaya@@QAEXXZ	; CKanturuBattleOfMaya::SetState_END
PUBLIC	?SetState_ENDCYCLE_MAYA3@CKanturuBattleOfMaya@@QAEXXZ ; CKanturuBattleOfMaya::SetState_ENDCYCLE_MAYA3
PUBLIC	?SetState_END_MAYA3@CKanturuBattleOfMaya@@QAEXXZ ; CKanturuBattleOfMaya::SetState_END_MAYA3
PUBLIC	?SetState_MAYA3@CKanturuBattleOfMaya@@QAEXXZ	; CKanturuBattleOfMaya::SetState_MAYA3
PUBLIC	?SetState_START3@CKanturuBattleOfMaya@@QAEXXZ	; CKanturuBattleOfMaya::SetState_START3
PUBLIC	?SetState_STANBY3@CKanturuBattleOfMaya@@QAEXXZ	; CKanturuBattleOfMaya::SetState_STANBY3
PUBLIC	?SetState_ENDCYCLE_MAYA2@CKanturuBattleOfMaya@@QAEXXZ ; CKanturuBattleOfMaya::SetState_ENDCYCLE_MAYA2
PUBLIC	?SetState_END_MAYA2@CKanturuBattleOfMaya@@QAEXXZ ; CKanturuBattleOfMaya::SetState_END_MAYA2
PUBLIC	?SetState_MAYA2@CKanturuBattleOfMaya@@QAEXXZ	; CKanturuBattleOfMaya::SetState_MAYA2
PUBLIC	?SetState_START2@CKanturuBattleOfMaya@@QAEXXZ	; CKanturuBattleOfMaya::SetState_START2
PUBLIC	?SetState_STANBY2@CKanturuBattleOfMaya@@QAEXXZ	; CKanturuBattleOfMaya::SetState_STANBY2
PUBLIC	?SetState_ENDCYCLE_MAYA1@CKanturuBattleOfMaya@@QAEXXZ ; CKanturuBattleOfMaya::SetState_ENDCYCLE_MAYA1
PUBLIC	?SetState_END_MAYA1@CKanturuBattleOfMaya@@QAEXXZ ; CKanturuBattleOfMaya::SetState_END_MAYA1
PUBLIC	?SetState_MAYA1@CKanturuBattleOfMaya@@QAEXXZ	; CKanturuBattleOfMaya::SetState_MAYA1
PUBLIC	?SetState_START1@CKanturuBattleOfMaya@@QAEXXZ	; CKanturuBattleOfMaya::SetState_START1
PUBLIC	?SetState_NOTIFY1@CKanturuBattleOfMaya@@QAEXXZ	; CKanturuBattleOfMaya::SetState_NOTIFY1
PUBLIC	?SetState_STANBY1@CKanturuBattleOfMaya@@QAEXXZ	; CKanturuBattleOfMaya::SetState_STANBY1
PUBLIC	?SetState_NONE@CKanturuBattleOfMaya@@QAEXXZ	; CKanturuBattleOfMaya::SetState_NONE
PUBLIC	?ResetAIMonster@CKanturuBattleOfMaya@@QAEXXZ	; CKanturuBattleOfMaya::ResetAIMonster
PUBLIC	?SetAppliedTime@CKanturuStateInfo@@QAEXXZ	; CKanturuStateInfo::SetAppliedTime
PUBLIC	?GetCondition@CKanturuStateInfo@@QAEHXZ		; CKanturuStateInfo::GetCondition
PUBLIC	?SetState@CKanturuBattleOfMaya@@QAEXH@Z		; CKanturuBattleOfMaya::SetState
EXTRN	?NotifyKanturuChangeState@CKanturuUtil@@QAEXHH@Z:PROC ; CKanturuUtil::NotifyKanturuChangeState
EXTRN	?Init@CKanturuMaya@@QAEXXZ:PROC			; CKanturuMaya::Init
EXTRN	?ResetRegenMonsterObjData@CKanturuMonsterMng@@QAEXXZ:PROC ; CKanturuMonsterMng::ResetRegenMonsterObjData
EXTRN	?g_KanturuMonsterMng@@3VCKanturuMonsterMng@@A:BYTE ; g_KanturuMonsterMng
; Function compile flags: /Odtp /ZI
_TEXT	SEGMENT
tv78 = -72						; size = 4
_this$ = -4						; size = 4
_iBattleOfMayaState$ = 8				; size = 4
?SetState@CKanturuBattleOfMaya@@QAEXH@Z PROC		; CKanturuBattleOfMaya::SetState
; _this$ = ecx

; 382  : {

  00e10	55		 push	 ebp
  00e11	8b ec		 mov	 ebp, esp
  00e13	83 ec 48	 sub	 esp, 72			; 00000048H
  00e16	53		 push	 ebx
  00e17	56		 push	 esi
  00e18	57		 push	 edi
  00e19	89 4d fc	 mov	 DWORD PTR _this$[ebp], ecx

; 383  : 	if ( this->m_StateInfo[iBattleOfMayaState].GetCondition() > 0 )

  00e1c	8b 45 08	 mov	 eax, DWORD PTR _iBattleOfMayaState$[ebp]
  00e1f	6b c0 14	 imul	 eax, 20			; 00000014H
  00e22	8b 4d fc	 mov	 ecx, DWORD PTR _this$[ebp]
  00e25	8d 4c 01 50	 lea	 ecx, DWORD PTR [ecx+eax+80]
  00e29	e8 00 00 00 00	 call	 ?GetCondition@CKanturuStateInfo@@QAEHXZ ; CKanturuStateInfo::GetCondition
  00e2e	85 c0		 test	 eax, eax
  00e30	7e 12		 jle	 SHORT $LN22@SetState

; 384  : 	{
; 385  : 		this->m_StateInfo[iBattleOfMayaState].SetAppliedTime();

  00e32	8b 45 08	 mov	 eax, DWORD PTR _iBattleOfMayaState$[ebp]
  00e35	6b c0 14	 imul	 eax, 20			; 00000014H
  00e38	8b 4d fc	 mov	 ecx, DWORD PTR _this$[ebp]
  00e3b	8d 4c 01 50	 lea	 ecx, DWORD PTR [ecx+eax+80]
  00e3f	e8 00 00 00 00	 call	 ?SetAppliedTime@CKanturuStateInfo@@QAEXXZ ; CKanturuStateInfo::SetAppliedTime
$LN22@SetState:

; 386  : 	}
; 387  : 
; 388  : 	g_KanturuMonsterMng.ResetRegenMonsterObjData();

  00e44	b9 00 00 00 00	 mov	 ecx, OFFSET ?g_KanturuMonsterMng@@3VCKanturuMonsterMng@@A ; g_KanturuMonsterMng
  00e49	e8 00 00 00 00	 call	 ?ResetRegenMonsterObjData@CKanturuMonsterMng@@QAEXXZ ; CKanturuMonsterMng::ResetRegenMonsterObjData

; 389  : 	this->m_KanturuMaya.Init();

  00e4e	8b 4d fc	 mov	 ecx, DWORD PTR _this$[ebp]
  00e51	81 c1 dc 01 00
	00		 add	 ecx, 476		; 000001dcH
  00e57	e8 00 00 00 00	 call	 ?Init@CKanturuMaya@@QAEXXZ ; CKanturuMaya::Init

; 390  : 	this->ResetAIMonster();

  00e5c	8b 4d fc	 mov	 ecx, DWORD PTR _this$[ebp]
  00e5f	e8 00 00 00 00	 call	 ?ResetAIMonster@CKanturuBattleOfMaya@@QAEXXZ ; CKanturuBattleOfMaya::ResetAIMonster

; 391  : 
; 392  : 	switch ( iBattleOfMayaState )

  00e64	8b 45 08	 mov	 eax, DWORD PTR _iBattleOfMayaState$[ebp]
  00e67	89 45 b8	 mov	 DWORD PTR tv78[ebp], eax
  00e6a	83 7d b8 12	 cmp	 DWORD PTR tv78[ebp], 18	; 00000012H
  00e6e	0f 87 d8 00 00
	00		 ja	 $LN20@SetState
  00e74	8b 4d b8	 mov	 ecx, DWORD PTR tv78[ebp]
  00e77	ff 24 8d 00 00
	00 00		 jmp	 DWORD PTR $LN25@SetState[ecx*4]
$LN19@SetState:

; 393  : 	{
; 394  : 		case KANTURU_MAYA_NONE:
; 395  : 			this->SetState_NONE();

  00e7e	8b 4d fc	 mov	 ecx, DWORD PTR _this$[ebp]
  00e81	e8 00 00 00 00	 call	 ?SetState_NONE@CKanturuBattleOfMaya@@QAEXXZ ; CKanturuBattleOfMaya::SetState_NONE

; 396  : 			break;

  00e86	e9 c1 00 00 00	 jmp	 $LN20@SetState
$LN18@SetState:

; 397  : 		case KANTURU_MAYA_STANBY1:
; 398  : 			this->SetState_STANBY1();

  00e8b	8b 4d fc	 mov	 ecx, DWORD PTR _this$[ebp]
  00e8e	e8 00 00 00 00	 call	 ?SetState_STANBY1@CKanturuBattleOfMaya@@QAEXXZ ; CKanturuBattleOfMaya::SetState_STANBY1

; 399  : 			break;

  00e93	e9 b4 00 00 00	 jmp	 $LN20@SetState
$LN17@SetState:

; 400  : 		case KANTURU_MAYA_NOTIFY1:
; 401  : 			this->SetState_NOTIFY1();

  00e98	8b 4d fc	 mov	 ecx, DWORD PTR _this$[ebp]
  00e9b	e8 00 00 00 00	 call	 ?SetState_NOTIFY1@CKanturuBattleOfMaya@@QAEXXZ ; CKanturuBattleOfMaya::SetState_NOTIFY1

; 402  : 			break;

  00ea0	e9 a7 00 00 00	 jmp	 $LN20@SetState
$LN16@SetState:

; 403  : 		case KANTURU_MAYA_START1:
; 404  : 			this->SetState_START1();

  00ea5	8b 4d fc	 mov	 ecx, DWORD PTR _this$[ebp]
  00ea8	e8 00 00 00 00	 call	 ?SetState_START1@CKanturuBattleOfMaya@@QAEXXZ ; CKanturuBattleOfMaya::SetState_START1

; 405  : 			break;

  00ead	e9 9a 00 00 00	 jmp	 $LN20@SetState
$LN15@SetState:

; 406  : 		case KANTURU_MAYA1:
; 407  : 			this->SetState_MAYA1();

  00eb2	8b 4d fc	 mov	 ecx, DWORD PTR _this$[ebp]
  00eb5	e8 00 00 00 00	 call	 ?SetState_MAYA1@CKanturuBattleOfMaya@@QAEXXZ ; CKanturuBattleOfMaya::SetState_MAYA1

; 408  : 			break;

  00eba	e9 8d 00 00 00	 jmp	 $LN20@SetState
$LN14@SetState:

; 409  : 		case KANTURU_MAYA_END1:
; 410  : 			this->SetState_END_MAYA1();

  00ebf	8b 4d fc	 mov	 ecx, DWORD PTR _this$[ebp]
  00ec2	e8 00 00 00 00	 call	 ?SetState_END_MAYA1@CKanturuBattleOfMaya@@QAEXXZ ; CKanturuBattleOfMaya::SetState_END_MAYA1

; 411  : 			break;

  00ec7	e9 80 00 00 00	 jmp	 $LN20@SetState
$LN13@SetState:

; 412  : 		case KANTURU_MAYA_ENDCYCLE1:
; 413  : 			this->SetState_ENDCYCLE_MAYA1();

  00ecc	8b 4d fc	 mov	 ecx, DWORD PTR _this$[ebp]
  00ecf	e8 00 00 00 00	 call	 ?SetState_ENDCYCLE_MAYA1@CKanturuBattleOfMaya@@QAEXXZ ; CKanturuBattleOfMaya::SetState_ENDCYCLE_MAYA1

; 414  : 			break;

  00ed4	eb 76		 jmp	 SHORT $LN20@SetState
$LN12@SetState:

; 415  : 		case KANTURU_MAYA_STANBY2:
; 416  : 			this->SetState_STANBY2();

  00ed6	8b 4d fc	 mov	 ecx, DWORD PTR _this$[ebp]
  00ed9	e8 00 00 00 00	 call	 ?SetState_STANBY2@CKanturuBattleOfMaya@@QAEXXZ ; CKanturuBattleOfMaya::SetState_STANBY2

; 417  : 			break;

  00ede	eb 6c		 jmp	 SHORT $LN20@SetState
$LN11@SetState:

; 418  : 		case KANTURU_MAYA_START2:
; 419  : 			this->SetState_START2();

  00ee0	8b 4d fc	 mov	 ecx, DWORD PTR _this$[ebp]
  00ee3	e8 00 00 00 00	 call	 ?SetState_START2@CKanturuBattleOfMaya@@QAEXXZ ; CKanturuBattleOfMaya::SetState_START2

; 420  : 			break;

  00ee8	eb 62		 jmp	 SHORT $LN20@SetState
$LN10@SetState:

; 421  : 		case KANTURU_MAYA2:
; 422  : 			this->SetState_MAYA2();

  00eea	8b 4d fc	 mov	 ecx, DWORD PTR _this$[ebp]
  00eed	e8 00 00 00 00	 call	 ?SetState_MAYA2@CKanturuBattleOfMaya@@QAEXXZ ; CKanturuBattleOfMaya::SetState_MAYA2

; 423  : 			break;

  00ef2	eb 58		 jmp	 SHORT $LN20@SetState
$LN9@SetState:

; 424  : 		case KANTURU_MAYA_END2:
; 425  : 			this->SetState_END_MAYA2();

  00ef4	8b 4d fc	 mov	 ecx, DWORD PTR _this$[ebp]
  00ef7	e8 00 00 00 00	 call	 ?SetState_END_MAYA2@CKanturuBattleOfMaya@@QAEXXZ ; CKanturuBattleOfMaya::SetState_END_MAYA2

; 426  : 			break;

  00efc	eb 4e		 jmp	 SHORT $LN20@SetState
$LN8@SetState:

; 427  : 		case KANTURU_MAYA_ENDCYCLE2:
; 428  : 			this->SetState_ENDCYCLE_MAYA2();

  00efe	8b 4d fc	 mov	 ecx, DWORD PTR _this$[ebp]
  00f01	e8 00 00 00 00	 call	 ?SetState_ENDCYCLE_MAYA2@CKanturuBattleOfMaya@@QAEXXZ ; CKanturuBattleOfMaya::SetState_ENDCYCLE_MAYA2

; 429  : 			break;

  00f06	eb 44		 jmp	 SHORT $LN20@SetState
$LN7@SetState:

; 430  : 		case KANTURU_MAYA_STANBY3:
; 431  : 			this->SetState_STANBY3();

  00f08	8b 4d fc	 mov	 ecx, DWORD PTR _this$[ebp]
  00f0b	e8 00 00 00 00	 call	 ?SetState_STANBY3@CKanturuBattleOfMaya@@QAEXXZ ; CKanturuBattleOfMaya::SetState_STANBY3

; 432  : 			break;

  00f10	eb 3a		 jmp	 SHORT $LN20@SetState
$LN6@SetState:

; 433  : 		case KANTURU_MAYA_START3:
; 434  : 			this->SetState_START3();

  00f12	8b 4d fc	 mov	 ecx, DWORD PTR _this$[ebp]
  00f15	e8 00 00 00 00	 call	 ?SetState_START3@CKanturuBattleOfMaya@@QAEXXZ ; CKanturuBattleOfMaya::SetState_START3

; 435  : 			break;

  00f1a	eb 30		 jmp	 SHORT $LN20@SetState
$LN5@SetState:

; 436  : 		case KANTURU_MAYA3:
; 437  : 			this->SetState_MAYA3();

  00f1c	8b 4d fc	 mov	 ecx, DWORD PTR _this$[ebp]
  00f1f	e8 00 00 00 00	 call	 ?SetState_MAYA3@CKanturuBattleOfMaya@@QAEXXZ ; CKanturuBattleOfMaya::SetState_MAYA3

; 438  : 			break;

  00f24	eb 26		 jmp	 SHORT $LN20@SetState
$LN4@SetState:

; 439  : 		case KANTURU_MAYA_END3:
; 440  : 			this->SetState_END_MAYA3();

  00f26	8b 4d fc	 mov	 ecx, DWORD PTR _this$[ebp]
  00f29	e8 00 00 00 00	 call	 ?SetState_END_MAYA3@CKanturuBattleOfMaya@@QAEXXZ ; CKanturuBattleOfMaya::SetState_END_MAYA3

; 441  : 			break;

  00f2e	eb 1c		 jmp	 SHORT $LN20@SetState
$LN3@SetState:

; 442  : 		case KANTURU_MAYA_ENDCYCLE3:
; 443  : 			this->SetState_ENDCYCLE_MAYA3();

  00f30	8b 4d fc	 mov	 ecx, DWORD PTR _this$[ebp]
  00f33	e8 00 00 00 00	 call	 ?SetState_ENDCYCLE_MAYA3@CKanturuBattleOfMaya@@QAEXXZ ; CKanturuBattleOfMaya::SetState_ENDCYCLE_MAYA3

; 444  : 			break;

  00f38	eb 12		 jmp	 SHORT $LN20@SetState
$LN2@SetState:

; 445  : 		case KANTURU_MAYA_END:
; 446  : 			this->SetState_END();

  00f3a	8b 4d fc	 mov	 ecx, DWORD PTR _this$[ebp]
  00f3d	e8 00 00 00 00	 call	 ?SetState_END@CKanturuBattleOfMaya@@QAEXXZ ; CKanturuBattleOfMaya::SetState_END

; 447  : 			break;

  00f42	eb 08		 jmp	 SHORT $LN20@SetState
$LN1@SetState:

; 448  : 		case KANTURU_MAYA_ENDCYCLE:
; 449  : 			this->SetState_ENDCYCLE();

  00f44	8b 4d fc	 mov	 ecx, DWORD PTR _this$[ebp]
  00f47	e8 00 00 00 00	 call	 ?SetState_ENDCYCLE@CKanturuBattleOfMaya@@QAEXXZ ; CKanturuBattleOfMaya::SetState_ENDCYCLE
$LN20@SetState:

; 450  : 			break;
; 451  : 	}
; 452  : 
; 453  : 	KANTURU_UTIL.NotifyKanturuChangeState(KANTURU_STATE_BATTLE_OF_MAYA, this->m_iBattleOfMayaState);

  00f4c	8b 45 fc	 mov	 eax, DWORD PTR _this$[ebp]
  00f4f	8b 48 08	 mov	 ecx, DWORD PTR [eax+8]
  00f52	51		 push	 ecx
  00f53	6a 02		 push	 2
  00f55	b9 00 00 00 00	 mov	 ecx, OFFSET _KANTURU_UTIL
  00f5a	e8 00 00 00 00	 call	 ?NotifyKanturuChangeState@CKanturuUtil@@QAEXHH@Z ; CKanturuUtil::NotifyKanturuChangeState

; 454  : }

  00f5f	5f		 pop	 edi
  00f60	5e		 pop	 esi
  00f61	5b		 pop	 ebx
  00f62	8b e5		 mov	 esp, ebp
  00f64	5d		 pop	 ebp
  00f65	c2 04 00	 ret	 4
$LN25@SetState:
  00f68	00 00 00 00	 DD	 $LN19@SetState
  00f6c	00 00 00 00	 DD	 $LN18@SetState
  00f70	00 00 00 00	 DD	 $LN17@SetState
  00f74	00 00 00 00	 DD	 $LN16@SetState
  00f78	00 00 00 00	 DD	 $LN15@SetState
  00f7c	00 00 00 00	 DD	 $LN14@SetState
  00f80	00 00 00 00	 DD	 $LN13@SetState
  00f84	00 00 00 00	 DD	 $LN12@SetState
  00f88	00 00 00 00	 DD	 $LN11@SetState
  00f8c	00 00 00 00	 DD	 $LN10@SetState
  00f90	00 00 00 00	 DD	 $LN9@SetState
  00f94	00 00 00 00	 DD	 $LN8@SetState
  00f98	00 00 00 00	 DD	 $LN7@SetState
  00f9c	00 00 00 00	 DD	 $LN6@SetState
  00fa0	00 00 00 00	 DD	 $LN5@SetState
  00fa4	00 00 00 00	 DD	 $LN4@SetState
  00fa8	00 00 00 00	 DD	 $LN3@SetState
  00fac	00 00 00 00	 DD	 $LN2@SetState
  00fb0	00 00 00 00	 DD	 $LN1@SetState
?SetState@CKanturuBattleOfMaya@@QAEXH@Z ENDP		; CKanturuBattleOfMaya::SetState
; Function compile flags: /Odtp /ZI
; File d:\projects\exteam6.3\source\gameserver\gameserver\kanturustateinfo.h
_TEXT	ENDS
;	COMDAT ?GetCondition@CKanturuStateInfo@@QAEHXZ
_TEXT	SEGMENT
_this$ = -4						; size = 4
?GetCondition@CKanturuStateInfo@@QAEHXZ PROC		; CKanturuStateInfo::GetCondition, COMDAT
; _this$ = ecx

; 40   : 	{

  00000	55		 push	 ebp
  00001	8b ec		 mov	 ebp, esp
  00003	83 ec 44	 sub	 esp, 68			; 00000044H
  00006	53		 push	 ebx
  00007	56		 push	 esi
  00008	57		 push	 edi
  00009	89 4d fc	 mov	 DWORD PTR _this$[ebp], ecx

; 41   : 		return this->m_iCondition;

  0000c	8b 45 fc	 mov	 eax, DWORD PTR _this$[ebp]
  0000f	8b 40 08	 mov	 eax, DWORD PTR [eax+8]

; 42   : 	}

  00012	5f		 pop	 edi
  00013	5e		 pop	 esi
  00014	5b		 pop	 ebx
  00015	8b e5		 mov	 esp, ebp
  00017	5d		 pop	 ebp
  00018	c3		 ret	 0
?GetCondition@CKanturuStateInfo@@QAEHXZ ENDP		; CKanturuStateInfo::GetCondition
_TEXT	ENDS
EXTRN	__imp__GetTickCount@0:PROC
; Function compile flags: /Odtp /ZI
;	COMDAT ?SetAppliedTime@CKanturuStateInfo@@QAEXXZ
_TEXT	SEGMENT
_this$ = -4						; size = 4
?SetAppliedTime@CKanturuStateInfo@@QAEXXZ PROC		; CKanturuStateInfo::SetAppliedTime, COMDAT
; _this$ = ecx

; 54   : 	{

  00000	55		 push	 ebp
  00001	8b ec		 mov	 ebp, esp
  00003	83 ec 44	 sub	 esp, 68			; 00000044H
  00006	53		 push	 ebx
  00007	56		 push	 esi
  00008	57		 push	 edi
  00009	89 4d fc	 mov	 DWORD PTR _this$[ebp], ecx

; 55   : 		this->m_dwAppliedTickCount = GetTickCount();

  0000c	ff 15 00 00 00
	00		 call	 DWORD PTR __imp__GetTickCount@0
  00012	8b 4d fc	 mov	 ecx, DWORD PTR _this$[ebp]
  00015	89 41 10	 mov	 DWORD PTR [ecx+16], eax

; 56   : 	}

  00018	5f		 pop	 edi
  00019	5e		 pop	 esi
  0001a	5b		 pop	 ebx
  0001b	8b e5		 mov	 esp, ebp
  0001d	5d		 pop	 ebp
  0001e	c3		 ret	 0
?SetAppliedTime@CKanturuStateInfo@@QAEXXZ ENDP		; CKanturuStateInfo::SetAppliedTime
_TEXT	ENDS
PUBLIC	?SetNextState@CKanturuBattleOfMaya@@QAEXH@Z	; CKanturuBattleOfMaya::SetNextState
; Function compile flags: /Odtp /ZI
; File d:\projects\exteam6.3\source\gameserver\gameserver\kanturubattleofmaya.cpp
_TEXT	SEGMENT
_iNextState$ = -8					; size = 4
_this$ = -4						; size = 4
_iCurrentState$ = 8					; size = 4
?SetNextState@CKanturuBattleOfMaya@@QAEXH@Z PROC	; CKanturuBattleOfMaya::SetNextState
; _this$ = ecx

; 458  : {

  00fc0	55		 push	 ebp
  00fc1	8b ec		 mov	 ebp, esp
  00fc3	83 ec 48	 sub	 esp, 72			; 00000048H
  00fc6	53		 push	 ebx
  00fc7	56		 push	 esi
  00fc8	57		 push	 edi
  00fc9	89 4d fc	 mov	 DWORD PTR _this$[ebp], ecx

; 459  : 	int iNextState = iCurrentState + 1;

  00fcc	8b 45 08	 mov	 eax, DWORD PTR _iCurrentState$[ebp]
  00fcf	83 c0 01	 add	 eax, 1
  00fd2	89 45 f8	 mov	 DWORD PTR _iNextState$[ebp], eax

; 460  : 
; 461  : 	if ( iNextState >= KANTURU_MAYA_STATE_INFO )

  00fd5	83 7d f8 13	 cmp	 DWORD PTR _iNextState$[ebp], 19 ; 00000013H
  00fd9	7c 07		 jl	 SHORT $LN1@SetNextSta

; 462  : 	{
; 463  : 		iNextState = KANTURU_MAYA_NONE;

  00fdb	c7 45 f8 00 00
	00 00		 mov	 DWORD PTR _iNextState$[ebp], 0
$LN1@SetNextSta:

; 464  : 	}
; 465  : 
; 466  : 	this->SetState(iNextState);

  00fe2	8b 45 f8	 mov	 eax, DWORD PTR _iNextState$[ebp]
  00fe5	50		 push	 eax
  00fe6	8b 4d fc	 mov	 ecx, DWORD PTR _this$[ebp]
  00fe9	e8 00 00 00 00	 call	 ?SetState@CKanturuBattleOfMaya@@QAEXH@Z ; CKanturuBattleOfMaya::SetState

; 467  : }

  00fee	5f		 pop	 edi
  00fef	5e		 pop	 esi
  00ff0	5b		 pop	 ebx
  00ff1	8b e5		 mov	 esp, ebp
  00ff3	5d		 pop	 ebp
  00ff4	c2 04 00	 ret	 4
?SetNextState@CKanturuBattleOfMaya@@QAEXH@Z ENDP	; CKanturuBattleOfMaya::SetNextState
_TEXT	ENDS
PUBLIC	??_C@_0CO@JFJFDMKA@?$FL?5KANTURU?5?$FN?$FL?5BattleOfMaya?5?$FN?5Stat@ ; `string'
;	COMDAT ??_C@_0CO@JFJFDMKA@?$FL?5KANTURU?5?$FN?$FL?5BattleOfMaya?5?$FN?5Stat@
CONST	SEGMENT
??_C@_0CO@JFJFDMKA@?$FL?5KANTURU?5?$FN?$FL?5BattleOfMaya?5?$FN?5Stat@ DB '['
	DB	' KANTURU ][ BattleOfMaya ] State(%d) -> NONE', 00H ; `string'
; Function compile flags: /Odtp /ZI
CONST	ENDS
_TEXT	SEGMENT
_this$ = -4						; size = 4
?SetState_NONE@CKanturuBattleOfMaya@@QAEXXZ PROC	; CKanturuBattleOfMaya::SetState_NONE
; _this$ = ecx

; 471  : {

  01000	55		 push	 ebp
  01001	8b ec		 mov	 ebp, esp
  01003	83 ec 44	 sub	 esp, 68			; 00000044H
  01006	53		 push	 ebx
  01007	56		 push	 esi
  01008	57		 push	 edi
  01009	89 4d fc	 mov	 DWORD PTR _this$[ebp], ecx

; 472  : 	LogAddC(5, "[ KANTURU ][ BattleOfMaya ] State(%d) -> NONE",
; 473  : 		this->m_iBattleOfMayaState);

  0100c	8b 45 fc	 mov	 eax, DWORD PTR _this$[ebp]
  0100f	8b 48 08	 mov	 ecx, DWORD PTR [eax+8]
  01012	51		 push	 ecx
  01013	68 00 00 00 00	 push	 OFFSET ??_C@_0CO@JFJFDMKA@?$FL?5KANTURU?5?$FN?$FL?5BattleOfMaya?5?$FN?5Stat@
  01018	6a 05		 push	 5
  0101a	ff 15 00 00 00
	00		 call	 DWORD PTR ?LogAddC@@3P6AXEPADZZA ; LogAddC
  01020	83 c4 0c	 add	 esp, 12			; 0000000cH

; 474  : 
; 475  : 	this->SetBattleOfMayaState(KANTURU_MAYA_NONE);

  01023	6a 00		 push	 0
  01025	8b 4d fc	 mov	 ecx, DWORD PTR _this$[ebp]
  01028	e8 00 00 00 00	 call	 ?SetBattleOfMayaState@CKanturuBattleOfMaya@@QAEXH@Z ; CKanturuBattleOfMaya::SetBattleOfMayaState

; 476  : 	this->SetEntrancePermit(FALSE);

  0102d	6a 00		 push	 0
  0102f	8b 4d fc	 mov	 ecx, DWORD PTR _this$[ebp]
  01032	e8 00 00 00 00	 call	 ?SetEntrancePermit@CKanturuBattleOfMaya@@QAEXH@Z ; CKanturuBattleOfMaya::SetEntrancePermit

; 477  : }

  01037	5f		 pop	 edi
  01038	5e		 pop	 esi
  01039	5b		 pop	 ebx
  0103a	8b e5		 mov	 esp, ebp
  0103c	5d		 pop	 ebp
  0103d	c3		 ret	 0
?SetState_NONE@CKanturuBattleOfMaya@@QAEXXZ ENDP	; CKanturuBattleOfMaya::SetState_NONE
_TEXT	ENDS
PUBLIC	??_C@_0DB@LKCCKOPA@?$FL?5KANTURU?5?$FN?$FL?5BattleOfMaya?5?$FN?5Stat@ ; `string'
EXTRN	?ResetAllData@CKanturuBattleUserMng@@QAEXXZ:PROC ; CKanturuBattleUserMng::ResetAllData
;	COMDAT ??_C@_0DB@LKCCKOPA@?$FL?5KANTURU?5?$FN?$FL?5BattleOfMaya?5?$FN?5Stat@
CONST	SEGMENT
??_C@_0DB@LKCCKOPA@?$FL?5KANTURU?5?$FN?$FL?5BattleOfMaya?5?$FN?5Stat@ DB '['
	DB	' KANTURU ][ BattleOfMaya ] State(%d) -> STANBY1', 00H ; `string'
; Function compile flags: /Odtp /ZI
CONST	ENDS
_TEXT	SEGMENT
_this$ = -4						; size = 4
?SetState_STANBY1@CKanturuBattleOfMaya@@QAEXXZ PROC	; CKanturuBattleOfMaya::SetState_STANBY1
; _this$ = ecx

; 481  : {

  01040	55		 push	 ebp
  01041	8b ec		 mov	 ebp, esp
  01043	83 ec 44	 sub	 esp, 68			; 00000044H
  01046	53		 push	 ebx
  01047	56		 push	 esi
  01048	57		 push	 edi
  01049	89 4d fc	 mov	 DWORD PTR _this$[ebp], ecx

; 482  : 	LogAddC(5, "[ KANTURU ][ BattleOfMaya ] State(%d) -> STANBY1",
; 483  : 		this->m_iBattleOfMayaState);

  0104c	8b 45 fc	 mov	 eax, DWORD PTR _this$[ebp]
  0104f	8b 48 08	 mov	 ecx, DWORD PTR [eax+8]
  01052	51		 push	 ecx
  01053	68 00 00 00 00	 push	 OFFSET ??_C@_0DB@LKCCKOPA@?$FL?5KANTURU?5?$FN?$FL?5BattleOfMaya?5?$FN?5Stat@
  01058	6a 05		 push	 5
  0105a	ff 15 00 00 00
	00		 call	 DWORD PTR ?LogAddC@@3P6AXEPADZZA ; LogAddC
  01060	83 c4 0c	 add	 esp, 12			; 0000000cH

; 484  : 	LogAddTD("[ KANTURU ][ BattleOfMaya ] State(%d) -> STANBY1",
; 485  : 		this->m_iBattleOfMayaState);

  01063	8b 45 fc	 mov	 eax, DWORD PTR _this$[ebp]
  01066	8b 48 08	 mov	 ecx, DWORD PTR [eax+8]
  01069	51		 push	 ecx
  0106a	68 00 00 00 00	 push	 OFFSET ??_C@_0DB@LKCCKOPA@?$FL?5KANTURU?5?$FN?$FL?5BattleOfMaya?5?$FN?5Stat@
  0106f	ff 15 00 00 00
	00		 call	 DWORD PTR ?LogAddTD@@3P6AXPADZZA ; LogAddTD
  01075	83 c4 08	 add	 esp, 8

; 486  : 
; 487  : 	this->SetBattleOfMayaState(KANTURU_MAYA_STANBY1);

  01078	6a 01		 push	 1
  0107a	8b 4d fc	 mov	 ecx, DWORD PTR _this$[ebp]
  0107d	e8 00 00 00 00	 call	 ?SetBattleOfMayaState@CKanturuBattleOfMaya@@QAEXH@Z ; CKanturuBattleOfMaya::SetBattleOfMayaState

; 488  : 	g_KanturuBattleUserMng.ResetAllData();

  01082	b9 00 00 00 00	 mov	 ecx, OFFSET ?g_KanturuBattleUserMng@@3VCKanturuBattleUserMng@@A ; g_KanturuBattleUserMng
  01087	e8 00 00 00 00	 call	 ?ResetAllData@CKanturuBattleUserMng@@QAEXXZ ; CKanturuBattleUserMng::ResetAllData

; 489  : 	this->SetEntrancePermit(TRUE);

  0108c	6a 01		 push	 1
  0108e	8b 4d fc	 mov	 ecx, DWORD PTR _this$[ebp]
  01091	e8 00 00 00 00	 call	 ?SetEntrancePermit@CKanturuBattleOfMaya@@QAEXH@Z ; CKanturuBattleOfMaya::SetEntrancePermit

; 490  : }

  01096	5f		 pop	 edi
  01097	5e		 pop	 esi
  01098	5b		 pop	 ebx
  01099	8b e5		 mov	 esp, ebp
  0109b	5d		 pop	 ebp
  0109c	c3		 ret	 0
?SetState_STANBY1@CKanturuBattleOfMaya@@QAEXXZ ENDP	; CKanturuBattleOfMaya::SetState_STANBY1
_TEXT	ENDS
PUBLIC	??_C@_0DB@FGBMJKFB@?$FL?5KANTURU?5?$FN?$FL?5BattleOfMaya?5?$FN?5Stat@ ; `string'
;	COMDAT ??_C@_0DB@FGBMJKFB@?$FL?5KANTURU?5?$FN?$FL?5BattleOfMaya?5?$FN?5Stat@
CONST	SEGMENT
??_C@_0DB@FGBMJKFB@?$FL?5KANTURU?5?$FN?$FL?5BattleOfMaya?5?$FN?5Stat@ DB '['
	DB	' KANTURU ][ BattleOfMaya ] State(%d) -> NOTIFY1', 00H ; `string'
; Function compile flags: /Odtp /ZI
CONST	ENDS
_TEXT	SEGMENT
_this$ = -4						; size = 4
?SetState_NOTIFY1@CKanturuBattleOfMaya@@QAEXXZ PROC	; CKanturuBattleOfMaya::SetState_NOTIFY1
; _this$ = ecx

; 494  : {

  010a0	55		 push	 ebp
  010a1	8b ec		 mov	 ebp, esp
  010a3	83 ec 44	 sub	 esp, 68			; 00000044H
  010a6	53		 push	 ebx
  010a7	56		 push	 esi
  010a8	57		 push	 edi
  010a9	89 4d fc	 mov	 DWORD PTR _this$[ebp], ecx

; 495  : 	LogAddC(5, "[ KANTURU ][ BattleOfMaya ] State(%d) -> NOTIFY1",
; 496  : 		this->m_iBattleOfMayaState);

  010ac	8b 45 fc	 mov	 eax, DWORD PTR _this$[ebp]
  010af	8b 48 08	 mov	 ecx, DWORD PTR [eax+8]
  010b2	51		 push	 ecx
  010b3	68 00 00 00 00	 push	 OFFSET ??_C@_0DB@FGBMJKFB@?$FL?5KANTURU?5?$FN?$FL?5BattleOfMaya?5?$FN?5Stat@
  010b8	6a 05		 push	 5
  010ba	ff 15 00 00 00
	00		 call	 DWORD PTR ?LogAddC@@3P6AXEPADZZA ; LogAddC
  010c0	83 c4 0c	 add	 esp, 12			; 0000000cH

; 497  : 
; 498  : 	this->SetBattleOfMayaState(KANTURU_MAYA_NOTIFY1);

  010c3	6a 02		 push	 2
  010c5	8b 4d fc	 mov	 ecx, DWORD PTR _this$[ebp]
  010c8	e8 00 00 00 00	 call	 ?SetBattleOfMayaState@CKanturuBattleOfMaya@@QAEXH@Z ; CKanturuBattleOfMaya::SetBattleOfMayaState

; 499  : 	this->SetEntrancePermit(FALSE);

  010cd	6a 00		 push	 0
  010cf	8b 4d fc	 mov	 ecx, DWORD PTR _this$[ebp]
  010d2	e8 00 00 00 00	 call	 ?SetEntrancePermit@CKanturuBattleOfMaya@@QAEXH@Z ; CKanturuBattleOfMaya::SetEntrancePermit

; 500  : }

  010d7	5f		 pop	 edi
  010d8	5e		 pop	 esi
  010d9	5b		 pop	 ebx
  010da	8b e5		 mov	 esp, ebp
  010dc	5d		 pop	 ebp
  010dd	c3		 ret	 0
?SetState_NOTIFY1@CKanturuBattleOfMaya@@QAEXXZ ENDP	; CKanturuBattleOfMaya::SetState_NOTIFY1
_TEXT	ENDS
PUBLIC	?SetMayaObjIndex@CKanturuMaya@@QAEXH@Z		; CKanturuMaya::SetMayaObjIndex
PUBLIC	?GetMayaObjIndex@CKanturuMonsterMng@@QAEHXZ	; CKanturuMonsterMng::GetMayaObjIndex
PUBLIC	?GetValue@CKanturuStateInfo@@QAEHXZ		; CKanturuStateInfo::GetValue
PUBLIC	??_C@_0DA@MAGCDIE@?$FL?5KANTURU?5?$FN?$FL?5BattleOfMaya?5?$FN?5Stat@ ; `string'
EXTRN	?SetKanturuMonster@CKanturuMonsterMng@@QAEHH@Z:PROC ; CKanturuMonsterMng::SetKanturuMonster
EXTRN	?NotifyKanturuBattleTime@CKanturuUtil@@QAEXH@Z:PROC ; CKanturuUtil::NotifyKanturuBattleTime
;	COMDAT ??_C@_0DA@MAGCDIE@?$FL?5KANTURU?5?$FN?$FL?5BattleOfMaya?5?$FN?5Stat@
CONST	SEGMENT
??_C@_0DA@MAGCDIE@?$FL?5KANTURU?5?$FN?$FL?5BattleOfMaya?5?$FN?5Stat@ DB '['
	DB	' KANTURU ][ BattleOfMaya ] State(%d) -> START1', 00H ; `string'
; Function compile flags: /Odtp /ZI
CONST	ENDS
_TEXT	SEGMENT
_this$ = -4						; size = 4
?SetState_START1@CKanturuBattleOfMaya@@QAEXXZ PROC	; CKanturuBattleOfMaya::SetState_START1
; _this$ = ecx

; 505  : {

  010e0	55		 push	 ebp
  010e1	8b ec		 mov	 ebp, esp
  010e3	83 ec 44	 sub	 esp, 68			; 00000044H
  010e6	53		 push	 ebx
  010e7	56		 push	 esi
  010e8	57		 push	 edi
  010e9	89 4d fc	 mov	 DWORD PTR _this$[ebp], ecx

; 506  : 	LogAddC(5, "[ KANTURU ][ BattleOfMaya ] State(%d) -> START1",
; 507  : 		this->m_iBattleOfMayaState);

  010ec	8b 45 fc	 mov	 eax, DWORD PTR _this$[ebp]
  010ef	8b 48 08	 mov	 ecx, DWORD PTR [eax+8]
  010f2	51		 push	 ecx
  010f3	68 00 00 00 00	 push	 OFFSET ??_C@_0DA@MAGCDIE@?$FL?5KANTURU?5?$FN?$FL?5BattleOfMaya?5?$FN?5Stat@
  010f8	6a 05		 push	 5
  010fa	ff 15 00 00 00
	00		 call	 DWORD PTR ?LogAddC@@3P6AXEPADZZA ; LogAddC
  01100	83 c4 0c	 add	 esp, 12			; 0000000cH

; 508  : 
; 509  : 	this->SetBattleOfMayaState(KANTURU_MAYA_START1);

  01103	6a 03		 push	 3
  01105	8b 4d fc	 mov	 ecx, DWORD PTR _this$[ebp]
  01108	e8 00 00 00 00	 call	 ?SetBattleOfMayaState@CKanturuBattleOfMaya@@QAEXH@Z ; CKanturuBattleOfMaya::SetBattleOfMayaState

; 510  : 	this->SetBattleSceneState(0);

  0110d	6a 00		 push	 0
  0110f	8b 4d fc	 mov	 ecx, DWORD PTR _this$[ebp]
  01112	e8 00 00 00 00	 call	 ?SetBattleSceneState@CKanturuBattleOfMaya@@QAEXH@Z ; CKanturuBattleOfMaya::SetBattleSceneState

; 511  : 	this->SetEntrancePermit(FALSE);

  01117	6a 00		 push	 0
  01119	8b 4d fc	 mov	 ecx, DWORD PTR _this$[ebp]
  0111c	e8 00 00 00 00	 call	 ?SetEntrancePermit@CKanturuBattleOfMaya@@QAEXH@Z ; CKanturuBattleOfMaya::SetEntrancePermit

; 512  : 	this->SetSuccessValue(FALSE);

  01121	6a 00		 push	 0
  01123	8b 4d fc	 mov	 ecx, DWORD PTR _this$[ebp]
  01126	e8 00 00 00 00	 call	 ?SetSuccessValue@CKanturuBattleOfMaya@@QAEXH@Z ; CKanturuBattleOfMaya::SetSuccessValue

; 513  : 	this->SetSceneSuccessValue(FALSE);

  0112b	6a 00		 push	 0
  0112d	8b 4d fc	 mov	 ecx, DWORD PTR _this$[ebp]
  01130	e8 00 00 00 00	 call	 ?SetSceneSuccessValue@CKanturuBattleOfMaya@@QAEXH@Z ; CKanturuBattleOfMaya::SetSceneSuccessValue

; 514  : 	this->m_BattleTimeInfo[this->m_iSceneState].SetAppliedTime();

  01135	8b 45 fc	 mov	 eax, DWORD PTR _this$[ebp]
  01138	8b 48 0c	 mov	 ecx, DWORD PTR [eax+12]
  0113b	6b c9 14	 imul	 ecx, 20			; 00000014H
  0113e	8b 55 fc	 mov	 edx, DWORD PTR _this$[ebp]
  01141	8d 4c 0a 10	 lea	 ecx, DWORD PTR [edx+ecx+16]
  01145	e8 00 00 00 00	 call	 ?SetAppliedTime@CKanturuStateInfo@@QAEXXZ ; CKanturuStateInfo::SetAppliedTime

; 515  : 
; 516  : 	if ( this->m_BattleTimeInfo[this->m_iSceneState].GetCondition() == 1 )

  0114a	8b 45 fc	 mov	 eax, DWORD PTR _this$[ebp]
  0114d	8b 48 0c	 mov	 ecx, DWORD PTR [eax+12]
  01150	6b c9 14	 imul	 ecx, 20			; 00000014H
  01153	8b 55 fc	 mov	 edx, DWORD PTR _this$[ebp]
  01156	8d 4c 0a 10	 lea	 ecx, DWORD PTR [edx+ecx+16]
  0115a	e8 00 00 00 00	 call	 ?GetCondition@CKanturuStateInfo@@QAEHXZ ; CKanturuStateInfo::GetCondition
  0115f	83 f8 01	 cmp	 eax, 1
  01162	75 20		 jne	 SHORT $LN1@SetState_S

; 517  : 	{
; 518  : 		KANTURU_UTIL.NotifyKanturuBattleTime(this->m_BattleTimeInfo[this->m_iSceneState].GetValue());

  01164	8b 45 fc	 mov	 eax, DWORD PTR _this$[ebp]
  01167	8b 48 0c	 mov	 ecx, DWORD PTR [eax+12]
  0116a	6b c9 14	 imul	 ecx, 20			; 00000014H
  0116d	8b 55 fc	 mov	 edx, DWORD PTR _this$[ebp]
  01170	8d 4c 0a 10	 lea	 ecx, DWORD PTR [edx+ecx+16]
  01174	e8 00 00 00 00	 call	 ?GetValue@CKanturuStateInfo@@QAEHXZ ; CKanturuStateInfo::GetValue
  01179	50		 push	 eax
  0117a	b9 00 00 00 00	 mov	 ecx, OFFSET _KANTURU_UTIL
  0117f	e8 00 00 00 00	 call	 ?NotifyKanturuBattleTime@CKanturuUtil@@QAEXH@Z ; CKanturuUtil::NotifyKanturuBattleTime
$LN1@SetState_S:

; 519  : 	}
; 520  : 
; 521  : 	g_KanturuMonsterMng.SetKanturuMonster(0);

  01184	6a 00		 push	 0
  01186	b9 00 00 00 00	 mov	 ecx, OFFSET ?g_KanturuMonsterMng@@3VCKanturuMonsterMng@@A ; g_KanturuMonsterMng
  0118b	e8 00 00 00 00	 call	 ?SetKanturuMonster@CKanturuMonsterMng@@QAEHH@Z ; CKanturuMonsterMng::SetKanturuMonster

; 522  : 	this->m_KanturuMaya.SetMayaObjIndex(g_KanturuMonsterMng.GetMayaObjIndex());

  01190	b9 00 00 00 00	 mov	 ecx, OFFSET ?g_KanturuMonsterMng@@3VCKanturuMonsterMng@@A ; g_KanturuMonsterMng
  01195	e8 00 00 00 00	 call	 ?GetMayaObjIndex@CKanturuMonsterMng@@QAEHXZ ; CKanturuMonsterMng::GetMayaObjIndex
  0119a	50		 push	 eax
  0119b	8b 4d fc	 mov	 ecx, DWORD PTR _this$[ebp]
  0119e	81 c1 dc 01 00
	00		 add	 ecx, 476		; 000001dcH
  011a4	e8 00 00 00 00	 call	 ?SetMayaObjIndex@CKanturuMaya@@QAEXH@Z ; CKanturuMaya::SetMayaObjIndex

; 523  : }

  011a9	5f		 pop	 edi
  011aa	5e		 pop	 esi
  011ab	5b		 pop	 ebx
  011ac	8b e5		 mov	 esp, ebp
  011ae	5d		 pop	 ebp
  011af	c3		 ret	 0
?SetState_START1@CKanturuBattleOfMaya@@QAEXXZ ENDP	; CKanturuBattleOfMaya::SetState_START1
; Function compile flags: /Odtp /ZI
; File d:\projects\exteam6.3\source\gameserver\gameserver\kanturustateinfo.h
_TEXT	ENDS
;	COMDAT ?GetValue@CKanturuStateInfo@@QAEHXZ
_TEXT	SEGMENT
_this$ = -4						; size = 4
?GetValue@CKanturuStateInfo@@QAEHXZ PROC		; CKanturuStateInfo::GetValue, COMDAT
; _this$ = ecx

; 50   : 	{

  00000	55		 push	 ebp
  00001	8b ec		 mov	 ebp, esp
  00003	83 ec 44	 sub	 esp, 68			; 00000044H
  00006	53		 push	 ebx
  00007	56		 push	 esi
  00008	57		 push	 edi
  00009	89 4d fc	 mov	 DWORD PTR _this$[ebp], ecx

; 51   : 		return this->m_iValue;

  0000c	8b 45 fc	 mov	 eax, DWORD PTR _this$[ebp]
  0000f	8b 40 0c	 mov	 eax, DWORD PTR [eax+12]

; 52   : 	}

  00012	5f		 pop	 edi
  00013	5e		 pop	 esi
  00014	5b		 pop	 ebx
  00015	8b e5		 mov	 esp, ebp
  00017	5d		 pop	 ebp
  00018	c3		 ret	 0
?GetValue@CKanturuStateInfo@@QAEHXZ ENDP		; CKanturuStateInfo::GetValue
; Function compile flags: /Odtp /ZI
; File d:\projects\exteam6.3\source\gameserver\gameserver\kanturumaya.h
_TEXT	ENDS
;	COMDAT ?SetMayaObjIndex@CKanturuMaya@@QAEXH@Z
_TEXT	SEGMENT
_this$ = -4						; size = 4
_iIndex$ = 8						; size = 4
?SetMayaObjIndex@CKanturuMaya@@QAEXH@Z PROC		; CKanturuMaya::SetMayaObjIndex, COMDAT
; _this$ = ecx

; 23   : 	void SetMayaObjIndex(int iIndex){this->m_iMayaObjIndex = iIndex;}

  00000	55		 push	 ebp
  00001	8b ec		 mov	 ebp, esp
  00003	83 ec 44	 sub	 esp, 68			; 00000044H
  00006	53		 push	 ebx
  00007	56		 push	 esi
  00008	57		 push	 edi
  00009	89 4d fc	 mov	 DWORD PTR _this$[ebp], ecx
  0000c	8b 45 fc	 mov	 eax, DWORD PTR _this$[ebp]
  0000f	8b 4d 08	 mov	 ecx, DWORD PTR _iIndex$[ebp]
  00012	89 48 04	 mov	 DWORD PTR [eax+4], ecx
  00015	5f		 pop	 edi
  00016	5e		 pop	 esi
  00017	5b		 pop	 ebx
  00018	8b e5		 mov	 esp, ebp
  0001a	5d		 pop	 ebp
  0001b	c2 04 00	 ret	 4
?SetMayaObjIndex@CKanturuMaya@@QAEXH@Z ENDP		; CKanturuMaya::SetMayaObjIndex
; Function compile flags: /Odtp /ZI
; File d:\projects\exteam6.3\source\gameserver\gameserver\kanturumonstermng.h
_TEXT	ENDS
;	COMDAT ?GetMayaObjIndex@CKanturuMonsterMng@@QAEHXZ
_TEXT	SEGMENT
_this$ = -4						; size = 4
?GetMayaObjIndex@CKanturuMonsterMng@@QAEHXZ PROC	; CKanturuMonsterMng::GetMayaObjIndex, COMDAT
; _this$ = ecx

; 51   : 	int GetMayaObjIndex(){return this->m_iMayaObjIndex;}

  00000	55		 push	 ebp
  00001	8b ec		 mov	 ebp, esp
  00003	83 ec 44	 sub	 esp, 68			; 00000044H
  00006	53		 push	 ebx
  00007	56		 push	 esi
  00008	57		 push	 edi
  00009	89 4d fc	 mov	 DWORD PTR _this$[ebp], ecx
  0000c	8b 45 fc	 mov	 eax, DWORD PTR _this$[ebp]
  0000f	8b 80 d8 07 00
	00		 mov	 eax, DWORD PTR [eax+2008]
  00015	5f		 pop	 edi
  00016	5e		 pop	 esi
  00017	5b		 pop	 ebx
  00018	8b e5		 mov	 esp, ebp
  0001a	5d		 pop	 ebp
  0001b	c3		 ret	 0
?GetMayaObjIndex@CKanturuMonsterMng@@QAEHXZ ENDP	; CKanturuMonsterMng::GetMayaObjIndex
_TEXT	ENDS
PUBLIC	?SetAIMonsterGroup@CKanturuBattleOfMaya@@QAEXH@Z ; CKanturuBattleOfMaya::SetAIMonsterGroup
PUBLIC	??_C@_0CP@ODHNDKFD@?$FL?5KANTURU?5?$FN?$FL?5BattleOfMaya?5?$FN?5Stat@ ; `string'
EXTRN	?FindGroupLeader@TMonsterAIGroup@@SAHH@Z:PROC	; TMonsterAIGroup::FindGroupLeader
;	COMDAT ??_C@_0CP@ODHNDKFD@?$FL?5KANTURU?5?$FN?$FL?5BattleOfMaya?5?$FN?5Stat@
; File d:\projects\exteam6.3\source\gameserver\gameserver\kanturubattleofmaya.cpp
CONST	SEGMENT
??_C@_0CP@ODHNDKFD@?$FL?5KANTURU?5?$FN?$FL?5BattleOfMaya?5?$FN?5Stat@ DB '['
	DB	' KANTURU ][ BattleOfMaya ] State(%d) -> MAYA1', 00H ; `string'
; Function compile flags: /Odtp /ZI
CONST	ENDS
_TEXT	SEGMENT
_this$ = -4						; size = 4
?SetState_MAYA1@CKanturuBattleOfMaya@@QAEXXZ PROC	; CKanturuBattleOfMaya::SetState_MAYA1
; _this$ = ecx

; 527  : {

  011b0	55		 push	 ebp
  011b1	8b ec		 mov	 ebp, esp
  011b3	83 ec 44	 sub	 esp, 68			; 00000044H
  011b6	53		 push	 ebx
  011b7	56		 push	 esi
  011b8	57		 push	 edi
  011b9	89 4d fc	 mov	 DWORD PTR _this$[ebp], ecx

; 528  : 	LogAddC(5, "[ KANTURU ][ BattleOfMaya ] State(%d) -> MAYA1",
; 529  : 		this->m_iBattleOfMayaState);

  011bc	8b 45 fc	 mov	 eax, DWORD PTR _this$[ebp]
  011bf	8b 48 08	 mov	 ecx, DWORD PTR [eax+8]
  011c2	51		 push	 ecx
  011c3	68 00 00 00 00	 push	 OFFSET ??_C@_0CP@ODHNDKFD@?$FL?5KANTURU?5?$FN?$FL?5BattleOfMaya?5?$FN?5Stat@
  011c8	6a 05		 push	 5
  011ca	ff 15 00 00 00
	00		 call	 DWORD PTR ?LogAddC@@3P6AXEPADZZA ; LogAddC
  011d0	83 c4 0c	 add	 esp, 12			; 0000000cH

; 530  : 
; 531  : 	this->SetBattleOfMayaState(KANTURU_MAYA1);

  011d3	6a 04		 push	 4
  011d5	8b 4d fc	 mov	 ecx, DWORD PTR _this$[ebp]
  011d8	e8 00 00 00 00	 call	 ?SetBattleOfMayaState@CKanturuBattleOfMaya@@QAEXH@Z ; CKanturuBattleOfMaya::SetBattleOfMayaState

; 532  : 	this->SetEntrancePermit(FALSE);

  011dd	6a 00		 push	 0
  011df	8b 4d fc	 mov	 ecx, DWORD PTR _this$[ebp]
  011e2	e8 00 00 00 00	 call	 ?SetEntrancePermit@CKanturuBattleOfMaya@@QAEXH@Z ; CKanturuBattleOfMaya::SetEntrancePermit

; 533  : 	this->SetSuccessValue(FALSE);

  011e7	6a 00		 push	 0
  011e9	8b 4d fc	 mov	 ecx, DWORD PTR _this$[ebp]
  011ec	e8 00 00 00 00	 call	 ?SetSuccessValue@CKanturuBattleOfMaya@@QAEXH@Z ; CKanturuBattleOfMaya::SetSuccessValue

; 534  : 	this->SetSceneSuccessValue(FALSE);

  011f1	6a 00		 push	 0
  011f3	8b 4d fc	 mov	 ecx, DWORD PTR _this$[ebp]
  011f6	e8 00 00 00 00	 call	 ?SetSceneSuccessValue@CKanturuBattleOfMaya@@QAEXH@Z ; CKanturuBattleOfMaya::SetSceneSuccessValue

; 535  : 	this->m_iMayaHandDieTimeCounter = 0;

  011fb	8b 45 fc	 mov	 eax, DWORD PTR _this$[ebp]
  011fe	c7 80 f0 01 00
	00 00 00 00 00	 mov	 DWORD PTR [eax+496], 0

; 536  : 	g_KanturuMonsterMng.SetKanturuMonster(3);

  01208	6a 03		 push	 3
  0120a	b9 00 00 00 00	 mov	 ecx, OFFSET ?g_KanturuMonsterMng@@3VCKanturuMonsterMng@@A ; g_KanturuMonsterMng
  0120f	e8 00 00 00 00	 call	 ?SetKanturuMonster@CKanturuMonsterMng@@QAEHH@Z ; CKanturuMonsterMng::SetKanturuMonster

; 537  : 	this->m_KanturuMaya.SetMayaObjIndex(g_KanturuMonsterMng.GetMayaObjIndex());

  01214	b9 00 00 00 00	 mov	 ecx, OFFSET ?g_KanturuMonsterMng@@3VCKanturuMonsterMng@@A ; g_KanturuMonsterMng
  01219	e8 00 00 00 00	 call	 ?GetMayaObjIndex@CKanturuMonsterMng@@QAEHXZ ; CKanturuMonsterMng::GetMayaObjIndex
  0121e	50		 push	 eax
  0121f	8b 4d fc	 mov	 ecx, DWORD PTR _this$[ebp]
  01222	81 c1 dc 01 00
	00		 add	 ecx, 476		; 000001dcH
  01228	e8 00 00 00 00	 call	 ?SetMayaObjIndex@CKanturuMaya@@QAEXH@Z ; CKanturuMaya::SetMayaObjIndex

; 538  : 	this->SetAIMonsterGroup(this->m_iMayaHandGroupNumber[0]);

  0122d	8b 45 fc	 mov	 eax, DWORD PTR _this$[ebp]
  01230	8b 88 18 02 00
	00		 mov	 ecx, DWORD PTR [eax+536]
  01236	51		 push	 ecx
  01237	8b 4d fc	 mov	 ecx, DWORD PTR _this$[ebp]
  0123a	e8 00 00 00 00	 call	 ?SetAIMonsterGroup@CKanturuBattleOfMaya@@QAEXH@Z ; CKanturuBattleOfMaya::SetAIMonsterGroup

; 539  : 	this->m_iMayaLeftHandObjIndex = TMonsterAIGroup::FindGroupLeader(this->m_iMayaHandGroupNumber[0]);

  0123f	8b 45 fc	 mov	 eax, DWORD PTR _this$[ebp]
  01242	8b 88 18 02 00
	00		 mov	 ecx, DWORD PTR [eax+536]
  01248	51		 push	 ecx
  01249	e8 00 00 00 00	 call	 ?FindGroupLeader@TMonsterAIGroup@@SAHH@Z ; TMonsterAIGroup::FindGroupLeader
  0124e	83 c4 04	 add	 esp, 4
  01251	8b 55 fc	 mov	 edx, DWORD PTR _this$[ebp]
  01254	89 82 f4 01 00
	00		 mov	 DWORD PTR [edx+500], eax

; 540  : }

  0125a	5f		 pop	 edi
  0125b	5e		 pop	 esi
  0125c	5b		 pop	 ebx
  0125d	8b e5		 mov	 esp, ebp
  0125f	5d		 pop	 ebp
  01260	c3		 ret	 0
?SetState_MAYA1@CKanturuBattleOfMaya@@QAEXXZ ENDP	; CKanturuBattleOfMaya::SetState_MAYA1
_TEXT	ENDS
PUBLIC	?GetSuccessValue@CKanturuBattleOfMaya@@QAEHXZ	; CKanturuBattleOfMaya::GetSuccessValue
PUBLIC	??_C@_0DD@FHJECEBB@?$FL?5KANTURU?5?$FN?$FL?5BattleOfMaya?5?$FN?5Stat@ ; `string'
EXTRN	?NotifyKanturuSuccessValue@CKanturuUtil@@QAEXH@Z:PROC ; CKanturuUtil::NotifyKanturuSuccessValue
;	COMDAT ??_C@_0DD@FHJECEBB@?$FL?5KANTURU?5?$FN?$FL?5BattleOfMaya?5?$FN?5Stat@
CONST	SEGMENT
??_C@_0DD@FHJECEBB@?$FL?5KANTURU?5?$FN?$FL?5BattleOfMaya?5?$FN?5Stat@ DB '['
	DB	' KANTURU ][ BattleOfMaya ] State(%d) -> END_MAYA1', 00H ; `string'
; Function compile flags: /Odtp /ZI
CONST	ENDS
_TEXT	SEGMENT
_this$ = -4						; size = 4
?SetState_END_MAYA1@CKanturuBattleOfMaya@@QAEXXZ PROC	; CKanturuBattleOfMaya::SetState_END_MAYA1
; _this$ = ecx

; 545  : {

  01270	55		 push	 ebp
  01271	8b ec		 mov	 ebp, esp
  01273	83 ec 44	 sub	 esp, 68			; 00000044H
  01276	53		 push	 ebx
  01277	56		 push	 esi
  01278	57		 push	 edi
  01279	89 4d fc	 mov	 DWORD PTR _this$[ebp], ecx

; 546  : 	LogAddC(5, "[ KANTURU ][ BattleOfMaya ] State(%d) -> END_MAYA1",
; 547  : 		this->m_iBattleOfMayaState);

  0127c	8b 45 fc	 mov	 eax, DWORD PTR _this$[ebp]
  0127f	8b 48 08	 mov	 ecx, DWORD PTR [eax+8]
  01282	51		 push	 ecx
  01283	68 00 00 00 00	 push	 OFFSET ??_C@_0DD@FHJECEBB@?$FL?5KANTURU?5?$FN?$FL?5BattleOfMaya?5?$FN?5Stat@
  01288	6a 05		 push	 5
  0128a	ff 15 00 00 00
	00		 call	 DWORD PTR ?LogAddC@@3P6AXEPADZZA ; LogAddC
  01290	83 c4 0c	 add	 esp, 12			; 0000000cH

; 548  : 
; 549  : 	this->SetBattleSceneState(-1);

  01293	6a ff		 push	 -1
  01295	8b 4d fc	 mov	 ecx, DWORD PTR _this$[ebp]
  01298	e8 00 00 00 00	 call	 ?SetBattleSceneState@CKanturuBattleOfMaya@@QAEXH@Z ; CKanturuBattleOfMaya::SetBattleSceneState

; 550  : 	this->SetBattleOfMayaState(KANTURU_MAYA_END1);

  0129d	6a 05		 push	 5
  0129f	8b 4d fc	 mov	 ecx, DWORD PTR _this$[ebp]
  012a2	e8 00 00 00 00	 call	 ?SetBattleOfMayaState@CKanturuBattleOfMaya@@QAEXH@Z ; CKanturuBattleOfMaya::SetBattleOfMayaState

; 551  : 	this->SetEntrancePermit(FALSE);

  012a7	6a 00		 push	 0
  012a9	8b 4d fc	 mov	 ecx, DWORD PTR _this$[ebp]
  012ac	e8 00 00 00 00	 call	 ?SetEntrancePermit@CKanturuBattleOfMaya@@QAEXH@Z ; CKanturuBattleOfMaya::SetEntrancePermit

; 552  : 	
; 553  : 	KANTURU_UTIL.NotifyKanturuSuccessValue(this->GetSuccessValue());

  012b1	8b 4d fc	 mov	 ecx, DWORD PTR _this$[ebp]
  012b4	e8 00 00 00 00	 call	 ?GetSuccessValue@CKanturuBattleOfMaya@@QAEHXZ ; CKanturuBattleOfMaya::GetSuccessValue
  012b9	50		 push	 eax
  012ba	b9 00 00 00 00	 mov	 ecx, OFFSET _KANTURU_UTIL
  012bf	e8 00 00 00 00	 call	 ?NotifyKanturuSuccessValue@CKanturuUtil@@QAEXH@Z ; CKanturuUtil::NotifyKanturuSuccessValue

; 554  : }

  012c4	5f		 pop	 edi
  012c5	5e		 pop	 esi
  012c6	5b		 pop	 ebx
  012c7	8b e5		 mov	 esp, ebp
  012c9	5d		 pop	 ebp
  012ca	c3		 ret	 0
?SetState_END_MAYA1@CKanturuBattleOfMaya@@QAEXXZ ENDP	; CKanturuBattleOfMaya::SetState_END_MAYA1
; Function compile flags: /Odtp /ZI
; File d:\projects\exteam6.3\source\gameserver\gameserver\kanturubattleofmaya.h
_TEXT	ENDS
;	COMDAT ?GetSuccessValue@CKanturuBattleOfMaya@@QAEHXZ
_TEXT	SEGMENT
_this$ = -4						; size = 4
?GetSuccessValue@CKanturuBattleOfMaya@@QAEHXZ PROC	; CKanturuBattleOfMaya::GetSuccessValue, COMDAT
; _this$ = ecx

; 103  : 	BOOL GetSuccessValue(){return this->m_bIsSucccess;}

  00000	55		 push	 ebp
  00001	8b ec		 mov	 ebp, esp
  00003	83 ec 44	 sub	 esp, 68			; 00000044H
  00006	53		 push	 ebx
  00007	56		 push	 esi
  00008	57		 push	 edi
  00009	89 4d fc	 mov	 DWORD PTR _this$[ebp], ecx
  0000c	8b 45 fc	 mov	 eax, DWORD PTR _this$[ebp]
  0000f	8b 80 d4 01 00
	00		 mov	 eax, DWORD PTR [eax+468]
  00015	5f		 pop	 edi
  00016	5e		 pop	 esi
  00017	5b		 pop	 ebx
  00018	8b e5		 mov	 esp, ebp
  0001a	5d		 pop	 ebp
  0001b	c3		 ret	 0
?GetSuccessValue@CKanturuBattleOfMaya@@QAEHXZ ENDP	; CKanturuBattleOfMaya::GetSuccessValue
_TEXT	ENDS
PUBLIC	??_C@_0DI@DJGMLH@?$FL?5KANTURU?5?$FN?$FL?5BattleOfMaya?5?$FN?5Stat@ ; `string'
EXTRN	?SendMsgKauturuMapUser@CKanturuUtil@@QAAXPADZZ:PROC ; CKanturuUtil::SendMsgKauturuMapUser
EXTRN	?Get@CMsg@@QAEPADH@Z:PROC			; CMsg::Get
EXTRN	?lMsg@@3VCMsg@@A:BYTE				; lMsg
;	COMDAT ??_C@_0DI@DJGMLH@?$FL?5KANTURU?5?$FN?$FL?5BattleOfMaya?5?$FN?5Stat@
; File d:\projects\exteam6.3\source\gameserver\gameserver\kanturubattleofmaya.cpp
CONST	SEGMENT
??_C@_0DI@DJGMLH@?$FL?5KANTURU?5?$FN?$FL?5BattleOfMaya?5?$FN?5Stat@ DB '['
	DB	' KANTURU ][ BattleOfMaya ] State(%d) -> ENDCYCLE_MAYA1', 00H ; `string'
; Function compile flags: /Odtp /ZI
CONST	ENDS
_TEXT	SEGMENT
_this$ = -4						; size = 4
?SetState_ENDCYCLE_MAYA1@CKanturuBattleOfMaya@@QAEXXZ PROC ; CKanturuBattleOfMaya::SetState_ENDCYCLE_MAYA1
; _this$ = ecx

; 558  : {

  012d0	55		 push	 ebp
  012d1	8b ec		 mov	 ebp, esp
  012d3	83 ec 44	 sub	 esp, 68			; 00000044H
  012d6	53		 push	 ebx
  012d7	56		 push	 esi
  012d8	57		 push	 edi
  012d9	89 4d fc	 mov	 DWORD PTR _this$[ebp], ecx

; 559  : 	LogAddC(5, "[ KANTURU ][ BattleOfMaya ] State(%d) -> ENDCYCLE_MAYA1",
; 560  : 		this->m_iBattleOfMayaState);

  012dc	8b 45 fc	 mov	 eax, DWORD PTR _this$[ebp]
  012df	8b 48 08	 mov	 ecx, DWORD PTR [eax+8]
  012e2	51		 push	 ecx
  012e3	68 00 00 00 00	 push	 OFFSET ??_C@_0DI@DJGMLH@?$FL?5KANTURU?5?$FN?$FL?5BattleOfMaya?5?$FN?5Stat@
  012e8	6a 05		 push	 5
  012ea	ff 15 00 00 00
	00		 call	 DWORD PTR ?LogAddC@@3P6AXEPADZZA ; LogAddC
  012f0	83 c4 0c	 add	 esp, 12			; 0000000cH

; 561  : 
; 562  : 	this->SetBattleOfMayaState(KANTURU_MAYA_ENDCYCLE1);

  012f3	6a 06		 push	 6
  012f5	8b 4d fc	 mov	 ecx, DWORD PTR _this$[ebp]
  012f8	e8 00 00 00 00	 call	 ?SetBattleOfMayaState@CKanturuBattleOfMaya@@QAEXH@Z ; CKanturuBattleOfMaya::SetBattleOfMayaState

; 563  : 	this->SetEntrancePermit(FALSE);

  012fd	6a 00		 push	 0
  012ff	8b 4d fc	 mov	 ecx, DWORD PTR _this$[ebp]
  01302	e8 00 00 00 00	 call	 ?SetEntrancePermit@CKanturuBattleOfMaya@@QAEXH@Z ; CKanturuBattleOfMaya::SetEntrancePermit

; 564  : 	
; 565  : 	KANTURU_UTIL.SendMsgKauturuMapUser(lMsg.Get(MSGGET(13, 33)));

  01307	68 21 0d 00 00	 push	 3361			; 00000d21H
  0130c	b9 00 00 00 00	 mov	 ecx, OFFSET ?lMsg@@3VCMsg@@A ; lMsg
  01311	e8 00 00 00 00	 call	 ?Get@CMsg@@QAEPADH@Z	; CMsg::Get
  01316	50		 push	 eax
  01317	68 00 00 00 00	 push	 OFFSET _KANTURU_UTIL
  0131c	e8 00 00 00 00	 call	 ?SendMsgKauturuMapUser@CKanturuUtil@@QAAXPADZZ ; CKanturuUtil::SendMsgKauturuMapUser
  01321	83 c4 08	 add	 esp, 8

; 566  : }

  01324	5f		 pop	 edi
  01325	5e		 pop	 esi
  01326	5b		 pop	 ebx
  01327	8b e5		 mov	 esp, ebp
  01329	5d		 pop	 ebp
  0132a	c3		 ret	 0
?SetState_ENDCYCLE_MAYA1@CKanturuBattleOfMaya@@QAEXXZ ENDP ; CKanturuBattleOfMaya::SetState_ENDCYCLE_MAYA1
_TEXT	ENDS
PUBLIC	??_C@_0DB@JBAPPNDD@?$FL?5KANTURU?5?$FN?$FL?5BattleOfMaya?5?$FN?5Stat@ ; `string'
;	COMDAT ??_C@_0DB@JBAPPNDD@?$FL?5KANTURU?5?$FN?$FL?5BattleOfMaya?5?$FN?5Stat@
CONST	SEGMENT
??_C@_0DB@JBAPPNDD@?$FL?5KANTURU?5?$FN?$FL?5BattleOfMaya?5?$FN?5Stat@ DB '['
	DB	' KANTURU ][ BattleOfMaya ] State(%d) -> STANBY2', 00H ; `string'
; Function compile flags: /Odtp /ZI
CONST	ENDS
_TEXT	SEGMENT
_this$ = -4						; size = 4
?SetState_STANBY2@CKanturuBattleOfMaya@@QAEXXZ PROC	; CKanturuBattleOfMaya::SetState_STANBY2
; _this$ = ecx

; 571  : {

  01330	55		 push	 ebp
  01331	8b ec		 mov	 ebp, esp
  01333	83 ec 44	 sub	 esp, 68			; 00000044H
  01336	53		 push	 ebx
  01337	56		 push	 esi
  01338	57		 push	 edi
  01339	89 4d fc	 mov	 DWORD PTR _this$[ebp], ecx

; 572  : 	LogAddC(5, "[ KANTURU ][ BattleOfMaya ] State(%d) -> STANBY2",
; 573  : 		this->m_iBattleOfMayaState);

  0133c	8b 45 fc	 mov	 eax, DWORD PTR _this$[ebp]
  0133f	8b 48 08	 mov	 ecx, DWORD PTR [eax+8]
  01342	51		 push	 ecx
  01343	68 00 00 00 00	 push	 OFFSET ??_C@_0DB@JBAPPNDD@?$FL?5KANTURU?5?$FN?$FL?5BattleOfMaya?5?$FN?5Stat@
  01348	6a 05		 push	 5
  0134a	ff 15 00 00 00
	00		 call	 DWORD PTR ?LogAddC@@3P6AXEPADZZA ; LogAddC
  01350	83 c4 0c	 add	 esp, 12			; 0000000cH

; 574  : 
; 575  : 	this->SetBattleOfMayaState(KANTURU_MAYA_STANBY2);

  01353	6a 07		 push	 7
  01355	8b 4d fc	 mov	 ecx, DWORD PTR _this$[ebp]
  01358	e8 00 00 00 00	 call	 ?SetBattleOfMayaState@CKanturuBattleOfMaya@@QAEXH@Z ; CKanturuBattleOfMaya::SetBattleOfMayaState

; 576  : 	this->SetEntrancePermit(TRUE);

  0135d	6a 01		 push	 1
  0135f	8b 4d fc	 mov	 ecx, DWORD PTR _this$[ebp]
  01362	e8 00 00 00 00	 call	 ?SetEntrancePermit@CKanturuBattleOfMaya@@QAEXH@Z ; CKanturuBattleOfMaya::SetEntrancePermit

; 577  : }

  01367	5f		 pop	 edi
  01368	5e		 pop	 esi
  01369	5b		 pop	 ebx
  0136a	8b e5		 mov	 esp, ebp
  0136c	5d		 pop	 ebp
  0136d	c3		 ret	 0
?SetState_STANBY2@CKanturuBattleOfMaya@@QAEXXZ ENDP	; CKanturuBattleOfMaya::SetState_STANBY2
_TEXT	ENDS
PUBLIC	??_C@_0DA@CHCLHAEH@?$FL?5KANTURU?5?$FN?$FL?5BattleOfMaya?5?$FN?5Stat@ ; `string'
;	COMDAT ??_C@_0DA@CHCLHAEH@?$FL?5KANTURU?5?$FN?$FL?5BattleOfMaya?5?$FN?5Stat@
CONST	SEGMENT
??_C@_0DA@CHCLHAEH@?$FL?5KANTURU?5?$FN?$FL?5BattleOfMaya?5?$FN?5Stat@ DB '['
	DB	' KANTURU ][ BattleOfMaya ] State(%d) -> START2', 00H ; `string'
; Function compile flags: /Odtp /ZI
CONST	ENDS
_TEXT	SEGMENT
_this$ = -4						; size = 4
?SetState_START2@CKanturuBattleOfMaya@@QAEXXZ PROC	; CKanturuBattleOfMaya::SetState_START2
; _this$ = ecx

; 582  : {

  01370	55		 push	 ebp
  01371	8b ec		 mov	 ebp, esp
  01373	83 ec 44	 sub	 esp, 68			; 00000044H
  01376	53		 push	 ebx
  01377	56		 push	 esi
  01378	57		 push	 edi
  01379	89 4d fc	 mov	 DWORD PTR _this$[ebp], ecx

; 583  : 	LogAddC(5, "[ KANTURU ][ BattleOfMaya ] State(%d) -> START2",
; 584  : 		this->m_iBattleOfMayaState);

  0137c	8b 45 fc	 mov	 eax, DWORD PTR _this$[ebp]
  0137f	8b 48 08	 mov	 ecx, DWORD PTR [eax+8]
  01382	51		 push	 ecx
  01383	68 00 00 00 00	 push	 OFFSET ??_C@_0DA@CHCLHAEH@?$FL?5KANTURU?5?$FN?$FL?5BattleOfMaya?5?$FN?5Stat@
  01388	6a 05		 push	 5
  0138a	ff 15 00 00 00
	00		 call	 DWORD PTR ?LogAddC@@3P6AXEPADZZA ; LogAddC
  01390	83 c4 0c	 add	 esp, 12			; 0000000cH

; 585  : 
; 586  : 	this->SetBattleOfMayaState(KANTURU_MAYA_START2);

  01393	6a 08		 push	 8
  01395	8b 4d fc	 mov	 ecx, DWORD PTR _this$[ebp]
  01398	e8 00 00 00 00	 call	 ?SetBattleOfMayaState@CKanturuBattleOfMaya@@QAEXH@Z ; CKanturuBattleOfMaya::SetBattleOfMayaState

; 587  : 	this->SetEntrancePermit(FALSE);

  0139d	6a 00		 push	 0
  0139f	8b 4d fc	 mov	 ecx, DWORD PTR _this$[ebp]
  013a2	e8 00 00 00 00	 call	 ?SetEntrancePermit@CKanturuBattleOfMaya@@QAEXH@Z ; CKanturuBattleOfMaya::SetEntrancePermit

; 588  : 	this->SetBattleSceneState(1);

  013a7	6a 01		 push	 1
  013a9	8b 4d fc	 mov	 ecx, DWORD PTR _this$[ebp]
  013ac	e8 00 00 00 00	 call	 ?SetBattleSceneState@CKanturuBattleOfMaya@@QAEXH@Z ; CKanturuBattleOfMaya::SetBattleSceneState

; 589  : 	this->SetSuccessValue(FALSE);

  013b1	6a 00		 push	 0
  013b3	8b 4d fc	 mov	 ecx, DWORD PTR _this$[ebp]
  013b6	e8 00 00 00 00	 call	 ?SetSuccessValue@CKanturuBattleOfMaya@@QAEXH@Z ; CKanturuBattleOfMaya::SetSuccessValue

; 590  : 	this->SetSceneSuccessValue(FALSE);

  013bb	6a 00		 push	 0
  013bd	8b 4d fc	 mov	 ecx, DWORD PTR _this$[ebp]
  013c0	e8 00 00 00 00	 call	 ?SetSceneSuccessValue@CKanturuBattleOfMaya@@QAEXH@Z ; CKanturuBattleOfMaya::SetSceneSuccessValue

; 591  : 	this->m_BattleTimeInfo[this->m_iSceneState].SetAppliedTime();

  013c5	8b 45 fc	 mov	 eax, DWORD PTR _this$[ebp]
  013c8	8b 48 0c	 mov	 ecx, DWORD PTR [eax+12]
  013cb	6b c9 14	 imul	 ecx, 20			; 00000014H
  013ce	8b 55 fc	 mov	 edx, DWORD PTR _this$[ebp]
  013d1	8d 4c 0a 10	 lea	 ecx, DWORD PTR [edx+ecx+16]
  013d5	e8 00 00 00 00	 call	 ?SetAppliedTime@CKanturuStateInfo@@QAEXXZ ; CKanturuStateInfo::SetAppliedTime

; 592  : 
; 593  : 	if ( this->m_BattleTimeInfo[this->m_iSceneState].GetCondition() == 1 )

  013da	8b 45 fc	 mov	 eax, DWORD PTR _this$[ebp]
  013dd	8b 48 0c	 mov	 ecx, DWORD PTR [eax+12]
  013e0	6b c9 14	 imul	 ecx, 20			; 00000014H
  013e3	8b 55 fc	 mov	 edx, DWORD PTR _this$[ebp]
  013e6	8d 4c 0a 10	 lea	 ecx, DWORD PTR [edx+ecx+16]
  013ea	e8 00 00 00 00	 call	 ?GetCondition@CKanturuStateInfo@@QAEHXZ ; CKanturuStateInfo::GetCondition
  013ef	83 f8 01	 cmp	 eax, 1
  013f2	75 20		 jne	 SHORT $LN1@SetState_S@2

; 594  : 	{
; 595  : 		KANTURU_UTIL.NotifyKanturuBattleTime(this->m_BattleTimeInfo[this->m_iSceneState].GetValue());

  013f4	8b 45 fc	 mov	 eax, DWORD PTR _this$[ebp]
  013f7	8b 48 0c	 mov	 ecx, DWORD PTR [eax+12]
  013fa	6b c9 14	 imul	 ecx, 20			; 00000014H
  013fd	8b 55 fc	 mov	 edx, DWORD PTR _this$[ebp]
  01400	8d 4c 0a 10	 lea	 ecx, DWORD PTR [edx+ecx+16]
  01404	e8 00 00 00 00	 call	 ?GetValue@CKanturuStateInfo@@QAEHXZ ; CKanturuStateInfo::GetValue
  01409	50		 push	 eax
  0140a	b9 00 00 00 00	 mov	 ecx, OFFSET _KANTURU_UTIL
  0140f	e8 00 00 00 00	 call	 ?NotifyKanturuBattleTime@CKanturuUtil@@QAEXH@Z ; CKanturuUtil::NotifyKanturuBattleTime
$LN1@SetState_S@2:

; 596  : 	}
; 597  : 
; 598  : 	g_KanturuMonsterMng.SetKanturuMonster(0);

  01414	6a 00		 push	 0
  01416	b9 00 00 00 00	 mov	 ecx, OFFSET ?g_KanturuMonsterMng@@3VCKanturuMonsterMng@@A ; g_KanturuMonsterMng
  0141b	e8 00 00 00 00	 call	 ?SetKanturuMonster@CKanturuMonsterMng@@QAEHH@Z ; CKanturuMonsterMng::SetKanturuMonster

; 599  : 	this->m_KanturuMaya.SetMayaObjIndex(g_KanturuMonsterMng.GetMayaObjIndex());

  01420	b9 00 00 00 00	 mov	 ecx, OFFSET ?g_KanturuMonsterMng@@3VCKanturuMonsterMng@@A ; g_KanturuMonsterMng
  01425	e8 00 00 00 00	 call	 ?GetMayaObjIndex@CKanturuMonsterMng@@QAEHXZ ; CKanturuMonsterMng::GetMayaObjIndex
  0142a	50		 push	 eax
  0142b	8b 4d fc	 mov	 ecx, DWORD PTR _this$[ebp]
  0142e	81 c1 dc 01 00
	00		 add	 ecx, 476		; 000001dcH
  01434	e8 00 00 00 00	 call	 ?SetMayaObjIndex@CKanturuMaya@@QAEXH@Z ; CKanturuMaya::SetMayaObjIndex

; 600  : }

  01439	5f		 pop	 edi
  0143a	5e		 pop	 esi
  0143b	5b		 pop	 ebx
  0143c	8b e5		 mov	 esp, ebp
  0143e	5d		 pop	 ebp
  0143f	c3		 ret	 0
?SetState_START2@CKanturuBattleOfMaya@@QAEXXZ ENDP	; CKanturuBattleOfMaya::SetState_START2
_TEXT	ENDS
PUBLIC	??_C@_0CP@MIFAGJJA@?$FL?5KANTURU?5?$FN?$FL?5BattleOfMaya?5?$FN?5Stat@ ; `string'
;	COMDAT ??_C@_0CP@MIFAGJJA@?$FL?5KANTURU?5?$FN?$FL?5BattleOfMaya?5?$FN?5Stat@
CONST	SEGMENT
??_C@_0CP@MIFAGJJA@?$FL?5KANTURU?5?$FN?$FL?5BattleOfMaya?5?$FN?5Stat@ DB '['
	DB	' KANTURU ][ BattleOfMaya ] State(%d) -> MAYA2', 00H ; `string'
; Function compile flags: /Odtp /ZI
CONST	ENDS
_TEXT	SEGMENT
_this$ = -4						; size = 4
?SetState_MAYA2@CKanturuBattleOfMaya@@QAEXXZ PROC	; CKanturuBattleOfMaya::SetState_MAYA2
; _this$ = ecx

; 605  : {

  01440	55		 push	 ebp
  01441	8b ec		 mov	 ebp, esp
  01443	83 ec 44	 sub	 esp, 68			; 00000044H
  01446	53		 push	 ebx
  01447	56		 push	 esi
  01448	57		 push	 edi
  01449	89 4d fc	 mov	 DWORD PTR _this$[ebp], ecx

; 606  : 	LogAddC(5, "[ KANTURU ][ BattleOfMaya ] State(%d) -> MAYA2",
; 607  : 		this->m_iBattleOfMayaState);

  0144c	8b 45 fc	 mov	 eax, DWORD PTR _this$[ebp]
  0144f	8b 48 08	 mov	 ecx, DWORD PTR [eax+8]
  01452	51		 push	 ecx
  01453	68 00 00 00 00	 push	 OFFSET ??_C@_0CP@MIFAGJJA@?$FL?5KANTURU?5?$FN?$FL?5BattleOfMaya?5?$FN?5Stat@
  01458	6a 05		 push	 5
  0145a	ff 15 00 00 00
	00		 call	 DWORD PTR ?LogAddC@@3P6AXEPADZZA ; LogAddC
  01460	83 c4 0c	 add	 esp, 12			; 0000000cH

; 608  : 
; 609  : 	this->SetBattleOfMayaState(KANTURU_MAYA2);

  01463	6a 09		 push	 9
  01465	8b 4d fc	 mov	 ecx, DWORD PTR _this$[ebp]
  01468	e8 00 00 00 00	 call	 ?SetBattleOfMayaState@CKanturuBattleOfMaya@@QAEXH@Z ; CKanturuBattleOfMaya::SetBattleOfMayaState

; 610  : 	this->SetEntrancePermit(FALSE);

  0146d	6a 00		 push	 0
  0146f	8b 4d fc	 mov	 ecx, DWORD PTR _this$[ebp]
  01472	e8 00 00 00 00	 call	 ?SetEntrancePermit@CKanturuBattleOfMaya@@QAEXH@Z ; CKanturuBattleOfMaya::SetEntrancePermit

; 611  : 	this->SetSuccessValue(FALSE);

  01477	6a 00		 push	 0
  01479	8b 4d fc	 mov	 ecx, DWORD PTR _this$[ebp]
  0147c	e8 00 00 00 00	 call	 ?SetSuccessValue@CKanturuBattleOfMaya@@QAEXH@Z ; CKanturuBattleOfMaya::SetSuccessValue

; 612  : 	this->SetSceneSuccessValue(FALSE);

  01481	6a 00		 push	 0
  01483	8b 4d fc	 mov	 ecx, DWORD PTR _this$[ebp]
  01486	e8 00 00 00 00	 call	 ?SetSceneSuccessValue@CKanturuBattleOfMaya@@QAEXH@Z ; CKanturuBattleOfMaya::SetSceneSuccessValue

; 613  : 	this->m_iMayaHandDieTimeCounter = 0;

  0148b	8b 45 fc	 mov	 eax, DWORD PTR _this$[ebp]
  0148e	c7 80 f0 01 00
	00 00 00 00 00	 mov	 DWORD PTR [eax+496], 0

; 614  : 	g_KanturuMonsterMng.SetKanturuMonster(4);

  01498	6a 04		 push	 4
  0149a	b9 00 00 00 00	 mov	 ecx, OFFSET ?g_KanturuMonsterMng@@3VCKanturuMonsterMng@@A ; g_KanturuMonsterMng
  0149f	e8 00 00 00 00	 call	 ?SetKanturuMonster@CKanturuMonsterMng@@QAEHH@Z ; CKanturuMonsterMng::SetKanturuMonster

; 615  : 	this->m_KanturuMaya.SetMayaObjIndex(g_KanturuMonsterMng.GetMayaObjIndex());

  014a4	b9 00 00 00 00	 mov	 ecx, OFFSET ?g_KanturuMonsterMng@@3VCKanturuMonsterMng@@A ; g_KanturuMonsterMng
  014a9	e8 00 00 00 00	 call	 ?GetMayaObjIndex@CKanturuMonsterMng@@QAEHXZ ; CKanturuMonsterMng::GetMayaObjIndex
  014ae	50		 push	 eax
  014af	8b 4d fc	 mov	 ecx, DWORD PTR _this$[ebp]
  014b2	81 c1 dc 01 00
	00		 add	 ecx, 476		; 000001dcH
  014b8	e8 00 00 00 00	 call	 ?SetMayaObjIndex@CKanturuMaya@@QAEXH@Z ; CKanturuMaya::SetMayaObjIndex

; 616  : 	this->SetAIMonsterGroup(this->m_iMayaHandGroupNumber[1]);

  014bd	8b 45 fc	 mov	 eax, DWORD PTR _this$[ebp]
  014c0	8b 88 1c 02 00
	00		 mov	 ecx, DWORD PTR [eax+540]
  014c6	51		 push	 ecx
  014c7	8b 4d fc	 mov	 ecx, DWORD PTR _this$[ebp]
  014ca	e8 00 00 00 00	 call	 ?SetAIMonsterGroup@CKanturuBattleOfMaya@@QAEXH@Z ; CKanturuBattleOfMaya::SetAIMonsterGroup

; 617  : 	this->m_iMayaRightHandObjIndex = TMonsterAIGroup::FindGroupLeader(this->m_iMayaHandGroupNumber[1]);

  014cf	8b 45 fc	 mov	 eax, DWORD PTR _this$[ebp]
  014d2	8b 88 1c 02 00
	00		 mov	 ecx, DWORD PTR [eax+540]
  014d8	51		 push	 ecx
  014d9	e8 00 00 00 00	 call	 ?FindGroupLeader@TMonsterAIGroup@@SAHH@Z ; TMonsterAIGroup::FindGroupLeader
  014de	83 c4 04	 add	 esp, 4
  014e1	8b 55 fc	 mov	 edx, DWORD PTR _this$[ebp]
  014e4	89 82 f8 01 00
	00		 mov	 DWORD PTR [edx+504], eax

; 618  : }

  014ea	5f		 pop	 edi
  014eb	5e		 pop	 esi
  014ec	5b		 pop	 ebx
  014ed	8b e5		 mov	 esp, ebp
  014ef	5d		 pop	 ebp
  014f0	c3		 ret	 0
?SetState_MAYA2@CKanturuBattleOfMaya@@QAEXXZ ENDP	; CKanturuBattleOfMaya::SetState_MAYA2
_TEXT	ENDS
PUBLIC	??_C@_0DD@HMLJHHNC@?$FL?5KANTURU?5?$FN?$FL?5BattleOfMaya?5?$FN?5Stat@ ; `string'
;	COMDAT ??_C@_0DD@HMLJHHNC@?$FL?5KANTURU?5?$FN?$FL?5BattleOfMaya?5?$FN?5Stat@
CONST	SEGMENT
??_C@_0DD@HMLJHHNC@?$FL?5KANTURU?5?$FN?$FL?5BattleOfMaya?5?$FN?5Stat@ DB '['
	DB	' KANTURU ][ BattleOfMaya ] State(%d) -> END_MAYA2', 00H ; `string'
; Function compile flags: /Odtp /ZI
CONST	ENDS
_TEXT	SEGMENT
_this$ = -4						; size = 4
?SetState_END_MAYA2@CKanturuBattleOfMaya@@QAEXXZ PROC	; CKanturuBattleOfMaya::SetState_END_MAYA2
; _this$ = ecx

; 622  : {

  01500	55		 push	 ebp
  01501	8b ec		 mov	 ebp, esp
  01503	83 ec 44	 sub	 esp, 68			; 00000044H
  01506	53		 push	 ebx
  01507	56		 push	 esi
  01508	57		 push	 edi
  01509	89 4d fc	 mov	 DWORD PTR _this$[ebp], ecx

; 623  : 	LogAddC(5, "[ KANTURU ][ BattleOfMaya ] State(%d) -> END_MAYA2",
; 624  : 		this->m_iBattleOfMayaState);

  0150c	8b 45 fc	 mov	 eax, DWORD PTR _this$[ebp]
  0150f	8b 48 08	 mov	 ecx, DWORD PTR [eax+8]
  01512	51		 push	 ecx
  01513	68 00 00 00 00	 push	 OFFSET ??_C@_0DD@HMLJHHNC@?$FL?5KANTURU?5?$FN?$FL?5BattleOfMaya?5?$FN?5Stat@
  01518	6a 05		 push	 5
  0151a	ff 15 00 00 00
	00		 call	 DWORD PTR ?LogAddC@@3P6AXEPADZZA ; LogAddC
  01520	83 c4 0c	 add	 esp, 12			; 0000000cH

; 625  : 
; 626  : 	this->SetBattleSceneState(-1);

  01523	6a ff		 push	 -1
  01525	8b 4d fc	 mov	 ecx, DWORD PTR _this$[ebp]
  01528	e8 00 00 00 00	 call	 ?SetBattleSceneState@CKanturuBattleOfMaya@@QAEXH@Z ; CKanturuBattleOfMaya::SetBattleSceneState

; 627  : 	this->SetBattleOfMayaState(KANTURU_MAYA_END2);

  0152d	6a 0a		 push	 10			; 0000000aH
  0152f	8b 4d fc	 mov	 ecx, DWORD PTR _this$[ebp]
  01532	e8 00 00 00 00	 call	 ?SetBattleOfMayaState@CKanturuBattleOfMaya@@QAEXH@Z ; CKanturuBattleOfMaya::SetBattleOfMayaState

; 628  : 	this->SetEntrancePermit(FALSE);

  01537	6a 00		 push	 0
  01539	8b 4d fc	 mov	 ecx, DWORD PTR _this$[ebp]
  0153c	e8 00 00 00 00	 call	 ?SetEntrancePermit@CKanturuBattleOfMaya@@QAEXH@Z ; CKanturuBattleOfMaya::SetEntrancePermit

; 629  : 	
; 630  : 	KANTURU_UTIL.NotifyKanturuSuccessValue(this->GetSuccessValue());

  01541	8b 4d fc	 mov	 ecx, DWORD PTR _this$[ebp]
  01544	e8 00 00 00 00	 call	 ?GetSuccessValue@CKanturuBattleOfMaya@@QAEHXZ ; CKanturuBattleOfMaya::GetSuccessValue
  01549	50		 push	 eax
  0154a	b9 00 00 00 00	 mov	 ecx, OFFSET _KANTURU_UTIL
  0154f	e8 00 00 00 00	 call	 ?NotifyKanturuSuccessValue@CKanturuUtil@@QAEXH@Z ; CKanturuUtil::NotifyKanturuSuccessValue

; 631  : }

  01554	5f		 pop	 edi
  01555	5e		 pop	 esi
  01556	5b		 pop	 ebx
  01557	8b e5		 mov	 esp, ebp
  01559	5d		 pop	 ebp
  0155a	c3		 ret	 0
?SetState_END_MAYA2@CKanturuBattleOfMaya@@QAEXXZ ENDP	; CKanturuBattleOfMaya::SetState_END_MAYA2
_TEXT	ENDS
PUBLIC	??_C@_0DI@CLBEDPHE@?$FL?5KANTURU?5?$FN?$FL?5BattleOfMaya?5?$FN?5Stat@ ; `string'
;	COMDAT ??_C@_0DI@CLBEDPHE@?$FL?5KANTURU?5?$FN?$FL?5BattleOfMaya?5?$FN?5Stat@
CONST	SEGMENT
??_C@_0DI@CLBEDPHE@?$FL?5KANTURU?5?$FN?$FL?5BattleOfMaya?5?$FN?5Stat@ DB '['
	DB	' KANTURU ][ BattleOfMaya ] State(%d) -> ENDCYCLE_MAYA2', 00H ; `string'
; Function compile flags: /Odtp /ZI
CONST	ENDS
_TEXT	SEGMENT
_this$ = -4						; size = 4
?SetState_ENDCYCLE_MAYA2@CKanturuBattleOfMaya@@QAEXXZ PROC ; CKanturuBattleOfMaya::SetState_ENDCYCLE_MAYA2
; _this$ = ecx

; 635  : {

  01560	55		 push	 ebp
  01561	8b ec		 mov	 ebp, esp
  01563	83 ec 44	 sub	 esp, 68			; 00000044H
  01566	53		 push	 ebx
  01567	56		 push	 esi
  01568	57		 push	 edi
  01569	89 4d fc	 mov	 DWORD PTR _this$[ebp], ecx

; 636  : 	LogAddC(5, "[ KANTURU ][ BattleOfMaya ] State(%d) -> ENDCYCLE_MAYA2",
; 637  : 		this->m_iBattleOfMayaState);

  0156c	8b 45 fc	 mov	 eax, DWORD PTR _this$[ebp]
  0156f	8b 48 08	 mov	 ecx, DWORD PTR [eax+8]
  01572	51		 push	 ecx
  01573	68 00 00 00 00	 push	 OFFSET ??_C@_0DI@CLBEDPHE@?$FL?5KANTURU?5?$FN?$FL?5BattleOfMaya?5?$FN?5Stat@
  01578	6a 05		 push	 5
  0157a	ff 15 00 00 00
	00		 call	 DWORD PTR ?LogAddC@@3P6AXEPADZZA ; LogAddC
  01580	83 c4 0c	 add	 esp, 12			; 0000000cH

; 638  : 
; 639  : 	this->SetBattleOfMayaState(KANTURU_MAYA_ENDCYCLE2);

  01583	6a 0b		 push	 11			; 0000000bH
  01585	8b 4d fc	 mov	 ecx, DWORD PTR _this$[ebp]
  01588	e8 00 00 00 00	 call	 ?SetBattleOfMayaState@CKanturuBattleOfMaya@@QAEXH@Z ; CKanturuBattleOfMaya::SetBattleOfMayaState

; 640  : 	this->SetEntrancePermit(FALSE);

  0158d	6a 00		 push	 0
  0158f	8b 4d fc	 mov	 ecx, DWORD PTR _this$[ebp]
  01592	e8 00 00 00 00	 call	 ?SetEntrancePermit@CKanturuBattleOfMaya@@QAEXH@Z ; CKanturuBattleOfMaya::SetEntrancePermit

; 641  : 	
; 642  : 	KANTURU_UTIL.SendMsgKauturuMapUser(lMsg.Get(MSGGET(13, 33)));

  01597	68 21 0d 00 00	 push	 3361			; 00000d21H
  0159c	b9 00 00 00 00	 mov	 ecx, OFFSET ?lMsg@@3VCMsg@@A ; lMsg
  015a1	e8 00 00 00 00	 call	 ?Get@CMsg@@QAEPADH@Z	; CMsg::Get
  015a6	50		 push	 eax
  015a7	68 00 00 00 00	 push	 OFFSET _KANTURU_UTIL
  015ac	e8 00 00 00 00	 call	 ?SendMsgKauturuMapUser@CKanturuUtil@@QAAXPADZZ ; CKanturuUtil::SendMsgKauturuMapUser
  015b1	83 c4 08	 add	 esp, 8

; 643  : }

  015b4	5f		 pop	 edi
  015b5	5e		 pop	 esi
  015b6	5b		 pop	 ebx
  015b7	8b e5		 mov	 esp, ebp
  015b9	5d		 pop	 ebp
  015ba	c3		 ret	 0
?SetState_ENDCYCLE_MAYA2@CKanturuBattleOfMaya@@QAEXXZ ENDP ; CKanturuBattleOfMaya::SetState_ENDCYCLE_MAYA2
_TEXT	ENDS
PUBLIC	??_C@_0DB@IIBEMMHC@?$FL?5KANTURU?5?$FN?$FL?5BattleOfMaya?5?$FN?5Stat@ ; `string'
;	COMDAT ??_C@_0DB@IIBEMMHC@?$FL?5KANTURU?5?$FN?$FL?5BattleOfMaya?5?$FN?5Stat@
CONST	SEGMENT
??_C@_0DB@IIBEMMHC@?$FL?5KANTURU?5?$FN?$FL?5BattleOfMaya?5?$FN?5Stat@ DB '['
	DB	' KANTURU ][ BattleOfMaya ] State(%d) -> STANBY3', 00H ; `string'
; Function compile flags: /Odtp /ZI
CONST	ENDS
_TEXT	SEGMENT
_this$ = -4						; size = 4
?SetState_STANBY3@CKanturuBattleOfMaya@@QAEXXZ PROC	; CKanturuBattleOfMaya::SetState_STANBY3
; _this$ = ecx

; 648  : {

  015c0	55		 push	 ebp
  015c1	8b ec		 mov	 ebp, esp
  015c3	83 ec 44	 sub	 esp, 68			; 00000044H
  015c6	53		 push	 ebx
  015c7	56		 push	 esi
  015c8	57		 push	 edi
  015c9	89 4d fc	 mov	 DWORD PTR _this$[ebp], ecx

; 649  : 	LogAddC(5, "[ KANTURU ][ BattleOfMaya ] State(%d) -> STANBY3",
; 650  : 		this->m_iBattleOfMayaState);

  015cc	8b 45 fc	 mov	 eax, DWORD PTR _this$[ebp]
  015cf	8b 48 08	 mov	 ecx, DWORD PTR [eax+8]
  015d2	51		 push	 ecx
  015d3	68 00 00 00 00	 push	 OFFSET ??_C@_0DB@IIBEMMHC@?$FL?5KANTURU?5?$FN?$FL?5BattleOfMaya?5?$FN?5Stat@
  015d8	6a 05		 push	 5
  015da	ff 15 00 00 00
	00		 call	 DWORD PTR ?LogAddC@@3P6AXEPADZZA ; LogAddC
  015e0	83 c4 0c	 add	 esp, 12			; 0000000cH

; 651  : 
; 652  : 	this->SetBattleOfMayaState(KANTURU_MAYA_STANBY3);

  015e3	6a 0c		 push	 12			; 0000000cH
  015e5	8b 4d fc	 mov	 ecx, DWORD PTR _this$[ebp]
  015e8	e8 00 00 00 00	 call	 ?SetBattleOfMayaState@CKanturuBattleOfMaya@@QAEXH@Z ; CKanturuBattleOfMaya::SetBattleOfMayaState

; 653  : 	this->SetEntrancePermit(TRUE);

  015ed	6a 01		 push	 1
  015ef	8b 4d fc	 mov	 ecx, DWORD PTR _this$[ebp]
  015f2	e8 00 00 00 00	 call	 ?SetEntrancePermit@CKanturuBattleOfMaya@@QAEXH@Z ; CKanturuBattleOfMaya::SetEntrancePermit

; 654  : }

  015f7	5f		 pop	 edi
  015f8	5e		 pop	 esi
  015f9	5b		 pop	 ebx
  015fa	8b e5		 mov	 esp, ebp
  015fc	5d		 pop	 ebp
  015fd	c3		 ret	 0
?SetState_STANBY3@CKanturuBattleOfMaya@@QAEXXZ ENDP	; CKanturuBattleOfMaya::SetState_STANBY3
_TEXT	ENDS
PUBLIC	??_C@_0DA@DODAEBAG@?$FL?5KANTURU?5?$FN?$FL?5BattleOfMaya?5?$FN?5Stat@ ; `string'
;	COMDAT ??_C@_0DA@DODAEBAG@?$FL?5KANTURU?5?$FN?$FL?5BattleOfMaya?5?$FN?5Stat@
CONST	SEGMENT
??_C@_0DA@DODAEBAG@?$FL?5KANTURU?5?$FN?$FL?5BattleOfMaya?5?$FN?5Stat@ DB '['
	DB	' KANTURU ][ BattleOfMaya ] State(%d) -> START3', 00H ; `string'
; Function compile flags: /Odtp /ZI
CONST	ENDS
_TEXT	SEGMENT
_this$ = -4						; size = 4
?SetState_START3@CKanturuBattleOfMaya@@QAEXXZ PROC	; CKanturuBattleOfMaya::SetState_START3
; _this$ = ecx

; 659  : {

  01600	55		 push	 ebp
  01601	8b ec		 mov	 ebp, esp
  01603	83 ec 44	 sub	 esp, 68			; 00000044H
  01606	53		 push	 ebx
  01607	56		 push	 esi
  01608	57		 push	 edi
  01609	89 4d fc	 mov	 DWORD PTR _this$[ebp], ecx

; 660  : 	LogAddC(5, "[ KANTURU ][ BattleOfMaya ] State(%d) -> START3",
; 661  : 		this->m_iBattleOfMayaState);

  0160c	8b 45 fc	 mov	 eax, DWORD PTR _this$[ebp]
  0160f	8b 48 08	 mov	 ecx, DWORD PTR [eax+8]
  01612	51		 push	 ecx
  01613	68 00 00 00 00	 push	 OFFSET ??_C@_0DA@DODAEBAG@?$FL?5KANTURU?5?$FN?$FL?5BattleOfMaya?5?$FN?5Stat@
  01618	6a 05		 push	 5
  0161a	ff 15 00 00 00
	00		 call	 DWORD PTR ?LogAddC@@3P6AXEPADZZA ; LogAddC
  01620	83 c4 0c	 add	 esp, 12			; 0000000cH

; 662  : 
; 663  : 	this->SetBattleOfMayaState(KANTURU_MAYA_START3);

  01623	6a 0d		 push	 13			; 0000000dH
  01625	8b 4d fc	 mov	 ecx, DWORD PTR _this$[ebp]
  01628	e8 00 00 00 00	 call	 ?SetBattleOfMayaState@CKanturuBattleOfMaya@@QAEXH@Z ; CKanturuBattleOfMaya::SetBattleOfMayaState

; 664  : 	this->SetBattleSceneState(2);

  0162d	6a 02		 push	 2
  0162f	8b 4d fc	 mov	 ecx, DWORD PTR _this$[ebp]
  01632	e8 00 00 00 00	 call	 ?SetBattleSceneState@CKanturuBattleOfMaya@@QAEXH@Z ; CKanturuBattleOfMaya::SetBattleSceneState

; 665  : 	this->SetEntrancePermit(FALSE);

  01637	6a 00		 push	 0
  01639	8b 4d fc	 mov	 ecx, DWORD PTR _this$[ebp]
  0163c	e8 00 00 00 00	 call	 ?SetEntrancePermit@CKanturuBattleOfMaya@@QAEXH@Z ; CKanturuBattleOfMaya::SetEntrancePermit

; 666  : 	this->SetSuccessValue(FALSE);

  01641	6a 00		 push	 0
  01643	8b 4d fc	 mov	 ecx, DWORD PTR _this$[ebp]
  01646	e8 00 00 00 00	 call	 ?SetSuccessValue@CKanturuBattleOfMaya@@QAEXH@Z ; CKanturuBattleOfMaya::SetSuccessValue

; 667  : 	this->SetSceneSuccessValue(FALSE);

  0164b	6a 00		 push	 0
  0164d	8b 4d fc	 mov	 ecx, DWORD PTR _this$[ebp]
  01650	e8 00 00 00 00	 call	 ?SetSceneSuccessValue@CKanturuBattleOfMaya@@QAEXH@Z ; CKanturuBattleOfMaya::SetSceneSuccessValue

; 668  : 	this->m_BattleTimeInfo[this->m_iSceneState].SetAppliedTime();

  01655	8b 45 fc	 mov	 eax, DWORD PTR _this$[ebp]
  01658	8b 48 0c	 mov	 ecx, DWORD PTR [eax+12]
  0165b	6b c9 14	 imul	 ecx, 20			; 00000014H
  0165e	8b 55 fc	 mov	 edx, DWORD PTR _this$[ebp]
  01661	8d 4c 0a 10	 lea	 ecx, DWORD PTR [edx+ecx+16]
  01665	e8 00 00 00 00	 call	 ?SetAppliedTime@CKanturuStateInfo@@QAEXXZ ; CKanturuStateInfo::SetAppliedTime

; 669  : 
; 670  : 	if ( this->m_BattleTimeInfo[this->m_iSceneState].GetCondition() == 1 )

  0166a	8b 45 fc	 mov	 eax, DWORD PTR _this$[ebp]
  0166d	8b 48 0c	 mov	 ecx, DWORD PTR [eax+12]
  01670	6b c9 14	 imul	 ecx, 20			; 00000014H
  01673	8b 55 fc	 mov	 edx, DWORD PTR _this$[ebp]
  01676	8d 4c 0a 10	 lea	 ecx, DWORD PTR [edx+ecx+16]
  0167a	e8 00 00 00 00	 call	 ?GetCondition@CKanturuStateInfo@@QAEHXZ ; CKanturuStateInfo::GetCondition
  0167f	83 f8 01	 cmp	 eax, 1
  01682	75 20		 jne	 SHORT $LN1@SetState_S@3

; 671  : 	{
; 672  : 		KANTURU_UTIL.NotifyKanturuBattleTime(this->m_BattleTimeInfo[this->m_iSceneState].GetValue());

  01684	8b 45 fc	 mov	 eax, DWORD PTR _this$[ebp]
  01687	8b 48 0c	 mov	 ecx, DWORD PTR [eax+12]
  0168a	6b c9 14	 imul	 ecx, 20			; 00000014H
  0168d	8b 55 fc	 mov	 edx, DWORD PTR _this$[ebp]
  01690	8d 4c 0a 10	 lea	 ecx, DWORD PTR [edx+ecx+16]
  01694	e8 00 00 00 00	 call	 ?GetValue@CKanturuStateInfo@@QAEHXZ ; CKanturuStateInfo::GetValue
  01699	50		 push	 eax
  0169a	b9 00 00 00 00	 mov	 ecx, OFFSET _KANTURU_UTIL
  0169f	e8 00 00 00 00	 call	 ?NotifyKanturuBattleTime@CKanturuUtil@@QAEXH@Z ; CKanturuUtil::NotifyKanturuBattleTime
$LN1@SetState_S@3:

; 673  : 	}
; 674  : 
; 675  : 	g_KanturuMonsterMng.SetKanturuMonster(1);

  016a4	6a 01		 push	 1
  016a6	b9 00 00 00 00	 mov	 ecx, OFFSET ?g_KanturuMonsterMng@@3VCKanturuMonsterMng@@A ; g_KanturuMonsterMng
  016ab	e8 00 00 00 00	 call	 ?SetKanturuMonster@CKanturuMonsterMng@@QAEHH@Z ; CKanturuMonsterMng::SetKanturuMonster

; 676  : 	this->m_KanturuMaya.SetMayaObjIndex(g_KanturuMonsterMng.GetMayaObjIndex());

  016b0	b9 00 00 00 00	 mov	 ecx, OFFSET ?g_KanturuMonsterMng@@3VCKanturuMonsterMng@@A ; g_KanturuMonsterMng
  016b5	e8 00 00 00 00	 call	 ?GetMayaObjIndex@CKanturuMonsterMng@@QAEHXZ ; CKanturuMonsterMng::GetMayaObjIndex
  016ba	50		 push	 eax
  016bb	8b 4d fc	 mov	 ecx, DWORD PTR _this$[ebp]
  016be	81 c1 dc 01 00
	00		 add	 ecx, 476		; 000001dcH
  016c4	e8 00 00 00 00	 call	 ?SetMayaObjIndex@CKanturuMaya@@QAEXH@Z ; CKanturuMaya::SetMayaObjIndex

; 677  : }

  016c9	5f		 pop	 edi
  016ca	5e		 pop	 esi
  016cb	5b		 pop	 ebx
  016cc	8b e5		 mov	 esp, ebp
  016ce	5d		 pop	 ebp
  016cf	c3		 ret	 0
?SetState_START3@CKanturuBattleOfMaya@@QAEXXZ ENDP	; CKanturuBattleOfMaya::SetState_START3
_TEXT	ENDS
PUBLIC	??_C@_0CP@NBELFINB@?$FL?5KANTURU?5?$FN?$FL?5BattleOfMaya?5?$FN?5Stat@ ; `string'
EXTRN	?FindGroupMemberObjectIndex@TMonsterAIGroup@@SAHHH@Z:PROC ; TMonsterAIGroup::FindGroupMemberObjectIndex
;	COMDAT ??_C@_0CP@NBELFINB@?$FL?5KANTURU?5?$FN?$FL?5BattleOfMaya?5?$FN?5Stat@
CONST	SEGMENT
??_C@_0CP@NBELFINB@?$FL?5KANTURU?5?$FN?$FL?5BattleOfMaya?5?$FN?5Stat@ DB '['
	DB	' KANTURU ][ BattleOfMaya ] State(%d) -> MAYA3', 00H ; `string'
; Function compile flags: /Odtp /ZI
CONST	ENDS
_TEXT	SEGMENT
_this$ = -4						; size = 4
?SetState_MAYA3@CKanturuBattleOfMaya@@QAEXXZ PROC	; CKanturuBattleOfMaya::SetState_MAYA3
; _this$ = ecx

; 682  : {

  016d0	55		 push	 ebp
  016d1	8b ec		 mov	 ebp, esp
  016d3	83 ec 44	 sub	 esp, 68			; 00000044H
  016d6	53		 push	 ebx
  016d7	56		 push	 esi
  016d8	57		 push	 edi
  016d9	89 4d fc	 mov	 DWORD PTR _this$[ebp], ecx

; 683  : 	LogAddC(5, "[ KANTURU ][ BattleOfMaya ] State(%d) -> MAYA3",
; 684  : 		this->m_iBattleOfMayaState);

  016dc	8b 45 fc	 mov	 eax, DWORD PTR _this$[ebp]
  016df	8b 48 08	 mov	 ecx, DWORD PTR [eax+8]
  016e2	51		 push	 ecx
  016e3	68 00 00 00 00	 push	 OFFSET ??_C@_0CP@NBELFINB@?$FL?5KANTURU?5?$FN?$FL?5BattleOfMaya?5?$FN?5Stat@
  016e8	6a 05		 push	 5
  016ea	ff 15 00 00 00
	00		 call	 DWORD PTR ?LogAddC@@3P6AXEPADZZA ; LogAddC
  016f0	83 c4 0c	 add	 esp, 12			; 0000000cH

; 685  : 
; 686  : 	this->SetBattleOfMayaState(KANTURU_MAYA3);

  016f3	6a 0e		 push	 14			; 0000000eH
  016f5	8b 4d fc	 mov	 ecx, DWORD PTR _this$[ebp]
  016f8	e8 00 00 00 00	 call	 ?SetBattleOfMayaState@CKanturuBattleOfMaya@@QAEXH@Z ; CKanturuBattleOfMaya::SetBattleOfMayaState

; 687  : 	this->SetEntrancePermit(FALSE);

  016fd	6a 00		 push	 0
  016ff	8b 4d fc	 mov	 ecx, DWORD PTR _this$[ebp]
  01702	e8 00 00 00 00	 call	 ?SetEntrancePermit@CKanturuBattleOfMaya@@QAEXH@Z ; CKanturuBattleOfMaya::SetEntrancePermit

; 688  : 	this->SetSuccessValue(FALSE);

  01707	6a 00		 push	 0
  01709	8b 4d fc	 mov	 ecx, DWORD PTR _this$[ebp]
  0170c	e8 00 00 00 00	 call	 ?SetSuccessValue@CKanturuBattleOfMaya@@QAEXH@Z ; CKanturuBattleOfMaya::SetSuccessValue

; 689  : 	this->SetSceneSuccessValue(FALSE);

  01711	6a 00		 push	 0
  01713	8b 4d fc	 mov	 ecx, DWORD PTR _this$[ebp]
  01716	e8 00 00 00 00	 call	 ?SetSceneSuccessValue@CKanturuBattleOfMaya@@QAEXH@Z ; CKanturuBattleOfMaya::SetSceneSuccessValue

; 690  : 	this->m_iMayaHandDieTimeCounter = 0;

  0171b	8b 45 fc	 mov	 eax, DWORD PTR _this$[ebp]
  0171e	c7 80 f0 01 00
	00 00 00 00 00	 mov	 DWORD PTR [eax+496], 0

; 691  : 	g_KanturuMonsterMng.SetKanturuMonster(5);

  01728	6a 05		 push	 5
  0172a	b9 00 00 00 00	 mov	 ecx, OFFSET ?g_KanturuMonsterMng@@3VCKanturuMonsterMng@@A ; g_KanturuMonsterMng
  0172f	e8 00 00 00 00	 call	 ?SetKanturuMonster@CKanturuMonsterMng@@QAEHH@Z ; CKanturuMonsterMng::SetKanturuMonster

; 692  : 	this->m_KanturuMaya.SetMayaObjIndex(g_KanturuMonsterMng.GetMayaObjIndex());

  01734	b9 00 00 00 00	 mov	 ecx, OFFSET ?g_KanturuMonsterMng@@3VCKanturuMonsterMng@@A ; g_KanturuMonsterMng
  01739	e8 00 00 00 00	 call	 ?GetMayaObjIndex@CKanturuMonsterMng@@QAEHXZ ; CKanturuMonsterMng::GetMayaObjIndex
  0173e	50		 push	 eax
  0173f	8b 4d fc	 mov	 ecx, DWORD PTR _this$[ebp]
  01742	81 c1 dc 01 00
	00		 add	 ecx, 476		; 000001dcH
  01748	e8 00 00 00 00	 call	 ?SetMayaObjIndex@CKanturuMaya@@QAEXH@Z ; CKanturuMaya::SetMayaObjIndex

; 693  : 	this->SetAIMonsterGroup(this->m_iMayaHandGroupNumber[2]);

  0174d	8b 45 fc	 mov	 eax, DWORD PTR _this$[ebp]
  01750	8b 88 20 02 00
	00		 mov	 ecx, DWORD PTR [eax+544]
  01756	51		 push	 ecx
  01757	8b 4d fc	 mov	 ecx, DWORD PTR _this$[ebp]
  0175a	e8 00 00 00 00	 call	 ?SetAIMonsterGroup@CKanturuBattleOfMaya@@QAEXH@Z ; CKanturuBattleOfMaya::SetAIMonsterGroup

; 694  : 	this->m_iMayaLeftHandObjIndex = TMonsterAIGroup::FindGroupLeader(this->m_iMayaHandGroupNumber[2]);

  0175f	8b 45 fc	 mov	 eax, DWORD PTR _this$[ebp]
  01762	8b 88 20 02 00
	00		 mov	 ecx, DWORD PTR [eax+544]
  01768	51		 push	 ecx
  01769	e8 00 00 00 00	 call	 ?FindGroupLeader@TMonsterAIGroup@@SAHH@Z ; TMonsterAIGroup::FindGroupLeader
  0176e	83 c4 04	 add	 esp, 4
  01771	8b 55 fc	 mov	 edx, DWORD PTR _this$[ebp]
  01774	89 82 f4 01 00
	00		 mov	 DWORD PTR [edx+500], eax

; 695  : 	this->m_iMayaRightHandObjIndex = TMonsterAIGroup::FindGroupMemberObjectIndex(this->m_iMayaHandGroupNumber[2], 1);

  0177a	6a 01		 push	 1
  0177c	8b 45 fc	 mov	 eax, DWORD PTR _this$[ebp]
  0177f	8b 88 20 02 00
	00		 mov	 ecx, DWORD PTR [eax+544]
  01785	51		 push	 ecx
  01786	e8 00 00 00 00	 call	 ?FindGroupMemberObjectIndex@TMonsterAIGroup@@SAHHH@Z ; TMonsterAIGroup::FindGroupMemberObjectIndex
  0178b	83 c4 08	 add	 esp, 8
  0178e	8b 55 fc	 mov	 edx, DWORD PTR _this$[ebp]
  01791	89 82 f8 01 00
	00		 mov	 DWORD PTR [edx+504], eax

; 696  : }

  01797	5f		 pop	 edi
  01798	5e		 pop	 esi
  01799	5b		 pop	 ebx
  0179a	8b e5		 mov	 esp, ebp
  0179c	5d		 pop	 ebp
  0179d	c3		 ret	 0
?SetState_MAYA3@CKanturuBattleOfMaya@@QAEXXZ ENDP	; CKanturuBattleOfMaya::SetState_MAYA3
_TEXT	ENDS
PUBLIC	??_C@_0DD@GFKCEGJD@?$FL?5KANTURU?5?$FN?$FL?5BattleOfMaya?5?$FN?5Stat@ ; `string'
;	COMDAT ??_C@_0DD@GFKCEGJD@?$FL?5KANTURU?5?$FN?$FL?5BattleOfMaya?5?$FN?5Stat@
CONST	SEGMENT
??_C@_0DD@GFKCEGJD@?$FL?5KANTURU?5?$FN?$FL?5BattleOfMaya?5?$FN?5Stat@ DB '['
	DB	' KANTURU ][ BattleOfMaya ] State(%d) -> END_MAYA3', 00H ; `string'
; Function compile flags: /Odtp /ZI
CONST	ENDS
_TEXT	SEGMENT
_this$ = -4						; size = 4
?SetState_END_MAYA3@CKanturuBattleOfMaya@@QAEXXZ PROC	; CKanturuBattleOfMaya::SetState_END_MAYA3
; _this$ = ecx

; 700  : {

  017a0	55		 push	 ebp
  017a1	8b ec		 mov	 ebp, esp
  017a3	83 ec 44	 sub	 esp, 68			; 00000044H
  017a6	53		 push	 ebx
  017a7	56		 push	 esi
  017a8	57		 push	 edi
  017a9	89 4d fc	 mov	 DWORD PTR _this$[ebp], ecx

; 701  : 	LogAddC(5, "[ KANTURU ][ BattleOfMaya ] State(%d) -> END_MAYA3",
; 702  : 		this->m_iBattleOfMayaState);

  017ac	8b 45 fc	 mov	 eax, DWORD PTR _this$[ebp]
  017af	8b 48 08	 mov	 ecx, DWORD PTR [eax+8]
  017b2	51		 push	 ecx
  017b3	68 00 00 00 00	 push	 OFFSET ??_C@_0DD@GFKCEGJD@?$FL?5KANTURU?5?$FN?$FL?5BattleOfMaya?5?$FN?5Stat@
  017b8	6a 05		 push	 5
  017ba	ff 15 00 00 00
	00		 call	 DWORD PTR ?LogAddC@@3P6AXEPADZZA ; LogAddC
  017c0	83 c4 0c	 add	 esp, 12			; 0000000cH

; 703  : 
; 704  : 	this->SetBattleSceneState(-1);

  017c3	6a ff		 push	 -1
  017c5	8b 4d fc	 mov	 ecx, DWORD PTR _this$[ebp]
  017c8	e8 00 00 00 00	 call	 ?SetBattleSceneState@CKanturuBattleOfMaya@@QAEXH@Z ; CKanturuBattleOfMaya::SetBattleSceneState

; 705  : 	this->SetBattleOfMayaState(KANTURU_MAYA_END3);

  017cd	6a 0f		 push	 15			; 0000000fH
  017cf	8b 4d fc	 mov	 ecx, DWORD PTR _this$[ebp]
  017d2	e8 00 00 00 00	 call	 ?SetBattleOfMayaState@CKanturuBattleOfMaya@@QAEXH@Z ; CKanturuBattleOfMaya::SetBattleOfMayaState

; 706  : 	this->SetEntrancePermit(FALSE);

  017d7	6a 00		 push	 0
  017d9	8b 4d fc	 mov	 ecx, DWORD PTR _this$[ebp]
  017dc	e8 00 00 00 00	 call	 ?SetEntrancePermit@CKanturuBattleOfMaya@@QAEXH@Z ; CKanturuBattleOfMaya::SetEntrancePermit

; 707  : 	
; 708  : 	KANTURU_UTIL.NotifyKanturuSuccessValue(this->GetSuccessValue());

  017e1	8b 4d fc	 mov	 ecx, DWORD PTR _this$[ebp]
  017e4	e8 00 00 00 00	 call	 ?GetSuccessValue@CKanturuBattleOfMaya@@QAEHXZ ; CKanturuBattleOfMaya::GetSuccessValue
  017e9	50		 push	 eax
  017ea	b9 00 00 00 00	 mov	 ecx, OFFSET _KANTURU_UTIL
  017ef	e8 00 00 00 00	 call	 ?NotifyKanturuSuccessValue@CKanturuUtil@@QAEXH@Z ; CKanturuUtil::NotifyKanturuSuccessValue

; 709  : }

  017f4	5f		 pop	 edi
  017f5	5e		 pop	 esi
  017f6	5b		 pop	 ebx
  017f7	8b e5		 mov	 esp, ebp
  017f9	5d		 pop	 ebp
  017fa	c3		 ret	 0
?SetState_END_MAYA3@CKanturuBattleOfMaya@@QAEXXZ ENDP	; CKanturuBattleOfMaya::SetState_END_MAYA3
_TEXT	ENDS
PUBLIC	??_C@_0DI@DCAPAODF@?$FL?5KANTURU?5?$FN?$FL?5BattleOfMaya?5?$FN?5Stat@ ; `string'
;	COMDAT ??_C@_0DI@DCAPAODF@?$FL?5KANTURU?5?$FN?$FL?5BattleOfMaya?5?$FN?5Stat@
CONST	SEGMENT
??_C@_0DI@DCAPAODF@?$FL?5KANTURU?5?$FN?$FL?5BattleOfMaya?5?$FN?5Stat@ DB '['
	DB	' KANTURU ][ BattleOfMaya ] State(%d) -> ENDCYCLE_MAYA3', 00H ; `string'
; Function compile flags: /Odtp /ZI
CONST	ENDS
_TEXT	SEGMENT
_this$ = -4						; size = 4
?SetState_ENDCYCLE_MAYA3@CKanturuBattleOfMaya@@QAEXXZ PROC ; CKanturuBattleOfMaya::SetState_ENDCYCLE_MAYA3
; _this$ = ecx

; 713  : {

  01800	55		 push	 ebp
  01801	8b ec		 mov	 ebp, esp
  01803	83 ec 44	 sub	 esp, 68			; 00000044H
  01806	53		 push	 ebx
  01807	56		 push	 esi
  01808	57		 push	 edi
  01809	89 4d fc	 mov	 DWORD PTR _this$[ebp], ecx

; 714  : 	LogAddC(5, "[ KANTURU ][ BattleOfMaya ] State(%d) -> ENDCYCLE_MAYA3",
; 715  : 		this->m_iBattleOfMayaState);

  0180c	8b 45 fc	 mov	 eax, DWORD PTR _this$[ebp]
  0180f	8b 48 08	 mov	 ecx, DWORD PTR [eax+8]
  01812	51		 push	 ecx
  01813	68 00 00 00 00	 push	 OFFSET ??_C@_0DI@DCAPAODF@?$FL?5KANTURU?5?$FN?$FL?5BattleOfMaya?5?$FN?5Stat@
  01818	6a 05		 push	 5
  0181a	ff 15 00 00 00
	00		 call	 DWORD PTR ?LogAddC@@3P6AXEPADZZA ; LogAddC
  01820	83 c4 0c	 add	 esp, 12			; 0000000cH

; 716  : 
; 717  : 	this->SetBattleOfMayaState(KANTURU_MAYA_ENDCYCLE3);

  01823	6a 10		 push	 16			; 00000010H
  01825	8b 4d fc	 mov	 ecx, DWORD PTR _this$[ebp]
  01828	e8 00 00 00 00	 call	 ?SetBattleOfMayaState@CKanturuBattleOfMaya@@QAEXH@Z ; CKanturuBattleOfMaya::SetBattleOfMayaState

; 718  : 	this->SetEntrancePermit(FALSE);

  0182d	6a 00		 push	 0
  0182f	8b 4d fc	 mov	 ecx, DWORD PTR _this$[ebp]
  01832	e8 00 00 00 00	 call	 ?SetEntrancePermit@CKanturuBattleOfMaya@@QAEXH@Z ; CKanturuBattleOfMaya::SetEntrancePermit

; 719  : }

  01837	5f		 pop	 edi
  01838	5e		 pop	 esi
  01839	5b		 pop	 ebx
  0183a	8b e5		 mov	 esp, ebp
  0183c	5d		 pop	 ebp
  0183d	c3		 ret	 0
?SetState_ENDCYCLE_MAYA3@CKanturuBattleOfMaya@@QAEXXZ ENDP ; CKanturuBattleOfMaya::SetState_ENDCYCLE_MAYA3
_TEXT	ENDS
PUBLIC	??_C@_0CO@GIDLLKAC@?$FL?5KANTURU?5?$FN?$FL?5BattleOfMaya?5?$FN?5Succ@ ; `string'
PUBLIC	??_C@_0CN@OMJCGL@?$FL?5KANTURU?5?$FN?$FL?5BattleOfMaya?5?$FN?5Stat@ ; `string'
EXTRN	?SendMsgKanturuBattleUser@CKanturuUtil@@QAAXPADZZ:PROC ; CKanturuUtil::SendMsgKanturuBattleUser
;	COMDAT ??_C@_0CO@GIDLLKAC@?$FL?5KANTURU?5?$FN?$FL?5BattleOfMaya?5?$FN?5Succ@
CONST	SEGMENT
??_C@_0CO@GIDLLKAC@?$FL?5KANTURU?5?$FN?$FL?5BattleOfMaya?5?$FN?5Succ@ DB '['
	DB	' KANTURU ][ BattleOfMaya ] Success Value[%d]', 00H ; `string'
CONST	ENDS
;	COMDAT ??_C@_0CN@OMJCGL@?$FL?5KANTURU?5?$FN?$FL?5BattleOfMaya?5?$FN?5Stat@
CONST	SEGMENT
??_C@_0CN@OMJCGL@?$FL?5KANTURU?5?$FN?$FL?5BattleOfMaya?5?$FN?5Stat@ DB '['
	DB	' KANTURU ][ BattleOfMaya ] State(%d) -> END', 00H ; `string'
; Function compile flags: /Odtp /ZI
CONST	ENDS
_TEXT	SEGMENT
_this$ = -4						; size = 4
?SetState_END@CKanturuBattleOfMaya@@QAEXXZ PROC		; CKanturuBattleOfMaya::SetState_END
; _this$ = ecx

; 724  : {

  01840	55		 push	 ebp
  01841	8b ec		 mov	 ebp, esp
  01843	83 ec 44	 sub	 esp, 68			; 00000044H
  01846	53		 push	 ebx
  01847	56		 push	 esi
  01848	57		 push	 edi
  01849	89 4d fc	 mov	 DWORD PTR _this$[ebp], ecx

; 725  : 	LogAddC(5, "[ KANTURU ][ BattleOfMaya ] State(%d) -> END",
; 726  : 		this->m_iBattleOfMayaState);

  0184c	8b 45 fc	 mov	 eax, DWORD PTR _this$[ebp]
  0184f	8b 48 08	 mov	 ecx, DWORD PTR [eax+8]
  01852	51		 push	 ecx
  01853	68 00 00 00 00	 push	 OFFSET ??_C@_0CN@OMJCGL@?$FL?5KANTURU?5?$FN?$FL?5BattleOfMaya?5?$FN?5Stat@
  01858	6a 05		 push	 5
  0185a	ff 15 00 00 00
	00		 call	 DWORD PTR ?LogAddC@@3P6AXEPADZZA ; LogAddC
  01860	83 c4 0c	 add	 esp, 12			; 0000000cH

; 727  : 
; 728  : 	this->SetBattleSceneState(-1);

  01863	6a ff		 push	 -1
  01865	8b 4d fc	 mov	 ecx, DWORD PTR _this$[ebp]
  01868	e8 00 00 00 00	 call	 ?SetBattleSceneState@CKanturuBattleOfMaya@@QAEXH@Z ; CKanturuBattleOfMaya::SetBattleSceneState

; 729  : 	this->SetBattleOfMayaState(KANTURU_MAYA_END);

  0186d	6a 11		 push	 17			; 00000011H
  0186f	8b 4d fc	 mov	 ecx, DWORD PTR _this$[ebp]
  01872	e8 00 00 00 00	 call	 ?SetBattleOfMayaState@CKanturuBattleOfMaya@@QAEXH@Z ; CKanturuBattleOfMaya::SetBattleOfMayaState

; 730  : 	this->SetEntrancePermit(FALSE);

  01877	6a 00		 push	 0
  01879	8b 4d fc	 mov	 ecx, DWORD PTR _this$[ebp]
  0187c	e8 00 00 00 00	 call	 ?SetEntrancePermit@CKanturuBattleOfMaya@@QAEXH@Z ; CKanturuBattleOfMaya::SetEntrancePermit

; 731  : 
; 732  : 	if ( this->GetSuccessValue() == TRUE )

  01881	8b 4d fc	 mov	 ecx, DWORD PTR _this$[ebp]
  01884	e8 00 00 00 00	 call	 ?GetSuccessValue@CKanturuBattleOfMaya@@QAEHXZ ; CKanturuBattleOfMaya::GetSuccessValue
  01889	83 f8 01	 cmp	 eax, 1
  0188c	75 1f		 jne	 SHORT $LN2@SetState_E

; 733  : 	{
; 734  : 		KANTURU_UTIL.SendMsgKanturuBattleUser(lMsg.Get(MSGGET(13, 34)));

  0188e	68 22 0d 00 00	 push	 3362			; 00000d22H
  01893	b9 00 00 00 00	 mov	 ecx, OFFSET ?lMsg@@3VCMsg@@A ; lMsg
  01898	e8 00 00 00 00	 call	 ?Get@CMsg@@QAEPADH@Z	; CMsg::Get
  0189d	50		 push	 eax
  0189e	68 00 00 00 00	 push	 OFFSET _KANTURU_UTIL
  018a3	e8 00 00 00 00	 call	 ?SendMsgKanturuBattleUser@CKanturuUtil@@QAAXPADZZ ; CKanturuUtil::SendMsgKanturuBattleUser
  018a8	83 c4 08	 add	 esp, 8

; 735  : 	}
; 736  : 	else

  018ab	eb 30		 jmp	 SHORT $LN1@SetState_E
$LN2@SetState_E:

; 737  : 	{
; 738  : 		KANTURU_UTIL.NotifyKanturuSuccessValue(this->GetSuccessValue());

  018ad	8b 4d fc	 mov	 ecx, DWORD PTR _this$[ebp]
  018b0	e8 00 00 00 00	 call	 ?GetSuccessValue@CKanturuBattleOfMaya@@QAEHXZ ; CKanturuBattleOfMaya::GetSuccessValue
  018b5	50		 push	 eax
  018b6	b9 00 00 00 00	 mov	 ecx, OFFSET _KANTURU_UTIL
  018bb	e8 00 00 00 00	 call	 ?NotifyKanturuSuccessValue@CKanturuUtil@@QAEXH@Z ; CKanturuUtil::NotifyKanturuSuccessValue

; 739  : 		KANTURU_UTIL.SendMsgKanturuBattleUser(lMsg.Get(MSGGET(13, 36)));

  018c0	68 24 0d 00 00	 push	 3364			; 00000d24H
  018c5	b9 00 00 00 00	 mov	 ecx, OFFSET ?lMsg@@3VCMsg@@A ; lMsg
  018ca	e8 00 00 00 00	 call	 ?Get@CMsg@@QAEPADH@Z	; CMsg::Get
  018cf	50		 push	 eax
  018d0	68 00 00 00 00	 push	 OFFSET _KANTURU_UTIL
  018d5	e8 00 00 00 00	 call	 ?SendMsgKanturuBattleUser@CKanturuUtil@@QAAXPADZZ ; CKanturuUtil::SendMsgKanturuBattleUser
  018da	83 c4 08	 add	 esp, 8
$LN1@SetState_E:

; 740  : 	}
; 741  : 	
; 742  : 	LogAddC(5, "[ KANTURU ][ BattleOfMaya ] Success Value[%d]",
; 743  : 		this->GetSuccessValue());

  018dd	8b 4d fc	 mov	 ecx, DWORD PTR _this$[ebp]
  018e0	e8 00 00 00 00	 call	 ?GetSuccessValue@CKanturuBattleOfMaya@@QAEHXZ ; CKanturuBattleOfMaya::GetSuccessValue
  018e5	50		 push	 eax
  018e6	68 00 00 00 00	 push	 OFFSET ??_C@_0CO@GIDLLKAC@?$FL?5KANTURU?5?$FN?$FL?5BattleOfMaya?5?$FN?5Succ@
  018eb	6a 05		 push	 5
  018ed	ff 15 00 00 00
	00		 call	 DWORD PTR ?LogAddC@@3P6AXEPADZZA ; LogAddC
  018f3	83 c4 0c	 add	 esp, 12			; 0000000cH

; 744  : }

  018f6	5f		 pop	 edi
  018f7	5e		 pop	 esi
  018f8	5b		 pop	 ebx
  018f9	8b e5		 mov	 esp, ebp
  018fb	5d		 pop	 ebp
  018fc	c3		 ret	 0
?SetState_END@CKanturuBattleOfMaya@@QAEXXZ ENDP		; CKanturuBattleOfMaya::SetState_END
_TEXT	ENDS
PUBLIC	??_C@_0DC@JILDKLPI@?$FL?5KANTURU?5?$FN?$FL?5BattleOfMaya?5?$FN?5Stat@ ; `string'
EXTRN	?MoveAllUser@CKanturuBattleUserMng@@QAEHH@Z:PROC ; CKanturuBattleUserMng::MoveAllUser
;	COMDAT ??_C@_0DC@JILDKLPI@?$FL?5KANTURU?5?$FN?$FL?5BattleOfMaya?5?$FN?5Stat@
CONST	SEGMENT
??_C@_0DC@JILDKLPI@?$FL?5KANTURU?5?$FN?$FL?5BattleOfMaya?5?$FN?5Stat@ DB '['
	DB	' KANTURU ][ BattleOfMaya ] State(%d) -> ENDCYCLE', 00H ; `string'
; Function compile flags: /Odtp /ZI
CONST	ENDS
_TEXT	SEGMENT
_this$ = -4						; size = 4
?SetState_ENDCYCLE@CKanturuBattleOfMaya@@QAEXXZ PROC	; CKanturuBattleOfMaya::SetState_ENDCYCLE
; _this$ = ecx

; 749  : {

  01900	55		 push	 ebp
  01901	8b ec		 mov	 ebp, esp
  01903	83 ec 44	 sub	 esp, 68			; 00000044H
  01906	53		 push	 ebx
  01907	56		 push	 esi
  01908	57		 push	 edi
  01909	89 4d fc	 mov	 DWORD PTR _this$[ebp], ecx

; 750  : 	LogAddC(5, "[ KANTURU ][ BattleOfMaya ] State(%d) -> ENDCYCLE",
; 751  : 		this->m_iBattleOfMayaState);

  0190c	8b 45 fc	 mov	 eax, DWORD PTR _this$[ebp]
  0190f	8b 48 08	 mov	 ecx, DWORD PTR [eax+8]
  01912	51		 push	 ecx
  01913	68 00 00 00 00	 push	 OFFSET ??_C@_0DC@JILDKLPI@?$FL?5KANTURU?5?$FN?$FL?5BattleOfMaya?5?$FN?5Stat@
  01918	6a 05		 push	 5
  0191a	ff 15 00 00 00
	00		 call	 DWORD PTR ?LogAddC@@3P6AXEPADZZA ; LogAddC
  01920	83 c4 0c	 add	 esp, 12			; 0000000cH

; 752  : 
; 753  : 	LogAddTD("[ KANTURU ][ BattleOfMaya ] State(%d) -> ENDCYCLE",
; 754  : 		this->m_iBattleOfMayaState);

  01923	8b 45 fc	 mov	 eax, DWORD PTR _this$[ebp]
  01926	8b 48 08	 mov	 ecx, DWORD PTR [eax+8]
  01929	51		 push	 ecx
  0192a	68 00 00 00 00	 push	 OFFSET ??_C@_0DC@JILDKLPI@?$FL?5KANTURU?5?$FN?$FL?5BattleOfMaya?5?$FN?5Stat@
  0192f	ff 15 00 00 00
	00		 call	 DWORD PTR ?LogAddTD@@3P6AXPADZZA ; LogAddTD
  01935	83 c4 08	 add	 esp, 8

; 755  : 
; 756  : 	this->SetBattleOfMayaState(KANTURU_MAYA_ENDCYCLE);

  01938	6a 12		 push	 18			; 00000012H
  0193a	8b 4d fc	 mov	 ecx, DWORD PTR _this$[ebp]
  0193d	e8 00 00 00 00	 call	 ?SetBattleOfMayaState@CKanturuBattleOfMaya@@QAEXH@Z ; CKanturuBattleOfMaya::SetBattleOfMayaState

; 757  : 	this->SetEntrancePermit(FALSE);

  01942	6a 00		 push	 0
  01944	8b 4d fc	 mov	 ecx, DWORD PTR _this$[ebp]
  01947	e8 00 00 00 00	 call	 ?SetEntrancePermit@CKanturuBattleOfMaya@@QAEXH@Z ; CKanturuBattleOfMaya::SetEntrancePermit

; 758  : 
; 759  : 	if ( this->GetSuccessValue() == FALSE )

  0194c	8b 4d fc	 mov	 ecx, DWORD PTR _this$[ebp]
  0194f	e8 00 00 00 00	 call	 ?GetSuccessValue@CKanturuBattleOfMaya@@QAEHXZ ; CKanturuBattleOfMaya::GetSuccessValue
  01954	85 c0		 test	 eax, eax
  01956	75 19		 jne	 SHORT $LN2@SetState_E@2

; 760  : 	{
; 761  : 		g_KanturuBattleUserMng.MoveAllUser(137);

  01958	68 89 00 00 00	 push	 137			; 00000089H
  0195d	b9 00 00 00 00	 mov	 ecx, OFFSET ?g_KanturuBattleUserMng@@3VCKanturuBattleUserMng@@A ; g_KanturuBattleUserMng
  01962	e8 00 00 00 00	 call	 ?MoveAllUser@CKanturuBattleUserMng@@QAEHH@Z ; CKanturuBattleUserMng::MoveAllUser

; 762  : 		g_KanturuBattleUserMng.ResetAllData();

  01967	b9 00 00 00 00	 mov	 ecx, OFFSET ?g_KanturuBattleUserMng@@3VCKanturuBattleUserMng@@A ; g_KanturuBattleUserMng
  0196c	e8 00 00 00 00	 call	 ?ResetAllData@CKanturuBattleUserMng@@QAEXXZ ; CKanturuBattleUserMng::ResetAllData
$LN2@SetState_E@2:

; 763  : 	}
; 764  : }

  01971	5f		 pop	 edi
  01972	5e		 pop	 esi
  01973	5b		 pop	 ebx
  01974	8b e5		 mov	 esp, ebp
  01976	5d		 pop	 ebp
  01977	c3		 ret	 0
?SetState_ENDCYCLE@CKanturuBattleOfMaya@@QAEXXZ ENDP	; CKanturuBattleOfMaya::SetState_ENDCYCLE
; Function compile flags: /Odtp /ZI
_this$ = -4						; size = 4
?ProcState_NONE@CKanturuBattleOfMaya@@QAEXXZ PROC	; CKanturuBattleOfMaya::ProcState_NONE
; _this$ = ecx

; 770  : {

  01980	55		 push	 ebp
  01981	8b ec		 mov	 ebp, esp
  01983	83 ec 44	 sub	 esp, 68			; 00000044H
  01986	53		 push	 ebx
  01987	56		 push	 esi
  01988	57		 push	 edi
  01989	89 4d fc	 mov	 DWORD PTR _this$[ebp], ecx

; 771  : 	return;
; 772  : }

  0198c	5f		 pop	 edi
  0198d	5e		 pop	 esi
  0198e	5b		 pop	 ebx
  0198f	8b e5		 mov	 esp, ebp
  01991	5d		 pop	 ebp
  01992	c3		 ret	 0
?ProcState_NONE@CKanturuBattleOfMaya@@QAEXXZ ENDP	; CKanturuBattleOfMaya::ProcState_NONE
; Function compile flags: /Odtp /ZI
_this$ = -4						; size = 4
?ProcState_STANBY1@CKanturuBattleOfMaya@@QAEXXZ PROC	; CKanturuBattleOfMaya::ProcState_STANBY1
; _this$ = ecx

; 776  : {

  019a0	55		 push	 ebp
  019a1	8b ec		 mov	 ebp, esp
  019a3	83 ec 44	 sub	 esp, 68			; 00000044H
  019a6	53		 push	 ebx
  019a7	56		 push	 esi
  019a8	57		 push	 edi
  019a9	89 4d fc	 mov	 DWORD PTR _this$[ebp], ecx

; 777  : 	return;
; 778  : }

  019ac	5f		 pop	 edi
  019ad	5e		 pop	 esi
  019ae	5b		 pop	 ebx
  019af	8b e5		 mov	 esp, ebp
  019b1	5d		 pop	 ebp
  019b2	c3		 ret	 0
?ProcState_STANBY1@CKanturuBattleOfMaya@@QAEXXZ ENDP	; CKanturuBattleOfMaya::ProcState_STANBY1
; Function compile flags: /Odtp /ZI
_this$ = -4						; size = 4
?ProcState_NOTIFY1@CKanturuBattleOfMaya@@QAEXXZ PROC	; CKanturuBattleOfMaya::ProcState_NOTIFY1
; _this$ = ecx

; 782  : {

  019c0	55		 push	 ebp
  019c1	8b ec		 mov	 ebp, esp
  019c3	83 ec 44	 sub	 esp, 68			; 00000044H
  019c6	53		 push	 ebx
  019c7	56		 push	 esi
  019c8	57		 push	 edi
  019c9	89 4d fc	 mov	 DWORD PTR _this$[ebp], ecx

; 783  : 	return;
; 784  : }

  019cc	5f		 pop	 edi
  019cd	5e		 pop	 esi
  019ce	5b		 pop	 ebx
  019cf	8b e5		 mov	 esp, ebp
  019d1	5d		 pop	 ebp
  019d2	c3		 ret	 0
?ProcState_NOTIFY1@CKanturuBattleOfMaya@@QAEXXZ ENDP	; CKanturuBattleOfMaya::ProcState_NOTIFY1
_TEXT	ENDS
PUBLIC	?GetAliveMonsterCount@CKanturuMonsterMng@@QAEHXZ ; CKanturuMonsterMng::GetAliveMonsterCount
PUBLIC	??_C@_0DH@CMOLGDMA@?$FL?5KANTURU?5?$FN?$FL?5BattleOfMaya?5?$FN?5Succ@ ; `string'
EXTRN	?NotifyKanturuUserMonsterCount@CKanturuUtil@@QAEXHH@Z:PROC ; CKanturuUtil::NotifyKanturuUserMonsterCount
EXTRN	?GetUserCount@CKanturuBattleUserMng@@QAEHXZ:PROC ; CKanturuBattleUserMng::GetUserCount
EXTRN	?KanturuMayaAct_IceStorm@CKanturuMaya@@QAEXH@Z:PROC ; CKanturuMaya::KanturuMayaAct_IceStorm
EXTRN	?IsExistAliveMonster@CKanturuMonsterMng@@QAEHXZ:PROC ; CKanturuMonsterMng::IsExistAliveMonster
;	COMDAT ??_C@_0DH@CMOLGDMA@?$FL?5KANTURU?5?$FN?$FL?5BattleOfMaya?5?$FN?5Succ@
CONST	SEGMENT
??_C@_0DH@CMOLGDMA@?$FL?5KANTURU?5?$FN?$FL?5BattleOfMaya?5?$FN?5Succ@ DB '['
	DB	' KANTURU ][ BattleOfMaya ] Success!! - DetailState:%d', 00H ; `string'
; Function compile flags: /Odtp /ZI
CONST	ENDS
_TEXT	SEGMENT
_this$ = -4						; size = 4
?ProcState_START1@CKanturuBattleOfMaya@@QAEXXZ PROC	; CKanturuBattleOfMaya::ProcState_START1
; _this$ = ecx

; 788  : {

  019e0	55		 push	 ebp
  019e1	8b ec		 mov	 ebp, esp
  019e3	83 ec 44	 sub	 esp, 68			; 00000044H
  019e6	53		 push	 ebx
  019e7	56		 push	 esi
  019e8	57		 push	 edi
  019e9	89 4d fc	 mov	 DWORD PTR _this$[ebp], ecx

; 789  : 	if ( g_KanturuMonsterMng.IsExistAliveMonster() == FALSE )

  019ec	b9 00 00 00 00	 mov	 ecx, OFFSET ?g_KanturuMonsterMng@@3VCKanturuMonsterMng@@A ; g_KanturuMonsterMng
  019f1	e8 00 00 00 00	 call	 ?IsExistAliveMonster@CKanturuMonsterMng@@QAEHXZ ; CKanturuMonsterMng::IsExistAliveMonster
  019f6	85 c0		 test	 eax, eax
  019f8	75 30		 jne	 SHORT $LN2@ProcState_

; 790  : 	{
; 791  : 		this->SetSuccessValue(TRUE);

  019fa	6a 01		 push	 1
  019fc	8b 4d fc	 mov	 ecx, DWORD PTR _this$[ebp]
  019ff	e8 00 00 00 00	 call	 ?SetSuccessValue@CKanturuBattleOfMaya@@QAEXH@Z ; CKanturuBattleOfMaya::SetSuccessValue

; 792  : 
; 793  : 		LogAddTD("[ KANTURU ][ BattleOfMaya ] Success!! - DetailState:%d",
; 794  : 			this->m_iBattleOfMayaState);

  01a04	8b 45 fc	 mov	 eax, DWORD PTR _this$[ebp]
  01a07	8b 48 08	 mov	 ecx, DWORD PTR [eax+8]
  01a0a	51		 push	 ecx
  01a0b	68 00 00 00 00	 push	 OFFSET ??_C@_0DH@CMOLGDMA@?$FL?5KANTURU?5?$FN?$FL?5BattleOfMaya?5?$FN?5Succ@
  01a10	ff 15 00 00 00
	00		 call	 DWORD PTR ?LogAddTD@@3P6AXPADZZA ; LogAddTD
  01a16	83 c4 08	 add	 esp, 8

; 795  : 
; 796  : 		this->SetNextState(this->m_iBattleOfMayaState);

  01a19	8b 45 fc	 mov	 eax, DWORD PTR _this$[ebp]
  01a1c	8b 48 08	 mov	 ecx, DWORD PTR [eax+8]
  01a1f	51		 push	 ecx
  01a20	8b 4d fc	 mov	 ecx, DWORD PTR _this$[ebp]
  01a23	e8 00 00 00 00	 call	 ?SetNextState@CKanturuBattleOfMaya@@QAEXH@Z ; CKanturuBattleOfMaya::SetNextState

; 797  : 	}
; 798  : 	else

  01a28	eb 38		 jmp	 SHORT $LN3@ProcState_
$LN2@ProcState_:

; 799  : 	{
; 800  : 		this->m_KanturuMaya.KanturuMayaAct_IceStorm(this->m_iMayaIceStormUsingRate);

  01a2a	8b 45 fc	 mov	 eax, DWORD PTR _this$[ebp]
  01a2d	8b 88 28 02 00
	00		 mov	 ecx, DWORD PTR [eax+552]
  01a33	51		 push	 ecx
  01a34	8b 4d fc	 mov	 ecx, DWORD PTR _this$[ebp]
  01a37	81 c1 dc 01 00
	00		 add	 ecx, 476		; 000001dcH
  01a3d	e8 00 00 00 00	 call	 ?KanturuMayaAct_IceStorm@CKanturuMaya@@QAEXH@Z ; CKanturuMaya::KanturuMayaAct_IceStorm

; 801  : 		KANTURU_UTIL.NotifyKanturuUserMonsterCount(g_KanturuMonsterMng.GetAliveMonsterCount(),
; 802  : 			g_KanturuBattleUserMng.GetUserCount());

  01a42	b9 00 00 00 00	 mov	 ecx, OFFSET ?g_KanturuBattleUserMng@@3VCKanturuBattleUserMng@@A ; g_KanturuBattleUserMng
  01a47	e8 00 00 00 00	 call	 ?GetUserCount@CKanturuBattleUserMng@@QAEHXZ ; CKanturuBattleUserMng::GetUserCount
  01a4c	50		 push	 eax
  01a4d	b9 00 00 00 00	 mov	 ecx, OFFSET ?g_KanturuMonsterMng@@3VCKanturuMonsterMng@@A ; g_KanturuMonsterMng
  01a52	e8 00 00 00 00	 call	 ?GetAliveMonsterCount@CKanturuMonsterMng@@QAEHXZ ; CKanturuMonsterMng::GetAliveMonsterCount
  01a57	50		 push	 eax
  01a58	b9 00 00 00 00	 mov	 ecx, OFFSET _KANTURU_UTIL
  01a5d	e8 00 00 00 00	 call	 ?NotifyKanturuUserMonsterCount@CKanturuUtil@@QAEXHH@Z ; CKanturuUtil::NotifyKanturuUserMonsterCount
$LN3@ProcState_:

; 803  : 	}
; 804  : }

  01a62	5f		 pop	 edi
  01a63	5e		 pop	 esi
  01a64	5b		 pop	 ebx
  01a65	8b e5		 mov	 esp, ebp
  01a67	5d		 pop	 ebp
  01a68	c3		 ret	 0
?ProcState_START1@CKanturuBattleOfMaya@@QAEXXZ ENDP	; CKanturuBattleOfMaya::ProcState_START1
; Function compile flags: /Odtp /ZI
; File d:\projects\exteam6.3\source\gameserver\gameserver\kanturumonstermng.h
_TEXT	ENDS
;	COMDAT ?GetAliveMonsterCount@CKanturuMonsterMng@@QAEHXZ
_TEXT	SEGMENT
_this$ = -4						; size = 4
?GetAliveMonsterCount@CKanturuMonsterMng@@QAEHXZ PROC	; CKanturuMonsterMng::GetAliveMonsterCount, COMDAT
; _this$ = ecx

; 48   : 	int GetAliveMonsterCount(){return this->m_iAliveMonsterCount;}

  00000	55		 push	 ebp
  00001	8b ec		 mov	 ebp, esp
  00003	83 ec 44	 sub	 esp, 68			; 00000044H
  00006	53		 push	 ebx
  00007	56		 push	 esi
  00008	57		 push	 edi
  00009	89 4d fc	 mov	 DWORD PTR _this$[ebp], ecx
  0000c	8b 45 fc	 mov	 eax, DWORD PTR _this$[ebp]
  0000f	8b 80 6c 14 00
	00		 mov	 eax, DWORD PTR [eax+5228]
  00015	5f		 pop	 edi
  00016	5e		 pop	 esi
  00017	5b		 pop	 ebx
  00018	8b e5		 mov	 esp, ebp
  0001a	5d		 pop	 ebp
  0001b	c3		 ret	 0
?GetAliveMonsterCount@CKanturuMonsterMng@@QAEHXZ ENDP	; CKanturuMonsterMng::GetAliveMonsterCount
_TEXT	ENDS
PUBLIC	?ChangeAI@CKanturuBattleOfMaya@@QAEXH@Z		; CKanturuBattleOfMaya::ChangeAI
PUBLIC	?GetElapsedTime@CKanturuStateInfo@@QAEHXZ	; CKanturuStateInfo::GetElapsedTime
EXTRN	?KanturuMayaAct_Hands@CKanturuMaya@@QAEXXZ:PROC	; CKanturuMaya::KanturuMayaAct_Hands
EXTRN	?LogBattleWinnerUserInfo@CKanturuBattleUserMng@@QAEXEH@Z:PROC ; CKanturuBattleUserMng::LogBattleWinnerUserInfo
EXTRN	?gObj@@3PAUOBJECTSTRUCT@@A:DWORD		; gObj
; Function compile flags: /Odtp /ZI
; File d:\projects\exteam6.3\source\gameserver\gameserver\kanturubattleofmaya.cpp
_TEXT	SEGMENT
_this$ = -4						; size = 4
?ProcState_MAYA1@CKanturuBattleOfMaya@@QAEXXZ PROC	; CKanturuBattleOfMaya::ProcState_MAYA1
; _this$ = ecx

; 808  : {

  01a70	55		 push	 ebp
  01a71	8b ec		 mov	 ebp, esp
  01a73	83 ec 44	 sub	 esp, 68			; 00000044H
  01a76	53		 push	 ebx
  01a77	56		 push	 esi
  01a78	57		 push	 edi
  01a79	89 4d fc	 mov	 DWORD PTR _this$[ebp], ecx

; 809  : 	if(this->m_iMayaLeftHandObjIndex == -1)//Season 4.5 addon

  01a7c	8b 45 fc	 mov	 eax, DWORD PTR _this$[ebp]
  01a7f	83 b8 f4 01 00
	00 ff		 cmp	 DWORD PTR [eax+500], -1
  01a86	75 05		 jne	 SHORT $LN5@ProcState_@2

; 810  : 	{
; 811  : 		return;

  01a88	e9 fd 00 00 00	 jmp	 $LN6@ProcState_@2
$LN5@ProcState_@2:

; 812  : 	}
; 813  : 
; 814  : 	if ( gObj[this->m_iMayaLeftHandObjIndex].Live == FALSE )

  01a8d	8b 45 fc	 mov	 eax, DWORD PTR _this$[ebp]
  01a90	8b 88 f4 01 00
	00		 mov	 ecx, DWORD PTR [eax+500]
  01a96	69 c9 38 2b 00
	00		 imul	 ecx, 11064		; 00002b38H
  01a9c	8b 15 00 00 00
	00		 mov	 edx, DWORD PTR ?gObj@@3PAUOBJECTSTRUCT@@A ; gObj
  01aa2	0f b6 44 0a 6a	 movzx	 eax, BYTE PTR [edx+ecx+106]
  01aa7	85 c0		 test	 eax, eax
  01aa9	0f 85 a4 00 00
	00		 jne	 $LN4@ProcState_@2

; 815  : 	{
; 816  : 		if ( this->m_iMayaHandDieTimeCounter == 0 )

  01aaf	8b 45 fc	 mov	 eax, DWORD PTR _this$[ebp]
  01ab2	83 b8 f0 01 00
	00 00		 cmp	 DWORD PTR [eax+496], 0
  01ab9	75 71		 jne	 SHORT $LN3@ProcState_@2

; 817  : 		{
; 818  : 			this->SetSuccessValue(TRUE);

  01abb	6a 01		 push	 1
  01abd	8b 4d fc	 mov	 ecx, DWORD PTR _this$[ebp]
  01ac0	e8 00 00 00 00	 call	 ?SetSuccessValue@CKanturuBattleOfMaya@@QAEXH@Z ; CKanturuBattleOfMaya::SetSuccessValue

; 819  : 			this->SetSceneSuccessValue(TRUE);

  01ac5	6a 01		 push	 1
  01ac7	8b 4d fc	 mov	 ecx, DWORD PTR _this$[ebp]
  01aca	e8 00 00 00 00	 call	 ?SetSceneSuccessValue@CKanturuBattleOfMaya@@QAEXH@Z ; CKanturuBattleOfMaya::SetSceneSuccessValue

; 820  : 
; 821  : 			LogAddTD("[ KANTURU ][ BattleOfMaya ] Success!! - DetailState:%d",
; 822  : 				this->m_iBattleOfMayaState);

  01acf	8b 45 fc	 mov	 eax, DWORD PTR _this$[ebp]
  01ad2	8b 48 08	 mov	 ecx, DWORD PTR [eax+8]
  01ad5	51		 push	 ecx
  01ad6	68 00 00 00 00	 push	 OFFSET ??_C@_0DH@CMOLGDMA@?$FL?5KANTURU?5?$FN?$FL?5BattleOfMaya?5?$FN?5Succ@
  01adb	ff 15 00 00 00
	00		 call	 DWORD PTR ?LogAddTD@@3P6AXPADZZA ; LogAddTD
  01ae1	83 c4 08	 add	 esp, 8

; 823  : 
; 824  : 			g_KanturuBattleUserMng.LogBattleWinnerUserInfo(0,
; 825  : 				this->m_BattleTimeInfo[this->m_iSceneState].GetElapsedTime());

  01ae4	8b 45 fc	 mov	 eax, DWORD PTR _this$[ebp]
  01ae7	8b 48 0c	 mov	 ecx, DWORD PTR [eax+12]
  01aea	6b c9 14	 imul	 ecx, 20			; 00000014H
  01aed	8b 55 fc	 mov	 edx, DWORD PTR _this$[ebp]
  01af0	8d 4c 0a 10	 lea	 ecx, DWORD PTR [edx+ecx+16]
  01af4	e8 00 00 00 00	 call	 ?GetElapsedTime@CKanturuStateInfo@@QAEHXZ ; CKanturuStateInfo::GetElapsedTime
  01af9	50		 push	 eax
  01afa	6a 00		 push	 0
  01afc	b9 00 00 00 00	 mov	 ecx, OFFSET ?g_KanturuBattleUserMng@@3VCKanturuBattleUserMng@@A ; g_KanturuBattleUserMng
  01b01	e8 00 00 00 00	 call	 ?LogBattleWinnerUserInfo@CKanturuBattleUserMng@@QAEXEH@Z ; CKanturuBattleUserMng::LogBattleWinnerUserInfo

; 826  : 
; 827  : 			KANTURU_UTIL.NotifyKanturuUserMonsterCount(0,
; 828  : 				g_KanturuBattleUserMng.GetUserCount());

  01b06	b9 00 00 00 00	 mov	 ecx, OFFSET ?g_KanturuBattleUserMng@@3VCKanturuBattleUserMng@@A ; g_KanturuBattleUserMng
  01b0b	e8 00 00 00 00	 call	 ?GetUserCount@CKanturuBattleUserMng@@QAEHXZ ; CKanturuBattleUserMng::GetUserCount
  01b10	50		 push	 eax
  01b11	6a 00		 push	 0
  01b13	b9 00 00 00 00	 mov	 ecx, OFFSET _KANTURU_UTIL
  01b18	e8 00 00 00 00	 call	 ?NotifyKanturuUserMonsterCount@CKanturuUtil@@QAEXHH@Z ; CKanturuUtil::NotifyKanturuUserMonsterCount

; 829  : 
; 830  : 			this->m_iMayaHandDieTimeCounter = GetTickCount();

  01b1d	ff 15 00 00 00
	00		 call	 DWORD PTR __imp__GetTickCount@0
  01b23	8b 4d fc	 mov	 ecx, DWORD PTR _this$[ebp]
  01b26	89 81 f0 01 00
	00		 mov	 DWORD PTR [ecx+496], eax
$LN3@ProcState_@2:

; 831  : 		}
; 832  : 
; 833  : 		if ( (GetTickCount() - this->m_iMayaHandDieTimeCounter ) >= 3000 )

  01b2c	ff 15 00 00 00
	00		 call	 DWORD PTR __imp__GetTickCount@0
  01b32	8b 4d fc	 mov	 ecx, DWORD PTR _this$[ebp]
  01b35	2b 81 f0 01 00
	00		 sub	 eax, DWORD PTR [ecx+496]
  01b3b	3d b8 0b 00 00	 cmp	 eax, 3000		; 00000bb8H
  01b40	72 0f		 jb	 SHORT $LN2@ProcState_@2

; 834  : 		{
; 835  : 			this->SetNextState(this->m_iBattleOfMayaState);

  01b42	8b 45 fc	 mov	 eax, DWORD PTR _this$[ebp]
  01b45	8b 48 08	 mov	 ecx, DWORD PTR [eax+8]
  01b48	51		 push	 ecx
  01b49	8b 4d fc	 mov	 ecx, DWORD PTR _this$[ebp]
  01b4c	e8 00 00 00 00	 call	 ?SetNextState@CKanturuBattleOfMaya@@QAEXH@Z ; CKanturuBattleOfMaya::SetNextState
$LN2@ProcState_@2:

; 836  : 		}
; 837  : 	}
; 838  : 	else

  01b51	eb 37		 jmp	 SHORT $LN6@ProcState_@2
$LN4@ProcState_@2:

; 839  : 	{
; 840  : 		KANTURU_UTIL.NotifyKanturuUserMonsterCount(1,
; 841  : 			g_KanturuBattleUserMng.GetUserCount());

  01b53	b9 00 00 00 00	 mov	 ecx, OFFSET ?g_KanturuBattleUserMng@@3VCKanturuBattleUserMng@@A ; g_KanturuBattleUserMng
  01b58	e8 00 00 00 00	 call	 ?GetUserCount@CKanturuBattleUserMng@@QAEHXZ ; CKanturuBattleUserMng::GetUserCount
  01b5d	50		 push	 eax
  01b5e	6a 01		 push	 1
  01b60	b9 00 00 00 00	 mov	 ecx, OFFSET _KANTURU_UTIL
  01b65	e8 00 00 00 00	 call	 ?NotifyKanturuUserMonsterCount@CKanturuUtil@@QAEXHH@Z ; CKanturuUtil::NotifyKanturuUserMonsterCount

; 842  : 
; 843  : 		this->ChangeAI(this->m_iMayaHandGroupNumber[0]);

  01b6a	8b 45 fc	 mov	 eax, DWORD PTR _this$[ebp]
  01b6d	8b 88 18 02 00
	00		 mov	 ecx, DWORD PTR [eax+536]
  01b73	51		 push	 ecx
  01b74	8b 4d fc	 mov	 ecx, DWORD PTR _this$[ebp]
  01b77	e8 00 00 00 00	 call	 ?ChangeAI@CKanturuBattleOfMaya@@QAEXH@Z ; CKanturuBattleOfMaya::ChangeAI

; 844  : 		this->m_KanturuMaya.KanturuMayaAct_Hands();

  01b7c	8b 4d fc	 mov	 ecx, DWORD PTR _this$[ebp]
  01b7f	81 c1 dc 01 00
	00		 add	 ecx, 476		; 000001dcH
  01b85	e8 00 00 00 00	 call	 ?KanturuMayaAct_Hands@CKanturuMaya@@QAEXXZ ; CKanturuMaya::KanturuMayaAct_Hands
$LN6@ProcState_@2:

; 845  : 	}
; 846  : }

  01b8a	5f		 pop	 edi
  01b8b	5e		 pop	 esi
  01b8c	5b		 pop	 ebx
  01b8d	8b e5		 mov	 esp, ebp
  01b8f	5d		 pop	 ebp
  01b90	c3		 ret	 0
?ProcState_MAYA1@CKanturuBattleOfMaya@@QAEXXZ ENDP	; CKanturuBattleOfMaya::ProcState_MAYA1
_TEXT	ENDS
PUBLIC	?GetAppliedTime@CKanturuStateInfo@@QAEHXZ	; CKanturuStateInfo::GetAppliedTime
; Function compile flags: /Odtp /ZI
; File d:\projects\exteam6.3\source\gameserver\gameserver\kanturustateinfo.h
;	COMDAT ?GetElapsedTime@CKanturuStateInfo@@QAEHXZ
_TEXT	SEGMENT
_iElapsedTime$ = -8					; size = 4
_this$ = -4						; size = 4
?GetElapsedTime@CKanturuStateInfo@@QAEHXZ PROC		; CKanturuStateInfo::GetElapsedTime, COMDAT
; _this$ = ecx

; 64   : 	{

  00000	55		 push	 ebp
  00001	8b ec		 mov	 ebp, esp
  00003	83 ec 48	 sub	 esp, 72			; 00000048H
  00006	53		 push	 ebx
  00007	56		 push	 esi
  00008	57		 push	 edi
  00009	89 4d fc	 mov	 DWORD PTR _this$[ebp], ecx

; 65   : 		int iElapsedTime = GetTickCount() - this->GetAppliedTime();

  0000c	ff 15 00 00 00
	00		 call	 DWORD PTR __imp__GetTickCount@0
  00012	8b f0		 mov	 esi, eax
  00014	8b 4d fc	 mov	 ecx, DWORD PTR _this$[ebp]
  00017	e8 00 00 00 00	 call	 ?GetAppliedTime@CKanturuStateInfo@@QAEHXZ ; CKanturuStateInfo::GetAppliedTime
  0001c	2b f0		 sub	 esi, eax
  0001e	89 75 f8	 mov	 DWORD PTR _iElapsedTime$[ebp], esi

; 66   : 		return iElapsedTime;

  00021	8b 45 f8	 mov	 eax, DWORD PTR _iElapsedTime$[ebp]

; 67   : 	}

  00024	5f		 pop	 edi
  00025	5e		 pop	 esi
  00026	5b		 pop	 ebx
  00027	8b e5		 mov	 esp, ebp
  00029	5d		 pop	 ebp
  0002a	c3		 ret	 0
?GetElapsedTime@CKanturuStateInfo@@QAEHXZ ENDP		; CKanturuStateInfo::GetElapsedTime
; Function compile flags: /Odtp /ZI
_TEXT	ENDS
;	COMDAT ?GetAppliedTime@CKanturuStateInfo@@QAEHXZ
_TEXT	SEGMENT
_this$ = -4						; size = 4
?GetAppliedTime@CKanturuStateInfo@@QAEHXZ PROC		; CKanturuStateInfo::GetAppliedTime, COMDAT
; _this$ = ecx

; 59   : 	{

  00000	55		 push	 ebp
  00001	8b ec		 mov	 ebp, esp
  00003	83 ec 44	 sub	 esp, 68			; 00000044H
  00006	53		 push	 ebx
  00007	56		 push	 esi
  00008	57		 push	 edi
  00009	89 4d fc	 mov	 DWORD PTR _this$[ebp], ecx

; 60   : 		return this->m_dwAppliedTickCount;

  0000c	8b 45 fc	 mov	 eax, DWORD PTR _this$[ebp]
  0000f	8b 40 10	 mov	 eax, DWORD PTR [eax+16]

; 61   : 	}

  00012	5f		 pop	 edi
  00013	5e		 pop	 esi
  00014	5b		 pop	 ebx
  00015	8b e5		 mov	 esp, ebp
  00017	5d		 pop	 ebp
  00018	c3		 ret	 0
?GetAppliedTime@CKanturuStateInfo@@QAEHXZ ENDP		; CKanturuStateInfo::GetAppliedTime
; Function compile flags: /Odtp /ZI
; File d:\projects\exteam6.3\source\gameserver\gameserver\kanturubattleofmaya.cpp
_TEXT	ENDS
_TEXT	SEGMENT
_this$ = -4						; size = 4
?ProcState_END_MAYA1@CKanturuBattleOfMaya@@QAEXXZ PROC	; CKanturuBattleOfMaya::ProcState_END_MAYA1
; _this$ = ecx

; 851  : {

  01ba0	55		 push	 ebp
  01ba1	8b ec		 mov	 ebp, esp
  01ba3	83 ec 44	 sub	 esp, 68			; 00000044H
  01ba6	53		 push	 ebx
  01ba7	56		 push	 esi
  01ba8	57		 push	 edi
  01ba9	89 4d fc	 mov	 DWORD PTR _this$[ebp], ecx

; 852  : 	return;
; 853  : }

  01bac	5f		 pop	 edi
  01bad	5e		 pop	 esi
  01bae	5b		 pop	 ebx
  01baf	8b e5		 mov	 esp, ebp
  01bb1	5d		 pop	 ebp
  01bb2	c3		 ret	 0
?ProcState_END_MAYA1@CKanturuBattleOfMaya@@QAEXXZ ENDP	; CKanturuBattleOfMaya::ProcState_END_MAYA1
; Function compile flags: /Odtp /ZI
_this$ = -4						; size = 4
?ProcState_ENDCYCLE_MAYA1@CKanturuBattleOfMaya@@QAEXXZ PROC ; CKanturuBattleOfMaya::ProcState_ENDCYCLE_MAYA1
; _this$ = ecx

; 857  : {

  01bc0	55		 push	 ebp
  01bc1	8b ec		 mov	 ebp, esp
  01bc3	83 ec 44	 sub	 esp, 68			; 00000044H
  01bc6	53		 push	 ebx
  01bc7	56		 push	 esi
  01bc8	57		 push	 edi
  01bc9	89 4d fc	 mov	 DWORD PTR _this$[ebp], ecx

; 858  : 	return;
; 859  : }

  01bcc	5f		 pop	 edi
  01bcd	5e		 pop	 esi
  01bce	5b		 pop	 ebx
  01bcf	8b e5		 mov	 esp, ebp
  01bd1	5d		 pop	 ebp
  01bd2	c3		 ret	 0
?ProcState_ENDCYCLE_MAYA1@CKanturuBattleOfMaya@@QAEXXZ ENDP ; CKanturuBattleOfMaya::ProcState_ENDCYCLE_MAYA1
; Function compile flags: /Odtp /ZI
_this$ = -4						; size = 4
?ProcState_STANBY2@CKanturuBattleOfMaya@@QAEXXZ PROC	; CKanturuBattleOfMaya::ProcState_STANBY2
; _this$ = ecx

; 863  : {

  01be0	55		 push	 ebp
  01be1	8b ec		 mov	 ebp, esp
  01be3	83 ec 44	 sub	 esp, 68			; 00000044H
  01be6	53		 push	 ebx
  01be7	56		 push	 esi
  01be8	57		 push	 edi
  01be9	89 4d fc	 mov	 DWORD PTR _this$[ebp], ecx

; 864  : 	return;
; 865  : }

  01bec	5f		 pop	 edi
  01bed	5e		 pop	 esi
  01bee	5b		 pop	 ebx
  01bef	8b e5		 mov	 esp, ebp
  01bf1	5d		 pop	 ebp
  01bf2	c3		 ret	 0
?ProcState_STANBY2@CKanturuBattleOfMaya@@QAEXXZ ENDP	; CKanturuBattleOfMaya::ProcState_STANBY2
; Function compile flags: /Odtp /ZI
_this$ = -4						; size = 4
?ProcState_START2@CKanturuBattleOfMaya@@QAEXXZ PROC	; CKanturuBattleOfMaya::ProcState_START2
; _this$ = ecx

; 870  : {

  01c00	55		 push	 ebp
  01c01	8b ec		 mov	 ebp, esp
  01c03	83 ec 44	 sub	 esp, 68			; 00000044H
  01c06	53		 push	 ebx
  01c07	56		 push	 esi
  01c08	57		 push	 edi
  01c09	89 4d fc	 mov	 DWORD PTR _this$[ebp], ecx

; 871  : 	if ( g_KanturuMonsterMng.IsExistAliveMonster() == FALSE )

  01c0c	b9 00 00 00 00	 mov	 ecx, OFFSET ?g_KanturuMonsterMng@@3VCKanturuMonsterMng@@A ; g_KanturuMonsterMng
  01c11	e8 00 00 00 00	 call	 ?IsExistAliveMonster@CKanturuMonsterMng@@QAEHXZ ; CKanturuMonsterMng::IsExistAliveMonster
  01c16	85 c0		 test	 eax, eax
  01c18	75 30		 jne	 SHORT $LN2@ProcState_@3

; 872  : 	{
; 873  : 		this->SetSuccessValue(TRUE);

  01c1a	6a 01		 push	 1
  01c1c	8b 4d fc	 mov	 ecx, DWORD PTR _this$[ebp]
  01c1f	e8 00 00 00 00	 call	 ?SetSuccessValue@CKanturuBattleOfMaya@@QAEXH@Z ; CKanturuBattleOfMaya::SetSuccessValue

; 874  : 
; 875  : 		LogAddTD("[ KANTURU ][ BattleOfMaya ] Success!! - DetailState:%d",
; 876  : 			this->m_iBattleOfMayaState);

  01c24	8b 45 fc	 mov	 eax, DWORD PTR _this$[ebp]
  01c27	8b 48 08	 mov	 ecx, DWORD PTR [eax+8]
  01c2a	51		 push	 ecx
  01c2b	68 00 00 00 00	 push	 OFFSET ??_C@_0DH@CMOLGDMA@?$FL?5KANTURU?5?$FN?$FL?5BattleOfMaya?5?$FN?5Succ@
  01c30	ff 15 00 00 00
	00		 call	 DWORD PTR ?LogAddTD@@3P6AXPADZZA ; LogAddTD
  01c36	83 c4 08	 add	 esp, 8

; 877  : 
; 878  : 		this->SetNextState(this->m_iBattleOfMayaState);

  01c39	8b 45 fc	 mov	 eax, DWORD PTR _this$[ebp]
  01c3c	8b 48 08	 mov	 ecx, DWORD PTR [eax+8]
  01c3f	51		 push	 ecx
  01c40	8b 4d fc	 mov	 ecx, DWORD PTR _this$[ebp]
  01c43	e8 00 00 00 00	 call	 ?SetNextState@CKanturuBattleOfMaya@@QAEXH@Z ; CKanturuBattleOfMaya::SetNextState

; 879  : 	}
; 880  : 	else

  01c48	eb 38		 jmp	 SHORT $LN3@ProcState_@3
$LN2@ProcState_@3:

; 881  : 	{
; 882  : 		this->m_KanturuMaya.KanturuMayaAct_IceStorm(this->m_iMayaIceStormUsingRate);

  01c4a	8b 45 fc	 mov	 eax, DWORD PTR _this$[ebp]
  01c4d	8b 88 28 02 00
	00		 mov	 ecx, DWORD PTR [eax+552]
  01c53	51		 push	 ecx
  01c54	8b 4d fc	 mov	 ecx, DWORD PTR _this$[ebp]
  01c57	81 c1 dc 01 00
	00		 add	 ecx, 476		; 000001dcH
  01c5d	e8 00 00 00 00	 call	 ?KanturuMayaAct_IceStorm@CKanturuMaya@@QAEXH@Z ; CKanturuMaya::KanturuMayaAct_IceStorm

; 883  : 		KANTURU_UTIL.NotifyKanturuUserMonsterCount(g_KanturuMonsterMng.GetAliveMonsterCount(),
; 884  : 			g_KanturuBattleUserMng.GetUserCount());

  01c62	b9 00 00 00 00	 mov	 ecx, OFFSET ?g_KanturuBattleUserMng@@3VCKanturuBattleUserMng@@A ; g_KanturuBattleUserMng
  01c67	e8 00 00 00 00	 call	 ?GetUserCount@CKanturuBattleUserMng@@QAEHXZ ; CKanturuBattleUserMng::GetUserCount
  01c6c	50		 push	 eax
  01c6d	b9 00 00 00 00	 mov	 ecx, OFFSET ?g_KanturuMonsterMng@@3VCKanturuMonsterMng@@A ; g_KanturuMonsterMng
  01c72	e8 00 00 00 00	 call	 ?GetAliveMonsterCount@CKanturuMonsterMng@@QAEHXZ ; CKanturuMonsterMng::GetAliveMonsterCount
  01c77	50		 push	 eax
  01c78	b9 00 00 00 00	 mov	 ecx, OFFSET _KANTURU_UTIL
  01c7d	e8 00 00 00 00	 call	 ?NotifyKanturuUserMonsterCount@CKanturuUtil@@QAEXHH@Z ; CKanturuUtil::NotifyKanturuUserMonsterCount
$LN3@ProcState_@3:

; 885  : 	}
; 886  : }

  01c82	5f		 pop	 edi
  01c83	5e		 pop	 esi
  01c84	5b		 pop	 ebx
  01c85	8b e5		 mov	 esp, ebp
  01c87	5d		 pop	 ebp
  01c88	c3		 ret	 0
?ProcState_START2@CKanturuBattleOfMaya@@QAEXXZ ENDP	; CKanturuBattleOfMaya::ProcState_START2
; Function compile flags: /Odtp /ZI
_this$ = -4						; size = 4
?ProcState_MAYA2@CKanturuBattleOfMaya@@QAEXXZ PROC	; CKanturuBattleOfMaya::ProcState_MAYA2
; _this$ = ecx

; 891  : {

  01c90	55		 push	 ebp
  01c91	8b ec		 mov	 ebp, esp
  01c93	83 ec 44	 sub	 esp, 68			; 00000044H
  01c96	53		 push	 ebx
  01c97	56		 push	 esi
  01c98	57		 push	 edi
  01c99	89 4d fc	 mov	 DWORD PTR _this$[ebp], ecx

; 892  : 	if(this->m_iMayaRightHandObjIndex == -1)//Season 4.5 addon

  01c9c	8b 45 fc	 mov	 eax, DWORD PTR _this$[ebp]
  01c9f	83 b8 f8 01 00
	00 ff		 cmp	 DWORD PTR [eax+504], -1
  01ca6	75 05		 jne	 SHORT $LN5@ProcState_@4

; 893  : 	{
; 894  : 		return;

  01ca8	e9 fd 00 00 00	 jmp	 $LN6@ProcState_@4
$LN5@ProcState_@4:

; 895  : 	}
; 896  : 
; 897  : 	if ( gObj[this->m_iMayaRightHandObjIndex].Live == FALSE )

  01cad	8b 45 fc	 mov	 eax, DWORD PTR _this$[ebp]
  01cb0	8b 88 f8 01 00
	00		 mov	 ecx, DWORD PTR [eax+504]
  01cb6	69 c9 38 2b 00
	00		 imul	 ecx, 11064		; 00002b38H
  01cbc	8b 15 00 00 00
	00		 mov	 edx, DWORD PTR ?gObj@@3PAUOBJECTSTRUCT@@A ; gObj
  01cc2	0f b6 44 0a 6a	 movzx	 eax, BYTE PTR [edx+ecx+106]
  01cc7	85 c0		 test	 eax, eax
  01cc9	0f 85 a4 00 00
	00		 jne	 $LN4@ProcState_@4

; 898  : 	{
; 899  : 		if ( this->m_iMayaHandDieTimeCounter == 0 )

  01ccf	8b 45 fc	 mov	 eax, DWORD PTR _this$[ebp]
  01cd2	83 b8 f0 01 00
	00 00		 cmp	 DWORD PTR [eax+496], 0
  01cd9	75 71		 jne	 SHORT $LN3@ProcState_@4

; 900  : 		{
; 901  : 			this->SetSuccessValue(TRUE);

  01cdb	6a 01		 push	 1
  01cdd	8b 4d fc	 mov	 ecx, DWORD PTR _this$[ebp]
  01ce0	e8 00 00 00 00	 call	 ?SetSuccessValue@CKanturuBattleOfMaya@@QAEXH@Z ; CKanturuBattleOfMaya::SetSuccessValue

; 902  : 			this->SetSceneSuccessValue(TRUE);

  01ce5	6a 01		 push	 1
  01ce7	8b 4d fc	 mov	 ecx, DWORD PTR _this$[ebp]
  01cea	e8 00 00 00 00	 call	 ?SetSceneSuccessValue@CKanturuBattleOfMaya@@QAEXH@Z ; CKanturuBattleOfMaya::SetSceneSuccessValue

; 903  : 
; 904  : 			LogAddTD("[ KANTURU ][ BattleOfMaya ] Success!! - DetailState:%d",
; 905  : 				this->m_iBattleOfMayaState);

  01cef	8b 45 fc	 mov	 eax, DWORD PTR _this$[ebp]
  01cf2	8b 48 08	 mov	 ecx, DWORD PTR [eax+8]
  01cf5	51		 push	 ecx
  01cf6	68 00 00 00 00	 push	 OFFSET ??_C@_0DH@CMOLGDMA@?$FL?5KANTURU?5?$FN?$FL?5BattleOfMaya?5?$FN?5Succ@
  01cfb	ff 15 00 00 00
	00		 call	 DWORD PTR ?LogAddTD@@3P6AXPADZZA ; LogAddTD
  01d01	83 c4 08	 add	 esp, 8

; 906  : 
; 907  : 			g_KanturuBattleUserMng.LogBattleWinnerUserInfo(1,
; 908  : 				this->m_BattleTimeInfo[this->m_iSceneState].GetElapsedTime());

  01d04	8b 45 fc	 mov	 eax, DWORD PTR _this$[ebp]
  01d07	8b 48 0c	 mov	 ecx, DWORD PTR [eax+12]
  01d0a	6b c9 14	 imul	 ecx, 20			; 00000014H
  01d0d	8b 55 fc	 mov	 edx, DWORD PTR _this$[ebp]
  01d10	8d 4c 0a 10	 lea	 ecx, DWORD PTR [edx+ecx+16]
  01d14	e8 00 00 00 00	 call	 ?GetElapsedTime@CKanturuStateInfo@@QAEHXZ ; CKanturuStateInfo::GetElapsedTime
  01d19	50		 push	 eax
  01d1a	6a 01		 push	 1
  01d1c	b9 00 00 00 00	 mov	 ecx, OFFSET ?g_KanturuBattleUserMng@@3VCKanturuBattleUserMng@@A ; g_KanturuBattleUserMng
  01d21	e8 00 00 00 00	 call	 ?LogBattleWinnerUserInfo@CKanturuBattleUserMng@@QAEXEH@Z ; CKanturuBattleUserMng::LogBattleWinnerUserInfo

; 909  : 
; 910  : 			KANTURU_UTIL.NotifyKanturuUserMonsterCount(0,
; 911  : 				g_KanturuBattleUserMng.GetUserCount());

  01d26	b9 00 00 00 00	 mov	 ecx, OFFSET ?g_KanturuBattleUserMng@@3VCKanturuBattleUserMng@@A ; g_KanturuBattleUserMng
  01d2b	e8 00 00 00 00	 call	 ?GetUserCount@CKanturuBattleUserMng@@QAEHXZ ; CKanturuBattleUserMng::GetUserCount
  01d30	50		 push	 eax
  01d31	6a 00		 push	 0
  01d33	b9 00 00 00 00	 mov	 ecx, OFFSET _KANTURU_UTIL
  01d38	e8 00 00 00 00	 call	 ?NotifyKanturuUserMonsterCount@CKanturuUtil@@QAEXHH@Z ; CKanturuUtil::NotifyKanturuUserMonsterCount

; 912  : 
; 913  : 			this->m_iMayaHandDieTimeCounter = GetTickCount();

  01d3d	ff 15 00 00 00
	00		 call	 DWORD PTR __imp__GetTickCount@0
  01d43	8b 4d fc	 mov	 ecx, DWORD PTR _this$[ebp]
  01d46	89 81 f0 01 00
	00		 mov	 DWORD PTR [ecx+496], eax
$LN3@ProcState_@4:

; 914  : 		}
; 915  : 
; 916  : 		if ( (GetTickCount() - this->m_iMayaHandDieTimeCounter ) >= 3000 )

  01d4c	ff 15 00 00 00
	00		 call	 DWORD PTR __imp__GetTickCount@0
  01d52	8b 4d fc	 mov	 ecx, DWORD PTR _this$[ebp]
  01d55	2b 81 f0 01 00
	00		 sub	 eax, DWORD PTR [ecx+496]
  01d5b	3d b8 0b 00 00	 cmp	 eax, 3000		; 00000bb8H
  01d60	72 0f		 jb	 SHORT $LN2@ProcState_@4

; 917  : 		{
; 918  : 			this->SetNextState(this->m_iBattleOfMayaState);

  01d62	8b 45 fc	 mov	 eax, DWORD PTR _this$[ebp]
  01d65	8b 48 08	 mov	 ecx, DWORD PTR [eax+8]
  01d68	51		 push	 ecx
  01d69	8b 4d fc	 mov	 ecx, DWORD PTR _this$[ebp]
  01d6c	e8 00 00 00 00	 call	 ?SetNextState@CKanturuBattleOfMaya@@QAEXH@Z ; CKanturuBattleOfMaya::SetNextState
$LN2@ProcState_@4:

; 919  : 		}
; 920  : 	}
; 921  : 	else

  01d71	eb 37		 jmp	 SHORT $LN6@ProcState_@4
$LN4@ProcState_@4:

; 922  : 	{
; 923  : 		KANTURU_UTIL.NotifyKanturuUserMonsterCount(1,
; 924  : 			g_KanturuBattleUserMng.GetUserCount());

  01d73	b9 00 00 00 00	 mov	 ecx, OFFSET ?g_KanturuBattleUserMng@@3VCKanturuBattleUserMng@@A ; g_KanturuBattleUserMng
  01d78	e8 00 00 00 00	 call	 ?GetUserCount@CKanturuBattleUserMng@@QAEHXZ ; CKanturuBattleUserMng::GetUserCount
  01d7d	50		 push	 eax
  01d7e	6a 01		 push	 1
  01d80	b9 00 00 00 00	 mov	 ecx, OFFSET _KANTURU_UTIL
  01d85	e8 00 00 00 00	 call	 ?NotifyKanturuUserMonsterCount@CKanturuUtil@@QAEXHH@Z ; CKanturuUtil::NotifyKanturuUserMonsterCount

; 925  : 
; 926  : 		this->ChangeAI(this->m_iMayaHandGroupNumber[1]);

  01d8a	8b 45 fc	 mov	 eax, DWORD PTR _this$[ebp]
  01d8d	8b 88 1c 02 00
	00		 mov	 ecx, DWORD PTR [eax+540]
  01d93	51		 push	 ecx
  01d94	8b 4d fc	 mov	 ecx, DWORD PTR _this$[ebp]
  01d97	e8 00 00 00 00	 call	 ?ChangeAI@CKanturuBattleOfMaya@@QAEXH@Z ; CKanturuBattleOfMaya::ChangeAI

; 927  : 		this->m_KanturuMaya.KanturuMayaAct_Hands();

  01d9c	8b 4d fc	 mov	 ecx, DWORD PTR _this$[ebp]
  01d9f	81 c1 dc 01 00
	00		 add	 ecx, 476		; 000001dcH
  01da5	e8 00 00 00 00	 call	 ?KanturuMayaAct_Hands@CKanturuMaya@@QAEXXZ ; CKanturuMaya::KanturuMayaAct_Hands
$LN6@ProcState_@4:

; 928  : 	}
; 929  : }

  01daa	5f		 pop	 edi
  01dab	5e		 pop	 esi
  01dac	5b		 pop	 ebx
  01dad	8b e5		 mov	 esp, ebp
  01daf	5d		 pop	 ebp
  01db0	c3		 ret	 0
?ProcState_MAYA2@CKanturuBattleOfMaya@@QAEXXZ ENDP	; CKanturuBattleOfMaya::ProcState_MAYA2
; Function compile flags: /Odtp /ZI
_this$ = -4						; size = 4
?ProcState_END_MAYA2@CKanturuBattleOfMaya@@QAEXXZ PROC	; CKanturuBattleOfMaya::ProcState_END_MAYA2
; _this$ = ecx

; 933  : {

  01dc0	55		 push	 ebp
  01dc1	8b ec		 mov	 ebp, esp
  01dc3	83 ec 44	 sub	 esp, 68			; 00000044H
  01dc6	53		 push	 ebx
  01dc7	56		 push	 esi
  01dc8	57		 push	 edi
  01dc9	89 4d fc	 mov	 DWORD PTR _this$[ebp], ecx

; 934  : 	return;
; 935  : }

  01dcc	5f		 pop	 edi
  01dcd	5e		 pop	 esi
  01dce	5b		 pop	 ebx
  01dcf	8b e5		 mov	 esp, ebp
  01dd1	5d		 pop	 ebp
  01dd2	c3		 ret	 0
?ProcState_END_MAYA2@CKanturuBattleOfMaya@@QAEXXZ ENDP	; CKanturuBattleOfMaya::ProcState_END_MAYA2
; Function compile flags: /Odtp /ZI
_this$ = -4						; size = 4
?ProcState_ENDCYCLE_MAYA2@CKanturuBattleOfMaya@@QAEXXZ PROC ; CKanturuBattleOfMaya::ProcState_ENDCYCLE_MAYA2
; _this$ = ecx

; 939  : {

  01de0	55		 push	 ebp
  01de1	8b ec		 mov	 ebp, esp
  01de3	83 ec 44	 sub	 esp, 68			; 00000044H
  01de6	53		 push	 ebx
  01de7	56		 push	 esi
  01de8	57		 push	 edi
  01de9	89 4d fc	 mov	 DWORD PTR _this$[ebp], ecx

; 940  : 	return;
; 941  : }

  01dec	5f		 pop	 edi
  01ded	5e		 pop	 esi
  01dee	5b		 pop	 ebx
  01def	8b e5		 mov	 esp, ebp
  01df1	5d		 pop	 ebp
  01df2	c3		 ret	 0
?ProcState_ENDCYCLE_MAYA2@CKanturuBattleOfMaya@@QAEXXZ ENDP ; CKanturuBattleOfMaya::ProcState_ENDCYCLE_MAYA2
; Function compile flags: /Odtp /ZI
_this$ = -4						; size = 4
?ProcState_STANBY3@CKanturuBattleOfMaya@@QAEXXZ PROC	; CKanturuBattleOfMaya::ProcState_STANBY3
; _this$ = ecx

; 945  : {

  01e00	55		 push	 ebp
  01e01	8b ec		 mov	 ebp, esp
  01e03	83 ec 44	 sub	 esp, 68			; 00000044H
  01e06	53		 push	 ebx
  01e07	56		 push	 esi
  01e08	57		 push	 edi
  01e09	89 4d fc	 mov	 DWORD PTR _this$[ebp], ecx

; 946  : 	return;
; 947  : }

  01e0c	5f		 pop	 edi
  01e0d	5e		 pop	 esi
  01e0e	5b		 pop	 ebx
  01e0f	8b e5		 mov	 esp, ebp
  01e11	5d		 pop	 ebp
  01e12	c3		 ret	 0
?ProcState_STANBY3@CKanturuBattleOfMaya@@QAEXXZ ENDP	; CKanturuBattleOfMaya::ProcState_STANBY3
; Function compile flags: /Odtp /ZI
_this$ = -4						; size = 4
?ProcState_START3@CKanturuBattleOfMaya@@QAEXXZ PROC	; CKanturuBattleOfMaya::ProcState_START3
; _this$ = ecx

; 951  : {

  01e20	55		 push	 ebp
  01e21	8b ec		 mov	 ebp, esp
  01e23	83 ec 44	 sub	 esp, 68			; 00000044H
  01e26	53		 push	 ebx
  01e27	56		 push	 esi
  01e28	57		 push	 edi
  01e29	89 4d fc	 mov	 DWORD PTR _this$[ebp], ecx

; 952  : 	if ( g_KanturuMonsterMng.IsExistAliveMonster() == FALSE )

  01e2c	b9 00 00 00 00	 mov	 ecx, OFFSET ?g_KanturuMonsterMng@@3VCKanturuMonsterMng@@A ; g_KanturuMonsterMng
  01e31	e8 00 00 00 00	 call	 ?IsExistAliveMonster@CKanturuMonsterMng@@QAEHXZ ; CKanturuMonsterMng::IsExistAliveMonster
  01e36	85 c0		 test	 eax, eax
  01e38	75 30		 jne	 SHORT $LN2@ProcState_@5

; 953  : 	{
; 954  : 		this->SetSuccessValue(TRUE);

  01e3a	6a 01		 push	 1
  01e3c	8b 4d fc	 mov	 ecx, DWORD PTR _this$[ebp]
  01e3f	e8 00 00 00 00	 call	 ?SetSuccessValue@CKanturuBattleOfMaya@@QAEXH@Z ; CKanturuBattleOfMaya::SetSuccessValue

; 955  : 
; 956  : 		LogAddTD("[ KANTURU ][ BattleOfMaya ] Success!! - DetailState:%d",
; 957  : 			this->m_iBattleOfMayaState);

  01e44	8b 45 fc	 mov	 eax, DWORD PTR _this$[ebp]
  01e47	8b 48 08	 mov	 ecx, DWORD PTR [eax+8]
  01e4a	51		 push	 ecx
  01e4b	68 00 00 00 00	 push	 OFFSET ??_C@_0DH@CMOLGDMA@?$FL?5KANTURU?5?$FN?$FL?5BattleOfMaya?5?$FN?5Succ@
  01e50	ff 15 00 00 00
	00		 call	 DWORD PTR ?LogAddTD@@3P6AXPADZZA ; LogAddTD
  01e56	83 c4 08	 add	 esp, 8

; 958  : 
; 959  : 		this->SetNextState(this->m_iBattleOfMayaState);

  01e59	8b 45 fc	 mov	 eax, DWORD PTR _this$[ebp]
  01e5c	8b 48 08	 mov	 ecx, DWORD PTR [eax+8]
  01e5f	51		 push	 ecx
  01e60	8b 4d fc	 mov	 ecx, DWORD PTR _this$[ebp]
  01e63	e8 00 00 00 00	 call	 ?SetNextState@CKanturuBattleOfMaya@@QAEXH@Z ; CKanturuBattleOfMaya::SetNextState

; 960  : 	}
; 961  : 	else

  01e68	eb 38		 jmp	 SHORT $LN3@ProcState_@5
$LN2@ProcState_@5:

; 962  : 	{
; 963  : 		this->m_KanturuMaya.KanturuMayaAct_IceStorm(this->m_iMayaIceStormUsingRate);

  01e6a	8b 45 fc	 mov	 eax, DWORD PTR _this$[ebp]
  01e6d	8b 88 28 02 00
	00		 mov	 ecx, DWORD PTR [eax+552]
  01e73	51		 push	 ecx
  01e74	8b 4d fc	 mov	 ecx, DWORD PTR _this$[ebp]
  01e77	81 c1 dc 01 00
	00		 add	 ecx, 476		; 000001dcH
  01e7d	e8 00 00 00 00	 call	 ?KanturuMayaAct_IceStorm@CKanturuMaya@@QAEXH@Z ; CKanturuMaya::KanturuMayaAct_IceStorm

; 964  : 		KANTURU_UTIL.NotifyKanturuUserMonsterCount(g_KanturuMonsterMng.GetAliveMonsterCount(),
; 965  : 			g_KanturuBattleUserMng.GetUserCount());

  01e82	b9 00 00 00 00	 mov	 ecx, OFFSET ?g_KanturuBattleUserMng@@3VCKanturuBattleUserMng@@A ; g_KanturuBattleUserMng
  01e87	e8 00 00 00 00	 call	 ?GetUserCount@CKanturuBattleUserMng@@QAEHXZ ; CKanturuBattleUserMng::GetUserCount
  01e8c	50		 push	 eax
  01e8d	b9 00 00 00 00	 mov	 ecx, OFFSET ?g_KanturuMonsterMng@@3VCKanturuMonsterMng@@A ; g_KanturuMonsterMng
  01e92	e8 00 00 00 00	 call	 ?GetAliveMonsterCount@CKanturuMonsterMng@@QAEHXZ ; CKanturuMonsterMng::GetAliveMonsterCount
  01e97	50		 push	 eax
  01e98	b9 00 00 00 00	 mov	 ecx, OFFSET _KANTURU_UTIL
  01e9d	e8 00 00 00 00	 call	 ?NotifyKanturuUserMonsterCount@CKanturuUtil@@QAEXHH@Z ; CKanturuUtil::NotifyKanturuUserMonsterCount
$LN3@ProcState_@5:

; 966  : 	}
; 967  : }

  01ea2	5f		 pop	 edi
  01ea3	5e		 pop	 esi
  01ea4	5b		 pop	 ebx
  01ea5	8b e5		 mov	 esp, ebp
  01ea7	5d		 pop	 ebp
  01ea8	c3		 ret	 0
?ProcState_START3@CKanturuBattleOfMaya@@QAEXXZ ENDP	; CKanturuBattleOfMaya::ProcState_START3
; Function compile flags: /Odtp /ZI
_iAliveCount$ = -8					; size = 4
_this$ = -4						; size = 4
?ProcState_MAYA3@CKanturuBattleOfMaya@@QAEXXZ PROC	; CKanturuBattleOfMaya::ProcState_MAYA3
; _this$ = ecx

; 972  : {

  01eb0	55		 push	 ebp
  01eb1	8b ec		 mov	 ebp, esp
  01eb3	83 ec 48	 sub	 esp, 72			; 00000048H
  01eb6	53		 push	 ebx
  01eb7	56		 push	 esi
  01eb8	57		 push	 edi
  01eb9	89 4d fc	 mov	 DWORD PTR _this$[ebp], ecx

; 973  : 	int iAliveCount = 0;

  01ebc	c7 45 f8 00 00
	00 00		 mov	 DWORD PTR _iAliveCount$[ebp], 0

; 974  : 
; 975  : 	//Season 4.5 change
; 976  : 	if ( this->m_iMayaLeftHandObjIndex != -1 && gObj[this->m_iMayaLeftHandObjIndex].Live != FALSE )

  01ec3	8b 45 fc	 mov	 eax, DWORD PTR _this$[ebp]
  01ec6	83 b8 f4 01 00
	00 ff		 cmp	 DWORD PTR [eax+500], -1
  01ecd	74 27		 je	 SHORT $LN5@ProcState_@6
  01ecf	8b 45 fc	 mov	 eax, DWORD PTR _this$[ebp]
  01ed2	8b 88 f4 01 00
	00		 mov	 ecx, DWORD PTR [eax+500]
  01ed8	69 c9 38 2b 00
	00		 imul	 ecx, 11064		; 00002b38H
  01ede	8b 15 00 00 00
	00		 mov	 edx, DWORD PTR ?gObj@@3PAUOBJECTSTRUCT@@A ; gObj
  01ee4	0f b6 44 0a 6a	 movzx	 eax, BYTE PTR [edx+ecx+106]
  01ee9	85 c0		 test	 eax, eax
  01eeb	74 09		 je	 SHORT $LN5@ProcState_@6

; 977  : 	{
; 978  : 		iAliveCount++;

  01eed	8b 45 f8	 mov	 eax, DWORD PTR _iAliveCount$[ebp]
  01ef0	83 c0 01	 add	 eax, 1
  01ef3	89 45 f8	 mov	 DWORD PTR _iAliveCount$[ebp], eax
$LN5@ProcState_@6:

; 979  : 	}
; 980  : 	//Season 4.5 change
; 981  : 	if ( this->m_iMayaRightHandObjIndex != -1 && gObj[this->m_iMayaRightHandObjIndex].Live != FALSE )

  01ef6	8b 45 fc	 mov	 eax, DWORD PTR _this$[ebp]
  01ef9	83 b8 f8 01 00
	00 ff		 cmp	 DWORD PTR [eax+504], -1
  01f00	74 27		 je	 SHORT $LN4@ProcState_@6
  01f02	8b 45 fc	 mov	 eax, DWORD PTR _this$[ebp]
  01f05	8b 88 f8 01 00
	00		 mov	 ecx, DWORD PTR [eax+504]
  01f0b	69 c9 38 2b 00
	00		 imul	 ecx, 11064		; 00002b38H
  01f11	8b 15 00 00 00
	00		 mov	 edx, DWORD PTR ?gObj@@3PAUOBJECTSTRUCT@@A ; gObj
  01f17	0f b6 44 0a 6a	 movzx	 eax, BYTE PTR [edx+ecx+106]
  01f1c	85 c0		 test	 eax, eax
  01f1e	74 09		 je	 SHORT $LN4@ProcState_@6

; 982  : 	{
; 983  : 		iAliveCount++;

  01f20	8b 45 f8	 mov	 eax, DWORD PTR _iAliveCount$[ebp]
  01f23	83 c0 01	 add	 eax, 1
  01f26	89 45 f8	 mov	 DWORD PTR _iAliveCount$[ebp], eax
$LN4@ProcState_@6:

; 984  : 	}
; 985  : 
; 986  : 	if ( iAliveCount == 0 )

  01f29	83 7d f8 00	 cmp	 DWORD PTR _iAliveCount$[ebp], 0
  01f2d	0f 85 8d 00 00
	00		 jne	 $LN3@ProcState_@6

; 987  : 	{
; 988  : 		if ( this->m_iMayaHandDieTimeCounter == 0 )

  01f33	8b 45 fc	 mov	 eax, DWORD PTR _this$[ebp]
  01f36	83 b8 f0 01 00
	00 00		 cmp	 DWORD PTR [eax+496], 0
  01f3d	75 5a		 jne	 SHORT $LN2@ProcState_@6

; 989  : 		{
; 990  : 			this->SetSuccessValue(TRUE);

  01f3f	6a 01		 push	 1
  01f41	8b 4d fc	 mov	 ecx, DWORD PTR _this$[ebp]
  01f44	e8 00 00 00 00	 call	 ?SetSuccessValue@CKanturuBattleOfMaya@@QAEXH@Z ; CKanturuBattleOfMaya::SetSuccessValue

; 991  : 			this->SetSceneSuccessValue(TRUE);

  01f49	6a 01		 push	 1
  01f4b	8b 4d fc	 mov	 ecx, DWORD PTR _this$[ebp]
  01f4e	e8 00 00 00 00	 call	 ?SetSceneSuccessValue@CKanturuBattleOfMaya@@QAEXH@Z ; CKanturuBattleOfMaya::SetSceneSuccessValue

; 992  : 
; 993  : 			LogAddTD("[ KANTURU ][ BattleOfMaya ] Success!! - DetailState:%d",
; 994  : 				this->m_iBattleOfMayaState);

  01f53	8b 45 fc	 mov	 eax, DWORD PTR _this$[ebp]
  01f56	8b 48 08	 mov	 ecx, DWORD PTR [eax+8]
  01f59	51		 push	 ecx
  01f5a	68 00 00 00 00	 push	 OFFSET ??_C@_0DH@CMOLGDMA@?$FL?5KANTURU?5?$FN?$FL?5BattleOfMaya?5?$FN?5Succ@
  01f5f	ff 15 00 00 00
	00		 call	 DWORD PTR ?LogAddTD@@3P6AXPADZZA ; LogAddTD
  01f65	83 c4 08	 add	 esp, 8

; 995  : 
; 996  : 			g_KanturuBattleUserMng.LogBattleWinnerUserInfo(2,
; 997  : 				this->m_BattleTimeInfo[this->m_iSceneState].GetElapsedTime());

  01f68	8b 45 fc	 mov	 eax, DWORD PTR _this$[ebp]
  01f6b	8b 48 0c	 mov	 ecx, DWORD PTR [eax+12]
  01f6e	6b c9 14	 imul	 ecx, 20			; 00000014H
  01f71	8b 55 fc	 mov	 edx, DWORD PTR _this$[ebp]
  01f74	8d 4c 0a 10	 lea	 ecx, DWORD PTR [edx+ecx+16]
  01f78	e8 00 00 00 00	 call	 ?GetElapsedTime@CKanturuStateInfo@@QAEHXZ ; CKanturuStateInfo::GetElapsedTime
  01f7d	50		 push	 eax
  01f7e	6a 02		 push	 2
  01f80	b9 00 00 00 00	 mov	 ecx, OFFSET ?g_KanturuBattleUserMng@@3VCKanturuBattleUserMng@@A ; g_KanturuBattleUserMng
  01f85	e8 00 00 00 00	 call	 ?LogBattleWinnerUserInfo@CKanturuBattleUserMng@@QAEXEH@Z ; CKanturuBattleUserMng::LogBattleWinnerUserInfo

; 998  : 
; 999  : 			this->m_iMayaHandDieTimeCounter = GetTickCount();

  01f8a	ff 15 00 00 00
	00		 call	 DWORD PTR __imp__GetTickCount@0
  01f90	8b 4d fc	 mov	 ecx, DWORD PTR _this$[ebp]
  01f93	89 81 f0 01 00
	00		 mov	 DWORD PTR [ecx+496], eax
$LN2@ProcState_@6:

; 1000 : 		}
; 1001 : 
; 1002 : 		if ( (GetTickCount() - this->m_iMayaHandDieTimeCounter ) >= 3000 )

  01f99	ff 15 00 00 00
	00		 call	 DWORD PTR __imp__GetTickCount@0
  01f9f	8b 4d fc	 mov	 ecx, DWORD PTR _this$[ebp]
  01fa2	2b 81 f0 01 00
	00		 sub	 eax, DWORD PTR [ecx+496]
  01fa8	3d b8 0b 00 00	 cmp	 eax, 3000		; 00000bb8H
  01fad	72 11		 jb	 SHORT $LN3@ProcState_@6

; 1003 : 		{
; 1004 : 			this->SetNextState(this->m_iBattleOfMayaState);

  01faf	8b 45 fc	 mov	 eax, DWORD PTR _this$[ebp]
  01fb2	8b 48 08	 mov	 ecx, DWORD PTR [eax+8]
  01fb5	51		 push	 ecx
  01fb6	8b 4d fc	 mov	 ecx, DWORD PTR _this$[ebp]
  01fb9	e8 00 00 00 00	 call	 ?SetNextState@CKanturuBattleOfMaya@@QAEXH@Z ; CKanturuBattleOfMaya::SetNextState

; 1005 : 			return;

  01fbe	eb 39		 jmp	 SHORT $LN6@ProcState_@6
$LN3@ProcState_@6:

; 1006 : 		}
; 1007 : 	}
; 1008 : 
; 1009 : 	KANTURU_UTIL.NotifyKanturuUserMonsterCount(iAliveCount,
; 1010 : 		g_KanturuBattleUserMng.GetUserCount());

  01fc0	b9 00 00 00 00	 mov	 ecx, OFFSET ?g_KanturuBattleUserMng@@3VCKanturuBattleUserMng@@A ; g_KanturuBattleUserMng
  01fc5	e8 00 00 00 00	 call	 ?GetUserCount@CKanturuBattleUserMng@@QAEHXZ ; CKanturuBattleUserMng::GetUserCount
  01fca	50		 push	 eax
  01fcb	8b 45 f8	 mov	 eax, DWORD PTR _iAliveCount$[ebp]
  01fce	50		 push	 eax
  01fcf	b9 00 00 00 00	 mov	 ecx, OFFSET _KANTURU_UTIL
  01fd4	e8 00 00 00 00	 call	 ?NotifyKanturuUserMonsterCount@CKanturuUtil@@QAEXHH@Z ; CKanturuUtil::NotifyKanturuUserMonsterCount

; 1011 : 
; 1012 : 	this->ChangeAI(this->m_iMayaHandGroupNumber[2]);

  01fd9	8b 45 fc	 mov	 eax, DWORD PTR _this$[ebp]
  01fdc	8b 88 20 02 00
	00		 mov	 ecx, DWORD PTR [eax+544]
  01fe2	51		 push	 ecx
  01fe3	8b 4d fc	 mov	 ecx, DWORD PTR _this$[ebp]
  01fe6	e8 00 00 00 00	 call	 ?ChangeAI@CKanturuBattleOfMaya@@QAEXH@Z ; CKanturuBattleOfMaya::ChangeAI

; 1013 : 	this->m_KanturuMaya.KanturuMayaAct_Hands();

  01feb	8b 4d fc	 mov	 ecx, DWORD PTR _this$[ebp]
  01fee	81 c1 dc 01 00
	00		 add	 ecx, 476		; 000001dcH
  01ff4	e8 00 00 00 00	 call	 ?KanturuMayaAct_Hands@CKanturuMaya@@QAEXXZ ; CKanturuMaya::KanturuMayaAct_Hands
$LN6@ProcState_@6:

; 1014 : }

  01ff9	5f		 pop	 edi
  01ffa	5e		 pop	 esi
  01ffb	5b		 pop	 ebx
  01ffc	8b e5		 mov	 esp, ebp
  01ffe	5d		 pop	 ebp
  01fff	c3		 ret	 0
?ProcState_MAYA3@CKanturuBattleOfMaya@@QAEXXZ ENDP	; CKanturuBattleOfMaya::ProcState_MAYA3
; Function compile flags: /Odtp /ZI
_this$ = -4						; size = 4
?ProcState_END_MAYA3@CKanturuBattleOfMaya@@QAEXXZ PROC	; CKanturuBattleOfMaya::ProcState_END_MAYA3
; _this$ = ecx

; 1017 : {

  02000	55		 push	 ebp
  02001	8b ec		 mov	 ebp, esp
  02003	83 ec 44	 sub	 esp, 68			; 00000044H
  02006	53		 push	 ebx
  02007	56		 push	 esi
  02008	57		 push	 edi
  02009	89 4d fc	 mov	 DWORD PTR _this$[ebp], ecx

; 1018 : 	return;
; 1019 : }

  0200c	5f		 pop	 edi
  0200d	5e		 pop	 esi
  0200e	5b		 pop	 ebx
  0200f	8b e5		 mov	 esp, ebp
  02011	5d		 pop	 ebp
  02012	c3		 ret	 0
?ProcState_END_MAYA3@CKanturuBattleOfMaya@@QAEXXZ ENDP	; CKanturuBattleOfMaya::ProcState_END_MAYA3
; Function compile flags: /Odtp /ZI
_this$ = -4						; size = 4
?ProcState_ENDCYCLE_MAYA3@CKanturuBattleOfMaya@@QAEXXZ PROC ; CKanturuBattleOfMaya::ProcState_ENDCYCLE_MAYA3
; _this$ = ecx

; 1023 : {

  02020	55		 push	 ebp
  02021	8b ec		 mov	 ebp, esp
  02023	83 ec 44	 sub	 esp, 68			; 00000044H
  02026	53		 push	 ebx
  02027	56		 push	 esi
  02028	57		 push	 edi
  02029	89 4d fc	 mov	 DWORD PTR _this$[ebp], ecx

; 1024 : 	return;
; 1025 : }

  0202c	5f		 pop	 edi
  0202d	5e		 pop	 esi
  0202e	5b		 pop	 ebx
  0202f	8b e5		 mov	 esp, ebp
  02031	5d		 pop	 ebp
  02032	c3		 ret	 0
?ProcState_ENDCYCLE_MAYA3@CKanturuBattleOfMaya@@QAEXXZ ENDP ; CKanturuBattleOfMaya::ProcState_ENDCYCLE_MAYA3
; Function compile flags: /Odtp /ZI
_this$ = -4						; size = 4
?ProcState_END@CKanturuBattleOfMaya@@QAEXXZ PROC	; CKanturuBattleOfMaya::ProcState_END
; _this$ = ecx

; 1029 : {

  02040	55		 push	 ebp
  02041	8b ec		 mov	 ebp, esp
  02043	83 ec 44	 sub	 esp, 68			; 00000044H
  02046	53		 push	 ebx
  02047	56		 push	 esi
  02048	57		 push	 edi
  02049	89 4d fc	 mov	 DWORD PTR _this$[ebp], ecx

; 1030 : 	return;
; 1031 : }

  0204c	5f		 pop	 edi
  0204d	5e		 pop	 esi
  0204e	5b		 pop	 ebx
  0204f	8b e5		 mov	 esp, ebp
  02051	5d		 pop	 ebp
  02052	c3		 ret	 0
?ProcState_END@CKanturuBattleOfMaya@@QAEXXZ ENDP	; CKanturuBattleOfMaya::ProcState_END
; Function compile flags: /Odtp /ZI
_this$ = -4						; size = 4
?ProcState_ENDCYCLE@CKanturuBattleOfMaya@@QAEXXZ PROC	; CKanturuBattleOfMaya::ProcState_ENDCYCLE
; _this$ = ecx

; 1035 : {

  02060	55		 push	 ebp
  02061	8b ec		 mov	 ebp, esp
  02063	83 ec 44	 sub	 esp, 68			; 00000044H
  02066	53		 push	 ebx
  02067	56		 push	 esi
  02068	57		 push	 edi
  02069	89 4d fc	 mov	 DWORD PTR _this$[ebp], ecx

; 1036 : 	return;
; 1037 : }

  0206c	5f		 pop	 edi
  0206d	5e		 pop	 esi
  0206e	5b		 pop	 ebx
  0206f	8b e5		 mov	 esp, ebp
  02071	5d		 pop	 ebp
  02072	c3		 ret	 0
?ProcState_ENDCYCLE@CKanturuBattleOfMaya@@QAEXXZ ENDP	; CKanturuBattleOfMaya::ProcState_ENDCYCLE
_TEXT	ENDS
PUBLIC	??_C@_0DM@MNFIKCME@?$FL?5KANTURU?5?$FN?$FL?5BattleOfMaya?5?$FN?5Fail@ ; `string'
PUBLIC	?GetSceneSuccessValue@CKanturuBattleOfMaya@@QAEHXZ ; CKanturuBattleOfMaya::GetSceneSuccessValue
PUBLIC	?GetBattleSceneState@CKanturuBattleOfMaya@@QAEHXZ ; CKanturuBattleOfMaya::GetBattleSceneState
PUBLIC	?IsTimeOut@CKanturuStateInfo@@QAEHXZ		; CKanturuStateInfo::IsTimeOut
PUBLIC	?GetBattleOfMayaState@CKanturuBattleOfMaya@@QAEHXZ ; CKanturuBattleOfMaya::GetBattleOfMayaState
;	COMDAT ??_C@_0DM@MNFIKCME@?$FL?5KANTURU?5?$FN?$FL?5BattleOfMaya?5?$FN?5Fail@
CONST	SEGMENT
??_C@_0DM@MNFIKCME@?$FL?5KANTURU?5?$FN?$FL?5BattleOfMaya?5?$FN?5Fail@ DB '['
	DB	' KANTURU ][ BattleOfMaya ] Fail!! TimeOut - DetailState:%d', 00H ; `string'
; Function compile flags: /Odtp /ZI
CONST	ENDS
_TEXT	SEGMENT
_this$ = -4						; size = 4
?CheckStateTime@CKanturuBattleOfMaya@@QAEHXZ PROC	; CKanturuBattleOfMaya::CheckStateTime
; _this$ = ecx

; 1041 : {

  02080	55		 push	 ebp
  02081	8b ec		 mov	 ebp, esp
  02083	83 ec 44	 sub	 esp, 68			; 00000044H
  02086	53		 push	 ebx
  02087	56		 push	 esi
  02088	57		 push	 edi
  02089	89 4d fc	 mov	 DWORD PTR _this$[ebp], ecx

; 1042 : 	if ( this->GetBattleOfMayaState() )

  0208c	8b 4d fc	 mov	 ecx, DWORD PTR _this$[ebp]
  0208f	e8 00 00 00 00	 call	 ?GetBattleOfMayaState@CKanturuBattleOfMaya@@QAEHXZ ; CKanturuBattleOfMaya::GetBattleOfMayaState
  02094	85 c0		 test	 eax, eax
  02096	74 43		 je	 SHORT $LN8@CheckState

; 1043 : 	{
; 1044 : 		if ( this->m_StateInfo[this->m_iBattleOfMayaState].GetCondition() == 1 )

  02098	8b 45 fc	 mov	 eax, DWORD PTR _this$[ebp]
  0209b	8b 48 08	 mov	 ecx, DWORD PTR [eax+8]
  0209e	6b c9 14	 imul	 ecx, 20			; 00000014H
  020a1	8b 55 fc	 mov	 edx, DWORD PTR _this$[ebp]
  020a4	8d 4c 0a 50	 lea	 ecx, DWORD PTR [edx+ecx+80]
  020a8	e8 00 00 00 00	 call	 ?GetCondition@CKanturuStateInfo@@QAEHXZ ; CKanturuStateInfo::GetCondition
  020ad	83 f8 01	 cmp	 eax, 1
  020b0	75 29		 jne	 SHORT $LN8@CheckState

; 1045 : 		{
; 1046 : 			if ( this->m_StateInfo[this->m_iBattleOfMayaState].IsTimeOut() == TRUE )

  020b2	8b 45 fc	 mov	 eax, DWORD PTR _this$[ebp]
  020b5	8b 48 08	 mov	 ecx, DWORD PTR [eax+8]
  020b8	6b c9 14	 imul	 ecx, 20			; 00000014H
  020bb	8b 55 fc	 mov	 edx, DWORD PTR _this$[ebp]
  020be	8d 4c 0a 50	 lea	 ecx, DWORD PTR [edx+ecx+80]
  020c2	e8 00 00 00 00	 call	 ?IsTimeOut@CKanturuStateInfo@@QAEHXZ ; CKanturuStateInfo::IsTimeOut
  020c7	83 f8 01	 cmp	 eax, 1
  020ca	75 0f		 jne	 SHORT $LN8@CheckState

; 1047 : 			{
; 1048 : 				this->SetNextState(this->m_iBattleOfMayaState);

  020cc	8b 45 fc	 mov	 eax, DWORD PTR _this$[ebp]
  020cf	8b 48 08	 mov	 ecx, DWORD PTR [eax+8]
  020d2	51		 push	 ecx
  020d3	8b 4d fc	 mov	 ecx, DWORD PTR _this$[ebp]
  020d6	e8 00 00 00 00	 call	 ?SetNextState@CKanturuBattleOfMaya@@QAEXH@Z ; CKanturuBattleOfMaya::SetNextState
$LN8@CheckState:

; 1049 : 			}
; 1050 : 		}
; 1051 : 	}
; 1052 : 
; 1053 : 	if ( this->GetBattleSceneState() != -1 )

  020db	8b 4d fc	 mov	 ecx, DWORD PTR _this$[ebp]
  020de	e8 00 00 00 00	 call	 ?GetBattleSceneState@CKanturuBattleOfMaya@@QAEHXZ ; CKanturuBattleOfMaya::GetBattleSceneState
  020e3	83 f8 ff	 cmp	 eax, -1
  020e6	0f 84 8f 00 00
	00		 je	 $LN5@CheckState

; 1054 : 	{
; 1055 : 		if ( this->m_BattleTimeInfo[this->m_iSceneState].GetCondition() != 1 )

  020ec	8b 45 fc	 mov	 eax, DWORD PTR _this$[ebp]
  020ef	8b 48 0c	 mov	 ecx, DWORD PTR [eax+12]
  020f2	6b c9 14	 imul	 ecx, 20			; 00000014H
  020f5	8b 55 fc	 mov	 edx, DWORD PTR _this$[ebp]
  020f8	8d 4c 0a 10	 lea	 ecx, DWORD PTR [edx+ecx+16]
  020fc	e8 00 00 00 00	 call	 ?GetCondition@CKanturuStateInfo@@QAEHXZ ; CKanturuStateInfo::GetCondition
  02101	83 f8 01	 cmp	 eax, 1
  02104	74 07		 je	 SHORT $LN4@CheckState

; 1056 : 		{
; 1057 : 			return TRUE;

  02106	b8 01 00 00 00	 mov	 eax, 1
  0210b	eb 73		 jmp	 SHORT $LN9@CheckState
$LN4@CheckState:

; 1058 : 		}
; 1059 : 
; 1060 : 		if ( this->GetSceneSuccessValue() == TRUE )

  0210d	8b 4d fc	 mov	 ecx, DWORD PTR _this$[ebp]
  02110	e8 00 00 00 00	 call	 ?GetSceneSuccessValue@CKanturuBattleOfMaya@@QAEHXZ ; CKanturuBattleOfMaya::GetSceneSuccessValue
  02115	83 f8 01	 cmp	 eax, 1
  02118	75 07		 jne	 SHORT $LN3@CheckState

; 1061 : 		{
; 1062 : 			return TRUE;

  0211a	b8 01 00 00 00	 mov	 eax, 1
  0211f	eb 5f		 jmp	 SHORT $LN9@CheckState
$LN3@CheckState:

; 1063 : 		}
; 1064 : 
; 1065 : 		if ( this->m_BattleTimeInfo[this->m_iSceneState].IsTimeOut() == TRUE )

  02121	8b 45 fc	 mov	 eax, DWORD PTR _this$[ebp]
  02124	8b 48 0c	 mov	 ecx, DWORD PTR [eax+12]
  02127	6b c9 14	 imul	 ecx, 20			; 00000014H
  0212a	8b 55 fc	 mov	 edx, DWORD PTR _this$[ebp]
  0212d	8d 4c 0a 10	 lea	 ecx, DWORD PTR [edx+ecx+16]
  02131	e8 00 00 00 00	 call	 ?IsTimeOut@CKanturuStateInfo@@QAEHXZ ; CKanturuStateInfo::IsTimeOut
  02136	83 f8 01	 cmp	 eax, 1
  02139	75 40		 jne	 SHORT $LN5@CheckState

; 1066 : 		{
; 1067 : 			if ( this->GetBattleOfMayaState() != KANTURU_MAYA_END )

  0213b	8b 4d fc	 mov	 ecx, DWORD PTR _this$[ebp]
  0213e	e8 00 00 00 00	 call	 ?GetBattleOfMayaState@CKanturuBattleOfMaya@@QAEHXZ ; CKanturuBattleOfMaya::GetBattleOfMayaState
  02143	83 f8 11	 cmp	 eax, 17			; 00000011H
  02146	74 33		 je	 SHORT $LN5@CheckState

; 1068 : 			{
; 1069 : 				this->SetSceneSuccessValue(FALSE);

  02148	6a 00		 push	 0
  0214a	8b 4d fc	 mov	 ecx, DWORD PTR _this$[ebp]
  0214d	e8 00 00 00 00	 call	 ?SetSceneSuccessValue@CKanturuBattleOfMaya@@QAEXH@Z ; CKanturuBattleOfMaya::SetSceneSuccessValue

; 1070 : 				this->SetSuccessValue(FALSE);

  02152	6a 00		 push	 0
  02154	8b 4d fc	 mov	 ecx, DWORD PTR _this$[ebp]
  02157	e8 00 00 00 00	 call	 ?SetSuccessValue@CKanturuBattleOfMaya@@QAEXH@Z ; CKanturuBattleOfMaya::SetSuccessValue

; 1071 : 
; 1072 : 				LogAddTD("[ KANTURU ][ BattleOfMaya ] Fail!! TimeOut - DetailState:%d",
; 1073 : 					this->m_iBattleOfMayaState);

  0215c	8b 45 fc	 mov	 eax, DWORD PTR _this$[ebp]
  0215f	8b 48 08	 mov	 ecx, DWORD PTR [eax+8]
  02162	51		 push	 ecx
  02163	68 00 00 00 00	 push	 OFFSET ??_C@_0DM@MNFIKCME@?$FL?5KANTURU?5?$FN?$FL?5BattleOfMaya?5?$FN?5Fail@
  02168	ff 15 00 00 00
	00		 call	 DWORD PTR ?LogAddTD@@3P6AXPADZZA ; LogAddTD
  0216e	83 c4 08	 add	 esp, 8

; 1074 : 
; 1075 : 				this->SetState(KANTURU_MAYA_END);

  02171	6a 11		 push	 17			; 00000011H
  02173	8b 4d fc	 mov	 ecx, DWORD PTR _this$[ebp]
  02176	e8 00 00 00 00	 call	 ?SetState@CKanturuBattleOfMaya@@QAEXH@Z ; CKanturuBattleOfMaya::SetState
$LN5@CheckState:

; 1076 : 			}
; 1077 : 		}
; 1078 : 	}
; 1079 : 
; 1080 : 	return TRUE;

  0217b	b8 01 00 00 00	 mov	 eax, 1
$LN9@CheckState:

; 1081 : }

  02180	5f		 pop	 edi
  02181	5e		 pop	 esi
  02182	5b		 pop	 ebx
  02183	8b e5		 mov	 esp, ebp
  02185	5d		 pop	 ebp
  02186	c3		 ret	 0
?CheckStateTime@CKanturuBattleOfMaya@@QAEHXZ ENDP	; CKanturuBattleOfMaya::CheckStateTime
_TEXT	ENDS
PUBLIC	?GetRemainTime@CKanturuStateInfo@@QAEHXZ	; CKanturuStateInfo::GetRemainTime
; Function compile flags: /Odtp /ZI
; File d:\projects\exteam6.3\source\gameserver\gameserver\kanturustateinfo.h
;	COMDAT ?IsTimeOut@CKanturuStateInfo@@QAEHXZ
_TEXT	SEGMENT
_this$ = -4						; size = 4
?IsTimeOut@CKanturuStateInfo@@QAEHXZ PROC		; CKanturuStateInfo::IsTimeOut, COMDAT
; _this$ = ecx

; 89   : 	{

  00000	55		 push	 ebp
  00001	8b ec		 mov	 ebp, esp
  00003	83 ec 44	 sub	 esp, 68			; 00000044H
  00006	53		 push	 ebx
  00007	56		 push	 esi
  00008	57		 push	 edi
  00009	89 4d fc	 mov	 DWORD PTR _this$[ebp], ecx

; 90   : 		if ( this->GetRemainTime() <= 0 )

  0000c	8b 4d fc	 mov	 ecx, DWORD PTR _this$[ebp]
  0000f	e8 00 00 00 00	 call	 ?GetRemainTime@CKanturuStateInfo@@QAEHXZ ; CKanturuStateInfo::GetRemainTime
  00014	85 c0		 test	 eax, eax
  00016	7f 07		 jg	 SHORT $LN1@IsTimeOut

; 91   : 		{
; 92   : 			return TRUE;

  00018	b8 01 00 00 00	 mov	 eax, 1
  0001d	eb 02		 jmp	 SHORT $LN2@IsTimeOut
$LN1@IsTimeOut:

; 93   : 		}
; 94   : 
; 95   : 		return FALSE;

  0001f	33 c0		 xor	 eax, eax
$LN2@IsTimeOut:

; 96   : 	}

  00021	5f		 pop	 edi
  00022	5e		 pop	 esi
  00023	5b		 pop	 ebx
  00024	8b e5		 mov	 esp, ebp
  00026	5d		 pop	 ebp
  00027	c3		 ret	 0
?IsTimeOut@CKanturuStateInfo@@QAEHXZ ENDP		; CKanturuStateInfo::IsTimeOut
; Function compile flags: /Odtp /ZI
_TEXT	ENDS
;	COMDAT ?GetRemainTime@CKanturuStateInfo@@QAEHXZ
_TEXT	SEGMENT
_iRemainTime$ = -8					; size = 4
_this$ = -4						; size = 4
?GetRemainTime@CKanturuStateInfo@@QAEHXZ PROC		; CKanturuStateInfo::GetRemainTime, COMDAT
; _this$ = ecx

; 70   : 	{

  00000	55		 push	 ebp
  00001	8b ec		 mov	 ebp, esp
  00003	83 ec 48	 sub	 esp, 72			; 00000048H
  00006	53		 push	 ebx
  00007	56		 push	 esi
  00008	57		 push	 edi
  00009	89 4d fc	 mov	 DWORD PTR _this$[ebp], ecx

; 71   : 		int iRemainTime = 0;

  0000c	c7 45 f8 00 00
	00 00		 mov	 DWORD PTR _iRemainTime$[ebp], 0

; 72   : 
; 73   : 		if ( this->GetCondition() == 1 )

  00013	8b 4d fc	 mov	 ecx, DWORD PTR _this$[ebp]
  00016	e8 00 00 00 00	 call	 ?GetCondition@CKanturuStateInfo@@QAEHXZ ; CKanturuStateInfo::GetCondition
  0001b	83 f8 01	 cmp	 eax, 1
  0001e	75 2b		 jne	 SHORT $LN2@GetRemainT

; 74   : 		{
; 75   : 			iRemainTime = this->m_iValue - this->GetElapsedTime();

  00020	8b 4d fc	 mov	 ecx, DWORD PTR _this$[ebp]
  00023	e8 00 00 00 00	 call	 ?GetElapsedTime@CKanturuStateInfo@@QAEHXZ ; CKanturuStateInfo::GetElapsedTime
  00028	8b 4d fc	 mov	 ecx, DWORD PTR _this$[ebp]
  0002b	8b 51 0c	 mov	 edx, DWORD PTR [ecx+12]
  0002e	2b d0		 sub	 edx, eax
  00030	89 55 f8	 mov	 DWORD PTR _iRemainTime$[ebp], edx

; 76   : 
; 77   : 			if ( iRemainTime <= 0 )

  00033	83 7d f8 00	 cmp	 DWORD PTR _iRemainTime$[ebp], 0
  00037	7f 04		 jg	 SHORT $LN1@GetRemainT

; 78   : 			{
; 79   : 				return 0;

  00039	33 c0		 xor	 eax, eax
  0003b	eb 11		 jmp	 SHORT $LN3@GetRemainT
$LN1@GetRemainT:

; 80   : 			}
; 81   : 
; 82   : 			iRemainTime /= 1000;

  0003d	8b 45 f8	 mov	 eax, DWORD PTR _iRemainTime$[ebp]
  00040	99		 cdq
  00041	b9 e8 03 00 00	 mov	 ecx, 1000		; 000003e8H
  00046	f7 f9		 idiv	 ecx
  00048	89 45 f8	 mov	 DWORD PTR _iRemainTime$[ebp], eax
$LN2@GetRemainT:

; 83   : 		}
; 84   : 
; 85   : 		return iRemainTime;

  0004b	8b 45 f8	 mov	 eax, DWORD PTR _iRemainTime$[ebp]
$LN3@GetRemainT:

; 86   : 	}

  0004e	5f		 pop	 edi
  0004f	5e		 pop	 esi
  00050	5b		 pop	 ebx
  00051	8b e5		 mov	 esp, ebp
  00053	5d		 pop	 ebp
  00054	c3		 ret	 0
?GetRemainTime@CKanturuStateInfo@@QAEHXZ ENDP		; CKanturuStateInfo::GetRemainTime
; Function compile flags: /Odtp /ZI
; File d:\projects\exteam6.3\source\gameserver\gameserver\kanturubattleofmaya.h
_TEXT	ENDS
;	COMDAT ?GetBattleOfMayaState@CKanturuBattleOfMaya@@QAEHXZ
_TEXT	SEGMENT
_this$ = -4						; size = 4
?GetBattleOfMayaState@CKanturuBattleOfMaya@@QAEHXZ PROC	; CKanturuBattleOfMaya::GetBattleOfMayaState, COMDAT
; _this$ = ecx

; 94   : 	int GetBattleOfMayaState(){return this->m_iBattleOfMayaState;}

  00000	55		 push	 ebp
  00001	8b ec		 mov	 ebp, esp
  00003	83 ec 44	 sub	 esp, 68			; 00000044H
  00006	53		 push	 ebx
  00007	56		 push	 esi
  00008	57		 push	 edi
  00009	89 4d fc	 mov	 DWORD PTR _this$[ebp], ecx
  0000c	8b 45 fc	 mov	 eax, DWORD PTR _this$[ebp]
  0000f	8b 40 08	 mov	 eax, DWORD PTR [eax+8]
  00012	5f		 pop	 edi
  00013	5e		 pop	 esi
  00014	5b		 pop	 ebx
  00015	8b e5		 mov	 esp, ebp
  00017	5d		 pop	 ebp
  00018	c3		 ret	 0
?GetBattleOfMayaState@CKanturuBattleOfMaya@@QAEHXZ ENDP	; CKanturuBattleOfMaya::GetBattleOfMayaState
; Function compile flags: /Odtp /ZI
_TEXT	ENDS
;	COMDAT ?GetBattleSceneState@CKanturuBattleOfMaya@@QAEHXZ
_TEXT	SEGMENT
_this$ = -4						; size = 4
?GetBattleSceneState@CKanturuBattleOfMaya@@QAEHXZ PROC	; CKanturuBattleOfMaya::GetBattleSceneState, COMDAT
; _this$ = ecx

; 101  : 	int GetBattleSceneState(){return this->m_iSceneState;}

  00000	55		 push	 ebp
  00001	8b ec		 mov	 ebp, esp
  00003	83 ec 44	 sub	 esp, 68			; 00000044H
  00006	53		 push	 ebx
  00007	56		 push	 esi
  00008	57		 push	 edi
  00009	89 4d fc	 mov	 DWORD PTR _this$[ebp], ecx
  0000c	8b 45 fc	 mov	 eax, DWORD PTR _this$[ebp]
  0000f	8b 40 0c	 mov	 eax, DWORD PTR [eax+12]
  00012	5f		 pop	 edi
  00013	5e		 pop	 esi
  00014	5b		 pop	 ebx
  00015	8b e5		 mov	 esp, ebp
  00017	5d		 pop	 ebp
  00018	c3		 ret	 0
?GetBattleSceneState@CKanturuBattleOfMaya@@QAEHXZ ENDP	; CKanturuBattleOfMaya::GetBattleSceneState
; Function compile flags: /Odtp /ZI
_TEXT	ENDS
;	COMDAT ?GetSceneSuccessValue@CKanturuBattleOfMaya@@QAEHXZ
_TEXT	SEGMENT
_this$ = -4						; size = 4
?GetSceneSuccessValue@CKanturuBattleOfMaya@@QAEHXZ PROC	; CKanturuBattleOfMaya::GetSceneSuccessValue, COMDAT
; _this$ = ecx

; 105  : 	BOOL GetSceneSuccessValue(){return this->m_bIsSceneSuccess;}

  00000	55		 push	 ebp
  00001	8b ec		 mov	 ebp, esp
  00003	83 ec 44	 sub	 esp, 68			; 00000044H
  00006	53		 push	 ebx
  00007	56		 push	 esi
  00008	57		 push	 edi
  00009	89 4d fc	 mov	 DWORD PTR _this$[ebp], ecx
  0000c	8b 45 fc	 mov	 eax, DWORD PTR _this$[ebp]
  0000f	8b 80 d8 01 00
	00		 mov	 eax, DWORD PTR [eax+472]
  00015	5f		 pop	 edi
  00016	5e		 pop	 esi
  00017	5b		 pop	 ebx
  00018	8b e5		 mov	 esp, ebp
  0001a	5d		 pop	 ebp
  0001b	c3		 ret	 0
?GetSceneSuccessValue@CKanturuBattleOfMaya@@QAEHXZ ENDP	; CKanturuBattleOfMaya::GetSceneSuccessValue
_TEXT	ENDS
PUBLIC	?GetRemainTime@CKanturuBattleOfMaya@@QAEHXZ	; CKanturuBattleOfMaya::GetRemainTime
; Function compile flags: /Odtp /ZI
; File d:\projects\exteam6.3\source\gameserver\gameserver\kanturubattleofmaya.cpp
_TEXT	SEGMENT
_iCurrentState$ = -8					; size = 4
_this$ = -4						; size = 4
?GetRemainTime@CKanturuBattleOfMaya@@QAEHXZ PROC	; CKanturuBattleOfMaya::GetRemainTime
; _this$ = ecx

; 1086 : {

  02190	55		 push	 ebp
  02191	8b ec		 mov	 ebp, esp
  02193	83 ec 48	 sub	 esp, 72			; 00000048H
  02196	53		 push	 ebx
  02197	56		 push	 esi
  02198	57		 push	 edi
  02199	89 4d fc	 mov	 DWORD PTR _this$[ebp], ecx

; 1087 : 	int iCurrentState = this->GetBattleOfMayaState();

  0219c	8b 4d fc	 mov	 ecx, DWORD PTR _this$[ebp]
  0219f	e8 00 00 00 00	 call	 ?GetBattleOfMayaState@CKanturuBattleOfMaya@@QAEHXZ ; CKanturuBattleOfMaya::GetBattleOfMayaState
  021a4	89 45 f8	 mov	 DWORD PTR _iCurrentState$[ebp], eax

; 1088 : 	return this->m_StateInfo[iCurrentState].GetRemainTime();

  021a7	8b 45 f8	 mov	 eax, DWORD PTR _iCurrentState$[ebp]
  021aa	6b c0 14	 imul	 eax, 20			; 00000014H
  021ad	8b 4d fc	 mov	 ecx, DWORD PTR _this$[ebp]
  021b0	8d 4c 01 50	 lea	 ecx, DWORD PTR [ecx+eax+80]
  021b4	e8 00 00 00 00	 call	 ?GetRemainTime@CKanturuStateInfo@@QAEHXZ ; CKanturuStateInfo::GetRemainTime

; 1089 : }

  021b9	5f		 pop	 edi
  021ba	5e		 pop	 esi
  021bb	5b		 pop	 ebx
  021bc	8b e5		 mov	 esp, ebp
  021be	5d		 pop	 ebp
  021bf	c3		 ret	 0
?GetRemainTime@CKanturuBattleOfMaya@@QAEHXZ ENDP	; CKanturuBattleOfMaya::GetRemainTime
_TEXT	ENDS
PUBLIC	??_C@_0EI@LCLHMPAM@?$FL?5KANTURU?5?$FN?$FL?5BattleOfMaya?5?$FN?5Fail@ ; `string'
EXTRN	?IsEmpty@CKanturuBattleUserMng@@QAEHXZ:PROC	; CKanturuBattleUserMng::IsEmpty
;	COMDAT ??_C@_0EI@LCLHMPAM@?$FL?5KANTURU?5?$FN?$FL?5BattleOfMaya?5?$FN?5Fail@
CONST	SEGMENT
??_C@_0EI@LCLHMPAM@?$FL?5KANTURU?5?$FN?$FL?5BattleOfMaya?5?$FN?5Fail@ DB '['
	DB	' KANTURU ][ BattleOfMaya ] Fail!! All Battle User Die - Detai'
	DB	'lState:%d', 00H				; `string'
; Function compile flags: /Odtp /ZI
CONST	ENDS
_TEXT	SEGMENT
_this$ = -4						; size = 4
?CheckMayaBattleUser@CKanturuBattleOfMaya@@QAEXXZ PROC	; CKanturuBattleOfMaya::CheckMayaBattleUser
; _this$ = ecx

; 1093 : {

  021c0	55		 push	 ebp
  021c1	8b ec		 mov	 ebp, esp
  021c3	83 ec 44	 sub	 esp, 68			; 00000044H
  021c6	53		 push	 ebx
  021c7	56		 push	 esi
  021c8	57		 push	 edi
  021c9	89 4d fc	 mov	 DWORD PTR _this$[ebp], ecx

; 1094 : 	if ( this->GetBattleOfMayaState() == KANTURU_MAYA_NOTIFY1 ||
; 1095 : 		 this->GetBattleOfMayaState() == KANTURU_MAYA_START1 ||
; 1096 : 		 this->GetBattleOfMayaState() == KANTURU_MAYA1 ||
; 1097 : 		 this->GetBattleOfMayaState() == KANTURU_MAYA_START2 ||
; 1098 : 		 this->GetBattleOfMayaState() == KANTURU_MAYA2 ||
; 1099 : 		 this->GetBattleOfMayaState() == KANTURU_MAYA_START3 ||
; 1100 : 		 this->GetBattleOfMayaState() == KANTURU_MAYA3 )

  021cc	8b 4d fc	 mov	 ecx, DWORD PTR _this$[ebp]
  021cf	e8 00 00 00 00	 call	 ?GetBattleOfMayaState@CKanturuBattleOfMaya@@QAEHXZ ; CKanturuBattleOfMaya::GetBattleOfMayaState
  021d4	83 f8 02	 cmp	 eax, 2
  021d7	74 4e		 je	 SHORT $LN2@CheckMayaB
  021d9	8b 4d fc	 mov	 ecx, DWORD PTR _this$[ebp]
  021dc	e8 00 00 00 00	 call	 ?GetBattleOfMayaState@CKanturuBattleOfMaya@@QAEHXZ ; CKanturuBattleOfMaya::GetBattleOfMayaState
  021e1	83 f8 03	 cmp	 eax, 3
  021e4	74 41		 je	 SHORT $LN2@CheckMayaB
  021e6	8b 4d fc	 mov	 ecx, DWORD PTR _this$[ebp]
  021e9	e8 00 00 00 00	 call	 ?GetBattleOfMayaState@CKanturuBattleOfMaya@@QAEHXZ ; CKanturuBattleOfMaya::GetBattleOfMayaState
  021ee	83 f8 04	 cmp	 eax, 4
  021f1	74 34		 je	 SHORT $LN2@CheckMayaB
  021f3	8b 4d fc	 mov	 ecx, DWORD PTR _this$[ebp]
  021f6	e8 00 00 00 00	 call	 ?GetBattleOfMayaState@CKanturuBattleOfMaya@@QAEHXZ ; CKanturuBattleOfMaya::GetBattleOfMayaState
  021fb	83 f8 08	 cmp	 eax, 8
  021fe	74 27		 je	 SHORT $LN2@CheckMayaB
  02200	8b 4d fc	 mov	 ecx, DWORD PTR _this$[ebp]
  02203	e8 00 00 00 00	 call	 ?GetBattleOfMayaState@CKanturuBattleOfMaya@@QAEHXZ ; CKanturuBattleOfMaya::GetBattleOfMayaState
  02208	83 f8 09	 cmp	 eax, 9
  0220b	74 1a		 je	 SHORT $LN2@CheckMayaB
  0220d	8b 4d fc	 mov	 ecx, DWORD PTR _this$[ebp]
  02210	e8 00 00 00 00	 call	 ?GetBattleOfMayaState@CKanturuBattleOfMaya@@QAEHXZ ; CKanturuBattleOfMaya::GetBattleOfMayaState
  02215	83 f8 0d	 cmp	 eax, 13			; 0000000dH
  02218	74 0d		 je	 SHORT $LN2@CheckMayaB
  0221a	8b 4d fc	 mov	 ecx, DWORD PTR _this$[ebp]
  0221d	e8 00 00 00 00	 call	 ?GetBattleOfMayaState@CKanturuBattleOfMaya@@QAEHXZ ; CKanturuBattleOfMaya::GetBattleOfMayaState
  02222	83 f8 0e	 cmp	 eax, 14			; 0000000eH
  02225	75 42		 jne	 SHORT $LN4@CheckMayaB
$LN2@CheckMayaB:

; 1101 : 	{
; 1102 : 		if ( g_KanturuBattleUserMng.IsEmpty() == TRUE )

  02227	b9 00 00 00 00	 mov	 ecx, OFFSET ?g_KanturuBattleUserMng@@3VCKanturuBattleUserMng@@A ; g_KanturuBattleUserMng
  0222c	e8 00 00 00 00	 call	 ?IsEmpty@CKanturuBattleUserMng@@QAEHXZ ; CKanturuBattleUserMng::IsEmpty
  02231	83 f8 01	 cmp	 eax, 1
  02234	75 33		 jne	 SHORT $LN4@CheckMayaB

; 1103 : 		{
; 1104 : 			this->SetSuccessValue(FALSE);

  02236	6a 00		 push	 0
  02238	8b 4d fc	 mov	 ecx, DWORD PTR _this$[ebp]
  0223b	e8 00 00 00 00	 call	 ?SetSuccessValue@CKanturuBattleOfMaya@@QAEXH@Z ; CKanturuBattleOfMaya::SetSuccessValue

; 1105 : 			this->SetSceneSuccessValue(FALSE);

  02240	6a 00		 push	 0
  02242	8b 4d fc	 mov	 ecx, DWORD PTR _this$[ebp]
  02245	e8 00 00 00 00	 call	 ?SetSceneSuccessValue@CKanturuBattleOfMaya@@QAEXH@Z ; CKanturuBattleOfMaya::SetSceneSuccessValue

; 1106 : 
; 1107 : 			LogAddTD("[ KANTURU ][ BattleOfMaya ] Fail!! All Battle User Die - DetailState:%d",
; 1108 : 				this->m_iBattleOfMayaState);

  0224a	8b 45 fc	 mov	 eax, DWORD PTR _this$[ebp]
  0224d	8b 48 08	 mov	 ecx, DWORD PTR [eax+8]
  02250	51		 push	 ecx
  02251	68 00 00 00 00	 push	 OFFSET ??_C@_0EI@LCLHMPAM@?$FL?5KANTURU?5?$FN?$FL?5BattleOfMaya?5?$FN?5Fail@
  02256	ff 15 00 00 00
	00		 call	 DWORD PTR ?LogAddTD@@3P6AXPADZZA ; LogAddTD
  0225c	83 c4 08	 add	 esp, 8

; 1109 : 
; 1110 : 			this->SetState(KANTURU_MAYA_END);

  0225f	6a 11		 push	 17			; 00000011H
  02261	8b 4d fc	 mov	 ecx, DWORD PTR _this$[ebp]
  02264	e8 00 00 00 00	 call	 ?SetState@CKanturuBattleOfMaya@@QAEXH@Z ; CKanturuBattleOfMaya::SetState
$LN4@CheckMayaB:

; 1111 : 		}
; 1112 : 	}
; 1113 : }

  02269	5f		 pop	 edi
  0226a	5e		 pop	 esi
  0226b	5b		 pop	 ebx
  0226c	8b e5		 mov	 esp, ebp
  0226e	5d		 pop	 ebp
  0226f	c3		 ret	 0
?CheckMayaBattleUser@CKanturuBattleOfMaya@@QAEXXZ ENDP	; CKanturuBattleOfMaya::CheckMayaBattleUser
_TEXT	ENDS
EXTRN	?ChangeAIOrder@TMonsterAIGroup@@SAXHH@Z:PROC	; TMonsterAIGroup::ChangeAIOrder
EXTRN	?Init@TMonsterAIGroup@@SAXH@Z:PROC		; TMonsterAIGroup::Init
; Function compile flags: /Odtp /ZI
_TEXT	SEGMENT
_this$ = -4						; size = 4
_iGroupNumber$ = 8					; size = 4
?SetAIMonsterGroup@CKanturuBattleOfMaya@@QAEXH@Z PROC	; CKanturuBattleOfMaya::SetAIMonsterGroup
; _this$ = ecx

; 1118 : {

  02270	55		 push	 ebp
  02271	8b ec		 mov	 ebp, esp
  02273	83 ec 44	 sub	 esp, 68			; 00000044H
  02276	53		 push	 ebx
  02277	56		 push	 esi
  02278	57		 push	 edi
  02279	89 4d fc	 mov	 DWORD PTR _this$[ebp], ecx

; 1119 : 	TMonsterAIGroup::Init(iGroupNumber);

  0227c	8b 45 08	 mov	 eax, DWORD PTR _iGroupNumber$[ebp]
  0227f	50		 push	 eax
  02280	e8 00 00 00 00	 call	 ?Init@TMonsterAIGroup@@SAXH@Z ; TMonsterAIGroup::Init
  02285	83 c4 04	 add	 esp, 4

; 1120 : 	TMonsterAIGroup::ChangeAIOrder(iGroupNumber, 0);

  02288	6a 00		 push	 0
  0228a	8b 45 08	 mov	 eax, DWORD PTR _iGroupNumber$[ebp]
  0228d	50		 push	 eax
  0228e	e8 00 00 00 00	 call	 ?ChangeAIOrder@TMonsterAIGroup@@SAXHH@Z ; TMonsterAIGroup::ChangeAIOrder
  02293	83 c4 08	 add	 esp, 8

; 1121 : 
; 1122 : 	this->m_iMayaHandAIAppliedTime = GetTickCount();

  02296	ff 15 00 00 00
	00		 call	 DWORD PTR __imp__GetTickCount@0
  0229c	8b 4d fc	 mov	 ecx, DWORD PTR _this$[ebp]
  0229f	89 81 10 02 00
	00		 mov	 DWORD PTR [ecx+528], eax

; 1123 : }

  022a5	5f		 pop	 edi
  022a6	5e		 pop	 esi
  022a7	5b		 pop	 ebx
  022a8	8b e5		 mov	 esp, ebp
  022aa	5d		 pop	 ebp
  022ab	c2 04 00	 ret	 4
?SetAIMonsterGroup@CKanturuBattleOfMaya@@QAEXH@Z ENDP	; CKanturuBattleOfMaya::SetAIMonsterGroup
_TEXT	ENDS
PUBLIC	__real@00000000
EXTRN	?DelGroupInstance@TMonsterAIGroup@@SAHH@Z:PROC	; TMonsterAIGroup::DelGroupInstance
;	COMDAT __real@00000000
CONST	SEGMENT
__real@00000000 DD 000000000r			; 0
; Function compile flags: /Odtp /ZI
CONST	ENDS
_TEXT	SEGMENT
_iCount$228385 = -8					; size = 4
_this$ = -4						; size = 4
?ResetAIMonster@CKanturuBattleOfMaya@@QAEXXZ PROC	; CKanturuBattleOfMaya::ResetAIMonster
; _this$ = ecx

; 1127 : {

  022b0	55		 push	 ebp
  022b1	8b ec		 mov	 ebp, esp
  022b3	83 ec 48	 sub	 esp, 72			; 00000048H
  022b6	53		 push	 ebx
  022b7	56		 push	 esi
  022b8	57		 push	 edi
  022b9	89 4d fc	 mov	 DWORD PTR _this$[ebp], ecx

; 1128 : 	if(this->m_iMayaLeftHandObjIndex != -1)//Season 4.5 addon

  022bc	8b 45 fc	 mov	 eax, DWORD PTR _this$[ebp]
  022bf	83 b8 f4 01 00
	00 ff		 cmp	 DWORD PTR [eax+500], -1
  022c6	74 1e		 je	 SHORT $LN5@ResetAIMon

; 1129 : 	{
; 1130 : 		gObj[this->m_iMayaLeftHandObjIndex].Life = 0;

  022c8	8b 45 fc	 mov	 eax, DWORD PTR _this$[ebp]
  022cb	8b 88 f4 01 00
	00		 mov	 ecx, DWORD PTR [eax+500]
  022d1	69 c9 38 2b 00
	00		 imul	 ecx, 11064		; 00002b38H
  022d7	8b 15 00 00 00
	00		 mov	 edx, DWORD PTR ?gObj@@3PAUOBJECTSTRUCT@@A ; gObj
  022dd	d9 ee		 fldz
  022df	d9 9c 0a fc 00
	00 00		 fstp	 DWORD PTR [edx+ecx+252]
$LN5@ResetAIMon:

; 1131 : 	}
; 1132 : 
; 1133 : 	if(this->m_iMayaRightHandObjIndex != -1)//Season 4.5 addon

  022e6	8b 45 fc	 mov	 eax, DWORD PTR _this$[ebp]
  022e9	83 b8 f8 01 00
	00 ff		 cmp	 DWORD PTR [eax+504], -1
  022f0	74 1e		 je	 SHORT $LN4@ResetAIMon

; 1134 : 	{
; 1135 : 		gObj[this->m_iMayaRightHandObjIndex].Life = 0;

  022f2	8b 45 fc	 mov	 eax, DWORD PTR _this$[ebp]
  022f5	8b 88 f8 01 00
	00		 mov	 ecx, DWORD PTR [eax+504]
  022fb	69 c9 38 2b 00
	00		 imul	 ecx, 11064		; 00002b38H
  02301	8b 15 00 00 00
	00		 mov	 edx, DWORD PTR ?gObj@@3PAUOBJECTSTRUCT@@A ; gObj
  02307	d9 ee		 fldz
  02309	d9 9c 0a fc 00
	00 00		 fstp	 DWORD PTR [edx+ecx+252]
$LN4@ResetAIMon:

; 1136 : 	}
; 1137 : 
; 1138 : 	for ( int iCount=0;iCount < KANTURU_MAYA_AI_CHANGE_TIME ; iCount++)

  02310	c7 45 f8 00 00
	00 00		 mov	 DWORD PTR _iCount$228385[ebp], 0
  02317	eb 09		 jmp	 SHORT $LN3@ResetAIMon
$LN2@ResetAIMon:
  02319	8b 45 f8	 mov	 eax, DWORD PTR _iCount$228385[ebp]
  0231c	83 c0 01	 add	 eax, 1
  0231f	89 45 f8	 mov	 DWORD PTR _iCount$228385[ebp], eax
$LN3@ResetAIMon:
  02322	83 7d f8 04	 cmp	 DWORD PTR _iCount$228385[ebp], 4
  02326	7d 18		 jge	 SHORT $LN1@ResetAIMon

; 1139 : 	{
; 1140 : 		TMonsterAIGroup::DelGroupInstance(this->m_iMayaHandGroupNumber[iCount]);

  02328	8b 45 f8	 mov	 eax, DWORD PTR _iCount$228385[ebp]
  0232b	8b 4d fc	 mov	 ecx, DWORD PTR _this$[ebp]
  0232e	8b 94 81 18 02
	00 00		 mov	 edx, DWORD PTR [ecx+eax*4+536]
  02335	52		 push	 edx
  02336	e8 00 00 00 00	 call	 ?DelGroupInstance@TMonsterAIGroup@@SAHH@Z ; TMonsterAIGroup::DelGroupInstance
  0233b	83 c4 04	 add	 esp, 4

; 1141 : 	}

  0233e	eb d9		 jmp	 SHORT $LN2@ResetAIMon
$LN1@ResetAIMon:

; 1142 : 
; 1143 : 	this->m_iMayaLeftHandObjIndex = -1;

  02340	8b 45 fc	 mov	 eax, DWORD PTR _this$[ebp]
  02343	c7 80 f4 01 00
	00 ff ff ff ff	 mov	 DWORD PTR [eax+500], -1

; 1144 : 	this->m_iMayaRightHandObjIndex = -1;

  0234d	8b 45 fc	 mov	 eax, DWORD PTR _this$[ebp]
  02350	c7 80 f8 01 00
	00 ff ff ff ff	 mov	 DWORD PTR [eax+504], -1

; 1145 : 	this->m_iMayaHandAIAppliedTime = 0;

  0235a	8b 45 fc	 mov	 eax, DWORD PTR _this$[ebp]
  0235d	c7 80 10 02 00
	00 00 00 00 00	 mov	 DWORD PTR [eax+528], 0

; 1146 : 	this->m_iMayaHandCurrentAI = 0;

  02367	8b 45 fc	 mov	 eax, DWORD PTR _this$[ebp]
  0236a	c7 80 14 02 00
	00 00 00 00 00	 mov	 DWORD PTR [eax+532], 0

; 1147 : }

  02374	5f		 pop	 edi
  02375	5e		 pop	 esi
  02376	5b		 pop	 ebx
  02377	8b e5		 mov	 esp, ebp
  02379	5d		 pop	 ebp
  0237a	c3		 ret	 0
?ResetAIMonster@CKanturuBattleOfMaya@@QAEXXZ ENDP	; CKanturuBattleOfMaya::ResetAIMonster
; Function compile flags: /Odtp /ZI
_this$ = -4						; size = 4
_iGroupNumber$ = 8					; size = 4
?ChangeAI@CKanturuBattleOfMaya@@QAEXH@Z PROC		; CKanturuBattleOfMaya::ChangeAI
; _this$ = ecx

; 1152 : {

  02380	55		 push	 ebp
  02381	8b ec		 mov	 ebp, esp
