; Listing generated by Microsoft (R) Optimizing Compiler Version 16.00.40219.01 

	TITLE	D:\Projects\ExTeam6.3\Source\GameServer\GameServer\KanturuEntranceNPC.cpp
	.686P
	.XMM
	include listing.inc
	.model	flat

INCLUDELIB LIBCMT
INCLUDELIB OLDNAMES

PUBLIC	??_H@YGXPAXIHP6EPAX0@Z@Z			; `vector constructor iterator'
; Function compile flags: /Odtp /ZI
;	COMDAT ??_H@YGXPAXIHP6EPAX0@Z@Z
_TEXT	SEGMENT
___t$ = 8						; size = 4
___s$ = 12						; size = 4
___n$ = 16						; size = 4
___f$ = 20						; size = 4
??_H@YGXPAXIHP6EPAX0@Z@Z PROC				; `vector constructor iterator', COMDAT
  00000	55		 push	 ebp
  00001	8b ec		 mov	 ebp, esp
  00003	83 ec 40	 sub	 esp, 64			; 00000040H
  00006	53		 push	 ebx
  00007	56		 push	 esi
  00008	57		 push	 edi
$LN2@vector:
  00009	8b 45 10	 mov	 eax, DWORD PTR ___n$[ebp]
  0000c	83 e8 01	 sub	 eax, 1
  0000f	89 45 10	 mov	 DWORD PTR ___n$[ebp], eax
  00012	78 11		 js	 SHORT $LN3@vector
  00014	8b 4d 08	 mov	 ecx, DWORD PTR ___t$[ebp]
  00017	ff 55 14	 call	 DWORD PTR ___f$[ebp]
  0001a	8b 45 08	 mov	 eax, DWORD PTR ___t$[ebp]
  0001d	03 45 0c	 add	 eax, DWORD PTR ___s$[ebp]
  00020	89 45 08	 mov	 DWORD PTR ___t$[ebp], eax
  00023	eb e4		 jmp	 SHORT $LN2@vector
$LN3@vector:
  00025	5f		 pop	 edi
  00026	5e		 pop	 esi
  00027	5b		 pop	 ebx
  00028	8b e5		 mov	 esp, ebp
  0002a	5d		 pop	 ebp
  0002b	c2 10 00	 ret	 16			; 00000010H
??_H@YGXPAXIHP6EPAX0@Z@Z ENDP				; `vector constructor iterator'
_TEXT	ENDS
PUBLIC	??_7CKanturuEntranceNPC@@6B@			; CKanturuEntranceNPC::`vftable'
PUBLIC	??0CKanturuEntranceNPC@@QAE@XZ			; CKanturuEntranceNPC::CKanturuEntranceNPC
PUBLIC	??_R4CKanturuEntranceNPC@@6B@			; CKanturuEntranceNPC::`RTTI Complete Object Locator'
PUBLIC	??_R0?AVCKanturuEntranceNPC@@@8			; CKanturuEntranceNPC `RTTI Type Descriptor'
PUBLIC	??_R3CKanturuEntranceNPC@@8			; CKanturuEntranceNPC::`RTTI Class Hierarchy Descriptor'
PUBLIC	??_R2CKanturuEntranceNPC@@8			; CKanturuEntranceNPC::`RTTI Base Class Array'
PUBLIC	??_R1A@?0A@EA@CKanturuEntranceNPC@@8		; CKanturuEntranceNPC::`RTTI Base Class Descriptor at (0,-1,0,64)'
EXTRN	??_7type_info@@6B@:QWORD			; type_info::`vftable'
EXTRN	??_ECKanturuEntranceNPC@@UAEPAXI@Z:PROC		; CKanturuEntranceNPC::`vector deleting destructor'
;	COMDAT ??_R1A@?0A@EA@CKanturuEntranceNPC@@8
; File d:\projects\exteam6.3\source\gameserver\gameserver\kanturuentrancenpc.cpp
rdata$r	SEGMENT
??_R1A@?0A@EA@CKanturuEntranceNPC@@8 DD FLAT:??_R0?AVCKanturuEntranceNPC@@@8 ; CKanturuEntranceNPC::`RTTI Base Class Descriptor at (0,-1,0,64)'
	DD	00H
	DD	00H
	DD	0ffffffffH
	DD	00H
	DD	040H
	DD	FLAT:??_R3CKanturuEntranceNPC@@8
rdata$r	ENDS
;	COMDAT ??_R2CKanturuEntranceNPC@@8
rdata$r	SEGMENT
??_R2CKanturuEntranceNPC@@8 DD FLAT:??_R1A@?0A@EA@CKanturuEntranceNPC@@8 ; CKanturuEntranceNPC::`RTTI Base Class Array'
rdata$r	ENDS
;	COMDAT ??_R3CKanturuEntranceNPC@@8
rdata$r	SEGMENT
??_R3CKanturuEntranceNPC@@8 DD 00H			; CKanturuEntranceNPC::`RTTI Class Hierarchy Descriptor'
	DD	00H
	DD	01H
	DD	FLAT:??_R2CKanturuEntranceNPC@@8
rdata$r	ENDS
;	COMDAT ??_R0?AVCKanturuEntranceNPC@@@8
_DATA	SEGMENT
??_R0?AVCKanturuEntranceNPC@@@8 DD FLAT:??_7type_info@@6B@ ; CKanturuEntranceNPC `RTTI Type Descriptor'
	DD	00H
	DB	'.?AVCKanturuEntranceNPC@@', 00H
_DATA	ENDS
;	COMDAT ??_R4CKanturuEntranceNPC@@6B@
rdata$r	SEGMENT
??_R4CKanturuEntranceNPC@@6B@ DD 00H			; CKanturuEntranceNPC::`RTTI Complete Object Locator'
	DD	00H
	DD	00H
	DD	FLAT:??_R0?AVCKanturuEntranceNPC@@@8
	DD	FLAT:??_R3CKanturuEntranceNPC@@8
rdata$r	ENDS
;	COMDAT ??_7CKanturuEntranceNPC@@6B@
CONST	SEGMENT
??_7CKanturuEntranceNPC@@6B@ DD FLAT:??_R4CKanturuEntranceNPC@@6B@ ; CKanturuEntranceNPC::`vftable'
	DD	FLAT:??_ECKanturuEntranceNPC@@UAEPAXI@Z
; Function compile flags: /Odtp /ZI
CONST	ENDS
_TEXT	SEGMENT
_this$ = -4						; size = 4
??0CKanturuEntranceNPC@@QAE@XZ PROC			; CKanturuEntranceNPC::CKanturuEntranceNPC
; _this$ = ecx

; 25   : {

  00000	55		 push	 ebp
  00001	8b ec		 mov	 ebp, esp
  00003	83 ec 44	 sub	 esp, 68			; 00000044H
  00006	53		 push	 ebx
  00007	56		 push	 esi
  00008	57		 push	 edi
  00009	89 4d fc	 mov	 DWORD PTR _this$[ebp], ecx
  0000c	8b 45 fc	 mov	 eax, DWORD PTR _this$[ebp]
  0000f	c7 00 00 00 00
	00		 mov	 DWORD PTR [eax], OFFSET ??_7CKanturuEntranceNPC@@6B@

; 26   : 	return;
; 27   : }

  00015	8b 45 fc	 mov	 eax, DWORD PTR _this$[ebp]
  00018	5f		 pop	 edi
  00019	5e		 pop	 esi
  0001a	5b		 pop	 ebx
  0001b	8b e5		 mov	 esp, ebp
  0001d	5d		 pop	 ebp
  0001e	c3		 ret	 0
??0CKanturuEntranceNPC@@QAE@XZ ENDP			; CKanturuEntranceNPC::CKanturuEntranceNPC
_TEXT	ENDS
PUBLIC	??1CKanturuEntranceNPC@@UAE@XZ			; CKanturuEntranceNPC::~CKanturuEntranceNPC
EXTRN	??3@YAXPAX@Z:PROC				; operator delete
; Function compile flags: /Odtp /ZI
;	COMDAT ??_GCKanturuEntranceNPC@@UAEPAXI@Z
_TEXT	SEGMENT
_this$ = -4						; size = 4
___flags$ = 8						; size = 4
??_GCKanturuEntranceNPC@@UAEPAXI@Z PROC			; CKanturuEntranceNPC::`scalar deleting destructor', COMDAT
; _this$ = ecx
  00000	55		 push	 ebp
  00001	8b ec		 mov	 ebp, esp
  00003	83 ec 44	 sub	 esp, 68			; 00000044H
  00006	53		 push	 ebx
  00007	56		 push	 esi
  00008	57		 push	 edi
  00009	89 4d fc	 mov	 DWORD PTR _this$[ebp], ecx
  0000c	8b 4d fc	 mov	 ecx, DWORD PTR _this$[ebp]
  0000f	e8 00 00 00 00	 call	 ??1CKanturuEntranceNPC@@UAE@XZ ; CKanturuEntranceNPC::~CKanturuEntranceNPC
  00014	8b 45 08	 mov	 eax, DWORD PTR ___flags$[ebp]
  00017	83 e0 01	 and	 eax, 1
  0001a	74 0c		 je	 SHORT $LN1@scalar
  0001c	8b 45 fc	 mov	 eax, DWORD PTR _this$[ebp]
  0001f	50		 push	 eax
  00020	e8 00 00 00 00	 call	 ??3@YAXPAX@Z		; operator delete
  00025	83 c4 04	 add	 esp, 4
$LN1@scalar:
  00028	8b 45 fc	 mov	 eax, DWORD PTR _this$[ebp]
  0002b	5f		 pop	 edi
  0002c	5e		 pop	 esi
  0002d	5b		 pop	 ebx
  0002e	8b e5		 mov	 esp, ebp
  00030	5d		 pop	 ebp
  00031	c2 04 00	 ret	 4
??_GCKanturuEntranceNPC@@UAEPAXI@Z ENDP			; CKanturuEntranceNPC::`scalar deleting destructor'
; Function compile flags: /Odtp /ZI
_TEXT	ENDS
_TEXT	SEGMENT
_this$ = -4						; size = 4
??1CKanturuEntranceNPC@@UAE@XZ PROC			; CKanturuEntranceNPC::~CKanturuEntranceNPC
; _this$ = ecx

; 30   : {

  00020	55		 push	 ebp
  00021	8b ec		 mov	 ebp, esp
  00023	83 ec 44	 sub	 esp, 68			; 00000044H
  00026	53		 push	 ebx
  00027	56		 push	 esi
  00028	57		 push	 edi
  00029	89 4d fc	 mov	 DWORD PTR _this$[ebp], ecx
  0002c	8b 45 fc	 mov	 eax, DWORD PTR _this$[ebp]
  0002f	c7 00 00 00 00
	00		 mov	 DWORD PTR [eax], OFFSET ??_7CKanturuEntranceNPC@@6B@

; 31   : 	return;
; 32   : }

  00035	5f		 pop	 edi
  00036	5e		 pop	 esi
  00037	5b		 pop	 ebx
  00038	8b e5		 mov	 esp, ebp
  0003a	5d		 pop	 ebp
  0003b	c3		 ret	 0
??1CKanturuEntranceNPC@@UAE@XZ ENDP			; CKanturuEntranceNPC::~CKanturuEntranceNPC
_TEXT	ENDS
PUBLIC	?GetKanturuState@CKanturu@@QAEHXZ		; CKanturu::GetKanturuState
PUBLIC	__$ArrayPad$
PUBLIC	?NotifyEntranceInfo@CKanturuEntranceNPC@@QAEXH@Z ; CKanturuEntranceNPC::NotifyEntranceInfo
EXTRN	?SendDataToUser@CKanturuUtil@@QAEXHPAEH@Z:PROC	; CKanturuUtil::SendDataToUser
EXTRN	?GetRemainTime@CKanturu@@QAEHXZ:PROC		; CKanturu::GetRemainTime
EXTRN	?GetUserCount@CKanturuBattleUserMng@@QAEHXZ:PROC ; CKanturuBattleUserMng::GetUserCount
EXTRN	?g_KanturuBattleUserMng@@3VCKanturuBattleUserMng@@A:BYTE ; g_KanturuBattleUserMng
EXTRN	?CheckCanEnterKanturuBattle@CKanturu@@QAEHXZ:PROC ; CKanturu::CheckCanEnterKanturuBattle
EXTRN	?GetKanturuDetailState@CKanturu@@QAEHXZ:PROC	; CKanturu::GetKanturuDetailState
EXTRN	?g_Kanturu@@3VCKanturu@@A:BYTE			; g_Kanturu
EXTRN	?PHeadSubSetB@@YAXPAEEEH@Z:PROC			; PHeadSubSetB
EXTRN	___security_cookie:DWORD
EXTRN	@__security_check_cookie@4:PROC
; Function compile flags: /Odtp /ZI
_TEXT	SEGMENT
_iCurrentDetailState$ = -28				; size = 4
_iCurrentState$ = -24					; size = 4
_pMsg$ = -20						; size = 12
_this$ = -8						; size = 4
__$ArrayPad$ = -4					; size = 4
_iIndex$ = 8						; size = 4
?NotifyEntranceInfo@CKanturuEntranceNPC@@QAEXH@Z PROC	; CKanturuEntranceNPC::NotifyEntranceInfo
; _this$ = ecx

; 47   : {

  00040	55		 push	 ebp
  00041	8b ec		 mov	 ebp, esp
  00043	83 ec 5c	 sub	 esp, 92			; 0000005cH
  00046	a1 00 00 00 00	 mov	 eax, DWORD PTR ___security_cookie
  0004b	33 c5		 xor	 eax, ebp
  0004d	89 45 fc	 mov	 DWORD PTR __$ArrayPad$[ebp], eax
  00050	53		 push	 ebx
  00051	56		 push	 esi
  00052	57		 push	 edi
  00053	89 4d f8	 mov	 DWORD PTR _this$[ebp], ecx

; 48   : 	PMSG_ANS_KANTURU_STATE_INFO pMsg = {0};

  00056	c6 45 ec 00	 mov	 BYTE PTR _pMsg$[ebp], 0
  0005a	33 c0		 xor	 eax, eax
  0005c	89 45 ed	 mov	 DWORD PTR _pMsg$[ebp+1], eax
  0005f	89 45 f1	 mov	 DWORD PTR _pMsg$[ebp+5], eax
  00062	66 89 45 f5	 mov	 WORD PTR _pMsg$[ebp+9], ax
  00066	88 45 f7	 mov	 BYTE PTR _pMsg$[ebp+11], al

; 49   : 
; 50   : 	PHeadSubSetB((LPBYTE)&pMsg, 0xD1, 0x00, sizeof(pMsg));

  00069	6a 0c		 push	 12			; 0000000cH
  0006b	6a 00		 push	 0
  0006d	68 d1 00 00 00	 push	 209			; 000000d1H
  00072	8d 45 ec	 lea	 eax, DWORD PTR _pMsg$[ebp]
  00075	50		 push	 eax
  00076	e8 00 00 00 00	 call	 ?PHeadSubSetB@@YAXPAEEEH@Z ; PHeadSubSetB
  0007b	83 c4 10	 add	 esp, 16			; 00000010H

; 51   : 	int iCurrentState = g_Kanturu.GetKanturuState();

  0007e	b9 00 00 00 00	 mov	 ecx, OFFSET ?g_Kanturu@@3VCKanturu@@A ; g_Kanturu
  00083	e8 00 00 00 00	 call	 ?GetKanturuState@CKanturu@@QAEHXZ ; CKanturu::GetKanturuState
  00088	89 45 e8	 mov	 DWORD PTR _iCurrentState$[ebp], eax

; 52   : 	int iCurrentDetailState = g_Kanturu.GetKanturuDetailState();

  0008b	b9 00 00 00 00	 mov	 ecx, OFFSET ?g_Kanturu@@3VCKanturu@@A ; g_Kanturu
  00090	e8 00 00 00 00	 call	 ?GetKanturuDetailState@CKanturu@@QAEHXZ ; CKanturu::GetKanturuDetailState
  00095	89 45 e4	 mov	 DWORD PTR _iCurrentDetailState$[ebp], eax

; 53   : 	pMsg.btState = iCurrentState;

  00098	8a 45 e8	 mov	 al, BYTE PTR _iCurrentState$[ebp]
  0009b	88 45 f0	 mov	 BYTE PTR _pMsg$[ebp+4], al

; 54   : 	pMsg.btDetailState = iCurrentDetailState;

  0009e	8a 45 e4	 mov	 al, BYTE PTR _iCurrentDetailState$[ebp]
  000a1	88 45 f1	 mov	 BYTE PTR _pMsg$[ebp+5], al

; 55   : 	pMsg.btEnter = g_Kanturu.CheckCanEnterKanturuBattle();

  000a4	b9 00 00 00 00	 mov	 ecx, OFFSET ?g_Kanturu@@3VCKanturu@@A ; g_Kanturu
  000a9	e8 00 00 00 00	 call	 ?CheckCanEnterKanturuBattle@CKanturu@@QAEHXZ ; CKanturu::CheckCanEnterKanturuBattle
  000ae	88 45 f2	 mov	 BYTE PTR _pMsg$[ebp+6], al

; 56   : 	pMsg.btUserCount = g_KanturuBattleUserMng.GetUserCount();

  000b1	b9 00 00 00 00	 mov	 ecx, OFFSET ?g_KanturuBattleUserMng@@3VCKanturuBattleUserMng@@A ; g_KanturuBattleUserMng
  000b6	e8 00 00 00 00	 call	 ?GetUserCount@CKanturuBattleUserMng@@QAEHXZ ; CKanturuBattleUserMng::GetUserCount
  000bb	88 45 f3	 mov	 BYTE PTR _pMsg$[ebp+7], al

; 57   : 	pMsg.iRemainTime = g_Kanturu.GetRemainTime();

  000be	b9 00 00 00 00	 mov	 ecx, OFFSET ?g_Kanturu@@3VCKanturu@@A ; g_Kanturu
  000c3	e8 00 00 00 00	 call	 ?GetRemainTime@CKanturu@@QAEHXZ ; CKanturu::GetRemainTime
  000c8	89 45 f4	 mov	 DWORD PTR _pMsg$[ebp+8], eax

; 58   : 
; 59   : 	KANTURU_UTIL.SendDataToUser(iIndex, (LPBYTE)&pMsg, sizeof(pMsg));

  000cb	6a 0c		 push	 12			; 0000000cH
  000cd	8d 45 ec	 lea	 eax, DWORD PTR _pMsg$[ebp]
  000d0	50		 push	 eax
  000d1	8b 4d 08	 mov	 ecx, DWORD PTR _iIndex$[ebp]
  000d4	51		 push	 ecx
  000d5	b9 00 00 00 00	 mov	 ecx, OFFSET _KANTURU_UTIL
  000da	e8 00 00 00 00	 call	 ?SendDataToUser@CKanturuUtil@@QAEXHPAEH@Z ; CKanturuUtil::SendDataToUser

; 60   : }

  000df	5f		 pop	 edi
  000e0	5e		 pop	 esi
  000e1	5b		 pop	 ebx
  000e2	8b 4d fc	 mov	 ecx, DWORD PTR __$ArrayPad$[ebp]
  000e5	33 cd		 xor	 ecx, ebp
  000e7	e8 00 00 00 00	 call	 @__security_check_cookie@4
  000ec	8b e5		 mov	 esp, ebp
  000ee	5d		 pop	 ebp
  000ef	c2 04 00	 ret	 4
?NotifyEntranceInfo@CKanturuEntranceNPC@@QAEXH@Z ENDP	; CKanturuEntranceNPC::NotifyEntranceInfo
; Function compile flags: /Odtp /ZI
; File d:\projects\exteam6.3\source\gameserver\gameserver\kanturu.h
_TEXT	ENDS
;	COMDAT ?GetKanturuState@CKanturu@@QAEHXZ
_TEXT	SEGMENT
_this$ = -4						; size = 4
?GetKanturuState@CKanturu@@QAEHXZ PROC			; CKanturu::GetKanturuState, COMDAT
; _this$ = ecx

; 71   : 	int GetKanturuState(){return this->m_iKanturuState;}

  00000	55		 push	 ebp
  00001	8b ec		 mov	 ebp, esp
  00003	83 ec 44	 sub	 esp, 68			; 00000044H
  00006	53		 push	 ebx
  00007	56		 push	 esi
  00008	57		 push	 edi
  00009	89 4d fc	 mov	 DWORD PTR _this$[ebp], ecx
  0000c	8b 45 fc	 mov	 eax, DWORD PTR _this$[ebp]
  0000f	8b 40 08	 mov	 eax, DWORD PTR [eax+8]
  00012	5f		 pop	 edi
  00013	5e		 pop	 esi
  00014	5b		 pop	 ebx
  00015	8b e5		 mov	 esp, ebp
  00017	5d		 pop	 ebp
  00018	c3		 ret	 0
?GetKanturuState@CKanturu@@QAEHXZ ENDP			; CKanturu::GetKanturuState
_TEXT	ENDS
PUBLIC	??_C@_0DP@FPALCGEM@?$FL?5KANTURU?5?$FN?$FL?5BossMapMove?5?$FN?5Fail?5@ ; `string'
PUBLIC	??_C@_0DP@OECGBDJN@?$FL?5KANTURU?5?$FN?$FL?5BossMapMove?5?$FN?5Error@ ; `string'
PUBLIC	??_C@_0MK@ODKKBILD@?$FL?5KANTURU?5?$FN?$FL?5Battle?5User?5?$FN?5Add?5U@ ; `string'
PUBLIC	?NotifyResultEnterKanturuBossMap@CKanturuEntranceNPC@@QAEXH@Z ; CKanturuEntranceNPC::NotifyResultEnterKanturuBossMap
EXTRN	?NotifyKanturuEntranceReqResult@CKanturuUtil@@QAEXHH@Z:PROC ; CKanturuUtil::NotifyKanturuEntranceReqResult
EXTRN	?NotifyKanturuCurrentState@CKanturuUtil@@QAEXHHH@Z:PROC ; CKanturuUtil::NotifyKanturuCurrentState
EXTRN	?LogAddTD@@3P6AXPADZZA:DWORD			; LogAddTD
EXTRN	?AddUserData@CKanturuBattleUserMng@@QAEHH@Z:PROC ; CKanturuBattleUserMng::AddUserData
EXTRN	?gObjMoveGate@@YAHHH@Z:PROC			; gObjMoveGate
EXTRN	?CheckEnterKanturu@CKanturu@@QAEHH@Z:PROC	; CKanturu::CheckEnterKanturu
EXTRN	?gObj@@3PAUOBJECTSTRUCT@@A:DWORD		; gObj
EXTRN	?gObjIsConnected@@YAHH@Z:PROC			; gObjIsConnected
;	COMDAT ??_C@_0DP@FPALCGEM@?$FL?5KANTURU?5?$FN?$FL?5BossMapMove?5?$FN?5Fail?5@
; File d:\projects\exteam6.3\source\gameserver\gameserver\kanturuentrancenpc.cpp
CONST	SEGMENT
??_C@_0DP@FPALCGEM@?$FL?5KANTURU?5?$FN?$FL?5BossMapMove?5?$FN?5Fail?5@ DB '['
	DB	' KANTURU ][ BossMapMove ] Fail - Result(%d) Character[%s][%s]'
	DB	00H						; `string'
CONST	ENDS
;	COMDAT ??_C@_0DP@OECGBDJN@?$FL?5KANTURU?5?$FN?$FL?5BossMapMove?5?$FN?5Error@
CONST	SEGMENT
??_C@_0DP@OECGBDJN@?$FL?5KANTURU?5?$FN?$FL?5BossMapMove?5?$FN?5Error@ DB '['
	DB	' KANTURU ][ BossMapMove ] Error - State(%d) Character[%s][%s]'
	DB	00H						; `string'
CONST	ENDS
;	COMDAT ??_C@_0MK@ODKKBILD@?$FL?5KANTURU?5?$FN?$FL?5Battle?5User?5?$FN?5Add?5U@
CONST	SEGMENT
??_C@_0MK@ODKKBILD@?$FL?5KANTURU?5?$FN?$FL?5Battle?5User?5?$FN?5Add?5U@ DB '['
	DB	' KANTURU ][ Battle User ] Add User [%s][%s] Current Battle Us'
	DB	'er:%d State:[%d-%d] (CharInfoSave : Class=%d, Level=%d, LvPoi'
	DB	'nt=%d, Exp=%u, Str=%d, Dex=%d, Vit=%d, Energy=%d, LeaderShip='
	DB	'%d, Map=%d, Pk=%d', 00H			; `string'
; Function compile flags: /Odtp /ZI
CONST	ENDS
_TEXT	SEGMENT
_iCurrentState$219803 = -20				; size = 4
_iResult$ = -16						; size = 4
_bMoveGateSuccess$ = -12				; size = 4
_lpObj$ = -8						; size = 4
_this$ = -4						; size = 4
_iIndex$ = 8						; size = 4
?NotifyResultEnterKanturuBossMap@CKanturuEntranceNPC@@QAEXH@Z PROC ; CKanturuEntranceNPC::NotifyResultEnterKanturuBossMap
; _this$ = ecx

; 65   : {

  00100	55		 push	 ebp
  00101	8b ec		 mov	 ebp, esp
  00103	83 ec 54	 sub	 esp, 84			; 00000054H
  00106	53		 push	 ebx
  00107	56		 push	 esi
  00108	57		 push	 edi
  00109	89 4d fc	 mov	 DWORD PTR _this$[ebp], ecx

; 66   : 	if ( !gObjIsConnected(iIndex))

  0010c	8b 45 08	 mov	 eax, DWORD PTR _iIndex$[ebp]
  0010f	50		 push	 eax
  00110	e8 00 00 00 00	 call	 ?gObjIsConnected@@YAHH@Z ; gObjIsConnected
  00115	83 c4 04	 add	 esp, 4
  00118	85 c0		 test	 eax, eax
  0011a	75 05		 jne	 SHORT $LN8@NotifyResu

; 67   : 	{
; 68   : 		return;

  0011c	e9 dc 02 00 00	 jmp	 $LN9@NotifyResu
$LN8@NotifyResu:

; 69   : 	}
; 70   : 
; 71   : 	LPOBJ lpObj = &gObj[iIndex];

  00121	8b 45 08	 mov	 eax, DWORD PTR _iIndex$[ebp]
  00124	69 c0 38 2b 00
	00		 imul	 eax, 11064		; 00002b38H
  0012a	03 05 00 00 00
	00		 add	 eax, DWORD PTR ?gObj@@3PAUOBJECTSTRUCT@@A ; gObj
  00130	89 45 f8	 mov	 DWORD PTR _lpObj$[ebp], eax

; 72   : 	BOOL bMoveGateSuccess = FALSE;

  00133	c7 45 f4 00 00
	00 00		 mov	 DWORD PTR _bMoveGateSuccess$[ebp], 0

; 73   : 	int iResult = g_Kanturu.CheckEnterKanturu(iIndex);

  0013a	8b 45 08	 mov	 eax, DWORD PTR _iIndex$[ebp]
  0013d	50		 push	 eax
  0013e	b9 00 00 00 00	 mov	 ecx, OFFSET ?g_Kanturu@@3VCKanturu@@A ; g_Kanturu
  00143	e8 00 00 00 00	 call	 ?CheckEnterKanturu@CKanturu@@QAEHH@Z ; CKanturu::CheckEnterKanturu
  00148	89 45 f0	 mov	 DWORD PTR _iResult$[ebp], eax

; 74   : 
; 75   : 	if ( iResult == 0 )

  0014b	83 7d f0 00	 cmp	 DWORD PTR _iResult$[ebp], 0
  0014f	0f 85 5c 02 00
	00		 jne	 $LN7@NotifyResu

; 76   : 	{
; 77   : 		int iCurrentState = g_Kanturu.GetKanturuState();

  00155	b9 00 00 00 00	 mov	 ecx, OFFSET ?g_Kanturu@@3VCKanturu@@A ; g_Kanturu
  0015a	e8 00 00 00 00	 call	 ?GetKanturuState@CKanturu@@QAEHXZ ; CKanturu::GetKanturuState
  0015f	89 45 ec	 mov	 DWORD PTR _iCurrentState$219803[ebp], eax

; 78   : 
; 79   : 		if ( iCurrentState == KANTURU_STATE_BATTLE_OF_MAYA )

  00162	83 7d ec 02	 cmp	 DWORD PTR _iCurrentState$219803[ebp], 2
  00166	0f 85 c9 01 00
	00		 jne	 $LN6@NotifyResu

; 80   : 		{
; 81   : 			bMoveGateSuccess = gObjMoveGate(iIndex, 133);

  0016c	68 85 00 00 00	 push	 133			; 00000085H
  00171	8b 45 08	 mov	 eax, DWORD PTR _iIndex$[ebp]
  00174	50		 push	 eax
  00175	e8 00 00 00 00	 call	 ?gObjMoveGate@@YAHHH@Z	; gObjMoveGate
  0017a	83 c4 08	 add	 esp, 8
  0017d	89 45 f4	 mov	 DWORD PTR _bMoveGateSuccess$[ebp], eax

; 82   : 
; 83   : 			if ( bMoveGateSuccess ==TRUE )

  00180	83 7d f4 01	 cmp	 DWORD PTR _bMoveGateSuccess$[ebp], 1
  00184	0f 85 a9 01 00
	00		 jne	 $LN5@NotifyResu

; 84   : 			{
; 85   : 				g_KanturuBattleUserMng.AddUserData(iIndex);

  0018a	8b 45 08	 mov	 eax, DWORD PTR _iIndex$[ebp]
  0018d	50		 push	 eax
  0018e	b9 00 00 00 00	 mov	 ecx, OFFSET ?g_KanturuBattleUserMng@@3VCKanturuBattleUserMng@@A ; g_KanturuBattleUserMng
  00193	e8 00 00 00 00	 call	 ?AddUserData@CKanturuBattleUserMng@@QAEHH@Z ; CKanturuBattleUserMng::AddUserData

; 86   : 
; 87   : 				LogAddTD("[ KANTURU ][ Battle User ] Add User [%s][%s] Current Battle User:%d State:[%d-%d] (CharInfoSave : Class=%d, Level=%d, LvPoint=%d, Exp=%u, Str=%d, Dex=%d, Vit=%d, Energy=%d, LeaderShip=%d, Map=%d, Pk=%d",
; 88   : 					gObj[iIndex].AccountID, gObj[iIndex].Name,
; 89   : 					g_KanturuBattleUserMng.GetUserCount(), g_Kanturu.GetKanturuState(),
; 90   : 					g_Kanturu.GetKanturuDetailState(),
; 91   : 					gObj[iIndex].Class, gObj[iIndex].Level, gObj[iIndex].LevelUpPoint,
; 92   : 					gObj[iIndex].Experience, gObj[iIndex].Strength, gObj[iIndex].Dexterity,
; 93   : 					gObj[iIndex].Vitality, gObj[iIndex].Energy, gObj[iIndex].Leadership, 
; 94   : 					gObj[iIndex].MapNumber, gObj[iIndex].m_PK_Level);

  00198	8b 45 08	 mov	 eax, DWORD PTR _iIndex$[ebp]
  0019b	69 c0 38 2b 00
	00		 imul	 eax, 11064		; 00002b38H
  001a1	8b 0d 00 00 00
	00		 mov	 ecx, DWORD PTR ?gObj@@3PAUOBJECTSTRUCT@@A ; gObj
  001a7	0f be 94 01 3d
	01 00 00	 movsx	 edx, BYTE PTR [ecx+eax+317]
  001af	52		 push	 edx
  001b0	8b 45 08	 mov	 eax, DWORD PTR _iIndex$[ebp]
  001b3	69 c0 38 2b 00
	00		 imul	 eax, 11064		; 00002b38H
  001b9	8b 0d 00 00 00
	00		 mov	 ecx, DWORD PTR ?gObj@@3PAUOBJECTSTRUCT@@A ; gObj
  001bf	0f b6 94 01 49
	01 00 00	 movzx	 edx, BYTE PTR [ecx+eax+329]
  001c7	52		 push	 edx
  001c8	8b 45 08	 mov	 eax, DWORD PTR _iIndex$[ebp]
  001cb	69 c0 38 2b 00
	00		 imul	 eax, 11064		; 00002b38H
  001d1	8b 0d 00 00 00
	00		 mov	 ecx, DWORD PTR ?gObj@@3PAUOBJECTSTRUCT@@A ; gObj
  001d7	0f b7 94 01 18
	01 00 00	 movzx	 edx, WORD PTR [ecx+eax+280]
  001df	52		 push	 edx
  001e0	8b 45 08	 mov	 eax, DWORD PTR _iIndex$[ebp]
  001e3	69 c0 38 2b 00
	00		 imul	 eax, 11064		; 00002b38H
  001e9	8b 0d 00 00 00
	00		 mov	 ecx, DWORD PTR ?gObj@@3PAUOBJECTSTRUCT@@A ; gObj
  001ef	0f b7 94 01 fa
	00 00 00	 movzx	 edx, WORD PTR [ecx+eax+250]
  001f7	52		 push	 edx
  001f8	8b 45 08	 mov	 eax, DWORD PTR _iIndex$[ebp]
  001fb	69 c0 38 2b 00
	00		 imul	 eax, 11064		; 00002b38H
  00201	8b 0d 00 00 00
	00		 mov	 ecx, DWORD PTR ?gObj@@3PAUOBJECTSTRUCT@@A ; gObj
  00207	0f b7 94 01 f8
	00 00 00	 movzx	 edx, WORD PTR [ecx+eax+248]
  0020f	52		 push	 edx
  00210	8b 45 08	 mov	 eax, DWORD PTR _iIndex$[ebp]
  00213	69 c0 38 2b 00
	00		 imul	 eax, 11064		; 00002b38H
  00219	8b 0d 00 00 00
	00		 mov	 ecx, DWORD PTR ?gObj@@3PAUOBJECTSTRUCT@@A ; gObj
  0021f	0f b7 94 01 f6
	00 00 00	 movzx	 edx, WORD PTR [ecx+eax+246]
  00227	52		 push	 edx
  00228	8b 45 08	 mov	 eax, DWORD PTR _iIndex$[ebp]
  0022b	69 c0 38 2b 00
	00		 imul	 eax, 11064		; 00002b38H
  00231	8b 0d 00 00 00
	00		 mov	 ecx, DWORD PTR ?gObj@@3PAUOBJECTSTRUCT@@A ; gObj
  00237	0f b7 94 01 f4
	00 00 00	 movzx	 edx, WORD PTR [ecx+eax+244]
  0023f	52		 push	 edx
  00240	8b 45 08	 mov	 eax, DWORD PTR _iIndex$[ebp]
  00243	69 c0 38 2b 00
	00		 imul	 eax, 11064		; 00002b38H
  00249	8b 0d 00 00 00
	00		 mov	 ecx, DWORD PTR ?gObj@@3PAUOBJECTSTRUCT@@A ; gObj
  0024f	8b 94 01 c8 00
	00 00		 mov	 edx, DWORD PTR [ecx+eax+200]
  00256	52		 push	 edx
  00257	8b 45 08	 mov	 eax, DWORD PTR _iIndex$[ebp]
  0025a	69 c0 38 2b 00
	00		 imul	 eax, 11064		; 00002b38H
  00260	8b 0d 00 00 00
	00		 mov	 ecx, DWORD PTR ?gObj@@3PAUOBJECTSTRUCT@@A ; gObj
  00266	8b 94 01 c0 00
	00 00		 mov	 edx, DWORD PTR [ecx+eax+192]
  0026d	52		 push	 edx
  0026e	8b 45 08	 mov	 eax, DWORD PTR _iIndex$[ebp]
  00271	69 c0 38 2b 00
	00		 imul	 eax, 11064		; 00002b38H
  00277	8b 0d 00 00 00
	00		 mov	 ecx, DWORD PTR ?gObj@@3PAUOBJECTSTRUCT@@A ; gObj
  0027d	0f bf 94 01 be
	00 00 00	 movsx	 edx, WORD PTR [ecx+eax+190]
  00285	52		 push	 edx
  00286	8b 45 08	 mov	 eax, DWORD PTR _iIndex$[ebp]
  00289	69 c0 38 2b 00
	00		 imul	 eax, 11064		; 00002b38H
  0028f	8b 0d 00 00 00
	00		 mov	 ecx, DWORD PTR ?gObj@@3PAUOBJECTSTRUCT@@A ; gObj
  00295	0f b7 94 01 b8
	00 00 00	 movzx	 edx, WORD PTR [ecx+eax+184]
  0029d	52		 push	 edx
  0029e	b9 00 00 00 00	 mov	 ecx, OFFSET ?g_Kanturu@@3VCKanturu@@A ; g_Kanturu
  002a3	e8 00 00 00 00	 call	 ?GetKanturuDetailState@CKanturu@@QAEHXZ ; CKanturu::GetKanturuDetailState
  002a8	50		 push	 eax
  002a9	b9 00 00 00 00	 mov	 ecx, OFFSET ?g_Kanturu@@3VCKanturu@@A ; g_Kanturu
  002ae	e8 00 00 00 00	 call	 ?GetKanturuState@CKanturu@@QAEHXZ ; CKanturu::GetKanturuState
  002b3	50		 push	 eax
  002b4	b9 00 00 00 00	 mov	 ecx, OFFSET ?g_KanturuBattleUserMng@@3VCKanturuBattleUserMng@@A ; g_KanturuBattleUserMng
  002b9	e8 00 00 00 00	 call	 ?GetUserCount@CKanturuBattleUserMng@@QAEHXZ ; CKanturuBattleUserMng::GetUserCount
  002be	50		 push	 eax
  002bf	8b 45 08	 mov	 eax, DWORD PTR _iIndex$[ebp]
  002c2	69 c0 38 2b 00
	00		 imul	 eax, 11064		; 00002b38H
  002c8	8b 0d 00 00 00
	00		 mov	 ecx, DWORD PTR ?gObj@@3PAUOBJECTSTRUCT@@A ; gObj
  002ce	8d 54 01 77	 lea	 edx, DWORD PTR [ecx+eax+119]
  002d2	52		 push	 edx
  002d3	8b 45 08	 mov	 eax, DWORD PTR _iIndex$[ebp]
  002d6	69 c0 38 2b 00
	00		 imul	 eax, 11064		; 00002b38H
  002dc	8b 0d 00 00 00
	00		 mov	 ecx, DWORD PTR ?gObj@@3PAUOBJECTSTRUCT@@A ; gObj
  002e2	8d 54 01 6c	 lea	 edx, DWORD PTR [ecx+eax+108]
  002e6	52		 push	 edx
  002e7	68 00 00 00 00	 push	 OFFSET ??_C@_0MK@ODKKBILD@?$FL?5KANTURU?5?$FN?$FL?5Battle?5User?5?$FN?5Add?5U@
  002ec	ff 15 00 00 00
	00		 call	 DWORD PTR ?LogAddTD@@3P6AXPADZZA ; LogAddTD
  002f2	83 c4 44	 add	 esp, 68			; 00000044H

; 95   : 
; 96   : 				KANTURU_UTIL.NotifyKanturuCurrentState(iIndex, 
; 97   : 					g_Kanturu.GetKanturuState(),g_Kanturu.GetKanturuDetailState());

  002f5	b9 00 00 00 00	 mov	 ecx, OFFSET ?g_Kanturu@@3VCKanturu@@A ; g_Kanturu
  002fa	e8 00 00 00 00	 call	 ?GetKanturuDetailState@CKanturu@@QAEHXZ ; CKanturu::GetKanturuDetailState
  002ff	50		 push	 eax
  00300	b9 00 00 00 00	 mov	 ecx, OFFSET ?g_Kanturu@@3VCKanturu@@A ; g_Kanturu
  00305	e8 00 00 00 00	 call	 ?GetKanturuState@CKanturu@@QAEHXZ ; CKanturu::GetKanturuState
  0030a	50		 push	 eax
  0030b	8b 45 08	 mov	 eax, DWORD PTR _iIndex$[ebp]
  0030e	50		 push	 eax
  0030f	b9 00 00 00 00	 mov	 ecx, OFFSET _KANTURU_UTIL
  00314	e8 00 00 00 00	 call	 ?NotifyKanturuCurrentState@CKanturuUtil@@QAEXHHH@Z ; CKanturuUtil::NotifyKanturuCurrentState

; 98   : //#if(GS_CASTLE==0)
; 99   : 				gObj[iIndex].m_bKanturuEntranceByNPC = TRUE;

  00319	8b 45 08	 mov	 eax, DWORD PTR _iIndex$[ebp]
  0031c	69 c0 38 2b 00
	00		 imul	 eax, 11064		; 00002b38H
  00322	8b 0d 00 00 00
	00		 mov	 ecx, DWORD PTR ?gObj@@3PAUOBJECTSTRUCT@@A ; gObj
  00328	c7 84 01 10 20
	00 00 01 00 00
	00		 mov	 DWORD PTR [ecx+eax+8208], 1
$LN5@NotifyResu:

; 100  : //#endif
; 101  : 			}
; 102  : 		}

  00333	eb 7a		 jmp	 SHORT $LN4@NotifyResu
$LN6@NotifyResu:

; 103  : 		else if ( iCurrentState == KANTURU_STATE_TOWER_OF_REFINEMENT )

  00335	83 7d ec 04	 cmp	 DWORD PTR _iCurrentState$219803[ebp], 4
  00339	75 54		 jne	 SHORT $LN3@NotifyResu

; 104  : 		{
; 105  : 			bMoveGateSuccess = gObjMoveGate(iIndex, 135);

  0033b	68 87 00 00 00	 push	 135			; 00000087H
  00340	8b 45 08	 mov	 eax, DWORD PTR _iIndex$[ebp]
  00343	50		 push	 eax
  00344	e8 00 00 00 00	 call	 ?gObjMoveGate@@YAHHH@Z	; gObjMoveGate
  00349	83 c4 08	 add	 esp, 8
  0034c	89 45 f4	 mov	 DWORD PTR _bMoveGateSuccess$[ebp], eax

; 106  : 
; 107  : 			KANTURU_UTIL.NotifyKanturuCurrentState(iIndex, 
; 108  : 				g_Kanturu.GetKanturuState(),g_Kanturu.GetKanturuDetailState());

  0034f	b9 00 00 00 00	 mov	 ecx, OFFSET ?g_Kanturu@@3VCKanturu@@A ; g_Kanturu
  00354	e8 00 00 00 00	 call	 ?GetKanturuDetailState@CKanturu@@QAEHXZ ; CKanturu::GetKanturuDetailState
  00359	50		 push	 eax
  0035a	b9 00 00 00 00	 mov	 ecx, OFFSET ?g_Kanturu@@3VCKanturu@@A ; g_Kanturu
  0035f	e8 00 00 00 00	 call	 ?GetKanturuState@CKanturu@@QAEHXZ ; CKanturu::GetKanturuState
  00364	50		 push	 eax
  00365	8b 45 08	 mov	 eax, DWORD PTR _iIndex$[ebp]
  00368	50		 push	 eax
  00369	b9 00 00 00 00	 mov	 ecx, OFFSET _KANTURU_UTIL
  0036e	e8 00 00 00 00	 call	 ?NotifyKanturuCurrentState@CKanturuUtil@@QAEXHHH@Z ; CKanturuUtil::NotifyKanturuCurrentState

; 109  : //#if(GS_CASTLE==0)
; 110  : 			gObj[iIndex].m_bKanturuEntranceByNPC = TRUE;

  00373	8b 45 08	 mov	 eax, DWORD PTR _iIndex$[ebp]
  00376	69 c0 38 2b 00
	00		 imul	 eax, 11064		; 00002b38H
  0037c	8b 0d 00 00 00
	00		 mov	 ecx, DWORD PTR ?gObj@@3PAUOBJECTSTRUCT@@A ; gObj
  00382	c7 84 01 10 20
	00 00 01 00 00
	00		 mov	 DWORD PTR [ecx+eax+8208], 1

; 111  : //#endif
; 112  : 		}
; 113  : 		else

  0038d	eb 20		 jmp	 SHORT $LN4@NotifyResu
$LN3@NotifyResu:

; 114  : 		{
; 115  : 			LogAddTD("[ KANTURU ][ BossMapMove ] Error - State(%d) Character[%s][%s]",
; 116  : 				iCurrentState, lpObj->AccountID, lpObj->Name);

  0038f	8b 45 f8	 mov	 eax, DWORD PTR _lpObj$[ebp]
  00392	83 c0 77	 add	 eax, 119		; 00000077H
  00395	50		 push	 eax
  00396	8b 4d f8	 mov	 ecx, DWORD PTR _lpObj$[ebp]
  00399	83 c1 6c	 add	 ecx, 108		; 0000006cH
  0039c	51		 push	 ecx
  0039d	8b 55 ec	 mov	 edx, DWORD PTR _iCurrentState$219803[ebp]
  003a0	52		 push	 edx
  003a1	68 00 00 00 00	 push	 OFFSET ??_C@_0DP@OECGBDJN@?$FL?5KANTURU?5?$FN?$FL?5BossMapMove?5?$FN?5Error@
  003a6	ff 15 00 00 00
	00		 call	 DWORD PTR ?LogAddTD@@3P6AXPADZZA ; LogAddTD
  003ac	83 c4 10	 add	 esp, 16			; 00000010H
$LN4@NotifyResu:

; 117  : 		}
; 118  : 	}
; 119  : 	else

  003af	eb 4c		 jmp	 SHORT $LN9@NotifyResu
$LN7@NotifyResu:

; 120  : 	{
; 121  : 		KANTURU_UTIL.NotifyKanturuEntranceReqResult(iIndex, iResult);

  003b1	8b 45 f0	 mov	 eax, DWORD PTR _iResult$[ebp]
  003b4	50		 push	 eax
  003b5	8b 4d 08	 mov	 ecx, DWORD PTR _iIndex$[ebp]
  003b8	51		 push	 ecx
  003b9	b9 00 00 00 00	 mov	 ecx, OFFSET _KANTURU_UTIL
  003be	e8 00 00 00 00	 call	 ?NotifyKanturuEntranceReqResult@CKanturuUtil@@QAEXHH@Z ; CKanturuUtil::NotifyKanturuEntranceReqResult

; 122  : 
; 123  : 		LogAddTD("[ KANTURU ][ BossMapMove ] Fail - Result(%d) Character[%s][%s]",
; 124  : 			iResult, lpObj->AccountID, lpObj->Name);

  003c3	8b 45 f8	 mov	 eax, DWORD PTR _lpObj$[ebp]
  003c6	83 c0 77	 add	 eax, 119		; 00000077H
  003c9	50		 push	 eax
  003ca	8b 4d f8	 mov	 ecx, DWORD PTR _lpObj$[ebp]
  003cd	83 c1 6c	 add	 ecx, 108		; 0000006cH
  003d0	51		 push	 ecx
  003d1	8b 55 f0	 mov	 edx, DWORD PTR _iResult$[ebp]
  003d4	52		 push	 edx
  003d5	68 00 00 00 00	 push	 OFFSET ??_C@_0DP@FPALCGEM@?$FL?5KANTURU?5?$FN?$FL?5BossMapMove?5?$FN?5Fail?5@
  003da	ff 15 00 00 00
	00		 call	 DWORD PTR ?LogAddTD@@3P6AXPADZZA ; LogAddTD
  003e0	83 c4 10	 add	 esp, 16			; 00000010H

; 125  : //#if(GS_CASTLE==0)
; 126  : 		gObj[iIndex].m_bKanturuEntranceByNPC = FALSE;

  003e3	8b 45 08	 mov	 eax, DWORD PTR _iIndex$[ebp]
  003e6	69 c0 38 2b 00
	00		 imul	 eax, 11064		; 00002b38H
  003ec	8b 0d 00 00 00
	00		 mov	 ecx, DWORD PTR ?gObj@@3PAUOBJECTSTRUCT@@A ; gObj
  003f2	c7 84 01 10 20
	00 00 00 00 00
	00		 mov	 DWORD PTR [ecx+eax+8208], 0
$LN9@NotifyResu:

; 127  : //#endif
; 128  : 	}
; 129  : }

  003fd	5f		 pop	 edi
  003fe	5e		 pop	 esi
  003ff	5b		 pop	 ebx
  00400	8b e5		 mov	 esp, ebp
  00402	5d		 pop	 ebp
  00403	c2 04 00	 ret	 4
?NotifyResultEnterKanturuBossMap@CKanturuEntranceNPC@@QAEXH@Z ENDP ; CKanturuEntranceNPC::NotifyResultEnterKanturuBossMap
_TEXT	ENDS
EXTRN	_atexit:PROC
EXTRN	??0CKanturuUtil@@QAE@XZ:PROC			; CKanturuUtil::CKanturuUtil
; Function compile flags: /Odtp /ZI
;	COMDAT ??__EKANTURU_UTIL@@YAXXZ
text$yc	SEGMENT
??__EKANTURU_UTIL@@YAXXZ PROC				; `dynamic initializer for 'KANTURU_UTIL'', COMDAT

; 16   : static CKanturuUtil KANTURU_UTIL;

  00000	55		 push	 ebp
  00001	8b ec		 mov	 ebp, esp
  00003	83 ec 40	 sub	 esp, 64			; 00000040H
  00006	53		 push	 ebx
  00007	56		 push	 esi
  00008	57		 push	 edi
  00009	b9 00 00 00 00	 mov	 ecx, OFFSET _KANTURU_UTIL
  0000e	e8 00 00 00 00	 call	 ??0CKanturuUtil@@QAE@XZ	; CKanturuUtil::CKanturuUtil
  00013	68 00 00 00 00	 push	 OFFSET ??__FKANTURU_UTIL@@YAXXZ ; `dynamic atexit destructor for 'KANTURU_UTIL''
  00018	e8 00 00 00 00	 call	 _atexit
  0001d	83 c4 04	 add	 esp, 4
  00020	5f		 pop	 edi
  00021	5e		 pop	 esi
  00022	5b		 pop	 ebx
  00023	8b e5		 mov	 esp, ebp
  00025	5d		 pop	 ebp
  00026	c3		 ret	 0
??__EKANTURU_UTIL@@YAXXZ ENDP				; `dynamic initializer for 'KANTURU_UTIL''
; Function compile flags: /Odtp /ZI
text$yc	ENDS
;	COMDAT ??__Eg_KanturuEntranceNPC@@YAXXZ
text$yc	SEGMENT
??__Eg_KanturuEntranceNPC@@YAXXZ PROC			; `dynamic initializer for 'g_KanturuEntranceNPC'', COMDAT

; 18   : CKanturuEntranceNPC g_KanturuEntranceNPC;

  00000	55		 push	 ebp
  00001	8b ec		 mov	 ebp, esp
  00003	83 ec 40	 sub	 esp, 64			; 00000040H
  00006	53		 push	 ebx
  00007	56		 push	 esi
  00008	57		 push	 edi
  00009	b9 00 00 00 00	 mov	 ecx, OFFSET ?g_KanturuEntranceNPC@@3VCKanturuEntranceNPC@@A ; g_KanturuEntranceNPC
  0000e	e8 00 00 00 00	 call	 ??0CKanturuEntranceNPC@@QAE@XZ ; CKanturuEntranceNPC::CKanturuEntranceNPC
  00013	68 00 00 00 00	 push	 OFFSET ??__Fg_KanturuEntranceNPC@@YAXXZ ; `dynamic atexit destructor for 'g_KanturuEntranceNPC''
  00018	e8 00 00 00 00	 call	 _atexit
  0001d	83 c4 04	 add	 esp, 4
  00020	5f		 pop	 edi
  00021	5e		 pop	 esi
  00022	5b		 pop	 ebx
  00023	8b e5		 mov	 esp, ebp
  00025	5d		 pop	 ebp
  00026	c3		 ret	 0
??__Eg_KanturuEntranceNPC@@YAXXZ ENDP			; `dynamic initializer for 'g_KanturuEntranceNPC''
text$yc	ENDS
EXTRN	??1CKanturuUtil@@UAE@XZ:PROC			; CKanturuUtil::~CKanturuUtil
; Function compile flags: /Odtp /ZI
;	COMDAT ??__FKANTURU_UTIL@@YAXXZ
text$yd	SEGMENT
??__FKANTURU_UTIL@@YAXXZ PROC				; `dynamic atexit destructor for 'KANTURU_UTIL'', COMDAT
  00000	55		 push	 ebp
  00001	8b ec		 mov	 ebp, esp
  00003	83 ec 40	 sub	 esp, 64			; 00000040H
  00006	53		 push	 ebx
  00007	56		 push	 esi
  00008	57		 push	 edi
  00009	b9 00 00 00 00	 mov	 ecx, OFFSET _KANTURU_UTIL
  0000e	e8 00 00 00 00	 call	 ??1CKanturuUtil@@UAE@XZ	; CKanturuUtil::~CKanturuUtil
  00013	5f		 pop	 edi
  00014	5e		 pop	 esi
  00015	5b		 pop	 ebx
  00016	8b e5		 mov	 esp, ebp
  00018	5d		 pop	 ebp
  00019	c3		 ret	 0
??__FKANTURU_UTIL@@YAXXZ ENDP				; `dynamic atexit destructor for 'KANTURU_UTIL''
; Function compile flags: /Odtp /ZI
text$yd	ENDS
;	COMDAT ??__Fg_KanturuEntranceNPC@@YAXXZ
text$yd	SEGMENT
??__Fg_KanturuEntranceNPC@@YAXXZ PROC			; `dynamic atexit destructor for 'g_KanturuEntranceNPC'', COMDAT
  00000	55		 push	 ebp
  00001	8b ec		 mov	 ebp, esp
  00003	83 ec 40	 sub	 esp, 64			; 00000040H
  00006	53		 push	 ebx
  00007	56		 push	 esi
  00008	57		 push	 edi
  00009	b9 00 00 00 00	 mov	 ecx, OFFSET ?g_KanturuEntranceNPC@@3VCKanturuEntranceNPC@@A ; g_KanturuEntranceNPC
  0000e	e8 00 00 00 00	 call	 ??1CKanturuEntranceNPC@@UAE@XZ ; CKanturuEntranceNPC::~CKanturuEntranceNPC
  00013	5f		 pop	 edi
  00014	5e		 pop	 esi
  00015	5b		 pop	 ebx
  00016	8b e5		 mov	 esp, ebp
  00018	5d		 pop	 ebp
  00019	c3		 ret	 0
??__Fg_KanturuEntranceNPC@@YAXXZ ENDP			; `dynamic atexit destructor for 'g_KanturuEntranceNPC''
text$yd	ENDS
PUBLIC	?g_KanturuEntranceNPC@@3VCKanturuEntranceNPC@@A	; g_KanturuEntranceNPC
_BSS	SEGMENT
?g_KanturuEntranceNPC@@3VCKanturuEntranceNPC@@A DD 01H DUP (?) ; g_KanturuEntranceNPC
_KANTURU_UTIL DD 01H DUP (?)
_BSS	ENDS
CRT$XCU	SEGMENT
_KANTURU_UTIL$initializer$ DD FLAT:??__EKANTURU_UTIL@@YAXXZ
_g_KanturuEntranceNPC$initializer$ DD FLAT:??__Eg_KanturuEntranceNPC@@YAXXZ
CRT$XCU	ENDS
END
