; Listing generated by Microsoft (R) Optimizing Compiler Version 16.00.40219.01 

	TITLE	D:\Projects\ExTeam6.3\Source\GameServer\GameServer\KanturuBattleUserMng.cpp
	.686P
	.XMM
	include listing.inc
	.model	flat

INCLUDELIB LIBCMT
INCLUDELIB OLDNAMES

PUBLIC	??_H@YGXPAXIHP6EPAX0@Z@Z			; `vector constructor iterator'
; Function compile flags: /Odtp /ZI
;	COMDAT ??_H@YGXPAXIHP6EPAX0@Z@Z
_TEXT	SEGMENT
___t$ = 8						; size = 4
___s$ = 12						; size = 4
___n$ = 16						; size = 4
___f$ = 20						; size = 4
??_H@YGXPAXIHP6EPAX0@Z@Z PROC				; `vector constructor iterator', COMDAT
  00000	55		 push	 ebp
  00001	8b ec		 mov	 ebp, esp
  00003	83 ec 40	 sub	 esp, 64			; 00000040H
  00006	53		 push	 ebx
  00007	56		 push	 esi
  00008	57		 push	 edi
$LN2@vector:
  00009	8b 45 10	 mov	 eax, DWORD PTR ___n$[ebp]
  0000c	83 e8 01	 sub	 eax, 1
  0000f	89 45 10	 mov	 DWORD PTR ___n$[ebp], eax
  00012	78 11		 js	 SHORT $LN3@vector
  00014	8b 4d 08	 mov	 ecx, DWORD PTR ___t$[ebp]
  00017	ff 55 14	 call	 DWORD PTR ___f$[ebp]
  0001a	8b 45 08	 mov	 eax, DWORD PTR ___t$[ebp]
  0001d	03 45 0c	 add	 eax, DWORD PTR ___s$[ebp]
  00020	89 45 08	 mov	 DWORD PTR ___t$[ebp], eax
  00023	eb e4		 jmp	 SHORT $LN2@vector
$LN3@vector:
  00025	5f		 pop	 edi
  00026	5e		 pop	 esi
  00027	5b		 pop	 ebx
  00028	8b e5		 mov	 esp, ebp
  0002a	5d		 pop	 ebp
  0002b	c2 10 00	 ret	 16			; 00000010H
??_H@YGXPAXIHP6EPAX0@Z@Z ENDP				; `vector constructor iterator'
_TEXT	ENDS
PUBLIC	?ResetAllData@CKanturuBattleUserMng@@QAEXXZ	; CKanturuBattleUserMng::ResetAllData
PUBLIC	??0CKanturuBattleUser@@QAE@XZ			; CKanturuBattleUser::CKanturuBattleUser
PUBLIC	??1CKanturuBattleUser@@UAE@XZ			; CKanturuBattleUser::~CKanturuBattleUser
PUBLIC	??_7CKanturuBattleUserMng@@6B@			; CKanturuBattleUserMng::`vftable'
PUBLIC	??0CKanturuBattleUserMng@@QAE@XZ		; CKanturuBattleUserMng::CKanturuBattleUserMng
PUBLIC	??_R4CKanturuBattleUserMng@@6B@			; CKanturuBattleUserMng::`RTTI Complete Object Locator'
PUBLIC	??_R0?AVCKanturuBattleUserMng@@@8		; CKanturuBattleUserMng `RTTI Type Descriptor'
PUBLIC	??_R3CKanturuBattleUserMng@@8			; CKanturuBattleUserMng::`RTTI Class Hierarchy Descriptor'
PUBLIC	??_R2CKanturuBattleUserMng@@8			; CKanturuBattleUserMng::`RTTI Base Class Array'
PUBLIC	??_R1A@?0A@EA@CKanturuBattleUserMng@@8		; CKanturuBattleUserMng::`RTTI Base Class Descriptor at (0,-1,0,64)'
EXTRN	??_M@YGXPAXIHP6EX0@Z@Z:PROC			; `eh vector destructor iterator'
EXTRN	??_L@YGXPAXIHP6EX0@Z1@Z:PROC			; `eh vector constructor iterator'
EXTRN	___security_cookie:DWORD
EXTRN	___CxxFrameHandler3:PROC
EXTRN	@__security_check_cookie@4:PROC
EXTRN	??_7type_info@@6B@:QWORD			; type_info::`vftable'
EXTRN	??_ECKanturuBattleUserMng@@UAEPAXI@Z:PROC	; CKanturuBattleUserMng::`vector deleting destructor'
;	COMDAT ??_R1A@?0A@EA@CKanturuBattleUserMng@@8
; File d:\projects\exteam6.3\source\gameserver\gameserver\kanturubattleusermng.cpp
rdata$r	SEGMENT
??_R1A@?0A@EA@CKanturuBattleUserMng@@8 DD FLAT:??_R0?AVCKanturuBattleUserMng@@@8 ; CKanturuBattleUserMng::`RTTI Base Class Descriptor at (0,-1,0,64)'
	DD	00H
	DD	00H
	DD	0ffffffffH
	DD	00H
	DD	040H
	DD	FLAT:??_R3CKanturuBattleUserMng@@8
rdata$r	ENDS
;	COMDAT ??_R2CKanturuBattleUserMng@@8
rdata$r	SEGMENT
??_R2CKanturuBattleUserMng@@8 DD FLAT:??_R1A@?0A@EA@CKanturuBattleUserMng@@8 ; CKanturuBattleUserMng::`RTTI Base Class Array'
rdata$r	ENDS
;	COMDAT ??_R3CKanturuBattleUserMng@@8
rdata$r	SEGMENT
??_R3CKanturuBattleUserMng@@8 DD 00H			; CKanturuBattleUserMng::`RTTI Class Hierarchy Descriptor'
	DD	00H
	DD	01H
	DD	FLAT:??_R2CKanturuBattleUserMng@@8
rdata$r	ENDS
;	COMDAT ??_R0?AVCKanturuBattleUserMng@@@8
_DATA	SEGMENT
??_R0?AVCKanturuBattleUserMng@@@8 DD FLAT:??_7type_info@@6B@ ; CKanturuBattleUserMng `RTTI Type Descriptor'
	DD	00H
	DB	'.?AVCKanturuBattleUserMng@@', 00H
_DATA	ENDS
;	COMDAT ??_R4CKanturuBattleUserMng@@6B@
rdata$r	SEGMENT
??_R4CKanturuBattleUserMng@@6B@ DD 00H			; CKanturuBattleUserMng::`RTTI Complete Object Locator'
	DD	00H
	DD	00H
	DD	FLAT:??_R0?AVCKanturuBattleUserMng@@@8
	DD	FLAT:??_R3CKanturuBattleUserMng@@8
rdata$r	ENDS
;	COMDAT ??_7CKanturuBattleUserMng@@6B@
CONST	SEGMENT
??_7CKanturuBattleUserMng@@6B@ DD FLAT:??_R4CKanturuBattleUserMng@@6B@ ; CKanturuBattleUserMng::`vftable'
	DD	FLAT:??_ECKanturuBattleUserMng@@UAEPAXI@Z
CONST	ENDS
xdata$x	SEGMENT
__unwindtable$??0CKanturuBattleUserMng@@QAE@XZ DD 0ffffffffH
	DD	FLAT:__unwindfunclet$??0CKanturuBattleUserMng@@QAE@XZ$0
__ehfuncinfo$??0CKanturuBattleUserMng@@QAE@XZ DD 019930522H
	DD	01H
	DD	FLAT:__unwindtable$??0CKanturuBattleUserMng@@QAE@XZ
	DD	2 DUP(00H)
	DD	2 DUP(00H)
	DD	00H
	DD	01H
; Function compile flags: /Odtp /ZI
xdata$x	ENDS
_TEXT	SEGMENT
_this$ = -16						; size = 4
__$EHRec$ = -12						; size = 12
??0CKanturuBattleUserMng@@QAE@XZ PROC			; CKanturuBattleUserMng::CKanturuBattleUserMng
; _this$ = ecx

; 18   : {

  00000	55		 push	 ebp
  00001	8b ec		 mov	 ebp, esp
  00003	6a ff		 push	 -1
  00005	68 00 00 00 00	 push	 __ehhandler$??0CKanturuBattleUserMng@@QAE@XZ
  0000a	64 a1 00 00 00
	00		 mov	 eax, DWORD PTR fs:0
  00010	50		 push	 eax
  00011	83 ec 44	 sub	 esp, 68			; 00000044H
  00014	53		 push	 ebx
  00015	56		 push	 esi
  00016	57		 push	 edi
  00017	a1 00 00 00 00	 mov	 eax, DWORD PTR ___security_cookie
  0001c	33 c5		 xor	 eax, ebp
  0001e	50		 push	 eax
  0001f	8d 45 f4	 lea	 eax, DWORD PTR __$EHRec$[ebp]
  00022	64 a3 00 00 00
	00		 mov	 DWORD PTR fs:0, eax
  00028	89 4d f0	 mov	 DWORD PTR _this$[ebp], ecx
  0002b	8b 45 f0	 mov	 eax, DWORD PTR _this$[ebp]
  0002e	c7 00 00 00 00
	00		 mov	 DWORD PTR [eax], OFFSET ??_7CKanturuBattleUserMng@@6B@
  00034	68 00 00 00 00	 push	 OFFSET ??1CKanturuBattleUser@@UAE@XZ ; CKanturuBattleUser::~CKanturuBattleUser
  00039	68 00 00 00 00	 push	 OFFSET ??0CKanturuBattleUser@@QAE@XZ ; CKanturuBattleUser::CKanturuBattleUser
  0003e	6a 0f		 push	 15			; 0000000fH
  00040	6a 0c		 push	 12			; 0000000cH
  00042	8b 45 f0	 mov	 eax, DWORD PTR _this$[ebp]
  00045	83 c0 04	 add	 eax, 4
  00048	50		 push	 eax
  00049	e8 00 00 00 00	 call	 ??_L@YGXPAXIHP6EX0@Z1@Z
  0004e	c7 45 fc 00 00
	00 00		 mov	 DWORD PTR __$EHRec$[ebp+8], 0

; 19   : 	this->ResetAllData();

  00055	8b 4d f0	 mov	 ecx, DWORD PTR _this$[ebp]
  00058	e8 00 00 00 00	 call	 ?ResetAllData@CKanturuBattleUserMng@@QAEXXZ ; CKanturuBattleUserMng::ResetAllData

; 20   : }

  0005d	c7 45 fc ff ff
	ff ff		 mov	 DWORD PTR __$EHRec$[ebp+8], -1
  00064	8b 45 f0	 mov	 eax, DWORD PTR _this$[ebp]
  00067	8b 4d f4	 mov	 ecx, DWORD PTR __$EHRec$[ebp]
  0006a	64 89 0d 00 00
	00 00		 mov	 DWORD PTR fs:0, ecx
  00071	59		 pop	 ecx
  00072	5f		 pop	 edi
  00073	5e		 pop	 esi
  00074	5b		 pop	 ebx
  00075	8b e5		 mov	 esp, ebp
  00077	5d		 pop	 ebp
  00078	c3		 ret	 0
_TEXT	ENDS
text$x	SEGMENT
__unwindfunclet$??0CKanturuBattleUserMng@@QAE@XZ$0:
  00000	68 00 00 00 00	 push	 OFFSET ??1CKanturuBattleUser@@UAE@XZ ; CKanturuBattleUser::~CKanturuBattleUser
  00005	6a 0f		 push	 15			; 0000000fH
  00007	6a 0c		 push	 12			; 0000000cH
  00009	8b 45 f0	 mov	 eax, DWORD PTR _this$[ebp]
  0000c	83 c0 04	 add	 eax, 4
  0000f	50		 push	 eax
  00010	e8 00 00 00 00	 call	 ??_M@YGXPAXIHP6EX0@Z@Z
  00015	c3		 ret	 0
__ehhandler$??0CKanturuBattleUserMng@@QAE@XZ:
  00016	8b 54 24 08	 mov	 edx, DWORD PTR [esp+8]
  0001a	8d 42 0c	 lea	 eax, DWORD PTR [edx+12]
  0001d	8b 4a ac	 mov	 ecx, DWORD PTR [edx-84]
  00020	33 c8		 xor	 ecx, eax
  00022	e8 00 00 00 00	 call	 @__security_check_cookie@4
  00027	b8 00 00 00 00	 mov	 eax, OFFSET __ehfuncinfo$??0CKanturuBattleUserMng@@QAE@XZ
  0002c	e9 00 00 00 00	 jmp	 ___CxxFrameHandler3
text$x	ENDS
??0CKanturuBattleUserMng@@QAE@XZ ENDP			; CKanturuBattleUserMng::CKanturuBattleUserMng
PUBLIC	?ResetData@CKanturuBattleUser@@QAEXXZ		; CKanturuBattleUser::ResetData
PUBLIC	??_7CKanturuBattleUser@@6B@			; CKanturuBattleUser::`vftable'
PUBLIC	??_R4CKanturuBattleUser@@6B@			; CKanturuBattleUser::`RTTI Complete Object Locator'
PUBLIC	??_R0?AVCKanturuBattleUser@@@8			; CKanturuBattleUser `RTTI Type Descriptor'
PUBLIC	??_R3CKanturuBattleUser@@8			; CKanturuBattleUser::`RTTI Class Hierarchy Descriptor'
PUBLIC	??_R2CKanturuBattleUser@@8			; CKanturuBattleUser::`RTTI Base Class Array'
PUBLIC	??_R1A@?0A@EA@CKanturuBattleUser@@8		; CKanturuBattleUser::`RTTI Base Class Descriptor at (0,-1,0,64)'
EXTRN	??_ECKanturuBattleUser@@UAEPAXI@Z:PROC		; CKanturuBattleUser::`vector deleting destructor'
;	COMDAT ??_R1A@?0A@EA@CKanturuBattleUser@@8
; File d:\projects\exteam6.3\source\gameserver\gameserver\kanturubattleuser.h
rdata$r	SEGMENT
??_R1A@?0A@EA@CKanturuBattleUser@@8 DD FLAT:??_R0?AVCKanturuBattleUser@@@8 ; CKanturuBattleUser::`RTTI Base Class Descriptor at (0,-1,0,64)'
	DD	00H
	DD	00H
	DD	0ffffffffH
	DD	00H
	DD	040H
	DD	FLAT:??_R3CKanturuBattleUser@@8
rdata$r	ENDS
;	COMDAT ??_R2CKanturuBattleUser@@8
rdata$r	SEGMENT
??_R2CKanturuBattleUser@@8 DD FLAT:??_R1A@?0A@EA@CKanturuBattleUser@@8 ; CKanturuBattleUser::`RTTI Base Class Array'
rdata$r	ENDS
;	COMDAT ??_R3CKanturuBattleUser@@8
rdata$r	SEGMENT
??_R3CKanturuBattleUser@@8 DD 00H			; CKanturuBattleUser::`RTTI Class Hierarchy Descriptor'
	DD	00H
	DD	01H
	DD	FLAT:??_R2CKanturuBattleUser@@8
rdata$r	ENDS
;	COMDAT ??_R0?AVCKanturuBattleUser@@@8
_DATA	SEGMENT
??_R0?AVCKanturuBattleUser@@@8 DD FLAT:??_7type_info@@6B@ ; CKanturuBattleUser `RTTI Type Descriptor'
	DD	00H
	DB	'.?AVCKanturuBattleUser@@', 00H
_DATA	ENDS
;	COMDAT ??_R4CKanturuBattleUser@@6B@
rdata$r	SEGMENT
??_R4CKanturuBattleUser@@6B@ DD 00H			; CKanturuBattleUser::`RTTI Complete Object Locator'
	DD	00H
	DD	00H
	DD	FLAT:??_R0?AVCKanturuBattleUser@@@8
	DD	FLAT:??_R3CKanturuBattleUser@@8
rdata$r	ENDS
;	COMDAT ??_7CKanturuBattleUser@@6B@
CONST	SEGMENT
??_7CKanturuBattleUser@@6B@ DD FLAT:??_R4CKanturuBattleUser@@6B@ ; CKanturuBattleUser::`vftable'
	DD	FLAT:??_ECKanturuBattleUser@@UAEPAXI@Z
; Function compile flags: /Odtp /ZI
CONST	ENDS
;	COMDAT ??0CKanturuBattleUser@@QAE@XZ
_TEXT	SEGMENT
_this$ = -4						; size = 4
??0CKanturuBattleUser@@QAE@XZ PROC			; CKanturuBattleUser::CKanturuBattleUser, COMDAT
; _this$ = ecx

; 9    : 	CKanturuBattleUser()

  00000	55		 push	 ebp
  00001	8b ec		 mov	 ebp, esp
  00003	83 ec 44	 sub	 esp, 68			; 00000044H
  00006	53		 push	 ebx
  00007	56		 push	 esi
  00008	57		 push	 edi
  00009	89 4d fc	 mov	 DWORD PTR _this$[ebp], ecx
  0000c	8b 45 fc	 mov	 eax, DWORD PTR _this$[ebp]
  0000f	c7 00 00 00 00
	00		 mov	 DWORD PTR [eax], OFFSET ??_7CKanturuBattleUser@@6B@

; 10   : 	{
; 11   : 		this->ResetData();

  00015	8b 4d fc	 mov	 ecx, DWORD PTR _this$[ebp]
  00018	e8 00 00 00 00	 call	 ?ResetData@CKanturuBattleUser@@QAEXXZ ; CKanturuBattleUser::ResetData

; 12   : 	}

  0001d	8b 45 fc	 mov	 eax, DWORD PTR _this$[ebp]
  00020	5f		 pop	 edi
  00021	5e		 pop	 esi
  00022	5b		 pop	 ebx
  00023	8b e5		 mov	 esp, ebp
  00025	5d		 pop	 ebp
  00026	c3		 ret	 0
??0CKanturuBattleUser@@QAE@XZ ENDP			; CKanturuBattleUser::CKanturuBattleUser
; Function compile flags: /Odtp /ZI
_TEXT	ENDS
;	COMDAT ??1CKanturuBattleUser@@UAE@XZ
_TEXT	SEGMENT
_this$ = -4						; size = 4
??1CKanturuBattleUser@@UAE@XZ PROC			; CKanturuBattleUser::~CKanturuBattleUser, COMDAT
; _this$ = ecx

; 14   : 	virtual ~CKanturuBattleUser(){return;}

  00000	55		 push	 ebp
  00001	8b ec		 mov	 ebp, esp
  00003	83 ec 44	 sub	 esp, 68			; 00000044H
  00006	53		 push	 ebx
  00007	56		 push	 esi
  00008	57		 push	 edi
  00009	89 4d fc	 mov	 DWORD PTR _this$[ebp], ecx
  0000c	8b 45 fc	 mov	 eax, DWORD PTR _this$[ebp]
  0000f	c7 00 00 00 00
	00		 mov	 DWORD PTR [eax], OFFSET ??_7CKanturuBattleUser@@6B@
  00015	5f		 pop	 edi
  00016	5e		 pop	 esi
  00017	5b		 pop	 ebx
  00018	8b e5		 mov	 esp, ebp
  0001a	5d		 pop	 ebp
  0001b	c3		 ret	 0
??1CKanturuBattleUser@@UAE@XZ ENDP			; CKanturuBattleUser::~CKanturuBattleUser
; Function compile flags: /Odtp /ZI
_TEXT	ENDS
;	COMDAT ?ResetData@CKanturuBattleUser@@QAEXXZ
_TEXT	SEGMENT
_this$ = -4						; size = 4
?ResetData@CKanturuBattleUser@@QAEXXZ PROC		; CKanturuBattleUser::ResetData, COMDAT
; _this$ = ecx

; 17   : 	{

  00000	55		 push	 ebp
  00001	8b ec		 mov	 ebp, esp
  00003	83 ec 44	 sub	 esp, 68			; 00000044H
  00006	53		 push	 ebx
  00007	56		 push	 esi
  00008	57		 push	 edi
  00009	89 4d fc	 mov	 DWORD PTR _this$[ebp], ecx

; 18   : 		this->m_iIndex = -1;

  0000c	8b 45 fc	 mov	 eax, DWORD PTR _this$[ebp]
  0000f	c7 40 04 ff ff
	ff ff		 mov	 DWORD PTR [eax+4], -1

; 19   : 		this->m_bIsUse = FALSE;

  00016	8b 45 fc	 mov	 eax, DWORD PTR _this$[ebp]
  00019	c7 40 08 00 00
	00 00		 mov	 DWORD PTR [eax+8], 0

; 20   : 	}

  00020	5f		 pop	 edi
  00021	5e		 pop	 esi
  00022	5b		 pop	 ebx
  00023	8b e5		 mov	 esp, ebp
  00025	5d		 pop	 ebp
  00026	c3		 ret	 0
?ResetData@CKanturuBattleUser@@QAEXXZ ENDP		; CKanturuBattleUser::ResetData
_TEXT	ENDS
EXTRN	??3@YAXPAX@Z:PROC				; operator delete
; Function compile flags: /Odtp /ZI
;	COMDAT ??_GCKanturuBattleUser@@UAEPAXI@Z
_TEXT	SEGMENT
_this$ = -4						; size = 4
___flags$ = 8						; size = 4
??_GCKanturuBattleUser@@UAEPAXI@Z PROC			; CKanturuBattleUser::`scalar deleting destructor', COMDAT
; _this$ = ecx
  00000	55		 push	 ebp
  00001	8b ec		 mov	 ebp, esp
  00003	83 ec 44	 sub	 esp, 68			; 00000044H
  00006	53		 push	 ebx
  00007	56		 push	 esi
  00008	57		 push	 edi
  00009	89 4d fc	 mov	 DWORD PTR _this$[ebp], ecx
  0000c	8b 4d fc	 mov	 ecx, DWORD PTR _this$[ebp]
  0000f	e8 00 00 00 00	 call	 ??1CKanturuBattleUser@@UAE@XZ ; CKanturuBattleUser::~CKanturuBattleUser
  00014	8b 45 08	 mov	 eax, DWORD PTR ___flags$[ebp]
  00017	83 e0 01	 and	 eax, 1
  0001a	74 0c		 je	 SHORT $LN1@scalar
  0001c	8b 45 fc	 mov	 eax, DWORD PTR _this$[ebp]
  0001f	50		 push	 eax
  00020	e8 00 00 00 00	 call	 ??3@YAXPAX@Z		; operator delete
  00025	83 c4 04	 add	 esp, 4
$LN1@scalar:
  00028	8b 45 fc	 mov	 eax, DWORD PTR _this$[ebp]
  0002b	5f		 pop	 edi
  0002c	5e		 pop	 esi
  0002d	5b		 pop	 ebx
  0002e	8b e5		 mov	 esp, ebp
  00030	5d		 pop	 ebp
  00031	c2 04 00	 ret	 4
??_GCKanturuBattleUser@@UAEPAXI@Z ENDP			; CKanturuBattleUser::`scalar deleting destructor'
_TEXT	ENDS
PUBLIC	??1CKanturuBattleUserMng@@UAE@XZ		; CKanturuBattleUserMng::~CKanturuBattleUserMng
; Function compile flags: /Odtp /ZI
;	COMDAT ??_GCKanturuBattleUserMng@@UAEPAXI@Z
_TEXT	SEGMENT
_this$ = -4						; size = 4
___flags$ = 8						; size = 4
??_GCKanturuBattleUserMng@@UAEPAXI@Z PROC		; CKanturuBattleUserMng::`scalar deleting destructor', COMDAT
; _this$ = ecx
  00000	55		 push	 ebp
  00001	8b ec		 mov	 ebp, esp
  00003	83 ec 44	 sub	 esp, 68			; 00000044H
  00006	53		 push	 ebx
  00007	56		 push	 esi
  00008	57		 push	 edi
  00009	89 4d fc	 mov	 DWORD PTR _this$[ebp], ecx
  0000c	8b 4d fc	 mov	 ecx, DWORD PTR _this$[ebp]
  0000f	e8 00 00 00 00	 call	 ??1CKanturuBattleUserMng@@UAE@XZ ; CKanturuBattleUserMng::~CKanturuBattleUserMng
  00014	8b 45 08	 mov	 eax, DWORD PTR ___flags$[ebp]
  00017	83 e0 01	 and	 eax, 1
  0001a	74 0c		 je	 SHORT $LN1@scalar@2
  0001c	8b 45 fc	 mov	 eax, DWORD PTR _this$[ebp]
  0001f	50		 push	 eax
  00020	e8 00 00 00 00	 call	 ??3@YAXPAX@Z		; operator delete
  00025	83 c4 04	 add	 esp, 4
$LN1@scalar@2:
  00028	8b 45 fc	 mov	 eax, DWORD PTR _this$[ebp]
  0002b	5f		 pop	 edi
  0002c	5e		 pop	 esi
  0002d	5b		 pop	 ebx
  0002e	8b e5		 mov	 esp, ebp
  00030	5d		 pop	 ebp
  00031	c2 04 00	 ret	 4
??_GCKanturuBattleUserMng@@UAEPAXI@Z ENDP		; CKanturuBattleUserMng::`scalar deleting destructor'
; Function compile flags: /Odtp /ZI
; File d:\projects\exteam6.3\source\gameserver\gameserver\kanturubattleusermng.cpp
_TEXT	ENDS
_TEXT	SEGMENT
_this$ = -4						; size = 4
??1CKanturuBattleUserMng@@UAE@XZ PROC			; CKanturuBattleUserMng::~CKanturuBattleUserMng
; _this$ = ecx

; 23   : {

  00080	55		 push	 ebp
  00081	8b ec		 mov	 ebp, esp
  00083	83 ec 44	 sub	 esp, 68			; 00000044H
  00086	53		 push	 ebx
  00087	56		 push	 esi
  00088	57		 push	 edi
  00089	89 4d fc	 mov	 DWORD PTR _this$[ebp], ecx
  0008c	8b 45 fc	 mov	 eax, DWORD PTR _this$[ebp]
  0008f	c7 00 00 00 00
	00		 mov	 DWORD PTR [eax], OFFSET ??_7CKanturuBattleUserMng@@6B@

; 24   : 	return;
; 25   : }

  00095	68 00 00 00 00	 push	 OFFSET ??1CKanturuBattleUser@@UAE@XZ ; CKanturuBattleUser::~CKanturuBattleUser
  0009a	6a 0f		 push	 15			; 0000000fH
  0009c	6a 0c		 push	 12			; 0000000cH
  0009e	8b 45 fc	 mov	 eax, DWORD PTR _this$[ebp]
  000a1	83 c0 04	 add	 eax, 4
  000a4	50		 push	 eax
  000a5	e8 00 00 00 00	 call	 ??_M@YGXPAXIHP6EX0@Z@Z
  000aa	5f		 pop	 edi
  000ab	5e		 pop	 esi
  000ac	5b		 pop	 ebx
  000ad	8b e5		 mov	 esp, ebp
  000af	5d		 pop	 ebp
  000b0	c3		 ret	 0
??1CKanturuBattleUserMng@@UAE@XZ ENDP			; CKanturuBattleUserMng::~CKanturuBattleUserMng
_TEXT	ENDS
PUBLIC	?SetMaxUser@CKanturuBattleUserMng@@QAEXH@Z	; CKanturuBattleUserMng::SetMaxUser
; Function compile flags: /Odtp /ZI
_TEXT	SEGMENT
_iCount$219151 = -8					; size = 4
_this$ = -4						; size = 4
?ResetAllData@CKanturuBattleUserMng@@QAEXXZ PROC	; CKanturuBattleUserMng::ResetAllData
; _this$ = ecx

; 30   : {

  000c0	55		 push	 ebp
  000c1	8b ec		 mov	 ebp, esp
  000c3	83 ec 48	 sub	 esp, 72			; 00000048H
  000c6	53		 push	 ebx
  000c7	56		 push	 esi
  000c8	57		 push	 edi
  000c9	89 4d fc	 mov	 DWORD PTR _this$[ebp], ecx

; 31   : 	this->m_iBattleUserCount = 0;

  000cc	8b 45 fc	 mov	 eax, DWORD PTR _this$[ebp]
  000cf	c7 80 b8 00 00
	00 00 00 00 00	 mov	 DWORD PTR [eax+184], 0

; 32   : 	this->SetMaxUser(MAX_KANTURU_BATTLE_USER);

  000d9	6a 0f		 push	 15			; 0000000fH
  000db	8b 4d fc	 mov	 ecx, DWORD PTR _this$[ebp]
  000de	e8 00 00 00 00	 call	 ?SetMaxUser@CKanturuBattleUserMng@@QAEXH@Z ; CKanturuBattleUserMng::SetMaxUser

; 33   : 
; 34   : 	for ( int iCount=0;iCount<MAX_KANTURU_BATTLE_USER;iCount++)

  000e3	c7 45 f8 00 00
	00 00		 mov	 DWORD PTR _iCount$219151[ebp], 0
  000ea	eb 09		 jmp	 SHORT $LN3@ResetAllDa
$LN2@ResetAllDa:
  000ec	8b 45 f8	 mov	 eax, DWORD PTR _iCount$219151[ebp]
  000ef	83 c0 01	 add	 eax, 1
  000f2	89 45 f8	 mov	 DWORD PTR _iCount$219151[ebp], eax
$LN3@ResetAllDa:
  000f5	83 7d f8 0f	 cmp	 DWORD PTR _iCount$219151[ebp], 15 ; 0000000fH
  000f9	7d 14		 jge	 SHORT $LN4@ResetAllDa

; 35   : 	{
; 36   : 		this->m_BattleUser[iCount].ResetData();

  000fb	8b 45 f8	 mov	 eax, DWORD PTR _iCount$219151[ebp]
  000fe	6b c0 0c	 imul	 eax, 12			; 0000000cH
  00101	8b 4d fc	 mov	 ecx, DWORD PTR _this$[ebp]
  00104	8d 4c 01 04	 lea	 ecx, DWORD PTR [ecx+eax+4]
  00108	e8 00 00 00 00	 call	 ?ResetData@CKanturuBattleUser@@QAEXXZ ; CKanturuBattleUser::ResetData

; 37   : 	}

  0010d	eb dd		 jmp	 SHORT $LN2@ResetAllDa
$LN4@ResetAllDa:

; 38   : }

  0010f	5f		 pop	 edi
  00110	5e		 pop	 esi
  00111	5b		 pop	 ebx
  00112	8b e5		 mov	 esp, ebp
  00114	5d		 pop	 ebp
  00115	c3		 ret	 0
?ResetAllData@CKanturuBattleUserMng@@QAEXXZ ENDP	; CKanturuBattleUserMng::ResetAllData
_TEXT	ENDS
PUBLIC	?SetIndex@CKanturuBattleUser@@QAEXH@Z		; CKanturuBattleUser::SetIndex
PUBLIC	?IsUseData@CKanturuBattleUser@@QAEHXZ		; CKanturuBattleUser::IsUseData
PUBLIC	??_C@_0EB@OJFLABFJ@?$FL?5KANTURU?5?$FN?$FL?5BattleUser?5?$FN?5Add?5Us@ ; `string'
PUBLIC	?IsOverMaxUser@CKanturuBattleUserMng@@QAEHXZ	; CKanturuBattleUserMng::IsOverMaxUser
PUBLIC	??_C@_0ED@OOIHFICL@?$FL?5KANTURU?5?$FN?$FL?5BattleUser?5?$FN?5Add?5Us@ ; `string'
PUBLIC	?AddUserData@CKanturuBattleUserMng@@QAEHH@Z	; CKanturuBattleUserMng::AddUserData
EXTRN	?LogAddTD@@3P6AXPADZZA:DWORD			; LogAddTD
EXTRN	?gObj@@3PAUOBJECTSTRUCT@@A:DWORD		; gObj
EXTRN	?gObjIsConnected@@YAHH@Z:PROC			; gObjIsConnected
;	COMDAT ??_C@_0EB@OJFLABFJ@?$FL?5KANTURU?5?$FN?$FL?5BattleUser?5?$FN?5Add?5Us@
CONST	SEGMENT
??_C@_0EB@OJFLABFJ@?$FL?5KANTURU?5?$FN?$FL?5BattleUser?5?$FN?5Add?5Us@ DB '['
	DB	' KANTURU ][ BattleUser ] Add User Fail - Over Max User [%s][%'
	DB	's]', 00H					; `string'
CONST	ENDS
;	COMDAT ??_C@_0ED@OOIHFICL@?$FL?5KANTURU?5?$FN?$FL?5BattleUser?5?$FN?5Add?5Us@
CONST	SEGMENT
??_C@_0ED@OOIHFICL@?$FL?5KANTURU?5?$FN?$FL?5BattleUser?5?$FN?5Add?5Us@ DB '['
	DB	' KANTURU ][ BattleUser ] Add User Fail - Disconnect User [%s]'
	DB	'[%s]', 00H					; `string'
; Function compile flags: /Odtp /ZI
CONST	ENDS
_TEXT	SEGMENT
_iCount$219163 = -8					; size = 4
_this$ = -4						; size = 4
_iIndex$ = 8						; size = 4
?AddUserData@CKanturuBattleUserMng@@QAEHH@Z PROC	; CKanturuBattleUserMng::AddUserData
; _this$ = ecx

; 43   : {

  00120	55		 push	 ebp
  00121	8b ec		 mov	 ebp, esp
  00123	83 ec 48	 sub	 esp, 72			; 00000048H
  00126	53		 push	 ebx
  00127	56		 push	 esi
  00128	57		 push	 edi
  00129	89 4d fc	 mov	 DWORD PTR _this$[ebp], ecx

; 44   : 	if ( !gObjIsConnected(iIndex))

  0012c	8b 45 08	 mov	 eax, DWORD PTR _iIndex$[ebp]
  0012f	50		 push	 eax
  00130	e8 00 00 00 00	 call	 ?gObjIsConnected@@YAHH@Z ; gObjIsConnected
  00135	83 c4 04	 add	 esp, 4
  00138	85 c0		 test	 eax, eax
  0013a	75 3d		 jne	 SHORT $LN6@AddUserDat

; 45   : 	{
; 46   : 		LogAddTD("[ KANTURU ][ BattleUser ] Add User Fail - Disconnect User [%s][%s]",
; 47   : 			gObj[iIndex].AccountID, gObj[iIndex].Name);

  0013c	8b 45 08	 mov	 eax, DWORD PTR _iIndex$[ebp]
  0013f	69 c0 38 2b 00
	00		 imul	 eax, 11064		; 00002b38H
  00145	8b 0d 00 00 00
	00		 mov	 ecx, DWORD PTR ?gObj@@3PAUOBJECTSTRUCT@@A ; gObj
  0014b	8d 54 01 77	 lea	 edx, DWORD PTR [ecx+eax+119]
  0014f	52		 push	 edx
  00150	8b 45 08	 mov	 eax, DWORD PTR _iIndex$[ebp]
  00153	69 c0 38 2b 00
	00		 imul	 eax, 11064		; 00002b38H
  00159	8b 0d 00 00 00
	00		 mov	 ecx, DWORD PTR ?gObj@@3PAUOBJECTSTRUCT@@A ; gObj
  0015f	8d 54 01 6c	 lea	 edx, DWORD PTR [ecx+eax+108]
  00163	52		 push	 edx
  00164	68 00 00 00 00	 push	 OFFSET ??_C@_0ED@OOIHFICL@?$FL?5KANTURU?5?$FN?$FL?5BattleUser?5?$FN?5Add?5Us@
  00169	ff 15 00 00 00
	00		 call	 DWORD PTR ?LogAddTD@@3P6AXPADZZA ; LogAddTD
  0016f	83 c4 0c	 add	 esp, 12			; 0000000cH

; 48   : 
; 49   : 		return FALSE;

  00172	33 c0		 xor	 eax, eax
  00174	e9 aa 00 00 00	 jmp	 $LN7@AddUserDat
$LN6@AddUserDat:

; 50   : 	}
; 51   : 
; 52   : 	if ( this->IsOverMaxUser() )

  00179	8b 4d fc	 mov	 ecx, DWORD PTR _this$[ebp]
  0017c	e8 00 00 00 00	 call	 ?IsOverMaxUser@CKanturuBattleUserMng@@QAEHXZ ; CKanturuBattleUserMng::IsOverMaxUser
  00181	85 c0		 test	 eax, eax
  00183	74 3a		 je	 SHORT $LN5@AddUserDat

; 53   : 	{
; 54   : 		LogAddTD("[ KANTURU ][ BattleUser ] Add User Fail - Over Max User [%s][%s]",
; 55   : 			gObj[iIndex].AccountID, gObj[iIndex].Name);

  00185	8b 45 08	 mov	 eax, DWORD PTR _iIndex$[ebp]
  00188	69 c0 38 2b 00
	00		 imul	 eax, 11064		; 00002b38H
  0018e	8b 0d 00 00 00
	00		 mov	 ecx, DWORD PTR ?gObj@@3PAUOBJECTSTRUCT@@A ; gObj
  00194	8d 54 01 77	 lea	 edx, DWORD PTR [ecx+eax+119]
  00198	52		 push	 edx
  00199	8b 45 08	 mov	 eax, DWORD PTR _iIndex$[ebp]
  0019c	69 c0 38 2b 00
	00		 imul	 eax, 11064		; 00002b38H
  001a2	8b 0d 00 00 00
	00		 mov	 ecx, DWORD PTR ?gObj@@3PAUOBJECTSTRUCT@@A ; gObj
  001a8	8d 54 01 6c	 lea	 edx, DWORD PTR [ecx+eax+108]
  001ac	52		 push	 edx
  001ad	68 00 00 00 00	 push	 OFFSET ??_C@_0EB@OJFLABFJ@?$FL?5KANTURU?5?$FN?$FL?5BattleUser?5?$FN?5Add?5Us@
  001b2	ff 15 00 00 00
	00		 call	 DWORD PTR ?LogAddTD@@3P6AXPADZZA ; LogAddTD
  001b8	83 c4 0c	 add	 esp, 12			; 0000000cH

; 56   : 
; 57   : 		return FALSE;

  001bb	33 c0		 xor	 eax, eax
  001bd	eb 64		 jmp	 SHORT $LN7@AddUserDat
$LN5@AddUserDat:

; 58   : 	}
; 59   : 
; 60   : 	for ( int iCount=0;iCount<MAX_KANTURU_BATTLE_USER;iCount++)

  001bf	c7 45 f8 00 00
	00 00		 mov	 DWORD PTR _iCount$219163[ebp], 0
  001c6	eb 09		 jmp	 SHORT $LN4@AddUserDat
$LN3@AddUserDat:
  001c8	8b 45 f8	 mov	 eax, DWORD PTR _iCount$219163[ebp]
  001cb	83 c0 01	 add	 eax, 1
  001ce	89 45 f8	 mov	 DWORD PTR _iCount$219163[ebp], eax
$LN4@AddUserDat:
  001d1	83 7d f8 0f	 cmp	 DWORD PTR _iCount$219163[ebp], 15 ; 0000000fH
  001d5	7d 4a		 jge	 SHORT $LN2@AddUserDat

; 61   : 	{
; 62   : 		if ( this->m_BattleUser[iCount].IsUseData() == FALSE )

  001d7	8b 45 f8	 mov	 eax, DWORD PTR _iCount$219163[ebp]
  001da	6b c0 0c	 imul	 eax, 12			; 0000000cH
  001dd	8b 4d fc	 mov	 ecx, DWORD PTR _this$[ebp]
  001e0	8d 4c 01 04	 lea	 ecx, DWORD PTR [ecx+eax+4]
  001e4	e8 00 00 00 00	 call	 ?IsUseData@CKanturuBattleUser@@QAEHXZ ; CKanturuBattleUser::IsUseData
  001e9	85 c0		 test	 eax, eax
  001eb	75 32		 jne	 SHORT $LN1@AddUserDat

; 63   : 		{
; 64   : 			this->m_BattleUser[iCount].SetIndex(iIndex);

  001ed	8b 45 08	 mov	 eax, DWORD PTR _iIndex$[ebp]
  001f0	50		 push	 eax
  001f1	8b 4d f8	 mov	 ecx, DWORD PTR _iCount$219163[ebp]
  001f4	6b c9 0c	 imul	 ecx, 12			; 0000000cH
  001f7	8b 55 fc	 mov	 edx, DWORD PTR _this$[ebp]
  001fa	8d 4c 0a 04	 lea	 ecx, DWORD PTR [edx+ecx+4]
  001fe	e8 00 00 00 00	 call	 ?SetIndex@CKanturuBattleUser@@QAEXH@Z ; CKanturuBattleUser::SetIndex

; 65   : 			this->m_iBattleUserCount++;

  00203	8b 45 fc	 mov	 eax, DWORD PTR _this$[ebp]
  00206	8b 88 b8 00 00
	00		 mov	 ecx, DWORD PTR [eax+184]
  0020c	83 c1 01	 add	 ecx, 1
  0020f	8b 55 fc	 mov	 edx, DWORD PTR _this$[ebp]
  00212	89 8a b8 00 00
	00		 mov	 DWORD PTR [edx+184], ecx

; 66   : 			
; 67   : 			return TRUE;

  00218	b8 01 00 00 00	 mov	 eax, 1
  0021d	eb 04		 jmp	 SHORT $LN7@AddUserDat
$LN1@AddUserDat:

; 68   : 		}
; 69   : 	}

  0021f	eb a7		 jmp	 SHORT $LN3@AddUserDat
$LN2@AddUserDat:

; 70   : 
; 71   : 	return FALSE;

  00221	33 c0		 xor	 eax, eax
$LN7@AddUserDat:

; 72   : }

  00223	5f		 pop	 edi
  00224	5e		 pop	 esi
  00225	5b		 pop	 ebx
  00226	8b e5		 mov	 esp, ebp
  00228	5d		 pop	 ebp
  00229	c2 04 00	 ret	 4
?AddUserData@CKanturuBattleUserMng@@QAEHH@Z ENDP	; CKanturuBattleUserMng::AddUserData
; Function compile flags: /Odtp /ZI
; File d:\projects\exteam6.3\source\gameserver\gameserver\kanturubattleuser.h
_TEXT	ENDS
;	COMDAT ?SetIndex@CKanturuBattleUser@@QAEXH@Z
_TEXT	SEGMENT
_this$ = -4						; size = 4
_iIndex$ = 8						; size = 4
?SetIndex@CKanturuBattleUser@@QAEXH@Z PROC		; CKanturuBattleUser::SetIndex, COMDAT
; _this$ = ecx

; 28   : 	{

  00000	55		 push	 ebp
  00001	8b ec		 mov	 ebp, esp
  00003	83 ec 44	 sub	 esp, 68			; 00000044H
  00006	53		 push	 ebx
  00007	56		 push	 esi
  00008	57		 push	 edi
  00009	89 4d fc	 mov	 DWORD PTR _this$[ebp], ecx

; 29   : 		this->m_iIndex = iIndex;

  0000c	8b 45 fc	 mov	 eax, DWORD PTR _this$[ebp]
  0000f	8b 4d 08	 mov	 ecx, DWORD PTR _iIndex$[ebp]
  00012	89 48 04	 mov	 DWORD PTR [eax+4], ecx

; 30   : 		this->m_bIsUse = TRUE;

  00015	8b 45 fc	 mov	 eax, DWORD PTR _this$[ebp]
  00018	c7 40 08 01 00
	00 00		 mov	 DWORD PTR [eax+8], 1

; 31   : 	}

  0001f	5f		 pop	 edi
  00020	5e		 pop	 esi
  00021	5b		 pop	 ebx
  00022	8b e5		 mov	 esp, ebp
  00024	5d		 pop	 ebp
  00025	c2 04 00	 ret	 4
?SetIndex@CKanturuBattleUser@@QAEXH@Z ENDP		; CKanturuBattleUser::SetIndex
; Function compile flags: /Odtp /ZI
_TEXT	ENDS
;	COMDAT ?IsUseData@CKanturuBattleUser@@QAEHXZ
_TEXT	SEGMENT
_this$ = -4						; size = 4
?IsUseData@CKanturuBattleUser@@QAEHXZ PROC		; CKanturuBattleUser::IsUseData, COMDAT
; _this$ = ecx

; 34   : 	{

  00000	55		 push	 ebp
  00001	8b ec		 mov	 ebp, esp
  00003	83 ec 44	 sub	 esp, 68			; 00000044H
  00006	53		 push	 ebx
  00007	56		 push	 esi
  00008	57		 push	 edi
  00009	89 4d fc	 mov	 DWORD PTR _this$[ebp], ecx

; 35   : 		return this->m_bIsUse;

  0000c	8b 45 fc	 mov	 eax, DWORD PTR _this$[ebp]
  0000f	8b 40 08	 mov	 eax, DWORD PTR [eax+8]

; 36   : 	}

  00012	5f		 pop	 edi
  00013	5e		 pop	 esi
  00014	5b		 pop	 ebx
  00015	8b e5		 mov	 esp, ebp
  00017	5d		 pop	 ebp
  00018	c3		 ret	 0
?IsUseData@CKanturuBattleUser@@QAEHXZ ENDP		; CKanturuBattleUser::IsUseData
_TEXT	ENDS
PUBLIC	??_C@_0EI@JMGEKMPE@?$FL?5KANTURU?5?$FN?$FL?5BattleUser?5?$FN?5Delete@ ; `string'
PUBLIC	?GetIndex@CKanturuBattleUser@@QAEHXZ		; CKanturuBattleUser::GetIndex
PUBLIC	??_C@_0DO@CJKNCKNK@?$FL?5KANTURU?5?$FN?$FL?5BattleUser?5?$FN?5Delete@ ; `string'
PUBLIC	?DeleteUserData@CKanturuBattleUserMng@@QAEHH@Z	; CKanturuBattleUserMng::DeleteUserData
;	COMDAT ??_C@_0EI@JMGEKMPE@?$FL?5KANTURU?5?$FN?$FL?5BattleUser?5?$FN?5Delete@
; File d:\projects\exteam6.3\source\gameserver\gameserver\kanturubattleusermng.cpp
CONST	SEGMENT
??_C@_0EI@JMGEKMPE@?$FL?5KANTURU?5?$FN?$FL?5BattleUser?5?$FN?5Delete@ DB '['
	DB	' KANTURU ][ BattleUser ] Delete User - [%s][%s] Current Battl'
	DB	'e User:%d', 00H				; `string'
CONST	ENDS
;	COMDAT ??_C@_0DO@CJKNCKNK@?$FL?5KANTURU?5?$FN?$FL?5BattleUser?5?$FN?5Delete@
CONST	SEGMENT
??_C@_0DO@CJKNCKNK@?$FL?5KANTURU?5?$FN?$FL?5BattleUser?5?$FN?5Delete@ DB '['
	DB	' KANTURU ][ BattleUser ] Delete User Fail - Unvalid Index:%d', 00H ; `string'
; Function compile flags: /Odtp /ZI
CONST	ENDS
_TEXT	SEGMENT
_iCount$219175 = -8					; size = 4
_this$ = -4						; size = 4
_iIndex$ = 8						; size = 4
?DeleteUserData@CKanturuBattleUserMng@@QAEHH@Z PROC	; CKanturuBattleUserMng::DeleteUserData
; _this$ = ecx

; 76   : {

  00230	55		 push	 ebp
  00231	8b ec		 mov	 ebp, esp
  00233	83 ec 48	 sub	 esp, 72			; 00000048H
  00236	53		 push	 ebx
  00237	56		 push	 esi
  00238	57		 push	 edi
  00239	89 4d fc	 mov	 DWORD PTR _this$[ebp], ecx

; 77   : 	if ( iIndex < 0 || iIndex > OBJMAX-1)

  0023c	83 7d 08 00	 cmp	 DWORD PTR _iIndex$[ebp], 0
  00240	7c 09		 jl	 SHORT $LN6@DeleteUser
  00242	81 7d 08 97 3a
	00 00		 cmp	 DWORD PTR _iIndex$[ebp], 14999 ; 00003a97H
  00249	7e 19		 jle	 SHORT $LN7@DeleteUser
$LN6@DeleteUser:

; 78   : 	{
; 79   : 		LogAddTD("[ KANTURU ][ BattleUser ] Delete User Fail - Unvalid Index:%d",
; 80   : 			iIndex);

  0024b	8b 45 08	 mov	 eax, DWORD PTR _iIndex$[ebp]
  0024e	50		 push	 eax
  0024f	68 00 00 00 00	 push	 OFFSET ??_C@_0DO@CJKNCKNK@?$FL?5KANTURU?5?$FN?$FL?5BattleUser?5?$FN?5Delete@
  00254	ff 15 00 00 00
	00		 call	 DWORD PTR ?LogAddTD@@3P6AXPADZZA ; LogAddTD
  0025a	83 c4 08	 add	 esp, 8

; 81   : 
; 82   : 		return FALSE;

  0025d	33 c0		 xor	 eax, eax
  0025f	e9 df 00 00 00	 jmp	 $LN8@DeleteUser
$LN7@DeleteUser:

; 83   : 	}
; 84   : 
; 85   : 	for ( int iCount=0;iCount<MAX_KANTURU_BATTLE_USER;iCount++)

  00264	c7 45 f8 00 00
	00 00		 mov	 DWORD PTR _iCount$219175[ebp], 0
  0026b	eb 09		 jmp	 SHORT $LN5@DeleteUser
$LN4@DeleteUser:
  0026d	8b 45 f8	 mov	 eax, DWORD PTR _iCount$219175[ebp]
  00270	83 c0 01	 add	 eax, 1
  00273	89 45 f8	 mov	 DWORD PTR _iCount$219175[ebp], eax
$LN5@DeleteUser:
  00276	83 7d f8 0f	 cmp	 DWORD PTR _iCount$219175[ebp], 15 ; 0000000fH
  0027a	0f 8d c1 00 00
	00		 jge	 $LN3@DeleteUser

; 86   : 	{
; 87   : 		if ( this->m_BattleUser[iCount].IsUseData() == TRUE )

  00280	8b 45 f8	 mov	 eax, DWORD PTR _iCount$219175[ebp]
  00283	6b c0 0c	 imul	 eax, 12			; 0000000cH
  00286	8b 4d fc	 mov	 ecx, DWORD PTR _this$[ebp]
  00289	8d 4c 01 04	 lea	 ecx, DWORD PTR [ecx+eax+4]
  0028d	e8 00 00 00 00	 call	 ?IsUseData@CKanturuBattleUser@@QAEHXZ ; CKanturuBattleUser::IsUseData
  00292	83 f8 01	 cmp	 eax, 1
  00295	0f 85 a1 00 00
	00		 jne	 $LN2@DeleteUser

; 88   : 		{
; 89   : 			if ( this->m_BattleUser[iCount].GetIndex() == iIndex )

  0029b	8b 45 f8	 mov	 eax, DWORD PTR _iCount$219175[ebp]
  0029e	6b c0 0c	 imul	 eax, 12			; 0000000cH
  002a1	8b 4d fc	 mov	 ecx, DWORD PTR _this$[ebp]
  002a4	8d 4c 01 04	 lea	 ecx, DWORD PTR [ecx+eax+4]
  002a8	e8 00 00 00 00	 call	 ?GetIndex@CKanturuBattleUser@@QAEHXZ ; CKanturuBattleUser::GetIndex
  002ad	3b 45 08	 cmp	 eax, DWORD PTR _iIndex$[ebp]
  002b0	0f 85 86 00 00
	00		 jne	 $LN2@DeleteUser

; 90   : 			{
; 91   : 				this->m_BattleUser[iCount].ResetData();

  002b6	8b 45 f8	 mov	 eax, DWORD PTR _iCount$219175[ebp]
  002b9	6b c0 0c	 imul	 eax, 12			; 0000000cH
  002bc	8b 4d fc	 mov	 ecx, DWORD PTR _this$[ebp]
  002bf	8d 4c 01 04	 lea	 ecx, DWORD PTR [ecx+eax+4]
  002c3	e8 00 00 00 00	 call	 ?ResetData@CKanturuBattleUser@@QAEXXZ ; CKanturuBattleUser::ResetData

; 92   : 				this->m_iBattleUserCount--;

  002c8	8b 45 fc	 mov	 eax, DWORD PTR _this$[ebp]
  002cb	8b 88 b8 00 00
	00		 mov	 ecx, DWORD PTR [eax+184]
  002d1	83 e9 01	 sub	 ecx, 1
  002d4	8b 55 fc	 mov	 edx, DWORD PTR _this$[ebp]
  002d7	89 8a b8 00 00
	00		 mov	 DWORD PTR [edx+184], ecx

; 93   : //#if(GS_CASTLE==0)
; 94   : 				gObj[iIndex].m_bKanturuEntranceByNPC = FALSE;

  002dd	8b 45 08	 mov	 eax, DWORD PTR _iIndex$[ebp]
  002e0	69 c0 38 2b 00
	00		 imul	 eax, 11064		; 00002b38H
  002e6	8b 0d 00 00 00
	00		 mov	 ecx, DWORD PTR ?gObj@@3PAUOBJECTSTRUCT@@A ; gObj
  002ec	c7 84 01 10 20
	00 00 00 00 00
	00		 mov	 DWORD PTR [ecx+eax+8208], 0

; 95   : //#endif
; 96   : 
; 97   : 				LogAddTD("[ KANTURU ][ BattleUser ] Delete User - [%s][%s] Current Battle User:%d",
; 98   : 					gObj[iIndex].AccountID, gObj[iIndex].Name, this->m_iBattleUserCount);

  002f7	8b 45 fc	 mov	 eax, DWORD PTR _this$[ebp]
  002fa	8b 88 b8 00 00
	00		 mov	 ecx, DWORD PTR [eax+184]
  00300	51		 push	 ecx
  00301	8b 55 08	 mov	 edx, DWORD PTR _iIndex$[ebp]
  00304	69 d2 38 2b 00
	00		 imul	 edx, 11064		; 00002b38H
  0030a	a1 00 00 00 00	 mov	 eax, DWORD PTR ?gObj@@3PAUOBJECTSTRUCT@@A ; gObj
  0030f	8d 4c 10 77	 lea	 ecx, DWORD PTR [eax+edx+119]
  00313	51		 push	 ecx
  00314	8b 55 08	 mov	 edx, DWORD PTR _iIndex$[ebp]
  00317	69 d2 38 2b 00
	00		 imul	 edx, 11064		; 00002b38H
  0031d	a1 00 00 00 00	 mov	 eax, DWORD PTR ?gObj@@3PAUOBJECTSTRUCT@@A ; gObj
  00322	8d 4c 10 6c	 lea	 ecx, DWORD PTR [eax+edx+108]
  00326	51		 push	 ecx
  00327	68 00 00 00 00	 push	 OFFSET ??_C@_0EI@JMGEKMPE@?$FL?5KANTURU?5?$FN?$FL?5BattleUser?5?$FN?5Delete@
  0032c	ff 15 00 00 00
	00		 call	 DWORD PTR ?LogAddTD@@3P6AXPADZZA ; LogAddTD
  00332	83 c4 10	 add	 esp, 16			; 00000010H

; 99   : 
; 100  : 				return TRUE;

  00335	b8 01 00 00 00	 mov	 eax, 1
  0033a	eb 07		 jmp	 SHORT $LN8@DeleteUser
$LN2@DeleteUser:

; 101  : 			}
; 102  : 		}
; 103  : 	}

  0033c	e9 2c ff ff ff	 jmp	 $LN4@DeleteUser
$LN3@DeleteUser:

; 104  : 
; 105  : 	return FALSE;

  00341	33 c0		 xor	 eax, eax
$LN8@DeleteUser:

; 106  : }

  00343	5f		 pop	 edi
  00344	5e		 pop	 esi
  00345	5b		 pop	 ebx
  00346	8b e5		 mov	 esp, ebp
  00348	5d		 pop	 ebp
  00349	c2 04 00	 ret	 4
?DeleteUserData@CKanturuBattleUserMng@@QAEHH@Z ENDP	; CKanturuBattleUserMng::DeleteUserData
; Function compile flags: /Odtp /ZI
; File d:\projects\exteam6.3\source\gameserver\gameserver\kanturubattleuser.h
_TEXT	ENDS
;	COMDAT ?GetIndex@CKanturuBattleUser@@QAEHXZ
_TEXT	SEGMENT
_this$ = -4						; size = 4
?GetIndex@CKanturuBattleUser@@QAEHXZ PROC		; CKanturuBattleUser::GetIndex, COMDAT
; _this$ = ecx

; 23   : 	{

  00000	55		 push	 ebp
  00001	8b ec		 mov	 ebp, esp
  00003	83 ec 44	 sub	 esp, 68			; 00000044H
  00006	53		 push	 ebx
  00007	56		 push	 esi
  00008	57		 push	 edi
  00009	89 4d fc	 mov	 DWORD PTR _this$[ebp], ecx

; 24   : 		return this->m_iIndex;

  0000c	8b 45 fc	 mov	 eax, DWORD PTR _this$[ebp]
  0000f	8b 40 04	 mov	 eax, DWORD PTR [eax+4]

; 25   : 	}

  00012	5f		 pop	 edi
  00013	5e		 pop	 esi
  00014	5b		 pop	 ebx
  00015	8b e5		 mov	 esp, ebp
  00017	5d		 pop	 ebp
  00018	c3		 ret	 0
?GetIndex@CKanturuBattleUser@@QAEHXZ ENDP		; CKanturuBattleUser::GetIndex
_TEXT	ENDS
PUBLIC	??_C@_0DK@PJCHICKL@?$FL?5KANTURU?5?$FN?$FL?5BattleUser?5?$FN?5Delete@ ; `string'
PUBLIC	??_C@_0DM@MIBKFEPM@?$FL?5KANTURU?5?$FN?$FL?5BattleUser?5?$FN?5Delete@ ; `string'
PUBLIC	?CheckUserState@CKanturuBattleUserMng@@QAEXXZ	; CKanturuBattleUserMng::CheckUserState
;	COMDAT ??_C@_0DK@PJCHICKL@?$FL?5KANTURU?5?$FN?$FL?5BattleUser?5?$FN?5Delete@
; File d:\projects\exteam6.3\source\gameserver\gameserver\kanturubattleusermng.cpp
CONST	SEGMENT
??_C@_0DK@PJCHICKL@?$FL?5KANTURU?5?$FN?$FL?5BattleUser?5?$FN?5Delete@ DB '['
	DB	' KANTURU ][ BattleUser ] Delete User - Map Move [%s][%s]', 00H ; `string'
CONST	ENDS
;	COMDAT ??_C@_0DM@MIBKFEPM@?$FL?5KANTURU?5?$FN?$FL?5BattleUser?5?$FN?5Delete@
CONST	SEGMENT
??_C@_0DM@MIBKFEPM@?$FL?5KANTURU?5?$FN?$FL?5BattleUser?5?$FN?5Delete@ DB '['
	DB	' KANTURU ][ BattleUser ] Delete User - Disconnect [%s][%s]', 00H ; `string'
; Function compile flags: /Odtp /ZI
CONST	ENDS
_TEXT	SEGMENT
_iCount$219186 = -12					; size = 4
_iIndex$ = -8						; size = 4
_this$ = -4						; size = 4
?CheckUserState@CKanturuBattleUserMng@@QAEXXZ PROC	; CKanturuBattleUserMng::CheckUserState
; _this$ = ecx

; 111  : {

  00350	55		 push	 ebp
  00351	8b ec		 mov	 ebp, esp
  00353	83 ec 4c	 sub	 esp, 76			; 0000004cH
  00356	53		 push	 ebx
  00357	56		 push	 esi
  00358	57		 push	 edi
  00359	89 4d fc	 mov	 DWORD PTR _this$[ebp], ecx

; 112  : 	int iIndex;
; 113  : 
; 114  : 	for ( int iCount=0;iCount<MAX_KANTURU_BATTLE_USER;iCount++)

  0035c	c7 45 f4 00 00
	00 00		 mov	 DWORD PTR _iCount$219186[ebp], 0
  00363	eb 09		 jmp	 SHORT $LN6@CheckUserS
$LN5@CheckUserS:
  00365	8b 45 f4	 mov	 eax, DWORD PTR _iCount$219186[ebp]
  00368	83 c0 01	 add	 eax, 1
  0036b	89 45 f4	 mov	 DWORD PTR _iCount$219186[ebp], eax
$LN6@CheckUserS:
  0036e	83 7d f4 0f	 cmp	 DWORD PTR _iCount$219186[ebp], 15 ; 0000000fH
  00372	0f 8d 17 01 00
	00		 jge	 $LN7@CheckUserS

; 115  : 	{
; 116  : 		if ( this->m_BattleUser[iCount].IsUseData() == TRUE )

  00378	8b 45 f4	 mov	 eax, DWORD PTR _iCount$219186[ebp]
  0037b	6b c0 0c	 imul	 eax, 12			; 0000000cH
  0037e	8b 4d fc	 mov	 ecx, DWORD PTR _this$[ebp]
  00381	8d 4c 01 04	 lea	 ecx, DWORD PTR [ecx+eax+4]
  00385	e8 00 00 00 00	 call	 ?IsUseData@CKanturuBattleUser@@QAEHXZ ; CKanturuBattleUser::IsUseData
  0038a	83 f8 01	 cmp	 eax, 1
  0038d	0f 85 f7 00 00
	00		 jne	 $LN3@CheckUserS

; 117  : 		{
; 118  : 			iIndex = this->m_BattleUser[iCount].GetIndex();

  00393	8b 45 f4	 mov	 eax, DWORD PTR _iCount$219186[ebp]
  00396	6b c0 0c	 imul	 eax, 12			; 0000000cH
  00399	8b 4d fc	 mov	 ecx, DWORD PTR _this$[ebp]
  0039c	8d 4c 01 04	 lea	 ecx, DWORD PTR [ecx+eax+4]
  003a0	e8 00 00 00 00	 call	 ?GetIndex@CKanturuBattleUser@@QAEHXZ ; CKanturuBattleUser::GetIndex
  003a5	89 45 f8	 mov	 DWORD PTR _iIndex$[ebp], eax

; 119  : 
; 120  : 			if ( !gObjIsConnected(iIndex))

  003a8	8b 45 f8	 mov	 eax, DWORD PTR _iIndex$[ebp]
  003ab	50		 push	 eax
  003ac	e8 00 00 00 00	 call	 ?gObjIsConnected@@YAHH@Z ; gObjIsConnected
  003b1	83 c4 04	 add	 esp, 4
  003b4	85 c0		 test	 eax, eax
  003b6	75 42		 jne	 SHORT $LN2@CheckUserS

; 121  : 			{
; 122  : 				this->DeleteUserData(iIndex);

  003b8	8b 45 f8	 mov	 eax, DWORD PTR _iIndex$[ebp]
  003bb	50		 push	 eax
  003bc	8b 4d fc	 mov	 ecx, DWORD PTR _this$[ebp]
  003bf	e8 00 00 00 00	 call	 ?DeleteUserData@CKanturuBattleUserMng@@QAEHH@Z ; CKanturuBattleUserMng::DeleteUserData

; 123  : 
; 124  : 				LogAddTD("[ KANTURU ][ BattleUser ] Delete User - Disconnect [%s][%s]",
; 125  : 					gObj[iIndex].AccountID, gObj[iIndex].Name);

  003c4	8b 45 f8	 mov	 eax, DWORD PTR _iIndex$[ebp]
  003c7	69 c0 38 2b 00
	00		 imul	 eax, 11064		; 00002b38H
  003cd	8b 0d 00 00 00
	00		 mov	 ecx, DWORD PTR ?gObj@@3PAUOBJECTSTRUCT@@A ; gObj
  003d3	8d 54 01 77	 lea	 edx, DWORD PTR [ecx+eax+119]
  003d7	52		 push	 edx
  003d8	8b 45 f8	 mov	 eax, DWORD PTR _iIndex$[ebp]
  003db	69 c0 38 2b 00
	00		 imul	 eax, 11064		; 00002b38H
  003e1	8b 0d 00 00 00
	00		 mov	 ecx, DWORD PTR ?gObj@@3PAUOBJECTSTRUCT@@A ; gObj
  003e7	8d 54 01 6c	 lea	 edx, DWORD PTR [ecx+eax+108]
  003eb	52		 push	 edx
  003ec	68 00 00 00 00	 push	 OFFSET ??_C@_0DM@MIBKFEPM@?$FL?5KANTURU?5?$FN?$FL?5BattleUser?5?$FN?5Delete@
  003f1	ff 15 00 00 00
	00		 call	 DWORD PTR ?LogAddTD@@3P6AXPADZZA ; LogAddTD
  003f7	83 c4 0c	 add	 esp, 12			; 0000000cH
$LN2@CheckUserS:

; 126  : 			}
; 127  : 
; 128  : 			if ( gObj[iIndex].MapNumber != MAP_INDEX_KANTURU_BOSS &&
; 129  : 				 gObj[iIndex].m_State == 2 &&
; 130  : 				 gObj[iIndex].Live == 1 )

  003fa	8b 45 f8	 mov	 eax, DWORD PTR _iIndex$[ebp]
  003fd	69 c0 38 2b 00
	00		 imul	 eax, 11064		; 00002b38H
  00403	8b 0d 00 00 00
	00		 mov	 ecx, DWORD PTR ?gObj@@3PAUOBJECTSTRUCT@@A ; gObj
  00409	0f b6 94 01 49
	01 00 00	 movzx	 edx, BYTE PTR [ecx+eax+329]
  00411	83 fa 27	 cmp	 edx, 39			; 00000027H
  00414	74 74		 je	 SHORT $LN3@CheckUserS
  00416	8b 45 f8	 mov	 eax, DWORD PTR _iIndex$[ebp]
  00419	69 c0 38 2b 00
	00		 imul	 eax, 11064		; 00002b38H
  0041f	8b 0d 00 00 00
	00		 mov	 ecx, DWORD PTR ?gObj@@3PAUOBJECTSTRUCT@@A ; gObj
  00425	83 bc 01 20 02
	00 00 02	 cmp	 DWORD PTR [ecx+eax+544], 2
  0042d	75 5b		 jne	 SHORT $LN3@CheckUserS
  0042f	8b 45 f8	 mov	 eax, DWORD PTR _iIndex$[ebp]
  00432	69 c0 38 2b 00
	00		 imul	 eax, 11064		; 00002b38H
  00438	8b 0d 00 00 00
	00		 mov	 ecx, DWORD PTR ?gObj@@3PAUOBJECTSTRUCT@@A ; gObj
  0043e	0f b6 54 01 6a	 movzx	 edx, BYTE PTR [ecx+eax+106]
  00443	83 fa 01	 cmp	 edx, 1
  00446	75 42		 jne	 SHORT $LN3@CheckUserS

; 131  : 			{
; 132  : 				this->DeleteUserData(iIndex);

  00448	8b 45 f8	 mov	 eax, DWORD PTR _iIndex$[ebp]
  0044b	50		 push	 eax
  0044c	8b 4d fc	 mov	 ecx, DWORD PTR _this$[ebp]
  0044f	e8 00 00 00 00	 call	 ?DeleteUserData@CKanturuBattleUserMng@@QAEHH@Z ; CKanturuBattleUserMng::DeleteUserData

; 133  : 
; 134  : 				LogAddTD("[ KANTURU ][ BattleUser ] Delete User - Map Move [%s][%s]",
; 135  : 					gObj[iIndex].AccountID, gObj[iIndex].Name);

  00454	8b 45 f8	 mov	 eax, DWORD PTR _iIndex$[ebp]
  00457	69 c0 38 2b 00
	00		 imul	 eax, 11064		; 00002b38H
  0045d	8b 0d 00 00 00
	00		 mov	 ecx, DWORD PTR ?gObj@@3PAUOBJECTSTRUCT@@A ; gObj
  00463	8d 54 01 77	 lea	 edx, DWORD PTR [ecx+eax+119]
  00467	52		 push	 edx
  00468	8b 45 f8	 mov	 eax, DWORD PTR _iIndex$[ebp]
  0046b	69 c0 38 2b 00
	00		 imul	 eax, 11064		; 00002b38H
  00471	8b 0d 00 00 00
	00		 mov	 ecx, DWORD PTR ?gObj@@3PAUOBJECTSTRUCT@@A ; gObj
  00477	8d 54 01 6c	 lea	 edx, DWORD PTR [ecx+eax+108]
  0047b	52		 push	 edx
  0047c	68 00 00 00 00	 push	 OFFSET ??_C@_0DK@PJCHICKL@?$FL?5KANTURU?5?$FN?$FL?5BattleUser?5?$FN?5Delete@
  00481	ff 15 00 00 00
	00		 call	 DWORD PTR ?LogAddTD@@3P6AXPADZZA ; LogAddTD
  00487	83 c4 0c	 add	 esp, 12			; 0000000cH
$LN3@CheckUserS:

; 136  : 			}
; 137  : 		}
; 138  : 	}

  0048a	e9 d6 fe ff ff	 jmp	 $LN5@CheckUserS
$LN7@CheckUserS:

; 139  : }

  0048f	5f		 pop	 edi
  00490	5e		 pop	 esi
  00491	5b		 pop	 ebx
  00492	8b e5		 mov	 esp, ebp
  00494	5d		 pop	 ebp
  00495	c3		 ret	 0
?CheckUserState@CKanturuBattleUserMng@@QAEXXZ ENDP	; CKanturuBattleUserMng::CheckUserState
_TEXT	ENDS
PUBLIC	??_C@_0DG@PLIJPMOP@?$FL?5KANTURU?5?$FN?$FL?5BattleUser?5?$FN?5?$FL?$CFs?$FN?$FL?$CF@ ; `string'
PUBLIC	??_C@_0DA@HDNGBBMJ@?$FL?5KANTURU?5?$FN?$FL?5BattleUser?5?$FN?5?$FL?$CFs?$FN?$FL?$CF@ ; `string'
PUBLIC	?MoveAllUser@CKanturuBattleUserMng@@QAEHH@Z	; CKanturuBattleUserMng::MoveAllUser
EXTRN	?gObjMoveGate@@YAHHH@Z:PROC			; gObjMoveGate
;	COMDAT ??_C@_0DG@PLIJPMOP@?$FL?5KANTURU?5?$FN?$FL?5BattleUser?5?$FN?5?$FL?$CFs?$FN?$FL?$CF@
CONST	SEGMENT
??_C@_0DG@PLIJPMOP@?$FL?5KANTURU?5?$FN?$FL?5BattleUser?5?$FN?5?$FL?$CFs?$FN?$FL?$CF@ DB '['
	DB	' KANTURU ][ BattleUser ] [%s][%s] MoveGate Fail (%d)', 00H ; `string'
CONST	ENDS
;	COMDAT ??_C@_0DA@HDNGBBMJ@?$FL?5KANTURU?5?$FN?$FL?5BattleUser?5?$FN?5?$FL?$CFs?$FN?$FL?$CF@
CONST	SEGMENT
??_C@_0DA@HDNGBBMJ@?$FL?5KANTURU?5?$FN?$FL?5BattleUser?5?$FN?5?$FL?$CFs?$FN?$FL?$CF@ DB '['
	DB	' KANTURU ][ BattleUser ] [%s][%s] MoveGate(%d)', 00H ; `string'
; Function compile flags: /Odtp /ZI
CONST	ENDS
_TEXT	SEGMENT
_iCount$219201 = -16					; size = 4
_bMoveGateSuccess$ = -12				; size = 4
_iIndex$ = -8						; size = 4
_this$ = -4						; size = 4
_iGateNumber$ = 8					; size = 4
?MoveAllUser@CKanturuBattleUserMng@@QAEHH@Z PROC	; CKanturuBattleUserMng::MoveAllUser
; _this$ = ecx

; 144  : {

  004a0	55		 push	 ebp
  004a1	8b ec		 mov	 ebp, esp
  004a3	83 ec 50	 sub	 esp, 80			; 00000050H
  004a6	53		 push	 ebx
  004a7	56		 push	 esi
  004a8	57		 push	 edi
  004a9	89 4d fc	 mov	 DWORD PTR _this$[ebp], ecx

; 145  : 	int iIndex;
; 146  : 	BOOL bMoveGateSuccess = FALSE;

  004ac	c7 45 f4 00 00
	00 00		 mov	 DWORD PTR _bMoveGateSuccess$[ebp], 0

; 147  : 
; 148  : 	for ( int iCount=0;iCount<MAX_KANTURU_BATTLE_USER;iCount++)

  004b3	c7 45 f0 00 00
	00 00		 mov	 DWORD PTR _iCount$219201[ebp], 0
  004ba	eb 09		 jmp	 SHORT $LN6@MoveAllUse
$LN5@MoveAllUse:
  004bc	8b 45 f0	 mov	 eax, DWORD PTR _iCount$219201[ebp]
  004bf	83 c0 01	 add	 eax, 1
  004c2	89 45 f0	 mov	 DWORD PTR _iCount$219201[ebp], eax
$LN6@MoveAllUse:
  004c5	83 7d f0 0f	 cmp	 DWORD PTR _iCount$219201[ebp], 15 ; 0000000fH
  004c9	0f 8d e0 00 00
	00		 jge	 $LN4@MoveAllUse

; 149  : 	{
; 150  : 		iIndex = this->m_BattleUser[iCount].GetIndex();

  004cf	8b 45 f0	 mov	 eax, DWORD PTR _iCount$219201[ebp]
  004d2	6b c0 0c	 imul	 eax, 12			; 0000000cH
  004d5	8b 4d fc	 mov	 ecx, DWORD PTR _this$[ebp]
  004d8	8d 4c 01 04	 lea	 ecx, DWORD PTR [ecx+eax+4]
  004dc	e8 00 00 00 00	 call	 ?GetIndex@CKanturuBattleUser@@QAEHXZ ; CKanturuBattleUser::GetIndex
  004e1	89 45 f8	 mov	 DWORD PTR _iIndex$[ebp], eax

; 151  : 
; 152  : 		if ( this->m_BattleUser[iCount].IsUseData()  )

  004e4	8b 45 f0	 mov	 eax, DWORD PTR _iCount$219201[ebp]
  004e7	6b c0 0c	 imul	 eax, 12			; 0000000cH
  004ea	8b 4d fc	 mov	 ecx, DWORD PTR _this$[ebp]
  004ed	8d 4c 01 04	 lea	 ecx, DWORD PTR [ecx+eax+4]
  004f1	e8 00 00 00 00	 call	 ?IsUseData@CKanturuBattleUser@@QAEHXZ ; CKanturuBattleUser::IsUseData
  004f6	85 c0		 test	 eax, eax
  004f8	0f 84 ac 00 00
	00		 je	 $LN3@MoveAllUse

; 153  : 		{
; 154  : 			bMoveGateSuccess = gObjMoveGate(iIndex, iGateNumber);

  004fe	8b 45 08	 mov	 eax, DWORD PTR _iGateNumber$[ebp]
  00501	50		 push	 eax
  00502	8b 4d f8	 mov	 ecx, DWORD PTR _iIndex$[ebp]
  00505	51		 push	 ecx
  00506	e8 00 00 00 00	 call	 ?gObjMoveGate@@YAHHH@Z	; gObjMoveGate
  0050b	83 c4 08	 add	 esp, 8
  0050e	89 45 f4	 mov	 DWORD PTR _bMoveGateSuccess$[ebp], eax

; 155  : 
; 156  : 			if ( bMoveGateSuccess == TRUE )

  00511	83 7d f4 01	 cmp	 DWORD PTR _bMoveGateSuccess$[ebp], 1
  00515	75 3c		 jne	 SHORT $LN2@MoveAllUse

; 157  : 			{
; 158  : 				LogAddTD("[ KANTURU ][ BattleUser ] [%s][%s] MoveGate(%d)",
; 159  : 					gObj[iIndex].AccountID, gObj[iIndex].Name, iGateNumber);

  00517	8b 45 08	 mov	 eax, DWORD PTR _iGateNumber$[ebp]
  0051a	50		 push	 eax
  0051b	8b 4d f8	 mov	 ecx, DWORD PTR _iIndex$[ebp]
  0051e	69 c9 38 2b 00
	00		 imul	 ecx, 11064		; 00002b38H
  00524	8b 15 00 00 00
	00		 mov	 edx, DWORD PTR ?gObj@@3PAUOBJECTSTRUCT@@A ; gObj
  0052a	8d 44 0a 77	 lea	 eax, DWORD PTR [edx+ecx+119]
  0052e	50		 push	 eax
  0052f	8b 4d f8	 mov	 ecx, DWORD PTR _iIndex$[ebp]
  00532	69 c9 38 2b 00
	00		 imul	 ecx, 11064		; 00002b38H
  00538	8b 15 00 00 00
	00		 mov	 edx, DWORD PTR ?gObj@@3PAUOBJECTSTRUCT@@A ; gObj
  0053e	8d 44 0a 6c	 lea	 eax, DWORD PTR [edx+ecx+108]
  00542	50		 push	 eax
  00543	68 00 00 00 00	 push	 OFFSET ??_C@_0DA@HDNGBBMJ@?$FL?5KANTURU?5?$FN?$FL?5BattleUser?5?$FN?5?$FL?$CFs?$FN?$FL?$CF@
  00548	ff 15 00 00 00
	00		 call	 DWORD PTR ?LogAddTD@@3P6AXPADZZA ; LogAddTD
  0054e	83 c4 10	 add	 esp, 16			; 00000010H

; 160  : 			}
; 161  : 			else

  00551	eb 57		 jmp	 SHORT $LN3@MoveAllUse
$LN2@MoveAllUse:

; 162  : 			{
; 163  : 				this->DeleteUserData(iIndex);

  00553	8b 45 f8	 mov	 eax, DWORD PTR _iIndex$[ebp]
  00556	50		 push	 eax
  00557	8b 4d fc	 mov	 ecx, DWORD PTR _this$[ebp]
  0055a	e8 00 00 00 00	 call	 ?DeleteUserData@CKanturuBattleUserMng@@QAEHH@Z ; CKanturuBattleUserMng::DeleteUserData

; 164  : 
; 165  : 				LogAddTD( "[ KANTURU ][ BattleUser ] [%s][%s] MoveGate Fail (%d)",
; 166  : 					gObj[iIndex].AccountID, gObj[iIndex].Name, iGateNumber);

  0055f	8b 45 08	 mov	 eax, DWORD PTR _iGateNumber$[ebp]
  00562	50		 push	 eax
  00563	8b 4d f8	 mov	 ecx, DWORD PTR _iIndex$[ebp]
  00566	69 c9 38 2b 00
	00		 imul	 ecx, 11064		; 00002b38H
  0056c	8b 15 00 00 00
	00		 mov	 edx, DWORD PTR ?gObj@@3PAUOBJECTSTRUCT@@A ; gObj
  00572	8d 44 0a 77	 lea	 eax, DWORD PTR [edx+ecx+119]
  00576	50		 push	 eax
  00577	8b 4d f8	 mov	 ecx, DWORD PTR _iIndex$[ebp]
  0057a	69 c9 38 2b 00
	00		 imul	 ecx, 11064		; 00002b38H
  00580	8b 15 00 00 00
	00		 mov	 edx, DWORD PTR ?gObj@@3PAUOBJECTSTRUCT@@A ; gObj
  00586	8d 44 0a 6c	 lea	 eax, DWORD PTR [edx+ecx+108]
  0058a	50		 push	 eax
  0058b	68 00 00 00 00	 push	 OFFSET ??_C@_0DG@PLIJPMOP@?$FL?5KANTURU?5?$FN?$FL?5BattleUser?5?$FN?5?$FL?$CFs?$FN?$FL?$CF@
  00590	ff 15 00 00 00
	00		 call	 DWORD PTR ?LogAddTD@@3P6AXPADZZA ; LogAddTD
  00596	83 c4 10	 add	 esp, 16			; 00000010H

; 167  : 
; 168  : 				gObjMoveGate(iIndex, 137);

  00599	68 89 00 00 00	 push	 137			; 00000089H
  0059e	8b 45 f8	 mov	 eax, DWORD PTR _iIndex$[ebp]
  005a1	50		 push	 eax
  005a2	e8 00 00 00 00	 call	 ?gObjMoveGate@@YAHHH@Z	; gObjMoveGate
  005a7	83 c4 08	 add	 esp, 8
$LN3@MoveAllUse:

; 169  : 			}
; 170  : 		}
; 171  : 	}

  005aa	e9 0d ff ff ff	 jmp	 $LN5@MoveAllUse
$LN4@MoveAllUse:

; 172  : 
; 173  : 	return TRUE;

  005af	b8 01 00 00 00	 mov	 eax, 1

; 174  : }

  005b4	5f		 pop	 edi
  005b5	5e		 pop	 esi
  005b6	5b		 pop	 ebx
  005b7	8b e5		 mov	 esp, ebp
  005b9	5d		 pop	 ebp
  005ba	c2 04 00	 ret	 4
?MoveAllUser@CKanturuBattleUserMng@@QAEHH@Z ENDP	; CKanturuBattleUserMng::MoveAllUser
_TEXT	ENDS
PUBLIC	??_C@_0CK@DJKPOCNG@?$FL?5KANTURU?5?$FN?$FL?5BattleUser?5?$FN?5Set?5Ma@ ; `string'
;	COMDAT ??_C@_0CK@DJKPOCNG@?$FL?5KANTURU?5?$FN?$FL?5BattleUser?5?$FN?5Set?5Ma@
CONST	SEGMENT
??_C@_0CK@DJKPOCNG@?$FL?5KANTURU?5?$FN?$FL?5BattleUser?5?$FN?5Set?5Ma@ DB '['
	DB	' KANTURU ][ BattleUser ] Set Max User:%d', 00H ; `string'
; Function compile flags: /Odtp /ZI
CONST	ENDS
_TEXT	SEGMENT
_this$ = -4						; size = 4
_iMaxUser$ = 8						; size = 4
?SetMaxUser@CKanturuBattleUserMng@@QAEXH@Z PROC		; CKanturuBattleUserMng::SetMaxUser
; _this$ = ecx

; 179  : {

  005c0	55		 push	 ebp
  005c1	8b ec		 mov	 ebp, esp
  005c3	83 ec 44	 sub	 esp, 68			; 00000044H
  005c6	53		 push	 ebx
  005c7	56		 push	 esi
  005c8	57		 push	 edi
  005c9	89 4d fc	 mov	 DWORD PTR _this$[ebp], ecx

; 180  : 	this->m_iBattleMaxUser = iMaxUser;

  005cc	8b 45 fc	 mov	 eax, DWORD PTR _this$[ebp]
  005cf	8b 4d 08	 mov	 ecx, DWORD PTR _iMaxUser$[ebp]
  005d2	89 88 bc 00 00
	00		 mov	 DWORD PTR [eax+188], ecx

; 181  : 
; 182  : 	if ( iMaxUser > MAX_KANTURU_BATTLE_USER )

  005d8	83 7d 08 0f	 cmp	 DWORD PTR _iMaxUser$[ebp], 15 ; 0000000fH
  005dc	7e 1f		 jle	 SHORT $LN2@SetMaxUser

; 183  : 	{
; 184  : 		this->m_iBattleMaxUser = MAX_KANTURU_BATTLE_USER;

  005de	8b 45 fc	 mov	 eax, DWORD PTR _this$[ebp]
  005e1	c7 80 bc 00 00
	00 0f 00 00 00	 mov	 DWORD PTR [eax+188], 15	; 0000000fH

; 185  : 
; 186  : 		LogAddTD("[ KANTURU ][ BattleUser ] Set Max User:%d",
; 187  : 			iMaxUser);

  005eb	8b 45 08	 mov	 eax, DWORD PTR _iMaxUser$[ebp]
  005ee	50		 push	 eax
  005ef	68 00 00 00 00	 push	 OFFSET ??_C@_0CK@DJKPOCNG@?$FL?5KANTURU?5?$FN?$FL?5BattleUser?5?$FN?5Set?5Ma@
  005f4	ff 15 00 00 00
	00		 call	 DWORD PTR ?LogAddTD@@3P6AXPADZZA ; LogAddTD
  005fa	83 c4 08	 add	 esp, 8
$LN2@SetMaxUser:

; 188  : 	}
; 189  : }

  005fd	5f		 pop	 edi
  005fe	5e		 pop	 esi
  005ff	5b		 pop	 ebx
  00600	8b e5		 mov	 esp, ebp
  00602	5d		 pop	 ebp
  00603	c2 04 00	 ret	 4
?SetMaxUser@CKanturuBattleUserMng@@QAEXH@Z ENDP		; CKanturuBattleUserMng::SetMaxUser
_TEXT	ENDS
PUBLIC	?GetMaxUser@CKanturuBattleUserMng@@QAEHXZ	; CKanturuBattleUserMng::GetMaxUser
; Function compile flags: /Odtp /ZI
_TEXT	SEGMENT
_this$ = -4						; size = 4
?GetMaxUser@CKanturuBattleUserMng@@QAEHXZ PROC		; CKanturuBattleUserMng::GetMaxUser
; _this$ = ecx

; 194  : {

  00610	55		 push	 ebp
  00611	8b ec		 mov	 ebp, esp
  00613	83 ec 44	 sub	 esp, 68			; 00000044H
  00616	53		 push	 ebx
  00617	56		 push	 esi
  00618	57		 push	 edi
  00619	89 4d fc	 mov	 DWORD PTR _this$[ebp], ecx

; 195  : 	return this->m_iBattleMaxUser;

  0061c	8b 45 fc	 mov	 eax, DWORD PTR _this$[ebp]
  0061f	8b 80 bc 00 00
	00		 mov	 eax, DWORD PTR [eax+188]

; 196  : }

  00625	5f		 pop	 edi
  00626	5e		 pop	 esi
  00627	5b		 pop	 ebx
  00628	8b e5		 mov	 esp, ebp
  0062a	5d		 pop	 ebp
  0062b	c3		 ret	 0
?GetMaxUser@CKanturuBattleUserMng@@QAEHXZ ENDP		; CKanturuBattleUserMng::GetMaxUser
_TEXT	ENDS
PUBLIC	?GetUserCount@CKanturuBattleUserMng@@QAEHXZ	; CKanturuBattleUserMng::GetUserCount
; Function compile flags: /Odtp /ZI
_TEXT	SEGMENT
_this$ = -4						; size = 4
?GetUserCount@CKanturuBattleUserMng@@QAEHXZ PROC	; CKanturuBattleUserMng::GetUserCount
; _this$ = ecx

; 200  : {

  00630	55		 push	 ebp
  00631	8b ec		 mov	 ebp, esp
  00633	83 ec 44	 sub	 esp, 68			; 00000044H
  00636	53		 push	 ebx
  00637	56		 push	 esi
  00638	57		 push	 edi
  00639	89 4d fc	 mov	 DWORD PTR _this$[ebp], ecx

; 201  : 	return this->m_iBattleUserCount;

  0063c	8b 45 fc	 mov	 eax, DWORD PTR _this$[ebp]
  0063f	8b 80 b8 00 00
	00		 mov	 eax, DWORD PTR [eax+184]

; 202  : }

  00645	5f		 pop	 edi
  00646	5e		 pop	 esi
  00647	5b		 pop	 ebx
  00648	8b e5		 mov	 esp, ebp
  0064a	5d		 pop	 ebp
  0064b	c3		 ret	 0
?GetUserCount@CKanturuBattleUserMng@@QAEHXZ ENDP	; CKanturuBattleUserMng::GetUserCount
_TEXT	ENDS
PUBLIC	?IsEmpty@CKanturuBattleUserMng@@QAEHXZ		; CKanturuBattleUserMng::IsEmpty
; Function compile flags: /Odtp /ZI
_TEXT	SEGMENT
_this$ = -4						; size = 4
?IsEmpty@CKanturuBattleUserMng@@QAEHXZ PROC		; CKanturuBattleUserMng::IsEmpty
; _this$ = ecx

; 206  : {

  00650	55		 push	 ebp
  00651	8b ec		 mov	 ebp, esp
  00653	83 ec 44	 sub	 esp, 68			; 00000044H
  00656	53		 push	 ebx
  00657	56		 push	 esi
  00658	57		 push	 edi
  00659	89 4d fc	 mov	 DWORD PTR _this$[ebp], ecx

; 207  : 	if ( this->m_iBattleUserCount <= 0 )

  0065c	8b 45 fc	 mov	 eax, DWORD PTR _this$[ebp]
  0065f	83 b8 b8 00 00
	00 00		 cmp	 DWORD PTR [eax+184], 0
  00666	7f 07		 jg	 SHORT $LN1@IsEmpty

; 208  : 	{
; 209  : 		return TRUE;

  00668	b8 01 00 00 00	 mov	 eax, 1
  0066d	eb 02		 jmp	 SHORT $LN2@IsEmpty
$LN1@IsEmpty:

; 210  : 	}
; 211  : 
; 212  : 	return FALSE;

  0066f	33 c0		 xor	 eax, eax
$LN2@IsEmpty:

; 213  : }

  00671	5f		 pop	 edi
  00672	5e		 pop	 esi
  00673	5b		 pop	 ebx
  00674	8b e5		 mov	 esp, ebp
  00676	5d		 pop	 ebp
  00677	c3		 ret	 0
?IsEmpty@CKanturuBattleUserMng@@QAEHXZ ENDP		; CKanturuBattleUserMng::IsEmpty
; Function compile flags: /Odtp /ZI
_this$ = -4						; size = 4
?IsOverMaxUser@CKanturuBattleUserMng@@QAEHXZ PROC	; CKanturuBattleUserMng::IsOverMaxUser
; _this$ = ecx

; 217  : {

  00680	55		 push	 ebp
  00681	8b ec		 mov	 ebp, esp
  00683	83 ec 44	 sub	 esp, 68			; 00000044H
  00686	53		 push	 ebx
  00687	56		 push	 esi
  00688	57		 push	 edi
  00689	89 4d fc	 mov	 DWORD PTR _this$[ebp], ecx

; 218  : 	if ( this->m_iBattleUserCount >=  MAX_KANTURU_BATTLE_USER )

  0068c	8b 45 fc	 mov	 eax, DWORD PTR _this$[ebp]
  0068f	83 b8 b8 00 00
	00 0f		 cmp	 DWORD PTR [eax+184], 15	; 0000000fH
  00696	7c 07		 jl	 SHORT $LN1@IsOverMaxU

; 219  : 	{
; 220  : 		return TRUE;

  00698	b8 01 00 00 00	 mov	 eax, 1
  0069d	eb 02		 jmp	 SHORT $LN2@IsOverMaxU
$LN1@IsOverMaxU:

; 221  : 	}
; 222  : 
; 223  : 	return FALSE;

  0069f	33 c0		 xor	 eax, eax
$LN2@IsOverMaxU:

; 224  : }

  006a1	5f		 pop	 edi
  006a2	5e		 pop	 esi
  006a3	5b		 pop	 ebx
  006a4	8b e5		 mov	 esp, ebp
  006a6	5d		 pop	 ebp
  006a7	c3		 ret	 0
?IsOverMaxUser@CKanturuBattleUserMng@@QAEHXZ ENDP	; CKanturuBattleUserMng::IsOverMaxUser
_TEXT	ENDS
PUBLIC	??_C@_0FD@KGPMFPMP@?$FL?5KANTURU?5?$FN?$FL?5BATTLE?5WINNER?5?$FN?5?$FL?$CFd@ ; `string'
PUBLIC	__real@408f400000000000
PUBLIC	?LogBattleWinnerUserInfo@CKanturuBattleUserMng@@QAEXEH@Z ; CKanturuBattleUserMng::LogBattleWinnerUserInfo
EXTRN	__fltused:DWORD
;	COMDAT ??_C@_0FD@KGPMFPMP@?$FL?5KANTURU?5?$FN?$FL?5BATTLE?5WINNER?5?$FN?5?$FL?$CFd@
CONST	SEGMENT
??_C@_0FD@KGPMFPMP@?$FL?5KANTURU?5?$FN?$FL?5BATTLE?5WINNER?5?$FN?5?$FL?$CFd@ DB '['
	DB	' KANTURU ][ BATTLE WINNER ] [%d/ElapsedTime:%0.3f] [%s][%s] M'
	DB	'apNumber[%d]-(%d/%d)', 00H			; `string'
CONST	ENDS
;	COMDAT __real@408f400000000000
CONST	SEGMENT
__real@408f400000000000 DQ 0408f400000000000r	; 1000
; Function compile flags: /Odtp /ZI
CONST	ENDS
_TEXT	SEGMENT
_iCount$219237 = -16					; size = 4
_fTime$ = -12						; size = 4
_iIndex$ = -8						; size = 4
_this$ = -4						; size = 4
_btFlag$ = 8						; size = 1
_iElapsedTime$ = 12					; size = 4
?LogBattleWinnerUserInfo@CKanturuBattleUserMng@@QAEXEH@Z PROC ; CKanturuBattleUserMng::LogBattleWinnerUserInfo
; _this$ = ecx

; 229  : {

  006b0	55		 push	 ebp
  006b1	8b ec		 mov	 ebp, esp
  006b3	83 ec 50	 sub	 esp, 80			; 00000050H
  006b6	53		 push	 ebx
  006b7	56		 push	 esi
  006b8	57		 push	 edi
  006b9	89 4d fc	 mov	 DWORD PTR _this$[ebp], ecx

; 230  : 	int iIndex = -1;

  006bc	c7 45 f8 ff ff
	ff ff		 mov	 DWORD PTR _iIndex$[ebp], -1

; 231  : 	float fTime = iElapsedTime / 1000.0f;

  006c3	db 45 0c	 fild	 DWORD PTR _iElapsedTime$[ebp]
  006c6	dc 35 00 00 00
	00		 fdiv	 QWORD PTR __real@408f400000000000
  006cc	d9 5d f4	 fstp	 DWORD PTR _fTime$[ebp]

; 232  : 
; 233  : 	for ( int iCount=0;iCount<MAX_KANTURU_BATTLE_USER;iCount++)

  006cf	c7 45 f0 00 00
	00 00		 mov	 DWORD PTR _iCount$219237[ebp], 0
  006d6	eb 09		 jmp	 SHORT $LN4@LogBattleW
$LN3@LogBattleW:
  006d8	8b 45 f0	 mov	 eax, DWORD PTR _iCount$219237[ebp]
  006db	83 c0 01	 add	 eax, 1
  006de	89 45 f0	 mov	 DWORD PTR _iCount$219237[ebp], eax
$LN4@LogBattleW:
  006e1	83 7d f0 0f	 cmp	 DWORD PTR _iCount$219237[ebp], 15 ; 0000000fH
  006e5	0f 8d c1 00 00
	00		 jge	 $LN2@LogBattleW

; 234  : 	{
; 235  : 		if ( this->m_BattleUser[iCount].IsUseData() == TRUE )

  006eb	8b 45 f0	 mov	 eax, DWORD PTR _iCount$219237[ebp]
  006ee	6b c0 0c	 imul	 eax, 12			; 0000000cH
  006f1	8b 4d fc	 mov	 ecx, DWORD PTR _this$[ebp]
  006f4	8d 4c 01 04	 lea	 ecx, DWORD PTR [ecx+eax+4]
  006f8	e8 00 00 00 00	 call	 ?IsUseData@CKanturuBattleUser@@QAEHXZ ; CKanturuBattleUser::IsUseData
  006fd	83 f8 01	 cmp	 eax, 1
  00700	0f 85 a1 00 00
	00		 jne	 $LN1@LogBattleW

; 236  : 		{
; 237  : 			iIndex = this->m_BattleUser[iCount].GetIndex();

  00706	8b 45 f0	 mov	 eax, DWORD PTR _iCount$219237[ebp]
  00709	6b c0 0c	 imul	 eax, 12			; 0000000cH
  0070c	8b 4d fc	 mov	 ecx, DWORD PTR _this$[ebp]
  0070f	8d 4c 01 04	 lea	 ecx, DWORD PTR [ecx+eax+4]
  00713	e8 00 00 00 00	 call	 ?GetIndex@CKanturuBattleUser@@QAEHXZ ; CKanturuBattleUser::GetIndex
  00718	89 45 f8	 mov	 DWORD PTR _iIndex$[ebp], eax

; 238  : 			
; 239  : 			LogAddTD("[ KANTURU ][ BATTLE WINNER ] [%d/ElapsedTime:%0.3f] [%s][%s] MapNumber[%d]-(%d/%d)",
; 240  : 				btFlag, fTime, gObj[iIndex].AccountID, gObj[iIndex].Name,
; 241  : 				gObj[iIndex].MapNumber, gObj[iIndex].X, gObj[iIndex].Y);

  0071b	8b 45 f8	 mov	 eax, DWORD PTR _iIndex$[ebp]
  0071e	69 c0 38 2b 00
	00		 imul	 eax, 11064		; 00002b38H
  00724	8b 0d 00 00 00
	00		 mov	 ecx, DWORD PTR ?gObj@@3PAUOBJECTSTRUCT@@A ; gObj
  0072a	0f bf 94 01 46
	01 00 00	 movsx	 edx, WORD PTR [ecx+eax+326]
  00732	52		 push	 edx
  00733	8b 45 f8	 mov	 eax, DWORD PTR _iIndex$[ebp]
  00736	69 c0 38 2b 00
	00		 imul	 eax, 11064		; 00002b38H
  0073c	8b 0d 00 00 00
	00		 mov	 ecx, DWORD PTR ?gObj@@3PAUOBJECTSTRUCT@@A ; gObj
  00742	0f bf 94 01 44
	01 00 00	 movsx	 edx, WORD PTR [ecx+eax+324]
  0074a	52		 push	 edx
  0074b	8b 45 f8	 mov	 eax, DWORD PTR _iIndex$[ebp]
  0074e	69 c0 38 2b 00
	00		 imul	 eax, 11064		; 00002b38H
  00754	8b 0d 00 00 00
	00		 mov	 ecx, DWORD PTR ?gObj@@3PAUOBJECTSTRUCT@@A ; gObj
  0075a	0f b6 94 01 49
	01 00 00	 movzx	 edx, BYTE PTR [ecx+eax+329]
  00762	52		 push	 edx
  00763	8b 45 f8	 mov	 eax, DWORD PTR _iIndex$[ebp]
  00766	69 c0 38 2b 00
	00		 imul	 eax, 11064		; 00002b38H
  0076c	8b 0d 00 00 00
	00		 mov	 ecx, DWORD PTR ?gObj@@3PAUOBJECTSTRUCT@@A ; gObj
  00772	8d 54 01 77	 lea	 edx, DWORD PTR [ecx+eax+119]
  00776	52		 push	 edx
  00777	8b 45 f8	 mov	 eax, DWORD PTR _iIndex$[ebp]
  0077a	69 c0 38 2b 00
	00		 imul	 eax, 11064		; 00002b38H
  00780	8b 0d 00 00 00
	00		 mov	 ecx, DWORD PTR ?gObj@@3PAUOBJECTSTRUCT@@A ; gObj
  00786	8d 54 01 6c	 lea	 edx, DWORD PTR [ecx+eax+108]
  0078a	52		 push	 edx
  0078b	d9 45 f4	 fld	 DWORD PTR _fTime$[ebp]
  0078e	83 ec 08	 sub	 esp, 8
  00791	dd 1c 24	 fstp	 QWORD PTR [esp]
  00794	0f b6 45 08	 movzx	 eax, BYTE PTR _btFlag$[ebp]
  00798	50		 push	 eax
  00799	68 00 00 00 00	 push	 OFFSET ??_C@_0FD@KGPMFPMP@?$FL?5KANTURU?5?$FN?$FL?5BATTLE?5WINNER?5?$FN?5?$FL?$CFd@
  0079e	ff 15 00 00 00
	00		 call	 DWORD PTR ?LogAddTD@@3P6AXPADZZA ; LogAddTD
  007a4	83 c4 24	 add	 esp, 36			; 00000024H
$LN1@LogBattleW:

; 242  : 
; 243  : 			//KANTURU_UTIL.SendDataKanturuTimeAttackEvent(iIndex, btFlag, fTime);
; 244  : 		}
; 245  : 	}

  007a7	e9 2c ff ff ff	 jmp	 $LN3@LogBattleW
$LN2@LogBattleW:

; 246  : }

  007ac	5f		 pop	 edi
  007ad	5e		 pop	 esi
  007ae	5b		 pop	 ebx
  007af	8b e5		 mov	 esp, ebp
  007b1	5d		 pop	 ebp
  007b2	c2 08 00	 ret	 8
?LogBattleWinnerUserInfo@CKanturuBattleUserMng@@QAEXEH@Z ENDP ; CKanturuBattleUserMng::LogBattleWinnerUserInfo
_TEXT	ENDS
EXTRN	_atexit:PROC
; Function compile flags: /Odtp /ZI
;	COMDAT ??__Eg_KanturuBattleUserMng@@YAXXZ
text$yc	SEGMENT
??__Eg_KanturuBattleUserMng@@YAXXZ PROC			; `dynamic initializer for 'g_KanturuBattleUserMng'', COMDAT

; 11   : CKanturuBattleUserMng g_KanturuBattleUserMng;

  00000	55		 push	 ebp
  00001	8b ec		 mov	 ebp, esp
  00003	83 ec 40	 sub	 esp, 64			; 00000040H
  00006	53		 push	 ebx
  00007	56		 push	 esi
  00008	57		 push	 edi
  00009	b9 00 00 00 00	 mov	 ecx, OFFSET ?g_KanturuBattleUserMng@@3VCKanturuBattleUserMng@@A ; g_KanturuBattleUserMng
  0000e	e8 00 00 00 00	 call	 ??0CKanturuBattleUserMng@@QAE@XZ ; CKanturuBattleUserMng::CKanturuBattleUserMng
  00013	68 00 00 00 00	 push	 OFFSET ??__Fg_KanturuBattleUserMng@@YAXXZ ; `dynamic atexit destructor for 'g_KanturuBattleUserMng''
  00018	e8 00 00 00 00	 call	 _atexit
  0001d	83 c4 04	 add	 esp, 4
  00020	5f		 pop	 edi
  00021	5e		 pop	 esi
  00022	5b		 pop	 ebx
  00023	8b e5		 mov	 esp, ebp
  00025	5d		 pop	 ebp
  00026	c3		 ret	 0
??__Eg_KanturuBattleUserMng@@YAXXZ ENDP			; `dynamic initializer for 'g_KanturuBattleUserMng''
text$yc	ENDS
EXTRN	??0CKanturuUtil@@QAE@XZ:PROC			; CKanturuUtil::CKanturuUtil
; Function compile flags: /Odtp /ZI
;	COMDAT ??__EKANTURU_UTIL@@YAXXZ
text$yc	SEGMENT
??__EKANTURU_UTIL@@YAXXZ PROC				; `dynamic initializer for 'KANTURU_UTIL'', COMDAT

; 12   : static CKanturuUtil KANTURU_UTIL;

  00000	55		 push	 ebp
  00001	8b ec		 mov	 ebp, esp
  00003	83 ec 40	 sub	 esp, 64			; 00000040H
  00006	53		 push	 ebx
  00007	56		 push	 esi
  00008	57		 push	 edi
  00009	b9 00 00 00 00	 mov	 ecx, OFFSET _KANTURU_UTIL
  0000e	e8 00 00 00 00	 call	 ??0CKanturuUtil@@QAE@XZ	; CKanturuUtil::CKanturuUtil
  00013	68 00 00 00 00	 push	 OFFSET ??__FKANTURU_UTIL@@YAXXZ ; `dynamic atexit destructor for 'KANTURU_UTIL''
  00018	e8 00 00 00 00	 call	 _atexit
  0001d	83 c4 04	 add	 esp, 4
  00020	5f		 pop	 edi
  00021	5e		 pop	 esi
  00022	5b		 pop	 ebx
  00023	8b e5		 mov	 esp, ebp
  00025	5d		 pop	 ebp
  00026	c3		 ret	 0
??__EKANTURU_UTIL@@YAXXZ ENDP				; `dynamic initializer for 'KANTURU_UTIL''
; Function compile flags: /Odtp /ZI
text$yc	ENDS
;	COMDAT ??__Fg_KanturuBattleUserMng@@YAXXZ
text$yd	SEGMENT
??__Fg_KanturuBattleUserMng@@YAXXZ PROC			; `dynamic atexit destructor for 'g_KanturuBattleUserMng'', COMDAT
  00000	55		 push	 ebp
  00001	8b ec		 mov	 ebp, esp
  00003	83 ec 40	 sub	 esp, 64			; 00000040H
  00006	53		 push	 ebx
  00007	56		 push	 esi
  00008	57		 push	 edi
  00009	b9 00 00 00 00	 mov	 ecx, OFFSET ?g_KanturuBattleUserMng@@3VCKanturuBattleUserMng@@A ; g_KanturuBattleUserMng
  0000e	e8 00 00 00 00	 call	 ??1CKanturuBattleUserMng@@UAE@XZ ; CKanturuBattleUserMng::~CKanturuBattleUserMng
  00013	5f		 pop	 edi
  00014	5e		 pop	 esi
  00015	5b		 pop	 ebx
  00016	8b e5		 mov	 esp, ebp
  00018	5d		 pop	 ebp
  00019	c3		 ret	 0
??__Fg_KanturuBattleUserMng@@YAXXZ ENDP			; `dynamic atexit destructor for 'g_KanturuBattleUserMng''
text$yd	ENDS
EXTRN	??1CKanturuUtil@@UAE@XZ:PROC			; CKanturuUtil::~CKanturuUtil
; Function compile flags: /Odtp /ZI
;	COMDAT ??__FKANTURU_UTIL@@YAXXZ
text$yd	SEGMENT
??__FKANTURU_UTIL@@YAXXZ PROC				; `dynamic atexit destructor for 'KANTURU_UTIL'', COMDAT
  00000	55		 push	 ebp
  00001	8b ec		 mov	 ebp, esp
  00003	83 ec 40	 sub	 esp, 64			; 00000040H
  00006	53		 push	 ebx
  00007	56		 push	 esi
  00008	57		 push	 edi
  00009	b9 00 00 00 00	 mov	 ecx, OFFSET _KANTURU_UTIL
  0000e	e8 00 00 00 00	 call	 ??1CKanturuUtil@@UAE@XZ	; CKanturuUtil::~CKanturuUtil
  00013	5f		 pop	 edi
  00014	5e		 pop	 esi
  00015	5b		 pop	 ebx
  00016	8b e5		 mov	 esp, ebp
  00018	5d		 pop	 ebp
  00019	c3		 ret	 0
??__FKANTURU_UTIL@@YAXXZ ENDP				; `dynamic atexit destructor for 'KANTURU_UTIL''
text$yd	ENDS
PUBLIC	?g_KanturuBattleUserMng@@3VCKanturuBattleUserMng@@A ; g_KanturuBattleUserMng
_BSS	SEGMENT
_KANTURU_UTIL DD 01H DUP (?)
?g_KanturuBattleUserMng@@3VCKanturuBattleUserMng@@A DB 0c0H DUP (?) ; g_KanturuBattleUserMng
_BSS	ENDS
CRT$XCU	SEGMENT
_g_KanturuBattleUserMng$initializer$ DD FLAT:??__Eg_KanturuBattleUserMng@@YAXXZ
_KANTURU_UTIL$initializer$ DD FLAT:??__EKANTURU_UTIL@@YAXXZ
CRT$XCU	ENDS
END
