; Listing generated by Microsoft (R) Optimizing Compiler Version 16.00.40219.01 

	TITLE	D:\Projects\ExTeam6.3\Source\GameServer\GameServer\Kanturu.cpp
	.686P
	.XMM
	include listing.inc
	.model	flat

INCLUDELIB LIBCMT
INCLUDELIB OLDNAMES

_DATA	SEGMENT
_g_iNpcUpDfLevel_CGATE DD 01H
	DD	02H
	DD	02dc6c0H
	DD	02H
	DD	03H
	DD	02dc6c0H
	DD	03H
	DD	04H
	DD	02dc6c0H
_g_iNpcUpDfLevel_CSTATUE DD 01H
	DD	03H
	DD	02dc6c0H
	DD	02H
	DD	05H
	DD	02dc6c0H
	DD	03H
	DD	07H
	DD	02dc6c0H
_g_iNpcUpMaxHP_CGATE DD 02625a0H
	DD	02H
	DD	0f4240H
	DD	03567e0H
	DD	03H
	DD	0f4240H
	DD	04f5880H
	DD	04H
	DD	0f4240H
_g_iNpcUpMaxHP_CSTATUE DD 02191c0H
	DD	03H
	DD	0f4240H
	DD	033e140H
	DD	05H
	DD	0f4240H
	DD	04c4b40H
	DD	07H
	DD	0f4240H
_g_iNpcUpRgLevel_CSTATUE DD 01H
	DD	03H
	DD	04c4b40H
	DD	02H
	DD	05H
	DD	04c4b40H
	DD	03H
	DD	07H
	DD	04c4b40H
_g_iCsUserReSpawnArea DD 023H
	DD	011H
	DD	090H
	DD	030H
	DD	04aH
	DD	090H
	DD	073H
	DD	09aH
	DD	023H
	DD	011H
	DD	090H
	DD	030H
_g_iNpcDefense_CGATE DD 064H
	DD	0b4H
	DD	012cH
	DD	0208H
_g_iNpcDefense_CSTATUE DD 050H
	DD	0b4H
	DD	0154H
	DD	0226H
_g_iCastleWallStepAxisY DD 071H
	DD	0a0H
	DD	0cbH
_DATA	ENDS
PUBLIC	??_H@YGXPAXIHP6EPAX0@Z@Z			; `vector constructor iterator'
; Function compile flags: /Odtp /ZI
;	COMDAT ??_H@YGXPAXIHP6EPAX0@Z@Z
_TEXT	SEGMENT
___t$ = 8						; size = 4
___s$ = 12						; size = 4
___n$ = 16						; size = 4
___f$ = 20						; size = 4
??_H@YGXPAXIHP6EPAX0@Z@Z PROC				; `vector constructor iterator', COMDAT
  00000	55		 push	 ebp
  00001	8b ec		 mov	 ebp, esp
  00003	83 ec 40	 sub	 esp, 64			; 00000040H
  00006	53		 push	 ebx
  00007	56		 push	 esi
  00008	57		 push	 edi
$LN2@vector:
  00009	8b 45 10	 mov	 eax, DWORD PTR ___n$[ebp]
  0000c	83 e8 01	 sub	 eax, 1
  0000f	89 45 10	 mov	 DWORD PTR ___n$[ebp], eax
  00012	78 11		 js	 SHORT $LN3@vector
  00014	8b 4d 08	 mov	 ecx, DWORD PTR ___t$[ebp]
  00017	ff 55 14	 call	 DWORD PTR ___f$[ebp]
  0001a	8b 45 08	 mov	 eax, DWORD PTR ___t$[ebp]
  0001d	03 45 0c	 add	 eax, DWORD PTR ___s$[ebp]
  00020	89 45 08	 mov	 DWORD PTR ___t$[ebp], eax
  00023	eb e4		 jmp	 SHORT $LN2@vector
$LN3@vector:
  00025	5f		 pop	 edi
  00026	5e		 pop	 esi
  00027	5b		 pop	 ebx
  00028	8b e5		 mov	 esp, ebp
  0002a	5d		 pop	 ebp
  0002b	c2 10 00	 ret	 16			; 00000010H
??_H@YGXPAXIHP6EPAX0@Z@Z ENDP				; `vector constructor iterator'
_TEXT	ENDS
PUBLIC	??_7CKanturu@@6B@				; CKanturu::`vftable'
PUBLIC	??0CKanturu@@QAE@XZ				; CKanturu::CKanturu
PUBLIC	??_R4CKanturu@@6B@				; CKanturu::`RTTI Complete Object Locator'
PUBLIC	??_R0?AVCKanturu@@@8				; CKanturu `RTTI Type Descriptor'
PUBLIC	??_R3CKanturu@@8				; CKanturu::`RTTI Class Hierarchy Descriptor'
PUBLIC	??_R2CKanturu@@8				; CKanturu::`RTTI Base Class Array'
PUBLIC	??_R1A@?0A@EA@CKanturu@@8			; CKanturu::`RTTI Base Class Descriptor at (0,-1,0,64)'
EXTRN	??1CKanturuTowerOfRefinement@@UAE@XZ:PROC	; CKanturuTowerOfRefinement::~CKanturuTowerOfRefinement
EXTRN	??1CKanturuBattleOfNightmare@@UAE@XZ:PROC	; CKanturuBattleOfNightmare::~CKanturuBattleOfNightmare
EXTRN	??1CKanturuBattleOfMaya@@UAE@XZ:PROC		; CKanturuBattleOfMaya::~CKanturuBattleOfMaya
EXTRN	??1CKanturuBattleStanby@@UAE@XZ:PROC		; CKanturuBattleStanby::~CKanturuBattleStanby
EXTRN	??_M@YGXPAXIHP6EX0@Z@Z:PROC			; `eh vector destructor iterator'
EXTRN	??0MapClass@@QAE@XZ:PROC			; MapClass::MapClass
EXTRN	??1MapClass@@UAE@XZ:PROC			; MapClass::~MapClass
EXTRN	??0CKanturuTowerOfRefinement@@QAE@XZ:PROC	; CKanturuTowerOfRefinement::CKanturuTowerOfRefinement
EXTRN	??0CKanturuBattleOfNightmare@@QAE@XZ:PROC	; CKanturuBattleOfNightmare::CKanturuBattleOfNightmare
EXTRN	??0CKanturuBattleOfMaya@@QAE@XZ:PROC		; CKanturuBattleOfMaya::CKanturuBattleOfMaya
EXTRN	??0CKanturuBattleStanby@@QAE@XZ:PROC		; CKanturuBattleStanby::CKanturuBattleStanby
EXTRN	??_L@YGXPAXIHP6EX0@Z1@Z:PROC			; `eh vector constructor iterator'
EXTRN	??0CKanturuStateInfo@@QAE@XZ:PROC		; CKanturuStateInfo::CKanturuStateInfo
EXTRN	??1CKanturuStateInfo@@UAE@XZ:PROC		; CKanturuStateInfo::~CKanturuStateInfo
EXTRN	___security_cookie:DWORD
EXTRN	___CxxFrameHandler3:PROC
EXTRN	@__security_check_cookie@4:PROC
EXTRN	??_7type_info@@6B@:QWORD			; type_info::`vftable'
EXTRN	??_ECKanturu@@UAEPAXI@Z:PROC			; CKanturu::`vector deleting destructor'
;	COMDAT ??_R1A@?0A@EA@CKanturu@@8
; File d:\projects\exteam6.3\source\gameserver\gameserver\kanturu.cpp
rdata$r	SEGMENT
??_R1A@?0A@EA@CKanturu@@8 DD FLAT:??_R0?AVCKanturu@@@8	; CKanturu::`RTTI Base Class Descriptor at (0,-1,0,64)'
	DD	00H
	DD	00H
	DD	0ffffffffH
	DD	00H
	DD	040H
	DD	FLAT:??_R3CKanturu@@8
rdata$r	ENDS
;	COMDAT ??_R2CKanturu@@8
rdata$r	SEGMENT
??_R2CKanturu@@8 DD FLAT:??_R1A@?0A@EA@CKanturu@@8	; CKanturu::`RTTI Base Class Array'
rdata$r	ENDS
;	COMDAT ??_R3CKanturu@@8
rdata$r	SEGMENT
??_R3CKanturu@@8 DD 00H					; CKanturu::`RTTI Class Hierarchy Descriptor'
	DD	00H
	DD	01H
	DD	FLAT:??_R2CKanturu@@8
rdata$r	ENDS
;	COMDAT ??_R0?AVCKanturu@@@8
_DATA	SEGMENT
??_R0?AVCKanturu@@@8 DD FLAT:??_7type_info@@6B@		; CKanturu `RTTI Type Descriptor'
	DD	00H
	DB	'.?AVCKanturu@@', 00H
_DATA	ENDS
;	COMDAT ??_R4CKanturu@@6B@
rdata$r	SEGMENT
??_R4CKanturu@@6B@ DD 00H				; CKanturu::`RTTI Complete Object Locator'
	DD	00H
	DD	00H
	DD	FLAT:??_R0?AVCKanturu@@@8
	DD	FLAT:??_R3CKanturu@@8
rdata$r	ENDS
;	COMDAT ??_7CKanturu@@6B@
CONST	SEGMENT
??_7CKanturu@@6B@ DD FLAT:??_R4CKanturu@@6B@		; CKanturu::`vftable'
	DD	FLAT:??_ECKanturu@@UAEPAXI@Z
CONST	ENDS
xdata$x	SEGMENT
__ehfuncinfo$??0CKanturu@@QAE@XZ DD 019930522H
	DD	05H
	DD	FLAT:__unwindtable$??0CKanturu@@QAE@XZ
	DD	2 DUP(00H)
	DD	2 DUP(00H)
	DD	00H
	DD	01H
__unwindtable$??0CKanturu@@QAE@XZ DD 0ffffffffH
	DD	FLAT:__unwindfunclet$??0CKanturu@@QAE@XZ$0
	DD	00H
	DD	FLAT:__unwindfunclet$??0CKanturu@@QAE@XZ$1
	DD	01H
	DD	FLAT:__unwindfunclet$??0CKanturu@@QAE@XZ$2
	DD	02H
	DD	FLAT:__unwindfunclet$??0CKanturu@@QAE@XZ$3
	DD	03H
	DD	FLAT:__unwindfunclet$??0CKanturu@@QAE@XZ$4
; Function compile flags: /Odtp /ZI
xdata$x	ENDS
_TEXT	SEGMENT
_this$ = -16						; size = 4
__$EHRec$ = -12						; size = 12
??0CKanturu@@QAE@XZ PROC				; CKanturu::CKanturu
; _this$ = ecx

; 21   : {

  00000	55		 push	 ebp
  00001	8b ec		 mov	 ebp, esp
  00003	6a ff		 push	 -1
  00005	68 00 00 00 00	 push	 __ehhandler$??0CKanturu@@QAE@XZ
  0000a	64 a1 00 00 00
	00		 mov	 eax, DWORD PTR fs:0
  00010	50		 push	 eax
  00011	83 ec 44	 sub	 esp, 68			; 00000044H
  00014	53		 push	 ebx
  00015	56		 push	 esi
  00016	57		 push	 edi
  00017	a1 00 00 00 00	 mov	 eax, DWORD PTR ___security_cookie
  0001c	33 c5		 xor	 eax, ebp
  0001e	50		 push	 eax
  0001f	8d 45 f4	 lea	 eax, DWORD PTR __$EHRec$[ebp]
  00022	64 a3 00 00 00
	00		 mov	 DWORD PTR fs:0, eax
  00028	89 4d f0	 mov	 DWORD PTR _this$[ebp], ecx
  0002b	8b 45 f0	 mov	 eax, DWORD PTR _this$[ebp]
  0002e	c7 00 00 00 00
	00		 mov	 DWORD PTR [eax], OFFSET ??_7CKanturu@@6B@
  00034	68 00 00 00 00	 push	 OFFSET ??1CKanturuStateInfo@@UAE@XZ ; CKanturuStateInfo::~CKanturuStateInfo
  00039	68 00 00 00 00	 push	 OFFSET ??0CKanturuStateInfo@@QAE@XZ ; CKanturuStateInfo::CKanturuStateInfo
  0003e	6a 06		 push	 6
  00040	6a 14		 push	 20			; 00000014H
  00042	8b 45 f0	 mov	 eax, DWORD PTR _this$[ebp]
  00045	83 c0 14	 add	 eax, 20			; 00000014H
  00048	50		 push	 eax
  00049	e8 00 00 00 00	 call	 ??_L@YGXPAXIHP6EX0@Z1@Z
  0004e	c7 45 fc 00 00
	00 00		 mov	 DWORD PTR __$EHRec$[ebp+8], 0
  00055	8b 4d f0	 mov	 ecx, DWORD PTR _this$[ebp]
  00058	81 c1 90 00 00
	00		 add	 ecx, 144		; 00000090H
  0005e	e8 00 00 00 00	 call	 ??0CKanturuBattleStanby@@QAE@XZ ; CKanturuBattleStanby::CKanturuBattleStanby
  00063	c6 45 fc 01	 mov	 BYTE PTR __$EHRec$[ebp+8], 1
  00067	8b 4d f0	 mov	 ecx, DWORD PTR _this$[ebp]
  0006a	81 c1 f4 00 00
	00		 add	 ecx, 244		; 000000f4H
  00070	e8 00 00 00 00	 call	 ??0CKanturuBattleOfMaya@@QAE@XZ ; CKanturuBattleOfMaya::CKanturuBattleOfMaya
  00075	c6 45 fc 02	 mov	 BYTE PTR __$EHRec$[ebp+8], 2
  00079	8b 4d f0	 mov	 ecx, DWORD PTR _this$[ebp]
  0007c	81 c1 20 03 00
	00		 add	 ecx, 800		; 00000320H
  00082	e8 00 00 00 00	 call	 ??0CKanturuBattleOfNightmare@@QAE@XZ ; CKanturuBattleOfNightmare::CKanturuBattleOfNightmare
  00087	c6 45 fc 03	 mov	 BYTE PTR __$EHRec$[ebp+8], 3
  0008b	8b 4d f0	 mov	 ecx, DWORD PTR _this$[ebp]
  0008e	81 c1 b4 03 00
	00		 add	 ecx, 948		; 000003b4H
  00094	e8 00 00 00 00	 call	 ??0CKanturuTowerOfRefinement@@QAE@XZ ; CKanturuTowerOfRefinement::CKanturuTowerOfRefinement
  00099	c6 45 fc 04	 mov	 BYTE PTR __$EHRec$[ebp+8], 4
  0009d	68 00 00 00 00	 push	 OFFSET ??1MapClass@@UAE@XZ ; MapClass::~MapClass
  000a2	68 00 00 00 00	 push	 OFFSET ??0MapClass@@QAE@XZ ; MapClass::MapClass
  000a7	6a 02		 push	 2
  000a9	68 b8 3d 05 00	 push	 343480			; 00053db8H
  000ae	8b 45 f0	 mov	 eax, DWORD PTR _this$[ebp]
  000b1	05 44 04 00 00	 add	 eax, 1092		; 00000444H
  000b6	50		 push	 eax
  000b7	e8 00 00 00 00	 call	 ??_L@YGXPAXIHP6EX0@Z1@Z

; 22   : 	this->m_bKanturuEnable = FALSE;

  000bc	8b 45 f0	 mov	 eax, DWORD PTR _this$[ebp]
  000bf	c7 40 04 00 00
	00 00		 mov	 DWORD PTR [eax+4], 0

; 23   : 	this->m_iKanturuState = 0;

  000c6	8b 45 f0	 mov	 eax, DWORD PTR _this$[ebp]
  000c9	c7 40 08 00 00
	00 00		 mov	 DWORD PTR [eax+8], 0

; 24   : 	this->m_StateInfoCount = 0;

  000d0	8b 45 f0	 mov	 eax, DWORD PTR _this$[ebp]
  000d3	c7 80 8c 00 00
	00 00 00 00 00	 mov	 DWORD PTR [eax+140], 0

; 25   : 	this->m_bFileDataLoad = FALSE;

  000dd	8b 45 f0	 mov	 eax, DWORD PTR _this$[ebp]
  000e0	c7 40 10 00 00
	00 00		 mov	 DWORD PTR [eax+16], 0

; 26   : 	this->m_bEnableCheckMoonStone = FALSE;

  000e7	8b 45 f0	 mov	 eax, DWORD PTR _this$[ebp]
  000ea	c7 80 b4 7f 0a
	00 00 00 00 00	 mov	 DWORD PTR [eax+688052], 0

; 27   : 	//this->m_iKanturuBattleCounter = 0;
; 28   : 	//this->m_iKanturuBattleDate = 0;
; 29   : }

  000f4	c7 45 fc ff ff
	ff ff		 mov	 DWORD PTR __$EHRec$[ebp+8], -1
  000fb	8b 45 f0	 mov	 eax, DWORD PTR _this$[ebp]
  000fe	8b 4d f4	 mov	 ecx, DWORD PTR __$EHRec$[ebp]
  00101	64 89 0d 00 00
	00 00		 mov	 DWORD PTR fs:0, ecx
  00108	59		 pop	 ecx
  00109	5f		 pop	 edi
  0010a	5e		 pop	 esi
  0010b	5b		 pop	 ebx
  0010c	8b e5		 mov	 esp, ebp
  0010e	5d		 pop	 ebp
  0010f	c3		 ret	 0
_TEXT	ENDS
text$x	SEGMENT
__unwindfunclet$??0CKanturu@@QAE@XZ$0:
  00000	68 00 00 00 00	 push	 OFFSET ??1CKanturuStateInfo@@UAE@XZ ; CKanturuStateInfo::~CKanturuStateInfo
  00005	6a 06		 push	 6
  00007	6a 14		 push	 20			; 00000014H
  00009	8b 45 f0	 mov	 eax, DWORD PTR _this$[ebp]
  0000c	83 c0 14	 add	 eax, 20			; 00000014H
  0000f	50		 push	 eax
  00010	e8 00 00 00 00	 call	 ??_M@YGXPAXIHP6EX0@Z@Z
  00015	c3		 ret	 0
__unwindfunclet$??0CKanturu@@QAE@XZ$1:
  00016	8b 4d f0	 mov	 ecx, DWORD PTR _this$[ebp]
  00019	81 c1 90 00 00
	00		 add	 ecx, 144		; 00000090H
  0001f	e9 00 00 00 00	 jmp	 ??1CKanturuBattleStanby@@UAE@XZ ; CKanturuBattleStanby::~CKanturuBattleStanby
__unwindfunclet$??0CKanturu@@QAE@XZ$2:
  00024	8b 4d f0	 mov	 ecx, DWORD PTR _this$[ebp]
  00027	81 c1 f4 00 00
	00		 add	 ecx, 244		; 000000f4H
  0002d	e9 00 00 00 00	 jmp	 ??1CKanturuBattleOfMaya@@UAE@XZ ; CKanturuBattleOfMaya::~CKanturuBattleOfMaya
__unwindfunclet$??0CKanturu@@QAE@XZ$3:
  00032	8b 4d f0	 mov	 ecx, DWORD PTR _this$[ebp]
  00035	81 c1 20 03 00
	00		 add	 ecx, 800		; 00000320H
  0003b	e9 00 00 00 00	 jmp	 ??1CKanturuBattleOfNightmare@@UAE@XZ ; CKanturuBattleOfNightmare::~CKanturuBattleOfNightmare
__unwindfunclet$??0CKanturu@@QAE@XZ$4:
  00040	8b 4d f0	 mov	 ecx, DWORD PTR _this$[ebp]
  00043	81 c1 b4 03 00
	00		 add	 ecx, 948		; 000003b4H
  00049	e9 00 00 00 00	 jmp	 ??1CKanturuTowerOfRefinement@@UAE@XZ ; CKanturuTowerOfRefinement::~CKanturuTowerOfRefinement
__ehhandler$??0CKanturu@@QAE@XZ:
  0004e	8b 54 24 08	 mov	 edx, DWORD PTR [esp+8]
  00052	8d 42 0c	 lea	 eax, DWORD PTR [edx+12]
  00055	8b 4a ac	 mov	 ecx, DWORD PTR [edx-84]
  00058	33 c8		 xor	 ecx, eax
  0005a	e8 00 00 00 00	 call	 @__security_check_cookie@4
  0005f	b8 00 00 00 00	 mov	 eax, OFFSET __ehfuncinfo$??0CKanturu@@QAE@XZ
  00064	e9 00 00 00 00	 jmp	 ___CxxFrameHandler3
text$x	ENDS
??0CKanturu@@QAE@XZ ENDP				; CKanturu::CKanturu
PUBLIC	??1CKanturu@@UAE@XZ				; CKanturu::~CKanturu
EXTRN	??3@YAXPAX@Z:PROC				; operator delete
; Function compile flags: /Odtp /ZI
;	COMDAT ??_GCKanturu@@UAEPAXI@Z
_TEXT	SEGMENT
_this$ = -4						; size = 4
___flags$ = 8						; size = 4
??_GCKanturu@@UAEPAXI@Z PROC				; CKanturu::`scalar deleting destructor', COMDAT
; _this$ = ecx
  00000	55		 push	 ebp
  00001	8b ec		 mov	 ebp, esp
  00003	83 ec 44	 sub	 esp, 68			; 00000044H
  00006	53		 push	 ebx
  00007	56		 push	 esi
  00008	57		 push	 edi
  00009	89 4d fc	 mov	 DWORD PTR _this$[ebp], ecx
  0000c	8b 4d fc	 mov	 ecx, DWORD PTR _this$[ebp]
  0000f	e8 00 00 00 00	 call	 ??1CKanturu@@UAE@XZ	; CKanturu::~CKanturu
  00014	8b 45 08	 mov	 eax, DWORD PTR ___flags$[ebp]
  00017	83 e0 01	 and	 eax, 1
  0001a	74 0c		 je	 SHORT $LN1@scalar
  0001c	8b 45 fc	 mov	 eax, DWORD PTR _this$[ebp]
  0001f	50		 push	 eax
  00020	e8 00 00 00 00	 call	 ??3@YAXPAX@Z		; operator delete
  00025	83 c4 04	 add	 esp, 4
$LN1@scalar:
  00028	8b 45 fc	 mov	 eax, DWORD PTR _this$[ebp]
  0002b	5f		 pop	 edi
  0002c	5e		 pop	 esi
  0002d	5b		 pop	 ebx
  0002e	8b e5		 mov	 esp, ebp
  00030	5d		 pop	 ebp
  00031	c2 04 00	 ret	 4
??_GCKanturu@@UAEPAXI@Z ENDP				; CKanturu::`scalar deleting destructor'
_TEXT	ENDS
xdata$x	SEGMENT
__ehfuncinfo$??1CKanturu@@UAE@XZ DD 019930522H
	DD	05H
	DD	FLAT:__unwindtable$??1CKanturu@@UAE@XZ
	DD	2 DUP(00H)
	DD	2 DUP(00H)
	DD	00H
	DD	01H
__unwindtable$??1CKanturu@@UAE@XZ DD 0ffffffffH
	DD	FLAT:__unwindfunclet$??1CKanturu@@UAE@XZ$0
	DD	00H
	DD	FLAT:__unwindfunclet$??1CKanturu@@UAE@XZ$1
	DD	01H
	DD	FLAT:__unwindfunclet$??1CKanturu@@UAE@XZ$2
	DD	02H
	DD	FLAT:__unwindfunclet$??1CKanturu@@UAE@XZ$3
	DD	03H
	DD	FLAT:__unwindfunclet$??1CKanturu@@UAE@XZ$4
; Function compile flags: /Odtp /ZI
xdata$x	ENDS
_TEXT	SEGMENT
_this$ = -16						; size = 4
__$EHRec$ = -12						; size = 12
??1CKanturu@@UAE@XZ PROC				; CKanturu::~CKanturu
; _this$ = ecx

; 32   : {

  00110	55		 push	 ebp
  00111	8b ec		 mov	 ebp, esp
  00113	6a ff		 push	 -1
  00115	68 00 00 00 00	 push	 __ehhandler$??1CKanturu@@UAE@XZ
  0011a	64 a1 00 00 00
	00		 mov	 eax, DWORD PTR fs:0
  00120	50		 push	 eax
  00121	83 ec 44	 sub	 esp, 68			; 00000044H
  00124	53		 push	 ebx
  00125	56		 push	 esi
  00126	57		 push	 edi
  00127	a1 00 00 00 00	 mov	 eax, DWORD PTR ___security_cookie
  0012c	33 c5		 xor	 eax, ebp
  0012e	50		 push	 eax
  0012f	8d 45 f4	 lea	 eax, DWORD PTR __$EHRec$[ebp]
  00132	64 a3 00 00 00
	00		 mov	 DWORD PTR fs:0, eax
  00138	89 4d f0	 mov	 DWORD PTR _this$[ebp], ecx
  0013b	8b 45 f0	 mov	 eax, DWORD PTR _this$[ebp]
  0013e	c7 00 00 00 00
	00		 mov	 DWORD PTR [eax], OFFSET ??_7CKanturu@@6B@
  00144	c7 45 fc 04 00
	00 00		 mov	 DWORD PTR __$EHRec$[ebp+8], 4

; 33   : 	return;
; 34   : }

  0014b	68 00 00 00 00	 push	 OFFSET ??1MapClass@@UAE@XZ ; MapClass::~MapClass
  00150	6a 02		 push	 2
  00152	68 b8 3d 05 00	 push	 343480			; 00053db8H
  00157	8b 45 f0	 mov	 eax, DWORD PTR _this$[ebp]
  0015a	05 44 04 00 00	 add	 eax, 1092		; 00000444H
  0015f	50		 push	 eax
  00160	e8 00 00 00 00	 call	 ??_M@YGXPAXIHP6EX0@Z@Z
  00165	c6 45 fc 03	 mov	 BYTE PTR __$EHRec$[ebp+8], 3
  00169	8b 4d f0	 mov	 ecx, DWORD PTR _this$[ebp]
  0016c	81 c1 b4 03 00
	00		 add	 ecx, 948		; 000003b4H
  00172	e8 00 00 00 00	 call	 ??1CKanturuTowerOfRefinement@@UAE@XZ ; CKanturuTowerOfRefinement::~CKanturuTowerOfRefinement
  00177	c6 45 fc 02	 mov	 BYTE PTR __$EHRec$[ebp+8], 2
  0017b	8b 4d f0	 mov	 ecx, DWORD PTR _this$[ebp]
  0017e	81 c1 20 03 00
	00		 add	 ecx, 800		; 00000320H
  00184	e8 00 00 00 00	 call	 ??1CKanturuBattleOfNightmare@@UAE@XZ ; CKanturuBattleOfNightmare::~CKanturuBattleOfNightmare
  00189	c6 45 fc 01	 mov	 BYTE PTR __$EHRec$[ebp+8], 1
  0018d	8b 4d f0	 mov	 ecx, DWORD PTR _this$[ebp]
  00190	81 c1 f4 00 00
	00		 add	 ecx, 244		; 000000f4H
  00196	e8 00 00 00 00	 call	 ??1CKanturuBattleOfMaya@@UAE@XZ ; CKanturuBattleOfMaya::~CKanturuBattleOfMaya
  0019b	c6 45 fc 00	 mov	 BYTE PTR __$EHRec$[ebp+8], 0
  0019f	8b 4d f0	 mov	 ecx, DWORD PTR _this$[ebp]
  001a2	81 c1 90 00 00
	00		 add	 ecx, 144		; 00000090H
  001a8	e8 00 00 00 00	 call	 ??1CKanturuBattleStanby@@UAE@XZ ; CKanturuBattleStanby::~CKanturuBattleStanby
  001ad	c7 45 fc ff ff
	ff ff		 mov	 DWORD PTR __$EHRec$[ebp+8], -1
  001b4	68 00 00 00 00	 push	 OFFSET ??1CKanturuStateInfo@@UAE@XZ ; CKanturuStateInfo::~CKanturuStateInfo
  001b9	6a 06		 push	 6
  001bb	6a 14		 push	 20			; 00000014H
  001bd	8b 4d f0	 mov	 ecx, DWORD PTR _this$[ebp]
  001c0	83 c1 14	 add	 ecx, 20			; 00000014H
  001c3	51		 push	 ecx
  001c4	e8 00 00 00 00	 call	 ??_M@YGXPAXIHP6EX0@Z@Z
  001c9	8b 4d f4	 mov	 ecx, DWORD PTR __$EHRec$[ebp]
  001cc	64 89 0d 00 00
	00 00		 mov	 DWORD PTR fs:0, ecx
  001d3	59		 pop	 ecx
  001d4	5f		 pop	 edi
  001d5	5e		 pop	 esi
  001d6	5b		 pop	 ebx
  001d7	8b e5		 mov	 esp, ebp
  001d9	5d		 pop	 ebp
  001da	c3		 ret	 0
_TEXT	ENDS
text$x	SEGMENT
__unwindfunclet$??1CKanturu@@UAE@XZ$0:
  00069	68 00 00 00 00	 push	 OFFSET ??1CKanturuStateInfo@@UAE@XZ ; CKanturuStateInfo::~CKanturuStateInfo
  0006e	6a 06		 push	 6
  00070	6a 14		 push	 20			; 00000014H
  00072	8b 45 f0	 mov	 eax, DWORD PTR _this$[ebp]
  00075	83 c0 14	 add	 eax, 20			; 00000014H
  00078	50		 push	 eax
  00079	e8 00 00 00 00	 call	 ??_M@YGXPAXIHP6EX0@Z@Z
  0007e	c3		 ret	 0
__unwindfunclet$??1CKanturu@@UAE@XZ$1:
  0007f	8b 4d f0	 mov	 ecx, DWORD PTR _this$[ebp]
  00082	81 c1 90 00 00
	00		 add	 ecx, 144		; 00000090H
  00088	e9 00 00 00 00	 jmp	 ??1CKanturuBattleStanby@@UAE@XZ ; CKanturuBattleStanby::~CKanturuBattleStanby
__unwindfunclet$??1CKanturu@@UAE@XZ$2:
  0008d	8b 4d f0	 mov	 ecx, DWORD PTR _this$[ebp]
  00090	81 c1 f4 00 00
	00		 add	 ecx, 244		; 000000f4H
  00096	e9 00 00 00 00	 jmp	 ??1CKanturuBattleOfMaya@@UAE@XZ ; CKanturuBattleOfMaya::~CKanturuBattleOfMaya
__unwindfunclet$??1CKanturu@@UAE@XZ$3:
  0009b	8b 4d f0	 mov	 ecx, DWORD PTR _this$[ebp]
  0009e	81 c1 20 03 00
	00		 add	 ecx, 800		; 00000320H
  000a4	e9 00 00 00 00	 jmp	 ??1CKanturuBattleOfNightmare@@UAE@XZ ; CKanturuBattleOfNightmare::~CKanturuBattleOfNightmare
__unwindfunclet$??1CKanturu@@UAE@XZ$4:
  000a9	8b 4d f0	 mov	 ecx, DWORD PTR _this$[ebp]
  000ac	81 c1 b4 03 00
	00		 add	 ecx, 948		; 000003b4H
  000b2	e9 00 00 00 00	 jmp	 ??1CKanturuTowerOfRefinement@@UAE@XZ ; CKanturuTowerOfRefinement::~CKanturuTowerOfRefinement
__ehhandler$??1CKanturu@@UAE@XZ:
  000b7	8b 54 24 08	 mov	 edx, DWORD PTR [esp+8]
  000bb	8d 42 0c	 lea	 eax, DWORD PTR [edx+12]
  000be	8b 4a ac	 mov	 ecx, DWORD PTR [edx-84]
  000c1	33 c8		 xor	 ecx, eax
  000c3	e8 00 00 00 00	 call	 @__security_check_cookie@4
  000c8	b8 00 00 00 00	 mov	 eax, OFFSET __ehfuncinfo$??1CKanturu@@UAE@XZ
  000cd	e9 00 00 00 00	 jmp	 ___CxxFrameHandler3
text$x	ENDS
??1CKanturu@@UAE@XZ ENDP				; CKanturu::~CKanturu
PUBLIC	?ResetTimeInfo@CKanturuStateInfo@@QAEXXZ	; CKanturuStateInfo::ResetTimeInfo
PUBLIC	?ResetAllData@CKanturu@@QAEXXZ			; CKanturu::ResetAllData
; Function compile flags: /Odtp /ZI
_TEXT	SEGMENT
_iCount$227945 = -8					; size = 4
_this$ = -4						; size = 4
?ResetAllData@CKanturu@@QAEXXZ PROC			; CKanturu::ResetAllData
; _this$ = ecx

; 39   : {

  001e0	55		 push	 ebp
  001e1	8b ec		 mov	 ebp, esp
  001e3	83 ec 48	 sub	 esp, 72			; 00000048H
  001e6	53		 push	 ebx
  001e7	56		 push	 esi
  001e8	57		 push	 edi
  001e9	89 4d fc	 mov	 DWORD PTR _this$[ebp], ecx

; 40   : 	this->m_StateInfoCount = 0;

  001ec	8b 45 fc	 mov	 eax, DWORD PTR _this$[ebp]
  001ef	c7 80 8c 00 00
	00 00 00 00 00	 mov	 DWORD PTR [eax+140], 0

; 41   : 
; 42   : 	for ( int iCount=0;iCount<MAX_KANTURU_STATE_INFO;iCount++)

  001f9	c7 45 f8 00 00
	00 00		 mov	 DWORD PTR _iCount$227945[ebp], 0
  00200	eb 09		 jmp	 SHORT $LN3@ResetAllDa
$LN2@ResetAllDa:
  00202	8b 45 f8	 mov	 eax, DWORD PTR _iCount$227945[ebp]
  00205	83 c0 01	 add	 eax, 1
  00208	89 45 f8	 mov	 DWORD PTR _iCount$227945[ebp], eax
$LN3@ResetAllDa:
  0020b	83 7d f8 06	 cmp	 DWORD PTR _iCount$227945[ebp], 6
  0020f	7d 14		 jge	 SHORT $LN4@ResetAllDa

; 43   : 	{
; 44   : 		this->m_StateInfo[iCount].ResetTimeInfo();

  00211	8b 45 f8	 mov	 eax, DWORD PTR _iCount$227945[ebp]
  00214	6b c0 14	 imul	 eax, 20			; 00000014H
  00217	8b 4d fc	 mov	 ecx, DWORD PTR _this$[ebp]
  0021a	8d 4c 01 14	 lea	 ecx, DWORD PTR [ecx+eax+20]
  0021e	e8 00 00 00 00	 call	 ?ResetTimeInfo@CKanturuStateInfo@@QAEXXZ ; CKanturuStateInfo::ResetTimeInfo

; 45   : 	}

  00223	eb dd		 jmp	 SHORT $LN2@ResetAllDa
$LN4@ResetAllDa:

; 46   : }

  00225	5f		 pop	 edi
  00226	5e		 pop	 esi
  00227	5b		 pop	 ebx
  00228	8b e5		 mov	 esp, ebp
  0022a	5d		 pop	 ebp
  0022b	c3		 ret	 0
?ResetAllData@CKanturu@@QAEXXZ ENDP			; CKanturu::ResetAllData
_TEXT	ENDS
PUBLIC	?SetValue@CKanturuStateInfo@@QAEXH@Z		; CKanturuStateInfo::SetValue
PUBLIC	?SetCondition@CKanturuStateInfo@@QAEXH@Z	; CKanturuStateInfo::SetCondition
PUBLIC	?SetStateInfo@CKanturuStateInfo@@QAEXH@Z	; CKanturuStateInfo::SetStateInfo
; Function compile flags: /Odtp /ZI
; File d:\projects\exteam6.3\source\gameserver\gameserver\kanturustateinfo.h
;	COMDAT ?ResetTimeInfo@CKanturuStateInfo@@QAEXXZ
_TEXT	SEGMENT
_this$ = -4						; size = 4
?ResetTimeInfo@CKanturuStateInfo@@QAEXXZ PROC		; CKanturuStateInfo::ResetTimeInfo, COMDAT
; _this$ = ecx

; 21   : 	{

  00000	55		 push	 ebp
  00001	8b ec		 mov	 ebp, esp
  00003	83 ec 44	 sub	 esp, 68			; 00000044H
  00006	53		 push	 ebx
  00007	56		 push	 esi
  00008	57		 push	 edi
  00009	89 4d fc	 mov	 DWORD PTR _this$[ebp], ecx

; 22   : 		this->SetStateInfo(0);

  0000c	6a 00		 push	 0
  0000e	8b 4d fc	 mov	 ecx, DWORD PTR _this$[ebp]
  00011	e8 00 00 00 00	 call	 ?SetStateInfo@CKanturuStateInfo@@QAEXH@Z ; CKanturuStateInfo::SetStateInfo

; 23   : 		this->SetCondition(0);

  00016	6a 00		 push	 0
  00018	8b 4d fc	 mov	 ecx, DWORD PTR _this$[ebp]
  0001b	e8 00 00 00 00	 call	 ?SetCondition@CKanturuStateInfo@@QAEXH@Z ; CKanturuStateInfo::SetCondition

; 24   : 		this->SetValue(0);

  00020	6a 00		 push	 0
  00022	8b 4d fc	 mov	 ecx, DWORD PTR _this$[ebp]
  00025	e8 00 00 00 00	 call	 ?SetValue@CKanturuStateInfo@@QAEXH@Z ; CKanturuStateInfo::SetValue

; 25   : 	}

  0002a	5f		 pop	 edi
  0002b	5e		 pop	 esi
  0002c	5b		 pop	 ebx
  0002d	8b e5		 mov	 esp, ebp
  0002f	5d		 pop	 ebp
  00030	c3		 ret	 0
?ResetTimeInfo@CKanturuStateInfo@@QAEXXZ ENDP		; CKanturuStateInfo::ResetTimeInfo
; Function compile flags: /Odtp /ZI
_TEXT	ENDS
;	COMDAT ?SetStateInfo@CKanturuStateInfo@@QAEXH@Z
_TEXT	SEGMENT
_this$ = -4						; size = 4
_iStateTimeInfo$ = 8					; size = 4
?SetStateInfo@CKanturuStateInfo@@QAEXH@Z PROC		; CKanturuStateInfo::SetStateInfo, COMDAT
; _this$ = ecx

; 29   : 	{

  00000	55		 push	 ebp
  00001	8b ec		 mov	 ebp, esp
  00003	83 ec 44	 sub	 esp, 68			; 00000044H
  00006	53		 push	 ebx
  00007	56		 push	 esi
  00008	57		 push	 edi
  00009	89 4d fc	 mov	 DWORD PTR _this$[ebp], ecx

; 30   : 		this->m_iState = iStateTimeInfo;

  0000c	8b 45 fc	 mov	 eax, DWORD PTR _this$[ebp]
  0000f	8b 4d 08	 mov	 ecx, DWORD PTR _iStateTimeInfo$[ebp]
  00012	89 48 04	 mov	 DWORD PTR [eax+4], ecx

; 31   : 	}

  00015	5f		 pop	 edi
  00016	5e		 pop	 esi
  00017	5b		 pop	 ebx
  00018	8b e5		 mov	 esp, ebp
  0001a	5d		 pop	 ebp
  0001b	c2 04 00	 ret	 4
?SetStateInfo@CKanturuStateInfo@@QAEXH@Z ENDP		; CKanturuStateInfo::SetStateInfo
; Function compile flags: /Odtp /ZI
_TEXT	ENDS
;	COMDAT ?SetCondition@CKanturuStateInfo@@QAEXH@Z
_TEXT	SEGMENT
_this$ = -4						; size = 4
_iCondition$ = 8					; size = 4
?SetCondition@CKanturuStateInfo@@QAEXH@Z PROC		; CKanturuStateInfo::SetCondition, COMDAT
; _this$ = ecx

; 34   : 	{

  00000	55		 push	 ebp
  00001	8b ec		 mov	 ebp, esp
  00003	83 ec 44	 sub	 esp, 68			; 00000044H
  00006	53		 push	 ebx
  00007	56		 push	 esi
  00008	57		 push	 edi
  00009	89 4d fc	 mov	 DWORD PTR _this$[ebp], ecx

; 35   : 		this->m_iCondition = iCondition;

  0000c	8b 45 fc	 mov	 eax, DWORD PTR _this$[ebp]
  0000f	8b 4d 08	 mov	 ecx, DWORD PTR _iCondition$[ebp]
  00012	89 48 08	 mov	 DWORD PTR [eax+8], ecx

; 36   : 	}

  00015	5f		 pop	 edi
  00016	5e		 pop	 esi
  00017	5b		 pop	 ebx
  00018	8b e5		 mov	 esp, ebp
  0001a	5d		 pop	 ebp
  0001b	c2 04 00	 ret	 4
?SetCondition@CKanturuStateInfo@@QAEXH@Z ENDP		; CKanturuStateInfo::SetCondition
; Function compile flags: /Odtp /ZI
_TEXT	ENDS
;	COMDAT ?SetValue@CKanturuStateInfo@@QAEXH@Z
_TEXT	SEGMENT
_this$ = -4						; size = 4
_iValue$ = 8						; size = 4
?SetValue@CKanturuStateInfo@@QAEXH@Z PROC		; CKanturuStateInfo::SetValue, COMDAT
; _this$ = ecx

; 45   : 	{

  00000	55		 push	 ebp
  00001	8b ec		 mov	 ebp, esp
  00003	83 ec 44	 sub	 esp, 68			; 00000044H
  00006	53		 push	 ebx
  00007	56		 push	 esi
  00008	57		 push	 edi
  00009	89 4d fc	 mov	 DWORD PTR _this$[ebp], ecx

; 46   : 		this->m_iValue = iValue;

  0000c	8b 45 fc	 mov	 eax, DWORD PTR _this$[ebp]
  0000f	8b 4d 08	 mov	 ecx, DWORD PTR _iValue$[ebp]
  00012	89 48 0c	 mov	 DWORD PTR [eax+12], ecx

; 47   : 	}

  00015	5f		 pop	 edi
  00016	5e		 pop	 esi
  00017	5b		 pop	 ebx
  00018	8b e5		 mov	 esp, ebp
  0001a	5d		 pop	 ebp
  0001b	c2 04 00	 ret	 4
?SetValue@CKanturuStateInfo@@QAEXH@Z ENDP		; CKanturuStateInfo::SetValue
_TEXT	ENDS
PUBLIC	??_C@_0DC@FKIBHPBC@?$FL?5KANTURU?5?$FN?5?9?5Loading?5Exception?5@ ; `string'
PUBLIC	??_C@_0BF@OBGFNJKC@?4?2Events?2Kanturu?4dat?$AA@ ; `string'
PUBLIC	??_C@_0CA@IEFEEOLJ@?$FL?5KANTURU?5?$FN?5?9?5?$CFs?5file?5is?5Loaded?$AA@ ; `string'
PUBLIC	?SetEnableCheckMoonStone@CKanturu@@QAEXH@Z	; CKanturu::SetEnableCheckMoonStone
PUBLIC	__real@0000000000000000
PUBLIC	??_C@_0CJ@NADNLLJP@?$FL?5KANTURU?5?$FN?5?9?5Exceed?5Max?5State?5T@ ; `string'
PUBLIC	??_C@_03JBJLGPFL@end?$AA@			; `string'
PUBLIC	??_C@_0BN@GAHNOIOK@?$FL?5KANTURU?5?$FN?5?9?5Can?8t?5Open?5?$CFs?5?$AA@ ; `string'
PUBLIC	??_C@_01KDCPPGHE@r?$AA@				; `string'
PUBLIC	??_C@_0DA@POPJLFKC@?$FL?5KANTURU?5?$FN?5?9?5File?5load?5error?5?3?5@ ; `string'
PUBLIC	??_C@_00CNPNBAHC@?$AA@				; `string'
PUBLIC	?LoadData@CKanturu@@QAEHPAD@Z			; CKanturu::LoadData
EXTRN	?LoadData@CKanturuTowerOfRefinement@@QAEHPAD@Z:PROC ; CKanturuTowerOfRefinement::LoadData
EXTRN	?LoadData@CKanturuBattleOfNightmare@@QAEHPAD@Z:PROC ; CKanturuBattleOfNightmare::LoadData
EXTRN	?LoadData@CKanturuBattleOfMaya@@QAEHPAD@Z:PROC	; CKanturuBattleOfMaya::LoadData
EXTRN	?LoadData@CKanturuBattleStanby@@QAEHPAD@Z:PROC	; CKanturuBattleStanby::LoadData
EXTRN	?GetNewPath@CDirPath@@QAEPADPAD@Z:PROC		; CDirPath::GetNewPath
EXTRN	?gDirPath@@3VCDirPath@@A:BYTE			; gDirPath
EXTRN	?LogAddC@@3P6AXEPADZZA:DWORD			; LogAddC
EXTRN	_fclose:PROC
EXTRN	__imp__GetLastError@0:PROC
EXTRN	_fopen:PROC
EXTRN	?MsgBox@@YAXPADZZ:PROC				; MsgBox
EXTRN	_strcmp:PROC
EXTRN	__fltused:DWORD
EXTRN	__ftol2_sse:PROC
_BSS	SEGMENT
_TokenString DB	064H DUP (?)
_TokenNumber DD	01H DUP (?)
_SMDFile DD	01H DUP (?)
_BSS	ENDS
;	COMDAT ??_C@_0DC@FKIBHPBC@?$FL?5KANTURU?5?$FN?5?9?5Loading?5Exception?5@
; File d:\projects\exteam6.3\source\gameserver\gameserver\kanturu.cpp
CONST	SEGMENT
??_C@_0DC@FKIBHPBC@?$FL?5KANTURU?5?$FN?5?9?5Loading?5Exception?5@ DB '[ K'
	DB	'ANTURU ] - Loading Exception Error (%s) File. ', 00H ; `string'
CONST	ENDS
;	COMDAT ??_C@_0BF@OBGFNJKC@?4?2Events?2Kanturu?4dat?$AA@
CONST	SEGMENT
??_C@_0BF@OBGFNJKC@?4?2Events?2Kanturu?4dat?$AA@ DB '.\Events\Kanturu.dat'
	DB	00H						; `string'
CONST	ENDS
;	COMDAT ??_C@_0CA@IEFEEOLJ@?$FL?5KANTURU?5?$FN?5?9?5?$CFs?5file?5is?5Loaded?$AA@
CONST	SEGMENT
??_C@_0CA@IEFEEOLJ@?$FL?5KANTURU?5?$FN?5?9?5?$CFs?5file?5is?5Loaded?$AA@ DB '['
	DB	' KANTURU ] - %s file is Loaded', 00H	; `string'
CONST	ENDS
;	COMDAT __real@0000000000000000
CONST	SEGMENT
__real@0000000000000000 DQ 00000000000000000r	; 0
CONST	ENDS
;	COMDAT ??_C@_0CJ@NADNLLJP@?$FL?5KANTURU?5?$FN?5?9?5Exceed?5Max?5State?5T@
CONST	SEGMENT
??_C@_0CJ@NADNLLJP@?$FL?5KANTURU?5?$FN?5?9?5Exceed?5Max?5State?5T@ DB '[ '
	DB	'KANTURU ] - Exceed Max State Time (%d)', 00H ; `string'
CONST	ENDS
;	COMDAT ??_C@_03JBJLGPFL@end?$AA@
CONST	SEGMENT
??_C@_03JBJLGPFL@end?$AA@ DB 'end', 00H			; `string'
CONST	ENDS
;	COMDAT ??_C@_0BN@GAHNOIOK@?$FL?5KANTURU?5?$FN?5?9?5Can?8t?5Open?5?$CFs?5?$AA@
CONST	SEGMENT
??_C@_0BN@GAHNOIOK@?$FL?5KANTURU?5?$FN?5?9?5Can?8t?5Open?5?$CFs?5?$AA@ DB '['
	DB	' KANTURU ] - Can''t Open %s ', 00H		; `string'
CONST	ENDS
;	COMDAT ??_C@_01KDCPPGHE@r?$AA@
CONST	SEGMENT
??_C@_01KDCPPGHE@r?$AA@ DB 'r', 00H			; `string'
CONST	ENDS
;	COMDAT ??_C@_0DA@POPJLFKC@?$FL?5KANTURU?5?$FN?5?9?5File?5load?5error?5?3?5@
CONST	SEGMENT
??_C@_0DA@POPJLFKC@?$FL?5KANTURU?5?$FN?5?9?5File?5load?5error?5?3?5@ DB '['
	DB	' KANTURU ] - File load error : File Name Error', 00H ; `string'
CONST	ENDS
;	COMDAT ??_C@_00CNPNBAHC@?$AA@
CONST	SEGMENT
??_C@_00CNPNBAHC@?$AA@ DB 00H				; `string'
CONST	ENDS
xdata$x	SEGMENT
__catchsym$?LoadData@CKanturu@@QAEHPAD@Z$2 DD 040H
	DD	00H
	DD	00H
	DD	FLAT:__catch$?LoadData@CKanturu@@QAEHPAD@Z$0
__unwindtable$?LoadData@CKanturu@@QAEHPAD@Z DD 0ffffffffH
	DD	00H
	DD	0ffffffffH
	DD	00H
__tryblocktable$?LoadData@CKanturu@@QAEHPAD@Z DD 00H
	DD	00H
	DD	01H
	DD	01H
	DD	FLAT:__catchsym$?LoadData@CKanturu@@QAEHPAD@Z$2
__ehfuncinfo$?LoadData@CKanturu@@QAEHPAD@Z DD 019930522H
	DD	02H
	DD	FLAT:__unwindtable$?LoadData@CKanturu@@QAEHPAD@Z
	DD	01H
	DD	FLAT:__tryblocktable$?LoadData@CKanturu@@QAEHPAD@Z
	DD	2 DUP(00H)
	DD	00H
	DD	01H
; Function compile flags: /Odtp /ZI
xdata$x	ENDS
_TEXT	SEGMENT
tv217 = -116						; size = 4
tv216 = -116						; size = 4
tv215 = -116						; size = 4
tv214 = -116						; size = 4
tv213 = -116						; size = 4
tv212 = -116						; size = 4
tv211 = -116						; size = 4
tv210 = -116						; size = 4
tv209 = -116						; size = 4
tv208 = -116						; size = 4
tv166 = -113						; size = 1
_bEnableCheckMoonStone$228006 = -48			; size = 4
_iValue$227965 = -44					; size = 4
_iCondition$227964 = -40				; size = 4
_iState$227963 = -36					; size = 4
_iType$227962 = -32					; size = 4
_Token$227961 = -28					; size = 4
_dwError$227959 = -24					; size = 4
_this$ = -20						; size = 4
__$EHRec$ = -16						; size = 16
_lpszFileName$ = 8					; size = 4
?LoadData@CKanturu@@QAEHPAD@Z PROC			; CKanturu::LoadData
; _this$ = ecx

; 51   : {

  00230	55		 push	 ebp
  00231	8b ec		 mov	 ebp, esp
  00233	6a ff		 push	 -1
  00235	68 00 00 00 00	 push	 __ehhandler$?LoadData@CKanturu@@QAEHPAD@Z
  0023a	64 a1 00 00 00
	00		 mov	 eax, DWORD PTR fs:0
  00240	50		 push	 eax
  00241	51		 push	 ecx
  00242	83 ec 64	 sub	 esp, 100		; 00000064H
  00245	53		 push	 ebx
  00246	56		 push	 esi
  00247	57		 push	 edi
  00248	a1 00 00 00 00	 mov	 eax, DWORD PTR ___security_cookie
  0024d	33 c5		 xor	 eax, ebp
  0024f	50		 push	 eax
  00250	8d 45 f4	 lea	 eax, DWORD PTR __$EHRec$[ebp+4]
  00253	64 a3 00 00 00
	00		 mov	 DWORD PTR fs:0, eax
  00259	89 65 f0	 mov	 DWORD PTR __$EHRec$[ebp], esp
  0025c	89 4d ec	 mov	 DWORD PTR _this$[ebp], ecx

; 52   : 	this->m_bFileDataLoad = FALSE;

  0025f	8b 45 ec	 mov	 eax, DWORD PTR _this$[ebp]
  00262	c7 40 10 00 00
	00 00		 mov	 DWORD PTR [eax+16], 0

; 53   : 
; 54   : 	if ( !lpszFileName || !strcmp(lpszFileName, ""))

  00269	83 7d 08 00	 cmp	 DWORD PTR _lpszFileName$[ebp], 0
  0026d	74 15		 je	 SHORT $LN18@LoadData
  0026f	68 00 00 00 00	 push	 OFFSET ??_C@_00CNPNBAHC@?$AA@
  00274	8b 45 08	 mov	 eax, DWORD PTR _lpszFileName$[ebp]
  00277	50		 push	 eax
  00278	e8 00 00 00 00	 call	 _strcmp
  0027d	83 c4 08	 add	 esp, 8
  00280	85 c0		 test	 eax, eax
  00282	75 14		 jne	 SHORT $LN19@LoadData
$LN18@LoadData:

; 55   : 	{
; 56   : 		MsgBox("[ KANTURU ] - File load error : File Name Error");

  00284	68 00 00 00 00	 push	 OFFSET ??_C@_0DA@POPJLFKC@?$FL?5KANTURU?5?$FN?5?9?5File?5load?5error?5?3?5@
  00289	e8 00 00 00 00	 call	 ?MsgBox@@YAXPADZZ	; MsgBox
  0028e	83 c4 04	 add	 esp, 4

; 57   : 		return FALSE;

  00291	33 c0		 xor	 eax, eax
  00293	e9 6a 03 00 00	 jmp	 $LN20@LoadData
$LN19@LoadData:

; 58   : 	}
; 59   : 
; 60   : 	try
; 61   : 	{

  00298	c7 45 fc 00 00
	00 00		 mov	 DWORD PTR __$EHRec$[ebp+12], 0

; 62   : 
; 63   : 		SMDFile = fopen(lpszFileName, "r");

  0029f	68 00 00 00 00	 push	 OFFSET ??_C@_01KDCPPGHE@r?$AA@
  002a4	8b 45 08	 mov	 eax, DWORD PTR _lpszFileName$[ebp]
  002a7	50		 push	 eax
  002a8	e8 00 00 00 00	 call	 _fopen
  002ad	83 c4 08	 add	 esp, 8
  002b0	a3 00 00 00 00	 mov	 DWORD PTR _SMDFile, eax

; 64   : 
; 65   : 		if ( SMDFile == NULL )

  002b5	83 3d 00 00 00
	00 00		 cmp	 DWORD PTR _SMDFile, 0
  002bc	75 21		 jne	 SHORT $LN16@LoadData

; 66   : 		{
; 67   : 			DWORD dwError = GetLastError();

  002be	ff 15 00 00 00
	00		 call	 DWORD PTR __imp__GetLastError@0
  002c4	89 45 e8	 mov	 DWORD PTR _dwError$227959[ebp], eax

; 68   : 			MsgBox("[ KANTURU ] - Can't Open %s ", lpszFileName);

  002c7	8b 45 08	 mov	 eax, DWORD PTR _lpszFileName$[ebp]
  002ca	50		 push	 eax
  002cb	68 00 00 00 00	 push	 OFFSET ??_C@_0BN@GAHNOIOK@?$FL?5KANTURU?5?$FN?5?9?5Can?8t?5Open?5?$CFs?5?$AA@
  002d0	e8 00 00 00 00	 call	 ?MsgBox@@YAXPADZZ	; MsgBox
  002d5	83 c4 08	 add	 esp, 8

; 69   : 			return FALSE;

  002d8	33 c0		 xor	 eax, eax
  002da	e9 23 03 00 00	 jmp	 $LN20@LoadData
$LN16@LoadData:

; 70   : 		}
; 71   : 
; 72   : 		this->ResetAllData();

  002df	8b 4d ec	 mov	 ecx, DWORD PTR _this$[ebp]
  002e2	e8 00 00 00 00	 call	 ?ResetAllData@CKanturu@@QAEXXZ ; CKanturu::ResetAllData

; 73   : 
; 74   : 		enum SMDToken Token;
; 75   : 		int iType = -1;

  002e7	c7 45 e0 ff ff
	ff ff		 mov	 DWORD PTR _iType$227962[ebp], -1

; 76   : 		int iState = 0;

  002ee	c7 45 dc 00 00
	00 00		 mov	 DWORD PTR _iState$227963[ebp], 0

; 77   : 		int iCondition = 0;

  002f5	c7 45 d8 00 00
	00 00		 mov	 DWORD PTR _iCondition$227964[ebp], 0

; 78   : 		int iValue = 0;

  002fc	c7 45 d4 00 00
	00 00		 mov	 DWORD PTR _iValue$227965[ebp], 0
$LN15@LoadData:

; 79   : 
; 80   : 		while ( true )

  00303	b8 01 00 00 00	 mov	 eax, 1
  00308	85 c0		 test	 eax, eax
  0030a	0f 84 09 02 00
	00		 je	 $LN14@LoadData

; 81   : 		{
; 82   : 			Token = (SMDToken)GetToken();

  00310	e8 00 00 00 00	 call	 ?GetToken@@YA?AW4SMDToken@@XZ ; GetToken
  00315	89 45 8c	 mov	 DWORD PTR tv208[ebp], eax
  00318	8b 45 8c	 mov	 eax, DWORD PTR tv208[ebp]
  0031b	89 45 e4	 mov	 DWORD PTR _Token$227961[ebp], eax

; 83   : 			
; 84   : 			if ( Token ==  END )

  0031e	83 7d e4 02	 cmp	 DWORD PTR _Token$227961[ebp], 2
  00322	75 05		 jne	 SHORT $LN13@LoadData

; 85   : 				break;

  00324	e9 f0 01 00 00	 jmp	 $LN14@LoadData
$LN13@LoadData:

; 86   : 			
; 87   : 			iType = (int)TokenNumber;

  00329	d9 05 00 00 00
	00		 fld	 DWORD PTR _TokenNumber
  0032f	e8 00 00 00 00	 call	 __ftol2_sse
  00334	89 45 e0	 mov	 DWORD PTR _iType$227962[ebp], eax
$LN12@LoadData:

; 88   : 
; 89   : 			while ( true )

  00337	b8 01 00 00 00	 mov	 eax, 1
  0033c	85 c0		 test	 eax, eax
  0033e	0f 84 d0 01 00
	00		 je	 $LN11@LoadData

; 90   : 			{
; 91   : 				if ( iType == 0 )

  00344	83 7d e0 00	 cmp	 DWORD PTR _iType$227962[ebp], 0
  00348	0f 85 38 01 00
	00		 jne	 $LN10@LoadData

; 92   : 				{
; 93   : 					iState = 0;

  0034e	c7 45 dc 00 00
	00 00		 mov	 DWORD PTR _iState$227963[ebp], 0

; 94   : 					iCondition = 0;

  00355	c7 45 d8 00 00
	00 00		 mov	 DWORD PTR _iCondition$227964[ebp], 0

; 95   : 					iValue = 0;

  0035c	c7 45 d4 00 00
	00 00		 mov	 DWORD PTR _iValue$227965[ebp], 0

; 96   : 
; 97   : 					Token = (SMDToken)GetToken();

  00363	e8 00 00 00 00	 call	 ?GetToken@@YA?AW4SMDToken@@XZ ; GetToken
  00368	89 45 8c	 mov	 DWORD PTR tv209[ebp], eax
  0036b	8b 45 8c	 mov	 eax, DWORD PTR tv209[ebp]
  0036e	89 45 e4	 mov	 DWORD PTR _Token$227961[ebp], eax

; 98   : 					
; 99   : 					if ( !strcmp("end", TokenString))

  00371	68 00 00 00 00	 push	 OFFSET _TokenString
  00376	68 00 00 00 00	 push	 OFFSET ??_C@_03JBJLGPFL@end?$AA@
  0037b	e8 00 00 00 00	 call	 _strcmp
  00380	83 c4 08	 add	 esp, 8
  00383	85 c0		 test	 eax, eax
  00385	75 05		 jne	 SHORT $LN9@LoadData

; 100  : 						break;

  00387	e9 88 01 00 00	 jmp	 $LN11@LoadData
$LN9@LoadData:

; 101  : 
; 102  : 					iState = (int)TokenNumber;

  0038c	d9 05 00 00 00
	00		 fld	 DWORD PTR _TokenNumber
  00392	e8 00 00 00 00	 call	 __ftol2_sse
  00397	89 45 dc	 mov	 DWORD PTR _iState$227963[ebp], eax

; 103  : 
; 104  : 					Token = (SMDToken)GetToken();

  0039a	e8 00 00 00 00	 call	 ?GetToken@@YA?AW4SMDToken@@XZ ; GetToken
  0039f	89 45 8c	 mov	 DWORD PTR tv210[ebp], eax
  003a2	8b 45 8c	 mov	 eax, DWORD PTR tv210[ebp]
  003a5	89 45 e4	 mov	 DWORD PTR _Token$227961[ebp], eax

; 105  : 					iCondition = (int)TokenNumber;

  003a8	d9 05 00 00 00
	00		 fld	 DWORD PTR _TokenNumber
  003ae	e8 00 00 00 00	 call	 __ftol2_sse
  003b3	89 45 d8	 mov	 DWORD PTR _iCondition$227964[ebp], eax

; 106  : 
; 107  : 					Token = (SMDToken)GetToken();

  003b6	e8 00 00 00 00	 call	 ?GetToken@@YA?AW4SMDToken@@XZ ; GetToken
  003bb	89 45 8c	 mov	 DWORD PTR tv211[ebp], eax
  003be	8b 45 8c	 mov	 eax, DWORD PTR tv211[ebp]
  003c1	89 45 e4	 mov	 DWORD PTR _Token$227961[ebp], eax

; 108  : 					iValue = (int)TokenNumber;

  003c4	d9 05 00 00 00
	00		 fld	 DWORD PTR _TokenNumber
  003ca	e8 00 00 00 00	 call	 __ftol2_sse
  003cf	89 45 d4	 mov	 DWORD PTR _iValue$227965[ebp], eax

; 109  : 
; 110  : 					if ( this->m_StateInfoCount < 0 || this->m_StateInfoCount >= MAX_KANTURU_STATE_INFO )

  003d2	8b 45 ec	 mov	 eax, DWORD PTR _this$[ebp]
  003d5	83 b8 8c 00 00
	00 00		 cmp	 DWORD PTR [eax+140], 0
  003dc	7c 0c		 jl	 SHORT $LN7@LoadData
  003de	8b 45 ec	 mov	 eax, DWORD PTR _this$[ebp]
  003e1	83 b8 8c 00 00
	00 06		 cmp	 DWORD PTR [eax+140], 6
  003e8	7c 1c		 jl	 SHORT $LN8@LoadData
$LN7@LoadData:

; 111  : 					{
; 112  : 						MsgBox("[ KANTURU ] - Exceed Max State Time (%d)", this->m_StateInfoCount);

  003ea	8b 45 ec	 mov	 eax, DWORD PTR _this$[ebp]
  003ed	8b 88 8c 00 00
	00		 mov	 ecx, DWORD PTR [eax+140]
  003f3	51		 push	 ecx
  003f4	68 00 00 00 00	 push	 OFFSET ??_C@_0CJ@NADNLLJP@?$FL?5KANTURU?5?$FN?5?9?5Exceed?5Max?5State?5T@
  003f9	e8 00 00 00 00	 call	 ?MsgBox@@YAXPADZZ	; MsgBox
  003fe	83 c4 08	 add	 esp, 8

; 113  : 						break;

  00401	e9 0e 01 00 00	 jmp	 $LN11@LoadData
$LN8@LoadData:

; 114  : 					}
; 115  : 
; 116  : 					this->m_StateInfo[this->m_StateInfoCount].SetStateInfo(iState);

  00406	8b 45 dc	 mov	 eax, DWORD PTR _iState$227963[ebp]
  00409	50		 push	 eax
  0040a	8b 4d ec	 mov	 ecx, DWORD PTR _this$[ebp]
  0040d	8b 91 8c 00 00
	00		 mov	 edx, DWORD PTR [ecx+140]
  00413	6b d2 14	 imul	 edx, 20			; 00000014H
  00416	8b 45 ec	 mov	 eax, DWORD PTR _this$[ebp]
  00419	8d 4c 10 14	 lea	 ecx, DWORD PTR [eax+edx+20]
  0041d	e8 00 00 00 00	 call	 ?SetStateInfo@CKanturuStateInfo@@QAEXH@Z ; CKanturuStateInfo::SetStateInfo

; 117  : 					this->m_StateInfo[this->m_StateInfoCount].SetCondition(iCondition);

  00422	8b 45 d8	 mov	 eax, DWORD PTR _iCondition$227964[ebp]
  00425	50		 push	 eax
  00426	8b 4d ec	 mov	 ecx, DWORD PTR _this$[ebp]
  00429	8b 91 8c 00 00
	00		 mov	 edx, DWORD PTR [ecx+140]
  0042f	6b d2 14	 imul	 edx, 20			; 00000014H
  00432	8b 45 ec	 mov	 eax, DWORD PTR _this$[ebp]
  00435	8d 4c 10 14	 lea	 ecx, DWORD PTR [eax+edx+20]
  00439	e8 00 00 00 00	 call	 ?SetCondition@CKanturuStateInfo@@QAEXH@Z ; CKanturuStateInfo::SetCondition

; 118  : 
; 119  : 					if ( iCondition == 1 )

  0043e	83 7d d8 01	 cmp	 DWORD PTR _iCondition$227964[ebp], 1
  00442	75 0c		 jne	 SHORT $LN6@LoadData

; 120  : 						iValue *= 1000;

  00444	8b 45 d4	 mov	 eax, DWORD PTR _iValue$227965[ebp]
  00447	69 c0 e8 03 00
	00		 imul	 eax, 1000		; 000003e8H
  0044d	89 45 d4	 mov	 DWORD PTR _iValue$227965[ebp], eax
$LN6@LoadData:

; 121  : 
; 122  : 					this->m_StateInfo[this->m_StateInfoCount].SetValue(iValue);

  00450	8b 45 d4	 mov	 eax, DWORD PTR _iValue$227965[ebp]
  00453	50		 push	 eax
  00454	8b 4d ec	 mov	 ecx, DWORD PTR _this$[ebp]
  00457	8b 91 8c 00 00
	00		 mov	 edx, DWORD PTR [ecx+140]
  0045d	6b d2 14	 imul	 edx, 20			; 00000014H
  00460	8b 45 ec	 mov	 eax, DWORD PTR _this$[ebp]
  00463	8d 4c 10 14	 lea	 ecx, DWORD PTR [eax+edx+20]
  00467	e8 00 00 00 00	 call	 ?SetValue@CKanturuStateInfo@@QAEXH@Z ; CKanturuStateInfo::SetValue

; 123  : 
; 124  : 					this->m_StateInfoCount++;

  0046c	8b 45 ec	 mov	 eax, DWORD PTR _this$[ebp]
  0046f	8b 88 8c 00 00
	00		 mov	 ecx, DWORD PTR [eax+140]
  00475	83 c1 01	 add	 ecx, 1
  00478	8b 55 ec	 mov	 edx, DWORD PTR _this$[ebp]
  0047b	89 8a 8c 00 00
	00		 mov	 DWORD PTR [edx+140], ecx
  00481	e9 89 00 00 00	 jmp	 $LN1@LoadData
$LN10@LoadData:

; 125  : 				}
; 126  : 				else if ( iType == 10 )

  00486	83 7d e0 0a	 cmp	 DWORD PTR _iType$227962[ebp], 10 ; 0000000aH
  0048a	75 5d		 jne	 SHORT $LN4@LoadData

; 127  : 				{
; 128  : 					BOOL bEnableCheckMoonStone = FALSE;

  0048c	c7 45 d0 00 00
	00 00		 mov	 DWORD PTR _bEnableCheckMoonStone$228006[ebp], 0

; 129  : 
; 130  : 					Token = (SMDToken)GetToken();

  00493	e8 00 00 00 00	 call	 ?GetToken@@YA?AW4SMDToken@@XZ ; GetToken
  00498	89 45 8c	 mov	 DWORD PTR tv212[ebp], eax
  0049b	8b 45 8c	 mov	 eax, DWORD PTR tv212[ebp]
  0049e	89 45 e4	 mov	 DWORD PTR _Token$227961[ebp], eax

; 131  : 					
; 132  : 					if ( !strcmp("end", TokenString))

  004a1	68 00 00 00 00	 push	 OFFSET _TokenString
  004a6	68 00 00 00 00	 push	 OFFSET ??_C@_03JBJLGPFL@end?$AA@
  004ab	e8 00 00 00 00	 call	 _strcmp
  004b0	83 c4 08	 add	 esp, 8
  004b3	85 c0		 test	 eax, eax
  004b5	75 02		 jne	 SHORT $LN3@LoadData

; 133  : 						break;

  004b7	eb 5b		 jmp	 SHORT $LN11@LoadData
$LN3@LoadData:

; 134  : 
; 135  : 					bEnableCheckMoonStone = (bool)TokenNumber;

  004b9	d9 05 00 00 00
	00		 fld	 DWORD PTR _TokenNumber
  004bf	d9 ee		 fldz
  004c1	da e9		 fucompp
  004c3	df e0		 fnstsw	 ax
  004c5	f6 c4 44	 test	 ah, 68			; 00000044H
  004c8	7b 06		 jnp	 SHORT $LN22@LoadData
  004ca	c6 45 8f 01	 mov	 BYTE PTR tv166[ebp], 1
  004ce	eb 04		 jmp	 SHORT $LN23@LoadData
$LN22@LoadData:
  004d0	c6 45 8f 00	 mov	 BYTE PTR tv166[ebp], 0
$LN23@LoadData:
  004d4	0f b6 45 8f	 movzx	 eax, BYTE PTR tv166[ebp]
  004d8	89 45 d0	 mov	 DWORD PTR _bEnableCheckMoonStone$228006[ebp], eax

; 136  : 					this->SetEnableCheckMoonStone(bEnableCheckMoonStone);

  004db	8b 45 d0	 mov	 eax, DWORD PTR _bEnableCheckMoonStone$228006[ebp]
  004de	50		 push	 eax
  004df	8b 4d ec	 mov	 ecx, DWORD PTR _this$[ebp]
  004e2	e8 00 00 00 00	 call	 ?SetEnableCheckMoonStone@CKanturu@@QAEXH@Z ; CKanturu::SetEnableCheckMoonStone

; 137  : 				}
; 138  : 				else

  004e7	eb 26		 jmp	 SHORT $LN1@LoadData
$LN4@LoadData:

; 139  : 				{
; 140  : 					Token = (SMDToken)GetToken();

  004e9	e8 00 00 00 00	 call	 ?GetToken@@YA?AW4SMDToken@@XZ ; GetToken
  004ee	89 45 8c	 mov	 DWORD PTR tv213[ebp], eax
  004f1	8b 45 8c	 mov	 eax, DWORD PTR tv213[ebp]
  004f4	89 45 e4	 mov	 DWORD PTR _Token$227961[ebp], eax

; 141  : 					
; 142  : 					if ( !strcmp("end", TokenString))

  004f7	68 00 00 00 00	 push	 OFFSET _TokenString
  004fc	68 00 00 00 00	 push	 OFFSET ??_C@_03JBJLGPFL@end?$AA@
  00501	e8 00 00 00 00	 call	 _strcmp
  00506	83 c4 08	 add	 esp, 8
  00509	85 c0		 test	 eax, eax
  0050b	75 02		 jne	 SHORT $LN1@LoadData

; 143  : 						break;

  0050d	eb 05		 jmp	 SHORT $LN11@LoadData
$LN1@LoadData:

; 144  : 				}
; 145  : 			}

  0050f	e9 23 fe ff ff	 jmp	 $LN12@LoadData
$LN11@LoadData:

; 146  : 		}

  00514	e9 ea fd ff ff	 jmp	 $LN15@LoadData
$LN14@LoadData:

; 147  : 
; 148  : 		fclose(SMDFile);

  00519	a1 00 00 00 00	 mov	 eax, DWORD PTR _SMDFile
  0051e	50		 push	 eax
  0051f	e8 00 00 00 00	 call	 _fclose
  00524	83 c4 04	 add	 esp, 4

; 149  : 		LogAddC(2, "[ KANTURU ] - %s file is Loaded", lpszFileName);

  00527	8b 45 08	 mov	 eax, DWORD PTR _lpszFileName$[ebp]
  0052a	50		 push	 eax
  0052b	68 00 00 00 00	 push	 OFFSET ??_C@_0CA@IEFEEOLJ@?$FL?5KANTURU?5?$FN?5?9?5?$CFs?5file?5is?5Loaded?$AA@
  00530	6a 02		 push	 2
  00532	ff 15 00 00 00
	00		 call	 DWORD PTR ?LogAddC@@3P6AXEPADZZA ; LogAddC
  00538	83 c4 0c	 add	 esp, 12			; 0000000cH

; 150  : 		
; 151  : 		this->m_bFileDataLoad = TRUE;

  0053b	8b 45 ec	 mov	 eax, DWORD PTR _this$[ebp]
  0053e	c7 40 10 01 00
	00 00		 mov	 DWORD PTR [eax+16], 1

; 152  : 
; 153  : 		// Load Other Resources from Kanturu.dat
; 154  : 		this->m_BattleStanby.LoadData(gDirPath.GetNewPath(".\\Events\\Kanturu.dat"));

  00545	68 00 00 00 00	 push	 OFFSET ??_C@_0BF@OBGFNJKC@?4?2Events?2Kanturu?4dat?$AA@
  0054a	b9 00 00 00 00	 mov	 ecx, OFFSET ?gDirPath@@3VCDirPath@@A ; gDirPath
  0054f	e8 00 00 00 00	 call	 ?GetNewPath@CDirPath@@QAEPADPAD@Z ; CDirPath::GetNewPath
  00554	89 45 8c	 mov	 DWORD PTR tv214[ebp], eax
  00557	8b 45 8c	 mov	 eax, DWORD PTR tv214[ebp]
  0055a	50		 push	 eax
  0055b	8b 4d ec	 mov	 ecx, DWORD PTR _this$[ebp]
  0055e	81 c1 90 00 00
	00		 add	 ecx, 144		; 00000090H
  00564	e8 00 00 00 00	 call	 ?LoadData@CKanturuBattleStanby@@QAEHPAD@Z ; CKanturuBattleStanby::LoadData

; 155  : 		this->m_BattleOfMaya.LoadData(gDirPath.GetNewPath(".\\Events\\Kanturu.dat"));

  00569	68 00 00 00 00	 push	 OFFSET ??_C@_0BF@OBGFNJKC@?4?2Events?2Kanturu?4dat?$AA@
  0056e	b9 00 00 00 00	 mov	 ecx, OFFSET ?gDirPath@@3VCDirPath@@A ; gDirPath
  00573	e8 00 00 00 00	 call	 ?GetNewPath@CDirPath@@QAEPADPAD@Z ; CDirPath::GetNewPath
  00578	89 45 8c	 mov	 DWORD PTR tv215[ebp], eax
  0057b	8b 45 8c	 mov	 eax, DWORD PTR tv215[ebp]
  0057e	50		 push	 eax
  0057f	8b 4d ec	 mov	 ecx, DWORD PTR _this$[ebp]
  00582	81 c1 f4 00 00
	00		 add	 ecx, 244		; 000000f4H
  00588	e8 00 00 00 00	 call	 ?LoadData@CKanturuBattleOfMaya@@QAEHPAD@Z ; CKanturuBattleOfMaya::LoadData

; 156  : 		this->m_BattleOfNightmare.LoadData(gDirPath.GetNewPath(".\\Events\\Kanturu.dat"));

  0058d	68 00 00 00 00	 push	 OFFSET ??_C@_0BF@OBGFNJKC@?4?2Events?2Kanturu?4dat?$AA@
  00592	b9 00 00 00 00	 mov	 ecx, OFFSET ?gDirPath@@3VCDirPath@@A ; gDirPath
  00597	e8 00 00 00 00	 call	 ?GetNewPath@CDirPath@@QAEPADPAD@Z ; CDirPath::GetNewPath
  0059c	89 45 8c	 mov	 DWORD PTR tv216[ebp], eax
  0059f	8b 45 8c	 mov	 eax, DWORD PTR tv216[ebp]
  005a2	50		 push	 eax
  005a3	8b 4d ec	 mov	 ecx, DWORD PTR _this$[ebp]
  005a6	81 c1 20 03 00
	00		 add	 ecx, 800		; 00000320H
  005ac	e8 00 00 00 00	 call	 ?LoadData@CKanturuBattleOfNightmare@@QAEHPAD@Z ; CKanturuBattleOfNightmare::LoadData

; 157  : 		this->m_TowerOfRefinement.LoadData(gDirPath.GetNewPath(".\\Events\\Kanturu.dat"));

  005b1	68 00 00 00 00	 push	 OFFSET ??_C@_0BF@OBGFNJKC@?4?2Events?2Kanturu?4dat?$AA@
  005b6	b9 00 00 00 00	 mov	 ecx, OFFSET ?gDirPath@@3VCDirPath@@A ; gDirPath
  005bb	e8 00 00 00 00	 call	 ?GetNewPath@CDirPath@@QAEPADPAD@Z ; CDirPath::GetNewPath
  005c0	89 45 8c	 mov	 DWORD PTR tv217[ebp], eax
  005c3	8b 45 8c	 mov	 eax, DWORD PTR tv217[ebp]
  005c6	50		 push	 eax
  005c7	8b 4d ec	 mov	 ecx, DWORD PTR _this$[ebp]
  005ca	81 c1 b4 03 00
	00		 add	 ecx, 948		; 000003b4H
  005d0	e8 00 00 00 00	 call	 ?LoadData@CKanturuTowerOfRefinement@@QAEHPAD@Z ; CKanturuTowerOfRefinement::LoadData

; 158  : 	}

  005d5	eb 1e		 jmp	 SHORT $LN24@LoadData
__catch$?LoadData@CKanturu@@QAEHPAD@Z$0:

; 159  : 	catch (...)
; 160  : 	{
; 161  : 		MsgBox("[ KANTURU ] - Loading Exception Error (%s) File. ", lpszFileName);

  005d7	8b 45 08	 mov	 eax, DWORD PTR _lpszFileName$[ebp]
  005da	50		 push	 eax
  005db	68 00 00 00 00	 push	 OFFSET ??_C@_0DC@FKIBHPBC@?$FL?5KANTURU?5?$FN?5?9?5Loading?5Exception?5@
  005e0	e8 00 00 00 00	 call	 ?MsgBox@@YAXPADZZ	; MsgBox
  005e5	83 c4 08	 add	 esp, 8

; 162  : 	}

  005e8	c7 45 fc ff ff
	ff ff		 mov	 DWORD PTR __$EHRec$[ebp+12], -1
  005ef	b8 00 00 00 00	 mov	 eax, $LN27@LoadData
  005f4	c3		 ret	 0
$LN24@LoadData:
  005f5	c7 45 fc ff ff
	ff ff		 mov	 DWORD PTR __$EHRec$[ebp+12], -1
$LN27@LoadData:

; 163  : 
; 164  : 	return this->m_bFileDataLoad;

  005fc	8b 45 ec	 mov	 eax, DWORD PTR _this$[ebp]
  005ff	8b 40 10	 mov	 eax, DWORD PTR [eax+16]
$LN20@LoadData:

; 165  : }

  00602	8b 4d f4	 mov	 ecx, DWORD PTR __$EHRec$[ebp+4]
  00605	64 89 0d 00 00
	00 00		 mov	 DWORD PTR fs:0, ecx
  0060c	59		 pop	 ecx
  0060d	5f		 pop	 edi
  0060e	5e		 pop	 esi
  0060f	5b		 pop	 ebx
  00610	8b e5		 mov	 esp, ebp
  00612	5d		 pop	 ebp
  00613	c2 04 00	 ret	 4
_TEXT	ENDS
text$x	SEGMENT
__ehhandler$?LoadData@CKanturu@@QAEHPAD@Z:
  000d2	8b 54 24 08	 mov	 edx, DWORD PTR [esp+8]
  000d6	8d 42 0c	 lea	 eax, DWORD PTR [edx+12]
  000d9	8b 4a 88	 mov	 ecx, DWORD PTR [edx-120]
  000dc	33 c8		 xor	 ecx, eax
  000de	e8 00 00 00 00	 call	 @__security_check_cookie@4
  000e3	b8 00 00 00 00	 mov	 eax, OFFSET __ehfuncinfo$?LoadData@CKanturu@@QAEHPAD@Z
  000e8	e9 00 00 00 00	 jmp	 ___CxxFrameHandler3
text$x	ENDS
?LoadData@CKanturu@@QAEHPAD@Z ENDP			; CKanturu::LoadData
; Function compile flags: /Odtp /ZI
; File d:\projects\exteam6.3\source\gameserver\gameserver\kanturu.h
;	COMDAT ?SetEnableCheckMoonStone@CKanturu@@QAEXH@Z
_TEXT	SEGMENT
_this$ = -4						; size = 4
_bEnable$ = 8						; size = 4
?SetEnableCheckMoonStone@CKanturu@@QAEXH@Z PROC		; CKanturu::SetEnableCheckMoonStone, COMDAT
; _this$ = ecx

; 80   : 	void SetEnableCheckMoonStone(BOOL bEnable){this->m_bEnableCheckMoonStone = bEnable;}

  00000	55		 push	 ebp
  00001	8b ec		 mov	 ebp, esp
  00003	83 ec 44	 sub	 esp, 68			; 00000044H
  00006	53		 push	 ebx
  00007	56		 push	 esi
  00008	57		 push	 edi
  00009	89 4d fc	 mov	 DWORD PTR _this$[ebp], ecx
  0000c	8b 45 fc	 mov	 eax, DWORD PTR _this$[ebp]
  0000f	8b 4d 08	 mov	 ecx, DWORD PTR _bEnable$[ebp]
  00012	89 88 b4 7f 0a
	00		 mov	 DWORD PTR [eax+688052], ecx
  00018	5f		 pop	 edi
  00019	5e		 pop	 esi
  0001a	5b		 pop	 ebx
  0001b	8b e5		 mov	 esp, ebp
  0001d	5d		 pop	 ebp
  0001e	c2 04 00	 ret	 4
?SetEnableCheckMoonStone@CKanturu@@QAEXH@Z ENDP		; CKanturu::SetEnableCheckMoonStone
_TEXT	ENDS
PUBLIC	__$ArrayPad$
EXTRN	_isalnum:PROC
EXTRN	_isalpha:PROC
EXTRN	_atof:PROC
EXTRN	_isdigit:PROC
EXTRN	_getc:PROC
EXTRN	_ungetc:PROC
EXTRN	_isspace:PROC
EXTRN	_fgetc:PROC
_BSS	SEGMENT
_CurrentToken DD 01H DUP (?)
; Function compile flags: /Odtp /ZI
; File d:\projects\exteam6.3\source\gameserver\include\readscript.h
_BSS	ENDS
_TEXT	SEGMENT
tv90 = -180						; size = 4
_TempString$ = -112					; size = 100
_p$ = -12						; size = 4
_ch$ = -5						; size = 1
__$ArrayPad$ = -4					; size = 4
?GetToken@@YA?AW4SMDToken@@XZ PROC			; GetToken

; 24   : {

  00620	55		 push	 ebp
  00621	8b ec		 mov	 ebp, esp
  00623	81 ec b4 00 00
	00		 sub	 esp, 180		; 000000b4H
  00629	a1 00 00 00 00	 mov	 eax, DWORD PTR ___security_cookie
  0062e	33 c5		 xor	 eax, ebp
  00630	89 45 fc	 mov	 DWORD PTR __$ArrayPad$[ebp], eax
  00633	53		 push	 ebx
  00634	56		 push	 esi
  00635	57		 push	 edi

; 25   : 	char ch;
; 26   : 	char* p;
; 27   : 	char TempString[100];
; 28   : 
; 29   : 	TokenString[0]=0;

  00636	c6 05 00 00 00
	00 00		 mov	 BYTE PTR _TokenString, 0
$LN31@GetToken:

; 30   : 
; 31   : 	do
; 32   : 	{
; 33   : 		if ((ch=fgetc(SMDFile)) == -1)

  0063d	a1 00 00 00 00	 mov	 eax, DWORD PTR _SMDFile
  00642	50		 push	 eax
  00643	e8 00 00 00 00	 call	 _fgetc
  00648	83 c4 04	 add	 esp, 4
  0064b	88 45 fb	 mov	 BYTE PTR _ch$[ebp], al
  0064e	0f be 4d fb	 movsx	 ecx, BYTE PTR _ch$[ebp]
  00652	83 f9 ff	 cmp	 ecx, -1
  00655	75 0c		 jne	 SHORT $LN28@GetToken

; 34   : 		{
; 35   : 			return END;	// End of FILE (EOF)

  00657	b8 02 00 00 00	 mov	 eax, 2
  0065c	e9 f7 02 00 00	 jmp	 $LN32@GetToken

; 36   : 		}
; 37   : 		else

  00661	eb 5b		 jmp	 SHORT $LN22@GetToken
$LN28@GetToken:

; 38   : 		{	
; 39   : 			if (ch=='/')		// this is /

  00663	0f be 45 fb	 movsx	 eax, BYTE PTR _ch$[ebp]
  00667	83 f8 2f	 cmp	 eax, 47			; 0000002fH
  0066a	75 52		 jne	 SHORT $LN22@GetToken

; 40   : 			{
; 41   : 				if((ch=fgetc(SMDFile)) == '/')

  0066c	a1 00 00 00 00	 mov	 eax, DWORD PTR _SMDFile
  00671	50		 push	 eax
  00672	e8 00 00 00 00	 call	 _fgetc
  00677	83 c4 04	 add	 esp, 4
  0067a	88 45 fb	 mov	 BYTE PTR _ch$[ebp], al
  0067d	0f be 4d fb	 movsx	 ecx, BYTE PTR _ch$[ebp]
  00681	83 f9 2f	 cmp	 ecx, 47			; 0000002fH
  00684	75 38		 jne	 SHORT $LN22@GetToken
$LN24@GetToken:

; 42   : 				{
; 43   : 					while ((ch != '\n') && (ch != -1))	// End of Line (EOL)

  00686	0f be 45 fb	 movsx	 eax, BYTE PTR _ch$[ebp]
  0068a	83 f8 0a	 cmp	 eax, 10			; 0000000aH
  0068d	74 1c		 je	 SHORT $LN23@GetToken
  0068f	0f be 45 fb	 movsx	 eax, BYTE PTR _ch$[ebp]
  00693	83 f8 ff	 cmp	 eax, -1
  00696	74 13		 je	 SHORT $LN23@GetToken

; 44   : 					{
; 45   : 						ch=fgetc(SMDFile);

  00698	a1 00 00 00 00	 mov	 eax, DWORD PTR _SMDFile
  0069d	50		 push	 eax
  0069e	e8 00 00 00 00	 call	 _fgetc
  006a3	83 c4 04	 add	 esp, 4
  006a6	88 45 fb	 mov	 BYTE PTR _ch$[ebp], al

; 46   : 					}

  006a9	eb db		 jmp	 SHORT $LN24@GetToken
$LN23@GetToken:

; 47   : 	
; 48   : 					if (ch == -1)

  006ab	0f be 45 fb	 movsx	 eax, BYTE PTR _ch$[ebp]
  006af	83 f8 ff	 cmp	 eax, -1
  006b2	75 0a		 jne	 SHORT $LN22@GetToken

; 49   : 					{
; 50   : 						return END;	// End of FILE

  006b4	b8 02 00 00 00	 mov	 eax, 2
  006b9	e9 9a 02 00 00	 jmp	 $LN32@GetToken
$LN22@GetToken:

; 51   : 					}
; 52   : 				}
; 53   : 			}
; 54   : 		}
; 55   : 	}
; 56   : 	while (isspace(ch) != 0);

  006be	0f be 45 fb	 movsx	 eax, BYTE PTR _ch$[ebp]
  006c2	50		 push	 eax
  006c3	e8 00 00 00 00	 call	 _isspace
  006c8	83 c4 04	 add	 esp, 4
  006cb	85 c0		 test	 eax, eax
  006cd	0f 85 6a ff ff
	ff		 jne	 $LN31@GetToken

; 57   : 
; 58   : 	
; 59   : 	switch(ch)

  006d3	0f be 45 fb	 movsx	 eax, BYTE PTR _ch$[ebp]
  006d7	89 85 4c ff ff
	ff		 mov	 DWORD PTR tv90[ebp], eax
  006dd	8b 8d 4c ff ff
	ff		 mov	 ecx, DWORD PTR tv90[ebp]
  006e3	83 e9 22	 sub	 ecx, 34			; 00000022H
  006e6	89 8d 4c ff ff
	ff		 mov	 DWORD PTR tv90[ebp], ecx
  006ec	83 bd 4c ff ff
	ff 5b		 cmp	 DWORD PTR tv90[ebp], 91	; 0000005bH
  006f3	0f 87 a3 01 00
	00		 ja	 $LN6@GetToken
  006f9	8b 95 4c ff ff
	ff		 mov	 edx, DWORD PTR tv90[ebp]
  006ff	0f b6 82 00 00
	00 00		 movzx	 eax, BYTE PTR $LN34@GetToken[edx]
  00706	ff 24 85 00 00
	00 00		 jmp	 DWORD PTR $LN35@GetToken[eax*4]
$LN19@GetToken:

; 60   : 	{
; 61   : 
; 62   : 	case 0x23:	// #
; 63   : 		return CurrentToken=COMMAND;

  0070d	c7 05 00 00 00
	00 23 00 00 00	 mov	 DWORD PTR _CurrentToken, 35 ; 00000023H
  00717	a1 00 00 00 00	 mov	 eax, DWORD PTR _CurrentToken
  0071c	e9 37 02 00 00	 jmp	 $LN32@GetToken

; 64   : 		break;

  00721	e9 30 02 00 00	 jmp	 $LN20@GetToken
$LN18@GetToken:

; 65   : 	
; 66   : 	case 0x3B:	// ;
; 67   : 		return CurrentToken=SEMICOLON;

  00726	c7 05 00 00 00
	00 3b 00 00 00	 mov	 DWORD PTR _CurrentToken, 59 ; 0000003bH
  00730	a1 00 00 00 00	 mov	 eax, DWORD PTR _CurrentToken
  00735	e9 1e 02 00 00	 jmp	 $LN32@GetToken

; 68   : 		break;

  0073a	e9 17 02 00 00	 jmp	 $LN20@GetToken
$LN17@GetToken:

; 69   : 	
; 70   : 	case 0x2C:	// ,
; 71   : 
; 72   : 		return CurrentToken=COMMA;

  0073f	c7 05 00 00 00
	00 2c 00 00 00	 mov	 DWORD PTR _CurrentToken, 44 ; 0000002cH
  00749	a1 00 00 00 00	 mov	 eax, DWORD PTR _CurrentToken
  0074e	e9 05 02 00 00	 jmp	 $LN32@GetToken

; 73   : 		break;

  00753	e9 fe 01 00 00	 jmp	 $LN20@GetToken
$LN16@GetToken:

; 74   : 	
; 75   : 	case 0x7B:	// {
; 76   : 		return CurrentToken = LP;

  00758	c7 05 00 00 00
	00 7b 00 00 00	 mov	 DWORD PTR _CurrentToken, 123 ; 0000007bH
  00762	a1 00 00 00 00	 mov	 eax, DWORD PTR _CurrentToken
  00767	e9 ec 01 00 00	 jmp	 $LN32@GetToken

; 77   : 		break;

  0076c	e9 e5 01 00 00	 jmp	 $LN20@GetToken
$LN15@GetToken:

; 78   : 
; 79   : 	case 0x7D:	// }
; 80   : 		return CurrentToken = RP;

  00771	c7 05 00 00 00
	00 7d 00 00 00	 mov	 DWORD PTR _CurrentToken, 125 ; 0000007dH
  0077b	a1 00 00 00 00	 mov	 eax, DWORD PTR _CurrentToken
  00780	e9 d3 01 00 00	 jmp	 $LN32@GetToken

; 81   : 		break;

  00785	e9 cc 01 00 00	 jmp	 $LN20@GetToken
$LN14@GetToken:

; 82   : 	// Nice Index Table :)	by Deathway
; 83   : 	// Numbers Case
; 84   : 	case 0x2D:	//-
; 85   : 	case 0x2E:	//.
; 86   : 	case '0':	//0
; 87   : 	case '1':	//1
; 88   : 	case '2':	//2
; 89   : 	case '3':	//3
; 90   : 	case '4':	//4		
; 91   : 	case '5':	//5
; 92   : 	case '6':	//6
; 93   : 	case '7':	//7
; 94   : 	case '8':	//8
; 95   : 	case '9':	//9
; 96   : 		ungetc(ch, SMDFile);

  0078a	a1 00 00 00 00	 mov	 eax, DWORD PTR _SMDFile
  0078f	50		 push	 eax
  00790	0f be 4d fb	 movsx	 ecx, BYTE PTR _ch$[ebp]
  00794	51		 push	 ecx
  00795	e8 00 00 00 00	 call	 _ungetc
  0079a	83 c4 08	 add	 esp, 8

; 97   : 		p = TempString;

  0079d	8d 45 90	 lea	 eax, DWORD PTR _TempString$[ebp]
  007a0	89 45 f4	 mov	 DWORD PTR _p$[ebp], eax
$LN13@GetToken:

; 98   : 		
; 99   : 		while (((ch=getc(SMDFile)) != -1) && ((ch == 0x2E) || (isdigit(ch) != 0) || (ch == 0x2D)))  // 2e '.'  2D '-'

  007a3	a1 00 00 00 00	 mov	 eax, DWORD PTR _SMDFile
  007a8	50		 push	 eax
  007a9	e8 00 00 00 00	 call	 _getc
  007ae	83 c4 04	 add	 esp, 4
  007b1	88 45 fb	 mov	 BYTE PTR _ch$[ebp], al
  007b4	0f be 4d fb	 movsx	 ecx, BYTE PTR _ch$[ebp]
  007b8	83 f9 ff	 cmp	 ecx, -1
  007bb	74 36		 je	 SHORT $LN12@GetToken
  007bd	0f be 45 fb	 movsx	 eax, BYTE PTR _ch$[ebp]
  007c1	83 f8 2e	 cmp	 eax, 46			; 0000002eH
  007c4	74 1a		 je	 SHORT $LN11@GetToken
  007c6	0f be 45 fb	 movsx	 eax, BYTE PTR _ch$[ebp]
  007ca	50		 push	 eax
  007cb	e8 00 00 00 00	 call	 _isdigit
  007d0	83 c4 04	 add	 esp, 4
  007d3	85 c0		 test	 eax, eax
  007d5	75 09		 jne	 SHORT $LN11@GetToken
  007d7	0f be 45 fb	 movsx	 eax, BYTE PTR _ch$[ebp]
  007db	83 f8 2d	 cmp	 eax, 45			; 0000002dH
  007de	75 13		 jne	 SHORT $LN12@GetToken
$LN11@GetToken:

; 100  : 		{
; 101  : 			*p = ch;	// Construct a String

  007e0	8b 45 f4	 mov	 eax, DWORD PTR _p$[ebp]
  007e3	8a 4d fb	 mov	 cl, BYTE PTR _ch$[ebp]
  007e6	88 08		 mov	 BYTE PTR [eax], cl

; 102  : 			p++;

  007e8	8b 45 f4	 mov	 eax, DWORD PTR _p$[ebp]
  007eb	83 c0 01	 add	 eax, 1
  007ee	89 45 f4	 mov	 DWORD PTR _p$[ebp], eax

; 103  : 		}		

  007f1	eb b0		 jmp	 SHORT $LN13@GetToken
$LN12@GetToken:

; 104  : 		*p = 0;

  007f3	8b 45 f4	 mov	 eax, DWORD PTR _p$[ebp]
  007f6	c6 00 00	 mov	 BYTE PTR [eax], 0

; 105  : 		TokenNumber = atof( TempString);	// Select the first Byte as Main ID

  007f9	8d 45 90	 lea	 eax, DWORD PTR _TempString$[ebp]
  007fc	50		 push	 eax
  007fd	e8 00 00 00 00	 call	 _atof
  00802	83 c4 04	 add	 esp, 4
  00805	d9 1d 00 00 00
	00		 fstp	 DWORD PTR _TokenNumber

; 106  : 		return CurrentToken  = NUMBER ;

  0080b	c7 05 00 00 00
	00 01 00 00 00	 mov	 DWORD PTR _CurrentToken, 1
  00815	a1 00 00 00 00	 mov	 eax, DWORD PTR _CurrentToken
  0081a	e9 39 01 00 00	 jmp	 $LN32@GetToken

; 107  : 		break;

  0081f	e9 32 01 00 00	 jmp	 $LN20@GetToken
$LN10@GetToken:

; 108  : 
; 109  : 	case '\"':	// "	String Case
; 110  : 		p=&TokenString[0];

  00824	c7 45 f4 00 00
	00 00		 mov	 DWORD PTR _p$[ebp], OFFSET _TokenString
$LN9@GetToken:

; 111  : 		
; 112  : 		while (((ch=getc(SMDFile)) != -1 ) && (ch != 0x22))	// nice

  0082b	a1 00 00 00 00	 mov	 eax, DWORD PTR _SMDFile
  00830	50		 push	 eax
  00831	e8 00 00 00 00	 call	 _getc
  00836	83 c4 04	 add	 esp, 4
  00839	88 45 fb	 mov	 BYTE PTR _ch$[ebp], al
  0083c	0f be 4d fb	 movsx	 ecx, BYTE PTR _ch$[ebp]
  00840	83 f9 ff	 cmp	 ecx, -1
  00843	74 1c		 je	 SHORT $LN8@GetToken
  00845	0f be 45 fb	 movsx	 eax, BYTE PTR _ch$[ebp]
  00849	83 f8 22	 cmp	 eax, 34			; 00000022H
  0084c	74 13		 je	 SHORT $LN8@GetToken

; 113  : 		{
; 114  : 			*p = ch;

  0084e	8b 45 f4	 mov	 eax, DWORD PTR _p$[ebp]
  00851	8a 4d fb	 mov	 cl, BYTE PTR _ch$[ebp]
  00854	88 08		 mov	 BYTE PTR [eax], cl

; 115  : 			p++;

  00856	8b 45 f4	 mov	 eax, DWORD PTR _p$[ebp]
  00859	83 c0 01	 add	 eax, 1
  0085c	89 45 f4	 mov	 DWORD PTR _p$[ebp], eax

; 116  : 		}

  0085f	eb ca		 jmp	 SHORT $LN9@GetToken
$LN8@GetToken:

; 117  : 		if (ch != 0x22 )

  00861	0f be 45 fb	 movsx	 eax, BYTE PTR _ch$[ebp]
  00865	83 f8 22	 cmp	 eax, 34			; 00000022H
  00868	74 13		 je	 SHORT $LN7@GetToken

; 118  : 		{
; 119  : 			ungetc(ch, SMDFile);

  0086a	a1 00 00 00 00	 mov	 eax, DWORD PTR _SMDFile
  0086f	50		 push	 eax
  00870	0f be 4d fb	 movsx	 ecx, BYTE PTR _ch$[ebp]
  00874	51		 push	 ecx
  00875	e8 00 00 00 00	 call	 _ungetc
  0087a	83 c4 08	 add	 esp, 8
$LN7@GetToken:

; 120  : 		}
; 121  : 		*p = 0;

  0087d	8b 45 f4	 mov	 eax, DWORD PTR _p$[ebp]
  00880	c6 00 00	 mov	 BYTE PTR [eax], 0

; 122  : 		return CurrentToken = NAME;

  00883	c7 05 00 00 00
	00 00 00 00 00	 mov	 DWORD PTR _CurrentToken, 0
  0088d	a1 00 00 00 00	 mov	 eax, DWORD PTR _CurrentToken
  00892	e9 c1 00 00 00	 jmp	 $LN32@GetToken

; 123  : 		break;

  00897	e9 ba 00 00 00	 jmp	 $LN20@GetToken
$LN6@GetToken:

; 124  : 
; 125  : 	default:	// Others
; 126  : 		if (isalpha(ch))

  0089c	0f be 45 fb	 movsx	 eax, BYTE PTR _ch$[ebp]
  008a0	50		 push	 eax
  008a1	e8 00 00 00 00	 call	 _isalpha
  008a6	83 c4 04	 add	 esp, 4
  008a9	85 c0		 test	 eax, eax
  008ab	0f 84 94 00 00
	00		 je	 $LN5@GetToken

; 127  : 		{
; 128  : 			p=&TokenString[0];

  008b1	c7 45 f4 00 00
	00 00		 mov	 DWORD PTR _p$[ebp], OFFSET _TokenString

; 129  : 			*p=ch;

  008b8	8b 45 f4	 mov	 eax, DWORD PTR _p$[ebp]
  008bb	8a 4d fb	 mov	 cl, BYTE PTR _ch$[ebp]
  008be	88 08		 mov	 BYTE PTR [eax], cl

; 130  : 			p++;

  008c0	8b 45 f4	 mov	 eax, DWORD PTR _p$[ebp]
  008c3	83 c0 01	 add	 eax, 1
  008c6	89 45 f4	 mov	 DWORD PTR _p$[ebp], eax
$LN4@GetToken:

; 131  : 
; 132  : 			while ( ((ch=getc(SMDFile)) != -1) && ( (ch == 0x2E) || (ch == 0x5F) || (isalnum(ch) != 0) ) )

  008c9	a1 00 00 00 00	 mov	 eax, DWORD PTR _SMDFile
  008ce	50		 push	 eax
  008cf	e8 00 00 00 00	 call	 _getc
  008d4	83 c4 04	 add	 esp, 4
  008d7	88 45 fb	 mov	 BYTE PTR _ch$[ebp], al
  008da	0f be 4d fb	 movsx	 ecx, BYTE PTR _ch$[ebp]
  008de	83 f9 ff	 cmp	 ecx, -1
  008e1	74 36		 je	 SHORT $LN3@GetToken
  008e3	0f be 45 fb	 movsx	 eax, BYTE PTR _ch$[ebp]
  008e7	83 f8 2e	 cmp	 eax, 46			; 0000002eH
  008ea	74 1a		 je	 SHORT $LN2@GetToken
  008ec	0f be 45 fb	 movsx	 eax, BYTE PTR _ch$[ebp]
  008f0	83 f8 5f	 cmp	 eax, 95			; 0000005fH
  008f3	74 11		 je	 SHORT $LN2@GetToken
  008f5	0f be 45 fb	 movsx	 eax, BYTE PTR _ch$[ebp]
  008f9	50		 push	 eax
  008fa	e8 00 00 00 00	 call	 _isalnum
  008ff	83 c4 04	 add	 esp, 4
  00902	85 c0		 test	 eax, eax
  00904	74 13		 je	 SHORT $LN3@GetToken
$LN2@GetToken:

; 133  : 			{
; 134  : 				*p=ch;

  00906	8b 45 f4	 mov	 eax, DWORD PTR _p$[ebp]
  00909	8a 4d fb	 mov	 cl, BYTE PTR _ch$[ebp]
  0090c	88 08		 mov	 BYTE PTR [eax], cl

; 135  : 				p++;

  0090e	8b 45 f4	 mov	 eax, DWORD PTR _p$[ebp]
  00911	83 c0 01	 add	 eax, 1
  00914	89 45 f4	 mov	 DWORD PTR _p$[ebp], eax

; 136  : 				
; 137  : 			}

  00917	eb b0		 jmp	 SHORT $LN4@GetToken
$LN3@GetToken:

; 138  : 
; 139  : 			ungetc(ch, SMDFile);

  00919	a1 00 00 00 00	 mov	 eax, DWORD PTR _SMDFile
  0091e	50		 push	 eax
  0091f	0f be 4d fb	 movsx	 ecx, BYTE PTR _ch$[ebp]
  00923	51		 push	 ecx
  00924	e8 00 00 00 00	 call	 _ungetc
  00929	83 c4 08	 add	 esp, 8

; 140  : 			*p=0;

  0092c	8b 45 f4	 mov	 eax, DWORD PTR _p$[ebp]
  0092f	c6 00 00	 mov	 BYTE PTR [eax], 0

; 141  : 			CurrentToken=NAME;

  00932	c7 05 00 00 00
	00 00 00 00 00	 mov	 DWORD PTR _CurrentToken, 0

; 142  : 			return CurrentToken;

  0093c	a1 00 00 00 00	 mov	 eax, DWORD PTR _CurrentToken
  00941	eb 15		 jmp	 SHORT $LN32@GetToken

; 143  : 		}
; 144  : 		else

  00943	eb 11		 jmp	 SHORT $LN1@GetToken
$LN5@GetToken:

; 145  : 		{
; 146  : 			return CurrentToken = SMD_ERROR; // '<'

  00945	c7 05 00 00 00
	00 3c 00 00 00	 mov	 DWORD PTR _CurrentToken, 60 ; 0000003cH
  0094f	a1 00 00 00 00	 mov	 eax, DWORD PTR _CurrentToken
  00954	eb 02		 jmp	 SHORT $LN32@GetToken
$LN1@GetToken:
$LN20@GetToken:

; 147  : 		}
; 148  : 		break;
; 149  : 
; 150  : 	}
; 151  : 
; 152  : 	return NAME;

  00956	33 c0		 xor	 eax, eax
$LN32@GetToken:

; 153  : }

  00958	5f		 pop	 edi
  00959	5e		 pop	 esi
  0095a	5b		 pop	 ebx
  0095b	8b 4d fc	 mov	 ecx, DWORD PTR __$ArrayPad$[ebp]
  0095e	33 cd		 xor	 ecx, ebp
  00960	e8 00 00 00 00	 call	 @__security_check_cookie@4
  00965	8b e5		 mov	 esp, ebp
  00967	5d		 pop	 ebp
  00968	c3		 ret	 0
  00969	8d 49 00	 npad	 3
$LN35@GetToken:
  0096c	00 00 00 00	 DD	 $LN10@GetToken
  00970	00 00 00 00	 DD	 $LN19@GetToken
  00974	00 00 00 00	 DD	 $LN17@GetToken
  00978	00 00 00 00	 DD	 $LN14@GetToken
  0097c	00 00 00 00	 DD	 $LN18@GetToken
  00980	00 00 00 00	 DD	 $LN16@GetToken
  00984	00 00 00 00	 DD	 $LN15@GetToken
  00988	00 00 00 00	 DD	 $LN6@GetToken
$LN34@GetToken:
  0098c	00		 DB	 0
  0098d	01		 DB	 1
  0098e	07		 DB	 7
  0098f	07		 DB	 7
  00990	07		 DB	 7
  00991	07		 DB	 7
  00992	07		 DB	 7
  00993	07		 DB	 7
  00994	07		 DB	 7
  00995	07		 DB	 7
  00996	02		 DB	 2
  00997	03		 DB	 3
  00998	03		 DB	 3
  00999	07		 DB	 7
  0099a	03		 DB	 3
  0099b	03		 DB	 3
  0099c	03		 DB	 3
  0099d	03		 DB	 3
  0099e	03		 DB	 3
  0099f	03		 DB	 3
  009a0	03		 DB	 3
  009a1	03		 DB	 3
  009a2	03		 DB	 3
  009a3	03		 DB	 3
  009a4	07		 DB	 7
  009a5	04		 DB	 4
  009a6	07		 DB	 7
  009a7	07		 DB	 7
  009a8	07		 DB	 7
  009a9	07		 DB	 7
  009aa	07		 DB	 7
  009ab	07		 DB	 7
  009ac	07		 DB	 7
  009ad	07		 DB	 7
  009ae	07		 DB	 7
  009af	07		 DB	 7
  009b0	07		 DB	 7
  009b1	07		 DB	 7
  009b2	07		 DB	 7
  009b3	07		 DB	 7
  009b4	07		 DB	 7
  009b5	07		 DB	 7
  009b6	07		 DB	 7
  009b7	07		 DB	 7
  009b8	07		 DB	 7
  009b9	07		 DB	 7
  009ba	07		 DB	 7
  009bb	07		 DB	 7
  009bc	07		 DB	 7
  009bd	07		 DB	 7
  009be	07		 DB	 7
  009bf	07		 DB	 7
  009c0	07		 DB	 7
  009c1	07		 DB	 7
  009c2	07		 DB	 7
  009c3	07		 DB	 7
  009c4	07		 DB	 7
  009c5	07		 DB	 7
  009c6	07		 DB	 7
  009c7	07		 DB	 7
  009c8	07		 DB	 7
  009c9	07		 DB	 7
  009ca	07		 DB	 7
  009cb	07		 DB	 7
  009cc	07		 DB	 7
  009cd	07		 DB	 7
  009ce	07		 DB	 7
  009cf	07		 DB	 7
  009d0	07		 DB	 7
  009d1	07		 DB	 7
  009d2	07		 DB	 7
  009d3	07		 DB	 7
  009d4	07		 DB	 7
  009d5	07		 DB	 7
  009d6	07		 DB	 7
  009d7	07		 DB	 7
  009d8	07		 DB	 7
  009d9	07		 DB	 7
  009da	07		 DB	 7
  009db	07		 DB	 7
  009dc	07		 DB	 7
  009dd	07		 DB	 7
  009de	07		 DB	 7
  009df	07		 DB	 7
  009e0	07		 DB	 7
  009e1	07		 DB	 7
  009e2	07		 DB	 7
  009e3	07		 DB	 7
  009e4	07		 DB	 7
  009e5	05		 DB	 5
  009e6	07		 DB	 7
  009e7	06		 DB	 6
?GetToken@@YA?AW4SMDToken@@XZ ENDP			; GetToken
_TEXT	ENDS
PUBLIC	?LoadKanturuMapAttr@CKanturu@@QAEXPADE@Z	; CKanturu::LoadKanturuMapAttr
EXTRN	?LoadMapAttr@MapClass@@QAEXPADH@Z:PROC		; MapClass::LoadMapAttr
; Function compile flags: /Odtp /ZI
; File d:\projects\exteam6.3\source\gameserver\gameserver\kanturu.cpp
_TEXT	SEGMENT
tv68 = -72						; size = 4
_this$ = -4						; size = 4
_lpszFileName$ = 8					; size = 4
_btLevel$ = 12						; size = 1
?LoadKanturuMapAttr@CKanturu@@QAEXPADE@Z PROC		; CKanturu::LoadKanturuMapAttr
; _this$ = ecx

; 171  : {

  009f0	55		 push	 ebp
  009f1	8b ec		 mov	 ebp, esp
  009f3	83 ec 48	 sub	 esp, 72			; 00000048H
  009f6	53		 push	 ebx
  009f7	56		 push	 esi
  009f8	57		 push	 edi
  009f9	89 4d fc	 mov	 DWORD PTR _this$[ebp], ecx

; 172  : 	if ( !lpszFileName || btLevel > MAX_KANTURU_MAP_LEVEL )

  009fc	83 7d 08 00	 cmp	 DWORD PTR _lpszFileName$[ebp], 0
  00a00	74 09		 je	 SHORT $LN5@LoadKantur
  00a02	0f b6 45 0c	 movzx	 eax, BYTE PTR _btLevel$[ebp]
  00a06	83 f8 02	 cmp	 eax, 2
  00a09	7e 02		 jle	 SHORT $LN6@LoadKantur
$LN5@LoadKantur:

; 173  : 		return;

  00a0b	eb 54		 jmp	 SHORT $LN7@LoadKantur
$LN6@LoadKantur:

; 174  : 
; 175  : 	switch ( btLevel )

  00a0d	8a 45 0c	 mov	 al, BYTE PTR _btLevel$[ebp]
  00a10	88 45 b8	 mov	 BYTE PTR tv68[ebp], al
  00a13	80 7d b8 00	 cmp	 BYTE PTR tv68[ebp], 0
  00a17	74 08		 je	 SHORT $LN2@LoadKantur
  00a19	80 7d b8 01	 cmp	 BYTE PTR tv68[ebp], 1
  00a1d	74 23		 je	 SHORT $LN1@LoadKantur
  00a1f	eb 40		 jmp	 SHORT $LN7@LoadKantur
$LN2@LoadKantur:

; 176  : 	{
; 177  : 		case KANTURU_MAP_CLOSE:
; 178  : 			this->m_KanturuMap[btLevel].LoadMapAttr(lpszFileName, MAP_INDEX_KANTURU_BOSS);

  00a21	6a 27		 push	 39			; 00000027H
  00a23	8b 45 08	 mov	 eax, DWORD PTR _lpszFileName$[ebp]
  00a26	50		 push	 eax
  00a27	0f b6 4d 0c	 movzx	 ecx, BYTE PTR _btLevel$[ebp]
  00a2b	69 c9 b8 3d 05
	00		 imul	 ecx, 343480		; 00053db8H
  00a31	8b 55 fc	 mov	 edx, DWORD PTR _this$[ebp]
  00a34	8d 8c 0a 44 04
	00 00		 lea	 ecx, DWORD PTR [edx+ecx+1092]
  00a3b	e8 00 00 00 00	 call	 ?LoadMapAttr@MapClass@@QAEXPADH@Z ; MapClass::LoadMapAttr

; 179  : 			break;

  00a40	eb 1f		 jmp	 SHORT $LN7@LoadKantur
$LN1@LoadKantur:

; 180  : 		case KANTURU_MAP_OPEN:
; 181  : 			this->m_KanturuMap[btLevel].LoadMapAttr(lpszFileName, MAP_INDEX_KANTURU_BOSS);

  00a42	6a 27		 push	 39			; 00000027H
  00a44	8b 45 08	 mov	 eax, DWORD PTR _lpszFileName$[ebp]
  00a47	50		 push	 eax
  00a48	0f b6 4d 0c	 movzx	 ecx, BYTE PTR _btLevel$[ebp]
  00a4c	69 c9 b8 3d 05
	00		 imul	 ecx, 343480		; 00053db8H
  00a52	8b 55 fc	 mov	 edx, DWORD PTR _this$[ebp]
  00a55	8d 8c 0a 44 04
	00 00		 lea	 ecx, DWORD PTR [edx+ecx+1092]
  00a5c	e8 00 00 00 00	 call	 ?LoadMapAttr@MapClass@@QAEXPADH@Z ; MapClass::LoadMapAttr
$LN7@LoadKantur:

; 182  : 			break;
; 183  : 	}
; 184  : }

  00a61	5f		 pop	 edi
  00a62	5e		 pop	 esi
  00a63	5b		 pop	 ebx
  00a64	8b e5		 mov	 esp, ebp
  00a66	5d		 pop	 ebp
  00a67	c2 08 00	 ret	 8
?LoadKanturuMapAttr@CKanturu@@QAEXPADE@Z ENDP		; CKanturu::LoadKanturuMapAttr
_TEXT	ENDS
PUBLIC	??_C@_0EB@FNIFEOPG@?$FL?5KANTURU?5?$FN?$FL?5Map?5Attr?5Change?5?$FN?5M@ ; `string'
PUBLIC	?GetKanturuState@CKanturu@@QAEHXZ		; CKanturu::GetKanturuState
PUBLIC	?GetKanturuDetailState@CKanturu@@QAEHXZ		; CKanturu::GetKanturuDetailState
PUBLIC	?SetKanturuMapAttr@CKanturu@@QAEXE@Z		; CKanturu::SetKanturuMapAttr
EXTRN	_memcpy:PROC
EXTRN	?MapC@@3PAVMapClass@@A:BYTE			; MapC
;	COMDAT ??_C@_0EB@FNIFEOPG@?$FL?5KANTURU?5?$FN?$FL?5Map?5Attr?5Change?5?$FN?5M@
CONST	SEGMENT
??_C@_0EB@FNIFEOPG@?$FL?5KANTURU?5?$FN?$FL?5Map?5Attr?5Change?5?$FN?5M@ DB '['
	DB	' KANTURU ][ Map Attr Change ] Map(%d) State(%d) DetailState(%'
	DB	'd)', 00H					; `string'
; Function compile flags: /Odtp /ZI
CONST	ENDS
_TEXT	SEGMENT
_KanturuMap$ = -8					; size = 4
_this$ = -4						; size = 4
_btLevel$ = 8						; size = 1
?SetKanturuMapAttr@CKanturu@@QAEXE@Z PROC		; CKanturu::SetKanturuMapAttr
; _this$ = ecx

; 189  : {

  00a70	55		 push	 ebp
  00a71	8b ec		 mov	 ebp, esp
  00a73	83 ec 48	 sub	 esp, 72			; 00000048H
  00a76	53		 push	 ebx
  00a77	56		 push	 esi
  00a78	57		 push	 edi
  00a79	89 4d fc	 mov	 DWORD PTR _this$[ebp], ecx

; 190  : 	MapClass & KanturuMap = this->m_KanturuMap[btLevel];

  00a7c	0f b6 45 08	 movzx	 eax, BYTE PTR _btLevel$[ebp]
  00a80	69 c0 b8 3d 05
	00		 imul	 eax, 343480		; 00053db8H
  00a86	8b 4d fc	 mov	 ecx, DWORD PTR _this$[ebp]
  00a89	8d 94 01 44 04
	00 00		 lea	 edx, DWORD PTR [ecx+eax+1092]
  00a90	89 55 f8	 mov	 DWORD PTR _KanturuMap$[ebp], edx

; 191  : 	memcpy(MapC[MAP_INDEX_KANTURU_BOSS].m_attrbuf, KanturuMap.m_attrbuf, 256*256);

  00a93	68 00 00 01 00	 push	 65536			; 00010000H
  00a98	8b 45 f8	 mov	 eax, DWORD PTR _KanturuMap$[ebp]
  00a9b	8b 48 10	 mov	 ecx, DWORD PTR [eax+16]
  00a9e	51		 push	 ecx
  00a9f	8b 15 18 67 cc
	00		 mov	 edx, DWORD PTR ?MapC@@3PAVMapClass@@A+13395736
  00aa5	52		 push	 edx
  00aa6	e8 00 00 00 00	 call	 _memcpy
  00aab	83 c4 0c	 add	 esp, 12			; 0000000cH

; 192  : 
; 193  : 	LogAddC(2, "[ KANTURU ][ Map Attr Change ] Map(%d) State(%d) DetailState(%d)",
; 194  : 		btLevel, this->GetKanturuState(), this->GetKanturuDetailState());

  00aae	8b 4d fc	 mov	 ecx, DWORD PTR _this$[ebp]
  00ab1	e8 00 00 00 00	 call	 ?GetKanturuDetailState@CKanturu@@QAEHXZ ; CKanturu::GetKanturuDetailState
  00ab6	50		 push	 eax
  00ab7	8b 4d fc	 mov	 ecx, DWORD PTR _this$[ebp]
  00aba	e8 00 00 00 00	 call	 ?GetKanturuState@CKanturu@@QAEHXZ ; CKanturu::GetKanturuState
  00abf	50		 push	 eax
  00ac0	0f b6 45 08	 movzx	 eax, BYTE PTR _btLevel$[ebp]
  00ac4	50		 push	 eax
  00ac5	68 00 00 00 00	 push	 OFFSET ??_C@_0EB@FNIFEOPG@?$FL?5KANTURU?5?$FN?$FL?5Map?5Attr?5Change?5?$FN?5M@
  00aca	6a 02		 push	 2
  00acc	ff 15 00 00 00
	00		 call	 DWORD PTR ?LogAddC@@3P6AXEPADZZA ; LogAddC
  00ad2	83 c4 14	 add	 esp, 20			; 00000014H

; 195  : 
; 196  : }

  00ad5	5f		 pop	 edi
  00ad6	5e		 pop	 esi
  00ad7	5b		 pop	 ebx
  00ad8	8b e5		 mov	 esp, ebp
  00ada	5d		 pop	 ebp
  00adb	c2 04 00	 ret	 4
?SetKanturuMapAttr@CKanturu@@QAEXE@Z ENDP		; CKanturu::SetKanturuMapAttr
; Function compile flags: /Odtp /ZI
; File d:\projects\exteam6.3\source\gameserver\gameserver\kanturu.h
_TEXT	ENDS
;	COMDAT ?GetKanturuState@CKanturu@@QAEHXZ
_TEXT	SEGMENT
_this$ = -4						; size = 4
?GetKanturuState@CKanturu@@QAEHXZ PROC			; CKanturu::GetKanturuState, COMDAT
; _this$ = ecx

; 71   : 	int GetKanturuState(){return this->m_iKanturuState;}

  00000	55		 push	 ebp
  00001	8b ec		 mov	 ebp, esp
  00003	83 ec 44	 sub	 esp, 68			; 00000044H
  00006	53		 push	 ebx
  00007	56		 push	 esi
  00008	57		 push	 edi
  00009	89 4d fc	 mov	 DWORD PTR _this$[ebp], ecx
  0000c	8b 45 fc	 mov	 eax, DWORD PTR _this$[ebp]
  0000f	8b 40 08	 mov	 eax, DWORD PTR [eax+8]
  00012	5f		 pop	 edi
  00013	5e		 pop	 esi
  00014	5b		 pop	 ebx
  00015	8b e5		 mov	 esp, ebp
  00017	5d		 pop	 ebp
  00018	c3		 ret	 0
?GetKanturuState@CKanturu@@QAEHXZ ENDP			; CKanturu::GetKanturuState
_TEXT	ENDS
PUBLIC	?ProcState_END@CKanturu@@QAEXXZ			; CKanturu::ProcState_END
PUBLIC	?ProcState_TOWER_OF_REFINEMENT@CKanturu@@QAEXXZ	; CKanturu::ProcState_TOWER_OF_REFINEMENT
PUBLIC	?ProcState_BATTLE_OF_NIGHTMARE@CKanturu@@QAEXXZ	; CKanturu::ProcState_BATTLE_OF_NIGHTMARE
PUBLIC	?ProcState_BATTLE_OF_MAYA@CKanturu@@QAEXXZ	; CKanturu::ProcState_BATTLE_OF_MAYA
PUBLIC	?ProcState_BATTLE_STANDBY@CKanturu@@QAEXXZ	; CKanturu::ProcState_BATTLE_STANDBY
PUBLIC	?ProcState_NONE@CKanturu@@QAEXXZ		; CKanturu::ProcState_NONE
PUBLIC	?CheckUserOnKanturuBossMap@CKanturu@@QAEXXZ	; CKanturu::CheckUserOnKanturuBossMap
PUBLIC	?CheckStateTime@CKanturu@@QAEXXZ		; CKanturu::CheckStateTime
PUBLIC	?IsKanturuEnable@CKanturu@@QAEHXZ		; CKanturu::IsKanturuEnable
PUBLIC	?Run@CKanturu@@QAEXXZ				; CKanturu::Run
; Function compile flags: /Odtp /ZI
; File d:\projects\exteam6.3\source\gameserver\gameserver\kanturu.cpp
_TEXT	SEGMENT
tv70 = -72						; size = 4
_this$ = -4						; size = 4
?Run@CKanturu@@QAEXXZ PROC				; CKanturu::Run
; _this$ = ecx

; 201  : {

  00ae0	55		 push	 ebp
  00ae1	8b ec		 mov	 ebp, esp
  00ae3	83 ec 48	 sub	 esp, 72			; 00000048H
  00ae6	53		 push	 ebx
  00ae7	56		 push	 esi
  00ae8	57		 push	 edi
  00ae9	89 4d fc	 mov	 DWORD PTR _this$[ebp], ecx

; 202  : 	if ( !this->IsKanturuEnable() )

  00aec	8b 4d fc	 mov	 ecx, DWORD PTR _this$[ebp]
  00aef	e8 00 00 00 00	 call	 ?IsKanturuEnable@CKanturu@@QAEHXZ ; CKanturu::IsKanturuEnable
  00af4	85 c0		 test	 eax, eax
  00af6	75 02		 jne	 SHORT $LN9@Run

; 203  : 		return;

  00af8	eb 63		 jmp	 SHORT $LN10@Run
$LN9@Run:

; 204  : 
; 205  : 	this->CheckStateTime();

  00afa	8b 4d fc	 mov	 ecx, DWORD PTR _this$[ebp]
  00afd	e8 00 00 00 00	 call	 ?CheckStateTime@CKanturu@@QAEXXZ ; CKanturu::CheckStateTime

; 206  : 	this->CheckUserOnKanturuBossMap();

  00b02	8b 4d fc	 mov	 ecx, DWORD PTR _this$[ebp]
  00b05	e8 00 00 00 00	 call	 ?CheckUserOnKanturuBossMap@CKanturu@@QAEXXZ ; CKanturu::CheckUserOnKanturuBossMap

; 207  : 
; 208  : 	switch ( this->m_iKanturuState )

  00b0a	8b 45 fc	 mov	 eax, DWORD PTR _this$[ebp]
  00b0d	8b 48 08	 mov	 ecx, DWORD PTR [eax+8]
  00b10	89 4d b8	 mov	 DWORD PTR tv70[ebp], ecx
  00b13	83 7d b8 05	 cmp	 DWORD PTR tv70[ebp], 5
  00b17	77 44		 ja	 SHORT $LN10@Run
  00b19	8b 55 b8	 mov	 edx, DWORD PTR tv70[ebp]
  00b1c	ff 24 95 00 00
	00 00		 jmp	 DWORD PTR $LN12@Run[edx*4]
$LN6@Run:

; 209  : 	{
; 210  : 		case KANTURU_STATE_NONE:
; 211  : 			this->ProcState_NONE();

  00b23	8b 4d fc	 mov	 ecx, DWORD PTR _this$[ebp]
  00b26	e8 00 00 00 00	 call	 ?ProcState_NONE@CKanturu@@QAEXXZ ; CKanturu::ProcState_NONE

; 212  : 			break;

  00b2b	eb 30		 jmp	 SHORT $LN10@Run
$LN5@Run:

; 213  : 		case KANTURU_STATE_BATTLE_STANTBY:
; 214  : 			this->ProcState_BATTLE_STANDBY();

  00b2d	8b 4d fc	 mov	 ecx, DWORD PTR _this$[ebp]
  00b30	e8 00 00 00 00	 call	 ?ProcState_BATTLE_STANDBY@CKanturu@@QAEXXZ ; CKanturu::ProcState_BATTLE_STANDBY

; 215  : 			break;

  00b35	eb 26		 jmp	 SHORT $LN10@Run
$LN4@Run:

; 216  : 		case KANTURU_STATE_BATTLE_OF_MAYA:
; 217  : 			this->ProcState_BATTLE_OF_MAYA();

  00b37	8b 4d fc	 mov	 ecx, DWORD PTR _this$[ebp]
  00b3a	e8 00 00 00 00	 call	 ?ProcState_BATTLE_OF_MAYA@CKanturu@@QAEXXZ ; CKanturu::ProcState_BATTLE_OF_MAYA

; 218  : 			break;

  00b3f	eb 1c		 jmp	 SHORT $LN10@Run
$LN3@Run:

; 219  : 		case KANTURU_STATE_BATTLE_OF_NIGHTMARE:
; 220  : 			this->ProcState_BATTLE_OF_NIGHTMARE();

  00b41	8b 4d fc	 mov	 ecx, DWORD PTR _this$[ebp]
  00b44	e8 00 00 00 00	 call	 ?ProcState_BATTLE_OF_NIGHTMARE@CKanturu@@QAEXXZ ; CKanturu::ProcState_BATTLE_OF_NIGHTMARE

; 221  : 			break;

  00b49	eb 12		 jmp	 SHORT $LN10@Run
$LN2@Run:

; 222  : 		case KANTURU_STATE_TOWER_OF_REFINEMENT:
; 223  : 			this->ProcState_TOWER_OF_REFINEMENT();

  00b4b	8b 4d fc	 mov	 ecx, DWORD PTR _this$[ebp]
  00b4e	e8 00 00 00 00	 call	 ?ProcState_TOWER_OF_REFINEMENT@CKanturu@@QAEXXZ ; CKanturu::ProcState_TOWER_OF_REFINEMENT

; 224  : 			break;

  00b53	eb 08		 jmp	 SHORT $LN10@Run
$LN1@Run:

; 225  : 		case KANTURU_STATE_END:
; 226  : 			this->ProcState_END();

  00b55	8b 4d fc	 mov	 ecx, DWORD PTR _this$[ebp]
  00b58	e8 00 00 00 00	 call	 ?ProcState_END@CKanturu@@QAEXXZ ; CKanturu::ProcState_END
$LN10@Run:

; 227  : 			break;
; 228  : 	}
; 229  : }

  00b5d	5f		 pop	 edi
  00b5e	5e		 pop	 esi
  00b5f	5b		 pop	 ebx
  00b60	8b e5		 mov	 esp, ebp
  00b62	5d		 pop	 ebp
  00b63	c3		 ret	 0
$LN12@Run:
  00b64	00 00 00 00	 DD	 $LN6@Run
  00b68	00 00 00 00	 DD	 $LN5@Run
  00b6c	00 00 00 00	 DD	 $LN4@Run
  00b70	00 00 00 00	 DD	 $LN3@Run
  00b74	00 00 00 00	 DD	 $LN2@Run
  00b78	00 00 00 00	 DD	 $LN1@Run
?Run@CKanturu@@QAEXXZ ENDP				; CKanturu::Run
; Function compile flags: /Odtp /ZI
; File d:\projects\exteam6.3\source\gameserver\gameserver\kanturu.h
_TEXT	ENDS
;	COMDAT ?IsKanturuEnable@CKanturu@@QAEHXZ
_TEXT	SEGMENT
_this$ = -4						; size = 4
?IsKanturuEnable@CKanturu@@QAEHXZ PROC			; CKanturu::IsKanturuEnable, COMDAT
; _this$ = ecx

; 69   : 	BOOL IsKanturuEnable(){return this->m_bKanturuEnable;}

  00000	55		 push	 ebp
  00001	8b ec		 mov	 ebp, esp
  00003	83 ec 44	 sub	 esp, 68			; 00000044H
  00006	53		 push	 ebx
  00007	56		 push	 esi
  00008	57		 push	 edi
  00009	89 4d fc	 mov	 DWORD PTR _this$[ebp], ecx
  0000c	8b 45 fc	 mov	 eax, DWORD PTR _this$[ebp]
  0000f	8b 40 04	 mov	 eax, DWORD PTR [eax+4]
  00012	5f		 pop	 edi
  00013	5e		 pop	 esi
  00014	5b		 pop	 ebx
  00015	8b e5		 mov	 esp, ebp
  00017	5d		 pop	 ebp
  00018	c3		 ret	 0
?IsKanturuEnable@CKanturu@@QAEHXZ ENDP			; CKanturu::IsKanturuEnable
_TEXT	ENDS
PUBLIC	?SetState_END@CKanturu@@QAEXXZ			; CKanturu::SetState_END
PUBLIC	?SetState_TOWER_OF_REFINEMENT@CKanturu@@QAEXXZ	; CKanturu::SetState_TOWER_OF_REFINEMENT
PUBLIC	?SetState_BATTLE_OF_NIGHTMARE@CKanturu@@QAEXXZ	; CKanturu::SetState_BATTLE_OF_NIGHTMARE
PUBLIC	?SetState_BATTLE_OF_MAYA@CKanturu@@QAEXXZ	; CKanturu::SetState_BATTLE_OF_MAYA
PUBLIC	?SetState_BATTLE_STANDBY@CKanturu@@QAEXXZ	; CKanturu::SetState_BATTLE_STANDBY
PUBLIC	?SetState_NONE@CKanturu@@QAEXXZ			; CKanturu::SetState_NONE
PUBLIC	?SetAppliedTime@CKanturuStateInfo@@QAEXXZ	; CKanturuStateInfo::SetAppliedTime
PUBLIC	?GetCondition@CKanturuStateInfo@@QAEHXZ		; CKanturuStateInfo::GetCondition
PUBLIC	?SetState@CKanturu@@QAEXH@Z			; CKanturu::SetState
EXTRN	?ResetRegenMonsterObjData@CKanturuMonsterMng@@QAEXXZ:PROC ; CKanturuMonsterMng::ResetRegenMonsterObjData
EXTRN	?g_KanturuMonsterMng@@3VCKanturuMonsterMng@@A:BYTE ; g_KanturuMonsterMng
; Function compile flags: /Odtp /ZI
; File d:\projects\exteam6.3\source\gameserver\gameserver\kanturu.cpp
_TEXT	SEGMENT
tv77 = -72						; size = 4
_this$ = -4						; size = 4
_iKanturuState$ = 8					; size = 4
?SetState@CKanturu@@QAEXH@Z PROC			; CKanturu::SetState
; _this$ = ecx

; 233  : {

  00b80	55		 push	 ebp
  00b81	8b ec		 mov	 ebp, esp
  00b83	83 ec 48	 sub	 esp, 72			; 00000048H
  00b86	53		 push	 ebx
  00b87	56		 push	 esi
  00b88	57		 push	 edi
  00b89	89 4d fc	 mov	 DWORD PTR _this$[ebp], ecx

; 234  : 	if ( this->m_StateInfo[iKanturuState].GetCondition() > 0 )

  00b8c	8b 45 08	 mov	 eax, DWORD PTR _iKanturuState$[ebp]
  00b8f	6b c0 14	 imul	 eax, 20			; 00000014H
  00b92	8b 4d fc	 mov	 ecx, DWORD PTR _this$[ebp]
  00b95	8d 4c 01 14	 lea	 ecx, DWORD PTR [ecx+eax+20]
  00b99	e8 00 00 00 00	 call	 ?GetCondition@CKanturuStateInfo@@QAEHXZ ; CKanturuStateInfo::GetCondition
  00b9e	85 c0		 test	 eax, eax
  00ba0	7e 12		 jle	 SHORT $LN9@SetState

; 235  : 	{
; 236  : 		this->m_StateInfo[iKanturuState].SetAppliedTime();

  00ba2	8b 45 08	 mov	 eax, DWORD PTR _iKanturuState$[ebp]
  00ba5	6b c0 14	 imul	 eax, 20			; 00000014H
  00ba8	8b 4d fc	 mov	 ecx, DWORD PTR _this$[ebp]
  00bab	8d 4c 01 14	 lea	 ecx, DWORD PTR [ecx+eax+20]
  00baf	e8 00 00 00 00	 call	 ?SetAppliedTime@CKanturuStateInfo@@QAEXXZ ; CKanturuStateInfo::SetAppliedTime
$LN9@SetState:

; 237  : 	}
; 238  : 
; 239  : 	g_KanturuMonsterMng.ResetRegenMonsterObjData();

  00bb4	b9 00 00 00 00	 mov	 ecx, OFFSET ?g_KanturuMonsterMng@@3VCKanturuMonsterMng@@A ; g_KanturuMonsterMng
  00bb9	e8 00 00 00 00	 call	 ?ResetRegenMonsterObjData@CKanturuMonsterMng@@QAEXXZ ; CKanturuMonsterMng::ResetRegenMonsterObjData

; 240  : 	this->SetKanturuMapAttr(0);

  00bbe	6a 00		 push	 0
  00bc0	8b 4d fc	 mov	 ecx, DWORD PTR _this$[ebp]
  00bc3	e8 00 00 00 00	 call	 ?SetKanturuMapAttr@CKanturu@@QAEXE@Z ; CKanturu::SetKanturuMapAttr

; 241  : 
; 242  : 	switch ( iKanturuState )

  00bc8	8b 45 08	 mov	 eax, DWORD PTR _iKanturuState$[ebp]
  00bcb	89 45 b8	 mov	 DWORD PTR tv77[ebp], eax
  00bce	83 7d b8 05	 cmp	 DWORD PTR tv77[ebp], 5
  00bd2	77 44		 ja	 SHORT $LN10@SetState
  00bd4	8b 4d b8	 mov	 ecx, DWORD PTR tv77[ebp]
  00bd7	ff 24 8d 00 00
	00 00		 jmp	 DWORD PTR $LN12@SetState[ecx*4]
$LN6@SetState:

; 243  : 	{
; 244  : 		case KANTURU_STATE_NONE:
; 245  : 			this->SetState_NONE();

  00bde	8b 4d fc	 mov	 ecx, DWORD PTR _this$[ebp]
  00be1	e8 00 00 00 00	 call	 ?SetState_NONE@CKanturu@@QAEXXZ ; CKanturu::SetState_NONE

; 246  : 			break;

  00be6	eb 30		 jmp	 SHORT $LN10@SetState
$LN5@SetState:

; 247  : 		case KANTURU_STATE_BATTLE_STANTBY:
; 248  : 			this->SetState_BATTLE_STANDBY();

  00be8	8b 4d fc	 mov	 ecx, DWORD PTR _this$[ebp]
  00beb	e8 00 00 00 00	 call	 ?SetState_BATTLE_STANDBY@CKanturu@@QAEXXZ ; CKanturu::SetState_BATTLE_STANDBY

; 249  : 			break;

  00bf0	eb 26		 jmp	 SHORT $LN10@SetState
$LN4@SetState:

; 250  : 		case KANTURU_STATE_BATTLE_OF_MAYA:
; 251  : 			this->SetState_BATTLE_OF_MAYA();

  00bf2	8b 4d fc	 mov	 ecx, DWORD PTR _this$[ebp]
  00bf5	e8 00 00 00 00	 call	 ?SetState_BATTLE_OF_MAYA@CKanturu@@QAEXXZ ; CKanturu::SetState_BATTLE_OF_MAYA

; 252  : 			break;

  00bfa	eb 1c		 jmp	 SHORT $LN10@SetState
$LN3@SetState:

; 253  : 		case KANTURU_STATE_BATTLE_OF_NIGHTMARE:
; 254  : 			this->SetState_BATTLE_OF_NIGHTMARE();

  00bfc	8b 4d fc	 mov	 ecx, DWORD PTR _this$[ebp]
  00bff	e8 00 00 00 00	 call	 ?SetState_BATTLE_OF_NIGHTMARE@CKanturu@@QAEXXZ ; CKanturu::SetState_BATTLE_OF_NIGHTMARE

; 255  : 			break;

  00c04	eb 12		 jmp	 SHORT $LN10@SetState
$LN2@SetState:

; 256  : 		case KANTURU_STATE_TOWER_OF_REFINEMENT:
; 257  : 			this->SetState_TOWER_OF_REFINEMENT();

  00c06	8b 4d fc	 mov	 ecx, DWORD PTR _this$[ebp]
  00c09	e8 00 00 00 00	 call	 ?SetState_TOWER_OF_REFINEMENT@CKanturu@@QAEXXZ ; CKanturu::SetState_TOWER_OF_REFINEMENT

; 258  : 			break;

  00c0e	eb 08		 jmp	 SHORT $LN10@SetState
$LN1@SetState:

; 259  : 		case KANTURU_STATE_END:
; 260  : 			this->SetState_END();

  00c10	8b 4d fc	 mov	 ecx, DWORD PTR _this$[ebp]
  00c13	e8 00 00 00 00	 call	 ?SetState_END@CKanturu@@QAEXXZ ; CKanturu::SetState_END
$LN10@SetState:

; 261  : 			break;
; 262  : 	}
; 263  : }

  00c18	5f		 pop	 edi
  00c19	5e		 pop	 esi
  00c1a	5b		 pop	 ebx
  00c1b	8b e5		 mov	 esp, ebp
  00c1d	5d		 pop	 ebp
  00c1e	c2 04 00	 ret	 4
  00c21	8d 49 00	 npad	 3
$LN12@SetState:
  00c24	00 00 00 00	 DD	 $LN6@SetState
  00c28	00 00 00 00	 DD	 $LN5@SetState
  00c2c	00 00 00 00	 DD	 $LN4@SetState
  00c30	00 00 00 00	 DD	 $LN3@SetState
  00c34	00 00 00 00	 DD	 $LN2@SetState
  00c38	00 00 00 00	 DD	 $LN1@SetState
?SetState@CKanturu@@QAEXH@Z ENDP			; CKanturu::SetState
; Function compile flags: /Odtp /ZI
; File d:\projects\exteam6.3\source\gameserver\gameserver\kanturustateinfo.h
_TEXT	ENDS
;	COMDAT ?GetCondition@CKanturuStateInfo@@QAEHXZ
_TEXT	SEGMENT
_this$ = -4						; size = 4
?GetCondition@CKanturuStateInfo@@QAEHXZ PROC		; CKanturuStateInfo::GetCondition, COMDAT
; _this$ = ecx

; 40   : 	{

  00000	55		 push	 ebp
  00001	8b ec		 mov	 ebp, esp
  00003	83 ec 44	 sub	 esp, 68			; 00000044H
  00006	53		 push	 ebx
  00007	56		 push	 esi
  00008	57		 push	 edi
  00009	89 4d fc	 mov	 DWORD PTR _this$[ebp], ecx

; 41   : 		return this->m_iCondition;

  0000c	8b 45 fc	 mov	 eax, DWORD PTR _this$[ebp]
  0000f	8b 40 08	 mov	 eax, DWORD PTR [eax+8]

; 42   : 	}

  00012	5f		 pop	 edi
  00013	5e		 pop	 esi
  00014	5b		 pop	 ebx
  00015	8b e5		 mov	 esp, ebp
  00017	5d		 pop	 ebp
  00018	c3		 ret	 0
?GetCondition@CKanturuStateInfo@@QAEHXZ ENDP		; CKanturuStateInfo::GetCondition
_TEXT	ENDS
EXTRN	__imp__GetTickCount@0:PROC
; Function compile flags: /Odtp /ZI
;	COMDAT ?SetAppliedTime@CKanturuStateInfo@@QAEXXZ
_TEXT	SEGMENT
_this$ = -4						; size = 4
?SetAppliedTime@CKanturuStateInfo@@QAEXXZ PROC		; CKanturuStateInfo::SetAppliedTime, COMDAT
; _this$ = ecx

; 54   : 	{

  00000	55		 push	 ebp
  00001	8b ec		 mov	 ebp, esp
  00003	83 ec 44	 sub	 esp, 68			; 00000044H
  00006	53		 push	 ebx
  00007	56		 push	 esi
  00008	57		 push	 edi
  00009	89 4d fc	 mov	 DWORD PTR _this$[ebp], ecx

; 55   : 		this->m_dwAppliedTickCount = GetTickCount();

  0000c	ff 15 00 00 00
	00		 call	 DWORD PTR __imp__GetTickCount@0
  00012	8b 4d fc	 mov	 ecx, DWORD PTR _this$[ebp]
  00015	89 41 10	 mov	 DWORD PTR [ecx+16], eax

; 56   : 	}

  00018	5f		 pop	 edi
  00019	5e		 pop	 esi
  0001a	5b		 pop	 ebx
  0001b	8b e5		 mov	 esp, ebp
  0001d	5d		 pop	 ebp
  0001e	c3		 ret	 0
?SetAppliedTime@CKanturuStateInfo@@QAEXXZ ENDP		; CKanturuStateInfo::SetAppliedTime
_TEXT	ENDS
PUBLIC	?SetNextState@CKanturu@@QAEXH@Z			; CKanturu::SetNextState
; Function compile flags: /Odtp /ZI
; File d:\projects\exteam6.3\source\gameserver\gameserver\kanturu.cpp
_TEXT	SEGMENT
_iNextState$ = -8					; size = 4
_this$ = -4						; size = 4
_iCurrentState$ = 8					; size = 4
?SetNextState@CKanturu@@QAEXH@Z PROC			; CKanturu::SetNextState
; _this$ = ecx

; 267  : {

  00c40	55		 push	 ebp
  00c41	8b ec		 mov	 ebp, esp
  00c43	83 ec 48	 sub	 esp, 72			; 00000048H
  00c46	53		 push	 ebx
  00c47	56		 push	 esi
  00c48	57		 push	 edi
  00c49	89 4d fc	 mov	 DWORD PTR _this$[ebp], ecx

; 268  : 	int iNextState = iCurrentState + 1;

  00c4c	8b 45 08	 mov	 eax, DWORD PTR _iCurrentState$[ebp]
  00c4f	83 c0 01	 add	 eax, 1
  00c52	89 45 f8	 mov	 DWORD PTR _iNextState$[ebp], eax

; 269  : 
; 270  : 	if ( iNextState >= MAX_KANTURU_STATE_INFO )

  00c55	83 7d f8 06	 cmp	 DWORD PTR _iNextState$[ebp], 6
  00c59	7c 07		 jl	 SHORT $LN1@SetNextSta

; 271  : 	{
; 272  : 		iNextState = KANTURU_STATE_NONE;

  00c5b	c7 45 f8 00 00
	00 00		 mov	 DWORD PTR _iNextState$[ebp], 0
$LN1@SetNextSta:

; 273  : 	}
; 274  : 
; 275  : 	this->SetState(iNextState);

  00c62	8b 45 f8	 mov	 eax, DWORD PTR _iNextState$[ebp]
  00c65	50		 push	 eax
  00c66	8b 4d fc	 mov	 ecx, DWORD PTR _this$[ebp]
  00c69	e8 00 00 00 00	 call	 ?SetState@CKanturu@@QAEXH@Z ; CKanturu::SetState

; 276  : }

  00c6e	5f		 pop	 edi
  00c6f	5e		 pop	 esi
  00c70	5b		 pop	 ebx
  00c71	8b e5		 mov	 esp, ebp
  00c73	5d		 pop	 ebp
  00c74	c2 04 00	 ret	 4
?SetNextState@CKanturu@@QAEXH@Z ENDP			; CKanturu::SetNextState
_TEXT	ENDS
PUBLIC	?ChangeState@CKanturu@@QAEXHH@Z			; CKanturu::ChangeState
; Function compile flags: /Odtp /ZI
_TEXT	SEGMENT
tv64 = -72						; size = 4
_this$ = -4						; size = 4
_iState$ = 8						; size = 4
_DetailState$ = 12					; size = 4
?ChangeState@CKanturu@@QAEXHH@Z PROC			; CKanturu::ChangeState
; _this$ = ecx

; 281  : {

  00c80	55		 push	 ebp
  00c81	8b ec		 mov	 ebp, esp
  00c83	83 ec 48	 sub	 esp, 72			; 00000048H
  00c86	53		 push	 ebx
  00c87	56		 push	 esi
  00c88	57		 push	 edi
  00c89	89 4d fc	 mov	 DWORD PTR _this$[ebp], ecx

; 282  : 	switch ( iState )

  00c8c	8b 45 08	 mov	 eax, DWORD PTR _iState$[ebp]
  00c8f	89 45 b8	 mov	 DWORD PTR tv64[ebp], eax

; 283  : 	{
; 284  : 	}
; 285  : }

  00c92	5f		 pop	 edi
  00c93	5e		 pop	 esi
  00c94	5b		 pop	 ebx
  00c95	8b e5		 mov	 esp, ebp
  00c97	5d		 pop	 ebp
  00c98	c2 08 00	 ret	 8
?ChangeState@CKanturu@@QAEXHH@Z ENDP			; CKanturu::ChangeState
_TEXT	ENDS
PUBLIC	?SetKanturuState@CKanturu@@QAEXH@Z		; CKanturu::SetKanturuState
PUBLIC	??_C@_0BO@LMGJPIE@?$FL?5KANTURU?5?$FN?5State?$CI?$CFd?$CJ?5?9?$DO?5NONE?$AA@ ; `string'
;	COMDAT ??_C@_0BO@LMGJPIE@?$FL?5KANTURU?5?$FN?5State?$CI?$CFd?$CJ?5?9?$DO?5NONE?$AA@
CONST	SEGMENT
??_C@_0BO@LMGJPIE@?$FL?5KANTURU?5?$FN?5State?$CI?$CFd?$CJ?5?9?$DO?5NONE?$AA@ DB '['
	DB	' KANTURU ] State(%d) -> NONE', 00H		; `string'
; Function compile flags: /Odtp /ZI
CONST	ENDS
_TEXT	SEGMENT
_this$ = -4						; size = 4
?SetState_NONE@CKanturu@@QAEXXZ PROC			; CKanturu::SetState_NONE
; _this$ = ecx

; 289  : {

  00ca0	55		 push	 ebp
  00ca1	8b ec		 mov	 ebp, esp
  00ca3	83 ec 44	 sub	 esp, 68			; 00000044H
  00ca6	53		 push	 ebx
  00ca7	56		 push	 esi
  00ca8	57		 push	 edi
  00ca9	89 4d fc	 mov	 DWORD PTR _this$[ebp], ecx

; 290  : 	LogAddC(7, "[ KANTURU ] State(%d) -> NONE", this->m_iKanturuState);

  00cac	8b 45 fc	 mov	 eax, DWORD PTR _this$[ebp]
  00caf	8b 48 08	 mov	 ecx, DWORD PTR [eax+8]
  00cb2	51		 push	 ecx
  00cb3	68 00 00 00 00	 push	 OFFSET ??_C@_0BO@LMGJPIE@?$FL?5KANTURU?5?$FN?5State?$CI?$CFd?$CJ?5?9?$DO?5NONE?$AA@
  00cb8	6a 07		 push	 7
  00cba	ff 15 00 00 00
	00		 call	 DWORD PTR ?LogAddC@@3P6AXEPADZZA ; LogAddC
  00cc0	83 c4 0c	 add	 esp, 12			; 0000000cH

; 291  : 	this->SetKanturuState(KANTURU_STATE_NONE);

  00cc3	6a 00		 push	 0
  00cc5	8b 4d fc	 mov	 ecx, DWORD PTR _this$[ebp]
  00cc8	e8 00 00 00 00	 call	 ?SetKanturuState@CKanturu@@QAEXH@Z ; CKanturu::SetKanturuState

; 292  : }

  00ccd	5f		 pop	 edi
  00cce	5e		 pop	 esi
  00ccf	5b		 pop	 ebx
  00cd0	8b e5		 mov	 esp, ebp
  00cd2	5d		 pop	 ebp
  00cd3	c3		 ret	 0
?SetState_NONE@CKanturu@@QAEXXZ ENDP			; CKanturu::SetState_NONE
; Function compile flags: /Odtp /ZI
; File d:\projects\exteam6.3\source\gameserver\gameserver\kanturu.h
_TEXT	ENDS
;	COMDAT ?SetKanturuState@CKanturu@@QAEXH@Z
_TEXT	SEGMENT
_this$ = -4						; size = 4
_iKanturuState$ = 8					; size = 4
?SetKanturuState@CKanturu@@QAEXH@Z PROC			; CKanturu::SetKanturuState, COMDAT
; _this$ = ecx

; 70   : 	void SetKanturuState(int iKanturuState){this->m_iKanturuState = iKanturuState;}

  00000	55		 push	 ebp
  00001	8b ec		 mov	 ebp, esp
  00003	83 ec 44	 sub	 esp, 68			; 00000044H
  00006	53		 push	 ebx
  00007	56		 push	 esi
  00008	57		 push	 edi
  00009	89 4d fc	 mov	 DWORD PTR _this$[ebp], ecx
  0000c	8b 45 fc	 mov	 eax, DWORD PTR _this$[ebp]
  0000f	8b 4d 08	 mov	 ecx, DWORD PTR _iKanturuState$[ebp]
  00012	89 48 08	 mov	 DWORD PTR [eax+8], ecx
  00015	5f		 pop	 edi
  00016	5e		 pop	 esi
  00017	5b		 pop	 ebx
  00018	8b e5		 mov	 esp, ebp
  0001a	5d		 pop	 ebp
  0001b	c2 04 00	 ret	 4
?SetKanturuState@CKanturu@@QAEXH@Z ENDP			; CKanturu::SetKanturuState
_TEXT	ENDS
PUBLIC	??_C@_0CB@GKBCFNNE@?$FL?5KANTURU?5?$FN?5State?$CI?$CFd?$CJ?5?9?$DO?5STANDBY@ ; `string'
EXTRN	?SetState@CKanturuBattleStanby@@QAEXH@Z:PROC	; CKanturuBattleStanby::SetState
EXTRN	?ResetAllData@CKanturuBattleUserMng@@QAEXXZ:PROC ; CKanturuBattleUserMng::ResetAllData
EXTRN	?g_KanturuBattleUserMng@@3VCKanturuBattleUserMng@@A:BYTE ; g_KanturuBattleUserMng
;	COMDAT ??_C@_0CB@GKBCFNNE@?$FL?5KANTURU?5?$FN?5State?$CI?$CFd?$CJ?5?9?$DO?5STANDBY@
; File d:\projects\exteam6.3\source\gameserver\gameserver\kanturu.cpp
CONST	SEGMENT
??_C@_0CB@GKBCFNNE@?$FL?5KANTURU?5?$FN?5State?$CI?$CFd?$CJ?5?9?$DO?5STANDBY@ DB '['
	DB	' KANTURU ] State(%d) -> STANDBY', 00H	; `string'
; Function compile flags: /Odtp /ZI
CONST	ENDS
_TEXT	SEGMENT
_this$ = -4						; size = 4
?SetState_BATTLE_STANDBY@CKanturu@@QAEXXZ PROC		; CKanturu::SetState_BATTLE_STANDBY
; _this$ = ecx

; 296  : {

  00ce0	55		 push	 ebp
  00ce1	8b ec		 mov	 ebp, esp
  00ce3	83 ec 44	 sub	 esp, 68			; 00000044H
  00ce6	53		 push	 ebx
  00ce7	56		 push	 esi
  00ce8	57		 push	 edi
  00ce9	89 4d fc	 mov	 DWORD PTR _this$[ebp], ecx

; 297  : 	LogAddC(7, "[ KANTURU ] State(%d) -> STANDBY", this->m_iKanturuState);

  00cec	8b 45 fc	 mov	 eax, DWORD PTR _this$[ebp]
  00cef	8b 48 08	 mov	 ecx, DWORD PTR [eax+8]
  00cf2	51		 push	 ecx
  00cf3	68 00 00 00 00	 push	 OFFSET ??_C@_0CB@GKBCFNNE@?$FL?5KANTURU?5?$FN?5State?$CI?$CFd?$CJ?5?9?$DO?5STANDBY@
  00cf8	6a 07		 push	 7
  00cfa	ff 15 00 00 00
	00		 call	 DWORD PTR ?LogAddC@@3P6AXEPADZZA ; LogAddC
  00d00	83 c4 0c	 add	 esp, 12			; 0000000cH

; 298  : 	g_KanturuBattleUserMng.ResetAllData();

  00d03	b9 00 00 00 00	 mov	 ecx, OFFSET ?g_KanturuBattleUserMng@@3VCKanturuBattleUserMng@@A ; g_KanturuBattleUserMng
  00d08	e8 00 00 00 00	 call	 ?ResetAllData@CKanturuBattleUserMng@@QAEXXZ ; CKanturuBattleUserMng::ResetAllData

; 299  : 	this->SetKanturuState(KANTURU_STATE_BATTLE_STANTBY);

  00d0d	6a 01		 push	 1
  00d0f	8b 4d fc	 mov	 ecx, DWORD PTR _this$[ebp]
  00d12	e8 00 00 00 00	 call	 ?SetKanturuState@CKanturu@@QAEXH@Z ; CKanturu::SetKanturuState

; 300  : 	this->m_BattleStanby.SetState(1);

  00d17	6a 01		 push	 1
  00d19	8b 4d fc	 mov	 ecx, DWORD PTR _this$[ebp]
  00d1c	81 c1 90 00 00
	00		 add	 ecx, 144		; 00000090H
  00d22	e8 00 00 00 00	 call	 ?SetState@CKanturuBattleStanby@@QAEXH@Z ; CKanturuBattleStanby::SetState

; 301  : 	//this->SetKanturuTimeAttackEventInfo();
; 302  : }

  00d27	5f		 pop	 edi
  00d28	5e		 pop	 esi
  00d29	5b		 pop	 ebx
  00d2a	8b e5		 mov	 esp, ebp
  00d2c	5d		 pop	 ebp
  00d2d	c3		 ret	 0
?SetState_BATTLE_STANDBY@CKanturu@@QAEXXZ ENDP		; CKanturu::SetState_BATTLE_STANDBY
_TEXT	ENDS
PUBLIC	??_C@_0CI@PJNHIIEF@?$FL?5KANTURU?5?$FN?5State?$CI?$CFd?$CJ?5?9?$DO?5BATTLE_@ ; `string'
EXTRN	?SetState@CKanturuBattleOfMaya@@QAEXH@Z:PROC	; CKanturuBattleOfMaya::SetState
;	COMDAT ??_C@_0CI@PJNHIIEF@?$FL?5KANTURU?5?$FN?5State?$CI?$CFd?$CJ?5?9?$DO?5BATTLE_@
CONST	SEGMENT
??_C@_0CI@PJNHIIEF@?$FL?5KANTURU?5?$FN?5State?$CI?$CFd?$CJ?5?9?$DO?5BATTLE_@ DB '['
	DB	' KANTURU ] State(%d) -> BATTLE_OF_MAYA', 00H ; `string'
; Function compile flags: /Odtp /ZI
CONST	ENDS
_TEXT	SEGMENT
_this$ = -4						; size = 4
?SetState_BATTLE_OF_MAYA@CKanturu@@QAEXXZ PROC		; CKanturu::SetState_BATTLE_OF_MAYA
; _this$ = ecx

; 306  : {

  00d30	55		 push	 ebp
  00d31	8b ec		 mov	 ebp, esp
  00d33	83 ec 44	 sub	 esp, 68			; 00000044H
  00d36	53		 push	 ebx
  00d37	56		 push	 esi
  00d38	57		 push	 edi
  00d39	89 4d fc	 mov	 DWORD PTR _this$[ebp], ecx

; 307  : 	LogAddC(7, "[ KANTURU ] State(%d) -> BATTLE_OF_MAYA", this->m_iKanturuState);

  00d3c	8b 45 fc	 mov	 eax, DWORD PTR _this$[ebp]
  00d3f	8b 48 08	 mov	 ecx, DWORD PTR [eax+8]
  00d42	51		 push	 ecx
  00d43	68 00 00 00 00	 push	 OFFSET ??_C@_0CI@PJNHIIEF@?$FL?5KANTURU?5?$FN?5State?$CI?$CFd?$CJ?5?9?$DO?5BATTLE_@
  00d48	6a 07		 push	 7
  00d4a	ff 15 00 00 00
	00		 call	 DWORD PTR ?LogAddC@@3P6AXEPADZZA ; LogAddC
  00d50	83 c4 0c	 add	 esp, 12			; 0000000cH

; 308  : 	this->SetKanturuState(KANTURU_STATE_BATTLE_OF_MAYA);

  00d53	6a 02		 push	 2
  00d55	8b 4d fc	 mov	 ecx, DWORD PTR _this$[ebp]
  00d58	e8 00 00 00 00	 call	 ?SetKanturuState@CKanturu@@QAEXH@Z ; CKanturu::SetKanturuState

; 309  : 	this->m_BattleOfMaya.SetState(1);

  00d5d	6a 01		 push	 1
  00d5f	8b 4d fc	 mov	 ecx, DWORD PTR _this$[ebp]
  00d62	81 c1 f4 00 00
	00		 add	 ecx, 244		; 000000f4H
  00d68	e8 00 00 00 00	 call	 ?SetState@CKanturuBattleOfMaya@@QAEXH@Z ; CKanturuBattleOfMaya::SetState

; 310  : }

  00d6d	5f		 pop	 edi
  00d6e	5e		 pop	 esi
  00d6f	5b		 pop	 ebx
  00d70	8b e5		 mov	 esp, ebp
  00d72	5d		 pop	 ebp
  00d73	c3		 ret	 0
?SetState_BATTLE_OF_MAYA@CKanturu@@QAEXXZ ENDP		; CKanturu::SetState_BATTLE_OF_MAYA
_TEXT	ENDS
PUBLIC	??_C@_0CN@KPOCOHKC@?$FL?5KANTURU?5?$FN?5State?$CI?$CFd?$CJ?5?9?$DO?5BATTLE_@ ; `string'
EXTRN	?SetState@CKanturuBattleOfNightmare@@QAEXH@Z:PROC ; CKanturuBattleOfNightmare::SetState
;	COMDAT ??_C@_0CN@KPOCOHKC@?$FL?5KANTURU?5?$FN?5State?$CI?$CFd?$CJ?5?9?$DO?5BATTLE_@
CONST	SEGMENT
??_C@_0CN@KPOCOHKC@?$FL?5KANTURU?5?$FN?5State?$CI?$CFd?$CJ?5?9?$DO?5BATTLE_@ DB '['
	DB	' KANTURU ] State(%d) -> BATTLE_OF_NIGHTMARE', 00H ; `string'
; Function compile flags: /Odtp /ZI
CONST	ENDS
_TEXT	SEGMENT
_this$ = -4						; size = 4
?SetState_BATTLE_OF_NIGHTMARE@CKanturu@@QAEXXZ PROC	; CKanturu::SetState_BATTLE_OF_NIGHTMARE
; _this$ = ecx

; 314  : {

  00d80	55		 push	 ebp
  00d81	8b ec		 mov	 ebp, esp
  00d83	83 ec 44	 sub	 esp, 68			; 00000044H
  00d86	53		 push	 ebx
  00d87	56		 push	 esi
  00d88	57		 push	 edi
  00d89	89 4d fc	 mov	 DWORD PTR _this$[ebp], ecx

; 315  : 	LogAddC(7, "[ KANTURU ] State(%d) -> BATTLE_OF_NIGHTMARE", this->m_iKanturuState);

  00d8c	8b 45 fc	 mov	 eax, DWORD PTR _this$[ebp]
  00d8f	8b 48 08	 mov	 ecx, DWORD PTR [eax+8]
  00d92	51		 push	 ecx
  00d93	68 00 00 00 00	 push	 OFFSET ??_C@_0CN@KPOCOHKC@?$FL?5KANTURU?5?$FN?5State?$CI?$CFd?$CJ?5?9?$DO?5BATTLE_@
  00d98	6a 07		 push	 7
  00d9a	ff 15 00 00 00
	00		 call	 DWORD PTR ?LogAddC@@3P6AXEPADZZA ; LogAddC
  00da0	83 c4 0c	 add	 esp, 12			; 0000000cH

; 316  : 	this->SetKanturuState(KANTURU_STATE_BATTLE_OF_NIGHTMARE);

  00da3	6a 03		 push	 3
  00da5	8b 4d fc	 mov	 ecx, DWORD PTR _this$[ebp]
  00da8	e8 00 00 00 00	 call	 ?SetKanturuState@CKanturu@@QAEXH@Z ; CKanturu::SetKanturuState

; 317  : 	this->m_BattleOfNightmare.SetState(1);

  00dad	6a 01		 push	 1
  00daf	8b 4d fc	 mov	 ecx, DWORD PTR _this$[ebp]
  00db2	81 c1 20 03 00
	00		 add	 ecx, 800		; 00000320H
  00db8	e8 00 00 00 00	 call	 ?SetState@CKanturuBattleOfNightmare@@QAEXH@Z ; CKanturuBattleOfNightmare::SetState

; 318  : }

  00dbd	5f		 pop	 edi
  00dbe	5e		 pop	 esi
  00dbf	5b		 pop	 ebx
  00dc0	8b e5		 mov	 esp, ebp
  00dc2	5d		 pop	 ebp
  00dc3	c3		 ret	 0
?SetState_BATTLE_OF_NIGHTMARE@CKanturu@@QAEXXZ ENDP	; CKanturu::SetState_BATTLE_OF_NIGHTMARE
_TEXT	ENDS
PUBLIC	??_C@_0CN@CLMPOCFJ@?$FL?5KANTURU?5?$FN?5State?$CI?$CFd?$CJ?5?9?$DO?5TOWER_O@ ; `string'
EXTRN	?SetState@CKanturuTowerOfRefinement@@QAEXH@Z:PROC ; CKanturuTowerOfRefinement::SetState
;	COMDAT ??_C@_0CN@CLMPOCFJ@?$FL?5KANTURU?5?$FN?5State?$CI?$CFd?$CJ?5?9?$DO?5TOWER_O@
CONST	SEGMENT
??_C@_0CN@CLMPOCFJ@?$FL?5KANTURU?5?$FN?5State?$CI?$CFd?$CJ?5?9?$DO?5TOWER_O@ DB '['
	DB	' KANTURU ] State(%d) -> TOWER_OF_REFINEMENT', 00H ; `string'
; Function compile flags: /Odtp /ZI
CONST	ENDS
_TEXT	SEGMENT
_this$ = -4						; size = 4
?SetState_TOWER_OF_REFINEMENT@CKanturu@@QAEXXZ PROC	; CKanturu::SetState_TOWER_OF_REFINEMENT
; _this$ = ecx

; 322  : {

  00dd0	55		 push	 ebp
  00dd1	8b ec		 mov	 ebp, esp
  00dd3	83 ec 44	 sub	 esp, 68			; 00000044H
  00dd6	53		 push	 ebx
  00dd7	56		 push	 esi
  00dd8	57		 push	 edi
  00dd9	89 4d fc	 mov	 DWORD PTR _this$[ebp], ecx

; 323  : 	LogAddC(7, "[ KANTURU ] State(%d) -> TOWER_OF_REFINEMENT", this->m_iKanturuState);

  00ddc	8b 45 fc	 mov	 eax, DWORD PTR _this$[ebp]
  00ddf	8b 48 08	 mov	 ecx, DWORD PTR [eax+8]
  00de2	51		 push	 ecx
  00de3	68 00 00 00 00	 push	 OFFSET ??_C@_0CN@CLMPOCFJ@?$FL?5KANTURU?5?$FN?5State?$CI?$CFd?$CJ?5?9?$DO?5TOWER_O@
  00de8	6a 07		 push	 7
  00dea	ff 15 00 00 00
	00		 call	 DWORD PTR ?LogAddC@@3P6AXEPADZZA ; LogAddC
  00df0	83 c4 0c	 add	 esp, 12			; 0000000cH

; 324  : 	this->SetKanturuState(KANTURU_STATE_TOWER_OF_REFINEMENT);

  00df3	6a 04		 push	 4
  00df5	8b 4d fc	 mov	 ecx, DWORD PTR _this$[ebp]
  00df8	e8 00 00 00 00	 call	 ?SetKanturuState@CKanturu@@QAEXH@Z ; CKanturu::SetKanturuState

; 325  : 	this->m_TowerOfRefinement.SetState(1);

  00dfd	6a 01		 push	 1
  00dff	8b 4d fc	 mov	 ecx, DWORD PTR _this$[ebp]
  00e02	81 c1 b4 03 00
	00		 add	 ecx, 948		; 000003b4H
  00e08	e8 00 00 00 00	 call	 ?SetState@CKanturuTowerOfRefinement@@QAEXH@Z ; CKanturuTowerOfRefinement::SetState

; 326  : 	this->SetKanturuMapAttr(1);

  00e0d	6a 01		 push	 1
  00e0f	8b 4d fc	 mov	 ecx, DWORD PTR _this$[ebp]
  00e12	e8 00 00 00 00	 call	 ?SetKanturuMapAttr@CKanturu@@QAEXE@Z ; CKanturu::SetKanturuMapAttr

; 327  : }

  00e17	5f		 pop	 edi
  00e18	5e		 pop	 esi
  00e19	5b		 pop	 ebx
  00e1a	8b e5		 mov	 esp, ebp
  00e1c	5d		 pop	 ebp
  00e1d	c3		 ret	 0
?SetState_TOWER_OF_REFINEMENT@CKanturu@@QAEXXZ ENDP	; CKanturu::SetState_TOWER_OF_REFINEMENT
_TEXT	ENDS
PUBLIC	??_C@_0BN@DHNKBFGM@?$FL?5KANTURU?5?$FN?5State?$CI?$CFd?$CJ?5?9?$DO?5END?$AA@ ; `string'
;	COMDAT ??_C@_0BN@DHNKBFGM@?$FL?5KANTURU?5?$FN?5State?$CI?$CFd?$CJ?5?9?$DO?5END?$AA@
CONST	SEGMENT
??_C@_0BN@DHNKBFGM@?$FL?5KANTURU?5?$FN?5State?$CI?$CFd?$CJ?5?9?$DO?5END?$AA@ DB '['
	DB	' KANTURU ] State(%d) -> END', 00H		; `string'
; Function compile flags: /Odtp /ZI
CONST	ENDS
_TEXT	SEGMENT
_this$ = -4						; size = 4
?SetState_END@CKanturu@@QAEXXZ PROC			; CKanturu::SetState_END
; _this$ = ecx

; 331  : {

  00e20	55		 push	 ebp
  00e21	8b ec		 mov	 ebp, esp
  00e23	83 ec 44	 sub	 esp, 68			; 00000044H
  00e26	53		 push	 ebx
  00e27	56		 push	 esi
  00e28	57		 push	 edi
  00e29	89 4d fc	 mov	 DWORD PTR _this$[ebp], ecx

; 332  : 	LogAddC(7, "[ KANTURU ] State(%d) -> END", this->m_iKanturuState);

  00e2c	8b 45 fc	 mov	 eax, DWORD PTR _this$[ebp]
  00e2f	8b 48 08	 mov	 ecx, DWORD PTR [eax+8]
  00e32	51		 push	 ecx
  00e33	68 00 00 00 00	 push	 OFFSET ??_C@_0BN@DHNKBFGM@?$FL?5KANTURU?5?$FN?5State?$CI?$CFd?$CJ?5?9?$DO?5END?$AA@
  00e38	6a 07		 push	 7
  00e3a	ff 15 00 00 00
	00		 call	 DWORD PTR ?LogAddC@@3P6AXEPADZZA ; LogAddC
  00e40	83 c4 0c	 add	 esp, 12			; 0000000cH

; 333  : 	this->SetKanturuState(KANTURU_STATE_END);

  00e43	6a 05		 push	 5
  00e45	8b 4d fc	 mov	 ecx, DWORD PTR _this$[ebp]
  00e48	e8 00 00 00 00	 call	 ?SetKanturuState@CKanturu@@QAEXH@Z ; CKanturu::SetKanturuState

; 334  : 	g_KanturuBattleUserMng.ResetAllData();

  00e4d	b9 00 00 00 00	 mov	 ecx, OFFSET ?g_KanturuBattleUserMng@@3VCKanturuBattleUserMng@@A ; g_KanturuBattleUserMng
  00e52	e8 00 00 00 00	 call	 ?ResetAllData@CKanturuBattleUserMng@@QAEXXZ ; CKanturuBattleUserMng::ResetAllData

; 335  : }

  00e57	5f		 pop	 edi
  00e58	5e		 pop	 esi
  00e59	5b		 pop	 ebx
  00e5a	8b e5		 mov	 esp, ebp
  00e5c	5d		 pop	 ebp
  00e5d	c3		 ret	 0
?SetState_END@CKanturu@@QAEXXZ ENDP			; CKanturu::SetState_END
; Function compile flags: /Odtp /ZI
_this$ = -4						; size = 4
?ProcState_NONE@CKanturu@@QAEXXZ PROC			; CKanturu::ProcState_NONE
; _this$ = ecx

; 339  : {

  00e60	55		 push	 ebp
  00e61	8b ec		 mov	 ebp, esp
  00e63	83 ec 44	 sub	 esp, 68			; 00000044H
  00e66	53		 push	 ebx
  00e67	56		 push	 esi
  00e68	57		 push	 edi
  00e69	89 4d fc	 mov	 DWORD PTR _this$[ebp], ecx

; 340  : 	this->SetState(KANTURU_STATE_BATTLE_STANTBY);

  00e6c	6a 01		 push	 1
  00e6e	8b 4d fc	 mov	 ecx, DWORD PTR _this$[ebp]
  00e71	e8 00 00 00 00	 call	 ?SetState@CKanturu@@QAEXH@Z ; CKanturu::SetState

; 341  : }

  00e76	5f		 pop	 edi
  00e77	5e		 pop	 esi
  00e78	5b		 pop	 ebx
  00e79	8b e5		 mov	 esp, ebp
  00e7b	5d		 pop	 ebp
  00e7c	c3		 ret	 0
?ProcState_NONE@CKanturu@@QAEXXZ ENDP			; CKanturu::ProcState_NONE
_TEXT	ENDS
PUBLIC	?GetBattleStanbyState@CKanturuBattleStanby@@QAEHXZ ; CKanturuBattleStanby::GetBattleStanbyState
EXTRN	?Run@CKanturuBattleStanby@@QAEXXZ:PROC		; CKanturuBattleStanby::Run
EXTRN	?SetState_NONE@CKanturuBattleStanby@@QAEXXZ:PROC ; CKanturuBattleStanby::SetState_NONE
; Function compile flags: /Odtp /ZI
_TEXT	SEGMENT
_this$ = -4						; size = 4
?ProcState_BATTLE_STANDBY@CKanturu@@QAEXXZ PROC		; CKanturu::ProcState_BATTLE_STANDBY
; _this$ = ecx

; 345  : {

  00e80	55		 push	 ebp
  00e81	8b ec		 mov	 ebp, esp
  00e83	83 ec 44	 sub	 esp, 68			; 00000044H
  00e86	53		 push	 ebx
  00e87	56		 push	 esi
  00e88	57		 push	 edi
  00e89	89 4d fc	 mov	 DWORD PTR _this$[ebp], ecx

; 346  : 	if ( this->m_BattleStanby.GetBattleStanbyState() == 3 )

  00e8c	8b 4d fc	 mov	 ecx, DWORD PTR _this$[ebp]
  00e8f	81 c1 90 00 00
	00		 add	 ecx, 144		; 00000090H
  00e95	e8 00 00 00 00	 call	 ?GetBattleStanbyState@CKanturuBattleStanby@@QAEHXZ ; CKanturuBattleStanby::GetBattleStanbyState
  00e9a	83 f8 03	 cmp	 eax, 3
  00e9d	75 1a		 jne	 SHORT $LN2@ProcState_

; 347  : 	{
; 348  : 		this->m_BattleStanby.SetState_NONE();

  00e9f	8b 4d fc	 mov	 ecx, DWORD PTR _this$[ebp]
  00ea2	81 c1 90 00 00
	00		 add	 ecx, 144		; 00000090H
  00ea8	e8 00 00 00 00	 call	 ?SetState_NONE@CKanturuBattleStanby@@QAEXXZ ; CKanturuBattleStanby::SetState_NONE

; 349  : 		this->SetState(KANTURU_STATE_BATTLE_OF_MAYA);

  00ead	6a 02		 push	 2
  00eaf	8b 4d fc	 mov	 ecx, DWORD PTR _this$[ebp]
  00eb2	e8 00 00 00 00	 call	 ?SetState@CKanturu@@QAEXH@Z ; CKanturu::SetState

; 350  : 	}
; 351  : 	else

  00eb7	eb 0e		 jmp	 SHORT $LN3@ProcState_
$LN2@ProcState_:

; 352  : 	{
; 353  : 		this->m_BattleStanby.Run();

  00eb9	8b 4d fc	 mov	 ecx, DWORD PTR _this$[ebp]
  00ebc	81 c1 90 00 00
	00		 add	 ecx, 144		; 00000090H
  00ec2	e8 00 00 00 00	 call	 ?Run@CKanturuBattleStanby@@QAEXXZ ; CKanturuBattleStanby::Run
$LN3@ProcState_:

; 354  : 	}
; 355  : }

  00ec7	5f		 pop	 edi
  00ec8	5e		 pop	 esi
  00ec9	5b		 pop	 ebx
  00eca	8b e5		 mov	 esp, ebp
  00ecc	5d		 pop	 ebp
  00ecd	c3		 ret	 0
?ProcState_BATTLE_STANDBY@CKanturu@@QAEXXZ ENDP		; CKanturu::ProcState_BATTLE_STANDBY
; Function compile flags: /Odtp /ZI
; File d:\projects\exteam6.3\source\gameserver\gameserver\kanturubattlestanby.h
_TEXT	ENDS
;	COMDAT ?GetBattleStanbyState@CKanturuBattleStanby@@QAEHXZ
_TEXT	SEGMENT
_this$ = -4						; size = 4
?GetBattleStanbyState@CKanturuBattleStanby@@QAEHXZ PROC	; CKanturuBattleStanby::GetBattleStanbyState, COMDAT
; _this$ = ecx

; 47   : 	int GetBattleStanbyState(){return this->m_iBattleStanbyState;}

  00000	55		 push	 ebp
  00001	8b ec		 mov	 ebp, esp
  00003	83 ec 44	 sub	 esp, 68			; 00000044H
  00006	53		 push	 ebx
  00007	56		 push	 esi
  00008	57		 push	 edi
  00009	89 4d fc	 mov	 DWORD PTR _this$[ebp], ecx
  0000c	8b 45 fc	 mov	 eax, DWORD PTR _this$[ebp]
  0000f	8b 40 04	 mov	 eax, DWORD PTR [eax+4]
  00012	5f		 pop	 edi
  00013	5e		 pop	 esi
  00014	5b		 pop	 ebx
  00015	8b e5		 mov	 esp, ebp
  00017	5d		 pop	 ebp
  00018	c3		 ret	 0
?GetBattleStanbyState@CKanturuBattleStanby@@QAEHXZ ENDP	; CKanturuBattleStanby::GetBattleStanbyState
_TEXT	ENDS
PUBLIC	?GetSuccessValue@CKanturuBattleOfMaya@@QAEHXZ	; CKanturuBattleOfMaya::GetSuccessValue
PUBLIC	?GetBattleOfMayaState@CKanturuBattleOfMaya@@QAEHXZ ; CKanturuBattleOfMaya::GetBattleOfMayaState
EXTRN	?Run@CKanturuBattleOfMaya@@QAEXXZ:PROC		; CKanturuBattleOfMaya::Run
EXTRN	?SetState_NONE@CKanturuBattleOfMaya@@QAEXXZ:PROC ; CKanturuBattleOfMaya::SetState_NONE
; Function compile flags: /Odtp /ZI
; File d:\projects\exteam6.3\source\gameserver\gameserver\kanturu.cpp
_TEXT	SEGMENT
_this$ = -4						; size = 4
?ProcState_BATTLE_OF_MAYA@CKanturu@@QAEXXZ PROC		; CKanturu::ProcState_BATTLE_OF_MAYA
; _this$ = ecx

; 359  : {

  00ed0	55		 push	 ebp
  00ed1	8b ec		 mov	 ebp, esp
  00ed3	83 ec 44	 sub	 esp, 68			; 00000044H
  00ed6	53		 push	 ebx
  00ed7	56		 push	 esi
  00ed8	57		 push	 edi
  00ed9	89 4d fc	 mov	 DWORD PTR _this$[ebp], ecx

; 360  : 	if ( this->m_BattleOfMaya.GetBattleOfMayaState() == 18 )

  00edc	8b 4d fc	 mov	 ecx, DWORD PTR _this$[ebp]
  00edf	81 c1 f4 00 00
	00		 add	 ecx, 244		; 000000f4H
  00ee5	e8 00 00 00 00	 call	 ?GetBattleOfMayaState@CKanturuBattleOfMaya@@QAEHXZ ; CKanturuBattleOfMaya::GetBattleOfMayaState
  00eea	83 f8 12	 cmp	 eax, 18			; 00000012H
  00eed	75 39		 jne	 SHORT $LN4@ProcState_@2

; 361  : 	{
; 362  : 		this->m_BattleOfMaya.SetState_NONE();

  00eef	8b 4d fc	 mov	 ecx, DWORD PTR _this$[ebp]
  00ef2	81 c1 f4 00 00
	00		 add	 ecx, 244		; 000000f4H
  00ef8	e8 00 00 00 00	 call	 ?SetState_NONE@CKanturuBattleOfMaya@@QAEXXZ ; CKanturuBattleOfMaya::SetState_NONE

; 363  : 
; 364  : 		if ( this->m_BattleOfMaya.GetSuccessValue() == 1 )

  00efd	8b 4d fc	 mov	 ecx, DWORD PTR _this$[ebp]
  00f00	81 c1 f4 00 00
	00		 add	 ecx, 244		; 000000f4H
  00f06	e8 00 00 00 00	 call	 ?GetSuccessValue@CKanturuBattleOfMaya@@QAEHXZ ; CKanturuBattleOfMaya::GetSuccessValue
  00f0b	83 f8 01	 cmp	 eax, 1
  00f0e	75 0c		 jne	 SHORT $LN3@ProcState_@2

; 365  : 		{
; 366  : 			this->SetState(KANTURU_STATE_BATTLE_OF_NIGHTMARE);

  00f10	6a 03		 push	 3
  00f12	8b 4d fc	 mov	 ecx, DWORD PTR _this$[ebp]
  00f15	e8 00 00 00 00	 call	 ?SetState@CKanturu@@QAEXH@Z ; CKanturu::SetState

; 367  : 		}
; 368  : 		else

  00f1a	eb 0a		 jmp	 SHORT $LN2@ProcState_@2
$LN3@ProcState_@2:

; 369  : 		{
; 370  : 			this->SetState(KANTURU_STATE_END);

  00f1c	6a 05		 push	 5
  00f1e	8b 4d fc	 mov	 ecx, DWORD PTR _this$[ebp]
  00f21	e8 00 00 00 00	 call	 ?SetState@CKanturu@@QAEXH@Z ; CKanturu::SetState
$LN2@ProcState_@2:

; 371  : 		}
; 372  : 	}
; 373  : 	else

  00f26	eb 0e		 jmp	 SHORT $LN5@ProcState_@2
$LN4@ProcState_@2:

; 374  : 	{
; 375  : 		this->m_BattleOfMaya.Run();

  00f28	8b 4d fc	 mov	 ecx, DWORD PTR _this$[ebp]
  00f2b	81 c1 f4 00 00
	00		 add	 ecx, 244		; 000000f4H
  00f31	e8 00 00 00 00	 call	 ?Run@CKanturuBattleOfMaya@@QAEXXZ ; CKanturuBattleOfMaya::Run
$LN5@ProcState_@2:

; 376  : 	}
; 377  : }

  00f36	5f		 pop	 edi
  00f37	5e		 pop	 esi
  00f38	5b		 pop	 ebx
  00f39	8b e5		 mov	 esp, ebp
  00f3b	5d		 pop	 ebp
  00f3c	c3		 ret	 0
?ProcState_BATTLE_OF_MAYA@CKanturu@@QAEXXZ ENDP		; CKanturu::ProcState_BATTLE_OF_MAYA
; Function compile flags: /Odtp /ZI
; File d:\projects\exteam6.3\source\gameserver\gameserver\kanturubattleofmaya.h
_TEXT	ENDS
;	COMDAT ?GetBattleOfMayaState@CKanturuBattleOfMaya@@QAEHXZ
_TEXT	SEGMENT
_this$ = -4						; size = 4
?GetBattleOfMayaState@CKanturuBattleOfMaya@@QAEHXZ PROC	; CKanturuBattleOfMaya::GetBattleOfMayaState, COMDAT
; _this$ = ecx

; 94   : 	int GetBattleOfMayaState(){return this->m_iBattleOfMayaState;}

  00000	55		 push	 ebp
  00001	8b ec		 mov	 ebp, esp
  00003	83 ec 44	 sub	 esp, 68			; 00000044H
  00006	53		 push	 ebx
  00007	56		 push	 esi
  00008	57		 push	 edi
  00009	89 4d fc	 mov	 DWORD PTR _this$[ebp], ecx
  0000c	8b 45 fc	 mov	 eax, DWORD PTR _this$[ebp]
  0000f	8b 40 08	 mov	 eax, DWORD PTR [eax+8]
  00012	5f		 pop	 edi
  00013	5e		 pop	 esi
  00014	5b		 pop	 ebx
  00015	8b e5		 mov	 esp, ebp
  00017	5d		 pop	 ebp
  00018	c3		 ret	 0
?GetBattleOfMayaState@CKanturuBattleOfMaya@@QAEHXZ ENDP	; CKanturuBattleOfMaya::GetBattleOfMayaState
; Function compile flags: /Odtp /ZI
_TEXT	ENDS
;	COMDAT ?GetSuccessValue@CKanturuBattleOfMaya@@QAEHXZ
_TEXT	SEGMENT
_this$ = -4						; size = 4
?GetSuccessValue@CKanturuBattleOfMaya@@QAEHXZ PROC	; CKanturuBattleOfMaya::GetSuccessValue, COMDAT
; _this$ = ecx

; 103  : 	BOOL GetSuccessValue(){return this->m_bIsSucccess;}

  00000	55		 push	 ebp
  00001	8b ec		 mov	 ebp, esp
  00003	83 ec 44	 sub	 esp, 68			; 00000044H
  00006	53		 push	 ebx
  00007	56		 push	 esi
  00008	57		 push	 edi
  00009	89 4d fc	 mov	 DWORD PTR _this$[ebp], ecx
  0000c	8b 45 fc	 mov	 eax, DWORD PTR _this$[ebp]
  0000f	8b 80 d4 01 00
	00		 mov	 eax, DWORD PTR [eax+468]
  00015	5f		 pop	 edi
  00016	5e		 pop	 esi
  00017	5b		 pop	 ebx
  00018	8b e5		 mov	 esp, ebp
  0001a	5d		 pop	 ebp
  0001b	c3		 ret	 0
?GetSuccessValue@CKanturuBattleOfMaya@@QAEHXZ ENDP	; CKanturuBattleOfMaya::GetSuccessValue
_TEXT	ENDS
PUBLIC	?GetSuccessValue@CKanturuBattleOfNightmare@@QAEHXZ ; CKanturuBattleOfNightmare::GetSuccessValue
PUBLIC	?GetBattleOfNightmareState@CKanturuBattleOfNightmare@@QAEHXZ ; CKanturuBattleOfNightmare::GetBattleOfNightmareState
EXTRN	?Run@CKanturuBattleOfNightmare@@QAEXXZ:PROC	; CKanturuBattleOfNightmare::Run
; Function compile flags: /Odtp /ZI
; File d:\projects\exteam6.3\source\gameserver\gameserver\kanturu.cpp
_TEXT	SEGMENT
_this$ = -4						; size = 4
?ProcState_BATTLE_OF_NIGHTMARE@CKanturu@@QAEXXZ PROC	; CKanturu::ProcState_BATTLE_OF_NIGHTMARE
; _this$ = ecx

; 381  : {

  00f40	55		 push	 ebp
  00f41	8b ec		 mov	 ebp, esp
  00f43	83 ec 44	 sub	 esp, 68			; 00000044H
  00f46	53		 push	 ebx
  00f47	56		 push	 esi
  00f48	57		 push	 edi
  00f49	89 4d fc	 mov	 DWORD PTR _this$[ebp], ecx

; 382  : 	if ( this->m_BattleOfNightmare.GetBattleOfNightmareState() == 5 )

  00f4c	8b 4d fc	 mov	 ecx, DWORD PTR _this$[ebp]
  00f4f	81 c1 20 03 00
	00		 add	 ecx, 800		; 00000320H
  00f55	e8 00 00 00 00	 call	 ?GetBattleOfNightmareState@CKanturuBattleOfNightmare@@QAEHXZ ; CKanturuBattleOfNightmare::GetBattleOfNightmareState
  00f5a	83 f8 05	 cmp	 eax, 5
  00f5d	75 3b		 jne	 SHORT $LN4@ProcState_@3

; 383  : 	{
; 384  : 		this->m_BattleOfNightmare.SetState(0);

  00f5f	6a 00		 push	 0
  00f61	8b 4d fc	 mov	 ecx, DWORD PTR _this$[ebp]
  00f64	81 c1 20 03 00
	00		 add	 ecx, 800		; 00000320H
  00f6a	e8 00 00 00 00	 call	 ?SetState@CKanturuBattleOfNightmare@@QAEXH@Z ; CKanturuBattleOfNightmare::SetState

; 385  : 
; 386  : 		if ( this->m_BattleOfNightmare.GetSuccessValue() == 1 )

  00f6f	8b 4d fc	 mov	 ecx, DWORD PTR _this$[ebp]
  00f72	81 c1 20 03 00
	00		 add	 ecx, 800		; 00000320H
  00f78	e8 00 00 00 00	 call	 ?GetSuccessValue@CKanturuBattleOfNightmare@@QAEHXZ ; CKanturuBattleOfNightmare::GetSuccessValue
  00f7d	83 f8 01	 cmp	 eax, 1
  00f80	75 0c		 jne	 SHORT $LN3@ProcState_@3

; 387  : 		{
; 388  : 			this->SetState(KANTURU_STATE_TOWER_OF_REFINEMENT);

  00f82	6a 04		 push	 4
  00f84	8b 4d fc	 mov	 ecx, DWORD PTR _this$[ebp]
  00f87	e8 00 00 00 00	 call	 ?SetState@CKanturu@@QAEXH@Z ; CKanturu::SetState

; 389  : 		}
; 390  : 		else

  00f8c	eb 0a		 jmp	 SHORT $LN2@ProcState_@3
$LN3@ProcState_@3:

; 391  : 		{
; 392  : 			this->SetState(KANTURU_STATE_END);

  00f8e	6a 05		 push	 5
  00f90	8b 4d fc	 mov	 ecx, DWORD PTR _this$[ebp]
  00f93	e8 00 00 00 00	 call	 ?SetState@CKanturu@@QAEXH@Z ; CKanturu::SetState
$LN2@ProcState_@3:

; 393  : 		}
; 394  : 	}
; 395  : 	else

  00f98	eb 0e		 jmp	 SHORT $LN5@ProcState_@3
$LN4@ProcState_@3:

; 396  : 	{
; 397  : 		this->m_BattleOfNightmare.Run();

  00f9a	8b 4d fc	 mov	 ecx, DWORD PTR _this$[ebp]
  00f9d	81 c1 20 03 00
	00		 add	 ecx, 800		; 00000320H
  00fa3	e8 00 00 00 00	 call	 ?Run@CKanturuBattleOfNightmare@@QAEXXZ ; CKanturuBattleOfNightmare::Run
$LN5@ProcState_@3:

; 398  : 	}
; 399  : }

  00fa8	5f		 pop	 edi
  00fa9	5e		 pop	 esi
  00faa	5b		 pop	 ebx
  00fab	8b e5		 mov	 esp, ebp
  00fad	5d		 pop	 ebp
  00fae	c3		 ret	 0
?ProcState_BATTLE_OF_NIGHTMARE@CKanturu@@QAEXXZ ENDP	; CKanturu::ProcState_BATTLE_OF_NIGHTMARE
; Function compile flags: /Odtp /ZI
; File d:\projects\exteam6.3\source\gameserver\gameserver\kanturubattleofnightmare.h
_TEXT	ENDS
;	COMDAT ?GetBattleOfNightmareState@CKanturuBattleOfNightmare@@QAEHXZ
_TEXT	SEGMENT
_this$ = -4						; size = 4
?GetBattleOfNightmareState@CKanturuBattleOfNightmare@@QAEHXZ PROC ; CKanturuBattleOfNightmare::GetBattleOfNightmareState, COMDAT
; _this$ = ecx

; 50   : 	int GetBattleOfNightmareState(){return this->m_iBattleOfNightmareState;}

  00000	55		 push	 ebp
  00001	8b ec		 mov	 ebp, esp
  00003	83 ec 44	 sub	 esp, 68			; 00000044H
  00006	53		 push	 ebx
  00007	56		 push	 esi
  00008	57		 push	 edi
  00009	89 4d fc	 mov	 DWORD PTR _this$[ebp], ecx
  0000c	8b 45 fc	 mov	 eax, DWORD PTR _this$[ebp]
  0000f	8b 40 04	 mov	 eax, DWORD PTR [eax+4]
  00012	5f		 pop	 edi
  00013	5e		 pop	 esi
  00014	5b		 pop	 ebx
  00015	8b e5		 mov	 esp, ebp
  00017	5d		 pop	 ebp
  00018	c3		 ret	 0
?GetBattleOfNightmareState@CKanturuBattleOfNightmare@@QAEHXZ ENDP ; CKanturuBattleOfNightmare::GetBattleOfNightmareState
; Function compile flags: /Odtp /ZI
_TEXT	ENDS
;	COMDAT ?GetSuccessValue@CKanturuBattleOfNightmare@@QAEHXZ
_TEXT	SEGMENT
_this$ = -4						; size = 4
?GetSuccessValue@CKanturuBattleOfNightmare@@QAEHXZ PROC	; CKanturuBattleOfNightmare::GetSuccessValue, COMDAT
; _this$ = ecx

; 52   : 	BOOL GetSuccessValue(){return this->m_bIsSucccess;}

  00000	55		 push	 ebp
  00001	8b ec		 mov	 ebp, esp
  00003	83 ec 44	 sub	 esp, 68			; 00000044H
  00006	53		 push	 ebx
  00007	56		 push	 esi
  00008	57		 push	 edi
  00009	89 4d fc	 mov	 DWORD PTR _this$[ebp], ecx
  0000c	8b 45 fc	 mov	 eax, DWORD PTR _this$[ebp]
  0000f	8b 40 08	 mov	 eax, DWORD PTR [eax+8]
  00012	5f		 pop	 edi
  00013	5e		 pop	 esi
  00014	5b		 pop	 ebx
  00015	8b e5		 mov	 esp, ebp
  00017	5d		 pop	 ebp
  00018	c3		 ret	 0
?GetSuccessValue@CKanturuBattleOfNightmare@@QAEHXZ ENDP	; CKanturuBattleOfNightmare::GetSuccessValue
_TEXT	ENDS
PUBLIC	?GetTowerOfRefinementState@CKanturuTowerOfRefinement@@QAEHXZ ; CKanturuTowerOfRefinement::GetTowerOfRefinementState
EXTRN	?Run@CKanturuTowerOfRefinement@@QAEXXZ:PROC	; CKanturuTowerOfRefinement::Run
; Function compile flags: /Odtp /ZI
; File d:\projects\exteam6.3\source\gameserver\gameserver\kanturu.cpp
_TEXT	SEGMENT
_this$ = -4						; size = 4
?ProcState_TOWER_OF_REFINEMENT@CKanturu@@QAEXXZ PROC	; CKanturu::ProcState_TOWER_OF_REFINEMENT
; _this$ = ecx

; 403  : {

  00fb0	55		 push	 ebp
  00fb1	8b ec		 mov	 ebp, esp
  00fb3	83 ec 44	 sub	 esp, 68			; 00000044H
  00fb6	53		 push	 ebx
  00fb7	56		 push	 esi
  00fb8	57		 push	 edi
  00fb9	89 4d fc	 mov	 DWORD PTR _this$[ebp], ecx

; 404  : 	if ( this->m_TowerOfRefinement.GetTowerOfRefinementState() == 5 )

  00fbc	8b 4d fc	 mov	 ecx, DWORD PTR _this$[ebp]
  00fbf	81 c1 b4 03 00
	00		 add	 ecx, 948		; 000003b4H
  00fc5	e8 00 00 00 00	 call	 ?GetTowerOfRefinementState@CKanturuTowerOfRefinement@@QAEHXZ ; CKanturuTowerOfRefinement::GetTowerOfRefinementState
  00fca	83 f8 05	 cmp	 eax, 5
  00fcd	75 1c		 jne	 SHORT $LN2@ProcState_@4

; 405  : 	{
; 406  : 		this->m_TowerOfRefinement.SetState(0);

  00fcf	6a 00		 push	 0
  00fd1	8b 4d fc	 mov	 ecx, DWORD PTR _this$[ebp]
  00fd4	81 c1 b4 03 00
	00		 add	 ecx, 948		; 000003b4H
  00fda	e8 00 00 00 00	 call	 ?SetState@CKanturuTowerOfRefinement@@QAEXH@Z ; CKanturuTowerOfRefinement::SetState

; 407  : 		this->SetState(KANTURU_STATE_END);

  00fdf	6a 05		 push	 5
  00fe1	8b 4d fc	 mov	 ecx, DWORD PTR _this$[ebp]
  00fe4	e8 00 00 00 00	 call	 ?SetState@CKanturu@@QAEXH@Z ; CKanturu::SetState

; 408  : 	}
; 409  : 	else

  00fe9	eb 0e		 jmp	 SHORT $LN3@ProcState_@4
$LN2@ProcState_@4:

; 410  : 	{
; 411  : 		this->m_TowerOfRefinement.Run();

  00feb	8b 4d fc	 mov	 ecx, DWORD PTR _this$[ebp]
  00fee	81 c1 b4 03 00
	00		 add	 ecx, 948		; 000003b4H
  00ff4	e8 00 00 00 00	 call	 ?Run@CKanturuTowerOfRefinement@@QAEXXZ ; CKanturuTowerOfRefinement::Run
$LN3@ProcState_@4:

; 412  : 	}
; 413  : }

  00ff9	5f		 pop	 edi
  00ffa	5e		 pop	 esi
  00ffb	5b		 pop	 ebx
  00ffc	8b e5		 mov	 esp, ebp
  00ffe	5d		 pop	 ebp
  00fff	c3		 ret	 0
?ProcState_TOWER_OF_REFINEMENT@CKanturu@@QAEXXZ ENDP	; CKanturu::ProcState_TOWER_OF_REFINEMENT
; Function compile flags: /Odtp /ZI
; File d:\projects\exteam6.3\source\gameserver\gameserver\kanturutowerofrefinement.h
_TEXT	ENDS
;	COMDAT ?GetTowerOfRefinementState@CKanturuTowerOfRefinement@@QAEHXZ
_TEXT	SEGMENT
_this$ = -4						; size = 4
?GetTowerOfRefinementState@CKanturuTowerOfRefinement@@QAEHXZ PROC ; CKanturuTowerOfRefinement::GetTowerOfRefinementState, COMDAT
; _this$ = ecx

; 52   : 	int GetTowerOfRefinementState(){return this->m_iTowerOfRefinementState;}

  00000	55		 push	 ebp
  00001	8b ec		 mov	 ebp, esp
  00003	83 ec 44	 sub	 esp, 68			; 00000044H
  00006	53		 push	 ebx
  00007	56		 push	 esi
  00008	57		 push	 edi
  00009	89 4d fc	 mov	 DWORD PTR _this$[ebp], ecx
  0000c	8b 45 fc	 mov	 eax, DWORD PTR _this$[ebp]
  0000f	8b 40 04	 mov	 eax, DWORD PTR [eax+4]
  00012	5f		 pop	 edi
  00013	5e		 pop	 esi
  00014	5b		 pop	 ebx
  00015	8b e5		 mov	 esp, ebp
  00017	5d		 pop	 ebp
  00018	c3		 ret	 0
?GetTowerOfRefinementState@CKanturuTowerOfRefinement@@QAEHXZ ENDP ; CKanturuTowerOfRefinement::GetTowerOfRefinementState
; Function compile flags: /Odtp /ZI
; File d:\projects\exteam6.3\source\gameserver\gameserver\kanturu.cpp
_TEXT	ENDS
_TEXT	SEGMENT
_this$ = -4						; size = 4
?ProcState_END@CKanturu@@QAEXXZ PROC			; CKanturu::ProcState_END
; _this$ = ecx

; 417  : {

  01000	55		 push	 ebp
  01001	8b ec		 mov	 ebp, esp
  01003	83 ec 44	 sub	 esp, 68			; 00000044H
  01006	53		 push	 ebx
  01007	56		 push	 esi
  01008	57		 push	 edi
  01009	89 4d fc	 mov	 DWORD PTR _this$[ebp], ecx

; 418  : 	this->SetState(KANTURU_STATE_NONE);

  0100c	6a 00		 push	 0
  0100e	8b 4d fc	 mov	 ecx, DWORD PTR _this$[ebp]
  01011	e8 00 00 00 00	 call	 ?SetState@CKanturu@@QAEXH@Z ; CKanturu::SetState

; 419  : }

  01016	5f		 pop	 edi
  01017	5e		 pop	 esi
  01018	5b		 pop	 ebx
  01019	8b e5		 mov	 esp, ebp
  0101b	5d		 pop	 ebp
  0101c	c3		 ret	 0
?ProcState_END@CKanturu@@QAEXXZ ENDP			; CKanturu::ProcState_END
; Function compile flags: /Odtp /ZI
tv66 = -76						; size = 4
_iCurrentDetailState$ = -8				; size = 4
_this$ = -4						; size = 4
?GetKanturuDetailState@CKanturu@@QAEHXZ PROC		; CKanturu::GetKanturuDetailState
; _this$ = ecx

; 423  : {

  01020	55		 push	 ebp
  01021	8b ec		 mov	 ebp, esp
  01023	83 ec 4c	 sub	 esp, 76			; 0000004cH
  01026	53		 push	 ebx
  01027	56		 push	 esi
  01028	57		 push	 edi
  01029	89 4d fc	 mov	 DWORD PTR _this$[ebp], ecx

; 424  : 	int iCurrentDetailState = KANTURU_STATE_NONE;

  0102c	c7 45 f8 00 00
	00 00		 mov	 DWORD PTR _iCurrentDetailState$[ebp], 0

; 425  : 
; 426  : 	switch ( this->GetKanturuState() )

  01033	8b 4d fc	 mov	 ecx, DWORD PTR _this$[ebp]
  01036	e8 00 00 00 00	 call	 ?GetKanturuState@CKanturu@@QAEHXZ ; CKanturu::GetKanturuState
  0103b	89 45 b4	 mov	 DWORD PTR tv66[ebp], eax
  0103e	8b 45 b4	 mov	 eax, DWORD PTR tv66[ebp]
  01041	83 e8 01	 sub	 eax, 1
  01044	89 45 b4	 mov	 DWORD PTR tv66[ebp], eax
  01047	83 7d b4 03	 cmp	 DWORD PTR tv66[ebp], 3
  0104b	77 54		 ja	 SHORT $LN5@GetKanturu
  0104d	8b 4d b4	 mov	 ecx, DWORD PTR tv66[ebp]
  01050	ff 24 8d 00 00
	00 00		 jmp	 DWORD PTR $LN9@GetKanturu[ecx*4]
$LN4@GetKanturu:

; 427  : 	{
; 428  : 		case KANTURU_STATE_BATTLE_STANTBY:
; 429  : 			iCurrentDetailState = this->m_BattleStanby.GetBattleStanbyState();

  01057	8b 4d fc	 mov	 ecx, DWORD PTR _this$[ebp]
  0105a	81 c1 90 00 00
	00		 add	 ecx, 144		; 00000090H
  01060	e8 00 00 00 00	 call	 ?GetBattleStanbyState@CKanturuBattleStanby@@QAEHXZ ; CKanturuBattleStanby::GetBattleStanbyState
  01065	89 45 f8	 mov	 DWORD PTR _iCurrentDetailState$[ebp], eax

; 430  : 			break;

  01068	eb 37		 jmp	 SHORT $LN5@GetKanturu
$LN3@GetKanturu:

; 431  : 		case KANTURU_STATE_BATTLE_OF_MAYA:
; 432  : 			iCurrentDetailState = this->m_BattleOfMaya.GetBattleOfMayaState();

  0106a	8b 4d fc	 mov	 ecx, DWORD PTR _this$[ebp]
  0106d	81 c1 f4 00 00
	00		 add	 ecx, 244		; 000000f4H
  01073	e8 00 00 00 00	 call	 ?GetBattleOfMayaState@CKanturuBattleOfMaya@@QAEHXZ ; CKanturuBattleOfMaya::GetBattleOfMayaState
  01078	89 45 f8	 mov	 DWORD PTR _iCurrentDetailState$[ebp], eax

; 433  : 			break;

  0107b	eb 24		 jmp	 SHORT $LN5@GetKanturu
$LN2@GetKanturu:

; 434  : 		case KANTURU_STATE_BATTLE_OF_NIGHTMARE:
; 435  : 			iCurrentDetailState = this->m_BattleOfNightmare.GetBattleOfNightmareState();

  0107d	8b 4d fc	 mov	 ecx, DWORD PTR _this$[ebp]
  01080	81 c1 20 03 00
	00		 add	 ecx, 800		; 00000320H
  01086	e8 00 00 00 00	 call	 ?GetBattleOfNightmareState@CKanturuBattleOfNightmare@@QAEHXZ ; CKanturuBattleOfNightmare::GetBattleOfNightmareState
  0108b	89 45 f8	 mov	 DWORD PTR _iCurrentDetailState$[ebp], eax

; 436  : 			break;

  0108e	eb 11		 jmp	 SHORT $LN5@GetKanturu
$LN1@GetKanturu:

; 437  : 		case KANTURU_STATE_TOWER_OF_REFINEMENT:
; 438  : 			iCurrentDetailState = this->m_TowerOfRefinement.GetTowerOfRefinementState();

  01090	8b 4d fc	 mov	 ecx, DWORD PTR _this$[ebp]
  01093	81 c1 b4 03 00
	00		 add	 ecx, 948		; 000003b4H
  01099	e8 00 00 00 00	 call	 ?GetTowerOfRefinementState@CKanturuTowerOfRefinement@@QAEHXZ ; CKanturuTowerOfRefinement::GetTowerOfRefinementState
  0109e	89 45 f8	 mov	 DWORD PTR _iCurrentDetailState$[ebp], eax
$LN5@GetKanturu:

; 439  : 			break;
; 440  : 	}
; 441  : 
; 442  : 	return iCurrentDetailState;

  010a1	8b 45 f8	 mov	 eax, DWORD PTR _iCurrentDetailState$[ebp]

; 443  : }

  010a4	5f		 pop	 edi
  010a5	5e		 pop	 esi
  010a6	5b		 pop	 ebx
  010a7	8b e5		 mov	 esp, ebp
  010a9	5d		 pop	 ebp
  010aa	c3		 ret	 0
  010ab	90		 npad	 1
$LN9@GetKanturu:
  010ac	00 00 00 00	 DD	 $LN4@GetKanturu
  010b0	00 00 00 00	 DD	 $LN3@GetKanturu
  010b4	00 00 00 00	 DD	 $LN2@GetKanturu
  010b8	00 00 00 00	 DD	 $LN1@GetKanturu
?GetKanturuDetailState@CKanturu@@QAEHXZ ENDP		; CKanturu::GetKanturuDetailState
_TEXT	ENDS
PUBLIC	?IsTimeOut@CKanturuStateInfo@@QAEHXZ		; CKanturuStateInfo::IsTimeOut
; Function compile flags: /Odtp /ZI
_TEXT	SEGMENT
_iState$228149 = -8					; size = 4
_this$ = -4						; size = 4
?CheckStateTime@CKanturu@@QAEXXZ PROC			; CKanturu::CheckStateTime
; _this$ = ecx

; 447  : {

  010c0	55		 push	 ebp
  010c1	8b ec		 mov	 ebp, esp
  010c3	83 ec 48	 sub	 esp, 72			; 00000048H
  010c6	53		 push	 ebx
  010c7	56		 push	 esi
  010c8	57		 push	 edi
  010c9	89 4d fc	 mov	 DWORD PTR _this$[ebp], ecx

; 448  : 	if ( this->GetKanturuState() )

  010cc	8b 4d fc	 mov	 ecx, DWORD PTR _this$[ebp]
  010cf	e8 00 00 00 00	 call	 ?GetKanturuState@CKanturu@@QAEHXZ ; CKanturu::GetKanturuState
  010d4	85 c0		 test	 eax, eax
  010d6	74 45		 je	 SHORT $LN4@CheckState

; 449  : 	{
; 450  : 		int iState = this->GetKanturuState();

  010d8	8b 4d fc	 mov	 ecx, DWORD PTR _this$[ebp]
  010db	e8 00 00 00 00	 call	 ?GetKanturuState@CKanturu@@QAEHXZ ; CKanturu::GetKanturuState
  010e0	89 45 f8	 mov	 DWORD PTR _iState$228149[ebp], eax

; 451  : 
; 452  : 		if ( this->m_StateInfo[iState].GetCondition() == 1 )

  010e3	8b 45 f8	 mov	 eax, DWORD PTR _iState$228149[ebp]
  010e6	6b c0 14	 imul	 eax, 20			; 00000014H
  010e9	8b 4d fc	 mov	 ecx, DWORD PTR _this$[ebp]
  010ec	8d 4c 01 14	 lea	 ecx, DWORD PTR [ecx+eax+20]
  010f0	e8 00 00 00 00	 call	 ?GetCondition@CKanturuStateInfo@@QAEHXZ ; CKanturuStateInfo::GetCondition
  010f5	83 f8 01	 cmp	 eax, 1
  010f8	75 23		 jne	 SHORT $LN4@CheckState

; 453  : 		{
; 454  : 			if ( this->m_StateInfo[iState].IsTimeOut() == TRUE )

  010fa	8b 45 f8	 mov	 eax, DWORD PTR _iState$228149[ebp]
  010fd	6b c0 14	 imul	 eax, 20			; 00000014H
  01100	8b 4d fc	 mov	 ecx, DWORD PTR _this$[ebp]
  01103	8d 4c 01 14	 lea	 ecx, DWORD PTR [ecx+eax+20]
  01107	e8 00 00 00 00	 call	 ?IsTimeOut@CKanturuStateInfo@@QAEHXZ ; CKanturuStateInfo::IsTimeOut
  0110c	83 f8 01	 cmp	 eax, 1
  0110f	75 0c		 jne	 SHORT $LN4@CheckState

; 455  : 			{
; 456  : 				this->SetNextState(iState);

  01111	8b 45 f8	 mov	 eax, DWORD PTR _iState$228149[ebp]
  01114	50		 push	 eax
  01115	8b 4d fc	 mov	 ecx, DWORD PTR _this$[ebp]
  01118	e8 00 00 00 00	 call	 ?SetNextState@CKanturu@@QAEXH@Z ; CKanturu::SetNextState
$LN4@CheckState:

; 457  : 			}
; 458  : 		}
; 459  : 	}
; 460  : }

  0111d	5f		 pop	 edi
  0111e	5e		 pop	 esi
  0111f	5b		 pop	 ebx
  01120	8b e5		 mov	 esp, ebp
  01122	5d		 pop	 ebp
  01123	c3		 ret	 0
?CheckStateTime@CKanturu@@QAEXXZ ENDP			; CKanturu::CheckStateTime
_TEXT	ENDS
PUBLIC	?GetRemainTime@CKanturuStateInfo@@QAEHXZ	; CKanturuStateInfo::GetRemainTime
; Function compile flags: /Odtp /ZI
; File d:\projects\exteam6.3\source\gameserver\gameserver\kanturustateinfo.h
;	COMDAT ?IsTimeOut@CKanturuStateInfo@@QAEHXZ
_TEXT	SEGMENT
_this$ = -4						; size = 4
?IsTimeOut@CKanturuStateInfo@@QAEHXZ PROC		; CKanturuStateInfo::IsTimeOut, COMDAT
; _this$ = ecx

; 89   : 	{

  00000	55		 push	 ebp
  00001	8b ec		 mov	 ebp, esp
  00003	83 ec 44	 sub	 esp, 68			; 00000044H
  00006	53		 push	 ebx
  00007	56		 push	 esi
  00008	57		 push	 edi
  00009	89 4d fc	 mov	 DWORD PTR _this$[ebp], ecx

; 90   : 		if ( this->GetRemainTime() <= 0 )

  0000c	8b 4d fc	 mov	 ecx, DWORD PTR _this$[ebp]
  0000f	e8 00 00 00 00	 call	 ?GetRemainTime@CKanturuStateInfo@@QAEHXZ ; CKanturuStateInfo::GetRemainTime
  00014	85 c0		 test	 eax, eax
  00016	7f 07		 jg	 SHORT $LN1@IsTimeOut

; 91   : 		{
; 92   : 			return TRUE;

  00018	b8 01 00 00 00	 mov	 eax, 1
  0001d	eb 02		 jmp	 SHORT $LN2@IsTimeOut
$LN1@IsTimeOut:

; 93   : 		}
; 94   : 
; 95   : 		return FALSE;

  0001f	33 c0		 xor	 eax, eax
$LN2@IsTimeOut:

; 96   : 	}

  00021	5f		 pop	 edi
  00022	5e		 pop	 esi
  00023	5b		 pop	 ebx
  00024	8b e5		 mov	 esp, ebp
  00026	5d		 pop	 ebp
  00027	c3		 ret	 0
?IsTimeOut@CKanturuStateInfo@@QAEHXZ ENDP		; CKanturuStateInfo::IsTimeOut
_TEXT	ENDS
PUBLIC	?GetElapsedTime@CKanturuStateInfo@@QAEHXZ	; CKanturuStateInfo::GetElapsedTime
; Function compile flags: /Odtp /ZI
;	COMDAT ?GetRemainTime@CKanturuStateInfo@@QAEHXZ
_TEXT	SEGMENT
_iRemainTime$ = -8					; size = 4
_this$ = -4						; size = 4
?GetRemainTime@CKanturuStateInfo@@QAEHXZ PROC		; CKanturuStateInfo::GetRemainTime, COMDAT
; _this$ = ecx

; 70   : 	{

  00000	55		 push	 ebp
  00001	8b ec		 mov	 ebp, esp
  00003	83 ec 48	 sub	 esp, 72			; 00000048H
  00006	53		 push	 ebx
  00007	56		 push	 esi
  00008	57		 push	 edi
  00009	89 4d fc	 mov	 DWORD PTR _this$[ebp], ecx

; 71   : 		int iRemainTime = 0;

  0000c	c7 45 f8 00 00
	00 00		 mov	 DWORD PTR _iRemainTime$[ebp], 0

; 72   : 
; 73   : 		if ( this->GetCondition() == 1 )

  00013	8b 4d fc	 mov	 ecx, DWORD PTR _this$[ebp]
  00016	e8 00 00 00 00	 call	 ?GetCondition@CKanturuStateInfo@@QAEHXZ ; CKanturuStateInfo::GetCondition
  0001b	83 f8 01	 cmp	 eax, 1
  0001e	75 2b		 jne	 SHORT $LN2@GetRemainT

; 74   : 		{
; 75   : 			iRemainTime = this->m_iValue - this->GetElapsedTime();

  00020	8b 4d fc	 mov	 ecx, DWORD PTR _this$[ebp]
  00023	e8 00 00 00 00	 call	 ?GetElapsedTime@CKanturuStateInfo@@QAEHXZ ; CKanturuStateInfo::GetElapsedTime
  00028	8b 4d fc	 mov	 ecx, DWORD PTR _this$[ebp]
  0002b	8b 51 0c	 mov	 edx, DWORD PTR [ecx+12]
  0002e	2b d0		 sub	 edx, eax
  00030	89 55 f8	 mov	 DWORD PTR _iRemainTime$[ebp], edx

; 76   : 
; 77   : 			if ( iRemainTime <= 0 )

  00033	83 7d f8 00	 cmp	 DWORD PTR _iRemainTime$[ebp], 0
  00037	7f 04		 jg	 SHORT $LN1@GetRemainT

; 78   : 			{
; 79   : 				return 0;

  00039	33 c0		 xor	 eax, eax
  0003b	eb 11		 jmp	 SHORT $LN3@GetRemainT
$LN1@GetRemainT:

; 80   : 			}
; 81   : 
; 82   : 			iRemainTime /= 1000;

  0003d	8b 45 f8	 mov	 eax, DWORD PTR _iRemainTime$[ebp]
  00040	99		 cdq
  00041	b9 e8 03 00 00	 mov	 ecx, 1000		; 000003e8H
  00046	f7 f9		 idiv	 ecx
  00048	89 45 f8	 mov	 DWORD PTR _iRemainTime$[ebp], eax
$LN2@GetRemainT:

; 83   : 		}
; 84   : 
; 85   : 		return iRemainTime;

  0004b	8b 45 f8	 mov	 eax, DWORD PTR _iRemainTime$[ebp]
$LN3@GetRemainT:

; 86   : 	}

  0004e	5f		 pop	 edi
  0004f	5e		 pop	 esi
  00050	5b		 pop	 ebx
  00051	8b e5		 mov	 esp, ebp
  00053	5d		 pop	 ebp
  00054	c3		 ret	 0
?GetRemainTime@CKanturuStateInfo@@QAEHXZ ENDP		; CKanturuStateInfo::GetRemainTime
_TEXT	ENDS
PUBLIC	?GetAppliedTime@CKanturuStateInfo@@QAEHXZ	; CKanturuStateInfo::GetAppliedTime
; Function compile flags: /Odtp /ZI
;	COMDAT ?GetElapsedTime@CKanturuStateInfo@@QAEHXZ
_TEXT	SEGMENT
_iElapsedTime$ = -8					; size = 4
_this$ = -4						; size = 4
?GetElapsedTime@CKanturuStateInfo@@QAEHXZ PROC		; CKanturuStateInfo::GetElapsedTime, COMDAT
; _this$ = ecx

; 64   : 	{

  00000	55		 push	 ebp
  00001	8b ec		 mov	 ebp, esp
  00003	83 ec 48	 sub	 esp, 72			; 00000048H
  00006	53		 push	 ebx
  00007	56		 push	 esi
  00008	57		 push	 edi
  00009	89 4d fc	 mov	 DWORD PTR _this$[ebp], ecx

; 65   : 		int iElapsedTime = GetTickCount() - this->GetAppliedTime();

  0000c	ff 15 00 00 00
	00		 call	 DWORD PTR __imp__GetTickCount@0
  00012	8b f0		 mov	 esi, eax
  00014	8b 4d fc	 mov	 ecx, DWORD PTR _this$[ebp]
  00017	e8 00 00 00 00	 call	 ?GetAppliedTime@CKanturuStateInfo@@QAEHXZ ; CKanturuStateInfo::GetAppliedTime
  0001c	2b f0		 sub	 esi, eax
  0001e	89 75 f8	 mov	 DWORD PTR _iElapsedTime$[ebp], esi

; 66   : 		return iElapsedTime;

  00021	8b 45 f8	 mov	 eax, DWORD PTR _iElapsedTime$[ebp]

; 67   : 	}

  00024	5f		 pop	 edi
  00025	5e		 pop	 esi
  00026	5b		 pop	 ebx
  00027	8b e5		 mov	 esp, ebp
  00029	5d		 pop	 ebp
  0002a	c3		 ret	 0
?GetElapsedTime@CKanturuStateInfo@@QAEHXZ ENDP		; CKanturuStateInfo::GetElapsedTime
; Function compile flags: /Odtp /ZI
_TEXT	ENDS
;	COMDAT ?GetAppliedTime@CKanturuStateInfo@@QAEHXZ
_TEXT	SEGMENT
_this$ = -4						; size = 4
?GetAppliedTime@CKanturuStateInfo@@QAEHXZ PROC		; CKanturuStateInfo::GetAppliedTime, COMDAT
; _this$ = ecx

; 59   : 	{

  00000	55		 push	 ebp
  00001	8b ec		 mov	 ebp, esp
  00003	83 ec 44	 sub	 esp, 68			; 00000044H
  00006	53		 push	 ebx
  00007	56		 push	 esi
  00008	57		 push	 edi
  00009	89 4d fc	 mov	 DWORD PTR _this$[ebp], ecx

; 60   : 		return this->m_dwAppliedTickCount;

  0000c	8b 45 fc	 mov	 eax, DWORD PTR _this$[ebp]
  0000f	8b 40 10	 mov	 eax, DWORD PTR [eax+16]

; 61   : 	}

  00012	5f		 pop	 edi
  00013	5e		 pop	 esi
  00014	5b		 pop	 ebx
  00015	8b e5		 mov	 esp, ebp
  00017	5d		 pop	 ebp
  00018	c3		 ret	 0
?GetAppliedTime@CKanturuStateInfo@@QAEHXZ ENDP		; CKanturuStateInfo::GetAppliedTime
_TEXT	ENDS
PUBLIC	?GetRemainTime@CKanturu@@QAEHXZ			; CKanturu::GetRemainTime
EXTRN	?GetRemainTime@CKanturuTowerOfRefinement@@QAEHXZ:PROC ; CKanturuTowerOfRefinement::GetRemainTime
EXTRN	?GetRemainTime@CKanturuBattleOfNightmare@@QAEHXZ:PROC ; CKanturuBattleOfNightmare::GetRemainTime
EXTRN	?GetRemainTime@CKanturuBattleOfMaya@@QAEHXZ:PROC ; CKanturuBattleOfMaya::GetRemainTime
EXTRN	?GetRemainTime@CKanturuBattleStanby@@QAEHXZ:PROC ; CKanturuBattleStanby::GetRemainTime
; Function compile flags: /Odtp /ZI
; File d:\projects\exteam6.3\source\gameserver\gameserver\kanturu.cpp
_TEXT	SEGMENT
tv66 = -76						; size = 4
_iRemainTime$ = -8					; size = 4
_this$ = -4						; size = 4
?GetRemainTime@CKanturu@@QAEHXZ PROC			; CKanturu::GetRemainTime
; _this$ = ecx

; 465  : {

  01130	55		 push	 ebp
  01131	8b ec		 mov	 ebp, esp
  01133	83 ec 4c	 sub	 esp, 76			; 0000004cH
  01136	53		 push	 ebx
  01137	56		 push	 esi
  01138	57		 push	 edi
  01139	89 4d fc	 mov	 DWORD PTR _this$[ebp], ecx

; 466  : 	int iRemainTime = 0;

  0113c	c7 45 f8 00 00
	00 00		 mov	 DWORD PTR _iRemainTime$[ebp], 0

; 467  : 
; 468  : 	switch ( this->GetKanturuState() )

  01143	8b 4d fc	 mov	 ecx, DWORD PTR _this$[ebp]
  01146	e8 00 00 00 00	 call	 ?GetKanturuState@CKanturu@@QAEHXZ ; CKanturu::GetKanturuState
  0114b	89 45 b4	 mov	 DWORD PTR tv66[ebp], eax
  0114e	8b 45 b4	 mov	 eax, DWORD PTR tv66[ebp]
  01151	83 e8 01	 sub	 eax, 1
  01154	89 45 b4	 mov	 DWORD PTR tv66[ebp], eax
  01157	83 7d b4 03	 cmp	 DWORD PTR tv66[ebp], 3
  0115b	77 54		 ja	 SHORT $LN5@GetRemainT@2
  0115d	8b 4d b4	 mov	 ecx, DWORD PTR tv66[ebp]
  01160	ff 24 8d 00 00
	00 00		 jmp	 DWORD PTR $LN9@GetRemainT@2[ecx*4]
$LN4@GetRemainT@2:

; 469  : 	{
; 470  : 		case KANTURU_STATE_BATTLE_STANTBY:
; 471  : 			iRemainTime = this->m_BattleStanby.GetRemainTime();

  01167	8b 4d fc	 mov	 ecx, DWORD PTR _this$[ebp]
  0116a	81 c1 90 00 00
	00		 add	 ecx, 144		; 00000090H
  01170	e8 00 00 00 00	 call	 ?GetRemainTime@CKanturuBattleStanby@@QAEHXZ ; CKanturuBattleStanby::GetRemainTime
  01175	89 45 f8	 mov	 DWORD PTR _iRemainTime$[ebp], eax

; 472  : 			break;

  01178	eb 37		 jmp	 SHORT $LN5@GetRemainT@2
$LN3@GetRemainT@2:

; 473  : 		case KANTURU_STATE_BATTLE_OF_MAYA:
; 474  : 			iRemainTime = this->m_BattleOfMaya.GetRemainTime();

  0117a	8b 4d fc	 mov	 ecx, DWORD PTR _this$[ebp]
  0117d	81 c1 f4 00 00
	00		 add	 ecx, 244		; 000000f4H
  01183	e8 00 00 00 00	 call	 ?GetRemainTime@CKanturuBattleOfMaya@@QAEHXZ ; CKanturuBattleOfMaya::GetRemainTime
  01188	89 45 f8	 mov	 DWORD PTR _iRemainTime$[ebp], eax

; 475  : 			break;

  0118b	eb 24		 jmp	 SHORT $LN5@GetRemainT@2
$LN2@GetRemainT@2:

; 476  : 		case KANTURU_STATE_BATTLE_OF_NIGHTMARE:
; 477  : 			iRemainTime = this->m_BattleOfNightmare.GetRemainTime();

  0118d	8b 4d fc	 mov	 ecx, DWORD PTR _this$[ebp]
  01190	81 c1 20 03 00
	00		 add	 ecx, 800		; 00000320H
  01196	e8 00 00 00 00	 call	 ?GetRemainTime@CKanturuBattleOfNightmare@@QAEHXZ ; CKanturuBattleOfNightmare::GetRemainTime
  0119b	89 45 f8	 mov	 DWORD PTR _iRemainTime$[ebp], eax

; 478  : 			break;

  0119e	eb 11		 jmp	 SHORT $LN5@GetRemainT@2
$LN1@GetRemainT@2:

; 479  : 		case KANTURU_STATE_TOWER_OF_REFINEMENT:
; 480  : 			iRemainTime = this->m_TowerOfRefinement.GetRemainTime();

  011a0	8b 4d fc	 mov	 ecx, DWORD PTR _this$[ebp]
  011a3	81 c1 b4 03 00
	00		 add	 ecx, 948		; 000003b4H
  011a9	e8 00 00 00 00	 call	 ?GetRemainTime@CKanturuTowerOfRefinement@@QAEHXZ ; CKanturuTowerOfRefinement::GetRemainTime
  011ae	89 45 f8	 mov	 DWORD PTR _iRemainTime$[ebp], eax
$LN5@GetRemainT@2:

; 481  : 			break;
; 482  : 	}
; 483  : 
; 484  : 	return iRemainTime;

  011b1	8b 45 f8	 mov	 eax, DWORD PTR _iRemainTime$[ebp]

; 485  : }

  011b4	5f		 pop	 edi
  011b5	5e		 pop	 esi
  011b6	5b		 pop	 ebx
  011b7	8b e5		 mov	 esp, ebp
  011b9	5d		 pop	 ebp
  011ba	c3		 ret	 0
  011bb	90		 npad	 1
$LN9@GetRemainT@2:
  011bc	00 00 00 00	 DD	 $LN4@GetRemainT@2
  011c0	00 00 00 00	 DD	 $LN3@GetRemainT@2
  011c4	00 00 00 00	 DD	 $LN2@GetRemainT@2
  011c8	00 00 00 00	 DD	 $LN1@GetRemainT@2
?GetRemainTime@CKanturu@@QAEHXZ ENDP			; CKanturu::GetRemainTime
_TEXT	ENDS
PUBLIC	?KanturuMonsterDieProc@CKanturu@@QAEXHH@Z	; CKanturu::KanturuMonsterDieProc
EXTRN	?MonsterDie@CKanturuMonsterMng@@QAEXH@Z:PROC	; CKanturuMonsterMng::MonsterDie
; Function compile flags: /Odtp /ZI
_TEXT	SEGMENT
_this$ = -4						; size = 4
_iMonIndex$ = 8						; size = 4
_iKillerIndex$ = 12					; size = 4
?KanturuMonsterDieProc@CKanturu@@QAEXHH@Z PROC		; CKanturu::KanturuMonsterDieProc
; _this$ = ecx

; 490  : {

  011d0	55		 push	 ebp
  011d1	8b ec		 mov	 ebp, esp
  011d3	83 ec 44	 sub	 esp, 68			; 00000044H
  011d6	53		 push	 ebx
  011d7	56		 push	 esi
  011d8	57		 push	 edi
  011d9	89 4d fc	 mov	 DWORD PTR _this$[ebp], ecx

; 491  : 	g_KanturuMonsterMng.MonsterDie(iMonIndex);	

  011dc	8b 45 08	 mov	 eax, DWORD PTR _iMonIndex$[ebp]
  011df	50		 push	 eax
  011e0	b9 00 00 00 00	 mov	 ecx, OFFSET ?g_KanturuMonsterMng@@3VCKanturuMonsterMng@@A ; g_KanturuMonsterMng
  011e5	e8 00 00 00 00	 call	 ?MonsterDie@CKanturuMonsterMng@@QAEXH@Z ; CKanturuMonsterMng::MonsterDie

; 492  : }

  011ea	5f		 pop	 edi
  011eb	5e		 pop	 esi
  011ec	5b		 pop	 ebx
  011ed	8b e5		 mov	 esp, ebp
  011ef	5d		 pop	 ebp
  011f0	c2 08 00	 ret	 8
?KanturuMonsterDieProc@CKanturu@@QAEXHH@Z ENDP		; CKanturu::KanturuMonsterDieProc
_TEXT	ENDS
PUBLIC	??_C@_0EC@MFOBEJFM@?$FL?5KANTURU?5?$FN?$FL?5Invalid?5User?5?$FN?5Inva@ ; `string'
EXTRN	?gObjMoveGate@@YAHHH@Z:PROC			; gObjMoveGate
EXTRN	?gObj@@3PAUOBJECTSTRUCT@@A:DWORD		; gObj
;	COMDAT ??_C@_0EC@MFOBEJFM@?$FL?5KANTURU?5?$FN?$FL?5Invalid?5User?5?$FN?5Inva@
CONST	SEGMENT
??_C@_0EC@MFOBEJFM@?$FL?5KANTURU?5?$FN?$FL?5Invalid?5User?5?$FN?5Inva@ DB '['
	DB	' KANTURU ][ Invalid User ] Invalid Kanturu Boss Map User[%s]['
	DB	'%s]', 00H					; `string'
; Function compile flags: /Odtp /ZI
CONST	ENDS
_TEXT	SEGMENT
_iCount$228172 = -8					; size = 4
_this$ = -4						; size = 4
?CheckUserOnKanturuBossMap@CKanturu@@QAEXXZ PROC	; CKanturu::CheckUserOnKanturuBossMap
; _this$ = ecx

; 496  : {

  01200	55		 push	 ebp
  01201	8b ec		 mov	 ebp, esp
  01203	83 ec 48	 sub	 esp, 72			; 00000048H
  01206	53		 push	 ebx
  01207	56		 push	 esi
  01208	57		 push	 edi
  01209	89 4d fc	 mov	 DWORD PTR _this$[ebp], ecx

; 497  : 	for ( int iCount=OBJ_STARTUSERINDEX;iCount<OBJMAX;iCount++)

  0120c	c7 45 f8 b0 36
	00 00		 mov	 DWORD PTR _iCount$228172[ebp], 14000 ; 000036b0H
  01213	eb 09		 jmp	 SHORT $LN7@CheckUserO
$LN6@CheckUserO:
  01215	8b 45 f8	 mov	 eax, DWORD PTR _iCount$228172[ebp]
  01218	83 c0 01	 add	 eax, 1
  0121b	89 45 f8	 mov	 DWORD PTR _iCount$228172[ebp], eax
$LN7@CheckUserO:
  0121e	81 7d f8 98 3a
	00 00		 cmp	 DWORD PTR _iCount$228172[ebp], 15000 ; 00003a98H
  01225	0f 8d 2b 01 00
	00		 jge	 $LN8@CheckUserO

; 498  : 	{
; 499  : 		if ( gObj[iCount].Connected == PLAYER_PLAYING &&
; 500  : 			 gObj[iCount].Type == OBJ_USER &&
; 501  : 			 gObj[iCount].MapNumber == MAP_INDEX_KANTURU_BOSS)

  0122b	8b 45 f8	 mov	 eax, DWORD PTR _iCount$228172[ebp]
  0122e	69 c0 38 2b 00
	00		 imul	 eax, 11064		; 00002b38H
  01234	8b 0d 00 00 00
	00		 mov	 ecx, DWORD PTR ?gObj@@3PAUOBJECTSTRUCT@@A ; gObj
  0123a	83 7c 01 04 03	 cmp	 DWORD PTR [ecx+eax+4], 3
  0123f	0f 85 0c 01 00
	00		 jne	 $LN4@CheckUserO
  01245	8b 45 f8	 mov	 eax, DWORD PTR _iCount$228172[ebp]
  01248	69 c0 38 2b 00
	00		 imul	 eax, 11064		; 00002b38H
  0124e	8b 0d 00 00 00
	00		 mov	 ecx, DWORD PTR ?gObj@@3PAUOBJECTSTRUCT@@A ; gObj
  01254	0f b7 54 01 68	 movzx	 edx, WORD PTR [ecx+eax+104]
  01259	83 fa 01	 cmp	 edx, 1
  0125c	0f 85 ef 00 00
	00		 jne	 $LN4@CheckUserO
  01262	8b 45 f8	 mov	 eax, DWORD PTR _iCount$228172[ebp]
  01265	69 c0 38 2b 00
	00		 imul	 eax, 11064		; 00002b38H
  0126b	8b 0d 00 00 00
	00		 mov	 ecx, DWORD PTR ?gObj@@3PAUOBJECTSTRUCT@@A ; gObj
  01271	0f b6 94 01 49
	01 00 00	 movzx	 edx, BYTE PTR [ecx+eax+329]
  01279	83 fa 27	 cmp	 edx, 39			; 00000027H
  0127c	0f 85 cf 00 00
	00		 jne	 $LN4@CheckUserO

; 502  : 		{
; 503  : //#if(GS_CASTLE==0)
; 504  : 			if ( gObj[iCount].m_bKanturuEntranceByNPC == FALSE )

  01282	8b 45 f8	 mov	 eax, DWORD PTR _iCount$228172[ebp]
  01285	69 c0 38 2b 00
	00		 imul	 eax, 11064		; 00002b38H
  0128b	8b 0d 00 00 00
	00		 mov	 ecx, DWORD PTR ?gObj@@3PAUOBJECTSTRUCT@@A ; gObj
  01291	83 bc 01 10 20
	00 00 00	 cmp	 DWORD PTR [ecx+eax+8208], 0
  01299	0f 85 b2 00 00
	00		 jne	 $LN4@CheckUserO

; 505  : //#endif
; 506  : 			{
; 507  : 				if ( (gObj[iCount].Authority&2) != 2 )

  0129f	8b 45 f8	 mov	 eax, DWORD PTR _iCount$228172[ebp]
  012a2	69 c0 38 2b 00
	00		 imul	 eax, 11064		; 00002b38H
  012a8	8b 0d 00 00 00
	00		 mov	 ecx, DWORD PTR ?gObj@@3PAUOBJECTSTRUCT@@A ; gObj
  012ae	8b 94 01 0c 02
	00 00		 mov	 edx, DWORD PTR [ecx+eax+524]
  012b5	83 e2 02	 and	 edx, 2
  012b8	0f 85 93 00 00
	00		 jne	 $LN4@CheckUserO

; 508  : 				{
; 509  : 					if ( gObj[iCount].RegenOk == 0 &&
; 510  : 						 gObj[iCount].m_State == 2 &&
; 511  : 						 gObj[iCount].Live == TRUE)

  012be	8b 45 f8	 mov	 eax, DWORD PTR _iCount$228172[ebp]
  012c1	69 c0 38 2b 00
	00		 imul	 eax, 11064		; 00002b38H
  012c7	8b 0d 00 00 00
	00		 mov	 ecx, DWORD PTR ?gObj@@3PAUOBJECTSTRUCT@@A ; gObj
  012cd	0f be 94 01 a3
	03 00 00	 movsx	 edx, BYTE PTR [ecx+eax+931]
  012d5	85 d2		 test	 edx, edx
  012d7	75 78		 jne	 SHORT $LN4@CheckUserO
  012d9	8b 45 f8	 mov	 eax, DWORD PTR _iCount$228172[ebp]
  012dc	69 c0 38 2b 00
	00		 imul	 eax, 11064		; 00002b38H
  012e2	8b 0d 00 00 00
	00		 mov	 ecx, DWORD PTR ?gObj@@3PAUOBJECTSTRUCT@@A ; gObj
  012e8	83 bc 01 20 02
	00 00 02	 cmp	 DWORD PTR [ecx+eax+544], 2
  012f0	75 5f		 jne	 SHORT $LN4@CheckUserO
  012f2	8b 45 f8	 mov	 eax, DWORD PTR _iCount$228172[ebp]
  012f5	69 c0 38 2b 00
	00		 imul	 eax, 11064		; 00002b38H
  012fb	8b 0d 00 00 00
	00		 mov	 ecx, DWORD PTR ?gObj@@3PAUOBJECTSTRUCT@@A ; gObj
  01301	0f b6 54 01 6a	 movzx	 edx, BYTE PTR [ecx+eax+106]
  01306	83 fa 01	 cmp	 edx, 1
  01309	75 46		 jne	 SHORT $LN4@CheckUserO

; 512  : 					{
; 513  : 						gObjMoveGate(iCount, 17);

  0130b	6a 11		 push	 17			; 00000011H
  0130d	8b 45 f8	 mov	 eax, DWORD PTR _iCount$228172[ebp]
  01310	50		 push	 eax
  01311	e8 00 00 00 00	 call	 ?gObjMoveGate@@YAHHH@Z	; gObjMoveGate
  01316	83 c4 08	 add	 esp, 8

; 514  : 
; 515  : 						LogAddC(2, "[ KANTURU ][ Invalid User ] Invalid Kanturu Boss Map User[%s][%s]",
; 516  : 							gObj[iCount].AccountID, gObj[iCount].Name);

  01319	8b 45 f8	 mov	 eax, DWORD PTR _iCount$228172[ebp]
  0131c	69 c0 38 2b 00
	00		 imul	 eax, 11064		; 00002b38H
  01322	8b 0d 00 00 00
	00		 mov	 ecx, DWORD PTR ?gObj@@3PAUOBJECTSTRUCT@@A ; gObj
  01328	8d 54 01 77	 lea	 edx, DWORD PTR [ecx+eax+119]
  0132c	52		 push	 edx
  0132d	8b 45 f8	 mov	 eax, DWORD PTR _iCount$228172[ebp]
  01330	69 c0 38 2b 00
	00		 imul	 eax, 11064		; 00002b38H
  01336	8b 0d 00 00 00
	00		 mov	 ecx, DWORD PTR ?gObj@@3PAUOBJECTSTRUCT@@A ; gObj
  0133c	8d 54 01 6c	 lea	 edx, DWORD PTR [ecx+eax+108]
  01340	52		 push	 edx
  01341	68 00 00 00 00	 push	 OFFSET ??_C@_0EC@MFOBEJFM@?$FL?5KANTURU?5?$FN?$FL?5Invalid?5User?5?$FN?5Inva@
  01346	6a 02		 push	 2
  01348	ff 15 00 00 00
	00		 call	 DWORD PTR ?LogAddC@@3P6AXEPADZZA ; LogAddC
  0134e	83 c4 10	 add	 esp, 16			; 00000010H
$LN4@CheckUserO:

; 517  : 					}
; 518  : 				}
; 519  : 			}
; 520  : 
; 521  : 		}
; 522  : 	}

  01351	e9 bf fe ff ff	 jmp	 $LN6@CheckUserO
$LN8@CheckUserO:

; 523  : }

  01356	5f		 pop	 edi
  01357	5e		 pop	 esi
  01358	5b		 pop	 ebx
  01359	8b e5		 mov	 esp, ebp
  0135b	5d		 pop	 ebp
  0135c	c3		 ret	 0
?CheckUserOnKanturuBossMap@CKanturu@@QAEXXZ ENDP	; CKanturu::CheckUserOnKanturuBossMap
_TEXT	ENDS
PUBLIC	??_C@_0DA@EDHFFGEB@?$FL?5KANTURU?5?$FN?$FL?5Entrance?5Fail?5?$FN?5?$FL?$CFs@ ; `string'
PUBLIC	?GetEntrancePermit@CKanturuTowerOfRefinement@@QAEHXZ ; CKanturuTowerOfRefinement::GetEntrancePermit
PUBLIC	??_C@_0DI@ICLHIMEO@?$FL?5KANTURU?5?$FN?$FL?5Entrance?5Success?5?$FN?5@ ; `string'
PUBLIC	??_C@_0FI@IBINCNDO@?$FL?5Kanturu?5?$FN?$FL?5Entrance?5Fail?5?$FN?5X?9M@ ; `string'
PUBLIC	??_C@_0FD@JPPNGJPG@?$FL?5Kanturu?5?$FN?$FL?5Entrance?5Fail?5?$FN?5San@ ; `string'
PUBLIC	??_C@_0FM@LINMECFL@?$FL?5Kanturu?5?$FN?$FL?5Entrance?5Fail?5?$FN?5Jac@ ; `string'
PUBLIC	??_C@_0FI@PBEMOOOD@?$FL?5Kanturu?5?$FN?$FL?5Entrance?5Fail?5?$FN?5Eli@ ; `string'
PUBLIC	??_C@_0FB@GCLEDKFJ@?$FL?5KANTURU?5?$FN?$FL?5Entrance?5Fail?5?$FN?5Tra@ ; `string'
PUBLIC	??_C@_0EK@BCIDIJNJ@?$FL?5KANTURU?5?$FN?$FL?5Entrance?5Fail?5?$FN?5Uni@ ; `string'
PUBLIC	??_C@_0EM@CONDJFLC@?$FL?5KANTURU?5?$FN?$FL?5Entrance?5Fail?5?$FN?5Win@ ; `string'
PUBLIC	??_C@_0EN@NDCAHGGF@?$FL?5KANTURU?5?$FN?$FL?5Entrance?5Fail?5?$FN?5Moo@ ; `string'
PUBLIC	?CheckEqipmentMoonStone@CKanturu@@QAEHH@Z	; CKanturu::CheckEqipmentMoonStone
PUBLIC	??_C@_0ED@IFFAGOLB@?$FL?5KANTURU?5?$FN?$FL?5Entrance?5Fail?5?$FN?5Ove@ ; `string'
PUBLIC	?GetEntrancePermit@CKanturuBattleOfMaya@@QAEHXZ	; CKanturuBattleOfMaya::GetEntrancePermit
PUBLIC	??_C@_0EH@NKKJHBHC@?$FL?5KANTURU?5?$FN?$FL?5Entrance?5Fail?5?$FN?5Inv@ ; `string'
PUBLIC	?CheckEnterKanturu@CKanturu@@QAEHH@Z		; CKanturu::CheckEnterKanturu
EXTRN	?IsOverMaxUser@CKanturuBattleUserMng@@QAEHXZ:PROC ; CKanturuBattleUserMng::IsOverMaxUser
EXTRN	?LogAddTD@@3P6AXPADZZA:DWORD			; LogAddTD
EXTRN	?gObjIsConnected@@YAHH@Z:PROC			; gObjIsConnected
;	COMDAT ??_C@_0DA@EDHFFGEB@?$FL?5KANTURU?5?$FN?$FL?5Entrance?5Fail?5?$FN?5?$FL?$CFs@
CONST	SEGMENT
??_C@_0DA@EDHFFGEB@?$FL?5KANTURU?5?$FN?$FL?5Entrance?5Fail?5?$FN?5?$FL?$CFs@ DB '['
	DB	' KANTURU ][ Entrance Fail ] [%s][%s] State(%d)', 00H ; `string'
CONST	ENDS
;	COMDAT ??_C@_0DI@ICLHIMEO@?$FL?5KANTURU?5?$FN?$FL?5Entrance?5Success?5?$FN?5@
CONST	SEGMENT
??_C@_0DI@ICLHIMEO@?$FL?5KANTURU?5?$FN?$FL?5Entrance?5Success?5?$FN?5@ DB '['
	DB	' KANTURU ][ Entrance Success ] [%s][%s] State(%d)-(%d)', 00H ; `string'
CONST	ENDS
;	COMDAT ??_C@_0FI@IBINCNDO@?$FL?5Kanturu?5?$FN?$FL?5Entrance?5Fail?5?$FN?5X?9M@
CONST	SEGMENT
??_C@_0FI@IBINCNDO@?$FL?5Kanturu?5?$FN?$FL?5Entrance?5Fail?5?$FN?5X?9M@ DB '['
	DB	' Kanturu ][ Entrance Fail ] X-MASEvent Polymorph Ring is exis'
	DB	't [%s][%s] State(%d)-(%d)', 00H		; `string'
CONST	ENDS
;	COMDAT ??_C@_0FD@JPPNGJPG@?$FL?5Kanturu?5?$FN?$FL?5Entrance?5Fail?5?$FN?5San@
CONST	SEGMENT
??_C@_0FD@JPPNGJPG@?$FL?5Kanturu?5?$FN?$FL?5Entrance?5Fail?5?$FN?5San@ DB '['
	DB	' Kanturu ][ Entrance Fail ] Santa Polymorph Ring is exist [%s'
	DB	'][%s] State(%d)-(%d)', 00H			; `string'
CONST	ENDS
;	COMDAT ??_C@_0FM@LINMECFL@?$FL?5Kanturu?5?$FN?$FL?5Entrance?5Fail?5?$FN?5Jac@
CONST	SEGMENT
??_C@_0FM@LINMECFL@?$FL?5Kanturu?5?$FN?$FL?5Entrance?5Fail?5?$FN?5Jac@ DB '['
	DB	' Kanturu ][ Entrance Fail ] Jack''O Lantern Polymorph Ring is'
	DB	' exist [%s][%s] State(%d)-(%d)', 00H	; `string'
CONST	ENDS
;	COMDAT ??_C@_0FI@PBEMOOOD@?$FL?5Kanturu?5?$FN?$FL?5Entrance?5Fail?5?$FN?5Eli@
CONST	SEGMENT
??_C@_0FI@PBEMOOOD@?$FL?5Kanturu?5?$FN?$FL?5Entrance?5Fail?5?$FN?5Eli@ DB '['
	DB	' Kanturu ][ Entrance Fail ] EliteSkelletoneChangeRing is exis'
	DB	't [%s][%s] State(%d)-(%d)', 00H		; `string'
CONST	ENDS
;	COMDAT ??_C@_0FB@GCLEDKFJ@?$FL?5KANTURU?5?$FN?$FL?5Entrance?5Fail?5?$FN?5Tra@
CONST	SEGMENT
??_C@_0FB@GCLEDKFJ@?$FL?5KANTURU?5?$FN?$FL?5Entrance?5Fail?5?$FN?5Tra@ DB '['
	DB	' KANTURU ][ Entrance Fail ] Trasportation Ring is exist [%s]['
	DB	'%s] State(%d)-(%d)', 00H			; `string'
CONST	ENDS
;	COMDAT ??_C@_0EK@BCIDIJNJ@?$FL?5KANTURU?5?$FN?$FL?5Entrance?5Fail?5?$FN?5Uni@
CONST	SEGMENT
??_C@_0EK@BCIDIJNJ@?$FL?5KANTURU?5?$FN?$FL?5Entrance?5Fail?5?$FN?5Uni@ DB '['
	DB	' KANTURU ][ Entrance Fail ] Uniria Item is exist [%s][%s] Sta'
	DB	'te(%d)-(%d)', 00H				; `string'
CONST	ENDS
;	COMDAT ??_C@_0EM@CONDJFLC@?$FL?5KANTURU?5?$FN?$FL?5Entrance?5Fail?5?$FN?5Win@
CONST	SEGMENT
??_C@_0EM@CONDJFLC@?$FL?5KANTURU?5?$FN?$FL?5Entrance?5Fail?5?$FN?5Win@ DB '['
	DB	' KANTURU ][ Entrance Fail ] Wing Item is not exist [%s][%s] S'
	DB	'tate(%d)-(%d)', 00H				; `string'
CONST	ENDS
;	COMDAT ??_C@_0EN@NDCAHGGF@?$FL?5KANTURU?5?$FN?$FL?5Entrance?5Fail?5?$FN?5Moo@
CONST	SEGMENT
??_C@_0EN@NDCAHGGF@?$FL?5KANTURU?5?$FN?$FL?5Entrance?5Fail?5?$FN?5Moo@ DB '['
	DB	' KANTURU ][ Entrance Fail ] Moon Stone is not exist [%s][%s] '
	DB	'State(%d)-(%d)', 00H			; `string'
CONST	ENDS
;	COMDAT ??_C@_0ED@IFFAGOLB@?$FL?5KANTURU?5?$FN?$FL?5Entrance?5Fail?5?$FN?5Ove@
CONST	SEGMENT
??_C@_0ED@IFFAGOLB@?$FL?5KANTURU?5?$FN?$FL?5Entrance?5Fail?5?$FN?5Ove@ DB '['
	DB	' KANTURU ][ Entrance Fail ] Over Max User [%s][%s] State(%d)-'
	DB	'(%d)', 00H					; `string'
CONST	ENDS
;	COMDAT ??_C@_0EH@NKKJHBHC@?$FL?5KANTURU?5?$FN?$FL?5Entrance?5Fail?5?$FN?5Inv@
CONST	SEGMENT
??_C@_0EH@NKKJHBHC@?$FL?5KANTURU?5?$FN?$FL?5Entrance?5Fail?5?$FN?5Inv@ DB '['
	DB	' KANTURU ][ Entrance Fail ] Invalid Map Number(%d) [%s][%s] S'
	DB	'tate(%d)', 00H				; `string'
; Function compile flags: /Odtp /ZI
CONST	ENDS
_TEXT	SEGMENT
tv331 = -72						; size = 4
tv314 = -72						; size = 4
tv297 = -72						; size = 4
tv280 = -72						; size = 4
_this$ = -4						; size = 4
_iUserIndex$ = 8					; size = 4
?CheckEnterKanturu@CKanturu@@QAEHH@Z PROC		; CKanturu::CheckEnterKanturu
; _this$ = ecx

; 527  : {

  01360	55		 push	 ebp
  01361	8b ec		 mov	 ebp, esp
  01363	83 ec 48	 sub	 esp, 72			; 00000048H
  01366	53		 push	 ebx
  01367	56		 push	 esi
  01368	57		 push	 edi
  01369	89 4d fc	 mov	 DWORD PTR _this$[ebp], ecx

; 528  : 	if ( !gObjIsConnected(iUserIndex) )

  0136c	8b 45 08	 mov	 eax, DWORD PTR _iUserIndex$[ebp]
  0136f	50		 push	 eax
  01370	e8 00 00 00 00	 call	 ?gObjIsConnected@@YAHH@Z ; gObjIsConnected
  01375	83 c4 04	 add	 esp, 4
  01378	85 c0		 test	 eax, eax
  0137a	75 08		 jne	 SHORT $LN20@CheckEnter

; 529  : 		return -1;

  0137c	83 c8 ff	 or	 eax, -1
  0137f	e9 e7 0a 00 00	 jmp	 $LN21@CheckEnter
$LN20@CheckEnter:

; 530  : 
; 531  : 	if ( gObj[iUserIndex].MapNumber != MAP_INDEX_KANTURU2 ) 

  01384	8b 45 08	 mov	 eax, DWORD PTR _iUserIndex$[ebp]
  01387	69 c0 38 2b 00
	00		 imul	 eax, 11064		; 00002b38H
  0138d	8b 0d 00 00 00
	00		 mov	 ecx, DWORD PTR ?gObj@@3PAUOBJECTSTRUCT@@A ; gObj
  01393	0f b6 94 01 49
	01 00 00	 movzx	 edx, BYTE PTR [ecx+eax+329]
  0139b	83 fa 26	 cmp	 edx, 38			; 00000026H
  0139e	74 61		 je	 SHORT $LN19@CheckEnter

; 532  : 	{
; 533  : 		LogAddTD("[ KANTURU ][ Entrance Fail ] Invalid Map Number(%d) [%s][%s] State(%d)",
; 534  : 			gObj[iUserIndex].MapNumber, gObj[iUserIndex].AccountID, gObj[iUserIndex].Name,
; 535  : 			this->GetKanturuState());

  013a0	8b 4d fc	 mov	 ecx, DWORD PTR _this$[ebp]
  013a3	e8 00 00 00 00	 call	 ?GetKanturuState@CKanturu@@QAEHXZ ; CKanturu::GetKanturuState
  013a8	50		 push	 eax
  013a9	8b 45 08	 mov	 eax, DWORD PTR _iUserIndex$[ebp]
  013ac	69 c0 38 2b 00
	00		 imul	 eax, 11064		; 00002b38H
  013b2	8b 0d 00 00 00
	00		 mov	 ecx, DWORD PTR ?gObj@@3PAUOBJECTSTRUCT@@A ; gObj
  013b8	8d 54 01 77	 lea	 edx, DWORD PTR [ecx+eax+119]
  013bc	52		 push	 edx
  013bd	8b 45 08	 mov	 eax, DWORD PTR _iUserIndex$[ebp]
  013c0	69 c0 38 2b 00
	00		 imul	 eax, 11064		; 00002b38H
  013c6	8b 0d 00 00 00
	00		 mov	 ecx, DWORD PTR ?gObj@@3PAUOBJECTSTRUCT@@A ; gObj
  013cc	8d 54 01 6c	 lea	 edx, DWORD PTR [ecx+eax+108]
  013d0	52		 push	 edx
  013d1	8b 45 08	 mov	 eax, DWORD PTR _iUserIndex$[ebp]
  013d4	69 c0 38 2b 00
	00		 imul	 eax, 11064		; 00002b38H
  013da	8b 0d 00 00 00
	00		 mov	 ecx, DWORD PTR ?gObj@@3PAUOBJECTSTRUCT@@A ; gObj
  013e0	0f b6 94 01 49
	01 00 00	 movzx	 edx, BYTE PTR [ecx+eax+329]
  013e8	52		 push	 edx
  013e9	68 00 00 00 00	 push	 OFFSET ??_C@_0EH@NKKJHBHC@?$FL?5KANTURU?5?$FN?$FL?5Entrance?5Fail?5?$FN?5Inv@
  013ee	ff 15 00 00 00
	00		 call	 DWORD PTR ?LogAddTD@@3P6AXPADZZA ; LogAddTD
  013f4	83 c4 14	 add	 esp, 20			; 00000014H

; 536  : 
; 537  : 		return 4;

  013f7	b8 04 00 00 00	 mov	 eax, 4
  013fc	e9 6a 0a 00 00	 jmp	 $LN21@CheckEnter
$LN19@CheckEnter:

; 538  : 	}
; 539  : 
; 540  : 	if ( this->GetKanturuState() == KANTURU_STATE_BATTLE_OF_MAYA &&
; 541  : 		 this->m_BattleOfMaya.GetEntrancePermit() == TRUE)

  01401	8b 4d fc	 mov	 ecx, DWORD PTR _this$[ebp]
  01404	e8 00 00 00 00	 call	 ?GetKanturuState@CKanturu@@QAEHXZ ; CKanturu::GetKanturuState
  01409	83 f8 02	 cmp	 eax, 2
  0140c	0f 85 a3 09 00
	00		 jne	 $LN18@CheckEnter
  01412	8b 4d fc	 mov	 ecx, DWORD PTR _this$[ebp]
  01415	81 c1 f4 00 00
	00		 add	 ecx, 244		; 000000f4H
  0141b	e8 00 00 00 00	 call	 ?GetEntrancePermit@CKanturuBattleOfMaya@@QAEHXZ ; CKanturuBattleOfMaya::GetEntrancePermit
  01420	83 f8 01	 cmp	 eax, 1
  01423	0f 85 8c 09 00
	00		 jne	 $LN18@CheckEnter

; 542  : 	{
; 543  : 		if ( g_KanturuBattleUserMng.IsOverMaxUser() == TRUE )

  01429	b9 00 00 00 00	 mov	 ecx, OFFSET ?g_KanturuBattleUserMng@@3VCKanturuBattleUserMng@@A ; g_KanturuBattleUserMng
  0142e	e8 00 00 00 00	 call	 ?IsOverMaxUser@CKanturuBattleUserMng@@QAEHXZ ; CKanturuBattleUserMng::IsOverMaxUser
  01433	83 f8 01	 cmp	 eax, 1
  01436	75 58		 jne	 SHORT $LN17@CheckEnter

; 544  : 		{
; 545  : 			LogAddTD("[ KANTURU ][ Entrance Fail ] Over Max User [%s][%s] State(%d)-(%d)",
; 546  : 				gObj[iUserIndex].AccountID, gObj[iUserIndex].Name,
; 547  : 				this->GetKanturuState(), this->m_BattleOfMaya.GetBattleOfMayaState());

  01438	8b 4d fc	 mov	 ecx, DWORD PTR _this$[ebp]
  0143b	81 c1 f4 00 00
	00		 add	 ecx, 244		; 000000f4H
  01441	e8 00 00 00 00	 call	 ?GetBattleOfMayaState@CKanturuBattleOfMaya@@QAEHXZ ; CKanturuBattleOfMaya::GetBattleOfMayaState
  01446	50		 push	 eax
  01447	8b 4d fc	 mov	 ecx, DWORD PTR _this$[ebp]
  0144a	e8 00 00 00 00	 call	 ?GetKanturuState@CKanturu@@QAEHXZ ; CKanturu::GetKanturuState
  0144f	50		 push	 eax
  01450	8b 45 08	 mov	 eax, DWORD PTR _iUserIndex$[ebp]
  01453	69 c0 38 2b 00
	00		 imul	 eax, 11064		; 00002b38H
  01459	8b 0d 00 00 00
	00		 mov	 ecx, DWORD PTR ?gObj@@3PAUOBJECTSTRUCT@@A ; gObj
  0145f	8d 54 01 77	 lea	 edx, DWORD PTR [ecx+eax+119]
  01463	52		 push	 edx
  01464	8b 45 08	 mov	 eax, DWORD PTR _iUserIndex$[ebp]
  01467	69 c0 38 2b 00
	00		 imul	 eax, 11064		; 00002b38H
  0146d	8b 0d 00 00 00
	00		 mov	 ecx, DWORD PTR ?gObj@@3PAUOBJECTSTRUCT@@A ; gObj
  01473	8d 54 01 6c	 lea	 edx, DWORD PTR [ecx+eax+108]
  01477	52		 push	 edx
  01478	68 00 00 00 00	 push	 OFFSET ??_C@_0ED@IFFAGOLB@?$FL?5KANTURU?5?$FN?$FL?5Entrance?5Fail?5?$FN?5Ove@
  0147d	ff 15 00 00 00
	00		 call	 DWORD PTR ?LogAddTD@@3P6AXPADZZA ; LogAddTD
  01483	83 c4 14	 add	 esp, 20			; 00000014H

; 548  : 
; 549  : 			return 1;

  01486	b8 01 00 00 00	 mov	 eax, 1
  0148b	e9 db 09 00 00	 jmp	 $LN21@CheckEnter
$LN17@CheckEnter:

; 550  : 		}
; 551  : 
; 552  : 		if ( this->CheckEqipmentMoonStone(iUserIndex) == FALSE )

  01490	8b 45 08	 mov	 eax, DWORD PTR _iUserIndex$[ebp]
  01493	50		 push	 eax
  01494	8b 4d fc	 mov	 ecx, DWORD PTR _this$[ebp]
  01497	e8 00 00 00 00	 call	 ?CheckEqipmentMoonStone@CKanturu@@QAEHH@Z ; CKanturu::CheckEqipmentMoonStone
  0149c	85 c0		 test	 eax, eax
  0149e	75 58		 jne	 SHORT $LN16@CheckEnter

; 553  : 		{
; 554  : 			LogAddTD("[ KANTURU ][ Entrance Fail ] Moon Stone is not exist [%s][%s] State(%d)-(%d)",
; 555  : 				gObj[iUserIndex].AccountID, gObj[iUserIndex].Name,
; 556  : 				this->GetKanturuState(), this->m_BattleOfMaya.GetBattleOfMayaState());

  014a0	8b 4d fc	 mov	 ecx, DWORD PTR _this$[ebp]
  014a3	81 c1 f4 00 00
	00		 add	 ecx, 244		; 000000f4H
  014a9	e8 00 00 00 00	 call	 ?GetBattleOfMayaState@CKanturuBattleOfMaya@@QAEHXZ ; CKanturuBattleOfMaya::GetBattleOfMayaState
  014ae	50		 push	 eax
  014af	8b 4d fc	 mov	 ecx, DWORD PTR _this$[ebp]
  014b2	e8 00 00 00 00	 call	 ?GetKanturuState@CKanturu@@QAEHXZ ; CKanturu::GetKanturuState
  014b7	50		 push	 eax
  014b8	8b 45 08	 mov	 eax, DWORD PTR _iUserIndex$[ebp]
  014bb	69 c0 38 2b 00
	00		 imul	 eax, 11064		; 00002b38H
  014c1	8b 0d 00 00 00
	00		 mov	 ecx, DWORD PTR ?gObj@@3PAUOBJECTSTRUCT@@A ; gObj
  014c7	8d 54 01 77	 lea	 edx, DWORD PTR [ecx+eax+119]
  014cb	52		 push	 edx
  014cc	8b 45 08	 mov	 eax, DWORD PTR _iUserIndex$[ebp]
  014cf	69 c0 38 2b 00
	00		 imul	 eax, 11064		; 00002b38H
  014d5	8b 0d 00 00 00
	00		 mov	 ecx, DWORD PTR ?gObj@@3PAUOBJECTSTRUCT@@A ; gObj
  014db	8d 54 01 6c	 lea	 edx, DWORD PTR [ecx+eax+108]
  014df	52		 push	 edx
  014e0	68 00 00 00 00	 push	 OFFSET ??_C@_0EN@NDCAHGGF@?$FL?5KANTURU?5?$FN?$FL?5Entrance?5Fail?5?$FN?5Moo@
  014e5	ff 15 00 00 00
	00		 call	 DWORD PTR ?LogAddTD@@3P6AXPADZZA ; LogAddTD
  014eb	83 c4 14	 add	 esp, 20			; 00000014H

; 557  : 
; 558  : 			return 2;

  014ee	b8 02 00 00 00	 mov	 eax, 2
  014f3	e9 73 09 00 00	 jmp	 $LN21@CheckEnter
$LN16@CheckEnter:

; 559  : 		}
; 560  : //#if(GS_CASTLE==0)
; 561  : 		if ( (gObj[iUserIndex].pInventory[7].m_Type < ITEMGET(12,0) || gObj[iUserIndex].pInventory[7].m_Type > ITEMGET(12,6) ) &&
; 562  : 			 gObj[iUserIndex].pInventory[7].m_Type != ITEMGET(13,30) &&
; 563  : 			 //Season 3.0 add-on (Summoner
; 564  : 			 gObj[iUserIndex].pInventory[7].m_Type != ITEMGET(12,41) &&
; 565  : 			 gObj[iUserIndex].pInventory[7].m_Type != ITEMGET(12,42) &&
; 566  : 			 gObj[iUserIndex].pInventory[7].m_Type != ITEMGET(12,43) &&
; 567  : 			 gObj[iUserIndex].pInventory[7].m_Type != ITEMGET(12, 49) &&//Season 6 addon
; 568  : 			 gObj[iUserIndex].pInventory[7].m_Type != ITEMGET(12, 50) &&//Season 6 addon
; 569  : 			gObj[iUserIndex].pInventory[7].m_Type != ITEMGET(12, 130) &&//Season 6 addon
; 570  : 			gObj[iUserIndex].pInventory[7].m_Type != ITEMGET(12, 131) &&//Season 6 addon
; 571  : 			gObj[iUserIndex].pInventory[7].m_Type != ITEMGET(12, 132) &&//Season 6 addon
; 572  : 			 gObj[iUserIndex].pInventory[7].m_Type != ITEMGET(12, 133) &&//Season 6 addon
; 573  : 			 gObj[iUserIndex].pInventory[7].m_Type != ITEMGET(12, 134) &&//Season 6 addon
; 574  : 			 gObj[iUserIndex].pInventory[7].m_Type != ITEMGET(12, 135) &&//Season 6 addon
; 575  : 
; 576  : #ifdef NEWWINGS_2_5
; 577  : 			 !IS_NEWWINGS_2_5(gObj[iUserIndex].pInventory[7].m_Type) &&
; 578  : #endif
; 579  : #ifdef NEWWINGS_4
; 580  : 			 !IS_NEWWINGS_4(gObj[iUserIndex].pInventory[7].m_Type) &&
; 581  : #endif
; 582  : #ifdef NEWWINGS_5
; 583  : 			 !IS_NEWWINGS_5(gObj[iUserIndex].pInventory[7].m_Type) &&
; 584  : #endif
; 585  : #ifdef NEWWINGS_6
; 586  : 			 !IS_NEWWINGS_6(gObj[iUserIndex].pInventory[7].m_Type) &&
; 587  : #endif
; 588  : 			 gObj[iUserIndex].pInventory[8].m_Type != ITEMGET(13,3)  &&
; 589  : 			 gObj[iUserIndex].pInventory[8].m_Type != ITEMGET(13,37) &&
; 590  : 			 gObj[iUserIndex].pInventory[8].m_Type != ITEMGET(13,4) &&//Season 4.5 addon
; 591  : 			 //Season 2.5 add-on
; 592  : 			 (gObj[iUserIndex].pInventory[7].m_Type < ITEMGET(12,36) || gObj[iUserIndex].pInventory[7].m_Type > ITEMGET(12,40) ) )

  014f8	8b 45 08	 mov	 eax, DWORD PTR _iUserIndex$[ebp]
  014fb	69 c0 38 2b 00
	00		 imul	 eax, 11064		; 00002b38H
  01501	8b 0d 00 00 00
	00		 mov	 ecx, DWORD PTR ?gObj@@3PAUOBJECTSTRUCT@@A ; gObj
  01507	8b 94 01 24 0e
	00 00		 mov	 edx, DWORD PTR [ecx+eax+3620]
  0150e	0f bf 82 d2 05
	00 00		 movsx	 eax, WORD PTR [edx+1490]
  01515	3d 00 18 00 00	 cmp	 eax, 6144		; 00001800H
  0151a	7c 28		 jl	 SHORT $LN14@CheckEnter
  0151c	8b 45 08	 mov	 eax, DWORD PTR _iUserIndex$[ebp]
  0151f	69 c0 38 2b 00
	00		 imul	 eax, 11064		; 00002b38H
  01525	8b 0d 00 00 00
	00		 mov	 ecx, DWORD PTR ?gObj@@3PAUOBJECTSTRUCT@@A ; gObj
  0152b	8b 94 01 24 0e
	00 00		 mov	 edx, DWORD PTR [ecx+eax+3620]
  01532	0f bf 82 d2 05
	00 00		 movsx	 eax, WORD PTR [edx+1490]
  01539	3d 06 18 00 00	 cmp	 eax, 6150		; 00001806H
  0153e	0f 8e 80 04 00
	00		 jle	 $LN15@CheckEnter
$LN14@CheckEnter:
  01544	8b 45 08	 mov	 eax, DWORD PTR _iUserIndex$[ebp]
  01547	69 c0 38 2b 00
	00		 imul	 eax, 11064		; 00002b38H
  0154d	8b 0d 00 00 00
	00		 mov	 ecx, DWORD PTR ?gObj@@3PAUOBJECTSTRUCT@@A ; gObj
  01553	8b 94 01 24 0e
	00 00		 mov	 edx, DWORD PTR [ecx+eax+3620]
  0155a	0f bf 82 d2 05
	00 00		 movsx	 eax, WORD PTR [edx+1490]
  01561	3d 1e 1a 00 00	 cmp	 eax, 6686		; 00001a1eH
  01566	0f 84 58 04 00
	00		 je	 $LN15@CheckEnter
  0156c	8b 45 08	 mov	 eax, DWORD PTR _iUserIndex$[ebp]
  0156f	69 c0 38 2b 00
	00		 imul	 eax, 11064		; 00002b38H
  01575	8b 0d 00 00 00
	00		 mov	 ecx, DWORD PTR ?gObj@@3PAUOBJECTSTRUCT@@A ; gObj
  0157b	8b 94 01 24 0e
	00 00		 mov	 edx, DWORD PTR [ecx+eax+3620]
  01582	0f bf 82 d2 05
	00 00		 movsx	 eax, WORD PTR [edx+1490]
  01589	3d 29 18 00 00	 cmp	 eax, 6185		; 00001829H
  0158e	0f 84 30 04 00
	00		 je	 $LN15@CheckEnter
  01594	8b 45 08	 mov	 eax, DWORD PTR _iUserIndex$[ebp]
  01597	69 c0 38 2b 00
	00		 imul	 eax, 11064		; 00002b38H
  0159d	8b 0d 00 00 00
	00		 mov	 ecx, DWORD PTR ?gObj@@3PAUOBJECTSTRUCT@@A ; gObj
  015a3	8b 94 01 24 0e
	00 00		 mov	 edx, DWORD PTR [ecx+eax+3620]
  015aa	0f bf 82 d2 05
	00 00		 movsx	 eax, WORD PTR [edx+1490]
  015b1	3d 2a 18 00 00	 cmp	 eax, 6186		; 0000182aH
  015b6	0f 84 08 04 00
	00		 je	 $LN15@CheckEnter
  015bc	8b 45 08	 mov	 eax, DWORD PTR _iUserIndex$[ebp]
  015bf	69 c0 38 2b 00
	00		 imul	 eax, 11064		; 00002b38H
  015c5	8b 0d 00 00 00
	00		 mov	 ecx, DWORD PTR ?gObj@@3PAUOBJECTSTRUCT@@A ; gObj
  015cb	8b 94 01 24 0e
	00 00		 mov	 edx, DWORD PTR [ecx+eax+3620]
  015d2	0f bf 82 d2 05
	00 00		 movsx	 eax, WORD PTR [edx+1490]
  015d9	3d 2b 18 00 00	 cmp	 eax, 6187		; 0000182bH
  015de	0f 84 e0 03 00
	00		 je	 $LN15@CheckEnter
  015e4	8b 45 08	 mov	 eax, DWORD PTR _iUserIndex$[ebp]
  015e7	69 c0 38 2b 00
	00		 imul	 eax, 11064		; 00002b38H
  015ed	8b 0d 00 00 00
	00		 mov	 ecx, DWORD PTR ?gObj@@3PAUOBJECTSTRUCT@@A ; gObj
  015f3	8b 94 01 24 0e
	00 00		 mov	 edx, DWORD PTR [ecx+eax+3620]
  015fa	0f bf 82 d2 05
	00 00		 movsx	 eax, WORD PTR [edx+1490]
  01601	3d 31 18 00 00	 cmp	 eax, 6193		; 00001831H
  01606	0f 84 b8 03 00
	00		 je	 $LN15@CheckEnter
  0160c	8b 45 08	 mov	 eax, DWORD PTR _iUserIndex$[ebp]
  0160f	69 c0 38 2b 00
	00		 imul	 eax, 11064		; 00002b38H
  01615	8b 0d 00 00 00
	00		 mov	 ecx, DWORD PTR ?gObj@@3PAUOBJECTSTRUCT@@A ; gObj
  0161b	8b 94 01 24 0e
	00 00		 mov	 edx, DWORD PTR [ecx+eax+3620]
  01622	0f bf 82 d2 05
	00 00		 movsx	 eax, WORD PTR [edx+1490]
  01629	3d 32 18 00 00	 cmp	 eax, 6194		; 00001832H
  0162e	0f 84 90 03 00
	00		 je	 $LN15@CheckEnter
  01634	8b 45 08	 mov	 eax, DWORD PTR _iUserIndex$[ebp]
  01637	69 c0 38 2b 00
	00		 imul	 eax, 11064		; 00002b38H
  0163d	8b 0d 00 00 00
	00		 mov	 ecx, DWORD PTR ?gObj@@3PAUOBJECTSTRUCT@@A ; gObj
  01643	8b 94 01 24 0e
	00 00		 mov	 edx, DWORD PTR [ecx+eax+3620]
  0164a	0f bf 82 d2 05
	00 00		 movsx	 eax, WORD PTR [edx+1490]
  01651	3d 82 18 00 00	 cmp	 eax, 6274		; 00001882H
  01656	0f 84 68 03 00
	00		 je	 $LN15@CheckEnter
  0165c	8b 45 08	 mov	 eax, DWORD PTR _iUserIndex$[ebp]
  0165f	69 c0 38 2b 00
	00		 imul	 eax, 11064		; 00002b38H
  01665	8b 0d 00 00 00
	00		 mov	 ecx, DWORD PTR ?gObj@@3PAUOBJECTSTRUCT@@A ; gObj
  0166b	8b 94 01 24 0e
	00 00		 mov	 edx, DWORD PTR [ecx+eax+3620]
  01672	0f bf 82 d2 05
	00 00		 movsx	 eax, WORD PTR [edx+1490]
  01679	3d 83 18 00 00	 cmp	 eax, 6275		; 00001883H
  0167e	0f 84 40 03 00
	00		 je	 $LN15@CheckEnter
  01684	8b 45 08	 mov	 eax, DWORD PTR _iUserIndex$[ebp]
  01687	69 c0 38 2b 00
	00		 imul	 eax, 11064		; 00002b38H
  0168d	8b 0d 00 00 00
	00		 mov	 ecx, DWORD PTR ?gObj@@3PAUOBJECTSTRUCT@@A ; gObj
  01693	8b 94 01 24 0e
	00 00		 mov	 edx, DWORD PTR [ecx+eax+3620]
  0169a	0f bf 82 d2 05
	00 00		 movsx	 eax, WORD PTR [edx+1490]
  016a1	3d 84 18 00 00	 cmp	 eax, 6276		; 00001884H
  016a6	0f 84 18 03 00
	00		 je	 $LN15@CheckEnter
  016ac	8b 45 08	 mov	 eax, DWORD PTR _iUserIndex$[ebp]
  016af	69 c0 38 2b 00
	00		 imul	 eax, 11064		; 00002b38H
  016b5	8b 0d 00 00 00
	00		 mov	 ecx, DWORD PTR ?gObj@@3PAUOBJECTSTRUCT@@A ; gObj
  016bb	8b 94 01 24 0e
	00 00		 mov	 edx, DWORD PTR [ecx+eax+3620]
  016c2	0f bf 82 d2 05
	00 00		 movsx	 eax, WORD PTR [edx+1490]
  016c9	3d 85 18 00 00	 cmp	 eax, 6277		; 00001885H
  016ce	0f 84 f0 02 00
	00		 je	 $LN15@CheckEnter
  016d4	8b 45 08	 mov	 eax, DWORD PTR _iUserIndex$[ebp]
  016d7	69 c0 38 2b 00
	00		 imul	 eax, 11064		; 00002b38H
  016dd	8b 0d 00 00 00
	00		 mov	 ecx, DWORD PTR ?gObj@@3PAUOBJECTSTRUCT@@A ; gObj
  016e3	8b 94 01 24 0e
	00 00		 mov	 edx, DWORD PTR [ecx+eax+3620]
  016ea	0f bf 82 d2 05
	00 00		 movsx	 eax, WORD PTR [edx+1490]
  016f1	3d 86 18 00 00	 cmp	 eax, 6278		; 00001886H
  016f6	0f 84 c8 02 00
	00		 je	 $LN15@CheckEnter
  016fc	8b 45 08	 mov	 eax, DWORD PTR _iUserIndex$[ebp]
  016ff	69 c0 38 2b 00
	00		 imul	 eax, 11064		; 00002b38H
  01705	8b 0d 00 00 00
	00		 mov	 ecx, DWORD PTR ?gObj@@3PAUOBJECTSTRUCT@@A ; gObj
  0170b	8b 94 01 24 0e
	00 00		 mov	 edx, DWORD PTR [ecx+eax+3620]
  01712	0f bf 82 d2 05
	00 00		 movsx	 eax, WORD PTR [edx+1490]
  01719	3d 87 18 00 00	 cmp	 eax, 6279		; 00001887H
  0171e	0f 84 a0 02 00
	00		 je	 $LN15@CheckEnter
  01724	8b 45 08	 mov	 eax, DWORD PTR _iUserIndex$[ebp]
  01727	69 c0 38 2b 00
	00		 imul	 eax, 11064		; 00002b38H
  0172d	8b 0d 00 00 00
	00		 mov	 ecx, DWORD PTR ?gObj@@3PAUOBJECTSTRUCT@@A ; gObj
  01733	8b 94 01 24 0e
	00 00		 mov	 edx, DWORD PTR [ecx+eax+3620]
  0173a	0f bf 82 d2 05
	00 00		 movsx	 eax, WORD PTR [edx+1490]
  01741	3d ba 18 00 00	 cmp	 eax, 6330		; 000018baH
  01746	7d 09		 jge	 SHORT $LN23@CheckEnter
  01748	c7 45 b8 00 00
	00 00		 mov	 DWORD PTR tv280[ebp], 0
  0174f	eb 2b		 jmp	 SHORT $LN24@CheckEnter
$LN23@CheckEnter:
  01751	8b 4d 08	 mov	 ecx, DWORD PTR _iUserIndex$[ebp]
  01754	69 c9 38 2b 00
	00		 imul	 ecx, 11064		; 00002b38H
  0175a	8b 15 00 00 00
	00		 mov	 edx, DWORD PTR ?gObj@@3PAUOBJECTSTRUCT@@A ; gObj
  01760	8b 84 0a 24 0e
	00 00		 mov	 eax, DWORD PTR [edx+ecx+3620]
  01767	0f bf 88 d2 05
	00 00		 movsx	 ecx, WORD PTR [eax+1490]
  0176e	33 d2		 xor	 edx, edx
  01770	81 f9 bc 18 00
	00		 cmp	 ecx, 6332		; 000018bcH
  01776	0f 9e c2	 setle	 dl
  01779	89 55 b8	 mov	 DWORD PTR tv280[ebp], edx
$LN24@CheckEnter:
  0177c	83 7d b8 00	 cmp	 DWORD PTR tv280[ebp], 0
  01780	0f 85 3e 02 00
	00		 jne	 $LN15@CheckEnter
  01786	8b 45 08	 mov	 eax, DWORD PTR _iUserIndex$[ebp]
  01789	69 c0 38 2b 00
	00		 imul	 eax, 11064		; 00002b38H
  0178f	8b 0d 00 00 00
	00		 mov	 ecx, DWORD PTR ?gObj@@3PAUOBJECTSTRUCT@@A ; gObj
  01795	8b 94 01 24 0e
	00 00		 mov	 edx, DWORD PTR [ecx+eax+3620]
  0179c	0f bf 82 d2 05
	00 00		 movsx	 eax, WORD PTR [edx+1490]
  017a3	3d b4 18 00 00	 cmp	 eax, 6324		; 000018b4H
  017a8	7d 09		 jge	 SHORT $LN25@CheckEnter
  017aa	c7 45 b8 00 00
	00 00		 mov	 DWORD PTR tv297[ebp], 0
  017b1	eb 2b		 jmp	 SHORT $LN26@CheckEnter
$LN25@CheckEnter:
  017b3	8b 4d 08	 mov	 ecx, DWORD PTR _iUserIndex$[ebp]
  017b6	69 c9 38 2b 00
	00		 imul	 ecx, 11064		; 00002b38H
  017bc	8b 15 00 00 00
	00		 mov	 edx, DWORD PTR ?gObj@@3PAUOBJECTSTRUCT@@A ; gObj
  017c2	8b 84 0a 24 0e
	00 00		 mov	 eax, DWORD PTR [edx+ecx+3620]
  017c9	0f bf 88 d2 05
	00 00		 movsx	 ecx, WORD PTR [eax+1490]
  017d0	33 d2		 xor	 edx, edx
  017d2	81 f9 b9 18 00
	00		 cmp	 ecx, 6329		; 000018b9H
  017d8	0f 9e c2	 setle	 dl
  017db	89 55 b8	 mov	 DWORD PTR tv297[ebp], edx
$LN26@CheckEnter:
  017de	83 7d b8 00	 cmp	 DWORD PTR tv297[ebp], 0
  017e2	0f 85 dc 01 00
	00		 jne	 $LN15@CheckEnter
  017e8	8b 45 08	 mov	 eax, DWORD PTR _iUserIndex$[ebp]
  017eb	69 c0 38 2b 00
	00		 imul	 eax, 11064		; 00002b38H
  017f1	8b 0d 00 00 00
	00		 mov	 ecx, DWORD PTR ?gObj@@3PAUOBJECTSTRUCT@@A ; gObj
  017f7	8b 94 01 24 0e
	00 00		 mov	 edx, DWORD PTR [ecx+eax+3620]
  017fe	0f bf 82 d2 05
	00 00		 movsx	 eax, WORD PTR [edx+1490]
  01805	3d bd 18 00 00	 cmp	 eax, 6333		; 000018bdH
  0180a	7d 09		 jge	 SHORT $LN27@CheckEnter
  0180c	c7 45 b8 00 00
	00 00		 mov	 DWORD PTR tv314[ebp], 0
  01813	eb 2b		 jmp	 SHORT $LN28@CheckEnter
$LN27@CheckEnter:
  01815	8b 4d 08	 mov	 ecx, DWORD PTR _iUserIndex$[ebp]
  01818	69 c9 38 2b 00
	00		 imul	 ecx, 11064		; 00002b38H
  0181e	8b 15 00 00 00
	00		 mov	 edx, DWORD PTR ?gObj@@3PAUOBJECTSTRUCT@@A ; gObj
  01824	8b 84 0a 24 0e
	00 00		 mov	 eax, DWORD PTR [edx+ecx+3620]
  0182b	0f bf 88 d2 05
	00 00		 movsx	 ecx, WORD PTR [eax+1490]
  01832	33 d2		 xor	 edx, edx
  01834	81 f9 c2 18 00
	00		 cmp	 ecx, 6338		; 000018c2H
  0183a	0f 9e c2	 setle	 dl
  0183d	89 55 b8	 mov	 DWORD PTR tv314[ebp], edx
$LN28@CheckEnter:
  01840	83 7d b8 00	 cmp	 DWORD PTR tv314[ebp], 0
  01844	0f 85 7a 01 00
	00		 jne	 $LN15@CheckEnter
  0184a	8b 45 08	 mov	 eax, DWORD PTR _iUserIndex$[ebp]
  0184d	69 c0 38 2b 00
	00		 imul	 eax, 11064		; 00002b38H
  01853	8b 0d 00 00 00
	00		 mov	 ecx, DWORD PTR ?gObj@@3PAUOBJECTSTRUCT@@A ; gObj
  01859	8b 94 01 24 0e
	00 00		 mov	 edx, DWORD PTR [ecx+eax+3620]
  01860	0f bf 82 d2 05
	00 00		 movsx	 eax, WORD PTR [edx+1490]
  01867	3d c3 18 00 00	 cmp	 eax, 6339		; 000018c3H
  0186c	7d 09		 jge	 SHORT $LN29@CheckEnter
  0186e	c7 45 b8 00 00
	00 00		 mov	 DWORD PTR tv331[ebp], 0
  01875	eb 2b		 jmp	 SHORT $LN30@CheckEnter
$LN29@CheckEnter:
  01877	8b 4d 08	 mov	 ecx, DWORD PTR _iUserIndex$[ebp]
  0187a	69 c9 38 2b 00
	00		 imul	 ecx, 11064		; 00002b38H
  01880	8b 15 00 00 00
	00		 mov	 edx, DWORD PTR ?gObj@@3PAUOBJECTSTRUCT@@A ; gObj
  01886	8b 84 0a 24 0e
	00 00		 mov	 eax, DWORD PTR [edx+ecx+3620]
  0188d	0f bf 88 d2 05
	00 00		 movsx	 ecx, WORD PTR [eax+1490]
  01894	33 d2		 xor	 edx, edx
  01896	81 f9 dc 18 00
	00		 cmp	 ecx, 6364		; 000018dcH
  0189c	0f 9e c2	 setle	 dl
  0189f	89 55 b8	 mov	 DWORD PTR tv331[ebp], edx
$LN30@CheckEnter:
  018a2	83 7d b8 00	 cmp	 DWORD PTR tv331[ebp], 0
  018a6	0f 85 18 01 00
	00		 jne	 $LN15@CheckEnter
  018ac	8b 45 08	 mov	 eax, DWORD PTR _iUserIndex$[ebp]
  018af	69 c0 38 2b 00
	00		 imul	 eax, 11064		; 00002b38H
  018b5	8b 0d 00 00 00
	00		 mov	 ecx, DWORD PTR ?gObj@@3PAUOBJECTSTRUCT@@A ; gObj
  018bb	8b 94 01 24 0e
	00 00		 mov	 edx, DWORD PTR [ecx+eax+3620]
  018c2	0f bf 82 a6 06
	00 00		 movsx	 eax, WORD PTR [edx+1702]
  018c9	3d 03 1a 00 00	 cmp	 eax, 6659		; 00001a03H
  018ce	0f 84 f0 00 00
	00		 je	 $LN15@CheckEnter
  018d4	8b 45 08	 mov	 eax, DWORD PTR _iUserIndex$[ebp]
  018d7	69 c0 38 2b 00
	00		 imul	 eax, 11064		; 00002b38H
  018dd	8b 0d 00 00 00
	00		 mov	 ecx, DWORD PTR ?gObj@@3PAUOBJECTSTRUCT@@A ; gObj
  018e3	8b 94 01 24 0e
	00 00		 mov	 edx, DWORD PTR [ecx+eax+3620]
  018ea	0f bf 82 a6 06
	00 00		 movsx	 eax, WORD PTR [edx+1702]
  018f1	3d 25 1a 00 00	 cmp	 eax, 6693		; 00001a25H
  018f6	0f 84 c8 00 00
	00		 je	 $LN15@CheckEnter
  018fc	8b 45 08	 mov	 eax, DWORD PTR _iUserIndex$[ebp]
  018ff	69 c0 38 2b 00
	00		 imul	 eax, 11064		; 00002b38H
  01905	8b 0d 00 00 00
	00		 mov	 ecx, DWORD PTR ?gObj@@3PAUOBJECTSTRUCT@@A ; gObj
  0190b	8b 94 01 24 0e
	00 00		 mov	 edx, DWORD PTR [ecx+eax+3620]
  01912	0f bf 82 a6 06
	00 00		 movsx	 eax, WORD PTR [edx+1702]
  01919	3d 04 1a 00 00	 cmp	 eax, 6660		; 00001a04H
  0191e	0f 84 a0 00 00
	00		 je	 $LN15@CheckEnter
  01924	8b 45 08	 mov	 eax, DWORD PTR _iUserIndex$[ebp]
  01927	69 c0 38 2b 00
	00		 imul	 eax, 11064		; 00002b38H
  0192d	8b 0d 00 00 00
	00		 mov	 ecx, DWORD PTR ?gObj@@3PAUOBJECTSTRUCT@@A ; gObj
  01933	8b 94 01 24 0e
	00 00		 mov	 edx, DWORD PTR [ecx+eax+3620]
  0193a	0f bf 82 d2 05
	00 00		 movsx	 eax, WORD PTR [edx+1490]
  01941	3d 24 18 00 00	 cmp	 eax, 6180		; 00001824H
  01946	7c 24		 jl	 SHORT $LN13@CheckEnter
  01948	8b 45 08	 mov	 eax, DWORD PTR _iUserIndex$[ebp]
  0194b	69 c0 38 2b 00
	00		 imul	 eax, 11064		; 00002b38H
  01951	8b 0d 00 00 00
	00		 mov	 ecx, DWORD PTR ?gObj@@3PAUOBJECTSTRUCT@@A ; gObj
  01957	8b 94 01 24 0e
	00 00		 mov	 edx, DWORD PTR [ecx+eax+3620]
  0195e	0f bf 82 d2 05
	00 00		 movsx	 eax, WORD PTR [edx+1490]
  01965	3d 28 18 00 00	 cmp	 eax, 6184		; 00001828H
  0196a	7e 58		 jle	 SHORT $LN15@CheckEnter
$LN13@CheckEnter:

; 593  : 		{
; 594  : 			LogAddTD("[ KANTURU ][ Entrance Fail ] Wing Item is not exist [%s][%s] State(%d)-(%d)",
; 595  : 				gObj[iUserIndex].AccountID, gObj[iUserIndex].Name,
; 596  : 				this->GetKanturuState(), this->m_BattleOfMaya.GetBattleOfMayaState());

  0196c	8b 4d fc	 mov	 ecx, DWORD PTR _this$[ebp]
  0196f	81 c1 f4 00 00
	00		 add	 ecx, 244		; 000000f4H
  01975	e8 00 00 00 00	 call	 ?GetBattleOfMayaState@CKanturuBattleOfMaya@@QAEHXZ ; CKanturuBattleOfMaya::GetBattleOfMayaState
  0197a	50		 push	 eax
  0197b	8b 4d fc	 mov	 ecx, DWORD PTR _this$[ebp]
  0197e	e8 00 00 00 00	 call	 ?GetKanturuState@CKanturu@@QAEHXZ ; CKanturu::GetKanturuState
  01983	50		 push	 eax
  01984	8b 45 08	 mov	 eax, DWORD PTR _iUserIndex$[ebp]
  01987	69 c0 38 2b 00
	00		 imul	 eax, 11064		; 00002b38H
  0198d	8b 0d 00 00 00
	00		 mov	 ecx, DWORD PTR ?gObj@@3PAUOBJECTSTRUCT@@A ; gObj
  01993	8d 54 01 77	 lea	 edx, DWORD PTR [ecx+eax+119]
  01997	52		 push	 edx
  01998	8b 45 08	 mov	 eax, DWORD PTR _iUserIndex$[ebp]
  0199b	69 c0 38 2b 00
	00		 imul	 eax, 11064		; 00002b38H
  019a1	8b 0d 00 00 00
	00		 mov	 ecx, DWORD PTR ?gObj@@3PAUOBJECTSTRUCT@@A ; gObj
  019a7	8d 54 01 6c	 lea	 edx, DWORD PTR [ecx+eax+108]
  019ab	52		 push	 edx
  019ac	68 00 00 00 00	 push	 OFFSET ??_C@_0EM@CONDJFLC@?$FL?5KANTURU?5?$FN?$FL?5Entrance?5Fail?5?$FN?5Win@
  019b1	ff 15 00 00 00
	00		 call	 DWORD PTR ?LogAddTD@@3P6AXPADZZA ; LogAddTD
  019b7	83 c4 14	 add	 esp, 20			; 00000014H

; 597  : 
; 598  : 			return 7;

  019ba	b8 07 00 00 00	 mov	 eax, 7
  019bf	e9 a7 04 00 00	 jmp	 $LN21@CheckEnter
$LN15@CheckEnter:

; 599  : 		}
; 600  : 
; 601  : 		if ( gObj[iUserIndex].pInventory[8].m_Type == ITEMGET(13,2) )

  019c4	8b 45 08	 mov	 eax, DWORD PTR _iUserIndex$[ebp]
  019c7	69 c0 38 2b 00
	00		 imul	 eax, 11064		; 00002b38H
  019cd	8b 0d 00 00 00
	00		 mov	 ecx, DWORD PTR ?gObj@@3PAUOBJECTSTRUCT@@A ; gObj
  019d3	8b 94 01 24 0e
	00 00		 mov	 edx, DWORD PTR [ecx+eax+3620]
  019da	0f bf 82 a6 06
	00 00		 movsx	 eax, WORD PTR [edx+1702]
  019e1	3d 02 1a 00 00	 cmp	 eax, 6658		; 00001a02H
  019e6	75 58		 jne	 SHORT $LN12@CheckEnter

; 602  : 		{
; 603  : 			LogAddTD("[ KANTURU ][ Entrance Fail ] Uniria Item is exist [%s][%s] State(%d)-(%d)",
; 604  : 				gObj[iUserIndex].AccountID, gObj[iUserIndex].Name,
; 605  : 				this->GetKanturuState(), this->m_BattleOfMaya.GetBattleOfMayaState());

  019e8	8b 4d fc	 mov	 ecx, DWORD PTR _this$[ebp]
  019eb	81 c1 f4 00 00
	00		 add	 ecx, 244		; 000000f4H
  019f1	e8 00 00 00 00	 call	 ?GetBattleOfMayaState@CKanturuBattleOfMaya@@QAEHXZ ; CKanturuBattleOfMaya::GetBattleOfMayaState
  019f6	50		 push	 eax
  019f7	8b 4d fc	 mov	 ecx, DWORD PTR _this$[ebp]
  019fa	e8 00 00 00 00	 call	 ?GetKanturuState@CKanturu@@QAEHXZ ; CKanturu::GetKanturuState
  019ff	50		 push	 eax
  01a00	8b 45 08	 mov	 eax, DWORD PTR _iUserIndex$[ebp]
  01a03	69 c0 38 2b 00
	00		 imul	 eax, 11064		; 00002b38H
  01a09	8b 0d 00 00 00
	00		 mov	 ecx, DWORD PTR ?gObj@@3PAUOBJECTSTRUCT@@A ; gObj
  01a0f	8d 54 01 77	 lea	 edx, DWORD PTR [ecx+eax+119]
  01a13	52		 push	 edx
  01a14	8b 45 08	 mov	 eax, DWORD PTR _iUserIndex$[ebp]
  01a17	69 c0 38 2b 00
	00		 imul	 eax, 11064		; 00002b38H
  01a1d	8b 0d 00 00 00
	00		 mov	 ecx, DWORD PTR ?gObj@@3PAUOBJECTSTRUCT@@A ; gObj
  01a23	8d 54 01 6c	 lea	 edx, DWORD PTR [ecx+eax+108]
  01a27	52		 push	 edx
  01a28	68 00 00 00 00	 push	 OFFSET ??_C@_0EK@BCIDIJNJ@?$FL?5KANTURU?5?$FN?$FL?5Entrance?5Fail?5?$FN?5Uni@
  01a2d	ff 15 00 00 00
	00		 call	 DWORD PTR ?LogAddTD@@3P6AXPADZZA ; LogAddTD
  01a33	83 c4 14	 add	 esp, 20			; 00000014H

; 606  : 
; 607  : 			return 5;

  01a36	b8 05 00 00 00	 mov	 eax, 5
  01a3b	e9 2b 04 00 00	 jmp	 $LN21@CheckEnter
$LN12@CheckEnter:

; 608  : 		}
; 609  : 
; 610  : 		if ( gObj[iUserIndex].pInventory[11].m_Type == ITEMGET(13,10) ||
; 611  : 			gObj[iUserIndex].pInventory[10].m_Type == ITEMGET(13,10) )

  01a40	8b 45 08	 mov	 eax, DWORD PTR _iUserIndex$[ebp]
  01a43	69 c0 38 2b 00
	00		 imul	 eax, 11064		; 00002b38H
  01a49	8b 0d 00 00 00
	00		 mov	 ecx, DWORD PTR ?gObj@@3PAUOBJECTSTRUCT@@A ; gObj
  01a4f	8b 94 01 24 0e
	00 00		 mov	 edx, DWORD PTR [ecx+eax+3620]
  01a56	0f bf 82 22 09
	00 00		 movsx	 eax, WORD PTR [edx+2338]
  01a5d	3d 0a 1a 00 00	 cmp	 eax, 6666		; 00001a0aH
  01a62	74 24		 je	 SHORT $LN10@CheckEnter
  01a64	8b 45 08	 mov	 eax, DWORD PTR _iUserIndex$[ebp]
  01a67	69 c0 38 2b 00
	00		 imul	 eax, 11064		; 00002b38H
  01a6d	8b 0d 00 00 00
	00		 mov	 ecx, DWORD PTR ?gObj@@3PAUOBJECTSTRUCT@@A ; gObj
  01a73	8b 94 01 24 0e
	00 00		 mov	 edx, DWORD PTR [ecx+eax+3620]
  01a7a	0f bf 82 4e 08
	00 00		 movsx	 eax, WORD PTR [edx+2126]
  01a81	3d 0a 1a 00 00	 cmp	 eax, 6666		; 00001a0aH
  01a86	75 58		 jne	 SHORT $LN11@CheckEnter
$LN10@CheckEnter:

; 612  : 		{
; 613  : 			LogAddTD("[ KANTURU ][ Entrance Fail ] Trasportation Ring is exist [%s][%s] State(%d)-(%d)",
; 614  : 				gObj[iUserIndex].AccountID, gObj[iUserIndex].Name,
; 615  : 				this->GetKanturuState(), this->m_BattleOfMaya.GetBattleOfMayaState());

  01a88	8b 4d fc	 mov	 ecx, DWORD PTR _this$[ebp]
  01a8b	81 c1 f4 00 00
	00		 add	 ecx, 244		; 000000f4H
  01a91	e8 00 00 00 00	 call	 ?GetBattleOfMayaState@CKanturuBattleOfMaya@@QAEHXZ ; CKanturuBattleOfMaya::GetBattleOfMayaState
  01a96	50		 push	 eax
  01a97	8b 4d fc	 mov	 ecx, DWORD PTR _this$[ebp]
  01a9a	e8 00 00 00 00	 call	 ?GetKanturuState@CKanturu@@QAEHXZ ; CKanturu::GetKanturuState
  01a9f	50		 push	 eax
  01aa0	8b 45 08	 mov	 eax, DWORD PTR _iUserIndex$[ebp]
  01aa3	69 c0 38 2b 00
	00		 imul	 eax, 11064		; 00002b38H
  01aa9	8b 0d 00 00 00
	00		 mov	 ecx, DWORD PTR ?gObj@@3PAUOBJECTSTRUCT@@A ; gObj
  01aaf	8d 54 01 77	 lea	 edx, DWORD PTR [ecx+eax+119]
  01ab3	52		 push	 edx
  01ab4	8b 45 08	 mov	 eax, DWORD PTR _iUserIndex$[ebp]
  01ab7	69 c0 38 2b 00
	00		 imul	 eax, 11064		; 00002b38H
  01abd	8b 0d 00 00 00
	00		 mov	 ecx, DWORD PTR ?gObj@@3PAUOBJECTSTRUCT@@A ; gObj
  01ac3	8d 54 01 6c	 lea	 edx, DWORD PTR [ecx+eax+108]
  01ac7	52		 push	 edx
  01ac8	68 00 00 00 00	 push	 OFFSET ??_C@_0FB@GCLEDKFJ@?$FL?5KANTURU?5?$FN?$FL?5Entrance?5Fail?5?$FN?5Tra@
  01acd	ff 15 00 00 00
	00		 call	 DWORD PTR ?LogAddTD@@3P6AXPADZZA ; LogAddTD
  01ad3	83 c4 14	 add	 esp, 20			; 00000014H

; 616  : 
; 617  : 			return 6;

  01ad6	b8 06 00 00 00	 mov	 eax, 6
  01adb	e9 8b 03 00 00	 jmp	 $LN21@CheckEnter
$LN11@CheckEnter:

; 618  : 		}
; 619  : //#endif
; 620  : 		if ( gObj[iUserIndex].pInventory[11].m_Type == ITEMGET(13,39) ||
; 621  : 			gObj[iUserIndex].pInventory[10].m_Type == ITEMGET(13,39) )

  01ae0	8b 45 08	 mov	 eax, DWORD PTR _iUserIndex$[ebp]
  01ae3	69 c0 38 2b 00
	00		 imul	 eax, 11064		; 00002b38H
  01ae9	8b 0d 00 00 00
	00		 mov	 ecx, DWORD PTR ?gObj@@3PAUOBJECTSTRUCT@@A ; gObj
  01aef	8b 94 01 24 0e
	00 00		 mov	 edx, DWORD PTR [ecx+eax+3620]
  01af6	0f bf 82 22 09
	00 00		 movsx	 eax, WORD PTR [edx+2338]
  01afd	3d 27 1a 00 00	 cmp	 eax, 6695		; 00001a27H
  01b02	74 24		 je	 SHORT $LN8@CheckEnter
  01b04	8b 45 08	 mov	 eax, DWORD PTR _iUserIndex$[ebp]
  01b07	69 c0 38 2b 00
	00		 imul	 eax, 11064		; 00002b38H
  01b0d	8b 0d 00 00 00
	00		 mov	 ecx, DWORD PTR ?gObj@@3PAUOBJECTSTRUCT@@A ; gObj
  01b13	8b 94 01 24 0e
	00 00		 mov	 edx, DWORD PTR [ecx+eax+3620]
  01b1a	0f bf 82 4e 08
	00 00		 movsx	 eax, WORD PTR [edx+2126]
  01b21	3d 27 1a 00 00	 cmp	 eax, 6695		; 00001a27H
  01b26	75 58		 jne	 SHORT $LN9@CheckEnter
$LN8@CheckEnter:

; 622  : 		{
; 623  : 			LogAddTD("[ Kanturu ][ Entrance Fail ] EliteSkelletoneChangeRing is exist [%s][%s] State(%d)-(%d)",
; 624  : 				gObj[iUserIndex].AccountID, gObj[iUserIndex].Name,
; 625  : 				this->GetKanturuState(), this->m_BattleOfMaya.GetBattleOfMayaState());

  01b28	8b 4d fc	 mov	 ecx, DWORD PTR _this$[ebp]
  01b2b	81 c1 f4 00 00
	00		 add	 ecx, 244		; 000000f4H
  01b31	e8 00 00 00 00	 call	 ?GetBattleOfMayaState@CKanturuBattleOfMaya@@QAEHXZ ; CKanturuBattleOfMaya::GetBattleOfMayaState
  01b36	50		 push	 eax
  01b37	8b 4d fc	 mov	 ecx, DWORD PTR _this$[ebp]
  01b3a	e8 00 00 00 00	 call	 ?GetKanturuState@CKanturu@@QAEHXZ ; CKanturu::GetKanturuState
  01b3f	50		 push	 eax
  01b40	8b 45 08	 mov	 eax, DWORD PTR _iUserIndex$[ebp]
  01b43	69 c0 38 2b 00
	00		 imul	 eax, 11064		; 00002b38H
  01b49	8b 0d 00 00 00
	00		 mov	 ecx, DWORD PTR ?gObj@@3PAUOBJECTSTRUCT@@A ; gObj
  01b4f	8d 54 01 77	 lea	 edx, DWORD PTR [ecx+eax+119]
  01b53	52		 push	 edx
  01b54	8b 45 08	 mov	 eax, DWORD PTR _iUserIndex$[ebp]
  01b57	69 c0 38 2b 00
	00		 imul	 eax, 11064		; 00002b38H
  01b5d	8b 0d 00 00 00
	00		 mov	 ecx, DWORD PTR ?gObj@@3PAUOBJECTSTRUCT@@A ; gObj
  01b63	8d 54 01 6c	 lea	 edx, DWORD PTR [ecx+eax+108]
  01b67	52		 push	 edx
  01b68	68 00 00 00 00	 push	 OFFSET ??_C@_0FI@PBEMOOOD@?$FL?5Kanturu?5?$FN?$FL?5Entrance?5Fail?5?$FN?5Eli@
  01b6d	ff 15 00 00 00
	00		 call	 DWORD PTR ?LogAddTD@@3P6AXPADZZA ; LogAddTD
  01b73	83 c4 14	 add	 esp, 20			; 00000014H

; 626  : 
; 627  : 			return 6;

  01b76	b8 06 00 00 00	 mov	 eax, 6
  01b7b	e9 eb 02 00 00	 jmp	 $LN21@CheckEnter
$LN9@CheckEnter:

; 628  : 		}
; 629  : 
; 630  : 		if ( gObj[iUserIndex].pInventory[11].m_Type == ITEMGET(13,40) || //Second Edition
; 631  : 			gObj[iUserIndex].pInventory[10].m_Type == ITEMGET(13,40) )

  01b80	8b 45 08	 mov	 eax, DWORD PTR _iUserIndex$[ebp]
  01b83	69 c0 38 2b 00
	00		 imul	 eax, 11064		; 00002b38H
  01b89	8b 0d 00 00 00
	00		 mov	 ecx, DWORD PTR ?gObj@@3PAUOBJECTSTRUCT@@A ; gObj
  01b8f	8b 94 01 24 0e
	00 00		 mov	 edx, DWORD PTR [ecx+eax+3620]
  01b96	0f bf 82 22 09
	00 00		 movsx	 eax, WORD PTR [edx+2338]
  01b9d	3d 28 1a 00 00	 cmp	 eax, 6696		; 00001a28H
  01ba2	74 24		 je	 SHORT $LN6@CheckEnter
  01ba4	8b 45 08	 mov	 eax, DWORD PTR _iUserIndex$[ebp]
  01ba7	69 c0 38 2b 00
	00		 imul	 eax, 11064		; 00002b38H
  01bad	8b 0d 00 00 00
	00		 mov	 ecx, DWORD PTR ?gObj@@3PAUOBJECTSTRUCT@@A ; gObj
  01bb3	8b 94 01 24 0e
	00 00		 mov	 edx, DWORD PTR [ecx+eax+3620]
  01bba	0f bf 82 4e 08
	00 00		 movsx	 eax, WORD PTR [edx+2126]
  01bc1	3d 28 1a 00 00	 cmp	 eax, 6696		; 00001a28H
  01bc6	75 58		 jne	 SHORT $LN7@CheckEnter
$LN6@CheckEnter:

; 632  : 		{
; 633  : 			LogAddTD("[ Kanturu ][ Entrance Fail ] Jack'O Lantern Polymorph Ring is exist [%s][%s] State(%d)-(%d)",
; 634  : 				gObj[iUserIndex].AccountID, gObj[iUserIndex].Name,
; 635  : 				this->GetKanturuState(), this->m_BattleOfMaya.GetBattleOfMayaState());

  01bc8	8b 4d fc	 mov	 ecx, DWORD PTR _this$[ebp]
  01bcb	81 c1 f4 00 00
	00		 add	 ecx, 244		; 000000f4H
  01bd1	e8 00 00 00 00	 call	 ?GetBattleOfMayaState@CKanturuBattleOfMaya@@QAEHXZ ; CKanturuBattleOfMaya::GetBattleOfMayaState
  01bd6	50		 push	 eax
  01bd7	8b 4d fc	 mov	 ecx, DWORD PTR _this$[ebp]
  01bda	e8 00 00 00 00	 call	 ?GetKanturuState@CKanturu@@QAEHXZ ; CKanturu::GetKanturuState
  01bdf	50		 push	 eax
  01be0	8b 45 08	 mov	 eax, DWORD PTR _iUserIndex$[ebp]
  01be3	69 c0 38 2b 00
	00		 imul	 eax, 11064		; 00002b38H
  01be9	8b 0d 00 00 00
	00		 mov	 ecx, DWORD PTR ?gObj@@3PAUOBJECTSTRUCT@@A ; gObj
  01bef	8d 54 01 77	 lea	 edx, DWORD PTR [ecx+eax+119]
  01bf3	52		 push	 edx
  01bf4	8b 45 08	 mov	 eax, DWORD PTR _iUserIndex$[ebp]
  01bf7	69 c0 38 2b 00
	00		 imul	 eax, 11064		; 00002b38H
  01bfd	8b 0d 00 00 00
	00		 mov	 ecx, DWORD PTR ?gObj@@3PAUOBJECTSTRUCT@@A ; gObj
  01c03	8d 54 01 6c	 lea	 edx, DWORD PTR [ecx+eax+108]
  01c07	52		 push	 edx
  01c08	68 00 00 00 00	 push	 OFFSET ??_C@_0FM@LINMECFL@?$FL?5Kanturu?5?$FN?$FL?5Entrance?5Fail?5?$FN?5Jac@
  01c0d	ff 15 00 00 00
	00		 call	 DWORD PTR ?LogAddTD@@3P6AXPADZZA ; LogAddTD
  01c13	83 c4 14	 add	 esp, 20			; 00000014H

; 636  : 
; 637  : 			return 6;

  01c16	b8 06 00 00 00	 mov	 eax, 6
  01c1b	e9 4b 02 00 00	 jmp	 $LN21@CheckEnter
$LN7@CheckEnter:

; 638  : 		}
; 639  : 
; 640  : 		if ( gObj[iUserIndex].pInventory[11].m_Type == ITEMGET(13,41) || //season 2.5 add-on
; 641  : 			gObj[iUserIndex].pInventory[10].m_Type == ITEMGET(13,41) )

  01c20	8b 45 08	 mov	 eax, DWORD PTR _iUserIndex$[ebp]
  01c23	69 c0 38 2b 00
	00		 imul	 eax, 11064		; 00002b38H
  01c29	8b 0d 00 00 00
	00		 mov	 ecx, DWORD PTR ?gObj@@3PAUOBJECTSTRUCT@@A ; gObj
  01c2f	8b 94 01 24 0e
	00 00		 mov	 edx, DWORD PTR [ecx+eax+3620]
  01c36	0f bf 82 22 09
	00 00		 movsx	 eax, WORD PTR [edx+2338]
  01c3d	3d 29 1a 00 00	 cmp	 eax, 6697		; 00001a29H
  01c42	74 24		 je	 SHORT $LN4@CheckEnter
  01c44	8b 45 08	 mov	 eax, DWORD PTR _iUserIndex$[ebp]
  01c47	69 c0 38 2b 00
	00		 imul	 eax, 11064		; 00002b38H
  01c4d	8b 0d 00 00 00
	00		 mov	 ecx, DWORD PTR ?gObj@@3PAUOBJECTSTRUCT@@A ; gObj
  01c53	8b 94 01 24 0e
	00 00		 mov	 edx, DWORD PTR [ecx+eax+3620]
  01c5a	0f bf 82 4e 08
	00 00		 movsx	 eax, WORD PTR [edx+2126]
  01c61	3d 29 1a 00 00	 cmp	 eax, 6697		; 00001a29H
  01c66	75 58		 jne	 SHORT $LN5@CheckEnter
$LN4@CheckEnter:

; 642  : 		{
; 643  : 			LogAddTD("[ Kanturu ][ Entrance Fail ] Santa Polymorph Ring is exist [%s][%s] State(%d)-(%d)",
; 644  : 				gObj[iUserIndex].AccountID, gObj[iUserIndex].Name,
; 645  : 				this->GetKanturuState(), this->m_BattleOfMaya.GetBattleOfMayaState());

  01c68	8b 4d fc	 mov	 ecx, DWORD PTR _this$[ebp]
  01c6b	81 c1 f4 00 00
	00		 add	 ecx, 244		; 000000f4H
  01c71	e8 00 00 00 00	 call	 ?GetBattleOfMayaState@CKanturuBattleOfMaya@@QAEHXZ ; CKanturuBattleOfMaya::GetBattleOfMayaState
  01c76	50		 push	 eax
  01c77	8b 4d fc	 mov	 ecx, DWORD PTR _this$[ebp]
  01c7a	e8 00 00 00 00	 call	 ?GetKanturuState@CKanturu@@QAEHXZ ; CKanturu::GetKanturuState
  01c7f	50		 push	 eax
  01c80	8b 45 08	 mov	 eax, DWORD PTR _iUserIndex$[ebp]
  01c83	69 c0 38 2b 00
	00		 imul	 eax, 11064		; 00002b38H
  01c89	8b 0d 00 00 00
	00		 mov	 ecx, DWORD PTR ?gObj@@3PAUOBJECTSTRUCT@@A ; gObj
  01c8f	8d 54 01 77	 lea	 edx, DWORD PTR [ecx+eax+119]
  01c93	52		 push	 edx
  01c94	8b 45 08	 mov	 eax, DWORD PTR _iUserIndex$[ebp]
  01c97	69 c0 38 2b 00
	00		 imul	 eax, 11064		; 00002b38H
  01c9d	8b 0d 00 00 00
	00		 mov	 ecx, DWORD PTR ?gObj@@3PAUOBJECTSTRUCT@@A ; gObj
  01ca3	8d 54 01 6c	 lea	 edx, DWORD PTR [ecx+eax+108]
  01ca7	52		 push	 edx
  01ca8	68 00 00 00 00	 push	 OFFSET ??_C@_0FD@JPPNGJPG@?$FL?5Kanturu?5?$FN?$FL?5Entrance?5Fail?5?$FN?5San@
  01cad	ff 15 00 00 00
	00		 call	 DWORD PTR ?LogAddTD@@3P6AXPADZZA ; LogAddTD
  01cb3	83 c4 14	 add	 esp, 20			; 00000014H

; 646  : 
; 647  : 			return 6;

  01cb6	b8 06 00 00 00	 mov	 eax, 6
  01cbb	e9 ab 01 00 00	 jmp	 $LN21@CheckEnter
$LN5@CheckEnter:

; 648  : 		}
; 649  : 
; 650  : 		if ( gObj[iUserIndex].pInventory[11].m_Type == ITEMGET(13,68) || //season4 add-on
; 651  : 			gObj[iUserIndex].pInventory[10].m_Type == ITEMGET(13,68) )

  01cc0	8b 45 08	 mov	 eax, DWORD PTR _iUserIndex$[ebp]
  01cc3	69 c0 38 2b 00
	00		 imul	 eax, 11064		; 00002b38H
  01cc9	8b 0d 00 00 00
	00		 mov	 ecx, DWORD PTR ?gObj@@3PAUOBJECTSTRUCT@@A ; gObj
  01ccf	8b 94 01 24 0e
	00 00		 mov	 edx, DWORD PTR [ecx+eax+3620]
  01cd6	0f bf 82 22 09
	00 00		 movsx	 eax, WORD PTR [edx+2338]
  01cdd	3d 44 1a 00 00	 cmp	 eax, 6724		; 00001a44H
  01ce2	74 24		 je	 SHORT $LN2@CheckEnter
  01ce4	8b 45 08	 mov	 eax, DWORD PTR _iUserIndex$[ebp]
  01ce7	69 c0 38 2b 00
	00		 imul	 eax, 11064		; 00002b38H
  01ced	8b 0d 00 00 00
	00		 mov	 ecx, DWORD PTR ?gObj@@3PAUOBJECTSTRUCT@@A ; gObj
  01cf3	8b 94 01 24 0e
	00 00		 mov	 edx, DWORD PTR [ecx+eax+3620]
  01cfa	0f bf 82 4e 08
	00 00		 movsx	 eax, WORD PTR [edx+2126]
  01d01	3d 44 1a 00 00	 cmp	 eax, 6724		; 00001a44H
  01d06	75 58		 jne	 SHORT $LN3@CheckEnter
$LN2@CheckEnter:

; 652  : 		{
; 653  : 			LogAddTD("[ Kanturu ][ Entrance Fail ] X-MASEvent Polymorph Ring is exist [%s][%s] State(%d)-(%d)",
; 654  : 				gObj[iUserIndex].AccountID, gObj[iUserIndex].Name,
; 655  : 				this->GetKanturuState(), this->m_BattleOfMaya.GetBattleOfMayaState());

  01d08	8b 4d fc	 mov	 ecx, DWORD PTR _this$[ebp]
  01d0b	81 c1 f4 00 00
	00		 add	 ecx, 244		; 000000f4H
  01d11	e8 00 00 00 00	 call	 ?GetBattleOfMayaState@CKanturuBattleOfMaya@@QAEHXZ ; CKanturuBattleOfMaya::GetBattleOfMayaState
  01d16	50		 push	 eax
  01d17	8b 4d fc	 mov	 ecx, DWORD PTR _this$[ebp]
  01d1a	e8 00 00 00 00	 call	 ?GetKanturuState@CKanturu@@QAEHXZ ; CKanturu::GetKanturuState
  01d1f	50		 push	 eax
  01d20	8b 45 08	 mov	 eax, DWORD PTR _iUserIndex$[ebp]
  01d23	69 c0 38 2b 00
	00		 imul	 eax, 11064		; 00002b38H
  01d29	8b 0d 00 00 00
	00		 mov	 ecx, DWORD PTR ?gObj@@3PAUOBJECTSTRUCT@@A ; gObj
  01d2f	8d 54 01 77	 lea	 edx, DWORD PTR [ecx+eax+119]
  01d33	52		 push	 edx
  01d34	8b 45 08	 mov	 eax, DWORD PTR _iUserIndex$[ebp]
  01d37	69 c0 38 2b 00
	00		 imul	 eax, 11064		; 00002b38H
  01d3d	8b 0d 00 00 00
	00		 mov	 ecx, DWORD PTR ?gObj@@3PAUOBJECTSTRUCT@@A ; gObj
  01d43	8d 54 01 6c	 lea	 edx, DWORD PTR [ecx+eax+108]
  01d47	52		 push	 edx
  01d48	68 00 00 00 00	 push	 OFFSET ??_C@_0FI@IBINCNDO@?$FL?5Kanturu?5?$FN?$FL?5Entrance?5Fail?5?$FN?5X?9M@
  01d4d	ff 15 00 00 00
	00		 call	 DWORD PTR ?LogAddTD@@3P6AXPADZZA ; LogAddTD
  01d53	83 c4 14	 add	 esp, 20			; 00000014H

; 656  : 
; 657  : 			return 6;

  01d56	b8 06 00 00 00	 mov	 eax, 6
  01d5b	e9 0b 01 00 00	 jmp	 $LN21@CheckEnter
$LN3@CheckEnter:

; 658  : 		}
; 659  : 
; 660  : 		LogAddTD("[ KANTURU ][ Entrance Success ] [%s][%s] State(%d)-(%d)",
; 661  : 			gObj[iUserIndex].AccountID, gObj[iUserIndex].Name,
; 662  : 			this->GetKanturuState(), this->m_BattleOfMaya.GetBattleOfMayaState());

  01d60	8b 4d fc	 mov	 ecx, DWORD PTR _this$[ebp]
  01d63	81 c1 f4 00 00
	00		 add	 ecx, 244		; 000000f4H
  01d69	e8 00 00 00 00	 call	 ?GetBattleOfMayaState@CKanturuBattleOfMaya@@QAEHXZ ; CKanturuBattleOfMaya::GetBattleOfMayaState
  01d6e	50		 push	 eax
  01d6f	8b 4d fc	 mov	 ecx, DWORD PTR _this$[ebp]
  01d72	e8 00 00 00 00	 call	 ?GetKanturuState@CKanturu@@QAEHXZ ; CKanturu::GetKanturuState
  01d77	50		 push	 eax
  01d78	8b 45 08	 mov	 eax, DWORD PTR _iUserIndex$[ebp]
  01d7b	69 c0 38 2b 00
	00		 imul	 eax, 11064		; 00002b38H
  01d81	8b 0d 00 00 00
	00		 mov	 ecx, DWORD PTR ?gObj@@3PAUOBJECTSTRUCT@@A ; gObj
  01d87	8d 54 01 77	 lea	 edx, DWORD PTR [ecx+eax+119]
  01d8b	52		 push	 edx
  01d8c	8b 45 08	 mov	 eax, DWORD PTR _iUserIndex$[ebp]
  01d8f	69 c0 38 2b 00
	00		 imul	 eax, 11064		; 00002b38H
  01d95	8b 0d 00 00 00
	00		 mov	 ecx, DWORD PTR ?gObj@@3PAUOBJECTSTRUCT@@A ; gObj
  01d9b	8d 54 01 6c	 lea	 edx, DWORD PTR [ecx+eax+108]
  01d9f	52		 push	 edx
  01da0	68 00 00 00 00	 push	 OFFSET ??_C@_0DI@ICLHIMEO@?$FL?5KANTURU?5?$FN?$FL?5Entrance?5Success?5?$FN?5@
  01da5	ff 15 00 00 00
	00		 call	 DWORD PTR ?LogAddTD@@3P6AXPADZZA ; LogAddTD
  01dab	83 c4 14	 add	 esp, 20			; 00000014H

; 663  : 
; 664  : 		return 0;

  01dae	33 c0		 xor	 eax, eax
  01db0	e9 b6 00 00 00	 jmp	 $LN21@CheckEnter
$LN18@CheckEnter:

; 665  : 	}
; 666  : 
; 667  : 	if ( this->GetKanturuState() == KANTURU_STATE_TOWER_OF_REFINEMENT &&
; 668  : 		 this->m_TowerOfRefinement.GetEntrancePermit() == TRUE )

  01db5	8b 4d fc	 mov	 ecx, DWORD PTR _this$[ebp]
  01db8	e8 00 00 00 00	 call	 ?GetKanturuState@CKanturu@@QAEHXZ ; CKanturu::GetKanturuState
  01dbd	83 f8 04	 cmp	 eax, 4
  01dc0	75 65		 jne	 SHORT $LN1@CheckEnter
  01dc2	8b 4d fc	 mov	 ecx, DWORD PTR _this$[ebp]
  01dc5	81 c1 b4 03 00
	00		 add	 ecx, 948		; 000003b4H
  01dcb	e8 00 00 00 00	 call	 ?GetEntrancePermit@CKanturuTowerOfRefinement@@QAEHXZ ; CKanturuTowerOfRefinement::GetEntrancePermit
  01dd0	83 f8 01	 cmp	 eax, 1
  01dd3	75 52		 jne	 SHORT $LN1@CheckEnter

; 669  : 	{
; 670  : 		LogAddTD("[ KANTURU ][ Entrance Success ] [%s][%s] State(%d)-(%d)",
; 671  : 			gObj[iUserIndex].AccountID, gObj[iUserIndex].Name,
; 672  : 			this->GetKanturuState(), this->m_TowerOfRefinement.GetTowerOfRefinementState());

  01dd5	8b 4d fc	 mov	 ecx, DWORD PTR _this$[ebp]
  01dd8	81 c1 b4 03 00
	00		 add	 ecx, 948		; 000003b4H
  01dde	e8 00 00 00 00	 call	 ?GetTowerOfRefinementState@CKanturuTowerOfRefinement@@QAEHXZ ; CKanturuTowerOfRefinement::GetTowerOfRefinementState
  01de3	50		 push	 eax
  01de4	8b 4d fc	 mov	 ecx, DWORD PTR _this$[ebp]
  01de7	e8 00 00 00 00	 call	 ?GetKanturuState@CKanturu@@QAEHXZ ; CKanturu::GetKanturuState
  01dec	50		 push	 eax
  01ded	8b 45 08	 mov	 eax, DWORD PTR _iUserIndex$[ebp]
  01df0	69 c0 38 2b 00
	00		 imul	 eax, 11064		; 00002b38H
  01df6	8b 0d 00 00 00
	00		 mov	 ecx, DWORD PTR ?gObj@@3PAUOBJECTSTRUCT@@A ; gObj
  01dfc	8d 54 01 77	 lea	 edx, DWORD PTR [ecx+eax+119]
  01e00	52		 push	 edx
  01e01	8b 45 08	 mov	 eax, DWORD PTR _iUserIndex$[ebp]
  01e04	69 c0 38 2b 00
	00		 imul	 eax, 11064		; 00002b38H
  01e0a	8b 0d 00 00 00
	00		 mov	 ecx, DWORD PTR ?gObj@@3PAUOBJECTSTRUCT@@A ; gObj
  01e10	8d 54 01 6c	 lea	 edx, DWORD PTR [ecx+eax+108]
  01e14	52		 push	 edx
  01e15	68 00 00 00 00	 push	 OFFSET ??_C@_0DI@ICLHIMEO@?$FL?5KANTURU?5?$FN?$FL?5Entrance?5Success?5?$FN?5@
  01e1a	ff 15 00 00 00
	00		 call	 DWORD PTR ?LogAddTD@@3P6AXPADZZA ; LogAddTD
  01e20	83 c4 14	 add	 esp, 20			; 00000014H

; 673  : 
; 674  : 		return 0;

  01e23	33 c0		 xor	 eax, eax
  01e25	eb 44		 jmp	 SHORT $LN21@CheckEnter
$LN1@CheckEnter:

; 675  : 	}
; 676  : 
; 677  : 	LogAddTD("[ KANTURU ][ Entrance Fail ] [%s][%s] State(%d)",
; 678  : 		gObj[iUserIndex].AccountID, gObj[iUserIndex].Name,
; 679  : 		this->GetKanturuState());

  01e27	8b 4d fc	 mov	 ecx, DWORD PTR _this$[ebp]
  01e2a	e8 00 00 00 00	 call	 ?GetKanturuState@CKanturu@@QAEHXZ ; CKanturu::GetKanturuState
  01e2f	50		 push	 eax
  01e30	8b 45 08	 mov	 eax, DWORD PTR _iUserIndex$[ebp]
  01e33	69 c0 38 2b 00
	00		 imul	 eax, 11064		; 00002b38H
  01e39	8b 0d 00 00 00
	00		 mov	 ecx, DWORD PTR ?gObj@@3PAUOBJECTSTRUCT@@A ; gObj
  01e3f	8d 54 01 77	 lea	 edx, DWORD PTR [ecx+eax+119]
  01e43	52		 push	 edx
  01e44	8b 45 08	 mov	 eax, DWORD PTR _iUserIndex$[ebp]
  01e47	69 c0 38 2b 00
	00		 imul	 eax, 11064		; 00002b38H
  01e4d	8b 0d 00 00 00
	00		 mov	 ecx, DWORD PTR ?gObj@@3PAUOBJECTSTRUCT@@A ; gObj
  01e53	8d 54 01 6c	 lea	 edx, DWORD PTR [ecx+eax+108]
  01e57	52		 push	 edx
  01e58	68 00 00 00 00	 push	 OFFSET ??_C@_0DA@EDHFFGEB@?$FL?5KANTURU?5?$FN?$FL?5Entrance?5Fail?5?$FN?5?$FL?$CFs@
  01e5d	ff 15 00 00 00
	00		 call	 DWORD PTR ?LogAddTD@@3P6AXPADZZA ; LogAddTD
  01e63	83 c4 10	 add	 esp, 16			; 00000010H

; 680  : 
; 681  : 	return 3;

  01e66	b8 03 00 00 00	 mov	 eax, 3
$LN21@CheckEnter:

; 682  : }

  01e6b	5f		 pop	 edi
  01e6c	5e		 pop	 esi
  01e6d	5b		 pop	 ebx
  01e6e	8b e5		 mov	 esp, ebp
  01e70	5d		 pop	 ebp
  01e71	c2 04 00	 ret	 4
?CheckEnterKanturu@CKanturu@@QAEHH@Z ENDP		; CKanturu::CheckEnterKanturu
; Function compile flags: /Odtp /ZI
; File d:\projects\exteam6.3\source\gameserver\gameserver\kanturubattleofmaya.h
_TEXT	ENDS
;	COMDAT ?GetEntrancePermit@CKanturuBattleOfMaya@@QAEHXZ
_TEXT	SEGMENT
_this$ = -4						; size = 4
?GetEntrancePermit@CKanturuBattleOfMaya@@QAEHXZ PROC	; CKanturuBattleOfMaya::GetEntrancePermit, COMDAT
; _this$ = ecx

; 107  : 	BOOL GetEntrancePermit(){return this->m_bEntrancePermit;}

  00000	55		 push	 ebp
  00001	8b ec		 mov	 ebp, esp
  00003	83 ec 44	 sub	 esp, 68			; 00000044H
  00006	53		 push	 ebx
  00007	56		 push	 esi
  00008	57		 push	 edi
  00009	89 4d fc	 mov	 DWORD PTR _this$[ebp], ecx
  0000c	8b 45 fc	 mov	 eax, DWORD PTR _this$[ebp]
  0000f	8b 80 d0 01 00
	00		 mov	 eax, DWORD PTR [eax+464]
  00015	5f		 pop	 edi
  00016	5e		 pop	 esi
  00017	5b		 pop	 ebx
  00018	8b e5		 mov	 esp, ebp
  0001a	5d		 pop	 ebp
  0001b	c3		 ret	 0
?GetEntrancePermit@CKanturuBattleOfMaya@@QAEHXZ ENDP	; CKanturuBattleOfMaya::GetEntrancePermit
; Function compile flags: /Odtp /ZI
; File d:\projects\exteam6.3\source\gameserver\gameserver\kanturutowerofrefinement.h
_TEXT	ENDS
;	COMDAT ?GetEntrancePermit@CKanturuTowerOfRefinement@@QAEHXZ
_TEXT	SEGMENT
_this$ = -4						; size = 4
?GetEntrancePermit@CKanturuTowerOfRefinement@@QAEHXZ PROC ; CKanturuTowerOfRefinement::GetEntrancePermit, COMDAT
; _this$ = ecx

; 54   : 	BOOL GetEntrancePermit(){return this->m_bEntrancePermit;}

  00000	55		 push	 ebp
  00001	8b ec		 mov	 ebp, esp
  00003	83 ec 44	 sub	 esp, 68			; 00000044H
  00006	53		 push	 ebx
  00007	56		 push	 esi
  00008	57		 push	 edi
  00009	89 4d fc	 mov	 DWORD PTR _this$[ebp], ecx
  0000c	8b 45 fc	 mov	 eax, DWORD PTR _this$[ebp]
  0000f	8b 40 08	 mov	 eax, DWORD PTR [eax+8]
  00012	5f		 pop	 edi
  00013	5e		 pop	 esi
  00014	5b		 pop	 ebx
  00015	8b e5		 mov	 esp, ebp
  00017	5d		 pop	 ebp
  00018	c3		 ret	 0
?GetEntrancePermit@CKanturuTowerOfRefinement@@QAEHXZ ENDP ; CKanturuTowerOfRefinement::GetEntrancePermit
_TEXT	ENDS
PUBLIC	?IsUseTowerOfRefinement@CKanturuTowerOfRefinement@@QAEHXZ ; CKanturuTowerOfRefinement::IsUseTowerOfRefinement
PUBLIC	?CheckCanEnterKanturuBattle@CKanturu@@QAEHXZ	; CKanturu::CheckCanEnterKanturuBattle
; Function compile flags: /Odtp /ZI
; File d:\projects\exteam6.3\source\gameserver\gameserver\kanturu.cpp
_TEXT	SEGMENT
_this$ = -4						; size = 4
?CheckCanEnterKanturuBattle@CKanturu@@QAEHXZ PROC	; CKanturu::CheckCanEnterKanturuBattle
; _this$ = ecx

; 687  : {

  01e80	55		 push	 ebp
  01e81	8b ec		 mov	 ebp, esp
  01e83	83 ec 44	 sub	 esp, 68			; 00000044H
  01e86	53		 push	 ebx
  01e87	56		 push	 esi
  01e88	57		 push	 edi
  01e89	89 4d fc	 mov	 DWORD PTR _this$[ebp], ecx

; 688  : 	if ( this->GetKanturuState() == KANTURU_STATE_BATTLE_OF_MAYA &&
; 689  : 		 this->m_BattleOfMaya.GetEntrancePermit() == TRUE )

  01e8c	8b 4d fc	 mov	 ecx, DWORD PTR _this$[ebp]
  01e8f	e8 00 00 00 00	 call	 ?GetKanturuState@CKanturu@@QAEHXZ ; CKanturu::GetKanturuState
  01e94	83 f8 02	 cmp	 eax, 2
  01e97	75 1a		 jne	 SHORT $LN2@CheckCanEn
  01e99	8b 4d fc	 mov	 ecx, DWORD PTR _this$[ebp]
  01e9c	81 c1 f4 00 00
	00		 add	 ecx, 244		; 000000f4H
  01ea2	e8 00 00 00 00	 call	 ?GetEntrancePermit@CKanturuBattleOfMaya@@QAEHXZ ; CKanturuBattleOfMaya::GetEntrancePermit
  01ea7	83 f8 01	 cmp	 eax, 1
  01eaa	75 07		 jne	 SHORT $LN2@CheckCanEn

; 690  : 	{
; 691  : 		return TRUE;

  01eac	b8 01 00 00 00	 mov	 eax, 1
  01eb1	eb 3c		 jmp	 SHORT $LN3@CheckCanEn
$LN2@CheckCanEn:

; 692  : 	}
; 693  : 
; 694  : 	if ( this->GetKanturuState() == KANTURU_STATE_TOWER_OF_REFINEMENT &&
; 695  : 		 this->m_TowerOfRefinement.GetEntrancePermit() == TRUE &&
; 696  : 		 this->m_TowerOfRefinement.IsUseTowerOfRefinement() == TRUE)

  01eb3	8b 4d fc	 mov	 ecx, DWORD PTR _this$[ebp]
  01eb6	e8 00 00 00 00	 call	 ?GetKanturuState@CKanturu@@QAEHXZ ; CKanturu::GetKanturuState
  01ebb	83 f8 04	 cmp	 eax, 4
  01ebe	75 2d		 jne	 SHORT $LN1@CheckCanEn
  01ec0	8b 4d fc	 mov	 ecx, DWORD PTR _this$[ebp]
  01ec3	81 c1 b4 03 00
	00		 add	 ecx, 948		; 000003b4H
  01ec9	e8 00 00 00 00	 call	 ?GetEntrancePermit@CKanturuTowerOfRefinement@@QAEHXZ ; CKanturuTowerOfRefinement::GetEntrancePermit
  01ece	83 f8 01	 cmp	 eax, 1
  01ed1	75 1a		 jne	 SHORT $LN1@CheckCanEn
  01ed3	8b 4d fc	 mov	 ecx, DWORD PTR _this$[ebp]
  01ed6	81 c1 b4 03 00
	00		 add	 ecx, 948		; 000003b4H
  01edc	e8 00 00 00 00	 call	 ?IsUseTowerOfRefinement@CKanturuTowerOfRefinement@@QAEHXZ ; CKanturuTowerOfRefinement::IsUseTowerOfRefinement
  01ee1	83 f8 01	 cmp	 eax, 1
  01ee4	75 07		 jne	 SHORT $LN1@CheckCanEn

; 697  : 	{
; 698  : 		return TRUE;

  01ee6	b8 01 00 00 00	 mov	 eax, 1
  01eeb	eb 02		 jmp	 SHORT $LN3@CheckCanEn
$LN1@CheckCanEn:

; 699  : 	}
; 700  : 
; 701  : 	return FALSE;

  01eed	33 c0		 xor	 eax, eax
$LN3@CheckCanEn:

; 702  : }

  01eef	5f		 pop	 edi
  01ef0	5e		 pop	 esi
  01ef1	5b		 pop	 ebx
  01ef2	8b e5		 mov	 esp, ebp
  01ef4	5d		 pop	 ebp
  01ef5	c3		 ret	 0
?CheckCanEnterKanturuBattle@CKanturu@@QAEHXZ ENDP	; CKanturu::CheckCanEnterKanturuBattle
; Function compile flags: /Odtp /ZI
; File d:\projects\exteam6.3\source\gameserver\gameserver\kanturutowerofrefinement.h
_TEXT	ENDS
;	COMDAT ?IsUseTowerOfRefinement@CKanturuTowerOfRefinement@@QAEHXZ
_TEXT	SEGMENT
_this$ = -4						; size = 4
?IsUseTowerOfRefinement@CKanturuTowerOfRefinement@@QAEHXZ PROC ; CKanturuTowerOfRefinement::IsUseTowerOfRefinement, COMDAT
; _this$ = ecx

; 56   : 	BOOL IsUseTowerOfRefinement(){return this->m_bIsUseTowerOfRefinement;}

  00000	55		 push	 ebp
  00001	8b ec		 mov	 ebp, esp
  00003	83 ec 44	 sub	 esp, 68			; 00000044H
  00006	53		 push	 ebx
  00007	56		 push	 esi
  00008	57		 push	 edi
  00009	89 4d fc	 mov	 DWORD PTR _this$[ebp], ecx
  0000c	8b 45 fc	 mov	 eax, DWORD PTR _this$[ebp]
  0000f	8b 40 0c	 mov	 eax, DWORD PTR [eax+12]
  00012	5f		 pop	 edi
  00013	5e		 pop	 esi
  00014	5b		 pop	 ebx
  00015	8b e5		 mov	 esp, ebp
  00017	5d		 pop	 ebp
  00018	c3		 ret	 0
?IsUseTowerOfRefinement@CKanturuTowerOfRefinement@@QAEHXZ ENDP ; CKanturuTowerOfRefinement::IsUseTowerOfRefinement
_TEXT	ENDS
PUBLIC	?GetEnableCheckMoonStone@CKanturu@@QAEHXZ	; CKanturu::GetEnableCheckMoonStone
EXTRN	?IsItem@CItem@@QAEHXZ:PROC			; CItem::IsItem
; Function compile flags: /Odtp /ZI
; File d:\projects\exteam6.3\source\gameserver\gameserver\kanturu.cpp
_TEXT	SEGMENT
_this$ = -4						; size = 4
_iUserIndex$ = 8					; size = 4
?CheckEqipmentMoonStone@CKanturu@@QAEHH@Z PROC		; CKanturu::CheckEqipmentMoonStone
; _this$ = ecx

; 706  : {

  01f00	55		 push	 ebp
  01f01	8b ec		 mov	 ebp, esp
  01f03	83 ec 44	 sub	 esp, 68			; 00000044H
  01f06	53		 push	 ebx
  01f07	56		 push	 esi
  01f08	57		 push	 edi
  01f09	89 4d fc	 mov	 DWORD PTR _this$[ebp], ecx

; 707  : 	if ( !this->GetEnableCheckMoonStone() )

  01f0c	8b 4d fc	 mov	 ecx, DWORD PTR _this$[ebp]
  01f0f	e8 00 00 00 00	 call	 ?GetEnableCheckMoonStone@CKanturu@@QAEHXZ ; CKanturu::GetEnableCheckMoonStone
  01f14	85 c0		 test	 eax, eax
  01f16	75 0a		 jne	 SHORT $LN5@CheckEqipm

; 708  : 		return TRUE;

  01f18	b8 01 00 00 00	 mov	 eax, 1
  01f1d	e9 f4 00 00 00	 jmp	 $LN6@CheckEqipm
$LN5@CheckEqipm:

; 709  : 
; 710  : 	if ( gObj[iUserIndex].pInventory[10].IsItem() ||
; 711  : 		 gObj[iUserIndex].pInventory[11].IsItem() )	

  01f22	8b 45 08	 mov	 eax, DWORD PTR _iUserIndex$[ebp]
  01f25	69 c0 38 2b 00
	00		 imul	 eax, 11064		; 00002b38H
  01f2b	8b 0d 00 00 00
	00		 mov	 ecx, DWORD PTR ?gObj@@3PAUOBJECTSTRUCT@@A ; gObj
  01f31	8b 8c 01 24 0e
	00 00		 mov	 ecx, DWORD PTR [ecx+eax+3620]
  01f38	81 c1 48 08 00
	00		 add	 ecx, 2120		; 00000848H
  01f3e	e8 00 00 00 00	 call	 ?IsItem@CItem@@QAEHXZ	; CItem::IsItem
  01f43	85 c0		 test	 eax, eax
  01f45	75 29		 jne	 SHORT $LN3@CheckEqipm
  01f47	8b 45 08	 mov	 eax, DWORD PTR _iUserIndex$[ebp]
  01f4a	69 c0 38 2b 00
	00		 imul	 eax, 11064		; 00002b38H
  01f50	8b 0d 00 00 00
	00		 mov	 ecx, DWORD PTR ?gObj@@3PAUOBJECTSTRUCT@@A ; gObj
  01f56	8b 8c 01 24 0e
	00 00		 mov	 ecx, DWORD PTR [ecx+eax+3620]
  01f5d	81 c1 1c 09 00
	00		 add	 ecx, 2332		; 0000091cH
  01f63	e8 00 00 00 00	 call	 ?IsItem@CItem@@QAEHXZ	; CItem::IsItem
  01f68	85 c0		 test	 eax, eax
  01f6a	0f 84 a4 00 00
	00		 je	 $LN1@CheckEqipm
$LN3@CheckEqipm:

; 712  : 	{
; 713  : 		if ( gObj[iUserIndex].pInventory[10].m_Type == ITEMGET(13,38) &&
; 714  : 			 gObj[iUserIndex].pInventory[10].m_Durability != 0.0f )

  01f70	8b 45 08	 mov	 eax, DWORD PTR _iUserIndex$[ebp]
  01f73	69 c0 38 2b 00
	00		 imul	 eax, 11064		; 00002b38H
  01f79	8b 0d 00 00 00
	00		 mov	 ecx, DWORD PTR ?gObj@@3PAUOBJECTSTRUCT@@A ; gObj
  01f7f	8b 94 01 24 0e
	00 00		 mov	 edx, DWORD PTR [ecx+eax+3620]
  01f86	0f bf 82 4e 08
	00 00		 movsx	 eax, WORD PTR [edx+2126]
  01f8d	3d 26 1a 00 00	 cmp	 eax, 6694		; 00001a26H
  01f92	75 2e		 jne	 SHORT $LN2@CheckEqipm
  01f94	8b 45 08	 mov	 eax, DWORD PTR _iUserIndex$[ebp]
  01f97	69 c0 38 2b 00
	00		 imul	 eax, 11064		; 00002b38H
  01f9d	8b 0d 00 00 00
	00		 mov	 ecx, DWORD PTR ?gObj@@3PAUOBJECTSTRUCT@@A ; gObj
  01fa3	8b 94 01 24 0e
	00 00		 mov	 edx, DWORD PTR [ecx+eax+3620]
  01faa	d9 82 6c 08 00
	00		 fld	 DWORD PTR [edx+2156]
  01fb0	d9 ee		 fldz
  01fb2	da e9		 fucompp
  01fb4	df e0		 fnstsw	 ax
  01fb6	f6 c4 44	 test	 ah, 68			; 00000044H
  01fb9	7b 07		 jnp	 SHORT $LN2@CheckEqipm

; 715  : 		{
; 716  : 			return TRUE;

  01fbb	b8 01 00 00 00	 mov	 eax, 1
  01fc0	eb 54		 jmp	 SHORT $LN6@CheckEqipm
$LN2@CheckEqipm:

; 717  : 		}
; 718  : 
; 719  : 		if ( gObj[iUserIndex].pInventory[11].m_Type == ITEMGET(13,38) &&
; 720  : 			 gObj[iUserIndex].pInventory[11].m_Durability != 0.0f )

  01fc2	8b 45 08	 mov	 eax, DWORD PTR _iUserIndex$[ebp]
  01fc5	69 c0 38 2b 00
	00		 imul	 eax, 11064		; 00002b38H
  01fcb	8b 0d 00 00 00
	00		 mov	 ecx, DWORD PTR ?gObj@@3PAUOBJECTSTRUCT@@A ; gObj
  01fd1	8b 94 01 24 0e
	00 00		 mov	 edx, DWORD PTR [ecx+eax+3620]
  01fd8	0f bf 82 22 09
	00 00		 movsx	 eax, WORD PTR [edx+2338]
  01fdf	3d 26 1a 00 00	 cmp	 eax, 6694		; 00001a26H
  01fe4	75 2e		 jne	 SHORT $LN1@CheckEqipm
  01fe6	8b 45 08	 mov	 eax, DWORD PTR _iUserIndex$[ebp]
  01fe9	69 c0 38 2b 00
	00		 imul	 eax, 11064		; 00002b38H
  01fef	8b 0d 00 00 00
	00		 mov	 ecx, DWORD PTR ?gObj@@3PAUOBJECTSTRUCT@@A ; gObj
  01ff5	8b 94 01 24 0e
	00 00		 mov	 edx, DWORD PTR [ecx+eax+3620]
  01ffc	d9 82 40 09 00
	00		 fld	 DWORD PTR [edx+2368]
  02002	d9 ee		 fldz
  02004	da e9		 fucompp
  02006	df e0		 fnstsw	 ax
  02008	f6 c4 44	 test	 ah, 68			; 00000044H
  0200b	7b 07		 jnp	 SHORT $LN1@CheckEqipm

; 721  : 		{
; 722  : 			return TRUE;

  0200d	b8 01 00 00 00	 mov	 eax, 1
  02012	eb 02		 jmp	 SHORT $LN6@CheckEqipm
$LN1@CheckEqipm:

; 723  : 		}
; 724  : 	}
; 725  : 
; 726  : 	return FALSE;

  02014	33 c0		 xor	 eax, eax
$LN6@CheckEqipm:

; 727  : }

  02016	5f		 pop	 edi
  02017	5e		 pop	 esi
  02018	5b		 pop	 ebx
  02019	8b e5		 mov	 esp, ebp
  0201b	5d		 pop	 ebp
  0201c	c2 04 00	 ret	 4
?CheckEqipmentMoonStone@CKanturu@@QAEHH@Z ENDP		; CKanturu::CheckEqipmentMoonStone
; Function compile flags: /Odtp /ZI
; File d:\projects\exteam6.3\source\gameserver\gameserver\kanturu.h
_TEXT	ENDS
;	COMDAT ?GetEnableCheckMoonStone@CKanturu@@QAEHXZ
_TEXT	SEGMENT
_this$ = -4						; size = 4
?GetEnableCheckMoonStone@CKanturu@@QAEHXZ PROC		; CKanturu::GetEnableCheckMoonStone, COMDAT
; _this$ = ecx

; 81   : 	int GetEnableCheckMoonStone(){return this->m_bEnableCheckMoonStone;}

  00000	55		 push	 ebp
  00001	8b ec		 mov	 ebp, esp
  00003	83 ec 44	 sub	 esp, 68			; 00000044H
  00006	53		 push	 ebx
  00007	56		 push	 esi
  00008	57		 push	 edi
  00009	89 4d fc	 mov	 DWORD PTR _this$[ebp], ecx
  0000c	8b 45 fc	 mov	 eax, DWORD PTR _this$[ebp]
  0000f	8b 80 b4 7f 0a
	00		 mov	 eax, DWORD PTR [eax+688052]
  00015	5f		 pop	 edi
  00016	5e		 pop	 esi
  00017	5b		 pop	 ebx
  00018	8b e5		 mov	 esp, ebp
  0001a	5d		 pop	 ebp
  0001b	c3		 ret	 0
?GetEnableCheckMoonStone@CKanturu@@QAEHXZ ENDP		; CKanturu::GetEnableCheckMoonStone
_TEXT	ENDS
PUBLIC	?OperateGmCommand@CKanturu@@QAEXHH@Z		; CKanturu::OperateGmCommand
; Function compile flags: /Odtp /ZI
; File d:\projects\exteam6.3\source\gameserver\gameserver\kanturu.cpp
_TEXT	SEGMENT
_this$ = -4						; size = 4
_iUserIndex$ = 8					; size = 4
_iCommand$ = 12						; size = 4
?OperateGmCommand@CKanturu@@QAEXHH@Z PROC		; CKanturu::OperateGmCommand
; _this$ = ecx

; 732  : {

  02020	55		 push	 ebp
  02021	8b ec		 mov	 ebp, esp
  02023	83 ec 54	 sub	 esp, 84			; 00000054H
  02026	53		 push	 ebx
  02027	56		 push	 esi
  02028	57		 push	 edi
  02029	89 4d fc	 mov	 DWORD PTR _this$[ebp], ecx

; 733  : 	return;
; 734  : 	{
; 735  : 		int iCurrentState[3];///???
; 736  : 	}
; 737  : }

  0202c	5f		 pop	 edi
  0202d	5e		 pop	 esi
  0202e	5b		 pop	 ebx
  0202f	8b e5		 mov	 esp, ebp
  02031	5d		 pop	 ebp
  02032	c2 08 00	 ret	 8
?OperateGmCommand@CKanturu@@QAEXHH@Z ENDP		; CKanturu::OperateGmCommand
_TEXT	ENDS
PUBLIC	??_C@_0JF@OOPLGNOC@?$FL?5KANTURU?5?$FN?$FL?5Debug?5?$FN?54?4?5Monster?5@ ; `string'
PUBLIC	??_C@_0CM@GBCOKBMF@?$FL?5KANTURU?5?$FN?$FL?5Debug?5?$FN?53?4?5MonsterM@ ; `string'
PUBLIC	?GetAliveMonsterCount@CKanturuMonsterMng@@QAEHXZ ; CKanturuMonsterMng::GetAliveMonsterCount
PUBLIC	??_C@_0DD@MEDIMLGL@?$FL?5KANTURU?5?$FN?$FL?5Debug?5?$FN?52?4?5All?5User@ ; `string'
PUBLIC	?UserMonsterCountCheck@CKanturu@@QAEXXZ		; CKanturu::UserMonsterCountCheck
EXTRN	?Output@CLogToFile@@QAAXPADZZ:PROC		; CLogToFile::Output
;	COMDAT ??_C@_0JF@OOPLGNOC@?$FL?5KANTURU?5?$FN?$FL?5Debug?5?$FN?54?4?5Monster?5@
CONST	SEGMENT
??_C@_0JF@OOPLGNOC@?$FL?5KANTURU?5?$FN?$FL?5Debug?5?$FN?54?4?5Monster?5@ DB '['
	DB	' KANTURU ][ Debug ] 4. Monster Info %s(%d/ObjIndex:%d) [%d]%d'
	DB	'-%d HP:%0.1f IsAlive:%d Connected:%d State:%d ActState:Attack'
	DB	'(%d)/Move(%d) DieRegen:%d', 00H		; `string'
CONST	ENDS
;	COMDAT ??_C@_0CM@GBCOKBMF@?$FL?5KANTURU?5?$FN?$FL?5Debug?5?$FN?53?4?5MonsterM@
CONST	SEGMENT
??_C@_0CM@GBCOKBMF@?$FL?5KANTURU?5?$FN?$FL?5Debug?5?$FN?53?4?5MonsterM@ DB '['
	DB	' KANTURU ][ Debug ] 3. MonsterMng Count:%d', 00H ; `string'
CONST	ENDS
;	COMDAT ??_C@_0DD@MEDIMLGL@?$FL?5KANTURU?5?$FN?$FL?5Debug?5?$FN?52?4?5All?5User@
CONST	SEGMENT
??_C@_0DD@MEDIMLGL@?$FL?5KANTURU?5?$FN?$FL?5Debug?5?$FN?52?4?5All?5User@ DB '['
	DB	' KANTURU ][ Debug ] 2. All User Check:%d/(Die:%d)', 00H ; `string'
; Function compile flags: /Odtp /ZI
CONST	ENDS
_TEXT	SEGMENT
_iAllMonsterCount$228300 = -24				; size = 4
_iMonsterCount$ = -20					; size = 4
_iAllUserCount$228290 = -16				; size = 4
_iUserCount_Die$ = -12					; size = 4
_iUserCount_Live$ = -8					; size = 4
_this$ = -4						; size = 4
?UserMonsterCountCheck@CKanturu@@QAEXXZ PROC		; CKanturu::UserMonsterCountCheck
; _this$ = ecx

; 747  : {

  02040	55		 push	 ebp
  02041	8b ec		 mov	 ebp, esp
  02043	83 ec 58	 sub	 esp, 88			; 00000058H
  02046	53		 push	 ebx
  02047	56		 push	 esi
  02048	57		 push	 edi
  02049	89 4d fc	 mov	 DWORD PTR _this$[ebp], ecx

; 748  : 	return;

  0204c	e9 14 03 00 00	 jmp	 $LN12@UserMonste

; 749  : 
; 750  : 	int iUserCount_Live = 0;

  02051	c7 45 f8 00 00
	00 00		 mov	 DWORD PTR _iUserCount_Live$[ebp], 0

; 751  : 	int iUserCount_Die = 0;

  02058	c7 45 f4 00 00
	00 00		 mov	 DWORD PTR _iUserCount_Die$[ebp], 0

; 752  : 	for ( int iAllUserCount=OBJ_STARTUSERINDEX;iAllUserCount<OBJMAX;iAllUserCount++)

  0205f	c7 45 f0 b0 36
	00 00		 mov	 DWORD PTR _iAllUserCount$228290[ebp], 14000 ; 000036b0H
  02066	eb 09		 jmp	 SHORT $LN11@UserMonste
$LN10@UserMonste:
  02068	8b 45 f0	 mov	 eax, DWORD PTR _iAllUserCount$228290[ebp]
  0206b	83 c0 01	 add	 eax, 1
  0206e	89 45 f0	 mov	 DWORD PTR _iAllUserCount$228290[ebp], eax
$LN11@UserMonste:
  02071	81 7d f0 98 3a
	00 00		 cmp	 DWORD PTR _iAllUserCount$228290[ebp], 15000 ; 00003a98H
  02078	0f 8d 82 00 00
	00		 jge	 $LN9@UserMonste

; 753  : 	{
; 754  : 		if ( gObj[iAllUserCount].MapNumber == MAP_INDEX_KANTURU_BOSS &&
; 755  : 			 gObj[iAllUserCount].Type == OBJ_USER &&
; 756  : 			 (gObj[iAllUserCount].Authority&2) != 2 )

  0207e	8b 45 f0	 mov	 eax, DWORD PTR _iAllUserCount$228290[ebp]
  02081	69 c0 38 2b 00
	00		 imul	 eax, 11064		; 00002b38H
  02087	8b 0d 00 00 00
	00		 mov	 ecx, DWORD PTR ?gObj@@3PAUOBJECTSTRUCT@@A ; gObj
  0208d	0f b6 94 01 49
	01 00 00	 movzx	 edx, BYTE PTR [ecx+eax+329]
  02095	83 fa 27	 cmp	 edx, 39			; 00000027H
  02098	75 61		 jne	 SHORT $LN6@UserMonste
  0209a	8b 45 f0	 mov	 eax, DWORD PTR _iAllUserCount$228290[ebp]
  0209d	69 c0 38 2b 00
	00		 imul	 eax, 11064		; 00002b38H
  020a3	8b 0d 00 00 00
	00		 mov	 ecx, DWORD PTR ?gObj@@3PAUOBJECTSTRUCT@@A ; gObj
  020a9	0f b7 54 01 68	 movzx	 edx, WORD PTR [ecx+eax+104]
  020ae	83 fa 01	 cmp	 edx, 1
  020b1	75 48		 jne	 SHORT $LN6@UserMonste
  020b3	8b 45 f0	 mov	 eax, DWORD PTR _iAllUserCount$228290[ebp]
  020b6	69 c0 38 2b 00
	00		 imul	 eax, 11064		; 00002b38H
  020bc	8b 0d 00 00 00
	00		 mov	 ecx, DWORD PTR ?gObj@@3PAUOBJECTSTRUCT@@A ; gObj
  020c2	8b 94 01 0c 02
	00 00		 mov	 edx, DWORD PTR [ecx+eax+524]
  020c9	83 e2 02	 and	 edx, 2
  020cc	75 2d		 jne	 SHORT $LN6@UserMonste

; 757  : 		{
; 758  : 			if ( gObj[iAllUserCount].Live == TRUE )

  020ce	8b 45 f0	 mov	 eax, DWORD PTR _iAllUserCount$228290[ebp]
  020d1	69 c0 38 2b 00
	00		 imul	 eax, 11064		; 00002b38H
  020d7	8b 0d 00 00 00
	00		 mov	 ecx, DWORD PTR ?gObj@@3PAUOBJECTSTRUCT@@A ; gObj
  020dd	0f b6 54 01 6a	 movzx	 edx, BYTE PTR [ecx+eax+106]
  020e2	83 fa 01	 cmp	 edx, 1
  020e5	75 0b		 jne	 SHORT $LN7@UserMonste

; 759  : 			{
; 760  : 				iUserCount_Live++;

  020e7	8b 45 f8	 mov	 eax, DWORD PTR _iUserCount_Live$[ebp]
  020ea	83 c0 01	 add	 eax, 1
  020ed	89 45 f8	 mov	 DWORD PTR _iUserCount_Live$[ebp], eax

; 761  : 			}
; 762  : 			else

  020f0	eb 09		 jmp	 SHORT $LN6@UserMonste
$LN7@UserMonste:

; 763  : 			{
; 764  : 				iUserCount_Die++;

  020f2	8b 45 f4	 mov	 eax, DWORD PTR _iUserCount_Die$[ebp]
  020f5	83 c0 01	 add	 eax, 1
  020f8	89 45 f4	 mov	 DWORD PTR _iUserCount_Die$[ebp], eax
$LN6@UserMonste:

; 765  : 			}
; 766  : 		}
; 767  : 	}

  020fb	e9 68 ff ff ff	 jmp	 $LN10@UserMonste
$LN9@UserMonste:

; 768  : 
; 769  : 	KANTURU_TEST_LOG.Output("[ KANTURU ][ Debug ] 2. All User Check:%d/(Die:%d)", iUserCount_Live, iUserCount_Die);

  02100	8b 45 f4	 mov	 eax, DWORD PTR _iUserCount_Die$[ebp]
  02103	50		 push	 eax
  02104	8b 4d f8	 mov	 ecx, DWORD PTR _iUserCount_Live$[ebp]
  02107	51		 push	 ecx
  02108	68 00 00 00 00	 push	 OFFSET ??_C@_0DD@MEDIMLGL@?$FL?5KANTURU?5?$FN?$FL?5Debug?5?$FN?52?4?5All?5User@
  0210d	68 00 00 00 00	 push	 OFFSET ?KANTURU_TEST_LOG@@3VCLogToFile@@A ; KANTURU_TEST_LOG
  02112	e8 00 00 00 00	 call	 ?Output@CLogToFile@@QAAXPADZZ ; CLogToFile::Output
  02117	83 c4 10	 add	 esp, 16			; 00000010H

; 770  : 	KANTURU_TEST_LOG.Output("[ KANTURU ][ Debug ] 3. MonsterMng Count:%d", g_KanturuMonsterMng.GetAliveMonsterCount());

  0211a	b9 00 00 00 00	 mov	 ecx, OFFSET ?g_KanturuMonsterMng@@3VCKanturuMonsterMng@@A ; g_KanturuMonsterMng
  0211f	e8 00 00 00 00	 call	 ?GetAliveMonsterCount@CKanturuMonsterMng@@QAEHXZ ; CKanturuMonsterMng::GetAliveMonsterCount
  02124	50		 push	 eax
  02125	68 00 00 00 00	 push	 OFFSET ??_C@_0CM@GBCOKBMF@?$FL?5KANTURU?5?$FN?$FL?5Debug?5?$FN?53?4?5MonsterM@
  0212a	68 00 00 00 00	 push	 OFFSET ?KANTURU_TEST_LOG@@3VCLogToFile@@A ; KANTURU_TEST_LOG
  0212f	e8 00 00 00 00	 call	 ?Output@CLogToFile@@QAAXPADZZ ; CLogToFile::Output
  02134	83 c4 0c	 add	 esp, 12			; 0000000cH

; 771  : 
; 772  : 	int iMonsterCount=0;

  02137	c7 45 ec 00 00
	00 00		 mov	 DWORD PTR _iMonsterCount$[ebp], 0

; 773  : 
; 774  : 	for ( int iAllMonsterCount=0;iAllMonsterCount<OBJ_STARTUSERINDEX;iAllMonsterCount++)

  0213e	c7 45 e8 00 00
	00 00		 mov	 DWORD PTR _iAllMonsterCount$228300[ebp], 0
  02145	eb 09		 jmp	 SHORT $LN5@UserMonste
$LN4@UserMonste:
  02147	8b 45 e8	 mov	 eax, DWORD PTR _iAllMonsterCount$228300[ebp]
  0214a	83 c0 01	 add	 eax, 1
  0214d	89 45 e8	 mov	 DWORD PTR _iAllMonsterCount$228300[ebp], eax
$LN5@UserMonste:
  02150	81 7d e8 b0 36
	00 00		 cmp	 DWORD PTR _iAllMonsterCount$228300[ebp], 14000 ; 000036b0H
  02157	0f 8d 08 02 00
	00		 jge	 $LN3@UserMonste

; 775  : 	{
; 776  : 		if ( gObj[iAllMonsterCount].MapNumber == MAP_INDEX_KANTURU_BOSS &&
; 777  : 			 gObj[iAllMonsterCount].Connected == PLAYER_PLAYING &&
; 778  : 			 gObj[iAllMonsterCount].Type == OBJ_MONSTER )

  0215d	8b 45 e8	 mov	 eax, DWORD PTR _iAllMonsterCount$228300[ebp]
  02160	69 c0 38 2b 00
	00		 imul	 eax, 11064		; 00002b38H
  02166	8b 0d 00 00 00
	00		 mov	 ecx, DWORD PTR ?gObj@@3PAUOBJECTSTRUCT@@A ; gObj
  0216c	0f b6 94 01 49
	01 00 00	 movzx	 edx, BYTE PTR [ecx+eax+329]
  02174	83 fa 27	 cmp	 edx, 39			; 00000027H
  02177	0f 85 e3 01 00
	00		 jne	 $LN1@UserMonste
  0217d	8b 45 e8	 mov	 eax, DWORD PTR _iAllMonsterCount$228300[ebp]
  02180	69 c0 38 2b 00
	00		 imul	 eax, 11064		; 00002b38H
  02186	8b 0d 00 00 00
	00		 mov	 ecx, DWORD PTR ?gObj@@3PAUOBJECTSTRUCT@@A ; gObj
  0218c	83 7c 01 04 03	 cmp	 DWORD PTR [ecx+eax+4], 3
  02191	0f 85 c9 01 00
	00		 jne	 $LN1@UserMonste
  02197	8b 45 e8	 mov	 eax, DWORD PTR _iAllMonsterCount$228300[ebp]
  0219a	69 c0 38 2b 00
	00		 imul	 eax, 11064		; 00002b38H
  021a0	8b 0d 00 00 00
	00		 mov	 ecx, DWORD PTR ?gObj@@3PAUOBJECTSTRUCT@@A ; gObj
  021a6	0f b7 54 01 68	 movzx	 edx, WORD PTR [ecx+eax+104]
  021ab	83 fa 02	 cmp	 edx, 2
  021ae	0f 85 ac 01 00
	00		 jne	 $LN1@UserMonste

; 779  : 		{
; 780  : 			if ( gObj[iAllMonsterCount].Class != 105 &&
; 781  : 				 gObj[iAllMonsterCount].Class != 106 &&
; 782  : 				 gObj[iAllMonsterCount].Class != 364 )

  021b4	8b 45 e8	 mov	 eax, DWORD PTR _iAllMonsterCount$228300[ebp]
  021b7	69 c0 38 2b 00
	00		 imul	 eax, 11064		; 00002b38H
  021bd	8b 0d 00 00 00
	00		 mov	 ecx, DWORD PTR ?gObj@@3PAUOBJECTSTRUCT@@A ; gObj
  021c3	0f b7 94 01 b8
	00 00 00	 movzx	 edx, WORD PTR [ecx+eax+184]
  021cb	83 fa 69	 cmp	 edx, 105		; 00000069H
  021ce	0f 84 8c 01 00
	00		 je	 $LN1@UserMonste
  021d4	8b 45 e8	 mov	 eax, DWORD PTR _iAllMonsterCount$228300[ebp]
  021d7	69 c0 38 2b 00
	00		 imul	 eax, 11064		; 00002b38H
  021dd	8b 0d 00 00 00
	00		 mov	 ecx, DWORD PTR ?gObj@@3PAUOBJECTSTRUCT@@A ; gObj
  021e3	0f b7 94 01 b8
	00 00 00	 movzx	 edx, WORD PTR [ecx+eax+184]
  021eb	83 fa 6a	 cmp	 edx, 106		; 0000006aH
  021ee	0f 84 6c 01 00
	00		 je	 $LN1@UserMonste
  021f4	8b 45 e8	 mov	 eax, DWORD PTR _iAllMonsterCount$228300[ebp]
  021f7	69 c0 38 2b 00
	00		 imul	 eax, 11064		; 00002b38H
  021fd	8b 0d 00 00 00
	00		 mov	 ecx, DWORD PTR ?gObj@@3PAUOBJECTSTRUCT@@A ; gObj
  02203	0f b7 94 01 b8
	00 00 00	 movzx	 edx, WORD PTR [ecx+eax+184]
  0220b	81 fa 6c 01 00
	00		 cmp	 edx, 364		; 0000016cH
  02211	0f 84 49 01 00
	00		 je	 $LN1@UserMonste

; 783  : 			{
; 784  : 				iMonsterCount++;

  02217	8b 45 ec	 mov	 eax, DWORD PTR _iMonsterCount$[ebp]
  0221a	83 c0 01	 add	 eax, 1
  0221d	89 45 ec	 mov	 DWORD PTR _iMonsterCount$[ebp], eax

; 785  : 
; 786  : 				KANTURU_TEST_LOG.Output("[ KANTURU ][ Debug ] 4. Monster Info %s(%d/ObjIndex:%d) [%d]%d-%d HP:%0.1f IsAlive:%d Connected:%d State:%d ActState:Attack(%d)/Move(%d) DieRegen:%d",
; 787  : 					gObj[iAllMonsterCount].Name, gObj[iAllMonsterCount].Class,
; 788  : 					gObj[iAllMonsterCount].m_Index, gObj[iAllMonsterCount].MapNumber,
; 789  : 					gObj[iAllMonsterCount].X, gObj[iAllMonsterCount].Y,
; 790  : 					gObj[iAllMonsterCount].Life, gObj[iAllMonsterCount].Live,
; 791  : 					gObj[iAllMonsterCount].Connected, gObj[iAllMonsterCount].m_State,
; 792  : 					gObj[iAllMonsterCount].m_ActState.Attack, gObj[iAllMonsterCount].m_ActState.Move,
; 793  : 					gObj[iAllMonsterCount].DieRegen);

  02220	8b 45 e8	 mov	 eax, DWORD PTR _iAllMonsterCount$228300[ebp]
  02223	69 c0 38 2b 00
	00		 imul	 eax, 11064		; 00002b38H
  02229	8b 0d 00 00 00
	00		 mov	 ecx, DWORD PTR ?gObj@@3PAUOBJECTSTRUCT@@A ; gObj
  0222f	0f be 94 01 a2
	03 00 00	 movsx	 edx, BYTE PTR [ecx+eax+930]
  02237	52		 push	 edx
  02238	8b 45 e8	 mov	 eax, DWORD PTR _iAllMonsterCount$228300[ebp]
  0223b	69 c0 38 2b 00
	00		 imul	 eax, 11064		; 00002b38H
  02241	8b 0d 00 00 00
	00		 mov	 ecx, DWORD PTR ?gObj@@3PAUOBJECTSTRUCT@@A ; gObj
  02247	8b 94 01 18 02
	00 00		 mov	 edx, DWORD PTR [ecx+eax+536]
  0224e	c1 ea 02	 shr	 edx, 2
  02251	83 e2 01	 and	 edx, 1
  02254	52		 push	 edx
  02255	8b 45 e8	 mov	 eax, DWORD PTR _iAllMonsterCount$228300[ebp]
  02258	69 c0 38 2b 00
	00		 imul	 eax, 11064		; 00002b38H
  0225e	8b 0d 00 00 00
	00		 mov	 ecx, DWORD PTR ?gObj@@3PAUOBJECTSTRUCT@@A ; gObj
  02264	8b 94 01 18 02
	00 00		 mov	 edx, DWORD PTR [ecx+eax+536]
  0226b	d1 ea		 shr	 edx, 1
  0226d	83 e2 01	 and	 edx, 1
  02270	52		 push	 edx
  02271	8b 45 e8	 mov	 eax, DWORD PTR _iAllMonsterCount$228300[ebp]
  02274	69 c0 38 2b 00
	00		 imul	 eax, 11064		; 00002b38H
  0227a	8b 0d 00 00 00
	00		 mov	 ecx, DWORD PTR ?gObj@@3PAUOBJECTSTRUCT@@A ; gObj
  02280	8b 94 01 20 02
	00 00		 mov	 edx, DWORD PTR [ecx+eax+544]
  02287	52		 push	 edx
  02288	8b 45 e8	 mov	 eax, DWORD PTR _iAllMonsterCount$228300[ebp]
  0228b	69 c0 38 2b 00
	00		 imul	 eax, 11064		; 00002b38H
  02291	8b 0d 00 00 00
	00		 mov	 ecx, DWORD PTR ?gObj@@3PAUOBJECTSTRUCT@@A ; gObj
  02297	8b 54 01 04	 mov	 edx, DWORD PTR [ecx+eax+4]
  0229b	52		 push	 edx
  0229c	8b 45 e8	 mov	 eax, DWORD PTR _iAllMonsterCount$228300[ebp]
  0229f	69 c0 38 2b 00
	00		 imul	 eax, 11064		; 00002b38H
  022a5	8b 0d 00 00 00
	00		 mov	 ecx, DWORD PTR ?gObj@@3PAUOBJECTSTRUCT@@A ; gObj
  022ab	0f b6 54 01 6a	 movzx	 edx, BYTE PTR [ecx+eax+106]
  022b0	52		 push	 edx
  022b1	8b 45 e8	 mov	 eax, DWORD PTR _iAllMonsterCount$228300[ebp]
  022b4	69 c0 38 2b 00
	00		 imul	 eax, 11064		; 00002b38H
  022ba	8b 0d 00 00 00
	00		 mov	 ecx, DWORD PTR ?gObj@@3PAUOBJECTSTRUCT@@A ; gObj
  022c0	d9 84 01 fc 00
	00 00		 fld	 DWORD PTR [ecx+eax+252]
  022c7	83 ec 08	 sub	 esp, 8
  022ca	dd 1c 24	 fstp	 QWORD PTR [esp]
  022cd	8b 55 e8	 mov	 edx, DWORD PTR _iAllMonsterCount$228300[ebp]
  022d0	69 d2 38 2b 00
	00		 imul	 edx, 11064		; 00002b38H
  022d6	a1 00 00 00 00	 mov	 eax, DWORD PTR ?gObj@@3PAUOBJECTSTRUCT@@A ; gObj
  022db	0f bf 8c 10 46
	01 00 00	 movsx	 ecx, WORD PTR [eax+edx+326]
  022e3	51		 push	 ecx
  022e4	8b 55 e8	 mov	 edx, DWORD PTR _iAllMonsterCount$228300[ebp]
  022e7	69 d2 38 2b 00
	00		 imul	 edx, 11064		; 00002b38H
  022ed	a1 00 00 00 00	 mov	 eax, DWORD PTR ?gObj@@3PAUOBJECTSTRUCT@@A ; gObj
  022f2	0f bf 8c 10 44
	01 00 00	 movsx	 ecx, WORD PTR [eax+edx+324]
  022fa	51		 push	 ecx
  022fb	8b 55 e8	 mov	 edx, DWORD PTR _iAllMonsterCount$228300[ebp]
  022fe	69 d2 38 2b 00
	00		 imul	 edx, 11064		; 00002b38H
  02304	a1 00 00 00 00	 mov	 eax, DWORD PTR ?gObj@@3PAUOBJECTSTRUCT@@A ; gObj
  02309	0f b6 8c 10 49
	01 00 00	 movzx	 ecx, BYTE PTR [eax+edx+329]
  02311	51		 push	 ecx
  02312	8b 55 e8	 mov	 edx, DWORD PTR _iAllMonsterCount$228300[ebp]
  02315	69 d2 38 2b 00
	00		 imul	 edx, 11064		; 00002b38H
  0231b	a1 00 00 00 00	 mov	 eax, DWORD PTR ?gObj@@3PAUOBJECTSTRUCT@@A ; gObj
  02320	8b 0c 10	 mov	 ecx, DWORD PTR [eax+edx]
  02323	51		 push	 ecx
  02324	8b 55 e8	 mov	 edx, DWORD PTR _iAllMonsterCount$228300[ebp]
  02327	69 d2 38 2b 00
	00		 imul	 edx, 11064		; 00002b38H
  0232d	a1 00 00 00 00	 mov	 eax, DWORD PTR ?gObj@@3PAUOBJECTSTRUCT@@A ; gObj
  02332	0f b7 8c 10 b8
	00 00 00	 movzx	 ecx, WORD PTR [eax+edx+184]
  0233a	51		 push	 ecx
  0233b	8b 55 e8	 mov	 edx, DWORD PTR _iAllMonsterCount$228300[ebp]
  0233e	69 d2 38 2b 00
	00		 imul	 edx, 11064		; 00002b38H
  02344	a1 00 00 00 00	 mov	 eax, DWORD PTR ?gObj@@3PAUOBJECTSTRUCT@@A ; gObj
  02349	8d 4c 10 77	 lea	 ecx, DWORD PTR [eax+edx+119]
  0234d	51		 push	 ecx
  0234e	68 00 00 00 00	 push	 OFFSET ??_C@_0JF@OOPLGNOC@?$FL?5KANTURU?5?$FN?$FL?5Debug?5?$FN?54?4?5Monster?5@
  02353	68 00 00 00 00	 push	 OFFSET ?KANTURU_TEST_LOG@@3VCLogToFile@@A ; KANTURU_TEST_LOG
  02358	e8 00 00 00 00	 call	 ?Output@CLogToFile@@QAAXPADZZ ; CLogToFile::Output
  0235d	83 c4 40	 add	 esp, 64			; 00000040H
$LN1@UserMonste:

; 794  : 			}
; 795  : 		}
; 796  : 	}

  02360	e9 e2 fd ff ff	 jmp	 $LN4@UserMonste
$LN3@UserMonste:
$LN12@UserMonste:

; 797  : }

  02365	5f		 pop	 edi
  02366	5e		 pop	 esi
  02367	5b		 pop	 ebx
  02368	8b e5		 mov	 esp, ebp
  0236a	5d		 pop	 ebp
  0236b	c3		 ret	 0
?UserMonsterCountCheck@CKanturu@@QAEXXZ ENDP		; CKanturu::UserMonsterCountCheck
; Function compile flags: /Odtp /ZI
; File d:\projects\exteam6.3\source\gameserver\gameserver\kanturumonstermng.h
_TEXT	ENDS
;	COMDAT ?GetAliveMonsterCount@CKanturuMonsterMng@@QAEHXZ
_TEXT	SEGMENT
_this$ = -4						; size = 4
?GetAliveMonsterCount@CKanturuMonsterMng@@QAEHXZ PROC	; CKanturuMonsterMng::GetAliveMonsterCount, COMDAT
; _this$ = ecx

; 48   : 	int GetAliveMonsterCount(){return this->m_iAliveMonsterCount;}

  00000	55		 push	 ebp
  00001	8b ec		 mov	 ebp, esp
  00003	83 ec 44	 sub	 esp, 68			; 00000044H
  00006	53		 push	 ebx
  00007	56		 push	 esi
  00008	57		 push	 edi
  00009	89 4d fc	 mov	 DWORD PTR _this$[ebp], ecx
  0000c	8b 45 fc	 mov	 eax, DWORD PTR _this$[ebp]
  0000f	8b 80 6c 14 00
	00		 mov	 eax, DWORD PTR [eax+5228]
  00015	5f		 pop	 edi
  00016	5e		 pop	 esi
  00017	5b		 pop	 ebx
  00018	8b e5		 mov	 esp, ebp
  0001a	5d		 pop	 ebp
  0001b	c3		 ret	 0
?GetAliveMonsterCount@CKanturuMonsterMng@@QAEHXZ ENDP	; CKanturuMonsterMng::GetAliveMonsterCount
_TEXT	ENDS
EXTRN	_atexit:PROC
EXTRN	??0CKanturuUtil@@QAE@XZ:PROC			; CKanturuUtil::CKanturuUtil
; Function compile flags: /Odtp /ZI
; File d:\projects\exteam6.3\source\gameserver\gameserver\kanturu.cpp
;	COMDAT ??__EKANTURU_UTIL@@YAXXZ
text$yc	SEGMENT
??__EKANTURU_UTIL@@YAXXZ PROC				; `dynamic initializer for 'KANTURU_UTIL'', COMDAT

; 14   : static CKanturuUtil KANTURU_UTIL;

  00000	55		 push	 ebp
  00001	8b ec		 mov	 ebp, esp
  00003	83 ec 40	 sub	 esp, 64			; 00000040H
  00006	53		 push	 ebx
  00007	56		 push	 esi
  00008	57		 push	 edi
  00009	b9 00 00 00 00	 mov	 ecx, OFFSET _KANTURU_UTIL
  0000e	e8 00 00 00 00	 call	 ??0CKanturuUtil@@QAE@XZ	; CKanturuUtil::CKanturuUtil
  00013	68 00 00 00 00	 push	 OFFSET ??__FKANTURU_UTIL@@YAXXZ ; `dynamic atexit destructor for 'KANTURU_UTIL''
  00018	e8 00 00 00 00	 call	 _atexit
  0001d	83 c4 04	 add	 esp, 4
  00020	5f		 pop	 edi
  00021	5e		 pop	 esi
  00022	5b		 pop	 ebx
  00023	8b e5		 mov	 esp, ebp
  00025	5d		 pop	 ebp
  00026	c3		 ret	 0
??__EKANTURU_UTIL@@YAXXZ ENDP				; `dynamic initializer for 'KANTURU_UTIL''
; Function compile flags: /Odtp /ZI
text$yc	ENDS
;	COMDAT ??__Eg_Kanturu@@YAXXZ
text$yc	SEGMENT
??__Eg_Kanturu@@YAXXZ PROC				; `dynamic initializer for 'g_Kanturu'', COMDAT

; 15   : CKanturu g_Kanturu;

  00000	55		 push	 ebp
  00001	8b ec		 mov	 ebp, esp
  00003	83 ec 40	 sub	 esp, 64			; 00000040H
  00006	53		 push	 ebx
  00007	56		 push	 esi
  00008	57		 push	 edi
  00009	b9 00 00 00 00	 mov	 ecx, OFFSET ?g_Kanturu@@3VCKanturu@@A ; g_Kanturu
  0000e	e8 00 00 00 00	 call	 ??0CKanturu@@QAE@XZ	; CKanturu::CKanturu
  00013	68 00 00 00 00	 push	 OFFSET ??__Fg_Kanturu@@YAXXZ ; `dynamic atexit destructor for 'g_Kanturu''
  00018	e8 00 00 00 00	 call	 _atexit
  0001d	83 c4 04	 add	 esp, 4
  00020	5f		 pop	 edi
  00021	5e		 pop	 esi
  00022	5b		 pop	 ebx
  00023	8b e5		 mov	 esp, ebp
  00025	5d		 pop	 ebp
  00026	c3		 ret	 0
??__Eg_Kanturu@@YAXXZ ENDP				; `dynamic initializer for 'g_Kanturu''
text$yc	ENDS
PUBLIC	??_C@_0BB@KGGIBKID@KANTURU_TEST_LOG?$AA@	; `string'
PUBLIC	??_C@_0BD@IPKBBHKB@?4?2KANTURU_TEST_LOG?$AA@	; `string'
EXTRN	??0CLogToFile@@QAE@QAD0H@Z:PROC			; CLogToFile::CLogToFile
;	COMDAT ??_C@_0BB@KGGIBKID@KANTURU_TEST_LOG?$AA@
CONST	SEGMENT
??_C@_0BB@KGGIBKID@KANTURU_TEST_LOG?$AA@ DB 'KANTURU_TEST_LOG', 00H ; `string'
CONST	ENDS
;	COMDAT ??_C@_0BD@IPKBBHKB@?4?2KANTURU_TEST_LOG?$AA@
CONST	SEGMENT
??_C@_0BD@IPKBBHKB@?4?2KANTURU_TEST_LOG?$AA@ DB '.\KANTURU_TEST_LOG', 00H ; `string'
; Function compile flags: /Odtp /ZI
CONST	ENDS
;	COMDAT ??__EKANTURU_TEST_LOG@@YAXXZ
text$yc	SEGMENT
??__EKANTURU_TEST_LOG@@YAXXZ PROC			; `dynamic initializer for 'KANTURU_TEST_LOG'', COMDAT

; 742  : CLogToFile KANTURU_TEST_LOG("KANTURU_TEST_LOG", ".\\KANTURU_TEST_LOG", TRUE);

  00000	55		 push	 ebp
  00001	8b ec		 mov	 ebp, esp
  00003	83 ec 40	 sub	 esp, 64			; 00000040H
  00006	53		 push	 ebx
  00007	56		 push	 esi
  00008	57		 push	 edi
  00009	6a 01		 push	 1
  0000b	68 00 00 00 00	 push	 OFFSET ??_C@_0BD@IPKBBHKB@?4?2KANTURU_TEST_LOG?$AA@
  00010	68 00 00 00 00	 push	 OFFSET ??_C@_0BB@KGGIBKID@KANTURU_TEST_LOG?$AA@
  00015	b9 00 00 00 00	 mov	 ecx, OFFSET ?KANTURU_TEST_LOG@@3VCLogToFile@@A ; KANTURU_TEST_LOG
  0001a	e8 00 00 00 00	 call	 ??0CLogToFile@@QAE@QAD0H@Z ; CLogToFile::CLogToFile
  0001f	68 00 00 00 00	 push	 OFFSET ??__FKANTURU_TEST_LOG@@YAXXZ ; `dynamic atexit destructor for 'KANTURU_TEST_LOG''
  00024	e8 00 00 00 00	 call	 _atexit
  00029	83 c4 04	 add	 esp, 4
  0002c	5f		 pop	 edi
  0002d	5e		 pop	 esi
  0002e	5b		 pop	 ebx
  0002f	8b e5		 mov	 esp, ebp
  00031	5d		 pop	 ebp
  00032	c3		 ret	 0
??__EKANTURU_TEST_LOG@@YAXXZ ENDP			; `dynamic initializer for 'KANTURU_TEST_LOG''
text$yc	ENDS
EXTRN	??1CKanturuUtil@@UAE@XZ:PROC			; CKanturuUtil::~CKanturuUtil
; Function compile flags: /Odtp /ZI
;	COMDAT ??__FKANTURU_UTIL@@YAXXZ
text$yd	SEGMENT
??__FKANTURU_UTIL@@YAXXZ PROC				; `dynamic atexit destructor for 'KANTURU_UTIL'', COMDAT
  00000	55		 push	 ebp
  00001	8b ec		 mov	 ebp, esp
  00003	83 ec 40	 sub	 esp, 64			; 00000040H
  00006	53		 push	 ebx
  00007	56		 push	 esi
  00008	57		 push	 edi
  00009	b9 00 00 00 00	 mov	 ecx, OFFSET _KANTURU_UTIL
  0000e	e8 00 00 00 00	 call	 ??1CKanturuUtil@@UAE@XZ	; CKanturuUtil::~CKanturuUtil
  00013	5f		 pop	 edi
  00014	5e		 pop	 esi
  00015	5b		 pop	 ebx
  00016	8b e5		 mov	 esp, ebp
  00018	5d		 pop	 ebp
  00019	c3		 ret	 0
??__FKANTURU_UTIL@@YAXXZ ENDP				; `dynamic atexit destructor for 'KANTURU_UTIL''
; Function compile flags: /Odtp /ZI
text$yd	ENDS
;	COMDAT ??__Fg_Kanturu@@YAXXZ
text$yd	SEGMENT
??__Fg_Kanturu@@YAXXZ PROC				; `dynamic atexit destructor for 'g_Kanturu'', COMDAT
  00000	55		 push	 ebp
  00001	8b ec		 mov	 ebp, esp
  00003	83 ec 40	 sub	 esp, 64			; 00000040H
  00006	53		 push	 ebx
  00007	56		 push	 esi
  00008	57		 push	 edi
  00009	b9 00 00 00 00	 mov	 ecx, OFFSET ?g_Kanturu@@3VCKanturu@@A ; g_Kanturu
  0000e	e8 00 00 00 00	 call	 ??1CKanturu@@UAE@XZ	; CKanturu::~CKanturu
  00013	5f		 pop	 edi
  00014	5e		 pop	 esi
  00015	5b		 pop	 ebx
  00016	8b e5		 mov	 esp, ebp
  00018	5d		 pop	 ebp
  00019	c3		 ret	 0
??__Fg_Kanturu@@YAXXZ ENDP				; `dynamic atexit destructor for 'g_Kanturu''
text$yd	ENDS
EXTRN	??1CLogToFile@@QAE@XZ:PROC			; CLogToFile::~CLogToFile
; Function compile flags: /Odtp /ZI
;	COMDAT ??__FKANTURU_TEST_LOG@@YAXXZ
text$yd	SEGMENT
??__FKANTURU_TEST_LOG@@YAXXZ PROC			; `dynamic atexit destructor for 'KANTURU_TEST_LOG'', COMDAT
  00000	55		 push	 ebp
  00001	8b ec		 mov	 ebp, esp
  00003	83 ec 40	 sub	 esp, 64			; 00000040H
  00006	53		 push	 ebx
  00007	56		 push	 esi
  00008	57		 push	 edi
  00009	b9 00 00 00 00	 mov	 ecx, OFFSET ?KANTURU_TEST_LOG@@3VCLogToFile@@A ; KANTURU_TEST_LOG
  0000e	e8 00 00 00 00	 call	 ??1CLogToFile@@QAE@XZ	; CLogToFile::~CLogToFile
  00013	5f		 pop	 edi
  00014	5e		 pop	 esi
  00015	5b		 pop	 ebx
  00016	8b e5		 mov	 esp, ebp
  00018	5d		 pop	 ebp
  00019	c3		 ret	 0
??__FKANTURU_TEST_LOG@@YAXXZ ENDP			; `dynamic atexit destructor for 'KANTURU_TEST_LOG''
text$yd	ENDS
PUBLIC	?KANTURU_TEST_LOG@@3VCLogToFile@@A		; KANTURU_TEST_LOG
PUBLIC	?g_Kanturu@@3VCKanturu@@A			; g_Kanturu
_BSS	SEGMENT
?KANTURU_TEST_LOG@@3VCLogToFile@@A DB 010228H DUP (?)	; KANTURU_TEST_LOG
?g_Kanturu@@3VCKanturu@@A DB 0a7fb8H DUP (?)		; g_Kanturu
_KANTURU_UTIL DD 01H DUP (?)
_BSS	ENDS
CRT$XCU	SEGMENT
_KANTURU_UTIL$initializer$ DD FLAT:??__EKANTURU_UTIL@@YAXXZ
_g_Kanturu$initializer$ DD FLAT:??__Eg_Kanturu@@YAXXZ
_KANTURU_TEST_LOG$initializer$ DD FLAT:??__EKANTURU_TEST_LOG@@YAXXZ
CRT$XCU	ENDS
END
