; Listing generated by Microsoft (R) Optimizing Compiler Version 16.00.40219.01 

	TITLE	D:\Projects\ExTeam6.3\Source\GameServer\GameServer\KanturuUtil.cpp
	.686P
	.XMM
	include listing.inc
	.model	flat

INCLUDELIB LIBCMT
INCLUDELIB OLDNAMES

_DATA	SEGMENT
_g_iNpcUpDfLevel_CGATE DD 01H
	DD	02H
	DD	02dc6c0H
	DD	02H
	DD	03H
	DD	02dc6c0H
	DD	03H
	DD	04H
	DD	02dc6c0H
_g_iNpcUpDfLevel_CSTATUE DD 01H
	DD	03H
	DD	02dc6c0H
	DD	02H
	DD	05H
	DD	02dc6c0H
	DD	03H
	DD	07H
	DD	02dc6c0H
_g_iNpcUpMaxHP_CGATE DD 02625a0H
	DD	02H
	DD	0f4240H
	DD	03567e0H
	DD	03H
	DD	0f4240H
	DD	04f5880H
	DD	04H
	DD	0f4240H
_g_iNpcUpMaxHP_CSTATUE DD 02191c0H
	DD	03H
	DD	0f4240H
	DD	033e140H
	DD	05H
	DD	0f4240H
	DD	04c4b40H
	DD	07H
	DD	0f4240H
_g_iNpcUpRgLevel_CSTATUE DD 01H
	DD	03H
	DD	04c4b40H
	DD	02H
	DD	05H
	DD	04c4b40H
	DD	03H
	DD	07H
	DD	04c4b40H
_g_iCsUserReSpawnArea DD 023H
	DD	011H
	DD	090H
	DD	030H
	DD	04aH
	DD	090H
	DD	073H
	DD	09aH
	DD	023H
	DD	011H
	DD	090H
	DD	030H
_g_iNpcDefense_CGATE DD 064H
	DD	0b4H
	DD	012cH
	DD	0208H
_g_iNpcDefense_CSTATUE DD 050H
	DD	0b4H
	DD	0154H
	DD	0226H
_g_iCastleWallStepAxisY DD 071H
	DD	0a0H
	DD	0cbH
_DATA	ENDS
PUBLIC	??_H@YGXPAXIHP6EPAX0@Z@Z			; `vector constructor iterator'
; Function compile flags: /Odtp /ZI
;	COMDAT ??_H@YGXPAXIHP6EPAX0@Z@Z
_TEXT	SEGMENT
___t$ = 8						; size = 4
___s$ = 12						; size = 4
___n$ = 16						; size = 4
___f$ = 20						; size = 4
??_H@YGXPAXIHP6EPAX0@Z@Z PROC				; `vector constructor iterator', COMDAT
  00000	55		 push	 ebp
  00001	8b ec		 mov	 ebp, esp
  00003	83 ec 40	 sub	 esp, 64			; 00000040H
  00006	53		 push	 ebx
  00007	56		 push	 esi
  00008	57		 push	 edi
$LN2@vector:
  00009	8b 45 10	 mov	 eax, DWORD PTR ___n$[ebp]
  0000c	83 e8 01	 sub	 eax, 1
  0000f	89 45 10	 mov	 DWORD PTR ___n$[ebp], eax
  00012	78 11		 js	 SHORT $LN3@vector
  00014	8b 4d 08	 mov	 ecx, DWORD PTR ___t$[ebp]
  00017	ff 55 14	 call	 DWORD PTR ___f$[ebp]
  0001a	8b 45 08	 mov	 eax, DWORD PTR ___t$[ebp]
  0001d	03 45 0c	 add	 eax, DWORD PTR ___s$[ebp]
  00020	89 45 08	 mov	 DWORD PTR ___t$[ebp], eax
  00023	eb e4		 jmp	 SHORT $LN2@vector
$LN3@vector:
  00025	5f		 pop	 edi
  00026	5e		 pop	 esi
  00027	5b		 pop	 ebx
  00028	8b e5		 mov	 esp, ebp
  0002a	5d		 pop	 ebp
  0002b	c2 10 00	 ret	 16			; 00000010H
??_H@YGXPAXIHP6EPAX0@Z@Z ENDP				; `vector constructor iterator'
_TEXT	ENDS
PUBLIC	??_7CKanturuUtil@@6B@				; CKanturuUtil::`vftable'
PUBLIC	??0CKanturuUtil@@QAE@XZ				; CKanturuUtil::CKanturuUtil
PUBLIC	??_R4CKanturuUtil@@6B@				; CKanturuUtil::`RTTI Complete Object Locator'
PUBLIC	??_R0?AVCKanturuUtil@@@8			; CKanturuUtil `RTTI Type Descriptor'
PUBLIC	??_R3CKanturuUtil@@8				; CKanturuUtil::`RTTI Class Hierarchy Descriptor'
PUBLIC	??_R2CKanturuUtil@@8				; CKanturuUtil::`RTTI Base Class Array'
PUBLIC	??_R1A@?0A@EA@CKanturuUtil@@8			; CKanturuUtil::`RTTI Base Class Descriptor at (0,-1,0,64)'
EXTRN	??_7type_info@@6B@:QWORD			; type_info::`vftable'
EXTRN	??_ECKanturuUtil@@UAEPAXI@Z:PROC		; CKanturuUtil::`vector deleting destructor'
;	COMDAT ??_R1A@?0A@EA@CKanturuUtil@@8
; File d:\projects\exteam6.3\source\gameserver\gameserver\kanturuutil.cpp
rdata$r	SEGMENT
??_R1A@?0A@EA@CKanturuUtil@@8 DD FLAT:??_R0?AVCKanturuUtil@@@8 ; CKanturuUtil::`RTTI Base Class Descriptor at (0,-1,0,64)'
	DD	00H
	DD	00H
	DD	0ffffffffH
	DD	00H
	DD	040H
	DD	FLAT:??_R3CKanturuUtil@@8
rdata$r	ENDS
;	COMDAT ??_R2CKanturuUtil@@8
rdata$r	SEGMENT
??_R2CKanturuUtil@@8 DD FLAT:??_R1A@?0A@EA@CKanturuUtil@@8 ; CKanturuUtil::`RTTI Base Class Array'
rdata$r	ENDS
;	COMDAT ??_R3CKanturuUtil@@8
rdata$r	SEGMENT
??_R3CKanturuUtil@@8 DD 00H				; CKanturuUtil::`RTTI Class Hierarchy Descriptor'
	DD	00H
	DD	01H
	DD	FLAT:??_R2CKanturuUtil@@8
rdata$r	ENDS
;	COMDAT ??_R0?AVCKanturuUtil@@@8
_DATA	SEGMENT
??_R0?AVCKanturuUtil@@@8 DD FLAT:??_7type_info@@6B@	; CKanturuUtil `RTTI Type Descriptor'
	DD	00H
	DB	'.?AVCKanturuUtil@@', 00H
_DATA	ENDS
;	COMDAT ??_R4CKanturuUtil@@6B@
rdata$r	SEGMENT
??_R4CKanturuUtil@@6B@ DD 00H				; CKanturuUtil::`RTTI Complete Object Locator'
	DD	00H
	DD	00H
	DD	FLAT:??_R0?AVCKanturuUtil@@@8
	DD	FLAT:??_R3CKanturuUtil@@8
rdata$r	ENDS
;	COMDAT ??_7CKanturuUtil@@6B@
CONST	SEGMENT
??_7CKanturuUtil@@6B@ DD FLAT:??_R4CKanturuUtil@@6B@	; CKanturuUtil::`vftable'
	DD	FLAT:??_ECKanturuUtil@@UAEPAXI@Z
; Function compile flags: /Odtp /ZI
CONST	ENDS
_TEXT	SEGMENT
_this$ = -4						; size = 4
??0CKanturuUtil@@QAE@XZ PROC				; CKanturuUtil::CKanturuUtil
; _this$ = ecx

; 21   : {

  00000	55		 push	 ebp
  00001	8b ec		 mov	 ebp, esp
  00003	83 ec 44	 sub	 esp, 68			; 00000044H
  00006	53		 push	 ebx
  00007	56		 push	 esi
  00008	57		 push	 edi
  00009	89 4d fc	 mov	 DWORD PTR _this$[ebp], ecx
  0000c	8b 45 fc	 mov	 eax, DWORD PTR _this$[ebp]
  0000f	c7 00 00 00 00
	00		 mov	 DWORD PTR [eax], OFFSET ??_7CKanturuUtil@@6B@

; 22   : 	return;
; 23   : }

  00015	8b 45 fc	 mov	 eax, DWORD PTR _this$[ebp]
  00018	5f		 pop	 edi
  00019	5e		 pop	 esi
  0001a	5b		 pop	 ebx
  0001b	8b e5		 mov	 esp, ebp
  0001d	5d		 pop	 ebp
  0001e	c3		 ret	 0
??0CKanturuUtil@@QAE@XZ ENDP				; CKanturuUtil::CKanturuUtil
_TEXT	ENDS
PUBLIC	??1CKanturuUtil@@UAE@XZ				; CKanturuUtil::~CKanturuUtil
EXTRN	??3@YAXPAX@Z:PROC				; operator delete
; Function compile flags: /Odtp /ZI
;	COMDAT ??_GCKanturuUtil@@UAEPAXI@Z
_TEXT	SEGMENT
_this$ = -4						; size = 4
___flags$ = 8						; size = 4
??_GCKanturuUtil@@UAEPAXI@Z PROC			; CKanturuUtil::`scalar deleting destructor', COMDAT
; _this$ = ecx
  00000	55		 push	 ebp
  00001	8b ec		 mov	 ebp, esp
  00003	83 ec 44	 sub	 esp, 68			; 00000044H
  00006	53		 push	 ebx
  00007	56		 push	 esi
  00008	57		 push	 edi
  00009	89 4d fc	 mov	 DWORD PTR _this$[ebp], ecx
  0000c	8b 4d fc	 mov	 ecx, DWORD PTR _this$[ebp]
  0000f	e8 00 00 00 00	 call	 ??1CKanturuUtil@@UAE@XZ	; CKanturuUtil::~CKanturuUtil
  00014	8b 45 08	 mov	 eax, DWORD PTR ___flags$[ebp]
  00017	83 e0 01	 and	 eax, 1
  0001a	74 0c		 je	 SHORT $LN1@scalar
  0001c	8b 45 fc	 mov	 eax, DWORD PTR _this$[ebp]
  0001f	50		 push	 eax
  00020	e8 00 00 00 00	 call	 ??3@YAXPAX@Z		; operator delete
  00025	83 c4 04	 add	 esp, 4
$LN1@scalar:
  00028	8b 45 fc	 mov	 eax, DWORD PTR _this$[ebp]
  0002b	5f		 pop	 edi
  0002c	5e		 pop	 esi
  0002d	5b		 pop	 ebx
  0002e	8b e5		 mov	 esp, ebp
  00030	5d		 pop	 ebp
  00031	c2 04 00	 ret	 4
??_GCKanturuUtil@@UAEPAXI@Z ENDP			; CKanturuUtil::`scalar deleting destructor'
; Function compile flags: /Odtp /ZI
_TEXT	ENDS
_TEXT	SEGMENT
_this$ = -4						; size = 4
??1CKanturuUtil@@UAE@XZ PROC				; CKanturuUtil::~CKanturuUtil
; _this$ = ecx

; 26   : {

  00020	55		 push	 ebp
  00021	8b ec		 mov	 ebp, esp
  00023	83 ec 44	 sub	 esp, 68			; 00000044H
  00026	53		 push	 ebx
  00027	56		 push	 esi
  00028	57		 push	 edi
  00029	89 4d fc	 mov	 DWORD PTR _this$[ebp], ecx
  0002c	8b 45 fc	 mov	 eax, DWORD PTR _this$[ebp]
  0002f	c7 00 00 00 00
	00		 mov	 DWORD PTR [eax], OFFSET ??_7CKanturuUtil@@6B@

; 27   : 	return;
; 28   : }

  00035	5f		 pop	 edi
  00036	5e		 pop	 esi
  00037	5b		 pop	 ebx
  00038	8b e5		 mov	 esp, ebp
  0003a	5d		 pop	 ebp
  0003b	c3		 ret	 0
??1CKanturuUtil@@UAE@XZ ENDP				; CKanturuUtil::~CKanturuUtil
_TEXT	ENDS
PUBLIC	?SendDataKanturuBossMapUser@CKanturuUtil@@QAEXPAEH@Z ; CKanturuUtil::SendDataKanturuBossMapUser
PUBLIC	?NotifyKanturuChangeState@CKanturuUtil@@QAEXHH@Z ; CKanturuUtil::NotifyKanturuChangeState
EXTRN	?PHeadSubSetB@@YAXPAEEEH@Z:PROC			; PHeadSubSetB
; Function compile flags: /Odtp /ZI
_TEXT	SEGMENT
_pMsg$ = -12						; size = 6
_this$ = -4						; size = 4
_iState$ = 8						; size = 4
_iDetailState$ = 12					; size = 4
?NotifyKanturuChangeState@CKanturuUtil@@QAEXHH@Z PROC	; CKanturuUtil::NotifyKanturuChangeState
; _this$ = ecx

; 39   : {

  00040	55		 push	 ebp
  00041	8b ec		 mov	 ebp, esp
  00043	83 ec 4c	 sub	 esp, 76			; 0000004cH
  00046	53		 push	 ebx
  00047	56		 push	 esi
  00048	57		 push	 edi
  00049	89 4d fc	 mov	 DWORD PTR _this$[ebp], ecx

; 40   : 	PMSG_ANS_KANTURU_STATE_CHANGE pMsg = {0};

  0004c	c6 45 f4 00	 mov	 BYTE PTR _pMsg$[ebp], 0
  00050	33 c0		 xor	 eax, eax
  00052	89 45 f5	 mov	 DWORD PTR _pMsg$[ebp+1], eax
  00055	88 45 f9	 mov	 BYTE PTR _pMsg$[ebp+5], al

; 41   : 
; 42   : 	PHeadSubSetB((LPBYTE)&pMsg, 0xD1, 0x03, sizeof(pMsg));

  00058	6a 06		 push	 6
  0005a	6a 03		 push	 3
  0005c	68 d1 00 00 00	 push	 209			; 000000d1H
  00061	8d 45 f4	 lea	 eax, DWORD PTR _pMsg$[ebp]
  00064	50		 push	 eax
  00065	e8 00 00 00 00	 call	 ?PHeadSubSetB@@YAXPAEEEH@Z ; PHeadSubSetB
  0006a	83 c4 10	 add	 esp, 16			; 00000010H

; 43   : 	pMsg.btState = iState;

  0006d	8a 45 08	 mov	 al, BYTE PTR _iState$[ebp]
  00070	88 45 f8	 mov	 BYTE PTR _pMsg$[ebp+4], al

; 44   : 	pMsg.btDetailState = iDetailState;

  00073	8a 45 0c	 mov	 al, BYTE PTR _iDetailState$[ebp]
  00076	88 45 f9	 mov	 BYTE PTR _pMsg$[ebp+5], al

; 45   : 
; 46   : 	this->SendDataKanturuBossMapUser((LPBYTE)&pMsg, sizeof(pMsg));

  00079	6a 06		 push	 6
  0007b	8d 45 f4	 lea	 eax, DWORD PTR _pMsg$[ebp]
  0007e	50		 push	 eax
  0007f	8b 4d fc	 mov	 ecx, DWORD PTR _this$[ebp]
  00082	e8 00 00 00 00	 call	 ?SendDataKanturuBossMapUser@CKanturuUtil@@QAEXPAEH@Z ; CKanturuUtil::SendDataKanturuBossMapUser

; 47   : }

  00087	5f		 pop	 edi
  00088	5e		 pop	 esi
  00089	5b		 pop	 ebx
  0008a	8b e5		 mov	 esp, ebp
  0008c	5d		 pop	 ebp
  0008d	c2 08 00	 ret	 8
?NotifyKanturuChangeState@CKanturuUtil@@QAEXHH@Z ENDP	; CKanturuUtil::NotifyKanturuChangeState
_TEXT	ENDS
PUBLIC	?NotifyKanturuEntranceReqResult@CKanturuUtil@@QAEXHH@Z ; CKanturuUtil::NotifyKanturuEntranceReqResult
EXTRN	?DataSend@@YAHHPAEK@Z:PROC			; DataSend
; Function compile flags: /Odtp /ZI
_TEXT	SEGMENT
_pMsg$ = -12						; size = 5
_this$ = -4						; size = 4
_iIndex$ = 8						; size = 4
_iResult$ = 12						; size = 4
?NotifyKanturuEntranceReqResult@CKanturuUtil@@QAEXHH@Z PROC ; CKanturuUtil::NotifyKanturuEntranceReqResult
; _this$ = ecx

; 58   : {

  00090	55		 push	 ebp
  00091	8b ec		 mov	 ebp, esp
  00093	83 ec 4c	 sub	 esp, 76			; 0000004cH
  00096	53		 push	 ebx
  00097	56		 push	 esi
  00098	57		 push	 edi
  00099	89 4d fc	 mov	 DWORD PTR _this$[ebp], ecx

; 59   : 	PMSG_ANS_ENTER_KANTURU_BOSS_MAP pMsg = {0};

  0009c	c6 45 f4 00	 mov	 BYTE PTR _pMsg$[ebp], 0
  000a0	33 c0		 xor	 eax, eax
  000a2	89 45 f5	 mov	 DWORD PTR _pMsg$[ebp+1], eax

; 60   : 
; 61   : 	PHeadSubSetB((LPBYTE)&pMsg, 0xD1, 0x01, sizeof(pMsg));

  000a5	6a 05		 push	 5
  000a7	6a 01		 push	 1
  000a9	68 d1 00 00 00	 push	 209			; 000000d1H
  000ae	8d 45 f4	 lea	 eax, DWORD PTR _pMsg$[ebp]
  000b1	50		 push	 eax
  000b2	e8 00 00 00 00	 call	 ?PHeadSubSetB@@YAXPAEEEH@Z ; PHeadSubSetB
  000b7	83 c4 10	 add	 esp, 16			; 00000010H

; 62   : 	pMsg.btResult = iResult;

  000ba	8a 45 0c	 mov	 al, BYTE PTR _iResult$[ebp]
  000bd	88 45 f8	 mov	 BYTE PTR _pMsg$[ebp+4], al

; 63   : 
; 64   : 	DataSend(iIndex, (LPBYTE)&pMsg, sizeof(pMsg));

  000c0	6a 05		 push	 5
  000c2	8d 45 f4	 lea	 eax, DWORD PTR _pMsg$[ebp]
  000c5	50		 push	 eax
  000c6	8b 4d 08	 mov	 ecx, DWORD PTR _iIndex$[ebp]
  000c9	51		 push	 ecx
  000ca	e8 00 00 00 00	 call	 ?DataSend@@YAHHPAEK@Z	; DataSend
  000cf	83 c4 0c	 add	 esp, 12			; 0000000cH

; 65   : }

  000d2	5f		 pop	 edi
  000d3	5e		 pop	 esi
  000d4	5b		 pop	 ebx
  000d5	8b e5		 mov	 esp, ebp
  000d7	5d		 pop	 ebp
  000d8	c2 08 00	 ret	 8
?NotifyKanturuEntranceReqResult@CKanturuUtil@@QAEXHH@Z ENDP ; CKanturuUtil::NotifyKanturuEntranceReqResult
_TEXT	ENDS
PUBLIC	?SendDataKanturuBattleUser@CKanturuUtil@@QAEXPAEH@Z ; CKanturuUtil::SendDataKanturuBattleUser
PUBLIC	?NotifyKanturuSuccessValue@CKanturuUtil@@QAEXH@Z ; CKanturuUtil::NotifyKanturuSuccessValue
; Function compile flags: /Odtp /ZI
_TEXT	SEGMENT
_pMsg$ = -12						; size = 5
_this$ = -4						; size = 4
_iSuccessValue$ = 8					; size = 4
?NotifyKanturuSuccessValue@CKanturuUtil@@QAEXH@Z PROC	; CKanturuUtil::NotifyKanturuSuccessValue
; _this$ = ecx

; 77   : {

  000e0	55		 push	 ebp
  000e1	8b ec		 mov	 ebp, esp
  000e3	83 ec 4c	 sub	 esp, 76			; 0000004cH
  000e6	53		 push	 ebx
  000e7	56		 push	 esi
  000e8	57		 push	 edi
  000e9	89 4d fc	 mov	 DWORD PTR _this$[ebp], ecx

; 78   : 	PMSG_ANS_KANTURU_BATTLE_RESULT pMsg = {0};

  000ec	c6 45 f4 00	 mov	 BYTE PTR _pMsg$[ebp], 0
  000f0	33 c0		 xor	 eax, eax
  000f2	89 45 f5	 mov	 DWORD PTR _pMsg$[ebp+1], eax

; 79   : 
; 80   : 	PHeadSubSetB((LPBYTE)&pMsg, 0xD1, 0x04, sizeof(pMsg));

  000f5	6a 05		 push	 5
  000f7	6a 04		 push	 4
  000f9	68 d1 00 00 00	 push	 209			; 000000d1H
  000fe	8d 45 f4	 lea	 eax, DWORD PTR _pMsg$[ebp]
  00101	50		 push	 eax
  00102	e8 00 00 00 00	 call	 ?PHeadSubSetB@@YAXPAEEEH@Z ; PHeadSubSetB
  00107	83 c4 10	 add	 esp, 16			; 00000010H

; 81   : 	pMsg.btResult = iSuccessValue;

  0010a	8a 45 08	 mov	 al, BYTE PTR _iSuccessValue$[ebp]
  0010d	88 45 f8	 mov	 BYTE PTR _pMsg$[ebp+4], al

; 82   : 
; 83   : 	this->SendDataKanturuBattleUser((LPBYTE)&pMsg, sizeof(pMsg));

  00110	6a 05		 push	 5
  00112	8d 45 f4	 lea	 eax, DWORD PTR _pMsg$[ebp]
  00115	50		 push	 eax
  00116	8b 4d fc	 mov	 ecx, DWORD PTR _this$[ebp]
  00119	e8 00 00 00 00	 call	 ?SendDataKanturuBattleUser@CKanturuUtil@@QAEXPAEH@Z ; CKanturuUtil::SendDataKanturuBattleUser

; 84   : }

  0011e	5f		 pop	 edi
  0011f	5e		 pop	 esi
  00120	5b		 pop	 ebx
  00121	8b e5		 mov	 esp, ebp
  00123	5d		 pop	 ebp
  00124	c2 04 00	 ret	 4
?NotifyKanturuSuccessValue@CKanturuUtil@@QAEXH@Z ENDP	; CKanturuUtil::NotifyKanturuSuccessValue
_TEXT	ENDS
PUBLIC	?NotifyKanturuCurrentState@CKanturuUtil@@QAEXHHH@Z ; CKanturuUtil::NotifyKanturuCurrentState
; Function compile flags: /Odtp /ZI
_TEXT	SEGMENT
_pMsg$ = -12						; size = 6
_this$ = -4						; size = 4
_iIndex$ = 8						; size = 4
_iState$ = 12						; size = 4
_iDetailState$ = 16					; size = 4
?NotifyKanturuCurrentState@CKanturuUtil@@QAEXHHH@Z PROC	; CKanturuUtil::NotifyKanturuCurrentState
; _this$ = ecx

; 96   : {

  00130	55		 push	 ebp
  00131	8b ec		 mov	 ebp, esp
  00133	83 ec 4c	 sub	 esp, 76			; 0000004cH
  00136	53		 push	 ebx
  00137	56		 push	 esi
  00138	57		 push	 edi
  00139	89 4d fc	 mov	 DWORD PTR _this$[ebp], ecx

; 97   : 	PMSG_ANS_KANTURU_CURRENT_STATE pMsg = {0};

  0013c	c6 45 f4 00	 mov	 BYTE PTR _pMsg$[ebp], 0
  00140	33 c0		 xor	 eax, eax
  00142	89 45 f5	 mov	 DWORD PTR _pMsg$[ebp+1], eax
  00145	88 45 f9	 mov	 BYTE PTR _pMsg$[ebp+5], al

; 98   : 
; 99   : 	PHeadSubSetB((LPBYTE)&pMsg, 0xD1, 0x02, sizeof(pMsg));

  00148	6a 06		 push	 6
  0014a	6a 02		 push	 2
  0014c	68 d1 00 00 00	 push	 209			; 000000d1H
  00151	8d 45 f4	 lea	 eax, DWORD PTR _pMsg$[ebp]
  00154	50		 push	 eax
  00155	e8 00 00 00 00	 call	 ?PHeadSubSetB@@YAXPAEEEH@Z ; PHeadSubSetB
  0015a	83 c4 10	 add	 esp, 16			; 00000010H

; 100  : 	pMsg.btCurrentState = iState;

  0015d	8a 45 0c	 mov	 al, BYTE PTR _iState$[ebp]
  00160	88 45 f8	 mov	 BYTE PTR _pMsg$[ebp+4], al

; 101  : 	pMsg.btCurrentDetailState = iDetailState;

  00163	8a 45 10	 mov	 al, BYTE PTR _iDetailState$[ebp]
  00166	88 45 f9	 mov	 BYTE PTR _pMsg$[ebp+5], al

; 102  : 
; 103  : 	DataSend(iIndex, (LPBYTE)&pMsg, sizeof(pMsg));

  00169	6a 06		 push	 6
  0016b	8d 45 f4	 lea	 eax, DWORD PTR _pMsg$[ebp]
  0016e	50		 push	 eax
  0016f	8b 4d 08	 mov	 ecx, DWORD PTR _iIndex$[ebp]
  00172	51		 push	 ecx
  00173	e8 00 00 00 00	 call	 ?DataSend@@YAHHPAEK@Z	; DataSend
  00178	83 c4 0c	 add	 esp, 12			; 0000000cH

; 104  : }

  0017b	5f		 pop	 edi
  0017c	5e		 pop	 esi
  0017d	5b		 pop	 ebx
  0017e	8b e5		 mov	 esp, ebp
  00180	5d		 pop	 ebp
  00181	c2 0c 00	 ret	 12			; 0000000cH
?NotifyKanturuCurrentState@CKanturuUtil@@QAEXHHH@Z ENDP	; CKanturuUtil::NotifyKanturuCurrentState
_TEXT	ENDS
PUBLIC	?NotifyKanturuBattleTime@CKanturuUtil@@QAEXH@Z	; CKanturuUtil::NotifyKanturuBattleTime
; Function compile flags: /Odtp /ZI
_TEXT	SEGMENT
_pMsg$ = -12						; size = 8
_this$ = -4						; size = 4
_iBattleTime$ = 8					; size = 4
?NotifyKanturuBattleTime@CKanturuUtil@@QAEXH@Z PROC	; CKanturuUtil::NotifyKanturuBattleTime
; _this$ = ecx

; 116  : {

  00190	55		 push	 ebp
  00191	8b ec		 mov	 ebp, esp
  00193	83 ec 4c	 sub	 esp, 76			; 0000004cH
  00196	53		 push	 ebx
  00197	56		 push	 esi
  00198	57		 push	 edi
  00199	89 4d fc	 mov	 DWORD PTR _this$[ebp], ecx

; 117  : 	PMSG_ANS_KANTURU_BATTLE_SCENE_TIMELIMIT pMsg;
; 118  : 
; 119  : 	PHeadSubSetB((LPBYTE)&pMsg, 0xD1, 0x05, sizeof(pMsg));

  0019c	6a 08		 push	 8
  0019e	6a 05		 push	 5
  001a0	68 d1 00 00 00	 push	 209			; 000000d1H
  001a5	8d 45 f4	 lea	 eax, DWORD PTR _pMsg$[ebp]
  001a8	50		 push	 eax
  001a9	e8 00 00 00 00	 call	 ?PHeadSubSetB@@YAXPAEEEH@Z ; PHeadSubSetB
  001ae	83 c4 10	 add	 esp, 16			; 00000010H

; 120  : 	pMsg.btTimeLimit = iBattleTime;

  001b1	8b 45 08	 mov	 eax, DWORD PTR _iBattleTime$[ebp]
  001b4	89 45 f8	 mov	 DWORD PTR _pMsg$[ebp+4], eax

; 121  : 
; 122  : 	this->SendDataKanturuBattleUser((LPBYTE)&pMsg, sizeof(pMsg));

  001b7	6a 08		 push	 8
  001b9	8d 45 f4	 lea	 eax, DWORD PTR _pMsg$[ebp]
  001bc	50		 push	 eax
  001bd	8b 4d fc	 mov	 ecx, DWORD PTR _this$[ebp]
  001c0	e8 00 00 00 00	 call	 ?SendDataKanturuBattleUser@CKanturuUtil@@QAEXPAEH@Z ; CKanturuUtil::SendDataKanturuBattleUser

; 123  : }

  001c5	5f		 pop	 edi
  001c6	5e		 pop	 esi
  001c7	5b		 pop	 ebx
  001c8	8b e5		 mov	 esp, ebp
  001ca	5d		 pop	 ebp
  001cb	c2 04 00	 ret	 4
?NotifyKanturuBattleTime@CKanturuUtil@@QAEXH@Z ENDP	; CKanturuUtil::NotifyKanturuBattleTime
_TEXT	ENDS
PUBLIC	?SendDataToUser@CKanturuUtil@@QAEXHPAEH@Z	; CKanturuUtil::SendDataToUser
PUBLIC	?NotifyKanturuWideAreaAttack@CKanturuUtil@@QAEXHHH@Z ; CKanturuUtil::NotifyKanturuWideAreaAttack
EXTRN	?gObj@@3PAUOBJECTSTRUCT@@A:DWORD		; gObj
; Function compile flags: /Odtp /ZI
_TEXT	SEGMENT
_pMsg$ = -12						; size = 7
_this$ = -4						; size = 4
_iIndex$ = 8						; size = 4
_iTargetIndex$ = 12					; size = 4
_iSkillType$ = 16					; size = 4
?NotifyKanturuWideAreaAttack@CKanturuUtil@@QAEXHHH@Z PROC ; CKanturuUtil::NotifyKanturuWideAreaAttack
; _this$ = ecx

; 136  : {

  001d0	55		 push	 ebp
  001d1	8b ec		 mov	 ebp, esp
  001d3	83 ec 4c	 sub	 esp, 76			; 0000004cH
  001d6	53		 push	 ebx
  001d7	56		 push	 esi
  001d8	57		 push	 edi
  001d9	89 4d fc	 mov	 DWORD PTR _this$[ebp], ecx

; 137  : 	PMSG_NOTIFY_KANTURU_WIDE_AREA_ATTACK pMsg;
; 138  : 
; 139  : 	PHeadSubSetB((LPBYTE)&pMsg, 0xD1, 0x06, sizeof(pMsg));

  001dc	6a 07		 push	 7
  001de	6a 06		 push	 6
  001e0	68 d1 00 00 00	 push	 209			; 000000d1H
  001e5	8d 45 f4	 lea	 eax, DWORD PTR _pMsg$[ebp]
  001e8	50		 push	 eax
  001e9	e8 00 00 00 00	 call	 ?PHeadSubSetB@@YAXPAEEEH@Z ; PHeadSubSetB
  001ee	83 c4 10	 add	 esp, 16			; 00000010H

; 140  : 	pMsg.btObjClassH = SET_NUMBERH(gObj[iIndex].Class);

  001f1	8b 45 08	 mov	 eax, DWORD PTR _iIndex$[ebp]
  001f4	69 c0 38 2b 00
	00		 imul	 eax, 11064		; 00002b38H
  001fa	8b 0d 00 00 00
	00		 mov	 ecx, DWORD PTR ?gObj@@3PAUOBJECTSTRUCT@@A ; gObj
  00200	0f b7 94 01 b8
	00 00 00	 movzx	 edx, WORD PTR [ecx+eax+184]
  00208	c1 ea 08	 shr	 edx, 8
  0020b	88 55 f8	 mov	 BYTE PTR _pMsg$[ebp+4], dl

; 141  : 	pMsg.btObjClassL = SET_NUMBERL(gObj[iIndex].Class);

  0020e	8b 45 08	 mov	 eax, DWORD PTR _iIndex$[ebp]
  00211	69 c0 38 2b 00
	00		 imul	 eax, 11064		; 00002b38H
  00217	8b 0d 00 00 00
	00		 mov	 ecx, DWORD PTR ?gObj@@3PAUOBJECTSTRUCT@@A ; gObj
  0021d	0f b7 94 01 b8
	00 00 00	 movzx	 edx, WORD PTR [ecx+eax+184]
  00225	81 e2 ff 00 00
	00		 and	 edx, 255		; 000000ffH
  0022b	88 55 f9	 mov	 BYTE PTR _pMsg$[ebp+5], dl

; 142  : 	pMsg.btType = iSkillType;

  0022e	8a 45 10	 mov	 al, BYTE PTR _iSkillType$[ebp]
  00231	88 45 fa	 mov	 BYTE PTR _pMsg$[ebp+6], al

; 143  : 
; 144  : 	this->SendDataToUser(iTargetIndex, (LPBYTE)&pMsg, sizeof(pMsg));

  00234	6a 07		 push	 7
  00236	8d 45 f4	 lea	 eax, DWORD PTR _pMsg$[ebp]
  00239	50		 push	 eax
  0023a	8b 4d 0c	 mov	 ecx, DWORD PTR _iTargetIndex$[ebp]
  0023d	51		 push	 ecx
  0023e	8b 4d fc	 mov	 ecx, DWORD PTR _this$[ebp]
  00241	e8 00 00 00 00	 call	 ?SendDataToUser@CKanturuUtil@@QAEXHPAEH@Z ; CKanturuUtil::SendDataToUser

; 145  : }

  00246	5f		 pop	 edi
  00247	5e		 pop	 esi
  00248	5b		 pop	 ebx
  00249	8b e5		 mov	 esp, ebp
  0024b	5d		 pop	 ebp
  0024c	c2 0c 00	 ret	 12			; 0000000cH
?NotifyKanturuWideAreaAttack@CKanturuUtil@@QAEXHHH@Z ENDP ; CKanturuUtil::NotifyKanturuWideAreaAttack
_TEXT	ENDS
PUBLIC	?NotifyKanturuUserMonsterCount@CKanturuUtil@@QAEXHH@Z ; CKanturuUtil::NotifyKanturuUserMonsterCount
; Function compile flags: /Odtp /ZI
_TEXT	SEGMENT
_pMsg$ = -12						; size = 6
_this$ = -4						; size = 4
_iMonsterCount$ = 8					; size = 4
_iUserCount$ = 12					; size = 4
?NotifyKanturuUserMonsterCount@CKanturuUtil@@QAEXHH@Z PROC ; CKanturuUtil::NotifyKanturuUserMonsterCount
; _this$ = ecx

; 158  : {

  00250	55		 push	 ebp
  00251	8b ec		 mov	 ebp, esp
  00253	83 ec 4c	 sub	 esp, 76			; 0000004cH
  00256	53		 push	 ebx
  00257	56		 push	 esi
  00258	57		 push	 edi
  00259	89 4d fc	 mov	 DWORD PTR _this$[ebp], ecx

; 159  : 	PMSG_NOTIFY_KANTURU_USER_MONSTER_COUNT pMsg;
; 160  : 
; 161  : 	PHeadSubSetB((LPBYTE)&pMsg, 0xD1, 0x07, sizeof(pMsg));

  0025c	6a 06		 push	 6
  0025e	6a 07		 push	 7
  00260	68 d1 00 00 00	 push	 209			; 000000d1H
  00265	8d 45 f4	 lea	 eax, DWORD PTR _pMsg$[ebp]
  00268	50		 push	 eax
  00269	e8 00 00 00 00	 call	 ?PHeadSubSetB@@YAXPAEEEH@Z ; PHeadSubSetB
  0026e	83 c4 10	 add	 esp, 16			; 00000010H

; 162  : 	pMsg.btMonsterCount = iMonsterCount;

  00271	8a 45 08	 mov	 al, BYTE PTR _iMonsterCount$[ebp]
  00274	88 45 f8	 mov	 BYTE PTR _pMsg$[ebp+4], al

; 163  : 	pMsg.btUserCount = iUserCount;

  00277	8a 45 0c	 mov	 al, BYTE PTR _iUserCount$[ebp]
  0027a	88 45 f9	 mov	 BYTE PTR _pMsg$[ebp+5], al

; 164  : 
; 165  : 	this->SendDataKanturuBattleUser((LPBYTE)&pMsg, sizeof(pMsg));

  0027d	6a 06		 push	 6
  0027f	8d 45 f4	 lea	 eax, DWORD PTR _pMsg$[ebp]
  00282	50		 push	 eax
  00283	8b 4d fc	 mov	 ecx, DWORD PTR _this$[ebp]
  00286	e8 00 00 00 00	 call	 ?SendDataKanturuBattleUser@CKanturuUtil@@QAEXPAEH@Z ; CKanturuUtil::SendDataKanturuBattleUser

; 166  : }

  0028b	5f		 pop	 edi
  0028c	5e		 pop	 esi
  0028d	5b		 pop	 ebx
  0028e	8b e5		 mov	 esp, ebp
  00290	5d		 pop	 ebp
  00291	c2 08 00	 ret	 8
?NotifyKanturuUserMonsterCount@CKanturuUtil@@QAEXHH@Z ENDP ; CKanturuUtil::NotifyKanturuUserMonsterCount
_TEXT	ENDS
PUBLIC	?GetIndex@CKanturuBattleUser@@QAEHXZ		; CKanturuBattleUser::GetIndex
PUBLIC	??_C@_00CNPNBAHC@?$AA@				; `string'
PUBLIC	__$ArrayPad$
PUBLIC	?SendMsgKanturuBattleUser@CKanturuUtil@@QAAXPADZZ ; CKanturuUtil::SendMsgKanturuBattleUser
EXTRN	?SendNoticeToUser@TNotice@@SAXHPAX@Z:PROC	; TNotice::SendNoticeToUser
EXTRN	?g_KanturuBattleUserMng@@3VCKanturuBattleUserMng@@A:BYTE ; g_KanturuBattleUserMng
EXTRN	?MakeNoticeMsg@TNotice@@SAXPAXEPAD@Z:PROC	; TNotice::MakeNoticeMsg
EXTRN	_vsprintf:PROC
EXTRN	___security_cookie:DWORD
EXTRN	@__security_check_cookie@4:PROC
EXTRN	_memset:PROC
;	COMDAT ??_C@_00CNPNBAHC@?$AA@
CONST	SEGMENT
??_C@_00CNPNBAHC@?$AA@ DB 00H				; `string'
; Function compile flags: /Odtp /ZI
CONST	ENDS
_TEXT	SEGMENT
_iCount$228488 = -800					; size = 4
_iUserIndex$ = -796					; size = 4
_pNotice$ = -792					; size = 272
_pArguments$ = -520					; size = 4
_szBuffer$ = -516					; size = 512
__$ArrayPad$ = -4					; size = 4
_this$ = 8						; size = 4
_lpszMsg$ = 12						; size = 4
?SendMsgKanturuBattleUser@CKanturuUtil@@QAAXPADZZ PROC	; CKanturuUtil::SendMsgKanturuBattleUser

; 171  : {

  002a0	55		 push	 ebp
  002a1	8b ec		 mov	 ebp, esp
  002a3	81 ec 60 03 00
	00		 sub	 esp, 864		; 00000360H
  002a9	a1 00 00 00 00	 mov	 eax, DWORD PTR ___security_cookie
  002ae	33 c5		 xor	 eax, ebp
  002b0	89 45 fc	 mov	 DWORD PTR __$ArrayPad$[ebp], eax
  002b3	53		 push	 ebx
  002b4	56		 push	 esi
  002b5	57		 push	 edi

; 172  : 	if ( !lpszMsg )

  002b6	83 7d 0c 00	 cmp	 DWORD PTR _lpszMsg$[ebp], 0
  002ba	75 05		 jne	 SHORT $LN6@SendMsgKan

; 173  : 		return;

  002bc	e9 1c 01 00 00	 jmp	 $LN7@SendMsgKan
$LN6@SendMsgKan:

; 174  : 
; 175  : 	char szBuffer[512] = "";

  002c1	a0 00 00 00 00	 mov	 al, BYTE PTR ??_C@_00CNPNBAHC@?$AA@
  002c6	88 85 fc fd ff
	ff		 mov	 BYTE PTR _szBuffer$[ebp], al
  002cc	68 ff 01 00 00	 push	 511			; 000001ffH
  002d1	6a 00		 push	 0
  002d3	8d 85 fd fd ff
	ff		 lea	 eax, DWORD PTR _szBuffer$[ebp+1]
  002d9	50		 push	 eax
  002da	e8 00 00 00 00	 call	 _memset
  002df	83 c4 0c	 add	 esp, 12			; 0000000cH

; 176  : 	va_list pArguments;
; 177  : 
; 178  : 	va_start(pArguments, lpszMsg);

  002e2	8d 45 10	 lea	 eax, DWORD PTR _lpszMsg$[ebp+4]
  002e5	89 85 f8 fd ff
	ff		 mov	 DWORD PTR _pArguments$[ebp], eax

; 179  : 	vsprintf(szBuffer, lpszMsg, pArguments);

  002eb	8b 85 f8 fd ff
	ff		 mov	 eax, DWORD PTR _pArguments$[ebp]
  002f1	50		 push	 eax
  002f2	8b 4d 0c	 mov	 ecx, DWORD PTR _lpszMsg$[ebp]
  002f5	51		 push	 ecx
  002f6	8d 95 fc fd ff
	ff		 lea	 edx, DWORD PTR _szBuffer$[ebp]
  002fc	52		 push	 edx
  002fd	e8 00 00 00 00	 call	 _vsprintf
  00302	83 c4 0c	 add	 esp, 12			; 0000000cH

; 180  : 	va_end(pArguments);

  00305	c7 85 f8 fd ff
	ff 00 00 00 00	 mov	 DWORD PTR _pArguments$[ebp], 0

; 181  : 
; 182  : 	PMSG_NOTICE pNotice;
; 183  : 	TNotice::MakeNoticeMsg(&pNotice, 0, szBuffer);

  0030f	8d 85 fc fd ff
	ff		 lea	 eax, DWORD PTR _szBuffer$[ebp]
  00315	50		 push	 eax
  00316	6a 00		 push	 0
  00318	8d 8d e8 fc ff
	ff		 lea	 ecx, DWORD PTR _pNotice$[ebp]
  0031e	51		 push	 ecx
  0031f	e8 00 00 00 00	 call	 ?MakeNoticeMsg@TNotice@@SAXPAXEPAD@Z ; TNotice::MakeNoticeMsg
  00324	83 c4 0c	 add	 esp, 12			; 0000000cH

; 184  : 
; 185  : 	int iUserIndex = 0;

  00327	c7 85 e4 fc ff
	ff 00 00 00 00	 mov	 DWORD PTR _iUserIndex$[ebp], 0

; 186  : 
; 187  : 	for ( int iCount=0;iCount<MAX_KANTURU_BATTLE_USER;iCount++)

  00331	c7 85 e0 fc ff
	ff 00 00 00 00	 mov	 DWORD PTR _iCount$228488[ebp], 0
  0033b	eb 0f		 jmp	 SHORT $LN5@SendMsgKan
$LN4@SendMsgKan:
  0033d	8b 85 e0 fc ff
	ff		 mov	 eax, DWORD PTR _iCount$228488[ebp]
  00343	83 c0 01	 add	 eax, 1
  00346	89 85 e0 fc ff
	ff		 mov	 DWORD PTR _iCount$228488[ebp], eax
$LN5@SendMsgKan:
  0034c	83 bd e0 fc ff
	ff 0f		 cmp	 DWORD PTR _iCount$228488[ebp], 15 ; 0000000fH
  00353	0f 8d 84 00 00
	00		 jge	 $LN7@SendMsgKan

; 188  : 	{
; 189  : 		if( g_KanturuBattleUserMng.m_BattleUser[iCount].GetIndex() == 0)//Season 4.5 addon

  00359	8b 8d e0 fc ff
	ff		 mov	 ecx, DWORD PTR _iCount$228488[ebp]
  0035f	6b c9 0c	 imul	 ecx, 12			; 0000000cH
  00362	81 c1 04 00 00
	00		 add	 ecx, OFFSET ?g_KanturuBattleUserMng@@3VCKanturuBattleUserMng@@A+4
  00368	e8 00 00 00 00	 call	 ?GetIndex@CKanturuBattleUser@@QAEHXZ ; CKanturuBattleUser::GetIndex
  0036d	85 c0		 test	 eax, eax
  0036f	75 02		 jne	 SHORT $LN2@SendMsgKan

; 190  : 		{
; 191  : 			continue;

  00371	eb ca		 jmp	 SHORT $LN4@SendMsgKan
$LN2@SendMsgKan:

; 192  : 		}
; 193  : 
; 194  : 		iUserIndex = g_KanturuBattleUserMng.m_BattleUser[iCount].GetIndex();

  00373	8b 8d e0 fc ff
	ff		 mov	 ecx, DWORD PTR _iCount$228488[ebp]
  00379	6b c9 0c	 imul	 ecx, 12			; 0000000cH
  0037c	81 c1 04 00 00
	00		 add	 ecx, OFFSET ?g_KanturuBattleUserMng@@3VCKanturuBattleUserMng@@A+4
  00382	e8 00 00 00 00	 call	 ?GetIndex@CKanturuBattleUser@@QAEHXZ ; CKanturuBattleUser::GetIndex
  00387	89 85 e4 fc ff
	ff		 mov	 DWORD PTR _iUserIndex$[ebp], eax

; 195  : 
; 196  : 		if ( gObj[iUserIndex].Connected == PLAYER_PLAYING &&
; 197  : 			 gObj[iUserIndex].Type == OBJ_USER )

  0038d	8b 85 e4 fc ff
	ff		 mov	 eax, DWORD PTR _iUserIndex$[ebp]
  00393	69 c0 38 2b 00
	00		 imul	 eax, 11064		; 00002b38H
  00399	8b 0d 00 00 00
	00		 mov	 ecx, DWORD PTR ?gObj@@3PAUOBJECTSTRUCT@@A ; gObj
  0039f	83 7c 01 04 03	 cmp	 DWORD PTR [ecx+eax+4], 3
  003a4	75 32		 jne	 SHORT $LN1@SendMsgKan
  003a6	8b 85 e4 fc ff
	ff		 mov	 eax, DWORD PTR _iUserIndex$[ebp]
  003ac	69 c0 38 2b 00
	00		 imul	 eax, 11064		; 00002b38H
  003b2	8b 0d 00 00 00
	00		 mov	 ecx, DWORD PTR ?gObj@@3PAUOBJECTSTRUCT@@A ; gObj
  003b8	0f b7 54 01 68	 movzx	 edx, WORD PTR [ecx+eax+104]
  003bd	83 fa 01	 cmp	 edx, 1
  003c0	75 16		 jne	 SHORT $LN1@SendMsgKan

; 198  : 		{
; 199  : 			TNotice::SendNoticeToUser(iUserIndex, &pNotice);

  003c2	8d 85 e8 fc ff
	ff		 lea	 eax, DWORD PTR _pNotice$[ebp]
  003c8	50		 push	 eax
  003c9	8b 8d e4 fc ff
	ff		 mov	 ecx, DWORD PTR _iUserIndex$[ebp]
  003cf	51		 push	 ecx
  003d0	e8 00 00 00 00	 call	 ?SendNoticeToUser@TNotice@@SAXHPAX@Z ; TNotice::SendNoticeToUser
  003d5	83 c4 08	 add	 esp, 8
$LN1@SendMsgKan:

; 200  : 		}
; 201  : 	}

  003d8	e9 60 ff ff ff	 jmp	 $LN4@SendMsgKan
$LN7@SendMsgKan:

; 202  : }

  003dd	5f		 pop	 edi
  003de	5e		 pop	 esi
  003df	5b		 pop	 ebx
  003e0	8b 4d fc	 mov	 ecx, DWORD PTR __$ArrayPad$[ebp]
  003e3	33 cd		 xor	 ecx, ebp
  003e5	e8 00 00 00 00	 call	 @__security_check_cookie@4
  003ea	8b e5		 mov	 esp, ebp
  003ec	5d		 pop	 ebp
  003ed	c3		 ret	 0
?SendMsgKanturuBattleUser@CKanturuUtil@@QAAXPADZZ ENDP	; CKanturuUtil::SendMsgKanturuBattleUser
; Function compile flags: /Odtp /ZI
; File d:\projects\exteam6.3\source\gameserver\gameserver\kanturubattleuser.h
_TEXT	ENDS
;	COMDAT ?GetIndex@CKanturuBattleUser@@QAEHXZ
_TEXT	SEGMENT
_this$ = -4						; size = 4
?GetIndex@CKanturuBattleUser@@QAEHXZ PROC		; CKanturuBattleUser::GetIndex, COMDAT
; _this$ = ecx

; 23   : 	{

  00000	55		 push	 ebp
  00001	8b ec		 mov	 ebp, esp
  00003	83 ec 44	 sub	 esp, 68			; 00000044H
  00006	53		 push	 ebx
  00007	56		 push	 esi
  00008	57		 push	 edi
  00009	89 4d fc	 mov	 DWORD PTR _this$[ebp], ecx

; 24   : 		return this->m_iIndex;

  0000c	8b 45 fc	 mov	 eax, DWORD PTR _this$[ebp]
  0000f	8b 40 04	 mov	 eax, DWORD PTR [eax+4]

; 25   : 	}

  00012	5f		 pop	 edi
  00013	5e		 pop	 esi
  00014	5b		 pop	 ebx
  00015	8b e5		 mov	 esp, ebp
  00017	5d		 pop	 ebp
  00018	c3		 ret	 0
?GetIndex@CKanturuBattleUser@@QAEHXZ ENDP		; CKanturuBattleUser::GetIndex
; Function compile flags: /Odtp /ZI
; File d:\projects\exteam6.3\source\gameserver\gameserver\kanturuutil.cpp
_TEXT	ENDS
_TEXT	SEGMENT
_iCount$228500 = -12					; size = 4
_iUserIndex$ = -8					; size = 4
_this$ = -4						; size = 4
_lpMsg$ = 8						; size = 4
_iSize$ = 12						; size = 4
?SendDataKanturuBattleUser@CKanturuUtil@@QAEXPAEH@Z PROC ; CKanturuUtil::SendDataKanturuBattleUser
; _this$ = ecx

; 206  : {

  003f0	55		 push	 ebp
  003f1	8b ec		 mov	 ebp, esp
  003f3	83 ec 4c	 sub	 esp, 76			; 0000004cH
  003f6	53		 push	 ebx
  003f7	56		 push	 esi
  003f8	57		 push	 edi
  003f9	89 4d fc	 mov	 DWORD PTR _this$[ebp], ecx

; 207  : 	int iUserIndex=0;

  003fc	c7 45 f8 00 00
	00 00		 mov	 DWORD PTR _iUserIndex$[ebp], 0

; 208  : 
; 209  : 	for ( int iCount=0;iCount<MAX_KANTURU_BATTLE_USER;iCount++)

  00403	c7 45 f4 00 00
	00 00		 mov	 DWORD PTR _iCount$228500[ebp], 0
  0040a	eb 09		 jmp	 SHORT $LN5@SendDataKa
$LN4@SendDataKa:
  0040c	8b 45 f4	 mov	 eax, DWORD PTR _iCount$228500[ebp]
  0040f	83 c0 01	 add	 eax, 1
  00412	89 45 f4	 mov	 DWORD PTR _iCount$228500[ebp], eax
$LN5@SendDataKa:
  00415	83 7d f4 0f	 cmp	 DWORD PTR _iCount$228500[ebp], 15 ; 0000000fH
  00419	7d 70		 jge	 SHORT $LN6@SendDataKa

; 210  : 	{
; 211  : 		if( g_KanturuBattleUserMng.m_BattleUser[iCount].GetIndex() == 0)//Season 4.5 addon

  0041b	8b 4d f4	 mov	 ecx, DWORD PTR _iCount$228500[ebp]
  0041e	6b c9 0c	 imul	 ecx, 12			; 0000000cH
  00421	81 c1 04 00 00
	00		 add	 ecx, OFFSET ?g_KanturuBattleUserMng@@3VCKanturuBattleUserMng@@A+4
  00427	e8 00 00 00 00	 call	 ?GetIndex@CKanturuBattleUser@@QAEHXZ ; CKanturuBattleUser::GetIndex
  0042c	85 c0		 test	 eax, eax
  0042e	75 02		 jne	 SHORT $LN2@SendDataKa

; 212  : 		{
; 213  : 			continue;

  00430	eb da		 jmp	 SHORT $LN4@SendDataKa
$LN2@SendDataKa:

; 214  : 		}
; 215  : 
; 216  : 		iUserIndex = g_KanturuBattleUserMng.m_BattleUser[iCount].GetIndex();

  00432	8b 4d f4	 mov	 ecx, DWORD PTR _iCount$228500[ebp]
  00435	6b c9 0c	 imul	 ecx, 12			; 0000000cH
  00438	81 c1 04 00 00
	00		 add	 ecx, OFFSET ?g_KanturuBattleUserMng@@3VCKanturuBattleUserMng@@A+4
  0043e	e8 00 00 00 00	 call	 ?GetIndex@CKanturuBattleUser@@QAEHXZ ; CKanturuBattleUser::GetIndex
  00443	89 45 f8	 mov	 DWORD PTR _iUserIndex$[ebp], eax

; 217  : 
; 218  : 		if ( gObj[iUserIndex].Connected == PLAYER_PLAYING &&
; 219  : 			 gObj[iUserIndex].Type == OBJ_USER )

  00446	8b 45 f8	 mov	 eax, DWORD PTR _iUserIndex$[ebp]
  00449	69 c0 38 2b 00
	00		 imul	 eax, 11064		; 00002b38H
  0044f	8b 0d 00 00 00
	00		 mov	 ecx, DWORD PTR ?gObj@@3PAUOBJECTSTRUCT@@A ; gObj
  00455	83 7c 01 04 03	 cmp	 DWORD PTR [ecx+eax+4], 3
  0045a	75 2d		 jne	 SHORT $LN1@SendDataKa
  0045c	8b 45 f8	 mov	 eax, DWORD PTR _iUserIndex$[ebp]
  0045f	69 c0 38 2b 00
	00		 imul	 eax, 11064		; 00002b38H
  00465	8b 0d 00 00 00
	00		 mov	 ecx, DWORD PTR ?gObj@@3PAUOBJECTSTRUCT@@A ; gObj
  0046b	0f b7 54 01 68	 movzx	 edx, WORD PTR [ecx+eax+104]
  00470	83 fa 01	 cmp	 edx, 1
  00473	75 14		 jne	 SHORT $LN1@SendDataKa

; 220  : 		{
; 221  : 			DataSend(iUserIndex, lpMsg, iSize);

  00475	8b 45 0c	 mov	 eax, DWORD PTR _iSize$[ebp]
  00478	50		 push	 eax
  00479	8b 4d 08	 mov	 ecx, DWORD PTR _lpMsg$[ebp]
  0047c	51		 push	 ecx
  0047d	8b 55 f8	 mov	 edx, DWORD PTR _iUserIndex$[ebp]
  00480	52		 push	 edx
  00481	e8 00 00 00 00	 call	 ?DataSend@@YAHHPAEK@Z	; DataSend
  00486	83 c4 0c	 add	 esp, 12			; 0000000cH
$LN1@SendDataKa:

; 222  : 		}
; 223  : 	}

  00489	eb 81		 jmp	 SHORT $LN4@SendDataKa
$LN6@SendDataKa:

; 224  : }

  0048b	5f		 pop	 edi
  0048c	5e		 pop	 esi
  0048d	5b		 pop	 ebx
  0048e	8b e5		 mov	 esp, ebp
  00490	5d		 pop	 ebp
  00491	c2 08 00	 ret	 8
?SendDataKanturuBattleUser@CKanturuUtil@@QAEXPAEH@Z ENDP ; CKanturuUtil::SendDataKanturuBattleUser
_TEXT	ENDS
PUBLIC	__$ArrayPad$
PUBLIC	?SendMsgKauturuBossMapUser@CKanturuUtil@@QAAXPADZZ ; CKanturuUtil::SendMsgKauturuBossMapUser
; Function compile flags: /Odtp /ZI
_TEXT	SEGMENT
_iCount$228520 = -796					; size = 4
_pNotice$ = -792					; size = 272
_pArguments$ = -520					; size = 4
_szBuffer$ = -516					; size = 512
__$ArrayPad$ = -4					; size = 4
_this$ = 8						; size = 4
_lpszMsg$ = 12						; size = 4
?SendMsgKauturuBossMapUser@CKanturuUtil@@QAAXPADZZ PROC	; CKanturuUtil::SendMsgKauturuBossMapUser

; 229  : {

  004a0	55		 push	 ebp
  004a1	8b ec		 mov	 ebp, esp
  004a3	81 ec 5c 03 00
	00		 sub	 esp, 860		; 0000035cH
  004a9	a1 00 00 00 00	 mov	 eax, DWORD PTR ___security_cookie
  004ae	33 c5		 xor	 eax, ebp
  004b0	89 45 fc	 mov	 DWORD PTR __$ArrayPad$[ebp], eax
  004b3	53		 push	 ebx
  004b4	56		 push	 esi
  004b5	57		 push	 edi

; 230  : 	if ( !lpszMsg )

  004b6	83 7d 0c 00	 cmp	 DWORD PTR _lpszMsg$[ebp], 0
  004ba	75 05		 jne	 SHORT $LN5@SendMsgKau

; 231  : 		return;

  004bc	e9 fc 00 00 00	 jmp	 $LN6@SendMsgKau
$LN5@SendMsgKau:

; 232  : 
; 233  : 	char szBuffer[512] = "";

  004c1	a0 00 00 00 00	 mov	 al, BYTE PTR ??_C@_00CNPNBAHC@?$AA@
  004c6	88 85 fc fd ff
	ff		 mov	 BYTE PTR _szBuffer$[ebp], al
  004cc	68 ff 01 00 00	 push	 511			; 000001ffH
  004d1	6a 00		 push	 0
  004d3	8d 85 fd fd ff
	ff		 lea	 eax, DWORD PTR _szBuffer$[ebp+1]
  004d9	50		 push	 eax
  004da	e8 00 00 00 00	 call	 _memset
  004df	83 c4 0c	 add	 esp, 12			; 0000000cH

; 234  : 	va_list pArguments;
; 235  : 
; 236  : 	va_start(pArguments, lpszMsg);

  004e2	8d 45 10	 lea	 eax, DWORD PTR _lpszMsg$[ebp+4]
  004e5	89 85 f8 fd ff
	ff		 mov	 DWORD PTR _pArguments$[ebp], eax

; 237  : 	vsprintf(szBuffer, lpszMsg, pArguments);

  004eb	8b 85 f8 fd ff
	ff		 mov	 eax, DWORD PTR _pArguments$[ebp]
  004f1	50		 push	 eax
  004f2	8b 4d 0c	 mov	 ecx, DWORD PTR _lpszMsg$[ebp]
  004f5	51		 push	 ecx
  004f6	8d 95 fc fd ff
	ff		 lea	 edx, DWORD PTR _szBuffer$[ebp]
  004fc	52		 push	 edx
  004fd	e8 00 00 00 00	 call	 _vsprintf
  00502	83 c4 0c	 add	 esp, 12			; 0000000cH

; 238  : 	va_end(pArguments);

  00505	c7 85 f8 fd ff
	ff 00 00 00 00	 mov	 DWORD PTR _pArguments$[ebp], 0

; 239  : 
; 240  : 	PMSG_NOTICE pNotice;
; 241  : 	TNotice::MakeNoticeMsg(&pNotice, 0, szBuffer);

  0050f	8d 85 fc fd ff
	ff		 lea	 eax, DWORD PTR _szBuffer$[ebp]
  00515	50		 push	 eax
  00516	6a 00		 push	 0
  00518	8d 8d e8 fc ff
	ff		 lea	 ecx, DWORD PTR _pNotice$[ebp]
  0051e	51		 push	 ecx
  0051f	e8 00 00 00 00	 call	 ?MakeNoticeMsg@TNotice@@SAXPAXEPAD@Z ; TNotice::MakeNoticeMsg
  00524	83 c4 0c	 add	 esp, 12			; 0000000cH

; 242  : 
; 243  : 	for ( int iCount=OBJ_STARTUSERINDEX;iCount<OBJMAX;iCount++)

  00527	c7 85 e4 fc ff
	ff b0 36 00 00	 mov	 DWORD PTR _iCount$228520[ebp], 14000 ; 000036b0H
  00531	eb 0f		 jmp	 SHORT $LN4@SendMsgKau
$LN3@SendMsgKau:
  00533	8b 85 e4 fc ff
	ff		 mov	 eax, DWORD PTR _iCount$228520[ebp]
  00539	83 c0 01	 add	 eax, 1
  0053c	89 85 e4 fc ff
	ff		 mov	 DWORD PTR _iCount$228520[ebp], eax
$LN4@SendMsgKau:
  00542	81 bd e4 fc ff
	ff 98 3a 00 00	 cmp	 DWORD PTR _iCount$228520[ebp], 15000 ; 00003a98H
  0054c	7d 6f		 jge	 SHORT $LN6@SendMsgKau

; 244  : 	{
; 245  : 		if ( gObj[iCount].Connected == PLAYER_PLAYING &&
; 246  : 			 gObj[iCount].Type == OBJ_USER &&
; 247  : 			 gObj[iCount].MapNumber == MAP_INDEX_KANTURU_BOSS)

  0054e	8b 85 e4 fc ff
	ff		 mov	 eax, DWORD PTR _iCount$228520[ebp]
  00554	69 c0 38 2b 00
	00		 imul	 eax, 11064		; 00002b38H
  0055a	8b 0d 00 00 00
	00		 mov	 ecx, DWORD PTR ?gObj@@3PAUOBJECTSTRUCT@@A ; gObj
  00560	83 7c 01 04 03	 cmp	 DWORD PTR [ecx+eax+4], 3
  00565	75 51		 jne	 SHORT $LN1@SendMsgKau
  00567	8b 85 e4 fc ff
	ff		 mov	 eax, DWORD PTR _iCount$228520[ebp]
  0056d	69 c0 38 2b 00
	00		 imul	 eax, 11064		; 00002b38H
  00573	8b 0d 00 00 00
	00		 mov	 ecx, DWORD PTR ?gObj@@3PAUOBJECTSTRUCT@@A ; gObj
  00579	0f b7 54 01 68	 movzx	 edx, WORD PTR [ecx+eax+104]
  0057e	83 fa 01	 cmp	 edx, 1
  00581	75 35		 jne	 SHORT $LN1@SendMsgKau
  00583	8b 85 e4 fc ff
	ff		 mov	 eax, DWORD PTR _iCount$228520[ebp]
  00589	69 c0 38 2b 00
	00		 imul	 eax, 11064		; 00002b38H
  0058f	8b 0d 00 00 00
	00		 mov	 ecx, DWORD PTR ?gObj@@3PAUOBJECTSTRUCT@@A ; gObj
  00595	0f b6 94 01 49
	01 00 00	 movzx	 edx, BYTE PTR [ecx+eax+329]
  0059d	83 fa 27	 cmp	 edx, 39			; 00000027H
  005a0	75 16		 jne	 SHORT $LN1@SendMsgKau

; 248  : 		{
; 249  : 			TNotice::SendNoticeToUser(iCount, &pNotice);

  005a2	8d 85 e8 fc ff
	ff		 lea	 eax, DWORD PTR _pNotice$[ebp]
  005a8	50		 push	 eax
  005a9	8b 8d e4 fc ff
	ff		 mov	 ecx, DWORD PTR _iCount$228520[ebp]
  005af	51		 push	 ecx
  005b0	e8 00 00 00 00	 call	 ?SendNoticeToUser@TNotice@@SAXHPAX@Z ; TNotice::SendNoticeToUser
  005b5	83 c4 08	 add	 esp, 8
$LN1@SendMsgKau:

; 250  : 		}
; 251  : 	}

  005b8	e9 76 ff ff ff	 jmp	 $LN3@SendMsgKau
$LN6@SendMsgKau:

; 252  : }

  005bd	5f		 pop	 edi
  005be	5e		 pop	 esi
  005bf	5b		 pop	 ebx
  005c0	8b 4d fc	 mov	 ecx, DWORD PTR __$ArrayPad$[ebp]
  005c3	33 cd		 xor	 ecx, ebp
  005c5	e8 00 00 00 00	 call	 @__security_check_cookie@4
  005ca	8b e5		 mov	 esp, ebp
  005cc	5d		 pop	 ebp
  005cd	c3		 ret	 0
?SendMsgKauturuBossMapUser@CKanturuUtil@@QAAXPADZZ ENDP	; CKanturuUtil::SendMsgKauturuBossMapUser
; Function compile flags: /Odtp /ZI
_iCount$228546 = -8					; size = 4
_this$ = -4						; size = 4
_lpMsg$ = 8						; size = 4
_iSize$ = 12						; size = 4
?SendDataKanturuBossMapUser@CKanturuUtil@@QAEXPAEH@Z PROC ; CKanturuUtil::SendDataKanturuBossMapUser
; _this$ = ecx

; 257  : {

  005d0	55		 push	 ebp
  005d1	8b ec		 mov	 ebp, esp
  005d3	83 ec 48	 sub	 esp, 72			; 00000048H
  005d6	53		 push	 ebx
  005d7	56		 push	 esi
  005d8	57		 push	 edi
  005d9	89 4d fc	 mov	 DWORD PTR _this$[ebp], ecx

; 258  : 	for ( int iCount=OBJ_STARTUSERINDEX;iCount<OBJMAX;iCount++)

  005dc	c7 45 f8 b0 36
	00 00		 mov	 DWORD PTR _iCount$228546[ebp], 14000 ; 000036b0H
  005e3	eb 09		 jmp	 SHORT $LN4@SendDataKa@2
$LN3@SendDataKa@2:
  005e5	8b 45 f8	 mov	 eax, DWORD PTR _iCount$228546[ebp]
  005e8	83 c0 01	 add	 eax, 1
  005eb	89 45 f8	 mov	 DWORD PTR _iCount$228546[ebp], eax
$LN4@SendDataKa@2:
  005ee	81 7d f8 98 3a
	00 00		 cmp	 DWORD PTR _iCount$228546[ebp], 15000 ; 00003a98H
  005f5	7d 61		 jge	 SHORT $LN5@SendDataKa@2

; 259  : 	{
; 260  : 		if ( gObj[iCount].Connected == PLAYER_PLAYING &&
; 261  : 			 gObj[iCount].Type == OBJ_USER &&
; 262  : 			 gObj[iCount].MapNumber == MAP_INDEX_KANTURU_BOSS)

  005f7	8b 45 f8	 mov	 eax, DWORD PTR _iCount$228546[ebp]
  005fa	69 c0 38 2b 00
	00		 imul	 eax, 11064		; 00002b38H
  00600	8b 0d 00 00 00
	00		 mov	 ecx, DWORD PTR ?gObj@@3PAUOBJECTSTRUCT@@A ; gObj
  00606	83 7c 01 04 03	 cmp	 DWORD PTR [ecx+eax+4], 3
  0060b	75 49		 jne	 SHORT $LN1@SendDataKa@2
  0060d	8b 45 f8	 mov	 eax, DWORD PTR _iCount$228546[ebp]
  00610	69 c0 38 2b 00
	00		 imul	 eax, 11064		; 00002b38H
  00616	8b 0d 00 00 00
	00		 mov	 ecx, DWORD PTR ?gObj@@3PAUOBJECTSTRUCT@@A ; gObj
  0061c	0f b7 54 01 68	 movzx	 edx, WORD PTR [ecx+eax+104]
  00621	83 fa 01	 cmp	 edx, 1
  00624	75 30		 jne	 SHORT $LN1@SendDataKa@2
  00626	8b 45 f8	 mov	 eax, DWORD PTR _iCount$228546[ebp]
  00629	69 c0 38 2b 00
	00		 imul	 eax, 11064		; 00002b38H
  0062f	8b 0d 00 00 00
	00		 mov	 ecx, DWORD PTR ?gObj@@3PAUOBJECTSTRUCT@@A ; gObj
  00635	0f b6 94 01 49
	01 00 00	 movzx	 edx, BYTE PTR [ecx+eax+329]
  0063d	83 fa 27	 cmp	 edx, 39			; 00000027H
  00640	75 14		 jne	 SHORT $LN1@SendDataKa@2

; 263  : 		{
; 264  : 			DataSend(iCount, lpMsg, iSize);

  00642	8b 45 0c	 mov	 eax, DWORD PTR _iSize$[ebp]
  00645	50		 push	 eax
  00646	8b 4d 08	 mov	 ecx, DWORD PTR _lpMsg$[ebp]
  00649	51		 push	 ecx
  0064a	8b 55 f8	 mov	 edx, DWORD PTR _iCount$228546[ebp]
  0064d	52		 push	 edx
  0064e	e8 00 00 00 00	 call	 ?DataSend@@YAHHPAEK@Z	; DataSend
  00653	83 c4 0c	 add	 esp, 12			; 0000000cH
$LN1@SendDataKa@2:

; 265  : 		}
; 266  : 	}

  00656	eb 8d		 jmp	 SHORT $LN3@SendDataKa@2
$LN5@SendDataKa@2:

; 267  : }

  00658	5f		 pop	 edi
  00659	5e		 pop	 esi
  0065a	5b		 pop	 ebx
  0065b	8b e5		 mov	 esp, ebp
  0065d	5d		 pop	 ebp
  0065e	c2 08 00	 ret	 8
?SendDataKanturuBossMapUser@CKanturuUtil@@QAEXPAEH@Z ENDP ; CKanturuUtil::SendDataKanturuBossMapUser
_TEXT	ENDS
PUBLIC	__$ArrayPad$
PUBLIC	?SendMsgKauturuMapUser@CKanturuUtil@@QAAXPADZZ	; CKanturuUtil::SendMsgKauturuMapUser
; Function compile flags: /Odtp /ZI
_TEXT	SEGMENT
_iCount$228565 = -796					; size = 4
_pNotice$ = -792					; size = 272
_pArguments$ = -520					; size = 4
_szBuffer$ = -516					; size = 512
__$ArrayPad$ = -4					; size = 4
_this$ = 8						; size = 4
_lpszMsg$ = 12						; size = 4
?SendMsgKauturuMapUser@CKanturuUtil@@QAAXPADZZ PROC	; CKanturuUtil::SendMsgKauturuMapUser

; 272  : {

  00670	55		 push	 ebp
  00671	8b ec		 mov	 ebp, esp
  00673	81 ec 5c 03 00
	00		 sub	 esp, 860		; 0000035cH
  00679	a1 00 00 00 00	 mov	 eax, DWORD PTR ___security_cookie
  0067e	33 c5		 xor	 eax, ebp
  00680	89 45 fc	 mov	 DWORD PTR __$ArrayPad$[ebp], eax
  00683	53		 push	 ebx
  00684	56		 push	 esi
  00685	57		 push	 edi

; 273  : 	if ( !lpszMsg )

  00686	83 7d 0c 00	 cmp	 DWORD PTR _lpszMsg$[ebp], 0
  0068a	75 05		 jne	 SHORT $LN6@SendMsgKau@2

; 274  : 		return;

  0068c	e9 42 01 00 00	 jmp	 $LN7@SendMsgKau@2
$LN6@SendMsgKau@2:

; 275  : 
; 276  : 	char szBuffer[512] = "";

  00691	a0 00 00 00 00	 mov	 al, BYTE PTR ??_C@_00CNPNBAHC@?$AA@
  00696	88 85 fc fd ff
	ff		 mov	 BYTE PTR _szBuffer$[ebp], al
  0069c	68 ff 01 00 00	 push	 511			; 000001ffH
  006a1	6a 00		 push	 0
  006a3	8d 85 fd fd ff
	ff		 lea	 eax, DWORD PTR _szBuffer$[ebp+1]
  006a9	50		 push	 eax
  006aa	e8 00 00 00 00	 call	 _memset
  006af	83 c4 0c	 add	 esp, 12			; 0000000cH

; 277  : 	va_list pArguments;
; 278  : 
; 279  : 	va_start(pArguments, lpszMsg);

  006b2	8d 45 10	 lea	 eax, DWORD PTR _lpszMsg$[ebp+4]
  006b5	89 85 f8 fd ff
	ff		 mov	 DWORD PTR _pArguments$[ebp], eax

; 280  : 	vsprintf(szBuffer, lpszMsg, pArguments);

  006bb	8b 85 f8 fd ff
	ff		 mov	 eax, DWORD PTR _pArguments$[ebp]
  006c1	50		 push	 eax
  006c2	8b 4d 0c	 mov	 ecx, DWORD PTR _lpszMsg$[ebp]
  006c5	51		 push	 ecx
  006c6	8d 95 fc fd ff
	ff		 lea	 edx, DWORD PTR _szBuffer$[ebp]
  006cc	52		 push	 edx
  006cd	e8 00 00 00 00	 call	 _vsprintf
  006d2	83 c4 0c	 add	 esp, 12			; 0000000cH

; 281  : 	va_end(pArguments);

  006d5	c7 85 f8 fd ff
	ff 00 00 00 00	 mov	 DWORD PTR _pArguments$[ebp], 0

; 282  : 
; 283  : 	PMSG_NOTICE pNotice;
; 284  : 	TNotice::MakeNoticeMsg(&pNotice, 0, szBuffer);

  006df	8d 85 fc fd ff
	ff		 lea	 eax, DWORD PTR _szBuffer$[ebp]
  006e5	50		 push	 eax
  006e6	6a 00		 push	 0
  006e8	8d 8d e8 fc ff
	ff		 lea	 ecx, DWORD PTR _pNotice$[ebp]
  006ee	51		 push	 ecx
  006ef	e8 00 00 00 00	 call	 ?MakeNoticeMsg@TNotice@@SAXPAXEPAD@Z ; TNotice::MakeNoticeMsg
  006f4	83 c4 0c	 add	 esp, 12			; 0000000cH

; 285  : 
; 286  : 	for ( int iCount=OBJ_STARTUSERINDEX;iCount<OBJMAX;iCount++)

  006f7	c7 85 e4 fc ff
	ff b0 36 00 00	 mov	 DWORD PTR _iCount$228565[ebp], 14000 ; 000036b0H
  00701	eb 0f		 jmp	 SHORT $LN5@SendMsgKau@2
$LN4@SendMsgKau@2:
  00703	8b 85 e4 fc ff
	ff		 mov	 eax, DWORD PTR _iCount$228565[ebp]
  00709	83 c0 01	 add	 eax, 1
  0070c	89 85 e4 fc ff
	ff		 mov	 DWORD PTR _iCount$228565[ebp], eax
$LN5@SendMsgKau@2:
  00712	81 bd e4 fc ff
	ff 98 3a 00 00	 cmp	 DWORD PTR _iCount$228565[ebp], 15000 ; 00003a98H
  0071c	0f 8d b1 00 00
	00		 jge	 $LN7@SendMsgKau@2

; 287  : 	{
; 288  : 		if ( gObj[iCount].Connected == PLAYER_PLAYING &&
; 289  : 			 gObj[iCount].Type == OBJ_USER &&
; 290  : 			 ( gObj[iCount].MapNumber == MAP_INDEX_KANTURU1 ||
; 291  : 			 gObj[iCount].MapNumber == MAP_INDEX_KANTURU2 ||
; 292  : 			 gObj[iCount].MapNumber == MAP_INDEX_KANTURU_BOSS ) )

  00722	8b 85 e4 fc ff
	ff		 mov	 eax, DWORD PTR _iCount$228565[ebp]
  00728	69 c0 38 2b 00
	00		 imul	 eax, 11064		; 00002b38H
  0072e	8b 0d 00 00 00
	00		 mov	 ecx, DWORD PTR ?gObj@@3PAUOBJECTSTRUCT@@A ; gObj
  00734	83 7c 01 04 03	 cmp	 DWORD PTR [ecx+eax+4], 3
  00739	0f 85 8f 00 00
	00		 jne	 $LN2@SendMsgKau@2
  0073f	8b 85 e4 fc ff
	ff		 mov	 eax, DWORD PTR _iCount$228565[ebp]
  00745	69 c0 38 2b 00
	00		 imul	 eax, 11064		; 00002b38H
  0074b	8b 0d 00 00 00
	00		 mov	 ecx, DWORD PTR ?gObj@@3PAUOBJECTSTRUCT@@A ; gObj
  00751	0f b7 54 01 68	 movzx	 edx, WORD PTR [ecx+eax+104]
  00756	83 fa 01	 cmp	 edx, 1
  00759	75 73		 jne	 SHORT $LN2@SendMsgKau@2
  0075b	8b 85 e4 fc ff
	ff		 mov	 eax, DWORD PTR _iCount$228565[ebp]
  00761	69 c0 38 2b 00
	00		 imul	 eax, 11064		; 00002b38H
  00767	8b 0d 00 00 00
	00		 mov	 ecx, DWORD PTR ?gObj@@3PAUOBJECTSTRUCT@@A ; gObj
  0076d	0f b6 94 01 49
	01 00 00	 movzx	 edx, BYTE PTR [ecx+eax+329]
  00775	83 fa 25	 cmp	 edx, 37			; 00000025H
  00778	74 3e		 je	 SHORT $LN1@SendMsgKau@2
  0077a	8b 85 e4 fc ff
	ff		 mov	 eax, DWORD PTR _iCount$228565[ebp]
  00780	69 c0 38 2b 00
	00		 imul	 eax, 11064		; 00002b38H
  00786	8b 0d 00 00 00
	00		 mov	 ecx, DWORD PTR ?gObj@@3PAUOBJECTSTRUCT@@A ; gObj
  0078c	0f b6 94 01 49
	01 00 00	 movzx	 edx, BYTE PTR [ecx+eax+329]
  00794	83 fa 26	 cmp	 edx, 38			; 00000026H
  00797	74 1f		 je	 SHORT $LN1@SendMsgKau@2
  00799	8b 85 e4 fc ff
	ff		 mov	 eax, DWORD PTR _iCount$228565[ebp]
  0079f	69 c0 38 2b 00
	00		 imul	 eax, 11064		; 00002b38H
  007a5	8b 0d 00 00 00
	00		 mov	 ecx, DWORD PTR ?gObj@@3PAUOBJECTSTRUCT@@A ; gObj
  007ab	0f b6 94 01 49
	01 00 00	 movzx	 edx, BYTE PTR [ecx+eax+329]
  007b3	83 fa 27	 cmp	 edx, 39			; 00000027H
  007b6	75 16		 jne	 SHORT $LN2@SendMsgKau@2
$LN1@SendMsgKau@2:

; 293  : 		{
; 294  : 			TNotice::SendNoticeToUser(iCount, &pNotice);

  007b8	8d 85 e8 fc ff
	ff		 lea	 eax, DWORD PTR _pNotice$[ebp]
  007be	50		 push	 eax
  007bf	8b 8d e4 fc ff
	ff		 mov	 ecx, DWORD PTR _iCount$228565[ebp]
  007c5	51		 push	 ecx
  007c6	e8 00 00 00 00	 call	 ?SendNoticeToUser@TNotice@@SAXHPAX@Z ; TNotice::SendNoticeToUser
  007cb	83 c4 08	 add	 esp, 8
$LN2@SendMsgKau@2:

; 295  : 		}
; 296  : 	}

  007ce	e9 30 ff ff ff	 jmp	 $LN4@SendMsgKau@2
$LN7@SendMsgKau@2:

; 297  : }

  007d3	5f		 pop	 edi
  007d4	5e		 pop	 esi
  007d5	5b		 pop	 ebx
  007d6	8b 4d fc	 mov	 ecx, DWORD PTR __$ArrayPad$[ebp]
  007d9	33 cd		 xor	 ecx, ebp
  007db	e8 00 00 00 00	 call	 @__security_check_cookie@4
  007e0	8b e5		 mov	 esp, ebp
  007e2	5d		 pop	 ebp
  007e3	c3		 ret	 0
?SendMsgKauturuMapUser@CKanturuUtil@@QAAXPADZZ ENDP	; CKanturuUtil::SendMsgKauturuMapUser
_TEXT	ENDS
PUBLIC	?SendDataKanturuMapUser@CKanturuUtil@@QAEXPAEH@Z ; CKanturuUtil::SendDataKanturuMapUser
; Function compile flags: /Odtp /ZI
_TEXT	SEGMENT
_iCount$228576 = -8					; size = 4
_this$ = -4						; size = 4
_lpMsg$ = 8						; size = 4
_iSize$ = 12						; size = 4
?SendDataKanturuMapUser@CKanturuUtil@@QAEXPAEH@Z PROC	; CKanturuUtil::SendDataKanturuMapUser
; _this$ = ecx

; 301  : {

  007f0	55		 push	 ebp
  007f1	8b ec		 mov	 ebp, esp
  007f3	83 ec 48	 sub	 esp, 72			; 00000048H
  007f6	53		 push	 ebx
  007f7	56		 push	 esi
  007f8	57		 push	 edi
  007f9	89 4d fc	 mov	 DWORD PTR _this$[ebp], ecx

; 302  : 	for ( int iCount=OBJ_STARTUSERINDEX;iCount<OBJMAX;iCount++)

  007fc	c7 45 f8 b0 36
	00 00		 mov	 DWORD PTR _iCount$228576[ebp], 14000 ; 000036b0H
  00803	eb 09		 jmp	 SHORT $LN5@SendDataKa@3
$LN4@SendDataKa@3:
  00805	8b 45 f8	 mov	 eax, DWORD PTR _iCount$228576[ebp]
  00808	83 c0 01	 add	 eax, 1
  0080b	89 45 f8	 mov	 DWORD PTR _iCount$228576[ebp], eax
$LN5@SendDataKa@3:
  0080e	81 7d f8 98 3a
	00 00		 cmp	 DWORD PTR _iCount$228576[ebp], 15000 ; 00003a98H
  00815	0f 8d a0 00 00
	00		 jge	 $LN6@SendDataKa@3

; 303  : 	{
; 304  : 		if ( gObj[iCount].Connected == PLAYER_PLAYING &&
; 305  : 			 gObj[iCount].Type == OBJ_USER &&
; 306  : 			 ( gObj[iCount].MapNumber == MAP_INDEX_KANTURU1 ||
; 307  : 			 gObj[iCount].MapNumber == MAP_INDEX_KANTURU2 ||
; 308  : 			 gObj[iCount].MapNumber == MAP_INDEX_KANTURU_BOSS ) )

  0081b	8b 45 f8	 mov	 eax, DWORD PTR _iCount$228576[ebp]
  0081e	69 c0 38 2b 00
	00		 imul	 eax, 11064		; 00002b38H
  00824	8b 0d 00 00 00
	00		 mov	 ecx, DWORD PTR ?gObj@@3PAUOBJECTSTRUCT@@A ; gObj
  0082a	83 7c 01 04 03	 cmp	 DWORD PTR [ecx+eax+4], 3
  0082f	0f 85 81 00 00
	00		 jne	 $LN2@SendDataKa@3
  00835	8b 45 f8	 mov	 eax, DWORD PTR _iCount$228576[ebp]
  00838	69 c0 38 2b 00
	00		 imul	 eax, 11064		; 00002b38H
  0083e	8b 0d 00 00 00
	00		 mov	 ecx, DWORD PTR ?gObj@@3PAUOBJECTSTRUCT@@A ; gObj
  00844	0f b7 54 01 68	 movzx	 edx, WORD PTR [ecx+eax+104]
  00849	83 fa 01	 cmp	 edx, 1
  0084c	75 68		 jne	 SHORT $LN2@SendDataKa@3
  0084e	8b 45 f8	 mov	 eax, DWORD PTR _iCount$228576[ebp]
  00851	69 c0 38 2b 00
	00		 imul	 eax, 11064		; 00002b38H
  00857	8b 0d 00 00 00
	00		 mov	 ecx, DWORD PTR ?gObj@@3PAUOBJECTSTRUCT@@A ; gObj
  0085d	0f b6 94 01 49
	01 00 00	 movzx	 edx, BYTE PTR [ecx+eax+329]
  00865	83 fa 25	 cmp	 edx, 37			; 00000025H
  00868	74 38		 je	 SHORT $LN1@SendDataKa@3
  0086a	8b 45 f8	 mov	 eax, DWORD PTR _iCount$228576[ebp]
  0086d	69 c0 38 2b 00
	00		 imul	 eax, 11064		; 00002b38H
  00873	8b 0d 00 00 00
	00		 mov	 ecx, DWORD PTR ?gObj@@3PAUOBJECTSTRUCT@@A ; gObj
  00879	0f b6 94 01 49
	01 00 00	 movzx	 edx, BYTE PTR [ecx+eax+329]
  00881	83 fa 26	 cmp	 edx, 38			; 00000026H
  00884	74 1c		 je	 SHORT $LN1@SendDataKa@3
  00886	8b 45 f8	 mov	 eax, DWORD PTR _iCount$228576[ebp]
  00889	69 c0 38 2b 00
	00		 imul	 eax, 11064		; 00002b38H
  0088f	8b 0d 00 00 00
	00		 mov	 ecx, DWORD PTR ?gObj@@3PAUOBJECTSTRUCT@@A ; gObj
  00895	0f b6 94 01 49
	01 00 00	 movzx	 edx, BYTE PTR [ecx+eax+329]
  0089d	83 fa 27	 cmp	 edx, 39			; 00000027H
  008a0	75 14		 jne	 SHORT $LN2@SendDataKa@3
$LN1@SendDataKa@3:

; 309  : 		{
; 310  : 			DataSend(iCount, lpMsg, iSize);

  008a2	8b 45 0c	 mov	 eax, DWORD PTR _iSize$[ebp]
  008a5	50		 push	 eax
  008a6	8b 4d 08	 mov	 ecx, DWORD PTR _lpMsg$[ebp]
  008a9	51		 push	 ecx
  008aa	8b 55 f8	 mov	 edx, DWORD PTR _iCount$228576[ebp]
  008ad	52		 push	 edx
  008ae	e8 00 00 00 00	 call	 ?DataSend@@YAHHPAEK@Z	; DataSend
  008b3	83 c4 0c	 add	 esp, 12			; 0000000cH
$LN2@SendDataKa@3:

; 311  : 		}
; 312  : 	}

  008b6	e9 4a ff ff ff	 jmp	 $LN4@SendDataKa@3
$LN6@SendDataKa@3:

; 313  : }

  008bb	5f		 pop	 edi
  008bc	5e		 pop	 esi
  008bd	5b		 pop	 ebx
  008be	8b e5		 mov	 esp, ebp
  008c0	5d		 pop	 ebp
  008c1	c2 08 00	 ret	 8
?SendDataKanturuMapUser@CKanturuUtil@@QAEXPAEH@Z ENDP	; CKanturuUtil::SendDataKanturuMapUser
_TEXT	ENDS
PUBLIC	__$ArrayPad$
PUBLIC	?SendMsgAllUser@CKanturuUtil@@QAAXPADZZ		; CKanturuUtil::SendMsgAllUser
EXTRN	?SendNoticeToAllUser@TNotice@@SAXPAX@Z:PROC	; TNotice::SendNoticeToAllUser
; Function compile flags: /Odtp /ZI
_TEXT	SEGMENT
_pNotice$ = -792					; size = 272
_pArguments$ = -520					; size = 4
_szBuffer$ = -516					; size = 512
__$ArrayPad$ = -4					; size = 4
_this$ = 8						; size = 4
_lpszMsg$ = 12						; size = 4
?SendMsgAllUser@CKanturuUtil@@QAAXPADZZ PROC		; CKanturuUtil::SendMsgAllUser

; 318  : {

  008d0	55		 push	 ebp
  008d1	8b ec		 mov	 ebp, esp
  008d3	81 ec 58 03 00
	00		 sub	 esp, 856		; 00000358H
  008d9	a1 00 00 00 00	 mov	 eax, DWORD PTR ___security_cookie
  008de	33 c5		 xor	 eax, ebp
  008e0	89 45 fc	 mov	 DWORD PTR __$ArrayPad$[ebp], eax
  008e3	53		 push	 ebx
  008e4	56		 push	 esi
  008e5	57		 push	 edi

; 319  : 	if ( !lpszMsg )

  008e6	83 7d 0c 00	 cmp	 DWORD PTR _lpszMsg$[ebp], 0
  008ea	75 02		 jne	 SHORT $LN1@SendMsgAll

; 320  : 		return;

  008ec	eb 75		 jmp	 SHORT $LN2@SendMsgAll
$LN1@SendMsgAll:

; 321  : 
; 322  : 	char szBuffer[512] = "";

  008ee	a0 00 00 00 00	 mov	 al, BYTE PTR ??_C@_00CNPNBAHC@?$AA@
  008f3	88 85 fc fd ff
	ff		 mov	 BYTE PTR _szBuffer$[ebp], al
  008f9	68 ff 01 00 00	 push	 511			; 000001ffH
  008fe	6a 00		 push	 0
  00900	8d 85 fd fd ff
	ff		 lea	 eax, DWORD PTR _szBuffer$[ebp+1]
  00906	50		 push	 eax
  00907	e8 00 00 00 00	 call	 _memset
  0090c	83 c4 0c	 add	 esp, 12			; 0000000cH

; 323  : 	va_list pArguments;
; 324  : 
; 325  : 	va_start(pArguments, lpszMsg);

  0090f	8d 45 10	 lea	 eax, DWORD PTR _lpszMsg$[ebp+4]
  00912	89 85 f8 fd ff
	ff		 mov	 DWORD PTR _pArguments$[ebp], eax

; 326  : 	vsprintf(szBuffer, lpszMsg, pArguments);

  00918	8b 85 f8 fd ff
	ff		 mov	 eax, DWORD PTR _pArguments$[ebp]
  0091e	50		 push	 eax
  0091f	8b 4d 0c	 mov	 ecx, DWORD PTR _lpszMsg$[ebp]
  00922	51		 push	 ecx
  00923	8d 95 fc fd ff
	ff		 lea	 edx, DWORD PTR _szBuffer$[ebp]
  00929	52		 push	 edx
  0092a	e8 00 00 00 00	 call	 _vsprintf
  0092f	83 c4 0c	 add	 esp, 12			; 0000000cH

; 327  : 	va_end(pArguments);

  00932	c7 85 f8 fd ff
	ff 00 00 00 00	 mov	 DWORD PTR _pArguments$[ebp], 0

; 328  : 
; 329  : 	PMSG_NOTICE pNotice;
; 330  : 	TNotice::MakeNoticeMsg(&pNotice, 0, szBuffer);

  0093c	8d 85 fc fd ff
	ff		 lea	 eax, DWORD PTR _szBuffer$[ebp]
  00942	50		 push	 eax
  00943	6a 00		 push	 0
  00945	8d 8d e8 fc ff
	ff		 lea	 ecx, DWORD PTR _pNotice$[ebp]
  0094b	51		 push	 ecx
  0094c	e8 00 00 00 00	 call	 ?MakeNoticeMsg@TNotice@@SAXPAXEPAD@Z ; TNotice::MakeNoticeMsg
  00951	83 c4 0c	 add	 esp, 12			; 0000000cH

; 331  : 	
; 332  : 	TNotice::SendNoticeToAllUser(&pNotice);

  00954	8d 85 e8 fc ff
	ff		 lea	 eax, DWORD PTR _pNotice$[ebp]
  0095a	50		 push	 eax
  0095b	e8 00 00 00 00	 call	 ?SendNoticeToAllUser@TNotice@@SAXPAX@Z ; TNotice::SendNoticeToAllUser
  00960	83 c4 04	 add	 esp, 4
$LN2@SendMsgAll:

; 333  : }

  00963	5f		 pop	 edi
  00964	5e		 pop	 esi
  00965	5b		 pop	 ebx
  00966	8b 4d fc	 mov	 ecx, DWORD PTR __$ArrayPad$[ebp]
  00969	33 cd		 xor	 ecx, ebp
  0096b	e8 00 00 00 00	 call	 @__security_check_cookie@4
  00970	8b e5		 mov	 esp, ebp
  00972	5d		 pop	 ebp
  00973	c3		 ret	 0
?SendMsgAllUser@CKanturuUtil@@QAAXPADZZ ENDP		; CKanturuUtil::SendMsgAllUser
_TEXT	ENDS
PUBLIC	?SendDataAllUser@CKanturuUtil@@QAEXPAEH@Z	; CKanturuUtil::SendDataAllUser
; Function compile flags: /Odtp /ZI
_TEXT	SEGMENT
_iCount$228601 = -8					; size = 4
_this$ = -4						; size = 4
_lpMsg$ = 8						; size = 4
_iSize$ = 12						; size = 4
?SendDataAllUser@CKanturuUtil@@QAEXPAEH@Z PROC		; CKanturuUtil::SendDataAllUser
; _this$ = ecx

; 339  : {

  00980	55		 push	 ebp
  00981	8b ec		 mov	 ebp, esp
  00983	83 ec 48	 sub	 esp, 72			; 00000048H
  00986	53		 push	 ebx
  00987	56		 push	 esi
  00988	57		 push	 edi
  00989	89 4d fc	 mov	 DWORD PTR _this$[ebp], ecx

; 340  : 	for ( int iCount=OBJ_STARTUSERINDEX;iCount<OBJMAX;iCount++)

  0098c	c7 45 f8 b0 36
	00 00		 mov	 DWORD PTR _iCount$228601[ebp], 14000 ; 000036b0H
  00993	eb 09		 jmp	 SHORT $LN4@SendDataAl
$LN3@SendDataAl:
  00995	8b 45 f8	 mov	 eax, DWORD PTR _iCount$228601[ebp]
  00998	83 c0 01	 add	 eax, 1
  0099b	89 45 f8	 mov	 DWORD PTR _iCount$228601[ebp], eax
$LN4@SendDataAl:
  0099e	81 7d f8 98 3a
	00 00		 cmp	 DWORD PTR _iCount$228601[ebp], 15000 ; 00003a98H
  009a5	7d 45		 jge	 SHORT $LN5@SendDataAl

; 341  : 	{
; 342  : 		if ( gObj[iCount].Connected == PLAYER_PLAYING &&
; 343  : 			 gObj[iCount].Type == OBJ_USER )

  009a7	8b 45 f8	 mov	 eax, DWORD PTR _iCount$228601[ebp]
  009aa	69 c0 38 2b 00
	00		 imul	 eax, 11064		; 00002b38H
  009b0	8b 0d 00 00 00
	00		 mov	 ecx, DWORD PTR ?gObj@@3PAUOBJECTSTRUCT@@A ; gObj
  009b6	83 7c 01 04 03	 cmp	 DWORD PTR [ecx+eax+4], 3
  009bb	75 2d		 jne	 SHORT $LN1@SendDataAl
  009bd	8b 45 f8	 mov	 eax, DWORD PTR _iCount$228601[ebp]
  009c0	69 c0 38 2b 00
	00		 imul	 eax, 11064		; 00002b38H
  009c6	8b 0d 00 00 00
	00		 mov	 ecx, DWORD PTR ?gObj@@3PAUOBJECTSTRUCT@@A ; gObj
  009cc	0f b7 54 01 68	 movzx	 edx, WORD PTR [ecx+eax+104]
  009d1	83 fa 01	 cmp	 edx, 1
  009d4	75 14		 jne	 SHORT $LN1@SendDataAl

; 344  : 		{
; 345  : 			DataSend(iCount, lpMsg, iSize);

  009d6	8b 45 0c	 mov	 eax, DWORD PTR _iSize$[ebp]
  009d9	50		 push	 eax
  009da	8b 4d 08	 mov	 ecx, DWORD PTR _lpMsg$[ebp]
  009dd	51		 push	 ecx
  009de	8b 55 f8	 mov	 edx, DWORD PTR _iCount$228601[ebp]
  009e1	52		 push	 edx
  009e2	e8 00 00 00 00	 call	 ?DataSend@@YAHHPAEK@Z	; DataSend
  009e7	83 c4 0c	 add	 esp, 12			; 0000000cH
$LN1@SendDataAl:

; 346  : 		}
; 347  : 	}

  009ea	eb a9		 jmp	 SHORT $LN3@SendDataAl
$LN5@SendDataAl:

; 348  : }

  009ec	5f		 pop	 edi
  009ed	5e		 pop	 esi
  009ee	5b		 pop	 ebx
  009ef	8b e5		 mov	 esp, ebp
  009f1	5d		 pop	 ebp
  009f2	c2 08 00	 ret	 8
?SendDataAllUser@CKanturuUtil@@QAEXPAEH@Z ENDP		; CKanturuUtil::SendDataAllUser
_TEXT	ENDS
PUBLIC	__$ArrayPad$
PUBLIC	?SendMsgToUser@CKanturuUtil@@QAAXHPADZZ		; CKanturuUtil::SendMsgToUser
; Function compile flags: /Odtp /ZI
_TEXT	SEGMENT
_pNotice$ = -792					; size = 272
_pArguments$ = -520					; size = 4
_szBuffer$ = -516					; size = 512
__$ArrayPad$ = -4					; size = 4
_this$ = 8						; size = 4
_iIndex$ = 12						; size = 4
_lpszMsg$ = 16						; size = 4
?SendMsgToUser@CKanturuUtil@@QAAXHPADZZ PROC		; CKanturuUtil::SendMsgToUser

; 352  : {

  00a00	55		 push	 ebp
  00a01	8b ec		 mov	 ebp, esp
  00a03	81 ec 58 03 00
	00		 sub	 esp, 856		; 00000358H
  00a09	a1 00 00 00 00	 mov	 eax, DWORD PTR ___security_cookie
  00a0e	33 c5		 xor	 eax, ebp
  00a10	89 45 fc	 mov	 DWORD PTR __$ArrayPad$[ebp], eax
  00a13	53		 push	 ebx
  00a14	56		 push	 esi
  00a15	57		 push	 edi

; 353  : 	if ( !lpszMsg )

  00a16	83 7d 10 00	 cmp	 DWORD PTR _lpszMsg$[ebp], 0
  00a1a	75 02		 jne	 SHORT $LN1@SendMsgToU

; 354  : 		return;

  00a1c	eb 79		 jmp	 SHORT $LN2@SendMsgToU
$LN1@SendMsgToU:

; 355  : 
; 356  : 	char szBuffer[512] = "";

  00a1e	a0 00 00 00 00	 mov	 al, BYTE PTR ??_C@_00CNPNBAHC@?$AA@
  00a23	88 85 fc fd ff
	ff		 mov	 BYTE PTR _szBuffer$[ebp], al
  00a29	68 ff 01 00 00	 push	 511			; 000001ffH
  00a2e	6a 00		 push	 0
  00a30	8d 85 fd fd ff
	ff		 lea	 eax, DWORD PTR _szBuffer$[ebp+1]
  00a36	50		 push	 eax
  00a37	e8 00 00 00 00	 call	 _memset
  00a3c	83 c4 0c	 add	 esp, 12			; 0000000cH

; 357  : 	va_list pArguments;
; 358  : 
; 359  : 	va_start(pArguments, lpszMsg);

  00a3f	8d 45 14	 lea	 eax, DWORD PTR _lpszMsg$[ebp+4]
  00a42	89 85 f8 fd ff
	ff		 mov	 DWORD PTR _pArguments$[ebp], eax

; 360  : 	vsprintf(szBuffer, lpszMsg, pArguments);

  00a48	8b 85 f8 fd ff
	ff		 mov	 eax, DWORD PTR _pArguments$[ebp]
  00a4e	50		 push	 eax
  00a4f	8b 4d 10	 mov	 ecx, DWORD PTR _lpszMsg$[ebp]
  00a52	51		 push	 ecx
  00a53	8d 95 fc fd ff
	ff		 lea	 edx, DWORD PTR _szBuffer$[ebp]
  00a59	52		 push	 edx
  00a5a	e8 00 00 00 00	 call	 _vsprintf
  00a5f	83 c4 0c	 add	 esp, 12			; 0000000cH

; 361  : 	va_end(pArguments);

  00a62	c7 85 f8 fd ff
	ff 00 00 00 00	 mov	 DWORD PTR _pArguments$[ebp], 0

; 362  : 
; 363  : 	PMSG_NOTICE pNotice;
; 364  : 	TNotice::MakeNoticeMsg(&pNotice, 0, szBuffer);

  00a6c	8d 85 fc fd ff
	ff		 lea	 eax, DWORD PTR _szBuffer$[ebp]
  00a72	50		 push	 eax
  00a73	6a 00		 push	 0
  00a75	8d 8d e8 fc ff
	ff		 lea	 ecx, DWORD PTR _pNotice$[ebp]
  00a7b	51		 push	 ecx
  00a7c	e8 00 00 00 00	 call	 ?MakeNoticeMsg@TNotice@@SAXPAXEPAD@Z ; TNotice::MakeNoticeMsg
  00a81	83 c4 0c	 add	 esp, 12			; 0000000cH

; 365  : 	
; 366  : 	TNotice::SendNoticeToUser(iIndex, &pNotice);

  00a84	8d 85 e8 fc ff
	ff		 lea	 eax, DWORD PTR _pNotice$[ebp]
  00a8a	50		 push	 eax
  00a8b	8b 4d 0c	 mov	 ecx, DWORD PTR _iIndex$[ebp]
  00a8e	51		 push	 ecx
  00a8f	e8 00 00 00 00	 call	 ?SendNoticeToUser@TNotice@@SAXHPAX@Z ; TNotice::SendNoticeToUser
  00a94	83 c4 08	 add	 esp, 8
$LN2@SendMsgToU:

; 367  : }

  00a97	5f		 pop	 edi
  00a98	5e		 pop	 esi
  00a99	5b		 pop	 ebx
  00a9a	8b 4d fc	 mov	 ecx, DWORD PTR __$ArrayPad$[ebp]
  00a9d	33 cd		 xor	 ecx, ebp
  00a9f	e8 00 00 00 00	 call	 @__security_check_cookie@4
  00aa4	8b e5		 mov	 esp, ebp
  00aa6	5d		 pop	 ebp
  00aa7	c3		 ret	 0
?SendMsgToUser@CKanturuUtil@@QAAXHPADZZ ENDP		; CKanturuUtil::SendMsgToUser
; Function compile flags: /Odtp /ZI
_this$ = -4						; size = 4
_iIndex$ = 8						; size = 4
_lpMsg$ = 12						; size = 4
_iSize$ = 16						; size = 4
?SendDataToUser@CKanturuUtil@@QAEXHPAEH@Z PROC		; CKanturuUtil::SendDataToUser
; _this$ = ecx

; 371  : {

  00ab0	55		 push	 ebp
  00ab1	8b ec		 mov	 ebp, esp
  00ab3	83 ec 44	 sub	 esp, 68			; 00000044H
  00ab6	53		 push	 ebx
  00ab7	56		 push	 esi
  00ab8	57		 push	 edi
  00ab9	89 4d fc	 mov	 DWORD PTR _this$[ebp], ecx

; 372  : 	if ( gObj[iIndex].Connected == PLAYER_PLAYING &&
; 373  : 		 gObj[iIndex].Type == OBJ_USER )

  00abc	8b 45 08	 mov	 eax, DWORD PTR _iIndex$[ebp]
  00abf	69 c0 38 2b 00
	00		 imul	 eax, 11064		; 00002b38H
  00ac5	8b 0d 00 00 00
	00		 mov	 ecx, DWORD PTR ?gObj@@3PAUOBJECTSTRUCT@@A ; gObj
  00acb	83 7c 01 04 03	 cmp	 DWORD PTR [ecx+eax+4], 3
  00ad0	75 2d		 jne	 SHORT $LN2@SendDataTo
  00ad2	8b 45 08	 mov	 eax, DWORD PTR _iIndex$[ebp]
  00ad5	69 c0 38 2b 00
	00		 imul	 eax, 11064		; 00002b38H
  00adb	8b 0d 00 00 00
	00		 mov	 ecx, DWORD PTR ?gObj@@3PAUOBJECTSTRUCT@@A ; gObj
  00ae1	0f b7 54 01 68	 movzx	 edx, WORD PTR [ecx+eax+104]
  00ae6	83 fa 01	 cmp	 edx, 1
  00ae9	75 14		 jne	 SHORT $LN2@SendDataTo

; 374  : 	{
; 375  : 		DataSend(iIndex, lpMsg, iSize);

  00aeb	8b 45 10	 mov	 eax, DWORD PTR _iSize$[ebp]
  00aee	50		 push	 eax
  00aef	8b 4d 0c	 mov	 ecx, DWORD PTR _lpMsg$[ebp]
  00af2	51		 push	 ecx
  00af3	8b 55 08	 mov	 edx, DWORD PTR _iIndex$[ebp]
  00af6	52		 push	 edx
  00af7	e8 00 00 00 00	 call	 ?DataSend@@YAHHPAEK@Z	; DataSend
  00afc	83 c4 0c	 add	 esp, 12			; 0000000cH
$LN2@SendDataTo:

; 376  : 	}
; 377  : }

  00aff	5f		 pop	 edi
  00b00	5e		 pop	 esi
  00b01	5b		 pop	 ebx
  00b02	8b e5		 mov	 esp, ebp
  00b04	5d		 pop	 ebp
  00b05	c2 0c 00	 ret	 12			; 0000000cH
?SendDataToUser@CKanturuUtil@@QAEXHPAEH@Z ENDP		; CKanturuUtil::SendDataToUser
_TEXT	ENDS
PUBLIC	__$ArrayPad$
PUBLIC	?SendKanturuChattingMsg@CKanturuUtil@@QAAXHPADZZ ; CKanturuUtil::SendKanturuChattingMsg
EXTRN	?ChatTargetSend@@YAXPAUOBJECTSTRUCT@@PADH@Z:PROC ; ChatTargetSend
EXTRN	_memcpy:PROC
; Function compile flags: /Odtp /ZI
_TEXT	SEGMENT
_iTargetNumber$228649 = -592				; size = 4
_i$228644 = -588					; size = 4
_szChat$ = -584						; size = 60
_pArguments$ = -524					; size = 4
_szBuffer$ = -520					; size = 512
_lpObj$ = -8						; size = 4
__$ArrayPad$ = -4					; size = 4
_this$ = 8						; size = 4
_iIndex$ = 12						; size = 4
_lpMsg$ = 16						; size = 4
?SendKanturuChattingMsg@CKanturuUtil@@QAAXHPADZZ PROC	; CKanturuUtil::SendKanturuChattingMsg

; 380  : {

  00b10	55		 push	 ebp
  00b11	8b ec		 mov	 ebp, esp
  00b13	81 ec 90 02 00
	00		 sub	 esp, 656		; 00000290H
  00b19	a1 00 00 00 00	 mov	 eax, DWORD PTR ___security_cookie
  00b1e	33 c5		 xor	 eax, ebp
  00b20	89 45 fc	 mov	 DWORD PTR __$ArrayPad$[ebp], eax
  00b23	53		 push	 ebx
  00b24	56		 push	 esi
  00b25	57		 push	 edi

; 381  : #if(TESTSERVER==0)
; 382  : 	return;

  00b26	e9 24 01 00 00	 jmp	 $LN8@SendKantur

; 383  : #endif
; 384  : 
; 385  : 	if ( !lpMsg )

  00b2b	83 7d 10 00	 cmp	 DWORD PTR _lpMsg$[ebp], 0
  00b2f	75 05		 jne	 SHORT $LN7@SendKantur

; 386  : 	{
; 387  : 		return;

  00b31	e9 19 01 00 00	 jmp	 $LN8@SendKantur
$LN7@SendKantur:

; 388  : 	}
; 389  : 
; 390  : 	LPOBJ lpObj = &gObj[iIndex];

  00b36	8b 45 0c	 mov	 eax, DWORD PTR _iIndex$[ebp]
  00b39	69 c0 38 2b 00
	00		 imul	 eax, 11064		; 00002b38H
  00b3f	03 05 00 00 00
	00		 add	 eax, DWORD PTR ?gObj@@3PAUOBJECTSTRUCT@@A ; gObj
  00b45	89 45 f8	 mov	 DWORD PTR _lpObj$[ebp], eax

; 391  : 	char szBuffer[512] = "";

  00b48	a0 00 00 00 00	 mov	 al, BYTE PTR ??_C@_00CNPNBAHC@?$AA@
  00b4d	88 85 f8 fd ff
	ff		 mov	 BYTE PTR _szBuffer$[ebp], al
  00b53	68 ff 01 00 00	 push	 511			; 000001ffH
  00b58	6a 00		 push	 0
  00b5a	8d 85 f9 fd ff
	ff		 lea	 eax, DWORD PTR _szBuffer$[ebp+1]
  00b60	50		 push	 eax
  00b61	e8 00 00 00 00	 call	 _memset
  00b66	83 c4 0c	 add	 esp, 12			; 0000000cH

; 392  : 	va_list pArguments;
; 393  : 
; 394  : 	va_start(pArguments, lpMsg);

  00b69	8d 45 14	 lea	 eax, DWORD PTR _lpMsg$[ebp+4]
  00b6c	89 85 f4 fd ff
	ff		 mov	 DWORD PTR _pArguments$[ebp], eax

; 395  : 	vsprintf(szBuffer, lpMsg, pArguments);

  00b72	8b 85 f4 fd ff
	ff		 mov	 eax, DWORD PTR _pArguments$[ebp]
  00b78	50		 push	 eax
  00b79	8b 4d 10	 mov	 ecx, DWORD PTR _lpMsg$[ebp]
  00b7c	51		 push	 ecx
  00b7d	8d 95 f8 fd ff
	ff		 lea	 edx, DWORD PTR _szBuffer$[ebp]
  00b83	52		 push	 edx
  00b84	e8 00 00 00 00	 call	 _vsprintf
  00b89	83 c4 0c	 add	 esp, 12			; 0000000cH

; 396  : 	va_end(pArguments);

  00b8c	c7 85 f4 fd ff
	ff 00 00 00 00	 mov	 DWORD PTR _pArguments$[ebp], 0

; 397  : 
; 398  : 	char szChat[60] = {0};

  00b96	c6 85 b8 fd ff
	ff 00		 mov	 BYTE PTR _szChat$[ebp], 0
  00b9d	6a 3b		 push	 59			; 0000003bH
  00b9f	6a 00		 push	 0
  00ba1	8d 85 b9 fd ff
	ff		 lea	 eax, DWORD PTR _szChat$[ebp+1]
  00ba7	50		 push	 eax
  00ba8	e8 00 00 00 00	 call	 _memset
  00bad	83 c4 0c	 add	 esp, 12			; 0000000cH

; 399  : 	memcpy(szChat, szBuffer, sizeof(szChat)-1);

  00bb0	6a 3b		 push	 59			; 0000003bH
  00bb2	8d 85 f8 fd ff
	ff		 lea	 eax, DWORD PTR _szBuffer$[ebp]
  00bb8	50		 push	 eax
  00bb9	8d 8d b8 fd ff
	ff		 lea	 ecx, DWORD PTR _szChat$[ebp]
  00bbf	51		 push	 ecx
  00bc0	e8 00 00 00 00	 call	 _memcpy
  00bc5	83 c4 0c	 add	 esp, 12			; 0000000cH

; 400  : 
; 401  : 	for(int i=0;i<MAX_VIEWPORT_MONSTER;i++)

  00bc8	c7 85 b4 fd ff
	ff 00 00 00 00	 mov	 DWORD PTR _i$228644[ebp], 0
  00bd2	eb 0f		 jmp	 SHORT $LN6@SendKantur
$LN5@SendKantur:
  00bd4	8b 85 b4 fd ff
	ff		 mov	 eax, DWORD PTR _i$228644[ebp]
  00bda	83 c0 01	 add	 eax, 1
  00bdd	89 85 b4 fd ff
	ff		 mov	 DWORD PTR _i$228644[ebp], eax
$LN6@SendKantur:
  00be3	83 bd b4 fd ff
	ff 4b		 cmp	 DWORD PTR _i$228644[ebp], 75 ; 0000004bH
  00bea	7d 63		 jge	 SHORT $LN8@SendKantur

; 402  : 	{
; 403  : 		if ( lpObj->VpPlayer2[i].state )

  00bec	8b 85 b4 fd ff
	ff		 mov	 eax, DWORD PTR _i$228644[ebp]
  00bf2	6b c0 0c	 imul	 eax, 12			; 0000000cH
  00bf5	8b 4d f8	 mov	 ecx, DWORD PTR _lpObj$[ebp]
  00bf8	0f be 94 01 ac
	08 00 00	 movsx	 edx, BYTE PTR [ecx+eax+2220]
  00c00	85 d2		 test	 edx, edx
  00c02	74 49		 je	 SHORT $LN3@SendKantur

; 404  : 		{
; 405  : 			int iTargetNumber = lpObj->VpPlayer2[i].number;

  00c04	8b 85 b4 fd ff
	ff		 mov	 eax, DWORD PTR _i$228644[ebp]
  00c0a	6b c0 0c	 imul	 eax, 12			; 0000000cH
  00c0d	8b 4d f8	 mov	 ecx, DWORD PTR _lpObj$[ebp]
  00c10	0f bf 94 01 ae
	08 00 00	 movsx	 edx, WORD PTR [ecx+eax+2222]
  00c18	89 95 b0 fd ff
	ff		 mov	 DWORD PTR _iTargetNumber$228649[ebp], edx

; 406  : 
; 407  : 			if ( iTargetNumber >= 0 || iTargetNumber < OBJMAX)

  00c1e	83 bd b0 fd ff
	ff 00		 cmp	 DWORD PTR _iTargetNumber$228649[ebp], 0
  00c25	7d 0c		 jge	 SHORT $LN1@SendKantur
  00c27	81 bd b0 fd ff
	ff 98 3a 00 00	 cmp	 DWORD PTR _iTargetNumber$228649[ebp], 15000 ; 00003a98H
  00c31	7d 1a		 jge	 SHORT $LN3@SendKantur
$LN1@SendKantur:

; 408  : 			{
; 409  : 				ChatTargetSend(lpObj, szChat, iTargetNumber);

  00c33	8b 85 b0 fd ff
	ff		 mov	 eax, DWORD PTR _iTargetNumber$228649[ebp]
  00c39	50		 push	 eax
  00c3a	8d 8d b8 fd ff
	ff		 lea	 ecx, DWORD PTR _szChat$[ebp]
  00c40	51		 push	 ecx
  00c41	8b 55 f8	 mov	 edx, DWORD PTR _lpObj$[ebp]
  00c44	52		 push	 edx
  00c45	e8 00 00 00 00	 call	 ?ChatTargetSend@@YAXPAUOBJECTSTRUCT@@PADH@Z ; ChatTargetSend
  00c4a	83 c4 0c	 add	 esp, 12			; 0000000cH
$LN3@SendKantur:

; 410  : 			}
; 411  : 		}
; 412  : 	}

  00c4d	eb 85		 jmp	 SHORT $LN5@SendKantur
$LN8@SendKantur:

; 413  : }

  00c4f	5f		 pop	 edi
  00c50	5e		 pop	 esi
  00c51	5b		 pop	 ebx
  00c52	8b 4d fc	 mov	 ecx, DWORD PTR __$ArrayPad$[ebp]
  00c55	33 cd		 xor	 ecx, ebp
  00c57	e8 00 00 00 00	 call	 @__security_check_cookie@4
  00c5c	8b e5		 mov	 esp, ebp
  00c5e	5d		 pop	 ebp
  00c5f	c3		 ret	 0
?SendKanturuChattingMsg@CKanturuUtil@@QAAXHPADZZ ENDP	; CKanturuUtil::SendKanturuChattingMsg
_TEXT	ENDS
EXTRN	_atexit:PROC
; Function compile flags: /Odtp /ZI
;	COMDAT ??__Eg_KanturuUtil@@YAXXZ
text$yc	SEGMENT
??__Eg_KanturuUtil@@YAXXZ PROC				; `dynamic initializer for 'g_KanturuUtil'', COMDAT

; 15   : CKanturuUtil g_KanturuUtil; 

  00000	55		 push	 ebp
  00001	8b ec		 mov	 ebp, esp
  00003	83 ec 40	 sub	 esp, 64			; 00000040H
  00006	53		 push	 ebx
  00007	56		 push	 esi
  00008	57		 push	 edi
  00009	b9 00 00 00 00	 mov	 ecx, OFFSET ?g_KanturuUtil@@3VCKanturuUtil@@A ; g_KanturuUtil
  0000e	e8 00 00 00 00	 call	 ??0CKanturuUtil@@QAE@XZ	; CKanturuUtil::CKanturuUtil
  00013	68 00 00 00 00	 push	 OFFSET ??__Fg_KanturuUtil@@YAXXZ ; `dynamic atexit destructor for 'g_KanturuUtil''
  00018	e8 00 00 00 00	 call	 _atexit
  0001d	83 c4 04	 add	 esp, 4
  00020	5f		 pop	 edi
  00021	5e		 pop	 esi
  00022	5b		 pop	 ebx
  00023	8b e5		 mov	 esp, ebp
  00025	5d		 pop	 ebp
  00026	c3		 ret	 0
??__Eg_KanturuUtil@@YAXXZ ENDP				; `dynamic initializer for 'g_KanturuUtil''
; Function compile flags: /Odtp /ZI
text$yc	ENDS
;	COMDAT ??__Fg_KanturuUtil@@YAXXZ
text$yd	SEGMENT
??__Fg_KanturuUtil@@YAXXZ PROC				; `dynamic atexit destructor for 'g_KanturuUtil'', COMDAT
  00000	55		 push	 ebp
  00001	8b ec		 mov	 ebp, esp
  00003	83 ec 40	 sub	 esp, 64			; 00000040H
  00006	53		 push	 ebx
  00007	56		 push	 esi
  00008	57		 push	 edi
  00009	b9 00 00 00 00	 mov	 ecx, OFFSET ?g_KanturuUtil@@3VCKanturuUtil@@A ; g_KanturuUtil
  0000e	e8 00 00 00 00	 call	 ??1CKanturuUtil@@UAE@XZ	; CKanturuUtil::~CKanturuUtil
  00013	5f		 pop	 edi
  00014	5e		 pop	 esi
  00015	5b		 pop	 ebx
  00016	8b e5		 mov	 esp, ebp
  00018	5d		 pop	 ebp
  00019	c3		 ret	 0
??__Fg_KanturuUtil@@YAXXZ ENDP				; `dynamic atexit destructor for 'g_KanturuUtil''
text$yd	ENDS
PUBLIC	?g_KanturuUtil@@3VCKanturuUtil@@A		; g_KanturuUtil
_BSS	SEGMENT
?g_KanturuUtil@@3VCKanturuUtil@@A DD 01H DUP (?)	; g_KanturuUtil
_BSS	ENDS
CRT$XCU	SEGMENT
_g_KanturuUtil$initializer$ DD FLAT:??__Eg_KanturuUtil@@YAXXZ
CRT$XCU	ENDS
END
