; Listing generated by Microsoft (R) Optimizing Compiler Version 16.00.40219.01 

	TITLE	D:\Projects\ExTeam6.3\Source\GameServer\GameServer\LoraBattle.cpp
	.686P
	.XMM
	include listing.inc
	.model	flat

INCLUDELIB LIBCMT
INCLUDELIB OLDNAMES

PUBLIC	??_H@YGXPAXIHP6EPAX0@Z@Z			; `vector constructor iterator'
; Function compile flags: /Odtp /ZI
;	COMDAT ??_H@YGXPAXIHP6EPAX0@Z@Z
_TEXT	SEGMENT
___t$ = 8						; size = 4
___s$ = 12						; size = 4
___n$ = 16						; size = 4
___f$ = 20						; size = 4
??_H@YGXPAXIHP6EPAX0@Z@Z PROC				; `vector constructor iterator', COMDAT
  00000	55		 push	 ebp
  00001	8b ec		 mov	 ebp, esp
  00003	83 ec 40	 sub	 esp, 64			; 00000040H
  00006	53		 push	 ebx
  00007	56		 push	 esi
  00008	57		 push	 edi
$LN2@vector:
  00009	8b 45 10	 mov	 eax, DWORD PTR ___n$[ebp]
  0000c	83 e8 01	 sub	 eax, 1
  0000f	89 45 10	 mov	 DWORD PTR ___n$[ebp], eax
  00012	78 11		 js	 SHORT $LN3@vector
  00014	8b 4d 08	 mov	 ecx, DWORD PTR ___t$[ebp]
  00017	ff 55 14	 call	 DWORD PTR ___f$[ebp]
  0001a	8b 45 08	 mov	 eax, DWORD PTR ___t$[ebp]
  0001d	03 45 0c	 add	 eax, DWORD PTR ___s$[ebp]
  00020	89 45 08	 mov	 DWORD PTR ___t$[ebp], eax
  00023	eb e4		 jmp	 SHORT $LN2@vector
$LN3@vector:
  00025	5f		 pop	 edi
  00026	5e		 pop	 esi
  00027	5b		 pop	 ebx
  00028	8b e5		 mov	 esp, ebp
  0002a	5d		 pop	 ebp
  0002b	c2 10 00	 ret	 16			; 00000010H
??_H@YGXPAXIHP6EPAX0@Z@Z ENDP				; `vector constructor iterator'
_TEXT	ENDS
PUBLIC	??0cLoraBattle@@QAE@XZ				; cLoraBattle::cLoraBattle
; Function compile flags: /Odtp /ZI
; File d:\projects\exteam6.3\source\gameserver\gameserver\lorabattle.cpp
_TEXT	SEGMENT
_i$220404 = -8						; size = 4
_this$ = -4						; size = 4
??0cLoraBattle@@QAE@XZ PROC				; cLoraBattle::cLoraBattle
; _this$ = ecx

; 15   : {

  00000	55		 push	 ebp
  00001	8b ec		 mov	 ebp, esp
  00003	83 ec 48	 sub	 esp, 72			; 00000048H
  00006	53		 push	 ebx
  00007	56		 push	 esi
  00008	57		 push	 edi
  00009	89 4d fc	 mov	 DWORD PTR _this$[ebp], ecx

; 16   : 	for(int i=OBJ_STARTUSERINDEX; i<OBJMAX; i++)

  0000c	c7 45 f8 b0 36
	00 00		 mov	 DWORD PTR _i$220404[ebp], 14000 ; 000036b0H
  00013	eb 09		 jmp	 SHORT $LN3@cLoraBattl
$LN2@cLoraBattl:
  00015	8b 45 f8	 mov	 eax, DWORD PTR _i$220404[ebp]
  00018	83 c0 01	 add	 eax, 1
  0001b	89 45 f8	 mov	 DWORD PTR _i$220404[ebp], eax
$LN3@cLoraBattl:
  0001e	81 7d f8 98 3a
	00 00		 cmp	 DWORD PTR _i$220404[ebp], 15000 ; 00003a98H
  00025	7d 21		 jge	 SHORT $LN1@cLoraBattl

; 17   : 	{
; 18   : 		KillSocer[i] = 0;

  00027	8b 45 f8	 mov	 eax, DWORD PTR _i$220404[ebp]
  0002a	8b 4d fc	 mov	 ecx, DWORD PTR _this$[ebp]
  0002d	c7 44 81 60 00
	00 00 00	 mov	 DWORD PTR [ecx+eax*4+96], 0

; 19   : 		m_PK_Level[i] = 0;

  00035	8b 45 f8	 mov	 eax, DWORD PTR _i$220404[ebp]
  00038	8b 4d fc	 mov	 ecx, DWORD PTR _this$[ebp]
  0003b	c7 84 81 58 25
	01 00 00 00 00
	00		 mov	 DWORD PTR [ecx+eax*4+75096], 0

; 20   : 	}

  00046	eb cd		 jmp	 SHORT $LN2@cLoraBattl
$LN1@cLoraBattl:

; 21   : 
; 22   : 	Start = false;

  00048	8b 45 fc	 mov	 eax, DWORD PTR _this$[ebp]
  0004b	c7 40 04 00 00
	00 00		 mov	 DWORD PTR [eax+4], 0

; 23   : 	MaxSocer	 = 0;

  00052	8b 45 fc	 mov	 eax, DWORD PTR _this$[ebp]
  00055	c7 80 b8 0f 02
	00 00 00 00 00	 mov	 DWORD PTR [eax+135096], 0

; 24   : }

  0005f	8b 45 fc	 mov	 eax, DWORD PTR _this$[ebp]
  00062	5f		 pop	 edi
  00063	5e		 pop	 esi
  00064	5b		 pop	 ebx
  00065	8b e5		 mov	 esp, ebp
  00067	5d		 pop	 ebp
  00068	c3		 ret	 0
??0cLoraBattle@@QAE@XZ ENDP				; cLoraBattle::cLoraBattle
_TEXT	ENDS
PUBLIC	??1cLoraBattle@@QAE@XZ				; cLoraBattle::~cLoraBattle
; Function compile flags: /Odtp /ZI
_TEXT	SEGMENT
_this$ = -4						; size = 4
??1cLoraBattle@@QAE@XZ PROC				; cLoraBattle::~cLoraBattle
; _this$ = ecx

; 27   : {

  00070	55		 push	 ebp
  00071	8b ec		 mov	 ebp, esp
  00073	83 ec 44	 sub	 esp, 68			; 00000044H
  00076	53		 push	 ebx
  00077	56		 push	 esi
  00078	57		 push	 edi
  00079	89 4d fc	 mov	 DWORD PTR _this$[ebp], ecx

; 28   : 
; 29   : }

  0007c	5f		 pop	 edi
  0007d	5e		 pop	 esi
  0007e	5b		 pop	 ebx
  0007f	8b e5		 mov	 esp, ebp
  00081	5d		 pop	 ebp
  00082	c3		 ret	 0
??1cLoraBattle@@QAE@XZ ENDP				; cLoraBattle::~cLoraBattle
_TEXT	ENDS
PUBLIC	??_C@_0BC@HDIJPDCG@?$CFd?5?$CFd?5?$CFd?5?$CFd?5?$CFd?5?$CFd?$AA@ ; `string'
PUBLIC	??_C@_0BP@JEADJEMJ@LoraBattleEvent?4ini?5Load?5Error?$AA@ ; `string'
PUBLIC	??_C@_0P@BPENEPNJ@CRITICAL?5ERROR?$AA@		; `string'
PUBLIC	??_C@_01KDCPPGHE@r?$AA@				; `string'
PUBLIC	??_C@_0BF@JLLCHHMO@FallenItemDropAncOpt?$AA@	; `string'
PUBLIC	??_C@_0BF@LKHCLCFL@FallenItemDropExcOpt?$AA@	; `string'
PUBLIC	??_C@_0BC@MOMDCMLD@FallenItemDropOpt?$AA@	; `string'
PUBLIC	??_C@_0BD@LNLIKMGB@FallenItemDropLuck?$AA@	; `string'
PUBLIC	??_C@_0BE@LEOCKCIF@FallenItemDropSkill?$AA@	; `string'
PUBLIC	??_C@_0BE@POPJNAOM@FallenItemDropLevel?$AA@	; `string'
PUBLIC	??_C@_0BB@EKAHBGBH@FallenItemDropID?$AA@	; `string'
PUBLIC	??_C@_0BD@CHBNPPDN@FallenItemDropType?$AA@	; `string'
PUBLIC	??_C@_06BOLACBCI@Fallen?$AA@			; `string'
PUBLIC	??_C@_0M@IPCHJHK@Fallen_DROP?$AA@		; `string'
PUBLIC	??_C@_0BF@FCMLKBH@RewardItemDropAncOpt?$AA@	; `string'
PUBLIC	??_C@_0BF@CEOMHPIC@RewardItemDropExcOpt?$AA@	; `string'
PUBLIC	??_C@_0BC@OBBCBHMH@RewardItemDropOpt?$AA@	; `string'
PUBLIC	??_C@_0BD@OKPPMIHP@RewardItemDropLuck?$AA@	; `string'
PUBLIC	??_C@_0BE@EOLKNIIC@RewardItemDropSkill?$AA@	; `string'
PUBLIC	??_C@_0BE@EKBKKOL@RewardItemDropLevel?$AA@	; `string'
PUBLIC	??_C@_0BB@PEEAOFCL@RewardItemDropID?$AA@	; `string'
PUBLIC	??_C@_0BD@HAFKJLCD@RewardItemDropType?$AA@	; `string'
PUBLIC	??_C@_0N@CKMOHFOH@RewardExCred?$AA@		; `string'
PUBLIC	??_C@_0N@BMBAGBBL@RewardGoblin?$AA@		; `string'
PUBLIC	??_C@_0N@IAGEABOD@RewardWCoinP?$AA@		; `string'
PUBLIC	??_C@_0N@OBILEAHB@RewardWCoinC?$AA@		; `string'
PUBLIC	??_C@_06BAGMPINC@Reward?$AA@			; `string'
PUBLIC	??_C@_0L@MMIEHGGH@RewardItem?$AA@		; `string'
PUBLIC	??_C@_03FDIGDFNB@MGS?$AA@			; `string'
PUBLIC	??_C@_0CD@GJMHOKCM@?$FLLora?5Battle?$FN?5Start?5after?51?5minu@ ; `string'
PUBLIC	??_C@_06POMJKEPM@Common?$AA@			; `string'
PUBLIC	??_C@_06CKGENIKG@Enable?$AA@			; `string'
PUBLIC	??_C@_0CK@HBNLODKK@?4?4?2Data?2ExData?2Events?2LoraBattle@ ; `string'
PUBLIC	__$ArrayPad$
PUBLIC	?LoadConfigs@cLoraBattle@@QAEXXZ		; cLoraBattle::LoadConfigs
EXTRN	_fclose:PROC
EXTRN	_sscanf:PROC
EXTRN	?Ex_IsBadFileLine@@YA_NPADAAH@Z:PROC		; Ex_IsBadFileLine
EXTRN	_fgets:PROC
EXTRN	_feof:PROC
EXTRN	__imp__MessageBoxA@16:PROC
EXTRN	_fopen:PROC
EXTRN	__imp__GetPrivateProfileStringA@24:PROC
EXTRN	?g_ExLicense@@3VCExLicense@@A:BYTE		; g_ExLicense
EXTRN	__imp__GetPrivateProfileIntA@16:PROC
EXTRN	___security_cookie:DWORD
EXTRN	@__security_check_cookie@4:PROC
;	COMDAT ??_C@_0BC@HDIJPDCG@?$CFd?5?$CFd?5?$CFd?5?$CFd?5?$CFd?5?$CFd?$AA@
CONST	SEGMENT
??_C@_0BC@HDIJPDCG@?$CFd?5?$CFd?5?$CFd?5?$CFd?5?$CFd?5?$CFd?$AA@ DB '%d %'
	DB	'd %d %d %d %d', 00H				; `string'
CONST	ENDS
;	COMDAT ??_C@_0BP@JEADJEMJ@LoraBattleEvent?4ini?5Load?5Error?$AA@
CONST	SEGMENT
??_C@_0BP@JEADJEMJ@LoraBattleEvent?4ini?5Load?5Error?$AA@ DB 'LoraBattleE'
	DB	'vent.ini Load Error', 00H			; `string'
CONST	ENDS
;	COMDAT ??_C@_0P@BPENEPNJ@CRITICAL?5ERROR?$AA@
CONST	SEGMENT
??_C@_0P@BPENEPNJ@CRITICAL?5ERROR?$AA@ DB 'CRITICAL ERROR', 00H ; `string'
CONST	ENDS
;	COMDAT ??_C@_01KDCPPGHE@r?$AA@
CONST	SEGMENT
??_C@_01KDCPPGHE@r?$AA@ DB 'r', 00H			; `string'
CONST	ENDS
;	COMDAT ??_C@_0BF@JLLCHHMO@FallenItemDropAncOpt?$AA@
CONST	SEGMENT
??_C@_0BF@JLLCHHMO@FallenItemDropAncOpt?$AA@ DB 'FallenItemDropAncOpt', 00H ; `string'
CONST	ENDS
;	COMDAT ??_C@_0BF@LKHCLCFL@FallenItemDropExcOpt?$AA@
CONST	SEGMENT
??_C@_0BF@LKHCLCFL@FallenItemDropExcOpt?$AA@ DB 'FallenItemDropExcOpt', 00H ; `string'
CONST	ENDS
;	COMDAT ??_C@_0BC@MOMDCMLD@FallenItemDropOpt?$AA@
CONST	SEGMENT
??_C@_0BC@MOMDCMLD@FallenItemDropOpt?$AA@ DB 'FallenItemDropOpt', 00H ; `string'
CONST	ENDS
;	COMDAT ??_C@_0BD@LNLIKMGB@FallenItemDropLuck?$AA@
CONST	SEGMENT
??_C@_0BD@LNLIKMGB@FallenItemDropLuck?$AA@ DB 'FallenItemDropLuck', 00H ; `string'
CONST	ENDS
;	COMDAT ??_C@_0BE@LEOCKCIF@FallenItemDropSkill?$AA@
CONST	SEGMENT
??_C@_0BE@LEOCKCIF@FallenItemDropSkill?$AA@ DB 'FallenItemDropSkill', 00H ; `string'
CONST	ENDS
;	COMDAT ??_C@_0BE@POPJNAOM@FallenItemDropLevel?$AA@
CONST	SEGMENT
??_C@_0BE@POPJNAOM@FallenItemDropLevel?$AA@ DB 'FallenItemDropLevel', 00H ; `string'
CONST	ENDS
;	COMDAT ??_C@_0BB@EKAHBGBH@FallenItemDropID?$AA@
CONST	SEGMENT
??_C@_0BB@EKAHBGBH@FallenItemDropID?$AA@ DB 'FallenItemDropID', 00H ; `string'
CONST	ENDS
;	COMDAT ??_C@_0BD@CHBNPPDN@FallenItemDropType?$AA@
CONST	SEGMENT
??_C@_0BD@CHBNPPDN@FallenItemDropType?$AA@ DB 'FallenItemDropType', 00H ; `string'
CONST	ENDS
;	COMDAT ??_C@_06BOLACBCI@Fallen?$AA@
CONST	SEGMENT
??_C@_06BOLACBCI@Fallen?$AA@ DB 'Fallen', 00H		; `string'
CONST	ENDS
;	COMDAT ??_C@_0M@IPCHJHK@Fallen_DROP?$AA@
CONST	SEGMENT
??_C@_0M@IPCHJHK@Fallen_DROP?$AA@ DB 'Fallen_DROP', 00H	; `string'
CONST	ENDS
;	COMDAT ??_C@_0BF@FCMLKBH@RewardItemDropAncOpt?$AA@
CONST	SEGMENT
??_C@_0BF@FCMLKBH@RewardItemDropAncOpt?$AA@ DB 'RewardItemDropAncOpt', 00H ; `string'
CONST	ENDS
;	COMDAT ??_C@_0BF@CEOMHPIC@RewardItemDropExcOpt?$AA@
CONST	SEGMENT
??_C@_0BF@CEOMHPIC@RewardItemDropExcOpt?$AA@ DB 'RewardItemDropExcOpt', 00H ; `string'
CONST	ENDS
;	COMDAT ??_C@_0BC@OBBCBHMH@RewardItemDropOpt?$AA@
CONST	SEGMENT
??_C@_0BC@OBBCBHMH@RewardItemDropOpt?$AA@ DB 'RewardItemDropOpt', 00H ; `string'
CONST	ENDS
;	COMDAT ??_C@_0BD@OKPPMIHP@RewardItemDropLuck?$AA@
CONST	SEGMENT
??_C@_0BD@OKPPMIHP@RewardItemDropLuck?$AA@ DB 'RewardItemDropLuck', 00H ; `string'
CONST	ENDS
;	COMDAT ??_C@_0BE@EOLKNIIC@RewardItemDropSkill?$AA@
CONST	SEGMENT
??_C@_0BE@EOLKNIIC@RewardItemDropSkill?$AA@ DB 'RewardItemDropSkill', 00H ; `string'
CONST	ENDS
;	COMDAT ??_C@_0BE@EKBKKOL@RewardItemDropLevel?$AA@
CONST	SEGMENT
??_C@_0BE@EKBKKOL@RewardItemDropLevel?$AA@ DB 'RewardItemDropLevel', 00H ; `string'
CONST	ENDS
;	COMDAT ??_C@_0BB@PEEAOFCL@RewardItemDropID?$AA@
CONST	SEGMENT
??_C@_0BB@PEEAOFCL@RewardItemDropID?$AA@ DB 'RewardItemDropID', 00H ; `string'
CONST	ENDS
;	COMDAT ??_C@_0BD@HAFKJLCD@RewardItemDropType?$AA@
CONST	SEGMENT
??_C@_0BD@HAFKJLCD@RewardItemDropType?$AA@ DB 'RewardItemDropType', 00H ; `string'
CONST	ENDS
;	COMDAT ??_C@_0N@CKMOHFOH@RewardExCred?$AA@
CONST	SEGMENT
??_C@_0N@CKMOHFOH@RewardExCred?$AA@ DB 'RewardExCred', 00H ; `string'
CONST	ENDS
;	COMDAT ??_C@_0N@BMBAGBBL@RewardGoblin?$AA@
CONST	SEGMENT
??_C@_0N@BMBAGBBL@RewardGoblin?$AA@ DB 'RewardGoblin', 00H ; `string'
CONST	ENDS
;	COMDAT ??_C@_0N@IAGEABOD@RewardWCoinP?$AA@
CONST	SEGMENT
??_C@_0N@IAGEABOD@RewardWCoinP?$AA@ DB 'RewardWCoinP', 00H ; `string'
CONST	ENDS
;	COMDAT ??_C@_0N@OBILEAHB@RewardWCoinC?$AA@
CONST	SEGMENT
??_C@_0N@OBILEAHB@RewardWCoinC?$AA@ DB 'RewardWCoinC', 00H ; `string'
CONST	ENDS
;	COMDAT ??_C@_06BAGMPINC@Reward?$AA@
CONST	SEGMENT
??_C@_06BAGMPINC@Reward?$AA@ DB 'Reward', 00H		; `string'
CONST	ENDS
;	COMDAT ??_C@_0L@MMIEHGGH@RewardItem?$AA@
CONST	SEGMENT
??_C@_0L@MMIEHGGH@RewardItem?$AA@ DB 'RewardItem', 00H	; `string'
CONST	ENDS
;	COMDAT ??_C@_03FDIGDFNB@MGS?$AA@
CONST	SEGMENT
??_C@_03FDIGDFNB@MGS?$AA@ DB 'MGS', 00H			; `string'
CONST	ENDS
;	COMDAT ??_C@_0CD@GJMHOKCM@?$FLLora?5Battle?$FN?5Start?5after?51?5minu@
CONST	SEGMENT
??_C@_0CD@GJMHOKCM@?$FLLora?5Battle?$FN?5Start?5after?51?5minu@ DB '[Lora'
	DB	' Battle] Start after 1 minute', 00H		; `string'
CONST	ENDS
;	COMDAT ??_C@_06POMJKEPM@Common?$AA@
CONST	SEGMENT
??_C@_06POMJKEPM@Common?$AA@ DB 'Common', 00H		; `string'
CONST	ENDS
;	COMDAT ??_C@_06CKGENIKG@Enable?$AA@
CONST	SEGMENT
??_C@_06CKGENIKG@Enable?$AA@ DB 'Enable', 00H		; `string'
CONST	ENDS
;	COMDAT ??_C@_0CK@HBNLODKK@?4?4?2Data?2ExData?2Events?2LoraBattle@
CONST	SEGMENT
??_C@_0CK@HBNLODKK@?4?4?2Data?2ExData?2Events?2LoraBattle@ DB '..\Data\Ex'
	DB	'Data\Events\LoraBattleEvent.ini', 00H	; `string'
; Function compile flags: /Odtp /ZI
CONST	ENDS
_TEXT	SEGMENT
_n$220457 = -300					; size = 28
_Flag$ = -272						; size = 4
_Buff$ = -268						; size = 256
_file$ = -12						; size = 4
_this$ = -8						; size = 4
__$ArrayPad$ = -4					; size = 4
?LoadConfigs@cLoraBattle@@QAEXXZ PROC			; cLoraBattle::LoadConfigs
; _this$ = ecx

; 32   : {

  00090	55		 push	 ebp
  00091	8b ec		 mov	 ebp, esp
  00093	81 ec 6c 01 00
	00		 sub	 esp, 364		; 0000016cH
  00099	a1 00 00 00 00	 mov	 eax, DWORD PTR ___security_cookie
  0009e	33 c5		 xor	 eax, ebp
  000a0	89 45 fc	 mov	 DWORD PTR __$ArrayPad$[ebp], eax
  000a3	53		 push	 ebx
  000a4	56		 push	 esi
  000a5	57		 push	 edi
  000a6	89 4d f8	 mov	 DWORD PTR _this$[ebp], ecx

; 33   : 
; 34   : 	Enable = GetPrivateProfileInt("Common","Enable",1,LORABATTLE_DIR);

  000a9	68 00 00 00 00	 push	 OFFSET ??_C@_0CK@HBNLODKK@?4?4?2Data?2ExData?2Events?2LoraBattle@
  000ae	6a 01		 push	 1
  000b0	68 00 00 00 00	 push	 OFFSET ??_C@_06CKGENIKG@Enable?$AA@
  000b5	68 00 00 00 00	 push	 OFFSET ??_C@_06POMJKEPM@Common?$AA@
  000ba	ff 15 00 00 00
	00		 call	 DWORD PTR __imp__GetPrivateProfileIntA@16
  000c0	8b 4d f8	 mov	 ecx, DWORD PTR _this$[ebp]
  000c3	89 01		 mov	 DWORD PTR [ecx], eax

; 35   : 	
; 36   : 	if(!g_ExLicense.user.LoraBattle)

  000c5	0f b6 05 db 00
	00 00		 movzx	 eax, BYTE PTR ?g_ExLicense@@3VCExLicense@@A+219
  000cc	85 c0		 test	 eax, eax
  000ce	75 09		 jne	 SHORT $LN7@LoadConfig

; 37   : 	{
; 38   : 		Enable = 0;

  000d0	8b 45 f8	 mov	 eax, DWORD PTR _this$[ebp]
  000d3	c7 00 00 00 00
	00		 mov	 DWORD PTR [eax], 0
$LN7@LoadConfig:

; 39   : 	}
; 40   : 
; 41   : 	if(!Enable)

  000d9	8b 45 f8	 mov	 eax, DWORD PTR _this$[ebp]
  000dc	83 38 00	 cmp	 DWORD PTR [eax], 0
  000df	75 05		 jne	 SHORT $LN6@LoadConfig

; 42   : 		return;

  000e1	e9 fa 04 00 00	 jmp	 $LN8@LoadConfig
$LN6@LoadConfig:

; 43   : 	//Configs
; 44   : 	GetPrivateProfileStringA("Common", "MGS","[Lora Battle] Start after 1 minute",MSG,sizeof(MSG),LORABATTLE_DIR);

  000e6	68 00 00 00 00	 push	 OFFSET ??_C@_0CK@HBNLODKK@?4?4?2Data?2ExData?2Events?2LoraBattle@
  000eb	68 00 01 00 00	 push	 256			; 00000100H
  000f0	8b 45 f8	 mov	 eax, DWORD PTR _this$[ebp]
  000f3	05 c0 0f 02 00	 add	 eax, 135104		; 00020fc0H
  000f8	50		 push	 eax
  000f9	68 00 00 00 00	 push	 OFFSET ??_C@_0CD@GJMHOKCM@?$FLLora?5Battle?$FN?5Start?5after?51?5minu@
  000fe	68 00 00 00 00	 push	 OFFSET ??_C@_03FDIGDFNB@MGS?$AA@
  00103	68 00 00 00 00	 push	 OFFSET ??_C@_06POMJKEPM@Common?$AA@
  00108	ff 15 00 00 00
	00		 call	 DWORD PTR __imp__GetPrivateProfileStringA@24

; 45   : 	RewardItem = GetPrivateProfileInt("Reward","RewardItem",1,LORABATTLE_DIR);

  0010e	68 00 00 00 00	 push	 OFFSET ??_C@_0CK@HBNLODKK@?4?4?2Data?2ExData?2Events?2LoraBattle@
  00113	6a 01		 push	 1
  00115	68 00 00 00 00	 push	 OFFSET ??_C@_0L@MMIEHGGH@RewardItem?$AA@
  0011a	68 00 00 00 00	 push	 OFFSET ??_C@_06BAGMPINC@Reward?$AA@
  0011f	ff 15 00 00 00
	00		 call	 DWORD PTR __imp__GetPrivateProfileIntA@16
  00125	8b 4d f8	 mov	 ecx, DWORD PTR _this$[ebp]
  00128	89 41 08	 mov	 DWORD PTR [ecx+8], eax

; 46   : 
; 47   : 	RewardWCoinC = GetPrivateProfileInt("Reward","RewardWCoinC",0,LORABATTLE_DIR);

  0012b	68 00 00 00 00	 push	 OFFSET ??_C@_0CK@HBNLODKK@?4?4?2Data?2ExData?2Events?2LoraBattle@
  00130	6a 00		 push	 0
  00132	68 00 00 00 00	 push	 OFFSET ??_C@_0N@OBILEAHB@RewardWCoinC?$AA@
  00137	68 00 00 00 00	 push	 OFFSET ??_C@_06BAGMPINC@Reward?$AA@
  0013c	ff 15 00 00 00
	00		 call	 DWORD PTR __imp__GetPrivateProfileIntA@16
  00142	8b 4d f8	 mov	 ecx, DWORD PTR _this$[ebp]
  00145	89 41 0c	 mov	 DWORD PTR [ecx+12], eax

; 48   : 	RewardWCoinP = GetPrivateProfileInt("Reward","RewardWCoinP",0,LORABATTLE_DIR);

  00148	68 00 00 00 00	 push	 OFFSET ??_C@_0CK@HBNLODKK@?4?4?2Data?2ExData?2Events?2LoraBattle@
  0014d	6a 00		 push	 0
  0014f	68 00 00 00 00	 push	 OFFSET ??_C@_0N@IAGEABOD@RewardWCoinP?$AA@
  00154	68 00 00 00 00	 push	 OFFSET ??_C@_06BAGMPINC@Reward?$AA@
  00159	ff 15 00 00 00
	00		 call	 DWORD PTR __imp__GetPrivateProfileIntA@16
  0015f	8b 4d f8	 mov	 ecx, DWORD PTR _this$[ebp]
  00162	89 41 10	 mov	 DWORD PTR [ecx+16], eax

; 49   : 	RewardGoblin = GetPrivateProfileInt("Reward","RewardGoblin",0,LORABATTLE_DIR);

  00165	68 00 00 00 00	 push	 OFFSET ??_C@_0CK@HBNLODKK@?4?4?2Data?2ExData?2Events?2LoraBattle@
  0016a	6a 00		 push	 0
  0016c	68 00 00 00 00	 push	 OFFSET ??_C@_0N@BMBAGBBL@RewardGoblin?$AA@
  00171	68 00 00 00 00	 push	 OFFSET ??_C@_06BAGMPINC@Reward?$AA@
  00176	ff 15 00 00 00
	00		 call	 DWORD PTR __imp__GetPrivateProfileIntA@16
  0017c	8b 4d f8	 mov	 ecx, DWORD PTR _this$[ebp]
  0017f	89 41 14	 mov	 DWORD PTR [ecx+20], eax

; 50   : 	RewardExCred = GetPrivateProfileInt("Reward","RewardExCred",0,LORABATTLE_DIR);

  00182	68 00 00 00 00	 push	 OFFSET ??_C@_0CK@HBNLODKK@?4?4?2Data?2ExData?2Events?2LoraBattle@
  00187	6a 00		 push	 0
  00189	68 00 00 00 00	 push	 OFFSET ??_C@_0N@CKMOHFOH@RewardExCred?$AA@
  0018e	68 00 00 00 00	 push	 OFFSET ??_C@_06BAGMPINC@Reward?$AA@
  00193	ff 15 00 00 00
	00		 call	 DWORD PTR __imp__GetPrivateProfileIntA@16
  00199	8b 4d f8	 mov	 ecx, DWORD PTR _this$[ebp]
  0019c	89 41 18	 mov	 DWORD PTR [ecx+24], eax

; 51   : 
; 52   : 	RewardItemDropType	= GetPrivateProfileInt("Reward","RewardItemDropType",12,LORABATTLE_DIR);

  0019f	68 00 00 00 00	 push	 OFFSET ??_C@_0CK@HBNLODKK@?4?4?2Data?2ExData?2Events?2LoraBattle@
  001a4	6a 0c		 push	 12			; 0000000cH
  001a6	68 00 00 00 00	 push	 OFFSET ??_C@_0BD@HAFKJLCD@RewardItemDropType?$AA@
  001ab	68 00 00 00 00	 push	 OFFSET ??_C@_06BAGMPINC@Reward?$AA@
  001b0	ff 15 00 00 00
	00		 call	 DWORD PTR __imp__GetPrivateProfileIntA@16
  001b6	8b 4d f8	 mov	 ecx, DWORD PTR _this$[ebp]
  001b9	89 41 1c	 mov	 DWORD PTR [ecx+28], eax

; 53   : 	RewardItemDropID		= GetPrivateProfileInt("Reward","RewardItemDropID",15,LORABATTLE_DIR);

  001bc	68 00 00 00 00	 push	 OFFSET ??_C@_0CK@HBNLODKK@?4?4?2Data?2ExData?2Events?2LoraBattle@
  001c1	6a 0f		 push	 15			; 0000000fH
  001c3	68 00 00 00 00	 push	 OFFSET ??_C@_0BB@PEEAOFCL@RewardItemDropID?$AA@
  001c8	68 00 00 00 00	 push	 OFFSET ??_C@_06BAGMPINC@Reward?$AA@
  001cd	ff 15 00 00 00
	00		 call	 DWORD PTR __imp__GetPrivateProfileIntA@16
  001d3	8b 4d f8	 mov	 ecx, DWORD PTR _this$[ebp]
  001d6	89 41 20	 mov	 DWORD PTR [ecx+32], eax

; 54   : 	RewardItemDropLevel	= GetPrivateProfileInt("Reward","RewardItemDropLevel",0,LORABATTLE_DIR);

  001d9	68 00 00 00 00	 push	 OFFSET ??_C@_0CK@HBNLODKK@?4?4?2Data?2ExData?2Events?2LoraBattle@
  001de	6a 00		 push	 0
  001e0	68 00 00 00 00	 push	 OFFSET ??_C@_0BE@EKBKKOL@RewardItemDropLevel?$AA@
  001e5	68 00 00 00 00	 push	 OFFSET ??_C@_06BAGMPINC@Reward?$AA@
  001ea	ff 15 00 00 00
	00		 call	 DWORD PTR __imp__GetPrivateProfileIntA@16
  001f0	8b 4d f8	 mov	 ecx, DWORD PTR _this$[ebp]
  001f3	89 41 24	 mov	 DWORD PTR [ecx+36], eax

; 55   : 	RewardItemDropSkill	= GetPrivateProfileInt("Reward","RewardItemDropSkill",0,LORABATTLE_DIR);

  001f6	68 00 00 00 00	 push	 OFFSET ??_C@_0CK@HBNLODKK@?4?4?2Data?2ExData?2Events?2LoraBattle@
  001fb	6a 00		 push	 0
  001fd	68 00 00 00 00	 push	 OFFSET ??_C@_0BE@EOLKNIIC@RewardItemDropSkill?$AA@
  00202	68 00 00 00 00	 push	 OFFSET ??_C@_06BAGMPINC@Reward?$AA@
  00207	ff 15 00 00 00
	00		 call	 DWORD PTR __imp__GetPrivateProfileIntA@16
  0020d	8b 4d f8	 mov	 ecx, DWORD PTR _this$[ebp]
  00210	89 41 28	 mov	 DWORD PTR [ecx+40], eax

; 56   : 	RewardItemDropLuck	= GetPrivateProfileInt("Reward","RewardItemDropLuck",0,LORABATTLE_DIR);

  00213	68 00 00 00 00	 push	 OFFSET ??_C@_0CK@HBNLODKK@?4?4?2Data?2ExData?2Events?2LoraBattle@
  00218	6a 00		 push	 0
  0021a	68 00 00 00 00	 push	 OFFSET ??_C@_0BD@OKPPMIHP@RewardItemDropLuck?$AA@
  0021f	68 00 00 00 00	 push	 OFFSET ??_C@_06BAGMPINC@Reward?$AA@
  00224	ff 15 00 00 00
	00		 call	 DWORD PTR __imp__GetPrivateProfileIntA@16
  0022a	8b 4d f8	 mov	 ecx, DWORD PTR _this$[ebp]
  0022d	89 41 2c	 mov	 DWORD PTR [ecx+44], eax

; 57   : 	RewardItemDropOpt	= GetPrivateProfileInt("Reward","RewardItemDropOpt",0,LORABATTLE_DIR);

  00230	68 00 00 00 00	 push	 OFFSET ??_C@_0CK@HBNLODKK@?4?4?2Data?2ExData?2Events?2LoraBattle@
  00235	6a 00		 push	 0
  00237	68 00 00 00 00	 push	 OFFSET ??_C@_0BC@OBBCBHMH@RewardItemDropOpt?$AA@
  0023c	68 00 00 00 00	 push	 OFFSET ??_C@_06BAGMPINC@Reward?$AA@
  00241	ff 15 00 00 00
	00		 call	 DWORD PTR __imp__GetPrivateProfileIntA@16
  00247	8b 4d f8	 mov	 ecx, DWORD PTR _this$[ebp]
  0024a	89 41 30	 mov	 DWORD PTR [ecx+48], eax

; 58   : 	RewardItemDropExcOpt	= GetPrivateProfileInt("Reward","RewardItemDropExcOpt",0,LORABATTLE_DIR);

  0024d	68 00 00 00 00	 push	 OFFSET ??_C@_0CK@HBNLODKK@?4?4?2Data?2ExData?2Events?2LoraBattle@
  00252	6a 00		 push	 0
  00254	68 00 00 00 00	 push	 OFFSET ??_C@_0BF@CEOMHPIC@RewardItemDropExcOpt?$AA@
  00259	68 00 00 00 00	 push	 OFFSET ??_C@_06BAGMPINC@Reward?$AA@
  0025e	ff 15 00 00 00
	00		 call	 DWORD PTR __imp__GetPrivateProfileIntA@16
  00264	8b 4d f8	 mov	 ecx, DWORD PTR _this$[ebp]
  00267	89 41 34	 mov	 DWORD PTR [ecx+52], eax

; 59   : 	RewardItemDropAncOpt	= GetPrivateProfileInt("Reward","RewardItemDropAncOpt",0,LORABATTLE_DIR);

  0026a	68 00 00 00 00	 push	 OFFSET ??_C@_0CK@HBNLODKK@?4?4?2Data?2ExData?2Events?2LoraBattle@
  0026f	6a 00		 push	 0
  00271	68 00 00 00 00	 push	 OFFSET ??_C@_0BF@FCMLKBH@RewardItemDropAncOpt?$AA@
  00276	68 00 00 00 00	 push	 OFFSET ??_C@_06BAGMPINC@Reward?$AA@
  0027b	ff 15 00 00 00
	00		 call	 DWORD PTR __imp__GetPrivateProfileIntA@16
  00281	8b 4d f8	 mov	 ecx, DWORD PTR _this$[ebp]
  00284	89 41 38	 mov	 DWORD PTR [ecx+56], eax

; 60   : 
; 61   : 	Fallen_DROP = GetPrivateProfileInt("Fallen","Fallen_DROP",1,LORABATTLE_DIR);

  00287	68 00 00 00 00	 push	 OFFSET ??_C@_0CK@HBNLODKK@?4?4?2Data?2ExData?2Events?2LoraBattle@
  0028c	6a 01		 push	 1
  0028e	68 00 00 00 00	 push	 OFFSET ??_C@_0M@IPCHJHK@Fallen_DROP?$AA@
  00293	68 00 00 00 00	 push	 OFFSET ??_C@_06BOLACBCI@Fallen?$AA@
  00298	ff 15 00 00 00
	00		 call	 DWORD PTR __imp__GetPrivateProfileIntA@16
  0029e	8b 4d f8	 mov	 ecx, DWORD PTR _this$[ebp]
  002a1	89 41 3c	 mov	 DWORD PTR [ecx+60], eax

; 62   : 
; 63   : 	FallenItemDropType	= GetPrivateProfileInt("Fallen","FallenItemDropType",12,LORABATTLE_DIR);

  002a4	68 00 00 00 00	 push	 OFFSET ??_C@_0CK@HBNLODKK@?4?4?2Data?2ExData?2Events?2LoraBattle@
  002a9	6a 0c		 push	 12			; 0000000cH
  002ab	68 00 00 00 00	 push	 OFFSET ??_C@_0BD@CHBNPPDN@FallenItemDropType?$AA@
  002b0	68 00 00 00 00	 push	 OFFSET ??_C@_06BOLACBCI@Fallen?$AA@
  002b5	ff 15 00 00 00
	00		 call	 DWORD PTR __imp__GetPrivateProfileIntA@16
  002bb	8b 4d f8	 mov	 ecx, DWORD PTR _this$[ebp]
  002be	89 41 40	 mov	 DWORD PTR [ecx+64], eax

; 64   : 	FallenItemDropID		= GetPrivateProfileInt("Fallen","FallenItemDropID",15,LORABATTLE_DIR);

  002c1	68 00 00 00 00	 push	 OFFSET ??_C@_0CK@HBNLODKK@?4?4?2Data?2ExData?2Events?2LoraBattle@
  002c6	6a 0f		 push	 15			; 0000000fH
  002c8	68 00 00 00 00	 push	 OFFSET ??_C@_0BB@EKAHBGBH@FallenItemDropID?$AA@
  002cd	68 00 00 00 00	 push	 OFFSET ??_C@_06BOLACBCI@Fallen?$AA@
  002d2	ff 15 00 00 00
	00		 call	 DWORD PTR __imp__GetPrivateProfileIntA@16
  002d8	8b 4d f8	 mov	 ecx, DWORD PTR _this$[ebp]
  002db	89 41 44	 mov	 DWORD PTR [ecx+68], eax

; 65   : 	FallenItemDropLevel	= GetPrivateProfileInt("Fallen","FallenItemDropLevel",0,LORABATTLE_DIR);

  002de	68 00 00 00 00	 push	 OFFSET ??_C@_0CK@HBNLODKK@?4?4?2Data?2ExData?2Events?2LoraBattle@
  002e3	6a 00		 push	 0
  002e5	68 00 00 00 00	 push	 OFFSET ??_C@_0BE@POPJNAOM@FallenItemDropLevel?$AA@
  002ea	68 00 00 00 00	 push	 OFFSET ??_C@_06BOLACBCI@Fallen?$AA@
  002ef	ff 15 00 00 00
	00		 call	 DWORD PTR __imp__GetPrivateProfileIntA@16
  002f5	8b 4d f8	 mov	 ecx, DWORD PTR _this$[ebp]
  002f8	89 41 48	 mov	 DWORD PTR [ecx+72], eax

; 66   : 	FallenItemDropSkill	= GetPrivateProfileInt("Fallen","FallenItemDropSkill",0,LORABATTLE_DIR);

  002fb	68 00 00 00 00	 push	 OFFSET ??_C@_0CK@HBNLODKK@?4?4?2Data?2ExData?2Events?2LoraBattle@
  00300	6a 00		 push	 0
  00302	68 00 00 00 00	 push	 OFFSET ??_C@_0BE@LEOCKCIF@FallenItemDropSkill?$AA@
  00307	68 00 00 00 00	 push	 OFFSET ??_C@_06BOLACBCI@Fallen?$AA@
  0030c	ff 15 00 00 00
	00		 call	 DWORD PTR __imp__GetPrivateProfileIntA@16
  00312	8b 4d f8	 mov	 ecx, DWORD PTR _this$[ebp]
  00315	89 41 4c	 mov	 DWORD PTR [ecx+76], eax

; 67   : 	FallenItemDropLuck	= GetPrivateProfileInt("Fallen","FallenItemDropLuck",0,LORABATTLE_DIR);

  00318	68 00 00 00 00	 push	 OFFSET ??_C@_0CK@HBNLODKK@?4?4?2Data?2ExData?2Events?2LoraBattle@
  0031d	6a 00		 push	 0
  0031f	68 00 00 00 00	 push	 OFFSET ??_C@_0BD@LNLIKMGB@FallenItemDropLuck?$AA@
  00324	68 00 00 00 00	 push	 OFFSET ??_C@_06BOLACBCI@Fallen?$AA@
  00329	ff 15 00 00 00
	00		 call	 DWORD PTR __imp__GetPrivateProfileIntA@16
  0032f	8b 4d f8	 mov	 ecx, DWORD PTR _this$[ebp]
  00332	89 41 50	 mov	 DWORD PTR [ecx+80], eax

; 68   : 	FallenItemDropOpt	= GetPrivateProfileInt("Fallen","FallenItemDropOpt",0,LORABATTLE_DIR);

  00335	68 00 00 00 00	 push	 OFFSET ??_C@_0CK@HBNLODKK@?4?4?2Data?2ExData?2Events?2LoraBattle@
  0033a	6a 00		 push	 0
  0033c	68 00 00 00 00	 push	 OFFSET ??_C@_0BC@MOMDCMLD@FallenItemDropOpt?$AA@
  00341	68 00 00 00 00	 push	 OFFSET ??_C@_06BOLACBCI@Fallen?$AA@
  00346	ff 15 00 00 00
	00		 call	 DWORD PTR __imp__GetPrivateProfileIntA@16
  0034c	8b 4d f8	 mov	 ecx, DWORD PTR _this$[ebp]
  0034f	89 41 54	 mov	 DWORD PTR [ecx+84], eax

; 69   : 	FallenItemDropExcOpt	= GetPrivateProfileInt("Fallen","FallenItemDropExcOpt",0,LORABATTLE_DIR);

  00352	68 00 00 00 00	 push	 OFFSET ??_C@_0CK@HBNLODKK@?4?4?2Data?2ExData?2Events?2LoraBattle@
  00357	6a 00		 push	 0
  00359	68 00 00 00 00	 push	 OFFSET ??_C@_0BF@LKHCLCFL@FallenItemDropExcOpt?$AA@
  0035e	68 00 00 00 00	 push	 OFFSET ??_C@_06BOLACBCI@Fallen?$AA@
  00363	ff 15 00 00 00
	00		 call	 DWORD PTR __imp__GetPrivateProfileIntA@16
  00369	8b 4d f8	 mov	 ecx, DWORD PTR _this$[ebp]
  0036c	89 41 58	 mov	 DWORD PTR [ecx+88], eax

; 70   : 	FallenItemDropAncOpt	= GetPrivateProfileInt("Fallen","FallenItemDropAncOpt",0,LORABATTLE_DIR);

  0036f	68 00 00 00 00	 push	 OFFSET ??_C@_0CK@HBNLODKK@?4?4?2Data?2ExData?2Events?2LoraBattle@
  00374	6a 00		 push	 0
  00376	68 00 00 00 00	 push	 OFFSET ??_C@_0BF@JLLCHHMO@FallenItemDropAncOpt?$AA@
  0037b	68 00 00 00 00	 push	 OFFSET ??_C@_06BOLACBCI@Fallen?$AA@
  00380	ff 15 00 00 00
	00		 call	 DWORD PTR __imp__GetPrivateProfileIntA@16
  00386	8b 4d f8	 mov	 ecx, DWORD PTR _this$[ebp]
  00389	89 41 5c	 mov	 DWORD PTR [ecx+92], eax

; 71   : 
; 72   : 
; 73   : 	//for(int i=OBJ_STARTUSERINDEX; i<OBJMAX; i++)
; 74   : 	//{
; 75   : 	//	KillSocer[i] = 0;
; 76   : 	//	m_PK_Level[i] = 0;
; 77   : 	//}
; 78   : 
; 79   : 	//if(Start == false)
; 80   : 	//{
; 81   : 	//	Start = false;
; 82   : 	//	MaxSocer	 = 0;
; 83   : 	//}
; 84   : 
; 85   : 	FILE *file = fopen(LORABATTLE_DIR,"r");

  0038c	68 00 00 00 00	 push	 OFFSET ??_C@_01KDCPPGHE@r?$AA@
  00391	68 00 00 00 00	 push	 OFFSET ??_C@_0CK@HBNLODKK@?4?4?2Data?2ExData?2Events?2LoraBattle@
  00396	e8 00 00 00 00	 call	 _fopen
  0039b	83 c4 08	 add	 esp, 8
  0039e	89 45 f4	 mov	 DWORD PTR _file$[ebp], eax

; 86   : 
; 87   : 	if(file == NULL)

  003a1	83 7d f4 00	 cmp	 DWORD PTR _file$[ebp], 0
  003a5	75 22		 jne	 SHORT $LN5@LoadConfig

; 88   : 	{
; 89   : 		MessageBoxA(0,"LoraBattleEvent.ini Load Error","CRITICAL ERROR",0);

  003a7	6a 00		 push	 0
  003a9	68 00 00 00 00	 push	 OFFSET ??_C@_0P@BPENEPNJ@CRITICAL?5ERROR?$AA@
  003ae	68 00 00 00 00	 push	 OFFSET ??_C@_0BP@JEADJEMJ@LoraBattleEvent?4ini?5Load?5Error?$AA@
  003b3	6a 00		 push	 0
  003b5	ff 15 00 00 00
	00		 call	 DWORD PTR __imp__MessageBoxA@16

; 90   : 		//ExitProcess(1);
; 91   : 		this->Enable = 0;

  003bb	8b 45 f8	 mov	 eax, DWORD PTR _this$[ebp]
  003be	c7 00 00 00 00
	00		 mov	 DWORD PTR [eax], 0

; 92   : 		return;

  003c4	e9 17 02 00 00	 jmp	 $LN8@LoadConfig
$LN5@LoadConfig:

; 93   : 	}
; 94   : 
; 95   : 	char Buff[256];
; 96   : 	int Flag = 0;

  003c9	c7 85 f0 fe ff
	ff 00 00 00 00	 mov	 DWORD PTR _Flag$[ebp], 0

; 97   : 
; 98   : 	Count = 0;

  003d3	8b 45 f8	 mov	 eax, DWORD PTR _this$[ebp]
  003d6	c7 80 c0 1c 02
	00 00 00 00 00	 mov	 DWORD PTR [eax+138432], 0
$LN4@LoadConfig:

; 99   : 
; 100  : 	while(!feof(file)) // Проверяем есть ли строка в документе

  003e0	8b 45 f4	 mov	 eax, DWORD PTR _file$[ebp]
  003e3	50		 push	 eax
  003e4	e8 00 00 00 00	 call	 _feof
  003e9	83 c4 04	 add	 esp, 4
  003ec	85 c0		 test	 eax, eax
  003ee	0f 85 e0 01 00
	00		 jne	 $LN3@LoadConfig

; 101  : 	{
; 102  : 		fgets(Buff,256,file);//Функция читает текущую строку

  003f4	8b 45 f4	 mov	 eax, DWORD PTR _file$[ebp]
  003f7	50		 push	 eax
  003f8	68 00 01 00 00	 push	 256			; 00000100H
  003fd	8d 8d f4 fe ff
	ff		 lea	 ecx, DWORD PTR _Buff$[ebp]
  00403	51		 push	 ecx
  00404	e8 00 00 00 00	 call	 _fgets
  00409	83 c4 0c	 add	 esp, 12			; 0000000cH

; 103  : 		if(Ex_IsBadFileLine(Buff, Flag)) //Вспомогательная функция

  0040c	8d 85 f0 fe ff
	ff		 lea	 eax, DWORD PTR _Flag$[ebp]
  00412	50		 push	 eax
  00413	8d 8d f4 fe ff
	ff		 lea	 ecx, DWORD PTR _Buff$[ebp]
  00419	51		 push	 ecx
  0041a	e8 00 00 00 00	 call	 ?Ex_IsBadFileLine@@YA_NPADAAH@Z ; Ex_IsBadFileLine
  0041f	83 c4 08	 add	 esp, 8
  00422	0f b6 d0	 movzx	 edx, al
  00425	85 d2		 test	 edx, edx
  00427	74 02		 je	 SHORT $LN2@LoadConfig

; 104  : 			continue;

  00429	eb b5		 jmp	 SHORT $LN4@LoadConfig
$LN2@LoadConfig:

; 105  : 		if(Flag == 1)

  0042b	83 bd f0 fe ff
	ff 01		 cmp	 DWORD PTR _Flag$[ebp], 1
  00432	0f 85 97 01 00
	00		 jne	 $LN1@LoadConfig

; 106  : 		{
; 107  : 			Time[Count].StrHour	= 0;

  00438	8b 45 f8	 mov	 eax, DWORD PTR _this$[ebp]
  0043b	8b 88 c0 1c 02
	00		 mov	 ecx, DWORD PTR [eax+138432]
  00441	6b c9 18	 imul	 ecx, 24			; 00000018H
  00444	8b 55 f8	 mov	 edx, DWORD PTR _this$[ebp]
  00447	c7 84 0a c0 10
	02 00 00 00 00
	00		 mov	 DWORD PTR [edx+ecx+135360], 0

; 108  : 			Time[Count].StrMin	= 0;

  00452	8b 45 f8	 mov	 eax, DWORD PTR _this$[ebp]
  00455	8b 88 c0 1c 02
	00		 mov	 ecx, DWORD PTR [eax+138432]
  0045b	6b c9 18	 imul	 ecx, 24			; 00000018H
  0045e	8b 55 f8	 mov	 edx, DWORD PTR _this$[ebp]
  00461	c7 84 0a c4 10
	02 00 00 00 00
	00		 mov	 DWORD PTR [edx+ecx+135364], 0

; 109  : 			Time[Count].Hour	= 0;

  0046c	8b 45 f8	 mov	 eax, DWORD PTR _this$[ebp]
  0046f	8b 88 c0 1c 02
	00		 mov	 ecx, DWORD PTR [eax+138432]
  00475	6b c9 18	 imul	 ecx, 24			; 00000018H
  00478	8b 55 f8	 mov	 edx, DWORD PTR _this$[ebp]
  0047b	c7 84 0a c8 10
	02 00 00 00 00
	00		 mov	 DWORD PTR [edx+ecx+135368], 0

; 110  : 			Time[Count].Min		= 0;

  00486	8b 45 f8	 mov	 eax, DWORD PTR _this$[ebp]
  00489	8b 88 c0 1c 02
	00		 mov	 ecx, DWORD PTR [eax+138432]
  0048f	6b c9 18	 imul	 ecx, 24			; 00000018H
  00492	8b 55 f8	 mov	 edx, DWORD PTR _this$[ebp]
  00495	c7 84 0a cc 10
	02 00 00 00 00
	00		 mov	 DWORD PTR [edx+ecx+135372], 0

; 111  : 			Time[Count].EndHour	= 0;

  004a0	8b 45 f8	 mov	 eax, DWORD PTR _this$[ebp]
  004a3	8b 88 c0 1c 02
	00		 mov	 ecx, DWORD PTR [eax+138432]
  004a9	6b c9 18	 imul	 ecx, 24			; 00000018H
  004ac	8b 55 f8	 mov	 edx, DWORD PTR _this$[ebp]
  004af	c7 84 0a d0 10
	02 00 00 00 00
	00		 mov	 DWORD PTR [edx+ecx+135376], 0

; 112  : 			Time[Count].EndMin	= 0;

  004ba	8b 45 f8	 mov	 eax, DWORD PTR _this$[ebp]
  004bd	8b 88 c0 1c 02
	00		 mov	 ecx, DWORD PTR [eax+138432]
  004c3	6b c9 18	 imul	 ecx, 24			; 00000018H
  004c6	8b 55 f8	 mov	 edx, DWORD PTR _this$[ebp]
  004c9	c7 84 0a d4 10
	02 00 00 00 00
	00		 mov	 DWORD PTR [edx+ecx+135380], 0

; 113  : 
; 114  : 			int n[7];
; 115  : 			sscanf(Buff, "%d %d %d %d %d %d", &n[0], &n[1], &n[2], &n[3], &n[4], &n[5]);

  004d4	8d 85 e8 fe ff
	ff		 lea	 eax, DWORD PTR _n$220457[ebp+20]
  004da	50		 push	 eax
  004db	8d 8d e4 fe ff
	ff		 lea	 ecx, DWORD PTR _n$220457[ebp+16]
  004e1	51		 push	 ecx
  004e2	8d 95 e0 fe ff
	ff		 lea	 edx, DWORD PTR _n$220457[ebp+12]
  004e8	52		 push	 edx
  004e9	8d 85 dc fe ff
	ff		 lea	 eax, DWORD PTR _n$220457[ebp+8]
  004ef	50		 push	 eax
  004f0	8d 8d d8 fe ff
	ff		 lea	 ecx, DWORD PTR _n$220457[ebp+4]
  004f6	51		 push	 ecx
  004f7	8d 95 d4 fe ff
	ff		 lea	 edx, DWORD PTR _n$220457[ebp]
  004fd	52		 push	 edx
  004fe	68 00 00 00 00	 push	 OFFSET ??_C@_0BC@HDIJPDCG@?$CFd?5?$CFd?5?$CFd?5?$CFd?5?$CFd?5?$CFd?$AA@
  00503	8d 85 f4 fe ff
	ff		 lea	 eax, DWORD PTR _Buff$[ebp]
  00509	50		 push	 eax
  0050a	e8 00 00 00 00	 call	 _sscanf
  0050f	83 c4 20	 add	 esp, 32			; 00000020H

; 116  : 			Time[Count].StrHour	= n[0];

  00512	8b 45 f8	 mov	 eax, DWORD PTR _this$[ebp]
  00515	8b 88 c0 1c 02
	00		 mov	 ecx, DWORD PTR [eax+138432]
  0051b	6b c9 18	 imul	 ecx, 24			; 00000018H
  0051e	8b 55 f8	 mov	 edx, DWORD PTR _this$[ebp]
  00521	8b 85 d4 fe ff
	ff		 mov	 eax, DWORD PTR _n$220457[ebp]
  00527	89 84 0a c0 10
	02 00		 mov	 DWORD PTR [edx+ecx+135360], eax

; 117  : 			Time[Count].StrMin	= n[1];

  0052e	8b 45 f8	 mov	 eax, DWORD PTR _this$[ebp]
  00531	8b 88 c0 1c 02
	00		 mov	 ecx, DWORD PTR [eax+138432]
  00537	6b c9 18	 imul	 ecx, 24			; 00000018H
  0053a	8b 55 f8	 mov	 edx, DWORD PTR _this$[ebp]
  0053d	8b 85 d8 fe ff
	ff		 mov	 eax, DWORD PTR _n$220457[ebp+4]
  00543	89 84 0a c4 10
	02 00		 mov	 DWORD PTR [edx+ecx+135364], eax

; 118  : 			Time[Count].Hour	= n[2];

  0054a	8b 45 f8	 mov	 eax, DWORD PTR _this$[ebp]
  0054d	8b 88 c0 1c 02
	00		 mov	 ecx, DWORD PTR [eax+138432]
  00553	6b c9 18	 imul	 ecx, 24			; 00000018H
  00556	8b 55 f8	 mov	 edx, DWORD PTR _this$[ebp]
  00559	8b 85 dc fe ff
	ff		 mov	 eax, DWORD PTR _n$220457[ebp+8]
  0055f	89 84 0a c8 10
	02 00		 mov	 DWORD PTR [edx+ecx+135368], eax

; 119  : 			Time[Count].Min		= n[3];;

  00566	8b 45 f8	 mov	 eax, DWORD PTR _this$[ebp]
  00569	8b 88 c0 1c 02
	00		 mov	 ecx, DWORD PTR [eax+138432]
  0056f	6b c9 18	 imul	 ecx, 24			; 00000018H
  00572	8b 55 f8	 mov	 edx, DWORD PTR _this$[ebp]
  00575	8b 85 e0 fe ff
	ff		 mov	 eax, DWORD PTR _n$220457[ebp+12]
  0057b	89 84 0a cc 10
	02 00		 mov	 DWORD PTR [edx+ecx+135372], eax

; 120  : 			Time[Count].EndHour	= n[4];

  00582	8b 45 f8	 mov	 eax, DWORD PTR _this$[ebp]
  00585	8b 88 c0 1c 02
	00		 mov	 ecx, DWORD PTR [eax+138432]
  0058b	6b c9 18	 imul	 ecx, 24			; 00000018H
  0058e	8b 55 f8	 mov	 edx, DWORD PTR _this$[ebp]
  00591	8b 85 e4 fe ff
	ff		 mov	 eax, DWORD PTR _n$220457[ebp+16]
  00597	89 84 0a d0 10
	02 00		 mov	 DWORD PTR [edx+ecx+135376], eax

; 121  : 			Time[Count].EndMin	= n[5];

  0059e	8b 45 f8	 mov	 eax, DWORD PTR _this$[ebp]
  005a1	8b 88 c0 1c 02
	00		 mov	 ecx, DWORD PTR [eax+138432]
  005a7	6b c9 18	 imul	 ecx, 24			; 00000018H
  005aa	8b 55 f8	 mov	 edx, DWORD PTR _this$[ebp]
  005ad	8b 85 e8 fe ff
	ff		 mov	 eax, DWORD PTR _n$220457[ebp+20]
  005b3	89 84 0a d4 10
	02 00		 mov	 DWORD PTR [edx+ecx+135380], eax

; 122  : 			Count++;

  005ba	8b 45 f8	 mov	 eax, DWORD PTR _this$[ebp]
  005bd	8b 88 c0 1c 02
	00		 mov	 ecx, DWORD PTR [eax+138432]
  005c3	83 c1 01	 add	 ecx, 1
  005c6	8b 55 f8	 mov	 edx, DWORD PTR _this$[ebp]
  005c9	89 8a c0 1c 02
	00		 mov	 DWORD PTR [edx+138432], ecx
$LN1@LoadConfig:

; 123  : 		}
; 124  : 	}

  005cf	e9 0c fe ff ff	 jmp	 $LN4@LoadConfig
$LN3@LoadConfig:

; 125  : 	fclose(file);

  005d4	8b 45 f4	 mov	 eax, DWORD PTR _file$[ebp]
  005d7	50		 push	 eax
  005d8	e8 00 00 00 00	 call	 _fclose
  005dd	83 c4 04	 add	 esp, 4
$LN8@LoadConfig:

; 126  : }

  005e0	5f		 pop	 edi
  005e1	5e		 pop	 esi
  005e2	5b		 pop	 ebx
  005e3	8b 4d fc	 mov	 ecx, DWORD PTR __$ArrayPad$[ebp]
  005e6	33 cd		 xor	 ecx, ebp
  005e8	e8 00 00 00 00	 call	 @__security_check_cookie@4
  005ed	8b e5		 mov	 esp, ebp
  005ef	5d		 pop	 ebp
  005f0	c3		 ret	 0
?LoadConfigs@cLoraBattle@@QAEXXZ ENDP			; cLoraBattle::LoadConfigs
_TEXT	ENDS
PUBLIC	??_C@_02DKCKIIND@?$CFs?$AA@			; `string'
PUBLIC	?Start1min@cLoraBattle@@QAEXXZ			; cLoraBattle::Start1min
EXTRN	?MessaageAllGlobal@@YAXPADZZ:PROC		; MessaageAllGlobal
;	COMDAT ??_C@_02DKCKIIND@?$CFs?$AA@
CONST	SEGMENT
??_C@_02DKCKIIND@?$CFs?$AA@ DB '%s', 00H		; `string'
; Function compile flags: /Odtp /ZI
CONST	ENDS
_TEXT	SEGMENT
_this$ = -4						; size = 4
?Start1min@cLoraBattle@@QAEXXZ PROC			; cLoraBattle::Start1min
; _this$ = ecx

; 128  : {

  00600	55		 push	 ebp
  00601	8b ec		 mov	 ebp, esp
  00603	83 ec 44	 sub	 esp, 68			; 00000044H
  00606	53		 push	 ebx
  00607	56		 push	 esi
  00608	57		 push	 edi
  00609	89 4d fc	 mov	 DWORD PTR _this$[ebp], ecx

; 129  : 	MessaageAllGlobal("%s",MSG);

  0060c	8b 45 fc	 mov	 eax, DWORD PTR _this$[ebp]
  0060f	05 c0 0f 02 00	 add	 eax, 135104		; 00020fc0H
  00614	50		 push	 eax
  00615	68 00 00 00 00	 push	 OFFSET ??_C@_02DKCKIIND@?$CFs?$AA@
  0061a	e8 00 00 00 00	 call	 ?MessaageAllGlobal@@YAXPADZZ ; MessaageAllGlobal
  0061f	83 c4 08	 add	 esp, 8

; 130  : }

  00622	5f		 pop	 edi
  00623	5e		 pop	 esi
  00624	5b		 pop	 ebx
  00625	8b e5		 mov	 esp, ebp
  00627	5d		 pop	 ebp
  00628	c3		 ret	 0
?Start1min@cLoraBattle@@QAEXXZ ENDP			; cLoraBattle::Start1min
_TEXT	ENDS
PUBLIC	??_C@_0BN@PBMEEMOK@?$FLLora?5Battle?$FN?5Event?5Started?$CB?$AA@ ; `string'
PUBLIC	?StartEvent@cLoraBattle@@QAEXXZ			; cLoraBattle::StartEvent
EXTRN	?gObj@@3PAUOBJECTSTRUCT@@A:DWORD		; gObj
;	COMDAT ??_C@_0BN@PBMEEMOK@?$FLLora?5Battle?$FN?5Event?5Started?$CB?$AA@
CONST	SEGMENT
??_C@_0BN@PBMEEMOK@?$FLLora?5Battle?$FN?5Event?5Started?$CB?$AA@ DB '[Lor'
	DB	'a Battle] Event Started!', 00H		; `string'
; Function compile flags: /Odtp /ZI
CONST	ENDS
_TEXT	SEGMENT
_lpObj$220470 = -12					; size = 4
_j$220466 = -8						; size = 4
_this$ = -4						; size = 4
?StartEvent@cLoraBattle@@QAEXXZ PROC			; cLoraBattle::StartEvent
; _this$ = ecx

; 133  : {

  00630	55		 push	 ebp
  00631	8b ec		 mov	 ebp, esp
  00633	83 ec 4c	 sub	 esp, 76			; 0000004cH
  00636	53		 push	 ebx
  00637	56		 push	 esi
  00638	57		 push	 edi
  00639	89 4d fc	 mov	 DWORD PTR _this$[ebp], ecx

; 134  : 	for(int j=OBJ_STARTUSERINDEX; j<OBJMAX; j++)

  0063c	c7 45 f8 b0 36
	00 00		 mov	 DWORD PTR _j$220466[ebp], 14000 ; 000036b0H
  00643	eb 09		 jmp	 SHORT $LN3@StartEvent
$LN2@StartEvent:
  00645	8b 45 f8	 mov	 eax, DWORD PTR _j$220466[ebp]
  00648	83 c0 01	 add	 eax, 1
  0064b	89 45 f8	 mov	 DWORD PTR _j$220466[ebp], eax
$LN3@StartEvent:
  0064e	81 7d f8 98 3a
	00 00		 cmp	 DWORD PTR _j$220466[ebp], 15000 ; 00003a98H
  00655	7d 2b		 jge	 SHORT $LN1@StartEvent

; 135  : 	{
; 136  : 		LPOBJ lpObj = &gObj[j];

  00657	8b 45 f8	 mov	 eax, DWORD PTR _j$220466[ebp]
  0065a	69 c0 38 2b 00
	00		 imul	 eax, 11064		; 00002b38H
  00660	03 05 00 00 00
	00		 add	 eax, DWORD PTR ?gObj@@3PAUOBJECTSTRUCT@@A ; gObj
  00666	89 45 f4	 mov	 DWORD PTR _lpObj$220470[ebp], eax

; 137  : 		m_PK_Level[j] = lpObj->m_PK_Level;

  00669	8b 45 f4	 mov	 eax, DWORD PTR _lpObj$220470[ebp]
  0066c	0f be 88 3d 01
	00 00		 movsx	 ecx, BYTE PTR [eax+317]
  00673	8b 55 f8	 mov	 edx, DWORD PTR _j$220466[ebp]
  00676	8b 45 fc	 mov	 eax, DWORD PTR _this$[ebp]
  00679	89 8c 90 58 25
	01 00		 mov	 DWORD PTR [eax+edx*4+75096], ecx

; 138  : 	}

  00680	eb c3		 jmp	 SHORT $LN2@StartEvent
$LN1@StartEvent:

; 139  : 
; 140  : 	Start = true;

  00682	8b 45 fc	 mov	 eax, DWORD PTR _this$[ebp]
  00685	c7 40 04 01 00
	00 00		 mov	 DWORD PTR [eax+4], 1

; 141  : 	MessaageAllGlobal("[Lora Battle] Event Started!");

  0068c	68 00 00 00 00	 push	 OFFSET ??_C@_0BN@PBMEEMOK@?$FLLora?5Battle?$FN?5Event?5Started?$CB?$AA@
  00691	e8 00 00 00 00	 call	 ?MessaageAllGlobal@@YAXPADZZ ; MessaageAllGlobal
  00696	83 c4 04	 add	 esp, 4

; 142  : }

  00699	5f		 pop	 edi
  0069a	5e		 pop	 esi
  0069b	5b		 pop	 ebx
  0069c	8b e5		 mov	 esp, ebp
  0069e	5d		 pop	 ebp
  0069f	c3		 ret	 0
?StartEvent@cLoraBattle@@QAEXXZ ENDP			; cLoraBattle::StartEvent
_TEXT	ENDS
PUBLIC	??_C@_0BJ@EPHMJCPI@?$FLLora?5Battle?$FN?5Event?5End?$CB?$AA@ ; `string'
PUBLIC	??_C@_0CH@OOCAHOIJ@?$FLLora?5Battle?$FN?5Total?5Win?5?$CFd?0?5No?5R@ ; `string'
PUBLIC	?Reward@cLoraBattle@@QAEXH@Z			; cLoraBattle::Reward
PUBLIC	??_C@_0BH@GDLLBIKC@?$FLLora?5Battle?$FN?5Win?5?$CFs?5?$CB?$AA@ ; `string'
PUBLIC	?EndEvent@cLoraBattle@@QAEXXZ			; cLoraBattle::EndEvent
;	COMDAT ??_C@_0BJ@EPHMJCPI@?$FLLora?5Battle?$FN?5Event?5End?$CB?$AA@
CONST	SEGMENT
??_C@_0BJ@EPHMJCPI@?$FLLora?5Battle?$FN?5Event?5End?$CB?$AA@ DB '[Lora Ba'
	DB	'ttle] Event End!', 00H			; `string'
CONST	ENDS
;	COMDAT ??_C@_0CH@OOCAHOIJ@?$FLLora?5Battle?$FN?5Total?5Win?5?$CFd?0?5No?5R@
CONST	SEGMENT
??_C@_0CH@OOCAHOIJ@?$FLLora?5Battle?$FN?5Total?5Win?5?$CFd?0?5No?5R@ DB '['
	DB	'Lora Battle] Total Win %d, No Reward!', 00H	; `string'
CONST	ENDS
;	COMDAT ??_C@_0BH@GDLLBIKC@?$FLLora?5Battle?$FN?5Win?5?$CFs?5?$CB?$AA@
CONST	SEGMENT
??_C@_0BH@GDLLBIKC@?$FLLora?5Battle?$FN?5Win?5?$CFs?5?$CB?$AA@ DB '[Lora '
	DB	'Battle] Win %s !', 00H			; `string'
; Function compile flags: /Odtp /ZI
CONST	ENDS
_TEXT	SEGMENT
_lpObj$220506 = -36					; size = 4
_i$220502 = -32						; size = 4
_lpObj$220496 = -28					; size = 4
_l$220490 = -24						; size = 4
_lpObj$220487 = -20					; size = 4
_l$220481 = -16						; size = 4
_TotalWin$ = -12					; size = 4
_j$220475 = -8						; size = 4
_this$ = -4						; size = 4
?EndEvent@cLoraBattle@@QAEXXZ PROC			; cLoraBattle::EndEvent
; _this$ = ecx

; 145  : {

  006a0	55		 push	 ebp
  006a1	8b ec		 mov	 ebp, esp
  006a3	83 ec 64	 sub	 esp, 100		; 00000064H
  006a6	53		 push	 ebx
  006a7	56		 push	 esi
  006a8	57		 push	 edi
  006a9	89 4d fc	 mov	 DWORD PTR _this$[ebp], ecx

; 146  : 	Start = false;

  006ac	8b 45 fc	 mov	 eax, DWORD PTR _this$[ebp]
  006af	c7 40 04 00 00
	00 00		 mov	 DWORD PTR [eax+4], 0

; 147  : 	for(int j=OBJ_STARTUSERINDEX; j<OBJMAX; j++)

  006b6	c7 45 f8 b0 36
	00 00		 mov	 DWORD PTR _j$220475[ebp], 14000 ; 000036b0H
  006bd	eb 09		 jmp	 SHORT $LN21@EndEvent
$LN20@EndEvent:
  006bf	8b 45 f8	 mov	 eax, DWORD PTR _j$220475[ebp]
  006c2	83 c0 01	 add	 eax, 1
  006c5	89 45 f8	 mov	 DWORD PTR _j$220475[ebp], eax
$LN21@EndEvent:
  006c8	81 7d f8 98 3a
	00 00		 cmp	 DWORD PTR _j$220475[ebp], 15000 ; 00003a98H
  006cf	7d 36		 jge	 SHORT $LN19@EndEvent

; 148  : 	{
; 149  : 		//MaxSocer = KillSocer[j];
; 150  : 		if(KillSocer[j] > MaxSocer)

  006d1	8b 45 f8	 mov	 eax, DWORD PTR _j$220475[ebp]
  006d4	8b 4d fc	 mov	 ecx, DWORD PTR _this$[ebp]
  006d7	8b 55 fc	 mov	 edx, DWORD PTR _this$[ebp]
  006da	8b 44 81 60	 mov	 eax, DWORD PTR [ecx+eax*4+96]
  006de	3b 82 b8 0f 02
	00		 cmp	 eax, DWORD PTR [edx+135096]
  006e4	7e 1f		 jle	 SHORT $LN18@EndEvent

; 151  : 		{
; 152  : 			MaxSocer = KillSocer[j];

  006e6	8b 45 fc	 mov	 eax, DWORD PTR _this$[ebp]
  006e9	8b 4d f8	 mov	 ecx, DWORD PTR _j$220475[ebp]
  006ec	8b 55 fc	 mov	 edx, DWORD PTR _this$[ebp]
  006ef	8b 4c 8a 60	 mov	 ecx, DWORD PTR [edx+ecx*4+96]
  006f3	89 88 b8 0f 02
	00		 mov	 DWORD PTR [eax+135096], ecx

; 153  : 			MaxIndex = j;

  006f9	8b 45 fc	 mov	 eax, DWORD PTR _this$[ebp]
  006fc	8b 4d f8	 mov	 ecx, DWORD PTR _j$220475[ebp]
  006ff	89 88 bc 0f 02
	00		 mov	 DWORD PTR [eax+135100], ecx
$LN18@EndEvent:

; 154  : 		}
; 155  : 	}

  00705	eb b8		 jmp	 SHORT $LN20@EndEvent
$LN19@EndEvent:

; 156  : 
; 157  : 	int TotalWin = 0;

  00707	c7 45 f4 00 00
	00 00		 mov	 DWORD PTR _TotalWin$[ebp], 0

; 158  : 
; 159  : 	for(int l=OBJ_STARTUSERINDEX; l<OBJMAX; l++)

  0070e	c7 45 f0 b0 36
	00 00		 mov	 DWORD PTR _l$220481[ebp], 14000 ; 000036b0H
  00715	eb 09		 jmp	 SHORT $LN17@EndEvent
$LN16@EndEvent:
  00717	8b 45 f0	 mov	 eax, DWORD PTR _l$220481[ebp]
  0071a	83 c0 01	 add	 eax, 1
  0071d	89 45 f0	 mov	 DWORD PTR _l$220481[ebp], eax
$LN17@EndEvent:
  00720	81 7d f0 98 3a
	00 00		 cmp	 DWORD PTR _l$220481[ebp], 15000 ; 00003a98H
  00727	7d 4a		 jge	 SHORT $LN15@EndEvent

; 160  : 	{
; 161  : 		if(KillSocer[l] == 0)

  00729	8b 45 f0	 mov	 eax, DWORD PTR _l$220481[ebp]
  0072c	8b 4d fc	 mov	 ecx, DWORD PTR _this$[ebp]
  0072f	83 7c 81 60 00	 cmp	 DWORD PTR [ecx+eax*4+96], 0
  00734	75 02		 jne	 SHORT $LN14@EndEvent

; 162  : 			continue;

  00736	eb df		 jmp	 SHORT $LN16@EndEvent
$LN14@EndEvent:

; 163  : 
; 164  : 		if(MaxSocer == KillSocer[l])

  00738	8b 45 fc	 mov	 eax, DWORD PTR _this$[ebp]
  0073b	8b 4d f0	 mov	 ecx, DWORD PTR _l$220481[ebp]
  0073e	8b 55 fc	 mov	 edx, DWORD PTR _this$[ebp]
  00741	8b 80 b8 0f 02
	00		 mov	 eax, DWORD PTR [eax+135096]
  00747	3b 44 8a 60	 cmp	 eax, DWORD PTR [edx+ecx*4+96]
  0074b	75 24		 jne	 SHORT $LN13@EndEvent

; 165  : 		{
; 166  : 			LPOBJ lpObj = &gObj[l];

  0074d	8b 45 f0	 mov	 eax, DWORD PTR _l$220481[ebp]
  00750	69 c0 38 2b 00
	00		 imul	 eax, 11064		; 00002b38H
  00756	03 05 00 00 00
	00		 add	 eax, DWORD PTR ?gObj@@3PAUOBJECTSTRUCT@@A ; gObj
  0075c	89 45 ec	 mov	 DWORD PTR _lpObj$220487[ebp], eax

; 167  : 			if(lpObj->Connected == PLAYER_PLAYING)

  0075f	8b 45 ec	 mov	 eax, DWORD PTR _lpObj$220487[ebp]
  00762	83 78 04 03	 cmp	 DWORD PTR [eax+4], 3
  00766	75 09		 jne	 SHORT $LN13@EndEvent

; 168  : 			{
; 169  : 				TotalWin++;

  00768	8b 45 f4	 mov	 eax, DWORD PTR _TotalWin$[ebp]
  0076b	83 c0 01	 add	 eax, 1
  0076e	89 45 f4	 mov	 DWORD PTR _TotalWin$[ebp], eax
$LN13@EndEvent:

; 170  : 			}
; 171  : 		}
; 172  : 	}

  00771	eb a4		 jmp	 SHORT $LN16@EndEvent
$LN15@EndEvent:

; 173  : 
; 174  : 	if(TotalWin == 1)

  00773	83 7d f4 01	 cmp	 DWORD PTR _TotalWin$[ebp], 1
  00777	75 7e		 jne	 SHORT $LN11@EndEvent

; 175  : 	{
; 176  : 		for(int l=OBJ_STARTUSERINDEX; l<OBJMAX; l++)

  00779	c7 45 e8 b0 36
	00 00		 mov	 DWORD PTR _l$220490[ebp], 14000 ; 000036b0H
  00780	eb 09		 jmp	 SHORT $LN10@EndEvent
$LN9@EndEvent:
  00782	8b 45 e8	 mov	 eax, DWORD PTR _l$220490[ebp]
  00785	83 c0 01	 add	 eax, 1
  00788	89 45 e8	 mov	 DWORD PTR _l$220490[ebp], eax
$LN10@EndEvent:
  0078b	81 7d e8 98 3a
	00 00		 cmp	 DWORD PTR _l$220490[ebp], 15000 ; 00003a98H
  00792	7d 61		 jge	 SHORT $LN8@EndEvent

; 177  : 		{
; 178  : 			if(KillSocer[l] == 0)

  00794	8b 45 e8	 mov	 eax, DWORD PTR _l$220490[ebp]
  00797	8b 4d fc	 mov	 ecx, DWORD PTR _this$[ebp]
  0079a	83 7c 81 60 00	 cmp	 DWORD PTR [ecx+eax*4+96], 0
  0079f	75 02		 jne	 SHORT $LN7@EndEvent

; 179  : 				continue;

  007a1	eb df		 jmp	 SHORT $LN9@EndEvent
$LN7@EndEvent:

; 180  : 
; 181  : 			if(MaxSocer == KillSocer[l])

  007a3	8b 45 fc	 mov	 eax, DWORD PTR _this$[ebp]
  007a6	8b 4d e8	 mov	 ecx, DWORD PTR _l$220490[ebp]
  007a9	8b 55 fc	 mov	 edx, DWORD PTR _this$[ebp]
  007ac	8b 80 b8 0f 02
	00		 mov	 eax, DWORD PTR [eax+135096]
  007b2	3b 44 8a 60	 cmp	 eax, DWORD PTR [edx+ecx*4+96]
  007b6	75 3b		 jne	 SHORT $LN6@EndEvent

; 182  : 			{
; 183  : 				LPOBJ lpObj = &gObj[l];

  007b8	8b 45 e8	 mov	 eax, DWORD PTR _l$220490[ebp]
  007bb	69 c0 38 2b 00
	00		 imul	 eax, 11064		; 00002b38H
  007c1	03 05 00 00 00
	00		 add	 eax, DWORD PTR ?gObj@@3PAUOBJECTSTRUCT@@A ; gObj
  007c7	89 45 e4	 mov	 DWORD PTR _lpObj$220496[ebp], eax

; 184  : 				if(lpObj->Connected == PLAYER_PLAYING)

  007ca	8b 45 e4	 mov	 eax, DWORD PTR _lpObj$220496[ebp]
  007cd	83 78 04 03	 cmp	 DWORD PTR [eax+4], 3
  007d1	75 20		 jne	 SHORT $LN6@EndEvent

; 185  : 				{
; 186  : 					MessaageAllGlobal("[Lora Battle] Win %s !",lpObj->Name);

  007d3	8b 45 e4	 mov	 eax, DWORD PTR _lpObj$220496[ebp]
  007d6	83 c0 77	 add	 eax, 119		; 00000077H
  007d9	50		 push	 eax
  007da	68 00 00 00 00	 push	 OFFSET ??_C@_0BH@GDLLBIKC@?$FLLora?5Battle?$FN?5Win?5?$CFs?5?$CB?$AA@
  007df	e8 00 00 00 00	 call	 ?MessaageAllGlobal@@YAXPADZZ ; MessaageAllGlobal
  007e4	83 c4 08	 add	 esp, 8

; 187  : 					Reward(l);

  007e7	8b 45 e8	 mov	 eax, DWORD PTR _l$220490[ebp]
  007ea	50		 push	 eax
  007eb	8b 4d fc	 mov	 ecx, DWORD PTR _this$[ebp]
  007ee	e8 00 00 00 00	 call	 ?Reward@cLoraBattle@@QAEXH@Z ; cLoraBattle::Reward
$LN6@EndEvent:

; 188  : 				}
; 189  : 			}
; 190  : 		}

  007f3	eb 8d		 jmp	 SHORT $LN9@EndEvent
$LN8@EndEvent:

; 191  : 	}
; 192  : 	else

  007f5	eb 11		 jmp	 SHORT $LN4@EndEvent
$LN11@EndEvent:

; 193  : 	{
; 194  : 		MessaageAllGlobal("[Lora Battle] Total Win %d, No Reward!", TotalWin);

  007f7	8b 45 f4	 mov	 eax, DWORD PTR _TotalWin$[ebp]
  007fa	50		 push	 eax
  007fb	68 00 00 00 00	 push	 OFFSET ??_C@_0CH@OOCAHOIJ@?$FLLora?5Battle?$FN?5Total?5Win?5?$CFd?0?5No?5R@
  00800	e8 00 00 00 00	 call	 ?MessaageAllGlobal@@YAXPADZZ ; MessaageAllGlobal
  00805	83 c4 08	 add	 esp, 8
$LN4@EndEvent:

; 195  : 	}
; 196  : 	
; 197  :  	MessaageAllGlobal("[Lora Battle] Event End!");

  00808	68 00 00 00 00	 push	 OFFSET ??_C@_0BJ@EPHMJCPI@?$FLLora?5Battle?$FN?5Event?5End?$CB?$AA@
  0080d	e8 00 00 00 00	 call	 ?MessaageAllGlobal@@YAXPADZZ ; MessaageAllGlobal
  00812	83 c4 04	 add	 esp, 4

; 198  : 
; 199  : 	for(int i=OBJ_STARTUSERINDEX; i<OBJMAX; i++)

  00815	c7 45 e0 b0 36
	00 00		 mov	 DWORD PTR _i$220502[ebp], 14000 ; 000036b0H
  0081c	eb 09		 jmp	 SHORT $LN3@EndEvent
$LN2@EndEvent:
  0081e	8b 45 e0	 mov	 eax, DWORD PTR _i$220502[ebp]
  00821	83 c0 01	 add	 eax, 1
  00824	89 45 e0	 mov	 DWORD PTR _i$220502[ebp], eax
$LN3@EndEvent:
  00827	81 7d e0 98 3a
	00 00		 cmp	 DWORD PTR _i$220502[ebp], 15000 ; 00003a98H
  0082e	7d 22		 jge	 SHORT $LN1@EndEvent

; 200  : 	{
; 201  : 		LPOBJ lpObj = &gObj[i];

  00830	8b 45 e0	 mov	 eax, DWORD PTR _i$220502[ebp]
  00833	69 c0 38 2b 00
	00		 imul	 eax, 11064		; 00002b38H
  00839	03 05 00 00 00
	00		 add	 eax, DWORD PTR ?gObj@@3PAUOBJECTSTRUCT@@A ; gObj
  0083f	89 45 dc	 mov	 DWORD PTR _lpObj$220506[ebp], eax

; 202  : 		KillSocer[i] = 0;

  00842	8b 45 e0	 mov	 eax, DWORD PTR _i$220502[ebp]
  00845	8b 4d fc	 mov	 ecx, DWORD PTR _this$[ebp]
  00848	c7 44 81 60 00
	00 00 00	 mov	 DWORD PTR [ecx+eax*4+96], 0

; 203  : 		
; 204  : 		
; 205  : 	}

  00850	eb cc		 jmp	 SHORT $LN2@EndEvent
$LN1@EndEvent:

; 206  : 
; 207  : 	MaxSocer	 = 0;

  00852	8b 45 fc	 mov	 eax, DWORD PTR _this$[ebp]
  00855	c7 80 b8 0f 02
	00 00 00 00 00	 mov	 DWORD PTR [eax+135096], 0

; 208  : }

  0085f	5f		 pop	 edi
  00860	5e		 pop	 esi
  00861	5b		 pop	 ebx
  00862	8b e5		 mov	 esp, ebp
  00864	5d		 pop	 ebp
  00865	c3		 ret	 0
?EndEvent@cLoraBattle@@QAEXXZ ENDP			; cLoraBattle::EndEvent
_TEXT	ENDS
PUBLIC	__$ArrayPad$
PUBLIC	?TickTime@cLoraBattle@@QAEXXZ			; cLoraBattle::TickTime
EXTRN	?GetSecond@CTimerEx@@QAEHXZ:PROC		; CTimerEx::GetSecond
EXTRN	?g_TimerEx@@3VCTimerEx@@A:DWORD			; g_TimerEx
EXTRN	__imp__GetLocalTime@4:PROC
; Function compile flags: /Odtp /ZI
_TEXT	SEGMENT
_i$220513 = -28						; size = 4
_time$ = -24						; size = 16
_this$ = -8						; size = 4
__$ArrayPad$ = -4					; size = 4
?TickTime@cLoraBattle@@QAEXXZ PROC			; cLoraBattle::TickTime
; _this$ = ecx

; 211  : {

  00870	55		 push	 ebp
  00871	8b ec		 mov	 ebp, esp
  00873	83 ec 5c	 sub	 esp, 92			; 0000005cH
  00876	a1 00 00 00 00	 mov	 eax, DWORD PTR ___security_cookie
  0087b	33 c5		 xor	 eax, ebp
  0087d	89 45 fc	 mov	 DWORD PTR __$ArrayPad$[ebp], eax
  00880	53		 push	 ebx
  00881	56		 push	 esi
  00882	57		 push	 edi
  00883	89 4d f8	 mov	 DWORD PTR _this$[ebp], ecx

; 212  : 	if(!Enable) return;

  00886	8b 45 f8	 mov	 eax, DWORD PTR _this$[ebp]
  00889	83 38 00	 cmp	 DWORD PTR [eax], 0
  0088c	75 05		 jne	 SHORT $LN10@TickTime
  0088e	e9 e5 00 00 00	 jmp	 $LN11@TickTime
$LN10@TickTime:

; 213  : 	SYSTEMTIME time;
; 214  : 	GetLocalTime(&time);

  00893	8d 45 e8	 lea	 eax, DWORD PTR _time$[ebp]
  00896	50		 push	 eax
  00897	ff 15 00 00 00
	00		 call	 DWORD PTR __imp__GetLocalTime@4

; 215  : 
; 216  : #if(NEWTIMEREX)
; 217  : 	if(g_TimerEx.GetSecond() == 00)

  0089d	b9 00 00 00 00	 mov	 ecx, OFFSET ?g_TimerEx@@3VCTimerEx@@A ; g_TimerEx
  008a2	e8 00 00 00 00	 call	 ?GetSecond@CTimerEx@@QAEHXZ ; CTimerEx::GetSecond
  008a7	85 c0		 test	 eax, eax
  008a9	0f 85 c9 00 00
	00		 jne	 $LN11@TickTime

; 218  : #else
; 219  : 	if(time.wSecond == 00)
; 220  : #endif
; 221  : 	{
; 222  : 		for(int i = 0; i < Count; i++)

  008af	c7 45 e4 00 00
	00 00		 mov	 DWORD PTR _i$220513[ebp], 0
  008b6	eb 09		 jmp	 SHORT $LN8@TickTime
$LN7@TickTime:
  008b8	8b 45 e4	 mov	 eax, DWORD PTR _i$220513[ebp]
  008bb	83 c0 01	 add	 eax, 1
  008be	89 45 e4	 mov	 DWORD PTR _i$220513[ebp], eax
$LN8@TickTime:
  008c1	8b 45 f8	 mov	 eax, DWORD PTR _this$[ebp]
  008c4	8b 4d e4	 mov	 ecx, DWORD PTR _i$220513[ebp]
  008c7	3b 88 c0 1c 02
	00		 cmp	 ecx, DWORD PTR [eax+138432]
  008cd	0f 8d a5 00 00
	00		 jge	 $LN11@TickTime

; 223  : 		{
; 224  : 			if(Time[i].StrHour == time.wHour && Time[i].StrMin == time.wMinute)

  008d3	8b 45 e4	 mov	 eax, DWORD PTR _i$220513[ebp]
  008d6	6b c0 18	 imul	 eax, 24			; 00000018H
  008d9	0f b7 4d f0	 movzx	 ecx, WORD PTR _time$[ebp+8]
  008dd	8b 55 f8	 mov	 edx, DWORD PTR _this$[ebp]
  008e0	39 8c 02 c0 10
	02 00		 cmp	 DWORD PTR [edx+eax+135360], ecx
  008e7	75 20		 jne	 SHORT $LN5@TickTime
  008e9	8b 45 e4	 mov	 eax, DWORD PTR _i$220513[ebp]
  008ec	6b c0 18	 imul	 eax, 24			; 00000018H
  008ef	0f b7 4d f2	 movzx	 ecx, WORD PTR _time$[ebp+10]
  008f3	8b 55 f8	 mov	 edx, DWORD PTR _this$[ebp]
  008f6	39 8c 02 c4 10
	02 00		 cmp	 DWORD PTR [edx+eax+135364], ecx
  008fd	75 0a		 jne	 SHORT $LN5@TickTime

; 225  : 			{
; 226  : 
; 227  : 				Start1min();

  008ff	8b 4d f8	 mov	 ecx, DWORD PTR _this$[ebp]
  00902	e8 00 00 00 00	 call	 ?Start1min@cLoraBattle@@QAEXXZ ; cLoraBattle::Start1min
  00907	eb 6a		 jmp	 SHORT $LN4@TickTime
$LN5@TickTime:

; 228  : 			}
; 229  : 
; 230  : 			else if(Time[i].Hour == time.wHour && Time[i].Min == time.wMinute)

  00909	8b 45 e4	 mov	 eax, DWORD PTR _i$220513[ebp]
  0090c	6b c0 18	 imul	 eax, 24			; 00000018H
  0090f	0f b7 4d f0	 movzx	 ecx, WORD PTR _time$[ebp+8]
  00913	8b 55 f8	 mov	 edx, DWORD PTR _this$[ebp]
  00916	39 8c 02 c8 10
	02 00		 cmp	 DWORD PTR [edx+eax+135368], ecx
  0091d	75 20		 jne	 SHORT $LN3@TickTime
  0091f	8b 45 e4	 mov	 eax, DWORD PTR _i$220513[ebp]
  00922	6b c0 18	 imul	 eax, 24			; 00000018H
  00925	0f b7 4d f2	 movzx	 ecx, WORD PTR _time$[ebp+10]
  00929	8b 55 f8	 mov	 edx, DWORD PTR _this$[ebp]
  0092c	39 8c 02 cc 10
	02 00		 cmp	 DWORD PTR [edx+eax+135372], ecx
  00933	75 0a		 jne	 SHORT $LN3@TickTime

; 231  : 			{
; 232  : 
; 233  : 				StartEvent();

  00935	8b 4d f8	 mov	 ecx, DWORD PTR _this$[ebp]
  00938	e8 00 00 00 00	 call	 ?StartEvent@cLoraBattle@@QAEXXZ ; cLoraBattle::StartEvent
  0093d	eb 34		 jmp	 SHORT $LN4@TickTime
$LN3@TickTime:

; 234  : 			}
; 235  : 			else if(Time[i].EndHour == time.wHour && Time[i].EndMin == time.wMinute)

  0093f	8b 45 e4	 mov	 eax, DWORD PTR _i$220513[ebp]
  00942	6b c0 18	 imul	 eax, 24			; 00000018H
  00945	0f b7 4d f0	 movzx	 ecx, WORD PTR _time$[ebp+8]
  00949	8b 55 f8	 mov	 edx, DWORD PTR _this$[ebp]
  0094c	39 8c 02 d0 10
	02 00		 cmp	 DWORD PTR [edx+eax+135376], ecx
  00953	75 1e		 jne	 SHORT $LN4@TickTime
  00955	8b 45 e4	 mov	 eax, DWORD PTR _i$220513[ebp]
  00958	6b c0 18	 imul	 eax, 24			; 00000018H
  0095b	0f b7 4d f2	 movzx	 ecx, WORD PTR _time$[ebp+10]
  0095f	8b 55 f8	 mov	 edx, DWORD PTR _this$[ebp]
  00962	39 8c 02 d4 10
	02 00		 cmp	 DWORD PTR [edx+eax+135380], ecx
  00969	75 08		 jne	 SHORT $LN4@TickTime

; 236  : 			{
; 237  : 
; 238  : 				EndEvent();

  0096b	8b 4d f8	 mov	 ecx, DWORD PTR _this$[ebp]
  0096e	e8 00 00 00 00	 call	 ?EndEvent@cLoraBattle@@QAEXXZ ; cLoraBattle::EndEvent
$LN4@TickTime:

; 239  : 			}
; 240  : 		}

  00973	e9 40 ff ff ff	 jmp	 $LN7@TickTime
$LN11@TickTime:

; 241  : 	}
; 242  : }

  00978	5f		 pop	 edi
  00979	5e		 pop	 esi
  0097a	5b		 pop	 ebx
  0097b	8b 4d fc	 mov	 ecx, DWORD PTR __$ArrayPad$[ebp]
  0097e	33 cd		 xor	 ecx, ebp
  00980	e8 00 00 00 00	 call	 @__security_check_cookie@4
  00985	8b e5		 mov	 esp, ebp
  00987	5d		 pop	 ebp
  00988	c3		 ret	 0
?TickTime@cLoraBattle@@QAEXXZ ENDP			; cLoraBattle::TickTime
_TEXT	ENDS
PUBLIC	??_C@_0BI@DNKPLJPH@?$FLLoraBattle?$FN?5Killed?3?5?$CFd?$AA@ ; `string'
PUBLIC	?BattleKillSocer@cLoraBattle@@QAEXHH@Z		; cLoraBattle::BattleKillSocer
EXTRN	?ItemSerialCreateSend@@YAXHEEEHEEEEEHEE@Z:PROC	; ItemSerialCreateSend
EXTRN	?MsgNormal@@YAXHPADZZ:PROC			; MsgNormal
;	COMDAT ??_C@_0BI@DNKPLJPH@?$FLLoraBattle?$FN?5Killed?3?5?$CFd?$AA@
CONST	SEGMENT
??_C@_0BI@DNKPLJPH@?$FLLoraBattle?$FN?5Killed?3?5?$CFd?$AA@ DB '[LoraBatt'
	DB	'le] Killed: %d', 00H			; `string'
; Function compile flags: /Odtp /ZI
CONST	ENDS
_TEXT	SEGMENT
_lpTargetObj$ = -12					; size = 4
_lpObj$ = -8						; size = 4
_this$ = -4						; size = 4
_aIndex$ = 8						; size = 4
_aIndex2$ = 12						; size = 4
?BattleKillSocer@cLoraBattle@@QAEXHH@Z PROC		; cLoraBattle::BattleKillSocer
; _this$ = ecx

; 245  : {

  00990	55		 push	 ebp
  00991	8b ec		 mov	 ebp, esp
  00993	83 ec 4c	 sub	 esp, 76			; 0000004cH
  00996	53		 push	 ebx
  00997	56		 push	 esi
  00998	57		 push	 edi
  00999	89 4d fc	 mov	 DWORD PTR _this$[ebp], ecx

; 246  : 	LPOBJ lpObj = &gObj[aIndex];	

  0099c	8b 45 08	 mov	 eax, DWORD PTR _aIndex$[ebp]
  0099f	69 c0 38 2b 00
	00		 imul	 eax, 11064		; 00002b38H
  009a5	03 05 00 00 00
	00		 add	 eax, DWORD PTR ?gObj@@3PAUOBJECTSTRUCT@@A ; gObj
  009ab	89 45 f8	 mov	 DWORD PTR _lpObj$[ebp], eax

; 247  : 	LPOBJ lpTargetObj = &gObj[aIndex2];	

  009ae	8b 45 0c	 mov	 eax, DWORD PTR _aIndex2$[ebp]
  009b1	69 c0 38 2b 00
	00		 imul	 eax, 11064		; 00002b38H
  009b7	03 05 00 00 00
	00		 add	 eax, DWORD PTR ?gObj@@3PAUOBJECTSTRUCT@@A ; gObj
  009bd	89 45 f4	 mov	 DWORD PTR _lpTargetObj$[ebp], eax

; 248  : 	if(lpObj->MapNumber == 0 && lpObj->X >= 137 && lpObj->X <= 144 && lpObj->Y >= 124 && lpObj->Y <= 131)

  009c0	8b 45 f8	 mov	 eax, DWORD PTR _lpObj$[ebp]
  009c3	0f b6 88 49 01
	00 00		 movzx	 ecx, BYTE PTR [eax+329]
  009ca	85 c9		 test	 ecx, ecx
  009cc	0f 85 04 01 00
	00		 jne	 $LN3@BattleKill
  009d2	8b 45 f8	 mov	 eax, DWORD PTR _lpObj$[ebp]
  009d5	0f bf 88 44 01
	00 00		 movsx	 ecx, WORD PTR [eax+324]
  009dc	81 f9 89 00 00
	00		 cmp	 ecx, 137		; 00000089H
  009e2	0f 8c ee 00 00
	00		 jl	 $LN3@BattleKill
  009e8	8b 45 f8	 mov	 eax, DWORD PTR _lpObj$[ebp]
  009eb	0f bf 88 44 01
	00 00		 movsx	 ecx, WORD PTR [eax+324]
  009f2	81 f9 90 00 00
	00		 cmp	 ecx, 144		; 00000090H
  009f8	0f 8f d8 00 00
	00		 jg	 $LN3@BattleKill
  009fe	8b 45 f8	 mov	 eax, DWORD PTR _lpObj$[ebp]
  00a01	0f bf 88 46 01
	00 00		 movsx	 ecx, WORD PTR [eax+326]
  00a08	83 f9 7c	 cmp	 ecx, 124		; 0000007cH
  00a0b	0f 8c c5 00 00
	00		 jl	 $LN3@BattleKill
  00a11	8b 45 f8	 mov	 eax, DWORD PTR _lpObj$[ebp]
  00a14	0f bf 88 46 01
	00 00		 movsx	 ecx, WORD PTR [eax+326]
  00a1b	81 f9 83 00 00
	00		 cmp	 ecx, 131		; 00000083H
  00a21	0f 8f af 00 00
	00		 jg	 $LN3@BattleKill

; 249  : 	{
; 250  : 		KillSocer[aIndex]++;

  00a27	8b 45 08	 mov	 eax, DWORD PTR _aIndex$[ebp]
  00a2a	8b 4d fc	 mov	 ecx, DWORD PTR _this$[ebp]
  00a2d	8b 54 81 60	 mov	 edx, DWORD PTR [ecx+eax*4+96]
  00a31	83 c2 01	 add	 edx, 1
  00a34	8b 45 08	 mov	 eax, DWORD PTR _aIndex$[ebp]
  00a37	8b 4d fc	 mov	 ecx, DWORD PTR _this$[ebp]
  00a3a	89 54 81 60	 mov	 DWORD PTR [ecx+eax*4+96], edx

; 251  : 		MsgNormal(aIndex,"[LoraBattle] Killed: %d",KillSocer[aIndex]);

  00a3e	8b 45 08	 mov	 eax, DWORD PTR _aIndex$[ebp]
  00a41	8b 4d fc	 mov	 ecx, DWORD PTR _this$[ebp]
  00a44	8b 54 81 60	 mov	 edx, DWORD PTR [ecx+eax*4+96]
  00a48	52		 push	 edx
  00a49	68 00 00 00 00	 push	 OFFSET ??_C@_0BI@DNKPLJPH@?$FLLoraBattle?$FN?5Killed?3?5?$CFd?$AA@
  00a4e	8b 45 08	 mov	 eax, DWORD PTR _aIndex$[ebp]
  00a51	50		 push	 eax
  00a52	e8 00 00 00 00	 call	 ?MsgNormal@@YAXHPADZZ	; MsgNormal
  00a57	83 c4 0c	 add	 esp, 12			; 0000000cH

; 252  : 		if(Fallen_DROP)

  00a5a	8b 45 fc	 mov	 eax, DWORD PTR _this$[ebp]
  00a5d	83 78 3c 00	 cmp	 DWORD PTR [eax+60], 0
  00a61	74 73		 je	 SHORT $LN3@BattleKill

; 253  : 		{
; 254  : 			ItemSerialCreateSend(aIndex,lpObj->MapNumber,lpObj->X,lpObj->Y,ITEMGET(this->FallenItemDropType,this->FallenItemDropID),
; 255  : 					this->FallenItemDropLevel,0, this->FallenItemDropSkill,this->FallenItemDropLuck,
; 256  : 					this->FallenItemDropOpt,aIndex,this->FallenItemDropExcOpt,this->FallenItemDropAncOpt);	

  00a63	8b 45 fc	 mov	 eax, DWORD PTR _this$[ebp]
  00a66	0f b6 48 5c	 movzx	 ecx, BYTE PTR [eax+92]
  00a6a	51		 push	 ecx
  00a6b	8b 55 fc	 mov	 edx, DWORD PTR _this$[ebp]
  00a6e	0f b6 42 58	 movzx	 eax, BYTE PTR [edx+88]
  00a72	50		 push	 eax
  00a73	8b 4d 08	 mov	 ecx, DWORD PTR _aIndex$[ebp]
  00a76	51		 push	 ecx
  00a77	8b 55 fc	 mov	 edx, DWORD PTR _this$[ebp]
  00a7a	0f b6 42 54	 movzx	 eax, BYTE PTR [edx+84]
  00a7e	50		 push	 eax
  00a7f	8b 4d fc	 mov	 ecx, DWORD PTR _this$[ebp]
  00a82	0f b6 51 50	 movzx	 edx, BYTE PTR [ecx+80]
  00a86	52		 push	 edx
  00a87	8b 45 fc	 mov	 eax, DWORD PTR _this$[ebp]
  00a8a	0f b6 48 4c	 movzx	 ecx, BYTE PTR [eax+76]
  00a8e	51		 push	 ecx
  00a8f	6a 00		 push	 0
  00a91	8b 55 fc	 mov	 edx, DWORD PTR _this$[ebp]
  00a94	0f b6 42 48	 movzx	 eax, BYTE PTR [edx+72]
  00a98	50		 push	 eax
  00a99	8b 4d fc	 mov	 ecx, DWORD PTR _this$[ebp]
  00a9c	8b 51 40	 mov	 edx, DWORD PTR [ecx+64]
  00a9f	c1 e2 09	 shl	 edx, 9
  00aa2	8b 45 fc	 mov	 eax, DWORD PTR _this$[ebp]
  00aa5	03 50 44	 add	 edx, DWORD PTR [eax+68]
  00aa8	52		 push	 edx
  00aa9	8b 4d f8	 mov	 ecx, DWORD PTR _lpObj$[ebp]
  00aac	0f b6 91 46 01
	00 00		 movzx	 edx, BYTE PTR [ecx+326]
  00ab3	52		 push	 edx
  00ab4	8b 45 f8	 mov	 eax, DWORD PTR _lpObj$[ebp]
  00ab7	0f b6 88 44 01
	00 00		 movzx	 ecx, BYTE PTR [eax+324]
  00abe	51		 push	 ecx
  00abf	8b 55 f8	 mov	 edx, DWORD PTR _lpObj$[ebp]
  00ac2	0f b6 82 49 01
	00 00		 movzx	 eax, BYTE PTR [edx+329]
  00ac9	50		 push	 eax
  00aca	8b 4d 08	 mov	 ecx, DWORD PTR _aIndex$[ebp]
  00acd	51		 push	 ecx
  00ace	e8 00 00 00 00	 call	 ?ItemSerialCreateSend@@YAXHEEEHEEEEEHEE@Z ; ItemSerialCreateSend
  00ad3	83 c4 34	 add	 esp, 52			; 00000034H
$LN3@BattleKill:

; 257  : 		}
; 258  : 	}
; 259  : }

  00ad6	5f		 pop	 edi
  00ad7	5e		 pop	 esi
  00ad8	5b		 pop	 ebx
  00ad9	8b e5		 mov	 esp, ebp
  00adb	5d		 pop	 ebp
  00adc	c2 08 00	 ret	 8
?BattleKillSocer@cLoraBattle@@QAEXHH@Z ENDP		; cLoraBattle::BattleKillSocer
_TEXT	ENDS
PUBLIC	??_C@_0BM@CGIKKGMH@?$HO?$FLCredit?$FN?3?5Online?5Bonus?3?5?$CFd?$AA@ ; `string'
PUBLIC	??_C@_0CH@GCJANFIL@?$HO?$FLGoblin?$FN?3?5LoraBattle?5Event?5Rewa@ ; `string'
PUBLIC	??_C@_0CH@GHAIDAHO@?$HO?$FLWCoinP?$FN?3?5LoraBattle?5Event?5Rewa@ ; `string'
PUBLIC	??_C@_0CI@PKAMPBBE@?$HO?$FLWCoinC?$FN?3?5LoraBattle?5Event?5Rewa@ ; `string'
EXTRN	?ExFireCracker@@YAXHEE@Z:PROC			; ExFireCracker
EXTRN	?ExUserDataSend@@YAXH@Z:PROC			; ExUserDataSend
EXTRN	?MessageChat@@YAXHPADZZ:PROC			; MessageChat
EXTRN	?GDSaveUserInfo@GameShop@@QAEXH@Z:PROC		; GameShop::GDSaveUserInfo
EXTRN	?gGameShop@@3VGameShop@@A:BYTE			; gGameShop
EXTRN	__fltused:DWORD
;	COMDAT ??_C@_0BM@CGIKKGMH@?$HO?$FLCredit?$FN?3?5Online?5Bonus?3?5?$CFd?$AA@
CONST	SEGMENT
??_C@_0BM@CGIKKGMH@?$HO?$FLCredit?$FN?3?5Online?5Bonus?3?5?$CFd?$AA@ DB '~'
	DB	'[Credit]: Online Bonus: %d', 00H		; `string'
CONST	ENDS
;	COMDAT ??_C@_0CH@GCJANFIL@?$HO?$FLGoblin?$FN?3?5LoraBattle?5Event?5Rewa@
CONST	SEGMENT
??_C@_0CH@GCJANFIL@?$HO?$FLGoblin?$FN?3?5LoraBattle?5Event?5Rewa@ DB '~[G'
	DB	'oblin]: LoraBattle Event Reward: %d', 00H	; `string'
CONST	ENDS
;	COMDAT ??_C@_0CH@GHAIDAHO@?$HO?$FLWCoinP?$FN?3?5LoraBattle?5Event?5Rewa@
CONST	SEGMENT
??_C@_0CH@GHAIDAHO@?$HO?$FLWCoinP?$FN?3?5LoraBattle?5Event?5Rewa@ DB '~[W'
	DB	'CoinP]: LoraBattle Event Reward: %d', 00H	; `string'
CONST	ENDS
;	COMDAT ??_C@_0CI@PKAMPBBE@?$HO?$FLWCoinC?$FN?3?5LoraBattle?5Event?5Rewa@
CONST	SEGMENT
??_C@_0CI@PKAMPBBE@?$HO?$FLWCoinC?$FN?3?5LoraBattle?5Event?5Rewa@ DB '~[W'
	DB	'CoinC]: LoraBattle Event Reward : %d', 00H	; `string'
; Function compile flags: /Odtp /ZI
CONST	ENDS
_TEXT	SEGMENT
_lpObj$ = -8						; size = 4
_this$ = -4						; size = 4
_aIndex$ = 8						; size = 4
?Reward@cLoraBattle@@QAEXH@Z PROC			; cLoraBattle::Reward
; _this$ = ecx

; 262  : {

  00ae0	55		 push	 ebp
  00ae1	8b ec		 mov	 ebp, esp
  00ae3	83 ec 48	 sub	 esp, 72			; 00000048H
  00ae6	53		 push	 ebx
  00ae7	56		 push	 esi
  00ae8	57		 push	 edi
  00ae9	89 4d fc	 mov	 DWORD PTR _this$[ebp], ecx

; 263  : 	LPOBJ lpObj = &gObj[aIndex];	

  00aec	8b 45 08	 mov	 eax, DWORD PTR _aIndex$[ebp]
  00aef	69 c0 38 2b 00
	00		 imul	 eax, 11064		; 00002b38H
  00af5	03 05 00 00 00
	00		 add	 eax, DWORD PTR ?gObj@@3PAUOBJECTSTRUCT@@A ; gObj
  00afb	89 45 f8	 mov	 DWORD PTR _lpObj$[ebp], eax

; 264  : 	if(this->RewardWCoinC > 0)

  00afe	8b 45 fc	 mov	 eax, DWORD PTR _this$[ebp]
  00b01	83 78 0c 00	 cmp	 DWORD PTR [eax+12], 0
  00b05	7e 3e		 jle	 SHORT $LN5@Reward

; 265  : 	{
; 266  : 			lpObj->GameShop.WCoinC += this->RewardWCoinC;

  00b07	8b 45 fc	 mov	 eax, DWORD PTR _this$[ebp]
  00b0a	db 40 0c	 fild	 DWORD PTR [eax+12]
  00b0d	8b 4d f8	 mov	 ecx, DWORD PTR _lpObj$[ebp]
  00b10	dc 81 00 23 00
	00		 fadd	 QWORD PTR [ecx+8960]
  00b16	8b 55 f8	 mov	 edx, DWORD PTR _lpObj$[ebp]
  00b19	dd 9a 00 23 00
	00		 fstp	 QWORD PTR [edx+8960]

; 267  : 			gGameShop.GDSaveUserInfo(aIndex);

  00b1f	8b 45 08	 mov	 eax, DWORD PTR _aIndex$[ebp]
  00b22	50		 push	 eax
  00b23	b9 00 00 00 00	 mov	 ecx, OFFSET ?gGameShop@@3VGameShop@@A ; gGameShop
  00b28	e8 00 00 00 00	 call	 ?GDSaveUserInfo@GameShop@@QAEXH@Z ; GameShop::GDSaveUserInfo

; 268  : 			MessageChat(aIndex,"~[WCoinC]: LoraBattle Event Reward : %d",this->RewardWCoinC);

  00b2d	8b 45 fc	 mov	 eax, DWORD PTR _this$[ebp]
  00b30	8b 48 0c	 mov	 ecx, DWORD PTR [eax+12]
  00b33	51		 push	 ecx
  00b34	68 00 00 00 00	 push	 OFFSET ??_C@_0CI@PKAMPBBE@?$HO?$FLWCoinC?$FN?3?5LoraBattle?5Event?5Rewa@
  00b39	8b 55 08	 mov	 edx, DWORD PTR _aIndex$[ebp]
  00b3c	52		 push	 edx
  00b3d	e8 00 00 00 00	 call	 ?MessageChat@@YAXHPADZZ	; MessageChat
  00b42	83 c4 0c	 add	 esp, 12			; 0000000cH
$LN5@Reward:

; 269  : 	}
; 270  : 
; 271  : 	if(this->RewardWCoinP > 0)

  00b45	8b 45 fc	 mov	 eax, DWORD PTR _this$[ebp]
  00b48	83 78 10 00	 cmp	 DWORD PTR [eax+16], 0
  00b4c	7e 3e		 jle	 SHORT $LN4@Reward

; 272  : 	{
; 273  : 			lpObj->GameShop.WCoinP += this->RewardWCoinP;

  00b4e	8b 45 fc	 mov	 eax, DWORD PTR _this$[ebp]
  00b51	db 40 10	 fild	 DWORD PTR [eax+16]
  00b54	8b 4d f8	 mov	 ecx, DWORD PTR _lpObj$[ebp]
  00b57	dc 81 f8 22 00
	00		 fadd	 QWORD PTR [ecx+8952]
  00b5d	8b 55 f8	 mov	 edx, DWORD PTR _lpObj$[ebp]
  00b60	dd 9a f8 22 00
	00		 fstp	 QWORD PTR [edx+8952]

; 274  : 			gGameShop.GDSaveUserInfo(aIndex);

  00b66	8b 45 08	 mov	 eax, DWORD PTR _aIndex$[ebp]
  00b69	50		 push	 eax
  00b6a	b9 00 00 00 00	 mov	 ecx, OFFSET ?gGameShop@@3VGameShop@@A ; gGameShop
  00b6f	e8 00 00 00 00	 call	 ?GDSaveUserInfo@GameShop@@QAEXH@Z ; GameShop::GDSaveUserInfo

; 275  : 			MessageChat(aIndex,"~[WCoinP]: LoraBattle Event Reward: %d",this->RewardWCoinP);

  00b74	8b 45 fc	 mov	 eax, DWORD PTR _this$[ebp]
  00b77	8b 48 10	 mov	 ecx, DWORD PTR [eax+16]
  00b7a	51		 push	 ecx
  00b7b	68 00 00 00 00	 push	 OFFSET ??_C@_0CH@GHAIDAHO@?$HO?$FLWCoinP?$FN?3?5LoraBattle?5Event?5Rewa@
  00b80	8b 55 08	 mov	 edx, DWORD PTR _aIndex$[ebp]
  00b83	52		 push	 edx
  00b84	e8 00 00 00 00	 call	 ?MessageChat@@YAXHPADZZ	; MessageChat
  00b89	83 c4 0c	 add	 esp, 12			; 0000000cH
$LN4@Reward:

; 276  : 	}
; 277  : 
; 278  : 	if(this->RewardGoblin > 0)

  00b8c	8b 45 fc	 mov	 eax, DWORD PTR _this$[ebp]
  00b8f	83 78 14 00	 cmp	 DWORD PTR [eax+20], 0
  00b93	7e 3e		 jle	 SHORT $LN3@Reward

; 279  : 	{
; 280  : 			lpObj->GameShop.GoblinPoint += this->RewardGoblin;

  00b95	8b 45 fc	 mov	 eax, DWORD PTR _this$[ebp]
  00b98	db 40 14	 fild	 DWORD PTR [eax+20]
  00b9b	8b 4d f8	 mov	 ecx, DWORD PTR _lpObj$[ebp]
  00b9e	dc 81 08 23 00
	00		 fadd	 QWORD PTR [ecx+8968]
  00ba4	8b 55 f8	 mov	 edx, DWORD PTR _lpObj$[ebp]
  00ba7	dd 9a 08 23 00
	00		 fstp	 QWORD PTR [edx+8968]

; 281  : 			gGameShop.GDSaveUserInfo(aIndex);

  00bad	8b 45 08	 mov	 eax, DWORD PTR _aIndex$[ebp]
  00bb0	50		 push	 eax
  00bb1	b9 00 00 00 00	 mov	 ecx, OFFSET ?gGameShop@@3VGameShop@@A ; gGameShop
  00bb6	e8 00 00 00 00	 call	 ?GDSaveUserInfo@GameShop@@QAEXH@Z ; GameShop::GDSaveUserInfo

; 282  : 			MessageChat(aIndex,"~[Goblin]: LoraBattle Event Reward: %d",this->RewardGoblin);

  00bbb	8b 45 fc	 mov	 eax, DWORD PTR _this$[ebp]
  00bbe	8b 48 14	 mov	 ecx, DWORD PTR [eax+20]
  00bc1	51		 push	 ecx
  00bc2	68 00 00 00 00	 push	 OFFSET ??_C@_0CH@GCJANFIL@?$HO?$FLGoblin?$FN?3?5LoraBattle?5Event?5Rewa@
  00bc7	8b 55 08	 mov	 edx, DWORD PTR _aIndex$[ebp]
  00bca	52		 push	 edx
  00bcb	e8 00 00 00 00	 call	 ?MessageChat@@YAXHPADZZ	; MessageChat
  00bd0	83 c4 0c	 add	 esp, 12			; 0000000cH
$LN3@Reward:

; 283  : 	}
; 284  : 
; 285  : 	if(this->RewardExCred > 0)

  00bd3	8b 45 fc	 mov	 eax, DWORD PTR _this$[ebp]
  00bd6	83 78 18 00	 cmp	 DWORD PTR [eax+24], 0
  00bda	7e 3c		 jle	 SHORT $LN2@Reward

; 286  : 	{
; 287  : 			lpObj->ExCred += this->RewardExCred;

  00bdc	8b 45 fc	 mov	 eax, DWORD PTR _this$[ebp]
  00bdf	db 40 18	 fild	 DWORD PTR [eax+24]
  00be2	8b 4d f8	 mov	 ecx, DWORD PTR _lpObj$[ebp]
  00be5	d8 81 a8 22 00
	00		 fadd	 DWORD PTR [ecx+8872]
  00beb	8b 55 f8	 mov	 edx, DWORD PTR _lpObj$[ebp]
  00bee	d9 9a a8 22 00
	00		 fstp	 DWORD PTR [edx+8872]

; 288  : #ifndef FIX_DS_CRASH
; 289  : 			GJSetCharacterInfo(lpObj, lpObj->m_Index, 0);
; 290  : #endif
; 291  : 			ExUserDataSend(aIndex);

  00bf4	8b 45 08	 mov	 eax, DWORD PTR _aIndex$[ebp]
  00bf7	50		 push	 eax
  00bf8	e8 00 00 00 00	 call	 ?ExUserDataSend@@YAXH@Z	; ExUserDataSend
  00bfd	83 c4 04	 add	 esp, 4

; 292  : 			MessageChat(aIndex,"~[Credit]: Online Bonus: %d",this->RewardExCred);

  00c00	8b 45 fc	 mov	 eax, DWORD PTR _this$[ebp]
  00c03	8b 48 18	 mov	 ecx, DWORD PTR [eax+24]
  00c06	51		 push	 ecx
  00c07	68 00 00 00 00	 push	 OFFSET ??_C@_0BM@CGIKKGMH@?$HO?$FLCredit?$FN?3?5Online?5Bonus?3?5?$CFd?$AA@
  00c0c	8b 55 08	 mov	 edx, DWORD PTR _aIndex$[ebp]
  00c0f	52		 push	 edx
  00c10	e8 00 00 00 00	 call	 ?MessageChat@@YAXHPADZZ	; MessageChat
  00c15	83 c4 0c	 add	 esp, 12			; 0000000cH
$LN2@Reward:

; 293  : 	}
; 294  : 
; 295  : 	if(RewardItem)

  00c18	8b 45 fc	 mov	 eax, DWORD PTR _this$[ebp]
  00c1b	83 78 08 00	 cmp	 DWORD PTR [eax+8], 0
  00c1f	74 73		 je	 SHORT $LN1@Reward

; 296  : 	{
; 297  : 		ItemSerialCreateSend(aIndex,lpObj->MapNumber,lpObj->X,lpObj->Y,ITEMGET(this->RewardItemDropType,this->RewardItemDropID),
; 298  : 					this->RewardItemDropLevel,0, this->RewardItemDropSkill,this->RewardItemDropLuck,
; 299  : 					this->RewardItemDropOpt,aIndex,this->RewardItemDropExcOpt,this->RewardItemDropAncOpt);

  00c21	8b 45 fc	 mov	 eax, DWORD PTR _this$[ebp]
  00c24	0f b6 48 38	 movzx	 ecx, BYTE PTR [eax+56]
  00c28	51		 push	 ecx
  00c29	8b 55 fc	 mov	 edx, DWORD PTR _this$[ebp]
  00c2c	0f b6 42 34	 movzx	 eax, BYTE PTR [edx+52]
  00c30	50		 push	 eax
  00c31	8b 4d 08	 mov	 ecx, DWORD PTR _aIndex$[ebp]
  00c34	51		 push	 ecx
  00c35	8b 55 fc	 mov	 edx, DWORD PTR _this$[ebp]
  00c38	0f b6 42 30	 movzx	 eax, BYTE PTR [edx+48]
  00c3c	50		 push	 eax
  00c3d	8b 4d fc	 mov	 ecx, DWORD PTR _this$[ebp]
  00c40	0f b6 51 2c	 movzx	 edx, BYTE PTR [ecx+44]
  00c44	52		 push	 edx
  00c45	8b 45 fc	 mov	 eax, DWORD PTR _this$[ebp]
  00c48	0f b6 48 28	 movzx	 ecx, BYTE PTR [eax+40]
  00c4c	51		 push	 ecx
  00c4d	6a 00		 push	 0
  00c4f	8b 55 fc	 mov	 edx, DWORD PTR _this$[ebp]
  00c52	0f b6 42 24	 movzx	 eax, BYTE PTR [edx+36]
  00c56	50		 push	 eax
  00c57	8b 4d fc	 mov	 ecx, DWORD PTR _this$[ebp]
  00c5a	8b 51 1c	 mov	 edx, DWORD PTR [ecx+28]
  00c5d	c1 e2 09	 shl	 edx, 9
  00c60	8b 45 fc	 mov	 eax, DWORD PTR _this$[ebp]
  00c63	03 50 20	 add	 edx, DWORD PTR [eax+32]
  00c66	52		 push	 edx
  00c67	8b 4d f8	 mov	 ecx, DWORD PTR _lpObj$[ebp]
  00c6a	0f b6 91 46 01
	00 00		 movzx	 edx, BYTE PTR [ecx+326]
  00c71	52		 push	 edx
  00c72	8b 45 f8	 mov	 eax, DWORD PTR _lpObj$[ebp]
  00c75	0f b6 88 44 01
	00 00		 movzx	 ecx, BYTE PTR [eax+324]
  00c7c	51		 push	 ecx
  00c7d	8b 55 f8	 mov	 edx, DWORD PTR _lpObj$[ebp]
  00c80	0f b6 82 49 01
	00 00		 movzx	 eax, BYTE PTR [edx+329]
  00c87	50		 push	 eax
  00c88	8b 4d 08	 mov	 ecx, DWORD PTR _aIndex$[ebp]
  00c8b	51		 push	 ecx
  00c8c	e8 00 00 00 00	 call	 ?ItemSerialCreateSend@@YAXHEEEHEEEEEHEE@Z ; ItemSerialCreateSend
  00c91	83 c4 34	 add	 esp, 52			; 00000034H
$LN1@Reward:

; 300  : 	}
; 301  : 
; 302  : 	
; 303  : 	ExFireCracker(aIndex,lpObj->X,lpObj->Y);

  00c94	8b 45 f8	 mov	 eax, DWORD PTR _lpObj$[ebp]
  00c97	0f b6 88 46 01
	00 00		 movzx	 ecx, BYTE PTR [eax+326]
  00c9e	51		 push	 ecx
  00c9f	8b 55 f8	 mov	 edx, DWORD PTR _lpObj$[ebp]
  00ca2	0f b6 82 44 01
	00 00		 movzx	 eax, BYTE PTR [edx+324]
  00ca9	50		 push	 eax
  00caa	8b 4d 08	 mov	 ecx, DWORD PTR _aIndex$[ebp]
  00cad	51		 push	 ecx
  00cae	e8 00 00 00 00	 call	 ?ExFireCracker@@YAXHEE@Z ; ExFireCracker
  00cb3	83 c4 0c	 add	 esp, 12			; 0000000cH

; 304  : }

  00cb6	5f		 pop	 edi
  00cb7	5e		 pop	 esi
  00cb8	5b		 pop	 ebx
  00cb9	8b e5		 mov	 esp, ebp
  00cbb	5d		 pop	 ebp
  00cbc	c2 04 00	 ret	 4
?Reward@cLoraBattle@@QAEXH@Z ENDP			; cLoraBattle::Reward
_TEXT	ENDS
PUBLIC	?PkCheck@cLoraBattle@@QAE_NPAUOBJECTSTRUCT@@0@Z	; cLoraBattle::PkCheck
; Function compile flags: /Odtp /ZI
_TEXT	SEGMENT
_this$ = -4						; size = 4
_lpObj$ = 8						; size = 4
_lpTarget$ = 12						; size = 4
?PkCheck@cLoraBattle@@QAE_NPAUOBJECTSTRUCT@@0@Z PROC	; cLoraBattle::PkCheck
; _this$ = ecx

; 306  : {

  00cc0	55		 push	 ebp
  00cc1	8b ec		 mov	 ebp, esp
  00cc3	83 ec 44	 sub	 esp, 68			; 00000044H
  00cc6	53		 push	 ebx
  00cc7	56		 push	 esi
  00cc8	57		 push	 edi
  00cc9	89 4d fc	 mov	 DWORD PTR _this$[ebp], ecx

; 307  : 	if(!this->Enable)return true;

  00ccc	8b 45 fc	 mov	 eax, DWORD PTR _this$[ebp]
  00ccf	83 38 00	 cmp	 DWORD PTR [eax], 0
  00cd2	75 04		 jne	 SHORT $LN3@PkCheck
  00cd4	b0 01		 mov	 al, 1
  00cd6	eb 3d		 jmp	 SHORT $LN4@PkCheck
$LN3@PkCheck:

; 308  : 	if(!this->Start)return true;

  00cd8	8b 45 fc	 mov	 eax, DWORD PTR _this$[ebp]
  00cdb	83 78 04 00	 cmp	 DWORD PTR [eax+4], 0
  00cdf	75 04		 jne	 SHORT $LN2@PkCheck
  00ce1	b0 01		 mov	 al, 1
  00ce3	eb 30		 jmp	 SHORT $LN4@PkCheck
$LN2@PkCheck:

; 309  : 	if(this->BattleRing[lpObj->m_Index] == true && this->BattleRing[lpTarget->m_Index] == true) return false;

  00ce5	8b 45 08	 mov	 eax, DWORD PTR _lpObj$[ebp]
  00ce8	8b 08		 mov	 ecx, DWORD PTR [eax]
  00cea	8b 55 fc	 mov	 edx, DWORD PTR _this$[ebp]
  00ced	0f b6 84 0a c0
	ea 00 00	 movzx	 eax, BYTE PTR [edx+ecx+60096]
  00cf5	83 f8 01	 cmp	 eax, 1
  00cf8	75 19		 jne	 SHORT $LN1@PkCheck
  00cfa	8b 45 0c	 mov	 eax, DWORD PTR _lpTarget$[ebp]
  00cfd	8b 08		 mov	 ecx, DWORD PTR [eax]
  00cff	8b 55 fc	 mov	 edx, DWORD PTR _this$[ebp]
  00d02	0f b6 84 0a c0
	ea 00 00	 movzx	 eax, BYTE PTR [edx+ecx+60096]
  00d0a	83 f8 01	 cmp	 eax, 1
  00d0d	75 04		 jne	 SHORT $LN1@PkCheck
  00d0f	32 c0		 xor	 al, al
  00d11	eb 02		 jmp	 SHORT $LN4@PkCheck
$LN1@PkCheck:

; 310  : 	return true;

  00d13	b0 01		 mov	 al, 1
$LN4@PkCheck:

; 311  : }

  00d15	5f		 pop	 edi
  00d16	5e		 pop	 esi
  00d17	5b		 pop	 ebx
  00d18	8b e5		 mov	 esp, ebp
  00d1a	5d		 pop	 ebp
  00d1b	c2 08 00	 ret	 8
?PkCheck@cLoraBattle@@QAE_NPAUOBJECTSTRUCT@@0@Z ENDP	; cLoraBattle::PkCheck
_TEXT	ENDS
PUBLIC	?ReturnStatus@cLoraBattle@@QAEHHH@Z		; cLoraBattle::ReturnStatus
; Function compile flags: /Odtp /ZI
_TEXT	SEGMENT
_lpTargetObj$ = -12					; size = 4
_lpObj$ = -8						; size = 4
_this$ = -4						; size = 4
_aIndex$ = 8						; size = 4
_TargetIndex$ = 12					; size = 4
?ReturnStatus@cLoraBattle@@QAEHHH@Z PROC		; cLoraBattle::ReturnStatus
; _this$ = ecx

; 313  : {

  00d20	55		 push	 ebp
  00d21	8b ec		 mov	 ebp, esp
  00d23	83 ec 4c	 sub	 esp, 76			; 0000004cH
  00d26	53		 push	 ebx
  00d27	56		 push	 esi
  00d28	57		 push	 edi
  00d29	89 4d fc	 mov	 DWORD PTR _this$[ebp], ecx

; 314  : 	LPOBJ lpObj = &gObj[aIndex];

  00d2c	8b 45 08	 mov	 eax, DWORD PTR _aIndex$[ebp]
  00d2f	69 c0 38 2b 00
	00		 imul	 eax, 11064		; 00002b38H
  00d35	03 05 00 00 00
	00		 add	 eax, DWORD PTR ?gObj@@3PAUOBJECTSTRUCT@@A ; gObj
  00d3b	89 45 f8	 mov	 DWORD PTR _lpObj$[ebp], eax

; 315  : 	LPOBJ lpTargetObj = &gObj[TargetIndex];

  00d3e	8b 45 0c	 mov	 eax, DWORD PTR _TargetIndex$[ebp]
  00d41	69 c0 38 2b 00
	00		 imul	 eax, 11064		; 00002b38H
  00d47	03 05 00 00 00
	00		 add	 eax, DWORD PTR ?gObj@@3PAUOBJECTSTRUCT@@A ; gObj
  00d4d	89 45 f4	 mov	 DWORD PTR _lpTargetObj$[ebp], eax

; 316  : 	if(lpTargetObj->MapNumber == 0 && lpTargetObj->X >= 137 && lpTargetObj->X <= 144 && lpTargetObj->Y >= 124 && lpTargetObj->Y <= 131)

  00d50	8b 45 f4	 mov	 eax, DWORD PTR _lpTargetObj$[ebp]
  00d53	0f b6 88 49 01
	00 00		 movzx	 ecx, BYTE PTR [eax+329]
  00d5a	85 c9		 test	 ecx, ecx
  00d5c	75 4e		 jne	 SHORT $LN4@ReturnStat
  00d5e	8b 45 f4	 mov	 eax, DWORD PTR _lpTargetObj$[ebp]
  00d61	0f bf 88 44 01
	00 00		 movsx	 ecx, WORD PTR [eax+324]
  00d68	81 f9 89 00 00
	00		 cmp	 ecx, 137		; 00000089H
  00d6e	7c 3c		 jl	 SHORT $LN4@ReturnStat
  00d70	8b 45 f4	 mov	 eax, DWORD PTR _lpTargetObj$[ebp]
  00d73	0f bf 88 44 01
	00 00		 movsx	 ecx, WORD PTR [eax+324]
  00d7a	81 f9 90 00 00
	00		 cmp	 ecx, 144		; 00000090H
  00d80	7f 2a		 jg	 SHORT $LN4@ReturnStat
  00d82	8b 45 f4	 mov	 eax, DWORD PTR _lpTargetObj$[ebp]
  00d85	0f bf 88 46 01
	00 00		 movsx	 ecx, WORD PTR [eax+326]
  00d8c	83 f9 7c	 cmp	 ecx, 124		; 0000007cH
  00d8f	7c 1b		 jl	 SHORT $LN4@ReturnStat
  00d91	8b 45 f4	 mov	 eax, DWORD PTR _lpTargetObj$[ebp]
  00d94	0f bf 88 46 01
	00 00		 movsx	 ecx, WORD PTR [eax+326]
  00d9b	81 f9 83 00 00
	00		 cmp	 ecx, 131		; 00000083H
  00da1	7f 09		 jg	 SHORT $LN4@ReturnStat

; 317  : 	{
; 318  : 		return 6;

  00da3	b8 06 00 00 00	 mov	 eax, 6
  00da8	eb 68		 jmp	 SHORT $LN5@ReturnStat
  00daa	eb 66		 jmp	 SHORT $LN5@ReturnStat
$LN4@ReturnStat:

; 319  : 	}
; 320  : 	else if(lpObj->MapNumber == 0 && lpObj->X >= 137 && lpObj->X <= 144 && lpObj->Y >= 124 && lpObj->Y <= 131)

  00dac	8b 45 f8	 mov	 eax, DWORD PTR _lpObj$[ebp]
  00daf	0f b6 88 49 01
	00 00		 movzx	 ecx, BYTE PTR [eax+329]
  00db6	85 c9		 test	 ecx, ecx
  00db8	75 4e		 jne	 SHORT $LN2@ReturnStat
  00dba	8b 45 f8	 mov	 eax, DWORD PTR _lpObj$[ebp]
  00dbd	0f bf 88 44 01
	00 00		 movsx	 ecx, WORD PTR [eax+324]
  00dc4	81 f9 89 00 00
	00		 cmp	 ecx, 137		; 00000089H
  00dca	7c 3c		 jl	 SHORT $LN2@ReturnStat
  00dcc	8b 45 f8	 mov	 eax, DWORD PTR _lpObj$[ebp]
  00dcf	0f bf 88 44 01
	00 00		 movsx	 ecx, WORD PTR [eax+324]
  00dd6	81 f9 90 00 00
	00		 cmp	 ecx, 144		; 00000090H
  00ddc	7f 2a		 jg	 SHORT $LN2@ReturnStat
  00dde	8b 45 f8	 mov	 eax, DWORD PTR _lpObj$[ebp]
  00de1	0f bf 88 46 01
	00 00		 movsx	 ecx, WORD PTR [eax+326]
  00de8	83 f9 7c	 cmp	 ecx, 124		; 0000007cH
  00deb	7c 1b		 jl	 SHORT $LN2@ReturnStat
  00ded	8b 45 f8	 mov	 eax, DWORD PTR _lpObj$[ebp]
  00df0	0f bf 88 46 01
	00 00		 movsx	 ecx, WORD PTR [eax+326]
  00df7	81 f9 83 00 00
	00		 cmp	 ecx, 131		; 00000083H
  00dfd	7f 09		 jg	 SHORT $LN2@ReturnStat

; 321  : 	{
; 322  : 		return 6;

  00dff	b8 06 00 00 00	 mov	 eax, 6
  00e04	eb 0c		 jmp	 SHORT $LN5@ReturnStat

; 323  : 	}
; 324  : 	/*
; 325  : 	if(lpTargetObj->MapNumber == 0 && lpTargetObj->X >= 118 && lpTargetObj->X <= 153 && lpTargetObj->Y >= 110 && lpTargetObj->Y <= 150)
; 326  : 	{
; 327  : 		return 6;
; 328  : 	}
; 329  : 	else if(lpObj->MapNumber == 0 && lpObj->X >= 118 && lpObj->X <= 153 && lpObj->Y >= 110 && lpObj->Y <= 150)
; 330  : 	{
; 331  : 		return 6;
; 332  : 	}
; 333  : 	*/
; 334  : 	else

  00e06	eb 0a		 jmp	 SHORT $LN5@ReturnStat
$LN2@ReturnStat:

; 335  : 	{
; 336  : 		return (int)lpTargetObj->m_PK_Level;

  00e08	8b 45 f4	 mov	 eax, DWORD PTR _lpTargetObj$[ebp]
  00e0b	0f be 80 3d 01
	00 00		 movsx	 eax, BYTE PTR [eax+317]
$LN5@ReturnStat:

; 337  : 	}
; 338  : 
; 339  : }

  00e12	5f		 pop	 edi
  00e13	5e		 pop	 esi
  00e14	5b		 pop	 ebx
  00e15	8b e5		 mov	 esp, ebp
  00e17	5d		 pop	 ebp
  00e18	c2 08 00	 ret	 8
?ReturnStatus@cLoraBattle@@QAEHHH@Z ENDP		; cLoraBattle::ReturnStatus
_TEXT	ENDS
PUBLIC	?CheckStartEvent@cLoraBattle@@QAE_NXZ		; cLoraBattle::CheckStartEvent
; Function compile flags: /Odtp /ZI
_TEXT	SEGMENT
_this$ = -4						; size = 4
?CheckStartEvent@cLoraBattle@@QAE_NXZ PROC		; cLoraBattle::CheckStartEvent
; _this$ = ecx

; 341  : {

  00e20	55		 push	 ebp
  00e21	8b ec		 mov	 ebp, esp
  00e23	83 ec 44	 sub	 esp, 68			; 00000044H
  00e26	53		 push	 ebx
  00e27	56		 push	 esi
  00e28	57		 push	 edi
  00e29	89 4d fc	 mov	 DWORD PTR _this$[ebp], ecx

; 342  : 	if(!this->Enable || !this->Start)return false;

  00e2c	8b 45 fc	 mov	 eax, DWORD PTR _this$[ebp]
  00e2f	83 38 00	 cmp	 DWORD PTR [eax], 0
  00e32	74 09		 je	 SHORT $LN1@CheckStart
  00e34	8b 45 fc	 mov	 eax, DWORD PTR _this$[ebp]
  00e37	83 78 04 00	 cmp	 DWORD PTR [eax+4], 0
  00e3b	75 04		 jne	 SHORT $LN2@CheckStart
$LN1@CheckStart:
  00e3d	32 c0		 xor	 al, al
  00e3f	eb 02		 jmp	 SHORT $LN3@CheckStart
$LN2@CheckStart:

; 343  : 	return true;

  00e41	b0 01		 mov	 al, 1
$LN3@CheckStart:

; 344  : }

  00e43	5f		 pop	 edi
  00e44	5e		 pop	 esi
  00e45	5b		 pop	 ebx
  00e46	8b e5		 mov	 esp, ebp
  00e48	5d		 pop	 ebp
  00e49	c3		 ret	 0
?CheckStartEvent@cLoraBattle@@QAE_NXZ ENDP		; cLoraBattle::CheckStartEvent
_TEXT	ENDS
EXTRN	_atexit:PROC
; Function compile flags: /Odtp /ZI
;	COMDAT ??__ELoraBattle@@YAXXZ
text$yc	SEGMENT
??__ELoraBattle@@YAXXZ PROC				; `dynamic initializer for 'LoraBattle'', COMDAT

; 12   : cLoraBattle LoraBattle;

  00000	55		 push	 ebp
  00001	8b ec		 mov	 ebp, esp
  00003	83 ec 40	 sub	 esp, 64			; 00000040H
  00006	53		 push	 ebx
  00007	56		 push	 esi
  00008	57		 push	 edi
  00009	b9 00 00 00 00	 mov	 ecx, OFFSET ?LoraBattle@@3VcLoraBattle@@A ; LoraBattle
  0000e	e8 00 00 00 00	 call	 ??0cLoraBattle@@QAE@XZ	; cLoraBattle::cLoraBattle
  00013	68 00 00 00 00	 push	 OFFSET ??__FLoraBattle@@YAXXZ ; `dynamic atexit destructor for 'LoraBattle''
  00018	e8 00 00 00 00	 call	 _atexit
  0001d	83 c4 04	 add	 esp, 4
  00020	5f		 pop	 edi
  00021	5e		 pop	 esi
  00022	5b		 pop	 ebx
  00023	8b e5		 mov	 esp, ebp
  00025	5d		 pop	 ebp
  00026	c3		 ret	 0
??__ELoraBattle@@YAXXZ ENDP				; `dynamic initializer for 'LoraBattle''
; Function compile flags: /Odtp /ZI
text$yc	ENDS
;	COMDAT ??__FLoraBattle@@YAXXZ
text$yd	SEGMENT
??__FLoraBattle@@YAXXZ PROC				; `dynamic atexit destructor for 'LoraBattle'', COMDAT
  00000	55		 push	 ebp
  00001	8b ec		 mov	 ebp, esp
  00003	83 ec 40	 sub	 esp, 64			; 00000040H
  00006	53		 push	 ebx
  00007	56		 push	 esi
  00008	57		 push	 edi
  00009	b9 00 00 00 00	 mov	 ecx, OFFSET ?LoraBattle@@3VcLoraBattle@@A ; LoraBattle
  0000e	e8 00 00 00 00	 call	 ??1cLoraBattle@@QAE@XZ	; cLoraBattle::~cLoraBattle
  00013	5f		 pop	 edi
  00014	5e		 pop	 esi
  00015	5b		 pop	 ebx
  00016	8b e5		 mov	 esp, ebp
  00018	5d		 pop	 ebp
  00019	c3		 ret	 0
??__FLoraBattle@@YAXXZ ENDP				; `dynamic atexit destructor for 'LoraBattle''
text$yd	ENDS
PUBLIC	?LoraBattle@@3VcLoraBattle@@A			; LoraBattle
_BSS	SEGMENT
?LoraBattle@@3VcLoraBattle@@A DB 021cc8H DUP (?)	; LoraBattle
_BSS	ENDS
CRT$XCU	SEGMENT
_LoraBattle$initializer$ DD FLAT:??__ELoraBattle@@YAXXZ
CRT$XCU	ENDS
END
