; Listing generated by Microsoft (R) Optimizing Compiler Version 16.00.40219.01 

	TITLE	D:\Projects\ExTeam6.3\Source\GameServer\GameServer\LuckyItem.cpp
	.686P
	.XMM
	include listing.inc
	.model	flat

INCLUDELIB LIBCMT
INCLUDELIB OLDNAMES

_DATA	SEGMENT
_g_iNpcUpDfLevel_CGATE DD 01H
	DD	02H
	DD	02dc6c0H
	DD	02H
	DD	03H
	DD	02dc6c0H
	DD	03H
	DD	04H
	DD	02dc6c0H
_g_iNpcUpDfLevel_CSTATUE DD 01H
	DD	03H
	DD	02dc6c0H
	DD	02H
	DD	05H
	DD	02dc6c0H
	DD	03H
	DD	07H
	DD	02dc6c0H
_g_iNpcUpMaxHP_CGATE DD 02625a0H
	DD	02H
	DD	0f4240H
	DD	03567e0H
	DD	03H
	DD	0f4240H
	DD	04f5880H
	DD	04H
	DD	0f4240H
_g_iNpcUpMaxHP_CSTATUE DD 02191c0H
	DD	03H
	DD	0f4240H
	DD	033e140H
	DD	05H
	DD	0f4240H
	DD	04c4b40H
	DD	07H
	DD	0f4240H
_g_iNpcUpRgLevel_CSTATUE DD 01H
	DD	03H
	DD	04c4b40H
	DD	02H
	DD	05H
	DD	04c4b40H
	DD	03H
	DD	07H
	DD	04c4b40H
_g_iCsUserReSpawnArea DD 023H
	DD	011H
	DD	090H
	DD	030H
	DD	04aH
	DD	090H
	DD	073H
	DD	09aH
	DD	023H
	DD	011H
	DD	090H
	DD	030H
_g_iNpcDefense_CGATE DD 064H
	DD	0b4H
	DD	012cH
	DD	0208H
_g_iNpcDefense_CSTATUE DD 050H
	DD	0b4H
	DD	0154H
	DD	0226H
_g_iCastleWallStepAxisY DD 071H
	DD	0a0H
	DD	0cbH
_DATA	ENDS
PUBLIC	??_H@YGXPAXIHP6EPAX0@Z@Z			; `vector constructor iterator'
; Function compile flags: /Odtp /ZI
;	COMDAT ??_H@YGXPAXIHP6EPAX0@Z@Z
_TEXT	SEGMENT
___t$ = 8						; size = 4
___s$ = 12						; size = 4
___n$ = 16						; size = 4
___f$ = 20						; size = 4
??_H@YGXPAXIHP6EPAX0@Z@Z PROC				; `vector constructor iterator', COMDAT
  00000	55		 push	 ebp
  00001	8b ec		 mov	 ebp, esp
  00003	83 ec 40	 sub	 esp, 64			; 00000040H
  00006	53		 push	 ebx
  00007	56		 push	 esi
  00008	57		 push	 edi
$LN2@vector:
  00009	8b 45 10	 mov	 eax, DWORD PTR ___n$[ebp]
  0000c	83 e8 01	 sub	 eax, 1
  0000f	89 45 10	 mov	 DWORD PTR ___n$[ebp], eax
  00012	78 11		 js	 SHORT $LN3@vector
  00014	8b 4d 08	 mov	 ecx, DWORD PTR ___t$[ebp]
  00017	ff 55 14	 call	 DWORD PTR ___f$[ebp]
  0001a	8b 45 08	 mov	 eax, DWORD PTR ___t$[ebp]
  0001d	03 45 0c	 add	 eax, DWORD PTR ___s$[ebp]
  00020	89 45 08	 mov	 DWORD PTR ___t$[ebp], eax
  00023	eb e4		 jmp	 SHORT $LN2@vector
$LN3@vector:
  00025	5f		 pop	 edi
  00026	5e		 pop	 esi
  00027	5b		 pop	 ebx
  00028	8b e5		 mov	 esp, ebp
  0002a	5d		 pop	 ebp
  0002b	c2 10 00	 ret	 16			; 00000010H
??_H@YGXPAXIHP6EPAX0@Z@Z ENDP				; `vector constructor iterator'
_TEXT	ENDS
PUBLIC	??0?$map@HU_LUCKY_ITEM_INFO@@U?$less@H@std@@V?$allocator@U?$pair@$$CBHU_LUCKY_ITEM_INFO@@@std@@@3@@std@@QAE@XZ ; std::map<int,_LUCKY_ITEM_INFO,std::less<int>,std::allocator<std::pair<int const ,_LUCKY_ITEM_INFO> > >::map<int,_LUCKY_ITEM_INFO,std::less<int>,std::allocator<std::pair<int const ,_LUCKY_ITEM_INFO> > >
PUBLIC	??0LuckyItemManager@@QAE@XZ			; LuckyItemManager::LuckyItemManager
; Function compile flags: /Odtp /ZI
; File d:\projects\exteam6.3\source\gameserver\gameserver\luckyitem.cpp
_TEXT	SEGMENT
_this$ = -4						; size = 4
??0LuckyItemManager@@QAE@XZ PROC			; LuckyItemManager::LuckyItemManager
; _this$ = ecx

; 25   : {

  00000	55		 push	 ebp
  00001	8b ec		 mov	 ebp, esp
  00003	83 ec 44	 sub	 esp, 68			; 00000044H
  00006	53		 push	 ebx
  00007	56		 push	 esi
  00008	57		 push	 edi
  00009	89 4d fc	 mov	 DWORD PTR _this$[ebp], ecx
  0000c	8b 4d fc	 mov	 ecx, DWORD PTR _this$[ebp]
  0000f	83 c1 04	 add	 ecx, 4
  00012	e8 00 00 00 00	 call	 ??0?$map@HU_LUCKY_ITEM_INFO@@U?$less@H@std@@V?$allocator@U?$pair@$$CBHU_LUCKY_ITEM_INFO@@@std@@@3@@std@@QAE@XZ ; std::map<int,_LUCKY_ITEM_INFO,std::less<int>,std::allocator<std::pair<int const ,_LUCKY_ITEM_INFO> > >::map<int,_LUCKY_ITEM_INFO,std::less<int>,std::allocator<std::pair<int const ,_LUCKY_ITEM_INFO> > >

; 26   : 	this->TicketCount = 0;

  00017	8b 45 fc	 mov	 eax, DWORD PTR _this$[ebp]
  0001a	c7 00 00 00 00
	00		 mov	 DWORD PTR [eax], 0

; 27   : }

  00020	8b 45 fc	 mov	 eax, DWORD PTR _this$[ebp]
  00023	5f		 pop	 edi
  00024	5e		 pop	 esi
  00025	5b		 pop	 ebx
  00026	8b e5		 mov	 esp, ebp
  00028	5d		 pop	 ebp
  00029	c3		 ret	 0
??0LuckyItemManager@@QAE@XZ ENDP			; LuckyItemManager::LuckyItemManager
_TEXT	ENDS
PUBLIC	??1?$map@HU_LUCKY_ITEM_INFO@@U?$less@H@std@@V?$allocator@U?$pair@$$CBHU_LUCKY_ITEM_INFO@@@std@@@3@@std@@QAE@XZ ; std::map<int,_LUCKY_ITEM_INFO,std::less<int>,std::allocator<std::pair<int const ,_LUCKY_ITEM_INFO> > >::~map<int,_LUCKY_ITEM_INFO,std::less<int>,std::allocator<std::pair<int const ,_LUCKY_ITEM_INFO> > >
PUBLIC	??1LuckyItemManager@@QAE@XZ			; LuckyItemManager::~LuckyItemManager
; Function compile flags: /Odtp /ZI
_TEXT	SEGMENT
_this$ = -4						; size = 4
??1LuckyItemManager@@QAE@XZ PROC			; LuckyItemManager::~LuckyItemManager
; _this$ = ecx

; 32   : {

  00030	55		 push	 ebp
  00031	8b ec		 mov	 ebp, esp
  00033	83 ec 44	 sub	 esp, 68			; 00000044H
  00036	53		 push	 ebx
  00037	56		 push	 esi
  00038	57		 push	 edi
  00039	89 4d fc	 mov	 DWORD PTR _this$[ebp], ecx

; 33   : 	// ----
; 34   : }

  0003c	8b 4d fc	 mov	 ecx, DWORD PTR _this$[ebp]
  0003f	83 c1 04	 add	 ecx, 4
  00042	e8 00 00 00 00	 call	 ??1?$map@HU_LUCKY_ITEM_INFO@@U?$less@H@std@@V?$allocator@U?$pair@$$CBHU_LUCKY_ITEM_INFO@@@std@@@3@@std@@QAE@XZ
  00047	5f		 pop	 edi
  00048	5e		 pop	 esi
  00049	5b		 pop	 ebx
  0004a	8b e5		 mov	 esp, ebp
  0004c	5d		 pop	 ebp
  0004d	c3		 ret	 0
??1LuckyItemManager@@QAE@XZ ENDP			; LuckyItemManager::~LuckyItemManager
_TEXT	ENDS
PUBLIC	??1?$_Tree@V?$_Tmap_traits@HU_LUCKY_ITEM_INFO@@U?$less@H@std@@V?$allocator@U?$pair@$$CBHU_LUCKY_ITEM_INFO@@@std@@@3@$0A@@std@@@std@@QAE@XZ ; std::_Tree<std::_Tmap_traits<int,_LUCKY_ITEM_INFO,std::less<int>,std::allocator<std::pair<int const ,_LUCKY_ITEM_INFO> >,0> >::~_Tree<std::_Tmap_traits<int,_LUCKY_ITEM_INFO,std::less<int>,std::allocator<std::pair<int const ,_LUCKY_ITEM_INFO> >,0> >
; Function compile flags: /Odtp /ZI
;	COMDAT ??1?$map@HU_LUCKY_ITEM_INFO@@U?$less@H@std@@V?$allocator@U?$pair@$$CBHU_LUCKY_ITEM_INFO@@@std@@@3@@std@@QAE@XZ
_TEXT	SEGMENT
_this$ = -4						; size = 4
??1?$map@HU_LUCKY_ITEM_INFO@@U?$less@H@std@@V?$allocator@U?$pair@$$CBHU_LUCKY_ITEM_INFO@@@std@@@3@@std@@QAE@XZ PROC ; std::map<int,_LUCKY_ITEM_INFO,std::less<int>,std::allocator<std::pair<int const ,_LUCKY_ITEM_INFO> > >::~map<int,_LUCKY_ITEM_INFO,std::less<int>,std::allocator<std::pair<int const ,_LUCKY_ITEM_INFO> > >, COMDAT
; _this$ = ecx
  00000	55		 push	 ebp
  00001	8b ec		 mov	 ebp, esp
  00003	83 ec 44	 sub	 esp, 68			; 00000044H
  00006	53		 push	 ebx
  00007	56		 push	 esi
  00008	57		 push	 edi
  00009	89 4d fc	 mov	 DWORD PTR _this$[ebp], ecx
  0000c	8b 4d fc	 mov	 ecx, DWORD PTR _this$[ebp]
  0000f	e8 00 00 00 00	 call	 ??1?$_Tree@V?$_Tmap_traits@HU_LUCKY_ITEM_INFO@@U?$less@H@std@@V?$allocator@U?$pair@$$CBHU_LUCKY_ITEM_INFO@@@std@@@3@$0A@@std@@@std@@QAE@XZ ; std::_Tree<std::_Tmap_traits<int,_LUCKY_ITEM_INFO,std::less<int>,std::allocator<std::pair<int const ,_LUCKY_ITEM_INFO> >,0> >::~_Tree<std::_Tmap_traits<int,_LUCKY_ITEM_INFO,std::less<int>,std::allocator<std::pair<int const ,_LUCKY_ITEM_INFO> >,0> >
  00014	5f		 pop	 edi
  00015	5e		 pop	 esi
  00016	5b		 pop	 ebx
  00017	8b e5		 mov	 esp, ebp
  00019	5d		 pop	 ebp
  0001a	c3		 ret	 0
??1?$map@HU_LUCKY_ITEM_INFO@@U?$less@H@std@@V?$allocator@U?$pair@$$CBHU_LUCKY_ITEM_INFO@@@std@@@3@@std@@QAE@XZ ENDP ; std::map<int,_LUCKY_ITEM_INFO,std::less<int>,std::allocator<std::pair<int const ,_LUCKY_ITEM_INFO> > >::~map<int,_LUCKY_ITEM_INFO,std::less<int>,std::allocator<std::pair<int const ,_LUCKY_ITEM_INFO> > >
_TEXT	ENDS
PUBLIC	??_C@_03JBJLGPFL@end?$AA@			; `string'
PUBLIC	??_C@_0CI@HCFDEEDK@Load?5LuckyItem?5Script?5Error?5Item@ ; `string'
PUBLIC	?LoadLuckyItemEquipment@LuckyItemManager@@QAEHHPAU_LUCKY_ITEM_INFO@@@Z ; LuckyItemManager::LoadLuckyItemEquipment
EXTRN	_strcmp:PROC
EXTRN	?MsgBox@@YAXPADZZ:PROC				; MsgBox
EXTRN	__ftol2_sse:PROC
_BSS	SEGMENT
_TokenNumber DD	01H DUP (?)
_TokenString DB	064H DUP (?)
_BSS	ENDS
;	COMDAT ??_C@_03JBJLGPFL@end?$AA@
CONST	SEGMENT
??_C@_03JBJLGPFL@end?$AA@ DB 'end', 00H			; `string'
CONST	ENDS
;	COMDAT ??_C@_0CI@HCFDEEDK@Load?5LuckyItem?5Script?5Error?5Item@
CONST	SEGMENT
??_C@_0CI@HCFDEEDK@Load?5LuckyItem?5Script?5Error?5Item@ DB 'Load LuckyIt'
	DB	'em Script Error ItemType %d', 00H		; `string'
; Function compile flags: /Odtp /ZI
CONST	ENDS
_TEXT	SEGMENT
_iIndex$229256 = -32					; size = 4
_iType$229255 = -28					; size = 4
_Token$229235 = -24					; size = 4
_i$229225 = -20						; size = 4
_pLuckyItemEquipment$ = -16				; size = 4
_iItemKind$ = -12					; size = 4
_counter$ = -8						; size = 4
_this$ = -4						; size = 4
_iType$ = 8						; size = 4
_pLuckyItemInfo$ = 12					; size = 4
?LoadLuckyItemEquipment@LuckyItemManager@@QAEHHPAU_LUCKY_ITEM_INFO@@@Z PROC ; LuckyItemManager::LoadLuckyItemEquipment
; _this$ = ecx

; 39   : {

  00050	55		 push	 ebp
  00051	8b ec		 mov	 ebp, esp
  00053	83 ec 60	 sub	 esp, 96			; 00000060H
  00056	53		 push	 ebx
  00057	56		 push	 esi
  00058	57		 push	 edi
  00059	89 4d fc	 mov	 DWORD PTR _this$[ebp], ecx

; 40   : 	int counter									= 0;		//ebp-8

  0005c	c7 45 f8 00 00
	00 00		 mov	 DWORD PTR _counter$[ebp], 0

; 41   : 	int iItemKind								= iType;	//ebp-0c

  00063	8b 45 08	 mov	 eax, DWORD PTR _iType$[ebp]
  00066	89 45 f4	 mov	 DWORD PTR _iItemKind$[ebp], eax

; 42   : 	_LUCKY_ITEM_EQUIPMENT * pLuckyItemEquipment = 0;		//ebp-10

  00069	c7 45 f0 00 00
	00 00		 mov	 DWORD PTR _pLuckyItemEquipment$[ebp], 0

; 43   : 	// ----
; 44   : 	for( int i = 0; i < this->TicketCount; i++ )			//ebp-18

  00070	c7 45 ec 00 00
	00 00		 mov	 DWORD PTR _i$229225[ebp], 0
  00077	eb 09		 jmp	 SHORT $LN9@LoadLuckyI
$LN8@LoadLuckyI:
  00079	8b 45 ec	 mov	 eax, DWORD PTR _i$229225[ebp]
  0007c	83 c0 01	 add	 eax, 1
  0007f	89 45 ec	 mov	 DWORD PTR _i$229225[ebp], eax
$LN9@LoadLuckyI:
  00082	8b 45 fc	 mov	 eax, DWORD PTR _this$[ebp]
  00085	8b 4d ec	 mov	 ecx, DWORD PTR _i$229225[ebp]
  00088	3b 08		 cmp	 ecx, DWORD PTR [eax]
  0008a	7d 2d		 jge	 SHORT $LN7@LoadLuckyI

; 45   : 	{
; 46   : 		if( pLuckyItemInfo[i].ItemKind == iItemKind )

  0008c	8b 45 ec	 mov	 eax, DWORD PTR _i$229225[ebp]
  0008f	69 c0 a4 01 00
	00		 imul	 eax, 420		; 000001a4H
  00095	8b 4d 0c	 mov	 ecx, DWORD PTR _pLuckyItemInfo$[ebp]
  00098	8b 54 01 04	 mov	 edx, DWORD PTR [ecx+eax+4]
  0009c	3b 55 f4	 cmp	 edx, DWORD PTR _iItemKind$[ebp]
  0009f	75 16		 jne	 SHORT $LN6@LoadLuckyI

; 47   : 		{
; 48   : 			pLuckyItemEquipment = pLuckyItemInfo[i].m_ItemEquipment;

  000a1	8b 45 ec	 mov	 eax, DWORD PTR _i$229225[ebp]
  000a4	69 c0 a4 01 00
	00		 imul	 eax, 420		; 000001a4H
  000aa	8b 4d 0c	 mov	 ecx, DWORD PTR _pLuckyItemInfo$[ebp]
  000ad	8d 94 01 a0 00
	00 00		 lea	 edx, DWORD PTR [ecx+eax+160]
  000b4	89 55 f0	 mov	 DWORD PTR _pLuckyItemEquipment$[ebp], edx
$LN6@LoadLuckyI:

; 49   : 		}
; 50   : 	}

  000b7	eb c0		 jmp	 SHORT $LN8@LoadLuckyI
$LN7@LoadLuckyI:

; 51   : 	// ----
; 52   : 	if( !pLuckyItemEquipment )

  000b9	83 7d f0 00	 cmp	 DWORD PTR _pLuckyItemEquipment$[ebp], 0
  000bd	75 18		 jne	 SHORT $LN5@LoadLuckyI

; 53   : 	{
; 54   : 		MsgBox("Load LuckyItem Script Error ItemType %d", iItemKind);

  000bf	8b 45 f4	 mov	 eax, DWORD PTR _iItemKind$[ebp]
  000c2	50		 push	 eax
  000c3	68 00 00 00 00	 push	 OFFSET ??_C@_0CI@HCFDEEDK@Load?5LuckyItem?5Script?5Error?5Item@
  000c8	e8 00 00 00 00	 call	 ?MsgBox@@YAXPADZZ	; MsgBox
  000cd	83 c4 08	 add	 esp, 8

; 55   : 		return false;

  000d0	33 c0		 xor	 eax, eax
  000d2	e9 07 01 00 00	 jmp	 $LN10@LoadLuckyI
$LN5@LoadLuckyI:

; 56   : 	}
; 57   : 	// ----
; 58   : 	while(true)

  000d7	b8 01 00 00 00	 mov	 eax, 1
  000dc	85 c0		 test	 eax, eax
  000de	0f 84 f5 00 00
	00		 je	 $LN3@LoadLuckyI

; 59   : 	{
; 60   : 		SMDToken Token = GetToken();

  000e4	e8 00 00 00 00	 call	 ?GetToken@@YA?AW4SMDToken@@XZ ; GetToken
  000e9	89 45 e8	 mov	 DWORD PTR _Token$229235[ebp], eax

; 61   : 		// ----
; 62   : 		if( Token == NAME )

  000ec	83 7d e8 00	 cmp	 DWORD PTR _Token$229235[ebp], 0
  000f0	75 05		 jne	 SHORT $LN2@LoadLuckyI

; 63   : 		{
; 64   : 			break;

  000f2	e9 e2 00 00 00	 jmp	 $LN3@LoadLuckyI
$LN2@LoadLuckyI:

; 65   : 		}
; 66   : 		// ----
; 67   : 		if( !strcmp("end", TokenString) )

  000f7	68 00 00 00 00	 push	 OFFSET _TokenString
  000fc	68 00 00 00 00	 push	 OFFSET ??_C@_03JBJLGPFL@end?$AA@
  00101	e8 00 00 00 00	 call	 _strcmp
  00106	83 c4 08	 add	 esp, 8
  00109	85 c0		 test	 eax, eax
  0010b	75 05		 jne	 SHORT $LN1@LoadLuckyI

; 68   : 		{
; 69   : 			break;

  0010d	e9 c7 00 00 00	 jmp	 $LN3@LoadLuckyI
$LN1@LoadLuckyI:

; 70   : 		}
; 71   : 		// ----
; 72   : 		int iType	= TokenNumber;

  00112	d9 05 00 00 00
	00		 fld	 DWORD PTR _TokenNumber
  00118	e8 00 00 00 00	 call	 __ftol2_sse
  0011d	89 45 e4	 mov	 DWORD PTR _iType$229255[ebp], eax

; 73   : 		Token		= GetToken();		

  00120	e8 00 00 00 00	 call	 ?GetToken@@YA?AW4SMDToken@@XZ ; GetToken
  00125	89 45 e8	 mov	 DWORD PTR _Token$229235[ebp], eax

; 74   : 		int iIndex	= TokenNumber;

  00128	d9 05 00 00 00
	00		 fld	 DWORD PTR _TokenNumber
  0012e	e8 00 00 00 00	 call	 __ftol2_sse
  00133	89 45 e0	 mov	 DWORD PTR _iIndex$229256[ebp], eax

; 75   : 		// ----
; 76   : 		pLuckyItemEquipment[counter].m_Index = ITEMGET(iType, iIndex);

  00136	8b 45 e4	 mov	 eax, DWORD PTR _iType$229255[ebp]
  00139	c1 e0 09	 shl	 eax, 9
  0013c	03 45 e0	 add	 eax, DWORD PTR _iIndex$229256[ebp]
  0013f	8b 4d f8	 mov	 ecx, DWORD PTR _counter$[ebp]
  00142	6b c9 14	 imul	 ecx, 20			; 00000014H
  00145	8b 55 f0	 mov	 edx, DWORD PTR _pLuckyItemEquipment$[ebp]
  00148	89 04 0a	 mov	 DWORD PTR [edx+ecx], eax

; 77   : 		// ----
; 78   : 		Token = GetToken();		

  0014b	e8 00 00 00 00	 call	 ?GetToken@@YA?AW4SMDToken@@XZ ; GetToken
  00150	89 45 e8	 mov	 DWORD PTR _Token$229235[ebp], eax

; 79   : 		pLuckyItemEquipment[counter].m_Skill = TokenNumber;

  00153	d9 05 00 00 00
	00		 fld	 DWORD PTR _TokenNumber
  00159	e8 00 00 00 00	 call	 __ftol2_sse
  0015e	8b 4d f8	 mov	 ecx, DWORD PTR _counter$[ebp]
  00161	6b c9 14	 imul	 ecx, 20			; 00000014H
  00164	8b 55 f0	 mov	 edx, DWORD PTR _pLuckyItemEquipment$[ebp]
  00167	89 44 0a 04	 mov	 DWORD PTR [edx+ecx+4], eax

; 80   : 		Token = GetToken();		

  0016b	e8 00 00 00 00	 call	 ?GetToken@@YA?AW4SMDToken@@XZ ; GetToken
  00170	89 45 e8	 mov	 DWORD PTR _Token$229235[ebp], eax

; 81   : 		pLuckyItemEquipment[counter].m_Luck = TokenNumber;

  00173	d9 05 00 00 00
	00		 fld	 DWORD PTR _TokenNumber
  00179	e8 00 00 00 00	 call	 __ftol2_sse
  0017e	8b 4d f8	 mov	 ecx, DWORD PTR _counter$[ebp]
  00181	6b c9 14	 imul	 ecx, 20			; 00000014H
  00184	8b 55 f0	 mov	 edx, DWORD PTR _pLuckyItemEquipment$[ebp]
  00187	89 44 0a 08	 mov	 DWORD PTR [edx+ecx+8], eax

; 82   : 		Token = GetToken();		

  0018b	e8 00 00 00 00	 call	 ?GetToken@@YA?AW4SMDToken@@XZ ; GetToken
  00190	89 45 e8	 mov	 DWORD PTR _Token$229235[ebp], eax

; 83   : 		pLuckyItemEquipment[counter].m_Option = TokenNumber;

  00193	d9 05 00 00 00
	00		 fld	 DWORD PTR _TokenNumber
  00199	e8 00 00 00 00	 call	 __ftol2_sse
  0019e	8b 4d f8	 mov	 ecx, DWORD PTR _counter$[ebp]
  001a1	6b c9 14	 imul	 ecx, 20			; 00000014H
  001a4	8b 55 f0	 mov	 edx, DWORD PTR _pLuckyItemEquipment$[ebp]
  001a7	89 44 0a 0c	 mov	 DWORD PTR [edx+ecx+12], eax

; 84   : 		Token = GetToken();		

  001ab	e8 00 00 00 00	 call	 ?GetToken@@YA?AW4SMDToken@@XZ ; GetToken
  001b0	89 45 e8	 mov	 DWORD PTR _Token$229235[ebp], eax

; 85   : 		pLuckyItemEquipment[counter].m_Class = TokenNumber;

  001b3	d9 05 00 00 00
	00		 fld	 DWORD PTR _TokenNumber
  001b9	e8 00 00 00 00	 call	 __ftol2_sse
  001be	8b 4d f8	 mov	 ecx, DWORD PTR _counter$[ebp]
  001c1	6b c9 14	 imul	 ecx, 20			; 00000014H
  001c4	8b 55 f0	 mov	 edx, DWORD PTR _pLuckyItemEquipment$[ebp]
  001c7	89 44 0a 10	 mov	 DWORD PTR [edx+ecx+16], eax

; 86   : 		// ----
; 87   : 		counter++;

  001cb	8b 45 f8	 mov	 eax, DWORD PTR _counter$[ebp]
  001ce	83 c0 01	 add	 eax, 1
  001d1	89 45 f8	 mov	 DWORD PTR _counter$[ebp], eax

; 88   : 	}

  001d4	e9 fe fe ff ff	 jmp	 $LN5@LoadLuckyI
$LN3@LoadLuckyI:

; 89   : 	// ----
; 90   : 	return true;

  001d9	b8 01 00 00 00	 mov	 eax, 1
$LN10@LoadLuckyI:

; 91   : }

  001de	5f		 pop	 edi
  001df	5e		 pop	 esi
  001e0	5b		 pop	 ebx
  001e1	8b e5		 mov	 esp, ebp
  001e3	5d		 pop	 ebp
  001e4	c2 08 00	 ret	 8
?LoadLuckyItemEquipment@LuckyItemManager@@QAEHHPAU_LUCKY_ITEM_INFO@@@Z ENDP ; LuckyItemManager::LoadLuckyItemEquipment
_TEXT	ENDS
PUBLIC	__$ArrayPad$
EXTRN	_isalnum:PROC
EXTRN	_isalpha:PROC
EXTRN	_atof:PROC
EXTRN	_isdigit:PROC
EXTRN	_getc:PROC
EXTRN	_ungetc:PROC
EXTRN	_isspace:PROC
EXTRN	_fgetc:PROC
EXTRN	___security_cookie:DWORD
EXTRN	__fltused:DWORD
EXTRN	@__security_check_cookie@4:PROC
_BSS	SEGMENT
_CurrentToken DD 01H DUP (?)
_SMDFile DD	01H DUP (?)
; Function compile flags: /Odtp /ZI
; File d:\projects\exteam6.3\source\gameserver\include\readscript.h
_BSS	ENDS
_TEXT	SEGMENT
tv90 = -180						; size = 4
_TempString$ = -112					; size = 100
_p$ = -12						; size = 4
_ch$ = -5						; size = 1
__$ArrayPad$ = -4					; size = 4
?GetToken@@YA?AW4SMDToken@@XZ PROC			; GetToken

; 24   : {

  001f0	55		 push	 ebp
  001f1	8b ec		 mov	 ebp, esp
  001f3	81 ec b4 00 00
	00		 sub	 esp, 180		; 000000b4H
  001f9	a1 00 00 00 00	 mov	 eax, DWORD PTR ___security_cookie
  001fe	33 c5		 xor	 eax, ebp
  00200	89 45 fc	 mov	 DWORD PTR __$ArrayPad$[ebp], eax
  00203	53		 push	 ebx
  00204	56		 push	 esi
  00205	57		 push	 edi

; 25   : 	char ch;
; 26   : 	char* p;
; 27   : 	char TempString[100];
; 28   : 
; 29   : 	TokenString[0]=0;

  00206	c6 05 00 00 00
	00 00		 mov	 BYTE PTR _TokenString, 0
$LN31@GetToken:

; 30   : 
; 31   : 	do
; 32   : 	{
; 33   : 		if ((ch=fgetc(SMDFile)) == -1)

  0020d	a1 00 00 00 00	 mov	 eax, DWORD PTR _SMDFile
  00212	50		 push	 eax
  00213	e8 00 00 00 00	 call	 _fgetc
  00218	83 c4 04	 add	 esp, 4
  0021b	88 45 fb	 mov	 BYTE PTR _ch$[ebp], al
  0021e	0f be 4d fb	 movsx	 ecx, BYTE PTR _ch$[ebp]
  00222	83 f9 ff	 cmp	 ecx, -1
  00225	75 0c		 jne	 SHORT $LN28@GetToken

; 34   : 		{
; 35   : 			return END;	// End of FILE (EOF)

  00227	b8 02 00 00 00	 mov	 eax, 2
  0022c	e9 f7 02 00 00	 jmp	 $LN32@GetToken

; 36   : 		}
; 37   : 		else

  00231	eb 5b		 jmp	 SHORT $LN22@GetToken
$LN28@GetToken:

; 38   : 		{	
; 39   : 			if (ch=='/')		// this is /

  00233	0f be 45 fb	 movsx	 eax, BYTE PTR _ch$[ebp]
  00237	83 f8 2f	 cmp	 eax, 47			; 0000002fH
  0023a	75 52		 jne	 SHORT $LN22@GetToken

; 40   : 			{
; 41   : 				if((ch=fgetc(SMDFile)) == '/')

  0023c	a1 00 00 00 00	 mov	 eax, DWORD PTR _SMDFile
  00241	50		 push	 eax
  00242	e8 00 00 00 00	 call	 _fgetc
  00247	83 c4 04	 add	 esp, 4
  0024a	88 45 fb	 mov	 BYTE PTR _ch$[ebp], al
  0024d	0f be 4d fb	 movsx	 ecx, BYTE PTR _ch$[ebp]
  00251	83 f9 2f	 cmp	 ecx, 47			; 0000002fH
  00254	75 38		 jne	 SHORT $LN22@GetToken
$LN24@GetToken:

; 42   : 				{
; 43   : 					while ((ch != '\n') && (ch != -1))	// End of Line (EOL)

  00256	0f be 45 fb	 movsx	 eax, BYTE PTR _ch$[ebp]
  0025a	83 f8 0a	 cmp	 eax, 10			; 0000000aH
  0025d	74 1c		 je	 SHORT $LN23@GetToken
  0025f	0f be 45 fb	 movsx	 eax, BYTE PTR _ch$[ebp]
  00263	83 f8 ff	 cmp	 eax, -1
  00266	74 13		 je	 SHORT $LN23@GetToken

; 44   : 					{
; 45   : 						ch=fgetc(SMDFile);

  00268	a1 00 00 00 00	 mov	 eax, DWORD PTR _SMDFile
  0026d	50		 push	 eax
  0026e	e8 00 00 00 00	 call	 _fgetc
  00273	83 c4 04	 add	 esp, 4
  00276	88 45 fb	 mov	 BYTE PTR _ch$[ebp], al

; 46   : 					}

  00279	eb db		 jmp	 SHORT $LN24@GetToken
$LN23@GetToken:

; 47   : 	
; 48   : 					if (ch == -1)

  0027b	0f be 45 fb	 movsx	 eax, BYTE PTR _ch$[ebp]
  0027f	83 f8 ff	 cmp	 eax, -1
  00282	75 0a		 jne	 SHORT $LN22@GetToken

; 49   : 					{
; 50   : 						return END;	// End of FILE

  00284	b8 02 00 00 00	 mov	 eax, 2
  00289	e9 9a 02 00 00	 jmp	 $LN32@GetToken
$LN22@GetToken:

; 51   : 					}
; 52   : 				}
; 53   : 			}
; 54   : 		}
; 55   : 	}
; 56   : 	while (isspace(ch) != 0);

  0028e	0f be 45 fb	 movsx	 eax, BYTE PTR _ch$[ebp]
  00292	50		 push	 eax
  00293	e8 00 00 00 00	 call	 _isspace
  00298	83 c4 04	 add	 esp, 4
  0029b	85 c0		 test	 eax, eax
  0029d	0f 85 6a ff ff
	ff		 jne	 $LN31@GetToken

; 57   : 
; 58   : 	
; 59   : 	switch(ch)

  002a3	0f be 45 fb	 movsx	 eax, BYTE PTR _ch$[ebp]
  002a7	89 85 4c ff ff
	ff		 mov	 DWORD PTR tv90[ebp], eax
  002ad	8b 8d 4c ff ff
	ff		 mov	 ecx, DWORD PTR tv90[ebp]
  002b3	83 e9 22	 sub	 ecx, 34			; 00000022H
  002b6	89 8d 4c ff ff
	ff		 mov	 DWORD PTR tv90[ebp], ecx
  002bc	83 bd 4c ff ff
	ff 5b		 cmp	 DWORD PTR tv90[ebp], 91	; 0000005bH
  002c3	0f 87 a3 01 00
	00		 ja	 $LN6@GetToken
  002c9	8b 95 4c ff ff
	ff		 mov	 edx, DWORD PTR tv90[ebp]
  002cf	0f b6 82 00 00
	00 00		 movzx	 eax, BYTE PTR $LN34@GetToken[edx]
  002d6	ff 24 85 00 00
	00 00		 jmp	 DWORD PTR $LN35@GetToken[eax*4]
$LN19@GetToken:

; 60   : 	{
; 61   : 
; 62   : 	case 0x23:	// #
; 63   : 		return CurrentToken=COMMAND;

  002dd	c7 05 00 00 00
	00 23 00 00 00	 mov	 DWORD PTR _CurrentToken, 35 ; 00000023H
  002e7	a1 00 00 00 00	 mov	 eax, DWORD PTR _CurrentToken
  002ec	e9 37 02 00 00	 jmp	 $LN32@GetToken

; 64   : 		break;

  002f1	e9 30 02 00 00	 jmp	 $LN20@GetToken
$LN18@GetToken:

; 65   : 	
; 66   : 	case 0x3B:	// ;
; 67   : 		return CurrentToken=SEMICOLON;

  002f6	c7 05 00 00 00
	00 3b 00 00 00	 mov	 DWORD PTR _CurrentToken, 59 ; 0000003bH
  00300	a1 00 00 00 00	 mov	 eax, DWORD PTR _CurrentToken
  00305	e9 1e 02 00 00	 jmp	 $LN32@GetToken

; 68   : 		break;

  0030a	e9 17 02 00 00	 jmp	 $LN20@GetToken
$LN17@GetToken:

; 69   : 	
; 70   : 	case 0x2C:	// ,
; 71   : 
; 72   : 		return CurrentToken=COMMA;

  0030f	c7 05 00 00 00
	00 2c 00 00 00	 mov	 DWORD PTR _CurrentToken, 44 ; 0000002cH
  00319	a1 00 00 00 00	 mov	 eax, DWORD PTR _CurrentToken
  0031e	e9 05 02 00 00	 jmp	 $LN32@GetToken

; 73   : 		break;

  00323	e9 fe 01 00 00	 jmp	 $LN20@GetToken
$LN16@GetToken:

; 74   : 	
; 75   : 	case 0x7B:	// {
; 76   : 		return CurrentToken = LP;

  00328	c7 05 00 00 00
	00 7b 00 00 00	 mov	 DWORD PTR _CurrentToken, 123 ; 0000007bH
  00332	a1 00 00 00 00	 mov	 eax, DWORD PTR _CurrentToken
  00337	e9 ec 01 00 00	 jmp	 $LN32@GetToken

; 77   : 		break;

  0033c	e9 e5 01 00 00	 jmp	 $LN20@GetToken
$LN15@GetToken:

; 78   : 
; 79   : 	case 0x7D:	// }
; 80   : 		return CurrentToken = RP;

  00341	c7 05 00 00 00
	00 7d 00 00 00	 mov	 DWORD PTR _CurrentToken, 125 ; 0000007dH
  0034b	a1 00 00 00 00	 mov	 eax, DWORD PTR _CurrentToken
  00350	e9 d3 01 00 00	 jmp	 $LN32@GetToken

; 81   : 		break;

  00355	e9 cc 01 00 00	 jmp	 $LN20@GetToken
$LN14@GetToken:

; 82   : 	// Nice Index Table :)	by Deathway
; 83   : 	// Numbers Case
; 84   : 	case 0x2D:	//-
; 85   : 	case 0x2E:	//.
; 86   : 	case '0':	//0
; 87   : 	case '1':	//1
; 88   : 	case '2':	//2
; 89   : 	case '3':	//3
; 90   : 	case '4':	//4		
; 91   : 	case '5':	//5
; 92   : 	case '6':	//6
; 93   : 	case '7':	//7
; 94   : 	case '8':	//8
; 95   : 	case '9':	//9
; 96   : 		ungetc(ch, SMDFile);

  0035a	a1 00 00 00 00	 mov	 eax, DWORD PTR _SMDFile
  0035f	50		 push	 eax
  00360	0f be 4d fb	 movsx	 ecx, BYTE PTR _ch$[ebp]
  00364	51		 push	 ecx
  00365	e8 00 00 00 00	 call	 _ungetc
  0036a	83 c4 08	 add	 esp, 8

; 97   : 		p = TempString;

  0036d	8d 45 90	 lea	 eax, DWORD PTR _TempString$[ebp]
  00370	89 45 f4	 mov	 DWORD PTR _p$[ebp], eax
$LN13@GetToken:

; 98   : 		
; 99   : 		while (((ch=getc(SMDFile)) != -1) && ((ch == 0x2E) || (isdigit(ch) != 0) || (ch == 0x2D)))  // 2e '.'  2D '-'

  00373	a1 00 00 00 00	 mov	 eax, DWORD PTR _SMDFile
  00378	50		 push	 eax
  00379	e8 00 00 00 00	 call	 _getc
  0037e	83 c4 04	 add	 esp, 4
  00381	88 45 fb	 mov	 BYTE PTR _ch$[ebp], al
  00384	0f be 4d fb	 movsx	 ecx, BYTE PTR _ch$[ebp]
  00388	83 f9 ff	 cmp	 ecx, -1
  0038b	74 36		 je	 SHORT $LN12@GetToken
  0038d	0f be 45 fb	 movsx	 eax, BYTE PTR _ch$[ebp]
  00391	83 f8 2e	 cmp	 eax, 46			; 0000002eH
  00394	74 1a		 je	 SHORT $LN11@GetToken
  00396	0f be 45 fb	 movsx	 eax, BYTE PTR _ch$[ebp]
  0039a	50		 push	 eax
  0039b	e8 00 00 00 00	 call	 _isdigit
  003a0	83 c4 04	 add	 esp, 4
  003a3	85 c0		 test	 eax, eax
  003a5	75 09		 jne	 SHORT $LN11@GetToken
  003a7	0f be 45 fb	 movsx	 eax, BYTE PTR _ch$[ebp]
  003ab	83 f8 2d	 cmp	 eax, 45			; 0000002dH
  003ae	75 13		 jne	 SHORT $LN12@GetToken
$LN11@GetToken:

; 100  : 		{
; 101  : 			*p = ch;	// Construct a String

  003b0	8b 45 f4	 mov	 eax, DWORD PTR _p$[ebp]
  003b3	8a 4d fb	 mov	 cl, BYTE PTR _ch$[ebp]
  003b6	88 08		 mov	 BYTE PTR [eax], cl

; 102  : 			p++;

  003b8	8b 45 f4	 mov	 eax, DWORD PTR _p$[ebp]
  003bb	83 c0 01	 add	 eax, 1
  003be	89 45 f4	 mov	 DWORD PTR _p$[ebp], eax

; 103  : 		}		

  003c1	eb b0		 jmp	 SHORT $LN13@GetToken
$LN12@GetToken:

; 104  : 		*p = 0;

  003c3	8b 45 f4	 mov	 eax, DWORD PTR _p$[ebp]
  003c6	c6 00 00	 mov	 BYTE PTR [eax], 0

; 105  : 		TokenNumber = atof( TempString);	// Select the first Byte as Main ID

  003c9	8d 45 90	 lea	 eax, DWORD PTR _TempString$[ebp]
  003cc	50		 push	 eax
  003cd	e8 00 00 00 00	 call	 _atof
  003d2	83 c4 04	 add	 esp, 4
  003d5	d9 1d 00 00 00
	00		 fstp	 DWORD PTR _TokenNumber

; 106  : 		return CurrentToken  = NUMBER ;

  003db	c7 05 00 00 00
	00 01 00 00 00	 mov	 DWORD PTR _CurrentToken, 1
  003e5	a1 00 00 00 00	 mov	 eax, DWORD PTR _CurrentToken
  003ea	e9 39 01 00 00	 jmp	 $LN32@GetToken

; 107  : 		break;

  003ef	e9 32 01 00 00	 jmp	 $LN20@GetToken
$LN10@GetToken:

; 108  : 
; 109  : 	case '\"':	// "	String Case
; 110  : 		p=&TokenString[0];

  003f4	c7 45 f4 00 00
	00 00		 mov	 DWORD PTR _p$[ebp], OFFSET _TokenString
$LN9@GetToken:

; 111  : 		
; 112  : 		while (((ch=getc(SMDFile)) != -1 ) && (ch != 0x22))	// nice

  003fb	a1 00 00 00 00	 mov	 eax, DWORD PTR _SMDFile
  00400	50		 push	 eax
  00401	e8 00 00 00 00	 call	 _getc
  00406	83 c4 04	 add	 esp, 4
  00409	88 45 fb	 mov	 BYTE PTR _ch$[ebp], al
  0040c	0f be 4d fb	 movsx	 ecx, BYTE PTR _ch$[ebp]
  00410	83 f9 ff	 cmp	 ecx, -1
  00413	74 1c		 je	 SHORT $LN8@GetToken
  00415	0f be 45 fb	 movsx	 eax, BYTE PTR _ch$[ebp]
  00419	83 f8 22	 cmp	 eax, 34			; 00000022H
  0041c	74 13		 je	 SHORT $LN8@GetToken

; 113  : 		{
; 114  : 			*p = ch;

  0041e	8b 45 f4	 mov	 eax, DWORD PTR _p$[ebp]
  00421	8a 4d fb	 mov	 cl, BYTE PTR _ch$[ebp]
  00424	88 08		 mov	 BYTE PTR [eax], cl

; 115  : 			p++;

  00426	8b 45 f4	 mov	 eax, DWORD PTR _p$[ebp]
  00429	83 c0 01	 add	 eax, 1
  0042c	89 45 f4	 mov	 DWORD PTR _p$[ebp], eax

; 116  : 		}

  0042f	eb ca		 jmp	 SHORT $LN9@GetToken
$LN8@GetToken:

; 117  : 		if (ch != 0x22 )

  00431	0f be 45 fb	 movsx	 eax, BYTE PTR _ch$[ebp]
  00435	83 f8 22	 cmp	 eax, 34			; 00000022H
  00438	74 13		 je	 SHORT $LN7@GetToken

; 118  : 		{
; 119  : 			ungetc(ch, SMDFile);

  0043a	a1 00 00 00 00	 mov	 eax, DWORD PTR _SMDFile
  0043f	50		 push	 eax
  00440	0f be 4d fb	 movsx	 ecx, BYTE PTR _ch$[ebp]
  00444	51		 push	 ecx
  00445	e8 00 00 00 00	 call	 _ungetc
  0044a	83 c4 08	 add	 esp, 8
$LN7@GetToken:

; 120  : 		}
; 121  : 		*p = 0;

  0044d	8b 45 f4	 mov	 eax, DWORD PTR _p$[ebp]
  00450	c6 00 00	 mov	 BYTE PTR [eax], 0

; 122  : 		return CurrentToken = NAME;

  00453	c7 05 00 00 00
	00 00 00 00 00	 mov	 DWORD PTR _CurrentToken, 0
  0045d	a1 00 00 00 00	 mov	 eax, DWORD PTR _CurrentToken
  00462	e9 c1 00 00 00	 jmp	 $LN32@GetToken

; 123  : 		break;

  00467	e9 ba 00 00 00	 jmp	 $LN20@GetToken
$LN6@GetToken:

; 124  : 
; 125  : 	default:	// Others
; 126  : 		if (isalpha(ch))

  0046c	0f be 45 fb	 movsx	 eax, BYTE PTR _ch$[ebp]
  00470	50		 push	 eax
  00471	e8 00 00 00 00	 call	 _isalpha
  00476	83 c4 04	 add	 esp, 4
  00479	85 c0		 test	 eax, eax
  0047b	0f 84 94 00 00
	00		 je	 $LN5@GetToken

; 127  : 		{
; 128  : 			p=&TokenString[0];

  00481	c7 45 f4 00 00
	00 00		 mov	 DWORD PTR _p$[ebp], OFFSET _TokenString

; 129  : 			*p=ch;

  00488	8b 45 f4	 mov	 eax, DWORD PTR _p$[ebp]
  0048b	8a 4d fb	 mov	 cl, BYTE PTR _ch$[ebp]
  0048e	88 08		 mov	 BYTE PTR [eax], cl

; 130  : 			p++;

  00490	8b 45 f4	 mov	 eax, DWORD PTR _p$[ebp]
  00493	83 c0 01	 add	 eax, 1
  00496	89 45 f4	 mov	 DWORD PTR _p$[ebp], eax
$LN4@GetToken:

; 131  : 
; 132  : 			while ( ((ch=getc(SMDFile)) != -1) && ( (ch == 0x2E) || (ch == 0x5F) || (isalnum(ch) != 0) ) )

  00499	a1 00 00 00 00	 mov	 eax, DWORD PTR _SMDFile
  0049e	50		 push	 eax
  0049f	e8 00 00 00 00	 call	 _getc
  004a4	83 c4 04	 add	 esp, 4
  004a7	88 45 fb	 mov	 BYTE PTR _ch$[ebp], al
  004aa	0f be 4d fb	 movsx	 ecx, BYTE PTR _ch$[ebp]
  004ae	83 f9 ff	 cmp	 ecx, -1
  004b1	74 36		 je	 SHORT $LN3@GetToken
  004b3	0f be 45 fb	 movsx	 eax, BYTE PTR _ch$[ebp]
  004b7	83 f8 2e	 cmp	 eax, 46			; 0000002eH
  004ba	74 1a		 je	 SHORT $LN2@GetToken
  004bc	0f be 45 fb	 movsx	 eax, BYTE PTR _ch$[ebp]
  004c0	83 f8 5f	 cmp	 eax, 95			; 0000005fH
  004c3	74 11		 je	 SHORT $LN2@GetToken
  004c5	0f be 45 fb	 movsx	 eax, BYTE PTR _ch$[ebp]
  004c9	50		 push	 eax
  004ca	e8 00 00 00 00	 call	 _isalnum
  004cf	83 c4 04	 add	 esp, 4
  004d2	85 c0		 test	 eax, eax
  004d4	74 13		 je	 SHORT $LN3@GetToken
$LN2@GetToken:

; 133  : 			{
; 134  : 				*p=ch;

  004d6	8b 45 f4	 mov	 eax, DWORD PTR _p$[ebp]
  004d9	8a 4d fb	 mov	 cl, BYTE PTR _ch$[ebp]
  004dc	88 08		 mov	 BYTE PTR [eax], cl

; 135  : 				p++;

  004de	8b 45 f4	 mov	 eax, DWORD PTR _p$[ebp]
  004e1	83 c0 01	 add	 eax, 1
  004e4	89 45 f4	 mov	 DWORD PTR _p$[ebp], eax

; 136  : 				
; 137  : 			}

  004e7	eb b0		 jmp	 SHORT $LN4@GetToken
$LN3@GetToken:

; 138  : 
; 139  : 			ungetc(ch, SMDFile);

  004e9	a1 00 00 00 00	 mov	 eax, DWORD PTR _SMDFile
  004ee	50		 push	 eax
  004ef	0f be 4d fb	 movsx	 ecx, BYTE PTR _ch$[ebp]
  004f3	51		 push	 ecx
  004f4	e8 00 00 00 00	 call	 _ungetc
  004f9	83 c4 08	 add	 esp, 8

; 140  : 			*p=0;

  004fc	8b 45 f4	 mov	 eax, DWORD PTR _p$[ebp]
  004ff	c6 00 00	 mov	 BYTE PTR [eax], 0

; 141  : 			CurrentToken=NAME;

  00502	c7 05 00 00 00
	00 00 00 00 00	 mov	 DWORD PTR _CurrentToken, 0

; 142  : 			return CurrentToken;

  0050c	a1 00 00 00 00	 mov	 eax, DWORD PTR _CurrentToken
  00511	eb 15		 jmp	 SHORT $LN32@GetToken

; 143  : 		}
; 144  : 		else

  00513	eb 11		 jmp	 SHORT $LN1@GetToken
$LN5@GetToken:

; 145  : 		{
; 146  : 			return CurrentToken = SMD_ERROR; // '<'

  00515	c7 05 00 00 00
	00 3c 00 00 00	 mov	 DWORD PTR _CurrentToken, 60 ; 0000003cH
  0051f	a1 00 00 00 00	 mov	 eax, DWORD PTR _CurrentToken
  00524	eb 02		 jmp	 SHORT $LN32@GetToken
$LN1@GetToken:
$LN20@GetToken:

; 147  : 		}
; 148  : 		break;
; 149  : 
; 150  : 	}
; 151  : 
; 152  : 	return NAME;

  00526	33 c0		 xor	 eax, eax
$LN32@GetToken:

; 153  : }

  00528	5f		 pop	 edi
  00529	5e		 pop	 esi
  0052a	5b		 pop	 ebx
  0052b	8b 4d fc	 mov	 ecx, DWORD PTR __$ArrayPad$[ebp]
  0052e	33 cd		 xor	 ecx, ebp
  00530	e8 00 00 00 00	 call	 @__security_check_cookie@4
  00535	8b e5		 mov	 esp, ebp
  00537	5d		 pop	 ebp
  00538	c3		 ret	 0
  00539	8d 49 00	 npad	 3
$LN35@GetToken:
  0053c	00 00 00 00	 DD	 $LN10@GetToken
  00540	00 00 00 00	 DD	 $LN19@GetToken
  00544	00 00 00 00	 DD	 $LN17@GetToken
  00548	00 00 00 00	 DD	 $LN14@GetToken
  0054c	00 00 00 00	 DD	 $LN18@GetToken
  00550	00 00 00 00	 DD	 $LN16@GetToken
  00554	00 00 00 00	 DD	 $LN15@GetToken
  00558	00 00 00 00	 DD	 $LN6@GetToken
$LN34@GetToken:
  0055c	00		 DB	 0
  0055d	01		 DB	 1
  0055e	07		 DB	 7
  0055f	07		 DB	 7
  00560	07		 DB	 7
  00561	07		 DB	 7
  00562	07		 DB	 7
  00563	07		 DB	 7
  00564	07		 DB	 7
  00565	07		 DB	 7
  00566	02		 DB	 2
  00567	03		 DB	 3
  00568	03		 DB	 3
  00569	07		 DB	 7
  0056a	03		 DB	 3
  0056b	03		 DB	 3
  0056c	03		 DB	 3
  0056d	03		 DB	 3
  0056e	03		 DB	 3
  0056f	03		 DB	 3
  00570	03		 DB	 3
  00571	03		 DB	 3
  00572	03		 DB	 3
  00573	03		 DB	 3
  00574	07		 DB	 7
  00575	04		 DB	 4
  00576	07		 DB	 7
  00577	07		 DB	 7
  00578	07		 DB	 7
  00579	07		 DB	 7
  0057a	07		 DB	 7
  0057b	07		 DB	 7
  0057c	07		 DB	 7
  0057d	07		 DB	 7
  0057e	07		 DB	 7
  0057f	07		 DB	 7
  00580	07		 DB	 7
  00581	07		 DB	 7
  00582	07		 DB	 7
  00583	07		 DB	 7
  00584	07		 DB	 7
  00585	07		 DB	 7
  00586	07		 DB	 7
  00587	07		 DB	 7
  00588	07		 DB	 7
  00589	07		 DB	 7
  0058a	07		 DB	 7
  0058b	07		 DB	 7
  0058c	07		 DB	 7
  0058d	07		 DB	 7
  0058e	07		 DB	 7
  0058f	07		 DB	 7
  00590	07		 DB	 7
  00591	07		 DB	 7
  00592	07		 DB	 7
  00593	07		 DB	 7
  00594	07		 DB	 7
  00595	07		 DB	 7
  00596	07		 DB	 7
  00597	07		 DB	 7
  00598	07		 DB	 7
  00599	07		 DB	 7
  0059a	07		 DB	 7
  0059b	07		 DB	 7
  0059c	07		 DB	 7
  0059d	07		 DB	 7
  0059e	07		 DB	 7
  0059f	07		 DB	 7
  005a0	07		 DB	 7
  005a1	07		 DB	 7
  005a2	07		 DB	 7
  005a3	07		 DB	 7
  005a4	07		 DB	 7
  005a5	07		 DB	 7
  005a6	07		 DB	 7
  005a7	07		 DB	 7
  005a8	07		 DB	 7
  005a9	07		 DB	 7
  005aa	07		 DB	 7
  005ab	07		 DB	 7
  005ac	07		 DB	 7
  005ad	07		 DB	 7
  005ae	07		 DB	 7
  005af	07		 DB	 7
  005b0	07		 DB	 7
  005b1	07		 DB	 7
  005b2	07		 DB	 7
  005b3	07		 DB	 7
  005b4	07		 DB	 7
  005b5	05		 DB	 5
  005b6	07		 DB	 7
  005b7	06		 DB	 6
?GetToken@@YA?AW4SMDToken@@XZ ENDP			; GetToken
_TEXT	ENDS
PUBLIC	?AddLuckyItemInfo@LuckyItemManager@@QAEXPAU_LUCKY_ITEM_INFO@@H@Z ; LuckyItemManager::AddLuckyItemInfo
PUBLIC	??0_LUCKY_ITEM_INFO@@QAE@XZ			; _LUCKY_ITEM_INFO::_LUCKY_ITEM_INFO
PUBLIC	??_C@_0BP@OIMJHLAA@MoveCommand?5?$CFs?5File?5Load?5Error?$AA@ ; `string'
PUBLIC	??_C@_01KDCPPGHE@r?$AA@				; `string'
PUBLIC	__$ArrayPad$
PUBLIC	?LoadLuckyItemInfo@LuckyItemManager@@QAEHPAD@Z	; LuckyItemManager::LoadLuckyItemInfo
EXTRN	_fclose:PROC
EXTRN	_fopen:PROC
;	COMDAT ??_C@_0BP@OIMJHLAA@MoveCommand?5?$CFs?5File?5Load?5Error?$AA@
; File d:\projects\exteam6.3\source\gameserver\gameserver\luckyitem.cpp
CONST	SEGMENT
??_C@_0BP@OIMJHLAA@MoveCommand?5?$CFs?5File?5Load?5Error?$AA@ DB 'MoveCom'
	DB	'mand %s File Load Error', 00H		; `string'
CONST	ENDS
;	COMDAT ??_C@_01KDCPPGHE@r?$AA@
CONST	SEGMENT
??_C@_01KDCPPGHE@r?$AA@ DB 'r', 00H			; `string'
; Function compile flags: /Odtp /ZI
CONST	ENDS
_TEXT	SEGMENT
_i$229338 = -2168					; size = 4
_iIndex$229337 = -2164					; size = 4
_i$229327 = -2160					; size = 4
_iIndex$229326 = -2156					; size = 4
_i$229316 = -2152					; size = 4
_iIndex$229315 = -2148					; size = 4
_i$229305 = -2144					; size = 4
_iIndex$229304 = -2140					; size = 4
_iIndex$229282 = -2136					; size = 4
_iType$229281 = -2132					; size = 4
_Type$229275 = -2128					; size = 4
_LuckyItemInfo$ = -2124					; size = 2100
_iTicketCount$ = -24					; size = 4
_iCount$ = -20						; size = 4
_i$ = -16						; size = 4
_Token$ = -12						; size = 4
_this$ = -8						; size = 4
__$ArrayPad$ = -4					; size = 4
_lpszFileName$ = 8					; size = 4
?LoadLuckyItemInfo@LuckyItemManager@@QAEHPAD@Z PROC	; LuckyItemManager::LoadLuckyItemInfo
; _this$ = ecx

; 96   : {

  005c0	55		 push	 ebp
  005c1	8b ec		 mov	 ebp, esp
  005c3	81 ec b8 08 00
	00		 sub	 esp, 2232		; 000008b8H
  005c9	a1 00 00 00 00	 mov	 eax, DWORD PTR ___security_cookie
  005ce	33 c5		 xor	 eax, ebp
  005d0	89 45 fc	 mov	 DWORD PTR __$ArrayPad$[ebp], eax
  005d3	53		 push	 ebx
  005d4	56		 push	 esi
  005d5	57		 push	 edi
  005d6	89 4d f8	 mov	 DWORD PTR _this$[ebp], ecx

; 97   : 	SMDFile = fopen(lpszFileName, "r");	//ok

  005d9	68 00 00 00 00	 push	 OFFSET ??_C@_01KDCPPGHE@r?$AA@
  005de	8b 45 08	 mov	 eax, DWORD PTR _lpszFileName$[ebp]
  005e1	50		 push	 eax
  005e2	e8 00 00 00 00	 call	 _fopen
  005e7	83 c4 08	 add	 esp, 8
  005ea	a3 00 00 00 00	 mov	 DWORD PTR _SMDFile, eax

; 98   : 	// ----
; 99   : 	if( !SMDFile )

  005ef	83 3d 00 00 00
	00 00		 cmp	 DWORD PTR _SMDFile, 0
  005f6	75 18		 jne	 SHORT $LN56@LoadLuckyI@2

; 100  : 	{
; 101  : 		MsgBox("MoveCommand %s File Load Error", lpszFileName);	//;D

  005f8	8b 45 08	 mov	 eax, DWORD PTR _lpszFileName$[ebp]
  005fb	50		 push	 eax
  005fc	68 00 00 00 00	 push	 OFFSET ??_C@_0BP@OIMJHLAA@MoveCommand?5?$CFs?5File?5Load?5Error?$AA@
  00601	e8 00 00 00 00	 call	 ?MsgBox@@YAXPADZZ	; MsgBox
  00606	83 c4 08	 add	 esp, 8

; 102  : 		return false;

  00609	33 c0		 xor	 eax, eax
  0060b	e9 e3 05 00 00	 jmp	 $LN57@LoadLuckyI@2
$LN56@LoadLuckyI@2:

; 103  : 	}
; 104  : 	// ----
; 105  : 	SMDToken Token;
; 106  : 	int i 								= 0;

  00610	c7 45 f0 00 00
	00 00		 mov	 DWORD PTR _i$[ebp], 0

; 107  : 	int	iCount							= 0;

  00617	c7 45 ec 00 00
	00 00		 mov	 DWORD PTR _iCount$[ebp], 0

; 108  : 	int iTicketCount					= 0;

  0061e	c7 45 e8 00 00
	00 00		 mov	 DWORD PTR _iTicketCount$[ebp], 0

; 109  : 	this->TicketCount					= 0;

  00625	8b 45 f8	 mov	 eax, DWORD PTR _this$[ebp]
  00628	c7 00 00 00 00
	00		 mov	 DWORD PTR [eax], 0

; 110  : 	_LUCKY_ITEM_INFO LuckyItemInfo[5];

  0062e	68 00 00 00 00	 push	 OFFSET ??0_LUCKY_ITEM_INFO@@QAE@XZ ; _LUCKY_ITEM_INFO::_LUCKY_ITEM_INFO
  00633	6a 05		 push	 5
  00635	68 a4 01 00 00	 push	 420			; 000001a4H
  0063a	8d 85 b4 f7 ff
	ff		 lea	 eax, DWORD PTR _LuckyItemInfo$[ebp]
  00640	50		 push	 eax
  00641	e8 00 00 00 00	 call	 ??_H@YGXPAXIHP6EPAX0@Z@Z
$LN55@LoadLuckyI@2:

; 111  : 	// ----
; 112  : 	while(true)

  00646	b8 01 00 00 00	 mov	 eax, 1
  0064b	85 c0		 test	 eax, eax
  0064d	0f 84 7a 05 00
	00		 je	 $LN54@LoadLuckyI@2

; 113  : 	{
; 114  : 		Token = GetToken();

  00653	e8 00 00 00 00	 call	 ?GetToken@@YA?AW4SMDToken@@XZ ; GetToken
  00658	89 45 f4	 mov	 DWORD PTR _Token$[ebp], eax

; 115  : 		// ----
; 116  : 		if( Token == END )

  0065b	83 7d f4 02	 cmp	 DWORD PTR _Token$[ebp], 2
  0065f	75 05		 jne	 SHORT $LN53@LoadLuckyI@2

; 117  : 		{
; 118  : 			break;

  00661	e9 67 05 00 00	 jmp	 $LN54@LoadLuckyI@2
$LN53@LoadLuckyI@2:

; 119  : 		}
; 120  : 		// ----
; 121  : 		if( Token == NUMBER )

  00666	83 7d f4 01	 cmp	 DWORD PTR _Token$[ebp], 1
  0066a	0f 85 58 05 00
	00		 jne	 $LN5@LoadLuckyI@2

; 122  : 		{
; 123  : 			int Type = TokenNumber;

  00670	d9 05 00 00 00
	00		 fld	 DWORD PTR _TokenNumber
  00676	e8 00 00 00 00	 call	 __ftol2_sse
  0067b	89 85 b0 f7 ff
	ff		 mov	 DWORD PTR _Type$229275[ebp], eax

; 124  : 			// ----
; 125  : 			if( Type == 0 )	//-> Tickets

  00681	83 bd b0 f7 ff
	ff 00		 cmp	 DWORD PTR _Type$229275[ebp], 0
  00688	0f 85 bd 00 00
	00		 jne	 $LN51@LoadLuckyI@2
$LN50@LoadLuckyI@2:

; 126  : 			{
; 127  : 				while(true)

  0068e	b8 01 00 00 00	 mov	 eax, 1
  00693	85 c0		 test	 eax, eax
  00695	0f 84 ab 00 00
	00		 je	 $LN49@LoadLuckyI@2

; 128  : 				{
; 129  : 					Token = GetToken();

  0069b	e8 00 00 00 00	 call	 ?GetToken@@YA?AW4SMDToken@@XZ ; GetToken
  006a0	89 45 f4	 mov	 DWORD PTR _Token$[ebp], eax

; 130  : 					// ----
; 131  : 					if( Token == NAME && !strcmp("end", TokenString) )

  006a3	83 7d f4 00	 cmp	 DWORD PTR _Token$[ebp], 0
  006a7	75 1b		 jne	 SHORT $LN48@LoadLuckyI@2
  006a9	68 00 00 00 00	 push	 OFFSET _TokenString
  006ae	68 00 00 00 00	 push	 OFFSET ??_C@_03JBJLGPFL@end?$AA@
  006b3	e8 00 00 00 00	 call	 _strcmp
  006b8	83 c4 08	 add	 esp, 8
  006bb	85 c0		 test	 eax, eax
  006bd	75 05		 jne	 SHORT $LN48@LoadLuckyI@2

; 132  : 					{
; 133  : 						break;

  006bf	e9 82 00 00 00	 jmp	 $LN49@LoadLuckyI@2
$LN48@LoadLuckyI@2:

; 134  : 					}
; 135  : 					// ----
; 136  : 					int iType	= TokenNumber;

  006c4	d9 05 00 00 00
	00		 fld	 DWORD PTR _TokenNumber
  006ca	e8 00 00 00 00	 call	 __ftol2_sse
  006cf	89 85 ac f7 ff
	ff		 mov	 DWORD PTR _iType$229281[ebp], eax

; 137  : 					Token		= GetToken();		

  006d5	e8 00 00 00 00	 call	 ?GetToken@@YA?AW4SMDToken@@XZ ; GetToken
  006da	89 45 f4	 mov	 DWORD PTR _Token$[ebp], eax

; 138  : 					int iIndex	= TokenNumber;

  006dd	d9 05 00 00 00
	00		 fld	 DWORD PTR _TokenNumber
  006e3	e8 00 00 00 00	 call	 __ftol2_sse
  006e8	89 85 a8 f7 ff
	ff		 mov	 DWORD PTR _iIndex$229282[ebp], eax

; 139  : 					// ----
; 140  : 					LuckyItemInfo[iTicketCount].ItemIndex	= ITEMGET(iType, iIndex);	//Fixed

  006ee	8b 85 ac f7 ff
	ff		 mov	 eax, DWORD PTR _iType$229281[ebp]
  006f4	c1 e0 09	 shl	 eax, 9
  006f7	03 85 a8 f7 ff
	ff		 add	 eax, DWORD PTR _iIndex$229282[ebp]
  006fd	8b 4d e8	 mov	 ecx, DWORD PTR _iTicketCount$[ebp]
  00700	69 c9 a4 01 00
	00		 imul	 ecx, 420		; 000001a4H
  00706	89 84 0d b4 f7
	ff ff		 mov	 DWORD PTR _LuckyItemInfo$[ebp+ecx], eax

; 141  : 					// ----
; 142  : 					Token = GetToken();		

  0070d	e8 00 00 00 00	 call	 ?GetToken@@YA?AW4SMDToken@@XZ ; GetToken
  00712	89 45 f4	 mov	 DWORD PTR _Token$[ebp], eax

; 143  : 					LuckyItemInfo[iTicketCount].ItemKind	= TokenNumber;	//Fixed

  00715	d9 05 00 00 00
	00		 fld	 DWORD PTR _TokenNumber
  0071b	e8 00 00 00 00	 call	 __ftol2_sse
  00720	8b 4d e8	 mov	 ecx, DWORD PTR _iTicketCount$[ebp]
  00723	69 c9 a4 01 00
	00		 imul	 ecx, 420		; 000001a4H
  00729	89 84 0d b8 f7
	ff ff		 mov	 DWORD PTR _LuckyItemInfo$[ebp+ecx+4], eax

; 144  : 					// ----
; 145  : 					iTicketCount++;

  00730	8b 45 e8	 mov	 eax, DWORD PTR _iTicketCount$[ebp]
  00733	83 c0 01	 add	 eax, 1
  00736	89 45 e8	 mov	 DWORD PTR _iTicketCount$[ebp], eax

; 146  : 					// ----
; 147  : 					this->TicketCount = iTicketCount;

  00739	8b 45 f8	 mov	 eax, DWORD PTR _this$[ebp]
  0073c	8b 4d e8	 mov	 ecx, DWORD PTR _iTicketCount$[ebp]
  0073f	89 08		 mov	 DWORD PTR [eax], ecx

; 148  : 				}

  00741	e9 48 ff ff ff	 jmp	 $LN50@LoadLuckyI@2
$LN49@LoadLuckyI@2:

; 149  : 			}
; 150  : 			else if( Type == 2 )	//-> Helm

  00746	e9 7d 04 00 00	 jmp	 $LN5@LoadLuckyI@2
$LN51@LoadLuckyI@2:
  0074b	83 bd b0 f7 ff
	ff 02		 cmp	 DWORD PTR _Type$229275[ebp], 2
  00752	75 26		 jne	 SHORT $LN46@LoadLuckyI@2

; 151  : 			{
; 152  : 				if( !this->LoadLuckyItemEquipment(Type, &LuckyItemInfo[0]) )

  00754	8d 85 b4 f7 ff
	ff		 lea	 eax, DWORD PTR _LuckyItemInfo$[ebp]
  0075a	50		 push	 eax
  0075b	8b 8d b0 f7 ff
	ff		 mov	 ecx, DWORD PTR _Type$229275[ebp]
  00761	51		 push	 ecx
  00762	8b 4d f8	 mov	 ecx, DWORD PTR _this$[ebp]
  00765	e8 00 00 00 00	 call	 ?LoadLuckyItemEquipment@LuckyItemManager@@QAEHHPAU_LUCKY_ITEM_INFO@@@Z ; LuckyItemManager::LoadLuckyItemEquipment
  0076a	85 c0		 test	 eax, eax
  0076c	75 07		 jne	 SHORT $LN45@LoadLuckyI@2

; 153  : 				{
; 154  : 					return false;

  0076e	33 c0		 xor	 eax, eax
  00770	e9 7e 04 00 00	 jmp	 $LN57@LoadLuckyI@2
$LN45@LoadLuckyI@2:

; 155  : 				}
; 156  : 			}

  00775	e9 4e 04 00 00	 jmp	 $LN5@LoadLuckyI@2
$LN46@LoadLuckyI@2:

; 157  : 			else if( Type == 3 )	//-> Armor

  0077a	83 bd b0 f7 ff
	ff 03		 cmp	 DWORD PTR _Type$229275[ebp], 3
  00781	75 26		 jne	 SHORT $LN43@LoadLuckyI@2

; 158  : 			{
; 159  : 				if( !this->LoadLuckyItemEquipment(Type, &LuckyItemInfo[0]) )

  00783	8d 85 b4 f7 ff
	ff		 lea	 eax, DWORD PTR _LuckyItemInfo$[ebp]
  00789	50		 push	 eax
  0078a	8b 8d b0 f7 ff
	ff		 mov	 ecx, DWORD PTR _Type$229275[ebp]
  00790	51		 push	 ecx
  00791	8b 4d f8	 mov	 ecx, DWORD PTR _this$[ebp]
  00794	e8 00 00 00 00	 call	 ?LoadLuckyItemEquipment@LuckyItemManager@@QAEHHPAU_LUCKY_ITEM_INFO@@@Z ; LuckyItemManager::LoadLuckyItemEquipment
  00799	85 c0		 test	 eax, eax
  0079b	75 07		 jne	 SHORT $LN42@LoadLuckyI@2

; 160  : 				{
; 161  : 					return false;

  0079d	33 c0		 xor	 eax, eax
  0079f	e9 4f 04 00 00	 jmp	 $LN57@LoadLuckyI@2
$LN42@LoadLuckyI@2:

; 162  : 				}
; 163  : 			}

  007a4	e9 1f 04 00 00	 jmp	 $LN5@LoadLuckyI@2
$LN43@LoadLuckyI@2:

; 164  : 			else if( Type == 4 )	//-> Pants

  007a9	83 bd b0 f7 ff
	ff 04		 cmp	 DWORD PTR _Type$229275[ebp], 4
  007b0	75 26		 jne	 SHORT $LN40@LoadLuckyI@2

; 165  : 			{
; 166  : 				if( !this->LoadLuckyItemEquipment(Type, &LuckyItemInfo[0]) )

  007b2	8d 85 b4 f7 ff
	ff		 lea	 eax, DWORD PTR _LuckyItemInfo$[ebp]
  007b8	50		 push	 eax
  007b9	8b 8d b0 f7 ff
	ff		 mov	 ecx, DWORD PTR _Type$229275[ebp]
  007bf	51		 push	 ecx
  007c0	8b 4d f8	 mov	 ecx, DWORD PTR _this$[ebp]
  007c3	e8 00 00 00 00	 call	 ?LoadLuckyItemEquipment@LuckyItemManager@@QAEHHPAU_LUCKY_ITEM_INFO@@@Z ; LuckyItemManager::LoadLuckyItemEquipment
  007c8	85 c0		 test	 eax, eax
  007ca	75 07		 jne	 SHORT $LN39@LoadLuckyI@2

; 167  : 				{
; 168  : 					return false;

  007cc	33 c0		 xor	 eax, eax
  007ce	e9 20 04 00 00	 jmp	 $LN57@LoadLuckyI@2
$LN39@LoadLuckyI@2:

; 169  : 				}
; 170  : 			}

  007d3	e9 f0 03 00 00	 jmp	 $LN5@LoadLuckyI@2
$LN40@LoadLuckyI@2:

; 171  : 			else if( Type == 5 )	//-> Gloves

  007d8	83 bd b0 f7 ff
	ff 05		 cmp	 DWORD PTR _Type$229275[ebp], 5
  007df	75 26		 jne	 SHORT $LN37@LoadLuckyI@2

; 172  : 			{
; 173  : 				if( !this->LoadLuckyItemEquipment(Type, &LuckyItemInfo[0]) )

  007e1	8d 85 b4 f7 ff
	ff		 lea	 eax, DWORD PTR _LuckyItemInfo$[ebp]
  007e7	50		 push	 eax
  007e8	8b 8d b0 f7 ff
	ff		 mov	 ecx, DWORD PTR _Type$229275[ebp]
  007ee	51		 push	 ecx
  007ef	8b 4d f8	 mov	 ecx, DWORD PTR _this$[ebp]
  007f2	e8 00 00 00 00	 call	 ?LoadLuckyItemEquipment@LuckyItemManager@@QAEHHPAU_LUCKY_ITEM_INFO@@@Z ; LuckyItemManager::LoadLuckyItemEquipment
  007f7	85 c0		 test	 eax, eax
  007f9	75 07		 jne	 SHORT $LN36@LoadLuckyI@2

; 174  : 				{
; 175  : 					return false;

  007fb	33 c0		 xor	 eax, eax
  007fd	e9 f1 03 00 00	 jmp	 $LN57@LoadLuckyI@2
$LN36@LoadLuckyI@2:

; 176  : 				}
; 177  : 			}

  00802	e9 c1 03 00 00	 jmp	 $LN5@LoadLuckyI@2
$LN37@LoadLuckyI@2:

; 178  : 			else if( Type == 6 )	//-> Boots

  00807	83 bd b0 f7 ff
	ff 06		 cmp	 DWORD PTR _Type$229275[ebp], 6
  0080e	75 26		 jne	 SHORT $LN34@LoadLuckyI@2

; 179  : 			{
; 180  : 				if( !this->LoadLuckyItemEquipment(Type, &LuckyItemInfo[0]) )

  00810	8d 85 b4 f7 ff
	ff		 lea	 eax, DWORD PTR _LuckyItemInfo$[ebp]
  00816	50		 push	 eax
  00817	8b 8d b0 f7 ff
	ff		 mov	 ecx, DWORD PTR _Type$229275[ebp]
  0081d	51		 push	 ecx
  0081e	8b 4d f8	 mov	 ecx, DWORD PTR _this$[ebp]
  00821	e8 00 00 00 00	 call	 ?LoadLuckyItemEquipment@LuckyItemManager@@QAEHHPAU_LUCKY_ITEM_INFO@@@Z ; LuckyItemManager::LoadLuckyItemEquipment
  00826	85 c0		 test	 eax, eax
  00828	75 07		 jne	 SHORT $LN33@LoadLuckyI@2

; 181  : 				{
; 182  : 					return false;

  0082a	33 c0		 xor	 eax, eax
  0082c	e9 c2 03 00 00	 jmp	 $LN57@LoadLuckyI@2
$LN33@LoadLuckyI@2:

; 183  : 				}
; 184  : 			}

  00831	e9 92 03 00 00	 jmp	 $LN5@LoadLuckyI@2
$LN34@LoadLuckyI@2:

; 185  : 			else if( Type == 20 )	//-> ItemLevelRandRate

  00836	83 bd b0 f7 ff
	ff 14		 cmp	 DWORD PTR _Type$229275[ebp], 20 ; 00000014H
  0083d	0f 85 e0 00 00
	00		 jne	 $LN31@LoadLuckyI@2

; 186  : 			{
; 187  : 				iCount = 0;

  00843	c7 45 ec 00 00
	00 00		 mov	 DWORD PTR _iCount$[ebp], 0
$LN30@LoadLuckyI@2:

; 188  : 				// ----
; 189  : 				while(true)

  0084a	b8 01 00 00 00	 mov	 eax, 1
  0084f	85 c0		 test	 eax, eax
  00851	0f 84 c7 00 00
	00		 je	 $LN29@LoadLuckyI@2

; 190  : 				{
; 191  : 					Token = GetToken();

  00857	e8 00 00 00 00	 call	 ?GetToken@@YA?AW4SMDToken@@XZ ; GetToken
  0085c	89 45 f4	 mov	 DWORD PTR _Token$[ebp], eax

; 192  : 					// ----
; 193  : 					if( Token == NAME && !strcmp("end", TokenString) )

  0085f	83 7d f4 00	 cmp	 DWORD PTR _Token$[ebp], 0
  00863	75 1b		 jne	 SHORT $LN28@LoadLuckyI@2
  00865	68 00 00 00 00	 push	 OFFSET _TokenString
  0086a	68 00 00 00 00	 push	 OFFSET ??_C@_03JBJLGPFL@end?$AA@
  0086f	e8 00 00 00 00	 call	 _strcmp
  00874	83 c4 08	 add	 esp, 8
  00877	85 c0		 test	 eax, eax
  00879	75 05		 jne	 SHORT $LN28@LoadLuckyI@2

; 194  : 					{
; 195  : 						break;

  0087b	e9 9e 00 00 00	 jmp	 $LN29@LoadLuckyI@2
$LN28@LoadLuckyI@2:

; 196  : 					}
; 197  : 					// ----
; 198  : 					int iIndex = TokenNumber;

  00880	d9 05 00 00 00
	00		 fld	 DWORD PTR _TokenNumber
  00886	e8 00 00 00 00	 call	 __ftol2_sse
  0088b	89 85 a4 f7 ff
	ff		 mov	 DWORD PTR _iIndex$229304[ebp], eax

; 199  : 					// ----
; 200  : 					for( int i = 0; i < iTicketCount; i++ )

  00891	c7 85 a0 f7 ff
	ff 00 00 00 00	 mov	 DWORD PTR _i$229305[ebp], 0
  0089b	eb 0f		 jmp	 SHORT $LN27@LoadLuckyI@2
$LN26@LoadLuckyI@2:
  0089d	8b 85 a0 f7 ff
	ff		 mov	 eax, DWORD PTR _i$229305[ebp]
  008a3	83 c0 01	 add	 eax, 1
  008a6	89 85 a0 f7 ff
	ff		 mov	 DWORD PTR _i$229305[ebp], eax
$LN27@LoadLuckyI@2:
  008ac	8b 85 a0 f7 ff
	ff		 mov	 eax, DWORD PTR _i$229305[ebp]
  008b2	3b 45 e8	 cmp	 eax, DWORD PTR _iTicketCount$[ebp]
  008b5	7d 62		 jge	 SHORT $LN25@LoadLuckyI@2

; 201  : 					{
; 202  : 						Token = GetToken();		

  008b7	e8 00 00 00 00	 call	 ?GetToken@@YA?AW4SMDToken@@XZ ; GetToken
  008bc	89 45 f4	 mov	 DWORD PTR _Token$[ebp], eax

; 203  : 						LuckyItemInfo[i].m_ItemLevelRandRate[iIndex].m_Level	= TokenNumber;

  008bf	d9 05 00 00 00
	00		 fld	 DWORD PTR _TokenNumber
  008c5	e8 00 00 00 00	 call	 __ftol2_sse
  008ca	8b 8d a0 f7 ff
	ff		 mov	 ecx, DWORD PTR _i$229305[ebp]
  008d0	69 c9 a4 01 00
	00		 imul	 ecx, 420		; 000001a4H
  008d6	8d 94 0d b4 f7
	ff ff		 lea	 edx, DWORD PTR _LuckyItemInfo$[ebp+ecx]
  008dd	8b 8d a4 f7 ff
	ff		 mov	 ecx, DWORD PTR _iIndex$229304[ebp]
  008e3	89 44 ca 20	 mov	 DWORD PTR [edx+ecx*8+32], eax

; 204  : 						// ----
; 205  : 						Token = GetToken();		

  008e7	e8 00 00 00 00	 call	 ?GetToken@@YA?AW4SMDToken@@XZ ; GetToken
  008ec	89 45 f4	 mov	 DWORD PTR _Token$[ebp], eax

; 206  : 						LuckyItemInfo[i].m_ItemLevelRandRate[iIndex].m_Rate		= TokenNumber;

  008ef	d9 05 00 00 00
	00		 fld	 DWORD PTR _TokenNumber
  008f5	e8 00 00 00 00	 call	 __ftol2_sse
  008fa	8b 8d a0 f7 ff
	ff		 mov	 ecx, DWORD PTR _i$229305[ebp]
  00900	69 c9 a4 01 00
	00		 imul	 ecx, 420		; 000001a4H
  00906	8d 94 0d b4 f7
	ff ff		 lea	 edx, DWORD PTR _LuckyItemInfo$[ebp+ecx]
  0090d	8b 8d a4 f7 ff
	ff		 mov	 ecx, DWORD PTR _iIndex$229304[ebp]
  00913	89 44 ca 24	 mov	 DWORD PTR [edx+ecx*8+36], eax

; 207  : 					}

  00917	eb 84		 jmp	 SHORT $LN26@LoadLuckyI@2
$LN25@LoadLuckyI@2:

; 208  : 				}

  00919	e9 2c ff ff ff	 jmp	 $LN30@LoadLuckyI@2
$LN29@LoadLuckyI@2:

; 209  : 			}
; 210  : 			else if( Type == 21 )	//-> AddOpt3Rate

  0091e	e9 a5 02 00 00	 jmp	 $LN5@LoadLuckyI@2
$LN31@LoadLuckyI@2:
  00923	83 bd b0 f7 ff
	ff 15		 cmp	 DWORD PTR _Type$229275[ebp], 21 ; 00000015H
  0092a	0f 85 ad 00 00
	00		 jne	 $LN23@LoadLuckyI@2

; 211  : 			{
; 212  : 				iCount = 0;

  00930	c7 45 ec 00 00
	00 00		 mov	 DWORD PTR _iCount$[ebp], 0
$LN22@LoadLuckyI@2:

; 213  : 				// ----
; 214  : 				while(true)

  00937	b8 01 00 00 00	 mov	 eax, 1
  0093c	85 c0		 test	 eax, eax
  0093e	0f 84 94 00 00
	00		 je	 $LN21@LoadLuckyI@2

; 215  : 				{
; 216  : 					Token = GetToken();

  00944	e8 00 00 00 00	 call	 ?GetToken@@YA?AW4SMDToken@@XZ ; GetToken
  00949	89 45 f4	 mov	 DWORD PTR _Token$[ebp], eax

; 217  : 					// ----
; 218  : 					if( Token == NAME && !strcmp("end", TokenString) )

  0094c	83 7d f4 00	 cmp	 DWORD PTR _Token$[ebp], 0
  00950	75 18		 jne	 SHORT $LN20@LoadLuckyI@2
  00952	68 00 00 00 00	 push	 OFFSET _TokenString
  00957	68 00 00 00 00	 push	 OFFSET ??_C@_03JBJLGPFL@end?$AA@
  0095c	e8 00 00 00 00	 call	 _strcmp
  00961	83 c4 08	 add	 esp, 8
  00964	85 c0		 test	 eax, eax
  00966	75 02		 jne	 SHORT $LN20@LoadLuckyI@2

; 219  : 					{
; 220  : 						break;

  00968	eb 6e		 jmp	 SHORT $LN21@LoadLuckyI@2
$LN20@LoadLuckyI@2:

; 221  : 					}
; 222  : 					// ----
; 223  : 					int iIndex = TokenNumber;

  0096a	d9 05 00 00 00
	00		 fld	 DWORD PTR _TokenNumber
  00970	e8 00 00 00 00	 call	 __ftol2_sse
  00975	89 85 9c f7 ff
	ff		 mov	 DWORD PTR _iIndex$229315[ebp], eax

; 224  : 					// ----
; 225  : 					for( int i = 0; i < iTicketCount; i++ )

  0097b	c7 85 98 f7 ff
	ff 00 00 00 00	 mov	 DWORD PTR _i$229316[ebp], 0
  00985	eb 0f		 jmp	 SHORT $LN19@LoadLuckyI@2
$LN18@LoadLuckyI@2:
  00987	8b 85 98 f7 ff
	ff		 mov	 eax, DWORD PTR _i$229316[ebp]
  0098d	83 c0 01	 add	 eax, 1
  00990	89 85 98 f7 ff
	ff		 mov	 DWORD PTR _i$229316[ebp], eax
$LN19@LoadLuckyI@2:
  00996	8b 85 98 f7 ff
	ff		 mov	 eax, DWORD PTR _i$229316[ebp]
  0099c	3b 45 e8	 cmp	 eax, DWORD PTR _iTicketCount$[ebp]
  0099f	7d 32		 jge	 SHORT $LN17@LoadLuckyI@2

; 226  : 					{
; 227  : 						Token = GetToken();		

  009a1	e8 00 00 00 00	 call	 ?GetToken@@YA?AW4SMDToken@@XZ ; GetToken
  009a6	89 45 f4	 mov	 DWORD PTR _Token$[ebp], eax

; 228  : 						LuckyItemInfo[i].AddOpt3Rate[iIndex] = TokenNumber;

  009a9	d9 05 00 00 00
	00		 fld	 DWORD PTR _TokenNumber
  009af	e8 00 00 00 00	 call	 __ftol2_sse
  009b4	8b 8d 98 f7 ff
	ff		 mov	 ecx, DWORD PTR _i$229316[ebp]
  009ba	69 c9 a4 01 00
	00		 imul	 ecx, 420		; 000001a4H
  009c0	8d 94 0d b4 f7
	ff ff		 lea	 edx, DWORD PTR _LuckyItemInfo$[ebp+ecx]
  009c7	8b 8d 9c f7 ff
	ff		 mov	 ecx, DWORD PTR _iIndex$229315[ebp]
  009cd	89 44 8a 08	 mov	 DWORD PTR [edx+ecx*4+8], eax

; 229  : 					}

  009d1	eb b4		 jmp	 SHORT $LN18@LoadLuckyI@2
$LN17@LoadLuckyI@2:

; 230  : 				}

  009d3	e9 5f ff ff ff	 jmp	 $LN22@LoadLuckyI@2
$LN21@LoadLuckyI@2:

; 231  : 			}
; 232  : 			else if( Type == 22 )	//-> AddSetOptRate

  009d8	e9 eb 01 00 00	 jmp	 $LN5@LoadLuckyI@2
$LN23@LoadLuckyI@2:
  009dd	83 bd b0 f7 ff
	ff 16		 cmp	 DWORD PTR _Type$229275[ebp], 22 ; 00000016H
  009e4	0f 85 ad 00 00
	00		 jne	 $LN15@LoadLuckyI@2

; 233  : 			{
; 234  : 				iCount = 0;

  009ea	c7 45 ec 00 00
	00 00		 mov	 DWORD PTR _iCount$[ebp], 0
$LN14@LoadLuckyI@2:

; 235  : 				// ----
; 236  : 				while(true)

  009f1	b8 01 00 00 00	 mov	 eax, 1
  009f6	85 c0		 test	 eax, eax
  009f8	0f 84 94 00 00
	00		 je	 $LN13@LoadLuckyI@2

; 237  : 				{
; 238  : 					Token = GetToken();

  009fe	e8 00 00 00 00	 call	 ?GetToken@@YA?AW4SMDToken@@XZ ; GetToken
  00a03	89 45 f4	 mov	 DWORD PTR _Token$[ebp], eax

; 239  : 					// -----
; 240  : 					if( Token == NAME && !strcmp("end", TokenString) )

  00a06	83 7d f4 00	 cmp	 DWORD PTR _Token$[ebp], 0
  00a0a	75 18		 jne	 SHORT $LN12@LoadLuckyI@2
  00a0c	68 00 00 00 00	 push	 OFFSET _TokenString
  00a11	68 00 00 00 00	 push	 OFFSET ??_C@_03JBJLGPFL@end?$AA@
  00a16	e8 00 00 00 00	 call	 _strcmp
  00a1b	83 c4 08	 add	 esp, 8
  00a1e	85 c0		 test	 eax, eax
  00a20	75 02		 jne	 SHORT $LN12@LoadLuckyI@2

; 241  : 					{
; 242  : 						break;

  00a22	eb 6e		 jmp	 SHORT $LN13@LoadLuckyI@2
$LN12@LoadLuckyI@2:

; 243  : 					}
; 244  : 					// ----
; 245  : 					int iIndex = TokenNumber;

  00a24	d9 05 00 00 00
	00		 fld	 DWORD PTR _TokenNumber
  00a2a	e8 00 00 00 00	 call	 __ftol2_sse
  00a2f	89 85 94 f7 ff
	ff		 mov	 DWORD PTR _iIndex$229326[ebp], eax

; 246  : 					// ----
; 247  : 					for( int i = 0; i < iTicketCount; i++ )

  00a35	c7 85 90 f7 ff
	ff 00 00 00 00	 mov	 DWORD PTR _i$229327[ebp], 0
  00a3f	eb 0f		 jmp	 SHORT $LN11@LoadLuckyI@2
$LN10@LoadLuckyI@2:
  00a41	8b 85 90 f7 ff
	ff		 mov	 eax, DWORD PTR _i$229327[ebp]
  00a47	83 c0 01	 add	 eax, 1
  00a4a	89 85 90 f7 ff
	ff		 mov	 DWORD PTR _i$229327[ebp], eax
$LN11@LoadLuckyI@2:
  00a50	8b 85 90 f7 ff
	ff		 mov	 eax, DWORD PTR _i$229327[ebp]
  00a56	3b 45 e8	 cmp	 eax, DWORD PTR _iTicketCount$[ebp]
  00a59	7d 32		 jge	 SHORT $LN9@LoadLuckyI@2

; 248  : 					{
; 249  : 						Token = GetToken();		

  00a5b	e8 00 00 00 00	 call	 ?GetToken@@YA?AW4SMDToken@@XZ ; GetToken
  00a60	89 45 f4	 mov	 DWORD PTR _Token$[ebp], eax

; 250  : 						LuckyItemInfo[i].AddSetOptRate[iIndex] = TokenNumber;

  00a63	d9 05 00 00 00
	00		 fld	 DWORD PTR _TokenNumber
  00a69	e8 00 00 00 00	 call	 __ftol2_sse
  00a6e	8b 8d 90 f7 ff
	ff		 mov	 ecx, DWORD PTR _i$229327[ebp]
  00a74	69 c9 a4 01 00
	00		 imul	 ecx, 420		; 000001a4H
  00a7a	8d 94 0d b4 f7
	ff ff		 lea	 edx, DWORD PTR _LuckyItemInfo$[ebp+ecx]
  00a81	8b 8d 94 f7 ff
	ff		 mov	 ecx, DWORD PTR _iIndex$229326[ebp]
  00a87	89 44 8a 18	 mov	 DWORD PTR [edx+ecx*4+24], eax

; 251  : 					}

  00a8b	eb b4		 jmp	 SHORT $LN10@LoadLuckyI@2
$LN9@LoadLuckyI@2:

; 252  : 				}

  00a8d	e9 5f ff ff ff	 jmp	 $LN14@LoadLuckyI@2
$LN13@LoadLuckyI@2:

; 253  : 			}
; 254  : 			else if( Type == 23 )	//-> ItemSmeltRate

  00a92	e9 31 01 00 00	 jmp	 $LN5@LoadLuckyI@2
$LN15@LoadLuckyI@2:
  00a97	83 bd b0 f7 ff
	ff 17		 cmp	 DWORD PTR _Type$229275[ebp], 23 ; 00000017H
  00a9e	0f 85 24 01 00
	00		 jne	 $LN5@LoadLuckyI@2

; 255  : 			{
; 256  : 				iCount = 0;

  00aa4	c7 45 ec 00 00
	00 00		 mov	 DWORD PTR _iCount$[ebp], 0
$LN6@LoadLuckyI@2:

; 257  : 				// -----
; 258  : 				while(true)

  00aab	b8 01 00 00 00	 mov	 eax, 1
  00ab0	85 c0		 test	 eax, eax
  00ab2	0f 84 10 01 00
	00		 je	 $LN5@LoadLuckyI@2

; 259  : 				{
; 260  : 					Token = GetToken();

  00ab8	e8 00 00 00 00	 call	 ?GetToken@@YA?AW4SMDToken@@XZ ; GetToken
  00abd	89 45 f4	 mov	 DWORD PTR _Token$[ebp], eax

; 261  : 					// ----
; 262  : 					if( Token == NAME && !strcmp("end", TokenString) )

  00ac0	83 7d f4 00	 cmp	 DWORD PTR _Token$[ebp], 0
  00ac4	75 1b		 jne	 SHORT $LN4@LoadLuckyI@2
  00ac6	68 00 00 00 00	 push	 OFFSET _TokenString
  00acb	68 00 00 00 00	 push	 OFFSET ??_C@_03JBJLGPFL@end?$AA@
  00ad0	e8 00 00 00 00	 call	 _strcmp
  00ad5	83 c4 08	 add	 esp, 8
  00ad8	85 c0		 test	 eax, eax
  00ada	75 05		 jne	 SHORT $LN4@LoadLuckyI@2

; 263  : 					{
; 264  : 						break;

  00adc	e9 e7 00 00 00	 jmp	 $LN5@LoadLuckyI@2
$LN4@LoadLuckyI@2:

; 265  : 					}
; 266  : 					// ----
; 267  : 					int iIndex = TokenNumber;

  00ae1	d9 05 00 00 00
	00		 fld	 DWORD PTR _TokenNumber
  00ae7	e8 00 00 00 00	 call	 __ftol2_sse
  00aec	89 85 8c f7 ff
	ff		 mov	 DWORD PTR _iIndex$229337[ebp], eax

; 268  : 					// ----
; 269  : 					for( int i = 0; i < iTicketCount; i++ )

  00af2	c7 85 88 f7 ff
	ff 00 00 00 00	 mov	 DWORD PTR _i$229338[ebp], 0
  00afc	eb 0f		 jmp	 SHORT $LN3@LoadLuckyI@2
$LN2@LoadLuckyI@2:
  00afe	8b 85 88 f7 ff
	ff		 mov	 eax, DWORD PTR _i$229338[ebp]
  00b04	83 c0 01	 add	 eax, 1
  00b07	89 85 88 f7 ff
	ff		 mov	 DWORD PTR _i$229338[ebp], eax
$LN3@LoadLuckyI@2:
  00b0d	8b 85 88 f7 ff
	ff		 mov	 eax, DWORD PTR _i$229338[ebp]
  00b13	3b 45 e8	 cmp	 eax, DWORD PTR _iTicketCount$[ebp]
  00b16	0f 8d a7 00 00
	00		 jge	 $LN1@LoadLuckyI@2

; 270  : 					{
; 271  : 						Token = GetToken();		

  00b1c	e8 00 00 00 00	 call	 ?GetToken@@YA?AW4SMDToken@@XZ ; GetToken
  00b21	89 45 f4	 mov	 DWORD PTR _Token$[ebp], eax

; 272  : 						LuckyItemInfo[i].m_ItemSmeltRate[iIndex].MinDur		= TokenNumber;

  00b24	d9 05 00 00 00
	00		 fld	 DWORD PTR _TokenNumber
  00b2a	e8 00 00 00 00	 call	 __ftol2_sse
  00b2f	8b 8d 88 f7 ff
	ff		 mov	 ecx, DWORD PTR _i$229338[ebp]
  00b35	69 c9 a4 01 00
	00		 imul	 ecx, 420		; 000001a4H
  00b3b	8d 94 0d b4 f7
	ff ff		 lea	 edx, DWORD PTR _LuckyItemInfo$[ebp+ecx]
  00b42	8b 8d 8c f7 ff
	ff		 mov	 ecx, DWORD PTR _iIndex$229337[ebp]
  00b48	6b c9 0c	 imul	 ecx, 12			; 0000000cH
  00b4b	89 84 0a 2c 01
	00 00		 mov	 DWORD PTR [edx+ecx+300], eax

; 273  : 						Token = GetToken();		

  00b52	e8 00 00 00 00	 call	 ?GetToken@@YA?AW4SMDToken@@XZ ; GetToken
  00b57	89 45 f4	 mov	 DWORD PTR _Token$[ebp], eax

; 274  : 						LuckyItemInfo[i].m_ItemSmeltRate[iIndex].MaxDur		= TokenNumber;

  00b5a	d9 05 00 00 00
	00		 fld	 DWORD PTR _TokenNumber
  00b60	e8 00 00 00 00	 call	 __ftol2_sse
  00b65	8b 8d 88 f7 ff
	ff		 mov	 ecx, DWORD PTR _i$229338[ebp]
  00b6b	69 c9 a4 01 00
	00		 imul	 ecx, 420		; 000001a4H
  00b71	8d 94 0d b4 f7
	ff ff		 lea	 edx, DWORD PTR _LuckyItemInfo$[ebp+ecx]
  00b78	8b 8d 8c f7 ff
	ff		 mov	 ecx, DWORD PTR _iIndex$229337[ebp]
  00b7e	6b c9 0c	 imul	 ecx, 12			; 0000000cH
  00b81	89 84 0a 30 01
	00 00		 mov	 DWORD PTR [edx+ecx+304], eax

; 275  : 						Token = GetToken();		

  00b88	e8 00 00 00 00	 call	 ?GetToken@@YA?AW4SMDToken@@XZ ; GetToken
  00b8d	89 45 f4	 mov	 DWORD PTR _Token$[ebp], eax

; 276  : 						LuckyItemInfo[i].m_ItemSmeltRate[iIndex].SmeltRate	= TokenNumber;

  00b90	d9 05 00 00 00
	00		 fld	 DWORD PTR _TokenNumber
  00b96	e8 00 00 00 00	 call	 __ftol2_sse
  00b9b	8b 8d 88 f7 ff
	ff		 mov	 ecx, DWORD PTR _i$229338[ebp]
  00ba1	69 c9 a4 01 00
	00		 imul	 ecx, 420		; 000001a4H
  00ba7	8d 94 0d b4 f7
	ff ff		 lea	 edx, DWORD PTR _LuckyItemInfo$[ebp+ecx]
  00bae	8b 8d 8c f7 ff
	ff		 mov	 ecx, DWORD PTR _iIndex$229337[ebp]
  00bb4	6b c9 0c	 imul	 ecx, 12			; 0000000cH
  00bb7	89 84 0a 34 01
	00 00		 mov	 DWORD PTR [edx+ecx+308], eax

; 277  : 					}

  00bbe	e9 3b ff ff ff	 jmp	 $LN2@LoadLuckyI@2
$LN1@LoadLuckyI@2:

; 278  : 				}

  00bc3	e9 e3 fe ff ff	 jmp	 $LN6@LoadLuckyI@2
$LN5@LoadLuckyI@2:

; 279  : 			}
; 280  : 		}
; 281  : 	}

  00bc8	e9 79 fa ff ff	 jmp	 $LN55@LoadLuckyI@2
$LN54@LoadLuckyI@2:

; 282  : 	// ----
; 283  : 	fclose(SMDFile);

  00bcd	a1 00 00 00 00	 mov	 eax, DWORD PTR _SMDFile
  00bd2	50		 push	 eax
  00bd3	e8 00 00 00 00	 call	 _fclose
  00bd8	83 c4 04	 add	 esp, 4

; 284  : 	this->AddLuckyItemInfo(LuckyItemInfo, iTicketCount);

  00bdb	8b 45 e8	 mov	 eax, DWORD PTR _iTicketCount$[ebp]
  00bde	50		 push	 eax
  00bdf	8d 8d b4 f7 ff
	ff		 lea	 ecx, DWORD PTR _LuckyItemInfo$[ebp]
  00be5	51		 push	 ecx
  00be6	8b 4d f8	 mov	 ecx, DWORD PTR _this$[ebp]
  00be9	e8 00 00 00 00	 call	 ?AddLuckyItemInfo@LuckyItemManager@@QAEXPAU_LUCKY_ITEM_INFO@@H@Z ; LuckyItemManager::AddLuckyItemInfo

; 285  : 	// ----
; 286  : #if( LUCKYITEM_DEBUG == 1 )
; 287  : 	LogAddC(2, "[DEBUG] [%s] %s is loaded", __FUNCTION__, lpszFileName);
; 288  : #endif
; 289  : 	// ----
; 290  : 	return true;

  00bee	b8 01 00 00 00	 mov	 eax, 1
$LN57@LoadLuckyI@2:

; 291  : }

  00bf3	5f		 pop	 edi
  00bf4	5e		 pop	 esi
  00bf5	5b		 pop	 ebx
  00bf6	8b 4d fc	 mov	 ecx, DWORD PTR __$ArrayPad$[ebp]
  00bf9	33 cd		 xor	 ecx, ebp
  00bfb	e8 00 00 00 00	 call	 @__security_check_cookie@4
  00c00	8b e5		 mov	 esp, ebp
  00c02	5d		 pop	 ebp
  00c03	c2 04 00	 ret	 4
?LoadLuckyItemInfo@LuckyItemManager@@QAEHPAD@Z ENDP	; LuckyItemManager::LoadLuckyItemInfo
_TEXT	ENDS
PUBLIC	??0_SMELT_RATE@@QAE@XZ				; _SMELT_RATE::_SMELT_RATE
PUBLIC	??0_LUCKY_ITEM_EQUIPMENT@@QAE@XZ		; _LUCKY_ITEM_EQUIPMENT::_LUCKY_ITEM_EQUIPMENT
PUBLIC	??0_ITEM_LEVEL_RATE@@QAE@XZ			; _ITEM_LEVEL_RATE::_ITEM_LEVEL_RATE
EXTRN	_memset:PROC
; Function compile flags: /Odtp /ZI
; File d:\projects\exteam6.3\source\gameserver\gameserver\luckyitem.h
;	COMDAT ??0_LUCKY_ITEM_INFO@@QAE@XZ
_TEXT	SEGMENT
_this$ = -4						; size = 4
??0_LUCKY_ITEM_INFO@@QAE@XZ PROC			; _LUCKY_ITEM_INFO::_LUCKY_ITEM_INFO, COMDAT
; _this$ = ecx

; 80   : 	{

  00000	55		 push	 ebp
  00001	8b ec		 mov	 ebp, esp
  00003	83 ec 44	 sub	 esp, 68			; 00000044H
  00006	53		 push	 ebx
  00007	56		 push	 esi
  00008	57		 push	 edi
  00009	89 4d fc	 mov	 DWORD PTR _this$[ebp], ecx
  0000c	68 00 00 00 00	 push	 OFFSET ??0_ITEM_LEVEL_RATE@@QAE@XZ ; _ITEM_LEVEL_RATE::_ITEM_LEVEL_RATE
  00011	6a 10		 push	 16			; 00000010H
  00013	6a 08		 push	 8
  00015	8b 45 fc	 mov	 eax, DWORD PTR _this$[ebp]
  00018	83 c0 20	 add	 eax, 32			; 00000020H
  0001b	50		 push	 eax
  0001c	e8 00 00 00 00	 call	 ??_H@YGXPAXIHP6EPAX0@Z@Z
  00021	68 00 00 00 00	 push	 OFFSET ??0_LUCKY_ITEM_EQUIPMENT@@QAE@XZ ; _LUCKY_ITEM_EQUIPMENT::_LUCKY_ITEM_EQUIPMENT
  00026	6a 07		 push	 7
  00028	6a 14		 push	 20			; 00000014H
  0002a	8b 45 fc	 mov	 eax, DWORD PTR _this$[ebp]
  0002d	05 a0 00 00 00	 add	 eax, 160		; 000000a0H
  00032	50		 push	 eax
  00033	e8 00 00 00 00	 call	 ??_H@YGXPAXIHP6EPAX0@Z@Z
  00038	68 00 00 00 00	 push	 OFFSET ??0_SMELT_RATE@@QAE@XZ ; _SMELT_RATE::_SMELT_RATE
  0003d	6a 0a		 push	 10			; 0000000aH
  0003f	6a 0c		 push	 12			; 0000000cH
  00041	8b 45 fc	 mov	 eax, DWORD PTR _this$[ebp]
  00044	05 2c 01 00 00	 add	 eax, 300		; 0000012cH
  00049	50		 push	 eax
  0004a	e8 00 00 00 00	 call	 ??_H@YGXPAXIHP6EPAX0@Z@Z

; 81   : 		this->ItemIndex	= -1;

  0004f	8b 45 fc	 mov	 eax, DWORD PTR _this$[ebp]
  00052	c7 00 ff ff ff
	ff		 mov	 DWORD PTR [eax], -1

; 82   : 		this->ItemKind	= -1;

  00058	8b 45 fc	 mov	 eax, DWORD PTR _this$[ebp]
  0005b	c7 40 04 ff ff
	ff ff		 mov	 DWORD PTR [eax+4], -1

; 83   : 		memset(this->AddOpt3Rate, 0, sizeof(AddOpt3Rate));

  00062	6a 10		 push	 16			; 00000010H
  00064	6a 00		 push	 0
  00066	8b 45 fc	 mov	 eax, DWORD PTR _this$[ebp]
  00069	83 c0 08	 add	 eax, 8
  0006c	50		 push	 eax
  0006d	e8 00 00 00 00	 call	 _memset
  00072	83 c4 0c	 add	 esp, 12			; 0000000cH

; 84   : 	}

  00075	8b 45 fc	 mov	 eax, DWORD PTR _this$[ebp]
  00078	5f		 pop	 edi
  00079	5e		 pop	 esi
  0007a	5b		 pop	 ebx
  0007b	8b e5		 mov	 esp, ebp
  0007d	5d		 pop	 ebp
  0007e	c3		 ret	 0
??0_LUCKY_ITEM_INFO@@QAE@XZ ENDP			; _LUCKY_ITEM_INFO::_LUCKY_ITEM_INFO
; Function compile flags: /Odtp /ZI
_TEXT	ENDS
;	COMDAT ??0_ITEM_LEVEL_RATE@@QAE@XZ
_TEXT	SEGMENT
_this$ = -4						; size = 4
??0_ITEM_LEVEL_RATE@@QAE@XZ PROC			; _ITEM_LEVEL_RATE::_ITEM_LEVEL_RATE, COMDAT
; _this$ = ecx

; 28   : 	{

  00000	55		 push	 ebp
  00001	8b ec		 mov	 ebp, esp
  00003	83 ec 44	 sub	 esp, 68			; 00000044H
  00006	53		 push	 ebx
  00007	56		 push	 esi
  00008	57		 push	 edi
  00009	89 4d fc	 mov	 DWORD PTR _this$[ebp], ecx

; 29   : 		this->m_Level	= 0;

  0000c	8b 45 fc	 mov	 eax, DWORD PTR _this$[ebp]
  0000f	c7 00 00 00 00
	00		 mov	 DWORD PTR [eax], 0

; 30   : 		this->m_Rate	= 0;

  00015	8b 45 fc	 mov	 eax, DWORD PTR _this$[ebp]
  00018	c7 40 04 00 00
	00 00		 mov	 DWORD PTR [eax+4], 0

; 31   : 	}

  0001f	8b 45 fc	 mov	 eax, DWORD PTR _this$[ebp]
  00022	5f		 pop	 edi
  00023	5e		 pop	 esi
  00024	5b		 pop	 ebx
  00025	8b e5		 mov	 esp, ebp
  00027	5d		 pop	 ebp
  00028	c3		 ret	 0
??0_ITEM_LEVEL_RATE@@QAE@XZ ENDP			; _ITEM_LEVEL_RATE::_ITEM_LEVEL_RATE
; Function compile flags: /Odtp /ZI
_TEXT	ENDS
;	COMDAT ??0_LUCKY_ITEM_EQUIPMENT@@QAE@XZ
_TEXT	SEGMENT
_this$ = -4						; size = 4
??0_LUCKY_ITEM_EQUIPMENT@@QAE@XZ PROC			; _LUCKY_ITEM_EQUIPMENT::_LUCKY_ITEM_EQUIPMENT, COMDAT
; _this$ = ecx

; 44   : 	{

  00000	55		 push	 ebp
  00001	8b ec		 mov	 ebp, esp
  00003	83 ec 44	 sub	 esp, 68			; 00000044H
  00006	53		 push	 ebx
  00007	56		 push	 esi
  00008	57		 push	 edi
  00009	89 4d fc	 mov	 DWORD PTR _this$[ebp], ecx

; 45   : 		this->m_Index	= -1;

  0000c	8b 45 fc	 mov	 eax, DWORD PTR _this$[ebp]
  0000f	c7 00 ff ff ff
	ff		 mov	 DWORD PTR [eax], -1

; 46   : 		this->m_Skill	= 0;

  00015	8b 45 fc	 mov	 eax, DWORD PTR _this$[ebp]
  00018	c7 40 04 00 00
	00 00		 mov	 DWORD PTR [eax+4], 0

; 47   : 		this->m_Luck	= 0;

  0001f	8b 45 fc	 mov	 eax, DWORD PTR _this$[ebp]
  00022	c7 40 08 00 00
	00 00		 mov	 DWORD PTR [eax+8], 0

; 48   : 		this->m_Option	= 0;

  00029	8b 45 fc	 mov	 eax, DWORD PTR _this$[ebp]
  0002c	c7 40 0c 00 00
	00 00		 mov	 DWORD PTR [eax+12], 0

; 49   : 		this->m_Class	= -1;

  00033	8b 45 fc	 mov	 eax, DWORD PTR _this$[ebp]
  00036	c7 40 10 ff ff
	ff ff		 mov	 DWORD PTR [eax+16], -1

; 50   : 	}

  0003d	8b 45 fc	 mov	 eax, DWORD PTR _this$[ebp]
  00040	5f		 pop	 edi
  00041	5e		 pop	 esi
  00042	5b		 pop	 ebx
  00043	8b e5		 mov	 esp, ebp
  00045	5d		 pop	 ebp
  00046	c3		 ret	 0
??0_LUCKY_ITEM_EQUIPMENT@@QAE@XZ ENDP			; _LUCKY_ITEM_EQUIPMENT::_LUCKY_ITEM_EQUIPMENT
; Function compile flags: /Odtp /ZI
_TEXT	ENDS
;	COMDAT ??0_SMELT_RATE@@QAE@XZ
_TEXT	SEGMENT
_this$ = -4						; size = 4
??0_SMELT_RATE@@QAE@XZ PROC				; _SMELT_RATE::_SMELT_RATE, COMDAT
; _this$ = ecx

; 61   : 	{

  00000	55		 push	 ebp
  00001	8b ec		 mov	 ebp, esp
  00003	83 ec 44	 sub	 esp, 68			; 00000044H
  00006	53		 push	 ebx
  00007	56		 push	 esi
  00008	57		 push	 edi
  00009	89 4d fc	 mov	 DWORD PTR _this$[ebp], ecx

; 62   : 		this->MinDur	= 0;

  0000c	8b 45 fc	 mov	 eax, DWORD PTR _this$[ebp]
  0000f	c7 00 00 00 00
	00		 mov	 DWORD PTR [eax], 0

; 63   : 		this->MaxDur	= 0;

  00015	8b 45 fc	 mov	 eax, DWORD PTR _this$[ebp]
  00018	c7 40 04 00 00
	00 00		 mov	 DWORD PTR [eax+4], 0

; 64   : 		this->SmeltRate	= 0;

  0001f	8b 45 fc	 mov	 eax, DWORD PTR _this$[ebp]
  00022	c7 40 08 00 00
	00 00		 mov	 DWORD PTR [eax+8], 0

; 65   : 	}

  00029	8b 45 fc	 mov	 eax, DWORD PTR _this$[ebp]
  0002c	5f		 pop	 edi
  0002d	5e		 pop	 esi
  0002e	5b		 pop	 ebx
  0002f	8b e5		 mov	 esp, ebp
  00031	5d		 pop	 ebp
  00032	c3		 ret	 0
??0_SMELT_RATE@@QAE@XZ ENDP				; _SMELT_RATE::_SMELT_RATE
_TEXT	ENDS
PUBLIC	??A?$map@HU_LUCKY_ITEM_INFO@@U?$less@H@std@@V?$allocator@U?$pair@$$CBHU_LUCKY_ITEM_INFO@@@std@@@3@@std@@QAEAAU_LUCKY_ITEM_INFO@@ABH@Z ; std::map<int,_LUCKY_ITEM_INFO,std::less<int>,std::allocator<std::pair<int const ,_LUCKY_ITEM_INFO> > >::operator[]
; Function compile flags: /Odtp /ZI
; File d:\projects\exteam6.3\source\gameserver\gameserver\luckyitem.cpp
_TEXT	SEGMENT
_iIndexID$229351 = -12					; size = 4
_i$229347 = -8						; size = 4
_this$ = -4						; size = 4
_pLuckyItemInfo$ = 8					; size = 4
_iItemCnt$ = 12						; size = 4
?AddLuckyItemInfo@LuckyItemManager@@QAEXPAU_LUCKY_ITEM_INFO@@H@Z PROC ; LuckyItemManager::AddLuckyItemInfo
; _this$ = ecx

; 296  : {

  00c10	55		 push	 ebp
  00c11	8b ec		 mov	 ebp, esp
  00c13	83 ec 4c	 sub	 esp, 76			; 0000004cH
  00c16	53		 push	 ebx
  00c17	56		 push	 esi
  00c18	57		 push	 edi
  00c19	89 4d fc	 mov	 DWORD PTR _this$[ebp], ecx

; 297  : #if( LUCKYITEM_DEBUG == 1 )
; 298  : 	LogAddC(2, "[DEBUG] [%s] Start", __FUNCTION__);
; 299  : #endif
; 300  : 	for( int i = 0; i < iItemCnt; i++ )

  00c1c	c7 45 f8 00 00
	00 00		 mov	 DWORD PTR _i$229347[ebp], 0
  00c23	eb 09		 jmp	 SHORT $LN3@AddLuckyIt
$LN2@AddLuckyIt:
  00c25	8b 45 f8	 mov	 eax, DWORD PTR _i$229347[ebp]
  00c28	83 c0 01	 add	 eax, 1
  00c2b	89 45 f8	 mov	 DWORD PTR _i$229347[ebp], eax
$LN3@AddLuckyIt:
  00c2e	8b 45 f8	 mov	 eax, DWORD PTR _i$229347[ebp]
  00c31	3b 45 0c	 cmp	 eax, DWORD PTR _iItemCnt$[ebp]
  00c34	7d 38		 jge	 SHORT $LN4@AddLuckyIt

; 301  : 	{
; 302  : 		int iIndexID = pLuckyItemInfo[i].ItemIndex;

  00c36	8b 45 f8	 mov	 eax, DWORD PTR _i$229347[ebp]
  00c39	69 c0 a4 01 00
	00		 imul	 eax, 420		; 000001a4H
  00c3f	8b 4d 08	 mov	 ecx, DWORD PTR _pLuckyItemInfo$[ebp]
  00c42	8b 14 01	 mov	 edx, DWORD PTR [ecx+eax]
  00c45	89 55 f4	 mov	 DWORD PTR _iIndexID$229351[ebp], edx

; 303  : 		this->LuckyItemInfo[iIndexID] = pLuckyItemInfo[i];

  00c48	8b 75 f8	 mov	 esi, DWORD PTR _i$229347[ebp]
  00c4b	69 f6 a4 01 00
	00		 imul	 esi, 420		; 000001a4H
  00c51	03 75 08	 add	 esi, DWORD PTR _pLuckyItemInfo$[ebp]
  00c54	8d 45 f4	 lea	 eax, DWORD PTR _iIndexID$229351[ebp]
  00c57	50		 push	 eax
  00c58	8b 4d fc	 mov	 ecx, DWORD PTR _this$[ebp]
  00c5b	83 c1 04	 add	 ecx, 4
  00c5e	e8 00 00 00 00	 call	 ??A?$map@HU_LUCKY_ITEM_INFO@@U?$less@H@std@@V?$allocator@U?$pair@$$CBHU_LUCKY_ITEM_INFO@@@std@@@3@@std@@QAEAAU_LUCKY_ITEM_INFO@@ABH@Z ; std::map<int,_LUCKY_ITEM_INFO,std::less<int>,std::allocator<std::pair<int const ,_LUCKY_ITEM_INFO> > >::operator[]
  00c63	b9 69 00 00 00	 mov	 ecx, 105		; 00000069H
  00c68	8b f8		 mov	 edi, eax
  00c6a	f3 a5		 rep movsd

; 304  : 	}

  00c6c	eb b7		 jmp	 SHORT $LN2@AddLuckyIt
$LN4@AddLuckyIt:

; 305  : }

  00c6e	5f		 pop	 edi
  00c6f	5e		 pop	 esi
  00c70	5b		 pop	 ebx
  00c71	8b e5		 mov	 esp, ebp
  00c73	5d		 pop	 ebp
  00c74	c2 08 00	 ret	 8
?AddLuckyItemInfo@LuckyItemManager@@QAEXPAU_LUCKY_ITEM_INFO@@H@Z ENDP ; LuckyItemManager::AddLuckyItemInfo
_TEXT	ENDS
PUBLIC	??C?$_Tree_iterator@V?$_Tree_val@V?$_Tmap_traits@HU_LUCKY_ITEM_INFO@@U?$less@H@std@@V?$allocator@U?$pair@$$CBHU_LUCKY_ITEM_INFO@@@std@@@3@$0A@@std@@@std@@@std@@QBEPAU?$pair@$$CBHU_LUCKY_ITEM_INFO@@@1@XZ ; std::_Tree_iterator<std::_Tree_val<std::_Tmap_traits<int,_LUCKY_ITEM_INFO,std::less<int>,std::allocator<std::pair<int const ,_LUCKY_ITEM_INFO> >,0> > >::operator->
PUBLIC	??8?$_Tree_const_iterator@V?$_Tree_val@V?$_Tmap_traits@HU_LUCKY_ITEM_INFO@@U?$less@H@std@@V?$allocator@U?$pair@$$CBHU_LUCKY_ITEM_INFO@@@std@@@3@$0A@@std@@@std@@@std@@QBE_NABV01@@Z ; std::_Tree_const_iterator<std::_Tree_val<std::_Tmap_traits<int,_LUCKY_ITEM_INFO,std::less<int>,std::allocator<std::pair<int const ,_LUCKY_ITEM_INFO> >,0> > >::operator==
PUBLIC	?end@?$_Tree@V?$_Tmap_traits@HU_LUCKY_ITEM_INFO@@U?$less@H@std@@V?$allocator@U?$pair@$$CBHU_LUCKY_ITEM_INFO@@@std@@@3@$0A@@std@@@std@@QAE?AV?$_Tree_iterator@V?$_Tree_val@V?$_Tmap_traits@HU_LUCKY_ITEM_INFO@@U?$less@H@std@@V?$allocator@U?$pair@$$CBHU_LUCKY_ITEM_INFO@@@std@@@3@$0A@@std@@@std@@@2@XZ ; std::_Tree<std::_Tmap_traits<int,_LUCKY_ITEM_INFO,std::less<int>,std::allocator<std::pair<int const ,_LUCKY_ITEM_INFO> >,0> >::end
PUBLIC	?find@?$_Tree@V?$_Tmap_traits@HU_LUCKY_ITEM_INFO@@U?$less@H@std@@V?$allocator@U?$pair@$$CBHU_LUCKY_ITEM_INFO@@@std@@@3@$0A@@std@@@std@@QAE?AV?$_Tree_iterator@V?$_Tree_val@V?$_Tmap_traits@HU_LUCKY_ITEM_INFO@@U?$less@H@std@@V?$allocator@U?$pair@$$CBHU_LUCKY_ITEM_INFO@@@std@@@3@$0A@@std@@@std@@@2@ABH@Z ; std::_Tree<std::_Tmap_traits<int,_LUCKY_ITEM_INFO,std::less<int>,std::allocator<std::pair<int const ,_LUCKY_ITEM_INFO> >,0> >::find
PUBLIC	?GetLuckyItemInfo@LuckyItemManager@@QAEPAU_LUCKY_ITEM_INFO@@H@Z ; LuckyItemManager::GetLuckyItemInfo
; Function compile flags: /Odtp /ZI
_TEXT	SEGMENT
$T231305 = -76						; size = 4
_Iter$ = -8						; size = 4
_this$ = -4						; size = 4
_iItemNum$ = 8						; size = 4
?GetLuckyItemInfo@LuckyItemManager@@QAEPAU_LUCKY_ITEM_INFO@@H@Z PROC ; LuckyItemManager::GetLuckyItemInfo
; _this$ = ecx

; 310  : {

  00c80	55		 push	 ebp
  00c81	8b ec		 mov	 ebp, esp
  00c83	83 ec 4c	 sub	 esp, 76			; 0000004cH
  00c86	53		 push	 ebx
  00c87	56		 push	 esi
  00c88	57		 push	 edi
  00c89	89 4d fc	 mov	 DWORD PTR _this$[ebp], ecx

; 311  : #if( LUCKYITEM_DEBUG == 1 )
; 312  : 	LogAddC(2, "[DEBUG] [%s] Start", __FUNCTION__);
; 313  : #endif
; 314  : 	std::map<int, _LUCKY_ITEM_INFO>::iterator Iter = this->LuckyItemInfo.find(iItemNum);

  00c8c	8d 45 08	 lea	 eax, DWORD PTR _iItemNum$[ebp]
  00c8f	50		 push	 eax
  00c90	8d 4d f8	 lea	 ecx, DWORD PTR _Iter$[ebp]
  00c93	51		 push	 ecx
  00c94	8b 4d fc	 mov	 ecx, DWORD PTR _this$[ebp]
  00c97	83 c1 04	 add	 ecx, 4
  00c9a	e8 00 00 00 00	 call	 ?find@?$_Tree@V?$_Tmap_traits@HU_LUCKY_ITEM_INFO@@U?$less@H@std@@V?$allocator@U?$pair@$$CBHU_LUCKY_ITEM_INFO@@@std@@@3@$0A@@std@@@std@@QAE?AV?$_Tree_iterator@V?$_Tree_val@V?$_Tmap_traits@HU_LUCKY_ITEM_INFO@@U?$less@H@std@@V?$allocator@U?$pair@$$CBHU_LUCKY_ITEM_INFO@@@std@@@3@$0A@@std@@@std@@@2@ABH@Z ; std::_Tree<std::_Tmap_traits<int,_LUCKY_ITEM_INFO,std::less<int>,std::allocator<std::pair<int const ,_LUCKY_ITEM_INFO> >,0> >::find

; 315  : 	// ----
; 316  : 	if( Iter == LuckyItemInfo.end() )

  00c9f	8d 45 b4	 lea	 eax, DWORD PTR $T231305[ebp]
  00ca2	50		 push	 eax
  00ca3	8b 4d fc	 mov	 ecx, DWORD PTR _this$[ebp]
  00ca6	83 c1 04	 add	 ecx, 4
  00ca9	e8 00 00 00 00	 call	 ?end@?$_Tree@V?$_Tmap_traits@HU_LUCKY_ITEM_INFO@@U?$less@H@std@@V?$allocator@U?$pair@$$CBHU_LUCKY_ITEM_INFO@@@std@@@3@$0A@@std@@@std@@QAE?AV?$_Tree_iterator@V?$_Tree_val@V?$_Tmap_traits@HU_LUCKY_ITEM_INFO@@U?$less@H@std@@V?$allocator@U?$pair@$$CBHU_LUCKY_ITEM_INFO@@@std@@@3@$0A@@std@@@std@@@2@XZ ; std::_Tree<std::_Tmap_traits<int,_LUCKY_ITEM_INFO,std::less<int>,std::allocator<std::pair<int const ,_LUCKY_ITEM_INFO> >,0> >::end
  00cae	50		 push	 eax
  00caf	8d 4d f8	 lea	 ecx, DWORD PTR _Iter$[ebp]
  00cb2	e8 00 00 00 00	 call	 ??8?$_Tree_const_iterator@V?$_Tree_val@V?$_Tmap_traits@HU_LUCKY_ITEM_INFO@@U?$less@H@std@@V?$allocator@U?$pair@$$CBHU_LUCKY_ITEM_INFO@@@std@@@3@$0A@@std@@@std@@@std@@QBE_NABV01@@Z ; std::_Tree_const_iterator<std::_Tree_val<std::_Tmap_traits<int,_LUCKY_ITEM_INFO,std::less<int>,std::allocator<std::pair<int const ,_LUCKY_ITEM_INFO> >,0> > >::operator==
  00cb7	0f b6 c8	 movzx	 ecx, al
  00cba	85 c9		 test	 ecx, ecx
  00cbc	74 04		 je	 SHORT $LN1@GetLuckyIt

; 317  : 	{
; 318  : 		return 0;

  00cbe	33 c0		 xor	 eax, eax
  00cc0	eb 0b		 jmp	 SHORT $LN2@GetLuckyIt
$LN1@GetLuckyIt:

; 319  : 	}
; 320  : 	// ----
; 321  : 	return &Iter->second;

  00cc2	8d 4d f8	 lea	 ecx, DWORD PTR _Iter$[ebp]
  00cc5	e8 00 00 00 00	 call	 ??C?$_Tree_iterator@V?$_Tree_val@V?$_Tmap_traits@HU_LUCKY_ITEM_INFO@@U?$less@H@std@@V?$allocator@U?$pair@$$CBHU_LUCKY_ITEM_INFO@@@std@@@3@$0A@@std@@@std@@@std@@QBEPAU?$pair@$$CBHU_LUCKY_ITEM_INFO@@@1@XZ ; std::_Tree_iterator<std::_Tree_val<std::_Tmap_traits<int,_LUCKY_ITEM_INFO,std::less<int>,std::allocator<std::pair<int const ,_LUCKY_ITEM_INFO> >,0> > >::operator->
  00cca	83 c0 04	 add	 eax, 4
$LN2@GetLuckyIt:

; 322  : }

  00ccd	5f		 pop	 edi
  00cce	5e		 pop	 esi
  00ccf	5b		 pop	 ebx
  00cd0	8b e5		 mov	 esp, ebp
  00cd2	5d		 pop	 ebp
  00cd3	c2 04 00	 ret	 4
?GetLuckyItemInfo@LuckyItemManager@@QAEPAU_LUCKY_ITEM_INFO@@H@Z ENDP ; LuckyItemManager::GetLuckyItemInfo
_TEXT	ENDS
PUBLIC	?GetCharClassLuckyItemInfo@LuckyItemManager@@QAEPAU_LUCKY_ITEM_INFO@@HH@Z ; LuckyItemManager::GetCharClassLuckyItemInfo
; Function compile flags: /Odtp /ZI
_TEXT	SEGMENT
_i$229683 = -12						; size = 4
_pLuckyItemInfo$ = -8					; size = 4
_this$ = -4						; size = 4
_iItemNum$ = 8						; size = 4
_iCharClass$ = 12					; size = 4
?GetCharClassLuckyItemInfo@LuckyItemManager@@QAEPAU_LUCKY_ITEM_INFO@@HH@Z PROC ; LuckyItemManager::GetCharClassLuckyItemInfo
; _this$ = ecx

; 327  : {

  00ce0	55		 push	 ebp
  00ce1	8b ec		 mov	 ebp, esp
  00ce3	83 ec 4c	 sub	 esp, 76			; 0000004cH
  00ce6	53		 push	 ebx
  00ce7	56		 push	 esi
  00ce8	57		 push	 edi
  00ce9	89 4d fc	 mov	 DWORD PTR _this$[ebp], ecx

; 328  : #if( LUCKYITEM_DEBUG == 1 )
; 329  : 	LogAddC(2, "[DEBUG] [%s] Start", __FUNCTION__);
; 330  : #endif
; 331  : 	if( iItemNum < 0 )

  00cec	83 7d 08 00	 cmp	 DWORD PTR _iItemNum$[ebp], 0
  00cf0	7d 04		 jge	 SHORT $LN6@GetCharCla

; 332  : 	{
; 333  : 		return 0;

  00cf2	33 c0		 xor	 eax, eax
  00cf4	eb 4f		 jmp	 SHORT $LN7@GetCharCla
$LN6@GetCharCla:

; 334  : 	}
; 335  : 	// ----
; 336  : 	_LUCKY_ITEM_INFO * pLuckyItemInfo = this->GetLuckyItemInfo(iItemNum);

  00cf6	8b 45 08	 mov	 eax, DWORD PTR _iItemNum$[ebp]
  00cf9	50		 push	 eax
  00cfa	8b 4d fc	 mov	 ecx, DWORD PTR _this$[ebp]
  00cfd	e8 00 00 00 00	 call	 ?GetLuckyItemInfo@LuckyItemManager@@QAEPAU_LUCKY_ITEM_INFO@@H@Z ; LuckyItemManager::GetLuckyItemInfo
  00d02	89 45 f8	 mov	 DWORD PTR _pLuckyItemInfo$[ebp], eax

; 337  : 	// ----
; 338  : 	if( !pLuckyItemInfo )

  00d05	83 7d f8 00	 cmp	 DWORD PTR _pLuckyItemInfo$[ebp], 0
  00d09	75 04		 jne	 SHORT $LN5@GetCharCla

; 339  : 	{
; 340  : 		return 0;

  00d0b	33 c0		 xor	 eax, eax
  00d0d	eb 36		 jmp	 SHORT $LN7@GetCharCla
$LN5@GetCharCla:

; 341  : 	}
; 342  : 	// ----
; 343  : 	for( int i = 0; i < MAX_LUCKYINFO_ITEMEQUIPMENT; i++ )

  00d0f	c7 45 f4 00 00
	00 00		 mov	 DWORD PTR _i$229683[ebp], 0
  00d16	eb 09		 jmp	 SHORT $LN4@GetCharCla
$LN3@GetCharCla:
  00d18	8b 45 f4	 mov	 eax, DWORD PTR _i$229683[ebp]
  00d1b	83 c0 01	 add	 eax, 1
  00d1e	89 45 f4	 mov	 DWORD PTR _i$229683[ebp], eax
$LN4@GetCharCla:
  00d21	83 7d f4 07	 cmp	 DWORD PTR _i$229683[ebp], 7
  00d25	7d 1c		 jge	 SHORT $LN2@GetCharCla

; 344  : 	{
; 345  : 		if( pLuckyItemInfo->m_ItemEquipment[i].m_Class == iCharClass )

  00d27	8b 45 f4	 mov	 eax, DWORD PTR _i$229683[ebp]
  00d2a	6b c0 14	 imul	 eax, 20			; 00000014H
  00d2d	8b 4d f8	 mov	 ecx, DWORD PTR _pLuckyItemInfo$[ebp]
  00d30	8b 94 01 b0 00
	00 00		 mov	 edx, DWORD PTR [ecx+eax+176]
  00d37	3b 55 0c	 cmp	 edx, DWORD PTR _iCharClass$[ebp]
  00d3a	75 05		 jne	 SHORT $LN1@GetCharCla

; 346  : 		{
; 347  : 			return pLuckyItemInfo;

  00d3c	8b 45 f8	 mov	 eax, DWORD PTR _pLuckyItemInfo$[ebp]
  00d3f	eb 04		 jmp	 SHORT $LN7@GetCharCla
$LN1@GetCharCla:

; 348  : 		}
; 349  : 	}

  00d41	eb d5		 jmp	 SHORT $LN3@GetCharCla
$LN2@GetCharCla:

; 350  : 	// ----
; 351  : 	return 0;

  00d43	33 c0		 xor	 eax, eax
$LN7@GetCharCla:

; 352  : }

  00d45	5f		 pop	 edi
  00d46	5e		 pop	 esi
  00d47	5b		 pop	 ebx
  00d48	8b e5		 mov	 esp, ebp
  00d4a	5d		 pop	 ebp
  00d4b	c2 08 00	 ret	 8
?GetCharClassLuckyItemInfo@LuckyItemManager@@QAEPAU_LUCKY_ITEM_INFO@@HH@Z ENDP ; LuckyItemManager::GetCharClassLuckyItemInfo
_TEXT	ENDS
PUBLIC	?GetLuckyItemEquipment@LuckyItemManager@@QAEPAU_LUCKY_ITEM_EQUIPMENT@@PAU_LUCKY_ITEM_INFO@@H@Z ; LuckyItemManager::GetLuckyItemEquipment
; Function compile flags: /Odtp /ZI
_TEXT	SEGMENT
_i$229694 = -8						; size = 4
_this$ = -4						; size = 4
_pLuckyItemInfo$ = 8					; size = 4
_iCharClass$ = 12					; size = 4
?GetLuckyItemEquipment@LuckyItemManager@@QAEPAU_LUCKY_ITEM_EQUIPMENT@@PAU_LUCKY_ITEM_INFO@@H@Z PROC ; LuckyItemManager::GetLuckyItemEquipment
; _this$ = ecx

; 357  : {

  00d50	55		 push	 ebp
  00d51	8b ec		 mov	 ebp, esp
  00d53	83 ec 48	 sub	 esp, 72			; 00000048H
  00d56	53		 push	 ebx
  00d57	56		 push	 esi
  00d58	57		 push	 edi
  00d59	89 4d fc	 mov	 DWORD PTR _this$[ebp], ecx

; 358  : #if( LUCKYITEM_DEBUG == 1 )
; 359  : 	LogAddC(2, "[DEBUG] [%s] Start", __FUNCTION__);
; 360  : #endif
; 361  : 	if( !pLuckyItemInfo )

  00d5c	83 7d 08 00	 cmp	 DWORD PTR _pLuckyItemInfo$[ebp], 0
  00d60	75 04		 jne	 SHORT $LN5@GetLuckyIt@2

; 362  : 	{
; 363  : 		return 0;

  00d62	33 c0		 xor	 eax, eax
  00d64	eb 43		 jmp	 SHORT $LN6@GetLuckyIt@2
$LN5@GetLuckyIt@2:

; 364  : 	}
; 365  : 	// ----
; 366  : 	for( int i = 0; i < MAX_LUCKYINFO_ITEMEQUIPMENT; i++ )

  00d66	c7 45 f8 00 00
	00 00		 mov	 DWORD PTR _i$229694[ebp], 0
  00d6d	eb 09		 jmp	 SHORT $LN4@GetLuckyIt@2
$LN3@GetLuckyIt@2:
  00d6f	8b 45 f8	 mov	 eax, DWORD PTR _i$229694[ebp]
  00d72	83 c0 01	 add	 eax, 1
  00d75	89 45 f8	 mov	 DWORD PTR _i$229694[ebp], eax
$LN4@GetLuckyIt@2:
  00d78	83 7d f8 07	 cmp	 DWORD PTR _i$229694[ebp], 7
  00d7c	7d 29		 jge	 SHORT $LN2@GetLuckyIt@2

; 367  : 	{
; 368  : 		if( pLuckyItemInfo->m_ItemEquipment[i].m_Class == iCharClass )

  00d7e	8b 45 f8	 mov	 eax, DWORD PTR _i$229694[ebp]
  00d81	6b c0 14	 imul	 eax, 20			; 00000014H
  00d84	8b 4d 08	 mov	 ecx, DWORD PTR _pLuckyItemInfo$[ebp]
  00d87	8b 94 01 b0 00
	00 00		 mov	 edx, DWORD PTR [ecx+eax+176]
  00d8e	3b 55 0c	 cmp	 edx, DWORD PTR _iCharClass$[ebp]
  00d91	75 12		 jne	 SHORT $LN1@GetLuckyIt@2

; 369  : 		{
; 370  : 			return &pLuckyItemInfo->m_ItemEquipment[i];

  00d93	8b 45 f8	 mov	 eax, DWORD PTR _i$229694[ebp]
  00d96	6b c0 14	 imul	 eax, 20			; 00000014H
  00d99	8b 4d 08	 mov	 ecx, DWORD PTR _pLuckyItemInfo$[ebp]
  00d9c	8d 84 01 a0 00
	00 00		 lea	 eax, DWORD PTR [ecx+eax+160]
  00da3	eb 04		 jmp	 SHORT $LN6@GetLuckyIt@2
$LN1@GetLuckyIt@2:

; 371  : 		}
; 372  : 	}

  00da5	eb c8		 jmp	 SHORT $LN3@GetLuckyIt@2
$LN2@GetLuckyIt@2:

; 373  : 	// ----
; 374  : 	return 0;

  00da7	33 c0		 xor	 eax, eax
$LN6@GetLuckyIt@2:

; 375  : }

  00da9	5f		 pop	 edi
  00daa	5e		 pop	 esi
  00dab	5b		 pop	 ebx
  00dac	8b e5		 mov	 esp, ebp
  00dae	5d		 pop	 ebp
  00daf	c2 08 00	 ret	 8
?GetLuckyItemEquipment@LuckyItemManager@@QAEPAU_LUCKY_ITEM_EQUIPMENT@@PAU_LUCKY_ITEM_INFO@@H@Z ENDP ; LuckyItemManager::GetLuckyItemEquipment
_TEXT	ENDS
PUBLIC	?IsLuckyItemTicket@LuckyItemManager@@QAEHH@Z	; LuckyItemManager::IsLuckyItemTicket
; Function compile flags: /Odtp /ZI
_TEXT	SEGMENT
$T231309 = -76						; size = 4
_Iter$ = -8						; size = 4
_this$ = -4						; size = 4
_iItemNum$ = 8						; size = 4
?IsLuckyItemTicket@LuckyItemManager@@QAEHH@Z PROC	; LuckyItemManager::IsLuckyItemTicket
; _this$ = ecx

; 380  : {

  00dc0	55		 push	 ebp
  00dc1	8b ec		 mov	 ebp, esp
  00dc3	83 ec 4c	 sub	 esp, 76			; 0000004cH
  00dc6	53		 push	 ebx
  00dc7	56		 push	 esi
  00dc8	57		 push	 edi
  00dc9	89 4d fc	 mov	 DWORD PTR _this$[ebp], ecx

; 381  : #if( LUCKYITEM_DEBUG == 1 )
; 382  : 	LogAddC(2, "[DEBUG] [%s] Start", __FUNCTION__);
; 383  : #endif
; 384  : 	if( iItemNum < 0 )

  00dcc	83 7d 08 00	 cmp	 DWORD PTR _iItemNum$[ebp], 0
  00dd0	7d 04		 jge	 SHORT $LN2@IsLuckyIte

; 385  : 	{
; 386  : 		return false;

  00dd2	33 c0		 xor	 eax, eax
  00dd4	eb 3b		 jmp	 SHORT $LN3@IsLuckyIte
$LN2@IsLuckyIte:

; 387  : 	}
; 388  : 	// ----
; 389  : 	std::map<int, _LUCKY_ITEM_INFO>::iterator Iter = this->LuckyItemInfo.find(iItemNum);

  00dd6	8d 45 08	 lea	 eax, DWORD PTR _iItemNum$[ebp]
  00dd9	50		 push	 eax
  00dda	8d 4d f8	 lea	 ecx, DWORD PTR _Iter$[ebp]
  00ddd	51		 push	 ecx
  00dde	8b 4d fc	 mov	 ecx, DWORD PTR _this$[ebp]
  00de1	83 c1 04	 add	 ecx, 4
  00de4	e8 00 00 00 00	 call	 ?find@?$_Tree@V?$_Tmap_traits@HU_LUCKY_ITEM_INFO@@U?$less@H@std@@V?$allocator@U?$pair@$$CBHU_LUCKY_ITEM_INFO@@@std@@@3@$0A@@std@@@std@@QAE?AV?$_Tree_iterator@V?$_Tree_val@V?$_Tmap_traits@HU_LUCKY_ITEM_INFO@@U?$less@H@std@@V?$allocator@U?$pair@$$CBHU_LUCKY_ITEM_INFO@@@std@@@3@$0A@@std@@@std@@@2@ABH@Z ; std::_Tree<std::_Tmap_traits<int,_LUCKY_ITEM_INFO,std::less<int>,std::allocator<std::pair<int const ,_LUCKY_ITEM_INFO> >,0> >::find

; 390  : 	// ----
; 391  : 	if( Iter == this->LuckyItemInfo.end() )

  00de9	8d 45 b4	 lea	 eax, DWORD PTR $T231309[ebp]
  00dec	50		 push	 eax
  00ded	8b 4d fc	 mov	 ecx, DWORD PTR _this$[ebp]
  00df0	83 c1 04	 add	 ecx, 4
  00df3	e8 00 00 00 00	 call	 ?end@?$_Tree@V?$_Tmap_traits@HU_LUCKY_ITEM_INFO@@U?$less@H@std@@V?$allocator@U?$pair@$$CBHU_LUCKY_ITEM_INFO@@@std@@@3@$0A@@std@@@std@@QAE?AV?$_Tree_iterator@V?$_Tree_val@V?$_Tmap_traits@HU_LUCKY_ITEM_INFO@@U?$less@H@std@@V?$allocator@U?$pair@$$CBHU_LUCKY_ITEM_INFO@@@std@@@3@$0A@@std@@@std@@@2@XZ ; std::_Tree<std::_Tmap_traits<int,_LUCKY_ITEM_INFO,std::less<int>,std::allocator<std::pair<int const ,_LUCKY_ITEM_INFO> >,0> >::end
  00df8	50		 push	 eax
  00df9	8d 4d f8	 lea	 ecx, DWORD PTR _Iter$[ebp]
  00dfc	e8 00 00 00 00	 call	 ??8?$_Tree_const_iterator@V?$_Tree_val@V?$_Tmap_traits@HU_LUCKY_ITEM_INFO@@U?$less@H@std@@V?$allocator@U?$pair@$$CBHU_LUCKY_ITEM_INFO@@@std@@@3@$0A@@std@@@std@@@std@@QBE_NABV01@@Z ; std::_Tree_const_iterator<std::_Tree_val<std::_Tmap_traits<int,_LUCKY_ITEM_INFO,std::less<int>,std::allocator<std::pair<int const ,_LUCKY_ITEM_INFO> >,0> > >::operator==
  00e01	0f b6 c8	 movzx	 ecx, al
  00e04	85 c9		 test	 ecx, ecx
  00e06	74 04		 je	 SHORT $LN1@IsLuckyIte

; 392  : 	{
; 393  : 		return false;

  00e08	33 c0		 xor	 eax, eax
  00e0a	eb 05		 jmp	 SHORT $LN3@IsLuckyIte
$LN1@IsLuckyIte:

; 394  : 	}
; 395  : 	// ----
; 396  : 	return true;

  00e0c	b8 01 00 00 00	 mov	 eax, 1
$LN3@IsLuckyIte:

; 397  : }

  00e11	5f		 pop	 edi
  00e12	5e		 pop	 esi
  00e13	5b		 pop	 ebx
  00e14	8b e5		 mov	 esp, ebp
  00e16	5d		 pop	 ebp
  00e17	c2 04 00	 ret	 4
?IsLuckyItemTicket@LuckyItemManager@@QAEHH@Z ENDP	; LuckyItemManager::IsLuckyItemTicket
_TEXT	ENDS
PUBLIC	??9?$_Tree_const_iterator@V?$_Tree_val@V?$_Tmap_traits@HU_LUCKY_ITEM_INFO@@U?$less@H@std@@V?$allocator@U?$pair@$$CBHU_LUCKY_ITEM_INFO@@@std@@@3@$0A@@std@@@std@@@std@@QBE_NABV01@@Z ; std::_Tree_const_iterator<std::_Tree_val<std::_Tmap_traits<int,_LUCKY_ITEM_INFO,std::less<int>,std::allocator<std::pair<int const ,_LUCKY_ITEM_INFO> >,0> > >::operator!=
PUBLIC	??E?$_Tree_iterator@V?$_Tree_val@V?$_Tmap_traits@HU_LUCKY_ITEM_INFO@@U?$less@H@std@@V?$allocator@U?$pair@$$CBHU_LUCKY_ITEM_INFO@@@std@@@3@$0A@@std@@@std@@@std@@QAE?AV01@H@Z ; std::_Tree_iterator<std::_Tree_val<std::_Tmap_traits<int,_LUCKY_ITEM_INFO,std::less<int>,std::allocator<std::pair<int const ,_LUCKY_ITEM_INFO> >,0> > >::operator++
PUBLIC	?begin@?$_Tree@V?$_Tmap_traits@HU_LUCKY_ITEM_INFO@@U?$less@H@std@@V?$allocator@U?$pair@$$CBHU_LUCKY_ITEM_INFO@@@std@@@3@$0A@@std@@@std@@QAE?AV?$_Tree_iterator@V?$_Tree_val@V?$_Tmap_traits@HU_LUCKY_ITEM_INFO@@U?$less@H@std@@V?$allocator@U?$pair@$$CBHU_LUCKY_ITEM_INFO@@@std@@@3@$0A@@std@@@std@@@2@XZ ; std::_Tree<std::_Tmap_traits<int,_LUCKY_ITEM_INFO,std::less<int>,std::allocator<std::pair<int const ,_LUCKY_ITEM_INFO> >,0> >::begin
PUBLIC	?IsLuckyItemEquipment@LuckyItemManager@@QAEHH@Z	; LuckyItemManager::IsLuckyItemEquipment
; Function compile flags: /Odtp /ZI
_TEXT	SEGMENT
$T231311 = -88						; size = 4
$T231312 = -84						; size = 4
_i$229747 = -16						; size = 4
_pLuckyItemInfo$229746 = -12				; size = 4
_Iter$229739 = -8					; size = 4
_this$ = -4						; size = 4
_iItemNum$ = 8						; size = 4
?IsLuckyItemEquipment@LuckyItemManager@@QAEHH@Z PROC	; LuckyItemManager::IsLuckyItemEquipment
; _this$ = ecx

; 402  : {

  00e20	55		 push	 ebp
  00e21	8b ec		 mov	 ebp, esp
  00e23	83 ec 58	 sub	 esp, 88			; 00000058H
  00e26	53		 push	 ebx
  00e27	56		 push	 esi
  00e28	57		 push	 edi
  00e29	89 4d fc	 mov	 DWORD PTR _this$[ebp], ecx

; 403  : 	if( iItemNum < 0 )

  00e2c	83 7d 08 00	 cmp	 DWORD PTR _iItemNum$[ebp], 0
  00e30	7d 07		 jge	 SHORT $LN8@IsLuckyIte@2

; 404  : 	{
; 405  : 		return false;

  00e32	33 c0		 xor	 eax, eax
  00e34	e9 86 00 00 00	 jmp	 $LN9@IsLuckyIte@2
$LN8@IsLuckyIte@2:

; 406  : 	}
; 407  : 	// ----
; 408  : 	for( std::map<int, _LUCKY_ITEM_INFO>::iterator Iter = this->LuckyItemInfo.begin(); Iter != this->LuckyItemInfo.end(); Iter++ )

  00e39	8d 45 f8	 lea	 eax, DWORD PTR _Iter$229739[ebp]
  00e3c	50		 push	 eax
  00e3d	8b 4d fc	 mov	 ecx, DWORD PTR _this$[ebp]
  00e40	83 c1 04	 add	 ecx, 4
  00e43	e8 00 00 00 00	 call	 ?begin@?$_Tree@V?$_Tmap_traits@HU_LUCKY_ITEM_INFO@@U?$less@H@std@@V?$allocator@U?$pair@$$CBHU_LUCKY_ITEM_INFO@@@std@@@3@$0A@@std@@@std@@QAE?AV?$_Tree_iterator@V?$_Tree_val@V?$_Tmap_traits@HU_LUCKY_ITEM_INFO@@U?$less@H@std@@V?$allocator@U?$pair@$$CBHU_LUCKY_ITEM_INFO@@@std@@@3@$0A@@std@@@std@@@2@XZ ; std::_Tree<std::_Tmap_traits<int,_LUCKY_ITEM_INFO,std::less<int>,std::allocator<std::pair<int const ,_LUCKY_ITEM_INFO> >,0> >::begin
  00e48	eb 0e		 jmp	 SHORT $LN7@IsLuckyIte@2
$LN6@IsLuckyIte@2:
  00e4a	6a 00		 push	 0
  00e4c	8d 45 a8	 lea	 eax, DWORD PTR $T231311[ebp]
  00e4f	50		 push	 eax
  00e50	8d 4d f8	 lea	 ecx, DWORD PTR _Iter$229739[ebp]
  00e53	e8 00 00 00 00	 call	 ??E?$_Tree_iterator@V?$_Tree_val@V?$_Tmap_traits@HU_LUCKY_ITEM_INFO@@U?$less@H@std@@V?$allocator@U?$pair@$$CBHU_LUCKY_ITEM_INFO@@@std@@@3@$0A@@std@@@std@@@std@@QAE?AV01@H@Z ; std::_Tree_iterator<std::_Tree_val<std::_Tmap_traits<int,_LUCKY_ITEM_INFO,std::less<int>,std::allocator<std::pair<int const ,_LUCKY_ITEM_INFO> >,0> > >::operator++
$LN7@IsLuckyIte@2:
  00e58	8d 45 ac	 lea	 eax, DWORD PTR $T231312[ebp]
  00e5b	50		 push	 eax
  00e5c	8b 4d fc	 mov	 ecx, DWORD PTR _this$[ebp]
  00e5f	83 c1 04	 add	 ecx, 4
  00e62	e8 00 00 00 00	 call	 ?end@?$_Tree@V?$_Tmap_traits@HU_LUCKY_ITEM_INFO@@U?$less@H@std@@V?$allocator@U?$pair@$$CBHU_LUCKY_ITEM_INFO@@@std@@@3@$0A@@std@@@std@@QAE?AV?$_Tree_iterator@V?$_Tree_val@V?$_Tmap_traits@HU_LUCKY_ITEM_INFO@@U?$less@H@std@@V?$allocator@U?$pair@$$CBHU_LUCKY_ITEM_INFO@@@std@@@3@$0A@@std@@@std@@@2@XZ ; std::_Tree<std::_Tmap_traits<int,_LUCKY_ITEM_INFO,std::less<int>,std::allocator<std::pair<int const ,_LUCKY_ITEM_INFO> >,0> >::end
  00e67	50		 push	 eax
  00e68	8d 4d f8	 lea	 ecx, DWORD PTR _Iter$229739[ebp]
  00e6b	e8 00 00 00 00	 call	 ??9?$_Tree_const_iterator@V?$_Tree_val@V?$_Tmap_traits@HU_LUCKY_ITEM_INFO@@U?$less@H@std@@V?$allocator@U?$pair@$$CBHU_LUCKY_ITEM_INFO@@@std@@@3@$0A@@std@@@std@@@std@@QBE_NABV01@@Z ; std::_Tree_const_iterator<std::_Tree_val<std::_Tmap_traits<int,_LUCKY_ITEM_INFO,std::less<int>,std::allocator<std::pair<int const ,_LUCKY_ITEM_INFO> >,0> > >::operator!=
  00e70	0f b6 c8	 movzx	 ecx, al
  00e73	85 c9		 test	 ecx, ecx
  00e75	74 46		 je	 SHORT $LN5@IsLuckyIte@2

; 409  : 	{
; 410  : 		_LUCKY_ITEM_INFO * pLuckyItemInfo = &Iter->second;

  00e77	8d 4d f8	 lea	 ecx, DWORD PTR _Iter$229739[ebp]
  00e7a	e8 00 00 00 00	 call	 ??C?$_Tree_iterator@V?$_Tree_val@V?$_Tmap_traits@HU_LUCKY_ITEM_INFO@@U?$less@H@std@@V?$allocator@U?$pair@$$CBHU_LUCKY_ITEM_INFO@@@std@@@3@$0A@@std@@@std@@@std@@QBEPAU?$pair@$$CBHU_LUCKY_ITEM_INFO@@@1@XZ ; std::_Tree_iterator<std::_Tree_val<std::_Tmap_traits<int,_LUCKY_ITEM_INFO,std::less<int>,std::allocator<std::pair<int const ,_LUCKY_ITEM_INFO> >,0> > >::operator->
  00e7f	83 c0 04	 add	 eax, 4
  00e82	89 45 f4	 mov	 DWORD PTR _pLuckyItemInfo$229746[ebp], eax

; 411  : 		// ----
; 412  : 		for( int i = 0; i < MAX_LUCKYINFO_ITEMEQUIPMENT; i++ )

  00e85	c7 45 f0 00 00
	00 00		 mov	 DWORD PTR _i$229747[ebp], 0
  00e8c	eb 09		 jmp	 SHORT $LN4@IsLuckyIte@2
$LN3@IsLuckyIte@2:
  00e8e	8b 45 f0	 mov	 eax, DWORD PTR _i$229747[ebp]
  00e91	83 c0 01	 add	 eax, 1
  00e94	89 45 f0	 mov	 DWORD PTR _i$229747[ebp], eax
$LN4@IsLuckyIte@2:
  00e97	83 7d f0 07	 cmp	 DWORD PTR _i$229747[ebp], 7
  00e9b	7d 1e		 jge	 SHORT $LN2@IsLuckyIte@2

; 413  : 		{
; 414  : 			if( pLuckyItemInfo->m_ItemEquipment[i].m_Index == iItemNum )

  00e9d	8b 45 f0	 mov	 eax, DWORD PTR _i$229747[ebp]
  00ea0	6b c0 14	 imul	 eax, 20			; 00000014H
  00ea3	8b 4d f4	 mov	 ecx, DWORD PTR _pLuckyItemInfo$229746[ebp]
  00ea6	8b 94 01 a0 00
	00 00		 mov	 edx, DWORD PTR [ecx+eax+160]
  00ead	3b 55 08	 cmp	 edx, DWORD PTR _iItemNum$[ebp]
  00eb0	75 07		 jne	 SHORT $LN1@IsLuckyIte@2

; 415  : 			{
; 416  : 				return true;

  00eb2	b8 01 00 00 00	 mov	 eax, 1
  00eb7	eb 06		 jmp	 SHORT $LN9@IsLuckyIte@2
$LN1@IsLuckyIte@2:

; 417  : 			}
; 418  : 		}

  00eb9	eb d3		 jmp	 SHORT $LN3@IsLuckyIte@2
$LN2@IsLuckyIte@2:

; 419  : 	}

  00ebb	eb 8d		 jmp	 SHORT $LN6@IsLuckyIte@2
$LN5@IsLuckyIte@2:

; 420  : 	// ----
; 421  : 	return false;

  00ebd	33 c0		 xor	 eax, eax
$LN9@IsLuckyIte@2:

; 422  : }

  00ebf	5f		 pop	 edi
  00ec0	5e		 pop	 esi
  00ec1	5b		 pop	 ebx
  00ec2	8b e5		 mov	 esp, ebp
  00ec4	5d		 pop	 ebp
  00ec5	c2 04 00	 ret	 4
?IsLuckyItemEquipment@LuckyItemManager@@QAEHH@Z ENDP	; LuckyItemManager::IsLuckyItemEquipment
_TEXT	ENDS
PUBLIC	?GetSmeltingRateInfo@LuckyItemManager@@QAEPAU_SMELT_RATE@@H@Z ; LuckyItemManager::GetSmeltingRateInfo
; Function compile flags: /Odtp /ZI
_TEXT	SEGMENT
$T231314 = -88						; size = 4
$T231315 = -84						; size = 4
_i$229778 = -16						; size = 4
_pLuckyItemInfo$229777 = -12				; size = 4
_Iter$229770 = -8					; size = 4
_this$ = -4						; size = 4
_iItemNum$ = 8						; size = 4
?GetSmeltingRateInfo@LuckyItemManager@@QAEPAU_SMELT_RATE@@H@Z PROC ; LuckyItemManager::GetSmeltingRateInfo
; _this$ = ecx

; 427  : {

  00ed0	55		 push	 ebp
  00ed1	8b ec		 mov	 ebp, esp
  00ed3	83 ec 58	 sub	 esp, 88			; 00000058H
  00ed6	53		 push	 ebx
  00ed7	56		 push	 esi
  00ed8	57		 push	 edi
  00ed9	89 4d fc	 mov	 DWORD PTR _this$[ebp], ecx

; 428  : #if( LUCKYITEM_DEBUG == 1 )
; 429  : 	LogAddC(2, "[DEBUG] [%s] Start", __FUNCTION__);
; 430  : #endif
; 431  : 	if( iItemNum < 0 )

  00edc	83 7d 08 00	 cmp	 DWORD PTR _iItemNum$[ebp], 0
  00ee0	7d 07		 jge	 SHORT $LN8@GetSmeltin

; 432  : 	{
; 433  : 		return false;

  00ee2	33 c0		 xor	 eax, eax
  00ee4	e9 89 00 00 00	 jmp	 $LN9@GetSmeltin
$LN8@GetSmeltin:

; 434  : 	}
; 435  : 	// ----
; 436  : 	for( std::map<int, _LUCKY_ITEM_INFO>::iterator Iter = this->LuckyItemInfo.begin(); Iter != this->LuckyItemInfo.end(); Iter++ )

  00ee9	8d 45 f8	 lea	 eax, DWORD PTR _Iter$229770[ebp]
  00eec	50		 push	 eax
  00eed	8b 4d fc	 mov	 ecx, DWORD PTR _this$[ebp]
  00ef0	83 c1 04	 add	 ecx, 4
  00ef3	e8 00 00 00 00	 call	 ?begin@?$_Tree@V?$_Tmap_traits@HU_LUCKY_ITEM_INFO@@U?$less@H@std@@V?$allocator@U?$pair@$$CBHU_LUCKY_ITEM_INFO@@@std@@@3@$0A@@std@@@std@@QAE?AV?$_Tree_iterator@V?$_Tree_val@V?$_Tmap_traits@HU_LUCKY_ITEM_INFO@@U?$less@H@std@@V?$allocator@U?$pair@$$CBHU_LUCKY_ITEM_INFO@@@std@@@3@$0A@@std@@@std@@@2@XZ ; std::_Tree<std::_Tmap_traits<int,_LUCKY_ITEM_INFO,std::less<int>,std::allocator<std::pair<int const ,_LUCKY_ITEM_INFO> >,0> >::begin
  00ef8	eb 0e		 jmp	 SHORT $LN7@GetSmeltin
$LN6@GetSmeltin:
  00efa	6a 00		 push	 0
  00efc	8d 45 a8	 lea	 eax, DWORD PTR $T231314[ebp]
  00eff	50		 push	 eax
  00f00	8d 4d f8	 lea	 ecx, DWORD PTR _Iter$229770[ebp]
  00f03	e8 00 00 00 00	 call	 ??E?$_Tree_iterator@V?$_Tree_val@V?$_Tmap_traits@HU_LUCKY_ITEM_INFO@@U?$less@H@std@@V?$allocator@U?$pair@$$CBHU_LUCKY_ITEM_INFO@@@std@@@3@$0A@@std@@@std@@@std@@QAE?AV01@H@Z ; std::_Tree_iterator<std::_Tree_val<std::_Tmap_traits<int,_LUCKY_ITEM_INFO,std::less<int>,std::allocator<std::pair<int const ,_LUCKY_ITEM_INFO> >,0> > >::operator++
$LN7@GetSmeltin:
  00f08	8d 45 ac	 lea	 eax, DWORD PTR $T231315[ebp]
  00f0b	50		 push	 eax
  00f0c	8b 4d fc	 mov	 ecx, DWORD PTR _this$[ebp]
  00f0f	83 c1 04	 add	 ecx, 4
  00f12	e8 00 00 00 00	 call	 ?end@?$_Tree@V?$_Tmap_traits@HU_LUCKY_ITEM_INFO@@U?$less@H@std@@V?$allocator@U?$pair@$$CBHU_LUCKY_ITEM_INFO@@@std@@@3@$0A@@std@@@std@@QAE?AV?$_Tree_iterator@V?$_Tree_val@V?$_Tmap_traits@HU_LUCKY_ITEM_INFO@@U?$less@H@std@@V?$allocator@U?$pair@$$CBHU_LUCKY_ITEM_INFO@@@std@@@3@$0A@@std@@@std@@@2@XZ ; std::_Tree<std::_Tmap_traits<int,_LUCKY_ITEM_INFO,std::less<int>,std::allocator<std::pair<int const ,_LUCKY_ITEM_INFO> >,0> >::end
  00f17	50		 push	 eax
  00f18	8d 4d f8	 lea	 ecx, DWORD PTR _Iter$229770[ebp]
  00f1b	e8 00 00 00 00	 call	 ??9?$_Tree_const_iterator@V?$_Tree_val@V?$_Tmap_traits@HU_LUCKY_ITEM_INFO@@U?$less@H@std@@V?$allocator@U?$pair@$$CBHU_LUCKY_ITEM_INFO@@@std@@@3@$0A@@std@@@std@@@std@@QBE_NABV01@@Z ; std::_Tree_const_iterator<std::_Tree_val<std::_Tmap_traits<int,_LUCKY_ITEM_INFO,std::less<int>,std::allocator<std::pair<int const ,_LUCKY_ITEM_INFO> >,0> > >::operator!=
  00f20	0f b6 c8	 movzx	 ecx, al
  00f23	85 c9		 test	 ecx, ecx
  00f25	74 49		 je	 SHORT $LN5@GetSmeltin

; 437  : 	{
; 438  : 		_LUCKY_ITEM_INFO * pLuckyItemInfo = &Iter->second;

  00f27	8d 4d f8	 lea	 ecx, DWORD PTR _Iter$229770[ebp]
  00f2a	e8 00 00 00 00	 call	 ??C?$_Tree_iterator@V?$_Tree_val@V?$_Tmap_traits@HU_LUCKY_ITEM_INFO@@U?$less@H@std@@V?$allocator@U?$pair@$$CBHU_LUCKY_ITEM_INFO@@@std@@@3@$0A@@std@@@std@@@std@@QBEPAU?$pair@$$CBHU_LUCKY_ITEM_INFO@@@1@XZ ; std::_Tree_iterator<std::_Tree_val<std::_Tmap_traits<int,_LUCKY_ITEM_INFO,std::less<int>,std::allocator<std::pair<int const ,_LUCKY_ITEM_INFO> >,0> > >::operator->
  00f2f	83 c0 04	 add	 eax, 4
  00f32	89 45 f4	 mov	 DWORD PTR _pLuckyItemInfo$229777[ebp], eax

; 439  : 		// ----
; 440  : 		for( int i = 0; i < MAX_LUCKYINFO_ITEMEQUIPMENT; i++ )

  00f35	c7 45 f0 00 00
	00 00		 mov	 DWORD PTR _i$229778[ebp], 0
  00f3c	eb 09		 jmp	 SHORT $LN4@GetSmeltin
$LN3@GetSmeltin:
  00f3e	8b 45 f0	 mov	 eax, DWORD PTR _i$229778[ebp]
  00f41	83 c0 01	 add	 eax, 1
  00f44	89 45 f0	 mov	 DWORD PTR _i$229778[ebp], eax
$LN4@GetSmeltin:
  00f47	83 7d f0 07	 cmp	 DWORD PTR _i$229778[ebp], 7
  00f4b	7d 21		 jge	 SHORT $LN2@GetSmeltin

; 441  : 		{
; 442  : 			if( pLuckyItemInfo->m_ItemEquipment[i].m_Index == iItemNum )

  00f4d	8b 45 f0	 mov	 eax, DWORD PTR _i$229778[ebp]
  00f50	6b c0 14	 imul	 eax, 20			; 00000014H
  00f53	8b 4d f4	 mov	 ecx, DWORD PTR _pLuckyItemInfo$229777[ebp]
  00f56	8b 94 01 a0 00
	00 00		 mov	 edx, DWORD PTR [ecx+eax+160]
  00f5d	3b 55 08	 cmp	 edx, DWORD PTR _iItemNum$[ebp]
  00f60	75 0a		 jne	 SHORT $LN1@GetSmeltin

; 443  : 			{
; 444  : #pragma message("##### CHECK ME ######")
; 445  : 				return pLuckyItemInfo->m_ItemSmeltRate;	//-> Need check

  00f62	8b 45 f4	 mov	 eax, DWORD PTR _pLuckyItemInfo$229777[ebp]
  00f65	05 2c 01 00 00	 add	 eax, 300		; 0000012cH
  00f6a	eb 06		 jmp	 SHORT $LN9@GetSmeltin
$LN1@GetSmeltin:

; 446  : 			}
; 447  : 		}

  00f6c	eb d0		 jmp	 SHORT $LN3@GetSmeltin
$LN2@GetSmeltin:

; 448  : 	}

  00f6e	eb 8a		 jmp	 SHORT $LN6@GetSmeltin
$LN5@GetSmeltin:

; 449  : 	// ----
; 450  : 	return false;

  00f70	33 c0		 xor	 eax, eax
$LN9@GetSmeltin:

; 451  : }

  00f72	5f		 pop	 edi
  00f73	5e		 pop	 esi
  00f74	5b		 pop	 ebx
  00f75	8b e5		 mov	 esp, ebp
  00f77	5d		 pop	 ebp
  00f78	c2 04 00	 ret	 4
?GetSmeltingRateInfo@LuckyItemManager@@QAEPAU_SMELT_RATE@@H@Z ENDP ; LuckyItemManager::GetSmeltingRateInfo
_TEXT	ENDS
PUBLIC	??_C@_0IJ@OOLAFCP@?$FLLuckyItem?$FN?5?9?5Exchange?5End?5?$FL?$CFs?$FN?$FL@ ; `string'
PUBLIC	?GambleGetLevel@LuckyItemManager@@QAEEPAU_ITEM_LEVEL_RATE@@H@Z ; LuckyItemManager::GambleGetLevel
PUBLIC	??_C@_0EK@OIMMMNOO@?$FLLuckyItem?$FN?5?9?9?9?5Error?5?9?9?9?5?$FL?$CFs?$FN?$FL?$CF@ ; `string'
PUBLIC	??_C@_0BN@KNMCAILO@?$FLLuckyItem?$FN?5?9?5Exchange?5Start?$AA@ ; `string'
PUBLIC	??_C@_0BK@ICBJMHND@?$FLLuckyItem?$FN?5Item?5Exchange?$AA@ ; `string'
PUBLIC	??_C@_0FD@HLAKIOLI@?$FLLuckyItem?$FN?5?9?5Can?5Not?5be?5Exchang@ ; `string'
PUBLIC	??_C@_0EA@PGOIPKGN@?$FLLuckyItem?$FN?5?9?5Fail?5?9?5Not?5Empty?5I@ ; `string'
PUBLIC	__$ArrayPad$
PUBLIC	?LuckyItemTicketExchange@LuckyItemManager@@QAEXPAUOBJECTSTRUCT@@@Z ; LuckyItemManager::LuckyItemTicketExchange
EXTRN	?gObjInventoryCommit@@YAHH@Z:PROC		; gObjInventoryCommit
EXTRN	_strcat:PROC
EXTRN	_strcpy:PROC
EXTRN	?GetSetOptionName@CSetItemOption@@QAEPADHH@Z:PROC ; CSetItemOption::GetSetOptionName
EXTRN	?ItemSerialCreateSend@@YAXHEEEHEEEEEHEE@Z:PROC	; ItemSerialCreateSend
EXTRN	?GetLargeRand@@YAKXZ:PROC			; GetLargeRand
EXTRN	_rand:PROC
EXTRN	?LuckyItemGenSetOption@CSetItemOption@@QAEHHPAH@Z:PROC ; CSetItemOption::LuckyItemGenSetOption
EXTRN	?gSetItemOption@@3VCSetItemOption@@A:BYTE	; gSetItemOption
EXTRN	?LogChaosItem@CMixSystem@@QAEXPAUOBJECTSTRUCT@@PAD@Z:PROC ; CMixSystem::LogChaosItem
EXTRN	?g_MixSystem@@3VCMixSystem@@A:BYTE		; g_MixSystem
EXTRN	?ItemAttribute@@3PAUITEM_ATTRIBUTE@@A:BYTE	; ItemAttribute
EXTRN	?IsItem@CItem@@QAEHXZ:PROC			; CItem::IsItem
EXTRN	?DataSend@@YAHHPAEK@Z:PROC			; DataSend
EXTRN	?LogAddTD@@3P6AXPADZZA:DWORD			; LogAddTD
EXTRN	?CheckInventoryEmptySpace@@YAHPAUOBJECTSTRUCT@@HH@Z:PROC ; CheckInventoryEmptySpace
EXTRN	?PHeadSetB@@YAXPAEEH@Z:PROC			; PHeadSetB
EXTRN	??0CItem@@QAE@XZ:PROC				; CItem::CItem
EXTRN	_memset:PROC
;	COMDAT ??_C@_0IJ@OOLAFCP@?$FLLuckyItem?$FN?5?9?5Exchange?5End?5?$FL?$CFs?$FN?$FL@
CONST	SEGMENT
??_C@_0IJ@OOLAFCP@?$FLLuckyItem?$FN?5?9?5Exchange?5End?5?$FL?$CFs?$FN?$FL@ DB '['
	DB	'LuckyItem] - Exchange End [%s][%s][%d] ItemName[%s] ItemNum[%'
	DB	'd] Level[%d] Dur[%d] skill[%d] luck[%d] option[%d] ExOpt[%d] '
	DB	'SetOption[%d]', 00H				; `string'
CONST	ENDS
;	COMDAT ??_C@_0EK@OIMMMNOO@?$FLLuckyItem?$FN?5?9?9?9?5Error?5?9?9?9?5?$FL?$CFs?$FN?$FL?$CF@
CONST	SEGMENT
??_C@_0EK@OIMMMNOO@?$FLLuckyItem?$FN?5?9?9?9?5Error?5?9?9?9?5?$FL?$CFs?$FN?$FL?$CF@ DB '['
	DB	'LuckyItem] --- Error --- [%s][%s] CharClass[%d] ItemNum[%d] I'
	DB	'temName[%s]', 00H				; `string'
CONST	ENDS
;	COMDAT ??_C@_0BN@KNMCAILO@?$FLLuckyItem?$FN?5?9?5Exchange?5Start?$AA@
CONST	SEGMENT
??_C@_0BN@KNMCAILO@?$FLLuckyItem?$FN?5?9?5Exchange?5Start?$AA@ DB '[Lucky'
	DB	'Item] - Exchange Start', 00H		; `string'
CONST	ENDS
;	COMDAT ??_C@_0BK@ICBJMHND@?$FLLuckyItem?$FN?5Item?5Exchange?$AA@
CONST	SEGMENT
??_C@_0BK@ICBJMHND@?$FLLuckyItem?$FN?5Item?5Exchange?$AA@ DB '[LuckyItem]'
	DB	' Item Exchange', 00H			; `string'
CONST	ENDS
;	COMDAT ??_C@_0FD@HLAKIOLI@?$FLLuckyItem?$FN?5?9?5Can?5Not?5be?5Exchang@
CONST	SEGMENT
??_C@_0FD@HLAKIOLI@?$FLLuckyItem?$FN?5?9?5Can?5Not?5be?5Exchang@ DB '[Luc'
	DB	'kyItem] - Can Not be Exchanged [%s][%s] CharClass[%d] ItemNum'
	DB	'[%d] ItemName[%s]', 00H			; `string'
CONST	ENDS
;	COMDAT ??_C@_0EA@PGOIPKGN@?$FLLuckyItem?$FN?5?9?5Fail?5?9?5Not?5Empty?5I@
CONST	SEGMENT
??_C@_0EA@PGOIPKGN@?$FLLuckyItem?$FN?5?9?5Fail?5?9?5Not?5Empty?5I@ DB '[L'
	DB	'uckyItem] - Fail - Not Empty Inventory [%s][%s] CharClass[%d]'
	DB	00H						; `string'
; Function compile flags: /Odtp /ZI
CONST	ENDS
_TEXT	SEGMENT
_szSetItemName$ = -380					; size = 48
_tmpSetOption$ = -332					; size = 4
_dwOptionTemp$ = -328					; size = 4
_SetOption$ = -324					; size = 4
_iMaxLv$ = -320						; size = 4
_iMinLv$ = -316						; size = 4
_ExOption$ = -310					; size = 1
_Op3$ = -309						; size = 1
_Op2$ = -308						; size = 1
_Op1$ = -307						; size = 1
_dur$ = -306						; size = 1
_level$ = -305						; size = 1
_Type$ = -304						; size = 4
_iCharType$ = -300					; size = 4
_i$229804 = -296					; size = 4
_iItemWidth$ = -292					; size = 4
_iItemHeight$ = -288					; size = 4
_iItemPos$ = -284					; size = 4
_piAddSetOptRate$ = -280				; size = 8
_pAddOpt3Rate$ = -272					; size = 16
_pLuckyItemEquipment$ = -256				; size = 4
_pItemLevelRandRate$ = -252				; size = 4
_pLuckyItemInfo$ = -248					; size = 4
_pMsg$ = -244						; size = 16
_NewItem$ = -228					; size = 212
_iInvalidItemCount$ = -16				; size = 4
_iValidItemCount$ = -12					; size = 4
_this$ = -8						; size = 4
__$ArrayPad$ = -4					; size = 4
_lpObj$ = 8						; size = 4
?LuckyItemTicketExchange@LuckyItemManager@@QAEXPAUOBJECTSTRUCT@@@Z PROC ; LuckyItemManager::LuckyItemTicketExchange
; _this$ = ecx

; 456  : {

  00f80	55		 push	 ebp
  00f81	8b ec		 mov	 ebp, esp
  00f83	81 ec bc 01 00
	00		 sub	 esp, 444		; 000001bcH
  00f89	a1 00 00 00 00	 mov	 eax, DWORD PTR ___security_cookie
  00f8e	33 c5		 xor	 eax, ebp
  00f90	89 45 fc	 mov	 DWORD PTR __$ArrayPad$[ebp], eax
  00f93	53		 push	 ebx
  00f94	56		 push	 esi
  00f95	57		 push	 edi
  00f96	89 4d f8	 mov	 DWORD PTR _this$[ebp], ecx

; 457  : #if( LUCKYITEM_DEBUG == 1 )
; 458  : 	LogAddC(2, "[DEBUG] [%s] Start", __FUNCTION__);
; 459  : #endif
; 460  : 	int iValidItemCount		= 0;	//ebp-8

  00f99	c7 45 f4 00 00
	00 00		 mov	 DWORD PTR _iValidItemCount$[ebp], 0

; 461  : 	int iInvalidItemCount	= 0;	//ebp-0c

  00fa0	c7 45 f0 00 00
	00 00		 mov	 DWORD PTR _iInvalidItemCount$[ebp], 0

; 462  : 	CItem NewItem;

  00fa7	8d 8d 1c ff ff
	ff		 lea	 ecx, DWORD PTR _NewItem$[ebp]
  00fad	e8 00 00 00 00	 call	 ??0CItem@@QAE@XZ	; CItem::CItem

; 463  : 	// ----
; 464  : 	PMSG_CHAOSMIXRESULT pMsg;
; 465  : 	PHeadSetB((LPBYTE)&pMsg.h, 0x86, sizeof(PMSG_CHAOSMIXRESULT));

  00fb2	6a 10		 push	 16			; 00000010H
  00fb4	68 86 00 00 00	 push	 134			; 00000086H
  00fb9	8d 85 0c ff ff
	ff		 lea	 eax, DWORD PTR _pMsg$[ebp]
  00fbf	50		 push	 eax
  00fc0	e8 00 00 00 00	 call	 ?PHeadSetB@@YAXPAEEH@Z	; PHeadSetB
  00fc5	83 c4 0c	 add	 esp, 12			; 0000000cH

; 466  : 	pMsg.Result = CB_ERROR;

  00fc8	c6 85 0f ff ff
	ff 00		 mov	 BYTE PTR _pMsg$[ebp+3], 0

; 467  : 	// ----
; 468  : 	lpObj->ChaosLock = true;

  00fcf	8b 45 08	 mov	 eax, DWORD PTR _lpObj$[ebp]
  00fd2	c7 80 88 0e 00
	00 01 00 00 00	 mov	 DWORD PTR [eax+3720], 1

; 469  : 	// ----
; 470  : 	_LUCKY_ITEM_INFO * pLuckyItemInfo				= 0;	//ebp-e4

  00fdc	c7 85 08 ff ff
	ff 00 00 00 00	 mov	 DWORD PTR _pLuckyItemInfo$[ebp], 0

; 471  : 	_ITEM_LEVEL_RATE * pItemLevelRandRate			= 0;	//ebp-e8

  00fe6	c7 85 04 ff ff
	ff 00 00 00 00	 mov	 DWORD PTR _pItemLevelRandRate$[ebp], 0

; 472  : 	_LUCKY_ITEM_EQUIPMENT * pLuckyItemEquipment		= 0;	//ebp-ec

  00ff0	c7 85 00 ff ff
	ff 00 00 00 00	 mov	 DWORD PTR _pLuckyItemEquipment$[ebp], 0

; 473  : 	int pAddOpt3Rate[4]								= { 0 };

  00ffa	c7 85 f0 fe ff
	ff 00 00 00 00	 mov	 DWORD PTR _pAddOpt3Rate$[ebp], 0
  01004	33 c0		 xor	 eax, eax
  01006	89 85 f4 fe ff
	ff		 mov	 DWORD PTR _pAddOpt3Rate$[ebp+4], eax
  0100c	89 85 f8 fe ff
	ff		 mov	 DWORD PTR _pAddOpt3Rate$[ebp+8], eax
  01012	89 85 fc fe ff
	ff		 mov	 DWORD PTR _pAddOpt3Rate$[ebp+12], eax

; 474  : 	int piAddSetOptRate[2]							= { 0 };

  01018	c7 85 e8 fe ff
	ff 00 00 00 00	 mov	 DWORD PTR _piAddSetOptRate$[ebp], 0
  01022	33 c0		 xor	 eax, eax
  01024	89 85 ec fe ff
	ff		 mov	 DWORD PTR _piAddSetOptRate$[ebp+4], eax

; 475  : 	int iItemPos									= -1;

  0102a	c7 85 e4 fe ff
	ff ff ff ff ff	 mov	 DWORD PTR _iItemPos$[ebp], -1

; 476  : 	int iItemHeight									= 4;

  01034	c7 85 e0 fe ff
	ff 04 00 00 00	 mov	 DWORD PTR _iItemHeight$[ebp], 4

; 477  : 	int iItemWidth									= 4;

  0103e	c7 85 dc fe ff
	ff 04 00 00 00	 mov	 DWORD PTR _iItemWidth$[ebp], 4

; 478  : 	// ----
; 479  : 	if( !CheckInventoryEmptySpace(lpObj, iItemHeight, iItemWidth) )	//CheckInventoryEmptySpace_

  01048	8b 85 dc fe ff
	ff		 mov	 eax, DWORD PTR _iItemWidth$[ebp]
  0104e	50		 push	 eax
  0104f	8b 8d e0 fe ff
	ff		 mov	 ecx, DWORD PTR _iItemHeight$[ebp]
  01055	51		 push	 ecx
  01056	8b 55 08	 mov	 edx, DWORD PTR _lpObj$[ebp]
  01059	52		 push	 edx
  0105a	e8 00 00 00 00	 call	 ?CheckInventoryEmptySpace@@YAHPAUOBJECTSTRUCT@@HH@Z ; CheckInventoryEmptySpace
  0105f	83 c4 0c	 add	 esp, 12			; 0000000cH
  01062	85 c0		 test	 eax, eax
  01064	75 5d		 jne	 SHORT $LN22@LuckyItemT

; 480  : 	{
; 481  : 		LogAddTD("[LuckyItem] - Fail - Not Empty Inventory [%s][%s] CharClass[%d]", lpObj->AccountID, lpObj->Name, lpObj->Class);

  01066	8b 45 08	 mov	 eax, DWORD PTR _lpObj$[ebp]
  01069	0f b7 88 b8 00
	00 00		 movzx	 ecx, WORD PTR [eax+184]
  01070	51		 push	 ecx
  01071	8b 55 08	 mov	 edx, DWORD PTR _lpObj$[ebp]
  01074	83 c2 77	 add	 edx, 119		; 00000077H
  01077	52		 push	 edx
  01078	8b 45 08	 mov	 eax, DWORD PTR _lpObj$[ebp]
  0107b	83 c0 6c	 add	 eax, 108		; 0000006cH
  0107e	50		 push	 eax
  0107f	68 00 00 00 00	 push	 OFFSET ??_C@_0EA@PGOIPKGN@?$FLLuckyItem?$FN?5?9?5Fail?5?9?5Not?5Empty?5I@
  01084	ff 15 00 00 00
	00		 call	 DWORD PTR ?LogAddTD@@3P6AXPADZZA ; LogAddTD
  0108a	83 c4 10	 add	 esp, 16			; 00000010H

; 482  : 		pMsg.Result = 0xF1;

  0108d	c6 85 0f ff ff
	ff f1		 mov	 BYTE PTR _pMsg$[ebp+3], 241 ; 000000f1H

; 483  : 		DataSend(lpObj->m_Index, (LPBYTE)&pMsg, pMsg.h.size);

  01094	0f b6 85 0d ff
	ff ff		 movzx	 eax, BYTE PTR _pMsg$[ebp+1]
  0109b	50		 push	 eax
  0109c	8d 8d 0c ff ff
	ff		 lea	 ecx, DWORD PTR _pMsg$[ebp]
  010a2	51		 push	 ecx
  010a3	8b 55 08	 mov	 edx, DWORD PTR _lpObj$[ebp]
  010a6	8b 02		 mov	 eax, DWORD PTR [edx]
  010a8	50		 push	 eax
  010a9	e8 00 00 00 00	 call	 ?DataSend@@YAHHPAEK@Z	; DataSend
  010ae	83 c4 0c	 add	 esp, 12			; 0000000cH

; 484  : 		lpObj->ChaosLock = false;

  010b1	8b 45 08	 mov	 eax, DWORD PTR _lpObj$[ebp]
  010b4	c7 80 88 0e 00
	00 00 00 00 00	 mov	 DWORD PTR [eax+3720], 0

; 485  : 		return;

  010be	e9 80 05 00 00	 jmp	 $LN23@LuckyItemT
$LN22@LuckyItemT:

; 486  : 	}
; 487  : 	// ----
; 488  : 	for( int i = 0; i < CHAOS_BOX_SIZE; i++ )

  010c3	c7 85 d8 fe ff
	ff 00 00 00 00	 mov	 DWORD PTR _i$229804[ebp], 0
  010cd	eb 0f		 jmp	 SHORT $LN21@LuckyItemT
$LN20@LuckyItemT:
  010cf	8b 85 d8 fe ff
	ff		 mov	 eax, DWORD PTR _i$229804[ebp]
  010d5	83 c0 01	 add	 eax, 1
  010d8	89 85 d8 fe ff
	ff		 mov	 DWORD PTR _i$229804[ebp], eax
$LN21@LuckyItemT:
  010de	83 bd d8 fe ff
	ff 20		 cmp	 DWORD PTR _i$229804[ebp], 32 ; 00000020H
  010e5	0f 8d 8c 00 00
	00		 jge	 $LN19@LuckyItemT

; 489  : 	{
; 490  : 		if( lpObj->pChaosBox[i].IsItem() )

  010eb	8b 8d d8 fe ff
	ff		 mov	 ecx, DWORD PTR _i$229804[ebp]
  010f1	69 c9 d4 00 00
	00		 imul	 ecx, 212		; 000000d4H
  010f7	8b 45 08	 mov	 eax, DWORD PTR _lpObj$[ebp]
  010fa	03 88 78 0e 00
	00		 add	 ecx, DWORD PTR [eax+3704]
  01100	e8 00 00 00 00	 call	 ?IsItem@CItem@@QAEHXZ	; CItem::IsItem
  01105	85 c0		 test	 eax, eax
  01107	74 69		 je	 SHORT $LN18@LuckyItemT

; 491  : 		{
; 492  : 			pLuckyItemInfo = this->GetCharClassLuckyItemInfo(lpObj->pChaosBox[i].m_Type, lpObj->Class);

  01109	8b 45 08	 mov	 eax, DWORD PTR _lpObj$[ebp]
  0110c	0f b7 88 b8 00
	00 00		 movzx	 ecx, WORD PTR [eax+184]
  01113	51		 push	 ecx
  01114	8b 95 d8 fe ff
	ff		 mov	 edx, DWORD PTR _i$229804[ebp]
  0111a	69 d2 d4 00 00
	00		 imul	 edx, 212		; 000000d4H
  01120	8b 45 08	 mov	 eax, DWORD PTR _lpObj$[ebp]
  01123	8b 88 78 0e 00
	00		 mov	 ecx, DWORD PTR [eax+3704]
  01129	0f bf 54 11 06	 movsx	 edx, WORD PTR [ecx+edx+6]
  0112e	52		 push	 edx
  0112f	8b 4d f8	 mov	 ecx, DWORD PTR _this$[ebp]
  01132	e8 00 00 00 00	 call	 ?GetCharClassLuckyItemInfo@LuckyItemManager@@QAEPAU_LUCKY_ITEM_INFO@@HH@Z ; LuckyItemManager::GetCharClassLuckyItemInfo
  01137	89 85 08 ff ff
	ff		 mov	 DWORD PTR _pLuckyItemInfo$[ebp], eax

; 493  : 			// -----
; 494  : 			if( pLuckyItemInfo == NULL )

  0113d	83 bd 08 ff ff
	ff 00		 cmp	 DWORD PTR _pLuckyItemInfo$[ebp], 0
  01144	75 17		 jne	 SHORT $LN17@LuckyItemT

; 495  : 			{
; 496  : 				iInvalidItemCount++;

  01146	8b 45 f0	 mov	 eax, DWORD PTR _iInvalidItemCount$[ebp]
  01149	83 c0 01	 add	 eax, 1
  0114c	89 45 f0	 mov	 DWORD PTR _iInvalidItemCount$[ebp], eax

; 497  : 				iItemPos = i;

  0114f	8b 85 d8 fe ff
	ff		 mov	 eax, DWORD PTR _i$229804[ebp]
  01155	89 85 e4 fe ff
	ff		 mov	 DWORD PTR _iItemPos$[ebp], eax

; 498  : 			}
; 499  : 			else

  0115b	eb 15		 jmp	 SHORT $LN18@LuckyItemT
$LN17@LuckyItemT:

; 500  : 			{
; 501  : 				iValidItemCount++;

  0115d	8b 45 f4	 mov	 eax, DWORD PTR _iValidItemCount$[ebp]
  01160	83 c0 01	 add	 eax, 1
  01163	89 45 f4	 mov	 DWORD PTR _iValidItemCount$[ebp], eax

; 502  : 				iItemPos = i;

  01166	8b 85 d8 fe ff
	ff		 mov	 eax, DWORD PTR _i$229804[ebp]
  0116c	89 85 e4 fe ff
	ff		 mov	 DWORD PTR _iItemPos$[ebp], eax
$LN18@LuckyItemT:

; 503  : 			}
; 504  : 		}
; 505  : 	}

  01172	e9 58 ff ff ff	 jmp	 $LN20@LuckyItemT
$LN19@LuckyItemT:

; 506  : 	// ----
; 507  : 	if( iValidItemCount != 1 || iInvalidItemCount != 0 || iItemPos == -1 )

  01177	83 7d f4 01	 cmp	 DWORD PTR _iValidItemCount$[ebp], 1
  0117b	75 13		 jne	 SHORT $LN14@LuckyItemT
  0117d	83 7d f0 00	 cmp	 DWORD PTR _iInvalidItemCount$[ebp], 0
  01181	75 0d		 jne	 SHORT $LN14@LuckyItemT
  01183	83 bd e4 fe ff
	ff ff		 cmp	 DWORD PTR _iItemPos$[ebp], -1
  0118a	0f 85 9b 00 00
	00		 jne	 $LN15@LuckyItemT
$LN14@LuckyItemT:

; 508  : 	{
; 509  : 		LogAddTD("[LuckyItem] - Can Not be Exchanged [%s][%s] CharClass[%d] ItemNum[%d] ItemName[%s]", lpObj->AccountID, lpObj->Name, lpObj->Class,
; 510  : 			lpObj->pChaosBox[iItemPos].m_Type, ItemAttribute[lpObj->pChaosBox[iItemPos].m_Type].Name);

  01190	8b 85 e4 fe ff
	ff		 mov	 eax, DWORD PTR _iItemPos$[ebp]
  01196	69 c0 d4 00 00
	00		 imul	 eax, 212		; 000000d4H
  0119c	8b 4d 08	 mov	 ecx, DWORD PTR _lpObj$[ebp]
  0119f	8b 91 78 0e 00
	00		 mov	 edx, DWORD PTR [ecx+3704]
  011a5	0f bf 44 02 06	 movsx	 eax, WORD PTR [edx+eax+6]
  011aa	6b c0 70	 imul	 eax, 112		; 00000070H
  011ad	05 00 00 00 00	 add	 eax, OFFSET ?ItemAttribute@@3PAUITEM_ATTRIBUTE@@A ; ItemAttribute
  011b2	50		 push	 eax
  011b3	8b 8d e4 fe ff
	ff		 mov	 ecx, DWORD PTR _iItemPos$[ebp]
  011b9	69 c9 d4 00 00
	00		 imul	 ecx, 212		; 000000d4H
  011bf	8b 55 08	 mov	 edx, DWORD PTR _lpObj$[ebp]
  011c2	8b 82 78 0e 00
	00		 mov	 eax, DWORD PTR [edx+3704]
  011c8	0f bf 4c 08 06	 movsx	 ecx, WORD PTR [eax+ecx+6]
  011cd	51		 push	 ecx
  011ce	8b 55 08	 mov	 edx, DWORD PTR _lpObj$[ebp]
  011d1	0f b7 82 b8 00
	00 00		 movzx	 eax, WORD PTR [edx+184]
  011d8	50		 push	 eax
  011d9	8b 4d 08	 mov	 ecx, DWORD PTR _lpObj$[ebp]
  011dc	83 c1 77	 add	 ecx, 119		; 00000077H
  011df	51		 push	 ecx
  011e0	8b 55 08	 mov	 edx, DWORD PTR _lpObj$[ebp]
  011e3	83 c2 6c	 add	 edx, 108		; 0000006cH
  011e6	52		 push	 edx
  011e7	68 00 00 00 00	 push	 OFFSET ??_C@_0FD@HLAKIOLI@?$FLLuckyItem?$FN?5?9?5Can?5Not?5be?5Exchang@
  011ec	ff 15 00 00 00
	00		 call	 DWORD PTR ?LogAddTD@@3P6AXPADZZA ; LogAddTD
  011f2	83 c4 18	 add	 esp, 24			; 00000018H

; 511  : 		pMsg.Result = 0x20;

  011f5	c6 85 0f ff ff
	ff 20		 mov	 BYTE PTR _pMsg$[ebp+3], 32 ; 00000020H

; 512  : 		DataSend(lpObj->m_Index, (LPBYTE)&pMsg, pMsg.h.size);

  011fc	0f b6 85 0d ff
	ff ff		 movzx	 eax, BYTE PTR _pMsg$[ebp+1]
  01203	50		 push	 eax
  01204	8d 8d 0c ff ff
	ff		 lea	 ecx, DWORD PTR _pMsg$[ebp]
  0120a	51		 push	 ecx
  0120b	8b 55 08	 mov	 edx, DWORD PTR _lpObj$[ebp]
  0120e	8b 02		 mov	 eax, DWORD PTR [edx]
  01210	50		 push	 eax
  01211	e8 00 00 00 00	 call	 ?DataSend@@YAHHPAEK@Z	; DataSend
  01216	83 c4 0c	 add	 esp, 12			; 0000000cH

; 513  : 		lpObj->ChaosLock = false;

  01219	8b 45 08	 mov	 eax, DWORD PTR _lpObj$[ebp]
  0121c	c7 80 88 0e 00
	00 00 00 00 00	 mov	 DWORD PTR [eax+3720], 0

; 514  : 		return;

  01226	e9 18 04 00 00	 jmp	 $LN23@LuckyItemT
$LN15@LuckyItemT:

; 515  : 	}
; 516  : 	// ----
; 517  : 	g_MixSystem.LogChaosItem(lpObj, "[LuckyItem] Item Exchange");

  0122b	68 00 00 00 00	 push	 OFFSET ??_C@_0BK@ICBJMHND@?$FLLuckyItem?$FN?5Item?5Exchange?$AA@
  01230	8b 45 08	 mov	 eax, DWORD PTR _lpObj$[ebp]
  01233	50		 push	 eax
  01234	b9 00 00 00 00	 mov	 ecx, OFFSET ?g_MixSystem@@3VCMixSystem@@A ; g_MixSystem
  01239	e8 00 00 00 00	 call	 ?LogChaosItem@CMixSystem@@QAEXPAUOBJECTSTRUCT@@PAD@Z ; CMixSystem::LogChaosItem

; 518  : 	LogAddTD("[LuckyItem] - Exchange Start");

  0123e	68 00 00 00 00	 push	 OFFSET ??_C@_0BN@KNMCAILO@?$FLLuckyItem?$FN?5?9?5Exchange?5Start?$AA@
  01243	ff 15 00 00 00
	00		 call	 DWORD PTR ?LogAddTD@@3P6AXPADZZA ; LogAddTD
  01249	83 c4 04	 add	 esp, 4

; 519  : 	// ----
; 520  : 	int	iCharType		= 0;

  0124c	c7 85 d4 fe ff
	ff 00 00 00 00	 mov	 DWORD PTR _iCharType$[ebp], 0

; 521  : 	int Type			= 0;

  01256	c7 85 d0 fe ff
	ff 00 00 00 00	 mov	 DWORD PTR _Type$[ebp], 0

; 522  : 	BYTE level			= 0;

  01260	c6 85 cf fe ff
	ff 00		 mov	 BYTE PTR _level$[ebp], 0

; 523  : 	BYTE dur			= 0xFF;

  01267	c6 85 ce fe ff
	ff ff		 mov	 BYTE PTR _dur$[ebp], 255 ; 000000ffH

; 524  : 	BYTE Op1			= 0;

  0126e	c6 85 cd fe ff
	ff 00		 mov	 BYTE PTR _Op1$[ebp], 0

; 525  : 	BYTE Op2			= 0;

  01275	c6 85 cc fe ff
	ff 00		 mov	 BYTE PTR _Op2$[ebp], 0

; 526  : 	BYTE Op3			= 0;

  0127c	c6 85 cb fe ff
	ff 00		 mov	 BYTE PTR _Op3$[ebp], 0

; 527  : 	BYTE ExOption		= 0;

  01283	c6 85 ca fe ff
	ff 00		 mov	 BYTE PTR _ExOption$[ebp], 0

; 528  : 	int iMinLv			= 0;

  0128a	c7 85 c4 fe ff
	ff 00 00 00 00	 mov	 DWORD PTR _iMinLv$[ebp], 0

; 529  : 	int iMaxLv			= 0;

  01294	c7 85 c0 fe ff
	ff 00 00 00 00	 mov	 DWORD PTR _iMaxLv$[ebp], 0

; 530  : 	int SetOption		= 0;

  0129e	c7 85 bc fe ff
	ff 00 00 00 00	 mov	 DWORD PTR _SetOption$[ebp], 0

; 531  : 	pItemLevelRandRate	= pLuckyItemInfo->m_ItemLevelRandRate;

  012a8	8b 85 08 ff ff
	ff		 mov	 eax, DWORD PTR _pLuckyItemInfo$[ebp]
  012ae	83 c0 20	 add	 eax, 32			; 00000020H
  012b1	89 85 04 ff ff
	ff		 mov	 DWORD PTR _pItemLevelRandRate$[ebp], eax

; 532  : 	pLuckyItemEquipment = this->GetLuckyItemEquipment(pLuckyItemInfo, lpObj->Class);

  012b7	8b 45 08	 mov	 eax, DWORD PTR _lpObj$[ebp]
  012ba	0f b7 88 b8 00
	00 00		 movzx	 ecx, WORD PTR [eax+184]
  012c1	51		 push	 ecx
  012c2	8b 95 08 ff ff
	ff		 mov	 edx, DWORD PTR _pLuckyItemInfo$[ebp]
  012c8	52		 push	 edx
  012c9	8b 4d f8	 mov	 ecx, DWORD PTR _this$[ebp]
  012cc	e8 00 00 00 00	 call	 ?GetLuckyItemEquipment@LuckyItemManager@@QAEPAU_LUCKY_ITEM_EQUIPMENT@@PAU_LUCKY_ITEM_INFO@@H@Z ; LuckyItemManager::GetLuckyItemEquipment
  012d1	89 85 00 ff ff
	ff		 mov	 DWORD PTR _pLuckyItemEquipment$[ebp], eax

; 533  : 	pAddOpt3Rate[0]		= pLuckyItemInfo->AddOpt3Rate[0];

  012d7	8b 85 08 ff ff
	ff		 mov	 eax, DWORD PTR _pLuckyItemInfo$[ebp]
  012dd	8b 48 08	 mov	 ecx, DWORD PTR [eax+8]
  012e0	89 8d f0 fe ff
	ff		 mov	 DWORD PTR _pAddOpt3Rate$[ebp], ecx

; 534  : 	piAddSetOptRate[0]	= pLuckyItemInfo->AddSetOptRate[0];

  012e6	8b 85 08 ff ff
	ff		 mov	 eax, DWORD PTR _pLuckyItemInfo$[ebp]
  012ec	8b 48 18	 mov	 ecx, DWORD PTR [eax+24]
  012ef	89 8d e8 fe ff
	ff		 mov	 DWORD PTR _piAddSetOptRate$[ebp], ecx

; 535  : 	// ----
; 536  : 	if( pLuckyItemEquipment == 0 || pItemLevelRandRate == 0 || piAddSetOptRate == 0 || pAddOpt3Rate	== 0 )

  012f5	83 bd 00 ff ff
	ff 00		 cmp	 DWORD PTR _pLuckyItemEquipment$[ebp], 0
  012fc	74 21		 je	 SHORT $LN12@LuckyItemT
  012fe	83 bd 04 ff ff
	ff 00		 cmp	 DWORD PTR _pItemLevelRandRate$[ebp], 0
  01305	74 18		 je	 SHORT $LN12@LuckyItemT
  01307	8d 85 e8 fe ff
	ff		 lea	 eax, DWORD PTR _piAddSetOptRate$[ebp]
  0130d	85 c0		 test	 eax, eax
  0130f	74 0e		 je	 SHORT $LN12@LuckyItemT
  01311	8d 85 f0 fe ff
	ff		 lea	 eax, DWORD PTR _pAddOpt3Rate$[ebp]
  01317	85 c0		 test	 eax, eax
  01319	0f 85 94 00 00
	00		 jne	 $LN13@LuckyItemT
$LN12@LuckyItemT:

; 537  : 	{
; 538  : 		LogAddTD("[LuckyItem] --- Error --- [%s][%s] CharClass[%d] ItemNum[%d] ItemName[%s]", lpObj->AccountID, lpObj->Name, lpObj->Class,
; 539  : 			lpObj->pChaosBox[iItemPos].m_Type, ItemAttribute[lpObj->pChaosBox[iItemPos].m_Type].Name);

  0131f	8b 85 e4 fe ff
	ff		 mov	 eax, DWORD PTR _iItemPos$[ebp]
  01325	69 c0 d4 00 00
	00		 imul	 eax, 212		; 000000d4H
  0132b	8b 4d 08	 mov	 ecx, DWORD PTR _lpObj$[ebp]
  0132e	8b 91 78 0e 00
	00		 mov	 edx, DWORD PTR [ecx+3704]
  01334	0f bf 44 02 06	 movsx	 eax, WORD PTR [edx+eax+6]
  01339	6b c0 70	 imul	 eax, 112		; 00000070H
  0133c	05 00 00 00 00	 add	 eax, OFFSET ?ItemAttribute@@3PAUITEM_ATTRIBUTE@@A ; ItemAttribute
  01341	50		 push	 eax
  01342	8b 8d e4 fe ff
	ff		 mov	 ecx, DWORD PTR _iItemPos$[ebp]
  01348	69 c9 d4 00 00
	00		 imul	 ecx, 212		; 000000d4H
  0134e	8b 55 08	 mov	 edx, DWORD PTR _lpObj$[ebp]
  01351	8b 82 78 0e 00
	00		 mov	 eax, DWORD PTR [edx+3704]
  01357	0f bf 4c 08 06	 movsx	 ecx, WORD PTR [eax+ecx+6]
  0135c	51		 push	 ecx
  0135d	8b 55 08	 mov	 edx, DWORD PTR _lpObj$[ebp]
  01360	0f b7 82 b8 00
	00 00		 movzx	 eax, WORD PTR [edx+184]
  01367	50		 push	 eax
  01368	8b 4d 08	 mov	 ecx, DWORD PTR _lpObj$[ebp]
  0136b	83 c1 77	 add	 ecx, 119		; 00000077H
  0136e	51		 push	 ecx
  0136f	8b 55 08	 mov	 edx, DWORD PTR _lpObj$[ebp]
  01372	83 c2 6c	 add	 edx, 108		; 0000006cH
  01375	52		 push	 edx
  01376	68 00 00 00 00	 push	 OFFSET ??_C@_0EK@OIMMMNOO@?$FLLuckyItem?$FN?5?9?9?9?5Error?5?9?9?9?5?$FL?$CFs?$FN?$FL?$CF@
  0137b	ff 15 00 00 00
	00		 call	 DWORD PTR ?LogAddTD@@3P6AXPADZZA ; LogAddTD
  01381	83 c4 18	 add	 esp, 24			; 00000018H

; 540  : 		DataSend(lpObj->m_Index, (LPBYTE)&pMsg, pMsg.h.size);

  01384	0f b6 85 0d ff
	ff ff		 movzx	 eax, BYTE PTR _pMsg$[ebp+1]
  0138b	50		 push	 eax
  0138c	8d 8d 0c ff ff
	ff		 lea	 ecx, DWORD PTR _pMsg$[ebp]
  01392	51		 push	 ecx
  01393	8b 55 08	 mov	 edx, DWORD PTR _lpObj$[ebp]
  01396	8b 02		 mov	 eax, DWORD PTR [edx]
  01398	50		 push	 eax
  01399	e8 00 00 00 00	 call	 ?DataSend@@YAHHPAEK@Z	; DataSend
  0139e	83 c4 0c	 add	 esp, 12			; 0000000cH

; 541  : 		lpObj->ChaosLock = false;

  013a1	8b 45 08	 mov	 eax, DWORD PTR _lpObj$[ebp]
  013a4	c7 80 88 0e 00
	00 00 00 00 00	 mov	 DWORD PTR [eax+3720], 0

; 542  : 		return;

  013ae	e9 90 02 00 00	 jmp	 $LN23@LuckyItemT
$LN13@LuckyItemT:

; 543  : 	}
; 544  : 	// ----
; 545  : 	Type		= pLuckyItemEquipment->m_Index;

  013b3	8b 85 00 ff ff
	ff		 mov	 eax, DWORD PTR _pLuckyItemEquipment$[ebp]
  013b9	8b 08		 mov	 ecx, DWORD PTR [eax]
  013bb	89 8d d0 fe ff
	ff		 mov	 DWORD PTR _Type$[ebp], ecx

; 546  : 	SetOption	= gSetItemOption.LuckyItemGenSetOption(Type, piAddSetOptRate);

  013c1	8d 85 e8 fe ff
	ff		 lea	 eax, DWORD PTR _piAddSetOptRate$[ebp]
  013c7	50		 push	 eax
  013c8	8b 8d d0 fe ff
	ff		 mov	 ecx, DWORD PTR _Type$[ebp]
  013ce	51		 push	 ecx
  013cf	b9 00 00 00 00	 mov	 ecx, OFFSET ?gSetItemOption@@3VCSetItemOption@@A ; gSetItemOption
  013d4	e8 00 00 00 00	 call	 ?LuckyItemGenSetOption@CSetItemOption@@QAEHHPAH@Z ; CSetItemOption::LuckyItemGenSetOption
  013d9	89 85 bc fe ff
	ff		 mov	 DWORD PTR _SetOption$[ebp], eax

; 547  : 	level		= this->GambleGetLevel(pItemLevelRandRate, lpObj->m_Index);

  013df	8b 45 08	 mov	 eax, DWORD PTR _lpObj$[ebp]
  013e2	8b 08		 mov	 ecx, DWORD PTR [eax]
  013e4	51		 push	 ecx
  013e5	8b 95 04 ff ff
	ff		 mov	 edx, DWORD PTR _pItemLevelRandRate$[ebp]
  013eb	52		 push	 edx
  013ec	8b 4d f8	 mov	 ecx, DWORD PTR _this$[ebp]
  013ef	e8 00 00 00 00	 call	 ?GambleGetLevel@LuckyItemManager@@QAEEPAU_ITEM_LEVEL_RATE@@H@Z ; LuckyItemManager::GambleGetLevel
  013f4	88 85 cf fe ff
	ff		 mov	 BYTE PTR _level$[ebp], al

; 548  : 	// ----
; 549  : 	if( pLuckyItemEquipment->m_Skill )

  013fa	8b 85 00 ff ff
	ff		 mov	 eax, DWORD PTR _pLuckyItemEquipment$[ebp]
  01400	83 78 04 00	 cmp	 DWORD PTR [eax+4], 0
  01404	74 07		 je	 SHORT $LN11@LuckyItemT

; 550  : 	{
; 551  : 		Op1 = 1;

  01406	c6 85 cd fe ff
	ff 01		 mov	 BYTE PTR _Op1$[ebp], 1
$LN11@LuckyItemT:

; 552  : 	}
; 553  : 	// ----
; 554  : 	if( pLuckyItemEquipment->m_Luck )

  0140d	8b 85 00 ff ff
	ff		 mov	 eax, DWORD PTR _pLuckyItemEquipment$[ebp]
  01413	83 78 08 00	 cmp	 DWORD PTR [eax+8], 0
  01417	74 23		 je	 SHORT $LN10@LuckyItemT

; 555  : 	{
; 556  : 		Op2 = 0;

  01419	c6 85 cc fe ff
	ff 00		 mov	 BYTE PTR _Op2$[ebp], 0

; 557  : 		// ----
; 558  : 		if( !(rand() % 2) )

  01420	e8 00 00 00 00	 call	 _rand
  01425	25 01 00 00 80	 and	 eax, -2147483647	; 80000001H
  0142a	79 05		 jns	 SHORT $LN25@LuckyItemT
  0142c	48		 dec	 eax
  0142d	83 c8 fe	 or	 eax, -2			; fffffffeH
  01430	40		 inc	 eax
$LN25@LuckyItemT:
  01431	85 c0		 test	 eax, eax
  01433	75 07		 jne	 SHORT $LN10@LuckyItemT

; 559  : 		{
; 560  : 			Op2 = 1;

  01435	c6 85 cc fe ff
	ff 01		 mov	 BYTE PTR _Op2$[ebp], 1
$LN10@LuckyItemT:

; 561  : 		}
; 562  : 	}
; 563  : 	// ----
; 564  : 	DWORD dwOptionTemp = GetLargeRand() % 1000000;

  0143c	e8 00 00 00 00	 call	 ?GetLargeRand@@YAKXZ	; GetLargeRand
  01441	33 d2		 xor	 edx, edx
  01443	b9 40 42 0f 00	 mov	 ecx, 1000000		; 000f4240H
  01448	f7 f1		 div	 ecx
  0144a	89 95 b8 fe ff
	ff		 mov	 DWORD PTR _dwOptionTemp$[ebp], edx

; 565  : 	// ----
; 566  : 	if( pLuckyItemEquipment->m_Option )

  01450	8b 85 00 ff ff
	ff		 mov	 eax, DWORD PTR _pLuckyItemEquipment$[ebp]
  01456	83 78 0c 00	 cmp	 DWORD PTR [eax+12], 0
  0145a	74 78		 je	 SHORT $LN8@LuckyItemT

; 567  : 	{
; 568  : 		if( dwOptionTemp <= (DWORD)pAddOpt3Rate[0] )

  0145c	8b 85 b8 fe ff
	ff		 mov	 eax, DWORD PTR _dwOptionTemp$[ebp]
  01462	3b 85 f0 fe ff
	ff		 cmp	 eax, DWORD PTR _pAddOpt3Rate$[ebp]
  01468	77 07		 ja	 SHORT $LN7@LuckyItemT

; 569  : 		{
; 570  : 			Op3 = 0;

  0146a	c6 85 cb fe ff
	ff 00		 mov	 BYTE PTR _Op3$[ebp], 0
$LN7@LuckyItemT:

; 571  : 		}
; 572  : 		// ----
; 573  : 		if( dwOptionTemp <= (DWORD)(pAddOpt3Rate[0] + pAddOpt3Rate[1]) )

  01471	8b 85 f0 fe ff
	ff		 mov	 eax, DWORD PTR _pAddOpt3Rate$[ebp]
  01477	03 85 f4 fe ff
	ff		 add	 eax, DWORD PTR _pAddOpt3Rate$[ebp+4]
  0147d	39 85 b8 fe ff
	ff		 cmp	 DWORD PTR _dwOptionTemp$[ebp], eax
  01483	77 07		 ja	 SHORT $LN6@LuckyItemT

; 574  : 		{
; 575  : 			Op3 = 1;

  01485	c6 85 cb fe ff
	ff 01		 mov	 BYTE PTR _Op3$[ebp], 1
$LN6@LuckyItemT:

; 576  : 		}
; 577  : 		// ----
; 578  : 		if( dwOptionTemp <= (DWORD)(pAddOpt3Rate[0] + pAddOpt3Rate[1] + pAddOpt3Rate[2]) )

  0148c	8b 85 f0 fe ff
	ff		 mov	 eax, DWORD PTR _pAddOpt3Rate$[ebp]
  01492	03 85 f4 fe ff
	ff		 add	 eax, DWORD PTR _pAddOpt3Rate$[ebp+4]
  01498	03 85 f8 fe ff
	ff		 add	 eax, DWORD PTR _pAddOpt3Rate$[ebp+8]
  0149e	39 85 b8 fe ff
	ff		 cmp	 DWORD PTR _dwOptionTemp$[ebp], eax
  014a4	77 07		 ja	 SHORT $LN5@LuckyItemT

; 579  : 		{
; 580  : 			Op3 = 2;

  014a6	c6 85 cb fe ff
	ff 02		 mov	 BYTE PTR _Op3$[ebp], 2
$LN5@LuckyItemT:

; 581  : 		}
; 582  : 		// ----
; 583  : 		if( dwOptionTemp <= (DWORD)(pAddOpt3Rate[0] + pAddOpt3Rate[1] + pAddOpt3Rate[2] + pAddOpt3Rate[3]) )

  014ad	8b 85 f0 fe ff
	ff		 mov	 eax, DWORD PTR _pAddOpt3Rate$[ebp]
  014b3	03 85 f4 fe ff
	ff		 add	 eax, DWORD PTR _pAddOpt3Rate$[ebp+4]
  014b9	03 85 f8 fe ff
	ff		 add	 eax, DWORD PTR _pAddOpt3Rate$[ebp+8]
  014bf	03 85 fc fe ff
	ff		 add	 eax, DWORD PTR _pAddOpt3Rate$[ebp+12]
  014c5	39 85 b8 fe ff
	ff		 cmp	 DWORD PTR _dwOptionTemp$[ebp], eax
  014cb	77 07		 ja	 SHORT $LN8@LuckyItemT

; 584  : 		{
; 585  : 			Op3 = 3;

  014cd	c6 85 cb fe ff
	ff 03		 mov	 BYTE PTR _Op3$[ebp], 3
$LN8@LuckyItemT:

; 586  : 		}
; 587  : 	}
; 588  : 	// ----
; 589  : #pragma message("#### FIX ME ####")
; 590  : 
; 591  : #ifdef DEBUG_CODE
; 592  : 	LogAddC(3,"SetOption: %d",SetOption);
; 593  : 	//ItemSerialCreateSend(lpObj->m_Index, 0xFF, 0, 0, Type, level, dur, Op1, Op2, Op3, lpObj->m_Index, ExOption, 5);
; 594  : #endif
; 595  : 
; 596  : 	//ItemSerialCreateSend(lpObj->m_Index, 0xFF, 0, 0, Type, level, dur, Op1, Op2, Op3, lpObj->m_Index, ExOption, SetOption, 0, 0, 0);
; 597  : 	ItemSerialCreateSend(lpObj->m_Index, 0xFF, 0, 0, Type, level, dur, Op1, Op2, Op3, lpObj->m_Index, ExOption, SetOption);

  014d4	0f b6 85 bc fe
	ff ff		 movzx	 eax, BYTE PTR _SetOption$[ebp]
  014db	50		 push	 eax
  014dc	0f b6 8d ca fe
	ff ff		 movzx	 ecx, BYTE PTR _ExOption$[ebp]
  014e3	51		 push	 ecx
  014e4	8b 55 08	 mov	 edx, DWORD PTR _lpObj$[ebp]
  014e7	8b 02		 mov	 eax, DWORD PTR [edx]
  014e9	50		 push	 eax
  014ea	0f b6 8d cb fe
	ff ff		 movzx	 ecx, BYTE PTR _Op3$[ebp]
  014f1	51		 push	 ecx
  014f2	0f b6 95 cc fe
	ff ff		 movzx	 edx, BYTE PTR _Op2$[ebp]
  014f9	52		 push	 edx
  014fa	0f b6 85 cd fe
	ff ff		 movzx	 eax, BYTE PTR _Op1$[ebp]
  01501	50		 push	 eax
  01502	0f b6 8d ce fe
	ff ff		 movzx	 ecx, BYTE PTR _dur$[ebp]
  01509	51		 push	 ecx
  0150a	0f b6 95 cf fe
	ff ff		 movzx	 edx, BYTE PTR _level$[ebp]
  01511	52		 push	 edx
  01512	8b 85 d0 fe ff
	ff		 mov	 eax, DWORD PTR _Type$[ebp]
  01518	50		 push	 eax
  01519	6a 00		 push	 0
  0151b	6a 00		 push	 0
  0151d	68 ff 00 00 00	 push	 255			; 000000ffH
  01522	8b 4d 08	 mov	 ecx, DWORD PTR _lpObj$[ebp]
  01525	8b 11		 mov	 edx, DWORD PTR [ecx]
  01527	52		 push	 edx
  01528	e8 00 00 00 00	 call	 ?ItemSerialCreateSend@@YAXHEEEHEEEEEHEE@Z ; ItemSerialCreateSend
  0152d	83 c4 34	 add	 esp, 52			; 00000034H

; 598  : 	// ----
; 599  : 	int	tmpSetOption = 0;

  01530	c7 85 b4 fe ff
	ff 00 00 00 00	 mov	 DWORD PTR _tmpSetOption$[ebp], 0

; 600  : 	// ----
; 601  : 	if( (SetOption & 0x01) != 0 )

  0153a	8b 85 bc fe ff
	ff		 mov	 eax, DWORD PTR _SetOption$[ebp]
  01540	83 e0 01	 and	 eax, 1
  01543	74 0c		 je	 SHORT $LN3@LuckyItemT

; 602  : 	{
; 603  : 		tmpSetOption = 1;

  01545	c7 85 b4 fe ff
	ff 01 00 00 00	 mov	 DWORD PTR _tmpSetOption$[ebp], 1
  0154f	eb 15		 jmp	 SHORT $LN2@LuckyItemT
$LN3@LuckyItemT:

; 604  : 	}
; 605  : 	else if( (SetOption & 0x02) != 0 )

  01551	8b 85 bc fe ff
	ff		 mov	 eax, DWORD PTR _SetOption$[ebp]
  01557	83 e0 02	 and	 eax, 2
  0155a	74 0a		 je	 SHORT $LN2@LuckyItemT

; 606  : 	{
; 607  : 		tmpSetOption = 2;

  0155c	c7 85 b4 fe ff
	ff 02 00 00 00	 mov	 DWORD PTR _tmpSetOption$[ebp], 2
$LN2@LuckyItemT:

; 608  : 	}
; 609  : 	// ----
; 610  : 	char szSetItemName[48] = { 0 };

  01566	c6 85 84 fe ff
	ff 00		 mov	 BYTE PTR _szSetItemName$[ebp], 0
  0156d	6a 2f		 push	 47			; 0000002fH
  0156f	6a 00		 push	 0
  01571	8d 85 85 fe ff
	ff		 lea	 eax, DWORD PTR _szSetItemName$[ebp+1]
  01577	50		 push	 eax
  01578	e8 00 00 00 00	 call	 _memset
  0157d	83 c4 0c	 add	 esp, 12			; 0000000cH

; 611  : 	strcpy(szSetItemName, gSetItemOption.GetSetOptionName(Type, tmpSetOption));

  01580	8b 85 b4 fe ff
	ff		 mov	 eax, DWORD PTR _tmpSetOption$[ebp]
  01586	50		 push	 eax
  01587	8b 8d d0 fe ff
	ff		 mov	 ecx, DWORD PTR _Type$[ebp]
  0158d	51		 push	 ecx
  0158e	b9 00 00 00 00	 mov	 ecx, OFFSET ?gSetItemOption@@3VCSetItemOption@@A ; gSetItemOption
  01593	e8 00 00 00 00	 call	 ?GetSetOptionName@CSetItemOption@@QAEPADHH@Z ; CSetItemOption::GetSetOptionName
  01598	50		 push	 eax
  01599	8d 95 84 fe ff
	ff		 lea	 edx, DWORD PTR _szSetItemName$[ebp]
  0159f	52		 push	 edx
  015a0	e8 00 00 00 00	 call	 _strcpy
  015a5	83 c4 08	 add	 esp, 8

; 612  : 	strcat(szSetItemName, ItemAttribute[pLuckyItemEquipment->m_Index].Name);

  015a8	8b 85 00 ff ff
	ff		 mov	 eax, DWORD PTR _pLuckyItemEquipment$[ebp]
  015ae	8b 08		 mov	 ecx, DWORD PTR [eax]
  015b0	6b c9 70	 imul	 ecx, 112		; 00000070H
  015b3	81 c1 00 00 00
	00		 add	 ecx, OFFSET ?ItemAttribute@@3PAUITEM_ATTRIBUTE@@A ; ItemAttribute
  015b9	51		 push	 ecx
  015ba	8d 95 84 fe ff
	ff		 lea	 edx, DWORD PTR _szSetItemName$[ebp]
  015c0	52		 push	 edx
  015c1	e8 00 00 00 00	 call	 _strcat
  015c6	83 c4 08	 add	 esp, 8

; 613  : 	LogAddTD("[LuckyItem] - Exchange End [%s][%s][%d] ItemName[%s] ItemNum[%d] Level[%d] Dur[%d] skill[%d] luck[%d] option[%d] ExOpt[%d] SetOption[%d]",
; 614  : 		lpObj->AccountID, lpObj->Name, lpObj->Class, szSetItemName, Type, level, dur, Op1, Op2, Op3, ExOption, SetOption);

  015c9	8b 85 bc fe ff
	ff		 mov	 eax, DWORD PTR _SetOption$[ebp]
  015cf	50		 push	 eax
  015d0	0f b6 8d ca fe
	ff ff		 movzx	 ecx, BYTE PTR _ExOption$[ebp]
  015d7	51		 push	 ecx
  015d8	0f b6 95 cb fe
	ff ff		 movzx	 edx, BYTE PTR _Op3$[ebp]
  015df	52		 push	 edx
  015e0	0f b6 85 cc fe
	ff ff		 movzx	 eax, BYTE PTR _Op2$[ebp]
  015e7	50		 push	 eax
  015e8	0f b6 8d cd fe
	ff ff		 movzx	 ecx, BYTE PTR _Op1$[ebp]
  015ef	51		 push	 ecx
  015f0	0f b6 95 ce fe
	ff ff		 movzx	 edx, BYTE PTR _dur$[ebp]
  015f7	52		 push	 edx
  015f8	0f b6 85 cf fe
	ff ff		 movzx	 eax, BYTE PTR _level$[ebp]
  015ff	50		 push	 eax
  01600	8b 8d d0 fe ff
	ff		 mov	 ecx, DWORD PTR _Type$[ebp]
  01606	51		 push	 ecx
  01607	8d 95 84 fe ff
	ff		 lea	 edx, DWORD PTR _szSetItemName$[ebp]
  0160d	52		 push	 edx
  0160e	8b 45 08	 mov	 eax, DWORD PTR _lpObj$[ebp]
  01611	0f b7 88 b8 00
	00 00		 movzx	 ecx, WORD PTR [eax+184]
  01618	51		 push	 ecx
  01619	8b 55 08	 mov	 edx, DWORD PTR _lpObj$[ebp]
  0161c	83 c2 77	 add	 edx, 119		; 00000077H
  0161f	52		 push	 edx
  01620	8b 45 08	 mov	 eax, DWORD PTR _lpObj$[ebp]
  01623	83 c0 6c	 add	 eax, 108		; 0000006cH
  01626	50		 push	 eax
  01627	68 00 00 00 00	 push	 OFFSET ??_C@_0IJ@OOLAFCP@?$FLLuckyItem?$FN?5?9?5Exchange?5End?5?$FL?$CFs?$FN?$FL@
  0162c	ff 15 00 00 00
	00		 call	 DWORD PTR ?LogAddTD@@3P6AXPADZZA ; LogAddTD
  01632	83 c4 34	 add	 esp, 52			; 00000034H

; 615  : 	gObjInventoryCommit(lpObj->m_Index);

  01635	8b 45 08	 mov	 eax, DWORD PTR _lpObj$[ebp]
  01638	8b 08		 mov	 ecx, DWORD PTR [eax]
  0163a	51		 push	 ecx
  0163b	e8 00 00 00 00	 call	 ?gObjInventoryCommit@@YAHH@Z ; gObjInventoryCommit
  01640	83 c4 04	 add	 esp, 4
$LN23@LuckyItemT:

; 616  : }

  01643	5f		 pop	 edi
  01644	5e		 pop	 esi
  01645	5b		 pop	 ebx
  01646	8b 4d fc	 mov	 ecx, DWORD PTR __$ArrayPad$[ebp]
  01649	33 cd		 xor	 ecx, ebp
  0164b	e8 00 00 00 00	 call	 @__security_check_cookie@4
  01650	8b e5		 mov	 esp, ebp
  01652	5d		 pop	 ebp
  01653	c2 04 00	 ret	 4
?LuckyItemTicketExchange@LuckyItemManager@@QAEXPAUOBJECTSTRUCT@@@Z ENDP ; LuckyItemManager::LuckyItemTicketExchange
; Function compile flags: /Odtp /ZI
_i$229859 = -20					; size = 4
_dwLevelTemp$ = -16					; size = 4
_dwRandRate$ = -12					; size = 4
_level$ = -5						; size = 1
_this$ = -4						; size = 4
_pItemLevelRandRate$ = 8				; size = 4
_iIndex$ = 12						; size = 4
?GambleGetLevel@LuckyItemManager@@QAEEPAU_ITEM_LEVEL_RATE@@H@Z PROC ; LuckyItemManager::GambleGetLevel
; _this$ = ecx

; 621  : {

  01660	55		 push	 ebp
  01661	8b ec		 mov	 ebp, esp
  01663	83 ec 54	 sub	 esp, 84			; 00000054H
  01666	53		 push	 ebx
  01667	56		 push	 esi
  01668	57		 push	 edi
  01669	89 4d fc	 mov	 DWORD PTR _this$[ebp], ecx

; 622  : #if( LUCKYITEM_DEBUG == 1 )
; 623  : 	LogAddC(2, "[DEBUG] [%s] Start", __FUNCTION__);
; 624  : #endif
; 625  : 	BYTE level			= 0; //ebp-8

  0166c	c6 45 fb 00	 mov	 BYTE PTR _level$[ebp], 0

; 626  : 	long dwRandRate		= GetLargeRand() % 1000000; //ebp-0c

  01670	e8 00 00 00 00	 call	 ?GetLargeRand@@YAKXZ	; GetLargeRand
  01675	33 d2		 xor	 edx, edx
  01677	b9 40 42 0f 00	 mov	 ecx, 1000000		; 000f4240H
  0167c	f7 f1		 div	 ecx
  0167e	89 55 f4	 mov	 DWORD PTR _dwRandRate$[ebp], edx

; 627  : 	long dwLevelTemp	= 0; //ebp-10

  01681	c7 45 f0 00 00
	00 00		 mov	 DWORD PTR _dwLevelTemp$[ebp], 0

; 628  : 	// ----
; 629  : 	for( int i = 0; i < MAX_LUCKYINFO_LEVELRATE; i++ ) //ebp-14

  01688	c7 45 ec 00 00
	00 00		 mov	 DWORD PTR _i$229859[ebp], 0
  0168f	eb 09		 jmp	 SHORT $LN4@GambleGetL
$LN3@GambleGetL:
  01691	8b 45 ec	 mov	 eax, DWORD PTR _i$229859[ebp]
  01694	83 c0 01	 add	 eax, 1
  01697	89 45 ec	 mov	 DWORD PTR _i$229859[ebp], eax
$LN4@GambleGetL:
  0169a	83 7d ec 10	 cmp	 DWORD PTR _i$229859[ebp], 16 ; 00000010H
  0169e	7d 28		 jge	 SHORT $LN2@GambleGetL

; 630  : 	{
; 631  : 		dwLevelTemp += pItemLevelRandRate[i].m_Rate;

  016a0	8b 45 ec	 mov	 eax, DWORD PTR _i$229859[ebp]
  016a3	8b 4d 08	 mov	 ecx, DWORD PTR _pItemLevelRandRate$[ebp]
  016a6	8b 55 f0	 mov	 edx, DWORD PTR _dwLevelTemp$[ebp]
  016a9	03 54 c1 04	 add	 edx, DWORD PTR [ecx+eax*8+4]
  016ad	89 55 f0	 mov	 DWORD PTR _dwLevelTemp$[ebp], edx

; 632  : 		// ----
; 633  : 		if( dwRandRate <= dwLevelTemp )

  016b0	8b 45 f4	 mov	 eax, DWORD PTR _dwRandRate$[ebp]
  016b3	3b 45 f0	 cmp	 eax, DWORD PTR _dwLevelTemp$[ebp]
  016b6	7f 0e		 jg	 SHORT $LN1@GambleGetL

; 634  : 		{
; 635  : 			level = (BYTE)pItemLevelRandRate[i].m_Level;

  016b8	8b 45 ec	 mov	 eax, DWORD PTR _i$229859[ebp]
  016bb	8b 4d 08	 mov	 ecx, DWORD PTR _pItemLevelRandRate$[ebp]
  016be	8a 14 c1	 mov	 dl, BYTE PTR [ecx+eax*8]
  016c1	88 55 fb	 mov	 BYTE PTR _level$[ebp], dl

; 636  : 			break;

  016c4	eb 02		 jmp	 SHORT $LN2@GambleGetL
$LN1@GambleGetL:

; 637  : 		}
; 638  : 	}

  016c6	eb c9		 jmp	 SHORT $LN3@GambleGetL
$LN2@GambleGetL:

; 639  : 	// ----
; 640  : 	return level;

  016c8	8a 45 fb	 mov	 al, BYTE PTR _level$[ebp]

; 641  : }

  016cb	5f		 pop	 edi
  016cc	5e		 pop	 esi
  016cd	5b		 pop	 ebx
  016ce	8b e5		 mov	 esp, ebp
  016d0	5d		 pop	 ebp
  016d1	c2 08 00	 ret	 8
?GambleGetLevel@LuckyItemManager@@QAEEPAU_ITEM_LEVEL_RATE@@H@Z ENDP ; LuckyItemManager::GambleGetLevel
_TEXT	ENDS
PUBLIC	??_C@_0IE@EKAPFKKE@?$FLLuckyItem?$FN?$FLSmelt?5Item?5Mix?$FN?5Mix?5@ ; `string'
PUBLIC	??_C@_0CP@DNEABLLB@?$FLLuckyItem?$FN?$FLSmelt?5Item?5Mix?$FN?5Mix?5@ ; `string'
PUBLIC	?GDReqLuckyItemDelete@LuckyItemManager@@QAEXFJH@Z ; LuckyItemManager::GDReqLuckyItemDelete
PUBLIC	?GambleLuckyItemSmelting@LuckyItemManager@@QAEHHH@Z ; LuckyItemManager::GambleLuckyItemSmelting
PUBLIC	??_C@_0BK@JJOJMNAN@?$FLLuckyItem?$FN?5Item?5Smelting?$AA@ ; `string'
PUBLIC	??_C@_0CF@JBLCKIHG@?$FLLuckyItemSmelting?$FN?5?9?5Smelting?5S@ ; `string'
PUBLIC	__$ArrayPad$
PUBLIC	?LuckyItemSmelting@LuckyItemManager@@QAEXPAUOBJECTSTRUCT@@@Z ; LuckyItemManager::LuckyItemSmelting
EXTRN	?GCServerMsgStringSend@@YAXPADHE@Z:PROC		; GCServerMsgStringSend
EXTRN	?Get@CMsg@@QAEPADH@Z:PROC			; CMsg::Get
EXTRN	?lMsg@@3VCMsg@@A:BYTE				; lMsg
EXTRN	?GCUserChaosBoxSend@@YAXPAUOBJECTSTRUCT@@H@Z:PROC ; GCUserChaosBoxSend
EXTRN	?ChaosBoxInit@CMixSystem@@QAEHPAUOBJECTSTRUCT@@@Z:PROC ; CMixSystem::ChaosBoxInit
;	COMDAT ??_C@_0IE@EKAPFKKE@?$FLLuckyItem?$FN?$FLSmelt?5Item?5Mix?$FN?5Mix?5@
CONST	SEGMENT
??_C@_0IE@EKAPFKKE@?$FLLuckyItem?$FN?$FLSmelt?5Item?5Mix?$FN?5Mix?5@ DB '['
	DB	'LuckyItem][Smelt Item Mix] Mix Success [%s][%s] ItemName[%s] '
	DB	'ItemNum[%d] Level[%d] Dur[%d] skill[%d] luck[%d] option[%d] E'
	DB	'xOpt[%d]', 00H				; `string'
CONST	ENDS
;	COMDAT ??_C@_0CP@DNEABLLB@?$FLLuckyItem?$FN?$FLSmelt?5Item?5Mix?$FN?5Mix?5@
CONST	SEGMENT
??_C@_0CP@DNEABLLB@?$FLLuckyItem?$FN?$FLSmelt?5Item?5Mix?$FN?5Mix?5@ DB '['
	DB	'LuckyItem][Smelt Item Mix] Mix Fail [%s][%s] ', 00H ; `string'
CONST	ENDS
;	COMDAT ??_C@_0BK@JJOJMNAN@?$FLLuckyItem?$FN?5Item?5Smelting?$AA@
CONST	SEGMENT
??_C@_0BK@JJOJMNAN@?$FLLuckyItem?$FN?5Item?5Smelting?$AA@ DB '[LuckyItem]'
	DB	' Item Smelting', 00H			; `string'
CONST	ENDS
;	COMDAT ??_C@_0CF@JBLCKIHG@?$FLLuckyItemSmelting?$FN?5?9?5Smelting?5S@
CONST	SEGMENT
??_C@_0CF@JBLCKIHG@?$FLLuckyItemSmelting?$FN?5?9?5Smelting?5S@ DB '[Lucky'
	DB	'ItemSmelting] - Smelting Start', 00H	; `string'
; Function compile flags: /Odtp /ZI
CONST	ENDS
_TEXT	SEGMENT
_ExOption$229899 = -274					; size = 1
_Op3$229898 = -273					; size = 1
_Op2$229897 = -272					; size = 1
_Op1$229896 = -271					; size = 1
_dur$229895 = -270					; size = 1
_level$229894 = -269					; size = 1
_Type$229893 = -268					; size = 4
_iCharType$229892 = -264				; size = 4
_bGambleLuckyItemSmelting$229890 = -260			; size = 4
_bLuckyItemEquipment$229881 = -256			; size = 4
_i$229876 = -252					; size = 4
_iItemPos$ = -248					; size = 4
_pMsg$ = -244						; size = 16
_NewItem$ = -228					; size = 212
_iInvalidItemCount$ = -13				; size = 1
_iValidItemCount$ = -12					; size = 4
_this$ = -8						; size = 4
__$ArrayPad$ = -4					; size = 4
_lpObj$ = 8						; size = 4
?LuckyItemSmelting@LuckyItemManager@@QAEXPAUOBJECTSTRUCT@@@Z PROC ; LuckyItemManager::LuckyItemSmelting
; _this$ = ecx

; 646  : {

  016e0	55		 push	 ebp
  016e1	8b ec		 mov	 ebp, esp
  016e3	81 ec 54 01 00
	00		 sub	 esp, 340		; 00000154H
  016e9	a1 00 00 00 00	 mov	 eax, DWORD PTR ___security_cookie
  016ee	33 c5		 xor	 eax, ebp
  016f0	89 45 fc	 mov	 DWORD PTR __$ArrayPad$[ebp], eax
  016f3	53		 push	 ebx
  016f4	56		 push	 esi
  016f5	57		 push	 edi
  016f6	89 4d f8	 mov	 DWORD PTR _this$[ebp], ecx

; 647  : #if( LUCKYITEM_DEBUG == 1 )
; 648  : 	LogAddC(2, "[DEBUG] [%s] Start", __FUNCTION__);
; 649  : #endif
; 650  : 	int iValidItemCount		= 0;

  016f9	c7 45 f4 00 00
	00 00		 mov	 DWORD PTR _iValidItemCount$[ebp], 0

; 651  : 	BYTE iInvalidItemCount	= 0;

  01700	c6 45 f3 00	 mov	 BYTE PTR _iInvalidItemCount$[ebp], 0

; 652  : 	// ----
; 653  : 	CItem NewItem;

  01704	8d 8d 1c ff ff
	ff		 lea	 ecx, DWORD PTR _NewItem$[ebp]
  0170a	e8 00 00 00 00	 call	 ??0CItem@@QAE@XZ	; CItem::CItem

; 654  : 	PMSG_CHAOSMIXRESULT pMsg;
; 655  : 	PHeadSetB((LPBYTE)&pMsg, 0x86, sizeof(PMSG_CHAOSMIXRESULT));

  0170f	6a 10		 push	 16			; 00000010H
  01711	68 86 00 00 00	 push	 134			; 00000086H
  01716	8d 85 0c ff ff
	ff		 lea	 eax, DWORD PTR _pMsg$[ebp]
  0171c	50		 push	 eax
  0171d	e8 00 00 00 00	 call	 ?PHeadSetB@@YAXPAEEH@Z	; PHeadSetB
  01722	83 c4 0c	 add	 esp, 12			; 0000000cH

; 656  : 	// ----
; 657  : 	pMsg.Result			= CB_ERROR;

  01725	c6 85 0f ff ff
	ff 00		 mov	 BYTE PTR _pMsg$[ebp+3], 0

; 658  : 	lpObj->ChaosLock	= true;

  0172c	8b 45 08	 mov	 eax, DWORD PTR _lpObj$[ebp]
  0172f	c7 80 88 0e 00
	00 01 00 00 00	 mov	 DWORD PTR [eax+3720], 1

; 659  : 	int iItemPos		= -1;

  01739	c7 85 08 ff ff
	ff ff ff ff ff	 mov	 DWORD PTR _iItemPos$[ebp], -1

; 660  : 	// ----
; 661  : 	for( int i = 0; i < CHAOS_BOX_SIZE; i++ )

  01743	c7 85 04 ff ff
	ff 00 00 00 00	 mov	 DWORD PTR _i$229876[ebp], 0
  0174d	eb 0f		 jmp	 SHORT $LN11@LuckyItemS
$LN10@LuckyItemS:
  0174f	8b 85 04 ff ff
	ff		 mov	 eax, DWORD PTR _i$229876[ebp]
  01755	83 c0 01	 add	 eax, 1
  01758	89 85 04 ff ff
	ff		 mov	 DWORD PTR _i$229876[ebp], eax
$LN11@LuckyItemS:
  0175e	83 bd 04 ff ff
	ff 20		 cmp	 DWORD PTR _i$229876[ebp], 32 ; 00000020H
  01765	7d 74		 jge	 SHORT $LN9@LuckyItemS

; 662  : 	{
; 663  : 		if( lpObj->pChaosBox[i].IsItem() )

  01767	8b 8d 04 ff ff
	ff		 mov	 ecx, DWORD PTR _i$229876[ebp]
  0176d	69 c9 d4 00 00
	00		 imul	 ecx, 212		; 000000d4H
  01773	8b 45 08	 mov	 eax, DWORD PTR _lpObj$[ebp]
  01776	03 88 78 0e 00
	00		 add	 ecx, DWORD PTR [eax+3704]
  0177c	e8 00 00 00 00	 call	 ?IsItem@CItem@@QAEHXZ	; CItem::IsItem
  01781	85 c0		 test	 eax, eax
  01783	74 51		 je	 SHORT $LN6@LuckyItemS

; 664  : 		{
; 665  : 			int bLuckyItemEquipment = this->IsLuckyItemEquipment(lpObj->pChaosBox[i].m_Type);

  01785	8b 85 04 ff ff
	ff		 mov	 eax, DWORD PTR _i$229876[ebp]
  0178b	69 c0 d4 00 00
	00		 imul	 eax, 212		; 000000d4H
  01791	8b 4d 08	 mov	 ecx, DWORD PTR _lpObj$[ebp]
  01794	8b 91 78 0e 00
	00		 mov	 edx, DWORD PTR [ecx+3704]
  0179a	0f bf 44 02 06	 movsx	 eax, WORD PTR [edx+eax+6]
  0179f	50		 push	 eax
  017a0	8b 4d f8	 mov	 ecx, DWORD PTR _this$[ebp]
  017a3	e8 00 00 00 00	 call	 ?IsLuckyItemEquipment@LuckyItemManager@@QAEHH@Z ; LuckyItemManager::IsLuckyItemEquipment
  017a8	89 85 00 ff ff
	ff		 mov	 DWORD PTR _bLuckyItemEquipment$229881[ebp], eax

; 666  : 			// ----
; 667  : 			if( !bLuckyItemEquipment )

  017ae	83 bd 00 ff ff
	ff 00		 cmp	 DWORD PTR _bLuckyItemEquipment$229881[ebp], 0
  017b5	75 0a		 jne	 SHORT $LN7@LuckyItemS

; 668  : 			{
; 669  : 				iInvalidItemCount++;

  017b7	8a 45 f3	 mov	 al, BYTE PTR _iInvalidItemCount$[ebp]
  017ba	04 01		 add	 al, 1
  017bc	88 45 f3	 mov	 BYTE PTR _iInvalidItemCount$[ebp], al

; 670  : 			}
; 671  : 			else

  017bf	eb 15		 jmp	 SHORT $LN6@LuckyItemS
$LN7@LuckyItemS:

; 672  : 			{
; 673  : 				iValidItemCount++;

  017c1	8b 45 f4	 mov	 eax, DWORD PTR _iValidItemCount$[ebp]
  017c4	83 c0 01	 add	 eax, 1
  017c7	89 45 f4	 mov	 DWORD PTR _iValidItemCount$[ebp], eax

; 674  : 				iItemPos = i;

  017ca	8b 85 04 ff ff
	ff		 mov	 eax, DWORD PTR _i$229876[ebp]
  017d0	89 85 08 ff ff
	ff		 mov	 DWORD PTR _iItemPos$[ebp], eax
$LN6@LuckyItemS:

; 675  : 			}
; 676  : 		}
; 677  : 	}

  017d6	e9 74 ff ff ff	 jmp	 $LN10@LuckyItemS
$LN9@LuckyItemS:

; 678  : 	// ----
; 679  : 	if( iValidItemCount != 1 || iInvalidItemCount != 0 || iItemPos == -1 )

  017db	83 7d f4 01	 cmp	 DWORD PTR _iValidItemCount$[ebp], 1
  017df	75 11		 jne	 SHORT $LN4@LuckyItemS
  017e1	0f b6 45 f3	 movzx	 eax, BYTE PTR _iInvalidItemCount$[ebp]
  017e5	85 c0		 test	 eax, eax
  017e7	75 09		 jne	 SHORT $LN4@LuckyItemS
  017e9	83 bd 08 ff ff
	ff ff		 cmp	 DWORD PTR _iItemPos$[ebp], -1
  017f0	75 34		 jne	 SHORT $LN5@LuckyItemS
$LN4@LuckyItemS:

; 680  : 	{
; 681  : 		DataSend(lpObj->m_Index, (LPBYTE)&pMsg, pMsg.h.size);

  017f2	0f b6 85 0d ff
	ff ff		 movzx	 eax, BYTE PTR _pMsg$[ebp+1]
  017f9	50		 push	 eax
  017fa	8d 8d 0c ff ff
	ff		 lea	 ecx, DWORD PTR _pMsg$[ebp]
  01800	51		 push	 ecx
  01801	8b 55 08	 mov	 edx, DWORD PTR _lpObj$[ebp]
  01804	8b 02		 mov	 eax, DWORD PTR [edx]
  01806	50		 push	 eax
  01807	e8 00 00 00 00	 call	 ?DataSend@@YAHHPAEK@Z	; DataSend
  0180c	83 c4 0c	 add	 esp, 12			; 0000000cH

; 682  : 		lpObj->ChaosLock = false;

  0180f	8b 45 08	 mov	 eax, DWORD PTR _lpObj$[ebp]
  01812	c7 80 88 0e 00
	00 00 00 00 00	 mov	 DWORD PTR [eax+3720], 0

; 683  : 		return;

  0181c	e9 65 02 00 00	 jmp	 $LN12@LuckyItemS

; 684  : 	}
; 685  : 	else

  01821	e9 60 02 00 00	 jmp	 $LN3@LuckyItemS
$LN5@LuckyItemS:

; 686  : 	{
; 687  : 		LogAddTD("[LuckyItemSmelting] - Smelting Start");

  01826	68 00 00 00 00	 push	 OFFSET ??_C@_0CF@JBLCKIHG@?$FLLuckyItemSmelting?$FN?5?9?5Smelting?5S@
  0182b	ff 15 00 00 00
	00		 call	 DWORD PTR ?LogAddTD@@3P6AXPADZZA ; LogAddTD
  01831	83 c4 04	 add	 esp, 4

; 688  : 		g_MixSystem.LogChaosItem(lpObj, "[LuckyItem] Item Smelting");

  01834	68 00 00 00 00	 push	 OFFSET ??_C@_0BK@JJOJMNAN@?$FLLuckyItem?$FN?5Item?5Smelting?$AA@
  01839	8b 45 08	 mov	 eax, DWORD PTR _lpObj$[ebp]
  0183c	50		 push	 eax
  0183d	b9 00 00 00 00	 mov	 ecx, OFFSET ?g_MixSystem@@3VCMixSystem@@A ; g_MixSystem
  01842	e8 00 00 00 00	 call	 ?LogChaosItem@CMixSystem@@QAEXPAUOBJECTSTRUCT@@PAD@Z ; CMixSystem::LogChaosItem

; 689  : 		// ----
; 690  : 		int bGambleLuckyItemSmelting = this->GambleLuckyItemSmelting(lpObj->pChaosBox[iItemPos].m_Type, (int)lpObj->pChaosBox[iItemPos].m_Durability);

  01847	8b 85 08 ff ff
	ff		 mov	 eax, DWORD PTR _iItemPos$[ebp]
  0184d	69 c0 d4 00 00
	00		 imul	 eax, 212		; 000000d4H
  01853	8b 4d 08	 mov	 ecx, DWORD PTR _lpObj$[ebp]
  01856	8b 91 78 0e 00
	00		 mov	 edx, DWORD PTR [ecx+3704]
  0185c	d9 44 02 24	 fld	 DWORD PTR [edx+eax+36]
  01860	e8 00 00 00 00	 call	 __ftol2_sse
  01865	50		 push	 eax
  01866	8b 85 08 ff ff
	ff		 mov	 eax, DWORD PTR _iItemPos$[ebp]
  0186c	69 c0 d4 00 00
	00		 imul	 eax, 212		; 000000d4H
  01872	8b 4d 08	 mov	 ecx, DWORD PTR _lpObj$[ebp]
  01875	8b 91 78 0e 00
	00		 mov	 edx, DWORD PTR [ecx+3704]
  0187b	0f bf 44 02 06	 movsx	 eax, WORD PTR [edx+eax+6]
  01880	50		 push	 eax
  01881	8b 4d f8	 mov	 ecx, DWORD PTR _this$[ebp]
  01884	e8 00 00 00 00	 call	 ?GambleLuckyItemSmelting@LuckyItemManager@@QAEHHH@Z ; LuckyItemManager::GambleLuckyItemSmelting
  01889	89 85 fc fe ff
	ff		 mov	 DWORD PTR _bGambleLuckyItemSmelting$229890[ebp], eax

; 691  : 		this->GDReqLuckyItemDelete(lpObj->pChaosBox[iItemPos].m_Type, lpObj->pChaosBox[iItemPos].m_Number, lpObj->m_Index);

  0188f	8b 45 08	 mov	 eax, DWORD PTR _lpObj$[ebp]
  01892	8b 08		 mov	 ecx, DWORD PTR [eax]
  01894	51		 push	 ecx
  01895	8b 95 08 ff ff
	ff		 mov	 edx, DWORD PTR _iItemPos$[ebp]
  0189b	69 d2 d4 00 00
	00		 imul	 edx, 212		; 000000d4H
  018a1	8b 45 08	 mov	 eax, DWORD PTR _lpObj$[ebp]
  018a4	8b 88 78 0e 00
	00		 mov	 ecx, DWORD PTR [eax+3704]
  018aa	8b 14 11	 mov	 edx, DWORD PTR [ecx+edx]
  018ad	52		 push	 edx
  018ae	8b 85 08 ff ff
	ff		 mov	 eax, DWORD PTR _iItemPos$[ebp]
  018b4	69 c0 d4 00 00
	00		 imul	 eax, 212		; 000000d4H
  018ba	8b 4d 08	 mov	 ecx, DWORD PTR _lpObj$[ebp]
  018bd	8b 91 78 0e 00
	00		 mov	 edx, DWORD PTR [ecx+3704]
  018c3	0f b7 44 02 06	 movzx	 eax, WORD PTR [edx+eax+6]
  018c8	50		 push	 eax
  018c9	8b 4d f8	 mov	 ecx, DWORD PTR _this$[ebp]
  018cc	e8 00 00 00 00	 call	 ?GDReqLuckyItemDelete@LuckyItemManager@@QAEXFJH@Z ; LuckyItemManager::GDReqLuckyItemDelete

; 692  : 		// ----
; 693  : 		int iCharType	= 0;

  018d1	c7 85 f8 fe ff
	ff 00 00 00 00	 mov	 DWORD PTR _iCharType$229892[ebp], 0

; 694  : 		int Type		= ITEMGET(14, 160);

  018db	c7 85 f4 fe ff
	ff a0 1c 00 00	 mov	 DWORD PTR _Type$229893[ebp], 7328 ; 00001ca0H

; 695  : 		BYTE level		= 0;

  018e5	c6 85 f3 fe ff
	ff 00		 mov	 BYTE PTR _level$229894[ebp], 0

; 696  : 		BYTE dur		= 0;

  018ec	c6 85 f2 fe ff
	ff 00		 mov	 BYTE PTR _dur$229895[ebp], 0

; 697  : 		BYTE Op1		= 0;

  018f3	c6 85 f1 fe ff
	ff 00		 mov	 BYTE PTR _Op1$229896[ebp], 0

; 698  : 		BYTE Op2		= 0;

  018fa	c6 85 f0 fe ff
	ff 00		 mov	 BYTE PTR _Op2$229897[ebp], 0

; 699  : 		BYTE Op3		= 0;

  01901	c6 85 ef fe ff
	ff 00		 mov	 BYTE PTR _Op3$229898[ebp], 0

; 700  : 		BYTE ExOption	= 0;

  01908	c6 85 ee fe ff
	ff 00		 mov	 BYTE PTR _ExOption$229899[ebp], 0

; 701  : 		// ----
; 702  : 		if( !bGambleLuckyItemSmelting )

  0190f	83 bd fc fe ff
	ff 00		 cmp	 DWORD PTR _bGambleLuckyItemSmelting$229890[ebp], 0
  01916	0f 85 89 00 00
	00		 jne	 $LN2@LuckyItemS

; 703  : 		{
; 704  : 			g_MixSystem.ChaosBoxInit(lpObj);

  0191c	8b 45 08	 mov	 eax, DWORD PTR _lpObj$[ebp]
  0191f	50		 push	 eax
  01920	b9 00 00 00 00	 mov	 ecx, OFFSET ?g_MixSystem@@3VCMixSystem@@A ; g_MixSystem
  01925	e8 00 00 00 00	 call	 ?ChaosBoxInit@CMixSystem@@QAEHPAUOBJECTSTRUCT@@@Z ; CMixSystem::ChaosBoxInit

; 705  : 			GCUserChaosBoxSend(lpObj, 0);

  0192a	6a 00		 push	 0
  0192c	8b 45 08	 mov	 eax, DWORD PTR _lpObj$[ebp]
  0192f	50		 push	 eax
  01930	e8 00 00 00 00	 call	 ?GCUserChaosBoxSend@@YAXPAUOBJECTSTRUCT@@H@Z ; GCUserChaosBoxSend
  01935	83 c4 08	 add	 esp, 8

; 706  : 			DataSend(lpObj->m_Index, (LPBYTE)&pMsg, pMsg.h.size);

  01938	0f b6 85 0d ff
	ff ff		 movzx	 eax, BYTE PTR _pMsg$[ebp+1]
  0193f	50		 push	 eax
  01940	8d 8d 0c ff ff
	ff		 lea	 ecx, DWORD PTR _pMsg$[ebp]
  01946	51		 push	 ecx
  01947	8b 55 08	 mov	 edx, DWORD PTR _lpObj$[ebp]
  0194a	8b 02		 mov	 eax, DWORD PTR [edx]
  0194c	50		 push	 eax
  0194d	e8 00 00 00 00	 call	 ?DataSend@@YAHHPAEK@Z	; DataSend
  01952	83 c4 0c	 add	 esp, 12			; 0000000cH

; 707  : 			// ----
; 708  : 			LogAddTD("[LuckyItem][Smelt Item Mix] Mix Fail [%s][%s] ", lpObj->AccountID, lpObj->Name);

  01955	8b 45 08	 mov	 eax, DWORD PTR _lpObj$[ebp]
  01958	83 c0 77	 add	 eax, 119		; 00000077H
  0195b	50		 push	 eax
  0195c	8b 4d 08	 mov	 ecx, DWORD PTR _lpObj$[ebp]
  0195f	83 c1 6c	 add	 ecx, 108		; 0000006cH
  01962	51		 push	 ecx
  01963	68 00 00 00 00	 push	 OFFSET ??_C@_0CP@DNEABLLB@?$FLLuckyItem?$FN?$FLSmelt?5Item?5Mix?$FN?5Mix?5@
  01968	ff 15 00 00 00
	00		 call	 DWORD PTR ?LogAddTD@@3P6AXPADZZA ; LogAddTD
  0196e	83 c4 0c	 add	 esp, 12			; 0000000cH

; 709  : 			// ----
; 710  : 			GCServerMsgStringSend(lMsg.Get(3375), lpObj->m_Index, 0x01);

  01971	6a 01		 push	 1
  01973	8b 45 08	 mov	 eax, DWORD PTR _lpObj$[ebp]
  01976	8b 08		 mov	 ecx, DWORD PTR [eax]
  01978	51		 push	 ecx
  01979	68 2f 0d 00 00	 push	 3375			; 00000d2fH
  0197e	b9 00 00 00 00	 mov	 ecx, OFFSET ?lMsg@@3VCMsg@@A ; lMsg
  01983	e8 00 00 00 00	 call	 ?Get@CMsg@@QAEPADH@Z	; CMsg::Get
  01988	50		 push	 eax
  01989	e8 00 00 00 00	 call	 ?GCServerMsgStringSend@@YAXPADHE@Z ; GCServerMsgStringSend
  0198e	83 c4 0c	 add	 esp, 12			; 0000000cH

; 711  : 			lpObj->ChaosLock = false;

  01991	8b 45 08	 mov	 eax, DWORD PTR _lpObj$[ebp]
  01994	c7 80 88 0e 00
	00 00 00 00 00	 mov	 DWORD PTR [eax+3720], 0

; 712  : 			return;

  0199e	e9 e3 00 00 00	 jmp	 $LN12@LuckyItemS

; 713  : 		}
; 714  : 		else

  019a3	eb 50		 jmp	 SHORT $LN1@LuckyItemS
$LN2@LuckyItemS:

; 715  : 		{
; 716  : #pragma message("#### FIX ME ####")
; 717  : 			//ItemSerialCreateSend(lpObj->m_Index, 0xFF, 0, 0, Type, level, 1, Op1, Op2, Op3, lpObj->m_Index, ExOption, 0, 0, 0, 0);
; 718  : 			ItemSerialCreateSend(lpObj->m_Index, 0xFF, 0, 0, Type, level, 1, Op1, Op2, Op3, lpObj->m_Index, ExOption, 0);			

  019a5	6a 00		 push	 0
  019a7	0f b6 85 ee fe
	ff ff		 movzx	 eax, BYTE PTR _ExOption$229899[ebp]
  019ae	50		 push	 eax
  019af	8b 4d 08	 mov	 ecx, DWORD PTR _lpObj$[ebp]
  019b2	8b 11		 mov	 edx, DWORD PTR [ecx]
  019b4	52		 push	 edx
  019b5	0f b6 85 ef fe
	ff ff		 movzx	 eax, BYTE PTR _Op3$229898[ebp]
  019bc	50		 push	 eax
  019bd	0f b6 8d f0 fe
	ff ff		 movzx	 ecx, BYTE PTR _Op2$229897[ebp]
  019c4	51		 push	 ecx
  019c5	0f b6 95 f1 fe
	ff ff		 movzx	 edx, BYTE PTR _Op1$229896[ebp]
  019cc	52		 push	 edx
  019cd	6a 01		 push	 1
  019cf	0f b6 85 f3 fe
	ff ff		 movzx	 eax, BYTE PTR _level$229894[ebp]
  019d6	50		 push	 eax
  019d7	8b 8d f4 fe ff
	ff		 mov	 ecx, DWORD PTR _Type$229893[ebp]
  019dd	51		 push	 ecx
  019de	6a 00		 push	 0
  019e0	6a 00		 push	 0
  019e2	68 ff 00 00 00	 push	 255			; 000000ffH
  019e7	8b 55 08	 mov	 edx, DWORD PTR _lpObj$[ebp]
  019ea	8b 02		 mov	 eax, DWORD PTR [edx]
  019ec	50		 push	 eax
  019ed	e8 00 00 00 00	 call	 ?ItemSerialCreateSend@@YAXHEEEHEEEEEHEE@Z ; ItemSerialCreateSend
  019f2	83 c4 34	 add	 esp, 52			; 00000034H
$LN1@LuckyItemS:

; 719  : 		}
; 720  : 		// ----
; 721  : 		LogAddTD("[LuckyItem][Smelt Item Mix] Mix Success [%s][%s] ItemName[%s] ItemNum[%d] Level[%d] Dur[%d] skill[%d] luck[%d] option[%d] ExOpt[%d]",
; 722  : 			lpObj->AccountID, lpObj->Name, ItemAttribute[Type].Name, Type, level, dur, Op1, Op2, Op3, ExOption);

  019f5	0f b6 85 ee fe
	ff ff		 movzx	 eax, BYTE PTR _ExOption$229899[ebp]
  019fc	50		 push	 eax
  019fd	0f b6 8d ef fe
	ff ff		 movzx	 ecx, BYTE PTR _Op3$229898[ebp]
  01a04	51		 push	 ecx
  01a05	0f b6 95 f0 fe
	ff ff		 movzx	 edx, BYTE PTR _Op2$229897[ebp]
  01a0c	52		 push	 edx
  01a0d	0f b6 85 f1 fe
	ff ff		 movzx	 eax, BYTE PTR _Op1$229896[ebp]
  01a14	50		 push	 eax
  01a15	0f b6 8d f2 fe
	ff ff		 movzx	 ecx, BYTE PTR _dur$229895[ebp]
  01a1c	51		 push	 ecx
  01a1d	0f b6 95 f3 fe
	ff ff		 movzx	 edx, BYTE PTR _level$229894[ebp]
  01a24	52		 push	 edx
  01a25	8b 85 f4 fe ff
	ff		 mov	 eax, DWORD PTR _Type$229893[ebp]
  01a2b	50		 push	 eax
  01a2c	8b 8d f4 fe ff
	ff		 mov	 ecx, DWORD PTR _Type$229893[ebp]
  01a32	6b c9 70	 imul	 ecx, 112		; 00000070H
  01a35	81 c1 00 00 00
	00		 add	 ecx, OFFSET ?ItemAttribute@@3PAUITEM_ATTRIBUTE@@A ; ItemAttribute
  01a3b	51		 push	 ecx
  01a3c	8b 55 08	 mov	 edx, DWORD PTR _lpObj$[ebp]
  01a3f	83 c2 77	 add	 edx, 119		; 00000077H
  01a42	52		 push	 edx
  01a43	8b 45 08	 mov	 eax, DWORD PTR _lpObj$[ebp]
  01a46	83 c0 6c	 add	 eax, 108		; 0000006cH
  01a49	50		 push	 eax
  01a4a	68 00 00 00 00	 push	 OFFSET ??_C@_0IE@EKAPFKKE@?$FLLuckyItem?$FN?$FLSmelt?5Item?5Mix?$FN?5Mix?5@
  01a4f	ff 15 00 00 00
	00		 call	 DWORD PTR ?LogAddTD@@3P6AXPADZZA ; LogAddTD
  01a55	83 c4 2c	 add	 esp, 44			; 0000002cH

; 723  : 		// ----
; 724  : 		gObjInventoryCommit(lpObj->m_Index);

  01a58	8b 45 08	 mov	 eax, DWORD PTR _lpObj$[ebp]
  01a5b	8b 08		 mov	 ecx, DWORD PTR [eax]
  01a5d	51		 push	 ecx
  01a5e	e8 00 00 00 00	 call	 ?gObjInventoryCommit@@YAHH@Z ; gObjInventoryCommit
  01a63	83 c4 04	 add	 esp, 4

; 725  : 		GCServerMsgStringSend(lMsg.Get(3376), lpObj->m_Index, 0x01);

  01a66	6a 01		 push	 1
  01a68	8b 45 08	 mov	 eax, DWORD PTR _lpObj$[ebp]
  01a6b	8b 08		 mov	 ecx, DWORD PTR [eax]
  01a6d	51		 push	 ecx
  01a6e	68 30 0d 00 00	 push	 3376			; 00000d30H
  01a73	b9 00 00 00 00	 mov	 ecx, OFFSET ?lMsg@@3VCMsg@@A ; lMsg
  01a78	e8 00 00 00 00	 call	 ?Get@CMsg@@QAEPADH@Z	; CMsg::Get
  01a7d	50		 push	 eax
  01a7e	e8 00 00 00 00	 call	 ?GCServerMsgStringSend@@YAXPADHE@Z ; GCServerMsgStringSend
  01a83	83 c4 0c	 add	 esp, 12			; 0000000cH
$LN3@LuckyItemS:
$LN12@LuckyItemS:

; 726  : 		return;
; 727  : 	}
; 728  : }

  01a86	5f		 pop	 edi
  01a87	5e		 pop	 esi
  01a88	5b		 pop	 ebx
  01a89	8b 4d fc	 mov	 ecx, DWORD PTR __$ArrayPad$[ebp]
  01a8c	33 cd		 xor	 ecx, ebp
  01a8e	e8 00 00 00 00	 call	 @__security_check_cookie@4
  01a93	8b e5		 mov	 esp, ebp
  01a95	5d		 pop	 ebp
  01a96	c2 04 00	 ret	 4
?LuckyItemSmelting@LuckyItemManager@@QAEXPAUOBJECTSTRUCT@@@Z ENDP ; LuckyItemManager::LuckyItemSmelting
_TEXT	ENDS
PUBLIC	??_C@_0DL@HFMKABAL@?$FLLuckyItem?$FN?5?9?5Gamble?5Smelting?5iR@ ; `string'
PUBLIC	__real@4058c00000000000
PUBLIC	__real@40dfffc000000000
;	COMDAT ??_C@_0DL@HFMKABAL@?$FLLuckyItem?$FN?5?9?5Gamble?5Smelting?5iR@
CONST	SEGMENT
??_C@_0DL@HFMKABAL@?$FLLuckyItem?$FN?5?9?5Gamble?5Smelting?5iR@ DB '[Luck'
	DB	'yItem] - Gamble Smelting iRand %d iRandRate %d Dur %d', 00H ; `string'
CONST	ENDS
;	COMDAT __real@4058c00000000000
CONST	SEGMENT
__real@4058c00000000000 DQ 04058c00000000000r	; 99
CONST	ENDS
;	COMDAT __real@40dfffc000000000
CONST	SEGMENT
__real@40dfffc000000000 DQ 040dfffc000000000r	; 32767
; Function compile flags: /Odtp /ZI
CONST	ENDS
_TEXT	SEGMENT
tv136 = -88						; size = 4
_iRand$ = -20						; size = 4
_i$229912 = -16						; size = 4
_SmeltRate$ = -12					; size = 4
_iRandRate$ = -8					; size = 4
_this$ = -4						; size = 4
_iItemNum$ = 8						; size = 4
_iDur$ = 12						; size = 4
?GambleLuckyItemSmelting@LuckyItemManager@@QAEHHH@Z PROC ; LuckyItemManager::GambleLuckyItemSmelting
; _this$ = ecx

; 733  : {

  01aa0	55		 push	 ebp
  01aa1	8b ec		 mov	 ebp, esp
  01aa3	83 ec 58	 sub	 esp, 88			; 00000058H
  01aa6	53		 push	 ebx
  01aa7	56		 push	 esi
  01aa8	57		 push	 edi
  01aa9	89 4d fc	 mov	 DWORD PTR _this$[ebp], ecx

; 734  : #if( LUCKYITEM_DEBUG == 1 )
; 735  : 	LogAddC(2, "[DEBUG] [%s] Start", __FUNCTION__);
; 736  : #endif
; 737  : 	int iRandRate			= 0;	//ebp-0c

  01aac	c7 45 f8 00 00
	00 00		 mov	 DWORD PTR _iRandRate$[ebp], 0

; 738  : 	_SMELT_RATE * SmeltRate = this->GetSmeltingRateInfo(iItemNum);	//ebp-8

  01ab3	8b 45 08	 mov	 eax, DWORD PTR _iItemNum$[ebp]
  01ab6	50		 push	 eax
  01ab7	8b 4d fc	 mov	 ecx, DWORD PTR _this$[ebp]
  01aba	e8 00 00 00 00	 call	 ?GetSmeltingRateInfo@LuckyItemManager@@QAEPAU_SMELT_RATE@@H@Z ; LuckyItemManager::GetSmeltingRateInfo
  01abf	89 45 f4	 mov	 DWORD PTR _SmeltRate$[ebp], eax

; 739  : 	// ----
; 740  : 	for( int i = 0; i < MAX_LUCKYINFO_SMELTRATE; i++ )	//ebp-10

  01ac2	c7 45 f0 00 00
	00 00		 mov	 DWORD PTR _i$229912[ebp], 0
  01ac9	eb 09		 jmp	 SHORT $LN5@GambleLuck
$LN4@GambleLuck:
  01acb	8b 45 f0	 mov	 eax, DWORD PTR _i$229912[ebp]
  01ace	83 c0 01	 add	 eax, 1
  01ad1	89 45 f0	 mov	 DWORD PTR _i$229912[ebp], eax
$LN5@GambleLuck:
  01ad4	83 7d f0 0a	 cmp	 DWORD PTR _i$229912[ebp], 10 ; 0000000aH
  01ad8	7d 37		 jge	 SHORT $LN3@GambleLuck

; 741  : 	{
; 742  : 		if( iDur <= SmeltRate[i].MaxDur && iDur >= SmeltRate[i].MinDur )

  01ada	8b 45 f0	 mov	 eax, DWORD PTR _i$229912[ebp]
  01add	6b c0 0c	 imul	 eax, 12			; 0000000cH
  01ae0	8b 4d f4	 mov	 ecx, DWORD PTR _SmeltRate$[ebp]
  01ae3	8b 55 0c	 mov	 edx, DWORD PTR _iDur$[ebp]
  01ae6	3b 54 01 04	 cmp	 edx, DWORD PTR [ecx+eax+4]
  01aea	7f 23		 jg	 SHORT $LN2@GambleLuck
  01aec	8b 45 f0	 mov	 eax, DWORD PTR _i$229912[ebp]
  01aef	6b c0 0c	 imul	 eax, 12			; 0000000cH
  01af2	8b 4d f4	 mov	 ecx, DWORD PTR _SmeltRate$[ebp]
  01af5	8b 55 0c	 mov	 edx, DWORD PTR _iDur$[ebp]
  01af8	3b 14 01	 cmp	 edx, DWORD PTR [ecx+eax]
  01afb	7c 12		 jl	 SHORT $LN2@GambleLuck

; 743  : 		{
; 744  : 			iRandRate = SmeltRate[i].SmeltRate;

  01afd	8b 45 f0	 mov	 eax, DWORD PTR _i$229912[ebp]
  01b00	6b c0 0c	 imul	 eax, 12			; 0000000cH
  01b03	8b 4d f4	 mov	 ecx, DWORD PTR _SmeltRate$[ebp]
  01b06	8b 54 01 08	 mov	 edx, DWORD PTR [ecx+eax+8]
  01b0a	89 55 f8	 mov	 DWORD PTR _iRandRate$[ebp], edx

; 745  : 			break;

  01b0d	eb 02		 jmp	 SHORT $LN3@GambleLuck
$LN2@GambleLuck:

; 746  : 		}
; 747  : 	}

  01b0f	eb ba		 jmp	 SHORT $LN4@GambleLuck
$LN3@GambleLuck:

; 748  : 	// ----
; 749  : 	int iRand = (int)(rand() / 32767.0f * 99.0f);

  01b11	e8 00 00 00 00	 call	 _rand
  01b16	89 45 a8	 mov	 DWORD PTR tv136[ebp], eax
  01b19	db 45 a8	 fild	 DWORD PTR tv136[ebp]
  01b1c	dc 35 00 00 00
	00		 fdiv	 QWORD PTR __real@40dfffc000000000
  01b22	dc 0d 00 00 00
	00		 fmul	 QWORD PTR __real@4058c00000000000
  01b28	e8 00 00 00 00	 call	 __ftol2_sse
  01b2d	89 45 ec	 mov	 DWORD PTR _iRand$[ebp], eax

; 750  : 	LogAddTD("[LuckyItem] - Gamble Smelting iRand %d iRandRate %d Dur %d", iRand, iRandRate, iDur);

  01b30	8b 45 0c	 mov	 eax, DWORD PTR _iDur$[ebp]
  01b33	50		 push	 eax
  01b34	8b 4d f8	 mov	 ecx, DWORD PTR _iRandRate$[ebp]
  01b37	51		 push	 ecx
  01b38	8b 55 ec	 mov	 edx, DWORD PTR _iRand$[ebp]
  01b3b	52		 push	 edx
  01b3c	68 00 00 00 00	 push	 OFFSET ??_C@_0DL@HFMKABAL@?$FLLuckyItem?$FN?5?9?5Gamble?5Smelting?5iR@
  01b41	ff 15 00 00 00
	00		 call	 DWORD PTR ?LogAddTD@@3P6AXPADZZA ; LogAddTD
  01b47	83 c4 10	 add	 esp, 16			; 00000010H

; 751  : 	// ----
; 752  : 	if( iRand < iRandRate )

  01b4a	8b 45 ec	 mov	 eax, DWORD PTR _iRand$[ebp]
  01b4d	3b 45 f8	 cmp	 eax, DWORD PTR _iRandRate$[ebp]
  01b50	7d 07		 jge	 SHORT $LN1@GambleLuck

; 753  : 	{
; 754  : 		return true;

  01b52	b8 01 00 00 00	 mov	 eax, 1
  01b57	eb 02		 jmp	 SHORT $LN6@GambleLuck
$LN1@GambleLuck:

; 755  : 	}
; 756  : 	// -----
; 757  : 	return false;

  01b59	33 c0		 xor	 eax, eax
$LN6@GambleLuck:

; 758  : }

  01b5b	5f		 pop	 edi
  01b5c	5e		 pop	 esi
  01b5d	5b		 pop	 ebx
  01b5e	8b e5		 mov	 esp, ebp
  01b60	5d		 pop	 ebp
  01b61	c2 08 00	 ret	 8
?GambleLuckyItemSmelting@LuckyItemManager@@QAEHHH@Z ENDP ; LuckyItemManager::GambleLuckyItemSmelting
_TEXT	ENDS
PUBLIC	?GetLuckyItemDurabilityTime@LuckyItemManager@@QAEHXZ ; LuckyItemManager::GetLuckyItemDurabilityTime
; Function compile flags: /Odtp /ZI
_TEXT	SEGMENT
_this$ = -4						; size = 4
?GetLuckyItemDurabilityTime@LuckyItemManager@@QAEHXZ PROC ; LuckyItemManager::GetLuckyItemDurabilityTime
; _this$ = ecx

; 763  : {

  01b70	55		 push	 ebp
  01b71	8b ec		 mov	 ebp, esp
  01b73	83 ec 44	 sub	 esp, 68			; 00000044H
  01b76	53		 push	 ebx
  01b77	56		 push	 esi
  01b78	57		 push	 edi
  01b79	89 4d fc	 mov	 DWORD PTR _this$[ebp], ecx

; 764  : #if( LUCKYITEM_DEBUG == 1 )
; 765  : 	LogAddC(2, "[DEBUG] [%s] Start", __FUNCTION__);
; 766  : #endif
; 767  : 	return 2400;//g_LuckyItemDurabilityTime;

  01b7c	b8 60 09 00 00	 mov	 eax, 2400		; 00000960H

; 768  : }

  01b81	5f		 pop	 edi
  01b82	5e		 pop	 esi
  01b83	5b		 pop	 ebx
  01b84	8b e5		 mov	 esp, ebp
  01b86	5d		 pop	 ebp
  01b87	c3		 ret	 0
?GetLuckyItemDurabilityTime@LuckyItemManager@@QAEHXZ ENDP ; LuckyItemManager::GetLuckyItemDurabilityTime
_TEXT	ENDS
PUBLIC	?GetLevel@LuckyItemManager@@QAEEHH@Z		; LuckyItemManager::GetLevel
; Function compile flags: /Odtp /ZI
_TEXT	SEGMENT
_level$ = -12						; size = 4
_sub$ = -8						; size = 4
_this$ = -4						; size = 4
_iMinLv$ = 8						; size = 4
_iMaxLv$ = 12						; size = 4
?GetLevel@LuckyItemManager@@QAEEHH@Z PROC		; LuckyItemManager::GetLevel
; _this$ = ecx

; 773  : {

  01b90	55		 push	 ebp
  01b91	8b ec		 mov	 ebp, esp
  01b93	83 ec 4c	 sub	 esp, 76			; 0000004cH
  01b96	53		 push	 ebx
  01b97	56		 push	 esi
  01b98	57		 push	 edi
  01b99	89 4d fc	 mov	 DWORD PTR _this$[ebp], ecx

; 774  : #if( LUCKYITEM_DEBUG == 1 )
; 775  : 	LogAddC(2, "[DEBUG] [%s] Start", __FUNCTION__);
; 776  : #endif
; 777  : 	if( iMinLv == iMaxLv )

  01b9c	8b 45 08	 mov	 eax, DWORD PTR _iMinLv$[ebp]
  01b9f	3b 45 0c	 cmp	 eax, DWORD PTR _iMaxLv$[ebp]
  01ba2	75 05		 jne	 SHORT $LN1@GetLevel

; 778  : 	{
; 779  : 		return iMinLv;

  01ba4	8a 45 08	 mov	 al, BYTE PTR _iMinLv$[ebp]
  01ba7	eb 1e		 jmp	 SHORT $LN2@GetLevel
$LN1@GetLevel:

; 780  : 	}
; 781  : 	// ----
; 782  : 	int sub		= iMaxLv - iMinLv + 1;		//ebp-8

  01ba9	8b 45 0c	 mov	 eax, DWORD PTR _iMaxLv$[ebp]
  01bac	2b 45 08	 sub	 eax, DWORD PTR _iMinLv$[ebp]
  01baf	83 c0 01	 add	 eax, 1
  01bb2	89 45 f8	 mov	 DWORD PTR _sub$[ebp], eax

; 783  : 	int level	= rand() % sub + iMinLv;	//ebp-0c

  01bb5	e8 00 00 00 00	 call	 _rand
  01bba	99		 cdq
  01bbb	f7 7d f8	 idiv	 DWORD PTR _sub$[ebp]
  01bbe	03 55 08	 add	 edx, DWORD PTR _iMinLv$[ebp]
  01bc1	89 55 f4	 mov	 DWORD PTR _level$[ebp], edx

; 784  : 	// ----
; 785  : 	return level;

  01bc4	8a 45 f4	 mov	 al, BYTE PTR _level$[ebp]
$LN2@GetLevel:

; 786  : }

  01bc7	5f		 pop	 edi
  01bc8	5e		 pop	 esi
  01bc9	5b		 pop	 ebx
  01bca	8b e5		 mov	 esp, ebp
  01bcc	5d		 pop	 ebp
  01bcd	c2 08 00	 ret	 8
?GetLevel@LuckyItemManager@@QAEEHH@Z ENDP		; LuckyItemManager::GetLevel
_TEXT	ENDS
PUBLIC	??_C@_0DN@KBJGOMDF@?$FLLuckyItem?$FN?$FLRepaireItemUsed?$FN?5?9?5S@ ; `string'
PUBLIC	__real@406fe00000000000
PUBLIC	??_C@_0FE@JDOHOIGK@?$FLLuckyItem?$FN?$FLRepaireItemUsed?$FN?5?9?5F@ ; `string'
PUBLIC	??_C@_0EK@EAMADFDG@?$FLLuckyItem?$FN?$FLRepaireItemUsed?$FN?5?9?5F@ ; `string'
PUBLIC	__real@0000000000000000
PUBLIC	??_C@_0FC@OLGFGFCA@?$FLLuckyItem?$FN?$FLRepaireItemUsed?$FN?5?9?5F@ ; `string'
PUBLIC	?LuckyItemRepaire@LuckyItemManager@@QAEHPAUOBJECTSTRUCT@@HH@Z ; LuckyItemManager::LuckyItemRepaire
;	COMDAT ??_C@_0DN@KBJGOMDF@?$FLLuckyItem?$FN?$FLRepaireItemUsed?$FN?5?9?5S@
CONST	SEGMENT
??_C@_0DN@KBJGOMDF@?$FLLuckyItem?$FN?$FLRepaireItemUsed?$FN?5?9?5S@ DB '['
	DB	'LuckyItem][RepaireItemUsed] - Success - [%s][%s] Serial[%u]', 00H ; `string'
CONST	ENDS
;	COMDAT __real@406fe00000000000
CONST	SEGMENT
__real@406fe00000000000 DQ 0406fe00000000000r	; 255
CONST	ENDS
;	COMDAT ??_C@_0FE@JDOHOIGK@?$FLLuckyItem?$FN?$FLRepaireItemUsed?$FN?5?9?5F@
CONST	SEGMENT
??_C@_0FE@JDOHOIGK@?$FLLuckyItem?$FN?$FLRepaireItemUsed?$FN?5?9?5F@ DB '['
	DB	'LuckyItem][RepaireItemUsed] - Fail - Equipment Full Durabilit'
	DB	'y [%s][%s] Serial[%u]', 00H			; `string'
CONST	ENDS
;	COMDAT ??_C@_0EK@EAMADFDG@?$FLLuckyItem?$FN?$FLRepaireItemUsed?$FN?5?9?5F@
CONST	SEGMENT
??_C@_0EK@EAMADFDG@?$FLLuckyItem?$FN?$FLRepaireItemUsed?$FN?5?9?5F@ DB '['
	DB	'LuckyItem][RepaireItemUsed] - Fail - Durability Zero [%s][%s]'
	DB	' Serial[%u]', 00H				; `string'
CONST	ENDS
;	COMDAT __real@0000000000000000
CONST	SEGMENT
__real@0000000000000000 DQ 00000000000000000r	; 0
CONST	ENDS
;	COMDAT ??_C@_0FC@OLGFGFCA@?$FLLuckyItem?$FN?$FLRepaireItemUsed?$FN?5?9?5F@
CONST	SEGMENT
??_C@_0FC@OLGFGFCA@?$FLLuckyItem?$FN?$FLRepaireItemUsed?$FN?5?9?5F@ DB '['
	DB	'LuckyItem][RepaireItemUsed] - Fail - Not LuckyItem Equipment '
	DB	'[%s][%s] Serial[%u]', 00H			; `string'
; Function compile flags: /Odtp /ZI
CONST	ENDS
_TEXT	SEGMENT
tv276 = -84						; size = 4
tv266 = -84						; size = 4
tv252 = -84						; size = 4
_bLuckyItemEquipment$ = -16				; size = 4
_LuckyItemEquipment$ = -12				; size = 4
_iAddDur$ = -8						; size = 4
_this$ = -4						; size = 4
_lpObj$ = 8						; size = 4
_source$ = 12						; size = 4
_target$ = 16						; size = 4
?LuckyItemRepaire@LuckyItemManager@@QAEHPAUOBJECTSTRUCT@@HH@Z PROC ; LuckyItemManager::LuckyItemRepaire
; _this$ = ecx

; 791  : {

  01bd0	55		 push	 ebp
  01bd1	8b ec		 mov	 ebp, esp
  01bd3	83 ec 54	 sub	 esp, 84			; 00000054H
  01bd6	53		 push	 ebx
  01bd7	56		 push	 esi
  01bd8	57		 push	 edi
  01bd9	89 4d fc	 mov	 DWORD PTR _this$[ebp], ecx

; 792  : #if( LUCKYITEM_DEBUG == 1 )
; 793  : 	LogAddC(2, "[DEBUG] [%s] Start", __FUNCTION__);
; 794  : #endif
; 795  : 	int iAddDur = 255;	//ebp-8

  01bdc	c7 45 f8 ff 00
	00 00		 mov	 DWORD PTR _iAddDur$[ebp], 255 ; 000000ffH

; 796  : 	// ----
; 797  : 	if( source < 0 || source > MAIN_INVENTORY_SIZE-1 )

  01be3	83 7d 0c 00	 cmp	 DWORD PTR _source$[ebp], 0
  01be7	7c 09		 jl	 SHORT $LN10@LuckyItemR
  01be9	81 7d 0c cb 00
	00 00		 cmp	 DWORD PTR _source$[ebp], 203 ; 000000cbH
  01bf0	7e 07		 jle	 SHORT $LN11@LuckyItemR
$LN10@LuckyItemR:

; 798  : 	{
; 799  : 		return false;

  01bf2	33 c0		 xor	 eax, eax
  01bf4	e9 3f 02 00 00	 jmp	 $LN12@LuckyItemR
$LN11@LuckyItemR:

; 800  : 	}
; 801  : 	// ----
; 802  : 	if( target < 0 || target > MAIN_INVENTORY_SIZE-1 )

  01bf9	83 7d 10 00	 cmp	 DWORD PTR _target$[ebp], 0
  01bfd	7c 09		 jl	 SHORT $LN8@LuckyItemR
  01bff	81 7d 10 cb 00
	00 00		 cmp	 DWORD PTR _target$[ebp], 203 ; 000000cbH
  01c06	7e 07		 jle	 SHORT $LN9@LuckyItemR
$LN8@LuckyItemR:

; 803  : 	{
; 804  : 		return false;

  01c08	33 c0		 xor	 eax, eax
  01c0a	e9 29 02 00 00	 jmp	 $LN12@LuckyItemR
$LN9@LuckyItemR:

; 805  : 	}
; 806  : 	// ----
; 807  : 	if( !lpObj->pInventory[source].IsItem() || !lpObj->pInventory[target].IsItem() )

  01c0f	8b 4d 0c	 mov	 ecx, DWORD PTR _source$[ebp]
  01c12	69 c9 d4 00 00
	00		 imul	 ecx, 212		; 000000d4H
  01c18	8b 45 08	 mov	 eax, DWORD PTR _lpObj$[ebp]
  01c1b	03 88 24 0e 00
	00		 add	 ecx, DWORD PTR [eax+3620]
  01c21	e8 00 00 00 00	 call	 ?IsItem@CItem@@QAEHXZ	; CItem::IsItem
  01c26	85 c0		 test	 eax, eax
  01c28	74 1b		 je	 SHORT $LN6@LuckyItemR
  01c2a	8b 4d 10	 mov	 ecx, DWORD PTR _target$[ebp]
  01c2d	69 c9 d4 00 00
	00		 imul	 ecx, 212		; 000000d4H
  01c33	8b 45 08	 mov	 eax, DWORD PTR _lpObj$[ebp]
  01c36	03 88 24 0e 00
	00		 add	 ecx, DWORD PTR [eax+3620]
  01c3c	e8 00 00 00 00	 call	 ?IsItem@CItem@@QAEHXZ	; CItem::IsItem
  01c41	85 c0		 test	 eax, eax
  01c43	75 07		 jne	 SHORT $LN7@LuckyItemR
$LN6@LuckyItemR:

; 808  : 	{
; 809  : 		return false;

  01c45	33 c0		 xor	 eax, eax
  01c47	e9 ec 01 00 00	 jmp	 $LN12@LuckyItemR
$LN7@LuckyItemR:

; 810  : 	}
; 811  : 	// ----
; 812  : 	CItem * LuckyItemEquipment	= &lpObj->pInventory[target];	//ebp-0c

  01c4c	8b 45 10	 mov	 eax, DWORD PTR _target$[ebp]
  01c4f	69 c0 d4 00 00
	00		 imul	 eax, 212		; 000000d4H
  01c55	8b 4d 08	 mov	 ecx, DWORD PTR _lpObj$[ebp]
  01c58	03 81 24 0e 00
	00		 add	 eax, DWORD PTR [ecx+3620]
  01c5e	89 45 f4	 mov	 DWORD PTR _LuckyItemEquipment$[ebp], eax

; 813  : 	int	bLuckyItemEquipment		= this->IsLuckyItemEquipment(LuckyItemEquipment->m_Type);	//ebp-10

  01c61	8b 45 f4	 mov	 eax, DWORD PTR _LuckyItemEquipment$[ebp]
  01c64	0f bf 48 06	 movsx	 ecx, WORD PTR [eax+6]
  01c68	51		 push	 ecx
  01c69	8b 4d fc	 mov	 ecx, DWORD PTR _this$[ebp]
  01c6c	e8 00 00 00 00	 call	 ?IsLuckyItemEquipment@LuckyItemManager@@QAEHH@Z ; LuckyItemManager::IsLuckyItemEquipment
  01c71	89 45 f0	 mov	 DWORD PTR _bLuckyItemEquipment$[ebp], eax

; 814  : 	// ----
; 815  : 	if( !bLuckyItemEquipment )

  01c74	83 7d f0 00	 cmp	 DWORD PTR _bLuckyItemEquipment$[ebp], 0
  01c78	75 4b		 jne	 SHORT $LN5@LuckyItemR

; 816  : 	{
; 817  : 		GCServerMsgStringSend(lMsg.Get(3474), lpObj->m_Index, 1);

  01c7a	6a 01		 push	 1
  01c7c	8b 45 08	 mov	 eax, DWORD PTR _lpObj$[ebp]
  01c7f	8b 08		 mov	 ecx, DWORD PTR [eax]
  01c81	51		 push	 ecx
  01c82	68 92 0d 00 00	 push	 3474			; 00000d92H
  01c87	b9 00 00 00 00	 mov	 ecx, OFFSET ?lMsg@@3VCMsg@@A ; lMsg
  01c8c	e8 00 00 00 00	 call	 ?Get@CMsg@@QAEPADH@Z	; CMsg::Get
  01c91	50		 push	 eax
  01c92	e8 00 00 00 00	 call	 ?GCServerMsgStringSend@@YAXPADHE@Z ; GCServerMsgStringSend
  01c97	83 c4 0c	 add	 esp, 12			; 0000000cH

; 818  : 		LogAddTD("[LuckyItem][RepaireItemUsed] - Fail - Not LuckyItem Equipment [%s][%s] Serial[%u]",
; 819  : 			lpObj->AccountID, lpObj->Name, LuckyItemEquipment->m_serial);

  01c9a	8b 45 f4	 mov	 eax, DWORD PTR _LuckyItemEquipment$[ebp]
  01c9d	0f be 48 04	 movsx	 ecx, BYTE PTR [eax+4]
  01ca1	51		 push	 ecx
  01ca2	8b 55 08	 mov	 edx, DWORD PTR _lpObj$[ebp]
  01ca5	83 c2 77	 add	 edx, 119		; 00000077H
  01ca8	52		 push	 edx
  01ca9	8b 45 08	 mov	 eax, DWORD PTR _lpObj$[ebp]
  01cac	83 c0 6c	 add	 eax, 108		; 0000006cH
  01caf	50		 push	 eax
  01cb0	68 00 00 00 00	 push	 OFFSET ??_C@_0FC@OLGFGFCA@?$FLLuckyItem?$FN?$FLRepaireItemUsed?$FN?5?9?5F@
  01cb5	ff 15 00 00 00
	00		 call	 DWORD PTR ?LogAddTD@@3P6AXPADZZA ; LogAddTD
  01cbb	83 c4 10	 add	 esp, 16			; 00000010H

; 820  : 		return false;

  01cbe	33 c0		 xor	 eax, eax
  01cc0	e9 73 01 00 00	 jmp	 $LN12@LuckyItemR
$LN5@LuckyItemR:

; 821  : 	}
; 822  : 	// ----
; 823  : 	if( LuckyItemEquipment->m_Durability == 0.0f )

  01cc5	8b 45 f4	 mov	 eax, DWORD PTR _LuckyItemEquipment$[ebp]
  01cc8	d9 40 24	 fld	 DWORD PTR [eax+36]
  01ccb	d9 ee		 fldz
  01ccd	da e9		 fucompp
  01ccf	df e0		 fnstsw	 ax
  01cd1	f6 c4 44	 test	 ah, 68			; 00000044H
  01cd4	7a 4b		 jp	 SHORT $LN4@LuckyItemR

; 824  : 	{
; 825  : 		GCServerMsgStringSend(lMsg.Get(3475), lpObj->m_Index, 1);

  01cd6	6a 01		 push	 1
  01cd8	8b 45 08	 mov	 eax, DWORD PTR _lpObj$[ebp]
  01cdb	8b 08		 mov	 ecx, DWORD PTR [eax]
  01cdd	51		 push	 ecx
  01cde	68 93 0d 00 00	 push	 3475			; 00000d93H
  01ce3	b9 00 00 00 00	 mov	 ecx, OFFSET ?lMsg@@3VCMsg@@A ; lMsg
  01ce8	e8 00 00 00 00	 call	 ?Get@CMsg@@QAEPADH@Z	; CMsg::Get
  01ced	50		 push	 eax
  01cee	e8 00 00 00 00	 call	 ?GCServerMsgStringSend@@YAXPADHE@Z ; GCServerMsgStringSend
  01cf3	83 c4 0c	 add	 esp, 12			; 0000000cH

; 826  : 		LogAddTD("[LuckyItem][RepaireItemUsed] - Fail - Durability Zero [%s][%s] Serial[%u]",
; 827  : 			lpObj->AccountID, lpObj->Name, LuckyItemEquipment->m_serial);

  01cf6	8b 45 f4	 mov	 eax, DWORD PTR _LuckyItemEquipment$[ebp]
  01cf9	0f be 48 04	 movsx	 ecx, BYTE PTR [eax+4]
  01cfd	51		 push	 ecx
  01cfe	8b 55 08	 mov	 edx, DWORD PTR _lpObj$[ebp]
  01d01	83 c2 77	 add	 edx, 119		; 00000077H
  01d04	52		 push	 edx
  01d05	8b 45 08	 mov	 eax, DWORD PTR _lpObj$[ebp]
  01d08	83 c0 6c	 add	 eax, 108		; 0000006cH
  01d0b	50		 push	 eax
  01d0c	68 00 00 00 00	 push	 OFFSET ??_C@_0EK@EAMADFDG@?$FLLuckyItem?$FN?$FLRepaireItemUsed?$FN?5?9?5F@
  01d11	ff 15 00 00 00
	00		 call	 DWORD PTR ?LogAddTD@@3P6AXPADZZA ; LogAddTD
  01d17	83 c4 10	 add	 esp, 16			; 00000010H

; 828  : 		return false;

  01d1a	33 c0		 xor	 eax, eax
  01d1c	e9 17 01 00 00	 jmp	 $LN12@LuckyItemR
$LN4@LuckyItemR:

; 829  : 	}
; 830  : 	// ----
; 831  : 	if( ItemAttribute[LuckyItemEquipment->m_Type].Durability < LuckyItemEquipment->m_Durability )

  01d21	8b 45 f4	 mov	 eax, DWORD PTR _LuckyItemEquipment$[ebp]
  01d24	0f bf 48 06	 movsx	 ecx, WORD PTR [eax+6]
  01d28	6b c9 70	 imul	 ecx, 112		; 00000070H
  01d2b	0f b6 91 30 00
	00 00		 movzx	 edx, BYTE PTR ?ItemAttribute@@3PAUITEM_ATTRIBUTE@@A[ecx+48]
  01d32	89 55 ac	 mov	 DWORD PTR tv252[ebp], edx
  01d35	db 45 ac	 fild	 DWORD PTR tv252[ebp]
  01d38	8b 45 f4	 mov	 eax, DWORD PTR _LuckyItemEquipment$[ebp]
  01d3b	d9 40 24	 fld	 DWORD PTR [eax+36]
  01d3e	de d9		 fcompp
  01d40	df e0		 fnstsw	 ax
  01d42	f6 c4 41	 test	 ah, 65			; 00000041H
  01d45	75 4b		 jne	 SHORT $LN3@LuckyItemR

; 832  : 	{
; 833  : 		GCServerMsgStringSend(lMsg.Get(3475), lpObj->m_Index, 1);

  01d47	6a 01		 push	 1
  01d49	8b 45 08	 mov	 eax, DWORD PTR _lpObj$[ebp]
  01d4c	8b 08		 mov	 ecx, DWORD PTR [eax]
  01d4e	51		 push	 ecx
  01d4f	68 93 0d 00 00	 push	 3475			; 00000d93H
  01d54	b9 00 00 00 00	 mov	 ecx, OFFSET ?lMsg@@3VCMsg@@A ; lMsg
  01d59	e8 00 00 00 00	 call	 ?Get@CMsg@@QAEPADH@Z	; CMsg::Get
  01d5e	50		 push	 eax
  01d5f	e8 00 00 00 00	 call	 ?GCServerMsgStringSend@@YAXPADHE@Z ; GCServerMsgStringSend
  01d64	83 c4 0c	 add	 esp, 12			; 0000000cH

; 834  : 		LogAddTD("[LuckyItem][RepaireItemUsed] - Fail - Equipment Full Durability [%s][%s] Serial[%u]",
; 835  : 			lpObj->AccountID, lpObj->Name, LuckyItemEquipment->m_serial);

  01d67	8b 45 f4	 mov	 eax, DWORD PTR _LuckyItemEquipment$[ebp]
  01d6a	0f be 48 04	 movsx	 ecx, BYTE PTR [eax+4]
  01d6e	51		 push	 ecx
  01d6f	8b 55 08	 mov	 edx, DWORD PTR _lpObj$[ebp]
  01d72	83 c2 77	 add	 edx, 119		; 00000077H
  01d75	52		 push	 edx
  01d76	8b 45 08	 mov	 eax, DWORD PTR _lpObj$[ebp]
  01d79	83 c0 6c	 add	 eax, 108		; 0000006cH
  01d7c	50		 push	 eax
  01d7d	68 00 00 00 00	 push	 OFFSET ??_C@_0FE@JDOHOIGK@?$FLLuckyItem?$FN?$FLRepaireItemUsed?$FN?5?9?5F@
  01d82	ff 15 00 00 00
	00		 call	 DWORD PTR ?LogAddTD@@3P6AXPADZZA ; LogAddTD
  01d88	83 c4 10	 add	 esp, 16			; 00000010H

; 836  : 		return false;

  01d8b	33 c0		 xor	 eax, eax
  01d8d	e9 a6 00 00 00	 jmp	 $LN12@LuckyItemR
$LN3@LuckyItemR:

; 837  : 	}
; 838  : 	// ----
; 839  : 	if( ItemAttribute[LuckyItemEquipment->m_Type].Durability >= LuckyItemEquipment->m_Durability + 255.0f )

  01d92	8b 45 f4	 mov	 eax, DWORD PTR _LuckyItemEquipment$[ebp]
  01d95	0f bf 48 06	 movsx	 ecx, WORD PTR [eax+6]
  01d99	6b c9 70	 imul	 ecx, 112		; 00000070H
  01d9c	0f b6 91 30 00
	00 00		 movzx	 edx, BYTE PTR ?ItemAttribute@@3PAUITEM_ATTRIBUTE@@A[ecx+48]
  01da3	89 55 ac	 mov	 DWORD PTR tv266[ebp], edx
  01da6	db 45 ac	 fild	 DWORD PTR tv266[ebp]
  01da9	8b 45 f4	 mov	 eax, DWORD PTR _LuckyItemEquipment$[ebp]
  01dac	d9 40 24	 fld	 DWORD PTR [eax+36]
  01daf	dc 05 00 00 00
	00		 fadd	 QWORD PTR __real@406fe00000000000
  01db5	de d9		 fcompp
  01db7	df e0		 fnstsw	 ax
  01db9	f6 c4 41	 test	 ah, 65			; 00000041H
  01dbc	7a 14		 jp	 SHORT $LN2@LuckyItemR

; 840  : 	{
; 841  : 		LuckyItemEquipment->m_Durability += 255.0f;

  01dbe	8b 45 f4	 mov	 eax, DWORD PTR _LuckyItemEquipment$[ebp]
  01dc1	d9 40 24	 fld	 DWORD PTR [eax+36]
  01dc4	dc 05 00 00 00
	00		 fadd	 QWORD PTR __real@406fe00000000000
  01dca	8b 4d f4	 mov	 ecx, DWORD PTR _LuckyItemEquipment$[ebp]
  01dcd	d9 59 24	 fstp	 DWORD PTR [ecx+36]

; 842  : 	}
; 843  : 	else

  01dd0	eb 1d		 jmp	 SHORT $LN1@LuckyItemR
$LN2@LuckyItemR:

; 844  : 	{
; 845  : 		LuckyItemEquipment->m_Durability = ItemAttribute[LuckyItemEquipment->m_Type].Durability;

  01dd2	8b 45 f4	 mov	 eax, DWORD PTR _LuckyItemEquipment$[ebp]
  01dd5	0f bf 48 06	 movsx	 ecx, WORD PTR [eax+6]
  01dd9	6b c9 70	 imul	 ecx, 112		; 00000070H
  01ddc	0f b6 91 30 00
	00 00		 movzx	 edx, BYTE PTR ?ItemAttribute@@3PAUITEM_ATTRIBUTE@@A[ecx+48]
  01de3	89 55 ac	 mov	 DWORD PTR tv276[ebp], edx
  01de6	db 45 ac	 fild	 DWORD PTR tv276[ebp]
  01de9	8b 45 f4	 mov	 eax, DWORD PTR _LuckyItemEquipment$[ebp]
  01dec	d9 58 24	 fstp	 DWORD PTR [eax+36]
$LN1@LuckyItemR:

; 846  : 	}
; 847  : 	// ----
; 848  : 	GCServerMsgStringSend(lMsg.Get(3478), lpObj->m_Index, 1);

  01def	6a 01		 push	 1
  01df1	8b 45 08	 mov	 eax, DWORD PTR _lpObj$[ebp]
  01df4	8b 08		 mov	 ecx, DWORD PTR [eax]
  01df6	51		 push	 ecx
  01df7	68 96 0d 00 00	 push	 3478			; 00000d96H
  01dfc	b9 00 00 00 00	 mov	 ecx, OFFSET ?lMsg@@3VCMsg@@A ; lMsg
  01e01	e8 00 00 00 00	 call	 ?Get@CMsg@@QAEPADH@Z	; CMsg::Get
  01e06	50		 push	 eax
  01e07	e8 00 00 00 00	 call	 ?GCServerMsgStringSend@@YAXPADHE@Z ; GCServerMsgStringSend
  01e0c	83 c4 0c	 add	 esp, 12			; 0000000cH

; 849  : 	LogAddTD("[LuckyItem][RepaireItemUsed] - Success - [%s][%s] Serial[%u]",
; 850  : 		lpObj->AccountID, lpObj->Name, LuckyItemEquipment->m_serial);

  01e0f	8b 45 f4	 mov	 eax, DWORD PTR _LuckyItemEquipment$[ebp]
  01e12	0f be 48 04	 movsx	 ecx, BYTE PTR [eax+4]
  01e16	51		 push	 ecx
  01e17	8b 55 08	 mov	 edx, DWORD PTR _lpObj$[ebp]
  01e1a	83 c2 77	 add	 edx, 119		; 00000077H
  01e1d	52		 push	 edx
  01e1e	8b 45 08	 mov	 eax, DWORD PTR _lpObj$[ebp]
  01e21	83 c0 6c	 add	 eax, 108		; 0000006cH
  01e24	50		 push	 eax
  01e25	68 00 00 00 00	 push	 OFFSET ??_C@_0DN@KBJGOMDF@?$FLLuckyItem?$FN?$FLRepaireItemUsed?$FN?5?9?5S@
  01e2a	ff 15 00 00 00
	00		 call	 DWORD PTR ?LogAddTD@@3P6AXPADZZA ; LogAddTD
  01e30	83 c4 10	 add	 esp, 16			; 00000010H

; 851  : 	// ----
; 852  : 	return true;

  01e33	b8 01 00 00 00	 mov	 eax, 1
$LN12@LuckyItemR:

; 853  : }

  01e38	5f		 pop	 edi
  01e39	5e		 pop	 esi
  01e3a	5b		 pop	 ebx
  01e3b	8b e5		 mov	 esp, ebp
  01e3d	5d		 pop	 ebp
  01e3e	c2 0c 00	 ret	 12			; 0000000cH
?LuckyItemRepaire@LuckyItemManager@@QAEHPAUOBJECTSTRUCT@@HH@Z ENDP ; LuckyItemManager::LuckyItemRepaire
_TEXT	ENDS
PUBLIC	?GDReqLuckyItemInsert@LuckyItemManager@@QAEHFJFH@Z ; LuckyItemManager::GDReqLuckyItemInsert
PUBLIC	?GDReqLuckyItemInsert@LuckyItemManager@@QAEHPAVCItem@@H@Z ; LuckyItemManager::GDReqLuckyItemInsert
; Function compile flags: /Odtp /ZI
_TEXT	SEGMENT
_wDurabilitySmall$ = -16				; size = 2
_dwSerial$ = -12					; size = 4
_wItemCode$ = -8					; size = 2
_this$ = -4						; size = 4
_pItem$ = 8						; size = 4
_iObjIndex$ = 12					; size = 4
?GDReqLuckyItemInsert@LuckyItemManager@@QAEHPAVCItem@@H@Z PROC ; LuckyItemManager::GDReqLuckyItemInsert
; _this$ = ecx

; 858  : {

  01e50	55		 push	 ebp
  01e51	8b ec		 mov	 ebp, esp
  01e53	83 ec 50	 sub	 esp, 80			; 00000050H
  01e56	53		 push	 ebx
  01e57	56		 push	 esi
  01e58	57		 push	 edi
  01e59	89 4d fc	 mov	 DWORD PTR _this$[ebp], ecx

; 859  : #if( LUCKYITEM_DEBUG == 1 )
; 860  : 	LogAddC(2, "[DEBUG] [%s] Start", __FUNCTION__);
; 861  : #endif
; 862  : 	WORD wItemCode			= pItem->m_Type;	//ebp-8

  01e5c	8b 45 08	 mov	 eax, DWORD PTR _pItem$[ebp]
  01e5f	66 8b 48 06	 mov	 cx, WORD PTR [eax+6]
  01e63	66 89 4d f8	 mov	 WORD PTR _wItemCode$[ebp], cx

; 863  : 	long dwSerial			= pItem->m_Number;//m_serial;	//ebp-0c

  01e67	8b 45 08	 mov	 eax, DWORD PTR _pItem$[ebp]
  01e6a	8b 08		 mov	 ecx, DWORD PTR [eax]
  01e6c	89 4d f4	 mov	 DWORD PTR _dwSerial$[ebp], ecx

; 864  : 	WORD wDurabilitySmall	= pItem->m_DurabilitySmall;	//ebp-10

  01e6f	8b 45 08	 mov	 eax, DWORD PTR _pItem$[ebp]
  01e72	66 8b 48 28	 mov	 cx, WORD PTR [eax+40]
  01e76	66 89 4d f0	 mov	 WORD PTR _wDurabilitySmall$[ebp], cx

; 865  : 
; 866  : #ifdef DEBUG_CODE
; 867  : 	LogAddC(1,"dwSerial: %d",dwSerial);
; 868  : #endif
; 869  : 	// ----
; 870  : 	return this->GDReqLuckyItemInsert(wItemCode, dwSerial, wDurabilitySmall, iObjIndex);

  01e7a	8b 45 0c	 mov	 eax, DWORD PTR _iObjIndex$[ebp]
  01e7d	50		 push	 eax
  01e7e	0f b7 4d f0	 movzx	 ecx, WORD PTR _wDurabilitySmall$[ebp]
  01e82	51		 push	 ecx
  01e83	8b 55 f4	 mov	 edx, DWORD PTR _dwSerial$[ebp]
  01e86	52		 push	 edx
  01e87	0f b7 45 f8	 movzx	 eax, WORD PTR _wItemCode$[ebp]
  01e8b	50		 push	 eax
  01e8c	8b 4d fc	 mov	 ecx, DWORD PTR _this$[ebp]
  01e8f	e8 00 00 00 00	 call	 ?GDReqLuckyItemInsert@LuckyItemManager@@QAEHFJFH@Z ; LuckyItemManager::GDReqLuckyItemInsert

; 871  : }

  01e94	5f		 pop	 edi
  01e95	5e		 pop	 esi
  01e96	5b		 pop	 ebx
  01e97	8b e5		 mov	 esp, ebp
  01e99	5d		 pop	 ebp
  01e9a	c2 08 00	 ret	 8
?GDReqLuckyItemInsert@LuckyItemManager@@QAEHPAVCItem@@H@Z ENDP ; LuckyItemManager::GDReqLuckyItemInsert
_TEXT	ENDS
PUBLIC	__$ArrayPad$
EXTRN	?Send@DBSockMng@@QAEHPADH@Z:PROC		; DBSockMng::Send
EXTRN	?cDBSMng@@3VDBSockMng@@A:BYTE			; cDBSMng
EXTRN	?PHeadSubSetB@@YAXPAEEEH@Z:PROC			; PHeadSubSetB
EXTRN	_memcpy:PROC
EXTRN	?gObj@@3PAUOBJECTSTRUCT@@A:DWORD		; gObj
; Function compile flags: /Odtp /ZI
_TEXT	SEGMENT
_pMsg$ = -44						; size = 32
_lpObj$ = -12						; size = 4
_this$ = -8						; size = 4
__$ArrayPad$ = -4					; size = 4
_wItemCode$ = 8						; size = 2
_dwSerial$ = 12						; size = 4
_wDurabilitySmall$ = 16					; size = 2
_iObjIndex$ = 20					; size = 4
?GDReqLuckyItemInsert@LuckyItemManager@@QAEHFJFH@Z PROC	; LuckyItemManager::GDReqLuckyItemInsert
; _this$ = ecx

; 876  : {

  01ea0	55		 push	 ebp
  01ea1	8b ec		 mov	 ebp, esp
  01ea3	83 ec 6c	 sub	 esp, 108		; 0000006cH
  01ea6	a1 00 00 00 00	 mov	 eax, DWORD PTR ___security_cookie
  01eab	33 c5		 xor	 eax, ebp
  01ead	89 45 fc	 mov	 DWORD PTR __$ArrayPad$[ebp], eax
  01eb0	53		 push	 ebx
  01eb1	56		 push	 esi
  01eb2	57		 push	 edi
  01eb3	89 4d f8	 mov	 DWORD PTR _this$[ebp], ecx

; 877  : #if( LUCKYITEM_DEBUG == 1 )
; 878  : 	LogAddC(2, "[DEBUG] [%s] Start", __FUNCTION__);
; 879  : #endif
; 880  : 	LPOBJ lpObj = &gObj[iObjIndex];

  01eb6	8b 45 14	 mov	 eax, DWORD PTR _iObjIndex$[ebp]
  01eb9	69 c0 38 2b 00
	00		 imul	 eax, 11064		; 00002b38H
  01ebf	03 05 00 00 00
	00		 add	 eax, DWORD PTR ?gObj@@3PAUOBJECTSTRUCT@@A ; gObj
  01ec5	89 45 f4	 mov	 DWORD PTR _lpObj$[ebp], eax

; 881  : 	PMSG_REQ_LUCKYITEM_INSERT pMsg;
; 882  : 	// ----
; 883  : 	pMsg.dwUserGuid	= lpObj->DBNumber;

  01ec8	8b 45 f4	 mov	 eax, DWORD PTR _lpObj$[ebp]
  01ecb	8b 48 2c	 mov	 ecx, DWORD PTR [eax+44]
  01ece	89 4d d8	 mov	 DWORD PTR _pMsg$[ebp+4], ecx

; 884  : 	memcpy(pMsg.szCharName, lpObj->Name, 10);

  01ed1	6a 0a		 push	 10			; 0000000aH
  01ed3	8b 45 f4	 mov	 eax, DWORD PTR _lpObj$[ebp]
  01ed6	83 c0 77	 add	 eax, 119		; 00000077H
  01ed9	50		 push	 eax
  01eda	8d 4d dc	 lea	 ecx, DWORD PTR _pMsg$[ebp+8]
  01edd	51		 push	 ecx
  01ede	e8 00 00 00 00	 call	 _memcpy
  01ee3	83 c4 0c	 add	 esp, 12			; 0000000cH

; 885  : 	pMsg.LuckyItemDBInfo.wItemCode			= wItemCode;

  01ee6	66 8b 45 08	 mov	 ax, WORD PTR _wItemCode$[ebp]
  01eea	66 89 45 e8	 mov	 WORD PTR _pMsg$[ebp+20], ax

; 886  : 	pMsg.LuckyItemDBInfo.dwSerial			= dwSerial;

  01eee	8b 45 0c	 mov	 eax, DWORD PTR _dwSerial$[ebp]
  01ef1	89 45 ec	 mov	 DWORD PTR _pMsg$[ebp+24], eax

; 887  : 	pMsg.LuckyItemDBInfo.wDurabilitySmall	= wDurabilitySmall;

  01ef4	66 8b 45 10	 mov	 ax, WORD PTR _wDurabilitySmall$[ebp]
  01ef8	66 89 45 f0	 mov	 WORD PTR _pMsg$[ebp+28], ax

; 888  : 	// ----
; 889  : 	PHeadSubSetB((LPBYTE)&pMsg, 0xD1, 0x22, sizeof(PMSG_REQ_LUCKYITEM_INSERT));

  01efc	6a 20		 push	 32			; 00000020H
  01efe	6a 22		 push	 34			; 00000022H
  01f00	68 d1 00 00 00	 push	 209			; 000000d1H
  01f05	8d 45 d4	 lea	 eax, DWORD PTR _pMsg$[ebp]
  01f08	50		 push	 eax
  01f09	e8 00 00 00 00	 call	 ?PHeadSubSetB@@YAXPAEEEH@Z ; PHeadSubSetB
  01f0e	83 c4 10	 add	 esp, 16			; 00000010H

; 890  : 	cDBSMng.Send((char *)&pMsg, pMsg.head.size);

  01f11	0f b6 45 d5	 movzx	 eax, BYTE PTR _pMsg$[ebp+1]
  01f15	50		 push	 eax
  01f16	8d 4d d4	 lea	 ecx, DWORD PTR _pMsg$[ebp]
  01f19	51		 push	 ecx
  01f1a	b9 00 00 00 00	 mov	 ecx, OFFSET ?cDBSMng@@3VDBSockMng@@A ; cDBSMng
  01f1f	e8 00 00 00 00	 call	 ?Send@DBSockMng@@QAEHPADH@Z ; DBSockMng::Send

; 891  : 	return true;

  01f24	b8 01 00 00 00	 mov	 eax, 1

; 892  : }

  01f29	5f		 pop	 edi
  01f2a	5e		 pop	 esi
  01f2b	5b		 pop	 ebx
  01f2c	8b 4d fc	 mov	 ecx, DWORD PTR __$ArrayPad$[ebp]
  01f2f	33 cd		 xor	 ecx, ebp
  01f31	e8 00 00 00 00	 call	 @__security_check_cookie@4
  01f36	8b e5		 mov	 esp, ebp
  01f38	5d		 pop	 ebp
  01f39	c2 10 00	 ret	 16			; 00000010H
?GDReqLuckyItemInsert@LuckyItemManager@@QAEHFJFH@Z ENDP	; LuckyItemManager::GDReqLuckyItemInsert
_TEXT	ENDS
PUBLIC	__$ArrayPad$
PUBLIC	?GDReqLuckyItemInsert2nd@LuckyItemManager@@QAEXH@Z ; LuckyItemManager::GDReqLuckyItemInsert2nd
; Function compile flags: /Odtp /ZI
_TEXT	SEGMENT
_pItem$229988 = -332					; size = 212
_i$229984 = -120					; size = 4
_pMsg$ = -116						; size = 80
_iItemCnt$ = -36					; size = 4
_lpObj$ = -32						; size = 4
_iItemType$ = -28					; size = 20
_this$ = -8						; size = 4
__$ArrayPad$ = -4					; size = 4
_iObjIndex$ = 8						; size = 4
?GDReqLuckyItemInsert2nd@LuckyItemManager@@QAEXH@Z PROC	; LuckyItemManager::GDReqLuckyItemInsert2nd
; _this$ = ecx

; 897  : {

  01f40	55		 push	 ebp
  01f41	8b ec		 mov	 ebp, esp
  01f43	81 ec 8c 01 00
	00		 sub	 esp, 396		; 0000018cH
  01f49	a1 00 00 00 00	 mov	 eax, DWORD PTR ___security_cookie
  01f4e	33 c5		 xor	 eax, ebp
  01f50	89 45 fc	 mov	 DWORD PTR __$ArrayPad$[ebp], eax
  01f53	53		 push	 ebx
  01f54	56		 push	 esi
  01f55	57		 push	 edi
  01f56	89 4d f8	 mov	 DWORD PTR _this$[ebp], ecx

; 898  : #if( LUCKYITEM_DEBUG == 1 )
; 899  : 	LogAddC(2, "[DEBUG] [%s] Start", __FUNCTION__);
; 900  : #endif
; 901  : 	int	iItemType[5];
; 902  : 	// ----
; 903  : 	LPOBJ lpObj		= &gObj[iObjIndex];

  01f59	8b 45 08	 mov	 eax, DWORD PTR _iObjIndex$[ebp]
  01f5c	69 c0 38 2b 00
	00		 imul	 eax, 11064		; 00002b38H
  01f62	03 05 00 00 00
	00		 add	 eax, DWORD PTR ?gObj@@3PAUOBJECTSTRUCT@@A ; gObj
  01f68	89 45 e0	 mov	 DWORD PTR _lpObj$[ebp], eax

; 904  : 	iItemType[0]	= 2;

  01f6b	c7 45 e4 02 00
	00 00		 mov	 DWORD PTR _iItemType$[ebp], 2

; 905  : 	iItemType[1]	= 3;

  01f72	c7 45 e8 03 00
	00 00		 mov	 DWORD PTR _iItemType$[ebp+4], 3

; 906  : 	iItemType[2]	= 4;

  01f79	c7 45 ec 04 00
	00 00		 mov	 DWORD PTR _iItemType$[ebp+8], 4

; 907  : 	iItemType[3]	= 5;

  01f80	c7 45 f0 05 00
	00 00		 mov	 DWORD PTR _iItemType$[ebp+12], 5

; 908  : 	iItemType[4]	= 6;

  01f87	c7 45 f4 06 00
	00 00		 mov	 DWORD PTR _iItemType$[ebp+16], 6

; 909  : 	int iItemCnt	= 0;

  01f8e	c7 45 dc 00 00
	00 00		 mov	 DWORD PTR _iItemCnt$[ebp], 0

; 910  : 	// ----
; 911  : 	PMSG_REQ_LUCKYITEM_INSERT_2ND pMsg;
; 912  : 	// ----
; 913  : 	for( int i = 0; i < 5; i++ )

  01f95	c7 45 88 00 00
	00 00		 mov	 DWORD PTR _i$229984[ebp], 0
  01f9c	eb 09		 jmp	 SHORT $LN4@GDReqLucky
$LN3@GDReqLucky:
  01f9e	8b 45 88	 mov	 eax, DWORD PTR _i$229984[ebp]
  01fa1	83 c0 01	 add	 eax, 1
  01fa4	89 45 88	 mov	 DWORD PTR _i$229984[ebp], eax
$LN4@GDReqLucky:
  01fa7	83 7d 88 05	 cmp	 DWORD PTR _i$229984[ebp], 5
  01fab	7d 7b		 jge	 SHORT $LN2@GDReqLucky

; 914  : 	{
; 915  : 		CItem pItem = lpObj->pInventory[iItemType[i]];

  01fad	8b 45 88	 mov	 eax, DWORD PTR _i$229984[ebp]
  01fb0	8b 4c 85 e4	 mov	 ecx, DWORD PTR _iItemType$[ebp+eax*4]
  01fb4	69 c9 d4 00 00
	00		 imul	 ecx, 212		; 000000d4H
  01fba	8b 55 e0	 mov	 edx, DWORD PTR _lpObj$[ebp]
  01fbd	8b b2 24 0e 00
	00		 mov	 esi, DWORD PTR [edx+3620]
  01fc3	03 f1		 add	 esi, ecx
  01fc5	b9 35 00 00 00	 mov	 ecx, 53			; 00000035H
  01fca	8d bd b4 fe ff
	ff		 lea	 edi, DWORD PTR _pItem$229988[ebp]
  01fd0	f3 a5		 rep movsd

; 916  : 		// ----
; 917  : 		if( this->IsLuckyItemEquipment(pItem.m_Type) )

  01fd2	0f bf 85 ba fe
	ff ff		 movsx	 eax, WORD PTR _pItem$229988[ebp+6]
  01fd9	50		 push	 eax
  01fda	8b 4d f8	 mov	 ecx, DWORD PTR _this$[ebp]
  01fdd	e8 00 00 00 00	 call	 ?IsLuckyItemEquipment@LuckyItemManager@@QAEHH@Z ; LuckyItemManager::IsLuckyItemEquipment
  01fe2	85 c0		 test	 eax, eax
  01fe4	74 3d		 je	 SHORT $LN1@GDReqLucky

; 918  : 		{
; 919  : 			pMsg.LuckyItemDBInfo[iItemCnt].dwSerial			= pItem.m_Number;

  01fe6	8b 45 dc	 mov	 eax, DWORD PTR _iItemCnt$[ebp]
  01fe9	6b c0 0c	 imul	 eax, 12			; 0000000cH
  01fec	8b 8d b4 fe ff
	ff		 mov	 ecx, DWORD PTR _pItem$229988[ebp]
  01ff2	89 4c 05 a4	 mov	 DWORD PTR _pMsg$[ebp+eax+24], ecx

; 920  : 			pMsg.LuckyItemDBInfo[iItemCnt].wDurabilitySmall	= pItem.m_DurabilitySmall;

  01ff6	8b 45 dc	 mov	 eax, DWORD PTR _iItemCnt$[ebp]
  01ff9	6b c0 0c	 imul	 eax, 12			; 0000000cH
  01ffc	66 8b 8d dc fe
	ff ff		 mov	 cx, WORD PTR _pItem$229988[ebp+40]
  02003	66 89 4c 05 a8	 mov	 WORD PTR _pMsg$[ebp+eax+28], cx

; 921  : 			pMsg.LuckyItemDBInfo[iItemCnt].wItemCode		= pItem.m_Type;

  02008	8b 45 dc	 mov	 eax, DWORD PTR _iItemCnt$[ebp]
  0200b	6b c0 0c	 imul	 eax, 12			; 0000000cH
  0200e	66 8b 8d ba fe
	ff ff		 mov	 cx, WORD PTR _pItem$229988[ebp+6]
  02015	66 89 4c 05 a0	 mov	 WORD PTR _pMsg$[ebp+eax+20], cx

; 922  : 			iItemCnt++;

  0201a	8b 45 dc	 mov	 eax, DWORD PTR _iItemCnt$[ebp]
  0201d	83 c0 01	 add	 eax, 1
  02020	89 45 dc	 mov	 DWORD PTR _iItemCnt$[ebp], eax
$LN1@GDReqLucky:

; 923  : 		}
; 924  : 	}

  02023	e9 76 ff ff ff	 jmp	 $LN3@GDReqLucky
$LN2@GDReqLucky:

; 925  : 	// ----
; 926  : 	pMsg.btItemCnt	= iItemCnt;

  02028	8a 45 dc	 mov	 al, BYTE PTR _iItemCnt$[ebp]
  0202b	88 45 94	 mov	 BYTE PTR _pMsg$[ebp+8], al

; 927  : 	pMsg.dwUserGuid	= lpObj->DBNumber;

  0202e	8b 45 e0	 mov	 eax, DWORD PTR _lpObj$[ebp]
  02031	8b 48 2c	 mov	 ecx, DWORD PTR [eax+44]
  02034	89 4d 90	 mov	 DWORD PTR _pMsg$[ebp+4], ecx

; 928  : 	memcpy(pMsg.szCharName, lpObj->Name, 10);

  02037	6a 0a		 push	 10			; 0000000aH
  02039	8b 45 e0	 mov	 eax, DWORD PTR _lpObj$[ebp]
  0203c	83 c0 77	 add	 eax, 119		; 00000077H
  0203f	50		 push	 eax
  02040	8d 4d 95	 lea	 ecx, DWORD PTR _pMsg$[ebp+9]
  02043	51		 push	 ecx
  02044	e8 00 00 00 00	 call	 _memcpy
  02049	83 c4 0c	 add	 esp, 12			; 0000000cH

; 929  : 	// ----
; 930  :  	PHeadSubSetB((LPBYTE)&pMsg, 0xD1, 0x24, 80);

  0204c	6a 50		 push	 80			; 00000050H
  0204e	6a 24		 push	 36			; 00000024H
  02050	68 d1 00 00 00	 push	 209			; 000000d1H
  02055	8d 45 8c	 lea	 eax, DWORD PTR _pMsg$[ebp]
  02058	50		 push	 eax
  02059	e8 00 00 00 00	 call	 ?PHeadSubSetB@@YAXPAEEEH@Z ; PHeadSubSetB
  0205e	83 c4 10	 add	 esp, 16			; 00000010H

; 931  :  	cDBSMng.Send((LPSTR)&pMsg, pMsg.head.size);

  02061	0f b6 45 8d	 movzx	 eax, BYTE PTR _pMsg$[ebp+1]
  02065	50		 push	 eax
  02066	8d 4d 8c	 lea	 ecx, DWORD PTR _pMsg$[ebp]
  02069	51		 push	 ecx
  0206a	b9 00 00 00 00	 mov	 ecx, OFFSET ?cDBSMng@@3VDBSockMng@@A ; cDBSMng
  0206f	e8 00 00 00 00	 call	 ?Send@DBSockMng@@QAEHPADH@Z ; DBSockMng::Send

; 932  : }

  02074	5f		 pop	 edi
  02075	5e		 pop	 esi
  02076	5b		 pop	 ebx
  02077	8b 4d fc	 mov	 ecx, DWORD PTR __$ArrayPad$[ebp]
  0207a	33 cd		 xor	 ecx, ebp
  0207c	e8 00 00 00 00	 call	 @__security_check_cookie@4
  02081	8b e5		 mov	 esp, ebp
  02083	5d		 pop	 ebp
  02084	c2 04 00	 ret	 4
?GDReqLuckyItemInsert2nd@LuckyItemManager@@QAEXH@Z ENDP	; LuckyItemManager::GDReqLuckyItemInsert2nd
_TEXT	ENDS
PUBLIC	??_C@_0EC@NOONGDMI@?$FLLuckyItem?$FN?5GDReqLuckyItemDelete@ ; `string'
PUBLIC	__$ArrayPad$
;	COMDAT ??_C@_0EC@NOONGDMI@?$FLLuckyItem?$FN?5GDReqLuckyItemDelete@
CONST	SEGMENT
??_C@_0EC@NOONGDMI@?$FLLuckyItem?$FN?5GDReqLuckyItemDelete@ DB '[LuckyIte'
	DB	'm] GDReqLuckyItemDelete [%s][%s] ItemCode[%d] Serial[%u]', 00H ; `string'
; Function compile flags: /Odtp /ZI
CONST	ENDS
_TEXT	SEGMENT
_pMsg$ = -36						; size = 24
_lpObj$ = -12						; size = 4
_this$ = -8						; size = 4
__$ArrayPad$ = -4					; size = 4
_wItemCode$ = 8						; size = 2
_dwSerial$ = 12						; size = 4
_iObjIndex$ = 16					; size = 4
?GDReqLuckyItemDelete@LuckyItemManager@@QAEXFJH@Z PROC	; LuckyItemManager::GDReqLuckyItemDelete
; _this$ = ecx

; 937  : {

  02090	55		 push	 ebp
  02091	8b ec		 mov	 ebp, esp
  02093	83 ec 64	 sub	 esp, 100		; 00000064H
  02096	a1 00 00 00 00	 mov	 eax, DWORD PTR ___security_cookie
  0209b	33 c5		 xor	 eax, ebp
  0209d	89 45 fc	 mov	 DWORD PTR __$ArrayPad$[ebp], eax
  020a0	53		 push	 ebx
  020a1	56		 push	 esi
  020a2	57		 push	 edi
  020a3	89 4d f8	 mov	 DWORD PTR _this$[ebp], ecx

; 938  : #if( LUCKYITEM_DEBUG == 1 )
; 939  : 	LogAddC(2, "[DEBUG] [%s] Start", __FUNCTION__);
; 940  : #endif
; 941  : 	LPOBJ lpObj = &gObj[iObjIndex];

  020a6	8b 45 10	 mov	 eax, DWORD PTR _iObjIndex$[ebp]
  020a9	69 c0 38 2b 00
	00		 imul	 eax, 11064		; 00002b38H
  020af	03 05 00 00 00
	00		 add	 eax, DWORD PTR ?gObj@@3PAUOBJECTSTRUCT@@A ; gObj
  020b5	89 45 f4	 mov	 DWORD PTR _lpObj$[ebp], eax

; 942  : 	PMSG_REQ_LUCKYITEM_DELETE pMsg;
; 943  : 	// ----
; 944  : 	pMsg.wUserIndex = lpObj->m_Index;

  020b8	8b 45 f4	 mov	 eax, DWORD PTR _lpObj$[ebp]
  020bb	66 8b 08	 mov	 cx, WORD PTR [eax]
  020be	66 89 4d e0	 mov	 WORD PTR _pMsg$[ebp+4], cx

; 945  : 	memcpy(pMsg.szCharName, lpObj->Name, 10);

  020c2	6a 0a		 push	 10			; 0000000aH
  020c4	8b 45 f4	 mov	 eax, DWORD PTR _lpObj$[ebp]
  020c7	83 c0 77	 add	 eax, 119		; 00000077H
  020ca	50		 push	 eax
  020cb	8d 4d e2	 lea	 ecx, DWORD PTR _pMsg$[ebp+6]
  020ce	51		 push	 ecx
  020cf	e8 00 00 00 00	 call	 _memcpy
  020d4	83 c4 0c	 add	 esp, 12			; 0000000cH

; 946  : 	pMsg.wItemCode	= wItemCode;

  020d7	66 8b 45 08	 mov	 ax, WORD PTR _wItemCode$[ebp]
  020db	66 89 45 ee	 mov	 WORD PTR _pMsg$[ebp+18], ax

; 947  : 	pMsg.dwSerial	= dwSerial;

  020df	8b 45 0c	 mov	 eax, DWORD PTR _dwSerial$[ebp]
  020e2	89 45 f0	 mov	 DWORD PTR _pMsg$[ebp+20], eax

; 948  : 	// ----
; 949  : 	PHeadSubSetB((LPBYTE)&pMsg, 0xD1, 0x23, sizeof(PMSG_REQ_LUCKYITEM_DELETE));

  020e5	6a 18		 push	 24			; 00000018H
  020e7	6a 23		 push	 35			; 00000023H
  020e9	68 d1 00 00 00	 push	 209			; 000000d1H
  020ee	8d 45 dc	 lea	 eax, DWORD PTR _pMsg$[ebp]
  020f1	50		 push	 eax
  020f2	e8 00 00 00 00	 call	 ?PHeadSubSetB@@YAXPAEEEH@Z ; PHeadSubSetB
  020f7	83 c4 10	 add	 esp, 16			; 00000010H

; 950  : 	cDBSMng.Send((char *)&pMsg, pMsg.head.size);

  020fa	0f b6 45 dd	 movzx	 eax, BYTE PTR _pMsg$[ebp+1]
  020fe	50		 push	 eax
  020ff	8d 4d dc	 lea	 ecx, DWORD PTR _pMsg$[ebp]
  02102	51		 push	 ecx
  02103	b9 00 00 00 00	 mov	 ecx, OFFSET ?cDBSMng@@3VDBSockMng@@A ; cDBSMng
  02108	e8 00 00 00 00	 call	 ?Send@DBSockMng@@QAEHPADH@Z ; DBSockMng::Send

; 951  : 	// ----
; 952  : 	LogAddTD("[LuckyItem] GDReqLuckyItemDelete [%s][%s] ItemCode[%d] Serial[%u]",
; 953  : 		lpObj->AccountID, lpObj->Name, wItemCode, dwSerial);

  0210d	8b 45 0c	 mov	 eax, DWORD PTR _dwSerial$[ebp]
  02110	50		 push	 eax
  02111	0f bf 4d 08	 movsx	 ecx, WORD PTR _wItemCode$[ebp]
  02115	51		 push	 ecx
  02116	8b 55 f4	 mov	 edx, DWORD PTR _lpObj$[ebp]
  02119	83 c2 77	 add	 edx, 119		; 00000077H
  0211c	52		 push	 edx
  0211d	8b 45 f4	 mov	 eax, DWORD PTR _lpObj$[ebp]
  02120	83 c0 6c	 add	 eax, 108		; 0000006cH
  02123	50		 push	 eax
  02124	68 00 00 00 00	 push	 OFFSET ??_C@_0EC@NOONGDMI@?$FLLuckyItem?$FN?5GDReqLuckyItemDelete@
  02129	ff 15 00 00 00
	00		 call	 DWORD PTR ?LogAddTD@@3P6AXPADZZA ; LogAddTD
  0212f	83 c4 14	 add	 esp, 20			; 00000014H

; 954  : }

  02132	5f		 pop	 edi
  02133	5e		 pop	 esi
  02134	5b		 pop	 ebx
  02135	8b 4d fc	 mov	 ecx, DWORD PTR __$ArrayPad$[ebp]
  02138	33 cd		 xor	 ecx, ebp
  0213a	e8 00 00 00 00	 call	 @__security_check_cookie@4
  0213f	8b e5		 mov	 esp, ebp
  02141	5d		 pop	 ebp
  02142	c2 0c 00	 ret	 12			; 0000000cH
?GDReqLuckyItemDelete@LuckyItemManager@@QAEXFJH@Z ENDP	; LuckyItemManager::GDReqLuckyItemDelete
_TEXT	ENDS
PUBLIC	__$ArrayPad$
PUBLIC	?DGAnsLuckyItemList@LuckyItemManager@@QAEXPAUPMSG_ANS_LUCKYITEM_SELECT@@@Z ; LuckyItemManager::DGAnsLuckyItemList
EXTRN	?gObjIsConnected@@YAHH@Z:PROC			; gObjIsConnected
; Function compile flags: /Odtp /ZI
_TEXT	SEGMENT
tv72 = -652						; size = 4
_j$230026 = -584					; size = 4
_i$230021 = -580					; size = 4
_pItem$230020 = -576					; size = 4
_iInven$230015 = -572					; size = 4
_LuckyItemList$ = -568					; size = 540
_iDeleteItemList$ = -28					; size = 12
_iObjIndex$ = -16					; size = 4
_iItemCnt$ = -12					; size = 4
_this$ = -8						; size = 4
__$ArrayPad$ = -4					; size = 4
_lpRecv$ = 8						; size = 4
?DGAnsLuckyItemList@LuckyItemManager@@QAEXPAUPMSG_ANS_LUCKYITEM_SELECT@@@Z PROC ; LuckyItemManager::DGAnsLuckyItemList
; _this$ = ecx

; 959  : {

  02150	55		 push	 ebp
  02151	8b ec		 mov	 ebp, esp
  02153	81 ec 8c 02 00
	00		 sub	 esp, 652		; 0000028cH
  02159	a1 00 00 00 00	 mov	 eax, DWORD PTR ___security_cookie
  0215e	33 c5		 xor	 eax, ebp
  02160	89 45 fc	 mov	 DWORD PTR __$ArrayPad$[ebp], eax
  02163	53		 push	 ebx
  02164	56		 push	 esi
  02165	57		 push	 edi
  02166	89 4d f8	 mov	 DWORD PTR _this$[ebp], ecx

; 960  : #if( LUCKYITEM_DEBUG == 1 )
; 961  : 	LogAddC(2, "[DEBUG] [%s] Start", __FUNCTION__);
; 962  : #endif
; 963  : 	int iItemCnt	= lpRecv->btItemCnt;	//ebp-8

  02169	8b 45 08	 mov	 eax, DWORD PTR _lpRecv$[ebp]
  0216c	0f b6 48 07	 movzx	 ecx, BYTE PTR [eax+7]
  02170	89 4d f4	 mov	 DWORD PTR _iItemCnt$[ebp], ecx

; 964  : 	int iObjIndex	= lpRecv->wUserIndex;	//ebp-0c

  02173	8b 45 08	 mov	 eax, DWORD PTR _lpRecv$[ebp]
  02176	0f b7 48 04	 movzx	 ecx, WORD PTR [eax+4]
  0217a	89 4d f0	 mov	 DWORD PTR _iObjIndex$[ebp], ecx

; 965  : 	// -----
; 966  : 	if( iItemCnt < 0 )

  0217d	83 7d f4 00	 cmp	 DWORD PTR _iItemCnt$[ebp], 0
  02181	7d 05		 jge	 SHORT $LN15@DGAnsLucky

; 967  : 	{
; 968  : 		return;

  02183	e9 e8 01 00 00	 jmp	 $LN16@DGAnsLucky
$LN15@DGAnsLucky:

; 969  : 	}
; 970  : 	// ----
; 971  : 	if( !OBJMAX_RANGE(iObjIndex) || !gObjIsConnected(iObjIndex) )

  02188	83 7d f0 00	 cmp	 DWORD PTR _iObjIndex$[ebp], 0
  0218c	7d 0c		 jge	 SHORT $LN18@DGAnsLucky
  0218e	c7 85 74 fd ff
	ff 00 00 00 00	 mov	 DWORD PTR tv72[ebp], 0
  02198	eb 12		 jmp	 SHORT $LN19@DGAnsLucky
$LN18@DGAnsLucky:
  0219a	33 c0		 xor	 eax, eax
  0219c	81 7d f0 97 3a
	00 00		 cmp	 DWORD PTR _iObjIndex$[ebp], 14999 ; 00003a97H
  021a3	0f 9e c0	 setle	 al
  021a6	89 85 74 fd ff
	ff		 mov	 DWORD PTR tv72[ebp], eax
$LN19@DGAnsLucky:
  021ac	83 bd 74 fd ff
	ff 00		 cmp	 DWORD PTR tv72[ebp], 0
  021b3	74 10		 je	 SHORT $LN13@DGAnsLucky
  021b5	8b 45 f0	 mov	 eax, DWORD PTR _iObjIndex$[ebp]
  021b8	50		 push	 eax
  021b9	e8 00 00 00 00	 call	 ?gObjIsConnected@@YAHH@Z ; gObjIsConnected
  021be	83 c4 04	 add	 esp, 4
  021c1	85 c0		 test	 eax, eax
  021c3	75 05		 jne	 SHORT $LN14@DGAnsLucky
$LN13@DGAnsLucky:

; 972  : 	{
; 973  : 		return;

  021c5	e9 a6 01 00 00	 jmp	 $LN16@DGAnsLucky
$LN14@DGAnsLucky:

; 974  : 	}
; 975  : 	// ----
; 976  : 	BYTE iDeleteItemList[12] = { 0 };

  021ca	c6 45 e4 00	 mov	 BYTE PTR _iDeleteItemList$[ebp], 0
  021ce	33 c0		 xor	 eax, eax
  021d0	89 45 e5	 mov	 DWORD PTR _iDeleteItemList$[ebp+1], eax
  021d3	89 45 e9	 mov	 DWORD PTR _iDeleteItemList$[ebp+5], eax
  021d6	66 89 45 ed	 mov	 WORD PTR _iDeleteItemList$[ebp+9], ax
  021da	88 45 ef	 mov	 BYTE PTR _iDeleteItemList$[ebp+11], al

; 977  : 	PMSG_LUCKYITME_DB_INFO LuckyItemList[45];
; 978  : 	memcpy(LuckyItemList, &lpRecv[1], iItemCnt * 12);

  021dd	8b 45 f4	 mov	 eax, DWORD PTR _iItemCnt$[ebp]
  021e0	6b c0 0c	 imul	 eax, 12			; 0000000cH
  021e3	50		 push	 eax
  021e4	8b 4d 08	 mov	 ecx, DWORD PTR _lpRecv$[ebp]
  021e7	83 c1 08	 add	 ecx, 8
  021ea	51		 push	 ecx
  021eb	8d 95 c8 fd ff
	ff		 lea	 edx, DWORD PTR _LuckyItemList$[ebp]
  021f1	52		 push	 edx
  021f2	e8 00 00 00 00	 call	 _memcpy
  021f7	83 c4 0c	 add	 esp, 12			; 0000000cH

; 979  : 	// ----
; 980  : 	for( int iInven = 0; iInven < MAIN_INVENTORY_SIZE; iInven++ )

  021fa	c7 85 c4 fd ff
	ff 00 00 00 00	 mov	 DWORD PTR _iInven$230015[ebp], 0
  02204	eb 0f		 jmp	 SHORT $LN12@DGAnsLucky
$LN11@DGAnsLucky:
  02206	8b 85 c4 fd ff
	ff		 mov	 eax, DWORD PTR _iInven$230015[ebp]
  0220c	83 c0 01	 add	 eax, 1
  0220f	89 85 c4 fd ff
	ff		 mov	 DWORD PTR _iInven$230015[ebp], eax
$LN12@DGAnsLucky:
  02215	81 bd c4 fd ff
	ff cc 00 00 00	 cmp	 DWORD PTR _iInven$230015[ebp], 204 ; 000000ccH
  0221f	0f 8d e5 00 00
	00		 jge	 $LN10@DGAnsLucky

; 981  : 	{
; 982  : 		if( gObj[iObjIndex].pInventory[iInven].IsItem() )

  02225	8b 45 f0	 mov	 eax, DWORD PTR _iObjIndex$[ebp]
  02228	69 c0 38 2b 00
	00		 imul	 eax, 11064		; 00002b38H
  0222e	8b 8d c4 fd ff
	ff		 mov	 ecx, DWORD PTR _iInven$230015[ebp]
  02234	69 c9 d4 00 00
	00		 imul	 ecx, 212		; 000000d4H
  0223a	8b 15 00 00 00
	00		 mov	 edx, DWORD PTR ?gObj@@3PAUOBJECTSTRUCT@@A ; gObj
  02240	03 8c 02 24 0e
	00 00		 add	 ecx, DWORD PTR [edx+eax+3620]
  02247	e8 00 00 00 00	 call	 ?IsItem@CItem@@QAEHXZ	; CItem::IsItem
  0224c	85 c0		 test	 eax, eax
  0224e	0f 84 b1 00 00
	00		 je	 $LN9@DGAnsLucky

; 983  : 		{
; 984  : 			CItem * pItem = &gObj[iObjIndex].pInventory[iInven];

  02254	8b 45 f0	 mov	 eax, DWORD PTR _iObjIndex$[ebp]
  02257	69 c0 38 2b 00
	00		 imul	 eax, 11064		; 00002b38H
  0225d	8b 8d c4 fd ff
	ff		 mov	 ecx, DWORD PTR _iInven$230015[ebp]
  02263	69 c9 d4 00 00
	00		 imul	 ecx, 212		; 000000d4H
  02269	8b 15 00 00 00
	00		 mov	 edx, DWORD PTR ?gObj@@3PAUOBJECTSTRUCT@@A ; gObj
  0226f	03 8c 02 24 0e
	00 00		 add	 ecx, DWORD PTR [edx+eax+3620]
  02276	89 8d c0 fd ff
	ff		 mov	 DWORD PTR _pItem$230020[ebp], ecx

; 985  : 			// -----
; 986  : 			for( int i = 0; i < iItemCnt; i++ )

  0227c	c7 85 bc fd ff
	ff 00 00 00 00	 mov	 DWORD PTR _i$230021[ebp], 0
  02286	eb 0f		 jmp	 SHORT $LN8@DGAnsLucky
$LN7@DGAnsLucky:
  02288	8b 85 bc fd ff
	ff		 mov	 eax, DWORD PTR _i$230021[ebp]
  0228e	83 c0 01	 add	 eax, 1
  02291	89 85 bc fd ff
	ff		 mov	 DWORD PTR _i$230021[ebp], eax
$LN8@DGAnsLucky:
  02297	8b 85 bc fd ff
	ff		 mov	 eax, DWORD PTR _i$230021[ebp]
  0229d	3b 45 f4	 cmp	 eax, DWORD PTR _iItemCnt$[ebp]
  022a0	7d 63		 jge	 SHORT $LN9@DGAnsLucky

; 987  : 			{
; 988  : 				if( pItem->m_Type == LuckyItemList[i].wItemCode 
; 989  : 					&& pItem->m_Number == LuckyItemList[i].dwSerial )

  022a2	8b 85 c0 fd ff
	ff		 mov	 eax, DWORD PTR _pItem$230020[ebp]
  022a8	0f bf 48 06	 movsx	 ecx, WORD PTR [eax+6]
  022ac	8b 95 bc fd ff
	ff		 mov	 edx, DWORD PTR _i$230021[ebp]
  022b2	6b d2 0c	 imul	 edx, 12			; 0000000cH
  022b5	0f b7 84 15 c8
	fd ff ff	 movzx	 eax, WORD PTR _LuckyItemList$[ebp+edx]
  022bd	3b c8		 cmp	 ecx, eax
  022bf	75 42		 jne	 SHORT $LN5@DGAnsLucky
  022c1	8b 85 bc fd ff
	ff		 mov	 eax, DWORD PTR _i$230021[ebp]
  022c7	6b c0 0c	 imul	 eax, 12			; 0000000cH
  022ca	8b 8d c0 fd ff
	ff		 mov	 ecx, DWORD PTR _pItem$230020[ebp]
  022d0	8b 11		 mov	 edx, DWORD PTR [ecx]
  022d2	3b 94 05 cc fd
	ff ff		 cmp	 edx, DWORD PTR _LuckyItemList$[ebp+eax+4]
  022d9	75 28		 jne	 SHORT $LN5@DGAnsLucky

; 990  : 				{
; 991  : 					pItem->m_DurabilitySmall = LuckyItemList[i].wDurabilitySmall;

  022db	8b 85 bc fd ff
	ff		 mov	 eax, DWORD PTR _i$230021[ebp]
  022e1	6b c0 0c	 imul	 eax, 12			; 0000000cH
  022e4	8b 8d c0 fd ff
	ff		 mov	 ecx, DWORD PTR _pItem$230020[ebp]
  022ea	66 8b 94 05 d0
	fd ff ff	 mov	 dx, WORD PTR _LuckyItemList$[ebp+eax+8]
  022f2	66 89 51 28	 mov	 WORD PTR [ecx+40], dx

; 992  : 					iDeleteItemList[i]		= 1;

  022f6	8b 85 bc fd ff
	ff		 mov	 eax, DWORD PTR _i$230021[ebp]
  022fc	c6 44 05 e4 01	 mov	 BYTE PTR _iDeleteItemList$[ebp+eax], 1

; 993  : 					break;

  02301	eb 02		 jmp	 SHORT $LN9@DGAnsLucky
$LN5@DGAnsLucky:

; 994  : 				}
; 995  : 			}

  02303	eb 83		 jmp	 SHORT $LN7@DGAnsLucky
$LN9@DGAnsLucky:

; 996  : 		}
; 997  : 	}

  02305	e9 fc fe ff ff	 jmp	 $LN11@DGAnsLucky
$LN10@DGAnsLucky:

; 998  : 	// ----
; 999  : 	for( int j = 0; j < iItemCnt; j++ )

  0230a	c7 85 b8 fd ff
	ff 00 00 00 00	 mov	 DWORD PTR _j$230026[ebp], 0
  02314	eb 0f		 jmp	 SHORT $LN4@DGAnsLucky
$LN3@DGAnsLucky:
  02316	8b 85 b8 fd ff
	ff		 mov	 eax, DWORD PTR _j$230026[ebp]
  0231c	83 c0 01	 add	 eax, 1
  0231f	89 85 b8 fd ff
	ff		 mov	 DWORD PTR _j$230026[ebp], eax
$LN4@DGAnsLucky:
  02325	8b 85 b8 fd ff
	ff		 mov	 eax, DWORD PTR _j$230026[ebp]
  0232b	3b 45 f4	 cmp	 eax, DWORD PTR _iItemCnt$[ebp]
  0232e	7d 40		 jge	 SHORT $LN16@DGAnsLucky

; 1000 : 	{
; 1001 : 		if( iDeleteItemList[j] == 0 )

  02330	8b 85 b8 fd ff
	ff		 mov	 eax, DWORD PTR _j$230026[ebp]
  02336	0f b6 4c 05 e4	 movzx	 ecx, BYTE PTR _iDeleteItemList$[ebp+eax]
  0233b	85 c9		 test	 ecx, ecx
  0233d	75 2f		 jne	 SHORT $LN1@DGAnsLucky

; 1002 : 		{
; 1003 : 			this->GDReqLuckyItemDelete(LuckyItemList[j].wItemCode, LuckyItemList[j].dwSerial, iObjIndex);

  0233f	8b 45 f0	 mov	 eax, DWORD PTR _iObjIndex$[ebp]
  02342	50		 push	 eax
  02343	8b 8d b8 fd ff
	ff		 mov	 ecx, DWORD PTR _j$230026[ebp]
  02349	6b c9 0c	 imul	 ecx, 12			; 0000000cH
  0234c	8b 94 0d cc fd
	ff ff		 mov	 edx, DWORD PTR _LuckyItemList$[ebp+ecx+4]
  02353	52		 push	 edx
  02354	8b 85 b8 fd ff
	ff		 mov	 eax, DWORD PTR _j$230026[ebp]
  0235a	6b c0 0c	 imul	 eax, 12			; 0000000cH
  0235d	0f b7 8c 05 c8
	fd ff ff	 movzx	 ecx, WORD PTR _LuckyItemList$[ebp+eax]
  02365	51		 push	 ecx
  02366	8b 4d f8	 mov	 ecx, DWORD PTR _this$[ebp]
  02369	e8 00 00 00 00	 call	 ?GDReqLuckyItemDelete@LuckyItemManager@@QAEXFJH@Z ; LuckyItemManager::GDReqLuckyItemDelete
$LN1@DGAnsLucky:

; 1004 : 		}
; 1005 : 	}

  0236e	eb a6		 jmp	 SHORT $LN3@DGAnsLucky
$LN16@DGAnsLucky:

; 1006 : }

  02370	5f		 pop	 edi
  02371	5e		 pop	 esi
  02372	5b		 pop	 ebx
  02373	8b 4d fc	 mov	 ecx, DWORD PTR __$ArrayPad$[ebp]
  02376	33 cd		 xor	 ecx, ebp
  02378	e8 00 00 00 00	 call	 @__security_check_cookie@4
  0237d	8b e5		 mov	 esp, ebp
  0237f	5d		 pop	 ebp
  02380	c2 04 00	 ret	 4
?DGAnsLuckyItemList@LuckyItemManager@@QAEXPAUPMSG_ANS_LUCKYITEM_SELECT@@@Z ENDP ; LuckyItemManager::DGAnsLuckyItemList
_TEXT	ENDS
PUBLIC	__$ArrayPad$
PUBLIC	?GDReqLuckyItemSelect@LuckyItemManager@@QAEXPAUOBJECTSTRUCT@@@Z ; LuckyItemManager::GDReqLuckyItemSelect
; Function compile flags: /Odtp /ZI
_TEXT	SEGMENT
_pMsg$ = -28						; size = 18
_this$ = -8						; size = 4
__$ArrayPad$ = -4					; size = 4
_lpObj$ = 8						; size = 4
?GDReqLuckyItemSelect@LuckyItemManager@@QAEXPAUOBJECTSTRUCT@@@Z PROC ; LuckyItemManager::GDReqLuckyItemSelect
; _this$ = ecx

; 1011 : {

  02390	55		 push	 ebp
  02391	8b ec		 mov	 ebp, esp
  02393	83 ec 5c	 sub	 esp, 92			; 0000005cH
  02396	a1 00 00 00 00	 mov	 eax, DWORD PTR ___security_cookie
  0239b	33 c5		 xor	 eax, ebp
  0239d	89 45 fc	 mov	 DWORD PTR __$ArrayPad$[ebp], eax
  023a0	53		 push	 ebx
  023a1	56		 push	 esi
  023a2	57		 push	 edi
  023a3	89 4d f8	 mov	 DWORD PTR _this$[ebp], ecx

; 1012 : #if( LUCKYITEM_DEBUG == 1 )
; 1013 : 	LogAddC(2, "[DEBUG] [%s] Start", __FUNCTION__);
; 1014 : #endif
; 1015 : 	PMSG_REQ_LUCKYITEM_SELECT pMsg;
; 1016 : 	// ----
; 1017 : 	pMsg.wUserIndex = lpObj->m_Index;

  023a6	8b 45 08	 mov	 eax, DWORD PTR _lpObj$[ebp]
  023a9	66 8b 08	 mov	 cx, WORD PTR [eax]
  023ac	66 89 4d e8	 mov	 WORD PTR _pMsg$[ebp+4], cx

; 1018 : 	memcpy(pMsg.chCharacterName, lpObj->Name, 10);

  023b0	6a 0a		 push	 10			; 0000000aH
  023b2	8b 45 08	 mov	 eax, DWORD PTR _lpObj$[ebp]
  023b5	83 c0 77	 add	 eax, 119		; 00000077H
  023b8	50		 push	 eax
  023b9	8d 4d ea	 lea	 ecx, DWORD PTR _pMsg$[ebp+6]
  023bc	51		 push	 ecx
  023bd	e8 00 00 00 00	 call	 _memcpy
  023c2	83 c4 0c	 add	 esp, 12			; 0000000cH

; 1019 : 	// ----
; 1020 : 	PHeadSubSetB((LPBYTE)&pMsg, 0xD1, 0x20, sizeof(PMSG_REQ_LUCKYITEM_SELECT));

  023c5	6a 12		 push	 18			; 00000012H
  023c7	6a 20		 push	 32			; 00000020H
  023c9	68 d1 00 00 00	 push	 209			; 000000d1H
  023ce	8d 45 e4	 lea	 eax, DWORD PTR _pMsg$[ebp]
  023d1	50		 push	 eax
  023d2	e8 00 00 00 00	 call	 ?PHeadSubSetB@@YAXPAEEEH@Z ; PHeadSubSetB
  023d7	83 c4 10	 add	 esp, 16			; 00000010H

; 1021 : 	cDBSMng.Send((char *)&pMsg, pMsg.head.size);

  023da	0f b6 45 e5	 movzx	 eax, BYTE PTR _pMsg$[ebp+1]
  023de	50		 push	 eax
  023df	8d 4d e4	 lea	 ecx, DWORD PTR _pMsg$[ebp]
  023e2	51		 push	 ecx
  023e3	b9 00 00 00 00	 mov	 ecx, OFFSET ?cDBSMng@@3VDBSockMng@@A ; cDBSMng
  023e8	e8 00 00 00 00	 call	 ?Send@DBSockMng@@QAEHPADH@Z ; DBSockMng::Send

; 1022 : }

  023ed	5f		 pop	 edi
  023ee	5e		 pop	 esi
  023ef	5b		 pop	 ebx
  023f0	8b 4d fc	 mov	 ecx, DWORD PTR __$ArrayPad$[ebp]
  023f3	33 cd		 xor	 ecx, ebp
  023f5	e8 00 00 00 00	 call	 @__security_check_cookie@4
  023fa	8b e5		 mov	 esp, ebp
  023fc	5d		 pop	 ebp
  023fd	c2 04 00	 ret	 4
?GDReqLuckyItemSelect@LuckyItemManager@@QAEXPAUOBJECTSTRUCT@@@Z ENDP ; LuckyItemManager::GDReqLuckyItemSelect
_TEXT	ENDS
PUBLIC	??0?$_Tree@V?$_Tmap_traits@HU_LUCKY_ITEM_INFO@@U?$less@H@std@@V?$allocator@U?$pair@$$CBHU_LUCKY_ITEM_INFO@@@std@@@3@$0A@@std@@@std@@QAE@ABU?$less@H@1@ABV?$allocator@U?$pair@$$CBHU_LUCKY_ITEM_INFO@@@std@@@1@@Z ; std::_Tree<std::_Tmap_traits<int,_LUCKY_ITEM_INFO,std::less<int>,std::allocator<std::pair<int const ,_LUCKY_ITEM_INFO> >,0> >::_Tree<std::_Tmap_traits<int,_LUCKY_ITEM_INFO,std::less<int>,std::allocator<std::pair<int const ,_LUCKY_ITEM_INFO> >,0> >
PUBLIC	??0?$allocator@U?$pair@$$CBHU_LUCKY_ITEM_INFO@@@std@@@std@@QAE@XZ ; std::allocator<std::pair<int const ,_LUCKY_ITEM_INFO> >::allocator<std::pair<int const ,_LUCKY_ITEM_INFO> >
; Function compile flags: /Odtp /ZI
; File d:\microsoft visual studio 10.0\vc\include\map
;	COMDAT ??0?$map@HU_LUCKY_ITEM_INFO@@U?$less@H@std@@V?$allocator@U?$pair@$$CBHU_LUCKY_ITEM_INFO@@@std@@@3@@std@@QAE@XZ
_TEXT	SEGMENT
$T231349 = -70						; size = 1
$T231350 = -69						; size = 1
_this$ = -4						; size = 4
??0?$map@HU_LUCKY_ITEM_INFO@@U?$less@H@std@@V?$allocator@U?$pair@$$CBHU_LUCKY_ITEM_INFO@@@std@@@3@@std@@QAE@XZ PROC ; std::map<int,_LUCKY_ITEM_INFO,std::less<int>,std::allocator<std::pair<int const ,_LUCKY_ITEM_INFO> > >::map<int,_LUCKY_ITEM_INFO,std::less<int>,std::allocator<std::pair<int const ,_LUCKY_ITEM_INFO> > >, COMDAT
; _this$ = ecx

; 106  : 		{	// construct empty map from defaults

  00000	55		 push	 ebp
  00001	8b ec		 mov	 ebp, esp
  00003	83 ec 48	 sub	 esp, 72			; 00000048H
  00006	53		 push	 ebx
  00007	56		 push	 esi
  00008	57		 push	 edi
  00009	89 4d fc	 mov	 DWORD PTR _this$[ebp], ecx
  0000c	8d 4d ba	 lea	 ecx, DWORD PTR $T231349[ebp]
  0000f	e8 00 00 00 00	 call	 ??0?$allocator@U?$pair@$$CBHU_LUCKY_ITEM_INFO@@@std@@@std@@QAE@XZ ; std::allocator<std::pair<int const ,_LUCKY_ITEM_INFO> >::allocator<std::pair<int const ,_LUCKY_ITEM_INFO> >
  00014	50		 push	 eax
  00015	8d 45 bb	 lea	 eax, DWORD PTR $T231350[ebp]
  00018	50		 push	 eax
  00019	8b 4d fc	 mov	 ecx, DWORD PTR _this$[ebp]
  0001c	e8 00 00 00 00	 call	 ??0?$_Tree@V?$_Tmap_traits@HU_LUCKY_ITEM_INFO@@U?$less@H@std@@V?$allocator@U?$pair@$$CBHU_LUCKY_ITEM_INFO@@@std@@@3@$0A@@std@@@std@@QAE@ABU?$less@H@1@ABV?$allocator@U?$pair@$$CBHU_LUCKY_ITEM_INFO@@@std@@@1@@Z ; std::_Tree<std::_Tmap_traits<int,_LUCKY_ITEM_INFO,std::less<int>,std::allocator<std::pair<int const ,_LUCKY_ITEM_INFO> >,0> >::_Tree<std::_Tmap_traits<int,_LUCKY_ITEM_INFO,std::less<int>,std::allocator<std::pair<int const ,_LUCKY_ITEM_INFO> >,0> >

; 107  : 		}

  00021	8b 45 fc	 mov	 eax, DWORD PTR _this$[ebp]
  00024	5f		 pop	 edi
  00025	5e		 pop	 esi
  00026	5b		 pop	 ebx
  00027	8b e5		 mov	 esp, ebp
  00029	5d		 pop	 ebp
  0002a	c3		 ret	 0
??0?$map@HU_LUCKY_ITEM_INFO@@U?$less@H@std@@V?$allocator@U?$pair@$$CBHU_LUCKY_ITEM_INFO@@@std@@@3@@std@@QAE@XZ ENDP ; std::map<int,_LUCKY_ITEM_INFO,std::less<int>,std::allocator<std::pair<int const ,_LUCKY_ITEM_INFO> > >::map<int,_LUCKY_ITEM_INFO,std::less<int>,std::allocator<std::pair<int const ,_LUCKY_ITEM_INFO> > >
_TEXT	ENDS
PUBLIC	??D?$_Tree_iterator@V?$_Tree_val@V?$_Tmap_traits@HU_LUCKY_ITEM_INFO@@U?$less@H@std@@V?$allocator@U?$pair@$$CBHU_LUCKY_ITEM_INFO@@@std@@@3@$0A@@std@@@std@@@std@@QBEAAU?$pair@$$CBHU_LUCKY_ITEM_INFO@@@1@XZ ; std::_Tree_iterator<std::_Tree_val<std::_Tmap_traits<int,_LUCKY_ITEM_INFO,std::less<int>,std::allocator<std::pair<int const ,_LUCKY_ITEM_INFO> >,0> > >::operator*
PUBLIC	??$insert@U?$pair@$$CBHU_LUCKY_ITEM_INFO@@@std@@@?$_Tree@V?$_Tmap_traits@HU_LUCKY_ITEM_INFO@@U?$less@H@std@@V?$allocator@U?$pair@$$CBHU_LUCKY_ITEM_INFO@@@std@@@3@$0A@@std@@@std@@QAE?AV?$_Tree_iterator@V?$_Tree_val@V?$_Tmap_traits@HU_LUCKY_ITEM_INFO@@U?$less@H@std@@V?$allocator@U?$pair@$$CBHU_LUCKY_ITEM_INFO@@@std@@@3@$0A@@std@@@std@@@1@V?$_Tree_const_iterator@V?$_Tree_val@V?$_Tmap_traits@HU_LUCKY_ITEM_INFO@@U?$less@H@std@@V?$allocator@U?$pair@$$CBHU_LUCKY_ITEM_INFO@@@std@@@3@$0A@@std@@@std@@@1@$$QAU?$pair@$$CBHU_LUCKY_ITEM_INFO@@@1@@Z ; std::_Tree<std::_Tmap_traits<int,_LUCKY_ITEM_INFO,std::less<int>,std::allocator<std::pair<int const ,_LUCKY_ITEM_INFO> >,0> >::insert<std::pair<int const ,_LUCKY_ITEM_INFO> >
PUBLIC	??0?$pair@$$CBHU_LUCKY_ITEM_INFO@@@std@@QAE@ABH$$QAU_LUCKY_ITEM_INFO@@@Z ; std::pair<int const ,_LUCKY_ITEM_INFO>::pair<int const ,_LUCKY_ITEM_INFO>
PUBLIC	??R?$less@H@std@@QBE_NABH0@Z			; std::less<int>::operator()
PUBLIC	?_Key@?$_Tree_val@V?$_Tmap_traits@HU_LUCKY_ITEM_INFO@@U?$less@H@std@@V?$allocator@U?$pair@$$CBHU_LUCKY_ITEM_INFO@@@std@@@3@$0A@@std@@@std@@SAAAHPAU_Node@?$_Tree_nod@V?$_Tmap_traits@HU_LUCKY_ITEM_INFO@@U?$less@H@std@@V?$allocator@U?$pair@$$CBHU_LUCKY_ITEM_INFO@@@std@@@3@$0A@@std@@@2@@Z ; std::_Tree_val<std::_Tmap_traits<int,_LUCKY_ITEM_INFO,std::less<int>,std::allocator<std::pair<int const ,_LUCKY_ITEM_INFO> >,0> >::_Key
PUBLIC	?_Mynode@?$_Tree_unchecked_const_iterator@V?$_Tree_val@V?$_Tmap_traits@HU_LUCKY_ITEM_INFO@@U?$less@H@std@@V?$allocator@U?$pair@$$CBHU_LUCKY_ITEM_INFO@@@std@@@3@$0A@@std@@@std@@U_Iterator_base0@2@@std@@QBEPAU_Node@?$_Tree_nod@V?$_Tmap_traits@HU_LUCKY_ITEM_INFO@@U?$less@H@std@@V?$allocator@U?$pair@$$CBHU_LUCKY_ITEM_INFO@@@std@@@3@$0A@@std@@@2@XZ ; std::_Tree_unchecked_const_iterator<std::_Tree_val<std::_Tmap_traits<int,_LUCKY_ITEM_INFO,std::less<int>,std::allocator<std::pair<int const ,_LUCKY_ITEM_INFO> >,0> >,std::_Iterator_base0>::_Mynode
PUBLIC	?lower_bound@?$_Tree@V?$_Tmap_traits@HU_LUCKY_ITEM_INFO@@U?$less@H@std@@V?$allocator@U?$pair@$$CBHU_LUCKY_ITEM_INFO@@@std@@@3@$0A@@std@@@std@@QAE?AV?$_Tree_iterator@V?$_Tree_val@V?$_Tmap_traits@HU_LUCKY_ITEM_INFO@@U?$less@H@std@@V?$allocator@U?$pair@$$CBHU_LUCKY_ITEM_INFO@@@std@@@3@$0A@@std@@@std@@@2@ABH@Z ; std::_Tree<std::_Tmap_traits<int,_LUCKY_ITEM_INFO,std::less<int>,std::allocator<std::pair<int const ,_LUCKY_ITEM_INFO> >,0> >::lower_bound
PUBLIC	__$ArrayPad$
; Function compile flags: /Odtp /ZI
;	COMDAT ??A?$map@HU_LUCKY_ITEM_INFO@@U?$less@H@std@@V?$allocator@U?$pair@$$CBHU_LUCKY_ITEM_INFO@@@std@@@3@@std@@QAEAAU_LUCKY_ITEM_INFO@@ABH@Z
_TEXT	SEGMENT
$T230056 = -932						; size = 420
$T230062 = -512						; size = 424
$T231355 = -88						; size = 4
$T231356 = -84						; size = 4
$T231357 = -80						; size = 4
__Where$ = -12						; size = 4
_this$ = -8						; size = 4
__$ArrayPad$ = -4					; size = 4
__Keyval$ = 8						; size = 4
??A?$map@HU_LUCKY_ITEM_INFO@@U?$less@H@std@@V?$allocator@U?$pair@$$CBHU_LUCKY_ITEM_INFO@@@std@@@3@@std@@QAEAAU_LUCKY_ITEM_INFO@@ABH@Z PROC ; std::map<int,_LUCKY_ITEM_INFO,std::less<int>,std::allocator<std::pair<int const ,_LUCKY_ITEM_INFO> > >::operator[], COMDAT
; _this$ = ecx

; 210  : 		{	// find element matching _Keyval or insert with default mapped

  00000	55		 push	 ebp
  00001	8b ec		 mov	 ebp, esp
  00003	81 ec a4 03 00
	00		 sub	 esp, 932		; 000003a4H
  00009	a1 00 00 00 00	 mov	 eax, DWORD PTR ___security_cookie
  0000e	33 c5		 xor	 eax, ebp
  00010	89 45 fc	 mov	 DWORD PTR __$ArrayPad$[ebp], eax
  00013	53		 push	 ebx
  00014	56		 push	 esi
  00015	57		 push	 edi
  00016	89 4d f8	 mov	 DWORD PTR _this$[ebp], ecx

; 211  : 		iterator _Where = this->lower_bound(_Keyval);

  00019	8b 45 08	 mov	 eax, DWORD PTR __Keyval$[ebp]
  0001c	50		 push	 eax
  0001d	8d 4d f4	 lea	 ecx, DWORD PTR __Where$[ebp]
  00020	51		 push	 ecx
  00021	8b 4d f8	 mov	 ecx, DWORD PTR _this$[ebp]
  00024	e8 00 00 00 00	 call	 ?lower_bound@?$_Tree@V?$_Tmap_traits@HU_LUCKY_ITEM_INFO@@U?$less@H@std@@V?$allocator@U?$pair@$$CBHU_LUCKY_ITEM_INFO@@@std@@@3@$0A@@std@@@std@@QAE?AV?$_Tree_iterator@V?$_Tree_val@V?$_Tmap_traits@HU_LUCKY_ITEM_INFO@@U?$less@H@std@@V?$allocator@U?$pair@$$CBHU_LUCKY_ITEM_INFO@@@std@@@3@$0A@@std@@@std@@@2@ABH@Z ; std::_Tree<std::_Tmap_traits<int,_LUCKY_ITEM_INFO,std::less<int>,std::allocator<std::pair<int const ,_LUCKY_ITEM_INFO> >,0> >::lower_bound

; 212  : 		if (_Where == this->end()
; 213  : 			|| this->comp(_Keyval, this->_Key(_Where._Mynode())))

  00029	8d 45 a8	 lea	 eax, DWORD PTR $T231355[ebp]
  0002c	50		 push	 eax
  0002d	8b 4d f8	 mov	 ecx, DWORD PTR _this$[ebp]
  00030	e8 00 00 00 00	 call	 ?end@?$_Tree@V?$_Tmap_traits@HU_LUCKY_ITEM_INFO@@U?$less@H@std@@V?$allocator@U?$pair@$$CBHU_LUCKY_ITEM_INFO@@@std@@@3@$0A@@std@@@std@@QAE?AV?$_Tree_iterator@V?$_Tree_val@V?$_Tmap_traits@HU_LUCKY_ITEM_INFO@@U?$less@H@std@@V?$allocator@U?$pair@$$CBHU_LUCKY_ITEM_INFO@@@std@@@3@$0A@@std@@@std@@@2@XZ ; std::_Tree<std::_Tmap_traits<int,_LUCKY_ITEM_INFO,std::less<int>,std::allocator<std::pair<int const ,_LUCKY_ITEM_INFO> >,0> >::end
  00035	50		 push	 eax
  00036	8d 4d f4	 lea	 ecx, DWORD PTR __Where$[ebp]
  00039	e8 00 00 00 00	 call	 ??8?$_Tree_const_iterator@V?$_Tree_val@V?$_Tmap_traits@HU_LUCKY_ITEM_INFO@@U?$less@H@std@@V?$allocator@U?$pair@$$CBHU_LUCKY_ITEM_INFO@@@std@@@3@$0A@@std@@@std@@@std@@QBE_NABV01@@Z ; std::_Tree_const_iterator<std::_Tree_val<std::_Tmap_traits<int,_LUCKY_ITEM_INFO,std::less<int>,std::allocator<std::pair<int const ,_LUCKY_ITEM_INFO> >,0> > >::operator==
  0003e	0f b6 c8	 movzx	 ecx, al
  00041	85 c9		 test	 ecx, ecx
  00043	75 25		 jne	 SHORT $LN1@operator
  00045	8d 4d f4	 lea	 ecx, DWORD PTR __Where$[ebp]
  00048	e8 00 00 00 00	 call	 ?_Mynode@?$_Tree_unchecked_const_iterator@V?$_Tree_val@V?$_Tmap_traits@HU_LUCKY_ITEM_INFO@@U?$less@H@std@@V?$allocator@U?$pair@$$CBHU_LUCKY_ITEM_INFO@@@std@@@3@$0A@@std@@@std@@U_Iterator_base0@2@@std@@QBEPAU_Node@?$_Tree_nod@V?$_Tmap_traits@HU_LUCKY_ITEM_INFO@@U?$less@H@std@@V?$allocator@U?$pair@$$CBHU_LUCKY_ITEM_INFO@@@std@@@3@$0A@@std@@@2@XZ ; std::_Tree_unchecked_const_iterator<std::_Tree_val<std::_Tmap_traits<int,_LUCKY_ITEM_INFO,std::less<int>,std::allocator<std::pair<int const ,_LUCKY_ITEM_INFO> >,0> >,std::_Iterator_base0>::_Mynode
  0004d	50		 push	 eax
  0004e	e8 00 00 00 00	 call	 ?_Key@?$_Tree_val@V?$_Tmap_traits@HU_LUCKY_ITEM_INFO@@U?$less@H@std@@V?$allocator@U?$pair@$$CBHU_LUCKY_ITEM_INFO@@@std@@@3@$0A@@std@@@std@@SAAAHPAU_Node@?$_Tree_nod@V?$_Tmap_traits@HU_LUCKY_ITEM_INFO@@U?$less@H@std@@V?$allocator@U?$pair@$$CBHU_LUCKY_ITEM_INFO@@@std@@@3@$0A@@std@@@2@@Z ; std::_Tree_val<std::_Tmap_traits<int,_LUCKY_ITEM_INFO,std::less<int>,std::allocator<std::pair<int const ,_LUCKY_ITEM_INFO> >,0> >::_Key
  00053	83 c4 04	 add	 esp, 4
  00056	50		 push	 eax
  00057	8b 45 08	 mov	 eax, DWORD PTR __Keyval$[ebp]
  0005a	50		 push	 eax
  0005b	8b 4d f8	 mov	 ecx, DWORD PTR _this$[ebp]
  0005e	e8 00 00 00 00	 call	 ??R?$less@H@std@@QBE_NABH0@Z ; std::less<int>::operator()
  00063	0f b6 c8	 movzx	 ecx, al
  00066	85 c9		 test	 ecx, ecx
  00068	74 37		 je	 SHORT $LN2@operator
$LN1@operator:

; 214  : 			_Where = this->insert(_Where,
; 215  : 				value_type(_Keyval, mapped_type()));

  0006a	8b 45 f4	 mov	 eax, DWORD PTR __Where$[ebp]
  0006d	89 45 ac	 mov	 DWORD PTR $T231356[ebp], eax
  00070	8d 8d 5c fc ff
	ff		 lea	 ecx, DWORD PTR $T230056[ebp]
  00076	e8 00 00 00 00	 call	 ??0_LUCKY_ITEM_INFO@@QAE@XZ ; _LUCKY_ITEM_INFO::_LUCKY_ITEM_INFO
  0007b	50		 push	 eax
  0007c	8b 4d 08	 mov	 ecx, DWORD PTR __Keyval$[ebp]
  0007f	51		 push	 ecx
  00080	8d 8d 00 fe ff
	ff		 lea	 ecx, DWORD PTR $T230062[ebp]
  00086	e8 00 00 00 00	 call	 ??0?$pair@$$CBHU_LUCKY_ITEM_INFO@@@std@@QAE@ABH$$QAU_LUCKY_ITEM_INFO@@@Z ; std::pair<int const ,_LUCKY_ITEM_INFO>::pair<int const ,_LUCKY_ITEM_INFO>
  0008b	50		 push	 eax
  0008c	8b 55 ac	 mov	 edx, DWORD PTR $T231356[ebp]
  0008f	52		 push	 edx
  00090	8d 45 b0	 lea	 eax, DWORD PTR $T231357[ebp]
  00093	50		 push	 eax
  00094	8b 4d f8	 mov	 ecx, DWORD PTR _this$[ebp]
  00097	e8 00 00 00 00	 call	 ??$insert@U?$pair@$$CBHU_LUCKY_ITEM_INFO@@@std@@@?$_Tree@V?$_Tmap_traits@HU_LUCKY_ITEM_INFO@@U?$less@H@std@@V?$allocator@U?$pair@$$CBHU_LUCKY_ITEM_INFO@@@std@@@3@$0A@@std@@@std@@QAE?AV?$_Tree_iterator@V?$_Tree_val@V?$_Tmap_traits@HU_LUCKY_ITEM_INFO@@U?$less@H@std@@V?$allocator@U?$pair@$$CBHU_LUCKY_ITEM_INFO@@@std@@@3@$0A@@std@@@std@@@1@V?$_Tree_const_iterator@V?$_Tree_val@V?$_Tmap_traits@HU_LUCKY_ITEM_INFO@@U?$less@H@std@@V?$allocator@U?$pair@$$CBHU_LUCKY_ITEM_INFO@@@std@@@3@$0A@@std@@@std@@@1@$$QAU?$pair@$$CBHU_LUCKY_ITEM_INFO@@@1@@Z ; std::_Tree<std::_Tmap_traits<int,_LUCKY_ITEM_INFO,std::less<int>,std::allocator<std::pair<int const ,_LUCKY_ITEM_INFO> >,0> >::insert<std::pair<int const ,_LUCKY_ITEM_INFO> >
  0009c	8b 08		 mov	 ecx, DWORD PTR [eax]
  0009e	89 4d f4	 mov	 DWORD PTR __Where$[ebp], ecx
$LN2@operator:

; 216  : 		return ((*_Where).second);

  000a1	8d 4d f4	 lea	 ecx, DWORD PTR __Where$[ebp]
  000a4	e8 00 00 00 00	 call	 ??D?$_Tree_iterator@V?$_Tree_val@V?$_Tmap_traits@HU_LUCKY_ITEM_INFO@@U?$less@H@std@@V?$allocator@U?$pair@$$CBHU_LUCKY_ITEM_INFO@@@std@@@3@$0A@@std@@@std@@@std@@QBEAAU?$pair@$$CBHU_LUCKY_ITEM_INFO@@@1@XZ ; std::_Tree_iterator<std::_Tree_val<std::_Tmap_traits<int,_LUCKY_ITEM_INFO,std::less<int>,std::allocator<std::pair<int const ,_LUCKY_ITEM_INFO> >,0> > >::operator*
  000a9	83 c0 04	 add	 eax, 4

; 217  : 		}

  000ac	5f		 pop	 edi
  000ad	5e		 pop	 esi
  000ae	5b		 pop	 ebx
  000af	8b 4d fc	 mov	 ecx, DWORD PTR __$ArrayPad$[ebp]
  000b2	33 cd		 xor	 ecx, ebp
  000b4	e8 00 00 00 00	 call	 @__security_check_cookie@4
  000b9	8b e5		 mov	 esp, ebp
  000bb	5d		 pop	 ebp
  000bc	c2 04 00	 ret	 4
??A?$map@HU_LUCKY_ITEM_INFO@@U?$less@H@std@@V?$allocator@U?$pair@$$CBHU_LUCKY_ITEM_INFO@@@std@@@3@@std@@QAEAAU_LUCKY_ITEM_INFO@@ABH@Z ENDP ; std::map<int,_LUCKY_ITEM_INFO,std::less<int>,std::allocator<std::pair<int const ,_LUCKY_ITEM_INFO> > >::operator[]
_TEXT	ENDS
PUBLIC	??1?$_Tree_val@V?$_Tmap_traits@HU_LUCKY_ITEM_INFO@@U?$less@H@std@@V?$allocator@U?$pair@$$CBHU_LUCKY_ITEM_INFO@@@std@@@3@$0A@@std@@@std@@QAE@XZ ; std::_Tree_val<std::_Tmap_traits<int,_LUCKY_ITEM_INFO,std::less<int>,std::allocator<std::pair<int const ,_LUCKY_ITEM_INFO> >,0> >::~_Tree_val<std::_Tmap_traits<int,_LUCKY_ITEM_INFO,std::less<int>,std::allocator<std::pair<int const ,_LUCKY_ITEM_INFO> >,0> >
PUBLIC	?_Tidy@?$_Tree@V?$_Tmap_traits@HU_LUCKY_ITEM_INFO@@U?$less@H@std@@V?$allocator@U?$pair@$$CBHU_LUCKY_ITEM_INFO@@@std@@@3@$0A@@std@@@std@@IAEXXZ ; std::_Tree<std::_Tmap_traits<int,_LUCKY_ITEM_INFO,std::less<int>,std::allocator<std::pair<int const ,_LUCKY_ITEM_INFO> >,0> >::_Tidy
EXTRN	___CxxFrameHandler3:PROC
;	COMDAT xdata$x
; File d:\microsoft visual studio 10.0\vc\include\xtree
xdata$x	SEGMENT
__unwindtable$??1?$_Tree@V?$_Tmap_traits@HU_LUCKY_ITEM_INFO@@U?$less@H@std@@V?$allocator@U?$pair@$$CBHU_LUCKY_ITEM_INFO@@@std@@@3@$0A@@std@@@std@@QAE@XZ DD 0ffffffffH
	DD	FLAT:__unwindfunclet$??1?$_Tree@V?$_Tmap_traits@HU_LUCKY_ITEM_INFO@@U?$less@H@std@@V?$allocator@U?$pair@$$CBHU_LUCKY_ITEM_INFO@@@std@@@3@$0A@@std@@@std@@QAE@XZ$0
__ehfuncinfo$??1?$_Tree@V?$_Tmap_traits@HU_LUCKY_ITEM_INFO@@U?$less@H@std@@V?$allocator@U?$pair@$$CBHU_LUCKY_ITEM_INFO@@@std@@@3@$0A@@std@@@std@@QAE@XZ DD 019930522H
	DD	01H
	DD	FLAT:__unwindtable$??1?$_Tree@V?$_Tmap_traits@HU_LUCKY_ITEM_INFO@@U?$less@H@std@@V?$allocator@U?$pair@$$CBHU_LUCKY_ITEM_INFO@@@std@@@3@$0A@@std@@@std@@QAE@XZ
	DD	2 DUP(00H)
	DD	2 DUP(00H)
	DD	00H
	DD	01H
; Function compile flags: /Odtp /ZI
xdata$x	ENDS
;	COMDAT ??1?$_Tree@V?$_Tmap_traits@HU_LUCKY_ITEM_INFO@@U?$less@H@std@@V?$allocator@U?$pair@$$CBHU_LUCKY_ITEM_INFO@@@std@@@3@$0A@@std@@@std@@QAE@XZ
_TEXT	SEGMENT
_this$ = -16						; size = 4
__$EHRec$ = -12						; size = 12
??1?$_Tree@V?$_Tmap_traits@HU_LUCKY_ITEM_INFO@@U?$less@H@std@@V?$allocator@U?$pair@$$CBHU_LUCKY_ITEM_INFO@@@std@@@3@$0A@@std@@@std@@QAE@XZ PROC ; std::_Tree<std::_Tmap_traits<int,_LUCKY_ITEM_INFO,std::less<int>,std::allocator<std::pair<int const ,_LUCKY_ITEM_INFO> >,0> >::~_Tree<std::_Tmap_traits<int,_LUCKY_ITEM_INFO,std::less<int>,std::allocator<std::pair<int const ,_LUCKY_ITEM_INFO> >,0> >, COMDAT
; _this$ = ecx

; 790  : 		{	// destroy tree

  00000	55		 push	 ebp
  00001	8b ec		 mov	 ebp, esp
  00003	6a ff		 push	 -1
  00005	68 00 00 00 00	 push	 __ehhandler$??1?$_Tree@V?$_Tmap_traits@HU_LUCKY_ITEM_INFO@@U?$less@H@std@@V?$allocator@U?$pair@$$CBHU_LUCKY_ITEM_INFO@@@std@@@3@$0A@@std@@@std@@QAE@XZ
  0000a	64 a1 00 00 00
	00		 mov	 eax, DWORD PTR fs:0
  00010	50		 push	 eax
  00011	83 ec 44	 sub	 esp, 68			; 00000044H
  00014	53		 push	 ebx
  00015	56		 push	 esi
  00016	57		 push	 edi
  00017	a1 00 00 00 00	 mov	 eax, DWORD PTR ___security_cookie
  0001c	33 c5		 xor	 eax, ebp
  0001e	50		 push	 eax
  0001f	8d 45 f4	 lea	 eax, DWORD PTR __$EHRec$[ebp]
  00022	64 a3 00 00 00
	00		 mov	 DWORD PTR fs:0, eax
  00028	89 4d f0	 mov	 DWORD PTR _this$[ebp], ecx
  0002b	c7 45 fc 00 00
	00 00		 mov	 DWORD PTR __$EHRec$[ebp+8], 0

; 791  : 		_Tidy();

  00032	8b 4d f0	 mov	 ecx, DWORD PTR _this$[ebp]
  00035	e8 00 00 00 00	 call	 ?_Tidy@?$_Tree@V?$_Tmap_traits@HU_LUCKY_ITEM_INFO@@U?$less@H@std@@V?$allocator@U?$pair@$$CBHU_LUCKY_ITEM_INFO@@@std@@@3@$0A@@std@@@std@@IAEXXZ ; std::_Tree<std::_Tmap_traits<int,_LUCKY_ITEM_INFO,std::less<int>,std::allocator<std::pair<int const ,_LUCKY_ITEM_INFO> >,0> >::_Tidy

; 792  : 		}

  0003a	c7 45 fc ff ff
	ff ff		 mov	 DWORD PTR __$EHRec$[ebp+8], -1
  00041	8b 4d f0	 mov	 ecx, DWORD PTR _this$[ebp]
  00044	e8 00 00 00 00	 call	 ??1?$_Tree_val@V?$_Tmap_traits@HU_LUCKY_ITEM_INFO@@U?$less@H@std@@V?$allocator@U?$pair@$$CBHU_LUCKY_ITEM_INFO@@@std@@@3@$0A@@std@@@std@@QAE@XZ ; std::_Tree_val<std::_Tmap_traits<int,_LUCKY_ITEM_INFO,std::less<int>,std::allocator<std::pair<int const ,_LUCKY_ITEM_INFO> >,0> >::~_Tree_val<std::_Tmap_traits<int,_LUCKY_ITEM_INFO,std::less<int>,std::allocator<std::pair<int const ,_LUCKY_ITEM_INFO> >,0> >
  00049	8b 4d f4	 mov	 ecx, DWORD PTR __$EHRec$[ebp]
  0004c	64 89 0d 00 00
	00 00		 mov	 DWORD PTR fs:0, ecx
  00053	59		 pop	 ecx
  00054	5f		 pop	 edi
  00055	5e		 pop	 esi
  00056	5b		 pop	 ebx
  00057	8b e5		 mov	 esp, ebp
  00059	5d		 pop	 ebp
  0005a	c3		 ret	 0
_TEXT	ENDS
;	COMDAT text$x
text$x	SEGMENT
__unwindfunclet$??1?$_Tree@V?$_Tmap_traits@HU_LUCKY_ITEM_INFO@@U?$less@H@std@@V?$allocator@U?$pair@$$CBHU_LUCKY_ITEM_INFO@@@std@@@3@$0A@@std@@@std@@QAE@XZ$0:
  00000	8b 4d f0	 mov	 ecx, DWORD PTR _this$[ebp]
  00003	e9 00 00 00 00	 jmp	 ??1?$_Tree_val@V?$_Tmap_traits@HU_LUCKY_ITEM_INFO@@U?$less@H@std@@V?$allocator@U?$pair@$$CBHU_LUCKY_ITEM_INFO@@@std@@@3@$0A@@std@@@std@@QAE@XZ ; std::_Tree_val<std::_Tmap_traits<int,_LUCKY_ITEM_INFO,std::less<int>,std::allocator<std::pair<int const ,_LUCKY_ITEM_INFO> >,0> >::~_Tree_val<std::_Tmap_traits<int,_LUCKY_ITEM_INFO,std::less<int>,std::allocator<std::pair<int const ,_LUCKY_ITEM_INFO> >,0> >
__ehhandler$??1?$_Tree@V?$_Tmap_traits@HU_LUCKY_ITEM_INFO@@U?$less@H@std@@V?$allocator@U?$pair@$$CBHU_LUCKY_ITEM_INFO@@@std@@@3@$0A@@std@@@std@@QAE@XZ:
  00008	8b 54 24 08	 mov	 edx, DWORD PTR [esp+8]
  0000c	8d 42 0c	 lea	 eax, DWORD PTR [edx+12]
  0000f	8b 4a ac	 mov	 ecx, DWORD PTR [edx-84]
  00012	33 c8		 xor	 ecx, eax
  00014	e8 00 00 00 00	 call	 @__security_check_cookie@4
  00019	b8 00 00 00 00	 mov	 eax, OFFSET __ehfuncinfo$??1?$_Tree@V?$_Tmap_traits@HU_LUCKY_ITEM_INFO@@U?$less@H@std@@V?$allocator@U?$pair@$$CBHU_LUCKY_ITEM_INFO@@@std@@@3@$0A@@std@@@std@@QAE@XZ
  0001e	e9 00 00 00 00	 jmp	 ___CxxFrameHandler3
text$x	ENDS
??1?$_Tree@V?$_Tmap_traits@HU_LUCKY_ITEM_INFO@@U?$less@H@std@@V?$allocator@U?$pair@$$CBHU_LUCKY_ITEM_INFO@@@std@@@3@$0A@@std@@@std@@QAE@XZ ENDP ; std::_Tree<std::_Tmap_traits<int,_LUCKY_ITEM_INFO,std::less<int>,std::allocator<std::pair<int const ,_LUCKY_ITEM_INFO> >,0> >::~_Tree<std::_Tmap_traits<int,_LUCKY_ITEM_INFO,std::less<int>,std::allocator<std::pair<int const ,_LUCKY_ITEM_INFO> >,0> >
PUBLIC	??0?$_Tree_iterator@V?$_Tree_val@V?$_Tmap_traits@HU_LUCKY_ITEM_INFO@@U?$less@H@std@@V?$allocator@U?$pair@$$CBHU_LUCKY_ITEM_INFO@@@std@@@3@$0A@@std@@@std@@@std@@QAE@PAU_Node@?$_Tree_nod@V?$_Tmap_traits@HU_LUCKY_ITEM_INFO@@U?$less@H@std@@V?$allocator@U?$pair@$$CBHU_LUCKY_ITEM_INFO@@@std@@@3@$0A@@std@@@1@PBV?$_Tree_val@V?$_Tmap_traits@HU_LUCKY_ITEM_INFO@@U?$less@H@std@@V?$allocator@U?$pair@$$CBHU_LUCKY_ITEM_INFO@@@std@@@3@$0A@@std@@@1@@Z ; std::_Tree_iterator<std::_Tree_val<std::_Tmap_traits<int,_LUCKY_ITEM_INFO,std::less<int>,std::allocator<std::pair<int const ,_LUCKY_ITEM_INFO> >,0> > >::_Tree_iterator<std::_Tree_val<std::_Tmap_traits<int,_LUCKY_ITEM_INFO,std::less<int>,std::allocator<std::pair<int const ,_LUCKY_ITEM_INFO> >,0> > >
PUBLIC	?_Lmost@?$_Tree@V?$_Tmap_traits@HU_LUCKY_ITEM_INFO@@U?$less@H@std@@V?$allocator@U?$pair@$$CBHU_LUCKY_ITEM_INFO@@@std@@@3@$0A@@std@@@std@@IBEAAPAU_Node@?$_Tree_nod@V?$_Tmap_traits@HU_LUCKY_ITEM_INFO@@U?$less@H@std@@V?$allocator@U?$pair@$$CBHU_LUCKY_ITEM_INFO@@@std@@@3@$0A@@std@@@2@XZ ; std::_Tree<std::_Tmap_traits<int,_LUCKY_ITEM_INFO,std::less<int>,std::allocator<std::pair<int const ,_LUCKY_ITEM_INFO> >,0> >::_Lmost
; Function compile flags: /Odtp /ZI
;	COMDAT ?begin@?$_Tree@V?$_Tmap_traits@HU_LUCKY_ITEM_INFO@@U?$less@H@std@@V?$allocator@U?$pair@$$CBHU_LUCKY_ITEM_INFO@@@std@@@3@$0A@@std@@@std@@QAE?AV?$_Tree_iterator@V?$_Tree_val@V?$_Tmap_traits@HU_LUCKY_ITEM_INFO@@U?$less@H@std@@V?$allocator@U?$pair@$$CBHU_LUCKY_ITEM_INFO@@@std@@@3@$0A@@std@@@std@@@2@XZ
_TEXT	SEGMENT
_this$ = -4						; size = 4
___$ReturnUdt$ = 8					; size = 4
?begin@?$_Tree@V?$_Tmap_traits@HU_LUCKY_ITEM_INFO@@U?$less@H@std@@V?$allocator@U?$pair@$$CBHU_LUCKY_ITEM_INFO@@@std@@@3@$0A@@std@@@std@@QAE?AV?$_Tree_iterator@V?$_Tree_val@V?$_Tmap_traits@HU_LUCKY_ITEM_INFO@@U?$less@H@std@@V?$allocator@U?$pair@$$CBHU_LUCKY_ITEM_INFO@@@std@@@3@$0A@@std@@@std@@@2@XZ PROC ; std::_Tree<std::_Tmap_traits<int,_LUCKY_ITEM_INFO,std::less<int>,std::allocator<std::pair<int const ,_LUCKY_ITEM_INFO> >,0> >::begin, COMDAT
; _this$ = ecx

; 806  : 		{	// return iterator for beginning of mutable sequence

  00000	55		 push	 ebp
  00001	8b ec		 mov	 ebp, esp
  00003	83 ec 44	 sub	 esp, 68			; 00000044H
  00006	53		 push	 ebx
  00007	56		 push	 esi
  00008	57		 push	 edi
  00009	89 4d fc	 mov	 DWORD PTR _this$[ebp], ecx

; 807  : 		return (iterator(_Lmost(), this));

  0000c	8b 45 fc	 mov	 eax, DWORD PTR _this$[ebp]
  0000f	50		 push	 eax
  00010	8b 4d fc	 mov	 ecx, DWORD PTR _this$[ebp]
  00013	e8 00 00 00 00	 call	 ?_Lmost@?$_Tree@V?$_Tmap_traits@HU_LUCKY_ITEM_INFO@@U?$less@H@std@@V?$allocator@U?$pair@$$CBHU_LUCKY_ITEM_INFO@@@std@@@3@$0A@@std@@@std@@IBEAAPAU_Node@?$_Tree_nod@V?$_Tmap_traits@HU_LUCKY_ITEM_INFO@@U?$less@H@std@@V?$allocator@U?$pair@$$CBHU_LUCKY_ITEM_INFO@@@std@@@3@$0A@@std@@@2@XZ ; std::_Tree<std::_Tmap_traits<int,_LUCKY_ITEM_INFO,std::less<int>,std::allocator<std::pair<int const ,_LUCKY_ITEM_INFO> >,0> >::_Lmost
  00018	8b 08		 mov	 ecx, DWORD PTR [eax]
  0001a	51		 push	 ecx
  0001b	8b 4d 08	 mov	 ecx, DWORD PTR ___$ReturnUdt$[ebp]
  0001e	e8 00 00 00 00	 call	 ??0?$_Tree_iterator@V?$_Tree_val@V?$_Tmap_traits@HU_LUCKY_ITEM_INFO@@U?$less@H@std@@V?$allocator@U?$pair@$$CBHU_LUCKY_ITEM_INFO@@@std@@@3@$0A@@std@@@std@@@std@@QAE@PAU_Node@?$_Tree_nod@V?$_Tmap_traits@HU_LUCKY_ITEM_INFO@@U?$less@H@std@@V?$allocator@U?$pair@$$CBHU_LUCKY_ITEM_INFO@@@std@@@3@$0A@@std@@@1@PBV?$_Tree_val@V?$_Tmap_traits@HU_LUCKY_ITEM_INFO@@U?$less@H@std@@V?$allocator@U?$pair@$$CBHU_LUCKY_ITEM_INFO@@@std@@@3@$0A@@std@@@1@@Z ; std::_Tree_iterator<std::_Tree_val<std::_Tmap_traits<int,_LUCKY_ITEM_INFO,std::less<int>,std::allocator<std::pair<int const ,_LUCKY_ITEM_INFO> >,0> > >::_Tree_iterator<std::_Tree_val<std::_Tmap_traits<int,_LUCKY_ITEM_INFO,std::less<int>,std::allocator<std::pair<int const ,_LUCKY_ITEM_INFO> >,0> > >
  00023	8b 45 08	 mov	 eax, DWORD PTR ___$ReturnUdt$[ebp]

; 808  : 		}

  00026	5f		 pop	 edi
  00027	5e		 pop	 esi
  00028	5b		 pop	 ebx
  00029	8b e5		 mov	 esp, ebp
  0002b	5d		 pop	 ebp
  0002c	c2 04 00	 ret	 4
?begin@?$_Tree@V?$_Tmap_traits@HU_LUCKY_ITEM_INFO@@U?$less@H@std@@V?$allocator@U?$pair@$$CBHU_LUCKY_ITEM_INFO@@@std@@@3@$0A@@std@@@std@@QAE?AV?$_Tree_iterator@V?$_Tree_val@V?$_Tmap_traits@HU_LUCKY_ITEM_INFO@@U?$less@H@std@@V?$allocator@U?$pair@$$CBHU_LUCKY_ITEM_INFO@@@std@@@3@$0A@@std@@@std@@@2@XZ ENDP ; std::_Tree<std::_Tmap_traits<int,_LUCKY_ITEM_INFO,std::less<int>,std::allocator<std::pair<int const ,_LUCKY_ITEM_INFO> >,0> >::begin
; Function compile flags: /Odtp /ZI
_TEXT	ENDS
;	COMDAT ?end@?$_Tree@V?$_Tmap_traits@HU_LUCKY_ITEM_INFO@@U?$less@H@std@@V?$allocator@U?$pair@$$CBHU_LUCKY_ITEM_INFO@@@std@@@3@$0A@@std@@@std@@QAE?AV?$_Tree_iterator@V?$_Tree_val@V?$_Tmap_traits@HU_LUCKY_ITEM_INFO@@U?$less@H@std@@V?$allocator@U?$pair@$$CBHU_LUCKY_ITEM_INFO@@@std@@@3@$0A@@std@@@std@@@2@XZ
_TEXT	SEGMENT
_this$ = -4						; size = 4
___$ReturnUdt$ = 8					; size = 4
?end@?$_Tree@V?$_Tmap_traits@HU_LUCKY_ITEM_INFO@@U?$less@H@std@@V?$allocator@U?$pair@$$CBHU_LUCKY_ITEM_INFO@@@std@@@3@$0A@@std@@@std@@QAE?AV?$_Tree_iterator@V?$_Tree_val@V?$_Tmap_traits@HU_LUCKY_ITEM_INFO@@U?$less@H@std@@V?$allocator@U?$pair@$$CBHU_LUCKY_ITEM_INFO@@@std@@@3@$0A@@std@@@std@@@2@XZ PROC ; std::_Tree<std::_Tmap_traits<int,_LUCKY_ITEM_INFO,std::less<int>,std::allocator<std::pair<int const ,_LUCKY_ITEM_INFO> >,0> >::end, COMDAT
; _this$ = ecx

; 816  : 		{	// return iterator for end of mutable sequence

  00000	55		 push	 ebp
  00001	8b ec		 mov	 ebp, esp
  00003	83 ec 44	 sub	 esp, 68			; 00000044H
  00006	53		 push	 ebx
  00007	56		 push	 esi
  00008	57		 push	 edi
  00009	89 4d fc	 mov	 DWORD PTR _this$[ebp], ecx

; 817  : 		return (iterator(this->_Myhead, this));

  0000c	8b 45 fc	 mov	 eax, DWORD PTR _this$[ebp]
  0000f	50		 push	 eax
  00010	8b 4d fc	 mov	 ecx, DWORD PTR _this$[ebp]
  00013	8b 51 04	 mov	 edx, DWORD PTR [ecx+4]
  00016	52		 push	 edx
  00017	8b 4d 08	 mov	 ecx, DWORD PTR ___$ReturnUdt$[ebp]
  0001a	e8 00 00 00 00	 call	 ??0?$_Tree_iterator@V?$_Tree_val@V?$_Tmap_traits@HU_LUCKY_ITEM_INFO@@U?$less@H@std@@V?$allocator@U?$pair@$$CBHU_LUCKY_ITEM_INFO@@@std@@@3@$0A@@std@@@std@@@std@@QAE@PAU_Node@?$_Tree_nod@V?$_Tmap_traits@HU_LUCKY_ITEM_INFO@@U?$less@H@std@@V?$allocator@U?$pair@$$CBHU_LUCKY_ITEM_INFO@@@std@@@3@$0A@@std@@@1@PBV?$_Tree_val@V?$_Tmap_traits@HU_LUCKY_ITEM_INFO@@U?$less@H@std@@V?$allocator@U?$pair@$$CBHU_LUCKY_ITEM_INFO@@@std@@@3@$0A@@std@@@1@@Z ; std::_Tree_iterator<std::_Tree_val<std::_Tmap_traits<int,_LUCKY_ITEM_INFO,std::less<int>,std::allocator<std::pair<int const ,_LUCKY_ITEM_INFO> >,0> > >::_Tree_iterator<std::_Tree_val<std::_Tmap_traits<int,_LUCKY_ITEM_INFO,std::less<int>,std::allocator<std::pair<int const ,_LUCKY_ITEM_INFO> >,0> > >
  0001f	8b 45 08	 mov	 eax, DWORD PTR ___$ReturnUdt$[ebp]

; 818  : 		}

  00022	5f		 pop	 edi
  00023	5e		 pop	 esi
  00024	5b		 pop	 ebx
  00025	8b e5		 mov	 esp, ebp
  00027	5d		 pop	 ebp
  00028	c2 04 00	 ret	 4
?end@?$_Tree@V?$_Tmap_traits@HU_LUCKY_ITEM_INFO@@U?$less@H@std@@V?$allocator@U?$pair@$$CBHU_LUCKY_ITEM_INFO@@@std@@@3@$0A@@std@@@std@@QAE?AV?$_Tree_iterator@V?$_Tree_val@V?$_Tmap_traits@HU_LUCKY_ITEM_INFO@@U?$less@H@std@@V?$allocator@U?$pair@$$CBHU_LUCKY_ITEM_INFO@@@std@@@3@$0A@@std@@@std@@@2@XZ ENDP ; std::_Tree<std::_Tmap_traits<int,_LUCKY_ITEM_INFO,std::less<int>,std::allocator<std::pair<int const ,_LUCKY_ITEM_INFO> >,0> >::end
; Function compile flags: /Odtp /ZI
_TEXT	ENDS
;	COMDAT ?find@?$_Tree@V?$_Tmap_traits@HU_LUCKY_ITEM_INFO@@U?$less@H@std@@V?$allocator@U?$pair@$$CBHU_LUCKY_ITEM_INFO@@@std@@@3@$0A@@std@@@std@@QAE?AV?$_Tree_iterator@V?$_Tree_val@V?$_Tmap_traits@HU_LUCKY_ITEM_INFO@@U?$less@H@std@@V?$allocator@U?$pair@$$CBHU_LUCKY_ITEM_INFO@@@std@@@3@$0A@@std@@@std@@@2@ABH@Z
_TEXT	SEGMENT
tv137 = -88						; size = 4
$T231376 = -84						; size = 4
$T231377 = -80						; size = 4
$T231379 = -76						; size = 4
__Where$ = -8						; size = 4
_this$ = -4						; size = 4
___$ReturnUdt$ = 8					; size = 4
__Keyval$ = 12						; size = 4
?find@?$_Tree@V?$_Tmap_traits@HU_LUCKY_ITEM_INFO@@U?$less@H@std@@V?$allocator@U?$pair@$$CBHU_LUCKY_ITEM_INFO@@@std@@@3@$0A@@std@@@std@@QAE?AV?$_Tree_iterator@V?$_Tree_val@V?$_Tmap_traits@HU_LUCKY_ITEM_INFO@@U?$less@H@std@@V?$allocator@U?$pair@$$CBHU_LUCKY_ITEM_INFO@@@std@@@3@$0A@@std@@@std@@@2@ABH@Z PROC ; std::_Tree<std::_Tmap_traits<int,_LUCKY_ITEM_INFO,std::less<int>,std::allocator<std::pair<int const ,_LUCKY_ITEM_INFO> >,0> >::find, COMDAT
; _this$ = ecx

; 1423 : 		{	// find an element in mutable sequence that matches _Keyval

  00000	55		 push	 ebp
  00001	8b ec		 mov	 ebp, esp
  00003	83 ec 58	 sub	 esp, 88			; 00000058H
  00006	53		 push	 ebx
  00007	56		 push	 esi
  00008	57		 push	 edi
  00009	89 4d fc	 mov	 DWORD PTR _this$[ebp], ecx

; 1424 : 		iterator _Where = lower_bound(_Keyval);

  0000c	8b 45 0c	 mov	 eax, DWORD PTR __Keyval$[ebp]
  0000f	50		 push	 eax
  00010	8d 4d f8	 lea	 ecx, DWORD PTR __Where$[ebp]
  00013	51		 push	 ecx
  00014	8b 4d fc	 mov	 ecx, DWORD PTR _this$[ebp]
  00017	e8 00 00 00 00	 call	 ?lower_bound@?$_Tree@V?$_Tmap_traits@HU_LUCKY_ITEM_INFO@@U?$less@H@std@@V?$allocator@U?$pair@$$CBHU_LUCKY_ITEM_INFO@@@std@@@3@$0A@@std@@@std@@QAE?AV?$_Tree_iterator@V?$_Tree_val@V?$_Tmap_traits@HU_LUCKY_ITEM_INFO@@U?$less@H@std@@V?$allocator@U?$pair@$$CBHU_LUCKY_ITEM_INFO@@@std@@@3@$0A@@std@@@std@@@2@ABH@Z ; std::_Tree<std::_Tmap_traits<int,_LUCKY_ITEM_INFO,std::less<int>,std::allocator<std::pair<int const ,_LUCKY_ITEM_INFO> >,0> >::lower_bound

; 1425 : 		return (_Where == end()
; 1426 : 			|| _DEBUG_LT_PRED(this->comp,
; 1427 : 				_Keyval, this->_Key(_Where._Mynode()))
; 1428 : 					? end() : _Where);

  0001c	8d 45 b0	 lea	 eax, DWORD PTR $T231377[ebp]
  0001f	50		 push	 eax
  00020	8b 4d fc	 mov	 ecx, DWORD PTR _this$[ebp]
  00023	e8 00 00 00 00	 call	 ?end@?$_Tree@V?$_Tmap_traits@HU_LUCKY_ITEM_INFO@@U?$less@H@std@@V?$allocator@U?$pair@$$CBHU_LUCKY_ITEM_INFO@@@std@@@3@$0A@@std@@@std@@QAE?AV?$_Tree_iterator@V?$_Tree_val@V?$_Tmap_traits@HU_LUCKY_ITEM_INFO@@U?$less@H@std@@V?$allocator@U?$pair@$$CBHU_LUCKY_ITEM_INFO@@@std@@@3@$0A@@std@@@std@@@2@XZ ; std::_Tree<std::_Tmap_traits<int,_LUCKY_ITEM_INFO,std::less<int>,std::allocator<std::pair<int const ,_LUCKY_ITEM_INFO> >,0> >::end
  00028	50		 push	 eax
  00029	8d 4d f8	 lea	 ecx, DWORD PTR __Where$[ebp]
  0002c	e8 00 00 00 00	 call	 ??8?$_Tree_const_iterator@V?$_Tree_val@V?$_Tmap_traits@HU_LUCKY_ITEM_INFO@@U?$less@H@std@@V?$allocator@U?$pair@$$CBHU_LUCKY_ITEM_INFO@@@std@@@3@$0A@@std@@@std@@@std@@QBE_NABV01@@Z ; std::_Tree_const_iterator<std::_Tree_val<std::_Tmap_traits<int,_LUCKY_ITEM_INFO,std::less<int>,std::allocator<std::pair<int const ,_LUCKY_ITEM_INFO> >,0> > >::operator==
  00031	0f b6 c8	 movzx	 ecx, al
  00034	85 c9		 test	 ecx, ecx
  00036	75 2d		 jne	 SHORT $LN3@find
  00038	8d 4d f8	 lea	 ecx, DWORD PTR __Where$[ebp]
  0003b	e8 00 00 00 00	 call	 ?_Mynode@?$_Tree_unchecked_const_iterator@V?$_Tree_val@V?$_Tmap_traits@HU_LUCKY_ITEM_INFO@@U?$less@H@std@@V?$allocator@U?$pair@$$CBHU_LUCKY_ITEM_INFO@@@std@@@3@$0A@@std@@@std@@U_Iterator_base0@2@@std@@QBEPAU_Node@?$_Tree_nod@V?$_Tmap_traits@HU_LUCKY_ITEM_INFO@@U?$less@H@std@@V?$allocator@U?$pair@$$CBHU_LUCKY_ITEM_INFO@@@std@@@3@$0A@@std@@@2@XZ ; std::_Tree_unchecked_const_iterator<std::_Tree_val<std::_Tmap_traits<int,_LUCKY_ITEM_INFO,std::less<int>,std::allocator<std::pair<int const ,_LUCKY_ITEM_INFO> >,0> >,std::_Iterator_base0>::_Mynode
  00040	50		 push	 eax
  00041	e8 00 00 00 00	 call	 ?_Key@?$_Tree_val@V?$_Tmap_traits@HU_LUCKY_ITEM_INFO@@U?$less@H@std@@V?$allocator@U?$pair@$$CBHU_LUCKY_ITEM_INFO@@@std@@@3@$0A@@std@@@std@@SAAAHPAU_Node@?$_Tree_nod@V?$_Tmap_traits@HU_LUCKY_ITEM_INFO@@U?$less@H@std@@V?$allocator@U?$pair@$$CBHU_LUCKY_ITEM_INFO@@@std@@@3@$0A@@std@@@2@@Z ; std::_Tree_val<std::_Tmap_traits<int,_LUCKY_ITEM_INFO,std::less<int>,std::allocator<std::pair<int const ,_LUCKY_ITEM_INFO> >,0> >::_Key
  00046	83 c4 04	 add	 esp, 4
  00049	50		 push	 eax
  0004a	8b 55 0c	 mov	 edx, DWORD PTR __Keyval$[ebp]
  0004d	52		 push	 edx
  0004e	8b 4d fc	 mov	 ecx, DWORD PTR _this$[ebp]
  00051	e8 00 00 00 00	 call	 ??R?$less@H@std@@QBE_NABH0@Z ; std::less<int>::operator()
  00056	0f b6 c0	 movzx	 eax, al
  00059	85 c0		 test	 eax, eax
  0005b	75 08		 jne	 SHORT $LN3@find
  0005d	8d 4d f8	 lea	 ecx, DWORD PTR __Where$[ebp]
  00060	89 4d a8	 mov	 DWORD PTR tv137[ebp], ecx
  00063	eb 0f		 jmp	 SHORT $LN4@find
$LN3@find:
  00065	8d 55 b4	 lea	 edx, DWORD PTR $T231379[ebp]
  00068	52		 push	 edx
  00069	8b 4d fc	 mov	 ecx, DWORD PTR _this$[ebp]
  0006c	e8 00 00 00 00	 call	 ?end@?$_Tree@V?$_Tmap_traits@HU_LUCKY_ITEM_INFO@@U?$less@H@std@@V?$allocator@U?$pair@$$CBHU_LUCKY_ITEM_INFO@@@std@@@3@$0A@@std@@@std@@QAE?AV?$_Tree_iterator@V?$_Tree_val@V?$_Tmap_traits@HU_LUCKY_ITEM_INFO@@U?$less@H@std@@V?$allocator@U?$pair@$$CBHU_LUCKY_ITEM_INFO@@@std@@@3@$0A@@std@@@std@@@2@XZ ; std::_Tree<std::_Tmap_traits<int,_LUCKY_ITEM_INFO,std::less<int>,std::allocator<std::pair<int const ,_LUCKY_ITEM_INFO> >,0> >::end
  00071	89 45 a8	 mov	 DWORD PTR tv137[ebp], eax
$LN4@find:
  00074	8b 45 a8	 mov	 eax, DWORD PTR tv137[ebp]
  00077	89 45 ac	 mov	 DWORD PTR $T231376[ebp], eax
  0007a	8b 4d ac	 mov	 ecx, DWORD PTR $T231376[ebp]
  0007d	8b 11		 mov	 edx, DWORD PTR [ecx]
  0007f	8b 45 08	 mov	 eax, DWORD PTR ___$ReturnUdt$[ebp]
  00082	89 10		 mov	 DWORD PTR [eax], edx
  00084	8b 45 08	 mov	 eax, DWORD PTR ___$ReturnUdt$[ebp]

; 1429 : 		}

  00087	5f		 pop	 edi
  00088	5e		 pop	 esi
  00089	5b		 pop	 ebx
  0008a	8b e5		 mov	 esp, ebp
  0008c	5d		 pop	 ebp
  0008d	c2 08 00	 ret	 8
?find@?$_Tree@V?$_Tmap_traits@HU_LUCKY_ITEM_INFO@@U?$less@H@std@@V?$allocator@U?$pair@$$CBHU_LUCKY_ITEM_INFO@@@std@@@3@$0A@@std@@@std@@QAE?AV?$_Tree_iterator@V?$_Tree_val@V?$_Tmap_traits@HU_LUCKY_ITEM_INFO@@U?$less@H@std@@V?$allocator@U?$pair@$$CBHU_LUCKY_ITEM_INFO@@@std@@@3@$0A@@std@@@std@@@2@ABH@Z ENDP ; std::_Tree<std::_Tmap_traits<int,_LUCKY_ITEM_INFO,std::less<int>,std::allocator<std::pair<int const ,_LUCKY_ITEM_INFO> >,0> >::find
; Function compile flags: /Odtp /ZI
_TEXT	ENDS
;	COMDAT ??C?$_Tree_iterator@V?$_Tree_val@V?$_Tmap_traits@HU_LUCKY_ITEM_INFO@@U?$less@H@std@@V?$allocator@U?$pair@$$CBHU_LUCKY_ITEM_INFO@@@std@@@3@$0A@@std@@@std@@@std@@QBEPAU?$pair@$$CBHU_LUCKY_ITEM_INFO@@@1@XZ
_TEXT	SEGMENT
_this$ = -4						; size = 4
??C?$_Tree_iterator@V?$_Tree_val@V?$_Tmap_traits@HU_LUCKY_ITEM_INFO@@U?$less@H@std@@V?$allocator@U?$pair@$$CBHU_LUCKY_ITEM_INFO@@@std@@@3@$0A@@std@@@std@@@std@@QBEPAU?$pair@$$CBHU_LUCKY_ITEM_INFO@@@1@XZ PROC ; std::_Tree_iterator<std::_Tree_val<std::_Tmap_traits<int,_LUCKY_ITEM_INFO,std::less<int>,std::allocator<std::pair<int const ,_LUCKY_ITEM_INFO> >,0> > >::operator->, COMDAT
; _this$ = ecx

; 400  : 		{	// return pointer to class object

  00000	55		 push	 ebp
  00001	8b ec		 mov	 ebp, esp
  00003	83 ec 44	 sub	 esp, 68			; 00000044H
  00006	53		 push	 ebx
  00007	56		 push	 esi
  00008	57		 push	 edi
  00009	89 4d fc	 mov	 DWORD PTR _this$[ebp], ecx

; 401  : 		return (&**this);

  0000c	8b 4d fc	 mov	 ecx, DWORD PTR _this$[ebp]
  0000f	e8 00 00 00 00	 call	 ??D?$_Tree_iterator@V?$_Tree_val@V?$_Tmap_traits@HU_LUCKY_ITEM_INFO@@U?$less@H@std@@V?$allocator@U?$pair@$$CBHU_LUCKY_ITEM_INFO@@@std@@@3@$0A@@std@@@std@@@std@@QBEAAU?$pair@$$CBHU_LUCKY_ITEM_INFO@@@1@XZ ; std::_Tree_iterator<std::_Tree_val<std::_Tmap_traits<int,_LUCKY_ITEM_INFO,std::less<int>,std::allocator<std::pair<int const ,_LUCKY_ITEM_INFO> >,0> > >::operator*

; 402  : 		}

  00014	5f		 pop	 edi
  00015	5e		 pop	 esi
  00016	5b		 pop	 ebx
  00017	8b e5		 mov	 esp, ebp
  00019	5d		 pop	 ebp
  0001a	c3		 ret	 0
??C?$_Tree_iterator@V?$_Tree_val@V?$_Tmap_traits@HU_LUCKY_ITEM_INFO@@U?$less@H@std@@V?$allocator@U?$pair@$$CBHU_LUCKY_ITEM_INFO@@@std@@@3@$0A@@std@@@std@@@std@@QBEPAU?$pair@$$CBHU_LUCKY_ITEM_INFO@@@1@XZ ENDP ; std::_Tree_iterator<std::_Tree_val<std::_Tmap_traits<int,_LUCKY_ITEM_INFO,std::less<int>,std::allocator<std::pair<int const ,_LUCKY_ITEM_INFO> >,0> > >::operator->
_TEXT	ENDS
PUBLIC	??E?$_Tree_iterator@V?$_Tree_val@V?$_Tmap_traits@HU_LUCKY_ITEM_INFO@@U?$less@H@std@@V?$allocator@U?$pair@$$CBHU_LUCKY_ITEM_INFO@@@std@@@3@$0A@@std@@@std@@@std@@QAEAAV01@XZ ; std::_Tree_iterator<std::_Tree_val<std::_Tmap_traits<int,_LUCKY_ITEM_INFO,std::less<int>,std::allocator<std::pair<int const ,_LUCKY_ITEM_INFO> >,0> > >::operator++
; Function compile flags: /Odtp /ZI
;	COMDAT ??E?$_Tree_iterator@V?$_Tree_val@V?$_Tmap_traits@HU_LUCKY_ITEM_INFO@@U?$less@H@std@@V?$allocator@U?$pair@$$CBHU_LUCKY_ITEM_INFO@@@std@@@3@$0A@@std@@@std@@@std@@QAE?AV01@H@Z
_TEXT	SEGMENT
__Tmp$ = -8						; size = 4
_this$ = -4						; size = 4
___$ReturnUdt$ = 8					; size = 4
___formal$ = 12						; size = 4
??E?$_Tree_iterator@V?$_Tree_val@V?$_Tmap_traits@HU_LUCKY_ITEM_INFO@@U?$less@H@std@@V?$allocator@U?$pair@$$CBHU_LUCKY_ITEM_INFO@@@std@@@3@$0A@@std@@@std@@@std@@QAE?AV01@H@Z PROC ; std::_Tree_iterator<std::_Tree_val<std::_Tmap_traits<int,_LUCKY_ITEM_INFO,std::less<int>,std::allocator<std::pair<int const ,_LUCKY_ITEM_INFO> >,0> > >::operator++, COMDAT
; _this$ = ecx

; 411  : 		{	// postincrement

  00000	55		 push	 ebp
  00001	8b ec		 mov	 ebp, esp
  00003	83 ec 48	 sub	 esp, 72			; 00000048H
  00006	53		 push	 ebx
  00007	56		 push	 esi
  00008	57		 push	 edi
  00009	89 4d fc	 mov	 DWORD PTR _this$[ebp], ecx

; 412  : 		_Myiter _Tmp = *this;

  0000c	8b 45 fc	 mov	 eax, DWORD PTR _this$[ebp]
  0000f	8b 08		 mov	 ecx, DWORD PTR [eax]
  00011	89 4d f8	 mov	 DWORD PTR __Tmp$[ebp], ecx

; 413  : 		++*this;

  00014	8b 4d fc	 mov	 ecx, DWORD PTR _this$[ebp]
  00017	e8 00 00 00 00	 call	 ??E?$_Tree_iterator@V?$_Tree_val@V?$_Tmap_traits@HU_LUCKY_ITEM_INFO@@U?$less@H@std@@V?$allocator@U?$pair@$$CBHU_LUCKY_ITEM_INFO@@@std@@@3@$0A@@std@@@std@@@std@@QAEAAV01@XZ ; std::_Tree_iterator<std::_Tree_val<std::_Tmap_traits<int,_LUCKY_ITEM_INFO,std::less<int>,std::allocator<std::pair<int const ,_LUCKY_ITEM_INFO> >,0> > >::operator++

; 414  : 		return (_Tmp);

  0001c	8b 45 08	 mov	 eax, DWORD PTR ___$ReturnUdt$[ebp]
  0001f	8b 4d f8	 mov	 ecx, DWORD PTR __Tmp$[ebp]
  00022	89 08		 mov	 DWORD PTR [eax], ecx
  00024	8b 45 08	 mov	 eax, DWORD PTR ___$ReturnUdt$[ebp]

; 415  : 		}

  00027	5f		 pop	 edi
  00028	5e		 pop	 esi
  00029	5b		 pop	 ebx
  0002a	8b e5		 mov	 esp, ebp
  0002c	5d		 pop	 ebp
  0002d	c2 08 00	 ret	 8
??E?$_Tree_iterator@V?$_Tree_val@V?$_Tmap_traits@HU_LUCKY_ITEM_INFO@@U?$less@H@std@@V?$allocator@U?$pair@$$CBHU_LUCKY_ITEM_INFO@@@std@@@3@$0A@@std@@@std@@@std@@QAE?AV01@H@Z ENDP ; std::_Tree_iterator<std::_Tree_val<std::_Tmap_traits<int,_LUCKY_ITEM_INFO,std::less<int>,std::allocator<std::pair<int const ,_LUCKY_ITEM_INFO> >,0> > >::operator++
; Function compile flags: /Odtp /ZI
_TEXT	ENDS
;	COMDAT ??8?$_Tree_const_iterator@V?$_Tree_val@V?$_Tmap_traits@HU_LUCKY_ITEM_INFO@@U?$less@H@std@@V?$allocator@U?$pair@$$CBHU_LUCKY_ITEM_INFO@@@std@@@3@$0A@@std@@@std@@@std@@QBE_NABV01@@Z
_TEXT	SEGMENT
_this$ = -4						; size = 4
__Right$ = 8						; size = 4
??8?$_Tree_const_iterator@V?$_Tree_val@V?$_Tmap_traits@HU_LUCKY_ITEM_INFO@@U?$less@H@std@@V?$allocator@U?$pair@$$CBHU_LUCKY_ITEM_INFO@@@std@@@3@$0A@@std@@@std@@@std@@QBE_NABV01@@Z PROC ; std::_Tree_const_iterator<std::_Tree_val<std::_Tmap_traits<int,_LUCKY_ITEM_INFO,std::less<int>,std::allocator<std::pair<int const ,_LUCKY_ITEM_INFO> >,0> > >::operator==, COMDAT
; _this$ = ecx

; 316  : 		{	// test for iterator equality

  00000	55		 push	 ebp
  00001	8b ec		 mov	 ebp, esp
  00003	83 ec 44	 sub	 esp, 68			; 00000044H
  00006	53		 push	 ebx
  00007	56		 push	 esi
  00008	57		 push	 edi
  00009	89 4d fc	 mov	 DWORD PTR _this$[ebp], ecx

; 317  :  #if _ITERATOR_DEBUG_LEVEL == 2
; 318  : 		if (this->_Getcont() == 0
; 319  : 			|| this->_Getcont() != _Right._Getcont())
; 320  : 			{	// report error
; 321  : 			_DEBUG_ERROR("map/set iterators incompatible");
; 322  : 			_SCL_SECURE_INVALID_ARGUMENT;
; 323  : 			}
; 324  : 
; 325  :  #elif _ITERATOR_DEBUG_LEVEL == 1
; 326  : 		_SCL_SECURE_VALIDATE(this->_Getcont() != 0
; 327  : 			&& this->_Getcont() == _Right._Getcont());
; 328  :  #endif /* _ITERATOR_DEBUG_LEVEL */
; 329  : 
; 330  : 		return (this->_Ptr == _Right._Ptr);

  0000c	8b 45 fc	 mov	 eax, DWORD PTR _this$[ebp]
  0000f	8b 4d 08	 mov	 ecx, DWORD PTR __Right$[ebp]
  00012	8b 10		 mov	 edx, DWORD PTR [eax]
  00014	33 c0		 xor	 eax, eax
  00016	3b 11		 cmp	 edx, DWORD PTR [ecx]
  00018	0f 94 c0	 sete	 al

; 331  : 		}

  0001b	5f		 pop	 edi
  0001c	5e		 pop	 esi
  0001d	5b		 pop	 ebx
  0001e	8b e5		 mov	 esp, ebp
  00020	5d		 pop	 ebp
  00021	c2 04 00	 ret	 4
??8?$_Tree_const_iterator@V?$_Tree_val@V?$_Tmap_traits@HU_LUCKY_ITEM_INFO@@U?$less@H@std@@V?$allocator@U?$pair@$$CBHU_LUCKY_ITEM_INFO@@@std@@@3@$0A@@std@@@std@@@std@@QBE_NABV01@@Z ENDP ; std::_Tree_const_iterator<std::_Tree_val<std::_Tmap_traits<int,_LUCKY_ITEM_INFO,std::less<int>,std::allocator<std::pair<int const ,_LUCKY_ITEM_INFO> >,0> > >::operator==
; Function compile flags: /Odtp /ZI
_TEXT	ENDS
;	COMDAT ??9?$_Tree_const_iterator@V?$_Tree_val@V?$_Tmap_traits@HU_LUCKY_ITEM_INFO@@U?$less@H@std@@V?$allocator@U?$pair@$$CBHU_LUCKY_ITEM_INFO@@@std@@@3@$0A@@std@@@std@@@std@@QBE_NABV01@@Z
_TEXT	SEGMENT
_this$ = -4						; size = 4
__Right$ = 8						; size = 4
??9?$_Tree_const_iterator@V?$_Tree_val@V?$_Tmap_traits@HU_LUCKY_ITEM_INFO@@U?$less@H@std@@V?$allocator@U?$pair@$$CBHU_LUCKY_ITEM_INFO@@@std@@@3@$0A@@std@@@std@@@std@@QBE_NABV01@@Z PROC ; std::_Tree_const_iterator<std::_Tree_val<std::_Tmap_traits<int,_LUCKY_ITEM_INFO,std::less<int>,std::allocator<std::pair<int const ,_LUCKY_ITEM_INFO> >,0> > >::operator!=, COMDAT
; _this$ = ecx

; 334  : 		{	// test for iterator inequality

  00000	55		 push	 ebp
  00001	8b ec		 mov	 ebp, esp
  00003	83 ec 44	 sub	 esp, 68			; 00000044H
  00006	53		 push	 ebx
  00007	56		 push	 esi
  00008	57		 push	 edi
  00009	89 4d fc	 mov	 DWORD PTR _this$[ebp], ecx

; 335  : 		return (!(*this == _Right));

  0000c	8b 45 08	 mov	 eax, DWORD PTR __Right$[ebp]
  0000f	50		 push	 eax
  00010	8b 4d fc	 mov	 ecx, DWORD PTR _this$[ebp]
  00013	e8 00 00 00 00	 call	 ??8?$_Tree_const_iterator@V?$_Tree_val@V?$_Tmap_traits@HU_LUCKY_ITEM_INFO@@U?$less@H@std@@V?$allocator@U?$pair@$$CBHU_LUCKY_ITEM_INFO@@@std@@@3@$0A@@std@@@std@@@std@@QBE_NABV01@@Z ; std::_Tree_const_iterator<std::_Tree_val<std::_Tmap_traits<int,_LUCKY_ITEM_INFO,std::less<int>,std::allocator<std::pair<int const ,_LUCKY_ITEM_INFO> >,0> > >::operator==
  00018	0f b6 c0	 movzx	 eax, al
  0001b	f7 d8		 neg	 eax
  0001d	1b c0		 sbb	 eax, eax
  0001f	83 c0 01	 add	 eax, 1

; 336  : 		}

  00022	5f		 pop	 edi
  00023	5e		 pop	 esi
  00024	5b		 pop	 ebx
  00025	8b e5		 mov	 esp, ebp
  00027	5d		 pop	 ebp
  00028	c2 04 00	 ret	 4
??9?$_Tree_const_iterator@V?$_Tree_val@V?$_Tmap_traits@HU_LUCKY_ITEM_INFO@@U?$less@H@std@@V?$allocator@U?$pair@$$CBHU_LUCKY_ITEM_INFO@@@std@@@3@$0A@@std@@@std@@@std@@QBE_NABV01@@Z ENDP ; std::_Tree_const_iterator<std::_Tree_val<std::_Tmap_traits<int,_LUCKY_ITEM_INFO,std::less<int>,std::allocator<std::pair<int const ,_LUCKY_ITEM_INFO> >,0> > >::operator!=
; Function compile flags: /Odtp /ZI
; File d:\microsoft visual studio 10.0\vc\include\xfunctional
_TEXT	ENDS
;	COMDAT ??R?$less@H@std@@QBE_NABH0@Z
_TEXT	SEGMENT
_this$ = -4						; size = 4
__Left$ = 8						; size = 4
__Right$ = 12						; size = 4
??R?$less@H@std@@QBE_NABH0@Z PROC			; std::less<int>::operator(), COMDAT
; _this$ = ecx

; 124  : 		{	// apply operator< to operands

  00000	55		 push	 ebp
  00001	8b ec		 mov	 ebp, esp
  00003	83 ec 44	 sub	 esp, 68			; 00000044H
  00006	53		 push	 ebx
  00007	56		 push	 esi
  00008	57		 push	 edi
