; Listing generated by Microsoft (R) Optimizing Compiler Version 16.00.40219.01 

	TITLE	D:\Projects\ExTeam6.3\Source\GameServer\GameServer\MapServerManager.cpp
	.686P
	.XMM
	include listing.inc
	.model	flat

INCLUDELIB LIBCMT
INCLUDELIB OLDNAMES

_DATA	SEGMENT
_g_iNpcUpDfLevel_CGATE DD 01H
	DD	02H
	DD	02dc6c0H
	DD	02H
	DD	03H
	DD	02dc6c0H
	DD	03H
	DD	04H
	DD	02dc6c0H
_g_iNpcUpDfLevel_CSTATUE DD 01H
	DD	03H
	DD	02dc6c0H
	DD	02H
	DD	05H
	DD	02dc6c0H
	DD	03H
	DD	07H
	DD	02dc6c0H
_g_iNpcUpMaxHP_CGATE DD 02625a0H
	DD	02H
	DD	0f4240H
	DD	03567e0H
	DD	03H
	DD	0f4240H
	DD	04f5880H
	DD	04H
	DD	0f4240H
_g_iNpcUpMaxHP_CSTATUE DD 02191c0H
	DD	03H
	DD	0f4240H
	DD	033e140H
	DD	05H
	DD	0f4240H
	DD	04c4b40H
	DD	07H
	DD	0f4240H
_g_iNpcUpRgLevel_CSTATUE DD 01H
	DD	03H
	DD	04c4b40H
	DD	02H
	DD	05H
	DD	04c4b40H
	DD	03H
	DD	07H
	DD	04c4b40H
_g_iCsUserReSpawnArea DD 023H
	DD	011H
	DD	090H
	DD	030H
	DD	04aH
	DD	090H
	DD	073H
	DD	09aH
	DD	023H
	DD	011H
	DD	090H
	DD	030H
_g_iNpcDefense_CGATE DD 064H
	DD	0b4H
	DD	012cH
	DD	0208H
_g_iNpcDefense_CSTATUE DD 050H
	DD	0b4H
	DD	0154H
	DD	0226H
_g_iCastleWallStepAxisY DD 071H
	DD	0a0H
	DD	0cbH
_DATA	ENDS
PUBLIC	??_H@YGXPAXIHP6EPAX0@Z@Z			; `vector constructor iterator'
; Function compile flags: /Odtp /ZI
;	COMDAT ??_H@YGXPAXIHP6EPAX0@Z@Z
_TEXT	SEGMENT
___t$ = 8						; size = 4
___s$ = 12						; size = 4
___n$ = 16						; size = 4
___f$ = 20						; size = 4
??_H@YGXPAXIHP6EPAX0@Z@Z PROC				; `vector constructor iterator', COMDAT
  00000	55		 push	 ebp
  00001	8b ec		 mov	 ebp, esp
  00003	83 ec 40	 sub	 esp, 64			; 00000040H
  00006	53		 push	 ebx
  00007	56		 push	 esi
  00008	57		 push	 edi
$LN2@vector:
  00009	8b 45 10	 mov	 eax, DWORD PTR ___n$[ebp]
  0000c	83 e8 01	 sub	 eax, 1
  0000f	89 45 10	 mov	 DWORD PTR ___n$[ebp], eax
  00012	78 11		 js	 SHORT $LN3@vector
  00014	8b 4d 08	 mov	 ecx, DWORD PTR ___t$[ebp]
  00017	ff 55 14	 call	 DWORD PTR ___f$[ebp]
  0001a	8b 45 08	 mov	 eax, DWORD PTR ___t$[ebp]
  0001d	03 45 0c	 add	 eax, DWORD PTR ___s$[ebp]
  00020	89 45 08	 mov	 DWORD PTR ___t$[ebp], eax
  00023	eb e4		 jmp	 SHORT $LN2@vector
$LN3@vector:
  00025	5f		 pop	 edi
  00026	5e		 pop	 esi
  00027	5b		 pop	 ebx
  00028	8b e5		 mov	 esp, ebp
  0002a	5d		 pop	 ebp
  0002b	c2 10 00	 ret	 16			; 00000010H
??_H@YGXPAXIHP6EPAX0@Z@Z ENDP				; `vector constructor iterator'
_TEXT	ENDS
PUBLIC	?Clear@_MAPSVR_DATA@@QAEXH@Z			; _MAPSVR_DATA::Clear
PUBLIC	??_7_MAPSVR_DATA@@6B@				; _MAPSVR_DATA::`vftable'
PUBLIC	??0_MAPSVR_DATA@@QAE@XZ				; _MAPSVR_DATA::_MAPSVR_DATA
PUBLIC	??_R4_MAPSVR_DATA@@6B@				; _MAPSVR_DATA::`RTTI Complete Object Locator'
PUBLIC	??_R0?AU_MAPSVR_DATA@@@8			; _MAPSVR_DATA `RTTI Type Descriptor'
PUBLIC	??_R3_MAPSVR_DATA@@8				; _MAPSVR_DATA::`RTTI Class Hierarchy Descriptor'
PUBLIC	??_R2_MAPSVR_DATA@@8				; _MAPSVR_DATA::`RTTI Base Class Array'
PUBLIC	??_R1A@?0A@EA@_MAPSVR_DATA@@8			; _MAPSVR_DATA::`RTTI Base Class Descriptor at (0,-1,0,64)'
EXTRN	??_7type_info@@6B@:QWORD			; type_info::`vftable'
EXTRN	??_E_MAPSVR_DATA@@UAEPAXI@Z:PROC		; _MAPSVR_DATA::`vector deleting destructor'
;	COMDAT ??_R1A@?0A@EA@_MAPSVR_DATA@@8
; File d:\projects\exteam6.3\source\gameserver\gameserver\mapservermanager.cpp
rdata$r	SEGMENT
??_R1A@?0A@EA@_MAPSVR_DATA@@8 DD FLAT:??_R0?AU_MAPSVR_DATA@@@8 ; _MAPSVR_DATA::`RTTI Base Class Descriptor at (0,-1,0,64)'
	DD	00H
	DD	00H
	DD	0ffffffffH
	DD	00H
	DD	040H
	DD	FLAT:??_R3_MAPSVR_DATA@@8
rdata$r	ENDS
;	COMDAT ??_R2_MAPSVR_DATA@@8
rdata$r	SEGMENT
??_R2_MAPSVR_DATA@@8 DD FLAT:??_R1A@?0A@EA@_MAPSVR_DATA@@8 ; _MAPSVR_DATA::`RTTI Base Class Array'
rdata$r	ENDS
;	COMDAT ??_R3_MAPSVR_DATA@@8
rdata$r	SEGMENT
??_R3_MAPSVR_DATA@@8 DD 00H				; _MAPSVR_DATA::`RTTI Class Hierarchy Descriptor'
	DD	00H
	DD	01H
	DD	FLAT:??_R2_MAPSVR_DATA@@8
rdata$r	ENDS
;	COMDAT ??_R0?AU_MAPSVR_DATA@@@8
_DATA	SEGMENT
??_R0?AU_MAPSVR_DATA@@@8 DD FLAT:??_7type_info@@6B@	; _MAPSVR_DATA `RTTI Type Descriptor'
	DD	00H
	DB	'.?AU_MAPSVR_DATA@@', 00H
_DATA	ENDS
;	COMDAT ??_R4_MAPSVR_DATA@@6B@
rdata$r	SEGMENT
??_R4_MAPSVR_DATA@@6B@ DD 00H				; _MAPSVR_DATA::`RTTI Complete Object Locator'
	DD	00H
	DD	00H
	DD	FLAT:??_R0?AU_MAPSVR_DATA@@@8
	DD	FLAT:??_R3_MAPSVR_DATA@@8
rdata$r	ENDS
;	COMDAT ??_7_MAPSVR_DATA@@6B@
CONST	SEGMENT
??_7_MAPSVR_DATA@@6B@ DD FLAT:??_R4_MAPSVR_DATA@@6B@	; _MAPSVR_DATA::`vftable'
	DD	FLAT:??_E_MAPSVR_DATA@@UAEPAXI@Z
; Function compile flags: /Odtp /ZI
CONST	ENDS
_TEXT	SEGMENT
_this$ = -4						; size = 4
??0_MAPSVR_DATA@@QAE@XZ PROC				; _MAPSVR_DATA::_MAPSVR_DATA
; _this$ = ecx

; 11   : {

  00000	55		 push	 ebp
  00001	8b ec		 mov	 ebp, esp
  00003	83 ec 44	 sub	 esp, 68			; 00000044H
  00006	53		 push	 ebx
  00007	56		 push	 esi
  00008	57		 push	 edi
  00009	89 4d fc	 mov	 DWORD PTR _this$[ebp], ecx
  0000c	8b 45 fc	 mov	 eax, DWORD PTR _this$[ebp]
  0000f	c7 00 00 00 00
	00		 mov	 DWORD PTR [eax], OFFSET ??_7_MAPSVR_DATA@@6B@

; 12   : 	this->Clear(1);

  00015	6a 01		 push	 1
  00017	8b 4d fc	 mov	 ecx, DWORD PTR _this$[ebp]
  0001a	e8 00 00 00 00	 call	 ?Clear@_MAPSVR_DATA@@QAEXH@Z ; _MAPSVR_DATA::Clear

; 13   : }

  0001f	8b 45 fc	 mov	 eax, DWORD PTR _this$[ebp]
  00022	5f		 pop	 edi
  00023	5e		 pop	 esi
  00024	5b		 pop	 ebx
  00025	8b e5		 mov	 esp, ebp
  00027	5d		 pop	 ebp
  00028	c3		 ret	 0
??0_MAPSVR_DATA@@QAE@XZ ENDP				; _MAPSVR_DATA::_MAPSVR_DATA
_TEXT	ENDS
PUBLIC	??1_MAPSVR_DATA@@UAE@XZ				; _MAPSVR_DATA::~_MAPSVR_DATA
EXTRN	??3@YAXPAX@Z:PROC				; operator delete
; Function compile flags: /Odtp /ZI
;	COMDAT ??_G_MAPSVR_DATA@@UAEPAXI@Z
_TEXT	SEGMENT
_this$ = -4						; size = 4
___flags$ = 8						; size = 4
??_G_MAPSVR_DATA@@UAEPAXI@Z PROC			; _MAPSVR_DATA::`scalar deleting destructor', COMDAT
; _this$ = ecx
  00000	55		 push	 ebp
  00001	8b ec		 mov	 ebp, esp
  00003	83 ec 44	 sub	 esp, 68			; 00000044H
  00006	53		 push	 ebx
  00007	56		 push	 esi
  00008	57		 push	 edi
  00009	89 4d fc	 mov	 DWORD PTR _this$[ebp], ecx
  0000c	8b 4d fc	 mov	 ecx, DWORD PTR _this$[ebp]
  0000f	e8 00 00 00 00	 call	 ??1_MAPSVR_DATA@@UAE@XZ	; _MAPSVR_DATA::~_MAPSVR_DATA
  00014	8b 45 08	 mov	 eax, DWORD PTR ___flags$[ebp]
  00017	83 e0 01	 and	 eax, 1
  0001a	74 0c		 je	 SHORT $LN1@scalar
  0001c	8b 45 fc	 mov	 eax, DWORD PTR _this$[ebp]
  0001f	50		 push	 eax
  00020	e8 00 00 00 00	 call	 ??3@YAXPAX@Z		; operator delete
  00025	83 c4 04	 add	 esp, 4
$LN1@scalar:
  00028	8b 45 fc	 mov	 eax, DWORD PTR _this$[ebp]
  0002b	5f		 pop	 edi
  0002c	5e		 pop	 esi
  0002d	5b		 pop	 ebx
  0002e	8b e5		 mov	 esp, ebp
  00030	5d		 pop	 ebp
  00031	c2 04 00	 ret	 4
??_G_MAPSVR_DATA@@UAEPAXI@Z ENDP			; _MAPSVR_DATA::`scalar deleting destructor'
; Function compile flags: /Odtp /ZI
_TEXT	ENDS
_TEXT	SEGMENT
_this$ = -4						; size = 4
??1_MAPSVR_DATA@@UAE@XZ PROC				; _MAPSVR_DATA::~_MAPSVR_DATA
; _this$ = ecx

; 16   : {

  00030	55		 push	 ebp
  00031	8b ec		 mov	 ebp, esp
  00033	83 ec 44	 sub	 esp, 68			; 00000044H
  00036	53		 push	 ebx
  00037	56		 push	 esi
  00038	57		 push	 edi
  00039	89 4d fc	 mov	 DWORD PTR _this$[ebp], ecx
  0003c	8b 45 fc	 mov	 eax, DWORD PTR _this$[ebp]
  0003f	c7 00 00 00 00
	00		 mov	 DWORD PTR [eax], OFFSET ??_7_MAPSVR_DATA@@6B@

; 17   : 	return;
; 18   : }

  00045	5f		 pop	 edi
  00046	5e		 pop	 esi
  00047	5b		 pop	 ebx
  00048	8b e5		 mov	 esp, ebp
  0004a	5d		 pop	 ebp
  0004b	c3		 ret	 0
??1_MAPSVR_DATA@@UAE@XZ ENDP				; _MAPSVR_DATA::~_MAPSVR_DATA
_TEXT	ENDS
EXTRN	_memset:PROC
; Function compile flags: /Odtp /ZI
_TEXT	SEGMENT
tv74 = -76						; size = 4
_iMAP_COUNT$227715 = -8					; size = 4
_this$ = -4						; size = 4
_iInitSetVal$ = 8					; size = 4
?Clear@_MAPSVR_DATA@@QAEXH@Z PROC			; _MAPSVR_DATA::Clear
; _this$ = ecx

; 21   : {

  00050	55		 push	 ebp
  00051	8b ec		 mov	 ebp, esp
  00053	83 ec 4c	 sub	 esp, 76			; 0000004cH
  00056	53		 push	 ebx
  00057	56		 push	 esi
  00058	57		 push	 edi
  00059	89 4d fc	 mov	 DWORD PTR _this$[ebp], ecx

; 22   : 	this->m_bIN_USE = FALSE;

  0005c	8b 45 fc	 mov	 eax, DWORD PTR _this$[ebp]
  0005f	c7 40 04 00 00
	00 00		 mov	 DWORD PTR [eax+4], 0

; 23   : 	this->m_btMAPSVR_GROUP = -1;

  00066	8b 45 fc	 mov	 eax, DWORD PTR _this$[ebp]
  00069	c6 40 08 ff	 mov	 BYTE PTR [eax+8], 255	; 000000ffH

; 24   : 	this->m_sSVR_CODE = -1;

  0006d	83 c8 ff	 or	 eax, -1
  00070	8b 4d fc	 mov	 ecx, DWORD PTR _this$[ebp]
  00073	66 89 41 0a	 mov	 WORD PTR [ecx+10], ax

; 25   : 	memset(this->m_cIPADDR, 0, sizeof(this->m_cIPADDR));

  00077	6a 10		 push	 16			; 00000010H
  00079	6a 00		 push	 0
  0007b	8b 45 fc	 mov	 eax, DWORD PTR _this$[ebp]
  0007e	83 c0 0c	 add	 eax, 12			; 0000000cH
  00081	50		 push	 eax
  00082	e8 00 00 00 00	 call	 _memset
  00087	83 c4 0c	 add	 esp, 12			; 0000000cH

; 26   : 	this->m_wPORT = 0;

  0008a	33 c0		 xor	 eax, eax
  0008c	8b 4d fc	 mov	 ecx, DWORD PTR _this$[ebp]
  0008f	66 89 41 1c	 mov	 WORD PTR [ecx+28], ax

; 27   : 
; 28   : 	for ( int iMAP_COUNT =0;iMAP_COUNT<MAX_NUMBER_MAP;iMAP_COUNT++)

  00093	c7 45 f8 00 00
	00 00		 mov	 DWORD PTR _iMAP_COUNT$227715[ebp], 0
  0009a	eb 09		 jmp	 SHORT $LN8@Clear
$LN7@Clear:
  0009c	8b 45 f8	 mov	 eax, DWORD PTR _iMAP_COUNT$227715[ebp]
  0009f	83 c0 01	 add	 eax, 1
  000a2	89 45 f8	 mov	 DWORD PTR _iMAP_COUNT$227715[ebp], eax
$LN8@Clear:
  000a5	83 7d f8 5a	 cmp	 DWORD PTR _iMAP_COUNT$227715[ebp], 90 ; 0000005aH
  000a9	7d 48		 jge	 SHORT $LN9@Clear

; 29   : 	{
; 30   : 		switch ( iInitSetVal )

  000ab	8b 45 08	 mov	 eax, DWORD PTR _iInitSetVal$[ebp]
  000ae	89 45 b4	 mov	 DWORD PTR tv74[ebp], eax
  000b1	83 7d b4 ff	 cmp	 DWORD PTR tv74[ebp], -1
  000b5	74 08		 je	 SHORT $LN3@Clear
  000b7	83 7d b4 00	 cmp	 DWORD PTR tv74[ebp], 0
  000bb	74 14		 je	 SHORT $LN2@Clear
  000bd	eb 22		 jmp	 SHORT $LN1@Clear
$LN3@Clear:

; 31   : 		{
; 32   : 			case -1:
; 33   : 				this->m_sMAP_MOVE[iMAP_COUNT] = -2;

  000bf	b8 fe ff ff ff	 mov	 eax, -2			; fffffffeH
  000c4	8b 4d f8	 mov	 ecx, DWORD PTR _iMAP_COUNT$227715[ebp]
  000c7	8b 55 fc	 mov	 edx, DWORD PTR _this$[ebp]
  000ca	66 89 44 4a 1e	 mov	 WORD PTR [edx+ecx*2+30], ax

; 34   : 				break;

  000cf	eb 20		 jmp	 SHORT $LN4@Clear
$LN2@Clear:

; 35   : 			case 0:
; 36   : 				this->m_sMAP_MOVE[iMAP_COUNT] = -1;

  000d1	83 c8 ff	 or	 eax, -1
  000d4	8b 4d f8	 mov	 ecx, DWORD PTR _iMAP_COUNT$227715[ebp]
  000d7	8b 55 fc	 mov	 edx, DWORD PTR _this$[ebp]
  000da	66 89 44 4a 1e	 mov	 WORD PTR [edx+ecx*2+30], ax

; 37   : 				break;

  000df	eb 10		 jmp	 SHORT $LN4@Clear
$LN1@Clear:

; 38   : 			default:
; 39   : 				this->m_sMAP_MOVE[iMAP_COUNT] = -3;

  000e1	b8 fd ff ff ff	 mov	 eax, -3			; fffffffdH
  000e6	8b 4d f8	 mov	 ecx, DWORD PTR _iMAP_COUNT$227715[ebp]
  000e9	8b 55 fc	 mov	 edx, DWORD PTR _this$[ebp]
  000ec	66 89 44 4a 1e	 mov	 WORD PTR [edx+ecx*2+30], ax
$LN4@Clear:

; 40   : 		}
; 41   : 	}

  000f1	eb a9		 jmp	 SHORT $LN7@Clear
$LN9@Clear:

; 42   : }

  000f3	5f		 pop	 edi
  000f4	5e		 pop	 esi
  000f5	5b		 pop	 ebx
  000f6	8b e5		 mov	 esp, ebp
  000f8	5d		 pop	 ebp
  000f9	c2 04 00	 ret	 4
?Clear@_MAPSVR_DATA@@QAEXH@Z ENDP			; _MAPSVR_DATA::Clear
_TEXT	ENDS
PUBLIC	??0?$map@HPAU_MAPSVR_DATA@@U?$less@H@std@@V?$allocator@U?$pair@$$CBHPAU_MAPSVR_DATA@@@std@@@3@@std@@QAE@XZ ; std::map<int,_MAPSVR_DATA *,std::less<int>,std::allocator<std::pair<int const ,_MAPSVR_DATA *> > >::map<int,_MAPSVR_DATA *,std::less<int>,std::allocator<std::pair<int const ,_MAPSVR_DATA *> > >
PUBLIC	??_7CMapServerManager@@6B@			; CMapServerManager::`vftable'
PUBLIC	??0CMapServerManager@@QAE@XZ			; CMapServerManager::CMapServerManager
PUBLIC	??_R4CMapServerManager@@6B@			; CMapServerManager::`RTTI Complete Object Locator'
PUBLIC	??_R0?AVCMapServerManager@@@8			; CMapServerManager `RTTI Type Descriptor'
PUBLIC	??_R3CMapServerManager@@8			; CMapServerManager::`RTTI Class Hierarchy Descriptor'
PUBLIC	??_R2CMapServerManager@@8			; CMapServerManager::`RTTI Base Class Array'
PUBLIC	??_R1A@?0A@EA@CMapServerManager@@8		; CMapServerManager::`RTTI Base Class Descriptor at (0,-1,0,64)'
EXTRN	??_M@YGXPAXIHP6EX0@Z@Z:PROC			; `eh vector destructor iterator'
EXTRN	__imp__InitializeCriticalSection@4:PROC
EXTRN	_srand:PROC
EXTRN	??_L@YGXPAXIHP6EX0@Z1@Z:PROC			; `eh vector constructor iterator'
EXTRN	___security_cookie:DWORD
EXTRN	___CxxFrameHandler3:PROC
EXTRN	@__security_check_cookie@4:PROC
EXTRN	??_ECMapServerManager@@UAEPAXI@Z:PROC		; CMapServerManager::`vector deleting destructor'
;	COMDAT ??_R1A@?0A@EA@CMapServerManager@@8
rdata$r	SEGMENT
??_R1A@?0A@EA@CMapServerManager@@8 DD FLAT:??_R0?AVCMapServerManager@@@8 ; CMapServerManager::`RTTI Base Class Descriptor at (0,-1,0,64)'
	DD	00H
	DD	00H
	DD	0ffffffffH
	DD	00H
	DD	040H
	DD	FLAT:??_R3CMapServerManager@@8
rdata$r	ENDS
;	COMDAT ??_R2CMapServerManager@@8
rdata$r	SEGMENT
??_R2CMapServerManager@@8 DD FLAT:??_R1A@?0A@EA@CMapServerManager@@8 ; CMapServerManager::`RTTI Base Class Array'
rdata$r	ENDS
;	COMDAT ??_R3CMapServerManager@@8
rdata$r	SEGMENT
??_R3CMapServerManager@@8 DD 00H			; CMapServerManager::`RTTI Class Hierarchy Descriptor'
	DD	00H
	DD	01H
	DD	FLAT:??_R2CMapServerManager@@8
rdata$r	ENDS
;	COMDAT ??_R0?AVCMapServerManager@@@8
_DATA	SEGMENT
??_R0?AVCMapServerManager@@@8 DD FLAT:??_7type_info@@6B@ ; CMapServerManager `RTTI Type Descriptor'
	DD	00H
	DB	'.?AVCMapServerManager@@', 00H
_DATA	ENDS
;	COMDAT ??_R4CMapServerManager@@6B@
rdata$r	SEGMENT
??_R4CMapServerManager@@6B@ DD 00H			; CMapServerManager::`RTTI Complete Object Locator'
	DD	00H
	DD	00H
	DD	FLAT:??_R0?AVCMapServerManager@@@8
	DD	FLAT:??_R3CMapServerManager@@8
rdata$r	ENDS
;	COMDAT ??_7CMapServerManager@@6B@
CONST	SEGMENT
??_7CMapServerManager@@6B@ DD FLAT:??_R4CMapServerManager@@6B@ ; CMapServerManager::`vftable'
	DD	FLAT:??_ECMapServerManager@@UAEPAXI@Z
CONST	ENDS
xdata$x	SEGMENT
__unwindtable$??0CMapServerManager@@QAE@XZ DD 0ffffffffH
	DD	FLAT:__unwindfunclet$??0CMapServerManager@@QAE@XZ$0
__ehfuncinfo$??0CMapServerManager@@QAE@XZ DD 019930522H
	DD	01H
	DD	FLAT:__unwindtable$??0CMapServerManager@@QAE@XZ
	DD	2 DUP(00H)
	DD	2 DUP(00H)
	DD	00H
	DD	01H
; Function compile flags: /Odtp /ZI
xdata$x	ENDS
_TEXT	SEGMENT
_this$ = -16						; size = 4
__$EHRec$ = -12						; size = 12
??0CMapServerManager@@QAE@XZ PROC			; CMapServerManager::CMapServerManager
; _this$ = ecx

; 48   : {

  00100	55		 push	 ebp
  00101	8b ec		 mov	 ebp, esp
  00103	6a ff		 push	 -1
  00105	68 00 00 00 00	 push	 __ehhandler$??0CMapServerManager@@QAE@XZ
  0010a	64 a1 00 00 00
	00		 mov	 eax, DWORD PTR fs:0
  00110	50		 push	 eax
  00111	83 ec 44	 sub	 esp, 68			; 00000044H
  00114	53		 push	 ebx
  00115	56		 push	 esi
  00116	57		 push	 edi
  00117	a1 00 00 00 00	 mov	 eax, DWORD PTR ___security_cookie
  0011c	33 c5		 xor	 eax, ebp
  0011e	50		 push	 eax
  0011f	8d 45 f4	 lea	 eax, DWORD PTR __$EHRec$[ebp]
  00122	64 a3 00 00 00
	00		 mov	 DWORD PTR fs:0, eax
  00128	89 4d f0	 mov	 DWORD PTR _this$[ebp], ecx
  0012b	8b 45 f0	 mov	 eax, DWORD PTR _this$[ebp]
  0012e	c7 00 00 00 00
	00		 mov	 DWORD PTR [eax], OFFSET ??_7CMapServerManager@@6B@
  00134	68 00 00 00 00	 push	 OFFSET ??1_MAPSVR_DATA@@UAE@XZ ; _MAPSVR_DATA::~_MAPSVR_DATA
  00139	68 00 00 00 00	 push	 OFFSET ??0_MAPSVR_DATA@@QAE@XZ ; _MAPSVR_DATA::_MAPSVR_DATA
  0013e	68 90 01 00 00	 push	 400			; 00000190H
  00143	68 d4 00 00 00	 push	 212			; 000000d4H
  00148	8b 45 f0	 mov	 eax, DWORD PTR _this$[ebp]
  0014b	83 c0 08	 add	 eax, 8
  0014e	50		 push	 eax
  0014f	e8 00 00 00 00	 call	 ??_L@YGXPAXIHP6EX0@Z1@Z
  00154	c7 45 fc 00 00
	00 00		 mov	 DWORD PTR __$EHRec$[ebp+8], 0
  0015b	8b 4d f0	 mov	 ecx, DWORD PTR _this$[ebp]
  0015e	81 c1 98 4b 01
	00		 add	 ecx, 84888		; 00014b98H
  00164	e8 00 00 00 00	 call	 ??0?$map@HPAU_MAPSVR_DATA@@U?$less@H@std@@V?$allocator@U?$pair@$$CBHPAU_MAPSVR_DATA@@@std@@@3@@std@@QAE@XZ ; std::map<int,_MAPSVR_DATA *,std::less<int>,std::allocator<std::pair<int const ,_MAPSVR_DATA *> > >::map<int,_MAPSVR_DATA *,std::less<int>,std::allocator<std::pair<int const ,_MAPSVR_DATA *> > >

; 49   : 	srand(time(NULL)); 

  00169	6a 00		 push	 0
  0016b	e8 00 00 00 00	 call	 _time
  00170	83 c4 04	 add	 esp, 4
  00173	50		 push	 eax
  00174	e8 00 00 00 00	 call	 _srand
  00179	83 c4 04	 add	 esp, 4

; 50   : 	this->m_bMapDataLoadOk=FALSE;

  0017c	8b 45 f0	 mov	 eax, DWORD PTR _this$[ebp]
  0017f	c7 40 04 00 00
	00 00		 mov	 DWORD PTR [eax+4], 0

; 51   : 	this->m_lpThisMapSvrData = NULL;

  00186	8b 45 f0	 mov	 eax, DWORD PTR _this$[ebp]
  00189	c7 80 c0 4b 01
	00 00 00 00 00	 mov	 DWORD PTR [eax+84928], 0

; 52   : 
; 53   : 	InitializeCriticalSection(&this->m_critSVRCODE_MAP);

  00193	8b 45 f0	 mov	 eax, DWORD PTR _this$[ebp]
  00196	05 a8 4b 01 00	 add	 eax, 84904		; 00014ba8H
  0019b	50		 push	 eax
  0019c	ff 15 00 00 00
	00		 call	 DWORD PTR __imp__InitializeCriticalSection@4

; 54   : }

  001a2	c7 45 fc ff ff
	ff ff		 mov	 DWORD PTR __$EHRec$[ebp+8], -1
  001a9	8b 45 f0	 mov	 eax, DWORD PTR _this$[ebp]
  001ac	8b 4d f4	 mov	 ecx, DWORD PTR __$EHRec$[ebp]
  001af	64 89 0d 00 00
	00 00		 mov	 DWORD PTR fs:0, ecx
  001b6	59		 pop	 ecx
  001b7	5f		 pop	 edi
  001b8	5e		 pop	 esi
  001b9	5b		 pop	 ebx
  001ba	8b e5		 mov	 esp, ebp
  001bc	5d		 pop	 ebp
  001bd	c3		 ret	 0
_TEXT	ENDS
text$x	SEGMENT
__unwindfunclet$??0CMapServerManager@@QAE@XZ$0:
  00000	68 00 00 00 00	 push	 OFFSET ??1_MAPSVR_DATA@@UAE@XZ ; _MAPSVR_DATA::~_MAPSVR_DATA
  00005	68 90 01 00 00	 push	 400			; 00000190H
  0000a	68 d4 00 00 00	 push	 212			; 000000d4H
  0000f	8b 45 f0	 mov	 eax, DWORD PTR _this$[ebp]
  00012	83 c0 08	 add	 eax, 8
  00015	50		 push	 eax
  00016	e8 00 00 00 00	 call	 ??_M@YGXPAXIHP6EX0@Z@Z
  0001b	c3		 ret	 0
__ehhandler$??0CMapServerManager@@QAE@XZ:
  0001c	8b 54 24 08	 mov	 edx, DWORD PTR [esp+8]
  00020	8d 42 0c	 lea	 eax, DWORD PTR [edx+12]
  00023	8b 4a ac	 mov	 ecx, DWORD PTR [edx-84]
  00026	33 c8		 xor	 ecx, eax
  00028	e8 00 00 00 00	 call	 @__security_check_cookie@4
  0002d	b8 00 00 00 00	 mov	 eax, OFFSET __ehfuncinfo$??0CMapServerManager@@QAE@XZ
  00032	e9 00 00 00 00	 jmp	 ___CxxFrameHandler3
text$x	ENDS
??0CMapServerManager@@QAE@XZ ENDP			; CMapServerManager::CMapServerManager
EXTRN	__time64:PROC
; Function compile flags: /Odtp /ZI
; File d:\microsoft visual studio 10.0\vc\include\time.inl
_TEXT	SEGMENT
__Time$ = 8						; size = 4
_time	PROC

; 132  : {

  001c0	55		 push	 ebp
  001c1	8b ec		 mov	 ebp, esp
  001c3	83 ec 40	 sub	 esp, 64			; 00000040H
  001c6	53		 push	 ebx
  001c7	56		 push	 esi
  001c8	57		 push	 edi

; 133  :     return _time64(_Time);

  001c9	8b 45 08	 mov	 eax, DWORD PTR __Time$[ebp]
  001cc	50		 push	 eax
  001cd	e8 00 00 00 00	 call	 __time64
  001d2	83 c4 04	 add	 esp, 4

; 134  : }

  001d5	5f		 pop	 edi
  001d6	5e		 pop	 esi
  001d7	5b		 pop	 ebx
  001d8	8b e5		 mov	 esp, ebp
  001da	5d		 pop	 ebp
  001db	c3		 ret	 0
_time	ENDP
_TEXT	ENDS
PUBLIC	??1CMapServerManager@@UAE@XZ			; CMapServerManager::~CMapServerManager
; Function compile flags: /Odtp /ZI
;	COMDAT ??_GCMapServerManager@@UAEPAXI@Z
_TEXT	SEGMENT
_this$ = -4						; size = 4
___flags$ = 8						; size = 4
??_GCMapServerManager@@UAEPAXI@Z PROC			; CMapServerManager::`scalar deleting destructor', COMDAT
; _this$ = ecx
  00000	55		 push	 ebp
  00001	8b ec		 mov	 ebp, esp
  00003	83 ec 44	 sub	 esp, 68			; 00000044H
  00006	53		 push	 ebx
  00007	56		 push	 esi
  00008	57		 push	 edi
  00009	89 4d fc	 mov	 DWORD PTR _this$[ebp], ecx
  0000c	8b 4d fc	 mov	 ecx, DWORD PTR _this$[ebp]
  0000f	e8 00 00 00 00	 call	 ??1CMapServerManager@@UAE@XZ ; CMapServerManager::~CMapServerManager
  00014	8b 45 08	 mov	 eax, DWORD PTR ___flags$[ebp]
  00017	83 e0 01	 and	 eax, 1
  0001a	74 0c		 je	 SHORT $LN1@scalar@2
  0001c	8b 45 fc	 mov	 eax, DWORD PTR _this$[ebp]
  0001f	50		 push	 eax
  00020	e8 00 00 00 00	 call	 ??3@YAXPAX@Z		; operator delete
  00025	83 c4 04	 add	 esp, 4
$LN1@scalar@2:
  00028	8b 45 fc	 mov	 eax, DWORD PTR _this$[ebp]
  0002b	5f		 pop	 edi
  0002c	5e		 pop	 esi
  0002d	5b		 pop	 ebx
  0002e	8b e5		 mov	 esp, ebp
  00030	5d		 pop	 ebp
  00031	c2 04 00	 ret	 4
??_GCMapServerManager@@UAEPAXI@Z ENDP			; CMapServerManager::`scalar deleting destructor'
_TEXT	ENDS
PUBLIC	??1?$map@HPAU_MAPSVR_DATA@@U?$less@H@std@@V?$allocator@U?$pair@$$CBHPAU_MAPSVR_DATA@@@std@@@3@@std@@QAE@XZ ; std::map<int,_MAPSVR_DATA *,std::less<int>,std::allocator<std::pair<int const ,_MAPSVR_DATA *> > >::~map<int,_MAPSVR_DATA *,std::less<int>,std::allocator<std::pair<int const ,_MAPSVR_DATA *> > >
EXTRN	__imp__DeleteCriticalSection@4:PROC
xdata$x	SEGMENT
__unwindtable$??1CMapServerManager@@UAE@XZ DD 0ffffffffH
	DD	FLAT:__unwindfunclet$??1CMapServerManager@@UAE@XZ$0
__ehfuncinfo$??1CMapServerManager@@UAE@XZ DD 019930522H
	DD	01H
	DD	FLAT:__unwindtable$??1CMapServerManager@@UAE@XZ
	DD	2 DUP(00H)
	DD	2 DUP(00H)
	DD	00H
	DD	01H
; Function compile flags: /Odtp /ZI
; File d:\projects\exteam6.3\source\gameserver\gameserver\mapservermanager.cpp
xdata$x	ENDS
_TEXT	SEGMENT
_this$ = -16						; size = 4
__$EHRec$ = -12						; size = 12
??1CMapServerManager@@UAE@XZ PROC			; CMapServerManager::~CMapServerManager
; _this$ = ecx

; 58   : {

  001e0	55		 push	 ebp
  001e1	8b ec		 mov	 ebp, esp
  001e3	6a ff		 push	 -1
  001e5	68 00 00 00 00	 push	 __ehhandler$??1CMapServerManager@@UAE@XZ
  001ea	64 a1 00 00 00
	00		 mov	 eax, DWORD PTR fs:0
  001f0	50		 push	 eax
  001f1	83 ec 44	 sub	 esp, 68			; 00000044H
  001f4	53		 push	 ebx
  001f5	56		 push	 esi
  001f6	57		 push	 edi
  001f7	a1 00 00 00 00	 mov	 eax, DWORD PTR ___security_cookie
  001fc	33 c5		 xor	 eax, ebp
  001fe	50		 push	 eax
  001ff	8d 45 f4	 lea	 eax, DWORD PTR __$EHRec$[ebp]
  00202	64 a3 00 00 00
	00		 mov	 DWORD PTR fs:0, eax
  00208	89 4d f0	 mov	 DWORD PTR _this$[ebp], ecx
  0020b	8b 45 f0	 mov	 eax, DWORD PTR _this$[ebp]
  0020e	c7 00 00 00 00
	00		 mov	 DWORD PTR [eax], OFFSET ??_7CMapServerManager@@6B@
  00214	c7 45 fc 00 00
	00 00		 mov	 DWORD PTR __$EHRec$[ebp+8], 0

; 59   : 	DeleteCriticalSection(&this->m_critSVRCODE_MAP);

  0021b	8b 45 f0	 mov	 eax, DWORD PTR _this$[ebp]
  0021e	05 a8 4b 01 00	 add	 eax, 84904		; 00014ba8H
  00223	50		 push	 eax
  00224	ff 15 00 00 00
	00		 call	 DWORD PTR __imp__DeleteCriticalSection@4

; 60   : }

  0022a	8b 4d f0	 mov	 ecx, DWORD PTR _this$[ebp]
  0022d	81 c1 98 4b 01
	00		 add	 ecx, 84888		; 00014b98H
  00233	e8 00 00 00 00	 call	 ??1?$map@HPAU_MAPSVR_DATA@@U?$less@H@std@@V?$allocator@U?$pair@$$CBHPAU_MAPSVR_DATA@@@std@@@3@@std@@QAE@XZ
  00238	c7 45 fc ff ff
	ff ff		 mov	 DWORD PTR __$EHRec$[ebp+8], -1
  0023f	68 00 00 00 00	 push	 OFFSET ??1_MAPSVR_DATA@@UAE@XZ ; _MAPSVR_DATA::~_MAPSVR_DATA
  00244	68 90 01 00 00	 push	 400			; 00000190H
  00249	68 d4 00 00 00	 push	 212			; 000000d4H
  0024e	8b 45 f0	 mov	 eax, DWORD PTR _this$[ebp]
  00251	83 c0 08	 add	 eax, 8
  00254	50		 push	 eax
  00255	e8 00 00 00 00	 call	 ??_M@YGXPAXIHP6EX0@Z@Z
  0025a	8b 4d f4	 mov	 ecx, DWORD PTR __$EHRec$[ebp]
  0025d	64 89 0d 00 00
	00 00		 mov	 DWORD PTR fs:0, ecx
  00264	59		 pop	 ecx
  00265	5f		 pop	 edi
  00266	5e		 pop	 esi
  00267	5b		 pop	 ebx
  00268	8b e5		 mov	 esp, ebp
  0026a	5d		 pop	 ebp
  0026b	c3		 ret	 0
_TEXT	ENDS
text$x	SEGMENT
__unwindfunclet$??1CMapServerManager@@UAE@XZ$0:
  00037	68 00 00 00 00	 push	 OFFSET ??1_MAPSVR_DATA@@UAE@XZ ; _MAPSVR_DATA::~_MAPSVR_DATA
  0003c	68 90 01 00 00	 push	 400			; 00000190H
  00041	68 d4 00 00 00	 push	 212			; 000000d4H
  00046	8b 45 f0	 mov	 eax, DWORD PTR _this$[ebp]
  00049	83 c0 08	 add	 eax, 8
  0004c	50		 push	 eax
  0004d	e8 00 00 00 00	 call	 ??_M@YGXPAXIHP6EX0@Z@Z
  00052	c3		 ret	 0
__ehhandler$??1CMapServerManager@@UAE@XZ:
  00053	8b 54 24 08	 mov	 edx, DWORD PTR [esp+8]
  00057	8d 42 0c	 lea	 eax, DWORD PTR [edx+12]
  0005a	8b 4a ac	 mov	 ecx, DWORD PTR [edx-84]
  0005d	33 c8		 xor	 ecx, eax
  0005f	e8 00 00 00 00	 call	 @__security_check_cookie@4
  00064	b8 00 00 00 00	 mov	 eax, OFFSET __ehfuncinfo$??1CMapServerManager@@UAE@XZ
  00069	e9 00 00 00 00	 jmp	 ___CxxFrameHandler3
text$x	ENDS
??1CMapServerManager@@UAE@XZ ENDP			; CMapServerManager::~CMapServerManager
PUBLIC	??1?$_Tree@V?$_Tmap_traits@HPAU_MAPSVR_DATA@@U?$less@H@std@@V?$allocator@U?$pair@$$CBHPAU_MAPSVR_DATA@@@std@@@3@$0A@@std@@@std@@QAE@XZ ; std::_Tree<std::_Tmap_traits<int,_MAPSVR_DATA *,std::less<int>,std::allocator<std::pair<int const ,_MAPSVR_DATA *> >,0> >::~_Tree<std::_Tmap_traits<int,_MAPSVR_DATA *,std::less<int>,std::allocator<std::pair<int const ,_MAPSVR_DATA *> >,0> >
; Function compile flags: /Odtp /ZI
;	COMDAT ??1?$map@HPAU_MAPSVR_DATA@@U?$less@H@std@@V?$allocator@U?$pair@$$CBHPAU_MAPSVR_DATA@@@std@@@3@@std@@QAE@XZ
_TEXT	SEGMENT
_this$ = -4						; size = 4
??1?$map@HPAU_MAPSVR_DATA@@U?$less@H@std@@V?$allocator@U?$pair@$$CBHPAU_MAPSVR_DATA@@@std@@@3@@std@@QAE@XZ PROC ; std::map<int,_MAPSVR_DATA *,std::less<int>,std::allocator<std::pair<int const ,_MAPSVR_DATA *> > >::~map<int,_MAPSVR_DATA *,std::less<int>,std::allocator<std::pair<int const ,_MAPSVR_DATA *> > >, COMDAT
; _this$ = ecx
  00000	55		 push	 ebp
  00001	8b ec		 mov	 ebp, esp
  00003	83 ec 44	 sub	 esp, 68			; 00000044H
  00006	53		 push	 ebx
  00007	56		 push	 esi
  00008	57		 push	 edi
  00009	89 4d fc	 mov	 DWORD PTR _this$[ebp], ecx
  0000c	8b 4d fc	 mov	 ecx, DWORD PTR _this$[ebp]
  0000f	e8 00 00 00 00	 call	 ??1?$_Tree@V?$_Tmap_traits@HPAU_MAPSVR_DATA@@U?$less@H@std@@V?$allocator@U?$pair@$$CBHPAU_MAPSVR_DATA@@@std@@@3@$0A@@std@@@std@@QAE@XZ ; std::_Tree<std::_Tmap_traits<int,_MAPSVR_DATA *,std::less<int>,std::allocator<std::pair<int const ,_MAPSVR_DATA *> >,0> >::~_Tree<std::_Tmap_traits<int,_MAPSVR_DATA *,std::less<int>,std::allocator<std::pair<int const ,_MAPSVR_DATA *> >,0> >
  00014	5f		 pop	 edi
  00015	5e		 pop	 esi
  00016	5b		 pop	 ebx
  00017	8b e5		 mov	 esp, ebp
  00019	5d		 pop	 ebp
  0001a	c3		 ret	 0
??1?$map@HPAU_MAPSVR_DATA@@U?$less@H@std@@V?$allocator@U?$pair@$$CBHPAU_MAPSVR_DATA@@@std@@@3@@std@@QAE@XZ ENDP ; std::map<int,_MAPSVR_DATA *,std::less<int>,std::allocator<std::pair<int const ,_MAPSVR_DATA *> > >::~map<int,_MAPSVR_DATA *,std::less<int>,std::allocator<std::pair<int const ,_MAPSVR_DATA *> > >
_TEXT	ENDS
PUBLIC	?clear@?$_Tree@V?$_Tmap_traits@HPAU_MAPSVR_DATA@@U?$less@H@std@@V?$allocator@U?$pair@$$CBHPAU_MAPSVR_DATA@@@std@@@3@$0A@@std@@@std@@QAEXXZ ; std::_Tree<std::_Tmap_traits<int,_MAPSVR_DATA *,std::less<int>,std::allocator<std::pair<int const ,_MAPSVR_DATA *> >,0> >::clear
PUBLIC	?Clear@CMapServerManager@@QAEXXZ		; CMapServerManager::Clear
; Function compile flags: /Odtp /ZI
_TEXT	SEGMENT
_iSUB_GROUP_COUNT$227749 = -12				; size = 4
_iGROUP_COUNT$227745 = -8				; size = 4
_this$ = -4						; size = 4
?Clear@CMapServerManager@@QAEXXZ PROC			; CMapServerManager::Clear
; _this$ = ecx

; 64   : {

  00270	55		 push	 ebp
  00271	8b ec		 mov	 ebp, esp
  00273	83 ec 4c	 sub	 esp, 76			; 0000004cH
  00276	53		 push	 ebx
  00277	56		 push	 esi
  00278	57		 push	 edi
  00279	89 4d fc	 mov	 DWORD PTR _this$[ebp], ecx

; 65   : 	this->m_bMapDataLoadOk = FALSE;

  0027c	8b 45 fc	 mov	 eax, DWORD PTR _this$[ebp]
  0027f	c7 40 04 00 00
	00 00		 mov	 DWORD PTR [eax+4], 0

; 66   : 
; 67   : 	for ( int iGROUP_COUNT=0;iGROUP_COUNT<MAX_MAP_GROUPS;iGROUP_COUNT++)

  00286	c7 45 f8 00 00
	00 00		 mov	 DWORD PTR _iGROUP_COUNT$227745[ebp], 0
  0028d	eb 09		 jmp	 SHORT $LN6@Clear@2
$LN5@Clear@2:
  0028f	8b 45 f8	 mov	 eax, DWORD PTR _iGROUP_COUNT$227745[ebp]
  00292	83 c0 01	 add	 eax, 1
  00295	89 45 f8	 mov	 DWORD PTR _iGROUP_COUNT$227745[ebp], eax
$LN6@Clear@2:
  00298	83 7d f8 14	 cmp	 DWORD PTR _iGROUP_COUNT$227745[ebp], 20 ; 00000014H
  0029c	7d 4f		 jge	 SHORT $LN4@Clear@2

; 68   : 	{
; 69   : 		this->m_iMAPSVR_GROUP_COUNT[iGROUP_COUNT] = 0;

  0029e	8b 45 f8	 mov	 eax, DWORD PTR _iGROUP_COUNT$227745[ebp]
  002a1	8b 4d fc	 mov	 ecx, DWORD PTR _this$[ebp]
  002a4	c7 84 81 48 4b
	01 00 00 00 00
	00		 mov	 DWORD PTR [ecx+eax*4+84808], 0

; 70   : 
; 71   : 		for ( int iSUB_GROUP_COUNT=0;iSUB_GROUP_COUNT<MAX_MAP_SUBGROUPS;iSUB_GROUP_COUNT++)

  002af	c7 45 f4 00 00
	00 00		 mov	 DWORD PTR _iSUB_GROUP_COUNT$227749[ebp], 0
  002b6	eb 09		 jmp	 SHORT $LN3@Clear@2
$LN2@Clear@2:
  002b8	8b 45 f4	 mov	 eax, DWORD PTR _iSUB_GROUP_COUNT$227749[ebp]
  002bb	83 c0 01	 add	 eax, 1
  002be	89 45 f4	 mov	 DWORD PTR _iSUB_GROUP_COUNT$227749[ebp], eax
$LN3@Clear@2:
  002c1	83 7d f4 14	 cmp	 DWORD PTR _iSUB_GROUP_COUNT$227749[ebp], 20 ; 00000014H
  002c5	7d 24		 jge	 SHORT $LN1@Clear@2

; 72   : 		{
; 73   : 			this->m_MAPSVR_DATA[iGROUP_COUNT][iSUB_GROUP_COUNT].Clear(1);

  002c7	6a 01		 push	 1
  002c9	8b 45 f8	 mov	 eax, DWORD PTR _iGROUP_COUNT$227745[ebp]
  002cc	69 c0 90 10 00
	00		 imul	 eax, 4240		; 00001090H
  002d2	8b 4d fc	 mov	 ecx, DWORD PTR _this$[ebp]
  002d5	8d 4c 01 08	 lea	 ecx, DWORD PTR [ecx+eax+8]
  002d9	8b 55 f4	 mov	 edx, DWORD PTR _iSUB_GROUP_COUNT$227749[ebp]
  002dc	69 d2 d4 00 00
	00		 imul	 edx, 212		; 000000d4H
  002e2	03 ca		 add	 ecx, edx
  002e4	e8 00 00 00 00	 call	 ?Clear@_MAPSVR_DATA@@QAEXH@Z ; _MAPSVR_DATA::Clear

; 74   : 		}

  002e9	eb cd		 jmp	 SHORT $LN2@Clear@2
$LN1@Clear@2:

; 75   : 	}

  002eb	eb a2		 jmp	 SHORT $LN5@Clear@2
$LN4@Clear@2:

; 76   : 
; 77   : 	this->m_mapSVRCODE_MAP.clear();

  002ed	8b 4d fc	 mov	 ecx, DWORD PTR _this$[ebp]
  002f0	81 c1 98 4b 01
	00		 add	 ecx, 84888		; 00014b98H
  002f6	e8 00 00 00 00	 call	 ?clear@?$_Tree@V?$_Tmap_traits@HPAU_MAPSVR_DATA@@U?$less@H@std@@V?$allocator@U?$pair@$$CBHPAU_MAPSVR_DATA@@@std@@@3@$0A@@std@@@std@@QAEXXZ ; std::_Tree<std::_Tmap_traits<int,_MAPSVR_DATA *,std::less<int>,std::allocator<std::pair<int const ,_MAPSVR_DATA *> >,0> >::clear

; 78   : }

  002fb	5f		 pop	 edi
  002fc	5e		 pop	 esi
  002fd	5b		 pop	 ebx
  002fe	8b e5		 mov	 esp, ebp
  00300	5d		 pop	 ebp
  00301	c3		 ret	 0
?Clear@CMapServerManager@@QAEXXZ ENDP			; CMapServerManager::Clear
_TEXT	ENDS
PUBLIC	??_C@_0IC@BIPGFAJD@?$FLMapServerMng?$FN?5CMapServerManager@ ; `string'
PUBLIC	??9?$_Tree_const_iterator@V?$_Tree_val@V?$_Tmap_traits@HPAU_MAPSVR_DATA@@U?$less@H@std@@V?$allocator@U?$pair@$$CBHPAU_MAPSVR_DATA@@@std@@@3@$0A@@std@@@std@@@std@@QBE_NABV01@@Z ; std::_Tree_const_iterator<std::_Tree_val<std::_Tmap_traits<int,_MAPSVR_DATA *,std::less<int>,std::allocator<std::pair<int const ,_MAPSVR_DATA *> >,0> > >::operator!=
PUBLIC	??_C@_0GN@OFPCNONA@?$FLMapServerMng?$FN?5CMapServerManager@ ; `string'
PUBLIC	??_C@_0HJ@HNGNAGOE@?$FLMapServerMng?$FN?5CMapServerManager@ ; `string'
PUBLIC	??_C@_0HB@PMNAKCMJ@?$FLMapServerMng?$FN?5CMapServerManager@ ; `string'
PUBLIC	??_C@_0GL@LAJNEJB@?$FLMapServerMng?$FN?5CMapServerManager@ ; `string'
PUBLIC	??_C@_0FP@BNNDCEBC@?$FLMapServerMng?$FN?5CMapServerManager@ ; `string'
PUBLIC	??C?$_Tree_iterator@V?$_Tree_val@V?$_Tmap_traits@HPAU_MAPSVR_DATA@@U?$less@H@std@@V?$allocator@U?$pair@$$CBHPAU_MAPSVR_DATA@@@std@@@3@$0A@@std@@@std@@@std@@QBEPAU?$pair@$$CBHPAU_MAPSVR_DATA@@@1@XZ ; std::_Tree_iterator<std::_Tree_val<std::_Tmap_traits<int,_MAPSVR_DATA *,std::less<int>,std::allocator<std::pair<int const ,_MAPSVR_DATA *> >,0> > >::operator->
PUBLIC	??_C@_0GG@ONBCFDCN@?$FLMapServerMng?$FN?5CMapServerManager@ ; `string'
PUBLIC	??8?$_Tree_const_iterator@V?$_Tree_val@V?$_Tmap_traits@HPAU_MAPSVR_DATA@@U?$less@H@std@@V?$allocator@U?$pair@$$CBHPAU_MAPSVR_DATA@@@std@@@3@$0A@@std@@@std@@@std@@QBE_NABV01@@Z ; std::_Tree_const_iterator<std::_Tree_val<std::_Tmap_traits<int,_MAPSVR_DATA *,std::less<int>,std::allocator<std::pair<int const ,_MAPSVR_DATA *> >,0> > >::operator==
PUBLIC	?end@?$_Tree@V?$_Tmap_traits@HPAU_MAPSVR_DATA@@U?$less@H@std@@V?$allocator@U?$pair@$$CBHPAU_MAPSVR_DATA@@@std@@@3@$0A@@std@@@std@@QAE?AV?$_Tree_iterator@V?$_Tree_val@V?$_Tmap_traits@HPAU_MAPSVR_DATA@@U?$less@H@std@@V?$allocator@U?$pair@$$CBHPAU_MAPSVR_DATA@@@std@@@3@$0A@@std@@@std@@@2@XZ ; std::_Tree<std::_Tmap_traits<int,_MAPSVR_DATA *,std::less<int>,std::allocator<std::pair<int const ,_MAPSVR_DATA *> >,0> >::end
PUBLIC	?find@?$_Tree@V?$_Tmap_traits@HPAU_MAPSVR_DATA@@U?$less@H@std@@V?$allocator@U?$pair@$$CBHPAU_MAPSVR_DATA@@@std@@@3@$0A@@std@@@std@@QAE?AV?$_Tree_iterator@V?$_Tree_val@V?$_Tmap_traits@HPAU_MAPSVR_DATA@@U?$less@H@std@@V?$allocator@U?$pair@$$CBHPAU_MAPSVR_DATA@@@std@@@3@$0A@@std@@@std@@@2@ABH@Z ; std::_Tree<std::_Tmap_traits<int,_MAPSVR_DATA *,std::less<int>,std::allocator<std::pair<int const ,_MAPSVR_DATA *> >,0> >::find
PUBLIC	??_C@_0GP@JAAIOOFD@?$FLMapServerMng?$FN?5CMapServerManager@ ; `string'
PUBLIC	??_C@_0FM@HEAHEOLH@?$FLMapServerMng?$FN?5CMapServerManager@ ; `string'
PUBLIC	??$insert@U?$pair@HPAU_MAPSVR_DATA@@@std@@@?$_Tree@V?$_Tmap_traits@HPAU_MAPSVR_DATA@@U?$less@H@std@@V?$allocator@U?$pair@$$CBHPAU_MAPSVR_DATA@@@std@@@3@$0A@@std@@@std@@QAE?AU?$pair@V?$_Tree_iterator@V?$_Tree_val@V?$_Tmap_traits@HPAU_MAPSVR_DATA@@U?$less@H@std@@V?$allocator@U?$pair@$$CBHPAU_MAPSVR_DATA@@@std@@@3@$0A@@std@@@std@@@std@@_N@1@$$QAU?$pair@HPAU_MAPSVR_DATA@@@1@@Z ; std::_Tree<std::_Tmap_traits<int,_MAPSVR_DATA *,std::less<int>,std::allocator<std::pair<int const ,_MAPSVR_DATA *> >,0> >::insert<std::pair<int,_MAPSVR_DATA *> >
PUBLIC	??$?0AAFAAPAU_MAPSVR_DATA@@@?$pair@HPAU_MAPSVR_DATA@@@std@@QAE@AAFAAPAU_MAPSVR_DATA@@@Z ; std::pair<int,_MAPSVR_DATA *>::pair<int,_MAPSVR_DATA *><short &,_MAPSVR_DATA * &>
PUBLIC	??_C@_0GD@GJEAEGDB@?$FLMapServerMng?$FN?5CMapServerManager@ ; `string'
PUBLIC	??_C@_0GB@OFMELGHA@?$FLMapServerMng?$FN?5CMapServerManager@ ; `string'
PUBLIC	??_C@_0FH@IKIILNPP@?$FLMapServerMng?$FN?5CMapServerManager@ ; `string'
PUBLIC	??_C@_0GE@MEENNMEP@?$FLMapServerMng?$FN?5CMapServerManager@ ; `string'
PUBLIC	??_C@_0FM@FPCKBNHE@?$FLMapServerMng?$FN?5CMapServerManager@ ; `string'
PUBLIC	??_C@_03JBJLGPFL@end?$AA@			; `string'
PUBLIC	??_C@_0EO@CDDNPBHI@?$FLMapServerMng?$FN?5CMapServerManager@ ; `string'
PUBLIC	??_C@_01KDCPPGHE@r?$AA@				; `string'
PUBLIC	??_C@_0FB@JDAKAEIH@?$FLMapServerMng?$FN?5CMapServerManager@ ; `string'
PUBLIC	??_C@_00CNPNBAHC@?$AA@				; `string'
PUBLIC	__$ArrayPad$
PUBLIC	?LoadData@CMapServerManager@@QAEHPAD@Z		; CMapServerManager::LoadData
EXTRN	__imp__LeaveCriticalSection@4:PROC
EXTRN	?gGameServerCode@@3FA:WORD			; gGameServerCode
EXTRN	_fclose:PROC
EXTRN	_memcpy:PROC
EXTRN	_fopen:PROC
EXTRN	__imp__EnterCriticalSection@4:PROC
EXTRN	?MsgBox@@YAXPADZZ:PROC				; MsgBox
EXTRN	_strcmp:PROC
EXTRN	__except_handler4:PROC
EXTRN	__ftol2_sse:PROC
EXTRN	__local_unwind4:PROC
_BSS	SEGMENT
_TokenString DB	064H DUP (?)
_TokenNumber DD	01H DUP (?)
_SMDFile DD	01H DUP (?)
_BSS	ENDS
;	COMDAT ??_C@_0IC@BIPGFAJD@?$FLMapServerMng?$FN?5CMapServerManager@
CONST	SEGMENT
??_C@_0IC@BIPGFAJD@?$FLMapServerMng?$FN?5CMapServerManager@ DB '[MapServe'
	DB	'rMng] CMapServerManager::LoadData() - file load error : This '
	DB	'GameServerCode (%d) doesn''t Exist at file ''%s'' != sSVR_COD'
	DB	'E', 00H					; `string'
CONST	ENDS
;	COMDAT ??_C@_0GN@OFPCNONA@?$FLMapServerMng?$FN?5CMapServerManager@
CONST	SEGMENT
??_C@_0GN@OFPCNONA@?$FLMapServerMng?$FN?5CMapServerManager@ DB '[MapServe'
	DB	'rMng] CMapServerManager::LoadData() - file load error : Map N'
	DB	'umber is out of bound (SVR:%d, MAP:%d)', 00H ; `string'
CONST	ENDS
;	COMDAT ??_C@_0HJ@HNGNAGOE@?$FLMapServerMng?$FN?5CMapServerManager@
CONST	SEGMENT
??_C@_0HJ@HNGNAGOE@?$FLMapServerMng?$FN?5CMapServerManager@ DB '[MapServe'
	DB	'rMng] CMapServerManager::LoadData() - file load error : lpMap'
	DB	'SvrData->m_sSVR_CODE != sSVR_CODE (SVR:%d, OPT:%d)', 00H ; `string'
CONST	ENDS
;	COMDAT ??_C@_0HB@PMNAKCMJ@?$FLMapServerMng?$FN?5CMapServerManager@
CONST	SEGMENT
??_C@_0HB@PMNAKCMJ@?$FLMapServerMng?$FN?5CMapServerManager@ DB '[MapServe'
	DB	'rMng] CMapServerManager::LoadData() - file load error : lpMap'
	DB	'SvrData->m_sSVR_CODE != sSVR_CODE (SVR:%d)', 00H ; `string'
CONST	ENDS
;	COMDAT ??_C@_0GL@LAJNEJB@?$FLMapServerMng?$FN?5CMapServerManager@
CONST	SEGMENT
??_C@_0GL@LAJNEJB@?$FLMapServerMng?$FN?5CMapServerManager@ DB '[MapServer'
	DB	'Mng] CMapServerManager::LoadData() - file load error : lpMapS'
	DB	'vrData->m_bIN_USE == FALSE (SVR:%d)', 00H	; `string'
CONST	ENDS
;	COMDAT ??_C@_0FP@BNNDCEBC@?$FLMapServerMng?$FN?5CMapServerManager@
CONST	SEGMENT
??_C@_0FP@BNNDCEBC@?$FLMapServerMng?$FN?5CMapServerManager@ DB '[MapServe'
	DB	'rMng] CMapServerManager::LoadData() - file load error : lpMap'
	DB	'SvrData == NULL (SVR:%d)', 00H		; `string'
CONST	ENDS
;	COMDAT ??_C@_0GG@ONBCFDCN@?$FLMapServerMng?$FN?5CMapServerManager@
CONST	SEGMENT
??_C@_0GG@ONBCFDCN@?$FLMapServerMng?$FN?5CMapServerManager@ DB '[MapServe'
	DB	'rMng] CMapServerManager::LoadData() - file load error : sSVR_'
	DB	'CODE wasn''t registered (SVR:%d)', 00H	; `string'
CONST	ENDS
;	COMDAT ??_C@_0GP@JAAIOOFD@?$FLMapServerMng?$FN?5CMapServerManager@
CONST	SEGMENT
??_C@_0GP@JAAIOOFD@?$FLMapServerMng?$FN?5CMapServerManager@ DB '[MapServe'
	DB	'rMng] CMapServerManager::LoadData() - file load error : sDEST'
	DB	'_SVR_CODE < -1 (SVR:%d, DEST_SVR:%d) - 2', 00H ; `string'
CONST	ENDS
;	COMDAT ??_C@_0FM@HEAHEOLH@?$FLMapServerMng?$FN?5CMapServerManager@
CONST	SEGMENT
??_C@_0FM@HEAHEOLH@?$FLMapServerMng?$FN?5CMapServerManager@ DB '[MapServe'
	DB	'rMng] CMapServerManager::LoadData() - file load error : sSVR_'
	DB	'CODE < 0 (SVR:%d) - 2', 00H			; `string'
CONST	ENDS
;	COMDAT ??_C@_0GD@GJEAEGDB@?$FLMapServerMng?$FN?5CMapServerManager@
CONST	SEGMENT
??_C@_0GD@GJEAEGDB@?$FLMapServerMng?$FN?5CMapServerManager@ DB '[MapServe'
	DB	'rMng] CMapServerManager::LoadData() - file load error : No Sp'
	DB	'ace to Save SvrInfo (SVR:%d)', 00H		; `string'
CONST	ENDS
;	COMDAT ??_C@_0GB@OFMELGHA@?$FLMapServerMng?$FN?5CMapServerManager@
CONST	SEGMENT
??_C@_0GB@OFMELGHA@?$FLMapServerMng?$FN?5CMapServerManager@ DB '[MapServe'
	DB	'rMng] CMapServerManager::LoadData() - file load error : Map S'
	DB	'erver Group Index (IDX:%d)', 00H		; `string'
CONST	ENDS
;	COMDAT ??_C@_0FH@IKIILNPP@?$FLMapServerMng?$FN?5CMapServerManager@
CONST	SEGMENT
??_C@_0FH@IKIILNPP@?$FLMapServerMng?$FN?5CMapServerManager@ DB '[MapServe'
	DB	'rMng] CMapServerManager::LoadData() - file load error : No Ip'
	DB	'Address (SVR:%d)', 00H			; `string'
CONST	ENDS
;	COMDAT ??_C@_0GE@MEENNMEP@?$FLMapServerMng?$FN?5CMapServerManager@
CONST	SEGMENT
??_C@_0GE@MEENNMEP@?$FLMapServerMng?$FN?5CMapServerManager@ DB '[MapServe'
	DB	'rMng] CMapServerManager::LoadData() - file load error : iInit'
	DB	'Setting Value:%d (SVR:%d) - 1', 00H		; `string'
CONST	ENDS
;	COMDAT ??_C@_0FM@FPCKBNHE@?$FLMapServerMng?$FN?5CMapServerManager@
CONST	SEGMENT
??_C@_0FM@FPCKBNHE@?$FLMapServerMng?$FN?5CMapServerManager@ DB '[MapServe'
	DB	'rMng] CMapServerManager::LoadData() - file load error : sSVR_'
	DB	'CODE < 0 (SVR:%d) - 1', 00H			; `string'
CONST	ENDS
;	COMDAT ??_C@_03JBJLGPFL@end?$AA@
CONST	SEGMENT
??_C@_03JBJLGPFL@end?$AA@ DB 'end', 00H			; `string'
CONST	ENDS
;	COMDAT ??_C@_0EO@CDDNPBHI@?$FLMapServerMng?$FN?5CMapServerManager@
CONST	SEGMENT
??_C@_0EO@CDDNPBHI@?$FLMapServerMng?$FN?5CMapServerManager@ DB '[MapServe'
	DB	'rMng] CMapServerManager::LoadData() - file load error : fopen'
	DB	'() : %s', 00H				; `string'
CONST	ENDS
;	COMDAT ??_C@_01KDCPPGHE@r?$AA@
CONST	SEGMENT
??_C@_01KDCPPGHE@r?$AA@ DB 'r', 00H			; `string'
CONST	ENDS
;	COMDAT ??_C@_0FB@JDAKAEIH@?$FLMapServerMng?$FN?5CMapServerManager@
CONST	SEGMENT
??_C@_0FB@JDAKAEIH@?$FLMapServerMng?$FN?5CMapServerManager@ DB '[MapServe'
	DB	'rMng] CMapServerManager::LoadData() - file load error : File '
	DB	'Name Error', 00H				; `string'
CONST	ENDS
;	COMDAT ??_C@_00CNPNBAHC@?$AA@
CONST	SEGMENT
??_C@_00CNPNBAHC@?$AA@ DB 00H				; `string'
CONST	ENDS
xdata$x	SEGMENT
__sehtable$?LoadData@CMapServerManager@@QAEHPAD@Z DD 0ffffffe4H
	DD	00H
	DD	0fffffee0H
	DD	00H
	DD	0fffffffeH
	DD	00H
	DD	FLAT:$LN43@LoadData
; Function compile flags: /Odtp /ZI
xdata$x	ENDS
_TEXT	SEGMENT
tv578 = -272						; size = 4
tv569 = -272						; size = 4
tv500 = -272						; size = 4
tv576 = -268						; size = 4
tv567 = -268						; size = 4
tv498 = -268						; size = 4
tv325 = -264						; size = 4
tv317 = -264						; size = 4
tv162 = -264						; size = 4
tv573 = -262						; size = 2
tv564 = -262						; size = 2
tv495 = -262						; size = 2
$T230557 = -260						; size = 8
$T230558 = -252						; size = 8
$T230559 = -244						; size = 4
$T230560 = -240						; size = 4
$T230563 = -236						; size = 4
$T230564 = -232						; size = 4
$T230570 = -228						; size = 4
$T230571 = -224						; size = 4
$T230572 = -220						; size = 4
$T230573 = -216						; size = 4
$T230574 = -212						; size = 4
$T230575 = -208						; size = 4
$T230576 = -204						; size = 4
$T230577 = -200						; size = 4
$T230578 = -196						; size = 4
$T230579 = -192						; size = 4
$T230580 = -188						; size = 4
$T230581 = -184						; size = 4
$T230582 = -180						; size = 4
$T230583 = -176						; size = 4
$T230584 = -172						; size = 4
_it$228480 = -104					; size = 4
_it$228428 = -100					; size = 4
_lpMapSvrData$228405 = -96				; size = 4
_sDEST_SVR_CODE$228404 = -92				; size = 2
_wMapNum$228403 = -88					; size = 2
_btNotMoveOption$228402 = -81				; size = 1
_sSVR_CODE$228401 = -80					; size = 2
_lpMapSvrData$227812 = -76				; size = 4
_wPortNum$227795 = -72					; size = 2
_szIpAddr$227794 = -68					; size = 16
_iInitSetVal$227793 = -52				; size = 4
_sMAPSVR_GROUP$227792 = -48				; size = 2
_sSVR_CODE$227791 = -44					; size = 2
_Token$227765 = -40					; size = 4
_type$227764 = -36					; size = 4
_this$ = -32						; size = 4
__$ArrayPad$ = -28					; size = 4
__$SEHRec$ = -24					; size = 24
_lpszFileName$ = 8					; size = 4
?LoadData@CMapServerManager@@QAEHPAD@Z PROC		; CMapServerManager::LoadData
; _this$ = ecx

; 81   : {

  00310	55		 push	 ebp
  00311	8b ec		 mov	 ebp, esp
  00313	6a fe		 push	 -2			; fffffffeH
  00315	68 00 00 00 00	 push	 OFFSET __sehtable$?LoadData@CMapServerManager@@QAEHPAD@Z
  0031a	68 00 00 00 00	 push	 OFFSET __except_handler4
  0031f	64 a1 00 00 00
	00		 mov	 eax, DWORD PTR fs:0
  00325	50		 push	 eax
  00326	81 c4 00 ff ff
	ff		 add	 esp, -256		; ffffff00H
  0032c	a1 00 00 00 00	 mov	 eax, DWORD PTR ___security_cookie
  00331	31 45 f8	 xor	 DWORD PTR __$SEHRec$[ebp+16], eax
  00334	33 c5		 xor	 eax, ebp
  00336	89 45 e4	 mov	 DWORD PTR __$ArrayPad$[ebp], eax
  00339	53		 push	 ebx
  0033a	56		 push	 esi
  0033b	57		 push	 edi
  0033c	50		 push	 eax
  0033d	8d 45 f0	 lea	 eax, DWORD PTR __$SEHRec$[ebp+8]
  00340	64 a3 00 00 00
	00		 mov	 DWORD PTR fs:0, eax
  00346	89 4d e0	 mov	 DWORD PTR _this$[ebp], ecx

; 82   : 	if ( (lpszFileName == NULL) || ( strcmp(lpszFileName, "")== 0 ) ) 

  00349	83 7d 08 00	 cmp	 DWORD PTR _lpszFileName$[ebp], 0
  0034d	74 15		 je	 SHORT $LN34@LoadData
  0034f	68 00 00 00 00	 push	 OFFSET ??_C@_00CNPNBAHC@?$AA@
  00354	8b 45 08	 mov	 eax, DWORD PTR _lpszFileName$[ebp]
  00357	50		 push	 eax
  00358	e8 00 00 00 00	 call	 _strcmp
  0035d	83 c4 08	 add	 esp, 8
  00360	85 c0		 test	 eax, eax
  00362	75 14		 jne	 SHORT $LN35@LoadData
$LN34@LoadData:

; 83   : 	{
; 84   : 		MsgBox("[MapServerMng] CMapServerManager::LoadData() - file load error : File Name Error");

  00364	68 00 00 00 00	 push	 OFFSET ??_C@_0FB@JDAKAEIH@?$FLMapServerMng?$FN?5CMapServerManager@
  00369	e8 00 00 00 00	 call	 ?MsgBox@@YAXPADZZ	; MsgBox
  0036e	83 c4 04	 add	 esp, 4

; 85   : 		return FALSE;

  00371	33 c0		 xor	 eax, eax
  00373	e9 19 09 00 00	 jmp	 $LN36@LoadData
$LN35@LoadData:

; 86   : 	}
; 87   : 
; 88   : 	EnterCriticalSection(&this->m_critSVRCODE_MAP);

  00378	8b 45 e0	 mov	 eax, DWORD PTR _this$[ebp]
  0037b	05 a8 4b 01 00	 add	 eax, 84904		; 00014ba8H
  00380	50		 push	 eax
  00381	ff 15 00 00 00
	00		 call	 DWORD PTR __imp__EnterCriticalSection@4

; 89   : 
; 90   : 	__try

  00387	9b		 fwait
  00388	c7 45 fc 00 00
	00 00		 mov	 DWORD PTR __$SEHRec$[ebp+20], 0

; 91   : 	{
; 92   : 		this->Clear();

  0038f	8b 4d e0	 mov	 ecx, DWORD PTR _this$[ebp]
  00392	e8 00 00 00 00	 call	 ?Clear@CMapServerManager@@QAEXXZ ; CMapServerManager::Clear

; 93   : 
; 94   : 		SMDFile = fopen(lpszFileName, "r");

  00397	68 00 00 00 00	 push	 OFFSET ??_C@_01KDCPPGHE@r?$AA@
  0039c	8b 45 08	 mov	 eax, DWORD PTR _lpszFileName$[ebp]
  0039f	50		 push	 eax
  003a0	e8 00 00 00 00	 call	 _fopen
  003a5	83 c4 08	 add	 esp, 8
  003a8	a3 00 00 00 00	 mov	 DWORD PTR _SMDFile, eax

; 95   : 
; 96   : 		if ( SMDFile == NULL )

  003ad	83 3d 00 00 00
	00 00		 cmp	 DWORD PTR _SMDFile, 0
  003b4	75 3a		 jne	 SHORT $LN32@LoadData

; 97   : 		{
; 98   : 			MsgBox("[MapServerMng] CMapServerManager::LoadData() - file load error : fopen() : %s",
; 99   : 				lpszFileName);

  003b6	8b 45 08	 mov	 eax, DWORD PTR _lpszFileName$[ebp]
  003b9	50		 push	 eax
  003ba	68 00 00 00 00	 push	 OFFSET ??_C@_0EO@CDDNPBHI@?$FLMapServerMng?$FN?5CMapServerManager@
  003bf	e8 00 00 00 00	 call	 ?MsgBox@@YAXPADZZ	; MsgBox
  003c4	83 c4 08	 add	 esp, 8

; 100  : 
; 101  : 			return FALSE;

  003c7	c7 85 1c ff ff
	ff 00 00 00 00	 mov	 DWORD PTR $T230570[ebp], 0
  003d1	6a fe		 push	 -2			; fffffffeH
  003d3	9b		 fwait
  003d4	8d 45 f0	 lea	 eax, DWORD PTR __$SEHRec$[ebp+8]
  003d7	50		 push	 eax
  003d8	68 00 00 00 00	 push	 OFFSET ___security_cookie
  003dd	e8 00 00 00 00	 call	 __local_unwind4
  003e2	83 c4 0c	 add	 esp, 12			; 0000000cH
  003e5	8b 85 1c ff ff
	ff		 mov	 eax, DWORD PTR $T230570[ebp]
  003eb	e9 a1 08 00 00	 jmp	 $LN36@LoadData
$LN32@LoadData:

; 102  : 		}
; 103  : 
; 104  : 		int type = -1;

  003f0	c7 45 dc ff ff
	ff ff		 mov	 DWORD PTR _type$227764[ebp], -1
$LN31@LoadData:

; 105  : 		SMDToken Token;
; 106  : 
; 107  : 		while ( true )

  003f7	b8 01 00 00 00	 mov	 eax, 1
  003fc	85 c0		 test	 eax, eax
  003fe	0f 84 98 07 00
	00		 je	 $LN30@LoadData

; 108  : 		{
; 109  : 			Token = GetToken();

  00404	e8 00 00 00 00	 call	 ?GetToken@@YA?AW4SMDToken@@XZ ; GetToken
  00409	89 45 d8	 mov	 DWORD PTR _Token$227765[ebp], eax

; 110  : 
; 111  : 			if ( Token == END )

  0040c	83 7d d8 02	 cmp	 DWORD PTR _Token$227765[ebp], 2
  00410	75 05		 jne	 SHORT $LN29@LoadData

; 112  : 				break;

  00412	e9 85 07 00 00	 jmp	 $LN30@LoadData
$LN29@LoadData:

; 113  : 
; 114  : 			type = (int)TokenNumber;

  00417	d9 05 00 00 00
	00		 fld	 DWORD PTR _TokenNumber
  0041d	e8 00 00 00 00	 call	 __ftol2_sse
  00422	89 45 dc	 mov	 DWORD PTR _type$227764[ebp], eax
$LN28@LoadData:

; 115  : 
; 116  : 			while ( true )

  00425	b8 01 00 00 00	 mov	 eax, 1
  0042a	85 c0		 test	 eax, eax
  0042c	0f 84 65 07 00
	00		 je	 $LN27@LoadData

; 117  : 			{
; 118  : 				if ( type == 0 )

  00432	83 7d dc 00	 cmp	 DWORD PTR _type$227764[ebp], 0
  00436	0f 85 5b 03 00
	00		 jne	 $LN26@LoadData

; 119  : 				{
; 120  : 					short sSVR_CODE = -1;

  0043c	83 c8 ff	 or	 eax, -1
  0043f	66 89 45 d4	 mov	 WORD PTR _sSVR_CODE$227791[ebp], ax

; 121  : 					short sMAPSVR_GROUP = -1;

  00443	83 c8 ff	 or	 eax, -1
  00446	66 89 45 d0	 mov	 WORD PTR _sMAPSVR_GROUP$227792[ebp], ax

; 122  : 					int iInitSetVal = 1;

  0044a	c7 45 cc 01 00
	00 00		 mov	 DWORD PTR _iInitSetVal$227793[ebp], 1

; 123  : 					char szIpAddr[16]={0};

  00451	c6 45 bc 00	 mov	 BYTE PTR _szIpAddr$227794[ebp], 0
  00455	33 c0		 xor	 eax, eax
  00457	89 45 bd	 mov	 DWORD PTR _szIpAddr$227794[ebp+1], eax
  0045a	89 45 c1	 mov	 DWORD PTR _szIpAddr$227794[ebp+5], eax
  0045d	89 45 c5	 mov	 DWORD PTR _szIpAddr$227794[ebp+9], eax
  00460	66 89 45 c9	 mov	 WORD PTR _szIpAddr$227794[ebp+13], ax
  00464	88 45 cb	 mov	 BYTE PTR _szIpAddr$227794[ebp+15], al

; 124  : 					WORD wPortNum = 0;

  00467	33 c0		 xor	 eax, eax
  00469	66 89 45 b8	 mov	 WORD PTR _wPortNum$227795[ebp], ax

; 125  : 					
; 126  : 					Token = GetToken();

  0046d	e8 00 00 00 00	 call	 ?GetToken@@YA?AW4SMDToken@@XZ ; GetToken
  00472	89 45 d8	 mov	 DWORD PTR _Token$227765[ebp], eax

; 127  : 
; 128  : 					if ( !strcmp("end", TokenString))

  00475	68 00 00 00 00	 push	 OFFSET _TokenString
  0047a	68 00 00 00 00	 push	 OFFSET ??_C@_03JBJLGPFL@end?$AA@
  0047f	e8 00 00 00 00	 call	 _strcmp
  00484	83 c4 08	 add	 esp, 8
  00487	85 c0		 test	 eax, eax
  00489	75 05		 jne	 SHORT $LN25@LoadData

; 129  : 						break;

  0048b	e9 07 07 00 00	 jmp	 $LN27@LoadData
$LN25@LoadData:

; 130  : 
; 131  : 					sSVR_CODE = (short)TokenNumber;

  00490	d9 05 00 00 00
	00		 fld	 DWORD PTR _TokenNumber
  00496	e8 00 00 00 00	 call	 __ftol2_sse
  0049b	66 89 45 d4	 mov	 WORD PTR _sSVR_CODE$227791[ebp], ax

; 132  : 
; 133  : 					Token = GetToken();

  0049f	e8 00 00 00 00	 call	 ?GetToken@@YA?AW4SMDToken@@XZ ; GetToken
  004a4	89 45 d8	 mov	 DWORD PTR _Token$227765[ebp], eax

; 134  : 					sMAPSVR_GROUP = (short)TokenNumber;

  004a7	d9 05 00 00 00
	00		 fld	 DWORD PTR _TokenNumber
  004ad	e8 00 00 00 00	 call	 __ftol2_sse
  004b2	66 89 45 d0	 mov	 WORD PTR _sMAPSVR_GROUP$227792[ebp], ax

; 135  : 
; 136  : 					Token = GetToken();

  004b6	e8 00 00 00 00	 call	 ?GetToken@@YA?AW4SMDToken@@XZ ; GetToken
  004bb	89 45 d8	 mov	 DWORD PTR _Token$227765[ebp], eax

; 137  : 					iInitSetVal = (int)TokenNumber;

  004be	d9 05 00 00 00
	00		 fld	 DWORD PTR _TokenNumber
  004c4	e8 00 00 00 00	 call	 __ftol2_sse
  004c9	89 45 cc	 mov	 DWORD PTR _iInitSetVal$227793[ebp], eax

; 138  : 
; 139  : 					Token = GetToken();

  004cc	e8 00 00 00 00	 call	 ?GetToken@@YA?AW4SMDToken@@XZ ; GetToken
  004d1	89 45 d8	 mov	 DWORD PTR _Token$227765[ebp], eax

; 140  : 					memcpy(szIpAddr, &TokenString[1], 16);

  004d4	6a 10		 push	 16			; 00000010H
  004d6	68 01 00 00 00	 push	 OFFSET _TokenString+1
  004db	8d 45 bc	 lea	 eax, DWORD PTR _szIpAddr$227794[ebp]
  004de	50		 push	 eax
  004df	e8 00 00 00 00	 call	 _memcpy
  004e4	83 c4 0c	 add	 esp, 12			; 0000000cH

; 141  : 					szIpAddr[15] =0;

  004e7	c6 45 cb 00	 mov	 BYTE PTR _szIpAddr$227794[ebp+15], 0

; 142  : 
; 143  : 					Token = GetToken();

  004eb	e8 00 00 00 00	 call	 ?GetToken@@YA?AW4SMDToken@@XZ ; GetToken
  004f0	89 45 d8	 mov	 DWORD PTR _Token$227765[ebp], eax

; 144  : 					wPortNum = (WORD)TokenNumber;

  004f3	d9 05 00 00 00
	00		 fld	 DWORD PTR _TokenNumber
  004f9	d9 bd fa fe ff
	ff		 fnstcw	 WORD PTR tv495[ebp]
  004ff	0f b7 85 fa fe
	ff ff		 movzx	 eax, WORD PTR tv495[ebp]
  00506	0d 00 0c 00 00	 or	 eax, 3072		; 00000c00H
  0050b	89 85 f4 fe ff
	ff		 mov	 DWORD PTR tv498[ebp], eax
  00511	d9 ad f4 fe ff
	ff		 fldcw	 WORD PTR tv498[ebp]
  00517	db 9d f0 fe ff
	ff		 fistp	 DWORD PTR tv500[ebp]
  0051d	d9 ad fa fe ff
	ff		 fldcw	 WORD PTR tv495[ebp]
  00523	66 8b 85 f0 fe
	ff ff		 mov	 ax, WORD PTR tv500[ebp]
  0052a	66 89 45 b8	 mov	 WORD PTR _wPortNum$227795[ebp], ax

; 145  : 
; 146  : 					if ( sSVR_CODE < 0 )

  0052e	0f bf 45 d4	 movsx	 eax, WORD PTR _sSVR_CODE$227791[ebp]
  00532	85 c0		 test	 eax, eax
  00534	7d 3b		 jge	 SHORT $LN24@LoadData

; 147  : 					{
; 148  : 						MsgBox("[MapServerMng] CMapServerManager::LoadData() - file load error : sSVR_CODE < 0 (SVR:%d) - 1",
; 149  : 							sSVR_CODE);

  00536	0f bf 45 d4	 movsx	 eax, WORD PTR _sSVR_CODE$227791[ebp]
  0053a	50		 push	 eax
  0053b	68 00 00 00 00	 push	 OFFSET ??_C@_0FM@FPCKBNHE@?$FLMapServerMng?$FN?5CMapServerManager@
  00540	e8 00 00 00 00	 call	 ?MsgBox@@YAXPADZZ	; MsgBox
  00545	83 c4 08	 add	 esp, 8

; 150  : 
; 151  : 						return FALSE;

  00548	c7 85 20 ff ff
	ff 00 00 00 00	 mov	 DWORD PTR $T230571[ebp], 0
  00552	6a fe		 push	 -2			; fffffffeH
  00554	9b		 fwait
  00555	8d 45 f0	 lea	 eax, DWORD PTR __$SEHRec$[ebp+8]
  00558	50		 push	 eax
  00559	68 00 00 00 00	 push	 OFFSET ___security_cookie
  0055e	e8 00 00 00 00	 call	 __local_unwind4
  00563	83 c4 0c	 add	 esp, 12			; 0000000cH
  00566	8b 85 20 ff ff
	ff		 mov	 eax, DWORD PTR $T230571[ebp]
  0056c	e9 20 07 00 00	 jmp	 $LN36@LoadData
$LN24@LoadData:

; 152  : 					}
; 153  : 
; 154  : 					if ( iInitSetVal != -1 && iInitSetVal != 0 && iInitSetVal != 1 )

  00571	83 7d cc ff	 cmp	 DWORD PTR _iInitSetVal$227793[ebp], -1
  00575	74 4b		 je	 SHORT $LN23@LoadData
  00577	83 7d cc 00	 cmp	 DWORD PTR _iInitSetVal$227793[ebp], 0
  0057b	74 45		 je	 SHORT $LN23@LoadData
  0057d	83 7d cc 01	 cmp	 DWORD PTR _iInitSetVal$227793[ebp], 1
  00581	74 3f		 je	 SHORT $LN23@LoadData

; 155  : 					{
; 156  : 						MsgBox("[MapServerMng] CMapServerManager::LoadData() - file load error : iInitSetting Value:%d (SVR:%d) - 1",
; 157  : 							iInitSetVal, sSVR_CODE);

  00583	0f bf 45 d4	 movsx	 eax, WORD PTR _sSVR_CODE$227791[ebp]
  00587	50		 push	 eax
  00588	8b 4d cc	 mov	 ecx, DWORD PTR _iInitSetVal$227793[ebp]
  0058b	51		 push	 ecx
  0058c	68 00 00 00 00	 push	 OFFSET ??_C@_0GE@MEENNMEP@?$FLMapServerMng?$FN?5CMapServerManager@
  00591	e8 00 00 00 00	 call	 ?MsgBox@@YAXPADZZ	; MsgBox
  00596	83 c4 0c	 add	 esp, 12			; 0000000cH

; 158  : 
; 159  : 						return FALSE;

  00599	c7 85 24 ff ff
	ff 00 00 00 00	 mov	 DWORD PTR $T230572[ebp], 0
  005a3	6a fe		 push	 -2			; fffffffeH
  005a5	9b		 fwait
  005a6	8d 45 f0	 lea	 eax, DWORD PTR __$SEHRec$[ebp+8]
  005a9	50		 push	 eax
  005aa	68 00 00 00 00	 push	 OFFSET ___security_cookie
  005af	e8 00 00 00 00	 call	 __local_unwind4
  005b4	83 c4 0c	 add	 esp, 12			; 0000000cH
  005b7	8b 85 24 ff ff
	ff		 mov	 eax, DWORD PTR $T230572[ebp]
  005bd	e9 cf 06 00 00	 jmp	 $LN36@LoadData
$LN23@LoadData:

; 160  : 					}
; 161  : 
; 162  : 					if ( !strcmp(szIpAddr, ""))

  005c2	68 00 00 00 00	 push	 OFFSET ??_C@_00CNPNBAHC@?$AA@
  005c7	8d 45 bc	 lea	 eax, DWORD PTR _szIpAddr$227794[ebp]
  005ca	50		 push	 eax
  005cb	e8 00 00 00 00	 call	 _strcmp
  005d0	83 c4 08	 add	 esp, 8
  005d3	85 c0		 test	 eax, eax
  005d5	75 3b		 jne	 SHORT $LN22@LoadData

; 163  : 					{
; 164  : 						MsgBox("[MapServerMng] CMapServerManager::LoadData() - file load error : No IpAddress (SVR:%d)",
; 165  : 							sSVR_CODE);

  005d7	0f bf 45 d4	 movsx	 eax, WORD PTR _sSVR_CODE$227791[ebp]
  005db	50		 push	 eax
  005dc	68 00 00 00 00	 push	 OFFSET ??_C@_0FH@IKIILNPP@?$FLMapServerMng?$FN?5CMapServerManager@
  005e1	e8 00 00 00 00	 call	 ?MsgBox@@YAXPADZZ	; MsgBox
  005e6	83 c4 08	 add	 esp, 8

; 166  : 
; 167  : 						return FALSE;

  005e9	c7 85 28 ff ff
	ff 00 00 00 00	 mov	 DWORD PTR $T230573[ebp], 0
  005f3	6a fe		 push	 -2			; fffffffeH
  005f5	9b		 fwait
  005f6	8d 45 f0	 lea	 eax, DWORD PTR __$SEHRec$[ebp+8]
  005f9	50		 push	 eax
  005fa	68 00 00 00 00	 push	 OFFSET ___security_cookie
  005ff	e8 00 00 00 00	 call	 __local_unwind4
  00604	83 c4 0c	 add	 esp, 12			; 0000000cH
  00607	8b 85 28 ff ff
	ff		 mov	 eax, DWORD PTR $T230573[ebp]
  0060d	e9 7f 06 00 00	 jmp	 $LN36@LoadData
$LN22@LoadData:

; 168  : 					}
; 169  : 
; 170  : 					if ( CHECK_LIMIT(sMAPSVR_GROUP, MAX_MAP_GROUPS) == FALSE )

  00612	0f bf 45 d0	 movsx	 eax, WORD PTR _sMAPSVR_GROUP$227792[ebp]
  00616	85 c0		 test	 eax, eax
  00618	7d 0c		 jge	 SHORT $LN38@LoadData
  0061a	c7 85 f8 fe ff
	ff 00 00 00 00	 mov	 DWORD PTR tv162[ebp], 0
  00624	eb 12		 jmp	 SHORT $LN39@LoadData
$LN38@LoadData:
  00626	0f bf 4d d0	 movsx	 ecx, WORD PTR _sMAPSVR_GROUP$227792[ebp]
  0062a	33 d2		 xor	 edx, edx
  0062c	83 f9 13	 cmp	 ecx, 19			; 00000013H
  0062f	0f 9e c2	 setle	 dl
  00632	89 95 f8 fe ff
	ff		 mov	 DWORD PTR tv162[ebp], edx
$LN39@LoadData:
  00638	83 bd f8 fe ff
	ff 00		 cmp	 DWORD PTR tv162[ebp], 0
  0063f	75 3b		 jne	 SHORT $LN21@LoadData

; 171  : 					{
; 172  : 						MsgBox("[MapServerMng] CMapServerManager::LoadData() - file load error : Map Server Group Index (IDX:%d)",
; 173  : 							sMAPSVR_GROUP);

  00641	0f bf 45 d0	 movsx	 eax, WORD PTR _sMAPSVR_GROUP$227792[ebp]
  00645	50		 push	 eax
  00646	68 00 00 00 00	 push	 OFFSET ??_C@_0GB@OFMELGHA@?$FLMapServerMng?$FN?5CMapServerManager@
  0064b	e8 00 00 00 00	 call	 ?MsgBox@@YAXPADZZ	; MsgBox
  00650	83 c4 08	 add	 esp, 8

; 174  : 
; 175  : 						return FALSE;

  00653	c7 85 2c ff ff
	ff 00 00 00 00	 mov	 DWORD PTR $T230574[ebp], 0
  0065d	6a fe		 push	 -2			; fffffffeH
  0065f	9b		 fwait
  00660	8d 45 f0	 lea	 eax, DWORD PTR __$SEHRec$[ebp+8]
  00663	50		 push	 eax
  00664	68 00 00 00 00	 push	 OFFSET ___security_cookie
  00669	e8 00 00 00 00	 call	 __local_unwind4
  0066e	83 c4 0c	 add	 esp, 12			; 0000000cH
  00671	8b 85 2c ff ff
	ff		 mov	 eax, DWORD PTR $T230574[ebp]
  00677	e9 15 06 00 00	 jmp	 $LN36@LoadData
$LN21@LoadData:

; 176  : 					}
; 177  : 
; 178  : 					if ( this->m_iMAPSVR_GROUP_COUNT[sMAPSVR_GROUP] >= MAX_MAP_SUBGROUPS )

  0067c	0f bf 45 d0	 movsx	 eax, WORD PTR _sMAPSVR_GROUP$227792[ebp]
  00680	8b 4d e0	 mov	 ecx, DWORD PTR _this$[ebp]
  00683	83 bc 81 48 4b
	01 00 14	 cmp	 DWORD PTR [ecx+eax*4+84808], 20 ; 00000014H
  0068b	7c 3b		 jl	 SHORT $LN20@LoadData

; 179  : 					{
; 180  : 						MsgBox("[MapServerMng] CMapServerManager::LoadData() - file load error : No Space to Save SvrInfo (SVR:%d)",
; 181  : 							sSVR_CODE);

  0068d	0f bf 45 d4	 movsx	 eax, WORD PTR _sSVR_CODE$227791[ebp]
  00691	50		 push	 eax
  00692	68 00 00 00 00	 push	 OFFSET ??_C@_0GD@GJEAEGDB@?$FLMapServerMng?$FN?5CMapServerManager@
  00697	e8 00 00 00 00	 call	 ?MsgBox@@YAXPADZZ	; MsgBox
  0069c	83 c4 08	 add	 esp, 8

; 182  : 
; 183  : 						return FALSE;

  0069f	c7 85 30 ff ff
	ff 00 00 00 00	 mov	 DWORD PTR $T230575[ebp], 0
  006a9	6a fe		 push	 -2			; fffffffeH
  006ab	9b		 fwait
  006ac	8d 45 f0	 lea	 eax, DWORD PTR __$SEHRec$[ebp+8]
  006af	50		 push	 eax
  006b0	68 00 00 00 00	 push	 OFFSET ___security_cookie
  006b5	e8 00 00 00 00	 call	 __local_unwind4
  006ba	83 c4 0c	 add	 esp, 12			; 0000000cH
  006bd	8b 85 30 ff ff
	ff		 mov	 eax, DWORD PTR $T230575[ebp]
  006c3	e9 c9 05 00 00	 jmp	 $LN36@LoadData
$LN20@LoadData:

; 184  : 					}
; 185  : 
; 186  : 					_MAPSVR_DATA * lpMapSvrData = NULL;

  006c8	c7 45 b4 00 00
	00 00		 mov	 DWORD PTR _lpMapSvrData$227812[ebp], 0

; 187  : 
; 188  : 					lpMapSvrData= &this->m_MAPSVR_DATA[sMAPSVR_GROUP][this->m_iMAPSVR_GROUP_COUNT[sMAPSVR_GROUP]];

  006cf	0f bf 45 d0	 movsx	 eax, WORD PTR _sMAPSVR_GROUP$227792[ebp]
  006d3	69 c0 90 10 00
	00		 imul	 eax, 4240		; 00001090H
  006d9	8b 4d e0	 mov	 ecx, DWORD PTR _this$[ebp]
  006dc	8d 54 01 08	 lea	 edx, DWORD PTR [ecx+eax+8]
  006e0	0f bf 45 d0	 movsx	 eax, WORD PTR _sMAPSVR_GROUP$227792[ebp]
  006e4	8b 4d e0	 mov	 ecx, DWORD PTR _this$[ebp]
  006e7	8b 84 81 48 4b
	01 00		 mov	 eax, DWORD PTR [ecx+eax*4+84808]
  006ee	69 c0 d4 00 00
	00		 imul	 eax, 212		; 000000d4H
  006f4	03 d0		 add	 edx, eax
  006f6	89 55 b4	 mov	 DWORD PTR _lpMapSvrData$227812[ebp], edx

; 189  : 
; 190  : 					lpMapSvrData->Clear(iInitSetVal);

  006f9	8b 45 cc	 mov	 eax, DWORD PTR _iInitSetVal$227793[ebp]
  006fc	50		 push	 eax
  006fd	8b 4d b4	 mov	 ecx, DWORD PTR _lpMapSvrData$227812[ebp]
  00700	e8 00 00 00 00	 call	 ?Clear@_MAPSVR_DATA@@QAEXH@Z ; _MAPSVR_DATA::Clear

; 191  : 					lpMapSvrData->m_bIN_USE = TRUE;

  00705	8b 45 b4	 mov	 eax, DWORD PTR _lpMapSvrData$227812[ebp]
  00708	c7 40 04 01 00
	00 00		 mov	 DWORD PTR [eax+4], 1

; 192  : 					lpMapSvrData->m_sSVR_CODE = sSVR_CODE;

  0070f	8b 45 b4	 mov	 eax, DWORD PTR _lpMapSvrData$227812[ebp]
  00712	66 8b 4d d4	 mov	 cx, WORD PTR _sSVR_CODE$227791[ebp]
  00716	66 89 48 0a	 mov	 WORD PTR [eax+10], cx

; 193  : 					lpMapSvrData->m_btMAPSVR_GROUP = sMAPSVR_GROUP;

  0071a	8b 45 b4	 mov	 eax, DWORD PTR _lpMapSvrData$227812[ebp]
  0071d	8a 4d d0	 mov	 cl, BYTE PTR _sMAPSVR_GROUP$227792[ebp]
  00720	88 48 08	 mov	 BYTE PTR [eax+8], cl

; 194  : 					lpMapSvrData->m_wPORT = wPortNum;

  00723	8b 45 b4	 mov	 eax, DWORD PTR _lpMapSvrData$227812[ebp]
  00726	66 8b 4d b8	 mov	 cx, WORD PTR _wPortNum$227795[ebp]
  0072a	66 89 48 1c	 mov	 WORD PTR [eax+28], cx

; 195  : 					memcpy(lpMapSvrData->m_cIPADDR, szIpAddr, 16);

  0072e	6a 10		 push	 16			; 00000010H
  00730	8d 45 bc	 lea	 eax, DWORD PTR _szIpAddr$227794[ebp]
  00733	50		 push	 eax
  00734	8b 4d b4	 mov	 ecx, DWORD PTR _lpMapSvrData$227812[ebp]
  00737	83 c1 0c	 add	 ecx, 12			; 0000000cH
  0073a	51		 push	 ecx
  0073b	e8 00 00 00 00	 call	 _memcpy
  00740	83 c4 0c	 add	 esp, 12			; 0000000cH

; 196  : 					lpMapSvrData->m_cIPADDR[15] = 0;

  00743	8b 45 b4	 mov	 eax, DWORD PTR _lpMapSvrData$227812[ebp]
  00746	c6 40 1b 00	 mov	 BYTE PTR [eax+27], 0

; 197  : 					
; 198  : 					this->m_mapSVRCODE_MAP.insert(std::pair<int,_MAPSVR_DATA *>(sSVR_CODE, lpMapSvrData));

  0074a	8d 45 b4	 lea	 eax, DWORD PTR _lpMapSvrData$227812[ebp]
  0074d	50		 push	 eax
  0074e	8d 4d d4	 lea	 ecx, DWORD PTR _sSVR_CODE$227791[ebp]
  00751	51		 push	 ecx
  00752	8d 8d fc fe ff
	ff		 lea	 ecx, DWORD PTR $T230557[ebp]
  00758	e8 00 00 00 00	 call	 ??$?0AAFAAPAU_MAPSVR_DATA@@@?$pair@HPAU_MAPSVR_DATA@@@std@@QAE@AAFAAPAU_MAPSVR_DATA@@@Z ; std::pair<int,_MAPSVR_DATA *>::pair<int,_MAPSVR_DATA *><short &,_MAPSVR_DATA * &>
  0075d	50		 push	 eax
  0075e	8d 95 04 ff ff
	ff		 lea	 edx, DWORD PTR $T230558[ebp]
  00764	52		 push	 edx
  00765	8b 4d e0	 mov	 ecx, DWORD PTR _this$[ebp]
  00768	81 c1 98 4b 01
	00		 add	 ecx, 84888		; 00014b98H
  0076e	e8 00 00 00 00	 call	 ??$insert@U?$pair@HPAU_MAPSVR_DATA@@@std@@@?$_Tree@V?$_Tmap_traits@HPAU_MAPSVR_DATA@@U?$less@H@std@@V?$allocator@U?$pair@$$CBHPAU_MAPSVR_DATA@@@std@@@3@$0A@@std@@@std@@QAE?AU?$pair@V?$_Tree_iterator@V?$_Tree_val@V?$_Tmap_traits@HPAU_MAPSVR_DATA@@U?$less@H@std@@V?$allocator@U?$pair@$$CBHPAU_MAPSVR_DATA@@@std@@@3@$0A@@std@@@std@@@std@@_N@1@$$QAU?$pair@HPAU_MAPSVR_DATA@@@1@@Z ; std::_Tree<std::_Tmap_traits<int,_MAPSVR_DATA *,std::less<int>,std::allocator<std::pair<int const ,_MAPSVR_DATA *> >,0> >::insert<std::pair<int,_MAPSVR_DATA *> >

; 199  : 					this->m_iMAPSVR_GROUP_COUNT[sMAPSVR_GROUP]++;

  00773	0f bf 45 d0	 movsx	 eax, WORD PTR _sMAPSVR_GROUP$227792[ebp]
  00777	8b 4d e0	 mov	 ecx, DWORD PTR _this$[ebp]
  0077a	8b 94 81 48 4b
	01 00		 mov	 edx, DWORD PTR [ecx+eax*4+84808]
  00781	83 c2 01	 add	 edx, 1
  00784	0f bf 45 d0	 movsx	 eax, WORD PTR _sMAPSVR_GROUP$227792[ebp]
  00788	8b 4d e0	 mov	 ecx, DWORD PTR _this$[ebp]
  0078b	89 94 81 48 4b
	01 00		 mov	 DWORD PTR [ecx+eax*4+84808], edx
  00792	e9 fb 03 00 00	 jmp	 $LN7@LoadData
$LN26@LoadData:

; 200  : 				}
; 201  : 				else if ( type == 1 )

  00797	83 7d dc 01	 cmp	 DWORD PTR _type$227764[ebp], 1
  0079b	0f 85 f1 03 00
	00		 jne	 $LN7@LoadData

; 202  : 				{
; 203  : 					short sSVR_CODE = -1;

  007a1	83 c8 ff	 or	 eax, -1
  007a4	66 89 45 b0	 mov	 WORD PTR _sSVR_CODE$228401[ebp], ax

; 204  : 					BYTE btNotMoveOption = 0;

  007a8	c6 45 af 00	 mov	 BYTE PTR _btNotMoveOption$228402[ebp], 0

; 205  : 					WORD wMapNum = 0;

  007ac	33 c0		 xor	 eax, eax
  007ae	66 89 45 a8	 mov	 WORD PTR _wMapNum$228403[ebp], ax

; 206  : 					short sDEST_SVR_CODE = -1;

  007b2	83 c8 ff	 or	 eax, -1
  007b5	66 89 45 a4	 mov	 WORD PTR _sDEST_SVR_CODE$228404[ebp], ax

; 207  : 					_MAPSVR_DATA * lpMapSvrData = NULL;

  007b9	c7 45 a0 00 00
	00 00		 mov	 DWORD PTR _lpMapSvrData$228405[ebp], 0

; 208  : 
; 209  : 					Token = GetToken();

  007c0	e8 00 00 00 00	 call	 ?GetToken@@YA?AW4SMDToken@@XZ ; GetToken
  007c5	89 45 d8	 mov	 DWORD PTR _Token$227765[ebp], eax

; 210  : 
; 211  : 					if ( !strcmp("end", TokenString))

  007c8	68 00 00 00 00	 push	 OFFSET _TokenString
  007cd	68 00 00 00 00	 push	 OFFSET ??_C@_03JBJLGPFL@end?$AA@
  007d2	e8 00 00 00 00	 call	 _strcmp
  007d7	83 c4 08	 add	 esp, 8
  007da	85 c0		 test	 eax, eax
  007dc	75 05		 jne	 SHORT $LN17@LoadData

; 212  : 						break;

  007de	e9 b4 03 00 00	 jmp	 $LN27@LoadData
$LN17@LoadData:

; 213  : 
; 214  : 					sSVR_CODE = (short)TokenNumber;

  007e3	d9 05 00 00 00
	00		 fld	 DWORD PTR _TokenNumber
  007e9	e8 00 00 00 00	 call	 __ftol2_sse
  007ee	66 89 45 b0	 mov	 WORD PTR _sSVR_CODE$228401[ebp], ax

; 215  : 
; 216  : 					Token = GetToken();

  007f2	e8 00 00 00 00	 call	 ?GetToken@@YA?AW4SMDToken@@XZ ; GetToken
  007f7	89 45 d8	 mov	 DWORD PTR _Token$227765[ebp], eax

; 217  : 					btNotMoveOption = (BYTE)TokenNumber;

  007fa	d9 05 00 00 00
	00		 fld	 DWORD PTR _TokenNumber
  00800	d9 bd fa fe ff
	ff		 fnstcw	 WORD PTR tv564[ebp]
  00806	0f b7 85 fa fe
	ff ff		 movzx	 eax, WORD PTR tv564[ebp]
  0080d	0d 00 0c 00 00	 or	 eax, 3072		; 00000c00H
  00812	89 85 f4 fe ff
	ff		 mov	 DWORD PTR tv567[ebp], eax
  00818	d9 ad f4 fe ff
	ff		 fldcw	 WORD PTR tv567[ebp]
  0081e	db 9d f0 fe ff
	ff		 fistp	 DWORD PTR tv569[ebp]
  00824	d9 ad fa fe ff
	ff		 fldcw	 WORD PTR tv564[ebp]
  0082a	8a 85 f0 fe ff
	ff		 mov	 al, BYTE PTR tv569[ebp]
  00830	88 45 af	 mov	 BYTE PTR _btNotMoveOption$228402[ebp], al

; 218  : 
; 219  : 					Token = GetToken();

  00833	e8 00 00 00 00	 call	 ?GetToken@@YA?AW4SMDToken@@XZ ; GetToken
  00838	89 45 d8	 mov	 DWORD PTR _Token$227765[ebp], eax

; 220  : 					wMapNum = (WORD)TokenNumber;

  0083b	d9 05 00 00 00
	00		 fld	 DWORD PTR _TokenNumber
  00841	d9 bd fa fe ff
	ff		 fnstcw	 WORD PTR tv573[ebp]
  00847	0f b7 85 fa fe
	ff ff		 movzx	 eax, WORD PTR tv573[ebp]
  0084e	0d 00 0c 00 00	 or	 eax, 3072		; 00000c00H
  00853	89 85 f4 fe ff
	ff		 mov	 DWORD PTR tv576[ebp], eax
  00859	d9 ad f4 fe ff
	ff		 fldcw	 WORD PTR tv576[ebp]
  0085f	db 9d f0 fe ff
	ff		 fistp	 DWORD PTR tv578[ebp]
  00865	d9 ad fa fe ff
	ff		 fldcw	 WORD PTR tv573[ebp]
  0086b	66 8b 85 f0 fe
	ff ff		 mov	 ax, WORD PTR tv578[ebp]
  00872	66 89 45 a8	 mov	 WORD PTR _wMapNum$228403[ebp], ax

; 221  : 
; 222  : 					Token = GetToken();

  00876	e8 00 00 00 00	 call	 ?GetToken@@YA?AW4SMDToken@@XZ ; GetToken
  0087b	89 45 d8	 mov	 DWORD PTR _Token$227765[ebp], eax

; 223  : 					sDEST_SVR_CODE = (short)TokenNumber;

  0087e	d9 05 00 00 00
	00		 fld	 DWORD PTR _TokenNumber
  00884	e8 00 00 00 00	 call	 __ftol2_sse
  00889	66 89 45 a4	 mov	 WORD PTR _sDEST_SVR_CODE$228404[ebp], ax

; 224  : 
; 225  : 					if ( sSVR_CODE < 0 )

  0088d	0f bf 45 b0	 movsx	 eax, WORD PTR _sSVR_CODE$228401[ebp]
  00891	85 c0		 test	 eax, eax
  00893	7d 3b		 jge	 SHORT $LN16@LoadData

; 226  : 					{
; 227  : 						MsgBox("[MapServerMng] CMapServerManager::LoadData() - file load error : sSVR_CODE < 0 (SVR:%d) - 2",
; 228  : 							sSVR_CODE);

  00895	0f bf 45 b0	 movsx	 eax, WORD PTR _sSVR_CODE$228401[ebp]
  00899	50		 push	 eax
  0089a	68 00 00 00 00	 push	 OFFSET ??_C@_0FM@HEAHEOLH@?$FLMapServerMng?$FN?5CMapServerManager@
  0089f	e8 00 00 00 00	 call	 ?MsgBox@@YAXPADZZ	; MsgBox
  008a4	83 c4 08	 add	 esp, 8

; 229  : 
; 230  : 						return FALSE;

  008a7	c7 85 34 ff ff
	ff 00 00 00 00	 mov	 DWORD PTR $T230576[ebp], 0
  008b1	6a fe		 push	 -2			; fffffffeH
  008b3	9b		 fwait
  008b4	8d 45 f0	 lea	 eax, DWORD PTR __$SEHRec$[ebp+8]
  008b7	50		 push	 eax
  008b8	68 00 00 00 00	 push	 OFFSET ___security_cookie
  008bd	e8 00 00 00 00	 call	 __local_unwind4
  008c2	83 c4 0c	 add	 esp, 12			; 0000000cH
  008c5	8b 85 34 ff ff
	ff		 mov	 eax, DWORD PTR $T230576[ebp]
  008cb	e9 c1 03 00 00	 jmp	 $LN36@LoadData
$LN16@LoadData:

; 231  : 					}
; 232  : 
; 233  : 					if ( sDEST_SVR_CODE < -2 )

  008d0	0f bf 45 a4	 movsx	 eax, WORD PTR _sDEST_SVR_CODE$228404[ebp]
  008d4	83 f8 fe	 cmp	 eax, -2			; fffffffeH
  008d7	7d 40		 jge	 SHORT $LN15@LoadData

; 234  : 					{
; 235  : 						MsgBox("[MapServerMng] CMapServerManager::LoadData() - file load error : sDEST_SVR_CODE < -1 (SVR:%d, DEST_SVR:%d) - 2",
; 236  : 							sSVR_CODE, sDEST_SVR_CODE);

  008d9	0f bf 45 a4	 movsx	 eax, WORD PTR _sDEST_SVR_CODE$228404[ebp]
  008dd	50		 push	 eax
  008de	0f bf 4d b0	 movsx	 ecx, WORD PTR _sSVR_CODE$228401[ebp]
  008e2	51		 push	 ecx
  008e3	68 00 00 00 00	 push	 OFFSET ??_C@_0GP@JAAIOOFD@?$FLMapServerMng?$FN?5CMapServerManager@
  008e8	e8 00 00 00 00	 call	 ?MsgBox@@YAXPADZZ	; MsgBox
  008ed	83 c4 0c	 add	 esp, 12			; 0000000cH

; 237  : 
; 238  : 						return FALSE;

  008f0	c7 85 38 ff ff
	ff 00 00 00 00	 mov	 DWORD PTR $T230577[ebp], 0
  008fa	6a fe		 push	 -2			; fffffffeH
  008fc	9b		 fwait
  008fd	8d 45 f0	 lea	 eax, DWORD PTR __$SEHRec$[ebp+8]
  00900	50		 push	 eax
  00901	68 00 00 00 00	 push	 OFFSET ___security_cookie
  00906	e8 00 00 00 00	 call	 __local_unwind4
  0090b	83 c4 0c	 add	 esp, 12			; 0000000cH
  0090e	8b 85 38 ff ff
	ff		 mov	 eax, DWORD PTR $T230577[ebp]
  00914	e9 78 03 00 00	 jmp	 $LN36@LoadData
$LN15@LoadData:

; 239  : 					}
; 240  : 
; 241  : 					std::map<int  ,_MAPSVR_DATA *>::iterator it = this->m_mapSVRCODE_MAP.find(sSVR_CODE);

  00919	0f bf 45 b0	 movsx	 eax, WORD PTR _sSVR_CODE$228401[ebp]
  0091d	89 85 0c ff ff
	ff		 mov	 DWORD PTR $T230559[ebp], eax
  00923	8d 8d 0c ff ff
	ff		 lea	 ecx, DWORD PTR $T230559[ebp]
  00929	51		 push	 ecx
  0092a	8d 55 9c	 lea	 edx, DWORD PTR _it$228428[ebp]
  0092d	52		 push	 edx
  0092e	8b 4d e0	 mov	 ecx, DWORD PTR _this$[ebp]
  00931	81 c1 98 4b 01
	00		 add	 ecx, 84888		; 00014b98H
  00937	e8 00 00 00 00	 call	 ?find@?$_Tree@V?$_Tmap_traits@HPAU_MAPSVR_DATA@@U?$less@H@std@@V?$allocator@U?$pair@$$CBHPAU_MAPSVR_DATA@@@std@@@3@$0A@@std@@@std@@QAE?AV?$_Tree_iterator@V?$_Tree_val@V?$_Tmap_traits@HPAU_MAPSVR_DATA@@U?$less@H@std@@V?$allocator@U?$pair@$$CBHPAU_MAPSVR_DATA@@@std@@@3@$0A@@std@@@std@@@2@ABH@Z ; std::_Tree<std::_Tmap_traits<int,_MAPSVR_DATA *,std::less<int>,std::allocator<std::pair<int const ,_MAPSVR_DATA *> >,0> >::find

; 242  : 
; 243  : 					if ( it == this->m_mapSVRCODE_MAP.end() )

  0093c	8d 85 10 ff ff
	ff		 lea	 eax, DWORD PTR $T230560[ebp]
  00942	50		 push	 eax
  00943	8b 4d e0	 mov	 ecx, DWORD PTR _this$[ebp]
  00946	81 c1 98 4b 01
	00		 add	 ecx, 84888		; 00014b98H
  0094c	e8 00 00 00 00	 call	 ?end@?$_Tree@V?$_Tmap_traits@HPAU_MAPSVR_DATA@@U?$less@H@std@@V?$allocator@U?$pair@$$CBHPAU_MAPSVR_DATA@@@std@@@3@$0A@@std@@@std@@QAE?AV?$_Tree_iterator@V?$_Tree_val@V?$_Tmap_traits@HPAU_MAPSVR_DATA@@U?$less@H@std@@V?$allocator@U?$pair@$$CBHPAU_MAPSVR_DATA@@@std@@@3@$0A@@std@@@std@@@2@XZ ; std::_Tree<std::_Tmap_traits<int,_MAPSVR_DATA *,std::less<int>,std::allocator<std::pair<int const ,_MAPSVR_DATA *> >,0> >::end
  00951	50		 push	 eax
  00952	8d 4d 9c	 lea	 ecx, DWORD PTR _it$228428[ebp]
  00955	e8 00 00 00 00	 call	 ??8?$_Tree_const_iterator@V?$_Tree_val@V?$_Tmap_traits@HPAU_MAPSVR_DATA@@U?$less@H@std@@V?$allocator@U?$pair@$$CBHPAU_MAPSVR_DATA@@@std@@@3@$0A@@std@@@std@@@std@@QBE_NABV01@@Z ; std::_Tree_const_iterator<std::_Tree_val<std::_Tmap_traits<int,_MAPSVR_DATA *,std::less<int>,std::allocator<std::pair<int const ,_MAPSVR_DATA *> >,0> > >::operator==
  0095a	0f b6 c8	 movzx	 ecx, al
  0095d	85 c9		 test	 ecx, ecx
  0095f	74 3b		 je	 SHORT $LN14@LoadData

; 244  : 					{
; 245  : 						MsgBox("[MapServerMng] CMapServerManager::LoadData() - file load error : sSVR_CODE wasn't registered (SVR:%d)",
; 246  : 							sSVR_CODE);

  00961	0f bf 45 b0	 movsx	 eax, WORD PTR _sSVR_CODE$228401[ebp]
  00965	50		 push	 eax
  00966	68 00 00 00 00	 push	 OFFSET ??_C@_0GG@ONBCFDCN@?$FLMapServerMng?$FN?5CMapServerManager@
  0096b	e8 00 00 00 00	 call	 ?MsgBox@@YAXPADZZ	; MsgBox
  00970	83 c4 08	 add	 esp, 8

; 247  : 
; 248  : 						return FALSE;

  00973	c7 85 3c ff ff
	ff 00 00 00 00	 mov	 DWORD PTR $T230578[ebp], 0
  0097d	6a fe		 push	 -2			; fffffffeH
  0097f	9b		 fwait
  00980	8d 45 f0	 lea	 eax, DWORD PTR __$SEHRec$[ebp+8]
  00983	50		 push	 eax
  00984	68 00 00 00 00	 push	 OFFSET ___security_cookie
  00989	e8 00 00 00 00	 call	 __local_unwind4
  0098e	83 c4 0c	 add	 esp, 12			; 0000000cH
  00991	8b 85 3c ff ff
	ff		 mov	 eax, DWORD PTR $T230578[ebp]
  00997	e9 f5 02 00 00	 jmp	 $LN36@LoadData
$LN14@LoadData:

; 249  : 					}
; 250  : 
; 251  : 					lpMapSvrData = it->second;

  0099c	8d 4d 9c	 lea	 ecx, DWORD PTR _it$228428[ebp]
  0099f	e8 00 00 00 00	 call	 ??C?$_Tree_iterator@V?$_Tree_val@V?$_Tmap_traits@HPAU_MAPSVR_DATA@@U?$less@H@std@@V?$allocator@U?$pair@$$CBHPAU_MAPSVR_DATA@@@std@@@3@$0A@@std@@@std@@@std@@QBEPAU?$pair@$$CBHPAU_MAPSVR_DATA@@@1@XZ ; std::_Tree_iterator<std::_Tree_val<std::_Tmap_traits<int,_MAPSVR_DATA *,std::less<int>,std::allocator<std::pair<int const ,_MAPSVR_DATA *> >,0> > >::operator->
  009a4	8b 40 04	 mov	 eax, DWORD PTR [eax+4]
  009a7	89 45 a0	 mov	 DWORD PTR _lpMapSvrData$228405[ebp], eax

; 252  : 
; 253  : 					if ( lpMapSvrData == NULL )

  009aa	83 7d a0 00	 cmp	 DWORD PTR _lpMapSvrData$228405[ebp], 0
  009ae	75 3b		 jne	 SHORT $LN13@LoadData

; 254  : 					{
; 255  : 						MsgBox("[MapServerMng] CMapServerManager::LoadData() - file load error : lpMapSvrData == NULL (SVR:%d)",
; 256  : 							sSVR_CODE);

  009b0	0f bf 45 b0	 movsx	 eax, WORD PTR _sSVR_CODE$228401[ebp]
  009b4	50		 push	 eax
  009b5	68 00 00 00 00	 push	 OFFSET ??_C@_0FP@BNNDCEBC@?$FLMapServerMng?$FN?5CMapServerManager@
  009ba	e8 00 00 00 00	 call	 ?MsgBox@@YAXPADZZ	; MsgBox
  009bf	83 c4 08	 add	 esp, 8

; 257  : 
; 258  : 						return FALSE;

  009c2	c7 85 40 ff ff
	ff 00 00 00 00	 mov	 DWORD PTR $T230579[ebp], 0
  009cc	6a fe		 push	 -2			; fffffffeH
  009ce	9b		 fwait
  009cf	8d 45 f0	 lea	 eax, DWORD PTR __$SEHRec$[ebp+8]
  009d2	50		 push	 eax
  009d3	68 00 00 00 00	 push	 OFFSET ___security_cookie
  009d8	e8 00 00 00 00	 call	 __local_unwind4
  009dd	83 c4 0c	 add	 esp, 12			; 0000000cH
  009e0	8b 85 40 ff ff
	ff		 mov	 eax, DWORD PTR $T230579[ebp]
  009e6	e9 a6 02 00 00	 jmp	 $LN36@LoadData
$LN13@LoadData:

; 259  : 					}
; 260  : 
; 261  : 					if ( lpMapSvrData->m_bIN_USE == FALSE )

  009eb	8b 45 a0	 mov	 eax, DWORD PTR _lpMapSvrData$228405[ebp]
  009ee	83 78 04 00	 cmp	 DWORD PTR [eax+4], 0
  009f2	75 3b		 jne	 SHORT $LN12@LoadData

; 262  : 					{
; 263  : 						MsgBox("[MapServerMng] CMapServerManager::LoadData() - file load error : lpMapSvrData->m_bIN_USE == FALSE (SVR:%d)",
; 264  : 							sSVR_CODE);

  009f4	0f bf 45 b0	 movsx	 eax, WORD PTR _sSVR_CODE$228401[ebp]
  009f8	50		 push	 eax
  009f9	68 00 00 00 00	 push	 OFFSET ??_C@_0GL@LAJNEJB@?$FLMapServerMng?$FN?5CMapServerManager@
  009fe	e8 00 00 00 00	 call	 ?MsgBox@@YAXPADZZ	; MsgBox
  00a03	83 c4 08	 add	 esp, 8

; 265  : 
; 266  : 						return FALSE;

  00a06	c7 85 44 ff ff
	ff 00 00 00 00	 mov	 DWORD PTR $T230580[ebp], 0
  00a10	6a fe		 push	 -2			; fffffffeH
  00a12	9b		 fwait
  00a13	8d 45 f0	 lea	 eax, DWORD PTR __$SEHRec$[ebp+8]
  00a16	50		 push	 eax
  00a17	68 00 00 00 00	 push	 OFFSET ___security_cookie
  00a1c	e8 00 00 00 00	 call	 __local_unwind4
  00a21	83 c4 0c	 add	 esp, 12			; 0000000cH
  00a24	8b 85 44 ff ff
	ff		 mov	 eax, DWORD PTR $T230580[ebp]
  00a2a	e9 62 02 00 00	 jmp	 $LN36@LoadData
$LN12@LoadData:

; 267  : 					}
; 268  : 
; 269  : 					if ( lpMapSvrData->m_sSVR_CODE != sSVR_CODE )

  00a2f	8b 45 a0	 mov	 eax, DWORD PTR _lpMapSvrData$228405[ebp]
  00a32	0f bf 48 0a	 movsx	 ecx, WORD PTR [eax+10]
  00a36	0f bf 55 b0	 movsx	 edx, WORD PTR _sSVR_CODE$228401[ebp]
  00a3a	3b ca		 cmp	 ecx, edx
  00a3c	74 3b		 je	 SHORT $LN11@LoadData

; 270  : 					{
; 271  : 						MsgBox("[MapServerMng] CMapServerManager::LoadData() - file load error : lpMapSvrData->m_sSVR_CODE != sSVR_CODE (SVR:%d)",
; 272  : 							sSVR_CODE);

  00a3e	0f bf 45 b0	 movsx	 eax, WORD PTR _sSVR_CODE$228401[ebp]
  00a42	50		 push	 eax
  00a43	68 00 00 00 00	 push	 OFFSET ??_C@_0HB@PMNAKCMJ@?$FLMapServerMng?$FN?5CMapServerManager@
  00a48	e8 00 00 00 00	 call	 ?MsgBox@@YAXPADZZ	; MsgBox
  00a4d	83 c4 08	 add	 esp, 8

; 273  : 
; 274  : 						return FALSE;

  00a50	c7 85 48 ff ff
	ff 00 00 00 00	 mov	 DWORD PTR $T230581[ebp], 0
  00a5a	6a fe		 push	 -2			; fffffffeH
  00a5c	9b		 fwait
  00a5d	8d 45 f0	 lea	 eax, DWORD PTR __$SEHRec$[ebp+8]
  00a60	50		 push	 eax
  00a61	68 00 00 00 00	 push	 OFFSET ___security_cookie
  00a66	e8 00 00 00 00	 call	 __local_unwind4
  00a6b	83 c4 0c	 add	 esp, 12			; 0000000cH
  00a6e	8b 85 48 ff ff
	ff		 mov	 eax, DWORD PTR $T230581[ebp]
  00a74	e9 18 02 00 00	 jmp	 $LN36@LoadData
$LN11@LoadData:

; 275  : 					}
; 276  : 
; 277  : 					if ( btNotMoveOption != 0 && btNotMoveOption != 1 )

  00a79	0f b6 45 af	 movzx	 eax, BYTE PTR _btNotMoveOption$228402[ebp]
  00a7d	85 c0		 test	 eax, eax
  00a7f	74 49		 je	 SHORT $LN10@LoadData
  00a81	0f b6 45 af	 movzx	 eax, BYTE PTR _btNotMoveOption$228402[ebp]
  00a85	83 f8 01	 cmp	 eax, 1
  00a88	74 40		 je	 SHORT $LN10@LoadData

; 278  : 					{
; 279  : 						MsgBox("[MapServerMng] CMapServerManager::LoadData() - file load error : lpMapSvrData->m_sSVR_CODE != sSVR_CODE (SVR:%d, OPT:%d)",
; 280  : 							sSVR_CODE, btNotMoveOption);

  00a8a	0f b6 45 af	 movzx	 eax, BYTE PTR _btNotMoveOption$228402[ebp]
  00a8e	50		 push	 eax
  00a8f	0f bf 4d b0	 movsx	 ecx, WORD PTR _sSVR_CODE$228401[ebp]
  00a93	51		 push	 ecx
  00a94	68 00 00 00 00	 push	 OFFSET ??_C@_0HJ@HNGNAGOE@?$FLMapServerMng?$FN?5CMapServerManager@
  00a99	e8 00 00 00 00	 call	 ?MsgBox@@YAXPADZZ	; MsgBox
  00a9e	83 c4 0c	 add	 esp, 12			; 0000000cH

; 281  : 
; 282  : 						return FALSE;

  00aa1	c7 85 4c ff ff
	ff 00 00 00 00	 mov	 DWORD PTR $T230582[ebp], 0
  00aab	6a fe		 push	 -2			; fffffffeH
  00aad	9b		 fwait
  00aae	8d 45 f0	 lea	 eax, DWORD PTR __$SEHRec$[ebp+8]
  00ab1	50		 push	 eax
  00ab2	68 00 00 00 00	 push	 OFFSET ___security_cookie
  00ab7	e8 00 00 00 00	 call	 __local_unwind4
  00abc	83 c4 0c	 add	 esp, 12			; 0000000cH
  00abf	8b 85 4c ff ff
	ff		 mov	 eax, DWORD PTR $T230582[ebp]
  00ac5	e9 c7 01 00 00	 jmp	 $LN36@LoadData
$LN10@LoadData:

; 283  : 					}
; 284  : 
; 285  : 					if ( CHECK_LIMIT(wMapNum, MAX_NUMBER_MAP) == FALSE )

  00aca	0f b7 45 a8	 movzx	 eax, WORD PTR _wMapNum$228403[ebp]
  00ace	85 c0		 test	 eax, eax
  00ad0	7d 0c		 jge	 SHORT $LN40@LoadData
  00ad2	c7 85 f8 fe ff
	ff 00 00 00 00	 mov	 DWORD PTR tv317[ebp], 0
  00adc	eb 12		 jmp	 SHORT $LN41@LoadData
$LN40@LoadData:
  00ade	0f b7 4d a8	 movzx	 ecx, WORD PTR _wMapNum$228403[ebp]
  00ae2	33 d2		 xor	 edx, edx
  00ae4	83 f9 59	 cmp	 ecx, 89			; 00000059H
  00ae7	0f 9e c2	 setle	 dl
  00aea	89 95 f8 fe ff
	ff		 mov	 DWORD PTR tv317[ebp], edx
$LN41@LoadData:
  00af0	83 bd f8 fe ff
	ff 00		 cmp	 DWORD PTR tv317[ebp], 0
  00af7	75 40		 jne	 SHORT $LN9@LoadData

; 286  : 					{
; 287  : 						MsgBox("[MapServerMng] CMapServerManager::LoadData() - file load error : Map Number is out of bound (SVR:%d, MAP:%d)",
; 288  : 							sSVR_CODE, wMapNum);

  00af9	0f b7 45 a8	 movzx	 eax, WORD PTR _wMapNum$228403[ebp]
  00afd	50		 push	 eax
  00afe	0f bf 4d b0	 movsx	 ecx, WORD PTR _sSVR_CODE$228401[ebp]
  00b02	51		 push	 ecx
  00b03	68 00 00 00 00	 push	 OFFSET ??_C@_0GN@OFPCNONA@?$FLMapServerMng?$FN?5CMapServerManager@
  00b08	e8 00 00 00 00	 call	 ?MsgBox@@YAXPADZZ	; MsgBox
  00b0d	83 c4 0c	 add	 esp, 12			; 0000000cH

; 289  : 
; 290  : 						return FALSE;

  00b10	c7 85 50 ff ff
	ff 00 00 00 00	 mov	 DWORD PTR $T230583[ebp], 0
  00b1a	6a fe		 push	 -2			; fffffffeH
  00b1c	9b		 fwait
  00b1d	8d 45 f0	 lea	 eax, DWORD PTR __$SEHRec$[ebp+8]
  00b20	50		 push	 eax
  00b21	68 00 00 00 00	 push	 OFFSET ___security_cookie
  00b26	e8 00 00 00 00	 call	 __local_unwind4
  00b2b	83 c4 0c	 add	 esp, 12			; 0000000cH
  00b2e	8b 85 50 ff ff
	ff		 mov	 eax, DWORD PTR $T230583[ebp]
  00b34	e9 58 01 00 00	 jmp	 $LN36@LoadData
$LN9@LoadData:

; 291  : 					}
; 292  : 
; 293  : 					switch ( btNotMoveOption )

  00b39	8a 45 af	 mov	 al, BYTE PTR _btNotMoveOption$228402[ebp]
  00b3c	88 85 f8 fe ff
	ff		 mov	 BYTE PTR tv325[ebp], al
  00b42	80 bd f8 fe ff
	ff 00		 cmp	 BYTE PTR tv325[ebp], 0
  00b49	74 0b		 je	 SHORT $LN6@LoadData
  00b4b	80 bd f8 fe ff
	ff 01		 cmp	 BYTE PTR tv325[ebp], 1
  00b52	74 14		 je	 SHORT $LN5@LoadData
  00b54	eb 25		 jmp	 SHORT $LN4@LoadData
$LN6@LoadData:

; 294  : 					{
; 295  : 						case 0:
; 296  : 							lpMapSvrData->m_sMAP_MOVE[wMapNum] = sDEST_SVR_CODE;

  00b56	0f b7 45 a8	 movzx	 eax, WORD PTR _wMapNum$228403[ebp]
  00b5a	8b 4d a0	 mov	 ecx, DWORD PTR _lpMapSvrData$228405[ebp]
  00b5d	66 8b 55 a4	 mov	 dx, WORD PTR _sDEST_SVR_CODE$228404[ebp]
  00b61	66 89 54 41 1e	 mov	 WORD PTR [ecx+eax*2+30], dx

; 297  : 							break;

  00b66	eb 2a		 jmp	 SHORT $LN7@LoadData
$LN5@LoadData:

; 298  : 						case 1:
; 299  : 							lpMapSvrData->m_sMAP_MOVE[wMapNum] = -3;

  00b68	0f b7 45 a8	 movzx	 eax, WORD PTR _wMapNum$228403[ebp]
  00b6c	b9 fd ff ff ff	 mov	 ecx, -3			; fffffffdH
  00b71	8b 55 a0	 mov	 edx, DWORD PTR _lpMapSvrData$228405[ebp]
  00b74	66 89 4c 42 1e	 mov	 WORD PTR [edx+eax*2+30], cx

; 300  : 							break;

  00b79	eb 17		 jmp	 SHORT $LN7@LoadData
$LN4@LoadData:

; 301  : 						default:
; 302  : 							MsgBox("[MapServerMng] CMapServerManager::LoadData() - file load error : lpMapSvrData->m_sSVR_CODE != sSVR_CODE (SVR:%d, OPT:%d)",
; 303  : 								sSVR_CODE, btNotMoveOption);

  00b7b	0f b6 45 af	 movzx	 eax, BYTE PTR _btNotMoveOption$228402[ebp]
  00b7f	50		 push	 eax
  00b80	0f bf 4d b0	 movsx	 ecx, WORD PTR _sSVR_CODE$228401[ebp]
  00b84	51		 push	 ecx
  00b85	68 00 00 00 00	 push	 OFFSET ??_C@_0HJ@HNGNAGOE@?$FLMapServerMng?$FN?5CMapServerManager@
  00b8a	e8 00 00 00 00	 call	 ?MsgBox@@YAXPADZZ	; MsgBox
  00b8f	83 c4 0c	 add	 esp, 12			; 0000000cH
$LN7@LoadData:

; 304  : 							break;
; 305  : 					}
; 306  : 				}	// if type
; 307  : 			}	// while ( true )

  00b92	e9 8e f8 ff ff	 jmp	 $LN28@LoadData
$LN27@LoadData:

; 308  : 		}	// while ( true )

  00b97	e9 5b f8 ff ff	 jmp	 $LN31@LoadData
$LN30@LoadData:

; 309  : 
; 310  : 		fclose(SMDFile);

  00b9c	a1 00 00 00 00	 mov	 eax, DWORD PTR _SMDFile
  00ba1	50		 push	 eax
  00ba2	e8 00 00 00 00	 call	 _fclose
  00ba7	83 c4 04	 add	 esp, 4

; 311  : 
; 312  : 		std::map<int  ,_MAPSVR_DATA *>::iterator it = this->m_mapSVRCODE_MAP.find(gGameServerCode);

  00baa	0f bf 05 00 00
	00 00		 movsx	 eax, WORD PTR ?gGameServerCode@@3FA ; gGameServerCode
  00bb1	89 85 14 ff ff
	ff		 mov	 DWORD PTR $T230563[ebp], eax
  00bb7	8d 8d 14 ff ff
	ff		 lea	 ecx, DWORD PTR $T230563[ebp]
  00bbd	51		 push	 ecx
  00bbe	8d 55 98	 lea	 edx, DWORD PTR _it$228480[ebp]
  00bc1	52		 push	 edx
  00bc2	8b 4d e0	 mov	 ecx, DWORD PTR _this$[ebp]
  00bc5	81 c1 98 4b 01
	00		 add	 ecx, 84888		; 00014b98H
  00bcb	e8 00 00 00 00	 call	 ?find@?$_Tree@V?$_Tmap_traits@HPAU_MAPSVR_DATA@@U?$less@H@std@@V?$allocator@U?$pair@$$CBHPAU_MAPSVR_DATA@@@std@@@3@$0A@@std@@@std@@QAE?AV?$_Tree_iterator@V?$_Tree_val@V?$_Tmap_traits@HPAU_MAPSVR_DATA@@U?$less@H@std@@V?$allocator@U?$pair@$$CBHPAU_MAPSVR_DATA@@@std@@@3@$0A@@std@@@std@@@2@ABH@Z ; std::_Tree<std::_Tmap_traits<int,_MAPSVR_DATA *,std::less<int>,std::allocator<std::pair<int const ,_MAPSVR_DATA *> >,0> >::find

; 313  : 
; 314  : 		if ( it != this->m_mapSVRCODE_MAP.end() )

  00bd0	8d 85 18 ff ff
	ff		 lea	 eax, DWORD PTR $T230564[ebp]
  00bd6	50		 push	 eax
  00bd7	8b 4d e0	 mov	 ecx, DWORD PTR _this$[ebp]
  00bda	81 c1 98 4b 01
	00		 add	 ecx, 84888		; 00014b98H
  00be0	e8 00 00 00 00	 call	 ?end@?$_Tree@V?$_Tmap_traits@HPAU_MAPSVR_DATA@@U?$less@H@std@@V?$allocator@U?$pair@$$CBHPAU_MAPSVR_DATA@@@std@@@3@$0A@@std@@@std@@QAE?AV?$_Tree_iterator@V?$_Tree_val@V?$_Tmap_traits@HPAU_MAPSVR_DATA@@U?$less@H@std@@V?$allocator@U?$pair@$$CBHPAU_MAPSVR_DATA@@@std@@@3@$0A@@std@@@std@@@2@XZ ; std::_Tree<std::_Tmap_traits<int,_MAPSVR_DATA *,std::less<int>,std::allocator<std::pair<int const ,_MAPSVR_DATA *> >,0> >::end
  00be5	50		 push	 eax
  00be6	8d 4d 98	 lea	 ecx, DWORD PTR _it$228480[ebp]
  00be9	e8 00 00 00 00	 call	 ??9?$_Tree_const_iterator@V?$_Tree_val@V?$_Tmap_traits@HPAU_MAPSVR_DATA@@U?$less@H@std@@V?$allocator@U?$pair@$$CBHPAU_MAPSVR_DATA@@@std@@@3@$0A@@std@@@std@@@std@@QBE_NABV01@@Z ; std::_Tree_const_iterator<std::_Tree_val<std::_Tmap_traits<int,_MAPSVR_DATA *,std::less<int>,std::allocator<std::pair<int const ,_MAPSVR_DATA *> >,0> > >::operator!=
  00bee	0f b6 c8	 movzx	 ecx, al
  00bf1	85 c9		 test	 ecx, ecx
  00bf3	74 16		 je	 SHORT $LN3@LoadData

; 315  : 		{
; 316  : 			this->m_lpThisMapSvrData = it->second;

  00bf5	8d 4d 98	 lea	 ecx, DWORD PTR _it$228480[ebp]
  00bf8	e8 00 00 00 00	 call	 ??C?$_Tree_iterator@V?$_Tree_val@V?$_Tmap_traits@HPAU_MAPSVR_DATA@@U?$less@H@std@@V?$allocator@U?$pair@$$CBHPAU_MAPSVR_DATA@@@std@@@3@$0A@@std@@@std@@@std@@QBEPAU?$pair@$$CBHPAU_MAPSVR_DATA@@@1@XZ ; std::_Tree_iterator<std::_Tree_val<std::_Tmap_traits<int,_MAPSVR_DATA *,std::less<int>,std::allocator<std::pair<int const ,_MAPSVR_DATA *> >,0> > >::operator->
  00bfd	8b 4d e0	 mov	 ecx, DWORD PTR _this$[ebp]
  00c00	8b 50 04	 mov	 edx, DWORD PTR [eax+4]
  00c03	89 91 c0 4b 01
	00		 mov	 DWORD PTR [ecx+84928], edx

; 317  : 		}
; 318  : 		else

  00c09	eb 0d		 jmp	 SHORT $LN2@LoadData
$LN3@LoadData:

; 319  : 		{
; 320  : 			this->m_lpThisMapSvrData = NULL;

  00c0b	8b 45 e0	 mov	 eax, DWORD PTR _this$[ebp]
  00c0e	c7 80 c0 4b 01
	00 00 00 00 00	 mov	 DWORD PTR [eax+84928], 0
$LN2@LoadData:

; 321  : 		}
; 322  : 
; 323  : 		if ( this->m_lpThisMapSvrData == NULL )

  00c18	8b 45 e0	 mov	 eax, DWORD PTR _this$[ebp]
  00c1b	83 b8 c0 4b 01
	00 00		 cmp	 DWORD PTR [eax+84928], 0
  00c22	75 3f		 jne	 SHORT $LN1@LoadData

; 324  : 		{
; 325  : 			MsgBox("[MapServerMng] CMapServerManager::LoadData() - file load error : This GameServerCode (%d) doesn't Exist at file '%s' != sSVR_CODE",
; 326  : 				gGameServerCode, lpszFileName);

  00c24	8b 45 08	 mov	 eax, DWORD PTR _lpszFileName$[ebp]
  00c27	50		 push	 eax
  00c28	0f bf 0d 00 00
	00 00		 movsx	 ecx, WORD PTR ?gGameServerCode@@3FA ; gGameServerCode
  00c2f	51		 push	 ecx
  00c30	68 00 00 00 00	 push	 OFFSET ??_C@_0IC@BIPGFAJD@?$FLMapServerMng?$FN?5CMapServerManager@
  00c35	e8 00 00 00 00	 call	 ?MsgBox@@YAXPADZZ	; MsgBox
  00c3a	83 c4 0c	 add	 esp, 12			; 0000000cH

; 327  : 
; 328  : 			return FALSE;

  00c3d	c7 85 54 ff ff
	ff 00 00 00 00	 mov	 DWORD PTR $T230584[ebp], 0
  00c47	6a fe		 push	 -2			; fffffffeH
  00c49	9b		 fwait
  00c4a	8d 45 f0	 lea	 eax, DWORD PTR __$SEHRec$[ebp+8]
  00c4d	50		 push	 eax
  00c4e	68 00 00 00 00	 push	 OFFSET ___security_cookie
  00c53	e8 00 00 00 00	 call	 __local_unwind4
  00c58	83 c4 0c	 add	 esp, 12			; 0000000cH
  00c5b	8b 85 54 ff ff
	ff		 mov	 eax, DWORD PTR $T230584[ebp]
  00c61	eb 2e		 jmp	 SHORT $LN36@LoadData
$LN1@LoadData:

; 329  : 		}
; 330  : 
; 331  : 		this->m_bMapDataLoadOk = TRUE;

  00c63	8b 45 e0	 mov	 eax, DWORD PTR _this$[ebp]
  00c66	c7 40 04 01 00
	00 00		 mov	 DWORD PTR [eax+4], 1

; 332  : 	}
; 333  : 	__finally

  00c6d	9b		 fwait
  00c6e	c7 45 fc fe ff
	ff ff		 mov	 DWORD PTR __$SEHRec$[ebp+20], -2 ; fffffffeH
  00c75	e8 02 00 00 00	 call	 $LN45@LoadData
  00c7a	eb 10		 jmp	 SHORT $LN46@LoadData
$LN43@LoadData:
$LN48@LoadData:
$LN45@LoadData:

; 334  : 	{
; 335  : 		LeaveCriticalSection(&this->m_critSVRCODE_MAP);

  00c7c	8b 45 e0	 mov	 eax, DWORD PTR _this$[ebp]
  00c7f	05 a8 4b 01 00	 add	 eax, 84904		; 00014ba8H
  00c84	50		 push	 eax
  00c85	ff 15 00 00 00
	00		 call	 DWORD PTR __imp__LeaveCriticalSection@4
$LN44@LoadData:
$LN47@LoadData:
  00c8b	c3		 ret	 0
$LN46@LoadData:

; 336  : 	}
; 337  : 
; 338  : 	return TRUE;

  00c8c	b8 01 00 00 00	 mov	 eax, 1
$LN36@LoadData:

; 339  : }

  00c91	8b 4d f0	 mov	 ecx, DWORD PTR __$SEHRec$[ebp+8]
  00c94	64 89 0d 00 00
	00 00		 mov	 DWORD PTR fs:0, ecx
  00c9b	59		 pop	 ecx
  00c9c	5f		 pop	 edi
  00c9d	5e		 pop	 esi
  00c9e	5b		 pop	 ebx
  00c9f	8b 4d e4	 mov	 ecx, DWORD PTR __$ArrayPad$[ebp]
  00ca2	33 cd		 xor	 ecx, ebp
  00ca4	e8 00 00 00 00	 call	 @__security_check_cookie@4
  00ca9	8b e5		 mov	 esp, ebp
  00cab	5d		 pop	 ebp
  00cac	c2 04 00	 ret	 4
?LoadData@CMapServerManager@@QAEHPAD@Z ENDP		; CMapServerManager::LoadData
_TEXT	ENDS
PUBLIC	__$ArrayPad$
EXTRN	_isalnum:PROC
EXTRN	_isalpha:PROC
EXTRN	_atof:PROC
EXTRN	_isdigit:PROC
EXTRN	_getc:PROC
EXTRN	_ungetc:PROC
EXTRN	_isspace:PROC
EXTRN	_fgetc:PROC
EXTRN	__fltused:DWORD
_BSS	SEGMENT
_CurrentToken DD 01H DUP (?)
; Function compile flags: /Odtp /ZI
; File d:\projects\exteam6.3\source\gameserver\include\readscript.h
_BSS	ENDS
_TEXT	SEGMENT
tv90 = -180						; size = 4
_TempString$ = -112					; size = 100
_p$ = -12						; size = 4
_ch$ = -5						; size = 1
__$ArrayPad$ = -4					; size = 4
?GetToken@@YA?AW4SMDToken@@XZ PROC			; GetToken

; 24   : {

  00cb0	55		 push	 ebp
  00cb1	8b ec		 mov	 ebp, esp
  00cb3	81 ec b4 00 00
	00		 sub	 esp, 180		; 000000b4H
  00cb9	a1 00 00 00 00	 mov	 eax, DWORD PTR ___security_cookie
  00cbe	33 c5		 xor	 eax, ebp
  00cc0	89 45 fc	 mov	 DWORD PTR __$ArrayPad$[ebp], eax
  00cc3	53		 push	 ebx
  00cc4	56		 push	 esi
  00cc5	57		 push	 edi

; 25   : 	char ch;
; 26   : 	char* p;
; 27   : 	char TempString[100];
; 28   : 
; 29   : 	TokenString[0]=0;

  00cc6	c6 05 00 00 00
	00 00		 mov	 BYTE PTR _TokenString, 0
$LN31@GetToken:

; 30   : 
; 31   : 	do
; 32   : 	{
; 33   : 		if ((ch=fgetc(SMDFile)) == -1)

  00ccd	a1 00 00 00 00	 mov	 eax, DWORD PTR _SMDFile
  00cd2	50		 push	 eax
  00cd3	e8 00 00 00 00	 call	 _fgetc
  00cd8	83 c4 04	 add	 esp, 4
  00cdb	88 45 fb	 mov	 BYTE PTR _ch$[ebp], al
  00cde	0f be 4d fb	 movsx	 ecx, BYTE PTR _ch$[ebp]
  00ce2	83 f9 ff	 cmp	 ecx, -1
  00ce5	75 0c		 jne	 SHORT $LN28@GetToken

; 34   : 		{
; 35   : 			return END;	// End of FILE (EOF)

  00ce7	b8 02 00 00 00	 mov	 eax, 2
  00cec	e9 f7 02 00 00	 jmp	 $LN32@GetToken

; 36   : 		}
; 37   : 		else

  00cf1	eb 5b		 jmp	 SHORT $LN22@GetToken
$LN28@GetToken:

; 38   : 		{	
; 39   : 			if (ch=='/')		// this is /

  00cf3	0f be 45 fb	 movsx	 eax, BYTE PTR _ch$[ebp]
  00cf7	83 f8 2f	 cmp	 eax, 47			; 0000002fH
  00cfa	75 52		 jne	 SHORT $LN22@GetToken

; 40   : 			{
; 41   : 				if((ch=fgetc(SMDFile)) == '/')

  00cfc	a1 00 00 00 00	 mov	 eax, DWORD PTR _SMDFile
  00d01	50		 push	 eax
  00d02	e8 00 00 00 00	 call	 _fgetc
  00d07	83 c4 04	 add	 esp, 4
  00d0a	88 45 fb	 mov	 BYTE PTR _ch$[ebp], al
  00d0d	0f be 4d fb	 movsx	 ecx, BYTE PTR _ch$[ebp]
  00d11	83 f9 2f	 cmp	 ecx, 47			; 0000002fH
  00d14	75 38		 jne	 SHORT $LN22@GetToken
$LN24@GetToken:

; 42   : 				{
; 43   : 					while ((ch != '\n') && (ch != -1))	// End of Line (EOL)

  00d16	0f be 45 fb	 movsx	 eax, BYTE PTR _ch$[ebp]
  00d1a	83 f8 0a	 cmp	 eax, 10			; 0000000aH
  00d1d	74 1c		 je	 SHORT $LN23@GetToken
  00d1f	0f be 45 fb	 movsx	 eax, BYTE PTR _ch$[ebp]
  00d23	83 f8 ff	 cmp	 eax, -1
  00d26	74 13		 je	 SHORT $LN23@GetToken

; 44   : 					{
; 45   : 						ch=fgetc(SMDFile);

  00d28	a1 00 00 00 00	 mov	 eax, DWORD PTR _SMDFile
  00d2d	50		 push	 eax
  00d2e	e8 00 00 00 00	 call	 _fgetc
  00d33	83 c4 04	 add	 esp, 4
  00d36	88 45 fb	 mov	 BYTE PTR _ch$[ebp], al

; 46   : 					}

  00d39	eb db		 jmp	 SHORT $LN24@GetToken
$LN23@GetToken:

; 47   : 	
; 48   : 					if (ch == -1)

  00d3b	0f be 45 fb	 movsx	 eax, BYTE PTR _ch$[ebp]
  00d3f	83 f8 ff	 cmp	 eax, -1
  00d42	75 0a		 jne	 SHORT $LN22@GetToken

; 49   : 					{
; 50   : 						return END;	// End of FILE

  00d44	b8 02 00 00 00	 mov	 eax, 2
  00d49	e9 9a 02 00 00	 jmp	 $LN32@GetToken
$LN22@GetToken:

; 51   : 					}
; 52   : 				}
; 53   : 			}
; 54   : 		}
; 55   : 	}
; 56   : 	while (isspace(ch) != 0);

  00d4e	0f be 45 fb	 movsx	 eax, BYTE PTR _ch$[ebp]
  00d52	50		 push	 eax
  00d53	e8 00 00 00 00	 call	 _isspace
  00d58	83 c4 04	 add	 esp, 4
  00d5b	85 c0		 test	 eax, eax
  00d5d	0f 85 6a ff ff
	ff		 jne	 $LN31@GetToken

; 57   : 
; 58   : 	
; 59   : 	switch(ch)

  00d63	0f be 45 fb	 movsx	 eax, BYTE PTR _ch$[ebp]
  00d67	89 85 4c ff ff
	ff		 mov	 DWORD PTR tv90[ebp], eax
  00d6d	8b 8d 4c ff ff
	ff		 mov	 ecx, DWORD PTR tv90[ebp]
  00d73	83 e9 22	 sub	 ecx, 34			; 00000022H
  00d76	89 8d 4c ff ff
	ff		 mov	 DWORD PTR tv90[ebp], ecx
  00d7c	83 bd 4c ff ff
	ff 5b		 cmp	 DWORD PTR tv90[ebp], 91	; 0000005bH
  00d83	0f 87 a3 01 00
	00		 ja	 $LN6@GetToken
  00d89	8b 95 4c ff ff
	ff		 mov	 edx, DWORD PTR tv90[ebp]
  00d8f	0f b6 82 00 00
	00 00		 movzx	 eax, BYTE PTR $LN34@GetToken[edx]
  00d96	ff 24 85 00 00
	00 00		 jmp	 DWORD PTR $LN35@GetToken[eax*4]
$LN19@GetToken:

; 60   : 	{
; 61   : 
; 62   : 	case 0x23:	// #
; 63   : 		return CurrentToken=COMMAND;

  00d9d	c7 05 00 00 00
	00 23 00 00 00	 mov	 DWORD PTR _CurrentToken, 35 ; 00000023H
  00da7	a1 00 00 00 00	 mov	 eax, DWORD PTR _CurrentToken
  00dac	e9 37 02 00 00	 jmp	 $LN32@GetToken

; 64   : 		break;

  00db1	e9 30 02 00 00	 jmp	 $LN20@GetToken
$LN18@GetToken:

; 65   : 	
; 66   : 	case 0x3B:	// ;
; 67   : 		return CurrentToken=SEMICOLON;

  00db6	c7 05 00 00 00
	00 3b 00 00 00	 mov	 DWORD PTR _CurrentToken, 59 ; 0000003bH
  00dc0	a1 00 00 00 00	 mov	 eax, DWORD PTR _CurrentToken
  00dc5	e9 1e 02 00 00	 jmp	 $LN32@GetToken

; 68   : 		break;

  00dca	e9 17 02 00 00	 jmp	 $LN20@GetToken
$LN17@GetToken:

; 69   : 	
; 70   : 	case 0x2C:	// ,
; 71   : 
; 72   : 		return CurrentToken=COMMA;

  00dcf	c7 05 00 00 00
	00 2c 00 00 00	 mov	 DWORD PTR _CurrentToken, 44 ; 0000002cH
  00dd9	a1 00 00 00 00	 mov	 eax, DWORD PTR _CurrentToken
  00dde	e9 05 02 00 00	 jmp	 $LN32@GetToken

; 73   : 		break;

  00de3	e9 fe 01 00 00	 jmp	 $LN20@GetToken
$LN16@GetToken:

; 74   : 	
; 75   : 	case 0x7B:	// {
; 76   : 		return CurrentToken = LP;

  00de8	c7 05 00 00 00
	00 7b 00 00 00	 mov	 DWORD PTR _CurrentToken, 123 ; 0000007bH
  00df2	a1 00 00 00 00	 mov	 eax, DWORD PTR _CurrentToken
  00df7	e9 ec 01 00 00	 jmp	 $LN32@GetToken

; 77   : 		break;

  00dfc	e9 e5 01 00 00	 jmp	 $LN20@GetToken
$LN15@GetToken:

; 78   : 
; 79   : 	case 0x7D:	// }
; 80   : 		return CurrentToken = RP;

  00e01	c7 05 00 00 00
	00 7d 00 00 00	 mov	 DWORD PTR _CurrentToken, 125 ; 0000007dH
  00e0b	a1 00 00 00 00	 mov	 eax, DWORD PTR _CurrentToken
  00e10	e9 d3 01 00 00	 jmp	 $LN32@GetToken

; 81   : 		break;

  00e15	e9 cc 01 00 00	 jmp	 $LN20@GetToken
$LN14@GetToken:

; 82   : 	// Nice Index Table :)	by Deathway
; 83   : 	// Numbers Case
; 84   : 	case 0x2D:	//-
; 85   : 	case 0x2E:	//.
; 86   : 	case '0':	//0
; 87   : 	case '1':	//1
; 88   : 	case '2':	//2
; 89   : 	case '3':	//3
; 90   : 	case '4':	//4		
; 91   : 	case '5':	//5
; 92   : 	case '6':	//6
; 93   : 	case '7':	//7
; 94   : 	case '8':	//8
; 95   : 	case '9':	//9
; 96   : 		ungetc(ch, SMDFile);

  00e1a	a1 00 00 00 00	 mov	 eax, DWORD PTR _SMDFile
  00e1f	50		 push	 eax
  00e20	0f be 4d fb	 movsx	 ecx, BYTE PTR _ch$[ebp]
  00e24	51		 push	 ecx
  00e25	e8 00 00 00 00	 call	 _ungetc
  00e2a	83 c4 08	 add	 esp, 8

; 97   : 		p = TempString;

  00e2d	8d 45 90	 lea	 eax, DWORD PTR _TempString$[ebp]
  00e30	89 45 f4	 mov	 DWORD PTR _p$[ebp], eax
$LN13@GetToken:

; 98   : 		
; 99   : 		while (((ch=getc(SMDFile)) != -1) && ((ch == 0x2E) || (isdigit(ch) != 0) || (ch == 0x2D)))  // 2e '.'  2D '-'

  00e33	a1 00 00 00 00	 mov	 eax, DWORD PTR _SMDFile
  00e38	50		 push	 eax
  00e39	e8 00 00 00 00	 call	 _getc
  00e3e	83 c4 04	 add	 esp, 4
  00e41	88 45 fb	 mov	 BYTE PTR _ch$[ebp], al
  00e44	0f be 4d fb	 movsx	 ecx, BYTE PTR _ch$[ebp]
  00e48	83 f9 ff	 cmp	 ecx, -1
  00e4b	74 36		 je	 SHORT $LN12@GetToken
  00e4d	0f be 45 fb	 movsx	 eax, BYTE PTR _ch$[ebp]
  00e51	83 f8 2e	 cmp	 eax, 46			; 0000002eH
  00e54	74 1a		 je	 SHORT $LN11@GetToken
  00e56	0f be 45 fb	 movsx	 eax, BYTE PTR _ch$[ebp]
  00e5a	50		 push	 eax
  00e5b	e8 00 00 00 00	 call	 _isdigit
  00e60	83 c4 04	 add	 esp, 4
  00e63	85 c0		 test	 eax, eax
  00e65	75 09		 jne	 SHORT $LN11@GetToken
  00e67	0f be 45 fb	 movsx	 eax, BYTE PTR _ch$[ebp]
  00e6b	83 f8 2d	 cmp	 eax, 45			; 0000002dH
  00e6e	75 13		 jne	 SHORT $LN12@GetToken
$LN11@GetToken:

; 100  : 		{
; 101  : 			*p = ch;	// Construct a String

  00e70	8b 45 f4	 mov	 eax, DWORD PTR _p$[ebp]
  00e73	8a 4d fb	 mov	 cl, BYTE PTR _ch$[ebp]
  00e76	88 08		 mov	 BYTE PTR [eax], cl

; 102  : 			p++;

  00e78	8b 45 f4	 mov	 eax, DWORD PTR _p$[ebp]
  00e7b	83 c0 01	 add	 eax, 1
  00e7e	89 45 f4	 mov	 DWORD PTR _p$[ebp], eax

; 103  : 		}		

  00e81	eb b0		 jmp	 SHORT $LN13@GetToken
$LN12@GetToken:

; 104  : 		*p = 0;

  00e83	8b 45 f4	 mov	 eax, DWORD PTR _p$[ebp]
  00e86	c6 00 00	 mov	 BYTE PTR [eax], 0

; 105  : 		TokenNumber = atof( TempString);	// Select the first Byte as Main ID

  00e89	8d 45 90	 lea	 eax, DWORD PTR _TempString$[ebp]
  00e8c	50		 push	 eax
  00e8d	e8 00 00 00 00	 call	 _atof
  00e92	83 c4 04	 add	 esp, 4
  00e95	d9 1d 00 00 00
	00		 fstp	 DWORD PTR _TokenNumber

; 106  : 		return CurrentToken  = NUMBER ;

  00e9b	c7 05 00 00 00
	00 01 00 00 00	 mov	 DWORD PTR _CurrentToken, 1
  00ea5	a1 00 00 00 00	 mov	 eax, DWORD PTR _CurrentToken
  00eaa	e9 39 01 00 00	 jmp	 $LN32@GetToken

; 107  : 		break;

  00eaf	e9 32 01 00 00	 jmp	 $LN20@GetToken
$LN10@GetToken:

; 108  : 
; 109  : 	case '\"':	// "	String Case
; 110  : 		p=&TokenString[0];

  00eb4	c7 45 f4 00 00
	00 00		 mov	 DWORD PTR _p$[ebp], OFFSET _TokenString
$LN9@GetToken:

; 111  : 		
; 112  : 		while (((ch=getc(SMDFile)) != -1 ) && (ch != 0x22))	// nice

  00ebb	a1 00 00 00 00	 mov	 eax, DWORD PTR _SMDFile
  00ec0	50		 push	 eax
  00ec1	e8 00 00 00 00	 call	 _getc
  00ec6	83 c4 04	 add	 esp, 4
  00ec9	88 45 fb	 mov	 BYTE PTR _ch$[ebp], al
  00ecc	0f be 4d fb	 movsx	 ecx, BYTE PTR _ch$[ebp]
  00ed0	83 f9 ff	 cmp	 ecx, -1
  00ed3	74 1c		 je	 SHORT $LN8@GetToken
  00ed5	0f be 45 fb	 movsx	 eax, BYTE PTR _ch$[ebp]
  00ed9	83 f8 22	 cmp	 eax, 34			; 00000022H
  00edc	74 13		 je	 SHORT $LN8@GetToken

; 113  : 		{
; 114  : 			*p = ch;

  00ede	8b 45 f4	 mov	 eax, DWORD PTR _p$[ebp]
  00ee1	8a 4d fb	 mov	 cl, BYTE PTR _ch$[ebp]
  00ee4	88 08		 mov	 BYTE PTR [eax], cl

; 115  : 			p++;

  00ee6	8b 45 f4	 mov	 eax, DWORD PTR _p$[ebp]
  00ee9	83 c0 01	 add	 eax, 1
  00eec	89 45 f4	 mov	 DWORD PTR _p$[ebp], eax

; 116  : 		}

  00eef	eb ca		 jmp	 SHORT $LN9@GetToken
$LN8@GetToken:

; 117  : 		if (ch != 0x22 )

  00ef1	0f be 45 fb	 movsx	 eax, BYTE PTR _ch$[ebp]
  00ef5	83 f8 22	 cmp	 eax, 34			; 00000022H
  00ef8	74 13		 je	 SHORT $LN7@GetToken

; 118  : 		{
; 119  : 			ungetc(ch, SMDFile);

  00efa	a1 00 00 00 00	 mov	 eax, DWORD PTR _SMDFile
  00eff	50		 push	 eax
  00f00	0f be 4d fb	 movsx	 ecx, BYTE PTR _ch$[ebp]
  00f04	51		 push	 ecx
  00f05	e8 00 00 00 00	 call	 _ungetc
  00f0a	83 c4 08	 add	 esp, 8
$LN7@GetToken:

; 120  : 		}
; 121  : 		*p = 0;

  00f0d	8b 45 f4	 mov	 eax, DWORD PTR _p$[ebp]
  00f10	c6 00 00	 mov	 BYTE PTR [eax], 0

; 122  : 		return CurrentToken = NAME;

  00f13	c7 05 00 00 00
	00 00 00 00 00	 mov	 DWORD PTR _CurrentToken, 0
  00f1d	a1 00 00 00 00	 mov	 eax, DWORD PTR _CurrentToken
  00f22	e9 c1 00 00 00	 jmp	 $LN32@GetToken

; 123  : 		break;

  00f27	e9 ba 00 00 00	 jmp	 $LN20@GetToken
$LN6@GetToken:

; 124  : 
; 125  : 	default:	// Others
; 126  : 		if (isalpha(ch))

  00f2c	0f be 45 fb	 movsx	 eax, BYTE PTR _ch$[ebp]
  00f30	50		 push	 eax
  00f31	e8 00 00 00 00	 call	 _isalpha
  00f36	83 c4 04	 add	 esp, 4
  00f39	85 c0		 test	 eax, eax
  00f3b	0f 84 94 00 00
	00		 je	 $LN5@GetToken

; 127  : 		{
; 128  : 			p=&TokenString[0];

  00f41	c7 45 f4 00 00
	00 00		 mov	 DWORD PTR _p$[ebp], OFFSET _TokenString

; 129  : 			*p=ch;

  00f48	8b 45 f4	 mov	 eax, DWORD PTR _p$[ebp]
  00f4b	8a 4d fb	 mov	 cl, BYTE PTR _ch$[ebp]
  00f4e	88 08		 mov	 BYTE PTR [eax], cl

; 130  : 			p++;

  00f50	8b 45 f4	 mov	 eax, DWORD PTR _p$[ebp]
  00f53	83 c0 01	 add	 eax, 1
  00f56	89 45 f4	 mov	 DWORD PTR _p$[ebp], eax
$LN4@GetToken:

; 131  : 
; 132  : 			while ( ((ch=getc(SMDFile)) != -1) && ( (ch == 0x2E) || (ch == 0x5F) || (isalnum(ch) != 0) ) )

  00f59	a1 00 00 00 00	 mov	 eax, DWORD PTR _SMDFile
  00f5e	50		 push	 eax
  00f5f	e8 00 00 00 00	 call	 _getc
  00f64	83 c4 04	 add	 esp, 4
  00f67	88 45 fb	 mov	 BYTE PTR _ch$[ebp], al
  00f6a	0f be 4d fb	 movsx	 ecx, BYTE PTR _ch$[ebp]
  00f6e	83 f9 ff	 cmp	 ecx, -1
  00f71	74 36		 je	 SHORT $LN3@GetToken
  00f73	0f be 45 fb	 movsx	 eax, BYTE PTR _ch$[ebp]
  00f77	83 f8 2e	 cmp	 eax, 46			; 0000002eH
  00f7a	74 1a		 je	 SHORT $LN2@GetToken
  00f7c	0f be 45 fb	 movsx	 eax, BYTE PTR _ch$[ebp]
  00f80	83 f8 5f	 cmp	 eax, 95			; 0000005fH
  00f83	74 11		 je	 SHORT $LN2@GetToken
  00f85	0f be 45 fb	 movsx	 eax, BYTE PTR _ch$[ebp]
  00f89	50		 push	 eax
  00f8a	e8 00 00 00 00	 call	 _isalnum
  00f8f	83 c4 04	 add	 esp, 4
  00f92	85 c0		 test	 eax, eax
  00f94	74 13		 je	 SHORT $LN3@GetToken
$LN2@GetToken:

; 133  : 			{
; 134  : 				*p=ch;

  00f96	8b 45 f4	 mov	 eax, DWORD PTR _p$[ebp]
  00f99	8a 4d fb	 mov	 cl, BYTE PTR _ch$[ebp]
  00f9c	88 08		 mov	 BYTE PTR [eax], cl

; 135  : 				p++;

  00f9e	8b 45 f4	 mov	 eax, DWORD PTR _p$[ebp]
  00fa1	83 c0 01	 add	 eax, 1
  00fa4	89 45 f4	 mov	 DWORD PTR _p$[ebp], eax

; 136  : 				
; 137  : 			}

  00fa7	eb b0		 jmp	 SHORT $LN4@GetToken
$LN3@GetToken:

; 138  : 
; 139  : 			ungetc(ch, SMDFile);

  00fa9	a1 00 00 00 00	 mov	 eax, DWORD PTR _SMDFile
  00fae	50		 push	 eax
  00faf	0f be 4d fb	 movsx	 ecx, BYTE PTR _ch$[ebp]
  00fb3	51		 push	 ecx
  00fb4	e8 00 00 00 00	 call	 _ungetc
  00fb9	83 c4 08	 add	 esp, 8

; 140  : 			*p=0;

  00fbc	8b 45 f4	 mov	 eax, DWORD PTR _p$[ebp]
  00fbf	c6 00 00	 mov	 BYTE PTR [eax], 0

; 141  : 			CurrentToken=NAME;

  00fc2	c7 05 00 00 00
	00 00 00 00 00	 mov	 DWORD PTR _CurrentToken, 0

; 142  : 			return CurrentToken;

  00fcc	a1 00 00 00 00	 mov	 eax, DWORD PTR _CurrentToken
  00fd1	eb 15		 jmp	 SHORT $LN32@GetToken

; 143  : 		}
; 144  : 		else

  00fd3	eb 11		 jmp	 SHORT $LN1@GetToken
$LN5@GetToken:

; 145  : 		{
; 146  : 			return CurrentToken = SMD_ERROR; // '<'

  00fd5	c7 05 00 00 00
	00 3c 00 00 00	 mov	 DWORD PTR _CurrentToken, 60 ; 0000003cH
  00fdf	a1 00 00 00 00	 mov	 eax, DWORD PTR _CurrentToken
  00fe4	eb 02		 jmp	 SHORT $LN32@GetToken
$LN1@GetToken:
$LN20@GetToken:

; 147  : 		}
; 148  : 		break;
; 149  : 
; 150  : 	}
; 151  : 
; 152  : 	return NAME;

  00fe6	33 c0		 xor	 eax, eax
$LN32@GetToken:

; 153  : }

  00fe8	5f		 pop	 edi
  00fe9	5e		 pop	 esi
  00fea	5b		 pop	 ebx
  00feb	8b 4d fc	 mov	 ecx, DWORD PTR __$ArrayPad$[ebp]
  00fee	33 cd		 xor	 ecx, ebp
  00ff0	e8 00 00 00 00	 call	 @__security_check_cookie@4
  00ff5	8b e5		 mov	 esp, ebp
  00ff7	5d		 pop	 ebp
  00ff8	c3		 ret	 0
  00ff9	8d 49 00	 npad	 3
$LN35@GetToken:
  00ffc	00 00 00 00	 DD	 $LN10@GetToken
  01000	00 00 00 00	 DD	 $LN19@GetToken
  01004	00 00 00 00	 DD	 $LN17@GetToken
  01008	00 00 00 00	 DD	 $LN14@GetToken
  0100c	00 00 00 00	 DD	 $LN18@GetToken
  01010	00 00 00 00	 DD	 $LN16@GetToken
  01014	00 00 00 00	 DD	 $LN15@GetToken
  01018	00 00 00 00	 DD	 $LN6@GetToken
$LN34@GetToken:
  0101c	00		 DB	 0
  0101d	01		 DB	 1
  0101e	07		 DB	 7
  0101f	07		 DB	 7
  01020	07		 DB	 7
  01021	07		 DB	 7
  01022	07		 DB	 7
  01023	07		 DB	 7
  01024	07		 DB	 7
  01025	07		 DB	 7
  01026	02		 DB	 2
  01027	03		 DB	 3
  01028	03		 DB	 3
  01029	07		 DB	 7
  0102a	03		 DB	 3
  0102b	03		 DB	 3
  0102c	03		 DB	 3
  0102d	03		 DB	 3
  0102e	03		 DB	 3
  0102f	03		 DB	 3
  01030	03		 DB	 3
  01031	03		 DB	 3
  01032	03		 DB	 3
  01033	03		 DB	 3
  01034	07		 DB	 7
  01035	04		 DB	 4
  01036	07		 DB	 7
  01037	07		 DB	 7
  01038	07		 DB	 7
  01039	07		 DB	 7
  0103a	07		 DB	 7
  0103b	07		 DB	 7
  0103c	07		 DB	 7
  0103d	07		 DB	 7
  0103e	07		 DB	 7
  0103f	07		 DB	 7
  01040	07		 DB	 7
  01041	07		 DB	 7
  01042	07		 DB	 7
  01043	07		 DB	 7
  01044	07		 DB	 7
  01045	07		 DB	 7
  01046	07		 DB	 7
  01047	07		 DB	 7
  01048	07		 DB	 7
  01049	07		 DB	 7
  0104a	07		 DB	 7
  0104b	07		 DB	 7
  0104c	07		 DB	 7
  0104d	07		 DB	 7
  0104e	07		 DB	 7
  0104f	07		 DB	 7
  01050	07		 DB	 7
  01051	07		 DB	 7
  01052	07		 DB	 7
  01053	07		 DB	 7
  01054	07		 DB	 7
  01055	07		 DB	 7
  01056	07		 DB	 7
  01057	07		 DB	 7
  01058	07		 DB	 7
  01059	07		 DB	 7
  0105a	07		 DB	 7
  0105b	07		 DB	 7
  0105c	07		 DB	 7
  0105d	07		 DB	 7
  0105e	07		 DB	 7
  0105f	07		 DB	 7
  01060	07		 DB	 7
  01061	07		 DB	 7
  01062	07		 DB	 7
  01063	07		 DB	 7
  01064	07		 DB	 7
  01065	07		 DB	 7
  01066	07		 DB	 7
  01067	07		 DB	 7
  01068	07		 DB	 7
  01069	07		 DB	 7
  0106a	07		 DB	 7
  0106b	07		 DB	 7
  0106c	07		 DB	 7
  0106d	07		 DB	 7
  0106e	07		 DB	 7
  0106f	07		 DB	 7
  01070	07		 DB	 7
  01071	07		 DB	 7
  01072	07		 DB	 7
  01073	07		 DB	 7
  01074	07		 DB	 7
  01075	05		 DB	 5
  01076	07		 DB	 7
  01077	06		 DB	 6
?GetToken@@YA?AW4SMDToken@@XZ ENDP			; GetToken
_TEXT	ENDS
PUBLIC	?CheckMapCanMove@CMapServerManager@@QAEHH@Z	; CMapServerManager::CheckMapCanMove
EXTRN	?MapNumberCheck@@YAHH@Z:PROC			; MapNumberCheck
; Function compile flags: /Odtp /ZI
; File d:\projects\exteam6.3\source\gameserver\gameserver\mapservermanager.cpp
_TEXT	SEGMENT
_sMAP_MOVE_INFO$ = -12					; size = 2
_lpMapSvrData$ = -8					; size = 4
_this$ = -4						; size = 4
_iMAP_NUM$ = 8						; size = 4
?CheckMapCanMove@CMapServerManager@@QAEHH@Z PROC	; CMapServerManager::CheckMapCanMove
; _this$ = ecx

; 344  : {

  01080	55		 push	 ebp
  01081	8b ec		 mov	 ebp, esp
  01083	83 ec 4c	 sub	 esp, 76			; 0000004cH
  01086	53		 push	 ebx
  01087	56		 push	 esi
  01088	57		 push	 edi
  01089	89 4d fc	 mov	 DWORD PTR _this$[ebp], ecx

; 345  : 	if ( MapNumberCheck(iMAP_NUM) == 0 )

  0108c	8b 45 08	 mov	 eax, DWORD PTR _iMAP_NUM$[ebp]
  0108f	50		 push	 eax
  01090	e8 00 00 00 00	 call	 ?MapNumberCheck@@YAHH@Z	; MapNumberCheck
  01095	83 c4 04	 add	 esp, 4
  01098	85 c0		 test	 eax, eax
  0109a	75 04		 jne	 SHORT $LN4@CheckMapCa

; 346  : 	{
; 347  : 		return FALSE;

  0109c	33 c0		 xor	 eax, eax
  0109e	eb 44		 jmp	 SHORT $LN5@CheckMapCa
$LN4@CheckMapCa:

; 348  : 	}
; 349  : 
; 350  : 	_MAPSVR_DATA * lpMapSvrData = this->m_lpThisMapSvrData;

  010a0	8b 45 fc	 mov	 eax, DWORD PTR _this$[ebp]
  010a3	8b 88 c0 4b 01
	00		 mov	 ecx, DWORD PTR [eax+84928]
  010a9	89 4d f8	 mov	 DWORD PTR _lpMapSvrData$[ebp], ecx

; 351  : 
; 352  : 	if ( lpMapSvrData == NULL )

  010ac	83 7d f8 00	 cmp	 DWORD PTR _lpMapSvrData$[ebp], 0
  010b0	75 04		 jne	 SHORT $LN3@CheckMapCa

; 353  : 	{
; 354  : 		return FALSE;

  010b2	33 c0		 xor	 eax, eax
  010b4	eb 2e		 jmp	 SHORT $LN5@CheckMapCa
$LN3@CheckMapCa:

; 355  : 	}
; 356  : 
; 357  : 	if ( lpMapSvrData->m_bIN_USE == FALSE )

  010b6	8b 45 f8	 mov	 eax, DWORD PTR _lpMapSvrData$[ebp]
  010b9	83 78 04 00	 cmp	 DWORD PTR [eax+4], 0
  010bd	75 04		 jne	 SHORT $LN2@CheckMapCa

; 358  : 	{
; 359  : 		return FALSE;

  010bf	33 c0		 xor	 eax, eax
  010c1	eb 21		 jmp	 SHORT $LN5@CheckMapCa
$LN2@CheckMapCa:

; 360  : 	}
; 361  : 
; 362  : 	short sMAP_MOVE_INFO = lpMapSvrData->m_sMAP_MOVE[iMAP_NUM];

  010c3	8b 45 08	 mov	 eax, DWORD PTR _iMAP_NUM$[ebp]
  010c6	8b 4d f8	 mov	 ecx, DWORD PTR _lpMapSvrData$[ebp]
  010c9	66 8b 54 41 1e	 mov	 dx, WORD PTR [ecx+eax*2+30]
  010ce	66 89 55 f4	 mov	 WORD PTR _sMAP_MOVE_INFO$[ebp], dx

; 363  : 
; 364  : 	if ( sMAP_MOVE_INFO != -3 )

  010d2	0f bf 45 f4	 movsx	 eax, WORD PTR _sMAP_MOVE_INFO$[ebp]
  010d6	83 f8 fd	 cmp	 eax, -3			; fffffffdH
  010d9	74 04		 je	 SHORT $LN1@CheckMapCa

; 365  : 	{
; 366  : 		return FALSE;

  010db	33 c0		 xor	 eax, eax
  010dd	eb 05		 jmp	 SHORT $LN5@CheckMapCa
$LN1@CheckMapCa:

; 367  : 	}
; 368  : 
; 369  : 	return TRUE;

  010df	b8 01 00 00 00	 mov	 eax, 1
$LN5@CheckMapCa:

; 370  : }

  010e4	5f		 pop	 edi
  010e5	5e		 pop	 esi
  010e6	5b		 pop	 ebx
  010e7	8b e5		 mov	 esp, ebp
  010e9	5d		 pop	 ebp
  010ea	c2 04 00	 ret	 4
?CheckMapCanMove@CMapServerManager@@QAEHH@Z ENDP	; CMapServerManager::CheckMapCanMove
_TEXT	ENDS
PUBLIC	??_C@_0FE@HMFMELGB@?$FLMapServerMng?$FN?5CheckMoveMapSvr?$CI?$CJ@ ; `string'
PUBLIC	??_C@_0GK@EEMBMNOK@?$FLMapServerMng?$FN?5CheckMoveMapSvr?$CI?$CJ@ ; `string'
PUBLIC	??1?$vector@PAU_MAPSVR_DATA@@V?$allocator@PAU_MAPSVR_DATA@@@std@@@std@@QAE@XZ ; std::vector<_MAPSVR_DATA *,std::allocator<_MAPSVR_DATA *> >::~vector<_MAPSVR_DATA *,std::allocator<_MAPSVR_DATA *> >
PUBLIC	??_C@_0GJ@HAGGDALD@?$FLMapServerMng?$FN?5CheckMoveMapSvr?$CI?$CJ@ ; `string'
PUBLIC	??A?$vector@PAU_MAPSVR_DATA@@V?$allocator@PAU_MAPSVR_DATA@@@std@@@std@@QAEAAPAU_MAPSVR_DATA@@I@Z ; std::vector<_MAPSVR_DATA *,std::allocator<_MAPSVR_DATA *> >::operator[]
PUBLIC	?size@?$vector@PAU_MAPSVR_DATA@@V?$allocator@PAU_MAPSVR_DATA@@@std@@@std@@QBEIXZ ; std::vector<_MAPSVR_DATA *,std::allocator<_MAPSVR_DATA *> >::size
PUBLIC	?empty@?$vector@PAU_MAPSVR_DATA@@V?$allocator@PAU_MAPSVR_DATA@@@std@@@std@@QBE_NXZ ; std::vector<_MAPSVR_DATA *,std::allocator<_MAPSVR_DATA *> >::empty
PUBLIC	?push_back@?$vector@PAU_MAPSVR_DATA@@V?$allocator@PAU_MAPSVR_DATA@@@std@@@std@@QAEXABQAU_MAPSVR_DATA@@@Z ; std::vector<_MAPSVR_DATA *,std::allocator<_MAPSVR_DATA *> >::push_back
PUBLIC	??E?$_Tree_iterator@V?$_Tree_val@V?$_Tmap_traits@HPAU_MAPSVR_DATA@@U?$less@H@std@@V?$allocator@U?$pair@$$CBHPAU_MAPSVR_DATA@@@std@@@3@$0A@@std@@@std@@@std@@QAE?AV01@H@Z ; std::_Tree_iterator<std::_Tree_val<std::_Tmap_traits<int,_MAPSVR_DATA *,std::less<int>,std::allocator<std::pair<int const ,_MAPSVR_DATA *> >,0> > >::operator++
PUBLIC	?begin@?$_Tree@V?$_Tmap_traits@HPAU_MAPSVR_DATA@@U?$less@H@std@@V?$allocator@U?$pair@$$CBHPAU_MAPSVR_DATA@@@std@@@3@$0A@@std@@@std@@QAE?AV?$_Tree_iterator@V?$_Tree_val@V?$_Tmap_traits@HPAU_MAPSVR_DATA@@U?$less@H@std@@V?$allocator@U?$pair@$$CBHPAU_MAPSVR_DATA@@@std@@@3@$0A@@std@@@std@@@2@XZ ; std::_Tree<std::_Tmap_traits<int,_MAPSVR_DATA *,std::less<int>,std::allocator<std::pair<int const ,_MAPSVR_DATA *> >,0> >::begin
PUBLIC	??0?$vector@PAU_MAPSVR_DATA@@V?$allocator@PAU_MAPSVR_DATA@@@std@@@std@@QAE@XZ ; std::vector<_MAPSVR_DATA *,std::allocator<_MAPSVR_DATA *> >::vector<_MAPSVR_DATA *,std::allocator<_MAPSVR_DATA *> >
PUBLIC	??_C@_0FC@MPBANOIK@?$FLMapServerMng?$FN?5CheckMoveMapSvr?$CI?$CJ@ ; `string'
PUBLIC	??_C@_0EM@BGAAFCHD@?$FLMapServerMng?$FN?5CheckMoveMapSvr?$CI?$CJ@ ; `string'
PUBLIC	??_C@_0EJ@EFCOMEEG@?$FLMapServerMng?$FN?5CheckMoveMapSvr?$CI?$CJ@ ; `string'
PUBLIC	?CheckMoveMapSvr@CMapServerManager@@QAEFHHF@Z	; CMapServerManager::CheckMoveMapSvr
EXTRN	?LogAddTD@@3P6AXPADZZA:DWORD			; LogAddTD
EXTRN	_rand:PROC
EXTRN	?LogAddC@@3P6AXEPADZZA:DWORD			; LogAddC
EXTRN	?gObj@@3PAUOBJECTSTRUCT@@A:DWORD		; gObj
EXTRN	?gObjIsConnected@@YAHH@Z:PROC			; gObjIsConnected
;	COMDAT ??_C@_0FE@HMFMELGB@?$FLMapServerMng?$FN?5CheckMoveMapSvr?$CI?$CJ@
CONST	SEGMENT
??_C@_0FE@HMFMELGB@?$FLMapServerMng?$FN?5CheckMoveMapSvr?$CI?$CJ@ DB '[Ma'
	DB	'pServerMng] CheckMoveMapSvr() - Unknown MapMove Info [%s][%s]'
	DB	' : MAP-%d / INFO-%d', 00H			; `string'
CONST	ENDS
;	COMDAT ??_C@_0GK@EEMBMNOK@?$FLMapServerMng?$FN?5CheckMoveMapSvr?$CI?$CJ@
CONST	SEGMENT
??_C@_0GK@EEMBMNOK@?$FLMapServerMng?$FN?5CheckMoveMapSvr?$CI?$CJ@ DB '[Ma'
	DB	'pServerMng] CheckMoveMapSvr() - MapServer Check OK [%s][%s] :'
	DB	' MAP-%d / SVR-%d (State Map:%d X:%d Y:%d)', 00H ; `string'
CONST	ENDS
;	COMDAT ??_C@_0GJ@HAGGDALD@?$FLMapServerMng?$FN?5CheckMoveMapSvr?$CI?$CJ@
CONST	SEGMENT
??_C@_0GJ@HAGGDALD@?$FLMapServerMng?$FN?5CheckMoveMapSvr?$CI?$CJ@ DB '[Ma'
	DB	'pServerMng] CheckMoveMapSvr() - MapServer Check OK [%s][%s] :'
	DB	' MAP-%d / SVR-%d(State Map:%d X:%d Y:%d)', 00H ; `string'
CONST	ENDS
;	COMDAT ??_C@_0FC@MPBANOIK@?$FLMapServerMng?$FN?5CheckMoveMapSvr?$CI?$CJ@
CONST	SEGMENT
??_C@_0FC@MPBANOIK@?$FLMapServerMng?$FN?5CheckMoveMapSvr?$CI?$CJ@ DB '[Ma'
	DB	'pServerMng] CheckMoveMapSvr() - lpMapSvrData->m_bIN_USE == FA'
	DB	'LSE [%s][%s] : %d', 00H			; `string'
CONST	ENDS
;	COMDAT ??_C@_0EM@BGAAFCHD@?$FLMapServerMng?$FN?5CheckMoveMapSvr?$CI?$CJ@
CONST	SEGMENT
??_C@_0EM@BGAAFCHD@?$FLMapServerMng?$FN?5CheckMoveMapSvr?$CI?$CJ@ DB '[Ma'
	DB	'pServerMng] CheckMoveMapSvr() - m_lpThisMapSvrData == NULL [%'
	DB	's][%s] : %d', 00H				; `string'
CONST	ENDS
;	COMDAT ??_C@_0EJ@EFCOMEEG@?$FLMapServerMng?$FN?5CheckMoveMapSvr?$CI?$CJ@
CONST	SEGMENT
??_C@_0EJ@EFCOMEEG@?$FLMapServerMng?$FN?5CheckMoveMapSvr?$CI?$CJ@ DB '[Ma'
	DB	'pServerMng] CheckMoveMapSvr() - Map Index doesn''t exist [%s]'
	DB	'[%s] : %d', 00H				; `string'
CONST	ENDS
xdata$x	SEGMENT
__unwindtable$?CheckMoveMapSvr@CMapServerManager@@QAEFHHF@Z DD 0ffffffffH
	DD	FLAT:__unwindfunclet$?CheckMoveMapSvr@CMapServerManager@@QAEFHHF@Z$0
__ehfuncinfo$?CheckMoveMapSvr@CMapServerManager@@QAEFHHF@Z DD 019930522H
	DD	01H
	DD	FLAT:__unwindtable$?CheckMoveMapSvr@CMapServerManager@@QAEFHHF@Z
	DD	2 DUP(00H)
	DD	2 DUP(00H)
	DD	00H
	DD	01H
; Function compile flags: /Odtp /ZI
xdata$x	ENDS
_TEXT	SEGMENT
tv145 = -220						; size = 4
$T230599 = -216						; size = 4
$T230600 = -212						; size = 4
$T230601 = -208						; size = 4
$T230602 = -204						; size = 4
$T230603 = -198						; size = 2
$T230604 = -196						; size = 4
$T230605 = -192						; size = 4
$T230606 = -188						; size = 4
$T230607 = -184						; size = 4
$T230608 = -180						; size = 4
$T230609 = -176						; size = 4
$T230610 = -172						; size = 4
$T230611 = -168						; size = 4
$T230612 = -164						; size = 4
_lpTempMapSvrData$228990 = -96				; size = 4
_sDestServerCode$228983 = -92				; size = 2
_it$228977 = -88					; size = 4
_lpDestMapSvrData$228963 = -84				; size = 4
_lpTempMapSvrData$228956 = -80				; size = 4
_it$228949 = -76					; size = 4
_sDestServerCode$228935 = -72				; size = 2
_it$228928 = -68					; size = 4
_lpDestMapSvrData$228913 = -64				; size = 4
_sDestServerCode$228907 = -60				; size = 2
_lpTempMapSvrData$228905 = -56				; size = 4
_it$228898 = -52					; size = 4
_vtMapSvrData$228884 = -48				; size = 16
_it$228534 = -32					; size = 4
_lpDestMapSvrData$228519 = -28				; size = 4
_sMAP_MOVE_INFO$ = -24					; size = 2
_lpMapSvrData$ = -20					; size = 4
_this$ = -16						; size = 4
__$EHRec$ = -12						; size = 12
_iIndex$ = 8						; size = 4
_iMAP_NUM$ = 12						; size = 4
_sSVR_CODE_BEFORE$ = 16					; size = 2
?CheckMoveMapSvr@CMapServerManager@@QAEFHHF@Z PROC	; CMapServerManager::CheckMoveMapSvr
; _this$ = ecx

; 377  : {

  010f0	55		 push	 ebp
  010f1	8b ec		 mov	 ebp, esp
  010f3	6a ff		 push	 -1
  010f5	68 00 00 00 00	 push	 __ehhandler$?CheckMoveMapSvr@CMapServerManager@@QAEFHHF@Z
  010fa	64 a1 00 00 00
	00		 mov	 eax, DWORD PTR fs:0
  01100	50		 push	 eax
  01101	81 ec d0 00 00
	00		 sub	 esp, 208		; 000000d0H
  01107	53		 push	 ebx
  01108	56		 push	 esi
  01109	57		 push	 edi
  0110a	a1 00 00 00 00	 mov	 eax, DWORD PTR ___security_cookie
  0110f	33 c5		 xor	 eax, ebp
  01111	50		 push	 eax
  01112	8d 45 f4	 lea	 eax, DWORD PTR __$EHRec$[ebp]
  01115	64 a3 00 00 00
	00		 mov	 DWORD PTR fs:0, eax
  0111b	89 4d f0	 mov	 DWORD PTR _this$[ebp], ecx

; 378  : 	if ( this->m_bMapDataLoadOk == FALSE )

  0111e	8b 45 f0	 mov	 eax, DWORD PTR _this$[ebp]
  01121	83 78 04 00	 cmp	 DWORD PTR [eax+4], 0
  01125	75 0b		 jne	 SHORT $LN39@CheckMoveM

; 379  : 		return gGameServerCode;

  01127	66 a1 00 00 00
	00		 mov	 ax, WORD PTR ?gGameServerCode@@3FA ; gGameServerCode
  0112d	e9 99 08 00 00	 jmp	 $LN40@CheckMoveM
$LN39@CheckMoveM:

; 380  : 
; 381  : 	if ( !gObjIsConnected(iIndex))

  01132	8b 45 08	 mov	 eax, DWORD PTR _iIndex$[ebp]
  01135	50		 push	 eax
  01136	e8 00 00 00 00	 call	 ?gObjIsConnected@@YAHH@Z ; gObjIsConnected
  0113b	83 c4 04	 add	 esp, 4
  0113e	85 c0		 test	 eax, eax
  01140	75 0b		 jne	 SHORT $LN38@CheckMoveM

; 382  : 		return gGameServerCode;

  01142	66 a1 00 00 00
	00		 mov	 ax, WORD PTR ?gGameServerCode@@3FA ; gGameServerCode
  01148	e9 7e 08 00 00	 jmp	 $LN40@CheckMoveM
$LN38@CheckMoveM:

; 383  : 
; 384  : 	if ( !MapNumberCheck(iMAP_NUM))

  0114d	8b 45 0c	 mov	 eax, DWORD PTR _iMAP_NUM$[ebp]
  01150	50		 push	 eax
  01151	e8 00 00 00 00	 call	 ?MapNumberCheck@@YAHH@Z	; MapNumberCheck
  01156	83 c4 04	 add	 esp, 4
  01159	85 c0		 test	 eax, eax
  0115b	75 47		 jne	 SHORT $LN37@CheckMoveM

; 385  : 	{
; 386  : 		LogAddC(2, "[MapServerMng] CheckMoveMapSvr() - Map Index doesn't exist [%s][%s] : %d",
; 387  : 			gObj[iIndex].AccountID, gObj[iIndex].Name, iMAP_NUM);

  0115d	8b 45 0c	 mov	 eax, DWORD PTR _iMAP_NUM$[ebp]
  01160	50		 push	 eax
  01161	8b 4d 08	 mov	 ecx, DWORD PTR _iIndex$[ebp]
  01164	69 c9 38 2b 00
	00		 imul	 ecx, 11064		; 00002b38H
  0116a	8b 15 00 00 00
	00		 mov	 edx, DWORD PTR ?gObj@@3PAUOBJECTSTRUCT@@A ; gObj
  01170	8d 44 0a 77	 lea	 eax, DWORD PTR [edx+ecx+119]
  01174	50		 push	 eax
  01175	8b 4d 08	 mov	 ecx, DWORD PTR _iIndex$[ebp]
  01178	69 c9 38 2b 00
	00		 imul	 ecx, 11064		; 00002b38H
  0117e	8b 15 00 00 00
	00		 mov	 edx, DWORD PTR ?gObj@@3PAUOBJECTSTRUCT@@A ; gObj
  01184	8d 44 0a 6c	 lea	 eax, DWORD PTR [edx+ecx+108]
  01188	50		 push	 eax
  01189	68 00 00 00 00	 push	 OFFSET ??_C@_0EJ@EFCOMEEG@?$FLMapServerMng?$FN?5CheckMoveMapSvr?$CI?$CJ@
  0118e	6a 02		 push	 2
  01190	ff 15 00 00 00
	00		 call	 DWORD PTR ?LogAddC@@3P6AXEPADZZA ; LogAddC
  01196	83 c4 14	 add	 esp, 20			; 00000014H

; 388  : 
; 389  : 		return gGameServerCode;

  01199	66 a1 00 00 00
	00		 mov	 ax, WORD PTR ?gGameServerCode@@3FA ; gGameServerCode
  0119f	e9 27 08 00 00	 jmp	 $LN40@CheckMoveM
$LN37@CheckMoveM:

; 390  : 	}
; 391  : 
; 392  : 	_MAPSVR_DATA * lpMapSvrData = this->m_lpThisMapSvrData;

  011a4	8b 45 f0	 mov	 eax, DWORD PTR _this$[ebp]
  011a7	8b 88 c0 4b 01
	00		 mov	 ecx, DWORD PTR [eax+84928]
  011ad	89 4d ec	 mov	 DWORD PTR _lpMapSvrData$[ebp], ecx

; 393  : 
; 394  : 	if ( lpMapSvrData == NULL )

  011b0	83 7d ec 00	 cmp	 DWORD PTR _lpMapSvrData$[ebp], 0
  011b4	75 47		 jne	 SHORT $LN36@CheckMoveM

; 395  : 	{
; 396  : 		LogAddC(2, "[MapServerMng] CheckMoveMapSvr() - m_lpThisMapSvrData == NULL [%s][%s] : %d",
; 397  : 			gObj[iIndex].AccountID, gObj[iIndex].Name, iMAP_NUM);

  011b6	8b 45 0c	 mov	 eax, DWORD PTR _iMAP_NUM$[ebp]
  011b9	50		 push	 eax
  011ba	8b 4d 08	 mov	 ecx, DWORD PTR _iIndex$[ebp]
  011bd	69 c9 38 2b 00
	00		 imul	 ecx, 11064		; 00002b38H
  011c3	8b 15 00 00 00
	00		 mov	 edx, DWORD PTR ?gObj@@3PAUOBJECTSTRUCT@@A ; gObj
  011c9	8d 44 0a 77	 lea	 eax, DWORD PTR [edx+ecx+119]
  011cd	50		 push	 eax
  011ce	8b 4d 08	 mov	 ecx, DWORD PTR _iIndex$[ebp]
  011d1	69 c9 38 2b 00
	00		 imul	 ecx, 11064		; 00002b38H
  011d7	8b 15 00 00 00
	00		 mov	 edx, DWORD PTR ?gObj@@3PAUOBJECTSTRUCT@@A ; gObj
  011dd	8d 44 0a 6c	 lea	 eax, DWORD PTR [edx+ecx+108]
  011e1	50		 push	 eax
  011e2	68 00 00 00 00	 push	 OFFSET ??_C@_0EM@BGAAFCHD@?$FLMapServerMng?$FN?5CheckMoveMapSvr?$CI?$CJ@
  011e7	6a 02		 push	 2
  011e9	ff 15 00 00 00
	00		 call	 DWORD PTR ?LogAddC@@3P6AXEPADZZA ; LogAddC
  011ef	83 c4 14	 add	 esp, 20			; 00000014H

; 398  : 
; 399  : 		return gGameServerCode;

  011f2	66 a1 00 00 00
	00		 mov	 ax, WORD PTR ?gGameServerCode@@3FA ; gGameServerCode
  011f8	e9 ce 07 00 00	 jmp	 $LN40@CheckMoveM
$LN36@CheckMoveM:

; 400  : 	}
; 401  : 
; 402  : 	if ( lpMapSvrData->m_bIN_USE == FALSE )

  011fd	8b 45 ec	 mov	 eax, DWORD PTR _lpMapSvrData$[ebp]
  01200	83 78 04 00	 cmp	 DWORD PTR [eax+4], 0
  01204	75 47		 jne	 SHORT $LN35@CheckMoveM

; 403  : 	{
; 404  : 		LogAddC(2, "[MapServerMng] CheckMoveMapSvr() - lpMapSvrData->m_bIN_USE == FALSE [%s][%s] : %d",
; 405  : 			gObj[iIndex].AccountID, gObj[iIndex].Name, iMAP_NUM);

  01206	8b 45 0c	 mov	 eax, DWORD PTR _iMAP_NUM$[ebp]
  01209	50		 push	 eax
  0120a	8b 4d 08	 mov	 ecx, DWORD PTR _iIndex$[ebp]
  0120d	69 c9 38 2b 00
	00		 imul	 ecx, 11064		; 00002b38H
  01213	8b 15 00 00 00
	00		 mov	 edx, DWORD PTR ?gObj@@3PAUOBJECTSTRUCT@@A ; gObj
  01219	8d 44 0a 77	 lea	 eax, DWORD PTR [edx+ecx+119]
  0121d	50		 push	 eax
  0121e	8b 4d 08	 mov	 ecx, DWORD PTR _iIndex$[ebp]
  01221	69 c9 38 2b 00
	00		 imul	 ecx, 11064		; 00002b38H
  01227	8b 15 00 00 00
	00		 mov	 edx, DWORD PTR ?gObj@@3PAUOBJECTSTRUCT@@A ; gObj
  0122d	8d 44 0a 6c	 lea	 eax, DWORD PTR [edx+ecx+108]
  01231	50		 push	 eax
  01232	68 00 00 00 00	 push	 OFFSET ??_C@_0FC@MPBANOIK@?$FLMapServerMng?$FN?5CheckMoveMapSvr?$CI?$CJ@
  01237	6a 02		 push	 2
  01239	ff 15 00 00 00
	00		 call	 DWORD PTR ?LogAddC@@3P6AXEPADZZA ; LogAddC
  0123f	83 c4 14	 add	 esp, 20			; 00000014H

; 406  : 
; 407  : 		return gGameServerCode;

  01242	66 a1 00 00 00
	00		 mov	 ax, WORD PTR ?gGameServerCode@@3FA ; gGameServerCode
  01248	e9 7e 07 00 00	 jmp	 $LN40@CheckMoveM
$LN35@CheckMoveM:

; 408  : 	}
; 409  : 
; 410  : 	short sMAP_MOVE_INFO = lpMapSvrData->m_sMAP_MOVE[iMAP_NUM];

  0124d	8b 45 0c	 mov	 eax, DWORD PTR _iMAP_NUM$[ebp]
  01250	8b 4d ec	 mov	 ecx, DWORD PTR _lpMapSvrData$[ebp]
  01253	66 8b 54 41 1e	 mov	 dx, WORD PTR [ecx+eax*2+30]
  01258	66 89 55 e8	 mov	 WORD PTR _sMAP_MOVE_INFO$[ebp], dx

; 411  : 
; 412  : 	switch ( sMAP_MOVE_INFO )

  0125c	0f bf 45 e8	 movsx	 eax, WORD PTR _sMAP_MOVE_INFO$[ebp]
  01260	89 85 24 ff ff
	ff		 mov	 DWORD PTR tv145[ebp], eax
  01266	83 bd 24 ff ff
	ff fd		 cmp	 DWORD PTR tv145[ebp], -3 ; fffffffdH
  0126d	0f 84 78 04 00
	00		 je	 $LN11@CheckMoveM
  01273	83 bd 24 ff ff
	ff fe		 cmp	 DWORD PTR tv145[ebp], -2 ; fffffffeH
  0127a	0f 84 7b 02 00
	00		 je	 $LN21@CheckMoveM
  01280	83 bd 24 ff ff
	ff ff		 cmp	 DWORD PTR tv145[ebp], -1
  01287	74 05		 je	 SHORT $LN32@CheckMoveM
  01289	e9 f5 04 00 00	 jmp	 $LN10@CheckMoveM
$LN32@CheckMoveM:

; 413  : 	{
; 414  : 		case -1:
; 415  : 			{
; 416  : 				_MAPSVR_DATA * lpDestMapSvrData = NULL;

  0128e	c7 45 e4 00 00
	00 00		 mov	 DWORD PTR _lpDestMapSvrData$228519[ebp], 0

; 417  : 
; 418  : 				if ( sSVR_CODE_BEFORE != -1 )

  01295	0f bf 45 10	 movsx	 eax, WORD PTR _sSVR_CODE_BEFORE$[ebp]
  01299	83 f8 ff	 cmp	 eax, -1
  0129c	0f 84 93 00 00
	00		 je	 $LN31@CheckMoveM

; 419  : 				{
; 420  : 					EnterCriticalSection(&this->m_critSVRCODE_MAP);

  012a2	8b 45 f0	 mov	 eax, DWORD PTR _this$[ebp]
  012a5	05 a8 4b 01 00	 add	 eax, 84904		; 00014ba8H
  012aa	50		 push	 eax
  012ab	ff 15 00 00 00
	00		 call	 DWORD PTR __imp__EnterCriticalSection@4

; 421  : 
; 422  : 					std::map<int, _MAPSVR_DATA *>::iterator it = this->m_mapSVRCODE_MAP.find(sSVR_CODE_BEFORE);

  012b1	0f bf 45 10	 movsx	 eax, WORD PTR _sSVR_CODE_BEFORE$[ebp]
  012b5	89 85 28 ff ff
	ff		 mov	 DWORD PTR $T230599[ebp], eax
  012bb	8d 8d 28 ff ff
	ff		 lea	 ecx, DWORD PTR $T230599[ebp]
  012c1	51		 push	 ecx
  012c2	8d 55 e0	 lea	 edx, DWORD PTR _it$228534[ebp]
  012c5	52		 push	 edx
  012c6	8b 4d f0	 mov	 ecx, DWORD PTR _this$[ebp]
  012c9	81 c1 98 4b 01
	00		 add	 ecx, 84888		; 00014b98H
  012cf	e8 00 00 00 00	 call	 ?find@?$_Tree@V?$_Tmap_traits@HPAU_MAPSVR_DATA@@U?$less@H@std@@V?$allocator@U?$pair@$$CBHPAU_MAPSVR_DATA@@@std@@@3@$0A@@std@@@std@@QAE?AV?$_Tree_iterator@V?$_Tree_val@V?$_Tmap_traits@HPAU_MAPSVR_DATA@@U?$less@H@std@@V?$allocator@U?$pair@$$CBHPAU_MAPSVR_DATA@@@std@@@3@$0A@@std@@@std@@@2@ABH@Z ; std::_Tree<std::_Tmap_traits<int,_MAPSVR_DATA *,std::less<int>,std::allocator<std::pair<int const ,_MAPSVR_DATA *> >,0> >::find

; 423  : 
; 424  : 					if ( it != this->m_mapSVRCODE_MAP.end() )

  012d4	8d 85 2c ff ff
	ff		 lea	 eax, DWORD PTR $T230600[ebp]
  012da	50		 push	 eax
  012db	8b 4d f0	 mov	 ecx, DWORD PTR _this$[ebp]
  012de	81 c1 98 4b 01
	00		 add	 ecx, 84888		; 00014b98H
  012e4	e8 00 00 00 00	 call	 ?end@?$_Tree@V?$_Tmap_traits@HPAU_MAPSVR_DATA@@U?$less@H@std@@V?$allocator@U?$pair@$$CBHPAU_MAPSVR_DATA@@@std@@@3@$0A@@std@@@std@@QAE?AV?$_Tree_iterator@V?$_Tree_val@V?$_Tmap_traits@HPAU_MAPSVR_DATA@@U?$less@H@std@@V?$allocator@U?$pair@$$CBHPAU_MAPSVR_DATA@@@std@@@3@$0A@@std@@@std@@@2@XZ ; std::_Tree<std::_Tmap_traits<int,_MAPSVR_DATA *,std::less<int>,std::allocator<std::pair<int const ,_MAPSVR_DATA *> >,0> >::end
  012e9	50		 push	 eax
  012ea	8d 4d e0	 lea	 ecx, DWORD PTR _it$228534[ebp]
  012ed	e8 00 00 00 00	 call	 ??9?$_Tree_const_iterator@V?$_Tree_val@V?$_Tmap_traits@HPAU_MAPSVR_DATA@@U?$less@H@std@@V?$allocator@U?$pair@$$CBHPAU_MAPSVR_DATA@@@std@@@3@$0A@@std@@@std@@@std@@QBE_NABV01@@Z ; std::_Tree_const_iterator<std::_Tree_val<std::_Tmap_traits<int,_MAPSVR_DATA *,std::less<int>,std::allocator<std::pair<int const ,_MAPSVR_DATA *> >,0> > >::operator!=
  012f2	0f b6 c8	 movzx	 ecx, al
  012f5	85 c9		 test	 ecx, ecx
  012f7	74 0e		 je	 SHORT $LN30@CheckMoveM

; 425  : 					{
; 426  : 						lpDestMapSvrData = it->second;

  012f9	8d 4d e0	 lea	 ecx, DWORD PTR _it$228534[ebp]
  012fc	e8 00 00 00 00	 call	 ??C?$_Tree_iterator@V?$_Tree_val@V?$_Tmap_traits@HPAU_MAPSVR_DATA@@U?$less@H@std@@V?$allocator@U?$pair@$$CBHPAU_MAPSVR_DATA@@@std@@@3@$0A@@std@@@std@@@std@@QBEPAU?$pair@$$CBHPAU_MAPSVR_DATA@@@1@XZ ; std::_Tree_iterator<std::_Tree_val<std::_Tmap_traits<int,_MAPSVR_DATA *,std::less<int>,std::allocator<std::pair<int const ,_MAPSVR_DATA *> >,0> > >::operator->
  01301	8b 40 04	 mov	 eax, DWORD PTR [eax+4]
  01304	89 45 e4	 mov	 DWORD PTR _lpDestMapSvrData$228519[ebp], eax
$LN30@CheckMoveM:

; 427  : 					}
; 428  : 
; 429  : 					LeaveCriticalSection(&this->m_critSVRCODE_MAP);

  01307	8b 45 f0	 mov	 eax, DWORD PTR _this$[ebp]
  0130a	05 a8 4b 01 00	 add	 eax, 84904		; 00014ba8H
  0130f	50		 push	 eax
  01310	ff 15 00 00 00
	00		 call	 DWORD PTR __imp__LeaveCriticalSection@4

; 430  : 
; 431  : 					if ( lpDestMapSvrData != NULL )

  01316	83 7d e4 00	 cmp	 DWORD PTR _lpDestMapSvrData$228519[ebp], 0
  0131a	74 19		 je	 SHORT $LN31@CheckMoveM

; 432  : 					{
; 433  : 						if ( lpDestMapSvrData->m_sMAP_MOVE[iMAP_NUM] == -3 )

  0131c	8b 45 0c	 mov	 eax, DWORD PTR _iMAP_NUM$[ebp]
  0131f	8b 4d e4	 mov	 ecx, DWORD PTR _lpDestMapSvrData$228519[ebp]
  01322	0f bf 54 41 1e	 movsx	 edx, WORD PTR [ecx+eax*2+30]
  01327	83 fa fd	 cmp	 edx, -3			; fffffffdH
  0132a	75 09		 jne	 SHORT $LN31@CheckMoveM

; 434  : 						{
; 435  : 							return sSVR_CODE_BEFORE;

  0132c	66 8b 45 10	 mov	 ax, WORD PTR _sSVR_CODE_BEFORE$[ebp]
  01330	e9 96 06 00 00	 jmp	 $LN40@CheckMoveM
$LN31@CheckMoveM:

; 436  : 						}
; 437  : 					}
; 438  : 				}
; 439  : 
; 440  : 				std::vector<_MAPSVR_DATA *> vtMapSvrData;

  01335	8d 4d d0	 lea	 ecx, DWORD PTR _vtMapSvrData$228884[ebp]
  01338	e8 00 00 00 00	 call	 ??0?$vector@PAU_MAPSVR_DATA@@V?$allocator@PAU_MAPSVR_DATA@@@std@@@std@@QAE@XZ ; std::vector<_MAPSVR_DATA *,std::allocator<_MAPSVR_DATA *> >::vector<_MAPSVR_DATA *,std::allocator<_MAPSVR_DATA *> >
  0133d	c7 45 fc 00 00
	00 00		 mov	 DWORD PTR __$EHRec$[ebp+8], 0

; 441  : 
; 442  : 				EnterCriticalSection(&this->m_critSVRCODE_MAP);

  01344	8b 45 f0	 mov	 eax, DWORD PTR _this$[ebp]
  01347	05 a8 4b 01 00	 add	 eax, 84904		; 00014ba8H
  0134c	50		 push	 eax
  0134d	ff 15 00 00 00
	00		 call	 DWORD PTR __imp__EnterCriticalSection@4

; 443  : 
; 444  : 				for ( std::map<int ,_MAPSVR_DATA *>::iterator it = this->m_mapSVRCODE_MAP.begin() ; it != this->m_mapSVRCODE_MAP.end() ;it++)

  01353	8d 45 cc	 lea	 eax, DWORD PTR _it$228898[ebp]
  01356	50		 push	 eax
  01357	8b 4d f0	 mov	 ecx, DWORD PTR _this$[ebp]
  0135a	81 c1 98 4b 01
	00		 add	 ecx, 84888		; 00014b98H
  01360	e8 00 00 00 00	 call	 ?begin@?$_Tree@V?$_Tmap_traits@HPAU_MAPSVR_DATA@@U?$less@H@std@@V?$allocator@U?$pair@$$CBHPAU_MAPSVR_DATA@@@std@@@3@$0A@@std@@@std@@QAE?AV?$_Tree_iterator@V?$_Tree_val@V?$_Tmap_traits@HPAU_MAPSVR_DATA@@U?$less@H@std@@V?$allocator@U?$pair@$$CBHPAU_MAPSVR_DATA@@@std@@@3@$0A@@std@@@std@@@2@XZ ; std::_Tree<std::_Tmap_traits<int,_MAPSVR_DATA *,std::less<int>,std::allocator<std::pair<int const ,_MAPSVR_DATA *> >,0> >::begin
  01365	eb 11		 jmp	 SHORT $LN27@CheckMoveM
$LN26@CheckMoveM:
  01367	6a 00		 push	 0
  01369	8d 85 30 ff ff
	ff		 lea	 eax, DWORD PTR $T230601[ebp]
  0136f	50		 push	 eax
  01370	8d 4d cc	 lea	 ecx, DWORD PTR _it$228898[ebp]
  01373	e8 00 00 00 00	 call	 ??E?$_Tree_iterator@V?$_Tree_val@V?$_Tmap_traits@HPAU_MAPSVR_DATA@@U?$less@H@std@@V?$allocator@U?$pair@$$CBHPAU_MAPSVR_DATA@@@std@@@3@$0A@@std@@@std@@@std@@QAE?AV01@H@Z ; std::_Tree_iterator<std::_Tree_val<std::_Tmap_traits<int,_MAPSVR_DATA *,std::less<int>,std::allocator<std::pair<int const ,_MAPSVR_DATA *> >,0> > >::operator++
$LN27@CheckMoveM:
  01378	8d 85 34 ff ff
	ff		 lea	 eax, DWORD PTR $T230602[ebp]
  0137e	50		 push	 eax
  0137f	8b 4d f0	 mov	 ecx, DWORD PTR _this$[ebp]
  01382	81 c1 98 4b 01
	00		 add	 ecx, 84888		; 00014b98H
  01388	e8 00 00 00 00	 call	 ?end@?$_Tree@V?$_Tmap_traits@HPAU_MAPSVR_DATA@@U?$less@H@std@@V?$allocator@U?$pair@$$CBHPAU_MAPSVR_DATA@@@std@@@3@$0A@@std@@@std@@QAE?AV?$_Tree_iterator@V?$_Tree_val@V?$_Tmap_traits@HPAU_MAPSVR_DATA@@U?$less@H@std@@V?$allocator@U?$pair@$$CBHPAU_MAPSVR_DATA@@@std@@@3@$0A@@std@@@std@@@2@XZ ; std::_Tree<std::_Tmap_traits<int,_MAPSVR_DATA *,std::less<int>,std::allocator<std::pair<int const ,_MAPSVR_DATA *> >,0> >::end
  0138d	50		 push	 eax
  0138e	8d 4d cc	 lea	 ecx, DWORD PTR _it$228898[ebp]
  01391	e8 00 00 00 00	 call	 ??9?$_Tree_const_iterator@V?$_Tree_val@V?$_Tmap_traits@HPAU_MAPSVR_DATA@@U?$less@H@std@@V?$allocator@U?$pair@$$CBHPAU_MAPSVR_DATA@@@std@@@3@$0A@@std@@@std@@@std@@QBE_NABV01@@Z ; std::_Tree_const_iterator<std::_Tree_val<std::_Tmap_traits<int,_MAPSVR_DATA *,std::less<int>,std::allocator<std::pair<int const ,_MAPSVR_DATA *> >,0> > >::operator!=
  01396	0f b6 c8	 movzx	 ecx, al
  01399	85 c9		 test	 ecx, ecx
  0139b	74 43		 je	 SHORT $LN25@CheckMoveM

; 445  : 				{
; 446  : 					_MAPSVR_DATA * lpTempMapSvrData = it->second;

  0139d	8d 4d cc	 lea	 ecx, DWORD PTR _it$228898[ebp]
  013a0	e8 00 00 00 00	 call	 ??C?$_Tree_iterator@V?$_Tree_val@V?$_Tmap_traits@HPAU_MAPSVR_DATA@@U?$less@H@std@@V?$allocator@U?$pair@$$CBHPAU_MAPSVR_DATA@@@std@@@3@$0A@@std@@@std@@@std@@QBEPAU?$pair@$$CBHPAU_MAPSVR_DATA@@@1@XZ ; std::_Tree_iterator<std::_Tree_val<std::_Tmap_traits<int,_MAPSVR_DATA *,std::less<int>,std::allocator<std::pair<int const ,_MAPSVR_DATA *> >,0> > >::operator->
  013a5	8b 40 04	 mov	 eax, DWORD PTR [eax+4]
  013a8	89 45 c8	 mov	 DWORD PTR _lpTempMapSvrData$228905[ebp], eax

; 447  : 
; 448  : 					if ( lpTempMapSvrData != NULL &&
; 449  : 						 lpTempMapSvrData->m_bIN_USE == TRUE &&
; 450  : 						 lpTempMapSvrData->m_sMAP_MOVE[iMAP_NUM] == -3)

  013ab	83 7d c8 00	 cmp	 DWORD PTR _lpTempMapSvrData$228905[ebp], 0
  013af	74 2d		 je	 SHORT $LN24@CheckMoveM
  013b1	8b 45 c8	 mov	 eax, DWORD PTR _lpTempMapSvrData$228905[ebp]
  013b4	83 78 04 01	 cmp	 DWORD PTR [eax+4], 1
  013b8	75 24		 jne	 SHORT $LN24@CheckMoveM
  013ba	8b 45 0c	 mov	 eax, DWORD PTR _iMAP_NUM$[ebp]
  013bd	8b 4d c8	 mov	 ecx, DWORD PTR _lpTempMapSvrData$228905[ebp]
  013c0	0f bf 54 41 1e	 movsx	 edx, WORD PTR [ecx+eax*2+30]
  013c5	83 fa fd	 cmp	 edx, -3			; fffffffdH
  013c8	75 14		 jne	 SHORT $LN24@CheckMoveM

; 451  : 					{
; 452  : 						vtMapSvrData.push_back(it->second);

  013ca	8d 4d cc	 lea	 ecx, DWORD PTR _it$228898[ebp]
  013cd	e8 00 00 00 00	 call	 ??C?$_Tree_iterator@V?$_Tree_val@V?$_Tmap_traits@HPAU_MAPSVR_DATA@@U?$less@H@std@@V?$allocator@U?$pair@$$CBHPAU_MAPSVR_DATA@@@std@@@3@$0A@@std@@@std@@@std@@QBEPAU?$pair@$$CBHPAU_MAPSVR_DATA@@@1@XZ ; std::_Tree_iterator<std::_Tree_val<std::_Tmap_traits<int,_MAPSVR_DATA *,std::less<int>,std::allocator<std::pair<int const ,_MAPSVR_DATA *> >,0> > >::operator->
  013d2	83 c0 04	 add	 eax, 4
  013d5	50		 push	 eax
  013d6	8d 4d d0	 lea	 ecx, DWORD PTR _vtMapSvrData$228884[ebp]
  013d9	e8 00 00 00 00	 call	 ?push_back@?$vector@PAU_MAPSVR_DATA@@V?$allocator@PAU_MAPSVR_DATA@@@std@@@std@@QAEXABQAU_MAPSVR_DATA@@@Z ; std::vector<_MAPSVR_DATA *,std::allocator<_MAPSVR_DATA *> >::push_back
$LN24@CheckMoveM:

; 453  : 					}
; 454  : 				}

  013de	eb 87		 jmp	 SHORT $LN26@CheckMoveM
$LN25@CheckMoveM:

; 455  : 
; 456  : 				LeaveCriticalSection(&this->m_critSVRCODE_MAP);

  013e0	8b 45 f0	 mov	 eax, DWORD PTR _this$[ebp]
  013e3	05 a8 4b 01 00	 add	 eax, 84904		; 00014ba8H
  013e8	50		 push	 eax
  013e9	ff 15 00 00 00
	00		 call	 DWORD PTR __imp__LeaveCriticalSection@4

; 457  : 
; 458  : 				short sDestServerCode = -1;

  013ef	83 c8 ff	 or	 eax, -1
  013f2	66 89 45 c4	 mov	 WORD PTR _sDestServerCode$228907[ebp], ax

; 459  : 
; 460  : 				if ( vtMapSvrData.empty() == 0 )

  013f6	8d 4d d0	 lea	 ecx, DWORD PTR _vtMapSvrData$228884[ebp]
  013f9	e8 00 00 00 00	 call	 ?empty@?$vector@PAU_MAPSVR_DATA@@V?$allocator@PAU_MAPSVR_DATA@@@std@@@std@@QBE_NXZ ; std::vector<_MAPSVR_DATA *,std::allocator<_MAPSVR_DATA *> >::empty
  013fe	0f b6 c0	 movzx	 eax, al
  01401	85 c0		 test	 eax, eax
  01403	75 2a		 jne	 SHORT $LN23@CheckMoveM

; 461  : 				{
; 462  : 					sDestServerCode = vtMapSvrData[rand()%vtMapSvrData.size()]->m_sSVR_CODE;

  01405	e8 00 00 00 00	 call	 _rand
  0140a	8b f0		 mov	 esi, eax
  0140c	8d 4d d0	 lea	 ecx, DWORD PTR _vtMapSvrData$228884[ebp]
  0140f	e8 00 00 00 00	 call	 ?size@?$vector@PAU_MAPSVR_DATA@@V?$allocator@PAU_MAPSVR_DATA@@@std@@@std@@QBEIXZ ; std::vector<_MAPSVR_DATA *,std::allocator<_MAPSVR_DATA *> >::size
  01414	8b c8		 mov	 ecx, eax
  01416	8b c6		 mov	 eax, esi
  01418	33 d2		 xor	 edx, edx
  0141a	f7 f1		 div	 ecx
  0141c	52		 push	 edx
  0141d	8d 4d d0	 lea	 ecx, DWORD PTR _vtMapSvrData$228884[ebp]
  01420	e8 00 00 00 00	 call	 ??A?$vector@PAU_MAPSVR_DATA@@V?$allocator@PAU_MAPSVR_DATA@@@std@@@std@@QAEAAPAU_MAPSVR_DATA@@I@Z ; std::vector<_MAPSVR_DATA *,std::allocator<_MAPSVR_DATA *> >::operator[]
  01425	8b 10		 mov	 edx, DWORD PTR [eax]
  01427	66 8b 42 0a	 mov	 ax, WORD PTR [edx+10]
  0142b	66 89 45 c4	 mov	 WORD PTR _sDestServerCode$228907[ebp], ax
$LN23@CheckMoveM:

; 463  : 				}
; 464  : 
; 465  : 				if ( sDestServerCode != -1 )

  0142f	0f bf 45 c4	 movsx	 eax, WORD PTR _sDestServerCode$228907[ebp]
  01433	83 f8 ff	 cmp	 eax, -1
  01436	0f 84 ab 00 00
	00		 je	 $LN22@CheckMoveM

; 466  : 				{
; 467  : 					LogAddTD("[MapServerMng] CheckMoveMapSvr() - MapServer Check OK [%s][%s] : MAP-%d / SVR-%d(State Map:%d X:%d Y:%d)",
; 468  : 						gObj[iIndex].AccountID, gObj[iIndex].Name, iMAP_NUM, sDestServerCode,
; 469  : 						gObj[iIndex].MapNumber, gObj[iIndex].X, gObj[iIndex].Y);

  0143c	8b 45 08	 mov	 eax, DWORD PTR _iIndex$[ebp]
  0143f	69 c0 38 2b 00
	00		 imul	 eax, 11064		; 00002b38H
  01445	8b 0d 00 00 00
	00		 mov	 ecx, DWORD PTR ?gObj@@3PAUOBJECTSTRUCT@@A ; gObj
  0144b	0f bf 94 01 46
	01 00 00	 movsx	 edx, WORD PTR [ecx+eax+326]
  01453	52		 push	 edx
  01454	8b 45 08	 mov	 eax, DWORD PTR _iIndex$[ebp]
  01457	69 c0 38 2b 00
	00		 imul	 eax, 11064		; 00002b38H
  0145d	8b 0d 00 00 00
	00		 mov	 ecx, DWORD PTR ?gObj@@3PAUOBJECTSTRUCT@@A ; gObj
  01463	0f bf 94 01 44
	01 00 00	 movsx	 edx, WORD PTR [ecx+eax+324]
  0146b	52		 push	 edx
  0146c	8b 45 08	 mov	 eax, DWORD PTR _iIndex$[ebp]
  0146f	69 c0 38 2b 00
	00		 imul	 eax, 11064		; 00002b38H
  01475	8b 0d 00 00 00
	00		 mov	 ecx, DWORD PTR ?gObj@@3PAUOBJECTSTRUCT@@A ; gObj
  0147b	0f b6 94 01 49
	01 00 00	 movzx	 edx, BYTE PTR [ecx+eax+329]
  01483	52		 push	 edx
  01484	0f bf 45 c4	 movsx	 eax, WORD PTR _sDestServerCode$228907[ebp]
  01488	50		 push	 eax
  01489	8b 4d 0c	 mov	 ecx, DWORD PTR _iMAP_NUM$[ebp]
  0148c	51		 push	 ecx
  0148d	8b 55 08	 mov	 edx, DWORD PTR _iIndex$[ebp]
  01490	69 d2 38 2b 00
	00		 imul	 edx, 11064		; 00002b38H
  01496	a1 00 00 00 00	 mov	 eax, DWORD PTR ?gObj@@3PAUOBJECTSTRUCT@@A ; gObj
  0149b	8d 4c 10 77	 lea	 ecx, DWORD PTR [eax+edx+119]
  0149f	51		 push	 ecx
  014a0	8b 55 08	 mov	 edx, DWORD PTR _iIndex$[ebp]
  014a3	69 d2 38 2b 00
	00		 imul	 edx, 11064		; 00002b38H
  014a9	a1 00 00 00 00	 mov	 eax, DWORD PTR ?gObj@@3PAUOBJECTSTRUCT@@A ; gObj
  014ae	8d 4c 10 6c	 lea	 ecx, DWORD PTR [eax+edx+108]
  014b2	51		 push	 ecx
  014b3	68 00 00 00 00	 push	 OFFSET ??_C@_0GJ@HAGGDALD@?$FLMapServerMng?$FN?5CheckMoveMapSvr?$CI?$CJ@
  014b8	ff 15 00 00 00
	00		 call	 DWORD PTR ?LogAddTD@@3P6AXPADZZA ; LogAddTD
  014be	83 c4 20	 add	 esp, 32			; 00000020H

; 470  : 
; 471  : 					return sDestServerCode;

  014c1	66 8b 45 c4	 mov	 ax, WORD PTR _sDestServerCode$228907[ebp]
  014c5	66 89 85 3a ff
	ff ff		 mov	 WORD PTR $T230603[ebp], ax
  014cc	c7 45 fc ff ff
	ff ff		 mov	 DWORD PTR __$EHRec$[ebp+8], -1
  014d3	8d 4d d0	 lea	 ecx, DWORD PTR _vtMapSvrData$228884[ebp]
  014d6	e8 00 00 00 00	 call	 ??1?$vector@PAU_MAPSVR_DATA@@V?$allocator@PAU_MAPSVR_DATA@@@std@@@std@@QAE@XZ ; std::vector<_MAPSVR_DATA *,std::allocator<_MAPSVR_DATA *> >::~vector<_MAPSVR_DATA *,std::allocator<_MAPSVR_DATA *> >
  014db	66 8b 85 3a ff
	ff ff		 mov	 ax, WORD PTR $T230603[ebp]
  014e2	e9 e4 04 00 00	 jmp	 $LN40@CheckMoveM
$LN22@CheckMoveM:

; 472  : 				}
; 473  : 			}

  014e7	c7 45 fc ff ff
	ff ff		 mov	 DWORD PTR __$EHRec$[ebp+8], -1
  014ee	8d 4d d0	 lea	 ecx, DWORD PTR _vtMapSvrData$228884[ebp]
  014f1	e8 00 00 00 00	 call	 ??1?$vector@PAU_MAPSVR_DATA@@V?$allocator@PAU_MAPSVR_DATA@@@std@@@std@@QAE@XZ ; std::vector<_MAPSVR_DATA *,std::allocator<_MAPSVR_DATA *> >::~vector<_MAPSVR_DATA *,std::allocator<_MAPSVR_DATA *> >

; 474  : 			break;

  014f6	e9 ca 04 00 00	 jmp	 $LN33@CheckMoveM
$LN21@CheckMoveM:

; 475  : 
; 476  : 		case -2:
; 477  : 			{
; 478  : 				_MAPSVR_DATA * lpDestMapSvrData = NULL;

  014fb	c7 45 c0 00 00
	00 00		 mov	 DWORD PTR _lpDestMapSvrData$228913[ebp], 0

; 479  : 
; 480  : 				if ( sSVR_CODE_BEFORE != -1 )

  01502	0f bf 45 10	 movsx	 eax, WORD PTR _sSVR_CODE_BEFORE$[ebp]
  01506	83 f8 ff	 cmp	 eax, -1
  01509	0f 84 93 00 00
	00		 je	 $LN20@CheckMoveM

; 481  : 				{
; 482  : 					EnterCriticalSection(&this->m_critSVRCODE_MAP);

  0150f	8b 45 f0	 mov	 eax, DWORD PTR _this$[ebp]
  01512	05 a8 4b 01 00	 add	 eax, 84904		; 00014ba8H
  01517	50		 push	 eax
  01518	ff 15 00 00 00
	00		 call	 DWORD PTR __imp__EnterCriticalSection@4

; 483  : 
; 484  : 					std::map<int, _MAPSVR_DATA *>::iterator it = this->m_mapSVRCODE_MAP.find(sSVR_CODE_BEFORE);

  0151e	0f bf 45 10	 movsx	 eax, WORD PTR _sSVR_CODE_BEFORE$[ebp]
  01522	89 85 3c ff ff
	ff		 mov	 DWORD PTR $T230604[ebp], eax
  01528	8d 8d 3c ff ff
	ff		 lea	 ecx, DWORD PTR $T230604[ebp]
  0152e	51		 push	 ecx
  0152f	8d 55 bc	 lea	 edx, DWORD PTR _it$228928[ebp]
  01532	52		 push	 edx
  01533	8b 4d f0	 mov	 ecx, DWORD PTR _this$[ebp]
  01536	81 c1 98 4b 01
	00		 add	 ecx, 84888		; 00014b98H
  0153c	e8 00 00 00 00	 call	 ?find@?$_Tree@V?$_Tmap_traits@HPAU_MAPSVR_DATA@@U?$less@H@std@@V?$allocator@U?$pair@$$CBHPAU_MAPSVR_DATA@@@std@@@3@$0A@@std@@@std@@QAE?AV?$_Tree_iterator@V?$_Tree_val@V?$_Tmap_traits@HPAU_MAPSVR_DATA@@U?$less@H@std@@V?$allocator@U?$pair@$$CBHPAU_MAPSVR_DATA@@@std@@@3@$0A@@std@@@std@@@2@ABH@Z ; std::_Tree<std::_Tmap_traits<int,_MAPSVR_DATA *,std::less<int>,std::allocator<std::pair<int const ,_MAPSVR_DATA *> >,0> >::find

; 485  : 
; 486  : 					if ( it != this->m_mapSVRCODE_MAP.end() )

  01541	8d 85 40 ff ff
	ff		 lea	 eax, DWORD PTR $T230605[ebp]
  01547	50		 push	 eax
  01548	8b 4d f0	 mov	 ecx, DWORD PTR _this$[ebp]
  0154b	81 c1 98 4b 01
	00		 add	 ecx, 84888		; 00014b98H
  01551	e8 00 00 00 00	 call	 ?end@?$_Tree@V?$_Tmap_traits@HPAU_MAPSVR_DATA@@U?$less@H@std@@V?$allocator@U?$pair@$$CBHPAU_MAPSVR_DATA@@@std@@@3@$0A@@std@@@std@@QAE?AV?$_Tree_iterator@V?$_Tree_val@V?$_Tmap_traits@HPAU_MAPSVR_DATA@@U?$less@H@std@@V?$allocator@U?$pair@$$CBHPAU_MAPSVR_DATA@@@std@@@3@$0A@@std@@@std@@@2@XZ ; std::_Tree<std::_Tmap_traits<int,_MAPSVR_DATA *,std::less<int>,std::allocator<std::pair<int const ,_MAPSVR_DATA *> >,0> >::end
  01556	50		 push	 eax
  01557	8d 4d bc	 lea	 ecx, DWORD PTR _it$228928[ebp]
  0155a	e8 00 00 00 00	 call	 ??9?$_Tree_const_iterator@V?$_Tree_val@V?$_Tmap_traits@HPAU_MAPSVR_DATA@@U?$less@H@std@@V?$allocator@U?$pair@$$CBHPAU_MAPSVR_DATA@@@std@@@3@$0A@@std@@@std@@@std@@QBE_NABV01@@Z ; std::_Tree_const_iterator<std::_Tree_val<std::_Tmap_traits<int,_MAPSVR_DATA *,std::less<int>,std::allocator<std::pair<int const ,_MAPSVR_DATA *> >,0> > >::operator!=
  0155f	0f b6 c8	 movzx	 ecx, al
  01562	85 c9		 test	 ecx, ecx
  01564	74 0e		 je	 SHORT $LN19@CheckMoveM

; 487  : 					{
; 488  : 						lpDestMapSvrData = it->second;

  01566	8d 4d bc	 lea	 ecx, DWORD PTR _it$228928[ebp]
  01569	e8 00 00 00 00	 call	 ??C?$_Tree_iterator@V?$_Tree_val@V?$_Tmap_traits@HPAU_MAPSVR_DATA@@U?$less@H@std@@V?$allocator@U?$pair@$$CBHPAU_MAPSVR_DATA@@@std@@@3@$0A@@std@@@std@@@std@@QBEPAU?$pair@$$CBHPAU_MAPSVR_DATA@@@1@XZ ; std::_Tree_iterator<std::_Tree_val<std::_Tmap_traits<int,_MAPSVR_DATA *,std::less<int>,std::allocator<std::pair<int const ,_MAPSVR_DATA *> >,0> > >::operator->
  0156e	8b 40 04	 mov	 eax, DWORD PTR [eax+4]
  01571	89 45 c0	 mov	 DWORD PTR _lpDestMapSvrData$228913[ebp], eax
$LN19@CheckMoveM:

; 489  : 					}
; 490  : 
; 491  : 					LeaveCriticalSection(&this->m_critSVRCODE_MAP);

  01574	8b 45 f0	 mov	 eax, DWORD PTR _this$[ebp]
  01577	05 a8 4b 01 00	 add	 eax, 84904		; 00014ba8H
  0157c	50		 push	 eax
  0157d	ff 15 00 00 00
	00		 call	 DWORD PTR __imp__LeaveCriticalSection@4

; 492  : 
; 493  : 					if ( lpDestMapSvrData != NULL )

  01583	83 7d c0 00	 cmp	 DWORD PTR _lpDestMapSvrData$228913[ebp], 0
  01587	74 19		 je	 SHORT $LN20@CheckMoveM

; 494  : 					{
; 495  : 						if ( lpDestMapSvrData->m_sMAP_MOVE[iMAP_NUM] == -3 )

  01589	8b 45 0c	 mov	 eax, DWORD PTR _iMAP_NUM$[ebp]
  0158c	8b 4d c0	 mov	 ecx, DWORD PTR _lpDestMapSvrData$228913[ebp]
  0158f	0f bf 54 41 1e	 movsx	 edx, WORD PTR [ecx+eax*2+30]
  01594	83 fa fd	 cmp	 edx, -3			; fffffffdH
  01597	75 09		 jne	 SHORT $LN20@CheckMoveM

; 496  : 						{
; 497  : 							return sSVR_CODE_BEFORE;

  01599	66 8b 45 10	 mov	 ax, WORD PTR _sSVR_CODE_BEFORE$[ebp]
  0159d	e9 29 04 00 00	 jmp	 $LN40@CheckMoveM
$LN20@CheckMoveM:

; 498  : 						}
; 499  : 					}
; 500  : 				}
; 501  : 				
; 502  : 				short sDestServerCode = -1;

  015a2	83 c8 ff	 or	 eax, -1
  015a5	66 89 45 b8	 mov	 WORD PTR _sDestServerCode$228935[ebp], ax

; 503  : 
; 504  : 				EnterCriticalSection(&this->m_critSVRCODE_MAP);

  015a9	8b 45 f0	 mov	 eax, DWORD PTR _this$[ebp]
  015ac	05 a8 4b 01 00	 add	 eax, 84904		; 00014ba8H
  015b1	50		 push	 eax
  015b2	ff 15 00 00 00
	00		 call	 DWORD PTR __imp__EnterCriticalSection@4

; 505  : 
; 506  : 				for ( std::map<int ,_MAPSVR_DATA *>::iterator it = this->m_mapSVRCODE_MAP.begin() ; it != this->m_mapSVRCODE_MAP.end() ;it++)

  015b8	8d 45 b4	 lea	 eax, DWORD PTR _it$228949[ebp]
  015bb	50		 push	 eax
  015bc	8b 4d f0	 mov	 ecx, DWORD PTR _this$[ebp]
  015bf	81 c1 98 4b 01
	00		 add	 ecx, 84888		; 00014b98H
  015c5	e8 00 00 00 00	 call	 ?begin@?$_Tree@V?$_Tmap_traits@HPAU_MAPSVR_DATA@@U?$less@H@std@@V?$allocator@U?$pair@$$CBHPAU_MAPSVR_DATA@@@std@@@3@$0A@@std@@@std@@QAE?AV?$_Tree_iterator@V?$_Tree_val@V?$_Tmap_traits@HPAU_MAPSVR_DATA@@U?$less@H@std@@V?$allocator@U?$pair@$$CBHPAU_MAPSVR_DATA@@@std@@@3@$0A@@std@@@std@@@2@XZ ; std::_Tree<std::_Tmap_traits<int,_MAPSVR_DATA *,std::less<int>,std::allocator<std::pair<int const ,_MAPSVR_DATA *> >,0> >::begin
  015ca	eb 11		 jmp	 SHORT $LN16@CheckMoveM
$LN15@CheckMoveM:
  015cc	6a 00		 push	 0
  015ce	8d 85 44 ff ff
	ff		 lea	 eax, DWORD PTR $T230606[ebp]
  015d4	50		 push	 eax
  015d5	8d 4d b4	 lea	 ecx, DWORD PTR _it$228949[ebp]
  015d8	e8 00 00 00 00	 call	 ??E?$_Tree_iterator@V?$_Tree_val@V?$_Tmap_traits@HPAU_MAPSVR_DATA@@U?$less@H@std@@V?$allocator@U?$pair@$$CBHPAU_MAPSVR_DATA@@@std@@@3@$0A@@std@@@std@@@std@@QAE?AV01@H@Z ; std::_Tree_iterator<std::_Tree_val<std::_Tmap_traits<int,_MAPSVR_DATA *,std::less<int>,std::allocator<std::pair<int const ,_MAPSVR_DATA *> >,0> > >::operator++
$LN16@CheckMoveM:
  015dd	8d 85 48 ff ff
	ff		 lea	 eax, DWORD PTR $T230607[ebp]
  015e3	50		 push	 eax
  015e4	8b 4d f0	 mov	 ecx, DWORD PTR _this$[ebp]
  015e7	81 c1 98 4b 01
	00		 add	 ecx, 84888		; 00014b98H
  015ed	e8 00 00 00 00	 call	 ?end@?$_Tree@V?$_Tmap_traits@HPAU_MAPSVR_DATA@@U?$less@H@std@@V?$allocator@U?$pair@$$CBHPAU_MAPSVR_DATA@@@std@@@3@$0A@@std@@@std@@QAE?AV?$_Tree_iterator@V?$_Tree_val@V?$_Tmap_traits@HPAU_MAPSVR_DATA@@U?$less@H@std@@V?$allocator@U?$pair@$$CBHPAU_MAPSVR_DATA@@@std@@@3@$0A@@std@@@std@@@2@XZ ; std::_Tree<std::_Tmap_traits<int,_MAPSVR_DATA *,std::less<int>,std::allocator<std::pair<int const ,_MAPSVR_DATA *> >,0> >::end
  015f2	50		 push	 eax
  015f3	8d 4d b4	 lea	 ecx, DWORD PTR _it$228949[ebp]
  015f6	e8 00 00 00 00	 call	 ??9?$_Tree_const_iterator@V?$_Tree_val@V?$_Tmap_traits@HPAU_MAPSVR_DATA@@U?$less@H@std@@V?$allocator@U?$pair@$$CBHPAU_MAPSVR_DATA@@@std@@@3@$0A@@std@@@std@@@std@@QBE_NABV01@@Z ; std::_Tree_const_iterator<std::_Tree_val<std::_Tmap_traits<int,_MAPSVR_DATA *,std::less<int>,std::allocator<std::pair<int const ,_MAPSVR_DATA *> >,0> > >::operator!=
  015fb	0f b6 c8	 movzx	 ecx, al
  015fe	85 c9		 test	 ecx, ecx
  01600	74 3a		 je	 SHORT $LN14@CheckMoveM

; 507  : 				{
; 508  : 					_MAPSVR_DATA * lpTempMapSvrData = it->second;

  01602	8d 4d b4	 lea	 ecx, DWORD PTR _it$228949[ebp]
  01605	e8 00 00 00 00	 call	 ??C?$_Tree_iterator@V?$_Tree_val@V?$_Tmap_traits@HPAU_MAPSVR_DATA@@U?$less@H@std@@V?$allocator@U?$pair@$$CBHPAU_MAPSVR_DATA@@@std@@@3@$0A@@std@@@std@@@std@@QBEPAU?$pair@$$CBHPAU_MAPSVR_DATA@@@1@XZ ; std::_Tree_iterator<std::_Tree_val<std::_Tmap_traits<int,_MAPSVR_DATA *,std::less<int>,std::allocator<std::pair<int const ,_MAPSVR_DATA *> >,0> > >::operator->
  0160a	8b 40 04	 mov	 eax, DWORD PTR [eax+4]
  0160d	89 45 b0	 mov	 DWORD PTR _lpTempMapSvrData$228956[ebp], eax

; 509  : 
; 510  : 					if ( lpTempMapSvrData != NULL &&
; 511  : 						 lpTempMapSvrData->m_bIN_USE == TRUE &&
; 512  : 						 lpTempMapSvrData->m_sMAP_MOVE[iMAP_NUM] == -3)

  01610	83 7d b0 00	 cmp	 DWORD PTR _lpTempMapSvrData$228956[ebp], 0
  01614	74 24		 je	 SHORT $LN13@CheckMoveM
  01616	8b 45 b0	 mov	 eax, DWORD PTR _lpTempMapSvrData$228956[ebp]
  01619	83 78 04 01	 cmp	 DWORD PTR [eax+4], 1
  0161d	75 1b		 jne	 SHORT $LN13@CheckMoveM
  0161f	8b 45 0c	 mov	 eax, DWORD PTR _iMAP_NUM$[ebp]
  01622	8b 4d b0	 mov	 ecx, DWORD PTR _lpTempMapSvrData$228956[ebp]
  01625	0f bf 54 41 1e	 movsx	 edx, WORD PTR [ecx+eax*2+30]
  0162a	83 fa fd	 cmp	 edx, -3			; fffffffdH
  0162d	75 0b		 jne	 SHORT $LN13@CheckMoveM

; 513  : 					{
; 514  : 						sDestServerCode = lpTempMapSvrData->m_sSVR_CODE;

  0162f	8b 45 b0	 mov	 eax, DWORD PTR _lpTempMapSvrData$228956[ebp]
  01632	66 8b 48 0a	 mov	 cx, WORD PTR [eax+10]
  01636	66 89 4d b8	 mov	 WORD PTR _sDestServerCode$228935[ebp], cx
$LN13@CheckMoveM:

; 515  : 					}
; 516  : 				}

  0163a	eb 90		 jmp	 SHORT $LN15@CheckMoveM
$LN14@CheckMoveM:

; 517  : 
; 518  : 				LeaveCriticalSection(&this->m_critSVRCODE_MAP);

  0163c	8b 45 f0	 mov	 eax, DWORD PTR _this$[ebp]
  0163f	05 a8 4b 01 00	 add	 eax, 84904		; 00014ba8H
  01644	50		 push	 eax
  01645	ff 15 00 00 00
	00		 call	 DWORD PTR __imp__LeaveCriticalSection@4

; 519  : 
; 520  : 				if ( sDestServerCode != -1 )

  0164b	0f bf 45 b8	 movsx	 eax, WORD PTR _sDestServerCode$228935[ebp]
  0164f	83 f8 ff	 cmp	 eax, -1
  01652	0f 84 8e 00 00
	00		 je	 $LN12@CheckMoveM

; 521  : 				{
; 522  : 					LogAddTD("[MapServerMng] CheckMoveMapSvr() - MapServer Check OK [%s][%s] : MAP-%d / SVR-%d(State Map:%d X:%d Y:%d)",
; 523  : 						gObj[iIndex].AccountID, gObj[iIndex].Name, iMAP_NUM, sDestServerCode,
; 524  : 						gObj[iIndex].MapNumber, gObj[iIndex].X, gObj[iIndex].Y);

  01658	8b 45 08	 mov	 eax, DWORD PTR _iIndex$[ebp]
  0165b	69 c0 38 2b 00
	00		 imul	 eax, 11064		; 00002b38H
  01661	8b 0d 00 00 00
	00		 mov	 ecx, DWORD PTR ?gObj@@3PAUOBJECTSTRUCT@@A ; gObj
  01667	0f bf 94 01 46
	01 00 00	 movsx	 edx, WORD PTR [ecx+eax+326]
  0166f	52		 push	 edx
  01670	8b 45 08	 mov	 eax, DWORD PTR _iIndex$[ebp]
  01673	69 c0 38 2b 00
	00		 imul	 eax, 11064		; 00002b38H
  01679	8b 0d 00 00 00
	00		 mov	 ecx, DWORD PTR ?gObj@@3PAUOBJECTSTRUCT@@A ; gObj
  0167f	0f bf 94 01 44
	01 00 00	 movsx	 edx, WORD PTR [ecx+eax+324]
  01687	52		 push	 edx
  01688	8b 45 08	 mov	 eax, DWORD PTR _iIndex$[ebp]
  0168b	69 c0 38 2b 00
	00		 imul	 eax, 11064		; 00002b38H
  01691	8b 0d 00 00 00
	00		 mov	 ecx, DWORD PTR ?gObj@@3PAUOBJECTSTRUCT@@A ; gObj
  01697	0f b6 94 01 49
	01 00 00	 movzx	 edx, BYTE PTR [ecx+eax+329]
  0169f	52		 push	 edx
  016a0	0f bf 45 b8	 movsx	 eax, WORD PTR _sDestServerCode$228935[ebp]
  016a4	50		 push	 eax
  016a5	8b 4d 0c	 mov	 ecx, DWORD PTR _iMAP_NUM$[ebp]
  016a8	51		 push	 ecx
  016a9	8b 55 08	 mov	 edx, DWORD PTR _iIndex$[ebp]
  016ac	69 d2 38 2b 00
	00		 imul	 edx, 11064		; 00002b38H
  016b2	a1 00 00 00 00	 mov	 eax, DWORD PTR ?gObj@@3PAUOBJECTSTRUCT@@A ; gObj
  016b7	8d 4c 10 77	 lea	 ecx, DWORD PTR [eax+edx+119]
  016bb	51		 push	 ecx
  016bc	8b 55 08	 mov	 edx, DWORD PTR _iIndex$[ebp]
  016bf	69 d2 38 2b 00
	00		 imul	 edx, 11064		; 00002b38H
  016c5	a1 00 00 00 00	 mov	 eax, DWORD PTR ?gObj@@3PAUOBJECTSTRUCT@@A ; gObj
  016ca	8d 4c 10 6c	 lea	 ecx, DWORD PTR [eax+edx+108]
  016ce	51		 push	 ecx
  016cf	68 00 00 00 00	 push	 OFFSET ??_C@_0GJ@HAGGDALD@?$FLMapServerMng?$FN?5CheckMoveMapSvr?$CI?$CJ@
  016d4	ff 15 00 00 00
	00		 call	 DWORD PTR ?LogAddTD@@3P6AXPADZZA ; LogAddTD
  016da	83 c4 20	 add	 esp, 32			; 00000020H

; 525  : 
; 526  : 					return sDestServerCode;

  016dd	66 8b 45 b8	 mov	 ax, WORD PTR _sDestServerCode$228935[ebp]
  016e1	e9 e5 02 00 00	 jmp	 $LN40@CheckMoveM
$LN12@CheckMoveM:

; 527  : 				}
; 528  : 			}
; 529  : 			break;

  016e6	e9 da 02 00 00	 jmp	 $LN33@CheckMoveM
$LN11@CheckMoveM:

; 530  : 
; 531  : 		case -3:
; 532  : 			LogAddTD("[MapServerMng] CheckMoveMapSvr() - MapServer Check OK [%s][%s] : MAP-%d / SVR-%d (State Map:%d X:%d Y:%d)",
; 533  : 				gObj[iIndex].AccountID, gObj[iIndex].Name, iMAP_NUM, gGameServerCode,
; 534  : 				gObj[iIndex].MapNumber, gObj[iIndex].X, gObj[iIndex].Y);

  016eb	8b 45 08	 mov	 eax, DWORD PTR _iIndex$[ebp]
  016ee	69 c0 38 2b 00
	00		 imul	 eax, 11064		; 00002b38H
  016f4	8b 0d 00 00 00
	00		 mov	 ecx, DWORD PTR ?gObj@@3PAUOBJECTSTRUCT@@A ; gObj
  016fa	0f bf 94 01 46
	01 00 00	 movsx	 edx, WORD PTR [ecx+eax+326]
  01702	52		 push	 edx
  01703	8b 45 08	 mov	 eax, DWORD PTR _iIndex$[ebp]
  01706	69 c0 38 2b 00
	00		 imul	 eax, 11064		; 00002b38H
  0170c	8b 0d 00 00 00
	00		 mov	 ecx, DWORD PTR ?gObj@@3PAUOBJECTSTRUCT@@A ; gObj
  01712	0f bf 94 01 44
	01 00 00	 movsx	 edx, WORD PTR [ecx+eax+324]
  0171a	52		 push	 edx
  0171b	8b 45 08	 mov	 eax, DWORD PTR _iIndex$[ebp]
  0171e	69 c0 38 2b 00
	00		 imul	 eax, 11064		; 00002b38H
  01724	8b 0d 00 00 00
	00		 mov	 ecx, DWORD PTR ?gObj@@3PAUOBJECTSTRUCT@@A ; gObj
  0172a	0f b6 94 01 49
	01 00 00	 movzx	 edx, BYTE PTR [ecx+eax+329]
  01732	52		 push	 edx
  01733	0f bf 05 00 00
	00 00		 movsx	 eax, WORD PTR ?gGameServerCode@@3FA ; gGameServerCode
  0173a	50		 push	 eax
  0173b	8b 4d 0c	 mov	 ecx, DWORD PTR _iMAP_NUM$[ebp]
  0173e	51		 push	 ecx
  0173f	8b 55 08	 mov	 edx, DWORD PTR _iIndex$[ebp]
  01742	69 d2 38 2b 00
	00		 imul	 edx, 11064		; 00002b38H
  01748	a1 00 00 00 00	 mov	 eax, DWORD PTR ?gObj@@3PAUOBJECTSTRUCT@@A ; gObj
  0174d	8d 4c 10 77	 lea	 ecx, DWORD PTR [eax+edx+119]
  01751	51		 push	 ecx
  01752	8b 55 08	 mov	 edx, DWORD PTR _iIndex$[ebp]
  01755	69 d2 38 2b 00
	00		 imul	 edx, 11064		; 00002b38H
  0175b	a1 00 00 00 00	 mov	 eax, DWORD PTR ?gObj@@3PAUOBJECTSTRUCT@@A ; gObj
  01760	8d 4c 10 6c	 lea	 ecx, DWORD PTR [eax+edx+108]
  01764	51		 push	 ecx
  01765	68 00 00 00 00	 push	 OFFSET ??_C@_0GK@EEMBMNOK@?$FLMapServerMng?$FN?5CheckMoveMapSvr?$CI?$CJ@
  0176a	ff 15 00 00 00
	00		 call	 DWORD PTR ?LogAddTD@@3P6AXPADZZA ; LogAddTD
  01770	83 c4 20	 add	 esp, 32			; 00000020H

; 535  : 
; 536  : 			return gGameServerCode;

  01773	66 a1 00 00 00
	00		 mov	 ax, WORD PTR ?gGameServerCode@@3FA ; gGameServerCode
  01779	e9 4d 02 00 00	 jmp	 $LN40@CheckMoveM

; 537  : 			break;

  0177e	e9 42 02 00 00	 jmp	 $LN33@CheckMoveM
$LN10@CheckMoveM:

; 538  : 
; 539  : 		default:
; 540  : 			if ( sMAP_MOVE_INFO > -1 )

  01783	0f bf 45 e8	 movsx	 eax, WORD PTR _sMAP_MOVE_INFO$[ebp]
  01787	83 f8 ff	 cmp	 eax, -1
  0178a	0f 8e ee 01 00
	00		 jle	 $LN9@CheckMoveM

; 541  : 			{
; 542  : 				_MAPSVR_DATA * lpDestMapSvrData = NULL;

  01790	c7 45 ac 00 00
	00 00		 mov	 DWORD PTR _lpDestMapSvrData$228963[ebp], 0

; 543  : 
; 544  : 				EnterCriticalSection(&this->m_critSVRCODE_MAP);

  01797	8b 45 f0	 mov	 eax, DWORD PTR _this$[ebp]
  0179a	05 a8 4b 01 00	 add	 eax, 84904		; 00014ba8H
  0179f	50		 push	 eax
  017a0	ff 15 00 00 00
	00		 call	 DWORD PTR __imp__EnterCriticalSection@4

; 545  : 
; 546  : 				std::map<int, _MAPSVR_DATA *>::iterator it = this->m_mapSVRCODE_MAP.find(sMAP_MOVE_INFO);

  017a6	0f bf 45 e8	 movsx	 eax, WORD PTR _sMAP_MOVE_INFO$[ebp]
  017aa	89 85 4c ff ff
	ff		 mov	 DWORD PTR $T230608[ebp], eax
  017b0	8d 8d 4c ff ff
	ff		 lea	 ecx, DWORD PTR $T230608[ebp]
  017b6	51		 push	 ecx
  017b7	8d 55 a8	 lea	 edx, DWORD PTR _it$228977[ebp]
  017ba	52		 push	 edx
  017bb	8b 4d f0	 mov	 ecx, DWORD PTR _this$[ebp]
  017be	81 c1 98 4b 01
	00		 add	 ecx, 84888		; 00014b98H
  017c4	e8 00 00 00 00	 call	 ?find@?$_Tree@V?$_Tmap_traits@HPAU_MAPSVR_DATA@@U?$less@H@std@@V?$allocator@U?$pair@$$CBHPAU_MAPSVR_DATA@@@std@@@3@$0A@@std@@@std@@QAE?AV?$_Tree_iterator@V?$_Tree_val@V?$_Tmap_traits@HPAU_MAPSVR_DATA@@U?$less@H@std@@V?$allocator@U?$pair@$$CBHPAU_MAPSVR_DATA@@@std@@@3@$0A@@std@@@std@@@2@ABH@Z ; std::_Tree<std::_Tmap_traits<int,_MAPSVR_DATA *,std::less<int>,std::allocator<std::pair<int const ,_MAPSVR_DATA *> >,0> >::find

; 547  : 
; 548  : 				if ( it != this->m_mapSVRCODE_MAP.end() )

  017c9	8d 85 50 ff ff
	ff		 lea	 eax, DWORD PTR $T230609[ebp]
  017cf	50		 push	 eax
  017d0	8b 4d f0	 mov	 ecx, DWORD PTR _this$[ebp]
  017d3	81 c1 98 4b 01
	00		 add	 ecx, 84888		; 00014b98H
  017d9	e8 00 00 00 00	 call	 ?end@?$_Tree@V?$_Tmap_traits@HPAU_MAPSVR_DATA@@U?$less@H@std@@V?$allocator@U?$pair@$$CBHPAU_MAPSVR_DATA@@@std@@@3@$0A@@std@@@std@@QAE?AV?$_Tree_iterator@V?$_Tree_val@V?$_Tmap_traits@HPAU_MAPSVR_DATA@@U?$less@H@std@@V?$allocator@U?$pair@$$CBHPAU_MAPSVR_DATA@@@std@@@3@$0A@@std@@@std@@@2@XZ ; std::_Tree<std::_Tmap_traits<int,_MAPSVR_DATA *,std::less<int>,std::allocator<std::pair<int const ,_MAPSVR_DATA *> >,0> >::end
  017de	50		 push	 eax
  017df	8d 4d a8	 lea	 ecx, DWORD PTR _it$228977[ebp]
  017e2	e8 00 00 00 00	 call	 ??9?$_Tree_const_iterator@V?$_Tree_val@V?$_Tmap_traits@HPAU_MAPSVR_DATA@@U?$less@H@std@@V?$allocator@U?$pair@$$CBHPAU_MAPSVR_DATA@@@std@@@3@$0A@@std@@@std@@@std@@QBE_NABV01@@Z ; std::_Tree_const_iterator<std::_Tree_val<std::_Tmap_traits<int,_MAPSVR_DATA *,std::less<int>,std::allocator<std::pair<int const ,_MAPSVR_DATA *> >,0> > >::operator!=
  017e7	0f b6 c8	 movzx	 ecx, al
  017ea	85 c9		 test	 ecx, ecx
  017ec	74 0e		 je	 SHORT $LN8@CheckMoveM

; 549  : 				{
; 550  : 					lpDestMapSvrData = it->second;

  017ee	8d 4d a8	 lea	 ecx, DWORD PTR _it$228977[ebp]
  017f1	e8 00 00 00 00	 call	 ??C?$_Tree_iterator@V?$_Tree_val@V?$_Tmap_traits@HPAU_MAPSVR_DATA@@U?$less@H@std@@V?$allocator@U?$pair@$$CBHPAU_MAPSVR_DATA@@@std@@@3@$0A@@std@@@std@@@std@@QBEPAU?$pair@$$CBHPAU_MAPSVR_DATA@@@1@XZ ; std::_Tree_iterator<std::_Tree_val<std::_Tmap_traits<int,_MAPSVR_DATA *,std::less<int>,std::allocator<std::pair<int const ,_MAPSVR_DATA *> >,0> > >::operator->
  017f6	8b 40 04	 mov	 eax, DWORD PTR [eax+4]
  017f9	89 45 ac	 mov	 DWORD PTR _lpDestMapSvrData$228963[ebp], eax
$LN8@CheckMoveM:

; 551  : 				}
; 552  : 
; 553  : 				LeaveCriticalSection(&this->m_critSVRCODE_MAP);

  017fc	8b 45 f0	 mov	 eax, DWORD PTR _this$[ebp]
  017ff	05 a8 4b 01 00	 add	 eax, 84904		; 00014ba8H
  01804	50		 push	 eax
  01805	ff 15 00 00 00
	00		 call	 DWORD PTR __imp__LeaveCriticalSection@4

; 554  : 
; 555  : 				if ( lpDestMapSvrData != NULL &&
; 556  : 					 lpDestMapSvrData->m_bIN_USE == TRUE &&
; 557  : 					 lpDestMapSvrData->m_sMAP_MOVE[iMAP_NUM] == -3)

  0180b	83 7d ac 00	 cmp	 DWORD PTR _lpDestMapSvrData$228963[ebp], 0
  0180f	74 22		 je	 SHORT $LN7@CheckMoveM
  01811	8b 45 ac	 mov	 eax, DWORD PTR _lpDestMapSvrData$228963[ebp]
  01814	83 78 04 01	 cmp	 DWORD PTR [eax+4], 1
  01818	75 19		 jne	 SHORT $LN7@CheckMoveM
  0181a	8b 45 0c	 mov	 eax, DWORD PTR _iMAP_NUM$[ebp]
  0181d	8b 4d ac	 mov	 ecx, DWORD PTR _lpDestMapSvrData$228963[ebp]
  01820	0f bf 54 41 1e	 movsx	 edx, WORD PTR [ecx+eax*2+30]
  01825	83 fa fd	 cmp	 edx, -3			; fffffffdH
  01828	75 09		 jne	 SHORT $LN7@CheckMoveM

; 558  : 				{
; 559  : 					return sMAP_MOVE_INFO;

  0182a	66 8b 45 e8	 mov	 ax, WORD PTR _sMAP_MOVE_INFO$[ebp]
  0182e	e9 98 01 00 00	 jmp	 $LN40@CheckMoveM
$LN7@CheckMoveM:

; 560  : 				}
; 561  : 
; 562  : 				short sDestServerCode = -1;

  01833	83 c8 ff	 or	 eax, -1
  01836	66 89 45 a4	 mov	 WORD PTR _sDestServerCode$228983[ebp], ax

; 563  : 
; 564  : 				EnterCriticalSection(&this->m_critSVRCODE_MAP);

  0183a	8b 45 f0	 mov	 eax, DWORD PTR _this$[ebp]
  0183d	05 a8 4b 01 00	 add	 eax, 84904		; 00014ba8H
  01842	50		 push	 eax
  01843	ff 15 00 00 00
	00		 call	 DWORD PTR __imp__EnterCriticalSection@4

; 565  : 
; 566  : 				for ( it = this->m_mapSVRCODE_MAP.begin() ; it != this->m_mapSVRCODE_MAP.end() ;it++)

  01849	8d 85 54 ff ff
	ff		 lea	 eax, DWORD PTR $T230610[ebp]
  0184f	50		 push	 eax
  01850	8b 4d f0	 mov	 ecx, DWORD PTR _this$[ebp]
  01853	81 c1 98 4b 01
	00		 add	 ecx, 84888		; 00014b98H
  01859	e8 00 00 00 00	 call	 ?begin@?$_Tree@V?$_Tmap_traits@HPAU_MAPSVR_DATA@@U?$less@H@std@@V?$allocator@U?$pair@$$CBHPAU_MAPSVR_DATA@@@std@@@3@$0A@@std@@@std@@QAE?AV?$_Tree_iterator@V?$_Tree_val@V?$_Tmap_traits@HPAU_MAPSVR_DATA@@U?$less@H@std@@V?$allocator@U?$pair@$$CBHPAU_MAPSVR_DATA@@@std@@@3@$0A@@std@@@std@@@2@XZ ; std::_Tree<std::_Tmap_traits<int,_MAPSVR_DATA *,std::less<int>,std::allocator<std::pair<int const ,_MAPSVR_DATA *> >,0> >::begin
  0185e	8b 08		 mov	 ecx, DWORD PTR [eax]
  01860	89 4d a8	 mov	 DWORD PTR _it$228977[ebp], ecx
  01863	eb 11		 jmp	 SHORT $LN6@CheckMoveM
$LN5@CheckMoveM:
  01865	6a 00		 push	 0
  01867	8d 85 58 ff ff
	ff		 lea	 eax, DWORD PTR $T230611[ebp]
  0186d	50		 push	 eax
  0186e	8d 4d a8	 lea	 ecx, DWORD PTR _it$228977[ebp]
  01871	e8 00 00 00 00	 call	 ??E?$_Tree_iterator@V?$_Tree_val@V?$_Tmap_traits@HPAU_MAPSVR_DATA@@U?$less@H@std@@V?$allocator@U?$pair@$$CBHPAU_MAPSVR_DATA@@@std@@@3@$0A@@std@@@std@@@std@@QAE?AV01@H@Z ; std::_Tree_iterator<std::_Tree_val<std::_Tmap_traits<int,_MAPSVR_DATA *,std::less<int>,std::allocator<std::pair<int const ,_MAPSVR_DATA *> >,0> > >::operator++
$LN6@CheckMoveM:
  01876	8d 85 5c ff ff
	ff		 lea	 eax, DWORD PTR $T230612[ebp]
  0187c	50		 push	 eax
  0187d	8b 4d f0	 mov	 ecx, DWORD PTR _this$[ebp]
  01880	81 c1 98 4b 01
	00		 add	 ecx, 84888		; 00014b98H
  01886	e8 00 00 00 00	 call	 ?end@?$_Tree@V?$_Tmap_traits@HPAU_MAPSVR_DATA@@U?$less@H@std@@V?$allocator@U?$pair@$$CBHPAU_MAPSVR_DATA@@@std@@@3@$0A@@std@@@std@@QAE?AV?$_Tree_iterator@V?$_Tree_val@V?$_Tmap_traits@HPAU_MAPSVR_DATA@@U?$less@H@std@@V?$allocator@U?$pair@$$CBHPAU_MAPSVR_DATA@@@std@@@3@$0A@@std@@@std@@@2@XZ ; std::_Tree<std::_Tmap_traits<int,_MAPSVR_DATA *,std::less<int>,std::allocator<std::pair<int const ,_MAPSVR_DATA *> >,0> >::end
  0188b	50		 push	 eax
  0188c	8d 4d a8	 lea	 ecx, DWORD PTR _it$228977[ebp]
  0188f	e8 00 00 00 00	 call	 ??9?$_Tree_const_iterator@V?$_Tree_val@V?$_Tmap_traits@HPAU_MAPSVR_DATA@@U?$less@H@std@@V?$allocator@U?$pair@$$CBHPAU_MAPSVR_DATA@@@std@@@3@$0A@@std@@@std@@@std@@QBE_NABV01@@Z ; std::_Tree_const_iterator<std::_Tree_val<std::_Tmap_traits<int,_MAPSVR_DATA *,std::less<int>,std::allocator<std::pair<int const ,_MAPSVR_DATA *> >,0> > >::operator!=
  01894	0f b6 c8	 movzx	 ecx, al
  01897	85 c9		 test	 ecx, ecx
  01899	74 3a		 je	 SHORT $LN4@CheckMoveM

; 567  : 				{
; 568  : 					_MAPSVR_DATA * lpTempMapSvrData = it->second;

  0189b	8d 4d a8	 lea	 ecx, DWORD PTR _it$228977[ebp]
  0189e	e8 00 00 00 00	 call	 ??C?$_Tree_iterator@V?$_Tree_val@V?$_Tmap_traits@HPAU_MAPSVR_DATA@@U?$less@H@std@@V?$allocator@U?$pair@$$CBHPAU_MAPSVR_DATA@@@std@@@3@$0A@@std@@@std@@@std@@QBEPAU?$pair@$$CBHPAU_MAPSVR_DATA@@@1@XZ ; std::_Tree_iterator<std::_Tree_val<std::_Tmap_traits<int,_MAPSVR_DATA *,std::less<int>,std::allocator<std::pair<int const ,_MAPSVR_DATA *> >,0> > >::operator->
  018a3	8b 40 04	 mov	 eax, DWORD PTR [eax+4]
  018a6	89 45 a0	 mov	 DWORD PTR _lpTempMapSvrData$228990[ebp], eax

; 569  : 
; 570  : 					if ( lpTempMapSvrData != NULL &&
; 571  : 						 lpTempMapSvrData->m_bIN_USE == TRUE &&
; 572  : 						 lpTempMapSvrData->m_sMAP_MOVE[iMAP_NUM] == -3)

  018a9	83 7d a0 00	 cmp	 DWORD PTR _lpTempMapSvrData$228990[ebp], 0
  018ad	74 24		 je	 SHORT $LN3@CheckMoveM
  018af	8b 45 a0	 mov	 eax, DWORD PTR _lpTempMapSvrData$228990[ebp]
  018b2	83 78 04 01	 cmp	 DWORD PTR [eax+4], 1
  018b6	75 1b		 jne	 SHORT $LN3@CheckMoveM
  018b8	8b 45 0c	 mov	 eax, DWORD PTR _iMAP_NUM$[ebp]
  018bb	8b 4d a0	 mov	 ecx, DWORD PTR _lpTempMapSvrData$228990[ebp]
  018be	0f bf 54 41 1e	 movsx	 edx, WORD PTR [ecx+eax*2+30]
  018c3	83 fa fd	 cmp	 edx, -3			; fffffffdH
  018c6	75 0b		 jne	 SHORT $LN3@CheckMoveM

; 573  : 					{
; 574  : 						sDestServerCode = lpTempMapSvrData->m_sSVR_CODE;

  018c8	8b 45 a0	 mov	 eax, DWORD PTR _lpTempMapSvrData$228990[ebp]
  018cb	66 8b 48 0a	 mov	 cx, WORD PTR [eax+10]
  018cf	66 89 4d a4	 mov	 WORD PTR _sDestServerCode$228983[ebp], cx
$LN3@CheckMoveM:

; 575  : 					}
; 576  : 				}

  018d3	eb 90		 jmp	 SHORT $LN5@CheckMoveM
$LN4@CheckMoveM:

; 577  : 				
; 578  : 				LeaveCriticalSection(&this->m_critSVRCODE_MAP);

  018d5	8b 45 f0	 mov	 eax, DWORD PTR _this$[ebp]
  018d8	05 a8 4b 01 00	 add	 eax, 84904		; 00014ba8H
  018dd	50		 push	 eax
  018de	ff 15 00 00 00
	00		 call	 DWORD PTR __imp__LeaveCriticalSection@4

; 579  : 
; 580  : 				if ( sDestServerCode != -1 )

  018e4	0f bf 45 a4	 movsx	 eax, WORD PTR _sDestServerCode$228983[ebp]
  018e8	83 f8 ff	 cmp	 eax, -1
  018eb	0f 84 8b 00 00
	00		 je	 $LN2@CheckMoveM

; 581  : 				{
; 582  : 					LogAddTD("[MapServerMng] CheckMoveMapSvr() - MapServer Check OK [%s][%s] : MAP-%d / SVR-%d(State Map:%d X:%d Y:%d)",
; 583  : 						gObj[iIndex].AccountID, gObj[iIndex].Name, iMAP_NUM, sDestServerCode,
; 584  : 						gObj[iIndex].MapNumber, gObj[iIndex].X, gObj[iIndex].Y);

  018f1	8b 45 08	 mov	 eax, DWORD PTR _iIndex$[ebp]
  018f4	69 c0 38 2b 00
	00		 imul	 eax, 11064		; 00002b38H
  018fa	8b 0d 00 00 00
	00		 mov	 ecx, DWORD PTR ?gObj@@3PAUOBJECTSTRUCT@@A ; gObj
  01900	0f bf 94 01 46
	01 00 00	 movsx	 edx, WORD PTR [ecx+eax+326]
  01908	52		 push	 edx
  01909	8b 45 08	 mov	 eax, DWORD PTR _iIndex$[ebp]
  0190c	69 c0 38 2b 00
	00		 imul	 eax, 11064		; 00002b38H
  01912	8b 0d 00 00 00
	00		 mov	 ecx, DWORD PTR ?gObj@@3PAUOBJECTSTRUCT@@A ; gObj
  01918	0f bf 94 01 44
	01 00 00	 movsx	 edx, WORD PTR [ecx+eax+324]
  01920	52		 push	 edx
  01921	8b 45 08	 mov	 eax, DWORD PTR _iIndex$[ebp]
  01924	69 c0 38 2b 00
	00		 imul	 eax, 11064		; 00002b38H
  0192a	8b 0d 00 00 00
	00		 mov	 ecx, DWORD PTR ?gObj@@3PAUOBJECTSTRUCT@@A ; gObj
  01930	0f b6 94 01 49
	01 00 00	 movzx	 edx, BYTE PTR [ecx+eax+329]
  01938	52		 push	 edx
  01939	0f bf 45 a4	 movsx	 eax, WORD PTR _sDestServerCode$228983[ebp]
  0193d	50		 push	 eax
  0193e	8b 4d 0c	 mov	 ecx, DWORD PTR _iMAP_NUM$[ebp]
  01941	51		 push	 ecx
  01942	8b 55 08	 mov	 edx, DWORD PTR _iIndex$[ebp]
  01945	69 d2 38 2b 00
	00		 imul	 edx, 11064		; 00002b38H
  0194b	a1 00 00 00 00	 mov	 eax, DWORD PTR ?gObj@@3PAUOBJECTSTRUCT@@A ; gObj
  01950	8d 4c 10 77	 lea	 ecx, DWORD PTR [eax+edx+119]
  01954	51		 push	 ecx
  01955	8b 55 08	 mov	 edx, DWORD PTR _iIndex$[ebp]
  01958	69 d2 38 2b 00
	00		 imul	 edx, 11064		; 00002b38H
  0195e	a1 00 00 00 00	 mov	 eax, DWORD PTR ?gObj@@3PAUOBJECTSTRUCT@@A ; gObj
  01963	8d 4c 10 6c	 lea	 ecx, DWORD PTR [eax+edx+108]
  01967	51		 push	 ecx
  01968	68 00 00 00 00	 push	 OFFSET ??_C@_0GJ@HAGGDALD@?$FLMapServerMng?$FN?5CheckMoveMapSvr?$CI?$CJ@
  0196d	ff 15 00 00 00
	00		 call	 DWORD PTR ?LogAddTD@@3P6AXPADZZA ; LogAddTD
  01973	83 c4 20	 add	 esp, 32			; 00000020H

; 585  : 
; 586  : 					return sDestServerCode;

  01976	66 8b 45 a4	 mov	 ax, WORD PTR _sDestServerCode$228983[ebp]
  0197a	eb 4f		 jmp	 SHORT $LN40@CheckMoveM
$LN2@CheckMoveM:

; 587  : 				}
; 588  : 			}
; 589  : 			else

  0197c	eb 47		 jmp	 SHORT $LN33@CheckMoveM
$LN9@CheckMoveM:

; 590  : 			{
; 591  : 				LogAddC(2, "[MapServerMng] CheckMoveMapSvr() - Unknown MapMove Info [%s][%s] : MAP-%d / INFO-%d",
; 592  : 					gObj[iIndex].AccountID, gObj[iIndex].Name, iMAP_NUM, sMAP_MOVE_INFO);

  0197e	0f bf 45 e8	 movsx	 eax, WORD PTR _sMAP_MOVE_INFO$[ebp]
  01982	50		 push	 eax
  01983	8b 4d 0c	 mov	 ecx, DWORD PTR _iMAP_NUM$[ebp]
  01986	51		 push	 ecx
  01987	8b 55 08	 mov	 edx, DWORD PTR _iIndex$[ebp]
  0198a	69 d2 38 2b 00
	00		 imul	 edx, 11064		; 00002b38H
  01990	a1 00 00 00 00	 mov	 eax, DWORD PTR ?gObj@@3PAUOBJECTSTRUCT@@A ; gObj
  01995	8d 4c 10 77	 lea	 ecx, DWORD PTR [eax+edx+119]
  01999	51		 push	 ecx
  0199a	8b 55 08	 mov	 edx, DWORD PTR _iIndex$[ebp]
  0199d	69 d2 38 2b 00
	00		 imul	 edx, 11064		; 00002b38H
  019a3	a1 00 00 00 00	 mov	 eax, DWORD PTR ?gObj@@3PAUOBJECTSTRUCT@@A ; gObj
  019a8	8d 4c 10 6c	 lea	 ecx, DWORD PTR [eax+edx+108]
  019ac	51		 push	 ecx
  019ad	68 00 00 00 00	 push	 OFFSET ??_C@_0FE@HMFMELGB@?$FLMapServerMng?$FN?5CheckMoveMapSvr?$CI?$CJ@
  019b2	6a 02		 push	 2
  019b4	ff 15 00 00 00
	00		 call	 DWORD PTR ?LogAddC@@3P6AXEPADZZA ; LogAddC
  019ba	83 c4 18	 add	 esp, 24			; 00000018H

; 593  : 
; 594  : 				return gGameServerCode;

  019bd	66 a1 00 00 00
	00		 mov	 ax, WORD PTR ?gGameServerCode@@3FA ; gGameServerCode
  019c3	eb 06		 jmp	 SHORT $LN40@CheckMoveM
$LN33@CheckMoveM:

; 595  : 			}
; 596  : 	}
; 597  : 
; 598  : 	return gGameServerCode;

  019c5	66 a1 00 00 00
	00		 mov	 ax, WORD PTR ?gGameServerCode@@3FA ; gGameServerCode
$LN40@CheckMoveM:

; 599  : }

  019cb	8b 4d f4	 mov	 ecx, DWORD PTR __$EHRec$[ebp]
  019ce	64 89 0d 00 00
	00 00		 mov	 DWORD PTR fs:0, ecx
  019d5	59		 pop	 ecx
  019d6	5f		 pop	 edi
  019d7	5e		 pop	 esi
  019d8	5b		 pop	 ebx
  019d9	8b e5		 mov	 esp, ebp
  019db	5d		 pop	 ebp
  019dc	c2 0c 00	 ret	 12			; 0000000cH
_TEXT	ENDS
text$x	SEGMENT
__unwindfunclet$?CheckMoveMapSvr@CMapServerManager@@QAEFHHF@Z$0:
  0006e	8d 4d d0	 lea	 ecx, DWORD PTR _vtMapSvrData$228884[ebp]
  00071	e9 00 00 00 00	 jmp	 ??1?$vector@PAU_MAPSVR_DATA@@V?$allocator@PAU_MAPSVR_DATA@@@std@@@std@@QAE@XZ ; std::vector<_MAPSVR_DATA *,std::allocator<_MAPSVR_DATA *> >::~vector<_MAPSVR_DATA *,std::allocator<_MAPSVR_DATA *> >
__ehhandler$?CheckMoveMapSvr@CMapServerManager@@QAEFHHF@Z:
  00076	8b 54 24 08	 mov	 edx, DWORD PTR [esp+8]
  0007a	8d 42 0c	 lea	 eax, DWORD PTR [edx+12]
  0007d	8b 8a 20 ff ff
	ff		 mov	 ecx, DWORD PTR [edx-224]
  00083	33 c8		 xor	 ecx, eax
  00085	e8 00 00 00 00	 call	 @__security_check_cookie@4
  0008a	b8 00 00 00 00	 mov	 eax, OFFSET __ehfuncinfo$?CheckMoveMapSvr@CMapServerManager@@QAEFHHF@Z
  0008f	e9 00 00 00 00	 jmp	 ___CxxFrameHandler3
text$x	ENDS
?CheckMoveMapSvr@CMapServerManager@@QAEFHHF@Z ENDP	; CMapServerManager::CheckMoveMapSvr
PUBLIC	?GetSvrCodeData@CMapServerManager@@QAEHGPADPAG@Z ; CMapServerManager::GetSvrCodeData
EXTRN	_strcpy:PROC
; Function compile flags: /Odtp /ZI
_TEXT	SEGMENT
$T230619 = -84						; size = 4
$T230620 = -80						; size = 4
_it$ = -12						; size = 4
_lpMapSvrData$ = -8					; size = 4
_this$ = -4						; size = 4
_wServerCode$ = 8					; size = 2
_lpszIpAddress$ = 12					; size = 4
_lpwPort$ = 16						; size = 4
?GetSvrCodeData@CMapServerManager@@QAEHGPADPAG@Z PROC	; CMapServerManager::GetSvrCodeData
; _this$ = ecx

; 605  : {

  019e0	55		 push	 ebp
  019e1	8b ec		 mov	 ebp, esp
  019e3	83 ec 54	 sub	 esp, 84			; 00000054H
  019e6	53		 push	 ebx
  019e7	56		 push	 esi
  019e8	57		 push	 edi
  019e9	89 4d fc	 mov	 DWORD PTR _this$[ebp], ecx

; 606  : 	if ( !lpszIpAddress || !lpwPort )

  019ec	83 7d 0c 00	 cmp	 DWORD PTR _lpszIpAddress$[ebp], 0
  019f0	74 06		 je	 SHORT $LN3@GetSvrCode
  019f2	83 7d 10 00	 cmp	 DWORD PTR _lpwPort$[ebp], 0
  019f6	75 07		 jne	 SHORT $LN4@GetSvrCode
$LN3@GetSvrCode:

; 607  : 		return FALSE;

  019f8	33 c0		 xor	 eax, eax
  019fa	e9 a1 00 00 00	 jmp	 $LN5@GetSvrCode
$LN4@GetSvrCode:

; 608  : 
; 609  : 	_MAPSVR_DATA * lpMapSvrData = NULL;

  019ff	c7 45 f8 00 00
	00 00		 mov	 DWORD PTR _lpMapSvrData$[ebp], 0

; 610  : 
; 611  : 	EnterCriticalSection(&this->m_critSVRCODE_MAP);

  01a06	8b 45 fc	 mov	 eax, DWORD PTR _this$[ebp]
  01a09	05 a8 4b 01 00	 add	 eax, 84904		; 00014ba8H
  01a0e	50		 push	 eax
  01a0f	ff 15 00 00 00
	00		 call	 DWORD PTR __imp__EnterCriticalSection@4

; 612  : 
; 613  : 	std::map<int, _MAPSVR_DATA *>::iterator it = this->m_mapSVRCODE_MAP.find(wServerCode);

  01a15	0f b7 45 08	 movzx	 eax, WORD PTR _wServerCode$[ebp]
  01a19	89 45 ac	 mov	 DWORD PTR $T230619[ebp], eax
  01a1c	8d 4d ac	 lea	 ecx, DWORD PTR $T230619[ebp]
  01a1f	51		 push	 ecx
  01a20	8d 55 f4	 lea	 edx, DWORD PTR _it$[ebp]
  01a23	52		 push	 edx
  01a24	8b 4d fc	 mov	 ecx, DWORD PTR _this$[ebp]
  01a27	81 c1 98 4b 01
	00		 add	 ecx, 84888		; 00014b98H
  01a2d	e8 00 00 00 00	 call	 ?find@?$_Tree@V?$_Tmap_traits@HPAU_MAPSVR_DATA@@U?$less@H@std@@V?$allocator@U?$pair@$$CBHPAU_MAPSVR_DATA@@@std@@@3@$0A@@std@@@std@@QAE?AV?$_Tree_iterator@V?$_Tree_val@V?$_Tmap_traits@HPAU_MAPSVR_DATA@@U?$less@H@std@@V?$allocator@U?$pair@$$CBHPAU_MAPSVR_DATA@@@std@@@3@$0A@@std@@@std@@@2@ABH@Z ; std::_Tree<std::_Tmap_traits<int,_MAPSVR_DATA *,std::less<int>,std::allocator<std::pair<int const ,_MAPSVR_DATA *> >,0> >::find

; 614  : 
; 615  : 	if ( it != this->m_mapSVRCODE_MAP.end() )

  01a32	8d 45 b0	 lea	 eax, DWORD PTR $T230620[ebp]
  01a35	50		 push	 eax
  01a36	8b 4d fc	 mov	 ecx, DWORD PTR _this$[ebp]
  01a39	81 c1 98 4b 01
	00		 add	 ecx, 84888		; 00014b98H
  01a3f	e8 00 00 00 00	 call	 ?end@?$_Tree@V?$_Tmap_traits@HPAU_MAPSVR_DATA@@U?$less@H@std@@V?$allocator@U?$pair@$$CBHPAU_MAPSVR_DATA@@@std@@@3@$0A@@std@@@std@@QAE?AV?$_Tree_iterator@V?$_Tree_val@V?$_Tmap_traits@HPAU_MAPSVR_DATA@@U?$less@H@std@@V?$allocator@U?$pair@$$CBHPAU_MAPSVR_DATA@@@std@@@3@$0A@@std@@@std@@@2@XZ ; std::_Tree<std::_Tmap_traits<int,_MAPSVR_DATA *,std::less<int>,std::allocator<std::pair<int const ,_MAPSVR_DATA *> >,0> >::end
  01a44	50		 push	 eax
  01a45	8d 4d f4	 lea	 ecx, DWORD PTR _it$[ebp]
  01a48	e8 00 00 00 00	 call	 ??9?$_Tree_const_iterator@V?$_Tree_val@V?$_Tmap_traits@HPAU_MAPSVR_DATA@@U?$less@H@std@@V?$allocator@U?$pair@$$CBHPAU_MAPSVR_DATA@@@std@@@3@$0A@@std@@@std@@@std@@QBE_NABV01@@Z ; std::_Tree_const_iterator<std::_Tree_val<std::_Tmap_traits<int,_MAPSVR_DATA *,std::less<int>,std::allocator<std::pair<int const ,_MAPSVR_DATA *> >,0> > >::operator!=
  01a4d	0f b6 c8	 movzx	 ecx, al
  01a50	85 c9		 test	 ecx, ecx
  01a52	74 0e		 je	 SHORT $LN2@GetSvrCode

; 616  : 	{
; 617  : 		lpMapSvrData = it->second;

  01a54	8d 4d f4	 lea	 ecx, DWORD PTR _it$[ebp]
  01a57	e8 00 00 00 00	 call	 ??C?$_Tree_iterator@V?$_Tree_val@V?$_Tmap_traits@HPAU_MAPSVR_DATA@@U?$less@H@std@@V?$allocator@U?$pair@$$CBHPAU_MAPSVR_DATA@@@std@@@3@$0A@@std@@@std@@@std@@QBEPAU?$pair@$$CBHPAU_MAPSVR_DATA@@@1@XZ ; std::_Tree_iterator<std::_Tree_val<std::_Tmap_traits<int,_MAPSVR_DATA *,std::less<int>,std::allocator<std::pair<int const ,_MAPSVR_DATA *> >,0> > >::operator->
  01a5c	8b 40 04	 mov	 eax, DWORD PTR [eax+4]
  01a5f	89 45 f8	 mov	 DWORD PTR _lpMapSvrData$[ebp], eax
$LN2@GetSvrCode:

; 618  : 	}
; 619  : 
; 620  : 	LeaveCriticalSection(&this->m_critSVRCODE_MAP);

  01a62	8b 45 fc	 mov	 eax, DWORD PTR _this$[ebp]
  01a65	05 a8 4b 01 00	 add	 eax, 84904		; 00014ba8H
  01a6a	50		 push	 eax
  01a6b	ff 15 00 00 00
	00		 call	 DWORD PTR __imp__LeaveCriticalSection@4

; 621  : 
; 622  : 	if ( lpMapSvrData == NULL )

  01a71	83 7d f8 00	 cmp	 DWORD PTR _lpMapSvrData$[ebp], 0
  01a75	75 04		 jne	 SHORT $LN1@GetSvrCode

; 623  : 		return FALSE;

  01a77	33 c0		 xor	 eax, eax
  01a79	eb 25		 jmp	 SHORT $LN5@GetSvrCode
$LN1@GetSvrCode:

; 624  : 
; 625  : 	strcpy(lpszIpAddress, lpMapSvrData->m_cIPADDR);

  01a7b	8b 45 f8	 mov	 eax, DWORD PTR _lpMapSvrData$[ebp]
  01a7e	83 c0 0c	 add	 eax, 12			; 0000000cH
  01a81	50		 push	 eax
  01a82	8b 4d 0c	 mov	 ecx, DWORD PTR _lpszIpAddress$[ebp]
  01a85	51		 push	 ecx
  01a86	e8 00 00 00 00	 call	 _strcpy
  01a8b	83 c4 08	 add	 esp, 8

; 626  : 	*lpwPort = lpMapSvrData->m_wPORT;

  01a8e	8b 45 10	 mov	 eax, DWORD PTR _lpwPort$[ebp]
  01a91	8b 4d f8	 mov	 ecx, DWORD PTR _lpMapSvrData$[ebp]
  01a94	66 8b 51 1c	 mov	 dx, WORD PTR [ecx+28]
  01a98	66 89 10	 mov	 WORD PTR [eax], dx

; 627  : 
; 628  : 	return TRUE;

  01a9b	b8 01 00 00 00	 mov	 eax, 1
$LN5@GetSvrCode:

; 629  : }

  01aa0	5f		 pop	 edi
  01aa1	5e		 pop	 esi
  01aa2	5b		 pop	 ebx
  01aa3	8b e5		 mov	 esp, ebp
  01aa5	5d		 pop	 ebp
  01aa6	c2 0c 00	 ret	 12			; 0000000cH
?GetSvrCodeData@CMapServerManager@@QAEHGPADPAG@Z ENDP	; CMapServerManager::GetSvrCodeData
_TEXT	ENDS
PUBLIC	??0?$_Tree@V?$_Tmap_traits@HPAU_MAPSVR_DATA@@U?$less@H@std@@V?$allocator@U?$pair@$$CBHPAU_MAPSVR_DATA@@@std@@@3@$0A@@std@@@std@@QAE@ABU?$less@H@1@ABV?$allocator@U?$pair@$$CBHPAU_MAPSVR_DATA@@@std@@@1@@Z ; std::_Tree<std::_Tmap_traits<int,_MAPSVR_DATA *,std::less<int>,std::allocator<std::pair<int const ,_MAPSVR_DATA *> >,0> >::_Tree<std::_Tmap_traits<int,_MAPSVR_DATA *,std::less<int>,std::allocator<std::pair<int const ,_MAPSVR_DATA *> >,0> >
PUBLIC	??0?$allocator@U?$pair@$$CBHPAU_MAPSVR_DATA@@@std@@@std@@QAE@XZ ; std::allocator<std::pair<int const ,_MAPSVR_DATA *> >::allocator<std::pair<int const ,_MAPSVR_DATA *> >
; Function compile flags: /Odtp /ZI
; File d:\microsoft visual studio 10.0\vc\include\map
;	COMDAT ??0?$map@HPAU_MAPSVR_DATA@@U?$less@H@std@@V?$allocator@U?$pair@$$CBHPAU_MAPSVR_DATA@@@std@@@3@@std@@QAE@XZ
_TEXT	SEGMENT
$T230622 = -70						; size = 1
$T230623 = -69						; size = 1
_this$ = -4						; size = 4
??0?$map@HPAU_MAPSVR_DATA@@U?$less@H@std@@V?$allocator@U?$pair@$$CBHPAU_MAPSVR_DATA@@@std@@@3@@std@@QAE@XZ PROC ; std::map<int,_MAPSVR_DATA *,std::less<int>,std::allocator<std::pair<int const ,_MAPSVR_DATA *> > >::map<int,_MAPSVR_DATA *,std::less<int>,std::allocator<std::pair<int const ,_MAPSVR_DATA *> > >, COMDAT
; _this$ = ecx

; 106  : 		{	// construct empty map from defaults

  00000	55		 push	 ebp
  00001	8b ec		 mov	 ebp, esp
  00003	83 ec 48	 sub	 esp, 72			; 00000048H
  00006	53		 push	 ebx
  00007	56		 push	 esi
  00008	57		 push	 edi
  00009	89 4d fc	 mov	 DWORD PTR _this$[ebp], ecx
  0000c	8d 4d ba	 lea	 ecx, DWORD PTR $T230622[ebp]
  0000f	e8 00 00 00 00	 call	 ??0?$allocator@U?$pair@$$CBHPAU_MAPSVR_DATA@@@std@@@std@@QAE@XZ ; std::allocator<std::pair<int const ,_MAPSVR_DATA *> >::allocator<std::pair<int const ,_MAPSVR_DATA *> >
  00014	50		 push	 eax
  00015	8d 45 bb	 lea	 eax, DWORD PTR $T230623[ebp]
  00018	50		 push	 eax
  00019	8b 4d fc	 mov	 ecx, DWORD PTR _this$[ebp]
  0001c	e8 00 00 00 00	 call	 ??0?$_Tree@V?$_Tmap_traits@HPAU_MAPSVR_DATA@@U?$less@H@std@@V?$allocator@U?$pair@$$CBHPAU_MAPSVR_DATA@@@std@@@3@$0A@@std@@@std@@QAE@ABU?$less@H@1@ABV?$allocator@U?$pair@$$CBHPAU_MAPSVR_DATA@@@std@@@1@@Z ; std::_Tree<std::_Tmap_traits<int,_MAPSVR_DATA *,std::less<int>,std::allocator<std::pair<int const ,_MAPSVR_DATA *> >,0> >::_Tree<std::_Tmap_traits<int,_MAPSVR_DATA *,std::less<int>,std::allocator<std::pair<int const ,_MAPSVR_DATA *> >,0> >

; 107  : 		}

  00021	8b 45 fc	 mov	 eax, DWORD PTR _this$[ebp]
  00024	5f		 pop	 edi
  00025	5e		 pop	 esi
  00026	5b		 pop	 ebx
  00027	8b e5		 mov	 esp, ebp
  00029	5d		 pop	 ebp
  0002a	c3		 ret	 0
??0?$map@HPAU_MAPSVR_DATA@@U?$less@H@std@@V?$allocator@U?$pair@$$CBHPAU_MAPSVR_DATA@@@std@@@3@@std@@QAE@XZ ENDP ; std::map<int,_MAPSVR_DATA *,std::less<int>,std::allocator<std::pair<int const ,_MAPSVR_DATA *> > >::map<int,_MAPSVR_DATA *,std::less<int>,std::allocator<std::pair<int const ,_MAPSVR_DATA *> > >
_TEXT	ENDS
PUBLIC	??1?$_Tree_val@V?$_Tmap_traits@HPAU_MAPSVR_DATA@@U?$less@H@std@@V?$allocator@U?$pair@$$CBHPAU_MAPSVR_DATA@@@std@@@3@$0A@@std@@@std@@QAE@XZ ; std::_Tree_val<std::_Tmap_traits<int,_MAPSVR_DATA *,std::less<int>,std::allocator<std::pair<int const ,_MAPSVR_DATA *> >,0> >::~_Tree_val<std::_Tmap_traits<int,_MAPSVR_DATA *,std::less<int>,std::allocator<std::pair<int const ,_MAPSVR_DATA *> >,0> >
PUBLIC	?_Tidy@?$_Tree@V?$_Tmap_traits@HPAU_MAPSVR_DATA@@U?$less@H@std@@V?$allocator@U?$pair@$$CBHPAU_MAPSVR_DATA@@@std@@@3@$0A@@std@@@std@@IAEXXZ ; std::_Tree<std::_Tmap_traits<int,_MAPSVR_DATA *,std::less<int>,std::allocator<std::pair<int const ,_MAPSVR_DATA *> >,0> >::_Tidy
;	COMDAT xdata$x
; File d:\microsoft visual studio 10.0\vc\include\xtree
xdata$x	SEGMENT
__unwindtable$??1?$_Tree@V?$_Tmap_traits@HPAU_MAPSVR_DATA@@U?$less@H@std@@V?$allocator@U?$pair@$$CBHPAU_MAPSVR_DATA@@@std@@@3@$0A@@std@@@std@@QAE@XZ DD 0ffffffffH
	DD	FLAT:__unwindfunclet$??1?$_Tree@V?$_Tmap_traits@HPAU_MAPSVR_DATA@@U?$less@H@std@@V?$allocator@U?$pair@$$CBHPAU_MAPSVR_DATA@@@std@@@3@$0A@@std@@@std@@QAE@XZ$0
__ehfuncinfo$??1?$_Tree@V?$_Tmap_traits@HPAU_MAPSVR_DATA@@U?$less@H@std@@V?$allocator@U?$pair@$$CBHPAU_MAPSVR_DATA@@@std@@@3@$0A@@std@@@std@@QAE@XZ DD 019930522H
	DD	01H
	DD	FLAT:__unwindtable$??1?$_Tree@V?$_Tmap_traits@HPAU_MAPSVR_DATA@@U?$less@H@std@@V?$allocator@U?$pair@$$CBHPAU_MAPSVR_DATA@@@std@@@3@$0A@@std@@@std@@QAE@XZ
	DD	2 DUP(00H)
	DD	2 DUP(00H)
	DD	00H
	DD	01H
; Function compile flags: /Odtp /ZI
xdata$x	ENDS
;	COMDAT ??1?$_Tree@V?$_Tmap_traits@HPAU_MAPSVR_DATA@@U?$less@H@std@@V?$allocator@U?$pair@$$CBHPAU_MAPSVR_DATA@@@std@@@3@$0A@@std@@@std@@QAE@XZ
_TEXT	SEGMENT
_this$ = -16						; size = 4
__$EHRec$ = -12						; size = 12
??1?$_Tree@V?$_Tmap_traits@HPAU_MAPSVR_DATA@@U?$less@H@std@@V?$allocator@U?$pair@$$CBHPAU_MAPSVR_DATA@@@std@@@3@$0A@@std@@@std@@QAE@XZ PROC ; std::_Tree<std::_Tmap_traits<int,_MAPSVR_DATA *,std::less<int>,std::allocator<std::pair<int const ,_MAPSVR_DATA *> >,0> >::~_Tree<std::_Tmap_traits<int,_MAPSVR_DATA *,std::less<int>,std::allocator<std::pair<int const ,_MAPSVR_DATA *> >,0> >, COMDAT
; _this$ = ecx

; 790  : 		{	// destroy tree

  00000	55		 push	 ebp
  00001	8b ec		 mov	 ebp, esp
  00003	6a ff		 push	 -1
  00005	68 00 00 00 00	 push	 __ehhandler$??1?$_Tree@V?$_Tmap_traits@HPAU_MAPSVR_DATA@@U?$less@H@std@@V?$allocator@U?$pair@$$CBHPAU_MAPSVR_DATA@@@std@@@3@$0A@@std@@@std@@QAE@XZ
  0000a	64 a1 00 00 00
	00		 mov	 eax, DWORD PTR fs:0
  00010	50		 push	 eax
  00011	83 ec 44	 sub	 esp, 68			; 00000044H
  00014	53		 push	 ebx
  00015	56		 push	 esi
  00016	57		 push	 edi
  00017	a1 00 00 00 00	 mov	 eax, DWORD PTR ___security_cookie
  0001c	33 c5		 xor	 eax, ebp
  0001e	50		 push	 eax
  0001f	8d 45 f4	 lea	 eax, DWORD PTR __$EHRec$[ebp]
  00022	64 a3 00 00 00
	00		 mov	 DWORD PTR fs:0, eax
  00028	89 4d f0	 mov	 DWORD PTR _this$[ebp], ecx
  0002b	c7 45 fc 00 00
	00 00		 mov	 DWORD PTR __$EHRec$[ebp+8], 0

; 791  : 		_Tidy();

  00032	8b 4d f0	 mov	 ecx, DWORD PTR _this$[ebp]
  00035	e8 00 00 00 00	 call	 ?_Tidy@?$_Tree@V?$_Tmap_traits@HPAU_MAPSVR_DATA@@U?$less@H@std@@V?$allocator@U?$pair@$$CBHPAU_MAPSVR_DATA@@@std@@@3@$0A@@std@@@std@@IAEXXZ ; std::_Tree<std::_Tmap_traits<int,_MAPSVR_DATA *,std::less<int>,std::allocator<std::pair<int const ,_MAPSVR_DATA *> >,0> >::_Tidy

; 792  : 		}

  0003a	c7 45 fc ff ff
	ff ff		 mov	 DWORD PTR __$EHRec$[ebp+8], -1
  00041	8b 4d f0	 mov	 ecx, DWORD PTR _this$[ebp]
  00044	e8 00 00 00 00	 call	 ??1?$_Tree_val@V?$_Tmap_traits@HPAU_MAPSVR_DATA@@U?$less@H@std@@V?$allocator@U?$pair@$$CBHPAU_MAPSVR_DATA@@@std@@@3@$0A@@std@@@std@@QAE@XZ ; std::_Tree_val<std::_Tmap_traits<int,_MAPSVR_DATA *,std::less<int>,std::allocator<std::pair<int const ,_MAPSVR_DATA *> >,0> >::~_Tree_val<std::_Tmap_traits<int,_MAPSVR_DATA *,std::less<int>,std::allocator<std::pair<int const ,_MAPSVR_DATA *> >,0> >
  00049	8b 4d f4	 mov	 ecx, DWORD PTR __$EHRec$[ebp]
  0004c	64 89 0d 00 00
	00 00		 mov	 DWORD PTR fs:0, ecx
  00053	59		 pop	 ecx
  00054	5f		 pop	 edi
  00055	5e		 pop	 esi
  00056	5b		 pop	 ebx
  00057	8b e5		 mov	 esp, ebp
  00059	5d		 pop	 ebp
  0005a	c3		 ret	 0
_TEXT	ENDS
;	COMDAT text$x
text$x	SEGMENT
__unwindfunclet$??1?$_Tree@V?$_Tmap_traits@HPAU_MAPSVR_DATA@@U?$less@H@std@@V?$allocator@U?$pair@$$CBHPAU_MAPSVR_DATA@@@std@@@3@$0A@@std@@@std@@QAE@XZ$0:
  00000	8b 4d f0	 mov	 ecx, DWORD PTR _this$[ebp]
  00003	e9 00 00 00 00	 jmp	 ??1?$_Tree_val@V?$_Tmap_traits@HPAU_MAPSVR_DATA@@U?$less@H@std@@V?$allocator@U?$pair@$$CBHPAU_MAPSVR_DATA@@@std@@@3@$0A@@std@@@std@@QAE@XZ ; std::_Tree_val<std::_Tmap_traits<int,_MAPSVR_DATA *,std::less<int>,std::allocator<std::pair<int const ,_MAPSVR_DATA *> >,0> >::~_Tree_val<std::_Tmap_traits<int,_MAPSVR_DATA *,std::less<int>,std::allocator<std::pair<int const ,_MAPSVR_DATA *> >,0> >
__ehhandler$??1?$_Tree@V?$_Tmap_traits@HPAU_MAPSVR_DATA@@U?$less@H@std@@V?$allocator@U?$pair@$$CBHPAU_MAPSVR_DATA@@@std@@@3@$0A@@std@@@std@@QAE@XZ:
  00008	8b 54 24 08	 mov	 edx, DWORD PTR [esp+8]
  0000c	8d 42 0c	 lea	 eax, DWORD PTR [edx+12]
  0000f	8b 4a ac	 mov	 ecx, DWORD PTR [edx-84]
  00012	33 c8		 xor	 ecx, eax
  00014	e8 00 00 00 00	 call	 @__security_check_cookie@4
  00019	b8 00 00 00 00	 mov	 eax, OFFSET __ehfuncinfo$??1?$_Tree@V?$_Tmap_traits@HPAU_MAPSVR_DATA@@U?$less@H@std@@V?$allocator@U?$pair@$$CBHPAU_MAPSVR_DATA@@@std@@@3@$0A@@std@@@std@@QAE@XZ
  0001e	e9 00 00 00 00	 jmp	 ___CxxFrameHandler3
text$x	ENDS
??1?$_Tree@V?$_Tmap_traits@HPAU_MAPSVR_DATA@@U?$less@H@std@@V?$allocator@U?$pair@$$CBHPAU_MAPSVR_DATA@@@std@@@3@$0A@@std@@@std@@QAE@XZ ENDP ; std::_Tree<std::_Tmap_traits<int,_MAPSVR_DATA *,std::less<int>,std::allocator<std::pair<int const ,_MAPSVR_DATA *> >,0> >::~_Tree<std::_Tmap_traits<int,_MAPSVR_DATA *,std::less<int>,std::allocator<std::pair<int const ,_MAPSVR_DATA *> >,0> >
PUBLIC	??0?$_Tree_iterator@V?$_Tree_val@V?$_Tmap_traits@HPAU_MAPSVR_DATA@@U?$less@H@std@@V?$allocator@U?$pair@$$CBHPAU_MAPSVR_DATA@@@std@@@3@$0A@@std@@@std@@@std@@QAE@PAU_Node@?$_Tree_nod@V?$_Tmap_traits@HPAU_MAPSVR_DATA@@U?$less@H@std@@V?$allocator@U?$pair@$$CBHPAU_MAPSVR_DATA@@@std@@@3@$0A@@std@@@1@PBV?$_Tree_val@V?$_Tmap_traits@HPAU_MAPSVR_DATA@@U?$less@H@std@@V?$allocator@U?$pair@$$CBHPAU_MAPSVR_DATA@@@std@@@3@$0A@@std@@@1@@Z ; std::_Tree_iterator<std::_Tree_val<std::_Tmap_traits<int,_MAPSVR_DATA *,std::less<int>,std::allocator<std::pair<int const ,_MAPSVR_DATA *> >,0> > >::_Tree_iterator<std::_Tree_val<std::_Tmap_traits<int,_MAPSVR_DATA *,std::less<int>,std::allocator<std::pair<int const ,_MAPSVR_DATA *> >,0> > >
PUBLIC	?_Lmost@?$_Tree@V?$_Tmap_traits@HPAU_MAPSVR_DATA@@U?$less@H@std@@V?$allocator@U?$pair@$$CBHPAU_MAPSVR_DATA@@@std@@@3@$0A@@std@@@std@@IBEAAPAU_Node@?$_Tree_nod@V?$_Tmap_traits@HPAU_MAPSVR_DATA@@U?$less@H@std@@V?$allocator@U?$pair@$$CBHPAU_MAPSVR_DATA@@@std@@@3@$0A@@std@@@2@XZ ; std::_Tree<std::_Tmap_traits<int,_MAPSVR_DATA *,std::less<int>,std::allocator<std::pair<int const ,_MAPSVR_DATA *> >,0> >::_Lmost
; Function compile flags: /Odtp /ZI
;	COMDAT ?begin@?$_Tree@V?$_Tmap_traits@HPAU_MAPSVR_DATA@@U?$less@H@std@@V?$allocator@U?$pair@$$CBHPAU_MAPSVR_DATA@@@std@@@3@$0A@@std@@@std@@QAE?AV?$_Tree_iterator@V?$_Tree_val@V?$_Tmap_traits@HPAU_MAPSVR_DATA@@U?$less@H@std@@V?$allocator@U?$pair@$$CBHPAU_MAPSVR_DATA@@@std@@@3@$0A@@std@@@std@@@2@XZ
_TEXT	SEGMENT
_this$ = -4						; size = 4
___$ReturnUdt$ = 8					; size = 4
?begin@?$_Tree@V?$_Tmap_traits@HPAU_MAPSVR_DATA@@U?$less@H@std@@V?$allocator@U?$pair@$$CBHPAU_MAPSVR_DATA@@@std@@@3@$0A@@std@@@std@@QAE?AV?$_Tree_iterator@V?$_Tree_val@V?$_Tmap_traits@HPAU_MAPSVR_DATA@@U?$less@H@std@@V?$allocator@U?$pair@$$CBHPAU_MAPSVR_DATA@@@std@@@3@$0A@@std@@@std@@@2@XZ PROC ; std::_Tree<std::_Tmap_traits<int,_MAPSVR_DATA *,std::less<int>,std::allocator<std::pair<int const ,_MAPSVR_DATA *> >,0> >::begin, COMDAT
; _this$ = ecx

; 806  : 		{	// return iterator for beginning of mutable sequence

  00000	55		 push	 ebp
  00001	8b ec		 mov	 ebp, esp
  00003	83 ec 44	 sub	 esp, 68			; 00000044H
  00006	53		 push	 ebx
  00007	56		 push	 esi
  00008	57		 push	 edi
  00009	89 4d fc	 mov	 DWORD PTR _this$[ebp], ecx

; 807  : 		return (iterator(_Lmost(), this));

  0000c	8b 45 fc	 mov	 eax, DWORD PTR _this$[ebp]
  0000f	50		 push	 eax
  00010	8b 4d fc	 mov	 ecx, DWORD PTR _this$[ebp]
  00013	e8 00 00 00 00	 call	 ?_Lmost@?$_Tree@V?$_Tmap_traits@HPAU_MAPSVR_DATA@@U?$less@H@std@@V?$allocator@U?$pair@$$CBHPAU_MAPSVR_DATA@@@std@@@3@$0A@@std@@@std@@IBEAAPAU_Node@?$_Tree_nod@V?$_Tmap_traits@HPAU_MAPSVR_DATA@@U?$less@H@std@@V?$allocator@U?$pair@$$CBHPAU_MAPSVR_DATA@@@std@@@3@$0A@@std@@@2@XZ ; std::_Tree<std::_Tmap_traits<int,_MAPSVR_DATA *,std::less<int>,std::allocator<std::pair<int const ,_MAPSVR_DATA *> >,0> >::_Lmost
  00018	8b 08		 mov	 ecx, DWORD PTR [eax]
  0001a	51		 push	 ecx
  0001b	8b 4d 08	 mov	 ecx, DWORD PTR ___$ReturnUdt$[ebp]
  0001e	e8 00 00 00 00	 call	 ??0?$_Tree_iterator@V?$_Tree_val@V?$_Tmap_traits@HPAU_MAPSVR_DATA@@U?$less@H@std@@V?$allocator@U?$pair@$$CBHPAU_MAPSVR_DATA@@@std@@@3@$0A@@std@@@std@@@std@@QAE@PAU_Node@?$_Tree_nod@V?$_Tmap_traits@HPAU_MAPSVR_DATA@@U?$less@H@std@@V?$allocator@U?$pair@$$CBHPAU_MAPSVR_DATA@@@std@@@3@$0A@@std@@@1@PBV?$_Tree_val@V?$_Tmap_traits@HPAU_MAPSVR_DATA@@U?$less@H@std@@V?$allocator@U?$pair@$$CBHPAU_MAPSVR_DATA@@@std@@@3@$0A@@std@@@1@@Z ; std::_Tree_iterator<std::_Tree_val<std::_Tmap_traits<int,_MAPSVR_DATA *,std::less<int>,std::allocator<std::pair<int const ,_MAPSVR_DATA *> >,0> > >::_Tree_iterator<std::_Tree_val<std::_Tmap_traits<int,_MAPSVR_DATA *,std::less<int>,std::allocator<std::pair<int const ,_MAPSVR_DATA *> >,0> > >
  00023	8b 45 08	 mov	 eax, DWORD PTR ___$ReturnUdt$[ebp]

; 808  : 		}

  00026	5f		 pop	 edi
  00027	5e		 pop	 esi
  00028	5b		 pop	 ebx
  00029	8b e5		 mov	 esp, ebp
  0002b	5d		 pop	 ebp
  0002c	c2 04 00	 ret	 4
?begin@?$_Tree@V?$_Tmap_traits@HPAU_MAPSVR_DATA@@U?$less@H@std@@V?$allocator@U?$pair@$$CBHPAU_MAPSVR_DATA@@@std@@@3@$0A@@std@@@std@@QAE?AV?$_Tree_iterator@V?$_Tree_val@V?$_Tmap_traits@HPAU_MAPSVR_DATA@@U?$less@H@std@@V?$allocator@U?$pair@$$CBHPAU_MAPSVR_DATA@@@std@@@3@$0A@@std@@@std@@@2@XZ ENDP ; std::_Tree<std::_Tmap_traits<int,_MAPSVR_DATA *,std::less<int>,std::allocator<std::pair<int const ,_MAPSVR_DATA *> >,0> >::begin
; Function compile flags: /Odtp /ZI
_TEXT	ENDS
;	COMDAT ?end@?$_Tree@V?$_Tmap_traits@HPAU_MAPSVR_DATA@@U?$less@H@std@@V?$allocator@U?$pair@$$CBHPAU_MAPSVR_DATA@@@std@@@3@$0A@@std@@@std@@QAE?AV?$_Tree_iterator@V?$_Tree_val@V?$_Tmap_traits@HPAU_MAPSVR_DATA@@U?$less@H@std@@V?$allocator@U?$pair@$$CBHPAU_MAPSVR_DATA@@@std@@@3@$0A@@std@@@std@@@2@XZ
_TEXT	SEGMENT
_this$ = -4						; size = 4
___$ReturnUdt$ = 8					; size = 4
?end@?$_Tree@V?$_Tmap_traits@HPAU_MAPSVR_DATA@@U?$less@H@std@@V?$allocator@U?$pair@$$CBHPAU_MAPSVR_DATA@@@std@@@3@$0A@@std@@@std@@QAE?AV?$_Tree_iterator@V?$_Tree_val@V?$_Tmap_traits@HPAU_MAPSVR_DATA@@U?$less@H@std@@V?$allocator@U?$pair@$$CBHPAU_MAPSVR_DATA@@@std@@@3@$0A@@std@@@std@@@2@XZ PROC ; std::_Tree<std::_Tmap_traits<int,_MAPSVR_DATA *,std::less<int>,std::allocator<std::pair<int const ,_MAPSVR_DATA *> >,0> >::end, COMDAT
; _this$ = ecx

; 816  : 		{	// return iterator for end of mutable sequence

  00000	55		 push	 ebp
  00001	8b ec		 mov	 ebp, esp
  00003	83 ec 44	 sub	 esp, 68			; 00000044H
  00006	53		 push	 ebx
  00007	56		 push	 esi
  00008	57		 push	 edi
  00009	89 4d fc	 mov	 DWORD PTR _this$[ebp], ecx

; 817  : 		return (iterator(this->_Myhead, this));

  0000c	8b 45 fc	 mov	 eax, DWORD PTR _this$[ebp]
  0000f	50		 push	 eax
  00010	8b 4d fc	 mov	 ecx, DWORD PTR _this$[ebp]
  00013	8b 51 04	 mov	 edx, DWORD PTR [ecx+4]
  00016	52		 push	 edx
  00017	8b 4d 08	 mov	 ecx, DWORD PTR ___$ReturnUdt$[ebp]
  0001a	e8 00 00 00 00	 call	 ??0?$_Tree_iterator@V?$_Tree_val@V?$_Tmap_traits@HPAU_MAPSVR_DATA@@U?$less@H@std@@V?$allocator@U?$pair@$$CBHPAU_MAPSVR_DATA@@@std@@@3@$0A@@std@@@std@@@std@@QAE@PAU_Node@?$_Tree_nod@V?$_Tmap_traits@HPAU_MAPSVR_DATA@@U?$less@H@std@@V?$allocator@U?$pair@$$CBHPAU_MAPSVR_DATA@@@std@@@3@$0A@@std@@@1@PBV?$_Tree_val@V?$_Tmap_traits@HPAU_MAPSVR_DATA@@U?$less@H@std@@V?$allocator@U?$pair@$$CBHPAU_MAPSVR_DATA@@@std@@@3@$0A@@std@@@1@@Z ; std::_Tree_iterator<std::_Tree_val<std::_Tmap_traits<int,_MAPSVR_DATA *,std::less<int>,std::allocator<std::pair<int const ,_MAPSVR_DATA *> >,0> > >::_Tree_iterator<std::_Tree_val<std::_Tmap_traits<int,_MAPSVR_DATA *,std::less<int>,std::allocator<std::pair<int const ,_MAPSVR_DATA *> >,0> > >
  0001f	8b 45 08	 mov	 eax, DWORD PTR ___$ReturnUdt$[ebp]

; 818  : 		}

  00022	5f		 pop	 edi
  00023	5e		 pop	 esi
  00024	5b		 pop	 ebx
  00025	8b e5		 mov	 esp, ebp
  00027	5d		 pop	 ebp
  00028	c2 04 00	 ret	 4
?end@?$_Tree@V?$_Tmap_traits@HPAU_MAPSVR_DATA@@U?$less@H@std@@V?$allocator@U?$pair@$$CBHPAU_MAPSVR_DATA@@@std@@@3@$0A@@std@@@std@@QAE?AV?$_Tree_iterator@V?$_Tree_val@V?$_Tmap_traits@HPAU_MAPSVR_DATA@@U?$less@H@std@@V?$allocator@U?$pair@$$CBHPAU_MAPSVR_DATA@@@std@@@3@$0A@@std@@@std@@@2@XZ ENDP ; std::_Tree<std::_Tmap_traits<int,_MAPSVR_DATA *,std::less<int>,std::allocator<std::pair<int const ,_MAPSVR_DATA *> >,0> >::end
_TEXT	ENDS
PUBLIC	?_Rmost@?$_Tree@V?$_Tmap_traits@HPAU_MAPSVR_DATA@@U?$less@H@std@@V?$allocator@U?$pair@$$CBHPAU_MAPSVR_DATA@@@std@@@3@$0A@@std@@@std@@IBEAAPAU_Node@?$_Tree_nod@V?$_Tmap_traits@HPAU_MAPSVR_DATA@@U?$less@H@std@@V?$allocator@U?$pair@$$CBHPAU_MAPSVR_DATA@@@std@@@3@$0A@@std@@@2@XZ ; std::_Tree<std::_Tmap_traits<int,_MAPSVR_DATA *,std::less<int>,std::allocator<std::pair<int const ,_MAPSVR_DATA *> >,0> >::_Rmost
PUBLIC	?_Erase@?$_Tree@V?$_Tmap_traits@HPAU_MAPSVR_DATA@@U?$less@H@std@@V?$allocator@U?$pair@$$CBHPAU_MAPSVR_DATA@@@std@@@3@$0A@@std@@@std@@IAEXPAU_Node@?$_Tree_nod@V?$_Tmap_traits@HPAU_MAPSVR_DATA@@U?$less@H@std@@V?$allocator@U?$pair@$$CBHPAU_MAPSVR_DATA@@@std@@@3@$0A@@std@@@2@@Z ; std::_Tree<std::_Tmap_traits<int,_MAPSVR_DATA *,std::less<int>,std::allocator<std::pair<int const ,_MAPSVR_DATA *> >,0> >::_Erase
PUBLIC	?_Root@?$_Tree@V?$_Tmap_traits@HPAU_MAPSVR_DATA@@U?$less@H@std@@V?$allocator@U?$pair@$$CBHPAU_MAPSVR_DATA@@@std@@@3@$0A@@std@@@std@@IBEAAPAU_Node@?$_Tree_nod@V?$_Tmap_traits@HPAU_MAPSVR_DATA@@U?$less@H@std@@V?$allocator@U?$pair@$$CBHPAU_MAPSVR_DATA@@@std@@@3@$0A@@std@@@2@XZ ; std::_Tree<std::_Tmap_traits<int,_MAPSVR_DATA *,std::less<int>,std::allocator<std::pair<int const ,_MAPSVR_DATA *> >,0> >::_Root
; Function compile flags: /Odtp /ZI
;	COMDAT ?clear@?$_Tree@V?$_Tmap_traits@HPAU_MAPSVR_DATA@@U?$less@H@std@@V?$allocator@U?$pair@$$CBHPAU_MAPSVR_DATA@@@std@@@3@$0A@@std@@@std@@QAEXXZ
_TEXT	SEGMENT
_this$ = -4						; size = 4
?clear@?$_Tree@V?$_Tmap_traits@HPAU_MAPSVR_DATA@@U?$less@H@std@@V?$allocator@U?$pair@$$CBHPAU_MAPSVR_DATA@@@std@@@3@$0A@@std@@@std@@QAEXXZ PROC ; std::_Tree<std::_Tmap_traits<int,_MAPSVR_DATA *,std::less<int>,std::allocator<std::pair<int const ,_MAPSVR_DATA *> >,0> >::clear, COMDAT
; _this$ = ecx

; 1410 : 		{	// erase all

  00000	55		 push	 ebp
  00001	8b ec		 mov	 ebp, esp
  00003	83 ec 44	 sub	 esp, 68			; 00000044H
  00006	53		 push	 ebx
  00007	56		 push	 esi
  00008	57		 push	 edi
  00009	89 4d fc	 mov	 DWORD PTR _this$[ebp], ecx

; 1411 :  #if _ITERATOR_DEBUG_LEVEL == 2
; 1412 : 		this->_Orphan_ptr(*this, 0);
; 1413 :  #endif /* _ITERATOR_DEBUG_LEVEL == 2 */
; 1414 : 
; 1415 : 		_Erase(_Root());

  0000c	8b 4d fc	 mov	 ecx, DWORD PTR _this$[ebp]
  0000f	e8 00 00 00 00	 call	 ?_Root@?$_Tree@V?$_Tmap_traits@HPAU_MAPSVR_DATA@@U?$less@H@std@@V?$allocator@U?$pair@$$CBHPAU_MAPSVR_DATA@@@std@@@3@$0A@@std@@@std@@IBEAAPAU_Node@?$_Tree_nod@V?$_Tmap_traits@HPAU_MAPSVR_DATA@@U?$less@H@std@@V?$allocator@U?$pair@$$CBHPAU_MAPSVR_DATA@@@std@@@3@$0A@@std@@@2@XZ ; std::_Tree<std::_Tmap_traits<int,_MAPSVR_DATA *,std::less<int>,std::allocator<std::pair<int const ,_MAPSVR_DATA *> >,0> >::_Root
  00014	8b 00		 mov	 eax, DWORD PTR [eax]
  00016	50		 push	 eax
  00017	8b 4d fc	 mov	 ecx, DWORD PTR _this$[ebp]
  0001a	e8 00 00 00 00	 call	 ?_Erase@?$_Tree@V?$_Tmap_traits@HPAU_MAPSVR_DATA@@U?$less@H@std@@V?$allocator@U?$pair@$$CBHPAU_MAPSVR_DATA@@@std@@@3@$0A@@std@@@std@@IAEXPAU_Node@?$_Tree_nod@V?$_Tmap_traits@HPAU_MAPSVR_DATA@@U?$less@H@std@@V?$allocator@U?$pair@$$CBHPAU_MAPSVR_DATA@@@std@@@3@$0A@@std@@@2@@Z ; std::_Tree<std::_Tmap_traits<int,_MAPSVR_DATA *,std::less<int>,std::allocator<std::pair<int const ,_MAPSVR_DATA *> >,0> >::_Erase

; 1416 : 		_Root() = this->_Myhead;

  0001f	8b 4d fc	 mov	 ecx, DWORD PTR _this$[ebp]
  00022	e8 00 00 00 00	 call	 ?_Root@?$_Tree@V?$_Tmap_traits@HPAU_MAPSVR_DATA@@U?$less@H@std@@V?$allocator@U?$pair@$$CBHPAU_MAPSVR_DATA@@@std@@@3@$0A@@std@@@std@@IBEAAPAU_Node@?$_Tree_nod@V?$_Tmap_traits@HPAU_MAPSVR_DATA@@U?$less@H@std@@V?$allocator@U?$pair@$$CBHPAU_MAPSVR_DATA@@@std@@@3@$0A@@std@@@2@XZ ; std::_Tree<std::_Tmap_traits<int,_MAPSVR_DATA *,std::less<int>,std::allocator<std::pair<int const ,_MAPSVR_DATA *> >,0> >::_Root
  00027	8b 4d fc	 mov	 ecx, DWORD PTR _this$[ebp]
  0002a	8b 51 04	 mov	 edx, DWORD PTR [ecx+4]
  0002d	89 10		 mov	 DWORD PTR [eax], edx

; 1417 : 		_Lmost() = this->_Myhead;

  0002f	8b 4d fc	 mov	 ecx, DWORD PTR _this$[ebp]
  00032	e8 00 00 00 00	 call	 ?_Lmost@?$_Tree@V?$_Tmap_traits@HPAU_MAPSVR_DATA@@U?$less@H@std@@V?$allocator@U?$pair@$$CBHPAU_MAPSVR_DATA@@@std@@@3@$0A@@std@@@std@@IBEAAPAU_Node@?$_Tree_nod@V?$_Tmap_traits@HPAU_MAPSVR_DATA@@U?$less@H@std@@V?$allocator@U?$pair@$$CBHPAU_MAPSVR_DATA@@@std@@@3@$0A@@std@@@2@XZ ; std::_Tree<std::_Tmap_traits<int,_MAPSVR_DATA *,std::less<int>,std::allocator<std::pair<int const ,_MAPSVR_DATA *> >,0> >::_Lmost
  00037	8b 4d fc	 mov	 ecx, DWORD PTR _this$[ebp]
  0003a	8b 51 04	 mov	 edx, DWORD PTR [ecx+4]
  0003d	89 10		 mov	 DWORD PTR [eax], edx

; 1418 : 		_Rmost() = this->_Myhead;

  0003f	8b 4d fc	 mov	 ecx, DWORD PTR _this$[ebp]
  00042	e8 00 00 00 00	 call	 ?_Rmost@?$_Tree@V?$_Tmap_traits@HPAU_MAPSVR_DATA@@U?$less@H@std@@V?$allocator@U?$pair@$$CBHPAU_MAPSVR_DATA@@@std@@@3@$0A@@std@@@std@@IBEAAPAU_Node@?$_Tree_nod@V?$_Tmap_traits@HPAU_MAPSVR_DATA@@U?$less@H@std@@V?$allocator@U?$pair@$$CBHPAU_MAPSVR_DATA@@@std@@@3@$0A@@std@@@2@XZ ; std::_Tree<std::_Tmap_traits<int,_MAPSVR_DATA *,std::less<int>,std::allocator<std::pair<int const ,_MAPSVR_DATA *> >,0> >::_Rmost
  00047	8b 4d fc	 mov	 ecx, DWORD PTR _this$[ebp]
  0004a	8b 51 04	 mov	 edx, DWORD PTR [ecx+4]
  0004d	89 10		 mov	 DWORD PTR [eax], edx

; 1419 : 		this->_Mysize = 0;

  0004f	8b 45 fc	 mov	 eax, DWORD PTR _this$[ebp]
  00052	c7 40 08 00 00
	00 00		 mov	 DWORD PTR [eax+8], 0

; 1420 : 		}

  00059	5f		 pop	 edi
  0005a	5e		 pop	 esi
  0005b	5b		 pop	 ebx
  0005c	8b e5		 mov	 esp, ebp
  0005e	5d		 pop	 ebp
  0005f	c3		 ret	 0
?clear@?$_Tree@V?$_Tmap_traits@HPAU_MAPSVR_DATA@@U?$less@H@std@@V?$allocator@U?$pair@$$CBHPAU_MAPSVR_DATA@@@std@@@3@$0A@@std@@@std@@QAEXXZ ENDP ; std::_Tree<std::_Tmap_traits<int,_MAPSVR_DATA *,std::less<int>,std::allocator<std::pair<int const ,_MAPSVR_DATA *> >,0> >::clear
_TEXT	ENDS
PUBLIC	??R?$less@H@std@@QBE_NABH0@Z			; std::less<int>::operator()
PUBLIC	?_Key@?$_Tree_val@V?$_Tmap_traits@HPAU_MAPSVR_DATA@@U?$less@H@std@@V?$allocator@U?$pair@$$CBHPAU_MAPSVR_DATA@@@std@@@3@$0A@@std@@@std@@SAAAHPAU_Node@?$_Tree_nod@V?$_Tmap_traits@HPAU_MAPSVR_DATA@@U?$less@H@std@@V?$allocator@U?$pair@$$CBHPAU_MAPSVR_DATA@@@std@@@3@$0A@@std@@@2@@Z ; std::_Tree_val<std::_Tmap_traits<int,_MAPSVR_DATA *,std::less<int>,std::allocator<std::pair<int const ,_MAPSVR_DATA *> >,0> >::_Key
PUBLIC	?_Mynode@?$_Tree_unchecked_const_iterator@V?$_Tree_val@V?$_Tmap_traits@HPAU_MAPSVR_DATA@@U?$less@H@std@@V?$allocator@U?$pair@$$CBHPAU_MAPSVR_DATA@@@std@@@3@$0A@@std@@@std@@U_Iterator_base0@2@@std@@QBEPAU_Node@?$_Tree_nod@V?$_Tmap_traits@HPAU_MAPSVR_DATA@@U?$less@H@std@@V?$allocator@U?$pair@$$CBHPAU_MAPSVR_DATA@@@std@@@3@$0A@@std@@@2@XZ ; std::_Tree_unchecked_const_iterator<std::_Tree_val<std::_Tmap_traits<int,_MAPSVR_DATA *,std::less<int>,std::allocator<std::pair<int const ,_MAPSVR_DATA *> >,0> >,std::_Iterator_base0>::_Mynode
PUBLIC	?lower_bound@?$_Tree@V?$_Tmap_traits@HPAU_MAPSVR_DATA@@U?$less@H@std@@V?$allocator@U?$pair@$$CBHPAU_MAPSVR_DATA@@@std@@@3@$0A@@std@@@std@@QAE?AV?$_Tree_iterator@V?$_Tree_val@V?$_Tmap_traits@HPAU_MAPSVR_DATA@@U?$less@H@std@@V?$allocator@U?$pair@$$CBHPAU_MAPSVR_DATA@@@std@@@3@$0A@@std@@@std@@@2@ABH@Z ; std::_Tree<std::_Tmap_traits<int,_MAPSVR_DATA *,std::less<int>,std::allocator<std::pair<int const ,_MAPSVR_DATA *> >,0> >::lower_bound
; Function compile flags: /Odtp /ZI
;	COMDAT ?find@?$_Tree@V?$_Tmap_traits@HPAU_MAPSVR_DATA@@U?$less@H@std@@V?$allocator@U?$pair@$$CBHPAU_MAPSVR_DATA@@@std@@@3@$0A@@std@@@std@@QAE?AV?$_Tree_iterator@V?$_Tree_val@V?$_Tmap_traits@HPAU_MAPSVR_DATA@@U?$less@H@std@@V?$allocator@U?$pair@$$CBHPAU_MAPSVR_DATA@@@std@@@3@$0A@@std@@@std@@@2@ABH@Z
_TEXT	SEGMENT
tv137 = -88						; size = 4
$T230642 = -84						; size = 4
$T230643 = -80						; size = 4
$T230645 = -76						; size = 4
__Where$ = -8						; size = 4
_this$ = -4						; size = 4
___$ReturnUdt$ = 8					; size = 4
__Keyval$ = 12						; size = 4
?find@?$_Tree@V?$_Tmap_traits@HPAU_MAPSVR_DATA@@U?$less@H@std@@V?$allocator@U?$pair@$$CBHPAU_MAPSVR_DATA@@@std@@@3@$0A@@std@@@std@@QAE?AV?$_Tree_iterator@V?$_Tree_val@V?$_Tmap_traits@HPAU_MAPSVR_DATA@@U?$less@H@std@@V?$allocator@U?$pair@$$CBHPAU_MAPSVR_DATA@@@std@@@3@$0A@@std@@@std@@@2@ABH@Z PROC ; std::_Tree<std::_Tmap_traits<int,_MAPSVR_DATA *,std::less<int>,std::allocator<std::pair<int const ,_MAPSVR_DATA *> >,0> >::find, COMDAT
; _this$ = ecx

; 1423 : 		{	// find an element in mutable sequence that matches _Keyval

  00000	55		 push	 ebp
  00001	8b ec		 mov	 ebp, esp
  00003	83 ec 58	 sub	 esp, 88			; 00000058H
  00006	53		 push	 ebx
  00007	56		 push	 esi
  00008	57		 push	 edi
  00009	89 4d fc	 mov	 DWORD PTR _this$[ebp], ecx

; 1424 : 		iterator _Where = lower_bound(_Keyval);

  0000c	8b 45 0c	 mov	 eax, DWORD PTR __Keyval$[ebp]
  0000f	50		 push	 eax
  00010	8d 4d f8	 lea	 ecx, DWORD PTR __Where$[ebp]
  00013	51		 push	 ecx
  00014	8b 4d fc	 mov	 ecx, DWORD PTR _this$[ebp]
  00017	e8 00 00 00 00	 call	 ?lower_bound@?$_Tree@V?$_Tmap_traits@HPAU_MAPSVR_DATA@@U?$less@H@std@@V?$allocator@U?$pair@$$CBHPAU_MAPSVR_DATA@@@std@@@3@$0A@@std@@@std@@QAE?AV?$_Tree_iterator@V?$_Tree_val@V?$_Tmap_traits@HPAU_MAPSVR_DATA@@U?$less@H@std@@V?$allocator@U?$pair@$$CBHPAU_MAPSVR_DATA@@@std@@@3@$0A@@std@@@std@@@2@ABH@Z ; std::_Tree<std::_Tmap_traits<int,_MAPSVR_DATA *,std::less<int>,std::allocator<std::pair<int const ,_MAPSVR_DATA *> >,0> >::lower_bound

; 1425 : 		return (_Where == end()
; 1426 : 			|| _DEBUG_LT_PRED(this->comp,
; 1427 : 				_Keyval, this->_Key(_Where._Mynode()))
; 1428 : 					? end() : _Where);

  0001c	8d 45 b0	 lea	 eax, DWORD PTR $T230643[ebp]
  0001f	50		 push	 eax
  00020	8b 4d fc	 mov	 ecx, DWORD PTR _this$[ebp]
  00023	e8 00 00 00 00	 call	 ?end@?$_Tree@V?$_Tmap_traits@HPAU_MAPSVR_DATA@@U?$less@H@std@@V?$allocator@U?$pair@$$CBHPAU_MAPSVR_DATA@@@std@@@3@$0A@@std@@@std@@QAE?AV?$_Tree_iterator@V?$_Tree_val@V?$_Tmap_traits@HPAU_MAPSVR_DATA@@U?$less@H@std@@V?$allocator@U?$pair@$$CBHPAU_MAPSVR_DATA@@@std@@@3@$0A@@std@@@std@@@2@XZ ; std::_Tree<std::_Tmap_traits<int,_MAPSVR_DATA *,std::less<int>,std::allocator<std::pair<int const ,_MAPSVR_DATA *> >,0> >::end
  00028	50		 push	 eax
  00029	8d 4d f8	 lea	 ecx, DWORD PTR __Where$[ebp]
  0002c	e8 00 00 00 00	 call	 ??8?$_Tree_const_iterator@V?$_Tree_val@V?$_Tmap_traits@HPAU_MAPSVR_DATA@@U?$less@H@std@@V?$allocator@U?$pair@$$CBHPAU_MAPSVR_DATA@@@std@@@3@$0A@@std@@@std@@@std@@QBE_NABV01@@Z ; std::_Tree_const_iterator<std::_Tree_val<std::_Tmap_traits<int,_MAPSVR_DATA *,std::less<int>,std::allocator<std::pair<int const ,_MAPSVR_DATA *> >,0> > >::operator==
  00031	0f b6 c8	 movzx	 ecx, al
  00034	85 c9		 test	 ecx, ecx
  00036	75 2d		 jne	 SHORT $LN3@find
  00038	8d 4d f8	 lea	 ecx, DWORD PTR __Where$[ebp]
  0003b	e8 00 00 00 00	 call	 ?_Mynode@?$_Tree_unchecked_const_iterator@V?$_Tree_val@V?$_Tmap_traits@HPAU_MAPSVR_DATA@@U?$less@H@std@@V?$allocator@U?$pair@$$CBHPAU_MAPSVR_DATA@@@std@@@3@$0A@@std@@@std@@U_Iterator_base0@2@@std@@QBEPAU_Node@?$_Tree_nod@V?$_Tmap_traits@HPAU_MAPSVR_DATA@@U?$less@H@std@@V?$allocator@U?$pair@$$CBHPAU_MAPSVR_DATA@@@std@@@3@$0A@@std@@@2@XZ ; std::_Tree_unchecked_const_iterator<std::_Tree_val<std::_Tmap_traits<int,_MAPSVR_DATA *,std::less<int>,std::allocator<std::pair<int const ,_MAPSVR_DATA *> >,0> >,std::_Iterator_base0>::_Mynode
  00040	50		 push	 eax
  00041	e8 00 00 00 00	 call	 ?_Key@?$_Tree_val@V?$_Tmap_traits@HPAU_MAPSVR_DATA@@U?$less@H@std@@V?$allocator@U?$pair@$$CBHPAU_MAPSVR_DATA@@@std@@@3@$0A@@std@@@std@@SAAAHPAU_Node@?$_Tree_nod@V?$_Tmap_traits@HPAU_MAPSVR_DATA@@U?$less@H@std@@V?$allocator@U?$pair@$$CBHPAU_MAPSVR_DATA@@@std@@@3@$0A@@std@@@2@@Z ; std::_Tree_val<std::_Tmap_traits<int,_MAPSVR_DATA *,std::less<int>,std::allocator<std::pair<int const ,_MAPSVR_DATA *> >,0> >::_Key
  00046	83 c4 04	 add	 esp, 4
  00049	50		 push	 eax
  0004a	8b 55 0c	 mov	 edx, DWORD PTR __Keyval$[ebp]
  0004d	52		 push	 edx
  0004e	8b 4d fc	 mov	 ecx, DWORD PTR _this$[ebp]
  00051	e8 00 00 00 00	 call	 ??R?$less@H@std@@QBE_NABH0@Z ; std::less<int>::operator()
  00056	0f b6 c0	 movzx	 eax, al
  00059	85 c0		 test	 eax, eax
  0005b	75 08		 jne	 SHORT $LN3@find
  0005d	8d 4d f8	 lea	 ecx, DWORD PTR __Where$[ebp]
  00060	89 4d a8	 mov	 DWORD PTR tv137[ebp], ecx
  00063	eb 0f		 jmp	 SHORT $LN4@find
$LN3@find:
  00065	8d 55 b4	 lea	 edx, DWORD PTR $T230645[ebp]
  00068	52		 push	 edx
  00069	8b 4d fc	 mov	 ecx, DWORD PTR _this$[ebp]
  0006c	e8 00 00 00 00	 call	 ?end@?$_Tree@V?$_Tmap_traits@HPAU_MAPSVR_DATA@@U?$less@H@std@@V?$allocator@U?$pair@$$CBHPAU_MAPSVR_DATA@@@std@@@3@$0A@@std@@@std@@QAE?AV?$_Tree_iterator@V?$_Tree_val@V?$_Tmap_traits@HPAU_MAPSVR_DATA@@U?$less@H@std@@V?$allocator@U?$pair@$$CBHPAU_MAPSVR_DATA@@@std@@@3@$0A@@std@@@std@@@2@XZ ; std::_Tree<std::_Tmap_traits<int,_MAPSVR_DATA *,std::less<int>,std::allocator<std::pair<int const ,_MAPSVR_DATA *> >,0> >::end
  00071	89 45 a8	 mov	 DWORD PTR tv137[ebp], eax
$LN4@find:
  00074	8b 45 a8	 mov	 eax, DWORD PTR tv137[ebp]
  00077	89 45 ac	 mov	 DWORD PTR $T230642[ebp], eax
  0007a	8b 4d ac	 mov	 ecx, DWORD PTR $T230642[ebp]
  0007d	8b 11		 mov	 edx, DWORD PTR [ecx]
  0007f	8b 45 08	 mov	 eax, DWORD PTR ___$ReturnUdt$[ebp]
  00082	89 10		 mov	 DWORD PTR [eax], edx
  00084	8b 45 08	 mov	 eax, DWORD PTR ___$ReturnUdt$[ebp]

; 1429 : 		}

  00087	5f		 pop	 edi
  00088	5e		 pop	 esi
  00089	5b		 pop	 ebx
  0008a	8b e5		 mov	 esp, ebp
  0008c	5d		 pop	 ebp
  0008d	c2 08 00	 ret	 8
?find@?$_Tree@V?$_Tmap_traits@HPAU_MAPSVR_DATA@@U?$less@H@std@@V?$allocator@U?$pair@$$CBHPAU_MAPSVR_DATA@@@std@@@3@$0A@@std@@@std@@QAE?AV?$_Tree_iterator@V?$_Tree_val@V?$_Tmap_traits@HPAU_MAPSVR_DATA@@U?$less@H@std@@V?$allocator@U?$pair@$$CBHPAU_MAPSVR_DATA@@@std@@@3@$0A@@std@@@std@@@2@ABH@Z ENDP ; std::_Tree<std::_Tmap_traits<int,_MAPSVR_DATA *,std::less<int>,std::allocator<std::pair<int const ,_MAPSVR_DATA *> >,0> >::find
_TEXT	ENDS
PUBLIC	??D?$_Tree_iterator@V?$_Tree_val@V?$_Tmap_traits@HPAU_MAPSVR_DATA@@U?$less@H@std@@V?$allocator@U?$pair@$$CBHPAU_MAPSVR_DATA@@@std@@@3@$0A@@std@@@std@@@std@@QBEAAU?$pair@$$CBHPAU_MAPSVR_DATA@@@1@XZ ; std::_Tree_iterator<std::_Tree_val<std::_Tmap_traits<int,_MAPSVR_DATA *,std::less<int>,std::allocator<std::pair<int const ,_MAPSVR_DATA *> >,0> > >::operator*
; Function compile flags: /Odtp /ZI
;	COMDAT ??C?$_Tree_iterator@V?$_Tree_val@V?$_Tmap_traits@HPAU_MAPSVR_DATA@@U?$less@H@std@@V?$allocator@U?$pair@$$CBHPAU_MAPSVR_DATA@@@std@@@3@$0A@@std@@@std@@@std@@QBEPAU?$pair@$$CBHPAU_MAPSVR_DATA@@@1@XZ
_TEXT	SEGMENT
_this$ = -4						; size = 4
??C?$_Tree_iterator@V?$_Tree_val@V?$_Tmap_traits@HPAU_MAPSVR_DATA@@U?$less@H@std@@V?$allocator@U?$pair@$$CBHPAU_MAPSVR_DATA@@@std@@@3@$0A@@std@@@std@@@std@@QBEPAU?$pair@$$CBHPAU_MAPSVR_DATA@@@1@XZ PROC ; std::_Tree_iterator<std::_Tree_val<std::_Tmap_traits<int,_MAPSVR_DATA *,std::less<int>,std::allocator<std::pair<int const ,_MAPSVR_DATA *> >,0> > >::operator->, COMDAT
; _this$ = ecx

; 400  : 		{	// return pointer to class object

  00000	55		 push	 ebp
  00001	8b ec		 mov	 ebp, esp
  00003	83 ec 44	 sub	 esp, 68			; 00000044H
  00006	53		 push	 ebx
  00007	56		 push	 esi
  00008	57		 push	 edi
  00009	89 4d fc	 mov	 DWORD PTR _this$[ebp], ecx

; 401  : 		return (&**this);

  0000c	8b 4d fc	 mov	 ecx, DWORD PTR _this$[ebp]
  0000f	e8 00 00 00 00	 call	 ??D?$_Tree_iterator@V?$_Tree_val@V?$_Tmap_traits@HPAU_MAPSVR_DATA@@U?$less@H@std@@V?$allocator@U?$pair@$$CBHPAU_MAPSVR_DATA@@@std@@@3@$0A@@std@@@std@@@std@@QBEAAU?$pair@$$CBHPAU_MAPSVR_DATA@@@1@XZ ; std::_Tree_iterator<std::_Tree_val<std::_Tmap_traits<int,_MAPSVR_DATA *,std::less<int>,std::allocator<std::pair<int const ,_MAPSVR_DATA *> >,0> > >::operator*

; 402  : 		}

  00014	5f		 pop	 edi
  00015	5e		 pop	 esi
  00016	5b		 pop	 ebx
  00017	8b e5		 mov	 esp, ebp
  00019	5d		 pop	 ebp
  0001a	c3		 ret	 0
??C?$_Tree_iterator@V?$_Tree_val@V?$_Tmap_traits@HPAU_MAPSVR_DATA@@U?$less@H@std@@V?$allocator@U?$pair@$$CBHPAU_MAPSVR_DATA@@@std@@@3@$0A@@std@@@std@@@std@@QBEPAU?$pair@$$CBHPAU_MAPSVR_DATA@@@1@XZ ENDP ; std::_Tree_iterator<std::_Tree_val<std::_Tmap_traits<int,_MAPSVR_DATA *,std::less<int>,std::allocator<std::pair<int const ,_MAPSVR_DATA *> >,0> > >::operator->
_TEXT	ENDS
PUBLIC	??E?$_Tree_iterator@V?$_Tree_val@V?$_Tmap_traits@HPAU_MAPSVR_DATA@@U?$less@H@std@@V?$allocator@U?$pair@$$CBHPAU_MAPSVR_DATA@@@std@@@3@$0A@@std@@@std@@@std@@QAEAAV01@XZ ; std::_Tree_iterator<std::_Tree_val<std::_Tmap_traits<int,_MAPSVR_DATA *,std::less<int>,std::allocator<std::pair<int const ,_MAPSVR_DATA *> >,0> > >::operator++
; Function compile flags: /Odtp /ZI
;	COMDAT ??E?$_Tree_iterator@V?$_Tree_val@V?$_Tmap_traits@HPAU_MAPSVR_DATA@@U?$less@H@std@@V?$allocator@U?$pair@$$CBHPAU_MAPSVR_DATA@@@std@@@3@$0A@@std@@@std@@@std@@QAE?AV01@H@Z
_TEXT	SEGMENT
__Tmp$ = -8						; size = 4
_this$ = -4						; size = 4
___$ReturnUdt$ = 8					; size = 4
___formal$ = 12						; size = 4
??E?$_Tree_iterator@V?$_Tree_val@V?$_Tmap_traits@HPAU_MAPSVR_DATA@@U?$less@H@std@@V?$allocator@U?$pair@$$CBHPAU_MAPSVR_DATA@@@std@@@3@$0A@@std@@@std@@@std@@QAE?AV01@H@Z PROC ; std::_Tree_iterator<std::_Tree_val<std::_Tmap_traits<int,_MAPSVR_DATA *,std::less<int>,std::allocator<std::pair<int const ,_MAPSVR_DATA *> >,0> > >::operator++, COMDAT
; _this$ = ecx

; 411  : 		{	// postincrement

  00000	55		 push	 ebp
  00001	8b ec		 mov	 ebp, esp
  00003	83 ec 48	 sub	 esp, 72			; 00000048H
  00006	53		 push	 ebx
  00007	56		 push	 esi
  00008	57		 push	 edi
  00009	89 4d fc	 mov	 DWORD PTR _this$[ebp], ecx

; 412  : 		_Myiter _Tmp = *this;

  0000c	8b 45 fc	 mov	 eax, DWORD PTR _this$[ebp]
  0000f	8b 08		 mov	 ecx, DWORD PTR [eax]
  00011	89 4d f8	 mov	 DWORD PTR __Tmp$[ebp], ecx

; 413  : 		++*this;

  00014	8b 4d fc	 mov	 ecx, DWORD PTR _this$[ebp]
  00017	e8 00 00 00 00	 call	 ??E?$_Tree_iterator@V?$_Tree_val@V?$_Tmap_traits@HPAU_MAPSVR_DATA@@U?$less@H@std@@V?$allocator@U?$pair@$$CBHPAU_MAPSVR_DATA@@@std@@@3@$0A@@std@@@std@@@std@@QAEAAV01@XZ ; std::_Tree_iterator<std::_Tree_val<std::_Tmap_traits<int,_MAPSVR_DATA *,std::less<int>,std::allocator<std::pair<int const ,_MAPSVR_DATA *> >,0> > >::operator++

; 414  : 		return (_Tmp);

  0001c	8b 45 08	 mov	 eax, DWORD PTR ___$ReturnUdt$[ebp]
  0001f	8b 4d f8	 mov	 ecx, DWORD PTR __Tmp$[ebp]
  00022	89 08		 mov	 DWORD PTR [eax], ecx
  00024	8b 45 08	 mov	 eax, DWORD PTR ___$ReturnUdt$[ebp]

; 415  : 		}

  00027	5f		 pop	 edi
  00028	5e		 pop	 esi
  00029	5b		 pop	 ebx
  0002a	8b e5		 mov	 esp, ebp
  0002c	5d		 pop	 ebp
  0002d	c2 08 00	 ret	 8
??E?$_Tree_iterator@V?$_Tree_val@V?$_Tmap_traits@HPAU_MAPSVR_DATA@@U?$less@H@std@@V?$allocator@U?$pair@$$CBHPAU_MAPSVR_DATA@@@std@@@3@$0A@@std@@@std@@@std@@QAE?AV01@H@Z ENDP ; std::_Tree_iterator<std::_Tree_val<std::_Tmap_traits<int,_MAPSVR_DATA *,std::less<int>,std::allocator<std::pair<int const ,_MAPSVR_DATA *> >,0> > >::operator++
; Function compile flags: /Odtp /ZI
_TEXT	ENDS
;	COMDAT ??8?$_Tree_const_iterator@V?$_Tree_val@V?$_Tmap_traits@HPAU_MAPSVR_DATA@@U?$less@H@std@@V?$allocator@U?$pair@$$CBHPAU_MAPSVR_DATA@@@std@@@3@$0A@@std@@@std@@@std@@QBE_NABV01@@Z
_TEXT	SEGMENT
_this$ = -4						; size = 4
__Right$ = 8						; size = 4
??8?$_Tree_const_iterator@V?$_Tree_val@V?$_Tmap_traits@HPAU_MAPSVR_DATA@@U?$less@H@std@@V?$allocator@U?$pair@$$CBHPAU_MAPSVR_DATA@@@std@@@3@$0A@@std@@@std@@@std@@QBE_NABV01@@Z PROC ; std::_Tree_const_iterator<std::_Tree_val<std::_Tmap_traits<int,_MAPSVR_DATA *,std::less<int>,std::allocator<std::pair<int const ,_MAPSVR_DATA *> >,0> > >::operator==, COMDAT
; _this$ = ecx

; 316  : 		{	// test for iterator equality

  00000	55		 push	 ebp
  00001	8b ec		 mov	 ebp, esp
  00003	83 ec 44	 sub	 esp, 68			; 00000044H
  00006	53		 push	 ebx
  00007	56		 push	 esi
  00008	57		 push	 edi
  00009	89 4d fc	 mov	 DWORD PTR _this$[ebp], ecx

; 317  :  #if _ITERATOR_DEBUG_LEVEL == 2
; 318  : 		if (this->_Getcont() == 0
; 319  : 			|| this->_Getcont() != _Right._Getcont())
; 320  : 			{	// report error
; 321  : 			_DEBUG_ERROR("map/set iterators incompatible");
; 322  : 			_SCL_SECURE_INVALID_ARGUMENT;
; 323  : 			}
; 324  : 
; 325  :  #elif _ITERATOR_DEBUG_LEVEL == 1
; 326  : 		_SCL_SECURE_VALIDATE(this->_Getcont() != 0
; 327  : 			&& this->_Getcont() == _Right._Getcont());
; 328  :  #endif /* _ITERATOR_DEBUG_LEVEL */
; 329  : 
; 330  : 		return (this->_Ptr == _Right._Ptr);

  0000c	8b 45 fc	 mov	 eax, DWORD PTR _this$[ebp]
  0000f	8b 4d 08	 mov	 ecx, DWORD PTR __Right$[ebp]
  00012	8b 10		 mov	 edx, DWORD PTR [eax]
  00014	33 c0		 xor	 eax, eax
  00016	3b 11		 cmp	 edx, DWORD PTR [ecx]
  00018	0f 94 c0	 sete	 al

; 331  : 		}

  0001b	5f		 pop	 edi
  0001c	5e		 pop	 esi
  0001d	5b		 pop	 ebx
  0001e	8b e5		 mov	 esp, ebp
  00020	5d		 pop	 ebp
  00021	c2 04 00	 ret	 4
??8?$_Tree_const_iterator@V?$_Tree_val@V?$_Tmap_traits@HPAU_MAPSVR_DATA@@U?$less@H@std@@V?$allocator@U?$pair@$$CBHPAU_MAPSVR_DATA@@@std@@@3@$0A@@std@@@std@@@std@@QBE_NABV01@@Z ENDP ; std::_Tree_const_iterator<std::_Tree_val<std::_Tmap_traits<int,_MAPSVR_DATA *,std::less<int>,std::allocator<std::pair<int const ,_MAPSVR_DATA *> >,0> > >::operator==
; Function compile flags: /Odtp /ZI
_TEXT	ENDS
;	COMDAT ??9?$_Tree_const_iterator@V?$_Tree_val@V?$_Tmap_traits@HPAU_MAPSVR_DATA@@U?$less@H@std@@V?$allocator@U?$pair@$$CBHPAU_MAPSVR_DATA@@@std@@@3@$0A@@std@@@std@@@std@@QBE_NABV01@@Z
_TEXT	SEGMENT
_this$ = -4						; size = 4
__Right$ = 8						; size = 4
??9?$_Tree_const_iterator@V?$_Tree_val@V?$_Tmap_traits@HPAU_MAPSVR_DATA@@U?$less@H@std@@V?$allocator@U?$pair@$$CBHPAU_MAPSVR_DATA@@@std@@@3@$0A@@std@@@std@@@std@@QBE_NABV01@@Z PROC ; std::_Tree_const_iterator<std::_Tree_val<std::_Tmap_traits<int,_MAPSVR_DATA *,std::less<int>,std::allocator<std::pair<int const ,_MAPSVR_DATA *> >,0> > >::operator!=, COMDAT
; _this$ = ecx

; 334  : 		{	// test for iterator inequality

  00000	55		 push	 ebp
  00001	8b ec		 mov	 ebp, esp
  00003	83 ec 44	 sub	 esp, 68			; 00000044H
  00006	53		 push	 ebx
  00007	56		 push	 esi
  00008	57		 push	 edi
  00009	89 4d fc	 mov	 DWORD PTR _this$[ebp], ecx

; 335  : 		return (!(*this == _Right));

  0000c	8b 45 08	 mov	 eax, DWORD PTR __Right$[ebp]
  0000f	50		 push	 eax
  00010	8b 4d fc	 mov	 ecx, DWORD PTR _this$[ebp]
  00013	e8 00 00 00 00	 call	 ??8?$_Tree_const_iterator@V?$_Tree_val@V?$_Tmap_traits@HPAU_MAPSVR_DATA@@U?$less@H@std@@V?$allocator@U?$pair@$$CBHPAU_MAPSVR_DATA@@@std@@@3@$0A@@std@@@std@@@std@@QBE_NABV01@@Z ; std::_Tree_const_iterator<std::_Tree_val<std::_Tmap_traits<int,_MAPSVR_DATA *,std::less<int>,std::allocator<std::pair<int const ,_MAPSVR_DATA *> >,0> > >::operator==
  00018	0f b6 c0	 movzx	 eax, al
  0001b	f7 d8		 neg	 eax
  0001d	1b c0		 sbb	 eax, eax
  0001f	83 c0 01	 add	 eax, 1

; 336  : 		}

  00022	5f		 pop	 edi
  00023	5e		 pop	 esi
  00024	5b		 pop	 ebx
  00025	8b e5		 mov	 esp, ebp
  00027	5d		 pop	 ebp
  00028	c2 04 00	 ret	 4
??9?$_Tree_const_iterator@V?$_Tree_val@V?$_Tmap_traits@HPAU_MAPSVR_DATA@@U?$less@H@std@@V?$allocator@U?$pair@$$CBHPAU_MAPSVR_DATA@@@std@@@3@$0A@@std@@@std@@@std@@QBE_NABV01@@Z ENDP ; std::_Tree_const_iterator<std::_Tree_val<std::_Tmap_traits<int,_MAPSVR_DATA *,std::less<int>,std::allocator<std::pair<int const ,_MAPSVR_DATA *> >,0> > >::operator!=
_TEXT	ENDS
PUBLIC	??0?$_Vector_val@PAU_MAPSVR_DATA@@V?$allocator@PAU_MAPSVR_DATA@@@std@@@std@@QAE@V?$allocator@PAU_MAPSVR_DATA@@@1@@Z ; std::_Vector_val<_MAPSVR_DATA *,std::allocator<_MAPSVR_DATA *> >::_Vector_val<_MAPSVR_DATA *,std::allocator<_MAPSVR_DATA *> >
PUBLIC	??0?$allocator@PAU_MAPSVR_DATA@@@std@@QAE@XZ	; std::allocator<_MAPSVR_DATA *>::allocator<_MAPSVR_DATA *>
; Function compile flags: /Odtp /ZI
; File d:\microsoft visual studio 10.0\vc\include\vector
;	COMDAT ??0?$vector@PAU_MAPSVR_DATA@@V?$allocator@PAU_MAPSVR_DATA@@@std@@@std@@QAE@XZ
_TEXT	SEGMENT
$T230657 = -72						; size = 4
_this$ = -4						; size = 4
??0?$vector@PAU_MAPSVR_DATA@@V?$allocator@PAU_MAPSVR_DATA@@@std@@@std@@QAE@XZ PROC ; std::vector<_MAPSVR_DATA *,std::allocator<_MAPSVR_DATA *> >::vector<_MAPSVR_DATA *,std::allocator<_MAPSVR_DATA *> >, COMDAT
; _this$ = ecx

; 507  : 		{	// construct empty vector

  00000	55		 push	 ebp
  00001	8b ec		 mov	 ebp, esp
  00003	83 ec 48	 sub	 esp, 72			; 00000048H
  00006	53		 push	 ebx
  00007	56		 push	 esi
  00008	57		 push	 edi
  00009	89 4d fc	 mov	 DWORD PTR _this$[ebp], ecx
  0000c	51		 push	 ecx
  0000d	8b cc		 mov	 ecx, esp
  0000f	89 65 b8	 mov	 DWORD PTR $T230657[ebp], esp
  00012	e8 00 00 00 00	 call	 ??0?$allocator@PAU_MAPSVR_DATA@@@std@@QAE@XZ ; std::allocator<_MAPSVR_DATA *>::allocator<_MAPSVR_DATA *>
  00017	8b 4d fc	 mov	 ecx, DWORD PTR _this$[ebp]
  0001a	e8 00 00 00 00	 call	 ??0?$_Vector_val@PAU_MAPSVR_DATA@@V?$allocator@PAU_MAPSVR_DATA@@@std@@@std@@QAE@V?$allocator@PAU_MAPSVR_DATA@@@1@@Z ; std::_Vector_val<_MAPSVR_DATA *,std::allocator<_MAPSVR_DATA *> >::_Vector_val<_MAPSVR_DATA *,std::allocator<_MAPSVR_DATA *> >

; 508  : 		}

  0001f	8b 45 fc	 mov	 eax, DWORD PTR _this$[ebp]
  00022	5f		 pop	 edi
  00023	5e		 pop	 esi
  00024	5b		 pop	 ebx
  00025	8b e5		 mov	 esp, ebp
  00027	5d		 pop	 ebp
  00028	c3		 ret	 0
??0?$vector@PAU_MAPSVR_DATA@@V?$allocator@PAU_MAPSVR_DATA@@@std@@@std@@QAE@XZ ENDP ; std::vector<_MAPSVR_DATA *,std::allocator<_MAPSVR_DATA *> >::vector<_MAPSVR_DATA *,std::allocator<_MAPSVR_DATA *> >
_TEXT	ENDS
PUBLIC	??1?$_Vector_val@PAU_MAPSVR_DATA@@V?$allocator@PAU_MAPSVR_DATA@@@std@@@std@@QAE@XZ ; std::_Vector_val<_MAPSVR_DATA *,std::allocator<_MAPSVR_DATA *> >::~_Vector_val<_MAPSVR_DATA *,std::allocator<_MAPSVR_DATA *> >
PUBLIC	?_Tidy@?$vector@PAU_MAPSVR_DATA@@V?$allocator@PAU_MAPSVR_DATA@@@std@@@std@@IAEXXZ ; std::vector<_MAPSVR_DATA *,std::allocator<_MAPSVR_DATA *> >::_Tidy
;	COMDAT xdata$x
xdata$x	SEGMENT
__unwindtable$??1?$vector@PAU_MAPSVR_DATA@@V?$allocator@PAU_MAPSVR_DATA@@@std@@@std@@QAE@XZ DD 0ffffffffH
	DD	FLAT:__unwindfunclet$??1?$vector@PAU_MAPSVR_DATA@@V?$allocator@PAU_MAPSVR_DATA@@@std@@@std@@QAE@XZ$0
__ehfuncinfo$??1?$vector@PAU_MAPSVR_DATA@@V?$allocator@PAU_MAPSVR_DATA@@@std@@@std@@QAE@XZ DD 019930522H
	DD	01H
	DD	FLAT:__unwindtable$??1?$vector@PAU_MAPSVR_DATA@@V?$allocator@PAU_MAPSVR_DATA@@@std@@@std@@QAE@XZ
	DD	2 DUP(00H)
	DD	2 DUP(00H)
	DD	00H
	DD	01H
; Function compile flags: /Odtp /ZI
xdata$x	ENDS
;	COMDAT ??1?$vector@PAU_MAPSVR_DATA@@V?$allocator@PAU_MAPSVR_DATA@@@std@@@std@@QAE@XZ
_TEXT	SEGMENT
_this$ = -16						; size = 4
__$EHRec$ = -12						; size = 12
??1?$vector@PAU_MAPSVR_DATA@@V?$allocator@PAU_MAPSVR_DATA@@@std@@@std@@QAE@XZ PROC ; std::vector<_MAPSVR_DATA *,std::allocator<_MAPSVR_DATA *> >::~vector<_MAPSVR_DATA *,std::allocator<_MAPSVR_DATA *> >, COMDAT
; _this$ = ecx

; 704  : 		{	// destroy the object

  00000	55		 push	 ebp
  00001	8b ec		 mov	 ebp, esp
  00003	6a ff		 push	 -1
  00005	68 00 00 00 00	 push	 __ehhandler$??1?$vector@PAU_MAPSVR_DATA@@V?$allocator@PAU_MAPSVR_DATA@@@std@@@std@@QAE@XZ
  0000a	64 a1 00 00 00
	00		 mov	 eax, DWORD PTR fs:0
  00010	50		 push	 eax
  00011	83 ec 44	 sub	 esp, 68			; 00000044H
  00014	53		 push	 ebx
  00015	56		 push	 esi
  00016	57		 push	 edi
  00017	a1 00 00 00 00	 mov	 eax, DWORD PTR ___security_cookie
  0001c	33 c5		 xor	 eax, ebp
  0001e	50		 push	 eax
  0001f	8d 45 f4	 lea	 eax, DWORD PTR __$EHRec$[ebp]
  00022	64 a3 00 00 00
	00		 mov	 DWORD PTR fs:0, eax
  00028	89 4d f0	 mov	 DWORD PTR _this$[ebp], ecx
  0002b	c7 45 fc 00 00
	00 00		 mov	 DWORD PTR __$EHRec$[ebp+8], 0

; 705  : 		_Tidy();

  00032	8b 4d f0	 mov	 ecx, DWORD PTR _this$[ebp]
  00035	e8 00 00 00 00	 call	 ?_Tidy@?$vector@PAU_MAPSVR_DATA@@V?$allocator@PAU_MAPSVR_DATA@@@std@@@std@@IAEXXZ ; std::vector<_MAPSVR_DATA *,std::allocator<_MAPSVR_DATA *> >::_Tidy

; 706  : 		}

  0003a	c7 45 fc ff ff
	ff ff		 mov	 DWORD PTR __$EHRec$[ebp+8], -1
  00041	8b 4d f0	 mov	 ecx, DWORD PTR _this$[ebp]
  00044	e8 00 00 00 00	 call	 ??1?$_Vector_val@PAU_MAPSVR_DATA@@V?$allocator@PAU_MAPSVR_DATA@@@std@@@std@@QAE@XZ ; std::_Vector_val<_MAPSVR_DATA *,std::allocator<_MAPSVR_DATA *> >::~_Vector_val<_MAPSVR_DATA *,std::allocator<_MAPSVR_DATA *> >
  00049	8b 4d f4	 mov	 ecx, DWORD PTR __$EHRec$[ebp]
  0004c	64 89 0d 00 00
	00 00		 mov	 DWORD PTR fs:0, ecx
  00053	59		 pop	 ecx
  00054	5f		 pop	 edi
  00055	5e		 pop	 esi
  00056	5b		 pop	 ebx
  00057	8b e5		 mov	 esp, ebp
  00059	5d		 pop	 ebp
  0005a	c3		 ret	 0
_TEXT	ENDS
;	COMDAT text$x
text$x	SEGMENT
__unwindfunclet$??1?$vector@PAU_MAPSVR_DATA@@V?$allocator@PAU_MAPSVR_DATA@@@std@@@std@@QAE@XZ$0:
  00000	8b 4d f0	 mov	 ecx, DWORD PTR _this$[ebp]
  00003	e9 00 00 00 00	 jmp	 ??1?$_Vector_val@PAU_MAPSVR_DATA@@V?$allocator@PAU_MAPSVR_DATA@@@std@@@std@@QAE@XZ ; std::_Vector_val<_MAPSVR_DATA *,std::allocator<_MAPSVR_DATA *> >::~_Vector_val<_MAPSVR_DATA *,std::allocator<_MAPSVR_DATA *> >
__ehhandler$??1?$vector@PAU_MAPSVR_DATA@@V?$allocator@PAU_MAPSVR_DATA@@@std@@@std@@QAE@XZ:
  00008	8b 54 24 08	 mov	 edx, DWORD PTR [esp+8]
  0000c	8d 42 0c	 lea	 eax, DWORD PTR [edx+12]
  0000f	8b 4a ac	 mov	 ecx, DWORD PTR [edx-84]
  00012	33 c8		 xor	 ecx, eax
  00014	e8 00 00 00 00	 call	 @__security_check_cookie@4
  00019	b8 00 00 00 00	 mov	 eax, OFFSET __ehfuncinfo$??1?$vector@PAU_MAPSVR_DATA@@V?$allocator@PAU_MAPSVR_DATA@@@std@@@std@@QAE@XZ
  0001e	e9 00 00 00 00	 jmp	 ___CxxFrameHandler3
text$x	ENDS
??1?$vector@PAU_MAPSVR_DATA@@V?$allocator@PAU_MAPSVR_DATA@@@std@@@std@@QAE@XZ ENDP ; std::vector<_MAPSVR_DATA *,std::allocator<_MAPSVR_DATA *> >::~vector<_MAPSVR_DATA *,std::allocator<_MAPSVR_DATA *> >
; Function compile flags: /Odtp /ZI
;	COMDAT ?size@?$vector@PAU_MAPSVR_DATA@@V?$allocator@PAU_MAPSVR_DATA@@@std@@@std@@QBEIXZ
_TEXT	SEGMENT
_this$ = -4						; size = 4
?size@?$vector@PAU_MAPSVR_DATA@@V?$allocator@PAU_MAPSVR_DATA@@@std@@@std@@QBEIXZ PROC ; std::vector<_MAPSVR_DATA *,std::allocator<_MAPSVR_DATA *> >::size, COMDAT
; _this$ = ecx

; 878  : 		{	// return length of sequence

  00000	55		 push	 ebp
  00001	8b ec		 mov	 ebp, esp
  00003	83 ec 44	 sub	 esp, 68			; 00000044H
  00006	53		 push	 ebx
  00007	56		 push	 esi
  00008	57		 push	 edi
  00009	89 4d fc	 mov	 DWORD PTR _this$[ebp], ecx

; 879  : 		return (this->_Mylast - this->_Myfirst);

  0000c	8b 45 fc	 mov	 eax, DWORD PTR _this$[ebp]
  0000f	8b 4d fc	 mov	 ecx, DWORD PTR _this$[ebp]
  00012	8b 40 04	 mov	 eax, DWORD PTR [eax+4]
  00015	2b 01		 sub	 eax, DWORD PTR [ecx]
  00017	c1 f8 02	 sar	 eax, 2

; 880  : 		}

  0001a	5f		 pop	 edi
  0001b	5e		 pop	 esi
  0001c	5b		 pop	 ebx
  0001d	8b e5		 mov	 esp, ebp
  0001f	5d		 pop	 ebp
  00020	c3		 ret	 0
?size@?$vector@PAU_MAPSVR_DATA@@V?$allocator@PAU_MAPSVR_DATA@@@std@@@std@@QBEIXZ ENDP ; std::vector<_MAPSVR_DATA *,std::allocator<_MAPSVR_DATA *> >::size
; Function compile flags: /Odtp /ZI
_TEXT	ENDS
;	COMDAT ?empty@?$vector@PAU_MAPSVR_DATA@@V?$allocator@PAU_MAPSVR_DATA@@@std@@@std@@QBE_NXZ
_TEXT	SEGMENT
_this$ = -4						; size = 4
?empty@?$vector@PAU_MAPSVR_DATA@@V?$allocator@PAU_MAPSVR_DATA@@@std@@@std@@QBE_NXZ PROC ; std::vector<_MAPSVR_DATA *,std::allocator<_MAPSVR_DATA *> >::empty, COMDAT
; _this$ = ecx

; 888  : 		{	// test if sequence is empty

  00000	55		 push	 ebp
  00001	8b ec		 mov	 ebp, esp
  00003	83 ec 44	 sub	 esp, 68			; 00000044H
  00006	53		 push	 ebx
  00007	56		 push	 esi
  00008	57		 push	 edi
  00009	89 4d fc	 mov	 DWORD PTR _this$[ebp], ecx

; 889  : 		return (this->_Myfirst == this->_Mylast);

  0000c	8b 45 fc	 mov	 eax, DWORD PTR _this$[ebp]
  0000f	8b 4d fc	 mov	 ecx, DWORD PTR _this$[ebp]
  00012	8b 10		 mov	 edx, DWORD PTR [eax]
  00014	33 c0		 xor	 eax, eax
  00016	3b 51 04	 cmp	 edx, DWORD PTR [ecx+4]
  00019	0f 94 c0	 sete	 al

; 890  : 		}

  0001c	5f		 pop	 edi
  0001d	5e		 pop	 esi
  0001e	5b		 pop	 ebx
  0001f	8b e5		 mov	 esp, ebp
  00021	5d		 pop	 ebp
  00022	c3		 ret	 0
?empty@?$vector@PAU_MAPSVR_DATA@@V?$allocator@PAU_MAPSVR_DATA@@@std@@@std@@QBE_NXZ ENDP ; std::vector<_MAPSVR_DATA *,std::allocator<_MAPSVR_DATA *> >::empty
; Function compile flags: /Odtp /ZI
_TEXT	ENDS
;	COMDAT ??A?$vector@PAU_MAPSVR_DATA@@V?$allocator@PAU_MAPSVR_DATA@@@std@@@std@@QAEAAPAU_MAPSVR_DATA@@I@Z
_TEXT	SEGMENT
_this$ = -4						; size = 4
__Pos$ = 8						; size = 4
??A?$vector@PAU_MAPSVR_DATA@@V?$allocator@PAU_MAPSVR_DATA@@@std@@@std@@QAEAAPAU_MAPSVR_DATA@@I@Z PROC ; std::vector<_MAPSVR_DATA *,std::allocator<_MAPSVR_DATA *> >::operator[], COMDAT
; _this$ = ecx

; 928  : 		{	// subscript mutable sequence

  00000	55		 push	 ebp
  00001	8b ec		 mov	 ebp, esp
  00003	83 ec 44	 sub	 esp, 68			; 00000044H
  00006	53		 push	 ebx
  00007	56		 push	 esi
  00008	57		 push	 edi
  00009	89 4d fc	 mov	 DWORD PTR _this$[ebp], ecx

; 929  :  #if _ITERATOR_DEBUG_LEVEL == 2
; 930  : 		if (size() <= _Pos)
; 931  : 			{	// report error
; 932  : 			_DEBUG_ERROR("vector subscript out of range");
; 933  : 			_SCL_SECURE_OUT_OF_RANGE;
; 934  : 			}
; 935  : 
; 936  :  #elif _ITERATOR_DEBUG_LEVEL == 1
; 937  : 		_SCL_SECURE_VALIDATE_RANGE(_Pos < size());
; 938  :  #endif /* _ITERATOR_DEBUG_LEVEL */
; 939  : 
; 940  : 		return (*(this->_Myfirst + _Pos));

  0000c	8b 45 fc	 mov	 eax, DWORD PTR _this$[ebp]
  0000f	8b 08		 mov	 ecx, DWORD PTR [eax]
  00011	8b 55 08	 mov	 edx, DWORD PTR __Pos$[ebp]
  00014	8d 04 91	 lea	 eax, DWORD PTR [ecx+edx*4]

; 941  : 		}

  00017	5f		 pop	 edi
  00018	5e		 pop	 esi
  00019	5b		 pop	 ebx
  0001a	8b e5		 mov	 esp, ebp
  0001c	5d		 pop	 ebp
  0001d	c2 04 00	 ret	 4
??A?$vector@PAU_MAPSVR_DATA@@V?$allocator@PAU_MAPSVR_DATA@@@std@@@std@@QAEAAPAU_MAPSVR_DATA@@I@Z ENDP ; std::vector<_MAPSVR_DATA *,std::allocator<_MAPSVR_DATA *> >::operator[]
_TEXT	ENDS
PUBLIC	??$_Cons_val@V?$allocator@PAU_MAPSVR_DATA@@@std@@PAU_MAPSVR_DATA@@ABQAU3@@std@@YAXAAV?$allocator@PAU_MAPSVR_DATA@@@0@PAPAU_MAPSVR_DATA@@ABQAU2@@Z ; std::_Cons_val<std::allocator<_MAPSVR_DATA *>,_MAPSVR_DATA *,_MAPSVR_DATA * const &>
PUBLIC	??$_Cons_val@V?$allocator@PAU_MAPSVR_DATA@@@std@@PAU_MAPSVR_DATA@@AAPAU3@@std@@YAXAAV?$allocator@PAU_MAPSVR_DATA@@@0@PAPAU_MAPSVR_DATA@@AAPAU2@@Z ; std::_Cons_val<std::allocator<_MAPSVR_DATA *>,_MAPSVR_DATA *,_MAPSVR_DATA * &>
PUBLIC	?_Orphan_range@?$vector@PAU_MAPSVR_DATA@@V?$allocator@PAU_MAPSVR_DATA@@@std@@@std@@IBEXPAPAU_MAPSVR_DATA@@0@Z ; std::vector<_MAPSVR_DATA *,std::allocator<_MAPSVR_DATA *> >::_Orphan_range
PUBLIC	?_Reserve@?$vector@PAU_MAPSVR_DATA@@V?$allocator@PAU_MAPSVR_DATA@@@std@@@std@@IAEXI@Z ; std::vector<_MAPSVR_DATA *,std::allocator<_MAPSVR_DATA *> >::_Reserve
PUBLIC	?_Inside@?$vector@PAU_MAPSVR_DATA@@V?$allocator@PAU_MAPSVR_DATA@@@std@@@std@@IBE_NPBQAU_MAPSVR_DATA@@@Z ; std::vector<_MAPSVR_DATA *,std::allocator<_MAPSVR_DATA *> >::_Inside
PUBLIC	??$addressof@QAU_MAPSVR_DATA@@@std@@YAPBQAU_MAPSVR_DATA@@ABQAU1@@Z ; std::addressof<_MAPSVR_DATA * const>
; Function compile flags: /Odtp /ZI
;	COMDAT ?push_back@?$vector@PAU_MAPSVR_DATA@@V?$allocator@PAU_MAPSVR_DATA@@@std@@@std@@QAEXABQAU_MAPSVR_DATA@@@Z
_TEXT	SEGMENT
__Idx$229110 = -8					; size = 4
_this$ = -4						; size = 4
__Val$ = 8						; size = 4
?push_back@?$vector@PAU_MAPSVR_DATA@@V?$allocator@PAU_MAPSVR_DATA@@@std@@@std@@QAEXABQAU_MAPSVR_DATA@@@Z PROC ; std::vector<_MAPSVR_DATA *,std::allocator<_MAPSVR_DATA *> >::push_back, COMDAT
; _this$ = ecx

; 976  : 		{	// insert element at end

  00000	55		 push	 ebp
  00001	8b ec		 mov	 ebp, esp
  00003	83 ec 48	 sub	 esp, 72			; 00000048H
  00006	53		 push	 ebx
  00007	56		 push	 esi
  00008	57		 push	 edi
  00009	89 4d fc	 mov	 DWORD PTR _this$[ebp], ecx

; 977  : 		if (_Inside(_STD addressof(_Val)))

  0000c	8b 45 08	 mov	 eax, DWORD PTR __Val$[ebp]
  0000f	50		 push	 eax
  00010	e8 00 00 00 00	 call	 ??$addressof@QAU_MAPSVR_DATA@@@std@@YAPBQAU_MAPSVR_DATA@@ABQAU1@@Z ; std::addressof<_MAPSVR_DATA * const>
  00015	83 c4 04	 add	 esp, 4
  00018	50		 push	 eax
  00019	8b 4d fc	 mov	 ecx, DWORD PTR _this$[ebp]
  0001c	e8 00 00 00 00	 call	 ?_Inside@?$vector@PAU_MAPSVR_DATA@@V?$allocator@PAU_MAPSVR_DATA@@@std@@@std@@IBE_NPBQAU_MAPSVR_DATA@@@Z ; std::vector<_MAPSVR_DATA *,std::allocator<_MAPSVR_DATA *> >::_Inside
  00021	0f b6 c8	 movzx	 ecx, al
  00024	85 c9		 test	 ecx, ecx
  00026	74 78		 je	 SHORT $LN4@push_back

; 978  : 			{	// push back an element
; 979  : 			size_type _Idx = _STD addressof(_Val) - this->_Myfirst;

  00028	8b 45 08	 mov	 eax, DWORD PTR __Val$[ebp]
  0002b	50		 push	 eax
  0002c	e8 00 00 00 00	 call	 ??$addressof@QAU_MAPSVR_DATA@@@std@@YAPBQAU_MAPSVR_DATA@@ABQAU1@@Z ; std::addressof<_MAPSVR_DATA * const>
  00031	83 c4 04	 add	 esp, 4
  00034	8b 4d fc	 mov	 ecx, DWORD PTR _this$[ebp]
  00037	2b 01		 sub	 eax, DWORD PTR [ecx]
  00039	c1 f8 02	 sar	 eax, 2
  0003c	89 45 f8	 mov	 DWORD PTR __Idx$229110[ebp], eax

; 980  : 			if (this->_Mylast == this->_Myend)

  0003f	8b 45 fc	 mov	 eax, DWORD PTR _this$[ebp]
  00042	8b 4d fc	 mov	 ecx, DWORD PTR _this$[ebp]
  00045	8b 50 04	 mov	 edx, DWORD PTR [eax+4]
  00048	3b 51 08	 cmp	 edx, DWORD PTR [ecx+8]
  0004b	75 0a		 jne	 SHORT $LN3@push_back

; 981  : 				_Reserve(1);

  0004d	6a 01		 push	 1
  0004f	8b 4d fc	 mov	 ecx, DWORD PTR _this$[ebp]
  00052	e8 00 00 00 00	 call	 ?_Reserve@?$vector@PAU_MAPSVR_DATA@@V?$allocator@PAU_MAPSVR_DATA@@@std@@@std@@IAEXI@Z ; std::vector<_MAPSVR_DATA *,std::allocator<_MAPSVR_DATA *> >::_Reserve
$LN3@push_back:

; 982  : 			_Orphan_range(this->_Mylast, this->_Mylast);

  00057	8b 45 fc	 mov	 eax, DWORD PTR _this$[ebp]
  0005a	8b 48 04	 mov	 ecx, DWORD PTR [eax+4]
  0005d	51		 push	 ecx
  0005e	8b 55 fc	 mov	 edx, DWORD PTR _this$[ebp]
  00061	8b 42 04	 mov	 eax, DWORD PTR [edx+4]
  00064	50		 push	 eax
  00065	8b 4d fc	 mov	 ecx, DWORD PTR _this$[ebp]
  00068	e8 00 00 00 00	 call	 ?_Orphan_range@?$vector@PAU_MAPSVR_DATA@@V?$allocator@PAU_MAPSVR_DATA@@@std@@@std@@IBEXPAPAU_MAPSVR_DATA@@0@Z ; std::vector<_MAPSVR_DATA *,std::allocator<_MAPSVR_DATA *> >::_Orphan_range

; 983  : 			_Cons_val(this->_Alval,
; 984  : 				this->_Mylast,
; 985  : 				this->_Myfirst[_Idx]);

  0006d	8b 45 fc	 mov	 eax, DWORD PTR _this$[ebp]
  00070	8b 08		 mov	 ecx, DWORD PTR [eax]
  00072	8b 55 f8	 mov	 edx, DWORD PTR __Idx$229110[ebp]
  00075	8d 04 91	 lea	 eax, DWORD PTR [ecx+edx*4]
  00078	50		 push	 eax
  00079	8b 4d fc	 mov	 ecx, DWORD PTR _this$[ebp]
  0007c	8b 51 04	 mov	 edx, DWORD PTR [ecx+4]
  0007f	52		 push	 edx
  00080	8b 45 fc	 mov	 eax, DWORD PTR _this$[ebp]
  00083	83 c0 0c	 add	 eax, 12			; 0000000cH
  00086	50		 push	 eax
  00087	e8 00 00 00 00	 call	 ??$_Cons_val@V?$allocator@PAU_MAPSVR_DATA@@@std@@PAU_MAPSVR_DATA@@AAPAU3@@std@@YAXAAV?$allocator@PAU_MAPSVR_DATA@@@0@PAPAU_MAPSVR_DATA@@AAPAU2@@Z ; std::_Cons_val<std::allocator<_MAPSVR_DATA *>,_MAPSVR_DATA *,_MAPSVR_DATA * &>
  0008c	83 c4 0c	 add	 esp, 12			; 0000000cH

; 986  : 			++this->_Mylast;

  0008f	8b 45 fc	 mov	 eax, DWORD PTR _this$[ebp]
  00092	8b 48 04	 mov	 ecx, DWORD PTR [eax+4]
  00095	83 c1 04	 add	 ecx, 4
  00098	8b 55 fc	 mov	 edx, DWORD PTR _this$[ebp]
  0009b	89 4a 04	 mov	 DWORD PTR [edx+4], ecx

; 987  : 			}
; 988  : 		else

  0009e	eb 57		 jmp	 SHORT $LN5@push_back
$LN4@push_back:

; 989  : 			{	// push back a non-element
; 990  : 			if (this->_Mylast == this->_Myend)

  000a0	8b 45 fc	 mov	 eax, DWORD PTR _this$[ebp]
  000a3	8b 4d fc	 mov	 ecx, DWORD PTR _this$[ebp]
  000a6	8b 50 04	 mov	 edx, DWORD PTR [eax+4]
  000a9	3b 51 08	 cmp	 edx, DWORD PTR [ecx+8]
  000ac	75 0a		 jne	 SHORT $LN1@push_back

; 991  : 				_Reserve(1);

  000ae	6a 01		 push	 1
  000b0	8b 4d fc	 mov	 ecx, DWORD PTR _this$[ebp]
  000b3	e8 00 00 00 00	 call	 ?_Reserve@?$vector@PAU_MAPSVR_DATA@@V?$allocator@PAU_MAPSVR_DATA@@@std@@@std@@IAEXI@Z ; std::vector<_MAPSVR_DATA *,std::allocator<_MAPSVR_DATA *> >::_Reserve
$LN1@push_back:

; 992  : 			_Orphan_range(this->_Mylast, this->_Mylast);

  000b8	8b 45 fc	 mov	 eax, DWORD PTR _this$[ebp]
  000bb	8b 48 04	 mov	 ecx, DWORD PTR [eax+4]
  000be	51		 push	 ecx
  000bf	8b 55 fc	 mov	 edx, DWORD PTR _this$[ebp]
  000c2	8b 42 04	 mov	 eax, DWORD PTR [edx+4]
  000c5	50		 push	 eax
  000c6	8b 4d fc	 mov	 ecx, DWORD PTR _this$[ebp]
  000c9	e8 00 00 00 00	 call	 ?_Orphan_range@?$vector@PAU_MAPSVR_DATA@@V?$allocator@PAU_MAPSVR_DATA@@@std@@@std@@IBEXPAPAU_MAPSVR_DATA@@0@Z ; std::vector<_MAPSVR_DATA *,std::allocator<_MAPSVR_DATA *> >::_Orphan_range

; 993  : 			_Cons_val(this->_Alval,
; 994  : 				this->_Mylast,
; 995  : 				_Val);

  000ce	8b 45 08	 mov	 eax, DWORD PTR __Val$[ebp]
  000d1	50		 push	 eax
  000d2	8b 4d fc	 mov	 ecx, DWORD PTR _this$[ebp]
  000d5	8b 51 04	 mov	 edx, DWORD PTR [ecx+4]
  000d8	52		 push	 edx
  000d9	8b 45 fc	 mov	 eax, DWORD PTR _this$[ebp]
  000dc	83 c0 0c	 add	 eax, 12			; 0000000cH
  000df	50		 push	 eax
  000e0	e8 00 00 00 00	 call	 ??$_Cons_val@V?$allocator@PAU_MAPSVR_DATA@@@std@@PAU_MAPSVR_DATA@@ABQAU3@@std@@YAXAAV?$allocator@PAU_MAPSVR_DATA@@@0@PAPAU_MAPSVR_DATA@@ABQAU2@@Z ; std::_Cons_val<std::allocator<_MAPSVR_DATA *>,_MAPSVR_DATA *,_MAPSVR_DATA * const &>
  000e5	83 c4 0c	 add	 esp, 12			; 0000000cH

; 996  : 			++this->_Mylast;

  000e8	8b 45 fc	 mov	 eax, DWORD PTR _this$[ebp]
  000eb	8b 48 04	 mov	 ecx, DWORD PTR [eax+4]
  000ee	83 c1 04	 add	 ecx, 4
  000f1	8b 55 fc	 mov	 edx, DWORD PTR _this$[ebp]
  000f4	89 4a 04	 mov	 DWORD PTR [edx+4], ecx
$LN5@push_back:

; 997  : 			}
; 998  : 		}

  000f7	5f		 pop	 edi
  000f8	5e		 pop	 esi
  000f9	5b		 pop	 ebx
  000fa	8b e5		 mov	 esp, ebp
  000fc	5d		 pop	 ebp
  000fd	c2 04 00	 ret	 4
?push_back@?$vector@PAU_MAPSVR_DATA@@V?$allocator@PAU_MAPSVR_DATA@@@std@@@std@@QAEXABQAU_MAPSVR_DATA@@@Z ENDP ; std::vector<_MAPSVR_DATA *,std::allocator<_MAPSVR_DATA *> >::push_back
; Function compile flags: /Odtp /ZI
; File d:\microsoft visual studio 10.0\vc\include\xfunctional
_TEXT	ENDS
;	COMDAT ??R?$less@H@std@@QBE_NABH0@Z
_TEXT	SEGMENT
_this$ = -4						; size = 4
__Left$ = 8						; size = 4
__Right$ = 12						; size = 4
??R?$less@H@std@@QBE_NABH0@Z PROC			; std::less<int>::operator(), COMDAT
; _this$ = ecx

; 124  : 		{	// apply operator< to operands

  00000	55		 push	 ebp
  00001	8b ec		 mov	 ebp, esp
  00003	83 ec 44	 sub	 esp, 68			; 00000044H
  00006	53		 push	 ebx
  00007	56		 push	 esi
  00008	57		 push	 edi
  00009	89 4d fc	 mov	 DWORD PTR _this$[ebp], ecx

; 125  : 		return (_Left < _Right);

  0000c	8b 45 08	 mov	 eax, DWORD PTR __Left$[ebp]
  0000f	8b 4d 0c	 mov	 ecx, DWORD PTR __Right$[ebp]
  00012	8b 10		 mov	 edx, DWORD PTR [eax]
  00014	33 c0		 xor	 eax, eax
  00016	3b 11		 cmp	 edx, DWORD PTR [ecx]
  00018	0f 9c c0	 setl	 al

; 126  : 		}

  0001b	5f		 pop	 edi
  0001c	5e		 pop	 esi
  0001d	5b		 pop	 ebx
  0001e	8b e5		 mov	 esp, ebp
  00020	5d		 pop	 ebp
  00021	c2 08 00	 ret	 8
??R?$less@H@std@@QBE_NABH0@Z ENDP			; std::less<int>::operator()
_TEXT	ENDS
PUBLIC	??0?$_Tree_val@V?$_Tmap_traits@HPAU_MAPSVR_DATA@@U?$less@H@std@@V?$allocator@U?$pair@$$CBHPAU_MAPSVR_DATA@@@std@@@3@$0A@@std@@@std@@QAE@ABU?$less@H@1@V?$allocator@U?$pair@$$CBHPAU_MAPSVR_DATA@@@std@@@1@@Z ; std::_Tree_val<std::_Tmap_traits<int,_MAPSVR_DATA *,std::less<int>,std::allocator<std::pair<int const ,_MAPSVR_DATA *> >,0> >::_Tree_val<std::_Tmap_traits<int,_MAPSVR_DATA *,std::less<int>,std::allocator<std::pair<int const ,_MAPSVR_DATA *> >,0> >
PUBLIC	??0?$allocator@U?$pair@$$CBHPAU_MAPSVR_DATA@@@std@@@std@@QAE@ABV01@@Z ; std::allocator<std::pair<int const ,_MAPSVR_DATA *> >::allocator<std::pair<int const ,_MAPSVR_DATA *> >
; Function compile flags: /Odtp /ZI
; File d:\microsoft visual studio 10.0\vc\include\xtree
;	COMDAT ??0?$_Tree@V?$_Tmap_traits@HPAU_MAPSVR_DATA@@U?$less@H@std@@V?$allocator@U?$pair@$$CBHPAU_MAPSVR_DATA@@@std@@@3@$0A@@std@@@std@@QAE@ABU?$less@H@1@ABV?$allocator@U?$pair@$$CBHPAU_MAPSVR_DATA@@@std@@@1@@Z
_TEXT	SEGMENT
$T230680 = -72						; size = 4
_this$ = -4						; size = 4
__Parg$ = 8						; size = 4
__Al$ = 12						; size = 4
??0?$_Tree@V?$_Tmap_traits@HPAU_MAPSVR_DATA@@U?$less@H@std@@V?$allocator@U?$pair@$$CBHPAU_MAPSVR_DATA@@@std@@@3@$0A@@std@@@std@@QAE@ABU?$less@H@1@ABV?$allocator@U?$pair@$$CBHPAU_MAPSVR_DATA@@@std@@@1@@Z PROC ; std::_Tree<std::_Tmap_traits<int,_MAPSVR_DATA *,std::less<int>,std::allocator<std::pair<int const ,_MAPSVR_DATA *> >,0> >::_Tree<std::_Tmap_traits<int,_MAPSVR_DATA *,std::less<int>,std::allocator<std::pair<int const ,_MAPSVR_DATA *> >,0> >, COMDAT
; _this$ = ecx

; 698  : 		{	// construct empty tree

  00000	55		 push	 ebp
  00001	8b ec		 mov	 ebp, esp
  00003	83 ec 48	 sub	 esp, 72			; 00000048H
  00006	53		 push	 ebx
  00007	56		 push	 esi
  00008	57		 push	 edi
  00009	89 4d fc	 mov	 DWORD PTR _this$[ebp], ecx
  0000c	51		 push	 ecx
  0000d	8b cc		 mov	 ecx, esp
  0000f	89 65 b8	 mov	 DWORD PTR $T230680[ebp], esp
  00012	8b 45 0c	 mov	 eax, DWORD PTR __Al$[ebp]
  00015	50		 push	 eax
  00016	e8 00 00 00 00	 call	 ??0?$allocator@U?$pair@$$CBHPAU_MAPSVR_DATA@@@std@@@std@@QAE@ABV01@@Z ; std::allocator<std::pair<int const ,_MAPSVR_DATA *> >::allocator<std::pair<int const ,_MAPSVR_DATA *> >
  0001b	8b 4d 08	 mov	 ecx, DWORD PTR __Parg$[ebp]
  0001e	51		 push	 ecx
  0001f	8b 4d fc	 mov	 ecx, DWORD PTR _this$[ebp]
  00022	e8 00 00 00 00	 call	 ??0?$_Tree_val@V?$_Tmap_traits@HPAU_MAPSVR_DATA@@U?$less@H@std@@V?$allocator@U?$pair@$$CBHPAU_MAPSVR_DATA@@@std@@@3@$0A@@std@@@std@@QAE@ABU?$less@H@1@V?$allocator@U?$pair@$$CBHPAU_MAPSVR_DATA@@@std@@@1@@Z ; std::_Tree_val<std::_Tmap_traits<int,_MAPSVR_DATA *,std::less<int>,std::allocator<std::pair<int const ,_MAPSVR_DATA *> >,0> >::_Tree_val<std::_Tmap_traits<int,_MAPSVR_DATA *,std::less<int>,std::allocator<std::pair<int const ,_MAPSVR_DATA *> >,0> >

; 699  : 		}

  00027	8b 45 fc	 mov	 eax, DWORD PTR _this$[ebp]
  0002a	5f		 pop	 edi
  0002b	5e		 pop	 esi
  0002c	5b		 pop	 ebx
  0002d	8b e5		 mov	 esp, ebp
  0002f	5d		 pop	 ebp
  00030	c2 08 00	 ret	 8
??0?$_Tree@V?$_Tmap_traits@HPAU_MAPSVR_DATA@@U?$less@H@std@@V?$allocator@U?$pair@$$CBHPAU_MAPSVR_DATA@@@std@@@3@$0A@@std@@@std@@QAE@ABU?$less@H@1@ABV?$allocator@U?$pair@$$CBHPAU_MAPSVR_DATA@@@std@@@1@@Z ENDP ; std::_Tree<std::_Tmap_traits<int,_MAPSVR_DATA *,std::less<int>,std::allocator<std::pair<int const ,_MAPSVR_DATA *> >,0> >::_Tree<std::_Tmap_traits<int,_MAPSVR_DATA *,std::less<int>,std::allocator<std::pair<int const ,_MAPSVR_DATA *> >,0> >
_TEXT	ENDS
PUBLIC	?_Lbound@?$_Tree@V?$_Tmap_traits@HPAU_MAPSVR_DATA@@U?$less@H@std@@V?$allocator@U?$pair@$$CBHPAU_MAPSVR_DATA@@@std@@@3@$0A@@std@@@std@@IAEPAU_Node@?$_Tree_nod@V?$_Tmap_traits@HPAU_MAPSVR_DATA@@U?$less@H@std@@V?$allocator@U?$pair@$$CBHPAU_MAPSVR_DATA@@@std@@@3@$0A@@std@@@2@ABH@Z ; std::_Tree<std::_Tmap_traits<int,_MAPSVR_DATA *,std::less<int>,std::allocator<std::pair<int const ,_MAPSVR_DATA *> >,0> >::_Lbound
; Function compile flags: /Odtp /ZI
;	COMDAT ?lower_bound@?$_Tree@V?$_Tmap_traits@HPAU_MAPSVR_DATA@@U?$less@H@std@@V?$allocator@U?$pair@$$CBHPAU_MAPSVR_DATA@@@std@@@3@$0A@@std@@@std@@QAE?AV?$_Tree_iterator@V?$_Tree_val@V?$_Tmap_traits@HPAU_MAPSVR_DATA@@U?$less@H@std@@V?$allocator@U?$pair@$$CBHPAU_MAPSVR_DATA@@@std@@@3@$0A@@std@@@std@@@2@ABH@Z
_TEXT	SEGMENT
_this$ = -4						; size = 4
___$ReturnUdt$ = 8					; size = 4
__Keyval$ = 12						; size = 4
?lower_bound@?$_Tree@V?$_Tmap_traits@HPAU_MAPSVR_DATA@@U?$less@H@std@@V?$allocator@U?$pair@$$CBHPAU_MAPSVR_DATA@@@std@@@3@$0A@@std@@@std@@QAE?AV?$_Tree_iterator@V?$_Tree_val@V?$_Tmap_traits@HPAU_MAPSVR_DATA@@U?$less@H@std@@V?$allocator@U?$pair@$$CBHPAU_MAPSVR_DATA@@@std@@@3@$0A@@std@@@std@@@2@ABH@Z PROC ; std::_Tree<std::_Tmap_traits<int,_MAPSVR_DATA *,std::less<int>,std::allocator<std::pair<int const ,_MAPSVR_DATA *> >,0> >::lower_bound, COMDAT
; _this$ = ecx

; 1449 : 		{	// find leftmost node not less than _Keyval in mutable tree

  00000	55		 push	 ebp
  00001	8b ec		 mov	 ebp, esp
  00003	83 ec 44	 sub	 esp, 68			; 00000044H
  00006	53		 push	 ebx
  00007	56		 push	 esi
  00008	57		 push	 edi
  00009	89 4d fc	 mov	 DWORD PTR _this$[ebp], ecx

; 1450 : 		return (iterator(_Lbound(_Keyval), this));

  0000c	8b 45 fc	 mov	 eax, DWORD PTR _this$[ebp]
  0000f	50		 push	 eax
  00010	8b 4d 0c	 mov	 ecx, DWORD PTR __Keyval$[ebp]
  00013	51		 push	 ecx
  00014	8b 4d fc	 mov	 ecx, DWORD PTR _this$[ebp]
  00017	e8 00 00 00 00	 call	 ?_Lbound@?$_Tree@V?$_Tmap_traits@HPAU_MAPSVR_DATA@@U?$less@H@std@@V?$allocator@U?$pair@$$CBHPAU_MAPSVR_DATA@@@std@@@3@$0A@@std@@@std@@IAEPAU_Node@?$_Tree_nod@V?$_Tmap_traits@HPAU_MAPSVR_DATA@@U?$less@H@std@@V?$allocator@U?$pair@$$CBHPAU_MAPSVR_DATA@@@std@@@3@$0A@@std@@@2@ABH@Z ; std::_Tree<std::_Tmap_traits<int,_MAPSVR_DATA *,std::less<int>,std::allocator<std::pair<int const ,_MAPSVR_DATA *> >,0> >::_Lbound
  0001c	50		 push	 eax
  0001d	8b 4d 08	 mov	 ecx, DWORD PTR ___$ReturnUdt$[ebp]
  00020	e8 00 00 00 00	 call	 ??0?$_Tree_iterator@V?$_Tree_val@V?$_Tmap_traits@HPAU_MAPSVR_DATA@@U?$less@H@std@@V?$allocator@U?$pair@$$CBHPAU_MAPSVR_DATA@@@std@@@3@$0A@@std@@@std@@@std@@QAE@PAU_Node@?$_Tree_nod@V?$_Tmap_traits@HPAU_MAPSVR_DATA@@U?$less@H@std@@V?$allocator@U?$pair@$$CBHPAU_MAPSVR_DATA@@@std@@@3@$0A@@std@@@1@PBV?$_Tree_val@V?$_Tmap_traits@HPAU_MAPSVR_DATA@@U?$less@H@std@@V?$allocator@U?$pair@$$CBHPAU_MAPSVR_DATA@@@std@@@3@$0A@@std@@@1@@Z ; std::_Tree_iterator<std::_Tree_val<std::_Tmap_traits<int,_MAPSVR_DATA *,std::less<int>,std::allocator<std::pair<int const ,_MAPSVR_DATA *> >,0> > >::_Tree_iterator<std::_Tree_val<std::_Tmap_traits<int,_MAPSVR_DATA *,std::less<int>,std::allocator<std::pair<int const ,_MAPSVR_DATA *> >,0> > >
  00025	8b 45 08	 mov	 eax, DWORD PTR ___$ReturnUdt$[ebp]

; 1451 : 		}

  00028	5f		 pop	 edi
  00029	5e		 pop	 esi
  0002a	5b		 pop	 ebx
  0002b	8b e5		 mov	 esp, ebp
  0002d	5d		 pop	 ebp
  0002e	c2 08 00	 ret	 8
?lower_bound@?$_Tree@V?$_Tmap_traits@HPAU_MAPSVR_DATA@@U?$less@H@std@@V?$allocator@U?$pair@$$CBHPAU_MAPSVR_DATA@@@std@@@3@$0A@@std@@@std@@QAE?AV?$_Tree_iterator@V?$_Tree_val@V?$_Tmap_traits@HPAU_MAPSVR_DATA@@U?$less@H@std@@V?$allocator@U?$pair@$$CBHPAU_MAPSVR_DATA@@@std@@@3@$0A@@std@@@std@@@2@ABH@Z ENDP ; std::_Tree<std::_Tmap_traits<int,_MAPSVR_DATA *,std::less<int>,std::allocator<std::pair<int const ,_MAPSVR_DATA *> >,0> >::lower_bound
_TEXT	ENDS
PUBLIC	?deallocate@?$allocator@U_Node@?$_Tree_nod@V?$_Tmap_traits@HPAU_MAPSVR_DATA@@U?$less@H@std@@V?$allocator@U?$pair@$$CBHPAU_MAPSVR_DATA@@@std@@@3@$0A@@std@@@std@@@std@@QAEXPAU_Node@?$_Tree_nod@V?$_Tmap_traits@HPAU_MAPSVR_DATA@@U?$less@H@std@@V?$allocator@U?$pair@$$CBHPAU_MAPSVR_DATA@@@std@@@3@$0A@@std@@@2@I@Z ; std::allocator<std::_Tree_nod<std::_Tmap_traits<int,_MAPSVR_DATA *,std::less<int>,std::allocator<std::pair<int const ,_MAPSVR_DATA *> >,0> >::_Node>::deallocate
PUBLIC	??$_Dest_val@V?$allocator@U?$pair@$$CBHPAU_MAPSVR_DATA@@@std@@@std@@U?$pair@$$CBHPAU_MAPSVR_DATA@@@2@@std@@YAXAAV?$allocator@U?$pair@$$CBHPAU_MAPSVR_DATA@@@std@@@0@PAU?$pair@$$CBHPAU_MAPSVR_DATA@@@0@@Z ; std::_Dest_val<std::allocator<std::pair<int const ,_MAPSVR_DATA *> >,std::pair<int const ,_MAPSVR_DATA *> >
PUBLIC	??$addressof@U?$pair@$$CBHPAU_MAPSVR_DATA@@@std@@@std@@YAPAU?$pair@$$CBHPAU_MAPSVR_DATA@@@0@AAU10@@Z ; std::addressof<std::pair<int const ,_MAPSVR_DATA *> >
PUBLIC	?_Myval@?$_Tree_val@V?$_Tmap_traits@HPAU_MAPSVR_DATA@@U?$less@H@std@@V?$allocator@U?$pair@$$CBHPAU_MAPSVR_DATA@@@std@@@3@$0A@@std@@@std@@SAAAU?$pair@$$CBHPAU_MAPSVR_DATA@@@2@PAU_Node@?$_Tree_nod@V?$_Tmap_traits@HPAU_MAPSVR_DATA@@U?$less@H@std@@V?$allocator@U?$pair@$$CBHPAU_MAPSVR_DATA@@@std@@@3@$0A@@std@@@2@@Z ; std::_Tree_val<std::_Tmap_traits<int,_MAPSVR_DATA *,std::less<int>,std::allocator<std::pair<int const ,_MAPSVR_DATA *> >,0> >::_Myval
PUBLIC	?_Left@?$_Tree_val@V?$_Tmap_traits@HPAU_MAPSVR_DATA@@U?$less@H@std@@V?$allocator@U?$pair@$$CBHPAU_MAPSVR_DATA@@@std@@@3@$0A@@std@@@std@@SAAAPAU_Node@?$_Tree_nod@V?$_Tmap_traits@HPAU_MAPSVR_DATA@@U?$less@H@std@@V?$allocator@U?$pair@$$CBHPAU_MAPSVR_DATA@@@std@@@3@$0A@@std@@@2@PAU342@@Z ; std::_Tree_val<std::_Tmap_traits<int,_MAPSVR_DATA *,std::less<int>,std::allocator<std::pair<int const ,_MAPSVR_DATA *> >,0> >::_Left
PUBLIC	?_Right@?$_Tree_val@V?$_Tmap_traits@HPAU_MAPSVR_DATA@@U?$less@H@std@@V?$allocator@U?$pair@$$CBHPAU_MAPSVR_DATA@@@std@@@3@$0A@@std@@@std@@SAAAPAU_Node@?$_Tree_nod@V?$_Tmap_traits@HPAU_MAPSVR_DATA@@U?$less@H@std@@V?$allocator@U?$pair@$$CBHPAU_MAPSVR_DATA@@@std@@@3@$0A@@std@@@2@PAU342@@Z ; std::_Tree_val<std::_Tmap_traits<int,_MAPSVR_DATA *,std::less<int>,std::allocator<std::pair<int const ,_MAPSVR_DATA *> >,0> >::_Right
PUBLIC	?_Isnil@?$_Tree_val@V?$_Tmap_traits@HPAU_MAPSVR_DATA@@U?$less@H@std@@V?$allocator@U?$pair@$$CBHPAU_MAPSVR_DATA@@@std@@@3@$0A@@std@@@std@@SAAADPAU_Node@?$_Tree_nod@V?$_Tmap_traits@HPAU_MAPSVR_DATA@@U?$less@H@std@@V?$allocator@U?$pair@$$CBHPAU_MAPSVR_DATA@@@std@@@3@$0A@@std@@@2@@Z ; std::_Tree_val<std::_Tmap_traits<int,_MAPSVR_DATA *,std::less<int>,std::allocator<std::pair<int const ,_MAPSVR_DATA *> >,0> >::_Isnil
; Function compile flags: /Odtp /ZI
;	COMDAT ?_Erase@?$_Tree@V?$_Tmap_traits@HPAU_MAPSVR_DATA@@U?$less@H@std@@V?$allocator@U?$pair@$$CBHPAU_MAPSVR_DATA@@@std@@@3@$0A@@std@@@std@@IAEXPAU_Node@?$_Tree_nod@V?$_Tmap_traits@HPAU_MAPSVR_DATA@@U?$less@H@std@@V?$allocator@U?$pair@$$CBHPAU_MAPSVR_DATA@@@std@@@3@$0A@@std@@@2@@Z
_TEXT	SEGMENT
__Pnode$229146 = -8					; size = 4
_this$ = -4						; size = 4
__Rootnode$ = 8						; size = 4
?_Erase@?$_Tree@V?$_Tmap_traits@HPAU_MAPSVR_DATA@@U?$less@H@std@@V?$allocator@U?$pair@$$CBHPAU_MAPSVR_DATA@@@std@@@3@$0A@@std@@@std@@IAEXPAU_Node@?$_Tree_nod@V?$_Tmap_traits@HPAU_MAPSVR_DATA@@U?$less@H@std@@V?$allocator@U?$pair@$$CBHPAU_MAPSVR_DATA@@@std@@@3@$0A@@std@@@2@@Z PROC ; std::_Tree<std::_Tmap_traits<int,_MAPSVR_DATA *,std::less<int>,std::allocator<std::pair<int const ,_MAPSVR_DATA *> >,0> >::_Erase, COMDAT
; _this$ = ecx

; 1610 : 		{	// free entire subtree, recursively

  00000	55		 push	 ebp
  00001	8b ec		 mov	 ebp, esp
  00003	83 ec 48	 sub	 esp, 72			; 00000048H
  00006	53		 push	 ebx
  00007	56		 push	 esi
  00008	57		 push	 edi
  00009	89 4d fc	 mov	 DWORD PTR _this$[ebp], ecx

; 1611 : 		for (_Nodeptr _Pnode = _Rootnode;

  0000c	8b 45 08	 mov	 eax, DWORD PTR __Rootnode$[ebp]
  0000f	89 45 f8	 mov	 DWORD PTR __Pnode$229146[ebp], eax
  00012	eb 06		 jmp	 SHORT $LN3@Erase
$LN2@Erase:

; 1612 : 			!this->_Isnil(_Pnode); _Rootnode = _Pnode)

  00014	8b 45 f8	 mov	 eax, DWORD PTR __Pnode$229146[ebp]
  00017	89 45 08	 mov	 DWORD PTR __Rootnode$[ebp], eax
$LN3@Erase:
  0001a	8b 45 f8	 mov	 eax, DWORD PTR __Pnode$229146[ebp]
  0001d	50		 push	 eax
  0001e	e8 00 00 00 00	 call	 ?_Isnil@?$_Tree_val@V?$_Tmap_traits@HPAU_MAPSVR_DATA@@U?$less@H@std@@V?$allocator@U?$pair@$$CBHPAU_MAPSVR_DATA@@@std@@@3@$0A@@std@@@std@@SAAADPAU_Node@?$_Tree_nod@V?$_Tmap_traits@HPAU_MAPSVR_DATA@@U?$less@H@std@@V?$allocator@U?$pair@$$CBHPAU_MAPSVR_DATA@@@std@@@3@$0A@@std@@@2@@Z ; std::_Tree_val<std::_Tmap_traits<int,_MAPSVR_DATA *,std::less<int>,std::allocator<std::pair<int const ,_MAPSVR_DATA *> >,0> >::_Isnil
  00023	83 c4 04	 add	 esp, 4
  00026	0f be 08	 movsx	 ecx, BYTE PTR [eax]
  00029	85 c9		 test	 ecx, ecx
  0002b	75 60		 jne	 SHORT $LN4@Erase

; 1613 : 			{	// free subtrees, then node
; 1614 : 			_Erase(this->_Right(_Pnode));

  0002d	8b 45 f8	 mov	 eax, DWORD PTR __Pnode$229146[ebp]
  00030	50		 push	 eax
  00031	e8 00 00 00 00	 call	 ?_Right@?$_Tree_val@V?$_Tmap_traits@HPAU_MAPSVR_DATA@@U?$less@H@std@@V?$allocator@U?$pair@$$CBHPAU_MAPSVR_DATA@@@std@@@3@$0A@@std@@@std@@SAAAPAU_Node@?$_Tree_nod@V?$_Tmap_traits@HPAU_MAPSVR_DATA@@U?$less@H@std@@V?$allocator@U?$pair@$$CBHPAU_MAPSVR_DATA@@@std@@@3@$0A@@std@@@2@PAU342@@Z ; std::_Tree_val<std::_Tmap_traits<int,_MAPSVR_DATA *,std::less<int>,std::allocator<std::pair<int const ,_MAPSVR_DATA *> >,0> >::_Right
  00036	83 c4 04	 add	 esp, 4
  00039	8b 08		 mov	 ecx, DWORD PTR [eax]
  0003b	51		 push	 ecx
  0003c	8b 4d fc	 mov	 ecx, DWORD PTR _this$[ebp]
  0003f	e8 00 00 00 00	 call	 ?_Erase@?$_Tree@V?$_Tmap_traits@HPAU_MAPSVR_DATA@@U?$less@H@std@@V?$allocator@U?$pair@$$CBHPAU_MAPSVR_DATA@@@std@@@3@$0A@@std@@@std@@IAEXPAU_Node@?$_Tree_nod@V?$_Tmap_traits@HPAU_MAPSVR_DATA@@U?$less@H@std@@V?$allocator@U?$pair@$$CBHPAU_MAPSVR_DATA@@@std@@@3@$0A@@std@@@2@@Z ; std::_Tree<std::_Tmap_traits<int,_MAPSVR_DATA *,std::less<int>,std::allocator<std::pair<int const ,_MAPSVR_DATA *> >,0> >::_Erase

; 1615 : 			_Pnode = this->_Left(_Pnode);

  00044	8b 45 f8	 mov	 eax, DWORD PTR __Pnode$229146[ebp]
  00047	50		 push	 eax
  00048	e8 00 00 00 00	 call	 ?_Left@?$_Tree_val@V?$_Tmap_traits@HPAU_MAPSVR_DATA@@U?$less@H@std@@V?$allocator@U?$pair@$$CBHPAU_MAPSVR_DATA@@@std@@@3@$0A@@std@@@std@@SAAAPAU_Node@?$_Tree_nod@V?$_Tmap_traits@HPAU_MAPSVR_DATA@@U?$less@H@std@@V?$allocator@U?$pair@$$CBHPAU_MAPSVR_DATA@@@std@@@3@$0A@@std@@@2@PAU342@@Z ; std::_Tree_val<std::_Tmap_traits<int,_MAPSVR_DATA *,std::less<int>,std::allocator<std::pair<int const ,_MAPSVR_DATA *> >,0> >::_Left
  0004d	83 c4 04	 add	 esp, 4
  00050	8b 08		 mov	 ecx, DWORD PTR [eax]
  00052	89 4d f8	 mov	 DWORD PTR __Pnode$229146[ebp], ecx

; 1616 : 			_Dest_val(this->_Alval,
; 1617 : 				_STD addressof(this->_Myval(_Rootnode)));

  00055	8b 45 08	 mov	 eax, DWORD PTR __Rootnode$[ebp]
  00058	50		 push	 eax
  00059	e8 00 00 00 00	 call	 ?_Myval@?$_Tree_val@V?$_Tmap_traits@HPAU_MAPSVR_DATA@@U?$less@H@std@@V?$allocator@U?$pair@$$CBHPAU_MAPSVR_DATA@@@std@@@3@$0A@@std@@@std@@SAAAU?$pair@$$CBHPAU_MAPSVR_DATA@@@2@PAU_Node@?$_Tree_nod@V?$_Tmap_traits@HPAU_MAPSVR_DATA@@U?$less@H@std@@V?$allocator@U?$pair@$$CBHPAU_MAPSVR_DATA@@@std@@@3@$0A@@std@@@2@@Z ; std::_Tree_val<std::_Tmap_traits<int,_MAPSVR_DATA *,std::less<int>,std::allocator<std::pair<int const ,_MAPSVR_DATA *> >,0> >::_Myval
  0005e	83 c4 04	 add	 esp, 4
  00061	50		 push	 eax
  00062	e8 00 00 00 00	 call	 ??$addressof@U?$pair@$$CBHPAU_MAPSVR_DATA@@@std@@@std@@YAPAU?$pair@$$CBHPAU_MAPSVR_DATA@@@0@AAU10@@Z ; std::addressof<std::pair<int const ,_MAPSVR_DATA *> >
  00067	83 c4 04	 add	 esp, 4
  0006a	50		 push	 eax
  0006b	8b 4d fc	 mov	 ecx, DWORD PTR _this$[ebp]
  0006e	83 c1 0d	 add	 ecx, 13			; 0000000dH
  00071	51		 push	 ecx
  00072	e8 00 00 00 00	 call	 ??$_Dest_val@V?$allocator@U?$pair@$$CBHPAU_MAPSVR_DATA@@@std@@@std@@U?$pair@$$CBHPAU_MAPSVR_DATA@@@2@@std@@YAXAAV?$allocator@U?$pair@$$CBHPAU_MAPSVR_DATA@@@std@@@0@PAU?$pair@$$CBHPAU_MAPSVR_DATA@@@0@@Z ; std::_Dest_val<std::allocator<std::pair<int const ,_MAPSVR_DATA *> >,std::pair<int const ,_MAPSVR_DATA *> >
  00077	83 c4 08	 add	 esp, 8

; 1618 : 
; 1619 : 			this->_Alnod.deallocate(_Rootnode, 1);

  0007a	6a 01		 push	 1
  0007c	8b 45 08	 mov	 eax, DWORD PTR __Rootnode$[ebp]
  0007f	50		 push	 eax
  00080	8b 4d fc	 mov	 ecx, DWORD PTR _this$[ebp]
  00083	83 c1 0c	 add	 ecx, 12			; 0000000cH
  00086	e8 00 00 00 00	 call	 ?deallocate@?$allocator@U_Node@?$_Tree_nod@V?$_Tmap_traits@HPAU_MAPSVR_DATA@@U?$less@H@std@@V?$allocator@U?$pair@$$CBHPAU_MAPSVR_DATA@@@std@@@3@$0A@@std@@@std@@@std@@QAEXPAU_Node@?$_Tree_nod@V?$_Tmap_traits@HPAU_MAPSVR_DATA@@U?$less@H@std@@V?$allocator@U?$pair@$$CBHPAU_MAPSVR_DATA@@@std@@@3@$0A@@std@@@2@I@Z ; std::allocator<std::_Tree_nod<std::_Tmap_traits<int,_MAPSVR_DATA *,std::less<int>,std::allocator<std::pair<int const ,_MAPSVR_DATA *> >,0> >::_Node>::deallocate

; 1620 : 			}

  0008b	eb 87		 jmp	 SHORT $LN2@Erase
$LN4@Erase:

; 1621 : 		}

  0008d	5f		 pop	 edi
  0008e	5e		 pop	 esi
  0008f	5b		 pop	 ebx
  00090	8b e5		 mov	 esp, ebp
  00092	5d		 pop	 ebp
  00093	c2 04 00	 ret	 4
?_Erase@?$_Tree@V?$_Tmap_traits@HPAU_MAPSVR_DATA@@U?$less@H@std@@V?$allocator@U?$pair@$$CBHPAU_MAPSVR_DATA@@@std@@@3@$0A@@std@@@std@@IAEXPAU_Node@?$_Tree_nod@V?$_Tmap_traits@HPAU_MAPSVR_DATA@@U?$less@H@std@@V?$allocator@U?$pair@$$CBHPAU_MAPSVR_DATA@@@std@@@3@$0A@@std@@@2@@Z ENDP ; std::_Tree<std::_Tmap_traits<int,_MAPSVR_DATA *,std::less<int>,std::allocator<std::pair<int const ,_MAPSVR_DATA *> >,0> >::_Erase
; Function compile flags: /Odtp /ZI
_TEXT	ENDS
;	COMDAT ?_Lmost@?$_Tree@V?$_Tmap_traits@HPAU_MAPSVR_DATA@@U?$less@H@std@@V?$allocator@U?$pair@$$CBHPAU_MAPSVR_DATA@@@std@@@3@$0A@@std@@@std@@IBEAAPAU_Node@?$_Tree_nod@V?$_Tmap_traits@HPAU_MAPSVR_DATA@@U?$less@H@std@@V?$allocator@U?$pair@$$CBHPAU_MAPSVR_DATA@@@std@@@3@$0A@@std@@@2@XZ
_TEXT	SEGMENT
_this$ = -4						; size = 4
?_Lmost@?$_Tree@V?$_Tmap_traits@HPAU_MAPSVR_DATA@@U?$less@H@std@@V?$allocator@U?$pair@$$CBHPAU_MAPSVR_DATA@@@std@@@3@$0A@@std@@@std@@IBEAAPAU_Node@?$_Tree_nod@V?$_Tmap_traits@HPAU_MAPSVR_DATA@@U?$less@H@std@@V?$allocator@U?$pair@$$CBHPAU_MAPSVR_DATA@@@std@@@3@$0A@@std@@@2@XZ PROC ; std::_Tree<std::_Tmap_traits<int,_MAPSVR_DATA *,std::less<int>,std::allocator<std::pair<int const ,_MAPSVR_DATA *> >,0> >::_Lmost, COMDAT
; _this$ = ecx

; 1758 : 		{	// return leftmost node in nonmutable tree

  00000	55		 push	 ebp
  00001	8b ec		 mov	 ebp, esp
  00003	83 ec 44	 sub	 esp, 68			; 00000044H
  00006	53		 push	 ebx
  00007	56		 push	 esi
  00008	57		 push	 edi
  00009	89 4d fc	 mov	 DWORD PTR _this$[ebp], ecx

; 1759 : 		return (this->_Left(this->_Myhead));

  0000c	8b 45 fc	 mov	 eax, DWORD PTR _this$[ebp]
  0000f	8b 48 04	 mov	 ecx, DWORD PTR [eax+4]
  00012	51		 push	 ecx
  00013	e8 00 00 00 00	 call	 ?_Left@?$_Tree_val@V?$_Tmap_traits@HPAU_MAPSVR_DATA@@U?$less@H@std@@V?$allocator@U?$pair@$$CBHPAU_MAPSVR_DATA@@@std@@@3@$0A@@std@@@std@@SAAAPAU_Node@?$_Tree_nod@V?$_Tmap_traits@HPAU_MAPSVR_DATA@@U?$less@H@std@@V?$allocator@U?$pair@$$CBHPAU_MAPSVR_DATA@@@std@@@3@$0A@@std@@@2@PAU342@@Z ; std::_Tree_val<std::_Tmap_traits<int,_MAPSVR_DATA *,std::less<int>,std::allocator<std::pair<int const ,_MAPSVR_DATA *> >,0> >::_Left
  00018	83 c4 04	 add	 esp, 4

; 1760 : 		}

  0001b	5f		 pop	 edi
  0001c	5e		 pop	 esi
  0001d	5b		 pop	 ebx
  0001e	8b e5		 mov	 esp, ebp
  00020	5d		 pop	 ebp
  00021	c3		 ret	 0
?_Lmost@?$_Tree@V?$_Tmap_traits@HPAU_MAPSVR_DATA@@U?$less@H@std@@V?$allocator@U?$pair@$$CBHPAU_MAPSVR_DATA@@@std@@@3@$0A@@std@@@std@@IBEAAPAU_Node@?$_Tree_nod@V?$_Tmap_traits@HPAU_MAPSVR_DATA@@U?$less@H@std@@V?$allocator@U?$pair@$$CBHPAU_MAPSVR_DATA@@@std@@@3@$0A@@std@@@2@XZ ENDP ; std::_Tree<std::_Tmap_traits<int,_MAPSVR_DATA *,std::less<int>,std::allocator<std::pair<int const ,_MAPSVR_DATA *> >,0> >::_Lmost
; Function compile flags: /Odtp /ZI
_TEXT	ENDS
;	COMDAT ?_Rmost@?$_Tree@V?$_Tmap_traits@HPAU_MAPSVR_DATA@@U?$less@H@std@@V?$allocator@U?$pair@$$CBHPAU_MAPSVR_DATA@@@std@@@3@$0A@@std@@@std@@IBEAAPAU_Node@?$_Tree_nod@V?$_Tmap_traits@HPAU_MAPSVR_DATA@@U?$less@H@std@@V?$allocator@U?$pair@$$CBHPAU_MAPSVR_DATA@@@std@@@3@$0A@@std@@@2@XZ
_TEXT	SEGMENT
_this$ = -4						; size = 4
?_Rmost@?$_Tree@V?$_Tmap_traits@HPAU_MAPSVR_DATA@@U?$less@H@std@@V?$allocator@U?$pair@$$CBHPAU_MAPSVR_DATA@@@std@@@3@$0A@@std@@@std@@IBEAAPAU_Node@?$_Tree_nod@V?$_Tmap_traits@HPAU_MAPSVR_DATA@@U?$less@H@std@@V?$allocator@U?$pair@$$CBHPAU_MAPSVR_DATA@@@std@@@3@$0A@@std@@@2@XZ PROC ; std::_Tree<std::_Tmap_traits<int,_MAPSVR_DATA *,std::less<int>,std::allocator<std::pair<int const ,_MAPSVR_DATA *> >,0> >::_Rmost, COMDAT
; _this$ = ecx

; 1783 : 		{	// return rightmost node in nonmutable tree

  00000	55		 push	 ebp
  00001	8b ec		 mov	 ebp, esp
  00003	83 ec 44	 sub	 esp, 68			; 00000044H
  00006	53		 push	 ebx
  00007	56		 push	 esi
  00008	57		 push	 edi
  00009	89 4d fc	 mov	 DWORD PTR _this$[ebp], ecx

; 1784 : 		return (this->_Right(this->_Myhead));

  0000c	8b 45 fc	 mov	 eax, DWORD PTR _this$[ebp]
  0000f	8b 48 04	 mov	 ecx, DWORD PTR [eax+4]
  00012	51		 push	 ecx
  00013	e8 00 00 00 00	 call	 ?_Right@?$_Tree_val@V?$_Tmap_traits@HPAU_MAPSVR_DATA@@U?$less@H@std@@V?$allocator@U?$pair@$$CBHPAU_MAPSVR_DATA@@@std@@@3@$0A@@std@@@std@@SAAAPAU_Node@?$_Tree_nod@V?$_Tmap_traits@HPAU_MAPSVR_DATA@@U?$less@H@std@@V?$allocator@U?$pair@$$CBHPAU_MAPSVR_DATA@@@std@@@3@$0A@@std@@@2@PAU342@@Z ; std::_Tree_val<std::_Tmap_traits<int,_MAPSVR_DATA *,std::less<int>,std::allocator<std::pair<int const ,_MAPSVR_DATA *> >,0> >::_Right
  00018	83 c4 04	 add	 esp, 4

; 1785 : 		}

  0001b	5f		 pop	 edi
  0001c	5e		 pop	 esi
  0001d	5b		 pop	 ebx
  0001e	8b e5		 mov	 esp, ebp
  00020	5d		 pop	 ebp
  00021	c3		 ret	 0
