; Listing generated by Microsoft (R) Optimizing Compiler Version 16.00.40219.01 

	TITLE	D:\Projects\ExTeam6.3\Source\GameServer\GameServer\MaxPower.cpp
	.686P
	.XMM
	include listing.inc
	.model	flat

INCLUDELIB LIBCMT
INCLUDELIB OLDNAMES

PUBLIC	?gMaxPower@@3VcMaxPower@@A			; gMaxPower
_BSS	SEGMENT
?gMaxPower@@3VcMaxPower@@A DB 0138H DUP (?)		; gMaxPower
_BSS	ENDS
PUBLIC	??_H@YGXPAXIHP6EPAX0@Z@Z			; `vector constructor iterator'
; Function compile flags: /Odtp /ZI
;	COMDAT ??_H@YGXPAXIHP6EPAX0@Z@Z
_TEXT	SEGMENT
___t$ = 8						; size = 4
___s$ = 12						; size = 4
___n$ = 16						; size = 4
___f$ = 20						; size = 4
??_H@YGXPAXIHP6EPAX0@Z@Z PROC				; `vector constructor iterator', COMDAT
  00000	55		 push	 ebp
  00001	8b ec		 mov	 ebp, esp
  00003	83 ec 40	 sub	 esp, 64			; 00000040H
  00006	53		 push	 ebx
  00007	56		 push	 esi
  00008	57		 push	 edi
$LN2@vector:
  00009	8b 45 10	 mov	 eax, DWORD PTR ___n$[ebp]
  0000c	83 e8 01	 sub	 eax, 1
  0000f	89 45 10	 mov	 DWORD PTR ___n$[ebp], eax
  00012	78 11		 js	 SHORT $LN3@vector
  00014	8b 4d 08	 mov	 ecx, DWORD PTR ___t$[ebp]
  00017	ff 55 14	 call	 DWORD PTR ___f$[ebp]
  0001a	8b 45 08	 mov	 eax, DWORD PTR ___t$[ebp]
  0001d	03 45 0c	 add	 eax, DWORD PTR ___s$[ebp]
  00020	89 45 08	 mov	 DWORD PTR ___t$[ebp], eax
  00023	eb e4		 jmp	 SHORT $LN2@vector
$LN3@vector:
  00025	5f		 pop	 edi
  00026	5e		 pop	 esi
  00027	5b		 pop	 ebx
  00028	8b e5		 mov	 esp, ebp
  0002a	5d		 pop	 ebp
  0002b	c2 10 00	 ret	 16			; 00000010H
??_H@YGXPAXIHP6EPAX0@Z@Z ENDP				; `vector constructor iterator'
_TEXT	ENDS
PUBLIC	??_C@_07OABJPIEF@MaxSdRF?$AA@			; `string'
PUBLIC	??_C@_09DMFNNCEF@MaxLifeRF?$AA@			; `string'
PUBLIC	??_C@_0BC@KLPOGMFL@MaxWizardDamageRF?$AA@	; `string'
PUBLIC	??_C@_0BH@JIBNFEOA@MaxReflectDamageRateRF?$AA@	; `string'
PUBLIC	??_C@_0BG@HHJPFLFI@MaxAbsordDamageRateRF?$AA@	; `string'
PUBLIC	??_C@_0BG@CANOIKBE@MaxDoubleDamageRateRF?$AA@	; `string'
PUBLIC	??_C@_0BI@IHINJPIK@MaxExellentDamageRateRF?$AA@	; `string'
PUBLIC	??_C@_0BI@FJMCLMKO@MaxCriticalDamageRateRF?$AA@	; `string'
PUBLIC	??_C@_0BH@OEHAFBFC@MaxIgnoreDefenceRateRF?$AA@	; `string'
PUBLIC	??_C@_0N@JKBMAEON@MaxDefenceRF?$AA@		; `string'
PUBLIC	??_C@_0M@GCFLONP@MaxDamageRF?$AA@		; `string'
PUBLIC	??_C@_08OFFNOHOD@MaxSdSUM?$AA@			; `string'
PUBLIC	??_C@_0L@OFIBKDMJ@MaxLifeSUM?$AA@		; `string'
PUBLIC	??_C@_0BD@BPBJDNBE@MaxWizardDamageSUM?$AA@	; `string'
PUBLIC	??_C@_0BI@EDJJLECI@MaxReflectDamageRateSUM?$AA@	; `string'
PUBLIC	??_C@_0BH@IGMMANJJ@MaxAbsordDamageRateSUM?$AA@	; `string'
PUBLIC	??_C@_0BH@PJPBEBPD@MaxDoubleDamageRateSUM?$AA@	; `string'
PUBLIC	??_C@_0BJ@OOOBKMKF@MaxExellentDamageRateSUM?$AA@ ; `string'
PUBLIC	??_C@_0BJ@NCDMAHFH@MaxCriticalDamageRateSUM?$AA@ ; `string'
PUBLIC	??_C@_0BI@GGIKALIN@MaxIgnoreDefenceRateSUM?$AA@	; `string'
PUBLIC	??_C@_0O@DNCKMJMF@MaxDefenceSUM?$AA@		; `string'
PUBLIC	??_C@_0N@PFGBKBPP@MaxDamageSUM?$AA@		; `string'
PUBLIC	??_C@_07CFNMPAN@MaxSdDL?$AA@			; `string'
PUBLIC	??_C@_09NOBJOFAN@MaxLifeDL?$AA@			; `string'
PUBLIC	??_C@_0BC@EJLKFLBD@MaxWizardDamageDL?$AA@	; `string'
PUBLIC	??_C@_0BH@HKFJGDKI@MaxReflectDamageRateDL?$AA@	; `string'
PUBLIC	??_C@_0BG@JFNLGMBA@MaxAbsordDamageRateDL?$AA@	; `string'
PUBLIC	??_C@_0BG@MCJKLNFM@MaxDoubleDamageRateDL?$AA@	; `string'
PUBLIC	??_C@_0BI@GFMJKIMC@MaxExellentDamageRateDL?$AA@	; `string'
PUBLIC	??_C@_0BI@LLIGILOG@MaxCriticalDamageRateDL?$AA@	; `string'
PUBLIC	??_C@_0BH@GDEGGBK@MaxIgnoreDefenceRateDL?$AA@	; `string'
PUBLIC	??_C@_0N@HIFIDDKF@MaxDefenceDL?$AA@		; `string'
PUBLIC	??_C@_0M@OEGBIJJH@MaxDamageDL?$AA@		; `string'
PUBLIC	??_C@_07OOHICNEJ@MaxSdMG?$AA@			; `string'
PUBLIC	??_C@_09DCDMAHEJ@MaxLifeMG?$AA@			; `string'
PUBLIC	??_C@_0BC@KFJPLJFH@MaxWizardDamageMG?$AA@	; `string'
PUBLIC	??_C@_0BH@JGHMIBOM@MaxReflectDamageRateMG?$AA@	; `string'
PUBLIC	??_C@_0BG@HJPOIOFE@MaxAbsordDamageRateMG?$AA@	; `string'
PUBLIC	??_C@_0BG@COLPFPBI@MaxDoubleDamageRateMG?$AA@	; `string'
PUBLIC	??_C@_0BI@IJOMEKIG@MaxExellentDamageRateMG?$AA@	; `string'
PUBLIC	??_C@_0BI@FHKDGJKC@MaxCriticalDamageRateMG?$AA@	; `string'
PUBLIC	??_C@_0BH@OKBBIEFO@MaxIgnoreDefenceRateMG?$AA@	; `string'
PUBLIC	??_C@_0N@JEHNNBOB@MaxDefenceMG?$AA@		; `string'
PUBLIC	??_C@_0M@IEEGLND@MaxDamageMG?$AA@		; `string'
PUBLIC	??_C@_08MNOFMMNG@MaxSdElf?$AA@			; `string'
PUBLIC	??_C@_0L@MNDJIIPM@MaxLifeElf?$AA@		; `string'
PUBLIC	??_C@_0BD@DHKBBGCB@MaxWizardDamageElf?$AA@	; `string'
PUBLIC	??_C@_0BI@GLCBJPBN@MaxReflectDamageRateElf?$AA@	; `string'
PUBLIC	??_C@_0BH@KOHECGKM@MaxAbsordDamageRateElf?$AA@	; `string'
PUBLIC	??_C@_0BH@NBEJGKMG@MaxDoubleDamageRateElf?$AA@	; `string'
PUBLIC	??_C@_0BJ@MGFJIHJA@MaxExellentDamageRateElf?$AA@ ; `string'
PUBLIC	??_C@_0BJ@PKIECMGC@MaxCriticalDamageRateElf?$AA@ ; `string'
PUBLIC	??_C@_0BI@EODCCALI@MaxIgnoreDefenceRateElf?$AA@	; `string'
PUBLIC	??_C@_0O@BFJCOCPA@MaxDefenceElf?$AA@		; `string'
PUBLIC	??_C@_0N@NNNJIKMK@MaxDamageElf?$AA@		; `string'
PUBLIC	??_C@_07KLGLAEJH@MaxSdDW?$AA@			; `string'
PUBLIC	??_C@_09HHCPCOJH@MaxLifeDW?$AA@			; `string'
PUBLIC	??_C@_0BC@OAIMJAIJ@MaxWizardDamageDW?$AA@	; `string'
PUBLIC	??_C@_0BH@NDGPKIDC@MaxReflectDamageRateDW?$AA@	; `string'
PUBLIC	??_C@_0BG@DMONKHIK@MaxAbsordDamageRateDW?$AA@	; `string'
PUBLIC	??_C@_0BG@GLKMHGMG@MaxDoubleDamageRateDW?$AA@	; `string'
PUBLIC	??_C@_0BI@MMPPGDFI@MaxExellentDamageRateDW?$AA@	; `string'
PUBLIC	??_C@_0BI@BCLAEAHM@MaxCriticalDamageRateDW?$AA@	; `string'
PUBLIC	??_C@_0BH@KPACKNIA@MaxIgnoreDefenceRateDW?$AA@	; `string'
PUBLIC	??_C@_0N@NBGOPIDP@MaxDefenceDW?$AA@		; `string'
PUBLIC	??_C@_0M@ENFHECAN@MaxDamageDW?$AA@		; `string'
PUBLIC	??_C@_07ENBMFJMK@MaxSdDK?$AA@			; `string'
PUBLIC	??_C@_09JBFIHDMK@MaxLifeDK?$AA@			; `string'
PUBLIC	??_C@_0BC@GPLMNNE@MaxWizardDamageDK?$AA@	; `string'
PUBLIC	??_C@_0BH@DFBIPFGP@MaxReflectDamageRateDK?$AA@	; `string'
PUBLIC	??_C@_0BG@NKJKPKNH@MaxAbsordDamageRateDK?$AA@	; `string'
PUBLIC	??_C@_0BG@INNLCLJL@MaxDoubleDamageRateDK?$AA@	; `string'
PUBLIC	??_C@_0BI@CKIIDOAF@MaxExellentDamageRateDK?$AA@	; `string'
PUBLIC	??_C@_0BI@PEMHBNCB@MaxCriticalDamageRateDK?$AA@	; `string'
PUBLIC	??_C@_0BH@EJHFPANN@MaxIgnoreDefenceRateDK?$AA@	; `string'
PUBLIC	??_C@_0N@DHBJKFGC@MaxDefenceDK?$AA@		; `string'
PUBLIC	??_C@_0M@KLCABPFA@MaxDamageDK?$AA@		; `string'
PUBLIC	??_C@_06MLPMCPDE@ExTeam?$AA@			; `string'
PUBLIC	??_C@_06CKGENIKG@Enable?$AA@			; `string'
PUBLIC	??_C@_0BM@EHFLLMOD@?4?4?2Data?2ExData?2MaxPower?4ini?$AA@ ; `string'
PUBLIC	?Load@cMaxPower@@QAEXXZ				; cMaxPower::Load
EXTRN	__imp__GetPrivateProfileIntA@16:PROC
;	COMDAT ??_C@_07OABJPIEF@MaxSdRF?$AA@
; File d:\projects\exteam6.3\source\gameserver\gameserver\maxpower.cpp
CONST	SEGMENT
??_C@_07OABJPIEF@MaxSdRF?$AA@ DB 'MaxSdRF', 00H		; `string'
CONST	ENDS
;	COMDAT ??_C@_09DMFNNCEF@MaxLifeRF?$AA@
CONST	SEGMENT
??_C@_09DMFNNCEF@MaxLifeRF?$AA@ DB 'MaxLifeRF', 00H	; `string'
CONST	ENDS
;	COMDAT ??_C@_0BC@KLPOGMFL@MaxWizardDamageRF?$AA@
CONST	SEGMENT
??_C@_0BC@KLPOGMFL@MaxWizardDamageRF?$AA@ DB 'MaxWizardDamageRF', 00H ; `string'
CONST	ENDS
;	COMDAT ??_C@_0BH@JIBNFEOA@MaxReflectDamageRateRF?$AA@
CONST	SEGMENT
??_C@_0BH@JIBNFEOA@MaxReflectDamageRateRF?$AA@ DB 'MaxReflectDamageRateRF'
	DB	00H						; `string'
CONST	ENDS
;	COMDAT ??_C@_0BG@HHJPFLFI@MaxAbsordDamageRateRF?$AA@
CONST	SEGMENT
??_C@_0BG@HHJPFLFI@MaxAbsordDamageRateRF?$AA@ DB 'MaxAbsordDamageRateRF', 00H ; `string'
CONST	ENDS
;	COMDAT ??_C@_0BG@CANOIKBE@MaxDoubleDamageRateRF?$AA@
CONST	SEGMENT
??_C@_0BG@CANOIKBE@MaxDoubleDamageRateRF?$AA@ DB 'MaxDoubleDamageRateRF', 00H ; `string'
CONST	ENDS
;	COMDAT ??_C@_0BI@IHINJPIK@MaxExellentDamageRateRF?$AA@
CONST	SEGMENT
??_C@_0BI@IHINJPIK@MaxExellentDamageRateRF?$AA@ DB 'MaxExellentDamageRate'
	DB	'RF', 00H					; `string'
CONST	ENDS
;	COMDAT ??_C@_0BI@FJMCLMKO@MaxCriticalDamageRateRF?$AA@
CONST	SEGMENT
??_C@_0BI@FJMCLMKO@MaxCriticalDamageRateRF?$AA@ DB 'MaxCriticalDamageRate'
	DB	'RF', 00H					; `string'
CONST	ENDS
;	COMDAT ??_C@_0BH@OEHAFBFC@MaxIgnoreDefenceRateRF?$AA@
CONST	SEGMENT
??_C@_0BH@OEHAFBFC@MaxIgnoreDefenceRateRF?$AA@ DB 'MaxIgnoreDefenceRateRF'
	DB	00H						; `string'
CONST	ENDS
;	COMDAT ??_C@_0N@JKBMAEON@MaxDefenceRF?$AA@
CONST	SEGMENT
??_C@_0N@JKBMAEON@MaxDefenceRF?$AA@ DB 'MaxDefenceRF', 00H ; `string'
CONST	ENDS
;	COMDAT ??_C@_0M@GCFLONP@MaxDamageRF?$AA@
CONST	SEGMENT
??_C@_0M@GCFLONP@MaxDamageRF?$AA@ DB 'MaxDamageRF', 00H	; `string'
CONST	ENDS
;	COMDAT ??_C@_08OFFNOHOD@MaxSdSUM?$AA@
CONST	SEGMENT
??_C@_08OFFNOHOD@MaxSdSUM?$AA@ DB 'MaxSdSUM', 00H	; `string'
CONST	ENDS
;	COMDAT ??_C@_0L@OFIBKDMJ@MaxLifeSUM?$AA@
CONST	SEGMENT
??_C@_0L@OFIBKDMJ@MaxLifeSUM?$AA@ DB 'MaxLifeSUM', 00H	; `string'
CONST	ENDS
;	COMDAT ??_C@_0BD@BPBJDNBE@MaxWizardDamageSUM?$AA@
CONST	SEGMENT
??_C@_0BD@BPBJDNBE@MaxWizardDamageSUM?$AA@ DB 'MaxWizardDamageSUM', 00H ; `string'
CONST	ENDS
;	COMDAT ??_C@_0BI@EDJJLECI@MaxReflectDamageRateSUM?$AA@
CONST	SEGMENT
??_C@_0BI@EDJJLECI@MaxReflectDamageRateSUM?$AA@ DB 'MaxReflectDamageRateS'
	DB	'UM', 00H					; `string'
CONST	ENDS
;	COMDAT ??_C@_0BH@IGMMANJJ@MaxAbsordDamageRateSUM?$AA@
CONST	SEGMENT
??_C@_0BH@IGMMANJJ@MaxAbsordDamageRateSUM?$AA@ DB 'MaxAbsordDamageRateSUM'
	DB	00H						; `string'
CONST	ENDS
;	COMDAT ??_C@_0BH@PJPBEBPD@MaxDoubleDamageRateSUM?$AA@
CONST	SEGMENT
??_C@_0BH@PJPBEBPD@MaxDoubleDamageRateSUM?$AA@ DB 'MaxDoubleDamageRateSUM'
	DB	00H						; `string'
CONST	ENDS
;	COMDAT ??_C@_0BJ@OOOBKMKF@MaxExellentDamageRateSUM?$AA@
CONST	SEGMENT
??_C@_0BJ@OOOBKMKF@MaxExellentDamageRateSUM?$AA@ DB 'MaxExellentDamageRat'
	DB	'eSUM', 00H					; `string'
CONST	ENDS
;	COMDAT ??_C@_0BJ@NCDMAHFH@MaxCriticalDamageRateSUM?$AA@
CONST	SEGMENT
??_C@_0BJ@NCDMAHFH@MaxCriticalDamageRateSUM?$AA@ DB 'MaxCriticalDamageRat'
	DB	'eSUM', 00H					; `string'
CONST	ENDS
;	COMDAT ??_C@_0BI@GGIKALIN@MaxIgnoreDefenceRateSUM?$AA@
CONST	SEGMENT
??_C@_0BI@GGIKALIN@MaxIgnoreDefenceRateSUM?$AA@ DB 'MaxIgnoreDefenceRateS'
	DB	'UM', 00H					; `string'
CONST	ENDS
;	COMDAT ??_C@_0O@DNCKMJMF@MaxDefenceSUM?$AA@
CONST	SEGMENT
??_C@_0O@DNCKMJMF@MaxDefenceSUM?$AA@ DB 'MaxDefenceSUM', 00H ; `string'
CONST	ENDS
;	COMDAT ??_C@_0N@PFGBKBPP@MaxDamageSUM?$AA@
CONST	SEGMENT
??_C@_0N@PFGBKBPP@MaxDamageSUM?$AA@ DB 'MaxDamageSUM', 00H ; `string'
CONST	ENDS
;	COMDAT ??_C@_07CFNMPAN@MaxSdDL?$AA@
CONST	SEGMENT
??_C@_07CFNMPAN@MaxSdDL?$AA@ DB 'MaxSdDL', 00H		; `string'
CONST	ENDS
;	COMDAT ??_C@_09NOBJOFAN@MaxLifeDL?$AA@
CONST	SEGMENT
??_C@_09NOBJOFAN@MaxLifeDL?$AA@ DB 'MaxLifeDL', 00H	; `string'
CONST	ENDS
;	COMDAT ??_C@_0BC@EJLKFLBD@MaxWizardDamageDL?$AA@
CONST	SEGMENT
??_C@_0BC@EJLKFLBD@MaxWizardDamageDL?$AA@ DB 'MaxWizardDamageDL', 00H ; `string'
CONST	ENDS
;	COMDAT ??_C@_0BH@HKFJGDKI@MaxReflectDamageRateDL?$AA@
CONST	SEGMENT
??_C@_0BH@HKFJGDKI@MaxReflectDamageRateDL?$AA@ DB 'MaxReflectDamageRateDL'
	DB	00H						; `string'
CONST	ENDS
;	COMDAT ??_C@_0BG@JFNLGMBA@MaxAbsordDamageRateDL?$AA@
CONST	SEGMENT
??_C@_0BG@JFNLGMBA@MaxAbsordDamageRateDL?$AA@ DB 'MaxAbsordDamageRateDL', 00H ; `string'
CONST	ENDS
;	COMDAT ??_C@_0BG@MCJKLNFM@MaxDoubleDamageRateDL?$AA@
CONST	SEGMENT
??_C@_0BG@MCJKLNFM@MaxDoubleDamageRateDL?$AA@ DB 'MaxDoubleDamageRateDL', 00H ; `string'
CONST	ENDS
;	COMDAT ??_C@_0BI@GFMJKIMC@MaxExellentDamageRateDL?$AA@
CONST	SEGMENT
??_C@_0BI@GFMJKIMC@MaxExellentDamageRateDL?$AA@ DB 'MaxExellentDamageRate'
	DB	'DL', 00H					; `string'
CONST	ENDS
;	COMDAT ??_C@_0BI@LLIGILOG@MaxCriticalDamageRateDL?$AA@
CONST	SEGMENT
??_C@_0BI@LLIGILOG@MaxCriticalDamageRateDL?$AA@ DB 'MaxCriticalDamageRate'
	DB	'DL', 00H					; `string'
CONST	ENDS
;	COMDAT ??_C@_0BH@GDEGGBK@MaxIgnoreDefenceRateDL?$AA@
CONST	SEGMENT
??_C@_0BH@GDEGGBK@MaxIgnoreDefenceRateDL?$AA@ DB 'MaxIgnoreDefenceRateDL', 00H ; `string'
CONST	ENDS
;	COMDAT ??_C@_0N@HIFIDDKF@MaxDefenceDL?$AA@
CONST	SEGMENT
??_C@_0N@HIFIDDKF@MaxDefenceDL?$AA@ DB 'MaxDefenceDL', 00H ; `string'
CONST	ENDS
;	COMDAT ??_C@_0M@OEGBIJJH@MaxDamageDL?$AA@
CONST	SEGMENT
??_C@_0M@OEGBIJJH@MaxDamageDL?$AA@ DB 'MaxDamageDL', 00H ; `string'
CONST	ENDS
;	COMDAT ??_C@_07OOHICNEJ@MaxSdMG?$AA@
CONST	SEGMENT
??_C@_07OOHICNEJ@MaxSdMG?$AA@ DB 'MaxSdMG', 00H		; `string'
CONST	ENDS
;	COMDAT ??_C@_09DCDMAHEJ@MaxLifeMG?$AA@
CONST	SEGMENT
??_C@_09DCDMAHEJ@MaxLifeMG?$AA@ DB 'MaxLifeMG', 00H	; `string'
CONST	ENDS
;	COMDAT ??_C@_0BC@KFJPLJFH@MaxWizardDamageMG?$AA@
CONST	SEGMENT
??_C@_0BC@KFJPLJFH@MaxWizardDamageMG?$AA@ DB 'MaxWizardDamageMG', 00H ; `string'
CONST	ENDS
;	COMDAT ??_C@_0BH@JGHMIBOM@MaxReflectDamageRateMG?$AA@
CONST	SEGMENT
??_C@_0BH@JGHMIBOM@MaxReflectDamageRateMG?$AA@ DB 'MaxReflectDamageRateMG'
	DB	00H						; `string'
CONST	ENDS
;	COMDAT ??_C@_0BG@HJPOIOFE@MaxAbsordDamageRateMG?$AA@
CONST	SEGMENT
??_C@_0BG@HJPOIOFE@MaxAbsordDamageRateMG?$AA@ DB 'MaxAbsordDamageRateMG', 00H ; `string'
CONST	ENDS
;	COMDAT ??_C@_0BG@COLPFPBI@MaxDoubleDamageRateMG?$AA@
CONST	SEGMENT
??_C@_0BG@COLPFPBI@MaxDoubleDamageRateMG?$AA@ DB 'MaxDoubleDamageRateMG', 00H ; `string'
CONST	ENDS
;	COMDAT ??_C@_0BI@IJOMEKIG@MaxExellentDamageRateMG?$AA@
CONST	SEGMENT
??_C@_0BI@IJOMEKIG@MaxExellentDamageRateMG?$AA@ DB 'MaxExellentDamageRate'
	DB	'MG', 00H					; `string'
CONST	ENDS
;	COMDAT ??_C@_0BI@FHKDGJKC@MaxCriticalDamageRateMG?$AA@
CONST	SEGMENT
??_C@_0BI@FHKDGJKC@MaxCriticalDamageRateMG?$AA@ DB 'MaxCriticalDamageRate'
	DB	'MG', 00H					; `string'
CONST	ENDS
;	COMDAT ??_C@_0BH@OKBBIEFO@MaxIgnoreDefenceRateMG?$AA@
CONST	SEGMENT
??_C@_0BH@OKBBIEFO@MaxIgnoreDefenceRateMG?$AA@ DB 'MaxIgnoreDefenceRateMG'
	DB	00H						; `string'
CONST	ENDS
;	COMDAT ??_C@_0N@JEHNNBOB@MaxDefenceMG?$AA@
CONST	SEGMENT
??_C@_0N@JEHNNBOB@MaxDefenceMG?$AA@ DB 'MaxDefenceMG', 00H ; `string'
CONST	ENDS
;	COMDAT ??_C@_0M@IEEGLND@MaxDamageMG?$AA@
CONST	SEGMENT
??_C@_0M@IEEGLND@MaxDamageMG?$AA@ DB 'MaxDamageMG', 00H	; `string'
CONST	ENDS
;	COMDAT ??_C@_08MNOFMMNG@MaxSdElf?$AA@
CONST	SEGMENT
??_C@_08MNOFMMNG@MaxSdElf?$AA@ DB 'MaxSdElf', 00H	; `string'
CONST	ENDS
;	COMDAT ??_C@_0L@MNDJIIPM@MaxLifeElf?$AA@
CONST	SEGMENT
??_C@_0L@MNDJIIPM@MaxLifeElf?$AA@ DB 'MaxLifeElf', 00H	; `string'
CONST	ENDS
;	COMDAT ??_C@_0BD@DHKBBGCB@MaxWizardDamageElf?$AA@
CONST	SEGMENT
??_C@_0BD@DHKBBGCB@MaxWizardDamageElf?$AA@ DB 'MaxWizardDamageElf', 00H ; `string'
CONST	ENDS
;	COMDAT ??_C@_0BI@GLCBJPBN@MaxReflectDamageRateElf?$AA@
CONST	SEGMENT
??_C@_0BI@GLCBJPBN@MaxReflectDamageRateElf?$AA@ DB 'MaxReflectDamageRateE'
	DB	'lf', 00H					; `string'
CONST	ENDS
;	COMDAT ??_C@_0BH@KOHECGKM@MaxAbsordDamageRateElf?$AA@
CONST	SEGMENT
??_C@_0BH@KOHECGKM@MaxAbsordDamageRateElf?$AA@ DB 'MaxAbsordDamageRateElf'
	DB	00H						; `string'
CONST	ENDS
;	COMDAT ??_C@_0BH@NBEJGKMG@MaxDoubleDamageRateElf?$AA@
CONST	SEGMENT
??_C@_0BH@NBEJGKMG@MaxDoubleDamageRateElf?$AA@ DB 'MaxDoubleDamageRateElf'
	DB	00H						; `string'
CONST	ENDS
;	COMDAT ??_C@_0BJ@MGFJIHJA@MaxExellentDamageRateElf?$AA@
CONST	SEGMENT
??_C@_0BJ@MGFJIHJA@MaxExellentDamageRateElf?$AA@ DB 'MaxExellentDamageRat'
	DB	'eElf', 00H					; `string'
CONST	ENDS
;	COMDAT ??_C@_0BJ@PKIECMGC@MaxCriticalDamageRateElf?$AA@
CONST	SEGMENT
??_C@_0BJ@PKIECMGC@MaxCriticalDamageRateElf?$AA@ DB 'MaxCriticalDamageRat'
	DB	'eElf', 00H					; `string'
CONST	ENDS
;	COMDAT ??_C@_0BI@EODCCALI@MaxIgnoreDefenceRateElf?$AA@
CONST	SEGMENT
??_C@_0BI@EODCCALI@MaxIgnoreDefenceRateElf?$AA@ DB 'MaxIgnoreDefenceRateE'
	DB	'lf', 00H					; `string'
CONST	ENDS
;	COMDAT ??_C@_0O@BFJCOCPA@MaxDefenceElf?$AA@
CONST	SEGMENT
??_C@_0O@BFJCOCPA@MaxDefenceElf?$AA@ DB 'MaxDefenceElf', 00H ; `string'
CONST	ENDS
;	COMDAT ??_C@_0N@NNNJIKMK@MaxDamageElf?$AA@
CONST	SEGMENT
??_C@_0N@NNNJIKMK@MaxDamageElf?$AA@ DB 'MaxDamageElf', 00H ; `string'
CONST	ENDS
;	COMDAT ??_C@_07KLGLAEJH@MaxSdDW?$AA@
CONST	SEGMENT
??_C@_07KLGLAEJH@MaxSdDW?$AA@ DB 'MaxSdDW', 00H		; `string'
CONST	ENDS
;	COMDAT ??_C@_09HHCPCOJH@MaxLifeDW?$AA@
CONST	SEGMENT
??_C@_09HHCPCOJH@MaxLifeDW?$AA@ DB 'MaxLifeDW', 00H	; `string'
CONST	ENDS
;	COMDAT ??_C@_0BC@OAIMJAIJ@MaxWizardDamageDW?$AA@
CONST	SEGMENT
??_C@_0BC@OAIMJAIJ@MaxWizardDamageDW?$AA@ DB 'MaxWizardDamageDW', 00H ; `string'
CONST	ENDS
;	COMDAT ??_C@_0BH@NDGPKIDC@MaxReflectDamageRateDW?$AA@
CONST	SEGMENT
??_C@_0BH@NDGPKIDC@MaxReflectDamageRateDW?$AA@ DB 'MaxReflectDamageRateDW'
	DB	00H						; `string'
CONST	ENDS
;	COMDAT ??_C@_0BG@DMONKHIK@MaxAbsordDamageRateDW?$AA@
CONST	SEGMENT
??_C@_0BG@DMONKHIK@MaxAbsordDamageRateDW?$AA@ DB 'MaxAbsordDamageRateDW', 00H ; `string'
CONST	ENDS
;	COMDAT ??_C@_0BG@GLKMHGMG@MaxDoubleDamageRateDW?$AA@
CONST	SEGMENT
??_C@_0BG@GLKMHGMG@MaxDoubleDamageRateDW?$AA@ DB 'MaxDoubleDamageRateDW', 00H ; `string'
CONST	ENDS
;	COMDAT ??_C@_0BI@MMPPGDFI@MaxExellentDamageRateDW?$AA@
CONST	SEGMENT
??_C@_0BI@MMPPGDFI@MaxExellentDamageRateDW?$AA@ DB 'MaxExellentDamageRate'
	DB	'DW', 00H					; `string'
CONST	ENDS
;	COMDAT ??_C@_0BI@BCLAEAHM@MaxCriticalDamageRateDW?$AA@
CONST	SEGMENT
??_C@_0BI@BCLAEAHM@MaxCriticalDamageRateDW?$AA@ DB 'MaxCriticalDamageRate'
	DB	'DW', 00H					; `string'
CONST	ENDS
;	COMDAT ??_C@_0BH@KPACKNIA@MaxIgnoreDefenceRateDW?$AA@
CONST	SEGMENT
??_C@_0BH@KPACKNIA@MaxIgnoreDefenceRateDW?$AA@ DB 'MaxIgnoreDefenceRateDW'
	DB	00H						; `string'
CONST	ENDS
;	COMDAT ??_C@_0N@NBGOPIDP@MaxDefenceDW?$AA@
CONST	SEGMENT
??_C@_0N@NBGOPIDP@MaxDefenceDW?$AA@ DB 'MaxDefenceDW', 00H ; `string'
CONST	ENDS
;	COMDAT ??_C@_0M@ENFHECAN@MaxDamageDW?$AA@
CONST	SEGMENT
??_C@_0M@ENFHECAN@MaxDamageDW?$AA@ DB 'MaxDamageDW', 00H ; `string'
CONST	ENDS
;	COMDAT ??_C@_07ENBMFJMK@MaxSdDK?$AA@
CONST	SEGMENT
??_C@_07ENBMFJMK@MaxSdDK?$AA@ DB 'MaxSdDK', 00H		; `string'
CONST	ENDS
;	COMDAT ??_C@_09JBFIHDMK@MaxLifeDK?$AA@
CONST	SEGMENT
??_C@_09JBFIHDMK@MaxLifeDK?$AA@ DB 'MaxLifeDK', 00H	; `string'
CONST	ENDS
;	COMDAT ??_C@_0BC@GPLMNNE@MaxWizardDamageDK?$AA@
CONST	SEGMENT
??_C@_0BC@GPLMNNE@MaxWizardDamageDK?$AA@ DB 'MaxWizardDamageDK', 00H ; `string'
CONST	ENDS
;	COMDAT ??_C@_0BH@DFBIPFGP@MaxReflectDamageRateDK?$AA@
CONST	SEGMENT
??_C@_0BH@DFBIPFGP@MaxReflectDamageRateDK?$AA@ DB 'MaxReflectDamageRateDK'
	DB	00H						; `string'
CONST	ENDS
;	COMDAT ??_C@_0BG@NKJKPKNH@MaxAbsordDamageRateDK?$AA@
CONST	SEGMENT
??_C@_0BG@NKJKPKNH@MaxAbsordDamageRateDK?$AA@ DB 'MaxAbsordDamageRateDK', 00H ; `string'
CONST	ENDS
;	COMDAT ??_C@_0BG@INNLCLJL@MaxDoubleDamageRateDK?$AA@
CONST	SEGMENT
??_C@_0BG@INNLCLJL@MaxDoubleDamageRateDK?$AA@ DB 'MaxDoubleDamageRateDK', 00H ; `string'
CONST	ENDS
;	COMDAT ??_C@_0BI@CKIIDOAF@MaxExellentDamageRateDK?$AA@
CONST	SEGMENT
??_C@_0BI@CKIIDOAF@MaxExellentDamageRateDK?$AA@ DB 'MaxExellentDamageRate'
	DB	'DK', 00H					; `string'
CONST	ENDS
;	COMDAT ??_C@_0BI@PEMHBNCB@MaxCriticalDamageRateDK?$AA@
CONST	SEGMENT
??_C@_0BI@PEMHBNCB@MaxCriticalDamageRateDK?$AA@ DB 'MaxCriticalDamageRate'
	DB	'DK', 00H					; `string'
CONST	ENDS
;	COMDAT ??_C@_0BH@EJHFPANN@MaxIgnoreDefenceRateDK?$AA@
CONST	SEGMENT
??_C@_0BH@EJHFPANN@MaxIgnoreDefenceRateDK?$AA@ DB 'MaxIgnoreDefenceRateDK'
	DB	00H						; `string'
CONST	ENDS
;	COMDAT ??_C@_0N@DHBJKFGC@MaxDefenceDK?$AA@
CONST	SEGMENT
??_C@_0N@DHBJKFGC@MaxDefenceDK?$AA@ DB 'MaxDefenceDK', 00H ; `string'
CONST	ENDS
;	COMDAT ??_C@_0M@KLCABPFA@MaxDamageDK?$AA@
CONST	SEGMENT
??_C@_0M@KLCABPFA@MaxDamageDK?$AA@ DB 'MaxDamageDK', 00H ; `string'
CONST	ENDS
;	COMDAT ??_C@_06MLPMCPDE@ExTeam?$AA@
CONST	SEGMENT
??_C@_06MLPMCPDE@ExTeam?$AA@ DB 'ExTeam', 00H		; `string'
CONST	ENDS
;	COMDAT ??_C@_06CKGENIKG@Enable?$AA@
CONST	SEGMENT
??_C@_06CKGENIKG@Enable?$AA@ DB 'Enable', 00H		; `string'
CONST	ENDS
;	COMDAT ??_C@_0BM@EHFLLMOD@?4?4?2Data?2ExData?2MaxPower?4ini?$AA@
CONST	SEGMENT
??_C@_0BM@EHFLLMOD@?4?4?2Data?2ExData?2MaxPower?4ini?$AA@ DB '..\Data\ExD'
	DB	'ata\MaxPower.ini', 00H			; `string'
; Function compile flags: /Odtp /ZI
CONST	ENDS
_TEXT	SEGMENT
_this$ = -4						; size = 4
?Load@cMaxPower@@QAEXXZ PROC				; cMaxPower::Load
; _this$ = ecx

; 9    : {

  00000	55		 push	 ebp
  00001	8b ec		 mov	 ebp, esp
  00003	83 ec 44	 sub	 esp, 68			; 00000044H
  00006	53		 push	 ebx
  00007	56		 push	 esi
  00008	57		 push	 edi
  00009	89 4d fc	 mov	 DWORD PTR _this$[ebp], ecx

; 10   : 
; 11   : 	//CheckFile(MaxPower_Dir);
; 12   : 
; 13   : 	this->Enable = GetPrivateProfileInt("ExTeam","Enable",0,MaxPower_Dir);

  0000c	68 00 00 00 00	 push	 OFFSET ??_C@_0BM@EHFLLMOD@?4?4?2Data?2ExData?2MaxPower?4ini?$AA@
  00011	6a 00		 push	 0
  00013	68 00 00 00 00	 push	 OFFSET ??_C@_06CKGENIKG@Enable?$AA@
  00018	68 00 00 00 00	 push	 OFFSET ??_C@_06MLPMCPDE@ExTeam?$AA@
  0001d	ff 15 00 00 00
	00		 call	 DWORD PTR __imp__GetPrivateProfileIntA@16
  00023	85 c0		 test	 eax, eax
  00025	0f 95 c0	 setne	 al
  00028	8b 4d fc	 mov	 ecx, DWORD PTR _this$[ebp]
  0002b	88 01		 mov	 BYTE PTR [ecx], al

; 14   : 
; 15   : 	//-> DK
; 16   : 	this->MaxDamageDK = GetPrivateProfileInt("ExTeam","MaxDamageDK",0,MaxPower_Dir);

  0002d	68 00 00 00 00	 push	 OFFSET ??_C@_0BM@EHFLLMOD@?4?4?2Data?2ExData?2MaxPower?4ini?$AA@
  00032	6a 00		 push	 0
  00034	68 00 00 00 00	 push	 OFFSET ??_C@_0M@KLCABPFA@MaxDamageDK?$AA@
  00039	68 00 00 00 00	 push	 OFFSET ??_C@_06MLPMCPDE@ExTeam?$AA@
  0003e	ff 15 00 00 00
	00		 call	 DWORD PTR __imp__GetPrivateProfileIntA@16
  00044	8b 4d fc	 mov	 ecx, DWORD PTR _this$[ebp]
  00047	89 41 04	 mov	 DWORD PTR [ecx+4], eax

; 17   : 	this->MaxDefenceDK = GetPrivateProfileInt("ExTeam","MaxDefenceDK",0,MaxPower_Dir);

  0004a	68 00 00 00 00	 push	 OFFSET ??_C@_0BM@EHFLLMOD@?4?4?2Data?2ExData?2MaxPower?4ini?$AA@
  0004f	6a 00		 push	 0
  00051	68 00 00 00 00	 push	 OFFSET ??_C@_0N@DHBJKFGC@MaxDefenceDK?$AA@
  00056	68 00 00 00 00	 push	 OFFSET ??_C@_06MLPMCPDE@ExTeam?$AA@
  0005b	ff 15 00 00 00
	00		 call	 DWORD PTR __imp__GetPrivateProfileIntA@16
  00061	8b 4d fc	 mov	 ecx, DWORD PTR _this$[ebp]
  00064	89 41 08	 mov	 DWORD PTR [ecx+8], eax

; 18   : 	this->MaxIgnoreDefenceRateDK = GetPrivateProfileInt("ExTeam","MaxIgnoreDefenceRateDK",0,MaxPower_Dir);

  00067	68 00 00 00 00	 push	 OFFSET ??_C@_0BM@EHFLLMOD@?4?4?2Data?2ExData?2MaxPower?4ini?$AA@
  0006c	6a 00		 push	 0
  0006e	68 00 00 00 00	 push	 OFFSET ??_C@_0BH@EJHFPANN@MaxIgnoreDefenceRateDK?$AA@
  00073	68 00 00 00 00	 push	 OFFSET ??_C@_06MLPMCPDE@ExTeam?$AA@
  00078	ff 15 00 00 00
	00		 call	 DWORD PTR __imp__GetPrivateProfileIntA@16
  0007e	8b 4d fc	 mov	 ecx, DWORD PTR _this$[ebp]
  00081	89 41 0c	 mov	 DWORD PTR [ecx+12], eax

; 19   : 	this->MaxCriticalDamageRateDK = GetPrivateProfileInt("ExTeam","MaxCriticalDamageRateDK",0,MaxPower_Dir);

  00084	68 00 00 00 00	 push	 OFFSET ??_C@_0BM@EHFLLMOD@?4?4?2Data?2ExData?2MaxPower?4ini?$AA@
  00089	6a 00		 push	 0
  0008b	68 00 00 00 00	 push	 OFFSET ??_C@_0BI@PEMHBNCB@MaxCriticalDamageRateDK?$AA@
  00090	68 00 00 00 00	 push	 OFFSET ??_C@_06MLPMCPDE@ExTeam?$AA@
  00095	ff 15 00 00 00
	00		 call	 DWORD PTR __imp__GetPrivateProfileIntA@16
  0009b	8b 4d fc	 mov	 ecx, DWORD PTR _this$[ebp]
  0009e	89 41 10	 mov	 DWORD PTR [ecx+16], eax

; 20   : 	this->MaxExellentDamageRateDK = GetPrivateProfileInt("ExTeam","MaxExellentDamageRateDK",0,MaxPower_Dir);

  000a1	68 00 00 00 00	 push	 OFFSET ??_C@_0BM@EHFLLMOD@?4?4?2Data?2ExData?2MaxPower?4ini?$AA@
  000a6	6a 00		 push	 0
  000a8	68 00 00 00 00	 push	 OFFSET ??_C@_0BI@CKIIDOAF@MaxExellentDamageRateDK?$AA@
  000ad	68 00 00 00 00	 push	 OFFSET ??_C@_06MLPMCPDE@ExTeam?$AA@
  000b2	ff 15 00 00 00
	00		 call	 DWORD PTR __imp__GetPrivateProfileIntA@16
  000b8	8b 4d fc	 mov	 ecx, DWORD PTR _this$[ebp]
  000bb	89 41 14	 mov	 DWORD PTR [ecx+20], eax

; 21   : 	this->MaxDoubleDamageRateDK = GetPrivateProfileInt("ExTeam","MaxDoubleDamageRateDK",0,MaxPower_Dir);

  000be	68 00 00 00 00	 push	 OFFSET ??_C@_0BM@EHFLLMOD@?4?4?2Data?2ExData?2MaxPower?4ini?$AA@
  000c3	6a 00		 push	 0
  000c5	68 00 00 00 00	 push	 OFFSET ??_C@_0BG@INNLCLJL@MaxDoubleDamageRateDK?$AA@
  000ca	68 00 00 00 00	 push	 OFFSET ??_C@_06MLPMCPDE@ExTeam?$AA@
  000cf	ff 15 00 00 00
	00		 call	 DWORD PTR __imp__GetPrivateProfileIntA@16
  000d5	8b 4d fc	 mov	 ecx, DWORD PTR _this$[ebp]
  000d8	89 41 18	 mov	 DWORD PTR [ecx+24], eax

; 22   : 	this->MaxAbsordDamageRateDK = GetPrivateProfileInt("ExTeam","MaxAbsordDamageRateDK",0,MaxPower_Dir);

  000db	68 00 00 00 00	 push	 OFFSET ??_C@_0BM@EHFLLMOD@?4?4?2Data?2ExData?2MaxPower?4ini?$AA@
  000e0	6a 00		 push	 0
  000e2	68 00 00 00 00	 push	 OFFSET ??_C@_0BG@NKJKPKNH@MaxAbsordDamageRateDK?$AA@
  000e7	68 00 00 00 00	 push	 OFFSET ??_C@_06MLPMCPDE@ExTeam?$AA@
  000ec	ff 15 00 00 00
	00		 call	 DWORD PTR __imp__GetPrivateProfileIntA@16
  000f2	8b 4d fc	 mov	 ecx, DWORD PTR _this$[ebp]
  000f5	89 41 1c	 mov	 DWORD PTR [ecx+28], eax

; 23   : 	this->MaxReflectDamageRateDK = GetPrivateProfileInt("ExTeam","MaxReflectDamageRateDK",0,MaxPower_Dir);

  000f8	68 00 00 00 00	 push	 OFFSET ??_C@_0BM@EHFLLMOD@?4?4?2Data?2ExData?2MaxPower?4ini?$AA@
  000fd	6a 00		 push	 0
  000ff	68 00 00 00 00	 push	 OFFSET ??_C@_0BH@DFBIPFGP@MaxReflectDamageRateDK?$AA@
  00104	68 00 00 00 00	 push	 OFFSET ??_C@_06MLPMCPDE@ExTeam?$AA@
  00109	ff 15 00 00 00
	00		 call	 DWORD PTR __imp__GetPrivateProfileIntA@16
  0010f	8b 4d fc	 mov	 ecx, DWORD PTR _this$[ebp]
  00112	89 41 20	 mov	 DWORD PTR [ecx+32], eax

; 24   : 	this->MaxWizardDamageDK = GetPrivateProfileInt("ExTeam","MaxWizardDamageDK",0,MaxPower_Dir);

  00115	68 00 00 00 00	 push	 OFFSET ??_C@_0BM@EHFLLMOD@?4?4?2Data?2ExData?2MaxPower?4ini?$AA@
  0011a	6a 00		 push	 0
  0011c	68 00 00 00 00	 push	 OFFSET ??_C@_0BC@GPLMNNE@MaxWizardDamageDK?$AA@
  00121	68 00 00 00 00	 push	 OFFSET ??_C@_06MLPMCPDE@ExTeam?$AA@
  00126	ff 15 00 00 00
	00		 call	 DWORD PTR __imp__GetPrivateProfileIntA@16
  0012c	8b 4d fc	 mov	 ecx, DWORD PTR _this$[ebp]
  0012f	89 41 24	 mov	 DWORD PTR [ecx+36], eax

; 25   : 	this->MaxLifeDK = GetPrivateProfileInt("ExTeam","MaxLifeDK",0,MaxPower_Dir);

  00132	68 00 00 00 00	 push	 OFFSET ??_C@_0BM@EHFLLMOD@?4?4?2Data?2ExData?2MaxPower?4ini?$AA@
  00137	6a 00		 push	 0
  00139	68 00 00 00 00	 push	 OFFSET ??_C@_09JBFIHDMK@MaxLifeDK?$AA@
  0013e	68 00 00 00 00	 push	 OFFSET ??_C@_06MLPMCPDE@ExTeam?$AA@
  00143	ff 15 00 00 00
	00		 call	 DWORD PTR __imp__GetPrivateProfileIntA@16
  00149	8b 4d fc	 mov	 ecx, DWORD PTR _this$[ebp]
  0014c	89 41 28	 mov	 DWORD PTR [ecx+40], eax

; 26   : 	this->MaxSdDK = GetPrivateProfileInt("ExTeam","MaxSdDK",0,MaxPower_Dir);

  0014f	68 00 00 00 00	 push	 OFFSET ??_C@_0BM@EHFLLMOD@?4?4?2Data?2ExData?2MaxPower?4ini?$AA@
  00154	6a 00		 push	 0
  00156	68 00 00 00 00	 push	 OFFSET ??_C@_07ENBMFJMK@MaxSdDK?$AA@
  0015b	68 00 00 00 00	 push	 OFFSET ??_C@_06MLPMCPDE@ExTeam?$AA@
  00160	ff 15 00 00 00
	00		 call	 DWORD PTR __imp__GetPrivateProfileIntA@16
  00166	8b 4d fc	 mov	 ecx, DWORD PTR _this$[ebp]
  00169	89 41 2c	 mov	 DWORD PTR [ecx+44], eax

; 27   : 
; 28   : 	//-> DW
; 29   : 	this->MaxDamageDW = GetPrivateProfileInt("ExTeam","MaxDamageDW",0,MaxPower_Dir);

  0016c	68 00 00 00 00	 push	 OFFSET ??_C@_0BM@EHFLLMOD@?4?4?2Data?2ExData?2MaxPower?4ini?$AA@
  00171	6a 00		 push	 0
  00173	68 00 00 00 00	 push	 OFFSET ??_C@_0M@ENFHECAN@MaxDamageDW?$AA@
  00178	68 00 00 00 00	 push	 OFFSET ??_C@_06MLPMCPDE@ExTeam?$AA@
  0017d	ff 15 00 00 00
	00		 call	 DWORD PTR __imp__GetPrivateProfileIntA@16
  00183	8b 4d fc	 mov	 ecx, DWORD PTR _this$[ebp]
  00186	89 41 30	 mov	 DWORD PTR [ecx+48], eax

; 30   : 	this->MaxDefenceDW = GetPrivateProfileInt("ExTeam","MaxDefenceDW",0,MaxPower_Dir);

  00189	68 00 00 00 00	 push	 OFFSET ??_C@_0BM@EHFLLMOD@?4?4?2Data?2ExData?2MaxPower?4ini?$AA@
  0018e	6a 00		 push	 0
  00190	68 00 00 00 00	 push	 OFFSET ??_C@_0N@NBGOPIDP@MaxDefenceDW?$AA@
  00195	68 00 00 00 00	 push	 OFFSET ??_C@_06MLPMCPDE@ExTeam?$AA@
  0019a	ff 15 00 00 00
	00		 call	 DWORD PTR __imp__GetPrivateProfileIntA@16
  001a0	8b 4d fc	 mov	 ecx, DWORD PTR _this$[ebp]
  001a3	89 41 34	 mov	 DWORD PTR [ecx+52], eax

; 31   : 	this->MaxIgnoreDefenceRateDW = GetPrivateProfileInt("ExTeam","MaxIgnoreDefenceRateDW",0,MaxPower_Dir);

  001a6	68 00 00 00 00	 push	 OFFSET ??_C@_0BM@EHFLLMOD@?4?4?2Data?2ExData?2MaxPower?4ini?$AA@
  001ab	6a 00		 push	 0
  001ad	68 00 00 00 00	 push	 OFFSET ??_C@_0BH@KPACKNIA@MaxIgnoreDefenceRateDW?$AA@
  001b2	68 00 00 00 00	 push	 OFFSET ??_C@_06MLPMCPDE@ExTeam?$AA@
  001b7	ff 15 00 00 00
	00		 call	 DWORD PTR __imp__GetPrivateProfileIntA@16
  001bd	8b 4d fc	 mov	 ecx, DWORD PTR _this$[ebp]
  001c0	89 41 38	 mov	 DWORD PTR [ecx+56], eax

; 32   : 	this->MaxCriticalDamageRateDW = GetPrivateProfileInt("ExTeam","MaxCriticalDamageRateDW",0,MaxPower_Dir);

  001c3	68 00 00 00 00	 push	 OFFSET ??_C@_0BM@EHFLLMOD@?4?4?2Data?2ExData?2MaxPower?4ini?$AA@
  001c8	6a 00		 push	 0
  001ca	68 00 00 00 00	 push	 OFFSET ??_C@_0BI@BCLAEAHM@MaxCriticalDamageRateDW?$AA@
  001cf	68 00 00 00 00	 push	 OFFSET ??_C@_06MLPMCPDE@ExTeam?$AA@
  001d4	ff 15 00 00 00
	00		 call	 DWORD PTR __imp__GetPrivateProfileIntA@16
  001da	8b 4d fc	 mov	 ecx, DWORD PTR _this$[ebp]
  001dd	89 41 3c	 mov	 DWORD PTR [ecx+60], eax

; 33   : 	this->MaxExellentDamageRateDW = GetPrivateProfileInt("ExTeam","MaxExellentDamageRateDW",0,MaxPower_Dir);

  001e0	68 00 00 00 00	 push	 OFFSET ??_C@_0BM@EHFLLMOD@?4?4?2Data?2ExData?2MaxPower?4ini?$AA@
  001e5	6a 00		 push	 0
  001e7	68 00 00 00 00	 push	 OFFSET ??_C@_0BI@MMPPGDFI@MaxExellentDamageRateDW?$AA@
  001ec	68 00 00 00 00	 push	 OFFSET ??_C@_06MLPMCPDE@ExTeam?$AA@
  001f1	ff 15 00 00 00
	00		 call	 DWORD PTR __imp__GetPrivateProfileIntA@16
  001f7	8b 4d fc	 mov	 ecx, DWORD PTR _this$[ebp]
  001fa	89 41 40	 mov	 DWORD PTR [ecx+64], eax

; 34   : 	this->MaxDoubleDamageRateDW = GetPrivateProfileInt("ExTeam","MaxDoubleDamageRateDW",0,MaxPower_Dir);

  001fd	68 00 00 00 00	 push	 OFFSET ??_C@_0BM@EHFLLMOD@?4?4?2Data?2ExData?2MaxPower?4ini?$AA@
  00202	6a 00		 push	 0
  00204	68 00 00 00 00	 push	 OFFSET ??_C@_0BG@GLKMHGMG@MaxDoubleDamageRateDW?$AA@
  00209	68 00 00 00 00	 push	 OFFSET ??_C@_06MLPMCPDE@ExTeam?$AA@
  0020e	ff 15 00 00 00
	00		 call	 DWORD PTR __imp__GetPrivateProfileIntA@16
  00214	8b 4d fc	 mov	 ecx, DWORD PTR _this$[ebp]
  00217	89 41 44	 mov	 DWORD PTR [ecx+68], eax

; 35   : 	this->MaxAbsordDamageRateDW = GetPrivateProfileInt("ExTeam","MaxAbsordDamageRateDW",0,MaxPower_Dir);

  0021a	68 00 00 00 00	 push	 OFFSET ??_C@_0BM@EHFLLMOD@?4?4?2Data?2ExData?2MaxPower?4ini?$AA@
  0021f	6a 00		 push	 0
  00221	68 00 00 00 00	 push	 OFFSET ??_C@_0BG@DMONKHIK@MaxAbsordDamageRateDW?$AA@
  00226	68 00 00 00 00	 push	 OFFSET ??_C@_06MLPMCPDE@ExTeam?$AA@
  0022b	ff 15 00 00 00
	00		 call	 DWORD PTR __imp__GetPrivateProfileIntA@16
  00231	8b 4d fc	 mov	 ecx, DWORD PTR _this$[ebp]
  00234	89 41 48	 mov	 DWORD PTR [ecx+72], eax

; 36   : 	this->MaxReflectDamageRateDW = GetPrivateProfileInt("ExTeam","MaxReflectDamageRateDW",0,MaxPower_Dir);

  00237	68 00 00 00 00	 push	 OFFSET ??_C@_0BM@EHFLLMOD@?4?4?2Data?2ExData?2MaxPower?4ini?$AA@
  0023c	6a 00		 push	 0
  0023e	68 00 00 00 00	 push	 OFFSET ??_C@_0BH@NDGPKIDC@MaxReflectDamageRateDW?$AA@
  00243	68 00 00 00 00	 push	 OFFSET ??_C@_06MLPMCPDE@ExTeam?$AA@
  00248	ff 15 00 00 00
	00		 call	 DWORD PTR __imp__GetPrivateProfileIntA@16
  0024e	8b 4d fc	 mov	 ecx, DWORD PTR _this$[ebp]
  00251	89 41 4c	 mov	 DWORD PTR [ecx+76], eax

; 37   : 	this->MaxWizardDamageDW = GetPrivateProfileInt("ExTeam","MaxWizardDamageDW",0,MaxPower_Dir);

  00254	68 00 00 00 00	 push	 OFFSET ??_C@_0BM@EHFLLMOD@?4?4?2Data?2ExData?2MaxPower?4ini?$AA@
  00259	6a 00		 push	 0
  0025b	68 00 00 00 00	 push	 OFFSET ??_C@_0BC@OAIMJAIJ@MaxWizardDamageDW?$AA@
  00260	68 00 00 00 00	 push	 OFFSET ??_C@_06MLPMCPDE@ExTeam?$AA@
  00265	ff 15 00 00 00
	00		 call	 DWORD PTR __imp__GetPrivateProfileIntA@16
  0026b	8b 4d fc	 mov	 ecx, DWORD PTR _this$[ebp]
  0026e	89 41 50	 mov	 DWORD PTR [ecx+80], eax

; 38   : 	this->MaxLifeDW = GetPrivateProfileInt("ExTeam","MaxLifeDW",0,MaxPower_Dir);

  00271	68 00 00 00 00	 push	 OFFSET ??_C@_0BM@EHFLLMOD@?4?4?2Data?2ExData?2MaxPower?4ini?$AA@
  00276	6a 00		 push	 0
  00278	68 00 00 00 00	 push	 OFFSET ??_C@_09HHCPCOJH@MaxLifeDW?$AA@
  0027d	68 00 00 00 00	 push	 OFFSET ??_C@_06MLPMCPDE@ExTeam?$AA@
  00282	ff 15 00 00 00
	00		 call	 DWORD PTR __imp__GetPrivateProfileIntA@16
  00288	8b 4d fc	 mov	 ecx, DWORD PTR _this$[ebp]
  0028b	89 41 54	 mov	 DWORD PTR [ecx+84], eax

; 39   : 	this->MaxSdDW = GetPrivateProfileInt("ExTeam","MaxSdDW",0,MaxPower_Dir);

  0028e	68 00 00 00 00	 push	 OFFSET ??_C@_0BM@EHFLLMOD@?4?4?2Data?2ExData?2MaxPower?4ini?$AA@
  00293	6a 00		 push	 0
  00295	68 00 00 00 00	 push	 OFFSET ??_C@_07KLGLAEJH@MaxSdDW?$AA@
  0029a	68 00 00 00 00	 push	 OFFSET ??_C@_06MLPMCPDE@ExTeam?$AA@
  0029f	ff 15 00 00 00
	00		 call	 DWORD PTR __imp__GetPrivateProfileIntA@16
  002a5	8b 4d fc	 mov	 ecx, DWORD PTR _this$[ebp]
  002a8	89 41 58	 mov	 DWORD PTR [ecx+88], eax

; 40   : 
; 41   : 	//-> Elf
; 42   : 	this->MaxDamageElf = GetPrivateProfileInt("ExTeam","MaxDamageElf",0,MaxPower_Dir);

  002ab	68 00 00 00 00	 push	 OFFSET ??_C@_0BM@EHFLLMOD@?4?4?2Data?2ExData?2MaxPower?4ini?$AA@
  002b0	6a 00		 push	 0
  002b2	68 00 00 00 00	 push	 OFFSET ??_C@_0N@NNNJIKMK@MaxDamageElf?$AA@
  002b7	68 00 00 00 00	 push	 OFFSET ??_C@_06MLPMCPDE@ExTeam?$AA@
  002bc	ff 15 00 00 00
	00		 call	 DWORD PTR __imp__GetPrivateProfileIntA@16
  002c2	8b 4d fc	 mov	 ecx, DWORD PTR _this$[ebp]
  002c5	89 41 5c	 mov	 DWORD PTR [ecx+92], eax

; 43   : 	this->MaxDefenceElf = GetPrivateProfileInt("ExTeam","MaxDefenceElf",0,MaxPower_Dir);

  002c8	68 00 00 00 00	 push	 OFFSET ??_C@_0BM@EHFLLMOD@?4?4?2Data?2ExData?2MaxPower?4ini?$AA@
  002cd	6a 00		 push	 0
  002cf	68 00 00 00 00	 push	 OFFSET ??_C@_0O@BFJCOCPA@MaxDefenceElf?$AA@
  002d4	68 00 00 00 00	 push	 OFFSET ??_C@_06MLPMCPDE@ExTeam?$AA@
  002d9	ff 15 00 00 00
	00		 call	 DWORD PTR __imp__GetPrivateProfileIntA@16
  002df	8b 4d fc	 mov	 ecx, DWORD PTR _this$[ebp]
  002e2	89 41 60	 mov	 DWORD PTR [ecx+96], eax

; 44   : 	this->MaxIgnoreDefenceRateElf = GetPrivateProfileInt("ExTeam","MaxIgnoreDefenceRateElf",0,MaxPower_Dir);

  002e5	68 00 00 00 00	 push	 OFFSET ??_C@_0BM@EHFLLMOD@?4?4?2Data?2ExData?2MaxPower?4ini?$AA@
  002ea	6a 00		 push	 0
  002ec	68 00 00 00 00	 push	 OFFSET ??_C@_0BI@EODCCALI@MaxIgnoreDefenceRateElf?$AA@
  002f1	68 00 00 00 00	 push	 OFFSET ??_C@_06MLPMCPDE@ExTeam?$AA@
  002f6	ff 15 00 00 00
	00		 call	 DWORD PTR __imp__GetPrivateProfileIntA@16
  002fc	8b 4d fc	 mov	 ecx, DWORD PTR _this$[ebp]
  002ff	89 41 64	 mov	 DWORD PTR [ecx+100], eax

; 45   : 	this->MaxCriticalDamageRateElf = GetPrivateProfileInt("ExTeam","MaxCriticalDamageRateElf",0,MaxPower_Dir);

  00302	68 00 00 00 00	 push	 OFFSET ??_C@_0BM@EHFLLMOD@?4?4?2Data?2ExData?2MaxPower?4ini?$AA@
  00307	6a 00		 push	 0
  00309	68 00 00 00 00	 push	 OFFSET ??_C@_0BJ@PKIECMGC@MaxCriticalDamageRateElf?$AA@
  0030e	68 00 00 00 00	 push	 OFFSET ??_C@_06MLPMCPDE@ExTeam?$AA@
  00313	ff 15 00 00 00
	00		 call	 DWORD PTR __imp__GetPrivateProfileIntA@16
  00319	8b 4d fc	 mov	 ecx, DWORD PTR _this$[ebp]
  0031c	89 41 68	 mov	 DWORD PTR [ecx+104], eax

; 46   : 	this->MaxExellentDamageRateElf = GetPrivateProfileInt("ExTeam","MaxExellentDamageRateElf",0,MaxPower_Dir);

  0031f	68 00 00 00 00	 push	 OFFSET ??_C@_0BM@EHFLLMOD@?4?4?2Data?2ExData?2MaxPower?4ini?$AA@
  00324	6a 00		 push	 0
  00326	68 00 00 00 00	 push	 OFFSET ??_C@_0BJ@MGFJIHJA@MaxExellentDamageRateElf?$AA@
  0032b	68 00 00 00 00	 push	 OFFSET ??_C@_06MLPMCPDE@ExTeam?$AA@
  00330	ff 15 00 00 00
	00		 call	 DWORD PTR __imp__GetPrivateProfileIntA@16
  00336	8b 4d fc	 mov	 ecx, DWORD PTR _this$[ebp]
  00339	89 41 6c	 mov	 DWORD PTR [ecx+108], eax

; 47   : 	this->MaxDoubleDamageRateElf = GetPrivateProfileInt("ExTeam","MaxDoubleDamageRateElf",0,MaxPower_Dir);

  0033c	68 00 00 00 00	 push	 OFFSET ??_C@_0BM@EHFLLMOD@?4?4?2Data?2ExData?2MaxPower?4ini?$AA@
  00341	6a 00		 push	 0
  00343	68 00 00 00 00	 push	 OFFSET ??_C@_0BH@NBEJGKMG@MaxDoubleDamageRateElf?$AA@
  00348	68 00 00 00 00	 push	 OFFSET ??_C@_06MLPMCPDE@ExTeam?$AA@
  0034d	ff 15 00 00 00
	00		 call	 DWORD PTR __imp__GetPrivateProfileIntA@16
  00353	8b 4d fc	 mov	 ecx, DWORD PTR _this$[ebp]
  00356	89 41 70	 mov	 DWORD PTR [ecx+112], eax

; 48   : 	this->MaxAbsordDamageRateElf = GetPrivateProfileInt("ExTeam","MaxAbsordDamageRateElf",0,MaxPower_Dir);

  00359	68 00 00 00 00	 push	 OFFSET ??_C@_0BM@EHFLLMOD@?4?4?2Data?2ExData?2MaxPower?4ini?$AA@
  0035e	6a 00		 push	 0
  00360	68 00 00 00 00	 push	 OFFSET ??_C@_0BH@KOHECGKM@MaxAbsordDamageRateElf?$AA@
  00365	68 00 00 00 00	 push	 OFFSET ??_C@_06MLPMCPDE@ExTeam?$AA@
  0036a	ff 15 00 00 00
	00		 call	 DWORD PTR __imp__GetPrivateProfileIntA@16
  00370	8b 4d fc	 mov	 ecx, DWORD PTR _this$[ebp]
  00373	89 41 74	 mov	 DWORD PTR [ecx+116], eax

; 49   : 	this->MaxReflectDamageRateElf = GetPrivateProfileInt("ExTeam","MaxReflectDamageRateElf",0,MaxPower_Dir);

  00376	68 00 00 00 00	 push	 OFFSET ??_C@_0BM@EHFLLMOD@?4?4?2Data?2ExData?2MaxPower?4ini?$AA@
  0037b	6a 00		 push	 0
  0037d	68 00 00 00 00	 push	 OFFSET ??_C@_0BI@GLCBJPBN@MaxReflectDamageRateElf?$AA@
  00382	68 00 00 00 00	 push	 OFFSET ??_C@_06MLPMCPDE@ExTeam?$AA@
  00387	ff 15 00 00 00
	00		 call	 DWORD PTR __imp__GetPrivateProfileIntA@16
  0038d	8b 4d fc	 mov	 ecx, DWORD PTR _this$[ebp]
  00390	89 41 78	 mov	 DWORD PTR [ecx+120], eax

; 50   : 	this->MaxWizardDamageElf = GetPrivateProfileInt("ExTeam","MaxWizardDamageElf",0,MaxPower_Dir);

  00393	68 00 00 00 00	 push	 OFFSET ??_C@_0BM@EHFLLMOD@?4?4?2Data?2ExData?2MaxPower?4ini?$AA@
  00398	6a 00		 push	 0
  0039a	68 00 00 00 00	 push	 OFFSET ??_C@_0BD@DHKBBGCB@MaxWizardDamageElf?$AA@
  0039f	68 00 00 00 00	 push	 OFFSET ??_C@_06MLPMCPDE@ExTeam?$AA@
  003a4	ff 15 00 00 00
	00		 call	 DWORD PTR __imp__GetPrivateProfileIntA@16
  003aa	8b 4d fc	 mov	 ecx, DWORD PTR _this$[ebp]
  003ad	89 41 7c	 mov	 DWORD PTR [ecx+124], eax

; 51   : 	this->MaxLifeElf = GetPrivateProfileInt("ExTeam","MaxLifeElf",0,MaxPower_Dir);

  003b0	68 00 00 00 00	 push	 OFFSET ??_C@_0BM@EHFLLMOD@?4?4?2Data?2ExData?2MaxPower?4ini?$AA@
  003b5	6a 00		 push	 0
  003b7	68 00 00 00 00	 push	 OFFSET ??_C@_0L@MNDJIIPM@MaxLifeElf?$AA@
  003bc	68 00 00 00 00	 push	 OFFSET ??_C@_06MLPMCPDE@ExTeam?$AA@
  003c1	ff 15 00 00 00
	00		 call	 DWORD PTR __imp__GetPrivateProfileIntA@16
  003c7	8b 4d fc	 mov	 ecx, DWORD PTR _this$[ebp]
  003ca	89 81 80 00 00
	00		 mov	 DWORD PTR [ecx+128], eax

; 52   : 	this->MaxSdElf = GetPrivateProfileInt("ExTeam","MaxSdElf",0,MaxPower_Dir);

  003d0	68 00 00 00 00	 push	 OFFSET ??_C@_0BM@EHFLLMOD@?4?4?2Data?2ExData?2MaxPower?4ini?$AA@
  003d5	6a 00		 push	 0
  003d7	68 00 00 00 00	 push	 OFFSET ??_C@_08MNOFMMNG@MaxSdElf?$AA@
  003dc	68 00 00 00 00	 push	 OFFSET ??_C@_06MLPMCPDE@ExTeam?$AA@
  003e1	ff 15 00 00 00
	00		 call	 DWORD PTR __imp__GetPrivateProfileIntA@16
  003e7	8b 4d fc	 mov	 ecx, DWORD PTR _this$[ebp]
  003ea	89 81 84 00 00
	00		 mov	 DWORD PTR [ecx+132], eax

; 53   : 
; 54   : 	//-> MG
; 55   : 	this->MaxDamageMG = GetPrivateProfileInt("ExTeam","MaxDamageMG",0,MaxPower_Dir);

  003f0	68 00 00 00 00	 push	 OFFSET ??_C@_0BM@EHFLLMOD@?4?4?2Data?2ExData?2MaxPower?4ini?$AA@
  003f5	6a 00		 push	 0
  003f7	68 00 00 00 00	 push	 OFFSET ??_C@_0M@IEEGLND@MaxDamageMG?$AA@
  003fc	68 00 00 00 00	 push	 OFFSET ??_C@_06MLPMCPDE@ExTeam?$AA@
  00401	ff 15 00 00 00
	00		 call	 DWORD PTR __imp__GetPrivateProfileIntA@16
  00407	8b 4d fc	 mov	 ecx, DWORD PTR _this$[ebp]
  0040a	89 81 88 00 00
	00		 mov	 DWORD PTR [ecx+136], eax

; 56   : 	this->MaxDefenceMG = GetPrivateProfileInt("ExTeam","MaxDefenceMG",0,MaxPower_Dir);

  00410	68 00 00 00 00	 push	 OFFSET ??_C@_0BM@EHFLLMOD@?4?4?2Data?2ExData?2MaxPower?4ini?$AA@
  00415	6a 00		 push	 0
  00417	68 00 00 00 00	 push	 OFFSET ??_C@_0N@JEHNNBOB@MaxDefenceMG?$AA@
  0041c	68 00 00 00 00	 push	 OFFSET ??_C@_06MLPMCPDE@ExTeam?$AA@
  00421	ff 15 00 00 00
	00		 call	 DWORD PTR __imp__GetPrivateProfileIntA@16
  00427	8b 4d fc	 mov	 ecx, DWORD PTR _this$[ebp]
  0042a	89 81 8c 00 00
	00		 mov	 DWORD PTR [ecx+140], eax

; 57   : 	this->MaxIgnoreDefenceRateMG = GetPrivateProfileInt("ExTeam","MaxIgnoreDefenceRateMG",0,MaxPower_Dir);

  00430	68 00 00 00 00	 push	 OFFSET ??_C@_0BM@EHFLLMOD@?4?4?2Data?2ExData?2MaxPower?4ini?$AA@
  00435	6a 00		 push	 0
  00437	68 00 00 00 00	 push	 OFFSET ??_C@_0BH@OKBBIEFO@MaxIgnoreDefenceRateMG?$AA@
  0043c	68 00 00 00 00	 push	 OFFSET ??_C@_06MLPMCPDE@ExTeam?$AA@
  00441	ff 15 00 00 00
	00		 call	 DWORD PTR __imp__GetPrivateProfileIntA@16
  00447	8b 4d fc	 mov	 ecx, DWORD PTR _this$[ebp]
  0044a	89 81 90 00 00
	00		 mov	 DWORD PTR [ecx+144], eax

; 58   : 	this->MaxCriticalDamageRateMG = GetPrivateProfileInt("ExTeam","MaxCriticalDamageRateMG",0,MaxPower_Dir);

  00450	68 00 00 00 00	 push	 OFFSET ??_C@_0BM@EHFLLMOD@?4?4?2Data?2ExData?2MaxPower?4ini?$AA@
  00455	6a 00		 push	 0
  00457	68 00 00 00 00	 push	 OFFSET ??_C@_0BI@FHKDGJKC@MaxCriticalDamageRateMG?$AA@
  0045c	68 00 00 00 00	 push	 OFFSET ??_C@_06MLPMCPDE@ExTeam?$AA@
  00461	ff 15 00 00 00
	00		 call	 DWORD PTR __imp__GetPrivateProfileIntA@16
  00467	8b 4d fc	 mov	 ecx, DWORD PTR _this$[ebp]
  0046a	89 81 94 00 00
	00		 mov	 DWORD PTR [ecx+148], eax

; 59   : 	this->MaxExellentDamageRateMG = GetPrivateProfileInt("ExTeam","MaxExellentDamageRateMG",0,MaxPower_Dir);

  00470	68 00 00 00 00	 push	 OFFSET ??_C@_0BM@EHFLLMOD@?4?4?2Data?2ExData?2MaxPower?4ini?$AA@
  00475	6a 00		 push	 0
  00477	68 00 00 00 00	 push	 OFFSET ??_C@_0BI@IJOMEKIG@MaxExellentDamageRateMG?$AA@
  0047c	68 00 00 00 00	 push	 OFFSET ??_C@_06MLPMCPDE@ExTeam?$AA@
  00481	ff 15 00 00 00
	00		 call	 DWORD PTR __imp__GetPrivateProfileIntA@16
  00487	8b 4d fc	 mov	 ecx, DWORD PTR _this$[ebp]
  0048a	89 81 98 00 00
	00		 mov	 DWORD PTR [ecx+152], eax

; 60   : 	this->MaxDoubleDamageRateMG = GetPrivateProfileInt("ExTeam","MaxDoubleDamageRateMG",0,MaxPower_Dir);

  00490	68 00 00 00 00	 push	 OFFSET ??_C@_0BM@EHFLLMOD@?4?4?2Data?2ExData?2MaxPower?4ini?$AA@
  00495	6a 00		 push	 0
  00497	68 00 00 00 00	 push	 OFFSET ??_C@_0BG@COLPFPBI@MaxDoubleDamageRateMG?$AA@
  0049c	68 00 00 00 00	 push	 OFFSET ??_C@_06MLPMCPDE@ExTeam?$AA@
  004a1	ff 15 00 00 00
	00		 call	 DWORD PTR __imp__GetPrivateProfileIntA@16
  004a7	8b 4d fc	 mov	 ecx, DWORD PTR _this$[ebp]
  004aa	89 81 9c 00 00
	00		 mov	 DWORD PTR [ecx+156], eax

; 61   : 	this->MaxAbsordDamageRateMG = GetPrivateProfileInt("ExTeam","MaxAbsordDamageRateMG",0,MaxPower_Dir);

  004b0	68 00 00 00 00	 push	 OFFSET ??_C@_0BM@EHFLLMOD@?4?4?2Data?2ExData?2MaxPower?4ini?$AA@
  004b5	6a 00		 push	 0
  004b7	68 00 00 00 00	 push	 OFFSET ??_C@_0BG@HJPOIOFE@MaxAbsordDamageRateMG?$AA@
  004bc	68 00 00 00 00	 push	 OFFSET ??_C@_06MLPMCPDE@ExTeam?$AA@
  004c1	ff 15 00 00 00
	00		 call	 DWORD PTR __imp__GetPrivateProfileIntA@16
  004c7	8b 4d fc	 mov	 ecx, DWORD PTR _this$[ebp]
  004ca	89 81 a0 00 00
	00		 mov	 DWORD PTR [ecx+160], eax

; 62   : 	this->MaxReflectDamageRateMG = GetPrivateProfileInt("ExTeam","MaxReflectDamageRateMG",0,MaxPower_Dir);

  004d0	68 00 00 00 00	 push	 OFFSET ??_C@_0BM@EHFLLMOD@?4?4?2Data?2ExData?2MaxPower?4ini?$AA@
  004d5	6a 00		 push	 0
  004d7	68 00 00 00 00	 push	 OFFSET ??_C@_0BH@JGHMIBOM@MaxReflectDamageRateMG?$AA@
  004dc	68 00 00 00 00	 push	 OFFSET ??_C@_06MLPMCPDE@ExTeam?$AA@
  004e1	ff 15 00 00 00
	00		 call	 DWORD PTR __imp__GetPrivateProfileIntA@16
  004e7	8b 4d fc	 mov	 ecx, DWORD PTR _this$[ebp]
  004ea	89 81 a4 00 00
	00		 mov	 DWORD PTR [ecx+164], eax

; 63   : 	this->MaxWizardDamageMG = GetPrivateProfileInt("ExTeam","MaxWizardDamageMG",0,MaxPower_Dir);

  004f0	68 00 00 00 00	 push	 OFFSET ??_C@_0BM@EHFLLMOD@?4?4?2Data?2ExData?2MaxPower?4ini?$AA@
  004f5	6a 00		 push	 0
  004f7	68 00 00 00 00	 push	 OFFSET ??_C@_0BC@KFJPLJFH@MaxWizardDamageMG?$AA@
  004fc	68 00 00 00 00	 push	 OFFSET ??_C@_06MLPMCPDE@ExTeam?$AA@
  00501	ff 15 00 00 00
	00		 call	 DWORD PTR __imp__GetPrivateProfileIntA@16
  00507	8b 4d fc	 mov	 ecx, DWORD PTR _this$[ebp]
  0050a	89 81 a8 00 00
	00		 mov	 DWORD PTR [ecx+168], eax

; 64   : 	this->MaxLifeMG = GetPrivateProfileInt("ExTeam","MaxLifeMG",0,MaxPower_Dir);

  00510	68 00 00 00 00	 push	 OFFSET ??_C@_0BM@EHFLLMOD@?4?4?2Data?2ExData?2MaxPower?4ini?$AA@
  00515	6a 00		 push	 0
  00517	68 00 00 00 00	 push	 OFFSET ??_C@_09DCDMAHEJ@MaxLifeMG?$AA@
  0051c	68 00 00 00 00	 push	 OFFSET ??_C@_06MLPMCPDE@ExTeam?$AA@
  00521	ff 15 00 00 00
	00		 call	 DWORD PTR __imp__GetPrivateProfileIntA@16
  00527	8b 4d fc	 mov	 ecx, DWORD PTR _this$[ebp]
  0052a	89 81 ac 00 00
	00		 mov	 DWORD PTR [ecx+172], eax

; 65   : 	this->MaxSdMG = GetPrivateProfileInt("ExTeam","MaxSdMG",0,MaxPower_Dir);

  00530	68 00 00 00 00	 push	 OFFSET ??_C@_0BM@EHFLLMOD@?4?4?2Data?2ExData?2MaxPower?4ini?$AA@
  00535	6a 00		 push	 0
  00537	68 00 00 00 00	 push	 OFFSET ??_C@_07OOHICNEJ@MaxSdMG?$AA@
  0053c	68 00 00 00 00	 push	 OFFSET ??_C@_06MLPMCPDE@ExTeam?$AA@
  00541	ff 15 00 00 00
	00		 call	 DWORD PTR __imp__GetPrivateProfileIntA@16
  00547	8b 4d fc	 mov	 ecx, DWORD PTR _this$[ebp]
  0054a	89 81 b0 00 00
	00		 mov	 DWORD PTR [ecx+176], eax

; 66   : 
; 67   : 	//-> DL
; 68   : 	this->MaxDamageDL = GetPrivateProfileInt("ExTeam","MaxDamageDL",0,MaxPower_Dir);

  00550	68 00 00 00 00	 push	 OFFSET ??_C@_0BM@EHFLLMOD@?4?4?2Data?2ExData?2MaxPower?4ini?$AA@
  00555	6a 00		 push	 0
  00557	68 00 00 00 00	 push	 OFFSET ??_C@_0M@OEGBIJJH@MaxDamageDL?$AA@
  0055c	68 00 00 00 00	 push	 OFFSET ??_C@_06MLPMCPDE@ExTeam?$AA@
  00561	ff 15 00 00 00
	00		 call	 DWORD PTR __imp__GetPrivateProfileIntA@16
  00567	8b 4d fc	 mov	 ecx, DWORD PTR _this$[ebp]
  0056a	89 81 b4 00 00
	00		 mov	 DWORD PTR [ecx+180], eax

; 69   : 	this->MaxDefenceDL = GetPrivateProfileInt("ExTeam","MaxDefenceDL",0,MaxPower_Dir);

  00570	68 00 00 00 00	 push	 OFFSET ??_C@_0BM@EHFLLMOD@?4?4?2Data?2ExData?2MaxPower?4ini?$AA@
  00575	6a 00		 push	 0
  00577	68 00 00 00 00	 push	 OFFSET ??_C@_0N@HIFIDDKF@MaxDefenceDL?$AA@
  0057c	68 00 00 00 00	 push	 OFFSET ??_C@_06MLPMCPDE@ExTeam?$AA@
  00581	ff 15 00 00 00
	00		 call	 DWORD PTR __imp__GetPrivateProfileIntA@16
  00587	8b 4d fc	 mov	 ecx, DWORD PTR _this$[ebp]
  0058a	89 81 b8 00 00
	00		 mov	 DWORD PTR [ecx+184], eax

; 70   : 	this->MaxIgnoreDefenceRateDL = GetPrivateProfileInt("ExTeam","MaxIgnoreDefenceRateDL",0,MaxPower_Dir);

  00590	68 00 00 00 00	 push	 OFFSET ??_C@_0BM@EHFLLMOD@?4?4?2Data?2ExData?2MaxPower?4ini?$AA@
  00595	6a 00		 push	 0
  00597	68 00 00 00 00	 push	 OFFSET ??_C@_0BH@GDEGGBK@MaxIgnoreDefenceRateDL?$AA@
  0059c	68 00 00 00 00	 push	 OFFSET ??_C@_06MLPMCPDE@ExTeam?$AA@
  005a1	ff 15 00 00 00
	00		 call	 DWORD PTR __imp__GetPrivateProfileIntA@16
  005a7	8b 4d fc	 mov	 ecx, DWORD PTR _this$[ebp]
  005aa	89 81 bc 00 00
	00		 mov	 DWORD PTR [ecx+188], eax

; 71   : 	this->MaxCriticalDamageRateDL = GetPrivateProfileInt("ExTeam","MaxCriticalDamageRateDL",0,MaxPower_Dir);

  005b0	68 00 00 00 00	 push	 OFFSET ??_C@_0BM@EHFLLMOD@?4?4?2Data?2ExData?2MaxPower?4ini?$AA@
  005b5	6a 00		 push	 0
  005b7	68 00 00 00 00	 push	 OFFSET ??_C@_0BI@LLIGILOG@MaxCriticalDamageRateDL?$AA@
  005bc	68 00 00 00 00	 push	 OFFSET ??_C@_06MLPMCPDE@ExTeam?$AA@
  005c1	ff 15 00 00 00
	00		 call	 DWORD PTR __imp__GetPrivateProfileIntA@16
  005c7	8b 4d fc	 mov	 ecx, DWORD PTR _this$[ebp]
  005ca	89 81 c0 00 00
	00		 mov	 DWORD PTR [ecx+192], eax

; 72   : 	this->MaxExellentDamageRateDL = GetPrivateProfileInt("ExTeam","MaxExellentDamageRateDL",0,MaxPower_Dir);

  005d0	68 00 00 00 00	 push	 OFFSET ??_C@_0BM@EHFLLMOD@?4?4?2Data?2ExData?2MaxPower?4ini?$AA@
  005d5	6a 00		 push	 0
  005d7	68 00 00 00 00	 push	 OFFSET ??_C@_0BI@GFMJKIMC@MaxExellentDamageRateDL?$AA@
  005dc	68 00 00 00 00	 push	 OFFSET ??_C@_06MLPMCPDE@ExTeam?$AA@
  005e1	ff 15 00 00 00
	00		 call	 DWORD PTR __imp__GetPrivateProfileIntA@16
  005e7	8b 4d fc	 mov	 ecx, DWORD PTR _this$[ebp]
  005ea	89 81 c4 00 00
	00		 mov	 DWORD PTR [ecx+196], eax

; 73   : 	this->MaxDoubleDamageRateDL = GetPrivateProfileInt("ExTeam","MaxDoubleDamageRateDL",0,MaxPower_Dir);

  005f0	68 00 00 00 00	 push	 OFFSET ??_C@_0BM@EHFLLMOD@?4?4?2Data?2ExData?2MaxPower?4ini?$AA@
  005f5	6a 00		 push	 0
  005f7	68 00 00 00 00	 push	 OFFSET ??_C@_0BG@MCJKLNFM@MaxDoubleDamageRateDL?$AA@
  005fc	68 00 00 00 00	 push	 OFFSET ??_C@_06MLPMCPDE@ExTeam?$AA@
  00601	ff 15 00 00 00
	00		 call	 DWORD PTR __imp__GetPrivateProfileIntA@16
  00607	8b 4d fc	 mov	 ecx, DWORD PTR _this$[ebp]
  0060a	89 81 c8 00 00
	00		 mov	 DWORD PTR [ecx+200], eax

; 74   : 	this->MaxAbsordDamageRateDL = GetPrivateProfileInt("ExTeam","MaxAbsordDamageRateDL",0,MaxPower_Dir);

  00610	68 00 00 00 00	 push	 OFFSET ??_C@_0BM@EHFLLMOD@?4?4?2Data?2ExData?2MaxPower?4ini?$AA@
  00615	6a 00		 push	 0
  00617	68 00 00 00 00	 push	 OFFSET ??_C@_0BG@JFNLGMBA@MaxAbsordDamageRateDL?$AA@
  0061c	68 00 00 00 00	 push	 OFFSET ??_C@_06MLPMCPDE@ExTeam?$AA@
  00621	ff 15 00 00 00
	00		 call	 DWORD PTR __imp__GetPrivateProfileIntA@16
  00627	8b 4d fc	 mov	 ecx, DWORD PTR _this$[ebp]
  0062a	89 81 cc 00 00
	00		 mov	 DWORD PTR [ecx+204], eax

; 75   : 	this->MaxReflectDamageRateDL = GetPrivateProfileInt("ExTeam","MaxReflectDamageRateDL",0,MaxPower_Dir);

  00630	68 00 00 00 00	 push	 OFFSET ??_C@_0BM@EHFLLMOD@?4?4?2Data?2ExData?2MaxPower?4ini?$AA@
  00635	6a 00		 push	 0
  00637	68 00 00 00 00	 push	 OFFSET ??_C@_0BH@HKFJGDKI@MaxReflectDamageRateDL?$AA@
  0063c	68 00 00 00 00	 push	 OFFSET ??_C@_06MLPMCPDE@ExTeam?$AA@
  00641	ff 15 00 00 00
	00		 call	 DWORD PTR __imp__GetPrivateProfileIntA@16
  00647	8b 4d fc	 mov	 ecx, DWORD PTR _this$[ebp]
  0064a	89 81 d0 00 00
	00		 mov	 DWORD PTR [ecx+208], eax

; 76   : 	this->MaxWizardDamageDL = GetPrivateProfileInt("ExTeam","MaxWizardDamageDL",0,MaxPower_Dir);

  00650	68 00 00 00 00	 push	 OFFSET ??_C@_0BM@EHFLLMOD@?4?4?2Data?2ExData?2MaxPower?4ini?$AA@
  00655	6a 00		 push	 0
  00657	68 00 00 00 00	 push	 OFFSET ??_C@_0BC@EJLKFLBD@MaxWizardDamageDL?$AA@
  0065c	68 00 00 00 00	 push	 OFFSET ??_C@_06MLPMCPDE@ExTeam?$AA@
  00661	ff 15 00 00 00
	00		 call	 DWORD PTR __imp__GetPrivateProfileIntA@16
  00667	8b 4d fc	 mov	 ecx, DWORD PTR _this$[ebp]
  0066a	89 81 d4 00 00
	00		 mov	 DWORD PTR [ecx+212], eax

; 77   : 	this->MaxLifeDL = GetPrivateProfileInt("ExTeam","MaxLifeDL",0,MaxPower_Dir);

  00670	68 00 00 00 00	 push	 OFFSET ??_C@_0BM@EHFLLMOD@?4?4?2Data?2ExData?2MaxPower?4ini?$AA@
  00675	6a 00		 push	 0
  00677	68 00 00 00 00	 push	 OFFSET ??_C@_09NOBJOFAN@MaxLifeDL?$AA@
  0067c	68 00 00 00 00	 push	 OFFSET ??_C@_06MLPMCPDE@ExTeam?$AA@
  00681	ff 15 00 00 00
	00		 call	 DWORD PTR __imp__GetPrivateProfileIntA@16
  00687	8b 4d fc	 mov	 ecx, DWORD PTR _this$[ebp]
  0068a	89 81 d8 00 00
	00		 mov	 DWORD PTR [ecx+216], eax

; 78   : 	this->MaxSdDL = GetPrivateProfileInt("ExTeam","MaxSdDL",0,MaxPower_Dir);

  00690	68 00 00 00 00	 push	 OFFSET ??_C@_0BM@EHFLLMOD@?4?4?2Data?2ExData?2MaxPower?4ini?$AA@
  00695	6a 00		 push	 0
  00697	68 00 00 00 00	 push	 OFFSET ??_C@_07CFNMPAN@MaxSdDL?$AA@
  0069c	68 00 00 00 00	 push	 OFFSET ??_C@_06MLPMCPDE@ExTeam?$AA@
  006a1	ff 15 00 00 00
	00		 call	 DWORD PTR __imp__GetPrivateProfileIntA@16
  006a7	8b 4d fc	 mov	 ecx, DWORD PTR _this$[ebp]
  006aa	89 81 dc 00 00
	00		 mov	 DWORD PTR [ecx+220], eax

; 79   : 
; 80   : 	//-> SUM
; 81   : 	this->MaxDamageSUM = GetPrivateProfileInt("ExTeam","MaxDamageSUM",0,MaxPower_Dir);

  006b0	68 00 00 00 00	 push	 OFFSET ??_C@_0BM@EHFLLMOD@?4?4?2Data?2ExData?2MaxPower?4ini?$AA@
  006b5	6a 00		 push	 0
  006b7	68 00 00 00 00	 push	 OFFSET ??_C@_0N@PFGBKBPP@MaxDamageSUM?$AA@
  006bc	68 00 00 00 00	 push	 OFFSET ??_C@_06MLPMCPDE@ExTeam?$AA@
  006c1	ff 15 00 00 00
	00		 call	 DWORD PTR __imp__GetPrivateProfileIntA@16
  006c7	8b 4d fc	 mov	 ecx, DWORD PTR _this$[ebp]
  006ca	89 81 e0 00 00
	00		 mov	 DWORD PTR [ecx+224], eax

; 82   : 	this->MaxDefenceSUM = GetPrivateProfileInt("ExTeam","MaxDefenceSUM",0,MaxPower_Dir);

  006d0	68 00 00 00 00	 push	 OFFSET ??_C@_0BM@EHFLLMOD@?4?4?2Data?2ExData?2MaxPower?4ini?$AA@
  006d5	6a 00		 push	 0
  006d7	68 00 00 00 00	 push	 OFFSET ??_C@_0O@DNCKMJMF@MaxDefenceSUM?$AA@
  006dc	68 00 00 00 00	 push	 OFFSET ??_C@_06MLPMCPDE@ExTeam?$AA@
  006e1	ff 15 00 00 00
	00		 call	 DWORD PTR __imp__GetPrivateProfileIntA@16
  006e7	8b 4d fc	 mov	 ecx, DWORD PTR _this$[ebp]
  006ea	89 81 e4 00 00
	00		 mov	 DWORD PTR [ecx+228], eax

; 83   : 	this->MaxIgnoreDefenceRateSUM = GetPrivateProfileInt("ExTeam","MaxIgnoreDefenceRateSUM",0,MaxPower_Dir);

  006f0	68 00 00 00 00	 push	 OFFSET ??_C@_0BM@EHFLLMOD@?4?4?2Data?2ExData?2MaxPower?4ini?$AA@
  006f5	6a 00		 push	 0
  006f7	68 00 00 00 00	 push	 OFFSET ??_C@_0BI@GGIKALIN@MaxIgnoreDefenceRateSUM?$AA@
  006fc	68 00 00 00 00	 push	 OFFSET ??_C@_06MLPMCPDE@ExTeam?$AA@
  00701	ff 15 00 00 00
	00		 call	 DWORD PTR __imp__GetPrivateProfileIntA@16
  00707	8b 4d fc	 mov	 ecx, DWORD PTR _this$[ebp]
  0070a	89 81 e8 00 00
	00		 mov	 DWORD PTR [ecx+232], eax

; 84   : 	this->MaxCriticalDamageRateSUM = GetPrivateProfileInt("ExTeam","MaxCriticalDamageRateSUM",0,MaxPower_Dir);

  00710	68 00 00 00 00	 push	 OFFSET ??_C@_0BM@EHFLLMOD@?4?4?2Data?2ExData?2MaxPower?4ini?$AA@
  00715	6a 00		 push	 0
  00717	68 00 00 00 00	 push	 OFFSET ??_C@_0BJ@NCDMAHFH@MaxCriticalDamageRateSUM?$AA@
  0071c	68 00 00 00 00	 push	 OFFSET ??_C@_06MLPMCPDE@ExTeam?$AA@
  00721	ff 15 00 00 00
	00		 call	 DWORD PTR __imp__GetPrivateProfileIntA@16
  00727	8b 4d fc	 mov	 ecx, DWORD PTR _this$[ebp]
  0072a	89 81 ec 00 00
	00		 mov	 DWORD PTR [ecx+236], eax

; 85   : 	this->MaxExellentDamageRateSUM = GetPrivateProfileInt("ExTeam","MaxExellentDamageRateSUM",0,MaxPower_Dir);

  00730	68 00 00 00 00	 push	 OFFSET ??_C@_0BM@EHFLLMOD@?4?4?2Data?2ExData?2MaxPower?4ini?$AA@
  00735	6a 00		 push	 0
  00737	68 00 00 00 00	 push	 OFFSET ??_C@_0BJ@OOOBKMKF@MaxExellentDamageRateSUM?$AA@
  0073c	68 00 00 00 00	 push	 OFFSET ??_C@_06MLPMCPDE@ExTeam?$AA@
  00741	ff 15 00 00 00
	00		 call	 DWORD PTR __imp__GetPrivateProfileIntA@16
  00747	8b 4d fc	 mov	 ecx, DWORD PTR _this$[ebp]
  0074a	89 81 f0 00 00
	00		 mov	 DWORD PTR [ecx+240], eax

; 86   : 	this->MaxDoubleDamageRateSUM = GetPrivateProfileInt("ExTeam","MaxDoubleDamageRateSUM",0,MaxPower_Dir);

  00750	68 00 00 00 00	 push	 OFFSET ??_C@_0BM@EHFLLMOD@?4?4?2Data?2ExData?2MaxPower?4ini?$AA@
  00755	6a 00		 push	 0
  00757	68 00 00 00 00	 push	 OFFSET ??_C@_0BH@PJPBEBPD@MaxDoubleDamageRateSUM?$AA@
  0075c	68 00 00 00 00	 push	 OFFSET ??_C@_06MLPMCPDE@ExTeam?$AA@
  00761	ff 15 00 00 00
	00		 call	 DWORD PTR __imp__GetPrivateProfileIntA@16
  00767	8b 4d fc	 mov	 ecx, DWORD PTR _this$[ebp]
  0076a	89 81 f4 00 00
	00		 mov	 DWORD PTR [ecx+244], eax

; 87   : 	this->MaxAbsordDamageRateSUM = GetPrivateProfileInt("ExTeam","MaxAbsordDamageRateSUM",0,MaxPower_Dir);

  00770	68 00 00 00 00	 push	 OFFSET ??_C@_0BM@EHFLLMOD@?4?4?2Data?2ExData?2MaxPower?4ini?$AA@
  00775	6a 00		 push	 0
  00777	68 00 00 00 00	 push	 OFFSET ??_C@_0BH@IGMMANJJ@MaxAbsordDamageRateSUM?$AA@
  0077c	68 00 00 00 00	 push	 OFFSET ??_C@_06MLPMCPDE@ExTeam?$AA@
  00781	ff 15 00 00 00
	00		 call	 DWORD PTR __imp__GetPrivateProfileIntA@16
  00787	8b 4d fc	 mov	 ecx, DWORD PTR _this$[ebp]
  0078a	89 81 f8 00 00
	00		 mov	 DWORD PTR [ecx+248], eax

; 88   : 	this->MaxReflectDamageRateSUM = GetPrivateProfileInt("ExTeam","MaxReflectDamageRateSUM",0,MaxPower_Dir);

  00790	68 00 00 00 00	 push	 OFFSET ??_C@_0BM@EHFLLMOD@?4?4?2Data?2ExData?2MaxPower?4ini?$AA@
  00795	6a 00		 push	 0
  00797	68 00 00 00 00	 push	 OFFSET ??_C@_0BI@EDJJLECI@MaxReflectDamageRateSUM?$AA@
  0079c	68 00 00 00 00	 push	 OFFSET ??_C@_06MLPMCPDE@ExTeam?$AA@
  007a1	ff 15 00 00 00
	00		 call	 DWORD PTR __imp__GetPrivateProfileIntA@16
  007a7	8b 4d fc	 mov	 ecx, DWORD PTR _this$[ebp]
  007aa	89 81 fc 00 00
	00		 mov	 DWORD PTR [ecx+252], eax

; 89   : 	this->MaxWizardDamageSUM = GetPrivateProfileInt("ExTeam","MaxWizardDamageSUM",0,MaxPower_Dir);

  007b0	68 00 00 00 00	 push	 OFFSET ??_C@_0BM@EHFLLMOD@?4?4?2Data?2ExData?2MaxPower?4ini?$AA@
  007b5	6a 00		 push	 0
  007b7	68 00 00 00 00	 push	 OFFSET ??_C@_0BD@BPBJDNBE@MaxWizardDamageSUM?$AA@
  007bc	68 00 00 00 00	 push	 OFFSET ??_C@_06MLPMCPDE@ExTeam?$AA@
  007c1	ff 15 00 00 00
	00		 call	 DWORD PTR __imp__GetPrivateProfileIntA@16
  007c7	8b 4d fc	 mov	 ecx, DWORD PTR _this$[ebp]
  007ca	89 81 00 01 00
	00		 mov	 DWORD PTR [ecx+256], eax

; 90   : 	this->MaxLifeSUM = GetPrivateProfileInt("ExTeam","MaxLifeSUM",0,MaxPower_Dir);

  007d0	68 00 00 00 00	 push	 OFFSET ??_C@_0BM@EHFLLMOD@?4?4?2Data?2ExData?2MaxPower?4ini?$AA@
  007d5	6a 00		 push	 0
  007d7	68 00 00 00 00	 push	 OFFSET ??_C@_0L@OFIBKDMJ@MaxLifeSUM?$AA@
  007dc	68 00 00 00 00	 push	 OFFSET ??_C@_06MLPMCPDE@ExTeam?$AA@
  007e1	ff 15 00 00 00
	00		 call	 DWORD PTR __imp__GetPrivateProfileIntA@16
  007e7	8b 4d fc	 mov	 ecx, DWORD PTR _this$[ebp]
  007ea	89 81 04 01 00
	00		 mov	 DWORD PTR [ecx+260], eax

; 91   : 	this->MaxSdSUM = GetPrivateProfileInt("ExTeam","MaxSdSUM",0,MaxPower_Dir);

  007f0	68 00 00 00 00	 push	 OFFSET ??_C@_0BM@EHFLLMOD@?4?4?2Data?2ExData?2MaxPower?4ini?$AA@
  007f5	6a 00		 push	 0
  007f7	68 00 00 00 00	 push	 OFFSET ??_C@_08OFFNOHOD@MaxSdSUM?$AA@
  007fc	68 00 00 00 00	 push	 OFFSET ??_C@_06MLPMCPDE@ExTeam?$AA@
  00801	ff 15 00 00 00
	00		 call	 DWORD PTR __imp__GetPrivateProfileIntA@16
  00807	8b 4d fc	 mov	 ecx, DWORD PTR _this$[ebp]
  0080a	89 81 08 01 00
	00		 mov	 DWORD PTR [ecx+264], eax

; 92   : 
; 93   : 	//-> RF
; 94   : 	this->MaxDamageRF = GetPrivateProfileInt("ExTeam","MaxDamageRF",0,MaxPower_Dir);

  00810	68 00 00 00 00	 push	 OFFSET ??_C@_0BM@EHFLLMOD@?4?4?2Data?2ExData?2MaxPower?4ini?$AA@
  00815	6a 00		 push	 0
  00817	68 00 00 00 00	 push	 OFFSET ??_C@_0M@GCFLONP@MaxDamageRF?$AA@
  0081c	68 00 00 00 00	 push	 OFFSET ??_C@_06MLPMCPDE@ExTeam?$AA@
  00821	ff 15 00 00 00
	00		 call	 DWORD PTR __imp__GetPrivateProfileIntA@16
  00827	8b 4d fc	 mov	 ecx, DWORD PTR _this$[ebp]
  0082a	89 81 0c 01 00
	00		 mov	 DWORD PTR [ecx+268], eax

; 95   : 	this->MaxDefenceRF = GetPrivateProfileInt("ExTeam","MaxDefenceRF",0,MaxPower_Dir);

  00830	68 00 00 00 00	 push	 OFFSET ??_C@_0BM@EHFLLMOD@?4?4?2Data?2ExData?2MaxPower?4ini?$AA@
  00835	6a 00		 push	 0
  00837	68 00 00 00 00	 push	 OFFSET ??_C@_0N@JKBMAEON@MaxDefenceRF?$AA@
  0083c	68 00 00 00 00	 push	 OFFSET ??_C@_06MLPMCPDE@ExTeam?$AA@
  00841	ff 15 00 00 00
	00		 call	 DWORD PTR __imp__GetPrivateProfileIntA@16
  00847	8b 4d fc	 mov	 ecx, DWORD PTR _this$[ebp]
  0084a	89 81 10 01 00
	00		 mov	 DWORD PTR [ecx+272], eax

; 96   : 	this->MaxIgnoreDefenceRateRF = GetPrivateProfileInt("ExTeam","MaxIgnoreDefenceRateRF",0,MaxPower_Dir);

  00850	68 00 00 00 00	 push	 OFFSET ??_C@_0BM@EHFLLMOD@?4?4?2Data?2ExData?2MaxPower?4ini?$AA@
  00855	6a 00		 push	 0
  00857	68 00 00 00 00	 push	 OFFSET ??_C@_0BH@OEHAFBFC@MaxIgnoreDefenceRateRF?$AA@
  0085c	68 00 00 00 00	 push	 OFFSET ??_C@_06MLPMCPDE@ExTeam?$AA@
  00861	ff 15 00 00 00
	00		 call	 DWORD PTR __imp__GetPrivateProfileIntA@16
  00867	8b 4d fc	 mov	 ecx, DWORD PTR _this$[ebp]
  0086a	89 81 14 01 00
	00		 mov	 DWORD PTR [ecx+276], eax

; 97   : 	this->MaxCriticalDamageRateRF = GetPrivateProfileInt("ExTeam","MaxCriticalDamageRateRF",0,MaxPower_Dir);

  00870	68 00 00 00 00	 push	 OFFSET ??_C@_0BM@EHFLLMOD@?4?4?2Data?2ExData?2MaxPower?4ini?$AA@
  00875	6a 00		 push	 0
  00877	68 00 00 00 00	 push	 OFFSET ??_C@_0BI@FJMCLMKO@MaxCriticalDamageRateRF?$AA@
  0087c	68 00 00 00 00	 push	 OFFSET ??_C@_06MLPMCPDE@ExTeam?$AA@
  00881	ff 15 00 00 00
	00		 call	 DWORD PTR __imp__GetPrivateProfileIntA@16
  00887	8b 4d fc	 mov	 ecx, DWORD PTR _this$[ebp]
  0088a	89 81 18 01 00
	00		 mov	 DWORD PTR [ecx+280], eax

; 98   : 	this->MaxExellentDamageRateRF = GetPrivateProfileInt("ExTeam","MaxExellentDamageRateRF",0,MaxPower_Dir);

  00890	68 00 00 00 00	 push	 OFFSET ??_C@_0BM@EHFLLMOD@?4?4?2Data?2ExData?2MaxPower?4ini?$AA@
  00895	6a 00		 push	 0
  00897	68 00 00 00 00	 push	 OFFSET ??_C@_0BI@IHINJPIK@MaxExellentDamageRateRF?$AA@
  0089c	68 00 00 00 00	 push	 OFFSET ??_C@_06MLPMCPDE@ExTeam?$AA@
  008a1	ff 15 00 00 00
	00		 call	 DWORD PTR __imp__GetPrivateProfileIntA@16
  008a7	8b 4d fc	 mov	 ecx, DWORD PTR _this$[ebp]
  008aa	89 81 1c 01 00
	00		 mov	 DWORD PTR [ecx+284], eax

; 99   : 	this->MaxDoubleDamageRateRF = GetPrivateProfileInt("ExTeam","MaxDoubleDamageRateRF",0,MaxPower_Dir);

  008b0	68 00 00 00 00	 push	 OFFSET ??_C@_0BM@EHFLLMOD@?4?4?2Data?2ExData?2MaxPower?4ini?$AA@
  008b5	6a 00		 push	 0
  008b7	68 00 00 00 00	 push	 OFFSET ??_C@_0BG@CANOIKBE@MaxDoubleDamageRateRF?$AA@
  008bc	68 00 00 00 00	 push	 OFFSET ??_C@_06MLPMCPDE@ExTeam?$AA@
  008c1	ff 15 00 00 00
	00		 call	 DWORD PTR __imp__GetPrivateProfileIntA@16
  008c7	8b 4d fc	 mov	 ecx, DWORD PTR _this$[ebp]
  008ca	89 81 20 01 00
	00		 mov	 DWORD PTR [ecx+288], eax

; 100  : 	this->MaxAbsordDamageRateRF = GetPrivateProfileInt("ExTeam","MaxAbsordDamageRateRF",0,MaxPower_Dir);

  008d0	68 00 00 00 00	 push	 OFFSET ??_C@_0BM@EHFLLMOD@?4?4?2Data?2ExData?2MaxPower?4ini?$AA@
  008d5	6a 00		 push	 0
  008d7	68 00 00 00 00	 push	 OFFSET ??_C@_0BG@HHJPFLFI@MaxAbsordDamageRateRF?$AA@
  008dc	68 00 00 00 00	 push	 OFFSET ??_C@_06MLPMCPDE@ExTeam?$AA@
  008e1	ff 15 00 00 00
	00		 call	 DWORD PTR __imp__GetPrivateProfileIntA@16
  008e7	8b 4d fc	 mov	 ecx, DWORD PTR _this$[ebp]
  008ea	89 81 24 01 00
	00		 mov	 DWORD PTR [ecx+292], eax

; 101  : 	this->MaxReflectDamageRateRF = GetPrivateProfileInt("ExTeam","MaxReflectDamageRateRF",0,MaxPower_Dir);

  008f0	68 00 00 00 00	 push	 OFFSET ??_C@_0BM@EHFLLMOD@?4?4?2Data?2ExData?2MaxPower?4ini?$AA@
  008f5	6a 00		 push	 0
  008f7	68 00 00 00 00	 push	 OFFSET ??_C@_0BH@JIBNFEOA@MaxReflectDamageRateRF?$AA@
  008fc	68 00 00 00 00	 push	 OFFSET ??_C@_06MLPMCPDE@ExTeam?$AA@
  00901	ff 15 00 00 00
	00		 call	 DWORD PTR __imp__GetPrivateProfileIntA@16
  00907	8b 4d fc	 mov	 ecx, DWORD PTR _this$[ebp]
  0090a	89 81 28 01 00
	00		 mov	 DWORD PTR [ecx+296], eax

; 102  : 	this->MaxWizardDamageRF = GetPrivateProfileInt("ExTeam","MaxWizardDamageRF",0,MaxPower_Dir);

  00910	68 00 00 00 00	 push	 OFFSET ??_C@_0BM@EHFLLMOD@?4?4?2Data?2ExData?2MaxPower?4ini?$AA@
  00915	6a 00		 push	 0
  00917	68 00 00 00 00	 push	 OFFSET ??_C@_0BC@KLPOGMFL@MaxWizardDamageRF?$AA@
  0091c	68 00 00 00 00	 push	 OFFSET ??_C@_06MLPMCPDE@ExTeam?$AA@
  00921	ff 15 00 00 00
	00		 call	 DWORD PTR __imp__GetPrivateProfileIntA@16
  00927	8b 4d fc	 mov	 ecx, DWORD PTR _this$[ebp]
  0092a	89 81 2c 01 00
	00		 mov	 DWORD PTR [ecx+300], eax

; 103  : 	this->MaxLifeRF = GetPrivateProfileInt("ExTeam","MaxLifeRF",0,MaxPower_Dir);

  00930	68 00 00 00 00	 push	 OFFSET ??_C@_0BM@EHFLLMOD@?4?4?2Data?2ExData?2MaxPower?4ini?$AA@
  00935	6a 00		 push	 0
  00937	68 00 00 00 00	 push	 OFFSET ??_C@_09DMFNNCEF@MaxLifeRF?$AA@
  0093c	68 00 00 00 00	 push	 OFFSET ??_C@_06MLPMCPDE@ExTeam?$AA@
  00941	ff 15 00 00 00
	00		 call	 DWORD PTR __imp__GetPrivateProfileIntA@16
  00947	8b 4d fc	 mov	 ecx, DWORD PTR _this$[ebp]
  0094a	89 81 30 01 00
	00		 mov	 DWORD PTR [ecx+304], eax

; 104  : 	this->MaxSdRF = GetPrivateProfileInt("ExTeam","MaxSdRF",0,MaxPower_Dir);

  00950	68 00 00 00 00	 push	 OFFSET ??_C@_0BM@EHFLLMOD@?4?4?2Data?2ExData?2MaxPower?4ini?$AA@
  00955	6a 00		 push	 0
  00957	68 00 00 00 00	 push	 OFFSET ??_C@_07OABJPIEF@MaxSdRF?$AA@
  0095c	68 00 00 00 00	 push	 OFFSET ??_C@_06MLPMCPDE@ExTeam?$AA@
  00961	ff 15 00 00 00
	00		 call	 DWORD PTR __imp__GetPrivateProfileIntA@16
  00967	8b 4d fc	 mov	 ecx, DWORD PTR _this$[ebp]
  0096a	89 81 34 01 00
	00		 mov	 DWORD PTR [ecx+308], eax

; 105  : }

  00970	5f		 pop	 edi
  00971	5e		 pop	 esi
  00972	5b		 pop	 ebx
  00973	8b e5		 mov	 esp, ebp
  00975	5d		 pop	 ebp
  00976	c3		 ret	 0
?Load@cMaxPower@@QAEXXZ ENDP				; cMaxPower::Load
_TEXT	ENDS
PUBLIC	?RF@cMaxPower@@AAEXH@Z				; cMaxPower::RF
PUBLIC	?SUM@cMaxPower@@AAEXH@Z				; cMaxPower::SUM
PUBLIC	?DL@cMaxPower@@AAEXH@Z				; cMaxPower::DL
PUBLIC	?MG@cMaxPower@@AAEXH@Z				; cMaxPower::MG
PUBLIC	?Elf@cMaxPower@@AAEXH@Z				; cMaxPower::Elf
PUBLIC	?DK@cMaxPower@@AAEXH@Z				; cMaxPower::DK
PUBLIC	?DW@cMaxPower@@AAEXH@Z				; cMaxPower::DW
PUBLIC	?Main@cMaxPower@@QAEXH@Z			; cMaxPower::Main
EXTRN	?gObj@@3PAUOBJECTSTRUCT@@A:DWORD		; gObj
; Function compile flags: /Odtp /ZI
_TEXT	SEGMENT
tv70 = -76						; size = 4
_lpObj$ = -8						; size = 4
_this$ = -4						; size = 4
_aIndex$ = 8						; size = 4
?Main@cMaxPower@@QAEXH@Z PROC				; cMaxPower::Main
; _this$ = ecx

; 108  : {

  00980	55		 push	 ebp
  00981	8b ec		 mov	 ebp, esp
  00983	83 ec 4c	 sub	 esp, 76			; 0000004cH
  00986	53		 push	 ebx
  00987	56		 push	 esi
  00988	57		 push	 edi
  00989	89 4d fc	 mov	 DWORD PTR _this$[ebp], ecx

; 109  : 	if(!this->Enable) return;

  0098c	8b 45 fc	 mov	 eax, DWORD PTR _this$[ebp]
  0098f	0f b6 08	 movzx	 ecx, BYTE PTR [eax]
  00992	85 c9		 test	 ecx, ecx
  00994	75 05		 jne	 SHORT $LN10@Main
  00996	e9 8f 00 00 00	 jmp	 $LN11@Main
$LN10@Main:

; 110  : 
; 111  : 	LPOBJ lpObj = &gObj[aIndex];

  0099b	8b 45 08	 mov	 eax, DWORD PTR _aIndex$[ebp]
  0099e	69 c0 38 2b 00
	00		 imul	 eax, 11064		; 00002b38H
  009a4	03 05 00 00 00
	00		 add	 eax, DWORD PTR ?gObj@@3PAUOBJECTSTRUCT@@A ; gObj
  009aa	89 45 f8	 mov	 DWORD PTR _lpObj$[ebp], eax

; 112  : 
; 113  : 	switch(lpObj->Class)

  009ad	8b 45 f8	 mov	 eax, DWORD PTR _lpObj$[ebp]
  009b0	0f b7 88 b8 00
	00 00		 movzx	 ecx, WORD PTR [eax+184]
  009b7	89 4d b4	 mov	 DWORD PTR tv70[ebp], ecx
  009ba	83 7d b4 06	 cmp	 DWORD PTR tv70[ebp], 6
  009be	77 6a		 ja	 SHORT $LN11@Main
  009c0	8b 55 b4	 mov	 edx, DWORD PTR tv70[ebp]
  009c3	ff 24 95 00 00
	00 00		 jmp	 DWORD PTR $LN13@Main[edx*4]
$LN7@Main:

; 114  : 	{
; 115  : 	case CLASS_WIZARD:
; 116  : 		{
; 117  : 			this->DW(aIndex);

  009ca	8b 45 08	 mov	 eax, DWORD PTR _aIndex$[ebp]
  009cd	50		 push	 eax
  009ce	8b 4d fc	 mov	 ecx, DWORD PTR _this$[ebp]
  009d1	e8 00 00 00 00	 call	 ?DW@cMaxPower@@AAEXH@Z	; cMaxPower::DW

; 118  : 		}
; 119  : 		break;

  009d6	eb 52		 jmp	 SHORT $LN11@Main
$LN6@Main:

; 120  : 	case CLASS_KNIGHT:
; 121  : 		{
; 122  : 			this->DK(aIndex);

  009d8	8b 45 08	 mov	 eax, DWORD PTR _aIndex$[ebp]
  009db	50		 push	 eax
  009dc	8b 4d fc	 mov	 ecx, DWORD PTR _this$[ebp]
  009df	e8 00 00 00 00	 call	 ?DK@cMaxPower@@AAEXH@Z	; cMaxPower::DK

; 123  : 		}
; 124  : 		break;

  009e4	eb 44		 jmp	 SHORT $LN11@Main
$LN5@Main:

; 125  : 	case CLASS_ELF:
; 126  : 		{
; 127  : 			this->Elf(aIndex);

  009e6	8b 45 08	 mov	 eax, DWORD PTR _aIndex$[ebp]
  009e9	50		 push	 eax
  009ea	8b 4d fc	 mov	 ecx, DWORD PTR _this$[ebp]
  009ed	e8 00 00 00 00	 call	 ?Elf@cMaxPower@@AAEXH@Z	; cMaxPower::Elf

; 128  : 		}
; 129  : 		break;

  009f2	eb 36		 jmp	 SHORT $LN11@Main
$LN4@Main:

; 130  : 	case CLASS_MAGUMSA:
; 131  : 		{
; 132  : 			this->MG(aIndex);

  009f4	8b 45 08	 mov	 eax, DWORD PTR _aIndex$[ebp]
  009f7	50		 push	 eax
  009f8	8b 4d fc	 mov	 ecx, DWORD PTR _this$[ebp]
  009fb	e8 00 00 00 00	 call	 ?MG@cMaxPower@@AAEXH@Z	; cMaxPower::MG

; 133  : 		}
; 134  : 		break;

  00a00	eb 28		 jmp	 SHORT $LN11@Main
$LN3@Main:

; 135  : 	case CLASS_DARKLORD:
; 136  : 		{
; 137  : 			this->DL(aIndex);

  00a02	8b 45 08	 mov	 eax, DWORD PTR _aIndex$[ebp]
  00a05	50		 push	 eax
  00a06	8b 4d fc	 mov	 ecx, DWORD PTR _this$[ebp]
  00a09	e8 00 00 00 00	 call	 ?DL@cMaxPower@@AAEXH@Z	; cMaxPower::DL

; 138  : 		}
; 139  : 		break;

  00a0e	eb 1a		 jmp	 SHORT $LN11@Main
$LN2@Main:

; 140  : 	case CLASS_SUMMONER:
; 141  : 		{
; 142  : 			this->SUM(aIndex);

  00a10	8b 45 08	 mov	 eax, DWORD PTR _aIndex$[ebp]
  00a13	50		 push	 eax
  00a14	8b 4d fc	 mov	 ecx, DWORD PTR _this$[ebp]
  00a17	e8 00 00 00 00	 call	 ?SUM@cMaxPower@@AAEXH@Z	; cMaxPower::SUM

; 143  : 		}
; 144  : 		break;

  00a1c	eb 0c		 jmp	 SHORT $LN11@Main
$LN1@Main:

; 145  : 	case CLASS_MONK:
; 146  : 		{
; 147  : 			this->RF(aIndex);

  00a1e	8b 45 08	 mov	 eax, DWORD PTR _aIndex$[ebp]
  00a21	50		 push	 eax
  00a22	8b 4d fc	 mov	 ecx, DWORD PTR _this$[ebp]
  00a25	e8 00 00 00 00	 call	 ?RF@cMaxPower@@AAEXH@Z	; cMaxPower::RF
$LN11@Main:

; 148  : 		}
; 149  : 		break;
; 150  : 	}
; 151  : }

  00a2a	5f		 pop	 edi
  00a2b	5e		 pop	 esi
  00a2c	5b		 pop	 ebx
  00a2d	8b e5		 mov	 esp, ebp
  00a2f	5d		 pop	 ebp
  00a30	c2 04 00	 ret	 4
  00a33	90		 npad	 1
$LN13@Main:
  00a34	00 00 00 00	 DD	 $LN7@Main
  00a38	00 00 00 00	 DD	 $LN6@Main
  00a3c	00 00 00 00	 DD	 $LN5@Main
  00a40	00 00 00 00	 DD	 $LN4@Main
  00a44	00 00 00 00	 DD	 $LN3@Main
  00a48	00 00 00 00	 DD	 $LN2@Main
  00a4c	00 00 00 00	 DD	 $LN1@Main
?Main@cMaxPower@@QAEXH@Z ENDP				; cMaxPower::Main
_TEXT	ENDS
EXTRN	__fltused:DWORD
; Function compile flags: /Odtp /ZI
_TEXT	SEGMENT
_lpObj$ = -8						; size = 4
_this$ = -4						; size = 4
_aIndex$ = 8						; size = 4
?DK@cMaxPower@@AAEXH@Z PROC				; cMaxPower::DK
; _this$ = ecx

; 154  : {

  00a50	55		 push	 ebp
  00a51	8b ec		 mov	 ebp, esp
  00a53	83 ec 48	 sub	 esp, 72			; 00000048H
  00a56	53		 push	 ebx
  00a57	56		 push	 esi
  00a58	57		 push	 edi
  00a59	89 4d fc	 mov	 DWORD PTR _this$[ebp], ecx

; 155  : 	LPOBJ lpObj = &gObj[aIndex];

  00a5c	8b 45 08	 mov	 eax, DWORD PTR _aIndex$[ebp]
  00a5f	69 c0 38 2b 00
	00		 imul	 eax, 11064		; 00002b38H
  00a65	03 05 00 00 00
	00		 add	 eax, DWORD PTR ?gObj@@3PAUOBJECTSTRUCT@@A ; gObj
  00a6b	89 45 f8	 mov	 DWORD PTR _lpObj$[ebp], eax

; 156  : 
; 157  : 	if(this->MaxDamageDK != -1)

  00a6e	8b 45 fc	 mov	 eax, DWORD PTR _this$[ebp]
  00a71	83 78 04 ff	 cmp	 DWORD PTR [eax+4], -1
  00a75	74 5e		 je	 SHORT $LN22@DK

; 158  : 	{
; 159  : 		if(lpObj->m_AttackDamageMaxRight > this->MaxDamageDK || lpObj->m_AttackDamageMaxLeft > this->MaxDamageDK)

  00a77	8b 45 f8	 mov	 eax, DWORD PTR _lpObj$[ebp]
  00a7a	8b 4d fc	 mov	 ecx, DWORD PTR _this$[ebp]
  00a7d	8b 90 80 04 00
	00		 mov	 edx, DWORD PTR [eax+1152]
  00a83	3b 51 04	 cmp	 edx, DWORD PTR [ecx+4]
  00a86	7f 11		 jg	 SHORT $LN21@DK
  00a88	8b 45 f8	 mov	 eax, DWORD PTR _lpObj$[ebp]
  00a8b	8b 4d fc	 mov	 ecx, DWORD PTR _this$[ebp]
  00a8e	8b 90 78 04 00
	00		 mov	 edx, DWORD PTR [eax+1144]
  00a94	3b 51 04	 cmp	 edx, DWORD PTR [ecx+4]
  00a97	7e 3c		 jle	 SHORT $LN22@DK
$LN21@DK:

; 160  : 		{
; 161  : 			lpObj->m_AttackDamageMinRight = this->MaxDamageDK;

  00a99	8b 45 f8	 mov	 eax, DWORD PTR _lpObj$[ebp]
  00a9c	8b 4d fc	 mov	 ecx, DWORD PTR _this$[ebp]
  00a9f	8b 51 04	 mov	 edx, DWORD PTR [ecx+4]
  00aa2	89 90 84 04 00
	00		 mov	 DWORD PTR [eax+1156], edx

; 162  : 			lpObj->m_AttackDamageMaxRight = this->MaxDamageDK;

  00aa8	8b 45 f8	 mov	 eax, DWORD PTR _lpObj$[ebp]
  00aab	8b 4d fc	 mov	 ecx, DWORD PTR _this$[ebp]
  00aae	8b 51 04	 mov	 edx, DWORD PTR [ecx+4]
  00ab1	89 90 80 04 00
	00		 mov	 DWORD PTR [eax+1152], edx

; 163  : 			lpObj->m_AttackDamageMinLeft = this->MaxDamageDK;

  00ab7	8b 45 f8	 mov	 eax, DWORD PTR _lpObj$[ebp]
  00aba	8b 4d fc	 mov	 ecx, DWORD PTR _this$[ebp]
  00abd	8b 51 04	 mov	 edx, DWORD PTR [ecx+4]
  00ac0	89 90 7c 04 00
	00		 mov	 DWORD PTR [eax+1148], edx

; 164  : 			lpObj->m_AttackDamageMaxLeft = this->MaxDamageDK;

  00ac6	8b 45 f8	 mov	 eax, DWORD PTR _lpObj$[ebp]
  00ac9	8b 4d fc	 mov	 ecx, DWORD PTR _this$[ebp]
  00acc	8b 51 04	 mov	 edx, DWORD PTR [ecx+4]
  00acf	89 90 78 04 00
	00		 mov	 DWORD PTR [eax+1144], edx
$LN22@DK:

; 165  : 		}
; 166  : 	}
; 167  : 
; 168  : 	if(this->MaxDefenceDK != -1)

  00ad5	8b 45 fc	 mov	 eax, DWORD PTR _this$[ebp]
  00ad8	83 78 08 ff	 cmp	 DWORD PTR [eax+8], -1
  00adc	74 20		 je	 SHORT $LN19@DK

; 169  : 	{
; 170  : 		if(lpObj->m_Defense > this->MaxDefenceDK)

  00ade	8b 45 f8	 mov	 eax, DWORD PTR _lpObj$[ebp]
  00ae1	8b 4d fc	 mov	 ecx, DWORD PTR _this$[ebp]
  00ae4	8b 90 94 04 00
	00		 mov	 edx, DWORD PTR [eax+1172]
  00aea	3b 51 08	 cmp	 edx, DWORD PTR [ecx+8]
  00aed	7e 0f		 jle	 SHORT $LN19@DK

; 171  : 		{
; 172  : 			lpObj->m_Defense = this->MaxDefenceDK;

  00aef	8b 45 f8	 mov	 eax, DWORD PTR _lpObj$[ebp]
  00af2	8b 4d fc	 mov	 ecx, DWORD PTR _this$[ebp]
  00af5	8b 51 08	 mov	 edx, DWORD PTR [ecx+8]
  00af8	89 90 94 04 00
	00		 mov	 DWORD PTR [eax+1172], edx
$LN19@DK:

; 173  : 		}
; 174  : 	}
; 175  : 
; 176  : 	if(this->MaxIgnoreDefenceRateDK != -1)

  00afe	8b 45 fc	 mov	 eax, DWORD PTR _this$[ebp]
  00b01	83 78 0c ff	 cmp	 DWORD PTR [eax+12], -1
  00b05	74 21		 je	 SHORT $LN17@DK

; 177  : 	{
; 178  : 		if(lpObj->SetOpIgnoreDefense > this->MaxIgnoreDefenceRateDK)

  00b07	8b 45 f8	 mov	 eax, DWORD PTR _lpObj$[ebp]
  00b0a	0f b6 88 3e 11
	00 00		 movzx	 ecx, BYTE PTR [eax+4414]
  00b11	8b 55 fc	 mov	 edx, DWORD PTR _this$[ebp]
  00b14	3b 4a 0c	 cmp	 ecx, DWORD PTR [edx+12]
  00b17	7e 0f		 jle	 SHORT $LN17@DK

; 179  : 		{
; 180  : 			lpObj->SetOpIgnoreDefense = this->MaxIgnoreDefenceRateDK;

  00b19	8b 45 f8	 mov	 eax, DWORD PTR _lpObj$[ebp]
  00b1c	8b 4d fc	 mov	 ecx, DWORD PTR _this$[ebp]
  00b1f	8a 51 0c	 mov	 dl, BYTE PTR [ecx+12]
  00b22	88 90 3e 11 00
	00		 mov	 BYTE PTR [eax+4414], dl
$LN17@DK:

; 181  : 		}
; 182  : 	}
; 183  : 
; 184  : 	if(this->MaxCriticalDamageRateDK != -1)

  00b28	8b 45 fc	 mov	 eax, DWORD PTR _this$[ebp]
  00b2b	83 78 10 ff	 cmp	 DWORD PTR [eax+16], -1
  00b2f	74 20		 je	 SHORT $LN15@DK

; 185  : 	{
; 186  : 		if(lpObj->m_CriticalDamage > this->MaxCriticalDamageRateDK)

  00b31	8b 45 f8	 mov	 eax, DWORD PTR _lpObj$[ebp]
  00b34	8b 4d fc	 mov	 ecx, DWORD PTR _this$[ebp]
  00b37	8b 90 bc 04 00
	00		 mov	 edx, DWORD PTR [eax+1212]
  00b3d	3b 51 10	 cmp	 edx, DWORD PTR [ecx+16]
  00b40	7e 0f		 jle	 SHORT $LN15@DK

; 187  : 		{
; 188  : 			lpObj->m_CriticalDamage = this->MaxCriticalDamageRateDK;

  00b42	8b 45 f8	 mov	 eax, DWORD PTR _lpObj$[ebp]
  00b45	8b 4d fc	 mov	 ecx, DWORD PTR _this$[ebp]
  00b48	8b 51 10	 mov	 edx, DWORD PTR [ecx+16]
  00b4b	89 90 bc 04 00
	00		 mov	 DWORD PTR [eax+1212], edx
$LN15@DK:

; 189  : 		}
; 190  : 	}
; 191  : 
; 192  : 	if(this->MaxExellentDamageRateDK != -1)

  00b51	8b 45 fc	 mov	 eax, DWORD PTR _this$[ebp]
  00b54	83 78 14 ff	 cmp	 DWORD PTR [eax+20], -1
  00b58	74 20		 je	 SHORT $LN13@DK

; 193  : 	{
; 194  : 		if(lpObj->m_ExcelentDamage > this->MaxExellentDamageRateDK)

  00b5a	8b 45 f8	 mov	 eax, DWORD PTR _lpObj$[ebp]
  00b5d	8b 4d fc	 mov	 ecx, DWORD PTR _this$[ebp]
  00b60	8b 90 c0 04 00
	00		 mov	 edx, DWORD PTR [eax+1216]
  00b66	3b 51 14	 cmp	 edx, DWORD PTR [ecx+20]
  00b69	7e 0f		 jle	 SHORT $LN13@DK

; 195  : 		{
; 196  : 			lpObj->m_ExcelentDamage = this->MaxExellentDamageRateDK;

  00b6b	8b 45 f8	 mov	 eax, DWORD PTR _lpObj$[ebp]
  00b6e	8b 4d fc	 mov	 ecx, DWORD PTR _this$[ebp]
  00b71	8b 51 14	 mov	 edx, DWORD PTR [ecx+20]
  00b74	89 90 c0 04 00
	00		 mov	 DWORD PTR [eax+1216], edx
$LN13@DK:

; 197  : 		}
; 198  : 	}
; 199  : 
; 200  : 	if(this->MaxDoubleDamageRateDK != -1)

  00b7a	8b 45 fc	 mov	 eax, DWORD PTR _this$[ebp]
  00b7d	83 78 18 ff	 cmp	 DWORD PTR [eax+24], -1
  00b81	74 21		 je	 SHORT $LN11@DK

; 201  : 	{
; 202  : 		if(lpObj->SetOpDoubleDamage > this->MaxDoubleDamageRateDK)

  00b83	8b 45 f8	 mov	 eax, DWORD PTR _lpObj$[ebp]
  00b86	0f b6 88 3f 11
	00 00		 movzx	 ecx, BYTE PTR [eax+4415]
  00b8d	8b 55 fc	 mov	 edx, DWORD PTR _this$[ebp]
  00b90	3b 4a 18	 cmp	 ecx, DWORD PTR [edx+24]
  00b93	7e 0f		 jle	 SHORT $LN11@DK

; 203  : 		{
; 204  : 			lpObj->SetOpDoubleDamage = this->MaxDoubleDamageRateDK;

  00b95	8b 45 f8	 mov	 eax, DWORD PTR _lpObj$[ebp]
  00b98	8b 4d fc	 mov	 ecx, DWORD PTR _this$[ebp]
  00b9b	8a 51 18	 mov	 dl, BYTE PTR [ecx+24]
  00b9e	88 90 3f 11 00
	00		 mov	 BYTE PTR [eax+4415], dl
$LN11@DK:

; 205  : 		}
; 206  : 	}
; 207  : 
; 208  : 	if(this->MaxAbsordDamageRateDK != -1)

  00ba4	8b 45 fc	 mov	 eax, DWORD PTR _this$[ebp]
  00ba7	83 78 1c ff	 cmp	 DWORD PTR [eax+28], -1
  00bab	74 21		 je	 SHORT $LN9@DK

; 209  : 	{
; 210  : 		if(lpObj->DamageMinus > this->MaxAbsordDamageRateDK)

  00bad	8b 45 f8	 mov	 eax, DWORD PTR _lpObj$[ebp]
  00bb0	0f b6 88 70 01
	00 00		 movzx	 ecx, BYTE PTR [eax+368]
  00bb7	8b 55 fc	 mov	 edx, DWORD PTR _this$[ebp]
  00bba	3b 4a 1c	 cmp	 ecx, DWORD PTR [edx+28]
  00bbd	7e 0f		 jle	 SHORT $LN9@DK

; 211  : 		{
; 212  : 			lpObj->DamageMinus = this->MaxAbsordDamageRateDK;

  00bbf	8b 45 f8	 mov	 eax, DWORD PTR _lpObj$[ebp]
  00bc2	8b 4d fc	 mov	 ecx, DWORD PTR _this$[ebp]
  00bc5	8a 51 1c	 mov	 dl, BYTE PTR [ecx+28]
  00bc8	88 90 70 01 00
	00		 mov	 BYTE PTR [eax+368], dl
$LN9@DK:

; 213  : 		}
; 214  : 	}
; 215  : 
; 216  : 	if(this->MaxReflectDamageRateDK != -1)

  00bce	8b 45 fc	 mov	 eax, DWORD PTR _this$[ebp]
  00bd1	83 78 20 ff	 cmp	 DWORD PTR [eax+32], -1
  00bd5	74 21		 je	 SHORT $LN7@DK

; 217  : 	{
; 218  : 		if(lpObj->DamageReflect > this->MaxReflectDamageRateDK)

  00bd7	8b 45 f8	 mov	 eax, DWORD PTR _lpObj$[ebp]
  00bda	0f b6 88 71 01
	00 00		 movzx	 ecx, BYTE PTR [eax+369]
  00be1	8b 55 fc	 mov	 edx, DWORD PTR _this$[ebp]
  00be4	3b 4a 20	 cmp	 ecx, DWORD PTR [edx+32]
  00be7	7e 0f		 jle	 SHORT $LN7@DK

; 219  : 		{
; 220  : 			lpObj->DamageReflect = this->MaxReflectDamageRateDK;

  00be9	8b 45 f8	 mov	 eax, DWORD PTR _lpObj$[ebp]
  00bec	8b 4d fc	 mov	 ecx, DWORD PTR _this$[ebp]
  00bef	8a 51 20	 mov	 dl, BYTE PTR [ecx+32]
  00bf2	88 90 71 01 00
	00		 mov	 BYTE PTR [eax+369], dl
$LN7@DK:

; 221  : 		}
; 222  : 	}
; 223  : 
; 224  : 	if(this->MaxWizardDamageDK != -1)

  00bf8	8b 45 fc	 mov	 eax, DWORD PTR _this$[ebp]
  00bfb	83 78 24 ff	 cmp	 DWORD PTR [eax+36], -1
  00bff	74 2f		 je	 SHORT $LN5@DK

; 225  : 	{
; 226  : 		if(lpObj->m_MagicDamageMax > this->MaxWizardDamageDK)

  00c01	8b 45 f8	 mov	 eax, DWORD PTR _lpObj$[ebp]
  00c04	8b 4d fc	 mov	 ecx, DWORD PTR _this$[ebp]
  00c07	8b 90 6c 04 00
	00		 mov	 edx, DWORD PTR [eax+1132]
  00c0d	3b 51 24	 cmp	 edx, DWORD PTR [ecx+36]
  00c10	7e 1e		 jle	 SHORT $LN5@DK

; 227  : 		{
; 228  : 			lpObj->m_MagicDamageMax = this->MaxWizardDamageDK;

  00c12	8b 45 f8	 mov	 eax, DWORD PTR _lpObj$[ebp]
  00c15	8b 4d fc	 mov	 ecx, DWORD PTR _this$[ebp]
  00c18	8b 51 24	 mov	 edx, DWORD PTR [ecx+36]
  00c1b	89 90 6c 04 00
	00		 mov	 DWORD PTR [eax+1132], edx

; 229  : 			lpObj->m_MagicDamageMin = this->MaxWizardDamageDK;

  00c21	8b 45 f8	 mov	 eax, DWORD PTR _lpObj$[ebp]
  00c24	8b 4d fc	 mov	 ecx, DWORD PTR _this$[ebp]
  00c27	8b 51 24	 mov	 edx, DWORD PTR [ecx+36]
  00c2a	89 90 68 04 00
	00		 mov	 DWORD PTR [eax+1128], edx
$LN5@DK:

; 230  : 		}
; 231  : 	}
; 232  : 
; 233  : 	if(this->MaxLifeDK != -1)

  00c30	8b 45 fc	 mov	 eax, DWORD PTR _this$[ebp]
  00c33	83 78 28 ff	 cmp	 DWORD PTR [eax+40], -1
  00c37	74 27		 je	 SHORT $LN3@DK

; 234  : 	{
; 235  : 		if( lpObj->Life > this->MaxLifeDK)

  00c39	8b 45 fc	 mov	 eax, DWORD PTR _this$[ebp]
  00c3c	db 40 28	 fild	 DWORD PTR [eax+40]
  00c3f	8b 4d f8	 mov	 ecx, DWORD PTR _lpObj$[ebp]
  00c42	d9 81 fc 00 00
	00		 fld	 DWORD PTR [ecx+252]
  00c48	de d9		 fcompp
  00c4a	df e0		 fnstsw	 ax
  00c4c	f6 c4 41	 test	 ah, 65			; 00000041H
  00c4f	75 0f		 jne	 SHORT $LN3@DK

; 236  : 		{
; 237  : 			lpObj->Life = this->MaxLifeDK;

  00c51	8b 45 fc	 mov	 eax, DWORD PTR _this$[ebp]
  00c54	db 40 28	 fild	 DWORD PTR [eax+40]
  00c57	8b 4d f8	 mov	 ecx, DWORD PTR _lpObj$[ebp]
  00c5a	d9 99 fc 00 00
	00		 fstp	 DWORD PTR [ecx+252]
$LN3@DK:

; 238  : 		}
; 239  : 	}
; 240  : 
; 241  : 	if(this->MaxSdDK != -1)

  00c60	8b 45 fc	 mov	 eax, DWORD PTR _this$[ebp]
  00c63	83 78 2c ff	 cmp	 DWORD PTR [eax+44], -1
  00c67	74 20		 je	 SHORT $LN1@DK

; 242  : 	{
; 243  : 		if( lpObj->iShield > this->MaxSdDK)

  00c69	8b 45 f8	 mov	 eax, DWORD PTR _lpObj$[ebp]
  00c6c	8b 4d fc	 mov	 ecx, DWORD PTR _this$[ebp]
  00c6f	8b 90 54 01 00
	00		 mov	 edx, DWORD PTR [eax+340]
  00c75	3b 51 2c	 cmp	 edx, DWORD PTR [ecx+44]
  00c78	7e 0f		 jle	 SHORT $LN1@DK

; 244  : 		{
; 245  : 			lpObj->iShield = this->MaxSdDK;

  00c7a	8b 45 f8	 mov	 eax, DWORD PTR _lpObj$[ebp]
  00c7d	8b 4d fc	 mov	 ecx, DWORD PTR _this$[ebp]
  00c80	8b 51 2c	 mov	 edx, DWORD PTR [ecx+44]
  00c83	89 90 54 01 00
	00		 mov	 DWORD PTR [eax+340], edx
$LN1@DK:

; 246  : 		}
; 247  : 	}
; 248  : }

  00c89	5f		 pop	 edi
  00c8a	5e		 pop	 esi
  00c8b	5b		 pop	 ebx
  00c8c	8b e5		 mov	 esp, ebp
  00c8e	5d		 pop	 ebp
  00c8f	c2 04 00	 ret	 4
?DK@cMaxPower@@AAEXH@Z ENDP				; cMaxPower::DK
; Function compile flags: /Odtp /ZI
_lpObj$ = -8						; size = 4
_this$ = -4						; size = 4
_aIndex$ = 8						; size = 4
?DW@cMaxPower@@AAEXH@Z PROC				; cMaxPower::DW
; _this$ = ecx

; 251  : {

  00ca0	55		 push	 ebp
  00ca1	8b ec		 mov	 ebp, esp
  00ca3	83 ec 48	 sub	 esp, 72			; 00000048H
  00ca6	53		 push	 ebx
  00ca7	56		 push	 esi
  00ca8	57		 push	 edi
  00ca9	89 4d fc	 mov	 DWORD PTR _this$[ebp], ecx

; 252  : 	LPOBJ lpObj = &gObj[aIndex];

  00cac	8b 45 08	 mov	 eax, DWORD PTR _aIndex$[ebp]
  00caf	69 c0 38 2b 00
	00		 imul	 eax, 11064		; 00002b38H
  00cb5	03 05 00 00 00
	00		 add	 eax, DWORD PTR ?gObj@@3PAUOBJECTSTRUCT@@A ; gObj
  00cbb	89 45 f8	 mov	 DWORD PTR _lpObj$[ebp], eax

; 253  : 
; 254  : 	if(this->MaxDamageDW != -1)

  00cbe	8b 45 fc	 mov	 eax, DWORD PTR _this$[ebp]
  00cc1	83 78 30 ff	 cmp	 DWORD PTR [eax+48], -1
  00cc5	74 5e		 je	 SHORT $LN22@DW

; 255  : 	{
; 256  : 		if(lpObj->m_AttackDamageMaxRight > this->MaxDamageDW || lpObj->m_AttackDamageMaxLeft > this->MaxDamageDW)

  00cc7	8b 45 f8	 mov	 eax, DWORD PTR _lpObj$[ebp]
  00cca	8b 4d fc	 mov	 ecx, DWORD PTR _this$[ebp]
  00ccd	8b 90 80 04 00
	00		 mov	 edx, DWORD PTR [eax+1152]
  00cd3	3b 51 30	 cmp	 edx, DWORD PTR [ecx+48]
  00cd6	7f 11		 jg	 SHORT $LN21@DW
  00cd8	8b 45 f8	 mov	 eax, DWORD PTR _lpObj$[ebp]
  00cdb	8b 4d fc	 mov	 ecx, DWORD PTR _this$[ebp]
  00cde	8b 90 78 04 00
	00		 mov	 edx, DWORD PTR [eax+1144]
  00ce4	3b 51 30	 cmp	 edx, DWORD PTR [ecx+48]
  00ce7	7e 3c		 jle	 SHORT $LN22@DW
$LN21@DW:

; 257  : 		{
; 258  : 			lpObj->m_AttackDamageMinRight = this->MaxDamageDW;

  00ce9	8b 45 f8	 mov	 eax, DWORD PTR _lpObj$[ebp]
  00cec	8b 4d fc	 mov	 ecx, DWORD PTR _this$[ebp]
  00cef	8b 51 30	 mov	 edx, DWORD PTR [ecx+48]
  00cf2	89 90 84 04 00
	00		 mov	 DWORD PTR [eax+1156], edx

; 259  : 			lpObj->m_AttackDamageMaxRight = this->MaxDamageDW;

  00cf8	8b 45 f8	 mov	 eax, DWORD PTR _lpObj$[ebp]
  00cfb	8b 4d fc	 mov	 ecx, DWORD PTR _this$[ebp]
  00cfe	8b 51 30	 mov	 edx, DWORD PTR [ecx+48]
  00d01	89 90 80 04 00
	00		 mov	 DWORD PTR [eax+1152], edx

; 260  : 			lpObj->m_AttackDamageMinLeft = this->MaxDamageDW;

  00d07	8b 45 f8	 mov	 eax, DWORD PTR _lpObj$[ebp]
  00d0a	8b 4d fc	 mov	 ecx, DWORD PTR _this$[ebp]
  00d0d	8b 51 30	 mov	 edx, DWORD PTR [ecx+48]
  00d10	89 90 7c 04 00
	00		 mov	 DWORD PTR [eax+1148], edx

; 261  : 			lpObj->m_AttackDamageMaxLeft = this->MaxDamageDW;

  00d16	8b 45 f8	 mov	 eax, DWORD PTR _lpObj$[ebp]
  00d19	8b 4d fc	 mov	 ecx, DWORD PTR _this$[ebp]
  00d1c	8b 51 30	 mov	 edx, DWORD PTR [ecx+48]
  00d1f	89 90 78 04 00
	00		 mov	 DWORD PTR [eax+1144], edx
$LN22@DW:

; 262  : 		}
; 263  : 	}
; 264  : 
; 265  : 	if(this->MaxDefenceDW != -1)

  00d25	8b 45 fc	 mov	 eax, DWORD PTR _this$[ebp]
  00d28	83 78 34 ff	 cmp	 DWORD PTR [eax+52], -1
  00d2c	74 20		 je	 SHORT $LN19@DW

; 266  : 	{
; 267  : 		if(lpObj->m_Defense > this->MaxDefenceDW)

  00d2e	8b 45 f8	 mov	 eax, DWORD PTR _lpObj$[ebp]
  00d31	8b 4d fc	 mov	 ecx, DWORD PTR _this$[ebp]
  00d34	8b 90 94 04 00
	00		 mov	 edx, DWORD PTR [eax+1172]
  00d3a	3b 51 34	 cmp	 edx, DWORD PTR [ecx+52]
  00d3d	7e 0f		 jle	 SHORT $LN19@DW

; 268  : 		{
; 269  : 			lpObj->m_Defense = this->MaxDefenceDW;

  00d3f	8b 45 f8	 mov	 eax, DWORD PTR _lpObj$[ebp]
  00d42	8b 4d fc	 mov	 ecx, DWORD PTR _this$[ebp]
  00d45	8b 51 34	 mov	 edx, DWORD PTR [ecx+52]
  00d48	89 90 94 04 00
	00		 mov	 DWORD PTR [eax+1172], edx
$LN19@DW:

; 270  : 		}
; 271  : 	}
; 272  : 
; 273  : 	if(this->MaxIgnoreDefenceRateDW != -1)

  00d4e	8b 45 fc	 mov	 eax, DWORD PTR _this$[ebp]
  00d51	83 78 38 ff	 cmp	 DWORD PTR [eax+56], -1
  00d55	74 21		 je	 SHORT $LN17@DW

; 274  : 	{
; 275  : 		if(lpObj->SetOpIgnoreDefense > this->MaxIgnoreDefenceRateDW)

  00d57	8b 45 f8	 mov	 eax, DWORD PTR _lpObj$[ebp]
  00d5a	0f b6 88 3e 11
	00 00		 movzx	 ecx, BYTE PTR [eax+4414]
  00d61	8b 55 fc	 mov	 edx, DWORD PTR _this$[ebp]
  00d64	3b 4a 38	 cmp	 ecx, DWORD PTR [edx+56]
  00d67	7e 0f		 jle	 SHORT $LN17@DW

; 276  : 		{
; 277  : 			lpObj->SetOpIgnoreDefense = this->MaxIgnoreDefenceRateDW;

  00d69	8b 45 f8	 mov	 eax, DWORD PTR _lpObj$[ebp]
  00d6c	8b 4d fc	 mov	 ecx, DWORD PTR _this$[ebp]
  00d6f	8a 51 38	 mov	 dl, BYTE PTR [ecx+56]
  00d72	88 90 3e 11 00
	00		 mov	 BYTE PTR [eax+4414], dl
$LN17@DW:

; 278  : 		}
; 279  : 	}
; 280  : 
; 281  : 	if(this->MaxCriticalDamageRateDW != -1)

  00d78	8b 45 fc	 mov	 eax, DWORD PTR _this$[ebp]
  00d7b	83 78 3c ff	 cmp	 DWORD PTR [eax+60], -1
  00d7f	74 20		 je	 SHORT $LN15@DW

; 282  : 	{
; 283  : 		if(lpObj->m_CriticalDamage > this->MaxCriticalDamageRateDW)

  00d81	8b 45 f8	 mov	 eax, DWORD PTR _lpObj$[ebp]
  00d84	8b 4d fc	 mov	 ecx, DWORD PTR _this$[ebp]
  00d87	8b 90 bc 04 00
	00		 mov	 edx, DWORD PTR [eax+1212]
  00d8d	3b 51 3c	 cmp	 edx, DWORD PTR [ecx+60]
  00d90	7e 0f		 jle	 SHORT $LN15@DW

; 284  : 		{
; 285  : 			lpObj->m_CriticalDamage = this->MaxCriticalDamageRateDW;

  00d92	8b 45 f8	 mov	 eax, DWORD PTR _lpObj$[ebp]
  00d95	8b 4d fc	 mov	 ecx, DWORD PTR _this$[ebp]
  00d98	8b 51 3c	 mov	 edx, DWORD PTR [ecx+60]
  00d9b	89 90 bc 04 00
	00		 mov	 DWORD PTR [eax+1212], edx
$LN15@DW:

; 286  : 		}
; 287  : 	}
; 288  : 
; 289  : 	if(this->MaxExellentDamageRateDW != -1)

  00da1	8b 45 fc	 mov	 eax, DWORD PTR _this$[ebp]
  00da4	83 78 40 ff	 cmp	 DWORD PTR [eax+64], -1
  00da8	74 20		 je	 SHORT $LN13@DW

; 290  : 	{
; 291  : 		if(lpObj->m_ExcelentDamage > this->MaxExellentDamageRateDW)

  00daa	8b 45 f8	 mov	 eax, DWORD PTR _lpObj$[ebp]
  00dad	8b 4d fc	 mov	 ecx, DWORD PTR _this$[ebp]
  00db0	8b 90 c0 04 00
	00		 mov	 edx, DWORD PTR [eax+1216]
  00db6	3b 51 40	 cmp	 edx, DWORD PTR [ecx+64]
  00db9	7e 0f		 jle	 SHORT $LN13@DW

; 292  : 		{
; 293  : 			lpObj->m_ExcelentDamage = this->MaxExellentDamageRateDW;

  00dbb	8b 45 f8	 mov	 eax, DWORD PTR _lpObj$[ebp]
  00dbe	8b 4d fc	 mov	 ecx, DWORD PTR _this$[ebp]
  00dc1	8b 51 40	 mov	 edx, DWORD PTR [ecx+64]
  00dc4	89 90 c0 04 00
	00		 mov	 DWORD PTR [eax+1216], edx
$LN13@DW:

; 294  : 		}
; 295  : 	}
; 296  : 
; 297  : 	if(this->MaxDoubleDamageRateDW != -1)

  00dca	8b 45 fc	 mov	 eax, DWORD PTR _this$[ebp]
  00dcd	83 78 44 ff	 cmp	 DWORD PTR [eax+68], -1
  00dd1	74 21		 je	 SHORT $LN11@DW

; 298  : 	{
; 299  : 		if(lpObj->SetOpDoubleDamage > this->MaxDoubleDamageRateDW)

  00dd3	8b 45 f8	 mov	 eax, DWORD PTR _lpObj$[ebp]
  00dd6	0f b6 88 3f 11
	00 00		 movzx	 ecx, BYTE PTR [eax+4415]
  00ddd	8b 55 fc	 mov	 edx, DWORD PTR _this$[ebp]
  00de0	3b 4a 44	 cmp	 ecx, DWORD PTR [edx+68]
  00de3	7e 0f		 jle	 SHORT $LN11@DW

; 300  : 		{
; 301  : 			lpObj->SetOpDoubleDamage = this->MaxDoubleDamageRateDW;

  00de5	8b 45 f8	 mov	 eax, DWORD PTR _lpObj$[ebp]
  00de8	8b 4d fc	 mov	 ecx, DWORD PTR _this$[ebp]
  00deb	8a 51 44	 mov	 dl, BYTE PTR [ecx+68]
  00dee	88 90 3f 11 00
	00		 mov	 BYTE PTR [eax+4415], dl
$LN11@DW:

; 302  : 		}
; 303  : 	}
; 304  : 
; 305  : 	if(this->MaxAbsordDamageRateDW != -1)

  00df4	8b 45 fc	 mov	 eax, DWORD PTR _this$[ebp]
  00df7	83 78 48 ff	 cmp	 DWORD PTR [eax+72], -1
  00dfb	74 21		 je	 SHORT $LN9@DW

; 306  : 	{
; 307  : 		if(lpObj->DamageMinus > this->MaxAbsordDamageRateDW)

  00dfd	8b 45 f8	 mov	 eax, DWORD PTR _lpObj$[ebp]
  00e00	0f b6 88 70 01
	00 00		 movzx	 ecx, BYTE PTR [eax+368]
  00e07	8b 55 fc	 mov	 edx, DWORD PTR _this$[ebp]
  00e0a	3b 4a 48	 cmp	 ecx, DWORD PTR [edx+72]
  00e0d	7e 0f		 jle	 SHORT $LN9@DW

; 308  : 		{
; 309  : 			lpObj->DamageMinus = this->MaxAbsordDamageRateDW;

  00e0f	8b 45 f8	 mov	 eax, DWORD PTR _lpObj$[ebp]
  00e12	8b 4d fc	 mov	 ecx, DWORD PTR _this$[ebp]
  00e15	8a 51 48	 mov	 dl, BYTE PTR [ecx+72]
  00e18	88 90 70 01 00
	00		 mov	 BYTE PTR [eax+368], dl
$LN9@DW:

; 310  : 		}
; 311  : 	}
; 312  : 
; 313  : 	if(this->MaxReflectDamageRateDW != -1)

  00e1e	8b 45 fc	 mov	 eax, DWORD PTR _this$[ebp]
  00e21	83 78 4c ff	 cmp	 DWORD PTR [eax+76], -1
  00e25	74 21		 je	 SHORT $LN7@DW

; 314  : 	{
; 315  : 		if(lpObj->DamageReflect > this->MaxReflectDamageRateDW)

  00e27	8b 45 f8	 mov	 eax, DWORD PTR _lpObj$[ebp]
  00e2a	0f b6 88 71 01
	00 00		 movzx	 ecx, BYTE PTR [eax+369]
  00e31	8b 55 fc	 mov	 edx, DWORD PTR _this$[ebp]
  00e34	3b 4a 4c	 cmp	 ecx, DWORD PTR [edx+76]
  00e37	7e 0f		 jle	 SHORT $LN7@DW

; 316  : 		{
; 317  : 			lpObj->DamageReflect = this->MaxReflectDamageRateDW;

  00e39	8b 45 f8	 mov	 eax, DWORD PTR _lpObj$[ebp]
  00e3c	8b 4d fc	 mov	 ecx, DWORD PTR _this$[ebp]
  00e3f	8a 51 4c	 mov	 dl, BYTE PTR [ecx+76]
  00e42	88 90 71 01 00
	00		 mov	 BYTE PTR [eax+369], dl
$LN7@DW:

; 318  : 		}
; 319  : 	}
; 320  : 
; 321  : 	if(this->MaxWizardDamageDW != -1)

  00e48	8b 45 fc	 mov	 eax, DWORD PTR _this$[ebp]
  00e4b	83 78 50 ff	 cmp	 DWORD PTR [eax+80], -1
  00e4f	74 2f		 je	 SHORT $LN5@DW

; 322  : 	{
; 323  : 		if(lpObj->m_MagicDamageMax > this->MaxWizardDamageDW)

  00e51	8b 45 f8	 mov	 eax, DWORD PTR _lpObj$[ebp]
  00e54	8b 4d fc	 mov	 ecx, DWORD PTR _this$[ebp]
  00e57	8b 90 6c 04 00
	00		 mov	 edx, DWORD PTR [eax+1132]
  00e5d	3b 51 50	 cmp	 edx, DWORD PTR [ecx+80]
  00e60	7e 1e		 jle	 SHORT $LN5@DW

; 324  : 		{
; 325  : 			lpObj->m_MagicDamageMax = this->MaxWizardDamageDW;

  00e62	8b 45 f8	 mov	 eax, DWORD PTR _lpObj$[ebp]
  00e65	8b 4d fc	 mov	 ecx, DWORD PTR _this$[ebp]
  00e68	8b 51 50	 mov	 edx, DWORD PTR [ecx+80]
  00e6b	89 90 6c 04 00
	00		 mov	 DWORD PTR [eax+1132], edx

; 326  : 			lpObj->m_MagicDamageMin = this->MaxWizardDamageDW;

  00e71	8b 45 f8	 mov	 eax, DWORD PTR _lpObj$[ebp]
  00e74	8b 4d fc	 mov	 ecx, DWORD PTR _this$[ebp]
  00e77	8b 51 50	 mov	 edx, DWORD PTR [ecx+80]
  00e7a	89 90 68 04 00
	00		 mov	 DWORD PTR [eax+1128], edx
$LN5@DW:

; 327  : 		}
; 328  : 	}
; 329  : 
; 330  : 	if(this->MaxLifeDW != -1)

  00e80	8b 45 fc	 mov	 eax, DWORD PTR _this$[ebp]
  00e83	83 78 54 ff	 cmp	 DWORD PTR [eax+84], -1
  00e87	74 27		 je	 SHORT $LN3@DW

; 331  : 	{
; 332  : 		if( lpObj->Life > this->MaxLifeDW)

  00e89	8b 45 fc	 mov	 eax, DWORD PTR _this$[ebp]
  00e8c	db 40 54	 fild	 DWORD PTR [eax+84]
  00e8f	8b 4d f8	 mov	 ecx, DWORD PTR _lpObj$[ebp]
  00e92	d9 81 fc 00 00
	00		 fld	 DWORD PTR [ecx+252]
  00e98	de d9		 fcompp
  00e9a	df e0		 fnstsw	 ax
  00e9c	f6 c4 41	 test	 ah, 65			; 00000041H
  00e9f	75 0f		 jne	 SHORT $LN3@DW

; 333  : 		{
; 334  : 			lpObj->Life = this->MaxLifeDW;

  00ea1	8b 45 fc	 mov	 eax, DWORD PTR _this$[ebp]
  00ea4	db 40 54	 fild	 DWORD PTR [eax+84]
  00ea7	8b 4d f8	 mov	 ecx, DWORD PTR _lpObj$[ebp]
  00eaa	d9 99 fc 00 00
	00		 fstp	 DWORD PTR [ecx+252]
$LN3@DW:

; 335  : 		}
; 336  : 	}
; 337  : 
; 338  : 	if(this->MaxSdDW != -1)

  00eb0	8b 45 fc	 mov	 eax, DWORD PTR _this$[ebp]
  00eb3	83 78 58 ff	 cmp	 DWORD PTR [eax+88], -1
  00eb7	74 20		 je	 SHORT $LN1@DW

; 339  : 	{
; 340  : 		if( lpObj->iShield > this->MaxSdDW)

  00eb9	8b 45 f8	 mov	 eax, DWORD PTR _lpObj$[ebp]
  00ebc	8b 4d fc	 mov	 ecx, DWORD PTR _this$[ebp]
  00ebf	8b 90 54 01 00
	00		 mov	 edx, DWORD PTR [eax+340]
  00ec5	3b 51 58	 cmp	 edx, DWORD PTR [ecx+88]
  00ec8	7e 0f		 jle	 SHORT $LN1@DW

; 341  : 		{
; 342  : 			lpObj->iShield = this->MaxSdDW;

  00eca	8b 45 f8	 mov	 eax, DWORD PTR _lpObj$[ebp]
  00ecd	8b 4d fc	 mov	 ecx, DWORD PTR _this$[ebp]
  00ed0	8b 51 58	 mov	 edx, DWORD PTR [ecx+88]
  00ed3	89 90 54 01 00
	00		 mov	 DWORD PTR [eax+340], edx
$LN1@DW:

; 343  : 		}
; 344  : 	}
; 345  : }

  00ed9	5f		 pop	 edi
  00eda	5e		 pop	 esi
  00edb	5b		 pop	 ebx
  00edc	8b e5		 mov	 esp, ebp
  00ede	5d		 pop	 ebp
  00edf	c2 04 00	 ret	 4
?DW@cMaxPower@@AAEXH@Z ENDP				; cMaxPower::DW
; Function compile flags: /Odtp /ZI
_lpObj$ = -8						; size = 4
_this$ = -4						; size = 4
_aIndex$ = 8						; size = 4
?Elf@cMaxPower@@AAEXH@Z PROC				; cMaxPower::Elf
; _this$ = ecx

; 348  : {

  00ef0	55		 push	 ebp
  00ef1	8b ec		 mov	 ebp, esp
  00ef3	83 ec 48	 sub	 esp, 72			; 00000048H
  00ef6	53		 push	 ebx
  00ef7	56		 push	 esi
  00ef8	57		 push	 edi
  00ef9	89 4d fc	 mov	 DWORD PTR _this$[ebp], ecx

; 349  : 	LPOBJ lpObj = &gObj[aIndex];

  00efc	8b 45 08	 mov	 eax, DWORD PTR _aIndex$[ebp]
  00eff	69 c0 38 2b 00
	00		 imul	 eax, 11064		; 00002b38H
  00f05	03 05 00 00 00
	00		 add	 eax, DWORD PTR ?gObj@@3PAUOBJECTSTRUCT@@A ; gObj
  00f0b	89 45 f8	 mov	 DWORD PTR _lpObj$[ebp], eax

; 350  : 
; 351  : 	if(this->MaxDamageElf != -1)

  00f0e	8b 45 fc	 mov	 eax, DWORD PTR _this$[ebp]
  00f11	83 78 5c ff	 cmp	 DWORD PTR [eax+92], -1
  00f15	74 5e		 je	 SHORT $LN22@Elf

; 352  : 	{
; 353  : 		if(lpObj->m_AttackDamageMaxRight > this->MaxDamageElf || lpObj->m_AttackDamageMaxLeft > this->MaxDamageElf)

  00f17	8b 45 f8	 mov	 eax, DWORD PTR _lpObj$[ebp]
  00f1a	8b 4d fc	 mov	 ecx, DWORD PTR _this$[ebp]
  00f1d	8b 90 80 04 00
	00		 mov	 edx, DWORD PTR [eax+1152]
  00f23	3b 51 5c	 cmp	 edx, DWORD PTR [ecx+92]
  00f26	7f 11		 jg	 SHORT $LN21@Elf
  00f28	8b 45 f8	 mov	 eax, DWORD PTR _lpObj$[ebp]
  00f2b	8b 4d fc	 mov	 ecx, DWORD PTR _this$[ebp]
  00f2e	8b 90 78 04 00
	00		 mov	 edx, DWORD PTR [eax+1144]
  00f34	3b 51 5c	 cmp	 edx, DWORD PTR [ecx+92]
  00f37	7e 3c		 jle	 SHORT $LN22@Elf
$LN21@Elf:

; 354  : 		{
; 355  : 			lpObj->m_AttackDamageMinRight = this->MaxDamageElf;

  00f39	8b 45 f8	 mov	 eax, DWORD PTR _lpObj$[ebp]
  00f3c	8b 4d fc	 mov	 ecx, DWORD PTR _this$[ebp]
  00f3f	8b 51 5c	 mov	 edx, DWORD PTR [ecx+92]
  00f42	89 90 84 04 00
	00		 mov	 DWORD PTR [eax+1156], edx

; 356  : 			lpObj->m_AttackDamageMaxRight = this->MaxDamageElf;

  00f48	8b 45 f8	 mov	 eax, DWORD PTR _lpObj$[ebp]
  00f4b	8b 4d fc	 mov	 ecx, DWORD PTR _this$[ebp]
  00f4e	8b 51 5c	 mov	 edx, DWORD PTR [ecx+92]
  00f51	89 90 80 04 00
	00		 mov	 DWORD PTR [eax+1152], edx

; 357  : 			lpObj->m_AttackDamageMinLeft = this->MaxDamageElf;

  00f57	8b 45 f8	 mov	 eax, DWORD PTR _lpObj$[ebp]
  00f5a	8b 4d fc	 mov	 ecx, DWORD PTR _this$[ebp]
  00f5d	8b 51 5c	 mov	 edx, DWORD PTR [ecx+92]
  00f60	89 90 7c 04 00
	00		 mov	 DWORD PTR [eax+1148], edx

; 358  : 			lpObj->m_AttackDamageMaxLeft = this->MaxDamageElf;

  00f66	8b 45 f8	 mov	 eax, DWORD PTR _lpObj$[ebp]
  00f69	8b 4d fc	 mov	 ecx, DWORD PTR _this$[ebp]
  00f6c	8b 51 5c	 mov	 edx, DWORD PTR [ecx+92]
  00f6f	89 90 78 04 00
	00		 mov	 DWORD PTR [eax+1144], edx
$LN22@Elf:

; 359  : 		}
; 360  : 	}
; 361  : 
; 362  : 	if(this->MaxDefenceElf != -1)

  00f75	8b 45 fc	 mov	 eax, DWORD PTR _this$[ebp]
  00f78	83 78 60 ff	 cmp	 DWORD PTR [eax+96], -1
  00f7c	74 20		 je	 SHORT $LN19@Elf

; 363  : 	{
; 364  : 		if(lpObj->m_Defense > this->MaxDefenceElf)

  00f7e	8b 45 f8	 mov	 eax, DWORD PTR _lpObj$[ebp]
  00f81	8b 4d fc	 mov	 ecx, DWORD PTR _this$[ebp]
  00f84	8b 90 94 04 00
	00		 mov	 edx, DWORD PTR [eax+1172]
  00f8a	3b 51 60	 cmp	 edx, DWORD PTR [ecx+96]
  00f8d	7e 0f		 jle	 SHORT $LN19@Elf

; 365  : 		{
; 366  : 			lpObj->m_Defense = this->MaxDefenceElf;

  00f8f	8b 45 f8	 mov	 eax, DWORD PTR _lpObj$[ebp]
  00f92	8b 4d fc	 mov	 ecx, DWORD PTR _this$[ebp]
  00f95	8b 51 60	 mov	 edx, DWORD PTR [ecx+96]
  00f98	89 90 94 04 00
	00		 mov	 DWORD PTR [eax+1172], edx
$LN19@Elf:

; 367  : 		}
; 368  : 	}
; 369  : 
; 370  : 	if(this->MaxIgnoreDefenceRateElf != -1)

  00f9e	8b 45 fc	 mov	 eax, DWORD PTR _this$[ebp]
  00fa1	83 78 64 ff	 cmp	 DWORD PTR [eax+100], -1
  00fa5	74 21		 je	 SHORT $LN17@Elf

; 371  : 	{
; 372  : 		if(lpObj->SetOpIgnoreDefense > this->MaxIgnoreDefenceRateElf)

  00fa7	8b 45 f8	 mov	 eax, DWORD PTR _lpObj$[ebp]
  00faa	0f b6 88 3e 11
	00 00		 movzx	 ecx, BYTE PTR [eax+4414]
  00fb1	8b 55 fc	 mov	 edx, DWORD PTR _this$[ebp]
  00fb4	3b 4a 64	 cmp	 ecx, DWORD PTR [edx+100]
  00fb7	7e 0f		 jle	 SHORT $LN17@Elf

; 373  : 		{
; 374  : 			lpObj->SetOpIgnoreDefense = this->MaxIgnoreDefenceRateElf;

  00fb9	8b 45 f8	 mov	 eax, DWORD PTR _lpObj$[ebp]
  00fbc	8b 4d fc	 mov	 ecx, DWORD PTR _this$[ebp]
  00fbf	8a 51 64	 mov	 dl, BYTE PTR [ecx+100]
  00fc2	88 90 3e 11 00
	00		 mov	 BYTE PTR [eax+4414], dl
$LN17@Elf:

; 375  : 		}
; 376  : 	}
; 377  : 
; 378  : 	if(this->MaxCriticalDamageRateElf != -1)

  00fc8	8b 45 fc	 mov	 eax, DWORD PTR _this$[ebp]
  00fcb	83 78 68 ff	 cmp	 DWORD PTR [eax+104], -1
  00fcf	74 20		 je	 SHORT $LN15@Elf

; 379  : 	{
; 380  : 		if(lpObj->m_CriticalDamage > this->MaxCriticalDamageRateElf)

  00fd1	8b 45 f8	 mov	 eax, DWORD PTR _lpObj$[ebp]
  00fd4	8b 4d fc	 mov	 ecx, DWORD PTR _this$[ebp]
  00fd7	8b 90 bc 04 00
	00		 mov	 edx, DWORD PTR [eax+1212]
  00fdd	3b 51 68	 cmp	 edx, DWORD PTR [ecx+104]
  00fe0	7e 0f		 jle	 SHORT $LN15@Elf

; 381  : 		{
; 382  : 			lpObj->m_CriticalDamage = this->MaxCriticalDamageRateElf;

  00fe2	8b 45 f8	 mov	 eax, DWORD PTR _lpObj$[ebp]
  00fe5	8b 4d fc	 mov	 ecx, DWORD PTR _this$[ebp]
  00fe8	8b 51 68	 mov	 edx, DWORD PTR [ecx+104]
  00feb	89 90 bc 04 00
	00		 mov	 DWORD PTR [eax+1212], edx
$LN15@Elf:

; 383  : 		}
; 384  : 	}
; 385  : 
; 386  : 	if(this->MaxExellentDamageRateElf != -1)

  00ff1	8b 45 fc	 mov	 eax, DWORD PTR _this$[ebp]
  00ff4	83 78 6c ff	 cmp	 DWORD PTR [eax+108], -1
  00ff8	74 20		 je	 SHORT $LN13@Elf

; 387  : 	{
; 388  : 		if(lpObj->m_ExcelentDamage > this->MaxExellentDamageRateElf)

  00ffa	8b 45 f8	 mov	 eax, DWORD PTR _lpObj$[ebp]
  00ffd	8b 4d fc	 mov	 ecx, DWORD PTR _this$[ebp]
  01000	8b 90 c0 04 00
	00		 mov	 edx, DWORD PTR [eax+1216]
  01006	3b 51 6c	 cmp	 edx, DWORD PTR [ecx+108]
  01009	7e 0f		 jle	 SHORT $LN13@Elf

; 389  : 		{
; 390  : 			lpObj->m_ExcelentDamage = this->MaxExellentDamageRateElf;

  0100b	8b 45 f8	 mov	 eax, DWORD PTR _lpObj$[ebp]
  0100e	8b 4d fc	 mov	 ecx, DWORD PTR _this$[ebp]
  01011	8b 51 6c	 mov	 edx, DWORD PTR [ecx+108]
  01014	89 90 c0 04 00
	00		 mov	 DWORD PTR [eax+1216], edx
$LN13@Elf:

; 391  : 		}
; 392  : 	}
; 393  : 
; 394  : 	if(this->MaxDoubleDamageRateElf != -1)

  0101a	8b 45 fc	 mov	 eax, DWORD PTR _this$[ebp]
  0101d	83 78 70 ff	 cmp	 DWORD PTR [eax+112], -1
  01021	74 21		 je	 SHORT $LN11@Elf

; 395  : 	{
; 396  : 		if(lpObj->SetOpDoubleDamage > this->MaxDoubleDamageRateElf)

  01023	8b 45 f8	 mov	 eax, DWORD PTR _lpObj$[ebp]
  01026	0f b6 88 3f 11
	00 00		 movzx	 ecx, BYTE PTR [eax+4415]
  0102d	8b 55 fc	 mov	 edx, DWORD PTR _this$[ebp]
  01030	3b 4a 70	 cmp	 ecx, DWORD PTR [edx+112]
  01033	7e 0f		 jle	 SHORT $LN11@Elf

; 397  : 		{
; 398  : 			lpObj->SetOpDoubleDamage = this->MaxDoubleDamageRateElf;

  01035	8b 45 f8	 mov	 eax, DWORD PTR _lpObj$[ebp]
  01038	8b 4d fc	 mov	 ecx, DWORD PTR _this$[ebp]
  0103b	8a 51 70	 mov	 dl, BYTE PTR [ecx+112]
  0103e	88 90 3f 11 00
	00		 mov	 BYTE PTR [eax+4415], dl
$LN11@Elf:

; 399  : 		}
; 400  : 	}
; 401  : 
; 402  : 	if(this->MaxAbsordDamageRateElf != -1)

  01044	8b 45 fc	 mov	 eax, DWORD PTR _this$[ebp]
  01047	83 78 74 ff	 cmp	 DWORD PTR [eax+116], -1
  0104b	74 21		 je	 SHORT $LN9@Elf

; 403  : 	{
; 404  : 		if(lpObj->DamageMinus > this->MaxAbsordDamageRateElf)

  0104d	8b 45 f8	 mov	 eax, DWORD PTR _lpObj$[ebp]
  01050	0f b6 88 70 01
	00 00		 movzx	 ecx, BYTE PTR [eax+368]
  01057	8b 55 fc	 mov	 edx, DWORD PTR _this$[ebp]
  0105a	3b 4a 74	 cmp	 ecx, DWORD PTR [edx+116]
  0105d	7e 0f		 jle	 SHORT $LN9@Elf

; 405  : 		{
; 406  : 			lpObj->DamageMinus = this->MaxAbsordDamageRateElf;

  0105f	8b 45 f8	 mov	 eax, DWORD PTR _lpObj$[ebp]
  01062	8b 4d fc	 mov	 ecx, DWORD PTR _this$[ebp]
  01065	8a 51 74	 mov	 dl, BYTE PTR [ecx+116]
  01068	88 90 70 01 00
	00		 mov	 BYTE PTR [eax+368], dl
$LN9@Elf:

; 407  : 		}
; 408  : 	}
; 409  : 
; 410  : 	if(this->MaxReflectDamageRateElf != -1)

  0106e	8b 45 fc	 mov	 eax, DWORD PTR _this$[ebp]
  01071	83 78 78 ff	 cmp	 DWORD PTR [eax+120], -1
  01075	74 21		 je	 SHORT $LN7@Elf

; 411  : 	{
; 412  : 		if(lpObj->DamageReflect > this->MaxReflectDamageRateElf)

  01077	8b 45 f8	 mov	 eax, DWORD PTR _lpObj$[ebp]
  0107a	0f b6 88 71 01
	00 00		 movzx	 ecx, BYTE PTR [eax+369]
  01081	8b 55 fc	 mov	 edx, DWORD PTR _this$[ebp]
  01084	3b 4a 78	 cmp	 ecx, DWORD PTR [edx+120]
  01087	7e 0f		 jle	 SHORT $LN7@Elf

; 413  : 		{
; 414  : 			lpObj->DamageReflect = this->MaxReflectDamageRateElf;

  01089	8b 45 f8	 mov	 eax, DWORD PTR _lpObj$[ebp]
  0108c	8b 4d fc	 mov	 ecx, DWORD PTR _this$[ebp]
  0108f	8a 51 78	 mov	 dl, BYTE PTR [ecx+120]
  01092	88 90 71 01 00
	00		 mov	 BYTE PTR [eax+369], dl
$LN7@Elf:

; 415  : 		}
; 416  : 	}
; 417  : 
; 418  : 	if(this->MaxWizardDamageElf != -1)

  01098	8b 45 fc	 mov	 eax, DWORD PTR _this$[ebp]
  0109b	83 78 7c ff	 cmp	 DWORD PTR [eax+124], -1
  0109f	74 2f		 je	 SHORT $LN5@Elf

; 419  : 	{
; 420  : 		if(lpObj->m_MagicDamageMax > this->MaxWizardDamageElf)

  010a1	8b 45 f8	 mov	 eax, DWORD PTR _lpObj$[ebp]
  010a4	8b 4d fc	 mov	 ecx, DWORD PTR _this$[ebp]
  010a7	8b 90 6c 04 00
	00		 mov	 edx, DWORD PTR [eax+1132]
  010ad	3b 51 7c	 cmp	 edx, DWORD PTR [ecx+124]
  010b0	7e 1e		 jle	 SHORT $LN5@Elf

; 421  : 		{
; 422  : 			lpObj->m_MagicDamageMax = this->MaxWizardDamageElf;

  010b2	8b 45 f8	 mov	 eax, DWORD PTR _lpObj$[ebp]
  010b5	8b 4d fc	 mov	 ecx, DWORD PTR _this$[ebp]
  010b8	8b 51 7c	 mov	 edx, DWORD PTR [ecx+124]
  010bb	89 90 6c 04 00
	00		 mov	 DWORD PTR [eax+1132], edx

; 423  : 			lpObj->m_MagicDamageMin = this->MaxWizardDamageElf;

  010c1	8b 45 f8	 mov	 eax, DWORD PTR _lpObj$[ebp]
  010c4	8b 4d fc	 mov	 ecx, DWORD PTR _this$[ebp]
  010c7	8b 51 7c	 mov	 edx, DWORD PTR [ecx+124]
  010ca	89 90 68 04 00
	00		 mov	 DWORD PTR [eax+1128], edx
$LN5@Elf:

; 424  : 		}
; 425  : 	}
; 426  : 
; 427  : 	if(this->MaxLifeElf != -1)

  010d0	8b 45 fc	 mov	 eax, DWORD PTR _this$[ebp]
  010d3	83 b8 80 00 00
	00 ff		 cmp	 DWORD PTR [eax+128], -1
  010da	74 2d		 je	 SHORT $LN3@Elf

; 428  : 	{
; 429  : 		if( lpObj->Life > this->MaxLifeElf)

  010dc	8b 45 fc	 mov	 eax, DWORD PTR _this$[ebp]
  010df	db 80 80 00 00
	00		 fild	 DWORD PTR [eax+128]
  010e5	8b 4d f8	 mov	 ecx, DWORD PTR _lpObj$[ebp]
  010e8	d9 81 fc 00 00
	00		 fld	 DWORD PTR [ecx+252]
  010ee	de d9		 fcompp
  010f0	df e0		 fnstsw	 ax
  010f2	f6 c4 41	 test	 ah, 65			; 00000041H
  010f5	75 12		 jne	 SHORT $LN3@Elf

; 430  : 		{
; 431  : 			lpObj->Life = this->MaxLifeElf;

  010f7	8b 45 fc	 mov	 eax, DWORD PTR _this$[ebp]
  010fa	db 80 80 00 00
	00		 fild	 DWORD PTR [eax+128]
  01100	8b 4d f8	 mov	 ecx, DWORD PTR _lpObj$[ebp]
  01103	d9 99 fc 00 00
	00		 fstp	 DWORD PTR [ecx+252]
$LN3@Elf:

; 432  : 		}
; 433  : 	}
; 434  : 
; 435  : 	if(this->MaxSdElf != -1)

  01109	8b 45 fc	 mov	 eax, DWORD PTR _this$[ebp]
  0110c	83 b8 84 00 00
	00 ff		 cmp	 DWORD PTR [eax+132], -1
  01113	74 26		 je	 SHORT $LN1@Elf

; 436  : 	{
; 437  : 		if( lpObj->iShield > this->MaxSdElf)

  01115	8b 45 f8	 mov	 eax, DWORD PTR _lpObj$[ebp]
  01118	8b 4d fc	 mov	 ecx, DWORD PTR _this$[ebp]
  0111b	8b 90 54 01 00
	00		 mov	 edx, DWORD PTR [eax+340]
  01121	3b 91 84 00 00
	00		 cmp	 edx, DWORD PTR [ecx+132]
  01127	7e 12		 jle	 SHORT $LN1@Elf

; 438  : 		{
; 439  : 			lpObj->iShield = this->MaxSdElf;

  01129	8b 45 f8	 mov	 eax, DWORD PTR _lpObj$[ebp]
  0112c	8b 4d fc	 mov	 ecx, DWORD PTR _this$[ebp]
  0112f	8b 91 84 00 00
	00		 mov	 edx, DWORD PTR [ecx+132]
  01135	89 90 54 01 00
	00		 mov	 DWORD PTR [eax+340], edx
$LN1@Elf:

; 440  : 		}
; 441  : 	}
; 442  : }

  0113b	5f		 pop	 edi
  0113c	5e		 pop	 esi
  0113d	5b		 pop	 ebx
  0113e	8b e5		 mov	 esp, ebp
  01140	5d		 pop	 ebp
  01141	c2 04 00	 ret	 4
?Elf@cMaxPower@@AAEXH@Z ENDP				; cMaxPower::Elf
; Function compile flags: /Odtp /ZI
_lpObj$ = -8						; size = 4
_this$ = -4						; size = 4
_aIndex$ = 8						; size = 4
?MG@cMaxPower@@AAEXH@Z PROC				; cMaxPower::MG
; _this$ = ecx

; 445  : {

  01150	55		 push	 ebp
  01151	8b ec		 mov	 ebp, esp
  01153	83 ec 48	 sub	 esp, 72			; 00000048H
  01156	53		 push	 ebx
  01157	56		 push	 esi
  01158	57		 push	 edi
  01159	89 4d fc	 mov	 DWORD PTR _this$[ebp], ecx

; 446  : 	LPOBJ lpObj = &gObj[aIndex];

  0115c	8b 45 08	 mov	 eax, DWORD PTR _aIndex$[ebp]
  0115f	69 c0 38 2b 00
	00		 imul	 eax, 11064		; 00002b38H
  01165	03 05 00 00 00
	00		 add	 eax, DWORD PTR ?gObj@@3PAUOBJECTSTRUCT@@A ; gObj
  0116b	89 45 f8	 mov	 DWORD PTR _lpObj$[ebp], eax

; 447  : 
; 448  : 	if(this->MaxDamageMG != -1)

  0116e	8b 45 fc	 mov	 eax, DWORD PTR _this$[ebp]
  01171	83 b8 88 00 00
	00 ff		 cmp	 DWORD PTR [eax+136], -1
  01178	74 70		 je	 SHORT $LN22@MG

; 449  : 	{
; 450  : 		if(lpObj->m_AttackDamageMaxRight > this->MaxDamageMG || lpObj->m_AttackDamageMaxLeft > this->MaxDamageMG)

  0117a	8b 45 f8	 mov	 eax, DWORD PTR _lpObj$[ebp]
  0117d	8b 4d fc	 mov	 ecx, DWORD PTR _this$[ebp]
  01180	8b 90 80 04 00
	00		 mov	 edx, DWORD PTR [eax+1152]
  01186	3b 91 88 00 00
	00		 cmp	 edx, DWORD PTR [ecx+136]
  0118c	7f 14		 jg	 SHORT $LN21@MG
  0118e	8b 45 f8	 mov	 eax, DWORD PTR _lpObj$[ebp]
  01191	8b 4d fc	 mov	 ecx, DWORD PTR _this$[ebp]
  01194	8b 90 78 04 00
	00		 mov	 edx, DWORD PTR [eax+1144]
  0119a	3b 91 88 00 00
	00		 cmp	 edx, DWORD PTR [ecx+136]
  011a0	7e 48		 jle	 SHORT $LN22@MG
$LN21@MG:

; 451  : 		{
; 452  : 			lpObj->m_AttackDamageMinRight = this->MaxDamageMG;

  011a2	8b 45 f8	 mov	 eax, DWORD PTR _lpObj$[ebp]
  011a5	8b 4d fc	 mov	 ecx, DWORD PTR _this$[ebp]
  011a8	8b 91 88 00 00
	00		 mov	 edx, DWORD PTR [ecx+136]
  011ae	89 90 84 04 00
	00		 mov	 DWORD PTR [eax+1156], edx

; 453  : 			lpObj->m_AttackDamageMaxRight = this->MaxDamageMG;

  011b4	8b 45 f8	 mov	 eax, DWORD PTR _lpObj$[ebp]
  011b7	8b 4d fc	 mov	 ecx, DWORD PTR _this$[ebp]
  011ba	8b 91 88 00 00
	00		 mov	 edx, DWORD PTR [ecx+136]
  011c0	89 90 80 04 00
	00		 mov	 DWORD PTR [eax+1152], edx

; 454  : 			lpObj->m_AttackDamageMinLeft = this->MaxDamageMG;

  011c6	8b 45 f8	 mov	 eax, DWORD PTR _lpObj$[ebp]
  011c9	8b 4d fc	 mov	 ecx, DWORD PTR _this$[ebp]
  011cc	8b 91 88 00 00
	00		 mov	 edx, DWORD PTR [ecx+136]
  011d2	89 90 7c 04 00
	00		 mov	 DWORD PTR [eax+1148], edx

; 455  : 			lpObj->m_AttackDamageMaxLeft = this->MaxDamageMG;

  011d8	8b 45 f8	 mov	 eax, DWORD PTR _lpObj$[ebp]
  011db	8b 4d fc	 mov	 ecx, DWORD PTR _this$[ebp]
  011de	8b 91 88 00 00
	00		 mov	 edx, DWORD PTR [ecx+136]
  011e4	89 90 78 04 00
	00		 mov	 DWORD PTR [eax+1144], edx
$LN22@MG:

; 456  : 		}
; 457  : 	}
; 458  : 
; 459  : 	if(this->MaxDefenceMG != -1)

  011ea	8b 45 fc	 mov	 eax, DWORD PTR _this$[ebp]
  011ed	83 b8 8c 00 00
	00 ff		 cmp	 DWORD PTR [eax+140], -1
  011f4	74 26		 je	 SHORT $LN19@MG

; 460  : 	{
; 461  : 		if(lpObj->m_Defense > this->MaxDefenceMG)

  011f6	8b 45 f8	 mov	 eax, DWORD PTR _lpObj$[ebp]
  011f9	8b 4d fc	 mov	 ecx, DWORD PTR _this$[ebp]
  011fc	8b 90 94 04 00
	00		 mov	 edx, DWORD PTR [eax+1172]
  01202	3b 91 8c 00 00
	00		 cmp	 edx, DWORD PTR [ecx+140]
  01208	7e 12		 jle	 SHORT $LN19@MG

; 462  : 		{
; 463  : 			lpObj->m_Defense = this->MaxDefenceMG;

  0120a	8b 45 f8	 mov	 eax, DWORD PTR _lpObj$[ebp]
  0120d	8b 4d fc	 mov	 ecx, DWORD PTR _this$[ebp]
  01210	8b 91 8c 00 00
	00		 mov	 edx, DWORD PTR [ecx+140]
  01216	89 90 94 04 00
	00		 mov	 DWORD PTR [eax+1172], edx
$LN19@MG:

; 464  : 		}
; 465  : 	}
; 466  : 
; 467  : 	if(this->MaxIgnoreDefenceRateMG != -1)

  0121c	8b 45 fc	 mov	 eax, DWORD PTR _this$[ebp]
  0121f	83 b8 90 00 00
	00 ff		 cmp	 DWORD PTR [eax+144], -1
  01226	74 27		 je	 SHORT $LN17@MG

; 468  : 	{
; 469  : 		if(lpObj->SetOpIgnoreDefense > this->MaxIgnoreDefenceRateMG)

  01228	8b 45 f8	 mov	 eax, DWORD PTR _lpObj$[ebp]
  0122b	0f b6 88 3e 11
	00 00		 movzx	 ecx, BYTE PTR [eax+4414]
  01232	8b 55 fc	 mov	 edx, DWORD PTR _this$[ebp]
  01235	3b 8a 90 00 00
	00		 cmp	 ecx, DWORD PTR [edx+144]
  0123b	7e 12		 jle	 SHORT $LN17@MG

; 470  : 		{
; 471  : 			lpObj->SetOpIgnoreDefense = this->MaxIgnoreDefenceRateMG;

  0123d	8b 45 f8	 mov	 eax, DWORD PTR _lpObj$[ebp]
  01240	8b 4d fc	 mov	 ecx, DWORD PTR _this$[ebp]
  01243	8a 91 90 00 00
	00		 mov	 dl, BYTE PTR [ecx+144]
  01249	88 90 3e 11 00
	00		 mov	 BYTE PTR [eax+4414], dl
$LN17@MG:

; 472  : 		}
; 473  : 	}
; 474  : 
; 475  : 	if(this->MaxCriticalDamageRateMG != -1)

  0124f	8b 45 fc	 mov	 eax, DWORD PTR _this$[ebp]
  01252	83 b8 94 00 00
	00 ff		 cmp	 DWORD PTR [eax+148], -1
  01259	74 26		 je	 SHORT $LN15@MG

; 476  : 	{
; 477  : 		if(lpObj->m_CriticalDamage > this->MaxCriticalDamageRateMG)

  0125b	8b 45 f8	 mov	 eax, DWORD PTR _lpObj$[ebp]
  0125e	8b 4d fc	 mov	 ecx, DWORD PTR _this$[ebp]
  01261	8b 90 bc 04 00
	00		 mov	 edx, DWORD PTR [eax+1212]
  01267	3b 91 94 00 00
	00		 cmp	 edx, DWORD PTR [ecx+148]
  0126d	7e 12		 jle	 SHORT $LN15@MG

; 478  : 		{
; 479  : 			lpObj->m_CriticalDamage = this->MaxCriticalDamageRateMG;

  0126f	8b 45 f8	 mov	 eax, DWORD PTR _lpObj$[ebp]
  01272	8b 4d fc	 mov	 ecx, DWORD PTR _this$[ebp]
  01275	8b 91 94 00 00
	00		 mov	 edx, DWORD PTR [ecx+148]
  0127b	89 90 bc 04 00
	00		 mov	 DWORD PTR [eax+1212], edx
$LN15@MG:

; 480  : 		}
; 481  : 	}
; 482  : 
; 483  : 	if(this->MaxExellentDamageRateMG != -1)

  01281	8b 45 fc	 mov	 eax, DWORD PTR _this$[ebp]
  01284	83 b8 98 00 00
	00 ff		 cmp	 DWORD PTR [eax+152], -1
  0128b	74 26		 je	 SHORT $LN13@MG

; 484  : 	{
; 485  : 		if(lpObj->m_ExcelentDamage > this->MaxExellentDamageRateMG)

  0128d	8b 45 f8	 mov	 eax, DWORD PTR _lpObj$[ebp]
  01290	8b 4d fc	 mov	 ecx, DWORD PTR _this$[ebp]
  01293	8b 90 c0 04 00
	00		 mov	 edx, DWORD PTR [eax+1216]
  01299	3b 91 98 00 00
	00		 cmp	 edx, DWORD PTR [ecx+152]
  0129f	7e 12		 jle	 SHORT $LN13@MG

; 486  : 		{
; 487  : 			lpObj->m_ExcelentDamage = this->MaxExellentDamageRateMG;

  012a1	8b 45 f8	 mov	 eax, DWORD PTR _lpObj$[ebp]
  012a4	8b 4d fc	 mov	 ecx, DWORD PTR _this$[ebp]
  012a7	8b 91 98 00 00
	00		 mov	 edx, DWORD PTR [ecx+152]
  012ad	89 90 c0 04 00
	00		 mov	 DWORD PTR [eax+1216], edx
$LN13@MG:

; 488  : 		}
; 489  : 	}
; 490  : 
; 491  : 	if(this->MaxDoubleDamageRateMG != -1)

  012b3	8b 45 fc	 mov	 eax, DWORD PTR _this$[ebp]
  012b6	83 b8 9c 00 00
	00 ff		 cmp	 DWORD PTR [eax+156], -1
  012bd	74 27		 je	 SHORT $LN11@MG

; 492  : 	{
; 493  : 		if(lpObj->SetOpDoubleDamage > this->MaxDoubleDamageRateMG)

  012bf	8b 45 f8	 mov	 eax, DWORD PTR _lpObj$[ebp]
  012c2	0f b6 88 3f 11
	00 00		 movzx	 ecx, BYTE PTR [eax+4415]
  012c9	8b 55 fc	 mov	 edx, DWORD PTR _this$[ebp]
  012cc	3b 8a 9c 00 00
	00		 cmp	 ecx, DWORD PTR [edx+156]
  012d2	7e 12		 jle	 SHORT $LN11@MG

; 494  : 		{
; 495  : 			lpObj->SetOpDoubleDamage = this->MaxDoubleDamageRateMG;

  012d4	8b 45 f8	 mov	 eax, DWORD PTR _lpObj$[ebp]
  012d7	8b 4d fc	 mov	 ecx, DWORD PTR _this$[ebp]
  012da	8a 91 9c 00 00
	00		 mov	 dl, BYTE PTR [ecx+156]
  012e0	88 90 3f 11 00
	00		 mov	 BYTE PTR [eax+4415], dl
$LN11@MG:

; 496  : 		}
; 497  : 	}
; 498  : 
; 499  : 	if(this->MaxAbsordDamageRateMG != -1)

  012e6	8b 45 fc	 mov	 eax, DWORD PTR _this$[ebp]
  012e9	83 b8 a0 00 00
	00 ff		 cmp	 DWORD PTR [eax+160], -1
  012f0	74 27		 je	 SHORT $LN9@MG

; 500  : 	{
; 501  : 		if(lpObj->DamageMinus > this->MaxAbsordDamageRateMG)

  012f2	8b 45 f8	 mov	 eax, DWORD PTR _lpObj$[ebp]
  012f5	0f b6 88 70 01
	00 00		 movzx	 ecx, BYTE PTR [eax+368]
  012fc	8b 55 fc	 mov	 edx, DWORD PTR _this$[ebp]
  012ff	3b 8a a0 00 00
	00		 cmp	 ecx, DWORD PTR [edx+160]
  01305	7e 12		 jle	 SHORT $LN9@MG

; 502  : 		{
; 503  : 			lpObj->DamageMinus = this->MaxAbsordDamageRateMG;

  01307	8b 45 f8	 mov	 eax, DWORD PTR _lpObj$[ebp]
  0130a	8b 4d fc	 mov	 ecx, DWORD PTR _this$[ebp]
  0130d	8a 91 a0 00 00
	00		 mov	 dl, BYTE PTR [ecx+160]
  01313	88 90 70 01 00
	00		 mov	 BYTE PTR [eax+368], dl
$LN9@MG:

; 504  : 		}
; 505  : 	}
; 506  : 
; 507  : 	if(this->MaxReflectDamageRateMG != -1)

  01319	8b 45 fc	 mov	 eax, DWORD PTR _this$[ebp]
  0131c	83 b8 a4 00 00
	00 ff		 cmp	 DWORD PTR [eax+164], -1
  01323	74 27		 je	 SHORT $LN7@MG

; 508  : 	{
; 509  : 		if(lpObj->DamageReflect > this->MaxReflectDamageRateMG)

  01325	8b 45 f8	 mov	 eax, DWORD PTR _lpObj$[ebp]
  01328	0f b6 88 71 01
	00 00		 movzx	 ecx, BYTE PTR [eax+369]
  0132f	8b 55 fc	 mov	 edx, DWORD PTR _this$[ebp]
  01332	3b 8a a4 00 00
	00		 cmp	 ecx, DWORD PTR [edx+164]
  01338	7e 12		 jle	 SHORT $LN7@MG

; 510  : 		{
; 511  : 			lpObj->DamageReflect = this->MaxReflectDamageRateMG;

  0133a	8b 45 f8	 mov	 eax, DWORD PTR _lpObj$[ebp]
  0133d	8b 4d fc	 mov	 ecx, DWORD PTR _this$[ebp]
  01340	8a 91 a4 00 00
	00		 mov	 dl, BYTE PTR [ecx+164]
  01346	88 90 71 01 00
	00		 mov	 BYTE PTR [eax+369], dl
$LN7@MG:

; 512  : 		}
; 513  : 	}
; 514  : 
; 515  : 	if(this->MaxWizardDamageMG != -1)

  0134c	8b 45 fc	 mov	 eax, DWORD PTR _this$[ebp]
  0134f	83 b8 a8 00 00
	00 ff		 cmp	 DWORD PTR [eax+168], -1
  01356	74 38		 je	 SHORT $LN5@MG

; 516  : 	{
; 517  : 		if(lpObj->m_MagicDamageMax > this->MaxWizardDamageMG)

  01358	8b 45 f8	 mov	 eax, DWORD PTR _lpObj$[ebp]
  0135b	8b 4d fc	 mov	 ecx, DWORD PTR _this$[ebp]
  0135e	8b 90 6c 04 00
	00		 mov	 edx, DWORD PTR [eax+1132]
  01364	3b 91 a8 00 00
	00		 cmp	 edx, DWORD PTR [ecx+168]
  0136a	7e 24		 jle	 SHORT $LN5@MG

; 518  : 		{
; 519  : 			lpObj->m_MagicDamageMax = this->MaxWizardDamageMG;

  0136c	8b 45 f8	 mov	 eax, DWORD PTR _lpObj$[ebp]
  0136f	8b 4d fc	 mov	 ecx, DWORD PTR _this$[ebp]
  01372	8b 91 a8 00 00
	00		 mov	 edx, DWORD PTR [ecx+168]
  01378	89 90 6c 04 00
	00		 mov	 DWORD PTR [eax+1132], edx

; 520  : 			lpObj->m_MagicDamageMin = this->MaxWizardDamageMG;

  0137e	8b 45 f8	 mov	 eax, DWORD PTR _lpObj$[ebp]
  01381	8b 4d fc	 mov	 ecx, DWORD PTR _this$[ebp]
  01384	8b 91 a8 00 00
	00		 mov	 edx, DWORD PTR [ecx+168]
  0138a	89 90 68 04 00
	00		 mov	 DWORD PTR [eax+1128], edx
$LN5@MG:

; 521  : 		}
; 522  : 	}
; 523  : 
; 524  : 	if(this->MaxLifeMG != -1)

  01390	8b 45 fc	 mov	 eax, DWORD PTR _this$[ebp]
  01393	83 b8 ac 00 00
	00 ff		 cmp	 DWORD PTR [eax+172], -1
  0139a	74 2d		 je	 SHORT $LN3@MG

; 525  : 	{
; 526  : 		if( lpObj->Life > this->MaxLifeMG)

  0139c	8b 45 fc	 mov	 eax, DWORD PTR _this$[ebp]
  0139f	db 80 ac 00 00
	00		 fild	 DWORD PTR [eax+172]
  013a5	8b 4d f8	 mov	 ecx, DWORD PTR _lpObj$[ebp]
  013a8	d9 81 fc 00 00
	00		 fld	 DWORD PTR [ecx+252]
  013ae	de d9		 fcompp
  013b0	df e0		 fnstsw	 ax
  013b2	f6 c4 41	 test	 ah, 65			; 00000041H
  013b5	75 12		 jne	 SHORT $LN3@MG

; 527  : 		{
; 528  : 			lpObj->Life = this->MaxLifeMG;

  013b7	8b 45 fc	 mov	 eax, DWORD PTR _this$[ebp]
  013ba	db 80 ac 00 00
	00		 fild	 DWORD PTR [eax+172]
  013c0	8b 4d f8	 mov	 ecx, DWORD PTR _lpObj$[ebp]
  013c3	d9 99 fc 00 00
	00		 fstp	 DWORD PTR [ecx+252]
$LN3@MG:

; 529  : 		}
; 530  : 	}
; 531  : 
; 532  : 	if(this->MaxSdMG != -1)

  013c9	8b 45 fc	 mov	 eax, DWORD PTR _this$[ebp]
  013cc	83 b8 b0 00 00
	00 ff		 cmp	 DWORD PTR [eax+176], -1
  013d3	74 26		 je	 SHORT $LN1@MG

; 533  : 	{
; 534  : 		if( lpObj->iShield > this->MaxSdMG)

  013d5	8b 45 f8	 mov	 eax, DWORD PTR _lpObj$[ebp]
  013d8	8b 4d fc	 mov	 ecx, DWORD PTR _this$[ebp]
  013db	8b 90 54 01 00
	00		 mov	 edx, DWORD PTR [eax+340]
  013e1	3b 91 b0 00 00
	00		 cmp	 edx, DWORD PTR [ecx+176]
  013e7	7e 12		 jle	 SHORT $LN1@MG

; 535  : 		{
; 536  : 			lpObj->iShield = this->MaxSdMG;

  013e9	8b 45 f8	 mov	 eax, DWORD PTR _lpObj$[ebp]
  013ec	8b 4d fc	 mov	 ecx, DWORD PTR _this$[ebp]
  013ef	8b 91 b0 00 00
	00		 mov	 edx, DWORD PTR [ecx+176]
  013f5	89 90 54 01 00
	00		 mov	 DWORD PTR [eax+340], edx
$LN1@MG:

; 537  : 		}
; 538  : 	}
; 539  : }

  013fb	5f		 pop	 edi
  013fc	5e		 pop	 esi
  013fd	5b		 pop	 ebx
  013fe	8b e5		 mov	 esp, ebp
  01400	5d		 pop	 ebp
  01401	c2 04 00	 ret	 4
?MG@cMaxPower@@AAEXH@Z ENDP				; cMaxPower::MG
; Function compile flags: /Odtp /ZI
_lpObj$ = -8						; size = 4
_this$ = -4						; size = 4
_aIndex$ = 8						; size = 4
?DL@cMaxPower@@AAEXH@Z PROC				; cMaxPower::DL
; _this$ = ecx

; 542  : {

  01410	55		 push	 ebp
  01411	8b ec		 mov	 ebp, esp
  01413	83 ec 48	 sub	 esp, 72			; 00000048H
  01416	53		 push	 ebx
  01417	56		 push	 esi
  01418	57		 push	 edi
  01419	89 4d fc	 mov	 DWORD PTR _this$[ebp], ecx

; 543  : 	LPOBJ lpObj = &gObj[aIndex];

  0141c	8b 45 08	 mov	 eax, DWORD PTR _aIndex$[ebp]
  0141f	69 c0 38 2b 00
	00		 imul	 eax, 11064		; 00002b38H
  01425	03 05 00 00 00
	00		 add	 eax, DWORD PTR ?gObj@@3PAUOBJECTSTRUCT@@A ; gObj
  0142b	89 45 f8	 mov	 DWORD PTR _lpObj$[ebp], eax

; 544  : 
; 545  : 	if(this->MaxDamageDL != -1)

  0142e	8b 45 fc	 mov	 eax, DWORD PTR _this$[ebp]
  01431	83 b8 b4 00 00
	00 ff		 cmp	 DWORD PTR [eax+180], -1
  01438	74 70		 je	 SHORT $LN22@DL

; 546  : 	{
; 547  : 		if(lpObj->m_AttackDamageMaxRight > this->MaxDamageDL || lpObj->m_AttackDamageMaxLeft > this->MaxDamageDL)

  0143a	8b 45 f8	 mov	 eax, DWORD PTR _lpObj$[ebp]
  0143d	8b 4d fc	 mov	 ecx, DWORD PTR _this$[ebp]
  01440	8b 90 80 04 00
	00		 mov	 edx, DWORD PTR [eax+1152]
  01446	3b 91 b4 00 00
	00		 cmp	 edx, DWORD PTR [ecx+180]
  0144c	7f 14		 jg	 SHORT $LN21@DL
  0144e	8b 45 f8	 mov	 eax, DWORD PTR _lpObj$[ebp]
  01451	8b 4d fc	 mov	 ecx, DWORD PTR _this$[ebp]
  01454	8b 90 78 04 00
	00		 mov	 edx, DWORD PTR [eax+1144]
  0145a	3b 91 b4 00 00
	00		 cmp	 edx, DWORD PTR [ecx+180]
  01460	7e 48		 jle	 SHORT $LN22@DL
$LN21@DL:

; 548  : 		{
; 549  : 			lpObj->m_AttackDamageMinRight = this->MaxDamageDL;

  01462	8b 45 f8	 mov	 eax, DWORD PTR _lpObj$[ebp]
  01465	8b 4d fc	 mov	 ecx, DWORD PTR _this$[ebp]
  01468	8b 91 b4 00 00
	00		 mov	 edx, DWORD PTR [ecx+180]
  0146e	89 90 84 04 00
	00		 mov	 DWORD PTR [eax+1156], edx

; 550  : 			lpObj->m_AttackDamageMaxRight = this->MaxDamageDL;

  01474	8b 45 f8	 mov	 eax, DWORD PTR _lpObj$[ebp]
  01477	8b 4d fc	 mov	 ecx, DWORD PTR _this$[ebp]
  0147a	8b 91 b4 00 00
	00		 mov	 edx, DWORD PTR [ecx+180]
  01480	89 90 80 04 00
	00		 mov	 DWORD PTR [eax+1152], edx

; 551  : 			lpObj->m_AttackDamageMinLeft = this->MaxDamageDL;

  01486	8b 45 f8	 mov	 eax, DWORD PTR _lpObj$[ebp]
  01489	8b 4d fc	 mov	 ecx, DWORD PTR _this$[ebp]
  0148c	8b 91 b4 00 00
	00		 mov	 edx, DWORD PTR [ecx+180]
  01492	89 90 7c 04 00
	00		 mov	 DWORD PTR [eax+1148], edx

; 552  : 			lpObj->m_AttackDamageMaxLeft = this->MaxDamageDL;

  01498	8b 45 f8	 mov	 eax, DWORD PTR _lpObj$[ebp]
  0149b	8b 4d fc	 mov	 ecx, DWORD PTR _this$[ebp]
  0149e	8b 91 b4 00 00
	00		 mov	 edx, DWORD PTR [ecx+180]
  014a4	89 90 78 04 00
	00		 mov	 DWORD PTR [eax+1144], edx
$LN22@DL:

; 553  : 		}
; 554  : 	}
; 555  : 
; 556  : 	if(this->MaxDefenceDL != -1)

  014aa	8b 45 fc	 mov	 eax, DWORD PTR _this$[ebp]
  014ad	83 b8 b8 00 00
	00 ff		 cmp	 DWORD PTR [eax+184], -1
  014b4	74 26		 je	 SHORT $LN19@DL

; 557  : 	{
; 558  : 		if(lpObj->m_Defense > this->MaxDefenceDL)

  014b6	8b 45 f8	 mov	 eax, DWORD PTR _lpObj$[ebp]
  014b9	8b 4d fc	 mov	 ecx, DWORD PTR _this$[ebp]
  014bc	8b 90 94 04 00
	00		 mov	 edx, DWORD PTR [eax+1172]
  014c2	3b 91 b8 00 00
	00		 cmp	 edx, DWORD PTR [ecx+184]
  014c8	7e 12		 jle	 SHORT $LN19@DL

; 559  : 		{
; 560  : 			lpObj->m_Defense = this->MaxDefenceDL;

  014ca	8b 45 f8	 mov	 eax, DWORD PTR _lpObj$[ebp]
  014cd	8b 4d fc	 mov	 ecx, DWORD PTR _this$[ebp]
  014d0	8b 91 b8 00 00
	00		 mov	 edx, DWORD PTR [ecx+184]
  014d6	89 90 94 04 00
	00		 mov	 DWORD PTR [eax+1172], edx
$LN19@DL:

; 561  : 		}
; 562  : 	}
; 563  : 
; 564  : 	if(this->MaxIgnoreDefenceRateDL != -1)

  014dc	8b 45 fc	 mov	 eax, DWORD PTR _this$[ebp]
  014df	83 b8 bc 00 00
	00 ff		 cmp	 DWORD PTR [eax+188], -1
  014e6	74 27		 je	 SHORT $LN17@DL

; 565  : 	{
; 566  : 		if(lpObj->SetOpIgnoreDefense > this->MaxIgnoreDefenceRateDL)

  014e8	8b 45 f8	 mov	 eax, DWORD PTR _lpObj$[ebp]
  014eb	0f b6 88 3e 11
	00 00		 movzx	 ecx, BYTE PTR [eax+4414]
  014f2	8b 55 fc	 mov	 edx, DWORD PTR _this$[ebp]
  014f5	3b 8a bc 00 00
	00		 cmp	 ecx, DWORD PTR [edx+188]
  014fb	7e 12		 jle	 SHORT $LN17@DL

; 567  : 		{
; 568  : 			lpObj->SetOpIgnoreDefense = this->MaxIgnoreDefenceRateDL;

  014fd	8b 45 f8	 mov	 eax, DWORD PTR _lpObj$[ebp]
  01500	8b 4d fc	 mov	 ecx, DWORD PTR _this$[ebp]
  01503	8a 91 bc 00 00
	00		 mov	 dl, BYTE PTR [ecx+188]
  01509	88 90 3e 11 00
	00		 mov	 BYTE PTR [eax+4414], dl
$LN17@DL:

; 569  : 		}
; 570  : 	}
; 571  : 
; 572  : 	if(this->MaxCriticalDamageRateDL != -1)

  0150f	8b 45 fc	 mov	 eax, DWORD PTR _this$[ebp]
  01512	83 b8 c0 00 00
	00 ff		 cmp	 DWORD PTR [eax+192], -1
  01519	74 26		 je	 SHORT $LN15@DL

; 573  : 	{
; 574  : 		if(lpObj->m_CriticalDamage > this->MaxCriticalDamageRateDL)

  0151b	8b 45 f8	 mov	 eax, DWORD PTR _lpObj$[ebp]
  0151e	8b 4d fc	 mov	 ecx, DWORD PTR _this$[ebp]
  01521	8b 90 bc 04 00
	00		 mov	 edx, DWORD PTR [eax+1212]
  01527	3b 91 c0 00 00
	00		 cmp	 edx, DWORD PTR [ecx+192]
  0152d	7e 12		 jle	 SHORT $LN15@DL

; 575  : 		{
; 576  : 			lpObj->m_CriticalDamage = this->MaxCriticalDamageRateDL;

  0152f	8b 45 f8	 mov	 eax, DWORD PTR _lpObj$[ebp]
  01532	8b 4d fc	 mov	 ecx, DWORD PTR _this$[ebp]
  01535	8b 91 c0 00 00
	00		 mov	 edx, DWORD PTR [ecx+192]
  0153b	89 90 bc 04 00
	00		 mov	 DWORD PTR [eax+1212], edx
$LN15@DL:

; 577  : 		}
; 578  : 	}
; 579  : 
; 580  : 	if(this->MaxExellentDamageRateDL != -1)

  01541	8b 45 fc	 mov	 eax, DWORD PTR _this$[ebp]
  01544	83 b8 c4 00 00
	00 ff		 cmp	 DWORD PTR [eax+196], -1
  0154b	74 26		 je	 SHORT $LN13@DL

; 581  : 	{
; 582  : 		if(lpObj->m_ExcelentDamage > this->MaxExellentDamageRateDL)

  0154d	8b 45 f8	 mov	 eax, DWORD PTR _lpObj$[ebp]
  01550	8b 4d fc	 mov	 ecx, DWORD PTR _this$[ebp]
  01553	8b 90 c0 04 00
	00		 mov	 edx, DWORD PTR [eax+1216]
  01559	3b 91 c4 00 00
	00		 cmp	 edx, DWORD PTR [ecx+196]
  0155f	7e 12		 jle	 SHORT $LN13@DL

; 583  : 		{
; 584  : 			lpObj->m_ExcelentDamage = this->MaxExellentDamageRateDL;

  01561	8b 45 f8	 mov	 eax, DWORD PTR _lpObj$[ebp]
  01564	8b 4d fc	 mov	 ecx, DWORD PTR _this$[ebp]
  01567	8b 91 c4 00 00
	00		 mov	 edx, DWORD PTR [ecx+196]
  0156d	89 90 c0 04 00
	00		 mov	 DWORD PTR [eax+1216], edx
$LN13@DL:

; 585  : 		}
; 586  : 	}
; 587  : 
; 588  : 	if(this->MaxDoubleDamageRateDL != -1)

  01573	8b 45 fc	 mov	 eax, DWORD PTR _this$[ebp]
  01576	83 b8 c8 00 00
	00 ff		 cmp	 DWORD PTR [eax+200], -1
  0157d	74 27		 je	 SHORT $LN11@DL

; 589  : 	{
; 590  : 		if(lpObj->SetOpDoubleDamage > this->MaxDoubleDamageRateDL)

  0157f	8b 45 f8	 mov	 eax, DWORD PTR _lpObj$[ebp]
  01582	0f b6 88 3f 11
	00 00		 movzx	 ecx, BYTE PTR [eax+4415]
  01589	8b 55 fc	 mov	 edx, DWORD PTR _this$[ebp]
  0158c	3b 8a c8 00 00
	00		 cmp	 ecx, DWORD PTR [edx+200]
  01592	7e 12		 jle	 SHORT $LN11@DL

; 591  : 		{
; 592  : 			lpObj->SetOpDoubleDamage = this->MaxDoubleDamageRateDL;

  01594	8b 45 f8	 mov	 eax, DWORD PTR _lpObj$[ebp]
  01597	8b 4d fc	 mov	 ecx, DWORD PTR _this$[ebp]
  0159a	8a 91 c8 00 00
	00		 mov	 dl, BYTE PTR [ecx+200]
  015a0	88 90 3f 11 00
	00		 mov	 BYTE PTR [eax+4415], dl
$LN11@DL:

; 593  : 		}
; 594  : 	}
; 595  : 
; 596  : 	if(this->MaxAbsordDamageRateDL != -1)

  015a6	8b 45 fc	 mov	 eax, DWORD PTR _this$[ebp]
  015a9	83 b8 cc 00 00
	00 ff		 cmp	 DWORD PTR [eax+204], -1
  015b0	74 27		 je	 SHORT $LN9@DL

; 597  : 	{
; 598  : 		if(lpObj->DamageMinus > this->MaxAbsordDamageRateDL)

  015b2	8b 45 f8	 mov	 eax, DWORD PTR _lpObj$[ebp]
  015b5	0f b6 88 70 01
	00 00		 movzx	 ecx, BYTE PTR [eax+368]
  015bc	8b 55 fc	 mov	 edx, DWORD PTR _this$[ebp]
  015bf	3b 8a cc 00 00
	00		 cmp	 ecx, DWORD PTR [edx+204]
  015c5	7e 12		 jle	 SHORT $LN9@DL

; 599  : 		{
; 600  : 			lpObj->DamageMinus = this->MaxAbsordDamageRateDL;

  015c7	8b 45 f8	 mov	 eax, DWORD PTR _lpObj$[ebp]
  015ca	8b 4d fc	 mov	 ecx, DWORD PTR _this$[ebp]
  015cd	8a 91 cc 00 00
	00		 mov	 dl, BYTE PTR [ecx+204]
  015d3	88 90 70 01 00
	00		 mov	 BYTE PTR [eax+368], dl
$LN9@DL:

; 601  : 		}
; 602  : 	}
; 603  : 
; 604  : 	if(this->MaxReflectDamageRateDL != -1)

  015d9	8b 45 fc	 mov	 eax, DWORD PTR _this$[ebp]
  015dc	83 b8 d0 00 00
	00 ff		 cmp	 DWORD PTR [eax+208], -1
  015e3	74 27		 je	 SHORT $LN7@DL

; 605  : 	{
; 606  : 		if(lpObj->DamageReflect > this->MaxReflectDamageRateDL)

  015e5	8b 45 f8	 mov	 eax, DWORD PTR _lpObj$[ebp]
  015e8	0f b6 88 71 01
	00 00		 movzx	 ecx, BYTE PTR [eax+369]
  015ef	8b 55 fc	 mov	 edx, DWORD PTR _this$[ebp]
  015f2	3b 8a d0 00 00
	00		 cmp	 ecx, DWORD PTR [edx+208]
  015f8	7e 12		 jle	 SHORT $LN7@DL

; 607  : 		{
; 608  : 			lpObj->DamageReflect = this->MaxReflectDamageRateDL;

  015fa	8b 45 f8	 mov	 eax, DWORD PTR _lpObj$[ebp]
  015fd	8b 4d fc	 mov	 ecx, DWORD PTR _this$[ebp]
  01600	8a 91 d0 00 00
	00		 mov	 dl, BYTE PTR [ecx+208]
  01606	88 90 71 01 00
	00		 mov	 BYTE PTR [eax+369], dl
$LN7@DL:

; 609  : 		}
; 610  : 	}
; 611  : 
; 612  : 	if(this->MaxWizardDamageDL != -1)

  0160c	8b 45 fc	 mov	 eax, DWORD PTR _this$[ebp]
  0160f	83 b8 d4 00 00
	00 ff		 cmp	 DWORD PTR [eax+212], -1
  01616	74 38		 je	 SHORT $LN5@DL

; 613  : 	{
; 614  : 		if(lpObj->m_MagicDamageMax > this->MaxWizardDamageDL)

  01618	8b 45 f8	 mov	 eax, DWORD PTR _lpObj$[ebp]
  0161b	8b 4d fc	 mov	 ecx, DWORD PTR _this$[ebp]
  0161e	8b 90 6c 04 00
	00		 mov	 edx, DWORD PTR [eax+1132]
  01624	3b 91 d4 00 00
	00		 cmp	 edx, DWORD PTR [ecx+212]
  0162a	7e 24		 jle	 SHORT $LN5@DL

; 615  : 		{
; 616  : 			lpObj->m_MagicDamageMax = this->MaxWizardDamageDL;

  0162c	8b 45 f8	 mov	 eax, DWORD PTR _lpObj$[ebp]
  0162f	8b 4d fc	 mov	 ecx, DWORD PTR _this$[ebp]
  01632	8b 91 d4 00 00
	00		 mov	 edx, DWORD PTR [ecx+212]
  01638	89 90 6c 04 00
	00		 mov	 DWORD PTR [eax+1132], edx

; 617  : 			lpObj->m_MagicDamageMin = this->MaxWizardDamageDL;

  0163e	8b 45 f8	 mov	 eax, DWORD PTR _lpObj$[ebp]
  01641	8b 4d fc	 mov	 ecx, DWORD PTR _this$[ebp]
  01644	8b 91 d4 00 00
	00		 mov	 edx, DWORD PTR [ecx+212]
  0164a	89 90 68 04 00
	00		 mov	 DWORD PTR [eax+1128], edx
$LN5@DL:

; 618  : 		}
; 619  : 	}
; 620  : 
; 621  : 	if(this->MaxLifeDL != -1)

  01650	8b 45 fc	 mov	 eax, DWORD PTR _this$[ebp]
  01653	83 b8 d8 00 00
	00 ff		 cmp	 DWORD PTR [eax+216], -1
  0165a	74 2d		 je	 SHORT $LN3@DL

; 622  : 	{
; 623  : 		if( lpObj->Life > this->MaxLifeDL)

  0165c	8b 45 fc	 mov	 eax, DWORD PTR _this$[ebp]
  0165f	db 80 d8 00 00
	00		 fild	 DWORD PTR [eax+216]
  01665	8b 4d f8	 mov	 ecx, DWORD PTR _lpObj$[ebp]
  01668	d9 81 fc 00 00
	00		 fld	 DWORD PTR [ecx+252]
  0166e	de d9		 fcompp
  01670	df e0		 fnstsw	 ax
  01672	f6 c4 41	 test	 ah, 65			; 00000041H
  01675	75 12		 jne	 SHORT $LN3@DL

; 624  : 		{
; 625  : 			lpObj->Life = this->MaxLifeDL;

  01677	8b 45 fc	 mov	 eax, DWORD PTR _this$[ebp]
  0167a	db 80 d8 00 00
	00		 fild	 DWORD PTR [eax+216]
  01680	8b 4d f8	 mov	 ecx, DWORD PTR _lpObj$[ebp]
  01683	d9 99 fc 00 00
	00		 fstp	 DWORD PTR [ecx+252]
$LN3@DL:

; 626  : 		}
; 627  : 	}
; 628  : 
; 629  : 	if(this->MaxSdDL != -1)

  01689	8b 45 fc	 mov	 eax, DWORD PTR _this$[ebp]
  0168c	83 b8 dc 00 00
	00 ff		 cmp	 DWORD PTR [eax+220], -1
  01693	74 26		 je	 SHORT $LN1@DL

; 630  : 	{
; 631  : 		if( lpObj->iShield > this->MaxSdDL)

  01695	8b 45 f8	 mov	 eax, DWORD PTR _lpObj$[ebp]
  01698	8b 4d fc	 mov	 ecx, DWORD PTR _this$[ebp]
  0169b	8b 90 54 01 00
	00		 mov	 edx, DWORD PTR [eax+340]
  016a1	3b 91 dc 00 00
	00		 cmp	 edx, DWORD PTR [ecx+220]
  016a7	7e 12		 jle	 SHORT $LN1@DL

; 632  : 		{
; 633  : 			lpObj->iShield = this->MaxSdDL;

  016a9	8b 45 f8	 mov	 eax, DWORD PTR _lpObj$[ebp]
  016ac	8b 4d fc	 mov	 ecx, DWORD PTR _this$[ebp]
  016af	8b 91 dc 00 00
	00		 mov	 edx, DWORD PTR [ecx+220]
  016b5	89 90 54 01 00
	00		 mov	 DWORD PTR [eax+340], edx
$LN1@DL:

; 634  : 		}
; 635  : 	}
; 636  : }

  016bb	5f		 pop	 edi
  016bc	5e		 pop	 esi
  016bd	5b		 pop	 ebx
  016be	8b e5		 mov	 esp, ebp
  016c0	5d		 pop	 ebp
  016c1	c2 04 00	 ret	 4
?DL@cMaxPower@@AAEXH@Z ENDP				; cMaxPower::DL
; Function compile flags: /Odtp /ZI
_lpObj$ = -8						; size = 4
_this$ = -4						; size = 4
_aIndex$ = 8						; size = 4
?SUM@cMaxPower@@AAEXH@Z PROC				; cMaxPower::SUM
; _this$ = ecx

; 639  : {

  016d0	55		 push	 ebp
  016d1	8b ec		 mov	 ebp, esp
  016d3	83 ec 48	 sub	 esp, 72			; 00000048H
  016d6	53		 push	 ebx
  016d7	56		 push	 esi
  016d8	57		 push	 edi
  016d9	89 4d fc	 mov	 DWORD PTR _this$[ebp], ecx

; 640  : 	LPOBJ lpObj = &gObj[aIndex];

  016dc	8b 45 08	 mov	 eax, DWORD PTR _aIndex$[ebp]
  016df	69 c0 38 2b 00
	00		 imul	 eax, 11064		; 00002b38H
  016e5	03 05 00 00 00
	00		 add	 eax, DWORD PTR ?gObj@@3PAUOBJECTSTRUCT@@A ; gObj
  016eb	89 45 f8	 mov	 DWORD PTR _lpObj$[ebp], eax

; 641  : 
; 642  : 	if(this->MaxDamageSUM != -1)

  016ee	8b 45 fc	 mov	 eax, DWORD PTR _this$[ebp]
  016f1	83 b8 e0 00 00
	00 ff		 cmp	 DWORD PTR [eax+224], -1
  016f8	74 70		 je	 SHORT $LN22@SUM

; 643  : 	{
; 644  : 		if(lpObj->m_AttackDamageMaxRight > this->MaxDamageSUM || lpObj->m_AttackDamageMaxLeft > this->MaxDamageSUM)

  016fa	8b 45 f8	 mov	 eax, DWORD PTR _lpObj$[ebp]
  016fd	8b 4d fc	 mov	 ecx, DWORD PTR _this$[ebp]
  01700	8b 90 80 04 00
	00		 mov	 edx, DWORD PTR [eax+1152]
  01706	3b 91 e0 00 00
	00		 cmp	 edx, DWORD PTR [ecx+224]
  0170c	7f 14		 jg	 SHORT $LN21@SUM
  0170e	8b 45 f8	 mov	 eax, DWORD PTR _lpObj$[ebp]
  01711	8b 4d fc	 mov	 ecx, DWORD PTR _this$[ebp]
  01714	8b 90 78 04 00
	00		 mov	 edx, DWORD PTR [eax+1144]
  0171a	3b 91 e0 00 00
	00		 cmp	 edx, DWORD PTR [ecx+224]
  01720	7e 48		 jle	 SHORT $LN22@SUM
$LN21@SUM:

; 645  : 		{
; 646  : 			lpObj->m_AttackDamageMinRight = this->MaxDamageSUM;

  01722	8b 45 f8	 mov	 eax, DWORD PTR _lpObj$[ebp]
  01725	8b 4d fc	 mov	 ecx, DWORD PTR _this$[ebp]
  01728	8b 91 e0 00 00
	00		 mov	 edx, DWORD PTR [ecx+224]
  0172e	89 90 84 04 00
	00		 mov	 DWORD PTR [eax+1156], edx

; 647  : 			lpObj->m_AttackDamageMaxRight = this->MaxDamageSUM;

  01734	8b 45 f8	 mov	 eax, DWORD PTR _lpObj$[ebp]
  01737	8b 4d fc	 mov	 ecx, DWORD PTR _this$[ebp]
  0173a	8b 91 e0 00 00
	00		 mov	 edx, DWORD PTR [ecx+224]
  01740	89 90 80 04 00
	00		 mov	 DWORD PTR [eax+1152], edx

; 648  : 			lpObj->m_AttackDamageMinLeft = this->MaxDamageSUM;

  01746	8b 45 f8	 mov	 eax, DWORD PTR _lpObj$[ebp]
  01749	8b 4d fc	 mov	 ecx, DWORD PTR _this$[ebp]
  0174c	8b 91 e0 00 00
	00		 mov	 edx, DWORD PTR [ecx+224]
  01752	89 90 7c 04 00
	00		 mov	 DWORD PTR [eax+1148], edx

; 649  : 			lpObj->m_AttackDamageMaxLeft = this->MaxDamageSUM;

  01758	8b 45 f8	 mov	 eax, DWORD PTR _lpObj$[ebp]
  0175b	8b 4d fc	 mov	 ecx, DWORD PTR _this$[ebp]
  0175e	8b 91 e0 00 00
	00		 mov	 edx, DWORD PTR [ecx+224]
  01764	89 90 78 04 00
	00		 mov	 DWORD PTR [eax+1144], edx
$LN22@SUM:

; 650  : 		}
; 651  : 	}
; 652  : 
; 653  : 	if(this->MaxDefenceSUM != -1)

  0176a	8b 45 fc	 mov	 eax, DWORD PTR _this$[ebp]
  0176d	83 b8 e4 00 00
	00 ff		 cmp	 DWORD PTR [eax+228], -1
  01774	74 26		 je	 SHORT $LN19@SUM

; 654  : 	{
; 655  : 		if(lpObj->m_Defense > this->MaxDefenceSUM)

  01776	8b 45 f8	 mov	 eax, DWORD PTR _lpObj$[ebp]
  01779	8b 4d fc	 mov	 ecx, DWORD PTR _this$[ebp]
  0177c	8b 90 94 04 00
	00		 mov	 edx, DWORD PTR [eax+1172]
  01782	3b 91 e4 00 00
	00		 cmp	 edx, DWORD PTR [ecx+228]
  01788	7e 12		 jle	 SHORT $LN19@SUM

; 656  : 		{
; 657  : 			lpObj->m_Defense = this->MaxDefenceSUM;

  0178a	8b 45 f8	 mov	 eax, DWORD PTR _lpObj$[ebp]
  0178d	8b 4d fc	 mov	 ecx, DWORD PTR _this$[ebp]
  01790	8b 91 e4 00 00
	00		 mov	 edx, DWORD PTR [ecx+228]
  01796	89 90 94 04 00
	00		 mov	 DWORD PTR [eax+1172], edx
$LN19@SUM:

; 658  : 		}
; 659  : 	}
; 660  : 
; 661  : 	if(this->MaxIgnoreDefenceRateSUM != -1)

  0179c	8b 45 fc	 mov	 eax, DWORD PTR _this$[ebp]
  0179f	83 b8 e8 00 00
	00 ff		 cmp	 DWORD PTR [eax+232], -1
  017a6	74 27		 je	 SHORT $LN17@SUM

; 662  : 	{
; 663  : 		if(lpObj->SetOpIgnoreDefense > this->MaxIgnoreDefenceRateSUM)

  017a8	8b 45 f8	 mov	 eax, DWORD PTR _lpObj$[ebp]
  017ab	0f b6 88 3e 11
	00 00		 movzx	 ecx, BYTE PTR [eax+4414]
  017b2	8b 55 fc	 mov	 edx, DWORD PTR _this$[ebp]
  017b5	3b 8a e8 00 00
	00		 cmp	 ecx, DWORD PTR [edx+232]
  017bb	7e 12		 jle	 SHORT $LN17@SUM

; 664  : 		{
; 665  : 			lpObj->SetOpIgnoreDefense = this->MaxIgnoreDefenceRateSUM;

  017bd	8b 45 f8	 mov	 eax, DWORD PTR _lpObj$[ebp]
  017c0	8b 4d fc	 mov	 ecx, DWORD PTR _this$[ebp]
  017c3	8a 91 e8 00 00
	00		 mov	 dl, BYTE PTR [ecx+232]
  017c9	88 90 3e 11 00
	00		 mov	 BYTE PTR [eax+4414], dl
$LN17@SUM:

; 666  : 		}
; 667  : 	}
; 668  : 
; 669  : 	if(this->MaxCriticalDamageRateSUM != -1)

  017cf	8b 45 fc	 mov	 eax, DWORD PTR _this$[ebp]
  017d2	83 b8 ec 00 00
	00 ff		 cmp	 DWORD PTR [eax+236], -1
  017d9	74 26		 je	 SHORT $LN15@SUM

; 670  : 	{
; 671  : 		if(lpObj->m_CriticalDamage > this->MaxCriticalDamageRateSUM)

  017db	8b 45 f8	 mov	 eax, DWORD PTR _lpObj$[ebp]
  017de	8b 4d fc	 mov	 ecx, DWORD PTR _this$[ebp]
  017e1	8b 90 bc 04 00
	00		 mov	 edx, DWORD PTR [eax+1212]
  017e7	3b 91 ec 00 00
	00		 cmp	 edx, DWORD PTR [ecx+236]
  017ed	7e 12		 jle	 SHORT $LN15@SUM

; 672  : 		{
; 673  : 			lpObj->m_CriticalDamage = this->MaxCriticalDamageRateSUM;

  017ef	8b 45 f8	 mov	 eax, DWORD PTR _lpObj$[ebp]
  017f2	8b 4d fc	 mov	 ecx, DWORD PTR _this$[ebp]
  017f5	8b 91 ec 00 00
	00		 mov	 edx, DWORD PTR [ecx+236]
  017fb	89 90 bc 04 00
	00		 mov	 DWORD PTR [eax+1212], edx
$LN15@SUM:

; 674  : 		}
; 675  : 	}
; 676  : 
; 677  : 	if(this->MaxExellentDamageRateSUM != -1)

  01801	8b 45 fc	 mov	 eax, DWORD PTR _this$[ebp]
  01804	83 b8 f0 00 00
	00 ff		 cmp	 DWORD PTR [eax+240], -1
  0180b	74 26		 je	 SHORT $LN13@SUM

; 678  : 	{
; 679  : 		if(lpObj->m_ExcelentDamage > this->MaxExellentDamageRateSUM)

  0180d	8b 45 f8	 mov	 eax, DWORD PTR _lpObj$[ebp]
  01810	8b 4d fc	 mov	 ecx, DWORD PTR _this$[ebp]
  01813	8b 90 c0 04 00
	00		 mov	 edx, DWORD PTR [eax+1216]
  01819	3b 91 f0 00 00
	00		 cmp	 edx, DWORD PTR [ecx+240]
  0181f	7e 12		 jle	 SHORT $LN13@SUM

; 680  : 		{
; 681  : 			lpObj->m_ExcelentDamage = this->MaxExellentDamageRateSUM;

  01821	8b 45 f8	 mov	 eax, DWORD PTR _lpObj$[ebp]
  01824	8b 4d fc	 mov	 ecx, DWORD PTR _this$[ebp]
  01827	8b 91 f0 00 00
	00		 mov	 edx, DWORD PTR [ecx+240]
  0182d	89 90 c0 04 00
	00		 mov	 DWORD PTR [eax+1216], edx
$LN13@SUM:

; 682  : 		}
; 683  : 	}
; 684  : 
; 685  : 	if(this->MaxDoubleDamageRateSUM != -1)

  01833	8b 45 fc	 mov	 eax, DWORD PTR _this$[ebp]
  01836	83 b8 f4 00 00
	00 ff		 cmp	 DWORD PTR [eax+244], -1
  0183d	74 27		 je	 SHORT $LN11@SUM

; 686  : 	{
; 687  : 		if(lpObj->SetOpDoubleDamage > this->MaxDoubleDamageRateSUM)

  0183f	8b 45 f8	 mov	 eax, DWORD PTR _lpObj$[ebp]
  01842	0f b6 88 3f 11
	00 00		 movzx	 ecx, BYTE PTR [eax+4415]
  01849	8b 55 fc	 mov	 edx, DWORD PTR _this$[ebp]
  0184c	3b 8a f4 00 00
	00		 cmp	 ecx, DWORD PTR [edx+244]
  01852	7e 12		 jle	 SHORT $LN11@SUM

; 688  : 		{
; 689  : 			lpObj->SetOpDoubleDamage = this->MaxDoubleDamageRateSUM;

  01854	8b 45 f8	 mov	 eax, DWORD PTR _lpObj$[ebp]
  01857	8b 4d fc	 mov	 ecx, DWORD PTR _this$[ebp]
  0185a	8a 91 f4 00 00
	00		 mov	 dl, BYTE PTR [ecx+244]
  01860	88 90 3f 11 00
	00		 mov	 BYTE PTR [eax+4415], dl
$LN11@SUM:

; 690  : 		}
; 691  : 	}
; 692  : 
; 693  : 	if(this->MaxAbsordDamageRateSUM != -1)

  01866	8b 45 fc	 mov	 eax, DWORD PTR _this$[ebp]
  01869	83 b8 f8 00 00
	00 ff		 cmp	 DWORD PTR [eax+248], -1
  01870	74 27		 je	 SHORT $LN9@SUM

; 694  : 	{
; 695  : 		if(lpObj->DamageMinus > this->MaxAbsordDamageRateSUM)

  01872	8b 45 f8	 mov	 eax, DWORD PTR _lpObj$[ebp]
  01875	0f b6 88 70 01
	00 00		 movzx	 ecx, BYTE PTR [eax+368]
  0187c	8b 55 fc	 mov	 edx, DWORD PTR _this$[ebp]
  0187f	3b 8a f8 00 00
	00		 cmp	 ecx, DWORD PTR [edx+248]
  01885	7e 12		 jle	 SHORT $LN9@SUM

; 696  : 		{
; 697  : 			lpObj->DamageMinus = this->MaxAbsordDamageRateSUM;

  01887	8b 45 f8	 mov	 eax, DWORD PTR _lpObj$[ebp]
  0188a	8b 4d fc	 mov	 ecx, DWORD PTR _this$[ebp]
  0188d	8a 91 f8 00 00
	00		 mov	 dl, BYTE PTR [ecx+248]
  01893	88 90 70 01 00
	00		 mov	 BYTE PTR [eax+368], dl
$LN9@SUM:

; 698  : 		}
; 699  : 	}
; 700  : 
; 701  : 	if(this->MaxReflectDamageRateSUM != -1)

  01899	8b 45 fc	 mov	 eax, DWORD PTR _this$[ebp]
  0189c	83 b8 fc 00 00
	00 ff		 cmp	 DWORD PTR [eax+252], -1
  018a3	74 27		 je	 SHORT $LN7@SUM

; 702  : 	{
; 703  : 		if(lpObj->DamageReflect > this->MaxReflectDamageRateSUM)

  018a5	8b 45 f8	 mov	 eax, DWORD PTR _lpObj$[ebp]
  018a8	0f b6 88 71 01
	00 00		 movzx	 ecx, BYTE PTR [eax+369]
  018af	8b 55 fc	 mov	 edx, DWORD PTR _this$[ebp]
  018b2	3b 8a fc 00 00
	00		 cmp	 ecx, DWORD PTR [edx+252]
  018b8	7e 12		 jle	 SHORT $LN7@SUM

; 704  : 		{
; 705  : 			lpObj->DamageReflect = this->MaxReflectDamageRateSUM;

  018ba	8b 45 f8	 mov	 eax, DWORD PTR _lpObj$[ebp]
  018bd	8b 4d fc	 mov	 ecx, DWORD PTR _this$[ebp]
  018c0	8a 91 fc 00 00
	00		 mov	 dl, BYTE PTR [ecx+252]
  018c6	88 90 71 01 00
	00		 mov	 BYTE PTR [eax+369], dl
$LN7@SUM:

; 706  : 		}
; 707  : 	}
; 708  : 
; 709  : 	if(this->MaxWizardDamageSUM != -1)

  018cc	8b 45 fc	 mov	 eax, DWORD PTR _this$[ebp]
  018cf	83 b8 00 01 00
	00 ff		 cmp	 DWORD PTR [eax+256], -1
  018d6	74 38		 je	 SHORT $LN5@SUM

; 710  : 	{
; 711  : 		if(lpObj->m_MagicDamageMax > this->MaxWizardDamageSUM)

  018d8	8b 45 f8	 mov	 eax, DWORD PTR _lpObj$[ebp]
  018db	8b 4d fc	 mov	 ecx, DWORD PTR _this$[ebp]
  018de	8b 90 6c 04 00
	00		 mov	 edx, DWORD PTR [eax+1132]
  018e4	3b 91 00 01 00
	00		 cmp	 edx, DWORD PTR [ecx+256]
  018ea	7e 24		 jle	 SHORT $LN5@SUM

; 712  : 		{
; 713  : 			lpObj->m_MagicDamageMax = this->MaxWizardDamageSUM;

  018ec	8b 45 f8	 mov	 eax, DWORD PTR _lpObj$[ebp]
  018ef	8b 4d fc	 mov	 ecx, DWORD PTR _this$[ebp]
  018f2	8b 91 00 01 00
	00		 mov	 edx, DWORD PTR [ecx+256]
  018f8	89 90 6c 04 00
	00		 mov	 DWORD PTR [eax+1132], edx

; 714  : 			lpObj->m_MagicDamageMin = this->MaxWizardDamageSUM;

  018fe	8b 45 f8	 mov	 eax, DWORD PTR _lpObj$[ebp]
  01901	8b 4d fc	 mov	 ecx, DWORD PTR _this$[ebp]
  01904	8b 91 00 01 00
	00		 mov	 edx, DWORD PTR [ecx+256]
  0190a	89 90 68 04 00
	00		 mov	 DWORD PTR [eax+1128], edx
$LN5@SUM:

; 715  : 		}
; 716  : 	}
; 717  : 
; 718  : 	if(this->MaxLifeSUM != -1)

  01910	8b 45 fc	 mov	 eax, DWORD PTR _this$[ebp]
  01913	83 b8 04 01 00
	00 ff		 cmp	 DWORD PTR [eax+260], -1
  0191a	74 2d		 je	 SHORT $LN3@SUM

; 719  : 	{
; 720  : 		if( lpObj->Life > this->MaxLifeSUM)

  0191c	8b 45 fc	 mov	 eax, DWORD PTR _this$[ebp]
  0191f	db 80 04 01 00
	00		 fild	 DWORD PTR [eax+260]
  01925	8b 4d f8	 mov	 ecx, DWORD PTR _lpObj$[ebp]
  01928	d9 81 fc 00 00
	00		 fld	 DWORD PTR [ecx+252]
  0192e	de d9		 fcompp
  01930	df e0		 fnstsw	 ax
  01932	f6 c4 41	 test	 ah, 65			; 00000041H
  01935	75 12		 jne	 SHORT $LN3@SUM

; 721  : 		{
; 722  : 			lpObj->Life = this->MaxLifeSUM;

  01937	8b 45 fc	 mov	 eax, DWORD PTR _this$[ebp]
  0193a	db 80 04 01 00
	00		 fild	 DWORD PTR [eax+260]
  01940	8b 4d f8	 mov	 ecx, DWORD PTR _lpObj$[ebp]
  01943	d9 99 fc 00 00
	00		 fstp	 DWORD PTR [ecx+252]
$LN3@SUM:

; 723  : 		}
; 724  : 	}
; 725  : 
; 726  : 	if(this->MaxSdSUM != -1)

  01949	8b 45 fc	 mov	 eax, DWORD PTR _this$[ebp]
  0194c	83 b8 08 01 00
	00 ff		 cmp	 DWORD PTR [eax+264], -1
  01953	74 26		 je	 SHORT $LN1@SUM

; 727  : 	{
; 728  : 		if( lpObj->iShield > this->MaxSdSUM)

  01955	8b 45 f8	 mov	 eax, DWORD PTR _lpObj$[ebp]
  01958	8b 4d fc	 mov	 ecx, DWORD PTR _this$[ebp]
  0195b	8b 90 54 01 00
	00		 mov	 edx, DWORD PTR [eax+340]
  01961	3b 91 08 01 00
	00		 cmp	 edx, DWORD PTR [ecx+264]
  01967	7e 12		 jle	 SHORT $LN1@SUM

; 729  : 		{
; 730  : 			lpObj->iShield = this->MaxSdSUM;

  01969	8b 45 f8	 mov	 eax, DWORD PTR _lpObj$[ebp]
  0196c	8b 4d fc	 mov	 ecx, DWORD PTR _this$[ebp]
  0196f	8b 91 08 01 00
	00		 mov	 edx, DWORD PTR [ecx+264]
  01975	89 90 54 01 00
	00		 mov	 DWORD PTR [eax+340], edx
$LN1@SUM:

; 731  : 		}
; 732  : 	}
; 733  : }

  0197b	5f		 pop	 edi
  0197c	5e		 pop	 esi
  0197d	5b		 pop	 ebx
  0197e	8b e5		 mov	 esp, ebp
  01980	5d		 pop	 ebp
  01981	c2 04 00	 ret	 4
?SUM@cMaxPower@@AAEXH@Z ENDP				; cMaxPower::SUM
; Function compile flags: /Odtp /ZI
_lpObj$ = -8						; size = 4
_this$ = -4						; size = 4
_aIndex$ = 8						; size = 4
?RF@cMaxPower@@AAEXH@Z PROC				; cMaxPower::RF
; _this$ = ecx

; 736  : {

  01990	55		 push	 ebp
  01991	8b ec		 mov	 ebp, esp
  01993	83 ec 48	 sub	 esp, 72			; 00000048H
  01996	53		 push	 ebx
  01997	56		 push	 esi
  01998	57		 push	 edi
  01999	89 4d fc	 mov	 DWORD PTR _this$[ebp], ecx

; 737  : 	LPOBJ lpObj = &gObj[aIndex];

  0199c	8b 45 08	 mov	 eax, DWORD PTR _aIndex$[ebp]
  0199f	69 c0 38 2b 00
	00		 imul	 eax, 11064		; 00002b38H
  019a5	03 05 00 00 00
	00		 add	 eax, DWORD PTR ?gObj@@3PAUOBJECTSTRUCT@@A ; gObj
  019ab	89 45 f8	 mov	 DWORD PTR _lpObj$[ebp], eax

; 738  : 
; 739  : 	if(this->MaxDamageRF != -1)

  019ae	8b 45 fc	 mov	 eax, DWORD PTR _this$[ebp]
  019b1	83 b8 0c 01 00
	00 ff		 cmp	 DWORD PTR [eax+268], -1
  019b8	74 70		 je	 SHORT $LN22@RF

; 740  : 	{
; 741  : 		if(lpObj->m_AttackDamageMaxRight > this->MaxDamageRF || lpObj->m_AttackDamageMaxLeft > this->MaxDamageRF)

  019ba	8b 45 f8	 mov	 eax, DWORD PTR _lpObj$[ebp]
  019bd	8b 4d fc	 mov	 ecx, DWORD PTR _this$[ebp]
  019c0	8b 90 80 04 00
	00		 mov	 edx, DWORD PTR [eax+1152]
  019c6	3b 91 0c 01 00
	00		 cmp	 edx, DWORD PTR [ecx+268]
  019cc	7f 14		 jg	 SHORT $LN21@RF
  019ce	8b 45 f8	 mov	 eax, DWORD PTR _lpObj$[ebp]
  019d1	8b 4d fc	 mov	 ecx, DWORD PTR _this$[ebp]
  019d4	8b 90 78 04 00
	00		 mov	 edx, DWORD PTR [eax+1144]
  019da	3b 91 0c 01 00
	00		 cmp	 edx, DWORD PTR [ecx+268]
  019e0	7e 48		 jle	 SHORT $LN22@RF
$LN21@RF:

; 742  : 		{
; 743  : 			lpObj->m_AttackDamageMinRight = this->MaxDamageRF;

  019e2	8b 45 f8	 mov	 eax, DWORD PTR _lpObj$[ebp]
  019e5	8b 4d fc	 mov	 ecx, DWORD PTR _this$[ebp]
  019e8	8b 91 0c 01 00
	00		 mov	 edx, DWORD PTR [ecx+268]
  019ee	89 90 84 04 00
	00		 mov	 DWORD PTR [eax+1156], edx

; 744  : 			lpObj->m_AttackDamageMaxRight = this->MaxDamageRF;

  019f4	8b 45 f8	 mov	 eax, DWORD PTR _lpObj$[ebp]
  019f7	8b 4d fc	 mov	 ecx, DWORD PTR _this$[ebp]
  019fa	8b 91 0c 01 00
	00		 mov	 edx, DWORD PTR [ecx+268]
  01a00	89 90 80 04 00
	00		 mov	 DWORD PTR [eax+1152], edx

; 745  : 			lpObj->m_AttackDamageMinLeft = this->MaxDamageRF;

  01a06	8b 45 f8	 mov	 eax, DWORD PTR _lpObj$[ebp]
  01a09	8b 4d fc	 mov	 ecx, DWORD PTR _this$[ebp]
  01a0c	8b 91 0c 01 00
	00		 mov	 edx, DWORD PTR [ecx+268]
  01a12	89 90 7c 04 00
	00		 mov	 DWORD PTR [eax+1148], edx

; 746  : 			lpObj->m_AttackDamageMaxLeft = this->MaxDamageRF;

  01a18	8b 45 f8	 mov	 eax, DWORD PTR _lpObj$[ebp]
  01a1b	8b 4d fc	 mov	 ecx, DWORD PTR _this$[ebp]
  01a1e	8b 91 0c 01 00
	00		 mov	 edx, DWORD PTR [ecx+268]
  01a24	89 90 78 04 00
	00		 mov	 DWORD PTR [eax+1144], edx
$LN22@RF:

; 747  : 		}
; 748  : 	}
; 749  : 
; 750  : 	if(this->MaxDefenceRF != -1)

  01a2a	8b 45 fc	 mov	 eax, DWORD PTR _this$[ebp]
  01a2d	83 b8 10 01 00
	00 ff		 cmp	 DWORD PTR [eax+272], -1
  01a34	74 26		 je	 SHORT $LN19@RF

; 751  : 	{
; 752  : 		if(lpObj->m_Defense > this->MaxDefenceRF)

  01a36	8b 45 f8	 mov	 eax, DWORD PTR _lpObj$[ebp]
  01a39	8b 4d fc	 mov	 ecx, DWORD PTR _this$[ebp]
  01a3c	8b 90 94 04 00
	00		 mov	 edx, DWORD PTR [eax+1172]
  01a42	3b 91 10 01 00
	00		 cmp	 edx, DWORD PTR [ecx+272]
  01a48	7e 12		 jle	 SHORT $LN19@RF

; 753  : 		{
; 754  : 			lpObj->m_Defense = this->MaxDefenceRF;

  01a4a	8b 45 f8	 mov	 eax, DWORD PTR _lpObj$[ebp]
  01a4d	8b 4d fc	 mov	 ecx, DWORD PTR _this$[ebp]
  01a50	8b 91 10 01 00
	00		 mov	 edx, DWORD PTR [ecx+272]
  01a56	89 90 94 04 00
	00		 mov	 DWORD PTR [eax+1172], edx
$LN19@RF:

; 755  : 		}
; 756  : 	}
; 757  : 
; 758  : 	if(this->MaxIgnoreDefenceRateRF != -1)

  01a5c	8b 45 fc	 mov	 eax, DWORD PTR _this$[ebp]
  01a5f	83 b8 14 01 00
	00 ff		 cmp	 DWORD PTR [eax+276], -1
  01a66	74 27		 je	 SHORT $LN17@RF

; 759  : 	{
; 760  : 		if(lpObj->SetOpIgnoreDefense > this->MaxIgnoreDefenceRateRF)

  01a68	8b 45 f8	 mov	 eax, DWORD PTR _lpObj$[ebp]
  01a6b	0f b6 88 3e 11
	00 00		 movzx	 ecx, BYTE PTR [eax+4414]
  01a72	8b 55 fc	 mov	 edx, DWORD PTR _this$[ebp]
  01a75	3b 8a 14 01 00
	00		 cmp	 ecx, DWORD PTR [edx+276]
  01a7b	7e 12		 jle	 SHORT $LN17@RF

; 761  : 		{
; 762  : 			lpObj->SetOpIgnoreDefense = this->MaxIgnoreDefenceRateRF;

  01a7d	8b 45 f8	 mov	 eax, DWORD PTR _lpObj$[ebp]
  01a80	8b 4d fc	 mov	 ecx, DWORD PTR _this$[ebp]
  01a83	8a 91 14 01 00
	00		 mov	 dl, BYTE PTR [ecx+276]
  01a89	88 90 3e 11 00
	00		 mov	 BYTE PTR [eax+4414], dl
$LN17@RF:

; 763  : 		}
; 764  : 	}
; 765  : 
; 766  : 	if(this->MaxCriticalDamageRateRF != -1)

  01a8f	8b 45 fc	 mov	 eax, DWORD PTR _this$[ebp]
  01a92	83 b8 18 01 00
	00 ff		 cmp	 DWORD PTR [eax+280], -1
  01a99	74 26		 je	 SHORT $LN15@RF

; 767  : 	{
; 768  : 		if(lpObj->m_CriticalDamage > this->MaxCriticalDamageRateRF)

  01a9b	8b 45 f8	 mov	 eax, DWORD PTR _lpObj$[ebp]
  01a9e	8b 4d fc	 mov	 ecx, DWORD PTR _this$[ebp]
  01aa1	8b 90 bc 04 00
	00		 mov	 edx, DWORD PTR [eax+1212]
  01aa7	3b 91 18 01 00
	00		 cmp	 edx, DWORD PTR [ecx+280]
  01aad	7e 12		 jle	 SHORT $LN15@RF

; 769  : 		{
; 770  : 			lpObj->m_CriticalDamage = this->MaxCriticalDamageRateRF;

  01aaf	8b 45 f8	 mov	 eax, DWORD PTR _lpObj$[ebp]
  01ab2	8b 4d fc	 mov	 ecx, DWORD PTR _this$[ebp]
  01ab5	8b 91 18 01 00
	00		 mov	 edx, DWORD PTR [ecx+280]
  01abb	89 90 bc 04 00
	00		 mov	 DWORD PTR [eax+1212], edx
$LN15@RF:

; 771  : 		}
; 772  : 	}
; 773  : 
; 774  : 	if(this->MaxExellentDamageRateRF != -1)

  01ac1	8b 45 fc	 mov	 eax, DWORD PTR _this$[ebp]
  01ac4	83 b8 1c 01 00
	00 ff		 cmp	 DWORD PTR [eax+284], -1
  01acb	74 26		 je	 SHORT $LN13@RF

; 775  : 	{
; 776  : 		if(lpObj->m_ExcelentDamage > this->MaxExellentDamageRateRF)

  01acd	8b 45 f8	 mov	 eax, DWORD PTR _lpObj$[ebp]
  01ad0	8b 4d fc	 mov	 ecx, DWORD PTR _this$[ebp]
  01ad3	8b 90 c0 04 00
	00		 mov	 edx, DWORD PTR [eax+1216]
  01ad9	3b 91 1c 01 00
	00		 cmp	 edx, DWORD PTR [ecx+284]
  01adf	7e 12		 jle	 SHORT $LN13@RF

; 777  : 		{
; 778  : 			lpObj->m_ExcelentDamage = this->MaxExellentDamageRateRF;

  01ae1	8b 45 f8	 mov	 eax, DWORD PTR _lpObj$[ebp]
  01ae4	8b 4d fc	 mov	 ecx, DWORD PTR _this$[ebp]
  01ae7	8b 91 1c 01 00
	00		 mov	 edx, DWORD PTR [ecx+284]
  01aed	89 90 c0 04 00
	00		 mov	 DWORD PTR [eax+1216], edx
$LN13@RF:

; 779  : 		}
; 780  : 	}
; 781  : 
; 782  : 	if(this->MaxDoubleDamageRateRF != -1)

  01af3	8b 45 fc	 mov	 eax, DWORD PTR _this$[ebp]
  01af6	83 b8 20 01 00
	00 ff		 cmp	 DWORD PTR [eax+288], -1
  01afd	74 27		 je	 SHORT $LN11@RF

; 783  : 	{
; 784  : 		if(lpObj->SetOpDoubleDamage > this->MaxDoubleDamageRateRF)

  01aff	8b 45 f8	 mov	 eax, DWORD PTR _lpObj$[ebp]
  01b02	0f b6 88 3f 11
	00 00		 movzx	 ecx, BYTE PTR [eax+4415]
  01b09	8b 55 fc	 mov	 edx, DWORD PTR _this$[ebp]
  01b0c	3b 8a 20 01 00
	00		 cmp	 ecx, DWORD PTR [edx+288]
  01b12	7e 12		 jle	 SHORT $LN11@RF

; 785  : 		{
; 786  : 			lpObj->SetOpDoubleDamage = this->MaxDoubleDamageRateRF;

  01b14	8b 45 f8	 mov	 eax, DWORD PTR _lpObj$[ebp]
  01b17	8b 4d fc	 mov	 ecx, DWORD PTR _this$[ebp]
  01b1a	8a 91 20 01 00
	00		 mov	 dl, BYTE PTR [ecx+288]
  01b20	88 90 3f 11 00
	00		 mov	 BYTE PTR [eax+4415], dl
$LN11@RF:

; 787  : 		}
; 788  : 	}
; 789  : 
; 790  : 	if(this->MaxAbsordDamageRateRF != -1)

  01b26	8b 45 fc	 mov	 eax, DWORD PTR _this$[ebp]
  01b29	83 b8 24 01 00
	00 ff		 cmp	 DWORD PTR [eax+292], -1
  01b30	74 27		 je	 SHORT $LN9@RF

; 791  : 	{
; 792  : 		if(lpObj->DamageMinus > this->MaxAbsordDamageRateRF)

  01b32	8b 45 f8	 mov	 eax, DWORD PTR _lpObj$[ebp]
  01b35	0f b6 88 70 01
	00 00		 movzx	 ecx, BYTE PTR [eax+368]
  01b3c	8b 55 fc	 mov	 edx, DWORD PTR _this$[ebp]
  01b3f	3b 8a 24 01 00
	00		 cmp	 ecx, DWORD PTR [edx+292]
  01b45	7e 12		 jle	 SHORT $LN9@RF

; 793  : 		{
; 794  : 			lpObj->DamageMinus = this->MaxAbsordDamageRateRF;

  01b47	8b 45 f8	 mov	 eax, DWORD PTR _lpObj$[ebp]
  01b4a	8b 4d fc	 mov	 ecx, DWORD PTR _this$[ebp]
  01b4d	8a 91 24 01 00
	00		 mov	 dl, BYTE PTR [ecx+292]
  01b53	88 90 70 01 00
	00		 mov	 BYTE PTR [eax+368], dl
$LN9@RF:

; 795  : 		}
; 796  : 	}
; 797  : 
; 798  : 	if(this->MaxReflectDamageRateRF != -1)

  01b59	8b 45 fc	 mov	 eax, DWORD PTR _this$[ebp]
  01b5c	83 b8 28 01 00
	00 ff		 cmp	 DWORD PTR [eax+296], -1
  01b63	74 27		 je	 SHORT $LN7@RF

; 799  : 	{
; 800  : 		if(lpObj->DamageReflect > this->MaxReflectDamageRateRF)

  01b65	8b 45 f8	 mov	 eax, DWORD PTR _lpObj$[ebp]
  01b68	0f b6 88 71 01
	00 00		 movzx	 ecx, BYTE PTR [eax+369]
  01b6f	8b 55 fc	 mov	 edx, DWORD PTR _this$[ebp]
  01b72	3b 8a 28 01 00
	00		 cmp	 ecx, DWORD PTR [edx+296]
  01b78	7e 12		 jle	 SHORT $LN7@RF

; 801  : 		{
; 802  : 			lpObj->DamageReflect = this->MaxReflectDamageRateRF;

  01b7a	8b 45 f8	 mov	 eax, DWORD PTR _lpObj$[ebp]
  01b7d	8b 4d fc	 mov	 ecx, DWORD PTR _this$[ebp]
  01b80	8a 91 28 01 00
	00		 mov	 dl, BYTE PTR [ecx+296]
  01b86	88 90 71 01 00
	00		 mov	 BYTE PTR [eax+369], dl
$LN7@RF:

; 803  : 		}
; 804  : 	}
; 805  : 
; 806  : 	if(this->MaxWizardDamageRF != -1)

  01b8c	8b 45 fc	 mov	 eax, DWORD PTR _this$[ebp]
  01b8f	83 b8 2c 01 00
	00 ff		 cmp	 DWORD PTR [eax+300], -1
  01b96	74 38		 je	 SHORT $LN5@RF

; 807  : 	{
; 808  : 		if(lpObj->m_MagicDamageMax > this->MaxWizardDamageRF)

  01b98	8b 45 f8	 mov	 eax, DWORD PTR _lpObj$[ebp]
  01b9b	8b 4d fc	 mov	 ecx, DWORD PTR _this$[ebp]
  01b9e	8b 90 6c 04 00
	00		 mov	 edx, DWORD PTR [eax+1132]
  01ba4	3b 91 2c 01 00
	00		 cmp	 edx, DWORD PTR [ecx+300]
  01baa	7e 24		 jle	 SHORT $LN5@RF

; 809  : 		{
; 810  : 			lpObj->m_MagicDamageMax = this->MaxWizardDamageRF;

  01bac	8b 45 f8	 mov	 eax, DWORD PTR _lpObj$[ebp]
  01baf	8b 4d fc	 mov	 ecx, DWORD PTR _this$[ebp]
  01bb2	8b 91 2c 01 00
	00		 mov	 edx, DWORD PTR [ecx+300]
  01bb8	89 90 6c 04 00
	00		 mov	 DWORD PTR [eax+1132], edx

; 811  : 			lpObj->m_MagicDamageMin = this->MaxWizardDamageRF;

  01bbe	8b 45 f8	 mov	 eax, DWORD PTR _lpObj$[ebp]
  01bc1	8b 4d fc	 mov	 ecx, DWORD PTR _this$[ebp]
  01bc4	8b 91 2c 01 00
	00		 mov	 edx, DWORD PTR [ecx+300]
  01bca	89 90 68 04 00
	00		 mov	 DWORD PTR [eax+1128], edx
$LN5@RF:

; 812  : 		}
; 813  : 	}
; 814  : 
; 815  : 	if(this->MaxLifeRF != -1)

  01bd0	8b 45 fc	 mov	 eax, DWORD PTR _this$[ebp]
  01bd3	83 b8 30 01 00
	00 ff		 cmp	 DWORD PTR [eax+304], -1
  01bda	74 2d		 je	 SHORT $LN3@RF

; 816  : 	{
; 817  : 		if( lpObj->Life > this->MaxLifeRF)

  01bdc	8b 45 fc	 mov	 eax, DWORD PTR _this$[ebp]
  01bdf	db 80 30 01 00
	00		 fild	 DWORD PTR [eax+304]
  01be5	8b 4d f8	 mov	 ecx, DWORD PTR _lpObj$[ebp]
  01be8	d9 81 fc 00 00
	00		 fld	 DWORD PTR [ecx+252]
  01bee	de d9		 fcompp
  01bf0	df e0		 fnstsw	 ax
  01bf2	f6 c4 41	 test	 ah, 65			; 00000041H
  01bf5	75 12		 jne	 SHORT $LN3@RF

; 818  : 		{
; 819  : 			lpObj->Life = this->MaxLifeRF;

  01bf7	8b 45 fc	 mov	 eax, DWORD PTR _this$[ebp]
  01bfa	db 80 30 01 00
	00		 fild	 DWORD PTR [eax+304]
  01c00	8b 4d f8	 mov	 ecx, DWORD PTR _lpObj$[ebp]
  01c03	d9 99 fc 00 00
	00		 fstp	 DWORD PTR [ecx+252]
$LN3@RF:

; 820  : 		}
; 821  : 	}
; 822  : 
; 823  : 	if(this->MaxSdRF != -1)

  01c09	8b 45 fc	 mov	 eax, DWORD PTR _this$[ebp]
  01c0c	83 b8 34 01 00
	00 ff		 cmp	 DWORD PTR [eax+308], -1
  01c13	74 26		 je	 SHORT $LN1@RF

; 824  : 	{
; 825  : 		if( lpObj->iShield > this->MaxSdRF)

  01c15	8b 45 f8	 mov	 eax, DWORD PTR _lpObj$[ebp]
  01c18	8b 4d fc	 mov	 ecx, DWORD PTR _this$[ebp]
  01c1b	8b 90 54 01 00
	00		 mov	 edx, DWORD PTR [eax+340]
  01c21	3b 91 34 01 00
	00		 cmp	 edx, DWORD PTR [ecx+308]
  01c27	7e 12		 jle	 SHORT $LN1@RF

; 826  : 		{
; 827  : 			lpObj->iShield = this->MaxSdRF;

  01c29	8b 45 f8	 mov	 eax, DWORD PTR _lpObj$[ebp]
  01c2c	8b 4d fc	 mov	 ecx, DWORD PTR _this$[ebp]
  01c2f	8b 91 34 01 00
	00		 mov	 edx, DWORD PTR [ecx+308]
  01c35	89 90 54 01 00
	00		 mov	 DWORD PTR [eax+340], edx
$LN1@RF:

; 828  : 		}
; 829  : 	}
; 830  : }

  01c3b	5f		 pop	 edi
  01c3c	5e		 pop	 esi
  01c3d	5b		 pop	 ebx
  01c3e	8b e5		 mov	 esp, ebp
  01c40	5d		 pop	 ebp
  01c41	c2 04 00	 ret	 4
?RF@cMaxPower@@AAEXH@Z ENDP				; cMaxPower::RF
_TEXT	ENDS
END
