; Listing generated by Microsoft (R) Optimizing Compiler Version 16.00.40219.01 

	TITLE	D:\Projects\ExTeam6.3\Source\GameServer\GameServer\MixOption.cpp
	.686P
	.XMM
	include listing.inc
	.model	flat

INCLUDELIB LIBCMT
INCLUDELIB OLDNAMES

_DATA	SEGMENT
_g_iNpcUpDfLevel_CGATE DD 01H
	DD	02H
	DD	02dc6c0H
	DD	02H
	DD	03H
	DD	02dc6c0H
	DD	03H
	DD	04H
	DD	02dc6c0H
_g_iNpcUpDfLevel_CSTATUE DD 01H
	DD	03H
	DD	02dc6c0H
	DD	02H
	DD	05H
	DD	02dc6c0H
	DD	03H
	DD	07H
	DD	02dc6c0H
_g_iNpcUpMaxHP_CGATE DD 02625a0H
	DD	02H
	DD	0f4240H
	DD	03567e0H
	DD	03H
	DD	0f4240H
	DD	04f5880H
	DD	04H
	DD	0f4240H
_g_iNpcUpMaxHP_CSTATUE DD 02191c0H
	DD	03H
	DD	0f4240H
	DD	033e140H
	DD	05H
	DD	0f4240H
	DD	04c4b40H
	DD	07H
	DD	0f4240H
_g_iNpcUpRgLevel_CSTATUE DD 01H
	DD	03H
	DD	04c4b40H
	DD	02H
	DD	05H
	DD	04c4b40H
	DD	03H
	DD	07H
	DD	04c4b40H
_g_iCsUserReSpawnArea DD 023H
	DD	011H
	DD	090H
	DD	030H
	DD	04aH
	DD	090H
	DD	073H
	DD	09aH
	DD	023H
	DD	011H
	DD	090H
	DD	030H
_g_iNpcDefense_CGATE DD 064H
	DD	0b4H
	DD	012cH
	DD	0208H
_g_iNpcDefense_CSTATUE DD 050H
	DD	0b4H
	DD	0154H
	DD	0226H
_g_iCastleWallStepAxisY DD 071H
	DD	0a0H
	DD	0cbH
_DATA	ENDS
PUBLIC	??_H@YGXPAXIHP6EPAX0@Z@Z			; `vector constructor iterator'
; Function compile flags: /Odtp /ZI
;	COMDAT ??_H@YGXPAXIHP6EPAX0@Z@Z
_TEXT	SEGMENT
___t$ = 8						; size = 4
___s$ = 12						; size = 4
___n$ = 16						; size = 4
___f$ = 20						; size = 4
??_H@YGXPAXIHP6EPAX0@Z@Z PROC				; `vector constructor iterator', COMDAT
  00000	55		 push	 ebp
  00001	8b ec		 mov	 ebp, esp
  00003	83 ec 40	 sub	 esp, 64			; 00000040H
  00006	53		 push	 ebx
  00007	56		 push	 esi
  00008	57		 push	 edi
$LN2@vector:
  00009	8b 45 10	 mov	 eax, DWORD PTR ___n$[ebp]
  0000c	83 e8 01	 sub	 eax, 1
  0000f	89 45 10	 mov	 DWORD PTR ___n$[ebp], eax
  00012	78 11		 js	 SHORT $LN3@vector
  00014	8b 4d 08	 mov	 ecx, DWORD PTR ___t$[ebp]
  00017	ff 55 14	 call	 DWORD PTR ___f$[ebp]
  0001a	8b 45 08	 mov	 eax, DWORD PTR ___t$[ebp]
  0001d	03 45 0c	 add	 eax, DWORD PTR ___s$[ebp]
  00020	89 45 08	 mov	 DWORD PTR ___t$[ebp], eax
  00023	eb e4		 jmp	 SHORT $LN2@vector
$LN3@vector:
  00025	5f		 pop	 edi
  00026	5e		 pop	 esi
  00027	5b		 pop	 ebx
  00028	8b e5		 mov	 esp, ebp
  0002a	5d		 pop	 ebp
  0002b	c2 10 00	 ret	 16			; 00000010H
??_H@YGXPAXIHP6EPAX0@Z@Z ENDP				; `vector constructor iterator'
_TEXT	ENDS
PUBLIC	?Init@MixOption@@QAEXXZ				; MixOption::Init
PUBLIC	??0MixOption@@QAE@XZ				; MixOption::MixOption
; Function compile flags: /Odtp /ZI
; File d:\projects\exteam6.3\source\gameserver\gameserver\mixoption.cpp
_TEXT	SEGMENT
_this$ = -4						; size = 4
??0MixOption@@QAE@XZ PROC				; MixOption::MixOption
; _this$ = ecx

; 15   : {

  00000	55		 push	 ebp
  00001	8b ec		 mov	 ebp, esp
  00003	83 ec 44	 sub	 esp, 68			; 00000044H
  00006	53		 push	 ebx
  00007	56		 push	 esi
  00008	57		 push	 edi
  00009	89 4d fc	 mov	 DWORD PTR _this$[ebp], ecx

; 16   : 	this->Init();

  0000c	8b 4d fc	 mov	 ecx, DWORD PTR _this$[ebp]
  0000f	e8 00 00 00 00	 call	 ?Init@MixOption@@QAEXXZ	; MixOption::Init

; 17   : }

  00014	8b 45 fc	 mov	 eax, DWORD PTR _this$[ebp]
  00017	5f		 pop	 edi
  00018	5e		 pop	 esi
  00019	5b		 pop	 ebx
  0001a	8b e5		 mov	 esp, ebp
  0001c	5d		 pop	 ebp
  0001d	c3		 ret	 0
??0MixOption@@QAE@XZ ENDP				; MixOption::MixOption
_TEXT	ENDS
PUBLIC	??1MixOption@@QAE@XZ				; MixOption::~MixOption
; Function compile flags: /Odtp /ZI
_TEXT	SEGMENT
_this$ = -4						; size = 4
??1MixOption@@QAE@XZ PROC				; MixOption::~MixOption
; _this$ = ecx

; 21   : {

  00020	55		 push	 ebp
  00021	8b ec		 mov	 ebp, esp
  00023	83 ec 44	 sub	 esp, 68			; 00000044H
  00026	53		 push	 ebx
  00027	56		 push	 esi
  00028	57		 push	 edi
  00029	89 4d fc	 mov	 DWORD PTR _this$[ebp], ecx

; 22   : 	// ----
; 23   : }

  0002c	5f		 pop	 edi
  0002d	5e		 pop	 esi
  0002e	5b		 pop	 ebx
  0002f	8b e5		 mov	 esp, ebp
  00031	5d		 pop	 ebp
  00032	c3		 ret	 0
??1MixOption@@QAE@XZ ENDP				; MixOption::~MixOption
_TEXT	ENDS
EXTRN	_memset:PROC
; Function compile flags: /Odtp /ZI
_TEXT	SEGMENT
_this$ = -4						; size = 4
?Init@MixOption@@QAEXXZ PROC				; MixOption::Init
; _this$ = ecx

; 27   : {

  00040	55		 push	 ebp
  00041	8b ec		 mov	 ebp, esp
  00043	83 ec 44	 sub	 esp, 68			; 00000044H
  00046	53		 push	 ebx
  00047	56		 push	 esi
  00048	57		 push	 edi
  00049	89 4d fc	 mov	 DWORD PTR _this$[ebp], ecx

; 28   : 	ZeroMemory(this->m_Data, sizeof(this->m_Data));

  0004c	68 b0 04 00 00	 push	 1200			; 000004b0H
  00051	6a 00		 push	 0
  00053	8b 45 fc	 mov	 eax, DWORD PTR _this$[ebp]
  00056	83 c0 04	 add	 eax, 4
  00059	50		 push	 eax
  0005a	e8 00 00 00 00	 call	 _memset
  0005f	83 c4 0c	 add	 esp, 12			; 0000000cH

; 29   : 	this->m_LoadedCount = 0;

  00062	8b 45 fc	 mov	 eax, DWORD PTR _this$[ebp]
  00065	c7 00 00 00 00
	00		 mov	 DWORD PTR [eax], 0

; 30   : }

  0006b	5f		 pop	 edi
  0006c	5e		 pop	 esi
  0006d	5b		 pop	 ebx
  0006e	8b e5		 mov	 esp, ebp
  00070	5d		 pop	 ebp
  00071	c3		 ret	 0
?Init@MixOption@@QAEXXZ ENDP				; MixOption::Init
_TEXT	ENDS
PUBLIC	??_C@_0CI@EKBMIKOF@?$FLMixOption?$FN?5?$FL?$CFd?$FN?5Mixes?5loaded?5fr@ ; `string'
PUBLIC	??_C@_03JBJLGPFL@end?$AA@			; `string'
PUBLIC	??_C@_01KDCPPGHE@r?$AA@				; `string'
PUBLIC	?ReadData@MixOption@@QAEXPAD@Z			; MixOption::ReadData
EXTRN	_fclose:PROC
EXTRN	?LogAddTD@@3P6AXPADZZA:DWORD			; LogAddTD
EXTRN	_strcmp:PROC
EXTRN	?MsgBox@@YAXPADZZ:PROC				; MsgBox
EXTRN	?Get@CMsg@@QAEPADH@Z:PROC			; CMsg::Get
EXTRN	?lMsg@@3VCMsg@@A:BYTE				; lMsg
EXTRN	_fopen:PROC
EXTRN	__ftol2_sse:PROC
_BSS	SEGMENT
_TokenNumber DD	01H DUP (?)
_TokenString DB	064H DUP (?)
_SMDFile DD	01H DUP (?)
_BSS	ENDS
;	COMDAT ??_C@_0CI@EKBMIKOF@?$FLMixOption?$FN?5?$FL?$CFd?$FN?5Mixes?5loaded?5fr@
CONST	SEGMENT
??_C@_0CI@EKBMIKOF@?$FLMixOption?$FN?5?$FL?$CFd?$FN?5Mixes?5loaded?5fr@ DB '['
	DB	'MixOption] [%d] Mixes loaded from list', 00H ; `string'
CONST	ENDS
;	COMDAT ??_C@_03JBJLGPFL@end?$AA@
CONST	SEGMENT
??_C@_03JBJLGPFL@end?$AA@ DB 'end', 00H			; `string'
CONST	ENDS
;	COMDAT ??_C@_01KDCPPGHE@r?$AA@
CONST	SEGMENT
??_C@_01KDCPPGHE@r?$AA@ DB 'r', 00H			; `string'
; Function compile flags: /Odtp /ZI
CONST	ENDS
_TEXT	SEGMENT
_Token$ = -8						; size = 4
_this$ = -4						; size = 4
_File$ = 8						; size = 4
?ReadData@MixOption@@QAEXPAD@Z PROC			; MixOption::ReadData
; _this$ = ecx

; 34   : {

  00080	55		 push	 ebp
  00081	8b ec		 mov	 ebp, esp
  00083	83 ec 48	 sub	 esp, 72			; 00000048H
  00086	53		 push	 ebx
  00087	56		 push	 esi
  00088	57		 push	 edi
  00089	89 4d fc	 mov	 DWORD PTR _this$[ebp], ecx

; 35   : 	int Token;
; 36   : 	this->Init();

  0008c	8b 4d fc	 mov	 ecx, DWORD PTR _this$[ebp]
  0008f	e8 00 00 00 00	 call	 ?Init@MixOption@@QAEXXZ	; MixOption::Init

; 37   : 	// ----
; 38   : 	SMDFile = fopen(File, "r");

  00094	68 00 00 00 00	 push	 OFFSET ??_C@_01KDCPPGHE@r?$AA@
  00099	8b 45 08	 mov	 eax, DWORD PTR _File$[ebp]
  0009c	50		 push	 eax
  0009d	e8 00 00 00 00	 call	 _fopen
  000a2	83 c4 08	 add	 esp, 8
  000a5	a3 00 00 00 00	 mov	 DWORD PTR _SMDFile, eax

; 39   : 	// ----
; 40   : 	if( SMDFile == 0 )

  000aa	83 3d 00 00 00
	00 00		 cmp	 DWORD PTR _SMDFile, 0
  000b1	75 1e		 jne	 SHORT $LN6@ReadData

; 41   : 	{
; 42   : 		MsgBox(lMsg.Get(MSGGET(0, 112)), File);

  000b3	8b 45 08	 mov	 eax, DWORD PTR _File$[ebp]
  000b6	50		 push	 eax
  000b7	6a 70		 push	 112			; 00000070H
  000b9	b9 00 00 00 00	 mov	 ecx, OFFSET ?lMsg@@3VCMsg@@A ; lMsg
  000be	e8 00 00 00 00	 call	 ?Get@CMsg@@QAEPADH@Z	; CMsg::Get
  000c3	50		 push	 eax
  000c4	e8 00 00 00 00	 call	 ?MsgBox@@YAXPADZZ	; MsgBox
  000c9	83 c4 08	 add	 esp, 8

; 43   : 		return;

  000cc	e9 c7 00 00 00	 jmp	 $LN7@ReadData
$LN6@ReadData:

; 44   : 	}
; 45   : 	// ----
; 46   : 	while(true) 

  000d1	b8 01 00 00 00	 mov	 eax, 1
  000d6	85 c0		 test	 eax, eax
  000d8	0f 84 98 00 00
	00		 je	 $LN4@ReadData

; 47   : 	{
; 48   : 		Token = GetToken();

  000de	e8 00 00 00 00	 call	 ?GetToken@@YA?AW4SMDToken@@XZ ; GetToken
  000e3	89 45 f8	 mov	 DWORD PTR _Token$[ebp], eax

; 49   : 		// ----
; 50   : 		if( Token == END || !strcmp(TokenString, "end") )

  000e6	83 7d f8 02	 cmp	 DWORD PTR _Token$[ebp], 2
  000ea	74 16		 je	 SHORT $LN2@ReadData
  000ec	68 00 00 00 00	 push	 OFFSET ??_C@_03JBJLGPFL@end?$AA@
  000f1	68 00 00 00 00	 push	 OFFSET _TokenString
  000f6	e8 00 00 00 00	 call	 _strcmp
  000fb	83 c4 08	 add	 esp, 8
  000fe	85 c0		 test	 eax, eax
  00100	75 04		 jne	 SHORT $LN3@ReadData
$LN2@ReadData:

; 51   : 		{
; 52   : 			break;

  00102	eb 72		 jmp	 SHORT $LN4@ReadData

; 53   : 		}
; 54   : 		else

  00104	eb 6b		 jmp	 SHORT $LN1@ReadData
$LN3@ReadData:

; 55   : 		{
; 56   : 			this->m_Data[this->m_LoadedCount].MixCode		= TokenNumber;

  00106	d9 05 00 00 00
	00		 fld	 DWORD PTR _TokenNumber
  0010c	e8 00 00 00 00	 call	 __ftol2_sse
  00111	8b 4d fc	 mov	 ecx, DWORD PTR _this$[ebp]
  00114	8b 11		 mov	 edx, DWORD PTR [ecx]
  00116	6b d2 0c	 imul	 edx, 12			; 0000000cH
  00119	8b 4d fc	 mov	 ecx, DWORD PTR _this$[ebp]
  0011c	89 44 11 04	 mov	 DWORD PTR [ecx+edx+4], eax

; 57   : 			Token = GetToken();

  00120	e8 00 00 00 00	 call	 ?GetToken@@YA?AW4SMDToken@@XZ ; GetToken
  00125	89 45 f8	 mov	 DWORD PTR _Token$[ebp], eax

; 58   : 			this->m_Data[this->m_LoadedCount].Money			= TokenNumber;

  00128	d9 05 00 00 00
	00		 fld	 DWORD PTR _TokenNumber
  0012e	e8 00 00 00 00	 call	 __ftol2_sse
  00133	8b 4d fc	 mov	 ecx, DWORD PTR _this$[ebp]
  00136	8b 11		 mov	 edx, DWORD PTR [ecx]
  00138	6b d2 0c	 imul	 edx, 12			; 0000000cH
  0013b	8b 4d fc	 mov	 ecx, DWORD PTR _this$[ebp]
  0013e	89 44 11 08	 mov	 DWORD PTR [ecx+edx+8], eax

; 59   : 			Token = GetToken();

  00142	e8 00 00 00 00	 call	 ?GetToken@@YA?AW4SMDToken@@XZ ; GetToken
  00147	89 45 f8	 mov	 DWORD PTR _Token$[ebp], eax

; 60   : 			this->m_Data[this->m_LoadedCount].SuccessRate	= TokenNumber;

  0014a	d9 05 00 00 00
	00		 fld	 DWORD PTR _TokenNumber
  00150	e8 00 00 00 00	 call	 __ftol2_sse
  00155	8b 4d fc	 mov	 ecx, DWORD PTR _this$[ebp]
  00158	8b 11		 mov	 edx, DWORD PTR [ecx]
  0015a	6b d2 0c	 imul	 edx, 12			; 0000000cH
  0015d	8b 4d fc	 mov	 ecx, DWORD PTR _this$[ebp]
  00160	89 44 11 0c	 mov	 DWORD PTR [ecx+edx+12], eax

; 61   : 			// ----
; 62   : 			this->m_LoadedCount++;

  00164	8b 45 fc	 mov	 eax, DWORD PTR _this$[ebp]
  00167	8b 08		 mov	 ecx, DWORD PTR [eax]
  00169	83 c1 01	 add	 ecx, 1
  0016c	8b 55 fc	 mov	 edx, DWORD PTR _this$[ebp]
  0016f	89 0a		 mov	 DWORD PTR [edx], ecx
$LN1@ReadData:

; 63   : 		}
; 64   : 	}

  00171	e9 5b ff ff ff	 jmp	 $LN6@ReadData
$LN4@ReadData:

; 65   : 	// ----
; 66   : 	LogAddTD("[MixOption] [%d] Mixes loaded from list", this->m_LoadedCount);

  00176	8b 45 fc	 mov	 eax, DWORD PTR _this$[ebp]
  00179	8b 08		 mov	 ecx, DWORD PTR [eax]
  0017b	51		 push	 ecx
  0017c	68 00 00 00 00	 push	 OFFSET ??_C@_0CI@EKBMIKOF@?$FLMixOption?$FN?5?$FL?$CFd?$FN?5Mixes?5loaded?5fr@
  00181	ff 15 00 00 00
	00		 call	 DWORD PTR ?LogAddTD@@3P6AXPADZZA ; LogAddTD
  00187	83 c4 08	 add	 esp, 8

; 67   : 	fclose(SMDFile);

  0018a	a1 00 00 00 00	 mov	 eax, DWORD PTR _SMDFile
  0018f	50		 push	 eax
  00190	e8 00 00 00 00	 call	 _fclose
  00195	83 c4 04	 add	 esp, 4
$LN7@ReadData:

; 68   : }

  00198	5f		 pop	 edi
  00199	5e		 pop	 esi
  0019a	5b		 pop	 ebx
  0019b	8b e5		 mov	 esp, ebp
  0019d	5d		 pop	 ebp
  0019e	c2 04 00	 ret	 4
?ReadData@MixOption@@QAEXPAD@Z ENDP			; MixOption::ReadData
_TEXT	ENDS
PUBLIC	__$ArrayPad$
EXTRN	_isalnum:PROC
EXTRN	_isalpha:PROC
EXTRN	_atof:PROC
EXTRN	_isdigit:PROC
EXTRN	_getc:PROC
EXTRN	_ungetc:PROC
EXTRN	_isspace:PROC
EXTRN	_fgetc:PROC
EXTRN	___security_cookie:DWORD
EXTRN	__fltused:DWORD
EXTRN	@__security_check_cookie@4:PROC
_BSS	SEGMENT
_CurrentToken DD 01H DUP (?)
; Function compile flags: /Odtp /ZI
; File d:\projects\exteam6.3\source\gameserver\include\readscript.h
_BSS	ENDS
_TEXT	SEGMENT
tv90 = -180						; size = 4
_TempString$ = -112					; size = 100
_p$ = -12						; size = 4
_ch$ = -5						; size = 1
__$ArrayPad$ = -4					; size = 4
?GetToken@@YA?AW4SMDToken@@XZ PROC			; GetToken

; 24   : {

  001b0	55		 push	 ebp
  001b1	8b ec		 mov	 ebp, esp
  001b3	81 ec b4 00 00
	00		 sub	 esp, 180		; 000000b4H
  001b9	a1 00 00 00 00	 mov	 eax, DWORD PTR ___security_cookie
  001be	33 c5		 xor	 eax, ebp
  001c0	89 45 fc	 mov	 DWORD PTR __$ArrayPad$[ebp], eax
  001c3	53		 push	 ebx
  001c4	56		 push	 esi
  001c5	57		 push	 edi

; 25   : 	char ch;
; 26   : 	char* p;
; 27   : 	char TempString[100];
; 28   : 
; 29   : 	TokenString[0]=0;

  001c6	c6 05 00 00 00
	00 00		 mov	 BYTE PTR _TokenString, 0
$LN31@GetToken:

; 30   : 
; 31   : 	do
; 32   : 	{
; 33   : 		if ((ch=fgetc(SMDFile)) == -1)

  001cd	a1 00 00 00 00	 mov	 eax, DWORD PTR _SMDFile
  001d2	50		 push	 eax
  001d3	e8 00 00 00 00	 call	 _fgetc
  001d8	83 c4 04	 add	 esp, 4
  001db	88 45 fb	 mov	 BYTE PTR _ch$[ebp], al
  001de	0f be 4d fb	 movsx	 ecx, BYTE PTR _ch$[ebp]
  001e2	83 f9 ff	 cmp	 ecx, -1
  001e5	75 0c		 jne	 SHORT $LN28@GetToken

; 34   : 		{
; 35   : 			return END;	// End of FILE (EOF)

  001e7	b8 02 00 00 00	 mov	 eax, 2
  001ec	e9 f7 02 00 00	 jmp	 $LN32@GetToken

; 36   : 		}
; 37   : 		else

  001f1	eb 5b		 jmp	 SHORT $LN22@GetToken
$LN28@GetToken:

; 38   : 		{	
; 39   : 			if (ch=='/')		// this is /

  001f3	0f be 45 fb	 movsx	 eax, BYTE PTR _ch$[ebp]
  001f7	83 f8 2f	 cmp	 eax, 47			; 0000002fH
  001fa	75 52		 jne	 SHORT $LN22@GetToken

; 40   : 			{
; 41   : 				if((ch=fgetc(SMDFile)) == '/')

  001fc	a1 00 00 00 00	 mov	 eax, DWORD PTR _SMDFile
  00201	50		 push	 eax
  00202	e8 00 00 00 00	 call	 _fgetc
  00207	83 c4 04	 add	 esp, 4
  0020a	88 45 fb	 mov	 BYTE PTR _ch$[ebp], al
  0020d	0f be 4d fb	 movsx	 ecx, BYTE PTR _ch$[ebp]
  00211	83 f9 2f	 cmp	 ecx, 47			; 0000002fH
  00214	75 38		 jne	 SHORT $LN22@GetToken
$LN24@GetToken:

; 42   : 				{
; 43   : 					while ((ch != '\n') && (ch != -1))	// End of Line (EOL)

  00216	0f be 45 fb	 movsx	 eax, BYTE PTR _ch$[ebp]
  0021a	83 f8 0a	 cmp	 eax, 10			; 0000000aH
  0021d	74 1c		 je	 SHORT $LN23@GetToken
  0021f	0f be 45 fb	 movsx	 eax, BYTE PTR _ch$[ebp]
  00223	83 f8 ff	 cmp	 eax, -1
  00226	74 13		 je	 SHORT $LN23@GetToken

; 44   : 					{
; 45   : 						ch=fgetc(SMDFile);

  00228	a1 00 00 00 00	 mov	 eax, DWORD PTR _SMDFile
  0022d	50		 push	 eax
  0022e	e8 00 00 00 00	 call	 _fgetc
  00233	83 c4 04	 add	 esp, 4
  00236	88 45 fb	 mov	 BYTE PTR _ch$[ebp], al

; 46   : 					}

  00239	eb db		 jmp	 SHORT $LN24@GetToken
$LN23@GetToken:

; 47   : 	
; 48   : 					if (ch == -1)

  0023b	0f be 45 fb	 movsx	 eax, BYTE PTR _ch$[ebp]
  0023f	83 f8 ff	 cmp	 eax, -1
  00242	75 0a		 jne	 SHORT $LN22@GetToken

; 49   : 					{
; 50   : 						return END;	// End of FILE

  00244	b8 02 00 00 00	 mov	 eax, 2
  00249	e9 9a 02 00 00	 jmp	 $LN32@GetToken
$LN22@GetToken:

; 51   : 					}
; 52   : 				}
; 53   : 			}
; 54   : 		}
; 55   : 	}
; 56   : 	while (isspace(ch) != 0);

  0024e	0f be 45 fb	 movsx	 eax, BYTE PTR _ch$[ebp]
  00252	50		 push	 eax
  00253	e8 00 00 00 00	 call	 _isspace
  00258	83 c4 04	 add	 esp, 4
  0025b	85 c0		 test	 eax, eax
  0025d	0f 85 6a ff ff
	ff		 jne	 $LN31@GetToken

; 57   : 
; 58   : 	
; 59   : 	switch(ch)

  00263	0f be 45 fb	 movsx	 eax, BYTE PTR _ch$[ebp]
  00267	89 85 4c ff ff
	ff		 mov	 DWORD PTR tv90[ebp], eax
  0026d	8b 8d 4c ff ff
	ff		 mov	 ecx, DWORD PTR tv90[ebp]
  00273	83 e9 22	 sub	 ecx, 34			; 00000022H
  00276	89 8d 4c ff ff
	ff		 mov	 DWORD PTR tv90[ebp], ecx
  0027c	83 bd 4c ff ff
	ff 5b		 cmp	 DWORD PTR tv90[ebp], 91	; 0000005bH
  00283	0f 87 a3 01 00
	00		 ja	 $LN6@GetToken
  00289	8b 95 4c ff ff
	ff		 mov	 edx, DWORD PTR tv90[ebp]
  0028f	0f b6 82 00 00
	00 00		 movzx	 eax, BYTE PTR $LN34@GetToken[edx]
  00296	ff 24 85 00 00
	00 00		 jmp	 DWORD PTR $LN35@GetToken[eax*4]
$LN19@GetToken:

; 60   : 	{
; 61   : 
; 62   : 	case 0x23:	// #
; 63   : 		return CurrentToken=COMMAND;

  0029d	c7 05 00 00 00
	00 23 00 00 00	 mov	 DWORD PTR _CurrentToken, 35 ; 00000023H
  002a7	a1 00 00 00 00	 mov	 eax, DWORD PTR _CurrentToken
  002ac	e9 37 02 00 00	 jmp	 $LN32@GetToken

; 64   : 		break;

  002b1	e9 30 02 00 00	 jmp	 $LN20@GetToken
$LN18@GetToken:

; 65   : 	
; 66   : 	case 0x3B:	// ;
; 67   : 		return CurrentToken=SEMICOLON;

  002b6	c7 05 00 00 00
	00 3b 00 00 00	 mov	 DWORD PTR _CurrentToken, 59 ; 0000003bH
  002c0	a1 00 00 00 00	 mov	 eax, DWORD PTR _CurrentToken
  002c5	e9 1e 02 00 00	 jmp	 $LN32@GetToken

; 68   : 		break;

  002ca	e9 17 02 00 00	 jmp	 $LN20@GetToken
$LN17@GetToken:

; 69   : 	
; 70   : 	case 0x2C:	// ,
; 71   : 
; 72   : 		return CurrentToken=COMMA;

  002cf	c7 05 00 00 00
	00 2c 00 00 00	 mov	 DWORD PTR _CurrentToken, 44 ; 0000002cH
  002d9	a1 00 00 00 00	 mov	 eax, DWORD PTR _CurrentToken
  002de	e9 05 02 00 00	 jmp	 $LN32@GetToken

; 73   : 		break;

  002e3	e9 fe 01 00 00	 jmp	 $LN20@GetToken
$LN16@GetToken:

; 74   : 	
; 75   : 	case 0x7B:	// {
; 76   : 		return CurrentToken = LP;

  002e8	c7 05 00 00 00
	00 7b 00 00 00	 mov	 DWORD PTR _CurrentToken, 123 ; 0000007bH
  002f2	a1 00 00 00 00	 mov	 eax, DWORD PTR _CurrentToken
  002f7	e9 ec 01 00 00	 jmp	 $LN32@GetToken

; 77   : 		break;

  002fc	e9 e5 01 00 00	 jmp	 $LN20@GetToken
$LN15@GetToken:

; 78   : 
; 79   : 	case 0x7D:	// }
; 80   : 		return CurrentToken = RP;

  00301	c7 05 00 00 00
	00 7d 00 00 00	 mov	 DWORD PTR _CurrentToken, 125 ; 0000007dH
  0030b	a1 00 00 00 00	 mov	 eax, DWORD PTR _CurrentToken
  00310	e9 d3 01 00 00	 jmp	 $LN32@GetToken

; 81   : 		break;

  00315	e9 cc 01 00 00	 jmp	 $LN20@GetToken
$LN14@GetToken:

; 82   : 	// Nice Index Table :)	by Deathway
; 83   : 	// Numbers Case
; 84   : 	case 0x2D:	//-
; 85   : 	case 0x2E:	//.
; 86   : 	case '0':	//0
; 87   : 	case '1':	//1
; 88   : 	case '2':	//2
; 89   : 	case '3':	//3
; 90   : 	case '4':	//4		
; 91   : 	case '5':	//5
; 92   : 	case '6':	//6
; 93   : 	case '7':	//7
; 94   : 	case '8':	//8
; 95   : 	case '9':	//9
; 96   : 		ungetc(ch, SMDFile);

  0031a	a1 00 00 00 00	 mov	 eax, DWORD PTR _SMDFile
  0031f	50		 push	 eax
  00320	0f be 4d fb	 movsx	 ecx, BYTE PTR _ch$[ebp]
  00324	51		 push	 ecx
  00325	e8 00 00 00 00	 call	 _ungetc
  0032a	83 c4 08	 add	 esp, 8

; 97   : 		p = TempString;

  0032d	8d 45 90	 lea	 eax, DWORD PTR _TempString$[ebp]
  00330	89 45 f4	 mov	 DWORD PTR _p$[ebp], eax
$LN13@GetToken:

; 98   : 		
; 99   : 		while (((ch=getc(SMDFile)) != -1) && ((ch == 0x2E) || (isdigit(ch) != 0) || (ch == 0x2D)))  // 2e '.'  2D '-'

  00333	a1 00 00 00 00	 mov	 eax, DWORD PTR _SMDFile
  00338	50		 push	 eax
  00339	e8 00 00 00 00	 call	 _getc
  0033e	83 c4 04	 add	 esp, 4
  00341	88 45 fb	 mov	 BYTE PTR _ch$[ebp], al
  00344	0f be 4d fb	 movsx	 ecx, BYTE PTR _ch$[ebp]
  00348	83 f9 ff	 cmp	 ecx, -1
  0034b	74 36		 je	 SHORT $LN12@GetToken
  0034d	0f be 45 fb	 movsx	 eax, BYTE PTR _ch$[ebp]
  00351	83 f8 2e	 cmp	 eax, 46			; 0000002eH
  00354	74 1a		 je	 SHORT $LN11@GetToken
  00356	0f be 45 fb	 movsx	 eax, BYTE PTR _ch$[ebp]
  0035a	50		 push	 eax
  0035b	e8 00 00 00 00	 call	 _isdigit
  00360	83 c4 04	 add	 esp, 4
  00363	85 c0		 test	 eax, eax
  00365	75 09		 jne	 SHORT $LN11@GetToken
  00367	0f be 45 fb	 movsx	 eax, BYTE PTR _ch$[ebp]
  0036b	83 f8 2d	 cmp	 eax, 45			; 0000002dH
  0036e	75 13		 jne	 SHORT $LN12@GetToken
$LN11@GetToken:

; 100  : 		{
; 101  : 			*p = ch;	// Construct a String

  00370	8b 45 f4	 mov	 eax, DWORD PTR _p$[ebp]
  00373	8a 4d fb	 mov	 cl, BYTE PTR _ch$[ebp]
  00376	88 08		 mov	 BYTE PTR [eax], cl

; 102  : 			p++;

  00378	8b 45 f4	 mov	 eax, DWORD PTR _p$[ebp]
  0037b	83 c0 01	 add	 eax, 1
  0037e	89 45 f4	 mov	 DWORD PTR _p$[ebp], eax

; 103  : 		}		

  00381	eb b0		 jmp	 SHORT $LN13@GetToken
$LN12@GetToken:

; 104  : 		*p = 0;

  00383	8b 45 f4	 mov	 eax, DWORD PTR _p$[ebp]
  00386	c6 00 00	 mov	 BYTE PTR [eax], 0

; 105  : 		TokenNumber = atof( TempString);	// Select the first Byte as Main ID

  00389	8d 45 90	 lea	 eax, DWORD PTR _TempString$[ebp]
  0038c	50		 push	 eax
  0038d	e8 00 00 00 00	 call	 _atof
  00392	83 c4 04	 add	 esp, 4
  00395	d9 1d 00 00 00
	00		 fstp	 DWORD PTR _TokenNumber

; 106  : 		return CurrentToken  = NUMBER ;

  0039b	c7 05 00 00 00
	00 01 00 00 00	 mov	 DWORD PTR _CurrentToken, 1
  003a5	a1 00 00 00 00	 mov	 eax, DWORD PTR _CurrentToken
  003aa	e9 39 01 00 00	 jmp	 $LN32@GetToken

; 107  : 		break;

  003af	e9 32 01 00 00	 jmp	 $LN20@GetToken
$LN10@GetToken:

; 108  : 
; 109  : 	case '\"':	// "	String Case
; 110  : 		p=&TokenString[0];

  003b4	c7 45 f4 00 00
	00 00		 mov	 DWORD PTR _p$[ebp], OFFSET _TokenString
$LN9@GetToken:

; 111  : 		
; 112  : 		while (((ch=getc(SMDFile)) != -1 ) && (ch != 0x22))	// nice

  003bb	a1 00 00 00 00	 mov	 eax, DWORD PTR _SMDFile
  003c0	50		 push	 eax
  003c1	e8 00 00 00 00	 call	 _getc
  003c6	83 c4 04	 add	 esp, 4
  003c9	88 45 fb	 mov	 BYTE PTR _ch$[ebp], al
  003cc	0f be 4d fb	 movsx	 ecx, BYTE PTR _ch$[ebp]
  003d0	83 f9 ff	 cmp	 ecx, -1
  003d3	74 1c		 je	 SHORT $LN8@GetToken
  003d5	0f be 45 fb	 movsx	 eax, BYTE PTR _ch$[ebp]
  003d9	83 f8 22	 cmp	 eax, 34			; 00000022H
  003dc	74 13		 je	 SHORT $LN8@GetToken

; 113  : 		{
; 114  : 			*p = ch;

  003de	8b 45 f4	 mov	 eax, DWORD PTR _p$[ebp]
  003e1	8a 4d fb	 mov	 cl, BYTE PTR _ch$[ebp]
  003e4	88 08		 mov	 BYTE PTR [eax], cl

; 115  : 			p++;

  003e6	8b 45 f4	 mov	 eax, DWORD PTR _p$[ebp]
  003e9	83 c0 01	 add	 eax, 1
  003ec	89 45 f4	 mov	 DWORD PTR _p$[ebp], eax

; 116  : 		}

  003ef	eb ca		 jmp	 SHORT $LN9@GetToken
$LN8@GetToken:

; 117  : 		if (ch != 0x22 )

  003f1	0f be 45 fb	 movsx	 eax, BYTE PTR _ch$[ebp]
  003f5	83 f8 22	 cmp	 eax, 34			; 00000022H
  003f8	74 13		 je	 SHORT $LN7@GetToken

; 118  : 		{
; 119  : 			ungetc(ch, SMDFile);

  003fa	a1 00 00 00 00	 mov	 eax, DWORD PTR _SMDFile
  003ff	50		 push	 eax
  00400	0f be 4d fb	 movsx	 ecx, BYTE PTR _ch$[ebp]
  00404	51		 push	 ecx
  00405	e8 00 00 00 00	 call	 _ungetc
  0040a	83 c4 08	 add	 esp, 8
$LN7@GetToken:

; 120  : 		}
; 121  : 		*p = 0;

  0040d	8b 45 f4	 mov	 eax, DWORD PTR _p$[ebp]
  00410	c6 00 00	 mov	 BYTE PTR [eax], 0

; 122  : 		return CurrentToken = NAME;

  00413	c7 05 00 00 00
	00 00 00 00 00	 mov	 DWORD PTR _CurrentToken, 0
  0041d	a1 00 00 00 00	 mov	 eax, DWORD PTR _CurrentToken
  00422	e9 c1 00 00 00	 jmp	 $LN32@GetToken

; 123  : 		break;

  00427	e9 ba 00 00 00	 jmp	 $LN20@GetToken
$LN6@GetToken:

; 124  : 
; 125  : 	default:	// Others
; 126  : 		if (isalpha(ch))

  0042c	0f be 45 fb	 movsx	 eax, BYTE PTR _ch$[ebp]
  00430	50		 push	 eax
  00431	e8 00 00 00 00	 call	 _isalpha
  00436	83 c4 04	 add	 esp, 4
  00439	85 c0		 test	 eax, eax
  0043b	0f 84 94 00 00
	00		 je	 $LN5@GetToken

; 127  : 		{
; 128  : 			p=&TokenString[0];

  00441	c7 45 f4 00 00
	00 00		 mov	 DWORD PTR _p$[ebp], OFFSET _TokenString

; 129  : 			*p=ch;

  00448	8b 45 f4	 mov	 eax, DWORD PTR _p$[ebp]
  0044b	8a 4d fb	 mov	 cl, BYTE PTR _ch$[ebp]
  0044e	88 08		 mov	 BYTE PTR [eax], cl

; 130  : 			p++;

  00450	8b 45 f4	 mov	 eax, DWORD PTR _p$[ebp]
  00453	83 c0 01	 add	 eax, 1
  00456	89 45 f4	 mov	 DWORD PTR _p$[ebp], eax
$LN4@GetToken:

; 131  : 
; 132  : 			while ( ((ch=getc(SMDFile)) != -1) && ( (ch == 0x2E) || (ch == 0x5F) || (isalnum(ch) != 0) ) )

  00459	a1 00 00 00 00	 mov	 eax, DWORD PTR _SMDFile
  0045e	50		 push	 eax
  0045f	e8 00 00 00 00	 call	 _getc
  00464	83 c4 04	 add	 esp, 4
  00467	88 45 fb	 mov	 BYTE PTR _ch$[ebp], al
  0046a	0f be 4d fb	 movsx	 ecx, BYTE PTR _ch$[ebp]
  0046e	83 f9 ff	 cmp	 ecx, -1
  00471	74 36		 je	 SHORT $LN3@GetToken
  00473	0f be 45 fb	 movsx	 eax, BYTE PTR _ch$[ebp]
  00477	83 f8 2e	 cmp	 eax, 46			; 0000002eH
  0047a	74 1a		 je	 SHORT $LN2@GetToken
  0047c	0f be 45 fb	 movsx	 eax, BYTE PTR _ch$[ebp]
  00480	83 f8 5f	 cmp	 eax, 95			; 0000005fH
  00483	74 11		 je	 SHORT $LN2@GetToken
  00485	0f be 45 fb	 movsx	 eax, BYTE PTR _ch$[ebp]
  00489	50		 push	 eax
  0048a	e8 00 00 00 00	 call	 _isalnum
  0048f	83 c4 04	 add	 esp, 4
  00492	85 c0		 test	 eax, eax
  00494	74 13		 je	 SHORT $LN3@GetToken
$LN2@GetToken:

; 133  : 			{
; 134  : 				*p=ch;

  00496	8b 45 f4	 mov	 eax, DWORD PTR _p$[ebp]
  00499	8a 4d fb	 mov	 cl, BYTE PTR _ch$[ebp]
  0049c	88 08		 mov	 BYTE PTR [eax], cl

; 135  : 				p++;

  0049e	8b 45 f4	 mov	 eax, DWORD PTR _p$[ebp]
  004a1	83 c0 01	 add	 eax, 1
  004a4	89 45 f4	 mov	 DWORD PTR _p$[ebp], eax

; 136  : 				
; 137  : 			}

  004a7	eb b0		 jmp	 SHORT $LN4@GetToken
$LN3@GetToken:

; 138  : 
; 139  : 			ungetc(ch, SMDFile);

  004a9	a1 00 00 00 00	 mov	 eax, DWORD PTR _SMDFile
  004ae	50		 push	 eax
  004af	0f be 4d fb	 movsx	 ecx, BYTE PTR _ch$[ebp]
  004b3	51		 push	 ecx
  004b4	e8 00 00 00 00	 call	 _ungetc
  004b9	83 c4 08	 add	 esp, 8

; 140  : 			*p=0;

  004bc	8b 45 f4	 mov	 eax, DWORD PTR _p$[ebp]
  004bf	c6 00 00	 mov	 BYTE PTR [eax], 0

; 141  : 			CurrentToken=NAME;

  004c2	c7 05 00 00 00
	00 00 00 00 00	 mov	 DWORD PTR _CurrentToken, 0

; 142  : 			return CurrentToken;

  004cc	a1 00 00 00 00	 mov	 eax, DWORD PTR _CurrentToken
  004d1	eb 15		 jmp	 SHORT $LN32@GetToken

; 143  : 		}
; 144  : 		else

  004d3	eb 11		 jmp	 SHORT $LN1@GetToken
$LN5@GetToken:

; 145  : 		{
; 146  : 			return CurrentToken = SMD_ERROR; // '<'

  004d5	c7 05 00 00 00
	00 3c 00 00 00	 mov	 DWORD PTR _CurrentToken, 60 ; 0000003cH
  004df	a1 00 00 00 00	 mov	 eax, DWORD PTR _CurrentToken
  004e4	eb 02		 jmp	 SHORT $LN32@GetToken
$LN1@GetToken:
$LN20@GetToken:

; 147  : 		}
; 148  : 		break;
; 149  : 
; 150  : 	}
; 151  : 
; 152  : 	return NAME;

  004e6	33 c0		 xor	 eax, eax
$LN32@GetToken:

; 153  : }

  004e8	5f		 pop	 edi
  004e9	5e		 pop	 esi
  004ea	5b		 pop	 ebx
  004eb	8b 4d fc	 mov	 ecx, DWORD PTR __$ArrayPad$[ebp]
  004ee	33 cd		 xor	 ecx, ebp
  004f0	e8 00 00 00 00	 call	 @__security_check_cookie@4
  004f5	8b e5		 mov	 esp, ebp
  004f7	5d		 pop	 ebp
  004f8	c3		 ret	 0
  004f9	8d 49 00	 npad	 3
$LN35@GetToken:
  004fc	00 00 00 00	 DD	 $LN10@GetToken
  00500	00 00 00 00	 DD	 $LN19@GetToken
  00504	00 00 00 00	 DD	 $LN17@GetToken
  00508	00 00 00 00	 DD	 $LN14@GetToken
  0050c	00 00 00 00	 DD	 $LN18@GetToken
  00510	00 00 00 00	 DD	 $LN16@GetToken
  00514	00 00 00 00	 DD	 $LN15@GetToken
  00518	00 00 00 00	 DD	 $LN6@GetToken
$LN34@GetToken:
  0051c	00		 DB	 0
  0051d	01		 DB	 1
  0051e	07		 DB	 7
  0051f	07		 DB	 7
  00520	07		 DB	 7
  00521	07		 DB	 7
  00522	07		 DB	 7
  00523	07		 DB	 7
  00524	07		 DB	 7
  00525	07		 DB	 7
  00526	02		 DB	 2
  00527	03		 DB	 3
  00528	03		 DB	 3
  00529	07		 DB	 7
  0052a	03		 DB	 3
  0052b	03		 DB	 3
  0052c	03		 DB	 3
  0052d	03		 DB	 3
  0052e	03		 DB	 3
  0052f	03		 DB	 3
  00530	03		 DB	 3
  00531	03		 DB	 3
  00532	03		 DB	 3
  00533	03		 DB	 3
  00534	07		 DB	 7
  00535	04		 DB	 4
  00536	07		 DB	 7
  00537	07		 DB	 7
  00538	07		 DB	 7
  00539	07		 DB	 7
  0053a	07		 DB	 7
  0053b	07		 DB	 7
  0053c	07		 DB	 7
  0053d	07		 DB	 7
  0053e	07		 DB	 7
  0053f	07		 DB	 7
  00540	07		 DB	 7
  00541	07		 DB	 7
  00542	07		 DB	 7
  00543	07		 DB	 7
  00544	07		 DB	 7
  00545	07		 DB	 7
  00546	07		 DB	 7
  00547	07		 DB	 7
  00548	07		 DB	 7
  00549	07		 DB	 7
  0054a	07		 DB	 7
  0054b	07		 DB	 7
  0054c	07		 DB	 7
  0054d	07		 DB	 7
  0054e	07		 DB	 7
  0054f	07		 DB	 7
  00550	07		 DB	 7
  00551	07		 DB	 7
  00552	07		 DB	 7
  00553	07		 DB	 7
  00554	07		 DB	 7
  00555	07		 DB	 7
  00556	07		 DB	 7
  00557	07		 DB	 7
  00558	07		 DB	 7
  00559	07		 DB	 7
  0055a	07		 DB	 7
  0055b	07		 DB	 7
  0055c	07		 DB	 7
  0055d	07		 DB	 7
  0055e	07		 DB	 7
  0055f	07		 DB	 7
  00560	07		 DB	 7
  00561	07		 DB	 7
  00562	07		 DB	 7
  00563	07		 DB	 7
  00564	07		 DB	 7
  00565	07		 DB	 7
  00566	07		 DB	 7
  00567	07		 DB	 7
  00568	07		 DB	 7
  00569	07		 DB	 7
  0056a	07		 DB	 7
  0056b	07		 DB	 7
  0056c	07		 DB	 7
  0056d	07		 DB	 7
  0056e	07		 DB	 7
  0056f	07		 DB	 7
  00570	07		 DB	 7
  00571	07		 DB	 7
  00572	07		 DB	 7
  00573	07		 DB	 7
  00574	07		 DB	 7
  00575	05		 DB	 5
  00576	07		 DB	 7
  00577	06		 DB	 6
?GetToken@@YA?AW4SMDToken@@XZ ENDP			; GetToken
_TEXT	ENDS
PUBLIC	??_C@_0BF@DKEMMKFB@ExData?2MixOption?4txt?$AA@	; `string'
PUBLIC	?Load@MixOption@@QAEXXZ				; MixOption::Load
EXTRN	?GetNewPath@CDirPath@@QAEPADPAD@Z:PROC		; CDirPath::GetNewPath
EXTRN	?gDirPath@@3VCDirPath@@A:BYTE			; gDirPath
;	COMDAT ??_C@_0BF@DKEMMKFB@ExData?2MixOption?4txt?$AA@
; File d:\projects\exteam6.3\source\gameserver\gameserver\mixoption.cpp
CONST	SEGMENT
??_C@_0BF@DKEMMKFB@ExData?2MixOption?4txt?$AA@ DB 'ExData\MixOption.txt', 00H ; `string'
; Function compile flags: /Odtp /ZI
CONST	ENDS
_TEXT	SEGMENT
_this$ = -4						; size = 4
?Load@MixOption@@QAEXXZ PROC				; MixOption::Load
; _this$ = ecx

; 72   : {

  00580	55		 push	 ebp
  00581	8b ec		 mov	 ebp, esp
  00583	83 ec 44	 sub	 esp, 68			; 00000044H
  00586	53		 push	 ebx
  00587	56		 push	 esi
  00588	57		 push	 edi
  00589	89 4d fc	 mov	 DWORD PTR _this$[ebp], ecx

; 73   : 	this->ReadData(gDirPath.GetNewPath("ExData\\MixOption.txt"));

  0058c	68 00 00 00 00	 push	 OFFSET ??_C@_0BF@DKEMMKFB@ExData?2MixOption?4txt?$AA@
  00591	b9 00 00 00 00	 mov	 ecx, OFFSET ?gDirPath@@3VCDirPath@@A ; gDirPath
  00596	e8 00 00 00 00	 call	 ?GetNewPath@CDirPath@@QAEPADPAD@Z ; CDirPath::GetNewPath
  0059b	50		 push	 eax
  0059c	8b 4d fc	 mov	 ecx, DWORD PTR _this$[ebp]
  0059f	e8 00 00 00 00	 call	 ?ReadData@MixOption@@QAEXPAD@Z ; MixOption::ReadData

; 74   : }

  005a4	5f		 pop	 edi
  005a5	5e		 pop	 esi
  005a6	5b		 pop	 ebx
  005a7	8b e5		 mov	 esp, ebp
  005a9	5d		 pop	 ebp
  005aa	c3		 ret	 0
?Load@MixOption@@QAEXXZ ENDP				; MixOption::Load
_TEXT	ENDS
PUBLIC	??_C@_0BO@HCHLGNCE@?$FLMixOption?$FN?5?$FL?$CFd?$FN?5Money?5?$CL?5?$FL?$CFd?$FN?$AA@ ; `string'
PUBLIC	?GetMoney@MixOption@@QAEHPAUOBJECTSTRUCT@@H@Z	; MixOption::GetMoney
;	COMDAT ??_C@_0BO@HCHLGNCE@?$FLMixOption?$FN?5?$FL?$CFd?$FN?5Money?5?$CL?5?$FL?$CFd?$FN?$AA@
CONST	SEGMENT
??_C@_0BO@HCHLGNCE@?$FLMixOption?$FN?5?$FL?$CFd?$FN?5Money?5?$CL?5?$FL?$CFd?$FN?$AA@ DB '['
	DB	'MixOption] [%d] Money + [%d]', 00H		; `string'
; Function compile flags: /Odtp /ZI
CONST	ENDS
_TEXT	SEGMENT
_i$227193 = -8						; size = 4
_this$ = -4						; size = 4
_lpUser$ = 8						; size = 4
_MixCode$ = 12						; size = 4
?GetMoney@MixOption@@QAEHPAUOBJECTSTRUCT@@H@Z PROC	; MixOption::GetMoney
; _this$ = ecx

; 78   : {

  005b0	55		 push	 ebp
  005b1	8b ec		 mov	 ebp, esp
  005b3	83 ec 48	 sub	 esp, 72			; 00000048H
  005b6	53		 push	 ebx
  005b7	56		 push	 esi
  005b8	57		 push	 edi
  005b9	89 4d fc	 mov	 DWORD PTR _this$[ebp], ecx

; 79   : 	for( int i = 0; i < this->m_LoadedCount; i++ )

  005bc	c7 45 f8 00 00
	00 00		 mov	 DWORD PTR _i$227193[ebp], 0
  005c3	eb 09		 jmp	 SHORT $LN4@GetMoney
$LN3@GetMoney:
  005c5	8b 45 f8	 mov	 eax, DWORD PTR _i$227193[ebp]
  005c8	83 c0 01	 add	 eax, 1
  005cb	89 45 f8	 mov	 DWORD PTR _i$227193[ebp], eax
$LN4@GetMoney:
  005ce	8b 45 fc	 mov	 eax, DWORD PTR _this$[ebp]
  005d1	8b 4d f8	 mov	 ecx, DWORD PTR _i$227193[ebp]
  005d4	3b 08		 cmp	 ecx, DWORD PTR [eax]
  005d6	7d 43		 jge	 SHORT $LN2@GetMoney

; 80   : 	{
; 81   : 		if( this->m_Data[i].MixCode == MixCode )

  005d8	8b 45 f8	 mov	 eax, DWORD PTR _i$227193[ebp]
  005db	6b c0 0c	 imul	 eax, 12			; 0000000cH
  005de	8b 4d fc	 mov	 ecx, DWORD PTR _this$[ebp]
  005e1	8b 54 01 04	 mov	 edx, DWORD PTR [ecx+eax+4]
  005e5	3b 55 0c	 cmp	 edx, DWORD PTR _MixCode$[ebp]
  005e8	75 2f		 jne	 SHORT $LN1@GetMoney

; 82   : 		{
; 83   : 			LogAddTD("[MixOption] [%d] Money + [%d]", 
; 84   : 				MixCode, this->m_Data[i].Money);

  005ea	8b 45 f8	 mov	 eax, DWORD PTR _i$227193[ebp]
  005ed	6b c0 0c	 imul	 eax, 12			; 0000000cH
  005f0	8b 4d fc	 mov	 ecx, DWORD PTR _this$[ebp]
  005f3	8b 54 01 08	 mov	 edx, DWORD PTR [ecx+eax+8]
  005f7	52		 push	 edx
  005f8	8b 45 0c	 mov	 eax, DWORD PTR _MixCode$[ebp]
  005fb	50		 push	 eax
  005fc	68 00 00 00 00	 push	 OFFSET ??_C@_0BO@HCHLGNCE@?$FLMixOption?$FN?5?$FL?$CFd?$FN?5Money?5?$CL?5?$FL?$CFd?$FN?$AA@
  00601	ff 15 00 00 00
	00		 call	 DWORD PTR ?LogAddTD@@3P6AXPADZZA ; LogAddTD
  00607	83 c4 0c	 add	 esp, 12			; 0000000cH

; 85   : 			return this->m_Data[i].Money;

  0060a	8b 45 f8	 mov	 eax, DWORD PTR _i$227193[ebp]
  0060d	6b c0 0c	 imul	 eax, 12			; 0000000cH
  00610	8b 4d fc	 mov	 ecx, DWORD PTR _this$[ebp]
  00613	8b 44 01 08	 mov	 eax, DWORD PTR [ecx+eax+8]
  00617	eb 04		 jmp	 SHORT $LN5@GetMoney
$LN1@GetMoney:

; 86   : 		}
; 87   : 	}

  00619	eb aa		 jmp	 SHORT $LN3@GetMoney
$LN2@GetMoney:

; 88   : 	// ----
; 89   : 	return 0;

  0061b	33 c0		 xor	 eax, eax
$LN5@GetMoney:

; 90   : }

  0061d	5f		 pop	 edi
  0061e	5e		 pop	 esi
  0061f	5b		 pop	 ebx
  00620	8b e5		 mov	 esp, ebp
  00622	5d		 pop	 ebp
  00623	c2 08 00	 ret	 8
?GetMoney@MixOption@@QAEHPAUOBJECTSTRUCT@@H@Z ENDP	; MixOption::GetMoney
_TEXT	ENDS
PUBLIC	??_C@_0CE@MDCINFJH@?$FLMixOption?$FN?5?$FL?$CFd?$FN?5SuccessRate?5?$CL?5?$FL@ ; `string'
PUBLIC	?GetSuccessRate@MixOption@@QAEHPAUOBJECTSTRUCT@@H@Z ; MixOption::GetSuccessRate
;	COMDAT ??_C@_0CE@MDCINFJH@?$FLMixOption?$FN?5?$FL?$CFd?$FN?5SuccessRate?5?$CL?5?$FL@
CONST	SEGMENT
??_C@_0CE@MDCINFJH@?$FLMixOption?$FN?5?$FL?$CFd?$FN?5SuccessRate?5?$CL?5?$FL@ DB '['
	DB	'MixOption] [%d] SuccessRate + [%d]', 00H	; `string'
; Function compile flags: /Odtp /ZI
CONST	ENDS
_TEXT	SEGMENT
_i$227204 = -8						; size = 4
_this$ = -4						; size = 4
_lpUser$ = 8						; size = 4
_MixCode$ = 12						; size = 4
?GetSuccessRate@MixOption@@QAEHPAUOBJECTSTRUCT@@H@Z PROC ; MixOption::GetSuccessRate
; _this$ = ecx

; 94   : {

  00630	55		 push	 ebp
  00631	8b ec		 mov	 ebp, esp
  00633	83 ec 48	 sub	 esp, 72			; 00000048H
  00636	53		 push	 ebx
  00637	56		 push	 esi
  00638	57		 push	 edi
  00639	89 4d fc	 mov	 DWORD PTR _this$[ebp], ecx

; 95   : 	for( int i = 0; i < this->m_LoadedCount; i++ )

  0063c	c7 45 f8 00 00
	00 00		 mov	 DWORD PTR _i$227204[ebp], 0
  00643	eb 09		 jmp	 SHORT $LN4@GetSuccess
$LN3@GetSuccess:
  00645	8b 45 f8	 mov	 eax, DWORD PTR _i$227204[ebp]
  00648	83 c0 01	 add	 eax, 1
  0064b	89 45 f8	 mov	 DWORD PTR _i$227204[ebp], eax
$LN4@GetSuccess:
  0064e	8b 45 fc	 mov	 eax, DWORD PTR _this$[ebp]
  00651	8b 4d f8	 mov	 ecx, DWORD PTR _i$227204[ebp]
  00654	3b 08		 cmp	 ecx, DWORD PTR [eax]
  00656	7d 43		 jge	 SHORT $LN2@GetSuccess

; 96   : 	{
; 97   : 		if( this->m_Data[i].MixCode == MixCode )

  00658	8b 45 f8	 mov	 eax, DWORD PTR _i$227204[ebp]
  0065b	6b c0 0c	 imul	 eax, 12			; 0000000cH
  0065e	8b 4d fc	 mov	 ecx, DWORD PTR _this$[ebp]
  00661	8b 54 01 04	 mov	 edx, DWORD PTR [ecx+eax+4]
  00665	3b 55 0c	 cmp	 edx, DWORD PTR _MixCode$[ebp]
  00668	75 2f		 jne	 SHORT $LN1@GetSuccess

; 98   : 		{
; 99   : 			LogAddTD("[MixOption] [%d] SuccessRate + [%d]", 
; 100  : 				MixCode, this->m_Data[i].SuccessRate);

  0066a	8b 45 f8	 mov	 eax, DWORD PTR _i$227204[ebp]
  0066d	6b c0 0c	 imul	 eax, 12			; 0000000cH
  00670	8b 4d fc	 mov	 ecx, DWORD PTR _this$[ebp]
  00673	8b 54 01 0c	 mov	 edx, DWORD PTR [ecx+eax+12]
  00677	52		 push	 edx
  00678	8b 45 0c	 mov	 eax, DWORD PTR _MixCode$[ebp]
  0067b	50		 push	 eax
  0067c	68 00 00 00 00	 push	 OFFSET ??_C@_0CE@MDCINFJH@?$FLMixOption?$FN?5?$FL?$CFd?$FN?5SuccessRate?5?$CL?5?$FL@
  00681	ff 15 00 00 00
	00		 call	 DWORD PTR ?LogAddTD@@3P6AXPADZZA ; LogAddTD
  00687	83 c4 0c	 add	 esp, 12			; 0000000cH

; 101  : 			return this->m_Data[i].SuccessRate;

  0068a	8b 45 f8	 mov	 eax, DWORD PTR _i$227204[ebp]
  0068d	6b c0 0c	 imul	 eax, 12			; 0000000cH
  00690	8b 4d fc	 mov	 ecx, DWORD PTR _this$[ebp]
  00693	8b 44 01 0c	 mov	 eax, DWORD PTR [ecx+eax+12]
  00697	eb 04		 jmp	 SHORT $LN5@GetSuccess
$LN1@GetSuccess:

; 102  : 		}
; 103  : 	}

  00699	eb aa		 jmp	 SHORT $LN3@GetSuccess
$LN2@GetSuccess:

; 104  : 	// ----
; 105  : 	return 0;

  0069b	33 c0		 xor	 eax, eax
$LN5@GetSuccess:

; 106  : }

  0069d	5f		 pop	 edi
  0069e	5e		 pop	 esi
  0069f	5b		 pop	 ebx
  006a0	8b e5		 mov	 esp, ebp
  006a2	5d		 pop	 ebp
  006a3	c2 08 00	 ret	 8
?GetSuccessRate@MixOption@@QAEHPAUOBJECTSTRUCT@@H@Z ENDP ; MixOption::GetSuccessRate
_TEXT	ENDS
PUBLIC	?GetOption@MixOption@@QAEXPAUOBJECTSTRUCT@@H@Z	; MixOption::GetOption
; Function compile flags: /Odtp /ZI
_TEXT	SEGMENT
_this$ = -4						; size = 4
_lpUser$ = 8						; size = 4
_MixCode$ = 12						; size = 4
?GetOption@MixOption@@QAEXPAUOBJECTSTRUCT@@H@Z PROC	; MixOption::GetOption
; _this$ = ecx

; 110  : {

  006b0	55		 push	 ebp
  006b1	8b ec		 mov	 ebp, esp
  006b3	83 ec 44	 sub	 esp, 68			; 00000044H
  006b6	53		 push	 ebx
  006b7	56		 push	 esi
  006b8	57		 push	 edi
  006b9	89 4d fc	 mov	 DWORD PTR _this$[ebp], ecx

; 111  : 	lpUser->m_AddMixMoney		= 0;

  006bc	8b 45 08	 mov	 eax, DWORD PTR _lpUser$[ebp]
  006bf	c7 80 1c 28 00
	00 00 00 00 00	 mov	 DWORD PTR [eax+10268], 0

; 112  : 	lpUser->m_AddMixSuccessRate = 0;

  006c9	8b 45 08	 mov	 eax, DWORD PTR _lpUser$[ebp]
  006cc	c7 80 20 28 00
	00 00 00 00 00	 mov	 DWORD PTR [eax+10272], 0

; 113  : 	lpUser->m_AddMixMoney		= this->GetMoney(lpUser, MixCode);

  006d6	8b 45 0c	 mov	 eax, DWORD PTR _MixCode$[ebp]
  006d9	50		 push	 eax
  006da	8b 4d 08	 mov	 ecx, DWORD PTR _lpUser$[ebp]
  006dd	51		 push	 ecx
  006de	8b 4d fc	 mov	 ecx, DWORD PTR _this$[ebp]
  006e1	e8 00 00 00 00	 call	 ?GetMoney@MixOption@@QAEHPAUOBJECTSTRUCT@@H@Z ; MixOption::GetMoney
  006e6	8b 55 08	 mov	 edx, DWORD PTR _lpUser$[ebp]
  006e9	89 82 1c 28 00
	00		 mov	 DWORD PTR [edx+10268], eax

; 114  : 	lpUser->m_AddMixSuccessRate = this->GetSuccessRate(lpUser, MixCode);

  006ef	8b 45 0c	 mov	 eax, DWORD PTR _MixCode$[ebp]
  006f2	50		 push	 eax
  006f3	8b 4d 08	 mov	 ecx, DWORD PTR _lpUser$[ebp]
  006f6	51		 push	 ecx
  006f7	8b 4d fc	 mov	 ecx, DWORD PTR _this$[ebp]
  006fa	e8 00 00 00 00	 call	 ?GetSuccessRate@MixOption@@QAEHPAUOBJECTSTRUCT@@H@Z ; MixOption::GetSuccessRate
  006ff	8b 55 08	 mov	 edx, DWORD PTR _lpUser$[ebp]
  00702	89 82 20 28 00
	00		 mov	 DWORD PTR [edx+10272], eax

; 115  : }

  00708	5f		 pop	 edi
  00709	5e		 pop	 esi
  0070a	5b		 pop	 ebx
  0070b	8b e5		 mov	 esp, ebp
  0070d	5d		 pop	 ebp
  0070e	c2 08 00	 ret	 8
?GetOption@MixOption@@QAEXPAUOBJECTSTRUCT@@H@Z ENDP	; MixOption::GetOption
_TEXT	ENDS
EXTRN	_atexit:PROC
; Function compile flags: /Odtp /ZI
;	COMDAT ??__Eg_MixOption@@YAXXZ
text$yc	SEGMENT
??__Eg_MixOption@@YAXXZ PROC				; `dynamic initializer for 'g_MixOption'', COMDAT

; 11   : MixOption g_MixOption;

  00000	55		 push	 ebp
  00001	8b ec		 mov	 ebp, esp
  00003	83 ec 40	 sub	 esp, 64			; 00000040H
  00006	53		 push	 ebx
  00007	56		 push	 esi
  00008	57		 push	 edi
  00009	b9 00 00 00 00	 mov	 ecx, OFFSET ?g_MixOption@@3VMixOption@@A ; g_MixOption
  0000e	e8 00 00 00 00	 call	 ??0MixOption@@QAE@XZ	; MixOption::MixOption
  00013	68 00 00 00 00	 push	 OFFSET ??__Fg_MixOption@@YAXXZ ; `dynamic atexit destructor for 'g_MixOption''
  00018	e8 00 00 00 00	 call	 _atexit
  0001d	83 c4 04	 add	 esp, 4
  00020	5f		 pop	 edi
  00021	5e		 pop	 esi
  00022	5b		 pop	 ebx
  00023	8b e5		 mov	 esp, ebp
  00025	5d		 pop	 ebp
  00026	c3		 ret	 0
??__Eg_MixOption@@YAXXZ ENDP				; `dynamic initializer for 'g_MixOption''
; Function compile flags: /Odtp /ZI
text$yc	ENDS
;	COMDAT ??__Fg_MixOption@@YAXXZ
text$yd	SEGMENT
??__Fg_MixOption@@YAXXZ PROC				; `dynamic atexit destructor for 'g_MixOption'', COMDAT
  00000	55		 push	 ebp
  00001	8b ec		 mov	 ebp, esp
  00003	83 ec 40	 sub	 esp, 64			; 00000040H
  00006	53		 push	 ebx
  00007	56		 push	 esi
  00008	57		 push	 edi
  00009	b9 00 00 00 00	 mov	 ecx, OFFSET ?g_MixOption@@3VMixOption@@A ; g_MixOption
  0000e	e8 00 00 00 00	 call	 ??1MixOption@@QAE@XZ	; MixOption::~MixOption
  00013	5f		 pop	 edi
  00014	5e		 pop	 esi
  00015	5b		 pop	 ebx
  00016	8b e5		 mov	 esp, ebp
  00018	5d		 pop	 ebp
  00019	c3		 ret	 0
??__Fg_MixOption@@YAXXZ ENDP				; `dynamic atexit destructor for 'g_MixOption''
text$yd	ENDS
PUBLIC	?g_MixOption@@3VMixOption@@A			; g_MixOption
_BSS	SEGMENT
?g_MixOption@@3VMixOption@@A DB 04b4H DUP (?)		; g_MixOption
_BSS	ENDS
CRT$XCU	SEGMENT
_g_MixOption$initializer$ DD FLAT:??__Eg_MixOption@@YAXXZ
CRT$XCU	ENDS
END
