; Listing generated by Microsoft (R) Optimizing Compiler Version 16.00.40219.01 

	TITLE	D:\Projects\ExTeam6.3\Source\GameServer\GameServer\MixSystem.cpp
	.686P
	.XMM
	include listing.inc
	.model	flat

INCLUDELIB LIBCMT
INCLUDELIB OLDNAMES

_DATA	SEGMENT
_g_iNpcUpDfLevel_CGATE DD 01H
	DD	02H
	DD	02dc6c0H
	DD	02H
	DD	03H
	DD	02dc6c0H
	DD	03H
	DD	04H
	DD	02dc6c0H
_g_iNpcUpDfLevel_CSTATUE DD 01H
	DD	03H
	DD	02dc6c0H
	DD	02H
	DD	05H
	DD	02dc6c0H
	DD	03H
	DD	07H
	DD	02dc6c0H
_g_iNpcUpMaxHP_CGATE DD 02625a0H
	DD	02H
	DD	0f4240H
	DD	03567e0H
	DD	03H
	DD	0f4240H
	DD	04f5880H
	DD	04H
	DD	0f4240H
_g_iNpcUpMaxHP_CSTATUE DD 02191c0H
	DD	03H
	DD	0f4240H
	DD	033e140H
	DD	05H
	DD	0f4240H
	DD	04c4b40H
	DD	07H
	DD	0f4240H
_g_iNpcUpRgLevel_CSTATUE DD 01H
	DD	03H
	DD	04c4b40H
	DD	02H
	DD	05H
	DD	04c4b40H
	DD	03H
	DD	07H
	DD	04c4b40H
_g_iCsUserReSpawnArea DD 023H
	DD	011H
	DD	090H
	DD	030H
	DD	04aH
	DD	090H
	DD	073H
	DD	09aH
	DD	023H
	DD	011H
	DD	090H
	DD	030H
_g_iNpcDefense_CGATE DD 064H
	DD	0b4H
	DD	012cH
	DD	0208H
_g_iNpcDefense_CSTATUE DD 050H
	DD	0b4H
	DD	0154H
	DD	0226H
_g_iCastleWallStepAxisY DD 071H
	DD	0a0H
	DD	0cbH
_g_sttBLOODCASTLE_LEVEL DD 0fH
	DD	050H
	DD	0aH
	DD	03cH
	DD	051H
	DD	082H
	DD	03dH
	DD	06eH
	DD	083H
	DD	0b4H
	DD	06fH
	DD	0a0H
	DD	0b5H
	DD	0e6H
	DD	0a1H
	DD	0d2H
	DD	0e7H
	DD	0118H
	DD	0d3H
	DD	0104H
	DD	0119H
	DD	014aH
	DD	0105H
	DD	0136H
	DD	014bH
	DD	0190H
	DD	0137H
	DD	0190H
	DD	0fH
	DD	0257H
	DD	0aH
	DD	0257H
_DATA	ENDS
PUBLIC	??_H@YGXPAXIHP6EPAX0@Z@Z			; `vector constructor iterator'
; Function compile flags: /Odtp /ZI
;	COMDAT ??_H@YGXPAXIHP6EPAX0@Z@Z
_TEXT	SEGMENT
___t$ = 8						; size = 4
___s$ = 12						; size = 4
___n$ = 16						; size = 4
___f$ = 20						; size = 4
??_H@YGXPAXIHP6EPAX0@Z@Z PROC				; `vector constructor iterator', COMDAT
  00000	55		 push	 ebp
  00001	8b ec		 mov	 ebp, esp
  00003	83 ec 40	 sub	 esp, 64			; 00000040H
  00006	53		 push	 ebx
  00007	56		 push	 esi
  00008	57		 push	 edi
$LN2@vector:
  00009	8b 45 10	 mov	 eax, DWORD PTR ___n$[ebp]
  0000c	83 e8 01	 sub	 eax, 1
  0000f	89 45 10	 mov	 DWORD PTR ___n$[ebp], eax
  00012	78 11		 js	 SHORT $LN3@vector
  00014	8b 4d 08	 mov	 ecx, DWORD PTR ___t$[ebp]
  00017	ff 55 14	 call	 DWORD PTR ___f$[ebp]
  0001a	8b 45 08	 mov	 eax, DWORD PTR ___t$[ebp]
  0001d	03 45 0c	 add	 eax, DWORD PTR ___s$[ebp]
  00020	89 45 08	 mov	 DWORD PTR ___t$[ebp], eax
  00023	eb e4		 jmp	 SHORT $LN2@vector
$LN3@vector:
  00025	5f		 pop	 edi
  00026	5e		 pop	 esi
  00027	5b		 pop	 ebx
  00028	8b e5		 mov	 esp, ebp
  0002a	5d		 pop	 ebp
  0002b	c2 10 00	 ret	 16			; 00000010H
??_H@YGXPAXIHP6EPAX0@Z@Z ENDP				; `vector constructor iterator'
_TEXT	ENDS
PUBLIC	??_7CMixSystem@@6B@				; CMixSystem::`vftable'
PUBLIC	??0CMixSystem@@QAE@XZ				; CMixSystem::CMixSystem
PUBLIC	??_R4CMixSystem@@6B@				; CMixSystem::`RTTI Complete Object Locator'
PUBLIC	??_R0?AVCMixSystem@@@8				; CMixSystem `RTTI Type Descriptor'
PUBLIC	??_R3CMixSystem@@8				; CMixSystem::`RTTI Class Hierarchy Descriptor'
PUBLIC	??_R2CMixSystem@@8				; CMixSystem::`RTTI Base Class Array'
PUBLIC	??_R1A@?0A@EA@CMixSystem@@8			; CMixSystem::`RTTI Base Class Descriptor at (0,-1,0,64)'
EXTRN	??_7type_info@@6B@:QWORD			; type_info::`vftable'
EXTRN	??_ECMixSystem@@UAEPAXI@Z:PROC			; CMixSystem::`vector deleting destructor'
;	COMDAT ??_R1A@?0A@EA@CMixSystem@@8
; File d:\projects\exteam6.3\source\gameserver\gameserver\mixsystem.cpp
rdata$r	SEGMENT
??_R1A@?0A@EA@CMixSystem@@8 DD FLAT:??_R0?AVCMixSystem@@@8 ; CMixSystem::`RTTI Base Class Descriptor at (0,-1,0,64)'
	DD	00H
	DD	00H
	DD	0ffffffffH
	DD	00H
	DD	040H
	DD	FLAT:??_R3CMixSystem@@8
rdata$r	ENDS
;	COMDAT ??_R2CMixSystem@@8
rdata$r	SEGMENT
??_R2CMixSystem@@8 DD FLAT:??_R1A@?0A@EA@CMixSystem@@8	; CMixSystem::`RTTI Base Class Array'
rdata$r	ENDS
;	COMDAT ??_R3CMixSystem@@8
rdata$r	SEGMENT
??_R3CMixSystem@@8 DD 00H				; CMixSystem::`RTTI Class Hierarchy Descriptor'
	DD	00H
	DD	01H
	DD	FLAT:??_R2CMixSystem@@8
rdata$r	ENDS
;	COMDAT ??_R0?AVCMixSystem@@@8
_DATA	SEGMENT
??_R0?AVCMixSystem@@@8 DD FLAT:??_7type_info@@6B@	; CMixSystem `RTTI Type Descriptor'
	DD	00H
	DB	'.?AVCMixSystem@@', 00H
_DATA	ENDS
;	COMDAT ??_R4CMixSystem@@6B@
rdata$r	SEGMENT
??_R4CMixSystem@@6B@ DD 00H				; CMixSystem::`RTTI Complete Object Locator'
	DD	00H
	DD	00H
	DD	FLAT:??_R0?AVCMixSystem@@@8
	DD	FLAT:??_R3CMixSystem@@8
rdata$r	ENDS
;	COMDAT ??_7CMixSystem@@6B@
CONST	SEGMENT
??_7CMixSystem@@6B@ DD FLAT:??_R4CMixSystem@@6B@	; CMixSystem::`vftable'
	DD	FLAT:??_ECMixSystem@@UAEPAXI@Z
; Function compile flags: /Odtp /ZI
CONST	ENDS
_TEXT	SEGMENT
_this$ = -4						; size = 4
??0CMixSystem@@QAE@XZ PROC				; CMixSystem::CMixSystem
; _this$ = ecx

; 27   : {

  00000	55		 push	 ebp
  00001	8b ec		 mov	 ebp, esp
  00003	83 ec 44	 sub	 esp, 68			; 00000044H
  00006	53		 push	 ebx
  00007	56		 push	 esi
  00008	57		 push	 edi
  00009	89 4d fc	 mov	 DWORD PTR _this$[ebp], ecx
  0000c	8b 45 fc	 mov	 eax, DWORD PTR _this$[ebp]
  0000f	c7 00 00 00 00
	00		 mov	 DWORD PTR [eax], OFFSET ??_7CMixSystem@@6B@

; 28   : 	this->iJewelofChaos = ITEMGET(12,15);

  00015	8b 45 fc	 mov	 eax, DWORD PTR _this$[ebp]
  00018	c7 40 04 0f 18
	00 00		 mov	 DWORD PTR [eax+4], 6159	; 0000180fH

; 29   : 	this->iJewelofBless = ITEMGET(14,13);

  0001f	8b 45 fc	 mov	 eax, DWORD PTR _this$[ebp]
  00022	c7 40 08 0d 1c
	00 00		 mov	 DWORD PTR [eax+8], 7181	; 00001c0dH

; 30   : 	this->iJewelofSoul = ITEMGET(14,14);

  00029	8b 45 fc	 mov	 eax, DWORD PTR _this$[ebp]
  0002c	c7 40 0c 0e 1c
	00 00		 mov	 DWORD PTR [eax+12], 7182 ; 00001c0eH

; 31   : 	this->iJewelofCreation = ITEMGET(14,22);

  00033	8b 45 fc	 mov	 eax, DWORD PTR _this$[ebp]
  00036	c7 40 10 16 1c
	00 00		 mov	 DWORD PTR [eax+16], 7190 ; 00001c16H

; 32   : 	this->iBundleofBless = ITEMGET(12,30);

  0003d	8b 45 fc	 mov	 eax, DWORD PTR _this$[ebp]
  00040	c7 40 14 1e 18
	00 00		 mov	 DWORD PTR [eax+20], 6174 ; 0000181eH

; 33   : 	this->iBundleofSoul = ITEMGET(12,31);

  00047	8b 45 fc	 mov	 eax, DWORD PTR _this$[ebp]
  0004a	c7 40 18 1f 18
	00 00		 mov	 DWORD PTR [eax+24], 6175 ; 0000181fH

; 34   : 	this->iCondorFeather = ITEMGET(13,53);

  00051	8b 45 fc	 mov	 eax, DWORD PTR _this$[ebp]
  00054	c7 40 1c 35 1a
	00 00		 mov	 DWORD PTR [eax+28], 6709 ; 00001a35H

; 35   : 	this->iCondorFlame = ITEMGET(13,52);

  0005b	8b 45 fc	 mov	 eax, DWORD PTR _this$[ebp]
  0005e	c7 40 20 34 1a
	00 00		 mov	 DWORD PTR [eax+32], 6708 ; 00001a34H

; 36   : 	this->iWingofStorm = ITEMGET(12,36);

  00065	8b 45 fc	 mov	 eax, DWORD PTR _this$[ebp]
  00068	c7 40 24 24 18
	00 00		 mov	 DWORD PTR [eax+36], 6180 ; 00001824H

; 37   : 	this->iWingofEternal = ITEMGET(12,37);

  0006f	8b 45 fc	 mov	 eax, DWORD PTR _this$[ebp]
  00072	c7 40 28 25 18
	00 00		 mov	 DWORD PTR [eax+40], 6181 ; 00001825H

; 38   : 	this->iWingofIllusion = ITEMGET(12,38);

  00079	8b 45 fc	 mov	 eax, DWORD PTR _this$[ebp]
  0007c	c7 40 2c 26 18
	00 00		 mov	 DWORD PTR [eax+44], 6182 ; 00001826H

; 39   : 	this->iWingofRuin = ITEMGET(12,39);

  00083	8b 45 fc	 mov	 eax, DWORD PTR _this$[ebp]
  00086	c7 40 30 27 18
	00 00		 mov	 DWORD PTR [eax+48], 6183 ; 00001827H

; 40   : 	this->iCapeofLord = ITEMGET(12,40);

  0008d	8b 45 fc	 mov	 eax, DWORD PTR _this$[ebp]
  00090	c7 40 34 28 18
	00 00		 mov	 DWORD PTR [eax+52], 6184 ; 00001828H

; 41   : 	this->iWingofDimension = ITEMGET(12,43);

  00097	8b 45 fc	 mov	 eax, DWORD PTR _this$[ebp]
  0009a	c7 40 38 2b 18
	00 00		 mov	 DWORD PTR [eax+56], 6187 ; 0000182bH

; 42   : 	this->CAPE_OF_OVERRULE_ITEMINDEX	= ITEMGET(12, 50);	//OK, +60

  000a1	8b 45 fc	 mov	 eax, DWORD PTR _this$[ebp]
  000a4	c7 40 3c 32 18
	00 00		 mov	 DWORD PTR [eax+60], 6194 ; 00001832H

; 43   : 
; 44   : 	this->i3rdWingLuckRate = 50;

  000ab	8b 45 fc	 mov	 eax, DWORD PTR _this$[ebp]
  000ae	c7 40 40 32 00
	00 00		 mov	 DWORD PTR [eax+64], 50	; 00000032H

; 45   : }

  000b5	8b 45 fc	 mov	 eax, DWORD PTR _this$[ebp]
  000b8	5f		 pop	 edi
  000b9	5e		 pop	 esi
  000ba	5b		 pop	 ebx
  000bb	8b e5		 mov	 esp, ebp
  000bd	5d		 pop	 ebp
  000be	c3		 ret	 0
??0CMixSystem@@QAE@XZ ENDP				; CMixSystem::CMixSystem
_TEXT	ENDS
PUBLIC	??1CMixSystem@@UAE@XZ				; CMixSystem::~CMixSystem
EXTRN	??3@YAXPAX@Z:PROC				; operator delete
; Function compile flags: /Odtp /ZI
;	COMDAT ??_GCMixSystem@@UAEPAXI@Z
_TEXT	SEGMENT
_this$ = -4						; size = 4
___flags$ = 8						; size = 4
??_GCMixSystem@@UAEPAXI@Z PROC				; CMixSystem::`scalar deleting destructor', COMDAT
; _this$ = ecx
  00000	55		 push	 ebp
  00001	8b ec		 mov	 ebp, esp
  00003	83 ec 44	 sub	 esp, 68			; 00000044H
  00006	53		 push	 ebx
  00007	56		 push	 esi
  00008	57		 push	 edi
  00009	89 4d fc	 mov	 DWORD PTR _this$[ebp], ecx
  0000c	8b 4d fc	 mov	 ecx, DWORD PTR _this$[ebp]
  0000f	e8 00 00 00 00	 call	 ??1CMixSystem@@UAE@XZ	; CMixSystem::~CMixSystem
  00014	8b 45 08	 mov	 eax, DWORD PTR ___flags$[ebp]
  00017	83 e0 01	 and	 eax, 1
  0001a	74 0c		 je	 SHORT $LN1@scalar
  0001c	8b 45 fc	 mov	 eax, DWORD PTR _this$[ebp]
  0001f	50		 push	 eax
  00020	e8 00 00 00 00	 call	 ??3@YAXPAX@Z		; operator delete
  00025	83 c4 04	 add	 esp, 4
$LN1@scalar:
  00028	8b 45 fc	 mov	 eax, DWORD PTR _this$[ebp]
  0002b	5f		 pop	 edi
  0002c	5e		 pop	 esi
  0002d	5b		 pop	 ebx
  0002e	8b e5		 mov	 esp, ebp
  00030	5d		 pop	 ebp
  00031	c2 04 00	 ret	 4
??_GCMixSystem@@UAEPAXI@Z ENDP				; CMixSystem::`scalar deleting destructor'
; Function compile flags: /Odtp /ZI
_TEXT	ENDS
_TEXT	SEGMENT
_this$ = -4						; size = 4
??1CMixSystem@@UAE@XZ PROC				; CMixSystem::~CMixSystem
; _this$ = ecx

; 48   : {

  000c0	55		 push	 ebp
  000c1	8b ec		 mov	 ebp, esp
  000c3	83 ec 44	 sub	 esp, 68			; 00000044H
  000c6	53		 push	 ebx
  000c7	56		 push	 esi
  000c8	57		 push	 edi
  000c9	89 4d fc	 mov	 DWORD PTR _this$[ebp], ecx
  000cc	8b 45 fc	 mov	 eax, DWORD PTR _this$[ebp]
  000cf	c7 00 00 00 00
	00		 mov	 DWORD PTR [eax], OFFSET ??_7CMixSystem@@6B@

; 49   : 
; 50   : }

  000d5	5f		 pop	 edi
  000d6	5e		 pop	 esi
  000d7	5b		 pop	 ebx
  000d8	8b e5		 mov	 esp, ebp
  000da	5d		 pop	 ebp
  000db	c3		 ret	 0
??1CMixSystem@@UAE@XZ ENDP				; CMixSystem::~CMixSystem
_TEXT	ENDS
PUBLIC	?ChaosBoxCheck@CMixSystem@@QAEHPAUOBJECTSTRUCT@@@Z ; CMixSystem::ChaosBoxCheck
; Function compile flags: /Odtp /ZI
_TEXT	SEGMENT
_this$ = -4						; size = 4
_lpObj$ = 8						; size = 4
?ChaosBoxCheck@CMixSystem@@QAEHPAUOBJECTSTRUCT@@@Z PROC	; CMixSystem::ChaosBoxCheck
; _this$ = ecx

; 53   : {

  000e0	55		 push	 ebp
  000e1	8b ec		 mov	 ebp, esp
  000e3	83 ec 44	 sub	 esp, 68			; 00000044H
  000e6	53		 push	 ebx
  000e7	56		 push	 esi
  000e8	57		 push	 edi
  000e9	89 4d fc	 mov	 DWORD PTR _this$[ebp], ecx

; 54   : 	if ( lpObj->pChaosBox == NULL )

  000ec	8b 45 08	 mov	 eax, DWORD PTR _lpObj$[ebp]
  000ef	83 b8 78 0e 00
	00 00		 cmp	 DWORD PTR [eax+3704], 0
  000f6	75 04		 jne	 SHORT $LN1@ChaosBoxCh

; 55   : 	{
; 56   : 		return false;

  000f8	33 c0		 xor	 eax, eax
  000fa	eb 05		 jmp	 SHORT $LN2@ChaosBoxCh
$LN1@ChaosBoxCh:

; 57   : 	}
; 58   : 
; 59   : 	return true;

  000fc	b8 01 00 00 00	 mov	 eax, 1
$LN2@ChaosBoxCh:

; 60   : }

  00101	5f		 pop	 edi
  00102	5e		 pop	 esi
  00103	5b		 pop	 ebx
  00104	8b e5		 mov	 esp, ebp
  00106	5d		 pop	 ebp
  00107	c2 04 00	 ret	 4
?ChaosBoxCheck@CMixSystem@@QAEHPAUOBJECTSTRUCT@@@Z ENDP	; CMixSystem::ChaosBoxCheck
_TEXT	ENDS
PUBLIC	?ChaosBoxInit@CMixSystem@@QAEHPAUOBJECTSTRUCT@@@Z ; CMixSystem::ChaosBoxInit
EXTRN	??_V@YAXPAX@Z:PROC				; operator delete[]
EXTRN	??0CItem@@QAE@XZ:PROC				; CItem::CItem
EXTRN	??_U@YAPAXI@Z:PROC				; operator new[]
EXTRN	?Clear@CItem@@QAEXXZ:PROC			; CItem::Clear
EXTRN	___security_cookie:DWORD
EXTRN	___CxxFrameHandler3:PROC
EXTRN	@__security_check_cookie@4:PROC
xdata$x	SEGMENT
__unwindtable$?ChaosBoxInit@CMixSystem@@QAEHPAUOBJECTSTRUCT@@@Z DD 0ffffffffH
	DD	FLAT:__unwindfunclet$?ChaosBoxInit@CMixSystem@@QAEHPAUOBJECTSTRUCT@@@Z$0
__ehfuncinfo$?ChaosBoxInit@CMixSystem@@QAEHPAUOBJECTSTRUCT@@@Z DD 019930522H
	DD	01H
	DD	FLAT:__unwindtable$?ChaosBoxInit@CMixSystem@@QAEHPAUOBJECTSTRUCT@@@Z
	DD	2 DUP(00H)
	DD	2 DUP(00H)
	DD	00H
	DD	01H
; Function compile flags: /Odtp /ZI
xdata$x	ENDS
_TEXT	SEGMENT
tv86 = -104						; size = 4
$T238527 = -100						; size = 4
$T238528 = -96						; size = 4
$T238531 = -92						; size = 4
$T238532 = -88						; size = 4
_n$ = -20						; size = 4
_this$ = -16						; size = 4
__$EHRec$ = -12						; size = 12
_lpObj$ = 8						; size = 4
?ChaosBoxInit@CMixSystem@@QAEHPAUOBJECTSTRUCT@@@Z PROC	; CMixSystem::ChaosBoxInit
; _this$ = ecx

; 63   : {

  00110	55		 push	 ebp
  00111	8b ec		 mov	 ebp, esp
  00113	6a ff		 push	 -1
  00115	68 00 00 00 00	 push	 __ehhandler$?ChaosBoxInit@CMixSystem@@QAEHPAUOBJECTSTRUCT@@@Z
  0011a	64 a1 00 00 00
	00		 mov	 eax, DWORD PTR fs:0
  00120	50		 push	 eax
  00121	83 ec 5c	 sub	 esp, 92			; 0000005cH
  00124	53		 push	 ebx
  00125	56		 push	 esi
  00126	57		 push	 edi
  00127	a1 00 00 00 00	 mov	 eax, DWORD PTR ___security_cookie
  0012c	33 c5		 xor	 eax, ebp
  0012e	50		 push	 eax
  0012f	8d 45 f4	 lea	 eax, DWORD PTR __$EHRec$[ebp]
  00132	64 a3 00 00 00
	00		 mov	 DWORD PTR fs:0, eax
  00138	89 4d f0	 mov	 DWORD PTR _this$[ebp], ecx

; 64   : 	int n;
; 65   : 
; 66   : 	if ( lpObj->pChaosBox != NULL )

  0013b	8b 45 08	 mov	 eax, DWORD PTR _lpObj$[ebp]
  0013e	83 b8 78 0e 00
	00 00		 cmp	 DWORD PTR [eax+3704], 0
  00145	74 65		 je	 SHORT $LN12@ChaosBoxIn

; 67   : 	{
; 68   : 		for (n=0;n<CHAOS_BOX_SIZE;n++)

  00147	c7 45 ec 00 00
	00 00		 mov	 DWORD PTR _n$[ebp], 0
  0014e	eb 09		 jmp	 SHORT $LN11@ChaosBoxIn
$LN10@ChaosBoxIn:
  00150	8b 45 ec	 mov	 eax, DWORD PTR _n$[ebp]
  00153	83 c0 01	 add	 eax, 1
  00156	89 45 ec	 mov	 DWORD PTR _n$[ebp], eax
$LN11@ChaosBoxIn:
  00159	83 7d ec 20	 cmp	 DWORD PTR _n$[ebp], 32	; 00000020H
  0015d	7d 19		 jge	 SHORT $LN9@ChaosBoxIn

; 69   : 		{
; 70   : 			lpObj->pChaosBox[n].Clear();

  0015f	8b 4d ec	 mov	 ecx, DWORD PTR _n$[ebp]
  00162	69 c9 d4 00 00
	00		 imul	 ecx, 212		; 000000d4H
  00168	8b 45 08	 mov	 eax, DWORD PTR _lpObj$[ebp]
  0016b	03 88 78 0e 00
	00		 add	 ecx, DWORD PTR [eax+3704]
  00171	e8 00 00 00 00	 call	 ?Clear@CItem@@QAEXXZ	; CItem::Clear

; 71   : 		}

  00176	eb d8		 jmp	 SHORT $LN10@ChaosBoxIn
$LN9@ChaosBoxIn:

; 72   : 
; 73   : 		for (n=0;n<CHAOS_BOX_SIZE;n++)

  00178	c7 45 ec 00 00
	00 00		 mov	 DWORD PTR _n$[ebp], 0
  0017f	eb 09		 jmp	 SHORT $LN8@ChaosBoxIn
$LN7@ChaosBoxIn:
  00181	8b 45 ec	 mov	 eax, DWORD PTR _n$[ebp]
  00184	83 c0 01	 add	 eax, 1
  00187	89 45 ec	 mov	 DWORD PTR _n$[ebp], eax
$LN8@ChaosBoxIn:
  0018a	83 7d ec 20	 cmp	 DWORD PTR _n$[ebp], 32	; 00000020H
  0018e	7d 12		 jge	 SHORT $LN6@ChaosBoxIn

; 74   : 		{
; 75   : 			lpObj->pChaosBoxMap[n] = -1;

  00190	8b 45 08	 mov	 eax, DWORD PTR _lpObj$[ebp]
  00193	8b 88 7c 0e 00
	00		 mov	 ecx, DWORD PTR [eax+3708]
  00199	8b 55 ec	 mov	 edx, DWORD PTR _n$[ebp]
  0019c	c6 04 11 ff	 mov	 BYTE PTR [ecx+edx], 255	; 000000ffH

; 76   : 		}

  001a0	eb df		 jmp	 SHORT $LN7@ChaosBoxIn
$LN6@ChaosBoxIn:

; 77   : 		return true;

  001a2	b8 01 00 00 00	 mov	 eax, 1
  001a7	e9 da 00 00 00	 jmp	 $LN13@ChaosBoxIn
$LN12@ChaosBoxIn:

; 78   : 	}
; 79   : 
; 80   : 	lpObj->pChaosBox = new CItem[CHAOS_BOX_SIZE];

  001ac	68 80 1a 00 00	 push	 6784			; 00001a80H
  001b1	e8 00 00 00 00	 call	 ??_U@YAPAXI@Z		; operator new[]
  001b6	83 c4 04	 add	 esp, 4
  001b9	89 45 a0	 mov	 DWORD PTR $T238528[ebp], eax
  001bc	c7 45 fc 00 00
	00 00		 mov	 DWORD PTR __$EHRec$[ebp+8], 0
  001c3	83 7d a0 00	 cmp	 DWORD PTR $T238528[ebp], 0
  001c7	74 1d		 je	 SHORT $LN15@ChaosBoxIn
  001c9	68 00 00 00 00	 push	 OFFSET ??0CItem@@QAE@XZ	; CItem::CItem
  001ce	6a 20		 push	 32			; 00000020H
  001d0	68 d4 00 00 00	 push	 212			; 000000d4H
  001d5	8b 45 a0	 mov	 eax, DWORD PTR $T238528[ebp]
  001d8	50		 push	 eax
  001d9	e8 00 00 00 00	 call	 ??_H@YGXPAXIHP6EPAX0@Z@Z
  001de	8b 4d a0	 mov	 ecx, DWORD PTR $T238528[ebp]
  001e1	89 4d 98	 mov	 DWORD PTR tv86[ebp], ecx
  001e4	eb 07		 jmp	 SHORT $LN16@ChaosBoxIn
$LN15@ChaosBoxIn:
  001e6	c7 45 98 00 00
	00 00		 mov	 DWORD PTR tv86[ebp], 0
$LN16@ChaosBoxIn:
  001ed	8b 55 98	 mov	 edx, DWORD PTR tv86[ebp]
  001f0	89 55 9c	 mov	 DWORD PTR $T238527[ebp], edx
  001f3	c7 45 fc ff ff
	ff ff		 mov	 DWORD PTR __$EHRec$[ebp+8], -1
  001fa	8b 45 08	 mov	 eax, DWORD PTR _lpObj$[ebp]
  001fd	8b 4d 9c	 mov	 ecx, DWORD PTR $T238527[ebp]
  00200	89 88 78 0e 00
	00		 mov	 DWORD PTR [eax+3704], ecx

; 81   : 
; 82   : 	if ( lpObj->pChaosBox == NULL )

  00206	8b 45 08	 mov	 eax, DWORD PTR _lpObj$[ebp]
  00209	83 b8 78 0e 00
	00 00		 cmp	 DWORD PTR [eax+3704], 0
  00210	75 04		 jne	 SHORT $LN5@ChaosBoxIn

; 83   : 	{
; 84   : 		return false;

  00212	33 c0		 xor	 eax, eax
  00214	eb 70		 jmp	 SHORT $LN13@ChaosBoxIn
$LN5@ChaosBoxIn:

; 85   : 	}
; 86   : 
; 87   : 	lpObj->pChaosBoxMap = new BYTE[CHAOS_BOX_SIZE];

  00216	6a 20		 push	 32			; 00000020H
  00218	e8 00 00 00 00	 call	 ??_U@YAPAXI@Z		; operator new[]
  0021d	83 c4 04	 add	 esp, 4
  00220	89 45 a4	 mov	 DWORD PTR $T238531[ebp], eax
  00223	8b 45 08	 mov	 eax, DWORD PTR _lpObj$[ebp]
  00226	8b 4d a4	 mov	 ecx, DWORD PTR $T238531[ebp]
  00229	89 88 7c 0e 00
	00		 mov	 DWORD PTR [eax+3708], ecx

; 88   : 
; 89   : 	if ( lpObj->pChaosBoxMap == NULL )

  0022f	8b 45 08	 mov	 eax, DWORD PTR _lpObj$[ebp]
  00232	83 b8 7c 0e 00
	00 00		 cmp	 DWORD PTR [eax+3708], 0
  00239	75 1c		 jne	 SHORT $LN4@ChaosBoxIn

; 90   : 	{
; 91   : 		delete lpObj->pChaosBox;

  0023b	8b 45 08	 mov	 eax, DWORD PTR _lpObj$[ebp]
  0023e	8b 88 78 0e 00
	00		 mov	 ecx, DWORD PTR [eax+3704]
  00244	89 4d a8	 mov	 DWORD PTR $T238532[ebp], ecx
  00247	8b 55 a8	 mov	 edx, DWORD PTR $T238532[ebp]
  0024a	52		 push	 edx
  0024b	e8 00 00 00 00	 call	 ??3@YAXPAX@Z		; operator delete
  00250	83 c4 04	 add	 esp, 4

; 92   : 		return false;

  00253	33 c0		 xor	 eax, eax
  00255	eb 2f		 jmp	 SHORT $LN13@ChaosBoxIn
$LN4@ChaosBoxIn:

; 93   : 	}
; 94   : 
; 95   : 	for (n=0;n<CHAOS_BOX_SIZE;n++)

  00257	c7 45 ec 00 00
	00 00		 mov	 DWORD PTR _n$[ebp], 0
  0025e	eb 09		 jmp	 SHORT $LN3@ChaosBoxIn
$LN2@ChaosBoxIn:
  00260	8b 45 ec	 mov	 eax, DWORD PTR _n$[ebp]
  00263	83 c0 01	 add	 eax, 1
  00266	89 45 ec	 mov	 DWORD PTR _n$[ebp], eax
$LN3@ChaosBoxIn:
  00269	83 7d ec 20	 cmp	 DWORD PTR _n$[ebp], 32	; 00000020H
  0026d	7d 12		 jge	 SHORT $LN1@ChaosBoxIn

; 96   : 	{
; 97   : 		lpObj->pChaosBoxMap[n] = -1;

  0026f	8b 45 08	 mov	 eax, DWORD PTR _lpObj$[ebp]
  00272	8b 88 7c 0e 00
	00		 mov	 ecx, DWORD PTR [eax+3708]
  00278	8b 55 ec	 mov	 edx, DWORD PTR _n$[ebp]
  0027b	c6 04 11 ff	 mov	 BYTE PTR [ecx+edx], 255	; 000000ffH

; 98   : 	}

  0027f	eb df		 jmp	 SHORT $LN2@ChaosBoxIn
$LN1@ChaosBoxIn:

; 99   : 
; 100  : 	return true;

  00281	b8 01 00 00 00	 mov	 eax, 1
$LN13@ChaosBoxIn:

; 101  : }

  00286	8b 4d f4	 mov	 ecx, DWORD PTR __$EHRec$[ebp]
  00289	64 89 0d 00 00
	00 00		 mov	 DWORD PTR fs:0, ecx
  00290	59		 pop	 ecx
  00291	5f		 pop	 edi
  00292	5e		 pop	 esi
  00293	5b		 pop	 ebx
  00294	8b e5		 mov	 esp, ebp
  00296	5d		 pop	 ebp
  00297	c2 04 00	 ret	 4
_TEXT	ENDS
text$x	SEGMENT
__unwindfunclet$?ChaosBoxInit@CMixSystem@@QAEHPAUOBJECTSTRUCT@@@Z$0:
  00000	8b 45 a0	 mov	 eax, DWORD PTR $T238528[ebp]
  00003	50		 push	 eax
  00004	e8 00 00 00 00	 call	 ??_V@YAXPAX@Z		; operator delete[]
  00009	59		 pop	 ecx
  0000a	c3		 ret	 0
__ehhandler$?ChaosBoxInit@CMixSystem@@QAEHPAUOBJECTSTRUCT@@@Z:
  0000b	8b 54 24 08	 mov	 edx, DWORD PTR [esp+8]
  0000f	8d 42 0c	 lea	 eax, DWORD PTR [edx+12]
  00012	8b 4a 94	 mov	 ecx, DWORD PTR [edx-108]
  00015	33 c8		 xor	 ecx, eax
  00017	e8 00 00 00 00	 call	 @__security_check_cookie@4
  0001c	b8 00 00 00 00	 mov	 eax, OFFSET __ehfuncinfo$?ChaosBoxInit@CMixSystem@@QAEHPAUOBJECTSTRUCT@@@Z
  00021	e9 00 00 00 00	 jmp	 ___CxxFrameHandler3
text$x	ENDS
?ChaosBoxInit@CMixSystem@@QAEHPAUOBJECTSTRUCT@@@Z ENDP	; CMixSystem::ChaosBoxInit
PUBLIC	?ChaosBoxItemDown@CMixSystem@@QAEHPAUOBJECTSTRUCT@@@Z ; CMixSystem::ChaosBoxItemDown
EXTRN	?Convert@CItem@@QAEXHEEEEEEPAEEEE@Z:PROC	; CItem::Convert
EXTRN	?ItemGetDurability@@YAHHHHH@Z:PROC		; ItemGetDurability
EXTRN	?IsExtItem@CItem@@QAEHXZ:PROC			; CItem::IsExtItem
EXTRN	?IsSetItem@CItem@@QAEHXZ:PROC			; CItem::IsSetItem
EXTRN	_rand:PROC
EXTRN	__fltused:DWORD
; Function compile flags: /Odtp /ZI
_TEXT	SEGMENT
tv431 = -84						; size = 4
_dur$235425 = -16					; size = 4
_op$235419 = -12					; size = 4
_n$235412 = -8						; size = 4
_this$ = -4						; size = 4
_lpObj$ = 8						; size = 4
?ChaosBoxItemDown@CMixSystem@@QAEHPAUOBJECTSTRUCT@@@Z PROC ; CMixSystem::ChaosBoxItemDown
; _this$ = ecx

; 104  : {

  002a0	55		 push	 ebp
  002a1	8b ec		 mov	 ebp, esp
  002a3	83 ec 54	 sub	 esp, 84			; 00000054H
  002a6	53		 push	 ebx
  002a7	56		 push	 esi
  002a8	57		 push	 edi
  002a9	89 4d fc	 mov	 DWORD PTR _this$[ebp], ecx

; 105  : 	if ( lpObj->pChaosBox == NULL )

  002ac	8b 45 08	 mov	 eax, DWORD PTR _lpObj$[ebp]
  002af	83 b8 78 0e 00
	00 00		 cmp	 DWORD PTR [eax+3704], 0
  002b6	75 07		 jne	 SHORT $LN12@ChaosBoxIt

; 106  : 	{
; 107  : 		return FALSE;

  002b8	33 c0		 xor	 eax, eax
  002ba	e9 a7 04 00 00	 jmp	 $LN13@ChaosBoxIt
$LN12@ChaosBoxIt:

; 108  : 	}
; 109  : 
; 110  : 	for (int n=0;n<CHAOS_BOX_SIZE;n++)

  002bf	c7 45 f8 00 00
	00 00		 mov	 DWORD PTR _n$235412[ebp], 0
  002c6	eb 09		 jmp	 SHORT $LN11@ChaosBoxIt
$LN10@ChaosBoxIt:
  002c8	8b 45 f8	 mov	 eax, DWORD PTR _n$235412[ebp]
  002cb	83 c0 01	 add	 eax, 1
  002ce	89 45 f8	 mov	 DWORD PTR _n$235412[ebp], eax
$LN11@ChaosBoxIt:
  002d1	83 7d f8 20	 cmp	 DWORD PTR _n$235412[ebp], 32 ; 00000020H
  002d5	0f 8d 86 04 00
	00		 jge	 $LN9@ChaosBoxIt

; 111  : 	{
; 112  : 		if (lpObj->pChaosBox[n].m_Type == ITEMGET(12,15) || lpObj->pChaosBox[n].m_Type == ITEMGET(14,13) || lpObj->pChaosBox[n].m_Type == ITEMGET(14,14) ||
; 113  : 			//Season4.5 add-on (Talisman of Wing)
; 114  : 			lpObj->pChaosBox[n].m_Type == ITEMGET(13,83) || lpObj->pChaosBox[n].m_Type == ITEMGET(13,84) ||
; 115  : 			lpObj->pChaosBox[n].m_Type == ITEMGET(13,85) ||	lpObj->pChaosBox[n].m_Type == ITEMGET(13,86) ||
; 116  : 			lpObj->pChaosBox[n].m_Type == ITEMGET(13,87) || lpObj->pChaosBox[n].m_Type == ITEMGET(13,88) ||
; 117  : 			lpObj->pChaosBox[n].m_Type == ITEMGET(13,89) || lpObj->pChaosBox[n].m_Type == ITEMGET(13,90) ||
; 118  : 			lpObj->pChaosBox[n].m_Type == ITEMGET(13,91) ||	lpObj->pChaosBox[n].m_Type == ITEMGET(13,92) ||
; 119  : 			lpObj->pChaosBox[n].m_Type == ITEMGET(14,53))

  002db	8b 45 f8	 mov	 eax, DWORD PTR _n$235412[ebp]
  002de	69 c0 d4 00 00
	00		 imul	 eax, 212		; 000000d4H
  002e4	8b 4d 08	 mov	 ecx, DWORD PTR _lpObj$[ebp]
  002e7	8b 91 78 0e 00
	00		 mov	 edx, DWORD PTR [ecx+3704]
  002ed	0f bf 44 02 06	 movsx	 eax, WORD PTR [edx+eax+6]
  002f2	3d 0f 18 00 00	 cmp	 eax, 6159		; 0000180fH
  002f7	0f 84 a6 01 00
	00		 je	 $LN7@ChaosBoxIt
  002fd	8b 45 f8	 mov	 eax, DWORD PTR _n$235412[ebp]
  00300	69 c0 d4 00 00
	00		 imul	 eax, 212		; 000000d4H
  00306	8b 4d 08	 mov	 ecx, DWORD PTR _lpObj$[ebp]
  00309	8b 91 78 0e 00
	00		 mov	 edx, DWORD PTR [ecx+3704]
  0030f	0f bf 44 02 06	 movsx	 eax, WORD PTR [edx+eax+6]
  00314	3d 0d 1c 00 00	 cmp	 eax, 7181		; 00001c0dH
  00319	0f 84 84 01 00
	00		 je	 $LN7@ChaosBoxIt
  0031f	8b 45 f8	 mov	 eax, DWORD PTR _n$235412[ebp]
  00322	69 c0 d4 00 00
	00		 imul	 eax, 212		; 000000d4H
  00328	8b 4d 08	 mov	 ecx, DWORD PTR _lpObj$[ebp]
  0032b	8b 91 78 0e 00
	00		 mov	 edx, DWORD PTR [ecx+3704]
  00331	0f bf 44 02 06	 movsx	 eax, WORD PTR [edx+eax+6]
  00336	3d 0e 1c 00 00	 cmp	 eax, 7182		; 00001c0eH
  0033b	0f 84 62 01 00
	00		 je	 $LN7@ChaosBoxIt
  00341	8b 45 f8	 mov	 eax, DWORD PTR _n$235412[ebp]
  00344	69 c0 d4 00 00
	00		 imul	 eax, 212		; 000000d4H
  0034a	8b 4d 08	 mov	 ecx, DWORD PTR _lpObj$[ebp]
  0034d	8b 91 78 0e 00
	00		 mov	 edx, DWORD PTR [ecx+3704]
  00353	0f bf 44 02 06	 movsx	 eax, WORD PTR [edx+eax+6]
  00358	3d 53 1a 00 00	 cmp	 eax, 6739		; 00001a53H
  0035d	0f 84 40 01 00
	00		 je	 $LN7@ChaosBoxIt
  00363	8b 45 f8	 mov	 eax, DWORD PTR _n$235412[ebp]
  00366	69 c0 d4 00 00
	00		 imul	 eax, 212		; 000000d4H
  0036c	8b 4d 08	 mov	 ecx, DWORD PTR _lpObj$[ebp]
  0036f	8b 91 78 0e 00
	00		 mov	 edx, DWORD PTR [ecx+3704]
  00375	0f bf 44 02 06	 movsx	 eax, WORD PTR [edx+eax+6]
  0037a	3d 54 1a 00 00	 cmp	 eax, 6740		; 00001a54H
  0037f	0f 84 1e 01 00
	00		 je	 $LN7@ChaosBoxIt
  00385	8b 45 f8	 mov	 eax, DWORD PTR _n$235412[ebp]
  00388	69 c0 d4 00 00
	00		 imul	 eax, 212		; 000000d4H
  0038e	8b 4d 08	 mov	 ecx, DWORD PTR _lpObj$[ebp]
  00391	8b 91 78 0e 00
	00		 mov	 edx, DWORD PTR [ecx+3704]
  00397	0f bf 44 02 06	 movsx	 eax, WORD PTR [edx+eax+6]
  0039c	3d 55 1a 00 00	 cmp	 eax, 6741		; 00001a55H
  003a1	0f 84 fc 00 00
	00		 je	 $LN7@ChaosBoxIt
  003a7	8b 45 f8	 mov	 eax, DWORD PTR _n$235412[ebp]
  003aa	69 c0 d4 00 00
	00		 imul	 eax, 212		; 000000d4H
  003b0	8b 4d 08	 mov	 ecx, DWORD PTR _lpObj$[ebp]
  003b3	8b 91 78 0e 00
	00		 mov	 edx, DWORD PTR [ecx+3704]
  003b9	0f bf 44 02 06	 movsx	 eax, WORD PTR [edx+eax+6]
  003be	3d 56 1a 00 00	 cmp	 eax, 6742		; 00001a56H
  003c3	0f 84 da 00 00
	00		 je	 $LN7@ChaosBoxIt
  003c9	8b 45 f8	 mov	 eax, DWORD PTR _n$235412[ebp]
  003cc	69 c0 d4 00 00
	00		 imul	 eax, 212		; 000000d4H
  003d2	8b 4d 08	 mov	 ecx, DWORD PTR _lpObj$[ebp]
  003d5	8b 91 78 0e 00
	00		 mov	 edx, DWORD PTR [ecx+3704]
  003db	0f bf 44 02 06	 movsx	 eax, WORD PTR [edx+eax+6]
  003e0	3d 57 1a 00 00	 cmp	 eax, 6743		; 00001a57H
  003e5	0f 84 b8 00 00
	00		 je	 $LN7@ChaosBoxIt
  003eb	8b 45 f8	 mov	 eax, DWORD PTR _n$235412[ebp]
  003ee	69 c0 d4 00 00
	00		 imul	 eax, 212		; 000000d4H
  003f4	8b 4d 08	 mov	 ecx, DWORD PTR _lpObj$[ebp]
  003f7	8b 91 78 0e 00
	00		 mov	 edx, DWORD PTR [ecx+3704]
  003fd	0f bf 44 02 06	 movsx	 eax, WORD PTR [edx+eax+6]
  00402	3d 58 1a 00 00	 cmp	 eax, 6744		; 00001a58H
  00407	0f 84 96 00 00
	00		 je	 $LN7@ChaosBoxIt
  0040d	8b 45 f8	 mov	 eax, DWORD PTR _n$235412[ebp]
  00410	69 c0 d4 00 00
	00		 imul	 eax, 212		; 000000d4H
  00416	8b 4d 08	 mov	 ecx, DWORD PTR _lpObj$[ebp]
  00419	8b 91 78 0e 00
	00		 mov	 edx, DWORD PTR [ecx+3704]
  0041f	0f bf 44 02 06	 movsx	 eax, WORD PTR [edx+eax+6]
  00424	3d 59 1a 00 00	 cmp	 eax, 6745		; 00001a59H
  00429	74 78		 je	 SHORT $LN7@ChaosBoxIt
  0042b	8b 45 f8	 mov	 eax, DWORD PTR _n$235412[ebp]
  0042e	69 c0 d4 00 00
	00		 imul	 eax, 212		; 000000d4H
  00434	8b 4d 08	 mov	 ecx, DWORD PTR _lpObj$[ebp]
  00437	8b 91 78 0e 00
	00		 mov	 edx, DWORD PTR [ecx+3704]
  0043d	0f bf 44 02 06	 movsx	 eax, WORD PTR [edx+eax+6]
  00442	3d 5a 1a 00 00	 cmp	 eax, 6746		; 00001a5aH
  00447	74 5a		 je	 SHORT $LN7@ChaosBoxIt
  00449	8b 45 f8	 mov	 eax, DWORD PTR _n$235412[ebp]
  0044c	69 c0 d4 00 00
	00		 imul	 eax, 212		; 000000d4H
  00452	8b 4d 08	 mov	 ecx, DWORD PTR _lpObj$[ebp]
  00455	8b 91 78 0e 00
	00		 mov	 edx, DWORD PTR [ecx+3704]
  0045b	0f bf 44 02 06	 movsx	 eax, WORD PTR [edx+eax+6]
  00460	3d 5b 1a 00 00	 cmp	 eax, 6747		; 00001a5bH
  00465	74 3c		 je	 SHORT $LN7@ChaosBoxIt
  00467	8b 45 f8	 mov	 eax, DWORD PTR _n$235412[ebp]
  0046a	69 c0 d4 00 00
	00		 imul	 eax, 212		; 000000d4H
  00470	8b 4d 08	 mov	 ecx, DWORD PTR _lpObj$[ebp]
  00473	8b 91 78 0e 00
	00		 mov	 edx, DWORD PTR [ecx+3704]
  00479	0f bf 44 02 06	 movsx	 eax, WORD PTR [edx+eax+6]
  0047e	3d 5c 1a 00 00	 cmp	 eax, 6748		; 00001a5cH
  00483	74 1e		 je	 SHORT $LN7@ChaosBoxIt
  00485	8b 45 f8	 mov	 eax, DWORD PTR _n$235412[ebp]
  00488	69 c0 d4 00 00
	00		 imul	 eax, 212		; 000000d4H
  0048e	8b 4d 08	 mov	 ecx, DWORD PTR _lpObj$[ebp]
  00491	8b 91 78 0e 00
	00		 mov	 edx, DWORD PTR [ecx+3704]
  00497	0f bf 44 02 06	 movsx	 eax, WORD PTR [edx+eax+6]
  0049c	3d 35 1c 00 00	 cmp	 eax, 7221		; 00001c35H
  004a1	75 1c		 jne	 SHORT $LN8@ChaosBoxIt
$LN7@ChaosBoxIt:

; 120  : 		{
; 121  : 			lpObj->pChaosBox[n].Clear();

  004a3	8b 4d f8	 mov	 ecx, DWORD PTR _n$235412[ebp]
  004a6	69 c9 d4 00 00
	00		 imul	 ecx, 212		; 000000d4H
  004ac	8b 45 08	 mov	 eax, DWORD PTR _lpObj$[ebp]
  004af	03 88 78 0e 00
	00		 add	 ecx, DWORD PTR [eax+3704]
  004b5	e8 00 00 00 00	 call	 ?Clear@CItem@@QAEXXZ	; CItem::Clear

; 122  : 		}
; 123  : 		else

  004ba	e9 9d 02 00 00	 jmp	 $LN6@ChaosBoxIt
$LN8@ChaosBoxIt:

; 124  : 		{
; 125  : 			int op = lpObj->pChaosBox[n].m_Option1;

  004bf	8b 45 f8	 mov	 eax, DWORD PTR _n$235412[ebp]
  004c2	69 c0 d4 00 00
	00		 imul	 eax, 212		; 000000d4H
  004c8	8b 4d 08	 mov	 ecx, DWORD PTR _lpObj$[ebp]
  004cb	8b 91 78 0e 00
	00		 mov	 edx, DWORD PTR [ecx+3704]
  004d1	0f b6 84 02 94
	00 00 00	 movzx	 eax, BYTE PTR [edx+eax+148]
  004d9	89 45 f4	 mov	 DWORD PTR _op$235419[ebp], eax

; 126  : 
; 127  : 			if ( op > 0 )

  004dc	83 7d f4 00	 cmp	 DWORD PTR _op$235419[ebp], 0
  004e0	7e 1e		 jle	 SHORT $LN4@ChaosBoxIt

; 128  : 			{
; 129  : 				if ( (rand() % 2) == 0 )

  004e2	e8 00 00 00 00	 call	 _rand
  004e7	25 01 00 00 80	 and	 eax, -2147483647	; 80000001H
  004ec	79 05		 jns	 SHORT $LN15@ChaosBoxIt
  004ee	48		 dec	 eax
  004ef	83 c8 fe	 or	 eax, -2			; fffffffeH
  004f2	40		 inc	 eax
$LN15@ChaosBoxIt:
  004f3	85 c0		 test	 eax, eax
  004f5	75 09		 jne	 SHORT $LN4@ChaosBoxIt

; 130  : 				{
; 131  : 					op--;

  004f7	8b 45 f4	 mov	 eax, DWORD PTR _op$235419[ebp]
  004fa	83 e8 01	 sub	 eax, 1
  004fd	89 45 f4	 mov	 DWORD PTR _op$235419[ebp], eax
$LN4@ChaosBoxIt:

; 132  : 				}
; 133  : 			}
; 134  : 
; 135  : 			lpObj->pChaosBox[n].m_Option1 = op;

  00500	8b 45 f8	 mov	 eax, DWORD PTR _n$235412[ebp]
  00503	69 c0 d4 00 00
	00		 imul	 eax, 212		; 000000d4H
  00509	8b 4d 08	 mov	 ecx, DWORD PTR _lpObj$[ebp]
  0050c	8b 91 78 0e 00
	00		 mov	 edx, DWORD PTR [ecx+3704]
  00512	8a 4d f4	 mov	 cl, BYTE PTR _op$235419[ebp]
  00515	88 8c 02 94 00
	00 00		 mov	 BYTE PTR [edx+eax+148], cl

; 136  : 			op = lpObj->pChaosBox[n].m_Option3;

  0051c	8b 45 f8	 mov	 eax, DWORD PTR _n$235412[ebp]
  0051f	69 c0 d4 00 00
	00		 imul	 eax, 212		; 000000d4H
  00525	8b 4d 08	 mov	 ecx, DWORD PTR _lpObj$[ebp]
  00528	8b 91 78 0e 00
	00		 mov	 edx, DWORD PTR [ecx+3704]
  0052e	0f b6 84 02 96
	00 00 00	 movzx	 eax, BYTE PTR [edx+eax+150]
  00536	89 45 f4	 mov	 DWORD PTR _op$235419[ebp], eax

; 137  : 
; 138  : 			if ( op > 0 )

  00539	83 7d f4 00	 cmp	 DWORD PTR _op$235419[ebp], 0
  0053d	7e 1e		 jle	 SHORT $LN2@ChaosBoxIt

; 139  : 			{
; 140  : 				if ( (rand() % 2) == 0 )

  0053f	e8 00 00 00 00	 call	 _rand
  00544	25 01 00 00 80	 and	 eax, -2147483647	; 80000001H
  00549	79 05		 jns	 SHORT $LN16@ChaosBoxIt
  0054b	48		 dec	 eax
  0054c	83 c8 fe	 or	 eax, -2			; fffffffeH
  0054f	40		 inc	 eax
$LN16@ChaosBoxIt:
  00550	85 c0		 test	 eax, eax
  00552	75 09		 jne	 SHORT $LN2@ChaosBoxIt

; 141  : 				{
; 142  : 					op--;

  00554	8b 45 f4	 mov	 eax, DWORD PTR _op$235419[ebp]
  00557	83 e8 01	 sub	 eax, 1
  0055a	89 45 f4	 mov	 DWORD PTR _op$235419[ebp], eax
$LN2@ChaosBoxIt:

; 143  : 				}
; 144  : 			}
; 145  : 
; 146  : 			lpObj->pChaosBox[n].m_Option3 = op;

  0055d	8b 45 f8	 mov	 eax, DWORD PTR _n$235412[ebp]
  00560	69 c0 d4 00 00
	00		 imul	 eax, 212		; 000000d4H
  00566	8b 4d 08	 mov	 ecx, DWORD PTR _lpObj$[ebp]
  00569	8b 91 78 0e 00
	00		 mov	 edx, DWORD PTR [ecx+3704]
  0056f	8a 4d f4	 mov	 cl, BYTE PTR _op$235419[ebp]
  00572	88 8c 02 96 00
	00 00		 mov	 BYTE PTR [edx+eax+150], cl

; 147  : 
; 148  : 			if ( lpObj->pChaosBox[n].m_Level > 0 )

  00579	8b 45 f8	 mov	 eax, DWORD PTR _n$235412[ebp]
  0057c	69 c0 d4 00 00
	00		 imul	 eax, 212		; 000000d4H
  00582	8b 4d 08	 mov	 ecx, DWORD PTR _lpObj$[ebp]
  00585	8b 91 78 0e 00
	00		 mov	 edx, DWORD PTR [ecx+3704]
  0058b	0f bf 44 02 08	 movsx	 eax, WORD PTR [edx+eax+8]
  00590	85 c0		 test	 eax, eax
  00592	7e 36		 jle	 SHORT $LN1@ChaosBoxIt

; 149  : 			{
; 150  : 				lpObj->pChaosBox[n].m_Level = rand() % lpObj->pChaosBox[n].m_Level;

  00594	e8 00 00 00 00	 call	 _rand
  00599	8b 4d f8	 mov	 ecx, DWORD PTR _n$235412[ebp]
  0059c	69 c9 d4 00 00
	00		 imul	 ecx, 212		; 000000d4H
  005a2	8b 55 08	 mov	 edx, DWORD PTR _lpObj$[ebp]
  005a5	8b 92 78 0e 00
	00		 mov	 edx, DWORD PTR [edx+3704]
  005ab	0f bf 4c 0a 08	 movsx	 ecx, WORD PTR [edx+ecx+8]
  005b0	99		 cdq
  005b1	f7 f9		 idiv	 ecx
  005b3	8b 45 f8	 mov	 eax, DWORD PTR _n$235412[ebp]
  005b6	69 c0 d4 00 00
	00		 imul	 eax, 212		; 000000d4H
  005bc	8b 4d 08	 mov	 ecx, DWORD PTR _lpObj$[ebp]
  005bf	8b 89 78 0e 00
	00		 mov	 ecx, DWORD PTR [ecx+3704]
  005c5	66 89 54 01 08	 mov	 WORD PTR [ecx+eax+8], dx
$LN1@ChaosBoxIt:

; 151  : 			}
; 152  : 
; 153  : 			float dur = (float)ItemGetDurability(lpObj->pChaosBox[n].m_Type, lpObj->pChaosBox[n].m_Level, lpObj->pChaosBox[n].IsExtItem(), lpObj->pChaosBox[n].IsSetItem());

  005ca	8b 4d f8	 mov	 ecx, DWORD PTR _n$235412[ebp]
  005cd	69 c9 d4 00 00
	00		 imul	 ecx, 212		; 000000d4H
  005d3	8b 45 08	 mov	 eax, DWORD PTR _lpObj$[ebp]
  005d6	03 88 78 0e 00
	00		 add	 ecx, DWORD PTR [eax+3704]
  005dc	e8 00 00 00 00	 call	 ?IsSetItem@CItem@@QAEHXZ ; CItem::IsSetItem
  005e1	50		 push	 eax
  005e2	8b 4d f8	 mov	 ecx, DWORD PTR _n$235412[ebp]
  005e5	69 c9 d4 00 00
	00		 imul	 ecx, 212		; 000000d4H
  005eb	8b 55 08	 mov	 edx, DWORD PTR _lpObj$[ebp]
  005ee	03 8a 78 0e 00
	00		 add	 ecx, DWORD PTR [edx+3704]
  005f4	e8 00 00 00 00	 call	 ?IsExtItem@CItem@@QAEHXZ ; CItem::IsExtItem
  005f9	50		 push	 eax
  005fa	8b 45 f8	 mov	 eax, DWORD PTR _n$235412[ebp]
  005fd	69 c0 d4 00 00
	00		 imul	 eax, 212		; 000000d4H
  00603	8b 4d 08	 mov	 ecx, DWORD PTR _lpObj$[ebp]
  00606	8b 91 78 0e 00
	00		 mov	 edx, DWORD PTR [ecx+3704]
  0060c	0f bf 44 02 08	 movsx	 eax, WORD PTR [edx+eax+8]
  00611	50		 push	 eax
  00612	8b 4d f8	 mov	 ecx, DWORD PTR _n$235412[ebp]
  00615	69 c9 d4 00 00
	00		 imul	 ecx, 212		; 000000d4H
  0061b	8b 55 08	 mov	 edx, DWORD PTR _lpObj$[ebp]
  0061e	8b 82 78 0e 00
	00		 mov	 eax, DWORD PTR [edx+3704]
  00624	0f bf 4c 08 06	 movsx	 ecx, WORD PTR [eax+ecx+6]
  00629	51		 push	 ecx
  0062a	e8 00 00 00 00	 call	 ?ItemGetDurability@@YAHHHHH@Z ; ItemGetDurability
  0062f	83 c4 10	 add	 esp, 16			; 00000010H
  00632	89 45 ac	 mov	 DWORD PTR tv431[ebp], eax
  00635	db 45 ac	 fild	 DWORD PTR tv431[ebp]
  00638	d9 5d f0	 fstp	 DWORD PTR _dur$235425[ebp]

; 154  : 			
; 155  : 			lpObj->pChaosBox[n].m_Durability =  dur * lpObj->pChaosBox[n].m_Durability / lpObj->pChaosBox[n].m_BaseDurability;

  0063b	8b 45 f8	 mov	 eax, DWORD PTR _n$235412[ebp]
  0063e	69 c0 d4 00 00
	00		 imul	 eax, 212		; 000000d4H
  00644	8b 4d 08	 mov	 ecx, DWORD PTR _lpObj$[ebp]
  00647	8b 91 78 0e 00
	00		 mov	 edx, DWORD PTR [ecx+3704]
  0064d	d9 45 f0	 fld	 DWORD PTR _dur$235425[ebp]
  00650	d8 4c 02 24	 fmul	 DWORD PTR [edx+eax+36]
  00654	8b 45 f8	 mov	 eax, DWORD PTR _n$235412[ebp]
  00657	69 c0 d4 00 00
	00		 imul	 eax, 212		; 000000d4H
  0065d	8b 4d 08	 mov	 ecx, DWORD PTR _lpObj$[ebp]
  00660	8b 91 78 0e 00
	00		 mov	 edx, DWORD PTR [ecx+3704]
  00666	d8 74 02 2c	 fdiv	 DWORD PTR [edx+eax+44]
  0066a	8b 45 f8	 mov	 eax, DWORD PTR _n$235412[ebp]
  0066d	69 c0 d4 00 00
	00		 imul	 eax, 212		; 000000d4H
  00673	8b 4d 08	 mov	 ecx, DWORD PTR _lpObj$[ebp]
  00676	8b 91 78 0e 00
	00		 mov	 edx, DWORD PTR [ecx+3704]
  0067c	d9 5c 02 24	 fstp	 DWORD PTR [edx+eax+36]

; 156  : 			lpObj->pChaosBox[n].Convert(lpObj->pChaosBox[n].m_Type, lpObj->pChaosBox[n].m_Option1,
; 157  : 				lpObj->pChaosBox[n].m_Option2, lpObj->pChaosBox[n].m_Option3, lpObj->pChaosBox[n].m_NewOption,
; 158  : 				lpObj->pChaosBox[n].m_SetOption, lpObj->pChaosBox[n].m_ItemOptionEx, NULL, 0xFF, 0, CURRENT_DB_VERSION);

  00680	6a 03		 push	 3
  00682	6a 00		 push	 0
  00684	68 ff 00 00 00	 push	 255			; 000000ffH
  00689	6a 00		 push	 0
  0068b	8b 45 f8	 mov	 eax, DWORD PTR _n$235412[ebp]
  0068e	69 c0 d4 00 00
	00		 imul	 eax, 212		; 000000d4H
  00694	8b 4d 08	 mov	 ecx, DWORD PTR _lpObj$[ebp]
  00697	8b 91 78 0e 00
	00		 mov	 edx, DWORD PTR [ecx+3704]
  0069d	0f b6 84 02 ca
	00 00 00	 movzx	 eax, BYTE PTR [edx+eax+202]
  006a5	50		 push	 eax
  006a6	8b 4d f8	 mov	 ecx, DWORD PTR _n$235412[ebp]
  006a9	69 c9 d4 00 00
	00		 imul	 ecx, 212		; 000000d4H
  006af	8b 55 08	 mov	 edx, DWORD PTR _lpObj$[ebp]
  006b2	8b 82 78 0e 00
	00		 mov	 eax, DWORD PTR [edx+3704]
  006b8	0f b6 8c 08 ae
	00 00 00	 movzx	 ecx, BYTE PTR [eax+ecx+174]
  006c0	51		 push	 ecx
  006c1	8b 55 f8	 mov	 edx, DWORD PTR _n$235412[ebp]
  006c4	69 d2 d4 00 00
	00		 imul	 edx, 212		; 000000d4H
  006ca	8b 45 08	 mov	 eax, DWORD PTR _lpObj$[ebp]
  006cd	8b 88 78 0e 00
	00		 mov	 ecx, DWORD PTR [eax+3704]
  006d3	0f b6 94 11 97
	00 00 00	 movzx	 edx, BYTE PTR [ecx+edx+151]
  006db	52		 push	 edx
  006dc	8b 45 f8	 mov	 eax, DWORD PTR _n$235412[ebp]
  006df	69 c0 d4 00 00
	00		 imul	 eax, 212		; 000000d4H
  006e5	8b 4d 08	 mov	 ecx, DWORD PTR _lpObj$[ebp]
  006e8	8b 91 78 0e 00
	00		 mov	 edx, DWORD PTR [ecx+3704]
  006ee	0f b6 84 02 96
	00 00 00	 movzx	 eax, BYTE PTR [edx+eax+150]
  006f6	50		 push	 eax
  006f7	8b 4d f8	 mov	 ecx, DWORD PTR _n$235412[ebp]
  006fa	69 c9 d4 00 00
	00		 imul	 ecx, 212		; 000000d4H
  00700	8b 55 08	 mov	 edx, DWORD PTR _lpObj$[ebp]
  00703	8b 82 78 0e 00
	00		 mov	 eax, DWORD PTR [edx+3704]
  00709	0f b6 8c 08 95
	00 00 00	 movzx	 ecx, BYTE PTR [eax+ecx+149]
  00711	51		 push	 ecx
  00712	8b 55 f8	 mov	 edx, DWORD PTR _n$235412[ebp]
  00715	69 d2 d4 00 00
	00		 imul	 edx, 212		; 000000d4H
  0071b	8b 45 08	 mov	 eax, DWORD PTR _lpObj$[ebp]
  0071e	8b 88 78 0e 00
	00		 mov	 ecx, DWORD PTR [eax+3704]
  00724	0f b6 94 11 94
	00 00 00	 movzx	 edx, BYTE PTR [ecx+edx+148]
  0072c	52		 push	 edx
  0072d	8b 45 f8	 mov	 eax, DWORD PTR _n$235412[ebp]
  00730	69 c0 d4 00 00
	00		 imul	 eax, 212		; 000000d4H
  00736	8b 4d 08	 mov	 ecx, DWORD PTR _lpObj$[ebp]
  00739	8b 91 78 0e 00
	00		 mov	 edx, DWORD PTR [ecx+3704]
  0073f	0f bf 44 02 06	 movsx	 eax, WORD PTR [edx+eax+6]
  00744	50		 push	 eax
  00745	8b 4d f8	 mov	 ecx, DWORD PTR _n$235412[ebp]
  00748	69 c9 d4 00 00
	00		 imul	 ecx, 212		; 000000d4H
  0074e	8b 55 08	 mov	 edx, DWORD PTR _lpObj$[ebp]
  00751	03 8a 78 0e 00
	00		 add	 ecx, DWORD PTR [edx+3704]
  00757	e8 00 00 00 00	 call	 ?Convert@CItem@@QAEXHEEEEEEPAEEEE@Z ; CItem::Convert
$LN6@ChaosBoxIt:

; 159  : 		}
; 160  : 	}

  0075c	e9 67 fb ff ff	 jmp	 $LN10@ChaosBoxIt
$LN9@ChaosBoxIt:

; 161  : 
; 162  : 	return TRUE;

  00761	b8 01 00 00 00	 mov	 eax, 1
$LN13@ChaosBoxIt:

; 163  : }

  00766	5f		 pop	 edi
  00767	5e		 pop	 esi
  00768	5b		 pop	 ebx
  00769	8b e5		 mov	 esp, ebp
  0076b	5d		 pop	 ebp
  0076c	c2 04 00	 ret	 4
?ChaosBoxItemDown@CMixSystem@@QAEHPAUOBJECTSTRUCT@@@Z ENDP ; CMixSystem::ChaosBoxItemDown
_TEXT	ENDS
PUBLIC	??_C@_0DK@EKDAKNF@?$FLMixSystem?$FN?5WingCharmItemNum?5?$DN?$DO?5@ ; `string'
PUBLIC	??_C@_0DO@PLIHJFD@?$FL?$CFs?$FN?$FL?$CFs?$FN?5CBMix?5need?5Zen?5?3?5?$CFd?5Suc@ ; `string'
PUBLIC	??_C@_0FA@FKHLLHEC@?$FL?$CFs?$FN?$FL?$CFs?$FN?5CBMix?5?$FL?$CFd?0?$CFs?0?$CFd?0?$CFd?0?$CFd?0?$CF@ ; `string'
PUBLIC	__$ArrayPad$
PUBLIC	?ChaosBoxMix@CMixSystem@@QAEHPAUOBJECTSTRUCT@@AAH1@Z ; CMixSystem::ChaosBoxMix
EXTRN	?ExConfig@@3VcExConfigs@@A:BYTE			; ExConfig
EXTRN	?LogAddTD@@3P6AXPADZZA:DWORD			; LogAddTD
EXTRN	?LogAdd@@3P6AXPADZZA:DWORD			; LogAdd
EXTRN	?GetName@CItem@@QAEPADXZ:PROC			; CItem::GetName
EXTRN	?ItemIsBufExOption@@YAXPAEPAVCItem@@@Z:PROC	; ItemIsBufExOption
EXTRN	?IsLuckyItemEquipment@LuckyItemManager@@QAEHH@Z:PROC ; LuckyItemManager::IsLuckyItemEquipment
EXTRN	?g_LuckyItemManager@@3ULuckyItemManager@@A:BYTE	; g_LuckyItemManager
EXTRN	?OldValue@CItem@@QAEXXZ:PROC			; CItem::OldValue
EXTRN	?IsItem@CItem@@QAEHXZ:PROC			; CItem::IsItem
EXTRN	__ftol2_sse:PROC
;	COMDAT ??_C@_0DK@EKDAKNF@?$FLMixSystem?$FN?5WingCharmItemNum?5?$DN?$DO?5@
CONST	SEGMENT
??_C@_0DK@EKDAKNF@?$FLMixSystem?$FN?5WingCharmItemNum?5?$DN?$DO?5@ DB '[M'
	DB	'ixSystem] WingCharmItemNum => %d , WingCharmIndex => %d', 00H ; `string'
CONST	ENDS
;	COMDAT ??_C@_0DO@PLIHJFD@?$FL?$CFs?$FN?$FL?$CFs?$FN?5CBMix?5need?5Zen?5?3?5?$CFd?5Suc@
CONST	SEGMENT
??_C@_0DO@PLIHJFD@?$FL?$CFs?$FN?$FL?$CFs?$FN?5CBMix?5need?5Zen?5?3?5?$CFd?5Suc@ DB '['
	DB	'%s][%s] CBMix need Zen : %d SuccessRate : %d, CharmRate : %d', 00H ; `string'
CONST	ENDS
;	COMDAT ??_C@_0FA@FKHLLHEC@?$FL?$CFs?$FN?$FL?$CFs?$FN?5CBMix?5?$FL?$CFd?0?$CFs?0?$CFd?0?$CFd?0?$CFd?0?$CF@
CONST	SEGMENT
??_C@_0FA@FKHLLHEC@?$FL?$CFs?$FN?$FL?$CFs?$FN?5CBMix?5?$FL?$CFd?0?$CFs?0?$CFd?0?$CFd?0?$CFd?0?$CF@ DB '['
	DB	'%s][%s] CBMix [%d,%s,%d,%d,%d,%d]serial:[%u][%d][%d] Ex:[%d,%'
	DB	'd,%d,%d,%d,%d,%d]', 00H			; `string'
; Function compile flags: /Odtp /ZI
CONST	ENDS
_TEXT	SEGMENT
tv361 = -120						; size = 4
_WingCharmIndex$235469 = -52				; size = 4
_n$235442 = -48						; size = 4
_iCharmOfLuckCount$ = -44				; size = 4
_WingCharmItemNum$ = -40				; size = 4
_nv$ = -36						; size = 4
_add$ = -32						; size = 4
_value$ = -28						; size = 4
_ChaosItems$ = -24					; size = 4
_ChaosDiamond$ = -20					; size = 4
_ExOption$ = -16					; size = 8
_this$ = -8						; size = 4
__$ArrayPad$ = -4					; size = 4
_lpObj$ = 8						; size = 4
_Result2$ = 12						; size = 4
_Result3$ = 16						; size = 4
?ChaosBoxMix@CMixSystem@@QAEHPAUOBJECTSTRUCT@@AAH1@Z PROC ; CMixSystem::ChaosBoxMix
; _this$ = ecx

; 166  : {

  00770	55		 push	 ebp
  00771	8b ec		 mov	 ebp, esp
  00773	83 ec 78	 sub	 esp, 120		; 00000078H
  00776	a1 00 00 00 00	 mov	 eax, DWORD PTR ___security_cookie
  0077b	33 c5		 xor	 eax, ebp
  0077d	89 45 fc	 mov	 DWORD PTR __$ArrayPad$[ebp], eax
  00780	53		 push	 ebx
  00781	56		 push	 esi
  00782	57		 push	 edi
  00783	89 4d f8	 mov	 DWORD PTR _this$[ebp], ecx

; 167  : 	BYTE ExOption[8];
; 168  : 	int ChaosDiamond = 0;

  00786	c7 45 ec 00 00
	00 00		 mov	 DWORD PTR _ChaosDiamond$[ebp], 0

; 169  : 	int ChaosItems = 0;

  0078d	c7 45 e8 00 00
	00 00		 mov	 DWORD PTR _ChaosItems$[ebp], 0

; 170  : 
; 171  : 	if ( lpObj->pChaosBox == NULL )

  00794	8b 45 08	 mov	 eax, DWORD PTR _lpObj$[ebp]
  00797	83 b8 78 0e 00
	00 00		 cmp	 DWORD PTR [eax+3704], 0
  0079e	75 07		 jne	 SHORT $LN33@ChaosBoxMi

; 172  : 	{
; 173  : 		return 0;

  007a0	33 c0		 xor	 eax, eax
  007a2	e9 75 06 00 00	 jmp	 $LN34@ChaosBoxMi
$LN33@ChaosBoxMi:

; 174  : 	}
; 175  : 
; 176  : 	int value = 0;

  007a7	c7 45 e4 00 00
	00 00		 mov	 DWORD PTR _value$[ebp], 0

; 177  : 	int add = 0;

  007ae	c7 45 e0 00 00
	00 00		 mov	 DWORD PTR _add$[ebp], 0

; 178  : 	int nv = 0;

  007b5	c7 45 dc 00 00
	00 00		 mov	 DWORD PTR _nv$[ebp], 0

; 179  : 	
; 180  : 	Result2 = 0;

  007bc	8b 45 0c	 mov	 eax, DWORD PTR _Result2$[ebp]
  007bf	c7 00 00 00 00
	00		 mov	 DWORD PTR [eax], 0

; 181  : 	Result3 = -1; //season4 add-on

  007c5	8b 45 10	 mov	 eax, DWORD PTR _Result3$[ebp]
  007c8	c7 00 ff ff ff
	ff		 mov	 DWORD PTR [eax], -1

; 182  : 
; 183  : 	int WingCharmItemNum = -1; //season4.5 add-on

  007ce	c7 45 d8 ff ff
	ff ff		 mov	 DWORD PTR _WingCharmItemNum$[ebp], -1

; 184  : 
; 185  : 	lpObj->ChaosSuccessRate = 0;

  007d5	8b 45 08	 mov	 eax, DWORD PTR _lpObj$[ebp]
  007d8	c7 80 84 0e 00
	00 00 00 00 00	 mov	 DWORD PTR [eax+3716], 0

; 186  : 	lpObj->ChaosMoney = 0;

  007e2	8b 45 08	 mov	 eax, DWORD PTR _lpObj$[ebp]
  007e5	c7 80 80 0e 00
	00 00 00 00 00	 mov	 DWORD PTR [eax+3712], 0

; 187  : 	int iCharmOfLuckCount = 0;

  007ef	c7 45 d4 00 00
	00 00		 mov	 DWORD PTR _iCharmOfLuckCount$[ebp], 0

; 188  : 
; 189  : 	for ( int n=0;n<CHAOS_BOX_SIZE;n++)

  007f6	c7 45 d0 00 00
	00 00		 mov	 DWORD PTR _n$235442[ebp], 0
  007fd	eb 09		 jmp	 SHORT $LN32@ChaosBoxMi
$LN31@ChaosBoxMi:
  007ff	8b 45 d0	 mov	 eax, DWORD PTR _n$235442[ebp]
  00802	83 c0 01	 add	 eax, 1
  00805	89 45 d0	 mov	 DWORD PTR _n$235442[ebp], eax
$LN32@ChaosBoxMi:
  00808	83 7d d0 20	 cmp	 DWORD PTR _n$235442[ebp], 32 ; 00000020H
  0080c	0f 8d a2 04 00
	00		 jge	 $LN30@ChaosBoxMi

; 190  : 	{
; 191  : 		if ( lpObj->pChaosBox[n].IsItem() == TRUE )

  00812	8b 4d d0	 mov	 ecx, DWORD PTR _n$235442[ebp]
  00815	69 c9 d4 00 00
	00		 imul	 ecx, 212		; 000000d4H
  0081b	8b 45 08	 mov	 eax, DWORD PTR _lpObj$[ebp]
  0081e	03 88 78 0e 00
	00		 add	 ecx, DWORD PTR [eax+3704]
  00824	e8 00 00 00 00	 call	 ?IsItem@CItem@@QAEHXZ	; CItem::IsItem
  00829	83 f8 01	 cmp	 eax, 1
  0082c	0f 85 7d 04 00
	00		 jne	 $LN29@ChaosBoxMi

; 192  : 		{
; 193  : 			lpObj->pChaosBox[n].OldValue();

  00832	8b 4d d0	 mov	 ecx, DWORD PTR _n$235442[ebp]
  00835	69 c9 d4 00 00
	00		 imul	 ecx, 212		; 000000d4H
  0083b	8b 45 08	 mov	 eax, DWORD PTR _lpObj$[ebp]
  0083e	03 88 78 0e 00
	00		 add	 ecx, DWORD PTR [eax+3704]
  00844	e8 00 00 00 00	 call	 ?OldValue@CItem@@QAEXXZ	; CItem::OldValue

; 194  : 			add = 0;

  00849	c7 45 e0 00 00
	00 00		 mov	 DWORD PTR _add$[ebp], 0

; 195  : 			nv = 0;

  00850	c7 45 dc 00 00
	00 00		 mov	 DWORD PTR _nv$[ebp], 0

; 196  : 
; 197  : #ifdef LUCKYITEM
; 198  : 			if( g_LuckyItemManager.IsLuckyItemEquipment(lpObj->pChaosBox[n].m_Type) )	//1.01.00

  00857	8b 45 d0	 mov	 eax, DWORD PTR _n$235442[ebp]
  0085a	69 c0 d4 00 00
	00		 imul	 eax, 212		; 000000d4H
  00860	8b 4d 08	 mov	 ecx, DWORD PTR _lpObj$[ebp]
  00863	8b 91 78 0e 00
	00		 mov	 edx, DWORD PTR [ecx+3704]
  00869	0f bf 44 02 06	 movsx	 eax, WORD PTR [edx+eax+6]
  0086e	50		 push	 eax
  0086f	b9 00 00 00 00	 mov	 ecx, OFFSET ?g_LuckyItemManager@@3ULuckyItemManager@@A ; g_LuckyItemManager
  00874	e8 00 00 00 00	 call	 ?IsLuckyItemEquipment@LuckyItemManager@@QAEHH@Z ; LuckyItemManager::IsLuckyItemEquipment
  00879	85 c0		 test	 eax, eax
  0087b	74 07		 je	 SHORT $LN28@ChaosBoxMi

; 199  : 			{
; 200  : 				return false;

  0087d	33 c0		 xor	 eax, eax
  0087f	e9 98 05 00 00	 jmp	 $LN34@ChaosBoxMi
$LN28@ChaosBoxMi:

; 201  : 			}
; 202  : #endif
; 203  : 
; 204  : 			if ( lpObj->pChaosBox[n].m_Level >= MIN_CHAOS_ITEM_LEVEL && (lpObj->pChaosBox[n].m_Option3 *4) >= MIN_CHAOS_ITEM_LEVEL )

  00884	8b 45 d0	 mov	 eax, DWORD PTR _n$235442[ebp]
  00887	69 c0 d4 00 00
	00		 imul	 eax, 212		; 000000d4H
  0088d	8b 4d 08	 mov	 ecx, DWORD PTR _lpObj$[ebp]
  00890	8b 91 78 0e 00
	00		 mov	 edx, DWORD PTR [ecx+3704]
  00896	0f bf 44 02 08	 movsx	 eax, WORD PTR [edx+eax+8]
  0089b	83 f8 04	 cmp	 eax, 4
  0089e	0f 8c cb 00 00
	00		 jl	 $LN26@ChaosBoxMi
  008a4	8b 45 d0	 mov	 eax, DWORD PTR _n$235442[ebp]
  008a7	69 c0 d4 00 00
	00		 imul	 eax, 212		; 000000d4H
  008ad	8b 4d 08	 mov	 ecx, DWORD PTR _lpObj$[ebp]
  008b0	8b 91 78 0e 00
	00		 mov	 edx, DWORD PTR [ecx+3704]
  008b6	0f b6 84 02 96
	00 00 00	 movzx	 eax, BYTE PTR [edx+eax+150]
  008be	c1 e0 02	 shl	 eax, 2
  008c1	83 f8 04	 cmp	 eax, 4
  008c4	0f 8c a5 00 00
	00		 jl	 $LN26@ChaosBoxMi

; 205  : 			{
; 206  : 				nv = lpObj->pChaosBox[n].m_OldBuyMoney;

  008ca	8b 45 d0	 mov	 eax, DWORD PTR _n$235442[ebp]
  008cd	69 c0 d4 00 00
	00		 imul	 eax, 212		; 000000d4H
  008d3	8b 4d 08	 mov	 ecx, DWORD PTR _lpObj$[ebp]
  008d6	8b 91 78 0e 00
	00		 mov	 edx, DWORD PTR [ecx+3704]
  008dc	8b 84 02 90 00
	00 00		 mov	 eax, DWORD PTR [edx+eax+144]
  008e3	89 45 dc	 mov	 DWORD PTR _nv$[ebp], eax

; 207  : 				value += lpObj->pChaosBox[n].m_OldBuyMoney;

  008e6	8b 45 d0	 mov	 eax, DWORD PTR _n$235442[ebp]
  008e9	69 c0 d4 00 00
	00		 imul	 eax, 212		; 000000d4H
  008ef	8b 4d 08	 mov	 ecx, DWORD PTR _lpObj$[ebp]
  008f2	8b 91 78 0e 00
	00		 mov	 edx, DWORD PTR [ecx+3704]
  008f8	8b 4d e4	 mov	 ecx, DWORD PTR _value$[ebp]
  008fb	03 8c 02 90 00
	00 00		 add	 ecx, DWORD PTR [edx+eax+144]
  00902	89 4d e4	 mov	 DWORD PTR _value$[ebp], ecx

; 208  : 				add = 1;

  00905	c7 45 e0 01 00
	00 00		 mov	 DWORD PTR _add$[ebp], 1

; 209  : 
; 210  : 				if ( lpObj->pChaosBox[n].m_Type == ITEMGET(2,6) || lpObj->pChaosBox[n].m_Type == ITEMGET(4,6) || lpObj->pChaosBox[n].m_Type == ITEMGET(5,7) )	// Chaos Items

  0090c	8b 45 d0	 mov	 eax, DWORD PTR _n$235442[ebp]
  0090f	69 c0 d4 00 00
	00		 imul	 eax, 212		; 000000d4H
  00915	8b 4d 08	 mov	 ecx, DWORD PTR _lpObj$[ebp]
  00918	8b 91 78 0e 00
	00		 mov	 edx, DWORD PTR [ecx+3704]
  0091e	0f bf 44 02 06	 movsx	 eax, WORD PTR [edx+eax+6]
  00923	3d 06 04 00 00	 cmp	 eax, 1030		; 00000406H
  00928	74 3c		 je	 SHORT $LN25@ChaosBoxMi
  0092a	8b 45 d0	 mov	 eax, DWORD PTR _n$235442[ebp]
  0092d	69 c0 d4 00 00
	00		 imul	 eax, 212		; 000000d4H
  00933	8b 4d 08	 mov	 ecx, DWORD PTR _lpObj$[ebp]
  00936	8b 91 78 0e 00
	00		 mov	 edx, DWORD PTR [ecx+3704]
  0093c	0f bf 44 02 06	 movsx	 eax, WORD PTR [edx+eax+6]
  00941	3d 06 08 00 00	 cmp	 eax, 2054		; 00000806H
  00946	74 1e		 je	 SHORT $LN25@ChaosBoxMi
  00948	8b 45 d0	 mov	 eax, DWORD PTR _n$235442[ebp]
  0094b	69 c0 d4 00 00
	00		 imul	 eax, 212		; 000000d4H
  00951	8b 4d 08	 mov	 ecx, DWORD PTR _lpObj$[ebp]
  00954	8b 91 78 0e 00
	00		 mov	 edx, DWORD PTR [ecx+3704]
  0095a	0f bf 44 02 06	 movsx	 eax, WORD PTR [edx+eax+6]
  0095f	3d 07 0a 00 00	 cmp	 eax, 2567		; 00000a07H
  00964	75 09		 jne	 SHORT $LN26@ChaosBoxMi
$LN25@ChaosBoxMi:

; 211  : 				{
; 212  : 					Result2 = 1;

  00966	8b 45 0c	 mov	 eax, DWORD PTR _Result2$[ebp]
  00969	c7 00 01 00 00
	00		 mov	 DWORD PTR [eax], 1
$LN26@ChaosBoxMi:

; 213  : 				}
; 214  : 			}
; 215  : 
; 216  : 			if ( lpObj->pChaosBox[n].m_Type == ITEMGET(12,15) )

  0096f	8b 45 d0	 mov	 eax, DWORD PTR _n$235442[ebp]
  00972	69 c0 d4 00 00
	00		 imul	 eax, 212		; 000000d4H
  00978	8b 4d 08	 mov	 ecx, DWORD PTR _lpObj$[ebp]
  0097b	8b 91 78 0e 00
	00		 mov	 edx, DWORD PTR [ecx+3704]
  00981	0f bf 44 02 06	 movsx	 eax, WORD PTR [edx+eax+6]
  00986	3d 0f 18 00 00	 cmp	 eax, 6159		; 0000180fH
  0098b	75 4d		 jne	 SHORT $LN24@ChaosBoxMi

; 217  : 			{
; 218  : 				value += lpObj->pChaosBox[n].m_OldBuyMoney;

  0098d	8b 45 d0	 mov	 eax, DWORD PTR _n$235442[ebp]
  00990	69 c0 d4 00 00
	00		 imul	 eax, 212		; 000000d4H
  00996	8b 4d 08	 mov	 ecx, DWORD PTR _lpObj$[ebp]
  00999	8b 91 78 0e 00
	00		 mov	 edx, DWORD PTR [ecx+3704]
  0099f	8b 4d e4	 mov	 ecx, DWORD PTR _value$[ebp]
  009a2	03 8c 02 90 00
	00 00		 add	 ecx, DWORD PTR [edx+eax+144]
  009a9	89 4d e4	 mov	 DWORD PTR _value$[ebp], ecx

; 219  : 				nv = lpObj->pChaosBox[n].m_OldBuyMoney;

  009ac	8b 45 d0	 mov	 eax, DWORD PTR _n$235442[ebp]
  009af	69 c0 d4 00 00
	00		 imul	 eax, 212		; 000000d4H
  009b5	8b 4d 08	 mov	 ecx, DWORD PTR _lpObj$[ebp]
  009b8	8b 91 78 0e 00
	00		 mov	 edx, DWORD PTR [ecx+3704]
  009be	8b 84 02 90 00
	00 00		 mov	 eax, DWORD PTR [edx+eax+144]
  009c5	89 45 dc	 mov	 DWORD PTR _nv$[ebp], eax

; 220  : 				ChaosDiamond++;

  009c8	8b 45 ec	 mov	 eax, DWORD PTR _ChaosDiamond$[ebp]
  009cb	83 c0 01	 add	 eax, 1
  009ce	89 45 ec	 mov	 DWORD PTR _ChaosDiamond$[ebp], eax

; 221  : 				add = 1;

  009d1	c7 45 e0 01 00
	00 00		 mov	 DWORD PTR _add$[ebp], 1
  009d8	eb 7e		 jmp	 SHORT $LN22@ChaosBoxMi
$LN24@ChaosBoxMi:

; 222  : 			}
; 223  : 			else if ( lpObj->pChaosBox[n].m_Type == ITEMGET(14,13) || lpObj->pChaosBox[n].m_Type == ITEMGET(14,14) )	// Jewel of Bless, Jewel of Soul

  009da	8b 45 d0	 mov	 eax, DWORD PTR _n$235442[ebp]
  009dd	69 c0 d4 00 00
	00		 imul	 eax, 212		; 000000d4H
  009e3	8b 4d 08	 mov	 ecx, DWORD PTR _lpObj$[ebp]
  009e6	8b 91 78 0e 00
	00		 mov	 edx, DWORD PTR [ecx+3704]
  009ec	0f bf 44 02 06	 movsx	 eax, WORD PTR [edx+eax+6]
  009f1	3d 0d 1c 00 00	 cmp	 eax, 7181		; 00001c0dH
  009f6	74 1e		 je	 SHORT $LN21@ChaosBoxMi
  009f8	8b 45 d0	 mov	 eax, DWORD PTR _n$235442[ebp]
  009fb	69 c0 d4 00 00
	00		 imul	 eax, 212		; 000000d4H
  00a01	8b 4d 08	 mov	 ecx, DWORD PTR _lpObj$[ebp]
  00a04	8b 91 78 0e 00
	00		 mov	 edx, DWORD PTR [ecx+3704]
  00a0a	0f bf 44 02 06	 movsx	 eax, WORD PTR [edx+eax+6]
  00a0f	3d 0e 1c 00 00	 cmp	 eax, 7182		; 00001c0eH
  00a14	75 42		 jne	 SHORT $LN22@ChaosBoxMi
$LN21@ChaosBoxMi:

; 224  : 			{
; 225  : 				value += lpObj->pChaosBox[n].m_OldBuyMoney;

  00a16	8b 45 d0	 mov	 eax, DWORD PTR _n$235442[ebp]
  00a19	69 c0 d4 00 00
	00		 imul	 eax, 212		; 000000d4H
  00a1f	8b 4d 08	 mov	 ecx, DWORD PTR _lpObj$[ebp]
  00a22	8b 91 78 0e 00
	00		 mov	 edx, DWORD PTR [ecx+3704]
  00a28	8b 4d e4	 mov	 ecx, DWORD PTR _value$[ebp]
  00a2b	03 8c 02 90 00
	00 00		 add	 ecx, DWORD PTR [edx+eax+144]
  00a32	89 4d e4	 mov	 DWORD PTR _value$[ebp], ecx

; 226  : 				nv = lpObj->pChaosBox[n].m_OldBuyMoney;

  00a35	8b 45 d0	 mov	 eax, DWORD PTR _n$235442[ebp]
  00a38	69 c0 d4 00 00
	00		 imul	 eax, 212		; 000000d4H
  00a3e	8b 4d 08	 mov	 ecx, DWORD PTR _lpObj$[ebp]
  00a41	8b 91 78 0e 00
	00		 mov	 edx, DWORD PTR [ecx+3704]
  00a47	8b 84 02 90 00
	00 00		 mov	 eax, DWORD PTR [edx+eax+144]
  00a4e	89 45 dc	 mov	 DWORD PTR _nv$[ebp], eax

; 227  : 				add = 1;

  00a51	c7 45 e0 01 00
	00 00		 mov	 DWORD PTR _add$[ebp], 1
$LN22@ChaosBoxMi:

; 228  : 			}
; 229  : 
; 230  : 			//season4.5 add-on
; 231  : 			if( lpObj->pChaosBox[n].m_Type == ITEMGET(13,83) ||
; 232  : 				lpObj->pChaosBox[n].m_Type == ITEMGET(13,84) ||
; 233  : 				lpObj->pChaosBox[n].m_Type == ITEMGET(13,85) ||
; 234  : 				lpObj->pChaosBox[n].m_Type == ITEMGET(13,86) ||
; 235  : 				lpObj->pChaosBox[n].m_Type == ITEMGET(13,87) )

  00a58	8b 45 d0	 mov	 eax, DWORD PTR _n$235442[ebp]
  00a5b	69 c0 d4 00 00
	00		 imul	 eax, 212		; 000000d4H
  00a61	8b 4d 08	 mov	 ecx, DWORD PTR _lpObj$[ebp]
  00a64	8b 91 78 0e 00
	00		 mov	 edx, DWORD PTR [ecx+3704]
  00a6a	0f bf 44 02 06	 movsx	 eax, WORD PTR [edx+eax+6]
  00a6f	3d 53 1a 00 00	 cmp	 eax, 6739		; 00001a53H
  00a74	74 78		 je	 SHORT $LN19@ChaosBoxMi
  00a76	8b 45 d0	 mov	 eax, DWORD PTR _n$235442[ebp]
  00a79	69 c0 d4 00 00
	00		 imul	 eax, 212		; 000000d4H
  00a7f	8b 4d 08	 mov	 ecx, DWORD PTR _lpObj$[ebp]
  00a82	8b 91 78 0e 00
	00		 mov	 edx, DWORD PTR [ecx+3704]
  00a88	0f bf 44 02 06	 movsx	 eax, WORD PTR [edx+eax+6]
  00a8d	3d 54 1a 00 00	 cmp	 eax, 6740		; 00001a54H
  00a92	74 5a		 je	 SHORT $LN19@ChaosBoxMi
  00a94	8b 45 d0	 mov	 eax, DWORD PTR _n$235442[ebp]
  00a97	69 c0 d4 00 00
	00		 imul	 eax, 212		; 000000d4H
  00a9d	8b 4d 08	 mov	 ecx, DWORD PTR _lpObj$[ebp]
  00aa0	8b 91 78 0e 00
	00		 mov	 edx, DWORD PTR [ecx+3704]
  00aa6	0f bf 44 02 06	 movsx	 eax, WORD PTR [edx+eax+6]
  00aab	3d 55 1a 00 00	 cmp	 eax, 6741		; 00001a55H
  00ab0	74 3c		 je	 SHORT $LN19@ChaosBoxMi
  00ab2	8b 45 d0	 mov	 eax, DWORD PTR _n$235442[ebp]
  00ab5	69 c0 d4 00 00
	00		 imul	 eax, 212		; 000000d4H
  00abb	8b 4d 08	 mov	 ecx, DWORD PTR _lpObj$[ebp]
  00abe	8b 91 78 0e 00
	00		 mov	 edx, DWORD PTR [ecx+3704]
  00ac4	0f bf 44 02 06	 movsx	 eax, WORD PTR [edx+eax+6]
  00ac9	3d 56 1a 00 00	 cmp	 eax, 6742		; 00001a56H
  00ace	74 1e		 je	 SHORT $LN19@ChaosBoxMi
  00ad0	8b 45 d0	 mov	 eax, DWORD PTR _n$235442[ebp]
  00ad3	69 c0 d4 00 00
	00		 imul	 eax, 212		; 000000d4H
  00ad9	8b 4d 08	 mov	 ecx, DWORD PTR _lpObj$[ebp]
  00adc	8b 91 78 0e 00
	00		 mov	 edx, DWORD PTR [ecx+3704]
  00ae2	0f bf 44 02 06	 movsx	 eax, WORD PTR [edx+eax+6]
  00ae7	3d 57 1a 00 00	 cmp	 eax, 6743		; 00001a57H
  00aec	75 1a		 jne	 SHORT $LN20@ChaosBoxMi
$LN19@ChaosBoxMi:

; 236  : 			{
; 237  : 				WingCharmItemNum = lpObj->pChaosBox[n].m_Type;

  00aee	8b 45 d0	 mov	 eax, DWORD PTR _n$235442[ebp]
  00af1	69 c0 d4 00 00
	00		 imul	 eax, 212		; 000000d4H
  00af7	8b 4d 08	 mov	 ecx, DWORD PTR _lpObj$[ebp]
  00afa	8b 91 78 0e 00
	00		 mov	 edx, DWORD PTR [ecx+3704]
  00b00	0f bf 44 02 06	 movsx	 eax, WORD PTR [edx+eax+6]
  00b05	89 45 d8	 mov	 DWORD PTR _WingCharmItemNum$[ebp], eax
$LN20@ChaosBoxMi:

; 238  : 			}
; 239  : 
; 240  : 			if ( lpObj->pChaosBox[n].m_Type == ITEMGET(13,14) ) // Loch Feather

  00b08	8b 45 d0	 mov	 eax, DWORD PTR _n$235442[ebp]
  00b0b	69 c0 d4 00 00
	00		 imul	 eax, 212		; 000000d4H
  00b11	8b 4d 08	 mov	 ecx, DWORD PTR _lpObj$[ebp]
  00b14	8b 91 78 0e 00
	00		 mov	 edx, DWORD PTR [ecx+3704]
  00b1a	0f bf 44 02 06	 movsx	 eax, WORD PTR [edx+eax+6]
  00b1f	3d 0e 1a 00 00	 cmp	 eax, 6670		; 00001a0eH
  00b24	75 07		 jne	 SHORT $LN18@ChaosBoxMi

; 241  : 			{
; 242  : 				return FALSE;

  00b26	33 c0		 xor	 eax, eax
  00b28	e9 ef 02 00 00	 jmp	 $LN34@ChaosBoxMi
$LN18@ChaosBoxMi:

; 243  : 			}
; 244  : 
; 245  : 			if ( lpObj->pChaosBox[n].m_Type == ITEMGET(14,53) )	// Charm Of Luck

  00b2d	8b 45 d0	 mov	 eax, DWORD PTR _n$235442[ebp]
  00b30	69 c0 d4 00 00
	00		 imul	 eax, 212		; 000000d4H
  00b36	8b 4d 08	 mov	 ecx, DWORD PTR _lpObj$[ebp]
  00b39	8b 91 78 0e 00
	00		 mov	 edx, DWORD PTR [ecx+3704]
  00b3f	0f bf 44 02 06	 movsx	 eax, WORD PTR [edx+eax+6]
  00b44	3d 35 1c 00 00	 cmp	 eax, 7221		; 00001c35H
  00b49	75 21		 jne	 SHORT $LN17@ChaosBoxMi

; 246  : 			{
; 247  : 				iCharmOfLuckCount += (int)lpObj->pChaosBox[n].m_Durability;

  00b4b	8b 45 d0	 mov	 eax, DWORD PTR _n$235442[ebp]
  00b4e	69 c0 d4 00 00
	00		 imul	 eax, 212		; 000000d4H
  00b54	8b 4d 08	 mov	 ecx, DWORD PTR _lpObj$[ebp]
  00b57	8b 91 78 0e 00
	00		 mov	 edx, DWORD PTR [ecx+3704]
  00b5d	d9 44 02 24	 fld	 DWORD PTR [edx+eax+36]
  00b61	e8 00 00 00 00	 call	 __ftol2_sse
  00b66	03 45 d4	 add	 eax, DWORD PTR _iCharmOfLuckCount$[ebp]
  00b69	89 45 d4	 mov	 DWORD PTR _iCharmOfLuckCount$[ebp], eax
$LN17@ChaosBoxMi:

; 248  : 			}
; 249  : 
; 250  : 			if ( add != 0  )

  00b6c	83 7d e0 00	 cmp	 DWORD PTR _add$[ebp], 0
  00b70	74 09		 je	 SHORT $LN16@ChaosBoxMi

; 251  : 			{
; 252  : 				ChaosItems++;

  00b72	8b 45 e8	 mov	 eax, DWORD PTR _ChaosItems$[ebp]
  00b75	83 c0 01	 add	 eax, 1
  00b78	89 45 e8	 mov	 DWORD PTR _ChaosItems$[ebp], eax
$LN16@ChaosBoxMi:

; 253  : 			}
; 254  : 
; 255  : 			ItemIsBufExOption(ExOption, &lpObj->pChaosBox[n]);

  00b7b	8b 45 d0	 mov	 eax, DWORD PTR _n$235442[ebp]
  00b7e	69 c0 d4 00 00
	00		 imul	 eax, 212		; 000000d4H
  00b84	8b 4d 08	 mov	 ecx, DWORD PTR _lpObj$[ebp]
  00b87	03 81 78 0e 00
	00		 add	 eax, DWORD PTR [ecx+3704]
  00b8d	50		 push	 eax
  00b8e	8d 55 f0	 lea	 edx, DWORD PTR _ExOption$[ebp]
  00b91	52		 push	 edx
  00b92	e8 00 00 00 00	 call	 ?ItemIsBufExOption@@YAXPAEPAVCItem@@@Z ; ItemIsBufExOption
  00b97	83 c4 08	 add	 esp, 8

; 256  : 			LogAdd("[%s][%s] CBMix [%d,%s,%d,%d,%d,%d]serial:[%u][%d][%d] Ex:[%d,%d,%d,%d,%d,%d,%d]",
; 257  : 				lpObj->AccountID, lpObj->Name, n, lpObj->pChaosBox[n].GetName(),
; 258  : 				lpObj->pChaosBox[n].m_Level, lpObj->pChaosBox[n].m_Option1,
; 259  : 				lpObj->pChaosBox[n].m_Option2, lpObj->pChaosBox[n].m_Option3,
; 260  : 				lpObj->pChaosBox[n].m_Number, (int)lpObj->pChaosBox[n].m_Durability,
; 261  : 				nv, ExOption[0], ExOption[1], ExOption[2], ExOption[3], ExOption[4], ExOption[5],
; 262  : 				ExOption[6], lpObj->pChaosBox[n].m_SetOption);

  00b9a	8b 45 d0	 mov	 eax, DWORD PTR _n$235442[ebp]
  00b9d	69 c0 d4 00 00
	00		 imul	 eax, 212		; 000000d4H
  00ba3	8b 4d 08	 mov	 ecx, DWORD PTR _lpObj$[ebp]
  00ba6	8b 91 78 0e 00
	00		 mov	 edx, DWORD PTR [ecx+3704]
  00bac	0f b6 84 02 ae
	00 00 00	 movzx	 eax, BYTE PTR [edx+eax+174]
  00bb4	50		 push	 eax
  00bb5	0f b6 4d f6	 movzx	 ecx, BYTE PTR _ExOption$[ebp+6]
  00bb9	51		 push	 ecx
  00bba	0f b6 55 f5	 movzx	 edx, BYTE PTR _ExOption$[ebp+5]
  00bbe	52		 push	 edx
  00bbf	0f b6 45 f4	 movzx	 eax, BYTE PTR _ExOption$[ebp+4]
  00bc3	50		 push	 eax
  00bc4	0f b6 4d f3	 movzx	 ecx, BYTE PTR _ExOption$[ebp+3]
  00bc8	51		 push	 ecx
  00bc9	0f b6 55 f2	 movzx	 edx, BYTE PTR _ExOption$[ebp+2]
  00bcd	52		 push	 edx
  00bce	0f b6 45 f1	 movzx	 eax, BYTE PTR _ExOption$[ebp+1]
  00bd2	50		 push	 eax
  00bd3	0f b6 4d f0	 movzx	 ecx, BYTE PTR _ExOption$[ebp]
  00bd7	51		 push	 ecx
  00bd8	8b 55 dc	 mov	 edx, DWORD PTR _nv$[ebp]
  00bdb	52		 push	 edx
  00bdc	8b 45 d0	 mov	 eax, DWORD PTR _n$235442[ebp]
  00bdf	69 c0 d4 00 00
	00		 imul	 eax, 212		; 000000d4H
  00be5	8b 4d 08	 mov	 ecx, DWORD PTR _lpObj$[ebp]
  00be8	8b 91 78 0e 00
	00		 mov	 edx, DWORD PTR [ecx+3704]
  00bee	d9 44 02 24	 fld	 DWORD PTR [edx+eax+36]
  00bf2	e8 00 00 00 00	 call	 __ftol2_sse
  00bf7	50		 push	 eax
  00bf8	8b 45 d0	 mov	 eax, DWORD PTR _n$235442[ebp]
  00bfb	69 c0 d4 00 00
	00		 imul	 eax, 212		; 000000d4H
  00c01	8b 4d 08	 mov	 ecx, DWORD PTR _lpObj$[ebp]
  00c04	8b 91 78 0e 00
	00		 mov	 edx, DWORD PTR [ecx+3704]
  00c0a	8b 04 02	 mov	 eax, DWORD PTR [edx+eax]
  00c0d	50		 push	 eax
  00c0e	8b 4d d0	 mov	 ecx, DWORD PTR _n$235442[ebp]
  00c11	69 c9 d4 00 00
	00		 imul	 ecx, 212		; 000000d4H
  00c17	8b 55 08	 mov	 edx, DWORD PTR _lpObj$[ebp]
  00c1a	8b 82 78 0e 00
	00		 mov	 eax, DWORD PTR [edx+3704]
  00c20	0f b6 8c 08 96
	00 00 00	 movzx	 ecx, BYTE PTR [eax+ecx+150]
  00c28	51		 push	 ecx
  00c29	8b 55 d0	 mov	 edx, DWORD PTR _n$235442[ebp]
  00c2c	69 d2 d4 00 00
	00		 imul	 edx, 212		; 000000d4H
  00c32	8b 45 08	 mov	 eax, DWORD PTR _lpObj$[ebp]
  00c35	8b 88 78 0e 00
	00		 mov	 ecx, DWORD PTR [eax+3704]
  00c3b	0f b6 94 11 95
	00 00 00	 movzx	 edx, BYTE PTR [ecx+edx+149]
  00c43	52		 push	 edx
  00c44	8b 45 d0	 mov	 eax, DWORD PTR _n$235442[ebp]
  00c47	69 c0 d4 00 00
	00		 imul	 eax, 212		; 000000d4H
  00c4d	8b 4d 08	 mov	 ecx, DWORD PTR _lpObj$[ebp]
  00c50	8b 91 78 0e 00
	00		 mov	 edx, DWORD PTR [ecx+3704]
  00c56	0f b6 84 02 94
	00 00 00	 movzx	 eax, BYTE PTR [edx+eax+148]
  00c5e	50		 push	 eax
  00c5f	8b 4d d0	 mov	 ecx, DWORD PTR _n$235442[ebp]
  00c62	69 c9 d4 00 00
	00		 imul	 ecx, 212		; 000000d4H
  00c68	8b 55 08	 mov	 edx, DWORD PTR _lpObj$[ebp]
  00c6b	8b 82 78 0e 00
	00		 mov	 eax, DWORD PTR [edx+3704]
  00c71	0f bf 4c 08 08	 movsx	 ecx, WORD PTR [eax+ecx+8]
  00c76	51		 push	 ecx
  00c77	8b 4d d0	 mov	 ecx, DWORD PTR _n$235442[ebp]
  00c7a	69 c9 d4 00 00
	00		 imul	 ecx, 212		; 000000d4H
  00c80	8b 55 08	 mov	 edx, DWORD PTR _lpObj$[ebp]
  00c83	03 8a 78 0e 00
	00		 add	 ecx, DWORD PTR [edx+3704]
  00c89	e8 00 00 00 00	 call	 ?GetName@CItem@@QAEPADXZ ; CItem::GetName
  00c8e	50		 push	 eax
  00c8f	8b 45 d0	 mov	 eax, DWORD PTR _n$235442[ebp]
  00c92	50		 push	 eax
  00c93	8b 4d 08	 mov	 ecx, DWORD PTR _lpObj$[ebp]
  00c96	83 c1 77	 add	 ecx, 119		; 00000077H
  00c99	51		 push	 ecx
  00c9a	8b 55 08	 mov	 edx, DWORD PTR _lpObj$[ebp]
  00c9d	83 c2 6c	 add	 edx, 108		; 0000006cH
  00ca0	52		 push	 edx
  00ca1	68 00 00 00 00	 push	 OFFSET ??_C@_0FA@FKHLLHEC@?$FL?$CFs?$FN?$FL?$CFs?$FN?5CBMix?5?$FL?$CFd?0?$CFs?0?$CFd?0?$CFd?0?$CFd?0?$CF@
  00ca6	ff 15 00 00 00
	00		 call	 DWORD PTR ?LogAdd@@3P6AXPADZZA ; LogAdd
  00cac	83 c4 50	 add	 esp, 80			; 00000050H
$LN29@ChaosBoxMi:

; 263  : 		}
; 264  : 	}

  00caf	e9 4b fb ff ff	 jmp	 $LN31@ChaosBoxMi
$LN30@ChaosBoxMi:

; 265  : 
; 266  : 	if ( ChaosDiamond == 0 )

  00cb4	83 7d ec 00	 cmp	 DWORD PTR _ChaosDiamond$[ebp], 0
  00cb8	75 07		 jne	 SHORT $LN15@ChaosBoxMi

; 267  : 	{
; 268  : 		value = 0;

  00cba	c7 45 e4 00 00
	00 00		 mov	 DWORD PTR _value$[ebp], 0
$LN15@ChaosBoxMi:

; 269  : 	}
; 270  : 
; 271  : 	if ( ChaosItems < 2 )

  00cc1	83 7d e8 02	 cmp	 DWORD PTR _ChaosItems$[ebp], 2
  00cc5	7d 07		 jge	 SHORT $LN14@ChaosBoxMi

; 272  : 	{
; 273  : 		value = 0;

  00cc7	c7 45 e4 00 00
	00 00		 mov	 DWORD PTR _value$[ebp], 0
$LN14@ChaosBoxMi:

; 274  : 	}
; 275  : 
; 276  : 	if ( iCharmOfLuckCount > 10 )

  00cce	83 7d d4 0a	 cmp	 DWORD PTR _iCharmOfLuckCount$[ebp], 10 ; 0000000aH
  00cd2	7e 07		 jle	 SHORT $LN13@ChaosBoxMi

; 277  : 		return FALSE;

  00cd4	33 c0		 xor	 eax, eax
  00cd6	e9 41 01 00 00	 jmp	 $LN34@ChaosBoxMi
$LN13@ChaosBoxMi:

; 278  : 	
; 279  : 	lpObj->ChaosSuccessRate = value / 20000;

  00cdb	8b 45 e4	 mov	 eax, DWORD PTR _value$[ebp]
  00cde	99		 cdq
  00cdf	b9 20 4e 00 00	 mov	 ecx, 20000		; 00004e20H
  00ce4	f7 f9		 idiv	 ecx
  00ce6	8b 55 08	 mov	 edx, DWORD PTR _lpObj$[ebp]
  00ce9	89 82 84 0e 00
	00		 mov	 DWORD PTR [edx+3716], eax

; 280  : 	lpObj->ChaosSuccessRate += iCharmOfLuckCount;

  00cef	8b 45 08	 mov	 eax, DWORD PTR _lpObj$[ebp]
  00cf2	8b 88 84 0e 00
	00		 mov	 ecx, DWORD PTR [eax+3716]
  00cf8	03 4d d4	 add	 ecx, DWORD PTR _iCharmOfLuckCount$[ebp]
  00cfb	8b 55 08	 mov	 edx, DWORD PTR _lpObj$[ebp]
  00cfe	89 8a 84 0e 00
	00		 mov	 DWORD PTR [edx+3716], ecx

; 281  : 
; 282  : 	lpObj->ChaosSuccessRate += lpObj->m_AddMixSuccessRate;

  00d04	8b 45 08	 mov	 eax, DWORD PTR _lpObj$[ebp]
  00d07	8b 88 84 0e 00
	00		 mov	 ecx, DWORD PTR [eax+3716]
  00d0d	8b 55 08	 mov	 edx, DWORD PTR _lpObj$[ebp]
  00d10	03 8a 20 28 00
	00		 add	 ecx, DWORD PTR [edx+10272]
  00d16	8b 45 08	 mov	 eax, DWORD PTR _lpObj$[ebp]
  00d19	89 88 84 0e 00
	00		 mov	 DWORD PTR [eax+3716], ecx

; 283  : 
; 284  : 	if ( lpObj->ChaosSuccessRate  > 100 )

  00d1f	8b 45 08	 mov	 eax, DWORD PTR _lpObj$[ebp]
  00d22	83 b8 84 0e 00
	00 64		 cmp	 DWORD PTR [eax+3716], 100 ; 00000064H
  00d29	7e 0d		 jle	 SHORT $LN12@ChaosBoxMi

; 285  : 	{
; 286  : 		lpObj->ChaosSuccessRate = 100;

  00d2b	8b 45 08	 mov	 eax, DWORD PTR _lpObj$[ebp]
  00d2e	c7 80 84 0e 00
	00 64 00 00 00	 mov	 DWORD PTR [eax+3716], 100 ; 00000064H
$LN12@ChaosBoxMi:

; 287  : 	}
; 288  : 
; 289  : 	lpObj->ChaosMoney = lpObj->ChaosSuccessRate * 10000;

  00d38	8b 45 08	 mov	 eax, DWORD PTR _lpObj$[ebp]
  00d3b	8b 88 84 0e 00
	00		 mov	 ecx, DWORD PTR [eax+3716]
  00d41	69 c9 10 27 00
	00		 imul	 ecx, 10000		; 00002710H
  00d47	8b 55 08	 mov	 edx, DWORD PTR _lpObj$[ebp]
  00d4a	89 8a 80 0e 00
	00		 mov	 DWORD PTR [edx+3712], ecx

; 290  : 
; 291  : 	LogAddTD("[%s][%s] CBMix need Zen : %d SuccessRate : %d, CharmRate : %d", lpObj->AccountID, lpObj->Name, lpObj->ChaosMoney, lpObj->ChaosSuccessRate, iCharmOfLuckCount);

  00d50	8b 45 d4	 mov	 eax, DWORD PTR _iCharmOfLuckCount$[ebp]
  00d53	50		 push	 eax
  00d54	8b 4d 08	 mov	 ecx, DWORD PTR _lpObj$[ebp]
  00d57	8b 91 84 0e 00
	00		 mov	 edx, DWORD PTR [ecx+3716]
  00d5d	52		 push	 edx
  00d5e	8b 45 08	 mov	 eax, DWORD PTR _lpObj$[ebp]
  00d61	8b 88 80 0e 00
	00		 mov	 ecx, DWORD PTR [eax+3712]
  00d67	51		 push	 ecx
  00d68	8b 55 08	 mov	 edx, DWORD PTR _lpObj$[ebp]
  00d6b	83 c2 77	 add	 edx, 119		; 00000077H
  00d6e	52		 push	 edx
  00d6f	8b 45 08	 mov	 eax, DWORD PTR _lpObj$[ebp]
  00d72	83 c0 6c	 add	 eax, 108		; 0000006cH
  00d75	50		 push	 eax
  00d76	68 00 00 00 00	 push	 OFFSET ??_C@_0DO@PLIHJFD@?$FL?$CFs?$FN?$FL?$CFs?$FN?5CBMix?5need?5Zen?5?3?5?$CFd?5Suc@
  00d7b	ff 15 00 00 00
	00		 call	 DWORD PTR ?LogAddTD@@3P6AXPADZZA ; LogAddTD
  00d81	83 c4 18	 add	 esp, 24			; 00000018H

; 292  : 
; 293  : 	if(WingCharmItemNum > -1) //season4.5 add-on

  00d84	83 7d d8 ff	 cmp	 DWORD PTR _WingCharmItemNum$[ebp], -1
  00d88	0f 8e 8b 00 00
	00		 jle	 $LN9@ChaosBoxMi

; 294  : 	{
; 295  : 		int WingCharmIndex = WingCharmItemNum ^ ITEMGET(13,0);

  00d8e	8b 45 d8	 mov	 eax, DWORD PTR _WingCharmItemNum$[ebp]
  00d91	35 00 1a 00 00	 xor	 eax, 6656		; 00001a00H
  00d96	89 45 cc	 mov	 DWORD PTR _WingCharmIndex$235469[ebp], eax

; 296  : 
; 297  : 		switch(WingCharmIndex)

  00d99	8b 45 cc	 mov	 eax, DWORD PTR _WingCharmIndex$235469[ebp]
  00d9c	89 45 88	 mov	 DWORD PTR tv361[ebp], eax
  00d9f	8b 4d 88	 mov	 ecx, DWORD PTR tv361[ebp]
  00da2	83 e9 53	 sub	 ecx, 83			; 00000053H
  00da5	89 4d 88	 mov	 DWORD PTR tv361[ebp], ecx
  00da8	83 7d 88 04	 cmp	 DWORD PTR tv361[ebp], 4
  00dac	77 55		 ja	 SHORT $LN1@ChaosBoxMi
  00dae	8b 55 88	 mov	 edx, DWORD PTR tv361[ebp]
  00db1	ff 24 95 00 00
	00 00		 jmp	 DWORD PTR $LN36@ChaosBoxMi[edx*4]
$LN8@ChaosBoxMi:

; 298  : 		{
; 299  : 		case 83:
; 300  : 			Result3 = 2;

  00db8	8b 45 10	 mov	 eax, DWORD PTR _Result3$[ebp]
  00dbb	c7 00 02 00 00
	00		 mov	 DWORD PTR [eax], 2

; 301  : 			break;

  00dc1	eb 56		 jmp	 SHORT $LN9@ChaosBoxMi
$LN7@ChaosBoxMi:

; 302  : 		case 84:
; 303  : 			Result3 = 1;

  00dc3	8b 45 10	 mov	 eax, DWORD PTR _Result3$[ebp]
  00dc6	c7 00 01 00 00
	00		 mov	 DWORD PTR [eax], 1

; 304  : 			break;

  00dcc	eb 4b		 jmp	 SHORT $LN9@ChaosBoxMi
$LN6@ChaosBoxMi:

; 305  : 		case 85:
; 306  : 			Result3 = 0;

  00dce	8b 45 10	 mov	 eax, DWORD PTR _Result3$[ebp]
  00dd1	c7 00 00 00 00
	00		 mov	 DWORD PTR [eax], 0

; 307  : 			break;

  00dd7	eb 40		 jmp	 SHORT $LN9@ChaosBoxMi
$LN5@ChaosBoxMi:

; 308  : 		case 86:
; 309  : 			if(ExConfig.ExCustom.SwitchChar == 2)

  00dd9	83 3d 00 00 00
	00 02		 cmp	 DWORD PTR ?ExConfig@@3VcExConfigs@@A, 2
  00de0	75 0b		 jne	 SHORT $LN4@ChaosBoxMi

; 310  : 			{
; 311  : 				Result3 = 0;

  00de2	8b 45 10	 mov	 eax, DWORD PTR _Result3$[ebp]
  00de5	c7 00 00 00 00
	00		 mov	 DWORD PTR [eax], 0

; 312  : 			}
; 313  : 			else

  00deb	eb 09		 jmp	 SHORT $LN3@ChaosBoxMi
$LN4@ChaosBoxMi:

; 314  : 			{
; 315  : 				Result3 = 41;

  00ded	8b 45 10	 mov	 eax, DWORD PTR _Result3$[ebp]
  00df0	c7 00 29 00 00
	00		 mov	 DWORD PTR [eax], 41	; 00000029H
$LN3@ChaosBoxMi:

; 316  : 			}
; 317  : 			break;

  00df6	eb 21		 jmp	 SHORT $LN9@ChaosBoxMi
$LN2@ChaosBoxMi:

; 318  : 		case 87://updated 1.01.00
; 319  : 			Result3 = 30;//40;

  00df8	8b 45 10	 mov	 eax, DWORD PTR _Result3$[ebp]
  00dfb	c7 00 1e 00 00
	00		 mov	 DWORD PTR [eax], 30	; 0000001eH

; 320  : 			break;

  00e01	eb 16		 jmp	 SHORT $LN9@ChaosBoxMi
$LN1@ChaosBoxMi:

; 321  : 		default:
; 322  : 			LogAddTD("[MixSystem] WingCharmItemNum => %d , WingCharmIndex => %d", WingCharmItemNum, WingCharmIndex);

  00e03	8b 45 cc	 mov	 eax, DWORD PTR _WingCharmIndex$235469[ebp]
  00e06	50		 push	 eax
  00e07	8b 4d d8	 mov	 ecx, DWORD PTR _WingCharmItemNum$[ebp]
  00e0a	51		 push	 ecx
  00e0b	68 00 00 00 00	 push	 OFFSET ??_C@_0DK@EKDAKNF@?$FLMixSystem?$FN?5WingCharmItemNum?5?$DN?$DO?5@
  00e10	ff 15 00 00 00
	00		 call	 DWORD PTR ?LogAddTD@@3P6AXPADZZA ; LogAddTD
  00e16	83 c4 0c	 add	 esp, 12			; 0000000cH
$LN9@ChaosBoxMi:

; 323  : 		}
; 324  : 	}
; 325  : 
; 326  : 	return value;

  00e19	8b 45 e4	 mov	 eax, DWORD PTR _value$[ebp]
$LN34@ChaosBoxMi:

; 327  : }

  00e1c	5f		 pop	 edi
  00e1d	5e		 pop	 esi
  00e1e	5b		 pop	 ebx
  00e1f	8b 4d fc	 mov	 ecx, DWORD PTR __$ArrayPad$[ebp]
  00e22	33 cd		 xor	 ecx, ebp
  00e24	e8 00 00 00 00	 call	 @__security_check_cookie@4
  00e29	8b e5		 mov	 esp, ebp
  00e2b	5d		 pop	 ebp
  00e2c	c2 0c 00	 ret	 12			; 0000000cH
  00e2f	90		 npad	 1
$LN36@ChaosBoxMi:
  00e30	00 00 00 00	 DD	 $LN8@ChaosBoxMi
  00e34	00 00 00 00	 DD	 $LN7@ChaosBoxMi
  00e38	00 00 00 00	 DD	 $LN6@ChaosBoxMi
  00e3c	00 00 00 00	 DD	 $LN5@ChaosBoxMi
  00e40	00 00 00 00	 DD	 $LN2@ChaosBoxMi
?ChaosBoxMix@CMixSystem@@QAEHPAUOBJECTSTRUCT@@AAH1@Z ENDP ; CMixSystem::ChaosBoxMix
_TEXT	ENDS
PUBLIC	?CBUPS_ItemRequest@CMixSystem@@QAEXHPAD0@Z	; CMixSystem::CBUPS_ItemRequest
PUBLIC	??_C@_0CK@IKEPLJDI@?$FL?$CFs?$FN?$FL?$CFs?$FN?5CBMix?5Success?5Rate?3?$CFd?5M@ ; `string'
PUBLIC	??_C@_0CF@NPEOFJKC@?$FL?$CFs?$FN?$FL?$CFs?$FN?5CBMix?5Fail?5?$CFd?5Money?5?3?5?$CF@ ; `string'
PUBLIC	__$ArrayPad$
PUBLIC	?DefaultChaosMix@CMixSystem@@QAEXPAUOBJECTSTRUCT@@@Z ; CMixSystem::DefaultChaosMix
EXTRN	?gObjInventoryCommit@@YAHH@Z:PROC		; gObjInventoryCommit
EXTRN	?gChaosEvent@@3HA:DWORD				; gChaosEvent
EXTRN	?FailedChaosMix@CAchievements@@QAEXH@Z:PROC	; CAchievements::FailedChaosMix
EXTRN	?GCUserChaosBoxSend@@YAXPAUOBJECTSTRUCT@@H@Z:PROC ; GCUserChaosBoxSend
EXTRN	?GCMoneySend@@YAXHK@Z:PROC			; GCMoneySend
EXTRN	?AddTributeMoney@CCastleSiegeSync@@QAEXH@Z:PROC	; CCastleSiegeSync::AddTributeMoney
EXTRN	?ItemSerialCreateSend@@YAXHEEEHEEEEEHEE@Z:PROC	; ItemSerialCreateSend
EXTRN	?SuccessChaosMix@CAchievements@@QAEXH@Z:PROC	; CAchievements::SuccessChaosMix
EXTRN	?g_Achievements@@3VCAchievements@@A:BYTE	; g_Achievements
EXTRN	?GetTaxRateChaos@CCastleSiegeSync@@QAEHH@Z:PROC	; CCastleSiegeSync::GetTaxRateChaos
EXTRN	?g_CastleSiegeSync@@3VCCastleSiegeSync@@A:BYTE	; g_CastleSiegeSync
EXTRN	?DataSend@@YAHHPAEK@Z:PROC			; DataSend
EXTRN	?PHeadSetB@@YAXPAEEH@Z:PROC			; PHeadSetB
EXTRN	__alldiv:PROC
EXTRN	__allmul:PROC
;	COMDAT ??_C@_0CK@IKEPLJDI@?$FL?$CFs?$FN?$FL?$CFs?$FN?5CBMix?5Success?5Rate?3?$CFd?5M@
CONST	SEGMENT
??_C@_0CK@IKEPLJDI@?$FL?$CFs?$FN?$FL?$CFs?$FN?5CBMix?5Success?5Rate?3?$CFd?5M@ DB '['
	DB	'%s][%s] CBMix Success Rate:%d Money : %d', 00H ; `string'
CONST	ENDS
;	COMDAT ??_C@_0CF@NPEOFJKC@?$FL?$CFs?$FN?$FL?$CFs?$FN?5CBMix?5Fail?5?$CFd?5Money?5?3?5?$CF@
CONST	SEGMENT
??_C@_0CF@NPEOFJKC@?$FL?$CFs?$FN?$FL?$CFs?$FN?5CBMix?5Fail?5?$CFd?5Money?5?3?5?$CF@ DB '['
	DB	'%s][%s] CBMix Fail %d Money : %d-%d', 00H	; `string'
; Function compile flags: /Odtp /ZI
CONST	ENDS
_TEXT	SEGMENT
tv163 = -156						; size = 4
_ChaosItemNum$235548 = -88				; size = 4
_ChaosItemType$235547 = -84				; size = 4
_WingNum$235531 = -80					; size = 4
_WingType$235530 = -76					; size = 4
_MaxRandomMix$235528 = -72				; size = 4
_OpType$235516 = -68					; size = 4
_OpProb$235515 = -64					; size = 4
_Option3$235512 = -60					; size = 4
_Option2$235511 = -56					; size = 4
_Option1$235510 = -52					; size = 4
_Level$235509 = -48					; size = 4
_iChaosTaxMoney$ = -44					; size = 4
_WingCharmIndex$ = -40					; size = 4
_MixResult2$ = -36					; size = 4
_fail$ = -32						; size = 4
_aIndex$ = -28						; size = 4
_pMsg$ = -24						; size = 16
_this$ = -8						; size = 4
__$ArrayPad$ = -4					; size = 4
_lpObj$ = 8						; size = 4
?DefaultChaosMix@CMixSystem@@QAEXPAUOBJECTSTRUCT@@@Z PROC ; CMixSystem::DefaultChaosMix
; _this$ = ecx

; 330  : {

  00e50	55		 push	 ebp
  00e51	8b ec		 mov	 ebp, esp
  00e53	81 ec 9c 00 00
	00		 sub	 esp, 156		; 0000009cH
  00e59	a1 00 00 00 00	 mov	 eax, DWORD PTR ___security_cookie
  00e5e	33 c5		 xor	 eax, ebp
  00e60	89 45 fc	 mov	 DWORD PTR __$ArrayPad$[ebp], eax
  00e63	53		 push	 ebx
  00e64	56		 push	 esi
  00e65	57		 push	 edi
  00e66	89 4d f8	 mov	 DWORD PTR _this$[ebp], ecx

; 331  : 	PMSG_CHAOSMIXRESULT pMsg;
; 332  : 
; 333  : 	PHeadSetB((LPBYTE)&pMsg.h, 0x86, sizeof(PMSG_CHAOSMIXRESULT));

  00e69	6a 10		 push	 16			; 00000010H
  00e6b	68 86 00 00 00	 push	 134			; 00000086H
  00e70	8d 45 e8	 lea	 eax, DWORD PTR _pMsg$[ebp]
  00e73	50		 push	 eax
  00e74	e8 00 00 00 00	 call	 ?PHeadSetB@@YAXPAEEH@Z	; PHeadSetB
  00e79	83 c4 0c	 add	 esp, 12			; 0000000cH

; 334  : 	pMsg.Result = CB_ERROR;

  00e7c	c6 45 eb 00	 mov	 BYTE PTR _pMsg$[ebp+3], 0

; 335  : 	int aIndex = lpObj->m_Index;

  00e80	8b 45 08	 mov	 eax, DWORD PTR _lpObj$[ebp]
  00e83	8b 08		 mov	 ecx, DWORD PTR [eax]
  00e85	89 4d e4	 mov	 DWORD PTR _aIndex$[ebp], ecx

; 336  : 	BOOL fail = TRUE;

  00e88	c7 45 e0 01 00
	00 00		 mov	 DWORD PTR _fail$[ebp], 1

; 337  : 	int MixResult2;
; 338  : 	lpObj->ChaosLock = TRUE;

  00e8f	8b 45 08	 mov	 eax, DWORD PTR _lpObj$[ebp]
  00e92	c7 80 88 0e 00
	00 01 00 00 00	 mov	 DWORD PTR [eax+3720], 1

; 339  : 	int WingCharmIndex = -1; //season4.5 add-on

  00e9c	c7 45 d8 ff ff
	ff ff		 mov	 DWORD PTR _WingCharmIndex$[ebp], -1

; 340  : 
; 341  : 	if ( ChaosBoxMix(lpObj, MixResult2, WingCharmIndex) == 0 )

  00ea3	8d 45 d8	 lea	 eax, DWORD PTR _WingCharmIndex$[ebp]
  00ea6	50		 push	 eax
  00ea7	8d 4d dc	 lea	 ecx, DWORD PTR _MixResult2$[ebp]
  00eaa	51		 push	 ecx
  00eab	8b 55 08	 mov	 edx, DWORD PTR _lpObj$[ebp]
  00eae	52		 push	 edx
  00eaf	8b 4d f8	 mov	 ecx, DWORD PTR _this$[ebp]
  00eb2	e8 00 00 00 00	 call	 ?ChaosBoxMix@CMixSystem@@QAEHPAUOBJECTSTRUCT@@AAH1@Z ; CMixSystem::ChaosBoxMix
  00eb7	85 c0		 test	 eax, eax
  00eb9	75 2b		 jne	 SHORT $LN40@DefaultCha

; 342  : 	{
; 343  : 		pMsg.Result = CB_INCORRECT_MIX_ITEMS;

  00ebb	c6 45 eb 07	 mov	 BYTE PTR _pMsg$[ebp+3], 7

; 344  : 		DataSend(aIndex, (LPBYTE)&pMsg, pMsg.h.size);

  00ebf	0f b6 45 e9	 movzx	 eax, BYTE PTR _pMsg$[ebp+1]
  00ec3	50		 push	 eax
  00ec4	8d 4d e8	 lea	 ecx, DWORD PTR _pMsg$[ebp]
  00ec7	51		 push	 ecx
  00ec8	8b 55 e4	 mov	 edx, DWORD PTR _aIndex$[ebp]
  00ecb	52		 push	 edx
  00ecc	e8 00 00 00 00	 call	 ?DataSend@@YAHHPAEK@Z	; DataSend
  00ed1	83 c4 0c	 add	 esp, 12			; 0000000cH

; 345  : 		lpObj->ChaosLock = FALSE;

  00ed4	8b 45 08	 mov	 eax, DWORD PTR _lpObj$[ebp]
  00ed7	c7 80 88 0e 00
	00 00 00 00 00	 mov	 DWORD PTR [eax+3720], 0

; 346  : 		return;

  00ee1	e9 d1 04 00 00	 jmp	 $LN41@DefaultCha
$LN40@DefaultCha:

; 347  : 	}
; 348  : 
; 349  : 	int iChaosTaxMoney = (int)((__int64)lpObj->ChaosMoney * (__int64)g_CastleSiegeSync.GetTaxRateChaos(lpObj->m_Index) / (__int64)100);

  00ee6	8b 45 08	 mov	 eax, DWORD PTR _lpObj$[ebp]
  00ee9	8b 80 80 0e 00
	00		 mov	 eax, DWORD PTR [eax+3712]
  00eef	99		 cdq
  00ef0	8b f0		 mov	 esi, eax
  00ef2	8b fa		 mov	 edi, edx
  00ef4	8b 4d 08	 mov	 ecx, DWORD PTR _lpObj$[ebp]
  00ef7	8b 11		 mov	 edx, DWORD PTR [ecx]
  00ef9	52		 push	 edx
  00efa	b9 00 00 00 00	 mov	 ecx, OFFSET ?g_CastleSiegeSync@@3VCCastleSiegeSync@@A ; g_CastleSiegeSync
  00eff	e8 00 00 00 00	 call	 ?GetTaxRateChaos@CCastleSiegeSync@@QAEHH@Z ; CCastleSiegeSync::GetTaxRateChaos
  00f04	99		 cdq
  00f05	52		 push	 edx
  00f06	50		 push	 eax
  00f07	57		 push	 edi
  00f08	56		 push	 esi
  00f09	e8 00 00 00 00	 call	 __allmul
  00f0e	6a 00		 push	 0
  00f10	6a 64		 push	 100			; 00000064H
  00f12	52		 push	 edx
  00f13	50		 push	 eax
  00f14	e8 00 00 00 00	 call	 __alldiv
  00f19	89 45 d4	 mov	 DWORD PTR _iChaosTaxMoney$[ebp], eax

; 350  : 
; 351  : 	if ( iChaosTaxMoney < 0 )

  00f1c	83 7d d4 00	 cmp	 DWORD PTR _iChaosTaxMoney$[ebp], 0
  00f20	7d 07		 jge	 SHORT $LN39@DefaultCha

; 352  : 	{
; 353  : 		iChaosTaxMoney = 0;

  00f22	c7 45 d4 00 00
	00 00		 mov	 DWORD PTR _iChaosTaxMoney$[ebp], 0
$LN39@DefaultCha:

; 354  : 	}
; 355  : 
; 356  : 	lpObj->ChaosMoney += iChaosTaxMoney;

  00f29	8b 45 08	 mov	 eax, DWORD PTR _lpObj$[ebp]
  00f2c	8b 88 80 0e 00
	00		 mov	 ecx, DWORD PTR [eax+3712]
  00f32	03 4d d4	 add	 ecx, DWORD PTR _iChaosTaxMoney$[ebp]
  00f35	8b 55 08	 mov	 edx, DWORD PTR _lpObj$[ebp]
  00f38	89 8a 80 0e 00
	00		 mov	 DWORD PTR [edx+3712], ecx

; 357  : 
; 358  : 	if ( lpObj->ChaosMoney < 0 )

  00f3e	8b 45 08	 mov	 eax, DWORD PTR _lpObj$[ebp]
  00f41	83 b8 80 0e 00
	00 00		 cmp	 DWORD PTR [eax+3712], 0
  00f48	7d 0d		 jge	 SHORT $LN38@DefaultCha

; 359  : 	{
; 360  : 		lpObj->ChaosMoney = 0;

  00f4a	8b 45 08	 mov	 eax, DWORD PTR _lpObj$[ebp]
  00f4d	c7 80 80 0e 00
	00 00 00 00 00	 mov	 DWORD PTR [eax+3712], 0
$LN38@DefaultCha:

; 361  : 	}
; 362  : 
; 363  : 	if ( lpObj->Money < lpObj->ChaosMoney )

  00f57	8b 45 08	 mov	 eax, DWORD PTR _lpObj$[ebp]
  00f5a	8b 4d 08	 mov	 ecx, DWORD PTR _lpObj$[ebp]
  00f5d	8b 90 f0 00 00
	00		 mov	 edx, DWORD PTR [eax+240]
  00f63	3b 91 80 0e 00
	00		 cmp	 edx, DWORD PTR [ecx+3712]
  00f69	7d 2b		 jge	 SHORT $LN37@DefaultCha

; 364  : 	{
; 365  : 		pMsg.Result = CB_NOT_ENOUGH_ZEN;

  00f6b	c6 45 eb 02	 mov	 BYTE PTR _pMsg$[ebp+3], 2

; 366  : 		
; 367  : 		DataSend(aIndex, (LPBYTE)&pMsg, pMsg.h.size);

  00f6f	0f b6 45 e9	 movzx	 eax, BYTE PTR _pMsg$[ebp+1]
  00f73	50		 push	 eax
  00f74	8d 4d e8	 lea	 ecx, DWORD PTR _pMsg$[ebp]
  00f77	51		 push	 ecx
  00f78	8b 55 e4	 mov	 edx, DWORD PTR _aIndex$[ebp]
  00f7b	52		 push	 edx
  00f7c	e8 00 00 00 00	 call	 ?DataSend@@YAHHPAEK@Z	; DataSend
  00f81	83 c4 0c	 add	 esp, 12			; 0000000cH

; 368  : 		lpObj->ChaosLock = FALSE;

  00f84	8b 45 08	 mov	 eax, DWORD PTR _lpObj$[ebp]
  00f87	c7 80 88 0e 00
	00 00 00 00 00	 mov	 DWORD PTR [eax+3720], 0

; 369  : 	}
; 370  : 	else 

  00f91	e9 13 04 00 00	 jmp	 $LN36@DefaultCha
$LN37@DefaultCha:

; 371  : 	{
; 372  : 		if ( lpObj->ChaosSuccessRate > 0 )

  00f96	8b 45 08	 mov	 eax, DWORD PTR _lpObj$[ebp]
  00f99	83 b8 84 0e 00
	00 00		 cmp	 DWORD PTR [eax+3716], 0
  00fa0	0f 8e db 02 00
	00		 jle	 $LN35@DefaultCha

; 373  : 		{
; 374  : 			if ( lpObj->ChaosSuccessRate >= 100 )

  00fa6	8b 45 08	 mov	 eax, DWORD PTR _lpObj$[ebp]
  00fa9	83 b8 84 0e 00
	00 64		 cmp	 DWORD PTR [eax+3716], 100 ; 00000064H
  00fb0	7c 0d		 jl	 SHORT $LN34@DefaultCha

; 375  : 			{
; 376  : 				lpObj->ChaosSuccessRate = 100;

  00fb2	8b 45 08	 mov	 eax, DWORD PTR _lpObj$[ebp]
  00fb5	c7 80 84 0e 00
	00 64 00 00 00	 mov	 DWORD PTR [eax+3716], 100 ; 00000064H
$LN34@DefaultCha:

; 377  : 			}
; 378  : 
; 379  : 			if ( (rand()%100) <= (lpObj->ChaosSuccessRate-1) ) 

  00fbf	e8 00 00 00 00	 call	 _rand
  00fc4	99		 cdq
  00fc5	b9 64 00 00 00	 mov	 ecx, 100		; 00000064H
  00fca	f7 f9		 idiv	 ecx
  00fcc	8b 45 08	 mov	 eax, DWORD PTR _lpObj$[ebp]
  00fcf	8b 88 84 0e 00
	00		 mov	 ecx, DWORD PTR [eax+3716]
  00fd5	83 e9 01	 sub	 ecx, 1
  00fd8	3b d1		 cmp	 edx, ecx
  00fda	0f 8f a1 02 00
	00		 jg	 $LN35@DefaultCha

; 380  : 			{
; 381  : 				fail = FALSE;

  00fe0	c7 45 e0 00 00
	00 00		 mov	 DWORD PTR _fail$[ebp], 0

; 382  : 				pMsg.Result = CB_SUCCESS;

  00fe7	c6 45 eb 01	 mov	 BYTE PTR _pMsg$[ebp+3], 1

; 383  : 
; 384  : 				int Level = rand()%5;

  00feb	e8 00 00 00 00	 call	 _rand
  00ff0	99		 cdq
  00ff1	b9 05 00 00 00	 mov	 ecx, 5
  00ff6	f7 f9		 idiv	 ecx
  00ff8	89 55 d0	 mov	 DWORD PTR _Level$235509[ebp], edx

; 385  : 				int Option1 = 0;

  00ffb	c7 45 cc 00 00
	00 00		 mov	 DWORD PTR _Option1$235510[ebp], 0

; 386  : 				int Option2 = 0;

  01002	c7 45 c8 00 00
	00 00		 mov	 DWORD PTR _Option2$235511[ebp], 0

; 387  : 				int Option3 = 0;

  01009	c7 45 c4 00 00
	00 00		 mov	 DWORD PTR _Option3$235512[ebp], 0

; 388  : 
; 389  : 				if ( (rand()%100)< (lpObj->ChaosSuccessRate/5 + 6) )

  01010	e8 00 00 00 00	 call	 _rand
  01015	99		 cdq
  01016	b9 64 00 00 00	 mov	 ecx, 100		; 00000064H
  0101b	f7 f9		 idiv	 ecx
  0101d	8b ca		 mov	 ecx, edx
  0101f	8b 55 08	 mov	 edx, DWORD PTR _lpObj$[ebp]
  01022	8b 82 84 0e 00
	00		 mov	 eax, DWORD PTR [edx+3716]
  01028	99		 cdq
  01029	be 05 00 00 00	 mov	 esi, 5
  0102e	f7 fe		 idiv	 esi
  01030	83 c0 06	 add	 eax, 6
  01033	3b c8		 cmp	 ecx, eax
  01035	7d 07		 jge	 SHORT $LN32@DefaultCha

; 390  : 				{
; 391  : 					Option1 = 1;

  01037	c7 45 cc 01 00
	00 00		 mov	 DWORD PTR _Option1$235510[ebp], 1
$LN32@DefaultCha:

; 392  : 				}
; 393  : 
; 394  : 				if ( (rand()%100)< (lpObj->ChaosSuccessRate/5 + 4) )

  0103e	e8 00 00 00 00	 call	 _rand
  01043	99		 cdq
  01044	b9 64 00 00 00	 mov	 ecx, 100		; 00000064H
  01049	f7 f9		 idiv	 ecx
  0104b	8b ca		 mov	 ecx, edx
  0104d	8b 55 08	 mov	 edx, DWORD PTR _lpObj$[ebp]
  01050	8b 82 84 0e 00
	00		 mov	 eax, DWORD PTR [edx+3716]
  01056	99		 cdq
  01057	be 05 00 00 00	 mov	 esi, 5
  0105c	f7 fe		 idiv	 esi
  0105e	83 c0 04	 add	 eax, 4
  01061	3b c8		 cmp	 ecx, eax
  01063	7d 07		 jge	 SHORT $LN31@DefaultCha

; 395  : 				{
; 396  : 					Option2 = 1;

  01065	c7 45 c8 01 00
	00 00		 mov	 DWORD PTR _Option2$235511[ebp], 1
$LN31@DefaultCha:

; 397  : 				}
; 398  : 
; 399  : 				int OpProb;
; 400  : 				int OpType = rand()%3;

  0106c	e8 00 00 00 00	 call	 _rand
  01071	99		 cdq
  01072	b9 03 00 00 00	 mov	 ecx, 3
  01077	f7 f9		 idiv	 ecx
  01079	89 55 bc	 mov	 DWORD PTR _OpType$235516[ebp], edx

; 401  : 				OpProb = rand()%100;

  0107c	e8 00 00 00 00	 call	 _rand
  01081	99		 cdq
  01082	b9 64 00 00 00	 mov	 ecx, 100		; 00000064H
  01087	f7 f9		 idiv	 ecx
  01089	89 55 c0	 mov	 DWORD PTR _OpProb$235515[ebp], edx

; 402  : 
; 403  : 				switch ( OpType )

  0108c	8b 45 bc	 mov	 eax, DWORD PTR _OpType$235516[ebp]
  0108f	89 85 64 ff ff
	ff		 mov	 DWORD PTR tv163[ebp], eax
  01095	83 bd 64 ff ff
	ff 00		 cmp	 DWORD PTR tv163[ebp], 0
  0109c	74 14		 je	 SHORT $LN28@DefaultCha
  0109e	83 bd 64 ff ff
	ff 01		 cmp	 DWORD PTR tv163[ebp], 1
  010a5	74 2d		 je	 SHORT $LN26@DefaultCha
  010a7	83 bd 64 ff ff
	ff 02		 cmp	 DWORD PTR tv163[ebp], 2
  010ae	74 46		 je	 SHORT $LN24@DefaultCha
  010b0	eb 64		 jmp	 SHORT $LN29@DefaultCha
$LN28@DefaultCha:

; 404  : 				{
; 405  : 					case 0:
; 406  : 						if ( OpProb < (lpObj->ChaosSuccessRate / 5 + 4) ) 

  010b2	8b 45 08	 mov	 eax, DWORD PTR _lpObj$[ebp]
  010b5	8b 80 84 0e 00
	00		 mov	 eax, DWORD PTR [eax+3716]
  010bb	99		 cdq
  010bc	b9 05 00 00 00	 mov	 ecx, 5
  010c1	f7 f9		 idiv	 ecx
  010c3	83 c0 04	 add	 eax, 4
  010c6	39 45 c0	 cmp	 DWORD PTR _OpProb$235515[ebp], eax
  010c9	7d 07		 jge	 SHORT $LN27@DefaultCha

; 407  : 						{
; 408  : 							Option3 = 3;

  010cb	c7 45 c4 03 00
	00 00		 mov	 DWORD PTR _Option3$235512[ebp], 3
$LN27@DefaultCha:

; 409  : 						}
; 410  : 						break;

  010d2	eb 42		 jmp	 SHORT $LN29@DefaultCha
$LN26@DefaultCha:

; 411  : 
; 412  : 					case 1:
; 413  : 						if ( OpProb < (lpObj->ChaosSuccessRate / 5 + 8) ) 

  010d4	8b 45 08	 mov	 eax, DWORD PTR _lpObj$[ebp]
  010d7	8b 80 84 0e 00
	00		 mov	 eax, DWORD PTR [eax+3716]
  010dd	99		 cdq
  010de	b9 05 00 00 00	 mov	 ecx, 5
  010e3	f7 f9		 idiv	 ecx
  010e5	83 c0 08	 add	 eax, 8
  010e8	39 45 c0	 cmp	 DWORD PTR _OpProb$235515[ebp], eax
  010eb	7d 07		 jge	 SHORT $LN25@DefaultCha

; 414  : 						{
; 415  : 							Option3 = 2;

  010ed	c7 45 c4 02 00
	00 00		 mov	 DWORD PTR _Option3$235512[ebp], 2
$LN25@DefaultCha:

; 416  : 						}
; 417  : 						break;

  010f4	eb 20		 jmp	 SHORT $LN29@DefaultCha
$LN24@DefaultCha:

; 418  : 
; 419  : 					case 2:
; 420  : 						if ( OpProb < (lpObj->ChaosSuccessRate / 5 + 12) ) 

  010f6	8b 45 08	 mov	 eax, DWORD PTR _lpObj$[ebp]
  010f9	8b 80 84 0e 00
	00		 mov	 eax, DWORD PTR [eax+3716]
  010ff	99		 cdq
  01100	b9 05 00 00 00	 mov	 ecx, 5
  01105	f7 f9		 idiv	 ecx
  01107	83 c0 0c	 add	 eax, 12			; 0000000cH
  0110a	39 45 c0	 cmp	 DWORD PTR _OpProb$235515[ebp], eax
  0110d	7d 07		 jge	 SHORT $LN29@DefaultCha

; 421  : 						{
; 422  : 							Option3 = 1;

  0110f	c7 45 c4 01 00
	00 00		 mov	 DWORD PTR _Option3$235512[ebp], 1
$LN29@DefaultCha:

; 423  : 						}
; 424  : 						break;
; 425  : 				}
; 426  : 
; 427  : 				if ( MixResult2 == 1 )

  01116	83 7d dc 01	 cmp	 DWORD PTR _MixResult2$[ebp], 1
  0111a	0f 85 d5 00 00
	00		 jne	 $LN22@DefaultCha

; 428  : 				{
; 429  : 					int MaxRandomMix = 4;

  01120	c7 45 b8 04 00
	00 00		 mov	 DWORD PTR _MaxRandomMix$235528[ebp], 4

; 430  : 					if(ExConfig.ExCustom.SwitchChar == 2)

  01127	83 3d 00 00 00
	00 02		 cmp	 DWORD PTR ?ExConfig@@3VcExConfigs@@A, 2
  0112e	75 07		 jne	 SHORT $LN21@DefaultCha

; 431  : 					{
; 432  : 						MaxRandomMix = 3;

  01130	c7 45 b8 03 00
	00 00		 mov	 DWORD PTR _MaxRandomMix$235528[ebp], 3
$LN21@DefaultCha:

; 433  : 					}
; 434  : 					int WingType = rand()%MaxRandomMix;

  01137	e8 00 00 00 00	 call	 _rand
  0113c	99		 cdq
  0113d	f7 7d b8	 idiv	 DWORD PTR _MaxRandomMix$235528[ebp]
  01140	89 55 b4	 mov	 DWORD PTR _WingType$235530[ebp], edx

; 435  : 					int WingNum = 0;

  01143	c7 45 b0 00 00
	00 00		 mov	 DWORD PTR _WingNum$235531[ebp], 0

; 436  : 
; 437  : 					if(WingCharmIndex > -1) //season4.5 add-on

  0114a	83 7d d8 ff	 cmp	 DWORD PTR _WingCharmIndex$[ebp], -1
  0114e	7e 0d		 jle	 SHORT $LN20@DefaultCha

; 438  : 					{
; 439  : 						WingNum = WingCharmIndex + ITEMGET(12,0);

  01150	8b 45 d8	 mov	 eax, DWORD PTR _WingCharmIndex$[ebp]
  01153	05 00 18 00 00	 add	 eax, 6144		; 00001800H
  01158	89 45 b0	 mov	 DWORD PTR _WingNum$235531[ebp], eax
  0115b	eb 4c		 jmp	 SHORT $LN19@DefaultCha
$LN20@DefaultCha:

; 440  : 					}
; 441  : 					else if ( WingType == 0 )

  0115d	83 7d b4 00	 cmp	 DWORD PTR _WingType$235530[ebp], 0
  01161	75 09		 jne	 SHORT $LN18@DefaultCha

; 442  : 					{
; 443  : 						WingNum = ITEMGET(12,0);

  01163	c7 45 b0 00 18
	00 00		 mov	 DWORD PTR _WingNum$235531[ebp], 6144 ; 00001800H
  0116a	eb 3d		 jmp	 SHORT $LN19@DefaultCha
$LN18@DefaultCha:

; 444  : 					}
; 445  : 					else if ( WingType == 1 )

  0116c	83 7d b4 01	 cmp	 DWORD PTR _WingType$235530[ebp], 1
  01170	75 09		 jne	 SHORT $LN16@DefaultCha

; 446  : 					{
; 447  : 						WingNum = ITEMGET(12,1);

  01172	c7 45 b0 01 18
	00 00		 mov	 DWORD PTR _WingNum$235531[ebp], 6145 ; 00001801H
  01179	eb 2e		 jmp	 SHORT $LN19@DefaultCha
$LN16@DefaultCha:

; 448  : 					}
; 449  : 					else if ( WingType == 2 )

  0117b	83 7d b4 02	 cmp	 DWORD PTR _WingType$235530[ebp], 2
  0117f	75 09		 jne	 SHORT $LN14@DefaultCha

; 450  : 					{
; 451  : 						WingNum = ITEMGET(12,2);

  01181	c7 45 b0 02 18
	00 00		 mov	 DWORD PTR _WingNum$235531[ebp], 6146 ; 00001802H
  01188	eb 1f		 jmp	 SHORT $LN19@DefaultCha
$LN14@DefaultCha:

; 452  : 					}
; 453  : 					else if ( WingType == 3 ) //season3 add-on

  0118a	83 7d b4 03	 cmp	 DWORD PTR _WingType$235530[ebp], 3
  0118e	75 19		 jne	 SHORT $LN19@DefaultCha

; 454  : 					{
; 455  : 						if(ExConfig.ExCustom.SwitchChar == 2)

  01190	83 3d 00 00 00
	00 02		 cmp	 DWORD PTR ?ExConfig@@3VcExConfigs@@A, 2
  01197	75 09		 jne	 SHORT $LN11@DefaultCha

; 456  : 						{
; 457  : 							WingNum = ITEMGET(12,0);

  01199	c7 45 b0 00 18
	00 00		 mov	 DWORD PTR _WingNum$235531[ebp], 6144 ; 00001800H

; 458  : 						}
; 459  : 						else

  011a0	eb 07		 jmp	 SHORT $LN19@DefaultCha
$LN11@DefaultCha:

; 460  : 						{
; 461  : 							WingNum = ITEMGET(12,41);

  011a2	c7 45 b0 29 18
	00 00		 mov	 DWORD PTR _WingNum$235531[ebp], 6185 ; 00001829H
$LN19@DefaultCha:

; 462  : 						}
; 463  : 					}
; 464  : #if(SYSTEM_ACHIEVEMENTS)
; 465  : 					g_Achievements.SuccessChaosMix(lpObj->m_Index);

  011a9	8b 45 08	 mov	 eax, DWORD PTR _lpObj$[ebp]
  011ac	8b 08		 mov	 ecx, DWORD PTR [eax]
  011ae	51		 push	 ecx
  011af	b9 00 00 00 00	 mov	 ecx, OFFSET ?g_Achievements@@3VCAchievements@@A ; g_Achievements
  011b4	e8 00 00 00 00	 call	 ?SuccessChaosMix@CAchievements@@QAEXH@Z ; CAchievements::SuccessChaosMix

; 466  : #endif
; 467  : 					::ItemSerialCreateSend(lpObj->m_Index, -1, 0, 0, WingNum, 0, 255, (BYTE)Option1, (BYTE)Option2, (BYTE)Option3, -1, 0, 0);

  011b9	6a 00		 push	 0
  011bb	6a 00		 push	 0
  011bd	6a ff		 push	 -1
  011bf	0f b6 45 c4	 movzx	 eax, BYTE PTR _Option3$235512[ebp]
  011c3	50		 push	 eax
  011c4	0f b6 4d c8	 movzx	 ecx, BYTE PTR _Option2$235511[ebp]
  011c8	51		 push	 ecx
  011c9	0f b6 55 cc	 movzx	 edx, BYTE PTR _Option1$235510[ebp]
  011cd	52		 push	 edx
  011ce	68 ff 00 00 00	 push	 255			; 000000ffH
  011d3	6a 00		 push	 0
  011d5	8b 45 b0	 mov	 eax, DWORD PTR _WingNum$235531[ebp]
  011d8	50		 push	 eax
  011d9	6a 00		 push	 0
  011db	6a 00		 push	 0
  011dd	68 ff 00 00 00	 push	 255			; 000000ffH
  011e2	8b 4d 08	 mov	 ecx, DWORD PTR _lpObj$[ebp]
  011e5	8b 11		 mov	 edx, DWORD PTR [ecx]
  011e7	52		 push	 edx
  011e8	e8 00 00 00 00	 call	 ?ItemSerialCreateSend@@YAXHEEEHEEEEEHEE@Z ; ItemSerialCreateSend
  011ed	83 c4 34	 add	 esp, 52			; 00000034H

; 468  : 				}
; 469  : 				else

  011f0	e9 8c 00 00 00	 jmp	 $LN35@DefaultCha
$LN22@DefaultCha:

; 470  : 				{
; 471  : 					int ChaosItemType = rand()%3;

  011f5	e8 00 00 00 00	 call	 _rand
  011fa	99		 cdq
  011fb	b9 03 00 00 00	 mov	 ecx, 3
  01200	f7 f9		 idiv	 ecx
  01202	89 55 ac	 mov	 DWORD PTR _ChaosItemType$235547[ebp], edx

; 472  : 					int ChaosItemNum = 0;

  01205	c7 45 a8 00 00
	00 00		 mov	 DWORD PTR _ChaosItemNum$235548[ebp], 0

; 473  : 
; 474  : 					if ( ChaosItemType == 0 )	// Chaos Dragon Axe

  0120c	83 7d ac 00	 cmp	 DWORD PTR _ChaosItemType$235547[ebp], 0
  01210	75 09		 jne	 SHORT $LN8@DefaultCha

; 475  : 					{
; 476  : 						ChaosItemNum = ITEMGET(2,6);

  01212	c7 45 a8 06 04
	00 00		 mov	 DWORD PTR _ChaosItemNum$235548[ebp], 1030 ; 00000406H
  01219	eb 1c		 jmp	 SHORT $LN7@DefaultCha
$LN8@DefaultCha:

; 477  : 					}
; 478  : 					else if ( ChaosItemType == 1 )	// Chaos Nature Bow

  0121b	83 7d ac 01	 cmp	 DWORD PTR _ChaosItemType$235547[ebp], 1
  0121f	75 09		 jne	 SHORT $LN6@DefaultCha

; 479  : 					{
; 480  : 						ChaosItemNum = ITEMGET(4,6);

  01221	c7 45 a8 06 08
	00 00		 mov	 DWORD PTR _ChaosItemNum$235548[ebp], 2054 ; 00000806H
  01228	eb 0d		 jmp	 SHORT $LN7@DefaultCha
$LN6@DefaultCha:

; 481  : 					}
; 482  : 					else if ( ChaosItemType == 2 )	// Chaos Lighting Staff

  0122a	83 7d ac 02	 cmp	 DWORD PTR _ChaosItemType$235547[ebp], 2
  0122e	75 07		 jne	 SHORT $LN7@DefaultCha

; 483  : 					{
; 484  : 						ChaosItemNum = ITEMGET(5,7);

  01230	c7 45 a8 07 0a
	00 00		 mov	 DWORD PTR _ChaosItemNum$235548[ebp], 2567 ; 00000a07H
$LN7@DefaultCha:

; 485  : 					}
; 486  : #if(SYSTEM_ACHIEVEMENTS)
; 487  : 					g_Achievements.SuccessChaosMix(lpObj->m_Index);

  01237	8b 45 08	 mov	 eax, DWORD PTR _lpObj$[ebp]
  0123a	8b 08		 mov	 ecx, DWORD PTR [eax]
  0123c	51		 push	 ecx
  0123d	b9 00 00 00 00	 mov	 ecx, OFFSET ?g_Achievements@@3VCAchievements@@A ; g_Achievements
  01242	e8 00 00 00 00	 call	 ?SuccessChaosMix@CAchievements@@QAEXH@Z ; CAchievements::SuccessChaosMix

; 488  : #endif
; 489  : 					::ItemSerialCreateSend(lpObj->m_Index, -1, 0, 0, ChaosItemNum, (BYTE)Level, 255, (BYTE)Option1, (BYTE)Option2, (BYTE)Option3, -1, 0, 0);

  01247	6a 00		 push	 0
  01249	6a 00		 push	 0
  0124b	6a ff		 push	 -1
  0124d	0f b6 45 c4	 movzx	 eax, BYTE PTR _Option3$235512[ebp]
  01251	50		 push	 eax
  01252	0f b6 4d c8	 movzx	 ecx, BYTE PTR _Option2$235511[ebp]
  01256	51		 push	 ecx
  01257	0f b6 55 cc	 movzx	 edx, BYTE PTR _Option1$235510[ebp]
  0125b	52		 push	 edx
  0125c	68 ff 00 00 00	 push	 255			; 000000ffH
  01261	0f b6 45 d0	 movzx	 eax, BYTE PTR _Level$235509[ebp]
  01265	50		 push	 eax
  01266	8b 4d a8	 mov	 ecx, DWORD PTR _ChaosItemNum$235548[ebp]
  01269	51		 push	 ecx
  0126a	6a 00		 push	 0
  0126c	6a 00		 push	 0
  0126e	68 ff 00 00 00	 push	 255			; 000000ffH
  01273	8b 55 08	 mov	 edx, DWORD PTR _lpObj$[ebp]
  01276	8b 02		 mov	 eax, DWORD PTR [edx]
  01278	50		 push	 eax
  01279	e8 00 00 00 00	 call	 ?ItemSerialCreateSend@@YAXHEEEHEEEEEHEE@Z ; ItemSerialCreateSend
  0127e	83 c4 34	 add	 esp, 52			; 00000034H
$LN35@DefaultCha:

; 490  : 				}
; 491  : 			}
; 492  : 		}
; 493  : 
; 494  : 
; 495  : 		lpObj->Money -= lpObj->ChaosMoney;

  01281	8b 45 08	 mov	 eax, DWORD PTR _lpObj$[ebp]
  01284	8b 4d 08	 mov	 ecx, DWORD PTR _lpObj$[ebp]
  01287	8b 90 f0 00 00
	00		 mov	 edx, DWORD PTR [eax+240]
  0128d	2b 91 80 0e 00
	00		 sub	 edx, DWORD PTR [ecx+3712]
  01293	8b 45 08	 mov	 eax, DWORD PTR _lpObj$[ebp]
  01296	89 90 f0 00 00
	00		 mov	 DWORD PTR [eax+240], edx

; 496  : 		g_CastleSiegeSync.AddTributeMoney(iChaosTaxMoney);

  0129c	8b 45 d4	 mov	 eax, DWORD PTR _iChaosTaxMoney$[ebp]
  0129f	50		 push	 eax
  012a0	b9 00 00 00 00	 mov	 ecx, OFFSET ?g_CastleSiegeSync@@3VCCastleSiegeSync@@A ; g_CastleSiegeSync
  012a5	e8 00 00 00 00	 call	 ?AddTributeMoney@CCastleSiegeSync@@QAEXH@Z ; CCastleSiegeSync::AddTributeMoney

; 497  : 		GCMoneySend(lpObj->m_Index, lpObj->Money);

  012aa	8b 45 08	 mov	 eax, DWORD PTR _lpObj$[ebp]
  012ad	8b 88 f0 00 00
	00		 mov	 ecx, DWORD PTR [eax+240]
  012b3	51		 push	 ecx
  012b4	8b 55 08	 mov	 edx, DWORD PTR _lpObj$[ebp]
  012b7	8b 02		 mov	 eax, DWORD PTR [edx]
  012b9	50		 push	 eax
  012ba	e8 00 00 00 00	 call	 ?GCMoneySend@@YAXHK@Z	; GCMoneySend
  012bf	83 c4 08	 add	 esp, 8

; 498  : 
; 499  : 		if ( fail == TRUE )

  012c2	83 7d e0 01	 cmp	 DWORD PTR _fail$[ebp], 1
  012c6	0f 85 88 00 00
	00		 jne	 $LN3@DefaultCha

; 500  : 		{
; 501  : 			ChaosBoxItemDown(lpObj);

  012cc	8b 45 08	 mov	 eax, DWORD PTR _lpObj$[ebp]
  012cf	50		 push	 eax
  012d0	8b 4d f8	 mov	 ecx, DWORD PTR _this$[ebp]
  012d3	e8 00 00 00 00	 call	 ?ChaosBoxItemDown@CMixSystem@@QAEHPAUOBJECTSTRUCT@@@Z ; CMixSystem::ChaosBoxItemDown

; 502  : 			GCUserChaosBoxSend(lpObj, 0);

  012d8	6a 00		 push	 0
  012da	8b 45 08	 mov	 eax, DWORD PTR _lpObj$[ebp]
  012dd	50		 push	 eax
  012de	e8 00 00 00 00	 call	 ?GCUserChaosBoxSend@@YAXPAUOBJECTSTRUCT@@H@Z ; GCUserChaosBoxSend
  012e3	83 c4 08	 add	 esp, 8

; 503  : 			DataSend(aIndex, (LPBYTE)&pMsg, pMsg.h.size);

  012e6	0f b6 45 e9	 movzx	 eax, BYTE PTR _pMsg$[ebp+1]
  012ea	50		 push	 eax
  012eb	8d 4d e8	 lea	 ecx, DWORD PTR _pMsg$[ebp]
  012ee	51		 push	 ecx
  012ef	8b 55 e4	 mov	 edx, DWORD PTR _aIndex$[ebp]
  012f2	52		 push	 edx
  012f3	e8 00 00 00 00	 call	 ?DataSend@@YAHHPAEK@Z	; DataSend
  012f8	83 c4 0c	 add	 esp, 12			; 0000000cH

; 504  : 			LogAddTD("[%s][%s] CBMix Fail %d Money : %d-%d", lpObj->AccountID, lpObj->Name, lpObj->ChaosSuccessRate, lpObj->Money, lpObj->ChaosMoney);

  012fb	8b 45 08	 mov	 eax, DWORD PTR _lpObj$[ebp]
  012fe	8b 88 80 0e 00
	00		 mov	 ecx, DWORD PTR [eax+3712]
  01304	51		 push	 ecx
  01305	8b 55 08	 mov	 edx, DWORD PTR _lpObj$[ebp]
  01308	8b 82 f0 00 00
	00		 mov	 eax, DWORD PTR [edx+240]
  0130e	50		 push	 eax
  0130f	8b 4d 08	 mov	 ecx, DWORD PTR _lpObj$[ebp]
  01312	8b 91 84 0e 00
	00		 mov	 edx, DWORD PTR [ecx+3716]
  01318	52		 push	 edx
  01319	8b 45 08	 mov	 eax, DWORD PTR _lpObj$[ebp]
  0131c	83 c0 77	 add	 eax, 119		; 00000077H
  0131f	50		 push	 eax
  01320	8b 4d 08	 mov	 ecx, DWORD PTR _lpObj$[ebp]
  01323	83 c1 6c	 add	 ecx, 108		; 0000006cH
  01326	51		 push	 ecx
  01327	68 00 00 00 00	 push	 OFFSET ??_C@_0CF@NPEOFJKC@?$FL?$CFs?$FN?$FL?$CFs?$FN?5CBMix?5Fail?5?$CFd?5Money?5?3?5?$CF@
  0132c	ff 15 00 00 00
	00		 call	 DWORD PTR ?LogAddTD@@3P6AXPADZZA ; LogAddTD
  01332	83 c4 18	 add	 esp, 24			; 00000018H

; 505  : 			lpObj->ChaosLock = FALSE;

  01335	8b 45 08	 mov	 eax, DWORD PTR _lpObj$[ebp]
  01338	c7 80 88 0e 00
	00 00 00 00 00	 mov	 DWORD PTR [eax+3720], 0

; 506  : #if(SYSTEM_ACHIEVEMENTS)
; 507  : 			g_Achievements.FailedChaosMix(lpObj->m_Index);

  01342	8b 45 08	 mov	 eax, DWORD PTR _lpObj$[ebp]
  01345	8b 08		 mov	 ecx, DWORD PTR [eax]
  01347	51		 push	 ecx
  01348	b9 00 00 00 00	 mov	 ecx, OFFSET ?g_Achievements@@3VCAchievements@@A ; g_Achievements
  0134d	e8 00 00 00 00	 call	 ?FailedChaosMix@CAchievements@@QAEXH@Z ; CAchievements::FailedChaosMix

; 508  : #endif
; 509  : 		}
; 510  : 		else

  01352	eb 30		 jmp	 SHORT $LN2@DefaultCha
$LN3@DefaultCha:

; 511  : 		{
; 512  : 			LogAddTD("[%s][%s] CBMix Success Rate:%d Money : %d", lpObj->AccountID, lpObj->Name, lpObj->ChaosSuccessRate, lpObj->ChaosMoney);

  01354	8b 45 08	 mov	 eax, DWORD PTR _lpObj$[ebp]
  01357	8b 88 80 0e 00
	00		 mov	 ecx, DWORD PTR [eax+3712]
  0135d	51		 push	 ecx
  0135e	8b 55 08	 mov	 edx, DWORD PTR _lpObj$[ebp]
  01361	8b 82 84 0e 00
	00		 mov	 eax, DWORD PTR [edx+3716]
  01367	50		 push	 eax
  01368	8b 4d 08	 mov	 ecx, DWORD PTR _lpObj$[ebp]
  0136b	83 c1 77	 add	 ecx, 119		; 00000077H
  0136e	51		 push	 ecx
  0136f	8b 55 08	 mov	 edx, DWORD PTR _lpObj$[ebp]
  01372	83 c2 6c	 add	 edx, 108		; 0000006cH
  01375	52		 push	 edx
  01376	68 00 00 00 00	 push	 OFFSET ??_C@_0CK@IKEPLJDI@?$FL?$CFs?$FN?$FL?$CFs?$FN?5CBMix?5Success?5Rate?3?$CFd?5M@
  0137b	ff 15 00 00 00
	00		 call	 DWORD PTR ?LogAddTD@@3P6AXPADZZA ; LogAddTD
  01381	83 c4 14	 add	 esp, 20			; 00000014H
$LN2@DefaultCha:

; 513  : 		}
; 514  : 
; 515  : 		if ( gChaosEvent != FALSE )

  01384	83 3d 00 00 00
	00 00		 cmp	 DWORD PTR ?gChaosEvent@@3HA, 0 ; gChaosEvent
  0138b	74 1c		 je	 SHORT $LN36@DefaultCha

; 516  : 		{
; 517  : 			CBUPS_ItemRequest(lpObj->m_Index, lpObj->AccountID, lpObj->Name);

  0138d	8b 45 08	 mov	 eax, DWORD PTR _lpObj$[ebp]
  01390	83 c0 77	 add	 eax, 119		; 00000077H
  01393	50		 push	 eax
  01394	8b 4d 08	 mov	 ecx, DWORD PTR _lpObj$[ebp]
  01397	83 c1 6c	 add	 ecx, 108		; 0000006cH
  0139a	51		 push	 ecx
  0139b	8b 55 08	 mov	 edx, DWORD PTR _lpObj$[ebp]
  0139e	8b 02		 mov	 eax, DWORD PTR [edx]
  013a0	50		 push	 eax
  013a1	8b 4d f8	 mov	 ecx, DWORD PTR _this$[ebp]
  013a4	e8 00 00 00 00	 call	 ?CBUPS_ItemRequest@CMixSystem@@QAEXHPAD0@Z ; CMixSystem::CBUPS_ItemRequest
$LN36@DefaultCha:

; 518  : 		}
; 519  : 	}
; 520  : 
; 521  : 	::gObjInventoryCommit(lpObj->m_Index);

  013a9	8b 45 08	 mov	 eax, DWORD PTR _lpObj$[ebp]
  013ac	8b 08		 mov	 ecx, DWORD PTR [eax]
  013ae	51		 push	 ecx
  013af	e8 00 00 00 00	 call	 ?gObjInventoryCommit@@YAHH@Z ; gObjInventoryCommit
  013b4	83 c4 04	 add	 esp, 4
$LN41@DefaultCha:

; 522  : }

  013b7	5f		 pop	 edi
  013b8	5e		 pop	 esi
  013b9	5b		 pop	 ebx
  013ba	8b 4d fc	 mov	 ecx, DWORD PTR __$ArrayPad$[ebp]
  013bd	33 cd		 xor	 ecx, ebp
  013bf	e8 00 00 00 00	 call	 @__security_check_cookie@4
  013c4	8b e5		 mov	 esp, ebp
  013c6	5d		 pop	 ebp
  013c7	c2 04 00	 ret	 4
?DefaultChaosMix@CMixSystem@@QAEXPAUOBJECTSTRUCT@@@Z ENDP ; CMixSystem::DefaultChaosMix
_TEXT	ENDS
PUBLIC	??_C@_0HL@DJPNJNMN@?$FLDevilSquare?0?$CFd?$FN?5?$FL?$CFs?$FN?$FL?$CFs?$FN?5CBMix?5@ ; `string'
PUBLIC	__$ArrayPad$
PUBLIC	?LogDQChaosItem@CMixSystem@@QAEXPAUOBJECTSTRUCT@@@Z ; CMixSystem::LogDQChaosItem
EXTRN	?GetItemStrengthenOption@CJewelOfHarmonySystem@@QAEEPAVCItem@@@Z:PROC ; CJewelOfHarmonySystem::GetItemStrengthenOption
EXTRN	?GetItemOptionLevel@CJewelOfHarmonySystem@@QAEEPAVCItem@@@Z:PROC ; CJewelOfHarmonySystem::GetItemOptionLevel
EXTRN	?g_kJewelOfHarmonySystem@@3VCJewelOfHarmonySystem@@A:BYTE ; g_kJewelOfHarmonySystem
;	COMDAT ??_C@_0HL@DJPNJNMN@?$FLDevilSquare?0?$CFd?$FN?5?$FL?$CFs?$FN?$FL?$CFs?$FN?5CBMix?5@
CONST	SEGMENT
??_C@_0HL@DJPNJNMN@?$FLDevilSquare?0?$CFd?$FN?5?$FL?$CFs?$FN?$FL?$CFs?$FN?5CBMix?5@ DB '['
	DB	'DevilSquare,%d] [%s][%s] CBMix [%d,%s,%d,%d,%d,%d]serial:[%u]'
	DB	'[%d] Ex:[%d,%d,%d,%d,%d,%d,%d] Set:[%d] 380Ex[%d] HO:[%d,%d]', 00H ; `string'
; Function compile flags: /Odtp /ZI
CONST	ENDS
_TEXT	SEGMENT
_n$235569 = -20						; size = 4
_ExOption$ = -16					; size = 8
_this$ = -8						; size = 4
__$ArrayPad$ = -4					; size = 4
_lpObj$ = 8						; size = 4
?LogDQChaosItem@CMixSystem@@QAEXPAUOBJECTSTRUCT@@@Z PROC ; CMixSystem::LogDQChaosItem
; _this$ = ecx

; 525  : {

  013d0	55		 push	 ebp
  013d1	8b ec		 mov	 ebp, esp
  013d3	83 ec 54	 sub	 esp, 84			; 00000054H
  013d6	a1 00 00 00 00	 mov	 eax, DWORD PTR ___security_cookie
  013db	33 c5		 xor	 eax, ebp
  013dd	89 45 fc	 mov	 DWORD PTR __$ArrayPad$[ebp], eax
  013e0	53		 push	 ebx
  013e1	56		 push	 esi
  013e2	57		 push	 edi
  013e3	89 4d f8	 mov	 DWORD PTR _this$[ebp], ecx

; 526  : 	BYTE ExOption[MAX_EXOPTION_SIZE];
; 527  : 
; 528  : 	for ( int n=0;n<CHAOS_BOX_SIZE;n++)

  013e6	c7 45 ec 00 00
	00 00		 mov	 DWORD PTR _n$235569[ebp], 0
  013ed	eb 09		 jmp	 SHORT $LN4@LogDQChaos
$LN3@LogDQChaos:
  013ef	8b 45 ec	 mov	 eax, DWORD PTR _n$235569[ebp]
  013f2	83 c0 01	 add	 eax, 1
  013f5	89 45 ec	 mov	 DWORD PTR _n$235569[ebp], eax
$LN4@LogDQChaos:
  013f8	83 7d ec 20	 cmp	 DWORD PTR _n$235569[ebp], 32 ; 00000020H
  013fc	0f 8d cd 01 00
	00		 jge	 $LN2@LogDQChaos

; 529  : 	{
; 530  : 		if ( lpObj->pChaosBox[n].IsItem() == TRUE )

  01402	8b 4d ec	 mov	 ecx, DWORD PTR _n$235569[ebp]
  01405	69 c9 d4 00 00
	00		 imul	 ecx, 212		; 000000d4H
  0140b	8b 45 08	 mov	 eax, DWORD PTR _lpObj$[ebp]
  0140e	03 88 78 0e 00
	00		 add	 ecx, DWORD PTR [eax+3704]
  01414	e8 00 00 00 00	 call	 ?IsItem@CItem@@QAEHXZ	; CItem::IsItem
  01419	83 f8 01	 cmp	 eax, 1
  0141c	0f 85 a8 01 00
	00		 jne	 $LN1@LogDQChaos

; 531  : 		{
; 532  : 			::ItemIsBufExOption(ExOption, &lpObj->pChaosBox[n] );

  01422	8b 45 ec	 mov	 eax, DWORD PTR _n$235569[ebp]
  01425	69 c0 d4 00 00
	00		 imul	 eax, 212		; 000000d4H
  0142b	8b 4d 08	 mov	 ecx, DWORD PTR _lpObj$[ebp]
  0142e	03 81 78 0e 00
	00		 add	 eax, DWORD PTR [ecx+3704]
  01434	50		 push	 eax
  01435	8d 55 f0	 lea	 edx, DWORD PTR _ExOption$[ebp]
  01438	52		 push	 edx
  01439	e8 00 00 00 00	 call	 ?ItemIsBufExOption@@YAXPAEPAVCItem@@@Z ; ItemIsBufExOption
  0143e	83 c4 08	 add	 esp, 8

; 533  : 
; 534  : 			LogAddTD("[DevilSquare,%d] [%s][%s] CBMix [%d,%s,%d,%d,%d,%d]serial:[%u][%d] Ex:[%d,%d,%d,%d,%d,%d,%d] Set:[%d] 380Ex[%d] HO:[%d,%d]",
; 535  : 				lpObj->pChaosBox[n].m_Level,
; 536  : 				lpObj->AccountID, lpObj->Name, n, lpObj->pChaosBox[n].GetName(), lpObj->pChaosBox[n].m_Level,
; 537  : 				lpObj->pChaosBox[n].m_Option1, lpObj->pChaosBox[n].m_Option2, lpObj->pChaosBox[n].m_Option3, 
; 538  : 				lpObj->pChaosBox[n].m_Number, (int)lpObj->pChaosBox[n].m_Durability, 
; 539  : 				ExOption[0], ExOption[1], ExOption[2], ExOption[3], ExOption[4], ExOption[5], ExOption[6],
; 540  : 				lpObj->pChaosBox[n].m_SetOption, lpObj->pChaosBox[n].m_ItemOptionEx >> 7,
; 541  : 				g_kJewelOfHarmonySystem.GetItemStrengthenOption(&lpObj->pChaosBox[n]),
; 542  : 				g_kJewelOfHarmonySystem.GetItemOptionLevel(&lpObj->pChaosBox[n]));

  01441	8b 45 ec	 mov	 eax, DWORD PTR _n$235569[ebp]
  01444	69 c0 d4 00 00
	00		 imul	 eax, 212		; 000000d4H
  0144a	8b 4d 08	 mov	 ecx, DWORD PTR _lpObj$[ebp]
  0144d	03 81 78 0e 00
	00		 add	 eax, DWORD PTR [ecx+3704]
  01453	50		 push	 eax
  01454	b9 00 00 00 00	 mov	 ecx, OFFSET ?g_kJewelOfHarmonySystem@@3VCJewelOfHarmonySystem@@A ; g_kJewelOfHarmonySystem
  01459	e8 00 00 00 00	 call	 ?GetItemOptionLevel@CJewelOfHarmonySystem@@QAEEPAVCItem@@@Z ; CJewelOfHarmonySystem::GetItemOptionLevel
  0145e	0f b6 d0	 movzx	 edx, al
  01461	52		 push	 edx
  01462	8b 45 ec	 mov	 eax, DWORD PTR _n$235569[ebp]
  01465	69 c0 d4 00 00
	00		 imul	 eax, 212		; 000000d4H
  0146b	8b 4d 08	 mov	 ecx, DWORD PTR _lpObj$[ebp]
  0146e	03 81 78 0e 00
	00		 add	 eax, DWORD PTR [ecx+3704]
  01474	50		 push	 eax
  01475	b9 00 00 00 00	 mov	 ecx, OFFSET ?g_kJewelOfHarmonySystem@@3VCJewelOfHarmonySystem@@A ; g_kJewelOfHarmonySystem
  0147a	e8 00 00 00 00	 call	 ?GetItemStrengthenOption@CJewelOfHarmonySystem@@QAEEPAVCItem@@@Z ; CJewelOfHarmonySystem::GetItemStrengthenOption
  0147f	0f b6 d0	 movzx	 edx, al
  01482	52		 push	 edx
  01483	8b 45 ec	 mov	 eax, DWORD PTR _n$235569[ebp]
  01486	69 c0 d4 00 00
	00		 imul	 eax, 212		; 000000d4H
  0148c	8b 4d 08	 mov	 ecx, DWORD PTR _lpObj$[ebp]
  0148f	8b 91 78 0e 00
	00		 mov	 edx, DWORD PTR [ecx+3704]
  01495	0f b6 84 02 ca
	00 00 00	 movzx	 eax, BYTE PTR [edx+eax+202]
  0149d	c1 f8 07	 sar	 eax, 7
  014a0	50		 push	 eax
  014a1	8b 4d ec	 mov	 ecx, DWORD PTR _n$235569[ebp]
  014a4	69 c9 d4 00 00
	00		 imul	 ecx, 212		; 000000d4H
  014aa	8b 55 08	 mov	 edx, DWORD PTR _lpObj$[ebp]
  014ad	8b 82 78 0e 00
	00		 mov	 eax, DWORD PTR [edx+3704]
  014b3	0f b6 8c 08 ae
	00 00 00	 movzx	 ecx, BYTE PTR [eax+ecx+174]
  014bb	51		 push	 ecx
  014bc	0f b6 55 f6	 movzx	 edx, BYTE PTR _ExOption$[ebp+6]
  014c0	52		 push	 edx
  014c1	0f b6 45 f5	 movzx	 eax, BYTE PTR _ExOption$[ebp+5]
  014c5	50		 push	 eax
  014c6	0f b6 4d f4	 movzx	 ecx, BYTE PTR _ExOption$[ebp+4]
  014ca	51		 push	 ecx
  014cb	0f b6 55 f3	 movzx	 edx, BYTE PTR _ExOption$[ebp+3]
  014cf	52		 push	 edx
  014d0	0f b6 45 f2	 movzx	 eax, BYTE PTR _ExOption$[ebp+2]
  014d4	50		 push	 eax
  014d5	0f b6 4d f1	 movzx	 ecx, BYTE PTR _ExOption$[ebp+1]
  014d9	51		 push	 ecx
  014da	0f b6 55 f0	 movzx	 edx, BYTE PTR _ExOption$[ebp]
  014de	52		 push	 edx
  014df	8b 45 ec	 mov	 eax, DWORD PTR _n$235569[ebp]
  014e2	69 c0 d4 00 00
	00		 imul	 eax, 212		; 000000d4H
  014e8	8b 4d 08	 mov	 ecx, DWORD PTR _lpObj$[ebp]
  014eb	8b 91 78 0e 00
	00		 mov	 edx, DWORD PTR [ecx+3704]
  014f1	d9 44 02 24	 fld	 DWORD PTR [edx+eax+36]
  014f5	e8 00 00 00 00	 call	 __ftol2_sse
  014fa	50		 push	 eax
  014fb	8b 45 ec	 mov	 eax, DWORD PTR _n$235569[ebp]
  014fe	69 c0 d4 00 00
	00		 imul	 eax, 212		; 000000d4H
  01504	8b 4d 08	 mov	 ecx, DWORD PTR _lpObj$[ebp]
  01507	8b 91 78 0e 00
	00		 mov	 edx, DWORD PTR [ecx+3704]
  0150d	8b 04 02	 mov	 eax, DWORD PTR [edx+eax]
  01510	50		 push	 eax
  01511	8b 4d ec	 mov	 ecx, DWORD PTR _n$235569[ebp]
  01514	69 c9 d4 00 00
	00		 imul	 ecx, 212		; 000000d4H
  0151a	8b 55 08	 mov	 edx, DWORD PTR _lpObj$[ebp]
  0151d	8b 82 78 0e 00
	00		 mov	 eax, DWORD PTR [edx+3704]
  01523	0f b6 8c 08 96
	00 00 00	 movzx	 ecx, BYTE PTR [eax+ecx+150]
  0152b	51		 push	 ecx
  0152c	8b 55 ec	 mov	 edx, DWORD PTR _n$235569[ebp]
  0152f	69 d2 d4 00 00
	00		 imul	 edx, 212		; 000000d4H
  01535	8b 45 08	 mov	 eax, DWORD PTR _lpObj$[ebp]
  01538	8b 88 78 0e 00
	00		 mov	 ecx, DWORD PTR [eax+3704]
  0153e	0f b6 94 11 95
	00 00 00	 movzx	 edx, BYTE PTR [ecx+edx+149]
  01546	52		 push	 edx
  01547	8b 45 ec	 mov	 eax, DWORD PTR _n$235569[ebp]
  0154a	69 c0 d4 00 00
	00		 imul	 eax, 212		; 000000d4H
  01550	8b 4d 08	 mov	 ecx, DWORD PTR _lpObj$[ebp]
  01553	8b 91 78 0e 00
	00		 mov	 edx, DWORD PTR [ecx+3704]
  01559	0f b6 84 02 94
	00 00 00	 movzx	 eax, BYTE PTR [edx+eax+148]
  01561	50		 push	 eax
  01562	8b 4d ec	 mov	 ecx, DWORD PTR _n$235569[ebp]
  01565	69 c9 d4 00 00
	00		 imul	 ecx, 212		; 000000d4H
  0156b	8b 55 08	 mov	 edx, DWORD PTR _lpObj$[ebp]
  0156e	8b 82 78 0e 00
	00		 mov	 eax, DWORD PTR [edx+3704]
  01574	0f bf 4c 08 08	 movsx	 ecx, WORD PTR [eax+ecx+8]
  01579	51		 push	 ecx
  0157a	8b 4d ec	 mov	 ecx, DWORD PTR _n$235569[ebp]
  0157d	69 c9 d4 00 00
	00		 imul	 ecx, 212		; 000000d4H
  01583	8b 55 08	 mov	 edx, DWORD PTR _lpObj$[ebp]
  01586	03 8a 78 0e 00
	00		 add	 ecx, DWORD PTR [edx+3704]
  0158c	e8 00 00 00 00	 call	 ?GetName@CItem@@QAEPADXZ ; CItem::GetName
  01591	50		 push	 eax
  01592	8b 45 ec	 mov	 eax, DWORD PTR _n$235569[ebp]
  01595	50		 push	 eax
  01596	8b 4d 08	 mov	 ecx, DWORD PTR _lpObj$[ebp]
  01599	83 c1 77	 add	 ecx, 119		; 00000077H
  0159c	51		 push	 ecx
  0159d	8b 55 08	 mov	 edx, DWORD PTR _lpObj$[ebp]
  015a0	83 c2 6c	 add	 edx, 108		; 0000006cH
  015a3	52		 push	 edx
  015a4	8b 45 ec	 mov	 eax, DWORD PTR _n$235569[ebp]
  015a7	69 c0 d4 00 00
	00		 imul	 eax, 212		; 000000d4H
  015ad	8b 4d 08	 mov	 ecx, DWORD PTR _lpObj$[ebp]
  015b0	8b 91 78 0e 00
	00		 mov	 edx, DWORD PTR [ecx+3704]
  015b6	0f bf 44 02 08	 movsx	 eax, WORD PTR [edx+eax+8]
  015bb	50		 push	 eax
  015bc	68 00 00 00 00	 push	 OFFSET ??_C@_0HL@DJPNJNMN@?$FLDevilSquare?0?$CFd?$FN?5?$FL?$CFs?$FN?$FL?$CFs?$FN?5CBMix?5@
  015c1	ff 15 00 00 00
	00		 call	 DWORD PTR ?LogAddTD@@3P6AXPADZZA ; LogAddTD
  015c7	83 c4 5c	 add	 esp, 92			; 0000005cH
$LN1@LogDQChaos:

; 543  : 		}
; 544  : 	}

  015ca	e9 20 fe ff ff	 jmp	 $LN3@LogDQChaos
$LN2@LogDQChaos:

; 545  : }

  015cf	5f		 pop	 edi
  015d0	5e		 pop	 esi
  015d1	5b		 pop	 ebx
  015d2	8b 4d fc	 mov	 ecx, DWORD PTR __$ArrayPad$[ebp]
  015d5	33 cd		 xor	 ecx, ebp
  015d7	e8 00 00 00 00	 call	 @__security_check_cookie@4
  015dc	8b e5		 mov	 esp, ebp
  015de	5d		 pop	 ebp
  015df	c2 04 00	 ret	 4
?LogDQChaosItem@CMixSystem@@QAEXPAUOBJECTSTRUCT@@@Z ENDP ; CMixSystem::LogDQChaosItem
_TEXT	ENDS
PUBLIC	??_C@_0CA@IANBADIL@?$FLDevilSquare?$FN?5DQItems?5Not?5Found?$AA@ ; `string'
PUBLIC	??_C@_0CH@EJJKJEAB@?$FLDevilSquare?$FN?5Charm?5Of?5Luck?5Coun@ ; `string'
PUBLIC	??_C@_0CG@FFFDDFEO@?$FLDevilSquare?$FN?5DiffLevel?5DQItems?5@ ; `string'
PUBLIC	??_C@_0CC@LINAPAPC@?$FLDevilSquare?$FN?5Other?5DQItems?5Foun@ ; `string'
PUBLIC	??_C@_0CF@MGDMILOL@?$FLDevilSquare?$FN?5Search?5DevilSquare@ ; `string'
PUBLIC	?CheckDevilSquareItem@CMixSystem@@QAEHPAUOBJECTSTRUCT@@AAH1@Z ; CMixSystem::CheckDevilSquareItem
;	COMDAT ??_C@_0CA@IANBADIL@?$FLDevilSquare?$FN?5DQItems?5Not?5Found?$AA@
CONST	SEGMENT
??_C@_0CA@IANBADIL@?$FLDevilSquare?$FN?5DQItems?5Not?5Found?$AA@ DB '[Dev'
	DB	'ilSquare] DQItems Not Found', 00H		; `string'
CONST	ENDS
;	COMDAT ??_C@_0CH@EJJKJEAB@?$FLDevilSquare?$FN?5Charm?5Of?5Luck?5Coun@
CONST	SEGMENT
??_C@_0CH@EJJKJEAB@?$FLDevilSquare?$FN?5Charm?5Of?5Luck?5Coun@ DB '[Devil'
	DB	'Square] Charm Of Luck Count Over', 00H	; `string'
CONST	ENDS
;	COMDAT ??_C@_0CG@FFFDDFEO@?$FLDevilSquare?$FN?5DiffLevel?5DQItems?5@
CONST	SEGMENT
??_C@_0CG@FFFDDFEO@?$FLDevilSquare?$FN?5DiffLevel?5DQItems?5@ DB '[DevilS'
	DB	'quare] DiffLevel DQItems Found', 00H	; `string'
CONST	ENDS
;	COMDAT ??_C@_0CC@LINAPAPC@?$FLDevilSquare?$FN?5Other?5DQItems?5Foun@
CONST	SEGMENT
??_C@_0CC@LINAPAPC@?$FLDevilSquare?$FN?5Other?5DQItems?5Foun@ DB '[DevilS'
	DB	'quare] Other DQItems Found', 00H		; `string'
CONST	ENDS
;	COMDAT ??_C@_0CF@MGDMILOL@?$FLDevilSquare?$FN?5Search?5DevilSquare@
CONST	SEGMENT
??_C@_0CF@MGDMILOL@?$FLDevilSquare?$FN?5Search?5DevilSquare@ DB '[DevilSq'
	DB	'uare] Search DevilSquareItem', 00H		; `string'
; Function compile flags: /Odtp /ZI
CONST	ENDS
_TEXT	SEGMENT
_n$235591 = -40						; size = 4
_bCharmOfLuckOver$ = -36				; size = 4
_iCharmOfLuckCount$ = -32				; size = 4
_bLevelCheck$ = -28					; size = 4
_level$ = -24						; size = 4
_FoundOtherItem$ = -20					; size = 4
_bKeyOfDevil$ = -16					; size = 4
_bEyeOfDevil$ = -12					; size = 4
_bChaoseGem$ = -8					; size = 4
_this$ = -4						; size = 4
_lpObj$ = 8						; size = 4
_eventitemcount$ = 12					; size = 4
_itemlevel$ = 16					; size = 4
?CheckDevilSquareItem@CMixSystem@@QAEHPAUOBJECTSTRUCT@@AAH1@Z PROC ; CMixSystem::CheckDevilSquareItem
; _this$ = ecx

; 548  : {

  015f0	55		 push	 ebp
  015f1	8b ec		 mov	 ebp, esp
  015f3	83 ec 68	 sub	 esp, 104		; 00000068H
  015f6	53		 push	 ebx
  015f7	56		 push	 esi
  015f8	57		 push	 edi
  015f9	89 4d fc	 mov	 DWORD PTR _this$[ebp], ecx

; 549  : 	BOOL bChaoseGem = FALSE;

  015fc	c7 45 f8 00 00
	00 00		 mov	 DWORD PTR _bChaoseGem$[ebp], 0

; 550  : 	BOOL bEyeOfDevil = FALSE;

  01603	c7 45 f4 00 00
	00 00		 mov	 DWORD PTR _bEyeOfDevil$[ebp], 0

; 551  : 	BOOL bKeyOfDevil = FALSE;

  0160a	c7 45 f0 00 00
	00 00		 mov	 DWORD PTR _bKeyOfDevil$[ebp], 0

; 552  : 	eventitemcount = 0;

  01611	8b 45 0c	 mov	 eax, DWORD PTR _eventitemcount$[ebp]
  01614	c7 00 00 00 00
	00		 mov	 DWORD PTR [eax], 0

; 553  : 	BOOL FoundOtherItem = FALSE;

  0161a	c7 45 ec 00 00
	00 00		 mov	 DWORD PTR _FoundOtherItem$[ebp], 0

; 554  : 	int level = -1;

  01621	c7 45 e8 ff ff
	ff ff		 mov	 DWORD PTR _level$[ebp], -1

; 555  : 	BOOL bLevelCheck = FALSE;

  01628	c7 45 e4 00 00
	00 00		 mov	 DWORD PTR _bLevelCheck$[ebp], 0

; 556  : 	int iCharmOfLuckCount = 0;

  0162f	c7 45 e0 00 00
	00 00		 mov	 DWORD PTR _iCharmOfLuckCount$[ebp], 0

; 557  : 	BOOL bCharmOfLuckOver = FALSE;

  01636	c7 45 dc 00 00
	00 00		 mov	 DWORD PTR _bCharmOfLuckOver$[ebp], 0

; 558  : 
; 559  : 	LogAdd("[DevilSquare] Search DevilSquareItem");

  0163d	68 00 00 00 00	 push	 OFFSET ??_C@_0CF@MGDMILOL@?$FLDevilSquare?$FN?5Search?5DevilSquare@
  01642	ff 15 00 00 00
	00		 call	 DWORD PTR ?LogAdd@@3P6AXPADZZA ; LogAdd
  01648	83 c4 04	 add	 esp, 4

; 560  : 
; 561  : 	for ( int n=0;n<CHAOS_BOX_SIZE;n++)

  0164b	c7 45 d8 00 00
	00 00		 mov	 DWORD PTR _n$235591[ebp], 0
  01652	eb 09		 jmp	 SHORT $LN24@CheckDevil
$LN23@CheckDevil:
  01654	8b 45 d8	 mov	 eax, DWORD PTR _n$235591[ebp]
  01657	83 c0 01	 add	 eax, 1
  0165a	89 45 d8	 mov	 DWORD PTR _n$235591[ebp], eax
$LN24@CheckDevil:
  0165d	83 7d d8 20	 cmp	 DWORD PTR _n$235591[ebp], 32 ; 00000020H
  01661	0f 8d 99 01 00
	00		 jge	 $LN22@CheckDevil

; 562  : 	{
; 563  : 		if ( lpObj->pChaosBox[n].IsItem() == TRUE )

  01667	8b 4d d8	 mov	 ecx, DWORD PTR _n$235591[ebp]
  0166a	69 c9 d4 00 00
	00		 imul	 ecx, 212		; 000000d4H
  01670	8b 45 08	 mov	 eax, DWORD PTR _lpObj$[ebp]
  01673	03 88 78 0e 00
	00		 add	 ecx, DWORD PTR [eax+3704]
  01679	e8 00 00 00 00	 call	 ?IsItem@CItem@@QAEHXZ	; CItem::IsItem
  0167e	83 f8 01	 cmp	 eax, 1
  01681	0f 85 74 01 00
	00		 jne	 $LN6@CheckDevil

; 564  : 		{
; 565  : 			if ( lpObj->pChaosBox[n].m_Type == ITEMGET(12,15) )	// Chaos

  01687	8b 45 d8	 mov	 eax, DWORD PTR _n$235591[ebp]
  0168a	69 c0 d4 00 00
	00		 imul	 eax, 212		; 000000d4H
  01690	8b 4d 08	 mov	 ecx, DWORD PTR _lpObj$[ebp]
  01693	8b 91 78 0e 00
	00		 mov	 edx, DWORD PTR [ecx+3704]
  01699	0f bf 44 02 06	 movsx	 eax, WORD PTR [edx+eax+6]
  0169e	3d 0f 18 00 00	 cmp	 eax, 6159		; 0000180fH
  016a3	75 0c		 jne	 SHORT $LN20@CheckDevil

; 566  : 			{
; 567  : 				bChaoseGem = TRUE;

  016a5	c7 45 f8 01 00
	00 00		 mov	 DWORD PTR _bChaoseGem$[ebp], 1
  016ac	e9 4a 01 00 00	 jmp	 $LN6@CheckDevil
$LN20@CheckDevil:

; 568  : 			}
; 569  : 			else if ( lpObj->pChaosBox[n].m_Type == ITEMGET(14,17) )	// Eye

  016b1	8b 45 d8	 mov	 eax, DWORD PTR _n$235591[ebp]
  016b4	69 c0 d4 00 00
	00		 imul	 eax, 212		; 000000d4H
  016ba	8b 4d 08	 mov	 ecx, DWORD PTR _lpObj$[ebp]
  016bd	8b 91 78 0e 00
	00		 mov	 edx, DWORD PTR [ecx+3704]
  016c3	0f bf 44 02 06	 movsx	 eax, WORD PTR [edx+eax+6]
  016c8	3d 11 1c 00 00	 cmp	 eax, 7185		; 00001c11H
  016cd	75 5e		 jne	 SHORT $LN18@CheckDevil

; 570  : 			{
; 571  : 				eventitemcount +=1;

  016cf	8b 45 0c	 mov	 eax, DWORD PTR _eventitemcount$[ebp]
  016d2	8b 08		 mov	 ecx, DWORD PTR [eax]
  016d4	83 c1 01	 add	 ecx, 1
  016d7	8b 55 0c	 mov	 edx, DWORD PTR _eventitemcount$[ebp]
  016da	89 0a		 mov	 DWORD PTR [edx], ecx

; 572  : 				bEyeOfDevil = TRUE;

  016dc	c7 45 f4 01 00
	00 00		 mov	 DWORD PTR _bEyeOfDevil$[ebp], 1

; 573  : 
; 574  : 				if ( level != lpObj->pChaosBox[n].m_Level )

  016e3	8b 45 d8	 mov	 eax, DWORD PTR _n$235591[ebp]
  016e6	69 c0 d4 00 00
	00		 imul	 eax, 212		; 000000d4H
  016ec	8b 4d 08	 mov	 ecx, DWORD PTR _lpObj$[ebp]
  016ef	8b 91 78 0e 00
	00		 mov	 edx, DWORD PTR [ecx+3704]
  016f5	0f bf 44 02 08	 movsx	 eax, WORD PTR [edx+eax+8]
  016fa	39 45 e8	 cmp	 DWORD PTR _level$[ebp], eax
  016fd	74 29		 je	 SHORT $LN15@CheckDevil

; 575  : 				{
; 576  : 					if ( level == -1 )

  016ff	83 7d e8 ff	 cmp	 DWORD PTR _level$[ebp], -1
  01703	75 1c		 jne	 SHORT $LN16@CheckDevil

; 577  : 					{
; 578  : 						level = lpObj->pChaosBox[n].m_Level;

  01705	8b 45 d8	 mov	 eax, DWORD PTR _n$235591[ebp]
  01708	69 c0 d4 00 00
	00		 imul	 eax, 212		; 000000d4H
  0170e	8b 4d 08	 mov	 ecx, DWORD PTR _lpObj$[ebp]
  01711	8b 91 78 0e 00
	00		 mov	 edx, DWORD PTR [ecx+3704]
  01717	0f bf 44 02 08	 movsx	 eax, WORD PTR [edx+eax+8]
  0171c	89 45 e8	 mov	 DWORD PTR _level$[ebp], eax

; 579  : 					}
; 580  : 					else

  0171f	eb 07		 jmp	 SHORT $LN15@CheckDevil
$LN16@CheckDevil:

; 581  : 					{
; 582  : 						bLevelCheck = TRUE;

  01721	c7 45 e4 01 00
	00 00		 mov	 DWORD PTR _bLevelCheck$[ebp], 1
$LN15@CheckDevil:

; 583  : 					}
; 584  : 				}
; 585  : 			}

  01728	e9 ce 00 00 00	 jmp	 $LN6@CheckDevil
$LN18@CheckDevil:

; 586  : 			else if ( lpObj->pChaosBox[n].m_Type == ITEMGET(14,18) )	// Key

  0172d	8b 45 d8	 mov	 eax, DWORD PTR _n$235591[ebp]
  01730	69 c0 d4 00 00
	00		 imul	 eax, 212		; 000000d4H
  01736	8b 4d 08	 mov	 ecx, DWORD PTR _lpObj$[ebp]
  01739	8b 91 78 0e 00
	00		 mov	 edx, DWORD PTR [ecx+3704]
  0173f	0f bf 44 02 06	 movsx	 eax, WORD PTR [edx+eax+6]
  01744	3d 12 1c 00 00	 cmp	 eax, 7186		; 00001c12H
  01749	75 5b		 jne	 SHORT $LN13@CheckDevil

; 587  : 			{
; 588  : 				eventitemcount +=1;

  0174b	8b 45 0c	 mov	 eax, DWORD PTR _eventitemcount$[ebp]
  0174e	8b 08		 mov	 ecx, DWORD PTR [eax]
  01750	83 c1 01	 add	 ecx, 1
  01753	8b 55 0c	 mov	 edx, DWORD PTR _eventitemcount$[ebp]
  01756	89 0a		 mov	 DWORD PTR [edx], ecx

; 589  : 				bKeyOfDevil = TRUE;

  01758	c7 45 f0 01 00
	00 00		 mov	 DWORD PTR _bKeyOfDevil$[ebp], 1

; 590  : 
; 591  : 				if ( level != lpObj->pChaosBox[n].m_Level )

  0175f	8b 45 d8	 mov	 eax, DWORD PTR _n$235591[ebp]
  01762	69 c0 d4 00 00
	00		 imul	 eax, 212		; 000000d4H
  01768	8b 4d 08	 mov	 ecx, DWORD PTR _lpObj$[ebp]
  0176b	8b 91 78 0e 00
	00		 mov	 edx, DWORD PTR [ecx+3704]
  01771	0f bf 44 02 08	 movsx	 eax, WORD PTR [edx+eax+8]
  01776	39 45 e8	 cmp	 DWORD PTR _level$[ebp], eax
  01779	74 29		 je	 SHORT $LN10@CheckDevil

; 592  : 				{
; 593  : 					if ( level == -1 )

  0177b	83 7d e8 ff	 cmp	 DWORD PTR _level$[ebp], -1
  0177f	75 1c		 jne	 SHORT $LN11@CheckDevil

; 594  : 					{
; 595  : 						level = lpObj->pChaosBox[n].m_Level;

  01781	8b 45 d8	 mov	 eax, DWORD PTR _n$235591[ebp]
  01784	69 c0 d4 00 00
	00		 imul	 eax, 212		; 000000d4H
  0178a	8b 4d 08	 mov	 ecx, DWORD PTR _lpObj$[ebp]
  0178d	8b 91 78 0e 00
	00		 mov	 edx, DWORD PTR [ecx+3704]
  01793	0f bf 44 02 08	 movsx	 eax, WORD PTR [edx+eax+8]
  01798	89 45 e8	 mov	 DWORD PTR _level$[ebp], eax

; 596  : 					}
; 597  : 					else

  0179b	eb 07		 jmp	 SHORT $LN10@CheckDevil
$LN11@CheckDevil:

; 598  : 					{
; 599  : 						bLevelCheck = TRUE;

  0179d	c7 45 e4 01 00
	00 00		 mov	 DWORD PTR _bLevelCheck$[ebp], 1
$LN10@CheckDevil:

; 600  : 					}
; 601  : 				}
; 602  : 			}

  017a4	eb 55		 jmp	 SHORT $LN6@CheckDevil
$LN13@CheckDevil:

; 603  : 			else if ( lpObj->pChaosBox[n].m_Type == ITEMGET(14,53) )	// Charm Of Luck

  017a6	8b 45 d8	 mov	 eax, DWORD PTR _n$235591[ebp]
  017a9	69 c0 d4 00 00
	00		 imul	 eax, 212		; 000000d4H
  017af	8b 4d 08	 mov	 ecx, DWORD PTR _lpObj$[ebp]
  017b2	8b 91 78 0e 00
	00		 mov	 edx, DWORD PTR [ecx+3704]
  017b8	0f bf 44 02 06	 movsx	 eax, WORD PTR [edx+eax+6]
  017bd	3d 35 1c 00 00	 cmp	 eax, 7221		; 00001c35H
  017c2	75 30		 jne	 SHORT $LN8@CheckDevil

; 604  : 			{
; 605  : 				iCharmOfLuckCount += (int)lpObj->pChaosBox[n].m_Durability;

  017c4	8b 45 d8	 mov	 eax, DWORD PTR _n$235591[ebp]
  017c7	69 c0 d4 00 00
	00		 imul	 eax, 212		; 000000d4H
  017cd	8b 4d 08	 mov	 ecx, DWORD PTR _lpObj$[ebp]
  017d0	8b 91 78 0e 00
	00		 mov	 edx, DWORD PTR [ecx+3704]
  017d6	d9 44 02 24	 fld	 DWORD PTR [edx+eax+36]
  017da	e8 00 00 00 00	 call	 __ftol2_sse
  017df	03 45 e0	 add	 eax, DWORD PTR _iCharmOfLuckCount$[ebp]
  017e2	89 45 e0	 mov	 DWORD PTR _iCharmOfLuckCount$[ebp], eax

; 606  : 
; 607  : 				if ( iCharmOfLuckCount > 10 )

  017e5	83 7d e0 0a	 cmp	 DWORD PTR _iCharmOfLuckCount$[ebp], 10 ; 0000000aH
  017e9	7e 07		 jle	 SHORT $LN7@CheckDevil

; 608  : 				{
; 609  : 					bCharmOfLuckOver = TRUE;

  017eb	c7 45 dc 01 00
	00 00		 mov	 DWORD PTR _bCharmOfLuckOver$[ebp], 1
$LN7@CheckDevil:

; 610  : 				}
; 611  : 			}
; 612  : 			else

  017f2	eb 07		 jmp	 SHORT $LN6@CheckDevil
$LN8@CheckDevil:

; 613  : 			{
; 614  : 				FoundOtherItem = TRUE;

  017f4	c7 45 ec 01 00
	00 00		 mov	 DWORD PTR _FoundOtherItem$[ebp], 1
$LN6@CheckDevil:

; 615  : 			}
; 616  : 		}
; 617  : 	}

  017fb	e9 54 fe ff ff	 jmp	 $LN23@CheckDevil
$LN22@CheckDevil:

; 618  : 
; 619  : 	itemlevel = level;

  01800	8b 45 10	 mov	 eax, DWORD PTR _itemlevel$[ebp]
  01803	8b 4d e8	 mov	 ecx, DWORD PTR _level$[ebp]
  01806	89 08		 mov	 DWORD PTR [eax], ecx

; 620  : 	lpObj->ChaosSuccessRate = iCharmOfLuckCount;

  01808	8b 45 08	 mov	 eax, DWORD PTR _lpObj$[ebp]
  0180b	8b 4d e0	 mov	 ecx, DWORD PTR _iCharmOfLuckCount$[ebp]
  0180e	89 88 84 0e 00
	00		 mov	 DWORD PTR [eax+3716], ecx

; 621  : 
; 622  : 	if ( FoundOtherItem != FALSE )

  01814	83 7d ec 00	 cmp	 DWORD PTR _FoundOtherItem$[ebp], 0
  01818	74 15		 je	 SHORT $LN5@CheckDevil

; 623  : 	{
; 624  : 		LogAdd("[DevilSquare] Other DQItems Found");

  0181a	68 00 00 00 00	 push	 OFFSET ??_C@_0CC@LINAPAPC@?$FLDevilSquare?$FN?5Other?5DQItems?5Foun@
  0181f	ff 15 00 00 00
	00		 call	 DWORD PTR ?LogAdd@@3P6AXPADZZA ; LogAdd
  01825	83 c4 04	 add	 esp, 4

; 625  : 		return 0;

  01828	33 c0		 xor	 eax, eax
  0182a	e9 8a 00 00 00	 jmp	 $LN25@CheckDevil
$LN5@CheckDevil:

; 626  : 	}
; 627  : 
; 628  : 	if ( bLevelCheck != FALSE )

  0182f	83 7d e4 00	 cmp	 DWORD PTR _bLevelCheck$[ebp], 0
  01833	74 15		 je	 SHORT $LN4@CheckDevil

; 629  : 	{
; 630  : 		LogAdd("[DevilSquare] DiffLevel DQItems Found");

  01835	68 00 00 00 00	 push	 OFFSET ??_C@_0CG@FFFDDFEO@?$FLDevilSquare?$FN?5DiffLevel?5DQItems?5@
  0183a	ff 15 00 00 00
	00		 call	 DWORD PTR ?LogAdd@@3P6AXPADZZA ; LogAdd
  01840	83 c4 04	 add	 esp, 4

; 631  : 		return 3;

  01843	b8 03 00 00 00	 mov	 eax, 3
  01848	eb 6f		 jmp	 SHORT $LN25@CheckDevil
$LN4@CheckDevil:

; 632  : 	}
; 633  : 
; 634  : 	if ( bCharmOfLuckOver == TRUE )

  0184a	83 7d dc 01	 cmp	 DWORD PTR _bCharmOfLuckOver$[ebp], 1
  0184e	75 15		 jne	 SHORT $LN3@CheckDevil

; 635  : 	{
; 636  : 		LogAdd("[DevilSquare] Charm Of Luck Count Over");

  01850	68 00 00 00 00	 push	 OFFSET ??_C@_0CH@EJJKJEAB@?$FLDevilSquare?$FN?5Charm?5Of?5Luck?5Coun@
  01855	ff 15 00 00 00
	00		 call	 DWORD PTR ?LogAdd@@3P6AXPADZZA ; LogAdd
  0185b	83 c4 04	 add	 esp, 4

; 637  : 		return 4;

  0185e	b8 04 00 00 00	 mov	 eax, 4
  01863	eb 54		 jmp	 SHORT $LN25@CheckDevil
$LN3@CheckDevil:

; 638  : 	}
; 639  : 
; 640  : 	if ( bChaoseGem != FALSE && bEyeOfDevil != FALSE && bKeyOfDevil != FALSE )

  01865	83 7d f8 00	 cmp	 DWORD PTR _bChaoseGem$[ebp], 0
  01869	74 1f		 je	 SHORT $LN2@CheckDevil
  0186b	83 7d f4 00	 cmp	 DWORD PTR _bEyeOfDevil$[ebp], 0
  0186f	74 19		 je	 SHORT $LN2@CheckDevil
  01871	83 7d f0 00	 cmp	 DWORD PTR _bKeyOfDevil$[ebp], 0
  01875	74 13		 je	 SHORT $LN2@CheckDevil

; 641  : 	{
; 642  : 		LogDQChaosItem(lpObj);

  01877	8b 45 08	 mov	 eax, DWORD PTR _lpObj$[ebp]
  0187a	50		 push	 eax
  0187b	8b 4d fc	 mov	 ecx, DWORD PTR _this$[ebp]
  0187e	e8 00 00 00 00	 call	 ?LogDQChaosItem@CMixSystem@@QAEXPAUOBJECTSTRUCT@@@Z ; CMixSystem::LogDQChaosItem

; 643  : 		return 1;

  01883	b8 01 00 00 00	 mov	 eax, 1
  01888	eb 2f		 jmp	 SHORT $LN25@CheckDevil
$LN2@CheckDevil:

; 644  : 	}
; 645  : 
; 646  : 	if ( bEyeOfDevil != FALSE && bKeyOfDevil != FALSE )

  0188a	83 7d f4 00	 cmp	 DWORD PTR _bEyeOfDevil$[ebp], 0
  0188e	74 19		 je	 SHORT $LN1@CheckDevil
  01890	83 7d f0 00	 cmp	 DWORD PTR _bKeyOfDevil$[ebp], 0
  01894	74 13		 je	 SHORT $LN1@CheckDevil

; 647  : 	{
; 648  : 		LogDQChaosItem(lpObj);

  01896	8b 45 08	 mov	 eax, DWORD PTR _lpObj$[ebp]
  01899	50		 push	 eax
  0189a	8b 4d fc	 mov	 ecx, DWORD PTR _this$[ebp]
  0189d	e8 00 00 00 00	 call	 ?LogDQChaosItem@CMixSystem@@QAEXPAUOBJECTSTRUCT@@@Z ; CMixSystem::LogDQChaosItem

; 649  : 		return 2;

  018a2	b8 02 00 00 00	 mov	 eax, 2
  018a7	eb 10		 jmp	 SHORT $LN25@CheckDevil
$LN1@CheckDevil:

; 650  : 	}
; 651  : 
; 652  : 	LogAdd("[DevilSquare] DQItems Not Found");

  018a9	68 00 00 00 00	 push	 OFFSET ??_C@_0CA@IANBADIL@?$FLDevilSquare?$FN?5DQItems?5Not?5Found?$AA@
  018ae	ff 15 00 00 00
	00		 call	 DWORD PTR ?LogAdd@@3P6AXPADZZA ; LogAdd
  018b4	83 c4 04	 add	 esp, 4

; 653  : 
; 654  : 	return 0;

  018b7	33 c0		 xor	 eax, eax
$LN25@CheckDevil:

; 655  : }

  018b9	5f		 pop	 edi
  018ba	5e		 pop	 esi
  018bb	5b		 pop	 ebx
  018bc	8b e5		 mov	 esp, ebp
  018be	5d		 pop	 ebp
  018bf	c2 0c 00	 ret	 12			; 0000000cH
?CheckDevilSquareItem@CMixSystem@@QAEHPAUOBJECTSTRUCT@@AAH1@Z ENDP ; CMixSystem::CheckDevilSquareItem
_TEXT	ENDS
PUBLIC	??_C@_0DL@ODHCGDBD@?$FLDevilSquare?0?$CFd?$FN?5?$FL?$CFs?$FN?$FL?$CFs?$FN?5CBMix?5@ ; `string'
PUBLIC	??_C@_0DG@KKBIIBFP@?$FLDevilSquare?0?$CFd?$FN?5?$FL?$CFs?$FN?$FL?$CFs?$FN?5CBMix?5@ ; `string'
PUBLIC	??_C@_0EB@HHHNMGIM@?$FLDevilSquare?$FN?5?$FL?$CFs?$FN?$FL?$CFs?$FN?5CBMix?5Not@ ; `string'
PUBLIC	??_C@_0DB@BMAIOAHL@?$FLDevilSquare?$FN?5?$FL?$CFs?$FN?$FL?$CFs?$FN?5Invalid?5D@ ; `string'
PUBLIC	??_C@_0BO@MDACFBLC@?$FLDevilSquare?$FN?5Chaos?5Mix?5Start?$AA@ ; `string'
PUBLIC	__$ArrayPad$
PUBLIC	?DevilSquareEventChaosMix@CMixSystem@@QAEHPAUOBJECTSTRUCT@@HH@Z ; CMixSystem::DevilSquareEventChaosMix
EXTRN	?DestroyGIocp@@YAXXZ:PROC			; DestroyGIocp
EXTRN	?szAuthKey@@3PADA:BYTE				; szAuthKey
EXTRN	?GetPlusChaosRate@CCrywolfSync@@QAEHXZ:PROC	; CCrywolfSync::GetPlusChaosRate
EXTRN	?g_iCrywolfApplyMvpBenefit@@3HA:DWORD		; g_iCrywolfApplyMvpBenefit
EXTRN	?GetOccupationState@CCrywolfSync@@QAEHXZ:PROC	; CCrywolfSync::GetOccupationState
EXTRN	?g_CrywolfSync@@3VCCrywolfSync@@A:BYTE		; g_CrywolfSync
EXTRN	?gDQChaosSuccessRateLevel7@@3HA:DWORD		; gDQChaosSuccessRateLevel7
EXTRN	?gDQChaosSuccessRateLevel6@@3HA:DWORD		; gDQChaosSuccessRateLevel6
EXTRN	?gDQChaosSuccessRateLevel5@@3HA:DWORD		; gDQChaosSuccessRateLevel5
EXTRN	?gDQChaosSuccessRateLevel4@@3HA:DWORD		; gDQChaosSuccessRateLevel4
EXTRN	?gDQChaosSuccessRateLevel3@@3HA:DWORD		; gDQChaosSuccessRateLevel3
EXTRN	?gDQChaosSuccessRateLevel2@@3HA:DWORD		; gDQChaosSuccessRateLevel2
EXTRN	?gDQChaosSuccessRateLevel1@@3HA:DWORD		; gDQChaosSuccessRateLevel1
;	COMDAT ??_C@_0DL@ODHCGDBD@?$FLDevilSquare?0?$CFd?$FN?5?$FL?$CFs?$FN?$FL?$CFs?$FN?5CBMix?5@
CONST	SEGMENT
??_C@_0DL@ODHCGDBD@?$FLDevilSquare?0?$CFd?$FN?5?$FL?$CFs?$FN?$FL?$CFs?$FN?5CBMix?5@ DB '['
	DB	'DevilSquare,%d] [%s][%s] CBMix Success Rate:%d Money : %d', 00H ; `string'
CONST	ENDS
;	COMDAT ??_C@_0DG@KKBIIBFP@?$FLDevilSquare?0?$CFd?$FN?5?$FL?$CFs?$FN?$FL?$CFs?$FN?5CBMix?5@
CONST	SEGMENT
??_C@_0DG@KKBIIBFP@?$FLDevilSquare?0?$CFd?$FN?5?$FL?$CFs?$FN?$FL?$CFs?$FN?5CBMix?5@ DB '['
	DB	'DevilSquare,%d] [%s][%s] CBMix Fail %d Money : %d-%d', 00H ; `string'
CONST	ENDS
;	COMDAT ??_C@_0EB@HHHNMGIM@?$FLDevilSquare?$FN?5?$FL?$CFs?$FN?$FL?$CFs?$FN?5CBMix?5Not@
CONST	SEGMENT
??_C@_0EB@HHHNMGIM@?$FLDevilSquare?$FN?5?$FL?$CFs?$FN?$FL?$CFs?$FN?5CBMix?5Not@ DB '['
	DB	'DevilSquare] [%s][%s] CBMix Not Enough Money [%d] need zen [%'
	DB	'd]', 00H					; `string'
CONST	ENDS
;	COMDAT ??_C@_0DB@BMAIOAHL@?$FLDevilSquare?$FN?5?$FL?$CFs?$FN?$FL?$CFs?$FN?5Invalid?5D@
CONST	SEGMENT
??_C@_0DB@BMAIOAHL@?$FLDevilSquare?$FN?5?$FL?$CFs?$FN?$FL?$CFs?$FN?5Invalid?5D@ DB '['
	DB	'DevilSquare] [%s][%s] Invalid DQItem Level [%d]', 00H ; `string'
CONST	ENDS
;	COMDAT ??_C@_0BO@MDACFBLC@?$FLDevilSquare?$FN?5Chaos?5Mix?5Start?$AA@
CONST	SEGMENT
??_C@_0BO@MDACFBLC@?$FLDevilSquare?$FN?5Chaos?5Mix?5Start?$AA@ DB '[Devil'
	DB	'Square] Chaos Mix Start', 00H		; `string'
; Function compile flags: /Odtp /ZI
CONST	ENDS
_TEXT	SEGMENT
tv72 = -120						; size = 4
_DevilInv$235666 = -52					; size = 4
_iRate$ = -48						; size = 4
_iChaosTaxMoney$ = -44					; size = 4
_iCharmOfLuckCount$ = -40				; size = 4
_nChaosNeedMoney$ = -36					; size = 4
_pMsg$ = -32						; size = 16
_aIndex$ = -16						; size = 4
_fail$ = -12						; size = 4
_this$ = -8						; size = 4
__$ArrayPad$ = -4					; size = 4
_lpObj$ = 8						; size = 4
_bCheckType$ = 12					; size = 4
_iItemLevel$ = 16					; size = 4
?DevilSquareEventChaosMix@CMixSystem@@QAEHPAUOBJECTSTRUCT@@HH@Z PROC ; CMixSystem::DevilSquareEventChaosMix
; _this$ = ecx

; 658  : {

  018d0	55		 push	 ebp
  018d1	8b ec		 mov	 ebp, esp
  018d3	83 ec 78	 sub	 esp, 120		; 00000078H
  018d6	a1 00 00 00 00	 mov	 eax, DWORD PTR ___security_cookie
  018db	33 c5		 xor	 eax, ebp
  018dd	89 45 fc	 mov	 DWORD PTR __$ArrayPad$[ebp], eax
  018e0	53		 push	 ebx
  018e1	56		 push	 esi
  018e2	57		 push	 edi
  018e3	89 4d f8	 mov	 DWORD PTR _this$[ebp], ecx

; 659  : 	BOOL fail = TRUE;

  018e6	c7 45 f4 01 00
	00 00		 mov	 DWORD PTR _fail$[ebp], 1

; 660  : 	int aIndex = lpObj->m_Index;

  018ed	8b 45 08	 mov	 eax, DWORD PTR _lpObj$[ebp]
  018f0	8b 08		 mov	 ecx, DWORD PTR [eax]
  018f2	89 4d f0	 mov	 DWORD PTR _aIndex$[ebp], ecx

; 661  : 	PMSG_CHAOSMIXRESULT pMsg;
; 662  : 
; 663  : 	PHeadSetB((LPBYTE)&pMsg.h, 0x86, sizeof(PMSG_CHAOSMIXRESULT));

  018f5	6a 10		 push	 16			; 00000010H
  018f7	68 86 00 00 00	 push	 134			; 00000086H
  018fc	8d 45 e0	 lea	 eax, DWORD PTR _pMsg$[ebp]
  018ff	50		 push	 eax
  01900	e8 00 00 00 00	 call	 ?PHeadSetB@@YAXPAEEH@Z	; PHeadSetB
  01905	83 c4 0c	 add	 esp, 12			; 0000000cH

; 664  : 	pMsg.Result = CB_ERROR;

  01908	c6 45 e3 00	 mov	 BYTE PTR _pMsg$[ebp+3], 0

; 665  : 	lpObj->ChaosLock = TRUE;

  0190c	8b 45 08	 mov	 eax, DWORD PTR _lpObj$[ebp]
  0190f	c7 80 88 0e 00
	00 01 00 00 00	 mov	 DWORD PTR [eax+3720], 1

; 666  : 
; 667  : 	LogAddTD("[DevilSquare] Chaos Mix Start");

  01919	68 00 00 00 00	 push	 OFFSET ??_C@_0BO@MDACFBLC@?$FLDevilSquare?$FN?5Chaos?5Mix?5Start?$AA@
  0191e	ff 15 00 00 00
	00		 call	 DWORD PTR ?LogAddTD@@3P6AXPADZZA ; LogAddTD
  01924	83 c4 04	 add	 esp, 4

; 668  : 
; 669  : 	INT nChaosNeedMoney = 0;

  01927	c7 45 dc 00 00
	00 00		 mov	 DWORD PTR _nChaosNeedMoney$[ebp], 0

; 670  : 
; 671  : 	int iCharmOfLuckCount = 0;

  0192e	c7 45 d8 00 00
	00 00		 mov	 DWORD PTR _iCharmOfLuckCount$[ebp], 0

; 672  : 	iCharmOfLuckCount = lpObj->ChaosSuccessRate;

  01935	8b 45 08	 mov	 eax, DWORD PTR _lpObj$[ebp]
  01938	8b 88 84 0e 00
	00		 mov	 ecx, DWORD PTR [eax+3716]
  0193e	89 4d d8	 mov	 DWORD PTR _iCharmOfLuckCount$[ebp], ecx

; 673  : 
; 674  : 	if ( iCharmOfLuckCount > 10 )

  01941	83 7d d8 0a	 cmp	 DWORD PTR _iCharmOfLuckCount$[ebp], 10 ; 0000000aH
  01945	7e 26		 jle	 SHORT $LN21@DevilSquar

; 675  : 	{
; 676  : 		pMsg.Result = 0xF0;

  01947	c6 45 e3 f0	 mov	 BYTE PTR _pMsg$[ebp+3], 240 ; 000000f0H

; 677  : 		lpObj->ChaosLock = FALSE;

  0194b	8b 45 08	 mov	 eax, DWORD PTR _lpObj$[ebp]
  0194e	c7 80 88 0e 00
	00 00 00 00 00	 mov	 DWORD PTR [eax+3720], 0

; 678  : 		DataSend(aIndex, (LPBYTE)&pMsg, pMsg.h.size);

  01958	0f b6 45 e1	 movzx	 eax, BYTE PTR _pMsg$[ebp+1]
  0195c	50		 push	 eax
  0195d	8d 4d e0	 lea	 ecx, DWORD PTR _pMsg$[ebp]
  01960	51		 push	 ecx
  01961	8b 55 f0	 mov	 edx, DWORD PTR _aIndex$[ebp]
  01964	52		 push	 edx
  01965	e8 00 00 00 00	 call	 ?DataSend@@YAHHPAEK@Z	; DataSend
  0196a	83 c4 0c	 add	 esp, 12			; 0000000cH
$LN21@DevilSquar:

; 679  : 	}
; 680  : 
; 681  : 	switch ( iItemLevel )

  0196d	8b 45 10	 mov	 eax, DWORD PTR _iItemLevel$[ebp]
  01970	89 45 88	 mov	 DWORD PTR tv72[ebp], eax
  01973	83 7d 88 07	 cmp	 DWORD PTR tv72[ebp], 7
  01977	0f 87 da 00 00
	00		 ja	 $LN10@DevilSquar
  0197d	8b 4d 88	 mov	 ecx, DWORD PTR tv72[ebp]
  01980	ff 24 8d 00 00
	00 00		 jmp	 DWORD PTR $LN24@DevilSquar[ecx*4]
$LN18@DevilSquar:

; 682  : 	{
; 683  : 		case 0:
; 684  : 			lpObj->ChaosSuccessRate = 60;

  01987	8b 45 08	 mov	 eax, DWORD PTR _lpObj$[ebp]
  0198a	c7 80 84 0e 00
	00 3c 00 00 00	 mov	 DWORD PTR [eax+3716], 60 ; 0000003cH

; 685  : 			nChaosNeedMoney = 100000;

  01994	c7 45 dc a0 86
	01 00		 mov	 DWORD PTR _nChaosNeedMoney$[ebp], 100000 ; 000186a0H

; 686  : 			break;

  0199b	e9 07 01 00 00	 jmp	 $LN19@DevilSquar
$LN17@DevilSquar:

; 687  : 
; 688  : 		case 1:
; 689  : 			lpObj->ChaosSuccessRate = gDQChaosSuccessRateLevel1;

  019a0	8b 45 08	 mov	 eax, DWORD PTR _lpObj$[ebp]
  019a3	8b 0d 00 00 00
	00		 mov	 ecx, DWORD PTR ?gDQChaosSuccessRateLevel1@@3HA ; gDQChaosSuccessRateLevel1
  019a9	89 88 84 0e 00
	00		 mov	 DWORD PTR [eax+3716], ecx

; 690  : 			nChaosNeedMoney = 100000;

  019af	c7 45 dc a0 86
	01 00		 mov	 DWORD PTR _nChaosNeedMoney$[ebp], 100000 ; 000186a0H

; 691  : 			break;

  019b6	e9 ec 00 00 00	 jmp	 $LN19@DevilSquar
$LN16@DevilSquar:

; 692  : 
; 693  : 		case 2:
; 694  : 			lpObj->ChaosSuccessRate = gDQChaosSuccessRateLevel2;

  019bb	8b 45 08	 mov	 eax, DWORD PTR _lpObj$[ebp]
  019be	8b 0d 00 00 00
	00		 mov	 ecx, DWORD PTR ?gDQChaosSuccessRateLevel2@@3HA ; gDQChaosSuccessRateLevel2
  019c4	89 88 84 0e 00
	00		 mov	 DWORD PTR [eax+3716], ecx

; 695  : 			nChaosNeedMoney = 200000;

  019ca	c7 45 dc 40 0d
	03 00		 mov	 DWORD PTR _nChaosNeedMoney$[ebp], 200000 ; 00030d40H

; 696  : 			break;

  019d1	e9 d1 00 00 00	 jmp	 $LN19@DevilSquar
$LN15@DevilSquar:

; 697  : 
; 698  : 		case 3:
; 699  : 			lpObj->ChaosSuccessRate = gDQChaosSuccessRateLevel3;

  019d6	8b 45 08	 mov	 eax, DWORD PTR _lpObj$[ebp]
  019d9	8b 0d 00 00 00
	00		 mov	 ecx, DWORD PTR ?gDQChaosSuccessRateLevel3@@3HA ; gDQChaosSuccessRateLevel3
  019df	89 88 84 0e 00
	00		 mov	 DWORD PTR [eax+3716], ecx

; 700  : 			nChaosNeedMoney = 400000;

  019e5	c7 45 dc 80 1a
	06 00		 mov	 DWORD PTR _nChaosNeedMoney$[ebp], 400000 ; 00061a80H

; 701  : 			break;

  019ec	e9 b6 00 00 00	 jmp	 $LN19@DevilSquar
$LN14@DevilSquar:

; 702  : 
; 703  : 		case 4:
; 704  : 			lpObj->ChaosSuccessRate = gDQChaosSuccessRateLevel4;

  019f1	8b 45 08	 mov	 eax, DWORD PTR _lpObj$[ebp]
  019f4	8b 0d 00 00 00
	00		 mov	 ecx, DWORD PTR ?gDQChaosSuccessRateLevel4@@3HA ; gDQChaosSuccessRateLevel4
  019fa	89 88 84 0e 00
	00		 mov	 DWORD PTR [eax+3716], ecx

; 705  : 			nChaosNeedMoney = 700000;

  01a00	c7 45 dc 60 ae
	0a 00		 mov	 DWORD PTR _nChaosNeedMoney$[ebp], 700000 ; 000aae60H

; 706  : 			break;

  01a07	e9 9b 00 00 00	 jmp	 $LN19@DevilSquar
$LN13@DevilSquar:

; 707  : 
; 708  : 		case 5:
; 709  : 			lpObj->ChaosSuccessRate = gDQChaosSuccessRateLevel5;

  01a0c	8b 45 08	 mov	 eax, DWORD PTR _lpObj$[ebp]
  01a0f	8b 0d 00 00 00
	00		 mov	 ecx, DWORD PTR ?gDQChaosSuccessRateLevel5@@3HA ; gDQChaosSuccessRateLevel5
  01a15	89 88 84 0e 00
	00		 mov	 DWORD PTR [eax+3716], ecx

; 710  : 			nChaosNeedMoney = 1100000;

  01a1b	c7 45 dc e0 c8
	10 00		 mov	 DWORD PTR _nChaosNeedMoney$[ebp], 1100000 ; 0010c8e0H

; 711  : 			break;

  01a22	e9 80 00 00 00	 jmp	 $LN19@DevilSquar
$LN12@DevilSquar:

; 712  : 
; 713  : 		case 6:
; 714  : 			lpObj->ChaosSuccessRate = gDQChaosSuccessRateLevel6;

  01a27	8b 45 08	 mov	 eax, DWORD PTR _lpObj$[ebp]
  01a2a	8b 0d 00 00 00
	00		 mov	 ecx, DWORD PTR ?gDQChaosSuccessRateLevel6@@3HA ; gDQChaosSuccessRateLevel6
  01a30	89 88 84 0e 00
	00		 mov	 DWORD PTR [eax+3716], ecx

; 715  : 			nChaosNeedMoney = 1600000;

  01a36	c7 45 dc 00 6a
	18 00		 mov	 DWORD PTR _nChaosNeedMoney$[ebp], 1600000 ; 00186a00H

; 716  : 			break;

  01a3d	eb 68		 jmp	 SHORT $LN19@DevilSquar
$LN11@DevilSquar:

; 717  : 
; 718  : 		case 7: //Master
; 719  : 			lpObj->ChaosSuccessRate = gDQChaosSuccessRateLevel7;

  01a3f	8b 45 08	 mov	 eax, DWORD PTR _lpObj$[ebp]
  01a42	8b 0d 00 00 00
	00		 mov	 ecx, DWORD PTR ?gDQChaosSuccessRateLevel7@@3HA ; gDQChaosSuccessRateLevel7
  01a48	89 88 84 0e 00
	00		 mov	 DWORD PTR [eax+3716], ecx

; 720  : 			nChaosNeedMoney = 2000000;

  01a4e	c7 45 dc 80 84
	1e 00		 mov	 DWORD PTR _nChaosNeedMoney$[ebp], 2000000 ; 001e8480H

; 721  : 			break;

  01a55	eb 50		 jmp	 SHORT $LN19@DevilSquar
$LN10@DevilSquar:

; 722  : 
; 723  : 		default:
; 724  : 			LogAdd("[DevilSquare] [%s][%s] Invalid DQItem Level [%d]", lpObj->AccountID, lpObj->Name, iItemLevel);

  01a57	8b 45 10	 mov	 eax, DWORD PTR _iItemLevel$[ebp]
  01a5a	50		 push	 eax
  01a5b	8b 4d 08	 mov	 ecx, DWORD PTR _lpObj$[ebp]
  01a5e	83 c1 77	 add	 ecx, 119		; 00000077H
  01a61	51		 push	 ecx
  01a62	8b 55 08	 mov	 edx, DWORD PTR _lpObj$[ebp]
  01a65	83 c2 6c	 add	 edx, 108		; 0000006cH
  01a68	52		 push	 edx
  01a69	68 00 00 00 00	 push	 OFFSET ??_C@_0DB@BMAIOAHL@?$FLDevilSquare?$FN?5?$FL?$CFs?$FN?$FL?$CFs?$FN?5Invalid?5D@
  01a6e	ff 15 00 00 00
	00		 call	 DWORD PTR ?LogAdd@@3P6AXPADZZA ; LogAdd
  01a74	83 c4 10	 add	 esp, 16			; 00000010H

; 725  : 
; 726  : 			pMsg.Result = CB_INVALID_ITEM_LEVEL;

  01a77	c6 45 e3 08	 mov	 BYTE PTR _pMsg$[ebp+3], 8

; 727  : 			DataSend(aIndex, (LPBYTE)&pMsg, pMsg.h.size);

  01a7b	0f b6 45 e1	 movzx	 eax, BYTE PTR _pMsg$[ebp+1]
  01a7f	50		 push	 eax
  01a80	8d 4d e0	 lea	 ecx, DWORD PTR _pMsg$[ebp]
  01a83	51		 push	 ecx
  01a84	8b 55 f0	 mov	 edx, DWORD PTR _aIndex$[ebp]
  01a87	52		 push	 edx
  01a88	e8 00 00 00 00	 call	 ?DataSend@@YAHHPAEK@Z	; DataSend
  01a8d	83 c4 0c	 add	 esp, 12			; 0000000cH

; 728  : 			lpObj->ChaosLock = FALSE;

  01a90	8b 45 08	 mov	 eax, DWORD PTR _lpObj$[ebp]
  01a93	c7 80 88 0e 00
	00 00 00 00 00	 mov	 DWORD PTR [eax+3720], 0

; 729  : 			return 1;

  01a9d	b8 01 00 00 00	 mov	 eax, 1
  01aa2	e9 b6 02 00 00	 jmp	 $LN22@DevilSquar
$LN19@DevilSquar:

; 730  : 			break;
; 731  : 	}
; 732  : 
; 733  : 	int iChaosTaxMoney = (int)((__int64)nChaosNeedMoney * (__int64)g_CastleSiegeSync.GetTaxRateChaos(lpObj->m_Index) / (__int64)100);

  01aa7	8b 45 dc	 mov	 eax, DWORD PTR _nChaosNeedMoney$[ebp]
  01aaa	99		 cdq
  01aab	8b f0		 mov	 esi, eax
  01aad	8b fa		 mov	 edi, edx
  01aaf	8b 45 08	 mov	 eax, DWORD PTR _lpObj$[ebp]
  01ab2	8b 08		 mov	 ecx, DWORD PTR [eax]
  01ab4	51		 push	 ecx
  01ab5	b9 00 00 00 00	 mov	 ecx, OFFSET ?g_CastleSiegeSync@@3VCCastleSiegeSync@@A ; g_CastleSiegeSync
  01aba	e8 00 00 00 00	 call	 ?GetTaxRateChaos@CCastleSiegeSync@@QAEHH@Z ; CCastleSiegeSync::GetTaxRateChaos
  01abf	99		 cdq
  01ac0	52		 push	 edx
  01ac1	50		 push	 eax
  01ac2	57		 push	 edi
  01ac3	56		 push	 esi
  01ac4	e8 00 00 00 00	 call	 __allmul
  01ac9	6a 00		 push	 0
  01acb	6a 64		 push	 100			; 00000064H
  01acd	52		 push	 edx
  01ace	50		 push	 eax
  01acf	e8 00 00 00 00	 call	 __alldiv
  01ad4	89 45 d4	 mov	 DWORD PTR _iChaosTaxMoney$[ebp], eax

; 734  : 
; 735  : 	if ( iChaosTaxMoney < 0 )

  01ad7	83 7d d4 00	 cmp	 DWORD PTR _iChaosTaxMoney$[ebp], 0
  01adb	7d 07		 jge	 SHORT $LN9@DevilSquar

; 736  : 	{
; 737  : 		iChaosTaxMoney = 0;

  01add	c7 45 d4 00 00
	00 00		 mov	 DWORD PTR _iChaosTaxMoney$[ebp], 0
$LN9@DevilSquar:

; 738  : 	}
; 739  : 
; 740  : 	nChaosNeedMoney += iChaosTaxMoney;

  01ae4	8b 45 dc	 mov	 eax, DWORD PTR _nChaosNeedMoney$[ebp]
  01ae7	03 45 d4	 add	 eax, DWORD PTR _iChaosTaxMoney$[ebp]
  01aea	89 45 dc	 mov	 DWORD PTR _nChaosNeedMoney$[ebp], eax

; 741  : 
; 742  : 		nChaosNeedMoney += lpObj->m_AddMixMoney;

  01aed	8b 45 08	 mov	 eax, DWORD PTR _lpObj$[ebp]
  01af0	8b 4d dc	 mov	 ecx, DWORD PTR _nChaosNeedMoney$[ebp]
  01af3	03 88 1c 28 00
	00		 add	 ecx, DWORD PTR [eax+10268]
  01af9	89 4d dc	 mov	 DWORD PTR _nChaosNeedMoney$[ebp], ecx

; 743  : 
; 744  : 	if ( nChaosNeedMoney < 0 )

  01afc	79 07		 jns	 SHORT $LN8@DevilSquar

; 745  : 	{
; 746  : 		nChaosNeedMoney = 0;

  01afe	c7 45 dc 00 00
	00 00		 mov	 DWORD PTR _nChaosNeedMoney$[ebp], 0
$LN8@DevilSquar:

; 747  : 	}
; 748  : 
; 749  : 	if ( (lpObj->Money - nChaosNeedMoney) < 0 )

  01b05	8b 45 08	 mov	 eax, DWORD PTR _lpObj$[ebp]
  01b08	8b 88 f0 00 00
	00		 mov	 ecx, DWORD PTR [eax+240]
  01b0e	2b 4d dc	 sub	 ecx, DWORD PTR _nChaosNeedMoney$[ebp]
  01b11	79 5a		 jns	 SHORT $LN7@DevilSquar

; 750  : 	{
; 751  : 		LogAddTD("[DevilSquare] [%s][%s] CBMix Not Enough Money [%d] need zen [%d]", lpObj->AccountID, lpObj->Name, lpObj->Money, nChaosNeedMoney);

  01b13	8b 45 dc	 mov	 eax, DWORD PTR _nChaosNeedMoney$[ebp]
  01b16	50		 push	 eax
  01b17	8b 4d 08	 mov	 ecx, DWORD PTR _lpObj$[ebp]
  01b1a	8b 91 f0 00 00
	00		 mov	 edx, DWORD PTR [ecx+240]
  01b20	52		 push	 edx
  01b21	8b 45 08	 mov	 eax, DWORD PTR _lpObj$[ebp]
  01b24	83 c0 77	 add	 eax, 119		; 00000077H
  01b27	50		 push	 eax
  01b28	8b 4d 08	 mov	 ecx, DWORD PTR _lpObj$[ebp]
  01b2b	83 c1 6c	 add	 ecx, 108		; 0000006cH
  01b2e	51		 push	 ecx
  01b2f	68 00 00 00 00	 push	 OFFSET ??_C@_0EB@HHHNMGIM@?$FLDevilSquare?$FN?5?$FL?$CFs?$FN?$FL?$CFs?$FN?5CBMix?5Not@
  01b34	ff 15 00 00 00
	00		 call	 DWORD PTR ?LogAddTD@@3P6AXPADZZA ; LogAddTD
  01b3a	83 c4 14	 add	 esp, 20			; 00000014H

; 752  : 		pMsg.Result = CB_NOT_ENOUGH_ZEN;

  01b3d	c6 45 e3 02	 mov	 BYTE PTR _pMsg$[ebp+3], 2

; 753  : 		DataSend(aIndex, (LPBYTE)&pMsg, pMsg.h.size);

  01b41	0f b6 45 e1	 movzx	 eax, BYTE PTR _pMsg$[ebp+1]
  01b45	50		 push	 eax
  01b46	8d 4d e0	 lea	 ecx, DWORD PTR _pMsg$[ebp]
  01b49	51		 push	 ecx
  01b4a	8b 55 f0	 mov	 edx, DWORD PTR _aIndex$[ebp]
  01b4d	52		 push	 edx
  01b4e	e8 00 00 00 00	 call	 ?DataSend@@YAHHPAEK@Z	; DataSend
  01b53	83 c4 0c	 add	 esp, 12			; 0000000cH

; 754  : 		lpObj->ChaosLock = FALSE;

  01b56	8b 45 08	 mov	 eax, DWORD PTR _lpObj$[ebp]
  01b59	c7 80 88 0e 00
	00 00 00 00 00	 mov	 DWORD PTR [eax+3720], 0

; 755  : 		return 1;

  01b63	b8 01 00 00 00	 mov	 eax, 1
  01b68	e9 f0 01 00 00	 jmp	 $LN22@DevilSquar
$LN7@DevilSquar:

; 756  : 
; 757  : 	}
; 758  : 
; 759  : 	if ( g_CrywolfSync.GetOccupationState() == 0 && g_iCrywolfApplyMvpBenefit )

  01b6d	b9 00 00 00 00	 mov	 ecx, OFFSET ?g_CrywolfSync@@3VCCrywolfSync@@A ; g_CrywolfSync
  01b72	e8 00 00 00 00	 call	 ?GetOccupationState@CCrywolfSync@@QAEHXZ ; CCrywolfSync::GetOccupationState
  01b77	85 c0		 test	 eax, eax
  01b79	75 25		 jne	 SHORT $LN6@DevilSquar
  01b7b	83 3d 00 00 00
	00 00		 cmp	 DWORD PTR ?g_iCrywolfApplyMvpBenefit@@3HA, 0 ; g_iCrywolfApplyMvpBenefit
  01b82	74 1c		 je	 SHORT $LN6@DevilSquar

; 760  : 	{	
; 761  : 		lpObj->ChaosSuccessRate += g_CrywolfSync.GetPlusChaosRate();

  01b84	b9 00 00 00 00	 mov	 ecx, OFFSET ?g_CrywolfSync@@3VCCrywolfSync@@A ; g_CrywolfSync
  01b89	e8 00 00 00 00	 call	 ?GetPlusChaosRate@CCrywolfSync@@QAEHXZ ; CCrywolfSync::GetPlusChaosRate
  01b8e	8b 4d 08	 mov	 ecx, DWORD PTR _lpObj$[ebp]
  01b91	03 81 84 0e 00
	00		 add	 eax, DWORD PTR [ecx+3716]
  01b97	8b 55 08	 mov	 edx, DWORD PTR _lpObj$[ebp]
  01b9a	89 82 84 0e 00
	00		 mov	 DWORD PTR [edx+3716], eax
$LN6@DevilSquar:

; 762  : 	}
; 763  : 
; 764  : 	lpObj->ChaosSuccessRate += iCharmOfLuckCount;

  01ba0	8b 45 08	 mov	 eax, DWORD PTR _lpObj$[ebp]
  01ba3	8b 88 84 0e 00
	00		 mov	 ecx, DWORD PTR [eax+3716]
  01ba9	03 4d d8	 add	 ecx, DWORD PTR _iCharmOfLuckCount$[ebp]
  01bac	8b 55 08	 mov	 edx, DWORD PTR _lpObj$[ebp]
  01baf	89 8a 84 0e 00
	00		 mov	 DWORD PTR [edx+3716], ecx

; 765  : 
; 766  : 	lpObj->ChaosSuccessRate += lpObj->m_AddMixSuccessRate;

  01bb5	8b 45 08	 mov	 eax, DWORD PTR _lpObj$[ebp]
  01bb8	8b 88 84 0e 00
	00		 mov	 ecx, DWORD PTR [eax+3716]
  01bbe	8b 55 08	 mov	 edx, DWORD PTR _lpObj$[ebp]
  01bc1	03 8a 20 28 00
	00		 add	 ecx, DWORD PTR [edx+10272]
  01bc7	8b 45 08	 mov	 eax, DWORD PTR _lpObj$[ebp]
  01bca	89 88 84 0e 00
	00		 mov	 DWORD PTR [eax+3716], ecx

; 767  : 
; 768  : 
; 769  : 	int iRate = rand() % 100;

  01bd0	e8 00 00 00 00	 call	 _rand
  01bd5	99		 cdq
  01bd6	b9 64 00 00 00	 mov	 ecx, 100		; 00000064H
  01bdb	f7 f9		 idiv	 ecx
  01bdd	89 55 d0	 mov	 DWORD PTR _iRate$[ebp], edx

; 770  : 
; 771  : 	if ( bCheckType == TRUE )

  01be0	83 7d 0c 01	 cmp	 DWORD PTR _bCheckType$[ebp], 1
  01be4	75 5a		 jne	 SHORT $LN5@DevilSquar

; 772  : 	{
; 773  : 		if ( iRate < lpObj->ChaosSuccessRate )

  01be6	8b 45 08	 mov	 eax, DWORD PTR _lpObj$[ebp]
  01be9	8b 4d d0	 mov	 ecx, DWORD PTR _iRate$[ebp]
  01bec	3b 88 84 0e 00
	00		 cmp	 ecx, DWORD PTR [eax+3716]
  01bf2	7d 4c		 jge	 SHORT $LN5@DevilSquar

; 774  : 		{
; 775  : 			int DevilInv = ITEMGET(14,19);	// Devil Ticket

  01bf4	c7 45 cc 13 1c
	00 00		 mov	 DWORD PTR _DevilInv$235666[ebp], 7187 ; 00001c13H

; 776  : 			ItemSerialCreateSend(lpObj->m_Index, -1, 0, 0, DevilInv, (BYTE)iItemLevel, 0, 0, 0, 0, -1, 0, 0);

  01bfb	6a 00		 push	 0
  01bfd	6a 00		 push	 0
  01bff	6a ff		 push	 -1
  01c01	6a 00		 push	 0
  01c03	6a 00		 push	 0
  01c05	6a 00		 push	 0
  01c07	6a 00		 push	 0
  01c09	0f b6 45 10	 movzx	 eax, BYTE PTR _iItemLevel$[ebp]
  01c0d	50		 push	 eax
  01c0e	8b 4d cc	 mov	 ecx, DWORD PTR _DevilInv$235666[ebp]
  01c11	51		 push	 ecx
  01c12	6a 00		 push	 0
  01c14	6a 00		 push	 0
  01c16	68 ff 00 00 00	 push	 255			; 000000ffH
  01c1b	8b 55 08	 mov	 edx, DWORD PTR _lpObj$[ebp]
  01c1e	8b 02		 mov	 eax, DWORD PTR [edx]
  01c20	50		 push	 eax
  01c21	e8 00 00 00 00	 call	 ?ItemSerialCreateSend@@YAXHEEEHEEEEEHEE@Z ; ItemSerialCreateSend
  01c26	83 c4 34	 add	 esp, 52			; 00000034H

; 777  : #if(SYSTEM_ACHIEVEMENTS)
; 778  : 			g_Achievements.SuccessChaosMix(lpObj->m_Index);

  01c29	8b 45 08	 mov	 eax, DWORD PTR _lpObj$[ebp]
  01c2c	8b 08		 mov	 ecx, DWORD PTR [eax]
  01c2e	51		 push	 ecx
  01c2f	b9 00 00 00 00	 mov	 ecx, OFFSET ?g_Achievements@@3VCAchievements@@A ; g_Achievements
  01c34	e8 00 00 00 00	 call	 ?SuccessChaosMix@CAchievements@@QAEXH@Z ; CAchievements::SuccessChaosMix

; 779  : #endif
; 780  : 			fail = FALSE;

  01c39	c7 45 f4 00 00
	00 00		 mov	 DWORD PTR _fail$[ebp], 0
$LN5@DevilSquar:

; 781  : 		}
; 782  : 	}
; 783  : 
; 784  : 	lpObj->Money -= nChaosNeedMoney;

  01c40	8b 45 08	 mov	 eax, DWORD PTR _lpObj$[ebp]
  01c43	8b 88 f0 00 00
	00		 mov	 ecx, DWORD PTR [eax+240]
  01c49	2b 4d dc	 sub	 ecx, DWORD PTR _nChaosNeedMoney$[ebp]
  01c4c	8b 55 08	 mov	 edx, DWORD PTR _lpObj$[ebp]
  01c4f	89 8a f0 00 00
	00		 mov	 DWORD PTR [edx+240], ecx

; 785  : 	g_CastleSiegeSync.AddTributeMoney(iChaosTaxMoney);

  01c55	8b 45 d4	 mov	 eax, DWORD PTR _iChaosTaxMoney$[ebp]
  01c58	50		 push	 eax
  01c59	b9 00 00 00 00	 mov	 ecx, OFFSET ?g_CastleSiegeSync@@3VCCastleSiegeSync@@A ; g_CastleSiegeSync
  01c5e	e8 00 00 00 00	 call	 ?AddTributeMoney@CCastleSiegeSync@@QAEXH@Z ; CCastleSiegeSync::AddTributeMoney

; 786  : 	GCMoneySend(lpObj->m_Index, lpObj->Money);

  01c63	8b 45 08	 mov	 eax, DWORD PTR _lpObj$[ebp]
  01c66	8b 88 f0 00 00
	00		 mov	 ecx, DWORD PTR [eax+240]
  01c6c	51		 push	 ecx
  01c6d	8b 55 08	 mov	 edx, DWORD PTR _lpObj$[ebp]
  01c70	8b 02		 mov	 eax, DWORD PTR [edx]
  01c72	50		 push	 eax
  01c73	e8 00 00 00 00	 call	 ?GCMoneySend@@YAXHK@Z	; GCMoneySend
  01c78	83 c4 08	 add	 esp, 8

; 787  : 
; 788  : 	if ( szAuthKey[17] != AUTHKEY17 )

  01c7b	0f be 05 11 00
	00 00		 movsx	 eax, BYTE PTR ?szAuthKey@@3PADA+17
  01c82	83 f8 a6	 cmp	 eax, -90		; ffffffa6H
  01c85	74 05		 je	 SHORT $LN3@DevilSquar

; 789  : 	{
; 790  : 		::DestroyGIocp();

  01c87	e8 00 00 00 00	 call	 ?DestroyGIocp@@YAXXZ	; DestroyGIocp
$LN3@DevilSquar:

; 791  : 	}
; 792  : 
; 793  : 	if ( fail == TRUE )

  01c8c	83 7d f4 01	 cmp	 DWORD PTR _fail$[ebp], 1
  01c90	0f 85 86 00 00
	00		 jne	 $LN2@DevilSquar

; 794  : 	{
; 795  : 		this->ChaosBoxInit(lpObj);

  01c96	8b 45 08	 mov	 eax, DWORD PTR _lpObj$[ebp]
  01c99	50		 push	 eax
  01c9a	8b 4d f8	 mov	 ecx, DWORD PTR _this$[ebp]
  01c9d	e8 00 00 00 00	 call	 ?ChaosBoxInit@CMixSystem@@QAEHPAUOBJECTSTRUCT@@@Z ; CMixSystem::ChaosBoxInit

; 796  : 		GCUserChaosBoxSend(lpObj, 0);

  01ca2	6a 00		 push	 0
  01ca4	8b 45 08	 mov	 eax, DWORD PTR _lpObj$[ebp]
  01ca7	50		 push	 eax
  01ca8	e8 00 00 00 00	 call	 ?GCUserChaosBoxSend@@YAXPAUOBJECTSTRUCT@@H@Z ; GCUserChaosBoxSend
  01cad	83 c4 08	 add	 esp, 8

; 797  : 		DataSend(aIndex, (LPBYTE)&pMsg, pMsg.h.size);

  01cb0	0f b6 45 e1	 movzx	 eax, BYTE PTR _pMsg$[ebp+1]
  01cb4	50		 push	 eax
  01cb5	8d 4d e0	 lea	 ecx, DWORD PTR _pMsg$[ebp]
  01cb8	51		 push	 ecx
  01cb9	8b 55 f0	 mov	 edx, DWORD PTR _aIndex$[ebp]
  01cbc	52		 push	 edx
  01cbd	e8 00 00 00 00	 call	 ?DataSend@@YAHHPAEK@Z	; DataSend
  01cc2	83 c4 0c	 add	 esp, 12			; 0000000cH

; 798  : #if(SYSTEM_ACHIEVEMENTS)
; 799  : 		g_Achievements.FailedChaosMix(lpObj->m_Index);

  01cc5	8b 45 08	 mov	 eax, DWORD PTR _lpObj$[ebp]
  01cc8	8b 08		 mov	 ecx, DWORD PTR [eax]
  01cca	51		 push	 ecx
  01ccb	b9 00 00 00 00	 mov	 ecx, OFFSET ?g_Achievements@@3VCAchievements@@A ; g_Achievements
  01cd0	e8 00 00 00 00	 call	 ?FailedChaosMix@CAchievements@@QAEXH@Z ; CAchievements::FailedChaosMix

; 800  : #endif
; 801  : 		LogAddTD("[DevilSquare,%d] [%s][%s] CBMix Fail %d Money : %d-%d", iItemLevel, lpObj->AccountID, lpObj->Name, lpObj->ChaosSuccessRate, lpObj->Money, nChaosNeedMoney);

  01cd5	8b 45 dc	 mov	 eax, DWORD PTR _nChaosNeedMoney$[ebp]
  01cd8	50		 push	 eax
  01cd9	8b 4d 08	 mov	 ecx, DWORD PTR _lpObj$[ebp]
  01cdc	8b 91 f0 00 00
	00		 mov	 edx, DWORD PTR [ecx+240]
  01ce2	52		 push	 edx
  01ce3	8b 45 08	 mov	 eax, DWORD PTR _lpObj$[ebp]
  01ce6	8b 88 84 0e 00
	00		 mov	 ecx, DWORD PTR [eax+3716]
  01cec	51		 push	 ecx
  01ced	8b 55 08	 mov	 edx, DWORD PTR _lpObj$[ebp]
  01cf0	83 c2 77	 add	 edx, 119		; 00000077H
  01cf3	52		 push	 edx
  01cf4	8b 45 08	 mov	 eax, DWORD PTR _lpObj$[ebp]
  01cf7	83 c0 6c	 add	 eax, 108		; 0000006cH
  01cfa	50		 push	 eax
  01cfb	8b 4d 10	 mov	 ecx, DWORD PTR _iItemLevel$[ebp]
  01cfe	51		 push	 ecx
  01cff	68 00 00 00 00	 push	 OFFSET ??_C@_0DG@KKBIIBFP@?$FLDevilSquare?0?$CFd?$FN?5?$FL?$CFs?$FN?$FL?$CFs?$FN?5CBMix?5@
  01d04	ff 15 00 00 00
	00		 call	 DWORD PTR ?LogAddTD@@3P6AXPADZZA ; LogAddTD
  01d0a	83 c4 1c	 add	 esp, 28			; 0000001cH

; 802  : 		lpObj->ChaosLock = FALSE;

  01d0d	8b 45 08	 mov	 eax, DWORD PTR _lpObj$[ebp]
  01d10	c7 80 88 0e 00
	00 00 00 00 00	 mov	 DWORD PTR [eax+3720], 0

; 803  : 	}
; 804  : 	else

  01d1a	eb 2e		 jmp	 SHORT $LN1@DevilSquar
$LN2@DevilSquar:

; 805  : 	{
; 806  : 		LogAddTD("[DevilSquare,%d] [%s][%s] CBMix Success Rate:%d Money : %d", iItemLevel, lpObj->AccountID, lpObj->Name, lpObj->ChaosSuccessRate, nChaosNeedMoney);

  01d1c	8b 45 dc	 mov	 eax, DWORD PTR _nChaosNeedMoney$[ebp]
  01d1f	50		 push	 eax
  01d20	8b 4d 08	 mov	 ecx, DWORD PTR _lpObj$[ebp]
  01d23	8b 91 84 0e 00
	00		 mov	 edx, DWORD PTR [ecx+3716]
  01d29	52		 push	 edx
  01d2a	8b 45 08	 mov	 eax, DWORD PTR _lpObj$[ebp]
  01d2d	83 c0 77	 add	 eax, 119		; 00000077H
  01d30	50		 push	 eax
  01d31	8b 4d 08	 mov	 ecx, DWORD PTR _lpObj$[ebp]
  01d34	83 c1 6c	 add	 ecx, 108		; 0000006cH
  01d37	51		 push	 ecx
  01d38	8b 55 10	 mov	 edx, DWORD PTR _iItemLevel$[ebp]
  01d3b	52		 push	 edx
  01d3c	68 00 00 00 00	 push	 OFFSET ??_C@_0DL@ODHCGDBD@?$FLDevilSquare?0?$CFd?$FN?5?$FL?$CFs?$FN?$FL?$CFs?$FN?5CBMix?5@
  01d41	ff 15 00 00 00
	00		 call	 DWORD PTR ?LogAddTD@@3P6AXPADZZA ; LogAddTD
  01d47	83 c4 18	 add	 esp, 24			; 00000018H
$LN1@DevilSquar:

; 807  : 	}
; 808  : 
; 809  : 	::gObjInventoryCommit(lpObj->m_Index);

  01d4a	8b 45 08	 mov	 eax, DWORD PTR _lpObj$[ebp]
  01d4d	8b 08		 mov	 ecx, DWORD PTR [eax]
  01d4f	51		 push	 ecx
  01d50	e8 00 00 00 00	 call	 ?gObjInventoryCommit@@YAHH@Z ; gObjInventoryCommit
  01d55	83 c4 04	 add	 esp, 4

; 810  : 
; 811  : 	return TRUE;

  01d58	b8 01 00 00 00	 mov	 eax, 1
$LN22@DevilSquar:

; 812  : }

  01d5d	5f		 pop	 edi
  01d5e	5e		 pop	 esi
  01d5f	5b		 pop	 ebx
  01d60	8b 4d fc	 mov	 ecx, DWORD PTR __$ArrayPad$[ebp]
  01d63	33 cd		 xor	 ecx, ebp
  01d65	e8 00 00 00 00	 call	 @__security_check_cookie@4
  01d6a	8b e5		 mov	 esp, ebp
  01d6c	5d		 pop	 ebp
  01d6d	c2 0c 00	 ret	 12			; 0000000cH
$LN24@DevilSquar:
  01d70	00 00 00 00	 DD	 $LN18@DevilSquar
  01d74	00 00 00 00	 DD	 $LN17@DevilSquar
  01d78	00 00 00 00	 DD	 $LN16@DevilSquar
  01d7c	00 00 00 00	 DD	 $LN15@DevilSquar
  01d80	00 00 00 00	 DD	 $LN14@DevilSquar
  01d84	00 00 00 00	 DD	 $LN13@DevilSquar
  01d88	00 00 00 00	 DD	 $LN12@DevilSquar
  01d8c	00 00 00 00	 DD	 $LN11@DevilSquar
?DevilSquareEventChaosMix@CMixSystem@@QAEHPAUOBJECTSTRUCT@@HH@Z ENDP ; CMixSystem::DevilSquareEventChaosMix
_TEXT	ENDS
PUBLIC	??_C@_0DA@FMJGNMLI@?$FLDevilSquare?$FN?5Too?5many?5Devil?8s?5K@ ; `string'
PUBLIC	??_C@_0CK@JNMMBAIA@?$FLDevilSquare?$FN?5Charm?5Of?5Luck?5Over@ ; `string'
PUBLIC	??_C@_0CH@NMBMOEEC@?$FLDevilSquare?$FN?5Not?5Found?5Chaos?5Ge@ ; `string'
PUBLIC	??_C@_0DB@DMIHKADD@?$FLDevilSquare?$FN?5DiffLevel?5Devil?8s?5@ ; `string'
PUBLIC	__$ArrayPad$
PUBLIC	?DevilSquareItemChaosMix@CMixSystem@@QAEXPAUOBJECTSTRUCT@@@Z ; CMixSystem::DevilSquareItemChaosMix
EXTRN	?gDevilSquareEvent@@3HA:DWORD			; gDevilSquareEvent
;	COMDAT ??_C@_0DA@FMJGNMLI@?$FLDevilSquare?$FN?5Too?5many?5Devil?8s?5K@
CONST	SEGMENT
??_C@_0DA@FMJGNMLI@?$FLDevilSquare?$FN?5Too?5many?5Devil?8s?5K@ DB '[Devi'
	DB	'lSquare] Too many Devil''s Key or Eyes [%d]', 00H ; `string'
CONST	ENDS
;	COMDAT ??_C@_0CK@JNMMBAIA@?$FLDevilSquare?$FN?5Charm?5Of?5Luck?5Over@
CONST	SEGMENT
??_C@_0CK@JNMMBAIA@?$FLDevilSquare?$FN?5Charm?5Of?5Luck?5Over@ DB '[Devil'
	DB	'Square] Charm Of Luck Over 10% [%d]', 00H	; `string'
CONST	ENDS
;	COMDAT ??_C@_0CH@NMBMOEEC@?$FLDevilSquare?$FN?5Not?5Found?5Chaos?5Ge@
CONST	SEGMENT
??_C@_0CH@NMBMOEEC@?$FLDevilSquare?$FN?5Not?5Found?5Chaos?5Ge@ DB '[Devil'
	DB	'Square] Not Found Chaos Gem [%d]', 00H	; `string'
CONST	ENDS
;	COMDAT ??_C@_0DB@DMIHKADD@?$FLDevilSquare?$FN?5DiffLevel?5Devil?8s?5@
CONST	SEGMENT
??_C@_0DB@DMIHKADD@?$FLDevilSquare?$FN?5DiffLevel?5Devil?8s?5@ DB '[Devil'
	DB	'Square] DiffLevel Devil''s Key or Eyes [%d]', 00H ; `string'
; Function compile flags: /Odtp /ZI
CONST	ENDS
_TEXT	SEGMENT
_Ret$235685 = -40					; size = 4
_itemlevel$235684 = -36					; size = 4
_eventitemcount$235683 = -32				; size = 4
_aIndex$235682 = -28					; size = 4
_pMsg$235679 = -24					; size = 16
_this$ = -8						; size = 4
__$ArrayPad$ = -4					; size = 4
_lpObj$ = 8						; size = 4
?DevilSquareItemChaosMix@CMixSystem@@QAEXPAUOBJECTSTRUCT@@@Z PROC ; CMixSystem::DevilSquareItemChaosMix
; _this$ = ecx

; 815  : {

  01d90	55		 push	 ebp
  01d91	8b ec		 mov	 ebp, esp
  01d93	83 ec 68	 sub	 esp, 104		; 00000068H
  01d96	a1 00 00 00 00	 mov	 eax, DWORD PTR ___security_cookie
  01d9b	33 c5		 xor	 eax, ebp
  01d9d	89 45 fc	 mov	 DWORD PTR __$ArrayPad$[ebp], eax
  01da0	53		 push	 ebx
  01da1	56		 push	 esi
  01da2	57		 push	 edi
  01da3	89 4d f8	 mov	 DWORD PTR _this$[ebp], ecx

; 816  : 	lpObj->ChaosLock = TRUE;

  01da6	8b 45 08	 mov	 eax, DWORD PTR _lpObj$[ebp]
  01da9	c7 80 88 0e 00
	00 01 00 00 00	 mov	 DWORD PTR [eax+3720], 1

; 817  : //#if(GS_CASTLE==0)
; 818  : 	if ( gDevilSquareEvent != FALSE )

  01db3	83 3d 00 00 00
	00 00		 cmp	 DWORD PTR ?gDevilSquareEvent@@3HA, 0 ; gDevilSquareEvent
  01dba	0f 84 c7 01 00
	00		 je	 $LN8@DevilSquar@2

; 819  : //#endif
; 820  : 	{
; 821  : 		PMSG_CHAOSMIXRESULT pMsg;
; 822  : 		PHeadSetB((LPBYTE)&pMsg.h, 0x86, sizeof(PMSG_CHAOSMIXRESULT));

  01dc0	6a 10		 push	 16			; 00000010H
  01dc2	68 86 00 00 00	 push	 134			; 00000086H
  01dc7	8d 45 e8	 lea	 eax, DWORD PTR _pMsg$235679[ebp]
  01dca	50		 push	 eax
  01dcb	e8 00 00 00 00	 call	 ?PHeadSetB@@YAXPAEEH@Z	; PHeadSetB
  01dd0	83 c4 0c	 add	 esp, 12			; 0000000cH

; 823  : 		pMsg.Result = CB_ERROR;

  01dd3	c6 45 eb 00	 mov	 BYTE PTR _pMsg$235679[ebp+3], 0

; 824  : 		int aIndex = lpObj->m_Index;

  01dd7	8b 45 08	 mov	 eax, DWORD PTR _lpObj$[ebp]
  01dda	8b 08		 mov	 ecx, DWORD PTR [eax]
  01ddc	89 4d e4	 mov	 DWORD PTR _aIndex$235682[ebp], ecx

; 825  : 		int eventitemcount;
; 826  : 		int itemlevel;
; 827  : 		int Ret = this->CheckDevilSquareItem(lpObj, eventitemcount, itemlevel);

  01ddf	8d 45 dc	 lea	 eax, DWORD PTR _itemlevel$235684[ebp]
  01de2	50		 push	 eax
  01de3	8d 4d e0	 lea	 ecx, DWORD PTR _eventitemcount$235683[ebp]
  01de6	51		 push	 ecx
  01de7	8b 55 08	 mov	 edx, DWORD PTR _lpObj$[ebp]
  01dea	52		 push	 edx
  01deb	8b 4d f8	 mov	 ecx, DWORD PTR _this$[ebp]
  01dee	e8 00 00 00 00	 call	 ?CheckDevilSquareItem@CMixSystem@@QAEHPAUOBJECTSTRUCT@@AAH1@Z ; CMixSystem::CheckDevilSquareItem
  01df3	89 45 d8	 mov	 DWORD PTR _Ret$235685[ebp], eax

; 828  : 
; 829  : 		if ( Ret != FALSE )

  01df6	83 7d d8 00	 cmp	 DWORD PTR _Ret$235685[ebp], 0
  01dfa	0f 84 59 01 00
	00		 je	 $LN7@DevilSquar@2

; 830  : 		{
; 831  : 			if ( Ret == 3 )

  01e00	83 7d d8 03	 cmp	 DWORD PTR _Ret$235685[ebp], 3
  01e04	75 3d		 jne	 SHORT $LN6@DevilSquar@2

; 832  : 			{
; 833  : 				pMsg.Result = CB_INCORRECT_MIX_ITEMS;

  01e06	c6 45 eb 07	 mov	 BYTE PTR _pMsg$235679[ebp+3], 7

; 834  : 				DataSend(aIndex, (LPBYTE)&pMsg, pMsg.h.size);

  01e0a	0f b6 45 e9	 movzx	 eax, BYTE PTR _pMsg$235679[ebp+1]
  01e0e	50		 push	 eax
  01e0f	8d 4d e8	 lea	 ecx, DWORD PTR _pMsg$235679[ebp]
  01e12	51		 push	 ecx
  01e13	8b 55 e4	 mov	 edx, DWORD PTR _aIndex$235682[ebp]
  01e16	52		 push	 edx
  01e17	e8 00 00 00 00	 call	 ?DataSend@@YAHHPAEK@Z	; DataSend
  01e1c	83 c4 0c	 add	 esp, 12			; 0000000cH

; 835  : 				LogAdd("[DevilSquare] DiffLevel Devil's Key or Eyes [%d]", eventitemcount);

  01e1f	8b 45 e0	 mov	 eax, DWORD PTR _eventitemcount$235683[ebp]
  01e22	50		 push	 eax
  01e23	68 00 00 00 00	 push	 OFFSET ??_C@_0DB@DMIHKADD@?$FLDevilSquare?$FN?5DiffLevel?5Devil?8s?5@
  01e28	ff 15 00 00 00
	00		 call	 DWORD PTR ?LogAdd@@3P6AXPADZZA ; LogAdd
  01e2e	83 c4 08	 add	 esp, 8

; 836  : 				lpObj->ChaosLock = FALSE;

  01e31	8b 45 08	 mov	 eax, DWORD PTR _lpObj$[ebp]
  01e34	c7 80 88 0e 00
	00 00 00 00 00	 mov	 DWORD PTR [eax+3720], 0

; 837  : 
; 838  : 				return;

  01e3e	e9 51 01 00 00	 jmp	 $LN9@DevilSquar@2
$LN6@DevilSquar@2:

; 839  : 			}
; 840  : 			
; 841  : 			if ( Ret == 2 )

  01e43	83 7d d8 02	 cmp	 DWORD PTR _Ret$235685[ebp], 2
  01e47	75 3d		 jne	 SHORT $LN5@DevilSquar@2

; 842  : 			{
; 843  : 				pMsg.Result = CB_INCORRECT_MIX_ITEMS;

  01e49	c6 45 eb 07	 mov	 BYTE PTR _pMsg$235679[ebp+3], 7

; 844  : 				DataSend(aIndex, (LPBYTE)&pMsg, pMsg.h.size);

  01e4d	0f b6 45 e9	 movzx	 eax, BYTE PTR _pMsg$235679[ebp+1]
  01e51	50		 push	 eax
  01e52	8d 4d e8	 lea	 ecx, DWORD PTR _pMsg$235679[ebp]
  01e55	51		 push	 ecx
  01e56	8b 55 e4	 mov	 edx, DWORD PTR _aIndex$235682[ebp]
  01e59	52		 push	 edx
  01e5a	e8 00 00 00 00	 call	 ?DataSend@@YAHHPAEK@Z	; DataSend
  01e5f	83 c4 0c	 add	 esp, 12			; 0000000cH

; 845  : 				LogAdd("[DevilSquare] Not Found Chaos Gem [%d]", eventitemcount);

  01e62	8b 45 e0	 mov	 eax, DWORD PTR _eventitemcount$235683[ebp]
  01e65	50		 push	 eax
  01e66	68 00 00 00 00	 push	 OFFSET ??_C@_0CH@NMBMOEEC@?$FLDevilSquare?$FN?5Not?5Found?5Chaos?5Ge@
  01e6b	ff 15 00 00 00
	00		 call	 DWORD PTR ?LogAdd@@3P6AXPADZZA ; LogAdd
  01e71	83 c4 08	 add	 esp, 8

; 846  : 				lpObj->ChaosLock = FALSE;

  01e74	8b 45 08	 mov	 eax, DWORD PTR _lpObj$[ebp]
  01e77	c7 80 88 0e 00
	00 00 00 00 00	 mov	 DWORD PTR [eax+3720], 0

; 847  : 				
; 848  : 				return;

  01e81	e9 0e 01 00 00	 jmp	 $LN9@DevilSquar@2
$LN5@DevilSquar@2:

; 849  : 			}
; 850  : 
; 851  : 			if ( Ret == 4 )

  01e86	83 7d d8 04	 cmp	 DWORD PTR _Ret$235685[ebp], 4
  01e8a	75 3d		 jne	 SHORT $LN4@DevilSquar@2

; 852  : 			{
; 853  : 				pMsg.Result = 0xF0;

  01e8c	c6 45 eb f0	 mov	 BYTE PTR _pMsg$235679[ebp+3], 240 ; 000000f0H

; 854  : 				DataSend(aIndex, (LPBYTE)&pMsg, pMsg.h.size);

  01e90	0f b6 45 e9	 movzx	 eax, BYTE PTR _pMsg$235679[ebp+1]
  01e94	50		 push	 eax
  01e95	8d 4d e8	 lea	 ecx, DWORD PTR _pMsg$235679[ebp]
  01e98	51		 push	 ecx
  01e99	8b 55 e4	 mov	 edx, DWORD PTR _aIndex$235682[ebp]
  01e9c	52		 push	 edx
  01e9d	e8 00 00 00 00	 call	 ?DataSend@@YAHHPAEK@Z	; DataSend
  01ea2	83 c4 0c	 add	 esp, 12			; 0000000cH

; 855  : 				LogAdd("[DevilSquare] Charm Of Luck Over 10% [%d]", eventitemcount);

  01ea5	8b 45 e0	 mov	 eax, DWORD PTR _eventitemcount$235683[ebp]
  01ea8	50		 push	 eax
  01ea9	68 00 00 00 00	 push	 OFFSET ??_C@_0CK@JNMMBAIA@?$FLDevilSquare?$FN?5Charm?5Of?5Luck?5Over@
  01eae	ff 15 00 00 00
	00		 call	 DWORD PTR ?LogAdd@@3P6AXPADZZA ; LogAdd
  01eb4	83 c4 08	 add	 esp, 8

; 856  : 				lpObj->ChaosLock = FALSE;

  01eb7	8b 45 08	 mov	 eax, DWORD PTR _lpObj$[ebp]
  01eba	c7 80 88 0e 00
	00 00 00 00 00	 mov	 DWORD PTR [eax+3720], 0

; 857  : 				
; 858  : 				return;

  01ec4	e9 cb 00 00 00	 jmp	 $LN9@DevilSquar@2
$LN4@DevilSquar@2:

; 859  : 			}
; 860  : 
; 861  : 			
; 862  : 			if ( eventitemcount > 2 )

  01ec9	83 7d e0 02	 cmp	 DWORD PTR _eventitemcount$235683[ebp], 2
  01ecd	7e 3d		 jle	 SHORT $LN3@DevilSquar@2

; 863  : 			{
; 864  : 				pMsg.Result = CB_TOO_MANY_ITEMS;

  01ecf	c6 45 eb 03	 mov	 BYTE PTR _pMsg$235679[ebp+3], 3

; 865  : 				DataSend(aIndex, (LPBYTE)&pMsg, pMsg.h.size);

  01ed3	0f b6 45 e9	 movzx	 eax, BYTE PTR _pMsg$235679[ebp+1]
  01ed7	50		 push	 eax
  01ed8	8d 4d e8	 lea	 ecx, DWORD PTR _pMsg$235679[ebp]
  01edb	51		 push	 ecx
  01edc	8b 55 e4	 mov	 edx, DWORD PTR _aIndex$235682[ebp]
  01edf	52		 push	 edx
  01ee0	e8 00 00 00 00	 call	 ?DataSend@@YAHHPAEK@Z	; DataSend
  01ee5	83 c4 0c	 add	 esp, 12			; 0000000cH

; 866  : 				LogAdd("[DevilSquare] Too many Devil's Key or Eyes [%d]", eventitemcount);

  01ee8	8b 45 e0	 mov	 eax, DWORD PTR _eventitemcount$235683[ebp]
  01eeb	50		 push	 eax
  01eec	68 00 00 00 00	 push	 OFFSET ??_C@_0DA@FMJGNMLI@?$FLDevilSquare?$FN?5Too?5many?5Devil?8s?5K@
  01ef1	ff 15 00 00 00
	00		 call	 DWORD PTR ?LogAdd@@3P6AXPADZZA ; LogAdd
  01ef7	83 c4 08	 add	 esp, 8

; 867  : 				lpObj->ChaosLock = FALSE;

  01efa	8b 45 08	 mov	 eax, DWORD PTR _lpObj$[ebp]
  01efd	c7 80 88 0e 00
	00 00 00 00 00	 mov	 DWORD PTR [eax+3720], 0

; 868  : 
; 869  : 				return;

  01f07	e9 88 00 00 00	 jmp	 $LN9@DevilSquar@2
$LN3@DevilSquar@2:

; 870  : 			}
; 871  : 
; 872  : 			if ( lpObj->Level < 10 )

  01f0c	8b 45 08	 mov	 eax, DWORD PTR _lpObj$[ebp]
  01f0f	0f bf 88 be 00
	00 00		 movsx	 ecx, WORD PTR [eax+190]
  01f16	83 f9 0a	 cmp	 ecx, 10			; 0000000aH
  01f19	7d 28		 jge	 SHORT $LN2@DevilSquar@2

; 873  : 			{
; 874  : 				pMsg.Result = CB_LOW_LEVEL_USER;

  01f1b	c6 45 eb 04	 mov	 BYTE PTR _pMsg$235679[ebp+3], 4

; 875  : 				DataSend(aIndex, (LPBYTE)&pMsg, pMsg.h.size);

  01f1f	0f b6 45 e9	 movzx	 eax, BYTE PTR _pMsg$235679[ebp+1]
  01f23	50		 push	 eax
  01f24	8d 4d e8	 lea	 ecx, DWORD PTR _pMsg$235679[ebp]
  01f27	51		 push	 ecx
  01f28	8b 55 e4	 mov	 edx, DWORD PTR _aIndex$235682[ebp]
  01f2b	52		 push	 edx
  01f2c	e8 00 00 00 00	 call	 ?DataSend@@YAHHPAEK@Z	; DataSend
  01f31	83 c4 0c	 add	 esp, 12			; 0000000cH

; 876  : 				lpObj->ChaosLock = FALSE;

  01f34	8b 45 08	 mov	 eax, DWORD PTR _lpObj$[ebp]
  01f37	c7 80 88 0e 00
	00 00 00 00 00	 mov	 DWORD PTR [eax+3720], 0

; 877  : 
; 878  : 				return;

  01f41	eb 51		 jmp	 SHORT $LN9@DevilSquar@2
$LN2@DevilSquar@2:

; 879  : 			}
; 880  : 
; 881  : 			this->DevilSquareEventChaosMix(lpObj, Ret, itemlevel);

  01f43	8b 45 dc	 mov	 eax, DWORD PTR _itemlevel$235684[ebp]
  01f46	50		 push	 eax
  01f47	8b 4d d8	 mov	 ecx, DWORD PTR _Ret$235685[ebp]
  01f4a	51		 push	 ecx
  01f4b	8b 55 08	 mov	 edx, DWORD PTR _lpObj$[ebp]
  01f4e	52		 push	 edx
  01f4f	8b 4d f8	 mov	 ecx, DWORD PTR _this$[ebp]
  01f52	e8 00 00 00 00	 call	 ?DevilSquareEventChaosMix@CMixSystem@@QAEHPAUOBJECTSTRUCT@@HH@Z ; CMixSystem::DevilSquareEventChaosMix

; 882  : 			return;

  01f57	eb 3b		 jmp	 SHORT $LN9@DevilSquar@2
$LN7@DevilSquar@2:

; 883  : 		}
; 884  : 		
; 885  : 		if ( eventitemcount > 1 )

  01f59	83 7d e0 01	 cmp	 DWORD PTR _eventitemcount$235683[ebp], 1
  01f5d	7e 28		 jle	 SHORT $LN8@DevilSquar@2

; 886  : 		{
; 887  : 			pMsg.Result = CB_LACKING_MIX_ITEMS;

  01f5f	c6 45 eb 06	 mov	 BYTE PTR _pMsg$235679[ebp+3], 6

; 888  : 			DataSend(aIndex, (LPBYTE)&pMsg, pMsg.h.size);

  01f63	0f b6 45 e9	 movzx	 eax, BYTE PTR _pMsg$235679[ebp+1]
  01f67	50		 push	 eax
  01f68	8d 4d e8	 lea	 ecx, DWORD PTR _pMsg$235679[ebp]
  01f6b	51		 push	 ecx
  01f6c	8b 55 e4	 mov	 edx, DWORD PTR _aIndex$235682[ebp]
  01f6f	52		 push	 edx
  01f70	e8 00 00 00 00	 call	 ?DataSend@@YAHHPAEK@Z	; DataSend
  01f75	83 c4 0c	 add	 esp, 12			; 0000000cH

; 889  : 			lpObj->ChaosLock = FALSE;

  01f78	8b 45 08	 mov	 eax, DWORD PTR _lpObj$[ebp]
  01f7b	c7 80 88 0e 00
	00 00 00 00 00	 mov	 DWORD PTR [eax+3720], 0

; 890  : 
; 891  : 			return;

  01f85	eb 0d		 jmp	 SHORT $LN9@DevilSquar@2
$LN8@DevilSquar@2:

; 892  : 		}
; 893  : 	}
; 894  : 
; 895  : 	lpObj->ChaosLock = FALSE;

  01f87	8b 45 08	 mov	 eax, DWORD PTR _lpObj$[ebp]
  01f8a	c7 80 88 0e 00
	00 00 00 00 00	 mov	 DWORD PTR [eax+3720], 0
$LN9@DevilSquar@2:

; 896  : }

  01f94	5f		 pop	 edi
  01f95	5e		 pop	 esi
  01f96	5b		 pop	 ebx
  01f97	8b 4d fc	 mov	 ecx, DWORD PTR __$ArrayPad$[ebp]
  01f9a	33 cd		 xor	 ecx, ebp
  01f9c	e8 00 00 00 00	 call	 @__security_check_cookie@4
  01fa1	8b e5		 mov	 esp, ebp
  01fa3	5d		 pop	 ebp
  01fa4	c2 04 00	 ret	 4
?DevilSquareItemChaosMix@CMixSystem@@QAEXPAUOBJECTSTRUCT@@@Z ENDP ; CMixSystem::DevilSquareItemChaosMix
_TEXT	ENDS
PUBLIC	??_C@_0HO@CHNLGIIN@?$FLPlusItemLevel?0?$CFd?$FN?5?$FL?$CFs?$FN?$FL?$CFs?$FN?5CBMi@ ; `string'
PUBLIC	__$ArrayPad$
PUBLIC	?LogPlusItemLevelChaosItem@CMixSystem@@QAEXPAUOBJECTSTRUCT@@H@Z ; CMixSystem::LogPlusItemLevelChaosItem
;	COMDAT ??_C@_0HO@CHNLGIIN@?$FLPlusItemLevel?0?$CFd?$FN?5?$FL?$CFs?$FN?$FL?$CFs?$FN?5CBMi@
CONST	SEGMENT
??_C@_0HO@CHNLGIIN@?$FLPlusItemLevel?0?$CFd?$FN?5?$FL?$CFs?$FN?$FL?$CFs?$FN?5CBMi@ DB '['
	DB	'PlusItemLevel,%d] [%s][%s] CBMix [%d,%s,%d,%d,%d,%d]serial:[%'
	DB	'u][%d] Ex:[%d,%d,%d,%d,%d,%d,%d] Set:[%d] 380Ex:[%d] HO:[%d,%'
	DB	'd]', 00H					; `string'
; Function compile flags: /Odtp /ZI
CONST	ENDS
_TEXT	SEGMENT
_n$235710 = -24						; size = 4
_ExOption$ = -20					; size = 8
_iMixLevel$ = -12					; size = 4
_this$ = -8						; size = 4
__$ArrayPad$ = -4					; size = 4
_lpObj$ = 8						; size = 4
_iPlusMixLevel$ = 12					; size = 4
?LogPlusItemLevelChaosItem@CMixSystem@@QAEXPAUOBJECTSTRUCT@@H@Z PROC ; CMixSystem::LogPlusItemLevelChaosItem
; _this$ = ecx

; 899  : {

  01fb0	55		 push	 ebp
  01fb1	8b ec		 mov	 ebp, esp
  01fb3	83 ec 58	 sub	 esp, 88			; 00000058H
  01fb6	a1 00 00 00 00	 mov	 eax, DWORD PTR ___security_cookie
  01fbb	33 c5		 xor	 eax, ebp
  01fbd	89 45 fc	 mov	 DWORD PTR __$ArrayPad$[ebp], eax
  01fc0	53		 push	 ebx
  01fc1	56		 push	 esi
  01fc2	57		 push	 edi
  01fc3	89 4d f8	 mov	 DWORD PTR _this$[ebp], ecx

; 900  : 	int iMixLevel = 0;

  01fc6	c7 45 f4 00 00
	00 00		 mov	 DWORD PTR _iMixLevel$[ebp], 0

; 901  : 	BYTE ExOption[MAX_EXOPTION_SIZE];
; 902  : 
; 903  : 	for ( int n=0;n<CHAOS_BOX_SIZE;n++)

  01fcd	c7 45 e8 00 00
	00 00		 mov	 DWORD PTR _n$235710[ebp], 0
  01fd4	eb 09		 jmp	 SHORT $LN15@LogPlusIte
$LN14@LogPlusIte:
  01fd6	8b 45 e8	 mov	 eax, DWORD PTR _n$235710[ebp]
  01fd9	83 c0 01	 add	 eax, 1
  01fdc	89 45 e8	 mov	 DWORD PTR _n$235710[ebp], eax
$LN15@LogPlusIte:
  01fdf	83 7d e8 20	 cmp	 DWORD PTR _n$235710[ebp], 32 ; 00000020H
  01fe3	0f 8d 11 02 00
	00		 jge	 $LN13@LogPlusIte

; 904  : 	{
; 905  : 		if ( lpObj->pChaosBox[n].IsItem() == TRUE )

  01fe9	8b 4d e8	 mov	 ecx, DWORD PTR _n$235710[ebp]
  01fec	69 c9 d4 00 00
	00		 imul	 ecx, 212		; 000000d4H
  01ff2	8b 45 08	 mov	 eax, DWORD PTR _lpObj$[ebp]
  01ff5	03 88 78 0e 00
	00		 add	 ecx, DWORD PTR [eax+3704]
  01ffb	e8 00 00 00 00	 call	 ?IsItem@CItem@@QAEHXZ	; CItem::IsItem
  02000	83 f8 01	 cmp	 eax, 1
  02003	0f 85 ec 01 00
	00		 jne	 $LN12@LogPlusIte

; 906  : 		{
; 907  : 			::ItemIsBufExOption(ExOption, &lpObj->pChaosBox[n]);

  02009	8b 45 e8	 mov	 eax, DWORD PTR _n$235710[ebp]
  0200c	69 c0 d4 00 00
	00		 imul	 eax, 212		; 000000d4H
  02012	8b 4d 08	 mov	 ecx, DWORD PTR _lpObj$[ebp]
  02015	03 81 78 0e 00
	00		 add	 eax, DWORD PTR [ecx+3704]
  0201b	50		 push	 eax
  0201c	8d 55 ec	 lea	 edx, DWORD PTR _ExOption$[ebp]
  0201f	52		 push	 edx
  02020	e8 00 00 00 00	 call	 ?ItemIsBufExOption@@YAXPAEPAVCItem@@@Z ; ItemIsBufExOption
  02025	83 c4 08	 add	 esp, 8

; 908  : 
; 909  : 			if ( iPlusMixLevel == 3 )

  02028	83 7d 0c 03	 cmp	 DWORD PTR _iPlusMixLevel$[ebp], 3
  0202c	75 09		 jne	 SHORT $LN11@LogPlusIte

; 910  : 				iMixLevel = 1;

  0202e	c7 45 f4 01 00
	00 00		 mov	 DWORD PTR _iMixLevel$[ebp], 1
  02035	eb 49		 jmp	 SHORT $LN1@LogPlusIte
$LN11@LogPlusIte:

; 911  : 			else if ( iPlusMixLevel == 4 )

  02037	83 7d 0c 04	 cmp	 DWORD PTR _iPlusMixLevel$[ebp], 4
  0203b	75 09		 jne	 SHORT $LN9@LogPlusIte

; 912  : 				iMixLevel = 2;

  0203d	c7 45 f4 02 00
	00 00		 mov	 DWORD PTR _iMixLevel$[ebp], 2
  02044	eb 3a		 jmp	 SHORT $LN1@LogPlusIte
$LN9@LogPlusIte:

; 913  : 			else if ( iPlusMixLevel == 22 )

  02046	83 7d 0c 16	 cmp	 DWORD PTR _iPlusMixLevel$[ebp], 22 ; 00000016H
  0204a	75 09		 jne	 SHORT $LN7@LogPlusIte

; 914  : 				iMixLevel = 3;

  0204c	c7 45 f4 03 00
	00 00		 mov	 DWORD PTR _iMixLevel$[ebp], 3
  02053	eb 2b		 jmp	 SHORT $LN1@LogPlusIte
$LN7@LogPlusIte:

; 915  : 			else if ( iPlusMixLevel == 23 )

  02055	83 7d 0c 17	 cmp	 DWORD PTR _iPlusMixLevel$[ebp], 23 ; 00000017H
  02059	75 09		 jne	 SHORT $LN5@LogPlusIte

; 916  : 				iMixLevel = 4;

  0205b	c7 45 f4 04 00
	00 00		 mov	 DWORD PTR _iMixLevel$[ebp], 4
  02062	eb 1c		 jmp	 SHORT $LN1@LogPlusIte
$LN5@LogPlusIte:

; 917  : 			else if ( iPlusMixLevel == 49 )	//updated 1.01.00

  02064	83 7d 0c 31	 cmp	 DWORD PTR _iPlusMixLevel$[ebp], 49 ; 00000031H
  02068	75 09		 jne	 SHORT $LN3@LogPlusIte

; 918  : 				iMixLevel = 5;

  0206a	c7 45 f4 05 00
	00 00		 mov	 DWORD PTR _iMixLevel$[ebp], 5
  02071	eb 0d		 jmp	 SHORT $LN1@LogPlusIte
$LN3@LogPlusIte:

; 919  : 			else if ( iPlusMixLevel == 50 )

  02073	83 7d 0c 32	 cmp	 DWORD PTR _iPlusMixLevel$[ebp], 50 ; 00000032H
  02077	75 07		 jne	 SHORT $LN1@LogPlusIte

; 920  : 				iMixLevel = 6;

  02079	c7 45 f4 06 00
	00 00		 mov	 DWORD PTR _iMixLevel$[ebp], 6
$LN1@LogPlusIte:

; 921  : 
; 922  : 			LogAddTD("[PlusItemLevel,%d] [%s][%s] CBMix [%d,%s,%d,%d,%d,%d]serial:[%u][%d] Ex:[%d,%d,%d,%d,%d,%d,%d] Set:[%d] 380Ex:[%d] HO:[%d,%d]", iMixLevel,
; 923  : 				lpObj->AccountID, lpObj->Name, n, lpObj->pChaosBox[n].GetName(), lpObj->pChaosBox[n].m_Level,
; 924  : 				lpObj->pChaosBox[n].m_Option1, lpObj->pChaosBox[n].m_Option2, lpObj->pChaosBox[n].m_Option3, 
; 925  : 				lpObj->pChaosBox[n].m_Number, (int)lpObj->pChaosBox[n].m_Durability, 
; 926  : 				ExOption[0], ExOption[1], ExOption[2], ExOption[3], ExOption[4], ExOption[5], ExOption[6], lpObj->pChaosBox[n].m_SetOption,
; 927  : 				lpObj->pChaosBox[n].m_ItemOptionEx >> 7,
; 928  : 				g_kJewelOfHarmonySystem.GetItemOptionLevel(&lpObj->pChaosBox[n]),
; 929  : 				g_kJewelOfHarmonySystem.GetItemStrengthenOption(&lpObj->pChaosBox[n]));

  02080	8b 45 e8	 mov	 eax, DWORD PTR _n$235710[ebp]
  02083	69 c0 d4 00 00
	00		 imul	 eax, 212		; 000000d4H
  02089	8b 4d 08	 mov	 ecx, DWORD PTR _lpObj$[ebp]
  0208c	03 81 78 0e 00
	00		 add	 eax, DWORD PTR [ecx+3704]
  02092	50		 push	 eax
  02093	b9 00 00 00 00	 mov	 ecx, OFFSET ?g_kJewelOfHarmonySystem@@3VCJewelOfHarmonySystem@@A ; g_kJewelOfHarmonySystem
  02098	e8 00 00 00 00	 call	 ?GetItemStrengthenOption@CJewelOfHarmonySystem@@QAEEPAVCItem@@@Z ; CJewelOfHarmonySystem::GetItemStrengthenOption
  0209d	0f b6 d0	 movzx	 edx, al
  020a0	52		 push	 edx
  020a1	8b 45 e8	 mov	 eax, DWORD PTR _n$235710[ebp]
  020a4	69 c0 d4 00 00
	00		 imul	 eax, 212		; 000000d4H
  020aa	8b 4d 08	 mov	 ecx, DWORD PTR _lpObj$[ebp]
  020ad	03 81 78 0e 00
	00		 add	 eax, DWORD PTR [ecx+3704]
  020b3	50		 push	 eax
  020b4	b9 00 00 00 00	 mov	 ecx, OFFSET ?g_kJewelOfHarmonySystem@@3VCJewelOfHarmonySystem@@A ; g_kJewelOfHarmonySystem
  020b9	e8 00 00 00 00	 call	 ?GetItemOptionLevel@CJewelOfHarmonySystem@@QAEEPAVCItem@@@Z ; CJewelOfHarmonySystem::GetItemOptionLevel
  020be	0f b6 d0	 movzx	 edx, al
  020c1	52		 push	 edx
  020c2	8b 45 e8	 mov	 eax, DWORD PTR _n$235710[ebp]
  020c5	69 c0 d4 00 00
	00		 imul	 eax, 212		; 000000d4H
  020cb	8b 4d 08	 mov	 ecx, DWORD PTR _lpObj$[ebp]
  020ce	8b 91 78 0e 00
	00		 mov	 edx, DWORD PTR [ecx+3704]
  020d4	0f b6 84 02 ca
	00 00 00	 movzx	 eax, BYTE PTR [edx+eax+202]
  020dc	c1 f8 07	 sar	 eax, 7
  020df	50		 push	 eax
  020e0	8b 4d e8	 mov	 ecx, DWORD PTR _n$235710[ebp]
  020e3	69 c9 d4 00 00
	00		 imul	 ecx, 212		; 000000d4H
  020e9	8b 55 08	 mov	 edx, DWORD PTR _lpObj$[ebp]
  020ec	8b 82 78 0e 00
	00		 mov	 eax, DWORD PTR [edx+3704]
  020f2	0f b6 8c 08 ae
	00 00 00	 movzx	 ecx, BYTE PTR [eax+ecx+174]
  020fa	51		 push	 ecx
  020fb	0f b6 55 f2	 movzx	 edx, BYTE PTR _ExOption$[ebp+6]
  020ff	52		 push	 edx
  02100	0f b6 45 f1	 movzx	 eax, BYTE PTR _ExOption$[ebp+5]
  02104	50		 push	 eax
  02105	0f b6 4d f0	 movzx	 ecx, BYTE PTR _ExOption$[ebp+4]
  02109	51		 push	 ecx
  0210a	0f b6 55 ef	 movzx	 edx, BYTE PTR _ExOption$[ebp+3]
  0210e	52		 push	 edx
  0210f	0f b6 45 ee	 movzx	 eax, BYTE PTR _ExOption$[ebp+2]
  02113	50		 push	 eax
  02114	0f b6 4d ed	 movzx	 ecx, BYTE PTR _ExOption$[ebp+1]
  02118	51		 push	 ecx
  02119	0f b6 55 ec	 movzx	 edx, BYTE PTR _ExOption$[ebp]
  0211d	52		 push	 edx
  0211e	8b 45 e8	 mov	 eax, DWORD PTR _n$235710[ebp]
  02121	69 c0 d4 00 00
	00		 imul	 eax, 212		; 000000d4H
  02127	8b 4d 08	 mov	 ecx, DWORD PTR _lpObj$[ebp]
  0212a	8b 91 78 0e 00
	00		 mov	 edx, DWORD PTR [ecx+3704]
  02130	d9 44 02 24	 fld	 DWORD PTR [edx+eax+36]
  02134	e8 00 00 00 00	 call	 __ftol2_sse
  02139	50		 push	 eax
  0213a	8b 45 e8	 mov	 eax, DWORD PTR _n$235710[ebp]
  0213d	69 c0 d4 00 00
	00		 imul	 eax, 212		; 000000d4H
  02143	8b 4d 08	 mov	 ecx, DWORD PTR _lpObj$[ebp]
  02146	8b 91 78 0e 00
	00		 mov	 edx, DWORD PTR [ecx+3704]
  0214c	8b 04 02	 mov	 eax, DWORD PTR [edx+eax]
  0214f	50		 push	 eax
  02150	8b 4d e8	 mov	 ecx, DWORD PTR _n$235710[ebp]
  02153	69 c9 d4 00 00
	00		 imul	 ecx, 212		; 000000d4H
  02159	8b 55 08	 mov	 edx, DWORD PTR _lpObj$[ebp]
  0215c	8b 82 78 0e 00
	00		 mov	 eax, DWORD PTR [edx+3704]
  02162	0f b6 8c 08 96
	00 00 00	 movzx	 ecx, BYTE PTR [eax+ecx+150]
  0216a	51		 push	 ecx
  0216b	8b 55 e8	 mov	 edx, DWORD PTR _n$235710[ebp]
  0216e	69 d2 d4 00 00
	00		 imul	 edx, 212		; 000000d4H
  02174	8b 45 08	 mov	 eax, DWORD PTR _lpObj$[ebp]
  02177	8b 88 78 0e 00
	00		 mov	 ecx, DWORD PTR [eax+3704]
  0217d	0f b6 94 11 95
	00 00 00	 movzx	 edx, BYTE PTR [ecx+edx+149]
  02185	52		 push	 edx
  02186	8b 45 e8	 mov	 eax, DWORD PTR _n$235710[ebp]
  02189	69 c0 d4 00 00
	00		 imul	 eax, 212		; 000000d4H
  0218f	8b 4d 08	 mov	 ecx, DWORD PTR _lpObj$[ebp]
  02192	8b 91 78 0e 00
	00		 mov	 edx, DWORD PTR [ecx+3704]
  02198	0f b6 84 02 94
	00 00 00	 movzx	 eax, BYTE PTR [edx+eax+148]
  021a0	50		 push	 eax
  021a1	8b 4d e8	 mov	 ecx, DWORD PTR _n$235710[ebp]
  021a4	69 c9 d4 00 00
	00		 imul	 ecx, 212		; 000000d4H
  021aa	8b 55 08	 mov	 edx, DWORD PTR _lpObj$[ebp]
  021ad	8b 82 78 0e 00
	00		 mov	 eax, DWORD PTR [edx+3704]
  021b3	0f bf 4c 08 08	 movsx	 ecx, WORD PTR [eax+ecx+8]
  021b8	51		 push	 ecx
  021b9	8b 4d e8	 mov	 ecx, DWORD PTR _n$235710[ebp]
  021bc	69 c9 d4 00 00
	00		 imul	 ecx, 212		; 000000d4H
  021c2	8b 55 08	 mov	 edx, DWORD PTR _lpObj$[ebp]
  021c5	03 8a 78 0e 00
	00		 add	 ecx, DWORD PTR [edx+3704]
  021cb	e8 00 00 00 00	 call	 ?GetName@CItem@@QAEPADXZ ; CItem::GetName
  021d0	50		 push	 eax
  021d1	8b 45 e8	 mov	 eax, DWORD PTR _n$235710[ebp]
  021d4	50		 push	 eax
  021d5	8b 4d 08	 mov	 ecx, DWORD PTR _lpObj$[ebp]
  021d8	83 c1 77	 add	 ecx, 119		; 00000077H
  021db	51		 push	 ecx
  021dc	8b 55 08	 mov	 edx, DWORD PTR _lpObj$[ebp]
  021df	83 c2 6c	 add	 edx, 108		; 0000006cH
  021e2	52		 push	 edx
  021e3	8b 45 f4	 mov	 eax, DWORD PTR _iMixLevel$[ebp]
  021e6	50		 push	 eax
  021e7	68 00 00 00 00	 push	 OFFSET ??_C@_0HO@CHNLGIIN@?$FLPlusItemLevel?0?$CFd?$FN?5?$FL?$CFs?$FN?$FL?$CFs?$FN?5CBMi@
  021ec	ff 15 00 00 00
	00		 call	 DWORD PTR ?LogAddTD@@3P6AXPADZZA ; LogAddTD
  021f2	83 c4 5c	 add	 esp, 92			; 0000005cH
$LN12@LogPlusIte:

; 930  : 		}
; 931  : 	}

  021f5	e9 dc fd ff ff	 jmp	 $LN14@LogPlusIte
$LN13@LogPlusIte:

; 932  : }

  021fa	5f		 pop	 edi
  021fb	5e		 pop	 esi
  021fc	5b		 pop	 ebx
  021fd	8b 4d fc	 mov	 ecx, DWORD PTR __$ArrayPad$[ebp]
  02200	33 cd		 xor	 ecx, ebp
  02202	e8 00 00 00 00	 call	 @__security_check_cookie@4
  02207	8b e5		 mov	 esp, ebp
  02209	5d		 pop	 ebp
  0220a	c2 08 00	 ret	 8
?LogPlusItemLevelChaosItem@CMixSystem@@QAEXPAUOBJECTSTRUCT@@H@Z ENDP ; CMixSystem::LogPlusItemLevelChaosItem
_TEXT	ENDS
PUBLIC	??_C@_0IF@FONACAKJ@?$FL?$CFs?$FN?5?$FL?$CFs?$FN?$FL?$CFs?$FN?5CBMix?5?$FL?$CFd?0?$CFs?0?$CFd?0?$CFd@ ; `string'
PUBLIC	__$ArrayPad$
PUBLIC	?LogChaosItem@CMixSystem@@QAEXPAUOBJECTSTRUCT@@PAD@Z ; CMixSystem::LogChaosItem
;	COMDAT ??_C@_0IF@FONACAKJ@?$FL?$CFs?$FN?5?$FL?$CFs?$FN?$FL?$CFs?$FN?5CBMix?5?$FL?$CFd?0?$CFs?0?$CFd?0?$CFd@
CONST	SEGMENT
??_C@_0IF@FONACAKJ@?$FL?$CFs?$FN?5?$FL?$CFs?$FN?$FL?$CFs?$FN?5CBMix?5?$FL?$CFd?0?$CFs?0?$CFd?0?$CFd@ DB '['
	DB	'%s] [%s][%s] CBMix [%d,%s,%d,%d,%d,%d]serial:[%u][%d] Ex:[%d,'
	DB	'%d,%d,%d,%d,%d,%d] Set:[%d] 380:[%d] HO:[%d,%d] Socket[%d,%d,'
	DB	'%d,%d,%d]', 00H				; `string'
; Function compile flags: /Odtp /ZI
CONST	ENDS
_TEXT	SEGMENT
_n$235734 = -20						; size = 4
_ExOption$ = -16					; size = 8
_this$ = -8						; size = 4
__$ArrayPad$ = -4					; size = 4
_lpObj$ = 8						; size = 4
_sLogType$ = 12						; size = 4
?LogChaosItem@CMixSystem@@QAEXPAUOBJECTSTRUCT@@PAD@Z PROC ; CMixSystem::LogChaosItem
; _this$ = ecx

; 935  : {

  02210	55		 push	 ebp
  02211	8b ec		 mov	 ebp, esp
  02213	83 ec 54	 sub	 esp, 84			; 00000054H
  02216	a1 00 00 00 00	 mov	 eax, DWORD PTR ___security_cookie
  0221b	33 c5		 xor	 eax, ebp
  0221d	89 45 fc	 mov	 DWORD PTR __$ArrayPad$[ebp], eax
  02220	53		 push	 ebx
  02221	56		 push	 esi
  02222	57		 push	 edi
  02223	89 4d f8	 mov	 DWORD PTR _this$[ebp], ecx

; 936  : 	BYTE ExOption[MAX_EXOPTION_SIZE];
; 937  : 
; 938  : 	for ( int n=0;n<CHAOS_BOX_SIZE;n++)

  02226	c7 45 ec 00 00
	00 00		 mov	 DWORD PTR _n$235734[ebp], 0
  0222d	eb 09		 jmp	 SHORT $LN4@LogChaosIt
$LN3@LogChaosIt:
  0222f	8b 45 ec	 mov	 eax, DWORD PTR _n$235734[ebp]
  02232	83 c0 01	 add	 eax, 1
  02235	89 45 ec	 mov	 DWORD PTR _n$235734[ebp], eax
$LN4@LogChaosIt:
  02238	83 7d ec 20	 cmp	 DWORD PTR _n$235734[ebp], 32 ; 00000020H
  0223c	0f 8d 40 02 00
	00		 jge	 $LN2@LogChaosIt

; 939  : 	{
; 940  : 		if ( lpObj->pChaosBox[n].IsItem() == TRUE )

  02242	8b 4d ec	 mov	 ecx, DWORD PTR _n$235734[ebp]
  02245	69 c9 d4 00 00
	00		 imul	 ecx, 212		; 000000d4H
  0224b	8b 45 08	 mov	 eax, DWORD PTR _lpObj$[ebp]
  0224e	03 88 78 0e 00
	00		 add	 ecx, DWORD PTR [eax+3704]
  02254	e8 00 00 00 00	 call	 ?IsItem@CItem@@QAEHXZ	; CItem::IsItem
  02259	83 f8 01	 cmp	 eax, 1
  0225c	0f 85 1b 02 00
	00		 jne	 $LN1@LogChaosIt

; 941  : 		{
; 942  : 			::ItemIsBufExOption(ExOption, &lpObj->pChaosBox[n]);

  02262	8b 45 ec	 mov	 eax, DWORD PTR _n$235734[ebp]
  02265	69 c0 d4 00 00
	00		 imul	 eax, 212		; 000000d4H
  0226b	8b 4d 08	 mov	 ecx, DWORD PTR _lpObj$[ebp]
  0226e	03 81 78 0e 00
	00		 add	 eax, DWORD PTR [ecx+3704]
  02274	50		 push	 eax
  02275	8d 55 f0	 lea	 edx, DWORD PTR _ExOption$[ebp]
  02278	52		 push	 edx
  02279	e8 00 00 00 00	 call	 ?ItemIsBufExOption@@YAXPAEPAVCItem@@@Z ; ItemIsBufExOption
  0227e	83 c4 08	 add	 esp, 8

; 943  : 
; 944  : 			LogAddTD("[%s] [%s][%s] CBMix [%d,%s,%d,%d,%d,%d]serial:[%u][%d] Ex:[%d,%d,%d,%d,%d,%d,%d] Set:[%d] 380:[%d] HO:[%d,%d] Socket[%d,%d,%d,%d,%d]",
; 945  : 				sLogType, lpObj->AccountID, lpObj->Name, n, lpObj->pChaosBox[n].GetName(), lpObj->pChaosBox[n].m_Level,
; 946  : 				lpObj->pChaosBox[n].m_Option1, lpObj->pChaosBox[n].m_Option2, lpObj->pChaosBox[n].m_Option3, 
; 947  : 				lpObj->pChaosBox[n].m_Number, (int)lpObj->pChaosBox[n].m_Durability, 
; 948  : 				ExOption[0], ExOption[1], ExOption[2], ExOption[3], ExOption[4], ExOption[5], ExOption[6], lpObj->pChaosBox[n].m_SetOption,
; 949  : 				lpObj->pChaosBox[n].m_ItemOptionEx >> 7,
; 950  : 				g_kJewelOfHarmonySystem.GetItemStrengthenOption(&lpObj->pChaosBox[n]),
; 951  : 				g_kJewelOfHarmonySystem.GetItemOptionLevel(&lpObj->pChaosBox[n]),
; 952  : 				//season4 add-on
; 953  : 				lpObj->pChaosBox[n].m_SocketOption[0],
; 954  : 				lpObj->pChaosBox[n].m_SocketOption[1],
; 955  : 				lpObj->pChaosBox[n].m_SocketOption[2],
; 956  : 				lpObj->pChaosBox[n].m_SocketOption[3],
; 957  : 				lpObj->pChaosBox[n].m_SocketOption[4]);

  02281	8b 45 ec	 mov	 eax, DWORD PTR _n$235734[ebp]
  02284	69 c0 d4 00 00
	00		 imul	 eax, 212		; 000000d4H
  0228a	8b 4d 08	 mov	 ecx, DWORD PTR _lpObj$[ebp]
  0228d	8b 91 78 0e 00
	00		 mov	 edx, DWORD PTR [ecx+3704]
  02293	0f b6 84 02 d0
	00 00 00	 movzx	 eax, BYTE PTR [edx+eax+208]
  0229b	50		 push	 eax
  0229c	8b 4d ec	 mov	 ecx, DWORD PTR _n$235734[ebp]
  0229f	69 c9 d4 00 00
	00		 imul	 ecx, 212		; 000000d4H
  022a5	8b 55 08	 mov	 edx, DWORD PTR _lpObj$[ebp]
  022a8	8b 82 78 0e 00
	00		 mov	 eax, DWORD PTR [edx+3704]
  022ae	0f b6 8c 08 cf
	00 00 00	 movzx	 ecx, BYTE PTR [eax+ecx+207]
  022b6	51		 push	 ecx
  022b7	8b 55 ec	 mov	 edx, DWORD PTR _n$235734[ebp]
  022ba	69 d2 d4 00 00
	00		 imul	 edx, 212		; 000000d4H
  022c0	8b 45 08	 mov	 eax, DWORD PTR _lpObj$[ebp]
  022c3	8b 88 78 0e 00
	00		 mov	 ecx, DWORD PTR [eax+3704]
  022c9	0f b6 94 11 ce
	00 00 00	 movzx	 edx, BYTE PTR [ecx+edx+206]
  022d1	52		 push	 edx
  022d2	8b 45 ec	 mov	 eax, DWORD PTR _n$235734[ebp]
  022d5	69 c0 d4 00 00
	00		 imul	 eax, 212		; 000000d4H
  022db	8b 4d 08	 mov	 ecx, DWORD PTR _lpObj$[ebp]
  022de	8b 91 78 0e 00
	00		 mov	 edx, DWORD PTR [ecx+3704]
  022e4	0f b6 84 02 cd
	00 00 00	 movzx	 eax, BYTE PTR [edx+eax+205]
  022ec	50		 push	 eax
  022ed	8b 4d ec	 mov	 ecx, DWORD PTR _n$235734[ebp]
  022f0	69 c9 d4 00 00
	00		 imul	 ecx, 212		; 000000d4H
  022f6	8b 55 08	 mov	 edx, DWORD PTR _lpObj$[ebp]
  022f9	8b 82 78 0e 00
	00		 mov	 eax, DWORD PTR [edx+3704]
  022ff	0f b6 8c 08 cc
	00 00 00	 movzx	 ecx, BYTE PTR [eax+ecx+204]
  02307	51		 push	 ecx
  02308	8b 55 ec	 mov	 edx, DWORD PTR _n$235734[ebp]
  0230b	69 d2 d4 00 00
	00		 imul	 edx, 212		; 000000d4H
  02311	8b 45 08	 mov	 eax, DWORD PTR _lpObj$[ebp]
  02314	03 90 78 0e 00
	00		 add	 edx, DWORD PTR [eax+3704]
  0231a	52		 push	 edx
  0231b	b9 00 00 00 00	 mov	 ecx, OFFSET ?g_kJewelOfHarmonySystem@@3VCJewelOfHarmonySystem@@A ; g_kJewelOfHarmonySystem
  02320	e8 00 00 00 00	 call	 ?GetItemOptionLevel@CJewelOfHarmonySystem@@QAEEPAVCItem@@@Z ; CJewelOfHarmonySystem::GetItemOptionLevel
  02325	0f b6 c8	 movzx	 ecx, al
  02328	51		 push	 ecx
  02329	8b 55 ec	 mov	 edx, DWORD PTR _n$235734[ebp]
  0232c	69 d2 d4 00 00
	00		 imul	 edx, 212		; 000000d4H
  02332	8b 45 08	 mov	 eax, DWORD PTR _lpObj$[ebp]
  02335	03 90 78 0e 00
	00		 add	 edx, DWORD PTR [eax+3704]
  0233b	52		 push	 edx
  0233c	b9 00 00 00 00	 mov	 ecx, OFFSET ?g_kJewelOfHarmonySystem@@3VCJewelOfHarmonySystem@@A ; g_kJewelOfHarmonySystem
  02341	e8 00 00 00 00	 call	 ?GetItemStrengthenOption@CJewelOfHarmonySystem@@QAEEPAVCItem@@@Z ; CJewelOfHarmonySystem::GetItemStrengthenOption
  02346	0f b6 c8	 movzx	 ecx, al
  02349	51		 push	 ecx
  0234a	8b 55 ec	 mov	 edx, DWORD PTR _n$235734[ebp]
  0234d	69 d2 d4 00 00
	00		 imul	 edx, 212		; 000000d4H
  02353	8b 45 08	 mov	 eax, DWORD PTR _lpObj$[ebp]
  02356	8b 88 78 0e 00
	00		 mov	 ecx, DWORD PTR [eax+3704]
  0235c	0f b6 94 11 ca
	00 00 00	 movzx	 edx, BYTE PTR [ecx+edx+202]
  02364	c1 fa 07	 sar	 edx, 7
  02367	52		 push	 edx
  02368	8b 45 ec	 mov	 eax, DWORD PTR _n$235734[ebp]
  0236b	69 c0 d4 00 00
	00		 imul	 eax, 212		; 000000d4H
  02371	8b 4d 08	 mov	 ecx, DWORD PTR _lpObj$[ebp]
  02374	8b 91 78 0e 00
	00		 mov	 edx, DWORD PTR [ecx+3704]
  0237a	0f b6 84 02 ae
	00 00 00	 movzx	 eax, BYTE PTR [edx+eax+174]
  02382	50		 push	 eax
  02383	0f b6 4d f6	 movzx	 ecx, BYTE PTR _ExOption$[ebp+6]
  02387	51		 push	 ecx
  02388	0f b6 55 f5	 movzx	 edx, BYTE PTR _ExOption$[ebp+5]
  0238c	52		 push	 edx
  0238d	0f b6 45 f4	 movzx	 eax, BYTE PTR _ExOption$[ebp+4]
  02391	50		 push	 eax
  02392	0f b6 4d f3	 movzx	 ecx, BYTE PTR _ExOption$[ebp+3]
  02396	51		 push	 ecx
  02397	0f b6 55 f2	 movzx	 edx, BYTE PTR _ExOption$[ebp+2]
  0239b	52		 push	 edx
  0239c	0f b6 45 f1	 movzx	 eax, BYTE PTR _ExOption$[ebp+1]
  023a0	50		 push	 eax
  023a1	0f b6 4d f0	 movzx	 ecx, BYTE PTR _ExOption$[ebp]
  023a5	51		 push	 ecx
  023a6	8b 55 ec	 mov	 edx, DWORD PTR _n$235734[ebp]
  023a9	69 d2 d4 00 00
	00		 imul	 edx, 212		; 000000d4H
  023af	8b 45 08	 mov	 eax, DWORD PTR _lpObj$[ebp]
  023b2	8b 88 78 0e 00
	00		 mov	 ecx, DWORD PTR [eax+3704]
  023b8	d9 44 11 24	 fld	 DWORD PTR [ecx+edx+36]
  023bc	e8 00 00 00 00	 call	 __ftol2_sse
  023c1	50		 push	 eax
  023c2	8b 55 ec	 mov	 edx, DWORD PTR _n$235734[ebp]
  023c5	69 d2 d4 00 00
	00		 imul	 edx, 212		; 000000d4H
  023cb	8b 45 08	 mov	 eax, DWORD PTR _lpObj$[ebp]
  023ce	8b 88 78 0e 00
	00		 mov	 ecx, DWORD PTR [eax+3704]
  023d4	8b 14 11	 mov	 edx, DWORD PTR [ecx+edx]
  023d7	52		 push	 edx
  023d8	8b 45 ec	 mov	 eax, DWORD PTR _n$235734[ebp]
  023db	69 c0 d4 00 00
	00		 imul	 eax, 212		; 000000d4H
  023e1	8b 4d 08	 mov	 ecx, DWORD PTR _lpObj$[ebp]
  023e4	8b 91 78 0e 00
	00		 mov	 edx, DWORD PTR [ecx+3704]
  023ea	0f b6 84 02 96
	00 00 00	 movzx	 eax, BYTE PTR [edx+eax+150]
  023f2	50		 push	 eax
  023f3	8b 4d ec	 mov	 ecx, DWORD PTR _n$235734[ebp]
  023f6	69 c9 d4 00 00
	00		 imul	 ecx, 212		; 000000d4H
  023fc	8b 55 08	 mov	 edx, DWORD PTR _lpObj$[ebp]
  023ff	8b 82 78 0e 00
	00		 mov	 eax, DWORD PTR [edx+3704]
  02405	0f b6 8c 08 95
	00 00 00	 movzx	 ecx, BYTE PTR [eax+ecx+149]
  0240d	51		 push	 ecx
  0240e	8b 55 ec	 mov	 edx, DWORD PTR _n$235734[ebp]
  02411	69 d2 d4 00 00
	00		 imul	 edx, 212		; 000000d4H
  02417	8b 45 08	 mov	 eax, DWORD PTR _lpObj$[ebp]
  0241a	8b 88 78 0e 00
	00		 mov	 ecx, DWORD PTR [eax+3704]
  02420	0f b6 94 11 94
	00 00 00	 movzx	 edx, BYTE PTR [ecx+edx+148]
  02428	52		 push	 edx
  02429	8b 45 ec	 mov	 eax, DWORD PTR _n$235734[ebp]
  0242c	69 c0 d4 00 00
	00		 imul	 eax, 212		; 000000d4H
  02432	8b 4d 08	 mov	 ecx, DWORD PTR _lpObj$[ebp]
  02435	8b 91 78 0e 00
	00		 mov	 edx, DWORD PTR [ecx+3704]
  0243b	0f bf 44 02 08	 movsx	 eax, WORD PTR [edx+eax+8]
  02440	50		 push	 eax
  02441	8b 4d ec	 mov	 ecx, DWORD PTR _n$235734[ebp]
  02444	69 c9 d4 00 00
	00		 imul	 ecx, 212		; 000000d4H
  0244a	8b 55 08	 mov	 edx, DWORD PTR _lpObj$[ebp]
  0244d	03 8a 78 0e 00
	00		 add	 ecx, DWORD PTR [edx+3704]
  02453	e8 00 00 00 00	 call	 ?GetName@CItem@@QAEPADXZ ; CItem::GetName
  02458	50		 push	 eax
  02459	8b 45 ec	 mov	 eax, DWORD PTR _n$235734[ebp]
  0245c	50		 push	 eax
  0245d	8b 4d 08	 mov	 ecx, DWORD PTR _lpObj$[ebp]
  02460	83 c1 77	 add	 ecx, 119		; 00000077H
  02463	51		 push	 ecx
  02464	8b 55 08	 mov	 edx, DWORD PTR _lpObj$[ebp]
  02467	83 c2 6c	 add	 edx, 108		; 0000006cH
  0246a	52		 push	 edx
  0246b	8b 45 0c	 mov	 eax, DWORD PTR _sLogType$[ebp]
  0246e	50		 push	 eax
  0246f	68 00 00 00 00	 push	 OFFSET ??_C@_0IF@FONACAKJ@?$FL?$CFs?$FN?5?$FL?$CFs?$FN?$FL?$CFs?$FN?5CBMix?5?$FL?$CFd?0?$CFs?0?$CFd?0?$CFd@
  02474	ff 15 00 00 00
	00		 call	 DWORD PTR ?LogAddTD@@3P6AXPADZZA ; LogAddTD
  0247a	83 c4 70	 add	 esp, 112		; 00000070H
$LN1@LogChaosIt:

; 958  : 		}
; 959  : 	}

  0247d	e9 ad fd ff ff	 jmp	 $LN3@LogChaosIt
$LN2@LogChaosIt:

; 960  : }

  02482	5f		 pop	 edi
  02483	5e		 pop	 esi
  02484	5b		 pop	 ebx
  02485	8b 4d fc	 mov	 ecx, DWORD PTR __$ArrayPad$[ebp]
  02488	33 cd		 xor	 ecx, ebp
  0248a	e8 00 00 00 00	 call	 @__security_check_cookie@4
  0248f	8b e5		 mov	 esp, ebp
  02491	5d		 pop	 ebp
  02492	c2 08 00	 ret	 8
?LogChaosItem@CMixSystem@@QAEXPAUOBJECTSTRUCT@@PAD@Z ENDP ; CMixSystem::LogChaosItem
_TEXT	ENDS
PUBLIC	??_C@_0EK@JJBHLEGP@?$FLPlusItemLevel?$FN?5?$FL?$CFs?$FN?$FL?$CFs?$FN?5CBMix?5F@ ; `string'
PUBLIC	?BreakItemOption@CMixSystem@@QAEXPAUOBJECTSTRUCT@@@Z ; CMixSystem::BreakItemOption
PUBLIC	??_C@_0EN@NDGFLPHI@?$FLPlusItemLevel?$FN?5?$FL?$CFs?$FN?$FL?$CFs?$FN?5CBMix?5S@ ; `string'
PUBLIC	??_C@_0ED@HJNGDDFB@?$FLPlusItemLevel?$FN?5?$FL?$CFs?$FN?$FL?$CFs?$FN?5CBMix?5N@ ; `string'
PUBLIC	??_C@_0CA@BGIGBHFB@?$FLPlusItemLevel?$FN?5Chaos?5Mix?5Start?$AA@ ; `string'
PUBLIC	??_C@_0DL@KGOODEAG@?$FLPlusItemLevel?$FN?5?$FL?$CFs?$FN?$FL?$CFs?$FN?5CBMix?5C@ ; `string'
PUBLIC	__$ArrayPad$
PUBLIC	?PlusItemLevelChaosMix@CMixSystem@@QAEHPAUOBJECTSTRUCT@@H@Z ; CMixSystem::PlusItemLevelChaosMix
EXTRN	?gObjChaosItemSet@@YAXHHE@Z:PROC		; gObjChaosItemSet
EXTRN	?gObjChaosBoxInsertItemPos@@YAEHVCItem@@HH@Z:PROC ; gObjChaosBoxInsertItemPos
EXTRN	?ItemByteConvert@@YAXPAEVCItem@@@Z:PROC		; ItemByteConvert
EXTRN	?GetActiveSocketOption@CSocketOption@@QAEXPAVCItem@@PAEAAE@Z:PROC ; CSocketOption::GetActiveSocketOption
EXTRN	?IsSocketOption@CSocketOption@@QAEEPAVCItem@@@Z:PROC ; CSocketOption::IsSocketOption
EXTRN	?g_SocketOption@@3VCSocketOption@@A:BYTE	; g_SocketOption
EXTRN	?Is380Item@CItemSystemFor380@@QAEHPBVCItem@@@Z:PROC ; CItemSystemFor380::Is380Item
EXTRN	?g_kItemSystemFor380@@3VCItemSystemFor380@@A:BYTE ; g_kItemSystemFor380
;	COMDAT ??_C@_0EK@JJBHLEGP@?$FLPlusItemLevel?$FN?5?$FL?$CFs?$FN?$FL?$CFs?$FN?5CBMix?5F@
CONST	SEGMENT
??_C@_0EK@JJBHLEGP@?$FLPlusItemLevel?$FN?5?$FL?$CFs?$FN?$FL?$CFs?$FN?5CBMix?5F@ DB '['
	DB	'PlusItemLevel] [%s][%s] CBMix Fail %d Money : %d-%d [%d], Cha'
	DB	'rmRate : %d', 00H				; `string'
CONST	ENDS
;	COMDAT ??_C@_0EN@NDGFLPHI@?$FLPlusItemLevel?$FN?5?$FL?$CFs?$FN?$FL?$CFs?$FN?5CBMix?5S@
CONST	SEGMENT
??_C@_0EN@NDGFLPHI@?$FLPlusItemLevel?$FN?5?$FL?$CFs?$FN?$FL?$CFs?$FN?5CBMix?5S@ DB '['
	DB	'PlusItemLevel] [%s][%s] CBMix Success %d Money : %d-%d [%d], '
	DB	'CharmRate : %d', 00H			; `string'
CONST	ENDS
;	COMDAT ??_C@_0ED@HJNGDDFB@?$FLPlusItemLevel?$FN?5?$FL?$CFs?$FN?$FL?$CFs?$FN?5CBMix?5N@
CONST	SEGMENT
??_C@_0ED@HJNGDDFB@?$FLPlusItemLevel?$FN?5?$FL?$CFs?$FN?$FL?$CFs?$FN?5CBMix?5N@ DB '['
	DB	'PlusItemLevel] [%s][%s] CBMix Not Enough Money [%d] need zen '
	DB	'[%d]', 00H					; `string'
CONST	ENDS
;	COMDAT ??_C@_0CA@BGIGBHFB@?$FLPlusItemLevel?$FN?5Chaos?5Mix?5Start?$AA@
CONST	SEGMENT
??_C@_0CA@BGIGBHFB@?$FLPlusItemLevel?$FN?5Chaos?5Mix?5Start?$AA@ DB '[Plu'
	DB	'sItemLevel] Chaos Mix Start', 00H		; `string'
CONST	ENDS
;	COMDAT ??_C@_0DL@KGOODEAG@?$FLPlusItemLevel?$FN?5?$FL?$CFs?$FN?$FL?$CFs?$FN?5CBMix?5C@
CONST	SEGMENT
??_C@_0DL@KGOODEAG@?$FLPlusItemLevel?$FN?5?$FL?$CFs?$FN?$FL?$CFs?$FN?5CBMix?5C@ DB '['
	DB	'PlusItemLevel] [%s][%s] CBMix Charm of luck over 10% (%d)', 00H ; `string'
; Function compile flags: /Odtp /ZI
CONST	ENDS
_TEXT	SEGMENT
tv1189 = -440						; size = 4
tv474 = -440						; size = 4
tv459 = -440						; size = 4
tv444 = -440						; size = 4
tv429 = -440						; size = 4
_FailLevel$235897 = -372				; size = 4
_SocketIndex$235891 = -365				; size = 1
_SocketOption$235890 = -364				; size = 5
_Dur$235888 = -356					; size = 4
_Item$235887 = -352					; size = 212
_btMixLevel$ = -137					; size = 1
_iChaosTaxMoney$ = -136					; size = 4
_pMsg$ = -132						; size = 16
_MixType$ = -116					; size = 4
_pResult$235798 = -112					; size = 16
_pResult$235792 = -96					; size = 16
_n$235763 = -80						; size = 4
_btItemLuckValue$ = -73					; size = 1
_iCharmOfLuckCount$ = -72				; size = 4
_iCharmOfAssemblyCount$ = -68				; size = 4
_ExtraSoulGemCount$ = -64				; size = 4
_ExtraBlessGemCount$ = -60				; size = 4
_Plus15ItemCount$ = -56					; size = 4
_Plus14ItemCount$ = -52					; size = 4
_Plus13ItemCount$ = -48					; size = 4
_Plus12ItemCount$ = -44					; size = 4
_Plus11ItemCount$ = -40					; size = 4
_OtherItemFound$ = -36					; size = 4
_PlusItemPos$ = -32					; size = 4
_Plus10ItemCount$ = -28					; size = 4
_Plus9ItemCount$ = -24					; size = 4
_SoulGemCount$ = -20					; size = 4
_BlessGemCount$ = -16					; size = 4
_ChaosGemCount$ = -12					; size = 4
_this$ = -8						; size = 4
__$ArrayPad$ = -4					; size = 4
_lpObj$ = 8						; size = 4
_mixType$ = 12						; size = 4
?PlusItemLevelChaosMix@CMixSystem@@QAEHPAUOBJECTSTRUCT@@H@Z PROC ; CMixSystem::PlusItemLevelChaosMix
; _this$ = ecx

; 963  : {

  024a0	55		 push	 ebp
  024a1	8b ec		 mov	 ebp, esp
  024a3	81 ec b8 01 00
	00		 sub	 esp, 440		; 000001b8H
  024a9	a1 00 00 00 00	 mov	 eax, DWORD PTR ___security_cookie
  024ae	33 c5		 xor	 eax, ebp
  024b0	89 45 fc	 mov	 DWORD PTR __$ArrayPad$[ebp], eax
  024b3	53		 push	 ebx
  024b4	56		 push	 esi
  024b5	57		 push	 edi
  024b6	89 4d f8	 mov	 DWORD PTR _this$[ebp], ecx

; 964  : 	int ChaosGemCount = 0;

  024b9	c7 45 f4 00 00
	00 00		 mov	 DWORD PTR _ChaosGemCount$[ebp], 0

; 965  : 	int BlessGemCount = 0;

  024c0	c7 45 f0 00 00
	00 00		 mov	 DWORD PTR _BlessGemCount$[ebp], 0

; 966  : 	int SoulGemCount = 0;

  024c7	c7 45 ec 00 00
	00 00		 mov	 DWORD PTR _SoulGemCount$[ebp], 0

; 967  : 	int Plus9ItemCount = 0;

  024ce	c7 45 e8 00 00
	00 00		 mov	 DWORD PTR _Plus9ItemCount$[ebp], 0

; 968  : 	int Plus10ItemCount = 0;

  024d5	c7 45 e4 00 00
	00 00		 mov	 DWORD PTR _Plus10ItemCount$[ebp], 0

; 969  : 	int PlusItemPos = -1;

  024dc	c7 45 e0 ff ff
	ff ff		 mov	 DWORD PTR _PlusItemPos$[ebp], -1

; 970  : 	int OtherItemFound = 0;

  024e3	c7 45 dc 00 00
	00 00		 mov	 DWORD PTR _OtherItemFound$[ebp], 0

; 971  : 	int Plus11ItemCount = 0;

  024ea	c7 45 d8 00 00
	00 00		 mov	 DWORD PTR _Plus11ItemCount$[ebp], 0

; 972  : 	int Plus12ItemCount = 0;

  024f1	c7 45 d4 00 00
	00 00		 mov	 DWORD PTR _Plus12ItemCount$[ebp], 0

; 973  : 	int Plus13ItemCount = 0;	//Season 5 +15 Items

  024f8	c7 45 d0 00 00
	00 00		 mov	 DWORD PTR _Plus13ItemCount$[ebp], 0

; 974  : 	int Plus14ItemCount = 0;	//Season 5 +15 Items

  024ff	c7 45 cc 00 00
	00 00		 mov	 DWORD PTR _Plus14ItemCount$[ebp], 0

; 975  : 	int Plus15ItemCount = 0;	//Season 5 +15 Items

  02506	c7 45 c8 00 00
	00 00		 mov	 DWORD PTR _Plus15ItemCount$[ebp], 0

; 976  : 	int ExtraBlessGemCount = 0;

  0250d	c7 45 c4 00 00
	00 00		 mov	 DWORD PTR _ExtraBlessGemCount$[ebp], 0

; 977  : 	int ExtraSoulGemCount = 0;

  02514	c7 45 c0 00 00
	00 00		 mov	 DWORD PTR _ExtraSoulGemCount$[ebp], 0

; 978  : 
; 979  : 	int iCharmOfAssemblyCount = 0; //season3.5 add-on

  0251b	c7 45 bc 00 00
	00 00		 mov	 DWORD PTR _iCharmOfAssemblyCount$[ebp], 0

; 980  : 	int iCharmOfLuckCount = 0;

  02522	c7 45 b8 00 00
	00 00		 mov	 DWORD PTR _iCharmOfLuckCount$[ebp], 0

; 981  : 	
; 982  : 	BYTE btItemLuckValue = 0;

  02529	c6 45 b7 00	 mov	 BYTE PTR _btItemLuckValue$[ebp], 0

; 983  : 
; 984  : 	for ( int n=0;n<CHAOS_BOX_SIZE;n++)

  0252d	c7 45 b0 00 00
	00 00		 mov	 DWORD PTR _n$235763[ebp], 0
  02534	eb 09		 jmp	 SHORT $LN109@PlusItemLe
$LN108@PlusItemLe:
  02536	8b 45 b0	 mov	 eax, DWORD PTR _n$235763[ebp]
  02539	83 c0 01	 add	 eax, 1
  0253c	89 45 b0	 mov	 DWORD PTR _n$235763[ebp], eax
$LN109@PlusItemLe:
  0253f	83 7d b0 20	 cmp	 DWORD PTR _n$235763[ebp], 32 ; 00000020H
  02543	0f 8d 39 02 00
	00		 jge	 $LN107@PlusItemLe

; 985  : 	{
; 986  : 		if ( lpObj->pChaosBox[n].IsItem() == TRUE )

  02549	8b 4d b0	 mov	 ecx, DWORD PTR _n$235763[ebp]
  0254c	69 c9 d4 00 00
	00		 imul	 ecx, 212		; 000000d4H
  02552	8b 45 08	 mov	 eax, DWORD PTR _lpObj$[ebp]
  02555	03 88 78 0e 00
	00		 add	 ecx, DWORD PTR [eax+3704]
  0255b	e8 00 00 00 00	 call	 ?IsItem@CItem@@QAEHXZ	; CItem::IsItem
  02560	83 f8 01	 cmp	 eax, 1
  02563	0f 85 14 02 00
	00		 jne	 $LN84@PlusItemLe

; 987  : 		{
; 988  : 			if ( lpObj->pChaosBox[n].m_Type == ITEMGET(12,15) )

  02569	8b 45 b0	 mov	 eax, DWORD PTR _n$235763[ebp]
  0256c	69 c0 d4 00 00
	00		 imul	 eax, 212		; 000000d4H
  02572	8b 4d 08	 mov	 ecx, DWORD PTR _lpObj$[ebp]
  02575	8b 91 78 0e 00
	00		 mov	 edx, DWORD PTR [ecx+3704]
  0257b	0f bf 44 02 06	 movsx	 eax, WORD PTR [edx+eax+6]
  02580	3d 0f 18 00 00	 cmp	 eax, 6159		; 0000180fH
  02585	75 0e		 jne	 SHORT $LN105@PlusItemLe

; 989  : 			{
; 990  : 				ChaosGemCount++;

  02587	8b 45 f4	 mov	 eax, DWORD PTR _ChaosGemCount$[ebp]
  0258a	83 c0 01	 add	 eax, 1
  0258d	89 45 f4	 mov	 DWORD PTR _ChaosGemCount$[ebp], eax
  02590	e9 e8 01 00 00	 jmp	 $LN84@PlusItemLe
$LN105@PlusItemLe:

; 991  : 			}
; 992  : 			else if (  lpObj->pChaosBox[n].m_Type == ITEMGET(14,13) )

  02595	8b 45 b0	 mov	 eax, DWORD PTR _n$235763[ebp]
  02598	69 c0 d4 00 00
	00		 imul	 eax, 212		; 000000d4H
  0259e	8b 4d 08	 mov	 ecx, DWORD PTR _lpObj$[ebp]
  025a1	8b 91 78 0e 00
	00		 mov	 edx, DWORD PTR [ecx+3704]
  025a7	0f bf 44 02 06	 movsx	 eax, WORD PTR [edx+eax+6]
  025ac	3d 0d 1c 00 00	 cmp	 eax, 7181		; 00001c0dH
  025b1	75 0e		 jne	 SHORT $LN103@PlusItemLe

; 993  : 			{
; 994  : 				BlessGemCount++;

  025b3	8b 45 f0	 mov	 eax, DWORD PTR _BlessGemCount$[ebp]
  025b6	83 c0 01	 add	 eax, 1
  025b9	89 45 f0	 mov	 DWORD PTR _BlessGemCount$[ebp], eax
  025bc	e9 bc 01 00 00	 jmp	 $LN84@PlusItemLe
$LN103@PlusItemLe:

; 995  : 			}
; 996  : 			else if (  lpObj->pChaosBox[n].m_Type == ITEMGET(14,14) )

  025c1	8b 45 b0	 mov	 eax, DWORD PTR _n$235763[ebp]
  025c4	69 c0 d4 00 00
	00		 imul	 eax, 212		; 000000d4H
  025ca	8b 4d 08	 mov	 ecx, DWORD PTR _lpObj$[ebp]
  025cd	8b 91 78 0e 00
	00		 mov	 edx, DWORD PTR [ecx+3704]
  025d3	0f bf 44 02 06	 movsx	 eax, WORD PTR [edx+eax+6]
  025d8	3d 0e 1c 00 00	 cmp	 eax, 7182		; 00001c0eH
  025dd	75 0e		 jne	 SHORT $LN101@PlusItemLe

; 997  : 			{
; 998  : 				SoulGemCount++;

  025df	8b 45 ec	 mov	 eax, DWORD PTR _SoulGemCount$[ebp]
  025e2	83 c0 01	 add	 eax, 1
  025e5	89 45 ec	 mov	 DWORD PTR _SoulGemCount$[ebp], eax
  025e8	e9 90 01 00 00	 jmp	 $LN84@PlusItemLe
$LN101@PlusItemLe:

; 999  : 			}
; 1000 : 			else if ( lpObj->pChaosBox[n].m_Type == ITEMGET(14,53) )	// Charm Of Luck

  025ed	8b 45 b0	 mov	 eax, DWORD PTR _n$235763[ebp]
  025f0	69 c0 d4 00 00
	00		 imul	 eax, 212		; 000000d4H
  025f6	8b 4d 08	 mov	 ecx, DWORD PTR _lpObj$[ebp]
  025f9	8b 91 78 0e 00
	00		 mov	 edx, DWORD PTR [ecx+3704]
  025ff	0f bf 44 02 06	 movsx	 eax, WORD PTR [edx+eax+6]
  02604	3d 35 1c 00 00	 cmp	 eax, 7221		; 00001c35H
  02609	75 26		 jne	 SHORT $LN99@PlusItemLe

; 1001 : 			{
; 1002 : 				iCharmOfLuckCount += (int)lpObj->pChaosBox[n].m_Durability;

  0260b	8b 45 b0	 mov	 eax, DWORD PTR _n$235763[ebp]
  0260e	69 c0 d4 00 00
	00		 imul	 eax, 212		; 000000d4H
  02614	8b 4d 08	 mov	 ecx, DWORD PTR _lpObj$[ebp]
  02617	8b 91 78 0e 00
	00		 mov	 edx, DWORD PTR [ecx+3704]
  0261d	d9 44 02 24	 fld	 DWORD PTR [edx+eax+36]
  02621	e8 00 00 00 00	 call	 __ftol2_sse
  02626	03 45 b8	 add	 eax, DWORD PTR _iCharmOfLuckCount$[ebp]
  02629	89 45 b8	 mov	 DWORD PTR _iCharmOfLuckCount$[ebp], eax
  0262c	e9 4c 01 00 00	 jmp	 $LN84@PlusItemLe
$LN99@PlusItemLe:

; 1003 : 			}
; 1004 : 			else if ( lpObj->pChaosBox[n].m_Type == ITEMGET(14,96) )	// Charm Of Assembly

  02631	8b 45 b0	 mov	 eax, DWORD PTR _n$235763[ebp]
  02634	69 c0 d4 00 00
	00		 imul	 eax, 212		; 000000d4H
  0263a	8b 4d 08	 mov	 ecx, DWORD PTR _lpObj$[ebp]
  0263d	8b 91 78 0e 00
	00		 mov	 edx, DWORD PTR [ecx+3704]
  02643	0f bf 44 02 06	 movsx	 eax, WORD PTR [edx+eax+6]
  02648	3d 60 1c 00 00	 cmp	 eax, 7264		; 00001c60H
  0264d	75 0e		 jne	 SHORT $LN97@PlusItemLe

; 1005 : 			{
; 1006 : 				iCharmOfAssemblyCount++;

  0264f	8b 45 bc	 mov	 eax, DWORD PTR _iCharmOfAssemblyCount$[ebp]
  02652	83 c0 01	 add	 eax, 1
  02655	89 45 bc	 mov	 DWORD PTR _iCharmOfAssemblyCount$[ebp], eax
  02658	e9 20 01 00 00	 jmp	 $LN84@PlusItemLe
$LN97@PlusItemLe:

; 1007 : 			}
; 1008 : 			else if ( lpObj->pChaosBox[n].m_Level == 9 )

  0265d	8b 45 b0	 mov	 eax, DWORD PTR _n$235763[ebp]
  02660	69 c0 d4 00 00
	00		 imul	 eax, 212		; 000000d4H
  02666	8b 4d 08	 mov	 ecx, DWORD PTR _lpObj$[ebp]
  02669	8b 91 78 0e 00
	00		 mov	 edx, DWORD PTR [ecx+3704]
  0266f	0f bf 44 02 08	 movsx	 eax, WORD PTR [edx+eax+8]
  02674	83 f8 09	 cmp	 eax, 9
  02677	75 14		 jne	 SHORT $LN95@PlusItemLe

; 1009 : 			{
; 1010 : 				Plus9ItemCount++;

  02679	8b 45 e8	 mov	 eax, DWORD PTR _Plus9ItemCount$[ebp]
  0267c	83 c0 01	 add	 eax, 1
  0267f	89 45 e8	 mov	 DWORD PTR _Plus9ItemCount$[ebp], eax

; 1011 : 				PlusItemPos = n;

  02682	8b 45 b0	 mov	 eax, DWORD PTR _n$235763[ebp]
  02685	89 45 e0	 mov	 DWORD PTR _PlusItemPos$[ebp], eax
  02688	e9 f0 00 00 00	 jmp	 $LN84@PlusItemLe
$LN95@PlusItemLe:

; 1012 : 			}
; 1013 : 			else if ( lpObj->pChaosBox[n].m_Level == 10 )

  0268d	8b 45 b0	 mov	 eax, DWORD PTR _n$235763[ebp]
  02690	69 c0 d4 00 00
	00		 imul	 eax, 212		; 000000d4H
  02696	8b 4d 08	 mov	 ecx, DWORD PTR _lpObj$[ebp]
  02699	8b 91 78 0e 00
	00		 mov	 edx, DWORD PTR [ecx+3704]
  0269f	0f bf 44 02 08	 movsx	 eax, WORD PTR [edx+eax+8]
  026a4	83 f8 0a	 cmp	 eax, 10			; 0000000aH
  026a7	75 14		 jne	 SHORT $LN93@PlusItemLe

; 1014 : 			{
; 1015 : 				Plus10ItemCount++;

  026a9	8b 45 e4	 mov	 eax, DWORD PTR _Plus10ItemCount$[ebp]
  026ac	83 c0 01	 add	 eax, 1
  026af	89 45 e4	 mov	 DWORD PTR _Plus10ItemCount$[ebp], eax

; 1016 : 				PlusItemPos = n;

  026b2	8b 45 b0	 mov	 eax, DWORD PTR _n$235763[ebp]
  026b5	89 45 e0	 mov	 DWORD PTR _PlusItemPos$[ebp], eax
  026b8	e9 c0 00 00 00	 jmp	 $LN84@PlusItemLe
$LN93@PlusItemLe:

; 1017 : 			}
; 1018 : 			else if ( lpObj->pChaosBox[n].m_Level == 11 )

  026bd	8b 45 b0	 mov	 eax, DWORD PTR _n$235763[ebp]
  026c0	69 c0 d4 00 00
	00		 imul	 eax, 212		; 000000d4H
  026c6	8b 4d 08	 mov	 ecx, DWORD PTR _lpObj$[ebp]
  026c9	8b 91 78 0e 00
	00		 mov	 edx, DWORD PTR [ecx+3704]
  026cf	0f bf 44 02 08	 movsx	 eax, WORD PTR [edx+eax+8]
  026d4	83 f8 0b	 cmp	 eax, 11			; 0000000bH
  026d7	75 14		 jne	 SHORT $LN91@PlusItemLe

; 1019 : 			{
; 1020 : 				Plus11ItemCount++;

  026d9	8b 45 d8	 mov	 eax, DWORD PTR _Plus11ItemCount$[ebp]
  026dc	83 c0 01	 add	 eax, 1
  026df	89 45 d8	 mov	 DWORD PTR _Plus11ItemCount$[ebp], eax

; 1021 : 				PlusItemPos = n;

  026e2	8b 45 b0	 mov	 eax, DWORD PTR _n$235763[ebp]
  026e5	89 45 e0	 mov	 DWORD PTR _PlusItemPos$[ebp], eax
  026e8	e9 90 00 00 00	 jmp	 $LN84@PlusItemLe
$LN91@PlusItemLe:

; 1022 : 			}
; 1023 : 			else if ( lpObj->pChaosBox[n].m_Level == 12 )

  026ed	8b 45 b0	 mov	 eax, DWORD PTR _n$235763[ebp]
  026f0	69 c0 d4 00 00
	00		 imul	 eax, 212		; 000000d4H
  026f6	8b 4d 08	 mov	 ecx, DWORD PTR _lpObj$[ebp]
  026f9	8b 91 78 0e 00
	00		 mov	 edx, DWORD PTR [ecx+3704]
  026ff	0f bf 44 02 08	 movsx	 eax, WORD PTR [edx+eax+8]
  02704	83 f8 0c	 cmp	 eax, 12			; 0000000cH
  02707	75 11		 jne	 SHORT $LN89@PlusItemLe

; 1024 : 			{
; 1025 : 				Plus12ItemCount++;

  02709	8b 45 d4	 mov	 eax, DWORD PTR _Plus12ItemCount$[ebp]
  0270c	83 c0 01	 add	 eax, 1
  0270f	89 45 d4	 mov	 DWORD PTR _Plus12ItemCount$[ebp], eax

; 1026 : 				PlusItemPos = n;

  02712	8b 45 b0	 mov	 eax, DWORD PTR _n$235763[ebp]
  02715	89 45 e0	 mov	 DWORD PTR _PlusItemPos$[ebp], eax
  02718	eb 63		 jmp	 SHORT $LN84@PlusItemLe
$LN89@PlusItemLe:

; 1027 : 			}
; 1028 : 			//Season 5 +15 Items
; 1029 : 			else if ( lpObj->pChaosBox[n].m_Level == 13 )

  0271a	8b 45 b0	 mov	 eax, DWORD PTR _n$235763[ebp]
  0271d	69 c0 d4 00 00
	00		 imul	 eax, 212		; 000000d4H
  02723	8b 4d 08	 mov	 ecx, DWORD PTR _lpObj$[ebp]
  02726	8b 91 78 0e 00
	00		 mov	 edx, DWORD PTR [ecx+3704]
  0272c	0f bf 44 02 08	 movsx	 eax, WORD PTR [edx+eax+8]
  02731	83 f8 0d	 cmp	 eax, 13			; 0000000dH
  02734	75 11		 jne	 SHORT $LN87@PlusItemLe

; 1030 : 			{
; 1031 : 				Plus13ItemCount++;

  02736	8b 45 d0	 mov	 eax, DWORD PTR _Plus13ItemCount$[ebp]
  02739	83 c0 01	 add	 eax, 1
  0273c	89 45 d0	 mov	 DWORD PTR _Plus13ItemCount$[ebp], eax

; 1032 : 				PlusItemPos = n;

  0273f	8b 45 b0	 mov	 eax, DWORD PTR _n$235763[ebp]
  02742	89 45 e0	 mov	 DWORD PTR _PlusItemPos$[ebp], eax
  02745	eb 36		 jmp	 SHORT $LN84@PlusItemLe
$LN87@PlusItemLe:

; 1033 : 			}
; 1034 : 			else if ( lpObj->pChaosBox[n].m_Level == 14 )

  02747	8b 45 b0	 mov	 eax, DWORD PTR _n$235763[ebp]
  0274a	69 c0 d4 00 00
	00		 imul	 eax, 212		; 000000d4H
  02750	8b 4d 08	 mov	 ecx, DWORD PTR _lpObj$[ebp]
  02753	8b 91 78 0e 00
	00		 mov	 edx, DWORD PTR [ecx+3704]
  02759	0f bf 44 02 08	 movsx	 eax, WORD PTR [edx+eax+8]
  0275e	83 f8 0e	 cmp	 eax, 14			; 0000000eH
  02761	75 11		 jne	 SHORT $LN85@PlusItemLe

; 1035 : 			{
; 1036 : 				Plus14ItemCount++;

  02763	8b 45 cc	 mov	 eax, DWORD PTR _Plus14ItemCount$[ebp]
  02766	83 c0 01	 add	 eax, 1
  02769	89 45 cc	 mov	 DWORD PTR _Plus14ItemCount$[ebp], eax

; 1037 : 				PlusItemPos = n;

  0276c	8b 45 b0	 mov	 eax, DWORD PTR _n$235763[ebp]
  0276f	89 45 e0	 mov	 DWORD PTR _PlusItemPos$[ebp], eax

; 1038 : 			}
; 1039 : 			else

  02772	eb 09		 jmp	 SHORT $LN84@PlusItemLe
$LN85@PlusItemLe:

; 1040 : 			{
; 1041 : 				OtherItemFound ++;

  02774	8b 45 dc	 mov	 eax, DWORD PTR _OtherItemFound$[ebp]
  02777	83 c0 01	 add	 eax, 1
  0277a	89 45 dc	 mov	 DWORD PTR _OtherItemFound$[ebp], eax
$LN84@PlusItemLe:

; 1042 : 			}
; 1043 : 		}
; 1044 : 	}

  0277d	e9 b4 fd ff ff	 jmp	 $LN108@PlusItemLe
$LN107@PlusItemLe:

; 1045 : 
; 1046 : 	if ( iCharmOfLuckCount > 10 )

  02782	83 7d b8 0a	 cmp	 DWORD PTR _iCharmOfLuckCount$[ebp], 10 ; 0000000aH
  02786	7e 62		 jle	 SHORT $LN83@PlusItemLe

; 1047 : 	{
; 1048 : 		PMSG_CHAOSMIXRESULT pResult;
; 1049 : 		PHeadSetB((LPBYTE)&pResult, 0x86, sizeof(pResult));

  02788	6a 10		 push	 16			; 00000010H
  0278a	68 86 00 00 00	 push	 134			; 00000086H
  0278f	8d 45 a0	 lea	 eax, DWORD PTR _pResult$235792[ebp]
  02792	50		 push	 eax
  02793	e8 00 00 00 00	 call	 ?PHeadSetB@@YAXPAEEH@Z	; PHeadSetB
  02798	83 c4 0c	 add	 esp, 12			; 0000000cH

; 1050 : 		LogAddTD("[PlusItemLevel] [%s][%s] CBMix Charm of luck over 10% (%d)", lpObj->AccountID, lpObj->Name, iCharmOfLuckCount);

  0279b	8b 45 b8	 mov	 eax, DWORD PTR _iCharmOfLuckCount$[ebp]
  0279e	50		 push	 eax
  0279f	8b 4d 08	 mov	 ecx, DWORD PTR _lpObj$[ebp]
  027a2	83 c1 77	 add	 ecx, 119		; 00000077H
  027a5	51		 push	 ecx
  027a6	8b 55 08	 mov	 edx, DWORD PTR _lpObj$[ebp]
  027a9	83 c2 6c	 add	 edx, 108		; 0000006cH
  027ac	52		 push	 edx
  027ad	68 00 00 00 00	 push	 OFFSET ??_C@_0DL@KGOODEAG@?$FLPlusItemLevel?$FN?5?$FL?$CFs?$FN?$FL?$CFs?$FN?5CBMix?5C@
  027b2	ff 15 00 00 00
	00		 call	 DWORD PTR ?LogAddTD@@3P6AXPADZZA ; LogAddTD
  027b8	83 c4 10	 add	 esp, 16			; 00000010H

; 1051 : 		pResult.Result = 0xF0;

  027bb	c6 45 a3 f0	 mov	 BYTE PTR _pResult$235792[ebp+3], 240 ; 000000f0H

; 1052 : 		DataSend(lpObj->m_Index, (LPBYTE)&pResult, pResult.h.size);

  027bf	0f b6 45 a1	 movzx	 eax, BYTE PTR _pResult$235792[ebp+1]
  027c3	50		 push	 eax
  027c4	8d 4d a0	 lea	 ecx, DWORD PTR _pResult$235792[ebp]
  027c7	51		 push	 ecx
  027c8	8b 55 08	 mov	 edx, DWORD PTR _lpObj$[ebp]
  027cb	8b 02		 mov	 eax, DWORD PTR [edx]
  027cd	50		 push	 eax
  027ce	e8 00 00 00 00	 call	 ?DataSend@@YAHHPAEK@Z	; DataSend
  027d3	83 c4 0c	 add	 esp, 12			; 0000000cH

; 1053 : 		lpObj->ChaosLock = FALSE;

  027d6	8b 45 08	 mov	 eax, DWORD PTR _lpObj$[ebp]
  027d9	c7 80 88 0e 00
	00 00 00 00 00	 mov	 DWORD PTR [eax+3720], 0

; 1054 : 		return 0;

  027e3	33 c0		 xor	 eax, eax
  027e5	e9 18 0f 00 00	 jmp	 $LN110@PlusItemLe
$LN83@PlusItemLe:

; 1055 : 	}
; 1056 : 
; 1057 : 	if ( OtherItemFound != FALSE )

  027ea	83 7d dc 00	 cmp	 DWORD PTR _OtherItemFound$[ebp], 0
  027ee	74 07		 je	 SHORT $LN82@PlusItemLe

; 1058 : 	{
; 1059 : 		return FALSE;

  027f0	33 c0		 xor	 eax, eax
  027f2	e9 0b 0f 00 00	 jmp	 $LN110@PlusItemLe
$LN82@PlusItemLe:

; 1060 : 	}
; 1061 : 
; 1062 : 	if(iCharmOfAssemblyCount > 1)

  027f7	83 7d bc 01	 cmp	 DWORD PTR _iCharmOfAssemblyCount$[ebp], 1
  027fb	7e 42		 jle	 SHORT $LN81@PlusItemLe

; 1063 : 	{
; 1064 : 		PMSG_CHAOSMIXRESULT pResult;
; 1065 : 		PHeadSetB((LPBYTE)&pResult, 0x86, sizeof(pResult));

  027fd	6a 10		 push	 16			; 00000010H
  027ff	68 86 00 00 00	 push	 134			; 00000086H
  02804	8d 45 90	 lea	 eax, DWORD PTR _pResult$235798[ebp]
  02807	50		 push	 eax
  02808	e8 00 00 00 00	 call	 ?PHeadSetB@@YAXPAEEH@Z	; PHeadSetB
  0280d	83 c4 0c	 add	 esp, 12			; 0000000cH

; 1066 : 		pResult.Result = CB_INCORRECT_MIX_ITEMS;

  02810	c6 45 93 07	 mov	 BYTE PTR _pResult$235798[ebp+3], 7

; 1067 : 		DataSend(lpObj->m_Index, (LPBYTE)&pResult, pResult.h.size);

  02814	0f b6 45 91	 movzx	 eax, BYTE PTR _pResult$235798[ebp+1]
  02818	50		 push	 eax
  02819	8d 4d 90	 lea	 ecx, DWORD PTR _pResult$235798[ebp]
  0281c	51		 push	 ecx
  0281d	8b 55 08	 mov	 edx, DWORD PTR _lpObj$[ebp]
  02820	8b 02		 mov	 eax, DWORD PTR [edx]
  02822	50		 push	 eax
  02823	e8 00 00 00 00	 call	 ?DataSend@@YAHHPAEK@Z	; DataSend
  02828	83 c4 0c	 add	 esp, 12			; 0000000cH

; 1068 : 		lpObj->ChaosLock = FALSE;

  0282b	8b 45 08	 mov	 eax, DWORD PTR _lpObj$[ebp]
  0282e	c7 80 88 0e 00
	00 00 00 00 00	 mov	 DWORD PTR [eax+3720], 0

; 1069 : 		return 0;

  02838	33 c0		 xor	 eax, eax
  0283a	e9 c3 0e 00 00	 jmp	 $LN110@PlusItemLe
$LN81@PlusItemLe:

; 1070 : 	}
; 1071 : 
; 1072 : 	lpObj->ChaosMoney = 0;

  0283f	8b 45 08	 mov	 eax, DWORD PTR _lpObj$[ebp]
  02842	c7 80 80 0e 00
	00 00 00 00 00	 mov	 DWORD PTR [eax+3712], 0

; 1073 : 	int MixType = 0;

  0284c	c7 45 8c 00 00
	00 00		 mov	 DWORD PTR _MixType$[ebp], 0

; 1074 : 
; 1075 : 	if ( Plus9ItemCount == 1 && ChaosGemCount == 1 && BlessGemCount == 1 && SoulGemCount == 1 && Plus10ItemCount == 0 && Plus11ItemCount == 0 && Plus12ItemCount == 0 )

  02853	83 7d e8 01	 cmp	 DWORD PTR _Plus9ItemCount$[ebp], 1
  02857	75 4f		 jne	 SHORT $LN80@PlusItemLe
  02859	83 7d f4 01	 cmp	 DWORD PTR _ChaosGemCount$[ebp], 1
  0285d	75 49		 jne	 SHORT $LN80@PlusItemLe
  0285f	83 7d f0 01	 cmp	 DWORD PTR _BlessGemCount$[ebp], 1
  02863	75 43		 jne	 SHORT $LN80@PlusItemLe
  02865	83 7d ec 01	 cmp	 DWORD PTR _SoulGemCount$[ebp], 1
  02869	75 3d		 jne	 SHORT $LN80@PlusItemLe
  0286b	83 7d e4 00	 cmp	 DWORD PTR _Plus10ItemCount$[ebp], 0
  0286f	75 37		 jne	 SHORT $LN80@PlusItemLe
  02871	83 7d d8 00	 cmp	 DWORD PTR _Plus11ItemCount$[ebp], 0
  02875	75 31		 jne	 SHORT $LN80@PlusItemLe
  02877	83 7d d4 00	 cmp	 DWORD PTR _Plus12ItemCount$[ebp], 0
  0287b	75 2b		 jne	 SHORT $LN80@PlusItemLe

; 1076 : 	{
; 1077 : 		MixType = 3;

  0287d	c7 45 8c 03 00
	00 00		 mov	 DWORD PTR _MixType$[ebp], 3

; 1078 : 		lpObj->ChaosMoney = 2000000;

  02884	8b 45 08	 mov	 eax, DWORD PTR _lpObj$[ebp]
  02887	c7 80 80 0e 00
	00 80 84 1e 00	 mov	 DWORD PTR [eax+3712], 2000000 ; 001e8480H

; 1079 : 		ExtraBlessGemCount = BlessGemCount - 1;

  02891	8b 45 f0	 mov	 eax, DWORD PTR _BlessGemCount$[ebp]
  02894	83 e8 01	 sub	 eax, 1
  02897	89 45 c4	 mov	 DWORD PTR _ExtraBlessGemCount$[ebp], eax

; 1080 : 		ExtraSoulGemCount = SoulGemCount - 1;

  0289a	8b 45 ec	 mov	 eax, DWORD PTR _SoulGemCount$[ebp]
  0289d	83 e8 01	 sub	 eax, 1
  028a0	89 45 c0	 mov	 DWORD PTR _ExtraSoulGemCount$[ebp], eax
  028a3	e9 ad 01 00 00	 jmp	 $LN70@PlusItemLe
$LN80@PlusItemLe:

; 1081 : 	}
; 1082 : 	else if ( Plus10ItemCount == 1 && ChaosGemCount == 1 && BlessGemCount == 2 && SoulGemCount == 2 && Plus9ItemCount == 0 && Plus11ItemCount == 0 && Plus12ItemCount == 0 )

  028a8	83 7d e4 01	 cmp	 DWORD PTR _Plus10ItemCount$[ebp], 1
  028ac	75 4f		 jne	 SHORT $LN78@PlusItemLe
  028ae	83 7d f4 01	 cmp	 DWORD PTR _ChaosGemCount$[ebp], 1
  028b2	75 49		 jne	 SHORT $LN78@PlusItemLe
  028b4	83 7d f0 02	 cmp	 DWORD PTR _BlessGemCount$[ebp], 2
  028b8	75 43		 jne	 SHORT $LN78@PlusItemLe
  028ba	83 7d ec 02	 cmp	 DWORD PTR _SoulGemCount$[ebp], 2
  028be	75 3d		 jne	 SHORT $LN78@PlusItemLe
  028c0	83 7d e8 00	 cmp	 DWORD PTR _Plus9ItemCount$[ebp], 0
  028c4	75 37		 jne	 SHORT $LN78@PlusItemLe
  028c6	83 7d d8 00	 cmp	 DWORD PTR _Plus11ItemCount$[ebp], 0
  028ca	75 31		 jne	 SHORT $LN78@PlusItemLe
  028cc	83 7d d4 00	 cmp	 DWORD PTR _Plus12ItemCount$[ebp], 0
  028d0	75 2b		 jne	 SHORT $LN78@PlusItemLe

; 1083 : 	{
; 1084 : 		MixType = 4;

  028d2	c7 45 8c 04 00
	00 00		 mov	 DWORD PTR _MixType$[ebp], 4

; 1085 : 		lpObj->ChaosMoney = 4000000;

  028d9	8b 45 08	 mov	 eax, DWORD PTR _lpObj$[ebp]
  028dc	c7 80 80 0e 00
	00 00 09 3d 00	 mov	 DWORD PTR [eax+3712], 4000000 ; 003d0900H

; 1086 : 		ExtraBlessGemCount = BlessGemCount - 2;

  028e6	8b 45 f0	 mov	 eax, DWORD PTR _BlessGemCount$[ebp]
  028e9	83 e8 02	 sub	 eax, 2
  028ec	89 45 c4	 mov	 DWORD PTR _ExtraBlessGemCount$[ebp], eax

; 1087 : 		ExtraSoulGemCount = SoulGemCount - 2;

  028ef	8b 45 ec	 mov	 eax, DWORD PTR _SoulGemCount$[ebp]
  028f2	83 e8 02	 sub	 eax, 2
  028f5	89 45 c0	 mov	 DWORD PTR _ExtraSoulGemCount$[ebp], eax
  028f8	e9 58 01 00 00	 jmp	 $LN70@PlusItemLe
$LN78@PlusItemLe:

; 1088 : 	}
; 1089 : 	else if ( Plus11ItemCount == 1 && ChaosGemCount == 1 && BlessGemCount == 3 && SoulGemCount == 3 && Plus9ItemCount == 0 && Plus10ItemCount == 0 && Plus12ItemCount == 0 )

  028fd	83 7d d8 01	 cmp	 DWORD PTR _Plus11ItemCount$[ebp], 1
  02901	75 4f		 jne	 SHORT $LN76@PlusItemLe
  02903	83 7d f4 01	 cmp	 DWORD PTR _ChaosGemCount$[ebp], 1
  02907	75 49		 jne	 SHORT $LN76@PlusItemLe
  02909	83 7d f0 03	 cmp	 DWORD PTR _BlessGemCount$[ebp], 3
  0290d	75 43		 jne	 SHORT $LN76@PlusItemLe
  0290f	83 7d ec 03	 cmp	 DWORD PTR _SoulGemCount$[ebp], 3
  02913	75 3d		 jne	 SHORT $LN76@PlusItemLe
  02915	83 7d e8 00	 cmp	 DWORD PTR _Plus9ItemCount$[ebp], 0
  02919	75 37		 jne	 SHORT $LN76@PlusItemLe
  0291b	83 7d e4 00	 cmp	 DWORD PTR _Plus10ItemCount$[ebp], 0
  0291f	75 31		 jne	 SHORT $LN76@PlusItemLe
  02921	83 7d d4 00	 cmp	 DWORD PTR _Plus12ItemCount$[ebp], 0
  02925	75 2b		 jne	 SHORT $LN76@PlusItemLe

; 1090 : 	{
; 1091 : 		MixType = 22;

  02927	c7 45 8c 16 00
	00 00		 mov	 DWORD PTR _MixType$[ebp], 22 ; 00000016H

; 1092 : 		lpObj->ChaosMoney = 6000000;

  0292e	8b 45 08	 mov	 eax, DWORD PTR _lpObj$[ebp]
  02931	c7 80 80 0e 00
	00 80 8d 5b 00	 mov	 DWORD PTR [eax+3712], 6000000 ; 005b8d80H

; 1093 : 		ExtraBlessGemCount = BlessGemCount - 3;

  0293b	8b 45 f0	 mov	 eax, DWORD PTR _BlessGemCount$[ebp]
  0293e	83 e8 03	 sub	 eax, 3
  02941	89 45 c4	 mov	 DWORD PTR _ExtraBlessGemCount$[ebp], eax

; 1094 : 		ExtraSoulGemCount = SoulGemCount - 3;

  02944	8b 45 ec	 mov	 eax, DWORD PTR _SoulGemCount$[ebp]
  02947	83 e8 03	 sub	 eax, 3
  0294a	89 45 c0	 mov	 DWORD PTR _ExtraSoulGemCount$[ebp], eax
  0294d	e9 03 01 00 00	 jmp	 $LN70@PlusItemLe
$LN76@PlusItemLe:

; 1095 : 	}
; 1096 : 	else if ( Plus12ItemCount == 1 && ChaosGemCount == 1 && BlessGemCount == 4 && SoulGemCount == 4 && Plus9ItemCount == 0 && Plus10ItemCount == 0 && Plus11ItemCount == 0 )

  02952	83 7d d4 01	 cmp	 DWORD PTR _Plus12ItemCount$[ebp], 1
  02956	75 4f		 jne	 SHORT $LN74@PlusItemLe
  02958	83 7d f4 01	 cmp	 DWORD PTR _ChaosGemCount$[ebp], 1
  0295c	75 49		 jne	 SHORT $LN74@PlusItemLe
  0295e	83 7d f0 04	 cmp	 DWORD PTR _BlessGemCount$[ebp], 4
  02962	75 43		 jne	 SHORT $LN74@PlusItemLe
  02964	83 7d ec 04	 cmp	 DWORD PTR _SoulGemCount$[ebp], 4
  02968	75 3d		 jne	 SHORT $LN74@PlusItemLe
  0296a	83 7d e8 00	 cmp	 DWORD PTR _Plus9ItemCount$[ebp], 0
  0296e	75 37		 jne	 SHORT $LN74@PlusItemLe
  02970	83 7d e4 00	 cmp	 DWORD PTR _Plus10ItemCount$[ebp], 0
  02974	75 31		 jne	 SHORT $LN74@PlusItemLe
  02976	83 7d d8 00	 cmp	 DWORD PTR _Plus11ItemCount$[ebp], 0
  0297a	75 2b		 jne	 SHORT $LN74@PlusItemLe

; 1097 : 	{
; 1098 : 		MixType = 23;

  0297c	c7 45 8c 17 00
	00 00		 mov	 DWORD PTR _MixType$[ebp], 23 ; 00000017H

; 1099 : 		lpObj->ChaosMoney = 8000000;

  02983	8b 45 08	 mov	 eax, DWORD PTR _lpObj$[ebp]
  02986	c7 80 80 0e 00
	00 00 12 7a 00	 mov	 DWORD PTR [eax+3712], 8000000 ; 007a1200H

; 1100 : 		ExtraBlessGemCount = BlessGemCount - 4;

  02990	8b 45 f0	 mov	 eax, DWORD PTR _BlessGemCount$[ebp]
  02993	83 e8 04	 sub	 eax, 4
  02996	89 45 c4	 mov	 DWORD PTR _ExtraBlessGemCount$[ebp], eax

; 1101 : 		ExtraSoulGemCount = SoulGemCount - 4;

  02999	8b 45 ec	 mov	 eax, DWORD PTR _SoulGemCount$[ebp]
  0299c	83 e8 04	 sub	 eax, 4
  0299f	89 45 c0	 mov	 DWORD PTR _ExtraSoulGemCount$[ebp], eax
  029a2	e9 ae 00 00 00	 jmp	 $LN70@PlusItemLe
$LN74@PlusItemLe:

; 1102 : 	}
; 1103 : 	//Season 5 +15 Items
; 1104 : 	else if ( Plus13ItemCount == 1 && ChaosGemCount == 1 && BlessGemCount == 5 && SoulGemCount == 5 && Plus9ItemCount == 0 && Plus10ItemCount == 0 && Plus11ItemCount == 0 && Plus14ItemCount == 0)

  029a7	83 7d d0 01	 cmp	 DWORD PTR _Plus13ItemCount$[ebp], 1
  029ab	75 52		 jne	 SHORT $LN72@PlusItemLe
  029ad	83 7d f4 01	 cmp	 DWORD PTR _ChaosGemCount$[ebp], 1
  029b1	75 4c		 jne	 SHORT $LN72@PlusItemLe
  029b3	83 7d f0 05	 cmp	 DWORD PTR _BlessGemCount$[ebp], 5
  029b7	75 46		 jne	 SHORT $LN72@PlusItemLe
  029b9	83 7d ec 05	 cmp	 DWORD PTR _SoulGemCount$[ebp], 5
  029bd	75 40		 jne	 SHORT $LN72@PlusItemLe
  029bf	83 7d e8 00	 cmp	 DWORD PTR _Plus9ItemCount$[ebp], 0
  029c3	75 3a		 jne	 SHORT $LN72@PlusItemLe
  029c5	83 7d e4 00	 cmp	 DWORD PTR _Plus10ItemCount$[ebp], 0
  029c9	75 34		 jne	 SHORT $LN72@PlusItemLe
  029cb	83 7d d8 00	 cmp	 DWORD PTR _Plus11ItemCount$[ebp], 0
  029cf	75 2e		 jne	 SHORT $LN72@PlusItemLe
  029d1	83 7d cc 00	 cmp	 DWORD PTR _Plus14ItemCount$[ebp], 0
  029d5	75 28		 jne	 SHORT $LN72@PlusItemLe

; 1105 : 	{
; 1106 : 		MixType = 49;

  029d7	c7 45 8c 31 00
	00 00		 mov	 DWORD PTR _MixType$[ebp], 49 ; 00000031H

; 1107 : 		lpObj->ChaosMoney = 10000000;

  029de	8b 45 08	 mov	 eax, DWORD PTR _lpObj$[ebp]
  029e1	c7 80 80 0e 00
	00 80 96 98 00	 mov	 DWORD PTR [eax+3712], 10000000 ; 00989680H

; 1108 : 		ExtraBlessGemCount = BlessGemCount - 5;

  029eb	8b 45 f0	 mov	 eax, DWORD PTR _BlessGemCount$[ebp]
  029ee	83 e8 05	 sub	 eax, 5
  029f1	89 45 c4	 mov	 DWORD PTR _ExtraBlessGemCount$[ebp], eax

; 1109 : 		ExtraSoulGemCount = SoulGemCount - 5;

  029f4	8b 45 ec	 mov	 eax, DWORD PTR _SoulGemCount$[ebp]
  029f7	83 e8 05	 sub	 eax, 5
  029fa	89 45 c0	 mov	 DWORD PTR _ExtraSoulGemCount$[ebp], eax
  029fd	eb 56		 jmp	 SHORT $LN70@PlusItemLe
$LN72@PlusItemLe:

; 1110 : 	}
; 1111 : 	else if ( Plus14ItemCount == 1 && ChaosGemCount == 1 && BlessGemCount == 6 && SoulGemCount == 6 && Plus9ItemCount == 0 && Plus10ItemCount == 0 && Plus11ItemCount == 0 && Plus15ItemCount == 0)

  029ff	83 7d cc 01	 cmp	 DWORD PTR _Plus14ItemCount$[ebp], 1
  02a03	75 50		 jne	 SHORT $LN70@PlusItemLe
  02a05	83 7d f4 01	 cmp	 DWORD PTR _ChaosGemCount$[ebp], 1
  02a09	75 4a		 jne	 SHORT $LN70@PlusItemLe
  02a0b	83 7d f0 06	 cmp	 DWORD PTR _BlessGemCount$[ebp], 6
  02a0f	75 44		 jne	 SHORT $LN70@PlusItemLe
  02a11	83 7d ec 06	 cmp	 DWORD PTR _SoulGemCount$[ebp], 6
  02a15	75 3e		 jne	 SHORT $LN70@PlusItemLe
  02a17	83 7d e8 00	 cmp	 DWORD PTR _Plus9ItemCount$[ebp], 0
  02a1b	75 38		 jne	 SHORT $LN70@PlusItemLe
  02a1d	83 7d e4 00	 cmp	 DWORD PTR _Plus10ItemCount$[ebp], 0
  02a21	75 32		 jne	 SHORT $LN70@PlusItemLe
  02a23	83 7d d8 00	 cmp	 DWORD PTR _Plus11ItemCount$[ebp], 0
  02a27	75 2c		 jne	 SHORT $LN70@PlusItemLe
  02a29	83 7d c8 00	 cmp	 DWORD PTR _Plus15ItemCount$[ebp], 0
  02a2d	75 26		 jne	 SHORT $LN70@PlusItemLe

; 1112 : 	{
; 1113 : 		MixType = 50;

  02a2f	c7 45 8c 32 00
	00 00		 mov	 DWORD PTR _MixType$[ebp], 50 ; 00000032H

; 1114 : 		lpObj->ChaosMoney = 12000000;

  02a36	8b 45 08	 mov	 eax, DWORD PTR _lpObj$[ebp]
  02a39	c7 80 80 0e 00
	00 00 1b b7 00	 mov	 DWORD PTR [eax+3712], 12000000 ; 00b71b00H

; 1115 : 		ExtraBlessGemCount = BlessGemCount - 6;

  02a43	8b 45 f0	 mov	 eax, DWORD PTR _BlessGemCount$[ebp]
  02a46	83 e8 06	 sub	 eax, 6
  02a49	89 45 c4	 mov	 DWORD PTR _ExtraBlessGemCount$[ebp], eax

; 1116 : 		ExtraSoulGemCount = SoulGemCount - 6;

  02a4c	8b 45 ec	 mov	 eax, DWORD PTR _SoulGemCount$[ebp]
  02a4f	83 e8 06	 sub	 eax, 6
  02a52	89 45 c0	 mov	 DWORD PTR _ExtraSoulGemCount$[ebp], eax
$LN70@PlusItemLe:

; 1117 : 	}
; 1118 : 
; 1119 : 	if ( MixType != mixType )

  02a55	8b 45 8c	 mov	 eax, DWORD PTR _MixType$[ebp]
  02a58	3b 45 0c	 cmp	 eax, DWORD PTR _mixType$[ebp]
  02a5b	74 07		 je	 SHORT $LN69@PlusItemLe

; 1120 : 	{
; 1121 : 		MixType = 0;

  02a5d	c7 45 8c 00 00
	00 00		 mov	 DWORD PTR _MixType$[ebp], 0
$LN69@PlusItemLe:

; 1122 : 	}
; 1123 : 
; 1124 : 	if ( MixType == 0 )

  02a64	83 7d 8c 00	 cmp	 DWORD PTR _MixType$[ebp], 0
  02a68	75 07		 jne	 SHORT $LN68@PlusItemLe

; 1125 : 	{
; 1126 : 		return FALSE;

  02a6a	33 c0		 xor	 eax, eax
  02a6c	e9 91 0c 00 00	 jmp	 $LN110@PlusItemLe
$LN68@PlusItemLe:

; 1127 : 	}
; 1128 : 
; 1129 : 	PMSG_CHAOSMIXRESULT pMsg;
; 1130 : 
; 1131 : 	PHeadSetB((LPBYTE)&pMsg.h, 0x86, sizeof(PMSG_CHAOSMIXRESULT));

  02a71	6a 10		 push	 16			; 00000010H
  02a73	68 86 00 00 00	 push	 134			; 00000086H
  02a78	8d 85 7c ff ff
	ff		 lea	 eax, DWORD PTR _pMsg$[ebp]
  02a7e	50		 push	 eax
  02a7f	e8 00 00 00 00	 call	 ?PHeadSetB@@YAXPAEEH@Z	; PHeadSetB
  02a84	83 c4 0c	 add	 esp, 12			; 0000000cH

; 1132 : 	pMsg.Result = CB_ERROR;

  02a87	c6 85 7f ff ff
	ff 00		 mov	 BYTE PTR _pMsg$[ebp+3], 0

; 1133 : 	lpObj->ChaosLock = TRUE;

  02a8e	8b 45 08	 mov	 eax, DWORD PTR _lpObj$[ebp]
  02a91	c7 80 88 0e 00
	00 01 00 00 00	 mov	 DWORD PTR [eax+3720], 1

; 1134 : 	this->LogPlusItemLevelChaosItem(lpObj, MixType);

  02a9b	8b 45 8c	 mov	 eax, DWORD PTR _MixType$[ebp]
  02a9e	50		 push	 eax
  02a9f	8b 4d 08	 mov	 ecx, DWORD PTR _lpObj$[ebp]
  02aa2	51		 push	 ecx
  02aa3	8b 4d f8	 mov	 ecx, DWORD PTR _this$[ebp]
  02aa6	e8 00 00 00 00	 call	 ?LogPlusItemLevelChaosItem@CMixSystem@@QAEXPAUOBJECTSTRUCT@@H@Z ; CMixSystem::LogPlusItemLevelChaosItem

; 1135 : 	LogAddTD("[PlusItemLevel] Chaos Mix Start");

  02aab	68 00 00 00 00	 push	 OFFSET ??_C@_0CA@BGIGBHFB@?$FLPlusItemLevel?$FN?5Chaos?5Mix?5Start?$AA@
  02ab0	ff 15 00 00 00
	00		 call	 DWORD PTR ?LogAddTD@@3P6AXPADZZA ; LogAddTD
  02ab6	83 c4 04	 add	 esp, 4

; 1136 : 
; 1137 : 	int iChaosTaxMoney = (int)((__int64)lpObj->ChaosMoney * (__int64)g_CastleSiegeSync.GetTaxRateChaos(lpObj->m_Index) / (__int64)100);

  02ab9	8b 45 08	 mov	 eax, DWORD PTR _lpObj$[ebp]
  02abc	8b 80 80 0e 00
	00		 mov	 eax, DWORD PTR [eax+3712]
  02ac2	99		 cdq
  02ac3	8b f0		 mov	 esi, eax
  02ac5	8b fa		 mov	 edi, edx
  02ac7	8b 4d 08	 mov	 ecx, DWORD PTR _lpObj$[ebp]
  02aca	8b 11		 mov	 edx, DWORD PTR [ecx]
  02acc	52		 push	 edx
  02acd	b9 00 00 00 00	 mov	 ecx, OFFSET ?g_CastleSiegeSync@@3VCCastleSiegeSync@@A ; g_CastleSiegeSync
  02ad2	e8 00 00 00 00	 call	 ?GetTaxRateChaos@CCastleSiegeSync@@QAEHH@Z ; CCastleSiegeSync::GetTaxRateChaos
  02ad7	99		 cdq
  02ad8	52		 push	 edx
  02ad9	50		 push	 eax
  02ada	57		 push	 edi
  02adb	56		 push	 esi
  02adc	e8 00 00 00 00	 call	 __allmul
  02ae1	6a 00		 push	 0
  02ae3	6a 64		 push	 100			; 00000064H
  02ae5	52		 push	 edx
  02ae6	50		 push	 eax
  02ae7	e8 00 00 00 00	 call	 __alldiv
  02aec	89 85 78 ff ff
	ff		 mov	 DWORD PTR _iChaosTaxMoney$[ebp], eax

; 1138 : 
; 1139 : 	if ( iChaosTaxMoney < 0 )

  02af2	83 bd 78 ff ff
	ff 00		 cmp	 DWORD PTR _iChaosTaxMoney$[ebp], 0
  02af9	7d 0a		 jge	 SHORT $LN67@PlusItemLe

; 1140 : 	{
; 1141 : 		iChaosTaxMoney = 0;

  02afb	c7 85 78 ff ff
	ff 00 00 00 00	 mov	 DWORD PTR _iChaosTaxMoney$[ebp], 0
$LN67@PlusItemLe:

; 1142 : 	}
; 1143 : 
; 1144 : 	lpObj->ChaosMoney += iChaosTaxMoney;

  02b05	8b 45 08	 mov	 eax, DWORD PTR _lpObj$[ebp]
  02b08	8b 88 80 0e 00
	00		 mov	 ecx, DWORD PTR [eax+3712]
  02b0e	03 8d 78 ff ff
	ff		 add	 ecx, DWORD PTR _iChaosTaxMoney$[ebp]
  02b14	8b 55 08	 mov	 edx, DWORD PTR _lpObj$[ebp]
  02b17	89 8a 80 0e 00
	00		 mov	 DWORD PTR [edx+3712], ecx

; 1145 : 
; 1146 : 	if ( lpObj->ChaosMoney < 0 )

  02b1d	8b 45 08	 mov	 eax, DWORD PTR _lpObj$[ebp]
  02b20	83 b8 80 0e 00
	00 00		 cmp	 DWORD PTR [eax+3712], 0
  02b27	7d 0d		 jge	 SHORT $LN66@PlusItemLe

; 1147 : 	{
; 1148 : 		lpObj->ChaosMoney = 0;

  02b29	8b 45 08	 mov	 eax, DWORD PTR _lpObj$[ebp]
  02b2c	c7 80 80 0e 00
	00 00 00 00 00	 mov	 DWORD PTR [eax+3712], 0
$LN66@PlusItemLe:

; 1149 : 	}
; 1150 : 
; 1151 : 	if ( lpObj->Money < lpObj->ChaosMoney )

  02b36	8b 45 08	 mov	 eax, DWORD PTR _lpObj$[ebp]
  02b39	8b 4d 08	 mov	 ecx, DWORD PTR _lpObj$[ebp]
  02b3c	8b 90 f0 00 00
	00		 mov	 edx, DWORD PTR [eax+240]
  02b42	3b 91 80 0e 00
	00		 cmp	 edx, DWORD PTR [ecx+3712]
  02b48	7d 6b		 jge	 SHORT $LN65@PlusItemLe

; 1152 : 	{
; 1153 : 		LogAddTD("[PlusItemLevel] [%s][%s] CBMix Not Enough Money [%d] need zen [%d]", lpObj->AccountID, lpObj->Name, lpObj->Money, lpObj->ChaosMoney);

  02b4a	8b 45 08	 mov	 eax, DWORD PTR _lpObj$[ebp]
  02b4d	8b 88 80 0e 00
	00		 mov	 ecx, DWORD PTR [eax+3712]
  02b53	51		 push	 ecx
  02b54	8b 55 08	 mov	 edx, DWORD PTR _lpObj$[ebp]
  02b57	8b 82 f0 00 00
	00		 mov	 eax, DWORD PTR [edx+240]
  02b5d	50		 push	 eax
  02b5e	8b 4d 08	 mov	 ecx, DWORD PTR _lpObj$[ebp]
  02b61	83 c1 77	 add	 ecx, 119		; 00000077H
  02b64	51		 push	 ecx
  02b65	8b 55 08	 mov	 edx, DWORD PTR _lpObj$[ebp]
  02b68	83 c2 6c	 add	 edx, 108		; 0000006cH
  02b6b	52		 push	 edx
  02b6c	68 00 00 00 00	 push	 OFFSET ??_C@_0ED@HJNGDDFB@?$FLPlusItemLevel?$FN?5?$FL?$CFs?$FN?$FL?$CFs?$FN?5CBMix?5N@
  02b71	ff 15 00 00 00
	00		 call	 DWORD PTR ?LogAddTD@@3P6AXPADZZA ; LogAddTD
  02b77	83 c4 14	 add	 esp, 20			; 00000014H

; 1154 : 		pMsg.Result = CB_NOT_ENOUGH_ZEN;

  02b7a	c6 85 7f ff ff
	ff 02		 mov	 BYTE PTR _pMsg$[ebp+3], 2

; 1155 : 		DataSend(lpObj->m_Index, (LPBYTE)&pMsg, pMsg.h.size);

  02b81	0f b6 85 7d ff
	ff ff		 movzx	 eax, BYTE PTR _pMsg$[ebp+1]
  02b88	50		 push	 eax
  02b89	8d 8d 7c ff ff
	ff		 lea	 ecx, DWORD PTR _pMsg$[ebp]
  02b8f	51		 push	 ecx
  02b90	8b 55 08	 mov	 edx, DWORD PTR _lpObj$[ebp]
  02b93	8b 02		 mov	 eax, DWORD PTR [edx]
  02b95	50		 push	 eax
  02b96	e8 00 00 00 00	 call	 ?DataSend@@YAHHPAEK@Z	; DataSend
  02b9b	83 c4 0c	 add	 esp, 12			; 0000000cH

; 1156 : 		lpObj->ChaosLock = FALSE;

  02b9e	8b 45 08	 mov	 eax, DWORD PTR _lpObj$[ebp]
  02ba1	c7 80 88 0e 00
	00 00 00 00 00	 mov	 DWORD PTR [eax+3720], 0

; 1157 : 		return TRUE;

  02bab	b8 01 00 00 00	 mov	 eax, 1
  02bb0	e9 4d 0b 00 00	 jmp	 $LN110@PlusItemLe
$LN65@PlusItemLe:

; 1158 : 	}
; 1159 : 
; 1160 : 	lpObj->Money -= lpObj->ChaosMoney;

  02bb5	8b 45 08	 mov	 eax, DWORD PTR _lpObj$[ebp]
  02bb8	8b 4d 08	 mov	 ecx, DWORD PTR _lpObj$[ebp]
  02bbb	8b 90 f0 00 00
	00		 mov	 edx, DWORD PTR [eax+240]
  02bc1	2b 91 80 0e 00
	00		 sub	 edx, DWORD PTR [ecx+3712]
  02bc7	8b 45 08	 mov	 eax, DWORD PTR _lpObj$[ebp]
  02bca	89 90 f0 00 00
	00		 mov	 DWORD PTR [eax+240], edx

; 1161 : 	g_CastleSiegeSync.AddTributeMoney(iChaosTaxMoney);

  02bd0	8b 85 78 ff ff
	ff		 mov	 eax, DWORD PTR _iChaosTaxMoney$[ebp]
  02bd6	50		 push	 eax
  02bd7	b9 00 00 00 00	 mov	 ecx, OFFSET ?g_CastleSiegeSync@@3VCCastleSiegeSync@@A ; g_CastleSiegeSync
  02bdc	e8 00 00 00 00	 call	 ?AddTributeMoney@CCastleSiegeSync@@QAEXH@Z ; CCastleSiegeSync::AddTributeMoney

; 1162 : 	GCMoneySend(lpObj->m_Index, lpObj->Money);

  02be1	8b 45 08	 mov	 eax, DWORD PTR _lpObj$[ebp]
  02be4	8b 88 f0 00 00
	00		 mov	 ecx, DWORD PTR [eax+240]
  02bea	51		 push	 ecx
  02beb	8b 55 08	 mov	 edx, DWORD PTR _lpObj$[ebp]
  02bee	8b 02		 mov	 eax, DWORD PTR [edx]
  02bf0	50		 push	 eax
  02bf1	e8 00 00 00 00	 call	 ?GCMoneySend@@YAXHK@Z	; GCMoneySend
  02bf6	83 c4 08	 add	 esp, 8

; 1163 : 
; 1164 : 	BYTE btMixLevel = 0; //season4.5 add-on (local31 ebp7c)

  02bf9	c6 85 77 ff ff
	ff 00		 mov	 BYTE PTR _btMixLevel$[ebp], 0

; 1165 : 	if( lpObj->pChaosBox[PlusItemPos].IsExtItem() == 1 ||
; 1166 : 		lpObj->pChaosBox[PlusItemPos].IsSetItem() == 1 ||
; 1167 : 		g_kItemSystemFor380.Is380Item(&lpObj->pChaosBox[PlusItemPos]) == 1)

  02c00	8b 4d e0	 mov	 ecx, DWORD PTR _PlusItemPos$[ebp]
  02c03	69 c9 d4 00 00
	00		 imul	 ecx, 212		; 000000d4H
  02c09	8b 45 08	 mov	 eax, DWORD PTR _lpObj$[ebp]
  02c0c	03 88 78 0e 00
	00		 add	 ecx, DWORD PTR [eax+3704]
  02c12	e8 00 00 00 00	 call	 ?IsExtItem@CItem@@QAEHXZ ; CItem::IsExtItem
  02c17	83 f8 01	 cmp	 eax, 1
  02c1a	74 3e		 je	 SHORT $LN63@PlusItemLe
  02c1c	8b 4d e0	 mov	 ecx, DWORD PTR _PlusItemPos$[ebp]
  02c1f	69 c9 d4 00 00
	00		 imul	 ecx, 212		; 000000d4H
  02c25	8b 45 08	 mov	 eax, DWORD PTR _lpObj$[ebp]
  02c28	03 88 78 0e 00
	00		 add	 ecx, DWORD PTR [eax+3704]
  02c2e	e8 00 00 00 00	 call	 ?IsSetItem@CItem@@QAEHXZ ; CItem::IsSetItem
  02c33	83 f8 01	 cmp	 eax, 1
  02c36	74 22		 je	 SHORT $LN63@PlusItemLe
  02c38	8b 45 e0	 mov	 eax, DWORD PTR _PlusItemPos$[ebp]
  02c3b	69 c0 d4 00 00
	00		 imul	 eax, 212		; 000000d4H
  02c41	8b 4d 08	 mov	 ecx, DWORD PTR _lpObj$[ebp]
  02c44	03 81 78 0e 00
	00		 add	 eax, DWORD PTR [ecx+3704]
  02c4a	50		 push	 eax
  02c4b	b9 00 00 00 00	 mov	 ecx, OFFSET ?g_kItemSystemFor380@@3VCItemSystemFor380@@A ; g_kItemSystemFor380
  02c50	e8 00 00 00 00	 call	 ?Is380Item@CItemSystemFor380@@QAEHPBVCItem@@@Z ; CItemSystemFor380::Is380Item
  02c55	83 f8 01	 cmp	 eax, 1
  02c58	75 09		 jne	 SHORT $LN64@PlusItemLe
$LN63@PlusItemLe:

; 1168 : 	{
; 1169 : 		btMixLevel = 2;

  02c5a	c6 85 77 ff ff
	ff 02		 mov	 BYTE PTR _btMixLevel$[ebp], 2

; 1170 : 	}
; 1171 : 	else

  02c61	eb 07		 jmp	 SHORT $LN62@PlusItemLe
$LN64@PlusItemLe:

; 1172 : 	{
; 1173 : 		btMixLevel = 1;

  02c63	c6 85 77 ff ff
	ff 01		 mov	 BYTE PTR _btMixLevel$[ebp], 1
$LN62@PlusItemLe:

; 1174 : 	}
; 1175 : 
; 1176 : 	//season4.5 add-on
; 1177 : 	if(g_SocketOption.IsSocketOption(&lpObj->pChaosBox[PlusItemPos]) == 1)

  02c6a	8b 45 e0	 mov	 eax, DWORD PTR _PlusItemPos$[ebp]
  02c6d	69 c0 d4 00 00
	00		 imul	 eax, 212		; 000000d4H
  02c73	8b 4d 08	 mov	 ecx, DWORD PTR _lpObj$[ebp]
  02c76	03 81 78 0e 00
	00		 add	 eax, DWORD PTR [ecx+3704]
  02c7c	50		 push	 eax
  02c7d	b9 00 00 00 00	 mov	 ecx, OFFSET ?g_SocketOption@@3VCSocketOption@@A ; g_SocketOption
  02c82	e8 00 00 00 00	 call	 ?IsSocketOption@CSocketOption@@QAEEPAVCItem@@@Z ; CSocketOption::IsSocketOption
  02c87	0f b6 d0	 movzx	 edx, al
  02c8a	83 fa 01	 cmp	 edx, 1
  02c8d	75 07		 jne	 SHORT $LN61@PlusItemLe

; 1178 : 	{
; 1179 : 		btMixLevel = 3;

  02c8f	c6 85 77 ff ff
	ff 03		 mov	 BYTE PTR _btMixLevel$[ebp], 3
$LN61@PlusItemLe:

; 1180 : 	}
; 1181 : 
; 1182 : 	//season4.5 add-on
; 1183 : 	if( (lpObj->pChaosBox[PlusItemPos].m_Type >= ITEMGET(12,0) && lpObj->pChaosBox[PlusItemPos].m_Type <= ITEMGET(12,6)) || 
; 1184 : 		(lpObj->pChaosBox[PlusItemPos].m_Type >= ITEMGET(12,36) && lpObj->pChaosBox[PlusItemPos].m_Type <= ITEMGET(12,43)) || 
; 1185 : 		lpObj->pChaosBox[PlusItemPos].m_Type == ITEMGET(13,30))

  02c96	8b 45 e0	 mov	 eax, DWORD PTR _PlusItemPos$[ebp]
  02c99	69 c0 d4 00 00
	00		 imul	 eax, 212		; 000000d4H
  02c9f	8b 4d 08	 mov	 ecx, DWORD PTR _lpObj$[ebp]
  02ca2	8b 91 78 0e 00
	00		 mov	 edx, DWORD PTR [ecx+3704]
  02ca8	0f bf 44 02 06	 movsx	 eax, WORD PTR [edx+eax+6]
  02cad	3d 00 18 00 00	 cmp	 eax, 6144		; 00001800H
  02cb2	7c 1e		 jl	 SHORT $LN58@PlusItemLe
  02cb4	8b 45 e0	 mov	 eax, DWORD PTR _PlusItemPos$[ebp]
  02cb7	69 c0 d4 00 00
	00		 imul	 eax, 212		; 000000d4H
  02cbd	8b 4d 08	 mov	 ecx, DWORD PTR _lpObj$[ebp]
  02cc0	8b 91 78 0e 00
	00		 mov	 edx, DWORD PTR [ecx+3704]
  02cc6	0f bf 44 02 06	 movsx	 eax, WORD PTR [edx+eax+6]
  02ccb	3d 06 18 00 00	 cmp	 eax, 6150		; 00001806H
  02cd0	7e 5a		 jle	 SHORT $LN59@PlusItemLe
$LN58@PlusItemLe:
  02cd2	8b 45 e0	 mov	 eax, DWORD PTR _PlusItemPos$[ebp]
  02cd5	69 c0 d4 00 00
	00		 imul	 eax, 212		; 000000d4H
  02cdb	8b 4d 08	 mov	 ecx, DWORD PTR _lpObj$[ebp]
  02cde	8b 91 78 0e 00
	00		 mov	 edx, DWORD PTR [ecx+3704]
  02ce4	0f bf 44 02 06	 movsx	 eax, WORD PTR [edx+eax+6]
  02ce9	3d 24 18 00 00	 cmp	 eax, 6180		; 00001824H
  02cee	7c 1e		 jl	 SHORT $LN57@PlusItemLe
  02cf0	8b 45 e0	 mov	 eax, DWORD PTR _PlusItemPos$[ebp]
  02cf3	69 c0 d4 00 00
	00		 imul	 eax, 212		; 000000d4H
  02cf9	8b 4d 08	 mov	 ecx, DWORD PTR _lpObj$[ebp]
  02cfc	8b 91 78 0e 00
	00		 mov	 edx, DWORD PTR [ecx+3704]
  02d02	0f bf 44 02 06	 movsx	 eax, WORD PTR [edx+eax+6]
  02d07	3d 2b 18 00 00	 cmp	 eax, 6187		; 0000182bH
  02d0c	7e 1e		 jle	 SHORT $LN59@PlusItemLe
$LN57@PlusItemLe:
  02d0e	8b 45 e0	 mov	 eax, DWORD PTR _PlusItemPos$[ebp]
  02d11	69 c0 d4 00 00
	00		 imul	 eax, 212		; 000000d4H
  02d17	8b 4d 08	 mov	 ecx, DWORD PTR _lpObj$[ebp]
  02d1a	8b 91 78 0e 00
	00		 mov	 edx, DWORD PTR [ecx+3704]
  02d20	0f bf 44 02 06	 movsx	 eax, WORD PTR [edx+eax+6]
  02d25	3d 1e 1a 00 00	 cmp	 eax, 6686		; 00001a1eH
  02d2a	75 07		 jne	 SHORT $LN60@PlusItemLe
$LN59@PlusItemLe:

; 1186 : 	{
; 1187 : 		btMixLevel = 1;

  02d2c	c6 85 77 ff ff
	ff 01		 mov	 BYTE PTR _btMixLevel$[ebp], 1
$LN60@PlusItemLe:

; 1188 : 	}
; 1189 : 
; 1190 : #ifdef NEWWINGS_2_5
; 1191 : 	if( IS_NEWWINGS_2_5(lpObj->pChaosBox[PlusItemPos].m_Type) )

  02d33	8b 45 e0	 mov	 eax, DWORD PTR _PlusItemPos$[ebp]
  02d36	69 c0 d4 00 00
	00		 imul	 eax, 212		; 000000d4H
  02d3c	8b 4d 08	 mov	 ecx, DWORD PTR _lpObj$[ebp]
  02d3f	8b 91 78 0e 00
	00		 mov	 edx, DWORD PTR [ecx+3704]
  02d45	0f bf 44 02 06	 movsx	 eax, WORD PTR [edx+eax+6]
  02d4a	3d ba 18 00 00	 cmp	 eax, 6330		; 000018baH
  02d4f	7d 0c		 jge	 SHORT $LN112@PlusItemLe
  02d51	c7 85 48 fe ff
	ff 00 00 00 00	 mov	 DWORD PTR tv429[ebp], 0
  02d5b	eb 28		 jmp	 SHORT $LN113@PlusItemLe
$LN112@PlusItemLe:
  02d5d	8b 4d e0	 mov	 ecx, DWORD PTR _PlusItemPos$[ebp]
  02d60	69 c9 d4 00 00
	00		 imul	 ecx, 212		; 000000d4H
  02d66	8b 55 08	 mov	 edx, DWORD PTR _lpObj$[ebp]
  02d69	8b 82 78 0e 00
	00		 mov	 eax, DWORD PTR [edx+3704]
  02d6f	0f bf 4c 08 06	 movsx	 ecx, WORD PTR [eax+ecx+6]
  02d74	33 d2		 xor	 edx, edx
  02d76	81 f9 bc 18 00
	00		 cmp	 ecx, 6332		; 000018bcH
  02d7c	0f 9e c2	 setle	 dl
  02d7f	89 95 48 fe ff
	ff		 mov	 DWORD PTR tv429[ebp], edx
$LN113@PlusItemLe:
  02d85	83 bd 48 fe ff
	ff 00		 cmp	 DWORD PTR tv429[ebp], 0
  02d8c	74 07		 je	 SHORT $LN56@PlusItemLe

; 1192 : 	{
; 1193 : 		btMixLevel = 1;

  02d8e	c6 85 77 ff ff
	ff 01		 mov	 BYTE PTR _btMixLevel$[ebp], 1
$LN56@PlusItemLe:

; 1194 : 	}
; 1195 : #endif
; 1196 : 
; 1197 : #ifdef NEWWINGS_4
; 1198 : 	if( IS_NEWWINGS_4(lpObj->pChaosBox[PlusItemPos].m_Type) )

  02d95	8b 45 e0	 mov	 eax, DWORD PTR _PlusItemPos$[ebp]
  02d98	69 c0 d4 00 00
	00		 imul	 eax, 212		; 000000d4H
  02d9e	8b 4d 08	 mov	 ecx, DWORD PTR _lpObj$[ebp]
  02da1	8b 91 78 0e 00
	00		 mov	 edx, DWORD PTR [ecx+3704]
  02da7	0f bf 44 02 06	 movsx	 eax, WORD PTR [edx+eax+6]
  02dac	3d b4 18 00 00	 cmp	 eax, 6324		; 000018b4H
  02db1	7d 0c		 jge	 SHORT $LN114@PlusItemLe
  02db3	c7 85 48 fe ff
	ff 00 00 00 00	 mov	 DWORD PTR tv444[ebp], 0
  02dbd	eb 28		 jmp	 SHORT $LN115@PlusItemLe
$LN114@PlusItemLe:
  02dbf	8b 4d e0	 mov	 ecx, DWORD PTR _PlusItemPos$[ebp]
  02dc2	69 c9 d4 00 00
	00		 imul	 ecx, 212		; 000000d4H
  02dc8	8b 55 08	 mov	 edx, DWORD PTR _lpObj$[ebp]
  02dcb	8b 82 78 0e 00
	00		 mov	 eax, DWORD PTR [edx+3704]
  02dd1	0f bf 4c 08 06	 movsx	 ecx, WORD PTR [eax+ecx+6]
  02dd6	33 d2		 xor	 edx, edx
  02dd8	81 f9 b9 18 00
	00		 cmp	 ecx, 6329		; 000018b9H
  02dde	0f 9e c2	 setle	 dl
  02de1	89 95 48 fe ff
	ff		 mov	 DWORD PTR tv444[ebp], edx
$LN115@PlusItemLe:
  02de7	83 bd 48 fe ff
	ff 00		 cmp	 DWORD PTR tv444[ebp], 0
  02dee	74 07		 je	 SHORT $LN55@PlusItemLe

; 1199 : 	{
; 1200 : 		btMixLevel = 1;

  02df0	c6 85 77 ff ff
	ff 01		 mov	 BYTE PTR _btMixLevel$[ebp], 1
$LN55@PlusItemLe:

; 1201 : 	}
; 1202 : #endif
; 1203 : 
; 1204 : #ifdef NEWWINGS_5
; 1205 : 	if( IS_NEWWINGS_5(lpObj->pChaosBox[PlusItemPos].m_Type) )

  02df7	8b 45 e0	 mov	 eax, DWORD PTR _PlusItemPos$[ebp]
  02dfa	69 c0 d4 00 00
	00		 imul	 eax, 212		; 000000d4H
  02e00	8b 4d 08	 mov	 ecx, DWORD PTR _lpObj$[ebp]
  02e03	8b 91 78 0e 00
	00		 mov	 edx, DWORD PTR [ecx+3704]
  02e09	0f bf 44 02 06	 movsx	 eax, WORD PTR [edx+eax+6]
  02e0e	3d bd 18 00 00	 cmp	 eax, 6333		; 000018bdH
  02e13	7d 0c		 jge	 SHORT $LN116@PlusItemLe
  02e15	c7 85 48 fe ff
	ff 00 00 00 00	 mov	 DWORD PTR tv459[ebp], 0
  02e1f	eb 28		 jmp	 SHORT $LN117@PlusItemLe
$LN116@PlusItemLe:
  02e21	8b 4d e0	 mov	 ecx, DWORD PTR _PlusItemPos$[ebp]
  02e24	69 c9 d4 00 00
	00		 imul	 ecx, 212		; 000000d4H
  02e2a	8b 55 08	 mov	 edx, DWORD PTR _lpObj$[ebp]
  02e2d	8b 82 78 0e 00
	00		 mov	 eax, DWORD PTR [edx+3704]
  02e33	0f bf 4c 08 06	 movsx	 ecx, WORD PTR [eax+ecx+6]
  02e38	33 d2		 xor	 edx, edx
  02e3a	81 f9 c2 18 00
	00		 cmp	 ecx, 6338		; 000018c2H
  02e40	0f 9e c2	 setle	 dl
  02e43	89 95 48 fe ff
	ff		 mov	 DWORD PTR tv459[ebp], edx
$LN117@PlusItemLe:
  02e49	83 bd 48 fe ff
	ff 00		 cmp	 DWORD PTR tv459[ebp], 0
  02e50	74 07		 je	 SHORT $LN54@PlusItemLe

; 1206 : 	{
; 1207 : 		btMixLevel = 1;

  02e52	c6 85 77 ff ff
	ff 01		 mov	 BYTE PTR _btMixLevel$[ebp], 1
$LN54@PlusItemLe:

; 1208 : 	}
; 1209 : #endif
; 1210 : #ifdef NEWWINGS_6
; 1211 : 	if( IS_NEWWINGS_6(lpObj->pChaosBox[PlusItemPos].m_Type) )

  02e59	8b 45 e0	 mov	 eax, DWORD PTR _PlusItemPos$[ebp]
  02e5c	69 c0 d4 00 00
	00		 imul	 eax, 212		; 000000d4H
  02e62	8b 4d 08	 mov	 ecx, DWORD PTR _lpObj$[ebp]
  02e65	8b 91 78 0e 00
	00		 mov	 edx, DWORD PTR [ecx+3704]
  02e6b	0f bf 44 02 06	 movsx	 eax, WORD PTR [edx+eax+6]
  02e70	3d c3 18 00 00	 cmp	 eax, 6339		; 000018c3H
  02e75	7d 0c		 jge	 SHORT $LN118@PlusItemLe
  02e77	c7 85 48 fe ff
	ff 00 00 00 00	 mov	 DWORD PTR tv474[ebp], 0
  02e81	eb 28		 jmp	 SHORT $LN119@PlusItemLe
$LN118@PlusItemLe:
  02e83	8b 4d e0	 mov	 ecx, DWORD PTR _PlusItemPos$[ebp]
  02e86	69 c9 d4 00 00
	00		 imul	 ecx, 212		; 000000d4H
  02e8c	8b 55 08	 mov	 edx, DWORD PTR _lpObj$[ebp]
  02e8f	8b 82 78 0e 00
	00		 mov	 eax, DWORD PTR [edx+3704]
  02e95	0f bf 4c 08 06	 movsx	 ecx, WORD PTR [eax+ecx+6]
  02e9a	33 d2		 xor	 edx, edx
  02e9c	81 f9 dc 18 00
	00		 cmp	 ecx, 6364		; 000018dcH
  02ea2	0f 9e c2	 setle	 dl
  02ea5	89 95 48 fe ff
	ff		 mov	 DWORD PTR tv474[ebp], edx
$LN119@PlusItemLe:
  02eab	83 bd 48 fe ff
	ff 00		 cmp	 DWORD PTR tv474[ebp], 0
  02eb2	74 07		 je	 SHORT $LN53@PlusItemLe

; 1212 : 	{
; 1213 : 		btMixLevel = 1;

  02eb4	c6 85 77 ff ff
	ff 01		 mov	 BYTE PTR _btMixLevel$[ebp], 1
$LN53@PlusItemLe:

; 1214 : 	}
; 1215 : #endif
; 1216 : 	if ( lpObj->pChaosBox[PlusItemPos].m_Level == 9 )

  02ebb	8b 45 e0	 mov	 eax, DWORD PTR _PlusItemPos$[ebp]
  02ebe	69 c0 d4 00 00
	00		 imul	 eax, 212		; 000000d4H
  02ec4	8b 4d 08	 mov	 ecx, DWORD PTR _lpObj$[ebp]
  02ec7	8b 91 78 0e 00
	00		 mov	 edx, DWORD PTR [ecx+3704]
  02ecd	0f bf 44 02 08	 movsx	 eax, WORD PTR [edx+eax+8]
  02ed2	83 f8 09	 cmp	 eax, 9
  02ed5	75 5a		 jne	 SHORT $LN52@PlusItemLe

; 1217 : 	{
; 1218 : 		if(btMixLevel == 1) //season4.5 add-on

  02ed7	0f b6 85 77 ff
	ff ff		 movzx	 eax, BYTE PTR _btMixLevel$[ebp]
  02ede	83 f8 01	 cmp	 eax, 1
  02ee1	75 11		 jne	 SHORT $LN51@PlusItemLe

; 1219 : 		{
; 1220 : 			//int ExMixNormal10SuccessRate = GetPrivateProfileInt("ChaosMix","MixNormal10SuccessRate",60,"..\\Data\\ExData\\CommonServer.ini");
; 1221 : 			lpObj->ChaosSuccessRate = ExConfig.CommonServer.ExMixNormal10SuccessRate;

  02ee3	8b 45 08	 mov	 eax, DWORD PTR _lpObj$[ebp]
  02ee6	8b 0d 2c 00 00
	00		 mov	 ecx, DWORD PTR ?ExConfig@@3VcExConfigs@@A+44
  02eec	89 88 84 0e 00
	00		 mov	 DWORD PTR [eax+3716], ecx
  02ef2	eb 38		 jmp	 SHORT $LN47@PlusItemLe
$LN51@PlusItemLe:

; 1222 : 		}
; 1223 : 		else if(btMixLevel == 2) //season4.5 add-on

  02ef4	0f b6 85 77 ff
	ff ff		 movzx	 eax, BYTE PTR _btMixLevel$[ebp]
  02efb	83 f8 02	 cmp	 eax, 2
  02efe	75 11		 jne	 SHORT $LN49@PlusItemLe

; 1224 : 		{
; 1225 : 			//int ExMix380AncExc10SuccessRate = GetPrivateProfileInt("ChaosMix","Mix380AncExc10SuccessRate",50,"..\\Data\\ExData\\CommonServer.ini");
; 1226 : 			lpObj->ChaosSuccessRate = ExConfig.CommonServer.ExMix380AncExc10SuccessRate;

  02f00	8b 45 08	 mov	 eax, DWORD PTR _lpObj$[ebp]
  02f03	8b 0d 30 00 00
	00		 mov	 ecx, DWORD PTR ?ExConfig@@3VcExConfigs@@A+48
  02f09	89 88 84 0e 00
	00		 mov	 DWORD PTR [eax+3716], ecx
  02f0f	eb 1b		 jmp	 SHORT $LN47@PlusItemLe
$LN49@PlusItemLe:

; 1227 : 		}
; 1228 : 		else if(btMixLevel == 3) //season4.5 add-on

  02f11	0f b6 85 77 ff
	ff ff		 movzx	 eax, BYTE PTR _btMixLevel$[ebp]
  02f18	83 f8 03	 cmp	 eax, 3
  02f1b	75 0f		 jne	 SHORT $LN47@PlusItemLe

; 1229 : 		{
; 1230 : 			//int ExMixSocket10SuccessRate = GetPrivateProfileInt("ChaosMix","MixSocket10SuccessRate",40,"..\\Data\\ExData\\CommonServer.ini");
; 1231 : 			lpObj->ChaosSuccessRate = ExConfig.CommonServer.ExMixSocket10SuccessRate;

  02f1d	8b 45 08	 mov	 eax, DWORD PTR _lpObj$[ebp]
  02f20	8b 0d 34 00 00
	00		 mov	 ecx, DWORD PTR ?ExConfig@@3VcExConfigs@@A+52
  02f26	89 88 84 0e 00
	00		 mov	 DWORD PTR [eax+3716], ecx
$LN47@PlusItemLe:

; 1232 : 		}
; 1233 : 	}

  02f2c	e9 58 02 00 00	 jmp	 $LN11@PlusItemLe
$LN52@PlusItemLe:

; 1234 : 	else if ( lpObj->pChaosBox[PlusItemPos].m_Level == 10) //season4 changed

  02f31	8b 45 e0	 mov	 eax, DWORD PTR _PlusItemPos$[ebp]
  02f34	69 c0 d4 00 00
	00		 imul	 eax, 212		; 000000d4H
  02f3a	8b 4d 08	 mov	 ecx, DWORD PTR _lpObj$[ebp]
  02f3d	8b 91 78 0e 00
	00		 mov	 edx, DWORD PTR [ecx+3704]
  02f43	0f bf 44 02 08	 movsx	 eax, WORD PTR [edx+eax+8]
  02f48	83 f8 0a	 cmp	 eax, 10			; 0000000aH
  02f4b	75 5a		 jne	 SHORT $LN45@PlusItemLe

; 1235 : 	{
; 1236 : 		if(btMixLevel == 1) //season4.5 add-on

  02f4d	0f b6 85 77 ff
	ff ff		 movzx	 eax, BYTE PTR _btMixLevel$[ebp]
  02f54	83 f8 01	 cmp	 eax, 1
  02f57	75 11		 jne	 SHORT $LN44@PlusItemLe

; 1237 : 		{
; 1238 : 			//int ExMixNormal11SuccessRate = GetPrivateProfileInt("ChaosMix","MixNormal11SuccessRate",60,"..\\Data\\ExData\\CommonServer.ini");
; 1239 : 			lpObj->ChaosSuccessRate = ExConfig.CommonServer.ExMixNormal11SuccessRate;

  02f59	8b 45 08	 mov	 eax, DWORD PTR _lpObj$[ebp]
  02f5c	8b 0d 38 00 00
	00		 mov	 ecx, DWORD PTR ?ExConfig@@3VcExConfigs@@A+56
  02f62	89 88 84 0e 00
	00		 mov	 DWORD PTR [eax+3716], ecx
  02f68	eb 38		 jmp	 SHORT $LN40@PlusItemLe
$LN44@PlusItemLe:

; 1240 : 		}
; 1241 : 		else if(btMixLevel == 2) //season4.5 add-on

  02f6a	0f b6 85 77 ff
	ff ff		 movzx	 eax, BYTE PTR _btMixLevel$[ebp]
  02f71	83 f8 02	 cmp	 eax, 2
  02f74	75 11		 jne	 SHORT $LN42@PlusItemLe

; 1242 : 		{
; 1243 : 			//int ExMix380AncExc11SuccessRate = GetPrivateProfileInt("ChaosMix","Mix380AncExc11SuccessRate",50,"..\\Data\\ExData\\CommonServer.ini");
; 1244 : 			lpObj->ChaosSuccessRate = ExConfig.CommonServer.ExMix380AncExc11SuccessRate;

  02f76	8b 45 08	 mov	 eax, DWORD PTR _lpObj$[ebp]
  02f79	8b 0d 3c 00 00
	00		 mov	 ecx, DWORD PTR ?ExConfig@@3VcExConfigs@@A+60
  02f7f	89 88 84 0e 00
	00		 mov	 DWORD PTR [eax+3716], ecx
  02f85	eb 1b		 jmp	 SHORT $LN40@PlusItemLe
$LN42@PlusItemLe:

; 1245 : 		}
; 1246 : 		else if(btMixLevel == 3) //season4.5 add-on

  02f87	0f b6 85 77 ff
	ff ff		 movzx	 eax, BYTE PTR _btMixLevel$[ebp]
  02f8e	83 f8 03	 cmp	 eax, 3
  02f91	75 0f		 jne	 SHORT $LN40@PlusItemLe

; 1247 : 		{
; 1248 : 			//int ExMixSocket11SuccessRate = GetPrivateProfileInt("ChaosMix","MixSocket11SuccessRate",40,"..\\Data\\ExData\\CommonServer.ini");
; 1249 : 			lpObj->ChaosSuccessRate = ExConfig.CommonServer.ExMixSocket11SuccessRate;

  02f93	8b 45 08	 mov	 eax, DWORD PTR _lpObj$[ebp]
  02f96	8b 0d 40 00 00
	00		 mov	 ecx, DWORD PTR ?ExConfig@@3VcExConfigs@@A+64
  02f9c	89 88 84 0e 00
	00		 mov	 DWORD PTR [eax+3716], ecx
$LN40@PlusItemLe:

; 1250 : 		}
; 1251 : 	}

  02fa2	e9 e2 01 00 00	 jmp	 $LN11@PlusItemLe
$LN45@PlusItemLe:

; 1252 : 	else if (lpObj->pChaosBox[PlusItemPos].m_Level == 11) //season4 changed

  02fa7	8b 45 e0	 mov	 eax, DWORD PTR _PlusItemPos$[ebp]
  02faa	69 c0 d4 00 00
	00		 imul	 eax, 212		; 000000d4H
  02fb0	8b 4d 08	 mov	 ecx, DWORD PTR _lpObj$[ebp]
  02fb3	8b 91 78 0e 00
	00		 mov	 edx, DWORD PTR [ecx+3704]
  02fb9	0f bf 44 02 08	 movsx	 eax, WORD PTR [edx+eax+8]
  02fbe	83 f8 0b	 cmp	 eax, 11			; 0000000bH
  02fc1	75 5a		 jne	 SHORT $LN38@PlusItemLe

; 1253 : 	{
; 1254 : 		if(btMixLevel == 1) //season4.5 add-on

  02fc3	0f b6 85 77 ff
	ff ff		 movzx	 eax, BYTE PTR _btMixLevel$[ebp]
  02fca	83 f8 01	 cmp	 eax, 1
  02fcd	75 11		 jne	 SHORT $LN37@PlusItemLe

; 1255 : 		{
; 1256 : 			//int ExMixNormal12SuccessRate = GetPrivateProfileInt("ChaosMix","MixNormal12SuccessRate",60,"..\\Data\\ExData\\CommonServer.ini");
; 1257 : 			lpObj->ChaosSuccessRate = ExConfig.CommonServer.ExMixNormal12SuccessRate;

  02fcf	8b 45 08	 mov	 eax, DWORD PTR _lpObj$[ebp]
  02fd2	8b 0d 44 00 00
	00		 mov	 ecx, DWORD PTR ?ExConfig@@3VcExConfigs@@A+68
  02fd8	89 88 84 0e 00
	00		 mov	 DWORD PTR [eax+3716], ecx
  02fde	eb 38		 jmp	 SHORT $LN33@PlusItemLe
$LN37@PlusItemLe:

; 1258 : 		}
; 1259 : 		else if(btMixLevel == 2) //season4.5 add-on

  02fe0	0f b6 85 77 ff
	ff ff		 movzx	 eax, BYTE PTR _btMixLevel$[ebp]
  02fe7	83 f8 02	 cmp	 eax, 2
  02fea	75 11		 jne	 SHORT $LN35@PlusItemLe

; 1260 : 		{
; 1261 : 			//int ExMix380AncExc12SuccessRate = GetPrivateProfileInt("ChaosMix","Mix380AncExc12SuccessRate",50,"..\\Data\\ExData\\CommonServer.ini");
; 1262 : 			lpObj->ChaosSuccessRate = ExConfig.CommonServer.ExMix380AncExc12SuccessRate;

  02fec	8b 45 08	 mov	 eax, DWORD PTR _lpObj$[ebp]
  02fef	8b 0d 48 00 00
	00		 mov	 ecx, DWORD PTR ?ExConfig@@3VcExConfigs@@A+72
  02ff5	89 88 84 0e 00
	00		 mov	 DWORD PTR [eax+3716], ecx
  02ffb	eb 1b		 jmp	 SHORT $LN33@PlusItemLe
$LN35@PlusItemLe:

; 1263 : 		}
; 1264 : 		else if(btMixLevel == 3) //season4.5 add-on

  02ffd	0f b6 85 77 ff
	ff ff		 movzx	 eax, BYTE PTR _btMixLevel$[ebp]
  03004	83 f8 03	 cmp	 eax, 3
  03007	75 0f		 jne	 SHORT $LN33@PlusItemLe

; 1265 : 		{
; 1266 : 			//int ExMixSocket12SuccessRate = GetPrivateProfileInt("ChaosMix","MixSocket12SuccessRate",40,"..\\Data\\ExData\\CommonServer.ini");
; 1267 : 			lpObj->ChaosSuccessRate = ExConfig.CommonServer.ExMixSocket12SuccessRate;

  03009	8b 45 08	 mov	 eax, DWORD PTR _lpObj$[ebp]
  0300c	8b 0d 4c 00 00
	00		 mov	 ecx, DWORD PTR ?ExConfig@@3VcExConfigs@@A+76
  03012	89 88 84 0e 00
	00		 mov	 DWORD PTR [eax+3716], ecx
$LN33@PlusItemLe:

; 1268 : 		}
; 1269 : 	}

  03018	e9 6c 01 00 00	 jmp	 $LN11@PlusItemLe
$LN38@PlusItemLe:

; 1270 : 	else if ( lpObj->pChaosBox[PlusItemPos].m_Level == 12) //season4 changed

  0301d	8b 45 e0	 mov	 eax, DWORD PTR _PlusItemPos$[ebp]
  03020	69 c0 d4 00 00
	00		 imul	 eax, 212		; 000000d4H
  03026	8b 4d 08	 mov	 ecx, DWORD PTR _lpObj$[ebp]
  03029	8b 91 78 0e 00
	00		 mov	 edx, DWORD PTR [ecx+3704]
  0302f	0f bf 44 02 08	 movsx	 eax, WORD PTR [edx+eax+8]
  03034	83 f8 0c	 cmp	 eax, 12			; 0000000cH
  03037	75 5a		 jne	 SHORT $LN31@PlusItemLe

; 1271 : 	{
; 1272 : 		if(btMixLevel == 1) //season4.5 add-on

  03039	0f b6 85 77 ff
	ff ff		 movzx	 eax, BYTE PTR _btMixLevel$[ebp]
  03040	83 f8 01	 cmp	 eax, 1
  03043	75 11		 jne	 SHORT $LN30@PlusItemLe

; 1273 : 		{
; 1274 : 			//int ExMixNormal13SuccessRate = GetPrivateProfileInt("ChaosMix","MixNormal13SuccessRate",55,"..\\Data\\ExData\\CommonServer.ini");
; 1275 : 			lpObj->ChaosSuccessRate = ExConfig.CommonServer.ExMixNormal13SuccessRate;

  03045	8b 45 08	 mov	 eax, DWORD PTR _lpObj$[ebp]
  03048	8b 0d 50 00 00
	00		 mov	 ecx, DWORD PTR ?ExConfig@@3VcExConfigs@@A+80
  0304e	89 88 84 0e 00
	00		 mov	 DWORD PTR [eax+3716], ecx
  03054	eb 38		 jmp	 SHORT $LN26@PlusItemLe
$LN30@PlusItemLe:

; 1276 : 		}
; 1277 : 		else if(btMixLevel == 2) //season4.5 add-on

  03056	0f b6 85 77 ff
	ff ff		 movzx	 eax, BYTE PTR _btMixLevel$[ebp]
  0305d	83 f8 02	 cmp	 eax, 2
  03060	75 11		 jne	 SHORT $LN28@PlusItemLe

; 1278 : 		{
; 1279 : 			//int ExMix380AncExc13SuccessRate = GetPrivateProfileInt("ChaosMix","Mix380AncExc13SuccessRate",50,"..\\Data\\ExData\\CommonServer.ini");
; 1280 : 			lpObj->ChaosSuccessRate = ExConfig.CommonServer.ExMix380AncExc13SuccessRate;

  03062	8b 45 08	 mov	 eax, DWORD PTR _lpObj$[ebp]
  03065	8b 0d 54 00 00
	00		 mov	 ecx, DWORD PTR ?ExConfig@@3VcExConfigs@@A+84
  0306b	89 88 84 0e 00
	00		 mov	 DWORD PTR [eax+3716], ecx
  03071	eb 1b		 jmp	 SHORT $LN26@PlusItemLe
$LN28@PlusItemLe:

; 1281 : 		}
; 1282 : 		else if(btMixLevel == 3) //season4.5 add-on

  03073	0f b6 85 77 ff
	ff ff		 movzx	 eax, BYTE PTR _btMixLevel$[ebp]
  0307a	83 f8 03	 cmp	 eax, 3
  0307d	75 0f		 jne	 SHORT $LN26@PlusItemLe

; 1283 : 		{
; 1284 : 			//int ExMixSocket13SuccessRate = GetPrivateProfileInt("ChaosMix","MixSocket13SuccessRate",35,"..\\Data\\ExData\\CommonServer.ini");
; 1285 : 			lpObj->ChaosSuccessRate = ExConfig.CommonServer.ExMixSocket13SuccessRate;

  0307f	8b 45 08	 mov	 eax, DWORD PTR _lpObj$[ebp]
  03082	8b 0d 58 00 00
	00		 mov	 ecx, DWORD PTR ?ExConfig@@3VcExConfigs@@A+88
  03088	89 88 84 0e 00
	00		 mov	 DWORD PTR [eax+3716], ecx
$LN26@PlusItemLe:

; 1286 : 		}
; 1287 : 	}

  0308e	e9 f6 00 00 00	 jmp	 $LN11@PlusItemLe
$LN31@PlusItemLe:

; 1288 : 	else if ( lpObj->pChaosBox[PlusItemPos].m_Level == 13) //Season 5 +15 Items

  03093	8b 45 e0	 mov	 eax, DWORD PTR _PlusItemPos$[ebp]
  03096	69 c0 d4 00 00
	00		 imul	 eax, 212		; 000000d4H
  0309c	8b 4d 08	 mov	 ecx, DWORD PTR _lpObj$[ebp]
  0309f	8b 91 78 0e 00
	00		 mov	 edx, DWORD PTR [ecx+3704]
  030a5	0f bf 44 02 08	 movsx	 eax, WORD PTR [edx+eax+8]
  030aa	83 f8 0d	 cmp	 eax, 13			; 0000000dH
  030ad	75 5a		 jne	 SHORT $LN24@PlusItemLe

; 1289 : 	{
; 1290 : 		if(btMixLevel == 1) 

  030af	0f b6 85 77 ff
	ff ff		 movzx	 eax, BYTE PTR _btMixLevel$[ebp]
  030b6	83 f8 01	 cmp	 eax, 1
  030b9	75 11		 jne	 SHORT $LN23@PlusItemLe

; 1291 : 		{
; 1292 : 			lpObj->ChaosSuccessRate = ExConfig.CommonServer.ExMixNormal14SuccessRate;

  030bb	8b 45 08	 mov	 eax, DWORD PTR _lpObj$[ebp]
  030be	8b 0d 5c 00 00
	00		 mov	 ecx, DWORD PTR ?ExConfig@@3VcExConfigs@@A+92
  030c4	89 88 84 0e 00
	00		 mov	 DWORD PTR [eax+3716], ecx
  030ca	eb 38		 jmp	 SHORT $LN19@PlusItemLe
$LN23@PlusItemLe:

; 1293 : 		}
; 1294 : 		else if(btMixLevel == 2)

  030cc	0f b6 85 77 ff
	ff ff		 movzx	 eax, BYTE PTR _btMixLevel$[ebp]
  030d3	83 f8 02	 cmp	 eax, 2
  030d6	75 11		 jne	 SHORT $LN21@PlusItemLe

; 1295 : 		{
; 1296 : 			lpObj->ChaosSuccessRate = ExConfig.CommonServer.ExMix380AncExc14SuccessRate;

  030d8	8b 45 08	 mov	 eax, DWORD PTR _lpObj$[ebp]
  030db	8b 0d 60 00 00
	00		 mov	 ecx, DWORD PTR ?ExConfig@@3VcExConfigs@@A+96
  030e1	89 88 84 0e 00
	00		 mov	 DWORD PTR [eax+3716], ecx
  030e7	eb 1b		 jmp	 SHORT $LN19@PlusItemLe
$LN21@PlusItemLe:

; 1297 : 		}
; 1298 : 		else if(btMixLevel == 3) 

  030e9	0f b6 85 77 ff
	ff ff		 movzx	 eax, BYTE PTR _btMixLevel$[ebp]
  030f0	83 f8 03	 cmp	 eax, 3
  030f3	75 0f		 jne	 SHORT $LN19@PlusItemLe

; 1299 : 		{
; 1300 : 			lpObj->ChaosSuccessRate = ExConfig.CommonServer.ExMixSocket14SuccessRate;

  030f5	8b 45 08	 mov	 eax, DWORD PTR _lpObj$[ebp]
  030f8	8b 0d 64 00 00
	00		 mov	 ecx, DWORD PTR ?ExConfig@@3VcExConfigs@@A+100
  030fe	89 88 84 0e 00
	00		 mov	 DWORD PTR [eax+3716], ecx
$LN19@PlusItemLe:

; 1301 : 		}
; 1302 : 	}

  03104	e9 80 00 00 00	 jmp	 $LN11@PlusItemLe
$LN24@PlusItemLe:

; 1303 : 	else if ( lpObj->pChaosBox[PlusItemPos].m_Level == 14) //Season 5 +15 Items

  03109	8b 45 e0	 mov	 eax, DWORD PTR _PlusItemPos$[ebp]
  0310c	69 c0 d4 00 00
	00		 imul	 eax, 212		; 000000d4H
  03112	8b 4d 08	 mov	 ecx, DWORD PTR _lpObj$[ebp]
  03115	8b 91 78 0e 00
	00		 mov	 edx, DWORD PTR [ecx+3704]
  0311b	0f bf 44 02 08	 movsx	 eax, WORD PTR [edx+eax+8]
  03120	83 f8 0e	 cmp	 eax, 14			; 0000000eH
  03123	75 57		 jne	 SHORT $LN17@PlusItemLe

; 1304 : 	{
; 1305 : 		if(btMixLevel == 1) 

  03125	0f b6 85 77 ff
	ff ff		 movzx	 eax, BYTE PTR _btMixLevel$[ebp]
  0312c	83 f8 01	 cmp	 eax, 1
  0312f	75 11		 jne	 SHORT $LN16@PlusItemLe

; 1306 : 		{
; 1307 : 			lpObj->ChaosSuccessRate = ExConfig.CommonServer.ExMixNormal15SuccessRate;

  03131	8b 45 08	 mov	 eax, DWORD PTR _lpObj$[ebp]
  03134	8b 0d 68 00 00
	00		 mov	 ecx, DWORD PTR ?ExConfig@@3VcExConfigs@@A+104
  0313a	89 88 84 0e 00
	00		 mov	 DWORD PTR [eax+3716], ecx
  03140	eb 38		 jmp	 SHORT $LN12@PlusItemLe
$LN16@PlusItemLe:

; 1308 : 		}
; 1309 : 		else if(btMixLevel == 2)

  03142	0f b6 85 77 ff
	ff ff		 movzx	 eax, BYTE PTR _btMixLevel$[ebp]
  03149	83 f8 02	 cmp	 eax, 2
  0314c	75 11		 jne	 SHORT $LN14@PlusItemLe

; 1310 : 		{
; 1311 : 			lpObj->ChaosSuccessRate = ExConfig.CommonServer.ExMix380AncExc15SuccessRate;

  0314e	8b 45 08	 mov	 eax, DWORD PTR _lpObj$[ebp]
  03151	8b 0d 6c 00 00
	00		 mov	 ecx, DWORD PTR ?ExConfig@@3VcExConfigs@@A+108
  03157	89 88 84 0e 00
	00		 mov	 DWORD PTR [eax+3716], ecx
  0315d	eb 1b		 jmp	 SHORT $LN12@PlusItemLe
