; Listing generated by Microsoft (R) Optimizing Compiler Version 16.00.40219.01 

	TITLE	D:\Projects\ExTeam6.3\Source\GameServer\GameServer\MonsterBonus.cpp
	.686P
	.XMM
	include listing.inc
	.model	flat

INCLUDELIB LIBCMT
INCLUDELIB OLDNAMES

PUBLIC	??_H@YGXPAXIHP6EPAX0@Z@Z			; `vector constructor iterator'
; Function compile flags: /Odtp /ZI
;	COMDAT ??_H@YGXPAXIHP6EPAX0@Z@Z
_TEXT	SEGMENT
___t$ = 8						; size = 4
___s$ = 12						; size = 4
___n$ = 16						; size = 4
___f$ = 20						; size = 4
??_H@YGXPAXIHP6EPAX0@Z@Z PROC				; `vector constructor iterator', COMDAT
  00000	55		 push	 ebp
  00001	8b ec		 mov	 ebp, esp
  00003	83 ec 40	 sub	 esp, 64			; 00000040H
  00006	53		 push	 ebx
  00007	56		 push	 esi
  00008	57		 push	 edi
$LN2@vector:
  00009	8b 45 10	 mov	 eax, DWORD PTR ___n$[ebp]
  0000c	83 e8 01	 sub	 eax, 1
  0000f	89 45 10	 mov	 DWORD PTR ___n$[ebp], eax
  00012	78 11		 js	 SHORT $LN3@vector
  00014	8b 4d 08	 mov	 ecx, DWORD PTR ___t$[ebp]
  00017	ff 55 14	 call	 DWORD PTR ___f$[ebp]
  0001a	8b 45 08	 mov	 eax, DWORD PTR ___t$[ebp]
  0001d	03 45 0c	 add	 eax, DWORD PTR ___s$[ebp]
  00020	89 45 08	 mov	 DWORD PTR ___t$[ebp], eax
  00023	eb e4		 jmp	 SHORT $LN2@vector
$LN3@vector:
  00025	5f		 pop	 edi
  00026	5e		 pop	 esi
  00027	5b		 pop	 ebx
  00028	8b e5		 mov	 esp, ebp
  0002a	5d		 pop	 ebp
  0002b	c2 10 00	 ret	 16			; 00000010H
??_H@YGXPAXIHP6EPAX0@Z@Z ENDP				; `vector constructor iterator'
_TEXT	ENDS
PUBLIC	??0cMonsterBonus@@QAE@XZ			; cMonsterBonus::cMonsterBonus
EXTRN	_memset:PROC
; Function compile flags: /Odtp /ZI
; File d:\projects\exteam6.3\source\gameserver\gameserver\monsterbonus.cpp
_TEXT	SEGMENT
_this$ = -4						; size = 4
??0cMonsterBonus@@QAE@XZ PROC				; cMonsterBonus::cMonsterBonus
; _this$ = ecx

; 13   : {

  00000	55		 push	 ebp
  00001	8b ec		 mov	 ebp, esp
  00003	83 ec 44	 sub	 esp, 68			; 00000044H
  00006	53		 push	 ebx
  00007	56		 push	 esi
  00008	57		 push	 edi
  00009	89 4d fc	 mov	 DWORD PTR _this$[ebp], ecx

; 14   : 	this->Enable = false;

  0000c	8b 45 fc	 mov	 eax, DWORD PTR _this$[ebp]
  0000f	c6 00 00	 mov	 BYTE PTR [eax], 0

; 15   : 	this->Count = 0;

  00012	8b 45 fc	 mov	 eax, DWORD PTR _this$[ebp]
  00015	c7 80 44 06 00
	00 00 00 00 00	 mov	 DWORD PTR [eax+1604], 0

; 16   : 	ZeroMemory(&this->MobData,sizeof(this->MobData));

  0001f	68 40 06 00 00	 push	 1600			; 00000640H
  00024	6a 00		 push	 0
  00026	8b 45 fc	 mov	 eax, DWORD PTR _this$[ebp]
  00029	83 c0 04	 add	 eax, 4
  0002c	50		 push	 eax
  0002d	e8 00 00 00 00	 call	 _memset
  00032	83 c4 0c	 add	 esp, 12			; 0000000cH

; 17   : }

  00035	8b 45 fc	 mov	 eax, DWORD PTR _this$[ebp]
  00038	5f		 pop	 edi
  00039	5e		 pop	 esi
  0003a	5b		 pop	 ebx
  0003b	8b e5		 mov	 esp, ebp
  0003d	5d		 pop	 ebp
  0003e	c3		 ret	 0
??0cMonsterBonus@@QAE@XZ ENDP				; cMonsterBonus::cMonsterBonus
_TEXT	ENDS
PUBLIC	??1cMonsterBonus@@QAE@XZ			; cMonsterBonus::~cMonsterBonus
; Function compile flags: /Odtp /ZI
_TEXT	SEGMENT
_this$ = -4						; size = 4
??1cMonsterBonus@@QAE@XZ PROC				; cMonsterBonus::~cMonsterBonus
; _this$ = ecx

; 20   : {

  00040	55		 push	 ebp
  00041	8b ec		 mov	 ebp, esp
  00043	83 ec 44	 sub	 esp, 68			; 00000044H
  00046	53		 push	 ebx
  00047	56		 push	 esi
  00048	57		 push	 edi
  00049	89 4d fc	 mov	 DWORD PTR _this$[ebp], ecx

; 21   : 
; 22   : }

  0004c	5f		 pop	 edi
  0004d	5e		 pop	 esi
  0004e	5b		 pop	 ebx
  0004f	8b e5		 mov	 esp, ebp
  00051	5d		 pop	 ebp
  00052	c3		 ret	 0
??1cMonsterBonus@@QAE@XZ ENDP				; cMonsterBonus::~cMonsterBonus
_TEXT	ENDS
PUBLIC	??_C@_08OOHKHLPO@?$CFd?5?$CFd?5?$CFd?$AA@	; `string'
PUBLIC	??_C@_0M@FMGEODLN@?$CFd?5?$CFd?5?$CFd?5?$CFd?$AA@ ; `string'
PUBLIC	??_C@_0BA@PIOFNAIM@LOAD?5FILE?5ERROR?$AA@	; `string'
PUBLIC	??_C@_01KDCPPGHE@r?$AA@				; `string'
PUBLIC	??_C@_06MLPMCPDE@ExTeam?$AA@			; `string'
PUBLIC	??_C@_06CKGENIKG@Enable?$AA@			; `string'
PUBLIC	??_C@_0CA@NIKEIIMN@?4?4?2Data?2ExData?2MonsterBonus?4ini?$AA@ ; `string'
PUBLIC	__$ArrayPad$
PUBLIC	?Load@cMonsterBonus@@QAEXXZ			; cMonsterBonus::Load
EXTRN	_fclose:PROC
EXTRN	_sscanf:PROC
EXTRN	?CheckUser@CExLicense@@QAE_NH@Z:PROC		; CExLicense::CheckUser
EXTRN	?g_ExLicense@@3VCExLicense@@A:BYTE		; g_ExLicense
EXTRN	?Ex_IsBadFileLine@@YA_NPADAAH@Z:PROC		; Ex_IsBadFileLine
EXTRN	_fgets:PROC
EXTRN	_feof:PROC
EXTRN	__imp__MessageBoxA@16:PROC
EXTRN	_fopen:PROC
EXTRN	__imp__GetPrivateProfileIntA@16:PROC
EXTRN	___security_cookie:DWORD
EXTRN	@__security_check_cookie@4:PROC
;	COMDAT ??_C@_08OOHKHLPO@?$CFd?5?$CFd?5?$CFd?$AA@
CONST	SEGMENT
??_C@_08OOHKHLPO@?$CFd?5?$CFd?5?$CFd?$AA@ DB '%d %d %d', 00H ; `string'
CONST	ENDS
;	COMDAT ??_C@_0M@FMGEODLN@?$CFd?5?$CFd?5?$CFd?5?$CFd?$AA@
CONST	SEGMENT
??_C@_0M@FMGEODLN@?$CFd?5?$CFd?5?$CFd?5?$CFd?$AA@ DB '%d %d %d %d', 00H ; `string'
CONST	ENDS
;	COMDAT ??_C@_0BA@PIOFNAIM@LOAD?5FILE?5ERROR?$AA@
CONST	SEGMENT
??_C@_0BA@PIOFNAIM@LOAD?5FILE?5ERROR?$AA@ DB 'LOAD FILE ERROR', 00H ; `string'
CONST	ENDS
;	COMDAT ??_C@_01KDCPPGHE@r?$AA@
CONST	SEGMENT
??_C@_01KDCPPGHE@r?$AA@ DB 'r', 00H			; `string'
CONST	ENDS
;	COMDAT ??_C@_06MLPMCPDE@ExTeam?$AA@
CONST	SEGMENT
??_C@_06MLPMCPDE@ExTeam?$AA@ DB 'ExTeam', 00H		; `string'
CONST	ENDS
;	COMDAT ??_C@_06CKGENIKG@Enable?$AA@
CONST	SEGMENT
??_C@_06CKGENIKG@Enable?$AA@ DB 'Enable', 00H		; `string'
CONST	ENDS
;	COMDAT ??_C@_0CA@NIKEIIMN@?4?4?2Data?2ExData?2MonsterBonus?4ini?$AA@
CONST	SEGMENT
??_C@_0CA@NIKEIIMN@?4?4?2Data?2ExData?2MonsterBonus?4ini?$AA@ DB '..\Data'
	DB	'\ExData\MonsterBonus.ini', 00H		; `string'
; Function compile flags: /Odtp /ZI
CONST	ENDS
_TEXT	SEGMENT
_n$220398 = -300					; size = 12
_n$220395 = -288					; size = 16
_Flag$ = -272						; size = 4
_Buff$ = -268						; size = 256
_file$ = -12						; size = 4
_this$ = -8						; size = 4
__$ArrayPad$ = -4					; size = 4
?Load@cMonsterBonus@@QAEXXZ PROC			; cMonsterBonus::Load
; _this$ = ecx

; 25   : {

  00060	55		 push	 ebp
  00061	8b ec		 mov	 ebp, esp
  00063	81 ec 6c 01 00
	00		 sub	 esp, 364		; 0000016cH
  00069	a1 00 00 00 00	 mov	 eax, DWORD PTR ___security_cookie
  0006e	33 c5		 xor	 eax, ebp
  00070	89 45 fc	 mov	 DWORD PTR __$ArrayPad$[ebp], eax
  00073	53		 push	 ebx
  00074	56		 push	 esi
  00075	57		 push	 edi
  00076	89 4d f8	 mov	 DWORD PTR _this$[ebp], ecx

; 26   : 	this->Enable = GetPrivateProfileInt("ExTeam","Enable",0,MOB_BONUS_DIR);

  00079	68 00 00 00 00	 push	 OFFSET ??_C@_0CA@NIKEIIMN@?4?4?2Data?2ExData?2MonsterBonus?4ini?$AA@
  0007e	6a 00		 push	 0
  00080	68 00 00 00 00	 push	 OFFSET ??_C@_06CKGENIKG@Enable?$AA@
  00085	68 00 00 00 00	 push	 OFFSET ??_C@_06MLPMCPDE@ExTeam?$AA@
  0008a	ff 15 00 00 00
	00		 call	 DWORD PTR __imp__GetPrivateProfileIntA@16
  00090	85 c0		 test	 eax, eax
  00092	0f 95 c0	 setne	 al
  00095	8b 4d f8	 mov	 ecx, DWORD PTR _this$[ebp]
  00098	88 01		 mov	 BYTE PTR [ecx], al

; 27   : 
; 28   : 	FILE * file = fopen(MOB_BONUS_DIR,"r");

  0009a	68 00 00 00 00	 push	 OFFSET ??_C@_01KDCPPGHE@r?$AA@
  0009f	68 00 00 00 00	 push	 OFFSET ??_C@_0CA@NIKEIIMN@?4?4?2Data?2ExData?2MonsterBonus?4ini?$AA@
  000a4	e8 00 00 00 00	 call	 _fopen
  000a9	83 c4 08	 add	 esp, 8
  000ac	89 45 f4	 mov	 DWORD PTR _file$[ebp], eax

; 29   : 	if(file == NULL)

  000af	83 7d f4 00	 cmp	 DWORD PTR _file$[ebp], 0
  000b3	75 1f		 jne	 SHORT $LN9@Load

; 30   : 	{
; 31   : 		MessageBoxA(0,MOB_BONUS_DIR,"LOAD FILE ERROR",0);

  000b5	6a 00		 push	 0
  000b7	68 00 00 00 00	 push	 OFFSET ??_C@_0BA@PIOFNAIM@LOAD?5FILE?5ERROR?$AA@
  000bc	68 00 00 00 00	 push	 OFFSET ??_C@_0CA@NIKEIIMN@?4?4?2Data?2ExData?2MonsterBonus?4ini?$AA@
  000c1	6a 00		 push	 0
  000c3	ff 15 00 00 00
	00		 call	 DWORD PTR __imp__MessageBoxA@16

; 32   : 		this->Enable = false;

  000c9	8b 45 f8	 mov	 eax, DWORD PTR _this$[ebp]
  000cc	c6 00 00	 mov	 BYTE PTR [eax], 0

; 33   : 		return;

  000cf	e9 ef 01 00 00	 jmp	 $LN10@Load
$LN9@Load:

; 34   : 	}
; 35   : 
; 36   : 	char Buff[256];
; 37   : 	int Flag = 0;

  000d4	c7 85 f0 fe ff
	ff 00 00 00 00	 mov	 DWORD PTR _Flag$[ebp], 0

; 38   : 	this->Count = 0;

  000de	8b 45 f8	 mov	 eax, DWORD PTR _this$[ebp]
  000e1	c7 80 44 06 00
	00 00 00 00 00	 mov	 DWORD PTR [eax+1604], 0
$LN8@Load:

; 39   : 
; 40   : 	while(!feof(file))

  000eb	8b 45 f4	 mov	 eax, DWORD PTR _file$[ebp]
  000ee	50		 push	 eax
  000ef	e8 00 00 00 00	 call	 _feof
  000f4	83 c4 04	 add	 esp, 4
  000f7	85 c0		 test	 eax, eax
  000f9	0f 85 b8 01 00
	00		 jne	 $LN7@Load

; 41   : 	{
; 42   : 		fgets(Buff,256,file);

  000ff	8b 45 f4	 mov	 eax, DWORD PTR _file$[ebp]
  00102	50		 push	 eax
  00103	68 00 01 00 00	 push	 256			; 00000100H
  00108	8d 8d f4 fe ff
	ff		 lea	 ecx, DWORD PTR _Buff$[ebp]
  0010e	51		 push	 ecx
  0010f	e8 00 00 00 00	 call	 _fgets
  00114	83 c4 0c	 add	 esp, 12			; 0000000cH

; 43   : 		if(Ex_IsBadFileLine(Buff, Flag))

  00117	8d 85 f0 fe ff
	ff		 lea	 eax, DWORD PTR _Flag$[ebp]
  0011d	50		 push	 eax
  0011e	8d 8d f4 fe ff
	ff		 lea	 ecx, DWORD PTR _Buff$[ebp]
  00124	51		 push	 ecx
  00125	e8 00 00 00 00	 call	 ?Ex_IsBadFileLine@@YA_NPADAAH@Z ; Ex_IsBadFileLine
  0012a	83 c4 08	 add	 esp, 8
  0012d	0f b6 d0	 movzx	 edx, al
  00130	85 d2		 test	 edx, edx
  00132	74 02		 je	 SHORT $LN6@Load

; 44   : 			continue;

  00134	eb b5		 jmp	 SHORT $LN8@Load
$LN6@Load:

; 45   : 		if(Flag == 1)

  00136	83 bd f0 fe ff
	ff 01		 cmp	 DWORD PTR _Flag$[ebp], 1
  0013d	0f 85 6f 01 00
	00		 jne	 $LN5@Load

; 46   : 		{
; 47   : 			if(g_ExLicense.CheckUser(eExUB::ulasevich) || g_ExLicense.CheckUser(eExUB::ulasevich2))

  00143	6a 17		 push	 23			; 00000017H
  00145	b9 00 00 00 00	 mov	 ecx, OFFSET ?g_ExLicense@@3VCExLicense@@A ; g_ExLicense
  0014a	e8 00 00 00 00	 call	 ?CheckUser@CExLicense@@QAE_NH@Z ; CExLicense::CheckUser
  0014f	0f b6 c0	 movzx	 eax, al
  00152	85 c0		 test	 eax, eax
  00154	75 17		 jne	 SHORT $LN3@Load
  00156	6a 24		 push	 36			; 00000024H
  00158	b9 00 00 00 00	 mov	 ecx, OFFSET ?g_ExLicense@@3VCExLicense@@A ; g_ExLicense
  0015d	e8 00 00 00 00	 call	 ?CheckUser@CExLicense@@QAE_NH@Z ; CExLicense::CheckUser
  00162	0f b6 c0	 movzx	 eax, al
  00165	85 c0		 test	 eax, eax
  00167	0f 84 ae 00 00
	00		 je	 $LN4@Load
$LN3@Load:

; 48   : 			{
; 49   : 				int n[4];
; 50   : 				sscanf(Buff, "%d %d %d %d", &n[0], &n[1], &n[2], &n[3]);

  0016d	8d 85 ec fe ff
	ff		 lea	 eax, DWORD PTR _n$220395[ebp+12]
  00173	50		 push	 eax
  00174	8d 8d e8 fe ff
	ff		 lea	 ecx, DWORD PTR _n$220395[ebp+8]
  0017a	51		 push	 ecx
  0017b	8d 95 e4 fe ff
	ff		 lea	 edx, DWORD PTR _n$220395[ebp+4]
  00181	52		 push	 edx
  00182	8d 85 e0 fe ff
	ff		 lea	 eax, DWORD PTR _n$220395[ebp]
  00188	50		 push	 eax
  00189	68 00 00 00 00	 push	 OFFSET ??_C@_0M@FMGEODLN@?$CFd?5?$CFd?5?$CFd?5?$CFd?$AA@
  0018e	8d 8d f4 fe ff
	ff		 lea	 ecx, DWORD PTR _Buff$[ebp]
  00194	51		 push	 ecx
  00195	e8 00 00 00 00	 call	 _sscanf
  0019a	83 c4 18	 add	 esp, 24			; 00000018H

; 51   : 				this->MobData[this->Count].MobID = n[0];

  0019d	8b 45 f8	 mov	 eax, DWORD PTR _this$[ebp]
  001a0	8b 88 44 06 00
	00		 mov	 ecx, DWORD PTR [eax+1604]
  001a6	c1 e1 04	 shl	 ecx, 4
  001a9	8b 55 f8	 mov	 edx, DWORD PTR _this$[ebp]
  001ac	8b 85 e0 fe ff
	ff		 mov	 eax, DWORD PTR _n$220395[ebp]
  001b2	89 44 0a 04	 mov	 DWORD PTR [edx+ecx+4], eax

; 52   : 				this->MobData[this->Count].BonusType = n[1];

  001b6	8b 45 f8	 mov	 eax, DWORD PTR _this$[ebp]
  001b9	8b 88 44 06 00
	00		 mov	 ecx, DWORD PTR [eax+1604]
  001bf	c1 e1 04	 shl	 ecx, 4
  001c2	8b 55 f8	 mov	 edx, DWORD PTR _this$[ebp]
  001c5	8b 85 e4 fe ff
	ff		 mov	 eax, DWORD PTR _n$220395[ebp+4]
  001cb	89 44 0a 08	 mov	 DWORD PTR [edx+ecx+8], eax

; 53   : 				this->MobData[this->Count].BonusCount = n[2];

  001cf	8b 45 f8	 mov	 eax, DWORD PTR _this$[ebp]
  001d2	8b 88 44 06 00
	00		 mov	 ecx, DWORD PTR [eax+1604]
  001d8	c1 e1 04	 shl	 ecx, 4
  001db	8b 55 f8	 mov	 edx, DWORD PTR _this$[ebp]
  001de	8b 85 e8 fe ff
	ff		 mov	 eax, DWORD PTR _n$220395[ebp+8]
  001e4	89 44 0a 0c	 mov	 DWORD PTR [edx+ecx+12], eax

; 54   : 				this->MobData[this->Count].MapNumber = n[3];

  001e8	8b 45 f8	 mov	 eax, DWORD PTR _this$[ebp]
  001eb	8b 88 44 06 00
	00		 mov	 ecx, DWORD PTR [eax+1604]
  001f1	c1 e1 04	 shl	 ecx, 4
  001f4	8b 55 f8	 mov	 edx, DWORD PTR _this$[ebp]
  001f7	8b 85 ec fe ff
	ff		 mov	 eax, DWORD PTR _n$220395[ebp+12]
  001fd	89 44 0a 10	 mov	 DWORD PTR [edx+ecx+16], eax

; 55   : 				this->Count++;

  00201	8b 45 f8	 mov	 eax, DWORD PTR _this$[ebp]
  00204	8b 88 44 06 00
	00		 mov	 ecx, DWORD PTR [eax+1604]
  0020a	83 c1 01	 add	 ecx, 1
  0020d	8b 55 f8	 mov	 edx, DWORD PTR _this$[ebp]
  00210	89 8a 44 06 00
	00		 mov	 DWORD PTR [edx+1604], ecx

; 56   : 			}
; 57   : 			else

  00216	e9 89 00 00 00	 jmp	 $LN2@Load
$LN4@Load:

; 58   : 			{
; 59   : 				int n[3];
; 60   : 				sscanf(Buff, "%d %d %d", &n[0], &n[1], &n[2]);

  0021b	8d 85 dc fe ff
	ff		 lea	 eax, DWORD PTR _n$220398[ebp+8]
  00221	50		 push	 eax
  00222	8d 8d d8 fe ff
	ff		 lea	 ecx, DWORD PTR _n$220398[ebp+4]
  00228	51		 push	 ecx
  00229	8d 95 d4 fe ff
	ff		 lea	 edx, DWORD PTR _n$220398[ebp]
  0022f	52		 push	 edx
  00230	68 00 00 00 00	 push	 OFFSET ??_C@_08OOHKHLPO@?$CFd?5?$CFd?5?$CFd?$AA@
  00235	8d 85 f4 fe ff
	ff		 lea	 eax, DWORD PTR _Buff$[ebp]
  0023b	50		 push	 eax
  0023c	e8 00 00 00 00	 call	 _sscanf
  00241	83 c4 14	 add	 esp, 20			; 00000014H

; 61   : 				this->MobData[this->Count].MobID = n[0];

  00244	8b 45 f8	 mov	 eax, DWORD PTR _this$[ebp]
  00247	8b 88 44 06 00
	00		 mov	 ecx, DWORD PTR [eax+1604]
  0024d	c1 e1 04	 shl	 ecx, 4
  00250	8b 55 f8	 mov	 edx, DWORD PTR _this$[ebp]
  00253	8b 85 d4 fe ff
	ff		 mov	 eax, DWORD PTR _n$220398[ebp]
  00259	89 44 0a 04	 mov	 DWORD PTR [edx+ecx+4], eax

; 62   : 				this->MobData[this->Count].BonusType = n[1];

  0025d	8b 45 f8	 mov	 eax, DWORD PTR _this$[ebp]
  00260	8b 88 44 06 00
	00		 mov	 ecx, DWORD PTR [eax+1604]
  00266	c1 e1 04	 shl	 ecx, 4
  00269	8b 55 f8	 mov	 edx, DWORD PTR _this$[ebp]
  0026c	8b 85 d8 fe ff
	ff		 mov	 eax, DWORD PTR _n$220398[ebp+4]
  00272	89 44 0a 08	 mov	 DWORD PTR [edx+ecx+8], eax

; 63   : 				this->MobData[this->Count].BonusCount = n[2];

  00276	8b 45 f8	 mov	 eax, DWORD PTR _this$[ebp]
  00279	8b 88 44 06 00
	00		 mov	 ecx, DWORD PTR [eax+1604]
  0027f	c1 e1 04	 shl	 ecx, 4
  00282	8b 55 f8	 mov	 edx, DWORD PTR _this$[ebp]
  00285	8b 85 dc fe ff
	ff		 mov	 eax, DWORD PTR _n$220398[ebp+8]
  0028b	89 44 0a 0c	 mov	 DWORD PTR [edx+ecx+12], eax

; 64   : 				this->Count++;

  0028f	8b 45 f8	 mov	 eax, DWORD PTR _this$[ebp]
  00292	8b 88 44 06 00
	00		 mov	 ecx, DWORD PTR [eax+1604]
  00298	83 c1 01	 add	 ecx, 1
  0029b	8b 55 f8	 mov	 edx, DWORD PTR _this$[ebp]
  0029e	89 8a 44 06 00
	00		 mov	 DWORD PTR [edx+1604], ecx
$LN2@Load:

; 65   : 			}
; 66   : 
; 67   : 			if(this->Count >= MAX_MOB_BONUS) break;

  002a4	8b 45 f8	 mov	 eax, DWORD PTR _this$[ebp]
  002a7	83 b8 44 06 00
	00 64		 cmp	 DWORD PTR [eax+1604], 100 ; 00000064H
  002ae	7c 02		 jl	 SHORT $LN5@Load
  002b0	eb 05		 jmp	 SHORT $LN7@Load
$LN5@Load:

; 68   : 		}
; 69   : 	}

  002b2	e9 34 fe ff ff	 jmp	 $LN8@Load
$LN7@Load:

; 70   : 	fclose(file);

  002b7	8b 45 f4	 mov	 eax, DWORD PTR _file$[ebp]
  002ba	50		 push	 eax
  002bb	e8 00 00 00 00	 call	 _fclose
  002c0	83 c4 04	 add	 esp, 4
$LN10@Load:

; 71   : }

  002c3	5f		 pop	 edi
  002c4	5e		 pop	 esi
  002c5	5b		 pop	 ebx
  002c6	8b 4d fc	 mov	 ecx, DWORD PTR __$ArrayPad$[ebp]
  002c9	33 cd		 xor	 ecx, ebp
  002cb	e8 00 00 00 00	 call	 @__security_check_cookie@4
  002d0	8b e5		 mov	 esp, ebp
  002d2	5d		 pop	 ebp
  002d3	c3		 ret	 0
?Load@cMonsterBonus@@QAEXXZ ENDP			; cMonsterBonus::Load
_TEXT	ENDS
PUBLIC	??_C@_0CG@MFFNBMBD@?$EA?$FLPremium?5Status?$FN?5?$CL?$CFd?5Hour?0?5Type@ ; `string'
PUBLIC	??_C@_0CI@JJCDAOOL@?$EA?$FLPremium?5Status?$FN?5?$CL?$CFd?5Hour?0?5Type@ ; `string'
PUBLIC	??_C@_0CI@PBGPAOLC@?$EA?$FLPremium?5Status?$FN?5?$CL?$CFd?5Hour?0?5Type@ ; `string'
PUBLIC	?Main@cMonsterBonus@@QAEXPAUOBJECTSTRUCT@@0@Z	; cMonsterBonus::Main
EXTRN	?MessageChat@@YAXHPADZZ:PROC			; MessageChat
EXTRN	?GDSaveUserInfo@GameShop@@QAEXH@Z:PROC		; GameShop::GDSaveUserInfo
EXTRN	?gGameShop@@3VGameShop@@A:BYTE			; gGameShop
EXTRN	?MsgNormal@@YAXHPADZZ:PROC			; MsgNormal
EXTRN	?GetText@CExText@@QAEPADH@Z:PROC		; CExText::GetText
EXTRN	?g_ExText@@3VCExText@@A:BYTE			; g_ExText
EXTRN	?ExUserDataSend@@YAXH@Z:PROC			; ExUserDataSend
EXTRN	__fltused:DWORD
;	COMDAT ??_C@_0CG@MFFNBMBD@?$EA?$FLPremium?5Status?$FN?5?$CL?$CFd?5Hour?0?5Type@
CONST	SEGMENT
??_C@_0CG@MFFNBMBD@?$EA?$FLPremium?5Status?$FN?5?$CL?$CFd?5Hour?0?5Type@ DB '@'
	DB	'[Premium Status] +%d Hour, Type:Gold', 00H	; `string'
CONST	ENDS
;	COMDAT ??_C@_0CI@JJCDAOOL@?$EA?$FLPremium?5Status?$FN?5?$CL?$CFd?5Hour?0?5Type@
CONST	SEGMENT
??_C@_0CI@JJCDAOOL@?$EA?$FLPremium?5Status?$FN?5?$CL?$CFd?5Hour?0?5Type@ DB '@'
	DB	'[Premium Status] +%d Hour, Type:Silver', 00H ; `string'
CONST	ENDS
;	COMDAT ??_C@_0CI@PBGPAOLC@?$EA?$FLPremium?5Status?$FN?5?$CL?$CFd?5Hour?0?5Type@
CONST	SEGMENT
??_C@_0CI@PBGPAOLC@?$EA?$FLPremium?5Status?$FN?5?$CL?$CFd?5Hour?0?5Type@ DB '@'
	DB	'[Premium Status] +%d Hour, Type:Bronze', 00H ; `string'
; Function compile flags: /Odtp /ZI
CONST	ENDS
_TEXT	SEGMENT
_i$220407 = -8						; size = 4
_this$ = -4						; size = 4
_lpMobObj$ = 8						; size = 4
_lpTargetObj$ = 12					; size = 4
?Main@cMonsterBonus@@QAEXPAUOBJECTSTRUCT@@0@Z PROC	; cMonsterBonus::Main
; _this$ = ecx

; 74   : {

  002e0	55		 push	 ebp
  002e1	8b ec		 mov	 ebp, esp
  002e3	83 ec 48	 sub	 esp, 72			; 00000048H
  002e6	53		 push	 ebx
  002e7	56		 push	 esi
  002e8	57		 push	 edi
  002e9	89 4d fc	 mov	 DWORD PTR _this$[ebp], ecx

; 75   : 	if(!this->Enable) return;

  002ec	8b 45 fc	 mov	 eax, DWORD PTR _this$[ebp]
  002ef	0f b6 08	 movzx	 ecx, BYTE PTR [eax]
  002f2	85 c9		 test	 ecx, ecx
  002f4	75 05		 jne	 SHORT $LN22@Main
  002f6	e9 de 03 00 00	 jmp	 $LN23@Main
$LN22@Main:

; 76   : 	for(int i = 0; i < this->Count; i++)

  002fb	c7 45 f8 00 00
	00 00		 mov	 DWORD PTR _i$220407[ebp], 0
  00302	eb 09		 jmp	 SHORT $LN21@Main
$LN20@Main:
  00304	8b 45 f8	 mov	 eax, DWORD PTR _i$220407[ebp]
  00307	83 c0 01	 add	 eax, 1
  0030a	89 45 f8	 mov	 DWORD PTR _i$220407[ebp], eax
$LN21@Main:
  0030d	8b 45 fc	 mov	 eax, DWORD PTR _this$[ebp]
  00310	8b 4d f8	 mov	 ecx, DWORD PTR _i$220407[ebp]
  00313	3b 88 44 06 00
	00		 cmp	 ecx, DWORD PTR [eax+1604]
  00319	0f 8d ba 03 00
	00		 jge	 $LN19@Main

; 77   : 	{
; 78   : 		if(g_ExLicense.CheckUser(eExUB::ulasevich) || g_ExLicense.CheckUser(eExUB::ulasevich2))

  0031f	6a 17		 push	 23			; 00000017H
  00321	b9 00 00 00 00	 mov	 ecx, OFFSET ?g_ExLicense@@3VCExLicense@@A ; g_ExLicense
  00326	e8 00 00 00 00	 call	 ?CheckUser@CExLicense@@QAE_NH@Z ; CExLicense::CheckUser
  0032b	0f b6 c0	 movzx	 eax, al
  0032e	85 c0		 test	 eax, eax
  00330	75 13		 jne	 SHORT $LN17@Main
  00332	6a 24		 push	 36			; 00000024H
  00334	b9 00 00 00 00	 mov	 ecx, OFFSET ?g_ExLicense@@3VCExLicense@@A ; g_ExLicense
  00339	e8 00 00 00 00	 call	 ?CheckUser@CExLicense@@QAE_NH@Z ; CExLicense::CheckUser
  0033e	0f b6 c0	 movzx	 eax, al
  00341	85 c0		 test	 eax, eax
  00343	74 1b		 je	 SHORT $LN16@Main
$LN17@Main:

; 79   : 		{
; 80   : 			if(lpMobObj->MapNumber != this->MobData[i].MapNumber)

  00345	8b 45 08	 mov	 eax, DWORD PTR _lpMobObj$[ebp]
  00348	0f b6 88 49 01
	00 00		 movzx	 ecx, BYTE PTR [eax+329]
  0034f	8b 55 f8	 mov	 edx, DWORD PTR _i$220407[ebp]
  00352	c1 e2 04	 shl	 edx, 4
  00355	8b 45 fc	 mov	 eax, DWORD PTR _this$[ebp]
  00358	3b 4c 10 10	 cmp	 ecx, DWORD PTR [eax+edx+16]
  0035c	74 02		 je	 SHORT $LN16@Main

; 81   : 			{
; 82   : 				continue;

  0035e	eb a4		 jmp	 SHORT $LN20@Main
$LN16@Main:

; 83   : 			}
; 84   : 		}
; 85   : 
; 86   : 		if(lpMobObj->Class == this->MobData[i].MobID)

  00360	8b 45 08	 mov	 eax, DWORD PTR _lpMobObj$[ebp]
  00363	0f b7 88 b8 00
	00 00		 movzx	 ecx, WORD PTR [eax+184]
  0036a	8b 55 f8	 mov	 edx, DWORD PTR _i$220407[ebp]
  0036d	c1 e2 04	 shl	 edx, 4
  00370	8b 45 fc	 mov	 eax, DWORD PTR _this$[ebp]
  00373	3b 4c 10 04	 cmp	 ecx, DWORD PTR [eax+edx+4]
  00377	0f 85 57 03 00
	00		 jne	 $LN15@Main

; 87   : 		{
; 88   : 			if(this->MobData[i].BonusType == 1)	//Credits

  0037d	8b 45 f8	 mov	 eax, DWORD PTR _i$220407[ebp]
  00380	c1 e0 04	 shl	 eax, 4
  00383	8b 4d fc	 mov	 ecx, DWORD PTR _this$[ebp]
  00386	83 7c 01 08 01	 cmp	 DWORD PTR [ecx+eax+8], 1
  0038b	75 60		 jne	 SHORT $LN14@Main

; 89   : 			{
; 90   : 				lpTargetObj->ExCred += this->MobData[i].BonusCount;

  0038d	8b 45 f8	 mov	 eax, DWORD PTR _i$220407[ebp]
  00390	c1 e0 04	 shl	 eax, 4
  00393	8b 4d fc	 mov	 ecx, DWORD PTR _this$[ebp]
  00396	db 44 01 0c	 fild	 DWORD PTR [ecx+eax+12]
  0039a	8b 55 0c	 mov	 edx, DWORD PTR _lpTargetObj$[ebp]
  0039d	d8 82 a8 22 00
	00		 fadd	 DWORD PTR [edx+8872]
  003a3	8b 45 0c	 mov	 eax, DWORD PTR _lpTargetObj$[ebp]
  003a6	d9 98 a8 22 00
	00		 fstp	 DWORD PTR [eax+8872]

; 91   : 				ExUserDataSend(lpTargetObj->m_Index);	//Может быть реконект если быстро убиваешь монстров нужно пересматривать

  003ac	8b 45 0c	 mov	 eax, DWORD PTR _lpTargetObj$[ebp]
  003af	8b 08		 mov	 ecx, DWORD PTR [eax]
  003b1	51		 push	 ecx
  003b2	e8 00 00 00 00	 call	 ?ExUserDataSend@@YAXH@Z	; ExUserDataSend
  003b7	83 c4 04	 add	 esp, 4

; 92   : 				MsgNormal(lpTargetObj->m_Index,g_ExText.GetText(109),this->MobData[i].BonusCount);

  003ba	8b 45 f8	 mov	 eax, DWORD PTR _i$220407[ebp]
  003bd	c1 e0 04	 shl	 eax, 4
  003c0	8b 4d fc	 mov	 ecx, DWORD PTR _this$[ebp]
  003c3	8b 54 01 0c	 mov	 edx, DWORD PTR [ecx+eax+12]
  003c7	52		 push	 edx
  003c8	6a 6d		 push	 109			; 0000006dH
  003ca	b9 00 00 00 00	 mov	 ecx, OFFSET ?g_ExText@@3VCExText@@A ; g_ExText
  003cf	e8 00 00 00 00	 call	 ?GetText@CExText@@QAEPADH@Z ; CExText::GetText
  003d4	50		 push	 eax
  003d5	8b 45 0c	 mov	 eax, DWORD PTR _lpTargetObj$[ebp]
  003d8	8b 08		 mov	 ecx, DWORD PTR [eax]
  003da	51		 push	 ecx
  003db	e8 00 00 00 00	 call	 ?MsgNormal@@YAXHPADZZ	; MsgNormal
  003e0	83 c4 0c	 add	 esp, 12			; 0000000cH

; 93   : 				return;

  003e3	e9 f1 02 00 00	 jmp	 $LN23@Main
  003e8	e9 4e 01 00 00	 jmp	 $LN8@Main
$LN14@Main:

; 94   : 			}
; 95   : 			else if(this->MobData[i].BonusType == 2)	//WcoinC

  003ed	8b 45 f8	 mov	 eax, DWORD PTR _i$220407[ebp]
  003f0	c1 e0 04	 shl	 eax, 4
  003f3	8b 4d fc	 mov	 ecx, DWORD PTR _this$[ebp]
  003f6	83 7c 01 08 02	 cmp	 DWORD PTR [ecx+eax+8], 2
  003fb	75 62		 jne	 SHORT $LN12@Main

; 96   : 			{
; 97   : 				lpTargetObj->GameShop.WCoinC += this->MobData[i].BonusCount;

  003fd	8b 45 f8	 mov	 eax, DWORD PTR _i$220407[ebp]
  00400	c1 e0 04	 shl	 eax, 4
  00403	8b 4d fc	 mov	 ecx, DWORD PTR _this$[ebp]
  00406	db 44 01 0c	 fild	 DWORD PTR [ecx+eax+12]
  0040a	8b 55 0c	 mov	 edx, DWORD PTR _lpTargetObj$[ebp]
  0040d	dc 82 00 23 00
	00		 fadd	 QWORD PTR [edx+8960]
  00413	8b 45 0c	 mov	 eax, DWORD PTR _lpTargetObj$[ebp]
  00416	dd 98 00 23 00
	00		 fstp	 QWORD PTR [eax+8960]

; 98   : 				gGameShop.GDSaveUserInfo(lpTargetObj->m_Index);

  0041c	8b 45 0c	 mov	 eax, DWORD PTR _lpTargetObj$[ebp]
  0041f	8b 08		 mov	 ecx, DWORD PTR [eax]
  00421	51		 push	 ecx
  00422	b9 00 00 00 00	 mov	 ecx, OFFSET ?gGameShop@@3VGameShop@@A ; gGameShop
  00427	e8 00 00 00 00	 call	 ?GDSaveUserInfo@GameShop@@QAEXH@Z ; GameShop::GDSaveUserInfo

; 99   : 				MsgNormal(lpTargetObj->m_Index,g_ExText.GetText(110),this->MobData[i].BonusCount);

  0042c	8b 45 f8	 mov	 eax, DWORD PTR _i$220407[ebp]
  0042f	c1 e0 04	 shl	 eax, 4
  00432	8b 4d fc	 mov	 ecx, DWORD PTR _this$[ebp]
  00435	8b 54 01 0c	 mov	 edx, DWORD PTR [ecx+eax+12]
  00439	52		 push	 edx
  0043a	6a 6e		 push	 110			; 0000006eH
  0043c	b9 00 00 00 00	 mov	 ecx, OFFSET ?g_ExText@@3VCExText@@A ; g_ExText
  00441	e8 00 00 00 00	 call	 ?GetText@CExText@@QAEPADH@Z ; CExText::GetText
  00446	50		 push	 eax
  00447	8b 45 0c	 mov	 eax, DWORD PTR _lpTargetObj$[ebp]
  0044a	8b 08		 mov	 ecx, DWORD PTR [eax]
  0044c	51		 push	 ecx
  0044d	e8 00 00 00 00	 call	 ?MsgNormal@@YAXHPADZZ	; MsgNormal
  00452	83 c4 0c	 add	 esp, 12			; 0000000cH

; 100  : 				return;

  00455	e9 7f 02 00 00	 jmp	 $LN23@Main
  0045a	e9 dc 00 00 00	 jmp	 $LN8@Main
$LN12@Main:

; 101  : 			}
; 102  : 			else if(this->MobData[i].BonusType == 3)	//Wcoin

  0045f	8b 45 f8	 mov	 eax, DWORD PTR _i$220407[ebp]
  00462	c1 e0 04	 shl	 eax, 4
  00465	8b 4d fc	 mov	 ecx, DWORD PTR _this$[ebp]
  00468	83 7c 01 08 03	 cmp	 DWORD PTR [ecx+eax+8], 3
  0046d	75 5f		 jne	 SHORT $LN10@Main

; 103  : 			{
; 104  : 				lpTargetObj->GameShop.WCoinP += this->MobData[i].BonusCount;

  0046f	8b 45 f8	 mov	 eax, DWORD PTR _i$220407[ebp]
  00472	c1 e0 04	 shl	 eax, 4
  00475	8b 4d fc	 mov	 ecx, DWORD PTR _this$[ebp]
  00478	db 44 01 0c	 fild	 DWORD PTR [ecx+eax+12]
  0047c	8b 55 0c	 mov	 edx, DWORD PTR _lpTargetObj$[ebp]
  0047f	dc 82 f8 22 00
	00		 fadd	 QWORD PTR [edx+8952]
  00485	8b 45 0c	 mov	 eax, DWORD PTR _lpTargetObj$[ebp]
  00488	dd 98 f8 22 00
	00		 fstp	 QWORD PTR [eax+8952]

; 105  : 				gGameShop.GDSaveUserInfo(lpTargetObj->m_Index);

  0048e	8b 45 0c	 mov	 eax, DWORD PTR _lpTargetObj$[ebp]
  00491	8b 08		 mov	 ecx, DWORD PTR [eax]
  00493	51		 push	 ecx
  00494	b9 00 00 00 00	 mov	 ecx, OFFSET ?gGameShop@@3VGameShop@@A ; gGameShop
  00499	e8 00 00 00 00	 call	 ?GDSaveUserInfo@GameShop@@QAEXH@Z ; GameShop::GDSaveUserInfo

; 106  : 				MsgNormal(lpTargetObj->m_Index,g_ExText.GetText(111),this->MobData[i].BonusCount);

  0049e	8b 45 f8	 mov	 eax, DWORD PTR _i$220407[ebp]
  004a1	c1 e0 04	 shl	 eax, 4
  004a4	8b 4d fc	 mov	 ecx, DWORD PTR _this$[ebp]
  004a7	8b 54 01 0c	 mov	 edx, DWORD PTR [ecx+eax+12]
  004ab	52		 push	 edx
  004ac	6a 6f		 push	 111			; 0000006fH
  004ae	b9 00 00 00 00	 mov	 ecx, OFFSET ?g_ExText@@3VCExText@@A ; g_ExText
  004b3	e8 00 00 00 00	 call	 ?GetText@CExText@@QAEPADH@Z ; CExText::GetText
  004b8	50		 push	 eax
  004b9	8b 45 0c	 mov	 eax, DWORD PTR _lpTargetObj$[ebp]
  004bc	8b 08		 mov	 ecx, DWORD PTR [eax]
  004be	51		 push	 ecx
  004bf	e8 00 00 00 00	 call	 ?MsgNormal@@YAXHPADZZ	; MsgNormal
  004c4	83 c4 0c	 add	 esp, 12			; 0000000cH

; 107  : 				return;

  004c7	e9 0d 02 00 00	 jmp	 $LN23@Main
  004cc	eb 6d		 jmp	 SHORT $LN8@Main
$LN10@Main:

; 108  : 			}
; 109  : 			else if(this->MobData[i].BonusType == 4)	//Wcoin

  004ce	8b 45 f8	 mov	 eax, DWORD PTR _i$220407[ebp]
  004d1	c1 e0 04	 shl	 eax, 4
  004d4	8b 4d fc	 mov	 ecx, DWORD PTR _this$[ebp]
  004d7	83 7c 01 08 04	 cmp	 DWORD PTR [ecx+eax+8], 4
  004dc	75 5d		 jne	 SHORT $LN8@Main

; 110  : 			{
; 111  : 				lpTargetObj->GameShop.GoblinPoint += this->MobData[i].BonusCount;

  004de	8b 45 f8	 mov	 eax, DWORD PTR _i$220407[ebp]
  004e1	c1 e0 04	 shl	 eax, 4
  004e4	8b 4d fc	 mov	 ecx, DWORD PTR _this$[ebp]
  004e7	db 44 01 0c	 fild	 DWORD PTR [ecx+eax+12]
  004eb	8b 55 0c	 mov	 edx, DWORD PTR _lpTargetObj$[ebp]
  004ee	dc 82 08 23 00
	00		 fadd	 QWORD PTR [edx+8968]
  004f4	8b 45 0c	 mov	 eax, DWORD PTR _lpTargetObj$[ebp]
  004f7	dd 98 08 23 00
	00		 fstp	 QWORD PTR [eax+8968]

; 112  : 				gGameShop.GDSaveUserInfo(lpTargetObj->m_Index);

  004fd	8b 45 0c	 mov	 eax, DWORD PTR _lpTargetObj$[ebp]
  00500	8b 08		 mov	 ecx, DWORD PTR [eax]
  00502	51		 push	 ecx
  00503	b9 00 00 00 00	 mov	 ecx, OFFSET ?gGameShop@@3VGameShop@@A ; gGameShop
  00508	e8 00 00 00 00	 call	 ?GDSaveUserInfo@GameShop@@QAEXH@Z ; GameShop::GDSaveUserInfo

; 113  : 				MsgNormal(lpTargetObj->m_Index,g_ExText.GetText(112),this->MobData[i].BonusCount);

  0050d	8b 45 f8	 mov	 eax, DWORD PTR _i$220407[ebp]
  00510	c1 e0 04	 shl	 eax, 4
  00513	8b 4d fc	 mov	 ecx, DWORD PTR _this$[ebp]
  00516	8b 54 01 0c	 mov	 edx, DWORD PTR [ecx+eax+12]
  0051a	52		 push	 edx
  0051b	6a 70		 push	 112			; 00000070H
  0051d	b9 00 00 00 00	 mov	 ecx, OFFSET ?g_ExText@@3VCExText@@A ; g_ExText
  00522	e8 00 00 00 00	 call	 ?GetText@CExText@@QAEPADH@Z ; CExText::GetText
  00527	50		 push	 eax
  00528	8b 45 0c	 mov	 eax, DWORD PTR _lpTargetObj$[ebp]
  0052b	8b 08		 mov	 ecx, DWORD PTR [eax]
  0052d	51		 push	 ecx
  0052e	e8 00 00 00 00	 call	 ?MsgNormal@@YAXHPADZZ	; MsgNormal
  00533	83 c4 0c	 add	 esp, 12			; 0000000cH

; 114  : 				return;

  00536	e9 9e 01 00 00	 jmp	 $LN23@Main
$LN8@Main:

; 115  : 			}
; 116  : #if(CUSTOM_MONSTER_PREMIUM)
; 117  : 			if(g_ExLicense.CheckUser(eExUB::Local) || g_ExLicense.CheckUser(eExUB::ulasevich) || g_ExLicense.CheckUser(eExUB::ulasevich2))

  0053b	6a 00		 push	 0
  0053d	b9 00 00 00 00	 mov	 ecx, OFFSET ?g_ExLicense@@3VCExLicense@@A ; g_ExLicense
  00542	e8 00 00 00 00	 call	 ?CheckUser@CExLicense@@QAE_NH@Z ; CExLicense::CheckUser
  00547	0f b6 c0	 movzx	 eax, al
  0054a	85 c0		 test	 eax, eax
  0054c	75 2a		 jne	 SHORT $LN6@Main
  0054e	6a 17		 push	 23			; 00000017H
  00550	b9 00 00 00 00	 mov	 ecx, OFFSET ?g_ExLicense@@3VCExLicense@@A ; g_ExLicense
  00555	e8 00 00 00 00	 call	 ?CheckUser@CExLicense@@QAE_NH@Z ; CExLicense::CheckUser
  0055a	0f b6 c0	 movzx	 eax, al
  0055d	85 c0		 test	 eax, eax
  0055f	75 17		 jne	 SHORT $LN6@Main
  00561	6a 24		 push	 36			; 00000024H
  00563	b9 00 00 00 00	 mov	 ecx, OFFSET ?g_ExLicense@@3VCExLicense@@A ; g_ExLicense
  00568	e8 00 00 00 00	 call	 ?CheckUser@CExLicense@@QAE_NH@Z ; CExLicense::CheckUser
  0056d	0f b6 c0	 movzx	 eax, al
  00570	85 c0		 test	 eax, eax
  00572	0f 84 5a 01 00
	00		 je	 $LN1@Main
$LN6@Main:

; 118  : 			{
; 119  : 				 if(this->MobData[i].BonusType == 5)

  00578	8b 45 f8	 mov	 eax, DWORD PTR _i$220407[ebp]
  0057b	c1 e0 04	 shl	 eax, 4
  0057e	8b 4d fc	 mov	 ecx, DWORD PTR _this$[ebp]
  00581	83 7c 01 08 05	 cmp	 DWORD PTR [ecx+eax+8], 5
  00586	75 66		 jne	 SHORT $LN5@Main

; 120  : 				 {
; 121  : 					lpTargetObj->PremiumTime += (this->MobData[i].BonusCount * 3600);

  00588	8b 45 f8	 mov	 eax, DWORD PTR _i$220407[ebp]
  0058b	c1 e0 04	 shl	 eax, 4
  0058e	8b 4d fc	 mov	 ecx, DWORD PTR _this$[ebp]
  00591	8b 54 01 0c	 mov	 edx, DWORD PTR [ecx+eax+12]
  00595	69 d2 10 0e 00
	00		 imul	 edx, 3600		; 00000e10H
  0059b	8b 45 0c	 mov	 eax, DWORD PTR _lpTargetObj$[ebp]
  0059e	03 90 b8 22 00
	00		 add	 edx, DWORD PTR [eax+8888]
  005a4	8b 4d 0c	 mov	 ecx, DWORD PTR _lpTargetObj$[ebp]
  005a7	89 91 b8 22 00
	00		 mov	 DWORD PTR [ecx+8888], edx

; 122  : 					lpTargetObj->PremiumTimeType = PREM_BRONZE;

  005ad	8b 45 0c	 mov	 eax, DWORD PTR _lpTargetObj$[ebp]
  005b0	c7 80 bc 22 00
	00 01 00 00 00	 mov	 DWORD PTR [eax+8892], 1

; 123  : 					MessageChat(lpTargetObj->m_Index, "@[Premium Status] +%d Hour, Type:Bronze", this->MobData[i].BonusCount);

  005ba	8b 45 f8	 mov	 eax, DWORD PTR _i$220407[ebp]
  005bd	c1 e0 04	 shl	 eax, 4
  005c0	8b 4d fc	 mov	 ecx, DWORD PTR _this$[ebp]
  005c3	8b 54 01 0c	 mov	 edx, DWORD PTR [ecx+eax+12]
  005c7	52		 push	 edx
  005c8	68 00 00 00 00	 push	 OFFSET ??_C@_0CI@PBGPAOLC@?$EA?$FLPremium?5Status?$FN?5?$CL?$CFd?5Hour?0?5Type@
  005cd	8b 45 0c	 mov	 eax, DWORD PTR _lpTargetObj$[ebp]
  005d0	8b 08		 mov	 ecx, DWORD PTR [eax]
  005d2	51		 push	 ecx
  005d3	e8 00 00 00 00	 call	 ?MessageChat@@YAXHPADZZ	; MessageChat
  005d8	83 c4 0c	 add	 esp, 12			; 0000000cH

; 124  : 					ExUserDataSend(lpTargetObj->m_Index);

  005db	8b 45 0c	 mov	 eax, DWORD PTR _lpTargetObj$[ebp]
  005de	8b 08		 mov	 ecx, DWORD PTR [eax]
  005e0	51		 push	 ecx
  005e1	e8 00 00 00 00	 call	 ?ExUserDataSend@@YAXH@Z	; ExUserDataSend
  005e6	83 c4 04	 add	 esp, 4
  005e9	e9 e4 00 00 00	 jmp	 $LN1@Main
$LN5@Main:

; 125  : 				 }
; 126  : 				 else if(this->MobData[i].BonusType == 6)

  005ee	8b 45 f8	 mov	 eax, DWORD PTR _i$220407[ebp]
  005f1	c1 e0 04	 shl	 eax, 4
  005f4	8b 4d fc	 mov	 ecx, DWORD PTR _this$[ebp]
  005f7	83 7c 01 08 06	 cmp	 DWORD PTR [ecx+eax+8], 6
  005fc	75 63		 jne	 SHORT $LN3@Main

; 127  : 				 {
; 128  : 					lpTargetObj->PremiumTime += (this->MobData[i].BonusCount * 3600);

  005fe	8b 45 f8	 mov	 eax, DWORD PTR _i$220407[ebp]
  00601	c1 e0 04	 shl	 eax, 4
  00604	8b 4d fc	 mov	 ecx, DWORD PTR _this$[ebp]
  00607	8b 54 01 0c	 mov	 edx, DWORD PTR [ecx+eax+12]
  0060b	69 d2 10 0e 00
	00		 imul	 edx, 3600		; 00000e10H
  00611	8b 45 0c	 mov	 eax, DWORD PTR _lpTargetObj$[ebp]
  00614	03 90 b8 22 00
	00		 add	 edx, DWORD PTR [eax+8888]
  0061a	8b 4d 0c	 mov	 ecx, DWORD PTR _lpTargetObj$[ebp]
  0061d	89 91 b8 22 00
	00		 mov	 DWORD PTR [ecx+8888], edx

; 129  : 					lpTargetObj->PremiumTimeType = PREM_SILVER;

  00623	8b 45 0c	 mov	 eax, DWORD PTR _lpTargetObj$[ebp]
  00626	c7 80 bc 22 00
	00 02 00 00 00	 mov	 DWORD PTR [eax+8892], 2

; 130  : 					MessageChat(lpTargetObj->m_Index, "@[Premium Status] +%d Hour, Type:Silver", this->MobData[i].BonusCount);

  00630	8b 45 f8	 mov	 eax, DWORD PTR _i$220407[ebp]
  00633	c1 e0 04	 shl	 eax, 4
  00636	8b 4d fc	 mov	 ecx, DWORD PTR _this$[ebp]
  00639	8b 54 01 0c	 mov	 edx, DWORD PTR [ecx+eax+12]
  0063d	52		 push	 edx
  0063e	68 00 00 00 00	 push	 OFFSET ??_C@_0CI@JJCDAOOL@?$EA?$FLPremium?5Status?$FN?5?$CL?$CFd?5Hour?0?5Type@
  00643	8b 45 0c	 mov	 eax, DWORD PTR _lpTargetObj$[ebp]
  00646	8b 08		 mov	 ecx, DWORD PTR [eax]
  00648	51		 push	 ecx
  00649	e8 00 00 00 00	 call	 ?MessageChat@@YAXHPADZZ	; MessageChat
  0064e	83 c4 0c	 add	 esp, 12			; 0000000cH

; 131  : 					ExUserDataSend(lpTargetObj->m_Index);

  00651	8b 45 0c	 mov	 eax, DWORD PTR _lpTargetObj$[ebp]
  00654	8b 08		 mov	 ecx, DWORD PTR [eax]
  00656	51		 push	 ecx
  00657	e8 00 00 00 00	 call	 ?ExUserDataSend@@YAXH@Z	; ExUserDataSend
  0065c	83 c4 04	 add	 esp, 4
  0065f	eb 71		 jmp	 SHORT $LN1@Main
$LN3@Main:

; 132  : 				 }
; 133  : 				 else if(this->MobData[i].BonusType == 7)

  00661	8b 45 f8	 mov	 eax, DWORD PTR _i$220407[ebp]
  00664	c1 e0 04	 shl	 eax, 4
  00667	8b 4d fc	 mov	 ecx, DWORD PTR _this$[ebp]
  0066a	83 7c 01 08 07	 cmp	 DWORD PTR [ecx+eax+8], 7
  0066f	75 61		 jne	 SHORT $LN1@Main

; 134  : 				 {
; 135  : 					lpTargetObj->PremiumTime += (this->MobData[i].BonusCount * 3600);

  00671	8b 45 f8	 mov	 eax, DWORD PTR _i$220407[ebp]
  00674	c1 e0 04	 shl	 eax, 4
  00677	8b 4d fc	 mov	 ecx, DWORD PTR _this$[ebp]
  0067a	8b 54 01 0c	 mov	 edx, DWORD PTR [ecx+eax+12]
  0067e	69 d2 10 0e 00
	00		 imul	 edx, 3600		; 00000e10H
  00684	8b 45 0c	 mov	 eax, DWORD PTR _lpTargetObj$[ebp]
  00687	03 90 b8 22 00
	00		 add	 edx, DWORD PTR [eax+8888]
  0068d	8b 4d 0c	 mov	 ecx, DWORD PTR _lpTargetObj$[ebp]
  00690	89 91 b8 22 00
	00		 mov	 DWORD PTR [ecx+8888], edx

; 136  : 					lpTargetObj->PremiumTimeType = PREM_GOLD;

  00696	8b 45 0c	 mov	 eax, DWORD PTR _lpTargetObj$[ebp]
  00699	c7 80 bc 22 00
	00 03 00 00 00	 mov	 DWORD PTR [eax+8892], 3

; 137  : 					MessageChat(lpTargetObj->m_Index, "@[Premium Status] +%d Hour, Type:Gold", this->MobData[i].BonusCount);

  006a3	8b 45 f8	 mov	 eax, DWORD PTR _i$220407[ebp]
  006a6	c1 e0 04	 shl	 eax, 4
  006a9	8b 4d fc	 mov	 ecx, DWORD PTR _this$[ebp]
  006ac	8b 54 01 0c	 mov	 edx, DWORD PTR [ecx+eax+12]
  006b0	52		 push	 edx
  006b1	68 00 00 00 00	 push	 OFFSET ??_C@_0CG@MFFNBMBD@?$EA?$FLPremium?5Status?$FN?5?$CL?$CFd?5Hour?0?5Type@
  006b6	8b 45 0c	 mov	 eax, DWORD PTR _lpTargetObj$[ebp]
  006b9	8b 08		 mov	 ecx, DWORD PTR [eax]
  006bb	51		 push	 ecx
  006bc	e8 00 00 00 00	 call	 ?MessageChat@@YAXHPADZZ	; MessageChat
  006c1	83 c4 0c	 add	 esp, 12			; 0000000cH

; 138  : 					ExUserDataSend(lpTargetObj->m_Index);

  006c4	8b 45 0c	 mov	 eax, DWORD PTR _lpTargetObj$[ebp]
  006c7	8b 08		 mov	 ecx, DWORD PTR [eax]
  006c9	51		 push	 ecx
  006ca	e8 00 00 00 00	 call	 ?ExUserDataSend@@YAXH@Z	; ExUserDataSend
  006cf	83 c4 04	 add	 esp, 4
$LN1@Main:

; 139  : 				 }
; 140  : 			}
; 141  : #endif
; 142  : 			return;

  006d2	eb 05		 jmp	 SHORT $LN23@Main
$LN15@Main:

; 143  : 		}
; 144  : 	}

  006d4	e9 2b fc ff ff	 jmp	 $LN20@Main
$LN19@Main:
$LN23@Main:

; 145  : }

  006d9	5f		 pop	 edi
  006da	5e		 pop	 esi
  006db	5b		 pop	 ebx
  006dc	8b e5		 mov	 esp, ebp
  006de	5d		 pop	 ebp
  006df	c2 08 00	 ret	 8
?Main@cMonsterBonus@@QAEXPAUOBJECTSTRUCT@@0@Z ENDP	; cMonsterBonus::Main
_TEXT	ENDS
EXTRN	_atexit:PROC
; Function compile flags: /Odtp /ZI
;	COMDAT ??__EgMonsterBonus@@YAXXZ
text$yc	SEGMENT
??__EgMonsterBonus@@YAXXZ PROC				; `dynamic initializer for 'gMonsterBonus'', COMDAT

; 10   : cMonsterBonus gMonsterBonus;

  00000	55		 push	 ebp
  00001	8b ec		 mov	 ebp, esp
  00003	83 ec 40	 sub	 esp, 64			; 00000040H
  00006	53		 push	 ebx
  00007	56		 push	 esi
  00008	57		 push	 edi
  00009	b9 00 00 00 00	 mov	 ecx, OFFSET ?gMonsterBonus@@3VcMonsterBonus@@A ; gMonsterBonus
  0000e	e8 00 00 00 00	 call	 ??0cMonsterBonus@@QAE@XZ ; cMonsterBonus::cMonsterBonus
  00013	68 00 00 00 00	 push	 OFFSET ??__FgMonsterBonus@@YAXXZ ; `dynamic atexit destructor for 'gMonsterBonus''
  00018	e8 00 00 00 00	 call	 _atexit
  0001d	83 c4 04	 add	 esp, 4
  00020	5f		 pop	 edi
  00021	5e		 pop	 esi
  00022	5b		 pop	 ebx
  00023	8b e5		 mov	 esp, ebp
  00025	5d		 pop	 ebp
  00026	c3		 ret	 0
??__EgMonsterBonus@@YAXXZ ENDP				; `dynamic initializer for 'gMonsterBonus''
; Function compile flags: /Odtp /ZI
text$yc	ENDS
;	COMDAT ??__FgMonsterBonus@@YAXXZ
text$yd	SEGMENT
??__FgMonsterBonus@@YAXXZ PROC				; `dynamic atexit destructor for 'gMonsterBonus'', COMDAT
  00000	55		 push	 ebp
  00001	8b ec		 mov	 ebp, esp
  00003	83 ec 40	 sub	 esp, 64			; 00000040H
  00006	53		 push	 ebx
  00007	56		 push	 esi
  00008	57		 push	 edi
  00009	b9 00 00 00 00	 mov	 ecx, OFFSET ?gMonsterBonus@@3VcMonsterBonus@@A ; gMonsterBonus
  0000e	e8 00 00 00 00	 call	 ??1cMonsterBonus@@QAE@XZ ; cMonsterBonus::~cMonsterBonus
  00013	5f		 pop	 edi
  00014	5e		 pop	 esi
  00015	5b		 pop	 ebx
  00016	8b e5		 mov	 esp, ebp
  00018	5d		 pop	 ebp
  00019	c3		 ret	 0
??__FgMonsterBonus@@YAXXZ ENDP				; `dynamic atexit destructor for 'gMonsterBonus''
text$yd	ENDS
PUBLIC	?gMonsterBonus@@3VcMonsterBonus@@A		; gMonsterBonus
_BSS	SEGMENT
?gMonsterBonus@@3VcMonsterBonus@@A DB 0648H DUP (?)	; gMonsterBonus
_BSS	ENDS
CRT$XCU	SEGMENT
_gMonsterBonus$initializer$ DD FLAT:??__EgMonsterBonus@@YAXXZ
CRT$XCU	ENDS
END
